	.section	__TEXT,__text,regular,pure_instructions
	.macosx_version_min 10, 7
	.p2align	4, 0x90
__ZN119_$LT$core..ptr..non_null..NonNull$LT$T$GT$$u20$as$u20$core..convert..From$LT$core..ptr..unique..Unique$LT$T$GT$$GT$$GT$4from17h5b7ee4321c96ca69E:
Lfunc_begin0:
	.file	1 "/rustc/2c8cc343237b8f7d5a3c3703e3a87f2eb2c54a74/library/core/src/ptr" "non_null.rs"
	.loc	1 765 0
	.cfi_startproc
	pushq	%rbp
	.cfi_def_cfa_offset 16
	.cfi_offset %rbp, -16
	movq	%rsp, %rbp
	.cfi_def_cfa_register %rbp
	subq	$40, %rsp
	movq	%rdi, -32(%rbp)
Ltmp0:
	.loc	1 768 41 prologue_end
	movq	%rdi, -24(%rbp)
Ltmp1:
	.file	2 "/rustc/2c8cc343237b8f7d5a3c3703e3a87f2eb2c54a74/library/core/src/ptr" "unique.rs"
	.loc	2 104 9
	movq	%rdi, -16(%rbp)
Ltmp2:
	.loc	1 326 9
	movq	%rdi, -8(%rbp)
Ltmp3:
	.loc	1 201 13
	movq	%rdi, -40(%rbp)
Ltmp4:
	.loc	1 769 6
	movq	-40(%rbp), %rax
	addq	$40, %rsp
	popq	%rbp
	retq
Ltmp5:
Lfunc_end0:
	.cfi_endproc

	.p2align	4, 0x90
__ZN3std10sys_common9backtrace28__rust_begin_short_backtrace17h41cf23cb1fc6bdefE:
Lfunc_begin1:
	.file	3 "/rustc/2c8cc343237b8f7d5a3c3703e3a87f2eb2c54a74/library/std/src/sys_common" "backtrace.rs"
	.loc	3 117 0
	.cfi_startproc
	pushq	%rbp
	.cfi_def_cfa_offset 16
	.cfi_offset %rbp, -16
	movq	%rsp, %rbp
	.cfi_def_cfa_register %rbp
	subq	$48, %rsp
	movq	%rdi, -32(%rbp)
Ltmp6:
	.loc	3 121 18 prologue_end
	callq	__ZN4core3ops8function6FnOnce9call_once17h92cd0dc4630a371cE
Ltmp7:
	.file	4 "/rustc/2c8cc343237b8f7d5a3c3703e3a87f2eb2c54a74/library/core/src" "hint.rs"
	.loc	4 295 5
	## InlineAsm Start
	## InlineAsm End
Ltmp8:
	.loc	3 127 2
	addq	$48, %rsp
	popq	%rbp
	retq
Ltmp9:
Lfunc_end1:
	.cfi_endproc

	.private_extern	__ZN3std2rt10lang_start17hfff5e67647019e10E
	.globl	__ZN3std2rt10lang_start17hfff5e67647019e10E
	.p2align	4, 0x90
__ZN3std2rt10lang_start17hfff5e67647019e10E:
Lfunc_begin2:
	.file	5 "/rustc/2c8cc343237b8f7d5a3c3703e3a87f2eb2c54a74/library/std/src" "rt.rs"
	.loc	5 159 0
	.cfi_startproc
	pushq	%rbp
	.cfi_def_cfa_offset 16
	.cfi_offset %rbp, -16
	movq	%rsp, %rbp
	.cfi_def_cfa_register %rbp
	subq	$64, %rsp
	movl	%ecx, %eax
	movq	%rdx, %rcx
	movq	%rsi, %rdx
	movq	%rdi, -40(%rbp)
	movq	%rdx, -32(%rbp)
	movq	%rcx, -24(%rbp)
	movb	%al, -9(%rbp)
Ltmp10:
	.loc	5 166 10 prologue_end
	movq	%rdi, -48(%rbp)
	.loc	5 165 17
	leaq	-48(%rbp), %rdi
	leaq	l___unnamed_1(%rip), %rsi
	movzbl	%al, %r8d
	callq	__ZN3std2rt19lang_start_internal17h72dc55d09e0a2397E
	movq	%rax, -56(%rbp)
	.loc	5 165 12 is_stmt 0
	movq	-56(%rbp), %rax
	movq	%rax, -8(%rbp)
	.loc	5 172 2 is_stmt 1
	addq	$64, %rsp
	popq	%rbp
	retq
Ltmp11:
Lfunc_end2:
	.cfi_endproc

	.p2align	4, 0x90
__ZN3std2rt10lang_start28_$u7b$$u7b$closure$u7d$$u7d$17h306bcb804319b87cE:
Lfunc_begin3:
	.loc	5 166 0
	.cfi_startproc
	pushq	%rbp
	.cfi_def_cfa_offset 16
	.cfi_offset %rbp, -16
	movq	%rsp, %rbp
	.cfi_def_cfa_register %rbp
	subq	$32, %rsp
	movq	%rdi, -16(%rbp)
Ltmp12:
	.loc	5 166 77 prologue_end
	movq	(%rdi), %rdi
	.loc	5 166 18 is_stmt 0
	callq	__ZN3std10sys_common9backtrace28__rust_begin_short_backtrace17h41cf23cb1fc6bdefE
	callq	__ZN54_$LT$$LP$$RP$$u20$as$u20$std..process..Termination$GT$6report17hb6f5c91ed637cbdeE
	movb	%al, -17(%rbp)
Ltmp13:
	.file	6 "/rustc/2c8cc343237b8f7d5a3c3703e3a87f2eb2c54a74/library/std/src" "process.rs"
	.loc	6 1820 9 is_stmt 1
	leaq	-17(%rbp), %rax
	movq	%rax, -8(%rbp)
Ltmp14:
	.file	7 "/rustc/2c8cc343237b8f7d5a3c3703e3a87f2eb2c54a74/library/std/src/sys/unix/process" "process_common.rs"
	.loc	7 594 9
	movzbl	-17(%rbp), %eax
Ltmp15:
	.loc	5 166 100
	addq	$32, %rsp
	popq	%rbp
	retq
Ltmp16:
Lfunc_end3:
	.cfi_endproc

	.p2align	4, 0x90
__ZN3std3env3var17hc5183db765464c28E:
Lfunc_begin4:
	.file	8 "/rustc/2c8cc343237b8f7d5a3c3703e3a87f2eb2c54a74/library/std/src" "env.rs"
	.loc	8 227 0
	.cfi_startproc
	.cfi_personality 155, _rust_eh_personality
	.cfi_lsda 16, Lexception0
	pushq	%rbp
	.cfi_def_cfa_offset 16
	.cfi_offset %rbp, -16
	movq	%rsp, %rbp
	.cfi_def_cfa_register %rbp
	subq	$64, %rsp
	movq	%rdi, -64(%rbp)
	movq	%rdi, -56(%rbp)
	movq	%rsi, -32(%rbp)
	movq	%rdx, -24(%rbp)
Ltmp17:
	leaq	-32(%rbp), %rdi
Ltmp22:
	.loc	8 228 10 prologue_end
	callq	__ZN55_$LT$$RF$T$u20$as$u20$core..convert..AsRef$LT$U$GT$$GT$6as_ref17h6ceb756b63cc3fbcE
Ltmp18:
	movq	%rdx, -48(%rbp)
	movq	%rax, -40(%rbp)
	jmp	LBB4_3
LBB4_1:
	.loc	8 227 1
	movq	-16(%rbp), %rdi
	callq	__Unwind_Resume
LBB4_2:
Ltmp21:
	.loc	8 0 1 is_stmt 0
	movq	%rax, %rcx
	movl	%edx, %eax
	movq	%rcx, -16(%rbp)
	movl	%eax, -8(%rbp)
	jmp	LBB4_1
LBB4_3:
Ltmp19:
	movq	-48(%rbp), %rdx
	movq	-40(%rbp), %rsi
	movq	-64(%rbp), %rdi
	.loc	8 228 5 is_stmt 1
	callq	__ZN3std3env4_var17h3981769605209d03E
Ltmp20:
	jmp	LBB4_4
LBB4_4:
	.loc	8 0 5 is_stmt 0
	movq	-56(%rbp), %rax
	.loc	8 229 2 is_stmt 1
	addq	$64, %rsp
	popq	%rbp
	retq
Ltmp23:
Lfunc_end4:
	.cfi_endproc
	.section	__TEXT,__gcc_except_tab
	.p2align	2
GCC_except_table4:
Lexception0:
	.byte	255
	.byte	255
	.byte	1
	.uleb128 Lcst_end0-Lcst_begin0
Lcst_begin0:
	.uleb128 Ltmp17-Lfunc_begin4
	.uleb128 Ltmp18-Ltmp17
	.uleb128 Ltmp21-Lfunc_begin4
	.byte	0
	.uleb128 Ltmp18-Lfunc_begin4
	.uleb128 Ltmp19-Ltmp18
	.byte	0
	.byte	0
	.uleb128 Ltmp19-Lfunc_begin4
	.uleb128 Ltmp20-Ltmp19
	.uleb128 Ltmp21-Lfunc_begin4
	.byte	0
Lcst_end0:
	.p2align	2

	.section	__TEXT,__text,regular,pure_instructions
	.p2align	4, 0x90
__ZN3std3ffi6os_str85_$LT$impl$u20$core..convert..AsRef$LT$std..ffi..os_str..OsStr$GT$$u20$for$u20$str$GT$6as_ref17h4746b14175f25d08E:
Lfunc_begin5:
	.file	9 "/rustc/2c8cc343237b8f7d5a3c3703e3a87f2eb2c54a74/library/std/src/ffi" "os_str.rs"
	.loc	9 1321 0
	.cfi_startproc
	pushq	%rbp
	.cfi_def_cfa_offset 16
	.cfi_offset %rbp, -16
	movq	%rsp, %rbp
	.cfi_def_cfa_register %rbp
	subq	$112, %rsp
	movq	%rdi, -112(%rbp)
	movq	%rsi, -104(%rbp)
Ltmp24:
	.loc	9 1322 43 prologue_end
	movq	%rdi, -96(%rbp)
	movq	%rsi, -88(%rbp)
Ltmp25:
	.file	10 "/rustc/2c8cc343237b8f7d5a3c3703e3a87f2eb2c54a74/library/std/src/sys/unix" "os_str.rs"
	.loc	10 201 30
	movq	%rdi, -80(%rbp)
	movq	%rsi, -72(%rbp)
Ltmp26:
	.file	11 "/rustc/2c8cc343237b8f7d5a3c3703e3a87f2eb2c54a74/library/core/src/str" "mod.rs"
	.loc	11 327 18
	movq	%rdi, -64(%rbp)
	movq	%rsi, -56(%rbp)
	movq	-64(%rbp), %rcx
	movq	-56(%rbp), %rax
Ltmp27:
	.loc	10 201 30
	movq	%rcx, -48(%rbp)
	movq	%rax, -40(%rbp)
Ltmp28:
	.loc	10 196 18
	movq	%rcx, -32(%rbp)
	movq	%rax, -24(%rbp)
	movq	-32(%rbp), %rax
	movq	-24(%rbp), %rdx
Ltmp29:
	.loc	9 1322 27
	movq	%rax, -16(%rbp)
	movq	%rdx, -8(%rbp)
	.loc	9 1323 6
	addq	$112, %rsp
	popq	%rbp
	retq
Ltmp30:
Lfunc_end5:
	.cfi_endproc

	.p2align	4, 0x90
__ZN4core3fmt9Arguments6new_v117h0f72b99c87e6fabbE:
Lfunc_begin6:
	.file	12 "/rustc/2c8cc343237b8f7d5a3c3703e3a87f2eb2c54a74/library/core/src/fmt" "mod.rs"
	.loc	12 399 0
	.cfi_startproc
	pushq	%rbp
	.cfi_def_cfa_offset 16
	.cfi_offset %rbp, -16
	movq	%rsp, %rbp
	.cfi_def_cfa_register %rbp
	subq	$160, %rsp
	movq	%r8, -152(%rbp)
	movq	%rcx, -144(%rbp)
	movq	%rdx, -136(%rbp)
	movq	%rsi, -128(%rbp)
	movq	%rdi, -120(%rbp)
	movq	%rdi, -112(%rbp)
	movq	%rsi, -32(%rbp)
	movq	%rdx, -24(%rbp)
	movq	%rcx, -16(%rbp)
	movq	%r8, -8(%rbp)
Ltmp31:
	.loc	12 400 12 prologue_end
	cmpq	%r8, %rdx
	jb	LBB6_2
	.loc	12 0 12 is_stmt 0
	movq	-136(%rbp), %rax
	movq	-152(%rbp), %rcx
	.loc	12 400 56
	addq	$1, %rcx
	.loc	12 400 41
	cmpq	%rcx, %rax
	seta	%al
	.loc	12 400 12
	andb	$1, %al
	movb	%al, -97(%rbp)
	jmp	LBB6_3
LBB6_2:
	movb	$1, -97(%rbp)
LBB6_3:
	testb	$1, -97(%rbp)
	jne	LBB6_5
	.loc	12 0 12
	movq	-112(%rbp), %rax
	movq	-120(%rbp), %rcx
	movq	-152(%rbp), %rdx
	movq	-144(%rbp), %rsi
	movq	-136(%rbp), %rdi
	movq	-128(%rbp), %r8
	.loc	12 403 34 is_stmt 1
	movq	$0, -48(%rbp)
	.loc	12 403 9 is_stmt 0
	movq	%r8, 16(%rcx)
	movq	%rdi, 24(%rcx)
	movq	-48(%rbp), %r8
	movq	-40(%rbp), %rdi
	movq	%r8, (%rcx)
	movq	%rdi, 8(%rcx)
	movq	%rsi, 32(%rcx)
	movq	%rdx, 40(%rcx)
	.loc	12 404 6 is_stmt 1
	addq	$160, %rsp
	popq	%rbp
	retq
LBB6_5:
	.loc	12 401 13
	leaq	l___unnamed_2(%rip), %rsi
	leaq	l___unnamed_3(%rip), %rcx
	xorl	%eax, %eax
	movl	%eax, %r8d
	leaq	-96(%rbp), %rdi
	movq	%rdi, -160(%rbp)
	movl	$1, %edx
	callq	__ZN4core3fmt9Arguments6new_v117h0f72b99c87e6fabbE
	movq	-160(%rbp), %rdi
	leaq	l___unnamed_4(%rip), %rsi
	callq	__ZN4core9panicking9panic_fmt17h9b5d807e24bcaaedE
Ltmp32:
Lfunc_end6:
	.cfi_endproc

	.p2align	4, 0x90
__ZN4core3ops8function6FnOnce40call_once$u7b$$u7b$vtable.shim$u7d$$u7d$17hf1d6fe7eddfff999E:
Lfunc_begin7:
	.file	13 "/rustc/2c8cc343237b8f7d5a3c3703e3a87f2eb2c54a74/library/core/src/ops" "function.rs"
	.loc	13 250 0
	.cfi_startproc
	pushq	%rbp
	.cfi_def_cfa_offset 16
	.cfi_offset %rbp, -16
	movq	%rsp, %rbp
	.cfi_def_cfa_register %rbp
	subq	$16, %rsp
	movq	%rdi, -8(%rbp)
Ltmp33:
	.loc	13 250 5 prologue_end
	movq	(%rdi), %rdi
	callq	__ZN4core3ops8function6FnOnce9call_once17hdf4ba0618a8c0af9E
	addq	$16, %rsp
	popq	%rbp
	retq
Ltmp34:
Lfunc_end7:
	.cfi_endproc

	.p2align	4, 0x90
__ZN4core3ops8function6FnOnce9call_once17h92cd0dc4630a371cE:
Lfunc_begin8:
	.loc	13 250 0
	.cfi_startproc
	pushq	%rbp
	.cfi_def_cfa_offset 16
	.cfi_offset %rbp, -16
	movq	%rsp, %rbp
	.cfi_def_cfa_register %rbp
	subq	$16, %rsp
	movq	%rdi, -8(%rbp)
Ltmp35:
	.loc	13 250 5 prologue_end
	callq	*%rdi
	addq	$16, %rsp
	popq	%rbp
	retq
Ltmp36:
Lfunc_end8:
	.cfi_endproc

	.p2align	4, 0x90
__ZN4core3ops8function6FnOnce9call_once17hdf4ba0618a8c0af9E:
Lfunc_begin9:
	.loc	13 250 0
	.cfi_startproc
	.cfi_personality 155, _rust_eh_personality
	.cfi_lsda 16, Lexception1
	pushq	%rbp
	.cfi_def_cfa_offset 16
	.cfi_offset %rbp, -16
	movq	%rsp, %rbp
	.cfi_def_cfa_register %rbp
	subq	$48, %rsp
	movq	%rdi, -32(%rbp)
Ltmp37:
	leaq	-32(%rbp), %rdi
Ltmp40:
	.loc	13 250 5 prologue_end
	callq	__ZN3std2rt10lang_start28_$u7b$$u7b$closure$u7d$$u7d$17h306bcb804319b87cE
Ltmp38:
	movl	%eax, -36(%rbp)
	jmp	LBB9_3
LBB9_1:
	movq	-16(%rbp), %rdi
	callq	__Unwind_Resume
LBB9_2:
Ltmp39:
	.loc	13 0 5 is_stmt 0
	movq	%rax, %rcx
	movl	%edx, %eax
	movq	%rcx, -16(%rbp)
	movl	%eax, -8(%rbp)
	jmp	LBB9_1
LBB9_3:
	movl	-36(%rbp), %eax
	.loc	13 250 5
	addq	$48, %rsp
	popq	%rbp
	retq
Ltmp41:
Lfunc_end9:
	.cfi_endproc
	.section	__TEXT,__gcc_except_tab
	.p2align	2
GCC_except_table9:
Lexception1:
	.byte	255
	.byte	255
	.byte	1
	.uleb128 Lcst_end1-Lcst_begin1
Lcst_begin1:
	.uleb128 Ltmp37-Lfunc_begin9
	.uleb128 Ltmp38-Ltmp37
	.uleb128 Ltmp39-Lfunc_begin9
	.byte	0
	.uleb128 Ltmp38-Lfunc_begin9
	.uleb128 Lfunc_end9-Ltmp38
	.byte	0
	.byte	0
Lcst_end1:
	.p2align	2

	.section	__TEXT,__text,regular,pure_instructions
	.p2align	4, 0x90
__ZN4core3ptr39drop_in_place$LT$std..env..VarError$GT$17h7adcf05a2afa1fd3E:
Lfunc_begin10:
	.file	14 "/rustc/2c8cc343237b8f7d5a3c3703e3a87f2eb2c54a74/library/core/src/ptr" "mod.rs"
	.loc	14 490 0 is_stmt 1
	.cfi_startproc
	pushq	%rbp
	.cfi_def_cfa_offset 16
	.cfi_offset %rbp, -16
	movq	%rsp, %rbp
	.cfi_def_cfa_register %rbp
	subq	$16, %rsp
	movq	%rdi, -16(%rbp)
	movq	%rdi, -8(%rbp)
Ltmp42:
	.loc	14 490 1 prologue_end
	movq	8(%rdi), %rdx
	movl	$1, %eax
	xorl	%ecx, %ecx
	cmpq	$0, %rdx
	cmoveq	%rcx, %rax
	cmpq	$0, %rax
	jne	LBB10_2
LBB10_1:
	addq	$16, %rsp
	popq	%rbp
	retq
LBB10_2:
	.loc	14 0 1 is_stmt 0
	movq	-16(%rbp), %rdi
	.loc	14 490 1
	callq	__ZN4core3ptr47drop_in_place$LT$std..ffi..os_str..OsString$GT$17h590b29a5ea448163E
	jmp	LBB10_1
Ltmp43:
Lfunc_end10:
	.cfi_endproc

	.p2align	4, 0x90
__ZN4core3ptr42drop_in_place$LT$alloc..string..String$GT$17hc724540d9fbbbe05E:
Lfunc_begin11:
	.loc	14 490 0 is_stmt 1
	.cfi_startproc
	pushq	%rbp
	.cfi_def_cfa_offset 16
	.cfi_offset %rbp, -16
	movq	%rsp, %rbp
	.cfi_def_cfa_register %rbp
	subq	$16, %rsp
	movq	%rdi, -8(%rbp)
Ltmp44:
	.loc	14 490 1 prologue_end
	callq	__ZN4core3ptr46drop_in_place$LT$alloc..vec..Vec$LT$u8$GT$$GT$17h2d3c25d5b691d71eE
	addq	$16, %rsp
	popq	%rbp
	retq
Ltmp45:
Lfunc_end11:
	.cfi_endproc

	.p2align	4, 0x90
__ZN4core3ptr46drop_in_place$LT$alloc..vec..Vec$LT$u8$GT$$GT$17h2d3c25d5b691d71eE:
Lfunc_begin12:
	.loc	14 490 0
	.cfi_startproc
	.cfi_personality 155, _rust_eh_personality
	.cfi_lsda 16, Lexception2
	pushq	%rbp
	.cfi_def_cfa_offset 16
	.cfi_offset %rbp, -16
	movq	%rsp, %rbp
	.cfi_def_cfa_register %rbp
	subq	$32, %rsp
	movq	%rdi, -32(%rbp)
	movq	%rdi, -24(%rbp)
Ltmp46:
Ltmp52:
	.loc	14 490 1 prologue_end
	callq	__ZN70_$LT$alloc..vec..Vec$LT$T$C$A$GT$$u20$as$u20$core..ops..drop..Drop$GT$4drop17h83070c48751dd58eE
Ltmp47:
	jmp	LBB12_3
LBB12_1:
Ltmp49:
	.loc	14 0 1 is_stmt 0
	movq	-32(%rbp), %rdi
	.loc	14 490 1
	callq	__ZN4core3ptr53drop_in_place$LT$alloc..raw_vec..RawVec$LT$u8$GT$$GT$17h1167b5f54211c10aE
Ltmp50:
	jmp	LBB12_5
LBB12_2:
Ltmp48:
	.loc	14 0 1
	movq	%rax, %rcx
	movl	%edx, %eax
	movq	%rcx, -16(%rbp)
	movl	%eax, -8(%rbp)
	jmp	LBB12_1
LBB12_3:
	movq	-32(%rbp), %rdi
	.loc	14 490 1
	callq	__ZN4core3ptr53drop_in_place$LT$alloc..raw_vec..RawVec$LT$u8$GT$$GT$17h1167b5f54211c10aE
	addq	$32, %rsp
	popq	%rbp
	retq
LBB12_4:
Ltmp51:
	callq	__ZN4core9panicking19panic_cannot_unwind17h1fbca7e1d7f56ae1E
LBB12_5:
	movq	-16(%rbp), %rdi
	callq	__Unwind_Resume
Ltmp53:
Lfunc_end12:
	.cfi_endproc
	.section	__TEXT,__gcc_except_tab
	.p2align	2
GCC_except_table12:
Lexception2:
	.byte	255
	.byte	255
	.byte	1
	.uleb128 Lcst_end2-Lcst_begin2
Lcst_begin2:
	.uleb128 Ltmp46-Lfunc_begin12
	.uleb128 Ltmp47-Ltmp46
	.uleb128 Ltmp48-Lfunc_begin12
	.byte	0
	.uleb128 Ltmp49-Lfunc_begin12
	.uleb128 Ltmp50-Ltmp49
	.uleb128 Ltmp51-Lfunc_begin12
	.byte	0
	.uleb128 Ltmp50-Lfunc_begin12
	.uleb128 Lfunc_end12-Ltmp50
	.byte	0
	.byte	0
Lcst_end2:
	.p2align	2

	.section	__TEXT,__text,regular,pure_instructions
	.p2align	4, 0x90
__ZN4core3ptr47drop_in_place$LT$std..ffi..os_str..OsString$GT$17h590b29a5ea448163E:
Lfunc_begin13:
	.loc	14 490 0 is_stmt 1
	.cfi_startproc
	pushq	%rbp
	.cfi_def_cfa_offset 16
	.cfi_offset %rbp, -16
	movq	%rsp, %rbp
	.cfi_def_cfa_register %rbp
	subq	$16, %rsp
	movq	%rdi, -8(%rbp)
Ltmp54:
	.loc	14 490 1 prologue_end
	callq	__ZN4core3ptr48drop_in_place$LT$std..sys..unix..os_str..Buf$GT$17hc6ab6079fd0b7eebE
	addq	$16, %rsp
	popq	%rbp
	retq
Ltmp55:
Lfunc_end13:
	.cfi_endproc

	.p2align	4, 0x90
__ZN4core3ptr48drop_in_place$LT$std..sys..unix..os_str..Buf$GT$17hc6ab6079fd0b7eebE:
Lfunc_begin14:
	.loc	14 490 0
	.cfi_startproc
	pushq	%rbp
	.cfi_def_cfa_offset 16
	.cfi_offset %rbp, -16
	movq	%rsp, %rbp
	.cfi_def_cfa_register %rbp
	subq	$16, %rsp
	movq	%rdi, -8(%rbp)
Ltmp56:
	.loc	14 490 1 prologue_end
	callq	__ZN4core3ptr46drop_in_place$LT$alloc..vec..Vec$LT$u8$GT$$GT$17h2d3c25d5b691d71eE
	addq	$16, %rsp
	popq	%rbp
	retq
Ltmp57:
Lfunc_end14:
	.cfi_endproc

	.p2align	4, 0x90
__ZN4core3ptr53drop_in_place$LT$alloc..raw_vec..RawVec$LT$u8$GT$$GT$17h1167b5f54211c10aE:
Lfunc_begin15:
	.loc	14 490 0
	.cfi_startproc
	pushq	%rbp
	.cfi_def_cfa_offset 16
	.cfi_offset %rbp, -16
	movq	%rsp, %rbp
	.cfi_def_cfa_register %rbp
	subq	$16, %rsp
	movq	%rdi, -8(%rbp)
Ltmp58:
	.loc	14 490 1 prologue_end
	callq	__ZN77_$LT$alloc..raw_vec..RawVec$LT$T$C$A$GT$$u20$as$u20$core..ops..drop..Drop$GT$4drop17h80c1f1fc3f75a037E
	addq	$16, %rsp
	popq	%rbp
	retq
Ltmp59:
Lfunc_end15:
	.cfi_endproc

	.p2align	4, 0x90
__ZN4core3ptr85drop_in_place$LT$std..rt..lang_start$LT$$LP$$RP$$GT$..$u7b$$u7b$closure$u7d$$u7d$$GT$17h482f6a49cf92314fE:
Lfunc_begin16:
	.loc	14 490 0
	.cfi_startproc
	pushq	%rbp
	.cfi_def_cfa_offset 16
	.cfi_offset %rbp, -16
	movq	%rsp, %rbp
	.cfi_def_cfa_register %rbp
	pushq	%rax
	movq	%rdi, -8(%rbp)
Ltmp60:
	.loc	14 490 1 prologue_end
	addq	$8, %rsp
	popq	%rbp
	retq
Ltmp61:
Lfunc_end16:
	.cfi_endproc

	.p2align	4, 0x90
__ZN4core3str6traits54_$LT$impl$u20$core..cmp..PartialEq$u20$for$u20$str$GT$2eq17h898d1c328749e497E:
Lfunc_begin17:
	.file	15 "/rustc/2c8cc343237b8f7d5a3c3703e3a87f2eb2c54a74/library/core/src/str" "traits.rs"
	.loc	15 28 0
	.cfi_startproc
	pushq	%rbp
	.cfi_def_cfa_offset 16
	.cfi_offset %rbp, -16
	movq	%rsp, %rbp
	.cfi_def_cfa_register %rbp
	subq	$112, %rsp
	movq	%rdi, -80(%rbp)
	movq	%rsi, -72(%rbp)
	movq	%rdx, -64(%rbp)
	movq	%rcx, -56(%rbp)
Ltmp62:
	.loc	15 29 9 prologue_end
	movq	%rdi, -48(%rbp)
	movq	%rsi, -40(%rbp)
Ltmp63:
	.loc	11 327 18
	movq	%rdi, -112(%rbp)
	movq	%rsi, -104(%rbp)
Ltmp64:
	.loc	15 29 9
	leaq	-112(%rbp), %rax
	movq	%rax, -32(%rbp)
	.loc	15 29 28 is_stmt 0
	movq	%rdx, -24(%rbp)
	movq	%rcx, -16(%rbp)
Ltmp65:
	.loc	11 327 18 is_stmt 1
	movq	%rdx, -96(%rbp)
	movq	%rcx, -88(%rbp)
Ltmp66:
	.loc	15 29 28
	leaq	-96(%rbp), %rax
	movq	%rax, -8(%rbp)
Ltmp67:
	.file	16 "/rustc/2c8cc343237b8f7d5a3c3703e3a87f2eb2c54a74/library/core/src" "cmp.rs"
	.loc	16 1531 27
	movq	-112(%rbp), %rdi
	movq	-104(%rbp), %rsi
	.loc	16 1531 34 is_stmt 0
	movq	-96(%rbp), %rdx
	movq	-88(%rbp), %rcx
	.loc	16 1531 13
	callq	__ZN4core5slice3cmp81_$LT$impl$u20$core..cmp..PartialEq$LT$$u5b$B$u5d$$GT$$u20$for$u20$$u5b$A$u5d$$GT$2eq17h6e38fb93256d8132E
Ltmp68:
	.loc	15 30 6 is_stmt 1
	andb	$1, %al
	movzbl	%al, %eax
	addq	$112, %rsp
	popq	%rbp
	retq
Ltmp69:
Lfunc_end17:
	.cfi_endproc

	.p2align	4, 0x90
__ZN4core3str6traits66_$LT$impl$u20$core..ops..index..Index$LT$I$GT$$u20$for$u20$str$GT$5index17hd3b54bc78f651fe7E:
Lfunc_begin18:
	.loc	15 64 0
	.cfi_startproc
	pushq	%rbp
	.cfi_def_cfa_offset 16
	.cfi_offset %rbp, -16
	movq	%rsp, %rbp
	.cfi_def_cfa_register %rbp
	subq	$32, %rsp
	movq	%rdi, -24(%rbp)
	movq	%rsi, -16(%rbp)
Ltmp70:
	.loc	15 65 9 prologue_end
	callq	__ZN4core3str6traits99_$LT$impl$u20$core..slice..index..SliceIndex$LT$str$GT$$u20$for$u20$core..ops..range..RangeFull$GT$5index17h2501f2d85f7fae2dE
	.loc	15 66 6
	addq	$32, %rsp
	popq	%rbp
	retq
Ltmp71:
Lfunc_end18:
	.cfi_endproc

	.p2align	4, 0x90
__ZN4core3str6traits99_$LT$impl$u20$core..slice..index..SliceIndex$LT$str$GT$$u20$for$u20$core..ops..range..RangeFull$GT$5index17h2501f2d85f7fae2dE:
Lfunc_begin19:
	.loc	15 121 0
	.cfi_startproc
	pushq	%rbp
	.cfi_def_cfa_offset 16
	.cfi_offset %rbp, -16
	movq	%rsp, %rbp
	.cfi_def_cfa_register %rbp
	subq	$24, %rsp
	movq	%rdx, %rcx
	movq	%rsi, %rdx
	movq	%rdi, %rax
	movq	%rax, -16(%rbp)
	movq	%rdx, -8(%rbp)
Ltmp72:
	.loc	15 123 6 prologue_end
	addq	$24, %rsp
	popq	%rbp
	retq
Ltmp73:
Lfunc_end19:
	.cfi_endproc

	.p2align	4, 0x90
__ZN4core4hint21unreachable_unchecked17h75ee1b15ad9366d2E:
Lfunc_begin20:
	.loc	4 100 0
	.cfi_startproc
	pushq	%rbp
	.cfi_def_cfa_offset 16
	.cfi_offset %rbp, -16
	movq	%rsp, %rbp
	.cfi_def_cfa_register %rbp
Ltmp74:
	.loc	4 104 9 prologue_end
	ud2
Ltmp75:
Lfunc_end20:
	.cfi_endproc

	.p2align	4, 0x90
__ZN4core5alloc6layout6Layout5array5inner17h7283a25b9a8cad16E:
Lfunc_begin21:
	.file	17 "/rustc/2c8cc343237b8f7d5a3c3703e3a87f2eb2c54a74/library/core/src/alloc" "layout.rs"
	.loc	17 441 0
	.cfi_startproc
	pushq	%rbp
	.cfi_def_cfa_offset 16
	.cfi_offset %rbp, -16
	movq	%rsp, %rbp
	.cfi_def_cfa_register %rbp
	subq	$176, %rsp
	movq	%rdi, -168(%rbp)
	movq	%rsi, -160(%rbp)
	movq	%rdx, -152(%rbp)
	movq	%rdi, -88(%rbp)
	movq	%rsi, -80(%rbp)
	movq	%rdx, -72(%rbp)
Ltmp76:
	.loc	17 452 16 prologue_end
	cmpq	$0, %rdi
	jne	LBB21_2
	movb	$0, -121(%rbp)
	jmp	LBB21_5
LBB21_2:
	.loc	17 0 16 is_stmt 0
	movq	-168(%rbp), %rax
	movq	-160(%rbp), %rcx
	.loc	17 452 68
	movq	%rcx, -64(%rbp)
Ltmp77:
	.loc	17 93 32 is_stmt 1
	movq	%rcx, -56(%rbp)
Ltmp78:
	.file	18 "/rustc/2c8cc343237b8f7d5a3c3703e3a87f2eb2c54a74/library/core/src/ptr" "alignment.rs"
	.loc	18 97 9
	movq	%rcx, -104(%rbp)
	movq	-104(%rbp), %rdx
Ltmp79:
	.loc	17 93 31
	subq	$1, %rdx
	.loc	17 93 9 is_stmt 0
	movabsq	$9223372036854775807, %rcx
	subq	%rdx, %rcx
	movq	%rcx, -176(%rbp)
Ltmp80:
	.loc	17 452 41 is_stmt 1
	cmpq	$0, %rax
	sete	%al
	testb	$1, %al
	jne	LBB21_4
	.loc	17 0 41 is_stmt 0
	movq	-168(%rbp), %rcx
	movq	-176(%rbp), %rax
	.loc	17 452 41
	xorl	%edx, %edx
	divq	%rcx
	movq	%rax, %rcx
	movq	-152(%rbp), %rax
	.loc	17 452 37
	cmpq	%rcx, %rax
	seta	%al
	.loc	17 452 16
	andb	$1, %al
	movb	%al, -121(%rbp)
	jmp	LBB21_5
LBB21_4:
	.loc	17 452 41
	leaq	_str.0(%rip), %rdi
	leaq	l___unnamed_5(%rip), %rdx
	movl	$25, %esi
	callq	__ZN4core9panicking5panic17hc1bc45270cf64b03E
LBB21_5:
	.loc	17 452 16
	testb	$1, -121(%rbp)
	jne	LBB21_7
	.loc	17 0 16
	movq	-160(%rbp), %rax
	movq	-152(%rbp), %rdx
	movq	-168(%rbp), %rcx
	.loc	17 456 30 is_stmt 1
	imulq	%rdx, %rcx
	movq	%rcx, -48(%rbp)
Ltmp81:
	.loc	17 461 59
	movq	%rcx, -40(%rbp)
	.loc	17 461 71 is_stmt 0
	movq	%rax, -32(%rbp)
Ltmp82:
	.loc	18 97 9 is_stmt 1
	movq	%rax, -96(%rbp)
	movq	-96(%rbp), %rax
	movq	%rax, -24(%rbp)
Ltmp83:
	.loc	17 120 65
	movq	%rax, -16(%rbp)
Ltmp84:
	.loc	18 89 18
	movq	%rax, -8(%rbp)
	movq	-8(%rbp), %rax
Ltmp85:
	.loc	17 120 18
	movq	%rcx, -120(%rbp)
	movq	%rax, -112(%rbp)
Ltmp86:
	.loc	17 461 22
	movq	-120(%rbp), %rcx
	movq	-112(%rbp), %rax
	movq	%rcx, -144(%rbp)
	movq	%rax, -136(%rbp)
Ltmp87:
	.loc	17 462 10
	jmp	LBB21_8
LBB21_7:
	.loc	17 453 24
	movq	$0, -136(%rbp)
LBB21_8:
	.loc	17 462 10
	movq	-144(%rbp), %rax
	movq	-136(%rbp), %rdx
	addq	$176, %rsp
	popq	%rbp
	retq
Ltmp88:
Lfunc_end21:
	.cfi_endproc

	.p2align	4, 0x90
__ZN4core5slice3cmp81_$LT$impl$u20$core..cmp..PartialEq$LT$$u5b$B$u5d$$GT$$u20$for$u20$$u5b$A$u5d$$GT$2eq17h6e38fb93256d8132E:
Lfunc_begin22:
	.file	19 "/rustc/2c8cc343237b8f7d5a3c3703e3a87f2eb2c54a74/library/core/src/slice" "cmp.rs"
	.loc	19 25 0
	.cfi_startproc
	pushq	%rbp
	.cfi_def_cfa_offset 16
	.cfi_offset %rbp, -16
	movq	%rsp, %rbp
	.cfi_def_cfa_register %rbp
	subq	$32, %rsp
	movq	%rdi, -32(%rbp)
	movq	%rsi, -24(%rbp)
	movq	%rdx, -16(%rbp)
	movq	%rcx, -8(%rbp)
Ltmp89:
	.loc	19 26 9 prologue_end
	callq	__ZN73_$LT$$u5b$A$u5d$$u20$as$u20$core..slice..cmp..SlicePartialEq$LT$B$GT$$GT$5equal17hb3d6ac36a6ce4448E
	.loc	19 27 6
	andb	$1, %al
	movzbl	%al, %eax
	addq	$32, %rsp
	popq	%rbp
	retq
Ltmp90:
Lfunc_end22:
	.cfi_endproc

	.p2align	4, 0x90
__ZN4core6result19Result$LT$T$C$E$GT$16unwrap_unchecked17he4dc0cb77a744091E:
Lfunc_begin23:
	.file	20 "/rustc/2c8cc343237b8f7d5a3c3703e3a87f2eb2c54a74/library/core/src" "result.rs"
	.loc	20 1530 0
	.cfi_startproc
	.cfi_personality 155, _rust_eh_personality
	.cfi_lsda 16, Lexception3
	pushq	%rbp
	.cfi_def_cfa_offset 16
	.cfi_offset %rbp, -16
	movq	%rsp, %rbp
	.cfi_def_cfa_register %rbp
	subq	$64, %rsp
	movq	%rdi, -48(%rbp)
	movq	%rsi, -40(%rbp)
Ltmp94:
	.loc	20 1532 15 prologue_end
	xorl	%eax, %eax
	movl	$1, %ecx
	cmpq	$0, -40(%rbp)
	cmoveq	%rcx, %rax
	.loc	20 1532 9 is_stmt 0
	cmpq	$0, %rax
	jne	LBB23_2
	.loc	20 1533 16 is_stmt 1
	movq	-48(%rbp), %rcx
	movq	%rcx, -64(%rbp)
	movq	-40(%rbp), %rax
	movq	%rax, -56(%rbp)
	movq	%rcx, -16(%rbp)
	movq	%rax, -8(%rbp)
	.loc	20 1537 5
	xorl	%eax, %eax
	movl	$1, %ecx
	cmpq	$0, -40(%rbp)
	cmoveq	%rcx, %rax
	cmpq	$0, %rax
	je	LBB23_10
	jmp	LBB23_11
LBB23_2:
Ltmp91:
	.loc	20 1535 32
	callq	__ZN4core4hint21unreachable_unchecked17h75ee1b15ad9366d2E
Ltmp92:
	jmp	LBB23_5
LBB23_3:
	.loc	20 1537 5
	xorl	%eax, %eax
	movl	$1, %ecx
	cmpq	$0, -40(%rbp)
	cmoveq	%rcx, %rax
	cmpq	$0, %rax
	je	LBB23_6
	jmp	LBB23_7
LBB23_4:
Ltmp93:
	.loc	20 0 5 is_stmt 0
	movq	%rax, %rcx
	movl	%edx, %eax
	movq	%rcx, -32(%rbp)
	movl	%eax, -24(%rbp)
	jmp	LBB23_3
LBB23_5:
	ud2
LBB23_6:
	.loc	20 1537 5
	movb	$1, %al
	testb	$1, %al
	jne	LBB23_9
	jmp	LBB23_8
LBB23_7:
	jmp	LBB23_8
LBB23_8:
	.loc	20 1530 5 is_stmt 1
	movq	-32(%rbp), %rdi
	callq	__Unwind_Resume
LBB23_9:
	.loc	20 1537 5
	jmp	LBB23_8
LBB23_10:
	.loc	20 0 5 is_stmt 0
	movq	-56(%rbp), %rdx
	movq	-64(%rbp), %rax
	.loc	20 1537 6
	addq	$64, %rsp
	popq	%rbp
	retq
LBB23_11:
	.loc	20 1537 5
	jmp	LBB23_10
Ltmp95:
Lfunc_end23:
	.cfi_endproc
	.section	__TEXT,__gcc_except_tab
	.p2align	2
GCC_except_table23:
Lexception3:
	.byte	255
	.byte	255
	.byte	1
	.uleb128 Lcst_end3-Lcst_begin3
Lcst_begin3:
	.uleb128 Ltmp91-Lfunc_begin23
	.uleb128 Ltmp92-Ltmp91
	.uleb128 Ltmp93-Lfunc_begin23
	.byte	0
	.uleb128 Ltmp92-Lfunc_begin23
	.uleb128 Lfunc_end23-Ltmp92
	.byte	0
	.byte	0
Lcst_end3:
	.p2align	2

	.section	__TEXT,__text,regular,pure_instructions
	.p2align	4, 0x90
__ZN4core6result19Result$LT$T$C$E$GT$2ok17h9da66602d4d16e03E:
Lfunc_begin24:
	.loc	20 642 0 is_stmt 1
	.cfi_startproc
	pushq	%rbp
	.cfi_def_cfa_offset 16
	.cfi_offset %rbp, -16
	movq	%rsp, %rbp
	.cfi_def_cfa_register %rbp
	subq	$96, %rsp
	movq	%rsi, -96(%rbp)
Ltmp96:
	movq	%rdi, -88(%rbp)
	movq	%rdi, -80(%rbp)
Ltmp97:
	.loc	20 646 9 prologue_end
	cmpq	$0, (%rsi)
Ltmp98:
	jne	LBB24_2
Ltmp99:
	.loc	20 0 9 is_stmt 0
	movq	-88(%rbp), %rax
	movq	-96(%rbp), %rcx
	.loc	20 647 16 is_stmt 1
	movq	8(%rcx), %rdx
	movq	%rdx, -72(%rbp)
	movq	16(%rcx), %rdx
	movq	%rdx, -64(%rbp)
	movq	24(%rcx), %rcx
	movq	%rcx, -56(%rbp)
Ltmp100:
	.loc	20 647 27 is_stmt 0
	movq	-72(%rbp), %rcx
	movq	%rcx, -48(%rbp)
	movq	-64(%rbp), %rcx
	movq	%rcx, -40(%rbp)
	movq	-56(%rbp), %rcx
	movq	%rcx, -32(%rbp)
	.loc	20 647 22
	movq	-48(%rbp), %rcx
	movq	%rcx, (%rax)
	movq	-40(%rbp), %rcx
	movq	%rcx, 8(%rax)
	movq	-32(%rbp), %rcx
	movq	%rcx, 16(%rax)
Ltmp101:
	.loc	20 647 28
	jmp	LBB24_3
Ltmp102:
LBB24_2:
	.loc	20 0 28
	movq	-88(%rbp), %rax
	movq	-96(%rbp), %rcx
	.loc	20 650 17 is_stmt 1
	movq	8(%rcx), %rdx
	movq	%rdx, -24(%rbp)
	movq	16(%rcx), %rdx
	movq	%rdx, -16(%rbp)
	movq	24(%rcx), %rcx
	movq	%rcx, -8(%rbp)
Ltmp103:
	.loc	20 650 23 is_stmt 0
	movq	$0, 8(%rax)
Ltmp104:
	.loc	20 650 26
	leaq	-24(%rbp), %rdi
	callq	__ZN4core3ptr39drop_in_place$LT$std..env..VarError$GT$17h7adcf05a2afa1fd3E
Ltmp105:
LBB24_3:
	.loc	20 0 26
	movq	-80(%rbp), %rax
	.loc	20 652 6 is_stmt 1
	addq	$96, %rsp
	popq	%rbp
	retq
Ltmp106:
Lfunc_end24:
	.cfi_endproc

	.p2align	4, 0x90
__ZN50_$LT$T$u20$as$u20$core..convert..Into$LT$U$GT$$GT$4into17h18da7abd22a869eeE:
Lfunc_begin25:
	.file	21 "/rustc/2c8cc343237b8f7d5a3c3703e3a87f2eb2c54a74/library/core/src/convert" "mod.rs"
	.loc	21 725 0
	.cfi_startproc
	pushq	%rbp
	.cfi_def_cfa_offset 16
	.cfi_offset %rbp, -16
	movq	%rsp, %rbp
	.cfi_def_cfa_register %rbp
	subq	$16, %rsp
	movq	%rdi, -8(%rbp)
Ltmp107:
	.loc	21 726 9 prologue_end
	callq	__ZN119_$LT$core..ptr..non_null..NonNull$LT$T$GT$$u20$as$u20$core..convert..From$LT$core..ptr..unique..Unique$LT$T$GT$$GT$$GT$4from17h5b7ee4321c96ca69E
	.loc	21 727 6
	addq	$16, %rsp
	popq	%rbp
	retq
Ltmp108:
Lfunc_end25:
	.cfi_endproc

	.p2align	4, 0x90
__ZN54_$LT$$LP$$RP$$u20$as$u20$std..process..Termination$GT$6report17hb6f5c91ed637cbdeE:
Lfunc_begin26:
	.loc	6 2182 0
	.cfi_startproc
	pushq	%rbp
	.cfi_def_cfa_offset 16
	.cfi_offset %rbp, -16
	movq	%rsp, %rbp
	.cfi_def_cfa_register %rbp
	pushq	%rax
Ltmp109:
	.loc	6 2184 6 prologue_end
	xorl	%eax, %eax
	addq	$8, %rsp
	popq	%rbp
	retq
Ltmp110:
Lfunc_end26:
	.cfi_endproc

	.p2align	4, 0x90
__ZN55_$LT$$RF$T$u20$as$u20$core..convert..AsRef$LT$U$GT$$GT$6as_ref17h6ceb756b63cc3fbcE:
Lfunc_begin27:
	.loc	21 667 0
	.cfi_startproc
	pushq	%rbp
	.cfi_def_cfa_offset 16
	.cfi_offset %rbp, -16
	movq	%rsp, %rbp
	.cfi_def_cfa_register %rbp
	subq	$16, %rsp
	movq	%rdi, %rax
	movq	%rax, -8(%rbp)
Ltmp111:
	.loc	21 668 33 prologue_end
	movq	(%rax), %rdi
	movq	8(%rax), %rsi
	.loc	21 668 9 is_stmt 0
	callq	__ZN3std3ffi6os_str85_$LT$impl$u20$core..convert..AsRef$LT$std..ffi..os_str..OsStr$GT$$u20$for$u20$str$GT$6as_ref17h4746b14175f25d08E
	.loc	21 669 6 is_stmt 1
	addq	$16, %rsp
	popq	%rbp
	retq
Ltmp112:
Lfunc_end27:
	.cfi_endproc

	.p2align	4, 0x90
__ZN5alloc7raw_vec19RawVec$LT$T$C$A$GT$14current_memory17hda64a23a168f20cfE:
Lfunc_begin28:
	.file	22 "/rustc/2c8cc343237b8f7d5a3c3703e3a87f2eb2c54a74/library/alloc/src" "raw_vec.rs"
	.loc	22 240 0
	.cfi_startproc
	pushq	%rbp
	.cfi_def_cfa_offset 16
	.cfi_offset %rbp, -16
	movq	%rsp, %rbp
	.cfi_def_cfa_register %rbp
	subq	$176, %rsp
	movq	%rsi, -152(%rbp)
	movq	%rdi, -144(%rbp)
	movq	%rdi, -136(%rbp)
	movq	%rsi, -80(%rbp)
Ltmp113:
	.loc	22 241 12 prologue_end
	xorl	%eax, %eax
	testb	$1, %al
	jne	LBB28_2
	.loc	22 0 12 is_stmt 0
	movq	-152(%rbp), %rax
	.loc	22 241 25
	cmpq	$0, (%rax)
	sete	%al
	.loc	22 241 12
	andb	$1, %al
	movb	%al, -121(%rbp)
	jmp	LBB28_3
LBB28_2:
	movb	$1, -121(%rbp)
LBB28_3:
	testb	$1, -121(%rbp)
	jne	LBB28_5
	.loc	22 0 12
	movq	-152(%rbp), %rax
	.loc	22 247 49 is_stmt 1
	movq	(%rax), %rdx
	movq	%rdx, -72(%rbp)
Ltmp114:
	.file	23 "/rustc/2c8cc343237b8f7d5a3c3703e3a87f2eb2c54a74/library/core/src/mem" "mod.rs"
	.loc	23 459 5
	movq	$1, -64(%rbp)
Ltmp115:
	.loc	18 89 18
	movq	$1, -56(%rbp)
	movq	-56(%rbp), %rsi
Ltmp116:
	.loc	17 438 16
	movl	$1, %edi
	callq	__ZN4core5alloc6layout6Layout5array5inner17h7283a25b9a8cad16E
	movq	%rax, %rdi
	movq	%rdx, %rsi
Ltmp117:
	.loc	22 247 30
	leaq	l___unnamed_6(%rip), %rdx
	callq	__ZN4core6result19Result$LT$T$C$E$GT$16unwrap_unchecked17he4dc0cb77a744091E
	movq	%rax, %rcx
	movq	-152(%rbp), %rax
	movq	%rcx, -168(%rbp)
	movq	%rdx, -160(%rbp)
	movq	%rcx, -48(%rbp)
	movq	%rdx, -40(%rbp)
Ltmp118:
	.loc	22 248 23
	movq	8(%rax), %rax
	movq	%rax, -32(%rbp)
Ltmp119:
	.loc	2 137 22
	movq	%rax, -24(%rbp)
Ltmp120:
	.loc	1 450 41
	movq	%rax, -16(%rbp)
	movq	%rax, -8(%rbp)
Ltmp121:
	.loc	1 201 13
	movq	%rax, -88(%rbp)
Ltmp122:
	.loc	2 191 18
	movq	-88(%rbp), %rax
	.loc	2 191 9 is_stmt 0
	movq	%rax, -96(%rbp)
Ltmp123:
	.loc	22 248 23 is_stmt 1
	movq	-96(%rbp), %rdi
	callq	__ZN50_$LT$T$u20$as$u20$core..convert..Into$LT$U$GT$$GT$4into17h18da7abd22a869eeE
	movq	-168(%rbp), %rcx
	movq	-160(%rbp), %rdx
	movq	%rax, %rsi
	movq	-144(%rbp), %rax
	.loc	22 248 22 is_stmt 0
	movq	%rsi, -120(%rbp)
	movq	%rcx, -112(%rbp)
	movq	%rdx, -104(%rbp)
	.loc	22 248 17
	movq	-120(%rbp), %rcx
	movq	%rcx, (%rax)
	movq	-112(%rbp), %rcx
	movq	%rcx, 8(%rax)
	movq	-104(%rbp), %rcx
	movq	%rcx, 16(%rax)
Ltmp124:
	.loc	22 241 9 is_stmt 1
	jmp	LBB28_6
LBB28_5:
	.loc	22 0 9 is_stmt 0
	movq	-144(%rbp), %rax
	.loc	22 242 13 is_stmt 1
	movq	$0, 16(%rax)
LBB28_6:
	.loc	22 0 13 is_stmt 0
	movq	-136(%rbp), %rax
	.loc	22 251 6 is_stmt 1
	addq	$176, %rsp
	popq	%rbp
	retq
Ltmp125:
Lfunc_end28:
	.cfi_endproc

	.p2align	4, 0x90
__ZN63_$LT$alloc..alloc..Global$u20$as$u20$core..alloc..Allocator$GT$10deallocate17hc058be2184531afcE:
Lfunc_begin29:
	.file	24 "/rustc/2c8cc343237b8f7d5a3c3703e3a87f2eb2c54a74/library/alloc/src" "alloc.rs"
	.loc	24 246 0
	.cfi_startproc
	pushq	%rbp
	.cfi_def_cfa_offset 16
	.cfi_offset %rbp, -16
	movq	%rsp, %rbp
	.cfi_def_cfa_register %rbp
	subq	$112, %rsp
	movq	%rsi, -112(%rbp)
	movq	%rdx, -104(%rbp)
	movq	%rcx, -96(%rbp)
	movq	%rdi, -64(%rbp)
	movq	%rsi, -56(%rbp)
Ltmp126:
	.loc	24 247 12 prologue_end
	leaq	-104(%rbp), %rax
	movq	%rax, -48(%rbp)
	cmpq	$0, -104(%rbp)
	jne	LBB29_2
	.loc	24 247 9 is_stmt 0
	jmp	LBB29_3
LBB29_2:
	.loc	24 0 9
	movq	-112(%rbp), %rdi
	.loc	24 250 30 is_stmt 1
	movq	%rdi, -40(%rbp)
Ltmp127:
	.loc	1 326 9
	movq	%rdi, -32(%rbp)
Ltmp128:
	.loc	24 250 44
	movq	-104(%rbp), %rcx
	movq	-96(%rbp), %rax
	movq	%rcx, -88(%rbp)
	movq	%rax, -80(%rbp)
Ltmp129:
	.loc	24 113 34
	leaq	-88(%rbp), %rax
	movq	%rax, -24(%rbp)
Ltmp130:
	.loc	17 129 9
	movq	-88(%rbp), %rsi
Ltmp131:
	.loc	24 113 49
	leaq	-88(%rbp), %rax
	movq	%rax, -16(%rbp)
Ltmp132:
	.loc	17 140 9
	movq	-80(%rbp), %rax
	movq	%rax, -8(%rbp)
Ltmp133:
	.loc	18 97 9
	movq	%rax, -72(%rbp)
	movq	-72(%rbp), %rdx
Ltmp134:
	.loc	24 113 14
	callq	___rust_dealloc
Ltmp135:
LBB29_3:
	.loc	24 252 6
	addq	$112, %rsp
	popq	%rbp
	retq
Ltmp136:
Lfunc_end29:
	.cfi_endproc

	.p2align	4, 0x90
__ZN65_$LT$alloc..string..String$u20$as$u20$core..ops..deref..Deref$GT$5deref17h63a943ba335bd9fcE:
Lfunc_begin30:
	.file	25 "/rustc/2c8cc343237b8f7d5a3c3703e3a87f2eb2c54a74/library/alloc/src" "string.rs"
	.loc	25 2459 0
	.cfi_startproc
	pushq	%rbp
	.cfi_def_cfa_offset 16
	.cfi_offset %rbp, -16
	movq	%rsp, %rbp
	.cfi_def_cfa_register %rbp
	subq	$48, %rsp
	movq	%rdi, -40(%rbp)
Ltmp137:
	.loc	25 2460 43 prologue_end
	callq	__ZN72_$LT$alloc..vec..Vec$LT$T$C$A$GT$$u20$as$u20$core..ops..deref..Deref$GT$5deref17h02c8ba6fbbc845ddE
	movq	%rax, -32(%rbp)
	movq	%rdx, -24(%rbp)
Ltmp138:
	.file	26 "/rustc/2c8cc343237b8f7d5a3c3703e3a87f2eb2c54a74/library/core/src/str" "converts.rs"
	.loc	26 173 14
	movq	%rax, -16(%rbp)
	movq	%rdx, -8(%rbp)
	movq	-16(%rbp), %rax
	movq	-8(%rbp), %rdx
Ltmp139:
	.loc	25 2461 6
	addq	$48, %rsp
	popq	%rbp
	retq
Ltmp140:
Lfunc_end30:
	.cfi_endproc

	.p2align	4, 0x90
__ZN70_$LT$alloc..vec..Vec$LT$T$C$A$GT$$u20$as$u20$core..ops..drop..Drop$GT$4drop17h83070c48751dd58eE:
Lfunc_begin31:
	.file	27 "/rustc/2c8cc343237b8f7d5a3c3703e3a87f2eb2c54a74/library/alloc/src/vec" "mod.rs"
	.loc	27 3054 0
	.cfi_startproc
	pushq	%rbp
	.cfi_def_cfa_offset 16
	.cfi_offset %rbp, -16
	movq	%rsp, %rbp
	.cfi_def_cfa_register %rbp
	subq	$160, %rsp
	movq	%rdi, -120(%rbp)
Ltmp141:
	.loc	27 3059 62 prologue_end
	movq	%rdi, -112(%rbp)
Ltmp142:
	.loc	27 1280 19
	movq	%rdi, -104(%rbp)
Ltmp143:
	.loc	22 224 9
	movq	8(%rdi), %rcx
	movq	%rcx, -96(%rbp)
Ltmp144:
	.loc	2 104 9
	movq	%rcx, -88(%rbp)
Ltmp145:
	.loc	1 326 9
	movq	%rcx, -80(%rbp)
Ltmp146:
	.loc	27 1282 21
	movq	%rcx, -72(%rbp)
Ltmp147:
	.file	28 "/rustc/2c8cc343237b8f7d5a3c3703e3a87f2eb2c54a74/library/core/src/ptr" "mut_ptr.rs"
	.loc	28 52 36
	movq	%rcx, -160(%rbp)
	.loc	28 52 18 is_stmt 0
	movq	-160(%rbp), %rax
	movq	%rax, -64(%rbp)
Ltmp148:
	.loc	28 38 13 is_stmt 1
	movq	%rax, -56(%rbp)
Ltmp149:
	.loc	28 215 33
	movq	%rax, -48(%rbp)
	.loc	28 215 18 is_stmt 0
	movq	%rax, -40(%rbp)
Ltmp150:
	.loc	27 3059 81 is_stmt 1
	movq	16(%rdi), %rax
	movq	%rax, -32(%rbp)
Ltmp151:
	.loc	14 766 24
	movq	%rcx, -24(%rbp)
Ltmp152:
	.loc	28 60 9
	movq	%rcx, -16(%rbp)
Ltmp153:
	.loc	14 766 37
	movq	%rax, -8(%rbp)
Ltmp154:
	.file	29 "/rustc/2c8cc343237b8f7d5a3c3703e3a87f2eb2c54a74/library/core/src/ptr" "metadata.rs"
	.loc	29 135 36
	movq	%rcx, -136(%rbp)
	movq	%rax, -128(%rbp)
	.loc	29 135 14 is_stmt 0
	movq	-136(%rbp), %rcx
	movq	-128(%rbp), %rax
	movq	%rcx, -152(%rbp)
	movq	%rax, -144(%rbp)
Ltmp155:
	.loc	27 3062 6 is_stmt 1
	addq	$160, %rsp
	popq	%rbp
	retq
Ltmp156:
Lfunc_end31:
	.cfi_endproc

	.p2align	4, 0x90
__ZN72_$LT$alloc..vec..Vec$LT$T$C$A$GT$$u20$as$u20$core..ops..deref..Deref$GT$5deref17h02c8ba6fbbc845ddE:
Lfunc_begin32:
	.loc	27 2636 0
	.cfi_startproc
	pushq	%rbp
	.cfi_def_cfa_offset 16
	.cfi_offset %rbp, -16
	movq	%rsp, %rbp
	.cfi_def_cfa_register %rbp
	subq	$184, %rsp
	movq	%rdi, -144(%rbp)
Ltmp157:
	.loc	27 2637 40 prologue_end
	movq	%rdi, -136(%rbp)
Ltmp158:
	.loc	27 1243 19
	movq	%rdi, -128(%rbp)
Ltmp159:
	.loc	22 224 9
	movq	8(%rdi), %rcx
	movq	%rcx, -120(%rbp)
Ltmp160:
	.loc	2 104 9
	movq	%rcx, -112(%rbp)
Ltmp161:
	.loc	1 326 9
	movq	%rcx, -104(%rbp)
Ltmp162:
	.loc	27 1245 21
	movq	%rcx, -96(%rbp)
Ltmp163:
	.loc	28 52 36
	movq	%rcx, -184(%rbp)
	.loc	28 52 18 is_stmt 0
	movq	-184(%rbp), %rax
	movq	%rax, -88(%rbp)
Ltmp164:
	.loc	28 38 13 is_stmt 1
	movq	%rax, -80(%rbp)
Ltmp165:
	.loc	28 215 33
	movq	%rax, -72(%rbp)
	.loc	28 215 18 is_stmt 0
	movq	%rax, -64(%rbp)
Ltmp166:
	.loc	27 1247 9 is_stmt 1
	movq	%rcx, -56(%rbp)
Ltmp167:
	.loc	27 2637 55
	movq	16(%rdi), %rax
	movq	%rax, -48(%rbp)
Ltmp168:
	.file	30 "/rustc/2c8cc343237b8f7d5a3c3703e3a87f2eb2c54a74/library/core/src/slice" "raw.rs"
	.loc	30 100 37
	movq	%rcx, -40(%rbp)
	.loc	30 100 43 is_stmt 0
	movq	%rax, -32(%rbp)
Ltmp169:
	.loc	14 734 20 is_stmt 1
	movq	%rcx, -24(%rbp)
Ltmp170:
	.file	31 "/rustc/2c8cc343237b8f7d5a3c3703e3a87f2eb2c54a74/library/core/src/ptr" "const_ptr.rs"
	.loc	31 61 9
	movq	%rcx, -16(%rbp)
Ltmp171:
	.loc	14 734 33
	movq	%rax, -8(%rbp)
Ltmp172:
	.loc	29 118 36
	movq	%rcx, -160(%rbp)
	movq	%rax, -152(%rbp)
	.loc	29 118 14 is_stmt 0
	movq	-160(%rbp), %rcx
	movq	-152(%rbp), %rax
	movq	%rcx, -176(%rbp)
	movq	%rax, -168(%rbp)
	movq	-176(%rbp), %rax
	movq	-168(%rbp), %rdx
Ltmp173:
	.loc	27 2638 6 is_stmt 1
	addq	$184, %rsp
	popq	%rbp
	retq
Ltmp174:
Lfunc_end32:
	.cfi_endproc

	.p2align	4, 0x90
__ZN73_$LT$$u5b$A$u5d$$u20$as$u20$core..slice..cmp..SlicePartialEq$LT$B$GT$$GT$5equal17hb3d6ac36a6ce4448E:
Lfunc_begin33:
	.loc	19 82 0
	.cfi_startproc
	pushq	%rbp
	.cfi_def_cfa_offset 16
	.cfi_offset %rbp, -16
	movq	%rsp, %rbp
	.cfi_def_cfa_register %rbp
	subq	$144, %rsp
	movq	%rdi, -136(%rbp)
	movq	%rsi, -128(%rbp)
	movq	%rdx, -120(%rbp)
	movq	%rcx, -112(%rbp)
	movq	%rdi, -96(%rbp)
	movq	%rsi, -88(%rbp)
	movq	%rdx, -80(%rbp)
	movq	%rcx, -72(%rbp)
Ltmp175:
	.loc	19 83 12 prologue_end
	cmpq	%rcx, %rsi
	jne	LBB33_2
	.loc	19 0 12 is_stmt 0
	movq	-120(%rbp), %rsi
	movq	-136(%rbp), %rdi
	movq	-112(%rbp), %rax
	movq	-128(%rbp), %rcx
	.loc	19 90 41 is_stmt 1
	movq	%rdi, -64(%rbp)
	movq	%rcx, -56(%rbp)
Ltmp176:
	.loc	23 338 14
	movq	%rcx, %rdx
	shlq	$0, %rdx
	movq	%rdx, -48(%rbp)
	movq	-48(%rbp), %rdx
	movq	%rdx, -40(%rbp)
Ltmp177:
	.loc	19 91 20
	movq	%rdi, -32(%rbp)
	movq	%rcx, -24(%rbp)
	.loc	19 91 48 is_stmt 0
	movq	%rsi, -16(%rbp)
	movq	%rax, -8(%rbp)
	.loc	19 91 13
	callq	_memcmp
	cmpl	$0, %eax
	sete	%al
	andb	$1, %al
	movb	%al, -97(%rbp)
Ltmp178:
	.loc	19 93 6 is_stmt 1
	jmp	LBB33_3
LBB33_2:
	.loc	19 84 20
	movb	$0, -97(%rbp)
LBB33_3:
	.loc	19 93 6
	movb	-97(%rbp), %al
	andb	$1, %al
	movzbl	%al, %eax
	addq	$144, %rsp
	popq	%rbp
	retq
Ltmp179:
Lfunc_end33:
	.cfi_endproc

	.p2align	4, 0x90
__ZN77_$LT$alloc..raw_vec..RawVec$LT$T$C$A$GT$$u20$as$u20$core..ops..drop..Drop$GT$4drop17h80c1f1fc3f75a037E:
Lfunc_begin34:
	.loc	22 477 0
	.cfi_startproc
	pushq	%rbp
	.cfi_def_cfa_offset 16
	.cfi_offset %rbp, -16
	movq	%rsp, %rbp
	.cfi_def_cfa_register %rbp
	subq	$64, %rsp
	movq	%rdi, %rsi
	movq	%rsi, -64(%rbp)
	movq	%rsi, -32(%rbp)
Ltmp180:
	.loc	22 478 38 prologue_end
	leaq	-56(%rbp), %rdi
	callq	__ZN5alloc7raw_vec19RawVec$LT$T$C$A$GT$14current_memory17hda64a23a168f20cfE
	.loc	22 478 16 is_stmt 0
	movl	$1, %eax
	xorl	%ecx, %ecx
	cmpq	$0, -40(%rbp)
	cmoveq	%rcx, %rax
	cmpq	$1, %rax
	jne	LBB34_2
	.loc	22 0 16
	movq	-64(%rbp), %rdi
	.loc	22 478 22
	movq	-56(%rbp), %rsi
	movq	%rsi, -24(%rbp)
	.loc	22 478 27
	movq	-48(%rbp), %rdx
	movq	-40(%rbp), %rcx
	movq	%rdx, -16(%rbp)
	movq	%rcx, -8(%rbp)
	.loc	22 479 22 is_stmt 1
	callq	__ZN63_$LT$alloc..alloc..Global$u20$as$u20$core..alloc..Allocator$GT$10deallocate17hc058be2184531afcE
Ltmp181:
LBB34_2:
	.loc	22 481 6
	addq	$64, %rsp
	popq	%rbp
	retq
Ltmp182:
Lfunc_end34:
	.cfi_endproc

	.p2align	4, 0x90
__ZN18build_script_build4main17h9ac91a0828adb4a0E:
Lfunc_begin35:
	.file	32 "/Users/natalie/.cargo/registry/src/github.com-1ecc6299db9ec823/log-0.4.17" "build.rs"
	.loc	32 7 0
	.cfi_startproc
	.cfi_personality 155, _rust_eh_personality
	.cfi_lsda 16, Lexception4
	pushq	%rbp
	.cfi_def_cfa_offset 16
	.cfi_offset %rbp, -16
	movq	%rsp, %rbp
	.cfi_def_cfa_register %rbp
	subq	$288, %rsp
Ltmp207:
	.loc	32 8 24 prologue_end
	leaq	-208(%rbp), %rdi
	callq	__ZN18build_script_build12rustc_target17h6aa5a0e848492a30E
	movq	-200(%rbp), %rdx
	movl	$1, %eax
	xorl	%ecx, %ecx
	cmpq	$0, %rdx
	cmoveq	%rcx, %rax
	.loc	32 8 18 is_stmt 0
	cmpq	$0, %rax
	jne	LBB35_2
LBB35_1:
	.loc	32 22 2 is_stmt 1
	addq	$288, %rsp
	popq	%rbp
	retq
LBB35_2:
	.loc	32 9 14
	movq	-192(%rbp), %rax
	movq	%rax, -168(%rbp)
	movq	-208(%rbp), %rax
	movq	-200(%rbp), %rcx
	movq	%rcx, -176(%rbp)
	movq	%rax, -184(%rbp)
Ltmp208:
	.loc	32 9 25 is_stmt 0
	movq	-168(%rbp), %rax
	movq	%rax, -216(%rbp)
	movq	-184(%rbp), %rax
	movq	-176(%rbp), %rcx
	movq	%rcx, -224(%rbp)
	movq	%rax, -232(%rbp)
Ltmp183:
	leaq	-232(%rbp), %rdi
Ltmp209:
	.loc	32 13 30 is_stmt 1
	callq	__ZN65_$LT$alloc..string..String$u20$as$u20$core..ops..deref..Deref$GT$5deref17h63a943ba335bd9fcE
Ltmp184:
	movq	%rdx, -248(%rbp)
	movq	%rax, -240(%rbp)
	jmp	LBB35_5
Ltmp210:
LBB35_3:
Ltmp204:
	.loc	32 0 30 is_stmt 0
	leaq	-232(%rbp), %rdi
	.loc	32 22 1 is_stmt 1
	callq	__ZN4core3ptr42drop_in_place$LT$alloc..string..String$GT$17hc724540d9fbbbe05E
Ltmp205:
	jmp	LBB35_20
LBB35_4:
Ltmp203:
	.loc	32 0 1 is_stmt 0
	movq	%rax, %rcx
	movl	%edx, %eax
	movq	%rcx, -16(%rbp)
	movl	%eax, -8(%rbp)
	jmp	LBB35_3
LBB35_5:
Ltmp185:
	movq	-248(%rbp), %rsi
	movq	-240(%rbp), %rdi
Ltmp211:
	.loc	32 13 8 is_stmt 1
	callq	__ZN18build_script_build21target_has_atomic_cas17hbf63a69f365c5646E
Ltmp186:
	movb	%al, -249(%rbp)
	jmp	LBB35_6
LBB35_6:
	.loc	32 0 8 is_stmt 0
	movb	-249(%rbp), %al
	.loc	32 13 8
	testb	$1, %al
	jne	LBB35_8
	jmp	LBB35_7
LBB35_7:
Ltmp191:
	.loc	32 0 8
	leaq	-232(%rbp), %rdi
	.loc	32 17 27 is_stmt 1
	callq	__ZN65_$LT$alloc..string..String$u20$as$u20$core..ops..deref..Deref$GT$5deref17h63a943ba335bd9fcE
Ltmp192:
	movq	%rdx, -272(%rbp)
	movq	%rax, -264(%rbp)
	jmp	LBB35_11
LBB35_8:
Ltmp187:
	.loc	32 14 9
	leaq	l___unnamed_7(%rip), %rsi
	leaq	l___unnamed_3(%rip), %rcx
	xorl	%eax, %eax
	movl	%eax, %r8d
	leaq	-160(%rbp), %rdi
	movl	$1, %edx
	callq	__ZN4core3fmt9Arguments6new_v117h0f72b99c87e6fabbE
Ltmp188:
	jmp	LBB35_9
LBB35_9:
Ltmp189:
	.loc	32 0 9 is_stmt 0
	leaq	-160(%rbp), %rdi
	.loc	32 14 9
	callq	__ZN3std2io5stdio6_print17ha0d536e53b83a5ccE
Ltmp190:
	jmp	LBB35_10
LBB35_10:
	jmp	LBB35_7
LBB35_11:
Ltmp193:
	.loc	32 0 9
	movq	-272(%rbp), %rsi
	movq	-264(%rbp), %rdi
	.loc	32 17 8 is_stmt 1
	callq	__ZN18build_script_build18target_has_atomics17h3351a3337317da9bE
Ltmp194:
	movb	%al, -273(%rbp)
	jmp	LBB35_12
LBB35_12:
	.loc	32 0 8 is_stmt 0
	movb	-273(%rbp), %al
	.loc	32 17 8
	testb	$1, %al
	jne	LBB35_14
	jmp	LBB35_13
LBB35_13:
Ltmp199:
	.loc	32 21 5 is_stmt 1
	leaq	l___unnamed_8(%rip), %rsi
	leaq	l___unnamed_3(%rip), %rcx
	xorl	%eax, %eax
	movl	%eax, %r8d
	leaq	-64(%rbp), %rdi
	movl	$1, %edx
	callq	__ZN4core3fmt9Arguments6new_v117h0f72b99c87e6fabbE
Ltmp200:
	jmp	LBB35_17
LBB35_14:
Ltmp195:
	.loc	32 18 9
	leaq	l___unnamed_9(%rip), %rsi
	leaq	l___unnamed_3(%rip), %rcx
	xorl	%eax, %eax
	movl	%eax, %r8d
	leaq	-112(%rbp), %rdi
	movl	$1, %edx
	callq	__ZN4core3fmt9Arguments6new_v117h0f72b99c87e6fabbE
Ltmp196:
	jmp	LBB35_15
LBB35_15:
Ltmp197:
	.loc	32 0 9 is_stmt 0
	leaq	-112(%rbp), %rdi
	.loc	32 18 9
	callq	__ZN3std2io5stdio6_print17ha0d536e53b83a5ccE
Ltmp198:
	jmp	LBB35_16
LBB35_16:
	jmp	LBB35_13
LBB35_17:
Ltmp201:
	.loc	32 0 9
	leaq	-64(%rbp), %rdi
	.loc	32 21 5 is_stmt 1
	callq	__ZN3std2io5stdio6_print17ha0d536e53b83a5ccE
Ltmp202:
	jmp	LBB35_18
Ltmp212:
LBB35_18:
	.loc	32 22 1
	leaq	-232(%rbp), %rdi
	callq	__ZN4core3ptr42drop_in_place$LT$alloc..string..String$GT$17hc724540d9fbbbe05E
	jmp	LBB35_1
LBB35_19:
Ltmp206:
	.loc	32 7 1
	callq	__ZN4core9panicking19panic_cannot_unwind17h1fbca7e1d7f56ae1E
LBB35_20:
	movq	-16(%rbp), %rdi
	callq	__Unwind_Resume
Ltmp213:
Lfunc_end35:
	.cfi_endproc
	.section	__TEXT,__gcc_except_tab
	.p2align	2
GCC_except_table35:
Lexception4:
	.byte	255
	.byte	255
	.byte	1
	.uleb128 Lcst_end4-Lcst_begin4
Lcst_begin4:
	.uleb128 Lfunc_begin35-Lfunc_begin35
	.uleb128 Ltmp183-Lfunc_begin35
	.byte	0
	.byte	0
	.uleb128 Ltmp183-Lfunc_begin35
	.uleb128 Ltmp184-Ltmp183
	.uleb128 Ltmp203-Lfunc_begin35
	.byte	0
	.uleb128 Ltmp204-Lfunc_begin35
	.uleb128 Ltmp205-Ltmp204
	.uleb128 Ltmp206-Lfunc_begin35
	.byte	0
	.uleb128 Ltmp185-Lfunc_begin35
	.uleb128 Ltmp202-Ltmp185
	.uleb128 Ltmp203-Lfunc_begin35
	.byte	0
	.uleb128 Ltmp202-Lfunc_begin35
	.uleb128 Lfunc_end35-Ltmp202
	.byte	0
	.byte	0
Lcst_end4:
	.p2align	2

	.section	__TEXT,__text,regular,pure_instructions
	.p2align	4, 0x90
__ZN18build_script_build21target_has_atomic_cas17hbf63a69f365c5646E:
Lfunc_begin36:
	.loc	32 24 0
	.cfi_startproc
	pushq	%rbp
	.cfi_def_cfa_offset 16
	.cfi_offset %rbp, -16
	movq	%rsp, %rbp
	.cfi_def_cfa_register %rbp
	subq	$48, %rsp
	movq	%rdi, -16(%rbp)
	movq	%rsi, -8(%rbp)
Ltmp214:
	.loc	32 25 12 prologue_end
	leaq	l___unnamed_10(%rip), %rdx
	callq	__ZN4core3str6traits66_$LT$impl$u20$core..ops..index..Index$LT$I$GT$$u20$for$u20$str$GT$5index17hd3b54bc78f651fe7E
	movq	%rax, %rdi
	movq	%rdi, -40(%rbp)
	movq	%rdx, %rsi
	movq	%rsi, -32(%rbp)
	.loc	32 26 9
	leaq	l___unnamed_11(%rip), %rdx
	movl	$18, %ecx
	callq	__ZN4core3str6traits54_$LT$impl$u20$core..cmp..PartialEq$u20$for$u20$str$GT$2eq17h898d1c328749e497E
	testb	$1, %al
	jne	LBB36_2
	.loc	32 0 9 is_stmt 0
	movq	-32(%rbp), %rsi
	movq	-40(%rbp), %rdi
	.loc	32 27 11 is_stmt 1
	leaq	l___unnamed_12(%rip), %rdx
	movl	$15, %ecx
	callq	__ZN4core3str6traits54_$LT$impl$u20$core..cmp..PartialEq$u20$for$u20$str$GT$2eq17h898d1c328749e497E
	testb	$1, %al
	jne	LBB36_2
	jmp	LBB36_3
LBB36_2:
	.loc	32 29 44
	movb	$0, -17(%rbp)
	jmp	LBB36_6
LBB36_3:
	.loc	32 0 44 is_stmt 0
	movq	-32(%rbp), %rsi
	movq	-40(%rbp), %rdi
	.loc	32 28 11 is_stmt 1
	leaq	l___unnamed_13(%rip), %rdx
	movl	$25, %ecx
	callq	__ZN4core3str6traits54_$LT$impl$u20$core..cmp..PartialEq$u20$for$u20$str$GT$2eq17h898d1c328749e497E
	testb	$1, %al
	jne	LBB36_2
	.loc	32 0 11 is_stmt 0
	movq	-32(%rbp), %rsi
	movq	-40(%rbp), %rdi
	.loc	32 29 11 is_stmt 1
	leaq	l___unnamed_14(%rip), %rdx
	movl	$27, %ecx
	callq	__ZN4core3str6traits54_$LT$impl$u20$core..cmp..PartialEq$u20$for$u20$str$GT$2eq17h898d1c328749e497E
	testb	$1, %al
	jne	LBB36_2
	.loc	32 30 14
	movb	$1, -17(%rbp)
LBB36_6:
	.loc	32 32 2
	movb	-17(%rbp), %al
	andb	$1, %al
	movzbl	%al, %eax
	addq	$48, %rsp
	popq	%rbp
	retq
Ltmp215:
Lfunc_end36:
	.cfi_endproc

	.p2align	4, 0x90
__ZN18build_script_build18target_has_atomics17h3351a3337317da9bE:
Lfunc_begin37:
	.loc	32 34 0
	.cfi_startproc
	pushq	%rbp
	.cfi_def_cfa_offset 16
	.cfi_offset %rbp, -16
	movq	%rsp, %rbp
	.cfi_def_cfa_register %rbp
	subq	$48, %rsp
	movq	%rdi, -16(%rbp)
	movq	%rsi, -8(%rbp)
Ltmp216:
	.loc	32 35 12 prologue_end
	leaq	l___unnamed_15(%rip), %rdx
	callq	__ZN4core3str6traits66_$LT$impl$u20$core..ops..index..Index$LT$I$GT$$u20$for$u20$str$GT$5index17hd3b54bc78f651fe7E
	movq	%rax, %rdi
	movq	%rdi, -40(%rbp)
	movq	%rdx, %rsi
	movq	%rsi, -32(%rbp)
	.loc	32 36 9
	leaq	l___unnamed_16(%rip), %rdx
	movl	$18, %ecx
	callq	__ZN4core3str6traits54_$LT$impl$u20$core..cmp..PartialEq$u20$for$u20$str$GT$2eq17h898d1c328749e497E
	testb	$1, %al
	jne	LBB37_2
	.loc	32 0 9 is_stmt 0
	movq	-32(%rbp), %rsi
	movq	-40(%rbp), %rdi
	.loc	32 37 11 is_stmt 1
	leaq	l___unnamed_12(%rip), %rdx
	movl	$15, %ecx
	callq	__ZN4core3str6traits54_$LT$impl$u20$core..cmp..PartialEq$u20$for$u20$str$GT$2eq17h898d1c328749e497E
	testb	$1, %al
	jne	LBB37_2
	jmp	LBB37_3
LBB37_2:
	.loc	32 39 44
	movb	$0, -17(%rbp)
	jmp	LBB37_6
LBB37_3:
	.loc	32 0 44 is_stmt 0
	movq	-32(%rbp), %rsi
	movq	-40(%rbp), %rdi
	.loc	32 38 11 is_stmt 1
	leaq	l___unnamed_13(%rip), %rdx
	movl	$25, %ecx
	callq	__ZN4core3str6traits54_$LT$impl$u20$core..cmp..PartialEq$u20$for$u20$str$GT$2eq17h898d1c328749e497E
	testb	$1, %al
	jne	LBB37_2
	.loc	32 0 11 is_stmt 0
	movq	-32(%rbp), %rsi
	movq	-40(%rbp), %rdi
	.loc	32 39 11 is_stmt 1
	leaq	l___unnamed_14(%rip), %rdx
	movl	$27, %ecx
	callq	__ZN4core3str6traits54_$LT$impl$u20$core..cmp..PartialEq$u20$for$u20$str$GT$2eq17h898d1c328749e497E
	testb	$1, %al
	jne	LBB37_2
	.loc	32 40 14
	movb	$1, -17(%rbp)
LBB37_6:
	.loc	32 42 2
	movb	-17(%rbp), %al
	andb	$1, %al
	movzbl	%al, %eax
	addq	$48, %rsp
	popq	%rbp
	retq
Ltmp217:
Lfunc_end37:
	.cfi_endproc

	.p2align	4, 0x90
__ZN18build_script_build12rustc_target17h6aa5a0e848492a30E:
Lfunc_begin38:
	.loc	32 44 0
	.cfi_startproc
	pushq	%rbp
	.cfi_def_cfa_offset 16
	.cfi_offset %rbp, -16
	movq	%rsp, %rbp
	.cfi_def_cfa_register %rbp
	subq	$48, %rsp
	movq	%rdi, -48(%rbp)
	movq	%rdi, -40(%rbp)
Ltmp218:
	.loc	32 45 5 prologue_end
	leaq	-32(%rbp), %rdi
	leaq	l___unnamed_17(%rip), %rsi
	movl	$6, %edx
	callq	__ZN3std3env3var17hc5183db765464c28E
	movq	-48(%rbp), %rdi
	leaq	-32(%rbp), %rsi
	callq	__ZN4core6result19Result$LT$T$C$E$GT$2ok17h9da66602d4d16e03E
	movq	-40(%rbp), %rax
	.loc	32 46 2
	addq	$48, %rsp
	popq	%rbp
	retq
Ltmp219:
Lfunc_end38:
	.cfi_endproc

	.globl	_main
	.p2align	4, 0x90
_main:
Lfunc_begin39:
	.cfi_startproc
	pushq	%rbp
	.cfi_def_cfa_offset 16
	.cfi_offset %rbp, -16
	movq	%rsp, %rbp
	.cfi_def_cfa_register %rbp
	movq	%rsi, %rdx
	movslq	%edi, %rsi
	leaq	__ZN18build_script_build4main17h9ac91a0828adb4a0E(%rip), %rdi
	xorl	%ecx, %ecx
	callq	__ZN3std2rt10lang_start17hfff5e67647019e10E
	popq	%rbp
	retq
Lfunc_end39:
	.cfi_endproc

	.section	__DATA,__const
	.p2align	3
l___unnamed_1:
	.quad	__ZN4core3ptr85drop_in_place$LT$std..rt..lang_start$LT$$LP$$RP$$GT$..$u7b$$u7b$closure$u7d$$u7d$$GT$17h482f6a49cf92314fE
	.asciz	"\b\000\000\000\000\000\000\000\b\000\000\000\000\000\000"
	.quad	__ZN4core3ops8function6FnOnce40call_once$u7b$$u7b$vtable.shim$u7d$$u7d$17hf1d6fe7eddfff999E
	.quad	__ZN3std2rt10lang_start28_$u7b$$u7b$closure$u7d$$u7d$17h306bcb804319b87cE
	.quad	__ZN3std2rt10lang_start28_$u7b$$u7b$closure$u7d$$u7d$17h306bcb804319b87cE

	.section	__TEXT,__const
l___unnamed_18:
	.ascii	"invalid args"

	.section	__DATA,__const
	.p2align	3
l___unnamed_2:
	.quad	l___unnamed_18
	.asciz	"\f\000\000\000\000\000\000"

	.section	__TEXT,__const
	.p2align	3
l___unnamed_3:
	.byte	0

l___unnamed_19:
	.ascii	"/rustc/2c8cc343237b8f7d5a3c3703e3a87f2eb2c54a74/library/core/src/fmt/mod.rs"

	.section	__DATA,__const
	.p2align	3
l___unnamed_4:
	.quad	l___unnamed_19
	.asciz	"K\000\000\000\000\000\000\000\221\001\000\000\r\000\000"

	.section	__TEXT,__const
l___unnamed_20:
	.ascii	"/rustc/2c8cc343237b8f7d5a3c3703e3a87f2eb2c54a74/library/core/src/alloc/layout.rs"

	.section	__DATA,__const
	.p2align	3
l___unnamed_5:
	.quad	l___unnamed_20
	.asciz	"P\000\000\000\000\000\000\000\304\001\000\000)\000\000"

	.section	__TEXT,__const
	.p2align	4
_str.0:
	.ascii	"attempt to divide by zero"

l___unnamed_21:
	.ascii	"/rustc/2c8cc343237b8f7d5a3c3703e3a87f2eb2c54a74/library/alloc/src/raw_vec.rs"

	.section	__DATA,__const
	.p2align	3
l___unnamed_6:
	.quad	l___unnamed_21
	.asciz	"L\000\000\000\000\000\000\000\367\000\000\000;\000\000"

	.section	__TEXT,__const
l___unnamed_22:
	.ascii	"cargo:rustc-cfg=atomic_cas\n"

	.section	__DATA,__const
	.p2align	3
l___unnamed_7:
	.quad	l___unnamed_22
	.asciz	"\033\000\000\000\000\000\000"

	.section	__TEXT,__const
l___unnamed_23:
	.ascii	"cargo:rustc-cfg=has_atomics\n"

	.section	__DATA,__const
	.p2align	3
l___unnamed_9:
	.quad	l___unnamed_23
	.asciz	"\034\000\000\000\000\000\000"

	.section	__TEXT,__const
l___unnamed_24:
	.ascii	"cargo:rerun-if-changed=build.rs\n"

	.section	__DATA,__const
	.p2align	3
l___unnamed_8:
	.quad	l___unnamed_24
	.asciz	" \000\000\000\000\000\000"

	.section	__TEXT,__const
l___unnamed_25:
	.ascii	"/Users/natalie/.cargo/registry/src/github.com-1ecc6299db9ec823/log-0.4.17/build.rs"

	.section	__DATA,__const
	.p2align	3
l___unnamed_10:
	.quad	l___unnamed_25
	.asciz	"R\000\000\000\000\000\000\000\031\000\000\000\f\000\000"

	.section	__TEXT,__const
l___unnamed_11:
	.ascii	"thumbv6m-none-eabi"

l___unnamed_12:
	.ascii	"msp430-none-elf"

l___unnamed_13:
	.ascii	"riscv32i-unknown-none-elf"

l___unnamed_14:
	.ascii	"riscv32imc-unknown-none-elf"

	.section	__DATA,__const
	.p2align	3
l___unnamed_15:
	.quad	l___unnamed_25
	.asciz	"R\000\000\000\000\000\000\000#\000\000\000\f\000\000"

	.section	__TEXT,__const
l___unnamed_16:
	.ascii	"thumbv4t-none-eabi"

l___unnamed_17:
	.ascii	"TARGET"

	.section	__DATA,__const
Lsec_end0:
	.section	__TEXT,__text,regular,pure_instructions
Lsec_end1: