	.section	__TEXT,__text,regular,pure_instructions
	.macosx_version_min 10, 7
	.p2align	4, 0x90
__ZN3std10sys_common9backtrace28__rust_begin_short_backtrace17h8306f4e52224c36eE:
Lfunc_begin0:
	.file	1 "/rustc/2c8cc343237b8f7d5a3c3703e3a87f2eb2c54a74/library/std/src/sys_common" "backtrace.rs"
	.loc	1 117 0
	.cfi_startproc
	pushq	%rbp
	.cfi_def_cfa_offset 16
	.cfi_offset %rbp, -16
	movq	%rsp, %rbp
	.cfi_def_cfa_register %rbp
	subq	$48, %rsp
	movq	%rdi, -32(%rbp)
Ltmp0:
	.loc	1 121 18 prologue_end
	callq	__ZN4core3ops8function6FnOnce9call_once17h473450cd039deb00E
Ltmp1:
	.file	2 "/rustc/2c8cc343237b8f7d5a3c3703e3a87f2eb2c54a74/library/core/src" "hint.rs"
	.loc	2 295 5
	## InlineAsm Start
	## InlineAsm End
Ltmp2:
	.loc	1 127 2
	addq	$48, %rsp
	popq	%rbp
	retq
Ltmp3:
Lfunc_end0:
	.cfi_endproc

	.private_extern	__ZN3std2rt10lang_start17h71676e3a5ddb4893E
	.globl	__ZN3std2rt10lang_start17h71676e3a5ddb4893E
	.p2align	4, 0x90
__ZN3std2rt10lang_start17h71676e3a5ddb4893E:
Lfunc_begin1:
	.file	3 "/rustc/2c8cc343237b8f7d5a3c3703e3a87f2eb2c54a74/library/std/src" "rt.rs"
	.loc	3 159 0
	.cfi_startproc
	pushq	%rbp
	.cfi_def_cfa_offset 16
	.cfi_offset %rbp, -16
	movq	%rsp, %rbp
	.cfi_def_cfa_register %rbp
	subq	$64, %rsp
	movl	%ecx, %eax
	movq	%rdx, %rcx
	movq	%rsi, %rdx
	movq	%rdi, -40(%rbp)
	movq	%rdx, -32(%rbp)
	movq	%rcx, -24(%rbp)
	movb	%al, -9(%rbp)
Ltmp4:
	.loc	3 166 10 prologue_end
	movq	%rdi, -48(%rbp)
	.loc	3 165 17
	leaq	-48(%rbp), %rdi
	leaq	l___unnamed_1(%rip), %rsi
	movzbl	%al, %r8d
	callq	__ZN3std2rt19lang_start_internal17h72dc55d09e0a2397E
	movq	%rax, -56(%rbp)
	.loc	3 165 12 is_stmt 0
	movq	-56(%rbp), %rax
	movq	%rax, -8(%rbp)
	.loc	3 172 2 is_stmt 1
	addq	$64, %rsp
	popq	%rbp
	retq
Ltmp5:
Lfunc_end1:
	.cfi_endproc

	.p2align	4, 0x90
__ZN3std2rt10lang_start28_$u7b$$u7b$closure$u7d$$u7d$17he5a57af8bbf4327cE:
Lfunc_begin2:
	.loc	3 166 0
	.cfi_startproc
	pushq	%rbp
	.cfi_def_cfa_offset 16
	.cfi_offset %rbp, -16
	movq	%rsp, %rbp
	.cfi_def_cfa_register %rbp
	subq	$32, %rsp
	movq	%rdi, -16(%rbp)
Ltmp6:
	.loc	3 166 77 prologue_end
	movq	(%rdi), %rdi
	.loc	3 166 18 is_stmt 0
	callq	__ZN3std10sys_common9backtrace28__rust_begin_short_backtrace17h8306f4e52224c36eE
	callq	__ZN54_$LT$$LP$$RP$$u20$as$u20$std..process..Termination$GT$6report17h769d3fa9ab9e2936E
	movb	%al, -17(%rbp)
Ltmp7:
	.file	4 "/rustc/2c8cc343237b8f7d5a3c3703e3a87f2eb2c54a74/library/std/src" "process.rs"
	.loc	4 1820 9 is_stmt 1
	leaq	-17(%rbp), %rax
	movq	%rax, -8(%rbp)
Ltmp8:
	.file	5 "/rustc/2c8cc343237b8f7d5a3c3703e3a87f2eb2c54a74/library/std/src/sys/unix/process" "process_common.rs"
	.loc	5 594 9
	movzbl	-17(%rbp), %eax
Ltmp9:
	.loc	3 166 100
	addq	$32, %rsp
	popq	%rbp
	retq
Ltmp10:
Lfunc_end2:
	.cfi_endproc

	.p2align	4, 0x90
__ZN4core3ops8function6FnOnce40call_once$u7b$$u7b$vtable.shim$u7d$$u7d$17h34083ae4c50caf04E:
Lfunc_begin3:
	.file	6 "/rustc/2c8cc343237b8f7d5a3c3703e3a87f2eb2c54a74/library/core/src/ops" "function.rs"
	.loc	6 250 0
	.cfi_startproc
	pushq	%rbp
	.cfi_def_cfa_offset 16
	.cfi_offset %rbp, -16
	movq	%rsp, %rbp
	.cfi_def_cfa_register %rbp
	subq	$16, %rsp
	movq	%rdi, -8(%rbp)
Ltmp11:
	.loc	6 250 5 prologue_end
	movq	(%rdi), %rdi
	callq	__ZN4core3ops8function6FnOnce9call_once17hd1e26a55f118bd48E
	addq	$16, %rsp
	popq	%rbp
	retq
Ltmp12:
Lfunc_end3:
	.cfi_endproc

	.p2align	4, 0x90
__ZN4core3ops8function6FnOnce9call_once17h473450cd039deb00E:
Lfunc_begin4:
	.loc	6 250 0
	.cfi_startproc
	pushq	%rbp
	.cfi_def_cfa_offset 16
	.cfi_offset %rbp, -16
	movq	%rsp, %rbp
	.cfi_def_cfa_register %rbp
	subq	$16, %rsp
	movq	%rdi, -8(%rbp)
Ltmp13:
	.loc	6 250 5 prologue_end
	callq	*%rdi
	addq	$16, %rsp
	popq	%rbp
	retq
Ltmp14:
Lfunc_end4:
	.cfi_endproc

	.p2align	4, 0x90
__ZN4core3ops8function6FnOnce9call_once17hd1e26a55f118bd48E:
Lfunc_begin5:
	.loc	6 250 0
	.cfi_startproc
	.cfi_personality 155, _rust_eh_personality
	.cfi_lsda 16, Lexception0
	pushq	%rbp
	.cfi_def_cfa_offset 16
	.cfi_offset %rbp, -16
	movq	%rsp, %rbp
	.cfi_def_cfa_register %rbp
	subq	$48, %rsp
	movq	%rdi, -32(%rbp)
Ltmp15:
	leaq	-32(%rbp), %rdi
Ltmp18:
	.loc	6 250 5 prologue_end
	callq	__ZN3std2rt10lang_start28_$u7b$$u7b$closure$u7d$$u7d$17he5a57af8bbf4327cE
Ltmp16:
	movl	%eax, -36(%rbp)
	jmp	LBB5_3
LBB5_1:
	movq	-16(%rbp), %rdi
	callq	__Unwind_Resume
LBB5_2:
Ltmp17:
	.loc	6 0 5 is_stmt 0
	movq	%rax, %rcx
	movl	%edx, %eax
	movq	%rcx, -16(%rbp)
	movl	%eax, -8(%rbp)
	jmp	LBB5_1
LBB5_3:
	movl	-36(%rbp), %eax
	.loc	6 250 5
	addq	$48, %rsp
	popq	%rbp
	retq
Ltmp19:
Lfunc_end5:
	.cfi_endproc
	.section	__TEXT,__gcc_except_tab
	.p2align	2
GCC_except_table5:
Lexception0:
	.byte	255
	.byte	255
	.byte	1
	.uleb128 Lcst_end0-Lcst_begin0
Lcst_begin0:
	.uleb128 Ltmp15-Lfunc_begin5
	.uleb128 Ltmp16-Ltmp15
	.uleb128 Ltmp17-Lfunc_begin5
	.byte	0
	.uleb128 Ltmp16-Lfunc_begin5
	.uleb128 Lfunc_end5-Ltmp16
	.byte	0
	.byte	0
Lcst_end0:
	.p2align	2

	.section	__TEXT,__text,regular,pure_instructions
	.p2align	4, 0x90
__ZN4core3ptr85drop_in_place$LT$std..rt..lang_start$LT$$LP$$RP$$GT$..$u7b$$u7b$closure$u7d$$u7d$$GT$17h80e976749caa7ae3E:
Lfunc_begin6:
	.file	7 "/rustc/2c8cc343237b8f7d5a3c3703e3a87f2eb2c54a74/library/core/src/ptr" "mod.rs"
	.loc	7 490 0 is_stmt 1
	.cfi_startproc
	pushq	%rbp
	.cfi_def_cfa_offset 16
	.cfi_offset %rbp, -16
	movq	%rsp, %rbp
	.cfi_def_cfa_register %rbp
	pushq	%rax
	movq	%rdi, -8(%rbp)
Ltmp20:
	.loc	7 490 1 prologue_end
	addq	$8, %rsp
	popq	%rbp
	retq
Ltmp21:
Lfunc_end6:
	.cfi_endproc

	.p2align	4, 0x90
__ZN4core6option15Option$LT$T$GT$7is_some17hf64e0dbf9b9ec0a2E:
Lfunc_begin7:
	.file	8 "/rustc/2c8cc343237b8f7d5a3c3703e3a87f2eb2c54a74/library/core/src" "option.rs"
	.loc	8 597 0
	.cfi_startproc
	pushq	%rbp
	.cfi_def_cfa_offset 16
	.cfi_offset %rbp, -16
	movq	%rsp, %rbp
	.cfi_def_cfa_register %rbp
	subq	$16, %rsp
	movq	%rdi, -8(%rbp)
Ltmp22:
	.loc	8 598 18 prologue_end
	movq	8(%rdi), %rdx
	movl	$1, %eax
	xorl	%ecx, %ecx
	cmpq	$0, %rdx
	cmoveq	%rcx, %rax
	.loc	8 598 9 is_stmt 0
	cmpq	$1, %rax
	jne	LBB7_2
	movb	$1, -9(%rbp)
	jmp	LBB7_3
LBB7_2:
	movb	$0, -9(%rbp)
LBB7_3:
	.loc	8 599 6 is_stmt 1
	movb	-9(%rbp), %al
	andb	$1, %al
	movzbl	%al, %eax
	addq	$16, %rsp
	popq	%rbp
	retq
Ltmp23:
Lfunc_end7:
	.cfi_endproc

	.p2align	4, 0x90
__ZN54_$LT$$LP$$RP$$u20$as$u20$std..process..Termination$GT$6report17h769d3fa9ab9e2936E:
Lfunc_begin8:
	.loc	4 2182 0
	.cfi_startproc
	pushq	%rbp
	.cfi_def_cfa_offset 16
	.cfi_offset %rbp, -16
	movq	%rsp, %rbp
	.cfi_def_cfa_register %rbp
	pushq	%rax
Ltmp24:
	.loc	4 2184 6 prologue_end
	xorl	%eax, %eax
	addq	$8, %rsp
	popq	%rbp
	retq
Ltmp25:
Lfunc_end8:
	.cfi_endproc

	.p2align	4, 0x90
__ZN18build_script_build4main17h9f94e7915f4a6cb6E:
Lfunc_begin9:
	.file	9 "/Users/natalie/.cargo/registry/src/github.com-1ecc6299db9ec823/num-traits-0.2.15" "build.rs"
	.loc	9 5 0
	.cfi_startproc
	.cfi_personality 155, _rust_eh_personality
	.cfi_lsda 16, Lexception1
	pushq	%rbp
	.cfi_def_cfa_offset 16
	.cfi_offset %rbp, -16
	movq	%rsp, %rbp
	.cfi_def_cfa_register %rbp
	subq	$208, %rsp
	leaq	-200(%rbp), %rdi
Ltmp66:
	.loc	9 6 14 prologue_end
	callq	__ZN7autocfg3new17h826195da96c0618eE
Ltmp26:
Ltmp67:
	.loc	9 10 8
	leaq	l___unnamed_2(%rip), %rsi
	leaq	-64(%rbp), %rdi
	movl	$18, %edx
	callq	__ZN3std3env6var_os17h31cd1fd4037c58d8E
Ltmp27:
	jmp	LBB9_3
Ltmp68:
LBB9_1:
Ltmp63:
	.loc	9 0 8 is_stmt 0
	leaq	-200(%rbp), %rdi
	.loc	9 29 1 is_stmt 1
	callq	__ZN4core3ptr37drop_in_place$LT$autocfg..AutoCfg$GT$17h4840d40d68673402E
Ltmp64:
	jmp	LBB9_30
LBB9_2:
Ltmp62:
	.loc	9 0 1 is_stmt 0
	movq	%rax, %rcx
	movl	%edx, %eax
	movq	%rcx, -16(%rbp)
	movl	%eax, -8(%rbp)
	jmp	LBB9_1
LBB9_3:
Ltmp28:
	leaq	-64(%rbp), %rdi
Ltmp69:
	.loc	9 10 8 is_stmt 1
	callq	__ZN4core6option15Option$LT$T$GT$7is_some17hf64e0dbf9b9ec0a2E
Ltmp29:
	movb	%al, -201(%rbp)
	jmp	LBB9_6
LBB9_4:
Ltmp31:
	.loc	9 0 8 is_stmt 0
	leaq	-64(%rbp), %rdi
	.loc	9 10 50
	callq	__ZN4core3ptr75drop_in_place$LT$core..option..Option$LT$std..ffi..os_str..OsString$GT$$GT$17hcf24ffb176e8ecaeE
Ltmp32:
	jmp	LBB9_1
LBB9_5:
Ltmp30:
	.loc	9 0 50
	movq	%rax, %rcx
	movl	%edx, %eax
	movq	%rcx, -16(%rbp)
	movl	%eax, -8(%rbp)
	jmp	LBB9_4
LBB9_6:
Ltmp33:
	leaq	-64(%rbp), %rdi
	.loc	9 10 50
	callq	__ZN4core3ptr75drop_in_place$LT$core..option..Option$LT$std..ffi..os_str..OsString$GT$$GT$17hcf24ffb176e8ecaeE
Ltmp34:
	jmp	LBB9_8
Ltmp70:
LBB9_7:
Ltmp65:
	.loc	9 5 1 is_stmt 1
	callq	__ZN4core9panicking19panic_cannot_unwind17h1fbca7e1d7f56ae1E
LBB9_8:
	.loc	9 0 1 is_stmt 0
	movb	-201(%rbp), %al
Ltmp71:
	.loc	9 10 8 is_stmt 1
	testb	$1, %al
	jne	LBB9_10
	jmp	LBB9_9
LBB9_9:
Ltmp35:
	.loc	9 10 55 is_stmt 0
	leaq	L___unnamed_3(%rip), %rsi
	leaq	-200(%rbp), %rdi
	movl	$4, %edx
	callq	__ZN7autocfg7AutoCfg10probe_type17hdfa930afa0542df0E
Ltmp36:
	movb	%al, -202(%rbp)
	jmp	LBB9_12
LBB9_10:
	.loc	9 10 8
	movb	$1, -65(%rbp)
LBB9_11:
	testb	$1, -65(%rbp)
	jne	LBB9_14
	jmp	LBB9_13
LBB9_12:
	.loc	9 0 8
	movb	-202(%rbp), %al
	.loc	9 10 8
	andb	$1, %al
	movb	%al, -65(%rbp)
	jmp	LBB9_11
LBB9_13:
Ltmp39:
	.loc	9 14 5 is_stmt 1
	leaq	l___unnamed_4(%rip), %rsi
	leaq	l___unnamed_5(%rip), %rcx
	leaq	-200(%rbp), %rdi
	movl	$41, %edx
	movl	$20, %r8d
	callq	__ZN7autocfg7AutoCfg19emit_expression_cfg17hb8f95462ce389a92E
Ltmp40:
	jmp	LBB9_16
LBB9_14:
Ltmp37:
	.loc	9 11 9
	leaq	L___unnamed_6(%rip), %rdi
	movl	$8, %esi
	callq	__ZN7autocfg4emit17h3f17b9b44dfb7d78E
Ltmp38:
	jmp	LBB9_15
LBB9_15:
	jmp	LBB9_13
LBB9_16:
Ltmp41:
	.loc	9 19 5
	leaq	l___unnamed_7(%rip), %rsi
	leaq	L___unnamed_8(%rip), %rcx
	leaq	-200(%rbp), %rdi
	movl	$19, %edx
	movl	$16, %r8d
	callq	__ZN7autocfg7AutoCfg19emit_expression_cfg17hb8f95462ce389a92E
Ltmp42:
	jmp	LBB9_17
LBB9_17:
Ltmp43:
	.loc	9 20 5
	leaq	l___unnamed_9(%rip), %rsi
	leaq	l___unnamed_10(%rip), %rcx
	leaq	-200(%rbp), %rdi
	movl	$20, %edx
	movl	$25, %r8d
	callq	__ZN7autocfg7AutoCfg19emit_expression_cfg17hb8f95462ce389a92E
Ltmp44:
	jmp	LBB9_18
LBB9_18:
Ltmp45:
	.loc	9 21 5
	leaq	l___unnamed_11(%rip), %rsi
	leaq	l___unnamed_12(%rip), %rcx
	leaq	-200(%rbp), %rdi
	movl	$27, %edx
	movl	$20, %r8d
	callq	__ZN7autocfg7AutoCfg19emit_expression_cfg17hb8f95462ce389a92E
Ltmp46:
	jmp	LBB9_19
LBB9_19:
Ltmp47:
	.loc	9 22 5
	leaq	l___unnamed_13(%rip), %rsi
	leaq	l___unnamed_14(%rip), %rcx
	leaq	-200(%rbp), %rdi
	movl	$21, %edx
	movl	$14, %r8d
	callq	__ZN7autocfg7AutoCfg19emit_expression_cfg17hb8f95462ce389a92E
Ltmp48:
	jmp	LBB9_20
LBB9_20:
Ltmp49:
	.loc	9 24 8
	leaq	l___unnamed_15(%rip), %rsi
	leaq	-40(%rbp), %rdi
	movl	$17, %edx
	callq	__ZN3std3env6var_os17h31cd1fd4037c58d8E
Ltmp50:
	jmp	LBB9_21
LBB9_21:
Ltmp51:
	.loc	9 0 8 is_stmt 0
	leaq	-40(%rbp), %rdi
	.loc	9 24 8
	callq	__ZN4core6option15Option$LT$T$GT$7is_some17hf64e0dbf9b9ec0a2E
Ltmp52:
	movb	%al, -203(%rbp)
	jmp	LBB9_24
LBB9_22:
Ltmp54:
	.loc	9 0 8
	leaq	-40(%rbp), %rdi
	.loc	9 24 49
	callq	__ZN4core3ptr75drop_in_place$LT$core..option..Option$LT$std..ffi..os_str..OsString$GT$$GT$17hcf24ffb176e8ecaeE
Ltmp55:
	jmp	LBB9_1
LBB9_23:
Ltmp53:
	.loc	9 0 49
	movq	%rax, %rcx
	movl	%edx, %eax
	movq	%rcx, -16(%rbp)
	movl	%eax, -8(%rbp)
	jmp	LBB9_22
LBB9_24:
Ltmp56:
	leaq	-40(%rbp), %rdi
	.loc	9 24 49
	callq	__ZN4core3ptr75drop_in_place$LT$core..option..Option$LT$std..ffi..os_str..OsString$GT$$GT$17hcf24ffb176e8ecaeE
Ltmp57:
	jmp	LBB9_25
LBB9_25:
	.loc	9 0 49
	movb	-203(%rbp), %al
	.loc	9 24 8
	testb	$1, %al
	jne	LBB9_27
	jmp	LBB9_26
LBB9_26:
Ltmp60:
	.loc	9 28 5 is_stmt 1
	leaq	L___unnamed_16(%rip), %rdi
	movl	$8, %esi
	callq	__ZN7autocfg10rerun_path17h0aab45068290d662E
Ltmp61:
	jmp	LBB9_29
LBB9_27:
Ltmp58:
	.loc	9 25 9
	leaq	l___unnamed_17(%rip), %rsi
	leaq	l___unnamed_18(%rip), %rcx
	leaq	-200(%rbp), %rdi
	movl	$20, %edx
	movl	$12, %r8d
	callq	__ZN7autocfg7AutoCfg19emit_expression_cfg17hb8f95462ce389a92E
Ltmp59:
	jmp	LBB9_28
LBB9_28:
	jmp	LBB9_26
Ltmp72:
LBB9_29:
	.loc	9 29 1
	leaq	-200(%rbp), %rdi
	callq	__ZN4core3ptr37drop_in_place$LT$autocfg..AutoCfg$GT$17h4840d40d68673402E
	.loc	9 29 2 is_stmt 0
	addq	$208, %rsp
	popq	%rbp
	retq
LBB9_30:
	.loc	9 5 1 is_stmt 1
	movq	-16(%rbp), %rdi
	callq	__Unwind_Resume
Ltmp73:
Lfunc_end9:
	.cfi_endproc
	.section	__TEXT,__gcc_except_tab
	.p2align	2
GCC_except_table9:
Lexception1:
	.byte	255
	.byte	255
	.byte	1
	.uleb128 Lcst_end1-Lcst_begin1
Lcst_begin1:
	.uleb128 Lfunc_begin9-Lfunc_begin9
	.uleb128 Ltmp26-Lfunc_begin9
	.byte	0
	.byte	0
	.uleb128 Ltmp26-Lfunc_begin9
	.uleb128 Ltmp27-Ltmp26
	.uleb128 Ltmp62-Lfunc_begin9
	.byte	0
	.uleb128 Ltmp63-Lfunc_begin9
	.uleb128 Ltmp64-Ltmp63
	.uleb128 Ltmp65-Lfunc_begin9
	.byte	0
	.uleb128 Ltmp28-Lfunc_begin9
	.uleb128 Ltmp29-Ltmp28
	.uleb128 Ltmp30-Lfunc_begin9
	.byte	0
	.uleb128 Ltmp31-Lfunc_begin9
	.uleb128 Ltmp32-Ltmp31
	.uleb128 Ltmp65-Lfunc_begin9
	.byte	0
	.uleb128 Ltmp33-Lfunc_begin9
	.uleb128 Ltmp50-Ltmp33
	.uleb128 Ltmp62-Lfunc_begin9
	.byte	0
	.uleb128 Ltmp51-Lfunc_begin9
	.uleb128 Ltmp52-Ltmp51
	.uleb128 Ltmp53-Lfunc_begin9
	.byte	0
	.uleb128 Ltmp54-Lfunc_begin9
	.uleb128 Ltmp55-Ltmp54
	.uleb128 Ltmp65-Lfunc_begin9
	.byte	0
	.uleb128 Ltmp56-Lfunc_begin9
	.uleb128 Ltmp59-Ltmp56
	.uleb128 Ltmp62-Lfunc_begin9
	.byte	0
	.uleb128 Ltmp59-Lfunc_begin9
	.uleb128 Lfunc_end9-Ltmp59
	.byte	0
	.byte	0
Lcst_end1:
	.p2align	2

	.section	__TEXT,__text,regular,pure_instructions
	.globl	_main
	.p2align	4, 0x90
_main:
Lfunc_begin10:
	.cfi_startproc
	pushq	%rbp
	.cfi_def_cfa_offset 16
	.cfi_offset %rbp, -16
	movq	%rsp, %rbp
	.cfi_def_cfa_register %rbp
	movq	%rsi, %rdx
	movslq	%edi, %rsi
	leaq	__ZN18build_script_build4main17h9f94e7915f4a6cb6E(%rip), %rdi
	xorl	%ecx, %ecx
	callq	__ZN3std2rt10lang_start17h71676e3a5ddb4893E
	popq	%rbp
	retq
Lfunc_end10:
	.cfi_endproc

	.section	__DATA,__const
	.p2align	3
l___unnamed_1:
	.quad	__ZN4core3ptr85drop_in_place$LT$std..rt..lang_start$LT$$LP$$RP$$GT$..$u7b$$u7b$closure$u7d$$u7d$$GT$17h80e976749caa7ae3E
	.asciz	"\b\000\000\000\000\000\000\000\b\000\000\000\000\000\000"
	.quad	__ZN4core3ops8function6FnOnce40call_once$u7b$$u7b$vtable.shim$u7d$$u7d$17h34083ae4c50caf04E
	.quad	__ZN3std2rt10lang_start28_$u7b$$u7b$closure$u7d$$u7d$17he5a57af8bbf4327cE
	.quad	__ZN3std2rt10lang_start28_$u7b$$u7b$closure$u7d$$u7d$17he5a57af8bbf4327cE

	.section	__TEXT,__const
l___unnamed_2:
	.ascii	"CARGO_FEATURE_I128"

	.section	__TEXT,__literal4,4byte_literals
L___unnamed_3:
	.ascii	"i128"

	.section	__TEXT,__literal8,8byte_literals
L___unnamed_6:
	.ascii	"has_i128"

	.section	__TEXT,__const
l___unnamed_4:
	.ascii	"unsafe { 1f64.to_int_unchecked::<i32>() }"

l___unnamed_5:
	.ascii	"has_to_int_unchecked"

l___unnamed_7:
	.ascii	"1u32.reverse_bits()"

	.section	__TEXT,__literal16,16byte_literals
L___unnamed_8:
	.ascii	"has_reverse_bits"

	.section	__TEXT,__const
l___unnamed_9:
	.ascii	"1u32.trailing_ones()"

l___unnamed_10:
	.ascii	"has_leading_trailing_ones"

l___unnamed_11:
	.ascii	"{ let mut x = 1; x += &2; }"

l___unnamed_12:
	.ascii	"has_int_assignop_ref"

l___unnamed_13:
	.ascii	"1u32.div_euclid(1u32)"

l___unnamed_14:
	.ascii	"has_div_euclid"

l___unnamed_15:
	.ascii	"CARGO_FEATURE_STD"

l___unnamed_17:
	.ascii	"1f64.copysign(-1f64)"

l___unnamed_18:
	.ascii	"has_copysign"

	.section	__TEXT,__literal8,8byte_literals
L___unnamed_16:
	.ascii	"build.rs"

	.section	__DATA,__const
Lsec_end0:
	.section	__TEXT,__text,regular,pure_instructions
Lsec_end1: