	.section	__TEXT,__text,regular,pure_instructions
	.macosx_version_min 10, 7
	.p2align	4, 0x90
__ZN119_$LT$core..ptr..non_null..NonNull$LT$T$GT$$u20$as$u20$core..convert..From$LT$core..ptr..unique..Unique$LT$T$GT$$GT$$GT$4from17hfa0a5f5a81a9fb9bE:
Lfunc_begin0:
	.file	1 "/rustc/2c8cc343237b8f7d5a3c3703e3a87f2eb2c54a74/library/core/src/ptr" "non_null.rs"
	.loc	1 765 0
	.cfi_startproc
	pushq	%rbp
	.cfi_def_cfa_offset 16
	.cfi_offset %rbp, -16
	movq	%rsp, %rbp
	.cfi_def_cfa_register %rbp
	subq	$40, %rsp
	movq	%rdi, -32(%rbp)
Ltmp0:
	.loc	1 768 41 prologue_end
	movq	%rdi, -24(%rbp)
Ltmp1:
	.file	2 "/rustc/2c8cc343237b8f7d5a3c3703e3a87f2eb2c54a74/library/core/src/ptr" "unique.rs"
	.loc	2 104 9
	movq	%rdi, -16(%rbp)
Ltmp2:
	.loc	1 326 9
	movq	%rdi, -8(%rbp)
Ltmp3:
	.loc	1 201 13
	movq	%rdi, -40(%rbp)
Ltmp4:
	.loc	1 769 6
	movq	-40(%rbp), %rax
	addq	$40, %rsp
	popq	%rbp
	retq
Ltmp5:
Lfunc_end0:
	.cfi_endproc

	.p2align	4, 0x90
__ZN3std10sys_common9backtrace28__rust_begin_short_backtrace17h9d183676a00172c1E:
Lfunc_begin1:
	.file	3 "/rustc/2c8cc343237b8f7d5a3c3703e3a87f2eb2c54a74/library/std/src/sys_common" "backtrace.rs"
	.loc	3 117 0
	.cfi_startproc
	pushq	%rbp
	.cfi_def_cfa_offset 16
	.cfi_offset %rbp, -16
	movq	%rsp, %rbp
	.cfi_def_cfa_register %rbp
	subq	$48, %rsp
	movq	%rdi, -32(%rbp)
Ltmp6:
	.loc	3 121 18 prologue_end
	callq	__ZN4core3ops8function6FnOnce9call_once17h53c80de2eee5ccd0E
Ltmp7:
	.file	4 "/rustc/2c8cc343237b8f7d5a3c3703e3a87f2eb2c54a74/library/core/src" "hint.rs"
	.loc	4 295 5
	## InlineAsm Start
	## InlineAsm End
Ltmp8:
	.loc	3 127 2
	addq	$48, %rsp
	popq	%rbp
	retq
Ltmp9:
Lfunc_end1:
	.cfi_endproc

	.private_extern	__ZN3std2rt10lang_start17hd43cd3c128aad4ceE
	.globl	__ZN3std2rt10lang_start17hd43cd3c128aad4ceE
	.p2align	4, 0x90
__ZN3std2rt10lang_start17hd43cd3c128aad4ceE:
Lfunc_begin2:
	.file	5 "/rustc/2c8cc343237b8f7d5a3c3703e3a87f2eb2c54a74/library/std/src" "rt.rs"
	.loc	5 159 0
	.cfi_startproc
	pushq	%rbp
	.cfi_def_cfa_offset 16
	.cfi_offset %rbp, -16
	movq	%rsp, %rbp
	.cfi_def_cfa_register %rbp
	subq	$64, %rsp
	movl	%ecx, %eax
	movq	%rdx, %rcx
	movq	%rsi, %rdx
	movq	%rdi, -40(%rbp)
	movq	%rdx, -32(%rbp)
	movq	%rcx, -24(%rbp)
	movb	%al, -9(%rbp)
Ltmp10:
	.loc	5 166 10 prologue_end
	movq	%rdi, -48(%rbp)
	.loc	5 165 17
	leaq	-48(%rbp), %rdi
	leaq	l___unnamed_1(%rip), %rsi
	movzbl	%al, %r8d
	callq	__ZN3std2rt19lang_start_internal17h72dc55d09e0a2397E
	movq	%rax, -56(%rbp)
	.loc	5 165 12 is_stmt 0
	movq	-56(%rbp), %rax
	movq	%rax, -8(%rbp)
	.loc	5 172 2 is_stmt 1
	addq	$64, %rsp
	popq	%rbp
	retq
Ltmp11:
Lfunc_end2:
	.cfi_endproc

	.p2align	4, 0x90
__ZN3std2rt10lang_start28_$u7b$$u7b$closure$u7d$$u7d$17h6d07708603db9ab4E:
Lfunc_begin3:
	.loc	5 166 0
	.cfi_startproc
	pushq	%rbp
	.cfi_def_cfa_offset 16
	.cfi_offset %rbp, -16
	movq	%rsp, %rbp
	.cfi_def_cfa_register %rbp
	subq	$32, %rsp
	movq	%rdi, -16(%rbp)
Ltmp12:
	.loc	5 166 77 prologue_end
	movq	(%rdi), %rdi
	.loc	5 166 18 is_stmt 0
	callq	__ZN3std10sys_common9backtrace28__rust_begin_short_backtrace17h9d183676a00172c1E
	callq	__ZN54_$LT$$LP$$RP$$u20$as$u20$std..process..Termination$GT$6report17h9073c10220946ffbE
	movb	%al, -17(%rbp)
Ltmp13:
	.file	6 "/rustc/2c8cc343237b8f7d5a3c3703e3a87f2eb2c54a74/library/std/src" "process.rs"
	.loc	6 1820 9 is_stmt 1
	leaq	-17(%rbp), %rax
	movq	%rax, -8(%rbp)
Ltmp14:
	.file	7 "/rustc/2c8cc343237b8f7d5a3c3703e3a87f2eb2c54a74/library/std/src/sys/unix/process" "process_common.rs"
	.loc	7 594 9
	movzbl	-17(%rbp), %eax
Ltmp15:
	.loc	5 166 100
	addq	$32, %rsp
	popq	%rbp
	retq
Ltmp16:
Lfunc_end3:
	.cfi_endproc

	.p2align	4, 0x90
__ZN3std3env6var_os17h85b6f630d07ac33cE:
Lfunc_begin4:
	.file	8 "/rustc/2c8cc343237b8f7d5a3c3703e3a87f2eb2c54a74/library/std/src" "env.rs"
	.loc	8 268 0
	.cfi_startproc
	.cfi_personality 155, _rust_eh_personality
	.cfi_lsda 16, Lexception0
	pushq	%rbp
	.cfi_def_cfa_offset 16
	.cfi_offset %rbp, -16
	movq	%rsp, %rbp
	.cfi_def_cfa_register %rbp
	subq	$64, %rsp
	movq	%rdi, -64(%rbp)
	movq	%rdi, -56(%rbp)
	movq	%rsi, -32(%rbp)
	movq	%rdx, -24(%rbp)
Ltmp17:
	leaq	-32(%rbp), %rdi
Ltmp22:
	.loc	8 269 13 prologue_end
	callq	__ZN55_$LT$$RF$T$u20$as$u20$core..convert..AsRef$LT$U$GT$$GT$6as_ref17hc7b01d491b57ab44E
Ltmp18:
	movq	%rdx, -48(%rbp)
	movq	%rax, -40(%rbp)
	jmp	LBB4_3
LBB4_1:
	.loc	8 268 1
	movq	-16(%rbp), %rdi
	callq	__Unwind_Resume
LBB4_2:
Ltmp21:
	.loc	8 0 1 is_stmt 0
	movq	%rax, %rcx
	movl	%edx, %eax
	movq	%rcx, -16(%rbp)
	movl	%eax, -8(%rbp)
	jmp	LBB4_1
LBB4_3:
Ltmp19:
	movq	-48(%rbp), %rdx
	movq	-40(%rbp), %rsi
	movq	-64(%rbp), %rdi
	.loc	8 269 5 is_stmt 1
	callq	__ZN3std3env7_var_os17h71e71f6d7accb7a3E
Ltmp20:
	jmp	LBB4_4
LBB4_4:
	.loc	8 0 5 is_stmt 0
	movq	-56(%rbp), %rax
	.loc	8 270 2 is_stmt 1
	addq	$64, %rsp
	popq	%rbp
	retq
Ltmp23:
Lfunc_end4:
	.cfi_endproc
	.section	__TEXT,__gcc_except_tab
	.p2align	2
GCC_except_table4:
Lexception0:
	.byte	255
	.byte	255
	.byte	1
	.uleb128 Lcst_end0-Lcst_begin0
Lcst_begin0:
	.uleb128 Ltmp17-Lfunc_begin4
	.uleb128 Ltmp18-Ltmp17
	.uleb128 Ltmp21-Lfunc_begin4
	.byte	0
	.uleb128 Ltmp18-Lfunc_begin4
	.uleb128 Ltmp19-Ltmp18
	.byte	0
	.byte	0
	.uleb128 Ltmp19-Lfunc_begin4
	.uleb128 Ltmp20-Ltmp19
	.uleb128 Ltmp21-Lfunc_begin4
	.byte	0
Lcst_end0:
	.p2align	2

	.section	__TEXT,__text,regular,pure_instructions
	.p2align	4, 0x90
__ZN3std3ffi6os_str5OsStr6to_str17h3dac262c204869b1E:
Lfunc_begin5:
	.file	9 "/rustc/2c8cc343237b8f7d5a3c3703e3a87f2eb2c54a74/library/std/src/ffi" "os_str.rs"
	.loc	9 703 0
	.cfi_startproc
	pushq	%rbp
	.cfi_def_cfa_offset 16
	.cfi_offset %rbp, -16
	movq	%rsp, %rbp
	.cfi_def_cfa_register %rbp
	subq	$16, %rsp
	movq	%rdi, -16(%rbp)
	movq	%rsi, -8(%rbp)
Ltmp24:
	.loc	9 704 9 prologue_end
	callq	__ZN3std3sys4unix6os_str5Slice6to_str17h19373d45d7a45923E
	.loc	9 705 6
	addq	$16, %rsp
	popq	%rbp
	retq
Ltmp25:
Lfunc_end5:
	.cfi_endproc

	.p2align	4, 0x90
__ZN3std3ffi6os_str85_$LT$impl$u20$core..convert..AsRef$LT$std..ffi..os_str..OsStr$GT$$u20$for$u20$str$GT$6as_ref17ha10222bcecabce4cE:
Lfunc_begin6:
	.loc	9 1321 0
	.cfi_startproc
	pushq	%rbp
	.cfi_def_cfa_offset 16
	.cfi_offset %rbp, -16
	movq	%rsp, %rbp
	.cfi_def_cfa_register %rbp
	subq	$112, %rsp
	movq	%rdi, -112(%rbp)
	movq	%rsi, -104(%rbp)
Ltmp26:
	.loc	9 1322 43 prologue_end
	movq	%rdi, -96(%rbp)
	movq	%rsi, -88(%rbp)
Ltmp27:
	.file	10 "/rustc/2c8cc343237b8f7d5a3c3703e3a87f2eb2c54a74/library/std/src/sys/unix" "os_str.rs"
	.loc	10 201 30
	movq	%rdi, -80(%rbp)
	movq	%rsi, -72(%rbp)
Ltmp28:
	.file	11 "/rustc/2c8cc343237b8f7d5a3c3703e3a87f2eb2c54a74/library/core/src/str" "mod.rs"
	.loc	11 327 18
	movq	%rdi, -64(%rbp)
	movq	%rsi, -56(%rbp)
	movq	-64(%rbp), %rcx
	movq	-56(%rbp), %rax
Ltmp29:
	.loc	10 201 30
	movq	%rcx, -48(%rbp)
	movq	%rax, -40(%rbp)
Ltmp30:
	.loc	10 196 18
	movq	%rcx, -32(%rbp)
	movq	%rax, -24(%rbp)
	movq	-32(%rbp), %rax
	movq	-24(%rbp), %rdx
Ltmp31:
	.loc	9 1322 27
	movq	%rax, -16(%rbp)
	movq	%rdx, -8(%rbp)
	.loc	9 1323 6
	addq	$112, %rsp
	popq	%rbp
	retq
Ltmp32:
Lfunc_end6:
	.cfi_endproc

	.p2align	4, 0x90
__ZN44_$LT$$RF$T$u20$as$u20$core..fmt..Display$GT$3fmt17hc8c4cacbadad7ec2E:
Lfunc_begin7:
	.file	12 "/rustc/2c8cc343237b8f7d5a3c3703e3a87f2eb2c54a74/library/core/src/fmt" "mod.rs"
	.loc	12 2377 0
	.cfi_startproc
	pushq	%rbp
	.cfi_def_cfa_offset 16
	.cfi_offset %rbp, -16
	movq	%rsp, %rbp
	.cfi_def_cfa_register %rbp
	subq	$16, %rsp
	movq	%rsi, %rdx
	movq	%rdi, %rax
	movq	%rax, -16(%rbp)
	movq	%rdx, -8(%rbp)
Ltmp33:
	.loc	12 2377 71 prologue_end
	movq	(%rax), %rdi
	movq	8(%rax), %rsi
	.loc	12 2377 62 is_stmt 0
	callq	__ZN42_$LT$str$u20$as$u20$core..fmt..Display$GT$3fmt17hd1cabce055ea2fbdE
	.loc	12 2377 84
	andb	$1, %al
	movzbl	%al, %eax
	addq	$16, %rsp
	popq	%rbp
	retq
Ltmp34:
Lfunc_end7:
	.cfi_endproc

	.p2align	4, 0x90
__ZN4core3cmp5impls69_$LT$impl$u20$core..cmp..PartialEq$LT$$RF$B$GT$$u20$for$u20$$RF$A$GT$2ne17hdc5ffd3fe90dbff1E:
Lfunc_begin8:
	.file	13 "/rustc/2c8cc343237b8f7d5a3c3703e3a87f2eb2c54a74/library/core/src" "cmp.rs"
	.loc	13 1534 0 is_stmt 1
	.cfi_startproc
	pushq	%rbp
	.cfi_def_cfa_offset 16
	.cfi_offset %rbp, -16
	movq	%rsp, %rbp
	.cfi_def_cfa_register %rbp
	subq	$16, %rsp
	movq	%rsi, %rax
	movq	%rdi, %rcx
	movq	%rcx, -16(%rbp)
	movq	%rax, -8(%rbp)
Ltmp35:
	.loc	13 1535 27 prologue_end
	movq	(%rcx), %rdi
	movq	8(%rcx), %rsi
	.loc	13 1535 34 is_stmt 0
	movq	(%rax), %rdx
	movq	8(%rax), %rcx
	.loc	13 1535 13
	callq	__ZN4core3str6traits54_$LT$impl$u20$core..cmp..PartialEq$u20$for$u20$str$GT$2ne17h0d16cd31c64e69e8E
	.loc	13 1536 10 is_stmt 1
	andb	$1, %al
	movzbl	%al, %eax
	addq	$16, %rsp
	popq	%rbp
	retq
Ltmp36:
Lfunc_end8:
	.cfi_endproc

	.p2align	4, 0x90
__ZN4core3fmt10ArgumentV111new_display17h123e0c43f48f8d12E:
Lfunc_begin9:
	.loc	12 327 0
	.cfi_startproc
	pushq	%rbp
	.cfi_def_cfa_offset 16
	.cfi_offset %rbp, -16
	movq	%rsp, %rbp
	.cfi_def_cfa_register %rbp
	subq	$56, %rsp
	movq	%rdi, -40(%rbp)
Ltmp37:
	.loc	12 328 23 prologue_end
	movq	%rdi, -32(%rbp)
	.loc	12 328 26 is_stmt 0
	leaq	__ZN44_$LT$$RF$T$u20$as$u20$core..fmt..Display$GT$3fmt17hc8c4cacbadad7ec2E(%rip), %rax
	movq	%rax, -24(%rbp)
Ltmp38:
	.loc	12 347 42 is_stmt 1
	movq	%rax, -16(%rbp)
	movq	-16(%rbp), %rax
	.loc	12 347 68 is_stmt 0
	movq	%rdi, -8(%rbp)
	movq	-8(%rbp), %rcx
	.loc	12 347 18
	movq	%rcx, -56(%rbp)
	movq	%rax, -48(%rbp)
Ltmp39:
	.loc	12 329 10 is_stmt 1
	movq	-56(%rbp), %rax
	movq	-48(%rbp), %rdx
	addq	$56, %rsp
	popq	%rbp
	retq
Ltmp40:
Lfunc_end9:
	.cfi_endproc

	.p2align	4, 0x90
__ZN4core3fmt9Arguments6new_v117hcffcfc15a2fa3793E:
Lfunc_begin10:
	.loc	12 399 0
	.cfi_startproc
	pushq	%rbp
	.cfi_def_cfa_offset 16
	.cfi_offset %rbp, -16
	movq	%rsp, %rbp
	.cfi_def_cfa_register %rbp
	subq	$160, %rsp
	movq	%r8, -152(%rbp)
	movq	%rcx, -144(%rbp)
	movq	%rdx, -136(%rbp)
	movq	%rsi, -128(%rbp)
	movq	%rdi, -120(%rbp)
	movq	%rdi, -112(%rbp)
	movq	%rsi, -32(%rbp)
	movq	%rdx, -24(%rbp)
	movq	%rcx, -16(%rbp)
	movq	%r8, -8(%rbp)
Ltmp41:
	.loc	12 400 12 prologue_end
	cmpq	%r8, %rdx
	jb	LBB10_2
	.loc	12 0 12 is_stmt 0
	movq	-136(%rbp), %rax
	movq	-152(%rbp), %rcx
	.loc	12 400 56
	addq	$1, %rcx
	.loc	12 400 41
	cmpq	%rcx, %rax
	seta	%al
	.loc	12 400 12
	andb	$1, %al
	movb	%al, -97(%rbp)
	jmp	LBB10_3
LBB10_2:
	movb	$1, -97(%rbp)
LBB10_3:
	testb	$1, -97(%rbp)
	jne	LBB10_5
	.loc	12 0 12
	movq	-112(%rbp), %rax
	movq	-120(%rbp), %rcx
	movq	-152(%rbp), %rdx
	movq	-144(%rbp), %rsi
	movq	-136(%rbp), %rdi
	movq	-128(%rbp), %r8
	.loc	12 403 34 is_stmt 1
	movq	$0, -48(%rbp)
	.loc	12 403 9 is_stmt 0
	movq	%r8, 16(%rcx)
	movq	%rdi, 24(%rcx)
	movq	-48(%rbp), %r8
	movq	-40(%rbp), %rdi
	movq	%r8, (%rcx)
	movq	%rdi, 8(%rcx)
	movq	%rsi, 32(%rcx)
	movq	%rdx, 40(%rcx)
	.loc	12 404 6 is_stmt 1
	addq	$160, %rsp
	popq	%rbp
	retq
LBB10_5:
	.loc	12 401 13
	leaq	l___unnamed_2(%rip), %rsi
	leaq	l___unnamed_3(%rip), %rcx
	xorl	%eax, %eax
	movl	%eax, %r8d
	leaq	-96(%rbp), %rdi
	movq	%rdi, -160(%rbp)
	movl	$1, %edx
	callq	__ZN4core3fmt9Arguments6new_v117hcffcfc15a2fa3793E
	movq	-160(%rbp), %rdi
	leaq	l___unnamed_4(%rip), %rsi
	callq	__ZN4core9panicking9panic_fmt17h9b5d807e24bcaaedE
Ltmp42:
Lfunc_end10:
	.cfi_endproc

	.p2align	4, 0x90
__ZN4core3ops8function6FnOnce40call_once$u7b$$u7b$vtable.shim$u7d$$u7d$17hcdbebd8a5a14bc4dE:
Lfunc_begin11:
	.file	14 "/rustc/2c8cc343237b8f7d5a3c3703e3a87f2eb2c54a74/library/core/src/ops" "function.rs"
	.loc	14 250 0
	.cfi_startproc
	pushq	%rbp
	.cfi_def_cfa_offset 16
	.cfi_offset %rbp, -16
	movq	%rsp, %rbp
	.cfi_def_cfa_register %rbp
	subq	$16, %rsp
	movq	%rdi, -8(%rbp)
Ltmp43:
	.loc	14 250 5 prologue_end
	movq	(%rdi), %rdi
	callq	__ZN4core3ops8function6FnOnce9call_once17h3acb821d4cd86dbcE
	addq	$16, %rsp
	popq	%rbp
	retq
Ltmp44:
Lfunc_end11:
	.cfi_endproc

	.p2align	4, 0x90
__ZN4core3ops8function6FnOnce9call_once17h3acb821d4cd86dbcE:
Lfunc_begin12:
	.loc	14 250 0
	.cfi_startproc
	.cfi_personality 155, _rust_eh_personality
	.cfi_lsda 16, Lexception1
	pushq	%rbp
	.cfi_def_cfa_offset 16
	.cfi_offset %rbp, -16
	movq	%rsp, %rbp
	.cfi_def_cfa_register %rbp
	subq	$48, %rsp
	movq	%rdi, -32(%rbp)
Ltmp45:
	leaq	-32(%rbp), %rdi
Ltmp48:
	.loc	14 250 5 prologue_end
	callq	__ZN3std2rt10lang_start28_$u7b$$u7b$closure$u7d$$u7d$17h6d07708603db9ab4E
Ltmp46:
	movl	%eax, -36(%rbp)
	jmp	LBB12_3
LBB12_1:
	movq	-16(%rbp), %rdi
	callq	__Unwind_Resume
LBB12_2:
Ltmp47:
	.loc	14 0 5 is_stmt 0
	movq	%rax, %rcx
	movl	%edx, %eax
	movq	%rcx, -16(%rbp)
	movl	%eax, -8(%rbp)
	jmp	LBB12_1
LBB12_3:
	movl	-36(%rbp), %eax
	.loc	14 250 5
	addq	$48, %rsp
	popq	%rbp
	retq
Ltmp49:
Lfunc_end12:
	.cfi_endproc
	.section	__TEXT,__gcc_except_tab
	.p2align	2
GCC_except_table12:
Lexception1:
	.byte	255
	.byte	255
	.byte	1
	.uleb128 Lcst_end1-Lcst_begin1
Lcst_begin1:
	.uleb128 Ltmp45-Lfunc_begin12
	.uleb128 Ltmp46-Ltmp45
	.uleb128 Ltmp47-Lfunc_begin12
	.byte	0
	.uleb128 Ltmp46-Lfunc_begin12
	.uleb128 Lfunc_end12-Ltmp46
	.byte	0
	.byte	0
Lcst_end1:
	.p2align	2

	.section	__TEXT,__text,regular,pure_instructions
	.p2align	4, 0x90
__ZN4core3ops8function6FnOnce9call_once17h53c80de2eee5ccd0E:
Lfunc_begin13:
	.loc	14 250 0 is_stmt 1
	.cfi_startproc
	pushq	%rbp
	.cfi_def_cfa_offset 16
	.cfi_offset %rbp, -16
	movq	%rsp, %rbp
	.cfi_def_cfa_register %rbp
	subq	$16, %rsp
	movq	%rdi, -8(%rbp)
Ltmp50:
	.loc	14 250 5 prologue_end
	callq	*%rdi
	addq	$16, %rsp
	popq	%rbp
	retq
Ltmp51:
Lfunc_end13:
	.cfi_endproc

	.p2align	4, 0x90
__ZN4core3ptr46drop_in_place$LT$alloc..vec..Vec$LT$u8$GT$$GT$17h3d33a7191da7b88dE:
Lfunc_begin14:
	.file	15 "/rustc/2c8cc343237b8f7d5a3c3703e3a87f2eb2c54a74/library/core/src/ptr" "mod.rs"
	.loc	15 490 0
	.cfi_startproc
	.cfi_personality 155, _rust_eh_personality
	.cfi_lsda 16, Lexception2
	pushq	%rbp
	.cfi_def_cfa_offset 16
	.cfi_offset %rbp, -16
	movq	%rsp, %rbp
	.cfi_def_cfa_register %rbp
	subq	$32, %rsp
	movq	%rdi, -32(%rbp)
	movq	%rdi, -24(%rbp)
Ltmp52:
Ltmp58:
	.loc	15 490 1 prologue_end
	callq	__ZN70_$LT$alloc..vec..Vec$LT$T$C$A$GT$$u20$as$u20$core..ops..drop..Drop$GT$4drop17h18770af7ea62e946E
Ltmp53:
	jmp	LBB14_3
LBB14_1:
Ltmp55:
	.loc	15 0 1 is_stmt 0
	movq	-32(%rbp), %rdi
	.loc	15 490 1
	callq	__ZN4core3ptr53drop_in_place$LT$alloc..raw_vec..RawVec$LT$u8$GT$$GT$17h9a3a4501964e6862E
Ltmp56:
	jmp	LBB14_5
LBB14_2:
Ltmp54:
	.loc	15 0 1
	movq	%rax, %rcx
	movl	%edx, %eax
	movq	%rcx, -16(%rbp)
	movl	%eax, -8(%rbp)
	jmp	LBB14_1
LBB14_3:
	movq	-32(%rbp), %rdi
	.loc	15 490 1
	callq	__ZN4core3ptr53drop_in_place$LT$alloc..raw_vec..RawVec$LT$u8$GT$$GT$17h9a3a4501964e6862E
	addq	$32, %rsp
	popq	%rbp
	retq
LBB14_4:
Ltmp57:
	callq	__ZN4core9panicking19panic_cannot_unwind17h1fbca7e1d7f56ae1E
LBB14_5:
	movq	-16(%rbp), %rdi
	callq	__Unwind_Resume
Ltmp59:
Lfunc_end14:
	.cfi_endproc
	.section	__TEXT,__gcc_except_tab
	.p2align	2
GCC_except_table14:
Lexception2:
	.byte	255
	.byte	255
	.byte	1
	.uleb128 Lcst_end2-Lcst_begin2
Lcst_begin2:
	.uleb128 Ltmp52-Lfunc_begin14
	.uleb128 Ltmp53-Ltmp52
	.uleb128 Ltmp54-Lfunc_begin14
	.byte	0
	.uleb128 Ltmp55-Lfunc_begin14
	.uleb128 Ltmp56-Ltmp55
	.uleb128 Ltmp57-Lfunc_begin14
	.byte	0
	.uleb128 Ltmp56-Lfunc_begin14
	.uleb128 Lfunc_end14-Ltmp56
	.byte	0
	.byte	0
Lcst_end2:
	.p2align	2

	.section	__TEXT,__text,regular,pure_instructions
	.p2align	4, 0x90
__ZN4core3ptr47drop_in_place$LT$std..ffi..os_str..OsString$GT$17h159f00f30a0a38b7E:
Lfunc_begin15:
	.loc	15 490 0 is_stmt 1
	.cfi_startproc
	pushq	%rbp
	.cfi_def_cfa_offset 16
	.cfi_offset %rbp, -16
	movq	%rsp, %rbp
	.cfi_def_cfa_register %rbp
	subq	$16, %rsp
	movq	%rdi, -8(%rbp)
Ltmp60:
	.loc	15 490 1 prologue_end
	callq	__ZN4core3ptr48drop_in_place$LT$std..sys..unix..os_str..Buf$GT$17hff1fe93e0386c352E
	addq	$16, %rsp
	popq	%rbp
	retq
Ltmp61:
Lfunc_end15:
	.cfi_endproc

	.p2align	4, 0x90
__ZN4core3ptr48drop_in_place$LT$std..sys..unix..os_str..Buf$GT$17hff1fe93e0386c352E:
Lfunc_begin16:
	.loc	15 490 0
	.cfi_startproc
	pushq	%rbp
	.cfi_def_cfa_offset 16
	.cfi_offset %rbp, -16
	movq	%rsp, %rbp
	.cfi_def_cfa_register %rbp
	subq	$16, %rsp
	movq	%rdi, -8(%rbp)
Ltmp62:
	.loc	15 490 1 prologue_end
	callq	__ZN4core3ptr46drop_in_place$LT$alloc..vec..Vec$LT$u8$GT$$GT$17h3d33a7191da7b88dE
	addq	$16, %rsp
	popq	%rbp
	retq
Ltmp63:
Lfunc_end16:
	.cfi_endproc

	.p2align	4, 0x90
__ZN4core3ptr53drop_in_place$LT$alloc..raw_vec..RawVec$LT$u8$GT$$GT$17h9a3a4501964e6862E:
Lfunc_begin17:
	.loc	15 490 0
	.cfi_startproc
	pushq	%rbp
	.cfi_def_cfa_offset 16
	.cfi_offset %rbp, -16
	movq	%rsp, %rbp
	.cfi_def_cfa_register %rbp
	subq	$16, %rsp
	movq	%rdi, -8(%rbp)
Ltmp64:
	.loc	15 490 1 prologue_end
	callq	__ZN77_$LT$alloc..raw_vec..RawVec$LT$T$C$A$GT$$u20$as$u20$core..ops..drop..Drop$GT$4drop17h92b3bd13cff83bf2E
	addq	$16, %rsp
	popq	%rbp
	retq
Ltmp65:
Lfunc_end17:
	.cfi_endproc

	.p2align	4, 0x90
__ZN4core3ptr75drop_in_place$LT$core..option..Option$LT$std..ffi..os_str..OsString$GT$$GT$17ha5447f8d20efe46aE:
Lfunc_begin18:
	.loc	15 490 0
	.cfi_startproc
	pushq	%rbp
	.cfi_def_cfa_offset 16
	.cfi_offset %rbp, -16
	movq	%rsp, %rbp
	.cfi_def_cfa_register %rbp
	subq	$16, %rsp
	movq	%rdi, -16(%rbp)
	movq	%rdi, -8(%rbp)
Ltmp66:
	.loc	15 490 1 prologue_end
	movq	8(%rdi), %rdx
	movl	$1, %eax
	xorl	%ecx, %ecx
	cmpq	$0, %rdx
	cmoveq	%rcx, %rax
	cmpq	$0, %rax
	jne	LBB18_2
LBB18_1:
	addq	$16, %rsp
	popq	%rbp
	retq
LBB18_2:
	.loc	15 0 1 is_stmt 0
	movq	-16(%rbp), %rdi
	.loc	15 490 1
	callq	__ZN4core3ptr47drop_in_place$LT$std..ffi..os_str..OsString$GT$17h159f00f30a0a38b7E
	jmp	LBB18_1
Ltmp67:
Lfunc_end18:
	.cfi_endproc

	.p2align	4, 0x90
__ZN4core3ptr85drop_in_place$LT$std..rt..lang_start$LT$$LP$$RP$$GT$..$u7b$$u7b$closure$u7d$$u7d$$GT$17h43b3b6840806043bE:
Lfunc_begin19:
	.loc	15 490 0 is_stmt 1
	.cfi_startproc
	pushq	%rbp
	.cfi_def_cfa_offset 16
	.cfi_offset %rbp, -16
	movq	%rsp, %rbp
	.cfi_def_cfa_register %rbp
	pushq	%rax
	movq	%rdi, -8(%rbp)
Ltmp68:
	.loc	15 490 1 prologue_end
	addq	$8, %rsp
	popq	%rbp
	retq
Ltmp69:
Lfunc_end19:
	.cfi_endproc

	.p2align	4, 0x90
__ZN4core3str6traits54_$LT$impl$u20$core..cmp..PartialEq$u20$for$u20$str$GT$2eq17hc78061f398724b4bE:
Lfunc_begin20:
	.file	16 "/rustc/2c8cc343237b8f7d5a3c3703e3a87f2eb2c54a74/library/core/src/str" "traits.rs"
	.loc	16 28 0
	.cfi_startproc
	pushq	%rbp
	.cfi_def_cfa_offset 16
	.cfi_offset %rbp, -16
	movq	%rsp, %rbp
	.cfi_def_cfa_register %rbp
	subq	$112, %rsp
	movq	%rdi, -80(%rbp)
	movq	%rsi, -72(%rbp)
	movq	%rdx, -64(%rbp)
	movq	%rcx, -56(%rbp)
Ltmp70:
	.loc	16 29 9 prologue_end
	movq	%rdi, -48(%rbp)
	movq	%rsi, -40(%rbp)
Ltmp71:
	.loc	11 327 18
	movq	%rdi, -112(%rbp)
	movq	%rsi, -104(%rbp)
Ltmp72:
	.loc	16 29 9
	leaq	-112(%rbp), %rax
	movq	%rax, -32(%rbp)
	.loc	16 29 28 is_stmt 0
	movq	%rdx, -24(%rbp)
	movq	%rcx, -16(%rbp)
Ltmp73:
	.loc	11 327 18 is_stmt 1
	movq	%rdx, -96(%rbp)
	movq	%rcx, -88(%rbp)
Ltmp74:
	.loc	16 29 28
	leaq	-96(%rbp), %rax
	movq	%rax, -8(%rbp)
Ltmp75:
	.loc	13 1531 27
	movq	-112(%rbp), %rdi
	movq	-104(%rbp), %rsi
	.loc	13 1531 34 is_stmt 0
	movq	-96(%rbp), %rdx
	movq	-88(%rbp), %rcx
	.loc	13 1531 13
	callq	__ZN4core5slice3cmp81_$LT$impl$u20$core..cmp..PartialEq$LT$$u5b$B$u5d$$GT$$u20$for$u20$$u5b$A$u5d$$GT$2eq17h40a1c7e5cd4bb154E
Ltmp76:
	.loc	16 30 6 is_stmt 1
	andb	$1, %al
	movzbl	%al, %eax
	addq	$112, %rsp
	popq	%rbp
	retq
Ltmp77:
Lfunc_end20:
	.cfi_endproc

	.p2align	4, 0x90
__ZN4core3str6traits54_$LT$impl$u20$core..cmp..PartialEq$u20$for$u20$str$GT$2ne17h0d16cd31c64e69e8E:
Lfunc_begin21:
	.loc	16 32 0
	.cfi_startproc
	pushq	%rbp
	.cfi_def_cfa_offset 16
	.cfi_offset %rbp, -16
	movq	%rsp, %rbp
	.cfi_def_cfa_register %rbp
	subq	$32, %rsp
	movq	%rdi, -32(%rbp)
	movq	%rsi, -24(%rbp)
	movq	%rdx, -16(%rbp)
	movq	%rcx, -8(%rbp)
Ltmp78:
	.loc	16 33 10 prologue_end
	callq	__ZN4core3str6traits54_$LT$impl$u20$core..cmp..PartialEq$u20$for$u20$str$GT$2eq17hc78061f398724b4bE
	.loc	16 33 9 is_stmt 0
	xorb	$-1, %al
	.loc	16 34 6 is_stmt 1
	andb	$1, %al
	movzbl	%al, %eax
	addq	$32, %rsp
	popq	%rbp
	retq
Ltmp79:
Lfunc_end21:
	.cfi_endproc

	.p2align	4, 0x90
__ZN4core4hint21unreachable_unchecked17h55e232352528aa6cE:
Lfunc_begin22:
	.loc	4 100 0
	.cfi_startproc
	pushq	%rbp
	.cfi_def_cfa_offset 16
	.cfi_offset %rbp, -16
	movq	%rsp, %rbp
	.cfi_def_cfa_register %rbp
Ltmp80:
	.loc	4 104 9 prologue_end
	ud2
Ltmp81:
Lfunc_end22:
	.cfi_endproc

	.p2align	4, 0x90
__ZN4core5alloc6layout6Layout5array5inner17hf4ef5d5504e9a59dE:
Lfunc_begin23:
	.file	17 "/rustc/2c8cc343237b8f7d5a3c3703e3a87f2eb2c54a74/library/core/src/alloc" "layout.rs"
	.loc	17 441 0
	.cfi_startproc
	pushq	%rbp
	.cfi_def_cfa_offset 16
	.cfi_offset %rbp, -16
	movq	%rsp, %rbp
	.cfi_def_cfa_register %rbp
	subq	$176, %rsp
	movq	%rdi, -168(%rbp)
	movq	%rsi, -160(%rbp)
	movq	%rdx, -152(%rbp)
	movq	%rdi, -88(%rbp)
	movq	%rsi, -80(%rbp)
	movq	%rdx, -72(%rbp)
Ltmp82:
	.loc	17 452 16 prologue_end
	cmpq	$0, %rdi
	jne	LBB23_2
	movb	$0, -121(%rbp)
	jmp	LBB23_5
LBB23_2:
	.loc	17 0 16 is_stmt 0
	movq	-168(%rbp), %rax
	movq	-160(%rbp), %rcx
	.loc	17 452 68
	movq	%rcx, -64(%rbp)
Ltmp83:
	.loc	17 93 32 is_stmt 1
	movq	%rcx, -56(%rbp)
Ltmp84:
	.file	18 "/rustc/2c8cc343237b8f7d5a3c3703e3a87f2eb2c54a74/library/core/src/ptr" "alignment.rs"
	.loc	18 97 9
	movq	%rcx, -104(%rbp)
	movq	-104(%rbp), %rdx
Ltmp85:
	.loc	17 93 31
	subq	$1, %rdx
	.loc	17 93 9 is_stmt 0
	movabsq	$9223372036854775807, %rcx
	subq	%rdx, %rcx
	movq	%rcx, -176(%rbp)
Ltmp86:
	.loc	17 452 41 is_stmt 1
	cmpq	$0, %rax
	sete	%al
	testb	$1, %al
	jne	LBB23_4
	.loc	17 0 41 is_stmt 0
	movq	-168(%rbp), %rcx
	movq	-176(%rbp), %rax
	.loc	17 452 41
	xorl	%edx, %edx
	divq	%rcx
	movq	%rax, %rcx
	movq	-152(%rbp), %rax
	.loc	17 452 37
	cmpq	%rcx, %rax
	seta	%al
	.loc	17 452 16
	andb	$1, %al
	movb	%al, -121(%rbp)
	jmp	LBB23_5
LBB23_4:
	.loc	17 452 41
	leaq	_str.0(%rip), %rdi
	leaq	l___unnamed_5(%rip), %rdx
	movl	$25, %esi
	callq	__ZN4core9panicking5panic17hc1bc45270cf64b03E
LBB23_5:
	.loc	17 452 16
	testb	$1, -121(%rbp)
	jne	LBB23_7
	.loc	17 0 16
	movq	-160(%rbp), %rax
	movq	-152(%rbp), %rdx
	movq	-168(%rbp), %rcx
	.loc	17 456 30 is_stmt 1
	imulq	%rdx, %rcx
	movq	%rcx, -48(%rbp)
Ltmp87:
	.loc	17 461 59
	movq	%rcx, -40(%rbp)
	.loc	17 461 71 is_stmt 0
	movq	%rax, -32(%rbp)
Ltmp88:
	.loc	18 97 9 is_stmt 1
	movq	%rax, -96(%rbp)
	movq	-96(%rbp), %rax
	movq	%rax, -24(%rbp)
Ltmp89:
	.loc	17 120 65
	movq	%rax, -16(%rbp)
Ltmp90:
	.loc	18 89 18
	movq	%rax, -8(%rbp)
	movq	-8(%rbp), %rax
Ltmp91:
	.loc	17 120 18
	movq	%rcx, -120(%rbp)
	movq	%rax, -112(%rbp)
Ltmp92:
	.loc	17 461 22
	movq	-120(%rbp), %rcx
	movq	-112(%rbp), %rax
	movq	%rcx, -144(%rbp)
	movq	%rax, -136(%rbp)
Ltmp93:
	.loc	17 462 10
	jmp	LBB23_8
LBB23_7:
	.loc	17 453 24
	movq	$0, -136(%rbp)
LBB23_8:
	.loc	17 462 10
	movq	-144(%rbp), %rax
	movq	-136(%rbp), %rdx
	addq	$176, %rsp
	popq	%rbp
	retq
Ltmp94:
Lfunc_end23:
	.cfi_endproc

	.p2align	4, 0x90
__ZN4core5slice3cmp81_$LT$impl$u20$core..cmp..PartialEq$LT$$u5b$B$u5d$$GT$$u20$for$u20$$u5b$A$u5d$$GT$2eq17h40a1c7e5cd4bb154E:
Lfunc_begin24:
	.file	19 "/rustc/2c8cc343237b8f7d5a3c3703e3a87f2eb2c54a74/library/core/src/slice" "cmp.rs"
	.loc	19 25 0
	.cfi_startproc
	pushq	%rbp
	.cfi_def_cfa_offset 16
	.cfi_offset %rbp, -16
	movq	%rsp, %rbp
	.cfi_def_cfa_register %rbp
	subq	$32, %rsp
	movq	%rdi, -32(%rbp)
	movq	%rsi, -24(%rbp)
	movq	%rdx, -16(%rbp)
	movq	%rcx, -8(%rbp)
Ltmp95:
	.loc	19 26 9 prologue_end
	callq	__ZN73_$LT$$u5b$A$u5d$$u20$as$u20$core..slice..cmp..SlicePartialEq$LT$B$GT$$GT$5equal17h888a690808f30429E
	.loc	19 27 6
	andb	$1, %al
	movzbl	%al, %eax
	addq	$32, %rsp
	popq	%rbp
	retq
Ltmp96:
Lfunc_end24:
	.cfi_endproc

	.p2align	4, 0x90
__ZN4core6option15Option$LT$T$GT$6expect17h335dbdb46db97c05E:
Lfunc_begin25:
	.file	20 "/rustc/2c8cc343237b8f7d5a3c3703e3a87f2eb2c54a74/library/core/src" "option.rs"
	.loc	20 783 0
	.cfi_startproc
	pushq	%rbp
	.cfi_def_cfa_offset 16
	.cfi_offset %rbp, -16
	movq	%rsp, %rbp
	.cfi_def_cfa_register %rbp
	subq	$80, %rsp
	movq	%rdx, -72(%rbp)
	movq	%rcx, -64(%rbp)
	movq	%r8, -56(%rbp)
	movq	%rdi, -48(%rbp)
	movq	%rsi, -40(%rbp)
	movq	%rdx, -32(%rbp)
	movq	%rcx, -24(%rbp)
Ltmp97:
	.loc	20 784 15 prologue_end
	movq	-48(%rbp), %rdx
	movl	$1, %eax
	xorl	%ecx, %ecx
	cmpq	$0, %rdx
	cmoveq	%rcx, %rax
	.loc	20 784 9 is_stmt 0
	cmpq	$0, %rax
	jne	LBB25_2
	.loc	20 0 9
	movq	-56(%rbp), %rdx
	movq	-64(%rbp), %rsi
	movq	-72(%rbp), %rdi
	.loc	20 786 21 is_stmt 1
	callq	__ZN4core6option13expect_failed17h5792a81bec0ff713E
LBB25_2:
	.loc	20 785 18
	movq	-48(%rbp), %rax
	movq	-40(%rbp), %rdx
	movq	%rax, -16(%rbp)
	movq	%rdx, -8(%rbp)
	.loc	20 788 6
	addq	$80, %rsp
	popq	%rbp
	retq
Ltmp98:
Lfunc_end25:
	.cfi_endproc

	.p2align	4, 0x90
__ZN4core6option15Option$LT$T$GT$6expect17hecb7cc2cab49d180E:
Lfunc_begin26:
	.loc	20 783 0
	.cfi_startproc
	pushq	%rbp
	.cfi_def_cfa_offset 16
	.cfi_offset %rbp, -16
	movq	%rsp, %rbp
	.cfi_def_cfa_register %rbp
	subq	$64, %rsp
	movq	%r8, -64(%rbp)
	movq	%rcx, -56(%rbp)
	movq	%rdx, -48(%rbp)
	movq	%rsi, -40(%rbp)
Ltmp99:
	movq	%rdi, -32(%rbp)
Ltmp100:
	movq	%rdi, -24(%rbp)
Ltmp101:
	movq	%rdx, -16(%rbp)
	movq	%rcx, -8(%rbp)
Ltmp102:
	.loc	20 784 15 prologue_end
	movq	8(%rsi), %rdx
	movl	$1, %eax
	xorl	%ecx, %ecx
	cmpq	$0, %rdx
	cmoveq	%rcx, %rax
	.loc	20 784 9 is_stmt 0
	cmpq	$0, %rax
Ltmp103:
	jne	LBB26_2
Ltmp104:
	.loc	20 0 9
	movq	-64(%rbp), %rdx
	movq	-56(%rbp), %rsi
	movq	-48(%rbp), %rdi
	.loc	20 786 21 is_stmt 1
	callq	__ZN4core6option13expect_failed17h5792a81bec0ff713E
Ltmp105:
LBB26_2:
	.loc	20 0 21 is_stmt 0
	movq	-24(%rbp), %rax
	movq	-32(%rbp), %rcx
	movq	-40(%rbp), %rdx
	.loc	20 785 18 is_stmt 1
	movq	(%rdx), %rsi
	movq	%rsi, (%rcx)
	movq	8(%rdx), %rsi
	movq	%rsi, 8(%rcx)
	movq	16(%rdx), %rdx
	movq	%rdx, 16(%rcx)
	.loc	20 788 6
	addq	$64, %rsp
	popq	%rbp
	retq
Ltmp106:
Lfunc_end26:
	.cfi_endproc

	.p2align	4, 0x90
__ZN4core6option15Option$LT$T$GT$7is_some17hb804a8c295f05a80E:
Lfunc_begin27:
	.loc	20 597 0
	.cfi_startproc
	pushq	%rbp
	.cfi_def_cfa_offset 16
	.cfi_offset %rbp, -16
	movq	%rsp, %rbp
	.cfi_def_cfa_register %rbp
	subq	$16, %rsp
	movq	%rdi, -8(%rbp)
Ltmp107:
	.loc	20 598 18 prologue_end
	movq	8(%rdi), %rdx
	movl	$1, %eax
	xorl	%ecx, %ecx
	cmpq	$0, %rdx
	cmoveq	%rcx, %rax
	.loc	20 598 9 is_stmt 0
	cmpq	$1, %rax
	jne	LBB27_2
	movb	$1, -9(%rbp)
	jmp	LBB27_3
LBB27_2:
	movb	$0, -9(%rbp)
LBB27_3:
	.loc	20 599 6 is_stmt 1
	movb	-9(%rbp), %al
	andb	$1, %al
	movzbl	%al, %eax
	addq	$16, %rsp
	popq	%rbp
	retq
Ltmp108:
Lfunc_end27:
	.cfi_endproc

	.p2align	4, 0x90
__ZN4core6result19Result$LT$T$C$E$GT$16unwrap_unchecked17hcd4c7887a15e70eaE:
Lfunc_begin28:
	.file	21 "/rustc/2c8cc343237b8f7d5a3c3703e3a87f2eb2c54a74/library/core/src" "result.rs"
	.loc	21 1530 0
	.cfi_startproc
	.cfi_personality 155, _rust_eh_personality
	.cfi_lsda 16, Lexception3
	pushq	%rbp
	.cfi_def_cfa_offset 16
	.cfi_offset %rbp, -16
	movq	%rsp, %rbp
	.cfi_def_cfa_register %rbp
	subq	$64, %rsp
	movq	%rdi, -48(%rbp)
	movq	%rsi, -40(%rbp)
Ltmp112:
	.loc	21 1532 15 prologue_end
	xorl	%eax, %eax
	movl	$1, %ecx
	cmpq	$0, -40(%rbp)
	cmoveq	%rcx, %rax
	.loc	21 1532 9 is_stmt 0
	cmpq	$0, %rax
	jne	LBB28_2
	.loc	21 1533 16 is_stmt 1
	movq	-48(%rbp), %rcx
	movq	%rcx, -64(%rbp)
	movq	-40(%rbp), %rax
	movq	%rax, -56(%rbp)
	movq	%rcx, -16(%rbp)
	movq	%rax, -8(%rbp)
	.loc	21 1537 5
	xorl	%eax, %eax
	movl	$1, %ecx
	cmpq	$0, -40(%rbp)
	cmoveq	%rcx, %rax
	cmpq	$0, %rax
	je	LBB28_10
	jmp	LBB28_11
LBB28_2:
Ltmp109:
	.loc	21 1535 32
	callq	__ZN4core4hint21unreachable_unchecked17h55e232352528aa6cE
Ltmp110:
	jmp	LBB28_5
LBB28_3:
	.loc	21 1537 5
	xorl	%eax, %eax
	movl	$1, %ecx
	cmpq	$0, -40(%rbp)
	cmoveq	%rcx, %rax
	cmpq	$0, %rax
	je	LBB28_6
	jmp	LBB28_7
LBB28_4:
Ltmp111:
	.loc	21 0 5 is_stmt 0
	movq	%rax, %rcx
	movl	%edx, %eax
	movq	%rcx, -32(%rbp)
	movl	%eax, -24(%rbp)
	jmp	LBB28_3
LBB28_5:
	ud2
LBB28_6:
	.loc	21 1537 5
	movb	$1, %al
	testb	$1, %al
	jne	LBB28_9
	jmp	LBB28_8
LBB28_7:
	jmp	LBB28_8
LBB28_8:
	.loc	21 1530 5 is_stmt 1
	movq	-32(%rbp), %rdi
	callq	__Unwind_Resume
LBB28_9:
	.loc	21 1537 5
	jmp	LBB28_8
LBB28_10:
	.loc	21 0 5 is_stmt 0
	movq	-56(%rbp), %rdx
	movq	-64(%rbp), %rax
	.loc	21 1537 6
	addq	$64, %rsp
	popq	%rbp
	retq
LBB28_11:
	.loc	21 1537 5
	jmp	LBB28_10
Ltmp113:
Lfunc_end28:
	.cfi_endproc
	.section	__TEXT,__gcc_except_tab
	.p2align	2
GCC_except_table28:
Lexception3:
	.byte	255
	.byte	255
	.byte	1
	.uleb128 Lcst_end3-Lcst_begin3
Lcst_begin3:
	.uleb128 Ltmp109-Lfunc_begin28
	.uleb128 Ltmp110-Ltmp109
	.uleb128 Ltmp111-Lfunc_begin28
	.byte	0
	.uleb128 Ltmp110-Lfunc_begin28
	.uleb128 Lfunc_end28-Ltmp110
	.byte	0
	.byte	0
Lcst_end3:
	.p2align	2

	.section	__TEXT,__text,regular,pure_instructions
	.p2align	4, 0x90
__ZN50_$LT$T$u20$as$u20$core..convert..Into$LT$U$GT$$GT$4into17hc7f2df9dbd9da92bE:
Lfunc_begin29:
	.file	22 "/rustc/2c8cc343237b8f7d5a3c3703e3a87f2eb2c54a74/library/core/src/convert" "mod.rs"
	.loc	22 725 0 is_stmt 1
	.cfi_startproc
	pushq	%rbp
	.cfi_def_cfa_offset 16
	.cfi_offset %rbp, -16
	movq	%rsp, %rbp
	.cfi_def_cfa_register %rbp
	subq	$16, %rsp
	movq	%rdi, -8(%rbp)
Ltmp114:
	.loc	22 726 9 prologue_end
	callq	__ZN119_$LT$core..ptr..non_null..NonNull$LT$T$GT$$u20$as$u20$core..convert..From$LT$core..ptr..unique..Unique$LT$T$GT$$GT$$GT$4from17hfa0a5f5a81a9fb9bE
	.loc	22 727 6
	addq	$16, %rsp
	popq	%rbp
	retq
Ltmp115:
Lfunc_end29:
	.cfi_endproc

	.p2align	4, 0x90
__ZN54_$LT$$LP$$RP$$u20$as$u20$std..process..Termination$GT$6report17h9073c10220946ffbE:
Lfunc_begin30:
	.loc	6 2182 0
	.cfi_startproc
	pushq	%rbp
	.cfi_def_cfa_offset 16
	.cfi_offset %rbp, -16
	movq	%rsp, %rbp
	.cfi_def_cfa_register %rbp
	pushq	%rax
Ltmp116:
	.loc	6 2184 6 prologue_end
	xorl	%eax, %eax
	addq	$8, %rsp
	popq	%rbp
	retq
Ltmp117:
Lfunc_end30:
	.cfi_endproc

	.p2align	4, 0x90
__ZN55_$LT$$RF$T$u20$as$u20$core..convert..AsRef$LT$U$GT$$GT$6as_ref17hc7b01d491b57ab44E:
Lfunc_begin31:
	.loc	22 667 0
	.cfi_startproc
	pushq	%rbp
	.cfi_def_cfa_offset 16
	.cfi_offset %rbp, -16
	movq	%rsp, %rbp
	.cfi_def_cfa_register %rbp
	subq	$16, %rsp
	movq	%rdi, %rax
	movq	%rax, -8(%rbp)
Ltmp118:
	.loc	22 668 33 prologue_end
	movq	(%rax), %rdi
	movq	8(%rax), %rsi
	.loc	22 668 9 is_stmt 0
	callq	__ZN3std3ffi6os_str85_$LT$impl$u20$core..convert..AsRef$LT$std..ffi..os_str..OsStr$GT$$u20$for$u20$str$GT$6as_ref17ha10222bcecabce4cE
	.loc	22 669 6 is_stmt 1
	addq	$16, %rsp
	popq	%rbp
	retq
Ltmp119:
Lfunc_end31:
	.cfi_endproc

	.p2align	4, 0x90
__ZN5alloc7raw_vec19RawVec$LT$T$C$A$GT$14current_memory17h5e85eabe95353485E:
Lfunc_begin32:
	.file	23 "/rustc/2c8cc343237b8f7d5a3c3703e3a87f2eb2c54a74/library/alloc/src" "raw_vec.rs"
	.loc	23 240 0
	.cfi_startproc
	pushq	%rbp
	.cfi_def_cfa_offset 16
	.cfi_offset %rbp, -16
	movq	%rsp, %rbp
	.cfi_def_cfa_register %rbp
	subq	$176, %rsp
	movq	%rsi, -152(%rbp)
	movq	%rdi, -144(%rbp)
	movq	%rdi, -136(%rbp)
	movq	%rsi, -80(%rbp)
Ltmp120:
	.loc	23 241 12 prologue_end
	xorl	%eax, %eax
	testb	$1, %al
	jne	LBB32_2
	.loc	23 0 12 is_stmt 0
	movq	-152(%rbp), %rax
	.loc	23 241 25
	cmpq	$0, (%rax)
	sete	%al
	.loc	23 241 12
	andb	$1, %al
	movb	%al, -121(%rbp)
	jmp	LBB32_3
LBB32_2:
	movb	$1, -121(%rbp)
LBB32_3:
	testb	$1, -121(%rbp)
	jne	LBB32_5
	.loc	23 0 12
	movq	-152(%rbp), %rax
	.loc	23 247 49 is_stmt 1
	movq	(%rax), %rdx
	movq	%rdx, -72(%rbp)
Ltmp121:
	.file	24 "/rustc/2c8cc343237b8f7d5a3c3703e3a87f2eb2c54a74/library/core/src/mem" "mod.rs"
	.loc	24 459 5
	movq	$1, -64(%rbp)
Ltmp122:
	.loc	18 89 18
	movq	$1, -56(%rbp)
	movq	-56(%rbp), %rsi
Ltmp123:
	.loc	17 438 16
	movl	$1, %edi
	callq	__ZN4core5alloc6layout6Layout5array5inner17hf4ef5d5504e9a59dE
	movq	%rax, %rdi
	movq	%rdx, %rsi
Ltmp124:
	.loc	23 247 30
	leaq	l___unnamed_6(%rip), %rdx
	callq	__ZN4core6result19Result$LT$T$C$E$GT$16unwrap_unchecked17hcd4c7887a15e70eaE
	movq	%rax, %rcx
	movq	-152(%rbp), %rax
	movq	%rcx, -168(%rbp)
	movq	%rdx, -160(%rbp)
	movq	%rcx, -48(%rbp)
	movq	%rdx, -40(%rbp)
Ltmp125:
	.loc	23 248 23
	movq	8(%rax), %rax
	movq	%rax, -32(%rbp)
Ltmp126:
	.loc	2 137 22
	movq	%rax, -24(%rbp)
Ltmp127:
	.loc	1 450 41
	movq	%rax, -16(%rbp)
	movq	%rax, -8(%rbp)
Ltmp128:
	.loc	1 201 13
	movq	%rax, -88(%rbp)
Ltmp129:
	.loc	2 191 18
	movq	-88(%rbp), %rax
	.loc	2 191 9 is_stmt 0
	movq	%rax, -96(%rbp)
Ltmp130:
	.loc	23 248 23 is_stmt 1
	movq	-96(%rbp), %rdi
	callq	__ZN50_$LT$T$u20$as$u20$core..convert..Into$LT$U$GT$$GT$4into17hc7f2df9dbd9da92bE
	movq	-168(%rbp), %rcx
	movq	-160(%rbp), %rdx
	movq	%rax, %rsi
	movq	-144(%rbp), %rax
	.loc	23 248 22 is_stmt 0
	movq	%rsi, -120(%rbp)
	movq	%rcx, -112(%rbp)
	movq	%rdx, -104(%rbp)
	.loc	23 248 17
	movq	-120(%rbp), %rcx
	movq	%rcx, (%rax)
	movq	-112(%rbp), %rcx
	movq	%rcx, 8(%rax)
	movq	-104(%rbp), %rcx
	movq	%rcx, 16(%rax)
Ltmp131:
	.loc	23 241 9 is_stmt 1
	jmp	LBB32_6
LBB32_5:
	.loc	23 0 9 is_stmt 0
	movq	-144(%rbp), %rax
	.loc	23 242 13 is_stmt 1
	movq	$0, 16(%rax)
LBB32_6:
	.loc	23 0 13 is_stmt 0
	movq	-136(%rbp), %rax
	.loc	23 251 6 is_stmt 1
	addq	$176, %rsp
	popq	%rbp
	retq
Ltmp132:
Lfunc_end32:
	.cfi_endproc

	.p2align	4, 0x90
__ZN63_$LT$alloc..alloc..Global$u20$as$u20$core..alloc..Allocator$GT$10deallocate17hc6cb6877c70c1939E:
Lfunc_begin33:
	.file	25 "/rustc/2c8cc343237b8f7d5a3c3703e3a87f2eb2c54a74/library/alloc/src" "alloc.rs"
	.loc	25 246 0
	.cfi_startproc
	pushq	%rbp
	.cfi_def_cfa_offset 16
	.cfi_offset %rbp, -16
	movq	%rsp, %rbp
	.cfi_def_cfa_register %rbp
	subq	$112, %rsp
	movq	%rsi, -112(%rbp)
	movq	%rdx, -104(%rbp)
	movq	%rcx, -96(%rbp)
	movq	%rdi, -64(%rbp)
	movq	%rsi, -56(%rbp)
Ltmp133:
	.loc	25 247 12 prologue_end
	leaq	-104(%rbp), %rax
	movq	%rax, -48(%rbp)
	cmpq	$0, -104(%rbp)
	jne	LBB33_2
	.loc	25 247 9 is_stmt 0
	jmp	LBB33_3
LBB33_2:
	.loc	25 0 9
	movq	-112(%rbp), %rdi
	.loc	25 250 30 is_stmt 1
	movq	%rdi, -40(%rbp)
Ltmp134:
	.loc	1 326 9
	movq	%rdi, -32(%rbp)
Ltmp135:
	.loc	25 250 44
	movq	-104(%rbp), %rcx
	movq	-96(%rbp), %rax
	movq	%rcx, -88(%rbp)
	movq	%rax, -80(%rbp)
Ltmp136:
	.loc	25 113 34
	leaq	-88(%rbp), %rax
	movq	%rax, -24(%rbp)
Ltmp137:
	.loc	17 129 9
	movq	-88(%rbp), %rsi
Ltmp138:
	.loc	25 113 49
	leaq	-88(%rbp), %rax
	movq	%rax, -16(%rbp)
Ltmp139:
	.loc	17 140 9
	movq	-80(%rbp), %rax
	movq	%rax, -8(%rbp)
Ltmp140:
	.loc	18 97 9
	movq	%rax, -72(%rbp)
	movq	-72(%rbp), %rdx
Ltmp141:
	.loc	25 113 14
	callq	___rust_dealloc
Ltmp142:
LBB33_3:
	.loc	25 252 6
	addq	$112, %rsp
	popq	%rbp
	retq
Ltmp143:
Lfunc_end33:
	.cfi_endproc

	.p2align	4, 0x90
__ZN70_$LT$alloc..vec..Vec$LT$T$C$A$GT$$u20$as$u20$core..ops..drop..Drop$GT$4drop17h18770af7ea62e946E:
Lfunc_begin34:
	.file	26 "/rustc/2c8cc343237b8f7d5a3c3703e3a87f2eb2c54a74/library/alloc/src/vec" "mod.rs"
	.loc	26 3054 0
	.cfi_startproc
	pushq	%rbp
	.cfi_def_cfa_offset 16
	.cfi_offset %rbp, -16
	movq	%rsp, %rbp
	.cfi_def_cfa_register %rbp
	subq	$160, %rsp
	movq	%rdi, -120(%rbp)
Ltmp144:
	.loc	26 3059 62 prologue_end
	movq	%rdi, -112(%rbp)
Ltmp145:
	.loc	26 1280 19
	movq	%rdi, -104(%rbp)
Ltmp146:
	.loc	23 224 9
	movq	8(%rdi), %rcx
	movq	%rcx, -96(%rbp)
Ltmp147:
	.loc	2 104 9
	movq	%rcx, -88(%rbp)
Ltmp148:
	.loc	1 326 9
	movq	%rcx, -80(%rbp)
Ltmp149:
	.loc	26 1282 21
	movq	%rcx, -72(%rbp)
Ltmp150:
	.file	27 "/rustc/2c8cc343237b8f7d5a3c3703e3a87f2eb2c54a74/library/core/src/ptr" "mut_ptr.rs"
	.loc	27 52 36
	movq	%rcx, -160(%rbp)
	.loc	27 52 18 is_stmt 0
	movq	-160(%rbp), %rax
	movq	%rax, -64(%rbp)
Ltmp151:
	.loc	27 38 13 is_stmt 1
	movq	%rax, -56(%rbp)
Ltmp152:
	.loc	27 215 33
	movq	%rax, -48(%rbp)
	.loc	27 215 18 is_stmt 0
	movq	%rax, -40(%rbp)
Ltmp153:
	.loc	26 3059 81 is_stmt 1
	movq	16(%rdi), %rax
	movq	%rax, -32(%rbp)
Ltmp154:
	.loc	15 766 24
	movq	%rcx, -24(%rbp)
Ltmp155:
	.loc	27 60 9
	movq	%rcx, -16(%rbp)
Ltmp156:
	.loc	15 766 37
	movq	%rax, -8(%rbp)
Ltmp157:
	.file	28 "/rustc/2c8cc343237b8f7d5a3c3703e3a87f2eb2c54a74/library/core/src/ptr" "metadata.rs"
	.loc	28 135 36
	movq	%rcx, -136(%rbp)
	movq	%rax, -128(%rbp)
	.loc	28 135 14 is_stmt 0
	movq	-136(%rbp), %rcx
	movq	-128(%rbp), %rax
	movq	%rcx, -152(%rbp)
	movq	%rax, -144(%rbp)
Ltmp158:
	.loc	26 3062 6 is_stmt 1
	addq	$160, %rsp
	popq	%rbp
	retq
Ltmp159:
Lfunc_end34:
	.cfi_endproc

	.p2align	4, 0x90
__ZN70_$LT$std..ffi..os_str..OsString$u20$as$u20$core..ops..deref..Deref$GT$5deref17h4844433ce76f7cf1E:
Lfunc_begin35:
	.loc	9 514 0
	.cfi_startproc
	pushq	%rbp
	.cfi_def_cfa_offset 16
	.cfi_offset %rbp, -16
	movq	%rsp, %rbp
	.cfi_def_cfa_register %rbp
	subq	$64, %rsp
	movq	%rdi, -64(%rbp)
Ltmp160:
	.loc	9 515 10 prologue_end
	movq	%rdi, -48(%rbp)
Ltmp161:
	.loc	9 497 27
	movq	%rdi, -40(%rbp)
Ltmp162:
	.loc	10 152 34
	callq	__ZN72_$LT$alloc..vec..Vec$LT$T$C$A$GT$$u20$as$u20$core..ops..deref..Deref$GT$5deref17h8df15420ef126f95E
	.loc	10 152 18 is_stmt 0
	movq	%rax, -32(%rbp)
	movq	%rdx, -24(%rbp)
	movq	-32(%rbp), %rax
	movq	-24(%rbp), %rdx
Ltmp163:
	.loc	9 497 27 is_stmt 1
	movq	%rax, -16(%rbp)
	movq	%rdx, -8(%rbp)
Ltmp164:
	.loc	9 516 6
	addq	$64, %rsp
	popq	%rbp
	retq
Ltmp165:
Lfunc_end35:
	.cfi_endproc

	.p2align	4, 0x90
__ZN72_$LT$alloc..vec..Vec$LT$T$C$A$GT$$u20$as$u20$core..ops..deref..Deref$GT$5deref17h8df15420ef126f95E:
Lfunc_begin36:
	.loc	26 2636 0
	.cfi_startproc
	pushq	%rbp
	.cfi_def_cfa_offset 16
	.cfi_offset %rbp, -16
	movq	%rsp, %rbp
	.cfi_def_cfa_register %rbp
	subq	$184, %rsp
	movq	%rdi, -144(%rbp)
Ltmp166:
	.loc	26 2637 40 prologue_end
	movq	%rdi, -136(%rbp)
Ltmp167:
	.loc	26 1243 19
	movq	%rdi, -128(%rbp)
Ltmp168:
	.loc	23 224 9
	movq	8(%rdi), %rcx
	movq	%rcx, -120(%rbp)
Ltmp169:
	.loc	2 104 9
	movq	%rcx, -112(%rbp)
Ltmp170:
	.loc	1 326 9
	movq	%rcx, -104(%rbp)
Ltmp171:
	.loc	26 1245 21
	movq	%rcx, -96(%rbp)
Ltmp172:
	.loc	27 52 36
	movq	%rcx, -184(%rbp)
	.loc	27 52 18 is_stmt 0
	movq	-184(%rbp), %rax
	movq	%rax, -88(%rbp)
Ltmp173:
	.loc	27 38 13 is_stmt 1
	movq	%rax, -80(%rbp)
Ltmp174:
	.loc	27 215 33
	movq	%rax, -72(%rbp)
	.loc	27 215 18 is_stmt 0
	movq	%rax, -64(%rbp)
Ltmp175:
	.loc	26 1247 9 is_stmt 1
	movq	%rcx, -56(%rbp)
Ltmp176:
	.loc	26 2637 55
	movq	16(%rdi), %rax
	movq	%rax, -48(%rbp)
Ltmp177:
	.file	29 "/rustc/2c8cc343237b8f7d5a3c3703e3a87f2eb2c54a74/library/core/src/slice" "raw.rs"
	.loc	29 100 37
	movq	%rcx, -40(%rbp)
	.loc	29 100 43 is_stmt 0
	movq	%rax, -32(%rbp)
Ltmp178:
	.loc	15 734 20 is_stmt 1
	movq	%rcx, -24(%rbp)
Ltmp179:
	.file	30 "/rustc/2c8cc343237b8f7d5a3c3703e3a87f2eb2c54a74/library/core/src/ptr" "const_ptr.rs"
	.loc	30 61 9
	movq	%rcx, -16(%rbp)
Ltmp180:
	.loc	15 734 33
	movq	%rax, -8(%rbp)
Ltmp181:
	.loc	28 118 36
	movq	%rcx, -160(%rbp)
	movq	%rax, -152(%rbp)
	.loc	28 118 14 is_stmt 0
	movq	-160(%rbp), %rcx
	movq	-152(%rbp), %rax
	movq	%rcx, -176(%rbp)
	movq	%rax, -168(%rbp)
	movq	-176(%rbp), %rax
	movq	-168(%rbp), %rdx
Ltmp182:
	.loc	26 2638 6 is_stmt 1
	addq	$184, %rsp
	popq	%rbp
	retq
Ltmp183:
Lfunc_end36:
	.cfi_endproc

	.p2align	4, 0x90
__ZN73_$LT$$u5b$A$u5d$$u20$as$u20$core..slice..cmp..SlicePartialEq$LT$B$GT$$GT$5equal17h888a690808f30429E:
Lfunc_begin37:
	.loc	19 82 0
	.cfi_startproc
	pushq	%rbp
	.cfi_def_cfa_offset 16
	.cfi_offset %rbp, -16
	movq	%rsp, %rbp
	.cfi_def_cfa_register %rbp
	subq	$144, %rsp
	movq	%rdi, -136(%rbp)
	movq	%rsi, -128(%rbp)
	movq	%rdx, -120(%rbp)
	movq	%rcx, -112(%rbp)
	movq	%rdi, -96(%rbp)
	movq	%rsi, -88(%rbp)
	movq	%rdx, -80(%rbp)
	movq	%rcx, -72(%rbp)
Ltmp184:
	.loc	19 83 12 prologue_end
	cmpq	%rcx, %rsi
	jne	LBB37_2
	.loc	19 0 12 is_stmt 0
	movq	-120(%rbp), %rsi
	movq	-136(%rbp), %rdi
	movq	-112(%rbp), %rax
	movq	-128(%rbp), %rcx
	.loc	19 90 41 is_stmt 1
	movq	%rdi, -64(%rbp)
	movq	%rcx, -56(%rbp)
Ltmp185:
	.loc	24 338 14
	movq	%rcx, %rdx
	shlq	$0, %rdx
	movq	%rdx, -48(%rbp)
	movq	-48(%rbp), %rdx
	movq	%rdx, -40(%rbp)
Ltmp186:
	.loc	19 91 20
	movq	%rdi, -32(%rbp)
	movq	%rcx, -24(%rbp)
	.loc	19 91 48 is_stmt 0
	movq	%rsi, -16(%rbp)
	movq	%rax, -8(%rbp)
	.loc	19 91 13
	callq	_memcmp
	cmpl	$0, %eax
	sete	%al
	andb	$1, %al
	movb	%al, -97(%rbp)
Ltmp187:
	.loc	19 93 6 is_stmt 1
	jmp	LBB37_3
LBB37_2:
	.loc	19 84 20
	movb	$0, -97(%rbp)
LBB37_3:
	.loc	19 93 6
	movb	-97(%rbp), %al
	andb	$1, %al
	movzbl	%al, %eax
	addq	$144, %rsp
	popq	%rbp
	retq
Ltmp188:
Lfunc_end37:
	.cfi_endproc

	.p2align	4, 0x90
__ZN77_$LT$alloc..raw_vec..RawVec$LT$T$C$A$GT$$u20$as$u20$core..ops..drop..Drop$GT$4drop17h92b3bd13cff83bf2E:
Lfunc_begin38:
	.loc	23 477 0
	.cfi_startproc
	pushq	%rbp
	.cfi_def_cfa_offset 16
	.cfi_offset %rbp, -16
	movq	%rsp, %rbp
	.cfi_def_cfa_register %rbp
	subq	$64, %rsp
	movq	%rdi, %rsi
	movq	%rsi, -64(%rbp)
	movq	%rsi, -32(%rbp)
Ltmp189:
	.loc	23 478 38 prologue_end
	leaq	-56(%rbp), %rdi
	callq	__ZN5alloc7raw_vec19RawVec$LT$T$C$A$GT$14current_memory17h5e85eabe95353485E
	.loc	23 478 16 is_stmt 0
	movl	$1, %eax
	xorl	%ecx, %ecx
	cmpq	$0, -40(%rbp)
	cmoveq	%rcx, %rax
	cmpq	$1, %rax
	jne	LBB38_2
	.loc	23 0 16
	movq	-64(%rbp), %rdi
	.loc	23 478 22
	movq	-56(%rbp), %rsi
	movq	%rsi, -24(%rbp)
	.loc	23 478 27
	movq	-48(%rbp), %rdx
	movq	-40(%rbp), %rcx
	movq	%rdx, -16(%rbp)
	movq	%rcx, -8(%rbp)
	.loc	23 479 22 is_stmt 1
	callq	__ZN63_$LT$alloc..alloc..Global$u20$as$u20$core..alloc..Allocator$GT$10deallocate17hc6cb6877c70c1939E
Ltmp190:
LBB38_2:
	.loc	23 481 6
	addq	$64, %rsp
	popq	%rbp
	retq
Ltmp191:
Lfunc_end38:
	.cfi_endproc

	.p2align	4, 0x90
__ZN18build_script_build4main17h2984da0fe7265ad4E:
Lfunc_begin39:
	.file	31 "/Users/natalie/.cargo/registry/src/github.com-1ecc6299db9ec823/rug-1.19.0" "build.rs"
	.loc	31 17 0
	.cfi_startproc
	.cfi_personality 155, _rust_eh_personality
	.cfi_lsda 16, Lexception4
	pushq	%rbp
	.cfi_def_cfa_offset 16
	.cfi_offset %rbp, -16
	movq	%rsp, %rbp
	.cfi_def_cfa_register %rbp
	subq	$368, %rsp
Ltmp223:
	.loc	31 18 8 prologue_end
	leaq	l___unnamed_7(%rip), %rsi
	leaq	-240(%rbp), %rdi
	movq	%rdi, -256(%rbp)
	movl	$26, %edx
	callq	__ZN3std3env6var_os17h85b6f630d07ac33cE
	movq	-256(%rbp), %rdi
Ltmp192:
	callq	__ZN4core6option15Option$LT$T$GT$7is_some17hb804a8c295f05a80E
Ltmp193:
	movb	%al, -241(%rbp)
	jmp	LBB39_3
LBB39_1:
Ltmp195:
	.loc	31 0 8 is_stmt 0
	leaq	-240(%rbp), %rdi
	.loc	31 18 58
	callq	__ZN4core3ptr75drop_in_place$LT$core..option..Option$LT$std..ffi..os_str..OsString$GT$$GT$17ha5447f8d20efe46aE
Ltmp196:
	jmp	LBB39_5
LBB39_2:
Ltmp194:
	.loc	31 0 58
	movq	%rax, %rcx
	movl	%edx, %eax
	movq	%rcx, -16(%rbp)
	movl	%eax, -8(%rbp)
	jmp	LBB39_1
LBB39_3:
	.loc	31 18 58
	leaq	-240(%rbp), %rdi
	callq	__ZN4core3ptr75drop_in_place$LT$core..option..Option$LT$std..ffi..os_str..OsString$GT$$GT$17ha5447f8d20efe46aE
	movb	-241(%rbp), %al
	.loc	31 18 8
	testb	$1, %al
	jne	LBB39_7
	jmp	LBB39_6
LBB39_4:
Ltmp222:
	.loc	31 17 1 is_stmt 1
	callq	__ZN4core9panicking19panic_cannot_unwind17h1fbca7e1d7f56ae1E
LBB39_5:
	movq	-16(%rbp), %rdi
	callq	__Unwind_Resume
LBB39_6:
	.loc	31 29 2
	addq	$368, %rsp
	popq	%rbp
	retq
LBB39_7:
	.loc	31 20 13
	leaq	l___unnamed_8(%rip), %rsi
	leaq	-192(%rbp), %rdi
	movq	%rdi, -288(%rbp)
	movl	$17, %edx
	callq	__ZN3std3env6var_os17h85b6f630d07ac33cE
	movq	-288(%rbp), %rsi
	leaq	l___unnamed_9(%rip), %rdx
	leaq	l___unnamed_10(%rip), %r8
	leaq	-216(%rbp), %rdi
	movq	%rdi, -280(%rbp)
	movl	$41, %ecx
	callq	__ZN4core6option15Option$LT$T$GT$6expect17hecb7cc2cab49d180E
	movq	-280(%rbp), %rdi
Ltmp197:
Ltmp224:
	.loc	31 21 20
	callq	__ZN70_$LT$std..ffi..os_str..OsString$u20$as$u20$core..ops..deref..Deref$GT$5deref17h4844433ce76f7cf1E
Ltmp198:
	movq	%rdx, -272(%rbp)
	movq	%rax, -264(%rbp)
	jmp	LBB39_10
Ltmp225:
LBB39_8:
Ltmp220:
	.loc	31 0 20 is_stmt 0
	leaq	-216(%rbp), %rdi
	.loc	31 28 5 is_stmt 1
	callq	__ZN4core3ptr47drop_in_place$LT$std..ffi..os_str..OsString$GT$17h159f00f30a0a38b7E
Ltmp221:
	jmp	LBB39_5
LBB39_9:
Ltmp219:
	.loc	31 0 5 is_stmt 0
	movq	%rax, %rcx
	movl	%edx, %eax
	movq	%rcx, -16(%rbp)
	movl	%eax, -8(%rbp)
	jmp	LBB39_8
LBB39_10:
Ltmp199:
	movq	-272(%rbp), %rsi
	movq	-264(%rbp), %rdi
Ltmp226:
	.loc	31 21 20 is_stmt 1
	callq	__ZN3std3ffi6os_str5OsStr6to_str17h3dac262c204869b1E
Ltmp200:
	movq	%rdx, -304(%rbp)
	movq	%rax, -296(%rbp)
	jmp	LBB39_11
LBB39_11:
Ltmp201:
	.loc	31 0 20 is_stmt 0
	movq	-304(%rbp), %rsi
	movq	-296(%rbp), %rdi
	.loc	31 21 20
	leaq	l___unnamed_11(%rip), %rdx
	leaq	l___unnamed_12(%rip), %r8
	movl	$48, %ecx
	callq	__ZN4core6option15Option$LT$T$GT$6expect17h335dbdb46db97c05E
Ltmp202:
	movq	%rdx, -320(%rbp)
	movq	%rax, -312(%rbp)
	jmp	LBB39_12
LBB39_12:
	.loc	31 0 20
	movq	-320(%rbp), %rax
	movq	-312(%rbp), %rcx
	.loc	31 21 20
	movq	%rcx, -168(%rbp)
	movq	%rax, -160(%rbp)
Ltmp203:
Ltmp227:
	.loc	31 24 12 is_stmt 1
	leaq	l___unnamed_13(%rip), %rsi
	leaq	-168(%rbp), %rdi
	callq	__ZN4core3cmp5impls69_$LT$impl$u20$core..cmp..PartialEq$LT$$RF$B$GT$$u20$for$u20$$RF$A$GT$2ne17hdc5ffd3fe90dbff1E
Ltmp204:
	movb	%al, -321(%rbp)
	jmp	LBB39_13
LBB39_13:
	.loc	31 0 12 is_stmt 0
	movb	-321(%rbp), %al
	.loc	31 24 12
	testb	$1, %al
	jne	LBB39_15
	jmp	LBB39_14
LBB39_14:
	movb	$0, -145(%rbp)
	jmp	LBB39_17
LBB39_15:
Ltmp205:
	.loc	31 24 28
	leaq	l___unnamed_14(%rip), %rsi
	leaq	-168(%rbp), %rdi
	callq	__ZN4core3cmp5impls69_$LT$impl$u20$core..cmp..PartialEq$LT$$RF$B$GT$$u20$for$u20$$RF$A$GT$2ne17hdc5ffd3fe90dbff1E
Ltmp206:
	movb	%al, -322(%rbp)
	jmp	LBB39_16
LBB39_16:
	.loc	31 0 28
	movb	-322(%rbp), %al
	.loc	31 24 12
	andb	$1, %al
	movb	%al, -145(%rbp)
LBB39_17:
	testb	$1, -145(%rbp)
	jne	LBB39_19
Ltmp207:
	.loc	31 0 12
	leaq	-168(%rbp), %rdi
	.loc	31 27 9 is_stmt 1
	callq	__ZN4core3fmt10ArgumentV111new_display17h123e0c43f48f8d12E
Ltmp208:
	movq	%rdx, -344(%rbp)
	movq	%rax, -336(%rbp)
	jmp	LBB39_23
LBB39_19:
Ltmp213:
	.loc	31 0 9 is_stmt 0
	leaq	-168(%rbp), %rdi
	.loc	31 25 13 is_stmt 1
	callq	__ZN4core3fmt10ArgumentV111new_display17h123e0c43f48f8d12E
Ltmp214:
	movq	%rdx, -360(%rbp)
	movq	%rax, -352(%rbp)
	jmp	LBB39_20
LBB39_20:
	.loc	31 0 13 is_stmt 0
	movq	-360(%rbp), %rax
	movq	-352(%rbp), %rcx
	.loc	31 25 13
	movq	%rcx, -96(%rbp)
	movq	%rax, -88(%rbp)
Ltmp215:
	leaq	l___unnamed_15(%rip), %rsi
	leaq	-144(%rbp), %rdi
	movl	$2, %edx
	leaq	-96(%rbp), %rcx
	movl	$1, %r8d
	callq	__ZN4core3fmt9Arguments6new_v117hcffcfc15a2fa3793E
Ltmp216:
	jmp	LBB39_21
LBB39_21:
Ltmp217:
	leaq	l___unnamed_16(%rip), %rsi
	leaq	-144(%rbp), %rdi
	callq	__ZN4core9panicking9panic_fmt17h9b5d807e24bcaaedE
Ltmp218:
	jmp	LBB39_22
LBB39_22:
	.loc	31 0 13
	ud2
LBB39_23:
	movq	-344(%rbp), %rax
	movq	-336(%rbp), %rcx
	.loc	31 27 9 is_stmt 1
	movq	%rcx, -32(%rbp)
	movq	%rax, -24(%rbp)
Ltmp209:
	leaq	l___unnamed_17(%rip), %rsi
	leaq	-80(%rbp), %rdi
	movl	$2, %edx
	leaq	-32(%rbp), %rcx
	movl	$1, %r8d
	callq	__ZN4core3fmt9Arguments6new_v117hcffcfc15a2fa3793E
Ltmp210:
	jmp	LBB39_24
LBB39_24:
Ltmp211:
	.loc	31 0 9 is_stmt 0
	leaq	-80(%rbp), %rdi
	.loc	31 27 9
	callq	__ZN3std2io5stdio6_print17ha0d536e53b83a5ccE
Ltmp212:
	jmp	LBB39_25
Ltmp228:
LBB39_25:
	.loc	31 28 5 is_stmt 1
	leaq	-216(%rbp), %rdi
	callq	__ZN4core3ptr47drop_in_place$LT$std..ffi..os_str..OsString$GT$17h159f00f30a0a38b7E
	jmp	LBB39_6
Ltmp229:
Lfunc_end39:
	.cfi_endproc
	.section	__TEXT,__gcc_except_tab
	.p2align	2
GCC_except_table39:
Lexception4:
	.byte	255
	.byte	255
	.byte	1
	.uleb128 Lcst_end4-Lcst_begin4
Lcst_begin4:
	.uleb128 Lfunc_begin39-Lfunc_begin39
	.uleb128 Ltmp192-Lfunc_begin39
	.byte	0
	.byte	0
	.uleb128 Ltmp192-Lfunc_begin39
	.uleb128 Ltmp193-Ltmp192
	.uleb128 Ltmp194-Lfunc_begin39
	.byte	0
	.uleb128 Ltmp195-Lfunc_begin39
	.uleb128 Ltmp196-Ltmp195
	.uleb128 Ltmp222-Lfunc_begin39
	.byte	0
	.uleb128 Ltmp196-Lfunc_begin39
	.uleb128 Ltmp197-Ltmp196
	.byte	0
	.byte	0
	.uleb128 Ltmp197-Lfunc_begin39
	.uleb128 Ltmp198-Ltmp197
	.uleb128 Ltmp219-Lfunc_begin39
	.byte	0
	.uleb128 Ltmp220-Lfunc_begin39
	.uleb128 Ltmp221-Ltmp220
	.uleb128 Ltmp222-Lfunc_begin39
	.byte	0
	.uleb128 Ltmp199-Lfunc_begin39
	.uleb128 Ltmp212-Ltmp199
	.uleb128 Ltmp219-Lfunc_begin39
	.byte	0
	.uleb128 Ltmp212-Lfunc_begin39
	.uleb128 Lfunc_end39-Ltmp212
	.byte	0
	.byte	0
Lcst_end4:
	.p2align	2

	.section	__TEXT,__text,regular,pure_instructions
	.globl	_main
	.p2align	4, 0x90
_main:
Lfunc_begin40:
	.cfi_startproc
	pushq	%rbp
	.cfi_def_cfa_offset 16
	.cfi_offset %rbp, -16
	movq	%rsp, %rbp
	.cfi_def_cfa_register %rbp
	movq	%rsi, %rdx
	movslq	%edi, %rsi
	leaq	__ZN18build_script_build4main17h2984da0fe7265ad4E(%rip), %rdi
	xorl	%ecx, %ecx
	callq	__ZN3std2rt10lang_start17hd43cd3c128aad4ceE
	popq	%rbp
	retq
Lfunc_end40:
	.cfi_endproc

	.section	__DATA,__const
	.p2align	3
l___unnamed_1:
	.quad	__ZN4core3ptr85drop_in_place$LT$std..rt..lang_start$LT$$LP$$RP$$GT$..$u7b$$u7b$closure$u7d$$u7d$$GT$17h43b3b6840806043bE
	.asciz	"\b\000\000\000\000\000\000\000\b\000\000\000\000\000\000"
	.quad	__ZN4core3ops8function6FnOnce40call_once$u7b$$u7b$vtable.shim$u7d$$u7d$17hcdbebd8a5a14bc4dE
	.quad	__ZN3std2rt10lang_start28_$u7b$$u7b$closure$u7d$$u7d$17h6d07708603db9ab4E
	.quad	__ZN3std2rt10lang_start28_$u7b$$u7b$closure$u7d$$u7d$17h6d07708603db9ab4E

	.section	__TEXT,__const
l___unnamed_18:
	.ascii	"invalid args"

	.section	__DATA,__const
	.p2align	3
l___unnamed_2:
	.quad	l___unnamed_18
	.asciz	"\f\000\000\000\000\000\000"

	.section	__TEXT,__const
	.p2align	3
l___unnamed_3:
	.byte	0

l___unnamed_19:
	.ascii	"/rustc/2c8cc343237b8f7d5a3c3703e3a87f2eb2c54a74/library/core/src/fmt/mod.rs"

	.section	__DATA,__const
	.p2align	3
l___unnamed_4:
	.quad	l___unnamed_19
	.asciz	"K\000\000\000\000\000\000\000\221\001\000\000\r\000\000"

	.section	__TEXT,__const
l___unnamed_20:
	.ascii	"/rustc/2c8cc343237b8f7d5a3c3703e3a87f2eb2c54a74/library/core/src/alloc/layout.rs"

	.section	__DATA,__const
	.p2align	3
l___unnamed_5:
	.quad	l___unnamed_20
	.asciz	"P\000\000\000\000\000\000\000\304\001\000\000)\000\000"

	.section	__TEXT,__const
	.p2align	4
_str.0:
	.ascii	"attempt to divide by zero"

l___unnamed_21:
	.ascii	"/rustc/2c8cc343237b8f7d5a3c3703e3a87f2eb2c54a74/library/alloc/src/raw_vec.rs"

	.section	__DATA,__const
	.p2align	3
l___unnamed_6:
	.quad	l___unnamed_21
	.asciz	"L\000\000\000\000\000\000\000\367\000\000\000;\000\000"

	.section	__TEXT,__const
l___unnamed_7:
	.ascii	"CARGO_FEATURE_GMP_MPFR_SYS"

l___unnamed_8:
	.ascii	"DEP_GMP_LIMB_BITS"

l___unnamed_9:
	.ascii	"DEP_GMP_LIMB_BITS not set by gmp-mfpr-sys"

l___unnamed_22:
	.ascii	"/Users/natalie/.cargo/registry/src/github.com-1ecc6299db9ec823/rug-1.19.0/build.rs"

	.section	__DATA,__const
	.p2align	3
l___unnamed_10:
	.quad	l___unnamed_22
	.asciz	"R\000\000\000\000\000\000\000\024\000\000\000.\000\000"

	.section	__TEXT,__const
l___unnamed_11:
	.ascii	"DEP_GMP_LIMB_BITS contains unexpected characters"

	.section	__DATA,__const
	.p2align	3
l___unnamed_12:
	.quad	l___unnamed_22
	.asciz	"R\000\000\000\000\000\000\000\027\000\000\000\016\000\000"

	.section	__TEXT,__const
l___unnamed_23:
	.ascii	"32"

	.section	__DATA,__const
	.p2align	3
l___unnamed_13:
	.quad	l___unnamed_23
	.asciz	"\002\000\000\000\000\000\000"

	.section	__TEXT,__const
l___unnamed_24:
	.ascii	"64"

	.section	__DATA,__const
	.p2align	3
l___unnamed_14:
	.quad	l___unnamed_24
	.asciz	"\002\000\000\000\000\000\000"

	.section	__TEXT,__const
l___unnamed_25:
	.ascii	"Limb bits not 32 or 64: \""

l___unnamed_26:
	.byte	34

	.section	__DATA,__const
	.p2align	3
l___unnamed_15:
	.quad	l___unnamed_25
	.asciz	"\031\000\000\000\000\000\000"
	.quad	l___unnamed_26
	.asciz	"\001\000\000\000\000\000\000"

	.p2align	3
l___unnamed_16:
	.quad	l___unnamed_22
	.asciz	"R\000\000\000\000\000\000\000\031\000\000\000\r\000\000"

	.section	__TEXT,__const
l___unnamed_27:
	.ascii	"cargo:rustc-cfg=gmp_limb_bits_"

l___unnamed_28:
	.byte	10

	.section	__DATA,__const
	.p2align	3
l___unnamed_17:
	.quad	l___unnamed_27
	.asciz	"\036\000\000\000\000\000\000"
	.quad	l___unnamed_28
	.asciz	"\001\000\000\000\000\000\000"

	.section	__DATA,__const
Lsec_end0:
	.section	__TEXT,__text,regular,pure_instructions
Lsec_end1: