	.section	__TEXT,__text,regular,pure_instructions
	.macosx_version_min 10, 7
	.p2align	4, 0x90
__ZN102_$LT$core..iter..adapters..zip..Zip$LT$A$C$B$GT$$u20$as$u20$core..iter..traits..iterator..Iterator$GT$4next17h8f95ff8215c8d0cbE:
Lfunc_begin0:
	.file	1 "/rustc/2c8cc343237b8f7d5a3c3703e3a87f2eb2c54a74/library/core/src/iter/adapters" "zip.rs"
	.loc	1 83 0
	.cfi_startproc
	pushq	%rbp
	.cfi_def_cfa_offset 16
	.cfi_offset %rbp, -16
	movq	%rsp, %rbp
	.cfi_def_cfa_register %rbp
	subq	$16, %rsp
	movq	%rdi, -8(%rbp)
Ltmp0:
	.loc	1 84 9 prologue_end
	callq	__ZN111_$LT$core..iter..adapters..zip..Zip$LT$A$C$B$GT$$u20$as$u20$core..iter..adapters..zip..ZipImpl$LT$A$C$B$GT$$GT$4next17h32cb0de8e0a6587eE
	.loc	1 85 6
	addq	$16, %rsp
	popq	%rbp
	retq
Ltmp1:
Lfunc_end0:
	.cfi_endproc

	.p2align	4, 0x90
__ZN3std10sys_common9backtrace28__rust_begin_short_backtrace17h28d0a19ef5224e83E:
Lfunc_begin1:
	.file	2 "/rustc/2c8cc343237b8f7d5a3c3703e3a87f2eb2c54a74/library/std/src/sys_common" "backtrace.rs"
	.loc	2 117 0
	.cfi_startproc
	pushq	%rbp
	.cfi_def_cfa_offset 16
	.cfi_offset %rbp, -16
	movq	%rsp, %rbp
	.cfi_def_cfa_register %rbp
	subq	$48, %rsp
	movq	%rdi, -32(%rbp)
Ltmp2:
	.loc	2 121 18 prologue_end
	callq	__ZN4core3ops8function6FnOnce9call_once17h7f4b26a0dcf9f73fE
Ltmp3:
	.file	3 "/rustc/2c8cc343237b8f7d5a3c3703e3a87f2eb2c54a74/library/core/src" "hint.rs"
	.loc	3 295 5
	## InlineAsm Start
	## InlineAsm End
Ltmp4:
	.loc	2 127 2
	addq	$48, %rsp
	popq	%rbp
	retq
Ltmp5:
Lfunc_end1:
	.cfi_endproc

	.private_extern	__ZN3std2rt10lang_start17h55320c980cb0c863E
	.globl	__ZN3std2rt10lang_start17h55320c980cb0c863E
	.p2align	4, 0x90
__ZN3std2rt10lang_start17h55320c980cb0c863E:
Lfunc_begin2:
	.file	4 "/rustc/2c8cc343237b8f7d5a3c3703e3a87f2eb2c54a74/library/std/src" "rt.rs"
	.loc	4 159 0
	.cfi_startproc
	pushq	%rbp
	.cfi_def_cfa_offset 16
	.cfi_offset %rbp, -16
	movq	%rsp, %rbp
	.cfi_def_cfa_register %rbp
	subq	$64, %rsp
	movl	%ecx, %eax
	movq	%rdx, %rcx
	movq	%rsi, %rdx
	movq	%rdi, -40(%rbp)
	movq	%rdx, -32(%rbp)
	movq	%rcx, -24(%rbp)
	movb	%al, -9(%rbp)
Ltmp6:
	.loc	4 166 10 prologue_end
	movq	%rdi, -48(%rbp)
	.loc	4 165 17
	leaq	-48(%rbp), %rdi
	leaq	l___unnamed_1(%rip), %rsi
	movzbl	%al, %r8d
	callq	__ZN3std2rt19lang_start_internal17h72dc55d09e0a2397E
	movq	%rax, -56(%rbp)
	.loc	4 165 12 is_stmt 0
	movq	-56(%rbp), %rax
	movq	%rax, -8(%rbp)
	.loc	4 172 2 is_stmt 1
	addq	$64, %rsp
	popq	%rbp
	retq
Ltmp7:
Lfunc_end2:
	.cfi_endproc

	.p2align	4, 0x90
__ZN3std2rt10lang_start28_$u7b$$u7b$closure$u7d$$u7d$17h038ee18c361fd367E:
Lfunc_begin3:
	.loc	4 166 0
	.cfi_startproc
	pushq	%rbp
	.cfi_def_cfa_offset 16
	.cfi_offset %rbp, -16
	movq	%rsp, %rbp
	.cfi_def_cfa_register %rbp
	subq	$32, %rsp
	movq	%rdi, -16(%rbp)
Ltmp8:
	.loc	4 166 77 prologue_end
	movq	(%rdi), %rdi
	.loc	4 166 18 is_stmt 0
	callq	__ZN3std10sys_common9backtrace28__rust_begin_short_backtrace17h28d0a19ef5224e83E
	callq	__ZN54_$LT$$LP$$RP$$u20$as$u20$std..process..Termination$GT$6report17h6fa2b135e7139c93E
	movb	%al, -17(%rbp)
Ltmp9:
	.file	5 "/rustc/2c8cc343237b8f7d5a3c3703e3a87f2eb2c54a74/library/std/src" "process.rs"
	.loc	5 1820 9 is_stmt 1
	leaq	-17(%rbp), %rax
	movq	%rax, -8(%rbp)
Ltmp10:
	.file	6 "/rustc/2c8cc343237b8f7d5a3c3703e3a87f2eb2c54a74/library/std/src/sys/unix/process" "process_common.rs"
	.loc	6 594 9
	movzbl	-17(%rbp), %eax
Ltmp11:
	.loc	4 166 100
	addq	$32, %rsp
	popq	%rbp
	retq
Ltmp12:
Lfunc_end3:
	.cfi_endproc

	.p2align	4, 0x90
__ZN4core3fmt9Arguments6new_v117h9907487dd57d23eaE:
Lfunc_begin4:
	.file	7 "/rustc/2c8cc343237b8f7d5a3c3703e3a87f2eb2c54a74/library/core/src/fmt" "mod.rs"
	.loc	7 399 0
	.cfi_startproc
	pushq	%rbp
	.cfi_def_cfa_offset 16
	.cfi_offset %rbp, -16
	movq	%rsp, %rbp
	.cfi_def_cfa_register %rbp
	subq	$160, %rsp
	movq	%r8, -152(%rbp)
	movq	%rcx, -144(%rbp)
	movq	%rdx, -136(%rbp)
	movq	%rsi, -128(%rbp)
	movq	%rdi, -120(%rbp)
	movq	%rdi, -112(%rbp)
	movq	%rsi, -32(%rbp)
	movq	%rdx, -24(%rbp)
	movq	%rcx, -16(%rbp)
	movq	%r8, -8(%rbp)
Ltmp13:
	.loc	7 400 12 prologue_end
	cmpq	%r8, %rdx
	jb	LBB4_2
	.loc	7 0 12 is_stmt 0
	movq	-136(%rbp), %rax
	movq	-152(%rbp), %rcx
	.loc	7 400 56
	addq	$1, %rcx
	.loc	7 400 41
	cmpq	%rcx, %rax
	seta	%al
	.loc	7 400 12
	andb	$1, %al
	movb	%al, -97(%rbp)
	jmp	LBB4_3
LBB4_2:
	movb	$1, -97(%rbp)
LBB4_3:
	testb	$1, -97(%rbp)
	jne	LBB4_5
	.loc	7 0 12
	movq	-112(%rbp), %rax
	movq	-120(%rbp), %rcx
	movq	-152(%rbp), %rdx
	movq	-144(%rbp), %rsi
	movq	-136(%rbp), %rdi
	movq	-128(%rbp), %r8
	.loc	7 403 34 is_stmt 1
	movq	$0, -48(%rbp)
	.loc	7 403 9 is_stmt 0
	movq	%r8, 16(%rcx)
	movq	%rdi, 24(%rcx)
	movq	-48(%rbp), %r8
	movq	-40(%rbp), %rdi
	movq	%r8, (%rcx)
	movq	%rdi, 8(%rcx)
	movq	%rsi, 32(%rcx)
	movq	%rdx, 40(%rcx)
	.loc	7 404 6 is_stmt 1
	addq	$160, %rsp
	popq	%rbp
	retq
LBB4_5:
	.loc	7 401 13
	leaq	l___unnamed_3(%rip), %rsi
	leaq	l___unnamed_4(%rip), %rcx
	xorl	%eax, %eax
	movl	%eax, %r8d
	leaq	-96(%rbp), %rdi
	movq	%rdi, -160(%rbp)
	movl	$1, %edx
	callq	__ZN4core3fmt9Arguments6new_v117h9907487dd57d23eaE
	movq	-160(%rbp), %rdi
	leaq	l___unnamed_5(%rip), %rsi
	callq	__ZN4core9panicking9panic_fmt17h9b5d807e24bcaaedE
Ltmp14:
Lfunc_end4:
	.cfi_endproc

	.p2align	4, 0x90
__ZN4core3num20_$LT$impl$u20$u8$GT$20eq_ignore_ascii_case17h1994fe1e932d9fffE:
Lfunc_begin5:
	.file	8 "/rustc/2c8cc343237b8f7d5a3c3703e3a87f2eb2c54a74/library/core/src/num" "mod.rs"
	.loc	8 399 0
	.cfi_startproc
	pushq	%rbp
	.cfi_def_cfa_offset 16
	.cfi_offset %rbp, -16
	movq	%rsp, %rbp
	.cfi_def_cfa_register %rbp
	subq	$80, %rsp
	movq	%rdi, -72(%rbp)
	movq	%rsi, -64(%rbp)
	movq	%rdi, -48(%rbp)
	movq	%rsi, -40(%rbp)
Ltmp15:
	.loc	8 400 9 prologue_end
	movq	%rdi, -32(%rbp)
Ltmp16:
	.loc	8 375 9
	movb	(%rdi), %al
	movb	%al, -51(%rbp)
	.loc	8 375 18 is_stmt 0
	movq	%rdi, -24(%rbp)
Ltmp17:
	.loc	8 520 25 is_stmt 1
	movb	$65, %al
	cmpb	(%rdi), %al
	jbe	LBB5_2
LBB5_1:
	.file	9 "/rustc/2c8cc343237b8f7d5a3c3703e3a87f2eb2c54a74/library/core/src/macros" "mod.rs"
	.loc	9 346 18
	movb	$0, -50(%rbp)
	jmp	LBB5_4
LBB5_2:
	.loc	9 0 18 is_stmt 0
	movq	-72(%rbp), %rax
	.loc	8 520 25 is_stmt 1
	cmpb	$90, (%rax)
	ja	LBB5_1
	.loc	9 345 48
	movb	$1, -50(%rbp)
Ltmp18:
LBB5_4:
	.loc	9 0 48 is_stmt 0
	movq	-64(%rbp), %rcx
	movb	-51(%rbp), %al
	.loc	8 375 18 is_stmt 1
	movb	-50(%rbp), %dl
	andb	$1, %dl
	.loc	8 375 17 is_stmt 0
	shlb	$5, %dl
	.loc	8 375 9
	orb	%dl, %al
	movb	%al, -74(%rbp)
Ltmp19:
	.loc	8 400 38 is_stmt 1
	movq	%rcx, -16(%rbp)
Ltmp20:
	.loc	8 375 9
	movb	(%rcx), %al
	movb	%al, -73(%rbp)
	.loc	8 375 18 is_stmt 0
	movq	%rcx, -8(%rbp)
Ltmp21:
	.loc	8 520 25 is_stmt 1
	movb	$65, %al
	cmpb	(%rcx), %al
	jbe	LBB5_6
LBB5_5:
	.loc	9 346 18
	movb	$0, -49(%rbp)
	jmp	LBB5_8
LBB5_6:
	.loc	9 0 18 is_stmt 0
	movq	-64(%rbp), %rax
	.loc	8 520 25 is_stmt 1
	cmpb	$90, (%rax)
	ja	LBB5_5
	.loc	9 345 48
	movb	$1, -49(%rbp)
Ltmp22:
LBB5_8:
	.loc	9 0 48 is_stmt 0
	movb	-74(%rbp), %al
	movb	-73(%rbp), %cl
	.loc	8 375 18 is_stmt 1
	movb	-49(%rbp), %dl
	andb	$1, %dl
	.loc	8 375 17 is_stmt 0
	shlb	$5, %dl
	.loc	8 375 9
	orb	%dl, %cl
Ltmp23:
	.loc	8 400 9 is_stmt 1
	cmpb	%cl, %al
	sete	%al
	.loc	8 401 6
	andb	$1, %al
	movzbl	%al, %eax
	addq	$80, %rsp
	popq	%rbp
	retq
Ltmp24:
Lfunc_end5:
	.cfi_endproc

	.p2align	4, 0x90
__ZN4core3ops8function6FnOnce40call_once$u7b$$u7b$vtable.shim$u7d$$u7d$17h7b600dd1161541a4E:
Lfunc_begin6:
	.file	10 "/rustc/2c8cc343237b8f7d5a3c3703e3a87f2eb2c54a74/library/core/src/ops" "function.rs"
	.loc	10 250 0
	.cfi_startproc
	pushq	%rbp
	.cfi_def_cfa_offset 16
	.cfi_offset %rbp, -16
	movq	%rsp, %rbp
	.cfi_def_cfa_register %rbp
	subq	$16, %rsp
	movq	%rdi, -8(%rbp)
Ltmp25:
	.loc	10 250 5 prologue_end
	movq	(%rdi), %rdi
	callq	__ZN4core3ops8function6FnOnce9call_once17h29c48f2d40770f30E
	addq	$16, %rsp
	popq	%rbp
	retq
Ltmp26:
Lfunc_end6:
	.cfi_endproc

	.p2align	4, 0x90
__ZN4core3ops8function6FnOnce9call_once17h29c48f2d40770f30E:
Lfunc_begin7:
	.loc	10 250 0
	.cfi_startproc
	.cfi_personality 155, _rust_eh_personality
	.cfi_lsda 16, Lexception0
	pushq	%rbp
	.cfi_def_cfa_offset 16
	.cfi_offset %rbp, -16
	movq	%rsp, %rbp
	.cfi_def_cfa_register %rbp
	subq	$48, %rsp
	movq	%rdi, -32(%rbp)
Ltmp27:
	leaq	-32(%rbp), %rdi
Ltmp30:
	.loc	10 250 5 prologue_end
	callq	__ZN3std2rt10lang_start28_$u7b$$u7b$closure$u7d$$u7d$17h038ee18c361fd367E
Ltmp28:
	movl	%eax, -36(%rbp)
	jmp	LBB7_3
LBB7_1:
	movq	-16(%rbp), %rdi
	callq	__Unwind_Resume
LBB7_2:
Ltmp29:
	.loc	10 0 5 is_stmt 0
	movq	%rax, %rcx
	movl	%edx, %eax
	movq	%rcx, -16(%rbp)
	movl	%eax, -8(%rbp)
	jmp	LBB7_1
LBB7_3:
	movl	-36(%rbp), %eax
	.loc	10 250 5
	addq	$48, %rsp
	popq	%rbp
	retq
Ltmp31:
Lfunc_end7:
	.cfi_endproc
	.section	__TEXT,__gcc_except_tab
	.p2align	2
GCC_except_table7:
Lexception0:
	.byte	255
	.byte	255
	.byte	1
	.uleb128 Lcst_end0-Lcst_begin0
Lcst_begin0:
	.uleb128 Ltmp27-Lfunc_begin7
	.uleb128 Ltmp28-Ltmp27
	.uleb128 Ltmp29-Lfunc_begin7
	.byte	0
	.uleb128 Ltmp28-Lfunc_begin7
	.uleb128 Lfunc_end7-Ltmp28
	.byte	0
	.byte	0
Lcst_end0:
	.p2align	2

	.section	__TEXT,__text,regular,pure_instructions
	.p2align	4, 0x90
__ZN4core3ops8function6FnOnce9call_once17h7f4b26a0dcf9f73fE:
Lfunc_begin8:
	.loc	10 250 0 is_stmt 1
	.cfi_startproc
	pushq	%rbp
	.cfi_def_cfa_offset 16
	.cfi_offset %rbp, -16
	movq	%rsp, %rbp
	.cfi_def_cfa_register %rbp
	subq	$16, %rsp
	movq	%rdi, -8(%rbp)
Ltmp32:
	.loc	10 250 5 prologue_end
	callq	*%rdi
	addq	$16, %rsp
	popq	%rbp
	retq
Ltmp33:
Lfunc_end8:
	.cfi_endproc

	.p2align	4, 0x90
__ZN4core3ptr85drop_in_place$LT$std..rt..lang_start$LT$$LP$$RP$$GT$..$u7b$$u7b$closure$u7d$$u7d$$GT$17h2811ec48be6c044eE:
Lfunc_begin9:
	.file	11 "/rustc/2c8cc343237b8f7d5a3c3703e3a87f2eb2c54a74/library/core/src/ptr" "mod.rs"
	.loc	11 490 0
	.cfi_startproc
	pushq	%rbp
	.cfi_def_cfa_offset 16
	.cfi_offset %rbp, -16
	movq	%rsp, %rbp
	.cfi_def_cfa_register %rbp
	pushq	%rax
	movq	%rdi, -8(%rbp)
Ltmp34:
	.loc	11 490 1 prologue_end
	addq	$8, %rsp
	popq	%rbp
	retq
Ltmp35:
Lfunc_end9:
	.cfi_endproc

	.p2align	4, 0x90
__ZN4core3str21_$LT$impl$u20$str$GT$20eq_ignore_ascii_case17h0ce0739c3091e384E:
Lfunc_begin10:
	.file	12 "/rustc/2c8cc343237b8f7d5a3c3703e3a87f2eb2c54a74/library/core/src/str" "mod.rs"
	.loc	12 2392 0
	.cfi_startproc
	pushq	%rbp
	.cfi_def_cfa_offset 16
	.cfi_offset %rbp, -16
	movq	%rsp, %rbp
	.cfi_def_cfa_register %rbp
	subq	$96, %rsp
	movq	%rdi, -96(%rbp)
	movq	%rsi, -88(%rbp)
	movq	%rdx, -80(%rbp)
	movq	%rcx, -72(%rbp)
Ltmp36:
	.loc	12 2393 9 prologue_end
	movq	%rdi, -64(%rbp)
	movq	%rsi, -56(%rbp)
Ltmp37:
	.loc	12 327 18
	movq	%rdi, -48(%rbp)
	movq	%rsi, -40(%rbp)
	movq	-48(%rbp), %rdi
	movq	-40(%rbp), %rsi
Ltmp38:
	.loc	12 2393 46
	movq	%rdx, -32(%rbp)
	movq	%rcx, -24(%rbp)
Ltmp39:
	.loc	12 327 18
	movq	%rdx, -16(%rbp)
	movq	%rcx, -8(%rbp)
	movq	-16(%rbp), %rdx
	movq	-8(%rbp), %rcx
Ltmp40:
	.loc	12 2393 9
	callq	__ZN4core5slice5ascii30_$LT$impl$u20$$u5b$u8$u5d$$GT$20eq_ignore_ascii_case17h6ce9363f48db25ccE
	.loc	12 2394 6
	andb	$1, %al
	movzbl	%al, %eax
	addq	$96, %rsp
	popq	%rbp
	retq
Ltmp41:
Lfunc_end10:
	.cfi_endproc

	.p2align	4, 0x90
__ZN4core4iter6traits8iterator8Iterator3all5check28_$u7b$$u7b$closure$u7d$$u7d$17h47f6360b1c81fbb8E:
Lfunc_begin11:
	.file	13 "/rustc/2c8cc343237b8f7d5a3c3703e3a87f2eb2c54a74/library/core/src/iter/traits" "iterator.rs"
	.loc	13 2603 0
	.cfi_startproc
	pushq	%rbp
	.cfi_def_cfa_offset 16
	.cfi_offset %rbp, -16
	movq	%rsp, %rbp
	.cfi_def_cfa_register %rbp
	subq	$64, %rsp
	movq	%rdi, -32(%rbp)
	movq	%rsi, -16(%rbp)
	movq	%rdx, -8(%rbp)
Ltmp42:
	.loc	13 2604 20 prologue_end
	movq	%rsi, -48(%rbp)
	movq	%rdx, -40(%rbp)
	movq	-48(%rbp), %rsi
	movq	-40(%rbp), %rdx
	callq	__ZN4core5slice5ascii30_$LT$impl$u20$$u5b$u8$u5d$$GT$20eq_ignore_ascii_case28_$u7b$$u7b$closure$u7d$$u7d$17h00258f548315bd81E
	testb	$1, %al
	jne	LBB11_2
	.loc	13 2604 58 is_stmt 0
	movb	$1, -49(%rbp)
	.loc	13 2604 17
	jmp	LBB11_3
LBB11_2:
	.loc	13 2604 27
	movb	$0, -49(%rbp)
LBB11_3:
	.loc	13 2605 14 is_stmt 1
	movb	-49(%rbp), %al
	andb	$1, %al
	movzbl	%al, %eax
	addq	$64, %rsp
	popq	%rbp
	retq
Ltmp43:
Lfunc_end11:
	.cfi_endproc

	.p2align	4, 0x90
__ZN4core4iter6traits8iterator8Iterator8try_fold17ha776d2cb65fdca69E:
Lfunc_begin12:
	.loc	13 2254 0
	.cfi_startproc
	.cfi_personality 155, _rust_eh_personality
	.cfi_lsda 16, Lexception1
	pushq	%rbp
	.cfi_def_cfa_offset 16
	.cfi_offset %rbp, -16
	movq	%rsp, %rbp
	.cfi_def_cfa_register %rbp
	subq	$160, %rsp
	movq	%rdi, -136(%rbp)
	movq	%rdi, -72(%rbp)
Ltmp55:
	.loc	13 2260 25 prologue_end
	movb	$1, -73(%rbp)
LBB12_1:
Ltmp44:
	.loc	13 0 25 is_stmt 0
	movq	-136(%rbp), %rdi
Ltmp56:
	.loc	13 2261 29 is_stmt 1
	callq	__ZN102_$LT$core..iter..adapters..zip..Zip$LT$A$C$B$GT$$u20$as$u20$core..iter..traits..iterator..Iterator$GT$4next17h8f95ff8215c8d0cbE
Ltmp45:
	movq	%rdx, -152(%rbp)
	movq	%rax, -144(%rbp)
	jmp	LBB12_4
Ltmp57:
LBB12_2:
	.loc	13 2265 5
	testb	$1, -73(%rbp)
	jne	LBB12_16
	jmp	LBB12_15
LBB12_3:
Ltmp54:
	.loc	13 0 5 is_stmt 0
	movq	%rax, %rcx
	movl	%edx, %eax
	movq	%rcx, -32(%rbp)
	movl	%eax, -24(%rbp)
	jmp	LBB12_2
LBB12_4:
	movq	-152(%rbp), %rax
	movq	-144(%rbp), %rcx
Ltmp58:
	.loc	13 2261 29 is_stmt 1
	movq	%rcx, -120(%rbp)
	movq	%rax, -112(%rbp)
	.loc	13 2261 19 is_stmt 0
	movq	-120(%rbp), %rdx
	movl	$1, %eax
	xorl	%ecx, %ecx
	cmpq	$0, %rdx
	cmoveq	%rcx, %rax
	cmpq	$1, %rax
	jne	LBB12_6
	.loc	13 2261 24
	movq	-120(%rbp), %rcx
	movq	-112(%rbp), %rax
	movq	%rcx, -16(%rbp)
	movq	%rax, -8(%rbp)
	.loc	13 2262 23 is_stmt 1
	movb	$0, -73(%rbp)
	.loc	13 2262 21 is_stmt 0
	movq	%rcx, -96(%rbp)
	movq	%rax, -88(%rbp)
	movq	-96(%rbp), %rsi
	movq	-88(%rbp), %rdx
Ltmp48:
	leaq	-128(%rbp), %rdi
	callq	__ZN4core4iter6traits8iterator8Iterator3all5check28_$u7b$$u7b$closure$u7d$$u7d$17h47f6360b1c81fbb8E
Ltmp49:
	movb	%al, -153(%rbp)
	jmp	LBB12_10
Ltmp59:
LBB12_6:
	.loc	13 2261 9 is_stmt 1
	jmp	LBB12_7
LBB12_7:
	.loc	13 2264 15
	movb	$0, -73(%rbp)
Ltmp46:
	callq	__ZN95_$LT$core..ops..control_flow..ControlFlow$LT$B$C$C$GT$$u20$as$u20$core..ops..try_trait..Try$GT$11from_output17hdc8b34a3e97755d5E
Ltmp47:
	movb	%al, -154(%rbp)
	jmp	LBB12_8
LBB12_8:
	.loc	13 0 15 is_stmt 0
	movb	-154(%rbp), %al
	.loc	13 2264 15
	andb	$1, %al
	movb	%al, -121(%rbp)
Ltmp60:
LBB12_9:
	.loc	13 2265 6 is_stmt 1
	movb	-121(%rbp), %al
	andb	$1, %al
	movzbl	%al, %eax
	addq	$160, %rsp
	popq	%rbp
	retq
LBB12_10:
Ltmp50:
	.loc	13 0 6 is_stmt 0
	movb	-153(%rbp), %al
Ltmp61:
	.loc	13 2262 21 is_stmt 1
	movzbl	%al, %edi
	andl	$1, %edi
	callq	__ZN95_$LT$core..ops..control_flow..ControlFlow$LT$B$C$C$GT$$u20$as$u20$core..ops..try_trait..Try$GT$6branch17hf7504502640c05d9E
Ltmp51:
	movb	%al, -155(%rbp)
	jmp	LBB12_11
LBB12_11:
	.loc	13 0 21 is_stmt 0
	movb	-155(%rbp), %al
	.loc	13 2262 21
	andb	$1, %al
	movb	%al, -97(%rbp)
	movb	-97(%rbp), %al
	andb	$1, %al
	movzbl	%al, %eax
	cmpq	$0, %rax
	jne	LBB12_13
	.loc	13 2262 13
	movb	$1, -73(%rbp)
Ltmp62:
	.loc	13 2261 9 is_stmt 1
	jmp	LBB12_1
LBB12_13:
Ltmp52:
Ltmp63:
	.loc	13 2262 21
	callq	__ZN104_$LT$core..ops..control_flow..ControlFlow$LT$B$C$C$GT$$u20$as$u20$core..ops..try_trait..FromResidual$GT$13from_residual17he5e0bf169120e369E
Ltmp53:
	movb	%al, -156(%rbp)
	jmp	LBB12_14
LBB12_14:
	.loc	13 0 21 is_stmt 0
	movb	-156(%rbp), %al
	.loc	13 2262 21
	andb	$1, %al
	movb	%al, -121(%rbp)
Ltmp64:
	.loc	13 2265 5 is_stmt 1
	jmp	LBB12_9
LBB12_15:
	.loc	13 2254 5
	movq	-32(%rbp), %rdi
	callq	__Unwind_Resume
LBB12_16:
	.loc	13 2265 5
	jmp	LBB12_15
Ltmp65:
Lfunc_end12:
	.cfi_endproc
	.section	__TEXT,__gcc_except_tab
	.p2align	2
GCC_except_table12:
Lexception1:
	.byte	255
	.byte	255
	.byte	1
	.uleb128 Lcst_end1-Lcst_begin1
Lcst_begin1:
	.uleb128 Ltmp44-Lfunc_begin12
	.uleb128 Ltmp53-Ltmp44
	.uleb128 Ltmp54-Lfunc_begin12
	.byte	0
	.uleb128 Ltmp53-Lfunc_begin12
	.uleb128 Lfunc_end12-Ltmp53
	.byte	0
	.byte	0
Lcst_end1:
	.p2align	2

	.section	__TEXT,__text,regular,pure_instructions
	.p2align	4, 0x90
__ZN4core4iter8adapters3zip3zip17h536f5724a7ba24b4E:
Lfunc_begin13:
	.loc	1 66 0
	.cfi_startproc
	.cfi_personality 155, _rust_eh_personality
	.cfi_lsda 16, Lexception2
	pushq	%rbp
	.cfi_def_cfa_offset 16
	.cfi_offset %rbp, -16
	movq	%rsp, %rbp
	.cfi_def_cfa_register %rbp
	subq	$160, %rsp
	movq	%r8, -120(%rbp)
	movq	%rcx, -112(%rbp)
	movq	%rdx, -104(%rbp)
	movq	%rsi, %rax
	movq	-104(%rbp), %rsi
	movq	%rax, -96(%rbp)
	movq	%rdi, %rax
	movq	-96(%rbp), %rdi
	movq	%rax, -88(%rbp)
	movq	%rax, -80(%rbp)
	movq	%rdi, -48(%rbp)
	movq	%rsi, -40(%rbp)
	movq	%rcx, -32(%rbp)
	movq	%r8, -24(%rbp)
Ltmp74:
	.loc	1 71 18 prologue_end
	movb	$1, -49(%rbp)
Ltmp66:
	callq	__ZN4core5slice4iter87_$LT$impl$u20$core..iter..traits..collect..IntoIterator$u20$for$u20$$RF$$u5b$T$u5d$$GT$9into_iter17h80dd5cf02c574103E
Ltmp67:
	movq	%rdx, -72(%rbp)
	movq	%rax, -64(%rbp)
	jmp	LBB13_3
LBB13_1:
	.loc	1 72 1
	testb	$1, -49(%rbp)
	jne	LBB13_10
	jmp	LBB13_9
LBB13_2:
Ltmp68:
	.loc	1 0 1 is_stmt 0
	movq	%rax, %rcx
	movl	%edx, %eax
	movq	%rcx, -16(%rbp)
	movl	%eax, -8(%rbp)
	jmp	LBB13_1
LBB13_3:
	movq	-120(%rbp), %rsi
	movq	-112(%rbp), %rdi
	movq	-72(%rbp), %rax
	movq	-64(%rbp), %rcx
	movq	%rcx, -152(%rbp)
	movq	%rax, -144(%rbp)
	.loc	1 71 30 is_stmt 1
	movb	$1, -50(%rbp)
	.loc	1 71 33 is_stmt 0
	movb	$0, -49(%rbp)
Ltmp69:
	callq	__ZN4core5slice4iter87_$LT$impl$u20$core..iter..traits..collect..IntoIterator$u20$for$u20$$RF$$u5b$T$u5d$$GT$9into_iter17h80dd5cf02c574103E
Ltmp70:
	movq	%rdx, -136(%rbp)
	movq	%rax, -128(%rbp)
	jmp	LBB13_6
LBB13_4:
	.loc	1 71 46
	testb	$1, -50(%rbp)
	jne	LBB13_8
	jmp	LBB13_1
LBB13_5:
Ltmp73:
	.loc	1 0 46
	movq	%rax, %rcx
	movl	%edx, %eax
	movq	%rcx, -16(%rbp)
	movl	%eax, -8(%rbp)
	jmp	LBB13_4
LBB13_6:
	movq	-136(%rbp), %r8
	movq	-128(%rbp), %rcx
	movq	-144(%rbp), %rdx
	movq	-152(%rbp), %rsi
	movq	-88(%rbp), %rdi
	.loc	1 71 5
	movb	$0, -50(%rbp)
Ltmp71:
	callq	__ZN111_$LT$core..iter..adapters..zip..Zip$LT$A$C$B$GT$$u20$as$u20$core..iter..adapters..zip..ZipImpl$LT$A$C$B$GT$$GT$3new17h2dd57350c95b2fccE
Ltmp72:
	jmp	LBB13_7
LBB13_7:
	.loc	1 0 5
	movq	-80(%rbp), %rax
	.loc	1 72 2 is_stmt 1
	addq	$160, %rsp
	popq	%rbp
	retq
LBB13_8:
	.loc	1 71 46
	jmp	LBB13_1
LBB13_9:
	.loc	1 66 1
	movq	-16(%rbp), %rdi
	callq	__Unwind_Resume
LBB13_10:
	.loc	1 72 1
	jmp	LBB13_9
Ltmp75:
Lfunc_end13:
	.cfi_endproc
	.section	__TEXT,__gcc_except_tab
	.p2align	2
GCC_except_table13:
Lexception2:
	.byte	255
	.byte	255
	.byte	1
	.uleb128 Lcst_end2-Lcst_begin2
Lcst_begin2:
	.uleb128 Ltmp66-Lfunc_begin13
	.uleb128 Ltmp67-Ltmp66
	.uleb128 Ltmp68-Lfunc_begin13
	.byte	0
	.uleb128 Ltmp69-Lfunc_begin13
	.uleb128 Ltmp72-Ltmp69
	.uleb128 Ltmp73-Lfunc_begin13
	.byte	0
	.uleb128 Ltmp72-Lfunc_begin13
	.uleb128 Lfunc_end13-Ltmp72
	.byte	0
	.byte	0
Lcst_end2:
	.p2align	2

	.section	__TEXT,__text,regular,pure_instructions
	.p2align	4, 0x90
__ZN4core5slice5ascii30_$LT$impl$u20$$u5b$u8$u5d$$GT$20eq_ignore_ascii_case17h6ce9363f48db25ccE:
Lfunc_begin14:
	.file	14 "/rustc/2c8cc343237b8f7d5a3c3703e3a87f2eb2c54a74/library/core/src/slice" "ascii.rs"
	.loc	14 26 0
	.cfi_startproc
	pushq	%rbp
	.cfi_def_cfa_offset 16
	.cfi_offset %rbp, -16
	movq	%rsp, %rbp
	.cfi_def_cfa_register %rbp
	subq	$160, %rsp
	movq	%rdi, -160(%rbp)
	movq	%rsi, -152(%rbp)
	movq	%rdx, -144(%rbp)
	movq	%rcx, -136(%rbp)
	movq	%rdi, -56(%rbp)
	movq	%rsi, -48(%rbp)
	movq	%rdx, -40(%rbp)
	movq	%rcx, -32(%rbp)
Ltmp76:
	.loc	14 27 9 prologue_end
	cmpq	%rcx, %rsi
	je	LBB14_2
	movb	$0, -121(%rbp)
	jmp	LBB14_3
LBB14_2:
	.loc	14 0 9 is_stmt 0
	movq	-136(%rbp), %r8
	movq	-144(%rbp), %rcx
	movq	-152(%rbp), %rdx
	movq	-160(%rbp), %rsi
	.loc	14 27 38
	leaq	-120(%rbp), %rdi
	callq	__ZN4core4iter8adapters3zip3zip17h536f5724a7ba24b4E
	leaq	-120(%rbp), %rax
	movq	%rax, -8(%rbp)
Ltmp77:
	.loc	13 2607 9 is_stmt 1
	leaq	-120(%rbp), %rdi
	callq	__ZN4core4iter6traits8iterator8Iterator8try_fold17ha776d2cb65fdca69E
	andb	$1, %al
	movb	%al, -57(%rbp)
	leaq	-57(%rbp), %rdi
	leaq	l___unnamed_6(%rip), %rsi
	callq	__ZN90_$LT$core..ops..control_flow..ControlFlow$LT$B$C$C$GT$$u20$as$u20$core..cmp..PartialEq$GT$2eq17he08adf9a27ab6301E
Ltmp78:
	.loc	14 27 9
	andb	$1, %al
	movb	%al, -121(%rbp)
LBB14_3:
	.loc	14 28 6
	movb	-121(%rbp), %al
	andb	$1, %al
	movzbl	%al, %eax
	addq	$160, %rsp
	popq	%rbp
	retq
Ltmp79:
Lfunc_end14:
	.cfi_endproc

	.p2align	4, 0x90
__ZN4core5slice5ascii30_$LT$impl$u20$$u5b$u8$u5d$$GT$20eq_ignore_ascii_case28_$u7b$$u7b$closure$u7d$$u7d$17h00258f548315bd81E:
Lfunc_begin15:
	.loc	14 27 0
	.cfi_startproc
	pushq	%rbp
	.cfi_def_cfa_offset 16
	.cfi_offset %rbp, -16
	movq	%rsp, %rbp
	.cfi_def_cfa_register %rbp
	subq	$64, %rsp
	movq	%rdx, -56(%rbp)
	movq	%rsi, %rax
	movq	-56(%rbp), %rsi
	movq	%rax, -48(%rbp)
	movq	%rdi, %rax
	movq	-48(%rbp), %rdi
	movq	%rax, -40(%rbp)
	movq	%rdi, -32(%rbp)
	movq	%rsi, -24(%rbp)
Ltmp80:
	.loc	14 27 67 prologue_end
	movq	%rdi, -16(%rbp)
	.loc	14 27 70 is_stmt 0
	movq	%rsi, -8(%rbp)
Ltmp81:
	.loc	14 27 74
	callq	__ZN4core3num20_$LT$impl$u20$u8$GT$20eq_ignore_ascii_case17h1994fe1e932d9fffE
Ltmp82:
	.loc	14 27 99
	andb	$1, %al
	movzbl	%al, %eax
	addq	$64, %rsp
	popq	%rbp
	retq
Ltmp83:
Lfunc_end15:
	.cfi_endproc

	.p2align	4, 0x90
__ZN4core6result19Result$LT$T$C$E$GT$6expect17h4e2f688d005e8fdaE:
Lfunc_begin16:
	.file	15 "/rustc/2c8cc343237b8f7d5a3c3703e3a87f2eb2c54a74/library/core/src" "result.rs"
	.loc	15 1063 0 is_stmt 1
	.cfi_startproc
	.cfi_personality 155, _rust_eh_personality
	.cfi_lsda 16, Lexception3
	pushq	%rbp
	.cfi_def_cfa_offset 16
	.cfi_offset %rbp, -16
	movq	%rsp, %rbp
	.cfi_def_cfa_register %rbp
	subq	$112, %rsp
	movq	%r8, -104(%rbp)
	movq	%rcx, -96(%rbp)
	movq	%rdx, -88(%rbp)
	movq	%rsi, -80(%rbp)
Ltmp90:
	movq	%rdi, -72(%rbp)
Ltmp91:
	movq	%rdi, -64(%rbp)
Ltmp92:
	movq	%rdx, -32(%rbp)
	movq	%rcx, -24(%rbp)
Ltmp93:
	.loc	15 1067 9 prologue_end
	cmpq	$0, (%rsi)
Ltmp94:
	jne	LBB16_2
Ltmp95:
	.loc	15 0 9 is_stmt 0
	movq	-64(%rbp), %rax
	movq	-72(%rbp), %rcx
	movq	-80(%rbp), %rdx
	.loc	15 1068 16 is_stmt 1
	movq	8(%rdx), %rsi
	movq	%rsi, (%rcx)
	movq	16(%rdx), %rsi
	movq	%rsi, 8(%rcx)
	movq	24(%rdx), %rdx
	movq	%rdx, 16(%rcx)
	.loc	15 1071 6
	addq	$112, %rsp
	popq	%rbp
	retq
Ltmp96:
LBB16_2:
	.loc	15 0 6 is_stmt 0
	movq	-104(%rbp), %r8
	movq	-96(%rbp), %rsi
	movq	-88(%rbp), %rdi
	movq	-80(%rbp), %rcx
	.loc	15 1069 17 is_stmt 1
	movq	24(%rcx), %rax
	movq	%rax, -40(%rbp)
	movq	8(%rcx), %rax
	movq	16(%rcx), %rcx
	movq	%rcx, -48(%rbp)
	movq	%rax, -56(%rbp)
Ltmp84:
Ltmp97:
	.loc	15 1069 23 is_stmt 0
	leaq	l___unnamed_2(%rip), %rcx
	leaq	-56(%rbp), %rdx
	callq	__ZN4core6result13unwrap_failed17h533573e6d3b6061cE
Ltmp85:
	jmp	LBB16_5
Ltmp98:
LBB16_3:
Ltmp87:
	.loc	15 0 23
	leaq	-56(%rbp), %rdi
	.loc	15 1069 44
	callq	__ZN4core3ptr39drop_in_place$LT$std..env..VarError$GT$17h0a9d680a3f07992cE
Ltmp88:
	jmp	LBB16_7
Ltmp99:
LBB16_4:
Ltmp86:
	.loc	15 0 44
	movq	%rax, %rcx
	movl	%edx, %eax
	movq	%rcx, -16(%rbp)
	movl	%eax, -8(%rbp)
	jmp	LBB16_3
Ltmp100:
LBB16_5:
	ud2
Ltmp101:
LBB16_6:
Ltmp89:
	.loc	15 1063 5 is_stmt 1
	callq	__ZN4core9panicking19panic_cannot_unwind17h1fbca7e1d7f56ae1E
Ltmp102:
LBB16_7:
	movq	-16(%rbp), %rdi
	callq	__Unwind_Resume
Ltmp103:
Lfunc_end16:
	.cfi_endproc
	.section	__TEXT,__gcc_except_tab
	.p2align	2
GCC_except_table16:
Lexception3:
	.byte	255
	.byte	255
	.byte	1
	.uleb128 Lcst_end3-Lcst_begin3
Lcst_begin3:
	.uleb128 Ltmp84-Lfunc_begin16
	.uleb128 Ltmp85-Ltmp84
	.uleb128 Ltmp86-Lfunc_begin16
	.byte	0
	.uleb128 Ltmp87-Lfunc_begin16
	.uleb128 Ltmp88-Ltmp87
	.uleb128 Ltmp89-Lfunc_begin16
	.byte	0
	.uleb128 Ltmp88-Lfunc_begin16
	.uleb128 Lfunc_end16-Ltmp88
	.byte	0
	.byte	0
Lcst_end3:
	.p2align	2

	.section	__TEXT,__text,regular,pure_instructions
	.p2align	4, 0x90
__ZN54_$LT$$LP$$RP$$u20$as$u20$std..process..Termination$GT$6report17h6fa2b135e7139c93E:
Lfunc_begin17:
	.loc	5 2182 0
	.cfi_startproc
	pushq	%rbp
	.cfi_def_cfa_offset 16
	.cfi_offset %rbp, -16
	movq	%rsp, %rbp
	.cfi_def_cfa_register %rbp
	pushq	%rax
Ltmp104:
	.loc	5 2184 6 prologue_end
	xorl	%eax, %eax
	addq	$8, %rsp
	popq	%rbp
	retq
Ltmp105:
Lfunc_end17:
	.cfi_endproc

	.p2align	4, 0x90
__ZN65_$LT$alloc..string..String$u20$as$u20$core..ops..deref..Deref$GT$5deref17hd0576383cb1687bfE:
Lfunc_begin18:
	.file	16 "/rustc/2c8cc343237b8f7d5a3c3703e3a87f2eb2c54a74/library/alloc/src" "string.rs"
	.loc	16 2459 0
	.cfi_startproc
	pushq	%rbp
	.cfi_def_cfa_offset 16
	.cfi_offset %rbp, -16
	movq	%rsp, %rbp
	.cfi_def_cfa_register %rbp
	subq	$48, %rsp
	movq	%rdi, -40(%rbp)
Ltmp106:
	.loc	16 2460 43 prologue_end
	callq	__ZN72_$LT$alloc..vec..Vec$LT$T$C$A$GT$$u20$as$u20$core..ops..deref..Deref$GT$5deref17ha449fe6a60ead7adE
	movq	%rax, -32(%rbp)
	movq	%rdx, -24(%rbp)
Ltmp107:
	.file	17 "/rustc/2c8cc343237b8f7d5a3c3703e3a87f2eb2c54a74/library/core/src/str" "converts.rs"
	.loc	17 173 14
	movq	%rax, -16(%rbp)
	movq	%rdx, -8(%rbp)
	movq	-16(%rbp), %rax
	movq	-8(%rbp), %rdx
Ltmp108:
	.loc	16 2461 6
	addq	$48, %rsp
	popq	%rbp
	retq
Ltmp109:
Lfunc_end18:
	.cfi_endproc

	.p2align	4, 0x90
__ZN18build_script_build4main17hec16d1c4b98dab17E:
Lfunc_begin19:
	.file	18 "/Users/natalie/.cargo/registry/src/github.com-1ecc6299db9ec823/ahash-0.8.0" "build.rs"
	.loc	18 5 0
	.cfi_startproc
	.cfi_personality 155, _rust_eh_personality
	.cfi_lsda 16, Lexception4
	pushq	%rbp
	.cfi_def_cfa_offset 16
	.cfi_offset %rbp, -16
	movq	%rsp, %rbp
	.cfi_def_cfa_register %rbp
	subq	$448, %rsp
Ltmp142:
	.loc	18 6 5 prologue_end
	leaq	-288(%rbp), %rdi
	leaq	l___unnamed_7(%rip), %rsi
	movl	$1, %edx
	leaq	l___unnamed_4(%rip), %rcx
	xorl	%eax, %eax
	movl	%eax, %r8d
	callq	__ZN4core3fmt9Arguments6new_v117h9907487dd57d23eaE
	leaq	-288(%rbp), %rdi
	callq	__ZN3std2io5stdio6_print17ha0d536e53b83a5ccE
	.loc	18 7 25
	leaq	l___unnamed_8(%rip), %rdi
	movl	$10, %esi
	callq	__ZN13version_check16supports_feature17hf4875d1bc7e22727E
	movb	%al, -233(%rbp)
	.loc	18 7 12 is_stmt 0
	movl	$1, %eax
	xorl	%ecx, %ecx
	cmpb	$2, -233(%rbp)
	cmoveq	%rcx, %rax
	cmpq	$1, %rax
	jne	LBB19_2
	testb	$1, -233(%rbp)
	jne	LBB19_3
LBB19_2:
	.loc	18 10 25 is_stmt 1
	leaq	l___unnamed_9(%rip), %rdi
	movl	$7, %esi
	callq	__ZN13version_check16supports_feature17hf4875d1bc7e22727E
	movb	%al, -177(%rbp)
	.loc	18 10 12 is_stmt 0
	movl	$1, %eax
	xorl	%ecx, %ecx
	cmpb	$2, -177(%rbp)
	cmoveq	%rcx, %rax
	cmpq	$1, %rax
	je	LBB19_4
	jmp	LBB19_5
LBB19_3:
	.loc	18 8 9 is_stmt 1
	leaq	-232(%rbp), %rdi
	leaq	l___unnamed_10(%rip), %rsi
	movl	$1, %edx
	leaq	l___unnamed_4(%rip), %rcx
	xorl	%eax, %eax
	movl	%eax, %r8d
	callq	__ZN4core3fmt9Arguments6new_v117h9907487dd57d23eaE
	leaq	-232(%rbp), %rdi
	callq	__ZN3std2io5stdio6_print17ha0d536e53b83a5ccE
	jmp	LBB19_2
LBB19_4:
	.loc	18 10 12
	testb	$1, -177(%rbp)
	jne	LBB19_6
LBB19_5:
	.loc	18 13 16
	leaq	l___unnamed_11(%rip), %rsi
	leaq	-104(%rbp), %rdi
	movq	%rdi, -320(%rbp)
	movl	$21, %edx
	callq	__ZN3std3env3var17h293037bd1e0ac5a2E
	movq	-320(%rbp), %rsi
	leaq	l___unnamed_12(%rip), %rdx
	leaq	l___unnamed_13(%rip), %r8
	leaq	-128(%rbp), %rdi
	movq	%rdi, -312(%rbp)
	movl	$33, %ecx
	callq	__ZN4core6result19Result$LT$T$C$E$GT$6expect17h4e2f688d005e8fdaE
	movq	-312(%rbp), %rdi
Ltmp110:
Ltmp143:
	.loc	18 14 8
	callq	__ZN65_$LT$alloc..string..String$u20$as$u20$core..ops..deref..Deref$GT$5deref17hd0576383cb1687bfE
Ltmp111:
	movq	%rdx, -304(%rbp)
	movq	%rax, -296(%rbp)
	jmp	LBB19_9
Ltmp144:
LBB19_6:
	.loc	18 11 9
	leaq	-176(%rbp), %rdi
	leaq	l___unnamed_14(%rip), %rsi
	movl	$1, %edx
	leaq	l___unnamed_4(%rip), %rcx
	xorl	%eax, %eax
	movl	%eax, %r8d
	callq	__ZN4core3fmt9Arguments6new_v117h9907487dd57d23eaE
	leaq	-176(%rbp), %rdi
	callq	__ZN3std2io5stdio6_print17ha0d536e53b83a5ccE
	jmp	LBB19_5
LBB19_7:
Ltmp139:
	.loc	18 0 9 is_stmt 0
	leaq	-128(%rbp), %rdi
	.loc	18 24 1 is_stmt 1
	callq	__ZN4core3ptr42drop_in_place$LT$alloc..string..String$GT$17h884379d4d73bd137E
Ltmp140:
	jmp	LBB19_41
LBB19_8:
Ltmp138:
	.loc	18 0 1 is_stmt 0
	movq	%rax, %rcx
	movl	%edx, %eax
	movq	%rcx, -16(%rbp)
	movl	%eax, -8(%rbp)
	jmp	LBB19_7
LBB19_9:
Ltmp112:
	movq	-304(%rbp), %rsi
	movq	-296(%rbp), %rdi
Ltmp145:
	.loc	18 14 8 is_stmt 1
	leaq	l___unnamed_15(%rip), %rdx
	movl	$6, %ecx
	callq	__ZN4core3str21_$LT$impl$u20$str$GT$20eq_ignore_ascii_case17h0ce0739c3091e384E
Ltmp113:
	movb	%al, -321(%rbp)
	jmp	LBB19_10
LBB19_10:
	.loc	18 0 8 is_stmt 0
	movb	-321(%rbp), %al
	.loc	18 14 8
	testb	$1, %al
	jne	LBB19_12
	jmp	LBB19_11
LBB19_11:
Ltmp114:
	.loc	18 0 8
	leaq	-128(%rbp), %rdi
	.loc	18 15 12 is_stmt 1
	callq	__ZN65_$LT$alloc..string..String$u20$as$u20$core..ops..deref..Deref$GT$5deref17hd0576383cb1687bfE
Ltmp115:
	movq	%rdx, -344(%rbp)
	movq	%rax, -336(%rbp)
	jmp	LBB19_14
LBB19_12:
	.loc	18 14 8
	movb	$1, -65(%rbp)
LBB19_13:
	testb	$1, -65(%rbp)
	jne	LBB19_17
	jmp	LBB19_16
LBB19_14:
Ltmp116:
	.loc	18 0 8 is_stmt 0
	movq	-344(%rbp), %rsi
	movq	-336(%rbp), %rdi
	.loc	18 15 12 is_stmt 1
	leaq	l___unnamed_16(%rip), %rdx
	movl	$7, %ecx
	callq	__ZN4core3str21_$LT$impl$u20$str$GT$20eq_ignore_ascii_case17h0ce0739c3091e384E
Ltmp117:
	movb	%al, -345(%rbp)
	jmp	LBB19_15
LBB19_15:
	.loc	18 0 12 is_stmt 0
	movb	-345(%rbp), %al
	.loc	18 14 8 is_stmt 1
	andb	$1, %al
	movb	%al, -65(%rbp)
	jmp	LBB19_13
LBB19_16:
Ltmp118:
	.loc	18 0 8 is_stmt 0
	leaq	-128(%rbp), %rdi
	.loc	18 16 12 is_stmt 1
	callq	__ZN65_$LT$alloc..string..String$u20$as$u20$core..ops..deref..Deref$GT$5deref17hd0576383cb1687bfE
Ltmp119:
	movq	%rdx, -368(%rbp)
	movq	%rax, -360(%rbp)
	jmp	LBB19_19
LBB19_17:
	.loc	18 14 8
	movb	$1, -66(%rbp)
LBB19_18:
	testb	$1, -66(%rbp)
	jne	LBB19_22
	jmp	LBB19_21
LBB19_19:
Ltmp120:
	.loc	18 0 8 is_stmt 0
	movq	-368(%rbp), %rsi
	movq	-360(%rbp), %rdi
	.loc	18 16 12 is_stmt 1
	leaq	l___unnamed_17(%rip), %rdx
	movl	$6, %ecx
	callq	__ZN4core3str21_$LT$impl$u20$str$GT$20eq_ignore_ascii_case17h0ce0739c3091e384E
Ltmp121:
	movb	%al, -369(%rbp)
	jmp	LBB19_20
LBB19_20:
	.loc	18 0 12 is_stmt 0
	movb	-369(%rbp), %al
	.loc	18 14 8 is_stmt 1
	andb	$1, %al
	movb	%al, -66(%rbp)
	jmp	LBB19_18
LBB19_21:
Ltmp122:
	.loc	18 0 8 is_stmt 0
	leaq	-128(%rbp), %rdi
	.loc	18 17 12 is_stmt 1
	callq	__ZN65_$LT$alloc..string..String$u20$as$u20$core..ops..deref..Deref$GT$5deref17hd0576383cb1687bfE
Ltmp123:
	movq	%rdx, -392(%rbp)
	movq	%rax, -384(%rbp)
	jmp	LBB19_24
LBB19_22:
	.loc	18 14 8
	movb	$1, -67(%rbp)
LBB19_23:
	testb	$1, -67(%rbp)
	jne	LBB19_27
	jmp	LBB19_26
LBB19_24:
Ltmp124:
	.loc	18 0 8 is_stmt 0
	movq	-392(%rbp), %rsi
	movq	-384(%rbp), %rdi
	.loc	18 17 12 is_stmt 1
	leaq	l___unnamed_18(%rip), %rdx
	movl	$9, %ecx
	callq	__ZN4core3str21_$LT$impl$u20$str$GT$20eq_ignore_ascii_case17h0ce0739c3091e384E
Ltmp125:
	movb	%al, -393(%rbp)
	jmp	LBB19_25
LBB19_25:
	.loc	18 0 12 is_stmt 0
	movb	-393(%rbp), %al
	.loc	18 14 8 is_stmt 1
	andb	$1, %al
	movb	%al, -67(%rbp)
	jmp	LBB19_23
LBB19_26:
Ltmp126:
	.loc	18 0 8 is_stmt 0
	leaq	-128(%rbp), %rdi
	.loc	18 18 12 is_stmt 1
	callq	__ZN65_$LT$alloc..string..String$u20$as$u20$core..ops..deref..Deref$GT$5deref17hd0576383cb1687bfE
Ltmp127:
	movq	%rdx, -416(%rbp)
	movq	%rax, -408(%rbp)
	jmp	LBB19_29
LBB19_27:
	.loc	18 14 8
	movb	$1, -68(%rbp)
LBB19_28:
	testb	$1, -68(%rbp)
	jne	LBB19_32
	jmp	LBB19_31
LBB19_29:
Ltmp128:
	.loc	18 0 8 is_stmt 0
	movq	-416(%rbp), %rsi
	movq	-408(%rbp), %rdi
	.loc	18 18 12 is_stmt 1
	leaq	l___unnamed_19(%rip), %rdx
	movl	$9, %ecx
	callq	__ZN4core3str21_$LT$impl$u20$str$GT$20eq_ignore_ascii_case17h0ce0739c3091e384E
Ltmp129:
	movb	%al, -417(%rbp)
	jmp	LBB19_30
LBB19_30:
	.loc	18 0 12 is_stmt 0
	movb	-417(%rbp), %al
	.loc	18 14 8 is_stmt 1
	andb	$1, %al
	movb	%al, -68(%rbp)
	jmp	LBB19_28
LBB19_31:
Ltmp130:
	.loc	18 0 8 is_stmt 0
	leaq	-128(%rbp), %rdi
	.loc	18 19 12 is_stmt 1
	callq	__ZN65_$LT$alloc..string..String$u20$as$u20$core..ops..deref..Deref$GT$5deref17hd0576383cb1687bfE
Ltmp131:
	movq	%rdx, -440(%rbp)
	movq	%rax, -432(%rbp)
	jmp	LBB19_34
LBB19_32:
	.loc	18 14 8
	movb	$1, -69(%rbp)
LBB19_33:
	testb	$1, -69(%rbp)
	jne	LBB19_37
	jmp	LBB19_36
LBB19_34:
Ltmp132:
	.loc	18 0 8 is_stmt 0
	movq	-440(%rbp), %rsi
	movq	-432(%rbp), %rdi
	.loc	18 19 12 is_stmt 1
	leaq	l___unnamed_20(%rip), %rdx
	movl	$5, %ecx
	callq	__ZN4core3str21_$LT$impl$u20$str$GT$20eq_ignore_ascii_case17h0ce0739c3091e384E
Ltmp133:
	movb	%al, -441(%rbp)
	jmp	LBB19_35
LBB19_35:
	.loc	18 0 12 is_stmt 0
	movb	-441(%rbp), %al
	.loc	18 14 8 is_stmt 1
	andb	$1, %al
	movb	%al, -69(%rbp)
	jmp	LBB19_33
Ltmp146:
LBB19_36:
	.loc	18 24 1
	leaq	-128(%rbp), %rdi
	callq	__ZN4core3ptr42drop_in_place$LT$alloc..string..String$GT$17h884379d4d73bd137E
	.loc	18 24 2 is_stmt 0
	addq	$448, %rsp
	popq	%rbp
	retq
LBB19_37:
Ltmp134:
Ltmp147:
	.loc	18 21 9 is_stmt 1
	leaq	l___unnamed_21(%rip), %rsi
	leaq	l___unnamed_4(%rip), %rcx
	xorl	%eax, %eax
	movl	%eax, %r8d
	leaq	-64(%rbp), %rdi
	movl	$1, %edx
	callq	__ZN4core3fmt9Arguments6new_v117h9907487dd57d23eaE
Ltmp135:
	jmp	LBB19_38
LBB19_38:
Ltmp136:
	.loc	18 0 9 is_stmt 0
	leaq	-64(%rbp), %rdi
	.loc	18 21 9
	callq	__ZN3std2io5stdio6_print17ha0d536e53b83a5ccE
Ltmp137:
	jmp	LBB19_39
LBB19_39:
	jmp	LBB19_36
Ltmp148:
LBB19_40:
Ltmp141:
	.loc	18 5 1 is_stmt 1
	callq	__ZN4core9panicking19panic_cannot_unwind17h1fbca7e1d7f56ae1E
LBB19_41:
	movq	-16(%rbp), %rdi
	callq	__Unwind_Resume
Ltmp149:
Lfunc_end19:
	.cfi_endproc
	.section	__TEXT,__gcc_except_tab
	.p2align	2
GCC_except_table19:
Lexception4:
	.byte	255
	.byte	255
	.byte	1
	.uleb128 Lcst_end4-Lcst_begin4
Lcst_begin4:
	.uleb128 Lfunc_begin19-Lfunc_begin19
	.uleb128 Ltmp110-Lfunc_begin19
	.byte	0
	.byte	0
	.uleb128 Ltmp110-Lfunc_begin19
	.uleb128 Ltmp111-Ltmp110
	.uleb128 Ltmp138-Lfunc_begin19
	.byte	0
	.uleb128 Ltmp111-Lfunc_begin19
	.uleb128 Ltmp139-Ltmp111
	.byte	0
	.byte	0
	.uleb128 Ltmp139-Lfunc_begin19
	.uleb128 Ltmp140-Ltmp139
	.uleb128 Ltmp141-Lfunc_begin19
	.byte	0
	.uleb128 Ltmp112-Lfunc_begin19
	.uleb128 Ltmp133-Ltmp112
	.uleb128 Ltmp138-Lfunc_begin19
	.byte	0
	.uleb128 Ltmp133-Lfunc_begin19
	.uleb128 Ltmp134-Ltmp133
	.byte	0
	.byte	0
	.uleb128 Ltmp134-Lfunc_begin19
	.uleb128 Ltmp137-Ltmp134
	.uleb128 Ltmp138-Lfunc_begin19
	.byte	0
	.uleb128 Ltmp137-Lfunc_begin19
	.uleb128 Lfunc_end19-Ltmp137
	.byte	0
	.byte	0
Lcst_end4:
	.p2align	2

	.section	__TEXT,__text,regular,pure_instructions
	.globl	_main
	.p2align	4, 0x90
_main:
Lfunc_begin20:
	.cfi_startproc
	pushq	%rbp
	.cfi_def_cfa_offset 16
	.cfi_offset %rbp, -16
	movq	%rsp, %rbp
	.cfi_def_cfa_register %rbp
	movq	%rsi, %rdx
	movslq	%edi, %rsi
	leaq	__ZN18build_script_build4main17hec16d1c4b98dab17E(%rip), %rdi
	xorl	%ecx, %ecx
	callq	__ZN3std2rt10lang_start17h55320c980cb0c863E
	popq	%rbp
	retq
Lfunc_end20:
	.cfi_endproc

	.section	__DATA,__const
	.p2align	3
l___unnamed_1:
	.quad	__ZN4core3ptr85drop_in_place$LT$std..rt..lang_start$LT$$LP$$RP$$GT$..$u7b$$u7b$closure$u7d$$u7d$$GT$17h2811ec48be6c044eE
	.asciz	"\b\000\000\000\000\000\000\000\b\000\000\000\000\000\000"
	.quad	__ZN4core3ops8function6FnOnce40call_once$u7b$$u7b$vtable.shim$u7d$$u7d$17h7b600dd1161541a4E
	.quad	__ZN3std2rt10lang_start28_$u7b$$u7b$closure$u7d$$u7d$17h038ee18c361fd367E
	.quad	__ZN3std2rt10lang_start28_$u7b$$u7b$closure$u7d$$u7d$17h038ee18c361fd367E

	.section	__TEXT,__const
l___unnamed_22:
	.ascii	"invalid args"

	.section	__DATA,__const
	.p2align	3
l___unnamed_3:
	.quad	l___unnamed_22
	.asciz	"\f\000\000\000\000\000\000"

	.section	__TEXT,__const
	.p2align	3
l___unnamed_4:
	.byte	0

l___unnamed_23:
	.ascii	"/rustc/2c8cc343237b8f7d5a3c3703e3a87f2eb2c54a74/library/core/src/fmt/mod.rs"

	.section	__DATA,__const
	.p2align	3
l___unnamed_5:
	.quad	l___unnamed_23
	.asciz	"K\000\000\000\000\000\000\000\221\001\000\000\r\000\000"

	.section	__TEXT,__const
l___unnamed_6:
	.space	1

	.section	__DATA,__const
	.p2align	3
l___unnamed_2:
	.quad	__ZN4core3ptr39drop_in_place$LT$std..env..VarError$GT$17h0a9d680a3f07992cE
	.asciz	"\030\000\000\000\000\000\000\000\b\000\000\000\000\000\000"
	.quad	__ZN55_$LT$std..env..VarError$u20$as$u20$core..fmt..Debug$GT$3fmt17hca5f9b8668ac52cdE

	.section	__TEXT,__const
l___unnamed_24:
	.ascii	"cargo:rerun-if-changed=build.rs\n"

	.section	__DATA,__const
	.p2align	3
l___unnamed_7:
	.quad	l___unnamed_24
	.asciz	" \000\000\000\000\000\000"

	.section	__TEXT,__const
l___unnamed_8:
	.ascii	"specialize"

l___unnamed_25:
	.ascii	"cargo:rustc-cfg=feature=\"specialize\"\n"

	.section	__DATA,__const
	.p2align	3
l___unnamed_10:
	.quad	l___unnamed_25
	.asciz	"%\000\000\000\000\000\000"

	.section	__TEXT,__const
l___unnamed_9:
	.ascii	"stdsimd"

l___unnamed_26:
	.ascii	"cargo:rustc-cfg=feature=\"stdsimd\"\n"

	.section	__DATA,__const
	.p2align	3
l___unnamed_14:
	.quad	l___unnamed_26
	.asciz	"\"\000\000\000\000\000\000"

	.section	__TEXT,__const
l___unnamed_11:
	.ascii	"CARGO_CFG_TARGET_ARCH"

l___unnamed_12:
	.ascii	"CARGO_CFG_TARGET_ARCH was not set"

l___unnamed_27:
	.ascii	"/Users/natalie/.cargo/registry/src/github.com-1ecc6299db9ec823/ahash-0.8.0/./build.rs"

	.section	__DATA,__const
	.p2align	3
l___unnamed_13:
	.quad	l___unnamed_27
	.asciz	"U\000\000\000\000\000\000\000\r\000\000\0002\000\000"

	.section	__TEXT,__const
l___unnamed_15:
	.ascii	"x86_64"

l___unnamed_16:
	.ascii	"aarch64"

l___unnamed_17:
	.ascii	"mips64"

l___unnamed_18:
	.ascii	"powerpc64"

l___unnamed_19:
	.ascii	"riscv64gc"

l___unnamed_20:
	.ascii	"s390x"

l___unnamed_28:
	.ascii	"cargo:rustc-cfg=feature=\"folded_multiply\"\n"

	.section	__DATA,__const
	.p2align	3
l___unnamed_21:
	.quad	l___unnamed_28
	.asciz	"*\000\000\000\000\000\000"

	.section	__DATA,__const
Lsec_end0:
	.section	__TEXT,__text,regular,pure_instructions
Lsec_end1: