	.section	__TEXT,__text,regular,pure_instructions
	.macosx_version_min 10, 7
	.p2align	4, 0x90
__ZN3std10sys_common9backtrace28__rust_begin_short_backtrace17hcc7f268cfb62a12dE:
Lfunc_begin0:
	.file	1 "/rustc/2c8cc343237b8f7d5a3c3703e3a87f2eb2c54a74/library/std/src/sys_common" "backtrace.rs"
	.loc	1 117 0
	.cfi_startproc
	pushq	%rbp
	.cfi_def_cfa_offset 16
	.cfi_offset %rbp, -16
	movq	%rsp, %rbp
	.cfi_def_cfa_register %rbp
	subq	$48, %rsp
	movq	%rdi, -32(%rbp)
Ltmp0:
	.loc	1 121 18 prologue_end
	callq	__ZN4core3ops8function6FnOnce9call_once17h6c9fdaff3abc63b3E
Ltmp1:
	.file	2 "/rustc/2c8cc343237b8f7d5a3c3703e3a87f2eb2c54a74/library/core/src" "hint.rs"
	.loc	2 295 5
	## InlineAsm Start
	## InlineAsm End
Ltmp2:
	.loc	1 127 2
	addq	$48, %rsp
	popq	%rbp
	retq
Ltmp3:
Lfunc_end0:
	.cfi_endproc

	.private_extern	__ZN3std2rt10lang_start17ha02e1cb709177866E
	.globl	__ZN3std2rt10lang_start17ha02e1cb709177866E
	.p2align	4, 0x90
__ZN3std2rt10lang_start17ha02e1cb709177866E:
Lfunc_begin1:
	.file	3 "/rustc/2c8cc343237b8f7d5a3c3703e3a87f2eb2c54a74/library/std/src" "rt.rs"
	.loc	3 159 0
	.cfi_startproc
	pushq	%rbp
	.cfi_def_cfa_offset 16
	.cfi_offset %rbp, -16
	movq	%rsp, %rbp
	.cfi_def_cfa_register %rbp
	subq	$64, %rsp
	movl	%ecx, %eax
	movq	%rdx, %rcx
	movq	%rsi, %rdx
	movq	%rdi, -40(%rbp)
	movq	%rdx, -32(%rbp)
	movq	%rcx, -24(%rbp)
	movb	%al, -9(%rbp)
Ltmp4:
	.loc	3 166 10 prologue_end
	movq	%rdi, -48(%rbp)
	.loc	3 165 17
	leaq	-48(%rbp), %rdi
	leaq	l___unnamed_1(%rip), %rsi
	movzbl	%al, %r8d
	callq	__ZN3std2rt19lang_start_internal17h72dc55d09e0a2397E
	movq	%rax, -56(%rbp)
	.loc	3 165 12 is_stmt 0
	movq	-56(%rbp), %rax
	movq	%rax, -8(%rbp)
	.loc	3 172 2 is_stmt 1
	addq	$64, %rsp
	popq	%rbp
	retq
Ltmp5:
Lfunc_end1:
	.cfi_endproc

	.p2align	4, 0x90
__ZN3std2rt10lang_start28_$u7b$$u7b$closure$u7d$$u7d$17h2b564e6f4521e01fE:
Lfunc_begin2:
	.loc	3 166 0
	.cfi_startproc
	pushq	%rbp
	.cfi_def_cfa_offset 16
	.cfi_offset %rbp, -16
	movq	%rsp, %rbp
	.cfi_def_cfa_register %rbp
	subq	$32, %rsp
	movq	%rdi, -16(%rbp)
Ltmp6:
	.loc	3 166 77 prologue_end
	movq	(%rdi), %rdi
	.loc	3 166 18 is_stmt 0
	callq	__ZN3std10sys_common9backtrace28__rust_begin_short_backtrace17hcc7f268cfb62a12dE
	callq	__ZN54_$LT$$LP$$RP$$u20$as$u20$std..process..Termination$GT$6report17h6081ff45a2bbd730E
	movb	%al, -17(%rbp)
Ltmp7:
	.file	4 "/rustc/2c8cc343237b8f7d5a3c3703e3a87f2eb2c54a74/library/std/src" "process.rs"
	.loc	4 1820 9 is_stmt 1
	leaq	-17(%rbp), %rax
	movq	%rax, -8(%rbp)
Ltmp8:
	.file	5 "/rustc/2c8cc343237b8f7d5a3c3703e3a87f2eb2c54a74/library/std/src/sys/unix/process" "process_common.rs"
	.loc	5 594 9
	movzbl	-17(%rbp), %eax
Ltmp9:
	.loc	3 166 100
	addq	$32, %rsp
	popq	%rbp
	retq
Ltmp10:
Lfunc_end2:
	.cfi_endproc

	.p2align	4, 0x90
__ZN4core3fmt9Arguments6new_v117hf6bca945eff8b33fE:
Lfunc_begin3:
	.file	6 "/rustc/2c8cc343237b8f7d5a3c3703e3a87f2eb2c54a74/library/core/src/fmt" "mod.rs"
	.loc	6 399 0
	.cfi_startproc
	pushq	%rbp
	.cfi_def_cfa_offset 16
	.cfi_offset %rbp, -16
	movq	%rsp, %rbp
	.cfi_def_cfa_register %rbp
	subq	$160, %rsp
	movq	%r8, -152(%rbp)
	movq	%rcx, -144(%rbp)
	movq	%rdx, -136(%rbp)
	movq	%rsi, -128(%rbp)
	movq	%rdi, -120(%rbp)
	movq	%rdi, -112(%rbp)
	movq	%rsi, -32(%rbp)
	movq	%rdx, -24(%rbp)
	movq	%rcx, -16(%rbp)
	movq	%r8, -8(%rbp)
Ltmp11:
	.loc	6 400 12 prologue_end
	cmpq	%r8, %rdx
	jb	LBB3_2
	.loc	6 0 12 is_stmt 0
	movq	-136(%rbp), %rax
	movq	-152(%rbp), %rcx
	.loc	6 400 56
	addq	$1, %rcx
	.loc	6 400 41
	cmpq	%rcx, %rax
	seta	%al
	.loc	6 400 12
	andb	$1, %al
	movb	%al, -97(%rbp)
	jmp	LBB3_3
LBB3_2:
	movb	$1, -97(%rbp)
LBB3_3:
	testb	$1, -97(%rbp)
	jne	LBB3_5
	.loc	6 0 12
	movq	-112(%rbp), %rax
	movq	-120(%rbp), %rcx
	movq	-152(%rbp), %rdx
	movq	-144(%rbp), %rsi
	movq	-136(%rbp), %rdi
	movq	-128(%rbp), %r8
	.loc	6 403 34 is_stmt 1
	movq	$0, -48(%rbp)
	.loc	6 403 9 is_stmt 0
	movq	%r8, 16(%rcx)
	movq	%rdi, 24(%rcx)
	movq	-48(%rbp), %r8
	movq	-40(%rbp), %rdi
	movq	%r8, (%rcx)
	movq	%rdi, 8(%rcx)
	movq	%rsi, 32(%rcx)
	movq	%rdx, 40(%rcx)
	.loc	6 404 6 is_stmt 1
	addq	$160, %rsp
	popq	%rbp
	retq
LBB3_5:
	.loc	6 401 13
	leaq	l___unnamed_2(%rip), %rsi
	leaq	l___unnamed_3(%rip), %rcx
	xorl	%eax, %eax
	movl	%eax, %r8d
	leaq	-96(%rbp), %rdi
	movq	%rdi, -160(%rbp)
	movl	$1, %edx
	callq	__ZN4core3fmt9Arguments6new_v117hf6bca945eff8b33fE
	movq	-160(%rbp), %rdi
	leaq	l___unnamed_4(%rip), %rsi
	callq	__ZN4core9panicking9panic_fmt17h9b5d807e24bcaaedE
Ltmp12:
Lfunc_end3:
	.cfi_endproc

	.p2align	4, 0x90
__ZN4core3ops8function6FnOnce40call_once$u7b$$u7b$vtable.shim$u7d$$u7d$17h5dac54e890dcd45cE:
Lfunc_begin4:
	.file	7 "/rustc/2c8cc343237b8f7d5a3c3703e3a87f2eb2c54a74/library/core/src/ops" "function.rs"
	.loc	7 250 0
	.cfi_startproc
	pushq	%rbp
	.cfi_def_cfa_offset 16
	.cfi_offset %rbp, -16
	movq	%rsp, %rbp
	.cfi_def_cfa_register %rbp
	subq	$16, %rsp
	movq	%rdi, -8(%rbp)
Ltmp13:
	.loc	7 250 5 prologue_end
	movq	(%rdi), %rdi
	callq	__ZN4core3ops8function6FnOnce9call_once17hb5b08ba627389aa2E
	addq	$16, %rsp
	popq	%rbp
	retq
Ltmp14:
Lfunc_end4:
	.cfi_endproc

	.p2align	4, 0x90
__ZN4core3ops8function6FnOnce9call_once17h6c9fdaff3abc63b3E:
Lfunc_begin5:
	.loc	7 250 0
	.cfi_startproc
	pushq	%rbp
	.cfi_def_cfa_offset 16
	.cfi_offset %rbp, -16
	movq	%rsp, %rbp
	.cfi_def_cfa_register %rbp
	subq	$16, %rsp
	movq	%rdi, -8(%rbp)
Ltmp15:
	.loc	7 250 5 prologue_end
	callq	*%rdi
	addq	$16, %rsp
	popq	%rbp
	retq
Ltmp16:
Lfunc_end5:
	.cfi_endproc

	.p2align	4, 0x90
__ZN4core3ops8function6FnOnce9call_once17hb5b08ba627389aa2E:
Lfunc_begin6:
	.loc	7 250 0
	.cfi_startproc
	.cfi_personality 155, _rust_eh_personality
	.cfi_lsda 16, Lexception0
	pushq	%rbp
	.cfi_def_cfa_offset 16
	.cfi_offset %rbp, -16
	movq	%rsp, %rbp
	.cfi_def_cfa_register %rbp
	subq	$48, %rsp
	movq	%rdi, -32(%rbp)
Ltmp17:
	leaq	-32(%rbp), %rdi
Ltmp20:
	.loc	7 250 5 prologue_end
	callq	__ZN3std2rt10lang_start28_$u7b$$u7b$closure$u7d$$u7d$17h2b564e6f4521e01fE
Ltmp18:
	movl	%eax, -36(%rbp)
	jmp	LBB6_3
LBB6_1:
	movq	-16(%rbp), %rdi
	callq	__Unwind_Resume
LBB6_2:
Ltmp19:
	.loc	7 0 5 is_stmt 0
	movq	%rax, %rcx
	movl	%edx, %eax
	movq	%rcx, -16(%rbp)
	movl	%eax, -8(%rbp)
	jmp	LBB6_1
LBB6_3:
	movl	-36(%rbp), %eax
	.loc	7 250 5
	addq	$48, %rsp
	popq	%rbp
	retq
Ltmp21:
Lfunc_end6:
	.cfi_endproc
	.section	__TEXT,__gcc_except_tab
	.p2align	2
GCC_except_table6:
Lexception0:
	.byte	255
	.byte	255
	.byte	1
	.uleb128 Lcst_end0-Lcst_begin0
Lcst_begin0:
	.uleb128 Ltmp17-Lfunc_begin6
	.uleb128 Ltmp18-Ltmp17
	.uleb128 Ltmp19-Lfunc_begin6
	.byte	0
	.uleb128 Ltmp18-Lfunc_begin6
	.uleb128 Lfunc_end6-Ltmp18
	.byte	0
	.byte	0
Lcst_end0:
	.p2align	2

	.section	__TEXT,__text,regular,pure_instructions
	.p2align	4, 0x90
__ZN4core3ptr85drop_in_place$LT$std..rt..lang_start$LT$$LP$$RP$$GT$..$u7b$$u7b$closure$u7d$$u7d$$GT$17h8452938e688c66a5E:
Lfunc_begin7:
	.file	8 "/rustc/2c8cc343237b8f7d5a3c3703e3a87f2eb2c54a74/library/core/src/ptr" "mod.rs"
	.loc	8 490 0 is_stmt 1
	.cfi_startproc
	pushq	%rbp
	.cfi_def_cfa_offset 16
	.cfi_offset %rbp, -16
	movq	%rsp, %rbp
	.cfi_def_cfa_register %rbp
	pushq	%rax
	movq	%rdi, -8(%rbp)
Ltmp22:
	.loc	8 490 1 prologue_end
	addq	$8, %rsp
	popq	%rbp
	retq
Ltmp23:
Lfunc_end7:
	.cfi_endproc

	.p2align	4, 0x90
__ZN54_$LT$$LP$$RP$$u20$as$u20$std..process..Termination$GT$6report17h6081ff45a2bbd730E:
Lfunc_begin8:
	.loc	4 2182 0
	.cfi_startproc
	pushq	%rbp
	.cfi_def_cfa_offset 16
	.cfi_offset %rbp, -16
	movq	%rsp, %rbp
	.cfi_def_cfa_register %rbp
	pushq	%rax
Ltmp24:
	.loc	4 2184 6 prologue_end
	xorl	%eax, %eax
	addq	$8, %rsp
	popq	%rbp
	retq
Ltmp25:
Lfunc_end8:
	.cfi_endproc

	.p2align	4, 0x90
__ZN18build_script_build4main17haab3143f1f02bca5E:
Lfunc_begin9:
	.file	9 "/Users/natalie/.cargo/registry/src/github.com-1ecc6299db9ec823/memoffset-0.7.1" "build.rs"
	.loc	9 3 0
	.cfi_startproc
	.cfi_personality 155, _rust_eh_personality
	.cfi_lsda 16, Lexception1
	pushq	%rbp
	.cfi_def_cfa_offset 16
	.cfi_offset %rbp, -16
	movq	%rsp, %rbp
	.cfi_def_cfa_register %rbp
	subq	$416, %rsp
	leaq	-384(%rbp), %rdi
	movq	%rdi, -400(%rbp)
Ltmp60:
	.loc	9 4 14 prologue_end
	callq	__ZN7autocfg3new17h826195da96c0618eE
	movq	-400(%rbp), %rdi
Ltmp26:
	movl	$1, %esi
	movl	$20, %edx
Ltmp61:
	.loc	9 7 8
	callq	__ZN7autocfg7AutoCfg19probe_rustc_version17h442e8632859f25d8E
Ltmp27:
	movb	%al, -385(%rbp)
	jmp	LBB9_3
Ltmp62:
LBB9_1:
Ltmp57:
	.loc	9 0 8 is_stmt 0
	leaq	-384(%rbp), %rdi
	.loc	9 22 1 is_stmt 1
	callq	__ZN4core3ptr37drop_in_place$LT$autocfg..AutoCfg$GT$17h4840d40d68673402E
Ltmp58:
	jmp	LBB9_29
LBB9_2:
Ltmp56:
	.loc	9 0 1 is_stmt 0
	movq	%rax, %rcx
	movl	%edx, %eax
	movq	%rcx, -16(%rbp)
	movl	%eax, -8(%rbp)
	jmp	LBB9_1
LBB9_3:
	movb	-385(%rbp), %al
Ltmp63:
	.loc	9 7 8 is_stmt 1
	testb	$1, %al
	jne	LBB9_5
	jmp	LBB9_4
LBB9_4:
Ltmp32:
	.loc	9 0 8 is_stmt 0
	leaq	-384(%rbp), %rdi
	movl	$1, %esi
	movl	$31, %edx
	.loc	9 10 8 is_stmt 1
	callq	__ZN7autocfg7AutoCfg19probe_rustc_version17h442e8632859f25d8E
Ltmp33:
	movb	%al, -401(%rbp)
	jmp	LBB9_8
LBB9_5:
Ltmp28:
	.loc	9 8 9
	leaq	l___unnamed_5(%rip), %rsi
	leaq	l___unnamed_3(%rip), %rcx
	xorl	%eax, %eax
	movl	%eax, %r8d
	leaq	-256(%rbp), %rdi
	movl	$1, %edx
	callq	__ZN4core3fmt9Arguments6new_v117hf6bca945eff8b33fE
Ltmp29:
	jmp	LBB9_6
LBB9_6:
Ltmp30:
	.loc	9 0 9 is_stmt 0
	leaq	-256(%rbp), %rdi
	.loc	9 8 9
	callq	__ZN3std2io5stdio6_print17ha0d536e53b83a5ccE
Ltmp31:
	jmp	LBB9_7
LBB9_7:
	jmp	LBB9_4
LBB9_8:
	.loc	9 0 9
	movb	-401(%rbp), %al
	.loc	9 10 8 is_stmt 1
	testb	$1, %al
	jne	LBB9_10
	jmp	LBB9_9
LBB9_9:
Ltmp38:
	.loc	9 0 8 is_stmt 0
	leaq	-384(%rbp), %rdi
	movl	$1, %esi
	movl	$36, %edx
	.loc	9 13 8 is_stmt 1
	callq	__ZN7autocfg7AutoCfg19probe_rustc_version17h442e8632859f25d8E
Ltmp39:
	movb	%al, -402(%rbp)
	jmp	LBB9_13
LBB9_10:
Ltmp34:
	.loc	9 11 9
	leaq	l___unnamed_6(%rip), %rsi
	leaq	l___unnamed_3(%rip), %rcx
	xorl	%eax, %eax
	movl	%eax, %r8d
	leaq	-208(%rbp), %rdi
	movl	$1, %edx
	callq	__ZN4core3fmt9Arguments6new_v117hf6bca945eff8b33fE
Ltmp35:
	jmp	LBB9_11
LBB9_11:
Ltmp36:
	.loc	9 0 9 is_stmt 0
	leaq	-208(%rbp), %rdi
	.loc	9 11 9
	callq	__ZN3std2io5stdio6_print17ha0d536e53b83a5ccE
Ltmp37:
	jmp	LBB9_12
LBB9_12:
	jmp	LBB9_9
LBB9_13:
	.loc	9 0 9
	movb	-402(%rbp), %al
	.loc	9 13 8 is_stmt 1
	testb	$1, %al
	jne	LBB9_15
	jmp	LBB9_14
LBB9_14:
Ltmp44:
	.loc	9 0 8 is_stmt 0
	leaq	-384(%rbp), %rdi
	movl	$1, %esi
	movl	$40, %edx
	.loc	9 16 8 is_stmt 1
	callq	__ZN7autocfg7AutoCfg19probe_rustc_version17h442e8632859f25d8E
Ltmp45:
	movb	%al, -403(%rbp)
	jmp	LBB9_18
LBB9_15:
Ltmp40:
	.loc	9 14 9
	leaq	l___unnamed_7(%rip), %rsi
	leaq	l___unnamed_3(%rip), %rcx
	xorl	%eax, %eax
	movl	%eax, %r8d
	leaq	-160(%rbp), %rdi
	movl	$1, %edx
	callq	__ZN4core3fmt9Arguments6new_v117hf6bca945eff8b33fE
Ltmp41:
	jmp	LBB9_16
LBB9_16:
Ltmp42:
	.loc	9 0 9 is_stmt 0
	leaq	-160(%rbp), %rdi
	.loc	9 14 9
	callq	__ZN3std2io5stdio6_print17ha0d536e53b83a5ccE
Ltmp43:
	jmp	LBB9_17
LBB9_17:
	jmp	LBB9_14
LBB9_18:
	.loc	9 0 9
	movb	-403(%rbp), %al
	.loc	9 16 8 is_stmt 1
	testb	$1, %al
	jne	LBB9_20
	jmp	LBB9_19
LBB9_19:
Ltmp50:
	.loc	9 0 8 is_stmt 0
	leaq	-384(%rbp), %rdi
	movl	$1, %esi
	movl	$51, %edx
	.loc	9 19 8 is_stmt 1
	callq	__ZN7autocfg7AutoCfg19probe_rustc_version17h442e8632859f25d8E
Ltmp51:
	movb	%al, -404(%rbp)
	jmp	LBB9_23
LBB9_20:
Ltmp46:
	.loc	9 17 9
	leaq	l___unnamed_8(%rip), %rsi
	leaq	l___unnamed_3(%rip), %rcx
	xorl	%eax, %eax
	movl	%eax, %r8d
	leaq	-112(%rbp), %rdi
	movl	$1, %edx
	callq	__ZN4core3fmt9Arguments6new_v117hf6bca945eff8b33fE
Ltmp47:
	jmp	LBB9_21
LBB9_21:
Ltmp48:
	.loc	9 0 9 is_stmt 0
	leaq	-112(%rbp), %rdi
	.loc	9 17 9
	callq	__ZN3std2io5stdio6_print17ha0d536e53b83a5ccE
Ltmp49:
	jmp	LBB9_22
LBB9_22:
	jmp	LBB9_19
LBB9_23:
	.loc	9 0 9
	movb	-404(%rbp), %al
	.loc	9 19 8 is_stmt 1
	testb	$1, %al
	jne	LBB9_25
	jmp	LBB9_24
Ltmp64:
LBB9_24:
	.loc	9 22 1
	leaq	-384(%rbp), %rdi
	callq	__ZN4core3ptr37drop_in_place$LT$autocfg..AutoCfg$GT$17h4840d40d68673402E
	.loc	9 22 2 is_stmt 0
	addq	$416, %rsp
	popq	%rbp
	retq
LBB9_25:
Ltmp52:
Ltmp65:
	.loc	9 20 9 is_stmt 1
	leaq	l___unnamed_9(%rip), %rsi
	leaq	l___unnamed_3(%rip), %rcx
	xorl	%eax, %eax
	movl	%eax, %r8d
	leaq	-64(%rbp), %rdi
	movl	$1, %edx
	callq	__ZN4core3fmt9Arguments6new_v117hf6bca945eff8b33fE
Ltmp53:
	jmp	LBB9_26
LBB9_26:
Ltmp54:
	.loc	9 0 9 is_stmt 0
	leaq	-64(%rbp), %rdi
	.loc	9 20 9
	callq	__ZN3std2io5stdio6_print17ha0d536e53b83a5ccE
Ltmp55:
	jmp	LBB9_27
LBB9_27:
	jmp	LBB9_24
Ltmp66:
LBB9_28:
Ltmp59:
	.loc	9 3 1 is_stmt 1
	callq	__ZN4core9panicking19panic_cannot_unwind17h1fbca7e1d7f56ae1E
LBB9_29:
	movq	-16(%rbp), %rdi
	callq	__Unwind_Resume
Ltmp67:
Lfunc_end9:
	.cfi_endproc
	.section	__TEXT,__gcc_except_tab
	.p2align	2
GCC_except_table9:
Lexception1:
	.byte	255
	.byte	255
	.byte	1
	.uleb128 Lcst_end1-Lcst_begin1
Lcst_begin1:
	.uleb128 Lfunc_begin9-Lfunc_begin9
	.uleb128 Ltmp26-Lfunc_begin9
	.byte	0
	.byte	0
	.uleb128 Ltmp26-Lfunc_begin9
	.uleb128 Ltmp27-Ltmp26
	.uleb128 Ltmp56-Lfunc_begin9
	.byte	0
	.uleb128 Ltmp57-Lfunc_begin9
	.uleb128 Ltmp58-Ltmp57
	.uleb128 Ltmp59-Lfunc_begin9
	.byte	0
	.uleb128 Ltmp32-Lfunc_begin9
	.uleb128 Ltmp49-Ltmp32
	.uleb128 Ltmp56-Lfunc_begin9
	.byte	0
	.uleb128 Ltmp49-Lfunc_begin9
	.uleb128 Ltmp52-Ltmp49
	.byte	0
	.byte	0
	.uleb128 Ltmp52-Lfunc_begin9
	.uleb128 Ltmp55-Ltmp52
	.uleb128 Ltmp56-Lfunc_begin9
	.byte	0
	.uleb128 Ltmp55-Lfunc_begin9
	.uleb128 Lfunc_end9-Ltmp55
	.byte	0
	.byte	0
Lcst_end1:
	.p2align	2

	.section	__TEXT,__text,regular,pure_instructions
	.globl	_main
	.p2align	4, 0x90
_main:
Lfunc_begin10:
	.cfi_startproc
	pushq	%rbp
	.cfi_def_cfa_offset 16
	.cfi_offset %rbp, -16
	movq	%rsp, %rbp
	.cfi_def_cfa_register %rbp
	movq	%rsi, %rdx
	movslq	%edi, %rsi
	leaq	__ZN18build_script_build4main17haab3143f1f02bca5E(%rip), %rdi
	xorl	%ecx, %ecx
	callq	__ZN3std2rt10lang_start17ha02e1cb709177866E
	popq	%rbp
	retq
Lfunc_end10:
	.cfi_endproc

	.section	__DATA,__const
	.p2align	3
l___unnamed_1:
	.quad	__ZN4core3ptr85drop_in_place$LT$std..rt..lang_start$LT$$LP$$RP$$GT$..$u7b$$u7b$closure$u7d$$u7d$$GT$17h8452938e688c66a5E
	.asciz	"\b\000\000\000\000\000\000\000\b\000\000\000\000\000\000"
	.quad	__ZN4core3ops8function6FnOnce40call_once$u7b$$u7b$vtable.shim$u7d$$u7d$17h5dac54e890dcd45cE
	.quad	__ZN3std2rt10lang_start28_$u7b$$u7b$closure$u7d$$u7d$17h2b564e6f4521e01fE
	.quad	__ZN3std2rt10lang_start28_$u7b$$u7b$closure$u7d$$u7d$17h2b564e6f4521e01fE

	.section	__TEXT,__const
l___unnamed_10:
	.ascii	"invalid args"

	.section	__DATA,__const
	.p2align	3
l___unnamed_2:
	.quad	l___unnamed_10
	.asciz	"\f\000\000\000\000\000\000"

	.section	__TEXT,__const
	.p2align	3
l___unnamed_3:
	.byte	0

l___unnamed_11:
	.ascii	"/rustc/2c8cc343237b8f7d5a3c3703e3a87f2eb2c54a74/library/core/src/fmt/mod.rs"

	.section	__DATA,__const
	.p2align	3
l___unnamed_4:
	.quad	l___unnamed_11
	.asciz	"K\000\000\000\000\000\000\000\221\001\000\000\r\000\000"

	.section	__TEXT,__const
l___unnamed_12:
	.ascii	"cargo:rustc-cfg=tuple_ty\n"

	.section	__DATA,__const
	.p2align	3
l___unnamed_5:
	.quad	l___unnamed_12
	.asciz	"\031\000\000\000\000\000\000"

	.section	__TEXT,__const
l___unnamed_13:
	.ascii	"cargo:rustc-cfg=allow_clippy\n"

	.section	__DATA,__const
	.p2align	3
l___unnamed_6:
	.quad	l___unnamed_13
	.asciz	"\035\000\000\000\000\000\000"

	.section	__TEXT,__const
l___unnamed_14:
	.ascii	"cargo:rustc-cfg=maybe_uninit\n"

	.section	__DATA,__const
	.p2align	3
l___unnamed_7:
	.quad	l___unnamed_14
	.asciz	"\035\000\000\000\000\000\000"

	.section	__TEXT,__const
l___unnamed_15:
	.ascii	"cargo:rustc-cfg=doctests\n"

	.section	__DATA,__const
	.p2align	3
l___unnamed_8:
	.quad	l___unnamed_15
	.asciz	"\031\000\000\000\000\000\000"

	.section	__TEXT,__const
l___unnamed_16:
	.ascii	"cargo:rustc-cfg=raw_ref_macros\n"

	.section	__DATA,__const
	.p2align	3
l___unnamed_9:
	.quad	l___unnamed_16
	.asciz	"\037\000\000\000\000\000\000"

	.section	__DATA,__const
Lsec_end0:
	.section	__TEXT,__text,regular,pure_instructions
Lsec_end1: