	.section	__TEXT,__text,regular,pure_instructions
	.macosx_version_min 10, 7
	.p2align	4, 0x90
__ZN104_$LT$core..ops..control_flow..ControlFlow$LT$B$C$C$GT$$u20$as$u20$core..ops..try_trait..FromResidual$GT$13from_residual17h641c5f504e30a0f5E:
Lfunc_begin0:
	.file	1 "/rustc/2c8cc343237b8f7d5a3c3703e3a87f2eb2c54a74/library/core/src/ops" "control_flow.rs"
	.loc	1 123 0
	.cfi_startproc
	pushq	%rbp
	.cfi_def_cfa_offset 16
	.cfi_offset %rbp, -16
	movq	%rsp, %rbp
	.cfi_def_cfa_register %rbp
	subq	$24, %rsp
Ltmp0:
	.loc	1 125 38 prologue_end
	movb	$1, -17(%rbp)
Ltmp1:
	.loc	1 127 6
	movb	-17(%rbp), %al
	andb	$1, %al
	movzbl	%al, %eax
	addq	$24, %rsp
	popq	%rbp
	retq
Ltmp2:
Lfunc_end0:
	.cfi_endproc

	.p2align	4, 0x90
__ZN104_$LT$core..ops..control_flow..ControlFlow$LT$B$C$C$GT$$u20$as$u20$core..ops..try_trait..FromResidual$GT$13from_residual17h975f23018b2a4f90E:
Lfunc_begin1:
	.loc	1 123 0
	.cfi_startproc
	pushq	%rbp
	.cfi_def_cfa_offset 16
	.cfi_offset %rbp, -16
	movq	%rsp, %rbp
	.cfi_def_cfa_register %rbp
	subq	$32, %rsp
	movq	%rdi, -32(%rbp)
Ltmp3:
	.loc	1 125 32 prologue_end
	movq	-32(%rbp), %rax
	movq	%rax, -8(%rbp)
Ltmp4:
	.loc	1 125 38 is_stmt 0
	movq	%rax, -16(%rbp)
	movq	$1, -24(%rbp)
Ltmp5:
	.loc	1 127 6 is_stmt 1
	movq	-24(%rbp), %rax
	movq	-16(%rbp), %rdx
	addq	$32, %rsp
	popq	%rbp
	retq
Ltmp6:
Lfunc_end1:
	.cfi_endproc

	.p2align	4, 0x90
__ZN106_$LT$core..ops..range..Range$LT$usize$GT$$u20$as$u20$core..slice..index..SliceIndex$LT$$u5b$T$u5d$$GT$$GT$13get_unchecked17h9041466736f7eb55E:
Lfunc_begin2:
	.file	2 "/rustc/2c8cc343237b8f7d5a3c3703e3a87f2eb2c54a74/library/core/src/slice" "index.rs"
	.loc	2 373 0
	.cfi_startproc
	pushq	%rbp
	.cfi_def_cfa_offset 16
	.cfi_offset %rbp, -16
	movq	%rsp, %rbp
	.cfi_def_cfa_register %rbp
	subq	$160, %rsp
	movq	%rdi, -128(%rbp)
	movq	%rsi, -120(%rbp)
	movq	%rdx, -112(%rbp)
	movq	%rcx, -104(%rbp)
Ltmp7:
	.loc	2 386 39 prologue_end
	movq	%rdx, -96(%rbp)
	movq	%rcx, -88(%rbp)
Ltmp8:
	.file	3 "/rustc/2c8cc343237b8f7d5a3c3703e3a87f2eb2c54a74/library/core/src/ptr" "const_ptr.rs"
	.loc	3 1650 9
	movq	%rdx, -80(%rbp)
Ltmp9:
	.loc	2 386 58
	movq	%rdi, -72(%rbp)
Ltmp10:
	.loc	3 932 18
	movq	%rdx, -64(%rbp)
	.loc	3 932 30 is_stmt 0
	movq	%rdi, -56(%rbp)
Ltmp11:
	.loc	3 473 18 is_stmt 1
	addq	%rdi, %rdx
	movq	%rdx, -48(%rbp)
	movq	-48(%rbp), %rax
	movq	%rax, -40(%rbp)
Ltmp12:
	.loc	2 386 71
	subq	%rdi, %rsi
	movq	%rsi, -32(%rbp)
Ltmp13:
	.file	4 "/rustc/2c8cc343237b8f7d5a3c3703e3a87f2eb2c54a74/library/core/src/ptr" "mod.rs"
	.loc	4 734 20
	movq	%rax, -24(%rbp)
Ltmp14:
	.loc	3 61 9
	movq	%rax, -16(%rbp)
Ltmp15:
	.loc	4 734 33
	movq	%rsi, -8(%rbp)
Ltmp16:
	.file	5 "/rustc/2c8cc343237b8f7d5a3c3703e3a87f2eb2c54a74/library/core/src/ptr" "metadata.rs"
	.loc	5 118 36
	movq	%rax, -144(%rbp)
	movq	%rsi, -136(%rbp)
	.loc	5 118 14 is_stmt 0
	movq	-144(%rbp), %rcx
	movq	-136(%rbp), %rax
	movq	%rcx, -160(%rbp)
	movq	%rax, -152(%rbp)
	movq	-160(%rbp), %rax
	movq	-152(%rbp), %rdx
Ltmp17:
	.loc	2 388 6 is_stmt 1
	addq	$160, %rsp
	popq	%rbp
	retq
Ltmp18:
Lfunc_end2:
	.cfi_endproc

	.p2align	4, 0x90
__ZN106_$LT$core..ops..range..Range$LT$usize$GT$$u20$as$u20$core..slice..index..SliceIndex$LT$$u5b$T$u5d$$GT$$GT$17get_unchecked_mut17h44cc156cbf5a48c3E:
Lfunc_begin3:
	.loc	2 391 0
	.cfi_startproc
	pushq	%rbp
	.cfi_def_cfa_offset 16
	.cfi_offset %rbp, -16
	movq	%rsp, %rbp
	.cfi_def_cfa_register %rbp
	subq	$160, %rsp
	movq	%rdi, -128(%rbp)
	movq	%rsi, -120(%rbp)
	movq	%rdx, -112(%rbp)
	movq	%rcx, -104(%rbp)
Ltmp19:
	.loc	2 400 43 prologue_end
	movq	%rdx, -96(%rbp)
	movq	%rcx, -88(%rbp)
Ltmp20:
	.file	6 "/rustc/2c8cc343237b8f7d5a3c3703e3a87f2eb2c54a74/library/core/src/ptr" "mut_ptr.rs"
	.loc	6 2037 9
	movq	%rdx, -80(%rbp)
Ltmp21:
	.loc	2 400 66
	movq	%rdi, -72(%rbp)
Ltmp22:
	.loc	6 1034 18
	movq	%rdx, -64(%rbp)
	.loc	6 1034 30 is_stmt 0
	movq	%rdi, -56(%rbp)
Ltmp23:
	.loc	6 487 18 is_stmt 1
	addq	%rdi, %rdx
	movq	%rdx, -48(%rbp)
	movq	-48(%rbp), %rax
	movq	%rax, -40(%rbp)
Ltmp24:
	.loc	2 400 79
	subq	%rdi, %rsi
	movq	%rsi, -32(%rbp)
Ltmp25:
	.loc	4 766 24
	movq	%rax, -24(%rbp)
Ltmp26:
	.loc	6 60 9
	movq	%rax, -16(%rbp)
Ltmp27:
	.loc	4 766 37
	movq	%rsi, -8(%rbp)
Ltmp28:
	.loc	5 135 36
	movq	%rax, -144(%rbp)
	movq	%rsi, -136(%rbp)
	.loc	5 135 14 is_stmt 0
	movq	-144(%rbp), %rcx
	movq	-136(%rbp), %rax
	movq	%rcx, -160(%rbp)
	movq	%rax, -152(%rbp)
	movq	-160(%rbp), %rax
	movq	-152(%rbp), %rdx
Ltmp29:
	.loc	2 402 6 is_stmt 1
	addq	$160, %rsp
	popq	%rbp
	retq
Ltmp30:
Lfunc_end3:
	.cfi_endproc

	.p2align	4, 0x90
__ZN106_$LT$core..ops..range..Range$LT$usize$GT$$u20$as$u20$core..slice..index..SliceIndex$LT$$u5b$T$u5d$$GT$$GT$3get17h5b74a980f3a99c6cE:
Lfunc_begin4:
	.loc	2 353 0
	.cfi_startproc
	pushq	%rbp
	.cfi_def_cfa_offset 16
	.cfi_offset %rbp, -16
	movq	%rsp, %rbp
	.cfi_def_cfa_register %rbp
	subq	$96, %rsp
	movq	%rdi, -88(%rbp)
	movq	%rsi, -80(%rbp)
	movq	%rdx, -72(%rbp)
	movq	%rcx, -64(%rbp)
	movq	%rdi, -32(%rbp)
	movq	%rsi, -24(%rbp)
	movq	%rdx, -16(%rbp)
	movq	%rcx, -8(%rbp)
Ltmp31:
	.loc	2 354 12 prologue_end
	cmpq	%rsi, %rdi
	ja	LBB4_2
	.loc	2 0 12 is_stmt 0
	movq	-80(%rbp), %rax
	movq	-64(%rbp), %rcx
	.loc	2 354 37
	cmpq	%rcx, %rax
	seta	%al
	.loc	2 354 12
	andb	$1, %al
	movb	%al, -33(%rbp)
	jmp	LBB4_3
LBB4_2:
	movb	$1, -33(%rbp)
LBB4_3:
	testb	$1, -33(%rbp)
	jne	LBB4_5
	.loc	2 0 12
	movq	-64(%rbp), %rcx
	movq	-72(%rbp), %rdx
	movq	-80(%rbp), %rsi
	movq	-88(%rbp), %rdi
	.loc	2 358 29 is_stmt 1
	callq	__ZN106_$LT$core..ops..range..Range$LT$usize$GT$$u20$as$u20$core..slice..index..SliceIndex$LT$$u5b$T$u5d$$GT$$GT$13get_unchecked17h9041466736f7eb55E
	.loc	2 358 22 is_stmt 0
	movq	%rax, -56(%rbp)
	movq	%rdx, -48(%rbp)
	.loc	2 354 9 is_stmt 1
	jmp	LBB4_6
LBB4_5:
	.loc	2 355 13
	movq	$0, -56(%rbp)
LBB4_6:
	.loc	2 360 6
	movq	-56(%rbp), %rax
	movq	-48(%rbp), %rdx
	addq	$96, %rsp
	popq	%rbp
	retq
Ltmp32:
Lfunc_end4:
	.cfi_endproc

	.p2align	4, 0x90
__ZN106_$LT$core..ops..range..Range$LT$usize$GT$$u20$as$u20$core..slice..index..SliceIndex$LT$$u5b$T$u5d$$GT$$GT$5index17he04d3c74fe457ce2E:
Lfunc_begin5:
	.loc	2 405 0
	.cfi_startproc
	pushq	%rbp
	.cfi_def_cfa_offset 16
	.cfi_offset %rbp, -16
	movq	%rsp, %rbp
	.cfi_def_cfa_register %rbp
	subq	$80, %rsp
	movq	%rdi, -72(%rbp)
	movq	%rsi, -64(%rbp)
	movq	%rdx, -56(%rbp)
	movq	%rcx, -48(%rbp)
	movq	%r8, -40(%rbp)
	movq	%rdi, -32(%rbp)
	movq	%rsi, -24(%rbp)
	movq	%rdx, -16(%rbp)
	movq	%rcx, -8(%rbp)
Ltmp33:
	.loc	2 406 12 prologue_end
	cmpq	%rsi, %rdi
	ja	LBB5_2
	.loc	2 0 12 is_stmt 0
	movq	-64(%rbp), %rax
	movq	-48(%rbp), %rcx
	.loc	2 408 19 is_stmt 1
	cmpq	%rcx, %rax
	ja	LBB5_4
	jmp	LBB5_3
LBB5_2:
	.loc	2 0 19 is_stmt 0
	movq	-40(%rbp), %rdx
	movq	-64(%rbp), %rsi
	movq	-72(%rbp), %rdi
	.loc	2 407 13 is_stmt 1
	callq	__ZN4core5slice5index22slice_index_order_fail17h0d8f800a07d5f26eE
LBB5_3:
	.loc	2 0 13 is_stmt 0
	movq	-48(%rbp), %rcx
	movq	-56(%rbp), %rdx
	movq	-64(%rbp), %rsi
	movq	-72(%rbp), %rdi
	.loc	2 412 20 is_stmt 1
	callq	__ZN106_$LT$core..ops..range..Range$LT$usize$GT$$u20$as$u20$core..slice..index..SliceIndex$LT$$u5b$T$u5d$$GT$$GT$13get_unchecked17h9041466736f7eb55E
	.loc	2 413 6
	addq	$80, %rsp
	popq	%rbp
	retq
LBB5_4:
	.loc	2 0 6 is_stmt 0
	movq	-40(%rbp), %rdx
	movq	-48(%rbp), %rsi
	movq	-64(%rbp), %rdi
	.loc	2 409 13 is_stmt 1
	callq	__ZN4core5slice5index24slice_end_index_len_fail17hc921cb2f1513645aE
Ltmp34:
Lfunc_end5:
	.cfi_endproc

	.p2align	4, 0x90
__ZN106_$LT$core..ops..range..Range$LT$usize$GT$$u20$as$u20$core..slice..index..SliceIndex$LT$$u5b$T$u5d$$GT$$GT$9index_mut17hfbd5e4400ccd698dE:
Lfunc_begin6:
	.loc	2 416 0
	.cfi_startproc
	pushq	%rbp
	.cfi_def_cfa_offset 16
	.cfi_offset %rbp, -16
	movq	%rsp, %rbp
	.cfi_def_cfa_register %rbp
	subq	$80, %rsp
	movq	%rdi, -72(%rbp)
	movq	%rsi, -64(%rbp)
	movq	%rdx, -56(%rbp)
	movq	%rcx, -48(%rbp)
	movq	%r8, -40(%rbp)
	movq	%rdi, -32(%rbp)
	movq	%rsi, -24(%rbp)
	movq	%rdx, -16(%rbp)
	movq	%rcx, -8(%rbp)
Ltmp35:
	.loc	2 417 12 prologue_end
	cmpq	%rsi, %rdi
	ja	LBB6_2
	.loc	2 0 12 is_stmt 0
	movq	-64(%rbp), %rax
	movq	-48(%rbp), %rcx
	.loc	2 419 19 is_stmt 1
	cmpq	%rcx, %rax
	ja	LBB6_4
	jmp	LBB6_3
LBB6_2:
	.loc	2 0 19 is_stmt 0
	movq	-40(%rbp), %rdx
	movq	-64(%rbp), %rsi
	movq	-72(%rbp), %rdi
	.loc	2 418 13 is_stmt 1
	callq	__ZN4core5slice5index22slice_index_order_fail17h0d8f800a07d5f26eE
LBB6_3:
	.loc	2 0 13 is_stmt 0
	movq	-48(%rbp), %rcx
	movq	-56(%rbp), %rdx
	movq	-64(%rbp), %rsi
	movq	-72(%rbp), %rdi
	.loc	2 423 24 is_stmt 1
	callq	__ZN106_$LT$core..ops..range..Range$LT$usize$GT$$u20$as$u20$core..slice..index..SliceIndex$LT$$u5b$T$u5d$$GT$$GT$17get_unchecked_mut17h44cc156cbf5a48c3E
	.loc	2 424 6
	addq	$80, %rsp
	popq	%rbp
	retq
LBB6_4:
	.loc	2 0 6 is_stmt 0
	movq	-40(%rbp), %rdx
	movq	-48(%rbp), %rsi
	movq	-64(%rbp), %rdi
	.loc	2 420 13 is_stmt 1
	callq	__ZN4core5slice5index24slice_end_index_len_fail17hc921cb2f1513645aE
Ltmp36:
Lfunc_end6:
	.cfi_endproc

	.p2align	4, 0x90
__ZN110_$LT$core..ops..range..RangeFrom$LT$usize$GT$$u20$as$u20$core..slice..index..SliceIndex$LT$$u5b$T$u5d$$GT$$GT$5index17hc67d6c8feff8006dE:
Lfunc_begin7:
	.loc	2 493 0
	.cfi_startproc
	pushq	%rbp
	.cfi_def_cfa_offset 16
	.cfi_offset %rbp, -16
	movq	%rsp, %rbp
	.cfi_def_cfa_register %rbp
	subq	$144, %rsp
	movq	%rdi, -144(%rbp)
	movq	%rsi, -136(%rbp)
	movq	%rdx, -128(%rbp)
	movq	%rcx, -120(%rbp)
	movq	%rdi, -80(%rbp)
	movq	%rsi, -72(%rbp)
	movq	%rdx, -64(%rbp)
Ltmp37:
	.loc	2 494 12 prologue_end
	cmpq	%rdx, %rdi
	ja	LBB7_2
	.loc	2 0 12 is_stmt 0
	movq	-128(%rbp), %rcx
	movq	-136(%rbp), %rdx
	movq	-144(%rbp), %rsi
	.loc	2 498 20 is_stmt 1
	movq	%rsi, -56(%rbp)
	.loc	2 498 39 is_stmt 0
	movq	%rdx, -48(%rbp)
	movq	%rcx, -40(%rbp)
Ltmp38:
	.loc	2 483 31 is_stmt 1
	movq	%rdx, -32(%rbp)
	movq	%rcx, -24(%rbp)
Ltmp39:
	.loc	3 1630 18
	movq	%rdx, -16(%rbp)
	movq	%rcx, -8(%rbp)
Ltmp40:
	.loc	5 98 14
	movq	%rdx, -96(%rbp)
	movq	%rcx, -88(%rbp)
	movq	-88(%rbp), %rax
Ltmp41:
	.loc	2 483 18
	movq	%rsi, -112(%rbp)
	movq	%rax, -104(%rbp)
	movq	-112(%rbp), %rdi
	movq	-104(%rbp), %rsi
	callq	__ZN106_$LT$core..ops..range..Range$LT$usize$GT$$u20$as$u20$core..slice..index..SliceIndex$LT$$u5b$T$u5d$$GT$$GT$13get_unchecked17h9041466736f7eb55E
Ltmp42:
	.loc	2 499 6
	addq	$144, %rsp
	popq	%rbp
	retq
LBB7_2:
	.loc	2 0 6 is_stmt 0
	movq	-120(%rbp), %rdx
	movq	-128(%rbp), %rsi
	movq	-144(%rbp), %rdi
	.loc	2 495 13 is_stmt 1
	callq	__ZN4core5slice5index26slice_start_index_len_fail17h9d301bb51ec3e351E
Ltmp43:
Lfunc_end7:
	.cfi_endproc

	.p2align	4, 0x90
__ZN111_$LT$core..iter..adapters..zip..Zip$LT$A$C$B$GT$$u20$as$u20$core..iter..adapters..zip..ZipImpl$LT$A$C$B$GT$$GT$3new17h3da239bd42816f12E:
Lfunc_begin8:
	.file	7 "/rustc/2c8cc343237b8f7d5a3c3703e3a87f2eb2c54a74/library/core/src/iter/adapters" "zip.rs"
	.loc	7 262 0
	.cfi_startproc
	.cfi_personality 155, _rust_eh_personality
	.cfi_lsda 16, Lexception0
	pushq	%rbp
	.cfi_def_cfa_offset 16
	.cfi_offset %rbp, -16
	movq	%rsp, %rbp
	.cfi_def_cfa_register %rbp
	subq	$144, %rsp
	movq	%rdi, -120(%rbp)
	movq	%rdi, -112(%rbp)
	movq	%rsi, -96(%rbp)
	movq	%rdx, -88(%rbp)
	movq	%rcx, -80(%rbp)
	movq	%r8, -72(%rbp)
Ltmp44:
	leaq	-96(%rbp), %rdi
Ltmp51:
	.loc	7 263 21 prologue_end
	callq	__ZN4core4iter8adapters3zip27TrustedRandomAccessNoCoerce4size17h07f0ae49a85968e7E
Ltmp45:
	movq	%rax, -104(%rbp)
	jmp	LBB8_3
LBB8_1:
	.loc	7 262 5
	movq	-64(%rbp), %rdi
	callq	__Unwind_Resume
LBB8_2:
Ltmp50:
	.loc	7 0 5 is_stmt 0
	movq	%rax, %rcx
	movl	%edx, %eax
	movq	%rcx, -64(%rbp)
	movl	%eax, -56(%rbp)
	jmp	LBB8_1
LBB8_3:
	movq	-104(%rbp), %rax
	.loc	7 263 21 is_stmt 1
	movq	%rax, -48(%rbp)
Ltmp52:
	.loc	7 264 28
	movq	%rax, -40(%rbp)
Ltmp46:
	leaq	-80(%rbp), %rdi
	.loc	7 264 35 is_stmt 0
	callq	__ZN4core4iter8adapters3zip27TrustedRandomAccessNoCoerce4size17h07f0ae49a85968e7E
Ltmp47:
	movq	%rax, -128(%rbp)
	jmp	LBB8_4
LBB8_4:
	.loc	7 0 35
	movq	-128(%rbp), %rsi
	movq	-104(%rbp), %rdi
	.loc	7 264 35
	movq	%rsi, -32(%rbp)
Ltmp53:
	.file	8 "/rustc/2c8cc343237b8f7d5a3c3703e3a87f2eb2c54a74/library/core/src" "cmp.rs"
	.loc	8 1185 5 is_stmt 1
	movq	%rdi, -24(%rbp)
	.loc	8 1185 12 is_stmt 0
	movq	%rsi, -16(%rbp)
Ltmp48:
Ltmp54:
	.loc	8 833 13 is_stmt 1
	callq	__ZN4core3cmp6min_by17h80543aabab451d13E
Ltmp49:
	movq	%rax, -136(%rbp)
	jmp	LBB8_5
LBB8_5:
	.loc	8 0 13 is_stmt 0
	movq	-112(%rbp), %rax
	movq	-120(%rbp), %rcx
	movq	-104(%rbp), %rdx
	movq	-136(%rbp), %rsi
	.loc	8 833 13
	movq	%rsi, -8(%rbp)
Ltmp55:
	.loc	7 265 15 is_stmt 1
	movq	-96(%rbp), %r10
	movq	-88(%rbp), %r9
	.loc	7 265 18 is_stmt 0
	movq	-80(%rbp), %r8
	movq	-72(%rbp), %rdi
	.loc	7 265 9
	movq	%r10, (%rcx)
	movq	%r9, 8(%rcx)
	movq	%r8, 16(%rcx)
	movq	%rdi, 24(%rcx)
	movq	$0, 32(%rcx)
	movq	%rsi, 40(%rcx)
	movq	%rdx, 48(%rcx)
Ltmp56:
	.loc	7 266 6 is_stmt 1
	addq	$144, %rsp
	popq	%rbp
	retq
Ltmp57:
Lfunc_end8:
	.cfi_endproc
	.section	__TEXT,__gcc_except_tab
	.p2align	2
GCC_except_table8:
Lexception0:
	.byte	255
	.byte	255
	.byte	1
	.uleb128 Lcst_end0-Lcst_begin0
Lcst_begin0:
	.uleb128 Ltmp44-Lfunc_begin8
	.uleb128 Ltmp45-Ltmp44
	.uleb128 Ltmp50-Lfunc_begin8
	.byte	0
	.uleb128 Ltmp45-Lfunc_begin8
	.uleb128 Ltmp46-Ltmp45
	.byte	0
	.byte	0
	.uleb128 Ltmp46-Lfunc_begin8
	.uleb128 Ltmp49-Ltmp46
	.uleb128 Ltmp50-Lfunc_begin8
	.byte	0
Lcst_end0:
	.p2align	2

	.section	__TEXT,__text,regular,pure_instructions
	.p2align	4, 0x90
__ZN111_$LT$core..iter..adapters..zip..Zip$LT$A$C$B$GT$$u20$as$u20$core..iter..adapters..zip..ZipImpl$LT$A$C$B$GT$$GT$4next17h8d478919a1a3980eE:
Lfunc_begin9:
	.loc	7 269 0
	.cfi_startproc
	.cfi_personality 155, _rust_eh_personality
	.cfi_lsda 16, Lexception1
	pushq	%rbp
	.cfi_def_cfa_offset 16
	.cfi_offset %rbp, -16
	movq	%rsp, %rbp
	.cfi_def_cfa_register %rbp
	subq	$112, %rsp
	movq	%rdi, -88(%rbp)
	movq	%rdi, -40(%rbp)
Ltmp61:
	.loc	7 270 12 prologue_end
	movq	32(%rdi), %rax
	cmpq	40(%rdi), %rax
	jb	LBB9_2
	.loc	7 279 19
	xorl	%eax, %eax
	testb	$1, %al
	jne	LBB9_8
	jmp	LBB9_7
LBB9_2:
	.loc	7 0 19 is_stmt 0
	movq	-88(%rbp), %rdi
	.loc	7 271 21 is_stmt 1
	movq	32(%rdi), %rsi
	movq	%rsi, -112(%rbp)
	movq	%rsi, -32(%rbp)
Ltmp62:
	.loc	7 274 13
	movq	32(%rdi), %rax
	incq	%rax
	movq	%rax, 32(%rdi)
	.loc	7 277 23
	callq	__ZN91_$LT$core..slice..iter..Iter$LT$T$GT$$u20$as$u20$core..iter..traits..iterator..Iterator$GT$24__iterator_get_unchecked17ha05e9e97270bdd9dE
	movq	-88(%rbp), %rdi
	movq	-112(%rbp), %rsi
	movq	%rax, -104(%rbp)
	.loc	7 277 59 is_stmt 0
	addq	$16, %rdi
Ltmp58:
	callq	__ZN91_$LT$core..slice..iter..Iter$LT$T$GT$$u20$as$u20$core..iter..traits..iterator..Iterator$GT$24__iterator_get_unchecked17ha05e9e97270bdd9dE
Ltmp59:
	movq	%rax, -96(%rbp)
	jmp	LBB9_5
Ltmp63:
LBB9_3:
	.loc	7 269 5 is_stmt 1
	movq	-24(%rbp), %rdi
	callq	__Unwind_Resume
LBB9_4:
Ltmp60:
	.loc	7 0 5 is_stmt 0
	movq	%rax, %rcx
	movl	%edx, %eax
	movq	%rcx, -24(%rbp)
	movl	%eax, -16(%rbp)
	jmp	LBB9_3
LBB9_5:
	movq	-96(%rbp), %rax
	movq	-104(%rbp), %rcx
Ltmp64:
	.loc	7 277 22 is_stmt 1
	movq	%rcx, -64(%rbp)
	movq	%rax, -56(%rbp)
	.loc	7 277 17 is_stmt 0
	movq	-64(%rbp), %rcx
	movq	-56(%rbp), %rax
	movq	%rcx, -80(%rbp)
	movq	%rax, -72(%rbp)
Ltmp65:
LBB9_6:
	.loc	7 293 6 is_stmt 1
	movq	-80(%rbp), %rax
	movq	-72(%rbp), %rdx
	addq	$112, %rsp
	popq	%rbp
	retq
LBB9_7:
	.loc	7 279 19
	movb	$0, -41(%rbp)
	jmp	LBB9_9
LBB9_8:
	.loc	7 0 19 is_stmt 0
	movq	-88(%rbp), %rcx
	.loc	7 279 46
	movq	32(%rcx), %rax
	cmpq	48(%rcx), %rax
	setb	%al
	.loc	7 279 19
	andb	$1, %al
	movb	%al, -41(%rbp)
LBB9_9:
	testb	$1, -41(%rbp)
	jne	LBB9_11
	.loc	7 291 13 is_stmt 1
	movq	$0, -80(%rbp)
	.loc	7 279 16
	jmp	LBB9_12
LBB9_11:
	.loc	7 0 16 is_stmt 0
	movq	-88(%rbp), %rdi
	.loc	7 280 21 is_stmt 1
	movq	32(%rdi), %rsi
	movq	%rsi, -8(%rbp)
Ltmp66:
	.loc	7 282 13
	movq	32(%rdi), %rax
	addq	$1, %rax
	movq	%rax, 32(%rdi)
	.loc	7 283 13
	movq	40(%rdi), %rax
	addq	$1, %rax
	movq	%rax, 40(%rdi)
	.loc	7 287 17
	callq	__ZN91_$LT$core..slice..iter..Iter$LT$T$GT$$u20$as$u20$core..iter..traits..iterator..Iterator$GT$24__iterator_get_unchecked17ha05e9e97270bdd9dE
	.loc	7 289 13
	movq	$0, -80(%rbp)
Ltmp67:
LBB9_12:
	.loc	7 270 9
	jmp	LBB9_6
Ltmp68:
Lfunc_end9:
	.cfi_endproc
	.section	__TEXT,__gcc_except_tab
	.p2align	2
GCC_except_table9:
Lexception1:
	.byte	255
	.byte	255
	.byte	1
	.uleb128 Lcst_end1-Lcst_begin1
Lcst_begin1:
	.uleb128 Lfunc_begin9-Lfunc_begin9
	.uleb128 Ltmp58-Lfunc_begin9
	.byte	0
	.byte	0
	.uleb128 Ltmp58-Lfunc_begin9
	.uleb128 Ltmp59-Ltmp58
	.uleb128 Ltmp60-Lfunc_begin9
	.byte	0
	.uleb128 Ltmp59-Lfunc_begin9
	.uleb128 Lfunc_end9-Ltmp59
	.byte	0
	.byte	0
Lcst_end1:
	.p2align	2

	.section	__TEXT,__text,regular,pure_instructions
	.p2align	4, 0x90
__ZN114_$LT$core..core_simd..masks..Mask$LT$T$C$16_usize$GT$$u20$as$u20$core..core_simd..masks..to_bitmask..ToBitMask$GT$10to_bitmask17h511dc7a7339e212dE:
Lfunc_begin10:
	.file	9 "/rustc/2c8cc343237b8f7d5a3c3703e3a87f2eb2c54a74/library/core/src/../../portable-simd/crates/core_simd/src/masks" "to_bitmask.rs"
	.loc	9 51 0
	.cfi_startproc
	pushq	%rbp
	.cfi_def_cfa_offset 16
	.cfi_offset %rbp, -16
	movq	%rsp, %rbp
	.cfi_def_cfa_register %rbp
	subq	$32, %rsp
Ltmp69:
	.loc	9 52 17 prologue_end
	movaps	(%rdi), %xmm0
	movaps	%xmm0, -32(%rbp)
Ltmp70:
	.file	10 "/rustc/2c8cc343237b8f7d5a3c3703e3a87f2eb2c54a74/library/core/src/../../portable-simd/crates/core_simd/src/masks" "full_masks.rs"
	.loc	10 213 35
	pmovmskb	%xmm0, %eax
	movw	%ax, -2(%rbp)
	movw	-2(%rbp), %ax
Ltmp71:
	.loc	9 53 14
	addq	$32, %rsp
	popq	%rbp
	retq
Ltmp72:
Lfunc_end10:
	.cfi_endproc

	.p2align	4, 0x90
__ZN116_$LT$core..core_simd..vector..Simd$LT$T$C$_$GT$$u20$as$u20$core..convert..From$LT$$u5b$T$u3b$$u20$LANES$u5d$$GT$$GT$4from17h87ec8f1ee6092f56E:
Lfunc_begin11:
	.file	11 "/rustc/2c8cc343237b8f7d5a3c3703e3a87f2eb2c54a74/library/core/src/../../portable-simd/crates/core_simd/src" "vector.rs"
	.loc	11 627 0
	.cfi_startproc
	pushq	%rbp
	.cfi_def_cfa_offset 16
	.cfi_offset %rbp, -16
	movq	%rsp, %rbp
	.cfi_def_cfa_register %rbp
	subq	$3, %rsp
	movb	%sil, %cl
	movq	%rdi, %rax
	movb	%cl, -2(%rbp)
	movb	-2(%rbp), %cl
	movb	%cl, -3(%rbp)
Ltmp73:
	.loc	11 628 14 prologue_end
	movb	-3(%rbp), %cl
	movb	%cl, -1(%rbp)
	.loc	11 628 9 is_stmt 0
	movb	-1(%rbp), %cl
	movb	%cl, (%rdi)
	.loc	11 629 6 is_stmt 1
	addq	$3, %rsp
	popq	%rbp
	retq
Ltmp74:
Lfunc_end11:
	.cfi_endproc

	.p2align	4, 0x90
__ZN119_$LT$alloc..collections..btree..map..BTreeMap$LT$K$C$V$C$A$GT$$u20$as$u20$core..iter..traits..collect..IntoIterator$GT$9into_iter17hc28fb654d60d59c8E:
Lfunc_begin12:
	.file	12 "/rustc/2c8cc343237b8f7d5a3c3703e3a87f2eb2c54a74/library/alloc/src/collections/btree" "map.rs"
	.loc	12 1615 0
	.cfi_startproc
	pushq	%rbp
	.cfi_def_cfa_offset 16
	.cfi_offset %rbp, -16
	movq	%rsp, %rbp
	.cfi_def_cfa_register %rbp
	subq	$480, %rsp
	movq	%rdi, -464(%rbp)
	movq	%rdi, -456(%rbp)
Ltmp75:
	.loc	12 1616 40 prologue_end
	movq	16(%rsi), %rax
	movq	%rax, -408(%rbp)
	movq	(%rsi), %rax
	movq	8(%rsi), %rcx
	movq	%rcx, -416(%rbp)
	movq	%rax, -424(%rbp)
Ltmp76:
	.file	13 "/rustc/2c8cc343237b8f7d5a3c3703e3a87f2eb2c54a74/library/core/src/mem" "manually_drop.rs"
	.loc	13 71 24
	movq	-408(%rbp), %rax
	movq	%rax, -176(%rbp)
	movq	-424(%rbp), %rax
	movq	-416(%rbp), %rcx
	movq	%rcx, -184(%rbp)
	movq	%rax, -192(%rbp)
	.loc	13 71 9 is_stmt 0
	movq	-176(%rbp), %rax
	movq	%rax, -432(%rbp)
	movq	-192(%rbp), %rax
	movq	-184(%rbp), %rcx
	movq	%rcx, -440(%rbp)
	movq	%rax, -448(%rbp)
	leaq	-448(%rbp), %rdi
Ltmp77:
	.loc	12 1617 29 is_stmt 1
	movq	%rdi, -104(%rbp)
	movq	%rdi, -96(%rbp)
Ltmp78:
	.file	14 "/rustc/2c8cc343237b8f7d5a3c3703e3a87f2eb2c54a74/library/core/src" "option.rs"
	.loc	14 1623 28
	movq	$0, -160(%rbp)
	.loc	14 1623 9 is_stmt 0
	movq	-168(%rbp), %rsi
Ltmp79:
	movq	-160(%rbp), %rdx
	callq	__ZN4core3mem7replace17ha8326c24c40284e2E
	movq	%rdx, -392(%rbp)
	movq	%rax, -400(%rbp)
Ltmp80:
	.loc	12 1617 16 is_stmt 1
	movq	-392(%rbp), %rdx
	movl	$1, %eax
	xorl	%ecx, %ecx
	cmpq	$0, %rdx
	cmoveq	%rcx, %rax
	cmpq	$1, %rax
	jne	LBB12_2
Ltmp81:
	.loc	12 1617 21 is_stmt 0
	movq	-400(%rbp), %rdi
	movq	-392(%rbp), %rsi
	movq	%rdi, -56(%rbp)
	movq	%rsi, -48(%rbp)
	.loc	12 1618 30 is_stmt 1
	callq	__ZN5alloc11collections5btree4node76NodeRef$LT$alloc..collections..btree..node..marker..Owned$C$K$C$V$C$Type$GT$10into_dying17h1dc07a95c28f593dE
	movq	%rax, %rsi
	leaq	-384(%rbp), %rdi
	callq	__ZN5alloc11collections5btree8navigate178_$LT$impl$u20$alloc..collections..btree..node..NodeRef$LT$alloc..collections..btree..node..marker..Dying$C$K$C$V$C$alloc..collections..btree..node..marker..LeafOrInternal$GT$$GT$10full_range17h5214a98ee4f1a3a9E
Ltmp82:
	.loc	12 1621 24
	leaq	-320(%rbp), %rdi
	leaq	-384(%rbp), %rsi
	movl	$64, %edx
	callq	_memcpy
	movq	-464(%rbp), %rdi
	.loc	12 1622 25
	leaq	-448(%rbp), %rax
	movq	%rax, -40(%rbp)
	movq	-432(%rbp), %rax
	movq	%rax, -472(%rbp)
	.loc	12 1623 57
	leaq	-448(%rbp), %rax
	movq	%rax, -32(%rbp)
	.loc	12 1623 52 is_stmt 0
	leaq	-448(%rbp), %rax
	movq	%rax, -24(%rbp)
Ltmp83:
	.loc	13 113 28 is_stmt 1
	leaq	-448(%rbp), %rax
	movq	%rax, -16(%rbp)
Ltmp84:
	.loc	4 1157 34
	leaq	-152(%rbp), %rax
	movq	%rax, -8(%rbp)
Ltmp85:
	.loc	12 1620 13
	leaq	-320(%rbp), %rsi
	movl	$64, %edx
	callq	_memcpy
	movq	-472(%rbp), %rcx
	movq	-464(%rbp), %rax
	movq	%rcx, 64(%rax)
Ltmp86:
	.loc	12 1617 9
	jmp	LBB12_3
Ltmp87:
LBB12_2:
	.loc	12 1627 24
	leaq	-256(%rbp), %rdi
	callq	__ZN5alloc11collections5btree8navigate39LazyLeafRange$LT$BorrowType$C$K$C$V$GT$4none17hb59463e915e3d0bcE
	movq	-464(%rbp), %rdi
	.loc	12 1629 57
	leaq	-448(%rbp), %rax
	movq	%rax, -88(%rbp)
	.loc	12 1629 52 is_stmt 0
	leaq	-448(%rbp), %rax
	movq	%rax, -80(%rbp)
Ltmp88:
	.loc	13 113 28 is_stmt 1
	leaq	-448(%rbp), %rax
	movq	%rax, -72(%rbp)
Ltmp89:
	.loc	4 1157 34
	leaq	-144(%rbp), %rax
	movq	%rax, -64(%rbp)
Ltmp90:
	.loc	12 1626 13
	leaq	-256(%rbp), %rsi
	movl	$64, %edx
	callq	_memcpy
	movq	-464(%rbp), %rax
	movq	$0, 64(%rax)
Ltmp91:
LBB12_3:
	.loc	12 0 13 is_stmt 0
	movq	-456(%rbp), %rax
	.loc	12 1632 6 is_stmt 1
	addq	$480, %rsp
	popq	%rbp
	retq
Ltmp92:
Lfunc_end12:
	.cfi_endproc

	.p2align	4, 0x90
__ZN119_$LT$core..ptr..non_null..NonNull$LT$T$GT$$u20$as$u20$core..convert..From$LT$core..ptr..unique..Unique$LT$T$GT$$GT$$GT$4from17h61984ae01d37ef2fE:
Lfunc_begin13:
	.file	15 "/rustc/2c8cc343237b8f7d5a3c3703e3a87f2eb2c54a74/library/core/src/ptr" "non_null.rs"
	.loc	15 765 0
	.cfi_startproc
	pushq	%rbp
	.cfi_def_cfa_offset 16
	.cfi_offset %rbp, -16
	movq	%rsp, %rbp
	.cfi_def_cfa_register %rbp
	subq	$40, %rsp
	movq	%rdi, -32(%rbp)
Ltmp93:
	.loc	15 768 41 prologue_end
	movq	%rdi, -24(%rbp)
Ltmp94:
	.file	16 "/rustc/2c8cc343237b8f7d5a3c3703e3a87f2eb2c54a74/library/core/src/ptr" "unique.rs"
	.loc	16 104 9
	movq	%rdi, -16(%rbp)
Ltmp95:
	.loc	15 326 9
	movq	%rdi, -8(%rbp)
Ltmp96:
	.loc	15 201 13
	movq	%rdi, -40(%rbp)
Ltmp97:
	.loc	15 769 6
	movq	-40(%rbp), %rax
	addq	$40, %rsp
	popq	%rbp
	retq
Ltmp98:
Lfunc_end13:
	.cfi_endproc

	.p2align	4, 0x90
__ZN174_$LT$$LT$alloc..collections..btree..map..IntoIter$LT$K$C$V$C$A$GT$$u20$as$u20$core..ops..drop..Drop$GT$..drop..DropGuard$LT$K$C$V$C$A$GT$$u20$as$u20$core..ops..drop..Drop$GT$4drop17h5b530939599aecdfE:
Lfunc_begin14:
	.loc	12 1641 0
	.cfi_startproc
	pushq	%rbp
	.cfi_def_cfa_offset 16
	.cfi_offset %rbp, -16
	movq	%rsp, %rbp
	.cfi_def_cfa_register %rbp
	subq	$96, %rsp
	movq	%rdi, -88(%rbp)
	movq	%rdi, -8(%rbp)
LBB14_1:
	movq	-88(%rbp), %rax
Ltmp99:
	.loc	12 1644 38 prologue_end
	movq	(%rax), %rsi
	leaq	-80(%rbp), %rdi
	callq	__ZN5alloc11collections5btree3map25IntoIter$LT$K$C$V$C$A$GT$10dying_next17h7a9ff1450fd6afe3E
	.loc	12 1644 27 is_stmt 0
	movq	-72(%rbp), %rdx
	movl	$1, %eax
	xorl	%ecx, %ecx
	cmpq	$0, %rdx
	cmoveq	%rcx, %rax
	cmpq	$1, %rax
	jne	LBB14_3
	.loc	12 1644 32
	movq	-80(%rbp), %rax
	movq	%rax, -56(%rbp)
	movq	-72(%rbp), %rax
	movq	%rax, -48(%rbp)
	movq	-64(%rbp), %rax
	movq	%rax, -40(%rbp)
	.loc	12 1646 30 is_stmt 1
	movq	-56(%rbp), %rax
	movq	%rax, -32(%rbp)
	movq	-48(%rbp), %rax
	movq	%rax, -24(%rbp)
	movq	-40(%rbp), %rax
	movq	%rax, -16(%rbp)
	leaq	-32(%rbp), %rdi
	callq	__ZN5alloc11collections5btree4node173Handle$LT$alloc..collections..btree..node..NodeRef$LT$alloc..collections..btree..node..marker..Dying$C$K$C$V$C$NodeType$GT$$C$alloc..collections..btree..node..marker..KV$GT$12drop_key_val17hc07b5776851abe91E
Ltmp100:
	.loc	12 1644 17
	jmp	LBB14_1
LBB14_3:
	.loc	12 1648 14
	addq	$96, %rsp
	popq	%rbp
	retq
Ltmp101:
Lfunc_end14:
	.cfi_endproc

	.p2align	4, 0x90
__ZN3std10sys_common9backtrace28__rust_begin_short_backtrace17he2f8886f8094d910E:
Lfunc_begin15:
	.file	17 "/rustc/2c8cc343237b8f7d5a3c3703e3a87f2eb2c54a74/library/std/src/sys_common" "backtrace.rs"
	.loc	17 117 0
	.cfi_startproc
	pushq	%rbp
	.cfi_def_cfa_offset 16
	.cfi_offset %rbp, -16
	movq	%rsp, %rbp
	.cfi_def_cfa_register %rbp
	subq	$48, %rsp
	movq	%rdi, -32(%rbp)
Ltmp102:
	.loc	17 121 18 prologue_end
	callq	__ZN4core3ops8function6FnOnce9call_once17h955d9111b5621fdaE
Ltmp103:
	.file	18 "/rustc/2c8cc343237b8f7d5a3c3703e3a87f2eb2c54a74/library/core/src" "hint.rs"
	.loc	18 295 5
	## InlineAsm Start
	## InlineAsm End
Ltmp104:
	.loc	17 127 2
	addq	$48, %rsp
	popq	%rbp
	retq
Ltmp105:
Lfunc_end15:
	.cfi_endproc

	.p2align	4, 0x90
__ZN3std2io5error14repr_bitpacked11decode_repr17hac625de221a797b6E:
Lfunc_begin16:
	.file	19 "/rustc/2c8cc343237b8f7d5a3c3703e3a87f2eb2c54a74/library/std/src/io/error" "repr_bitpacked.rs"
	.loc	19 246 0
	.cfi_startproc
	.cfi_personality 155, _rust_eh_personality
	.cfi_lsda 16, Lexception2
	pushq	%rbp
	.cfi_def_cfa_offset 16
	.cfi_offset %rbp, -16
	movq	%rsp, %rbp
	.cfi_def_cfa_register %rbp
	subq	$320, %rsp
	movq	%rsi, -272(%rbp)
	movq	%rdi, -264(%rbp)
	movq	%rdi, -256(%rbp)
	movq	%rsi, -184(%rbp)
Ltmp115:
	.loc	19 250 9 prologue_end
	movb	$1, -201(%rbp)
	.loc	19 250 16 is_stmt 0
	movq	%rsi, -160(%rbp)
Ltmp116:
	.loc	15 326 9 is_stmt 1
	movq	%rsi, -152(%rbp)
Ltmp117:
	.loc	6 215 33
	movq	%rsi, -144(%rbp)
	.loc	6 215 18 is_stmt 0
	movq	%rsi, -248(%rbp)
Ltmp118:
	.loc	19 251 11 is_stmt 1
	movq	-248(%rbp), %rax
	andl	$3, %eax
	movq	%rax, -280(%rbp)
	.loc	19 251 5 is_stmt 0
	subq	$3, %rax
	ja	LBB16_2
	.loc	19 0 5
	movq	-280(%rbp), %rax
	leaq	LJTI16_0(%rip), %rcx
	movslq	(%rcx,%rax,4), %rax
	addq	%rcx, %rax
	jmpq	*%rax
LBB16_2:
Ltmp112:
	.loc	19 280 13 is_stmt 1
	leaq	l___unnamed_3(%rip), %rdi
	leaq	l___unnamed_4(%rip), %rdx
	movl	$40, %esi
	callq	__ZN4core9panicking5panic17hc1bc45270cf64b03E
Ltmp113:
	jmp	LBB16_9
LBB16_3:
	.loc	19 0 13 is_stmt 0
	movq	-264(%rbp), %rax
	.loc	19 253 26 is_stmt 1
	movq	-248(%rbp), %rcx
	.loc	19 253 24 is_stmt 0
	sarq	$32, %rcx
	movl	%ecx, -4(%rbp)
Ltmp119:
	.loc	19 254 13 is_stmt 1
	movl	%ecx, 4(%rax)
	movb	$0, (%rax)
Ltmp120:
	.loc	19 255 9
	jmp	LBB16_12
LBB16_4:
	.loc	19 257 30
	movl	-244(%rbp), %edi
	.loc	19 257 29 is_stmt 0
	movl	%edi, -12(%rbp)
Ltmp108:
Ltmp121:
	.loc	19 258 24 is_stmt 1
	callq	__ZN3std2io5error14repr_bitpacked14kind_from_prim17h32d8ceec2085ef67E
Ltmp109:
	movb	%al, -281(%rbp)
	jmp	LBB16_13
Ltmp122:
LBB16_5:
	.loc	19 0 24 is_stmt 0
	movq	-264(%rbp), %rax
	movq	-272(%rbp), %rcx
	.loc	19 270 58 is_stmt 1
	movq	%rcx, -40(%rbp)
Ltmp123:
	.loc	15 450 41
	movq	%rcx, -32(%rbp)
	movq	%rcx, -24(%rbp)
Ltmp124:
	.loc	15 201 13
	movq	%rcx, -224(%rbp)
Ltmp125:
	.loc	15 326 9
	movq	-224(%rbp), %rcx
Ltmp126:
	.loc	19 270 31
	movq	%rcx, 8(%rax)
	movb	$2, (%rax)
	.loc	19 270 94 is_stmt 0
	jmp	LBB16_12
LBB16_6:
	.loc	19 0 94
	movq	-272(%rbp), %rax
	.loc	19 275 26 is_stmt 1
	movq	%rax, -120(%rbp)
Ltmp127:
	.loc	15 326 9
	movq	%rax, -112(%rbp)
Ltmp128:
	.loc	6 1300 9
	movq	%rax, -104(%rbp)
Ltmp129:
	.loc	6 60 9
	movq	%rax, -96(%rbp)
Ltmp130:
	.loc	6 1282 9
	movq	%rax, -88(%rbp)
Ltmp131:
	.loc	6 568 18
	addq	$-1, %rax
	movq	%rax, -80(%rbp)
	movq	-80(%rbp), %rax
	movq	%rax, -296(%rbp)
	jmp	LBB16_10
Ltmp132:
LBB16_7:
	.loc	19 283 1
	testb	$1, -201(%rbp)
	jne	LBB16_19
	jmp	LBB16_18
LBB16_8:
Ltmp114:
	.loc	19 0 1 is_stmt 0
	movq	%rax, %rcx
	movl	%edx, %eax
	movq	%rcx, -136(%rbp)
	movl	%eax, -128(%rbp)
	jmp	LBB16_7
LBB16_9:
	ud2
LBB16_10:
	movq	-296(%rbp), %rax
Ltmp133:
	.loc	6 568 18 is_stmt 1
	movq	%rax, -72(%rbp)
Ltmp134:
	.loc	6 99 33
	movq	%rax, -64(%rbp)
Ltmp135:
	.loc	5 135 36
	movq	%rax, -192(%rbp)
	.loc	5 135 14 is_stmt 0
	movq	-192(%rbp), %rax
	movq	%rax, -200(%rbp)
	movq	-200(%rbp), %rax
	movq	%rax, -56(%rbp)
Ltmp136:
	.loc	6 60 9 is_stmt 1
	movq	%rax, -48(%rbp)
Ltmp137:
	.loc	19 276 31
	movb	$0, -201(%rbp)
	movq	%rax, -216(%rbp)
	movq	-216(%rbp), %rdi
Ltmp106:
	callq	__ZN78_$LT$std..io..error..repr_bitpacked..Repr$u20$as$u20$core..ops..drop..Drop$GT$4drop28_$u7b$$u7b$closure$u7d$$u7d$17ha5a7e7f1a3a6337dE
Ltmp107:
	movq	%rax, -304(%rbp)
	jmp	LBB16_11
LBB16_11:
	.loc	19 0 31 is_stmt 0
	movq	-264(%rbp), %rax
	movq	-304(%rbp), %rcx
	.loc	19 276 13
	movq	%rcx, 8(%rax)
	movb	$3, (%rax)
Ltmp138:
LBB16_12:
	.loc	19 283 1 is_stmt 1
	testb	$1, -201(%rbp)
	jne	LBB16_21
	jmp	LBB16_20
LBB16_13:
	.loc	19 0 1 is_stmt 0
	movb	-281(%rbp), %al
Ltmp139:
	.loc	19 258 24 is_stmt 1
	movb	%al, -233(%rbp)
	.loc	19 258 65 is_stmt 0
	leaq	-248(%rbp), %rax
	movq	%rax, -232(%rbp)
Ltmp140:
	.loc	14 871 15 is_stmt 1
	movl	$1, %eax
	xorl	%ecx, %ecx
	cmpb	$41, -233(%rbp)
	cmoveq	%rcx, %rax
	.loc	14 871 9 is_stmt 0
	cmpq	$0, %rax
	jne	LBB16_15
	.loc	14 873 21 is_stmt 1
	movq	-232(%rbp), %rdi
Ltmp110:
	callq	__ZN3std2io5error14repr_bitpacked11decode_repr28_$u7b$$u7b$closure$u7d$$u7d$17h4cb81eafe8aae34eE
Ltmp111:
	movb	%al, -305(%rbp)
	jmp	LBB16_17
LBB16_15:
	.loc	14 872 18
	movb	-233(%rbp), %al
	movb	%al, -5(%rbp)
Ltmp141:
	.loc	14 872 24 is_stmt 0
	movb	%al, -234(%rbp)
Ltmp142:
LBB16_16:
	.loc	14 0 24
	movq	-264(%rbp), %rax
Ltmp143:
	.loc	19 268 31 is_stmt 1
	movb	-234(%rbp), %cl
	.loc	19 268 13 is_stmt 0
	movb	%cl, 1(%rax)
	movb	$1, (%rax)
Ltmp144:
	.loc	19 269 9 is_stmt 1
	jmp	LBB16_12
LBB16_17:
	.loc	19 0 9 is_stmt 0
	movb	-305(%rbp), %al
Ltmp145:
	.loc	14 873 21 is_stmt 1
	movb	%al, -234(%rbp)
	.loc	14 873 23 is_stmt 0
	jmp	LBB16_16
Ltmp146:
LBB16_18:
	.loc	19 246 1 is_stmt 1
	movq	-136(%rbp), %rdi
	callq	__Unwind_Resume
LBB16_19:
	.loc	19 283 1
	jmp	LBB16_18
LBB16_20:
	.loc	19 0 1 is_stmt 0
	movq	-256(%rbp), %rax
	.loc	19 283 2
	addq	$320, %rsp
	popq	%rbp
	retq
LBB16_21:
	.loc	19 283 1
	jmp	LBB16_20
Ltmp147:
Lfunc_end16:
	.cfi_endproc
	.p2align	2, 0x90
	.data_region jt32
.set L16_0_set_5, LBB16_5-LJTI16_0
.set L16_0_set_6, LBB16_6-LJTI16_0
.set L16_0_set_3, LBB16_3-LJTI16_0
.set L16_0_set_4, LBB16_4-LJTI16_0
LJTI16_0:
	.long	L16_0_set_5
	.long	L16_0_set_6
	.long	L16_0_set_3
	.long	L16_0_set_4
	.end_data_region
	.section	__TEXT,__gcc_except_tab
	.p2align	2
GCC_except_table16:
Lexception2:
	.byte	255
	.byte	255
	.byte	1
	.uleb128 Lcst_end2-Lcst_begin2
Lcst_begin2:
	.uleb128 Ltmp112-Lfunc_begin16
	.uleb128 Ltmp111-Ltmp112
	.uleb128 Ltmp114-Lfunc_begin16
	.byte	0
	.uleb128 Ltmp111-Lfunc_begin16
	.uleb128 Lfunc_end16-Ltmp111
	.byte	0
	.byte	0
Lcst_end2:
	.p2align	2

	.section	__TEXT,__text,regular,pure_instructions
	.p2align	4, 0x90
__ZN3std2io5error14repr_bitpacked11decode_repr28_$u7b$$u7b$closure$u7d$$u7d$17h4cb81eafe8aae34eE:
Lfunc_begin17:
	.loc	19 258 0 is_stmt 1
	.cfi_startproc
	pushq	%rbp
	.cfi_def_cfa_offset 16
	.cfi_offset %rbp, -16
	movq	%rsp, %rbp
	.cfi_def_cfa_register %rbp
	subq	$16, %rsp
	movq	%rdi, -16(%rbp)
Ltmp148:
	.loc	19 266 17 prologue_end
	callq	__ZN4core4hint21unreachable_unchecked17hbb1c1bc0a3715898E
Ltmp149:
Lfunc_end17:
	.cfi_endproc

	.p2align	4, 0x90
__ZN3std2io5error14repr_bitpacked14kind_from_prim17h32d8ceec2085ef67E:
Lfunc_begin18:
	.loc	19 289 0
	.cfi_startproc
	pushq	%rbp
	.cfi_def_cfa_offset 16
	.cfi_offset %rbp, -16
	movq	%rsp, %rbp
	.cfi_def_cfa_register %rbp
	subq	$336, %rsp
	movl	%edi, -336(%rbp)
Ltmp150:
	.loc	19 302 5 prologue_end
	leaq	-336(%rbp), %rax
	movq	%rax, -328(%rbp)
	cmpl	$0, -336(%rbp)
	je	LBB18_2
	leaq	-336(%rbp), %rax
	movq	%rax, -320(%rbp)
	cmpl	$1, -336(%rbp)
	je	LBB18_5
	jmp	LBB18_4
LBB18_2:
Ltmp151:
	.loc	19 302 5 is_stmt 0
	movb	$0, -329(%rbp)
Ltmp152:
LBB18_3:
	.loc	19 345 2 is_stmt 1
	movb	-329(%rbp), %al
	addq	$336, %rsp
	popq	%rbp
	retq
LBB18_4:
	.loc	19 302 5
	leaq	-336(%rbp), %rax
	movq	%rax, -312(%rbp)
	cmpl	$2, -336(%rbp)
	je	LBB18_7
	jmp	LBB18_6
LBB18_5:
Ltmp153:
	.loc	19 302 5 is_stmt 0
	movb	$1, -329(%rbp)
Ltmp154:
	.loc	19 302 5
	jmp	LBB18_3
LBB18_6:
	leaq	-336(%rbp), %rax
	movq	%rax, -304(%rbp)
	cmpl	$3, -336(%rbp)
	je	LBB18_9
	jmp	LBB18_8
LBB18_7:
Ltmp155:
	.loc	19 302 5
	movb	$2, -329(%rbp)
Ltmp156:
	.loc	19 302 5
	jmp	LBB18_3
LBB18_8:
	leaq	-336(%rbp), %rax
	movq	%rax, -296(%rbp)
	cmpl	$4, -336(%rbp)
	je	LBB18_11
	jmp	LBB18_10
LBB18_9:
Ltmp157:
	.loc	19 302 5
	movb	$3, -329(%rbp)
Ltmp158:
	.loc	19 302 5
	jmp	LBB18_3
LBB18_10:
	leaq	-336(%rbp), %rax
	movq	%rax, -288(%rbp)
	cmpl	$5, -336(%rbp)
	je	LBB18_13
	jmp	LBB18_12
LBB18_11:
Ltmp159:
	.loc	19 302 5
	movb	$4, -329(%rbp)
Ltmp160:
	.loc	19 302 5
	jmp	LBB18_3
LBB18_12:
	leaq	-336(%rbp), %rax
	movq	%rax, -280(%rbp)
	cmpl	$6, -336(%rbp)
	je	LBB18_15
	jmp	LBB18_14
LBB18_13:
Ltmp161:
	.loc	19 302 5
	movb	$5, -329(%rbp)
Ltmp162:
	.loc	19 302 5
	jmp	LBB18_3
LBB18_14:
	leaq	-336(%rbp), %rax
	movq	%rax, -272(%rbp)
	cmpl	$7, -336(%rbp)
	je	LBB18_17
	jmp	LBB18_16
LBB18_15:
Ltmp163:
	.loc	19 302 5
	movb	$6, -329(%rbp)
Ltmp164:
	.loc	19 302 5
	jmp	LBB18_3
LBB18_16:
	leaq	-336(%rbp), %rax
	movq	%rax, -264(%rbp)
	cmpl	$8, -336(%rbp)
	je	LBB18_19
	jmp	LBB18_18
LBB18_17:
Ltmp165:
	.loc	19 302 5
	movb	$7, -329(%rbp)
Ltmp166:
	.loc	19 302 5
	jmp	LBB18_3
LBB18_18:
	leaq	-336(%rbp), %rax
	movq	%rax, -256(%rbp)
	cmpl	$9, -336(%rbp)
	je	LBB18_21
	jmp	LBB18_20
LBB18_19:
Ltmp167:
	.loc	19 302 5
	movb	$8, -329(%rbp)
Ltmp168:
	.loc	19 302 5
	jmp	LBB18_3
LBB18_20:
	leaq	-336(%rbp), %rax
	movq	%rax, -248(%rbp)
	cmpl	$10, -336(%rbp)
	je	LBB18_23
	jmp	LBB18_22
LBB18_21:
Ltmp169:
	.loc	19 302 5
	movb	$9, -329(%rbp)
Ltmp170:
	.loc	19 302 5
	jmp	LBB18_3
LBB18_22:
	leaq	-336(%rbp), %rax
	movq	%rax, -240(%rbp)
	cmpl	$11, -336(%rbp)
	je	LBB18_25
	jmp	LBB18_24
LBB18_23:
Ltmp171:
	.loc	19 302 5
	movb	$10, -329(%rbp)
Ltmp172:
	.loc	19 302 5
	jmp	LBB18_3
LBB18_24:
	leaq	-336(%rbp), %rax
	movq	%rax, -232(%rbp)
	cmpl	$12, -336(%rbp)
	je	LBB18_27
	jmp	LBB18_26
LBB18_25:
Ltmp173:
	.loc	19 302 5
	movb	$11, -329(%rbp)
Ltmp174:
	.loc	19 302 5
	jmp	LBB18_3
LBB18_26:
	leaq	-336(%rbp), %rax
	movq	%rax, -224(%rbp)
	cmpl	$13, -336(%rbp)
	je	LBB18_29
	jmp	LBB18_28
LBB18_27:
Ltmp175:
	.loc	19 302 5
	movb	$12, -329(%rbp)
Ltmp176:
	.loc	19 302 5
	jmp	LBB18_3
LBB18_28:
	leaq	-336(%rbp), %rax
	movq	%rax, -216(%rbp)
	cmpl	$14, -336(%rbp)
	je	LBB18_31
	jmp	LBB18_30
LBB18_29:
Ltmp177:
	.loc	19 302 5
	movb	$13, -329(%rbp)
Ltmp178:
	.loc	19 302 5
	jmp	LBB18_3
LBB18_30:
	leaq	-336(%rbp), %rax
	movq	%rax, -208(%rbp)
	cmpl	$15, -336(%rbp)
	je	LBB18_33
	jmp	LBB18_32
LBB18_31:
Ltmp179:
	.loc	19 302 5
	movb	$14, -329(%rbp)
Ltmp180:
	.loc	19 302 5
	jmp	LBB18_3
LBB18_32:
	leaq	-336(%rbp), %rax
	movq	%rax, -200(%rbp)
	cmpl	$16, -336(%rbp)
	je	LBB18_35
	jmp	LBB18_34
LBB18_33:
Ltmp181:
	.loc	19 302 5
	movb	$15, -329(%rbp)
Ltmp182:
	.loc	19 302 5
	jmp	LBB18_3
LBB18_34:
	leaq	-336(%rbp), %rax
	movq	%rax, -192(%rbp)
	cmpl	$17, -336(%rbp)
	je	LBB18_37
	jmp	LBB18_36
LBB18_35:
Ltmp183:
	.loc	19 302 5
	movb	$16, -329(%rbp)
Ltmp184:
	.loc	19 302 5
	jmp	LBB18_3
LBB18_36:
	leaq	-336(%rbp), %rax
	movq	%rax, -184(%rbp)
	cmpl	$18, -336(%rbp)
	je	LBB18_39
	jmp	LBB18_38
LBB18_37:
Ltmp185:
	.loc	19 302 5
	movb	$17, -329(%rbp)
Ltmp186:
	.loc	19 302 5
	jmp	LBB18_3
LBB18_38:
	leaq	-336(%rbp), %rax
	movq	%rax, -176(%rbp)
	cmpl	$19, -336(%rbp)
	je	LBB18_41
	jmp	LBB18_40
LBB18_39:
Ltmp187:
	.loc	19 302 5
	movb	$18, -329(%rbp)
Ltmp188:
	.loc	19 302 5
	jmp	LBB18_3
LBB18_40:
	leaq	-336(%rbp), %rax
	movq	%rax, -168(%rbp)
	cmpl	$20, -336(%rbp)
	je	LBB18_43
	jmp	LBB18_42
LBB18_41:
Ltmp189:
	.loc	19 302 5
	movb	$19, -329(%rbp)
Ltmp190:
	.loc	19 302 5
	jmp	LBB18_3
LBB18_42:
	leaq	-336(%rbp), %rax
	movq	%rax, -160(%rbp)
	cmpl	$21, -336(%rbp)
	je	LBB18_45
	jmp	LBB18_44
LBB18_43:
Ltmp191:
	.loc	19 302 5
	movb	$20, -329(%rbp)
Ltmp192:
	.loc	19 302 5
	jmp	LBB18_3
LBB18_44:
	leaq	-336(%rbp), %rax
	movq	%rax, -152(%rbp)
	cmpl	$22, -336(%rbp)
	je	LBB18_47
	jmp	LBB18_46
LBB18_45:
Ltmp193:
	.loc	19 302 5
	movb	$21, -329(%rbp)
Ltmp194:
	.loc	19 302 5
	jmp	LBB18_3
LBB18_46:
	leaq	-336(%rbp), %rax
	movq	%rax, -144(%rbp)
	cmpl	$23, -336(%rbp)
	je	LBB18_49
	jmp	LBB18_48
LBB18_47:
Ltmp195:
	.loc	19 302 5
	movb	$22, -329(%rbp)
Ltmp196:
	.loc	19 302 5
	jmp	LBB18_3
LBB18_48:
	leaq	-336(%rbp), %rax
	movq	%rax, -136(%rbp)
	cmpl	$24, -336(%rbp)
	je	LBB18_51
	jmp	LBB18_50
LBB18_49:
Ltmp197:
	.loc	19 302 5
	movb	$23, -329(%rbp)
Ltmp198:
	.loc	19 302 5
	jmp	LBB18_3
LBB18_50:
	leaq	-336(%rbp), %rax
	movq	%rax, -128(%rbp)
	cmpl	$25, -336(%rbp)
	je	LBB18_53
	jmp	LBB18_52
LBB18_51:
Ltmp199:
	.loc	19 302 5
	movb	$24, -329(%rbp)
Ltmp200:
	.loc	19 302 5
	jmp	LBB18_3
LBB18_52:
	leaq	-336(%rbp), %rax
	movq	%rax, -120(%rbp)
	cmpl	$26, -336(%rbp)
	je	LBB18_55
	jmp	LBB18_54
LBB18_53:
Ltmp201:
	.loc	19 302 5
	movb	$25, -329(%rbp)
Ltmp202:
	.loc	19 302 5
	jmp	LBB18_3
LBB18_54:
	leaq	-336(%rbp), %rax
	movq	%rax, -112(%rbp)
	cmpl	$27, -336(%rbp)
	je	LBB18_57
	jmp	LBB18_56
LBB18_55:
Ltmp203:
	.loc	19 302 5
	movb	$26, -329(%rbp)
Ltmp204:
	.loc	19 302 5
	jmp	LBB18_3
LBB18_56:
	leaq	-336(%rbp), %rax
	movq	%rax, -104(%rbp)
	cmpl	$28, -336(%rbp)
	je	LBB18_59
	jmp	LBB18_58
LBB18_57:
Ltmp205:
	.loc	19 302 5
	movb	$27, -329(%rbp)
Ltmp206:
	.loc	19 302 5
	jmp	LBB18_3
LBB18_58:
	leaq	-336(%rbp), %rax
	movq	%rax, -96(%rbp)
	cmpl	$29, -336(%rbp)
	je	LBB18_61
	jmp	LBB18_60
LBB18_59:
Ltmp207:
	.loc	19 302 5
	movb	$28, -329(%rbp)
Ltmp208:
	.loc	19 302 5
	jmp	LBB18_3
LBB18_60:
	leaq	-336(%rbp), %rax
	movq	%rax, -88(%rbp)
	cmpl	$30, -336(%rbp)
	je	LBB18_63
	jmp	LBB18_62
LBB18_61:
Ltmp209:
	.loc	19 302 5
	movb	$29, -329(%rbp)
Ltmp210:
	.loc	19 302 5
	jmp	LBB18_3
LBB18_62:
	leaq	-336(%rbp), %rax
	movq	%rax, -80(%rbp)
	cmpl	$31, -336(%rbp)
	je	LBB18_65
	jmp	LBB18_64
LBB18_63:
Ltmp211:
	.loc	19 302 5
	movb	$30, -329(%rbp)
Ltmp212:
	.loc	19 302 5
	jmp	LBB18_3
LBB18_64:
	leaq	-336(%rbp), %rax
	movq	%rax, -72(%rbp)
	cmpl	$32, -336(%rbp)
	je	LBB18_67
	jmp	LBB18_66
LBB18_65:
Ltmp213:
	.loc	19 302 5
	movb	$31, -329(%rbp)
Ltmp214:
	.loc	19 302 5
	jmp	LBB18_3
LBB18_66:
	leaq	-336(%rbp), %rax
	movq	%rax, -64(%rbp)
	cmpl	$33, -336(%rbp)
	je	LBB18_69
	jmp	LBB18_68
LBB18_67:
Ltmp215:
	.loc	19 302 5
	movb	$32, -329(%rbp)
Ltmp216:
	.loc	19 302 5
	jmp	LBB18_3
LBB18_68:
	leaq	-336(%rbp), %rax
	movq	%rax, -56(%rbp)
	cmpl	$34, -336(%rbp)
	je	LBB18_71
	jmp	LBB18_70
LBB18_69:
Ltmp217:
	.loc	19 302 5
	movb	$33, -329(%rbp)
Ltmp218:
	.loc	19 302 5
	jmp	LBB18_3
LBB18_70:
	leaq	-336(%rbp), %rax
	movq	%rax, -48(%rbp)
	cmpl	$35, -336(%rbp)
	je	LBB18_73
	jmp	LBB18_72
LBB18_71:
Ltmp219:
	.loc	19 302 5
	movb	$34, -329(%rbp)
Ltmp220:
	.loc	19 302 5
	jmp	LBB18_3
LBB18_72:
	leaq	-336(%rbp), %rax
	movq	%rax, -40(%rbp)
	cmpl	$39, -336(%rbp)
	je	LBB18_75
	jmp	LBB18_74
LBB18_73:
Ltmp221:
	.loc	19 302 5
	movb	$35, -329(%rbp)
Ltmp222:
	.loc	19 302 5
	jmp	LBB18_3
LBB18_74:
	leaq	-336(%rbp), %rax
	movq	%rax, -32(%rbp)
	cmpl	$37, -336(%rbp)
	je	LBB18_77
	jmp	LBB18_76
LBB18_75:
Ltmp223:
	.loc	19 302 5
	movb	$39, -329(%rbp)
Ltmp224:
	.loc	19 302 5
	jmp	LBB18_3
LBB18_76:
	leaq	-336(%rbp), %rax
	movq	%rax, -24(%rbp)
	cmpl	$36, -336(%rbp)
	je	LBB18_79
	jmp	LBB18_78
LBB18_77:
Ltmp225:
	.loc	19 302 5
	movb	$37, -329(%rbp)
Ltmp226:
	.loc	19 302 5
	jmp	LBB18_3
LBB18_78:
	leaq	-336(%rbp), %rax
	movq	%rax, -16(%rbp)
	cmpl	$38, -336(%rbp)
	je	LBB18_81
	jmp	LBB18_80
LBB18_79:
Ltmp227:
	.loc	19 302 5
	movb	$36, -329(%rbp)
Ltmp228:
	.loc	19 302 5
	jmp	LBB18_3
LBB18_80:
	leaq	-336(%rbp), %rax
	movq	%rax, -8(%rbp)
	cmpl	$40, -336(%rbp)
	je	LBB18_83
	jmp	LBB18_82
LBB18_81:
Ltmp229:
	.loc	19 302 5
	movb	$38, -329(%rbp)
Ltmp230:
	.loc	19 302 5
	jmp	LBB18_3
LBB18_82:
	movb	$41, -329(%rbp)
	jmp	LBB18_3
LBB18_83:
Ltmp231:
	.loc	19 302 5
	movb	$40, -329(%rbp)
Ltmp232:
	.loc	19 302 5
	jmp	LBB18_3
Ltmp233:
Lfunc_end18:
	.cfi_endproc

	.private_extern	__ZN3std2rt10lang_start17h488e4d51190568efE
	.globl	__ZN3std2rt10lang_start17h488e4d51190568efE
	.p2align	4, 0x90
__ZN3std2rt10lang_start17h488e4d51190568efE:
Lfunc_begin19:
	.file	20 "/rustc/2c8cc343237b8f7d5a3c3703e3a87f2eb2c54a74/library/std/src" "rt.rs"
	.loc	20 159 0 is_stmt 1
	.cfi_startproc
	pushq	%rbp
	.cfi_def_cfa_offset 16
	.cfi_offset %rbp, -16
	movq	%rsp, %rbp
	.cfi_def_cfa_register %rbp
	subq	$64, %rsp
	movl	%ecx, %eax
	movq	%rdx, %rcx
	movq	%rsi, %rdx
	movq	%rdi, -40(%rbp)
	movq	%rdx, -32(%rbp)
	movq	%rcx, -24(%rbp)
	movb	%al, -9(%rbp)
Ltmp234:
	.loc	20 166 10 prologue_end
	movq	%rdi, -48(%rbp)
	.loc	20 165 17
	leaq	-48(%rbp), %rdi
	leaq	l___unnamed_1(%rip), %rsi
	movzbl	%al, %r8d
	callq	__ZN3std2rt19lang_start_internal17h72dc55d09e0a2397E
	movq	%rax, -56(%rbp)
	.loc	20 165 12 is_stmt 0
	movq	-56(%rbp), %rax
	movq	%rax, -8(%rbp)
	.loc	20 172 2 is_stmt 1
	addq	$64, %rsp
	popq	%rbp
	retq
Ltmp235:
Lfunc_end19:
	.cfi_endproc

	.p2align	4, 0x90
__ZN3std2rt10lang_start28_$u7b$$u7b$closure$u7d$$u7d$17h62de6468515a7393E:
Lfunc_begin20:
	.loc	20 166 0
	.cfi_startproc
	pushq	%rbp
	.cfi_def_cfa_offset 16
	.cfi_offset %rbp, -16
	movq	%rsp, %rbp
	.cfi_def_cfa_register %rbp
	subq	$32, %rsp
	movq	%rdi, -16(%rbp)
Ltmp236:
	.loc	20 166 77 prologue_end
	movq	(%rdi), %rdi
	.loc	20 166 18 is_stmt 0
	callq	__ZN3std10sys_common9backtrace28__rust_begin_short_backtrace17he2f8886f8094d910E
	callq	__ZN54_$LT$$LP$$RP$$u20$as$u20$std..process..Termination$GT$6report17haeb294e568ae15ebE
	movb	%al, -17(%rbp)
Ltmp237:
	.file	21 "/rustc/2c8cc343237b8f7d5a3c3703e3a87f2eb2c54a74/library/std/src" "process.rs"
	.loc	21 1820 9 is_stmt 1
	leaq	-17(%rbp), %rax
	movq	%rax, -8(%rbp)
Ltmp238:
	.file	22 "/rustc/2c8cc343237b8f7d5a3c3703e3a87f2eb2c54a74/library/std/src/sys/unix/process" "process_common.rs"
	.loc	22 594 9
	movzbl	-17(%rbp), %eax
Ltmp239:
	.loc	20 166 100
	addq	$32, %rsp
	popq	%rbp
	retq
Ltmp240:
Lfunc_end20:
	.cfi_endproc

	.p2align	4, 0x90
__ZN3std3env3var17ha59e85bdc119ac16E:
Lfunc_begin21:
	.file	23 "/rustc/2c8cc343237b8f7d5a3c3703e3a87f2eb2c54a74/library/std/src" "env.rs"
	.loc	23 227 0
	.cfi_startproc
	.cfi_personality 155, _rust_eh_personality
	.cfi_lsda 16, Lexception3
	pushq	%rbp
	.cfi_def_cfa_offset 16
	.cfi_offset %rbp, -16
	movq	%rsp, %rbp
	.cfi_def_cfa_register %rbp
	subq	$64, %rsp
	movq	%rdi, -64(%rbp)
	movq	%rdi, -56(%rbp)
	movq	%rsi, -32(%rbp)
	movq	%rdx, -24(%rbp)
Ltmp241:
	leaq	-32(%rbp), %rdi
Ltmp246:
	.loc	23 228 10 prologue_end
	callq	__ZN55_$LT$$RF$T$u20$as$u20$core..convert..AsRef$LT$U$GT$$GT$6as_ref17h362a6b2022b723b2E
Ltmp242:
	movq	%rdx, -48(%rbp)
	movq	%rax, -40(%rbp)
	jmp	LBB21_3
LBB21_1:
	.loc	23 227 1
	movq	-16(%rbp), %rdi
	callq	__Unwind_Resume
LBB21_2:
Ltmp245:
	.loc	23 0 1 is_stmt 0
	movq	%rax, %rcx
	movl	%edx, %eax
	movq	%rcx, -16(%rbp)
	movl	%eax, -8(%rbp)
	jmp	LBB21_1
LBB21_3:
Ltmp243:
	movq	-48(%rbp), %rdx
	movq	-40(%rbp), %rsi
	movq	-64(%rbp), %rdi
	.loc	23 228 5 is_stmt 1
	callq	__ZN3std3env4_var17h3981769605209d03E
Ltmp244:
	jmp	LBB21_4
LBB21_4:
	.loc	23 0 5 is_stmt 0
	movq	-56(%rbp), %rax
	.loc	23 229 2 is_stmt 1
	addq	$64, %rsp
	popq	%rbp
	retq
Ltmp247:
Lfunc_end21:
	.cfi_endproc
	.section	__TEXT,__gcc_except_tab
	.p2align	2
GCC_except_table21:
Lexception3:
	.byte	255
	.byte	255
	.byte	1
	.uleb128 Lcst_end3-Lcst_begin3
Lcst_begin3:
	.uleb128 Ltmp241-Lfunc_begin21
	.uleb128 Ltmp242-Ltmp241
	.uleb128 Ltmp245-Lfunc_begin21
	.byte	0
	.uleb128 Ltmp242-Lfunc_begin21
	.uleb128 Ltmp243-Ltmp242
	.byte	0
	.byte	0
	.uleb128 Ltmp243-Lfunc_begin21
	.uleb128 Ltmp244-Ltmp243
	.uleb128 Ltmp245-Lfunc_begin21
	.byte	0
Lcst_end3:
	.p2align	2

	.section	__TEXT,__text,regular,pure_instructions
	.p2align	4, 0x90
__ZN3std3env6var_os17hf5b0caf176b1960aE:
Lfunc_begin22:
	.loc	23 268 0
	.cfi_startproc
	.cfi_personality 155, _rust_eh_personality
	.cfi_lsda 16, Lexception4
	pushq	%rbp
	.cfi_def_cfa_offset 16
	.cfi_offset %rbp, -16
	movq	%rsp, %rbp
	.cfi_def_cfa_register %rbp
	subq	$64, %rsp
	movq	%rdi, -64(%rbp)
	movq	%rdi, -56(%rbp)
	movq	%rsi, -32(%rbp)
	movq	%rdx, -24(%rbp)
Ltmp248:
	leaq	-32(%rbp), %rdi
Ltmp253:
	.loc	23 269 13 prologue_end
	callq	__ZN55_$LT$$RF$T$u20$as$u20$core..convert..AsRef$LT$U$GT$$GT$6as_ref17h362a6b2022b723b2E
Ltmp249:
	movq	%rdx, -48(%rbp)
	movq	%rax, -40(%rbp)
	jmp	LBB22_3
LBB22_1:
	.loc	23 268 1
	movq	-16(%rbp), %rdi
	callq	__Unwind_Resume
LBB22_2:
Ltmp252:
	.loc	23 0 1 is_stmt 0
	movq	%rax, %rcx
	movl	%edx, %eax
	movq	%rcx, -16(%rbp)
	movl	%eax, -8(%rbp)
	jmp	LBB22_1
LBB22_3:
Ltmp250:
	movq	-48(%rbp), %rdx
	movq	-40(%rbp), %rsi
	movq	-64(%rbp), %rdi
	.loc	23 269 5 is_stmt 1
	callq	__ZN3std3env7_var_os17h71e71f6d7accb7a3E
Ltmp251:
	jmp	LBB22_4
LBB22_4:
	.loc	23 0 5 is_stmt 0
	movq	-56(%rbp), %rax
	.loc	23 270 2 is_stmt 1
	addq	$64, %rsp
	popq	%rbp
	retq
Ltmp254:
Lfunc_end22:
	.cfi_endproc
	.section	__TEXT,__gcc_except_tab
	.p2align	2
GCC_except_table22:
Lexception4:
	.byte	255
	.byte	255
	.byte	1
	.uleb128 Lcst_end4-Lcst_begin4
Lcst_begin4:
	.uleb128 Ltmp248-Lfunc_begin22
	.uleb128 Ltmp249-Ltmp248
	.uleb128 Ltmp252-Lfunc_begin22
	.byte	0
	.uleb128 Ltmp249-Lfunc_begin22
	.uleb128 Ltmp250-Ltmp249
	.byte	0
	.byte	0
	.uleb128 Ltmp250-Lfunc_begin22
	.uleb128 Ltmp251-Ltmp250
	.uleb128 Ltmp252-Lfunc_begin22
	.byte	0
Lcst_end4:
	.p2align	2

	.section	__TEXT,__text,regular,pure_instructions
	.p2align	4, 0x90
__ZN3std3ffi6os_str5OsStr15to_string_lossy17h6afc313094b92746E:
Lfunc_begin23:
	.file	24 "/rustc/2c8cc343237b8f7d5a3c3703e3a87f2eb2c54a74/library/std/src/ffi" "os_str.rs"
	.loc	24 756 0
	.cfi_startproc
	pushq	%rbp
	.cfi_def_cfa_offset 16
	.cfi_offset %rbp, -16
	movq	%rsp, %rbp
	.cfi_def_cfa_register %rbp
	subq	$32, %rsp
	movq	%rdi, %rax
	movq	%rax, -24(%rbp)
	movq	%rsi, -16(%rbp)
	movq	%rdx, -8(%rbp)
Ltmp255:
	.loc	24 757 9 prologue_end
	callq	__ZN3std3sys4unix6os_str5Slice15to_string_lossy17hce095e5679c73c7eE
	movq	-24(%rbp), %rax
	.loc	24 758 6
	addq	$32, %rsp
	popq	%rbp
	retq
Ltmp256:
Lfunc_end23:
	.cfi_endproc

	.p2align	4, 0x90
__ZN3std3ffi6os_str85_$LT$impl$u20$core..convert..AsRef$LT$std..ffi..os_str..OsStr$GT$$u20$for$u20$str$GT$6as_ref17hc62baa813826a029E:
Lfunc_begin24:
	.loc	24 1321 0
	.cfi_startproc
	pushq	%rbp
	.cfi_def_cfa_offset 16
	.cfi_offset %rbp, -16
	movq	%rsp, %rbp
	.cfi_def_cfa_register %rbp
	subq	$112, %rsp
	movq	%rdi, -112(%rbp)
	movq	%rsi, -104(%rbp)
Ltmp257:
	.loc	24 1322 43 prologue_end
	movq	%rdi, -96(%rbp)
	movq	%rsi, -88(%rbp)
Ltmp258:
	.file	25 "/rustc/2c8cc343237b8f7d5a3c3703e3a87f2eb2c54a74/library/std/src/sys/unix" "os_str.rs"
	.loc	25 201 30
	movq	%rdi, -80(%rbp)
	movq	%rsi, -72(%rbp)
Ltmp259:
	.file	26 "/rustc/2c8cc343237b8f7d5a3c3703e3a87f2eb2c54a74/library/core/src/str" "mod.rs"
	.loc	26 327 18
	movq	%rdi, -64(%rbp)
	movq	%rsi, -56(%rbp)
	movq	-64(%rbp), %rcx
	movq	-56(%rbp), %rax
Ltmp260:
	.loc	25 201 30
	movq	%rcx, -48(%rbp)
	movq	%rax, -40(%rbp)
Ltmp261:
	.loc	25 196 18
	movq	%rcx, -32(%rbp)
	movq	%rax, -24(%rbp)
	movq	-32(%rbp), %rax
	movq	-24(%rbp), %rdx
Ltmp262:
	.loc	24 1322 27
	movq	%rax, -16(%rbp)
	movq	%rdx, -8(%rbp)
	.loc	24 1323 6
	addq	$112, %rsp
	popq	%rbp
	retq
Ltmp263:
Lfunc_end24:
	.cfi_endproc

	.p2align	4, 0x90
__ZN3std7process7Command3arg17h69825dee0d79d440E:
Lfunc_begin25:
	.loc	21 607 0
	.cfi_startproc
	.cfi_personality 155, _rust_eh_personality
	.cfi_lsda 16, Lexception5
	pushq	%rbp
	.cfi_def_cfa_offset 16
	.cfi_offset %rbp, -16
	movq	%rsp, %rbp
	.cfi_def_cfa_register %rbp
	subq	$64, %rsp
	movq	%rdi, -64(%rbp)
	movq	%rsi, -40(%rbp)
	movq	%rdx, -32(%rbp)
	movq	%rdi, -24(%rbp)
Ltmp264:
	leaq	-40(%rbp), %rdi
Ltmp269:
	.loc	21 608 24 prologue_end
	callq	__ZN55_$LT$$RF$T$u20$as$u20$core..convert..AsRef$LT$U$GT$$GT$6as_ref17h362a6b2022b723b2E
Ltmp265:
	movq	%rdx, -56(%rbp)
	movq	%rax, -48(%rbp)
	jmp	LBB25_3
LBB25_1:
	.loc	21 607 5
	movq	-16(%rbp), %rdi
	callq	__Unwind_Resume
LBB25_2:
Ltmp268:
	.loc	21 0 5 is_stmt 0
	movq	%rax, %rcx
	movl	%edx, %eax
	movq	%rcx, -16(%rbp)
	movl	%eax, -8(%rbp)
	jmp	LBB25_1
LBB25_3:
Ltmp266:
	movq	-56(%rbp), %rdx
	movq	-48(%rbp), %rsi
	movq	-64(%rbp), %rdi
	.loc	21 608 9 is_stmt 1
	callq	__ZN3std3sys4unix7process14process_common7Command3arg17hdfe06f44e19d0682E
Ltmp267:
	jmp	LBB25_4
LBB25_4:
	.loc	21 0 9 is_stmt 0
	movq	-64(%rbp), %rax
	.loc	21 610 6 is_stmt 1
	addq	$64, %rsp
	popq	%rbp
	retq
Ltmp270:
Lfunc_end25:
	.cfi_endproc
	.section	__TEXT,__gcc_except_tab
	.p2align	2
GCC_except_table25:
Lexception5:
	.byte	255
	.byte	255
	.byte	1
	.uleb128 Lcst_end5-Lcst_begin5
Lcst_begin5:
	.uleb128 Ltmp264-Lfunc_begin25
	.uleb128 Ltmp265-Ltmp264
	.uleb128 Ltmp268-Lfunc_begin25
	.byte	0
	.uleb128 Ltmp265-Lfunc_begin25
	.uleb128 Ltmp266-Ltmp265
	.byte	0
	.byte	0
	.uleb128 Ltmp266-Lfunc_begin25
	.uleb128 Ltmp267-Ltmp266
	.uleb128 Ltmp268-Lfunc_begin25
	.byte	0
Lcst_end5:
	.p2align	2

	.section	__TEXT,__text,regular,pure_instructions
	.p2align	4, 0x90
__ZN3std7process7Command3new17hfb1e3d7ff9017e0cE:
Lfunc_begin26:
	.loc	21 561 0
	.cfi_startproc
	.cfi_personality 155, _rust_eh_personality
	.cfi_lsda 16, Lexception6
	pushq	%rbp
	.cfi_def_cfa_offset 16
	.cfi_offset %rbp, -16
	movq	%rsp, %rbp
	.cfi_def_cfa_register %rbp
	subq	$272, %rsp
	movq	%rsi, -264(%rbp)
Ltmp279:
	movq	%rdi, %rax
	movq	-264(%rbp), %rdi
	movq	%rax, -256(%rbp)
	movq	%rax, -248(%rbp)
Ltmp271:
Ltmp280:
	.loc	21 562 44 prologue_end
	callq	__ZN98_$LT$std..ffi..os_str..OsString$u20$as$u20$core..convert..AsRef$LT$std..ffi..os_str..OsStr$GT$$GT$6as_ref17h7f7e8908a867ee3aE
Ltmp272:
	movq	%rdx, -240(%rbp)
	movq	%rax, -232(%rbp)
	jmp	LBB26_3
Ltmp281:
LBB26_1:
Ltmp276:
	.loc	21 0 44 is_stmt 0
	movq	-264(%rbp), %rdi
	.loc	21 563 5 is_stmt 1
	callq	__ZN4core3ptr47drop_in_place$LT$std..ffi..os_str..OsString$GT$17h1785b1b2a43e54a6E
Ltmp277:
	jmp	LBB26_6
Ltmp282:
LBB26_2:
Ltmp275:
	.loc	21 0 5 is_stmt 0
	movq	%rax, %rcx
	movl	%edx, %eax
	movq	%rcx, -16(%rbp)
	movl	%eax, -8(%rbp)
	jmp	LBB26_1
Ltmp283:
LBB26_3:
Ltmp273:
	movq	-240(%rbp), %rdx
	movq	-232(%rbp), %rsi
	leaq	-224(%rbp), %rdi
	.loc	21 562 26 is_stmt 1
	callq	__ZN3std3sys4unix7process14process_common7Command3new17hbc75e5b02e009ba8E
Ltmp274:
	jmp	LBB26_4
Ltmp284:
LBB26_4:
	.loc	21 0 26 is_stmt 0
	movq	-256(%rbp), %rdi
	.loc	21 562 9
	leaq	-224(%rbp), %rsi
	movl	$208, %edx
	callq	_memcpy
	movq	-264(%rbp), %rdi
	.loc	21 563 5 is_stmt 1
	callq	__ZN4core3ptr47drop_in_place$LT$std..ffi..os_str..OsString$GT$17h1785b1b2a43e54a6E
	movq	-248(%rbp), %rax
	.loc	21 563 6 is_stmt 0
	addq	$272, %rsp
	popq	%rbp
	retq
Ltmp285:
LBB26_5:
Ltmp278:
	.loc	21 561 5 is_stmt 1
	callq	__ZN4core9panicking19panic_cannot_unwind17h1fbca7e1d7f56ae1E
Ltmp286:
LBB26_6:
	movq	-16(%rbp), %rdi
	callq	__Unwind_Resume
Ltmp287:
Lfunc_end26:
	.cfi_endproc
	.section	__TEXT,__gcc_except_tab
	.p2align	2
GCC_except_table26:
Lexception6:
	.byte	255
	.byte	255
	.byte	1
	.uleb128 Lcst_end6-Lcst_begin6
Lcst_begin6:
	.uleb128 Ltmp271-Lfunc_begin26
	.uleb128 Ltmp272-Ltmp271
	.uleb128 Ltmp275-Lfunc_begin26
	.byte	0
	.uleb128 Ltmp276-Lfunc_begin26
	.uleb128 Ltmp277-Ltmp276
	.uleb128 Ltmp278-Lfunc_begin26
	.byte	0
	.uleb128 Ltmp273-Lfunc_begin26
	.uleb128 Ltmp274-Ltmp273
	.uleb128 Ltmp275-Lfunc_begin26
	.byte	0
	.uleb128 Ltmp274-Lfunc_begin26
	.uleb128 Lfunc_end26-Ltmp274
	.byte	0
	.byte	0
Lcst_end6:
	.p2align	2

	.section	__TEXT,__text,regular,pure_instructions
	.p2align	4, 0x90
__ZN49_$LT$usize$u20$as$u20$core..iter..range..Step$GT$17forward_unchecked17h86928d87763cb837E:
Lfunc_begin27:
	.file	27 "/rustc/2c8cc343237b8f7d5a3c3703e3a87f2eb2c54a74/library/core/src/iter" "range.rs"
	.loc	27 189 0
	.cfi_startproc
	pushq	%rbp
	.cfi_def_cfa_offset 16
	.cfi_offset %rbp, -16
	movq	%rsp, %rbp
	.cfi_def_cfa_register %rbp
	subq	$40, %rsp
	movq	%rdi, -40(%rbp)
	movq	%rsi, -32(%rbp)
Ltmp288:
	.loc	27 191 22 prologue_end
	movq	%rdi, -24(%rbp)
	.loc	27 191 42 is_stmt 0
	movq	%rsi, -16(%rbp)
Ltmp289:
	.file	28 "/rustc/2c8cc343237b8f7d5a3c3703e3a87f2eb2c54a74/library/core/src/num" "uint_macros.rs"
	.loc	28 470 22 is_stmt 1
	addq	%rsi, %rdi
	movq	%rdi, -8(%rbp)
	movq	-8(%rbp), %rax
Ltmp290:
	.loc	27 192 10
	addq	$40, %rsp
	popq	%rbp
	retq
Ltmp291:
Lfunc_end27:
	.cfi_endproc

	.p2align	4, 0x90
__ZN49_$LT$usize$u20$as$u20$core..iter..range..Step$GT$18backward_unchecked17hc72a3b974473c8e6E:
Lfunc_begin28:
	.loc	27 195 0
	.cfi_startproc
	pushq	%rbp
	.cfi_def_cfa_offset 16
	.cfi_offset %rbp, -16
	movq	%rsp, %rbp
	.cfi_def_cfa_register %rbp
	subq	$40, %rsp
	movq	%rdi, -40(%rbp)
	movq	%rsi, -32(%rbp)
Ltmp292:
	.loc	27 197 22 prologue_end
	movq	%rdi, -24(%rbp)
	.loc	27 197 42 is_stmt 0
	movq	%rsi, -16(%rbp)
Ltmp293:
	.loc	28 539 22 is_stmt 1
	subq	%rsi, %rdi
	movq	%rdi, -8(%rbp)
	movq	-8(%rbp), %rax
Ltmp294:
	.loc	27 198 10
	addq	$40, %rsp
	popq	%rbp
	retq
Ltmp295:
Lfunc_end28:
	.cfi_endproc

	.p2align	4, 0x90
__ZN4core3cmp5impls50_$LT$impl$u20$core..cmp..Ord$u20$for$u20$usize$GT$3cmp17h7c73655fae8185d6E:
Lfunc_begin29:
	.loc	8 1454 0
	.cfi_startproc
	pushq	%rbp
	.cfi_def_cfa_offset 16
	.cfi_offset %rbp, -16
	movq	%rsp, %rbp
	.cfi_def_cfa_register %rbp
	subq	$40, %rsp
	movq	%rdi, -40(%rbp)
	movq	%rsi, -32(%rbp)
	movq	%rdi, -16(%rbp)
	movq	%rsi, -8(%rbp)
Ltmp296:
	.loc	8 1457 24 prologue_end
	movq	(%rdi), %rax
	cmpq	(%rsi), %rax
	jb	LBB29_2
	.loc	8 0 24 is_stmt 0
	movq	-32(%rbp), %rcx
	movq	-40(%rbp), %rax
	.loc	8 1458 29 is_stmt 1
	movq	(%rax), %rax
	cmpq	(%rcx), %rax
	je	LBB29_5
	jmp	LBB29_4
LBB29_2:
	.loc	8 1457 41
	movb	$-1, -17(%rbp)
LBB29_3:
	.loc	8 1460 18
	movb	-17(%rbp), %al
	addq	$40, %rsp
	popq	%rbp
	retq
LBB29_4:
	.loc	8 1459 28
	movb	$1, -17(%rbp)
	.loc	8 1458 26
	jmp	LBB29_6
LBB29_5:
	.loc	8 1458 47 is_stmt 0
	movb	$0, -17(%rbp)
LBB29_6:
	.loc	8 1457 21 is_stmt 1
	jmp	LBB29_3
Ltmp297:
Lfunc_end29:
	.cfi_endproc

	.p2align	4, 0x90
__ZN4core3cmp5impls57_$LT$impl$u20$core..cmp..PartialOrd$u20$for$u20$usize$GT$2lt17ha8cf2be2591779abE:
Lfunc_begin30:
	.loc	8 1441 0
	.cfi_startproc
	pushq	%rbp
	.cfi_def_cfa_offset 16
	.cfi_offset %rbp, -16
	movq	%rsp, %rbp
	.cfi_def_cfa_register %rbp
	subq	$16, %rsp
	movq	%rdi, -16(%rbp)
	movq	%rsi, -8(%rbp)
Ltmp298:
	.loc	8 1441 52 prologue_end
	movq	(%rdi), %rax
	cmpq	(%rsi), %rax
	setb	%al
	.loc	8 1441 72 is_stmt 0
	andb	$1, %al
	movzbl	%al, %eax
	addq	$16, %rsp
	popq	%rbp
	retq
Ltmp299:
Lfunc_end30:
	.cfi_endproc

	.p2align	4, 0x90
__ZN4core3cmp5impls59_$LT$impl$u20$core..cmp..PartialEq$u20$for$u20$$LP$$RP$$GT$2eq17h1e7362c207866cdfE:
Lfunc_begin31:
	.loc	8 1363 0 is_stmt 1
	.cfi_startproc
	pushq	%rbp
	.cfi_def_cfa_offset 16
	.cfi_offset %rbp, -16
	movq	%rsp, %rbp
	.cfi_def_cfa_register %rbp
	subq	$16, %rsp
	movq	%rdi, -16(%rbp)
	movq	%rsi, -8(%rbp)
Ltmp300:
	.loc	8 1365 10 prologue_end
	movb	$1, %al
	andb	$1, %al
	movzbl	%al, %eax
	addq	$16, %rsp
	popq	%rbp
	retq
Ltmp301:
Lfunc_end31:
	.cfi_endproc

	.p2align	4, 0x90
__ZN4core3cmp5impls69_$LT$impl$u20$core..cmp..PartialEq$LT$$RF$B$GT$$u20$for$u20$$RF$A$GT$2eq17h03c23c27131e7d22E:
Lfunc_begin32:
	.loc	8 1530 0
	.cfi_startproc
	pushq	%rbp
	.cfi_def_cfa_offset 16
	.cfi_offset %rbp, -16
	movq	%rsp, %rbp
	.cfi_def_cfa_register %rbp
	subq	$16, %rsp
	movq	%rsi, %rax
	movq	%rdi, %rcx
	movq	%rcx, -16(%rbp)
	movq	%rax, -8(%rbp)
Ltmp302:
	.loc	8 1531 27 prologue_end
	movq	(%rcx), %rdi
	movq	8(%rcx), %rsi
	.loc	8 1531 34 is_stmt 0
	movq	(%rax), %rdx
	movq	8(%rax), %rcx
	.loc	8 1531 13
	callq	__ZN4core3str6traits54_$LT$impl$u20$core..cmp..PartialEq$u20$for$u20$str$GT$2eq17hf80160c871fc4722E
	.loc	8 1532 10 is_stmt 1
	andb	$1, %al
	movzbl	%al, %eax
	addq	$16, %rsp
	popq	%rbp
	retq
Ltmp303:
Lfunc_end32:
	.cfi_endproc

	.p2align	4, 0x90
__ZN4core3cmp6max_by17h8a68ff28c14171c0E:
Lfunc_begin33:
	.loc	8 1295 0
	.cfi_startproc
	.cfi_personality 155, _rust_eh_personality
	.cfi_lsda 16, Lexception7
	pushq	%rbp
	.cfi_def_cfa_offset 16
	.cfi_offset %rbp, -16
	movq	%rsp, %rbp
	.cfi_def_cfa_register %rbp
	subq	$96, %rsp
	movq	%rdi, -80(%rbp)
	movq	%rsi, -72(%rbp)
Ltmp307:
	.loc	8 1300 11 prologue_end
	movb	$1, -25(%rbp)
	movb	$1, -26(%rbp)
	leaq	-80(%rbp), %rax
	movq	%rax, -48(%rbp)
	leaq	-72(%rbp), %rax
	movq	%rax, -40(%rbp)
	movq	-48(%rbp), %rdi
	movq	-40(%rbp), %rsi
Ltmp304:
	callq	__ZN4core3ops8function6FnOnce9call_once17hbd464b684ceb69b2E
Ltmp305:
	movb	%al, -81(%rbp)
	jmp	LBB33_3
LBB33_1:
	.loc	8 1304 1
	jmp	LBB33_4
LBB33_2:
Ltmp306:
	.loc	8 0 1 is_stmt 0
	movq	%rax, %rcx
	movl	%edx, %eax
	movq	%rcx, -16(%rbp)
	movl	%eax, -8(%rbp)
	jmp	LBB33_1
LBB33_3:
	movb	-81(%rbp), %al
	.loc	8 1300 11 is_stmt 1
	movb	%al, -49(%rbp)
	movb	-49(%rbp), %al
	.loc	8 1300 5 is_stmt 0
	incb	%al
	subb	$2, %al
	jb	LBB33_6
	jmp	LBB33_15
LBB33_15:
	jmp	LBB33_7
LBB33_4:
	.loc	8 1304 1 is_stmt 1
	testb	$1, -25(%rbp)
	jne	LBB33_12
	jmp	LBB33_11
	.loc	8 1300 11
	ud2
LBB33_6:
	.loc	8 1301 45
	movb	$0, -26(%rbp)
	movq	-72(%rbp), %rax
	movq	%rax, -64(%rbp)
	jmp	LBB33_8
LBB33_7:
	.loc	8 1302 30
	movb	$0, -25(%rbp)
	movq	-80(%rbp), %rax
	movq	%rax, -64(%rbp)
LBB33_8:
	.loc	8 1304 1
	testb	$1, -26(%rbp)
	jne	LBB33_10
LBB33_9:
	testb	$1, -25(%rbp)
	jne	LBB33_14
	jmp	LBB33_13
LBB33_10:
	jmp	LBB33_9
LBB33_11:
	.loc	8 1295 1
	movq	-16(%rbp), %rdi
	callq	__Unwind_Resume
LBB33_12:
	.loc	8 1304 1
	jmp	LBB33_11
LBB33_13:
	.loc	8 1304 2 is_stmt 0
	movq	-64(%rbp), %rax
	addq	$96, %rsp
	popq	%rbp
	retq
LBB33_14:
	.loc	8 1304 1
	jmp	LBB33_13
Ltmp308:
Lfunc_end33:
	.cfi_endproc
	.section	__TEXT,__gcc_except_tab
	.p2align	2
GCC_except_table33:
Lexception7:
	.byte	255
	.byte	255
	.byte	1
	.uleb128 Lcst_end7-Lcst_begin7
Lcst_begin7:
	.uleb128 Ltmp304-Lfunc_begin33
	.uleb128 Ltmp305-Ltmp304
	.uleb128 Ltmp306-Lfunc_begin33
	.byte	0
	.uleb128 Ltmp305-Lfunc_begin33
	.uleb128 Lfunc_end33-Ltmp305
	.byte	0
	.byte	0
Lcst_end7:
	.p2align	2

	.section	__TEXT,__text,regular,pure_instructions
	.p2align	4, 0x90
__ZN4core3cmp6min_by17h80543aabab451d13E:
Lfunc_begin34:
	.loc	8 1204 0 is_stmt 1
	.cfi_startproc
	.cfi_personality 155, _rust_eh_personality
	.cfi_lsda 16, Lexception8
	pushq	%rbp
	.cfi_def_cfa_offset 16
	.cfi_offset %rbp, -16
	movq	%rsp, %rbp
	.cfi_def_cfa_register %rbp
	subq	$96, %rsp
	movq	%rdi, -80(%rbp)
	movq	%rsi, -72(%rbp)
Ltmp312:
	.loc	8 1209 11 prologue_end
	movb	$1, -25(%rbp)
	movb	$1, -26(%rbp)
	leaq	-80(%rbp), %rax
	movq	%rax, -48(%rbp)
	leaq	-72(%rbp), %rax
	movq	%rax, -40(%rbp)
	movq	-48(%rbp), %rdi
	movq	-40(%rbp), %rsi
Ltmp309:
	callq	__ZN4core3ops8function6FnOnce9call_once17hbd464b684ceb69b2E
Ltmp310:
	movb	%al, -81(%rbp)
	jmp	LBB34_3
LBB34_1:
	.loc	8 1213 1
	jmp	LBB34_4
LBB34_2:
Ltmp311:
	.loc	8 0 1 is_stmt 0
	movq	%rax, %rcx
	movl	%edx, %eax
	movq	%rcx, -16(%rbp)
	movl	%eax, -8(%rbp)
	jmp	LBB34_1
LBB34_3:
	movb	-81(%rbp), %al
	.loc	8 1209 11 is_stmt 1
	movb	%al, -49(%rbp)
	movb	-49(%rbp), %al
	.loc	8 1209 5 is_stmt 0
	incb	%al
	subb	$2, %al
	jb	LBB34_6
	jmp	LBB34_15
LBB34_15:
	jmp	LBB34_7
LBB34_4:
	.loc	8 1213 1 is_stmt 1
	testb	$1, -25(%rbp)
	jne	LBB34_12
	jmp	LBB34_11
	.loc	8 1209 11
	ud2
LBB34_6:
	.loc	8 1210 45
	movb	$0, -25(%rbp)
	movq	-80(%rbp), %rax
	movq	%rax, -64(%rbp)
	jmp	LBB34_8
LBB34_7:
	.loc	8 1211 30
	movb	$0, -26(%rbp)
	movq	-72(%rbp), %rax
	movq	%rax, -64(%rbp)
LBB34_8:
	.loc	8 1213 1
	testb	$1, -26(%rbp)
	jne	LBB34_10
LBB34_9:
	testb	$1, -25(%rbp)
	jne	LBB34_14
	jmp	LBB34_13
LBB34_10:
	jmp	LBB34_9
LBB34_11:
	.loc	8 1204 1
	movq	-16(%rbp), %rdi
	callq	__Unwind_Resume
LBB34_12:
	.loc	8 1213 1
	jmp	LBB34_11
LBB34_13:
	.loc	8 1213 2 is_stmt 0
	movq	-64(%rbp), %rax
	addq	$96, %rsp
	popq	%rbp
	retq
LBB34_14:
	.loc	8 1213 1
	jmp	LBB34_13
Ltmp313:
Lfunc_end34:
	.cfi_endproc
	.section	__TEXT,__gcc_except_tab
	.p2align	2
GCC_except_table34:
Lexception8:
	.byte	255
	.byte	255
	.byte	1
	.uleb128 Lcst_end8-Lcst_begin8
Lcst_begin8:
	.uleb128 Ltmp309-Lfunc_begin34
	.uleb128 Ltmp310-Ltmp309
	.uleb128 Ltmp311-Lfunc_begin34
	.byte	0
	.uleb128 Ltmp310-Lfunc_begin34
	.uleb128 Lfunc_end34-Ltmp310
	.byte	0
	.byte	0
Lcst_end8:
	.p2align	2

	.section	__TEXT,__text,regular,pure_instructions
	.p2align	4, 0x90
__ZN4core3cmp9PartialEq2ne17hcb4199a34ace1b6aE:
Lfunc_begin35:
	.loc	8 227 0 is_stmt 1
	.cfi_startproc
	pushq	%rbp
	.cfi_def_cfa_offset 16
	.cfi_offset %rbp, -16
	movq	%rsp, %rbp
	.cfi_def_cfa_register %rbp
	subq	$16, %rsp
	movq	%rdi, -16(%rbp)
	movq	%rsi, -8(%rbp)
Ltmp314:
	.loc	8 228 10 prologue_end
	callq	__ZN70_$LT$core..option..Option$LT$T$GT$$u20$as$u20$core..cmp..PartialEq$GT$2eq17h48b7953541b2f356E
	.loc	8 228 9 is_stmt 0
	xorb	$-1, %al
	.loc	8 229 6 is_stmt 1
	andb	$1, %al
	movzbl	%al, %eax
	addq	$16, %rsp
	popq	%rbp
	retq
Ltmp315:
Lfunc_end35:
	.cfi_endproc

	.p2align	4, 0x90
__ZN4core3fmt9Arguments6new_v117h46631685885b00a9E:
Lfunc_begin36:
	.file	29 "/rustc/2c8cc343237b8f7d5a3c3703e3a87f2eb2c54a74/library/core/src/fmt" "mod.rs"
	.loc	29 399 0
	.cfi_startproc
	pushq	%rbp
	.cfi_def_cfa_offset 16
	.cfi_offset %rbp, -16
	movq	%rsp, %rbp
	.cfi_def_cfa_register %rbp
	subq	$160, %rsp
	movq	%r8, -152(%rbp)
	movq	%rcx, -144(%rbp)
	movq	%rdx, -136(%rbp)
	movq	%rsi, -128(%rbp)
	movq	%rdi, -120(%rbp)
	movq	%rdi, -112(%rbp)
	movq	%rsi, -32(%rbp)
	movq	%rdx, -24(%rbp)
	movq	%rcx, -16(%rbp)
	movq	%r8, -8(%rbp)
Ltmp316:
	.loc	29 400 12 prologue_end
	cmpq	%r8, %rdx
	jb	LBB36_2
	.loc	29 0 12 is_stmt 0
	movq	-136(%rbp), %rax
	movq	-152(%rbp), %rcx
	.loc	29 400 56
	addq	$1, %rcx
	.loc	29 400 41
	cmpq	%rcx, %rax
	seta	%al
	.loc	29 400 12
	andb	$1, %al
	movb	%al, -97(%rbp)
	jmp	LBB36_3
LBB36_2:
	movb	$1, -97(%rbp)
LBB36_3:
	testb	$1, -97(%rbp)
	jne	LBB36_5
	.loc	29 0 12
	movq	-112(%rbp), %rax
	movq	-120(%rbp), %rcx
	movq	-152(%rbp), %rdx
	movq	-144(%rbp), %rsi
	movq	-136(%rbp), %rdi
	movq	-128(%rbp), %r8
	.loc	29 403 34 is_stmt 1
	movq	$0, -48(%rbp)
	.loc	29 403 9 is_stmt 0
	movq	%r8, 16(%rcx)
	movq	%rdi, 24(%rcx)
	movq	-48(%rbp), %r8
	movq	-40(%rbp), %rdi
	movq	%r8, (%rcx)
	movq	%rdi, 8(%rcx)
	movq	%rsi, 32(%rcx)
	movq	%rdx, 40(%rcx)
	.loc	29 404 6 is_stmt 1
	addq	$160, %rsp
	popq	%rbp
	retq
LBB36_5:
	.loc	29 401 13
	leaq	l___unnamed_5(%rip), %rsi
	leaq	l___unnamed_6(%rip), %rcx
	xorl	%eax, %eax
	movl	%eax, %r8d
	leaq	-96(%rbp), %rdi
	movq	%rdi, -160(%rbp)
	movl	$1, %edx
	callq	__ZN4core3fmt9Arguments6new_v117h46631685885b00a9E
	movq	-160(%rbp), %rdi
	leaq	l___unnamed_7(%rip), %rsi
	callq	__ZN4core9panicking9panic_fmt17h9b5d807e24bcaaedE
Ltmp317:
Lfunc_end36:
	.cfi_endproc

	.p2align	4, 0x90
__ZN4core3mem12maybe_uninit20MaybeUninit$LT$T$GT$16assume_init_drop17h31b4e67e69d4ce9bE:
Lfunc_begin37:
	.file	30 "/rustc/2c8cc343237b8f7d5a3c3703e3a87f2eb2c54a74/library/core/src/mem" "maybe_uninit.rs"
	.loc	30 724 0
	.cfi_startproc
	pushq	%rbp
	.cfi_def_cfa_offset 16
	.cfi_offset %rbp, -16
	movq	%rsp, %rbp
	.cfi_def_cfa_register %rbp
	subq	$16, %rsp
	movq	%rdi, -16(%rbp)
Ltmp318:
	.loc	30 728 37 prologue_end
	movq	%rdi, -8(%rbp)
	.loc	30 728 18 is_stmt 0
	callq	__ZN4core3ptr47drop_in_place$LT$std..ffi..os_str..OsString$GT$17h1785b1b2a43e54a6E
	.loc	30 729 6 is_stmt 1
	addq	$16, %rsp
	popq	%rbp
	retq
Ltmp319:
Lfunc_end37:
	.cfi_endproc

	.p2align	4, 0x90
__ZN4core3mem12maybe_uninit20MaybeUninit$LT$T$GT$16assume_init_drop17h7f94b6b1d9079a59E:
Lfunc_begin38:
	.loc	30 724 0
	.cfi_startproc
	pushq	%rbp
	.cfi_def_cfa_offset 16
	.cfi_offset %rbp, -16
	movq	%rsp, %rbp
	.cfi_def_cfa_register %rbp
	subq	$16, %rsp
	movq	%rdi, -16(%rbp)
Ltmp320:
	.loc	30 728 37 prologue_end
	movq	%rdi, -8(%rbp)
	.loc	30 728 18 is_stmt 0
	callq	__ZN4core3ptr75drop_in_place$LT$core..option..Option$LT$std..ffi..os_str..OsString$GT$$GT$17h11d74861f76ad766E
	.loc	30 729 6 is_stmt 1
	addq	$16, %rsp
	popq	%rbp
	retq
Ltmp321:
Lfunc_end38:
	.cfi_endproc

	.p2align	4, 0x90
__ZN4core3mem7replace17h36f7036244c9b994E:
Lfunc_begin39:
	.file	31 "/rustc/2c8cc343237b8f7d5a3c3703e3a87f2eb2c54a74/library/core/src/mem" "mod.rs"
	.loc	31 905 0
	.cfi_startproc
	pushq	%rbp
	.cfi_def_cfa_offset 16
	.cfi_offset %rbp, -16
	movq	%rsp, %rbp
	.cfi_def_cfa_register %rbp
	subq	$120, %rsp
	movq	%rdi, -120(%rbp)
	movq	%rsi, -112(%rbp)
	movq	%rdi, -80(%rbp)
	movq	%rsi, -72(%rbp)
Ltmp322:
	.loc	31 910 32 prologue_end
	movq	%rdi, -64(%rbp)
Ltmp323:
	.loc	4 1157 34
	leaq	-88(%rbp), %rax
	movq	%rax, -56(%rbp)
	.loc	4 1157 9 is_stmt 0
	movq	(%rdi), %rax
	movq	%rax, -88(%rbp)
	.loc	4 1158 9 is_stmt 1
	movq	-88(%rbp), %rax
	movq	%rax, -104(%rbp)
	movq	%rax, -48(%rbp)
	.loc	4 0 9 is_stmt 0
	movq	-104(%rbp), %rax
	movq	-120(%rbp), %rcx
	movq	-112(%rbp), %rdx
Ltmp324:
	.loc	30 627 38 is_stmt 1
	movq	%rax, -24(%rbp)
Ltmp325:
	.loc	13 89 9
	movq	%rax, -16(%rbp)
Ltmp326:
	.loc	31 911 20
	movq	%rcx, -8(%rbp)
	.loc	31 911 26 is_stmt 0
	movq	%rdx, -96(%rbp)
Ltmp327:
	.loc	4 1354 9 is_stmt 1
	movq	-96(%rbp), %rdx
	movq	%rdx, (%rcx)
Ltmp328:
	.loc	31 914 2
	addq	$120, %rsp
	popq	%rbp
	retq
Ltmp329:
Lfunc_end39:
	.cfi_endproc

	.p2align	4, 0x90
__ZN4core3mem7replace17h8eaf91c5606c638dE:
Lfunc_begin40:
	.loc	31 905 0
	.cfi_startproc
	pushq	%rbp
	.cfi_def_cfa_offset 16
	.cfi_offset %rbp, -16
	movq	%rsp, %rbp
	.cfi_def_cfa_register %rbp
	subq	$208, %rsp
	movq	%rdx, -208(%rbp)
Ltmp330:
	movq	%rsi, -200(%rbp)
	movq	%rdi, -192(%rbp)
	movq	%rdi, -184(%rbp)
	movq	%rsi, -48(%rbp)
Ltmp331:
	.loc	31 910 32 prologue_end
	movq	%rsi, -40(%rbp)
Ltmp332:
	.loc	4 1157 34
	leaq	-144(%rbp), %rax
	movq	%rax, -32(%rbp)
	.loc	4 1157 9 is_stmt 0
	movq	(%rsi), %rax
	movq	%rax, -144(%rbp)
	movq	8(%rsi), %rax
	movq	%rax, -136(%rbp)
	movq	16(%rsi), %rax
	movq	%rax, -128(%rbp)
	movq	24(%rsi), %rax
	movq	%rax, -120(%rbp)
	.loc	4 1158 9 is_stmt 1
	movq	-144(%rbp), %rax
	movq	%rax, -112(%rbp)
	movq	-136(%rbp), %rax
	movq	%rax, -104(%rbp)
	movq	-128(%rbp), %rax
	movq	%rax, -96(%rbp)
	movq	-120(%rbp), %rax
	movq	%rax, -88(%rbp)
Ltmp333:
	.loc	4 0 9 is_stmt 0
	movq	-184(%rbp), %rax
	movq	-200(%rbp), %rcx
	movq	-208(%rbp), %rdx
	movq	-192(%rbp), %rsi
Ltmp334:
	.loc	30 627 38 is_stmt 1
	movq	-112(%rbp), %rdi
	movq	%rdi, -80(%rbp)
	movq	-104(%rbp), %rdi
	movq	%rdi, -72(%rbp)
	movq	-96(%rbp), %rdi
	movq	%rdi, -64(%rbp)
	movq	-88(%rbp), %rdi
	movq	%rdi, -56(%rbp)
Ltmp335:
	.loc	13 89 9
	movq	-80(%rbp), %rdi
	movq	%rdi, (%rsi)
	movq	-72(%rbp), %rdi
	movq	%rdi, 8(%rsi)
	movq	-64(%rbp), %rdi
	movq	%rdi, 16(%rsi)
	movq	-56(%rbp), %rdi
	movq	%rdi, 24(%rsi)
Ltmp336:
	.loc	31 911 20
	movq	%rcx, -8(%rbp)
	.loc	31 911 26 is_stmt 0
	movq	(%rdx), %rsi
	movq	%rsi, -176(%rbp)
	movq	8(%rdx), %rsi
	movq	%rsi, -168(%rbp)
	movq	16(%rdx), %rsi
	movq	%rsi, -160(%rbp)
	movq	24(%rdx), %rdx
	movq	%rdx, -152(%rbp)
Ltmp337:
	.loc	4 1354 9 is_stmt 1
	movq	-176(%rbp), %rdx
	movq	%rdx, (%rcx)
	movq	-168(%rbp), %rdx
	movq	%rdx, 8(%rcx)
	movq	-160(%rbp), %rdx
	movq	%rdx, 16(%rcx)
	movq	-152(%rbp), %rdx
	movq	%rdx, 24(%rcx)
Ltmp338:
	.loc	31 914 2
	addq	$208, %rsp
	popq	%rbp
	retq
Ltmp339:
Lfunc_end40:
	.cfi_endproc

	.p2align	4, 0x90
__ZN4core3mem7replace17ha8326c24c40284e2E:
Lfunc_begin41:
	.loc	31 905 0
	.cfi_startproc
	pushq	%rbp
	.cfi_def_cfa_offset 16
	.cfi_offset %rbp, -16
	movq	%rsp, %rbp
	.cfi_def_cfa_register %rbp
	subq	$184, %rsp
	movq	%rdi, -184(%rbp)
	movq	%rsi, -176(%rbp)
	movq	%rdx, -168(%rbp)
	movq	%rdi, -112(%rbp)
	movq	%rsi, -104(%rbp)
	movq	%rdx, -96(%rbp)
Ltmp340:
	.loc	31 910 32 prologue_end
	movq	%rdi, -88(%rbp)
Ltmp341:
	.loc	4 1157 34
	leaq	-128(%rbp), %rax
	movq	%rax, -80(%rbp)
	.loc	4 1157 9 is_stmt 0
	movq	(%rdi), %rax
	movq	%rax, -128(%rbp)
	movq	8(%rdi), %rax
	movq	%rax, -120(%rbp)
	.loc	4 1158 9 is_stmt 1
	movq	-128(%rbp), %rcx
	movq	%rcx, -160(%rbp)
	movq	-120(%rbp), %rax
	movq	%rax, -152(%rbp)
	movq	%rcx, -72(%rbp)
	movq	%rax, -64(%rbp)
	.loc	4 0 9 is_stmt 0
	movq	-152(%rbp), %rdx
	movq	-160(%rbp), %rax
	movq	-184(%rbp), %rcx
	movq	-168(%rbp), %rsi
	movq	-176(%rbp), %rdi
Ltmp342:
	.loc	30 627 38 is_stmt 1
	movq	%rax, -40(%rbp)
	movq	%rdx, -32(%rbp)
Ltmp343:
	.loc	13 89 9
	movq	%rax, -24(%rbp)
	movq	%rdx, -16(%rbp)
Ltmp344:
	.loc	31 911 20
	movq	%rcx, -8(%rbp)
	.loc	31 911 26 is_stmt 0
	movq	%rdi, -144(%rbp)
	movq	%rsi, -136(%rbp)
Ltmp345:
	.loc	4 1354 9 is_stmt 1
	movq	-144(%rbp), %rsi
	movq	-136(%rbp), %rdi
	movq	%rdi, 8(%rcx)
	movq	%rsi, (%rcx)
Ltmp346:
	.loc	31 914 2
	addq	$184, %rsp
	popq	%rbp
	retq
Ltmp347:
Lfunc_end41:
	.cfi_endproc

	.p2align	4, 0x90
__ZN4core3ops8function6FnOnce40call_once$u7b$$u7b$vtable.shim$u7d$$u7d$17h09686397a59678d3E:
Lfunc_begin42:
	.file	32 "/rustc/2c8cc343237b8f7d5a3c3703e3a87f2eb2c54a74/library/core/src/ops" "function.rs"
	.loc	32 250 0
	.cfi_startproc
	pushq	%rbp
	.cfi_def_cfa_offset 16
	.cfi_offset %rbp, -16
	movq	%rsp, %rbp
	.cfi_def_cfa_register %rbp
	subq	$16, %rsp
	movq	%rdi, -8(%rbp)
Ltmp348:
	.loc	32 250 5 prologue_end
	movq	(%rdi), %rdi
	callq	__ZN4core3ops8function6FnOnce9call_once17h8037599675ead472E
	addq	$16, %rsp
	popq	%rbp
	retq
Ltmp349:
Lfunc_end42:
	.cfi_endproc

	.p2align	4, 0x90
__ZN4core3ops8function6FnOnce9call_once17h8037599675ead472E:
Lfunc_begin43:
	.loc	32 250 0
	.cfi_startproc
	.cfi_personality 155, _rust_eh_personality
	.cfi_lsda 16, Lexception9
	pushq	%rbp
	.cfi_def_cfa_offset 16
	.cfi_offset %rbp, -16
	movq	%rsp, %rbp
	.cfi_def_cfa_register %rbp
	subq	$48, %rsp
	movq	%rdi, -32(%rbp)
Ltmp350:
	leaq	-32(%rbp), %rdi
Ltmp353:
	.loc	32 250 5 prologue_end
	callq	__ZN3std2rt10lang_start28_$u7b$$u7b$closure$u7d$$u7d$17h62de6468515a7393E
Ltmp351:
	movl	%eax, -36(%rbp)
	jmp	LBB43_3
LBB43_1:
	movq	-16(%rbp), %rdi
	callq	__Unwind_Resume
LBB43_2:
Ltmp352:
	.loc	32 0 5 is_stmt 0
	movq	%rax, %rcx
	movl	%edx, %eax
	movq	%rcx, -16(%rbp)
	movl	%eax, -8(%rbp)
	jmp	LBB43_1
LBB43_3:
	movl	-36(%rbp), %eax
	.loc	32 250 5
	addq	$48, %rsp
	popq	%rbp
	retq
Ltmp354:
Lfunc_end43:
	.cfi_endproc
	.section	__TEXT,__gcc_except_tab
	.p2align	2
GCC_except_table43:
Lexception9:
	.byte	255
	.byte	255
	.byte	1
	.uleb128 Lcst_end9-Lcst_begin9
Lcst_begin9:
	.uleb128 Ltmp350-Lfunc_begin43
	.uleb128 Ltmp351-Ltmp350
	.uleb128 Ltmp352-Lfunc_begin43
	.byte	0
	.uleb128 Ltmp351-Lfunc_begin43
	.uleb128 Lfunc_end43-Ltmp351
	.byte	0
	.byte	0
Lcst_end9:
	.p2align	2

	.section	__TEXT,__text,regular,pure_instructions
	.p2align	4, 0x90
__ZN4core3ops8function6FnOnce9call_once17h955d9111b5621fdaE:
Lfunc_begin44:
	.loc	32 250 0 is_stmt 1
	.cfi_startproc
	pushq	%rbp
	.cfi_def_cfa_offset 16
	.cfi_offset %rbp, -16
	movq	%rsp, %rbp
	.cfi_def_cfa_register %rbp
	subq	$16, %rsp
	movq	%rdi, -8(%rbp)
Ltmp355:
	.loc	32 250 5 prologue_end
	callq	*%rdi
	addq	$16, %rsp
	popq	%rbp
	retq
Ltmp356:
Lfunc_end44:
	.cfi_endproc

	.p2align	4, 0x90
__ZN4core3ops8function6FnOnce9call_once17hbd464b684ceb69b2E:
Lfunc_begin45:
	.loc	32 250 0
	.cfi_startproc
	pushq	%rbp
	.cfi_def_cfa_offset 16
	.cfi_offset %rbp, -16
	movq	%rsp, %rbp
	.cfi_def_cfa_register %rbp
	subq	$32, %rsp
	movq	%rdi, -24(%rbp)
	movq	%rsi, -16(%rbp)
Ltmp357:
	.loc	32 250 5 prologue_end
	movq	-24(%rbp), %rdi
	movq	-16(%rbp), %rsi
	callq	__ZN4core3cmp5impls50_$LT$impl$u20$core..cmp..Ord$u20$for$u20$usize$GT$3cmp17h7c73655fae8185d6E
	addq	$32, %rsp
	popq	%rbp
	retq
Ltmp358:
Lfunc_end45:
	.cfi_endproc

	.p2align	4, 0x90
__ZN4core3ptr101drop_in_place$LT$std..io..error..ErrorData$LT$alloc..boxed..Box$LT$std..io..error..Custom$GT$$GT$$GT$17hb942a910c8b80caeE:
Lfunc_begin46:
	.loc	4 490 0
	.cfi_startproc
	pushq	%rbp
	.cfi_def_cfa_offset 16
	.cfi_offset %rbp, -16
	movq	%rsp, %rbp
	.cfi_def_cfa_register %rbp
	subq	$16, %rsp
	movq	%rdi, -16(%rbp)
	movq	%rdi, -8(%rbp)
Ltmp359:
	.loc	4 490 1 prologue_end
	movb	(%rdi), %al
	subb	$3, %al
	jb	LBB46_2
	jmp	LBB46_1
LBB46_1:
	.loc	4 0 1 is_stmt 0
	movq	-16(%rbp), %rdi
	.loc	4 490 1
	addq	$8, %rdi
	callq	__ZN4core3ptr68drop_in_place$LT$alloc..boxed..Box$LT$std..io..error..Custom$GT$$GT$17h951fd02d3e27f557E
LBB46_2:
	addq	$16, %rsp
	popq	%rbp
	retq
Ltmp360:
Lfunc_end46:
	.cfi_endproc

	.p2align	4, 0x90
__ZN4core3ptr118drop_in_place$LT$alloc..boxed..Box$LT$dyn$u20$core..error..Error$u2b$core..marker..Send$u2b$core..marker..Sync$GT$$GT$17hceffeebc00c83f56E:
Lfunc_begin47:
	.loc	4 490 0 is_stmt 1
	.cfi_startproc
	.cfi_personality 155, _rust_eh_personality
	.cfi_lsda 16, Lexception10
	pushq	%rbp
	.cfi_def_cfa_offset 16
	.cfi_offset %rbp, -16
	movq	%rsp, %rbp
	.cfi_def_cfa_register %rbp
	subq	$32, %rsp
	movq	%rdi, %rax
	movq	%rax, -32(%rbp)
	movq	%rax, -24(%rbp)
Ltmp367:
	.loc	4 490 1 prologue_end
	movq	(%rax), %rdi
	movq	8(%rax), %rax
	movq	(%rax), %rax
Ltmp361:
	callq	*%rax
Ltmp362:
	jmp	LBB47_3
LBB47_1:
	.loc	4 0 1 is_stmt 0
	movq	-32(%rbp), %rax
	.loc	4 490 1
	movq	(%rax), %rdi
	movq	8(%rax), %rsi
Ltmp364:
	callq	__ZN5alloc5alloc8box_free17h4c3e517d957c38eaE
Ltmp365:
	jmp	LBB47_5
LBB47_2:
Ltmp363:
	.loc	4 0 1
	movq	%rax, %rcx
	movl	%edx, %eax
	movq	%rcx, -16(%rbp)
	movl	%eax, -8(%rbp)
	jmp	LBB47_1
LBB47_3:
	movq	-32(%rbp), %rax
	.loc	4 490 1
	movq	(%rax), %rdi
	movq	8(%rax), %rsi
	callq	__ZN5alloc5alloc8box_free17h4c3e517d957c38eaE
	addq	$32, %rsp
	popq	%rbp
	retq
LBB47_4:
Ltmp366:
	callq	__ZN4core9panicking19panic_cannot_unwind17h1fbca7e1d7f56ae1E
LBB47_5:
	movq	-16(%rbp), %rdi
	callq	__Unwind_Resume
Ltmp368:
Lfunc_end47:
	.cfi_endproc
	.section	__TEXT,__gcc_except_tab
	.p2align	2
GCC_except_table47:
Lexception10:
	.byte	255
	.byte	255
	.byte	1
	.uleb128 Lcst_end10-Lcst_begin10
Lcst_begin10:
	.uleb128 Ltmp361-Lfunc_begin47
	.uleb128 Ltmp362-Ltmp361
	.uleb128 Ltmp363-Lfunc_begin47
	.byte	0
	.uleb128 Ltmp364-Lfunc_begin47
	.uleb128 Ltmp365-Ltmp364
	.uleb128 Ltmp366-Lfunc_begin47
	.byte	0
	.uleb128 Ltmp365-Lfunc_begin47
	.uleb128 Lfunc_end47-Ltmp365
	.byte	0
	.byte	0
Lcst_end10:
	.p2align	2

	.section	__TEXT,__text,regular,pure_instructions
	.p2align	4, 0x90
__ZN4core3ptr152drop_in_place$LT$alloc..collections..btree..map..BTreeMap$LT$std..ffi..os_str..OsString$C$core..option..Option$LT$std..ffi..os_str..OsString$GT$$GT$$GT$17h10671d3c716de59dE:
Lfunc_begin48:
	.loc	4 490 0 is_stmt 1
	.cfi_startproc
	pushq	%rbp
	.cfi_def_cfa_offset 16
	.cfi_offset %rbp, -16
	movq	%rsp, %rbp
	.cfi_def_cfa_register %rbp
	subq	$16, %rsp
	movq	%rdi, -8(%rbp)
Ltmp369:
	.loc	4 490 1 prologue_end
	callq	__ZN99_$LT$alloc..collections..btree..map..BTreeMap$LT$K$C$V$C$A$GT$$u20$as$u20$core..ops..drop..Drop$GT$4drop17hafd24816855e7647E
	addq	$16, %rsp
	popq	%rbp
	retq
Ltmp370:
Lfunc_end48:
	.cfi_endproc

	.p2align	4, 0x90
__ZN4core3ptr152drop_in_place$LT$alloc..collections..btree..map..IntoIter$LT$std..ffi..os_str..OsString$C$core..option..Option$LT$std..ffi..os_str..OsString$GT$$GT$$GT$17h532bf8ad37ba129eE:
Lfunc_begin49:
	.loc	4 490 0
	.cfi_startproc
	pushq	%rbp
	.cfi_def_cfa_offset 16
	.cfi_offset %rbp, -16
	movq	%rsp, %rbp
	.cfi_def_cfa_register %rbp
	subq	$16, %rsp
	movq	%rdi, -8(%rbp)
Ltmp371:
	.loc	4 490 1 prologue_end
	callq	__ZN99_$LT$alloc..collections..btree..map..IntoIter$LT$K$C$V$C$A$GT$$u20$as$u20$core..ops..drop..Drop$GT$4drop17h4ddaf8ab17d1051eE
	addq	$16, %rsp
	popq	%rbp
	retq
Ltmp372:
Lfunc_end49:
	.cfi_endproc

	.p2align	4, 0x90
__ZN4core3ptr203drop_in_place$LT$dyn$u20$core..ops..function..FnMut$LT$$LP$$RP$$GT$$u2b$Output$u20$$u3d$$u20$core..result..Result$LT$$LP$$RP$$C$std..io..error..Error$GT$$u2b$core..marker..Send$u2b$core..marker..Sync$GT$17h3971cdb5942cc769E:
Lfunc_begin50:
	.loc	4 490 0
	.cfi_startproc
	pushq	%rbp
	.cfi_def_cfa_offset 16
	.cfi_offset %rbp, -16
	movq	%rsp, %rbp
	.cfi_def_cfa_register %rbp
	subq	$16, %rsp
	movq	%rdi, -16(%rbp)
	movq	%rsi, -8(%rbp)
Ltmp373:
	.loc	4 490 1 prologue_end
	callq	*(%rsi)
	addq	$16, %rsp
	popq	%rbp
	retq
Ltmp374:
Lfunc_end50:
	.cfi_endproc

	.p2align	4, 0x90
__ZN4core3ptr228drop_in_place$LT$alloc..boxed..Box$LT$dyn$u20$core..ops..function..FnMut$LT$$LP$$RP$$GT$$u2b$Output$u20$$u3d$$u20$core..result..Result$LT$$LP$$RP$$C$std..io..error..Error$GT$$u2b$core..marker..Send$u2b$core..marker..Sync$GT$$GT$17h8661b8f04e6d82d1E:
Lfunc_begin51:
	.loc	4 490 0
	.cfi_startproc
	.cfi_personality 155, _rust_eh_personality
	.cfi_lsda 16, Lexception11
	pushq	%rbp
	.cfi_def_cfa_offset 16
	.cfi_offset %rbp, -16
	movq	%rsp, %rbp
	.cfi_def_cfa_register %rbp
	subq	$32, %rsp
	movq	%rdi, %rax
	movq	%rax, -32(%rbp)
	movq	%rax, -24(%rbp)
Ltmp381:
	.loc	4 490 1 prologue_end
	movq	(%rax), %rdi
	movq	8(%rax), %rax
	movq	(%rax), %rax
Ltmp375:
	callq	*%rax
Ltmp376:
	jmp	LBB51_3
LBB51_1:
	.loc	4 0 1 is_stmt 0
	movq	-32(%rbp), %rax
	.loc	4 490 1
	movq	(%rax), %rdi
	movq	8(%rax), %rsi
Ltmp378:
	callq	__ZN5alloc5alloc8box_free17hbc1d5c3f9fe0db6fE
Ltmp379:
	jmp	LBB51_5
LBB51_2:
Ltmp377:
	.loc	4 0 1
	movq	%rax, %rcx
	movl	%edx, %eax
	movq	%rcx, -16(%rbp)
	movl	%eax, -8(%rbp)
	jmp	LBB51_1
LBB51_3:
	movq	-32(%rbp), %rax
	.loc	4 490 1
	movq	(%rax), %rdi
	movq	8(%rax), %rsi
	callq	__ZN5alloc5alloc8box_free17hbc1d5c3f9fe0db6fE
	addq	$32, %rsp
	popq	%rbp
	retq
LBB51_4:
Ltmp380:
	callq	__ZN4core9panicking19panic_cannot_unwind17h1fbca7e1d7f56ae1E
LBB51_5:
	movq	-16(%rbp), %rdi
	callq	__Unwind_Resume
Ltmp382:
Lfunc_end51:
	.cfi_endproc
	.section	__TEXT,__gcc_except_tab
	.p2align	2
GCC_except_table51:
Lexception11:
	.byte	255
	.byte	255
	.byte	1
	.uleb128 Lcst_end11-Lcst_begin11
Lcst_begin11:
	.uleb128 Ltmp375-Lfunc_begin51
	.uleb128 Ltmp376-Ltmp375
	.uleb128 Ltmp377-Lfunc_begin51
	.byte	0
	.uleb128 Ltmp378-Lfunc_begin51
	.uleb128 Ltmp379-Ltmp378
	.uleb128 Ltmp380-Lfunc_begin51
	.byte	0
	.uleb128 Ltmp379-Lfunc_begin51
	.uleb128 Lfunc_end51-Ltmp379
	.byte	0
	.byte	0
Lcst_end11:
	.p2align	2

	.section	__TEXT,__text,regular,pure_instructions
	.p2align	4, 0x90
__ZN4core3ptr238drop_in_place$LT$$u5b$alloc..boxed..Box$LT$dyn$u20$core..ops..function..FnMut$LT$$LP$$RP$$GT$$u2b$Output$u20$$u3d$$u20$core..result..Result$LT$$LP$$RP$$C$std..io..error..Error$GT$$u2b$core..marker..Send$u2b$core..marker..Sync$GT$$u5d$$GT$17h34c24d857e11b12fE:
Lfunc_begin52:
	.loc	4 490 0 is_stmt 1
	.cfi_startproc
	.cfi_personality 155, _rust_eh_personality
	.cfi_lsda 16, Lexception12
	pushq	%rbp
	.cfi_def_cfa_offset 16
	.cfi_offset %rbp, -16
	movq	%rsp, %rbp
	.cfi_def_cfa_register %rbp
	subq	$80, %rsp
	movq	%rdi, -64(%rbp)
	movq	%rsi, -56(%rbp)
	movq	%rdi, -32(%rbp)
	movq	%rsi, -24(%rbp)
Ltmp394:
	.loc	4 490 1 prologue_end
	xorl	%eax, %eax
	testb	$1, %al
	jne	LBB52_1
	jmp	LBB52_2
LBB52_1:
	movq	$0, -48(%rbp)
	jmp	LBB52_11
LBB52_2:
	.loc	4 0 1 is_stmt 0
	movq	-56(%rbp), %rax
	movq	-64(%rbp), %rcx
	.loc	4 490 1
	movq	%rcx, -40(%rbp)
	shlq	$4, %rax
	addq	-40(%rbp), %rax
	movq	%rax, -72(%rbp)
LBB52_3:
	.loc	4 0 1
	movq	-72(%rbp), %rax
	.loc	4 490 1
	cmpq	%rax, -40(%rbp)
	je	LBB52_5
	movq	-40(%rbp), %rdi
	movq	%rdi, %rax
	addq	$16, %rax
	movq	%rax, -40(%rbp)
Ltmp383:
	callq	__ZN4core3ptr228drop_in_place$LT$alloc..boxed..Box$LT$dyn$u20$core..ops..function..FnMut$LT$$LP$$RP$$GT$$u2b$Output$u20$$u3d$$u20$core..result..Result$LT$$LP$$RP$$C$std..io..error..Error$GT$$u2b$core..marker..Send$u2b$core..marker..Sync$GT$$GT$17h8661b8f04e6d82d1E
Ltmp384:
	jmp	LBB52_3
LBB52_5:
	addq	$80, %rsp
	popq	%rbp
	retq
LBB52_6:
	.loc	4 0 1
	movq	-72(%rbp), %rax
	.loc	4 490 1
	cmpq	%rax, -40(%rbp)
	je	LBB52_9
	jmp	LBB52_8
LBB52_7:
Ltmp385:
	.loc	4 0 1
	movq	%rax, %rcx
	movl	%edx, %eax
	movq	%rcx, -16(%rbp)
	movl	%eax, -8(%rbp)
	jmp	LBB52_6
LBB52_8:
	.loc	4 490 1
	movq	-40(%rbp), %rdi
	movq	%rdi, %rax
	addq	$16, %rax
	movq	%rax, -40(%rbp)
Ltmp386:
	callq	__ZN4core3ptr228drop_in_place$LT$alloc..boxed..Box$LT$dyn$u20$core..ops..function..FnMut$LT$$LP$$RP$$GT$$u2b$Output$u20$$u3d$$u20$core..result..Result$LT$$LP$$RP$$C$std..io..error..Error$GT$$u2b$core..marker..Send$u2b$core..marker..Sync$GT$$GT$17h8661b8f04e6d82d1E
Ltmp387:
	jmp	LBB52_6
LBB52_9:
	movq	-16(%rbp), %rdi
	callq	__Unwind_Resume
LBB52_10:
Ltmp393:
	callq	__ZN4core9panicking19panic_cannot_unwind17h1fbca7e1d7f56ae1E
LBB52_11:
	.loc	4 0 1
	movq	-56(%rbp), %rax
	.loc	4 490 1
	cmpq	%rax, -48(%rbp)
	je	LBB52_5
	.loc	4 0 1
	movq	-64(%rbp), %rdi
	.loc	4 490 1
	movq	-48(%rbp), %rax
	movq	%rax, %rcx
	shlq	$4, %rcx
	addq	%rcx, %rdi
	incq	%rax
	movq	%rax, -48(%rbp)
Ltmp388:
	callq	__ZN4core3ptr228drop_in_place$LT$alloc..boxed..Box$LT$dyn$u20$core..ops..function..FnMut$LT$$LP$$RP$$GT$$u2b$Output$u20$$u3d$$u20$core..result..Result$LT$$LP$$RP$$C$std..io..error..Error$GT$$u2b$core..marker..Send$u2b$core..marker..Sync$GT$$GT$17h8661b8f04e6d82d1E
Ltmp389:
	jmp	LBB52_11
LBB52_13:
	.loc	4 0 1
	movq	-56(%rbp), %rax
	.loc	4 490 1
	cmpq	%rax, -48(%rbp)
	je	LBB52_9
	jmp	LBB52_15
LBB52_14:
Ltmp390:
	.loc	4 0 1
	movq	%rax, %rcx
	movl	%edx, %eax
	movq	%rcx, -16(%rbp)
	movl	%eax, -8(%rbp)
	jmp	LBB52_13
LBB52_15:
	movq	-64(%rbp), %rdi
	.loc	4 490 1
	movq	-48(%rbp), %rax
	movq	%rax, %rcx
	shlq	$4, %rcx
	addq	%rcx, %rdi
	incq	%rax
	movq	%rax, -48(%rbp)
Ltmp391:
	callq	__ZN4core3ptr228drop_in_place$LT$alloc..boxed..Box$LT$dyn$u20$core..ops..function..FnMut$LT$$LP$$RP$$GT$$u2b$Output$u20$$u3d$$u20$core..result..Result$LT$$LP$$RP$$C$std..io..error..Error$GT$$u2b$core..marker..Send$u2b$core..marker..Sync$GT$$GT$17h8661b8f04e6d82d1E
Ltmp392:
	jmp	LBB52_13
Ltmp395:
Lfunc_end52:
	.cfi_endproc
	.section	__TEXT,__gcc_except_tab
	.p2align	2
GCC_except_table52:
Lexception12:
	.byte	255
	.byte	255
	.byte	1
	.uleb128 Lcst_end12-Lcst_begin12
Lcst_begin12:
	.uleb128 Ltmp383-Lfunc_begin52
	.uleb128 Ltmp384-Ltmp383
	.uleb128 Ltmp385-Lfunc_begin52
	.byte	0
	.uleb128 Ltmp386-Lfunc_begin52
	.uleb128 Ltmp387-Ltmp386
	.uleb128 Ltmp393-Lfunc_begin52
	.byte	0
	.uleb128 Ltmp387-Lfunc_begin52
	.uleb128 Ltmp388-Ltmp387
	.byte	0
	.byte	0
	.uleb128 Ltmp388-Lfunc_begin52
	.uleb128 Ltmp389-Ltmp388
	.uleb128 Ltmp390-Lfunc_begin52
	.byte	0
	.uleb128 Ltmp391-Lfunc_begin52
	.uleb128 Ltmp392-Ltmp391
	.uleb128 Ltmp393-Lfunc_begin52
	.byte	0
Lcst_end12:
	.p2align	2

	.section	__TEXT,__text,regular,pure_instructions
	.p2align	4, 0x90
__ZN4core3ptr250drop_in_place$LT$$LT$alloc..collections..btree..map..IntoIter$LT$K$C$V$C$A$GT$$u20$as$u20$core..ops..drop..Drop$GT$..drop..DropGuard$LT$std..ffi..os_str..OsString$C$core..option..Option$LT$std..ffi..os_str..OsString$GT$$C$alloc..alloc..Global$GT$$GT$17h4c06bf95e50c7f18E:
Lfunc_begin53:
	.loc	4 490 0 is_stmt 1
	.cfi_startproc
	pushq	%rbp
	.cfi_def_cfa_offset 16
	.cfi_offset %rbp, -16
	movq	%rsp, %rbp
	.cfi_def_cfa_register %rbp
	subq	$16, %rsp
	movq	%rdi, -8(%rbp)
Ltmp396:
	.loc	4 490 1 prologue_end
	callq	__ZN174_$LT$$LT$alloc..collections..btree..map..IntoIter$LT$K$C$V$C$A$GT$$u20$as$u20$core..ops..drop..Drop$GT$..drop..DropGuard$LT$K$C$V$C$A$GT$$u20$as$u20$core..ops..drop..Drop$GT$4drop17h5b530939599aecdfE
	addq	$16, %rsp
	popq	%rbp
	retq
Ltmp397:
Lfunc_end53:
	.cfi_endproc

	.p2align	4, 0x90
__ZN4core3ptr251drop_in_place$LT$alloc..vec..Vec$LT$alloc..boxed..Box$LT$dyn$u20$core..ops..function..FnMut$LT$$LP$$RP$$GT$$u2b$Output$u20$$u3d$$u20$core..result..Result$LT$$LP$$RP$$C$std..io..error..Error$GT$$u2b$core..marker..Send$u2b$core..marker..Sync$GT$$GT$$GT$17h2a72843ade812a4fE:
Lfunc_begin54:
	.loc	4 490 0
	.cfi_startproc
	.cfi_personality 155, _rust_eh_personality
	.cfi_lsda 16, Lexception13
	pushq	%rbp
	.cfi_def_cfa_offset 16
	.cfi_offset %rbp, -16
	movq	%rsp, %rbp
	.cfi_def_cfa_register %rbp
	subq	$32, %rsp
	movq	%rdi, -32(%rbp)
	movq	%rdi, -24(%rbp)
Ltmp398:
Ltmp404:
	.loc	4 490 1 prologue_end
	callq	__ZN70_$LT$alloc..vec..Vec$LT$T$C$A$GT$$u20$as$u20$core..ops..drop..Drop$GT$4drop17h804b63156db2e3faE
Ltmp399:
	jmp	LBB54_3
LBB54_1:
Ltmp401:
	.loc	4 0 1 is_stmt 0
	movq	-32(%rbp), %rdi
	.loc	4 490 1
	callq	__ZN4core3ptr258drop_in_place$LT$alloc..raw_vec..RawVec$LT$alloc..boxed..Box$LT$dyn$u20$core..ops..function..FnMut$LT$$LP$$RP$$GT$$u2b$Output$u20$$u3d$$u20$core..result..Result$LT$$LP$$RP$$C$std..io..error..Error$GT$$u2b$core..marker..Send$u2b$core..marker..Sync$GT$$GT$$GT$17h1c462da18542b6aaE
Ltmp402:
	jmp	LBB54_5
LBB54_2:
Ltmp400:
	.loc	4 0 1
	movq	%rax, %rcx
	movl	%edx, %eax
	movq	%rcx, -16(%rbp)
	movl	%eax, -8(%rbp)
	jmp	LBB54_1
LBB54_3:
	movq	-32(%rbp), %rdi
	.loc	4 490 1
	callq	__ZN4core3ptr258drop_in_place$LT$alloc..raw_vec..RawVec$LT$alloc..boxed..Box$LT$dyn$u20$core..ops..function..FnMut$LT$$LP$$RP$$GT$$u2b$Output$u20$$u3d$$u20$core..result..Result$LT$$LP$$RP$$C$std..io..error..Error$GT$$u2b$core..marker..Send$u2b$core..marker..Sync$GT$$GT$$GT$17h1c462da18542b6aaE
	addq	$32, %rsp
	popq	%rbp
	retq
LBB54_4:
Ltmp403:
	callq	__ZN4core9panicking19panic_cannot_unwind17h1fbca7e1d7f56ae1E
LBB54_5:
	movq	-16(%rbp), %rdi
	callq	__Unwind_Resume
Ltmp405:
Lfunc_end54:
	.cfi_endproc
	.section	__TEXT,__gcc_except_tab
	.p2align	2
GCC_except_table54:
Lexception13:
	.byte	255
	.byte	255
	.byte	1
	.uleb128 Lcst_end13-Lcst_begin13
Lcst_begin13:
	.uleb128 Ltmp398-Lfunc_begin54
	.uleb128 Ltmp399-Ltmp398
	.uleb128 Ltmp400-Lfunc_begin54
	.byte	0
	.uleb128 Ltmp401-Lfunc_begin54
	.uleb128 Ltmp402-Ltmp401
	.uleb128 Ltmp403-Lfunc_begin54
	.byte	0
	.uleb128 Ltmp402-Lfunc_begin54
	.uleb128 Lfunc_end54-Ltmp402
	.byte	0
	.byte	0
Lcst_end13:
	.p2align	2

	.section	__TEXT,__text,regular,pure_instructions
	.p2align	4, 0x90
__ZN4core3ptr258drop_in_place$LT$alloc..raw_vec..RawVec$LT$alloc..boxed..Box$LT$dyn$u20$core..ops..function..FnMut$LT$$LP$$RP$$GT$$u2b$Output$u20$$u3d$$u20$core..result..Result$LT$$LP$$RP$$C$std..io..error..Error$GT$$u2b$core..marker..Send$u2b$core..marker..Sync$GT$$GT$$GT$17h1c462da18542b6aaE:
Lfunc_begin55:
	.loc	4 490 0 is_stmt 1
	.cfi_startproc
	pushq	%rbp
	.cfi_def_cfa_offset 16
	.cfi_offset %rbp, -16
	movq	%rsp, %rbp
	.cfi_def_cfa_register %rbp
	subq	$16, %rsp
	movq	%rdi, -8(%rbp)
Ltmp406:
	.loc	4 490 1 prologue_end
	callq	__ZN77_$LT$alloc..raw_vec..RawVec$LT$T$C$A$GT$$u20$as$u20$core..ops..drop..Drop$GT$4drop17hd7066d4ce5f1d7c9E
	addq	$16, %rsp
	popq	%rbp
	retq
Ltmp407:
Lfunc_end55:
	.cfi_endproc

	.p2align	4, 0x90
__ZN4core3ptr39drop_in_place$LT$std..env..VarError$GT$17hdcf24c09e76c19d8E:
Lfunc_begin56:
	.loc	4 490 0
	.cfi_startproc
	pushq	%rbp
	.cfi_def_cfa_offset 16
	.cfi_offset %rbp, -16
	movq	%rsp, %rbp
	.cfi_def_cfa_register %rbp
	subq	$16, %rsp
	movq	%rdi, -16(%rbp)
	movq	%rdi, -8(%rbp)
Ltmp408:
	.loc	4 490 1 prologue_end
	movq	8(%rdi), %rdx
	movl	$1, %eax
	xorl	%ecx, %ecx
	cmpq	$0, %rdx
	cmoveq	%rcx, %rax
	cmpq	$0, %rax
	jne	LBB56_2
LBB56_1:
	addq	$16, %rsp
	popq	%rbp
	retq
LBB56_2:
	.loc	4 0 1 is_stmt 0
	movq	-16(%rbp), %rdi
	.loc	4 490 1
	callq	__ZN4core3ptr47drop_in_place$LT$std..ffi..os_str..OsString$GT$17h1785b1b2a43e54a6E
	jmp	LBB56_1
Ltmp409:
Lfunc_end56:
	.cfi_endproc

	.p2align	4, 0x90
__ZN4core3ptr41drop_in_place$LT$std..process..Output$GT$17h42e826b270327ac7E:
Lfunc_begin57:
	.loc	4 490 0 is_stmt 1
	.cfi_startproc
	.cfi_personality 155, _rust_eh_personality
	.cfi_lsda 16, Lexception14
	pushq	%rbp
	.cfi_def_cfa_offset 16
	.cfi_offset %rbp, -16
	movq	%rsp, %rbp
	.cfi_def_cfa_register %rbp
	subq	$32, %rsp
	movq	%rdi, -32(%rbp)
	movq	%rdi, -24(%rbp)
Ltmp410:
Ltmp416:
	.loc	4 490 1 prologue_end
	callq	__ZN4core3ptr46drop_in_place$LT$alloc..vec..Vec$LT$u8$GT$$GT$17haee374ffaf8016afE
Ltmp411:
	jmp	LBB57_3
LBB57_1:
	.loc	4 0 1 is_stmt 0
	movq	-32(%rbp), %rdi
	.loc	4 490 1
	addq	$24, %rdi
Ltmp413:
	callq	__ZN4core3ptr46drop_in_place$LT$alloc..vec..Vec$LT$u8$GT$$GT$17haee374ffaf8016afE
Ltmp414:
	jmp	LBB57_5
LBB57_2:
Ltmp412:
	.loc	4 0 1
	movq	%rax, %rcx
	movl	%edx, %eax
	movq	%rcx, -16(%rbp)
	movl	%eax, -8(%rbp)
	jmp	LBB57_1
LBB57_3:
	movq	-32(%rbp), %rdi
	.loc	4 490 1
	addq	$24, %rdi
	callq	__ZN4core3ptr46drop_in_place$LT$alloc..vec..Vec$LT$u8$GT$$GT$17haee374ffaf8016afE
	addq	$32, %rsp
	popq	%rbp
	retq
LBB57_4:
Ltmp415:
	callq	__ZN4core9panicking19panic_cannot_unwind17h1fbca7e1d7f56ae1E
LBB57_5:
	movq	-16(%rbp), %rdi
	callq	__Unwind_Resume
Ltmp417:
Lfunc_end57:
	.cfi_endproc
	.section	__TEXT,__gcc_except_tab
	.p2align	2
GCC_except_table57:
Lexception14:
	.byte	255
	.byte	255
	.byte	1
	.uleb128 Lcst_end14-Lcst_begin14
Lcst_begin14:
	.uleb128 Ltmp410-Lfunc_begin57
	.uleb128 Ltmp411-Ltmp410
	.uleb128 Ltmp412-Lfunc_begin57
	.byte	0
	.uleb128 Ltmp413-Lfunc_begin57
	.uleb128 Ltmp414-Ltmp413
	.uleb128 Ltmp415-Lfunc_begin57
	.byte	0
	.uleb128 Ltmp414-Lfunc_begin57
	.uleb128 Lfunc_end57-Ltmp414
	.byte	0
	.byte	0
Lcst_end14:
	.p2align	2

	.section	__TEXT,__text,regular,pure_instructions
	.p2align	4, 0x90
__ZN4core3ptr42drop_in_place$LT$alloc..string..String$GT$17hf415591da94c04eeE:
Lfunc_begin58:
	.loc	4 490 0 is_stmt 1
	.cfi_startproc
	pushq	%rbp
	.cfi_def_cfa_offset 16
	.cfi_offset %rbp, -16
	movq	%rsp, %rbp
	.cfi_def_cfa_register %rbp
	subq	$16, %rsp
	movq	%rdi, -8(%rbp)
Ltmp418:
	.loc	4 490 1 prologue_end
	callq	__ZN4core3ptr46drop_in_place$LT$alloc..vec..Vec$LT$u8$GT$$GT$17haee374ffaf8016afE
	addq	$16, %rsp
	popq	%rbp
	retq
Ltmp419:
Lfunc_end58:
	.cfi_endproc

	.p2align	4, 0x90
__ZN4core3ptr42drop_in_place$LT$std..io..error..Error$GT$17h98b2539fe822696eE:
Lfunc_begin59:
	.loc	4 490 0
	.cfi_startproc
	pushq	%rbp
	.cfi_def_cfa_offset 16
	.cfi_offset %rbp, -16
	movq	%rsp, %rbp
	.cfi_def_cfa_register %rbp
	subq	$16, %rsp
	movq	%rdi, -8(%rbp)
Ltmp420:
	.loc	4 490 1 prologue_end
	callq	__ZN4core3ptr57drop_in_place$LT$std..io..error..repr_bitpacked..Repr$GT$17h9ab8a41e9946deb7E
	addq	$16, %rsp
	popq	%rbp
	retq
Ltmp421:
Lfunc_end59:
	.cfi_endproc

	.p2align	4, 0x90
__ZN4core3ptr42drop_in_place$LT$std..process..Command$GT$17h943e5a886980ffacE:
Lfunc_begin60:
	.loc	4 490 0
	.cfi_startproc
	pushq	%rbp
	.cfi_def_cfa_offset 16
	.cfi_offset %rbp, -16
	movq	%rsp, %rbp
	.cfi_def_cfa_register %rbp
	subq	$16, %rsp
	movq	%rdi, -8(%rbp)
Ltmp422:
	.loc	4 490 1 prologue_end
	callq	__ZN4core3ptr69drop_in_place$LT$std..sys..unix..process..process_common..Command$GT$17h2d058f228c160644E
	addq	$16, %rsp
	popq	%rbp
	retq
Ltmp423:
Lfunc_end60:
	.cfi_endproc

	.p2align	4, 0x90
__ZN4core3ptr43drop_in_place$LT$std..io..error..Custom$GT$17h033aa67ff1898968E:
Lfunc_begin61:
	.loc	4 490 0
	.cfi_startproc
	pushq	%rbp
	.cfi_def_cfa_offset 16
	.cfi_offset %rbp, -16
	movq	%rsp, %rbp
	.cfi_def_cfa_register %rbp
	subq	$16, %rsp
	movq	%rdi, -8(%rbp)
Ltmp424:
	.loc	4 490 1 prologue_end
	callq	__ZN4core3ptr118drop_in_place$LT$alloc..boxed..Box$LT$dyn$u20$core..error..Error$u2b$core..marker..Send$u2b$core..marker..Sync$GT$$GT$17hceffeebc00c83f56E
	addq	$16, %rsp
	popq	%rbp
	retq
Ltmp425:
Lfunc_end61:
	.cfi_endproc

	.p2align	4, 0x90
__ZN4core3ptr46drop_in_place$LT$alloc..vec..Vec$LT$u8$GT$$GT$17haee374ffaf8016afE:
Lfunc_begin62:
	.loc	4 490 0
	.cfi_startproc
	.cfi_personality 155, _rust_eh_personality
	.cfi_lsda 16, Lexception15
	pushq	%rbp
	.cfi_def_cfa_offset 16
	.cfi_offset %rbp, -16
	movq	%rsp, %rbp
	.cfi_def_cfa_register %rbp
	subq	$32, %rsp
	movq	%rdi, -32(%rbp)
	movq	%rdi, -24(%rbp)
Ltmp426:
Ltmp432:
	.loc	4 490 1 prologue_end
	callq	__ZN70_$LT$alloc..vec..Vec$LT$T$C$A$GT$$u20$as$u20$core..ops..drop..Drop$GT$4drop17h92333d7eb8ea6c98E
Ltmp427:
	jmp	LBB62_3
LBB62_1:
Ltmp429:
	.loc	4 0 1 is_stmt 0
	movq	-32(%rbp), %rdi
	.loc	4 490 1
	callq	__ZN4core3ptr53drop_in_place$LT$alloc..raw_vec..RawVec$LT$u8$GT$$GT$17h11a35cf87bb8e52fE
Ltmp430:
	jmp	LBB62_5
LBB62_2:
Ltmp428:
	.loc	4 0 1
	movq	%rax, %rcx
	movl	%edx, %eax
	movq	%rcx, -16(%rbp)
	movl	%eax, -8(%rbp)
	jmp	LBB62_1
LBB62_3:
	movq	-32(%rbp), %rdi
	.loc	4 490 1
	callq	__ZN4core3ptr53drop_in_place$LT$alloc..raw_vec..RawVec$LT$u8$GT$$GT$17h11a35cf87bb8e52fE
	addq	$32, %rsp
	popq	%rbp
	retq
LBB62_4:
Ltmp431:
	callq	__ZN4core9panicking19panic_cannot_unwind17h1fbca7e1d7f56ae1E
LBB62_5:
	movq	-16(%rbp), %rdi
	callq	__Unwind_Resume
Ltmp433:
Lfunc_end62:
	.cfi_endproc
	.section	__TEXT,__gcc_except_tab
	.p2align	2
GCC_except_table62:
Lexception15:
	.byte	255
	.byte	255
	.byte	1
	.uleb128 Lcst_end15-Lcst_begin15
Lcst_begin15:
	.uleb128 Ltmp426-Lfunc_begin62
	.uleb128 Ltmp427-Ltmp426
	.uleb128 Ltmp428-Lfunc_begin62
	.byte	0
	.uleb128 Ltmp429-Lfunc_begin62
	.uleb128 Ltmp430-Ltmp429
	.uleb128 Ltmp431-Lfunc_begin62
	.byte	0
	.uleb128 Ltmp430-Lfunc_begin62
	.uleb128 Lfunc_end62-Ltmp430
	.byte	0
	.byte	0
Lcst_end15:
	.p2align	2

	.section	__TEXT,__text,regular,pure_instructions
	.p2align	4, 0x90
__ZN4core3ptr47drop_in_place$LT$alloc..ffi..c_str..CString$GT$17h8fd6b688fd03e6cbE:
Lfunc_begin63:
	.loc	4 490 0 is_stmt 1
	.cfi_startproc
	.cfi_personality 155, _rust_eh_personality
	.cfi_lsda 16, Lexception16
	pushq	%rbp
	.cfi_def_cfa_offset 16
	.cfi_offset %rbp, -16
	movq	%rsp, %rbp
	.cfi_def_cfa_register %rbp
	subq	$32, %rsp
	movq	%rdi, -32(%rbp)
	movq	%rdi, -24(%rbp)
Ltmp434:
Ltmp440:
	.loc	4 490 1 prologue_end
	callq	__ZN68_$LT$alloc..ffi..c_str..CString$u20$as$u20$core..ops..drop..Drop$GT$4drop17hd2b36f7b889ef52eE
Ltmp435:
	jmp	LBB63_3
LBB63_1:
Ltmp437:
	.loc	4 0 1 is_stmt 0
	movq	-32(%rbp), %rdi
	.loc	4 490 1
	callq	__ZN4core3ptr58drop_in_place$LT$alloc..boxed..Box$LT$$u5b$u8$u5d$$GT$$GT$17hb4ebdb316d0cdf50E
Ltmp438:
	jmp	LBB63_5
LBB63_2:
Ltmp436:
	.loc	4 0 1
	movq	%rax, %rcx
	movl	%edx, %eax
	movq	%rcx, -16(%rbp)
	movl	%eax, -8(%rbp)
	jmp	LBB63_1
LBB63_3:
	movq	-32(%rbp), %rdi
	.loc	4 490 1
	callq	__ZN4core3ptr58drop_in_place$LT$alloc..boxed..Box$LT$$u5b$u8$u5d$$GT$$GT$17hb4ebdb316d0cdf50E
	addq	$32, %rsp
	popq	%rbp
	retq
LBB63_4:
Ltmp439:
	callq	__ZN4core9panicking19panic_cannot_unwind17h1fbca7e1d7f56ae1E
LBB63_5:
	movq	-16(%rbp), %rdi
	callq	__Unwind_Resume
Ltmp441:
Lfunc_end63:
	.cfi_endproc
	.section	__TEXT,__gcc_except_tab
	.p2align	2
GCC_except_table63:
Lexception16:
	.byte	255
	.byte	255
	.byte	1
	.uleb128 Lcst_end16-Lcst_begin16
Lcst_begin16:
	.uleb128 Ltmp434-Lfunc_begin63
	.uleb128 Ltmp435-Ltmp434
	.uleb128 Ltmp436-Lfunc_begin63
	.byte	0
	.uleb128 Ltmp437-Lfunc_begin63
	.uleb128 Ltmp438-Ltmp437
	.uleb128 Ltmp439-Lfunc_begin63
	.byte	0
	.uleb128 Ltmp438-Lfunc_begin63
	.uleb128 Lfunc_end63-Ltmp438
	.byte	0
	.byte	0
Lcst_end16:
	.p2align	2

	.section	__TEXT,__text,regular,pure_instructions
	.p2align	4, 0x90
__ZN4core3ptr47drop_in_place$LT$std..ffi..os_str..OsString$GT$17h1785b1b2a43e54a6E:
Lfunc_begin64:
	.loc	4 490 0 is_stmt 1
	.cfi_startproc
	pushq	%rbp
	.cfi_def_cfa_offset 16
	.cfi_offset %rbp, -16
	movq	%rsp, %rbp
	.cfi_def_cfa_register %rbp
	subq	$16, %rsp
	movq	%rdi, -8(%rbp)
Ltmp442:
	.loc	4 490 1 prologue_end
	callq	__ZN4core3ptr48drop_in_place$LT$std..sys..unix..os_str..Buf$GT$17hb3cfc9c08e53d4edE
	addq	$16, %rsp
	popq	%rbp
	retq
Ltmp443:
Lfunc_end64:
	.cfi_endproc

	.p2align	4, 0x90
__ZN4core3ptr48drop_in_place$LT$std..os..fd..owned..OwnedFd$GT$17h5db942a7f89ea29eE:
Lfunc_begin65:
	.loc	4 490 0
	.cfi_startproc
	pushq	%rbp
	.cfi_def_cfa_offset 16
	.cfi_offset %rbp, -16
	movq	%rsp, %rbp
	.cfi_def_cfa_register %rbp
	subq	$16, %rsp
	movq	%rdi, -8(%rbp)
Ltmp444:
	.loc	4 490 1 prologue_end
	callq	__ZN69_$LT$std..os..fd..owned..OwnedFd$u20$as$u20$core..ops..drop..Drop$GT$4drop17h20d857fba57913bcE
	addq	$16, %rsp
	popq	%rbp
	retq
Ltmp445:
Lfunc_end65:
	.cfi_endproc

	.p2align	4, 0x90
__ZN4core3ptr48drop_in_place$LT$std..sys..unix..os_str..Buf$GT$17hb3cfc9c08e53d4edE:
Lfunc_begin66:
	.loc	4 490 0
	.cfi_startproc
	pushq	%rbp
	.cfi_def_cfa_offset 16
	.cfi_offset %rbp, -16
	movq	%rsp, %rbp
	.cfi_def_cfa_register %rbp
	subq	$16, %rsp
	movq	%rdi, -8(%rbp)
Ltmp446:
	.loc	4 490 1 prologue_end
	callq	__ZN4core3ptr46drop_in_place$LT$alloc..vec..Vec$LT$u8$GT$$GT$17haee374ffaf8016afE
	addq	$16, %rsp
	popq	%rbp
	retq
Ltmp447:
Lfunc_end66:
	.cfi_endproc

	.p2align	4, 0x90
__ZN4core3ptr49drop_in_place$LT$std..sys..unix..fd..FileDesc$GT$17h9acbc88356596a26E:
Lfunc_begin67:
	.loc	4 490 0
	.cfi_startproc
	pushq	%rbp
	.cfi_def_cfa_offset 16
	.cfi_offset %rbp, -16
	movq	%rsp, %rbp
	.cfi_def_cfa_register %rbp
	subq	$16, %rsp
	movq	%rdi, -8(%rbp)
Ltmp448:
	.loc	4 490 1 prologue_end
	callq	__ZN4core3ptr48drop_in_place$LT$std..os..fd..owned..OwnedFd$GT$17h5db942a7f89ea29eE
	addq	$16, %rsp
	popq	%rbp
	retq
Ltmp449:
Lfunc_end67:
	.cfi_endproc

	.p2align	4, 0x90
__ZN4core3ptr50drop_in_place$LT$alloc..borrow..Cow$LT$str$GT$$GT$17h8471ab8286b3403bE:
Lfunc_begin68:
	.loc	4 490 0
	.cfi_startproc
	pushq	%rbp
	.cfi_def_cfa_offset 16
	.cfi_offset %rbp, -16
	movq	%rsp, %rbp
	.cfi_def_cfa_register %rbp
	subq	$16, %rsp
	movq	%rdi, -16(%rbp)
	movq	%rdi, -8(%rbp)
Ltmp450:
	.loc	4 490 1 prologue_end
	cmpq	$0, (%rdi)
	jne	LBB68_2
LBB68_1:
	addq	$16, %rsp
	popq	%rbp
	retq
LBB68_2:
	.loc	4 0 1 is_stmt 0
	movq	-16(%rbp), %rdi
	.loc	4 490 1
	addq	$8, %rdi
	callq	__ZN4core3ptr42drop_in_place$LT$alloc..string..String$GT$17hf415591da94c04eeE
	jmp	LBB68_1
Ltmp451:
Lfunc_end68:
	.cfi_endproc

	.p2align	4, 0x90
__ZN4core3ptr53drop_in_place$LT$alloc..raw_vec..RawVec$LT$u8$GT$$GT$17h11a35cf87bb8e52fE:
Lfunc_begin69:
	.loc	4 490 0 is_stmt 1
	.cfi_startproc
	pushq	%rbp
	.cfi_def_cfa_offset 16
	.cfi_offset %rbp, -16
	movq	%rsp, %rbp
	.cfi_def_cfa_register %rbp
	subq	$16, %rsp
	movq	%rdi, -8(%rbp)
Ltmp452:
	.loc	4 490 1 prologue_end
	callq	__ZN77_$LT$alloc..raw_vec..RawVec$LT$T$C$A$GT$$u20$as$u20$core..ops..drop..Drop$GT$4drop17h247bcff125f5d2dfE
	addq	$16, %rsp
	popq	%rbp
	retq
Ltmp453:
Lfunc_end69:
	.cfi_endproc

	.p2align	4, 0x90
__ZN4core3ptr57drop_in_place$LT$$u5b$alloc..ffi..c_str..CString$u5d$$GT$17h62202c273b7919a8E:
Lfunc_begin70:
	.loc	4 490 0
	.cfi_startproc
	.cfi_personality 155, _rust_eh_personality
	.cfi_lsda 16, Lexception17
	pushq	%rbp
	.cfi_def_cfa_offset 16
	.cfi_offset %rbp, -16
	movq	%rsp, %rbp
	.cfi_def_cfa_register %rbp
	subq	$80, %rsp
	movq	%rdi, -64(%rbp)
	movq	%rsi, -56(%rbp)
	movq	%rdi, -32(%rbp)
	movq	%rsi, -24(%rbp)
Ltmp465:
	.loc	4 490 1 prologue_end
	xorl	%eax, %eax
	testb	$1, %al
	jne	LBB70_1
	jmp	LBB70_2
LBB70_1:
	movq	$0, -48(%rbp)
	jmp	LBB70_11
LBB70_2:
	.loc	4 0 1 is_stmt 0
	movq	-56(%rbp), %rax
	movq	-64(%rbp), %rcx
	.loc	4 490 1
	movq	%rcx, -40(%rbp)
	shlq	$4, %rax
	addq	-40(%rbp), %rax
	movq	%rax, -72(%rbp)
LBB70_3:
	.loc	4 0 1
	movq	-72(%rbp), %rax
	.loc	4 490 1
	cmpq	%rax, -40(%rbp)
	je	LBB70_5
	movq	-40(%rbp), %rdi
	movq	%rdi, %rax
	addq	$16, %rax
	movq	%rax, -40(%rbp)
Ltmp454:
	callq	__ZN4core3ptr47drop_in_place$LT$alloc..ffi..c_str..CString$GT$17h8fd6b688fd03e6cbE
Ltmp455:
	jmp	LBB70_3
LBB70_5:
	addq	$80, %rsp
	popq	%rbp
	retq
LBB70_6:
	.loc	4 0 1
	movq	-72(%rbp), %rax
	.loc	4 490 1
	cmpq	%rax, -40(%rbp)
	je	LBB70_9
	jmp	LBB70_8
LBB70_7:
Ltmp456:
	.loc	4 0 1
	movq	%rax, %rcx
	movl	%edx, %eax
	movq	%rcx, -16(%rbp)
	movl	%eax, -8(%rbp)
	jmp	LBB70_6
LBB70_8:
	.loc	4 490 1
	movq	-40(%rbp), %rdi
	movq	%rdi, %rax
	addq	$16, %rax
	movq	%rax, -40(%rbp)
Ltmp457:
	callq	__ZN4core3ptr47drop_in_place$LT$alloc..ffi..c_str..CString$GT$17h8fd6b688fd03e6cbE
Ltmp458:
	jmp	LBB70_6
LBB70_9:
	movq	-16(%rbp), %rdi
	callq	__Unwind_Resume
LBB70_10:
Ltmp464:
	callq	__ZN4core9panicking19panic_cannot_unwind17h1fbca7e1d7f56ae1E
LBB70_11:
	.loc	4 0 1
	movq	-56(%rbp), %rax
	.loc	4 490 1
	cmpq	%rax, -48(%rbp)
	je	LBB70_5
	.loc	4 0 1
	movq	-64(%rbp), %rdi
	.loc	4 490 1
	movq	-48(%rbp), %rax
	movq	%rax, %rcx
	shlq	$4, %rcx
	addq	%rcx, %rdi
	incq	%rax
	movq	%rax, -48(%rbp)
Ltmp459:
	callq	__ZN4core3ptr47drop_in_place$LT$alloc..ffi..c_str..CString$GT$17h8fd6b688fd03e6cbE
Ltmp460:
	jmp	LBB70_11
LBB70_13:
	.loc	4 0 1
	movq	-56(%rbp), %rax
	.loc	4 490 1
	cmpq	%rax, -48(%rbp)
	je	LBB70_9
	jmp	LBB70_15
LBB70_14:
Ltmp461:
	.loc	4 0 1
	movq	%rax, %rcx
	movl	%edx, %eax
	movq	%rcx, -16(%rbp)
	movl	%eax, -8(%rbp)
	jmp	LBB70_13
LBB70_15:
	movq	-64(%rbp), %rdi
	.loc	4 490 1
	movq	-48(%rbp), %rax
	movq	%rax, %rcx
	shlq	$4, %rcx
	addq	%rcx, %rdi
	incq	%rax
	movq	%rax, -48(%rbp)
Ltmp462:
	callq	__ZN4core3ptr47drop_in_place$LT$alloc..ffi..c_str..CString$GT$17h8fd6b688fd03e6cbE
Ltmp463:
	jmp	LBB70_13
Ltmp466:
Lfunc_end70:
	.cfi_endproc
	.section	__TEXT,__gcc_except_tab
	.p2align	2
GCC_except_table70:
Lexception17:
	.byte	255
	.byte	255
	.byte	1
	.uleb128 Lcst_end17-Lcst_begin17
Lcst_begin17:
	.uleb128 Ltmp454-Lfunc_begin70
	.uleb128 Ltmp455-Ltmp454
	.uleb128 Ltmp456-Lfunc_begin70
	.byte	0
	.uleb128 Ltmp457-Lfunc_begin70
	.uleb128 Ltmp458-Ltmp457
	.uleb128 Ltmp464-Lfunc_begin70
	.byte	0
	.uleb128 Ltmp458-Lfunc_begin70
	.uleb128 Ltmp459-Ltmp458
	.byte	0
	.byte	0
	.uleb128 Ltmp459-Lfunc_begin70
	.uleb128 Ltmp460-Ltmp459
	.uleb128 Ltmp461-Lfunc_begin70
	.byte	0
	.uleb128 Ltmp462-Lfunc_begin70
	.uleb128 Ltmp463-Ltmp462
	.uleb128 Ltmp464-Lfunc_begin70
	.byte	0
Lcst_end17:
	.p2align	2

	.section	__TEXT,__text,regular,pure_instructions
	.p2align	4, 0x90
__ZN4core3ptr57drop_in_place$LT$std..io..error..repr_bitpacked..Repr$GT$17h9ab8a41e9946deb7E:
Lfunc_begin71:
	.loc	4 490 0 is_stmt 1
	.cfi_startproc
	pushq	%rbp
	.cfi_def_cfa_offset 16
	.cfi_offset %rbp, -16
	movq	%rsp, %rbp
	.cfi_def_cfa_register %rbp
	subq	$16, %rsp
	movq	%rdi, -8(%rbp)
Ltmp467:
	.loc	4 490 1 prologue_end
	callq	__ZN78_$LT$std..io..error..repr_bitpacked..Repr$u20$as$u20$core..ops..drop..Drop$GT$4drop17h758c9f4471d7739cE
	addq	$16, %rsp
	popq	%rbp
	retq
Ltmp468:
Lfunc_end71:
	.cfi_endproc

	.p2align	4, 0x90
__ZN4core3ptr57drop_in_place$LT$std..sys_common..process..CommandEnv$GT$17h60581418751b3ad9E:
Lfunc_begin72:
	.loc	4 490 0
	.cfi_startproc
	pushq	%rbp
	.cfi_def_cfa_offset 16
	.cfi_offset %rbp, -16
	movq	%rsp, %rbp
	.cfi_def_cfa_register %rbp
	subq	$16, %rsp
	movq	%rdi, -8(%rbp)
Ltmp469:
	.loc	4 490 1 prologue_end
	callq	__ZN4core3ptr152drop_in_place$LT$alloc..collections..btree..map..BTreeMap$LT$std..ffi..os_str..OsString$C$core..option..Option$LT$std..ffi..os_str..OsString$GT$$GT$$GT$17h10671d3c716de59dE
	addq	$16, %rsp
	popq	%rbp
	retq
Ltmp470:
Lfunc_end72:
	.cfi_endproc

	.p2align	4, 0x90
__ZN4core3ptr58drop_in_place$LT$alloc..boxed..Box$LT$$u5b$u8$u5d$$GT$$GT$17hb4ebdb316d0cdf50E:
Lfunc_begin73:
	.loc	4 490 0
	.cfi_startproc
	pushq	%rbp
	.cfi_def_cfa_offset 16
	.cfi_offset %rbp, -16
	movq	%rsp, %rbp
	.cfi_def_cfa_register %rbp
	subq	$32, %rsp
	movq	%rdi, -32(%rbp)
	movq	%rdi, -24(%rbp)
	movq	-32(%rbp), %rax
Ltmp471:
	.loc	4 490 1 prologue_end
	movq	(%rax), %rdi
	movq	8(%rax), %rsi
	callq	__ZN5alloc5alloc8box_free17h172dc51bc8dca815E
	addq	$32, %rsp
	popq	%rbp
	retq
Ltmp472:
Lfunc_end73:
	.cfi_endproc

	.p2align	4, 0x90
__ZN4core3ptr59drop_in_place$LT$alloc..boxed..Box$LT$$u5b$u32$u5d$$GT$$GT$17h690c74b72661b72bE:
Lfunc_begin74:
	.loc	4 490 0
	.cfi_startproc
	pushq	%rbp
	.cfi_def_cfa_offset 16
	.cfi_offset %rbp, -16
	movq	%rsp, %rbp
	.cfi_def_cfa_register %rbp
	subq	$32, %rsp
	movq	%rdi, -32(%rbp)
	movq	%rdi, -24(%rbp)
	movq	-32(%rbp), %rax
Ltmp473:
	.loc	4 490 1 prologue_end
	movq	(%rax), %rdi
	movq	8(%rax), %rsi
	callq	__ZN5alloc5alloc8box_free17h0b0285896a74f92aE
	addq	$32, %rsp
	popq	%rbp
	retq
Ltmp474:
Lfunc_end74:
	.cfi_endproc

	.p2align	4, 0x90
__ZN4core3ptr60drop_in_place$LT$alloc..vec..Vec$LT$$BP$const$u20$i8$GT$$GT$17hdb50cdb8d7116756E:
Lfunc_begin75:
	.loc	4 490 0
	.cfi_startproc
	.cfi_personality 155, _rust_eh_personality
	.cfi_lsda 16, Lexception18
	pushq	%rbp
	.cfi_def_cfa_offset 16
	.cfi_offset %rbp, -16
	movq	%rsp, %rbp
	.cfi_def_cfa_register %rbp
	subq	$32, %rsp
	movq	%rdi, -32(%rbp)
	movq	%rdi, -24(%rbp)
Ltmp475:
Ltmp481:
	.loc	4 490 1 prologue_end
	callq	__ZN70_$LT$alloc..vec..Vec$LT$T$C$A$GT$$u20$as$u20$core..ops..drop..Drop$GT$4drop17h19de377bd2bb859eE
Ltmp476:
	jmp	LBB75_3
LBB75_1:
Ltmp478:
	.loc	4 0 1 is_stmt 0
	movq	-32(%rbp), %rdi
	.loc	4 490 1
	callq	__ZN4core3ptr67drop_in_place$LT$alloc..raw_vec..RawVec$LT$$BP$const$u20$i8$GT$$GT$17hc882502ffcbaf6daE
Ltmp479:
	jmp	LBB75_5
LBB75_2:
Ltmp477:
	.loc	4 0 1
	movq	%rax, %rcx
	movl	%edx, %eax
	movq	%rcx, -16(%rbp)
	movl	%eax, -8(%rbp)
	jmp	LBB75_1
LBB75_3:
	movq	-32(%rbp), %rdi
	.loc	4 490 1
	callq	__ZN4core3ptr67drop_in_place$LT$alloc..raw_vec..RawVec$LT$$BP$const$u20$i8$GT$$GT$17hc882502ffcbaf6daE
	addq	$32, %rsp
	popq	%rbp
	retq
LBB75_4:
Ltmp480:
	callq	__ZN4core9panicking19panic_cannot_unwind17h1fbca7e1d7f56ae1E
LBB75_5:
	movq	-16(%rbp), %rdi
	callq	__Unwind_Resume
Ltmp482:
Lfunc_end75:
	.cfi_endproc
	.section	__TEXT,__gcc_except_tab
	.p2align	2
GCC_except_table75:
Lexception18:
	.byte	255
	.byte	255
	.byte	1
	.uleb128 Lcst_end18-Lcst_begin18
Lcst_begin18:
	.uleb128 Ltmp475-Lfunc_begin75
	.uleb128 Ltmp476-Ltmp475
	.uleb128 Ltmp477-Lfunc_begin75
	.byte	0
	.uleb128 Ltmp478-Lfunc_begin75
	.uleb128 Ltmp479-Ltmp478
	.uleb128 Ltmp480-Lfunc_begin75
	.byte	0
	.uleb128 Ltmp479-Lfunc_begin75
	.uleb128 Lfunc_end75-Ltmp479
	.byte	0
	.byte	0
Lcst_end18:
	.p2align	2

	.section	__TEXT,__text,regular,pure_instructions
	.p2align	4, 0x90
__ZN4core3ptr66drop_in_place$LT$std..sys..unix..process..process_common..Argv$GT$17h7fbba3a93282242cE:
Lfunc_begin76:
	.loc	4 490 0 is_stmt 1
	.cfi_startproc
	pushq	%rbp
	.cfi_def_cfa_offset 16
	.cfi_offset %rbp, -16
	movq	%rsp, %rbp
	.cfi_def_cfa_register %rbp
	subq	$16, %rsp
	movq	%rdi, -8(%rbp)
Ltmp483:
	.loc	4 490 1 prologue_end
	callq	__ZN4core3ptr60drop_in_place$LT$alloc..vec..Vec$LT$$BP$const$u20$i8$GT$$GT$17hdb50cdb8d7116756E
	addq	$16, %rsp
	popq	%rbp
	retq
Ltmp484:
Lfunc_end76:
	.cfi_endproc

	.p2align	4, 0x90
__ZN4core3ptr67drop_in_place$LT$alloc..raw_vec..RawVec$LT$$BP$const$u20$i8$GT$$GT$17hc882502ffcbaf6daE:
Lfunc_begin77:
	.loc	4 490 0
	.cfi_startproc
	pushq	%rbp
	.cfi_def_cfa_offset 16
	.cfi_offset %rbp, -16
	movq	%rsp, %rbp
	.cfi_def_cfa_register %rbp
	subq	$16, %rsp
	movq	%rdi, -8(%rbp)
Ltmp485:
	.loc	4 490 1 prologue_end
	callq	__ZN77_$LT$alloc..raw_vec..RawVec$LT$T$C$A$GT$$u20$as$u20$core..ops..drop..Drop$GT$4drop17h4aa0b7a54acfa102E
	addq	$16, %rsp
	popq	%rbp
	retq
Ltmp486:
Lfunc_end77:
	.cfi_endproc

	.p2align	4, 0x90
__ZN4core3ptr67drop_in_place$LT$std..sys..unix..process..process_common..Stdio$GT$17h2bb1ad9cbc4bd285E:
Lfunc_begin78:
	.loc	4 490 0
	.cfi_startproc
	pushq	%rbp
	.cfi_def_cfa_offset 16
	.cfi_offset %rbp, -16
	movq	%rsp, %rbp
	.cfi_def_cfa_register %rbp
	subq	$16, %rsp
	movq	%rdi, -16(%rbp)
	movq	%rdi, -8(%rbp)
Ltmp487:
	.loc	4 490 1 prologue_end
	movl	(%rdi), %eax
	subl	$3, %eax
	jb	LBB78_2
	jmp	LBB78_1
LBB78_1:
	.loc	4 0 1 is_stmt 0
	movq	-16(%rbp), %rdi
	.loc	4 490 1
	addq	$4, %rdi
	callq	__ZN4core3ptr49drop_in_place$LT$std..sys..unix..fd..FileDesc$GT$17h9acbc88356596a26E
LBB78_2:
	addq	$16, %rsp
	popq	%rbp
	retq
Ltmp488:
Lfunc_end78:
	.cfi_endproc

	.p2align	4, 0x90
__ZN4core3ptr68drop_in_place$LT$alloc..boxed..Box$LT$std..io..error..Custom$GT$$GT$17h951fd02d3e27f557E:
Lfunc_begin79:
	.loc	4 490 0 is_stmt 1
	.cfi_startproc
	.cfi_personality 155, _rust_eh_personality
	.cfi_lsda 16, Lexception19
	pushq	%rbp
	.cfi_def_cfa_offset 16
	.cfi_offset %rbp, -16
	movq	%rsp, %rbp
	.cfi_def_cfa_register %rbp
	subq	$32, %rsp
	movq	%rdi, -32(%rbp)
	movq	%rdi, -24(%rbp)
Ltmp495:
	.loc	4 490 1 prologue_end
	movq	(%rdi), %rdi
Ltmp489:
	callq	__ZN4core3ptr43drop_in_place$LT$std..io..error..Custom$GT$17h033aa67ff1898968E
Ltmp490:
	jmp	LBB79_3
LBB79_1:
	.loc	4 0 1 is_stmt 0
	movq	-32(%rbp), %rax
	.loc	4 490 1
	movq	(%rax), %rdi
Ltmp492:
	callq	__ZN5alloc5alloc8box_free17h18a7e7be8796683eE
Ltmp493:
	jmp	LBB79_5
LBB79_2:
Ltmp491:
	.loc	4 0 1
	movq	%rax, %rcx
	movl	%edx, %eax
	movq	%rcx, -16(%rbp)
	movl	%eax, -8(%rbp)
	jmp	LBB79_1
LBB79_3:
	movq	-32(%rbp), %rax
	.loc	4 490 1
	movq	(%rax), %rdi
	callq	__ZN5alloc5alloc8box_free17h18a7e7be8796683eE
	addq	$32, %rsp
	popq	%rbp
	retq
LBB79_4:
Ltmp494:
	callq	__ZN4core9panicking19panic_cannot_unwind17h1fbca7e1d7f56ae1E
LBB79_5:
	movq	-16(%rbp), %rdi
	callq	__Unwind_Resume
Ltmp496:
Lfunc_end79:
	.cfi_endproc
	.section	__TEXT,__gcc_except_tab
	.p2align	2
GCC_except_table79:
Lexception19:
	.byte	255
	.byte	255
	.byte	1
	.uleb128 Lcst_end19-Lcst_begin19
Lcst_begin19:
	.uleb128 Ltmp489-Lfunc_begin79
	.uleb128 Ltmp490-Ltmp489
	.uleb128 Ltmp491-Lfunc_begin79
	.byte	0
	.uleb128 Ltmp492-Lfunc_begin79
	.uleb128 Ltmp493-Ltmp492
	.uleb128 Ltmp494-Lfunc_begin79
	.byte	0
	.uleb128 Ltmp493-Lfunc_begin79
	.uleb128 Lfunc_end79-Ltmp493
	.byte	0
	.byte	0
Lcst_end19:
	.p2align	2

	.section	__TEXT,__text,regular,pure_instructions
	.p2align	4, 0x90
__ZN4core3ptr69drop_in_place$LT$std..sys..unix..process..process_common..Command$GT$17h2d058f228c160644E:
Lfunc_begin80:
	.loc	4 490 0 is_stmt 1
	.cfi_startproc
	.cfi_personality 155, _rust_eh_personality
	.cfi_lsda 16, Lexception20
	pushq	%rbp
	.cfi_def_cfa_offset 16
	.cfi_offset %rbp, -16
	movq	%rsp, %rbp
	.cfi_def_cfa_register %rbp
	subq	$32, %rsp
	movq	%rdi, -32(%rbp)
	movq	%rdi, -24(%rbp)
Ltmp543:
	.loc	4 490 1 prologue_end
	addq	$64, %rdi
Ltmp497:
	callq	__ZN4core3ptr47drop_in_place$LT$alloc..ffi..c_str..CString$GT$17h8fd6b688fd03e6cbE
Ltmp498:
	jmp	LBB80_3
LBB80_1:
	.loc	4 0 1 is_stmt 0
	movq	-32(%rbp), %rdi
	.loc	4 490 1
	addq	$80, %rdi
Ltmp500:
	callq	__ZN4core3ptr70drop_in_place$LT$alloc..vec..Vec$LT$alloc..ffi..c_str..CString$GT$$GT$17hdfd84f9e23cb1490E
Ltmp501:
	jmp	LBB80_5
LBB80_2:
Ltmp499:
	.loc	4 0 1
	movq	%rax, %rcx
	movl	%edx, %eax
	movq	%rcx, -16(%rbp)
	movl	%eax, -8(%rbp)
	jmp	LBB80_1
LBB80_3:
	movq	-32(%rbp), %rdi
	.loc	4 490 1
	addq	$80, %rdi
Ltmp502:
	callq	__ZN4core3ptr70drop_in_place$LT$alloc..vec..Vec$LT$alloc..ffi..c_str..CString$GT$$GT$17hdfd84f9e23cb1490E
Ltmp503:
	jmp	LBB80_7
LBB80_4:
Ltmp542:
	callq	__ZN4core9panicking19panic_cannot_unwind17h1fbca7e1d7f56ae1E
LBB80_5:
	.loc	4 0 1
	movq	-32(%rbp), %rdi
	.loc	4 490 1
	addq	$104, %rdi
Ltmp505:
	callq	__ZN4core3ptr66drop_in_place$LT$std..sys..unix..process..process_common..Argv$GT$17h7fbba3a93282242cE
Ltmp506:
	jmp	LBB80_8
LBB80_6:
Ltmp504:
	.loc	4 0 1
	movq	%rax, %rcx
	movl	%edx, %eax
	movq	%rcx, -16(%rbp)
	movl	%eax, -8(%rbp)
	jmp	LBB80_5
LBB80_7:
	movq	-32(%rbp), %rdi
	.loc	4 490 1
	addq	$104, %rdi
Ltmp507:
	callq	__ZN4core3ptr66drop_in_place$LT$std..sys..unix..process..process_common..Argv$GT$17h7fbba3a93282242cE
Ltmp508:
	jmp	LBB80_10
LBB80_8:
Ltmp510:
	.loc	4 0 1
	movq	-32(%rbp), %rdi
	.loc	4 490 1
	callq	__ZN4core3ptr57drop_in_place$LT$std..sys_common..process..CommandEnv$GT$17h60581418751b3ad9E
Ltmp511:
	jmp	LBB80_11
LBB80_9:
Ltmp509:
	.loc	4 0 1
	movq	%rax, %rcx
	movl	%edx, %eax
	movq	%rcx, -16(%rbp)
	movl	%eax, -8(%rbp)
	jmp	LBB80_8
LBB80_10:
Ltmp512:
	movq	-32(%rbp), %rdi
	.loc	4 490 1
	callq	__ZN4core3ptr57drop_in_place$LT$std..sys_common..process..CommandEnv$GT$17h60581418751b3ad9E
Ltmp513:
	jmp	LBB80_13
LBB80_11:
	.loc	4 0 1
	movq	-32(%rbp), %rdi
	.loc	4 490 1
	addq	$32, %rdi
Ltmp515:
	callq	__ZN4core3ptr75drop_in_place$LT$core..option..Option$LT$alloc..ffi..c_str..CString$GT$$GT$17h211af6291f9c3610E
Ltmp516:
	jmp	LBB80_14
LBB80_12:
Ltmp514:
	.loc	4 0 1
	movq	%rax, %rcx
	movl	%edx, %eax
	movq	%rcx, -16(%rbp)
	movl	%eax, -8(%rbp)
	jmp	LBB80_11
LBB80_13:
	movq	-32(%rbp), %rdi
	.loc	4 490 1
	addq	$32, %rdi
Ltmp517:
	callq	__ZN4core3ptr75drop_in_place$LT$core..option..Option$LT$alloc..ffi..c_str..CString$GT$$GT$17h211af6291f9c3610E
Ltmp518:
	jmp	LBB80_16
LBB80_14:
	.loc	4 0 1
	movq	-32(%rbp), %rdi
	.loc	4 490 1
	subq	$-128, %rdi
Ltmp520:
	callq	__ZN4core3ptr251drop_in_place$LT$alloc..vec..Vec$LT$alloc..boxed..Box$LT$dyn$u20$core..ops..function..FnMut$LT$$LP$$RP$$GT$$u2b$Output$u20$$u3d$$u20$core..result..Result$LT$$LP$$RP$$C$std..io..error..Error$GT$$u2b$core..marker..Send$u2b$core..marker..Sync$GT$$GT$$GT$17h2a72843ade812a4fE
Ltmp521:
	jmp	LBB80_17
LBB80_15:
Ltmp519:
	.loc	4 0 1
	movq	%rax, %rcx
	movl	%edx, %eax
	movq	%rcx, -16(%rbp)
	movl	%eax, -8(%rbp)
	jmp	LBB80_14
LBB80_16:
	movq	-32(%rbp), %rdi
	.loc	4 490 1
	subq	$-128, %rdi
Ltmp522:
	callq	__ZN4core3ptr251drop_in_place$LT$alloc..vec..Vec$LT$alloc..boxed..Box$LT$dyn$u20$core..ops..function..FnMut$LT$$LP$$RP$$GT$$u2b$Output$u20$$u3d$$u20$core..result..Result$LT$$LP$$RP$$C$std..io..error..Error$GT$$u2b$core..marker..Send$u2b$core..marker..Sync$GT$$GT$$GT$17h2a72843ade812a4fE
Ltmp523:
	jmp	LBB80_19
LBB80_17:
	.loc	4 0 1
	movq	-32(%rbp), %rdi
	.loc	4 490 1
	addq	$48, %rdi
Ltmp525:
	callq	__ZN4core3ptr87drop_in_place$LT$core..option..Option$LT$alloc..boxed..Box$LT$$u5b$u32$u5d$$GT$$GT$$GT$17hf480e0a0087e0030E
Ltmp526:
	jmp	LBB80_20
LBB80_18:
Ltmp524:
	.loc	4 0 1
	movq	%rax, %rcx
	movl	%edx, %eax
	movq	%rcx, -16(%rbp)
	movl	%eax, -8(%rbp)
	jmp	LBB80_17
LBB80_19:
	movq	-32(%rbp), %rdi
	.loc	4 490 1
	addq	$48, %rdi
Ltmp527:
	callq	__ZN4core3ptr87drop_in_place$LT$core..option..Option$LT$alloc..boxed..Box$LT$$u5b$u32$u5d$$GT$$GT$$GT$17hf480e0a0087e0030E
Ltmp528:
	jmp	LBB80_22
LBB80_20:
	.loc	4 0 1
	movq	-32(%rbp), %rdi
	.loc	4 490 1
	addq	$152, %rdi
Ltmp530:
	callq	__ZN4core3ptr95drop_in_place$LT$core..option..Option$LT$std..sys..unix..process..process_common..Stdio$GT$$GT$17h9dd272a4bc22e365E
Ltmp531:
	jmp	LBB80_23
LBB80_21:
Ltmp529:
	.loc	4 0 1
	movq	%rax, %rcx
	movl	%edx, %eax
	movq	%rcx, -16(%rbp)
	movl	%eax, -8(%rbp)
	jmp	LBB80_20
LBB80_22:
	movq	-32(%rbp), %rdi
	.loc	4 490 1
	addq	$152, %rdi
Ltmp532:
	callq	__ZN4core3ptr95drop_in_place$LT$core..option..Option$LT$std..sys..unix..process..process_common..Stdio$GT$$GT$17h9dd272a4bc22e365E
Ltmp533:
	jmp	LBB80_25
LBB80_23:
	.loc	4 0 1
	movq	-32(%rbp), %rdi
	.loc	4 490 1
	addq	$160, %rdi
Ltmp535:
	callq	__ZN4core3ptr95drop_in_place$LT$core..option..Option$LT$std..sys..unix..process..process_common..Stdio$GT$$GT$17h9dd272a4bc22e365E
Ltmp536:
	jmp	LBB80_26
LBB80_24:
Ltmp534:
	.loc	4 0 1
	movq	%rax, %rcx
	movl	%edx, %eax
	movq	%rcx, -16(%rbp)
	movl	%eax, -8(%rbp)
	jmp	LBB80_23
LBB80_25:
	movq	-32(%rbp), %rdi
	.loc	4 490 1
	addq	$160, %rdi
Ltmp537:
	callq	__ZN4core3ptr95drop_in_place$LT$core..option..Option$LT$std..sys..unix..process..process_common..Stdio$GT$$GT$17h9dd272a4bc22e365E
Ltmp538:
	jmp	LBB80_28
LBB80_26:
	.loc	4 0 1
	movq	-32(%rbp), %rdi
	.loc	4 490 1
	addq	$168, %rdi
Ltmp540:
	callq	__ZN4core3ptr95drop_in_place$LT$core..option..Option$LT$std..sys..unix..process..process_common..Stdio$GT$$GT$17h9dd272a4bc22e365E
Ltmp541:
	jmp	LBB80_29
LBB80_27:
Ltmp539:
	.loc	4 0 1
	movq	%rax, %rcx
	movl	%edx, %eax
	movq	%rcx, -16(%rbp)
	movl	%eax, -8(%rbp)
	jmp	LBB80_26
LBB80_28:
	movq	-32(%rbp), %rdi
	.loc	4 490 1
	addq	$168, %rdi
	callq	__ZN4core3ptr95drop_in_place$LT$core..option..Option$LT$std..sys..unix..process..process_common..Stdio$GT$$GT$17h9dd272a4bc22e365E
	addq	$32, %rsp
	popq	%rbp
	retq
LBB80_29:
	movq	-16(%rbp), %rdi
	callq	__Unwind_Resume
Ltmp544:
Lfunc_end80:
	.cfi_endproc
	.section	__TEXT,__gcc_except_tab
	.p2align	2
GCC_except_table80:
Lexception20:
	.byte	255
	.byte	255
	.byte	1
	.uleb128 Lcst_end20-Lcst_begin20
Lcst_begin20:
	.uleb128 Ltmp497-Lfunc_begin80
	.uleb128 Ltmp498-Ltmp497
	.uleb128 Ltmp499-Lfunc_begin80
	.byte	0
	.uleb128 Ltmp500-Lfunc_begin80
	.uleb128 Ltmp501-Ltmp500
	.uleb128 Ltmp542-Lfunc_begin80
	.byte	0
	.uleb128 Ltmp502-Lfunc_begin80
	.uleb128 Ltmp503-Ltmp502
	.uleb128 Ltmp504-Lfunc_begin80
	.byte	0
	.uleb128 Ltmp505-Lfunc_begin80
	.uleb128 Ltmp506-Ltmp505
	.uleb128 Ltmp542-Lfunc_begin80
	.byte	0
	.uleb128 Ltmp507-Lfunc_begin80
	.uleb128 Ltmp508-Ltmp507
	.uleb128 Ltmp509-Lfunc_begin80
	.byte	0
	.uleb128 Ltmp510-Lfunc_begin80
	.uleb128 Ltmp511-Ltmp510
	.uleb128 Ltmp542-Lfunc_begin80
	.byte	0
	.uleb128 Ltmp512-Lfunc_begin80
	.uleb128 Ltmp513-Ltmp512
	.uleb128 Ltmp514-Lfunc_begin80
	.byte	0
	.uleb128 Ltmp515-Lfunc_begin80
	.uleb128 Ltmp516-Ltmp515
	.uleb128 Ltmp542-Lfunc_begin80
	.byte	0
	.uleb128 Ltmp517-Lfunc_begin80
	.uleb128 Ltmp518-Ltmp517
	.uleb128 Ltmp519-Lfunc_begin80
	.byte	0
	.uleb128 Ltmp520-Lfunc_begin80
	.uleb128 Ltmp521-Ltmp520
	.uleb128 Ltmp542-Lfunc_begin80
	.byte	0
	.uleb128 Ltmp522-Lfunc_begin80
	.uleb128 Ltmp523-Ltmp522
	.uleb128 Ltmp524-Lfunc_begin80
	.byte	0
	.uleb128 Ltmp525-Lfunc_begin80
	.uleb128 Ltmp526-Ltmp525
	.uleb128 Ltmp542-Lfunc_begin80
	.byte	0
	.uleb128 Ltmp527-Lfunc_begin80
	.uleb128 Ltmp528-Ltmp527
	.uleb128 Ltmp529-Lfunc_begin80
	.byte	0
	.uleb128 Ltmp530-Lfunc_begin80
	.uleb128 Ltmp531-Ltmp530
	.uleb128 Ltmp542-Lfunc_begin80
	.byte	0
	.uleb128 Ltmp532-Lfunc_begin80
	.uleb128 Ltmp533-Ltmp532
	.uleb128 Ltmp534-Lfunc_begin80
	.byte	0
	.uleb128 Ltmp535-Lfunc_begin80
	.uleb128 Ltmp536-Ltmp535
	.uleb128 Ltmp542-Lfunc_begin80
	.byte	0
	.uleb128 Ltmp537-Lfunc_begin80
	.uleb128 Ltmp538-Ltmp537
	.uleb128 Ltmp539-Lfunc_begin80
	.byte	0
	.uleb128 Ltmp540-Lfunc_begin80
	.uleb128 Ltmp541-Ltmp540
	.uleb128 Ltmp542-Lfunc_begin80
	.byte	0
	.uleb128 Ltmp541-Lfunc_begin80
	.uleb128 Lfunc_end80-Ltmp541
	.byte	0
	.byte	0
Lcst_end20:
	.p2align	2

	.section	__TEXT,__text,regular,pure_instructions
	.p2align	4, 0x90
__ZN4core3ptr70drop_in_place$LT$alloc..vec..Vec$LT$alloc..ffi..c_str..CString$GT$$GT$17hdfd84f9e23cb1490E:
Lfunc_begin81:
	.loc	4 490 0 is_stmt 1
	.cfi_startproc
	.cfi_personality 155, _rust_eh_personality
	.cfi_lsda 16, Lexception21
	pushq	%rbp
	.cfi_def_cfa_offset 16
	.cfi_offset %rbp, -16
	movq	%rsp, %rbp
	.cfi_def_cfa_register %rbp
	subq	$32, %rsp
	movq	%rdi, -32(%rbp)
	movq	%rdi, -24(%rbp)
Ltmp545:
Ltmp551:
	.loc	4 490 1 prologue_end
	callq	__ZN70_$LT$alloc..vec..Vec$LT$T$C$A$GT$$u20$as$u20$core..ops..drop..Drop$GT$4drop17h674097e05b6f19a0E
Ltmp546:
	jmp	LBB81_3
LBB81_1:
Ltmp548:
	.loc	4 0 1 is_stmt 0
	movq	-32(%rbp), %rdi
	.loc	4 490 1
	callq	__ZN4core3ptr77drop_in_place$LT$alloc..raw_vec..RawVec$LT$alloc..ffi..c_str..CString$GT$$GT$17hb83629298664cd87E
Ltmp549:
	jmp	LBB81_5
LBB81_2:
Ltmp547:
	.loc	4 0 1
	movq	%rax, %rcx
	movl	%edx, %eax
	movq	%rcx, -16(%rbp)
	movl	%eax, -8(%rbp)
	jmp	LBB81_1
LBB81_3:
	movq	-32(%rbp), %rdi
	.loc	4 490 1
	callq	__ZN4core3ptr77drop_in_place$LT$alloc..raw_vec..RawVec$LT$alloc..ffi..c_str..CString$GT$$GT$17hb83629298664cd87E
	addq	$32, %rsp
	popq	%rbp
	retq
LBB81_4:
Ltmp550:
	callq	__ZN4core9panicking19panic_cannot_unwind17h1fbca7e1d7f56ae1E
LBB81_5:
	movq	-16(%rbp), %rdi
	callq	__Unwind_Resume
Ltmp552:
Lfunc_end81:
	.cfi_endproc
	.section	__TEXT,__gcc_except_tab
	.p2align	2
GCC_except_table81:
Lexception21:
	.byte	255
	.byte	255
	.byte	1
	.uleb128 Lcst_end21-Lcst_begin21
Lcst_begin21:
	.uleb128 Ltmp545-Lfunc_begin81
	.uleb128 Ltmp546-Ltmp545
	.uleb128 Ltmp547-Lfunc_begin81
	.byte	0
	.uleb128 Ltmp548-Lfunc_begin81
	.uleb128 Ltmp549-Ltmp548
	.uleb128 Ltmp550-Lfunc_begin81
	.byte	0
	.uleb128 Ltmp549-Lfunc_begin81
	.uleb128 Lfunc_end81-Ltmp549
	.byte	0
	.byte	0
Lcst_end21:
	.p2align	2

	.section	__TEXT,__text,regular,pure_instructions
	.p2align	4, 0x90
__ZN4core3ptr72drop_in_place$LT$alloc..collections..btree..mem..replace..PanicGuard$GT$17h82e536b19cc1f198E:
Lfunc_begin82:
	.loc	4 490 0 is_stmt 1
	.cfi_startproc
	pushq	%rbp
	.cfi_def_cfa_offset 16
	.cfi_offset %rbp, -16
	movq	%rsp, %rbp
	.cfi_def_cfa_register %rbp
	subq	$16, %rsp
	movq	%rdi, -8(%rbp)
Ltmp553:
	.loc	4 490 1 prologue_end
	callq	__ZN93_$LT$alloc..collections..btree..mem..replace..PanicGuard$u20$as$u20$core..ops..drop..Drop$GT$4drop17hd8f71405b84037e0E
	addq	$16, %rsp
	popq	%rbp
	retq
Ltmp554:
Lfunc_end82:
	.cfi_endproc

	.p2align	4, 0x90
__ZN4core3ptr75drop_in_place$LT$core..option..Option$LT$alloc..ffi..c_str..CString$GT$$GT$17h211af6291f9c3610E:
Lfunc_begin83:
	.loc	4 490 0
	.cfi_startproc
	pushq	%rbp
	.cfi_def_cfa_offset 16
	.cfi_offset %rbp, -16
	movq	%rsp, %rbp
	.cfi_def_cfa_register %rbp
	subq	$16, %rsp
	movq	%rdi, -16(%rbp)
	movq	%rdi, -8(%rbp)
Ltmp555:
	.loc	4 490 1 prologue_end
	movq	(%rdi), %rdx
	movl	$1, %eax
	xorl	%ecx, %ecx
	cmpq	$0, %rdx
	cmoveq	%rcx, %rax
	cmpq	$0, %rax
	jne	LBB83_2
LBB83_1:
	addq	$16, %rsp
	popq	%rbp
	retq
LBB83_2:
	.loc	4 0 1 is_stmt 0
	movq	-16(%rbp), %rdi
	.loc	4 490 1
	callq	__ZN4core3ptr47drop_in_place$LT$alloc..ffi..c_str..CString$GT$17h8fd6b688fd03e6cbE
	jmp	LBB83_1
Ltmp556:
Lfunc_end83:
	.cfi_endproc

	.p2align	4, 0x90
__ZN4core3ptr75drop_in_place$LT$core..option..Option$LT$std..ffi..os_str..OsString$GT$$GT$17h11d74861f76ad766E:
Lfunc_begin84:
	.loc	4 490 0 is_stmt 1
	.cfi_startproc
	pushq	%rbp
	.cfi_def_cfa_offset 16
	.cfi_offset %rbp, -16
	movq	%rsp, %rbp
	.cfi_def_cfa_register %rbp
	subq	$16, %rsp
	movq	%rdi, -16(%rbp)
	movq	%rdi, -8(%rbp)
Ltmp557:
	.loc	4 490 1 prologue_end
	movq	8(%rdi), %rdx
	movl	$1, %eax
	xorl	%ecx, %ecx
	cmpq	$0, %rdx
	cmoveq	%rcx, %rax
	cmpq	$0, %rax
	jne	LBB84_2
LBB84_1:
	addq	$16, %rsp
	popq	%rbp
	retq
LBB84_2:
	.loc	4 0 1 is_stmt 0
	movq	-16(%rbp), %rdi
	.loc	4 490 1
	callq	__ZN4core3ptr47drop_in_place$LT$std..ffi..os_str..OsString$GT$17h1785b1b2a43e54a6E
	jmp	LBB84_1
Ltmp558:
Lfunc_end84:
	.cfi_endproc

	.p2align	4, 0x90
__ZN4core3ptr77drop_in_place$LT$alloc..raw_vec..RawVec$LT$alloc..ffi..c_str..CString$GT$$GT$17hb83629298664cd87E:
Lfunc_begin85:
	.loc	4 490 0 is_stmt 1
	.cfi_startproc
	pushq	%rbp
	.cfi_def_cfa_offset 16
	.cfi_offset %rbp, -16
	movq	%rsp, %rbp
	.cfi_def_cfa_register %rbp
	subq	$16, %rsp
	movq	%rdi, -8(%rbp)
Ltmp559:
	.loc	4 490 1 prologue_end
	callq	__ZN77_$LT$alloc..raw_vec..RawVec$LT$T$C$A$GT$$u20$as$u20$core..ops..drop..Drop$GT$4drop17h5de63d54f487b3cdE
	addq	$16, %rsp
	popq	%rbp
	retq
Ltmp560:
Lfunc_end85:
	.cfi_endproc

	.p2align	4, 0x90
__ZN4core3ptr85drop_in_place$LT$std..rt..lang_start$LT$$LP$$RP$$GT$..$u7b$$u7b$closure$u7d$$u7d$$GT$17h08fc698a0b0024d2E:
Lfunc_begin86:
	.loc	4 490 0
	.cfi_startproc
	pushq	%rbp
	.cfi_def_cfa_offset 16
	.cfi_offset %rbp, -16
	movq	%rsp, %rbp
	.cfi_def_cfa_register %rbp
	pushq	%rax
	movq	%rdi, -8(%rbp)
Ltmp561:
	.loc	4 490 1 prologue_end
	addq	$8, %rsp
	popq	%rbp
	retq
Ltmp562:
Lfunc_end86:
	.cfi_endproc

	.p2align	4, 0x90
__ZN4core3ptr87drop_in_place$LT$core..option..Option$LT$alloc..boxed..Box$LT$$u5b$u32$u5d$$GT$$GT$$GT$17hf480e0a0087e0030E:
Lfunc_begin87:
	.loc	4 490 0
	.cfi_startproc
	pushq	%rbp
	.cfi_def_cfa_offset 16
	.cfi_offset %rbp, -16
	movq	%rsp, %rbp
	.cfi_def_cfa_register %rbp
	subq	$16, %rsp
	movq	%rdi, -16(%rbp)
	movq	%rdi, -8(%rbp)
Ltmp563:
	.loc	4 490 1 prologue_end
	movq	(%rdi), %rdx
	movl	$1, %eax
	xorl	%ecx, %ecx
	cmpq	$0, %rdx
	cmoveq	%rcx, %rax
	cmpq	$0, %rax
	jne	LBB87_2
LBB87_1:
	addq	$16, %rsp
	popq	%rbp
	retq
LBB87_2:
	.loc	4 0 1 is_stmt 0
	movq	-16(%rbp), %rdi
	.loc	4 490 1
	callq	__ZN4core3ptr59drop_in_place$LT$alloc..boxed..Box$LT$$u5b$u32$u5d$$GT$$GT$17h690c74b72661b72bE
	jmp	LBB87_1
Ltmp564:
Lfunc_end87:
	.cfi_endproc

	.p2align	4, 0x90
__ZN4core3ptr93drop_in_place$LT$dyn$u20$core..error..Error$u2b$core..marker..Send$u2b$core..marker..Sync$GT$17h05cd39118e45b04aE:
Lfunc_begin88:
	.loc	4 490 0 is_stmt 1
	.cfi_startproc
	pushq	%rbp
	.cfi_def_cfa_offset 16
	.cfi_offset %rbp, -16
	movq	%rsp, %rbp
	.cfi_def_cfa_register %rbp
	subq	$16, %rsp
	movq	%rdi, -16(%rbp)
	movq	%rsi, -8(%rbp)
Ltmp565:
	.loc	4 490 1 prologue_end
	callq	*(%rsi)
	addq	$16, %rsp
	popq	%rbp
	retq
Ltmp566:
Lfunc_end88:
	.cfi_endproc

	.p2align	4, 0x90
__ZN4core3ptr95drop_in_place$LT$core..option..Option$LT$std..sys..unix..process..process_common..Stdio$GT$$GT$17h9dd272a4bc22e365E:
Lfunc_begin89:
	.loc	4 490 0
	.cfi_startproc
	pushq	%rbp
	.cfi_def_cfa_offset 16
	.cfi_offset %rbp, -16
	movq	%rsp, %rbp
	.cfi_def_cfa_register %rbp
	subq	$16, %rsp
	movq	%rdi, -16(%rbp)
	movq	%rdi, -8(%rbp)
Ltmp567:
	.loc	4 490 1 prologue_end
	movl	$1, %eax
	xorl	%ecx, %ecx
	cmpl	$4, (%rdi)
	cmoveq	%rcx, %rax
	cmpq	$0, %rax
	jne	LBB89_2
LBB89_1:
	addq	$16, %rsp
	popq	%rbp
	retq
LBB89_2:
	.loc	4 0 1 is_stmt 0
	movq	-16(%rbp), %rdi
	.loc	4 490 1
	callq	__ZN4core3ptr67drop_in_place$LT$std..sys..unix..process..process_common..Stdio$GT$17h2bb1ad9cbc4bd285E
	jmp	LBB89_1
Ltmp568:
Lfunc_end89:
	.cfi_endproc

	.p2align	4, 0x90
__ZN4core3ptr9const_ptr33_$LT$impl$u20$$BP$const$u20$T$GT$7sub_ptr17h4e7c4040b0e272d1E:
Lfunc_begin90:
	.loc	3 791 0 is_stmt 1
	.cfi_startproc
	pushq	%rbp
	.cfi_def_cfa_offset 16
	.cfi_offset %rbp, -16
	movq	%rsp, %rbp
	.cfi_def_cfa_register %rbp
	subq	$64, %rsp
	movq	%rdi, -56(%rbp)
	movq	%rsi, -48(%rbp)
	movq	%rdi, -32(%rbp)
	movq	%rsi, -24(%rbp)
Ltmp569:
	.loc	31 309 5 prologue_end
	movq	$1, -16(%rbp)
Ltmp570:
	.loc	3 806 17
	movb	$1, %al
	testb	$1, %al
	jne	LBB90_2
	movb	$0, -33(%rbp)
	jmp	LBB90_3
LBB90_2:
	movb	$1, -33(%rbp)
LBB90_3:
	.loc	3 806 9 is_stmt 0
	movb	-33(%rbp), %al
	xorb	$-1, %al
	testb	$1, %al
	jne	LBB90_5
	.loc	3 0 9
	movq	-48(%rbp), %rcx
	movq	-56(%rbp), %rax
	.loc	3 808 18 is_stmt 1
	subq	%rcx, %rax
	shrq	$0, %rax
	movq	%rax, -8(%rbp)
	movq	-8(%rbp), %rax
Ltmp571:
	.loc	3 809 6
	addq	$64, %rsp
	popq	%rbp
	retq
LBB90_5:
Ltmp572:
	.loc	3 806 9
	leaq	l___unnamed_8(%rip), %rdi
	leaq	l___unnamed_9(%rip), %rdx
	movl	$73, %esi
	callq	__ZN4core9panicking5panic17hc1bc45270cf64b03E
Ltmp573:
Lfunc_end90:
	.cfi_endproc

	.p2align	4, 0x90
__ZN4core3str11validations15next_code_point17hc0b2fc2395b490c8E:
Lfunc_begin91:
	.file	33 "/rustc/2c8cc343237b8f7d5a3c3703e3a87f2eb2c54a74/library/core/src/str" "validations.rs"
	.loc	33 36 0
	.cfi_startproc
	pushq	%rbp
	.cfi_def_cfa_offset 16
	.cfi_offset %rbp, -16
	movq	%rsp, %rbp
	.cfi_def_cfa_register %rbp
	subq	$144, %rsp
	movq	%rdi, -128(%rbp)
	movq	%rdi, -88(%rbp)
Ltmp574:
	.loc	33 38 14 prologue_end
	callq	__ZN91_$LT$core..slice..iter..Iter$LT$T$GT$$u20$as$u20$core..iter..traits..iterator..Iterator$GT$4next17h1758a4e69d9621e9E
	movq	%rax, -104(%rbp)
Ltmp575:
	.loc	14 2407 15
	movq	-104(%rbp), %rdx
	movl	$1, %eax
	xorl	%ecx, %ecx
	cmpq	$0, %rdx
	cmoveq	%rcx, %rax
	.loc	14 2407 9 is_stmt 0
	cmpq	$0, %rax
	jne	LBB91_2
	.loc	14 2409 21 is_stmt 1
	movq	$0, -112(%rbp)
	.loc	14 2409 44 is_stmt 0
	jmp	LBB91_3
LBB91_2:
	.loc	14 2408 18 is_stmt 1
	movq	-104(%rbp), %rax
	movq	%rax, -64(%rbp)
Ltmp576:
	.loc	14 2408 24 is_stmt 0
	movq	%rax, -112(%rbp)
Ltmp577:
LBB91_3:
	.loc	33 38 14 is_stmt 1
	movq	-112(%rbp), %rdx
	xorl	%eax, %eax
	movl	$1, %ecx
	cmpq	$0, %rdx
	cmoveq	%rcx, %rax
	cmpq	$0, %rax
	jne	LBB91_5
	movq	-112(%rbp), %rax
	movq	%rax, -56(%rbp)
	.loc	33 38 13 is_stmt 0
	movb	(%rax), %al
	movb	%al, -129(%rbp)
	movb	%al, -42(%rbp)
Ltmp578:
	.loc	33 39 8 is_stmt 1
	cmpb	$-128, %al
	jb	LBB91_8
	jmp	LBB91_7
Ltmp579:
LBB91_5:
	.loc	14 2420 21
	movl	$0, -120(%rbp)
Ltmp580:
LBB91_6:
	.loc	33 70 2
	jmp	LBB91_9
LBB91_7:
	.loc	33 0 2 is_stmt 0
	movb	-129(%rbp), %al
	movq	-128(%rbp), %rdi
Ltmp581:
	.loc	33 46 32 is_stmt 1
	movb	%al, -41(%rbp)
Ltmp582:
	.loc	33 12 5
	andb	$31, %al
	movzbl	%al, %eax
	movl	%eax, -136(%rbp)
	movl	%eax, -40(%rbp)
Ltmp583:
	.loc	33 49 23
	callq	__ZN91_$LT$core..slice..iter..Iter$LT$T$GT$$u20$as$u20$core..iter..traits..iterator..Iterator$GT$4next17h1758a4e69d9621e9E
	movq	%rax, %rdi
	leaq	l___unnamed_10(%rip), %rsi
	callq	__ZN4core6option15Option$LT$T$GT$16unwrap_unchecked17h7fed5efbba2bb74fE
	movl	-136(%rbp), %ecx
	movq	%rax, %rdx
	movb	-129(%rbp), %al
	.loc	33 49 22 is_stmt 0
	movb	(%rdx), %dl
	movb	%dl, -130(%rbp)
	movb	%dl, -33(%rbp)
Ltmp584:
	.loc	33 50 37 is_stmt 1
	movl	%ecx, -32(%rbp)
	.loc	33 50 43 is_stmt 0
	movb	%dl, -26(%rbp)
Ltmp585:
	.loc	33 18 5 is_stmt 1
	shll	$6, %ecx
	.loc	33 18 17 is_stmt 0
	andb	$63, %dl
	movzbl	%dl, %edx
	.loc	33 18 5
	orl	%edx, %ecx
	movl	%ecx, -92(%rbp)
Ltmp586:
	.loc	33 51 8 is_stmt 1
	cmpb	$-32, %al
	jae	LBB91_11
	jmp	LBB91_10
Ltmp587:
LBB91_8:
	.loc	33 0 8 is_stmt 0
	movb	-129(%rbp), %al
	.loc	33 40 21 is_stmt 1
	movzbl	%al, %eax
	.loc	33 40 16 is_stmt 0
	movl	%eax, -116(%rbp)
	movl	$1, -120(%rbp)
	.file	34 "/Users/natalie/.cargo/registry/src/github.com-1ecc6299db9ec823/proc-macro2-1.0.47" "build.rs"
	.loc	34 1 1 is_stmt 1
	jmp	LBB91_6
Ltmp588:
LBB91_9:
	.loc	33 70 2
	movl	-120(%rbp), %eax
	movl	-116(%rbp), %edx
	addq	$144, %rsp
	popq	%rbp
	retq
LBB91_10:
Ltmp589:
	.loc	33 69 10
	movl	-92(%rbp), %eax
	.loc	33 69 5 is_stmt 0
	movl	%eax, -116(%rbp)
	movl	$1, -120(%rbp)
Ltmp590:
	.loc	33 70 2 is_stmt 1
	jmp	LBB91_9
LBB91_11:
	.loc	33 0 2 is_stmt 0
	movq	-128(%rbp), %rdi
Ltmp591:
	.loc	33 56 27 is_stmt 1
	callq	__ZN91_$LT$core..slice..iter..Iter$LT$T$GT$$u20$as$u20$core..iter..traits..iterator..Iterator$GT$4next17h1758a4e69d9621e9E
	movq	%rax, %rdi
	leaq	l___unnamed_11(%rip), %rsi
	callq	__ZN4core6option15Option$LT$T$GT$16unwrap_unchecked17h7fed5efbba2bb74fE
	movb	-130(%rbp), %dl
	movl	-136(%rbp), %ecx
	movq	%rax, %rsi
	movb	-129(%rbp), %al
	.loc	33 56 26 is_stmt 0
	movb	(%rsi), %sil
	movb	%sil, -25(%rbp)
Ltmp592:
	.loc	33 57 38 is_stmt 1
	andb	$63, %dl
	movzbl	%dl, %edx
	movl	%edx, -24(%rbp)
	.loc	33 57 62 is_stmt 0
	movb	%sil, -17(%rbp)
Ltmp593:
	.loc	33 18 5 is_stmt 1
	shll	$6, %edx
	.loc	33 18 17 is_stmt 0
	andb	$63, %sil
	movzbl	%sil, %esi
	.loc	33 18 5
	orl	%esi, %edx
	movl	%edx, -140(%rbp)
	movl	%edx, -16(%rbp)
Ltmp594:
	.loc	33 58 14 is_stmt 1
	shll	$12, %ecx
	.loc	33 58 9 is_stmt 0
	orl	%edx, %ecx
	movl	%ecx, -92(%rbp)
	.loc	33 59 12 is_stmt 1
	cmpb	$-16, %al
	jae	LBB91_13
Ltmp595:
LBB91_12:
	.loc	33 51 5
	jmp	LBB91_10
LBB91_13:
	.loc	33 0 5 is_stmt 0
	movq	-128(%rbp), %rdi
Ltmp596:
	.loc	33 64 31 is_stmt 1
	callq	__ZN91_$LT$core..slice..iter..Iter$LT$T$GT$$u20$as$u20$core..iter..traits..iterator..Iterator$GT$4next17h1758a4e69d9621e9E
	movq	%rax, %rdi
	leaq	l___unnamed_12(%rip), %rsi
	callq	__ZN4core6option15Option$LT$T$GT$16unwrap_unchecked17h7fed5efbba2bb74fE
	movl	-140(%rbp), %ecx
	movq	%rax, %rdx
	movl	-136(%rbp), %eax
	.loc	33 64 30 is_stmt 0
	movb	(%rdx), %dl
	movb	%dl, -9(%rbp)
Ltmp597:
	.loc	33 65 18 is_stmt 1
	andl	$7, %eax
	shll	$18, %eax
	.loc	33 65 56 is_stmt 0
	movl	%ecx, -8(%rbp)
	.loc	33 65 61
	movb	%dl, -1(%rbp)
Ltmp598:
	.loc	33 18 5 is_stmt 1
	shll	$6, %ecx
	.loc	33 18 17 is_stmt 0
	andb	$63, %dl
	movzbl	%dl, %edx
	.loc	33 18 5
	orl	%edx, %ecx
Ltmp599:
	.loc	33 65 13 is_stmt 1
	orl	%ecx, %eax
	movl	%eax, -92(%rbp)
Ltmp600:
	.loc	33 59 9
	jmp	LBB91_12
Ltmp601:
Lfunc_end91:
	.cfi_endproc

	.p2align	4, 0x90
__ZN4core3str21_$LT$impl$u20$str$GT$11starts_with17had45824505bf001aE:
Lfunc_begin92:
	.loc	26 1096 0
	.cfi_startproc
	pushq	%rbp
	.cfi_def_cfa_offset 16
	.cfi_offset %rbp, -16
	movq	%rsp, %rbp
	.cfi_def_cfa_register %rbp
	subq	$48, %rsp
	movq	%rcx, -48(%rbp)
	movq	%rdx, -40(%rbp)
	movq	%rsi, %rcx
	movq	-48(%rbp), %rsi
	movq	%rdi, %rdx
	movq	-40(%rbp), %rdi
	movq	%rdx, -32(%rbp)
	movq	%rcx, -24(%rbp)
	movq	%rdi, -16(%rbp)
	movq	%rsi, -8(%rbp)
Ltmp602:
	.loc	26 1097 9 prologue_end
	callq	__ZN55_$LT$$RF$str$u20$as$u20$core..str..pattern..Pattern$GT$12is_prefix_of17h5469f3cb0df3efa9E
	.loc	26 1098 6
	andb	$1, %al
	movzbl	%al, %eax
	addq	$48, %rsp
	popq	%rbp
	retq
Ltmp603:
Lfunc_end92:
	.cfi_endproc

	.p2align	4, 0x90
__ZN4core3str21_$LT$impl$u20$str$GT$16is_char_boundary17h835dfbea66d46dafE:
Lfunc_begin93:
	.loc	26 211 0
	.cfi_startproc
	pushq	%rbp
	.cfi_def_cfa_offset 16
	.cfi_offset %rbp, -16
	movq	%rsp, %rbp
	.cfi_def_cfa_register %rbp
	subq	$176, %rsp
	movq	%rdi, -176(%rbp)
	movq	%rsi, -168(%rbp)
	movq	%rdx, -160(%rbp)
	movq	%rdi, -136(%rbp)
	movq	%rsi, -128(%rbp)
	movq	%rdx, -120(%rbp)
Ltmp604:
	.loc	26 216 12 prologue_end
	cmpq	$0, %rdx
	jne	LBB93_2
	.loc	26 217 20
	movb	$1, -145(%rbp)
	.loc	26 234 6
	jmp	LBB93_6
LBB93_2:
	.loc	26 0 6 is_stmt 0
	movq	-160(%rbp), %rdi
	movq	-168(%rbp), %rax
	movq	-176(%rbp), %rcx
	.loc	26 220 15 is_stmt 1
	movq	%rcx, -112(%rbp)
	movq	%rax, -104(%rbp)
Ltmp605:
	.loc	26 327 18
	movq	%rcx, -96(%rbp)
	movq	%rax, -88(%rbp)
	movq	-96(%rbp), %rsi
	movq	-88(%rbp), %rdx
Ltmp606:
	.loc	26 220 15
	movq	%rsi, -80(%rbp)
	movq	%rdx, -72(%rbp)
	.loc	26 220 35 is_stmt 0
	movq	%rdi, -64(%rbp)
Ltmp607:
	.file	35 "/rustc/2c8cc343237b8f7d5a3c3703e3a87f2eb2c54a74/library/core/src/slice" "mod.rs"
	.loc	35 343 9 is_stmt 1
	callq	__ZN75_$LT$usize$u20$as$u20$core..slice..index..SliceIndex$LT$$u5b$T$u5d$$GT$$GT$3get17h318e08c1cbf12de1E
	movq	%rax, -144(%rbp)
Ltmp608:
	.loc	26 220 15
	movq	-144(%rbp), %rdx
	movl	$1, %eax
	xorl	%ecx, %ecx
	cmpq	$0, %rdx
	cmoveq	%rcx, %rax
	.loc	26 220 9 is_stmt 0
	cmpq	$0, %rax
	jne	LBB93_4
	.loc	26 0 9
	movq	-160(%rbp), %rax
	movq	-168(%rbp), %rcx
	movq	-176(%rbp), %rdx
	.loc	26 230 30 is_stmt 1
	movq	%rdx, -48(%rbp)
	movq	%rcx, -40(%rbp)
Ltmp609:
	.loc	26 160 9
	movq	%rdx, -32(%rbp)
	movq	%rcx, -24(%rbp)
Ltmp610:
	.loc	26 327 18
	movq	%rdx, -16(%rbp)
	movq	%rcx, -8(%rbp)
Ltmp611:
	.loc	26 230 21
	cmpq	-8(%rbp), %rax
	sete	%al
	andb	$1, %al
	movb	%al, -145(%rbp)
	.loc	26 230 39 is_stmt 0
	jmp	LBB93_5
LBB93_4:
	.loc	26 232 19 is_stmt 1
	movq	-144(%rbp), %rax
	movb	(%rax), %al
	movb	%al, -50(%rbp)
Ltmp612:
	.loc	26 232 25 is_stmt 0
	movb	%al, -49(%rbp)
Ltmp613:
	.file	36 "/rustc/2c8cc343237b8f7d5a3c3703e3a87f2eb2c54a74/library/core/src/num" "mod.rs"
	.loc	36 885 9 is_stmt 1
	cmpb	$-64, %al
	setge	%al
	andb	$1, %al
	movb	%al, -145(%rbp)
Ltmp614:
LBB93_5:
	.loc	26 234 6
	jmp	LBB93_6
LBB93_6:
	movb	-145(%rbp), %al
	andb	$1, %al
	movzbl	%al, %eax
	addq	$176, %rsp
	popq	%rbp
	retq
Ltmp615:
Lfunc_end93:
	.cfi_endproc

	.p2align	4, 0x90
__ZN4core3str21_$LT$impl$u20$str$GT$3len17h0e0e29f117946099E:
Lfunc_begin94:
	.loc	26 159 0
	.cfi_startproc
	pushq	%rbp
	.cfi_def_cfa_offset 16
	.cfi_offset %rbp, -16
	movq	%rsp, %rbp
	.cfi_def_cfa_register %rbp
	subq	$48, %rsp
	movq	%rdi, -48(%rbp)
	movq	%rsi, -40(%rbp)
Ltmp616:
	.loc	26 160 9 prologue_end
	movq	%rdi, -32(%rbp)
	movq	%rsi, -24(%rbp)
Ltmp617:
	.loc	26 327 18
	movq	%rdi, -16(%rbp)
	movq	%rsi, -8(%rbp)
	movq	-8(%rbp), %rax
Ltmp618:
	.loc	26 161 6
	addq	$48, %rsp
	popq	%rbp
	retq
Ltmp619:
Lfunc_end94:
	.cfi_endproc

	.p2align	4, 0x90
__ZN4core3str21_$LT$impl$u20$str$GT$5parse17h993d15c2d1adf21fE:
Lfunc_begin95:
	.loc	26 2352 0
	.cfi_startproc
	pushq	%rbp
	.cfi_def_cfa_offset 16
	.cfi_offset %rbp, -16
	movq	%rsp, %rbp
	.cfi_def_cfa_register %rbp
	subq	$32, %rsp
	movq	%rdi, -24(%rbp)
	movq	%rsi, -16(%rbp)
Ltmp620:
	.loc	26 2353 9 prologue_end
	callq	__ZN4core3num60_$LT$impl$u20$core..str..traits..FromStr$u20$for$u20$u32$GT$8from_str17hc43530aba0d836a9E
	movq	%rax, -8(%rbp)
	movq	-8(%rbp), %rax
	movq	%rax, -32(%rbp)
	.loc	26 2354 6
	movq	-32(%rbp), %rax
	addq	$32, %rsp
	popq	%rbp
	retq
Ltmp621:
Lfunc_end95:
	.cfi_endproc

	.p2align	4, 0x90
__ZN4core3str21_$LT$impl$u20$str$GT$5split17hb8e6271cf6cd3476E:
Lfunc_begin96:
	.loc	26 1341 0
	.cfi_startproc
	.cfi_personality 155, _rust_eh_personality
	.cfi_lsda 16, Lexception22
	pushq	%rbp
	.cfi_def_cfa_offset 16
	.cfi_offset %rbp, -16
	movq	%rsp, %rbp
	.cfi_def_cfa_register %rbp
	subq	$272, %rsp
	movl	%ecx, -260(%rbp)
	movq	%rdx, -256(%rbp)
	movq	%rsi, -248(%rbp)
	movq	%rdi, -240(%rbp)
	movq	%rdi, -232(%rbp)
	movq	%rsi, -88(%rbp)
	movq	%rdx, -80(%rbp)
	movl	%ecx, -68(%rbp)
Ltmp625:
	.loc	26 1342 15 prologue_end
	movb	$1, -89(%rbp)
	.loc	26 1344 18
	movq	%rsi, -64(%rbp)
	movq	%rdx, -56(%rbp)
Ltmp626:
	.loc	26 160 9
	movq	%rsi, -48(%rbp)
	movq	%rdx, -40(%rbp)
Ltmp627:
	.loc	26 327 18
	movq	%rsi, -32(%rbp)
	movq	%rdx, -24(%rbp)
	movq	-24(%rbp), %rax
	movq	%rax, -224(%rbp)
Ltmp628:
	.loc	26 0 18 is_stmt 0
	movq	-256(%rbp), %rcx
	movq	-248(%rbp), %rdx
	movl	-260(%rbp), %esi
	.loc	26 1345 22 is_stmt 1
	movb	$0, -89(%rbp)
Ltmp622:
	leaq	-144(%rbp), %rdi
	callq	__ZN52_$LT$char$u20$as$u20$core..str..pattern..Pattern$GT$13into_searcher17hbb003b2596e614e8E
Ltmp623:
	jmp	LBB96_4
LBB96_2:
	.loc	26 1349 5
	testb	$1, -89(%rbp)
	jne	LBB96_6
	jmp	LBB96_5
LBB96_3:
Ltmp624:
	.loc	26 0 5 is_stmt 0
	movq	%rax, %rcx
	movl	%edx, %eax
	movq	%rcx, -16(%rbp)
	movl	%eax, -8(%rbp)
	jmp	LBB96_2
LBB96_4:
	movq	-224(%rbp), %rax
	.loc	26 1342 15 is_stmt 1
	movq	$0, -168(%rbp)
	movq	%rax, -160(%rbp)
	leaq	-216(%rbp), %rdi
	leaq	-144(%rbp), %rsi
	movl	$48, %edx
	callq	_memcpy
	movq	-240(%rbp), %rdi
	movb	$1, -152(%rbp)
	movb	$0, -151(%rbp)
	.loc	26 1342 9 is_stmt 0
	leaq	-216(%rbp), %rsi
	movl	$72, %edx
	callq	_memcpy
	movq	-232(%rbp), %rax
	.loc	26 1349 6 is_stmt 1
	addq	$272, %rsp
	popq	%rbp
	retq
LBB96_5:
	.loc	26 1341 5
	movq	-16(%rbp), %rdi
	callq	__Unwind_Resume
LBB96_6:
	.loc	26 1349 5
	jmp	LBB96_5
Ltmp629:
Lfunc_end96:
	.cfi_endproc
	.section	__TEXT,__gcc_except_tab
	.p2align	2
GCC_except_table96:
Lexception22:
	.byte	255
	.byte	255
	.byte	1
	.uleb128 Lcst_end22-Lcst_begin22
Lcst_begin22:
	.uleb128 Ltmp622-Lfunc_begin96
	.uleb128 Ltmp623-Ltmp622
	.uleb128 Ltmp624-Lfunc_begin96
	.byte	0
	.uleb128 Ltmp623-Lfunc_begin96
	.uleb128 Lfunc_end96-Ltmp623
	.byte	0
	.byte	0
Lcst_end22:
	.p2align	2

	.section	__TEXT,__text,regular,pure_instructions
	.p2align	4, 0x90
__ZN4core3str21_$LT$impl$u20$str$GT$8contains17h7acfabdcf6eb2ccdE:
Lfunc_begin97:
	.loc	26 1070 0
	.cfi_startproc
	pushq	%rbp
	.cfi_def_cfa_offset 16
	.cfi_offset %rbp, -16
	movq	%rsp, %rbp
	.cfi_def_cfa_register %rbp
	subq	$48, %rsp
	movq	%rcx, -48(%rbp)
	movq	%rdx, -40(%rbp)
	movq	%rsi, %rcx
	movq	-48(%rbp), %rsi
	movq	%rdi, %rdx
	movq	-40(%rbp), %rdi
	movq	%rdx, -32(%rbp)
	movq	%rcx, -24(%rbp)
	movq	%rdi, -16(%rbp)
	movq	%rsi, -8(%rbp)
Ltmp630:
	.loc	26 1071 9 prologue_end
	callq	__ZN55_$LT$$RF$str$u20$as$u20$core..str..pattern..Pattern$GT$15is_contained_in17h924addaac94271e9E
	.loc	26 1072 6
	andb	$1, %al
	movzbl	%al, %eax
	addq	$48, %rsp
	popq	%rbp
	retq
Ltmp631:
Lfunc_end97:
	.cfi_endproc

	.p2align	4, 0x90
__ZN4core3str4iter22SplitInternal$LT$P$GT$4next17h973af7c95df13c88E:
Lfunc_begin98:
	.file	37 "/rustc/2c8cc343237b8f7d5a3c3703e3a87f2eb2c54a74/library/core/src/str" "iter.rs"
	.loc	37 602 0
	.cfi_startproc
	pushq	%rbp
	.cfi_def_cfa_offset 16
	.cfi_offset %rbp, -16
	movq	%rsp, %rbp
	.cfi_def_cfa_register %rbp
	subq	$160, %rsp
	movq	%rdi, -136(%rbp)
	movq	%rdi, -72(%rbp)
Ltmp632:
	.loc	37 603 12 prologue_end
	testb	$1, 65(%rdi)
	jne	LBB98_2
	.loc	37 0 12 is_stmt 0
	movq	-136(%rbp), %rdi
	.loc	37 607 24 is_stmt 1
	callq	__ZN81_$LT$core..str..pattern..CharSearcher$u20$as$u20$core..str..pattern..Searcher$GT$8haystack17h282df4f483c068caE
	movq	-136(%rbp), %rsi
	movq	%rax, -152(%rbp)
	movq	%rdx, -144(%rbp)
	movq	%rax, -64(%rbp)
	movq	%rdx, -56(%rbp)
Ltmp633:
	.loc	37 608 15
	leaq	-112(%rbp), %rdi
	callq	__ZN81_$LT$core..str..pattern..CharSearcher$u20$as$u20$core..str..pattern..Searcher$GT$10next_match17h63faddfd08db144bE
	.loc	37 608 9 is_stmt 0
	cmpq	$0, -112(%rbp)
	je	LBB98_4
	jmp	LBB98_5
Ltmp634:
LBB98_2:
	.loc	37 604 20 is_stmt 1
	movq	$0, -128(%rbp)
LBB98_3:
	.loc	37 617 6
	movq	-128(%rbp), %rax
	movq	-120(%rbp), %rdx
	addq	$160, %rsp
	popq	%rbp
	retq
LBB98_4:
	.loc	37 0 6 is_stmt 0
	movq	-136(%rbp), %rdi
Ltmp635:
	.loc	37 615 21 is_stmt 1
	callq	__ZN4core3str4iter22SplitInternal$LT$P$GT$7get_end17h1a3e277ca8273d4fE
	movq	%rdx, -120(%rbp)
	movq	%rax, -128(%rbp)
	.loc	37 615 34 is_stmt 0
	jmp	LBB98_6
LBB98_5:
	.loc	37 0 34
	movq	-136(%rbp), %rsi
	movq	-144(%rbp), %rcx
	movq	-152(%rbp), %rdx
	.loc	37 610 19 is_stmt 1
	movq	-104(%rbp), %rax
	movq	%rax, -48(%rbp)
	.loc	37 610 22 is_stmt 0
	movq	-96(%rbp), %rdi
	movq	%rdi, -160(%rbp)
	movq	%rdi, -40(%rbp)
Ltmp636:
	.loc	37 611 27 is_stmt 1
	movq	%rdx, -32(%rbp)
	movq	%rcx, -24(%rbp)
	.loc	37 611 50 is_stmt 0
	movq	48(%rsi), %rsi
	movq	%rsi, -88(%rbp)
	movq	%rax, -80(%rbp)
Ltmp637:
	.loc	26 511 20 is_stmt 1
	movq	-88(%rbp), %rdi
	movq	-80(%rbp), %rsi
	callq	__ZN4core3str6traits108_$LT$impl$u20$core..slice..index..SliceIndex$LT$str$GT$$u20$for$u20$core..ops..range..Range$LT$usize$GT$$GT$13get_unchecked17h8b9bf5c51739b2fbE
	movq	-160(%rbp), %rsi
	movq	-136(%rbp), %rcx
	.loc	26 511 18 is_stmt 0
	movq	%rax, -16(%rbp)
	movq	%rdx, -8(%rbp)
Ltmp638:
	.loc	37 612 17 is_stmt 1
	movq	%rsi, 48(%rcx)
	.loc	37 613 17
	movq	%rax, -128(%rbp)
	movq	%rdx, -120(%rbp)
Ltmp639:
LBB98_6:
	.loc	37 617 6
	jmp	LBB98_3
Ltmp640:
Lfunc_end98:
	.cfi_endproc

	.p2align	4, 0x90
__ZN4core3str4iter22SplitInternal$LT$P$GT$7get_end17h1a3e277ca8273d4fE:
Lfunc_begin99:
	.loc	37 587 0
	.cfi_startproc
	pushq	%rbp
	.cfi_def_cfa_offset 16
	.cfi_offset %rbp, -16
	movq	%rsp, %rbp
	.cfi_def_cfa_register %rbp
	subq	$96, %rsp
	movq	%rdi, -88(%rbp)
	movq	%rdi, -40(%rbp)
Ltmp641:
	.loc	37 588 13 prologue_end
	movb	65(%rdi), %al
	.loc	37 588 12 is_stmt 0
	xorb	$-1, %al
	testb	$1, %al
	jne	LBB99_2
LBB99_1:
	.loc	37 598 9 is_stmt 1
	movq	$0, -80(%rbp)
	.loc	37 599 6
	jmp	LBB99_8
LBB99_2:
	.loc	37 0 6 is_stmt 0
	movq	-88(%rbp), %rax
	.loc	37 589 13 is_stmt 1
	movb	$1, 65(%rax)
	.loc	37 591 16
	testb	$1, 64(%rax)
	jne	LBB99_4
	.loc	37 0 16 is_stmt 0
	movq	-88(%rbp), %rcx
	.loc	37 591 45
	movq	56(%rcx), %rax
	subq	48(%rcx), %rax
	cmpq	$0, %rax
	seta	%al
	.loc	37 591 16
	andb	$1, %al
	movb	%al, -57(%rbp)
	jmp	LBB99_5
LBB99_4:
	movb	$1, -57(%rbp)
LBB99_5:
	testb	$1, -57(%rbp)
	jne	LBB99_7
	.loc	37 588 9 is_stmt 1
	jmp	LBB99_1
LBB99_7:
	.loc	37 0 9 is_stmt 0
	movq	-88(%rbp), %rdi
	.loc	37 593 39 is_stmt 1
	callq	__ZN81_$LT$core..str..pattern..CharSearcher$u20$as$u20$core..str..pattern..Searcher$GT$8haystack17h282df4f483c068caE
	movq	%rax, %rcx
	movq	-88(%rbp), %rax
	movq	%rcx, -96(%rbp)
	movq	%rdx, %rcx
	movq	-96(%rbp), %rdx
	movq	%rdx, -32(%rbp)
	movq	%rcx, -24(%rbp)
	.loc	37 593 77 is_stmt 0
	movq	48(%rax), %rsi
	.loc	37 593 89
	movq	56(%rax), %rax
	.loc	37 593 77
	movq	%rsi, -56(%rbp)
	movq	%rax, -48(%rbp)
Ltmp642:
	.loc	26 511 20 is_stmt 1
	movq	-56(%rbp), %rdi
	movq	-48(%rbp), %rsi
	callq	__ZN4core3str6traits108_$LT$impl$u20$core..slice..index..SliceIndex$LT$str$GT$$u20$for$u20$core..ops..range..Range$LT$usize$GT$$GT$13get_unchecked17h8b9bf5c51739b2fbE
	.loc	26 511 18 is_stmt 0
	movq	%rax, -16(%rbp)
	movq	%rdx, -8(%rbp)
Ltmp643:
	.loc	37 594 24 is_stmt 1
	movq	%rax, -80(%rbp)
	movq	%rdx, -72(%rbp)
Ltmp644:
LBB99_8:
	.loc	37 599 6
	movq	-80(%rbp), %rax
	movq	-72(%rbp), %rdx
	addq	$96, %rsp
	popq	%rbp
	retq
Ltmp645:
Lfunc_end99:
	.cfi_endproc

	.p2align	4, 0x90
__ZN4core3str6traits108_$LT$impl$u20$core..slice..index..SliceIndex$LT$str$GT$$u20$for$u20$core..ops..range..Range$LT$usize$GT$$GT$13get_unchecked17h8b9bf5c51739b2fbE:
Lfunc_begin100:
	.file	38 "/rustc/2c8cc343237b8f7d5a3c3703e3a87f2eb2c54a74/library/core/src/str" "traits.rs"
	.loc	38 197 0
	.cfi_startproc
	pushq	%rbp
	.cfi_def_cfa_offset 16
	.cfi_offset %rbp, -16
	movq	%rsp, %rbp
	.cfi_def_cfa_register %rbp
	subq	$192, %rsp
	movq	%rdi, -160(%rbp)
	movq	%rsi, -152(%rbp)
	movq	%rdx, -144(%rbp)
	movq	%rcx, -136(%rbp)
Ltmp646:
	.loc	38 198 21 prologue_end
	movq	%rdx, -128(%rbp)
	movq	%rcx, -120(%rbp)
Ltmp647:
	.loc	38 201 28
	movq	%rdx, -112(%rbp)
	movq	%rcx, -104(%rbp)
Ltmp648:
	.loc	3 1650 9
	movq	%rdx, -96(%rbp)
Ltmp649:
	.loc	38 201 47
	movq	%rdi, -88(%rbp)
Ltmp650:
	.loc	3 932 18
	movq	%rdx, -80(%rbp)
	.loc	3 932 30 is_stmt 0
	movq	%rdi, -72(%rbp)
Ltmp651:
	.loc	3 473 18 is_stmt 1
	addq	%rdi, %rdx
	movq	%rdx, -64(%rbp)
	movq	-64(%rbp), %rax
	movq	%rax, -56(%rbp)
Ltmp652:
	.loc	38 202 19
	subq	%rdi, %rsi
	movq	%rsi, -48(%rbp)
Ltmp653:
	.loc	38 203 35
	movq	%rax, -40(%rbp)
	.loc	38 203 40 is_stmt 0
	movq	%rsi, -32(%rbp)
Ltmp654:
	.loc	4 734 20 is_stmt 1
	movq	%rax, -24(%rbp)
Ltmp655:
	.loc	3 61 9
	movq	%rax, -16(%rbp)
Ltmp656:
	.loc	4 734 33
	movq	%rsi, -8(%rbp)
Ltmp657:
	.loc	5 118 36
	movq	%rax, -176(%rbp)
	movq	%rsi, -168(%rbp)
	.loc	5 118 14 is_stmt 0
	movq	-176(%rbp), %rcx
	movq	-168(%rbp), %rax
	movq	%rcx, -192(%rbp)
	movq	%rax, -184(%rbp)
	movq	-192(%rbp), %rax
	movq	-184(%rbp), %rdx
Ltmp658:
	.loc	38 204 6 is_stmt 1
	addq	$192, %rsp
	popq	%rbp
	retq
Ltmp659:
Lfunc_end100:
	.cfi_endproc

	.p2align	4, 0x90
__ZN4core3str6traits112_$LT$impl$u20$core..slice..index..SliceIndex$LT$str$GT$$u20$for$u20$core..ops..range..RangeFrom$LT$usize$GT$$GT$13get_unchecked17h0d71506414c23dc5E:
Lfunc_begin101:
	.loc	38 349 0
	.cfi_startproc
	pushq	%rbp
	.cfi_def_cfa_offset 16
	.cfi_offset %rbp, -16
	movq	%rsp, %rbp
	.cfi_def_cfa_register %rbp
	subq	$232, %rsp
	movq	%rdi, -184(%rbp)
	movq	%rsi, -176(%rbp)
	movq	%rdx, -168(%rbp)
Ltmp660:
	.loc	38 350 21 prologue_end
	movq	%rsi, -160(%rbp)
	movq	%rdx, -152(%rbp)
Ltmp661:
	.loc	38 353 28
	movq	%rsi, -144(%rbp)
	movq	%rdx, -136(%rbp)
Ltmp662:
	.loc	3 1650 9
	movq	%rsi, -128(%rbp)
Ltmp663:
	.loc	38 353 47
	movq	%rdi, -120(%rbp)
Ltmp664:
	.loc	3 932 18
	movq	%rsi, -112(%rbp)
	.loc	3 932 30 is_stmt 0
	movq	%rdi, -104(%rbp)
Ltmp665:
	.loc	3 473 18 is_stmt 1
	movq	%rsi, %rax
	addq	%rdi, %rax
	movq	%rax, -96(%rbp)
	movq	-96(%rbp), %rcx
	movq	%rcx, -88(%rbp)
Ltmp666:
	.loc	38 354 19
	movq	%rsi, -80(%rbp)
	movq	%rdx, -72(%rbp)
Ltmp667:
	.loc	3 1630 18
	movq	%rsi, -64(%rbp)
	movq	%rdx, -56(%rbp)
Ltmp668:
	.loc	5 98 14
	movq	%rsi, -232(%rbp)
	movq	%rdx, -224(%rbp)
	movq	-224(%rbp), %rax
Ltmp669:
	.loc	38 354 19
	subq	%rdi, %rax
	movq	%rax, -48(%rbp)
Ltmp670:
	.loc	38 355 35
	movq	%rcx, -40(%rbp)
	.loc	38 355 40 is_stmt 0
	movq	%rax, -32(%rbp)
Ltmp671:
	.loc	4 734 20 is_stmt 1
	movq	%rcx, -24(%rbp)
Ltmp672:
	.loc	3 61 9
	movq	%rcx, -16(%rbp)
Ltmp673:
	.loc	4 734 33
	movq	%rax, -8(%rbp)
Ltmp674:
	.loc	5 118 36
	movq	%rcx, -200(%rbp)
	movq	%rax, -192(%rbp)
	.loc	5 118 14 is_stmt 0
	movq	-200(%rbp), %rcx
	movq	-192(%rbp), %rax
	movq	%rcx, -216(%rbp)
	movq	%rax, -208(%rbp)
	movq	-216(%rbp), %rax
	movq	-208(%rbp), %rdx
Ltmp675:
	.loc	38 356 6 is_stmt 1
	addq	$232, %rsp
	popq	%rbp
	retq
Ltmp676:
Lfunc_end101:
	.cfi_endproc

	.p2align	4, 0x90
__ZN4core3str6traits112_$LT$impl$u20$core..slice..index..SliceIndex$LT$str$GT$$u20$for$u20$core..ops..range..RangeFrom$LT$usize$GT$$GT$3get17h84bdfd04b39c17efE:
Lfunc_begin102:
	.loc	38 329 0
	.cfi_startproc
	pushq	%rbp
	.cfi_def_cfa_offset 16
	.cfi_offset %rbp, -16
	movq	%rsp, %rbp
	.cfi_def_cfa_register %rbp
	subq	$80, %rsp
	movq	%rdx, -80(%rbp)
	movq	%rsi, %rax
	movq	-80(%rbp), %rsi
	movq	%rax, -72(%rbp)
	movq	%rdi, %rdx
	movq	-72(%rbp), %rdi
	movq	%rdx, -64(%rbp)
	movq	%rdi, -56(%rbp)
	movq	%rsi, -48(%rbp)
	movq	%rdx, -24(%rbp)
	movq	%rdi, -16(%rbp)
	movq	%rsi, -8(%rbp)
Ltmp677:
	.loc	38 330 12 prologue_end
	callq	__ZN4core3str21_$LT$impl$u20$str$GT$16is_char_boundary17h835dfbea66d46dafE
	testb	$1, %al
	jne	LBB102_2
	.loc	38 335 13
	movq	$0, -40(%rbp)
	.loc	38 330 9
	jmp	LBB102_3
LBB102_2:
	.loc	38 0 9 is_stmt 0
	movq	-48(%rbp), %rdx
	movq	-56(%rbp), %rsi
	movq	-64(%rbp), %rdi
	.loc	38 333 29 is_stmt 1
	callq	__ZN4core3str6traits112_$LT$impl$u20$core..slice..index..SliceIndex$LT$str$GT$$u20$for$u20$core..ops..range..RangeFrom$LT$usize$GT$$GT$13get_unchecked17h0d71506414c23dc5E
	.loc	38 333 13 is_stmt 0
	movq	%rax, -40(%rbp)
	movq	%rdx, -32(%rbp)
LBB102_3:
	.loc	38 337 6 is_stmt 1
	movq	-40(%rbp), %rax
	movq	-32(%rbp), %rdx
	addq	$80, %rsp
	popq	%rbp
	retq
Ltmp678:
Lfunc_end102:
	.cfi_endproc

	.p2align	4, 0x90
__ZN4core3str6traits112_$LT$impl$u20$core..slice..index..SliceIndex$LT$str$GT$$u20$for$u20$core..ops..range..RangeFrom$LT$usize$GT$$GT$5index17hcf4e37cd02fef0a0E:
Lfunc_begin103:
	.loc	38 366 0
	.cfi_startproc
	pushq	%rbp
	.cfi_def_cfa_offset 16
	.cfi_offset %rbp, -16
	movq	%rsp, %rbp
	.cfi_def_cfa_register %rbp
	subq	$176, %rsp
	movq	%rsi, -176(%rbp)
	movq	%rdx, -168(%rbp)
	movq	%rcx, -160(%rbp)
	movq	%rdi, -104(%rbp)
	movq	%rsi, -96(%rbp)
	movq	%rdx, -88(%rbp)
Ltmp679:
	.loc	38 367 41 prologue_end
	movq	%rsi, -80(%rbp)
	movq	%rdx, -72(%rbp)
Ltmp680:
	.loc	26 160 9
	movq	%rsi, -64(%rbp)
	movq	%rdx, -56(%rbp)
Ltmp681:
	.loc	26 327 18
	movq	%rsi, -48(%rbp)
	movq	%rdx, -40(%rbp)
	movq	-40(%rbp), %rax
Ltmp682:
	.loc	38 367 28
	movq	%rdi, -136(%rbp)
	movq	%rax, -128(%rbp)
	.loc	38 367 14 is_stmt 0
	movq	-136(%rbp), %rax
	movq	%rax, -152(%rbp)
	movq	%rax, -32(%rbp)
	.loc	38 367 21
	movq	-128(%rbp), %rax
	movq	%rax, -144(%rbp)
	movq	%rax, -24(%rbp)
Ltmp683:
	.loc	38 368 15 is_stmt 1
	callq	__ZN4core3str6traits112_$LT$impl$u20$core..slice..index..SliceIndex$LT$str$GT$$u20$for$u20$core..ops..range..RangeFrom$LT$usize$GT$$GT$3get17h84bdfd04b39c17efE
	movq	%rdx, -112(%rbp)
	movq	%rax, -120(%rbp)
	movq	-120(%rbp), %rdx
	movl	$1, %eax
	xorl	%ecx, %ecx
	cmpq	$0, %rdx
	cmoveq	%rcx, %rax
	.loc	38 368 9 is_stmt 0
	cmpq	$0, %rax
	jne	LBB103_2
	.loc	38 0 9
	movq	-160(%rbp), %r8
	movq	-144(%rbp), %rcx
	movq	-152(%rbp), %rdx
	movq	-168(%rbp), %rsi
	movq	-176(%rbp), %rdi
	.loc	38 370 21 is_stmt 1
	callq	__ZN4core3str16slice_error_fail17h13b85bf03fb2869bE
LBB103_2:
	.loc	38 369 18
	movq	-120(%rbp), %rax
	movq	-112(%rbp), %rdx
	movq	%rax, -16(%rbp)
	movq	%rdx, -8(%rbp)
Ltmp684:
	.loc	38 372 6
	addq	$176, %rsp
	popq	%rbp
	retq
Ltmp685:
Lfunc_end103:
	.cfi_endproc

	.p2align	4, 0x90
__ZN4core3str6traits54_$LT$impl$u20$core..cmp..PartialEq$u20$for$u20$str$GT$2eq17hf80160c871fc4722E:
Lfunc_begin104:
	.loc	38 28 0
	.cfi_startproc
	pushq	%rbp
	.cfi_def_cfa_offset 16
	.cfi_offset %rbp, -16
	movq	%rsp, %rbp
	.cfi_def_cfa_register %rbp
	subq	$112, %rsp
	movq	%rdi, -80(%rbp)
	movq	%rsi, -72(%rbp)
	movq	%rdx, -64(%rbp)
	movq	%rcx, -56(%rbp)
Ltmp686:
	.loc	38 29 9 prologue_end
	movq	%rdi, -48(%rbp)
	movq	%rsi, -40(%rbp)
Ltmp687:
	.loc	26 327 18
	movq	%rdi, -112(%rbp)
	movq	%rsi, -104(%rbp)
Ltmp688:
	.loc	38 29 9
	leaq	-112(%rbp), %rax
	movq	%rax, -32(%rbp)
	.loc	38 29 28 is_stmt 0
	movq	%rdx, -24(%rbp)
	movq	%rcx, -16(%rbp)
Ltmp689:
	.loc	26 327 18 is_stmt 1
	movq	%rdx, -96(%rbp)
	movq	%rcx, -88(%rbp)
Ltmp690:
	.loc	38 29 28
	leaq	-96(%rbp), %rax
	movq	%rax, -8(%rbp)
Ltmp691:
	.loc	8 1531 27
	movq	-112(%rbp), %rdi
	movq	-104(%rbp), %rsi
	.loc	8 1531 34 is_stmt 0
	movq	-96(%rbp), %rdx
	movq	-88(%rbp), %rcx
	.loc	8 1531 13
	callq	__ZN4core5slice3cmp81_$LT$impl$u20$core..cmp..PartialEq$LT$$u5b$B$u5d$$GT$$u20$for$u20$$u5b$A$u5d$$GT$2eq17h783698f7480ca050E
Ltmp692:
	.loc	38 30 6 is_stmt 1
	andb	$1, %al
	movzbl	%al, %eax
	addq	$112, %rsp
	popq	%rbp
	retq
Ltmp693:
Lfunc_end104:
	.cfi_endproc

	.p2align	4, 0x90
__ZN4core3str6traits66_$LT$impl$u20$core..ops..index..Index$LT$I$GT$$u20$for$u20$str$GT$5index17h1d6cc4cccc9ef9deE:
Lfunc_begin105:
	.loc	38 64 0
	.cfi_startproc
	pushq	%rbp
	.cfi_def_cfa_offset 16
	.cfi_offset %rbp, -16
	movq	%rsp, %rbp
	.cfi_def_cfa_register %rbp
	subq	$32, %rsp
	movq	%rdx, -32(%rbp)
	movq	%rsi, %rdx
	movq	%rdi, %rsi
	movq	-32(%rbp), %rdi
	movq	%rsi, -24(%rbp)
	movq	%rdx, -16(%rbp)
	movq	%rdi, -8(%rbp)
Ltmp694:
	.loc	38 65 9 prologue_end
	callq	__ZN4core3str6traits112_$LT$impl$u20$core..slice..index..SliceIndex$LT$str$GT$$u20$for$u20$core..ops..range..RangeFrom$LT$usize$GT$$GT$5index17hcf4e37cd02fef0a0E
	.loc	38 66 6
	addq	$32, %rsp
	popq	%rbp
	retq
Ltmp695:
Lfunc_end105:
	.cfi_endproc

	.p2align	4, 0x90
__ZN4core3str7pattern13simd_contains17h497cb5a0f69198c7E:
Lfunc_begin106:
	.file	39 "/rustc/2c8cc343237b8f7d5a3c3703e3a87f2eb2c54a74/library/core/src/str" "pattern.rs"
	.loc	39 1732 0
	.cfi_startproc
	pushq	%rbp
	.cfi_def_cfa_offset 16
	.cfi_offset %rbp, -16
	movq	%rsp, %rbp
	.cfi_def_cfa_register %rbp
	subq	$864, %rsp
	movq	%rdi, -248(%rbp)
	movq	%rsi, -240(%rbp)
	movq	%rdx, -232(%rbp)
	movq	%rcx, -224(%rbp)
Ltmp696:
	.loc	39 1733 18 prologue_end
	movq	%rdi, -216(%rbp)
	movq	%rsi, -208(%rbp)
Ltmp697:
	.loc	26 327 18
	movq	%rdi, -760(%rbp)
	movq	%rsi, -752(%rbp)
Ltmp698:
	.loc	39 1734 20
	movq	%rdx, -200(%rbp)
	movq	%rcx, -192(%rbp)
Ltmp699:
	.loc	26 327 18
	movq	%rdx, -184(%rbp)
	movq	%rcx, -176(%rbp)
	movq	-184(%rbp), %rcx
	movq	%rcx, -792(%rbp)
	movq	-176(%rbp), %rax
	movq	%rax, -784(%rbp)
	movq	%rcx, -168(%rbp)
	movq	%rax, -160(%rbp)
Ltmp700:
	.loc	39 1743 23
	movq	-752(%rbp), %rcx
	movq	%rcx, -776(%rbp)
	xorl	%eax, %eax
	cmpq	%rcx, %rax
	setb	%al
	testb	$1, %al
	jne	LBB106_1
	jmp	LBB106_2
LBB106_1:
	movq	-760(%rbp), %rax
	movb	(%rax), %al
	movb	%al, -737(%rbp)
Ltmp701:
	.loc	39 1744 28
	movq	-752(%rbp), %rax
	subq	$1, %rax
	movq	%rax, -800(%rbp)
	movq	%rax, -152(%rbp)
Ltmp702:
	.loc	39 1747 34
	cmpq	$2, -752(%rbp)
	je	LBB106_3
	jmp	LBB106_4
Ltmp703:
LBB106_2:
	.loc	39 0 34 is_stmt 0
	movq	-776(%rbp), %rsi
	.loc	39 1743 23 is_stmt 1
	leaq	l___unnamed_13(%rip), %rdx
	xorl	%eax, %eax
	movl	%eax, %edi
	callq	__ZN4core9panicking18panic_bounds_check17hacb8a94866cda541E
LBB106_3:
Ltmp704:
	.loc	39 1750 9
	movq	$1, -736(%rbp)
	.loc	39 1747 31
	jmp	LBB106_11
LBB106_4:
	.loc	39 1753 42
	movq	-752(%rbp), %rax
	movq	%rax, -144(%rbp)
	xorl	%ecx, %ecx
Ltmp705:
	.loc	28 1070 13
	subq	$4, %rax
	cmovbq	%rcx, %rax
	movq	%rax, -136(%rbp)
	movq	-136(%rbp), %rcx
Ltmp706:
	.loc	39 1753 74
	movq	-752(%rbp), %rax
	.loc	39 1753 41 is_stmt 0
	movq	%rcx, -712(%rbp)
	movq	%rax, -704(%rbp)
	leaq	-712(%rbp), %rdi
	movq	%rdi, -128(%rbp)
	.loc	39 1753 94
	movq	-760(%rbp), %rcx
	movq	-752(%rbp), %rax
	movq	%rcx, -696(%rbp)
	movq	%rax, -688(%rbp)
	leaq	-737(%rbp), %rax
	movq	%rax, -680(%rbp)
Ltmp707:
	.file	40 "/rustc/2c8cc343237b8f7d5a3c3703e3a87f2eb2c54a74/library/core/src/iter/traits" "double_ended.rs"
	.loc	40 359 34 is_stmt 1
	movq	-680(%rbp), %rax
	movq	%rax, -272(%rbp)
	movq	-696(%rbp), %rax
	movq	-688(%rbp), %rcx
	movq	%rcx, -280(%rbp)
	movq	%rax, -288(%rbp)
Ltmp708:
	.loc	40 354 13
	movq	-272(%rbp), %rax
	movq	%rax, -296(%rbp)
	movq	-288(%rbp), %rax
	movq	-280(%rbp), %rcx
	movq	%rcx, -304(%rbp)
	movq	%rax, -312(%rbp)
	leaq	-312(%rbp), %rsi
Ltmp709:
	.loc	40 359 9
	callq	__ZN4core4iter6traits12double_ended19DoubleEndedIterator9try_rfold17hc3bd4a0b07280098E
	movq	%rdx, -320(%rbp)
	movq	%rax, -328(%rbp)
Ltmp710:
	.loc	1 184 9
	cmpq	$0, -328(%rbp)
	jne	LBB106_6
	.loc	1 185 42
	movq	$0, -728(%rbp)
	jmp	LBB106_7
LBB106_6:
	.loc	1 186 32
	movq	-320(%rbp), %rax
	movq	%rax, -120(%rbp)
Ltmp711:
	.loc	1 186 38 is_stmt 0
	movq	%rax, -720(%rbp)
	movq	$1, -728(%rbp)
Ltmp712:
LBB106_7:
	.loc	39 1753 13 is_stmt 1
	cmpq	$1, -728(%rbp)
	jne	LBB106_9
	.loc	39 1753 18 is_stmt 0
	movq	-720(%rbp), %rax
	movq	%rax, -112(%rbp)
Ltmp713:
	.loc	39 1758 9 is_stmt 1
	movq	%rax, -736(%rbp)
Ltmp714:
	.loc	39 1747 31
	jmp	LBB106_11
LBB106_9:
	.loc	39 1756 20
	movb	$2, -761(%rbp)
Ltmp715:
LBB106_10:
	.loc	39 1851 2
	jmp	LBB106_14
LBB106_11:
	.loc	39 0 2 is_stmt 0
	movq	-784(%rbp), %rax
	movq	-800(%rbp), %rcx
Ltmp716:
	.loc	39 1762 25 is_stmt 1
	addq	$16, %rcx
	.loc	39 1762 8 is_stmt 0
	cmpq	%rcx, %rax
	jb	LBB106_13
	.loc	39 1766 30 is_stmt 1
	leaq	-640(%rbp), %rdi
	movzbl	-737(%rbp), %esi
	callq	__ZN4core9core_simd6vector17Simd$LT$T$C$_$GT$5splat17h1d6810ab50bc54abE
Ltmp717:
	.loc	39 1767 51
	movq	-736(%rbp), %rax
	movq	%rax, -816(%rbp)
	.loc	39 1767 44 is_stmt 0
	movq	-752(%rbp), %rcx
	movq	%rcx, -808(%rbp)
	cmpq	%rcx, %rax
	setb	%al
	testb	$1, %al
	jne	LBB106_15
	jmp	LBB106_16
Ltmp718:
LBB106_13:
	.loc	39 0 44
	movq	-784(%rbp), %rdx
	movq	-792(%rbp), %rsi
	.loc	39 1763 38 is_stmt 1
	movq	-752(%rbp), %rcx
	.loc	39 1763 21 is_stmt 0
	leaq	-672(%rbp), %rdi
	callq	__ZN4core5slice29_$LT$impl$u20$$u5b$T$u5d$$GT$7windows17h2cafcc6bc20ceaccE
	leaq	-672(%rbp), %rax
	movq	%rax, -104(%rbp)
	.loc	39 1763 56
	leaq	-760(%rbp), %rax
	movq	%rax, -648(%rbp)
Ltmp719:
	.file	41 "/rustc/2c8cc343237b8f7d5a3c3703e3a87f2eb2c54a74/library/core/src/iter/traits" "iterator.rs"
	.loc	41 2661 33 is_stmt 1
	movq	-648(%rbp), %rax
	movq	%rax, -96(%rbp)
Ltmp720:
	.loc	41 2656 13
	movq	%rax, -256(%rbp)
Ltmp721:
	.loc	41 2661 9
	movq	-256(%rbp), %rsi
	leaq	-672(%rbp), %rdi
	callq	__ZN4core4iter6traits8iterator8Iterator8try_fold17hacf1c18f3d5ed086E
	andb	$1, %al
	movb	%al, -257(%rbp)
	leaq	-257(%rbp), %rdi
	leaq	l___unnamed_14(%rip), %rsi
	callq	__ZN90_$LT$core..ops..control_flow..ControlFlow$LT$B$C$C$GT$$u20$as$u20$core..cmp..PartialEq$GT$2eq17h5496266d38f6c183E
Ltmp722:
	.loc	39 1763 16
	andb	$1, %al
	movb	%al, -761(%rbp)
	.loc	34 1 1
	jmp	LBB106_10
Ltmp723:
LBB106_14:
	.loc	39 1851 2
	movb	-761(%rbp), %al
	addq	$864, %rsp
	popq	%rbp
	retq
LBB106_15:
	.loc	39 0 2 is_stmt 0
	movq	-816(%rbp), %rcx
Ltmp724:
	.loc	39 1767 44 is_stmt 1
	movq	-760(%rbp), %rax
	.loc	39 1767 31 is_stmt 0
	leaq	-624(%rbp), %rdi
	movzbl	(%rax,%rcx), %esi
	callq	__ZN4core9core_simd6vector17Simd$LT$T$C$_$GT$5splat17h1d6810ab50bc54abE
Ltmp725:
	.loc	39 1770 27 is_stmt 1
	movq	-760(%rbp), %rsi
	movq	-752(%rbp), %rdx
	movq	%rsi, -88(%rbp)
	movq	%rdx, -80(%rbp)
Ltmp726:
	.loc	2 18 9
	movl	$1, %edi
	leaq	l___unnamed_15(%rip), %rcx
	callq	__ZN110_$LT$core..ops..range..RangeFrom$LT$usize$GT$$u20$as$u20$core..slice..index..SliceIndex$LT$$u5b$T$u5d$$GT$$GT$5index17hc67d6c8feff8006dE
	movq	-792(%rbp), %rcx
	movq	%rax, %rsi
	movq	-784(%rbp), %rax
Ltmp727:
	.loc	39 1770 26
	movq	%rsi, -72(%rbp)
	movq	%rdx, -64(%rbp)
Ltmp728:
	.loc	39 1774 5
	movq	%rcx, -600(%rbp)
	movq	%rax, -592(%rbp)
	movq	%rsi, -584(%rbp)
	movq	%rdx, -576(%rbp)
Ltmp729:
	.loc	39 1798 22
	movq	%rcx, -568(%rbp)
	movq	%rax, -560(%rbp)
	leaq	-736(%rbp), %rax
	movq	%rax, -552(%rbp)
	leaq	-640(%rbp), %rax
	movq	%rax, -544(%rbp)
	leaq	-624(%rbp), %rax
	movq	%rax, -536(%rbp)
Ltmp730:
	.loc	39 1814 17
	movq	$0, -528(%rbp)
Ltmp731:
	.loc	39 1815 22
	movb	$0, -514(%rbp)
Ltmp732:
	.loc	39 1819 5
	jmp	LBB106_17
Ltmp733:
LBB106_16:
	.loc	39 0 5 is_stmt 0
	movq	-808(%rbp), %rsi
	movq	-816(%rbp), %rdi
	.loc	39 1767 44 is_stmt 1
	leaq	l___unnamed_16(%rip), %rdx
	callq	__ZN4core9panicking18panic_bounds_check17hacb8a94866cda541E
LBB106_17:
	.loc	39 0 44 is_stmt 0
	movq	-784(%rbp), %rcx
	movq	-800(%rbp), %rax
Ltmp734:
	.loc	39 1819 11 is_stmt 1
	addq	-528(%rbp), %rax
	addq	$64, %rax
	cmpq	%rcx, %rax
	jb	LBB106_19
	movb	$0, -513(%rbp)
	jmp	LBB106_20
LBB106_19:
	.loc	39 1819 77 is_stmt 0
	movb	-514(%rbp), %al
	.loc	39 1819 76
	xorb	$-1, %al
	.loc	39 1819 11
	andb	$1, %al
	movb	%al, -513(%rbp)
LBB106_20:
	testb	$1, -513(%rbp)
	jne	LBB106_22
	.loc	39 1832 5 is_stmt 1
	jmp	LBB106_35
LBB106_22:
	.loc	39 1820 25
	leaq	-512(%rbp), %rdi
	xorl	%esi, %esi
	movl	$8, %edx
	callq	_memset
Ltmp735:
	.loc	39 1821 18
	movq	$0, -504(%rbp)
	movq	$4, -496(%rbp)
Ltmp736:
	.file	42 "/rustc/2c8cc343237b8f7d5a3c3703e3a87f2eb2c54a74/library/core/src/iter/traits" "collect.rs"
	.loc	42 273 9
	movq	-504(%rbp), %rcx
	movq	-496(%rbp), %rax
Ltmp737:
	.loc	39 1821 18
	movq	%rcx, -488(%rbp)
	movq	%rax, -480(%rbp)
LBB106_23:
	.loc	39 0 18 is_stmt 0
	leaq	-488(%rbp), %rdi
Ltmp738:
	.loc	39 1821 18
	movq	%rdi, -56(%rbp)
Ltmp739:
	.loc	27 711 9 is_stmt 1
	callq	__ZN89_$LT$core..ops..range..Range$LT$T$GT$$u20$as$u20$core..iter..range..RangeIteratorImpl$GT$9spec_next17hc53fa2f5beb1b065E
	movq	%rdx, -464(%rbp)
	movq	%rax, -472(%rbp)
Ltmp740:
	.loc	39 1821 18
	cmpq	$0, -472(%rbp)
	jne	LBB106_25
Ltmp741:
	.loc	39 1824 18
	movq	$0, -448(%rbp)
	movq	$4, -440(%rbp)
Ltmp742:
	.loc	42 273 9
	movq	-448(%rbp), %rcx
	movq	-440(%rbp), %rax
Ltmp743:
	.loc	39 1824 18
	movq	%rcx, -432(%rbp)
	movq	%rax, -424(%rbp)
Ltmp744:
	.loc	39 1824 9 is_stmt 0
	jmp	LBB106_28
Ltmp745:
LBB106_25:
	.loc	39 1821 13 is_stmt 1
	movq	-464(%rbp), %rcx
	movq	%rcx, -832(%rbp)
	movq	%rcx, -48(%rbp)
Ltmp746:
	.loc	39 1822 35
	movq	-528(%rbp), %rax
	.loc	39 1822 39 is_stmt 0
	shlq	$4, %rcx
	.loc	39 1822 35
	addq	%rcx, %rax
	.loc	39 1822 24
	movq	%rax, -456(%rbp)
	movq	-456(%rbp), %rsi
	leaq	-568(%rbp), %rdi
	callq	__ZN4core3str7pattern13simd_contains28_$u7b$$u7b$closure$u7d$$u7d$17hfec81308990de322E
	movw	%ax, %cx
	movq	-832(%rbp), %rax
	movw	%cx, -818(%rbp)
	.loc	39 1822 13
	cmpq	$4, %rax
	setb	%al
	testb	$1, %al
	jne	LBB106_26
	jmp	LBB106_27
LBB106_26:
	.loc	39 0 13
	movq	-832(%rbp), %rax
	movw	-818(%rbp), %cx
	.loc	39 1822 13
	movw	%cx, -512(%rbp,%rax,2)
Ltmp747:
	.loc	39 1821 9 is_stmt 1
	jmp	LBB106_23
LBB106_27:
	.loc	39 0 9 is_stmt 0
	movq	-832(%rbp), %rdi
Ltmp748:
	.loc	39 1822 13 is_stmt 1
	leaq	l___unnamed_17(%rip), %rdx
	movl	$4, %esi
	callq	__ZN4core9panicking18panic_bounds_check17hacb8a94866cda541E
Ltmp749:
LBB106_28:
	.loc	39 0 13 is_stmt 0
	leaq	-432(%rbp), %rdi
Ltmp750:
	.loc	39 1824 18 is_stmt 1
	movq	%rdi, -40(%rbp)
Ltmp751:
	.loc	27 711 9
	callq	__ZN89_$LT$core..ops..range..Range$LT$T$GT$$u20$as$u20$core..iter..range..RangeIteratorImpl$GT$9spec_next17hc53fa2f5beb1b065E
	movq	%rdx, -408(%rbp)
	movq	%rax, -416(%rbp)
Ltmp752:
	.loc	39 1824 18
	cmpq	$0, -416(%rbp)
	jne	LBB106_30
Ltmp753:
	.loc	39 1830 9
	movq	-528(%rbp), %rax
	addq	$64, %rax
	movq	%rax, -528(%rbp)
Ltmp754:
	.loc	39 1819 5
	jmp	LBB106_17
LBB106_30:
Ltmp755:
	.loc	39 1824 13
	movq	-408(%rbp), %rax
	movq	%rax, -840(%rbp)
	movq	%rax, -32(%rbp)
Ltmp756:
	.loc	39 1825 24
	cmpq	$4, %rax
	setb	%al
	testb	$1, %al
	jne	LBB106_31
	jmp	LBB106_32
LBB106_31:
	.loc	39 0 24 is_stmt 0
	movq	-840(%rbp), %rax
	.loc	39 1825 24
	movw	-512(%rbp,%rax,2), %ax
	movw	%ax, -842(%rbp)
	movw	%ax, -20(%rbp)
Ltmp757:
	.loc	39 1826 16 is_stmt 1
	cmpw	$0, %ax
	je	LBB106_33
	jmp	LBB106_34
Ltmp758:
LBB106_32:
	.loc	39 0 16 is_stmt 0
	movq	-840(%rbp), %rdi
	.loc	39 1825 24 is_stmt 1
	leaq	l___unnamed_18(%rip), %rdx
	movl	$4, %esi
	callq	__ZN4core9panicking18panic_bounds_check17hacb8a94866cda541E
Ltmp759:
LBB106_33:
	.loc	39 1824 9
	jmp	LBB106_28
LBB106_34:
	.loc	39 0 9 is_stmt 0
	movw	-842(%rbp), %cx
	movq	-840(%rbp), %rax
Ltmp760:
	.loc	39 1827 38 is_stmt 1
	movq	-528(%rbp), %rdx
	.loc	39 1827 42 is_stmt 0
	shlq	$4, %rax
	.loc	39 1827 38
	addq	%rax, %rdx
	.loc	39 1827 66
	movb	-514(%rbp), %al
	.loc	39 1827 27
	movq	%rdx, -400(%rbp)
	movw	%cx, -392(%rbp)
	andb	$1, %al
	movb	%al, -390(%rbp)
	movq	-400(%rbp), %rsi
	movw	-392(%rbp), %cx
	movb	-390(%rbp), %al
	leaq	-600(%rbp), %rdi
	andb	$1, %al
	movzwl	%cx, %edx
	movzbl	%al, %ecx
	callq	__ZN4core3str7pattern13simd_contains28_$u7b$$u7b$closure$u7d$$u7d$17h1da302eb54f891d2E
	movb	%al, %cl
	.loc	39 1827 17
	movb	-514(%rbp), %al
	orb	%cl, %al
	andb	$1, %al
	movb	%al, -514(%rbp)
	.loc	39 1826 13 is_stmt 1
	jmp	LBB106_33
Ltmp761:
LBB106_35:
	.loc	39 0 13 is_stmt 0
	movq	-784(%rbp), %rcx
	movq	-800(%rbp), %rax
	.loc	39 1832 11 is_stmt 1
	addq	-528(%rbp), %rax
	addq	$16, %rax
	cmpq	%rcx, %rax
	jb	LBB106_37
	movb	$0, -377(%rbp)
	jmp	LBB106_38
LBB106_37:
	.loc	39 1832 68 is_stmt 0
	movb	-514(%rbp), %al
	.loc	39 1832 67
	xorb	$-1, %al
	.loc	39 1832 11
	andb	$1, %al
	movb	%al, -377(%rbp)
LBB106_38:
	testb	$1, -377(%rbp)
	jne	LBB106_40
	.loc	39 0 11
	movq	-800(%rbp), %rcx
	movq	-784(%rbp), %rax
	.loc	39 1844 13 is_stmt 1
	subq	%rcx, %rax
	subq	$16, %rax
	movq	%rax, -856(%rbp)
	movq	%rax, -16(%rbp)
Ltmp762:
	.loc	39 1845 16
	movq	%rax, -352(%rbp)
	movq	-352(%rbp), %rsi
	leaq	-568(%rbp), %rdi
	callq	__ZN4core3str7pattern13simd_contains28_$u7b$$u7b$closure$u7d$$u7d$17hfec81308990de322E
	movw	%ax, -844(%rbp)
	movw	%ax, -2(%rbp)
Ltmp763:
	.loc	39 1846 8
	cmpw	$0, %ax
	je	LBB106_43
	jmp	LBB106_44
Ltmp764:
LBB106_40:
	.loc	39 1833 31
	movq	-528(%rbp), %rax
	.loc	39 1833 20 is_stmt 0
	movq	%rax, -376(%rbp)
	movq	-376(%rbp), %rsi
	leaq	-568(%rbp), %rdi
	callq	__ZN4core3str7pattern13simd_contains28_$u7b$$u7b$closure$u7d$$u7d$17hfec81308990de322E
	movw	%ax, -858(%rbp)
	movw	%ax, -18(%rbp)
Ltmp765:
	.loc	39 1834 12 is_stmt 1
	cmpw	$0, %ax
	jne	LBB106_42
LBB106_41:
	.loc	39 1837 9
	movq	-528(%rbp), %rax
	addq	$16, %rax
	movq	%rax, -528(%rbp)
Ltmp766:
	.loc	39 1832 5
	jmp	LBB106_35
LBB106_42:
	.loc	39 0 5 is_stmt 0
	movw	-858(%rbp), %cx
Ltmp767:
	.loc	39 1835 34 is_stmt 1
	movq	-528(%rbp), %rdx
	.loc	39 1835 43 is_stmt 0
	movb	-514(%rbp), %al
	.loc	39 1835 23
	movq	%rdx, -368(%rbp)
	movw	%cx, -360(%rbp)
	andb	$1, %al
	movb	%al, -358(%rbp)
	movq	-368(%rbp), %rsi
	movw	-360(%rbp), %cx
	movb	-358(%rbp), %al
	leaq	-600(%rbp), %rdi
	andb	$1, %al
	movzwl	%cx, %edx
	movzbl	%al, %ecx
	callq	__ZN4core3str7pattern13simd_contains28_$u7b$$u7b$closure$u7d$$u7d$17h1da302eb54f891d2E
	movb	%al, %cl
	.loc	39 1835 13
	movb	-514(%rbp), %al
	orb	%cl, %al
	andb	$1, %al
	movb	%al, -514(%rbp)
	.loc	39 1834 9 is_stmt 1
	jmp	LBB106_41
Ltmp768:
LBB106_43:
	.loc	39 1850 10
	movb	-514(%rbp), %al
	.loc	39 1850 5 is_stmt 0
	andb	$1, %al
	movb	%al, -761(%rbp)
Ltmp769:
	.loc	39 1851 2 is_stmt 1
	jmp	LBB106_14
LBB106_44:
	.loc	39 0 2 is_stmt 0
	movw	-844(%rbp), %cx
	movq	-856(%rbp), %rdx
Ltmp770:
	.loc	39 1847 39 is_stmt 1
	movb	-514(%rbp), %al
	.loc	39 1847 19 is_stmt 0
	movq	%rdx, -344(%rbp)
	movw	%cx, -336(%rbp)
	andb	$1, %al
	movb	%al, -334(%rbp)
	movq	-344(%rbp), %rsi
	movw	-336(%rbp), %cx
	movb	-334(%rbp), %al
	leaq	-600(%rbp), %rdi
	andb	$1, %al
	movzwl	%cx, %edx
	movzbl	%al, %ecx
	callq	__ZN4core3str7pattern13simd_contains28_$u7b$$u7b$closure$u7d$$u7d$17h1da302eb54f891d2E
	movb	%al, %cl
	.loc	39 1847 9
	movb	-514(%rbp), %al
	orb	%cl, %al
	andb	$1, %al
	movb	%al, -514(%rbp)
	.loc	39 1846 5 is_stmt 1
	jmp	LBB106_43
Ltmp771:
Lfunc_end106:
	.cfi_endproc

	.p2align	4, 0x90
__ZN4core3str7pattern13simd_contains28_$u7b$$u7b$closure$u7d$$u7d$17h1da302eb54f891d2E:
Lfunc_begin107:
	.loc	39 1774 0
	.cfi_startproc
	pushq	%rbp
	.cfi_def_cfa_offset 16
	.cfi_offset %rbp, -16
	movq	%rsp, %rbp
	.cfi_def_cfa_register %rbp
	subq	$272, %rsp
	movq	%rsi, -256(%rbp)
	movq	%rdi, -248(%rbp)
	movb	%cl, %al
	movw	%dx, %cx
	movw	%cx, -238(%rbp)
	movq	%rdi, -168(%rbp)
	movq	%rsi, -160(%rbp)
	movw	%cx, -148(%rbp)
	movb	%al, %cl
	andb	$1, %cl
	movb	%cl, -145(%rbp)
Ltmp772:
	.loc	39 1775 12 prologue_end
	testb	$1, %al
	jne	LBB107_2
	.loc	39 0 12 is_stmt 0
	movw	-238(%rbp), %ax
	.loc	39 1780 24 is_stmt 1
	movw	%ax, -234(%rbp)
Ltmp773:
	.loc	39 1782 9
	jmp	LBB107_4
Ltmp774:
LBB107_2:
	.loc	39 1776 20
	movb	$0, -235(%rbp)
LBB107_3:
	.loc	39 1796 6
	movb	-235(%rbp), %al
	andb	$1, %al
	movzbl	%al, %eax
	addq	$272, %rsp
	popq	%rbp
	retq
LBB107_4:
Ltmp775:
	.loc	39 1782 15
	cmpw	$0, -234(%rbp)
	jne	LBB107_6
	.loc	39 1795 16
	movb	$0, -235(%rbp)
	.loc	39 1795 9 is_stmt 0
	jmp	LBB107_9
LBB107_6:
	.loc	39 0 9
	movq	-248(%rbp), %rcx
	movq	-256(%rbp), %rax
	.loc	39 1783 28 is_stmt 1
	movw	-234(%rbp), %dx
	movw	%dx, -144(%rbp)
Ltmp776:
	.loc	28 152 13
	bsfw	%dx, %dx
	movw	$16, %si
	cmovew	%si, %dx
	movw	%dx, -142(%rbp)
	movzwl	-142(%rbp), %edx
	movl	%edx, -268(%rbp)
	movl	%edx, -140(%rbp)
Ltmp777:
	.loc	39 1784 32
	movl	%edx, %edx
	.loc	39 1784 26 is_stmt 0
	addq	%rdx, %rax
	addq	$1, %rax
	movq	%rax, -136(%rbp)
Ltmp778:
	.loc	39 1788 27 is_stmt 1
	movq	(%rcx), %rdx
	movq	8(%rcx), %rcx
	movq	%rdx, -128(%rbp)
	movq	%rcx, -120(%rbp)
	.loc	39 1788 50 is_stmt 0
	movq	%rax, -232(%rbp)
Ltmp779:
	.loc	35 405 20 is_stmt 1
	movq	-232(%rbp), %rsi
	movq	%rsi, -112(%rbp)
	.loc	35 405 40 is_stmt 0
	movq	%rdx, -104(%rbp)
	movq	%rcx, -96(%rbp)
Ltmp780:
	.loc	2 483 31 is_stmt 1
	movq	%rdx, -88(%rbp)
	movq	%rcx, -80(%rbp)
Ltmp781:
	.loc	3 1630 18
	movq	%rdx, -72(%rbp)
	movq	%rcx, -64(%rbp)
Ltmp782:
	.loc	5 98 14
	movq	%rdx, -200(%rbp)
	movq	%rcx, -192(%rbp)
	movq	-192(%rbp), %rax
Ltmp783:
	.loc	2 483 18
	movq	%rsi, -216(%rbp)
	movq	%rax, -208(%rbp)
	movq	-216(%rbp), %rdi
	movq	-208(%rbp), %rsi
	callq	__ZN106_$LT$core..ops..range..Range$LT$usize$GT$$u20$as$u20$core..slice..index..SliceIndex$LT$$u5b$T$u5d$$GT$$GT$13get_unchecked17h9041466736f7eb55E
	movq	%rax, %rcx
	movq	-248(%rbp), %rax
	movq	%rcx, -264(%rbp)
	movq	%rdx, %rcx
	movq	-264(%rbp), %rdx
Ltmp784:
	.loc	39 1788 27
	movq	%rdx, -56(%rbp)
	movq	%rcx, -48(%rbp)
	.loc	39 1788 76 is_stmt 0
	movq	24(%rax), %rax
	.loc	39 1788 74
	movq	%rax, -224(%rbp)
Ltmp785:
	.loc	35 405 20 is_stmt 1
	movq	-224(%rbp), %rax
	movq	%rax, -40(%rbp)
	.loc	35 405 40 is_stmt 0
	movq	%rdx, -32(%rbp)
	movq	%rcx, -24(%rbp)
Ltmp786:
	.loc	2 445 18 is_stmt 1
	movq	$0, -184(%rbp)
	movq	%rax, -176(%rbp)
	movq	-184(%rbp), %rdi
	movq	-176(%rbp), %rsi
	callq	__ZN106_$LT$core..ops..range..Range$LT$usize$GT$$u20$as$u20$core..slice..index..SliceIndex$LT$$u5b$T$u5d$$GT$$GT$13get_unchecked17h9041466736f7eb55E
	movq	%rax, %rdi
	movq	-248(%rbp), %rax
	movq	%rdx, %rsi
Ltmp787:
	.loc	35 405 18
	movq	%rdi, -16(%rbp)
	movq	%rsi, -8(%rbp)
Ltmp788:
	.loc	39 1789 40
	movq	16(%rax), %rdx
	movq	24(%rax), %rcx
	.loc	39 1789 20 is_stmt 0
	callq	__ZN4core3str7pattern14small_slice_eq17h81e80e8504a33b34E
	testb	$1, %al
	jne	LBB107_8
Ltmp789:
	.loc	39 0 20
	movl	-268(%rbp), %eax
	.loc	39 1793 22 is_stmt 1
	movw	%ax, %cx
	andw	$15, %cx
	movw	$1, %ax
	shlw	%cl, %ax
	.loc	39 1793 21 is_stmt 0
	xorw	$-1, %ax
	.loc	39 1793 13
	andw	-234(%rbp), %ax
	movw	%ax, -234(%rbp)
Ltmp790:
	.loc	39 1782 9 is_stmt 1
	jmp	LBB107_4
LBB107_8:
Ltmp791:
	.loc	39 1790 28
	movb	$1, -235(%rbp)
Ltmp792:
LBB107_9:
	.loc	34 1 1
	jmp	LBB107_3
Ltmp793:
Lfunc_end107:
	.cfi_endproc

	.p2align	4, 0x90
__ZN4core3str7pattern13simd_contains28_$u7b$$u7b$closure$u7d$$u7d$17h5edfa62f811505e5E:
Lfunc_begin108:
	.loc	39 1753 0
	.cfi_startproc
	pushq	%rbp
	.cfi_def_cfa_offset 16
	.cfi_offset %rbp, -16
	movq	%rsp, %rbp
	.cfi_def_cfa_register %rbp
	subq	$48, %rsp
	movq	%rdi, -48(%rbp)
	movq	%rdi, -24(%rbp)
	movq	%rsi, -16(%rbp)
Ltmp794:
	.loc	39 1753 96 prologue_end
	movq	(%rsi), %rax
	movq	%rax, -40(%rbp)
	movq	%rax, -8(%rbp)
Ltmp795:
	.loc	39 1753 101 is_stmt 0
	movq	8(%rdi), %rcx
	movq	%rcx, -32(%rbp)
	cmpq	%rcx, %rax
	setb	%al
	testb	$1, %al
	jne	LBB108_1
	jmp	LBB108_2
LBB108_1:
	.loc	39 0 101
	movq	-48(%rbp), %rcx
	movq	-40(%rbp), %rdx
	.loc	39 1753 101
	movq	(%rcx), %rax
	movb	(%rax,%rdx), %al
	.loc	39 1753 116
	movq	16(%rcx), %rcx
	.loc	39 1753 101
	cmpb	(%rcx), %al
	setne	%al
Ltmp796:
	.loc	39 1753 127
	andb	$1, %al
	movzbl	%al, %eax
	addq	$48, %rsp
	popq	%rbp
	retq
LBB108_2:
	.loc	39 0 127
	movq	-32(%rbp), %rsi
	movq	-40(%rbp), %rdi
Ltmp797:
	.loc	39 1753 101
	leaq	l___unnamed_19(%rip), %rdx
	callq	__ZN4core9panicking18panic_bounds_check17hacb8a94866cda541E
Ltmp798:
Lfunc_end108:
	.cfi_endproc

	.p2align	4, 0x90
__ZN4core3str7pattern13simd_contains28_$u7b$$u7b$closure$u7d$$u7d$17hb42c8a0f7e27d126E:
Lfunc_begin109:
	.loc	39 1763 0 is_stmt 1
	.cfi_startproc
	pushq	%rbp
	.cfi_def_cfa_offset 16
	.cfi_offset %rbp, -16
	movq	%rsp, %rbp
	.cfi_def_cfa_register %rbp
	subq	$48, %rsp
	movq	%rsi, -40(%rbp)
	movq	%rdx, -32(%rbp)
	movq	%rdi, -24(%rbp)
Ltmp799:
	.loc	39 1763 60 prologue_end
	leaq	-40(%rbp), %rax
	movq	%rax, -16(%rbp)
	.loc	39 1763 65 is_stmt 0
	movq	(%rdi), %rax
	movq	%rax, -8(%rbp)
Ltmp800:
	.loc	8 1531 27 is_stmt 1
	movq	-40(%rbp), %rdi
	movq	-32(%rbp), %rsi
	.loc	8 1531 34 is_stmt 0
	movq	(%rax), %rdx
	movq	8(%rax), %rcx
	.loc	8 1531 13
	callq	__ZN4core5slice3cmp81_$LT$impl$u20$core..cmp..PartialEq$LT$$u5b$B$u5d$$GT$$u20$for$u20$$u5b$A$u5d$$GT$2eq17h783698f7480ca050E
Ltmp801:
	.loc	39 1763 71 is_stmt 1
	andb	$1, %al
	movzbl	%al, %eax
	addq	$48, %rsp
	popq	%rbp
	retq
Ltmp802:
Lfunc_end109:
	.cfi_endproc

	.p2align	4, 0x90
__ZN4core3str7pattern13simd_contains28_$u7b$$u7b$closure$u7d$$u7d$17hfec81308990de322E:
Lfunc_begin110:
	.loc	39 1798 0
	.cfi_startproc
	pushq	%rbp
	.cfi_def_cfa_offset 16
	.cfi_offset %rbp, -16
	movq	%rsp, %rbp
	.cfi_def_cfa_register %rbp
	subq	$768, %rsp
	movq	%rdi, -632(%rbp)
	movq	%rsi, -624(%rbp)
Ltmp803:
	.loc	39 1801 33 prologue_end
	movq	(%rdi), %rax
	movq	8(%rdi), %rcx
	movq	%rax, -616(%rbp)
	movq	%rcx, -608(%rbp)
Ltmp804:
	.loc	35 477 9
	movq	%rax, -600(%rbp)
Ltmp805:
	.loc	39 1801 55
	movq	%rsi, -592(%rbp)
Ltmp806:
	.loc	3 932 18
	movq	%rax, -584(%rbp)
	.loc	3 932 30 is_stmt 0
	movq	%rsi, -576(%rbp)
Ltmp807:
	.loc	3 473 18 is_stmt 1
	addq	%rsi, %rax
	movq	%rax, -568(%rbp)
	movq	-568(%rbp), %rcx
	movq	%rcx, -560(%rbp)
Ltmp808:
	.loc	3 61 9
	movq	%rcx, -552(%rbp)
Ltmp809:
	.loc	3 1257 33
	movq	%rcx, -544(%rbp)
Ltmp810:
	.loc	4 1250 29
	movq	%rcx, -536(%rbp)
	leaq	-720(%rbp), %rax
	.loc	4 1250 47 is_stmt 0
	movq	%rax, -528(%rbp)
	movq	%rax, -520(%rbp)
Ltmp811:
	.file	43 "/rustc/2c8cc343237b8f7d5a3c3703e3a87f2eb2c54a74/library/core/src" "intrinsics.rs"
	.loc	43 2372 9 is_stmt 1
	movq	(%rcx), %rax
	movq	8(%rcx), %rcx
	movq	%rcx, -712(%rbp)
	movq	%rax, -720(%rbp)
Ltmp812:
	.loc	4 1251 9
	movaps	-720(%rbp), %xmm1
	movaps	%xmm1, -512(%rbp)
Ltmp813:
	.loc	30 627 38
	movaps	%xmm1, -496(%rbp)
Ltmp814:
	.loc	13 89 9
	movaps	%xmm1, -480(%rbp)
Ltmp815:
	.loc	39 1804 13
	movq	(%rdi), %rax
	movq	8(%rdi), %rcx
	movq	%rax, -464(%rbp)
	movq	%rcx, -456(%rbp)
Ltmp816:
	.loc	35 477 9
	movq	%rax, -448(%rbp)
Ltmp817:
	.loc	39 1804 35
	movq	%rsi, -440(%rbp)
Ltmp818:
	.loc	3 932 18
	movq	%rax, -432(%rbp)
	.loc	3 932 30 is_stmt 0
	movq	%rsi, -424(%rbp)
Ltmp819:
	.loc	3 473 18 is_stmt 1
	addq	%rsi, %rax
	movq	%rax, -416(%rbp)
	movq	-416(%rbp), %rax
	movq	%rax, -408(%rbp)
Ltmp820:
	.loc	39 1804 44
	movq	16(%rdi), %rcx
	movq	(%rcx), %rcx
	movq	%rcx, -400(%rbp)
Ltmp821:
	.loc	3 932 18
	movq	%rax, -392(%rbp)
	.loc	3 932 30 is_stmt 0
	movq	%rcx, -384(%rbp)
Ltmp822:
	.loc	3 473 18 is_stmt 1
	addq	%rcx, %rax
	movq	%rax, -376(%rbp)
	movq	-376(%rbp), %rcx
	movq	%rcx, -368(%rbp)
Ltmp823:
	.loc	3 61 9
	movq	%rcx, -360(%rbp)
Ltmp824:
	.loc	3 1257 33
	movq	%rcx, -352(%rbp)
Ltmp825:
	.loc	4 1250 29
	movq	%rcx, -344(%rbp)
	leaq	-704(%rbp), %rax
	.loc	4 1250 47 is_stmt 0
	movq	%rax, -336(%rbp)
	movq	%rax, -328(%rbp)
Ltmp826:
	.loc	43 2372 9 is_stmt 1
	movq	(%rcx), %rax
	movq	8(%rcx), %rcx
	movq	%rcx, -696(%rbp)
	movq	%rax, -704(%rbp)
Ltmp827:
	.loc	4 1251 9
	movaps	-704(%rbp), %xmm0
	movaps	%xmm0, -320(%rbp)
Ltmp828:
	.loc	30 627 38
	movaps	%xmm0, -304(%rbp)
Ltmp829:
	.loc	13 89 9
	movaps	%xmm0, -288(%rbp)
Ltmp830:
	.loc	39 1806 30
	movaps	%xmm1, -272(%rbp)
	.loc	39 1806 40 is_stmt 0
	movq	24(%rdi), %rax
	movaps	(%rax), %xmm2
	movaps	%xmm2, -256(%rbp)
Ltmp831:
	.file	44 "/rustc/2c8cc343237b8f7d5a3c3703e3a87f2eb2c54a74/library/core/src/../../portable-simd/crates/core_simd/src" "eq.rs"
	.loc	44 30 51 is_stmt 1
	pcmpeqb	%xmm2, %xmm1
	movaps	%xmm1, -240(%rbp)
	movaps	-240(%rbp), %xmm1
	movaps	%xmm1, -224(%rbp)
Ltmp832:
	.file	45 "/rustc/2c8cc343237b8f7d5a3c3703e3a87f2eb2c54a74/library/core/src/../../portable-simd/crates/core_simd/src" "masks.rs"
	.loc	45 164 59
	movaps	%xmm1, -208(%rbp)
Ltmp833:
	.loc	10 132 9
	movaps	%xmm1, -688(%rbp)
Ltmp834:
	.loc	45 164 18
	movaps	-688(%rbp), %xmm1
	movaps	%xmm1, -768(%rbp)
Ltmp835:
	.loc	39 1807 29
	movaps	%xmm0, -192(%rbp)
	.loc	39 1807 39 is_stmt 0
	movq	32(%rdi), %rax
	movaps	(%rax), %xmm1
	movaps	%xmm1, -176(%rbp)
Ltmp836:
	.loc	44 30 51 is_stmt 1
	pcmpeqb	%xmm1, %xmm0
	movdqa	%xmm0, -160(%rbp)
	movdqa	-160(%rbp), %xmm0
	movdqa	%xmm0, -144(%rbp)
Ltmp837:
	.loc	45 164 59
	movdqa	%xmm0, -128(%rbp)
Ltmp838:
	.loc	10 132 9
	movdqa	%xmm0, -672(%rbp)
Ltmp839:
	.loc	45 164 18
	movdqa	-672(%rbp), %xmm0
	movdqa	%xmm0, -752(%rbp)
Ltmp840:
	.loc	39 1808 20
	movdqa	-768(%rbp), %xmm0
	movdqa	%xmm0, -112(%rbp)
	.loc	39 1808 36 is_stmt 0
	movdqa	-752(%rbp), %xmm1
	movdqa	%xmm1, -96(%rbp)
Ltmp841:
	.loc	45 336 14 is_stmt 1
	movdqa	%xmm0, -80(%rbp)
	.loc	45 336 23 is_stmt 0
	movdqa	%xmm1, -64(%rbp)
Ltmp842:
	.loc	10 280 23 is_stmt 1
	pand	%xmm1, %xmm0
	movdqa	%xmm0, -48(%rbp)
	movdqa	-48(%rbp), %xmm0
	.loc	10 280 18 is_stmt 0
	movdqa	%xmm0, -656(%rbp)
Ltmp843:
	.loc	45 336 9 is_stmt 1
	movdqa	-656(%rbp), %xmm0
	movdqa	%xmm0, -736(%rbp)
Ltmp844:
	.loc	39 1809 20
	movdqa	-736(%rbp), %xmm0
	movdqa	%xmm0, -32(%rbp)
	leaq	-32(%rbp), %rdi
	callq	__ZN114_$LT$core..core_simd..masks..Mask$LT$T$C$16_usize$GT$$u20$as$u20$core..core_simd..masks..to_bitmask..ToBitMask$GT$10to_bitmask17h511dc7a7339e212dE
	movw	%ax, -2(%rbp)
Ltmp845:
	.loc	39 1812 6
	addq	$768, %rsp
	popq	%rbp
	retq
Ltmp846:
Lfunc_end110:
	.cfi_endproc

	.p2align	4, 0x90
__ZN4core3str7pattern14TwoWaySearcher4next17h146e27db68a563d4E:
Lfunc_begin111:
	.loc	39 1411 0
	.cfi_startproc
	pushq	%rbp
	.cfi_def_cfa_offset 16
	.cfi_offset %rbp, -16
	movq	%rsp, %rbp
	.cfi_def_cfa_register %rbp
	subq	$480, %rsp
	movq	%r9, -416(%rbp)
	movq	%r8, -408(%rbp)
	movq	%rcx, -400(%rbp)
	movq	%rdx, -392(%rbp)
	movq	%rsi, -384(%rbp)
	movq	%rdi, -376(%rbp)
	movq	%rdi, -368(%rbp)
	movb	16(%rbp), %al
	movb	%al, -353(%rbp)
	movq	%rsi, -208(%rbp)
	movq	%rdx, -200(%rbp)
	movq	%rcx, -192(%rbp)
	movq	%r8, -184(%rbp)
	movq	%r9, -176(%rbp)
	andb	$1, %al
	movb	%al, -161(%rbp)
Ltmp847:
	.loc	39 1416 23 prologue_end
	movq	32(%rsi), %rax
	movq	%rax, -352(%rbp)
	movq	%rax, -160(%rbp)
Ltmp848:
	.loc	39 1417 27
	subq	$1, %r9
	movq	%r9, -344(%rbp)
	movq	%r9, -152(%rbp)
LBB111_1:
	.loc	39 0 27 is_stmt 0
	movq	-400(%rbp), %rdx
	movq	-392(%rbp), %rsi
	movq	-384(%rbp), %rax
	movq	-344(%rbp), %rdi
Ltmp849:
	.loc	39 1422 35 is_stmt 1
	movq	%rsi, -144(%rbp)
	movq	%rdx, -136(%rbp)
	.loc	39 1422 48 is_stmt 0
	addq	32(%rax), %rdi
	movq	%rdi, -128(%rbp)
Ltmp850:
	.loc	35 343 9 is_stmt 1
	callq	__ZN75_$LT$usize$u20$as$u20$core..slice..index..SliceIndex$LT$$u5b$T$u5d$$GT$$GT$3get17h318e08c1cbf12de1E
	movq	%rax, -336(%rbp)
Ltmp851:
	.loc	39 1422 35
	movq	-336(%rbp), %rdx
	movl	$1, %eax
	xorl	%ecx, %ecx
	cmpq	$0, %rdx
	cmoveq	%rcx, %rax
	.loc	39 1422 29 is_stmt 0
	cmpq	$0, %rax
	jne	LBB111_3
	.loc	39 0 29
	movq	-352(%rbp), %rsi
	movq	-376(%rbp), %rdi
	movq	-384(%rbp), %rax
	movq	-400(%rbp), %rcx
	.loc	39 1425 21 is_stmt 1
	movq	%rcx, 32(%rax)
	.loc	39 1426 50
	movq	32(%rax), %rdx
	.loc	39 1426 28 is_stmt 0
	callq	__ZN84_$LT$core..str..pattern..MatchOnly$u20$as$u20$core..str..pattern..TwoWayStrategy$GT$9rejecting17h1b068e84a1b21bcfE
	.loc	34 1 1 is_stmt 1
	jmp	LBB111_9
LBB111_3:
	.loc	39 1423 23
	movq	-336(%rbp), %rax
	movb	(%rax), %al
	movb	%al, -417(%rbp)
	movb	%al, -114(%rbp)
Ltmp852:
	.loc	39 1423 29 is_stmt 0
	movb	%al, -113(%rbp)
Ltmp853:
	.loc	39 1430 16 is_stmt 1
	callq	__ZN84_$LT$core..str..pattern..MatchOnly$u20$as$u20$core..str..pattern..TwoWayStrategy$GT$16use_early_reject17haea3e5d03e7b6304E
	testb	$1, %al
	jne	LBB111_5
	movb	$0, -321(%rbp)
	jmp	LBB111_6
LBB111_5:
	.loc	39 0 16 is_stmt 0
	movq	-352(%rbp), %rax
	movq	-384(%rbp), %rcx
	.loc	39 1430 41
	cmpq	32(%rcx), %rax
	setne	%al
	.loc	39 1430 16
	andb	$1, %al
	movb	%al, -321(%rbp)
LBB111_6:
	testb	$1, -321(%rbp)
	jne	LBB111_8
	.loc	39 0 16
	movb	-417(%rbp), %cl
	movq	-384(%rbp), %rax
	.loc	39 1435 17 is_stmt 1
	movq	%rax, -112(%rbp)
	.loc	39 1435 39 is_stmt 0
	movb	%cl, -97(%rbp)
Ltmp854:
	.loc	39 1402 10 is_stmt 1
	movq	24(%rax), %rax
	.loc	39 1402 27 is_stmt 0
	andb	$63, %cl
	.loc	39 1402 26
	movzbl	%cl, %ecx
	.loc	39 1402 9
	andq	$63, %rcx
	shrq	%cl, %rax
	andq	$1, %rax
	cmpq	$0, %rax
	setne	%al
Ltmp855:
	.loc	39 1435 16 is_stmt 1
	xorb	$-1, %al
	testb	$1, %al
	jne	LBB111_11
	jmp	LBB111_10
LBB111_8:
	.loc	39 0 16 is_stmt 0
	movq	-352(%rbp), %rsi
	movq	-376(%rbp), %rdi
	movq	-384(%rbp), %rax
	.loc	39 1431 46 is_stmt 1
	movq	32(%rax), %rdx
	.loc	39 1431 24 is_stmt 0
	callq	__ZN84_$LT$core..str..pattern..MatchOnly$u20$as$u20$core..str..pattern..TwoWayStrategy$GT$9rejecting17h1b068e84a1b21bcfE
Ltmp856:
LBB111_9:
	.loc	39 0 24
	movq	-368(%rbp), %rax
	.loc	39 1479 6 is_stmt 1
	addq	$480, %rsp
	popq	%rbp
	retq
LBB111_10:
	.loc	39 0 6 is_stmt 0
	movb	-353(%rbp), %al
Ltmp857:
	.loc	39 1445 20 is_stmt 1
	testb	$1, %al
	jne	LBB111_16
	jmp	LBB111_15
LBB111_11:
	.loc	39 0 20 is_stmt 0
	movb	-353(%rbp), %al
	movq	-384(%rbp), %rcx
	movq	-416(%rbp), %rdx
	.loc	39 1436 17 is_stmt 1
	addq	32(%rcx), %rdx
	movq	%rdx, 32(%rcx)
	.loc	39 1437 20
	xorb	$-1, %al
	testb	$1, %al
	jne	LBB111_13
LBB111_12:
	.loc	34 1 1
	jmp	LBB111_14
LBB111_13:
	.loc	34 0 1 is_stmt 0
	movq	-384(%rbp), %rax
	.loc	39 1438 21 is_stmt 1
	movq	$0, 48(%rax)
	.loc	39 1437 17
	jmp	LBB111_12
Ltmp858:
LBB111_14:
	.loc	34 1 1
	jmp	LBB111_1
LBB111_15:
	.loc	34 0 1 is_stmt 0
	movq	-384(%rbp), %rax
Ltmp859:
	.loc	39 1445 66 is_stmt 1
	movq	(%rax), %rdi
	movq	%rdi, -96(%rbp)
	.loc	39 1445 81 is_stmt 0
	movq	48(%rax), %rsi
	movq	%rsi, -88(%rbp)
Ltmp860:
	.loc	8 1276 5 is_stmt 1
	movq	%rdi, -80(%rbp)
	.loc	8 1276 12 is_stmt 0
	movq	%rsi, -72(%rbp)
Ltmp861:
	.loc	8 803 13 is_stmt 1
	callq	__ZN4core3cmp6max_by17h8a68ff28c14171c0E
	movq	%rax, -320(%rbp)
Ltmp862:
	.loc	39 1445 17
	jmp	LBB111_17
LBB111_16:
	.loc	39 0 17 is_stmt 0
	movq	-384(%rbp), %rax
	.loc	39 1445 34
	movq	(%rax), %rax
	movq	%rax, -320(%rbp)
LBB111_17:
	.loc	39 0 34
	movq	-416(%rbp), %rax
Ltmp863:
	.loc	39 1446 22 is_stmt 1
	movq	-320(%rbp), %rcx
	movq	%rcx, -312(%rbp)
	movq	%rax, -304(%rbp)
Ltmp864:
	.loc	42 273 9
	movq	-312(%rbp), %rcx
	movq	-304(%rbp), %rax
Ltmp865:
	.loc	39 1446 22
	movq	%rcx, -296(%rbp)
	movq	%rax, -288(%rbp)
LBB111_18:
	.loc	39 0 22 is_stmt 0
	leaq	-296(%rbp), %rdi
Ltmp866:
	.loc	39 1446 22
	movq	%rdi, -64(%rbp)
Ltmp867:
	.loc	27 711 9 is_stmt 1
	callq	__ZN89_$LT$core..ops..range..Range$LT$T$GT$$u20$as$u20$core..iter..range..RangeIteratorImpl$GT$9spec_next17hc53fa2f5beb1b065E
	movq	%rdx, -272(%rbp)
	movq	%rax, -280(%rbp)
Ltmp868:
	.loc	39 1446 22
	cmpq	$0, -280(%rbp)
	jne	LBB111_20
Ltmp869:
	.loc	39 0 22 is_stmt 0
	movb	-353(%rbp), %al
	.loc	39 1457 28 is_stmt 1
	testb	$1, %al
	jne	LBB111_31
	jmp	LBB111_30
LBB111_20:
	.loc	39 0 28 is_stmt 0
	movq	-416(%rbp), %rcx
Ltmp870:
	.loc	39 1446 17 is_stmt 1
	movq	-272(%rbp), %rax
	movq	%rax, -432(%rbp)
	movq	%rax, -56(%rbp)
Ltmp871:
	.loc	39 1447 20
	cmpq	%rcx, %rax
	setb	%al
	testb	$1, %al
	jne	LBB111_21
	jmp	LBB111_22
LBB111_21:
	.loc	39 0 20 is_stmt 0
	movq	-400(%rbp), %rcx
	movq	-384(%rbp), %rdx
	movq	-432(%rbp), %rax
	movq	-408(%rbp), %rsi
	.loc	39 1447 20
	movb	(%rsi,%rax), %sil
	movb	%sil, -441(%rbp)
	.loc	39 1447 42
	addq	32(%rdx), %rax
	movq	%rax, -440(%rbp)
	.loc	39 1447 33
	cmpq	%rcx, %rax
	setb	%al
	testb	$1, %al
	jne	LBB111_23
	jmp	LBB111_24
LBB111_22:
	.loc	39 0 33
	movq	-416(%rbp), %rsi
	movq	-432(%rbp), %rdi
	.loc	39 1447 20
	leaq	l___unnamed_20(%rip), %rdx
	callq	__ZN4core9panicking18panic_bounds_check17hacb8a94866cda541E
LBB111_23:
	.loc	39 0 20
	movb	-441(%rbp), %al
	movq	-392(%rbp), %rcx
	movq	-440(%rbp), %rdx
	.loc	39 1447 20
	cmpb	(%rcx,%rdx), %al
	jne	LBB111_26
	jmp	LBB111_25
LBB111_24:
	.loc	39 0 20
	movq	-400(%rbp), %rsi
	movq	-440(%rbp), %rdi
	.loc	39 1447 33
	leaq	l___unnamed_21(%rip), %rdx
	callq	__ZN4core9panicking18panic_bounds_check17hacb8a94866cda541E
Ltmp872:
LBB111_25:
	.loc	39 1446 13 is_stmt 1
	jmp	LBB111_18
LBB111_26:
	.loc	39 0 13 is_stmt 0
	movb	-353(%rbp), %al
	movq	-384(%rbp), %rcx
	movq	-432(%rbp), %rdx
Ltmp873:
	.loc	39 1448 38 is_stmt 1
	subq	(%rcx), %rdx
	addq	$1, %rdx
	.loc	39 1448 21 is_stmt 0
	addq	32(%rcx), %rdx
	movq	%rdx, 32(%rcx)
	.loc	39 1449 24 is_stmt 1
	xorb	$-1, %al
	testb	$1, %al
	jne	LBB111_28
Ltmp874:
LBB111_27:
	.loc	34 1 1
	jmp	LBB111_29
LBB111_28:
	.loc	34 0 1 is_stmt 0
	movq	-384(%rbp), %rax
Ltmp875:
	.loc	39 1450 25 is_stmt 1
	movq	$0, 48(%rax)
	.loc	39 1449 21
	jmp	LBB111_27
Ltmp876:
LBB111_29:
	.loc	34 1 1
	jmp	LBB111_14
LBB111_30:
	.loc	34 0 1 is_stmt 0
	movq	-384(%rbp), %rax
Ltmp877:
	.loc	39 1457 53 is_stmt 1
	movq	48(%rax), %rax
	movq	%rax, -264(%rbp)
	.loc	39 1457 25 is_stmt 0
	jmp	LBB111_32
LBB111_31:
	.loc	39 1457 42
	movq	$0, -264(%rbp)
LBB111_32:
	.loc	39 0 42
	movq	-384(%rbp), %rax
Ltmp878:
	.loc	39 1458 23 is_stmt 1
	movq	-264(%rbp), %rcx
	.loc	39 1458 30 is_stmt 0
	movq	(%rax), %rax
	.loc	39 1458 22
	movq	%rcx, -256(%rbp)
	movq	%rax, -248(%rbp)
Ltmp879:
	.loc	41 3183 18 is_stmt 1
	movq	-256(%rbp), %rdi
	movq	-248(%rbp), %rsi
	.loc	41 3183 9 is_stmt 0
	callq	__ZN4core4iter8adapters3rev12Rev$LT$T$GT$3new17hbd1ef9e7409b61cfE
	movq	%rax, -48(%rbp)
	movq	%rdx, -40(%rbp)
Ltmp880:
	.loc	39 1458 22 is_stmt 1
	movq	%rax, -240(%rbp)
	movq	%rdx, -232(%rbp)
LBB111_33:
	.loc	39 0 22 is_stmt 0
	leaq	-240(%rbp), %rdi
Ltmp881:
	.loc	39 1458 22
	movq	%rdi, -32(%rbp)
Ltmp882:
	.file	46 "/rustc/2c8cc343237b8f7d5a3c3703e3a87f2eb2c54a74/library/core/src/iter/adapters" "rev.rs"
	.loc	46 33 9 is_stmt 1
	movq	%rdi, -24(%rbp)
Ltmp883:
	.loc	27 819 9
	callq	__ZN89_$LT$core..ops..range..Range$LT$T$GT$$u20$as$u20$core..iter..range..RangeIteratorImpl$GT$14spec_next_back17h1c3abb8eed7e14e6E
	movq	%rdx, -216(%rbp)
	movq	%rax, -224(%rbp)
Ltmp884:
	.loc	39 1458 22
	cmpq	$0, -224(%rbp)
	jne	LBB111_35
Ltmp885:
	.loc	39 0 22 is_stmt 0
	movb	-353(%rbp), %al
	movq	-384(%rbp), %rcx
	movq	-416(%rbp), %rdx
	.loc	39 1469 29 is_stmt 1
	movq	32(%rcx), %rsi
	movq	%rsi, -456(%rbp)
	movq	%rsi, -8(%rbp)
Ltmp886:
	.loc	39 1472 13
	addq	32(%rcx), %rdx
	movq	%rdx, 32(%rcx)
	.loc	39 1473 16
	xorb	$-1, %al
	testb	$1, %al
	jne	LBB111_45
	jmp	LBB111_44
Ltmp887:
LBB111_35:
	.loc	39 0 16 is_stmt 0
	movq	-416(%rbp), %rcx
Ltmp888:
	.loc	39 1458 17 is_stmt 1
	movq	-216(%rbp), %rax
	movq	%rax, -464(%rbp)
	movq	%rax, -16(%rbp)
Ltmp889:
	.loc	39 1459 20
	cmpq	%rcx, %rax
	setb	%al
	testb	$1, %al
	jne	LBB111_36
	jmp	LBB111_37
LBB111_36:
	.loc	39 0 20 is_stmt 0
	movq	-400(%rbp), %rcx
	movq	-384(%rbp), %rdx
	movq	-464(%rbp), %rax
	movq	-408(%rbp), %rsi
	.loc	39 1459 20
	movb	(%rsi,%rax), %sil
	movb	%sil, -473(%rbp)
	.loc	39 1459 42
	addq	32(%rdx), %rax
	movq	%rax, -472(%rbp)
	.loc	39 1459 33
	cmpq	%rcx, %rax
	setb	%al
	testb	$1, %al
	jne	LBB111_38
	jmp	LBB111_39
LBB111_37:
	.loc	39 0 33
	movq	-416(%rbp), %rsi
	movq	-464(%rbp), %rdi
	.loc	39 1459 20
	leaq	l___unnamed_22(%rip), %rdx
	callq	__ZN4core9panicking18panic_bounds_check17hacb8a94866cda541E
LBB111_38:
	.loc	39 0 20
	movb	-473(%rbp), %al
	movq	-392(%rbp), %rcx
	movq	-472(%rbp), %rdx
	.loc	39 1459 20
	cmpb	(%rcx,%rdx), %al
	jne	LBB111_41
	jmp	LBB111_40
LBB111_39:
	.loc	39 0 20
	movq	-400(%rbp), %rsi
	movq	-472(%rbp), %rdi
	.loc	39 1459 33
	leaq	l___unnamed_23(%rip), %rdx
	callq	__ZN4core9panicking18panic_bounds_check17hacb8a94866cda541E
Ltmp890:
LBB111_40:
	.loc	39 1458 13 is_stmt 1
	jmp	LBB111_33
LBB111_41:
	.loc	39 0 13 is_stmt 0
	movb	-353(%rbp), %al
	movq	-384(%rbp), %rcx
Ltmp891:
	.loc	39 1460 38 is_stmt 1
	movq	16(%rcx), %rdx
	.loc	39 1460 21 is_stmt 0
	addq	32(%rcx), %rdx
	movq	%rdx, 32(%rcx)
	.loc	39 1461 24 is_stmt 1
	xorb	$-1, %al
	testb	$1, %al
	jne	LBB111_43
Ltmp892:
LBB111_42:
	.loc	34 1 1
	jmp	LBB111_29
LBB111_43:
	.loc	34 0 1 is_stmt 0
	movq	-384(%rbp), %rax
	movq	-416(%rbp), %rcx
Ltmp893:
	.loc	39 1462 25 is_stmt 1
	subq	16(%rax), %rcx
	movq	%rcx, 48(%rax)
	.loc	39 1461 21
	jmp	LBB111_42
Ltmp894:
LBB111_44:
	.loc	39 0 21 is_stmt 0
	movq	-456(%rbp), %rsi
	movq	-376(%rbp), %rdi
	movq	-416(%rbp), %rax
Ltmp895:
	.loc	39 1477 43 is_stmt 1
	movq	%rsi, %rdx
	addq	%rax, %rdx
	.loc	39 1477 20 is_stmt 0
	callq	__ZN84_$LT$core..str..pattern..MatchOnly$u20$as$u20$core..str..pattern..TwoWayStrategy$GT$8matching17h5ab87ba2088fdb70E
Ltmp896:
	.loc	34 1 1 is_stmt 1
	jmp	LBB111_9
LBB111_45:
	.loc	34 0 1 is_stmt 0
	movq	-384(%rbp), %rax
Ltmp897:
	.loc	39 1474 17 is_stmt 1
	movq	$0, 48(%rax)
	.loc	39 1473 13
	jmp	LBB111_44
Ltmp898:
Lfunc_end111:
	.cfi_endproc

	.p2align	4, 0x90
__ZN4core3str7pattern14TwoWaySearcher4next17h3a36dc76aacbcc29E:
Lfunc_begin112:
	.loc	39 1411 0
	.cfi_startproc
	pushq	%rbp
	.cfi_def_cfa_offset 16
	.cfi_offset %rbp, -16
	movq	%rsp, %rbp
	.cfi_def_cfa_register %rbp
	subq	$480, %rsp
	movq	%r9, -416(%rbp)
	movq	%r8, -408(%rbp)
	movq	%rcx, -400(%rbp)
	movq	%rdx, -392(%rbp)
	movq	%rsi, -384(%rbp)
	movq	%rdi, -376(%rbp)
	movq	%rdi, -368(%rbp)
	movb	16(%rbp), %al
	movb	%al, -353(%rbp)
	movq	%rsi, -208(%rbp)
	movq	%rdx, -200(%rbp)
	movq	%rcx, -192(%rbp)
	movq	%r8, -184(%rbp)
	movq	%r9, -176(%rbp)
	andb	$1, %al
	movb	%al, -161(%rbp)
Ltmp899:
	.loc	39 1416 23 prologue_end
	movq	32(%rsi), %rax
	movq	%rax, -352(%rbp)
	movq	%rax, -160(%rbp)
Ltmp900:
	.loc	39 1417 27
	subq	$1, %r9
	movq	%r9, -344(%rbp)
	movq	%r9, -152(%rbp)
LBB112_1:
	.loc	39 0 27 is_stmt 0
	movq	-400(%rbp), %rdx
	movq	-392(%rbp), %rsi
	movq	-384(%rbp), %rax
	movq	-344(%rbp), %rdi
Ltmp901:
	.loc	39 1422 35 is_stmt 1
	movq	%rsi, -144(%rbp)
	movq	%rdx, -136(%rbp)
	.loc	39 1422 48 is_stmt 0
	addq	32(%rax), %rdi
	movq	%rdi, -128(%rbp)
Ltmp902:
	.loc	35 343 9 is_stmt 1
	callq	__ZN75_$LT$usize$u20$as$u20$core..slice..index..SliceIndex$LT$$u5b$T$u5d$$GT$$GT$3get17h318e08c1cbf12de1E
	movq	%rax, -336(%rbp)
Ltmp903:
	.loc	39 1422 35
	movq	-336(%rbp), %rdx
	movl	$1, %eax
	xorl	%ecx, %ecx
	cmpq	$0, %rdx
	cmoveq	%rcx, %rax
	.loc	39 1422 29 is_stmt 0
	cmpq	$0, %rax
	jne	LBB112_3
	.loc	39 0 29
	movq	-352(%rbp), %rsi
	movq	-376(%rbp), %rdi
	movq	-384(%rbp), %rax
	movq	-400(%rbp), %rcx
	.loc	39 1425 21 is_stmt 1
	movq	%rcx, 32(%rax)
	.loc	39 1426 50
	movq	32(%rax), %rdx
	.loc	39 1426 28 is_stmt 0
	callq	__ZN89_$LT$core..str..pattern..RejectAndMatch$u20$as$u20$core..str..pattern..TwoWayStrategy$GT$9rejecting17hb9c95c0d6c10b9d0E
	.loc	34 1 1 is_stmt 1
	jmp	LBB112_9
LBB112_3:
	.loc	39 1423 23
	movq	-336(%rbp), %rax
	movb	(%rax), %al
	movb	%al, -417(%rbp)
	movb	%al, -114(%rbp)
Ltmp904:
	.loc	39 1423 29 is_stmt 0
	movb	%al, -113(%rbp)
Ltmp905:
	.loc	39 1430 16 is_stmt 1
	callq	__ZN89_$LT$core..str..pattern..RejectAndMatch$u20$as$u20$core..str..pattern..TwoWayStrategy$GT$16use_early_reject17hb164ae178d78ad74E
	testb	$1, %al
	jne	LBB112_5
	movb	$0, -321(%rbp)
	jmp	LBB112_6
LBB112_5:
	.loc	39 0 16 is_stmt 0
	movq	-352(%rbp), %rax
	movq	-384(%rbp), %rcx
	.loc	39 1430 41
	cmpq	32(%rcx), %rax
	setne	%al
	.loc	39 1430 16
	andb	$1, %al
	movb	%al, -321(%rbp)
LBB112_6:
	testb	$1, -321(%rbp)
	jne	LBB112_8
	.loc	39 0 16
	movb	-417(%rbp), %cl
	movq	-384(%rbp), %rax
	.loc	39 1435 17 is_stmt 1
	movq	%rax, -112(%rbp)
	.loc	39 1435 39 is_stmt 0
	movb	%cl, -97(%rbp)
Ltmp906:
	.loc	39 1402 10 is_stmt 1
	movq	24(%rax), %rax
	.loc	39 1402 27 is_stmt 0
	andb	$63, %cl
	.loc	39 1402 26
	movzbl	%cl, %ecx
	.loc	39 1402 9
	andq	$63, %rcx
	shrq	%cl, %rax
	andq	$1, %rax
	cmpq	$0, %rax
	setne	%al
Ltmp907:
	.loc	39 1435 16 is_stmt 1
	xorb	$-1, %al
	testb	$1, %al
	jne	LBB112_11
	jmp	LBB112_10
LBB112_8:
	.loc	39 0 16 is_stmt 0
	movq	-352(%rbp), %rsi
	movq	-376(%rbp), %rdi
	movq	-384(%rbp), %rax
	.loc	39 1431 46 is_stmt 1
	movq	32(%rax), %rdx
	.loc	39 1431 24 is_stmt 0
	callq	__ZN89_$LT$core..str..pattern..RejectAndMatch$u20$as$u20$core..str..pattern..TwoWayStrategy$GT$9rejecting17hb9c95c0d6c10b9d0E
Ltmp908:
LBB112_9:
	.loc	39 0 24
	movq	-368(%rbp), %rax
	.loc	39 1479 6 is_stmt 1
	addq	$480, %rsp
	popq	%rbp
	retq
LBB112_10:
	.loc	39 0 6 is_stmt 0
	movb	-353(%rbp), %al
Ltmp909:
	.loc	39 1445 20 is_stmt 1
	testb	$1, %al
	jne	LBB112_16
	jmp	LBB112_15
LBB112_11:
	.loc	39 0 20 is_stmt 0
	movb	-353(%rbp), %al
	movq	-384(%rbp), %rcx
	movq	-416(%rbp), %rdx
	.loc	39 1436 17 is_stmt 1
	addq	32(%rcx), %rdx
	movq	%rdx, 32(%rcx)
	.loc	39 1437 20
	xorb	$-1, %al
	testb	$1, %al
	jne	LBB112_13
LBB112_12:
	.loc	34 1 1
	jmp	LBB112_14
LBB112_13:
	.loc	34 0 1 is_stmt 0
	movq	-384(%rbp), %rax
	.loc	39 1438 21 is_stmt 1
	movq	$0, 48(%rax)
	.loc	39 1437 17
	jmp	LBB112_12
Ltmp910:
LBB112_14:
	.loc	34 1 1
	jmp	LBB112_1
LBB112_15:
	.loc	34 0 1 is_stmt 0
	movq	-384(%rbp), %rax
Ltmp911:
	.loc	39 1445 66 is_stmt 1
	movq	(%rax), %rdi
	movq	%rdi, -96(%rbp)
	.loc	39 1445 81 is_stmt 0
	movq	48(%rax), %rsi
	movq	%rsi, -88(%rbp)
Ltmp912:
	.loc	8 1276 5 is_stmt 1
	movq	%rdi, -80(%rbp)
	.loc	8 1276 12 is_stmt 0
	movq	%rsi, -72(%rbp)
Ltmp913:
	.loc	8 803 13 is_stmt 1
	callq	__ZN4core3cmp6max_by17h8a68ff28c14171c0E
	movq	%rax, -320(%rbp)
Ltmp914:
	.loc	39 1445 17
	jmp	LBB112_17
LBB112_16:
	.loc	39 0 17 is_stmt 0
	movq	-384(%rbp), %rax
	.loc	39 1445 34
	movq	(%rax), %rax
	movq	%rax, -320(%rbp)
LBB112_17:
	.loc	39 0 34
	movq	-416(%rbp), %rax
Ltmp915:
	.loc	39 1446 22 is_stmt 1
	movq	-320(%rbp), %rcx
	movq	%rcx, -312(%rbp)
	movq	%rax, -304(%rbp)
Ltmp916:
	.loc	42 273 9
	movq	-312(%rbp), %rcx
	movq	-304(%rbp), %rax
Ltmp917:
	.loc	39 1446 22
	movq	%rcx, -296(%rbp)
	movq	%rax, -288(%rbp)
LBB112_18:
	.loc	39 0 22 is_stmt 0
	leaq	-296(%rbp), %rdi
Ltmp918:
	.loc	39 1446 22
	movq	%rdi, -64(%rbp)
Ltmp919:
	.loc	27 711 9 is_stmt 1
	callq	__ZN89_$LT$core..ops..range..Range$LT$T$GT$$u20$as$u20$core..iter..range..RangeIteratorImpl$GT$9spec_next17hc53fa2f5beb1b065E
	movq	%rdx, -272(%rbp)
	movq	%rax, -280(%rbp)
Ltmp920:
	.loc	39 1446 22
	cmpq	$0, -280(%rbp)
	jne	LBB112_20
Ltmp921:
	.loc	39 0 22 is_stmt 0
	movb	-353(%rbp), %al
	.loc	39 1457 28 is_stmt 1
	testb	$1, %al
	jne	LBB112_31
	jmp	LBB112_30
LBB112_20:
	.loc	39 0 28 is_stmt 0
	movq	-416(%rbp), %rcx
Ltmp922:
	.loc	39 1446 17 is_stmt 1
	movq	-272(%rbp), %rax
	movq	%rax, -432(%rbp)
	movq	%rax, -56(%rbp)
Ltmp923:
	.loc	39 1447 20
	cmpq	%rcx, %rax
	setb	%al
	testb	$1, %al
	jne	LBB112_21
	jmp	LBB112_22
LBB112_21:
	.loc	39 0 20 is_stmt 0
	movq	-400(%rbp), %rcx
	movq	-384(%rbp), %rdx
	movq	-432(%rbp), %rax
	movq	-408(%rbp), %rsi
	.loc	39 1447 20
	movb	(%rsi,%rax), %sil
	movb	%sil, -441(%rbp)
	.loc	39 1447 42
	addq	32(%rdx), %rax
	movq	%rax, -440(%rbp)
	.loc	39 1447 33
	cmpq	%rcx, %rax
	setb	%al
	testb	$1, %al
	jne	LBB112_23
	jmp	LBB112_24
LBB112_22:
	.loc	39 0 33
	movq	-416(%rbp), %rsi
	movq	-432(%rbp), %rdi
	.loc	39 1447 20
	leaq	l___unnamed_20(%rip), %rdx
	callq	__ZN4core9panicking18panic_bounds_check17hacb8a94866cda541E
LBB112_23:
	.loc	39 0 20
	movb	-441(%rbp), %al
	movq	-392(%rbp), %rcx
	movq	-440(%rbp), %rdx
	.loc	39 1447 20
	cmpb	(%rcx,%rdx), %al
	jne	LBB112_26
	jmp	LBB112_25
LBB112_24:
	.loc	39 0 20
	movq	-400(%rbp), %rsi
	movq	-440(%rbp), %rdi
	.loc	39 1447 33
	leaq	l___unnamed_21(%rip), %rdx
	callq	__ZN4core9panicking18panic_bounds_check17hacb8a94866cda541E
Ltmp924:
LBB112_25:
	.loc	39 1446 13 is_stmt 1
	jmp	LBB112_18
LBB112_26:
	.loc	39 0 13 is_stmt 0
	movb	-353(%rbp), %al
	movq	-384(%rbp), %rcx
	movq	-432(%rbp), %rdx
Ltmp925:
	.loc	39 1448 38 is_stmt 1
	subq	(%rcx), %rdx
	addq	$1, %rdx
	.loc	39 1448 21 is_stmt 0
	addq	32(%rcx), %rdx
	movq	%rdx, 32(%rcx)
	.loc	39 1449 24 is_stmt 1
	xorb	$-1, %al
	testb	$1, %al
	jne	LBB112_28
Ltmp926:
LBB112_27:
	.loc	34 1 1
	jmp	LBB112_29
LBB112_28:
	.loc	34 0 1 is_stmt 0
	movq	-384(%rbp), %rax
Ltmp927:
	.loc	39 1450 25 is_stmt 1
	movq	$0, 48(%rax)
	.loc	39 1449 21
	jmp	LBB112_27
Ltmp928:
LBB112_29:
	.loc	34 1 1
	jmp	LBB112_14
LBB112_30:
	.loc	34 0 1 is_stmt 0
	movq	-384(%rbp), %rax
Ltmp929:
	.loc	39 1457 53 is_stmt 1
	movq	48(%rax), %rax
	movq	%rax, -264(%rbp)
	.loc	39 1457 25 is_stmt 0
	jmp	LBB112_32
LBB112_31:
	.loc	39 1457 42
	movq	$0, -264(%rbp)
LBB112_32:
	.loc	39 0 42
	movq	-384(%rbp), %rax
Ltmp930:
	.loc	39 1458 23 is_stmt 1
	movq	-264(%rbp), %rcx
	.loc	39 1458 30 is_stmt 0
	movq	(%rax), %rax
	.loc	39 1458 22
	movq	%rcx, -256(%rbp)
	movq	%rax, -248(%rbp)
Ltmp931:
	.loc	41 3183 18 is_stmt 1
	movq	-256(%rbp), %rdi
	movq	-248(%rbp), %rsi
	.loc	41 3183 9 is_stmt 0
	callq	__ZN4core4iter8adapters3rev12Rev$LT$T$GT$3new17hbd1ef9e7409b61cfE
	movq	%rax, -48(%rbp)
	movq	%rdx, -40(%rbp)
Ltmp932:
	.loc	39 1458 22 is_stmt 1
	movq	%rax, -240(%rbp)
	movq	%rdx, -232(%rbp)
LBB112_33:
	.loc	39 0 22 is_stmt 0
	leaq	-240(%rbp), %rdi
Ltmp933:
	.loc	39 1458 22
	movq	%rdi, -32(%rbp)
Ltmp934:
	.loc	46 33 9 is_stmt 1
	movq	%rdi, -24(%rbp)
Ltmp935:
	.loc	27 819 9
	callq	__ZN89_$LT$core..ops..range..Range$LT$T$GT$$u20$as$u20$core..iter..range..RangeIteratorImpl$GT$14spec_next_back17h1c3abb8eed7e14e6E
	movq	%rdx, -216(%rbp)
	movq	%rax, -224(%rbp)
Ltmp936:
	.loc	39 1458 22
	cmpq	$0, -224(%rbp)
	jne	LBB112_35
Ltmp937:
	.loc	39 0 22 is_stmt 0
	movb	-353(%rbp), %al
	movq	-384(%rbp), %rcx
	movq	-416(%rbp), %rdx
	.loc	39 1469 29 is_stmt 1
	movq	32(%rcx), %rsi
	movq	%rsi, -456(%rbp)
	movq	%rsi, -8(%rbp)
Ltmp938:
	.loc	39 1472 13
	addq	32(%rcx), %rdx
	movq	%rdx, 32(%rcx)
	.loc	39 1473 16
	xorb	$-1, %al
	testb	$1, %al
	jne	LBB112_45
	jmp	LBB112_44
Ltmp939:
LBB112_35:
	.loc	39 0 16 is_stmt 0
	movq	-416(%rbp), %rcx
Ltmp940:
	.loc	39 1458 17 is_stmt 1
	movq	-216(%rbp), %rax
	movq	%rax, -464(%rbp)
	movq	%rax, -16(%rbp)
Ltmp941:
	.loc	39 1459 20
	cmpq	%rcx, %rax
	setb	%al
	testb	$1, %al
	jne	LBB112_36
	jmp	LBB112_37
LBB112_36:
	.loc	39 0 20 is_stmt 0
	movq	-400(%rbp), %rcx
	movq	-384(%rbp), %rdx
	movq	-464(%rbp), %rax
	movq	-408(%rbp), %rsi
	.loc	39 1459 20
	movb	(%rsi,%rax), %sil
	movb	%sil, -473(%rbp)
	.loc	39 1459 42
	addq	32(%rdx), %rax
	movq	%rax, -472(%rbp)
	.loc	39 1459 33
	cmpq	%rcx, %rax
	setb	%al
	testb	$1, %al
	jne	LBB112_38
	jmp	LBB112_39
LBB112_37:
	.loc	39 0 33
	movq	-416(%rbp), %rsi
	movq	-464(%rbp), %rdi
	.loc	39 1459 20
	leaq	l___unnamed_22(%rip), %rdx
	callq	__ZN4core9panicking18panic_bounds_check17hacb8a94866cda541E
LBB112_38:
	.loc	39 0 20
	movb	-473(%rbp), %al
	movq	-392(%rbp), %rcx
	movq	-472(%rbp), %rdx
	.loc	39 1459 20
	cmpb	(%rcx,%rdx), %al
	jne	LBB112_41
	jmp	LBB112_40
LBB112_39:
	.loc	39 0 20
	movq	-400(%rbp), %rsi
	movq	-472(%rbp), %rdi
	.loc	39 1459 33
	leaq	l___unnamed_23(%rip), %rdx
	callq	__ZN4core9panicking18panic_bounds_check17hacb8a94866cda541E
Ltmp942:
LBB112_40:
	.loc	39 1458 13 is_stmt 1
	jmp	LBB112_33
LBB112_41:
	.loc	39 0 13 is_stmt 0
	movb	-353(%rbp), %al
	movq	-384(%rbp), %rcx
Ltmp943:
	.loc	39 1460 38 is_stmt 1
	movq	16(%rcx), %rdx
	.loc	39 1460 21 is_stmt 0
	addq	32(%rcx), %rdx
	movq	%rdx, 32(%rcx)
	.loc	39 1461 24 is_stmt 1
	xorb	$-1, %al
	testb	$1, %al
	jne	LBB112_43
Ltmp944:
LBB112_42:
	.loc	34 1 1
	jmp	LBB112_29
LBB112_43:
	.loc	34 0 1 is_stmt 0
	movq	-384(%rbp), %rax
	movq	-416(%rbp), %rcx
Ltmp945:
	.loc	39 1462 25 is_stmt 1
	subq	16(%rax), %rcx
	movq	%rcx, 48(%rax)
	.loc	39 1461 21
	jmp	LBB112_42
Ltmp946:
LBB112_44:
	.loc	39 0 21 is_stmt 0
	movq	-456(%rbp), %rsi
	movq	-376(%rbp), %rdi
	movq	-416(%rbp), %rax
Ltmp947:
	.loc	39 1477 43 is_stmt 1
	movq	%rsi, %rdx
	addq	%rax, %rdx
	.loc	39 1477 20 is_stmt 0
	callq	__ZN89_$LT$core..str..pattern..RejectAndMatch$u20$as$u20$core..str..pattern..TwoWayStrategy$GT$8matching17h6a911c144968b00aE
Ltmp948:
	.loc	34 1 1 is_stmt 1
	jmp	LBB112_9
LBB112_45:
	.loc	34 0 1 is_stmt 0
	movq	-384(%rbp), %rax
Ltmp949:
	.loc	39 1474 17 is_stmt 1
	movq	$0, 48(%rax)
	.loc	39 1473 13
	jmp	LBB112_44
Ltmp950:
Lfunc_end112:
	.cfi_endproc

	.p2align	4, 0x90
__ZN4core3str7pattern14small_slice_eq17h81e80e8504a33b34E:
Lfunc_begin113:
	.loc	39 1863 0
	.cfi_startproc
	pushq	%rbp
	.cfi_def_cfa_offset 16
	.cfi_offset %rbp, -16
	movq	%rsp, %rbp
	.cfi_def_cfa_register %rbp
	subq	$768, %rsp
	movq	%rdi, -752(%rbp)
	movq	%rsi, -744(%rbp)
	movq	%rdx, -736(%rbp)
	movq	%rcx, -728(%rbp)
	movq	%rdi, -464(%rbp)
	movq	%rsi, -456(%rbp)
	movq	%rdx, -448(%rbp)
	movq	%rcx, -440(%rbp)
Ltmp951:
	.loc	39 1873 8 prologue_end
	cmpq	$4, %rsi
	jb	LBB113_2
	.loc	39 0 8 is_stmt 0
	movq	-728(%rbp), %rdx
	movq	-744(%rbp), %rcx
	movq	-736(%rbp), %rax
	movq	-752(%rbp), %rsi
	.loc	39 1905 33 is_stmt 1
	movq	%rsi, -400(%rbp)
	movq	%rcx, -392(%rbp)
	.loc	39 1905 45 is_stmt 0
	movq	%rax, -384(%rbp)
	movq	%rdx, -376(%rbp)
	.loc	39 1905 32
	movq	%rsi, -512(%rbp)
	movq	%rax, -504(%rbp)
	.loc	39 1905 14
	movq	-512(%rbp), %rax
	movq	%rax, -528(%rbp)
	.loc	39 1905 22
	movq	-504(%rbp), %rax
	movq	%rax, -520(%rbp)
Ltmp952:
	.loc	39 1906 31 is_stmt 1
	movq	-528(%rbp), %rax
	movq	%rax, -368(%rbp)
	.loc	39 1906 38 is_stmt 0
	subq	$4, %rcx
	movq	%rcx, -360(%rbp)
Ltmp953:
	.loc	3 932 18 is_stmt 1
	movq	%rax, -352(%rbp)
	.loc	3 932 30 is_stmt 0
	movq	%rcx, -344(%rbp)
Ltmp954:
	.loc	3 473 18 is_stmt 1
	addq	%rcx, %rax
	movq	%rax, -336(%rbp)
	movq	-336(%rbp), %rcx
Ltmp955:
	.loc	39 1906 52
	movq	-520(%rbp), %rax
	movq	%rax, -328(%rbp)
	.loc	39 1906 59 is_stmt 0
	subq	$4, %rdx
	movq	%rdx, -320(%rbp)
Ltmp956:
	.loc	3 932 18 is_stmt 1
	movq	%rax, -312(%rbp)
	.loc	3 932 30 is_stmt 0
	movq	%rdx, -304(%rbp)
Ltmp957:
	.loc	3 473 18 is_stmt 1
	addq	%rdx, %rax
	movq	%rax, -296(%rbp)
	movq	-296(%rbp), %rax
Ltmp958:
	.loc	39 1906 30
	movq	%rcx, -496(%rbp)
	movq	%rax, -488(%rbp)
	.loc	39 1906 14 is_stmt 0
	movq	-496(%rbp), %rax
	movq	%rax, -768(%rbp)
	movq	%rax, -288(%rbp)
	.loc	39 1906 21
	movq	-488(%rbp), %rax
	movq	%rax, -760(%rbp)
	movq	%rax, -280(%rbp)
Ltmp959:
	.loc	39 1907 9 is_stmt 1
	jmp	LBB113_10
Ltmp960:
LBB113_2:
	.loc	39 0 9 is_stmt 0
	movq	-744(%rbp), %rsi
	movq	-752(%rbp), %rdi
	.loc	39 1874 27 is_stmt 1
	movq	%rdi, -432(%rbp)
	movq	%rsi, -424(%rbp)
Ltmp961:
	.loc	35 742 9
	callq	__ZN4core5slice4iter13Iter$LT$T$GT$3new17hbaabf0853b215c6fE
	movq	-736(%rbp), %rcx
	movq	-728(%rbp), %r8
	movq	%rax, %rsi
Ltmp962:
	.loc	39 1874 27
	leaq	-656(%rbp), %rdi
	callq	__ZN4core4iter6traits8iterator8Iterator3zip17hcbbc2f686d8310acE
Ltmp963:
	.loc	42 273 9
	leaq	-712(%rbp), %rdi
	leaq	-656(%rbp), %rsi
	movl	$56, %edx
	callq	_memcpy
Ltmp964:
	.loc	39 1874 27
	leaq	-600(%rbp), %rdi
	leaq	-712(%rbp), %rsi
	movl	$56, %edx
	callq	_memcpy
LBB113_3:
	.loc	39 0 27 is_stmt 0
	leaq	-600(%rbp), %rdi
Ltmp965:
	.loc	39 1874 27
	movq	%rdi, -416(%rbp)
Ltmp966:
	.loc	7 84 9 is_stmt 1
	callq	__ZN111_$LT$core..iter..adapters..zip..Zip$LT$A$C$B$GT$$u20$as$u20$core..iter..adapters..zip..ZipImpl$LT$A$C$B$GT$$GT$4next17h8d478919a1a3980eE
	movq	%rdx, -536(%rbp)
	movq	%rax, -544(%rbp)
Ltmp967:
	.loc	39 1874 27
	movq	-544(%rbp), %rdx
	movl	$1, %eax
	xorl	%ecx, %ecx
	cmpq	$0, %rdx
	cmoveq	%rcx, %rax
	cmpq	$0, %rax
	jne	LBB113_5
Ltmp968:
	.loc	39 1879 16
	movb	$1, -713(%rbp)
	.loc	39 1879 9 is_stmt 0
	jmp	LBB113_8
LBB113_5:
Ltmp969:
	.loc	39 1874 15 is_stmt 1
	movq	-544(%rbp), %rax
	movb	(%rax), %al
	movb	%al, -402(%rbp)
	.loc	39 1874 20 is_stmt 0
	movq	-536(%rbp), %rcx
	movb	(%rcx), %cl
	movb	%cl, -401(%rbp)
Ltmp970:
	.loc	39 1875 16 is_stmt 1
	cmpb	%cl, %al
	jne	LBB113_7
Ltmp971:
	.loc	39 1874 9
	jmp	LBB113_3
LBB113_7:
Ltmp972:
	.loc	39 1876 24
	movb	$0, -713(%rbp)
Ltmp973:
LBB113_8:
	.loc	34 1 1
	jmp	LBB113_9
LBB113_9:
	.loc	39 1920 2
	movb	-713(%rbp), %al
	andb	$1, %al
	movzbl	%al, %eax
	addq	$768, %rsp
	popq	%rbp
	retq
LBB113_10:
	.loc	39 0 2 is_stmt 0
	movq	-768(%rbp), %rax
Ltmp974:
	.loc	39 1907 15 is_stmt 1
	cmpq	%rax, -528(%rbp)
	jb	LBB113_12
	.loc	39 0 15 is_stmt 0
	movq	-760(%rbp), %rcx
	movq	-768(%rbp), %rax
	.loc	39 1916 18 is_stmt 1
	movq	%rax, -112(%rbp)
Ltmp975:
	.loc	3 1257 33
	movq	%rax, -104(%rbp)
Ltmp976:
	.loc	4 1250 29
	movq	%rax, -96(%rbp)
	.loc	4 1250 47 is_stmt 0
	leaq	-472(%rbp), %rdx
	movq	%rdx, -88(%rbp)
	leaq	-472(%rbp), %rdx
	movq	%rdx, -80(%rbp)
Ltmp977:
	.loc	43 2372 9 is_stmt 1
	movl	(%rax), %eax
	movl	%eax, -472(%rbp)
Ltmp978:
	.loc	4 1251 9
	movl	-472(%rbp), %eax
	movl	%eax, -68(%rbp)
Ltmp979:
	.loc	30 627 38
	movl	%eax, -64(%rbp)
Ltmp980:
	.loc	13 89 9
	movl	%eax, -60(%rbp)
Ltmp981:
	.loc	39 1917 18
	movq	%rcx, -56(%rbp)
Ltmp982:
	.loc	3 1257 33
	movq	%rcx, -48(%rbp)
Ltmp983:
	.loc	4 1250 29
	movq	%rcx, -40(%rbp)
	.loc	4 1250 47 is_stmt 0
	leaq	-468(%rbp), %rdx
	movq	%rdx, -32(%rbp)
	leaq	-468(%rbp), %rdx
	movq	%rdx, -24(%rbp)
Ltmp984:
	.loc	43 2372 9 is_stmt 1
	movl	(%rcx), %ecx
	movl	%ecx, -468(%rbp)
Ltmp985:
	.loc	4 1251 9
	movl	-468(%rbp), %ecx
	movl	%ecx, -12(%rbp)
Ltmp986:
	.loc	30 627 38
	movl	%ecx, -8(%rbp)
Ltmp987:
	.loc	13 89 9
	movl	%ecx, -4(%rbp)
Ltmp988:
	.loc	39 1918 9
	cmpl	%ecx, %eax
	sete	%al
	andb	$1, %al
	movb	%al, -713(%rbp)
Ltmp989:
	.loc	39 1920 2
	jmp	LBB113_9
LBB113_12:
Ltmp990:
	.loc	39 1908 23
	movq	-528(%rbp), %rax
	.loc	39 1908 22 is_stmt 0
	movq	%rax, -272(%rbp)
Ltmp991:
	.loc	3 1257 33 is_stmt 1
	movq	%rax, -264(%rbp)
Ltmp992:
	.loc	4 1250 29
	movq	%rax, -256(%rbp)
	.loc	4 1250 47 is_stmt 0
	leaq	-480(%rbp), %rcx
	movq	%rcx, -248(%rbp)
	leaq	-480(%rbp), %rcx
	movq	%rcx, -240(%rbp)
Ltmp993:
	.loc	43 2372 9 is_stmt 1
	movl	(%rax), %eax
	movl	%eax, -480(%rbp)
Ltmp994:
	.loc	4 1251 9
	movl	-480(%rbp), %eax
	movl	%eax, -228(%rbp)
Ltmp995:
	.loc	30 627 38
	movl	%eax, -224(%rbp)
Ltmp996:
	.loc	13 89 9
	movl	%eax, -220(%rbp)
Ltmp997:
	.loc	39 1909 23
	movq	-520(%rbp), %rcx
	.loc	39 1909 22 is_stmt 0
	movq	%rcx, -216(%rbp)
Ltmp998:
	.loc	3 1257 33 is_stmt 1
	movq	%rcx, -208(%rbp)
Ltmp999:
	.loc	4 1250 29
	movq	%rcx, -200(%rbp)
	.loc	4 1250 47 is_stmt 0
	leaq	-476(%rbp), %rdx
	movq	%rdx, -192(%rbp)
	leaq	-476(%rbp), %rdx
	movq	%rdx, -184(%rbp)
Ltmp1000:
	.loc	43 2372 9 is_stmt 1
	movl	(%rcx), %ecx
	movl	%ecx, -476(%rbp)
Ltmp1001:
	.loc	4 1251 9
	movl	-476(%rbp), %ecx
	movl	%ecx, -172(%rbp)
Ltmp1002:
	.loc	30 627 38
	movl	%ecx, -168(%rbp)
Ltmp1003:
	.loc	13 89 9
	movl	%ecx, -164(%rbp)
Ltmp1004:
	.loc	39 1910 16
	cmpl	%ecx, %eax
	jne	LBB113_14
	.loc	39 1913 18
	movq	-528(%rbp), %rax
	movq	%rax, -160(%rbp)
Ltmp1005:
	.loc	3 932 18
	movq	%rax, -152(%rbp)
Ltmp1006:
	.loc	3 473 18
	addq	$4, %rax
	movq	%rax, -144(%rbp)
	movq	-144(%rbp), %rax
Ltmp1007:
	.loc	39 1913 13
	movq	%rax, -528(%rbp)
	.loc	39 1914 18
	movq	-520(%rbp), %rax
	movq	%rax, -136(%rbp)
Ltmp1008:
	.loc	3 932 18
	movq	%rax, -128(%rbp)
Ltmp1009:
	.loc	3 473 18
	addq	$4, %rax
	movq	%rax, -120(%rbp)
	movq	-120(%rbp), %rax
Ltmp1010:
	.loc	39 1914 13
	movq	%rax, -520(%rbp)
Ltmp1011:
	.loc	39 1907 9
	jmp	LBB113_10
LBB113_14:
Ltmp1012:
	.loc	39 1911 24
	movb	$0, -713(%rbp)
Ltmp1013:
	.loc	34 1 1
	jmp	LBB113_9
Ltmp1014:
Lfunc_end113:
	.cfi_endproc

	.p2align	4, 0x90
__ZN4core4char7methods15encode_utf8_raw17hf125aa6a4fa575ceE:
Lfunc_begin114:
	.file	47 "/rustc/2c8cc343237b8f7d5a3c3703e3a87f2eb2c54a74/library/core/src/char" "methods.rs"
	.loc	47 1729 0
	.cfi_startproc
	pushq	%rbp
	.cfi_def_cfa_offset 16
	.cfi_offset %rbp, -16
	movq	%rsp, %rbp
	.cfi_def_cfa_register %rbp
	subq	$560, %rsp
	movq	%rsi, -544(%rbp)
	movq	%rdx, -536(%rbp)
	movl	%edi, -516(%rbp)
	movq	%rsi, -304(%rbp)
	movq	%rdx, -296(%rbp)
Ltmp1015:
	.loc	47 1730 24 prologue_end
	movl	-516(%rbp), %edi
	.loc	47 1730 15 is_stmt 0
	callq	__ZN4core4char7methods8len_utf817h86a1996cea361707E
	movq	-544(%rbp), %rsi
	movq	-536(%rbp), %rdx
	movq	%rax, -512(%rbp)
Ltmp1016:
	.loc	47 1731 12 is_stmt 1
	movq	-512(%rbp), %rax
	.loc	47 1731 22 is_stmt 0
	movq	%rsi, -272(%rbp)
	movq	%rdx, -264(%rbp)
Ltmp1017:
	.loc	2 30 25 is_stmt 1
	movq	%rsi, -256(%rbp)
	movq	%rdx, -248(%rbp)
Ltmp1018:
	.loc	47 1731 11
	movq	%rax, -504(%rbp)
	movq	%rsi, -496(%rbp)
	movq	%rdx, -488(%rbp)
	.loc	47 1731 5 is_stmt 0
	movq	-504(%rbp), %rax
	decq	%rax
	movq	%rax, -528(%rbp)
	subq	$3, %rax
	ja	LBB114_1
	.loc	47 0 5
	movq	-528(%rbp), %rax
	leaq	LJTI114_0(%rip), %rcx
	movslq	(%rcx,%rax,4), %rax
	addq	%rcx, %rax
	jmpq	*%rax
LBB114_1:
	movq	-536(%rbp), %rcx
	leaq	-512(%rbp), %rsi
	.loc	47 1750 14 is_stmt 1
	movq	%rsi, -120(%rbp)
Ltmp1019:
	.loc	29 328 23
	movq	%rsi, -112(%rbp)
	.loc	29 328 26 is_stmt 0
	movq	__ZN4core3fmt3num3imp54_$LT$impl$u20$core..fmt..Display$u20$for$u20$usize$GT$3fmt17ha5c925fcd7ed33faE@GOTPCREL(%rip), %rax
	movq	%rax, -104(%rbp)
Ltmp1020:
	.loc	29 347 42 is_stmt 1
	movq	%rax, -96(%rbp)
	movq	-96(%rbp), %rdx
	.loc	29 347 68 is_stmt 0
	movq	%rsi, -88(%rbp)
	movq	-88(%rbp), %rsi
	.loc	29 347 18
	movq	%rsi, -384(%rbp)
	movq	%rdx, -376(%rbp)
	leaq	-516(%rbp), %rsi
Ltmp1021:
	.loc	47 1750 14 is_stmt 1
	movq	%rsi, -80(%rbp)
Ltmp1022:
	.loc	29 328 23
	movq	%rsi, -72(%rbp)
	.loc	29 328 26 is_stmt 0
	movq	__ZN4core3fmt3num53_$LT$impl$u20$core..fmt..UpperHex$u20$for$u20$u32$GT$3fmt17ha96bbefe8f663d11E@GOTPCREL(%rip), %rdx
	movq	%rdx, -64(%rbp)
Ltmp1023:
	.loc	29 347 42 is_stmt 1
	movq	%rdx, -56(%rbp)
	movq	-56(%rbp), %rdx
	.loc	29 347 68 is_stmt 0
	movq	%rsi, -48(%rbp)
	movq	-48(%rbp), %rsi
	.loc	29 347 18
	movq	%rsi, -368(%rbp)
	movq	%rdx, -360(%rbp)
Ltmp1024:
	.loc	47 1754 13 is_stmt 1
	movq	%rcx, -336(%rbp)
	leaq	-336(%rbp), %rcx
	.loc	47 1750 14
	movq	%rcx, -40(%rbp)
Ltmp1025:
	.loc	29 328 23
	movq	%rcx, -32(%rbp)
	.loc	29 328 26 is_stmt 0
	movq	%rax, -24(%rbp)
Ltmp1026:
	.loc	29 347 42 is_stmt 1
	movq	%rax, -16(%rbp)
	movq	-16(%rbp), %rax
	.loc	29 347 68 is_stmt 0
	movq	%rcx, -8(%rbp)
	movq	-8(%rbp), %rcx
	.loc	29 347 18
	movq	%rcx, -352(%rbp)
	movq	%rax, -344(%rbp)
Ltmp1027:
	.loc	47 1750 14 is_stmt 1
	movq	-384(%rbp), %rcx
	movq	-376(%rbp), %rax
	movq	%rcx, -432(%rbp)
	movq	%rax, -424(%rbp)
	movq	-368(%rbp), %rcx
	movq	-360(%rbp), %rax
	movq	%rcx, -416(%rbp)
	movq	%rax, -408(%rbp)
	movq	-352(%rbp), %rcx
	movq	-344(%rbp), %rax
	movq	%rcx, -400(%rbp)
	movq	%rax, -392(%rbp)
	leaq	l___unnamed_24(%rip), %rsi
	leaq	-480(%rbp), %rdi
	movq	%rdi, -552(%rbp)
	leaq	-432(%rbp), %rcx
	movl	$3, %r8d
	movq	%r8, %rdx
	callq	__ZN4core3fmt9Arguments6new_v117h46631685885b00a9E
	movq	-552(%rbp), %rdi
	leaq	l___unnamed_25(%rip), %rsi
	callq	__ZN4core9panicking9panic_fmt17h9b5d807e24bcaaedE
LBB114_2:
	.loc	47 1732 13
	cmpq	$1, -488(%rbp)
	jae	LBB114_10
	jmp	LBB114_1
LBB114_3:
	.loc	47 1735 13
	cmpq	$2, -488(%rbp)
	jae	LBB114_9
	jmp	LBB114_1
LBB114_4:
	.loc	47 1739 13
	cmpq	$3, -488(%rbp)
	jae	LBB114_8
	jmp	LBB114_1
LBB114_5:
	.loc	47 1744 13
	cmpq	$4, -488(%rbp)
	jb	LBB114_1
	.loc	47 1744 14 is_stmt 0
	movq	-496(%rbp), %rsi
	movq	%rsi, -240(%rbp)
	.loc	47 1744 17
	movq	-496(%rbp), %rdx
	movq	%rdx, %rax
	addq	$1, %rax
	movq	%rax, -232(%rbp)
	.loc	47 1744 20
	movq	-496(%rbp), %rcx
	movq	%rcx, %rax
	addq	$2, %rax
	movq	%rax, -224(%rbp)
	.loc	47 1744 23
	movq	-496(%rbp), %rax
	movq	%rax, %rdi
	addq	$3, %rdi
	movq	%rdi, -216(%rbp)
Ltmp1028:
	.loc	47 1745 19 is_stmt 1
	movl	-516(%rbp), %edi
	shrl	$18, %edi
	.loc	47 1745 18 is_stmt 0
	andl	$7, %edi
	.loc	47 1745 13
	orb	$-16, %dil
	movb	%dil, (%rsi)
	.loc	47 1746 19 is_stmt 1
	movl	-516(%rbp), %esi
	shrl	$12, %esi
	.loc	47 1746 18 is_stmt 0
	andl	$63, %esi
	.loc	47 1746 13
	orb	$-128, %sil
	movb	%sil, 1(%rdx)
	.loc	47 1747 19 is_stmt 1
	movl	-516(%rbp), %edx
	shrl	$6, %edx
	.loc	47 1747 18 is_stmt 0
	andl	$63, %edx
	.loc	47 1747 13
	orb	$-128, %dl
	movb	%dl, 2(%rcx)
	.loc	47 1748 19 is_stmt 1
	movl	-516(%rbp), %ecx
	.loc	47 1748 18 is_stmt 0
	andl	$63, %ecx
	.loc	47 1748 13
	orb	$-128, %cl
	movb	%cl, 3(%rax)
Ltmp1029:
LBB114_7:
	.loc	47 0 13
	movq	-536(%rbp), %rcx
	movq	-544(%rbp), %rdx
	.loc	47 1757 10 is_stmt 1
	movq	%rdx, -160(%rbp)
	movq	%rcx, -152(%rbp)
	.loc	47 1757 16 is_stmt 0
	movq	-512(%rbp), %rax
	.loc	47 1757 14
	movq	%rax, -328(%rbp)
Ltmp1030:
	.loc	2 30 9 is_stmt 1
	movq	-328(%rbp), %rax
	movq	%rax, -144(%rbp)
	.loc	2 30 25 is_stmt 0
	movq	%rdx, -136(%rbp)
	movq	%rcx, -128(%rbp)
Ltmp1031:
	.loc	2 461 9 is_stmt 1
	movq	$0, -320(%rbp)
	movq	%rax, -312(%rbp)
	movq	-320(%rbp), %rdi
	movq	-312(%rbp), %rsi
	leaq	l___unnamed_26(%rip), %r8
	callq	__ZN106_$LT$core..ops..range..Range$LT$usize$GT$$u20$as$u20$core..slice..index..SliceIndex$LT$$u5b$T$u5d$$GT$$GT$9index_mut17hfbd5e4400ccd698dE
Ltmp1032:
	.loc	47 1758 2
	addq	$560, %rsp
	popq	%rbp
	retq
LBB114_8:
Ltmp1033:
	.loc	47 1739 14
	movq	-496(%rbp), %rdx
	movq	%rdx, -208(%rbp)
	.loc	47 1739 17 is_stmt 0
	movq	-496(%rbp), %rcx
	movq	%rcx, %rax
	addq	$1, %rax
	movq	%rax, -200(%rbp)
	.loc	47 1739 20
	movq	-496(%rbp), %rax
	movq	%rax, %rsi
	addq	$2, %rsi
	movq	%rsi, -192(%rbp)
Ltmp1034:
	.loc	47 1740 19 is_stmt 1
	movl	-516(%rbp), %esi
	shrl	$12, %esi
	.loc	47 1740 18 is_stmt 0
	andl	$15, %esi
	.loc	47 1740 13
	orb	$-32, %sil
	movb	%sil, (%rdx)
	.loc	47 1741 19 is_stmt 1
	movl	-516(%rbp), %edx
	shrl	$6, %edx
	.loc	47 1741 18 is_stmt 0
	andl	$63, %edx
	.loc	47 1741 13
	orb	$-128, %dl
	movb	%dl, 1(%rcx)
	.loc	47 1742 19 is_stmt 1
	movl	-516(%rbp), %ecx
	.loc	47 1742 18 is_stmt 0
	andl	$63, %ecx
	.loc	47 1742 13
	orb	$-128, %cl
	movb	%cl, 2(%rax)
Ltmp1035:
	.loc	47 1743 9 is_stmt 1
	jmp	LBB114_7
LBB114_9:
	.loc	47 1735 14
	movq	-496(%rbp), %rcx
	movq	%rcx, -184(%rbp)
	.loc	47 1735 17 is_stmt 0
	movq	-496(%rbp), %rax
	movq	%rax, %rdx
	addq	$1, %rdx
	movq	%rdx, -176(%rbp)
Ltmp1036:
	.loc	47 1736 19 is_stmt 1
	movl	-516(%rbp), %edx
	shrl	$6, %edx
	.loc	47 1736 18 is_stmt 0
	andl	$31, %edx
	.loc	47 1736 13
	orb	$-64, %dl
	movb	%dl, (%rcx)
	.loc	47 1737 19 is_stmt 1
	movl	-516(%rbp), %ecx
	.loc	47 1737 18 is_stmt 0
	andl	$63, %ecx
	.loc	47 1737 13
	orb	$-128, %cl
	movb	%cl, 1(%rax)
Ltmp1037:
	.loc	47 1738 9 is_stmt 1
	jmp	LBB114_7
LBB114_10:
	.loc	47 1732 14
	movq	-496(%rbp), %rax
	movq	%rax, -168(%rbp)
Ltmp1038:
	.loc	47 1733 18
	movl	-516(%rbp), %ecx
	.loc	47 1733 13 is_stmt 0
	movb	%cl, (%rax)
Ltmp1039:
	.loc	47 1734 9 is_stmt 1
	jmp	LBB114_7
Ltmp1040:
Lfunc_end114:
	.cfi_endproc
	.p2align	2, 0x90
	.data_region jt32
.set L114_0_set_2, LBB114_2-LJTI114_0
.set L114_0_set_3, LBB114_3-LJTI114_0
.set L114_0_set_4, LBB114_4-LJTI114_0
.set L114_0_set_5, LBB114_5-LJTI114_0
LJTI114_0:
	.long	L114_0_set_2
	.long	L114_0_set_3
	.long	L114_0_set_4
	.long	L114_0_set_5
	.end_data_region

	.p2align	4, 0x90
__ZN4core4char7methods8len_utf817h86a1996cea361707E:
Lfunc_begin115:
	.loc	47 1701 0
	.cfi_startproc
	pushq	%rbp
	.cfi_def_cfa_offset 16
	.cfi_offset %rbp, -16
	movq	%rsp, %rbp
	.cfi_def_cfa_register %rbp
	subq	$24, %rsp
	movl	%edi, -20(%rbp)
	movl	%edi, -4(%rbp)
Ltmp1041:
	.loc	47 1702 8 prologue_end
	cmpl	$128, %edi
	jb	LBB115_2
	.loc	47 0 8 is_stmt 0
	movl	-20(%rbp), %eax
	.loc	47 1704 15 is_stmt 1
	cmpl	$2048, %eax
	jb	LBB115_5
	jmp	LBB115_4
LBB115_2:
	.loc	47 1703 9
	movq	$1, -16(%rbp)
LBB115_3:
	.loc	47 1711 2
	movq	-16(%rbp), %rax
	addq	$24, %rsp
	popq	%rbp
	retq
LBB115_4:
	.loc	47 0 2 is_stmt 0
	movl	-20(%rbp), %eax
	.loc	47 1706 15 is_stmt 1
	cmpl	$65536, %eax
	jb	LBB115_8
	jmp	LBB115_7
LBB115_5:
	.loc	47 1705 9
	movq	$2, -16(%rbp)
LBB115_6:
	.loc	47 1702 5
	jmp	LBB115_3
LBB115_7:
	.loc	47 1709 9
	movq	$4, -16(%rbp)
	.loc	47 1706 12
	jmp	LBB115_9
LBB115_8:
	.loc	47 1707 9
	movq	$3, -16(%rbp)
LBB115_9:
	.loc	47 1704 12
	jmp	LBB115_6
Ltmp1042:
Lfunc_end115:
	.cfi_endproc

	.p2align	4, 0x90
__ZN4core4hint21unreachable_unchecked17hbb1c1bc0a3715898E:
Lfunc_begin116:
	.loc	18 100 0
	.cfi_startproc
	pushq	%rbp
	.cfi_def_cfa_offset 16
	.cfi_offset %rbp, -16
	movq	%rsp, %rbp
	.cfi_def_cfa_register %rbp
Ltmp1043:
	.loc	18 104 9 prologue_end
	ud2
Ltmp1044:
Lfunc_end116:
	.cfi_endproc

	.p2align	4, 0x90
__ZN4core4iter5range116_$LT$impl$u20$core..iter..traits..double_ended..DoubleEndedIterator$u20$for$u20$core..ops..range..Range$LT$A$GT$$GT$9next_back17h0926b3520b806e7dE:
Lfunc_begin117:
	.loc	27 818 0
	.cfi_startproc
	pushq	%rbp
	.cfi_def_cfa_offset 16
	.cfi_offset %rbp, -16
	movq	%rsp, %rbp
	.cfi_def_cfa_register %rbp
	subq	$16, %rsp
	movq	%rdi, -8(%rbp)
Ltmp1045:
	.loc	27 819 9 prologue_end
	callq	__ZN89_$LT$core..ops..range..Range$LT$T$GT$$u20$as$u20$core..iter..range..RangeIteratorImpl$GT$14spec_next_back17h1c3abb8eed7e14e6E
	.loc	27 820 6
	addq	$16, %rsp
	popq	%rbp
	retq
Ltmp1046:
Lfunc_end117:
	.cfi_endproc

	.p2align	4, 0x90
__ZN4core4iter6traits12double_ended19DoubleEndedIterator5rfind5check28_$u7b$$u7b$closure$u7d$$u7d$17h84bfe1a8b97b58eaE:
Lfunc_begin118:
	.loc	40 354 0
	.cfi_startproc
	.cfi_personality 155, _rust_eh_personality
	.cfi_lsda 16, Lexception23
	pushq	%rbp
	.cfi_def_cfa_offset 16
	.cfi_offset %rbp, -16
	movq	%rsp, %rbp
	.cfi_def_cfa_register %rbp
	subq	$80, %rsp
	movq	%rsi, -72(%rbp)
	movq	%rdi, -32(%rbp)
Ltmp1050:
	.loc	40 355 20 prologue_end
	movb	$1, -33(%rbp)
	leaq	-72(%rbp), %rax
	movq	%rax, -48(%rbp)
	movq	-48(%rbp), %rsi
Ltmp1047:
	callq	__ZN4core3str7pattern13simd_contains28_$u7b$$u7b$closure$u7d$$u7d$17h5edfa62f811505e5E
Ltmp1048:
	movb	%al, -73(%rbp)
	jmp	LBB118_3
LBB118_1:
	.loc	40 354 13
	movq	-16(%rbp), %rdi
	callq	__Unwind_Resume
LBB118_2:
Ltmp1049:
	.loc	40 0 13 is_stmt 0
	movq	%rax, %rcx
	movl	%edx, %eax
	movq	%rcx, -16(%rbp)
	movl	%eax, -8(%rbp)
	jmp	LBB118_1
LBB118_3:
	movb	-73(%rbp), %al
	.loc	40 355 20 is_stmt 1
	testb	$1, %al
	jne	LBB118_5
	jmp	LBB118_4
LBB118_4:
	.loc	40 355 67 is_stmt 0
	movq	L___unnamed_27(%rip), %rcx
	movq	L___unnamed_27+8(%rip), %rax
	movq	%rcx, -64(%rbp)
	movq	%rax, -56(%rbp)
	.loc	40 355 17
	jmp	LBB118_6
LBB118_5:
	.loc	40 355 55
	movb	$0, -33(%rbp)
	movq	-72(%rbp), %rax
	.loc	40 355 36
	movq	%rax, -56(%rbp)
	movq	$1, -64(%rbp)
LBB118_6:
	.loc	40 356 13 is_stmt 1
	testb	$1, -33(%rbp)
	jne	LBB118_8
LBB118_7:
	.loc	40 356 14 is_stmt 0
	movq	-64(%rbp), %rax
	movq	-56(%rbp), %rdx
	addq	$80, %rsp
	popq	%rbp
	retq
LBB118_8:
	.loc	40 356 13
	jmp	LBB118_7
Ltmp1051:
Lfunc_end118:
	.cfi_endproc
	.section	__TEXT,__gcc_except_tab
	.p2align	2
GCC_except_table118:
Lexception23:
	.byte	255
	.byte	255
	.byte	1
	.uleb128 Lcst_end23-Lcst_begin23
Lcst_begin23:
	.uleb128 Ltmp1047-Lfunc_begin118
	.uleb128 Ltmp1048-Ltmp1047
	.uleb128 Ltmp1049-Lfunc_begin118
	.byte	0
	.uleb128 Ltmp1048-Lfunc_begin118
	.uleb128 Lfunc_end118-Ltmp1048
	.byte	0
	.byte	0
Lcst_end23:
	.p2align	2

	.section	__TEXT,__text,regular,pure_instructions
	.p2align	4, 0x90
__ZN4core4iter6traits12double_ended19DoubleEndedIterator9try_rfold17hc3bd4a0b07280098E:
Lfunc_begin119:
	.loc	40 221 0 is_stmt 1
	.cfi_startproc
	.cfi_personality 155, _rust_eh_personality
	.cfi_lsda 16, Lexception24
	pushq	%rbp
	.cfi_def_cfa_offset 16
	.cfi_offset %rbp, -16
	movq	%rsp, %rbp
	.cfi_def_cfa_register %rbp
	subq	$224, %rsp
	movq	%rdi, -144(%rbp)
	movq	%rsi, -136(%rbp)
Ltmp1063:
	movq	%rdi, -64(%rbp)
Ltmp1064:
	.loc	40 227 25 prologue_end
	movb	$1, -65(%rbp)
Ltmp1065:
LBB119_1:
Ltmp1052:
	.loc	40 0 25 is_stmt 0
	movq	-144(%rbp), %rdi
Ltmp1066:
	.loc	40 228 29 is_stmt 1
	callq	__ZN4core4iter5range116_$LT$impl$u20$core..iter..traits..double_ended..DoubleEndedIterator$u20$for$u20$core..ops..range..Range$LT$A$GT$$GT$9next_back17h0926b3520b806e7dE
Ltmp1053:
	movq	%rdx, -160(%rbp)
	movq	%rax, -152(%rbp)
	jmp	LBB119_4
Ltmp1067:
LBB119_2:
	.loc	40 232 5
	testb	$1, -65(%rbp)
	jne	LBB119_16
	jmp	LBB119_15
Ltmp1068:
LBB119_3:
Ltmp1062:
	.loc	40 0 5 is_stmt 0
	movq	%rax, %rcx
	movl	%edx, %eax
	movq	%rcx, -32(%rbp)
	movl	%eax, -24(%rbp)
	jmp	LBB119_2
Ltmp1069:
LBB119_4:
	movq	-160(%rbp), %rax
	movq	-152(%rbp), %rcx
Ltmp1070:
	.loc	40 228 29 is_stmt 1
	movq	%rcx, -112(%rbp)
	movq	%rax, -104(%rbp)
	.loc	40 228 19 is_stmt 0
	cmpq	$1, -112(%rbp)
	jne	LBB119_6
Ltmp1071:
	.loc	40 0 19
	movq	-136(%rbp), %rdi
	.loc	40 228 24
	movq	-104(%rbp), %rax
	movq	%rax, -16(%rbp)
	.loc	40 229 23 is_stmt 1
	movb	$0, -65(%rbp)
	.loc	40 229 21 is_stmt 0
	movq	%rax, -80(%rbp)
	movq	-80(%rbp), %rsi
Ltmp1056:
	callq	__ZN4core4iter6traits12double_ended19DoubleEndedIterator5rfind5check28_$u7b$$u7b$closure$u7d$$u7d$17h84bfe1a8b97b58eaE
Ltmp1057:
	movq	%rdx, -176(%rbp)
	movq	%rax, -168(%rbp)
	jmp	LBB119_10
Ltmp1072:
LBB119_6:
	.loc	40 228 9 is_stmt 1
	jmp	LBB119_7
Ltmp1073:
LBB119_7:
	.loc	40 231 15
	movb	$0, -65(%rbp)
Ltmp1054:
	callq	__ZN95_$LT$core..ops..control_flow..ControlFlow$LT$B$C$C$GT$$u20$as$u20$core..ops..try_trait..Try$GT$11from_output17h721f85309a97402fE
Ltmp1055:
	movq	%rdx, -192(%rbp)
	movq	%rax, -184(%rbp)
	jmp	LBB119_8
Ltmp1074:
LBB119_8:
	.loc	40 0 15 is_stmt 0
	movq	-192(%rbp), %rax
	movq	-184(%rbp), %rcx
	.loc	40 231 15
	movq	%rcx, -128(%rbp)
	movq	%rax, -120(%rbp)
Ltmp1075:
LBB119_9:
	.loc	40 232 6 is_stmt 1
	movq	-128(%rbp), %rax
	movq	-120(%rbp), %rdx
	addq	$224, %rsp
	popq	%rbp
	retq
Ltmp1076:
LBB119_10:
Ltmp1058:
	.loc	40 0 6 is_stmt 0
	movq	-176(%rbp), %rsi
	movq	-168(%rbp), %rdi
Ltmp1077:
	.loc	40 229 21 is_stmt 1
	callq	__ZN95_$LT$core..ops..control_flow..ControlFlow$LT$B$C$C$GT$$u20$as$u20$core..ops..try_trait..Try$GT$6branch17h577057ebed94e553E
Ltmp1059:
	movq	%rdx, -208(%rbp)
	movq	%rax, -200(%rbp)
	jmp	LBB119_11
Ltmp1078:
LBB119_11:
	.loc	40 0 21 is_stmt 0
	movq	-208(%rbp), %rax
	movq	-200(%rbp), %rcx
	.loc	40 229 21
	movq	%rcx, -96(%rbp)
	movq	%rax, -88(%rbp)
	cmpq	$0, -96(%rbp)
	jne	LBB119_13
Ltmp1079:
	.loc	40 229 13
	movb	$1, -65(%rbp)
Ltmp1080:
	.loc	40 228 9 is_stmt 1
	jmp	LBB119_1
Ltmp1081:
LBB119_13:
	.loc	40 229 32
	movq	-88(%rbp), %rdi
	movq	%rdi, -8(%rbp)
Ltmp1060:
Ltmp1082:
	.loc	40 229 21 is_stmt 0
	callq	__ZN104_$LT$core..ops..control_flow..ControlFlow$LT$B$C$C$GT$$u20$as$u20$core..ops..try_trait..FromResidual$GT$13from_residual17h975f23018b2a4f90E
Ltmp1061:
	movq	%rdx, -224(%rbp)
	movq	%rax, -216(%rbp)
	jmp	LBB119_14
Ltmp1083:
LBB119_14:
	.loc	40 0 21
	movq	-224(%rbp), %rax
	movq	-216(%rbp), %rcx
	.loc	40 229 21
	movq	%rcx, -128(%rbp)
	movq	%rax, -120(%rbp)
Ltmp1084:
	.loc	40 232 5 is_stmt 1
	jmp	LBB119_9
Ltmp1085:
LBB119_15:
	.loc	40 221 5
	movq	-32(%rbp), %rdi
	callq	__Unwind_Resume
Ltmp1086:
LBB119_16:
	.loc	40 232 5
	jmp	LBB119_15
Ltmp1087:
Lfunc_end119:
	.cfi_endproc
	.section	__TEXT,__gcc_except_tab
	.p2align	2
GCC_except_table119:
Lexception24:
	.byte	255
	.byte	255
	.byte	1
	.uleb128 Lcst_end24-Lcst_begin24
Lcst_begin24:
	.uleb128 Ltmp1052-Lfunc_begin119
	.uleb128 Ltmp1061-Ltmp1052
	.uleb128 Ltmp1062-Lfunc_begin119
	.byte	0
	.uleb128 Ltmp1061-Lfunc_begin119
	.uleb128 Lfunc_end119-Ltmp1061
	.byte	0
	.byte	0
Lcst_end24:
	.p2align	2

	.section	__TEXT,__text,regular,pure_instructions
	.p2align	4, 0x90
__ZN4core4iter6traits8iterator8Iterator3any17hcd2a4496fba48662E:
Lfunc_begin120:
	.loc	41 2649 0
	.cfi_startproc
	pushq	%rbp
	.cfi_def_cfa_offset 16
	.cfi_offset %rbp, -16
	movq	%rsp, %rbp
	.cfi_def_cfa_register %rbp
	subq	$48, %rsp
	movq	%rdi, -24(%rbp)
	movq	%rsi, -16(%rbp)
Ltmp1088:
	.loc	41 2661 33 prologue_end
	movq	%rsi, -8(%rbp)
Ltmp1089:
	.loc	41 2656 13
	movq	%rsi, -32(%rbp)
Ltmp1090:
	.loc	41 2661 9
	movq	-32(%rbp), %rsi
	callq	__ZN4core4iter6traits8iterator8Iterator8try_fold17ha8fd8c6a67a6f7c0E
	andb	$1, %al
	movb	%al, -33(%rbp)
	leaq	-33(%rbp), %rdi
	leaq	l___unnamed_14(%rip), %rsi
	callq	__ZN90_$LT$core..ops..control_flow..ControlFlow$LT$B$C$C$GT$$u20$as$u20$core..cmp..PartialEq$GT$2eq17h5496266d38f6c183E
	.loc	41 2662 6
	andb	$1, %al
	movzbl	%al, %eax
	addq	$48, %rsp
	popq	%rbp
	retq
Ltmp1091:
Lfunc_end120:
	.cfi_endproc

	.p2align	4, 0x90
__ZN4core4iter6traits8iterator8Iterator3any5check28_$u7b$$u7b$closure$u7d$$u7d$17ha9ca55f1f589a5f4E:
Lfunc_begin121:
	.loc	41 2656 0
	.cfi_startproc
	pushq	%rbp
	.cfi_def_cfa_offset 16
	.cfi_offset %rbp, -16
	movq	%rsp, %rbp
	.cfi_def_cfa_register %rbp
	subq	$64, %rsp
	movq	%rdi, -32(%rbp)
	movq	%rsi, -16(%rbp)
	movq	%rdx, -8(%rbp)
Ltmp1092:
	.loc	41 2657 20 prologue_end
	movq	%rsi, -48(%rbp)
	movq	%rdx, -40(%rbp)
	movq	-48(%rbp), %rsi
	movq	-40(%rbp), %rdx
	callq	__ZN4core3str7pattern13simd_contains28_$u7b$$u7b$closure$u7d$$u7d$17hb42c8a0f7e27d126E
	testb	$1, %al
	jne	LBB121_2
	.loc	41 2657 55 is_stmt 0
	movb	$0, -49(%rbp)
	.loc	41 2657 17
	jmp	LBB121_3
LBB121_2:
	.loc	41 2657 27
	movb	$1, -49(%rbp)
LBB121_3:
	.loc	41 2658 14 is_stmt 1
	movb	-49(%rbp), %al
	andb	$1, %al
	movzbl	%al, %eax
	addq	$64, %rsp
	popq	%rbp
	retq
Ltmp1093:
Lfunc_end121:
	.cfi_endproc

	.p2align	4, 0x90
__ZN4core4iter6traits8iterator8Iterator3any5check28_$u7b$$u7b$closure$u7d$$u7d$17hf03dc7ac93b4e18aE:
Lfunc_begin122:
	.loc	41 2656 0
	.cfi_startproc
	pushq	%rbp
	.cfi_def_cfa_offset 16
	.cfi_offset %rbp, -16
	movq	%rsp, %rbp
	.cfi_def_cfa_register %rbp
	subq	$64, %rsp
	movq	%rdi, -32(%rbp)
	movq	%rsi, -16(%rbp)
	movq	%rdx, -8(%rbp)
Ltmp1094:
	.loc	41 2657 20 prologue_end
	movq	%rsi, -48(%rbp)
	movq	%rdx, -40(%rbp)
	movq	-48(%rbp), %rsi
	movq	-40(%rbp), %rdx
	callq	__ZN18build_script_build15feature_allowed28_$u7b$$u7b$closure$u7d$$u7d$17h4cadde3fa76654eeE
	testb	$1, %al
	jne	LBB122_2
	.loc	41 2657 55 is_stmt 0
	movb	$0, -49(%rbp)
	.loc	41 2657 17
	jmp	LBB122_3
LBB122_2:
	.loc	41 2657 27
	movb	$1, -49(%rbp)
LBB122_3:
	.loc	41 2658 14 is_stmt 1
	movb	-49(%rbp), %al
	andb	$1, %al
	movzbl	%al, %eax
	addq	$64, %rsp
	popq	%rbp
	retq
Ltmp1095:
Lfunc_end122:
	.cfi_endproc

	.p2align	4, 0x90
__ZN4core4iter6traits8iterator8Iterator3zip17hcbbc2f686d8310acE:
Lfunc_begin123:
	.loc	41 623 0
	.cfi_startproc
	.cfi_personality 155, _rust_eh_personality
	.cfi_lsda 16, Lexception25
	pushq	%rbp
	.cfi_def_cfa_offset 16
	.cfi_offset %rbp, -16
	movq	%rsp, %rbp
	.cfi_def_cfa_register %rbp
	subq	$128, %rsp
	movq	%r8, -112(%rbp)
	movq	%rcx, -96(%rbp)
	movq	%rdx, -120(%rbp)
	movq	%rsi, %rax
	movq	-112(%rbp), %rsi
	movq	%rax, -104(%rbp)
	movq	%rdi, %rcx
	movq	-96(%rbp), %rdi
	movq	%rcx, -88(%rbp)
	movq	%rcx, -80(%rbp)
	movq	%rax, -48(%rbp)
	movq	%rdx, -40(%rbp)
	movq	%rdi, -32(%rbp)
	movq	%rsi, -24(%rbp)
Ltmp1101:
	.loc	41 628 18 prologue_end
	movb	$1, -49(%rbp)
Ltmp1096:
	.loc	41 628 24 is_stmt 0
	callq	__ZN4core5slice4iter87_$LT$impl$u20$core..iter..traits..collect..IntoIterator$u20$for$u20$$RF$$u5b$T$u5d$$GT$9into_iter17hbbbf5cee932410a2E
Ltmp1097:
	movq	%rdx, -72(%rbp)
	movq	%rax, -64(%rbp)
	jmp	LBB123_3
LBB123_1:
	.loc	41 628 41
	testb	$1, -49(%rbp)
	jne	LBB123_6
	jmp	LBB123_5
LBB123_2:
Ltmp1100:
	.loc	41 0 41
	movq	%rax, %rcx
	movl	%edx, %eax
	movq	%rcx, -16(%rbp)
	movl	%eax, -8(%rbp)
	jmp	LBB123_1
LBB123_3:
	movq	-72(%rbp), %r8
	movq	-64(%rbp), %rcx
	movq	-120(%rbp), %rdx
	movq	-104(%rbp), %rsi
	movq	-88(%rbp), %rdi
	.loc	41 628 9
	movb	$0, -49(%rbp)
Ltmp1098:
	callq	__ZN4core4iter8adapters3zip16Zip$LT$A$C$B$GT$3new17h2aa11acf758c4935E
Ltmp1099:
	jmp	LBB123_4
LBB123_4:
	.loc	41 0 9
	movq	-80(%rbp), %rax
	.loc	41 629 6 is_stmt 1
	addq	$128, %rsp
	popq	%rbp
	retq
LBB123_5:
	.loc	41 623 5
	movq	-16(%rbp), %rdi
	callq	__Unwind_Resume
LBB123_6:
	.loc	41 628 41
	jmp	LBB123_5
Ltmp1102:
Lfunc_end123:
	.cfi_endproc
	.section	__TEXT,__gcc_except_tab
	.p2align	2
GCC_except_table123:
Lexception25:
	.byte	255
	.byte	255
	.byte	1
	.uleb128 Lcst_end25-Lcst_begin25
Lcst_begin25:
	.uleb128 Ltmp1096-Lfunc_begin123
	.uleb128 Ltmp1099-Ltmp1096
	.uleb128 Ltmp1100-Lfunc_begin123
	.byte	0
	.uleb128 Ltmp1099-Lfunc_begin123
	.uleb128 Lfunc_end123-Ltmp1099
	.byte	0
	.byte	0
Lcst_end25:
	.p2align	2

	.section	__TEXT,__text,regular,pure_instructions
	.p2align	4, 0x90
__ZN4core4iter6traits8iterator8Iterator8try_fold17ha8fd8c6a67a6f7c0E:
Lfunc_begin124:
	.loc	41 2254 0
	.cfi_startproc
	.cfi_personality 155, _rust_eh_personality
	.cfi_lsda 16, Lexception26
	pushq	%rbp
	.cfi_def_cfa_offset 16
	.cfi_offset %rbp, -16
	movq	%rsp, %rbp
	.cfi_def_cfa_register %rbp
	subq	$176, %rsp
	movq	%rdi, -144(%rbp)
	movq	%rsi, -136(%rbp)
	movq	%rdi, -72(%rbp)
Ltmp1114:
	.loc	41 2260 25 prologue_end
	movb	$1, -73(%rbp)
LBB124_1:
Ltmp1103:
	.loc	41 0 25 is_stmt 0
	movq	-144(%rbp), %rdi
Ltmp1115:
	.loc	41 2261 29 is_stmt 1
	callq	__ZN90_$LT$core..str..iter..Split$LT$P$GT$$u20$as$u20$core..iter..traits..iterator..Iterator$GT$4next17h58ab9fdcf8f39e0eE
Ltmp1104:
	movq	%rdx, -160(%rbp)
	movq	%rax, -152(%rbp)
	jmp	LBB124_4
Ltmp1116:
LBB124_2:
	.loc	41 2265 5
	testb	$1, -73(%rbp)
	jne	LBB124_16
	jmp	LBB124_15
LBB124_3:
Ltmp1113:
	.loc	41 0 5 is_stmt 0
	movq	%rax, %rcx
	movl	%edx, %eax
	movq	%rcx, -32(%rbp)
	movl	%eax, -24(%rbp)
	jmp	LBB124_2
LBB124_4:
	movq	-160(%rbp), %rax
	movq	-152(%rbp), %rcx
Ltmp1117:
	.loc	41 2261 29 is_stmt 1
	movq	%rcx, -120(%rbp)
	movq	%rax, -112(%rbp)
	.loc	41 2261 19 is_stmt 0
	movq	-120(%rbp), %rdx
	movl	$1, %eax
	xorl	%ecx, %ecx
	cmpq	$0, %rdx
	cmoveq	%rcx, %rax
	cmpq	$1, %rax
	jne	LBB124_6
	.loc	41 2261 24
	movq	-120(%rbp), %rcx
	movq	-112(%rbp), %rax
	movq	%rcx, -16(%rbp)
	movq	%rax, -8(%rbp)
	.loc	41 2262 23 is_stmt 1
	movb	$0, -73(%rbp)
	.loc	41 2262 21 is_stmt 0
	movq	%rcx, -96(%rbp)
	movq	%rax, -88(%rbp)
	movq	-96(%rbp), %rsi
	movq	-88(%rbp), %rdx
Ltmp1107:
	leaq	-136(%rbp), %rdi
	callq	__ZN4core4iter6traits8iterator8Iterator3any5check28_$u7b$$u7b$closure$u7d$$u7d$17hf03dc7ac93b4e18aE
Ltmp1108:
	movb	%al, -161(%rbp)
	jmp	LBB124_10
Ltmp1118:
LBB124_6:
	.loc	41 2261 9 is_stmt 1
	jmp	LBB124_7
LBB124_7:
	.loc	41 2264 15
	movb	$0, -73(%rbp)
Ltmp1105:
	callq	__ZN95_$LT$core..ops..control_flow..ControlFlow$LT$B$C$C$GT$$u20$as$u20$core..ops..try_trait..Try$GT$11from_output17h0df41f95f9d20288E
Ltmp1106:
	movb	%al, -162(%rbp)
	jmp	LBB124_8
LBB124_8:
	.loc	41 0 15 is_stmt 0
	movb	-162(%rbp), %al
	.loc	41 2264 15
	andb	$1, %al
	movb	%al, -121(%rbp)
Ltmp1119:
LBB124_9:
	.loc	41 2265 6 is_stmt 1
	movb	-121(%rbp), %al
	andb	$1, %al
	movzbl	%al, %eax
	addq	$176, %rsp
	popq	%rbp
	retq
LBB124_10:
Ltmp1109:
	.loc	41 0 6 is_stmt 0
	movb	-161(%rbp), %al
Ltmp1120:
	.loc	41 2262 21 is_stmt 1
	movzbl	%al, %edi
	andl	$1, %edi
	callq	__ZN95_$LT$core..ops..control_flow..ControlFlow$LT$B$C$C$GT$$u20$as$u20$core..ops..try_trait..Try$GT$6branch17ha8e85cac6864abcdE
Ltmp1110:
	movb	%al, -163(%rbp)
	jmp	LBB124_11
LBB124_11:
	.loc	41 0 21 is_stmt 0
	movb	-163(%rbp), %al
	.loc	41 2262 21
	andb	$1, %al
	movb	%al, -97(%rbp)
	movb	-97(%rbp), %al
	andb	$1, %al
	movzbl	%al, %eax
	cmpq	$0, %rax
	jne	LBB124_13
	.loc	41 2262 13
	movb	$1, -73(%rbp)
Ltmp1121:
	.loc	41 2261 9 is_stmt 1
	jmp	LBB124_1
LBB124_13:
Ltmp1111:
Ltmp1122:
	.loc	41 2262 21
	callq	__ZN104_$LT$core..ops..control_flow..ControlFlow$LT$B$C$C$GT$$u20$as$u20$core..ops..try_trait..FromResidual$GT$13from_residual17h641c5f504e30a0f5E
Ltmp1112:
	movb	%al, -164(%rbp)
	jmp	LBB124_14
LBB124_14:
	.loc	41 0 21 is_stmt 0
	movb	-164(%rbp), %al
	.loc	41 2262 21
	andb	$1, %al
	movb	%al, -121(%rbp)
Ltmp1123:
	.loc	41 2265 5 is_stmt 1
	jmp	LBB124_9
LBB124_15:
	.loc	41 2254 5
	movq	-32(%rbp), %rdi
	callq	__Unwind_Resume
LBB124_16:
	.loc	41 2265 5
	jmp	LBB124_15
Ltmp1124:
Lfunc_end124:
	.cfi_endproc
	.section	__TEXT,__gcc_except_tab
	.p2align	2
GCC_except_table124:
Lexception26:
	.byte	255
	.byte	255
	.byte	1
	.uleb128 Lcst_end26-Lcst_begin26
Lcst_begin26:
	.uleb128 Ltmp1103-Lfunc_begin124
	.uleb128 Ltmp1112-Ltmp1103
	.uleb128 Ltmp1113-Lfunc_begin124
	.byte	0
	.uleb128 Ltmp1112-Lfunc_begin124
	.uleb128 Lfunc_end124-Ltmp1112
	.byte	0
	.byte	0
Lcst_end26:
	.p2align	2

	.section	__TEXT,__text,regular,pure_instructions
	.p2align	4, 0x90
__ZN4core4iter6traits8iterator8Iterator8try_fold17hacf1c18f3d5ed086E:
Lfunc_begin125:
	.loc	41 2254 0
	.cfi_startproc
	.cfi_personality 155, _rust_eh_personality
	.cfi_lsda 16, Lexception27
	pushq	%rbp
	.cfi_def_cfa_offset 16
	.cfi_offset %rbp, -16
	movq	%rsp, %rbp
	.cfi_def_cfa_register %rbp
	subq	$176, %rsp
	movq	%rdi, -144(%rbp)
	movq	%rsi, -136(%rbp)
	movq	%rdi, -72(%rbp)
Ltmp1136:
	.loc	41 2260 25 prologue_end
	movb	$1, -73(%rbp)
LBB125_1:
Ltmp1125:
	.loc	41 0 25 is_stmt 0
	movq	-144(%rbp), %rdi
Ltmp1137:
	.loc	41 2261 29 is_stmt 1
	callq	__ZN94_$LT$core..slice..iter..Windows$LT$T$GT$$u20$as$u20$core..iter..traits..iterator..Iterator$GT$4next17h0833a1f4c5b14df1E
Ltmp1126:
	movq	%rdx, -160(%rbp)
	movq	%rax, -152(%rbp)
	jmp	LBB125_4
Ltmp1138:
LBB125_2:
	.loc	41 2265 5
	testb	$1, -73(%rbp)
	jne	LBB125_16
	jmp	LBB125_15
LBB125_3:
Ltmp1135:
	.loc	41 0 5 is_stmt 0
	movq	%rax, %rcx
	movl	%edx, %eax
	movq	%rcx, -32(%rbp)
	movl	%eax, -24(%rbp)
	jmp	LBB125_2
LBB125_4:
	movq	-160(%rbp), %rax
	movq	-152(%rbp), %rcx
Ltmp1139:
	.loc	41 2261 29 is_stmt 1
	movq	%rcx, -120(%rbp)
	movq	%rax, -112(%rbp)
	.loc	41 2261 19 is_stmt 0
	movq	-120(%rbp), %rdx
	movl	$1, %eax
	xorl	%ecx, %ecx
	cmpq	$0, %rdx
	cmoveq	%rcx, %rax
	cmpq	$1, %rax
	jne	LBB125_6
	.loc	41 2261 24
	movq	-120(%rbp), %rcx
	movq	-112(%rbp), %rax
	movq	%rcx, -16(%rbp)
	movq	%rax, -8(%rbp)
	.loc	41 2262 23 is_stmt 1
	movb	$0, -73(%rbp)
	.loc	41 2262 21 is_stmt 0
	movq	%rcx, -96(%rbp)
	movq	%rax, -88(%rbp)
	movq	-96(%rbp), %rsi
	movq	-88(%rbp), %rdx
Ltmp1129:
	leaq	-136(%rbp), %rdi
	callq	__ZN4core4iter6traits8iterator8Iterator3any5check28_$u7b$$u7b$closure$u7d$$u7d$17ha9ca55f1f589a5f4E
Ltmp1130:
	movb	%al, -161(%rbp)
	jmp	LBB125_10
Ltmp1140:
LBB125_6:
	.loc	41 2261 9 is_stmt 1
	jmp	LBB125_7
LBB125_7:
	.loc	41 2264 15
	movb	$0, -73(%rbp)
Ltmp1127:
	callq	__ZN95_$LT$core..ops..control_flow..ControlFlow$LT$B$C$C$GT$$u20$as$u20$core..ops..try_trait..Try$GT$11from_output17h0df41f95f9d20288E
Ltmp1128:
	movb	%al, -162(%rbp)
	jmp	LBB125_8
LBB125_8:
	.loc	41 0 15 is_stmt 0
	movb	-162(%rbp), %al
	.loc	41 2264 15
	andb	$1, %al
	movb	%al, -121(%rbp)
Ltmp1141:
LBB125_9:
	.loc	41 2265 6 is_stmt 1
	movb	-121(%rbp), %al
	andb	$1, %al
	movzbl	%al, %eax
	addq	$176, %rsp
	popq	%rbp
	retq
LBB125_10:
Ltmp1131:
	.loc	41 0 6 is_stmt 0
	movb	-161(%rbp), %al
Ltmp1142:
	.loc	41 2262 21 is_stmt 1
	movzbl	%al, %edi
	andl	$1, %edi
	callq	__ZN95_$LT$core..ops..control_flow..ControlFlow$LT$B$C$C$GT$$u20$as$u20$core..ops..try_trait..Try$GT$6branch17ha8e85cac6864abcdE
Ltmp1132:
	movb	%al, -163(%rbp)
	jmp	LBB125_11
LBB125_11:
	.loc	41 0 21 is_stmt 0
	movb	-163(%rbp), %al
	.loc	41 2262 21
	andb	$1, %al
	movb	%al, -97(%rbp)
	movb	-97(%rbp), %al
	andb	$1, %al
	movzbl	%al, %eax
	cmpq	$0, %rax
	jne	LBB125_13
	.loc	41 2262 13
	movb	$1, -73(%rbp)
Ltmp1143:
	.loc	41 2261 9 is_stmt 1
	jmp	LBB125_1
LBB125_13:
Ltmp1133:
Ltmp1144:
	.loc	41 2262 21
	callq	__ZN104_$LT$core..ops..control_flow..ControlFlow$LT$B$C$C$GT$$u20$as$u20$core..ops..try_trait..FromResidual$GT$13from_residual17h641c5f504e30a0f5E
Ltmp1134:
	movb	%al, -164(%rbp)
	jmp	LBB125_14
LBB125_14:
	.loc	41 0 21 is_stmt 0
	movb	-164(%rbp), %al
	.loc	41 2262 21
	andb	$1, %al
	movb	%al, -121(%rbp)
Ltmp1145:
	.loc	41 2265 5 is_stmt 1
	jmp	LBB125_9
LBB125_15:
	.loc	41 2254 5
	movq	-32(%rbp), %rdi
	callq	__Unwind_Resume
LBB125_16:
	.loc	41 2265 5
	jmp	LBB125_15
Ltmp1146:
Lfunc_end125:
	.cfi_endproc
	.section	__TEXT,__gcc_except_tab
	.p2align	2
GCC_except_table125:
Lexception27:
	.byte	255
	.byte	255
	.byte	1
	.uleb128 Lcst_end27-Lcst_begin27
Lcst_begin27:
	.uleb128 Ltmp1125-Lfunc_begin125
	.uleb128 Ltmp1134-Ltmp1125
	.uleb128 Ltmp1135-Lfunc_begin125
	.byte	0
	.uleb128 Ltmp1134-Lfunc_begin125
	.uleb128 Lfunc_end125-Ltmp1134
	.byte	0
	.byte	0
Lcst_end27:
	.p2align	2

	.section	__TEXT,__text,regular,pure_instructions
	.p2align	4, 0x90
__ZN4core4iter8adapters3rev12Rev$LT$T$GT$3new17hbd1ef9e7409b61cfE:
Lfunc_begin126:
	.loc	46 19 0
	.cfi_startproc
	pushq	%rbp
	.cfi_def_cfa_offset 16
	.cfi_offset %rbp, -16
	movq	%rsp, %rbp
	.cfi_def_cfa_register %rbp
	subq	$32, %rsp
	movq	%rdi, -16(%rbp)
	movq	%rsi, -8(%rbp)
Ltmp1147:
	.loc	46 20 9 prologue_end
	movq	%rdi, -32(%rbp)
	movq	%rsi, -24(%rbp)
	.loc	46 21 6
	movq	-32(%rbp), %rax
	movq	-24(%rbp), %rdx
	addq	$32, %rsp
	popq	%rbp
	retq
Ltmp1148:
Lfunc_end126:
	.cfi_endproc

	.p2align	4, 0x90
__ZN4core4iter8adapters3zip16Zip$LT$A$C$B$GT$3new17h2aa11acf758c4935E:
Lfunc_begin127:
	.loc	7 22 0
	.cfi_startproc
	pushq	%rbp
	.cfi_def_cfa_offset 16
	.cfi_offset %rbp, -16
	movq	%rsp, %rbp
	.cfi_def_cfa_register %rbp
	subq	$48, %rsp
	movq	%rdi, %rax
	movq	%rax, -40(%rbp)
	movq	%rsi, -32(%rbp)
	movq	%rdx, -24(%rbp)
	movq	%rcx, -16(%rbp)
	movq	%r8, -8(%rbp)
Ltmp1149:
	.loc	7 23 9 prologue_end
	callq	__ZN111_$LT$core..iter..adapters..zip..Zip$LT$A$C$B$GT$$u20$as$u20$core..iter..adapters..zip..ZipImpl$LT$A$C$B$GT$$GT$3new17h3da239bd42816f12E
	movq	-40(%rbp), %rax
	.loc	7 24 6
	addq	$48, %rsp
	popq	%rbp
	retq
Ltmp1150:
Lfunc_end127:
	.cfi_endproc

	.p2align	4, 0x90
__ZN4core4iter8adapters3zip27TrustedRandomAccessNoCoerce4size17h07f0ae49a85968e7E:
Lfunc_begin128:
	.loc	7 538 0
	.cfi_startproc
	pushq	%rbp
	.cfi_def_cfa_offset 16
	.cfi_offset %rbp, -16
	movq	%rsp, %rbp
	.cfi_def_cfa_register %rbp
	subq	$32, %rsp
	movq	%rdi, %rsi
	movq	%rsi, -8(%rbp)
Ltmp1151:
	.loc	7 542 9 prologue_end
	leaq	-32(%rbp), %rdi
	callq	__ZN91_$LT$core..slice..iter..Iter$LT$T$GT$$u20$as$u20$core..iter..traits..iterator..Iterator$GT$9size_hint17hb4e90f6d605b33e9E
	movq	-32(%rbp), %rax
	.loc	7 543 6
	addq	$32, %rsp
	popq	%rbp
	retq
Ltmp1152:
Lfunc_end128:
	.cfi_endproc

	.p2align	4, 0x90
__ZN4core5alloc6layout10size_align17ha45c53856569ec5fE:
Lfunc_begin129:
	.file	48 "/rustc/2c8cc343237b8f7d5a3c3703e3a87f2eb2c54a74/library/core/src/alloc" "layout.rs"
	.loc	48 19 0
	.cfi_startproc
	pushq	%rbp
	.cfi_def_cfa_offset 16
	.cfi_offset %rbp, -16
	movq	%rsp, %rbp
	.cfi_def_cfa_register %rbp
	subq	$16, %rsp
Ltmp1153:
	.loc	48 20 5 prologue_end
	movq	$640, -16(%rbp)
	movq	$8, -8(%rbp)
	.loc	48 21 2
	movq	-16(%rbp), %rax
	movq	-8(%rbp), %rdx
	addq	$16, %rsp
	popq	%rbp
	retq
Ltmp1154:
Lfunc_end129:
	.cfi_endproc

	.p2align	4, 0x90
__ZN4core5alloc6layout10size_align17hc428ec4726d272edE:
Lfunc_begin130:
	.loc	48 19 0
	.cfi_startproc
	pushq	%rbp
	.cfi_def_cfa_offset 16
	.cfi_offset %rbp, -16
	movq	%rsp, %rbp
	.cfi_def_cfa_register %rbp
	subq	$16, %rsp
Ltmp1155:
	.loc	48 20 5 prologue_end
	movq	$544, -16(%rbp)
	movq	$8, -8(%rbp)
	.loc	48 21 2
	movq	-16(%rbp), %rax
	movq	-8(%rbp), %rdx
	addq	$16, %rsp
	popq	%rbp
	retq
Ltmp1156:
Lfunc_end130:
	.cfi_endproc

	.p2align	4, 0x90
__ZN4core5alloc6layout6Layout5array5inner17h2951df14cae787ccE:
Lfunc_begin131:
	.loc	48 441 0
	.cfi_startproc
	pushq	%rbp
	.cfi_def_cfa_offset 16
	.cfi_offset %rbp, -16
	movq	%rsp, %rbp
	.cfi_def_cfa_register %rbp
	subq	$176, %rsp
	movq	%rdi, -168(%rbp)
	movq	%rsi, -160(%rbp)
	movq	%rdx, -152(%rbp)
	movq	%rdi, -88(%rbp)
	movq	%rsi, -80(%rbp)
	movq	%rdx, -72(%rbp)
Ltmp1157:
	.loc	48 452 16 prologue_end
	cmpq	$0, %rdi
	jne	LBB131_2
	movb	$0, -121(%rbp)
	jmp	LBB131_5
LBB131_2:
	.loc	48 0 16 is_stmt 0
	movq	-168(%rbp), %rax
	movq	-160(%rbp), %rcx
	.loc	48 452 68
	movq	%rcx, -64(%rbp)
Ltmp1158:
	.loc	48 93 32 is_stmt 1
	movq	%rcx, -56(%rbp)
Ltmp1159:
	.file	49 "/rustc/2c8cc343237b8f7d5a3c3703e3a87f2eb2c54a74/library/core/src/ptr" "alignment.rs"
	.loc	49 97 9
	movq	%rcx, -104(%rbp)
	movq	-104(%rbp), %rdx
Ltmp1160:
	.loc	48 93 31
	subq	$1, %rdx
	.loc	48 93 9 is_stmt 0
	movabsq	$9223372036854775807, %rcx
	subq	%rdx, %rcx
	movq	%rcx, -176(%rbp)
Ltmp1161:
	.loc	48 452 41 is_stmt 1
	cmpq	$0, %rax
	sete	%al
	testb	$1, %al
	jne	LBB131_4
	.loc	48 0 41 is_stmt 0
	movq	-168(%rbp), %rcx
	movq	-176(%rbp), %rax
	.loc	48 452 41
	xorl	%edx, %edx
	divq	%rcx
	movq	%rax, %rcx
	movq	-152(%rbp), %rax
	.loc	48 452 37
	cmpq	%rcx, %rax
	seta	%al
	.loc	48 452 16
	andb	$1, %al
	movb	%al, -121(%rbp)
	jmp	LBB131_5
LBB131_4:
	.loc	48 452 41
	leaq	_str.0(%rip), %rdi
	leaq	l___unnamed_28(%rip), %rdx
	movl	$25, %esi
	callq	__ZN4core9panicking5panic17hc1bc45270cf64b03E
LBB131_5:
	.loc	48 452 16
	testb	$1, -121(%rbp)
	jne	LBB131_7
	.loc	48 0 16
	movq	-160(%rbp), %rax
	movq	-152(%rbp), %rdx
	movq	-168(%rbp), %rcx
	.loc	48 456 30 is_stmt 1
	imulq	%rdx, %rcx
	movq	%rcx, -48(%rbp)
Ltmp1162:
	.loc	48 461 59
	movq	%rcx, -40(%rbp)
	.loc	48 461 71 is_stmt 0
	movq	%rax, -32(%rbp)
Ltmp1163:
	.loc	49 97 9 is_stmt 1
	movq	%rax, -96(%rbp)
	movq	-96(%rbp), %rax
	movq	%rax, -24(%rbp)
Ltmp1164:
	.loc	48 120 65
	movq	%rax, -16(%rbp)
Ltmp1165:
	.loc	49 89 18
	movq	%rax, -8(%rbp)
	movq	-8(%rbp), %rax
Ltmp1166:
	.loc	48 120 18
	movq	%rcx, -120(%rbp)
	movq	%rax, -112(%rbp)
Ltmp1167:
	.loc	48 461 22
	movq	-120(%rbp), %rcx
	movq	-112(%rbp), %rax
	movq	%rcx, -144(%rbp)
	movq	%rax, -136(%rbp)
Ltmp1168:
	.loc	48 462 10
	jmp	LBB131_8
LBB131_7:
	.loc	48 453 24
	movq	$0, -136(%rbp)
LBB131_8:
	.loc	48 462 10
	movq	-144(%rbp), %rax
	movq	-136(%rbp), %rdx
	addq	$176, %rsp
	popq	%rbp
	retq
Ltmp1169:
Lfunc_end131:
	.cfi_endproc

	.p2align	4, 0x90
__ZN4core5slice29_$LT$impl$u20$$u5b$T$u5d$$GT$11starts_with17h0bb4cc9889d6a323E:
Lfunc_begin132:
	.loc	35 2257 0
	.cfi_startproc
	pushq	%rbp
	.cfi_def_cfa_offset 16
	.cfi_offset %rbp, -16
	movq	%rsp, %rbp
	.cfi_def_cfa_register %rbp
	subq	$176, %rsp
	movq	%rdi, -168(%rbp)
	movq	%rsi, -160(%rbp)
	movq	%rdx, -144(%rbp)
	movq	%rcx, -136(%rbp)
	movq	%rdi, -80(%rbp)
	movq	%rsi, -72(%rbp)
Ltmp1170:
	.loc	35 2261 17 prologue_end
	movq	-136(%rbp), %rax
	movq	%rax, -152(%rbp)
	movq	%rax, -64(%rbp)
Ltmp1171:
	.loc	35 2262 9
	cmpq	%rax, %rsi
	jae	LBB132_2
	movb	$0, -121(%rbp)
	jmp	LBB132_3
LBB132_2:
	.loc	35 0 9 is_stmt 0
	movq	-160(%rbp), %rcx
	movq	-168(%rbp), %rdx
	movq	-152(%rbp), %rax
	.loc	35 2262 28
	leaq	-144(%rbp), %rsi
	movq	%rsi, -56(%rbp)
	.loc	35 2262 39
	movq	%rdx, -48(%rbp)
	movq	%rcx, -40(%rbp)
	.loc	35 2262 44
	movq	%rax, -104(%rbp)
Ltmp1172:
	.loc	2 18 9 is_stmt 1
	movq	-104(%rbp), %rax
	movq	%rax, -32(%rbp)
	.loc	2 18 21 is_stmt 0
	movq	%rdx, -24(%rbp)
	movq	%rcx, -16(%rbp)
Ltmp1173:
	.loc	2 456 9 is_stmt 1
	movq	$0, -96(%rbp)
	movq	%rax, -88(%rbp)
	movq	-96(%rbp), %rdi
	movq	-88(%rbp), %rsi
	leaq	l___unnamed_29(%rip), %r8
	callq	__ZN106_$LT$core..ops..range..Range$LT$usize$GT$$u20$as$u20$core..slice..index..SliceIndex$LT$$u5b$T$u5d$$GT$$GT$5index17he04d3c74fe457ce2E
Ltmp1174:
	.loc	35 2262 38
	movq	%rax, -120(%rbp)
	movq	%rdx, -112(%rbp)
	leaq	-120(%rbp), %rax
	movq	%rax, -8(%rbp)
Ltmp1175:
	.loc	8 1531 27
	movq	-144(%rbp), %rdi
	movq	-136(%rbp), %rsi
	.loc	8 1531 34 is_stmt 0
	movq	-120(%rbp), %rdx
	movq	-112(%rbp), %rcx
	.loc	8 1531 13
	callq	__ZN4core5slice3cmp81_$LT$impl$u20$core..cmp..PartialEq$LT$$u5b$B$u5d$$GT$$u20$for$u20$$u5b$A$u5d$$GT$2eq17h783698f7480ca050E
Ltmp1176:
	.loc	35 2262 9 is_stmt 1
	andb	$1, %al
	movb	%al, -121(%rbp)
Ltmp1177:
LBB132_3:
	.loc	35 2263 6
	movb	-121(%rbp), %al
	andb	$1, %al
	movzbl	%al, %eax
	addq	$176, %rsp
	popq	%rbp
	retq
Ltmp1178:
Lfunc_end132:
	.cfi_endproc

	.p2align	4, 0x90
__ZN4core5slice29_$LT$impl$u20$$u5b$T$u5d$$GT$7windows17h2cafcc6bc20ceaccE:
Lfunc_begin133:
	.loc	35 808 0
	.cfi_startproc
	pushq	%rbp
	.cfi_def_cfa_offset 16
	.cfi_offset %rbp, -16
	movq	%rsp, %rbp
	.cfi_def_cfa_register %rbp
	subq	$144, %rsp
	movq	%rcx, -136(%rbp)
	movq	%rdx, -128(%rbp)
	movq	%rsi, -120(%rbp)
	movq	%rdi, -112(%rbp)
	movq	%rdi, -104(%rbp)
	movq	%rsi, -80(%rbp)
	movq	%rdx, -72(%rbp)
	movq	%rcx, -64(%rbp)
Ltmp1179:
	.loc	35 809 38 prologue_end
	movq	%rcx, -56(%rbp)
Ltmp1180:
	.file	50 "/rustc/2c8cc343237b8f7d5a3c3703e3a87f2eb2c54a74/library/core/src/num" "nonzero.rs"
	.loc	50 73 24
	cmpq	$0, %rcx
	jne	LBB133_2
	.loc	50 77 25
	movq	$0, -96(%rbp)
	.loc	50 73 21
	jmp	LBB133_3
LBB133_2:
	.loc	50 0 21 is_stmt 0
	movq	-136(%rbp), %rax
	.loc	50 75 39 is_stmt 1
	movq	%rax, -88(%rbp)
	.loc	50 75 25 is_stmt 0
	movq	-88(%rbp), %rax
	movq	%rax, -96(%rbp)
Ltmp1181:
LBB133_3:
	.loc	35 809 51 is_stmt 1
	leaq	l___unnamed_30(%rip), %rax
	movq	%rax, -48(%rbp)
	movq	$12, -40(%rbp)
Ltmp1182:
	.loc	14 784 15
	movl	$1, %eax
	xorl	%ecx, %ecx
	cmpq	$0, -96(%rbp)
	cmoveq	%rcx, %rax
	.loc	14 784 9 is_stmt 0
	cmpq	$0, %rax
	jne	LBB133_5
	.loc	14 786 21 is_stmt 1
	leaq	l___unnamed_30(%rip), %rdi
	leaq	l___unnamed_31(%rip), %rdx
	movl	$12, %esi
	callq	__ZN4core6option13expect_failed17h5792a81bec0ff713E
LBB133_5:
	.loc	14 0 21 is_stmt 0
	movq	-104(%rbp), %rax
	movq	-112(%rbp), %rcx
	movq	-128(%rbp), %rsi
	movq	-120(%rbp), %rdi
	.loc	14 785 18 is_stmt 1
	movq	-96(%rbp), %rdx
	movq	%rdx, -32(%rbp)
Ltmp1183:
	.loc	35 810 22
	movq	%rdi, -24(%rbp)
	movq	%rsi, -16(%rbp)
	.loc	35 810 28 is_stmt 0
	movq	%rdx, -8(%rbp)
Ltmp1184:
	.file	51 "/rustc/2c8cc343237b8f7d5a3c3703e3a87f2eb2c54a74/library/core/src/slice" "iter.rs"
	.loc	51 1300 9 is_stmt 1
	movq	%rdi, (%rcx)
	movq	%rsi, 8(%rcx)
	movq	%rdx, 16(%rcx)
Ltmp1185:
	.loc	35 811 6
	addq	$144, %rsp
	popq	%rbp
	retq
Ltmp1186:
Lfunc_end133:
	.cfi_endproc

	.p2align	4, 0x90
__ZN4core5slice3cmp81_$LT$impl$u20$core..cmp..PartialEq$LT$$u5b$B$u5d$$GT$$u20$for$u20$$u5b$A$u5d$$GT$2eq17h783698f7480ca050E:
Lfunc_begin134:
	.file	52 "/rustc/2c8cc343237b8f7d5a3c3703e3a87f2eb2c54a74/library/core/src/slice" "cmp.rs"
	.loc	52 25 0
	.cfi_startproc
	pushq	%rbp
	.cfi_def_cfa_offset 16
	.cfi_offset %rbp, -16
	movq	%rsp, %rbp
	.cfi_def_cfa_register %rbp
	subq	$32, %rsp
	movq	%rdi, -32(%rbp)
	movq	%rsi, -24(%rbp)
	movq	%rdx, -16(%rbp)
	movq	%rcx, -8(%rbp)
Ltmp1187:
	.loc	52 26 9 prologue_end
	callq	__ZN73_$LT$$u5b$A$u5d$$u20$as$u20$core..slice..cmp..SlicePartialEq$LT$B$GT$$GT$5equal17h85789bdca90225c9E
	.loc	52 27 6
	andb	$1, %al
	movzbl	%al, %eax
	addq	$32, %rsp
	popq	%rbp
	retq
Ltmp1188:
Lfunc_end134:
	.cfi_endproc

	.p2align	4, 0x90
__ZN4core5slice4iter13Iter$LT$T$GT$3new17hbaabf0853b215c6fE:
Lfunc_begin135:
	.loc	51 82 0
	.cfi_startproc
	pushq	%rbp
	.cfi_def_cfa_offset 16
	.cfi_offset %rbp, -16
	movq	%rsp, %rbp
	.cfi_def_cfa_register %rbp
	subq	$280, %rsp
	movq	%rdi, -280(%rbp)
	movq	%rsi, -272(%rbp)
	movq	%rdi, -208(%rbp)
	movq	%rsi, -200(%rbp)
Ltmp1189:
	.loc	51 83 19 prologue_end
	movq	%rdi, -184(%rbp)
	movq	%rsi, -176(%rbp)
Ltmp1190:
	.loc	35 477 9
	movq	%rdi, -168(%rbp)
Ltmp1191:
	.loc	51 86 21
	movq	%rdi, -160(%rbp)
Ltmp1192:
	.loc	3 53 36
	movq	%rdi, -232(%rbp)
	.loc	3 53 18 is_stmt 0
	movq	-232(%rbp), %rax
	movq	%rax, -152(%rbp)
Ltmp1193:
	.loc	3 39 13 is_stmt 1
	movq	%rax, -144(%rbp)
Ltmp1194:
	.loc	3 209 33
	movq	%rax, -136(%rbp)
	.loc	3 209 18 is_stmt 0
	movq	%rax, -128(%rbp)
Ltmp1195:
	.loc	51 89 20 is_stmt 1
	xorl	%eax, %eax
	testb	$1, %al
	jne	LBB135_2
	.loc	51 0 20 is_stmt 0
	movq	-272(%rbp), %rcx
	movq	-280(%rbp), %rax
	.loc	51 89 76
	movq	%rax, -40(%rbp)
	.loc	51 89 84
	movq	%rcx, -32(%rbp)
Ltmp1196:
	.loc	3 932 18 is_stmt 1
	movq	%rax, -24(%rbp)
	.loc	3 932 30 is_stmt 0
	movq	%rcx, -16(%rbp)
Ltmp1197:
	.loc	3 473 18 is_stmt 1
	addq	%rcx, %rax
	movq	%rax, -248(%rbp)
Ltmp1198:
	.loc	51 89 17
	jmp	LBB135_3
LBB135_2:
	.loc	51 0 17 is_stmt 0
	movq	-272(%rbp), %rcx
	movq	-280(%rbp), %rax
	.loc	51 89 32
	movq	%rax, -120(%rbp)
	.loc	51 89 54
	movq	%rcx, -112(%rbp)
Ltmp1199:
	.loc	3 1118 9 is_stmt 1
	movq	%rax, -104(%rbp)
Ltmp1200:
	.loc	3 61 9
	movq	%rax, -96(%rbp)
Ltmp1201:
	.loc	3 1118 40
	movq	%rcx, -88(%rbp)
Ltmp1202:
	.loc	3 1100 9
	movq	%rax, -80(%rbp)
	.loc	3 1100 30 is_stmt 0
	movq	%rcx, -72(%rbp)
Ltmp1203:
	.loc	3 555 18 is_stmt 1
	addq	%rcx, %rax
	movq	%rax, -64(%rbp)
	movq	-64(%rbp), %rax
	movq	%rax, -56(%rbp)
Ltmp1204:
	.loc	3 100 29
	movq	%rax, -48(%rbp)
Ltmp1205:
	.loc	5 118 36
	movq	%rax, -216(%rbp)
	.loc	5 118 14 is_stmt 0
	movq	-216(%rbp), %rax
	movq	%rax, -224(%rbp)
	movq	-224(%rbp), %rax
	movq	%rax, -248(%rbp)
Ltmp1206:
LBB135_3:
	.loc	5 0 14
	movq	-280(%rbp), %rax
Ltmp1207:
	.loc	51 91 48 is_stmt 1
	movq	%rax, -8(%rbp)
Ltmp1208:
	.loc	15 201 13
	movq	%rax, -240(%rbp)
Ltmp1209:
	.loc	51 91 64
	movq	-248(%rbp), %rax
	.loc	51 91 13 is_stmt 0
	movq	-240(%rbp), %rcx
	movq	%rcx, -256(%rbp)
	movq	%rax, -264(%rbp)
Ltmp1210:
	.loc	51 93 6 is_stmt 1
	movq	-264(%rbp), %rax
	movq	-256(%rbp), %rdx
	addq	$280, %rsp
	popq	%rbp
	retq
Ltmp1211:
Lfunc_end135:
	.cfi_endproc

	.p2align	4, 0x90
__ZN4core5slice4iter87_$LT$impl$u20$core..iter..traits..collect..IntoIterator$u20$for$u20$$RF$$u5b$T$u5d$$GT$9into_iter17hbbbf5cee932410a2E:
Lfunc_begin136:
	.loc	51 23 0
	.cfi_startproc
	pushq	%rbp
	.cfi_def_cfa_offset 16
	.cfi_offset %rbp, -16
	movq	%rsp, %rbp
	.cfi_def_cfa_register %rbp
	subq	$32, %rsp
	movq	%rdi, -32(%rbp)
	movq	%rsi, -24(%rbp)
Ltmp1212:
	.loc	51 24 9 prologue_end
	movq	%rdi, -16(%rbp)
	movq	%rsi, -8(%rbp)
Ltmp1213:
	.loc	35 742 9
	callq	__ZN4core5slice4iter13Iter$LT$T$GT$3new17hbaabf0853b215c6fE
Ltmp1214:
	.loc	51 25 6
	addq	$32, %rsp
	popq	%rbp
	retq
Ltmp1215:
Lfunc_end136:
	.cfi_endproc

	.p2align	4, 0x90
__ZN4core5slice6memchr12memchr_naive17h391f11695ad49522E:
Lfunc_begin137:
	.file	53 "/rustc/2c8cc343237b8f7d5a3c3703e3a87f2eb2c54a74/library/core/src/slice" "memchr.rs"
	.loc	53 48 0
	.cfi_startproc
	pushq	%rbp
	.cfi_def_cfa_offset 16
	.cfi_offset %rbp, -16
	movq	%rsp, %rbp
	.cfi_def_cfa_register %rbp
	subq	$80, %rsp
	movq	%rdx, -72(%rbp)
	movq	%rsi, -64(%rbp)
	movb	%dil, %al
	movb	%al, -49(%rbp)
	movb	%al, -17(%rbp)
	movq	%rsi, -16(%rbp)
	movq	%rdx, -8(%rbp)
Ltmp1216:
	.loc	53 49 17 prologue_end
	movq	$0, -32(%rbp)
LBB137_1:
	.loc	53 0 17 is_stmt 0
	movq	-72(%rbp), %rax
Ltmp1217:
	.loc	53 52 11 is_stmt 1
	cmpq	%rax, -32(%rbp)
	jb	LBB137_3
	.loc	53 60 5
	movq	$0, -48(%rbp)
Ltmp1218:
	.loc	53 61 2
	jmp	LBB137_8
LBB137_3:
	.loc	53 0 2 is_stmt 0
	movq	-72(%rbp), %rcx
Ltmp1219:
	.loc	53 53 17 is_stmt 1
	movq	-32(%rbp), %rax
	movq	%rax, -80(%rbp)
	.loc	53 53 12 is_stmt 0
	cmpq	%rcx, %rax
	setb	%al
	testb	$1, %al
	jne	LBB137_4
	jmp	LBB137_5
LBB137_4:
	.loc	53 0 12
	movq	-64(%rbp), %rax
	movq	-80(%rbp), %rcx
	movb	-49(%rbp), %dl
	.loc	53 53 12
	cmpb	%dl, (%rax,%rcx)
	je	LBB137_7
	jmp	LBB137_6
LBB137_5:
	.loc	53 0 12
	movq	-72(%rbp), %rsi
	movq	-80(%rbp), %rdi
	.loc	53 53 12
	leaq	l___unnamed_32(%rip), %rdx
	callq	__ZN4core9panicking18panic_bounds_check17hacb8a94866cda541E
LBB137_6:
	.loc	53 57 9 is_stmt 1
	movq	-32(%rbp), %rax
	addq	$1, %rax
	movq	%rax, -32(%rbp)
	.loc	53 52 5
	jmp	LBB137_1
LBB137_7:
	.loc	53 54 25
	movq	-32(%rbp), %rax
	.loc	53 54 20 is_stmt 0
	movq	%rax, -40(%rbp)
	movq	$1, -48(%rbp)
Ltmp1220:
LBB137_8:
	.loc	53 61 2 is_stmt 1
	movq	-48(%rbp), %rax
	movq	-40(%rbp), %rdx
	addq	$80, %rsp
	popq	%rbp
	retq
Ltmp1221:
Lfunc_end137:
	.cfi_endproc

	.p2align	4, 0x90
__ZN4core5slice6memchr6memchr17h085207f0dad0318dE:
Lfunc_begin138:
	.loc	53 38 0
	.cfi_startproc
	pushq	%rbp
	.cfi_def_cfa_offset 16
	.cfi_offset %rbp, -16
	movq	%rsp, %rbp
	.cfi_def_cfa_register %rbp
	subq	$64, %rsp
	movq	%rdx, -64(%rbp)
	movq	%rsi, -56(%rbp)
	movb	%dil, %al
	movb	%al, -41(%rbp)
	movb	%al, -17(%rbp)
	movq	%rsi, -16(%rbp)
	movq	%rdx, -8(%rbp)
Ltmp1222:
	.loc	53 40 8 prologue_end
	cmpq	$16, %rdx
	jb	LBB138_2
	.loc	53 0 8 is_stmt 0
	movq	-64(%rbp), %rdx
	movq	-56(%rbp), %rsi
	movb	-41(%rbp), %al
	.loc	53 44 5 is_stmt 1
	movzbl	%al, %edi
	callq	__ZN4core5slice6memchr14memchr_aligned17h35d16807f0081d88E
	movq	%rdx, -32(%rbp)
	movq	%rax, -40(%rbp)
	.loc	53 45 2
	jmp	LBB138_3
LBB138_2:
	.loc	53 0 2 is_stmt 0
	movq	-64(%rbp), %rdx
	movq	-56(%rbp), %rsi
	movb	-41(%rbp), %al
	.loc	53 41 16 is_stmt 1
	movzbl	%al, %edi
	callq	__ZN4core5slice6memchr12memchr_naive17h391f11695ad49522E
	movq	%rdx, -32(%rbp)
	movq	%rax, -40(%rbp)
LBB138_3:
	.loc	53 45 2
	movq	-40(%rbp), %rax
	movq	-32(%rbp), %rdx
	addq	$64, %rsp
	popq	%rbp
	retq
Ltmp1223:
Lfunc_end138:
	.cfi_endproc

	.p2align	4, 0x90
__ZN4core6option15Option$LT$T$GT$16unwrap_unchecked17h7fed5efbba2bb74fE:
Lfunc_begin139:
	.loc	14 933 0
	.cfi_startproc
	.cfi_personality 155, _rust_eh_personality
	.cfi_lsda 16, Lexception28
	pushq	%rbp
	.cfi_def_cfa_offset 16
	.cfi_offset %rbp, -16
	movq	%rsp, %rbp
	.cfi_def_cfa_register %rbp
	subq	$32, %rsp
	movq	%rdi, -32(%rbp)
Ltmp1227:
	.loc	14 935 15 prologue_end
	movq	-32(%rbp), %rdx
	movl	$1, %eax
	xorl	%ecx, %ecx
	cmpq	$0, %rdx
	cmoveq	%rcx, %rax
	.loc	14 935 9 is_stmt 0
	cmpq	$0, %rax
	jne	LBB139_2
Ltmp1224:
	.loc	14 938 30 is_stmt 1
	callq	__ZN4core4hint21unreachable_unchecked17hbb1c1bc0a3715898E
Ltmp1225:
	jmp	LBB139_5
LBB139_2:
	.loc	14 936 18
	movq	-32(%rbp), %rax
	movq	%rax, -24(%rbp)
	.loc	14 940 6
	addq	$32, %rsp
	popq	%rbp
	retq
LBB139_3:
	.loc	14 940 5 is_stmt 0
	movq	-32(%rbp), %rdx
	movl	$1, %eax
	xorl	%ecx, %ecx
	cmpq	$0, %rdx
	cmoveq	%rcx, %rax
	cmpq	$1, %rax
	je	LBB139_6
	jmp	LBB139_7
LBB139_4:
Ltmp1226:
	.loc	14 0 5
	movq	%rax, %rcx
	movl	%edx, %eax
	movq	%rcx, -16(%rbp)
	movl	%eax, -8(%rbp)
	jmp	LBB139_3
LBB139_5:
	ud2
LBB139_6:
	.loc	14 940 5
	movb	$1, %al
	testb	$1, %al
	jne	LBB139_8
	jmp	LBB139_7
LBB139_7:
	.loc	14 933 5 is_stmt 1
	movq	-16(%rbp), %rdi
	callq	__Unwind_Resume
LBB139_8:
	.loc	14 940 5
	jmp	LBB139_7
Ltmp1228:
Lfunc_end139:
	.cfi_endproc
	.section	__TEXT,__gcc_except_tab
	.p2align	2
GCC_except_table139:
Lexception28:
	.byte	255
	.byte	255
	.byte	1
	.uleb128 Lcst_end28-Lcst_begin28
Lcst_begin28:
	.uleb128 Ltmp1224-Lfunc_begin139
	.uleb128 Ltmp1225-Ltmp1224
	.uleb128 Ltmp1226-Lfunc_begin139
	.byte	0
	.uleb128 Ltmp1225-Lfunc_begin139
	.uleb128 Lfunc_end139-Ltmp1225
	.byte	0
	.byte	0
Lcst_end28:
	.p2align	2

	.section	__TEXT,__text,regular,pure_instructions
	.p2align	4, 0x90
__ZN4core6option15Option$LT$T$GT$3map17h0e521171087bb301E:
Lfunc_begin140:
	.loc	14 964 0
	.cfi_startproc
	pushq	%rbp
	.cfi_def_cfa_offset 16
	.cfi_offset %rbp, -16
	movq	%rsp, %rbp
	.cfi_def_cfa_register %rbp
	subq	$112, %rsp
	movq	%rcx, -104(%rbp)
	movq	%rdx, -96(%rbp)
	movq	%rdi, -88(%rbp)
	movq	%rdi, -80(%rbp)
	movq	%rsi, -72(%rbp)
	movq	%rdx, -24(%rbp)
	movq	%rcx, -16(%rbp)
Ltmp1229:
	.loc	14 969 15 prologue_end
	movb	$1, -25(%rbp)
	movq	-72(%rbp), %rdx
	movl	$1, %eax
	xorl	%ecx, %ecx
	cmpq	$0, %rdx
	cmoveq	%rcx, %rax
	.loc	14 969 9 is_stmt 0
	cmpq	$0, %rax
	jne	LBB140_2
	.loc	14 0 9
	movq	-88(%rbp), %rax
	.loc	14 971 21 is_stmt 1
	movq	$0, 8(%rax)
	jmp	LBB140_3
LBB140_2:
	.loc	14 0 21 is_stmt 0
	movq	-104(%rbp), %rdx
	movq	-96(%rbp), %rsi
	.loc	14 970 18 is_stmt 1
	movq	-72(%rbp), %rax
	movq	%rax, -8(%rbp)
Ltmp1230:
	.loc	14 970 29 is_stmt 0
	movb	$0, -25(%rbp)
	movq	%rax, -40(%rbp)
	movq	-40(%rbp), %rcx
	leaq	-64(%rbp), %rdi
	callq	__ZN5alloc11collections5btree4node40NodeRef$LT$BorrowType$C$K$C$V$C$Type$GT$6ascend28_$u7b$$u7b$closure$u7d$$u7d$17hc0d936c9ac347ce1E
	movq	-88(%rbp), %rax
	.loc	14 970 24
	movq	-64(%rbp), %rcx
	movq	%rcx, (%rax)
	movq	-56(%rbp), %rcx
	movq	%rcx, 8(%rax)
	movq	-48(%rbp), %rcx
	movq	%rcx, 16(%rax)
Ltmp1231:
LBB140_3:
	.loc	14 973 5 is_stmt 1
	testb	$1, -25(%rbp)
	jne	LBB140_5
LBB140_4:
	.loc	14 0 5 is_stmt 0
	movq	-80(%rbp), %rax
	.loc	14 973 6
	addq	$112, %rsp
	popq	%rbp
	retq
LBB140_5:
	.loc	14 973 5
	jmp	LBB140_4
Ltmp1232:
Lfunc_end140:
	.cfi_endproc

	.p2align	4, 0x90
__ZN4core6option15Option$LT$T$GT$3map17h6612a1452bcb8cdaE:
Lfunc_begin141:
	.loc	14 964 0 is_stmt 1
	.cfi_startproc
	pushq	%rbp
	.cfi_def_cfa_offset 16
	.cfi_offset %rbp, -16
	movq	%rsp, %rbp
	.cfi_def_cfa_register %rbp
	subq	$32, %rsp
	movl	%edi, -32(%rbp)
	movl	%esi, -28(%rbp)
Ltmp1233:
	.loc	14 969 15 prologue_end
	movb	$1, -9(%rbp)
	movl	-32(%rbp), %eax
	.loc	14 969 9 is_stmt 0
	cmpq	$0, %rax
	jne	LBB141_2
	.loc	14 971 21 is_stmt 1
	movl	$1114112, -20(%rbp)
	jmp	LBB141_3
LBB141_2:
	.loc	14 970 18
	movl	-28(%rbp), %eax
	movl	%eax, -4(%rbp)
Ltmp1234:
	.loc	14 970 29 is_stmt 0
	movb	$0, -9(%rbp)
	movl	%eax, -16(%rbp)
	movl	-16(%rbp), %edi
	callq	__ZN81_$LT$core..str..iter..Chars$u20$as$u20$core..iter..traits..iterator..Iterator$GT$4next28_$u7b$$u7b$closure$u7d$$u7d$17h47122e6838e257adE
	.loc	14 970 24
	movl	%eax, -20(%rbp)
Ltmp1235:
LBB141_3:
	.loc	14 973 5 is_stmt 1
	testb	$1, -9(%rbp)
	jne	LBB141_5
LBB141_4:
	.loc	14 973 6 is_stmt 0
	movl	-20(%rbp), %eax
	addq	$32, %rsp
	popq	%rbp
	retq
LBB141_5:
	.loc	14 973 5
	jmp	LBB141_4
Ltmp1236:
Lfunc_end141:
	.cfi_endproc

	.p2align	4, 0x90
__ZN4core6option15Option$LT$T$GT$7is_some17h36a621ebefba329dE:
Lfunc_begin142:
	.loc	14 597 0 is_stmt 1
	.cfi_startproc
	pushq	%rbp
	.cfi_def_cfa_offset 16
	.cfi_offset %rbp, -16
	movq	%rsp, %rbp
	.cfi_def_cfa_register %rbp
	subq	$16, %rsp
	movq	%rdi, -8(%rbp)
Ltmp1237:
	.loc	14 598 18 prologue_end
	movq	8(%rdi), %rdx
	movl	$1, %eax
	xorl	%ecx, %ecx
	cmpq	$0, %rdx
	cmoveq	%rcx, %rax
	.loc	14 598 9 is_stmt 0
	cmpq	$1, %rax
	jne	LBB142_2
	movb	$1, -9(%rbp)
	jmp	LBB142_3
LBB142_2:
	movb	$0, -9(%rbp)
LBB142_3:
	.loc	14 599 6 is_stmt 1
	movb	-9(%rbp), %al
	andb	$1, %al
	movzbl	%al, %eax
	addq	$16, %rsp
	popq	%rbp
	retq
Ltmp1238:
Lfunc_end142:
	.cfi_endproc

	.p2align	4, 0x90
__ZN4core6result19Result$LT$T$C$E$GT$16unwrap_unchecked17h726c0d769fc6627aE:
Lfunc_begin143:
	.file	54 "/rustc/2c8cc343237b8f7d5a3c3703e3a87f2eb2c54a74/library/core/src" "result.rs"
	.loc	54 1530 0
	.cfi_startproc
	.cfi_personality 155, _rust_eh_personality
	.cfi_lsda 16, Lexception29
	pushq	%rbp
	.cfi_def_cfa_offset 16
	.cfi_offset %rbp, -16
	movq	%rsp, %rbp
	.cfi_def_cfa_register %rbp
	subq	$64, %rsp
	movq	%rdi, -48(%rbp)
	movq	%rsi, -40(%rbp)
Ltmp1242:
	.loc	54 1532 15 prologue_end
	xorl	%eax, %eax
	movl	$1, %ecx
	cmpq	$0, -40(%rbp)
	cmoveq	%rcx, %rax
	.loc	54 1532 9 is_stmt 0
	cmpq	$0, %rax
	jne	LBB143_2
	.loc	54 1533 16 is_stmt 1
	movq	-48(%rbp), %rcx
	movq	%rcx, -64(%rbp)
	movq	-40(%rbp), %rax
	movq	%rax, -56(%rbp)
	movq	%rcx, -16(%rbp)
	movq	%rax, -8(%rbp)
	.loc	54 1537 5
	xorl	%eax, %eax
	movl	$1, %ecx
	cmpq	$0, -40(%rbp)
	cmoveq	%rcx, %rax
	cmpq	$0, %rax
