	.section	__TEXT,__text,regular,pure_instructions
	.macosx_version_min 10, 7
	.p2align	4, 0x90
__ZN106_$LT$core..ops..range..Range$LT$usize$GT$$u20$as$u20$core..slice..index..SliceIndex$LT$$u5b$T$u5d$$GT$$GT$13get_unchecked17hb9abfe296d437654E:
Lfunc_begin0:
	.file	1 "/rustc/2c8cc343237b8f7d5a3c3703e3a87f2eb2c54a74/library/core/src/slice" "index.rs"
	.loc	1 373 0
	.cfi_startproc
	pushq	%rbp
	.cfi_def_cfa_offset 16
	.cfi_offset %rbp, -16
	movq	%rsp, %rbp
	.cfi_def_cfa_register %rbp
	subq	$160, %rsp
	movq	%rdi, -128(%rbp)
	movq	%rsi, -120(%rbp)
	movq	%rdx, -112(%rbp)
	movq	%rcx, -104(%rbp)
Ltmp0:
	.loc	1 386 39 prologue_end
	movq	%rdx, -96(%rbp)
	movq	%rcx, -88(%rbp)
Ltmp1:
	.file	2 "/rustc/2c8cc343237b8f7d5a3c3703e3a87f2eb2c54a74/library/core/src/ptr" "const_ptr.rs"
	.loc	2 1650 9
	movq	%rdx, -80(%rbp)
Ltmp2:
	.loc	1 386 58
	movq	%rdi, -72(%rbp)
Ltmp3:
	.loc	2 932 18
	movq	%rdx, -64(%rbp)
	.loc	2 932 30 is_stmt 0
	movq	%rdi, -56(%rbp)
Ltmp4:
	.loc	2 473 18 is_stmt 1
	addq	%rdi, %rdx
	movq	%rdx, -48(%rbp)
	movq	-48(%rbp), %rax
	movq	%rax, -40(%rbp)
Ltmp5:
	.loc	1 386 71
	subq	%rdi, %rsi
	movq	%rsi, -32(%rbp)
Ltmp6:
	.file	3 "/rustc/2c8cc343237b8f7d5a3c3703e3a87f2eb2c54a74/library/core/src/ptr" "mod.rs"
	.loc	3 734 20
	movq	%rax, -24(%rbp)
Ltmp7:
	.loc	2 61 9
	movq	%rax, -16(%rbp)
Ltmp8:
	.loc	3 734 33
	movq	%rsi, -8(%rbp)
Ltmp9:
	.file	4 "/rustc/2c8cc343237b8f7d5a3c3703e3a87f2eb2c54a74/library/core/src/ptr" "metadata.rs"
	.loc	4 118 36
	movq	%rax, -144(%rbp)
	movq	%rsi, -136(%rbp)
	.loc	4 118 14 is_stmt 0
	movq	-144(%rbp), %rcx
	movq	-136(%rbp), %rax
	movq	%rcx, -160(%rbp)
	movq	%rax, -152(%rbp)
	movq	-160(%rbp), %rax
	movq	-152(%rbp), %rdx
Ltmp10:
	.loc	1 388 6 is_stmt 1
	addq	$160, %rsp
	popq	%rbp
	retq
Ltmp11:
Lfunc_end0:
	.cfi_endproc

	.p2align	4, 0x90
__ZN106_$LT$core..ops..range..Range$LT$usize$GT$$u20$as$u20$core..slice..index..SliceIndex$LT$$u5b$T$u5d$$GT$$GT$17get_unchecked_mut17h829cc39ea973169dE:
Lfunc_begin1:
	.loc	1 391 0
	.cfi_startproc
	pushq	%rbp
	.cfi_def_cfa_offset 16
	.cfi_offset %rbp, -16
	movq	%rsp, %rbp
	.cfi_def_cfa_register %rbp
	subq	$160, %rsp
	movq	%rdi, -128(%rbp)
	movq	%rsi, -120(%rbp)
	movq	%rdx, -112(%rbp)
	movq	%rcx, -104(%rbp)
Ltmp12:
	.loc	1 400 43 prologue_end
	movq	%rdx, -96(%rbp)
	movq	%rcx, -88(%rbp)
Ltmp13:
	.file	5 "/rustc/2c8cc343237b8f7d5a3c3703e3a87f2eb2c54a74/library/core/src/ptr" "mut_ptr.rs"
	.loc	5 2037 9
	movq	%rdx, -80(%rbp)
Ltmp14:
	.loc	1 400 66
	movq	%rdi, -72(%rbp)
Ltmp15:
	.loc	5 1034 18
	movq	%rdx, -64(%rbp)
	.loc	5 1034 30 is_stmt 0
	movq	%rdi, -56(%rbp)
Ltmp16:
	.loc	5 487 18 is_stmt 1
	addq	%rdi, %rdx
	movq	%rdx, -48(%rbp)
	movq	-48(%rbp), %rax
	movq	%rax, -40(%rbp)
Ltmp17:
	.loc	1 400 79
	subq	%rdi, %rsi
	movq	%rsi, -32(%rbp)
Ltmp18:
	.loc	3 766 24
	movq	%rax, -24(%rbp)
Ltmp19:
	.loc	5 60 9
	movq	%rax, -16(%rbp)
Ltmp20:
	.loc	3 766 37
	movq	%rsi, -8(%rbp)
Ltmp21:
	.loc	4 135 36
	movq	%rax, -144(%rbp)
	movq	%rsi, -136(%rbp)
	.loc	4 135 14 is_stmt 0
	movq	-144(%rbp), %rcx
	movq	-136(%rbp), %rax
	movq	%rcx, -160(%rbp)
	movq	%rax, -152(%rbp)
	movq	-160(%rbp), %rax
	movq	-152(%rbp), %rdx
Ltmp22:
	.loc	1 402 6 is_stmt 1
	addq	$160, %rsp
	popq	%rbp
	retq
Ltmp23:
Lfunc_end1:
	.cfi_endproc

	.p2align	4, 0x90
__ZN106_$LT$core..ops..range..Range$LT$usize$GT$$u20$as$u20$core..slice..index..SliceIndex$LT$$u5b$T$u5d$$GT$$GT$3get17h47e81b52a6b04c50E:
Lfunc_begin2:
	.loc	1 353 0
	.cfi_startproc
	pushq	%rbp
	.cfi_def_cfa_offset 16
	.cfi_offset %rbp, -16
	movq	%rsp, %rbp
	.cfi_def_cfa_register %rbp
	subq	$96, %rsp
	movq	%rdi, -88(%rbp)
	movq	%rsi, -80(%rbp)
	movq	%rdx, -72(%rbp)
	movq	%rcx, -64(%rbp)
	movq	%rdi, -32(%rbp)
	movq	%rsi, -24(%rbp)
	movq	%rdx, -16(%rbp)
	movq	%rcx, -8(%rbp)
Ltmp24:
	.loc	1 354 12 prologue_end
	cmpq	%rsi, %rdi
	ja	LBB2_2
	.loc	1 0 12 is_stmt 0
	movq	-80(%rbp), %rax
	movq	-64(%rbp), %rcx
	.loc	1 354 37
	cmpq	%rcx, %rax
	seta	%al
	.loc	1 354 12
	andb	$1, %al
	movb	%al, -33(%rbp)
	jmp	LBB2_3
LBB2_2:
	movb	$1, -33(%rbp)
LBB2_3:
	testb	$1, -33(%rbp)
	jne	LBB2_5
	.loc	1 0 12
	movq	-64(%rbp), %rcx
	movq	-72(%rbp), %rdx
	movq	-80(%rbp), %rsi
	movq	-88(%rbp), %rdi
	.loc	1 358 29 is_stmt 1
	callq	__ZN106_$LT$core..ops..range..Range$LT$usize$GT$$u20$as$u20$core..slice..index..SliceIndex$LT$$u5b$T$u5d$$GT$$GT$13get_unchecked17hb9abfe296d437654E
	.loc	1 358 22 is_stmt 0
	movq	%rax, -56(%rbp)
	movq	%rdx, -48(%rbp)
	.loc	1 354 9 is_stmt 1
	jmp	LBB2_6
LBB2_5:
	.loc	1 355 13
	movq	$0, -56(%rbp)
LBB2_6:
	.loc	1 360 6
	movq	-56(%rbp), %rax
	movq	-48(%rbp), %rdx
	addq	$96, %rsp
	popq	%rbp
	retq
Ltmp25:
Lfunc_end2:
	.cfi_endproc

	.p2align	4, 0x90
__ZN106_$LT$core..ops..range..Range$LT$usize$GT$$u20$as$u20$core..slice..index..SliceIndex$LT$$u5b$T$u5d$$GT$$GT$5index17h6031c9c375312b25E:
Lfunc_begin3:
	.loc	1 405 0
	.cfi_startproc
	pushq	%rbp
	.cfi_def_cfa_offset 16
	.cfi_offset %rbp, -16
	movq	%rsp, %rbp
	.cfi_def_cfa_register %rbp
	subq	$80, %rsp
	movq	%rdi, -72(%rbp)
	movq	%rsi, -64(%rbp)
	movq	%rdx, -56(%rbp)
	movq	%rcx, -48(%rbp)
	movq	%r8, -40(%rbp)
	movq	%rdi, -32(%rbp)
	movq	%rsi, -24(%rbp)
	movq	%rdx, -16(%rbp)
	movq	%rcx, -8(%rbp)
Ltmp26:
	.loc	1 406 12 prologue_end
	cmpq	%rsi, %rdi
	ja	LBB3_2
	.loc	1 0 12 is_stmt 0
	movq	-64(%rbp), %rax
	movq	-48(%rbp), %rcx
	.loc	1 408 19 is_stmt 1
	cmpq	%rcx, %rax
	ja	LBB3_4
	jmp	LBB3_3
LBB3_2:
	.loc	1 0 19 is_stmt 0
	movq	-40(%rbp), %rdx
	movq	-64(%rbp), %rsi
	movq	-72(%rbp), %rdi
	.loc	1 407 13 is_stmt 1
	callq	__ZN4core5slice5index22slice_index_order_fail17h0d8f800a07d5f26eE
LBB3_3:
	.loc	1 0 13 is_stmt 0
	movq	-48(%rbp), %rcx
	movq	-56(%rbp), %rdx
	movq	-64(%rbp), %rsi
	movq	-72(%rbp), %rdi
	.loc	1 412 20 is_stmt 1
	callq	__ZN106_$LT$core..ops..range..Range$LT$usize$GT$$u20$as$u20$core..slice..index..SliceIndex$LT$$u5b$T$u5d$$GT$$GT$13get_unchecked17hb9abfe296d437654E
	.loc	1 413 6
	addq	$80, %rsp
	popq	%rbp
	retq
LBB3_4:
	.loc	1 0 6 is_stmt 0
	movq	-40(%rbp), %rdx
	movq	-48(%rbp), %rsi
	movq	-64(%rbp), %rdi
	.loc	1 409 13 is_stmt 1
	callq	__ZN4core5slice5index24slice_end_index_len_fail17hc921cb2f1513645aE
Ltmp27:
Lfunc_end3:
	.cfi_endproc

	.p2align	4, 0x90
__ZN106_$LT$core..ops..range..Range$LT$usize$GT$$u20$as$u20$core..slice..index..SliceIndex$LT$$u5b$T$u5d$$GT$$GT$9index_mut17hd40ece8fd6bddce1E:
Lfunc_begin4:
	.loc	1 416 0
	.cfi_startproc
	pushq	%rbp
	.cfi_def_cfa_offset 16
	.cfi_offset %rbp, -16
	movq	%rsp, %rbp
	.cfi_def_cfa_register %rbp
	subq	$80, %rsp
	movq	%rdi, -72(%rbp)
	movq	%rsi, -64(%rbp)
	movq	%rdx, -56(%rbp)
	movq	%rcx, -48(%rbp)
	movq	%r8, -40(%rbp)
	movq	%rdi, -32(%rbp)
	movq	%rsi, -24(%rbp)
	movq	%rdx, -16(%rbp)
	movq	%rcx, -8(%rbp)
Ltmp28:
	.loc	1 417 12 prologue_end
	cmpq	%rsi, %rdi
	ja	LBB4_2
	.loc	1 0 12 is_stmt 0
	movq	-64(%rbp), %rax
	movq	-48(%rbp), %rcx
	.loc	1 419 19 is_stmt 1
	cmpq	%rcx, %rax
	ja	LBB4_4
	jmp	LBB4_3
LBB4_2:
	.loc	1 0 19 is_stmt 0
	movq	-40(%rbp), %rdx
	movq	-64(%rbp), %rsi
	movq	-72(%rbp), %rdi
	.loc	1 418 13 is_stmt 1
	callq	__ZN4core5slice5index22slice_index_order_fail17h0d8f800a07d5f26eE
LBB4_3:
	.loc	1 0 13 is_stmt 0
	movq	-48(%rbp), %rcx
	movq	-56(%rbp), %rdx
	movq	-64(%rbp), %rsi
	movq	-72(%rbp), %rdi
	.loc	1 423 24 is_stmt 1
	callq	__ZN106_$LT$core..ops..range..Range$LT$usize$GT$$u20$as$u20$core..slice..index..SliceIndex$LT$$u5b$T$u5d$$GT$$GT$17get_unchecked_mut17h829cc39ea973169dE
	.loc	1 424 6
	addq	$80, %rsp
	popq	%rbp
	retq
LBB4_4:
	.loc	1 0 6 is_stmt 0
	movq	-40(%rbp), %rdx
	movq	-48(%rbp), %rsi
	movq	-64(%rbp), %rdi
	.loc	1 420 13 is_stmt 1
	callq	__ZN4core5slice5index24slice_end_index_len_fail17hc921cb2f1513645aE
Ltmp29:
Lfunc_end4:
	.cfi_endproc

	.p2align	4, 0x90
__ZN119_$LT$alloc..collections..btree..map..BTreeMap$LT$K$C$V$C$A$GT$$u20$as$u20$core..iter..traits..collect..IntoIterator$GT$9into_iter17h0bca2aa81108b07eE:
Lfunc_begin5:
	.file	6 "/rustc/2c8cc343237b8f7d5a3c3703e3a87f2eb2c54a74/library/alloc/src/collections/btree" "map.rs"
	.loc	6 1615 0
	.cfi_startproc
	pushq	%rbp
	.cfi_def_cfa_offset 16
	.cfi_offset %rbp, -16
	movq	%rsp, %rbp
	.cfi_def_cfa_register %rbp
	subq	$480, %rsp
	movq	%rdi, -464(%rbp)
	movq	%rdi, -456(%rbp)
Ltmp30:
	.loc	6 1616 40 prologue_end
	movq	16(%rsi), %rax
	movq	%rax, -408(%rbp)
	movq	(%rsi), %rax
	movq	8(%rsi), %rcx
	movq	%rcx, -416(%rbp)
	movq	%rax, -424(%rbp)
Ltmp31:
	.file	7 "/rustc/2c8cc343237b8f7d5a3c3703e3a87f2eb2c54a74/library/core/src/mem" "manually_drop.rs"
	.loc	7 71 24
	movq	-408(%rbp), %rax
	movq	%rax, -176(%rbp)
	movq	-424(%rbp), %rax
	movq	-416(%rbp), %rcx
	movq	%rcx, -184(%rbp)
	movq	%rax, -192(%rbp)
	.loc	7 71 9 is_stmt 0
	movq	-176(%rbp), %rax
	movq	%rax, -432(%rbp)
	movq	-192(%rbp), %rax
	movq	-184(%rbp), %rcx
	movq	%rcx, -440(%rbp)
	movq	%rax, -448(%rbp)
	leaq	-448(%rbp), %rdi
Ltmp32:
	.loc	6 1617 29 is_stmt 1
	movq	%rdi, -104(%rbp)
	movq	%rdi, -96(%rbp)
Ltmp33:
	.file	8 "/rustc/2c8cc343237b8f7d5a3c3703e3a87f2eb2c54a74/library/core/src" "option.rs"
	.loc	8 1623 28
	movq	$0, -160(%rbp)
	.loc	8 1623 9 is_stmt 0
	movq	-168(%rbp), %rsi
Ltmp34:
	movq	-160(%rbp), %rdx
	callq	__ZN4core3mem7replace17ha8c70b8cdaf6e433E
	movq	%rdx, -392(%rbp)
	movq	%rax, -400(%rbp)
Ltmp35:
	.loc	6 1617 16 is_stmt 1
	movq	-392(%rbp), %rdx
	movl	$1, %eax
	xorl	%ecx, %ecx
	cmpq	$0, %rdx
	cmoveq	%rcx, %rax
	cmpq	$1, %rax
	jne	LBB5_2
Ltmp36:
	.loc	6 1617 21 is_stmt 0
	movq	-400(%rbp), %rdi
	movq	-392(%rbp), %rsi
	movq	%rdi, -56(%rbp)
	movq	%rsi, -48(%rbp)
	.loc	6 1618 30 is_stmt 1
	callq	__ZN5alloc11collections5btree4node76NodeRef$LT$alloc..collections..btree..node..marker..Owned$C$K$C$V$C$Type$GT$10into_dying17h5b185710f539889fE
	movq	%rax, %rsi
	leaq	-384(%rbp), %rdi
	callq	__ZN5alloc11collections5btree8navigate178_$LT$impl$u20$alloc..collections..btree..node..NodeRef$LT$alloc..collections..btree..node..marker..Dying$C$K$C$V$C$alloc..collections..btree..node..marker..LeafOrInternal$GT$$GT$10full_range17h1efdc09badd4ddb8E
Ltmp37:
	.loc	6 1621 24
	leaq	-320(%rbp), %rdi
	leaq	-384(%rbp), %rsi
	movl	$64, %edx
	callq	_memcpy
	movq	-464(%rbp), %rdi
	.loc	6 1622 25
	leaq	-448(%rbp), %rax
	movq	%rax, -40(%rbp)
	movq	-432(%rbp), %rax
	movq	%rax, -472(%rbp)
	.loc	6 1623 57
	leaq	-448(%rbp), %rax
	movq	%rax, -32(%rbp)
	.loc	6 1623 52 is_stmt 0
	leaq	-448(%rbp), %rax
	movq	%rax, -24(%rbp)
Ltmp38:
	.loc	7 113 28 is_stmt 1
	leaq	-448(%rbp), %rax
	movq	%rax, -16(%rbp)
Ltmp39:
	.loc	3 1157 34
	leaq	-152(%rbp), %rax
	movq	%rax, -8(%rbp)
Ltmp40:
	.loc	6 1620 13
	leaq	-320(%rbp), %rsi
	movl	$64, %edx
	callq	_memcpy
	movq	-472(%rbp), %rcx
	movq	-464(%rbp), %rax
	movq	%rcx, 64(%rax)
Ltmp41:
	.loc	6 1617 9
	jmp	LBB5_3
Ltmp42:
LBB5_2:
	.loc	6 1627 24
	leaq	-256(%rbp), %rdi
	callq	__ZN5alloc11collections5btree8navigate39LazyLeafRange$LT$BorrowType$C$K$C$V$GT$4none17h0f6fdfac5ed66277E
	movq	-464(%rbp), %rdi
	.loc	6 1629 57
	leaq	-448(%rbp), %rax
	movq	%rax, -88(%rbp)
	.loc	6 1629 52 is_stmt 0
	leaq	-448(%rbp), %rax
	movq	%rax, -80(%rbp)
Ltmp43:
	.loc	7 113 28 is_stmt 1
	leaq	-448(%rbp), %rax
	movq	%rax, -72(%rbp)
Ltmp44:
	.loc	3 1157 34
	leaq	-144(%rbp), %rax
	movq	%rax, -64(%rbp)
Ltmp45:
	.loc	6 1626 13
	leaq	-256(%rbp), %rsi
	movl	$64, %edx
	callq	_memcpy
	movq	-464(%rbp), %rax
	movq	$0, 64(%rax)
Ltmp46:
LBB5_3:
	.loc	6 0 13 is_stmt 0
	movq	-456(%rbp), %rax
	.loc	6 1632 6 is_stmt 1
	addq	$480, %rsp
	popq	%rbp
	retq
Ltmp47:
Lfunc_end5:
	.cfi_endproc

	.p2align	4, 0x90
__ZN119_$LT$core..ptr..non_null..NonNull$LT$T$GT$$u20$as$u20$core..convert..From$LT$core..ptr..unique..Unique$LT$T$GT$$GT$$GT$4from17h05880f3601f6b59bE:
Lfunc_begin6:
	.file	9 "/rustc/2c8cc343237b8f7d5a3c3703e3a87f2eb2c54a74/library/core/src/ptr" "non_null.rs"
	.loc	9 765 0
	.cfi_startproc
	pushq	%rbp
	.cfi_def_cfa_offset 16
	.cfi_offset %rbp, -16
	movq	%rsp, %rbp
	.cfi_def_cfa_register %rbp
	subq	$40, %rsp
	movq	%rdi, -32(%rbp)
Ltmp48:
	.loc	9 768 41 prologue_end
	movq	%rdi, -24(%rbp)
Ltmp49:
	.file	10 "/rustc/2c8cc343237b8f7d5a3c3703e3a87f2eb2c54a74/library/core/src/ptr" "unique.rs"
	.loc	10 104 9
	movq	%rdi, -16(%rbp)
Ltmp50:
	.loc	9 326 9
	movq	%rdi, -8(%rbp)
Ltmp51:
	.loc	9 201 13
	movq	%rdi, -40(%rbp)
Ltmp52:
	.loc	9 769 6
	movq	-40(%rbp), %rax
	addq	$40, %rsp
	popq	%rbp
	retq
Ltmp53:
Lfunc_end6:
	.cfi_endproc

	.p2align	4, 0x90
__ZN174_$LT$$LT$alloc..collections..btree..map..IntoIter$LT$K$C$V$C$A$GT$$u20$as$u20$core..ops..drop..Drop$GT$..drop..DropGuard$LT$K$C$V$C$A$GT$$u20$as$u20$core..ops..drop..Drop$GT$4drop17hefa20b427b3756b1E:
Lfunc_begin7:
	.loc	6 1641 0
	.cfi_startproc
	pushq	%rbp
	.cfi_def_cfa_offset 16
	.cfi_offset %rbp, -16
	movq	%rsp, %rbp
	.cfi_def_cfa_register %rbp
	subq	$96, %rsp
	movq	%rdi, -88(%rbp)
	movq	%rdi, -8(%rbp)
LBB7_1:
	movq	-88(%rbp), %rax
Ltmp54:
	.loc	6 1644 38 prologue_end
	movq	(%rax), %rsi
	leaq	-80(%rbp), %rdi
	callq	__ZN5alloc11collections5btree3map25IntoIter$LT$K$C$V$C$A$GT$10dying_next17h4f7fc552d4097bbcE
	.loc	6 1644 27 is_stmt 0
	movq	-72(%rbp), %rdx
	movl	$1, %eax
	xorl	%ecx, %ecx
	cmpq	$0, %rdx
	cmoveq	%rcx, %rax
	cmpq	$1, %rax
	jne	LBB7_3
	.loc	6 1644 32
	movq	-80(%rbp), %rax
	movq	%rax, -56(%rbp)
	movq	-72(%rbp), %rax
	movq	%rax, -48(%rbp)
	movq	-64(%rbp), %rax
	movq	%rax, -40(%rbp)
	.loc	6 1646 30 is_stmt 1
	movq	-56(%rbp), %rax
	movq	%rax, -32(%rbp)
	movq	-48(%rbp), %rax
	movq	%rax, -24(%rbp)
	movq	-40(%rbp), %rax
	movq	%rax, -16(%rbp)
	leaq	-32(%rbp), %rdi
	callq	__ZN5alloc11collections5btree4node173Handle$LT$alloc..collections..btree..node..NodeRef$LT$alloc..collections..btree..node..marker..Dying$C$K$C$V$C$NodeType$GT$$C$alloc..collections..btree..node..marker..KV$GT$12drop_key_val17h90e81be6e416d61bE
Ltmp55:
	.loc	6 1644 17
	jmp	LBB7_1
LBB7_3:
	.loc	6 1648 14
	addq	$96, %rsp
	popq	%rbp
	retq
Ltmp56:
Lfunc_end7:
	.cfi_endproc

	.p2align	4, 0x90
__ZN36_$LT$T$u20$as$u20$core..any..Any$GT$7type_id17h19da211f3b871c7dE:
Lfunc_begin8:
	.file	11 "/rustc/2c8cc343237b8f7d5a3c3703e3a87f2eb2c54a74/library/core/src" "any.rs"
	.loc	11 201 0
	.cfi_startproc
	pushq	%rbp
	.cfi_def_cfa_offset 16
	.cfi_offset %rbp, -16
	movq	%rsp, %rbp
	.cfi_def_cfa_register %rbp
	subq	$16, %rsp
	movq	%rdi, -8(%rbp)
Ltmp57:
	.loc	11 202 9 prologue_end
	callq	__ZN4core3any6TypeId2of17hf9c0d53193b21922E
	.loc	11 203 6
	addq	$16, %rsp
	popq	%rbp
	retq
Ltmp58:
Lfunc_end8:
	.cfi_endproc

	.p2align	4, 0x90
__ZN3std10sys_common9backtrace26__rust_end_short_backtrace17h6bedad99ae95a7adE:
Lfunc_begin9:
	.file	12 "/rustc/2c8cc343237b8f7d5a3c3703e3a87f2eb2c54a74/library/std/src/sys_common" "backtrace.rs"
	.loc	12 133 0
	.cfi_startproc
	pushq	%rbp
	.cfi_def_cfa_offset 16
	.cfi_offset %rbp, -16
	movq	%rsp, %rbp
	.cfi_def_cfa_register %rbp
	subq	$64, %rsp
Ltmp59:
	.loc	12 137 18 prologue_end
	movq	(%rdi), %rax
	movq	%rax, -56(%rbp)
	movq	8(%rdi), %rax
	movq	%rax, -48(%rbp)
	movq	16(%rdi), %rax
	movq	%rax, -40(%rbp)
	leaq	-56(%rbp), %rdi
Ltmp60:
	callq	__ZN3std9panicking11begin_panic28_$u7b$$u7b$closure$u7d$$u7d$17h53ae45824116e6c3E
Ltmp61:
	.file	13 "/rustc/2c8cc343237b8f7d5a3c3703e3a87f2eb2c54a74/library/core/src" "hint.rs"
	.loc	13 295 5
	## InlineAsm Start
	## InlineAsm End
Ltmp62:
	.loc	12 143 2
	ud2
Ltmp63:
Lfunc_end9:
	.cfi_endproc

	.p2align	4, 0x90
__ZN3std10sys_common9backtrace28__rust_begin_short_backtrace17h95792cddbd04521eE:
Lfunc_begin10:
	.loc	12 117 0
	.cfi_startproc
	pushq	%rbp
	.cfi_def_cfa_offset 16
	.cfi_offset %rbp, -16
	movq	%rsp, %rbp
	.cfi_def_cfa_register %rbp
	subq	$48, %rsp
	movq	%rdi, -32(%rbp)
Ltmp64:
	.loc	12 121 18 prologue_end
	callq	__ZN4core3ops8function6FnOnce9call_once17hd1effd68f771d22bE
Ltmp65:
	.loc	13 295 5
	## InlineAsm Start
	## InlineAsm End
Ltmp66:
	.loc	12 127 2
	addq	$48, %rsp
	popq	%rbp
	retq
Ltmp67:
Lfunc_end10:
	.cfi_endproc

	.p2align	4, 0x90
__ZN3std2io5error14repr_bitpacked11decode_repr17h7fdb6722827a0722E:
Lfunc_begin11:
	.file	14 "/rustc/2c8cc343237b8f7d5a3c3703e3a87f2eb2c54a74/library/std/src/io/error" "repr_bitpacked.rs"
	.loc	14 246 0
	.cfi_startproc
	.cfi_personality 155, _rust_eh_personality
	.cfi_lsda 16, Lexception0
	pushq	%rbp
	.cfi_def_cfa_offset 16
	.cfi_offset %rbp, -16
	movq	%rsp, %rbp
	.cfi_def_cfa_register %rbp
	subq	$320, %rsp
	movq	%rsi, -272(%rbp)
	movq	%rdi, -264(%rbp)
	movq	%rdi, -256(%rbp)
	movq	%rsi, -184(%rbp)
Ltmp77:
	.loc	14 250 9 prologue_end
	movb	$1, -201(%rbp)
	.loc	14 250 16 is_stmt 0
	movq	%rsi, -160(%rbp)
Ltmp78:
	.loc	9 326 9 is_stmt 1
	movq	%rsi, -152(%rbp)
Ltmp79:
	.loc	5 215 33
	movq	%rsi, -144(%rbp)
	.loc	5 215 18 is_stmt 0
	movq	%rsi, -248(%rbp)
Ltmp80:
	.loc	14 251 11 is_stmt 1
	movq	-248(%rbp), %rax
	andl	$3, %eax
	movq	%rax, -280(%rbp)
	.loc	14 251 5 is_stmt 0
	subq	$3, %rax
	ja	LBB11_2
	.loc	14 0 5
	movq	-280(%rbp), %rax
	leaq	LJTI11_0(%rip), %rcx
	movslq	(%rcx,%rax,4), %rax
	addq	%rcx, %rax
	jmpq	*%rax
LBB11_2:
Ltmp74:
	.loc	14 280 13 is_stmt 1
	leaq	l___unnamed_4(%rip), %rdi
	leaq	l___unnamed_5(%rip), %rdx
	movl	$40, %esi
	callq	__ZN4core9panicking5panic17hc1bc45270cf64b03E
Ltmp75:
	jmp	LBB11_9
LBB11_3:
	.loc	14 0 13 is_stmt 0
	movq	-264(%rbp), %rax
	.loc	14 253 26 is_stmt 1
	movq	-248(%rbp), %rcx
	.loc	14 253 24 is_stmt 0
	sarq	$32, %rcx
	movl	%ecx, -4(%rbp)
Ltmp81:
	.loc	14 254 13 is_stmt 1
	movl	%ecx, 4(%rax)
	movb	$0, (%rax)
Ltmp82:
	.loc	14 255 9
	jmp	LBB11_12
LBB11_4:
	.loc	14 257 30
	movl	-244(%rbp), %edi
	.loc	14 257 29 is_stmt 0
	movl	%edi, -12(%rbp)
Ltmp70:
Ltmp83:
	.loc	14 258 24 is_stmt 1
	callq	__ZN3std2io5error14repr_bitpacked14kind_from_prim17hdd164430ebd78931E
Ltmp71:
	movb	%al, -281(%rbp)
	jmp	LBB11_13
Ltmp84:
LBB11_5:
	.loc	14 0 24 is_stmt 0
	movq	-264(%rbp), %rax
	movq	-272(%rbp), %rcx
	.loc	14 270 58 is_stmt 1
	movq	%rcx, -40(%rbp)
Ltmp85:
	.loc	9 450 41
	movq	%rcx, -32(%rbp)
	movq	%rcx, -24(%rbp)
Ltmp86:
	.loc	9 201 13
	movq	%rcx, -224(%rbp)
Ltmp87:
	.loc	9 326 9
	movq	-224(%rbp), %rcx
Ltmp88:
	.loc	14 270 31
	movq	%rcx, 8(%rax)
	movb	$2, (%rax)
	.loc	14 270 94 is_stmt 0
	jmp	LBB11_12
LBB11_6:
	.loc	14 0 94
	movq	-272(%rbp), %rax
	.loc	14 275 26 is_stmt 1
	movq	%rax, -120(%rbp)
Ltmp89:
	.loc	9 326 9
	movq	%rax, -112(%rbp)
Ltmp90:
	.loc	5 1300 9
	movq	%rax, -104(%rbp)
Ltmp91:
	.loc	5 60 9
	movq	%rax, -96(%rbp)
Ltmp92:
	.loc	5 1282 9
	movq	%rax, -88(%rbp)
Ltmp93:
	.loc	5 568 18
	addq	$-1, %rax
	movq	%rax, -80(%rbp)
	movq	-80(%rbp), %rax
	movq	%rax, -296(%rbp)
	jmp	LBB11_10
Ltmp94:
LBB11_7:
	.loc	14 283 1
	testb	$1, -201(%rbp)
	jne	LBB11_19
	jmp	LBB11_18
LBB11_8:
Ltmp76:
	.loc	14 0 1 is_stmt 0
	movq	%rax, %rcx
	movl	%edx, %eax
	movq	%rcx, -136(%rbp)
	movl	%eax, -128(%rbp)
	jmp	LBB11_7
LBB11_9:
	ud2
LBB11_10:
	movq	-296(%rbp), %rax
Ltmp95:
	.loc	5 568 18 is_stmt 1
	movq	%rax, -72(%rbp)
Ltmp96:
	.loc	5 99 33
	movq	%rax, -64(%rbp)
Ltmp97:
	.loc	4 135 36
	movq	%rax, -192(%rbp)
	.loc	4 135 14 is_stmt 0
	movq	-192(%rbp), %rax
	movq	%rax, -200(%rbp)
	movq	-200(%rbp), %rax
	movq	%rax, -56(%rbp)
Ltmp98:
	.loc	5 60 9 is_stmt 1
	movq	%rax, -48(%rbp)
Ltmp99:
	.loc	14 276 31
	movb	$0, -201(%rbp)
	movq	%rax, -216(%rbp)
	movq	-216(%rbp), %rdi
Ltmp68:
	callq	__ZN78_$LT$std..io..error..repr_bitpacked..Repr$u20$as$u20$core..ops..drop..Drop$GT$4drop28_$u7b$$u7b$closure$u7d$$u7d$17hc0136b325db9f3a1E
Ltmp69:
	movq	%rax, -304(%rbp)
	jmp	LBB11_11
LBB11_11:
	.loc	14 0 31 is_stmt 0
	movq	-264(%rbp), %rax
	movq	-304(%rbp), %rcx
	.loc	14 276 13
	movq	%rcx, 8(%rax)
	movb	$3, (%rax)
Ltmp100:
LBB11_12:
	.loc	14 283 1 is_stmt 1
	testb	$1, -201(%rbp)
	jne	LBB11_21
	jmp	LBB11_20
LBB11_13:
	.loc	14 0 1 is_stmt 0
	movb	-281(%rbp), %al
Ltmp101:
	.loc	14 258 24 is_stmt 1
	movb	%al, -233(%rbp)
	.loc	14 258 65 is_stmt 0
	leaq	-248(%rbp), %rax
	movq	%rax, -232(%rbp)
Ltmp102:
	.loc	8 871 15 is_stmt 1
	movl	$1, %eax
	xorl	%ecx, %ecx
	cmpb	$41, -233(%rbp)
	cmoveq	%rcx, %rax
	.loc	8 871 9 is_stmt 0
	cmpq	$0, %rax
	jne	LBB11_15
	.loc	8 873 21 is_stmt 1
	movq	-232(%rbp), %rdi
Ltmp72:
	callq	__ZN3std2io5error14repr_bitpacked11decode_repr28_$u7b$$u7b$closure$u7d$$u7d$17h3f1200a64a0ae278E
Ltmp73:
	movb	%al, -305(%rbp)
	jmp	LBB11_17
LBB11_15:
	.loc	8 872 18
	movb	-233(%rbp), %al
	movb	%al, -5(%rbp)
Ltmp103:
	.loc	8 872 24 is_stmt 0
	movb	%al, -234(%rbp)
Ltmp104:
LBB11_16:
	.loc	8 0 24
	movq	-264(%rbp), %rax
Ltmp105:
	.loc	14 268 31 is_stmt 1
	movb	-234(%rbp), %cl
	.loc	14 268 13 is_stmt 0
	movb	%cl, 1(%rax)
	movb	$1, (%rax)
Ltmp106:
	.loc	14 269 9 is_stmt 1
	jmp	LBB11_12
LBB11_17:
	.loc	14 0 9 is_stmt 0
	movb	-305(%rbp), %al
Ltmp107:
	.loc	8 873 21 is_stmt 1
	movb	%al, -234(%rbp)
	.loc	8 873 23 is_stmt 0
	jmp	LBB11_16
Ltmp108:
LBB11_18:
	.loc	14 246 1 is_stmt 1
	movq	-136(%rbp), %rdi
	callq	__Unwind_Resume
LBB11_19:
	.loc	14 283 1
	jmp	LBB11_18
LBB11_20:
	.loc	14 0 1 is_stmt 0
	movq	-256(%rbp), %rax
	.loc	14 283 2
	addq	$320, %rsp
	popq	%rbp
	retq
LBB11_21:
	.loc	14 283 1
	jmp	LBB11_20
Ltmp109:
Lfunc_end11:
	.cfi_endproc
	.p2align	2, 0x90
	.data_region jt32
.set L11_0_set_5, LBB11_5-LJTI11_0
.set L11_0_set_6, LBB11_6-LJTI11_0
.set L11_0_set_3, LBB11_3-LJTI11_0
.set L11_0_set_4, LBB11_4-LJTI11_0
LJTI11_0:
	.long	L11_0_set_5
	.long	L11_0_set_6
	.long	L11_0_set_3
	.long	L11_0_set_4
	.end_data_region
	.section	__TEXT,__gcc_except_tab
	.p2align	2
GCC_except_table11:
Lexception0:
	.byte	255
	.byte	255
	.byte	1
	.uleb128 Lcst_end0-Lcst_begin0
Lcst_begin0:
	.uleb128 Ltmp74-Lfunc_begin11
	.uleb128 Ltmp73-Ltmp74
	.uleb128 Ltmp76-Lfunc_begin11
	.byte	0
	.uleb128 Ltmp73-Lfunc_begin11
	.uleb128 Lfunc_end11-Ltmp73
	.byte	0
	.byte	0
Lcst_end0:
	.p2align	2

	.section	__TEXT,__text,regular,pure_instructions
	.p2align	4, 0x90
__ZN3std2io5error14repr_bitpacked11decode_repr28_$u7b$$u7b$closure$u7d$$u7d$17h3f1200a64a0ae278E:
Lfunc_begin12:
	.loc	14 258 0 is_stmt 1
	.cfi_startproc
	pushq	%rbp
	.cfi_def_cfa_offset 16
	.cfi_offset %rbp, -16
	movq	%rsp, %rbp
	.cfi_def_cfa_register %rbp
	subq	$16, %rsp
	movq	%rdi, -16(%rbp)
Ltmp110:
	.loc	14 266 17 prologue_end
	callq	__ZN4core4hint21unreachable_unchecked17h0252838ac8e689dbE
Ltmp111:
Lfunc_end12:
	.cfi_endproc

	.p2align	4, 0x90
__ZN3std2io5error14repr_bitpacked14kind_from_prim17hdd164430ebd78931E:
Lfunc_begin13:
	.loc	14 289 0
	.cfi_startproc
	pushq	%rbp
	.cfi_def_cfa_offset 16
	.cfi_offset %rbp, -16
	movq	%rsp, %rbp
	.cfi_def_cfa_register %rbp
	subq	$336, %rsp
	movl	%edi, -336(%rbp)
Ltmp112:
	.loc	14 302 5 prologue_end
	leaq	-336(%rbp), %rax
	movq	%rax, -328(%rbp)
	cmpl	$0, -336(%rbp)
	je	LBB13_2
	leaq	-336(%rbp), %rax
	movq	%rax, -320(%rbp)
	cmpl	$1, -336(%rbp)
	je	LBB13_5
	jmp	LBB13_4
LBB13_2:
Ltmp113:
	.loc	14 302 5 is_stmt 0
	movb	$0, -329(%rbp)
Ltmp114:
LBB13_3:
	.loc	14 345 2 is_stmt 1
	movb	-329(%rbp), %al
	addq	$336, %rsp
	popq	%rbp
	retq
LBB13_4:
	.loc	14 302 5
	leaq	-336(%rbp), %rax
	movq	%rax, -312(%rbp)
	cmpl	$2, -336(%rbp)
	je	LBB13_7
	jmp	LBB13_6
LBB13_5:
Ltmp115:
	.loc	14 302 5 is_stmt 0
	movb	$1, -329(%rbp)
Ltmp116:
	.loc	14 302 5
	jmp	LBB13_3
LBB13_6:
	leaq	-336(%rbp), %rax
	movq	%rax, -304(%rbp)
	cmpl	$3, -336(%rbp)
	je	LBB13_9
	jmp	LBB13_8
LBB13_7:
Ltmp117:
	.loc	14 302 5
	movb	$2, -329(%rbp)
Ltmp118:
	.loc	14 302 5
	jmp	LBB13_3
LBB13_8:
	leaq	-336(%rbp), %rax
	movq	%rax, -296(%rbp)
	cmpl	$4, -336(%rbp)
	je	LBB13_11
	jmp	LBB13_10
LBB13_9:
Ltmp119:
	.loc	14 302 5
	movb	$3, -329(%rbp)
Ltmp120:
	.loc	14 302 5
	jmp	LBB13_3
LBB13_10:
	leaq	-336(%rbp), %rax
	movq	%rax, -288(%rbp)
	cmpl	$5, -336(%rbp)
	je	LBB13_13
	jmp	LBB13_12
LBB13_11:
Ltmp121:
	.loc	14 302 5
	movb	$4, -329(%rbp)
Ltmp122:
	.loc	14 302 5
	jmp	LBB13_3
LBB13_12:
	leaq	-336(%rbp), %rax
	movq	%rax, -280(%rbp)
	cmpl	$6, -336(%rbp)
	je	LBB13_15
	jmp	LBB13_14
LBB13_13:
Ltmp123:
	.loc	14 302 5
	movb	$5, -329(%rbp)
Ltmp124:
	.loc	14 302 5
	jmp	LBB13_3
LBB13_14:
	leaq	-336(%rbp), %rax
	movq	%rax, -272(%rbp)
	cmpl	$7, -336(%rbp)
	je	LBB13_17
	jmp	LBB13_16
LBB13_15:
Ltmp125:
	.loc	14 302 5
	movb	$6, -329(%rbp)
Ltmp126:
	.loc	14 302 5
	jmp	LBB13_3
LBB13_16:
	leaq	-336(%rbp), %rax
	movq	%rax, -264(%rbp)
	cmpl	$8, -336(%rbp)
	je	LBB13_19
	jmp	LBB13_18
LBB13_17:
Ltmp127:
	.loc	14 302 5
	movb	$7, -329(%rbp)
Ltmp128:
	.loc	14 302 5
	jmp	LBB13_3
LBB13_18:
	leaq	-336(%rbp), %rax
	movq	%rax, -256(%rbp)
	cmpl	$9, -336(%rbp)
	je	LBB13_21
	jmp	LBB13_20
LBB13_19:
Ltmp129:
	.loc	14 302 5
	movb	$8, -329(%rbp)
Ltmp130:
	.loc	14 302 5
	jmp	LBB13_3
LBB13_20:
	leaq	-336(%rbp), %rax
	movq	%rax, -248(%rbp)
	cmpl	$10, -336(%rbp)
	je	LBB13_23
	jmp	LBB13_22
LBB13_21:
Ltmp131:
	.loc	14 302 5
	movb	$9, -329(%rbp)
Ltmp132:
	.loc	14 302 5
	jmp	LBB13_3
LBB13_22:
	leaq	-336(%rbp), %rax
	movq	%rax, -240(%rbp)
	cmpl	$11, -336(%rbp)
	je	LBB13_25
	jmp	LBB13_24
LBB13_23:
Ltmp133:
	.loc	14 302 5
	movb	$10, -329(%rbp)
Ltmp134:
	.loc	14 302 5
	jmp	LBB13_3
LBB13_24:
	leaq	-336(%rbp), %rax
	movq	%rax, -232(%rbp)
	cmpl	$12, -336(%rbp)
	je	LBB13_27
	jmp	LBB13_26
LBB13_25:
Ltmp135:
	.loc	14 302 5
	movb	$11, -329(%rbp)
Ltmp136:
	.loc	14 302 5
	jmp	LBB13_3
LBB13_26:
	leaq	-336(%rbp), %rax
	movq	%rax, -224(%rbp)
	cmpl	$13, -336(%rbp)
	je	LBB13_29
	jmp	LBB13_28
LBB13_27:
Ltmp137:
	.loc	14 302 5
	movb	$12, -329(%rbp)
Ltmp138:
	.loc	14 302 5
	jmp	LBB13_3
LBB13_28:
	leaq	-336(%rbp), %rax
	movq	%rax, -216(%rbp)
	cmpl	$14, -336(%rbp)
	je	LBB13_31
	jmp	LBB13_30
LBB13_29:
Ltmp139:
	.loc	14 302 5
	movb	$13, -329(%rbp)
Ltmp140:
	.loc	14 302 5
	jmp	LBB13_3
LBB13_30:
	leaq	-336(%rbp), %rax
	movq	%rax, -208(%rbp)
	cmpl	$15, -336(%rbp)
	je	LBB13_33
	jmp	LBB13_32
LBB13_31:
Ltmp141:
	.loc	14 302 5
	movb	$14, -329(%rbp)
Ltmp142:
	.loc	14 302 5
	jmp	LBB13_3
LBB13_32:
	leaq	-336(%rbp), %rax
	movq	%rax, -200(%rbp)
	cmpl	$16, -336(%rbp)
	je	LBB13_35
	jmp	LBB13_34
LBB13_33:
Ltmp143:
	.loc	14 302 5
	movb	$15, -329(%rbp)
Ltmp144:
	.loc	14 302 5
	jmp	LBB13_3
LBB13_34:
	leaq	-336(%rbp), %rax
	movq	%rax, -192(%rbp)
	cmpl	$17, -336(%rbp)
	je	LBB13_37
	jmp	LBB13_36
LBB13_35:
Ltmp145:
	.loc	14 302 5
	movb	$16, -329(%rbp)
Ltmp146:
	.loc	14 302 5
	jmp	LBB13_3
LBB13_36:
	leaq	-336(%rbp), %rax
	movq	%rax, -184(%rbp)
	cmpl	$18, -336(%rbp)
	je	LBB13_39
	jmp	LBB13_38
LBB13_37:
Ltmp147:
	.loc	14 302 5
	movb	$17, -329(%rbp)
Ltmp148:
	.loc	14 302 5
	jmp	LBB13_3
LBB13_38:
	leaq	-336(%rbp), %rax
	movq	%rax, -176(%rbp)
	cmpl	$19, -336(%rbp)
	je	LBB13_41
	jmp	LBB13_40
LBB13_39:
Ltmp149:
	.loc	14 302 5
	movb	$18, -329(%rbp)
Ltmp150:
	.loc	14 302 5
	jmp	LBB13_3
LBB13_40:
	leaq	-336(%rbp), %rax
	movq	%rax, -168(%rbp)
	cmpl	$20, -336(%rbp)
	je	LBB13_43
	jmp	LBB13_42
LBB13_41:
Ltmp151:
	.loc	14 302 5
	movb	$19, -329(%rbp)
Ltmp152:
	.loc	14 302 5
	jmp	LBB13_3
LBB13_42:
	leaq	-336(%rbp), %rax
	movq	%rax, -160(%rbp)
	cmpl	$21, -336(%rbp)
	je	LBB13_45
	jmp	LBB13_44
LBB13_43:
Ltmp153:
	.loc	14 302 5
	movb	$20, -329(%rbp)
Ltmp154:
	.loc	14 302 5
	jmp	LBB13_3
LBB13_44:
	leaq	-336(%rbp), %rax
	movq	%rax, -152(%rbp)
	cmpl	$22, -336(%rbp)
	je	LBB13_47
	jmp	LBB13_46
LBB13_45:
Ltmp155:
	.loc	14 302 5
	movb	$21, -329(%rbp)
Ltmp156:
	.loc	14 302 5
	jmp	LBB13_3
LBB13_46:
	leaq	-336(%rbp), %rax
	movq	%rax, -144(%rbp)
	cmpl	$23, -336(%rbp)
	je	LBB13_49
	jmp	LBB13_48
LBB13_47:
Ltmp157:
	.loc	14 302 5
	movb	$22, -329(%rbp)
Ltmp158:
	.loc	14 302 5
	jmp	LBB13_3
LBB13_48:
	leaq	-336(%rbp), %rax
	movq	%rax, -136(%rbp)
	cmpl	$24, -336(%rbp)
	je	LBB13_51
	jmp	LBB13_50
LBB13_49:
Ltmp159:
	.loc	14 302 5
	movb	$23, -329(%rbp)
Ltmp160:
	.loc	14 302 5
	jmp	LBB13_3
LBB13_50:
	leaq	-336(%rbp), %rax
	movq	%rax, -128(%rbp)
	cmpl	$25, -336(%rbp)
	je	LBB13_53
	jmp	LBB13_52
LBB13_51:
Ltmp161:
	.loc	14 302 5
	movb	$24, -329(%rbp)
Ltmp162:
	.loc	14 302 5
	jmp	LBB13_3
LBB13_52:
	leaq	-336(%rbp), %rax
	movq	%rax, -120(%rbp)
	cmpl	$26, -336(%rbp)
	je	LBB13_55
	jmp	LBB13_54
LBB13_53:
Ltmp163:
	.loc	14 302 5
	movb	$25, -329(%rbp)
Ltmp164:
	.loc	14 302 5
	jmp	LBB13_3
LBB13_54:
	leaq	-336(%rbp), %rax
	movq	%rax, -112(%rbp)
	cmpl	$27, -336(%rbp)
	je	LBB13_57
	jmp	LBB13_56
LBB13_55:
Ltmp165:
	.loc	14 302 5
	movb	$26, -329(%rbp)
Ltmp166:
	.loc	14 302 5
	jmp	LBB13_3
LBB13_56:
	leaq	-336(%rbp), %rax
	movq	%rax, -104(%rbp)
	cmpl	$28, -336(%rbp)
	je	LBB13_59
	jmp	LBB13_58
LBB13_57:
Ltmp167:
	.loc	14 302 5
	movb	$27, -329(%rbp)
Ltmp168:
	.loc	14 302 5
	jmp	LBB13_3
LBB13_58:
	leaq	-336(%rbp), %rax
	movq	%rax, -96(%rbp)
	cmpl	$29, -336(%rbp)
	je	LBB13_61
	jmp	LBB13_60
LBB13_59:
Ltmp169:
	.loc	14 302 5
	movb	$28, -329(%rbp)
Ltmp170:
	.loc	14 302 5
	jmp	LBB13_3
LBB13_60:
	leaq	-336(%rbp), %rax
	movq	%rax, -88(%rbp)
	cmpl	$30, -336(%rbp)
	je	LBB13_63
	jmp	LBB13_62
LBB13_61:
Ltmp171:
	.loc	14 302 5
	movb	$29, -329(%rbp)
Ltmp172:
	.loc	14 302 5
	jmp	LBB13_3
LBB13_62:
	leaq	-336(%rbp), %rax
	movq	%rax, -80(%rbp)
	cmpl	$31, -336(%rbp)
	je	LBB13_65
	jmp	LBB13_64
LBB13_63:
Ltmp173:
	.loc	14 302 5
	movb	$30, -329(%rbp)
Ltmp174:
	.loc	14 302 5
	jmp	LBB13_3
LBB13_64:
	leaq	-336(%rbp), %rax
	movq	%rax, -72(%rbp)
	cmpl	$32, -336(%rbp)
	je	LBB13_67
	jmp	LBB13_66
LBB13_65:
Ltmp175:
	.loc	14 302 5
	movb	$31, -329(%rbp)
Ltmp176:
	.loc	14 302 5
	jmp	LBB13_3
LBB13_66:
	leaq	-336(%rbp), %rax
	movq	%rax, -64(%rbp)
	cmpl	$33, -336(%rbp)
	je	LBB13_69
	jmp	LBB13_68
LBB13_67:
Ltmp177:
	.loc	14 302 5
	movb	$32, -329(%rbp)
Ltmp178:
	.loc	14 302 5
	jmp	LBB13_3
LBB13_68:
	leaq	-336(%rbp), %rax
	movq	%rax, -56(%rbp)
	cmpl	$34, -336(%rbp)
	je	LBB13_71
	jmp	LBB13_70
LBB13_69:
Ltmp179:
	.loc	14 302 5
	movb	$33, -329(%rbp)
Ltmp180:
	.loc	14 302 5
	jmp	LBB13_3
LBB13_70:
	leaq	-336(%rbp), %rax
	movq	%rax, -48(%rbp)
	cmpl	$35, -336(%rbp)
	je	LBB13_73
	jmp	LBB13_72
LBB13_71:
Ltmp181:
	.loc	14 302 5
	movb	$34, -329(%rbp)
Ltmp182:
	.loc	14 302 5
	jmp	LBB13_3
LBB13_72:
	leaq	-336(%rbp), %rax
	movq	%rax, -40(%rbp)
	cmpl	$39, -336(%rbp)
	je	LBB13_75
	jmp	LBB13_74
LBB13_73:
Ltmp183:
	.loc	14 302 5
	movb	$35, -329(%rbp)
Ltmp184:
	.loc	14 302 5
	jmp	LBB13_3
LBB13_74:
	leaq	-336(%rbp), %rax
	movq	%rax, -32(%rbp)
	cmpl	$37, -336(%rbp)
	je	LBB13_77
	jmp	LBB13_76
LBB13_75:
Ltmp185:
	.loc	14 302 5
	movb	$39, -329(%rbp)
Ltmp186:
	.loc	14 302 5
	jmp	LBB13_3
LBB13_76:
	leaq	-336(%rbp), %rax
	movq	%rax, -24(%rbp)
	cmpl	$36, -336(%rbp)
	je	LBB13_79
	jmp	LBB13_78
LBB13_77:
Ltmp187:
	.loc	14 302 5
	movb	$37, -329(%rbp)
Ltmp188:
	.loc	14 302 5
	jmp	LBB13_3
LBB13_78:
	leaq	-336(%rbp), %rax
	movq	%rax, -16(%rbp)
	cmpl	$38, -336(%rbp)
	je	LBB13_81
	jmp	LBB13_80
LBB13_79:
Ltmp189:
	.loc	14 302 5
	movb	$36, -329(%rbp)
Ltmp190:
	.loc	14 302 5
	jmp	LBB13_3
LBB13_80:
	leaq	-336(%rbp), %rax
	movq	%rax, -8(%rbp)
	cmpl	$40, -336(%rbp)
	je	LBB13_83
	jmp	LBB13_82
LBB13_81:
Ltmp191:
	.loc	14 302 5
	movb	$38, -329(%rbp)
Ltmp192:
	.loc	14 302 5
	jmp	LBB13_3
LBB13_82:
	movb	$41, -329(%rbp)
	jmp	LBB13_3
LBB13_83:
Ltmp193:
	.loc	14 302 5
	movb	$40, -329(%rbp)
Ltmp194:
	.loc	14 302 5
	jmp	LBB13_3
Ltmp195:
Lfunc_end13:
	.cfi_endproc

	.private_extern	__ZN3std2rt10lang_start17h27880e679eb1d8f8E
	.globl	__ZN3std2rt10lang_start17h27880e679eb1d8f8E
	.p2align	4, 0x90
__ZN3std2rt10lang_start17h27880e679eb1d8f8E:
Lfunc_begin14:
	.file	15 "/rustc/2c8cc343237b8f7d5a3c3703e3a87f2eb2c54a74/library/std/src" "rt.rs"
	.loc	15 159 0 is_stmt 1
	.cfi_startproc
	pushq	%rbp
	.cfi_def_cfa_offset 16
	.cfi_offset %rbp, -16
	movq	%rsp, %rbp
	.cfi_def_cfa_register %rbp
	subq	$64, %rsp
	movl	%ecx, %eax
	movq	%rdx, %rcx
	movq	%rsi, %rdx
	movq	%rdi, -40(%rbp)
	movq	%rdx, -32(%rbp)
	movq	%rcx, -24(%rbp)
	movb	%al, -9(%rbp)
Ltmp196:
	.loc	15 166 10 prologue_end
	movq	%rdi, -48(%rbp)
	.loc	15 165 17
	leaq	-48(%rbp), %rdi
	leaq	l___unnamed_1(%rip), %rsi
	movzbl	%al, %r8d
	callq	__ZN3std2rt19lang_start_internal17h72dc55d09e0a2397E
	movq	%rax, -56(%rbp)
	.loc	15 165 12 is_stmt 0
	movq	-56(%rbp), %rax
	movq	%rax, -8(%rbp)
	.loc	15 172 2 is_stmt 1
	addq	$64, %rsp
	popq	%rbp
	retq
Ltmp197:
Lfunc_end14:
	.cfi_endproc

	.p2align	4, 0x90
__ZN3std2rt10lang_start28_$u7b$$u7b$closure$u7d$$u7d$17hf059158314f0d495E:
Lfunc_begin15:
	.loc	15 166 0
	.cfi_startproc
	pushq	%rbp
	.cfi_def_cfa_offset 16
	.cfi_offset %rbp, -16
	movq	%rsp, %rbp
	.cfi_def_cfa_register %rbp
	subq	$32, %rsp
	movq	%rdi, -16(%rbp)
Ltmp198:
	.loc	15 166 77 prologue_end
	movq	(%rdi), %rdi
	.loc	15 166 18 is_stmt 0
	callq	__ZN3std10sys_common9backtrace28__rust_begin_short_backtrace17h95792cddbd04521eE
	callq	__ZN54_$LT$$LP$$RP$$u20$as$u20$std..process..Termination$GT$6report17hf70efb0f676c11a7E
	movb	%al, -17(%rbp)
Ltmp199:
	.file	16 "/rustc/2c8cc343237b8f7d5a3c3703e3a87f2eb2c54a74/library/std/src" "process.rs"
	.loc	16 1820 9 is_stmt 1
	leaq	-17(%rbp), %rax
	movq	%rax, -8(%rbp)
Ltmp200:
	.file	17 "/rustc/2c8cc343237b8f7d5a3c3703e3a87f2eb2c54a74/library/std/src/sys/unix/process" "process_common.rs"
	.loc	17 594 9
	movzbl	-17(%rbp), %eax
Ltmp201:
	.loc	15 166 100
	addq	$32, %rsp
	popq	%rbp
	retq
Ltmp202:
Lfunc_end15:
	.cfi_endproc

	.p2align	4, 0x90
__ZN3std3env3var17h72835dd2299fe882E:
Lfunc_begin16:
	.file	18 "/rustc/2c8cc343237b8f7d5a3c3703e3a87f2eb2c54a74/library/std/src" "env.rs"
	.loc	18 227 0
	.cfi_startproc
	.cfi_personality 155, _rust_eh_personality
	.cfi_lsda 16, Lexception1
	pushq	%rbp
	.cfi_def_cfa_offset 16
	.cfi_offset %rbp, -16
	movq	%rsp, %rbp
	.cfi_def_cfa_register %rbp
	subq	$64, %rsp
	movq	%rdi, -64(%rbp)
	movq	%rdi, -56(%rbp)
	movq	%rsi, -32(%rbp)
	movq	%rdx, -24(%rbp)
Ltmp203:
	leaq	-32(%rbp), %rdi
Ltmp208:
	.loc	18 228 10 prologue_end
	callq	__ZN55_$LT$$RF$T$u20$as$u20$core..convert..AsRef$LT$U$GT$$GT$6as_ref17hdee9774829dd7449E
Ltmp204:
	movq	%rdx, -48(%rbp)
	movq	%rax, -40(%rbp)
	jmp	LBB16_3
LBB16_1:
	.loc	18 227 1
	movq	-16(%rbp), %rdi
	callq	__Unwind_Resume
LBB16_2:
Ltmp207:
	.loc	18 0 1 is_stmt 0
	movq	%rax, %rcx
	movl	%edx, %eax
	movq	%rcx, -16(%rbp)
	movl	%eax, -8(%rbp)
	jmp	LBB16_1
LBB16_3:
Ltmp205:
	movq	-48(%rbp), %rdx
	movq	-40(%rbp), %rsi
	movq	-64(%rbp), %rdi
	.loc	18 228 5 is_stmt 1
	callq	__ZN3std3env4_var17h3981769605209d03E
Ltmp206:
	jmp	LBB16_4
LBB16_4:
	.loc	18 0 5 is_stmt 0
	movq	-56(%rbp), %rax
	.loc	18 229 2 is_stmt 1
	addq	$64, %rsp
	popq	%rbp
	retq
Ltmp209:
Lfunc_end16:
	.cfi_endproc
	.section	__TEXT,__gcc_except_tab
	.p2align	2
GCC_except_table16:
Lexception1:
	.byte	255
	.byte	255
	.byte	1
	.uleb128 Lcst_end1-Lcst_begin1
Lcst_begin1:
	.uleb128 Ltmp203-Lfunc_begin16
	.uleb128 Ltmp204-Ltmp203
	.uleb128 Ltmp207-Lfunc_begin16
	.byte	0
	.uleb128 Ltmp204-Lfunc_begin16
	.uleb128 Ltmp205-Ltmp204
	.byte	0
	.byte	0
	.uleb128 Ltmp205-Lfunc_begin16
	.uleb128 Ltmp206-Ltmp205
	.uleb128 Ltmp207-Lfunc_begin16
	.byte	0
Lcst_end1:
	.p2align	2

	.section	__TEXT,__text,regular,pure_instructions
	.p2align	4, 0x90
__ZN3std3env6var_os17h4bd843acce583563E:
Lfunc_begin17:
	.loc	18 268 0
	.cfi_startproc
	.cfi_personality 155, _rust_eh_personality
	.cfi_lsda 16, Lexception2
	pushq	%rbp
	.cfi_def_cfa_offset 16
	.cfi_offset %rbp, -16
	movq	%rsp, %rbp
	.cfi_def_cfa_register %rbp
	subq	$64, %rsp
	movq	%rdi, -64(%rbp)
	movq	%rdi, -56(%rbp)
	movq	%rsi, -32(%rbp)
	movq	%rdx, -24(%rbp)
Ltmp210:
	leaq	-32(%rbp), %rdi
Ltmp215:
	.loc	18 269 13 prologue_end
	callq	__ZN55_$LT$$RF$T$u20$as$u20$core..convert..AsRef$LT$U$GT$$GT$6as_ref17hdee9774829dd7449E
Ltmp211:
	movq	%rdx, -48(%rbp)
	movq	%rax, -40(%rbp)
	jmp	LBB17_3
LBB17_1:
	.loc	18 268 1
	movq	-16(%rbp), %rdi
	callq	__Unwind_Resume
LBB17_2:
Ltmp214:
	.loc	18 0 1 is_stmt 0
	movq	%rax, %rcx
	movl	%edx, %eax
	movq	%rcx, -16(%rbp)
	movl	%eax, -8(%rbp)
	jmp	LBB17_1
LBB17_3:
Ltmp212:
	movq	-48(%rbp), %rdx
	movq	-40(%rbp), %rsi
	movq	-64(%rbp), %rdi
	.loc	18 269 5 is_stmt 1
	callq	__ZN3std3env7_var_os17h71e71f6d7accb7a3E
Ltmp213:
	jmp	LBB17_4
LBB17_4:
	.loc	18 0 5 is_stmt 0
	movq	-56(%rbp), %rax
	.loc	18 270 2 is_stmt 1
	addq	$64, %rsp
	popq	%rbp
	retq
Ltmp216:
Lfunc_end17:
	.cfi_endproc
	.section	__TEXT,__gcc_except_tab
	.p2align	2
GCC_except_table17:
Lexception2:
	.byte	255
	.byte	255
	.byte	1
	.uleb128 Lcst_end2-Lcst_begin2
Lcst_begin2:
	.uleb128 Ltmp210-Lfunc_begin17
	.uleb128 Ltmp211-Ltmp210
	.uleb128 Ltmp214-Lfunc_begin17
	.byte	0
	.uleb128 Ltmp211-Lfunc_begin17
	.uleb128 Ltmp212-Ltmp211
	.byte	0
	.byte	0
	.uleb128 Ltmp212-Lfunc_begin17
	.uleb128 Ltmp213-Ltmp212
	.uleb128 Ltmp214-Lfunc_begin17
	.byte	0
Lcst_end2:
	.p2align	2

	.section	__TEXT,__text,regular,pure_instructions
	.p2align	4, 0x90
__ZN3std3ffi6os_str85_$LT$impl$u20$core..convert..AsRef$LT$std..ffi..os_str..OsStr$GT$$u20$for$u20$str$GT$6as_ref17h999f6970fcddcfb2E:
Lfunc_begin18:
	.file	19 "/rustc/2c8cc343237b8f7d5a3c3703e3a87f2eb2c54a74/library/std/src/ffi" "os_str.rs"
	.loc	19 1321 0
	.cfi_startproc
	pushq	%rbp
	.cfi_def_cfa_offset 16
	.cfi_offset %rbp, -16
	movq	%rsp, %rbp
	.cfi_def_cfa_register %rbp
	subq	$112, %rsp
	movq	%rdi, -112(%rbp)
	movq	%rsi, -104(%rbp)
Ltmp217:
	.loc	19 1322 43 prologue_end
	movq	%rdi, -96(%rbp)
	movq	%rsi, -88(%rbp)
Ltmp218:
	.file	20 "/rustc/2c8cc343237b8f7d5a3c3703e3a87f2eb2c54a74/library/std/src/sys/unix" "os_str.rs"
	.loc	20 201 30
	movq	%rdi, -80(%rbp)
	movq	%rsi, -72(%rbp)
Ltmp219:
	.file	21 "/rustc/2c8cc343237b8f7d5a3c3703e3a87f2eb2c54a74/library/core/src/str" "mod.rs"
	.loc	21 327 18
	movq	%rdi, -64(%rbp)
	movq	%rsi, -56(%rbp)
	movq	-64(%rbp), %rcx
	movq	-56(%rbp), %rax
Ltmp220:
	.loc	20 201 30
	movq	%rcx, -48(%rbp)
	movq	%rax, -40(%rbp)
Ltmp221:
	.loc	20 196 18
	movq	%rcx, -32(%rbp)
	movq	%rax, -24(%rbp)
	movq	-32(%rbp), %rax
	movq	-24(%rbp), %rdx
Ltmp222:
	.loc	19 1322 27
	movq	%rax, -16(%rbp)
	movq	%rdx, -8(%rbp)
	.loc	19 1323 6
	addq	$112, %rsp
	popq	%rbp
	retq
Ltmp223:
Lfunc_end18:
	.cfi_endproc

	.p2align	4, 0x90
__ZN3std7process7Command3arg17h15626911c3a0adedE:
Lfunc_begin19:
	.loc	16 607 0
	.cfi_startproc
	.cfi_personality 155, _rust_eh_personality
	.cfi_lsda 16, Lexception3
	pushq	%rbp
	.cfi_def_cfa_offset 16
	.cfi_offset %rbp, -16
	movq	%rsp, %rbp
	.cfi_def_cfa_register %rbp
	subq	$64, %rsp
	movq	%rdi, -64(%rbp)
	movq	%rsi, -40(%rbp)
	movq	%rdx, -32(%rbp)
	movq	%rdi, -24(%rbp)
Ltmp224:
	leaq	-40(%rbp), %rdi
Ltmp229:
	.loc	16 608 24 prologue_end
	callq	__ZN55_$LT$$RF$T$u20$as$u20$core..convert..AsRef$LT$U$GT$$GT$6as_ref17hdee9774829dd7449E
Ltmp225:
	movq	%rdx, -56(%rbp)
	movq	%rax, -48(%rbp)
	jmp	LBB19_3
LBB19_1:
	.loc	16 607 5
	movq	-16(%rbp), %rdi
	callq	__Unwind_Resume
LBB19_2:
Ltmp228:
	.loc	16 0 5 is_stmt 0
	movq	%rax, %rcx
	movl	%edx, %eax
	movq	%rcx, -16(%rbp)
	movl	%eax, -8(%rbp)
	jmp	LBB19_1
LBB19_3:
Ltmp226:
	movq	-56(%rbp), %rdx
	movq	-48(%rbp), %rsi
	movq	-64(%rbp), %rdi
	.loc	16 608 9 is_stmt 1
	callq	__ZN3std3sys4unix7process14process_common7Command3arg17hdfe06f44e19d0682E
Ltmp227:
	jmp	LBB19_4
LBB19_4:
	.loc	16 0 9 is_stmt 0
	movq	-64(%rbp), %rax
	.loc	16 610 6 is_stmt 1
	addq	$64, %rsp
	popq	%rbp
	retq
Ltmp230:
Lfunc_end19:
	.cfi_endproc
	.section	__TEXT,__gcc_except_tab
	.p2align	2
GCC_except_table19:
Lexception3:
	.byte	255
	.byte	255
	.byte	1
	.uleb128 Lcst_end3-Lcst_begin3
Lcst_begin3:
	.uleb128 Ltmp224-Lfunc_begin19
	.uleb128 Ltmp225-Ltmp224
	.uleb128 Ltmp228-Lfunc_begin19
	.byte	0
	.uleb128 Ltmp225-Lfunc_begin19
	.uleb128 Ltmp226-Ltmp225
	.byte	0
	.byte	0
	.uleb128 Ltmp226-Lfunc_begin19
	.uleb128 Ltmp227-Ltmp226
	.uleb128 Ltmp228-Lfunc_begin19
	.byte	0
Lcst_end3:
	.p2align	2

	.section	__TEXT,__text,regular,pure_instructions
	.p2align	4, 0x90
__ZN3std7process7Command3new17hb9536382aa76ca64E:
Lfunc_begin20:
	.loc	16 561 0
	.cfi_startproc
	.cfi_personality 155, _rust_eh_personality
	.cfi_lsda 16, Lexception4
	pushq	%rbp
	.cfi_def_cfa_offset 16
	.cfi_offset %rbp, -16
	movq	%rsp, %rbp
	.cfi_def_cfa_register %rbp
	subq	$272, %rsp
	movq	%rdi, -272(%rbp)
	movq	%rdi, -264(%rbp)
	movq	%rsi, -240(%rbp)
	movq	%rdx, -232(%rbp)
Ltmp231:
	leaq	-240(%rbp), %rdi
Ltmp236:
	.loc	16 562 44 prologue_end
	callq	__ZN55_$LT$$RF$T$u20$as$u20$core..convert..AsRef$LT$U$GT$$GT$6as_ref17hdee9774829dd7449E
Ltmp232:
	movq	%rdx, -256(%rbp)
	movq	%rax, -248(%rbp)
	jmp	LBB20_3
LBB20_1:
	.loc	16 561 5
	movq	-16(%rbp), %rdi
	callq	__Unwind_Resume
LBB20_2:
Ltmp235:
	.loc	16 0 5 is_stmt 0
	movq	%rax, %rcx
	movl	%edx, %eax
	movq	%rcx, -16(%rbp)
	movl	%eax, -8(%rbp)
	jmp	LBB20_1
LBB20_3:
Ltmp233:
	movq	-256(%rbp), %rdx
	movq	-248(%rbp), %rsi
	leaq	-224(%rbp), %rdi
	.loc	16 562 26 is_stmt 1
	callq	__ZN3std3sys4unix7process14process_common7Command3new17hbc75e5b02e009ba8E
Ltmp234:
	jmp	LBB20_4
LBB20_4:
	.loc	16 0 26 is_stmt 0
	movq	-272(%rbp), %rdi
	.loc	16 562 9
	leaq	-224(%rbp), %rsi
	movl	$208, %edx
	callq	_memcpy
	movq	-264(%rbp), %rax
	.loc	16 563 6 is_stmt 1
	addq	$272, %rsp
	popq	%rbp
	retq
Ltmp237:
Lfunc_end20:
	.cfi_endproc
	.section	__TEXT,__gcc_except_tab
	.p2align	2
GCC_except_table20:
Lexception4:
	.byte	255
	.byte	255
	.byte	1
	.uleb128 Lcst_end4-Lcst_begin4
Lcst_begin4:
	.uleb128 Ltmp231-Lfunc_begin20
	.uleb128 Ltmp232-Ltmp231
	.uleb128 Ltmp235-Lfunc_begin20
	.byte	0
	.uleb128 Ltmp232-Lfunc_begin20
	.uleb128 Ltmp233-Ltmp232
	.byte	0
	.byte	0
	.uleb128 Ltmp233-Lfunc_begin20
	.uleb128 Ltmp234-Ltmp233
	.uleb128 Ltmp235-Lfunc_begin20
	.byte	0
	.uleb128 Ltmp234-Lfunc_begin20
	.uleb128 Lfunc_end20-Ltmp234
	.byte	0
	.byte	0
Lcst_end4:
	.p2align	2

	.section	__TEXT,__text,regular,pure_instructions
	.p2align	4, 0x90
__ZN3std7process7Command3new17hd7b1d45c8071dba7E:
Lfunc_begin21:
	.loc	16 561 0
	.cfi_startproc
	.cfi_personality 155, _rust_eh_personality
	.cfi_lsda 16, Lexception5
	pushq	%rbp
	.cfi_def_cfa_offset 16
	.cfi_offset %rbp, -16
	movq	%rsp, %rbp
	.cfi_def_cfa_register %rbp
	subq	$272, %rsp
	movq	%rsi, -264(%rbp)
Ltmp246:
	movq	%rdi, %rax
	movq	-264(%rbp), %rdi
	movq	%rax, -256(%rbp)
	movq	%rax, -248(%rbp)
Ltmp238:
Ltmp247:
	.loc	16 562 44 prologue_end
	callq	__ZN98_$LT$std..ffi..os_str..OsString$u20$as$u20$core..convert..AsRef$LT$std..ffi..os_str..OsStr$GT$$GT$6as_ref17haf1ccefdbb6da57fE
Ltmp239:
	movq	%rdx, -240(%rbp)
	movq	%rax, -232(%rbp)
	jmp	LBB21_3
Ltmp248:
LBB21_1:
Ltmp243:
	.loc	16 0 44 is_stmt 0
	movq	-264(%rbp), %rdi
	.loc	16 563 5 is_stmt 1
	callq	__ZN4core3ptr47drop_in_place$LT$std..ffi..os_str..OsString$GT$17hac53ef81397eced7E
Ltmp244:
	jmp	LBB21_6
Ltmp249:
LBB21_2:
Ltmp242:
	.loc	16 0 5 is_stmt 0
	movq	%rax, %rcx
	movl	%edx, %eax
	movq	%rcx, -16(%rbp)
	movl	%eax, -8(%rbp)
	jmp	LBB21_1
Ltmp250:
LBB21_3:
Ltmp240:
	movq	-240(%rbp), %rdx
	movq	-232(%rbp), %rsi
	leaq	-224(%rbp), %rdi
	.loc	16 562 26 is_stmt 1
	callq	__ZN3std3sys4unix7process14process_common7Command3new17hbc75e5b02e009ba8E
Ltmp241:
	jmp	LBB21_4
Ltmp251:
LBB21_4:
	.loc	16 0 26 is_stmt 0
	movq	-256(%rbp), %rdi
	.loc	16 562 9
	leaq	-224(%rbp), %rsi
	movl	$208, %edx
	callq	_memcpy
	movq	-264(%rbp), %rdi
	.loc	16 563 5 is_stmt 1
	callq	__ZN4core3ptr47drop_in_place$LT$std..ffi..os_str..OsString$GT$17hac53ef81397eced7E
	movq	-248(%rbp), %rax
	.loc	16 563 6 is_stmt 0
	addq	$272, %rsp
	popq	%rbp
	retq
Ltmp252:
LBB21_5:
Ltmp245:
	.loc	16 561 5 is_stmt 1
	callq	__ZN4core9panicking19panic_cannot_unwind17h1fbca7e1d7f56ae1E
Ltmp253:
LBB21_6:
	movq	-16(%rbp), %rdi
	callq	__Unwind_Resume
Ltmp254:
Lfunc_end21:
	.cfi_endproc
	.section	__TEXT,__gcc_except_tab
	.p2align	2
GCC_except_table21:
Lexception5:
	.byte	255
	.byte	255
	.byte	1
	.uleb128 Lcst_end5-Lcst_begin5
Lcst_begin5:
	.uleb128 Ltmp238-Lfunc_begin21
	.uleb128 Ltmp239-Ltmp238
	.uleb128 Ltmp242-Lfunc_begin21
	.byte	0
	.uleb128 Ltmp243-Lfunc_begin21
	.uleb128 Ltmp244-Ltmp243
	.uleb128 Ltmp245-Lfunc_begin21
	.byte	0
	.uleb128 Ltmp240-Lfunc_begin21
	.uleb128 Ltmp241-Ltmp240
	.uleb128 Ltmp242-Lfunc_begin21
	.byte	0
	.uleb128 Ltmp241-Lfunc_begin21
	.uleb128 Lfunc_end21-Ltmp241
	.byte	0
	.byte	0
Lcst_end5:
	.p2align	2

	.section	__TEXT,__text,regular,pure_instructions
	.p2align	4, 0x90
__ZN3std9panicking11begin_panic17hf4fa7bc17efef6cfE:
Lfunc_begin22:
	.file	22 "/rustc/2c8cc343237b8f7d5a3c3703e3a87f2eb2c54a74/library/std/src" "panicking.rs"
	.loc	22 601 0
	.cfi_startproc
	.cfi_personality 155, _rust_eh_personality
	.cfi_lsda 16, Lexception6
	pushq	%rbp
	.cfi_def_cfa_offset 16
	.cfi_offset %rbp, -16
	movq	%rsp, %rbp
	.cfi_def_cfa_register %rbp
	subq	$112, %rsp
	movq	%rdi, -104(%rbp)
	movq	%rsi, -96(%rbp)
	movq	%rdi, -48(%rbp)
	movq	%rsi, -40(%rbp)
Ltmp258:
	.loc	22 602 5 prologue_end
	movb	$1, -49(%rbp)
Ltmp259:
	.file	23 "/rustc/2c8cc343237b8f7d5a3c3703e3a87f2eb2c54a74/library/core/src/panic" "location.rs"
	.loc	23 88 9
	movq	%rdx, -32(%rbp)
	movq	-32(%rbp), %rax
	movq	%rax, -88(%rbp)
	movq	%rax, -24(%rbp)
Ltmp260:
	.loc	23 0 9 is_stmt 0
	movq	-88(%rbp), %rax
	movq	-96(%rbp), %rcx
	movq	-104(%rbp), %rdx
Ltmp261:
	.loc	22 607 69 is_stmt 1
	movb	$0, -49(%rbp)
	movq	%rdx, -80(%rbp)
	movq	%rcx, -72(%rbp)
	movq	%rax, -64(%rbp)
Ltmp255:
	leaq	-80(%rbp), %rdi
	.loc	22 607 12 is_stmt 0
	callq	__ZN3std10sys_common9backtrace26__rust_end_short_backtrace17h6bedad99ae95a7adE
Ltmp256:
	jmp	LBB22_4
Ltmp262:
LBB22_2:
	.loc	22 642 1 is_stmt 1
	testb	$1, -49(%rbp)
	jne	LBB22_6
	jmp	LBB22_5
LBB22_3:
Ltmp257:
	.loc	22 0 1 is_stmt 0
	movq	%rax, %rcx
	movl	%edx, %eax
	movq	%rcx, -16(%rbp)
	movl	%eax, -8(%rbp)
	jmp	LBB22_2
LBB22_4:
	ud2
LBB22_5:
	.loc	22 601 1 is_stmt 1
	movq	-16(%rbp), %rdi
	callq	__Unwind_Resume
LBB22_6:
	.loc	22 642 1
	jmp	LBB22_5
Ltmp263:
Lfunc_end22:
	.cfi_endproc
	.section	__TEXT,__gcc_except_tab
	.p2align	2
GCC_except_table22:
Lexception6:
	.byte	255
	.byte	255
	.byte	1
	.uleb128 Lcst_end6-Lcst_begin6
Lcst_begin6:
	.uleb128 Ltmp255-Lfunc_begin22
	.uleb128 Ltmp256-Ltmp255
	.uleb128 Ltmp257-Lfunc_begin22
	.byte	0
	.uleb128 Ltmp256-Lfunc_begin22
	.uleb128 Lfunc_end22-Ltmp256
	.byte	0
	.byte	0
Lcst_end6:
	.p2align	2

	.section	__TEXT,__text,regular,pure_instructions
	.p2align	4, 0x90
__ZN3std9panicking11begin_panic21PanicPayload$LT$A$GT$3new17h4d92421db8cfab19E:
Lfunc_begin23:
	.loc	22 616 0
	.cfi_startproc
	pushq	%rbp
	.cfi_def_cfa_offset 16
	.cfi_offset %rbp, -16
	movq	%rsp, %rbp
	.cfi_def_cfa_register %rbp
	subq	$48, %rsp
	movq	%rdi, -16(%rbp)
	movq	%rsi, -8(%rbp)
Ltmp264:
	.loc	22 617 35 prologue_end
	movq	%rdi, -32(%rbp)
	movq	%rsi, -24(%rbp)
	.loc	22 617 13 is_stmt 0
	movq	-32(%rbp), %rcx
	movq	-24(%rbp), %rax
	movq	%rcx, -48(%rbp)
	movq	%rax, -40(%rbp)
	.loc	22 618 10 is_stmt 1
	movq	-48(%rbp), %rax
	movq	-40(%rbp), %rdx
	addq	$48, %rsp
	popq	%rbp
	retq
Ltmp265:
Lfunc_end23:
	.cfi_endproc

	.p2align	4, 0x90
__ZN3std9panicking11begin_panic28_$u7b$$u7b$closure$u7d$$u7d$17h53ae45824116e6c3E:
Lfunc_begin24:
	.loc	22 607 0
	.cfi_startproc
	.cfi_personality 155, _rust_eh_personality
	.cfi_lsda 16, Lexception7
	pushq	%rbp
	.cfi_def_cfa_offset 16
	.cfi_offset %rbp, -16
	movq	%rsp, %rbp
	.cfi_def_cfa_register %rbp
	subq	$48, %rsp
	movq	%rdi, %rax
	movq	%rax, -48(%rbp)
Ltmp269:
	.loc	22 608 53 prologue_end
	movq	(%rax), %rdi
	movq	8(%rax), %rsi
	.loc	22 608 35 is_stmt 0
	callq	__ZN3std9panicking11begin_panic21PanicPayload$LT$A$GT$3new17h4d92421db8cfab19E
	movq	-48(%rbp), %rdi
	movq	%rdx, -32(%rbp)
	movq	%rax, -40(%rbp)
	.loc	22 608 59
	movq	$0, -24(%rbp)
	.loc	22 608 65
	movq	16(%rdi), %rcx
	.loc	22 608 9
	movq	-24(%rbp), %rdx
Ltmp266:
	leaq	l___unnamed_2(%rip), %rsi
	leaq	-40(%rbp), %rdi
	movl	$1, %r8d
	callq	__ZN3std9panicking20rust_panic_with_hook17h479ead1480e59d8dE
Ltmp267:
	jmp	LBB24_3
Ltmp270:
LBB24_1:
	.loc	22 607 69 is_stmt 1
	movq	-16(%rbp), %rdi
	callq	__Unwind_Resume
Ltmp271:
LBB24_2:
Ltmp268:
	.loc	22 0 69 is_stmt 0
	movq	%rax, %rcx
	movl	%edx, %eax
	movq	%rcx, -16(%rbp)
	movl	%eax, -8(%rbp)
	jmp	LBB24_1
Ltmp272:
LBB24_3:
	ud2
Lfunc_end24:
	.cfi_endproc
	.section	__TEXT,__gcc_except_tab
	.p2align	2
GCC_except_table24:
Lexception7:
	.byte	255
	.byte	255
	.byte	1
	.uleb128 Lcst_end7-Lcst_begin7
Lcst_begin7:
	.uleb128 Lfunc_begin24-Lfunc_begin24
	.uleb128 Ltmp266-Lfunc_begin24
	.byte	0
	.byte	0
	.uleb128 Ltmp266-Lfunc_begin24
	.uleb128 Ltmp267-Ltmp266
	.uleb128 Ltmp268-Lfunc_begin24
	.byte	0
	.uleb128 Ltmp267-Lfunc_begin24
	.uleb128 Lfunc_end24-Ltmp267
	.byte	0
	.byte	0
Lcst_end7:
	.p2align	2

	.section	__TEXT,__text,regular,pure_instructions
	.p2align	4, 0x90
__ZN49_$LT$usize$u20$as$u20$core..iter..range..Step$GT$17forward_unchecked17hd83a8dec2863e213E:
Lfunc_begin25:
	.file	24 "/rustc/2c8cc343237b8f7d5a3c3703e3a87f2eb2c54a74/library/core/src/iter" "range.rs"
	.loc	24 189 0 is_stmt 1
	.cfi_startproc
	pushq	%rbp
	.cfi_def_cfa_offset 16
	.cfi_offset %rbp, -16
	movq	%rsp, %rbp
	.cfi_def_cfa_register %rbp
	subq	$40, %rsp
	movq	%rdi, -40(%rbp)
	movq	%rsi, -32(%rbp)
Ltmp273:
	.loc	24 191 22 prologue_end
	movq	%rdi, -24(%rbp)
	.loc	24 191 42 is_stmt 0
	movq	%rsi, -16(%rbp)
Ltmp274:
	.file	25 "/rustc/2c8cc343237b8f7d5a3c3703e3a87f2eb2c54a74/library/core/src/num" "uint_macros.rs"
	.loc	25 470 22 is_stmt 1
	addq	%rsi, %rdi
	movq	%rdi, -8(%rbp)
	movq	-8(%rbp), %rax
Ltmp275:
	.loc	24 192 10
	addq	$40, %rsp
	popq	%rbp
	retq
Ltmp276:
Lfunc_end25:
	.cfi_endproc

	.p2align	4, 0x90
__ZN4core3any6TypeId2of17hf9c0d53193b21922E:
Lfunc_begin26:
	.loc	11 691 0
	.cfi_startproc
	pushq	%rbp
	.cfi_def_cfa_offset 16
	.cfi_offset %rbp, -16
	movq	%rsp, %rbp
	.cfi_def_cfa_register %rbp
	subq	$16, %rsp
Ltmp277:
	.loc	11 692 21 prologue_end
	movabsq	$-8527728395957036344, %rax
	movq	%rax, -8(%rbp)
	movq	-8(%rbp), %rax
	.loc	11 692 9 is_stmt 0
	movq	%rax, -16(%rbp)
	.loc	11 693 6 is_stmt 1
	movq	-16(%rbp), %rax
	addq	$16, %rsp
	popq	%rbp
	retq
Ltmp278:
Lfunc_end26:
	.cfi_endproc

	.p2align	4, 0x90
__ZN4core3cmp5impls57_$LT$impl$u20$core..cmp..PartialOrd$u20$for$u20$usize$GT$2lt17h596b56d4aed03b13E:
Lfunc_begin27:
	.file	26 "/rustc/2c8cc343237b8f7d5a3c3703e3a87f2eb2c54a74/library/core/src" "cmp.rs"
	.loc	26 1441 0
	.cfi_startproc
	pushq	%rbp
	.cfi_def_cfa_offset 16
	.cfi_offset %rbp, -16
	movq	%rsp, %rbp
	.cfi_def_cfa_register %rbp
	subq	$16, %rsp
	movq	%rdi, -16(%rbp)
	movq	%rsi, -8(%rbp)
Ltmp279:
	.loc	26 1441 52 prologue_end
	movq	(%rdi), %rax
	cmpq	(%rsi), %rax
	setb	%al
	.loc	26 1441 72 is_stmt 0
	andb	$1, %al
	movzbl	%al, %eax
	addq	$16, %rsp
	popq	%rbp
	retq
Ltmp280:
Lfunc_end27:
	.cfi_endproc

	.p2align	4, 0x90
__ZN4core3cmp5impls69_$LT$impl$u20$core..cmp..PartialEq$LT$$RF$B$GT$$u20$for$u20$$RF$A$GT$2eq17hac1ba023463aabebE:
Lfunc_begin28:
	.loc	26 1530 0 is_stmt 1
	.cfi_startproc
	pushq	%rbp
	.cfi_def_cfa_offset 16
	.cfi_offset %rbp, -16
	movq	%rsp, %rbp
	.cfi_def_cfa_register %rbp
	subq	$16, %rsp
	movq	%rsi, %rax
	movq	%rdi, %rcx
	movq	%rcx, -16(%rbp)
	movq	%rax, -8(%rbp)
Ltmp281:
	.loc	26 1531 27 prologue_end
	movq	(%rcx), %rdi
	movq	8(%rcx), %rsi
	.loc	26 1531 34 is_stmt 0
	movq	(%rax), %rdx
	movq	8(%rax), %rcx
	.loc	26 1531 13
	callq	__ZN4core3str6traits54_$LT$impl$u20$core..cmp..PartialEq$u20$for$u20$str$GT$2eq17ha6bac4e930f08863E
	.loc	26 1532 10 is_stmt 1
	andb	$1, %al
	movzbl	%al, %eax
	addq	$16, %rsp
	popq	%rbp
	retq
Ltmp282:
Lfunc_end28:
	.cfi_endproc

	.p2align	4, 0x90
__ZN4core3cmp9PartialEq2ne17hc24ddfcaa08acbc8E:
Lfunc_begin29:
	.loc	26 227 0
	.cfi_startproc
	pushq	%rbp
	.cfi_def_cfa_offset 16
	.cfi_offset %rbp, -16
	movq	%rsp, %rbp
	.cfi_def_cfa_register %rbp
	subq	$16, %rsp
	movq	%rdi, -16(%rbp)
	movq	%rsi, -8(%rbp)
Ltmp283:
	.loc	26 228 10 prologue_end
	callq	__ZN70_$LT$core..option..Option$LT$T$GT$$u20$as$u20$core..cmp..PartialEq$GT$2eq17h7fb5f30269bf39dfE
	.loc	26 228 9 is_stmt 0
	xorb	$-1, %al
	.loc	26 229 6 is_stmt 1
	andb	$1, %al
	movzbl	%al, %eax
	addq	$16, %rsp
	popq	%rbp
	retq
Ltmp284:
Lfunc_end29:
	.cfi_endproc

	.p2align	4, 0x90
__ZN4core3fmt9Arguments6new_v117h17a77d505d14ebbcE:
Lfunc_begin30:
	.file	27 "/rustc/2c8cc343237b8f7d5a3c3703e3a87f2eb2c54a74/library/core/src/fmt" "mod.rs"
	.loc	27 399 0
	.cfi_startproc
	pushq	%rbp
	.cfi_def_cfa_offset 16
	.cfi_offset %rbp, -16
	movq	%rsp, %rbp
	.cfi_def_cfa_register %rbp
	subq	$160, %rsp
	movq	%r8, -152(%rbp)
	movq	%rcx, -144(%rbp)
	movq	%rdx, -136(%rbp)
	movq	%rsi, -128(%rbp)
	movq	%rdi, -120(%rbp)
	movq	%rdi, -112(%rbp)
	movq	%rsi, -32(%rbp)
	movq	%rdx, -24(%rbp)
	movq	%rcx, -16(%rbp)
	movq	%r8, -8(%rbp)
Ltmp285:
	.loc	27 400 12 prologue_end
	cmpq	%r8, %rdx
	jb	LBB30_2
	.loc	27 0 12 is_stmt 0
	movq	-136(%rbp), %rax
	movq	-152(%rbp), %rcx
	.loc	27 400 56
	addq	$1, %rcx
	.loc	27 400 41
	cmpq	%rcx, %rax
	seta	%al
	.loc	27 400 12
	andb	$1, %al
	movb	%al, -97(%rbp)
	jmp	LBB30_3
LBB30_2:
	movb	$1, -97(%rbp)
LBB30_3:
	testb	$1, -97(%rbp)
	jne	LBB30_5
	.loc	27 0 12
	movq	-112(%rbp), %rax
	movq	-120(%rbp), %rcx
	movq	-152(%rbp), %rdx
	movq	-144(%rbp), %rsi
	movq	-136(%rbp), %rdi
	movq	-128(%rbp), %r8
	.loc	27 403 34 is_stmt 1
	movq	$0, -48(%rbp)
	.loc	27 403 9 is_stmt 0
	movq	%r8, 16(%rcx)
	movq	%rdi, 24(%rcx)
	movq	-48(%rbp), %r8
	movq	-40(%rbp), %rdi
	movq	%r8, (%rcx)
	movq	%rdi, 8(%rcx)
	movq	%rsi, 32(%rcx)
	movq	%rdx, 40(%rcx)
	.loc	27 404 6 is_stmt 1
	addq	$160, %rsp
	popq	%rbp
	retq
LBB30_5:
	.loc	27 401 13
	leaq	l___unnamed_6(%rip), %rsi
	leaq	l___unnamed_7(%rip), %rcx
	xorl	%eax, %eax
	movl	%eax, %r8d
	leaq	-96(%rbp), %rdi
	movq	%rdi, -160(%rbp)
	movl	$1, %edx
	callq	__ZN4core3fmt9Arguments6new_v117h17a77d505d14ebbcE
	movq	-160(%rbp), %rdi
	leaq	l___unnamed_8(%rip), %rsi
	callq	__ZN4core9panicking9panic_fmt17h9b5d807e24bcaaedE
Ltmp286:
Lfunc_end30:
	.cfi_endproc

	.p2align	4, 0x90
__ZN4core3mem12maybe_uninit20MaybeUninit$LT$T$GT$16assume_init_drop17h3191bfe1a48c483bE:
Lfunc_begin31:
	.file	28 "/rustc/2c8cc343237b8f7d5a3c3703e3a87f2eb2c54a74/library/core/src/mem" "maybe_uninit.rs"
	.loc	28 724 0
	.cfi_startproc
	pushq	%rbp
	.cfi_def_cfa_offset 16
	.cfi_offset %rbp, -16
	movq	%rsp, %rbp
	.cfi_def_cfa_register %rbp
	subq	$16, %rsp
	movq	%rdi, -16(%rbp)
Ltmp287:
	.loc	28 728 37 prologue_end
	movq	%rdi, -8(%rbp)
	.loc	28 728 18 is_stmt 0
	callq	__ZN4core3ptr47drop_in_place$LT$std..ffi..os_str..OsString$GT$17hac53ef81397eced7E
	.loc	28 729 6 is_stmt 1
	addq	$16, %rsp
	popq	%rbp
	retq
Ltmp288:
Lfunc_end31:
	.cfi_endproc

	.p2align	4, 0x90
__ZN4core3mem12maybe_uninit20MaybeUninit$LT$T$GT$16assume_init_drop17hc64175e5d1e2a224E:
Lfunc_begin32:
	.loc	28 724 0
	.cfi_startproc
	pushq	%rbp
	.cfi_def_cfa_offset 16
	.cfi_offset %rbp, -16
	movq	%rsp, %rbp
	.cfi_def_cfa_register %rbp
	subq	$16, %rsp
	movq	%rdi, -16(%rbp)
Ltmp289:
	.loc	28 728 37 prologue_end
	movq	%rdi, -8(%rbp)
	.loc	28 728 18 is_stmt 0
	callq	__ZN4core3ptr75drop_in_place$LT$core..option..Option$LT$std..ffi..os_str..OsString$GT$$GT$17hfdf0cece9e8c7a50E
	.loc	28 729 6 is_stmt 1
	addq	$16, %rsp
	popq	%rbp
	retq
Ltmp290:
Lfunc_end32:
	.cfi_endproc

	.p2align	4, 0x90
__ZN4core3mem7replace17h800c0273faab8273E:
Lfunc_begin33:
	.file	29 "/rustc/2c8cc343237b8f7d5a3c3703e3a87f2eb2c54a74/library/core/src/mem" "mod.rs"
	.loc	29 905 0
	.cfi_startproc
	pushq	%rbp
	.cfi_def_cfa_offset 16
	.cfi_offset %rbp, -16
	movq	%rsp, %rbp
	.cfi_def_cfa_register %rbp
	subq	$120, %rsp
	movq	%rdi, -120(%rbp)
	movq	%rsi, -112(%rbp)
	movq	%rdi, -80(%rbp)
	movq	%rsi, -72(%rbp)
Ltmp291:
	.loc	29 910 32 prologue_end
	movq	%rdi, -64(%rbp)
Ltmp292:
	.loc	3 1157 34
	leaq	-88(%rbp), %rax
	movq	%rax, -56(%rbp)
	.loc	3 1157 9 is_stmt 0
	movq	(%rdi), %rax
	movq	%rax, -88(%rbp)
	.loc	3 1158 9 is_stmt 1
	movq	-88(%rbp), %rax
	movq	%rax, -104(%rbp)
	movq	%rax, -48(%rbp)
	.loc	3 0 9 is_stmt 0
	movq	-104(%rbp), %rax
	movq	-120(%rbp), %rcx
	movq	-112(%rbp), %rdx
Ltmp293:
	.loc	28 627 38 is_stmt 1
	movq	%rax, -24(%rbp)
Ltmp294:
	.loc	7 89 9
	movq	%rax, -16(%rbp)
Ltmp295:
	.loc	29 911 20
	movq	%rcx, -8(%rbp)
	.loc	29 911 26 is_stmt 0
	movq	%rdx, -96(%rbp)
Ltmp296:
	.loc	3 1354 9 is_stmt 1
	movq	-96(%rbp), %rdx
	movq	%rdx, (%rcx)
Ltmp297:
	.loc	29 914 2
	addq	$120, %rsp
	popq	%rbp
	retq
Ltmp298:
Lfunc_end33:
	.cfi_endproc

	.p2align	4, 0x90
__ZN4core3mem7replace17ha53b159fc58f7a93E:
Lfunc_begin34:
	.loc	29 905 0
	.cfi_startproc
	pushq	%rbp
	.cfi_def_cfa_offset 16
	.cfi_offset %rbp, -16
	movq	%rsp, %rbp
	.cfi_def_cfa_register %rbp
	subq	$208, %rsp
	movq	%rdx, -208(%rbp)
Ltmp299:
	movq	%rsi, -200(%rbp)
	movq	%rdi, -192(%rbp)
	movq	%rdi, -184(%rbp)
	movq	%rsi, -48(%rbp)
Ltmp300:
	.loc	29 910 32 prologue_end
	movq	%rsi, -40(%rbp)
Ltmp301:
	.loc	3 1157 34
	leaq	-144(%rbp), %rax
	movq	%rax, -32(%rbp)
	.loc	3 1157 9 is_stmt 0
	movq	(%rsi), %rax
	movq	%rax, -144(%rbp)
	movq	8(%rsi), %rax
	movq	%rax, -136(%rbp)
	movq	16(%rsi), %rax
	movq	%rax, -128(%rbp)
	movq	24(%rsi), %rax
	movq	%rax, -120(%rbp)
	.loc	3 1158 9 is_stmt 1
	movq	-144(%rbp), %rax
	movq	%rax, -112(%rbp)
	movq	-136(%rbp), %rax
	movq	%rax, -104(%rbp)
	movq	-128(%rbp), %rax
	movq	%rax, -96(%rbp)
	movq	-120(%rbp), %rax
	movq	%rax, -88(%rbp)
Ltmp302:
	.loc	3 0 9 is_stmt 0
	movq	-184(%rbp), %rax
	movq	-200(%rbp), %rcx
	movq	-208(%rbp), %rdx
	movq	-192(%rbp), %rsi
Ltmp303:
	.loc	28 627 38 is_stmt 1
	movq	-112(%rbp), %rdi
	movq	%rdi, -80(%rbp)
	movq	-104(%rbp), %rdi
	movq	%rdi, -72(%rbp)
	movq	-96(%rbp), %rdi
	movq	%rdi, -64(%rbp)
	movq	-88(%rbp), %rdi
	movq	%rdi, -56(%rbp)
Ltmp304:
	.loc	7 89 9
	movq	-80(%rbp), %rdi
	movq	%rdi, (%rsi)
	movq	-72(%rbp), %rdi
	movq	%rdi, 8(%rsi)
	movq	-64(%rbp), %rdi
	movq	%rdi, 16(%rsi)
	movq	-56(%rbp), %rdi
	movq	%rdi, 24(%rsi)
Ltmp305:
	.loc	29 911 20
	movq	%rcx, -8(%rbp)
	.loc	29 911 26 is_stmt 0
	movq	(%rdx), %rsi
	movq	%rsi, -176(%rbp)
	movq	8(%rdx), %rsi
	movq	%rsi, -168(%rbp)
	movq	16(%rdx), %rsi
	movq	%rsi, -160(%rbp)
	movq	24(%rdx), %rdx
	movq	%rdx, -152(%rbp)
Ltmp306:
	.loc	3 1354 9 is_stmt 1
	movq	-176(%rbp), %rdx
	movq	%rdx, (%rcx)
	movq	-168(%rbp), %rdx
	movq	%rdx, 8(%rcx)
	movq	-160(%rbp), %rdx
	movq	%rdx, 16(%rcx)
	movq	-152(%rbp), %rdx
	movq	%rdx, 24(%rcx)
Ltmp307:
	.loc	29 914 2
	addq	$208, %rsp
	popq	%rbp
	retq
Ltmp308:
Lfunc_end34:
	.cfi_endproc

	.p2align	4, 0x90
__ZN4core3mem7replace17ha8c70b8cdaf6e433E:
Lfunc_begin35:
	.loc	29 905 0
	.cfi_startproc
	pushq	%rbp
	.cfi_def_cfa_offset 16
	.cfi_offset %rbp, -16
	movq	%rsp, %rbp
	.cfi_def_cfa_register %rbp
	subq	$184, %rsp
	movq	%rdi, -184(%rbp)
	movq	%rsi, -176(%rbp)
	movq	%rdx, -168(%rbp)
	movq	%rdi, -112(%rbp)
	movq	%rsi, -104(%rbp)
	movq	%rdx, -96(%rbp)
Ltmp309:
	.loc	29 910 32 prologue_end
	movq	%rdi, -88(%rbp)
Ltmp310:
	.loc	3 1157 34
	leaq	-128(%rbp), %rax
	movq	%rax, -80(%rbp)
	.loc	3 1157 9 is_stmt 0
	movq	(%rdi), %rax
	movq	%rax, -128(%rbp)
	movq	8(%rdi), %rax
	movq	%rax, -120(%rbp)
	.loc	3 1158 9 is_stmt 1
	movq	-128(%rbp), %rcx
	movq	%rcx, -160(%rbp)
	movq	-120(%rbp), %rax
	movq	%rax, -152(%rbp)
	movq	%rcx, -72(%rbp)
	movq	%rax, -64(%rbp)
	.loc	3 0 9 is_stmt 0
	movq	-152(%rbp), %rdx
	movq	-160(%rbp), %rax
	movq	-184(%rbp), %rcx
	movq	-168(%rbp), %rsi
	movq	-176(%rbp), %rdi
Ltmp311:
	.loc	28 627 38 is_stmt 1
	movq	%rax, -40(%rbp)
	movq	%rdx, -32(%rbp)
Ltmp312:
	.loc	7 89 9
	movq	%rax, -24(%rbp)
	movq	%rdx, -16(%rbp)
Ltmp313:
	.loc	29 911 20
	movq	%rcx, -8(%rbp)
	.loc	29 911 26 is_stmt 0
	movq	%rdi, -144(%rbp)
	movq	%rsi, -136(%rbp)
Ltmp314:
	.loc	3 1354 9 is_stmt 1
	movq	-144(%rbp), %rsi
	movq	-136(%rbp), %rdi
	movq	%rdi, 8(%rcx)
	movq	%rsi, (%rcx)
Ltmp315:
	.loc	29 914 2
	addq	$184, %rsp
	popq	%rbp
	retq
Ltmp316:
Lfunc_end35:
	.cfi_endproc

	.p2align	4, 0x90
__ZN4core3mem7replace17he7b968ef2fa21faaE:
Lfunc_begin36:
	.loc	29 905 0
	.cfi_startproc
	pushq	%rbp
	.cfi_def_cfa_offset 16
	.cfi_offset %rbp, -16
	movq	%rsp, %rbp
	.cfi_def_cfa_register %rbp
	subq	$184, %rsp
	movq	%rdi, -184(%rbp)
	movq	%rsi, -176(%rbp)
	movq	%rdx, -168(%rbp)
	movq	%rdi, -112(%rbp)
	movq	%rsi, -104(%rbp)
	movq	%rdx, -96(%rbp)
Ltmp317:
	.loc	29 910 32 prologue_end
	movq	%rdi, -88(%rbp)
Ltmp318:
	.loc	3 1157 34
	leaq	-128(%rbp), %rax
	movq	%rax, -80(%rbp)
	.loc	3 1157 9 is_stmt 0
	movq	(%rdi), %rax
	movq	%rax, -128(%rbp)
	movq	8(%rdi), %rax
	movq	%rax, -120(%rbp)
	.loc	3 1158 9 is_stmt 1
	movq	-128(%rbp), %rcx
	movq	%rcx, -160(%rbp)
	movq	-120(%rbp), %rax
	movq	%rax, -152(%rbp)
	movq	%rcx, -72(%rbp)
	movq	%rax, -64(%rbp)
	.loc	3 0 9 is_stmt 0
	movq	-152(%rbp), %rdx
	movq	-160(%rbp), %rax
	movq	-184(%rbp), %rcx
	movq	-168(%rbp), %rsi
	movq	-176(%rbp), %rdi
Ltmp319:
	.loc	28 627 38 is_stmt 1
	movq	%rax, -40(%rbp)
	movq	%rdx, -32(%rbp)
Ltmp320:
	.loc	7 89 9
	movq	%rax, -24(%rbp)
	movq	%rdx, -16(%rbp)
Ltmp321:
	.loc	29 911 20
	movq	%rcx, -8(%rbp)
	.loc	29 911 26 is_stmt 0
	movq	%rdi, -144(%rbp)
	movq	%rsi, -136(%rbp)
Ltmp322:
	.loc	3 1354 9 is_stmt 1
	movq	-144(%rbp), %rsi
	movq	-136(%rbp), %rdi
	movq	%rdi, 8(%rcx)
	movq	%rsi, (%rcx)
Ltmp323:
	.loc	29 914 2
	addq	$184, %rsp
	popq	%rbp
	retq
Ltmp324:
Lfunc_end36:
	.cfi_endproc

	.p2align	4, 0x90
__ZN4core3ops8function6FnOnce40call_once$u7b$$u7b$vtable.shim$u7d$$u7d$17h06602f9b1e227cc6E:
Lfunc_begin37:
	.file	30 "/rustc/2c8cc343237b8f7d5a3c3703e3a87f2eb2c54a74/library/core/src/ops" "function.rs"
	.loc	30 250 0
	.cfi_startproc
	pushq	%rbp
	.cfi_def_cfa_offset 16
	.cfi_offset %rbp, -16
	movq	%rsp, %rbp
	.cfi_def_cfa_register %rbp
	subq	$16, %rsp
	movq	%rdi, -8(%rbp)
Ltmp325:
	.loc	30 250 5 prologue_end
	movq	(%rdi), %rdi
	callq	__ZN4core3ops8function6FnOnce9call_once17h18ed34f7ccffdb27E
	addq	$16, %rsp
	popq	%rbp
	retq
Ltmp326:
Lfunc_end37:
	.cfi_endproc

	.p2align	4, 0x90
__ZN4core3ops8function6FnOnce9call_once17h18ed34f7ccffdb27E:
Lfunc_begin38:
	.loc	30 250 0
	.cfi_startproc
	.cfi_personality 155, _rust_eh_personality
	.cfi_lsda 16, Lexception8
	pushq	%rbp
	.cfi_def_cfa_offset 16
	.cfi_offset %rbp, -16
	movq	%rsp, %rbp
	.cfi_def_cfa_register %rbp
	subq	$48, %rsp
	movq	%rdi, -32(%rbp)
Ltmp327:
	leaq	-32(%rbp), %rdi
Ltmp330:
	.loc	30 250 5 prologue_end
	callq	__ZN3std2rt10lang_start28_$u7b$$u7b$closure$u7d$$u7d$17hf059158314f0d495E
Ltmp328:
	movl	%eax, -36(%rbp)
	jmp	LBB38_3
LBB38_1:
	movq	-16(%rbp), %rdi
	callq	__Unwind_Resume
LBB38_2:
Ltmp329:
	.loc	30 0 5 is_stmt 0
	movq	%rax, %rcx
	movl	%edx, %eax
	movq	%rcx, -16(%rbp)
	movl	%eax, -8(%rbp)
	jmp	LBB38_1
LBB38_3:
	movl	-36(%rbp), %eax
	.loc	30 250 5
	addq	$48, %rsp
	popq	%rbp
	retq
Ltmp331:
Lfunc_end38:
	.cfi_endproc
	.section	__TEXT,__gcc_except_tab
	.p2align	2
GCC_except_table38:
Lexception8:
	.byte	255
	.byte	255
	.byte	1
	.uleb128 Lcst_end8-Lcst_begin8
Lcst_begin8:
	.uleb128 Ltmp327-Lfunc_begin38
	.uleb128 Ltmp328-Ltmp327
	.uleb128 Ltmp329-Lfunc_begin38
	.byte	0
	.uleb128 Ltmp328-Lfunc_begin38
	.uleb128 Lfunc_end38-Ltmp328
	.byte	0
	.byte	0
Lcst_end8:
	.p2align	2

	.section	__TEXT,__text,regular,pure_instructions
	.p2align	4, 0x90
__ZN4core3ops8function6FnOnce9call_once17hd1effd68f771d22bE:
Lfunc_begin39:
	.loc	30 250 0 is_stmt 1
	.cfi_startproc
	pushq	%rbp
	.cfi_def_cfa_offset 16
	.cfi_offset %rbp, -16
	movq	%rsp, %rbp
	.cfi_def_cfa_register %rbp
	subq	$16, %rsp
	movq	%rdi, -8(%rbp)
Ltmp332:
	.loc	30 250 5 prologue_end
	callq	*%rdi
	addq	$16, %rsp
	popq	%rbp
	retq
Ltmp333:
Lfunc_end39:
	.cfi_endproc

	.p2align	4, 0x90
__ZN4core3ptr101drop_in_place$LT$std..io..error..ErrorData$LT$alloc..boxed..Box$LT$std..io..error..Custom$GT$$GT$$GT$17h89b7df636d06628aE:
Lfunc_begin40:
	.loc	3 490 0
	.cfi_startproc
	pushq	%rbp
	.cfi_def_cfa_offset 16
	.cfi_offset %rbp, -16
	movq	%rsp, %rbp
	.cfi_def_cfa_register %rbp
	subq	$16, %rsp
	movq	%rdi, -16(%rbp)
	movq	%rdi, -8(%rbp)
Ltmp334:
	.loc	3 490 1 prologue_end
	movb	(%rdi), %al
	subb	$3, %al
	jb	LBB40_2
	jmp	LBB40_1
LBB40_1:
	.loc	3 0 1 is_stmt 0
	movq	-16(%rbp), %rdi
	.loc	3 490 1
	addq	$8, %rdi
	callq	__ZN4core3ptr68drop_in_place$LT$alloc..boxed..Box$LT$std..io..error..Custom$GT$$GT$17h72eb59c65b633133E
LBB40_2:
	addq	$16, %rsp
	popq	%rbp
	retq
Ltmp335:
Lfunc_end40:
	.cfi_endproc

	.p2align	4, 0x90
__ZN4core3ptr118drop_in_place$LT$alloc..boxed..Box$LT$dyn$u20$core..error..Error$u2b$core..marker..Send$u2b$core..marker..Sync$GT$$GT$17h5a6f2552eda45412E:
Lfunc_begin41:
	.loc	3 490 0 is_stmt 1
	.cfi_startproc
	.cfi_personality 155, _rust_eh_personality
	.cfi_lsda 16, Lexception9
	pushq	%rbp
	.cfi_def_cfa_offset 16
	.cfi_offset %rbp, -16
	movq	%rsp, %rbp
	.cfi_def_cfa_register %rbp
	subq	$32, %rsp
	movq	%rdi, %rax
	movq	%rax, -32(%rbp)
	movq	%rax, -24(%rbp)
Ltmp342:
	.loc	3 490 1 prologue_end
	movq	(%rax), %rdi
	movq	8(%rax), %rax
	movq	(%rax), %rax
Ltmp336:
	callq	*%rax
Ltmp337:
	jmp	LBB41_3
LBB41_1:
	.loc	3 0 1 is_stmt 0
	movq	-32(%rbp), %rax
	.loc	3 490 1
	movq	(%rax), %rdi
	movq	8(%rax), %rsi
Ltmp339:
	callq	__ZN5alloc5alloc8box_free17hcfec2832d993ea9aE
Ltmp340:
	jmp	LBB41_5
LBB41_2:
Ltmp338:
	.loc	3 0 1
	movq	%rax, %rcx
	movl	%edx, %eax
	movq	%rcx, -16(%rbp)
	movl	%eax, -8(%rbp)
	jmp	LBB41_1
LBB41_3:
	movq	-32(%rbp), %rax
	.loc	3 490 1
	movq	(%rax), %rdi
	movq	8(%rax), %rsi
	callq	__ZN5alloc5alloc8box_free17hcfec2832d993ea9aE
	addq	$32, %rsp
	popq	%rbp
	retq
LBB41_4:
Ltmp341:
	callq	__ZN4core9panicking19panic_cannot_unwind17h1fbca7e1d7f56ae1E
LBB41_5:
	movq	-16(%rbp), %rdi
	callq	__Unwind_Resume
Ltmp343:
Lfunc_end41:
	.cfi_endproc
	.section	__TEXT,__gcc_except_tab
	.p2align	2
GCC_except_table41:
Lexception9:
	.byte	255
	.byte	255
	.byte	1
	.uleb128 Lcst_end9-Lcst_begin9
Lcst_begin9:
	.uleb128 Ltmp336-Lfunc_begin41
	.uleb128 Ltmp337-Ltmp336
	.uleb128 Ltmp338-Lfunc_begin41
	.byte	0
	.uleb128 Ltmp339-Lfunc_begin41
	.uleb128 Ltmp340-Ltmp339
	.uleb128 Ltmp341-Lfunc_begin41
	.byte	0
	.uleb128 Ltmp340-Lfunc_begin41
	.uleb128 Lfunc_end41-Ltmp340
	.byte	0
	.byte	0
Lcst_end9:
	.p2align	2

	.section	__TEXT,__text,regular,pure_instructions
	.p2align	4, 0x90
__ZN4core3ptr152drop_in_place$LT$alloc..collections..btree..map..BTreeMap$LT$std..ffi..os_str..OsString$C$core..option..Option$LT$std..ffi..os_str..OsString$GT$$GT$$GT$17hd7bb6ea5b072ff92E:
Lfunc_begin42:
	.loc	3 490 0 is_stmt 1
	.cfi_startproc
	pushq	%rbp
	.cfi_def_cfa_offset 16
	.cfi_offset %rbp, -16
	movq	%rsp, %rbp
	.cfi_def_cfa_register %rbp
	subq	$16, %rsp
	movq	%rdi, -8(%rbp)
Ltmp344:
	.loc	3 490 1 prologue_end
	callq	__ZN99_$LT$alloc..collections..btree..map..BTreeMap$LT$K$C$V$C$A$GT$$u20$as$u20$core..ops..drop..Drop$GT$4drop17h6a760128b38ed86dE
	addq	$16, %rsp
	popq	%rbp
	retq
Ltmp345:
Lfunc_end42:
	.cfi_endproc

	.p2align	4, 0x90
__ZN4core3ptr152drop_in_place$LT$alloc..collections..btree..map..IntoIter$LT$std..ffi..os_str..OsString$C$core..option..Option$LT$std..ffi..os_str..OsString$GT$$GT$$GT$17ha32794670e2629b2E:
Lfunc_begin43:
	.loc	3 490 0
	.cfi_startproc
	pushq	%rbp
	.cfi_def_cfa_offset 16
	.cfi_offset %rbp, -16
	movq	%rsp, %rbp
	.cfi_def_cfa_register %rbp
	subq	$16, %rsp
	movq	%rdi, -8(%rbp)
Ltmp346:
	.loc	3 490 1 prologue_end
	callq	__ZN99_$LT$alloc..collections..btree..map..IntoIter$LT$K$C$V$C$A$GT$$u20$as$u20$core..ops..drop..Drop$GT$4drop17h8c128cb294ddfb57E
	addq	$16, %rsp
	popq	%rbp
	retq
Ltmp347:
Lfunc_end43:
	.cfi_endproc

	.p2align	4, 0x90
__ZN4core3ptr203drop_in_place$LT$dyn$u20$core..ops..function..FnMut$LT$$LP$$RP$$GT$$u2b$Output$u20$$u3d$$u20$core..result..Result$LT$$LP$$RP$$C$std..io..error..Error$GT$$u2b$core..marker..Send$u2b$core..marker..Sync$GT$17hae9edf87bb7ed739E:
Lfunc_begin44:
	.loc	3 490 0
	.cfi_startproc
	pushq	%rbp
	.cfi_def_cfa_offset 16
	.cfi_offset %rbp, -16
	movq	%rsp, %rbp
	.cfi_def_cfa_register %rbp
	subq	$16, %rsp
	movq	%rdi, -16(%rbp)
	movq	%rsi, -8(%rbp)
Ltmp348:
	.loc	3 490 1 prologue_end
	callq	*(%rsi)
	addq	$16, %rsp
	popq	%rbp
	retq
Ltmp349:
Lfunc_end44:
	.cfi_endproc

	.p2align	4, 0x90
__ZN4core3ptr228drop_in_place$LT$alloc..boxed..Box$LT$dyn$u20$core..ops..function..FnMut$LT$$LP$$RP$$GT$$u2b$Output$u20$$u3d$$u20$core..result..Result$LT$$LP$$RP$$C$std..io..error..Error$GT$$u2b$core..marker..Send$u2b$core..marker..Sync$GT$$GT$17h3c3bbd88cd72d8e1E:
Lfunc_begin45:
	.loc	3 490 0
	.cfi_startproc
	.cfi_personality 155, _rust_eh_personality
	.cfi_lsda 16, Lexception10
	pushq	%rbp
	.cfi_def_cfa_offset 16
	.cfi_offset %rbp, -16
	movq	%rsp, %rbp
	.cfi_def_cfa_register %rbp
	subq	$32, %rsp
	movq	%rdi, %rax
	movq	%rax, -32(%rbp)
	movq	%rax, -24(%rbp)
Ltmp356:
	.loc	3 490 1 prologue_end
	movq	(%rax), %rdi
	movq	8(%rax), %rax
	movq	(%rax), %rax
Ltmp350:
	callq	*%rax
Ltmp351:
	jmp	LBB45_3
LBB45_1:
	.loc	3 0 1 is_stmt 0
	movq	-32(%rbp), %rax
	.loc	3 490 1
	movq	(%rax), %rdi
	movq	8(%rax), %rsi
Ltmp353:
	callq	__ZN5alloc5alloc8box_free17hc20c27372ab5d9f6E
Ltmp354:
	jmp	LBB45_5
LBB45_2:
Ltmp352:
	.loc	3 0 1
	movq	%rax, %rcx
	movl	%edx, %eax
	movq	%rcx, -16(%rbp)
	movl	%eax, -8(%rbp)
	jmp	LBB45_1
LBB45_3:
	movq	-32(%rbp), %rax
	.loc	3 490 1
	movq	(%rax), %rdi
	movq	8(%rax), %rsi
	callq	__ZN5alloc5alloc8box_free17hc20c27372ab5d9f6E
	addq	$32, %rsp
	popq	%rbp
	retq
LBB45_4:
Ltmp355:
	callq	__ZN4core9panicking19panic_cannot_unwind17h1fbca7e1d7f56ae1E
LBB45_5:
	movq	-16(%rbp), %rdi
	callq	__Unwind_Resume
Ltmp357:
Lfunc_end45:
	.cfi_endproc
	.section	__TEXT,__gcc_except_tab
	.p2align	2
GCC_except_table45:
Lexception10:
	.byte	255
	.byte	255
	.byte	1
	.uleb128 Lcst_end10-Lcst_begin10
Lcst_begin10:
	.uleb128 Ltmp350-Lfunc_begin45
	.uleb128 Ltmp351-Ltmp350
	.uleb128 Ltmp352-Lfunc_begin45
	.byte	0
	.uleb128 Ltmp353-Lfunc_begin45
	.uleb128 Ltmp354-Ltmp353
	.uleb128 Ltmp355-Lfunc_begin45
	.byte	0
	.uleb128 Ltmp354-Lfunc_begin45
	.uleb128 Lfunc_end45-Ltmp354
	.byte	0
	.byte	0
Lcst_end10:
	.p2align	2

	.section	__TEXT,__text,regular,pure_instructions
	.p2align	4, 0x90
__ZN4core3ptr238drop_in_place$LT$$u5b$alloc..boxed..Box$LT$dyn$u20$core..ops..function..FnMut$LT$$LP$$RP$$GT$$u2b$Output$u20$$u3d$$u20$core..result..Result$LT$$LP$$RP$$C$std..io..error..Error$GT$$u2b$core..marker..Send$u2b$core..marker..Sync$GT$$u5d$$GT$17h98de59886af9c5c5E:
Lfunc_begin46:
	.loc	3 490 0 is_stmt 1
	.cfi_startproc
	.cfi_personality 155, _rust_eh_personality
	.cfi_lsda 16, Lexception11
	pushq	%rbp
	.cfi_def_cfa_offset 16
	.cfi_offset %rbp, -16
	movq	%rsp, %rbp
	.cfi_def_cfa_register %rbp
	subq	$80, %rsp
	movq	%rdi, -64(%rbp)
	movq	%rsi, -56(%rbp)
	movq	%rdi, -32(%rbp)
	movq	%rsi, -24(%rbp)
Ltmp369:
	.loc	3 490 1 prologue_end
	xorl	%eax, %eax
	testb	$1, %al
	jne	LBB46_1
	jmp	LBB46_2
LBB46_1:
	movq	$0, -48(%rbp)
	jmp	LBB46_11
LBB46_2:
	.loc	3 0 1 is_stmt 0
	movq	-56(%rbp), %rax
	movq	-64(%rbp), %rcx
	.loc	3 490 1
	movq	%rcx, -40(%rbp)
	shlq	$4, %rax
	addq	-40(%rbp), %rax
	movq	%rax, -72(%rbp)
LBB46_3:
	.loc	3 0 1
	movq	-72(%rbp), %rax
	.loc	3 490 1
	cmpq	%rax, -40(%rbp)
	je	LBB46_5
	movq	-40(%rbp), %rdi
	movq	%rdi, %rax
	addq	$16, %rax
	movq	%rax, -40(%rbp)
Ltmp358:
	callq	__ZN4core3ptr228drop_in_place$LT$alloc..boxed..Box$LT$dyn$u20$core..ops..function..FnMut$LT$$LP$$RP$$GT$$u2b$Output$u20$$u3d$$u20$core..result..Result$LT$$LP$$RP$$C$std..io..error..Error$GT$$u2b$core..marker..Send$u2b$core..marker..Sync$GT$$GT$17h3c3bbd88cd72d8e1E
Ltmp359:
	jmp	LBB46_3
LBB46_5:
	addq	$80, %rsp
	popq	%rbp
	retq
LBB46_6:
	.loc	3 0 1
	movq	-72(%rbp), %rax
	.loc	3 490 1
	cmpq	%rax, -40(%rbp)
	je	LBB46_9
	jmp	LBB46_8
LBB46_7:
Ltmp360:
	.loc	3 0 1
	movq	%rax, %rcx
	movl	%edx, %eax
	movq	%rcx, -16(%rbp)
	movl	%eax, -8(%rbp)
	jmp	LBB46_6
LBB46_8:
	.loc	3 490 1
	movq	-40(%rbp), %rdi
	movq	%rdi, %rax
	addq	$16, %rax
	movq	%rax, -40(%rbp)
Ltmp361:
	callq	__ZN4core3ptr228drop_in_place$LT$alloc..boxed..Box$LT$dyn$u20$core..ops..function..FnMut$LT$$LP$$RP$$GT$$u2b$Output$u20$$u3d$$u20$core..result..Result$LT$$LP$$RP$$C$std..io..error..Error$GT$$u2b$core..marker..Send$u2b$core..marker..Sync$GT$$GT$17h3c3bbd88cd72d8e1E
Ltmp362:
	jmp	LBB46_6
LBB46_9:
	movq	-16(%rbp), %rdi
	callq	__Unwind_Resume
LBB46_10:
Ltmp368:
	callq	__ZN4core9panicking19panic_cannot_unwind17h1fbca7e1d7f56ae1E
LBB46_11:
	.loc	3 0 1
	movq	-56(%rbp), %rax
	.loc	3 490 1
	cmpq	%rax, -48(%rbp)
	je	LBB46_5
	.loc	3 0 1
	movq	-64(%rbp), %rdi
	.loc	3 490 1
	movq	-48(%rbp), %rax
	movq	%rax, %rcx
	shlq	$4, %rcx
	addq	%rcx, %rdi
	incq	%rax
	movq	%rax, -48(%rbp)
Ltmp363:
	callq	__ZN4core3ptr228drop_in_place$LT$alloc..boxed..Box$LT$dyn$u20$core..ops..function..FnMut$LT$$LP$$RP$$GT$$u2b$Output$u20$$u3d$$u20$core..result..Result$LT$$LP$$RP$$C$std..io..error..Error$GT$$u2b$core..marker..Send$u2b$core..marker..Sync$GT$$GT$17h3c3bbd88cd72d8e1E
Ltmp364:
	jmp	LBB46_11
LBB46_13:
	.loc	3 0 1
	movq	-56(%rbp), %rax
	.loc	3 490 1
	cmpq	%rax, -48(%rbp)
	je	LBB46_9
	jmp	LBB46_15
LBB46_14:
Ltmp365:
	.loc	3 0 1
	movq	%rax, %rcx
	movl	%edx, %eax
	movq	%rcx, -16(%rbp)
	movl	%eax, -8(%rbp)
	jmp	LBB46_13
LBB46_15:
	movq	-64(%rbp), %rdi
	.loc	3 490 1
	movq	-48(%rbp), %rax
	movq	%rax, %rcx
	shlq	$4, %rcx
	addq	%rcx, %rdi
	incq	%rax
	movq	%rax, -48(%rbp)
Ltmp366:
	callq	__ZN4core3ptr228drop_in_place$LT$alloc..boxed..Box$LT$dyn$u20$core..ops..function..FnMut$LT$$LP$$RP$$GT$$u2b$Output$u20$$u3d$$u20$core..result..Result$LT$$LP$$RP$$C$std..io..error..Error$GT$$u2b$core..marker..Send$u2b$core..marker..Sync$GT$$GT$17h3c3bbd88cd72d8e1E
Ltmp367:
	jmp	LBB46_13
Ltmp370:
Lfunc_end46:
	.cfi_endproc
	.section	__TEXT,__gcc_except_tab
	.p2align	2
GCC_except_table46:
Lexception11:
	.byte	255
	.byte	255
	.byte	1
	.uleb128 Lcst_end11-Lcst_begin11
Lcst_begin11:
	.uleb128 Ltmp358-Lfunc_begin46
	.uleb128 Ltmp359-Ltmp358
	.uleb128 Ltmp360-Lfunc_begin46
	.byte	0
	.uleb128 Ltmp361-Lfunc_begin46
	.uleb128 Ltmp362-Ltmp361
	.uleb128 Ltmp368-Lfunc_begin46
	.byte	0
	.uleb128 Ltmp362-Lfunc_begin46
	.uleb128 Ltmp363-Ltmp362
	.byte	0
	.byte	0
	.uleb128 Ltmp363-Lfunc_begin46
	.uleb128 Ltmp364-Ltmp363
	.uleb128 Ltmp365-Lfunc_begin46
	.byte	0
	.uleb128 Ltmp366-Lfunc_begin46
	.uleb128 Ltmp367-Ltmp366
	.uleb128 Ltmp368-Lfunc_begin46
	.byte	0
Lcst_end11:
	.p2align	2

	.section	__TEXT,__text,regular,pure_instructions
	.p2align	4, 0x90
__ZN4core3ptr250drop_in_place$LT$$LT$alloc..collections..btree..map..IntoIter$LT$K$C$V$C$A$GT$$u20$as$u20$core..ops..drop..Drop$GT$..drop..DropGuard$LT$std..ffi..os_str..OsString$C$core..option..Option$LT$std..ffi..os_str..OsString$GT$$C$alloc..alloc..Global$GT$$GT$17ha7d313776f628d02E:
Lfunc_begin47:
	.loc	3 490 0 is_stmt 1
	.cfi_startproc
	pushq	%rbp
	.cfi_def_cfa_offset 16
	.cfi_offset %rbp, -16
	movq	%rsp, %rbp
	.cfi_def_cfa_register %rbp
	subq	$16, %rsp
	movq	%rdi, -8(%rbp)
Ltmp371:
	.loc	3 490 1 prologue_end
	callq	__ZN174_$LT$$LT$alloc..collections..btree..map..IntoIter$LT$K$C$V$C$A$GT$$u20$as$u20$core..ops..drop..Drop$GT$..drop..DropGuard$LT$K$C$V$C$A$GT$$u20$as$u20$core..ops..drop..Drop$GT$4drop17hefa20b427b3756b1E
	addq	$16, %rsp
	popq	%rbp
	retq
Ltmp372:
Lfunc_end47:
	.cfi_endproc

	.p2align	4, 0x90
__ZN4core3ptr251drop_in_place$LT$alloc..vec..Vec$LT$alloc..boxed..Box$LT$dyn$u20$core..ops..function..FnMut$LT$$LP$$RP$$GT$$u2b$Output$u20$$u3d$$u20$core..result..Result$LT$$LP$$RP$$C$std..io..error..Error$GT$$u2b$core..marker..Send$u2b$core..marker..Sync$GT$$GT$$GT$17h9f252686182dc599E:
Lfunc_begin48:
	.loc	3 490 0
	.cfi_startproc
	.cfi_personality 155, _rust_eh_personality
	.cfi_lsda 16, Lexception12
	pushq	%rbp
	.cfi_def_cfa_offset 16
	.cfi_offset %rbp, -16
	movq	%rsp, %rbp
	.cfi_def_cfa_register %rbp
	subq	$32, %rsp
	movq	%rdi, -32(%rbp)
	movq	%rdi, -24(%rbp)
Ltmp373:
Ltmp379:
	.loc	3 490 1 prologue_end
	callq	__ZN70_$LT$alloc..vec..Vec$LT$T$C$A$GT$$u20$as$u20$core..ops..drop..Drop$GT$4drop17h0979a4078d4dacbeE
Ltmp374:
	jmp	LBB48_3
LBB48_1:
Ltmp376:
	.loc	3 0 1 is_stmt 0
	movq	-32(%rbp), %rdi
	.loc	3 490 1
	callq	__ZN4core3ptr258drop_in_place$LT$alloc..raw_vec..RawVec$LT$alloc..boxed..Box$LT$dyn$u20$core..ops..function..FnMut$LT$$LP$$RP$$GT$$u2b$Output$u20$$u3d$$u20$core..result..Result$LT$$LP$$RP$$C$std..io..error..Error$GT$$u2b$core..marker..Send$u2b$core..marker..Sync$GT$$GT$$GT$17h1e45b0275d046954E
Ltmp377:
	jmp	LBB48_5
LBB48_2:
Ltmp375:
	.loc	3 0 1
	movq	%rax, %rcx
	movl	%edx, %eax
	movq	%rcx, -16(%rbp)
	movl	%eax, -8(%rbp)
	jmp	LBB48_1
LBB48_3:
	movq	-32(%rbp), %rdi
	.loc	3 490 1
	callq	__ZN4core3ptr258drop_in_place$LT$alloc..raw_vec..RawVec$LT$alloc..boxed..Box$LT$dyn$u20$core..ops..function..FnMut$LT$$LP$$RP$$GT$$u2b$Output$u20$$u3d$$u20$core..result..Result$LT$$LP$$RP$$C$std..io..error..Error$GT$$u2b$core..marker..Send$u2b$core..marker..Sync$GT$$GT$$GT$17h1e45b0275d046954E
	addq	$32, %rsp
	popq	%rbp
	retq
LBB48_4:
Ltmp378:
	callq	__ZN4core9panicking19panic_cannot_unwind17h1fbca7e1d7f56ae1E
LBB48_5:
	movq	-16(%rbp), %rdi
	callq	__Unwind_Resume
Ltmp380:
Lfunc_end48:
	.cfi_endproc
	.section	__TEXT,__gcc_except_tab
	.p2align	2
GCC_except_table48:
Lexception12:
	.byte	255
	.byte	255
	.byte	1
	.uleb128 Lcst_end12-Lcst_begin12
Lcst_begin12:
	.uleb128 Ltmp373-Lfunc_begin48
	.uleb128 Ltmp374-Ltmp373
	.uleb128 Ltmp375-Lfunc_begin48
	.byte	0
	.uleb128 Ltmp376-Lfunc_begin48
	.uleb128 Ltmp377-Ltmp376
	.uleb128 Ltmp378-Lfunc_begin48
	.byte	0
	.uleb128 Ltmp377-Lfunc_begin48
	.uleb128 Lfunc_end48-Ltmp377
	.byte	0
	.byte	0
Lcst_end12:
	.p2align	2

	.section	__TEXT,__text,regular,pure_instructions
	.p2align	4, 0x90
__ZN4core3ptr258drop_in_place$LT$alloc..raw_vec..RawVec$LT$alloc..boxed..Box$LT$dyn$u20$core..ops..function..FnMut$LT$$LP$$RP$$GT$$u2b$Output$u20$$u3d$$u20$core..result..Result$LT$$LP$$RP$$C$std..io..error..Error$GT$$u2b$core..marker..Send$u2b$core..marker..Sync$GT$$GT$$GT$17h1e45b0275d046954E:
Lfunc_begin49:
	.loc	3 490 0 is_stmt 1
	.cfi_startproc
	pushq	%rbp
	.cfi_def_cfa_offset 16
	.cfi_offset %rbp, -16
	movq	%rsp, %rbp
	.cfi_def_cfa_register %rbp
	subq	$16, %rsp
	movq	%rdi, -8(%rbp)
Ltmp381:
	.loc	3 490 1 prologue_end
	callq	__ZN77_$LT$alloc..raw_vec..RawVec$LT$T$C$A$GT$$u20$as$u20$core..ops..drop..Drop$GT$4drop17h020717905b89d647E
	addq	$16, %rsp
	popq	%rbp
	retq
Ltmp382:
Lfunc_end49:
	.cfi_endproc

	.p2align	4, 0x90
__ZN4core3ptr28drop_in_place$LT$$RF$str$GT$17h0abb9fb964bd3bcdE:
Lfunc_begin50:
	.loc	3 490 0
	.cfi_startproc
	pushq	%rbp
	.cfi_def_cfa_offset 16
	.cfi_offset %rbp, -16
	movq	%rsp, %rbp
	.cfi_def_cfa_register %rbp
	pushq	%rax
	movq	%rdi, -8(%rbp)
Ltmp383:
	.loc	3 490 1 prologue_end
	addq	$8, %rsp
	popq	%rbp
	retq
Ltmp384:
Lfunc_end50:
	.cfi_endproc

	.p2align	4, 0x90
__ZN4core3ptr39drop_in_place$LT$std..env..VarError$GT$17hced506e6caf7e309E:
Lfunc_begin51:
	.loc	3 490 0
	.cfi_startproc
	pushq	%rbp
	.cfi_def_cfa_offset 16
	.cfi_offset %rbp, -16
	movq	%rsp, %rbp
	.cfi_def_cfa_register %rbp
	subq	$16, %rsp
	movq	%rdi, -16(%rbp)
	movq	%rdi, -8(%rbp)
Ltmp385:
	.loc	3 490 1 prologue_end
	movq	8(%rdi), %rdx
	movl	$1, %eax
	xorl	%ecx, %ecx
	cmpq	$0, %rdx
	cmoveq	%rcx, %rax
	cmpq	$0, %rax
	jne	LBB51_2
LBB51_1:
	addq	$16, %rsp
	popq	%rbp
	retq
LBB51_2:
	.loc	3 0 1 is_stmt 0
	movq	-16(%rbp), %rdi
	.loc	3 490 1
	callq	__ZN4core3ptr47drop_in_place$LT$std..ffi..os_str..OsString$GT$17hac53ef81397eced7E
	jmp	LBB51_1
Ltmp386:
Lfunc_end51:
	.cfi_endproc

	.p2align	4, 0x90
__ZN4core3ptr41drop_in_place$LT$std..process..Output$GT$17hf3a6dfbaf9e243dfE:
Lfunc_begin52:
	.loc	3 490 0 is_stmt 1
	.cfi_startproc
	.cfi_personality 155, _rust_eh_personality
	.cfi_lsda 16, Lexception13
	pushq	%rbp
	.cfi_def_cfa_offset 16
	.cfi_offset %rbp, -16
	movq	%rsp, %rbp
	.cfi_def_cfa_register %rbp
	subq	$32, %rsp
	movq	%rdi, -32(%rbp)
	movq	%rdi, -24(%rbp)
Ltmp387:
Ltmp393:
	.loc	3 490 1 prologue_end
	callq	__ZN4core3ptr46drop_in_place$LT$alloc..vec..Vec$LT$u8$GT$$GT$17h1db53f29c5463a11E
Ltmp388:
	jmp	LBB52_3
LBB52_1:
	.loc	3 0 1 is_stmt 0
	movq	-32(%rbp), %rdi
	.loc	3 490 1
	addq	$24, %rdi
Ltmp390:
	callq	__ZN4core3ptr46drop_in_place$LT$alloc..vec..Vec$LT$u8$GT$$GT$17h1db53f29c5463a11E
Ltmp391:
	jmp	LBB52_5
LBB52_2:
Ltmp389:
	.loc	3 0 1
	movq	%rax, %rcx
	movl	%edx, %eax
	movq	%rcx, -16(%rbp)
	movl	%eax, -8(%rbp)
	jmp	LBB52_1
LBB52_3:
	movq	-32(%rbp), %rdi
	.loc	3 490 1
	addq	$24, %rdi
	callq	__ZN4core3ptr46drop_in_place$LT$alloc..vec..Vec$LT$u8$GT$$GT$17h1db53f29c5463a11E
	addq	$32, %rsp
	popq	%rbp
	retq
LBB52_4:
Ltmp392:
	callq	__ZN4core9panicking19panic_cannot_unwind17h1fbca7e1d7f56ae1E
LBB52_5:
	movq	-16(%rbp), %rdi
	callq	__Unwind_Resume
Ltmp394:
Lfunc_end52:
	.cfi_endproc
	.section	__TEXT,__gcc_except_tab
	.p2align	2
GCC_except_table52:
Lexception13:
	.byte	255
	.byte	255
	.byte	1
	.uleb128 Lcst_end13-Lcst_begin13
Lcst_begin13:
	.uleb128 Ltmp387-Lfunc_begin52
	.uleb128 Ltmp388-Ltmp387
	.uleb128 Ltmp389-Lfunc_begin52
	.byte	0
	.uleb128 Ltmp390-Lfunc_begin52
	.uleb128 Ltmp391-Ltmp390
	.uleb128 Ltmp392-Lfunc_begin52
	.byte	0
	.uleb128 Ltmp391-Lfunc_begin52
	.uleb128 Lfunc_end52-Ltmp391
	.byte	0
	.byte	0
Lcst_end13:
	.p2align	2

	.section	__TEXT,__text,regular,pure_instructions
	.p2align	4, 0x90
__ZN4core3ptr42drop_in_place$LT$alloc..string..String$GT$17hea2016f845725904E:
Lfunc_begin53:
	.loc	3 490 0 is_stmt 1
	.cfi_startproc
	pushq	%rbp
	.cfi_def_cfa_offset 16
	.cfi_offset %rbp, -16
	movq	%rsp, %rbp
	.cfi_def_cfa_register %rbp
	subq	$16, %rsp
	movq	%rdi, -8(%rbp)
Ltmp395:
	.loc	3 490 1 prologue_end
	callq	__ZN4core3ptr46drop_in_place$LT$alloc..vec..Vec$LT$u8$GT$$GT$17h1db53f29c5463a11E
	addq	$16, %rsp
	popq	%rbp
	retq
Ltmp396:
Lfunc_end53:
	.cfi_endproc

	.p2align	4, 0x90
__ZN4core3ptr42drop_in_place$LT$std..io..error..Error$GT$17h4bfc7946392ee2e3E:
Lfunc_begin54:
	.loc	3 490 0
	.cfi_startproc
	pushq	%rbp
	.cfi_def_cfa_offset 16
	.cfi_offset %rbp, -16
	movq	%rsp, %rbp
	.cfi_def_cfa_register %rbp
	subq	$16, %rsp
	movq	%rdi, -8(%rbp)
Ltmp397:
	.loc	3 490 1 prologue_end
	callq	__ZN4core3ptr57drop_in_place$LT$std..io..error..repr_bitpacked..Repr$GT$17h4edecc5b948cec75E
	addq	$16, %rsp
	popq	%rbp
	retq
Ltmp398:
Lfunc_end54:
	.cfi_endproc

	.p2align	4, 0x90
__ZN4core3ptr42drop_in_place$LT$std..process..Command$GT$17hff99b574d1cff037E:
Lfunc_begin55:
	.loc	3 490 0
	.cfi_startproc
	pushq	%rbp
	.cfi_def_cfa_offset 16
	.cfi_offset %rbp, -16
	movq	%rsp, %rbp
	.cfi_def_cfa_register %rbp
	subq	$16, %rsp
	movq	%rdi, -8(%rbp)
Ltmp399:
	.loc	3 490 1 prologue_end
	callq	__ZN4core3ptr69drop_in_place$LT$std..sys..unix..process..process_common..Command$GT$17hf8cce718485b1e4aE
	addq	$16, %rsp
	popq	%rbp
	retq
Ltmp400:
Lfunc_end55:
	.cfi_endproc

	.p2align	4, 0x90
__ZN4core3ptr43drop_in_place$LT$std..io..error..Custom$GT$17h5b46438252ae7eb7E:
Lfunc_begin56:
	.loc	3 490 0
	.cfi_startproc
	pushq	%rbp
	.cfi_def_cfa_offset 16
	.cfi_offset %rbp, -16
	movq	%rsp, %rbp
	.cfi_def_cfa_register %rbp
	subq	$16, %rsp
	movq	%rdi, -8(%rbp)
Ltmp401:
	.loc	3 490 1 prologue_end
	callq	__ZN4core3ptr118drop_in_place$LT$alloc..boxed..Box$LT$dyn$u20$core..error..Error$u2b$core..marker..Send$u2b$core..marker..Sync$GT$$GT$17h5a6f2552eda45412E
	addq	$16, %rsp
	popq	%rbp
	retq
Ltmp402:
Lfunc_end56:
	.cfi_endproc

	.p2align	4, 0x90
__ZN4core3ptr46drop_in_place$LT$alloc..vec..Vec$LT$u8$GT$$GT$17h1db53f29c5463a11E:
Lfunc_begin57:
	.loc	3 490 0
	.cfi_startproc
	.cfi_personality 155, _rust_eh_personality
	.cfi_lsda 16, Lexception14
	pushq	%rbp
	.cfi_def_cfa_offset 16
	.cfi_offset %rbp, -16
	movq	%rsp, %rbp
	.cfi_def_cfa_register %rbp
	subq	$32, %rsp
	movq	%rdi, -32(%rbp)
	movq	%rdi, -24(%rbp)
Ltmp403:
Ltmp409:
	.loc	3 490 1 prologue_end
	callq	__ZN70_$LT$alloc..vec..Vec$LT$T$C$A$GT$$u20$as$u20$core..ops..drop..Drop$GT$4drop17h8852112c642a990eE
Ltmp404:
	jmp	LBB57_3
LBB57_1:
Ltmp406:
	.loc	3 0 1 is_stmt 0
	movq	-32(%rbp), %rdi
	.loc	3 490 1
	callq	__ZN4core3ptr53drop_in_place$LT$alloc..raw_vec..RawVec$LT$u8$GT$$GT$17h099fe3a14b123665E
Ltmp407:
	jmp	LBB57_5
LBB57_2:
Ltmp405:
	.loc	3 0 1
	movq	%rax, %rcx
	movl	%edx, %eax
	movq	%rcx, -16(%rbp)
	movl	%eax, -8(%rbp)
	jmp	LBB57_1
LBB57_3:
	movq	-32(%rbp), %rdi
	.loc	3 490 1
	callq	__ZN4core3ptr53drop_in_place$LT$alloc..raw_vec..RawVec$LT$u8$GT$$GT$17h099fe3a14b123665E
	addq	$32, %rsp
	popq	%rbp
	retq
LBB57_4:
Ltmp408:
	callq	__ZN4core9panicking19panic_cannot_unwind17h1fbca7e1d7f56ae1E
LBB57_5:
	movq	-16(%rbp), %rdi
	callq	__Unwind_Resume
Ltmp410:
Lfunc_end57:
	.cfi_endproc
	.section	__TEXT,__gcc_except_tab
	.p2align	2
GCC_except_table57:
Lexception14:
	.byte	255
	.byte	255
	.byte	1
	.uleb128 Lcst_end14-Lcst_begin14
Lcst_begin14:
	.uleb128 Ltmp403-Lfunc_begin57
	.uleb128 Ltmp404-Ltmp403
	.uleb128 Ltmp405-Lfunc_begin57
	.byte	0
	.uleb128 Ltmp406-Lfunc_begin57
	.uleb128 Ltmp407-Ltmp406
	.uleb128 Ltmp408-Lfunc_begin57
	.byte	0
	.uleb128 Ltmp407-Lfunc_begin57
	.uleb128 Lfunc_end57-Ltmp407
	.byte	0
	.byte	0
Lcst_end14:
	.p2align	2

	.section	__TEXT,__text,regular,pure_instructions
	.p2align	4, 0x90
__ZN4core3ptr47drop_in_place$LT$alloc..ffi..c_str..CString$GT$17h4de83997f7d8db8dE:
Lfunc_begin58:
	.loc	3 490 0 is_stmt 1
	.cfi_startproc
	.cfi_personality 155, _rust_eh_personality
	.cfi_lsda 16, Lexception15
	pushq	%rbp
	.cfi_def_cfa_offset 16
	.cfi_offset %rbp, -16
	movq	%rsp, %rbp
	.cfi_def_cfa_register %rbp
	subq	$32, %rsp
	movq	%rdi, -32(%rbp)
	movq	%rdi, -24(%rbp)
Ltmp411:
Ltmp417:
	.loc	3 490 1 prologue_end
	callq	__ZN68_$LT$alloc..ffi..c_str..CString$u20$as$u20$core..ops..drop..Drop$GT$4drop17h0dc929cc2a004c39E
Ltmp412:
	jmp	LBB58_3
LBB58_1:
Ltmp414:
	.loc	3 0 1 is_stmt 0
	movq	-32(%rbp), %rdi
	.loc	3 490 1
	callq	__ZN4core3ptr58drop_in_place$LT$alloc..boxed..Box$LT$$u5b$u8$u5d$$GT$$GT$17h08b153e3689fd7deE
Ltmp415:
	jmp	LBB58_5
LBB58_2:
Ltmp413:
	.loc	3 0 1
	movq	%rax, %rcx
	movl	%edx, %eax
	movq	%rcx, -16(%rbp)
	movl	%eax, -8(%rbp)
	jmp	LBB58_1
LBB58_3:
	movq	-32(%rbp), %rdi
	.loc	3 490 1
	callq	__ZN4core3ptr58drop_in_place$LT$alloc..boxed..Box$LT$$u5b$u8$u5d$$GT$$GT$17h08b153e3689fd7deE
	addq	$32, %rsp
	popq	%rbp
	retq
LBB58_4:
Ltmp416:
	callq	__ZN4core9panicking19panic_cannot_unwind17h1fbca7e1d7f56ae1E
LBB58_5:
	movq	-16(%rbp), %rdi
	callq	__Unwind_Resume
Ltmp418:
Lfunc_end58:
	.cfi_endproc
	.section	__TEXT,__gcc_except_tab
	.p2align	2
GCC_except_table58:
Lexception15:
	.byte	255
	.byte	255
	.byte	1
	.uleb128 Lcst_end15-Lcst_begin15
Lcst_begin15:
	.uleb128 Ltmp411-Lfunc_begin58
	.uleb128 Ltmp412-Ltmp411
	.uleb128 Ltmp413-Lfunc_begin58
	.byte	0
	.uleb128 Ltmp414-Lfunc_begin58
	.uleb128 Ltmp415-Ltmp414
	.uleb128 Ltmp416-Lfunc_begin58
	.byte	0
	.uleb128 Ltmp415-Lfunc_begin58
	.uleb128 Lfunc_end58-Ltmp415
	.byte	0
	.byte	0
Lcst_end15:
	.p2align	2

	.section	__TEXT,__text,regular,pure_instructions
	.p2align	4, 0x90
__ZN4core3ptr47drop_in_place$LT$std..ffi..os_str..OsString$GT$17hac53ef81397eced7E:
Lfunc_begin59:
	.loc	3 490 0 is_stmt 1
	.cfi_startproc
	pushq	%rbp
	.cfi_def_cfa_offset 16
	.cfi_offset %rbp, -16
	movq	%rsp, %rbp
	.cfi_def_cfa_register %rbp
	subq	$16, %rsp
	movq	%rdi, -8(%rbp)
Ltmp419:
	.loc	3 490 1 prologue_end
	callq	__ZN4core3ptr48drop_in_place$LT$std..sys..unix..os_str..Buf$GT$17hf3137706fe20f9c8E
	addq	$16, %rsp
	popq	%rbp
	retq
Ltmp420:
Lfunc_end59:
	.cfi_endproc

	.p2align	4, 0x90
__ZN4core3ptr48drop_in_place$LT$std..os..fd..owned..OwnedFd$GT$17h3afc37da2bf61e37E:
Lfunc_begin60:
	.loc	3 490 0
	.cfi_startproc
	pushq	%rbp
	.cfi_def_cfa_offset 16
	.cfi_offset %rbp, -16
	movq	%rsp, %rbp
	.cfi_def_cfa_register %rbp
	subq	$16, %rsp
	movq	%rdi, -8(%rbp)
Ltmp421:
	.loc	3 490 1 prologue_end
	callq	__ZN69_$LT$std..os..fd..owned..OwnedFd$u20$as$u20$core..ops..drop..Drop$GT$4drop17hd5aefbc0d4d45ebaE
	addq	$16, %rsp
	popq	%rbp
	retq
Ltmp422:
Lfunc_end60:
	.cfi_endproc

	.p2align	4, 0x90
__ZN4core3ptr48drop_in_place$LT$std..sys..unix..os_str..Buf$GT$17hf3137706fe20f9c8E:
Lfunc_begin61:
	.loc	3 490 0
	.cfi_startproc
	pushq	%rbp
	.cfi_def_cfa_offset 16
	.cfi_offset %rbp, -16
	movq	%rsp, %rbp
	.cfi_def_cfa_register %rbp
	subq	$16, %rsp
	movq	%rdi, -8(%rbp)
Ltmp423:
	.loc	3 490 1 prologue_end
	callq	__ZN4core3ptr46drop_in_place$LT$alloc..vec..Vec$LT$u8$GT$$GT$17h1db53f29c5463a11E
	addq	$16, %rsp
	popq	%rbp
	retq
Ltmp424:
Lfunc_end61:
	.cfi_endproc

	.p2align	4, 0x90
__ZN4core3ptr49drop_in_place$LT$alloc..string..FromUtf8Error$GT$17h0a9b3ff2bd0f55afE:
Lfunc_begin62:
	.loc	3 490 0
	.cfi_startproc
	pushq	%rbp
	.cfi_def_cfa_offset 16
	.cfi_offset %rbp, -16
	movq	%rsp, %rbp
	.cfi_def_cfa_register %rbp
	subq	$16, %rsp
	movq	%rdi, -8(%rbp)
Ltmp425:
	.loc	3 490 1 prologue_end
	addq	$16, %rdi
	callq	__ZN4core3ptr46drop_in_place$LT$alloc..vec..Vec$LT$u8$GT$$GT$17h1db53f29c5463a11E
	addq	$16, %rsp
	popq	%rbp
	retq
Ltmp426:
Lfunc_end62:
	.cfi_endproc

	.p2align	4, 0x90
__ZN4core3ptr49drop_in_place$LT$std..sys..unix..fd..FileDesc$GT$17h1550da079a9ecc16E:
Lfunc_begin63:
	.loc	3 490 0
	.cfi_startproc
	pushq	%rbp
	.cfi_def_cfa_offset 16
	.cfi_offset %rbp, -16
	movq	%rsp, %rbp
	.cfi_def_cfa_register %rbp
	subq	$16, %rsp
	movq	%rdi, -8(%rbp)
Ltmp427:
	.loc	3 490 1 prologue_end
	callq	__ZN4core3ptr48drop_in_place$LT$std..os..fd..owned..OwnedFd$GT$17h3afc37da2bf61e37E
	addq	$16, %rsp
	popq	%rbp
	retq
Ltmp428:
Lfunc_end63:
	.cfi_endproc

	.p2align	4, 0x90
__ZN4core3ptr53drop_in_place$LT$alloc..raw_vec..RawVec$LT$u8$GT$$GT$17h099fe3a14b123665E:
Lfunc_begin64:
	.loc	3 490 0
	.cfi_startproc
	pushq	%rbp
	.cfi_def_cfa_offset 16
	.cfi_offset %rbp, -16
	movq	%rsp, %rbp
	.cfi_def_cfa_register %rbp
	subq	$16, %rsp
	movq	%rdi, -8(%rbp)
Ltmp429:
	.loc	3 490 1 prologue_end
	callq	__ZN77_$LT$alloc..raw_vec..RawVec$LT$T$C$A$GT$$u20$as$u20$core..ops..drop..Drop$GT$4drop17h7b386d0010e6dc73E
	addq	$16, %rsp
	popq	%rbp
	retq
Ltmp430:
Lfunc_end64:
	.cfi_endproc

	.p2align	4, 0x90
__ZN4core3ptr57drop_in_place$LT$$u5b$alloc..ffi..c_str..CString$u5d$$GT$17h4944df40ed124ecaE:
Lfunc_begin65:
	.loc	3 490 0
	.cfi_startproc
	.cfi_personality 155, _rust_eh_personality
	.cfi_lsda 16, Lexception16
	pushq	%rbp
	.cfi_def_cfa_offset 16
	.cfi_offset %rbp, -16
	movq	%rsp, %rbp
	.cfi_def_cfa_register %rbp
	subq	$80, %rsp
	movq	%rdi, -64(%rbp)
	movq	%rsi, -56(%rbp)
	movq	%rdi, -32(%rbp)
	movq	%rsi, -24(%rbp)
Ltmp442:
	.loc	3 490 1 prologue_end
	xorl	%eax, %eax
	testb	$1, %al
	jne	LBB65_1
	jmp	LBB65_2
LBB65_1:
	movq	$0, -48(%rbp)
	jmp	LBB65_11
LBB65_2:
	.loc	3 0 1 is_stmt 0
	movq	-56(%rbp), %rax
	movq	-64(%rbp), %rcx
	.loc	3 490 1
	movq	%rcx, -40(%rbp)
	shlq	$4, %rax
	addq	-40(%rbp), %rax
	movq	%rax, -72(%rbp)
LBB65_3:
	.loc	3 0 1
	movq	-72(%rbp), %rax
	.loc	3 490 1
	cmpq	%rax, -40(%rbp)
	je	LBB65_5
	movq	-40(%rbp), %rdi
	movq	%rdi, %rax
	addq	$16, %rax
	movq	%rax, -40(%rbp)
Ltmp431:
	callq	__ZN4core3ptr47drop_in_place$LT$alloc..ffi..c_str..CString$GT$17h4de83997f7d8db8dE
Ltmp432:
	jmp	LBB65_3
LBB65_5:
	addq	$80, %rsp
	popq	%rbp
	retq
LBB65_6:
	.loc	3 0 1
	movq	-72(%rbp), %rax
	.loc	3 490 1
	cmpq	%rax, -40(%rbp)
	je	LBB65_9
	jmp	LBB65_8
LBB65_7:
Ltmp433:
	.loc	3 0 1
	movq	%rax, %rcx
	movl	%edx, %eax
	movq	%rcx, -16(%rbp)
	movl	%eax, -8(%rbp)
	jmp	LBB65_6
LBB65_8:
	.loc	3 490 1
	movq	-40(%rbp), %rdi
	movq	%rdi, %rax
	addq	$16, %rax
	movq	%rax, -40(%rbp)
Ltmp434:
	callq	__ZN4core3ptr47drop_in_place$LT$alloc..ffi..c_str..CString$GT$17h4de83997f7d8db8dE
Ltmp435:
	jmp	LBB65_6
LBB65_9:
	movq	-16(%rbp), %rdi
	callq	__Unwind_Resume
LBB65_10:
Ltmp441:
	callq	__ZN4core9panicking19panic_cannot_unwind17h1fbca7e1d7f56ae1E
LBB65_11:
	.loc	3 0 1
	movq	-56(%rbp), %rax
	.loc	3 490 1
	cmpq	%rax, -48(%rbp)
	je	LBB65_5
	.loc	3 0 1
	movq	-64(%rbp), %rdi
	.loc	3 490 1
	movq	-48(%rbp), %rax
	movq	%rax, %rcx
	shlq	$4, %rcx
	addq	%rcx, %rdi
	incq	%rax
	movq	%rax, -48(%rbp)
Ltmp436:
	callq	__ZN4core3ptr47drop_in_place$LT$alloc..ffi..c_str..CString$GT$17h4de83997f7d8db8dE
Ltmp437:
	jmp	LBB65_11
LBB65_13:
	.loc	3 0 1
	movq	-56(%rbp), %rax
	.loc	3 490 1
	cmpq	%rax, -48(%rbp)
	je	LBB65_9
	jmp	LBB65_15
LBB65_14:
Ltmp438:
	.loc	3 0 1
	movq	%rax, %rcx
	movl	%edx, %eax
	movq	%rcx, -16(%rbp)
	movl	%eax, -8(%rbp)
	jmp	LBB65_13
LBB65_15:
	movq	-64(%rbp), %rdi
	.loc	3 490 1
	movq	-48(%rbp), %rax
	movq	%rax, %rcx
	shlq	$4, %rcx
	addq	%rcx, %rdi
	incq	%rax
	movq	%rax, -48(%rbp)
Ltmp439:
	callq	__ZN4core3ptr47drop_in_place$LT$alloc..ffi..c_str..CString$GT$17h4de83997f7d8db8dE
Ltmp440:
	jmp	LBB65_13
Ltmp443:
Lfunc_end65:
	.cfi_endproc
	.section	__TEXT,__gcc_except_tab
	.p2align	2
GCC_except_table65:
Lexception16:
	.byte	255
	.byte	255
	.byte	1
	.uleb128 Lcst_end16-Lcst_begin16
Lcst_begin16:
	.uleb128 Ltmp431-Lfunc_begin65
	.uleb128 Ltmp432-Ltmp431
	.uleb128 Ltmp433-Lfunc_begin65
	.byte	0
	.uleb128 Ltmp434-Lfunc_begin65
	.uleb128 Ltmp435-Ltmp434
	.uleb128 Ltmp441-Lfunc_begin65
	.byte	0
	.uleb128 Ltmp435-Lfunc_begin65
	.uleb128 Ltmp436-Ltmp435
	.byte	0
	.byte	0
	.uleb128 Ltmp436-Lfunc_begin65
	.uleb128 Ltmp437-Ltmp436
	.uleb128 Ltmp438-Lfunc_begin65
	.byte	0
	.uleb128 Ltmp439-Lfunc_begin65
	.uleb128 Ltmp440-Ltmp439
	.uleb128 Ltmp441-Lfunc_begin65
	.byte	0
Lcst_end16:
	.p2align	2

	.section	__TEXT,__text,regular,pure_instructions
	.p2align	4, 0x90
__ZN4core3ptr57drop_in_place$LT$std..io..error..repr_bitpacked..Repr$GT$17h4edecc5b948cec75E:
Lfunc_begin66:
	.loc	3 490 0 is_stmt 1
	.cfi_startproc
	pushq	%rbp
	.cfi_def_cfa_offset 16
	.cfi_offset %rbp, -16
	movq	%rsp, %rbp
	.cfi_def_cfa_register %rbp
	subq	$16, %rsp
	movq	%rdi, -8(%rbp)
Ltmp444:
	.loc	3 490 1 prologue_end
	callq	__ZN78_$LT$std..io..error..repr_bitpacked..Repr$u20$as$u20$core..ops..drop..Drop$GT$4drop17hccdd36a57f390ee8E
	addq	$16, %rsp
	popq	%rbp
	retq
Ltmp445:
Lfunc_end66:
	.cfi_endproc

	.p2align	4, 0x90
__ZN4core3ptr57drop_in_place$LT$std..sys_common..process..CommandEnv$GT$17h6cb3e0d6cfc9d630E:
Lfunc_begin67:
	.loc	3 490 0
	.cfi_startproc
	pushq	%rbp
	.cfi_def_cfa_offset 16
	.cfi_offset %rbp, -16
	movq	%rsp, %rbp
	.cfi_def_cfa_register %rbp
	subq	$16, %rsp
	movq	%rdi, -8(%rbp)
Ltmp446:
	.loc	3 490 1 prologue_end
	callq	__ZN4core3ptr152drop_in_place$LT$alloc..collections..btree..map..BTreeMap$LT$std..ffi..os_str..OsString$C$core..option..Option$LT$std..ffi..os_str..OsString$GT$$GT$$GT$17hd7bb6ea5b072ff92E
	addq	$16, %rsp
	popq	%rbp
	retq
Ltmp447:
Lfunc_end67:
	.cfi_endproc

	.p2align	4, 0x90
__ZN4core3ptr58drop_in_place$LT$alloc..boxed..Box$LT$$u5b$u8$u5d$$GT$$GT$17h08b153e3689fd7deE:
Lfunc_begin68:
	.loc	3 490 0
	.cfi_startproc
	pushq	%rbp
	.cfi_def_cfa_offset 16
	.cfi_offset %rbp, -16
	movq	%rsp, %rbp
	.cfi_def_cfa_register %rbp
	subq	$32, %rsp
	movq	%rdi, -32(%rbp)
	movq	%rdi, -24(%rbp)
	movq	-32(%rbp), %rax
Ltmp448:
	.loc	3 490 1 prologue_end
	movq	(%rax), %rdi
	movq	8(%rax), %rsi
	callq	__ZN5alloc5alloc8box_free17hf62f95bb6c155cb8E
	addq	$32, %rsp
	popq	%rbp
	retq
Ltmp449:
Lfunc_end68:
	.cfi_endproc

	.p2align	4, 0x90
__ZN4core3ptr59drop_in_place$LT$alloc..boxed..Box$LT$$u5b$u32$u5d$$GT$$GT$17hf87105b8248004beE:
Lfunc_begin69:
	.loc	3 490 0
	.cfi_startproc
	pushq	%rbp
	.cfi_def_cfa_offset 16
	.cfi_offset %rbp, -16
	movq	%rsp, %rbp
	.cfi_def_cfa_register %rbp
	subq	$32, %rsp
	movq	%rdi, -32(%rbp)
	movq	%rdi, -24(%rbp)
	movq	-32(%rbp), %rax
Ltmp450:
	.loc	3 490 1 prologue_end
	movq	(%rax), %rdi
	movq	8(%rax), %rsi
	callq	__ZN5alloc5alloc8box_free17h1fbfb0dbd1c3e72bE
	addq	$32, %rsp
	popq	%rbp
	retq
Ltmp451:
Lfunc_end69:
	.cfi_endproc

	.p2align	4, 0x90
__ZN4core3ptr60drop_in_place$LT$alloc..vec..Vec$LT$$BP$const$u20$i8$GT$$GT$17hb7acd71de4308874E:
Lfunc_begin70:
	.loc	3 490 0
	.cfi_startproc
	.cfi_personality 155, _rust_eh_personality
	.cfi_lsda 16, Lexception17
	pushq	%rbp
	.cfi_def_cfa_offset 16
	.cfi_offset %rbp, -16
	movq	%rsp, %rbp
	.cfi_def_cfa_register %rbp
	subq	$32, %rsp
	movq	%rdi, -32(%rbp)
	movq	%rdi, -24(%rbp)
Ltmp452:
Ltmp458:
	.loc	3 490 1 prologue_end
	callq	__ZN70_$LT$alloc..vec..Vec$LT$T$C$A$GT$$u20$as$u20$core..ops..drop..Drop$GT$4drop17h48db05fa4f1aad1dE
Ltmp453:
	jmp	LBB70_3
LBB70_1:
Ltmp455:
	.loc	3 0 1 is_stmt 0
	movq	-32(%rbp), %rdi
	.loc	3 490 1
	callq	__ZN4core3ptr67drop_in_place$LT$alloc..raw_vec..RawVec$LT$$BP$const$u20$i8$GT$$GT$17h05b581f54128be63E
Ltmp456:
	jmp	LBB70_5
LBB70_2:
Ltmp454:
	.loc	3 0 1
	movq	%rax, %rcx
	movl	%edx, %eax
	movq	%rcx, -16(%rbp)
	movl	%eax, -8(%rbp)
	jmp	LBB70_1
LBB70_3:
	movq	-32(%rbp), %rdi
	.loc	3 490 1
	callq	__ZN4core3ptr67drop_in_place$LT$alloc..raw_vec..RawVec$LT$$BP$const$u20$i8$GT$$GT$17h05b581f54128be63E
	addq	$32, %rsp
	popq	%rbp
	retq
LBB70_4:
Ltmp457:
	callq	__ZN4core9panicking19panic_cannot_unwind17h1fbca7e1d7f56ae1E
LBB70_5:
	movq	-16(%rbp), %rdi
	callq	__Unwind_Resume
Ltmp459:
Lfunc_end70:
	.cfi_endproc
	.section	__TEXT,__gcc_except_tab
	.p2align	2
GCC_except_table70:
Lexception17:
	.byte	255
	.byte	255
	.byte	1
	.uleb128 Lcst_end17-Lcst_begin17
Lcst_begin17:
	.uleb128 Ltmp452-Lfunc_begin70
	.uleb128 Ltmp453-Ltmp452
	.uleb128 Ltmp454-Lfunc_begin70
	.byte	0
	.uleb128 Ltmp455-Lfunc_begin70
	.uleb128 Ltmp456-Ltmp455
	.uleb128 Ltmp457-Lfunc_begin70
	.byte	0
	.uleb128 Ltmp456-Lfunc_begin70
	.uleb128 Lfunc_end70-Ltmp456
	.byte	0
	.byte	0
Lcst_end17:
	.p2align	2

	.section	__TEXT,__text,regular,pure_instructions
	.p2align	4, 0x90
__ZN4core3ptr66drop_in_place$LT$dyn$u20$core..any..Any$u2b$core..marker..Send$GT$17h7dacdac6c92886eeE:
Lfunc_begin71:
	.loc	3 490 0 is_stmt 1
	.cfi_startproc
	pushq	%rbp
	.cfi_def_cfa_offset 16
	.cfi_offset %rbp, -16
	movq	%rsp, %rbp
	.cfi_def_cfa_register %rbp
	subq	$16, %rsp
	movq	%rdi, -16(%rbp)
	movq	%rsi, -8(%rbp)
Ltmp460:
	.loc	3 490 1 prologue_end
	callq	*(%rsi)
	addq	$16, %rsp
	popq	%rbp
	retq
Ltmp461:
Lfunc_end71:
	.cfi_endproc

	.p2align	4, 0x90
__ZN4core3ptr66drop_in_place$LT$std..sys..unix..process..process_common..Argv$GT$17h4afd98ee38f6a56bE:
Lfunc_begin72:
	.loc	3 490 0
	.cfi_startproc
	pushq	%rbp
	.cfi_def_cfa_offset 16
	.cfi_offset %rbp, -16
	movq	%rsp, %rbp
	.cfi_def_cfa_register %rbp
	subq	$16, %rsp
	movq	%rdi, -8(%rbp)
Ltmp462:
	.loc	3 490 1 prologue_end
	callq	__ZN4core3ptr60drop_in_place$LT$alloc..vec..Vec$LT$$BP$const$u20$i8$GT$$GT$17hb7acd71de4308874E
	addq	$16, %rsp
	popq	%rbp
	retq
Ltmp463:
Lfunc_end72:
	.cfi_endproc

	.p2align	4, 0x90
__ZN4core3ptr67drop_in_place$LT$alloc..raw_vec..RawVec$LT$$BP$const$u20$i8$GT$$GT$17h05b581f54128be63E:
Lfunc_begin73:
	.loc	3 490 0
	.cfi_startproc
	pushq	%rbp
	.cfi_def_cfa_offset 16
	.cfi_offset %rbp, -16
	movq	%rsp, %rbp
	.cfi_def_cfa_register %rbp
	subq	$16, %rsp
	movq	%rdi, -8(%rbp)
Ltmp464:
	.loc	3 490 1 prologue_end
	callq	__ZN77_$LT$alloc..raw_vec..RawVec$LT$T$C$A$GT$$u20$as$u20$core..ops..drop..Drop$GT$4drop17h9c6a66734b80b881E
	addq	$16, %rsp
	popq	%rbp
	retq
Ltmp465:
Lfunc_end73:
	.cfi_endproc

	.p2align	4, 0x90
__ZN4core3ptr67drop_in_place$LT$std..sys..unix..process..process_common..Stdio$GT$17h7b3937b3f2cd8844E:
Lfunc_begin74:
	.loc	3 490 0
	.cfi_startproc
	pushq	%rbp
	.cfi_def_cfa_offset 16
	.cfi_offset %rbp, -16
	movq	%rsp, %rbp
	.cfi_def_cfa_register %rbp
	subq	$16, %rsp
	movq	%rdi, -16(%rbp)
	movq	%rdi, -8(%rbp)
Ltmp466:
	.loc	3 490 1 prologue_end
	movl	(%rdi), %eax
	subl	$3, %eax
	jb	LBB74_2
	jmp	LBB74_1
LBB74_1:
	.loc	3 0 1 is_stmt 0
	movq	-16(%rbp), %rdi
	.loc	3 490 1
	addq	$4, %rdi
	callq	__ZN4core3ptr49drop_in_place$LT$std..sys..unix..fd..FileDesc$GT$17h1550da079a9ecc16E
LBB74_2:
	addq	$16, %rsp
	popq	%rbp
	retq
Ltmp467:
Lfunc_end74:
	.cfi_endproc

	.p2align	4, 0x90
__ZN4core3ptr68drop_in_place$LT$alloc..boxed..Box$LT$std..io..error..Custom$GT$$GT$17h72eb59c65b633133E:
Lfunc_begin75:
	.loc	3 490 0 is_stmt 1
	.cfi_startproc
	.cfi_personality 155, _rust_eh_personality
	.cfi_lsda 16, Lexception18
	pushq	%rbp
	.cfi_def_cfa_offset 16
	.cfi_offset %rbp, -16
	movq	%rsp, %rbp
	.cfi_def_cfa_register %rbp
	subq	$32, %rsp
	movq	%rdi, -32(%rbp)
	movq	%rdi, -24(%rbp)
Ltmp474:
	.loc	3 490 1 prologue_end
	movq	(%rdi), %rdi
Ltmp468:
	callq	__ZN4core3ptr43drop_in_place$LT$std..io..error..Custom$GT$17h5b46438252ae7eb7E
Ltmp469:
	jmp	LBB75_3
LBB75_1:
	.loc	3 0 1 is_stmt 0
	movq	-32(%rbp), %rax
	.loc	3 490 1
	movq	(%rax), %rdi
Ltmp471:
	callq	__ZN5alloc5alloc8box_free17h8b56b73f281b8157E
Ltmp472:
	jmp	LBB75_5
LBB75_2:
Ltmp470:
	.loc	3 0 1
	movq	%rax, %rcx
	movl	%edx, %eax
	movq	%rcx, -16(%rbp)
	movl	%eax, -8(%rbp)
	jmp	LBB75_1
LBB75_3:
	movq	-32(%rbp), %rax
	.loc	3 490 1
	movq	(%rax), %rdi
	callq	__ZN5alloc5alloc8box_free17h8b56b73f281b8157E
	addq	$32, %rsp
	popq	%rbp
	retq
LBB75_4:
Ltmp473:
	callq	__ZN4core9panicking19panic_cannot_unwind17h1fbca7e1d7f56ae1E
LBB75_5:
	movq	-16(%rbp), %rdi
	callq	__Unwind_Resume
Ltmp475:
Lfunc_end75:
	.cfi_endproc
	.section	__TEXT,__gcc_except_tab
	.p2align	2
GCC_except_table75:
Lexception18:
	.byte	255
	.byte	255
	.byte	1
	.uleb128 Lcst_end18-Lcst_begin18
Lcst_begin18:
	.uleb128 Ltmp468-Lfunc_begin75
	.uleb128 Ltmp469-Ltmp468
	.uleb128 Ltmp470-Lfunc_begin75
	.byte	0
	.uleb128 Ltmp471-Lfunc_begin75
	.uleb128 Ltmp472-Ltmp471
	.uleb128 Ltmp473-Lfunc_begin75
	.byte	0
	.uleb128 Ltmp472-Lfunc_begin75
	.uleb128 Lfunc_end75-Ltmp472
	.byte	0
	.byte	0
Lcst_end18:
	.p2align	2

	.section	__TEXT,__text,regular,pure_instructions
	.p2align	4, 0x90
__ZN4core3ptr69drop_in_place$LT$core..option..Option$LT$std..process..Output$GT$$GT$17hbbc0e7e7b3ddc2c6E:
Lfunc_begin76:
	.loc	3 490 0 is_stmt 1
	.cfi_startproc
	pushq	%rbp
	.cfi_def_cfa_offset 16
	.cfi_offset %rbp, -16
	movq	%rsp, %rbp
	.cfi_def_cfa_register %rbp
	subq	$16, %rsp
	movq	%rdi, -16(%rbp)
	movq	%rdi, -8(%rbp)
Ltmp476:
	.loc	3 490 1 prologue_end
	movq	8(%rdi), %rdx
	movl	$1, %eax
	xorl	%ecx, %ecx
	cmpq	$0, %rdx
	cmoveq	%rcx, %rax
	cmpq	$0, %rax
	jne	LBB76_2
LBB76_1:
	addq	$16, %rsp
	popq	%rbp
	retq
LBB76_2:
	.loc	3 0 1 is_stmt 0
	movq	-16(%rbp), %rdi
	.loc	3 490 1
	callq	__ZN4core3ptr41drop_in_place$LT$std..process..Output$GT$17hf3a6dfbaf9e243dfE
	jmp	LBB76_1
Ltmp477:
Lfunc_end76:
	.cfi_endproc

	.p2align	4, 0x90
__ZN4core3ptr69drop_in_place$LT$std..sys..unix..process..process_common..Command$GT$17hf8cce718485b1e4aE:
Lfunc_begin77:
	.loc	3 490 0 is_stmt 1
	.cfi_startproc
	.cfi_personality 155, _rust_eh_personality
	.cfi_lsda 16, Lexception19
	pushq	%rbp
	.cfi_def_cfa_offset 16
	.cfi_offset %rbp, -16
	movq	%rsp, %rbp
	.cfi_def_cfa_register %rbp
	subq	$32, %rsp
	movq	%rdi, -32(%rbp)
	movq	%rdi, -24(%rbp)
Ltmp524:
	.loc	3 490 1 prologue_end
	addq	$64, %rdi
Ltmp478:
	callq	__ZN4core3ptr47drop_in_place$LT$alloc..ffi..c_str..CString$GT$17h4de83997f7d8db8dE
Ltmp479:
	jmp	LBB77_3
LBB77_1:
	.loc	3 0 1 is_stmt 0
	movq	-32(%rbp), %rdi
	.loc	3 490 1
	addq	$80, %rdi
Ltmp481:
	callq	__ZN4core3ptr70drop_in_place$LT$alloc..vec..Vec$LT$alloc..ffi..c_str..CString$GT$$GT$17h6a104460db851515E
Ltmp482:
	jmp	LBB77_5
LBB77_2:
Ltmp480:
	.loc	3 0 1
	movq	%rax, %rcx
	movl	%edx, %eax
	movq	%rcx, -16(%rbp)
	movl	%eax, -8(%rbp)
	jmp	LBB77_1
LBB77_3:
	movq	-32(%rbp), %rdi
	.loc	3 490 1
	addq	$80, %rdi
Ltmp483:
	callq	__ZN4core3ptr70drop_in_place$LT$alloc..vec..Vec$LT$alloc..ffi..c_str..CString$GT$$GT$17h6a104460db851515E
Ltmp484:
	jmp	LBB77_7
LBB77_4:
Ltmp523:
	callq	__ZN4core9panicking19panic_cannot_unwind17h1fbca7e1d7f56ae1E
LBB77_5:
	.loc	3 0 1
	movq	-32(%rbp), %rdi
	.loc	3 490 1
	addq	$104, %rdi
Ltmp486:
	callq	__ZN4core3ptr66drop_in_place$LT$std..sys..unix..process..process_common..Argv$GT$17h4afd98ee38f6a56bE
Ltmp487:
	jmp	LBB77_8
LBB77_6:
Ltmp485:
	.loc	3 0 1
	movq	%rax, %rcx
	movl	%edx, %eax
	movq	%rcx, -16(%rbp)
	movl	%eax, -8(%rbp)
	jmp	LBB77_5
LBB77_7:
	movq	-32(%rbp), %rdi
	.loc	3 490 1
	addq	$104, %rdi
Ltmp488:
	callq	__ZN4core3ptr66drop_in_place$LT$std..sys..unix..process..process_common..Argv$GT$17h4afd98ee38f6a56bE
Ltmp489:
	jmp	LBB77_10
LBB77_8:
Ltmp491:
	.loc	3 0 1
	movq	-32(%rbp), %rdi
	.loc	3 490 1
	callq	__ZN4core3ptr57drop_in_place$LT$std..sys_common..process..CommandEnv$GT$17h6cb3e0d6cfc9d630E
Ltmp492:
	jmp	LBB77_11
LBB77_9:
Ltmp490:
	.loc	3 0 1
	movq	%rax, %rcx
	movl	%edx, %eax
	movq	%rcx, -16(%rbp)
	movl	%eax, -8(%rbp)
	jmp	LBB77_8
LBB77_10:
Ltmp493:
	movq	-32(%rbp), %rdi
	.loc	3 490 1
	callq	__ZN4core3ptr57drop_in_place$LT$std..sys_common..process..CommandEnv$GT$17h6cb3e0d6cfc9d630E
Ltmp494:
	jmp	LBB77_13
LBB77_11:
	.loc	3 0 1
	movq	-32(%rbp), %rdi
	.loc	3 490 1
	addq	$32, %rdi
Ltmp496:
	callq	__ZN4core3ptr75drop_in_place$LT$core..option..Option$LT$alloc..ffi..c_str..CString$GT$$GT$17h9a3810c931ce6259E
Ltmp497:
	jmp	LBB77_14
LBB77_12:
Ltmp495:
	.loc	3 0 1
	movq	%rax, %rcx
	movl	%edx, %eax
	movq	%rcx, -16(%rbp)
	movl	%eax, -8(%rbp)
	jmp	LBB77_11
LBB77_13:
	movq	-32(%rbp), %rdi
	.loc	3 490 1
	addq	$32, %rdi
Ltmp498:
	callq	__ZN4core3ptr75drop_in_place$LT$core..option..Option$LT$alloc..ffi..c_str..CString$GT$$GT$17h9a3810c931ce6259E
Ltmp499:
	jmp	LBB77_16
LBB77_14:
	.loc	3 0 1
	movq	-32(%rbp), %rdi
	.loc	3 490 1
	subq	$-128, %rdi
Ltmp501:
	callq	__ZN4core3ptr251drop_in_place$LT$alloc..vec..Vec$LT$alloc..boxed..Box$LT$dyn$u20$core..ops..function..FnMut$LT$$LP$$RP$$GT$$u2b$Output$u20$$u3d$$u20$core..result..Result$LT$$LP$$RP$$C$std..io..error..Error$GT$$u2b$core..marker..Send$u2b$core..marker..Sync$GT$$GT$$GT$17h9f252686182dc599E
Ltmp502:
	jmp	LBB77_17
LBB77_15:
Ltmp500:
	.loc	3 0 1
	movq	%rax, %rcx
	movl	%edx, %eax
	movq	%rcx, -16(%rbp)
	movl	%eax, -8(%rbp)
	jmp	LBB77_14
LBB77_16:
	movq	-32(%rbp), %rdi
	.loc	3 490 1
	subq	$-128, %rdi
Ltmp503:
	callq	__ZN4core3ptr251drop_in_place$LT$alloc..vec..Vec$LT$alloc..boxed..Box$LT$dyn$u20$core..ops..function..FnMut$LT$$LP$$RP$$GT$$u2b$Output$u20$$u3d$$u20$core..result..Result$LT$$LP$$RP$$C$std..io..error..Error$GT$$u2b$core..marker..Send$u2b$core..marker..Sync$GT$$GT$$GT$17h9f252686182dc599E
Ltmp504:
	jmp	LBB77_19
LBB77_17:
	.loc	3 0 1
	movq	-32(%rbp), %rdi
	.loc	3 490 1
	addq	$48, %rdi
Ltmp506:
	callq	__ZN4core3ptr87drop_in_place$LT$core..option..Option$LT$alloc..boxed..Box$LT$$u5b$u32$u5d$$GT$$GT$$GT$17h2feb1ac28c55ff8aE
Ltmp507:
	jmp	LBB77_20
LBB77_18:
Ltmp505:
	.loc	3 0 1
	movq	%rax, %rcx
	movl	%edx, %eax
	movq	%rcx, -16(%rbp)
	movl	%eax, -8(%rbp)
	jmp	LBB77_17
LBB77_19:
	movq	-32(%rbp), %rdi
	.loc	3 490 1
	addq	$48, %rdi
Ltmp508:
	callq	__ZN4core3ptr87drop_in_place$LT$core..option..Option$LT$alloc..boxed..Box$LT$$u5b$u32$u5d$$GT$$GT$$GT$17h2feb1ac28c55ff8aE
Ltmp509:
	jmp	LBB77_22
LBB77_20:
	.loc	3 0 1
	movq	-32(%rbp), %rdi
	.loc	3 490 1
	addq	$152, %rdi
Ltmp511:
	callq	__ZN4core3ptr95drop_in_place$LT$core..option..Option$LT$std..sys..unix..process..process_common..Stdio$GT$$GT$17hc5c967e6641bfed2E
Ltmp512:
	jmp	LBB77_23
LBB77_21:
Ltmp510:
	.loc	3 0 1
	movq	%rax, %rcx
	movl	%edx, %eax
	movq	%rcx, -16(%rbp)
	movl	%eax, -8(%rbp)
	jmp	LBB77_20
LBB77_22:
	movq	-32(%rbp), %rdi
	.loc	3 490 1
	addq	$152, %rdi
Ltmp513:
	callq	__ZN4core3ptr95drop_in_place$LT$core..option..Option$LT$std..sys..unix..process..process_common..Stdio$GT$$GT$17hc5c967e6641bfed2E
Ltmp514:
	jmp	LBB77_25
LBB77_23:
	.loc	3 0 1
	movq	-32(%rbp), %rdi
	.loc	3 490 1
	addq	$160, %rdi
Ltmp516:
	callq	__ZN4core3ptr95drop_in_place$LT$core..option..Option$LT$std..sys..unix..process..process_common..Stdio$GT$$GT$17hc5c967e6641bfed2E
Ltmp517:
	jmp	LBB77_26
LBB77_24:
Ltmp515:
	.loc	3 0 1
	movq	%rax, %rcx
	movl	%edx, %eax
	movq	%rcx, -16(%rbp)
	movl	%eax, -8(%rbp)
	jmp	LBB77_23
LBB77_25:
	movq	-32(%rbp), %rdi
	.loc	3 490 1
	addq	$160, %rdi
Ltmp518:
	callq	__ZN4core3ptr95drop_in_place$LT$core..option..Option$LT$std..sys..unix..process..process_common..Stdio$GT$$GT$17hc5c967e6641bfed2E
Ltmp519:
	jmp	LBB77_28
LBB77_26:
	.loc	3 0 1
	movq	-32(%rbp), %rdi
	.loc	3 490 1
	addq	$168, %rdi
Ltmp521:
	callq	__ZN4core3ptr95drop_in_place$LT$core..option..Option$LT$std..sys..unix..process..process_common..Stdio$GT$$GT$17hc5c967e6641bfed2E
Ltmp522:
	jmp	LBB77_29
LBB77_27:
Ltmp520:
	.loc	3 0 1
	movq	%rax, %rcx
	movl	%edx, %eax
	movq	%rcx, -16(%rbp)
	movl	%eax, -8(%rbp)
	jmp	LBB77_26
LBB77_28:
	movq	-32(%rbp), %rdi
	.loc	3 490 1
	addq	$168, %rdi
	callq	__ZN4core3ptr95drop_in_place$LT$core..option..Option$LT$std..sys..unix..process..process_common..Stdio$GT$$GT$17hc5c967e6641bfed2E
	addq	$32, %rsp
	popq	%rbp
	retq
LBB77_29:
	movq	-16(%rbp), %rdi
	callq	__Unwind_Resume
Ltmp525:
Lfunc_end77:
	.cfi_endproc
	.section	__TEXT,__gcc_except_tab
	.p2align	2
GCC_except_table77:
Lexception19:
	.byte	255
	.byte	255
	.byte	1
	.uleb128 Lcst_end19-Lcst_begin19
Lcst_begin19:
	.uleb128 Ltmp478-Lfunc_begin77
	.uleb128 Ltmp479-Ltmp478
	.uleb128 Ltmp480-Lfunc_begin77
	.byte	0
	.uleb128 Ltmp481-Lfunc_begin77
	.uleb128 Ltmp482-Ltmp481
	.uleb128 Ltmp523-Lfunc_begin77
	.byte	0
	.uleb128 Ltmp483-Lfunc_begin77
	.uleb128 Ltmp484-Ltmp483
	.uleb128 Ltmp485-Lfunc_begin77
	.byte	0
	.uleb128 Ltmp486-Lfunc_begin77
	.uleb128 Ltmp487-Ltmp486
	.uleb128 Ltmp523-Lfunc_begin77
	.byte	0
	.uleb128 Ltmp488-Lfunc_begin77
	.uleb128 Ltmp489-Ltmp488
	.uleb128 Ltmp490-Lfunc_begin77
	.byte	0
	.uleb128 Ltmp491-Lfunc_begin77
	.uleb128 Ltmp492-Ltmp491
	.uleb128 Ltmp523-Lfunc_begin77
	.byte	0
	.uleb128 Ltmp493-Lfunc_begin77
	.uleb128 Ltmp494-Ltmp493
	.uleb128 Ltmp495-Lfunc_begin77
	.byte	0
	.uleb128 Ltmp496-Lfunc_begin77
	.uleb128 Ltmp497-Ltmp496
	.uleb128 Ltmp523-Lfunc_begin77
	.byte	0
	.uleb128 Ltmp498-Lfunc_begin77
	.uleb128 Ltmp499-Ltmp498
	.uleb128 Ltmp500-Lfunc_begin77
	.byte	0
	.uleb128 Ltmp501-Lfunc_begin77
	.uleb128 Ltmp502-Ltmp501
	.uleb128 Ltmp523-Lfunc_begin77
	.byte	0
	.uleb128 Ltmp503-Lfunc_begin77
	.uleb128 Ltmp504-Ltmp503
	.uleb128 Ltmp505-Lfunc_begin77
	.byte	0
	.uleb128 Ltmp506-Lfunc_begin77
	.uleb128 Ltmp507-Ltmp506
	.uleb128 Ltmp523-Lfunc_begin77
	.byte	0
	.uleb128 Ltmp508-Lfunc_begin77
	.uleb128 Ltmp509-Ltmp508
	.uleb128 Ltmp510-Lfunc_begin77
	.byte	0
	.uleb128 Ltmp511-Lfunc_begin77
	.uleb128 Ltmp512-Ltmp511
	.uleb128 Ltmp523-Lfunc_begin77
	.byte	0
	.uleb128 Ltmp513-Lfunc_begin77
	.uleb128 Ltmp514-Ltmp513
	.uleb128 Ltmp515-Lfunc_begin77
	.byte	0
	.uleb128 Ltmp516-Lfunc_begin77
	.uleb128 Ltmp517-Ltmp516
	.uleb128 Ltmp523-Lfunc_begin77
	.byte	0
	.uleb128 Ltmp518-Lfunc_begin77
	.uleb128 Ltmp519-Ltmp518
	.uleb128 Ltmp520-Lfunc_begin77
	.byte	0
	.uleb128 Ltmp521-Lfunc_begin77
	.uleb128 Ltmp522-Ltmp521
	.uleb128 Ltmp523-Lfunc_begin77
	.byte	0
	.uleb128 Ltmp522-Lfunc_begin77
	.uleb128 Lfunc_end77-Ltmp522
	.byte	0
	.byte	0
Lcst_end19:
	.p2align	2

	.section	__TEXT,__text,regular,pure_instructions
	.p2align	4, 0x90
__ZN4core3ptr70drop_in_place$LT$alloc..vec..Vec$LT$alloc..ffi..c_str..CString$GT$$GT$17h6a104460db851515E:
Lfunc_begin78:
	.loc	3 490 0 is_stmt 1
	.cfi_startproc
	.cfi_personality 155, _rust_eh_personality
	.cfi_lsda 16, Lexception20
	pushq	%rbp
	.cfi_def_cfa_offset 16
	.cfi_offset %rbp, -16
	movq	%rsp, %rbp
	.cfi_def_cfa_register %rbp
	subq	$32, %rsp
	movq	%rdi, -32(%rbp)
	movq	%rdi, -24(%rbp)
Ltmp526:
Ltmp532:
	.loc	3 490 1 prologue_end
	callq	__ZN70_$LT$alloc..vec..Vec$LT$T$C$A$GT$$u20$as$u20$core..ops..drop..Drop$GT$4drop17h4a796c81056bfe77E
Ltmp527:
	jmp	LBB78_3
LBB78_1:
Ltmp529:
	.loc	3 0 1 is_stmt 0
	movq	-32(%rbp), %rdi
	.loc	3 490 1
	callq	__ZN4core3ptr77drop_in_place$LT$alloc..raw_vec..RawVec$LT$alloc..ffi..c_str..CString$GT$$GT$17he894e782926caf6cE
Ltmp530:
	jmp	LBB78_5
LBB78_2:
Ltmp528:
	.loc	3 0 1
	movq	%rax, %rcx
	movl	%edx, %eax
	movq	%rcx, -16(%rbp)
	movl	%eax, -8(%rbp)
	jmp	LBB78_1
LBB78_3:
	movq	-32(%rbp), %rdi
	.loc	3 490 1
	callq	__ZN4core3ptr77drop_in_place$LT$alloc..raw_vec..RawVec$LT$alloc..ffi..c_str..CString$GT$$GT$17he894e782926caf6cE
	addq	$32, %rsp
	popq	%rbp
	retq
LBB78_4:
Ltmp531:
	callq	__ZN4core9panicking19panic_cannot_unwind17h1fbca7e1d7f56ae1E
LBB78_5:
	movq	-16(%rbp), %rdi
	callq	__Unwind_Resume
Ltmp533:
Lfunc_end78:
	.cfi_endproc
	.section	__TEXT,__gcc_except_tab
	.p2align	2
GCC_except_table78:
Lexception20:
	.byte	255
	.byte	255
	.byte	1
	.uleb128 Lcst_end20-Lcst_begin20
Lcst_begin20:
	.uleb128 Ltmp526-Lfunc_begin78
	.uleb128 Ltmp527-Ltmp526
	.uleb128 Ltmp528-Lfunc_begin78
	.byte	0
	.uleb128 Ltmp529-Lfunc_begin78
	.uleb128 Ltmp530-Ltmp529
	.uleb128 Ltmp531-Lfunc_begin78
	.byte	0
	.uleb128 Ltmp530-Lfunc_begin78
	.uleb128 Lfunc_end78-Ltmp530
	.byte	0
	.byte	0
Lcst_end20:
	.p2align	2

	.section	__TEXT,__text,regular,pure_instructions
	.p2align	4, 0x90
__ZN4core3ptr70drop_in_place$LT$core..option..Option$LT$alloc..string..String$GT$$GT$17h5422d89cd5a8262eE:
Lfunc_begin79:
	.loc	3 490 0 is_stmt 1
	.cfi_startproc
	pushq	%rbp
	.cfi_def_cfa_offset 16
	.cfi_offset %rbp, -16
	movq	%rsp, %rbp
	.cfi_def_cfa_register %rbp
	subq	$16, %rsp
	movq	%rdi, -16(%rbp)
	movq	%rdi, -8(%rbp)
Ltmp534:
	.loc	3 490 1 prologue_end
	movq	8(%rdi), %rdx
	movl	$1, %eax
	xorl	%ecx, %ecx
	cmpq	$0, %rdx
	cmoveq	%rcx, %rax
	cmpq	$0, %rax
	jne	LBB79_2
LBB79_1:
	addq	$16, %rsp
	popq	%rbp
	retq
LBB79_2:
	.loc	3 0 1 is_stmt 0
	movq	-16(%rbp), %rdi
	.loc	3 490 1
	callq	__ZN4core3ptr42drop_in_place$LT$alloc..string..String$GT$17hea2016f845725904E
	jmp	LBB79_1
Ltmp535:
Lfunc_end79:
	.cfi_endproc

	.p2align	4, 0x90
__ZN4core3ptr72drop_in_place$LT$alloc..collections..btree..mem..replace..PanicGuard$GT$17hd35468edd8d67fdaE:
Lfunc_begin80:
	.loc	3 490 0 is_stmt 1
	.cfi_startproc
	pushq	%rbp
	.cfi_def_cfa_offset 16
	.cfi_offset %rbp, -16
	movq	%rsp, %rbp
	.cfi_def_cfa_register %rbp
	subq	$16, %rsp
	movq	%rdi, -8(%rbp)
Ltmp536:
	.loc	3 490 1 prologue_end
	callq	__ZN93_$LT$alloc..collections..btree..mem..replace..PanicGuard$u20$as$u20$core..ops..drop..Drop$GT$4drop17hd8f71405b84037e0E
	addq	$16, %rsp
	popq	%rbp
	retq
Ltmp537:
Lfunc_end80:
	.cfi_endproc

	.p2align	4, 0x90
__ZN4core3ptr75drop_in_place$LT$core..option..Option$LT$alloc..ffi..c_str..CString$GT$$GT$17h9a3810c931ce6259E:
Lfunc_begin81:
	.loc	3 490 0
	.cfi_startproc
	pushq	%rbp
	.cfi_def_cfa_offset 16
	.cfi_offset %rbp, -16
	movq	%rsp, %rbp
	.cfi_def_cfa_register %rbp
	subq	$16, %rsp
	movq	%rdi, -16(%rbp)
	movq	%rdi, -8(%rbp)
Ltmp538:
	.loc	3 490 1 prologue_end
	movq	(%rdi), %rdx
	movl	$1, %eax
	xorl	%ecx, %ecx
	cmpq	$0, %rdx
	cmoveq	%rcx, %rax
	cmpq	$0, %rax
	jne	LBB81_2
LBB81_1:
	addq	$16, %rsp
	popq	%rbp
	retq
LBB81_2:
	.loc	3 0 1 is_stmt 0
	movq	-16(%rbp), %rdi
	.loc	3 490 1
	callq	__ZN4core3ptr47drop_in_place$LT$alloc..ffi..c_str..CString$GT$17h4de83997f7d8db8dE
	jmp	LBB81_1
Ltmp539:
Lfunc_end81:
	.cfi_endproc

	.p2align	4, 0x90
__ZN4core3ptr75drop_in_place$LT$core..option..Option$LT$std..ffi..os_str..OsString$GT$$GT$17hfdf0cece9e8c7a50E:
Lfunc_begin82:
	.loc	3 490 0 is_stmt 1
	.cfi_startproc
	pushq	%rbp
	.cfi_def_cfa_offset 16
	.cfi_offset %rbp, -16
	movq	%rsp, %rbp
	.cfi_def_cfa_register %rbp
	subq	$16, %rsp
	movq	%rdi, -16(%rbp)
	movq	%rdi, -8(%rbp)
Ltmp540:
	.loc	3 490 1 prologue_end
	movq	8(%rdi), %rdx
	movl	$1, %eax
	xorl	%ecx, %ecx
	cmpq	$0, %rdx
	cmoveq	%rcx, %rax
	cmpq	$0, %rax
	jne	LBB82_2
LBB82_1:
	addq	$16, %rsp
	popq	%rbp
	retq
LBB82_2:
	.loc	3 0 1 is_stmt 0
	movq	-16(%rbp), %rdi
	.loc	3 490 1
	callq	__ZN4core3ptr47drop_in_place$LT$std..ffi..os_str..OsString$GT$17hac53ef81397eced7E
	jmp	LBB82_1
Ltmp541:
Lfunc_end82:
	.cfi_endproc

	.p2align	4, 0x90
__ZN4core3ptr77drop_in_place$LT$alloc..raw_vec..RawVec$LT$alloc..ffi..c_str..CString$GT$$GT$17he894e782926caf6cE:
Lfunc_begin83:
	.loc	3 490 0 is_stmt 1
	.cfi_startproc
	pushq	%rbp
	.cfi_def_cfa_offset 16
	.cfi_offset %rbp, -16
	movq	%rsp, %rbp
	.cfi_def_cfa_register %rbp
	subq	$16, %rsp
	movq	%rdi, -8(%rbp)
Ltmp542:
	.loc	3 490 1 prologue_end
	callq	__ZN77_$LT$alloc..raw_vec..RawVec$LT$T$C$A$GT$$u20$as$u20$core..ops..drop..Drop$GT$4drop17h0b725fca2055df35E
	addq	$16, %rsp
	popq	%rbp
	retq
Ltmp543:
Lfunc_end83:
	.cfi_endproc

	.p2align	4, 0x90
__ZN4core3ptr77drop_in_place$LT$std..panicking..begin_panic..PanicPayload$LT$$RF$str$GT$$GT$17h1b9a354c59291a92E:
Lfunc_begin84:
	.loc	3 490 0
	.cfi_startproc
	pushq	%rbp
	.cfi_def_cfa_offset 16
	.cfi_offset %rbp, -16
	movq	%rsp, %rbp
	.cfi_def_cfa_register %rbp
	pushq	%rax
	movq	%rdi, -8(%rbp)
Ltmp544:
	.loc	3 490 1 prologue_end
	addq	$8, %rsp
	popq	%rbp
	retq
Ltmp545:
Lfunc_end84:
	.cfi_endproc

	.p2align	4, 0x90
__ZN4core3ptr85drop_in_place$LT$std..rt..lang_start$LT$$LP$$RP$$GT$..$u7b$$u7b$closure$u7d$$u7d$$GT$17h6d095875dc4d84daE:
Lfunc_begin85:
	.loc	3 490 0
	.cfi_startproc
	pushq	%rbp
	.cfi_def_cfa_offset 16
	.cfi_offset %rbp, -16
	movq	%rsp, %rbp
	.cfi_def_cfa_register %rbp
	pushq	%rax
	movq	%rdi, -8(%rbp)
Ltmp546:
	.loc	3 490 1 prologue_end
	addq	$8, %rsp
	popq	%rbp
	retq
Ltmp547:
Lfunc_end85:
	.cfi_endproc

	.p2align	4, 0x90
__ZN4core3ptr87drop_in_place$LT$core..option..Option$LT$alloc..boxed..Box$LT$$u5b$u32$u5d$$GT$$GT$$GT$17h2feb1ac28c55ff8aE:
Lfunc_begin86:
	.loc	3 490 0
	.cfi_startproc
	pushq	%rbp
	.cfi_def_cfa_offset 16
	.cfi_offset %rbp, -16
	movq	%rsp, %rbp
	.cfi_def_cfa_register %rbp
	subq	$16, %rsp
	movq	%rdi, -16(%rbp)
	movq	%rdi, -8(%rbp)
Ltmp548:
	.loc	3 490 1 prologue_end
	movq	(%rdi), %rdx
	movl	$1, %eax
	xorl	%ecx, %ecx
	cmpq	$0, %rdx
	cmoveq	%rcx, %rax
	cmpq	$0, %rax
	jne	LBB86_2
LBB86_1:
	addq	$16, %rsp
	popq	%rbp
	retq
LBB86_2:
	.loc	3 0 1 is_stmt 0
	movq	-16(%rbp), %rdi
	.loc	3 490 1
	callq	__ZN4core3ptr59drop_in_place$LT$alloc..boxed..Box$LT$$u5b$u32$u5d$$GT$$GT$17hf87105b8248004beE
	jmp	LBB86_1
Ltmp549:
Lfunc_end86:
	.cfi_endproc

	.p2align	4, 0x90
__ZN4core3ptr8non_null16NonNull$LT$T$GT$3new17hdd6a96bdff576679E:
Lfunc_begin87:
	.loc	9 222 0 is_stmt 1
	.cfi_startproc
	pushq	%rbp
	.cfi_def_cfa_offset 16
	.cfi_offset %rbp, -16
	movq	%rsp, %rbp
	.cfi_def_cfa_register %rbp
	subq	$88, %rsp
	movq	%rdi, -88(%rbp)
	movq	%rdi, -56(%rbp)
Ltmp550:
	.loc	9 223 13 prologue_end
	movq	%rdi, -48(%rbp)
Ltmp551:
	.loc	5 52 36
	movq	%rdi, -64(%rbp)
	.loc	5 52 18 is_stmt 0
	movq	-64(%rbp), %rax
	movq	%rax, -40(%rbp)
Ltmp552:
	.loc	5 38 13 is_stmt 1
	movq	%rax, -32(%rbp)
Ltmp553:
	.loc	5 215 33
	movq	%rax, -24(%rbp)
	.loc	5 215 18 is_stmt 0
	movq	%rax, -16(%rbp)
Ltmp554:
	.loc	5 38 13 is_stmt 1
	cmpq	$0, -16(%rbp)
	sete	%al
Ltmp555:
	.loc	9 223 12
	xorb	$-1, %al
	testb	$1, %al
	jne	LBB87_2
	.loc	9 227 13
	movq	$0, -80(%rbp)
	.loc	9 223 9
	jmp	LBB87_3
LBB87_2:
	.loc	9 0 9 is_stmt 0
	movq	-88(%rbp), %rax
	.loc	9 225 47 is_stmt 1
	movq	%rax, -8(%rbp)
Ltmp556:
	.loc	9 201 13
	movq	%rax, -72(%rbp)
Ltmp557:
	.loc	9 225 13
	movq	-72(%rbp), %rax
	movq	%rax, -80(%rbp)
LBB87_3:
	.loc	9 229 6
	movq	-80(%rbp), %rax
	addq	$88, %rsp
	popq	%rbp
	retq
Ltmp558:
Lfunc_end87:
	.cfi_endproc

	.p2align	4, 0x90
__ZN4core3ptr8non_null26NonNull$LT$$u5b$T$u5d$$GT$20slice_from_raw_parts17h77fa89a2f6265d7fE:
Lfunc_begin88:
	.loc	9 482 0
	.cfi_startproc
	pushq	%rbp
	.cfi_def_cfa_offset 16
	.cfi_offset %rbp, -16
	movq	%rsp, %rbp
	.cfi_def_cfa_register %rbp
	subq	$128, %rsp
	movq	%rdi, -80(%rbp)
	movq	%rsi, -72(%rbp)
Ltmp559:
	.loc	9 484 70 prologue_end
	movq	%rdi, -64(%rbp)
Ltmp560:
	.loc	9 326 9
	movq	%rdi, -56(%rbp)
Ltmp561:
	.loc	9 484 85
	movq	%rsi, -48(%rbp)
Ltmp562:
	.loc	3 766 24
	movq	%rdi, -40(%rbp)
Ltmp563:
	.loc	5 60 9
	movq	%rdi, -32(%rbp)
Ltmp564:
	.loc	3 766 37
	movq	%rsi, -24(%rbp)
Ltmp565:
	.loc	4 135 36
	movq	%rdi, -96(%rbp)
	movq	%rsi, -88(%rbp)
	.loc	4 135 14 is_stmt 0
	movq	-96(%rbp), %rcx
	movq	-88(%rbp), %rax
	movq	%rcx, -112(%rbp)
	movq	%rax, -104(%rbp)
	movq	-112(%rbp), %rcx
	movq	-104(%rbp), %rax
	movq	%rcx, -16(%rbp)
	movq	%rax, -8(%rbp)
Ltmp566:
	.loc	9 201 13 is_stmt 1
	movq	%rcx, -128(%rbp)
	movq	%rax, -120(%rbp)
Ltmp567:
	.loc	9 485 6
	movq	-128(%rbp), %rax
	movq	-120(%rbp), %rdx
	addq	$128, %rsp
	popq	%rbp
	retq
Ltmp568:
Lfunc_end88:
	.cfi_endproc

	.p2align	4, 0x90
__ZN4core3ptr91drop_in_place$LT$alloc..boxed..Box$LT$dyn$u20$core..any..Any$u2b$core..marker..Send$GT$$GT$17hbedb6e751a42ad2bE:
Lfunc_begin89:
	.loc	3 490 0
	.cfi_startproc
	.cfi_personality 155, _rust_eh_personality
	.cfi_lsda 16, Lexception21
	pushq	%rbp
	.cfi_def_cfa_offset 16
	.cfi_offset %rbp, -16
	movq	%rsp, %rbp
	.cfi_def_cfa_register %rbp
	subq	$32, %rsp
	movq	%rdi, %rax
	movq	%rax, -32(%rbp)
	movq	%rax, -24(%rbp)
Ltmp575:
	.loc	3 490 1 prologue_end
	movq	(%rax), %rdi
	movq	8(%rax), %rax
	movq	(%rax), %rax
Ltmp569:
	callq	*%rax
Ltmp570:
	jmp	LBB89_3
LBB89_1:
	.loc	3 0 1 is_stmt 0
	movq	-32(%rbp), %rax
	.loc	3 490 1
	movq	(%rax), %rdi
	movq	8(%rax), %rsi
Ltmp572:
	callq	__ZN5alloc5alloc8box_free17hfbe4974241460f91E
Ltmp573:
	jmp	LBB89_5
LBB89_2:
Ltmp571:
	.loc	3 0 1
	movq	%rax, %rcx
	movl	%edx, %eax
	movq	%rcx, -16(%rbp)
	movl	%eax, -8(%rbp)
	jmp	LBB89_1
LBB89_3:
	movq	-32(%rbp), %rax
	.loc	3 490 1
	movq	(%rax), %rdi
	movq	8(%rax), %rsi
	callq	__ZN5alloc5alloc8box_free17hfbe4974241460f91E
	addq	$32, %rsp
	popq	%rbp
	retq
LBB89_4:
Ltmp574:
	callq	__ZN4core9panicking19panic_cannot_unwind17h1fbca7e1d7f56ae1E
LBB89_5:
	movq	-16(%rbp), %rdi
	callq	__Unwind_Resume
Ltmp576:
Lfunc_end89:
	.cfi_endproc
	.section	__TEXT,__gcc_except_tab
	.p2align	2
GCC_except_table89:
Lexception21:
	.byte	255
	.byte	255
	.byte	1
	.uleb128 Lcst_end21-Lcst_begin21
Lcst_begin21:
	.uleb128 Ltmp569-Lfunc_begin89
	.uleb128 Ltmp570-Ltmp569
	.uleb128 Ltmp571-Lfunc_begin89
	.byte	0
	.uleb128 Ltmp572-Lfunc_begin89
	.uleb128 Ltmp573-Ltmp572
	.uleb128 Ltmp574-Lfunc_begin89
	.byte	0
	.uleb128 Ltmp573-Lfunc_begin89
	.uleb128 Lfunc_end89-Ltmp573
	.byte	0
	.byte	0
Lcst_end21:
	.p2align	2

	.section	__TEXT,__text,regular,pure_instructions
	.p2align	4, 0x90
__ZN4core3ptr91drop_in_place$LT$core..result..Result$LT$alloc..string..String$C$std..env..VarError$GT$$GT$17h675e7c1ed0a7e8beE:
Lfunc_begin90:
	.loc	3 490 0 is_stmt 1
	.cfi_startproc
	pushq	%rbp
	.cfi_def_cfa_offset 16
	.cfi_offset %rbp, -16
	movq	%rsp, %rbp
	.cfi_def_cfa_register %rbp
	subq	$16, %rsp
	movq	%rdi, -16(%rbp)
	movq	%rdi, -8(%rbp)
Ltmp577:
	.loc	3 490 1 prologue_end
	cmpq	$0, (%rdi)
	jne	LBB90_2
	.loc	3 0 1 is_stmt 0
	movq	-16(%rbp), %rdi
	.loc	3 490 1
	addq	$8, %rdi
	callq	__ZN4core3ptr42drop_in_place$LT$alloc..string..String$GT$17hea2016f845725904E
	jmp	LBB90_3
LBB90_2:
	.loc	3 0 1
	movq	-16(%rbp), %rdi
	.loc	3 490 1
	addq	$8, %rdi
	callq	__ZN4core3ptr39drop_in_place$LT$std..env..VarError$GT$17hced506e6caf7e309E
LBB90_3:
	addq	$16, %rsp
	popq	%rbp
	retq
Ltmp578:
Lfunc_end90:
	.cfi_endproc

	.p2align	4, 0x90
__ZN4core3ptr93drop_in_place$LT$dyn$u20$core..error..Error$u2b$core..marker..Send$u2b$core..marker..Sync$GT$17h8ce18e58c6ebe09bE:
Lfunc_begin91:
	.loc	3 490 0 is_stmt 1
	.cfi_startproc
	pushq	%rbp
	.cfi_def_cfa_offset 16
	.cfi_offset %rbp, -16
	movq	%rsp, %rbp
	.cfi_def_cfa_register %rbp
	subq	$16, %rsp
	movq	%rdi, -16(%rbp)
	movq	%rsi, -8(%rbp)
Ltmp579:
	.loc	3 490 1 prologue_end
	callq	*(%rsi)
	addq	$16, %rsp
	popq	%rbp
	retq
Ltmp580:
Lfunc_end91:
	.cfi_endproc

	.p2align	4, 0x90
__ZN4core3ptr95drop_in_place$LT$core..option..Option$LT$std..sys..unix..process..process_common..Stdio$GT$$GT$17hc5c967e6641bfed2E:
Lfunc_begin92:
	.loc	3 490 0
	.cfi_startproc
	pushq	%rbp
	.cfi_def_cfa_offset 16
	.cfi_offset %rbp, -16
	movq	%rsp, %rbp
	.cfi_def_cfa_register %rbp
	subq	$16, %rsp
	movq	%rdi, -16(%rbp)
	movq	%rdi, -8(%rbp)
Ltmp581:
	.loc	3 490 1 prologue_end
	movl	$1, %eax
	xorl	%ecx, %ecx
	cmpl	$4, (%rdi)
	cmoveq	%rcx, %rax
	cmpq	$0, %rax
	jne	LBB92_2
LBB92_1:
	addq	$16, %rsp
	popq	%rbp
	retq
LBB92_2:
	.loc	3 0 1 is_stmt 0
	movq	-16(%rbp), %rdi
	.loc	3 490 1
	callq	__ZN4core3ptr67drop_in_place$LT$std..sys..unix..process..process_common..Stdio$GT$17h7b3937b3f2cd8844E
	jmp	LBB92_1
Ltmp582:
Lfunc_end92:
	.cfi_endproc

	.p2align	4, 0x90
__ZN4core3str21_$LT$impl$u20$str$GT$11starts_with17h8e48364cd593d068E:
Lfunc_begin93:
	.loc	21 1096 0 is_stmt 1
	.cfi_startproc
	pushq	%rbp
	.cfi_def_cfa_offset 16
	.cfi_offset %rbp, -16
	movq	%rsp, %rbp
	.cfi_def_cfa_register %rbp
	subq	$48, %rsp
	movq	%rcx, -48(%rbp)
	movq	%rdx, -40(%rbp)
	movq	%rsi, %rcx
	movq	-48(%rbp), %rsi
	movq	%rdi, %rdx
	movq	-40(%rbp), %rdi
	movq	%rdx, -32(%rbp)
	movq	%rcx, -24(%rbp)
	movq	%rdi, -16(%rbp)
	movq	%rsi, -8(%rbp)
Ltmp583:
	.loc	21 1097 9 prologue_end
	callq	__ZN55_$LT$$RF$str$u20$as$u20$core..str..pattern..Pattern$GT$12is_prefix_of17h9d930b2d77ebdcb7E
	.loc	21 1098 6
	andb	$1, %al
	movzbl	%al, %eax
	addq	$48, %rsp
	popq	%rbp
	retq
Ltmp584:
Lfunc_end93:
	.cfi_endproc

	.p2align	4, 0x90
__ZN4core3str21_$LT$impl$u20$str$GT$5parse17h7d9e4816cd634371E:
Lfunc_begin94:
	.loc	21 2352 0
	.cfi_startproc
	pushq	%rbp
	.cfi_def_cfa_offset 16
	.cfi_offset %rbp, -16
	movq	%rsp, %rbp
	.cfi_def_cfa_register %rbp
	subq	$32, %rsp
	movq	%rdi, -24(%rbp)
	movq	%rsi, -16(%rbp)
Ltmp585:
	.loc	21 2353 9 prologue_end
	callq	__ZN4core3num60_$LT$impl$u20$core..str..traits..FromStr$u20$for$u20$u32$GT$8from_str17hc43530aba0d836a9E
	movq	%rax, -8(%rbp)
	movq	-8(%rbp), %rax
	movq	%rax, -32(%rbp)
	.loc	21 2354 6
	movq	-32(%rbp), %rax
	addq	$32, %rsp
	popq	%rbp
	retq
Ltmp586:
Lfunc_end94:
	.cfi_endproc

	.p2align	4, 0x90
__ZN4core3str21_$LT$impl$u20$str$GT$5split17h343de7b1f494dbf6E:
Lfunc_begin95:
	.loc	21 1341 0
	.cfi_startproc
	.cfi_personality 155, _rust_eh_personality
	.cfi_lsda 16, Lexception22
	pushq	%rbp
	.cfi_def_cfa_offset 16
	.cfi_offset %rbp, -16
	movq	%rsp, %rbp
	.cfi_def_cfa_register %rbp
	subq	$272, %rsp
	movl	%ecx, -260(%rbp)
	movq	%rdx, -256(%rbp)
	movq	%rsi, -248(%rbp)
	movq	%rdi, -240(%rbp)
	movq	%rdi, -232(%rbp)
	movq	%rsi, -88(%rbp)
	movq	%rdx, -80(%rbp)
	movl	%ecx, -68(%rbp)
Ltmp590:
	.loc	21 1342 15 prologue_end
	movb	$1, -89(%rbp)
	.loc	21 1344 18
	movq	%rsi, -64(%rbp)
	movq	%rdx, -56(%rbp)
Ltmp591:
	.loc	21 160 9
	movq	%rsi, -48(%rbp)
	movq	%rdx, -40(%rbp)
Ltmp592:
	.loc	21 327 18
	movq	%rsi, -32(%rbp)
	movq	%rdx, -24(%rbp)
	movq	-24(%rbp), %rax
	movq	%rax, -224(%rbp)
Ltmp593:
	.loc	21 0 18 is_stmt 0
	movq	-256(%rbp), %rcx
	movq	-248(%rbp), %rdx
	movl	-260(%rbp), %esi
	.loc	21 1345 22 is_stmt 1
	movb	$0, -89(%rbp)
Ltmp587:
	leaq	-144(%rbp), %rdi
	callq	__ZN52_$LT$char$u20$as$u20$core..str..pattern..Pattern$GT$13into_searcher17hfcaef770efa13377E
Ltmp588:
	jmp	LBB95_4
LBB95_2:
	.loc	21 1349 5
	testb	$1, -89(%rbp)
	jne	LBB95_6
	jmp	LBB95_5
LBB95_3:
Ltmp589:
	.loc	21 0 5 is_stmt 0
	movq	%rax, %rcx
	movl	%edx, %eax
	movq	%rcx, -16(%rbp)
	movl	%eax, -8(%rbp)
	jmp	LBB95_2
LBB95_4:
	movq	-224(%rbp), %rax
	.loc	21 1342 15 is_stmt 1
	movq	$0, -168(%rbp)
	movq	%rax, -160(%rbp)
	leaq	-216(%rbp), %rdi
	leaq	-144(%rbp), %rsi
	movl	$48, %edx
	callq	_memcpy
	movq	-240(%rbp), %rdi
	movb	$1, -152(%rbp)
	movb	$0, -151(%rbp)
	.loc	21 1342 9 is_stmt 0
	leaq	-216(%rbp), %rsi
	movl	$72, %edx
	callq	_memcpy
	movq	-232(%rbp), %rax
	.loc	21 1349 6 is_stmt 1
	addq	$272, %rsp
	popq	%rbp
	retq
LBB95_5:
	.loc	21 1341 5
	movq	-16(%rbp), %rdi
	callq	__Unwind_Resume
LBB95_6:
	.loc	21 1349 5
	jmp	LBB95_5
Ltmp594:
Lfunc_end95:
	.cfi_endproc
	.section	__TEXT,__gcc_except_tab
	.p2align	2
GCC_except_table95:
Lexception22:
	.byte	255
	.byte	255
	.byte	1
	.uleb128 Lcst_end22-Lcst_begin22
Lcst_begin22:
	.uleb128 Ltmp587-Lfunc_begin95
	.uleb128 Ltmp588-Ltmp587
	.uleb128 Ltmp589-Lfunc_begin95
	.byte	0
	.uleb128 Ltmp588-Lfunc_begin95
	.uleb128 Lfunc_end95-Ltmp588
	.byte	0
	.byte	0
Lcst_end22:
	.p2align	2

	.section	__TEXT,__text,regular,pure_instructions
	.p2align	4, 0x90
__ZN4core3str4iter22SplitInternal$LT$P$GT$4next17hec59d677464bcd5aE:
Lfunc_begin96:
	.file	31 "/rustc/2c8cc343237b8f7d5a3c3703e3a87f2eb2c54a74/library/core/src/str" "iter.rs"
	.loc	31 602 0
	.cfi_startproc
	pushq	%rbp
	.cfi_def_cfa_offset 16
	.cfi_offset %rbp, -16
	movq	%rsp, %rbp
	.cfi_def_cfa_register %rbp
	subq	$160, %rsp
	movq	%rdi, -136(%rbp)
	movq	%rdi, -72(%rbp)
Ltmp595:
	.loc	31 603 12 prologue_end
	testb	$1, 65(%rdi)
	jne	LBB96_2
	.loc	31 0 12 is_stmt 0
	movq	-136(%rbp), %rdi
	.loc	31 607 24 is_stmt 1
	callq	__ZN81_$LT$core..str..pattern..CharSearcher$u20$as$u20$core..str..pattern..Searcher$GT$8haystack17haf03e0339cddc789E
	movq	-136(%rbp), %rsi
	movq	%rax, -152(%rbp)
	movq	%rdx, -144(%rbp)
	movq	%rax, -64(%rbp)
	movq	%rdx, -56(%rbp)
Ltmp596:
	.loc	31 608 15
	leaq	-112(%rbp), %rdi
	callq	__ZN81_$LT$core..str..pattern..CharSearcher$u20$as$u20$core..str..pattern..Searcher$GT$10next_match17h62f0661a396aa780E
	.loc	31 608 9 is_stmt 0
	cmpq	$0, -112(%rbp)
	je	LBB96_4
	jmp	LBB96_5
Ltmp597:
LBB96_2:
	.loc	31 604 20 is_stmt 1
	movq	$0, -128(%rbp)
LBB96_3:
	.loc	31 617 6
	movq	-128(%rbp), %rax
	movq	-120(%rbp), %rdx
	addq	$160, %rsp
	popq	%rbp
	retq
LBB96_4:
	.loc	31 0 6 is_stmt 0
	movq	-136(%rbp), %rdi
Ltmp598:
	.loc	31 615 21 is_stmt 1
	callq	__ZN4core3str4iter22SplitInternal$LT$P$GT$7get_end17hb49fa4679f9f0fabE
	movq	%rdx, -120(%rbp)
	movq	%rax, -128(%rbp)
	.loc	31 615 34 is_stmt 0
	jmp	LBB96_6
LBB96_5:
	.loc	31 0 34
	movq	-136(%rbp), %rsi
	movq	-144(%rbp), %rcx
	movq	-152(%rbp), %rdx
	.loc	31 610 19 is_stmt 1
	movq	-104(%rbp), %rax
	movq	%rax, -48(%rbp)
	.loc	31 610 22 is_stmt 0
	movq	-96(%rbp), %rdi
	movq	%rdi, -160(%rbp)
	movq	%rdi, -40(%rbp)
Ltmp599:
	.loc	31 611 27 is_stmt 1
	movq	%rdx, -32(%rbp)
	movq	%rcx, -24(%rbp)
	.loc	31 611 50 is_stmt 0
	movq	48(%rsi), %rsi
	movq	%rsi, -88(%rbp)
	movq	%rax, -80(%rbp)
Ltmp600:
	.loc	21 511 20 is_stmt 1
	movq	-88(%rbp), %rdi
	movq	-80(%rbp), %rsi
	callq	__ZN4core3str6traits108_$LT$impl$u20$core..slice..index..SliceIndex$LT$str$GT$$u20$for$u20$core..ops..range..Range$LT$usize$GT$$GT$13get_unchecked17hbc95fb60a211bb45E
	movq	-160(%rbp), %rsi
	movq	-136(%rbp), %rcx
	.loc	21 511 18 is_stmt 0
	movq	%rax, -16(%rbp)
	movq	%rdx, -8(%rbp)
Ltmp601:
	.loc	31 612 17 is_stmt 1
	movq	%rsi, 48(%rcx)
	.loc	31 613 17
	movq	%rax, -128(%rbp)
	movq	%rdx, -120(%rbp)
Ltmp602:
LBB96_6:
	.loc	31 617 6
	jmp	LBB96_3
Ltmp603:
Lfunc_end96:
	.cfi_endproc

	.p2align	4, 0x90
__ZN4core3str4iter22SplitInternal$LT$P$GT$7get_end17hb49fa4679f9f0fabE:
Lfunc_begin97:
	.loc	31 587 0
	.cfi_startproc
	pushq	%rbp
	.cfi_def_cfa_offset 16
	.cfi_offset %rbp, -16
	movq	%rsp, %rbp
	.cfi_def_cfa_register %rbp
	subq	$96, %rsp
	movq	%rdi, -88(%rbp)
	movq	%rdi, -40(%rbp)
Ltmp604:
	.loc	31 588 13 prologue_end
	movb	65(%rdi), %al
	.loc	31 588 12 is_stmt 0
	xorb	$-1, %al
	testb	$1, %al
	jne	LBB97_2
LBB97_1:
	.loc	31 598 9 is_stmt 1
	movq	$0, -80(%rbp)
	.loc	31 599 6
	jmp	LBB97_8
LBB97_2:
	.loc	31 0 6 is_stmt 0
	movq	-88(%rbp), %rax
	.loc	31 589 13 is_stmt 1
	movb	$1, 65(%rax)
	.loc	31 591 16
	testb	$1, 64(%rax)
	jne	LBB97_4
	.loc	31 0 16 is_stmt 0
	movq	-88(%rbp), %rcx
	.loc	31 591 45
	movq	56(%rcx), %rax
	subq	48(%rcx), %rax
	cmpq	$0, %rax
	seta	%al
	.loc	31 591 16
	andb	$1, %al
	movb	%al, -57(%rbp)
	jmp	LBB97_5
LBB97_4:
	movb	$1, -57(%rbp)
LBB97_5:
	testb	$1, -57(%rbp)
	jne	LBB97_7
	.loc	31 588 9 is_stmt 1
	jmp	LBB97_1
LBB97_7:
	.loc	31 0 9 is_stmt 0
	movq	-88(%rbp), %rdi
	.loc	31 593 39 is_stmt 1
	callq	__ZN81_$LT$core..str..pattern..CharSearcher$u20$as$u20$core..str..pattern..Searcher$GT$8haystack17haf03e0339cddc789E
	movq	%rax, %rcx
	movq	-88(%rbp), %rax
	movq	%rcx, -96(%rbp)
	movq	%rdx, %rcx
	movq	-96(%rbp), %rdx
	movq	%rdx, -32(%rbp)
	movq	%rcx, -24(%rbp)
	.loc	31 593 77 is_stmt 0
	movq	48(%rax), %rsi
	.loc	31 593 89
	movq	56(%rax), %rax
	.loc	31 593 77
	movq	%rsi, -56(%rbp)
	movq	%rax, -48(%rbp)
Ltmp605:
	.loc	21 511 20 is_stmt 1
	movq	-56(%rbp), %rdi
	movq	-48(%rbp), %rsi
	callq	__ZN4core3str6traits108_$LT$impl$u20$core..slice..index..SliceIndex$LT$str$GT$$u20$for$u20$core..ops..range..Range$LT$usize$GT$$GT$13get_unchecked17hbc95fb60a211bb45E
	.loc	21 511 18 is_stmt 0
	movq	%rax, -16(%rbp)
	movq	%rdx, -8(%rbp)
Ltmp606:
	.loc	31 594 24 is_stmt 1
	movq	%rax, -80(%rbp)
	movq	%rdx, -72(%rbp)
Ltmp607:
LBB97_8:
	.loc	31 599 6
	movq	-80(%rbp), %rax
	movq	-72(%rbp), %rdx
	addq	$96, %rsp
	popq	%rbp
	retq
Ltmp608:
Lfunc_end97:
	.cfi_endproc

	.p2align	4, 0x90
__ZN4core3str6traits108_$LT$impl$u20$core..slice..index..SliceIndex$LT$str$GT$$u20$for$u20$core..ops..range..Range$LT$usize$GT$$GT$13get_unchecked17hbc95fb60a211bb45E:
Lfunc_begin98:
	.file	32 "/rustc/2c8cc343237b8f7d5a3c3703e3a87f2eb2c54a74/library/core/src/str" "traits.rs"
	.loc	32 197 0
	.cfi_startproc
	pushq	%rbp
	.cfi_def_cfa_offset 16
	.cfi_offset %rbp, -16
	movq	%rsp, %rbp
	.cfi_def_cfa_register %rbp
	subq	$192, %rsp
	movq	%rdi, -160(%rbp)
	movq	%rsi, -152(%rbp)
	movq	%rdx, -144(%rbp)
	movq	%rcx, -136(%rbp)
Ltmp609:
	.loc	32 198 21 prologue_end
	movq	%rdx, -128(%rbp)
	movq	%rcx, -120(%rbp)
Ltmp610:
	.loc	32 201 28
	movq	%rdx, -112(%rbp)
	movq	%rcx, -104(%rbp)
Ltmp611:
	.loc	2 1650 9
	movq	%rdx, -96(%rbp)
Ltmp612:
	.loc	32 201 47
	movq	%rdi, -88(%rbp)
Ltmp613:
	.loc	2 932 18
	movq	%rdx, -80(%rbp)
	.loc	2 932 30 is_stmt 0
	movq	%rdi, -72(%rbp)
Ltmp614:
	.loc	2 473 18 is_stmt 1
	addq	%rdi, %rdx
	movq	%rdx, -64(%rbp)
	movq	-64(%rbp), %rax
	movq	%rax, -56(%rbp)
Ltmp615:
	.loc	32 202 19
	subq	%rdi, %rsi
	movq	%rsi, -48(%rbp)
Ltmp616:
	.loc	32 203 35
	movq	%rax, -40(%rbp)
	.loc	32 203 40 is_stmt 0
	movq	%rsi, -32(%rbp)
Ltmp617:
	.loc	3 734 20 is_stmt 1
	movq	%rax, -24(%rbp)
Ltmp618:
	.loc	2 61 9
	movq	%rax, -16(%rbp)
Ltmp619:
	.loc	3 734 33
	movq	%rsi, -8(%rbp)
Ltmp620:
	.loc	4 118 36
	movq	%rax, -176(%rbp)
	movq	%rsi, -168(%rbp)
	.loc	4 118 14 is_stmt 0
	movq	-176(%rbp), %rcx
	movq	-168(%rbp), %rax
	movq	%rcx, -192(%rbp)
	movq	%rax, -184(%rbp)
	movq	-192(%rbp), %rax
	movq	-184(%rbp), %rdx
Ltmp621:
	.loc	32 204 6 is_stmt 1
	addq	$192, %rsp
	popq	%rbp
	retq
Ltmp622:
Lfunc_end98:
	.cfi_endproc

	.p2align	4, 0x90
__ZN4core3str6traits54_$LT$impl$u20$core..cmp..PartialEq$u20$for$u20$str$GT$2eq17ha6bac4e930f08863E:
Lfunc_begin99:
	.loc	32 28 0
	.cfi_startproc
	pushq	%rbp
	.cfi_def_cfa_offset 16
	.cfi_offset %rbp, -16
	movq	%rsp, %rbp
	.cfi_def_cfa_register %rbp
	subq	$112, %rsp
	movq	%rdi, -80(%rbp)
	movq	%rsi, -72(%rbp)
	movq	%rdx, -64(%rbp)
	movq	%rcx, -56(%rbp)
Ltmp623:
	.loc	32 29 9 prologue_end
	movq	%rdi, -48(%rbp)
	movq	%rsi, -40(%rbp)
Ltmp624:
	.loc	21 327 18
	movq	%rdi, -112(%rbp)
	movq	%rsi, -104(%rbp)
Ltmp625:
	.loc	32 29 9
	leaq	-112(%rbp), %rax
	movq	%rax, -32(%rbp)
	.loc	32 29 28 is_stmt 0
	movq	%rdx, -24(%rbp)
	movq	%rcx, -16(%rbp)
Ltmp626:
	.loc	21 327 18 is_stmt 1
	movq	%rdx, -96(%rbp)
	movq	%rcx, -88(%rbp)
Ltmp627:
	.loc	32 29 28
	leaq	-96(%rbp), %rax
	movq	%rax, -8(%rbp)
Ltmp628:
	.loc	26 1531 27
	movq	-112(%rbp), %rdi
	movq	-104(%rbp), %rsi
	.loc	26 1531 34 is_stmt 0
	movq	-96(%rbp), %rdx
	movq	-88(%rbp), %rcx
	.loc	26 1531 13
	callq	__ZN4core5slice3cmp81_$LT$impl$u20$core..cmp..PartialEq$LT$$u5b$B$u5d$$GT$$u20$for$u20$$u5b$A$u5d$$GT$2eq17h3f1a111717d5e9a1E
Ltmp629:
	.loc	32 30 6 is_stmt 1
	andb	$1, %al
	movzbl	%al, %eax
	addq	$112, %rsp
	popq	%rbp
	retq
Ltmp630:
Lfunc_end99:
	.cfi_endproc

	.p2align	4, 0x90
__ZN4core4char7methods15encode_utf8_raw17hdedf620ccb61f072E:
Lfunc_begin100:
	.file	33 "/rustc/2c8cc343237b8f7d5a3c3703e3a87f2eb2c54a74/library/core/src/char" "methods.rs"
	.loc	33 1729 0
	.cfi_startproc
	pushq	%rbp
	.cfi_def_cfa_offset 16
	.cfi_offset %rbp, -16
	movq	%rsp, %rbp
	.cfi_def_cfa_register %rbp
	subq	$560, %rsp
	movq	%rsi, -544(%rbp)
	movq	%rdx, -536(%rbp)
	movl	%edi, -516(%rbp)
	movq	%rsi, -304(%rbp)
	movq	%rdx, -296(%rbp)
Ltmp631:
	.loc	33 1730 24 prologue_end
	movl	-516(%rbp), %edi
	.loc	33 1730 15 is_stmt 0
	callq	__ZN4core4char7methods8len_utf817h9e51300ced654953E
	movq	-544(%rbp), %rsi
	movq	-536(%rbp), %rdx
	movq	%rax, -512(%rbp)
Ltmp632:
	.loc	33 1731 12 is_stmt 1
	movq	-512(%rbp), %rax
	.loc	33 1731 22 is_stmt 0
	movq	%rsi, -272(%rbp)
	movq	%rdx, -264(%rbp)
Ltmp633:
	.loc	1 30 25 is_stmt 1
	movq	%rsi, -256(%rbp)
	movq	%rdx, -248(%rbp)
Ltmp634:
	.loc	33 1731 11
	movq	%rax, -504(%rbp)
	movq	%rsi, -496(%rbp)
	movq	%rdx, -488(%rbp)
	.loc	33 1731 5 is_stmt 0
	movq	-504(%rbp), %rax
	decq	%rax
	movq	%rax, -528(%rbp)
	subq	$3, %rax
	ja	LBB100_1
	.loc	33 0 5
	movq	-528(%rbp), %rax
	leaq	LJTI100_0(%rip), %rcx
	movslq	(%rcx,%rax,4), %rax
	addq	%rcx, %rax
	jmpq	*%rax
LBB100_1:
	movq	-536(%rbp), %rcx
	leaq	-512(%rbp), %rsi
	.loc	33 1750 14 is_stmt 1
	movq	%rsi, -120(%rbp)
Ltmp635:
	.loc	27 328 23
	movq	%rsi, -112(%rbp)
	.loc	27 328 26 is_stmt 0
	movq	__ZN4core3fmt3num3imp54_$LT$impl$u20$core..fmt..Display$u20$for$u20$usize$GT$3fmt17ha5c925fcd7ed33faE@GOTPCREL(%rip), %rax
	movq	%rax, -104(%rbp)
Ltmp636:
	.loc	27 347 42 is_stmt 1
	movq	%rax, -96(%rbp)
	movq	-96(%rbp), %rdx
	.loc	27 347 68 is_stmt 0
	movq	%rsi, -88(%rbp)
	movq	-88(%rbp), %rsi
	.loc	27 347 18
	movq	%rsi, -384(%rbp)
	movq	%rdx, -376(%rbp)
	leaq	-516(%rbp), %rsi
Ltmp637:
	.loc	33 1750 14 is_stmt 1
	movq	%rsi, -80(%rbp)
Ltmp638:
	.loc	27 328 23
	movq	%rsi, -72(%rbp)
	.loc	27 328 26 is_stmt 0
	movq	__ZN4core3fmt3num53_$LT$impl$u20$core..fmt..UpperHex$u20$for$u20$u32$GT$3fmt17ha96bbefe8f663d11E@GOTPCREL(%rip), %rdx
	movq	%rdx, -64(%rbp)
Ltmp639:
	.loc	27 347 42 is_stmt 1
	movq	%rdx, -56(%rbp)
	movq	-56(%rbp), %rdx
	.loc	27 347 68 is_stmt 0
	movq	%rsi, -48(%rbp)
	movq	-48(%rbp), %rsi
	.loc	27 347 18
	movq	%rsi, -368(%rbp)
	movq	%rdx, -360(%rbp)
Ltmp640:
	.loc	33 1754 13 is_stmt 1
	movq	%rcx, -336(%rbp)
	leaq	-336(%rbp), %rcx
	.loc	33 1750 14
	movq	%rcx, -40(%rbp)
Ltmp641:
	.loc	27 328 23
	movq	%rcx, -32(%rbp)
	.loc	27 328 26 is_stmt 0
	movq	%rax, -24(%rbp)
Ltmp642:
	.loc	27 347 42 is_stmt 1
	movq	%rax, -16(%rbp)
	movq	-16(%rbp), %rax
	.loc	27 347 68 is_stmt 0
	movq	%rcx, -8(%rbp)
	movq	-8(%rbp), %rcx
	.loc	27 347 18
	movq	%rcx, -352(%rbp)
	movq	%rax, -344(%rbp)
Ltmp643:
	.loc	33 1750 14 is_stmt 1
	movq	-384(%rbp), %rcx
	movq	-376(%rbp), %rax
	movq	%rcx, -432(%rbp)
	movq	%rax, -424(%rbp)
	movq	-368(%rbp), %rcx
	movq	-360(%rbp), %rax
	movq	%rcx, -416(%rbp)
	movq	%rax, -408(%rbp)
	movq	-352(%rbp), %rcx
	movq	-344(%rbp), %rax
	movq	%rcx, -400(%rbp)
	movq	%rax, -392(%rbp)
	leaq	l___unnamed_9(%rip), %rsi
	leaq	-480(%rbp), %rdi
	movq	%rdi, -552(%rbp)
	leaq	-432(%rbp), %rcx
	movl	$3, %r8d
	movq	%r8, %rdx
	callq	__ZN4core3fmt9Arguments6new_v117h17a77d505d14ebbcE
	movq	-552(%rbp), %rdi
	leaq	l___unnamed_10(%rip), %rsi
	callq	__ZN4core9panicking9panic_fmt17h9b5d807e24bcaaedE
LBB100_2:
	.loc	33 1732 13
	cmpq	$1, -488(%rbp)
	jae	LBB100_10
	jmp	LBB100_1
LBB100_3:
	.loc	33 1735 13
	cmpq	$2, -488(%rbp)
	jae	LBB100_9
	jmp	LBB100_1
LBB100_4:
	.loc	33 1739 13
	cmpq	$3, -488(%rbp)
	jae	LBB100_8
	jmp	LBB100_1
LBB100_5:
	.loc	33 1744 13
	cmpq	$4, -488(%rbp)
	jb	LBB100_1
	.loc	33 1744 14 is_stmt 0
	movq	-496(%rbp), %rsi
	movq	%rsi, -240(%rbp)
	.loc	33 1744 17
	movq	-496(%rbp), %rdx
	movq	%rdx, %rax
	addq	$1, %rax
	movq	%rax, -232(%rbp)
	.loc	33 1744 20
	movq	-496(%rbp), %rcx
	movq	%rcx, %rax
	addq	$2, %rax
	movq	%rax, -224(%rbp)
	.loc	33 1744 23
	movq	-496(%rbp), %rax
	movq	%rax, %rdi
	addq	$3, %rdi
	movq	%rdi, -216(%rbp)
Ltmp644:
	.loc	33 1745 19 is_stmt 1
	movl	-516(%rbp), %edi
	shrl	$18, %edi
	.loc	33 1745 18 is_stmt 0
	andl	$7, %edi
	.loc	33 1745 13
	orb	$-16, %dil
	movb	%dil, (%rsi)
	.loc	33 1746 19 is_stmt 1
	movl	-516(%rbp), %esi
	shrl	$12, %esi
	.loc	33 1746 18 is_stmt 0
	andl	$63, %esi
	.loc	33 1746 13
	orb	$-128, %sil
	movb	%sil, 1(%rdx)
	.loc	33 1747 19 is_stmt 1
	movl	-516(%rbp), %edx
	shrl	$6, %edx
	.loc	33 1747 18 is_stmt 0
	andl	$63, %edx
	.loc	33 1747 13
	orb	$-128, %dl
	movb	%dl, 2(%rcx)
	.loc	33 1748 19 is_stmt 1
	movl	-516(%rbp), %ecx
	.loc	33 1748 18 is_stmt 0
	andl	$63, %ecx
	.loc	33 1748 13
	orb	$-128, %cl
	movb	%cl, 3(%rax)
Ltmp645:
LBB100_7:
	.loc	33 0 13
	movq	-536(%rbp), %rcx
	movq	-544(%rbp), %rdx
	.loc	33 1757 10 is_stmt 1
	movq	%rdx, -160(%rbp)
	movq	%rcx, -152(%rbp)
	.loc	33 1757 16 is_stmt 0
	movq	-512(%rbp), %rax
	.loc	33 1757 14
	movq	%rax, -328(%rbp)
Ltmp646:
	.loc	1 30 9 is_stmt 1
	movq	-328(%rbp), %rax
	movq	%rax, -144(%rbp)
	.loc	1 30 25 is_stmt 0
	movq	%rdx, -136(%rbp)
	movq	%rcx, -128(%rbp)
Ltmp647:
	.loc	1 461 9 is_stmt 1
	movq	$0, -320(%rbp)
	movq	%rax, -312(%rbp)
	movq	-320(%rbp), %rdi
	movq	-312(%rbp), %rsi
	leaq	l___unnamed_11(%rip), %r8
	callq	__ZN106_$LT$core..ops..range..Range$LT$usize$GT$$u20$as$u20$core..slice..index..SliceIndex$LT$$u5b$T$u5d$$GT$$GT$9index_mut17hd40ece8fd6bddce1E
Ltmp648:
	.loc	33 1758 2
	addq	$560, %rsp
	popq	%rbp
	retq
LBB100_8:
Ltmp649:
	.loc	33 1739 14
	movq	-496(%rbp), %rdx
	movq	%rdx, -208(%rbp)
	.loc	33 1739 17 is_stmt 0
	movq	-496(%rbp), %rcx
	movq	%rcx, %rax
	addq	$1, %rax
	movq	%rax, -200(%rbp)
	.loc	33 1739 20
	movq	-496(%rbp), %rax
	movq	%rax, %rsi
	addq	$2, %rsi
	movq	%rsi, -192(%rbp)
Ltmp650:
	.loc	33 1740 19 is_stmt 1
	movl	-516(%rbp), %esi
	shrl	$12, %esi
	.loc	33 1740 18 is_stmt 0
	andl	$15, %esi
	.loc	33 1740 13
	orb	$-32, %sil
	movb	%sil, (%rdx)
	.loc	33 1741 19 is_stmt 1
	movl	-516(%rbp), %edx
	shrl	$6, %edx
	.loc	33 1741 18 is_stmt 0
	andl	$63, %edx
	.loc	33 1741 13
	orb	$-128, %dl
	movb	%dl, 1(%rcx)
	.loc	33 1742 19 is_stmt 1
	movl	-516(%rbp), %ecx
	.loc	33 1742 18 is_stmt 0
	andl	$63, %ecx
	.loc	33 1742 13
	orb	$-128, %cl
	movb	%cl, 2(%rax)
Ltmp651:
	.loc	33 1743 9 is_stmt 1
	jmp	LBB100_7
LBB100_9:
	.loc	33 1735 14
	movq	-496(%rbp), %rcx
	movq	%rcx, -184(%rbp)
	.loc	33 1735 17 is_stmt 0
	movq	-496(%rbp), %rax
	movq	%rax, %rdx
	addq	$1, %rdx
	movq	%rdx, -176(%rbp)
Ltmp652:
	.loc	33 1736 19 is_stmt 1
	movl	-516(%rbp), %edx
	shrl	$6, %edx
	.loc	33 1736 18 is_stmt 0
	andl	$31, %edx
	.loc	33 1736 13
	orb	$-64, %dl
	movb	%dl, (%rcx)
	.loc	33 1737 19 is_stmt 1
	movl	-516(%rbp), %ecx
	.loc	33 1737 18 is_stmt 0
	andl	$63, %ecx
	.loc	33 1737 13
	orb	$-128, %cl
	movb	%cl, 1(%rax)
Ltmp653:
	.loc	33 1738 9 is_stmt 1
	jmp	LBB100_7
LBB100_10:
	.loc	33 1732 14
	movq	-496(%rbp), %rax
	movq	%rax, -168(%rbp)
Ltmp654:
	.loc	33 1733 18
	movl	-516(%rbp), %ecx
	.loc	33 1733 13 is_stmt 0
	movb	%cl, (%rax)
Ltmp655:
	.loc	33 1734 9 is_stmt 1
	jmp	LBB100_7
Ltmp656:
Lfunc_end100:
	.cfi_endproc
	.p2align	2, 0x90
	.data_region jt32
.set L100_0_set_2, LBB100_2-LJTI100_0
.set L100_0_set_3, LBB100_3-LJTI100_0
.set L100_0_set_4, LBB100_4-LJTI100_0
.set L100_0_set_5, LBB100_5-LJTI100_0
LJTI100_0:
	.long	L100_0_set_2
	.long	L100_0_set_3
	.long	L100_0_set_4
	.long	L100_0_set_5
	.end_data_region

	.p2align	4, 0x90
__ZN4core4char7methods8len_utf817h9e51300ced654953E:
Lfunc_begin101:
	.loc	33 1701 0
	.cfi_startproc
	pushq	%rbp
	.cfi_def_cfa_offset 16
	.cfi_offset %rbp, -16
	movq	%rsp, %rbp
	.cfi_def_cfa_register %rbp
	subq	$24, %rsp
	movl	%edi, -20(%rbp)
	movl	%edi, -4(%rbp)
Ltmp657:
	.loc	33 1702 8 prologue_end
	cmpl	$128, %edi
	jb	LBB101_2
	.loc	33 0 8 is_stmt 0
	movl	-20(%rbp), %eax
	.loc	33 1704 15 is_stmt 1
	cmpl	$2048, %eax
	jb	LBB101_5
	jmp	LBB101_4
LBB101_2:
	.loc	33 1703 9
	movq	$1, -16(%rbp)
LBB101_3:
	.loc	33 1711 2
	movq	-16(%rbp), %rax
	addq	$24, %rsp
	popq	%rbp
	retq
LBB101_4:
	.loc	33 0 2 is_stmt 0
	movl	-20(%rbp), %eax
	.loc	33 1706 15 is_stmt 1
	cmpl	$65536, %eax
	jb	LBB101_8
	jmp	LBB101_7
LBB101_5:
	.loc	33 1705 9
	movq	$2, -16(%rbp)
LBB101_6:
	.loc	33 1702 5
	jmp	LBB101_3
LBB101_7:
	.loc	33 1709 9
	movq	$4, -16(%rbp)
	.loc	33 1706 12
	jmp	LBB101_9
LBB101_8:
	.loc	33 1707 9
	movq	$3, -16(%rbp)
LBB101_9:
	.loc	33 1704 12
	jmp	LBB101_6
Ltmp658:
Lfunc_end101:
	.cfi_endproc

	.p2align	4, 0x90
__ZN4core4hint21unreachable_unchecked17h0252838ac8e689dbE:
Lfunc_begin102:
	.loc	13 100 0
	.cfi_startproc
	pushq	%rbp
	.cfi_def_cfa_offset 16
	.cfi_offset %rbp, -16
	movq	%rsp, %rbp
	.cfi_def_cfa_register %rbp
Ltmp659:
	.loc	13 104 9 prologue_end
	ud2
Ltmp660:
Lfunc_end102:
	.cfi_endproc

	.p2align	4, 0x90
__ZN4core4iter6traits8iterator8Iterator10advance_by17h8ddcbee62b3d1142E:
Lfunc_begin103:
	.file	34 "/rustc/2c8cc343237b8f7d5a3c3703e3a87f2eb2c54a74/library/core/src/iter/traits" "iterator.rs"
	.loc	34 334 0
	.cfi_startproc
	pushq	%rbp
	.cfi_def_cfa_offset 16
	.cfi_offset %rbp, -16
	movq	%rsp, %rbp
	.cfi_def_cfa_register %rbp
	subq	$192, %rsp
	movq	%rdi, -184(%rbp)
	movq	%rdi, -72(%rbp)
	movq	%rsi, -64(%rbp)
Ltmp661:
	.loc	34 335 18 prologue_end
	movq	$0, -160(%rbp)
	movq	%rsi, -152(%rbp)
Ltmp662:
	.file	35 "/rustc/2c8cc343237b8f7d5a3c3703e3a87f2eb2c54a74/library/core/src/iter/traits" "collect.rs"
	.loc	35 273 9
	movq	-160(%rbp), %rcx
	movq	-152(%rbp), %rax
Ltmp663:
	.loc	34 335 18
	movq	%rcx, -144(%rbp)
	movq	%rax, -136(%rbp)
LBB103_1:
	.loc	34 0 18 is_stmt 0
	leaq	-144(%rbp), %rdi
Ltmp664:
	.loc	34 335 18
	movq	%rdi, -56(%rbp)
Ltmp665:
	.loc	24 711 9 is_stmt 1
	callq	__ZN89_$LT$core..ops..range..Range$LT$T$GT$$u20$as$u20$core..iter..range..RangeIteratorImpl$GT$9spec_next17h3f0ab8667aa5ec28E
	movq	%rdx, -120(%rbp)
	movq	%rax, -128(%rbp)
Ltmp666:
	.loc	34 335 18
	cmpq	$0, -128(%rbp)
	jne	LBB103_3
Ltmp667:
	.loc	34 338 9
	movq	$0, -176(%rbp)
	.loc	34 339 6
	jmp	LBB103_6
LBB103_3:
	.loc	34 0 6 is_stmt 0
	movq	-184(%rbp), %rdi
Ltmp668:
	.loc	34 335 13 is_stmt 1
	movq	-120(%rbp), %rax
	movq	%rax, -192(%rbp)
	movq	%rax, -48(%rbp)
Ltmp669:
	.loc	34 336 13
	callq	__ZN90_$LT$core..str..iter..Split$LT$P$GT$$u20$as$u20$core..iter..traits..iterator..Iterator$GT$4next17hf039bc794e3b604dE
	movq	-192(%rbp), %rcx
	movq	%rax, %rsi
	leaq	-96(%rbp), %rdi
	callq	__ZN4core6option15Option$LT$T$GT$5ok_or17h9edc2a1923959e48E
	leaq	-112(%rbp), %rdi
	leaq	-96(%rbp), %rsi
	callq	__ZN79_$LT$core..result..Result$LT$T$C$E$GT$$u20$as$u20$core..ops..try_trait..Try$GT$6branch17h8a80f59d848bbd3eE
	movq	-112(%rbp), %rdx
	xorl	%eax, %eax
	movl	$1, %ecx
	cmpq	$0, %rdx
	cmoveq	%rcx, %rax
	cmpq	$0, %rax
	jne	LBB103_5
	movq	-112(%rbp), %rcx
	movq	-104(%rbp), %rax
	movq	%rcx, -16(%rbp)
	movq	%rax, -8(%rbp)
Ltmp670:
	.loc	34 335 9
	jmp	LBB103_1
LBB103_5:
Ltmp671:
	.loc	34 336 33
	movq	-104(%rbp), %rax
	movq	%rax, -40(%rbp)
Ltmp672:
	.loc	34 336 33 is_stmt 0
	movq	%rax, -80(%rbp)
Ltmp673:
	.file	36 "/rustc/2c8cc343237b8f7d5a3c3703e3a87f2eb2c54a74/library/core/src" "result.rs"
	.loc	36 2107 17 is_stmt 1
	movq	-80(%rbp), %rax
	movq	%rax, -32(%rbp)
Ltmp674:
	.loc	36 2107 38 is_stmt 0
	movq	%rax, -24(%rbp)
	.loc	36 2107 23
	movq	%rax, -168(%rbp)
	movq	$1, -176(%rbp)
Ltmp675:
LBB103_6:
	.loc	34 339 6 is_stmt 1
	movq	-176(%rbp), %rax
	movq	-168(%rbp), %rdx
	addq	$192, %rsp
	popq	%rbp
	retq
Ltmp676:
Lfunc_end103:
	.cfi_endproc

	.p2align	4, 0x90
__ZN4core4iter6traits8iterator8Iterator3nth17h435e2298b43abd9bE:
Lfunc_begin104:
	.loc	34 382 0
	.cfi_startproc
	pushq	%rbp
	.cfi_def_cfa_offset 16
	.cfi_offset %rbp, -16
	movq	%rsp, %rbp
	.cfi_def_cfa_register %rbp
	subq	$112, %rsp
	movq	%rdi, -104(%rbp)
	movq	%rdi, -56(%rbp)
	movq	%rsi, -48(%rbp)
Ltmp677:
	.loc	34 383 9 prologue_end
	callq	__ZN4core4iter6traits8iterator8Iterator10advance_by17h8ddcbee62b3d1142E
	movq	%rdx, -64(%rbp)
	movq	%rax, -72(%rbp)
Ltmp678:
	.loc	36 646 9
	cmpq	$0, -72(%rbp)
	jne	LBB104_2
Ltmp679:
	.loc	36 647 22
	movb	$1, -73(%rbp)
Ltmp680:
	.loc	36 647 28 is_stmt 0
	jmp	LBB104_3
LBB104_2:
Ltmp681:
	.loc	36 650 23 is_stmt 1
	movb	$0, -73(%rbp)
Ltmp682:
LBB104_3:
	.loc	8 2407 15
	movb	-73(%rbp), %al
	andb	$1, %al
	movzbl	%al, %eax
	.loc	8 2407 9 is_stmt 0
	cmpq	$0, %rax
	jne	LBB104_5
	.loc	8 2409 21 is_stmt 1
	movb	$1, -74(%rbp)
	.loc	8 2409 44 is_stmt 0
	jmp	LBB104_6
LBB104_5:
Ltmp683:
	.loc	8 2408 24 is_stmt 1
	movb	$0, -74(%rbp)
Ltmp684:
LBB104_6:
	.loc	34 383 9
	movb	-74(%rbp), %al
	andb	$1, %al
	movzbl	%al, %eax
	cmpq	$0, %rax
	jne	LBB104_8
	.loc	34 0 9 is_stmt 0
	movq	-104(%rbp), %rdi
	.loc	34 384 9 is_stmt 1
	callq	__ZN90_$LT$core..str..iter..Split$LT$P$GT$$u20$as$u20$core..iter..traits..iterator..Iterator$GT$4next17hf039bc794e3b604dE
	movq	%rdx, -88(%rbp)
	movq	%rax, -96(%rbp)
	.loc	34 385 6
	jmp	LBB104_9
LBB104_8:
Ltmp685:
	.loc	8 2420 21
	movq	$0, -96(%rbp)
Ltmp686:
LBB104_9:
	.loc	34 385 6
	movq	-96(%rbp), %rax
	movq	-88(%rbp), %rdx
	addq	$112, %rsp
	popq	%rbp
	retq
Ltmp687:
Lfunc_end104:
	.cfi_endproc

	.p2align	4, 0x90
__ZN4core5alloc6layout10size_align17h33f4059a4de473ffE:
Lfunc_begin105:
	.file	37 "/rustc/2c8cc343237b8f7d5a3c3703e3a87f2eb2c54a74/library/core/src/alloc" "layout.rs"
	.loc	37 19 0
	.cfi_startproc
	pushq	%rbp
	.cfi_def_cfa_offset 16
	.cfi_offset %rbp, -16
	movq	%rsp, %rbp
	.cfi_def_cfa_register %rbp
	subq	$16, %rsp
Ltmp688:
	.loc	37 20 5 prologue_end
	movq	$640, -16(%rbp)
	movq	$8, -8(%rbp)
	.loc	37 21 2
	movq	-16(%rbp), %rax
	movq	-8(%rbp), %rdx
	addq	$16, %rsp
	popq	%rbp
	retq
Ltmp689:
Lfunc_end105:
	.cfi_endproc

	.p2align	4, 0x90
__ZN4core5alloc6layout10size_align17h8f920fa48ceb7371E:
Lfunc_begin106:
	.loc	37 19 0
	.cfi_startproc
	pushq	%rbp
	.cfi_def_cfa_offset 16
	.cfi_offset %rbp, -16
	movq	%rsp, %rbp
	.cfi_def_cfa_register %rbp
	subq	$16, %rsp
Ltmp690:
	.loc	37 20 5 prologue_end
	movq	$544, -16(%rbp)
	movq	$8, -8(%rbp)
	.loc	37 21 2
	movq	-16(%rbp), %rax
	movq	-8(%rbp), %rdx
	addq	$16, %rsp
	popq	%rbp
	retq
Ltmp691:
Lfunc_end106:
	.cfi_endproc

	.p2align	4, 0x90
__ZN4core5alloc6layout6Layout5array5inner17h66720c5d0afc761fE:
Lfunc_begin107:
	.loc	37 441 0
	.cfi_startproc
	pushq	%rbp
	.cfi_def_cfa_offset 16
	.cfi_offset %rbp, -16
	movq	%rsp, %rbp
	.cfi_def_cfa_register %rbp
	subq	$176, %rsp
	movq	%rdi, -168(%rbp)
	movq	%rsi, -160(%rbp)
	movq	%rdx, -152(%rbp)
	movq	%rdi, -88(%rbp)
	movq	%rsi, -80(%rbp)
	movq	%rdx, -72(%rbp)
Ltmp692:
	.loc	37 452 16 prologue_end
	cmpq	$0, %rdi
	jne	LBB107_2
	movb	$0, -121(%rbp)
	jmp	LBB107_5
LBB107_2:
	.loc	37 0 16 is_stmt 0
	movq	-168(%rbp), %rax
	movq	-160(%rbp), %rcx
	.loc	37 452 68
	movq	%rcx, -64(%rbp)
Ltmp693:
	.loc	37 93 32 is_stmt 1
	movq	%rcx, -56(%rbp)
Ltmp694:
	.file	38 "/rustc/2c8cc343237b8f7d5a3c3703e3a87f2eb2c54a74/library/core/src/ptr" "alignment.rs"
	.loc	38 97 9
	movq	%rcx, -104(%rbp)
	movq	-104(%rbp), %rdx
Ltmp695:
	.loc	37 93 31
	subq	$1, %rdx
	.loc	37 93 9 is_stmt 0
	movabsq	$9223372036854775807, %rcx
	subq	%rdx, %rcx
	movq	%rcx, -176(%rbp)
Ltmp696:
	.loc	37 452 41 is_stmt 1
	cmpq	$0, %rax
	sete	%al
	testb	$1, %al
	jne	LBB107_4
	.loc	37 0 41 is_stmt 0
	movq	-168(%rbp), %rcx
	movq	-176(%rbp), %rax
	.loc	37 452 41
	xorl	%edx, %edx
	divq	%rcx
	movq	%rax, %rcx
	movq	-152(%rbp), %rax
	.loc	37 452 37
	cmpq	%rcx, %rax
	seta	%al
	.loc	37 452 16
	andb	$1, %al
	movb	%al, -121(%rbp)
	jmp	LBB107_5
LBB107_4:
	.loc	37 452 41
	leaq	_str.0(%rip), %rdi
	leaq	l___unnamed_12(%rip), %rdx
	movl	$25, %esi
	callq	__ZN4core9panicking5panic17hc1bc45270cf64b03E
LBB107_5:
	.loc	37 452 16
	testb	$1, -121(%rbp)
	jne	LBB107_7
	.loc	37 0 16
	movq	-160(%rbp), %rax
	movq	-152(%rbp), %rdx
	movq	-168(%rbp), %rcx
	.loc	37 456 30 is_stmt 1
	imulq	%rdx, %rcx
	movq	%rcx, -48(%rbp)
Ltmp697:
	.loc	37 461 59
	movq	%rcx, -40(%rbp)
	.loc	37 461 71 is_stmt 0
	movq	%rax, -32(%rbp)
Ltmp698:
	.loc	38 97 9 is_stmt 1
	movq	%rax, -96(%rbp)
	movq	-96(%rbp), %rax
	movq	%rax, -24(%rbp)
Ltmp699:
	.loc	37 120 65
	movq	%rax, -16(%rbp)
Ltmp700:
	.loc	38 89 18
	movq	%rax, -8(%rbp)
	movq	-8(%rbp), %rax
Ltmp701:
	.loc	37 120 18
	movq	%rcx, -120(%rbp)
	movq	%rax, -112(%rbp)
Ltmp702:
	.loc	37 461 22
	movq	-120(%rbp), %rcx
	movq	-112(%rbp), %rax
	movq	%rcx, -144(%rbp)
	movq	%rax, -136(%rbp)
Ltmp703:
	.loc	37 462 10
	jmp	LBB107_8
LBB107_7:
	.loc	37 453 24
	movq	$0, -136(%rbp)
LBB107_8:
	.loc	37 462 10
	movq	-144(%rbp), %rax
	movq	-136(%rbp), %rdx
	addq	$176, %rsp
	popq	%rbp
	retq
Ltmp704:
Lfunc_end107:
	.cfi_endproc

	.p2align	4, 0x90
__ZN4core5slice29_$LT$impl$u20$$u5b$T$u5d$$GT$11starts_with17h5e9c557dc325e7c6E:
Lfunc_begin108:
	.file	39 "/rustc/2c8cc343237b8f7d5a3c3703e3a87f2eb2c54a74/library/core/src/slice" "mod.rs"
	.loc	39 2257 0
	.cfi_startproc
	pushq	%rbp
	.cfi_def_cfa_offset 16
	.cfi_offset %rbp, -16
	movq	%rsp, %rbp
	.cfi_def_cfa_register %rbp
	subq	$176, %rsp
	movq	%rdi, -168(%rbp)
	movq	%rsi, -160(%rbp)
	movq	%rdx, -144(%rbp)
	movq	%rcx, -136(%rbp)
	movq	%rdi, -80(%rbp)
	movq	%rsi, -72(%rbp)
Ltmp705:
	.loc	39 2261 17 prologue_end
	movq	-136(%rbp), %rax
	movq	%rax, -152(%rbp)
	movq	%rax, -64(%rbp)
Ltmp706:
	.loc	39 2262 9
	cmpq	%rax, %rsi
	jae	LBB108_2
	movb	$0, -121(%rbp)
	jmp	LBB108_3
LBB108_2:
	.loc	39 0 9 is_stmt 0
	movq	-160(%rbp), %rcx
	movq	-168(%rbp), %rdx
	movq	-152(%rbp), %rax
	.loc	39 2262 28
	leaq	-144(%rbp), %rsi
	movq	%rsi, -56(%rbp)
	.loc	39 2262 39
	movq	%rdx, -48(%rbp)
	movq	%rcx, -40(%rbp)
	.loc	39 2262 44
	movq	%rax, -104(%rbp)
Ltmp707:
	.loc	1 18 9 is_stmt 1
	movq	-104(%rbp), %rax
	movq	%rax, -32(%rbp)
	.loc	1 18 21 is_stmt 0
	movq	%rdx, -24(%rbp)
	movq	%rcx, -16(%rbp)
Ltmp708:
	.loc	1 456 9 is_stmt 1
	movq	$0, -96(%rbp)
	movq	%rax, -88(%rbp)
	movq	-96(%rbp), %rdi
	movq	-88(%rbp), %rsi
	leaq	l___unnamed_13(%rip), %r8
	callq	__ZN106_$LT$core..ops..range..Range$LT$usize$GT$$u20$as$u20$core..slice..index..SliceIndex$LT$$u5b$T$u5d$$GT$$GT$5index17h6031c9c375312b25E
Ltmp709:
	.loc	39 2262 38
	movq	%rax, -120(%rbp)
	movq	%rdx, -112(%rbp)
	leaq	-120(%rbp), %rax
	movq	%rax, -8(%rbp)
Ltmp710:
	.loc	26 1531 27
	movq	-144(%rbp), %rdi
	movq	-136(%rbp), %rsi
	.loc	26 1531 34 is_stmt 0
	movq	-120(%rbp), %rdx
	movq	-112(%rbp), %rcx
	.loc	26 1531 13
	callq	__ZN4core5slice3cmp81_$LT$impl$u20$core..cmp..PartialEq$LT$$u5b$B$u5d$$GT$$u20$for$u20$$u5b$A$u5d$$GT$2eq17h3f1a111717d5e9a1E
Ltmp711:
	.loc	39 2262 9 is_stmt 1
	andb	$1, %al
	movb	%al, -121(%rbp)
Ltmp712:
LBB108_3:
	.loc	39 2263 6
	movb	-121(%rbp), %al
	andb	$1, %al
	movzbl	%al, %eax
	addq	$176, %rsp
	popq	%rbp
	retq
Ltmp713:
Lfunc_end108:
	.cfi_endproc

	.p2align	4, 0x90
__ZN4core5slice3cmp81_$LT$impl$u20$core..cmp..PartialEq$LT$$u5b$B$u5d$$GT$$u20$for$u20$$u5b$A$u5d$$GT$2eq17h3f1a111717d5e9a1E:
Lfunc_begin109:
	.file	40 "/rustc/2c8cc343237b8f7d5a3c3703e3a87f2eb2c54a74/library/core/src/slice" "cmp.rs"
	.loc	40 25 0
	.cfi_startproc
	pushq	%rbp
	.cfi_def_cfa_offset 16
	.cfi_offset %rbp, -16
	movq	%rsp, %rbp
	.cfi_def_cfa_register %rbp
	subq	$32, %rsp
	movq	%rdi, -32(%rbp)
	movq	%rsi, -24(%rbp)
	movq	%rdx, -16(%rbp)
	movq	%rcx, -8(%rbp)
Ltmp714:
	.loc	40 26 9 prologue_end
	callq	__ZN73_$LT$$u5b$A$u5d$$u20$as$u20$core..slice..cmp..SlicePartialEq$LT$B$GT$$GT$5equal17hde74d2c75186ee32E
	.loc	40 27 6
	andb	$1, %al
	movzbl	%al, %eax
	addq	$32, %rsp
	popq	%rbp
	retq
Ltmp715:
Lfunc_end109:
	.cfi_endproc

	.p2align	4, 0x90
__ZN4core5slice6memchr12memchr_naive17h4b523f8a021ebff4E:
Lfunc_begin110:
	.file	41 "/rustc/2c8cc343237b8f7d5a3c3703e3a87f2eb2c54a74/library/core/src/slice" "memchr.rs"
	.loc	41 48 0
	.cfi_startproc
	pushq	%rbp
	.cfi_def_cfa_offset 16
	.cfi_offset %rbp, -16
	movq	%rsp, %rbp
	.cfi_def_cfa_register %rbp
	subq	$80, %rsp
	movq	%rdx, -72(%rbp)
	movq	%rsi, -64(%rbp)
	movb	%dil, %al
	movb	%al, -49(%rbp)
	movb	%al, -17(%rbp)
	movq	%rsi, -16(%rbp)
	movq	%rdx, -8(%rbp)
Ltmp716:
	.loc	41 49 17 prologue_end
	movq	$0, -32(%rbp)
LBB110_1:
	.loc	41 0 17 is_stmt 0
	movq	-72(%rbp), %rax
Ltmp717:
	.loc	41 52 11 is_stmt 1
	cmpq	%rax, -32(%rbp)
	jb	LBB110_3
	.loc	41 60 5
	movq	$0, -48(%rbp)
Ltmp718:
	.loc	41 61 2
	jmp	LBB110_8
LBB110_3:
	.loc	41 0 2 is_stmt 0
	movq	-72(%rbp), %rcx
Ltmp719:
	.loc	41 53 17 is_stmt 1
	movq	-32(%rbp), %rax
	movq	%rax, -80(%rbp)
	.loc	41 53 12 is_stmt 0
	cmpq	%rcx, %rax
	setb	%al
	testb	$1, %al
	jne	LBB110_4
	jmp	LBB110_5
LBB110_4:
	.loc	41 0 12
	movq	-64(%rbp), %rax
	movq	-80(%rbp), %rcx
	movb	-49(%rbp), %dl
	.loc	41 53 12
	cmpb	%dl, (%rax,%rcx)
	je	LBB110_7
	jmp	LBB110_6
LBB110_5:
	.loc	41 0 12
	movq	-72(%rbp), %rsi
	movq	-80(%rbp), %rdi
	.loc	41 53 12
	leaq	l___unnamed_14(%rip), %rdx
	callq	__ZN4core9panicking18panic_bounds_check17hacb8a94866cda541E
LBB110_6:
	.loc	41 57 9 is_stmt 1
	movq	-32(%rbp), %rax
	addq	$1, %rax
	movq	%rax, -32(%rbp)
	.loc	41 52 5
	jmp	LBB110_1
LBB110_7:
	.loc	41 54 25
	movq	-32(%rbp), %rax
	.loc	41 54 20 is_stmt 0
	movq	%rax, -40(%rbp)
	movq	$1, -48(%rbp)
Ltmp720:
LBB110_8:
	.loc	41 61 2 is_stmt 1
	movq	-48(%rbp), %rax
	movq	-40(%rbp), %rdx
	addq	$80, %rsp
	popq	%rbp
	retq
Ltmp721:
Lfunc_end110:
	.cfi_endproc

	.p2align	4, 0x90
__ZN4core5slice6memchr6memchr17ha1eddf7561e78d95E:
Lfunc_begin111:
	.loc	41 38 0
	.cfi_startproc
	pushq	%rbp
	.cfi_def_cfa_offset 16
	.cfi_offset %rbp, -16
	movq	%rsp, %rbp
	.cfi_def_cfa_register %rbp
	subq	$64, %rsp
	movq	%rdx, -64(%rbp)
	movq	%rsi, -56(%rbp)
	movb	%dil, %al
	movb	%al, -41(%rbp)
	movb	%al, -17(%rbp)
	movq	%rsi, -16(%rbp)
	movq	%rdx, -8(%rbp)
Ltmp722:
	.loc	41 40 8 prologue_end
	cmpq	$16, %rdx
	jb	LBB111_2
	.loc	41 0 8 is_stmt 0
	movq	-64(%rbp), %rdx
	movq	-56(%rbp), %rsi
	movb	-41(%rbp), %al
	.loc	41 44 5 is_stmt 1
	movzbl	%al, %edi
	callq	__ZN4core5slice6memchr14memchr_aligned17h35d16807f0081d88E
	movq	%rdx, -32(%rbp)
	movq	%rax, -40(%rbp)
	.loc	41 45 2
	jmp	LBB111_3
LBB111_2:
	.loc	41 0 2 is_stmt 0
	movq	-64(%rbp), %rdx
	movq	-56(%rbp), %rsi
	movb	-41(%rbp), %al
	.loc	41 41 16 is_stmt 1
	movzbl	%al, %edi
	callq	__ZN4core5slice6memchr12memchr_naive17h4b523f8a021ebff4E
	movq	%rdx, -32(%rbp)
	movq	%rax, -40(%rbp)
LBB111_3:
	.loc	41 45 2
	movq	-40(%rbp), %rax
	movq	-32(%rbp), %rdx
	addq	$64, %rsp
	popq	%rbp
	retq
Ltmp723:
Lfunc_end111:
	.cfi_endproc

	.p2align	4, 0x90
__ZN4core6option15Option$LT$T$GT$3map17h97f0f745152bedfcE:
Lfunc_begin112:
	.loc	8 964 0
	.cfi_startproc
	pushq	%rbp
	.cfi_def_cfa_offset 16
	.cfi_offset %rbp, -16
	movq	%rsp, %rbp
	.cfi_def_cfa_register %rbp
	subq	$80, %rsp
	movq	%rdi, -72(%rbp)
	movq	%rsi, -64(%rbp)
Ltmp724:
	.loc	8 969 15 prologue_end
	movb	$1, -25(%rbp)
	movq	-72(%rbp), %rdx
	movl	$1, %eax
	xorl	%ecx, %ecx
	cmpq	$0, %rdx
	cmoveq	%rcx, %rax
	.loc	8 969 9 is_stmt 0
	cmpq	$0, %rax
	jne	LBB112_2
	.loc	8 971 21 is_stmt 1
	movb	$2, -49(%rbp)
	jmp	LBB112_3
LBB112_2:
	.loc	8 970 18
	movq	-72(%rbp), %rcx
	movq	-64(%rbp), %rax
	movq	%rcx, -16(%rbp)
	movq	%rax, -8(%rbp)
Ltmp725:
	.loc	8 970 29 is_stmt 0
	movb	$0, -25(%rbp)
	movq	%rcx, -48(%rbp)
	movq	%rax, -40(%rbp)
	movq	-48(%rbp), %rdi
	movq	-40(%rbp), %rsi
	callq	__ZN18build_script_build19rustc_minor_nightly28_$u7b$$u7b$closure$u7d$$u7d$17hfcfb2b19dd6b0cd6E
	.loc	8 970 24
	andb	$1, %al
	movb	%al, -49(%rbp)
Ltmp726:
LBB112_3:
	.loc	8 973 5 is_stmt 1
	testb	$1, -25(%rbp)
	jne	LBB112_5
LBB112_4:
	.loc	8 973 6 is_stmt 0
	movb	-49(%rbp), %al
	addq	$80, %rsp
	popq	%rbp
	retq
LBB112_5:
	.loc	8 973 5
	jmp	LBB112_4
Ltmp727:
Lfunc_end112:
	.cfi_endproc

	.p2align	4, 0x90
__ZN4core6option15Option$LT$T$GT$3map17ha0e45421262b2e27E:
Lfunc_begin113:
	.loc	8 964 0 is_stmt 1
	.cfi_startproc
	pushq	%rbp
	.cfi_def_cfa_offset 16
	.cfi_offset %rbp, -16
	movq	%rsp, %rbp
	.cfi_def_cfa_register %rbp
	subq	$112, %rsp
	movq	%rcx, -104(%rbp)
	movq	%rdx, -96(%rbp)
	movq	%rdi, -88(%rbp)
	movq	%rdi, -80(%rbp)
	movq	%rsi, -72(%rbp)
	movq	%rdx, -24(%rbp)
	movq	%rcx, -16(%rbp)
Ltmp728:
	.loc	8 969 15 prologue_end
	movb	$1, -25(%rbp)
	movq	-72(%rbp), %rdx
	movl	$1, %eax
	xorl	%ecx, %ecx
	cmpq	$0, %rdx
	cmoveq	%rcx, %rax
	.loc	8 969 9 is_stmt 0
	cmpq	$0, %rax
	jne	LBB113_2
	.loc	8 0 9
	movq	-88(%rbp), %rax
	.loc	8 971 21 is_stmt 1
	movq	$0, 8(%rax)
	jmp	LBB113_3
LBB113_2:
	.loc	8 0 21 is_stmt 0
	movq	-104(%rbp), %rdx
	movq	-96(%rbp), %rsi
	.loc	8 970 18 is_stmt 1
	movq	-72(%rbp), %rax
	movq	%rax, -8(%rbp)
Ltmp729:
	.loc	8 970 29 is_stmt 0
	movb	$0, -25(%rbp)
	movq	%rax, -40(%rbp)
	movq	-40(%rbp), %rcx
	leaq	-64(%rbp), %rdi
	callq	__ZN5alloc11collections5btree4node40NodeRef$LT$BorrowType$C$K$C$V$C$Type$GT$6ascend28_$u7b$$u7b$closure$u7d$$u7d$17h8693d551063b11c4E
	movq	-88(%rbp), %rax
	.loc	8 970 24
	movq	-64(%rbp), %rcx
	movq	%rcx, (%rax)
	movq	-56(%rbp), %rcx
	movq	%rcx, 8(%rax)
	movq	-48(%rbp), %rcx
	movq	%rcx, 16(%rax)
Ltmp730:
LBB113_3:
	.loc	8 973 5 is_stmt 1
	testb	$1, -25(%rbp)
	jne	LBB113_5
LBB113_4:
	.loc	8 0 5 is_stmt 0
	movq	-80(%rbp), %rax
	.loc	8 973 6
	addq	$112, %rsp
	popq	%rbp
	retq
LBB113_5:
	.loc	8 973 5
	jmp	LBB113_4
Ltmp731:
Lfunc_end113:
	.cfi_endproc

	.p2align	4, 0x90
__ZN4core6option15Option$LT$T$GT$5ok_or17h9edc2a1923959e48E:
Lfunc_begin114:
	.loc	8 1092 0 is_stmt 1
	.cfi_startproc
	pushq	%rbp
	.cfi_def_cfa_offset 16
	.cfi_offset %rbp, -16
	movq	%rsp, %rbp
	.cfi_def_cfa_register %rbp
	subq	$72, %rsp
	movq	%rcx, -72(%rbp)
	movq	%rdi, -64(%rbp)
	movq	%rdi, -56(%rbp)
	movq	%rsi, -48(%rbp)
	movq	%rdx, -40(%rbp)
	movq	%rcx, -24(%rbp)
Ltmp732:
	.loc	8 1096 15 prologue_end
	movb	$1, -25(%rbp)
	movq	-48(%rbp), %rdx
	movl	$1, %eax
	xorl	%ecx, %ecx
	cmpq	$0, %rdx
	cmoveq	%rcx, %rax
	.loc	8 1096 9 is_stmt 0
	cmpq	$0, %rax
	jne	LBB114_2
	.loc	8 0 9
	movq	-64(%rbp), %rax
	movq	-72(%rbp), %rcx
	.loc	8 1098 25 is_stmt 1
	movb	$0, -25(%rbp)
	.loc	8 1098 21 is_stmt 0
	movq	%rcx, 8(%rax)
	movq	$0, (%rax)
	.loc	8 1098 28
	jmp	LBB114_3
LBB114_2:
	.loc	8 0 28
	movq	-64(%rbp), %rax
	.loc	8 1097 18 is_stmt 1
	movq	-48(%rbp), %rdx
	movq	-40(%rbp), %rcx
	movq	%rdx, -16(%rbp)
	movq	%rcx, -8(%rbp)
Ltmp733:
	.loc	8 1097 24 is_stmt 0
	movq	%rdx, (%rax)
	movq	%rcx, 8(%rax)
Ltmp734:
LBB114_3:
	.loc	8 1100 5 is_stmt 1
	testb	$1, -25(%rbp)
	jne	LBB114_5
LBB114_4:
	.loc	8 0 5 is_stmt 0
	movq	-56(%rbp), %rax
	.loc	8 1100 6
	addq	$72, %rsp
	popq	%rbp
	retq
LBB114_5:
	.loc	8 1100 5
	jmp	LBB114_4
Ltmp735:
Lfunc_end114:
	.cfi_endproc

	.p2align	4, 0x90
__ZN4core6option15Option$LT$T$GT$6expect17h6d67b4067133ce74E:
Lfunc_begin115:
	.loc	8 783 0 is_stmt 1
	.cfi_startproc
	pushq	%rbp
	.cfi_def_cfa_offset 16
	.cfi_offset %rbp, -16
	movq	%rsp, %rbp
	.cfi_def_cfa_register %rbp
	subq	$64, %rsp
	movq	%r8, -56(%rbp)
	movq	%rcx, -48(%rbp)
	movq	%rdx, -40(%rbp)
	movb	%sil, %al
	movl	%edi, -32(%rbp)
	movb	%al, -28(%rbp)
	movq	%rdx, -24(%rbp)
	movq	%rcx, -16(%rbp)
Ltmp736:
	.loc	8 784 15 prologue_end
	movl	$1, %eax
	xorl	%ecx, %ecx
	cmpb	$2, -28(%rbp)
	cmoveq	%rcx, %rax
	.loc	8 784 9 is_stmt 0
	cmpq	$0, %rax
	jne	LBB115_2
	.loc	8 0 9
	movq	-56(%rbp), %rdx
	movq	-48(%rbp), %rsi
	movq	-40(%rbp), %rdi
	.loc	8 786 21 is_stmt 1
	callq	__ZN4core6option13expect_failed17h5792a81bec0ff713E
LBB115_2:
	.loc	8 785 18
	movl	-32(%rbp), %eax
	movb	-28(%rbp), %dl
	movl	%eax, -8(%rbp)
	movb	%dl, -4(%rbp)
	.loc	8 788 6
	addq	$64, %rsp
	popq	%rbp
	retq
Ltmp737:
Lfunc_end115:
	.cfi_endproc

	.p2align	4, 0x90
__ZN4core6option15Option$LT$T$GT$6unwrap17h018de7bb0212b932E:
Lfunc_begin116:
	.loc	8 820 0
	.cfi_startproc
	pushq	%rbp
	.cfi_def_cfa_offset 16
	.cfi_offset %rbp, -16
	movq	%rsp, %rbp
	.cfi_def_cfa_register %rbp
	subq	$32, %rsp
	movq	%rdx, -32(%rbp)
	movq	%rsi, -24(%rbp)
Ltmp738:
	movq	%rdi, -16(%rbp)
Ltmp739:
	movq	%rdi, -8(%rbp)
Ltmp740:
	.loc	8 821 15 prologue_end
	movq	8(%rsi), %rdx
	movl	$1, %eax
	xorl	%ecx, %ecx
	cmpq	$0, %rdx
	cmoveq	%rcx, %rax
	.loc	8 821 9 is_stmt 0
	cmpq	$0, %rax
Ltmp741:
	jne	LBB116_2
Ltmp742:
	.loc	8 0 9
	movq	-32(%rbp), %rdx
	.loc	8 823 21 is_stmt 1
	leaq	l___unnamed_15(%rip), %rdi
	movl	$43, %esi
	callq	__ZN4core9panicking5panic17hc1bc45270cf64b03E
Ltmp743:
LBB116_2:
	.loc	8 0 21 is_stmt 0
	movq	-8(%rbp), %rax
	movq	-16(%rbp), %rcx
	movq	-24(%rbp), %rdx
	.loc	8 822 18 is_stmt 1
	movq	(%rdx), %rsi
	movq	%rsi, (%rcx)
	movq	8(%rdx), %rsi
	movq	%rsi, 8(%rcx)
	movq	16(%rdx), %rdx
	movq	%rdx, 16(%rcx)
	.loc	8 825 6
	addq	$32, %rsp
	popq	%rbp
	retq
Ltmp744:
Lfunc_end116:
	.cfi_endproc

	.p2align	4, 0x90
__ZN4core6option15Option$LT$T$GT$6unwrap17hb640bf4d042ee5e2E:
Lfunc_begin117:
	.loc	8 820 0
	.cfi_startproc
	pushq	%rbp
	.cfi_def_cfa_offset 16
	.cfi_offset %rbp, -16
	movq	%rsp, %rbp
	.cfi_def_cfa_register %rbp
	subq	$32, %rsp
	movq	%rdx, -32(%rbp)
	movq	%rsi, -24(%rbp)
Ltmp745:
	movq	%rdi, -16(%rbp)
Ltmp746:
	movq	%rdi, -8(%rbp)
Ltmp747:
	.loc	8 821 15 prologue_end
	movq	8(%rsi), %rdx
	movl	$1, %eax
	xorl	%ecx, %ecx
	cmpq	$0, %rdx
	cmoveq	%rcx, %rax
	.loc	8 821 9 is_stmt 0
	cmpq	$0, %rax
Ltmp748:
	jne	LBB117_2
Ltmp749:
	.loc	8 0 9
	movq	-32(%rbp), %rdx
	.loc	8 823 21 is_stmt 1
	leaq	l___unnamed_15(%rip), %rdi
	movl	$43, %esi
	callq	__ZN4core9panicking5panic17hc1bc45270cf64b03E
Ltmp750:
LBB117_2:
	.loc	8 0 21 is_stmt 0
	movq	-24(%rbp), %rsi
	movq	-16(%rbp), %rdi
	.loc	8 822 18 is_stmt 1
	movl	$56, %edx
	callq	_memcpy
	movq	-8(%rbp), %rax
	.loc	8 825 6
	addq	$32, %rsp
	popq	%rbp
	retq
Ltmp751:
Lfunc_end117:
	.cfi_endproc

	.p2align	4, 0x90
__ZN4core6option15Option$LT$T$GT$7is_none17h77c3d2e21dba3a95E:
Lfunc_begin118:
	.loc	8 643 0
	.cfi_startproc
	pushq	%rbp
	.cfi_def_cfa_offset 16
	.cfi_offset %rbp, -16
	movq	%rsp, %rbp
	.cfi_def_cfa_register %rbp
	subq	$24, %rsp
	movq	%rdi, -16(%rbp)
Ltmp752:
	.loc	8 644 10 prologue_end
	movq	%rdi, -8(%rbp)
Ltmp753:
	.loc	8 598 18
	movq	8(%rdi), %rdx
	movl	$1, %eax
	xorl	%ecx, %ecx
	cmpq	$0, %rdx
	cmoveq	%rcx, %rax
	.file	42 "/rustc/2c8cc343237b8f7d5a3c3703e3a87f2eb2c54a74/library/core/src/macros" "mod.rs"
	.loc	42 344 9
	cmpq	$1, %rax
	jne	LBB118_2
	.loc	42 345 48
	movb	$1, -17(%rbp)
	jmp	LBB118_3
LBB118_2:
	.loc	42 346 18
	movb	$0, -17(%rbp)
Ltmp754:
LBB118_3:
	.loc	8 644 9
	movb	-17(%rbp), %al
	xorb	$-1, %al
	.loc	8 645 6
	andb	$1, %al
	movzbl	%al, %eax
	addq	$24, %rsp
	popq	%rbp
	retq
Ltmp755:
Lfunc_end118:
	.cfi_endproc

	.p2align	4, 0x90
__ZN4core6option15Option$LT$T$GT$7is_none17hece52b03651e12a5E:
Lfunc_begin119:
	.loc	8 643 0
	.cfi_startproc
	pushq	%rbp
	.cfi_def_cfa_offset 16
	.cfi_offset %rbp, -16
	movq	%rsp, %rbp
	.cfi_def_cfa_register %rbp
	subq	$24, %rsp
	movq	%rdi, -16(%rbp)
Ltmp756:
	.loc	8 644 10 prologue_end
	movq	%rdi, -8(%rbp)
Ltmp757:
	.loc	8 598 18
	movq	8(%rdi), %rdx
	movl	$1, %eax
	xorl	%ecx, %ecx
	cmpq	$0, %rdx
	cmoveq	%rcx, %rax
	.loc	42 344 9
	cmpq	$1, %rax
	jne	LBB119_2
	.loc	42 345 48
	movb	$1, -17(%rbp)
	jmp	LBB119_3
LBB119_2:
	.loc	42 346 18
	movb	$0, -17(%rbp)
Ltmp758:
LBB119_3:
	.loc	8 644 9
	movb	-17(%rbp), %al
	xorb	$-1, %al
	.loc	8 645 6
	andb	$1, %al
	movzbl	%al, %eax
	addq	$24, %rsp
	popq	%rbp
	retq
Ltmp759:
Lfunc_end119:
	.cfi_endproc

	.p2align	4, 0x90
__ZN4core6option15Option$LT$T$GT$9unwrap_or17h6feae708c5080fcfE:
Lfunc_begin120:
	.loc	8 844 0
	.cfi_startproc
	pushq	%rbp
	.cfi_def_cfa_offset 16
	.cfi_offset %rbp, -16
	movq	%rsp, %rbp
	.cfi_def_cfa_register %rbp
	subq	$6, %rsp
	movb	%sil, %al
	movb	%al, -6(%rbp)
	movb	%dil, %cl
	movb	%cl, -5(%rbp)
	andb	$1, %al
	movb	%al, -2(%rbp)
Ltmp760:
	.loc	8 848 15 prologue_end
	movb	$1, -3(%rbp)
	movl	$1, %eax
	xorl	%ecx, %ecx
	cmpb	$2, -5(%rbp)
	cmoveq	%rcx, %rax
	.loc	8 848 9 is_stmt 0
	cmpq	$0, %rax
	jne	LBB120_2
	.loc	8 0 9
	movb	-6(%rbp), %al
	.loc	8 850 21 is_stmt 1
	movb	$0, -3(%rbp)
	andb	$1, %al
	movb	%al, -4(%rbp)
	jmp	LBB120_3
LBB120_2:
	.loc	8 849 18
	movb	-5(%rbp), %al
	movb	%al, %cl
	andb	$1, %cl
	movb	%cl, -1(%rbp)
Ltmp761:
	.loc	8 849 24 is_stmt 0
	andb	$1, %al
	movb	%al, -4(%rbp)
Ltmp762:
LBB120_3:
	.loc	8 852 5 is_stmt 1
	testb	$1, -3(%rbp)
	jne	LBB120_5
LBB120_4:
	.loc	8 852 6 is_stmt 0
	movb	-4(%rbp), %al
	andb	$1, %al
	movzbl	%al, %eax
	addq	$6, %rsp
	popq	%rbp
	retq
LBB120_5:
	.loc	8 852 5
	jmp	LBB120_4
Ltmp763:
Lfunc_end120:
	.cfi_endproc

	.p2align	4, 0x90
__ZN4core6result19Result$LT$T$C$E$GT$16unwrap_unchecked17h16aaa4acfd4ef341E:
Lfunc_begin121:
	.loc	36 1530 0 is_stmt 1
	.cfi_startproc
	.cfi_personality 155, _rust_eh_personality
	.cfi_lsda 16, Lexception23
	pushq	%rbp
	.cfi_def_cfa_offset 16
	.cfi_offset %rbp, -16
	movq	%rsp, %rbp
	.cfi_def_cfa_register %rbp
	subq	$64, %rsp
	movq	%rdi, -48(%rbp)
	movq	%rsi, -40(%rbp)
Ltmp767:
	.loc	36 1532 15 prologue_end
	xorl	%eax, %eax
	movl	$1, %ecx
	cmpq	$0, -40(%rbp)
	cmoveq	%rcx, %rax
	.loc	36 1532 9 is_stmt 0
	cmpq	$0, %rax
	jne	LBB121_2
	.loc	36 1533 16 is_stmt 1
	movq	-48(%rbp), %rcx
	movq	%rcx, -64(%rbp)
	movq	-40(%rbp), %rax
	movq	%rax, -56(%rbp)
	movq	%rcx, -16(%rbp)
	movq	%rax, -8(%rbp)
	.loc	36 1537 5
	xorl	%eax, %eax
	movl	$1, %ecx
	cmpq	$0, -40(%rbp)
	cmoveq	%rcx, %rax
	cmpq	$0, %rax
	je	LBB121_10
	jmp	LBB121_11
LBB121_2:
Ltmp764:
	.loc	36 1535 32
	callq	__ZN4core4hint21unreachable_unchecked17h0252838ac8e689dbE
Ltmp765:
	jmp	LBB121_5
LBB121_3:
	.loc	36 1537 5
	xorl	%eax, %eax
	movl	$1, %ecx
	cmpq	$0, -40(%rbp)
	cmoveq	%rcx, %rax
	cmpq	$0, %rax
	je	LBB121_6
	jmp	LBB121_7
LBB121_4:
Ltmp766:
	.loc	36 0 5 is_stmt 0
	movq	%rax, %rcx
	movl	%edx, %eax
	movq	%rcx, -32(%rbp)
	movl	%eax, -24(%rbp)
	jmp	LBB121_3
LBB121_5:
	ud2
LBB121_6:
	.loc	36 1537 5
	movb	$1, %al
	testb	$1, %al
	jne	LBB121_9
	jmp	LBB121_8
LBB121_7:
	jmp	LBB121_8
LBB121_8:
	.loc	36 1530 5 is_stmt 1
	movq	-32(%rbp), %rdi
	callq	__Unwind_Resume
LBB121_9:
	.loc	36 1537 5
	jmp	LBB121_8
LBB121_10:
	.loc	36 0 5 is_stmt 0
	movq	-56(%rbp), %rdx
	movq	-64(%rbp), %rax
	.loc	36 1537 6
	addq	$64, %rsp
	popq	%rbp
	retq
LBB121_11:
	.loc	36 1537 5
	jmp	LBB121_10
Ltmp768:
Lfunc_end121:
	.cfi_endproc
	.section	__TEXT,__gcc_except_tab
	.p2align	2
GCC_except_table121:
Lexception23:
	.byte	255
	.byte	255
	.byte	1
	.uleb128 Lcst_end23-Lcst_begin23
Lcst_begin23:
	.uleb128 Ltmp764-Lfunc_begin121
	.uleb128 Ltmp765-Ltmp764
	.uleb128 Ltmp766-Lfunc_begin121
	.byte	0
	.uleb128 Ltmp765-Lfunc_begin121
	.uleb128 Lfunc_end121-Ltmp765
	.byte	0
	.byte	0
Lcst_end23:
	.p2align	2

	.section	__TEXT,__text,regular,pure_instructions
	.p2align	4, 0x90
__ZN4core6result19Result$LT$T$C$E$GT$2ok17h216d4655947fd638E:
Lfunc_begin122:
	.loc	36 642 0 is_stmt 1
	.cfi_startproc
	pushq	%rbp
	.cfi_def_cfa_offset 16
	.cfi_offset %rbp, -16
	movq	%rsp, %rbp
	.cfi_def_cfa_register %rbp
	subq	$32, %rsp
	movq	%rdi, -24(%rbp)
	movq	-24(%rbp), %rax
	movq	%rax, -32(%rbp)
Ltmp769:
	.loc	36 646 15 prologue_end
	movb	-32(%rbp), %al
	andb	$1, %al
	movzbl	%al, %eax
	.loc	36 646 9 is_stmt 0
	cmpq	$0, %rax
	jne	LBB122_2
	.loc	36 647 16 is_stmt 1
	movl	-28(%rbp), %eax
	movl	%eax, -4(%rbp)
Ltmp770:
	.loc	36 647 22 is_stmt 0
	movl	%eax, -12(%rbp)
	movl	$1, -16(%rbp)
Ltmp771:
	.loc	36 647 28
	jmp	LBB122_3
LBB122_2:
	.loc	36 650 17 is_stmt 1
	movb	-31(%rbp), %al
	movb	%al, -5(%rbp)
Ltmp772:
	.loc	36 650 23 is_stmt 0
	movl	$0, -16(%rbp)
Ltmp773:
LBB122_3:
	.loc	36 652 6 is_stmt 1
	movl	-16(%rbp), %eax
	movl	-12(%rbp), %edx
	addq	$32, %rsp
	popq	%rbp
	retq
Ltmp774:
Lfunc_end122:
	.cfi_endproc

	.p2align	4, 0x90
__ZN4core6result19Result$LT$T$C$E$GT$2ok17h6cb152f16c2a71e8E:
Lfunc_begin123:
	.loc	36 642 0
	.cfi_startproc
	pushq	%rbp
	.cfi_def_cfa_offset 16
	.cfi_offset %rbp, -16
	movq	%rsp, %rbp
	.cfi_def_cfa_register %rbp
	subq	$56, %rsp
	movq	%rdi, -56(%rbp)
Ltmp775:
	.loc	36 646 9 prologue_end
	cmpq	$0, (%rdi)
Ltmp776:
	jne	LBB123_2
Ltmp777:
	.loc	36 0 9 is_stmt 0
	movq	-56(%rbp), %rax
	.loc	36 647 16 is_stmt 1
	movq	8(%rax), %rcx
	movq	16(%rax), %rax
	movq	%rcx, -16(%rbp)
	movq	%rax, -8(%rbp)
Ltmp778:
	.loc	36 647 22 is_stmt 0
	movq	%rcx, -48(%rbp)
	movq	%rax, -40(%rbp)
Ltmp779:
	.loc	36 647 28
	jmp	LBB123_3
Ltmp780:
LBB123_2:
	.loc	36 0 28
	movq	-56(%rbp), %rax
	.loc	36 650 17 is_stmt 1
	movq	8(%rax), %rcx
	movq	%rcx, -32(%rbp)
	movq	16(%rax), %rax
	movq	%rax, -24(%rbp)
Ltmp781:
	.loc	36 650 23 is_stmt 0
	movq	$0, -48(%rbp)
Ltmp782:
LBB123_3:
	.loc	36 652 6 is_stmt 1
	movq	-48(%rbp), %rax
	movq	-40(%rbp), %rdx
	addq	$56, %rsp
	popq	%rbp
	retq
Ltmp783:
Lfunc_end123:
	.cfi_endproc

	.p2align	4, 0x90
__ZN4core6result19Result$LT$T$C$E$GT$2ok17hb11e808bce178c58E:
Lfunc_begin124:
	.loc	36 642 0
	.cfi_startproc
	pushq	%rbp
	.cfi_def_cfa_offset 16
	.cfi_offset %rbp, -16
	movq	%rsp, %rbp
	.cfi_def_cfa_register %rbp
	subq	$144, %rsp
	movq	%rsi, -144(%rbp)
Ltmp784:
	movq	%rdi, -136(%rbp)
	movq	%rdi, -128(%rbp)
Ltmp785:
	.loc	36 646 15 prologue_end
	movq	8(%rsi), %rdx
	xorl	%eax, %eax
	movl	$1, %ecx
	cmpq	$0, %rdx
	cmoveq	%rcx, %rax
	.loc	36 646 9 is_stmt 0
	cmpq	$0, %rax
Ltmp786:
	jne	LBB124_2
Ltmp787:
	.loc	36 0 9
	movq	-144(%rbp), %rsi
	.loc	36 647 16 is_stmt 1
	leaq	-120(%rbp), %rdi
	movl	$56, %edx
	callq	_memcpy
Ltmp788:
	.loc	36 647 27 is_stmt 0
	leaq	-64(%rbp), %rdi
	leaq	-120(%rbp), %rsi
	movl	$56, %edx
	callq	_memcpy
	movq	-136(%rbp), %rdi
	.loc	36 647 22
	leaq	-64(%rbp), %rsi
	movl	$56, %edx
	callq	_memcpy
Ltmp789:
	.loc	36 647 28
	jmp	LBB124_3
Ltmp790:
LBB124_2:
	.loc	36 0 28
	movq	-136(%rbp), %rax
	movq	-144(%rbp), %rcx
	.loc	36 650 17 is_stmt 1
	movq	(%rcx), %rcx
	movq	%rcx, -8(%rbp)
Ltmp791:
	.loc	36 650 23 is_stmt 0
	movq	$0, 8(%rax)
Ltmp792:
	.loc	36 650 26
	leaq	-8(%rbp), %rdi
	callq	__ZN4core3ptr42drop_in_place$LT$std..io..error..Error$GT$17h4bfc7946392ee2e3E
Ltmp793:
LBB124_3:
	.loc	36 0 26
	movq	-128(%rbp), %rax
	.loc	36 652 6 is_stmt 1
	addq	$144, %rsp
	popq	%rbp
	retq
Ltmp794:
Lfunc_end124:
	.cfi_endproc

	.p2align	4, 0x90
__ZN4core6result19Result$LT$T$C$E$GT$2ok17hc52ff80da911e9f2E:
Lfunc_begin125:
	.loc	36 642 0
	.cfi_startproc
	pushq	%rbp
	.cfi_def_cfa_offset 16
	.cfi_offset %rbp, -16
	movq	%rsp, %rbp
	.cfi_def_cfa_register %rbp
	subq	$112, %rsp
	movq	%rsi, -112(%rbp)
Ltmp795:
	movq	%rdi, -104(%rbp)
	movq	%rdi, -96(%rbp)
Ltmp796:
	.loc	36 646 15 prologue_end
	movl	$1, %eax
	xorl	%ecx, %ecx
	cmpb	$2, 8(%rsi)
	cmoveq	%rcx, %rax
	.loc	36 646 9 is_stmt 0
	cmpq	$0, %rax
Ltmp797:
	jne	LBB125_2
Ltmp798:
	.loc	36 0 9
	movq	-104(%rbp), %rax
	movq	-112(%rbp), %rcx
	.loc	36 647 16 is_stmt 1
	movq	16(%rcx), %rdx
	movq	%rdx, -88(%rbp)
	movq	24(%rcx), %rdx
	movq	%rdx, -80(%rbp)
	movq	32(%rcx), %rcx
	movq	%rcx, -72(%rbp)
Ltmp799:
	.loc	36 647 27 is_stmt 0
	movq	-88(%rbp), %rcx
	movq	%rcx, -64(%rbp)
	movq	-80(%rbp), %rcx
	movq	%rcx, -56(%rbp)
	movq	-72(%rbp), %rcx
	movq	%rcx, -48(%rbp)
	.loc	36 647 22
	movq	-64(%rbp), %rcx
	movq	%rcx, (%rax)
	movq	-56(%rbp), %rcx
	movq	%rcx, 8(%rax)
	movq	-48(%rbp), %rcx
	movq	%rcx, 16(%rax)
Ltmp800:
	.loc	36 647 28
	jmp	LBB125_3
Ltmp801:
LBB125_2:
	.loc	36 0 28
	movq	-112(%rbp), %rsi
	.loc	36 650 17 is_stmt 1
	leaq	-40(%rbp), %rdi
	movl	$40, %edx
	callq	_memcpy
	movq	-104(%rbp), %rax
Ltmp802:
	.loc	36 650 23 is_stmt 0
	movq	$0, 8(%rax)
Ltmp803:
	.loc	36 650 26
	leaq	-40(%rbp), %rdi
	callq	__ZN4core3ptr49drop_in_place$LT$alloc..string..FromUtf8Error$GT$17h0a9b3ff2bd0f55afE
Ltmp804:
LBB125_3:
	.loc	36 0 26
	movq	-96(%rbp), %rax
	.loc	36 652 6 is_stmt 1
	addq	$112, %rsp
	popq	%rbp
	retq
Ltmp805:
Lfunc_end125:
	.cfi_endproc

	.p2align	4, 0x90
__ZN4core6result19Result$LT$T$C$E$GT$5is_ok17hb9ad634b4d16b5bfE:
Lfunc_begin126:
	.loc	36 541 0
	.cfi_startproc
	pushq	%rbp
	.cfi_def_cfa_offset 16
	.cfi_offset %rbp, -16
	movq	%rsp, %rbp
	.cfi_def_cfa_register %rbp
	subq	$16, %rsp
	movq	%rdi, -8(%rbp)
Ltmp806:
	.loc	36 542 9 prologue_end
	cmpq	$0, (%rdi)
	jne	LBB126_2
	movb	$1, -9(%rbp)
	jmp	LBB126_3
LBB126_2:
	movb	$0, -9(%rbp)
LBB126_3:
	.loc	36 543 6
	movb	-9(%rbp), %al
	andb	$1, %al
	movzbl	%al, %eax
	addq	$16, %rsp
	popq	%rbp
	retq
Ltmp807:
Lfunc_end126:
	.cfi_endproc

	.p2align	4, 0x90
__ZN50_$LT$T$u20$as$u20$core..convert..Into$LT$U$GT$$GT$4into17h2e426dc31c113790E:
Lfunc_begin127:
	.file	43 "/rustc/2c8cc343237b8f7d5a3c3703e3a87f2eb2c54a74/library/core/src/convert" "mod.rs"
	.loc	43 725 0
	.cfi_startproc
	pushq	%rbp
	.cfi_def_cfa_offset 16
	.cfi_offset %rbp, -16
	movq	%rsp, %rbp
	.cfi_def_cfa_register %rbp
	subq	$16, %rsp
	movq	%rdi, -8(%rbp)
Ltmp808:
	.loc	43 726 9 prologue_end
	callq	__ZN119_$LT$core..ptr..non_null..NonNull$LT$T$GT$$u20$as$u20$core..convert..From$LT$core..ptr..unique..Unique$LT$T$GT$$GT$$GT$4from17h05880f3601f6b59bE
	.loc	43 727 6
	addq	$16, %rsp
	popq	%rbp
	retq
Ltmp809:
Lfunc_end127:
	.cfi_endproc

	.p2align	4, 0x90
__ZN52_$LT$char$u20$as$u20$core..str..pattern..Pattern$GT$13into_searcher17hfcaef770efa13377E:
Lfunc_begin128:
	.file	44 "/rustc/2c8cc343237b8f7d5a3c3703e3a87f2eb2c54a74/library/core/src/str" "pattern.rs"
	.loc	44 543 0
	.cfi_startproc
	pushq	%rbp
	.cfi_def_cfa_offset 16
	.cfi_offset %rbp, -16
	movq	%rsp, %rbp
	.cfi_def_cfa_register %rbp
	subq	$224, %rsp
	movq	%rcx, -208(%rbp)
	movq	%rdx, -216(%rbp)
	movl	%esi, -196(%rbp)
	movq	%rdi, -192(%rbp)
	movq	%rdi, -184(%rbp)
	movl	%esi, -164(%rbp)
	movq	%rdx, -160(%rbp)
	movq	%rcx, -152(%rbp)
Ltmp810:
	.loc	44 544 32 prologue_end
	leaq	-172(%rbp), %rdi
	xorl	%esi, %esi
	movl	$4, %edx
	callq	_memset
	movl	-196(%rbp), %edi
Ltmp811:
	.loc	44 545 25
	movl	%edi, -140(%rbp)
	.loc	44 545 42 is_stmt 0
	leaq	-172(%rbp), %rax
	movq	%rax, -136(%rbp)
	movq	$4, -128(%rbp)
Ltmp812:
	.loc	33 663 42 is_stmt 1
	leaq	-172(%rbp), %rsi
	movl	$4, %edx
	callq	__ZN4core4char7methods15encode_utf8_raw17hdedf620ccb61f072E
	movq	-216(%rbp), %r9
	movq	-208(%rbp), %r8
	movl	-196(%rbp), %esi
	movq	-192(%rbp), %rdi
	movq	%rax, %rcx
	movq	-184(%rbp), %rax
	movq	%rcx, -120(%rbp)
	movq	%rdx, -112(%rbp)
Ltmp813:
	.loc	44 545 25
	movq	%rcx, -104(%rbp)
	movq	%rdx, -96(%rbp)
Ltmp814:
	.loc	21 160 9
	movq	%rcx, -88(%rbp)
	movq	%rdx, -80(%rbp)
Ltmp815:
	.loc	21 327 18
	movq	%rcx, -72(%rbp)
	movq	%rdx, -64(%rbp)
	movq	-64(%rbp), %rcx
Ltmp816:
	.loc	21 160 9
	movq	%rcx, -56(%rbp)
Ltmp817:
	.loc	44 549 26
	movq	%r9, -48(%rbp)
	movq	%r8, -40(%rbp)
Ltmp818:
	.loc	21 160 9
	movq	%r9, -32(%rbp)
	movq	%r8, -24(%rbp)
Ltmp819:
	.loc	21 327 18
	movq	%r9, -16(%rbp)
	movq	%r8, -8(%rbp)
	movq	-8(%rbp), %rdx
Ltmp820:
	.loc	44 552 13
	movl	-172(%rbp), %r10d
	movl	%r10d, -168(%rbp)
	.loc	44 546 9
	movq	%r9, (%rdi)
	movq	%r8, 8(%rdi)
	movq	$0, 16(%rdi)
	movq	%rdx, 24(%rdi)
	movl	%esi, 44(%rdi)
	movq	%rcx, 32(%rdi)
	movl	-168(%rbp), %ecx
	movl	%ecx, 40(%rdi)
Ltmp821:
	.loc	44 554 6
	addq	$224, %rsp
	popq	%rbp
	retq
Ltmp822:
Lfunc_end128:
	.cfi_endproc

	.p2align	4, 0x90
__ZN54_$LT$$LP$$RP$$u20$as$u20$std..process..Termination$GT$6report17hf70efb0f676c11a7E:
Lfunc_begin129:
	.loc	16 2182 0
	.cfi_startproc
	pushq	%rbp
	.cfi_def_cfa_offset 16
	.cfi_offset %rbp, -16
	movq	%rsp, %rbp
	.cfi_def_cfa_register %rbp
	pushq	%rax
Ltmp823:
	.loc	16 2184 6 prologue_end
	xorl	%eax, %eax
	addq	$8, %rsp
	popq	%rbp
	retq
Ltmp824:
Lfunc_end129:
	.cfi_endproc

	.p2align	4, 0x90
__ZN55_$LT$$RF$T$u20$as$u20$core..convert..AsRef$LT$U$GT$$GT$6as_ref17hdee9774829dd7449E:
Lfunc_begin130:
	.loc	43 667 0
	.cfi_startproc
	pushq	%rbp
	.cfi_def_cfa_offset 16
	.cfi_offset %rbp, -16
	movq	%rsp, %rbp
	.cfi_def_cfa_register %rbp
	subq	$16, %rsp
	movq	%rdi, %rax
	movq	%rax, -8(%rbp)
Ltmp825:
	.loc	43 668 33 prologue_end
	movq	(%rax), %rdi
	movq	8(%rax), %rsi
	.loc	43 668 9 is_stmt 0
	callq	__ZN3std3ffi6os_str85_$LT$impl$u20$core..convert..AsRef$LT$std..ffi..os_str..OsStr$GT$$u20$for$u20$str$GT$6as_ref17h999f6970fcddcfb2E
	.loc	43 669 6 is_stmt 1
	addq	$16, %rsp
	popq	%rbp
	retq
Ltmp826:
Lfunc_end130:
	.cfi_endproc

	.p2align	4, 0x90
__ZN55_$LT$$RF$str$u20$as$u20$core..str..pattern..Pattern$GT$12is_prefix_of17h9d930b2d77ebdcb7E:
Lfunc_begin131:
	.loc	44 946 0
	.cfi_startproc
	pushq	%rbp
	.cfi_def_cfa_offset 16
	.cfi_offset %rbp, -16
	movq	%rsp, %rbp
	.cfi_def_cfa_register %rbp
	subq	$112, %rsp
	movq	%rcx, -112(%rbp)
	movq	%rdx, %rax
	movq	-112(%rbp), %rdx
	movq	%rax, -104(%rbp)
	movq	%rsi, %rax
	movq	-104(%rbp), %rsi
	movq	%rdi, %rcx
	movq	%rcx, -96(%rbp)
	movq	%rax, -88(%rbp)
	movq	%rsi, -80(%rbp)
	movq	%rdx, -72(%rbp)
Ltmp827:
	.loc	44 947 9 prologue_end
	movq	%rsi, -64(%rbp)
	movq	%rdx, -56(%rbp)
Ltmp828:
	.loc	21 327 18
	movq	%rsi, -48(%rbp)
	movq	%rdx, -40(%rbp)
	movq	-48(%rbp), %rdi
	movq	-40(%rbp), %rsi
Ltmp829:
	.loc	44 947 41
	movq	%rcx, -32(%rbp)
	movq	%rax, -24(%rbp)
Ltmp830:
	.loc	21 327 18
	movq	%rcx, -16(%rbp)
	movq	%rax, -8(%rbp)
	movq	-16(%rbp), %rdx
	movq	-8(%rbp), %rcx
Ltmp831:
	.loc	44 947 9
	callq	__ZN4core5slice29_$LT$impl$u20$$u5b$T$u5d$$GT$11starts_with17h5e9c557dc325e7c6E
	.loc	44 948 6
	andb	$1, %al
	movzbl	%al, %eax
	addq	$112, %rsp
	popq	%rbp
	retq
Ltmp832:
Lfunc_end131:
	.cfi_endproc

	.p2align	4, 0x90
__ZN55_$LT$T$u20$as$u20$core..option..SpecOptionPartialEq$GT$2eq17h21bd2956d524b82dE:
Lfunc_begin132:
	.loc	8 2102 0
	.cfi_startproc
	pushq	%rbp
	.cfi_def_cfa_offset 16
	.cfi_offset %rbp, -16
	movq	%rsp, %rbp
	.cfi_def_cfa_register %rbp
	subq	$64, %rsp
	movq	%rdi, -32(%rbp)
	movq	%rsi, -24(%rbp)
Ltmp833:
	.loc	8 2103 15 prologue_end
	movq	%rdi, -48(%rbp)
	movq	%rsi, -40(%rbp)
	movq	-48(%rbp), %rax
	movq	(%rax), %rax
	testq	%rax, %rax
	setne	%al
	movzbl	%al, %eax
	movq	%rax, -64(%rbp)
	.loc	8 2103 9 is_stmt 0
	je	LBB132_2
	jmp	LBB132_7
LBB132_7:
	.loc	8 0 9
	movq	-64(%rbp), %rax
	.loc	8 2103 9
	subq	$1, %rax
	je	LBB132_3
	jmp	LBB132_1
LBB132_1:
	.loc	8 2106 18 is_stmt 1
	movb	$0, -49(%rbp)
	jmp	LBB132_5
LBB132_2:
	.loc	8 2103 15
	movq	-40(%rbp), %rax
	movq	(%rax), %rdx
	movl	$1, %eax
	xorl	%ecx, %ecx
	cmpq	$0, %rdx
	cmoveq	%rcx, %rax
	.loc	8 2103 9 is_stmt 0
	cmpq	$0, %rax
	je	LBB132_6
	jmp	LBB132_1
LBB132_3:
	.loc	8 2103 15
	movq	-40(%rbp), %rax
	movq	(%rax), %rdx
	movl	$1, %eax
	xorl	%ecx, %ecx
	cmpq	$0, %rdx
	cmoveq	%rcx, %rax
	.loc	8 2103 9
	cmpq	$1, %rax
	jne	LBB132_1
	.loc	8 2104 19 is_stmt 1
	movq	-48(%rbp), %rdi
	movq	%rdi, -16(%rbp)
	.loc	8 2104 28 is_stmt 0
	movq	-40(%rbp), %rsi
	movq	%rsi, -8(%rbp)
Ltmp834:
	.loc	8 2104 35
	callq	__ZN4core3cmp5impls69_$LT$impl$u20$core..cmp..PartialEq$LT$$RF$B$GT$$u20$for$u20$$RF$A$GT$2eq17hac1ba023463aabebE
	andb	$1, %al
	movb	%al, -49(%rbp)
Ltmp835:
LBB132_5:
	.loc	8 2108 6 is_stmt 1
	movb	-49(%rbp), %al
	andb	$1, %al
	movzbl	%al, %eax
	addq	$64, %rsp
	popq	%rbp
	retq
LBB132_6:
	.loc	8 2105 29
	movb	$1, -49(%rbp)
	jmp	LBB132_5
Ltmp836:
Lfunc_end132:
	.cfi_endproc

	.p2align	4, 0x90
__ZN59_$LT$alloc..alloc..Global$u20$as$u20$core..clone..Clone$GT$5clone17h130d3c7a93c15021E:
Lfunc_begin133:
	.file	45 "/rustc/2c8cc343237b8f7d5a3c3703e3a87f2eb2c54a74/library/alloc/src" "alloc.rs"
	.loc	45 53 0
	.cfi_startproc
	pushq	%rbp
	.cfi_def_cfa_offset 16
	.cfi_offset %rbp, -16
	movq	%rsp, %rbp
	.cfi_def_cfa_register %rbp
	pushq	%rax
	movq	%rdi, -8(%rbp)
Ltmp837:
	.loc	45 53 21 prologue_end
	addq	$8, %rsp
	popq	%rbp
	retq
Ltmp838:
Lfunc_end133:
	.cfi_endproc

	.p2align	4, 0x90
__ZN5alloc11collections5btree3map25IntoIter$LT$K$C$V$C$A$GT$10dying_next17h4f7fc552d4097bbcE:
Lfunc_begin134:
	.loc	6 1663 0
	.cfi_startproc
	pushq	%rbp
	.cfi_def_cfa_offset 16
	.cfi_offset %rbp, -16
	movq	%rsp, %rbp
	.cfi_def_cfa_register %rbp
	subq	$64, %rsp
	movq	%rsi, -56(%rbp)
	movq	%rdi, -48(%rbp)
	movq	%rdi, -40(%rbp)
	movq	%rsi, -8(%rbp)
Ltmp839:
	.loc	6 1666 12 prologue_end
	cmpq	$0, 64(%rsi)
	jne	LBB134_2
	.loc	6 0 12 is_stmt 0
	movq	-56(%rbp), %rdi
	.loc	6 1667 41 is_stmt 1
	callq	__ZN59_$LT$alloc..alloc..Global$u20$as$u20$core..clone..Clone$GT$5clone17h130d3c7a93c15021E
	movq	-56(%rbp), %rdi
	.loc	6 1667 13 is_stmt 0
	callq	__ZN5alloc11collections5btree8navigate75LazyLeafRange$LT$alloc..collections..btree..node..marker..Dying$C$K$C$V$GT$16deallocating_end17h6ccc57f9a9db19acE
	movq	-48(%rbp), %rax
	.loc	6 1668 13 is_stmt 1
	movq	$0, 8(%rax)
	.loc	6 1666 9
	jmp	LBB134_3
LBB134_2:
	.loc	6 0 9 is_stmt 0
	movq	-56(%rbp), %rdi
	.loc	6 1670 13 is_stmt 1
	movq	64(%rdi), %rax
	subq	$1, %rax
	movq	%rax, 64(%rdi)
	.loc	6 1671 66
	callq	__ZN59_$LT$alloc..alloc..Global$u20$as$u20$core..clone..Clone$GT$5clone17h130d3c7a93c15021E
	movq	-56(%rbp), %rsi
	.loc	6 1671 27 is_stmt 0
	leaq	-32(%rbp), %rdi
	callq	__ZN5alloc11collections5btree8navigate75LazyLeafRange$LT$alloc..collections..btree..node..marker..Dying$C$K$C$V$GT$27deallocating_next_unchecked17h75f723034247f14aE
	movq	-48(%rbp), %rax
	.loc	6 1671 13
	movq	-32(%rbp), %rcx
	movq	%rcx, (%rax)
	movq	-24(%rbp), %rcx
	movq	%rcx, 8(%rax)
	movq	-16(%rbp), %rcx
	movq	%rcx, 16(%rax)
LBB134_3:
	.loc	6 0 13
	movq	-40(%rbp), %rax
	.loc	6 1673 6 is_stmt 1
	addq	$64, %rsp
	popq	%rbp
	retq
Ltmp840:
Lfunc_end134:
	.cfi_endproc

	.p2align	4, 0x90
__ZN5alloc11collections5btree3mem7replace17haf85b81347359ddbE:
Lfunc_begin135:
	.file	46 "/rustc/2c8cc343237b8f7d5a3c3703e3a87f2eb2c54a74/library/alloc/src/collections/btree" "mem.rs"
	.loc	46 20 0
	.cfi_startproc
	.cfi_personality 155, _rust_eh_personality
	.cfi_lsda 16, Lexception24
	pushq	%rbp
	.cfi_def_cfa_offset 16
	.cfi_offset %rbp, -16
	movq	%rsp, %rbp
	.cfi_def_cfa_register %rbp
	subq	$352, %rsp
	movq	%rsi, -352(%rbp)
	movq	%rdi, -344(%rbp)
	movq	%rdi, -336(%rbp)
	movq	%rsi, -72(%rbp)
Ltmp847:
	.loc	46 27 9 prologue_end
	movb	$1, -145(%rbp)
Ltmp848:
	.loc	46 28 36
	movq	%rsi, -40(%rbp)
Ltmp849:
	.loc	3 1157 34
	leaq	-144(%rbp), %rax
	movq	%rax, -32(%rbp)
	.loc	3 1157 9 is_stmt 0
	movq	(%rsi), %rax
	movq	%rax, -144(%rbp)
	movq	8(%rsi), %rax
	movq	%rax, -136(%rbp)
	movq	16(%rsi), %rax
	movq	%rax, -128(%rbp)
	.loc	3 1158 9 is_stmt 1
	movq	-144(%rbp), %rax
	movq	%rax, -120(%rbp)
	movq	-136(%rbp), %rax
	movq	%rax, -112(%rbp)
	movq	-128(%rbp), %rax
	movq	%rax, -104(%rbp)
Ltmp850:
	.loc	28 627 38
	movq	-104(%rbp), %rax
	movq	%rax, -80(%rbp)
	movq	-120(%rbp), %rax
	movq	-112(%rbp), %rcx
	movq	%rcx, -88(%rbp)
	movq	%rax, -96(%rbp)
Ltmp851:
	.loc	7 89 9
	movq	-80(%rbp), %rax
	movq	%rax, -304(%rbp)
	movq	-96(%rbp), %rax
	movq	-88(%rbp), %rcx
	movq	%rcx, -312(%rbp)
	movq	%rax, -320(%rbp)
Ltmp852:
	.loc	46 29 28
	movb	$0, -145(%rbp)
	.loc	46 29 35 is_stmt 0
	movq	-304(%rbp), %rax
	movq	%rax, -184(%rbp)
	movq	-320(%rbp), %rax
	movq	-312(%rbp), %rcx
	movq	%rcx, -192(%rbp)
	movq	%rax, -200(%rbp)
	.loc	46 29 28
	movq	-184(%rbp), %rax
	movq	%rax, -208(%rbp)
	movq	-200(%rbp), %rax
	movq	-192(%rbp), %rcx
	movq	%rcx, -216(%rbp)
	movq	%rax, -224(%rbp)
Ltmp841:
	leaq	-272(%rbp), %rdi
	leaq	-224(%rbp), %rsi
	callq	__ZN5alloc11collections5btree8navigate263_$LT$impl$u20$alloc..collections..btree..node..Handle$LT$alloc..collections..btree..node..NodeRef$LT$alloc..collections..btree..node..marker..Dying$C$K$C$V$C$alloc..collections..btree..node..marker..Leaf$GT$$C$alloc..collections..btree..node..marker..Edge$GT$$GT$27deallocating_next_unchecked28_$u7b$$u7b$closure$u7d$$u7d$17hbd828f2bbeffda81E
Ltmp842:
	jmp	LBB135_4
Ltmp853:
LBB135_2:
	.loc	46 35 1 is_stmt 1
	movb	$1, %al
	testb	$1, %al
	jne	LBB135_6
	jmp	LBB135_5
LBB135_3:
Ltmp843:
	.loc	46 0 1 is_stmt 0
	movq	%rax, %rcx
	movl	%edx, %eax
	movq	%rcx, -24(%rbp)
	movl	%eax, -16(%rbp)
	jmp	LBB135_2
LBB135_4:
	movq	-336(%rbp), %rax
	movq	-352(%rbp), %rcx
	movq	-344(%rbp), %rdx
Ltmp854:
	.loc	46 29 10 is_stmt 1
	movq	-272(%rbp), %rsi
	movq	%rsi, -296(%rbp)
	movq	-264(%rbp), %rsi
	movq	%rsi, -288(%rbp)
	movq	-256(%rbp), %rsi
	movq	%rsi, -280(%rbp)
	.loc	46 29 21 is_stmt 0
	movq	-248(%rbp), %rsi
	movq	%rsi, (%rdx)
	movq	-240(%rbp), %rsi
	movq	%rsi, 8(%rdx)
	movq	-232(%rbp), %rsi
	movq	%rsi, 16(%rdx)
Ltmp855:
	.loc	46 31 20 is_stmt 1
	movq	%rcx, -8(%rbp)
	.loc	46 31 23 is_stmt 0
	movq	-296(%rbp), %rdx
	movq	%rdx, -176(%rbp)
	movq	-288(%rbp), %rdx
	movq	%rdx, -168(%rbp)
	movq	-280(%rbp), %rdx
	movq	%rdx, -160(%rbp)
Ltmp856:
	.loc	3 1354 9 is_stmt 1
	movq	-176(%rbp), %rdx
	movq	%rdx, (%rcx)
	movq	-168(%rbp), %rdx
	movq	%rdx, 8(%rcx)
	movq	-160(%rbp), %rdx
	movq	%rdx, 16(%rcx)
Ltmp857:
	.loc	46 35 2
	addq	$352, %rsp
	popq	%rbp
	retq
LBB135_5:
	.loc	46 35 1 is_stmt 0
	testb	$1, -145(%rbp)
	jne	LBB135_9
	jmp	LBB135_8
LBB135_6:
Ltmp844:
	.loc	46 0 1
	leaq	-328(%rbp), %rdi
	.loc	46 35 1
	callq	__ZN4core3ptr72drop_in_place$LT$alloc..collections..btree..mem..replace..PanicGuard$GT$17hd35468edd8d67fdaE
Ltmp845:
	jmp	LBB135_5
LBB135_7:
Ltmp846:
	.loc	46 20 1 is_stmt 1
	callq	__ZN4core9panicking19panic_cannot_unwind17h1fbca7e1d7f56ae1E
LBB135_8:
	movq	-24(%rbp), %rdi
	callq	__Unwind_Resume
LBB135_9:
	.loc	46 35 1
	jmp	LBB135_8
Ltmp858:
Lfunc_end135:
	.cfi_endproc
	.section	__TEXT,__gcc_except_tab
	.p2align	2
GCC_except_table135:
Lexception24:
	.byte	255
	.byte	255
	.byte	1
	.uleb128 Lcst_end24-Lcst_begin24
Lcst_begin24:
	.uleb128 Ltmp841-Lfunc_begin135
	.uleb128 Ltmp842-Ltmp841
	.uleb128 Ltmp843-Lfunc_begin135
	.byte	0
	.uleb128 Ltmp844-Lfunc_begin135
	.uleb128 Ltmp845-Ltmp844
	.uleb128 Ltmp846-Lfunc_begin135
	.byte	0
	.uleb128 Ltmp845-Lfunc_begin135
	.uleb128 Lfunc_end135-Ltmp845
	.byte	0
	.byte	0
Lcst_end24:
	.p2align	2

	.section	__TEXT,__text,regular,pure_instructions
	.p2align	4, 0x90
__ZN5alloc11collections5btree4node127NodeRef$LT$alloc..collections..btree..node..marker..Dying$C$K$C$V$C$alloc..collections..btree..node..marker..LeafOrInternal$GT$21deallocate_and_ascend17h636b7ec82cfdccd2E:
Lfunc_begin136:
	.file	47 "/rustc/2c8cc343237b8f7d5a3c3703e3a87f2eb2c54a74/library/alloc/src/collections/btree" "node.rs"
	.loc	47 396 0
	.cfi_startproc
	.cfi_personality 155, _rust_eh_personality
	.cfi_lsda 16, Lexception25
	pushq	%rbp
	.cfi_def_cfa_offset 16
	.cfi_offset %rbp, -16
	movq	%rsp, %rbp
	.cfi_def_cfa_register %rbp
	subq	$368, %rsp
	movq	%rdx, -312(%rbp)
	movq	%rsi, -304(%rbp)
	movq	%rdi, -296(%rbp)
	movq	%rdi, -288(%rbp)
	movq	%rsi, -168(%rbp)
	movq	%rdx, -160(%rbp)
Ltmp868:
	.loc	47 400 22 prologue_end
	movq	%rsi, -152(%rbp)
Ltmp869:
	.loc	47 401 20
	movq	%rdx, -144(%rbp)
Ltmp859:
	leaq	-272(%rbp), %rdi
Ltmp870:
	.loc	47 402 19
	callq	__ZN5alloc11collections5btree4node40NodeRef$LT$BorrowType$C$K$C$V$C$Type$GT$6ascend17h24f217f7e4abffe0E
Ltmp860:
	jmp	LBB136_3
Ltmp871:
LBB136_1:
	.loc	47 396 5
	movq	-136(%rbp), %rdi
	callq	__Unwind_Resume
LBB136_2:
Ltmp867:
	.loc	47 0 5 is_stmt 0
	movq	%rax, %rcx
	movl	%edx, %eax
	movq	%rcx, -136(%rbp)
	movl	%eax, -128(%rbp)
	jmp	LBB136_1
LBB136_3:
Ltmp872:
	.loc	36 646 9 is_stmt 1
	cmpq	$0, -272(%rbp)
	jne	LBB136_5
	.loc	36 0 9 is_stmt 0
	movq	-296(%rbp), %rax
	.loc	36 647 16 is_stmt 1
	movq	-264(%rbp), %rcx
	movq	%rcx, -216(%rbp)
	movq	-256(%rbp), %rcx
	movq	%rcx, -208(%rbp)
	movq	-248(%rbp), %rcx
	movq	%rcx, -200(%rbp)
Ltmp873:
	.loc	36 647 27 is_stmt 0
	movq	-216(%rbp), %rcx
	movq	%rcx, -192(%rbp)
	movq	-208(%rbp), %rcx
	movq	%rcx, -184(%rbp)
	movq	-200(%rbp), %rcx
	movq	%rcx, -176(%rbp)
	.loc	36 647 22
	movq	-192(%rbp), %rcx
	movq	%rcx, (%rax)
	movq	-184(%rbp), %rcx
	movq	%rcx, 8(%rax)
	movq	-176(%rbp), %rcx
	movq	%rcx, 16(%rax)
Ltmp874:
	.loc	36 647 28
	jmp	LBB136_6
LBB136_5:
	.loc	36 0 28
	movq	-296(%rbp), %rax
Ltmp875:
	.loc	36 650 23 is_stmt 1
	movq	$0, 8(%rax)
Ltmp876:
LBB136_6:
	.loc	36 0 23 is_stmt 0
	movq	-304(%rbp), %rax
	movq	-312(%rbp), %rcx
Ltmp877:
	.loc	47 405 17 is_stmt 1
	movq	%rcx, -120(%rbp)
Ltmp878:
	.loc	9 450 41
	movq	%rcx, -112(%rbp)
	movq	%rcx, -104(%rbp)
Ltmp879:
	.loc	9 201 13
	movq	%rcx, -240(%rbp)
Ltmp880:
	.loc	47 406 20
	cmpq	$0, %rax
	ja	LBB136_8
Ltmp861:
Ltmp881:
	.loc	37 149 29
	callq	__ZN4core5alloc6layout10size_align17h8f920fa48ceb7371E
Ltmp862:
	movq	%rdx, -328(%rbp)
	movq	%rax, -320(%rbp)
	jmp	LBB136_12
Ltmp882:
LBB136_8:
Ltmp863:
	.loc	37 149 29 is_stmt 0
	callq	__ZN4core5alloc6layout10size_align17h33f4059a4de473ffE
Ltmp864:
	movq	%rdx, -344(%rbp)
	movq	%rax, -336(%rbp)
	jmp	LBB136_9
LBB136_9:
	.loc	37 0 29
	movq	-344(%rbp), %rax
	movq	-336(%rbp), %rcx
	.loc	37 149 14
	movq	%rcx, -96(%rbp)
	.loc	37 149 20
	movq	%rax, -88(%rbp)
Ltmp883:
	.loc	37 153 52 is_stmt 1
	movq	%rcx, -80(%rbp)
	.loc	37 153 58 is_stmt 0
	movq	%rax, -72(%rbp)
Ltmp884:
	.loc	37 120 65 is_stmt 1
	movq	%rax, -64(%rbp)
Ltmp885:
	.loc	38 89 18
	movq	%rax, -56(%rbp)
	movq	-56(%rbp), %rax
	movq	%rax, -352(%rbp)
Ltmp886:
	.loc	38 0 18 is_stmt 0
	movq	-352(%rbp), %rax
	movq	-336(%rbp), %rcx
	.loc	37 120 18 is_stmt 1
	movq	%rcx, -232(%rbp)
	movq	%rax, -224(%rbp)
Ltmp887:
LBB136_11:
	.loc	47 404 13
	movq	-240(%rbp), %rsi
	movq	-232(%rbp), %rdx
	movq	-224(%rbp), %rcx
Ltmp865:
	leaq	-280(%rbp), %rdi
	callq	__ZN63_$LT$alloc..alloc..Global$u20$as$u20$core..alloc..Allocator$GT$10deallocate17hb265edf2dff3fe0dE
Ltmp866:
	jmp	LBB136_14
LBB136_12:
	.loc	47 0 13 is_stmt 0
	movq	-328(%rbp), %rax
	movq	-320(%rbp), %rcx
Ltmp888:
	.loc	37 149 14 is_stmt 1
	movq	%rcx, -48(%rbp)
	.loc	37 149 20 is_stmt 0
	movq	%rax, -40(%rbp)
Ltmp889:
	.loc	37 153 52 is_stmt 1
	movq	%rcx, -32(%rbp)
	.loc	37 153 58 is_stmt 0
	movq	%rax, -24(%rbp)
Ltmp890:
	.loc	37 120 65 is_stmt 1
	movq	%rax, -16(%rbp)
Ltmp891:
	.loc	38 89 18
	movq	%rax, -8(%rbp)
	movq	-8(%rbp), %rax
	movq	%rax, -360(%rbp)
Ltmp892:
	.loc	38 0 18 is_stmt 0
	movq	-360(%rbp), %rax
	movq	-320(%rbp), %rcx
	.loc	37 120 18 is_stmt 1
	movq	%rcx, -232(%rbp)
	movq	%rax, -224(%rbp)
Ltmp893:
	.loc	37 154 6
	jmp	LBB136_11
LBB136_14:
	.loc	37 0 6 is_stmt 0
	movq	-288(%rbp), %rax
	.loc	47 414 6 is_stmt 1
	addq	$368, %rsp
	popq	%rbp
	retq
Ltmp894:
Lfunc_end136:
	.cfi_endproc
	.section	__TEXT,__gcc_except_tab
	.p2align	2
GCC_except_table136:
Lexception25:
	.byte	255
	.byte	255
	.byte	1
	.uleb128 Lcst_end25-Lcst_begin25
Lcst_begin25:
	.uleb128 Ltmp859-Lfunc_begin136
	.uleb128 Ltmp860-Ltmp859
	.uleb128 Ltmp867-Lfunc_begin136
	.byte	0
	.uleb128 Ltmp860-Lfunc_begin136
	.uleb128 Ltmp861-Ltmp860
	.byte	0
	.byte	0
	.uleb128 Ltmp861-Lfunc_begin136
	.uleb128 Ltmp866-Ltmp861
	.uleb128 Ltmp867-Lfunc_begin136
	.byte	0
Lcst_end25:
	.p2align	2

	.section	__TEXT,__text,regular,pure_instructions
	.p2align	4, 0x90
__ZN5alloc11collections5btree4node137Handle$LT$alloc..collections..btree..node..NodeRef$LT$BorrowType$C$K$C$V$C$NodeType$GT$$C$alloc..collections..btree..node..marker..KV$GT$10right_edge17h654e721dc56d006cE:
Lfunc_begin137:
	.loc	47 765 0
	.cfi_startproc
	pushq	%rbp
	.cfi_def_cfa_offset 16
	.cfi_offset %rbp, -16
	movq	%rsp, %rbp
	.cfi_def_cfa_register %rbp
	subq	$16, %rsp
	movq	%rsi, %rax
	movq	%rdi, %rcx
	movq	%rcx, -8(%rbp)
Ltmp895:
	.loc	47 766 35 prologue_end
	movq	(%rax), %rsi
	movq	8(%rax), %rdx
	.loc	47 766 46 is_stmt 0
	movq	16(%rax), %rcx
	addq	$1, %rcx
	.loc	47 766 18
	callq	__ZN5alloc11collections5btree4node139Handle$LT$alloc..collections..btree..node..NodeRef$LT$BorrowType$C$K$C$V$C$NodeType$GT$$C$alloc..collections..btree..node..marker..Edge$GT$8new_edge17h154cfdd3a4fcc1fbE
Ltmp896:
	.loc	47 0 18
	movq	-8(%rbp), %rax
	.loc	47 767 6 is_stmt 1
	addq	$16, %rsp
	popq	%rbp
	retq
Ltmp897:
Lfunc_end137:
	.cfi_endproc

	.p2align	4, 0x90
__ZN5alloc11collections5btree4node137Handle$LT$alloc..collections..btree..node..NodeRef$LT$BorrowType$C$K$C$V$C$NodeType$GT$$C$alloc..collections..btree..node..marker..KV$GT$10right_edge17h7817ea0bad95a3a3E:
Lfunc_begin138:
	.loc	47 765 0
	.cfi_startproc
	pushq	%rbp
	.cfi_def_cfa_offset 16
	.cfi_offset %rbp, -16
	movq	%rsp, %rbp
	.cfi_def_cfa_register %rbp
	subq	$16, %rsp
	movq	%rsi, %rax
	movq	%rdi, %rcx
	movq	%rcx, -8(%rbp)
Ltmp898:
	.loc	47 766 35 prologue_end
	movq	(%rax), %rsi
	movq	8(%rax), %rdx
	.loc	47 766 46 is_stmt 0
	movq	16(%rax), %rcx
	addq	$1, %rcx
	.loc	47 766 18
	callq	__ZN5alloc11collections5btree4node139Handle$LT$alloc..collections..btree..node..NodeRef$LT$BorrowType$C$K$C$V$C$NodeType$GT$$C$alloc..collections..btree..node..marker..Edge$GT$8new_edge17h64a347fb0fcaa039E
Ltmp899:
	.loc	47 0 18
	movq	-8(%rbp), %rax
	.loc	47 767 6 is_stmt 1
	addq	$16, %rsp
	popq	%rbp
	retq
Ltmp900:
Lfunc_end138:
	.cfi_endproc

	.p2align	4, 0x90
__ZN5alloc11collections5btree4node137Handle$LT$alloc..collections..btree..node..NodeRef$LT$BorrowType$C$K$C$V$C$NodeType$GT$$C$alloc..collections..btree..node..marker..KV$GT$6new_kv17h6674e7666367a1a8E:
Lfunc_begin139:
	.loc	47 755 0
	.cfi_startproc
	pushq	%rbp
	.cfi_def_cfa_offset 16
	.cfi_offset %rbp, -16
	movq	%rsp, %rbp
	.cfi_def_cfa_register %rbp
	subq	$24, %rsp
	movq	%rdi, %rax
	movq	%rsi, -24(%rbp)
	movq	%rdx, -16(%rbp)
	movq	%rcx, -8(%rbp)
Ltmp901:
	.loc	47 758 9 prologue_end
	movq	%rsi, (%rdi)
	movq	%rdx, 8(%rdi)
	movq	%rcx, 16(%rdi)
	.loc	47 759 6
	addq	$24, %rsp
	popq	%rbp
	retq
Ltmp902:
Lfunc_end139:
	.cfi_endproc

	.p2align	4, 0x90
__ZN5alloc11collections5btree4node139Handle$LT$alloc..collections..btree..node..NodeRef$LT$BorrowType$C$K$C$V$C$NodeType$GT$$C$alloc..collections..btree..node..marker..Edge$GT$8new_edge17h154cfdd3a4fcc1fbE:
Lfunc_begin140:
	.loc	47 806 0
	.cfi_startproc
	pushq	%rbp
	.cfi_def_cfa_offset 16
	.cfi_offset %rbp, -16
	movq	%rsp, %rbp
	.cfi_def_cfa_register %rbp
	subq	$24, %rsp
	movq	%rdi, %rax
	movq	%rsi, -24(%rbp)
	movq	%rdx, -16(%rbp)
	movq	%rcx, -8(%rbp)
Ltmp903:
	.loc	47 809 9 prologue_end
	movq	%rsi, (%rdi)
	movq	%rdx, 8(%rdi)
	movq	%rcx, 16(%rdi)
	.loc	47 810 6
	addq	$24, %rsp
	popq	%rbp
	retq
Ltmp904:
Lfunc_end140:
	.cfi_endproc

	.p2align	4, 0x90
__ZN5alloc11collections5btree4node139Handle$LT$alloc..collections..btree..node..NodeRef$LT$BorrowType$C$K$C$V$C$NodeType$GT$$C$alloc..collections..btree..node..marker..Edge$GT$8new_edge17h1941c53aa5c58dc3E:
Lfunc_begin141:
	.loc	47 806 0
	.cfi_startproc
	pushq	%rbp
	.cfi_def_cfa_offset 16
	.cfi_offset %rbp, -16
	movq	%rsp, %rbp
	.cfi_def_cfa_register %rbp
	subq	$24, %rsp
	movq	%rdi, %rax
	movq	%rsi, -24(%rbp)
	movq	%rdx, -16(%rbp)
	movq	%rcx, -8(%rbp)
Ltmp905:
	.loc	47 809 9 prologue_end
	movq	%rsi, (%rdi)
	movq	%rdx, 8(%rdi)
	movq	%rcx, 16(%rdi)
	.loc	47 810 6
	addq	$24, %rsp
	popq	%rbp
	retq
Ltmp906:
Lfunc_end141:
	.cfi_endproc

	.p2align	4, 0x90
__ZN5alloc11collections5btree4node139Handle$LT$alloc..collections..btree..node..NodeRef$LT$BorrowType$C$K$C$V$C$NodeType$GT$$C$alloc..collections..btree..node..marker..Edge$GT$8new_edge17h64a347fb0fcaa039E:
Lfunc_begin142:
	.loc	47 806 0
	.cfi_startproc
	pushq	%rbp
	.cfi_def_cfa_offset 16
	.cfi_offset %rbp, -16
	movq	%rsp, %rbp
	.cfi_def_cfa_register %rbp
	subq	$24, %rsp
	movq	%rdi, %rax
	movq	%rsi, -24(%rbp)
	movq	%rdx, -16(%rbp)
	movq	%rcx, -8(%rbp)
Ltmp907:
	.loc	47 809 9 prologue_end
	movq	%rsi, (%rdi)
	movq	%rdx, 8(%rdi)
	movq	%rcx, 16(%rdi)
	.loc	47 810 6
	addq	$24, %rsp
	popq	%rbp
	retq
Ltmp908:
Lfunc_end142:
	.cfi_endproc

	.p2align	4, 0x90
__ZN5alloc11collections5btree4node139Handle$LT$alloc..collections..btree..node..NodeRef$LT$BorrowType$C$K$C$V$C$NodeType$GT$$C$alloc..collections..btree..node..marker..Edge$GT$8right_kv17h4a58d71c3166cc85E:
Lfunc_begin143:
	.loc	47 820 0
	.cfi_startproc
	pushq	%rbp
	.cfi_def_cfa_offset 16
	.cfi_offset %rbp, -16
	movq	%rsp, %rbp
	.cfi_def_cfa_register %rbp
	subq	$80, %rsp
	movq	%rsi, -80(%rbp)
Ltmp909:
	movq	%rdi, %rax
	movq	-80(%rbp), %rdi
	movq	%rax, -72(%rbp)
	movq	%rax, -64(%rbp)
Ltmp910:
	.loc	47 821 12 prologue_end
	movq	16(%rdi), %rax
	movq	%rax, -56(%rbp)
	.loc	47 821 23 is_stmt 0
	callq	__ZN5alloc11collections5btree4node40NodeRef$LT$BorrowType$C$K$C$V$C$Type$GT$3len17hc48bca8258849bc1E
Ltmp911:
	movq	%rax, %rcx
	movq	-56(%rbp), %rax
	.loc	47 821 12
	cmpq	%rcx, %rax
Ltmp912:
	jb	LBB143_2
Ltmp913:
	.loc	47 0 12
	movq	-72(%rbp), %rax
	movq	-80(%rbp), %rcx
	.loc	47 824 17 is_stmt 1
	movq	(%rcx), %rdx
	movq	%rdx, -24(%rbp)
	movq	8(%rcx), %rdx
	movq	%rdx, -16(%rbp)
	movq	16(%rcx), %rcx
	movq	%rcx, -8(%rbp)
	.loc	47 824 13 is_stmt 0
	movq	-24(%rbp), %rcx
	movq	%rcx, 8(%rax)
	movq	-16(%rbp), %rcx
	movq	%rcx, 16(%rax)
	movq	-8(%rbp), %rcx
	movq	%rcx, 24(%rax)
	movq	$1, (%rax)
	.loc	47 821 9 is_stmt 1
	jmp	LBB143_3
Ltmp914:
LBB143_2:
	.loc	47 0 9 is_stmt 0
	movq	-80(%rbp), %rax
	.loc	47 822 40 is_stmt 1
	movq	(%rax), %rsi
	movq	8(%rax), %rdx
	.loc	47 822 51 is_stmt 0
	movq	16(%rax), %rcx
	.loc	47 822 25
	leaq	-48(%rbp), %rdi
	callq	__ZN5alloc11collections5btree4node137Handle$LT$alloc..collections..btree..node..NodeRef$LT$BorrowType$C$K$C$V$C$NodeType$GT$$C$alloc..collections..btree..node..marker..KV$GT$6new_kv17h6674e7666367a1a8E
	movq	-72(%rbp), %rax
	.loc	47 822 13
	movq	-48(%rbp), %rcx
	movq	%rcx, 8(%rax)
	movq	-40(%rbp), %rcx
	movq	%rcx, 16(%rax)
	movq	-32(%rbp), %rcx
	movq	%rcx, 24(%rax)
	movq	$0, (%rax)
Ltmp915:
LBB143_3:
	.loc	47 0 13
	movq	-64(%rbp), %rax
	.loc	47 826 6 is_stmt 1
	addq	$80, %rsp
	popq	%rbp
	retq
Ltmp916:
Lfunc_end143:
	.cfi_endproc

	.p2align	4, 0x90
__ZN5alloc11collections5btree4node145Handle$LT$alloc..collections..btree..node..NodeRef$LT$BorrowType$C$K$C$V$C$alloc..collections..btree..node..marker..LeafOrInternal$GT$$C$Type$GT$5force17h77ff06403bcca2caE:
Lfunc_begin144:
	.loc	47 1561 0
	.cfi_startproc
	pushq	%rbp
	.cfi_def_cfa_offset 16
	.cfi_offset %rbp, -16
	movq	%rsp, %rbp
	.cfi_def_cfa_register %rbp
	subq	$128, %rsp
	movq	%rsi, %rax
	movq	%rax, -128(%rbp)
Ltmp917:
	movq	%rdi, -120(%rbp)
	movq	%rdi, -112(%rbp)
Ltmp918:
	.loc	47 1567 15 prologue_end
	movq	(%rax), %rsi
	movq	8(%rax), %rdx
	leaq	-104(%rbp), %rdi
	callq	__ZN5alloc11collections5btree4node91NodeRef$LT$BorrowType$C$K$C$V$C$alloc..collections..btree..node..marker..LeafOrInternal$GT$5force17h6689dd908345df7dE
Ltmp919:
	.loc	47 1567 9 is_stmt 0
	cmpq	$0, -104(%rbp)
Ltmp920:
	jne	LBB144_2
Ltmp921:
	.loc	47 0 9
	movq	-120(%rbp), %rax
	movq	-128(%rbp), %rcx
	.loc	47 1568 31 is_stmt 1
	movq	-96(%rbp), %rsi
	movq	-88(%rbp), %rdx
	movq	%rsi, -16(%rbp)
	movq	%rdx, -8(%rbp)
Ltmp922:
	.loc	47 1569 55
	movq	16(%rcx), %rcx
	.loc	47 1569 35 is_stmt 0
	movq	%rsi, -80(%rbp)
	movq	%rdx, -72(%rbp)
	movq	%rcx, -64(%rbp)
	.loc	47 1569 17
	movq	-80(%rbp), %rcx
	movq	%rcx, 8(%rax)
	movq	-72(%rbp), %rcx
	movq	%rcx, 16(%rax)
	movq	-64(%rbp), %rcx
	movq	%rcx, 24(%rax)
	movq	$0, (%rax)
Ltmp923:
	.loc	47 1570 13 is_stmt 1
	jmp	LBB144_3
Ltmp924:
LBB144_2:
	.loc	47 0 13 is_stmt 0
	movq	-120(%rbp), %rax
	movq	-128(%rbp), %rcx
	.loc	47 1571 35 is_stmt 1
	movq	-96(%rbp), %rsi
	movq	-88(%rbp), %rdx
	movq	%rsi, -32(%rbp)
	movq	%rdx, -24(%rbp)
Ltmp925:
	.loc	47 1572 59
	movq	16(%rcx), %rcx
	.loc	47 1572 39 is_stmt 0
	movq	%rsi, -56(%rbp)
	movq	%rdx, -48(%rbp)
	movq	%rcx, -40(%rbp)
	.loc	47 1572 17
	movq	-56(%rbp), %rcx
	movq	%rcx, 8(%rax)
	movq	-48(%rbp), %rcx
	movq	%rcx, 16(%rax)
	movq	-40(%rbp), %rcx
	movq	%rcx, 24(%rax)
	movq	$1, (%rax)
Ltmp926:
LBB144_3:
	.loc	47 0 17
	movq	-112(%rbp), %rax
	.loc	47 1575 6 is_stmt 1
	addq	$128, %rsp
	popq	%rbp
	retq
Ltmp927:
Lfunc_end144:
	.cfi_endproc

	.p2align	4, 0x90
__ZN5alloc11collections5btree4node173Handle$LT$alloc..collections..btree..node..NodeRef$LT$alloc..collections..btree..node..marker..Dying$C$K$C$V$C$NodeType$GT$$C$alloc..collections..btree..node..marker..KV$GT$12drop_key_val17h90e81be6e416d61bE:
Lfunc_begin145:
	.loc	47 1092 0
	.cfi_startproc
	pushq	%rbp
	.cfi_def_cfa_offset 16
	.cfi_offset %rbp, -16
	movq	%rsp, %rbp
	.cfi_def_cfa_register %rbp
	subq	$240, %rsp
	movq	%rdi, -224(%rbp)
Ltmp928:
	.loc	47 1094 20 prologue_end
	callq	__ZN5alloc11collections5btree4node76NodeRef$LT$alloc..collections..btree..node..marker..Dying$C$K$C$V$C$Type$GT$13as_leaf_dying17h7b0c82aea97e4849E
	movq	-224(%rbp), %rdi
	movq	%rax, -232(%rbp)
	movq	%rax, -216(%rbp)
Ltmp929:
	.loc	47 1096 13
	addq	$8, %rax
	movq	%rax, -208(%rbp)
	movq	$11, -200(%rbp)
	.loc	47 1096 41 is_stmt 0
	movq	16(%rdi), %rcx
	movq	%rcx, -192(%rbp)
Ltmp930:
	.loc	39 443 24 is_stmt 1
	movq	%rcx, -184(%rbp)
	.loc	39 443 48 is_stmt 0
	movq	%rax, -176(%rbp)
	movq	$11, -168(%rbp)
Ltmp931:
	.loc	1 253 13 is_stmt 1
	movq	%rax, -160(%rbp)
	movq	$11, -152(%rbp)
Ltmp932:
	.loc	5 2037 9
	movq	%rax, -144(%rbp)
Ltmp933:
	.loc	1 253 36
	movq	%rcx, -136(%rbp)
Ltmp934:
	.loc	5 1034 18
	movq	%rax, -128(%rbp)
	.loc	5 1034 30 is_stmt 0
	movq	%rcx, -120(%rbp)
Ltmp935:
	.loc	5 487 18 is_stmt 1
	imulq	$24, %rcx, %rcx
	addq	%rcx, %rax
	movq	%rax, -112(%rbp)
	movq	-112(%rbp), %rdi
Ltmp936:
	.loc	47 1096 13
	callq	__ZN4core3mem12maybe_uninit20MaybeUninit$LT$T$GT$16assume_init_drop17h3191bfe1a48c483bE
	movq	-232(%rbp), %rax
	movq	-224(%rbp), %rdi
	.loc	47 1097 13
	addq	$272, %rax
	movq	%rax, -104(%rbp)
	movq	$11, -96(%rbp)
	.loc	47 1097 41 is_stmt 0
	movq	16(%rdi), %rcx
	movq	%rcx, -88(%rbp)
Ltmp937:
	.loc	39 443 24 is_stmt 1
	movq	%rcx, -80(%rbp)
	.loc	39 443 48 is_stmt 0
	movq	%rax, -72(%rbp)
	movq	$11, -64(%rbp)
Ltmp938:
	.loc	1 253 13 is_stmt 1
	movq	%rax, -56(%rbp)
	movq	$11, -48(%rbp)
Ltmp939:
	.loc	5 2037 9
	movq	%rax, -40(%rbp)
Ltmp940:
	.loc	1 253 36
	movq	%rcx, -32(%rbp)
Ltmp941:
	.loc	5 1034 18
	movq	%rax, -24(%rbp)
	.loc	5 1034 30 is_stmt 0
	movq	%rcx, -16(%rbp)
Ltmp942:
	.loc	5 487 18 is_stmt 1
	imulq	$24, %rcx, %rcx
	addq	%rcx, %rax
	movq	%rax, -8(%rbp)
	movq	-8(%rbp), %rdi
Ltmp943:
	.loc	47 1097 13
	callq	__ZN4core3mem12maybe_uninit20MaybeUninit$LT$T$GT$16assume_init_drop17hc64175e5d1e2a224E
Ltmp944:
	.loc	47 1099 6
	addq	$240, %rsp
	popq	%rbp
	retq
Ltmp945:
Lfunc_end145:
	.cfi_endproc

	.p2align	4, 0x90
__ZN5alloc11collections5btree4node176Handle$LT$alloc..collections..btree..node..NodeRef$LT$BorrowType$C$K$C$V$C$alloc..collections..btree..node..marker..Leaf$GT$$C$alloc..collections..btree..node..marker..Edge$GT$16forget_node_type17haba8017bc6ed16dbE:
Lfunc_begin146:
	.loc	47 1536 0
	.cfi_startproc
	pushq	%rbp
	.cfi_def_cfa_offset 16
	.cfi_offset %rbp, -16
	movq	%rsp, %rbp
	.cfi_def_cfa_register %rbp
	subq	$32, %rsp
	movq	%rsi, -16(%rbp)
	movq	%rdi, -24(%rbp)
	movq	%rdi, -8(%rbp)
Ltmp946:
	.loc	47 1539 35 prologue_end
	movq	(%rsi), %rdi
	movq	8(%rsi), %rsi
	callq	__ZN5alloc11collections5btree4node81NodeRef$LT$BorrowType$C$K$C$V$C$alloc..collections..btree..node..marker..Leaf$GT$11forget_type17hb4490c8bb7305a10E
	movq	-24(%rbp), %rdi
	movq	%rax, %rsi
	movq	-16(%rbp), %rax
	.loc	47 1539 60 is_stmt 0
	movq	16(%rax), %rcx
	.loc	47 1539 18
	callq	__ZN5alloc11collections5btree4node139Handle$LT$alloc..collections..btree..node..NodeRef$LT$BorrowType$C$K$C$V$C$NodeType$GT$$C$alloc..collections..btree..node..marker..Edge$GT$8new_edge17h1941c53aa5c58dc3E
	movq	-8(%rbp), %rax
	.loc	47 1540 6 is_stmt 1
	addq	$32, %rsp
	popq	%rbp
	retq
Ltmp947:
Lfunc_end146:
	.cfi_endproc

	.p2align	4, 0x90
__ZN5alloc11collections5btree4node180Handle$LT$alloc..collections..btree..node..NodeRef$LT$BorrowType$C$K$C$V$C$alloc..collections..btree..node..marker..Internal$GT$$C$alloc..collections..btree..node..marker..Edge$GT$16forget_node_type17h0475b8d8a77e495cE:
Lfunc_begin147:
	.loc	47 1544 0
	.cfi_startproc
	pushq	%rbp
	.cfi_def_cfa_offset 16
	.cfi_offset %rbp, -16
	movq	%rsp, %rbp
	.cfi_def_cfa_register %rbp
	subq	$32, %rsp
	movq	%rsi, -16(%rbp)
	movq	%rdi, -24(%rbp)
	movq	%rdi, -8(%rbp)
Ltmp948:
	.loc	47 1547 35 prologue_end
	movq	(%rsi), %rdi
	movq	8(%rsi), %rsi
	callq	__ZN5alloc11collections5btree4node85NodeRef$LT$BorrowType$C$K$C$V$C$alloc..collections..btree..node..marker..Internal$GT$11forget_type17hd2e2d30177ffcaa3E
	movq	-24(%rbp), %rdi
	movq	%rax, %rsi
	movq	-16(%rbp), %rax
	.loc	47 1547 60 is_stmt 0
	movq	16(%rax), %rcx
	.loc	47 1547 18
	callq	__ZN5alloc11collections5btree4node139Handle$LT$alloc..collections..btree..node..NodeRef$LT$BorrowType$C$K$C$V$C$NodeType$GT$$C$alloc..collections..btree..node..marker..Edge$GT$8new_edge17h1941c53aa5c58dc3E
	movq	-8(%rbp), %rax
	.loc	47 1548 6 is_stmt 1
	addq	$32, %rsp
	popq	%rbp
	retq
Ltmp949:
Lfunc_end147:
	.cfi_endproc

	.p2align	4, 0x90
__ZN5alloc11collections5btree4node180Handle$LT$alloc..collections..btree..node..NodeRef$LT$BorrowType$C$K$C$V$C$alloc..collections..btree..node..marker..Internal$GT$$C$alloc..collections..btree..node..marker..Edge$GT$7descend17h1ad0f00b61b95017E:
Lfunc_begin148:
	.loc	47 1008 0
	.cfi_startproc
	pushq	%rbp
	.cfi_def_cfa_offset 16
	.cfi_offset %rbp, -16
	movq	%rsp, %rbp
	.cfi_def_cfa_register %rbp
	subq	$208, %rsp
	movq	%rdi, -208(%rbp)
Ltmp950:
	.loc	47 1020 26 prologue_end
	callq	__ZN5alloc11collections5btree4node85NodeRef$LT$BorrowType$C$K$C$V$C$alloc..collections..btree..node..marker..Internal$GT$15as_internal_ptr17haca02a4ed27191a1E
	movq	-208(%rbp), %rdi
	movq	%rax, -176(%rbp)
Ltmp951:
	.loc	47 1021 29
	movq	%rax, %rdx
	addq	$544, %rdx
	movq	%rdx, -168(%rbp)
	movq	$12, -160(%rbp)
	.loc	47 1021 63 is_stmt 0
	movq	16(%rdi), %rcx
	movq	%rcx, -152(%rbp)
Ltmp952:
	.loc	39 405 20 is_stmt 1
	movq	%rcx, -144(%rbp)
	.loc	39 405 40 is_stmt 0
	movq	%rdx, -136(%rbp)
	movq	$12, -128(%rbp)
Ltmp953:
	.loc	1 240 13 is_stmt 1
	movq	%rdx, -120(%rbp)
	movq	$12, -112(%rbp)
Ltmp954:
	.loc	2 1650 9
	movq	%rdx, -104(%rbp)
Ltmp955:
	.loc	1 240 32
	movq	%rcx, -96(%rbp)
Ltmp956:
	.loc	2 932 18
	movq	%rdx, -88(%rbp)
	.loc	2 932 30 is_stmt 0
	movq	%rcx, -80(%rbp)
Ltmp957:
	.loc	2 473 18 is_stmt 1
	leaq	544(%rax,%rcx,8), %rax
	movq	%rax, -72(%rbp)
	movq	-72(%rbp), %rax
Ltmp958:
	.loc	47 1021 29
	movq	%rax, -64(%rbp)
Ltmp959:
	.loc	28 697 13
	movq	%rax, -56(%rbp)
Ltmp960:
	.loc	28 530 9
	movq	%rax, -48(%rbp)
Ltmp961:
	.loc	2 1216 23
	movq	%rax, -40(%rbp)
	leaq	-184(%rbp), %rcx
Ltmp962:
	.loc	3 1157 34
	movq	%rcx, -32(%rbp)
	.loc	3 1157 9 is_stmt 0
	movq	(%rax), %rax
	movq	%rax, -184(%rbp)
	.loc	3 1158 9 is_stmt 1
	movq	-184(%rbp), %rax
	movq	%rax, -24(%rbp)
Ltmp963:
	.loc	28 627 38
	movq	%rax, -16(%rbp)
Ltmp964:
	.loc	7 89 9
	movq	%rax, -8(%rbp)
Ltmp965:
	.loc	47 1022 33
	movq	(%rdi), %rcx
	decq	%rcx
	.loc	47 1022 9 is_stmt 0
	movq	%rcx, -200(%rbp)
	movq	%rax, -192(%rbp)
Ltmp966:
	.loc	47 1023 6 is_stmt 1
	movq	-200(%rbp), %rax
	movq	-192(%rbp), %rdx
	addq	$208, %rsp
	popq	%rbp
	retq
Ltmp967:
Lfunc_end148:
	.cfi_endproc

	.p2align	4, 0x90
__ZN5alloc11collections5btree4node25Handle$LT$Node$C$Type$GT$9into_node17h8b035f254c26e043E:
Lfunc_begin149:
	.loc	47 742 0
	.cfi_startproc
	pushq	%rbp
	.cfi_def_cfa_offset 16
	.cfi_offset %rbp, -16
	movq	%rsp, %rbp
	.cfi_def_cfa_register %rbp
Ltmp968:
	.loc	47 743 9 prologue_end
	movq	(%rdi), %rax
	movq	8(%rdi), %rdx
	.loc	47 744 6
	popq	%rbp
	retq
Ltmp969:
Lfunc_end149:
	.cfi_endproc

	.p2align	4, 0x90
__ZN5alloc11collections5btree4node40NodeRef$LT$BorrowType$C$K$C$V$C$Type$GT$10first_edge17h4081a8d1e04c599bE:
Lfunc_begin150:
	.loc	47 338 0
	.cfi_startproc
	pushq	%rbp
	.cfi_def_cfa_offset 16
	.cfi_offset %rbp, -16
	movq	%rsp, %rbp
	.cfi_def_cfa_register %rbp
	subq	$32, %rsp
	movq	%rdi, %rax
	movq	%rax, -24(%rbp)
	movq	%rsi, -16(%rbp)
	movq	%rdx, -8(%rbp)
Ltmp970:
	.loc	47 339 18 prologue_end
	xorl	%eax, %eax
	movl	%eax, %ecx
	callq	__ZN5alloc11collections5btree4node139Handle$LT$alloc..collections..btree..node..NodeRef$LT$BorrowType$C$K$C$V$C$NodeType$GT$$C$alloc..collections..btree..node..marker..Edge$GT$8new_edge17h154cfdd3a4fcc1fbE
	movq	-24(%rbp), %rax
	.loc	47 340 6
	addq	$32, %rsp
	popq	%rbp
	retq
Ltmp971:
Lfunc_end150:
	.cfi_endproc

	.p2align	4, 0x90
__ZN5alloc11collections5btree4node40NodeRef$LT$BorrowType$C$K$C$V$C$Type$GT$10first_edge17h91d5df6ed3c3204cE:
Lfunc_begin151:
	.loc	47 338 0
	.cfi_startproc
	pushq	%rbp
	.cfi_def_cfa_offset 16
	.cfi_offset %rbp, -16
	movq	%rsp, %rbp
	.cfi_def_cfa_register %rbp
	subq	$32, %rsp
	movq	%rdi, %rax
	movq	%rax, -24(%rbp)
	movq	%rsi, -16(%rbp)
	movq	%rdx, -8(%rbp)
Ltmp972:
	.loc	47 339 18 prologue_end
	xorl	%eax, %eax
	movl	%eax, %ecx
	callq	__ZN5alloc11collections5btree4node139Handle$LT$alloc..collections..btree..node..NodeRef$LT$BorrowType$C$K$C$V$C$NodeType$GT$$C$alloc..collections..btree..node..marker..Edge$GT$8new_edge17h64a347fb0fcaa039E
	movq	-24(%rbp), %rax
	.loc	47 340 6
	addq	$32, %rsp
	popq	%rbp
	retq
Ltmp973:
Lfunc_end151:
	.cfi_endproc

	.p2align	4, 0x90
__ZN5alloc11collections5btree4node40NodeRef$LT$BorrowType$C$K$C$V$C$Type$GT$11as_leaf_ptr17h6d90c7d4336d3909E:
Lfunc_begin152:
	.loc	47 300 0
	.cfi_startproc
	pushq	%rbp
	.cfi_def_cfa_offset 16
	.cfi_offset %rbp, -16
	movq	%rsp, %rbp
	.cfi_def_cfa_register %rbp
	subq	$16, %rsp
	movq	%rdi, -16(%rbp)
Ltmp974:
	.loc	47 304 9 prologue_end
	movq	8(%rdi), %rax
	movq	%rax, -8(%rbp)
	.loc	47 305 6
	addq	$16, %rsp
	popq	%rbp
	retq
Ltmp975:
Lfunc_end152:
	.cfi_endproc

	.p2align	4, 0x90
__ZN5alloc11collections5btree4node40NodeRef$LT$BorrowType$C$K$C$V$C$Type$GT$3len17hc48bca8258849bc1E:
Lfunc_begin153:
	.loc	47 277 0
	.cfi_startproc
	pushq	%rbp
	.cfi_def_cfa_offset 16
	.cfi_offset %rbp, -16
	movq	%rsp, %rbp
	.cfi_def_cfa_register %rbp
	subq	$16, %rsp
	movq	%rdi, -16(%rbp)
Ltmp976:
	.loc	47 280 32 prologue_end
	callq	__ZN5alloc11collections5btree4node40NodeRef$LT$BorrowType$C$K$C$V$C$Type$GT$11as_leaf_ptr17h6d90c7d4336d3909E
	.loc	47 280 30 is_stmt 0
	movw	538(%rax), %ax
	movw	%ax, -2(%rbp)
Ltmp977:
	.file	48 "/rustc/2c8cc343237b8f7d5a3c3703e3a87f2eb2c54a74/library/core/src/convert" "num.rs"
	.loc	48 54 17 is_stmt 1
	movzwl	%ax, %eax
Ltmp978:
	.loc	47 281 6
	addq	$16, %rsp
	popq	%rbp
	retq
Ltmp979:
Lfunc_end153:
	.cfi_endproc

	.p2align	4, 0x90
__ZN5alloc11collections5btree4node40NodeRef$LT$BorrowType$C$K$C$V$C$Type$GT$6ascend17h24f217f7e4abffe0E:
Lfunc_begin154:
	.loc	47 318 0
	.cfi_startproc
	pushq	%rbp
	.cfi_def_cfa_offset 16
	.cfi_offset %rbp, -16
	movq	%rsp, %rbp
	.cfi_def_cfa_register %rbp
	subq	$192, %rsp
	movq	%rdi, -176(%rbp)
	movq	%rdi, -168(%rbp)
	movq	%rsi, -160(%rbp)
	movq	%rdx, -152(%rbp)
Ltmp980:
	.loc	47 327 34 prologue_end
	leaq	-160(%rbp), %rdi
	callq	__ZN5alloc11collections5btree4node40NodeRef$LT$BorrowType$C$K$C$V$C$Type$GT$11as_leaf_ptr17h6d90c7d4336d3909E
	movq	%rax, -144(%rbp)
Ltmp981:
	.loc	47 328 18
	movq	-144(%rbp), %rax
	movq	(%rax), %rax
	movq	%rax, -104(%rbp)
	.loc	47 328 9 is_stmt 0
	leaq	-104(%rbp), %rax
	movq	%rax, -32(%rbp)
Ltmp982:
	.loc	8 675 15 is_stmt 1
	movq	-104(%rbp), %rdx
	movl	$1, %eax
	xorl	%ecx, %ecx
	cmpq	$0, %rdx
	cmoveq	%rcx, %rax
	.loc	8 675 9 is_stmt 0
	cmpq	$0, %rax
	jne	LBB154_2
	.loc	8 677 21 is_stmt 1
	movq	$0, -112(%rbp)
	jmp	LBB154_3
LBB154_2:
	.loc	8 676 18
	leaq	-104(%rbp), %rax
	movq	%rax, -24(%rbp)
Ltmp983:
	.loc	8 676 28 is_stmt 0
	leaq	-104(%rbp), %rax
	movq	%rax, -112(%rbp)
Ltmp984:
LBB154_3:
	.loc	47 330 18 is_stmt 1
	leaq	-160(%rbp), %rax
	movq	%rax, -96(%rbp)
	leaq	-144(%rbp), %rax
	movq	%rax, -88(%rbp)
	.loc	47 328 9
	movq	-112(%rbp), %rsi
	movq	-96(%rbp), %rdx
	movq	-88(%rbp), %rcx
	leaq	-136(%rbp), %rdi
	callq	__ZN4core6option15Option$LT$T$GT$3map17ha0e45421262b2e27E
	.loc	47 335 20
	movq	-160(%rbp), %rcx
	movq	%rcx, -192(%rbp)
	movq	-152(%rbp), %rax
	movq	%rax, -184(%rbp)
	movq	%rcx, -16(%rbp)
	movq	%rax, -8(%rbp)
Ltmp985:
	.loc	8 1096 15
	movq	-128(%rbp), %rdx
	movl	$1, %eax
	xorl	%ecx, %ecx
	cmpq	$0, %rdx
	cmoveq	%rcx, %rax
	.loc	8 1096 9 is_stmt 0
	cmpq	$0, %rax
	jne	LBB154_5
	.loc	8 0 9
	movq	-176(%rbp), %rax
	movq	-184(%rbp), %rcx
	movq	-192(%rbp), %rdx
	.loc	8 1098 21 is_stmt 1
	movq	%rdx, 8(%rax)
	movq	%rcx, 16(%rax)
	movq	$1, (%rax)
	.loc	8 1098 28 is_stmt 0
	jmp	LBB154_6
LBB154_5:
	.loc	8 0 28
	movq	-176(%rbp), %rax
	.loc	8 1097 18 is_stmt 1
	movq	-136(%rbp), %rcx
	movq	%rcx, -80(%rbp)
	movq	-128(%rbp), %rcx
	movq	%rcx, -72(%rbp)
	movq	-120(%rbp), %rcx
	movq	%rcx, -64(%rbp)
Ltmp986:
	.loc	8 1097 27 is_stmt 0
	movq	-80(%rbp), %rcx
	movq	%rcx, -56(%rbp)
	movq	-72(%rbp), %rcx
	movq	%rcx, -48(%rbp)
	movq	-64(%rbp), %rcx
	movq	%rcx, -40(%rbp)
	.loc	8 1097 24
	movq	-56(%rbp), %rcx
	movq	%rcx, 8(%rax)
	movq	-48(%rbp), %rcx
	movq	%rcx, 16(%rax)
	movq	-40(%rbp), %rcx
	movq	%rcx, 24(%rax)
	movq	$0, (%rax)
Ltmp987:
LBB154_6:
	.loc	8 0 24
	movq	-168(%rbp), %rax
	.loc	47 336 6 is_stmt 1
	addq	$192, %rsp
	popq	%rbp
	retq
Ltmp988:
Lfunc_end154:
	.cfi_endproc

	.p2align	4, 0x90
__ZN5alloc11collections5btree4node40NodeRef$LT$BorrowType$C$K$C$V$C$Type$GT$6ascend28_$u7b$$u7b$closure$u7d$$u7d$17h8693d551063b11c4E:
Lfunc_begin155:
	.loc	47 330 0
	.cfi_startproc
	pushq	%rbp
	.cfi_def_cfa_offset 16
	.cfi_offset %rbp, -16
	movq	%rsp, %rbp
	.cfi_def_cfa_register %rbp
	subq	$48, %rsp
	movq	%rdi, -48(%rbp)
	movq	%rdi, -40(%rbp)
	movq	%rsi, -32(%rbp)
	movq	%rdx, -24(%rbp)
	movq	%rcx, -16(%rbp)
Ltmp989:
	.loc	47 331 46 prologue_end
	movq	(%rcx), %rdi
	.loc	47 331 55 is_stmt 0
	movq	-32(%rbp), %rax
	movq	(%rax), %rsi
	addq	$1, %rsi
	.loc	47 331 23
	callq	__ZN5alloc11collections5btree4node85NodeRef$LT$BorrowType$C$K$C$V$C$alloc..collections..btree..node..marker..Internal$GT$13from_internal17hf5cb1bdeecff33e8E
	movq	-48(%rbp), %rdi
	movq	%rax, %rsi
	movq	-40(%rbp), %rax
	.loc	47 332 43 is_stmt 1
	movq	-24(%rbp), %rcx
	movq	(%rcx), %rcx
	movw	536(%rcx), %cx
	movw	%cx, -6(%rbp)
Ltmp990:
	.loc	28 627 38
	movw	%cx, -4(%rbp)
Ltmp991:
	.loc	7 89 9
	movw	%cx, -2(%rbp)
Ltmp992:
	.loc	48 54 17
	movzwl	%cx, %ecx
Ltmp993:
	.loc	47 330 27
	movq	%rsi, (%rdi)
	movq	%rdx, 8(%rdi)
	movq	%rcx, 16(%rdi)
	.loc	47 334 14
	addq	$48, %rsp
	popq	%rbp
	retq
Ltmp994:
Lfunc_end155:
	.cfi_endproc

	.p2align	4, 0x90
__ZN5alloc11collections5btree4node76NodeRef$LT$alloc..collections..btree..node..marker..Dying$C$K$C$V$C$Type$GT$13as_leaf_dying17h7b0c82aea97e4849E:
Lfunc_begin156:
	.loc	47 449 0
	.cfi_startproc
	pushq	%rbp
	.cfi_def_cfa_offset 16
	.cfi_offset %rbp, -16
	movq	%rsp, %rbp
	.cfi_def_cfa_register %rbp
	subq	$16, %rsp
	movq	%rdi, -16(%rbp)
Ltmp995:
	.loc	47 450 19 prologue_end
	callq	__ZN5alloc11collections5btree4node40NodeRef$LT$BorrowType$C$K$C$V$C$Type$GT$11as_leaf_ptr17h6d90c7d4336d3909E
	movq	%rax, -8(%rbp)
	.loc	47 453 6
	addq	$16, %rsp
	popq	%rbp
	retq
Ltmp996:
Lfunc_end156:
	.cfi_endproc

	.p2align	4, 0x90
__ZN5alloc11collections5btree4node76NodeRef$LT$alloc..collections..btree..node..marker..Owned$C$K$C$V$C$Type$GT$10into_dying17h5b185710f539889fE:
Lfunc_begin157:
	.loc	47 626 0
	.cfi_startproc
	pushq	%rbp
	.cfi_def_cfa_offset 16
	.cfi_offset %rbp, -16
	movq	%rsp, %rbp
	.cfi_def_cfa_register %rbp
	subq	$32, %rsp
	movq	%rdi, -16(%rbp)
	movq	%rsi, -8(%rbp)
Ltmp997:
	.loc	47 627 9 prologue_end
	movq	%rdi, -32(%rbp)
	movq	%rsi, -24(%rbp)
	.loc	47 628 6
	movq	-32(%rbp), %rax
	movq	-24(%rbp), %rdx
	addq	$32, %rsp
	popq	%rbp
	retq
Ltmp998:
Lfunc_end157:
	.cfi_endproc

	.p2align	4, 0x90
__ZN5alloc11collections5btree4node81NodeRef$LT$BorrowType$C$K$C$V$C$alloc..collections..btree..node..marker..Leaf$GT$11forget_type17hb4490c8bb7305a10E:
Lfunc_begin158:
	.loc	47 667 0
	.cfi_startproc
	pushq	%rbp
	.cfi_def_cfa_offset 16
	.cfi_offset %rbp, -16
	movq	%rsp, %rbp
	.cfi_def_cfa_register %rbp
	subq	$32, %rsp
	movq	%rdi, -16(%rbp)
	movq	%rsi, -8(%rbp)
Ltmp999:
	.loc	47 668 9 prologue_end
	movq	%rdi, -32(%rbp)
	movq	%rsi, -24(%rbp)
	.loc	47 669 6
	movq	-32(%rbp), %rax
	movq	-24(%rbp), %rdx
	addq	$32, %rsp
	popq	%rbp
	retq
Ltmp1000:
Lfunc_end158:
	.cfi_endproc

	.p2align	4, 0x90
__ZN5alloc11collections5btree4node85NodeRef$LT$BorrowType$C$K$C$V$C$alloc..collections..btree..node..marker..Internal$GT$11forget_type17hd2e2d30177ffcaa3E:
Lfunc_begin159:
	.loc	47 674 0
	.cfi_startproc
	pushq	%rbp
	.cfi_def_cfa_offset 16
	.cfi_offset %rbp, -16
	movq	%rsp, %rbp
	.cfi_def_cfa_register %rbp
	subq	$32, %rsp
	movq	%rdi, -16(%rbp)
	movq	%rsi, -8(%rbp)
Ltmp1001:
	.loc	47 675 9 prologue_end
	movq	%rdi, -32(%rbp)
	movq	%rsi, -24(%rbp)
	.loc	47 676 6
	movq	-32(%rbp), %rax
	movq	-24(%rbp), %rdx
	addq	$32, %rsp
	popq	%rbp
	retq
Ltmp1002:
Lfunc_end159:
	.cfi_endproc

	.p2align	4, 0x90
__ZN5alloc11collections5btree4node85NodeRef$LT$BorrowType$C$K$C$V$C$alloc..collections..btree..node..marker..Internal$GT$13from_internal17hf5cb1bdeecff33e8E:
Lfunc_begin160:
	.loc	47 248 0
	.cfi_startproc
	pushq	%rbp
	.cfi_def_cfa_offset 16
	.cfi_offset %rbp, -16
	movq	%rsp, %rbp
	.cfi_def_cfa_register %rbp
	subq	$64, %rsp
	movq	%rdi, -40(%rbp)
	movq	%rsi, -32(%rbp)
Ltmp1003:
	.loc	47 250 33 prologue_end
	movq	%rdi, -24(%rbp)
Ltmp1004:
	.loc	9 450 41
	movq	%rdi, -16(%rbp)
	movq	%rdi, -8(%rbp)
Ltmp1005:
	.loc	9 201 13
	movq	%rdi, -48(%rbp)
Ltmp1006:
	.loc	47 250 9
	movq	%rsi, -64(%rbp)
	movq	-48(%rbp), %rax
	movq	%rax, -56(%rbp)
	.loc	47 251 6
	movq	-64(%rbp), %rax
	movq	-56(%rbp), %rdx
	addq	$64, %rsp
	popq	%rbp
	retq
Ltmp1007:
Lfunc_end160:
	.cfi_endproc

	.p2align	4, 0x90
__ZN5alloc11collections5btree4node85NodeRef$LT$BorrowType$C$K$C$V$C$alloc..collections..btree..node..marker..Internal$GT$15as_internal_ptr17haca02a4ed27191a1E:
Lfunc_begin161:
	.loc	47 258 0
	.cfi_startproc
	pushq	%rbp
	.cfi_def_cfa_offset 16
	.cfi_offset %rbp, -16
	movq	%rsp, %rbp
	.cfi_def_cfa_register %rbp
	subq	$16, %rsp
	movq	%rdi, -16(%rbp)
Ltmp1008:
	.loc	47 260 9 prologue_end
	movq	8(%rdi), %rax
	movq	%rax, -8(%rbp)
	.loc	47 261 6
	addq	$16, %rsp
	popq	%rbp
	retq
Ltmp1009:
Lfunc_end161:
	.cfi_endproc

	.p2align	4, 0x90
__ZN5alloc11collections5btree4node91NodeRef$LT$BorrowType$C$K$C$V$C$alloc..collections..btree..node..marker..LeafOrInternal$GT$5force17h6689dd908345df7dE:
Lfunc_begin162:
	.loc	47 681 0
	.cfi_startproc
	pushq	%rbp
	.cfi_def_cfa_offset 16
	.cfi_offset %rbp, -16
	movq	%rsp, %rbp
	.cfi_def_cfa_register %rbp
	subq	$80, %rsp
	movq	%rdx, -80(%rbp)
	movq	%rsi, -72(%rbp)
	movq	%rdi, -64(%rbp)
	movq	%rdi, -56(%rbp)
	movq	%rsi, -16(%rbp)
	movq	%rdx, -8(%rbp)
Ltmp1010:
	.loc	47 687 12 prologue_end
	cmpq	$0, %rsi
	jne	LBB162_2
	.loc	47 0 12 is_stmt 0
	movq	-64(%rbp), %rax
	movq	-80(%rbp), %rcx
	movq	-72(%rbp), %rdx
	.loc	47 688 31 is_stmt 1
	movq	%rdx, -48(%rbp)
	movq	%rcx, -40(%rbp)
	.loc	47 688 13 is_stmt 0
	movq	-48(%rbp), %rdx
	movq	-40(%rbp), %rcx
	movq	%rdx, 8(%rax)
	movq	%rcx, 16(%rax)
	movq	$0, (%rax)
	.loc	47 687 9 is_stmt 1
	jmp	LBB162_3
LBB162_2:
	.loc	47 0 9 is_stmt 0
	movq	-64(%rbp), %rax
	movq	-80(%rbp), %rcx
	movq	-72(%rbp), %rdx
	.loc	47 694 35 is_stmt 1
	movq	%rdx, -32(%rbp)
	movq	%rcx, -24(%rbp)
	.loc	47 694 13 is_stmt 0
	movq	-32(%rbp), %rdx
	movq	-24(%rbp), %rcx
	movq	%rdx, 8(%rax)
	movq	%rcx, 16(%rax)
	movq	$1, (%rax)
LBB162_3:
	.loc	47 0 13
	movq	-56(%rbp), %rax
	.loc	47 700 6 is_stmt 1
	addq	$80, %rsp
	popq	%rbp
	retq
Ltmp1011:
Lfunc_end162:
	.cfi_endproc

	.p2align	4, 0x90
__ZN5alloc11collections5btree8navigate10full_range17h64f3dd96665d938bE:
Lfunc_begin163:
	.file	49 "/rustc/2c8cc343237b8f7d5a3c3703e3a87f2eb2c54a74/library/alloc/src/collections/btree" "navigate.rs"
	.loc	49 289 0
	.cfi_startproc
	pushq	%rbp
	.cfi_def_cfa_offset 16
	.cfi_offset %rbp, -16
	movq	%rsp, %rbp
	.cfi_def_cfa_register %rbp
	subq	$160, %rsp
	movq	%rdi, %rax
	movq	%rsi, -32(%rbp)
	movq	%rdx, -24(%rbp)
	movq	%rcx, -16(%rbp)
	movq	%r8, -8(%rbp)
Ltmp1012:
	.loc	49 294 21 prologue_end
	movq	%rsi, -120(%rbp)
	movq	%rdx, -112(%rbp)
	movq	$0, -128(%rbp)
	.loc	49 294 16 is_stmt 0
	movq	-128(%rbp), %rdx
	movq	%rdx, -160(%rbp)
	movq	-120(%rbp), %rdx
	movq	%rdx, -152(%rbp)
	movq	-112(%rbp), %rdx
	movq	%rdx, -144(%rbp)
	movq	-104(%rbp), %rdx
	movq	%rdx, -136(%rbp)
	.loc	49 295 20 is_stmt 1
	movq	%rcx, -56(%rbp)
	movq	%r8, -48(%rbp)
	movq	$0, -64(%rbp)
	.loc	49 295 15 is_stmt 0
	movq	-64(%rbp), %rcx
	movq	%rcx, -96(%rbp)
	movq	-56(%rbp), %rcx
	movq	%rcx, -88(%rbp)
	movq	-48(%rbp), %rcx
	movq	%rcx, -80(%rbp)
	movq	-40(%rbp), %rcx
	movq	%rcx, -72(%rbp)
	.loc	49 293 5 is_stmt 1
	movq	-160(%rbp), %rcx
	movq	%rcx, (%rdi)
	movq	-152(%rbp), %rcx
	movq	%rcx, 8(%rdi)
	movq	-144(%rbp), %rcx
	movq	%rcx, 16(%rdi)
	movq	-136(%rbp), %rcx
	movq	%rcx, 24(%rdi)
	movq	-96(%rbp), %rcx
	movq	%rcx, 32(%rdi)
	movq	-88(%rbp), %rcx
	movq	%rcx, 40(%rdi)
	movq	-80(%rbp), %rcx
	movq	%rcx, 48(%rdi)
	movq	-72(%rbp), %rcx
	movq	%rcx, 56(%rdi)
	.loc	49 297 2
	addq	$160, %rsp
	popq	%rbp
	retq
Ltmp1013:
Lfunc_end163:
	.cfi_endproc

	.p2align	4, 0x90
__ZN5alloc11collections5btree8navigate142_$LT$impl$u20$alloc..collections..btree..node..NodeRef$LT$BorrowType$C$K$C$V$C$alloc..collections..btree..node..marker..LeafOrInternal$GT$$GT$15first_leaf_edge17h993c5776ab469301E:
Lfunc_begin164:
	.loc	49 618 0
	.cfi_startproc
	pushq	%rbp
	.cfi_def_cfa_offset 16
	.cfi_offset %rbp, -16
	movq	%rsp, %rbp
	.cfi_def_cfa_register %rbp
	subq	$128, %rsp
	movq	%rdi, -128(%rbp)
	movq	%rdi, -120(%rbp)
	movq	%rsi, -48(%rbp)
	movq	%rdx, -40(%rbp)
Ltmp1014:
	.loc	49 619 24 prologue_end
	movq	%rsi, -112(%rbp)
	movq	%rdx, -104(%rbp)
LBB164_1:
Ltmp1015:
	.loc	49 621 19
	movq	-112(%rbp), %rsi
	movq	-104(%rbp), %rdx
	leaq	-96(%rbp), %rdi
	callq	__ZN5alloc11collections5btree4node91NodeRef$LT$BorrowType$C$K$C$V$C$alloc..collections..btree..node..marker..LeafOrInternal$GT$5force17h6689dd908345df7dE
	.loc	49 621 13 is_stmt 0
	cmpq	$0, -96(%rbp)
	jne	LBB164_3
	.loc	49 0 13
	movq	-128(%rbp), %rdi
	.loc	49 622 22 is_stmt 1
	movq	-88(%rbp), %rsi
	movq	-80(%rbp), %rdx
	movq	%rsi, -16(%rbp)
	movq	%rdx, -8(%rbp)
Ltmp1016:
	.loc	49 622 38 is_stmt 0
	callq	__ZN5alloc11collections5btree4node40NodeRef$LT$BorrowType$C$K$C$V$C$Type$GT$10first_edge17h91d5df6ed3c3204cE
	movq	-120(%rbp), %rax
Ltmp1017:
	.loc	49 626 6 is_stmt 1
	addq	$128, %rsp
	popq	%rbp
	retq
LBB164_3:
Ltmp1018:
	.loc	49 623 26
	movq	-88(%rbp), %rsi
	movq	-80(%rbp), %rdx
	movq	%rsi, -32(%rbp)
	movq	%rdx, -24(%rbp)
Ltmp1019:
	.loc	49 623 46 is_stmt 0
	leaq	-72(%rbp), %rdi
	callq	__ZN5alloc11collections5btree4node40NodeRef$LT$BorrowType$C$K$C$V$C$Type$GT$10first_edge17h4081a8d1e04c599bE
	leaq	-72(%rbp), %rdi
	callq	__ZN5alloc11collections5btree4node180Handle$LT$alloc..collections..btree..node..NodeRef$LT$BorrowType$C$K$C$V$C$alloc..collections..btree..node..marker..Internal$GT$$C$alloc..collections..btree..node..marker..Edge$GT$7descend17h1ad0f00b61b95017E
	.loc	49 623 39
	movq	%rax, -112(%rbp)
	movq	%rdx, -104(%rbp)
Ltmp1020:
	.loc	49 620 9 is_stmt 1
	jmp	LBB164_1
Ltmp1021:
Lfunc_end164:
	.cfi_endproc

	.p2align	4, 0x90
__ZN5alloc11collections5btree8navigate178_$LT$impl$u20$alloc..collections..btree..node..NodeRef$LT$alloc..collections..btree..node..marker..Dying$C$K$C$V$C$alloc..collections..btree..node..marker..LeafOrInternal$GT$$GT$10full_range17h1efdc09badd4ddb8E:
Lfunc_begin165:
	.loc	49 354 0
	.cfi_startproc
	pushq	%rbp
	.cfi_def_cfa_offset 16
	.cfi_offset %rbp, -16
	movq	%rsp, %rbp
	.cfi_def_cfa_register %rbp
	subq	$112, %rsp
	movq	%rdi, %rax
	movq	%rax, -104(%rbp)
	movq	%rsi, -96(%rbp)
	movq	%rdx, -88(%rbp)
Ltmp1022:
	.loc	49 357 40 prologue_end
	leaq	-96(%rbp), %rax
	movq	%rax, -64(%rbp)
Ltmp1023:
	.loc	3 1157 34
	leaq	-80(%rbp), %rax
	movq	%rax, -56(%rbp)
	.loc	3 1157 9 is_stmt 0
	movq	-96(%rbp), %rax
	movq	%rax, -80(%rbp)
	movq	-88(%rbp), %rax
	movq	%rax, -72(%rbp)
	.loc	3 1158 9 is_stmt 1
	movq	-80(%rbp), %rcx
	movq	-72(%rbp), %r8
	movq	%rcx, -48(%rbp)
	movq	%r8, -40(%rbp)
Ltmp1024:
	.loc	28 627 38
	movq	%rcx, -32(%rbp)
	movq	%r8, -24(%rbp)
Ltmp1025:
	.loc	7 89 9
	movq	%rcx, -16(%rbp)
	movq	%r8, -8(%rbp)
Ltmp1026:
	.loc	49 358 20
	movq	-96(%rbp), %rsi
	movq	-88(%rbp), %rdx
	.loc	49 358 9 is_stmt 0
	callq	__ZN5alloc11collections5btree8navigate10full_range17h64f3dd96665d938bE
	movq	-104(%rbp), %rax
Ltmp1027:
	.loc	49 359 6 is_stmt 1
	addq	$112, %rsp
	popq	%rbp
	retq
Ltmp1028:
Lfunc_end165:
	.cfi_endproc

	.p2align	4, 0x90
__ZN5alloc11collections5btree8navigate235_$LT$impl$u20$alloc..collections..btree..node..Handle$LT$alloc..collections..btree..node..NodeRef$LT$BorrowType$C$K$C$V$C$alloc..collections..btree..node..marker..LeafOrInternal$GT$$C$alloc..collections..btree..node..marker..KV$GT$$GT$14next_leaf_edge17h49e7ba5f4111addcE:
Lfunc_begin166:
	.loc	49 699 0
	.cfi_startproc
	pushq	%rbp
	.cfi_def_cfa_offset 16
	.cfi_offset %rbp, -16
	movq	%rsp, %rbp
	.cfi_def_cfa_register %rbp
	subq	$224, %rsp
	movq	%rdi, -216(%rbp)
	movq	%rdi, -208(%rbp)
Ltmp1029:
	.loc	49 700 15 prologue_end
	movq	(%rsi), %rax
	movq	%rax, -168(%rbp)
	movq	8(%rsi), %rax
	movq	%rax, -160(%rbp)
	movq	16(%rsi), %rax
	movq	%rax, -152(%rbp)
	leaq	-200(%rbp), %rdi
	leaq	-168(%rbp), %rsi
Ltmp1030:
	callq	__ZN5alloc11collections5btree4node145Handle$LT$alloc..collections..btree..node..NodeRef$LT$BorrowType$C$K$C$V$C$alloc..collections..btree..node..marker..LeafOrInternal$GT$$C$Type$GT$5force17h77ff06403bcca2caE
	.loc	49 700 9 is_stmt 0
	cmpq	$0, -200(%rbp)
	jne	LBB166_2
Ltmp1031:
	.loc	49 0 9
	movq	-216(%rbp), %rdi
	.loc	49 701 18 is_stmt 1
	movq	-192(%rbp), %rax
	movq	%rax, -144(%rbp)
	movq	-184(%rbp), %rax
	movq	%rax, -136(%rbp)
	movq	-176(%rbp), %rax
	movq	%rax, -128(%rbp)
Ltmp1032:
	.loc	49 701 30 is_stmt 0
	movq	-144(%rbp), %rax
	movq	%rax, -120(%rbp)
	movq	-136(%rbp), %rax
	movq	%rax, -112(%rbp)
	movq	-128(%rbp), %rax
	movq	%rax, -104(%rbp)
	leaq	-120(%rbp), %rsi
	callq	__ZN5alloc11collections5btree4node137Handle$LT$alloc..collections..btree..node..NodeRef$LT$BorrowType$C$K$C$V$C$NodeType$GT$$C$alloc..collections..btree..node..marker..KV$GT$10right_edge17h7817ea0bad95a3a3E
Ltmp1033:
	.loc	49 701 49
	jmp	LBB166_3
Ltmp1034:
LBB166_2:
	.loc	49 702 22 is_stmt 1
	movq	-192(%rbp), %rax
	movq	%rax, -96(%rbp)
	movq	-184(%rbp), %rax
	movq	%rax, -88(%rbp)
	movq	-176(%rbp), %rax
	movq	%rax, -80(%rbp)
Ltmp1035:
	.loc	49 703 42
	movq	-96(%rbp), %rax
	movq	%rax, -48(%rbp)
	movq	-88(%rbp), %rax
	movq	%rax, -40(%rbp)
	movq	-80(%rbp), %rax
	movq	%rax, -32(%rbp)
	leaq	-72(%rbp), %rdi
	leaq	-48(%rbp), %rsi
	callq	__ZN5alloc11collections5btree4node137Handle$LT$alloc..collections..btree..node..NodeRef$LT$BorrowType$C$K$C$V$C$NodeType$GT$$C$alloc..collections..btree..node..marker..KV$GT$10right_edge17h654e721dc56d006cE
Ltmp1036:
	.loc	49 704 17
	movq	-72(%rbp), %rax
	movq	%rax, -24(%rbp)
	movq	-64(%rbp), %rax
	movq	%rax, -16(%rbp)
	movq	-56(%rbp), %rax
	movq	%rax, -8(%rbp)
	leaq	-24(%rbp), %rdi
	callq	__ZN5alloc11collections5btree4node180Handle$LT$alloc..collections..btree..node..NodeRef$LT$BorrowType$C$K$C$V$C$alloc..collections..btree..node..marker..Internal$GT$$C$alloc..collections..btree..node..marker..Edge$GT$7descend17h1ad0f00b61b95017E
	movq	-216(%rbp), %rdi
	movq	%rax, %rsi
	callq	__ZN5alloc11collections5btree8navigate142_$LT$impl$u20$alloc..collections..btree..node..NodeRef$LT$BorrowType$C$K$C$V$C$alloc..collections..btree..node..marker..LeafOrInternal$GT$$GT$15first_leaf_edge17h993c5776ab469301E
Ltmp1037:
LBB166_3:
	.loc	49 0 17 is_stmt 0
	movq	-208(%rbp), %rax
	.loc	49 707 6 is_stmt 1
	addq	$224, %rsp
	popq	%rbp
	retq
Ltmp1038:
Lfunc_end166:
	.cfi_endproc

	.p2align	4, 0x90
__ZN5alloc11collections5btree8navigate263_$LT$impl$u20$alloc..collections..btree..node..Handle$LT$alloc..collections..btree..node..NodeRef$LT$alloc..collections..btree..node..marker..Dying$C$K$C$V$C$alloc..collections..btree..node..marker..Leaf$GT$$C$alloc..collections..btree..node..marker..Edge$GT$$GT$16deallocating_end17hf0725461b6fddbeeE:
Lfunc_begin167:
	.loc	49 504 0
	.cfi_startproc
	.cfi_personality 155, _rust_eh_personality
	.cfi_lsda 16, Lexception26
	pushq	%rbp
	.cfi_def_cfa_offset 16
	.cfi_offset %rbp, -16
	movq	%rsp, %rbp
	.cfi_def_cfa_register %rbp
	subq	$224, %rsp
Ltmp1050:
	.loc	49 505 24 prologue_end
	movq	16(%rdi), %rax
	movq	%rax, -144(%rbp)
	movq	(%rdi), %rax
	movq	8(%rdi), %rcx
	movq	%rcx, -152(%rbp)
	movq	%rax, -160(%rbp)
Ltmp1039:
	leaq	-184(%rbp), %rdi
Ltmp1051:
	.loc	49 0 24 is_stmt 0
	leaq	-160(%rbp), %rsi
	.loc	49 505 24
	callq	__ZN5alloc11collections5btree4node176Handle$LT$alloc..collections..btree..node..NodeRef$LT$BorrowType$C$K$C$V$C$alloc..collections..btree..node..marker..Leaf$GT$$C$alloc..collections..btree..node..marker..Edge$GT$16forget_node_type17haba8017bc6ed16dbE
Ltmp1040:
	jmp	LBB167_3
Ltmp1052:
LBB167_1:
	.loc	49 504 5 is_stmt 1
	movq	-16(%rbp), %rdi
	callq	__Unwind_Resume
Ltmp1053:
LBB167_2:
Ltmp1049:
	.loc	49 0 5 is_stmt 0
	movq	%rax, %rcx
	movl	%edx, %eax
	movq	%rcx, -16(%rbp)
	movl	%eax, -8(%rbp)
	jmp	LBB167_1
Ltmp1054:
LBB167_3:
	.loc	49 506 9 is_stmt 1
	jmp	LBB167_4
Ltmp1055:
LBB167_4:
	.loc	49 507 22
	movq	-168(%rbp), %rax
	movq	%rax, -96(%rbp)
	movq	-184(%rbp), %rax
	movq	-176(%rbp), %rcx
	movq	%rcx, -104(%rbp)
	movq	%rax, -112(%rbp)
Ltmp1041:
	leaq	-112(%rbp), %rdi
	callq	__ZN5alloc11collections5btree4node25Handle$LT$Node$C$Type$GT$9into_node17h8b035f254c26e043E
Ltmp1042:
	movq	%rdx, -208(%rbp)
	movq	%rax, -200(%rbp)
	jmp	LBB167_5
Ltmp1056:
LBB167_5:
	.loc	49 0 22 is_stmt 0
	movq	-208(%rbp), %rax
	movq	-200(%rbp), %rcx
	movq	%rcx, -224(%rbp)
	movq	%rax, -216(%rbp)
Ltmp1043:
	leaq	-192(%rbp), %rdi
	.loc	49 507 61
	callq	__ZN59_$LT$alloc..alloc..Global$u20$as$u20$core..clone..Clone$GT$5clone17h130d3c7a93c15021E
Ltmp1044:
	jmp	LBB167_6
Ltmp1057:
LBB167_6:
Ltmp1045:
	.loc	49 0 61
	movq	-216(%rbp), %rdx
	movq	-224(%rbp), %rsi
	leaq	-136(%rbp), %rdi
	.loc	49 507 22
	callq	__ZN5alloc11collections5btree4node127NodeRef$LT$alloc..collections..btree..node..marker..Dying$C$K$C$V$C$alloc..collections..btree..node..marker..LeafOrInternal$GT$21deallocate_and_ascend17h636b7ec82cfdccd2E
Ltmp1046:
	jmp	LBB167_7
Ltmp1058:
LBB167_7:
	.loc	49 506 19 is_stmt 1
	movq	-128(%rbp), %rdx
	movl	$1, %eax
	xorl	%ecx, %ecx
	cmpq	$0, %rdx
	cmoveq	%rcx, %rax
	cmpq	$1, %rax
	jne	LBB167_9
Ltmp1059:
	.loc	49 506 24 is_stmt 0
	movq	-120(%rbp), %rax
	movq	%rax, -72(%rbp)
	movq	-136(%rbp), %rax
	movq	-128(%rbp), %rcx
	movq	%rcx, -80(%rbp)
	movq	%rax, -88(%rbp)
	.loc	49 509 20 is_stmt 1
	movq	-72(%rbp), %rax
	movq	%rax, -24(%rbp)
	movq	-88(%rbp), %rax
	movq	-80(%rbp), %rcx
	movq	%rcx, -32(%rbp)
	movq	%rax, -40(%rbp)
Ltmp1047:
	leaq	-64(%rbp), %rdi
	leaq	-40(%rbp), %rsi
	callq	__ZN5alloc11collections5btree4node180Handle$LT$alloc..collections..btree..node..NodeRef$LT$BorrowType$C$K$C$V$C$alloc..collections..btree..node..marker..Internal$GT$$C$alloc..collections..btree..node..marker..Edge$GT$16forget_node_type17h0475b8d8a77e495cE
Ltmp1048:
	jmp	LBB167_10
Ltmp1060:
LBB167_9:
	.loc	49 511 6
	addq	$224, %rsp
	popq	%rbp
	retq
Ltmp1061:
LBB167_10:
	.loc	49 509 13
	movq	-64(%rbp), %rax
	movq	%rax, -184(%rbp)
	movq	-56(%rbp), %rax
	movq	%rax, -176(%rbp)
	movq	-48(%rbp), %rax
	movq	%rax, -168(%rbp)
Ltmp1062:
	.loc	49 506 9
	jmp	LBB167_4
Ltmp1063:
Lfunc_end167:
	.cfi_endproc
	.section	__TEXT,__gcc_except_tab
	.p2align	2
GCC_except_table167:
Lexception26:
	.byte	255
	.byte	255
	.byte	1
	.uleb128 Lcst_end26-Lcst_begin26
Lcst_begin26:
	.uleb128 Ltmp1039-Lfunc_begin167
	.uleb128 Ltmp1040-Ltmp1039
	.uleb128 Ltmp1049-Lfunc_begin167
	.byte	0
	.uleb128 Ltmp1040-Lfunc_begin167
	.uleb128 Ltmp1041-Ltmp1040
	.byte	0
	.byte	0
	.uleb128 Ltmp1041-Lfunc_begin167
	.uleb128 Ltmp1048-Ltmp1041
	.uleb128 Ltmp1049-Lfunc_begin167
	.byte	0
Lcst_end26:
	.p2align	2

	.section	__TEXT,__text,regular,pure_instructions
	.p2align	4, 0x90
__ZN5alloc11collections5btree8navigate263_$LT$impl$u20$alloc..collections..btree..node..Handle$LT$alloc..collections..btree..node..NodeRef$LT$alloc..collections..btree..node..marker..Dying$C$K$C$V$C$alloc..collections..btree..node..marker..Leaf$GT$$C$alloc..collections..btree..node..marker..Edge$GT$$GT$17deallocating_next17h17cba748fc3971fdE:
Lfunc_begin168:
	.loc	49 447 0
	.cfi_startproc
	.cfi_personality 155, _rust_eh_personality
	.cfi_lsda 16, Lexception27
	pushq	%rbp
	.cfi_def_cfa_offset 16
	.cfi_offset %rbp, -16
	movq	%rsp, %rbp
	.cfi_def_cfa_register %rbp
	subq	$560, %rsp
	movq	%rdi, -520(%rbp)
	movq	%rdi, -512(%rbp)
Ltmp1079:
	.loc	49 452 24 prologue_end
	movq	16(%rsi), %rax
	movq	%rax, -456(%rbp)
	movq	(%rsi), %rax
	movq	8(%rsi), %rcx
	movq	%rcx, -464(%rbp)
	movq	%rax, -472(%rbp)
Ltmp1064:
	leaq	-496(%rbp), %rdi
	leaq	-472(%rbp), %rsi
Ltmp1080:
	callq	__ZN5alloc11collections5btree4node176Handle$LT$alloc..collections..btree..node..NodeRef$LT$BorrowType$C$K$C$V$C$alloc..collections..btree..node..marker..Leaf$GT$$C$alloc..collections..btree..node..marker..Edge$GT$16forget_node_type17haba8017bc6ed16dbE
Ltmp1065:
	jmp	LBB168_3
Ltmp1081:
LBB168_1:
	.loc	49 447 5
	movq	-32(%rbp), %rdi
	callq	__Unwind_Resume
Ltmp1082:
LBB168_2:
Ltmp1078:
	.loc	49 0 5 is_stmt 0
	movq	%rax, %rcx
	movl	%edx, %eax
	movq	%rcx, -32(%rbp)
	movl	%eax, -24(%rbp)
	jmp	LBB168_1
Ltmp1083:
LBB168_3:
	.loc	49 453 9 is_stmt 1
	jmp	LBB168_4
Ltmp1084:
LBB168_4:
	.loc	49 454 26
	movq	-480(%rbp), %rax
	movq	%rax, -376(%rbp)
	movq	-496(%rbp), %rax
	movq	-488(%rbp), %rcx
	movq	%rcx, -384(%rbp)
	movq	%rax, -392(%rbp)
Ltmp1066:
	leaq	-424(%rbp), %rdi
	leaq	-392(%rbp), %rsi
	callq	__ZN5alloc11collections5btree4node139Handle$LT$alloc..collections..btree..node..NodeRef$LT$BorrowType$C$K$C$V$C$NodeType$GT$$C$alloc..collections..btree..node..marker..Edge$GT$8right_kv17h4a58d71c3166cc85E
Ltmp1067:
	jmp	LBB168_5
Ltmp1085:
LBB168_5:
	.loc	49 454 20 is_stmt 0
	cmpq	$0, -424(%rbp)
	jne	LBB168_7
Ltmp1086:
	.loc	49 455 20 is_stmt 1
	movq	-416(%rbp), %rax
	movq	%rax, -368(%rbp)
	movq	-408(%rbp), %rax
	movq	%rax, -360(%rbp)
	movq	-400(%rbp), %rax
	movq	%rax, -352(%rbp)
Ltmp1087:
	.loc	49 455 59 is_stmt 0
	leaq	-368(%rbp), %rax
	movq	%rax, -16(%rbp)
Ltmp1088:
	.loc	3 1157 34 is_stmt 1
	leaq	-104(%rbp), %rax
	movq	%rax, -8(%rbp)
	.loc	3 1157 9 is_stmt 0
	movq	-368(%rbp), %rax
	movq	%rax, -104(%rbp)
	movq	-360(%rbp), %rax
	movq	%rax, -96(%rbp)
	movq	-352(%rbp), %rax
	movq	%rax, -88(%rbp)
	.loc	3 1158 9 is_stmt 1
	movq	-104(%rbp), %rax
	movq	%rax, -80(%rbp)
	movq	-96(%rbp), %rax
	movq	%rax, -72(%rbp)
	movq	-88(%rbp), %rax
	movq	%rax, -64(%rbp)
Ltmp1089:
	.loc	28 626 13
	jmp	LBB168_15
Ltmp1090:
LBB168_7:
	.loc	49 456 21
	movq	-400(%rbp), %rax
	movq	%rax, -208(%rbp)
	movq	-416(%rbp), %rax
	movq	-408(%rbp), %rcx
	movq	%rcx, -216(%rbp)
	movq	%rax, -224(%rbp)
Ltmp1091:
	.loc	49 457 36
	movq	-208(%rbp), %rax
	movq	%rax, -160(%rbp)
	movq	-224(%rbp), %rax
	movq	-216(%rbp), %rcx
	movq	%rcx, -168(%rbp)
	movq	%rax, -176(%rbp)
Ltmp1068:
	leaq	-176(%rbp), %rdi
	callq	__ZN5alloc11collections5btree4node25Handle$LT$Node$C$Type$GT$9into_node17h8b035f254c26e043E
Ltmp1069:
	movq	%rdx, -536(%rbp)
	movq	%rax, -528(%rbp)
	jmp	LBB168_8
Ltmp1092:
LBB168_8:
	.loc	49 0 36 is_stmt 0
	movq	-536(%rbp), %rax
	movq	-528(%rbp), %rcx
	movq	%rcx, -552(%rbp)
	movq	%rax, -544(%rbp)
Ltmp1070:
	leaq	-504(%rbp), %rdi
	.loc	49 457 80
	callq	__ZN59_$LT$alloc..alloc..Global$u20$as$u20$core..clone..Clone$GT$5clone17h130d3c7a93c15021E
Ltmp1071:
	jmp	LBB168_9
Ltmp1093:
LBB168_9:
Ltmp1072:
	.loc	49 0 80
	movq	-544(%rbp), %rdx
	movq	-552(%rbp), %rsi
	leaq	-200(%rbp), %rdi
	.loc	49 457 36
	callq	__ZN5alloc11collections5btree4node127NodeRef$LT$alloc..collections..btree..node..marker..Dying$C$K$C$V$C$alloc..collections..btree..node..marker..LeafOrInternal$GT$21deallocate_and_ascend17h636b7ec82cfdccd2E
Ltmp1073:
	jmp	LBB168_10
Ltmp1094:
LBB168_10:
	.loc	49 457 27
	movq	-192(%rbp), %rdx
	movl	$1, %eax
	xorl	%ecx, %ecx
	cmpq	$0, %rdx
	cmoveq	%rcx, %rax
	.loc	49 457 21
	cmpq	$0, %rax
	jne	LBB168_12
Ltmp1095:
	.loc	49 0 21
	movq	-520(%rbp), %rax
	.loc	49 459 40 is_stmt 1
	movq	$0, 8(%rax)
Ltmp1096:
	.file	50 "/Users/natalie/.cargo/registry/src/github.com-1ecc6299db9ec823/libc-0.2.137" "build.rs"
	.loc	50 1 1
	jmp	LBB168_14
Ltmp1097:
LBB168_12:
	.loc	49 458 30
	movq	-184(%rbp), %rax
	movq	%rax, -136(%rbp)
	movq	-200(%rbp), %rax
	movq	-192(%rbp), %rcx
	movq	%rcx, -144(%rbp)
	movq	%rax, -152(%rbp)
Ltmp1098:
	.loc	49 458 46 is_stmt 0
	movq	-136(%rbp), %rax
	movq	%rax, -112(%rbp)
	movq	-152(%rbp), %rax
	movq	-144(%rbp), %rcx
	movq	%rcx, -120(%rbp)
	movq	%rax, -128(%rbp)
Ltmp1074:
	leaq	-448(%rbp), %rdi
	leaq	-128(%rbp), %rsi
	callq	__ZN5alloc11collections5btree4node180Handle$LT$alloc..collections..btree..node..NodeRef$LT$BorrowType$C$K$C$V$C$alloc..collections..btree..node..marker..Internal$GT$$C$alloc..collections..btree..node..marker..Edge$GT$16forget_node_type17h0475b8d8a77e495cE
Ltmp1075:
	jmp	LBB168_13
Ltmp1099:
LBB168_13:
	.loc	49 454 13 is_stmt 1
	movq	-448(%rbp), %rax
	movq	%rax, -496(%rbp)
	movq	-440(%rbp), %rax
	movq	%rax, -488(%rbp)
	movq	-432(%rbp), %rax
	movq	%rax, -480(%rbp)
	.loc	49 453 9
	jmp	LBB168_4
Ltmp1100:
LBB168_14:
	.loc	49 0 9 is_stmt 0
	movq	-512(%rbp), %rax
	.loc	49 464 6 is_stmt 1
	addq	$560, %rsp
	popq	%rbp
	retq
Ltmp1101:
LBB168_15:
	.loc	28 627 38
	movq	-64(%rbp), %rax
	movq	%rax, -40(%rbp)
	movq	-80(%rbp), %rax
	movq	-72(%rbp), %rcx
	movq	%rcx, -48(%rbp)
	movq	%rax, -56(%rbp)
Ltmp1102:
	.loc	7 89 9
	movq	-40(%rbp), %rax
	movq	%rax, -256(%rbp)
	movq	-56(%rbp), %rax
	movq	-48(%rbp), %rcx
	movq	%rcx, -264(%rbp)
	movq	%rax, -272(%rbp)
Ltmp1076:
	leaq	-296(%rbp), %rdi
	leaq	-272(%rbp), %rsi
Ltmp1103:
	.loc	49 455 40
	callq	__ZN5alloc11collections5btree8navigate235_$LT$impl$u20$alloc..collections..btree..node..Handle$LT$alloc..collections..btree..node..NodeRef$LT$BorrowType$C$K$C$V$C$alloc..collections..btree..node..marker..LeafOrInternal$GT$$C$alloc..collections..btree..node..marker..KV$GT$$GT$14next_leaf_edge17h49e7ba5f4111addcE
Ltmp1077:
	jmp	LBB168_16
Ltmp1104:
LBB168_16:
	.loc	49 0 40 is_stmt 0
	movq	-520(%rbp), %rdi
	.loc	49 455 84
	movq	-368(%rbp), %rax
	movq	%rax, -248(%rbp)
	movq	-360(%rbp), %rax
	movq	%rax, -240(%rbp)
	movq	-352(%rbp), %rax
	movq	%rax, -232(%rbp)
	.loc	49 455 39
	movq	-296(%rbp), %rax
	movq	%rax, -344(%rbp)
	movq	-288(%rbp), %rax
	movq	%rax, -336(%rbp)
	movq	-280(%rbp), %rax
	movq	%rax, -328(%rbp)
	movq	-248(%rbp), %rax
	movq	%rax, -320(%rbp)
	movq	-240(%rbp), %rax
	movq	%rax, -312(%rbp)
	movq	-232(%rbp), %rax
	movq	%rax, -304(%rbp)
	.loc	49 455 34
	leaq	-344(%rbp), %rsi
	movl	$48, %edx
	callq	_memcpy
Ltmp1105:
	.loc	50 1 1 is_stmt 1
	jmp	LBB168_14
Ltmp1106:
Lfunc_end168:
	.cfi_endproc
	.section	__TEXT,__gcc_except_tab
	.p2align	2
GCC_except_table168:
Lexception27:
	.byte	255
	.byte	255
	.byte	1
	.uleb128 Lcst_end27-Lcst_begin27
Lcst_begin27:
	.uleb128 Ltmp1064-Lfunc_begin168
	.uleb128 Ltmp1065-Ltmp1064
	.uleb128 Ltmp1078-Lfunc_begin168
	.byte	0
	.uleb128 Ltmp1065-Lfunc_begin168
	.uleb128 Ltmp1066-Ltmp1065
	.byte	0
	.byte	0
	.uleb128 Ltmp1066-Lfunc_begin168
	.uleb128 Ltmp1077-Ltmp1066
	.uleb128 Ltmp1078-Lfunc_begin168
	.byte	0
	.uleb128 Ltmp1077-Lfunc_begin168
	.uleb128 Lfunc_end168-Ltmp1077
	.byte	0
	.byte	0
Lcst_end27:
	.p2align	2

	.section	__TEXT,__text,regular,pure_instructions
	.p2align	4, 0x90
__ZN5alloc11collections5btree8navigate263_$LT$impl$u20$alloc..collections..btree..node..Handle$LT$alloc..collections..btree..node..NodeRef$LT$alloc..collections..btree..node..marker..Dying$C$K$C$V$C$alloc..collections..btree..node..marker..Leaf$GT$$C$alloc..collections..btree..node..marker..Edge$GT$$GT$27deallocating_next_unchecked17h294e61a43a25d29cE:
Lfunc_begin169:
	.loc	49 583 0
	.cfi_startproc
	pushq	%rbp
	.cfi_def_cfa_offset 16
	.cfi_offset %rbp, -16
	movq	%rsp, %rbp
	.cfi_def_cfa_register %rbp
	subq	$32, %rsp
	movq	%rdi, %rax
	movq	%rax, -32(%rbp)
	movq	%rsi, -16(%rbp)
Ltmp1107:
	.loc	49 587 9 prologue_end
	callq	__ZN5alloc11collections5btree3mem7replace17haf85b81347359ddbE
	movq	-32(%rbp), %rax
	.loc	49 590 6
	addq	$32, %rsp
	popq	%rbp
	retq
Ltmp1108:
Lfunc_end169:
	.cfi_endproc

	.p2align	4, 0x90
__ZN5alloc11collections5btree8navigate263_$LT$impl$u20$alloc..collections..btree..node..Handle$LT$alloc..collections..btree..node..NodeRef$LT$alloc..collections..btree..node..marker..Dying$C$K$C$V$C$alloc..collections..btree..node..marker..Leaf$GT$$C$alloc..collections..btree..node..marker..Edge$GT$$GT$27deallocating_next_unchecked28_$u7b$$u7b$closure$u7d$$u7d$17hbd828f2bbeffda81E:
Lfunc_begin170:
	.loc	49 587 0
	.cfi_startproc
	pushq	%rbp
	.cfi_def_cfa_offset 16
	.cfi_offset %rbp, -16
	movq	%rsp, %rbp
	.cfi_def_cfa_register %rbp
	subq	$96, %rsp
	movq	%rdi, -96(%rbp)
	movq	%rdi, -88(%rbp)
Ltmp1109:
	.loc	49 588 13 prologue_end
	movq	(%rsi), %rax
	movq	%rax, -32(%rbp)
	movq	8(%rsi), %rax
	movq	%rax, -24(%rbp)
	movq	16(%rsi), %rax
	movq	%rax, -16(%rbp)
	leaq	-80(%rbp), %rdi
	leaq	-32(%rbp), %rsi
Ltmp1110:
	callq	__ZN5alloc11collections5btree8navigate263_$LT$impl$u20$alloc..collections..btree..node..Handle$LT$alloc..collections..btree..node..NodeRef$LT$alloc..collections..btree..node..marker..Dying$C$K$C$V$C$alloc..collections..btree..node..marker..Leaf$GT$$C$alloc..collections..btree..node..marker..Edge$GT$$GT$17deallocating_next17h17cba748fc3971fdE
Ltmp1111:
	.loc	8 821 15
	movq	-72(%rbp), %rdx
	movl	$1, %eax
	xorl	%ecx, %ecx
	cmpq	$0, %rdx
	cmoveq	%rcx, %rax
	.loc	8 821 9 is_stmt 0
	cmpq	$0, %rax
	jne	LBB170_2
Ltmp1112:
	.loc	8 823 21 is_stmt 1
	leaq	l___unnamed_15(%rip), %rdi
	leaq	l___unnamed_16(%rip), %rdx
	movl	$43, %esi
	callq	__ZN4core9panicking5panic17hc1bc45270cf64b03E
Ltmp1113:
LBB170_2:
	.loc	8 0 21 is_stmt 0
	movq	-96(%rbp), %rdi
	.loc	8 822 18 is_stmt 1
	leaq	-80(%rbp), %rsi
	movl	$48, %edx
	callq	_memcpy
	movq	-88(%rbp), %rax
Ltmp1114:
	.loc	49 589 10
	addq	$96, %rsp
	popq	%rbp
	retq
Ltmp1115:
Lfunc_end170:
	.cfi_endproc

	.p2align	4, 0x90
__ZN5alloc11collections5btree8navigate39LazyLeafRange$LT$BorrowType$C$K$C$V$GT$10init_front17h63094a4118ed3971E:
Lfunc_begin171:
	.loc	49 209 0
	.cfi_startproc
	pushq	%rbp
	.cfi_def_cfa_offset 16
	.cfi_offset %rbp, -16
	movq	%rsp, %rbp
	.cfi_def_cfa_register %rbp
	subq	$192, %rsp
	movq	%rdi, -192(%rbp)
	movq	%rdi, -72(%rbp)
Ltmp1116:
	.loc	49 212 16 prologue_end
	movl	$1, %eax
	xorl	%ecx, %ecx
	cmpq	$2, (%rdi)
	cmoveq	%rcx, %rax
	cmpq	$1, %rax
	jne	LBB171_2
	.loc	49 0 16 is_stmt 0
	movq	-192(%rbp), %rax
	.loc	49 212 16
	cmpq	$0, (%rax)
	je	LBB171_3
Ltmp1117:
LBB171_2:
	.loc	49 0 16
	movq	-192(%rbp), %rdx
	.loc	49 215 15 is_stmt 1
	movl	$1, %eax
	xorl	%ecx, %ecx
	cmpq	$2, (%rdx)
	cmoveq	%rcx, %rax
	.loc	49 215 9 is_stmt 0
	cmpq	$0, %rax
	je	LBB171_4
	jmp	LBB171_5
LBB171_3:
	.loc	49 0 9
	movq	-192(%rbp), %rax
Ltmp1118:
	.loc	49 212 42 is_stmt 1
	movq	%rax, %rcx
	addq	$8, %rcx
	movq	%rcx, -64(%rbp)
	.loc	49 213 71
	movq	%rcx, -56(%rbp)
Ltmp1119:
	.loc	3 1157 34
	leaq	-88(%rbp), %rcx
	movq	%rcx, -48(%rbp)
	.loc	3 1157 9 is_stmt 0
	movq	8(%rax), %rcx
	movq	%rcx, -88(%rbp)
	movq	16(%rax), %rax
	movq	%rax, -80(%rbp)
	.loc	3 1158 9 is_stmt 1
	movq	-88(%rbp), %rsi
	movq	-80(%rbp), %rdx
	movq	%rsi, -40(%rbp)
	movq	%rdx, -32(%rbp)
Ltmp1120:
	.loc	28 627 38
	movq	%rsi, -24(%rbp)
	movq	%rdx, -16(%rbp)
Ltmp1121:
	.loc	49 213 52
	leaq	-112(%rbp), %rdi
	callq	__ZN5alloc11collections5btree8navigate142_$LT$impl$u20$alloc..collections..btree..node..NodeRef$LT$BorrowType$C$K$C$V$C$alloc..collections..btree..node..marker..LeafOrInternal$GT$$GT$15first_leaf_edge17h993c5776ab469301E
	movq	-192(%rbp), %rax
	.loc	49 213 31 is_stmt 0
	movq	-112(%rbp), %rcx
	movq	%rcx, -136(%rbp)
	movq	-104(%rbp), %rcx
	movq	%rcx, -128(%rbp)
	movq	-96(%rbp), %rcx
	movq	%rcx, -120(%rbp)
	movq	$1, -144(%rbp)
	.loc	49 213 26
	movq	-144(%rbp), %rcx
	movq	%rcx, -176(%rbp)
	movq	-136(%rbp), %rcx
	movq	%rcx, -168(%rbp)
	movq	-128(%rbp), %rcx
	movq	%rcx, -160(%rbp)
	movq	-120(%rbp), %rcx
	movq	%rcx, -152(%rbp)
	.loc	49 213 13
	movq	-176(%rbp), %rcx
	movq	%rcx, (%rax)
	movq	-168(%rbp), %rcx
	movq	%rcx, 8(%rax)
	movq	-160(%rbp), %rcx
	movq	%rcx, 16(%rax)
	movq	-152(%rbp), %rcx
	movq	%rcx, 24(%rax)
Ltmp1122:
	.loc	49 212 9 is_stmt 1
	jmp	LBB171_2
LBB171_4:
	.loc	49 216 21
	movq	$0, -184(%rbp)
	jmp	LBB171_8
LBB171_5:
	.loc	49 0 21 is_stmt 0
	movq	-192(%rbp), %rax
	.loc	49 215 9 is_stmt 1
	cmpq	$0, (%rax)
	jne	LBB171_7
	.loc	49 219 55
	callq	__ZN4core4hint21unreachable_unchecked17h0252838ac8e689dbE
LBB171_7:
	.loc	49 0 55 is_stmt 0
	movq	-192(%rbp), %rax
	.loc	49 217 39 is_stmt 1
	addq	$8, %rax
	movq	%rax, -8(%rbp)
Ltmp1123:
	.loc	49 217 49 is_stmt 0
	movq	%rax, -184(%rbp)
Ltmp1124:
LBB171_8:
	.loc	49 221 6 is_stmt 1
	movq	-184(%rbp), %rax
	addq	$192, %rsp
	popq	%rbp
	retq
Ltmp1125:
Lfunc_end171:
	.cfi_endproc

	.p2align	4, 0x90
__ZN5alloc11collections5btree8navigate39LazyLeafRange$LT$BorrowType$C$K$C$V$GT$4none17h0f6fdfac5ed66277E:
Lfunc_begin172:
	.loc	49 133 0
	.cfi_startproc
	pushq	%rbp
	.cfi_def_cfa_offset 16
	.cfi_offset %rbp, -16
	movq	%rsp, %rbp
	.cfi_def_cfa_register %rbp
	subq	$64, %rsp
	movq	%rdi, %rax
Ltmp1126:
	.loc	49 134 32 prologue_end
	movq	$2, -64(%rbp)
	.loc	49 134 44 is_stmt 0
	movq	$2, -32(%rbp)
	.loc	49 134 9
	movq	-64(%rbp), %rcx
	movq	%rcx, (%rdi)
	movq	-56(%rbp), %rcx
	movq	%rcx, 8(%rdi)
	movq	-48(%rbp), %rcx
	movq	%rcx, 16(%rdi)
	movq	-40(%rbp), %rcx
	movq	%rcx, 24(%rdi)
	movq	-32(%rbp), %rcx
	movq	%rcx, 32(%rdi)
	movq	-24(%rbp), %rcx
	movq	%rcx, 40(%rdi)
	movq	-16(%rbp), %rcx
	movq	%rcx, 48(%rdi)
	movq	-8(%rbp), %rcx
	movq	%rcx, 56(%rdi)
	.loc	49 135 6 is_stmt 1
	addq	$64, %rsp
	popq	%rbp
	retq
Ltmp1127:
Lfunc_end172:
	.cfi_endproc

	.p2align	4, 0x90
__ZN5alloc11collections5btree8navigate75LazyLeafRange$LT$alloc..collections..btree..node..marker..Dying$C$K$C$V$GT$10take_front17h9cea66c199ac324fE:
Lfunc_begin173:
	.loc	49 171 0
	.cfi_startproc
	pushq	%rbp
	.cfi_def_cfa_offset 16
	.cfi_offset %rbp, -16
	movq	%rsp, %rbp
	.cfi_def_cfa_register %rbp
	subq	$368, %rsp
	movq	%rdi, -360(%rbp)
	movq	%rdi, -352(%rbp)
	movq	%rsi, -48(%rbp)
Ltmp1128:
	.loc	49 174 15 prologue_end
	movq	%rsi, -24(%rbp)
Ltmp1129:
	.loc	8 1623 28
	movq	$2, -144(%rbp)
	.loc	8 1623 9 is_stmt 0
	leaq	-280(%rbp), %rdi
	leaq	-144(%rbp), %rdx
	callq	__ZN4core3mem7replace17ha53b159fc58f7a93E
Ltmp1130:
	.loc	8 2407 15 is_stmt 1
	movl	$1, %eax
	xorl	%ecx, %ecx
	cmpq	$2, -280(%rbp)
	cmoveq	%rcx, %rax
	.loc	8 2407 9 is_stmt 0
	cmpq	$0, %rax
	jne	LBB173_2
	.loc	8 2409 21 is_stmt 1
	movq	$2, -312(%rbp)
	.loc	8 2409 44 is_stmt 0
	jmp	LBB173_3
LBB173_2:
	.loc	8 2408 18 is_stmt 1
	movq	-280(%rbp), %rax
	movq	%rax, -112(%rbp)
	movq	-272(%rbp), %rax
	movq	%rax, -104(%rbp)
	movq	-264(%rbp), %rax
	movq	%rax, -96(%rbp)
	movq	-256(%rbp), %rax
	movq	%rax, -88(%rbp)
Ltmp1131:
	.loc	8 2408 46 is_stmt 0
	movq	-112(%rbp), %rax
	movq	%rax, -80(%rbp)
	movq	-104(%rbp), %rax
	movq	%rax, -72(%rbp)
	movq	-96(%rbp), %rax
	movq	%rax, -64(%rbp)
	movq	-88(%rbp), %rax
	movq	%rax, -56(%rbp)
	.loc	8 2408 24
	movq	-80(%rbp), %rax
	movq	%rax, -312(%rbp)
	movq	-72(%rbp), %rax
	movq	%rax, -304(%rbp)
	movq	-64(%rbp), %rax
	movq	%rax, -296(%rbp)
	movq	-56(%rbp), %rax
	movq	%rax, -288(%rbp)
Ltmp1132:
LBB173_3:
	.loc	49 174 15 is_stmt 1
	xorl	%eax, %eax
	movl	$1, %ecx
	cmpq	$2, -312(%rbp)
	cmoveq	%rcx, %rax
	cmpq	$0, %rax
	jne	LBB173_5
	movq	-312(%rbp), %rax
	movq	%rax, -248(%rbp)
	movq	-304(%rbp), %rax
	movq	%rax, -240(%rbp)
	movq	-296(%rbp), %rax
	movq	%rax, -232(%rbp)
	movq	-288(%rbp), %rax
	movq	%rax, -224(%rbp)
Ltmp1133:
	.loc	49 174 15 is_stmt 0
	movq	-248(%rbp), %rax
	movq	%rax, -344(%rbp)
	movq	-240(%rbp), %rax
	movq	%rax, -336(%rbp)
	movq	-232(%rbp), %rax
	movq	%rax, -328(%rbp)
	movq	-224(%rbp), %rax
	movq	%rax, -320(%rbp)
Ltmp1134:
	.loc	49 174 9
	cmpq	$0, -344(%rbp)
	je	LBB173_7
	jmp	LBB173_8
LBB173_5:
	.loc	49 0 9
	movq	-360(%rbp), %rax
Ltmp1135:
	.loc	8 2420 21 is_stmt 1
	movq	$0, 8(%rax)
Ltmp1136:
LBB173_6:
	.loc	8 0 21 is_stmt 0
	movq	-352(%rbp), %rax
	.loc	49 178 6 is_stmt 1
	addq	$368, %rsp
	popq	%rbp
	retq
LBB173_7:
	.loc	49 175 34
	movq	-336(%rbp), %rsi
	movq	-328(%rbp), %rdx
	movq	%rsi, -16(%rbp)
	movq	%rdx, -8(%rbp)
Ltmp1137:
	.loc	49 175 48 is_stmt 0
	leaq	-216(%rbp), %rdi
	callq	__ZN5alloc11collections5btree8navigate142_$LT$impl$u20$alloc..collections..btree..node..NodeRef$LT$BorrowType$C$K$C$V$C$alloc..collections..btree..node..marker..LeafOrInternal$GT$$GT$15first_leaf_edge17h993c5776ab469301E
	movq	-360(%rbp), %rax
	.loc	49 175 43
	movq	-216(%rbp), %rcx
	movq	%rcx, (%rax)
	movq	-208(%rbp), %rcx
	movq	%rcx, 8(%rax)
	movq	-200(%rbp), %rcx
	movq	%rcx, 16(%rax)
Ltmp1138:
	.loc	49 175 70
	jmp	LBB173_9
LBB173_8:
	.loc	49 0 70
	movq	-360(%rbp), %rax
	.loc	49 176 34 is_stmt 1
	movq	-336(%rbp), %rcx
	movq	%rcx, -192(%rbp)
	movq	-328(%rbp), %rcx
	movq	%rcx, -184(%rbp)
	movq	-320(%rbp), %rcx
	movq	%rcx, -176(%rbp)
Ltmp1139:
	.loc	49 176 48 is_stmt 0
	movq	-192(%rbp), %rcx
	movq	%rcx, -168(%rbp)
	movq	-184(%rbp), %rcx
	movq	%rcx, -160(%rbp)
	movq	-176(%rbp), %rcx
	movq	%rcx, -152(%rbp)
	.loc	49 176 43
	movq	-168(%rbp), %rcx
	movq	%rcx, (%rax)
	movq	-160(%rbp), %rcx
	movq	%rcx, 8(%rax)
	movq	-152(%rbp), %rcx
	movq	%rcx, 16(%rax)
Ltmp1140:
LBB173_9:
	.loc	49 178 6 is_stmt 1
	jmp	LBB173_6
Ltmp1141:
Lfunc_end173:
	.cfi_endproc

	.p2align	4, 0x90
__ZN5alloc11collections5btree8navigate75LazyLeafRange$LT$alloc..collections..btree..node..marker..Dying$C$K$C$V$GT$16deallocating_end17h6ccc57f9a9db19acE:
Lfunc_begin174:
	.loc	49 201 0
	.cfi_startproc
	.cfi_personality 155, _rust_eh_personality
	.cfi_lsda 16, Lexception28
	pushq	%rbp
	.cfi_def_cfa_offset 16
	.cfi_offset %rbp, -16
	movq	%rsp, %rbp
	.cfi_def_cfa_register %rbp
	subq	$112, %rsp
	movq	%rdi, %rsi
	movq	%rsi, -32(%rbp)
Ltmp1147:
	.loc	49 202 30 prologue_end
	movb	$1, -33(%rbp)
Ltmp1142:
	leaq	-112(%rbp), %rdi
	callq	__ZN5alloc11collections5btree8navigate75LazyLeafRange$LT$alloc..collections..btree..node..marker..Dying$C$K$C$V$GT$10take_front17h9cea66c199ac324fE
Ltmp1143:
	jmp	LBB174_3
Ltmp1148:
LBB174_1:
	.loc	49 205 5
	testb	$1, -33(%rbp)
	jne	LBB174_8
	jmp	LBB174_7
LBB174_2:
Ltmp1146:
	.loc	49 0 5 is_stmt 0
	movq	%rax, %rcx
	movl	%edx, %eax
	movq	%rcx, -16(%rbp)
	movl	%eax, -8(%rbp)
	jmp	LBB174_1
LBB174_3:
Ltmp1149:
	.loc	49 202 16 is_stmt 1
	movq	-104(%rbp), %rdx
	movl	$1, %eax
	xorl	%ecx, %ecx
	cmpq	$0, %rdx
	cmoveq	%rcx, %rax
	cmpq	$1, %rax
	jne	LBB174_5
	.loc	49 202 21 is_stmt 0
	movq	-96(%rbp), %rax
	movq	%rax, -72(%rbp)
	movq	-112(%rbp), %rax
	movq	-104(%rbp), %rcx
	movq	%rcx, -80(%rbp)
	movq	%rax, -88(%rbp)
	.loc	49 203 13 is_stmt 1
	movq	-72(%rbp), %rax
	movq	%rax, -48(%rbp)
	movq	-88(%rbp), %rax
	movq	-80(%rbp), %rcx
	movq	%rcx, -56(%rbp)
	movq	%rax, -64(%rbp)
	.loc	49 203 36 is_stmt 0
	movb	$0, -33(%rbp)
Ltmp1144:
	leaq	-64(%rbp), %rdi
	.loc	49 203 13
	callq	__ZN5alloc11collections5btree8navigate263_$LT$impl$u20$alloc..collections..btree..node..Handle$LT$alloc..collections..btree..node..NodeRef$LT$alloc..collections..btree..node..marker..Dying$C$K$C$V$C$alloc..collections..btree..node..marker..Leaf$GT$$C$alloc..collections..btree..node..marker..Edge$GT$$GT$16deallocating_end17hf0725461b6fddbeeE
Ltmp1145:
	jmp	LBB174_6
Ltmp1150:
LBB174_5:
	.loc	49 205 5 is_stmt 1
	testb	$1, -33(%rbp)
	jne	LBB174_10
	jmp	LBB174_9
LBB174_6:
	.loc	49 202 9
	jmp	LBB174_5
LBB174_7:
	.loc	49 201 5
	movq	-16(%rbp), %rdi
	callq	__Unwind_Resume
LBB174_8:
	.loc	49 205 5
	jmp	LBB174_7
LBB174_9:
	.loc	49 205 6 is_stmt 0
	addq	$112, %rsp
	popq	%rbp
	retq
LBB174_10:
	.loc	49 205 5
	jmp	LBB174_9
Ltmp1151:
Lfunc_end174:
	.cfi_endproc
	.section	__TEXT,__gcc_except_tab
	.p2align	2
GCC_except_table174:
Lexception28:
	.byte	255
	.byte	255
	.byte	1
	.uleb128 Lcst_end28-Lcst_begin28
Lcst_begin28:
	.uleb128 Ltmp1142-Lfunc_begin174
	.uleb128 Ltmp1145-Ltmp1142
	.uleb128 Ltmp1146-Lfunc_begin174
	.byte	0
	.uleb128 Ltmp1145-Lfunc_begin174
	.uleb128 Lfunc_end174-Ltmp1145
	.byte	0
	.byte	0
Lcst_end28:
	.p2align	2

	.section	__TEXT,__text,regular,pure_instructions
	.p2align	4, 0x90
__ZN5alloc11collections5btree8navigate75LazyLeafRange$LT$alloc..collections..btree..node..marker..Dying$C$K$C$V$GT$27deallocating_next_unchecked17h75f723034247f14aE:
Lfunc_begin175:
	.loc	49 181 0 is_stmt 1
	.cfi_startproc
	.cfi_personality 155, _rust_eh_personality
	.cfi_lsda 16, Lexception29
	pushq	%rbp
	.cfi_def_cfa_offset 16
	.cfi_offset %rbp, -16
	movq	%rsp, %rbp
	.cfi_def_cfa_register %rbp
	subq	$96, %rsp
	movq	%rsi, -88(%rbp)
	movq	%rdi, %rax
	movq	-88(%rbp), %rdi
	movq	%rax, -80(%rbp)
	movq	%rax, -72(%rbp)
	movq	%rdi, -40(%rbp)
Ltmp1159:
	.loc	49 185 9 prologue_end
	movb	$1, -41(%rbp)
Ltmp1152:
	.loc	49 186 21
	callq	__ZN5alloc11collections5btree8navigate39LazyLeafRange$LT$BorrowType$C$K$C$V$GT$10init_front17h63094a4118ed3971E
Ltmp1153:
	movq	%rax, -64(%rbp)
	jmp	LBB175_3
LBB175_1:
	.loc	49 188 5
	testb	$1, -41(%rbp)
	jne	LBB175_9
	jmp	LBB175_8
LBB175_2:
Ltmp1158:
	.loc	49 0 5 is_stmt 0
	movq	%rax, %rcx
	movl	%edx, %eax
	movq	%rcx, -24(%rbp)
	movl	%eax, -16(%rbp)
	jmp	LBB175_1
LBB175_3:
	movq	-64(%rbp), %rax
	.loc	49 186 21 is_stmt 1
	movq	%rax, -56(%rbp)
Ltmp1160:
	.loc	8 821 15
	movq	-56(%rbp), %rdx
	movl	$1, %eax
	xorl	%ecx, %ecx
	cmpq	$0, %rdx
	cmoveq	%rcx, %rax
	.loc	8 821 9 is_stmt 0
	cmpq	$0, %rax
	jne	LBB175_5
Ltmp1156:
	.loc	8 823 21 is_stmt 1
	leaq	l___unnamed_15(%rip), %rdi
	leaq	l___unnamed_17(%rip), %rdx
	movl	$43, %esi
	callq	__ZN4core9panicking5panic17hc1bc45270cf64b03E
Ltmp1157:
	jmp	LBB175_7
LBB175_5:
	.loc	8 0 21 is_stmt 0
	movq	-80(%rbp), %rdi
	.loc	8 822 18 is_stmt 1
	movq	-56(%rbp), %rsi
	movq	%rsi, -8(%rbp)
Ltmp1161:
	.loc	49 187 52
	movb	$0, -41(%rbp)
Ltmp1154:
	.loc	49 187 18 is_stmt 0
	callq	__ZN5alloc11collections5btree8navigate263_$LT$impl$u20$alloc..collections..btree..node..Handle$LT$alloc..collections..btree..node..NodeRef$LT$alloc..collections..btree..node..marker..Dying$C$K$C$V$C$alloc..collections..btree..node..marker..Leaf$GT$$C$alloc..collections..btree..node..marker..Edge$GT$$GT$27deallocating_next_unchecked17h294e61a43a25d29cE
Ltmp1155:
	jmp	LBB175_6
Ltmp1162:
LBB175_6:
	.loc	49 0 18
	movq	-72(%rbp), %rax
	.loc	49 188 6 is_stmt 1
	addq	$96, %rsp
	popq	%rbp
	retq
LBB175_7:
	.loc	49 0 6 is_stmt 0
	ud2
LBB175_8:
	.loc	49 181 5 is_stmt 1
	movq	-24(%rbp), %rdi
	callq	__Unwind_Resume
LBB175_9:
	.loc	49 188 5
	jmp	LBB175_8
Ltmp1163:
Lfunc_end175:
	.cfi_endproc
	.section	__TEXT,__gcc_except_tab
	.p2align	2
GCC_except_table175:
