	.section	__TEXT,__text,regular,pure_instructions
	.macosx_version_min 10, 7
	.p2align	4, 0x90
__ZN100_$LT$alloc..boxed..Box$LT$dyn$u20$core..error..Error$GT$$u20$as$u20$core..convert..From$LT$E$GT$$GT$4from17h0ff3848c8017f8b1E:
Lfunc_begin0:
	.file	1 "/rustc/2c8cc343237b8f7d5a3c3703e3a87f2eb2c54a74/library/alloc/src" "boxed.rs"
	.loc	1 2214 0
	.cfi_startproc
	.cfi_personality 155, _rust_eh_personality
	.cfi_lsda 16, Lexception0
	pushq	%rbp
	.cfi_def_cfa_offset 16
	.cfi_offset %rbp, -16
	movq	%rsp, %rbp
	.cfi_def_cfa_register %rbp
	subq	$48, %rsp
Ltmp6:
	.loc	1 2215 18 prologue_end
	movq	16(%rdi), %rax
	movq	%rax, -24(%rbp)
	movq	(%rdi), %rax
	movq	8(%rdi), %rcx
	movq	%rcx, -32(%rbp)
	movq	%rax, -40(%rbp)
Ltmp0:
	movl	$24, %edi
Ltmp7:
	.loc	1 0 18 is_stmt 0
	movl	$8, %esi
Ltmp8:
	.loc	1 219 9 is_stmt 1
	callq	__ZN5alloc5alloc15exchange_malloc17h4d6b6765e7c2626fE
Ltmp1:
	movq	%rax, -48(%rbp)
	jmp	LBB0_3
Ltmp9:
LBB0_1:
Ltmp3:
	.loc	1 0 9 is_stmt 0
	leaq	-40(%rbp), %rdi
	.loc	1 220 5 is_stmt 1
	callq	__ZN4core3ptr39drop_in_place$LT$std..env..VarError$GT$17h893f1f65fa36a0f7E
Ltmp4:
	jmp	LBB0_5
Ltmp10:
LBB0_2:
Ltmp2:
	.loc	1 0 5 is_stmt 0
	movq	%rax, %rcx
	movl	%edx, %eax
	movq	%rcx, -16(%rbp)
	movl	%eax, -8(%rbp)
	jmp	LBB0_1
Ltmp11:
LBB0_3:
	movq	-48(%rbp), %rax
	.loc	1 219 18 is_stmt 1
	movq	-24(%rbp), %rcx
	movq	%rcx, 16(%rax)
	movq	-40(%rbp), %rcx
	movq	-32(%rbp), %rdx
	movq	%rdx, 8(%rax)
	movq	%rcx, (%rax)
Ltmp12:
	.loc	1 2216 6
	leaq	l___unnamed_1(%rip), %rdx
	addq	$48, %rsp
	popq	%rbp
	retq
Ltmp13:
LBB0_4:
Ltmp5:
	.loc	1 2214 5
	callq	__ZN4core9panicking19panic_cannot_unwind17h1fbca7e1d7f56ae1E
Ltmp14:
LBB0_5:
	movq	-16(%rbp), %rdi
	callq	__Unwind_Resume
Ltmp15:
Lfunc_end0:
	.cfi_endproc
	.section	__TEXT,__gcc_except_tab
	.p2align	2
GCC_except_table0:
Lexception0:
	.byte	255
	.byte	255
	.byte	1
	.uleb128 Lcst_end0-Lcst_begin0
Lcst_begin0:
	.uleb128 Ltmp0-Lfunc_begin0
	.uleb128 Ltmp1-Ltmp0
	.uleb128 Ltmp2-Lfunc_begin0
	.byte	0
	.uleb128 Ltmp3-Lfunc_begin0
	.uleb128 Ltmp4-Ltmp3
	.uleb128 Ltmp5-Lfunc_begin0
	.byte	0
	.uleb128 Ltmp4-Lfunc_begin0
	.uleb128 Lfunc_end0-Ltmp4
	.byte	0
	.byte	0
Lcst_end0:
	.p2align	2

	.section	__TEXT,__text,regular,pure_instructions
	.p2align	4, 0x90
__ZN100_$LT$alloc..boxed..Box$LT$dyn$u20$core..error..Error$GT$$u20$as$u20$core..convert..From$LT$E$GT$$GT$4from17h7a0d055c7fb69eaeE:
Lfunc_begin1:
	.loc	1 2214 0
	.cfi_startproc
	.cfi_personality 155, _rust_eh_personality
	.cfi_lsda 16, Lexception1
	pushq	%rbp
	.cfi_def_cfa_offset 16
	.cfi_offset %rbp, -16
	movq	%rsp, %rbp
	.cfi_def_cfa_register %rbp
	subq	$48, %rsp
	movq	%rdi, -24(%rbp)
Ltmp22:
	.loc	1 2215 18 prologue_end
	movq	%rdi, -32(%rbp)
Ltmp16:
	movl	$8, %esi
Ltmp23:
	.loc	1 219 9
	movq	%rsi, %rdi
	callq	__ZN5alloc5alloc15exchange_malloc17h4d6b6765e7c2626fE
Ltmp17:
	movq	%rax, -40(%rbp)
	jmp	LBB1_3
LBB1_1:
Ltmp19:
	.loc	1 0 9 is_stmt 0
	leaq	-32(%rbp), %rdi
	.loc	1 220 5 is_stmt 1
	callq	__ZN4core3ptr42drop_in_place$LT$std..io..error..Error$GT$17h0936ab0439591bd9E
Ltmp20:
	jmp	LBB1_5
LBB1_2:
Ltmp18:
	.loc	1 0 5 is_stmt 0
	movq	%rax, %rcx
	movl	%edx, %eax
	movq	%rcx, -16(%rbp)
	movl	%eax, -8(%rbp)
	jmp	LBB1_1
LBB1_3:
	movq	-40(%rbp), %rax
	.loc	1 219 18 is_stmt 1
	movq	-32(%rbp), %rcx
	movq	%rcx, (%rax)
Ltmp24:
	.loc	1 2216 6
	leaq	l___unnamed_2(%rip), %rdx
	addq	$48, %rsp
	popq	%rbp
	retq
LBB1_4:
Ltmp21:
	.loc	1 2214 5
	callq	__ZN4core9panicking19panic_cannot_unwind17h1fbca7e1d7f56ae1E
LBB1_5:
	movq	-16(%rbp), %rdi
	callq	__Unwind_Resume
Ltmp25:
Lfunc_end1:
	.cfi_endproc
	.section	__TEXT,__gcc_except_tab
	.p2align	2
GCC_except_table1:
Lexception1:
	.byte	255
	.byte	255
	.byte	1
	.uleb128 Lcst_end1-Lcst_begin1
Lcst_begin1:
	.uleb128 Ltmp16-Lfunc_begin1
	.uleb128 Ltmp17-Ltmp16
	.uleb128 Ltmp18-Lfunc_begin1
	.byte	0
	.uleb128 Ltmp19-Lfunc_begin1
	.uleb128 Ltmp20-Ltmp19
	.uleb128 Ltmp21-Lfunc_begin1
	.byte	0
	.uleb128 Ltmp20-Lfunc_begin1
	.uleb128 Lfunc_end1-Ltmp20
	.byte	0
	.byte	0
Lcst_end1:
	.p2align	2

	.section	__TEXT,__text,regular,pure_instructions
	.p2align	4, 0x90
__ZN153_$LT$core..result..Result$LT$T$C$F$GT$$u20$as$u20$core..ops..try_trait..FromResidual$LT$core..result..Result$LT$core..convert..Infallible$C$E$GT$$GT$$GT$13from_residual17h5c3b373ecdd22184E:
Lfunc_begin2:
	.file	2 "/rustc/2c8cc343237b8f7d5a3c3703e3a87f2eb2c54a74/library/core/src" "result.rs"
	.loc	2 2105 0
	.cfi_startproc
	pushq	%rbp
	.cfi_def_cfa_offset 16
	.cfi_offset %rbp, -16
	movq	%rsp, %rbp
	.cfi_def_cfa_register %rbp
	subq	$32, %rsp
	movq	%rdi, -32(%rbp)
Ltmp26:
	.loc	2 2107 17 prologue_end
	movq	-32(%rbp), %rdi
	movq	%rdi, -8(%rbp)
Ltmp27:
	.loc	2 2107 27 is_stmt 0
	callq	__ZN100_$LT$alloc..boxed..Box$LT$dyn$u20$core..error..Error$GT$$u20$as$u20$core..convert..From$LT$E$GT$$GT$4from17h7a0d055c7fb69eaeE
	.loc	2 2107 23
	movq	%rax, -24(%rbp)
	movq	%rdx, -16(%rbp)
Ltmp28:
	.loc	2 2109 6 is_stmt 1
	movq	-24(%rbp), %rax
	movq	-16(%rbp), %rdx
	addq	$32, %rsp
	popq	%rbp
	retq
Ltmp29:
Lfunc_end2:
	.cfi_endproc

	.p2align	4, 0x90
__ZN153_$LT$core..result..Result$LT$T$C$F$GT$$u20$as$u20$core..ops..try_trait..FromResidual$LT$core..result..Result$LT$core..convert..Infallible$C$E$GT$$GT$$GT$13from_residual17h6bd6c0596cd8c4b2E:
Lfunc_begin3:
	.loc	2 2105 0
	.cfi_startproc
	pushq	%rbp
	.cfi_def_cfa_offset 16
	.cfi_offset %rbp, -16
	movq	%rsp, %rbp
	.cfi_def_cfa_register %rbp
	subq	$64, %rsp
Ltmp30:
	.loc	2 2107 17 prologue_end
	movq	16(%rdi), %rax
	movq	%rax, -32(%rbp)
	movq	(%rdi), %rax
	movq	8(%rdi), %rcx
	movq	%rcx, -40(%rbp)
	movq	%rax, -48(%rbp)
Ltmp31:
	.loc	2 2107 38 is_stmt 0
	movq	-32(%rbp), %rax
	movq	%rax, -8(%rbp)
	movq	-48(%rbp), %rax
	movq	-40(%rbp), %rcx
	movq	%rcx, -16(%rbp)
	movq	%rax, -24(%rbp)
	leaq	-24(%rbp), %rdi
Ltmp32:
	.loc	2 2107 27
	callq	__ZN100_$LT$alloc..boxed..Box$LT$dyn$u20$core..error..Error$GT$$u20$as$u20$core..convert..From$LT$E$GT$$GT$4from17h0ff3848c8017f8b1E
	.loc	2 2107 23
	movq	%rax, -64(%rbp)
	movq	%rdx, -56(%rbp)
Ltmp33:
	.loc	2 2109 6 is_stmt 1
	movq	-64(%rbp), %rax
	movq	-56(%rbp), %rdx
	addq	$64, %rsp
	popq	%rbp
	retq
Ltmp34:
Lfunc_end3:
	.cfi_endproc

	.p2align	4, 0x90
__ZN3std10sys_common9backtrace28__rust_begin_short_backtrace17hebcfd49e94c84d20E:
Lfunc_begin4:
	.file	3 "/rustc/2c8cc343237b8f7d5a3c3703e3a87f2eb2c54a74/library/std/src/sys_common" "backtrace.rs"
	.loc	3 117 0
	.cfi_startproc
	pushq	%rbp
	.cfi_def_cfa_offset 16
	.cfi_offset %rbp, -16
	movq	%rsp, %rbp
	.cfi_def_cfa_register %rbp
	subq	$48, %rsp
	movq	%rdi, -32(%rbp)
Ltmp35:
	.loc	3 121 18 prologue_end
	callq	__ZN4core3ops8function6FnOnce9call_once17ha7a778e94aa02ccbE
Ltmp36:
	.file	4 "/rustc/2c8cc343237b8f7d5a3c3703e3a87f2eb2c54a74/library/core/src" "hint.rs"
	.loc	4 295 5
	## InlineAsm Start
	## InlineAsm End
Ltmp37:
	.loc	3 127 2
	addq	$48, %rsp
	popq	%rbp
	retq
Ltmp38:
Lfunc_end4:
	.cfi_endproc

	.p2align	4, 0x90
__ZN3std2fs11OpenOptions4open17h60ee98c63b469611E:
Lfunc_begin5:
	.file	5 "/rustc/2c8cc343237b8f7d5a3c3703e3a87f2eb2c54a74/library/std/src" "fs.rs"
	.loc	5 1058 0
	.cfi_startproc
	.cfi_personality 155, _rust_eh_personality
	.cfi_lsda 16, Lexception2
	pushq	%rbp
	.cfi_def_cfa_offset 16
	.cfi_offset %rbp, -16
	movq	%rsp, %rbp
	.cfi_def_cfa_register %rbp
	subq	$80, %rsp
	movq	%rsi, -80(%rbp)
	movq	%rdi, -72(%rbp)
	movq	%rdi, -64(%rbp)
	movq	%rdx, -40(%rbp)
	movq	%rcx, -32(%rbp)
	movq	%rsi, -24(%rbp)
Ltmp39:
	leaq	-40(%rbp), %rdi
Ltmp44:
	.loc	5 1059 20 prologue_end
	callq	__ZN55_$LT$$RF$T$u20$as$u20$core..convert..AsRef$LT$U$GT$$GT$6as_ref17he2fb62b2e7ad5f7eE
Ltmp40:
	movq	%rdx, -56(%rbp)
	movq	%rax, -48(%rbp)
	jmp	LBB5_3
LBB5_1:
	.loc	5 1058 5
	movq	-16(%rbp), %rdi
	callq	__Unwind_Resume
LBB5_2:
Ltmp43:
	.loc	5 0 5 is_stmt 0
	movq	%rax, %rcx
	movl	%edx, %eax
	movq	%rcx, -16(%rbp)
	movl	%eax, -8(%rbp)
	jmp	LBB5_1
LBB5_3:
Ltmp41:
	movq	-56(%rbp), %rcx
	movq	-48(%rbp), %rdx
	movq	-80(%rbp), %rsi
	movq	-72(%rbp), %rdi
	.loc	5 1059 9 is_stmt 1
	callq	__ZN3std2fs11OpenOptions5_open17h765806b2579ff7e6E
Ltmp42:
	jmp	LBB5_4
LBB5_4:
	.loc	5 0 9 is_stmt 0
	movq	-64(%rbp), %rax
	.loc	5 1060 6 is_stmt 1
	addq	$80, %rsp
	popq	%rbp
	retq
Ltmp45:
Lfunc_end5:
	.cfi_endproc
	.section	__TEXT,__gcc_except_tab
	.p2align	2
GCC_except_table5:
Lexception2:
	.byte	255
	.byte	255
	.byte	1
	.uleb128 Lcst_end2-Lcst_begin2
Lcst_begin2:
	.uleb128 Ltmp39-Lfunc_begin5
	.uleb128 Ltmp40-Ltmp39
	.uleb128 Ltmp43-Lfunc_begin5
	.byte	0
	.uleb128 Ltmp40-Lfunc_begin5
	.uleb128 Ltmp41-Ltmp40
	.byte	0
	.byte	0
	.uleb128 Ltmp41-Lfunc_begin5
	.uleb128 Ltmp42-Ltmp41
	.uleb128 Ltmp43-Lfunc_begin5
	.byte	0
Lcst_end2:
	.p2align	2

	.section	__TEXT,__text,regular,pure_instructions
	.p2align	4, 0x90
__ZN3std2fs4File6create17h99a8227dcdef1018E:
Lfunc_begin6:
	.loc	5 378 0
	.cfi_startproc
	.cfi_personality 155, _rust_eh_personality
	.cfi_lsda 16, Lexception3
	pushq	%rbp
	.cfi_def_cfa_offset 16
	.cfi_offset %rbp, -16
	movq	%rsp, %rbp
	.cfi_def_cfa_register %rbp
	subq	$96, %rsp
	movq	%rdi, -56(%rbp)
	movq	%rdi, -48(%rbp)
	movq	%rsi, -40(%rbp)
Ltmp46:
	leaq	-32(%rbp), %rdi
Ltmp59:
	.loc	5 379 9 prologue_end
	callq	__ZN3std2fs11OpenOptions3new17hb715257bf3b1044cE
Ltmp47:
	jmp	LBB6_3
LBB6_1:
	.loc	5 378 5
	movq	-16(%rbp), %rdi
	callq	__Unwind_Resume
LBB6_2:
Ltmp58:
	.loc	5 0 5 is_stmt 0
	movq	%rax, %rcx
	movl	%edx, %eax
	movq	%rcx, -16(%rbp)
	movl	%eax, -8(%rbp)
	jmp	LBB6_1
LBB6_3:
Ltmp48:
	leaq	-32(%rbp), %rdi
	movl	$1, %esi
	.loc	5 379 9 is_stmt 1
	callq	__ZN3std2fs11OpenOptions5write17h6a5db1940a04f260E
Ltmp49:
	movq	%rax, -64(%rbp)
	jmp	LBB6_4
LBB6_4:
Ltmp50:
	.loc	5 0 9 is_stmt 0
	movq	-64(%rbp), %rdi
	movl	$1, %esi
	.loc	5 379 9
	callq	__ZN3std2fs11OpenOptions6create17h89a170d7d8fa2f7cE
Ltmp51:
	movq	%rax, -72(%rbp)
	jmp	LBB6_5
LBB6_5:
Ltmp52:
	.loc	5 0 9
	movq	-72(%rbp), %rdi
	movl	$1, %esi
	.loc	5 379 9
	callq	__ZN3std2fs11OpenOptions8truncate17h89eab471baa57fc5E
Ltmp53:
	movq	%rax, -80(%rbp)
	jmp	LBB6_6
LBB6_6:
Ltmp54:
	.loc	5 0 9
	leaq	-40(%rbp), %rdi
	.loc	5 379 73
	callq	__ZN55_$LT$$RF$T$u20$as$u20$core..convert..AsRef$LT$U$GT$$GT$6as_ref17hf65cb7a4ca58c152E
Ltmp55:
	movq	%rdx, -96(%rbp)
	movq	%rax, -88(%rbp)
	jmp	LBB6_7
LBB6_7:
Ltmp56:
	.loc	5 0 73
	movq	-96(%rbp), %rcx
	movq	-88(%rbp), %rdx
	movq	-80(%rbp), %rsi
	movq	-56(%rbp), %rdi
	.loc	5 379 9
	callq	__ZN3std2fs11OpenOptions4open17h60ee98c63b469611E
Ltmp57:
	jmp	LBB6_8
LBB6_8:
	.loc	5 0 9
	movq	-48(%rbp), %rax
	.loc	5 380 6 is_stmt 1
	addq	$96, %rsp
	popq	%rbp
	retq
Ltmp60:
Lfunc_end6:
	.cfi_endproc
	.section	__TEXT,__gcc_except_tab
	.p2align	2
GCC_except_table6:
Lexception3:
	.byte	255
	.byte	255
	.byte	1
	.uleb128 Lcst_end3-Lcst_begin3
Lcst_begin3:
	.uleb128 Ltmp46-Lfunc_begin6
	.uleb128 Ltmp47-Ltmp46
	.uleb128 Ltmp58-Lfunc_begin6
	.byte	0
	.uleb128 Ltmp47-Lfunc_begin6
	.uleb128 Ltmp48-Ltmp47
	.byte	0
	.byte	0
	.uleb128 Ltmp48-Lfunc_begin6
	.uleb128 Ltmp57-Ltmp48
	.uleb128 Ltmp58-Lfunc_begin6
	.byte	0
Lcst_end3:
	.p2align	2

	.section	__TEXT,__text,regular,pure_instructions
	.p2align	4, 0x90
__ZN3std2io5Write9write_all17h48bf74e1029f1763E:
Lfunc_begin7:
	.file	6 "/rustc/2c8cc343237b8f7d5a3c3703e3a87f2eb2c54a74/library/std/src/io" "mod.rs"
	.loc	6 1540 0
	.cfi_startproc
	.cfi_personality 155, _rust_eh_personality
	.cfi_lsda 16, Lexception4
	pushq	%rbp
	.cfi_def_cfa_offset 16
	.cfi_offset %rbp, -16
	movq	%rsp, %rbp
	.cfi_def_cfa_register %rbp
	subq	$256, %rsp
	movq	%rdi, -232(%rbp)
	movq	%rsi, -224(%rbp)
	movq	%rdx, -216(%rbp)
	movq	%rdi, -136(%rbp)
LBB7_1:
Ltmp69:
	.loc	6 1541 16 prologue_end
	movq	-224(%rbp), %rcx
	movq	-216(%rbp), %rax
	movq	%rcx, -128(%rbp)
	movq	%rax, -120(%rbp)
Ltmp70:
	.file	7 "/rustc/2c8cc343237b8f7d5a3c3703e3a87f2eb2c54a74/library/core/src/slice" "mod.rs"
	.loc	7 153 9
	cmpq	$0, %rax
	sete	%al
Ltmp71:
	.loc	6 1541 15
	xorb	$-1, %al
	testb	$1, %al
	jne	LBB7_3
	.loc	6 1554 9
	movq	$0, -208(%rbp)
	.loc	6 1555 6
	jmp	LBB7_23
LBB7_3:
	.loc	6 0 6 is_stmt 0
	movq	-232(%rbp), %rsi
	.loc	6 1542 30 is_stmt 1
	movq	-224(%rbp), %rdx
	movq	-216(%rbp), %rcx
	.loc	6 1542 19 is_stmt 0
	leaq	-200(%rbp), %rdi
	callq	__ZN48_$LT$std..fs..File$u20$as$u20$std..io..Write$GT$5write17hb66af813b1fcdc57E
	.loc	6 1542 13
	cmpq	$0, -200(%rbp)
	jne	LBB7_5
	cmpq	$0, -192(%rbp)
	je	LBB7_13
	jmp	LBB7_14
LBB7_5:
	.loc	6 1550 21 is_stmt 1
	leaq	-192(%rbp), %rax
	movq	%rax, -168(%rbp)
	leaq	-168(%rbp), %rax
	movq	%rax, -112(%rbp)
	.loc	6 1550 31 is_stmt 0
	movq	-168(%rbp), %rdi
Ltmp61:
	callq	__ZN3std2io5error5Error4kind17h6186e3bdc20f095dE
Ltmp62:
	movb	%al, -233(%rbp)
	jmp	LBB7_8
LBB7_6:
	.loc	6 1553 9 is_stmt 1
	cmpq	$1, -200(%rbp)
	je	LBB7_16
	jmp	LBB7_17
LBB7_7:
Ltmp65:
	.loc	6 0 9 is_stmt 0
	movq	%rax, %rcx
	movl	%edx, %eax
	movq	%rcx, -104(%rbp)
	movl	%eax, -96(%rbp)
	jmp	LBB7_6
LBB7_8:
	movb	-233(%rbp), %al
	.loc	6 1550 31 is_stmt 1
	movb	%al, -153(%rbp)
	leaq	-153(%rbp), %rax
	movq	%rax, -88(%rbp)
	.loc	6 1550 43 is_stmt 0
	leaq	l___unnamed_7(%rip), %rax
	movq	%rax, -80(%rbp)
Ltmp72:
	.file	8 "/rustc/2c8cc343237b8f7d5a3c3703e3a87f2eb2c54a74/library/std/src/io" "error.rs"
	.loc	8 165 45 is_stmt 1
	movzbl	-153(%rbp), %eax
	movq	%rax, -72(%rbp)
Ltmp73:
	.loc	8 165 45 is_stmt 0
	movzbl	l___unnamed_7(%rip), %ecx
	movq	%rcx, -64(%rbp)
Ltmp74:
	.loc	8 165 45
	cmpq	%rcx, %rax
Ltmp75:
	.loc	6 1550 31 is_stmt 1
	je	LBB7_10
	.loc	6 1551 21
	movq	-192(%rbp), %rax
	movq	%rax, -56(%rbp)
Ltmp76:
	.loc	6 1551 34 is_stmt 0
	movq	%rax, -208(%rbp)
Ltmp77:
	.file	9 "/Users/natalie/.cargo/registry/src/github.com-1ecc6299db9ec823/num-bigint-0.4.3" "build.rs"
	.loc	9 1 1 is_stmt 1
	jmp	LBB7_12
LBB7_10:
	.loc	6 1550 70
	jmp	LBB7_11
LBB7_11:
	.loc	6 1553 9
	cmpq	$1, -200(%rbp)
	je	LBB7_20
	jmp	LBB7_21
LBB7_12:
	.loc	6 1555 6
	jmp	LBB7_23
LBB7_13:
	.loc	6 1544 32
	leaq	l___unnamed_8(%rip), %rax
	movq	%rax, -24(%rbp)
Ltmp78:
	.loc	8 554 47
	leaq	l___unnamed_8(%rip), %rax
	movq	%rax, -16(%rbp)
Ltmp79:
	.file	10 "/rustc/2c8cc343237b8f7d5a3c3703e3a87f2eb2c54a74/library/std/src/io/error" "repr_bitpacked.rs"
	.loc	10 206 46
	leaq	l___unnamed_8(%rip), %rax
	movq	%rax, -8(%rbp)
Ltmp80:
	.file	11 "/rustc/2c8cc343237b8f7d5a3c3703e3a87f2eb2c54a74/library/core/src/ptr" "non_null.rs"
	.loc	11 201 13
	leaq	l___unnamed_8(%rip), %rax
	movq	%rax, -144(%rbp)
Ltmp81:
	.loc	10 206 9
	movq	-144(%rbp), %rax
	movq	%rax, -152(%rbp)
Ltmp82:
	.loc	8 554 9
	movq	-152(%rbp), %rax
	movq	%rax, -184(%rbp)
Ltmp83:
	.loc	6 1544 28
	movq	-184(%rbp), %rax
	movq	%rax, -208(%rbp)
	.loc	9 1 1
	jmp	LBB7_12
LBB7_14:
	.loc	6 1549 20
	movq	-192(%rbp), %rax
	movq	%rax, -48(%rbp)
Ltmp84:
	.loc	6 1549 33 is_stmt 0
	movq	-224(%rbp), %rsi
	movq	-216(%rbp), %rdx
	movq	%rsi, -40(%rbp)
	movq	%rdx, -32(%rbp)
	.loc	6 1549 37
	movq	%rax, -176(%rbp)
Ltmp85:
	.file	12 "/rustc/2c8cc343237b8f7d5a3c3703e3a87f2eb2c54a74/library/core/src/slice" "index.rs"
	.loc	12 18 9 is_stmt 1
	movq	-176(%rbp), %rdi
Ltmp63:
	leaq	l___unnamed_9(%rip), %rcx
	callq	__ZN110_$LT$core..ops..range..RangeFrom$LT$usize$GT$$u20$as$u20$core..slice..index..SliceIndex$LT$$u5b$T$u5d$$GT$$GT$5index17hfbdeb5d99ade3a35E
Ltmp64:
	movq	%rdx, -256(%rbp)
	movq	%rax, -248(%rbp)
	jmp	LBB7_15
Ltmp86:
LBB7_15:
	.loc	12 0 9 is_stmt 0
	movq	-256(%rbp), %rax
	movq	-248(%rbp), %rcx
	.loc	6 1549 26 is_stmt 1
	movq	%rcx, -224(%rbp)
	movq	%rax, -216(%rbp)
Ltmp87:
	.loc	6 1549 40 is_stmt 0
	jmp	LBB7_11
LBB7_16:
	.loc	6 1553 9 is_stmt 1
	movb	$1, %al
	testb	$1, %al
	jne	LBB7_18
	jmp	LBB7_17
LBB7_17:
	.loc	6 1540 5
	movq	-104(%rbp), %rdi
	callq	__Unwind_Resume
LBB7_18:
	.loc	6 1553 9
	leaq	-192(%rbp), %rdi
Ltmp66:
	callq	__ZN4core3ptr42drop_in_place$LT$std..io..error..Error$GT$17h0936ab0439591bd9E
Ltmp67:
	jmp	LBB7_17
LBB7_19:
Ltmp68:
	.loc	6 1540 5
	callq	__ZN4core9panicking19panic_cannot_unwind17h1fbca7e1d7f56ae1E
LBB7_20:
	.loc	6 1553 9
	movb	$1, %al
	testb	$1, %al
	jne	LBB7_22
	jmp	LBB7_21
LBB7_21:
	.loc	6 1541 9
	jmp	LBB7_1
LBB7_22:
	.loc	6 1553 9
	leaq	-200(%rbp), %rdi
	addq	$8, %rdi
	callq	__ZN4core3ptr42drop_in_place$LT$std..io..error..Error$GT$17h0936ab0439591bd9E
	jmp	LBB7_21
LBB7_23:
	.loc	6 1555 6
	movq	-208(%rbp), %rax
	addq	$256, %rsp
	popq	%rbp
	retq
Ltmp88:
Lfunc_end7:
	.cfi_endproc
	.section	__TEXT,__gcc_except_tab
	.p2align	2
GCC_except_table7:
Lexception4:
	.byte	255
	.byte	255
	.byte	1
	.uleb128 Lcst_end4-Lcst_begin4
Lcst_begin4:
	.uleb128 Lfunc_begin7-Lfunc_begin7
	.uleb128 Ltmp61-Lfunc_begin7
	.byte	0
	.byte	0
	.uleb128 Ltmp61-Lfunc_begin7
	.uleb128 Ltmp64-Ltmp61
	.uleb128 Ltmp65-Lfunc_begin7
	.byte	0
	.uleb128 Ltmp64-Lfunc_begin7
	.uleb128 Ltmp66-Ltmp64
	.byte	0
	.byte	0
	.uleb128 Ltmp66-Lfunc_begin7
	.uleb128 Ltmp67-Ltmp66
	.uleb128 Ltmp68-Lfunc_begin7
	.byte	0
	.uleb128 Ltmp67-Lfunc_begin7
	.uleb128 Lfunc_end7-Ltmp67
	.byte	0
	.byte	0
Lcst_end4:
	.p2align	2

	.section	__TEXT,__text,regular,pure_instructions
	.p2align	4, 0x90
__ZN3std2io5Write9write_fmt17hac1baffa9b1ace31E:
Lfunc_begin8:
	.loc	6 1661 0
	.cfi_startproc
	.cfi_personality 155, _rust_eh_personality
	.cfi_lsda 16, Lexception5
	pushq	%rbp
	.cfi_def_cfa_offset 16
	.cfi_offset %rbp, -16
	movq	%rsp, %rbp
	.cfi_def_cfa_register %rbp
	subq	$192, %rsp
	movq	%rdi, -64(%rbp)
Ltmp95:
	.loc	6 1681 56 prologue_end
	movq	$0, -160(%rbp)
	.loc	6 1681 26 is_stmt 0
	movb	$1, -82(%rbp)
	movq	%rdi, -168(%rbp)
	movq	-160(%rbp), %rax
	movq	%rax, -176(%rbp)
Ltmp96:
	.loc	6 1682 39 is_stmt 1
	movq	40(%rsi), %rax
	movq	%rax, -104(%rbp)
	movq	32(%rsi), %rax
	movq	%rax, -112(%rbp)
	movq	24(%rsi), %rax
	movq	%rax, -120(%rbp)
	movq	16(%rsi), %rax
	movq	%rax, -128(%rbp)
	movq	(%rsi), %rax
	movq	8(%rsi), %rcx
	movq	%rcx, -136(%rbp)
	movq	%rax, -144(%rbp)
Ltmp89:
	.loc	6 1682 15 is_stmt 0
	leaq	l___unnamed_3(%rip), %rsi
Ltmp97:
	.loc	6 0 15
	leaq	-176(%rbp), %rdi
	leaq	-144(%rbp), %rdx
	.loc	6 1682 15
	callq	__ZN4core3fmt5write17hfa389e524187f2c6E
Ltmp90:
	movb	%al, -185(%rbp)
	jmp	LBB8_3
Ltmp98:
LBB8_1:
Ltmp92:
	.loc	6 0 15
	leaq	-176(%rbp), %rdi
	.loc	6 1693 5 is_stmt 1
	callq	__ZN4core3ptr76drop_in_place$LT$std..io..Write..write_fmt..Adapter$LT$std..fs..File$GT$$GT$17h7059797a21a80e06E
Ltmp93:
	jmp	LBB8_5
Ltmp99:
LBB8_2:
Ltmp91:
	.loc	6 0 5 is_stmt 0
	movq	%rax, %rcx
	movl	%edx, %eax
	movq	%rcx, -56(%rbp)
	movl	%eax, -48(%rbp)
	jmp	LBB8_1
Ltmp100:
LBB8_3:
	movb	-185(%rbp), %al
Ltmp101:
	.loc	6 1682 15 is_stmt 1
	andb	$1, %al
	movb	%al, -145(%rbp)
	movb	-145(%rbp), %al
	andb	$1, %al
	movzbl	%al, %eax
	.loc	6 1682 9 is_stmt 0
	cmpq	$0, %rax
	je	LBB8_6
	jmp	LBB8_7
Ltmp102:
LBB8_4:
Ltmp94:
	.loc	6 1661 5 is_stmt 1
	callq	__ZN4core9panicking19panic_cannot_unwind17h1fbca7e1d7f56ae1E
Ltmp103:
LBB8_5:
	movq	-56(%rbp), %rdi
	callq	__Unwind_Resume
Ltmp104:
LBB8_6:
	.loc	6 1683 23
	movq	$0, -184(%rbp)
	.loc	6 1683 28 is_stmt 0
	jmp	LBB8_14
Ltmp105:
LBB8_7:
	.loc	6 1686 20 is_stmt 1
	leaq	-176(%rbp), %rax
	movq	%rax, -40(%rbp)
Ltmp106:
	.loc	2 589 10
	leaq	-176(%rbp), %rax
	movq	%rax, -32(%rbp)
Ltmp107:
	.loc	2 542 18
	movq	-176(%rbp), %rdx
	movl	$1, %eax
	xorl	%ecx, %ecx
	cmpq	$0, %rdx
	cmoveq	%rcx, %rax
	.file	13 "/rustc/2c8cc343237b8f7d5a3c3703e3a87f2eb2c54a74/library/core/src/macros" "mod.rs"
	.loc	13 344 9
	cmpq	$0, %rax
	jne	LBB8_9
Ltmp108:
	.loc	13 345 48
	movb	$1, -81(%rbp)
	jmp	LBB8_10
Ltmp109:
LBB8_9:
	.loc	13 346 18
	movb	$0, -81(%rbp)
Ltmp110:
LBB8_10:
	.loc	2 589 9
	movb	-81(%rbp), %al
	xorb	$-1, %al
Ltmp111:
	.loc	6 1686 20
	testb	$1, %al
	jne	LBB8_12
Ltmp112:
	.loc	6 1689 25
	leaq	l___unnamed_10(%rip), %rax
	movq	%rax, -24(%rbp)
Ltmp113:
	.loc	8 554 47
	leaq	l___unnamed_10(%rip), %rax
	movq	%rax, -16(%rbp)
Ltmp114:
	.loc	10 206 46
	leaq	l___unnamed_10(%rip), %rax
	movq	%rax, -8(%rbp)
Ltmp115:
	.loc	11 201 13
	leaq	l___unnamed_10(%rip), %rax
	movq	%rax, -72(%rbp)
Ltmp116:
	.loc	10 206 9
	movq	-72(%rbp), %rax
	movq	%rax, -80(%rbp)
Ltmp117:
	.loc	8 554 9
	movq	-80(%rbp), %rax
	movq	%rax, -96(%rbp)
Ltmp118:
	.loc	6 1689 21
	movq	-96(%rbp), %rax
	movq	%rax, -184(%rbp)
	.loc	6 1686 17
	jmp	LBB8_13
Ltmp119:
LBB8_12:
	.loc	6 1687 21
	movb	$0, -82(%rbp)
	movq	-176(%rbp), %rax
	movq	%rax, -184(%rbp)
Ltmp120:
LBB8_13:
	.loc	6 1690 17
	jmp	LBB8_14
Ltmp121:
LBB8_14:
	.loc	6 1693 5
	testb	$1, -82(%rbp)
	jne	LBB8_16
Ltmp122:
LBB8_15:
	.loc	6 1693 6 is_stmt 0
	movq	-184(%rbp), %rax
	addq	$192, %rsp
	popq	%rbp
	retq
Ltmp123:
LBB8_16:
	.loc	6 1693 5
	leaq	-176(%rbp), %rdi
	callq	__ZN4core3ptr81drop_in_place$LT$core..result..Result$LT$$LP$$RP$$C$std..io..error..Error$GT$$GT$17h961f320e5bb2f13bE
	jmp	LBB8_15
Ltmp124:
Lfunc_end8:
	.cfi_endproc
	.section	__TEXT,__gcc_except_tab
	.p2align	2
GCC_except_table8:
Lexception5:
	.byte	255
	.byte	255
	.byte	1
	.uleb128 Lcst_end5-Lcst_begin5
Lcst_begin5:
	.uleb128 Ltmp89-Lfunc_begin8
	.uleb128 Ltmp90-Ltmp89
	.uleb128 Ltmp91-Lfunc_begin8
	.byte	0
	.uleb128 Ltmp92-Lfunc_begin8
	.uleb128 Ltmp93-Ltmp92
	.uleb128 Ltmp94-Lfunc_begin8
	.byte	0
	.uleb128 Ltmp93-Lfunc_begin8
	.uleb128 Lfunc_end8-Ltmp93
	.byte	0
	.byte	0
Lcst_end5:
	.p2align	2

	.section	__TEXT,__text,regular,pure_instructions
	.p2align	4, 0x90
__ZN3std2io5error5Error4kind17h6186e3bdc20f095dE:
Lfunc_begin9:
	.loc	8 893 0 is_stmt 1
	.cfi_startproc
	pushq	%rbp
	.cfi_def_cfa_offset 16
	.cfi_offset %rbp, -16
	movq	%rsp, %rbp
	.cfi_def_cfa_register %rbp
	subq	$80, %rsp
	movq	%rdi, -40(%rbp)
Ltmp125:
	.loc	8 894 15 prologue_end
	movq	%rdi, -32(%rbp)
Ltmp126:
	.loc	10 212 30
	movq	(%rdi), %rsi
	leaq	-56(%rbp), %rdi
	.loc	10 212 18 is_stmt 0
	callq	__ZN3std2io5error14repr_bitpacked11decode_repr17hbd5d3614fad820c9E
Ltmp127:
	.loc	8 894 15 is_stmt 1
	movzbl	-56(%rbp), %eax
	movq	%rax, -72(%rbp)
	.loc	8 0 15 is_stmt 0
	movq	-72(%rbp), %rax
	leaq	LJTI9_0(%rip), %rcx
	movslq	(%rcx,%rax,4), %rax
	addq	%rcx, %rax
	jmpq	*%rax
	.loc	8 894 15
	ud2
LBB9_2:
	.loc	8 895 27 is_stmt 1
	movl	-52(%rbp), %edi
	movl	%edi, -4(%rbp)
Ltmp128:
	.loc	8 895 36 is_stmt 0
	callq	__ZN3std3sys4unix17decode_error_kind17h50ab8511eed7ed72E
	movb	%al, -57(%rbp)
Ltmp129:
	.loc	8 895 63
	jmp	LBB9_6
LBB9_3:
	.loc	8 897 31 is_stmt 1
	movb	-55(%rbp), %al
	movb	%al, -5(%rbp)
Ltmp130:
	.loc	8 897 40 is_stmt 0
	movb	%al, -57(%rbp)
Ltmp131:
	.loc	8 897 43
	jmp	LBB9_6
LBB9_4:
	.loc	8 898 38 is_stmt 1
	movq	-48(%rbp), %rax
	movq	%rax, -16(%rbp)
Ltmp132:
	.loc	8 898 44 is_stmt 0
	movb	16(%rax), %al
	movb	%al, -57(%rbp)
Ltmp133:
	.loc	8 898 49
	jmp	LBB9_6
LBB9_5:
	.loc	8 896 31 is_stmt 1
	movq	-48(%rbp), %rax
	movq	%rax, -24(%rbp)
Ltmp134:
	.loc	8 896 37 is_stmt 0
	movb	16(%rax), %al
	movb	%al, -57(%rbp)
Ltmp135:
LBB9_6:
	.loc	8 900 6 is_stmt 1
	movb	-57(%rbp), %al
	addq	$80, %rsp
	popq	%rbp
	retq
Ltmp136:
Lfunc_end9:
	.cfi_endproc
	.p2align	2, 0x90
	.data_region jt32
.set L9_0_set_2, LBB9_2-LJTI9_0
.set L9_0_set_3, LBB9_3-LJTI9_0
.set L9_0_set_4, LBB9_4-LJTI9_0
.set L9_0_set_5, LBB9_5-LJTI9_0
LJTI9_0:
	.long	L9_0_set_2
	.long	L9_0_set_3
	.long	L9_0_set_4
	.long	L9_0_set_5
	.end_data_region

	.private_extern	__ZN3std2rt10lang_start17hd01dc49994c45f71E
	.globl	__ZN3std2rt10lang_start17hd01dc49994c45f71E
	.p2align	4, 0x90
__ZN3std2rt10lang_start17hd01dc49994c45f71E:
Lfunc_begin10:
	.file	14 "/rustc/2c8cc343237b8f7d5a3c3703e3a87f2eb2c54a74/library/std/src" "rt.rs"
	.loc	14 159 0
	.cfi_startproc
	pushq	%rbp
	.cfi_def_cfa_offset 16
	.cfi_offset %rbp, -16
	movq	%rsp, %rbp
	.cfi_def_cfa_register %rbp
	subq	$64, %rsp
	movl	%ecx, %eax
	movq	%rdx, %rcx
	movq	%rsi, %rdx
	movq	%rdi, -40(%rbp)
	movq	%rdx, -32(%rbp)
	movq	%rcx, -24(%rbp)
	movb	%al, -9(%rbp)
Ltmp137:
	.loc	14 166 10 prologue_end
	movq	%rdi, -48(%rbp)
	.loc	14 165 17
	leaq	-48(%rbp), %rdi
	leaq	l___unnamed_4(%rip), %rsi
	movzbl	%al, %r8d
	callq	__ZN3std2rt19lang_start_internal17h72dc55d09e0a2397E
	movq	%rax, -56(%rbp)
	.loc	14 165 12 is_stmt 0
	movq	-56(%rbp), %rax
	movq	%rax, -8(%rbp)
	.loc	14 172 2 is_stmt 1
	addq	$64, %rsp
	popq	%rbp
	retq
Ltmp138:
Lfunc_end10:
	.cfi_endproc

	.p2align	4, 0x90
__ZN3std2rt10lang_start28_$u7b$$u7b$closure$u7d$$u7d$17h7a9b1335893c1cf8E:
Lfunc_begin11:
	.loc	14 166 0
	.cfi_startproc
	pushq	%rbp
	.cfi_def_cfa_offset 16
	.cfi_offset %rbp, -16
	movq	%rsp, %rbp
	.cfi_def_cfa_register %rbp
	subq	$32, %rsp
	movq	%rdi, -16(%rbp)
Ltmp139:
	.loc	14 166 77 prologue_end
	movq	(%rdi), %rdi
	.loc	14 166 18 is_stmt 0
	callq	__ZN3std10sys_common9backtrace28__rust_begin_short_backtrace17hebcfd49e94c84d20E
	callq	__ZN54_$LT$$LP$$RP$$u20$as$u20$std..process..Termination$GT$6report17hc3295277fdb75874E
	movb	%al, -17(%rbp)
Ltmp140:
	.file	15 "/rustc/2c8cc343237b8f7d5a3c3703e3a87f2eb2c54a74/library/std/src" "process.rs"
	.loc	15 1820 9 is_stmt 1
	leaq	-17(%rbp), %rax
	movq	%rax, -8(%rbp)
Ltmp141:
	.file	16 "/rustc/2c8cc343237b8f7d5a3c3703e3a87f2eb2c54a74/library/std/src/sys/unix/process" "process_common.rs"
	.loc	16 594 9
	movzbl	-17(%rbp), %eax
Ltmp142:
	.loc	14 166 100
	addq	$32, %rsp
	popq	%rbp
	retq
Ltmp143:
Lfunc_end11:
	.cfi_endproc

	.p2align	4, 0x90
__ZN3std3ffi6os_str103_$LT$impl$u20$core..convert..AsRef$LT$std..ffi..os_str..OsStr$GT$$u20$for$u20$alloc..string..String$GT$6as_ref17h73fb3ed4fea72500E:
Lfunc_begin12:
	.file	17 "/rustc/2c8cc343237b8f7d5a3c3703e3a87f2eb2c54a74/library/std/src/ffi" "os_str.rs"
	.loc	17 1329 0
	.cfi_startproc
	pushq	%rbp
	.cfi_def_cfa_offset 16
	.cfi_offset %rbp, -16
	movq	%rsp, %rbp
	.cfi_def_cfa_register %rbp
	subq	$160, %rsp
	movq	%rdi, -160(%rbp)
Ltmp144:
	.loc	17 1330 12 prologue_end
	movq	%rdi, -152(%rbp)
Ltmp145:
	.file	18 "/rustc/2c8cc343237b8f7d5a3c3703e3a87f2eb2c54a74/library/alloc/src" "string.rs"
	.loc	18 2460 43
	callq	__ZN72_$LT$alloc..vec..Vec$LT$T$C$A$GT$$u20$as$u20$core..ops..deref..Deref$GT$5deref17hfc60ab601cb9be5dE
	movq	%rax, -144(%rbp)
	movq	%rdx, -136(%rbp)
Ltmp146:
	.file	19 "/rustc/2c8cc343237b8f7d5a3c3703e3a87f2eb2c54a74/library/core/src/str" "converts.rs"
	.loc	19 173 14
	movq	%rax, -128(%rbp)
	movq	%rdx, -120(%rbp)
	movq	-128(%rbp), %rcx
	movq	-120(%rbp), %rax
Ltmp147:
	.loc	17 1330 9
	movq	%rcx, -112(%rbp)
	movq	%rax, -104(%rbp)
Ltmp148:
	.loc	17 1322 43
	movq	%rcx, -96(%rbp)
	movq	%rax, -88(%rbp)
Ltmp149:
	.file	20 "/rustc/2c8cc343237b8f7d5a3c3703e3a87f2eb2c54a74/library/std/src/sys/unix" "os_str.rs"
	.loc	20 201 30
	movq	%rcx, -80(%rbp)
	movq	%rax, -72(%rbp)
Ltmp150:
	.file	21 "/rustc/2c8cc343237b8f7d5a3c3703e3a87f2eb2c54a74/library/core/src/str" "mod.rs"
	.loc	21 327 18
	movq	%rcx, -64(%rbp)
	movq	%rax, -56(%rbp)
	movq	-64(%rbp), %rcx
	movq	-56(%rbp), %rax
Ltmp151:
	.loc	20 201 30
	movq	%rcx, -48(%rbp)
	movq	%rax, -40(%rbp)
Ltmp152:
	.loc	20 196 18
	movq	%rcx, -32(%rbp)
	movq	%rax, -24(%rbp)
	movq	-32(%rbp), %rax
	movq	-24(%rbp), %rdx
Ltmp153:
	.loc	17 1322 27
	movq	%rax, -16(%rbp)
	movq	%rdx, -8(%rbp)
Ltmp154:
	.loc	17 1331 6
	addq	$160, %rsp
	popq	%rbp
	retq
Ltmp155:
Lfunc_end12:
	.cfi_endproc

	.p2align	4, 0x90
__ZN3std3ffi6os_str85_$LT$impl$u20$core..convert..AsRef$LT$std..ffi..os_str..OsStr$GT$$u20$for$u20$str$GT$6as_ref17h898ffbfcd0736433E:
Lfunc_begin13:
	.loc	17 1321 0
	.cfi_startproc
	pushq	%rbp
	.cfi_def_cfa_offset 16
	.cfi_offset %rbp, -16
	movq	%rsp, %rbp
	.cfi_def_cfa_register %rbp
	subq	$112, %rsp
	movq	%rdi, -112(%rbp)
	movq	%rsi, -104(%rbp)
Ltmp156:
	.loc	17 1322 43 prologue_end
	movq	%rdi, -96(%rbp)
	movq	%rsi, -88(%rbp)
Ltmp157:
	.loc	20 201 30
	movq	%rdi, -80(%rbp)
	movq	%rsi, -72(%rbp)
Ltmp158:
	.loc	21 327 18
	movq	%rdi, -64(%rbp)
	movq	%rsi, -56(%rbp)
	movq	-64(%rbp), %rcx
	movq	-56(%rbp), %rax
Ltmp159:
	.loc	20 201 30
	movq	%rcx, -48(%rbp)
	movq	%rax, -40(%rbp)
Ltmp160:
	.loc	20 196 18
	movq	%rcx, -32(%rbp)
	movq	%rax, -24(%rbp)
	movq	-32(%rbp), %rax
	movq	-24(%rbp), %rdx
Ltmp161:
	.loc	17 1322 27
	movq	%rax, -16(%rbp)
	movq	%rdx, -8(%rbp)
	.loc	17 1323 6
	addq	$112, %rsp
	popq	%rbp
	retq
Ltmp162:
Lfunc_end13:
	.cfi_endproc

	.p2align	4, 0x90
__ZN3std4path4Path3new17h488ed1c793083788E:
Lfunc_begin14:
	.file	22 "/rustc/2c8cc343237b8f7d5a3c3703e3a87f2eb2c54a74/library/std/src" "path.rs"
	.loc	22 2037 0
	.cfi_startproc
	pushq	%rbp
	.cfi_def_cfa_offset 16
	.cfi_offset %rbp, -16
	movq	%rsp, %rbp
	.cfi_def_cfa_register %rbp
	subq	$16, %rsp
	movq	%rdi, -16(%rbp)
	movq	%rsi, -8(%rbp)
Ltmp163:
	.loc	22 2038 21 prologue_end
	callq	__ZN3std3ffi6os_str85_$LT$impl$u20$core..convert..AsRef$LT$std..ffi..os_str..OsStr$GT$$u20$for$u20$str$GT$6as_ref17h898ffbfcd0736433E
	.loc	22 2039 6
	addq	$16, %rsp
	popq	%rbp
	retq
Ltmp164:
Lfunc_end14:
	.cfi_endproc

	.p2align	4, 0x90
__ZN3std4path4Path3new17h9030b00e077da7a3E:
Lfunc_begin15:
	.loc	22 2037 0
	.cfi_startproc
	pushq	%rbp
	.cfi_def_cfa_offset 16
	.cfi_offset %rbp, -16
	movq	%rsp, %rbp
	.cfi_def_cfa_register %rbp
	subq	$16, %rsp
	movq	%rdi, -8(%rbp)
Ltmp165:
	.loc	22 2038 21 prologue_end
	callq	__ZN3std3ffi6os_str103_$LT$impl$u20$core..convert..AsRef$LT$std..ffi..os_str..OsStr$GT$$u20$for$u20$alloc..string..String$GT$6as_ref17h73fb3ed4fea72500E
	.loc	22 2039 6
	addq	$16, %rsp
	popq	%rbp
	retq
Ltmp166:
Lfunc_end15:
	.cfi_endproc

	.p2align	4, 0x90
__ZN3std4path4Path4join17h9948c5d6068b8b18E:
Lfunc_begin16:
	.loc	22 2545 0
	.cfi_startproc
	.cfi_personality 155, _rust_eh_personality
	.cfi_lsda 16, Lexception6
	pushq	%rbp
	.cfi_def_cfa_offset 16
	.cfi_offset %rbp, -16
	movq	%rsp, %rbp
	.cfi_def_cfa_register %rbp
	subq	$96, %rsp
	movq	%rdx, -96(%rbp)
	movq	%rsi, -88(%rbp)
	movq	%rdi, -80(%rbp)
	movq	%rdi, -72(%rbp)
	movq	%rcx, -48(%rbp)
	movq	%r8, -40(%rbp)
	movq	%rsi, -32(%rbp)
	movq	%rdx, -24(%rbp)
Ltmp167:
	leaq	-48(%rbp), %rdi
Ltmp172:
	.loc	22 2546 20 prologue_end
	callq	__ZN55_$LT$$RF$T$u20$as$u20$core..convert..AsRef$LT$U$GT$$GT$6as_ref17hdfcaac605e8aca97E
Ltmp168:
	movq	%rdx, -64(%rbp)
	movq	%rax, -56(%rbp)
	jmp	LBB16_3
LBB16_1:
	.loc	22 2545 5
	movq	-16(%rbp), %rdi
	callq	__Unwind_Resume
LBB16_2:
Ltmp171:
	.loc	22 0 5 is_stmt 0
	movq	%rax, %rcx
	movl	%edx, %eax
	movq	%rcx, -16(%rbp)
	movl	%eax, -8(%rbp)
	jmp	LBB16_1
LBB16_3:
Ltmp169:
	movq	-64(%rbp), %r8
	movq	-56(%rbp), %rcx
	movq	-96(%rbp), %rdx
	movq	-88(%rbp), %rsi
	movq	-80(%rbp), %rdi
	.loc	22 2546 9 is_stmt 1
	callq	__ZN3std4path4Path5_join17h09a4a37dd04fbaf0E
Ltmp170:
	jmp	LBB16_4
LBB16_4:
	.loc	22 0 9 is_stmt 0
	movq	-72(%rbp), %rax
	.loc	22 2547 6 is_stmt 1
	addq	$96, %rsp
	popq	%rbp
	retq
Ltmp173:
Lfunc_end16:
	.cfi_endproc
	.section	__TEXT,__gcc_except_tab
	.p2align	2
GCC_except_table16:
Lexception6:
	.byte	255
	.byte	255
	.byte	1
	.uleb128 Lcst_end6-Lcst_begin6
Lcst_begin6:
	.uleb128 Ltmp167-Lfunc_begin16
	.uleb128 Ltmp168-Ltmp167
	.uleb128 Ltmp171-Lfunc_begin16
	.byte	0
	.uleb128 Ltmp168-Lfunc_begin16
	.uleb128 Ltmp169-Ltmp168
	.byte	0
	.byte	0
	.uleb128 Ltmp169-Lfunc_begin16
	.uleb128 Ltmp170-Ltmp169
	.uleb128 Ltmp171-Lfunc_begin16
	.byte	0
Lcst_end6:
	.p2align	2

	.section	__TEXT,__text,regular,pure_instructions
	.p2align	4, 0x90
__ZN3std4path77_$LT$impl$u20$core..convert..AsRef$LT$std..path..Path$GT$$u20$for$u20$str$GT$6as_ref17he2fffb985d280c9cE:
Lfunc_begin17:
	.loc	22 3138 0
	.cfi_startproc
	pushq	%rbp
	.cfi_def_cfa_offset 16
	.cfi_offset %rbp, -16
	movq	%rsp, %rbp
	.cfi_def_cfa_register %rbp
	subq	$16, %rsp
	movq	%rdi, -16(%rbp)
	movq	%rsi, -8(%rbp)
Ltmp174:
	.loc	22 3139 9 prologue_end
	callq	__ZN3std4path4Path3new17h488ed1c793083788E
	.loc	22 3140 6
	addq	$16, %rsp
	popq	%rbp
	retq
Ltmp175:
Lfunc_end17:
	.cfi_endproc

	.p2align	4, 0x90
__ZN47_$LT$u64$u20$as$u20$core..iter..range..Step$GT$17forward_unchecked17hc5ccc99a68dc3011E:
Lfunc_begin18:
	.file	23 "/rustc/2c8cc343237b8f7d5a3c3703e3a87f2eb2c54a74/library/core/src/iter" "range.rs"
	.loc	23 189 0
	.cfi_startproc
	pushq	%rbp
	.cfi_def_cfa_offset 16
	.cfi_offset %rbp, -16
	movq	%rsp, %rbp
	.cfi_def_cfa_register %rbp
	subq	$40, %rsp
	movq	%rdi, -40(%rbp)
	movq	%rsi, -32(%rbp)
Ltmp176:
	.loc	23 191 22 prologue_end
	movq	%rdi, -24(%rbp)
	.loc	23 191 42 is_stmt 0
	movq	%rsi, -16(%rbp)
Ltmp177:
	.file	24 "/rustc/2c8cc343237b8f7d5a3c3703e3a87f2eb2c54a74/library/core/src/num" "uint_macros.rs"
	.loc	24 470 22 is_stmt 1
	addq	%rsi, %rdi
	movq	%rdi, -8(%rbp)
	movq	-8(%rbp), %rax
Ltmp178:
	.loc	23 192 10
	addq	$40, %rsp
	popq	%rbp
	retq
Ltmp179:
Lfunc_end18:
	.cfi_endproc

	.p2align	4, 0x90
__ZN4core3any6TypeId2of17hda901f92917f2ebdE:
Lfunc_begin19:
	.file	25 "/rustc/2c8cc343237b8f7d5a3c3703e3a87f2eb2c54a74/library/core/src" "any.rs"
	.loc	25 691 0
	.cfi_startproc
	pushq	%rbp
	.cfi_def_cfa_offset 16
	.cfi_offset %rbp, -16
	movq	%rsp, %rbp
	.cfi_def_cfa_register %rbp
	subq	$16, %rsp
Ltmp180:
	.loc	25 692 21 prologue_end
	movabsq	$2251324904900554832, %rax
	movq	%rax, -8(%rbp)
	movq	-8(%rbp), %rax
	.loc	25 692 9 is_stmt 0
	movq	%rax, -16(%rbp)
	.loc	25 693 6 is_stmt 1
	movq	-16(%rbp), %rax
	addq	$16, %rsp
	popq	%rbp
	retq
Ltmp181:
Lfunc_end19:
	.cfi_endproc

	.p2align	4, 0x90
__ZN4core3cmp5impls55_$LT$impl$u20$core..cmp..PartialOrd$u20$for$u20$u64$GT$2lt17hd12df8c7198e0cd0E:
Lfunc_begin20:
	.file	26 "/rustc/2c8cc343237b8f7d5a3c3703e3a87f2eb2c54a74/library/core/src" "cmp.rs"
	.loc	26 1441 0
	.cfi_startproc
	pushq	%rbp
	.cfi_def_cfa_offset 16
	.cfi_offset %rbp, -16
	movq	%rsp, %rbp
	.cfi_def_cfa_register %rbp
	subq	$16, %rsp
	movq	%rdi, -16(%rbp)
	movq	%rsi, -8(%rbp)
Ltmp182:
	.loc	26 1441 52 prologue_end
	movq	(%rdi), %rax
	cmpq	(%rsi), %rax
	setb	%al
	.loc	26 1441 72 is_stmt 0
	andb	$1, %al
	movzbl	%al, %eax
	addq	$16, %rsp
	popq	%rbp
	retq
Ltmp183:
Lfunc_end20:
	.cfi_endproc

	.p2align	4, 0x90
__ZN4core3cmp5impls69_$LT$impl$u20$core..cmp..PartialEq$LT$$RF$B$GT$$u20$for$u20$$RF$A$GT$2eq17h3f4180d73f11c68aE:
Lfunc_begin21:
	.loc	26 1530 0 is_stmt 1
	.cfi_startproc
	pushq	%rbp
	.cfi_def_cfa_offset 16
	.cfi_offset %rbp, -16
	movq	%rsp, %rbp
	.cfi_def_cfa_register %rbp
	subq	$16, %rsp
	movq	%rsi, %rax
	movq	%rdi, %rcx
	movq	%rcx, -16(%rbp)
	movq	%rax, -8(%rbp)
Ltmp184:
	.loc	26 1531 27 prologue_end
	movq	(%rcx), %rdi
	movq	8(%rcx), %rsi
	.loc	26 1531 34 is_stmt 0
	movq	(%rax), %rdx
	movq	8(%rax), %rcx
	.loc	26 1531 13
	callq	__ZN4core3str6traits54_$LT$impl$u20$core..cmp..PartialEq$u20$for$u20$str$GT$2eq17h730cb3d959692efcE
	.loc	26 1532 10 is_stmt 1
	andb	$1, %al
	movzbl	%al, %eax
	addq	$16, %rsp
	popq	%rbp
	retq
Ltmp185:
Lfunc_end21:
	.cfi_endproc

	.p2align	4, 0x90
__ZN4core3cmp5impls69_$LT$impl$u20$core..cmp..PartialEq$LT$$RF$B$GT$$u20$for$u20$$RF$A$GT$2eq17h7cbc5f6792bb6617E:
Lfunc_begin22:
	.loc	26 1530 0
	.cfi_startproc
	pushq	%rbp
	.cfi_def_cfa_offset 16
	.cfi_offset %rbp, -16
	movq	%rsp, %rbp
	.cfi_def_cfa_register %rbp
	subq	$16, %rsp
	movq	%rdi, -16(%rbp)
	movq	%rsi, -8(%rbp)
Ltmp186:
	.loc	26 1531 27 prologue_end
	movq	(%rdi), %rdi
	.loc	26 1531 34 is_stmt 0
	movq	(%rsi), %rsi
	.loc	26 1531 13
	callq	__ZN59_$LT$std..env..VarError$u20$as$u20$core..cmp..PartialEq$GT$2eq17h4a746bfa6743028eE
	.loc	26 1532 10 is_stmt 1
	andb	$1, %al
	movzbl	%al, %eax
	addq	$16, %rsp
	popq	%rbp
	retq
Ltmp187:
Lfunc_end22:
	.cfi_endproc

	.p2align	4, 0x90
__ZN4core3fmt10ArgumentV111new_display17h8667e834a70b8923E:
Lfunc_begin23:
	.file	27 "/rustc/2c8cc343237b8f7d5a3c3703e3a87f2eb2c54a74/library/core/src/fmt" "mod.rs"
	.loc	27 327 0
	.cfi_startproc
	pushq	%rbp
	.cfi_def_cfa_offset 16
	.cfi_offset %rbp, -16
	movq	%rsp, %rbp
	.cfi_def_cfa_register %rbp
	subq	$56, %rsp
	movq	%rdi, -40(%rbp)
Ltmp188:
	.loc	27 328 23 prologue_end
	movq	%rdi, -32(%rbp)
	.loc	27 328 26 is_stmt 0
	movq	__ZN4core3fmt3num3imp52_$LT$impl$u20$core..fmt..Display$u20$for$u20$u64$GT$3fmt17hc0b393b21668e9bfE@GOTPCREL(%rip), %rax
	movq	%rax, -24(%rbp)
Ltmp189:
	.loc	27 347 42 is_stmt 1
	movq	%rax, -16(%rbp)
	movq	-16(%rbp), %rax
	.loc	27 347 68 is_stmt 0
	movq	%rdi, -8(%rbp)
	movq	-8(%rbp), %rcx
	.loc	27 347 18
	movq	%rcx, -56(%rbp)
	movq	%rax, -48(%rbp)
Ltmp190:
	.loc	27 329 10 is_stmt 1
	movq	-56(%rbp), %rax
	movq	-48(%rbp), %rdx
	addq	$56, %rsp
	popq	%rbp
	retq
Ltmp191:
Lfunc_end23:
	.cfi_endproc

	.p2align	4, 0x90
__ZN4core3fmt10ArgumentV111new_display17hd4d012f3dc3da058E:
Lfunc_begin24:
	.loc	27 327 0
	.cfi_startproc
	pushq	%rbp
	.cfi_def_cfa_offset 16
	.cfi_offset %rbp, -16
	movq	%rsp, %rbp
	.cfi_def_cfa_register %rbp
	subq	$56, %rsp
	movq	%rdi, -40(%rbp)
Ltmp192:
	.loc	27 328 23 prologue_end
	movq	%rdi, -32(%rbp)
	.loc	27 328 26 is_stmt 0
	movq	__ZN4core3fmt3num3imp52_$LT$impl$u20$core..fmt..Display$u20$for$u20$i32$GT$3fmt17hd51e25ed68474bbaE@GOTPCREL(%rip), %rax
	movq	%rax, -24(%rbp)
Ltmp193:
	.loc	27 347 42 is_stmt 1
	movq	%rax, -16(%rbp)
	movq	-16(%rbp), %rax
	.loc	27 347 68 is_stmt 0
	movq	%rdi, -8(%rbp)
	movq	-8(%rbp), %rcx
	.loc	27 347 18
	movq	%rcx, -56(%rbp)
	movq	%rax, -48(%rbp)
Ltmp194:
	.loc	27 329 10 is_stmt 1
	movq	-56(%rbp), %rax
	movq	-48(%rbp), %rdx
	addq	$56, %rsp
	popq	%rbp
	retq
Ltmp195:
Lfunc_end24:
	.cfi_endproc

	.p2align	4, 0x90
__ZN4core3fmt5Write10write_char17hfae2bf02fc12efcfE:
Lfunc_begin25:
	.loc	27 168 0
	.cfi_startproc
	pushq	%rbp
	.cfi_def_cfa_offset 16
	.cfi_offset %rbp, -16
	movq	%rsp, %rbp
	.cfi_def_cfa_register %rbp
	subq	$80, %rsp
	movq	%rdi, -64(%rbp)
	movl	%esi, -68(%rbp)
	movq	%rdi, -48(%rbp)
	movl	%esi, -40(%rbp)
Ltmp196:
	.loc	27 169 24 prologue_end
	movl	%esi, -36(%rbp)
	.loc	27 169 43 is_stmt 0
	leaq	-52(%rbp), %rdi
	xorl	%esi, %esi
	movl	$4, %edx
	callq	_memset
	movl	-68(%rbp), %edi
	.loc	27 169 38
	leaq	-52(%rbp), %rax
	movq	%rax, -32(%rbp)
	movq	$4, -24(%rbp)
Ltmp197:
	.file	28 "/rustc/2c8cc343237b8f7d5a3c3703e3a87f2eb2c54a74/library/core/src/char" "methods.rs"
	.loc	28 663 42 is_stmt 1
	leaq	-52(%rbp), %rsi
	movl	$4, %edx
	callq	__ZN4core4char7methods15encode_utf8_raw17h1a74b45f5b5f0e17E
	movq	-64(%rbp), %rdi
	movq	%rax, %rsi
	movq	%rsi, -16(%rbp)
	movq	%rdx, -8(%rbp)
Ltmp198:
	.loc	27 169 9
	callq	__ZN80_$LT$std..io..Write..write_fmt..Adapter$LT$T$GT$$u20$as$u20$core..fmt..Write$GT$9write_str17hf4ff96312a9420e4E
	.loc	27 170 6
	andb	$1, %al
	movzbl	%al, %eax
	addq	$80, %rsp
	popq	%rbp
	retq
Ltmp199:
Lfunc_end25:
	.cfi_endproc

	.p2align	4, 0x90
__ZN4core3fmt5Write9write_fmt17h9f5c150571f94617E:
Lfunc_begin26:
	.loc	27 196 0
	.cfi_startproc
	pushq	%rbp
	.cfi_def_cfa_offset 16
	.cfi_offset %rbp, -16
	movq	%rsp, %rbp
	.cfi_def_cfa_register %rbp
	subq	$64, %rsp
	movq	%rdi, -56(%rbp)
Ltmp200:
	.loc	27 197 26 prologue_end
	leaq	-48(%rbp), %rdi
	movl	$48, %edx
	callq	_memcpy
Ltmp201:
	.loc	27 197 9 is_stmt 0
	leaq	-56(%rbp), %rdi
	leaq	l___unnamed_5(%rip), %rsi
	leaq	-48(%rbp), %rdx
	callq	__ZN4core3fmt5write17hfa389e524187f2c6E
	.loc	27 198 6 is_stmt 1
	andb	$1, %al
	movzbl	%al, %eax
	addq	$64, %rsp
	popq	%rbp
	retq
Ltmp202:
Lfunc_end26:
	.cfi_endproc

	.p2align	4, 0x90
__ZN4core3fmt9Arguments16new_v1_formatted17hf6702eee5b5917deE:
Lfunc_begin27:
	.loc	27 419 0
	.cfi_startproc
	pushq	%rbp
	.cfi_def_cfa_offset 16
	.cfi_offset %rbp, -16
	movq	%rsp, %rbp
	.cfi_def_cfa_register %rbp
	subq	$72, %rsp
	movq	%r9, %r10
	movq	%rdi, %rax
	movq	16(%rbp), %r9
	movq	%rsi, -56(%rbp)
	movq	%rdx, -48(%rbp)
	movq	%rcx, -40(%rbp)
	movq	%r8, -32(%rbp)
	movq	%r10, -24(%rbp)
	movq	%r9, -16(%rbp)
Ltmp203:
	.loc	27 425 34 prologue_end
	movq	%r10, -72(%rbp)
	movq	%r9, -64(%rbp)
	.loc	27 425 9 is_stmt 0
	movq	%rsi, 16(%rdi)
	movq	%rdx, 24(%rdi)
	movq	-72(%rbp), %rsi
	movq	-64(%rbp), %rdx
	movq	%rsi, (%rdi)
	movq	%rdx, 8(%rdi)
	movq	%rcx, 32(%rdi)
	movq	%r8, 40(%rdi)
	.loc	27 426 6 is_stmt 1
	addq	$72, %rsp
	popq	%rbp
	retq
Ltmp204:
Lfunc_end27:
	.cfi_endproc

	.p2align	4, 0x90
__ZN4core3fmt9Arguments6as_str17h310bdf7d73090463E:
Lfunc_begin28:
	.loc	27 521 0
	.cfi_startproc
	pushq	%rbp
	.cfi_def_cfa_offset 16
	.cfi_offset %rbp, -16
	movq	%rsp, %rbp
	.cfi_def_cfa_register %rbp
	subq	$64, %rsp
	movq	%rdi, -16(%rbp)
Ltmp205:
	.loc	27 522 16 prologue_end
	movq	16(%rdi), %rsi
	movq	24(%rdi), %rdx
	.loc	27 522 29 is_stmt 0
	movq	32(%rdi), %rcx
	movq	40(%rdi), %rax
	.loc	27 522 15
	movq	%rsi, -48(%rbp)
	movq	%rdx, -40(%rbp)
	movq	%rcx, -32(%rbp)
	movq	%rax, -24(%rbp)
	.loc	27 523 14 is_stmt 1
	cmpq	$0, -40(%rbp)
	je	LBB28_2
	.loc	27 524 14
	cmpq	$1, -40(%rbp)
	je	LBB28_6
	jmp	LBB28_3
LBB28_2:
	.loc	27 523 18
	cmpq	$0, -24(%rbp)
	je	LBB28_4
LBB28_3:
	.loc	27 525 18
	movq	$0, -64(%rbp)
	jmp	LBB28_5
LBB28_4:
	.loc	27 523 25
	leaq	l___unnamed_11(%rip), %rax
	movq	%rax, -64(%rbp)
	movq	$0, -56(%rbp)
LBB28_5:
	.loc	27 527 6
	movq	-64(%rbp), %rax
	movq	-56(%rbp), %rdx
	addq	$64, %rsp
	popq	%rbp
	retq
LBB28_6:
	.loc	27 524 19
	cmpq	$0, -24(%rbp)
	jne	LBB28_3
	.loc	27 524 15 is_stmt 0
	movq	-48(%rbp), %rax
	movq	%rax, -8(%rbp)
Ltmp206:
	.loc	27 524 31
	movq	(%rax), %rcx
	movq	8(%rax), %rax
	.loc	27 524 26
	movq	%rcx, -64(%rbp)
	movq	%rax, -56(%rbp)
Ltmp207:
	.loc	27 524 32
	jmp	LBB28_5
Ltmp208:
Lfunc_end28:
	.cfi_endproc

	.p2align	4, 0x90
__ZN4core3fmt9Arguments6new_v117hb07f32a6d50ff579E:
Lfunc_begin29:
	.loc	27 399 0 is_stmt 1
	.cfi_startproc
	pushq	%rbp
	.cfi_def_cfa_offset 16
	.cfi_offset %rbp, -16
	movq	%rsp, %rbp
	.cfi_def_cfa_register %rbp
	subq	$160, %rsp
	movq	%r8, -152(%rbp)
	movq	%rcx, -144(%rbp)
	movq	%rdx, -136(%rbp)
	movq	%rsi, -128(%rbp)
	movq	%rdi, -120(%rbp)
	movq	%rdi, -112(%rbp)
	movq	%rsi, -32(%rbp)
	movq	%rdx, -24(%rbp)
	movq	%rcx, -16(%rbp)
	movq	%r8, -8(%rbp)
Ltmp209:
	.loc	27 400 12 prologue_end
	cmpq	%r8, %rdx
	jb	LBB29_2
	.loc	27 0 12 is_stmt 0
	movq	-136(%rbp), %rax
	movq	-152(%rbp), %rcx
	.loc	27 400 56
	addq	$1, %rcx
	.loc	27 400 41
	cmpq	%rcx, %rax
	seta	%al
	.loc	27 400 12
	andb	$1, %al
	movb	%al, -97(%rbp)
	jmp	LBB29_3
LBB29_2:
	movb	$1, -97(%rbp)
LBB29_3:
	testb	$1, -97(%rbp)
	jne	LBB29_5
	.loc	27 0 12
	movq	-112(%rbp), %rax
	movq	-120(%rbp), %rcx
	movq	-152(%rbp), %rdx
	movq	-144(%rbp), %rsi
	movq	-136(%rbp), %rdi
	movq	-128(%rbp), %r8
	.loc	27 403 34 is_stmt 1
	movq	$0, -48(%rbp)
	.loc	27 403 9 is_stmt 0
	movq	%r8, 16(%rcx)
	movq	%rdi, 24(%rcx)
	movq	-48(%rbp), %r8
	movq	-40(%rbp), %rdi
	movq	%r8, (%rcx)
	movq	%rdi, 8(%rcx)
	movq	%rsi, 32(%rcx)
	movq	%rdx, 40(%rcx)
	.loc	27 404 6 is_stmt 1
	addq	$160, %rsp
	popq	%rbp
	retq
LBB29_5:
	.loc	27 401 13
	leaq	l___unnamed_12(%rip), %rsi
	leaq	l___unnamed_11(%rip), %rcx
	xorl	%eax, %eax
	movl	%eax, %r8d
	leaq	-96(%rbp), %rdi
	movq	%rdi, -160(%rbp)
	movl	$1, %edx
	callq	__ZN4core3fmt9Arguments6new_v117hb07f32a6d50ff579E
	movq	-160(%rbp), %rdi
	leaq	l___unnamed_13(%rip), %rsi
	callq	__ZN4core9panicking9panic_fmt17h9b5d807e24bcaaedE
Ltmp210:
Lfunc_end29:
	.cfi_endproc

	.p2align	4, 0x90
__ZN4core3mem7replace17h694062d671371e3bE:
Lfunc_begin30:
	.file	29 "/rustc/2c8cc343237b8f7d5a3c3703e3a87f2eb2c54a74/library/core/src/mem" "mod.rs"
	.loc	29 905 0
	.cfi_startproc
	pushq	%rbp
	.cfi_def_cfa_offset 16
	.cfi_offset %rbp, -16
	movq	%rsp, %rbp
	.cfi_def_cfa_register %rbp
	subq	$120, %rsp
	movq	%rdi, -120(%rbp)
	movq	%rsi, -112(%rbp)
	movq	%rdi, -80(%rbp)
	movq	%rsi, -72(%rbp)
Ltmp211:
	.loc	29 910 32 prologue_end
	movq	%rdi, -64(%rbp)
Ltmp212:
	.file	30 "/rustc/2c8cc343237b8f7d5a3c3703e3a87f2eb2c54a74/library/core/src/ptr" "mod.rs"
	.loc	30 1157 34
	leaq	-88(%rbp), %rax
	movq	%rax, -56(%rbp)
	.loc	30 1157 9 is_stmt 0
	movq	(%rdi), %rax
	movq	%rax, -88(%rbp)
	.loc	30 1158 9 is_stmt 1
	movq	-88(%rbp), %rax
	movq	%rax, -104(%rbp)
	movq	%rax, -48(%rbp)
	.loc	30 0 9 is_stmt 0
	movq	-104(%rbp), %rax
	movq	-120(%rbp), %rcx
	movq	-112(%rbp), %rdx
Ltmp213:
	.file	31 "/rustc/2c8cc343237b8f7d5a3c3703e3a87f2eb2c54a74/library/core/src/mem" "maybe_uninit.rs"
	.loc	31 627 38 is_stmt 1
	movq	%rax, -24(%rbp)
Ltmp214:
	.file	32 "/rustc/2c8cc343237b8f7d5a3c3703e3a87f2eb2c54a74/library/core/src/mem" "manually_drop.rs"
	.loc	32 89 9
	movq	%rax, -16(%rbp)
Ltmp215:
	.loc	29 911 20
	movq	%rcx, -8(%rbp)
	.loc	29 911 26 is_stmt 0
	movq	%rdx, -96(%rbp)
Ltmp216:
	.loc	30 1354 9 is_stmt 1
	movq	-96(%rbp), %rdx
	movq	%rdx, (%rcx)
Ltmp217:
	.loc	29 914 2
	addq	$120, %rsp
	popq	%rbp
	retq
Ltmp218:
Lfunc_end30:
	.cfi_endproc

	.p2align	4, 0x90
__ZN4core3num21_$LT$impl$u20$u64$GT$11checked_mul17h97662ab5f4ddaf13E:
Lfunc_begin31:
	.loc	24 558 0
	.cfi_startproc
	pushq	%rbp
	.cfi_def_cfa_offset 16
	.cfi_offset %rbp, -16
	movq	%rsp, %rbp
	.cfi_def_cfa_register %rbp
	subq	$120, %rsp
	movq	%rdi, %rax
	movq	%rax, -80(%rbp)
	movq	%rsi, -72(%rbp)
Ltmp219:
	.loc	24 559 26 prologue_end
	movq	%rax, -64(%rbp)
	.loc	24 559 47 is_stmt 0
	movq	%rsi, -56(%rbp)
Ltmp220:
	.loc	24 1677 26 is_stmt 1
	mulq	%rsi
	movq	%rax, %rcx
	seto	%al
	andb	$1, %al
	movq	%rcx, -48(%rbp)
	movb	%al, -40(%rbp)
	movq	-48(%rbp), %rcx
	movb	-40(%rbp), %al
	.loc	24 1677 18 is_stmt 0
	movq	%rcx, -32(%rbp)
	.loc	24 1677 21
	movb	%al, %dl
	andb	$1, %dl
	movb	%dl, -17(%rbp)
Ltmp221:
	.loc	24 1678 13 is_stmt 1
	movq	%rcx, -96(%rbp)
	andb	$1, %al
	movb	%al, -88(%rbp)
Ltmp222:
	.loc	24 559 18
	movq	-96(%rbp), %rax
	movq	%rax, -120(%rbp)
	movq	%rax, -16(%rbp)
	.loc	24 559 21 is_stmt 0
	movb	-88(%rbp), %al
	movb	%al, %cl
	andb	$1, %cl
	movb	%cl, -2(%rbp)
Ltmp223:
	.loc	24 560 16 is_stmt 1
	andb	$1, %al
	movb	%al, -1(%rbp)
	testb	$1, -1(%rbp)
	jne	LBB31_2
	.loc	24 0 16 is_stmt 0
	movq	-120(%rbp), %rax
	.loc	24 560 42
	movq	%rax, -104(%rbp)
	movq	$1, -112(%rbp)
	.loc	24 560 13
	jmp	LBB31_3
LBB31_2:
	.loc	24 560 30
	movq	$0, -112(%rbp)
Ltmp224:
LBB31_3:
	.loc	24 561 10 is_stmt 1
	movq	-112(%rbp), %rax
	movq	-104(%rbp), %rdx
	addq	$120, %rsp
	popq	%rbp
	retq
Ltmp225:
Lfunc_end31:
	.cfi_endproc

	.p2align	4, 0x90
__ZN4core3ops8function6FnOnce40call_once$u7b$$u7b$vtable.shim$u7d$$u7d$17h167bf66fa578f9a5E:
Lfunc_begin32:
	.file	33 "/rustc/2c8cc343237b8f7d5a3c3703e3a87f2eb2c54a74/library/core/src/ops" "function.rs"
	.loc	33 250 0
	.cfi_startproc
	pushq	%rbp
	.cfi_def_cfa_offset 16
	.cfi_offset %rbp, -16
	movq	%rsp, %rbp
	.cfi_def_cfa_register %rbp
	subq	$16, %rsp
	movq	%rdi, -8(%rbp)
Ltmp226:
	.loc	33 250 5 prologue_end
	movq	(%rdi), %rdi
	callq	__ZN4core3ops8function6FnOnce9call_once17h408966bc602bad78E
	addq	$16, %rsp
	popq	%rbp
	retq
Ltmp227:
Lfunc_end32:
	.cfi_endproc

	.p2align	4, 0x90
__ZN4core3ops8function6FnOnce9call_once17h408966bc602bad78E:
Lfunc_begin33:
	.loc	33 250 0
	.cfi_startproc
	.cfi_personality 155, _rust_eh_personality
	.cfi_lsda 16, Lexception7
	pushq	%rbp
	.cfi_def_cfa_offset 16
	.cfi_offset %rbp, -16
	movq	%rsp, %rbp
	.cfi_def_cfa_register %rbp
	subq	$48, %rsp
	movq	%rdi, -32(%rbp)
Ltmp228:
	leaq	-32(%rbp), %rdi
Ltmp231:
	.loc	33 250 5 prologue_end
	callq	__ZN3std2rt10lang_start28_$u7b$$u7b$closure$u7d$$u7d$17h7a9b1335893c1cf8E
Ltmp229:
	movl	%eax, -36(%rbp)
	jmp	LBB33_3
LBB33_1:
	movq	-16(%rbp), %rdi
	callq	__Unwind_Resume
LBB33_2:
Ltmp230:
	.loc	33 0 5 is_stmt 0
	movq	%rax, %rcx
	movl	%edx, %eax
	movq	%rcx, -16(%rbp)
	movl	%eax, -8(%rbp)
	jmp	LBB33_1
LBB33_3:
	movl	-36(%rbp), %eax
	.loc	33 250 5
	addq	$48, %rsp
	popq	%rbp
	retq
Ltmp232:
Lfunc_end33:
	.cfi_endproc
	.section	__TEXT,__gcc_except_tab
	.p2align	2
GCC_except_table33:
Lexception7:
	.byte	255
	.byte	255
	.byte	1
	.uleb128 Lcst_end7-Lcst_begin7
Lcst_begin7:
	.uleb128 Ltmp228-Lfunc_begin33
	.uleb128 Ltmp229-Ltmp228
	.uleb128 Ltmp230-Lfunc_begin33
	.byte	0
	.uleb128 Ltmp229-Lfunc_begin33
	.uleb128 Lfunc_end33-Ltmp229
	.byte	0
	.byte	0
Lcst_end7:
	.p2align	2

	.section	__TEXT,__text,regular,pure_instructions
	.p2align	4, 0x90
__ZN4core3ops8function6FnOnce9call_once17h79deb3e49bb0dee1E:
Lfunc_begin34:
	.loc	33 250 0 is_stmt 1
	.cfi_startproc
	pushq	%rbp
	.cfi_def_cfa_offset 16
	.cfi_offset %rbp, -16
	movq	%rsp, %rbp
	.cfi_def_cfa_register %rbp
	subq	$16, %rsp
	movq	%rdi, -16(%rbp)
Ltmp233:
	.loc	33 250 5 prologue_end
	movq	-16(%rbp), %rdi
	callq	__ZN5alloc6string6String6as_str17ha22555949f983850E
	addq	$16, %rsp
	popq	%rbp
	retq
Ltmp234:
Lfunc_end34:
	.cfi_endproc

	.p2align	4, 0x90
__ZN4core3ops8function6FnOnce9call_once17ha7a778e94aa02ccbE:
Lfunc_begin35:
	.loc	33 250 0
	.cfi_startproc
	pushq	%rbp
	.cfi_def_cfa_offset 16
	.cfi_offset %rbp, -16
	movq	%rsp, %rbp
	.cfi_def_cfa_register %rbp
	subq	$16, %rsp
	movq	%rdi, -8(%rbp)
Ltmp235:
	.loc	33 250 5 prologue_end
	callq	*%rdi
	addq	$16, %rsp
	popq	%rbp
	retq
Ltmp236:
Lfunc_end35:
	.cfi_endproc

	.p2align	4, 0x90
__ZN4core3ptr34drop_in_place$LT$std..fs..File$GT$17h815da78b16166a21E:
Lfunc_begin36:
	.loc	30 490 0
	.cfi_startproc
	pushq	%rbp
	.cfi_def_cfa_offset 16
	.cfi_offset %rbp, -16
	movq	%rsp, %rbp
	.cfi_def_cfa_register %rbp
	subq	$16, %rsp
	movq	%rdi, -8(%rbp)
Ltmp237:
	.loc	30 490 1 prologue_end
	callq	__ZN4core3ptr45drop_in_place$LT$std..sys..unix..fs..File$GT$17hd8c41e38dea0002dE
	addq	$16, %rsp
	popq	%rbp
	retq
Ltmp238:
Lfunc_end36:
	.cfi_endproc

	.p2align	4, 0x90
__ZN4core3ptr45drop_in_place$LT$std..sys..unix..fs..File$GT$17hd8c41e38dea0002dE:
Lfunc_begin37:
	.loc	30 490 0
	.cfi_startproc
	pushq	%rbp
	.cfi_def_cfa_offset 16
	.cfi_offset %rbp, -16
	movq	%rsp, %rbp
	.cfi_def_cfa_register %rbp
	subq	$16, %rsp
	movq	%rdi, -8(%rbp)
Ltmp239:
	.loc	30 490 1 prologue_end
	callq	__ZN4core3ptr49drop_in_place$LT$std..sys..unix..fd..FileDesc$GT$17hb8b80a78364a5c37E
	addq	$16, %rsp
	popq	%rbp
	retq
Ltmp240:
Lfunc_end37:
	.cfi_endproc

	.p2align	4, 0x90
__ZN4core3ptr47drop_in_place$LT$dyn$u20$core..error..Error$GT$17heceaa6f1573bf4f4E:
Lfunc_begin38:
	.loc	30 490 0
	.cfi_startproc
	pushq	%rbp
	.cfi_def_cfa_offset 16
	.cfi_offset %rbp, -16
	movq	%rsp, %rbp
	.cfi_def_cfa_register %rbp
	subq	$16, %rsp
	movq	%rdi, -16(%rbp)
	movq	%rsi, -8(%rbp)
Ltmp241:
	.loc	30 490 1 prologue_end
	callq	*(%rsi)
	addq	$16, %rsp
	popq	%rbp
	retq
Ltmp242:
Lfunc_end38:
	.cfi_endproc

	.p2align	4, 0x90
__ZN4core3ptr72drop_in_place$LT$alloc..boxed..Box$LT$dyn$u20$core..error..Error$GT$$GT$17h8db795347aedad84E:
Lfunc_begin39:
	.loc	30 490 0
	.cfi_startproc
	.cfi_personality 155, _rust_eh_personality
	.cfi_lsda 16, Lexception8
	pushq	%rbp
	.cfi_def_cfa_offset 16
	.cfi_offset %rbp, -16
	movq	%rsp, %rbp
	.cfi_def_cfa_register %rbp
	subq	$32, %rsp
	movq	%rdi, %rax
	movq	%rax, -32(%rbp)
	movq	%rax, -24(%rbp)
Ltmp249:
	.loc	30 490 1 prologue_end
	movq	(%rax), %rdi
	movq	8(%rax), %rax
	movq	(%rax), %rax
Ltmp243:
	callq	*%rax
Ltmp244:
	jmp	LBB39_3
LBB39_1:
	.loc	30 0 1 is_stmt 0
	movq	-32(%rbp), %rax
	.loc	30 490 1
	movq	(%rax), %rdi
	movq	8(%rax), %rsi
Ltmp246:
	callq	__ZN5alloc5alloc8box_free17he7740a367d7ad290E
Ltmp247:
	jmp	LBB39_5
LBB39_2:
Ltmp245:
	.loc	30 0 1
	movq	%rax, %rcx
	movl	%edx, %eax
	movq	%rcx, -16(%rbp)
	movl	%eax, -8(%rbp)
	jmp	LBB39_1
LBB39_3:
	movq	-32(%rbp), %rax
	.loc	30 490 1
	movq	(%rax), %rdi
	movq	8(%rax), %rsi
	callq	__ZN5alloc5alloc8box_free17he7740a367d7ad290E
	addq	$32, %rsp
	popq	%rbp
	retq
LBB39_4:
Ltmp248:
	callq	__ZN4core9panicking19panic_cannot_unwind17h1fbca7e1d7f56ae1E
LBB39_5:
	movq	-16(%rbp), %rdi
	callq	__Unwind_Resume
Ltmp250:
Lfunc_end39:
	.cfi_endproc
	.section	__TEXT,__gcc_except_tab
	.p2align	2
GCC_except_table39:
Lexception8:
	.byte	255
	.byte	255
	.byte	1
	.uleb128 Lcst_end8-Lcst_begin8
Lcst_begin8:
	.uleb128 Ltmp243-Lfunc_begin39
	.uleb128 Ltmp244-Ltmp243
	.uleb128 Ltmp245-Lfunc_begin39
	.byte	0
	.uleb128 Ltmp246-Lfunc_begin39
	.uleb128 Ltmp247-Ltmp246
	.uleb128 Ltmp248-Lfunc_begin39
	.byte	0
	.uleb128 Ltmp247-Lfunc_begin39
	.uleb128 Lfunc_end39-Ltmp247
	.byte	0
	.byte	0
Lcst_end8:
	.p2align	2

	.section	__TEXT,__text,regular,pure_instructions
	.p2align	4, 0x90
__ZN4core3ptr76drop_in_place$LT$std..io..Write..write_fmt..Adapter$LT$std..fs..File$GT$$GT$17h7059797a21a80e06E:
Lfunc_begin40:
	.loc	30 490 0 is_stmt 1
	.cfi_startproc
	pushq	%rbp
	.cfi_def_cfa_offset 16
	.cfi_offset %rbp, -16
	movq	%rsp, %rbp
	.cfi_def_cfa_register %rbp
	subq	$16, %rsp
	movq	%rdi, -8(%rbp)
Ltmp251:
	.loc	30 490 1 prologue_end
	callq	__ZN4core3ptr81drop_in_place$LT$core..result..Result$LT$$LP$$RP$$C$std..io..error..Error$GT$$GT$17h961f320e5bb2f13bE
	addq	$16, %rsp
	popq	%rbp
	retq
Ltmp252:
Lfunc_end40:
	.cfi_endproc

	.p2align	4, 0x90
__ZN4core3ptr81drop_in_place$LT$core..result..Result$LT$$LP$$RP$$C$std..io..error..Error$GT$$GT$17h961f320e5bb2f13bE:
Lfunc_begin41:
	.loc	30 490 0
	.cfi_startproc
	pushq	%rbp
	.cfi_def_cfa_offset 16
	.cfi_offset %rbp, -16
	movq	%rsp, %rbp
	.cfi_def_cfa_register %rbp
	subq	$16, %rsp
	movq	%rdi, -16(%rbp)
	movq	%rdi, -8(%rbp)
Ltmp253:
	.loc	30 490 1 prologue_end
	movq	(%rdi), %rdx
	movl	$1, %eax
	xorl	%ecx, %ecx
	cmpq	$0, %rdx
	cmoveq	%rcx, %rax
	cmpq	$0, %rax
	jne	LBB41_2
LBB41_1:
	addq	$16, %rsp
	popq	%rbp
	retq
LBB41_2:
	.loc	30 0 1 is_stmt 0
	movq	-16(%rbp), %rdi
	.loc	30 490 1
	callq	__ZN4core3ptr42drop_in_place$LT$std..io..error..Error$GT$17h0936ab0439591bd9E
	jmp	LBB41_1
Ltmp254:
Lfunc_end41:
	.cfi_endproc

	.p2align	4, 0x90
__ZN4core3ptr85drop_in_place$LT$std..rt..lang_start$LT$$LP$$RP$$GT$..$u7b$$u7b$closure$u7d$$u7d$$GT$17h8f92b15733df66b0E:
Lfunc_begin42:
	.loc	30 490 0 is_stmt 1
	.cfi_startproc
	pushq	%rbp
	.cfi_def_cfa_offset 16
	.cfi_offset %rbp, -16
	movq	%rsp, %rbp
	.cfi_def_cfa_register %rbp
	pushq	%rax
	movq	%rdi, -8(%rbp)
Ltmp255:
	.loc	30 490 1 prologue_end
	addq	$8, %rsp
	popq	%rbp
	retq
Ltmp256:
Lfunc_end42:
	.cfi_endproc

	.p2align	4, 0x90
__ZN4core3ptr88drop_in_place$LT$$RF$mut$u20$std..io..Write..write_fmt..Adapter$LT$std..fs..File$GT$$GT$17h9594b8f3b8d38228E:
Lfunc_begin43:
	.loc	30 490 0
	.cfi_startproc
	pushq	%rbp
	.cfi_def_cfa_offset 16
	.cfi_offset %rbp, -16
	movq	%rsp, %rbp
	.cfi_def_cfa_register %rbp
	pushq	%rax
	movq	%rdi, -8(%rbp)
Ltmp257:
	.loc	30 490 1 prologue_end
	addq	$8, %rsp
	popq	%rbp
	retq
Ltmp258:
Lfunc_end43:
	.cfi_endproc

	.p2align	4, 0x90
__ZN4core3str6traits54_$LT$impl$u20$core..cmp..PartialEq$u20$for$u20$str$GT$2eq17h730cb3d959692efcE:
Lfunc_begin44:
	.file	34 "/rustc/2c8cc343237b8f7d5a3c3703e3a87f2eb2c54a74/library/core/src/str" "traits.rs"
	.loc	34 28 0
	.cfi_startproc
	pushq	%rbp
	.cfi_def_cfa_offset 16
	.cfi_offset %rbp, -16
	movq	%rsp, %rbp
	.cfi_def_cfa_register %rbp
	subq	$112, %rsp
	movq	%rdi, -80(%rbp)
	movq	%rsi, -72(%rbp)
	movq	%rdx, -64(%rbp)
	movq	%rcx, -56(%rbp)
Ltmp259:
	.loc	34 29 9 prologue_end
	movq	%rdi, -48(%rbp)
	movq	%rsi, -40(%rbp)
Ltmp260:
	.loc	21 327 18
	movq	%rdi, -112(%rbp)
	movq	%rsi, -104(%rbp)
Ltmp261:
	.loc	34 29 9
	leaq	-112(%rbp), %rax
	movq	%rax, -32(%rbp)
	.loc	34 29 28 is_stmt 0
	movq	%rdx, -24(%rbp)
	movq	%rcx, -16(%rbp)
Ltmp262:
	.loc	21 327 18 is_stmt 1
	movq	%rdx, -96(%rbp)
	movq	%rcx, -88(%rbp)
Ltmp263:
	.loc	34 29 28
	leaq	-96(%rbp), %rax
	movq	%rax, -8(%rbp)
Ltmp264:
	.loc	26 1531 27
	movq	-112(%rbp), %rdi
	movq	-104(%rbp), %rsi
	.loc	26 1531 34 is_stmt 0
	movq	-96(%rbp), %rdx
	movq	-88(%rbp), %rcx
	.loc	26 1531 13
	callq	__ZN4core5slice3cmp81_$LT$impl$u20$core..cmp..PartialEq$LT$$u5b$B$u5d$$GT$$u20$for$u20$$u5b$A$u5d$$GT$2eq17hd41b7aafdd62a6d3E
Ltmp265:
	.loc	34 30 6 is_stmt 1
	andb	$1, %al
	movzbl	%al, %eax
	addq	$112, %rsp
	popq	%rbp
	retq
Ltmp266:
Lfunc_end44:
	.cfi_endproc

	.p2align	4, 0x90
__ZN4core4char7methods15encode_utf8_raw17h1a74b45f5b5f0e17E:
Lfunc_begin45:
	.loc	28 1729 0
	.cfi_startproc
	pushq	%rbp
	.cfi_def_cfa_offset 16
	.cfi_offset %rbp, -16
	movq	%rsp, %rbp
	.cfi_def_cfa_register %rbp
	subq	$560, %rsp
	movq	%rsi, -544(%rbp)
	movq	%rdx, -536(%rbp)
	movl	%edi, -516(%rbp)
	movq	%rsi, -304(%rbp)
	movq	%rdx, -296(%rbp)
Ltmp267:
	.loc	28 1730 24 prologue_end
	movl	-516(%rbp), %edi
	.loc	28 1730 15 is_stmt 0
	callq	__ZN4core4char7methods8len_utf817h5a3b4e36daa1bc8cE
	movq	-544(%rbp), %rsi
	movq	-536(%rbp), %rdx
	movq	%rax, -512(%rbp)
Ltmp268:
	.loc	28 1731 12 is_stmt 1
	movq	-512(%rbp), %rax
	.loc	28 1731 22 is_stmt 0
	movq	%rsi, -272(%rbp)
	movq	%rdx, -264(%rbp)
Ltmp269:
	.loc	12 30 25 is_stmt 1
	movq	%rsi, -256(%rbp)
	movq	%rdx, -248(%rbp)
Ltmp270:
	.loc	28 1731 11
	movq	%rax, -504(%rbp)
	movq	%rsi, -496(%rbp)
	movq	%rdx, -488(%rbp)
	.loc	28 1731 5 is_stmt 0
	movq	-504(%rbp), %rax
	decq	%rax
	movq	%rax, -528(%rbp)
	subq	$3, %rax
	ja	LBB45_1
	.loc	28 0 5
	movq	-528(%rbp), %rax
	leaq	LJTI45_0(%rip), %rcx
	movslq	(%rcx,%rax,4), %rax
	addq	%rcx, %rax
	jmpq	*%rax
LBB45_1:
	movq	-536(%rbp), %rcx
	leaq	-512(%rbp), %rsi
	.loc	28 1750 14 is_stmt 1
	movq	%rsi, -120(%rbp)
Ltmp271:
	.loc	27 328 23
	movq	%rsi, -112(%rbp)
	.loc	27 328 26 is_stmt 0
	movq	__ZN4core3fmt3num3imp54_$LT$impl$u20$core..fmt..Display$u20$for$u20$usize$GT$3fmt17ha5c925fcd7ed33faE@GOTPCREL(%rip), %rax
	movq	%rax, -104(%rbp)
Ltmp272:
	.loc	27 347 42 is_stmt 1
	movq	%rax, -96(%rbp)
	movq	-96(%rbp), %rdx
	.loc	27 347 68 is_stmt 0
	movq	%rsi, -88(%rbp)
	movq	-88(%rbp), %rsi
	.loc	27 347 18
	movq	%rsi, -384(%rbp)
	movq	%rdx, -376(%rbp)
	leaq	-516(%rbp), %rsi
Ltmp273:
	.loc	28 1750 14 is_stmt 1
	movq	%rsi, -80(%rbp)
Ltmp274:
	.loc	27 328 23
	movq	%rsi, -72(%rbp)
	.loc	27 328 26 is_stmt 0
	movq	__ZN4core3fmt3num53_$LT$impl$u20$core..fmt..UpperHex$u20$for$u20$u32$GT$3fmt17ha96bbefe8f663d11E@GOTPCREL(%rip), %rdx
	movq	%rdx, -64(%rbp)
Ltmp275:
	.loc	27 347 42 is_stmt 1
	movq	%rdx, -56(%rbp)
	movq	-56(%rbp), %rdx
	.loc	27 347 68 is_stmt 0
	movq	%rsi, -48(%rbp)
	movq	-48(%rbp), %rsi
	.loc	27 347 18
	movq	%rsi, -368(%rbp)
	movq	%rdx, -360(%rbp)
Ltmp276:
	.loc	28 1754 13 is_stmt 1
	movq	%rcx, -336(%rbp)
	leaq	-336(%rbp), %rcx
	.loc	28 1750 14
	movq	%rcx, -40(%rbp)
Ltmp277:
	.loc	27 328 23
	movq	%rcx, -32(%rbp)
	.loc	27 328 26 is_stmt 0
	movq	%rax, -24(%rbp)
Ltmp278:
	.loc	27 347 42 is_stmt 1
	movq	%rax, -16(%rbp)
	movq	-16(%rbp), %rax
	.loc	27 347 68 is_stmt 0
	movq	%rcx, -8(%rbp)
	movq	-8(%rbp), %rcx
	.loc	27 347 18
	movq	%rcx, -352(%rbp)
	movq	%rax, -344(%rbp)
Ltmp279:
	.loc	28 1750 14 is_stmt 1
	movq	-384(%rbp), %rcx
	movq	-376(%rbp), %rax
	movq	%rcx, -432(%rbp)
	movq	%rax, -424(%rbp)
	movq	-368(%rbp), %rcx
	movq	-360(%rbp), %rax
	movq	%rcx, -416(%rbp)
	movq	%rax, -408(%rbp)
	movq	-352(%rbp), %rcx
	movq	-344(%rbp), %rax
	movq	%rcx, -400(%rbp)
	movq	%rax, -392(%rbp)
	leaq	l___unnamed_14(%rip), %rsi
	leaq	-480(%rbp), %rdi
	movq	%rdi, -552(%rbp)
	leaq	-432(%rbp), %rcx
	movl	$3, %r8d
	movq	%r8, %rdx
	callq	__ZN4core3fmt9Arguments6new_v117hb07f32a6d50ff579E
	movq	-552(%rbp), %rdi
	leaq	l___unnamed_15(%rip), %rsi
	callq	__ZN4core9panicking9panic_fmt17h9b5d807e24bcaaedE
LBB45_2:
	.loc	28 1732 13
	cmpq	$1, -488(%rbp)
	jae	LBB45_10
	jmp	LBB45_1
LBB45_3:
	.loc	28 1735 13
	cmpq	$2, -488(%rbp)
	jae	LBB45_9
	jmp	LBB45_1
LBB45_4:
	.loc	28 1739 13
	cmpq	$3, -488(%rbp)
	jae	LBB45_8
	jmp	LBB45_1
LBB45_5:
	.loc	28 1744 13
	cmpq	$4, -488(%rbp)
	jb	LBB45_1
	.loc	28 1744 14 is_stmt 0
	movq	-496(%rbp), %rsi
	movq	%rsi, -240(%rbp)
	.loc	28 1744 17
	movq	-496(%rbp), %rdx
	movq	%rdx, %rax
	addq	$1, %rax
	movq	%rax, -232(%rbp)
	.loc	28 1744 20
	movq	-496(%rbp), %rcx
	movq	%rcx, %rax
	addq	$2, %rax
	movq	%rax, -224(%rbp)
	.loc	28 1744 23
	movq	-496(%rbp), %rax
	movq	%rax, %rdi
	addq	$3, %rdi
	movq	%rdi, -216(%rbp)
Ltmp280:
	.loc	28 1745 19 is_stmt 1
	movl	-516(%rbp), %edi
	shrl	$18, %edi
	.loc	28 1745 18 is_stmt 0
	andl	$7, %edi
	.loc	28 1745 13
	orb	$-16, %dil
	movb	%dil, (%rsi)
	.loc	28 1746 19 is_stmt 1
	movl	-516(%rbp), %esi
	shrl	$12, %esi
	.loc	28 1746 18 is_stmt 0
	andl	$63, %esi
	.loc	28 1746 13
	orb	$-128, %sil
	movb	%sil, 1(%rdx)
	.loc	28 1747 19 is_stmt 1
	movl	-516(%rbp), %edx
	shrl	$6, %edx
	.loc	28 1747 18 is_stmt 0
	andl	$63, %edx
	.loc	28 1747 13
	orb	$-128, %dl
	movb	%dl, 2(%rcx)
	.loc	28 1748 19 is_stmt 1
	movl	-516(%rbp), %ecx
	.loc	28 1748 18 is_stmt 0
	andl	$63, %ecx
	.loc	28 1748 13
	orb	$-128, %cl
	movb	%cl, 3(%rax)
Ltmp281:
LBB45_7:
	.loc	28 0 13
	movq	-536(%rbp), %rcx
	movq	-544(%rbp), %rdx
	.loc	28 1757 10 is_stmt 1
	movq	%rdx, -160(%rbp)
	movq	%rcx, -152(%rbp)
	.loc	28 1757 16 is_stmt 0
	movq	-512(%rbp), %rax
	.loc	28 1757 14
	movq	%rax, -328(%rbp)
Ltmp282:
	.loc	12 30 9 is_stmt 1
	movq	-328(%rbp), %rax
	movq	%rax, -144(%rbp)
	.loc	12 30 25 is_stmt 0
	movq	%rdx, -136(%rbp)
	movq	%rcx, -128(%rbp)
Ltmp283:
	.loc	12 461 9 is_stmt 1
	movq	$0, -320(%rbp)
	movq	%rax, -312(%rbp)
	movq	-320(%rbp), %rdi
	movq	-312(%rbp), %rsi
	leaq	l___unnamed_16(%rip), %r8
	callq	__ZN106_$LT$core..ops..range..Range$LT$usize$GT$$u20$as$u20$core..slice..index..SliceIndex$LT$$u5b$T$u5d$$GT$$GT$9index_mut17he3c01561ac4a9fbbE
Ltmp284:
	.loc	28 1758 2
	addq	$560, %rsp
	popq	%rbp
	retq
LBB45_8:
Ltmp285:
	.loc	28 1739 14
	movq	-496(%rbp), %rdx
	movq	%rdx, -208(%rbp)
	.loc	28 1739 17 is_stmt 0
	movq	-496(%rbp), %rcx
	movq	%rcx, %rax
	addq	$1, %rax
	movq	%rax, -200(%rbp)
	.loc	28 1739 20
	movq	-496(%rbp), %rax
	movq	%rax, %rsi
	addq	$2, %rsi
	movq	%rsi, -192(%rbp)
Ltmp286:
	.loc	28 1740 19 is_stmt 1
	movl	-516(%rbp), %esi
	shrl	$12, %esi
	.loc	28 1740 18 is_stmt 0
	andl	$15, %esi
	.loc	28 1740 13
	orb	$-32, %sil
	movb	%sil, (%rdx)
	.loc	28 1741 19 is_stmt 1
	movl	-516(%rbp), %edx
	shrl	$6, %edx
	.loc	28 1741 18 is_stmt 0
	andl	$63, %edx
	.loc	28 1741 13
	orb	$-128, %dl
	movb	%dl, 1(%rcx)
	.loc	28 1742 19 is_stmt 1
	movl	-516(%rbp), %ecx
	.loc	28 1742 18 is_stmt 0
	andl	$63, %ecx
	.loc	28 1742 13
	orb	$-128, %cl
	movb	%cl, 2(%rax)
Ltmp287:
	.loc	28 1743 9 is_stmt 1
	jmp	LBB45_7
LBB45_9:
	.loc	28 1735 14
	movq	-496(%rbp), %rcx
	movq	%rcx, -184(%rbp)
	.loc	28 1735 17 is_stmt 0
	movq	-496(%rbp), %rax
	movq	%rax, %rdx
	addq	$1, %rdx
	movq	%rdx, -176(%rbp)
Ltmp288:
	.loc	28 1736 19 is_stmt 1
	movl	-516(%rbp), %edx
	shrl	$6, %edx
	.loc	28 1736 18 is_stmt 0
	andl	$31, %edx
	.loc	28 1736 13
	orb	$-64, %dl
	movb	%dl, (%rcx)
	.loc	28 1737 19 is_stmt 1
	movl	-516(%rbp), %ecx
	.loc	28 1737 18 is_stmt 0
	andl	$63, %ecx
	.loc	28 1737 13
	orb	$-128, %cl
	movb	%cl, 1(%rax)
Ltmp289:
	.loc	28 1738 9 is_stmt 1
	jmp	LBB45_7
LBB45_10:
	.loc	28 1732 14
	movq	-496(%rbp), %rax
	movq	%rax, -168(%rbp)
Ltmp290:
	.loc	28 1733 18
	movl	-516(%rbp), %ecx
	.loc	28 1733 13 is_stmt 0
	movb	%cl, (%rax)
Ltmp291:
	.loc	28 1734 9 is_stmt 1
	jmp	LBB45_7
Ltmp292:
Lfunc_end45:
	.cfi_endproc
	.p2align	2, 0x90
	.data_region jt32
.set L45_0_set_2, LBB45_2-LJTI45_0
.set L45_0_set_3, LBB45_3-LJTI45_0
.set L45_0_set_4, LBB45_4-LJTI45_0
.set L45_0_set_5, LBB45_5-LJTI45_0
LJTI45_0:
	.long	L45_0_set_2
	.long	L45_0_set_3
	.long	L45_0_set_4
	.long	L45_0_set_5
	.end_data_region

	.p2align	4, 0x90
__ZN4core4char7methods8len_utf817h5a3b4e36daa1bc8cE:
Lfunc_begin46:
	.loc	28 1701 0
	.cfi_startproc
	pushq	%rbp
	.cfi_def_cfa_offset 16
	.cfi_offset %rbp, -16
	movq	%rsp, %rbp
	.cfi_def_cfa_register %rbp
	subq	$24, %rsp
	movl	%edi, -20(%rbp)
	movl	%edi, -4(%rbp)
Ltmp293:
	.loc	28 1702 8 prologue_end
	cmpl	$128, %edi
	jb	LBB46_2
	.loc	28 0 8 is_stmt 0
	movl	-20(%rbp), %eax
	.loc	28 1704 15 is_stmt 1
	cmpl	$2048, %eax
	jb	LBB46_5
	jmp	LBB46_4
LBB46_2:
	.loc	28 1703 9
	movq	$1, -16(%rbp)
LBB46_3:
	.loc	28 1711 2
	movq	-16(%rbp), %rax
	addq	$24, %rsp
	popq	%rbp
	retq
LBB46_4:
	.loc	28 0 2 is_stmt 0
	movl	-20(%rbp), %eax
	.loc	28 1706 15 is_stmt 1
	cmpl	$65536, %eax
	jb	LBB46_8
	jmp	LBB46_7
LBB46_5:
	.loc	28 1705 9
	movq	$2, -16(%rbp)
LBB46_6:
	.loc	28 1702 5
	jmp	LBB46_3
LBB46_7:
	.loc	28 1709 9
	movq	$4, -16(%rbp)
	.loc	28 1706 12
	jmp	LBB46_9
LBB46_8:
	.loc	28 1707 9
	movq	$3, -16(%rbp)
LBB46_9:
	.loc	28 1704 12
	jmp	LBB46_6
Ltmp294:
Lfunc_end46:
	.cfi_endproc

	.p2align	4, 0x90
__ZN4core4iter5range101_$LT$impl$u20$core..iter..traits..iterator..Iterator$u20$for$u20$core..ops..range..Range$LT$A$GT$$GT$4next17h200188c5fb00b9caE:
Lfunc_begin47:
	.loc	23 710 0
	.cfi_startproc
	pushq	%rbp
	.cfi_def_cfa_offset 16
	.cfi_offset %rbp, -16
	movq	%rsp, %rbp
	.cfi_def_cfa_register %rbp
	subq	$16, %rsp
	movq	%rdi, -8(%rbp)
Ltmp295:
	.loc	23 711 9 prologue_end
	callq	__ZN89_$LT$core..ops..range..Range$LT$T$GT$$u20$as$u20$core..iter..range..RangeIteratorImpl$GT$9spec_next17haacbf4223849dfd0E
	.loc	23 712 6
	addq	$16, %rsp
	popq	%rbp
	retq
Ltmp296:
Lfunc_end47:
	.cfi_endproc

	.p2align	4, 0x90
__ZN4core5array98_$LT$impl$u20$core..iter..traits..collect..IntoIterator$u20$for$u20$$RF$$u5b$T$u3b$$u20$N$u5d$$GT$9into_iter17h1a8452cc61b91a1fE:
Lfunc_begin48:
	.file	35 "/rustc/2c8cc343237b8f7d5a3c3703e3a87f2eb2c54a74/library/core/src/array" "mod.rs"
	.loc	35 333 0
	.cfi_startproc
	pushq	%rbp
	.cfi_def_cfa_offset 16
	.cfi_offset %rbp, -16
	movq	%rsp, %rbp
	.cfi_def_cfa_register %rbp
	subq	$32, %rsp
	movq	%rdi, -24(%rbp)
Ltmp297:
	.loc	35 334 9 prologue_end
	movq	%rdi, -16(%rbp)
	movq	$3, -8(%rbp)
	movl	$3, %esi
Ltmp298:
	.loc	7 742 9
	callq	__ZN4core5slice4iter13Iter$LT$T$GT$3new17hbc5cb0f1d96e9e63E
Ltmp299:
	.loc	35 335 6
	addq	$32, %rsp
	popq	%rbp
	retq
Ltmp300:
Lfunc_end48:
	.cfi_endproc

	.p2align	4, 0x90
__ZN4core5error5Error5cause17h46bb908b79cc7b04E:
Lfunc_begin49:
	.file	36 "/rustc/2c8cc343237b8f7d5a3c3703e3a87f2eb2c54a74/library/core/src" "error.rs"
	.loc	36 119 0
	.cfi_startproc
	pushq	%rbp
	.cfi_def_cfa_offset 16
	.cfi_offset %rbp, -16
	movq	%rsp, %rbp
	.cfi_def_cfa_register %rbp
	subq	$16, %rsp
	movq	%rdi, -8(%rbp)
Ltmp301:
	.loc	36 120 9 prologue_end
	callq	__ZN4core5error5Error6source17h61fc0d9b5cdd8831E
	.loc	36 121 6
	addq	$16, %rsp
	popq	%rbp
	retq
Ltmp302:
Lfunc_end49:
	.cfi_endproc

	.p2align	4, 0x90
__ZN4core5error5Error6source17h61fc0d9b5cdd8831E:
Lfunc_begin50:
	.loc	36 83 0
	.cfi_startproc
	pushq	%rbp
	.cfi_def_cfa_offset 16
	.cfi_offset %rbp, -16
	movq	%rsp, %rbp
	.cfi_def_cfa_register %rbp
	subq	$24, %rsp
	movq	%rdi, -8(%rbp)
Ltmp303:
	.loc	36 84 9 prologue_end
	movq	$0, -24(%rbp)
	.loc	36 85 6
	movq	-24(%rbp), %rax
	movq	-16(%rbp), %rdx
	addq	$24, %rsp
	popq	%rbp
	retq
Ltmp304:
Lfunc_end50:
	.cfi_endproc

	.p2align	4, 0x90
__ZN4core5error5Error7provide17h8d845c6ab701746cE:
Lfunc_begin51:
	.loc	36 193 0
	.cfi_startproc
	pushq	%rbp
	.cfi_def_cfa_offset 16
	.cfi_offset %rbp, -16
	movq	%rsp, %rbp
	.cfi_def_cfa_register %rbp
	subq	$24, %rsp
	movq	%rdi, -24(%rbp)
	movq	%rsi, -16(%rbp)
	movq	%rdx, -8(%rbp)
Ltmp305:
	.loc	36 193 57 prologue_end
	addq	$24, %rsp
	popq	%rbp
	retq
Ltmp306:
Lfunc_end51:
	.cfi_endproc

	.p2align	4, 0x90
__ZN4core5error5Error7type_id17he59dd181bfca523bE:
Lfunc_begin52:
	.loc	36 94 0
	.cfi_startproc
	pushq	%rbp
	.cfi_def_cfa_offset 16
	.cfi_offset %rbp, -16
	movq	%rsp, %rbp
	.cfi_def_cfa_register %rbp
	subq	$16, %rsp
	movq	%rdi, -16(%rbp)
Ltmp307:
	.loc	36 98 9 prologue_end
	callq	__ZN4core3any6TypeId2of17hda901f92917f2ebdE
	.loc	36 99 6
	addq	$16, %rsp
	popq	%rbp
	retq
Ltmp308:
Lfunc_end52:
	.cfi_endproc

	.p2align	4, 0x90
__ZN4core5slice4iter13Iter$LT$T$GT$3new17hbc5cb0f1d96e9e63E:
Lfunc_begin53:
	.file	37 "/rustc/2c8cc343237b8f7d5a3c3703e3a87f2eb2c54a74/library/core/src/slice" "iter.rs"
	.loc	37 82 0
	.cfi_startproc
	pushq	%rbp
	.cfi_def_cfa_offset 16
	.cfi_offset %rbp, -16
	movq	%rsp, %rbp
	.cfi_def_cfa_register %rbp
	subq	$280, %rsp
	movq	%rdi, -280(%rbp)
	movq	%rsi, -272(%rbp)
	movq	%rdi, -208(%rbp)
	movq	%rsi, -200(%rbp)
Ltmp309:
	.loc	37 83 19 prologue_end
	movq	%rdi, -184(%rbp)
	movq	%rsi, -176(%rbp)
Ltmp310:
	.loc	7 477 9
	movq	%rdi, -168(%rbp)
Ltmp311:
	.loc	37 86 21
	movq	%rdi, -160(%rbp)
Ltmp312:
	.file	38 "/rustc/2c8cc343237b8f7d5a3c3703e3a87f2eb2c54a74/library/core/src/ptr" "const_ptr.rs"
	.loc	38 53 36
	movq	%rdi, -232(%rbp)
	.loc	38 53 18 is_stmt 0
	movq	-232(%rbp), %rax
	movq	%rax, -152(%rbp)
Ltmp313:
	.loc	38 39 13 is_stmt 1
	movq	%rax, -144(%rbp)
Ltmp314:
	.loc	38 209 33
	movq	%rax, -136(%rbp)
	.loc	38 209 18 is_stmt 0
	movq	%rax, -128(%rbp)
Ltmp315:
	.loc	37 89 20 is_stmt 1
	xorl	%eax, %eax
	testb	$1, %al
	jne	LBB53_2
	.loc	37 0 20 is_stmt 0
	movq	-280(%rbp), %rax
	movq	-272(%rbp), %rcx
	.loc	37 89 76
	movq	%rax, -40(%rbp)
	.loc	37 89 84
	movq	%rcx, -32(%rbp)
Ltmp316:
	.loc	38 932 18 is_stmt 1
	movq	%rax, -24(%rbp)
	.loc	38 932 30 is_stmt 0
	movq	%rcx, -16(%rbp)
Ltmp317:
	.loc	38 473 18 is_stmt 1
	shlq	$2, %rcx
	addq	%rcx, %rax
	movq	%rax, -248(%rbp)
Ltmp318:
	.loc	37 89 17
	jmp	LBB53_3
LBB53_2:
	.loc	37 0 17 is_stmt 0
	movq	-272(%rbp), %rcx
	movq	-280(%rbp), %rax
	.loc	37 89 32
	movq	%rax, -120(%rbp)
	.loc	37 89 54
	movq	%rcx, -112(%rbp)
Ltmp319:
	.loc	38 1118 9 is_stmt 1
	movq	%rax, -104(%rbp)
Ltmp320:
	.loc	38 61 9
	movq	%rax, -96(%rbp)
Ltmp321:
	.loc	38 1118 40
	movq	%rcx, -88(%rbp)
Ltmp322:
	.loc	38 1100 9
	movq	%rax, -80(%rbp)
	.loc	38 1100 30 is_stmt 0
	movq	%rcx, -72(%rbp)
Ltmp323:
	.loc	38 555 18 is_stmt 1
	addq	%rcx, %rax
	movq	%rax, -64(%rbp)
	movq	-64(%rbp), %rax
	movq	%rax, -56(%rbp)
Ltmp324:
	.loc	38 100 29
	movq	%rax, -48(%rbp)
Ltmp325:
	.file	39 "/rustc/2c8cc343237b8f7d5a3c3703e3a87f2eb2c54a74/library/core/src/ptr" "metadata.rs"
	.loc	39 118 36
	movq	%rax, -216(%rbp)
	.loc	39 118 14 is_stmt 0
	movq	-216(%rbp), %rax
	movq	%rax, -224(%rbp)
	movq	-224(%rbp), %rax
	movq	%rax, -248(%rbp)
Ltmp326:
LBB53_3:
	.loc	39 0 14
	movq	-280(%rbp), %rax
Ltmp327:
	.loc	37 91 48 is_stmt 1
	movq	%rax, -8(%rbp)
Ltmp328:
	.loc	11 201 13
	movq	%rax, -240(%rbp)
Ltmp329:
	.loc	37 91 64
	movq	-248(%rbp), %rax
	.loc	37 91 13 is_stmt 0
	movq	-240(%rbp), %rcx
	movq	%rcx, -256(%rbp)
	movq	%rax, -264(%rbp)
Ltmp330:
	.loc	37 93 6 is_stmt 1
	movq	-264(%rbp), %rax
	movq	-256(%rbp), %rdx
	addq	$280, %rsp
	popq	%rbp
	retq
Ltmp331:
Lfunc_end53:
	.cfi_endproc

	.p2align	4, 0x90
__ZN4core6result19Result$LT$T$C$E$GT$3map17h4ab04b0905265f7dE:
Lfunc_begin54:
	.loc	2 772 0
	.cfi_startproc
	pushq	%rbp
	.cfi_def_cfa_offset 16
	.cfi_offset %rbp, -16
	movq	%rsp, %rbp
	.cfi_def_cfa_register %rbp
	subq	$80, %rsp
	movq	%rdi, -72(%rbp)
	movq	%rdi, -64(%rbp)
	movq	%rsi, -56(%rbp)
	movq	%rdx, -48(%rbp)
Ltmp332:
	.loc	2 773 15 prologue_end
	movb	$1, -25(%rbp)
	.loc	2 773 9 is_stmt 0
	cmpq	$0, -56(%rbp)
	jne	LBB54_2
	.loc	2 774 16 is_stmt 1
	movq	-48(%rbp), %rax
	movq	%rax, -8(%rbp)
Ltmp333:
	.loc	2 774 25 is_stmt 0
	movb	$0, -25(%rbp)
	movq	%rax, -40(%rbp)
	movq	-40(%rbp), %rdi
	callq	__ZN4core3ops8function6FnOnce9call_once17h79deb3e49bb0dee1E
	movq	%rax, %rcx
	movq	-72(%rbp), %rax
	.loc	2 774 22
	movq	%rcx, (%rax)
	movq	%rdx, 8(%rax)
Ltmp334:
	.loc	2 774 30
	jmp	LBB54_3
LBB54_2:
	.loc	2 0 30
	movq	-72(%rbp), %rax
	.loc	2 775 17 is_stmt 1
	movq	-48(%rbp), %rcx
	movq	%rcx, -16(%rbp)
Ltmp335:
	.loc	2 775 23 is_stmt 0
	movq	%rcx, 8(%rax)
	movq	$0, (%rax)
Ltmp336:
LBB54_3:
	.loc	2 777 5 is_stmt 1
	testb	$1, -25(%rbp)
	jne	LBB54_5
LBB54_4:
	.loc	2 0 5 is_stmt 0
	movq	-64(%rbp), %rax
	.loc	2 777 6
	addq	$80, %rsp
	popq	%rbp
	retq
LBB54_5:
	.loc	2 777 5
	jmp	LBB54_4
Ltmp337:
Lfunc_end54:
	.cfi_endproc

	.p2align	4, 0x90
__ZN4core6result19Result$LT$T$C$E$GT$6as_ref17hde37ceed3d12ac4bE:
Lfunc_begin55:
	.loc	2 708 0 is_stmt 1
	.cfi_startproc
	pushq	%rbp
	.cfi_def_cfa_offset 16
	.cfi_offset %rbp, -16
	movq	%rsp, %rbp
	.cfi_def_cfa_register %rbp
	subq	$48, %rsp
	movq	%rdi, -48(%rbp)
	movq	%rdi, -24(%rbp)
Ltmp338:
	.loc	2 709 9 prologue_end
	cmpq	$0, (%rdi)
	jne	LBB55_2
	.loc	2 0 9 is_stmt 0
	movq	-48(%rbp), %rax
	.loc	2 710 16 is_stmt 1
	addq	$8, %rax
	movq	%rax, -8(%rbp)
Ltmp339:
	.loc	2 710 26 is_stmt 0
	movq	%rax, -32(%rbp)
	movq	$0, -40(%rbp)
Ltmp340:
	.loc	2 710 30
	jmp	LBB55_3
LBB55_2:
	.loc	2 0 30
	movq	-48(%rbp), %rax
	.loc	2 711 17 is_stmt 1
	addq	$8, %rax
	movq	%rax, -16(%rbp)
Ltmp341:
	.loc	2 711 27 is_stmt 0
	movq	%rax, -32(%rbp)
	movq	$1, -40(%rbp)
Ltmp342:
LBB55_3:
	.loc	2 713 6 is_stmt 1
	movq	-40(%rbp), %rax
	movq	-32(%rbp), %rdx
	addq	$48, %rsp
	popq	%rbp
	retq
Ltmp343:
Lfunc_end55:
	.cfi_endproc

	.p2align	4, 0x90
__ZN4core6result19Result$LT$T$C$E$GT$6unwrap17h7a22a2da751b1cc1E:
Lfunc_begin56:
	.loc	2 1106 0
	.cfi_startproc
	.cfi_personality 155, _rust_eh_personality
	.cfi_lsda 16, Lexception9
	pushq	%rbp
	.cfi_def_cfa_offset 16
	.cfi_offset %rbp, -16
	movq	%rsp, %rbp
	.cfi_def_cfa_register %rbp
	subq	$64, %rsp
	movq	%rdx, -64(%rbp)
	movq	%rdi, -56(%rbp)
	movq	%rsi, -48(%rbp)
Ltmp350:
	.loc	2 1110 15 prologue_end
	movq	-56(%rbp), %rdx
	movl	$1, %eax
	xorl	%ecx, %ecx
	cmpq	$0, %rdx
	cmoveq	%rcx, %rax
	.loc	2 1110 9 is_stmt 0
	cmpq	$0, %rax
	jne	LBB56_2
	.loc	2 1114 6 is_stmt 1
	addq	$64, %rsp
	popq	%rbp
	retq
LBB56_2:
	.loc	2 0 6 is_stmt 0
	movq	-64(%rbp), %r8
	.loc	2 1112 17 is_stmt 1
	movq	-56(%rbp), %rcx
	movq	-48(%rbp), %rax
	movq	%rcx, -40(%rbp)
	movq	%rax, -32(%rbp)
Ltmp344:
Ltmp351:
	.loc	2 1112 23 is_stmt 0
	leaq	l___unnamed_17(%rip), %rdi
	leaq	l___unnamed_6(%rip), %rcx
	movl	$43, %esi
	leaq	-40(%rbp), %rdx
	callq	__ZN4core6result13unwrap_failed17h533573e6d3b6061cE
Ltmp345:
	jmp	LBB56_5
Ltmp352:
LBB56_3:
Ltmp347:
	.loc	2 0 23
	leaq	-40(%rbp), %rdi
	.loc	2 1112 86
	callq	__ZN4core3ptr72drop_in_place$LT$alloc..boxed..Box$LT$dyn$u20$core..error..Error$GT$$GT$17h8db795347aedad84E
Ltmp348:
	jmp	LBB56_7
LBB56_4:
Ltmp346:
	.loc	2 0 86
	movq	%rax, %rcx
	movl	%edx, %eax
	movq	%rcx, -16(%rbp)
	movl	%eax, -8(%rbp)
	jmp	LBB56_3
LBB56_5:
	ud2
LBB56_6:
Ltmp349:
	.loc	2 1106 5 is_stmt 1
	callq	__ZN4core9panicking19panic_cannot_unwind17h1fbca7e1d7f56ae1E
LBB56_7:
	movq	-16(%rbp), %rdi
	callq	__Unwind_Resume
Ltmp353:
Lfunc_end56:
	.cfi_endproc
	.section	__TEXT,__gcc_except_tab
	.p2align	2
GCC_except_table56:
Lexception9:
	.byte	255
	.byte	255
	.byte	1
	.uleb128 Lcst_end9-Lcst_begin9
Lcst_begin9:
	.uleb128 Ltmp344-Lfunc_begin56
	.uleb128 Ltmp345-Ltmp344
	.uleb128 Ltmp346-Lfunc_begin56
	.byte	0
	.uleb128 Ltmp347-Lfunc_begin56
	.uleb128 Ltmp348-Ltmp347
	.uleb128 Ltmp349-Lfunc_begin56
	.byte	0
	.uleb128 Ltmp348-Lfunc_begin56
	.uleb128 Lfunc_end56-Ltmp348
	.byte	0
	.byte	0
Lcst_end9:
	.p2align	2

	.section	__TEXT,__text,regular,pure_instructions
	.p2align	4, 0x90
__ZN50_$LT$$RF$mut$u20$W$u20$as$u20$core..fmt..Write$GT$10write_char17hf044801ffdd6caf0E:
Lfunc_begin57:
	.loc	27 207 0
	.cfi_startproc
	pushq	%rbp
	.cfi_def_cfa_offset 16
	.cfi_offset %rbp, -16
	movq	%rsp, %rbp
	.cfi_def_cfa_register %rbp
	subq	$16, %rsp
	movq	%rdi, -16(%rbp)
	movl	%esi, -4(%rbp)
Ltmp354:
	.loc	27 208 9 prologue_end
	movq	(%rdi), %rdi
	callq	__ZN4core3fmt5Write10write_char17hfae2bf02fc12efcfE
	.loc	27 209 6
	andb	$1, %al
	movzbl	%al, %eax
	addq	$16, %rsp
	popq	%rbp
	retq
Ltmp355:
Lfunc_end57:
	.cfi_endproc

	.p2align	4, 0x90
__ZN50_$LT$$RF$mut$u20$W$u20$as$u20$core..fmt..Write$GT$9write_fmt17hd330067587f1df3bE:
Lfunc_begin58:
	.loc	27 211 0
	.cfi_startproc
	pushq	%rbp
	.cfi_def_cfa_offset 16
	.cfi_offset %rbp, -16
	movq	%rsp, %rbp
	.cfi_def_cfa_register %rbp
	subq	$64, %rsp
	movq	%rdi, -8(%rbp)
Ltmp356:
	.loc	27 212 9 prologue_end
	movq	(%rdi), %rax
	movq	%rax, -64(%rbp)
	.loc	27 212 28 is_stmt 0
	leaq	-56(%rbp), %rdi
	movl	$48, %edx
	callq	_memcpy
Ltmp357:
	.loc	27 0 28
	movq	-64(%rbp), %rdi
	.loc	27 212 9
	leaq	-56(%rbp), %rsi
	callq	__ZN4core3fmt5Write9write_fmt17h9f5c150571f94617E
	.loc	27 213 6 is_stmt 1
	andb	$1, %al
	movzbl	%al, %eax
	addq	$64, %rsp
	popq	%rbp
	retq
Ltmp358:
Lfunc_end58:
	.cfi_endproc

	.p2align	4, 0x90
__ZN50_$LT$$RF$mut$u20$W$u20$as$u20$core..fmt..Write$GT$9write_str17h7e836ff52b297fd7E:
Lfunc_begin59:
	.loc	27 203 0
	.cfi_startproc
	pushq	%rbp
	.cfi_def_cfa_offset 16
	.cfi_offset %rbp, -16
	movq	%rsp, %rbp
	.cfi_def_cfa_register %rbp
	subq	$32, %rsp
	movq	%rdi, -24(%rbp)
	movq	%rsi, -16(%rbp)
	movq	%rdx, -8(%rbp)
Ltmp359:
	.loc	27 204 9 prologue_end
	movq	(%rdi), %rdi
	callq	__ZN80_$LT$std..io..Write..write_fmt..Adapter$LT$T$GT$$u20$as$u20$core..fmt..Write$GT$9write_str17hf4ff96312a9420e4E
	.loc	27 205 6
	andb	$1, %al
	movzbl	%al, %eax
	addq	$32, %rsp
	popq	%rbp
	retq
Ltmp360:
Lfunc_end59:
	.cfi_endproc

	.p2align	4, 0x90
__ZN54_$LT$$LP$$RP$$u20$as$u20$std..process..Termination$GT$6report17hc3295277fdb75874E:
Lfunc_begin60:
	.loc	15 2182 0
	.cfi_startproc
	pushq	%rbp
	.cfi_def_cfa_offset 16
	.cfi_offset %rbp, -16
	movq	%rsp, %rbp
	.cfi_def_cfa_register %rbp
	pushq	%rax
Ltmp361:
	.loc	15 2184 6 prologue_end
	xorl	%eax, %eax
	addq	$8, %rsp
	popq	%rbp
	retq
Ltmp362:
Lfunc_end60:
	.cfi_endproc

	.p2align	4, 0x90
__ZN55_$LT$$RF$T$u20$as$u20$core..convert..AsRef$LT$U$GT$$GT$6as_ref17hdfcaac605e8aca97E:
Lfunc_begin61:
	.file	40 "/rustc/2c8cc343237b8f7d5a3c3703e3a87f2eb2c54a74/library/core/src/convert" "mod.rs"
	.loc	40 667 0
	.cfi_startproc
	pushq	%rbp
	.cfi_def_cfa_offset 16
	.cfi_offset %rbp, -16
	movq	%rsp, %rbp
	.cfi_def_cfa_register %rbp
	subq	$16, %rsp
	movq	%rdi, %rax
	movq	%rax, -8(%rbp)
Ltmp363:
	.loc	40 668 33 prologue_end
	movq	(%rax), %rdi
	movq	8(%rax), %rsi
	.loc	40 668 9 is_stmt 0
	callq	__ZN3std4path77_$LT$impl$u20$core..convert..AsRef$LT$std..path..Path$GT$$u20$for$u20$str$GT$6as_ref17he2fffb985d280c9cE
	.loc	40 669 6 is_stmt 1
	addq	$16, %rsp
	popq	%rbp
	retq
Ltmp364:
Lfunc_end61:
	.cfi_endproc

	.p2align	4, 0x90
__ZN55_$LT$$RF$T$u20$as$u20$core..convert..AsRef$LT$U$GT$$GT$6as_ref17he2fb62b2e7ad5f7eE:
Lfunc_begin62:
	.loc	40 667 0
	.cfi_startproc
	pushq	%rbp
	.cfi_def_cfa_offset 16
	.cfi_offset %rbp, -16
	movq	%rsp, %rbp
	.cfi_def_cfa_register %rbp
	subq	$16, %rsp
	movq	%rdi, %rax
	movq	%rax, -8(%rbp)
Ltmp365:
	.loc	40 668 33 prologue_end
	movq	(%rax), %rdi
	movq	8(%rax), %rsi
	.loc	40 668 9 is_stmt 0
	callq	__ZN79_$LT$std..path..Path$u20$as$u20$core..convert..AsRef$LT$std..path..Path$GT$$GT$6as_ref17h3638398c70182bfdE
	.loc	40 669 6 is_stmt 1
	addq	$16, %rsp
	popq	%rbp
	retq
Ltmp366:
Lfunc_end62:
	.cfi_endproc

	.p2align	4, 0x90
__ZN59_$LT$std..env..VarError$u20$as$u20$core..cmp..PartialEq$GT$2eq17h4a746bfa6743028eE:
Lfunc_begin63:
	.file	41 "/rustc/2c8cc343237b8f7d5a3c3703e3a87f2eb2c54a74/library/std/src" "env.rs"
	.loc	41 280 0
	.cfi_startproc
	pushq	%rbp
	.cfi_def_cfa_offset 16
	.cfi_offset %rbp, -16
	movq	%rsp, %rbp
	.cfi_def_cfa_register %rbp
	subq	$96, %rsp
	movq	%rdi, -88(%rbp)
	movq	%rsi, -80(%rbp)
	movq	%rdi, -48(%rbp)
	movq	%rsi, -40(%rbp)
Ltmp367:
	.loc	41 280 17 prologue_end
	movq	8(%rdi), %rdx
	movl	$1, %eax
	xorl	%ecx, %ecx
	cmpq	$0, %rdx
	cmoveq	%rcx, %rax
	movq	%rax, -32(%rbp)
Ltmp368:
	.loc	41 280 17 is_stmt 0
	movq	8(%rsi), %rsi
	movl	$1, %ecx
	xorl	%edx, %edx
	cmpq	$0, %rsi
	cmoveq	%rdx, %rcx
	movq	%rcx, -24(%rbp)
Ltmp369:
	.loc	41 280 17
	cmpq	%rcx, %rax
	je	LBB63_2
	movb	$0, -66(%rbp)
	jmp	LBB63_7
LBB63_2:
	.loc	41 0 17
	movq	-80(%rbp), %rax
	movq	-88(%rbp), %rcx
	.loc	41 280 17
	movq	%rcx, -64(%rbp)
	movq	%rax, -56(%rbp)
	movq	-64(%rbp), %rax
	movq	8(%rax), %rdx
	movl	$1, %eax
	xorl	%ecx, %ecx
	cmpq	$0, %rdx
	cmoveq	%rcx, %rax
	cmpq	$1, %rax
	jne	LBB63_4
	movq	-56(%rbp), %rax
	movq	8(%rax), %rdx
	movl	$1, %eax
	xorl	%ecx, %ecx
	cmpq	$0, %rdx
	cmoveq	%rcx, %rax
	cmpq	$1, %rax
	je	LBB63_5
LBB63_4:
	movb	$1, -65(%rbp)
	jmp	LBB63_6
LBB63_5:
	.loc	41 292 60 is_stmt 1
	movq	-64(%rbp), %rdi
	movq	%rdi, -16(%rbp)
	movq	-56(%rbp), %rsi
	movq	%rsi, -8(%rbp)
Ltmp370:
	.loc	41 292 60 is_stmt 0
	callq	__ZN67_$LT$std..ffi..os_str..OsString$u20$as$u20$core..cmp..PartialEq$GT$2eq17h17a10617522e0447E
	andb	$1, %al
	movb	%al, -65(%rbp)
Ltmp371:
LBB63_6:
	.loc	41 280 17 is_stmt 1
	movb	-65(%rbp), %al
	andb	$1, %al
	movb	%al, -66(%rbp)
Ltmp372:
LBB63_7:
	.loc	41 280 26 is_stmt 0
	movb	-66(%rbp), %al
	andb	$1, %al
	movzbl	%al, %eax
	addq	$96, %rsp
	popq	%rbp
	retq
Ltmp373:
Lfunc_end63:
	.cfi_endproc

	.p2align	4, 0x90
__ZN5alloc3fmt6format17h77851606fdfd57cbE:
Lfunc_begin64:
	.file	42 "/rustc/2c8cc343237b8f7d5a3c3703e3a87f2eb2c54a74/library/alloc/src" "fmt.rs"
	.loc	42 608 0 is_stmt 1
	.cfi_startproc
	pushq	%rbp
	.cfi_def_cfa_offset 16
	.cfi_offset %rbp, -16
	movq	%rsp, %rbp
	.cfi_def_cfa_register %rbp
	subq	$32, %rsp
	movq	%rsi, -24(%rbp)
	movq	%rdi, %rax
	movq	-24(%rbp), %rdi
	movq	%rax, -32(%rbp)
	movq	%rax, -16(%rbp)
Ltmp374:
	.loc	42 616 5 prologue_end
	callq	__ZN4core3fmt9Arguments6as_str17h310bdf7d73090463E
	movq	-32(%rbp), %rdi
	movq	%rax, %rsi
	movq	-24(%rbp), %rax
	.loc	42 616 31 is_stmt 0
	movq	%rax, -8(%rbp)
	.loc	42 616 5
	movq	-8(%rbp), %rcx
	callq	__ZN4core6option15Option$LT$T$GT$11map_or_else17h3ef61e289c798adaE
	movq	-16(%rbp), %rax
	.loc	42 617 2 is_stmt 1
	addq	$32, %rsp
	popq	%rbp
	retq
Ltmp375:
Lfunc_end64:
	.cfi_endproc

	.p2align	4, 0x90
__ZN5alloc5alloc15exchange_malloc17h4d6b6765e7c2626fE:
Lfunc_begin65:
	.file	43 "/rustc/2c8cc343237b8f7d5a3c3703e3a87f2eb2c54a74/library/alloc/src" "alloc.rs"
	.loc	43 324 0
	.cfi_startproc
	pushq	%rbp
	.cfi_def_cfa_offset 16
	.cfi_offset %rbp, -16
	movq	%rsp, %rbp
	.cfi_def_cfa_register %rbp
	subq	$208, %rsp
	movq	%rdi, -160(%rbp)
	movq	%rsi, -152(%rbp)
Ltmp376:
	.loc	43 325 61 prologue_end
	movq	%rdi, -144(%rbp)
	.loc	43 325 67 is_stmt 0
	movq	%rsi, -136(%rbp)
Ltmp377:
	.file	44 "/rustc/2c8cc343237b8f7d5a3c3703e3a87f2eb2c54a74/library/core/src/alloc" "layout.rs"
	.loc	44 120 65 is_stmt 1
	movq	%rsi, -128(%rbp)
Ltmp378:
	.file	45 "/rustc/2c8cc343237b8f7d5a3c3703e3a87f2eb2c54a74/library/core/src/ptr" "alignment.rs"
	.loc	45 89 18
	movq	%rsi, -120(%rbp)
	movq	-120(%rbp), %rax
Ltmp379:
	.loc	44 120 18
	movq	%rdi, -200(%rbp)
	movq	%rax, -192(%rbp)
Ltmp380:
	.loc	43 326 11
	leaq	l___unnamed_11(%rip), %rdi
	movq	%rdi, -112(%rbp)
	.loc	43 326 27 is_stmt 0
	movq	-200(%rbp), %rsi
	movq	-192(%rbp), %rdx
	movq	%rsi, -104(%rbp)
	movq	%rdx, -96(%rbp)
	xorl	%ecx, %ecx
Ltmp381:
	.loc	43 237 9 is_stmt 1
	callq	__ZN5alloc5alloc6Global10alloc_impl17hfe54f6a2ae914404E
	movq	%rdx, -176(%rbp)
	movq	%rax, -184(%rbp)
Ltmp382:
	.loc	43 326 11
	movq	-184(%rbp), %rdx
	xorl	%eax, %eax
	movl	$1, %ecx
	cmpq	$0, %rdx
	cmoveq	%rcx, %rax
	.loc	43 326 5 is_stmt 0
	cmpq	$0, %rax
	jne	LBB65_2
	.loc	43 327 12 is_stmt 1
	movq	-184(%rbp), %rax
	movq	-176(%rbp), %rcx
	movq	%rax, -88(%rbp)
	movq	%rcx, -80(%rbp)
Ltmp383:
	.loc	43 327 20 is_stmt 0
	movq	%rax, -72(%rbp)
	movq	%rcx, -64(%rbp)
Ltmp384:
	.loc	11 548 9 is_stmt 1
	movq	%rax, -56(%rbp)
	movq	%rcx, -48(%rbp)
Ltmp385:
	.loc	11 529 41
	movq	%rax, -40(%rbp)
	movq	%rcx, -32(%rbp)
Ltmp386:
	.loc	11 326 9
	movq	%rax, -24(%rbp)
	movq	%rcx, -16(%rbp)
Ltmp387:
	.file	46 "/rustc/2c8cc343237b8f7d5a3c3703e3a87f2eb2c54a74/library/core/src/ptr" "mut_ptr.rs"
	.loc	46 2037 9
	movq	%rax, -8(%rbp)
Ltmp388:
	.loc	11 201 13
	movq	%rax, -168(%rbp)
Ltmp389:
	.loc	11 326 9
	movq	-168(%rbp), %rax
Ltmp390:
	.loc	43 330 2
	addq	$208, %rsp
	popq	%rbp
	retq
LBB65_2:
Ltmp391:
	.loc	43 328 38
	movq	-200(%rbp), %rdi
	movq	-192(%rbp), %rsi
	.loc	43 328 19 is_stmt 0
	callq	__ZN5alloc5alloc18handle_alloc_error17hb5f6ff255f23ea4dE
Ltmp392:
Lfunc_end65:
	.cfi_endproc

	.p2align	4, 0x90
__ZN5alloc5alloc6Global10alloc_impl17hfe54f6a2ae914404E:
Lfunc_begin66:
	.loc	43 172 0 is_stmt 1
	.cfi_startproc
	pushq	%rbp
	.cfi_def_cfa_offset 16
	.cfi_offset %rbp, -16
	movq	%rsp, %rbp
	.cfi_def_cfa_register %rbp
	subq	$352, %rsp
	movb	%cl, %al
	movb	%al, -345(%rbp)
	movq	%rsi, -336(%rbp)
	movq	%rdx, -328(%rbp)
	movq	%rdi, -208(%rbp)
	andb	$1, %al
	movb	%al, -193(%rbp)
Ltmp393:
	.loc	43 173 15 prologue_end
	leaq	-336(%rbp), %rax
	movq	%rax, -144(%rbp)
Ltmp394:
	.loc	44 129 9
	movq	-336(%rbp), %rax
	movq	%rax, -344(%rbp)
Ltmp395:
	.loc	43 173 9
	cmpq	$0, %rax
	jne	LBB66_2
	.loc	43 174 51
	leaq	-336(%rbp), %rax
	movq	%rax, -48(%rbp)
Ltmp396:
	.loc	44 216 71
	leaq	-336(%rbp), %rax
	movq	%rax, -40(%rbp)
Ltmp397:
	.loc	44 140 9
	movq	-328(%rbp), %rax
	movq	%rax, -32(%rbp)
Ltmp398:
	.loc	45 97 9
	movq	%rax, -232(%rbp)
	movq	-232(%rbp), %rax
	movq	%rax, -24(%rbp)
Ltmp399:
	.loc	30 599 14
	movq	%rax, -16(%rbp)
	movq	-16(%rbp), %rax
	movq	%rax, -8(%rbp)
Ltmp400:
	.loc	11 201 13
	movq	%rax, -304(%rbp)
Ltmp401:
	.loc	43 174 21
	movq	-304(%rbp), %rdi
	xorl	%eax, %eax
	movl	%eax, %esi
	callq	__ZN4core3ptr8non_null26NonNull$LT$$u5b$T$u5d$$GT$20slice_from_raw_parts17h1a5a81613082d52dE
	.loc	43 174 18 is_stmt 0
	movq	%rax, -320(%rbp)
	movq	%rdx, -312(%rbp)
	.loc	43 174 72
	jmp	LBB66_15
LBB66_2:
	.loc	43 0 72
	movb	-345(%rbp), %al
	movq	-344(%rbp), %rcx
	.loc	43 176 13 is_stmt 1
	movq	%rcx, -136(%rbp)
Ltmp402:
	.loc	43 177 34
	testb	$1, %al
	jne	LBB66_4
	.loc	43 177 79 is_stmt 0
	movq	-336(%rbp), %rcx
	movq	-328(%rbp), %rax
	movq	%rcx, -272(%rbp)
	movq	%rax, -264(%rbp)
Ltmp403:
	.loc	43 95 27 is_stmt 1
	leaq	-272(%rbp), %rax
	movq	%rax, -104(%rbp)
Ltmp404:
	.loc	44 129 9
	movq	-272(%rbp), %rdi
Ltmp405:
	.loc	43 95 42
	leaq	-272(%rbp), %rax
	movq	%rax, -96(%rbp)
Ltmp406:
	.loc	44 140 9
	movq	-264(%rbp), %rax
	movq	%rax, -88(%rbp)
Ltmp407:
	.loc	45 97 9
	movq	%rax, -216(%rbp)
	movq	-216(%rbp), %rsi
Ltmp408:
	.loc	43 95 14
	callq	___rust_alloc
	movq	%rax, -296(%rbp)
Ltmp409:
	.loc	43 177 31
	jmp	LBB66_5
LBB66_4:
	.loc	43 177 56 is_stmt 0
	movq	-336(%rbp), %rcx
	movq	-328(%rbp), %rax
	movq	%rcx, -288(%rbp)
	movq	%rax, -280(%rbp)
Ltmp410:
	.loc	43 166 34 is_stmt 1
	leaq	-288(%rbp), %rax
	movq	%rax, -128(%rbp)
Ltmp411:
	.loc	44 129 9
	movq	-288(%rbp), %rdi
Ltmp412:
	.loc	43 166 49
	leaq	-288(%rbp), %rax
	movq	%rax, -120(%rbp)
Ltmp413:
	.loc	44 140 9
	movq	-280(%rbp), %rax
	movq	%rax, -112(%rbp)
Ltmp414:
	.loc	45 97 9
	movq	%rax, -224(%rbp)
	movq	-224(%rbp), %rsi
Ltmp415:
	.loc	43 166 14
	callq	___rust_alloc_zeroed
	movq	%rax, -296(%rbp)
Ltmp416:
LBB66_5:
	.loc	43 178 40
	movq	-296(%rbp), %rdi
	.loc	43 178 27 is_stmt 0
	callq	__ZN4core3ptr8non_null16NonNull$LT$T$GT$3new17hef91946685c683a2E
	movq	%rax, -240(%rbp)
Ltmp417:
	.file	47 "/rustc/2c8cc343237b8f7d5a3c3703e3a87f2eb2c54a74/library/core/src" "option.rs"
	.loc	47 1096 15 is_stmt 1
	movq	-240(%rbp), %rdx
	movl	$1, %eax
	xorl	%ecx, %ecx
	cmpq	$0, %rdx
	cmoveq	%rcx, %rax
	.loc	47 1096 9 is_stmt 0
	cmpq	$0, %rax
	jne	LBB66_7
	.loc	47 1098 21 is_stmt 1
	movq	$0, -248(%rbp)
	.loc	47 1098 28 is_stmt 0
	jmp	LBB66_8
LBB66_7:
	.loc	47 1097 18 is_stmt 1
	movq	-240(%rbp), %rax
	movq	%rax, -80(%rbp)
Ltmp418:
	.loc	47 1097 24 is_stmt 0
	movq	%rax, -248(%rbp)
Ltmp419:
LBB66_8:
	.loc	2 2091 15 is_stmt 1
	movq	-248(%rbp), %rdx
	xorl	%eax, %eax
	movl	$1, %ecx
	cmpq	$0, %rdx
	cmoveq	%rcx, %rax
	.loc	2 2091 9 is_stmt 0
	cmpq	$0, %rax
	jne	LBB66_10
	.loc	2 2092 16 is_stmt 1
	movq	-248(%rbp), %rax
	movq	%rax, -72(%rbp)
Ltmp420:
	.loc	2 2092 22 is_stmt 0
	movq	%rax, -256(%rbp)
Ltmp421:
	.loc	2 2092 45
	jmp	LBB66_11
LBB66_10:
Ltmp422:
	.loc	2 2093 23 is_stmt 1
	movq	$0, -256(%rbp)
Ltmp423:
LBB66_11:
	.loc	43 178 27
	movq	-256(%rbp), %rdx
	xorl	%eax, %eax
	movl	$1, %ecx
	cmpq	$0, %rdx
	cmoveq	%rcx, %rax
	cmpq	$0, %rax
	jne	LBB66_13
	.loc	43 0 27 is_stmt 0
	movq	-344(%rbp), %rsi
	.loc	43 178 27
	movq	-256(%rbp), %rdi
	movq	%rdi, -64(%rbp)
Ltmp424:
	.loc	43 178 27
	movq	%rdi, -56(%rbp)
Ltmp425:
	.loc	43 179 20 is_stmt 1
	callq	__ZN4core3ptr8non_null26NonNull$LT$$u5b$T$u5d$$GT$20slice_from_raw_parts17h1a5a81613082d52dE
	.loc	43 179 17 is_stmt 0
	movq	%rax, -320(%rbp)
	movq	%rdx, -312(%rbp)
Ltmp426:
	.loc	43 180 13 is_stmt 1
	jmp	LBB66_15
LBB66_13:
Ltmp427:
	.loc	2 2107 23
	movq	$0, -320(%rbp)
Ltmp428:
LBB66_14:
	.loc	43 182 6
	movq	-320(%rbp), %rax
	movq	-312(%rbp), %rdx
	addq	$352, %rsp
	popq	%rbp
	retq
LBB66_15:
	jmp	LBB66_14
Ltmp429:
Lfunc_end66:
	.cfi_endproc

	.p2align	4, 0x90
__ZN5alloc5alloc8box_free17he7740a367d7ad290E:
Lfunc_begin67:
	.loc	43 340 0
	.cfi_startproc
	.cfi_personality 155, _rust_eh_personality
	.cfi_lsda 16, Lexception10
	pushq	%rbp
	.cfi_def_cfa_offset 16
	.cfi_offset %rbp, -16
	movq	%rsp, %rbp
	.cfi_def_cfa_register %rbp
	subq	$304, %rsp
	movq	%rdi, -288(%rbp)
	movq	%rsi, -280(%rbp)
Ltmp433:
	.loc	43 345 32 prologue_end
	leaq	-288(%rbp), %rax
	movq	%rax, -224(%rbp)
Ltmp434:
	.file	48 "/rustc/2c8cc343237b8f7d5a3c3703e3a87f2eb2c54a74/library/core/src/ptr" "unique.rs"
	.loc	48 117 18
	leaq	-288(%rbp), %rax
	movq	%rax, -216(%rbp)
Ltmp435:
	.loc	11 376 20
	movq	-288(%rbp), %rcx
	movq	-280(%rbp), %rax
	movq	%rcx, -208(%rbp)
	movq	%rax, -200(%rbp)
Ltmp436:
	.loc	43 345 20
	movq	8(%rax), %rax
	movq	%rax, -192(%rbp)
	movq	-192(%rbp), %rcx
	movq	%rcx, -304(%rbp)
	movq	%rcx, -184(%rbp)
Ltmp437:
	.loc	43 346 38
	leaq	-288(%rbp), %rax
	movq	%rax, -176(%rbp)
Ltmp438:
	.loc	48 117 18
	leaq	-288(%rbp), %rax
	movq	%rax, -168(%rbp)
Ltmp439:
	.loc	11 376 20
	movq	-288(%rbp), %rdx
	movq	-280(%rbp), %rax
	movq	%rdx, -160(%rbp)
	movq	%rax, -152(%rbp)
Ltmp440:
	.loc	43 346 21
	movq	16(%rax), %rax
	movq	%rax, -144(%rbp)
	movq	-144(%rbp), %rax
	movq	%rax, -136(%rbp)
Ltmp441:
	.loc	43 347 56
	movq	%rcx, -128(%rbp)
	.loc	43 347 62 is_stmt 0
	movq	%rax, -120(%rbp)
Ltmp442:
	.loc	44 120 65 is_stmt 1
	movq	%rax, -112(%rbp)
Ltmp443:
	.loc	45 89 18
	movq	%rax, -104(%rbp)
	movq	-104(%rbp), %rax
	movq	%rax, -296(%rbp)
Ltmp444:
	.loc	45 0 18 is_stmt 0
	movq	-296(%rbp), %rax
	movq	-304(%rbp), %rcx
	.loc	44 120 18 is_stmt 1
	movq	%rcx, -264(%rbp)
	movq	%rax, -256(%rbp)
Ltmp445:
	.loc	43 348 37
	movq	-288(%rbp), %rax
	movq	-280(%rbp), %rcx
	movq	%rax, -96(%rbp)
	movq	%rcx, -88(%rbp)
Ltmp446:
	.loc	48 137 22
	movq	%rax, -80(%rbp)
	movq	%rcx, -72(%rbp)
Ltmp447:
	.loc	11 450 41
	movq	%rax, -64(%rbp)
	movq	%rcx, -56(%rbp)
	movq	%rax, -48(%rbp)
Ltmp448:
	.loc	11 201 13
	movq	%rax, -232(%rbp)
Ltmp449:
	.loc	48 191 18
	movq	-232(%rbp), %rax
	.loc	48 191 9 is_stmt 0
	movq	%rax, -240(%rbp)
Ltmp450:
	.loc	11 768 41 is_stmt 1
	movq	-240(%rbp), %rax
	movq	%rax, -40(%rbp)
Ltmp451:
	.loc	48 104 9
	movq	%rax, -32(%rbp)
Ltmp452:
	.loc	11 326 9
	movq	%rax, -24(%rbp)
Ltmp453:
	.loc	11 201 13
	movq	%rax, -248(%rbp)
Ltmp454:
	.loc	43 348 50
	movq	-264(%rbp), %rdx
	movq	-256(%rbp), %rcx
	.loc	43 348 9 is_stmt 0
	movq	-248(%rbp), %rsi
Ltmp430:
	leaq	-272(%rbp), %rdi
	callq	__ZN63_$LT$alloc..alloc..Global$u20$as$u20$core..alloc..Allocator$GT$10deallocate17he655742ff3457394E
Ltmp431:
	jmp	LBB67_4
Ltmp455:
LBB67_2:
	.loc	43 340 1 is_stmt 1
	movq	-16(%rbp), %rdi
	callq	__Unwind_Resume
LBB67_3:
Ltmp432:
	.loc	43 0 1 is_stmt 0
	movq	%rax, %rcx
	movl	%edx, %eax
	movq	%rcx, -16(%rbp)
	movl	%eax, -8(%rbp)
	jmp	LBB67_2
LBB67_4:
	.loc	43 350 2 is_stmt 1
	addq	$304, %rsp
	popq	%rbp
	retq
Ltmp456:
Lfunc_end67:
	.cfi_endproc
	.section	__TEXT,__gcc_except_tab
	.p2align	2
GCC_except_table67:
Lexception10:
	.byte	255
	.byte	255
	.byte	1
	.uleb128 Lcst_end10-Lcst_begin10
Lcst_begin10:
	.uleb128 Ltmp430-Lfunc_begin67
	.uleb128 Ltmp431-Ltmp430
	.uleb128 Ltmp432-Lfunc_begin67
	.byte	0
	.uleb128 Ltmp431-Lfunc_begin67
	.uleb128 Lfunc_end67-Ltmp431
	.byte	0
	.byte	0
Lcst_end10:
	.p2align	2

	.section	__TEXT,__text,regular,pure_instructions
	.p2align	4, 0x90
__ZN5alloc6string6String6as_str17ha22555949f983850E:
Lfunc_begin68:
	.loc	18 884 0
	.cfi_startproc
	pushq	%rbp
	.cfi_def_cfa_offset 16
	.cfi_offset %rbp, -16
	movq	%rsp, %rbp
	.cfi_def_cfa_register %rbp
	subq	$48, %rsp
	movq	%rdi, -48(%rbp)
Ltmp457:
	.loc	18 885 9 prologue_end
	movq	%rdi, -40(%rbp)
Ltmp458:
	.loc	18 2460 43
	callq	__ZN72_$LT$alloc..vec..Vec$LT$T$C$A$GT$$u20$as$u20$core..ops..deref..Deref$GT$5deref17hfc60ab601cb9be5dE
	movq	%rax, -32(%rbp)
	movq	%rdx, -24(%rbp)
Ltmp459:
	.loc	19 173 14
	movq	%rax, -16(%rbp)
	movq	%rdx, -8(%rbp)
	movq	-16(%rbp), %rax
	movq	-8(%rbp), %rdx
Ltmp460:
	.loc	18 886 6
	addq	$48, %rsp
	popq	%rbp
	retq
Ltmp461:
Lfunc_end68:
	.cfi_endproc

	.p2align	4, 0x90
__ZN63_$LT$I$u20$as$u20$core..iter..traits..collect..IntoIterator$GT$9into_iter17h1a3f01758cddc4cdE:
Lfunc_begin69:
	.file	49 "/rustc/2c8cc343237b8f7d5a3c3703e3a87f2eb2c54a74/library/core/src/iter/traits" "collect.rs"
	.loc	49 272 0
	.cfi_startproc
	pushq	%rbp
	.cfi_def_cfa_offset 16
	.cfi_offset %rbp, -16
	movq	%rsp, %rbp
	.cfi_def_cfa_register %rbp
	subq	$16, %rsp
	movq	%rsi, %rdx
	movq	%rdi, %rax
	movq	%rax, -16(%rbp)
	movq	%rdx, -8(%rbp)
Ltmp462:
	.loc	49 274 6 prologue_end
	addq	$16, %rsp
	popq	%rbp
	retq
Ltmp463:
Lfunc_end69:
	.cfi_endproc

	.p2align	4, 0x90
__ZN63_$LT$alloc..alloc..Global$u20$as$u20$core..alloc..Allocator$GT$10deallocate17he655742ff3457394E:
Lfunc_begin70:
	.loc	43 246 0
	.cfi_startproc
	pushq	%rbp
	.cfi_def_cfa_offset 16
	.cfi_offset %rbp, -16
	movq	%rsp, %rbp
	.cfi_def_cfa_register %rbp
	subq	$112, %rsp
	movq	%rsi, -112(%rbp)
	movq	%rdx, -104(%rbp)
	movq	%rcx, -96(%rbp)
	movq	%rdi, -64(%rbp)
	movq	%rsi, -56(%rbp)
Ltmp464:
	.loc	43 247 12 prologue_end
	leaq	-104(%rbp), %rax
	movq	%rax, -48(%rbp)
	cmpq	$0, -104(%rbp)
	jne	LBB70_2
	.loc	43 247 9 is_stmt 0
	jmp	LBB70_3
LBB70_2:
	.loc	43 0 9
	movq	-112(%rbp), %rdi
	.loc	43 250 30 is_stmt 1
	movq	%rdi, -40(%rbp)
Ltmp465:
	.loc	11 326 9
	movq	%rdi, -32(%rbp)
Ltmp466:
	.loc	43 250 44
	movq	-104(%rbp), %rcx
	movq	-96(%rbp), %rax
	movq	%rcx, -88(%rbp)
	movq	%rax, -80(%rbp)
Ltmp467:
	.loc	43 113 34
	leaq	-88(%rbp), %rax
	movq	%rax, -24(%rbp)
Ltmp468:
	.loc	44 129 9
	movq	-88(%rbp), %rsi
Ltmp469:
	.loc	43 113 49
	leaq	-88(%rbp), %rax
	movq	%rax, -16(%rbp)
Ltmp470:
	.loc	44 140 9
	movq	-80(%rbp), %rax
	movq	%rax, -8(%rbp)
Ltmp471:
	.loc	45 97 9
	movq	%rax, -72(%rbp)
	movq	-72(%rbp), %rdx
Ltmp472:
	.loc	43 113 14
	callq	___rust_dealloc
Ltmp473:
LBB70_3:
	.loc	43 252 6
	addq	$112, %rsp
	popq	%rbp
	retq
Ltmp474:
Lfunc_end70:
	.cfi_endproc

	.p2align	4, 0x90
__ZN64_$LT$std..ffi..os_str..OsStr$u20$as$u20$core..cmp..PartialEq$GT$2eq17h147954be5eacbe3eE:
Lfunc_begin71:
	.loc	17 1134 0
	.cfi_startproc
	pushq	%rbp
	.cfi_def_cfa_offset 16
	.cfi_offset %rbp, -16
	movq	%rsp, %rbp
	.cfi_def_cfa_register %rbp
	subq	$64, %rsp
	movq	%rdi, -64(%rbp)
	movq	%rsi, -56(%rbp)
	movq	%rdx, -48(%rbp)
	movq	%rcx, -40(%rbp)
Ltmp475:
	.loc	17 1135 9 prologue_end
	movq	%rdi, -32(%rbp)
	movq	%rsi, -24(%rbp)
	.loc	17 1135 25 is_stmt 0
	movq	%rdx, -16(%rbp)
	movq	%rcx, -8(%rbp)
	.loc	17 1135 9
	callq	__ZN4core5slice3cmp81_$LT$impl$u20$core..cmp..PartialEq$LT$$u5b$B$u5d$$GT$$u20$for$u20$$u5b$A$u5d$$GT$2eq17hd41b7aafdd62a6d3E
	.loc	17 1136 6 is_stmt 1
	andb	$1, %al
	movzbl	%al, %eax
	addq	$64, %rsp
	popq	%rbp
	retq
Ltmp476:
Lfunc_end71:
	.cfi_endproc

	.p2align	4, 0x90
__ZN65_$LT$alloc..string..String$u20$as$u20$core..ops..deref..Deref$GT$5deref17h0788697115fd300eE:
Lfunc_begin72:
	.loc	18 2459 0
	.cfi_startproc
	pushq	%rbp
	.cfi_def_cfa_offset 16
	.cfi_offset %rbp, -16
	movq	%rsp, %rbp
	.cfi_def_cfa_register %rbp
	subq	$48, %rsp
	movq	%rdi, -40(%rbp)
Ltmp477:
	.loc	18 2460 43 prologue_end
	callq	__ZN72_$LT$alloc..vec..Vec$LT$T$C$A$GT$$u20$as$u20$core..ops..deref..Deref$GT$5deref17hfc60ab601cb9be5dE
	movq	%rax, -32(%rbp)
	movq	%rdx, -24(%rbp)
Ltmp478:
	.loc	19 173 14
	movq	%rax, -16(%rbp)
	movq	%rdx, -8(%rbp)
	movq	-16(%rbp), %rax
	movq	-8(%rbp), %rdx
Ltmp479:
	.loc	18 2461 6
	addq	$48, %rsp
	popq	%rbp
	retq
Ltmp480:
Lfunc_end72:
	.cfi_endproc

	.p2align	4, 0x90
__ZN67_$LT$alloc..boxed..Box$LT$T$C$A$GT$$u20$as$u20$core..fmt..Debug$GT$3fmt17hd6ad85ea534110b8E:
Lfunc_begin73:
	.loc	1 1882 0
	.cfi_startproc
	pushq	%rbp
	.cfi_def_cfa_offset 16
	.cfi_offset %rbp, -16
	movq	%rsp, %rbp
	.cfi_def_cfa_register %rbp
	subq	$16, %rsp
	movq	%rdi, %rax
	movq	%rax, -16(%rbp)
	movq	%rsi, -8(%rbp)
Ltmp481:
	.loc	1 1883 25 prologue_end
	movq	(%rax), %rdi
	movq	8(%rax), %rax
	.loc	1 1883 9 is_stmt 0
	callq	*24(%rax)
	.loc	1 1884 6 is_stmt 1
	andb	$1, %al
	movzbl	%al, %eax
	addq	$16, %rsp
	popq	%rbp
	retq
Ltmp482:
Lfunc_end73:
	.cfi_endproc

	.p2align	4, 0x90
__ZN67_$LT$std..ffi..os_str..OsString$u20$as$u20$core..cmp..PartialEq$GT$2eq17h17a10617522e0447E:
Lfunc_begin74:
	.loc	17 559 0
	.cfi_startproc
	pushq	%rbp
	.cfi_def_cfa_offset 16
	.cfi_offset %rbp, -16
	movq	%rsp, %rbp
	.cfi_def_cfa_register %rbp
	subq	$208, %rsp
	movq	%rsi, -200(%rbp)
	movq	%rdi, -160(%rbp)
	movq	%rsi, -152(%rbp)
Ltmp483:
	.loc	17 560 11 prologue_end
	movq	%rdi, -128(%rbp)
Ltmp484:
	.loc	17 515 10
	movq	%rdi, -120(%rbp)
Ltmp485:
	.loc	17 497 27
	movq	%rdi, -112(%rbp)
Ltmp486:
	.loc	20 152 34
	callq	__ZN72_$LT$alloc..vec..Vec$LT$T$C$A$GT$$u20$as$u20$core..ops..deref..Deref$GT$5deref17hfc60ab601cb9be5dE
	movq	-200(%rbp), %rdi
	.loc	20 152 18 is_stmt 0
	movq	%rax, -104(%rbp)
	movq	%rdx, -96(%rbp)
	movq	-104(%rbp), %rcx
	movq	-96(%rbp), %rax
Ltmp487:
	.loc	17 497 27 is_stmt 1
	movq	%rcx, -88(%rbp)
	movq	%rax, -80(%rbp)
Ltmp488:
	.loc	17 560 9
	movq	%rcx, -192(%rbp)
	movq	%rax, -184(%rbp)
	leaq	-192(%rbp), %rax
	movq	%rax, -72(%rbp)
	.loc	17 560 22 is_stmt 0
	movq	%rdi, -64(%rbp)
Ltmp489:
	.loc	17 515 10 is_stmt 1
	movq	%rdi, -56(%rbp)
Ltmp490:
	.loc	17 497 27
	movq	%rdi, -48(%rbp)
Ltmp491:
	.loc	20 152 34
	callq	__ZN72_$LT$alloc..vec..Vec$LT$T$C$A$GT$$u20$as$u20$core..ops..deref..Deref$GT$5deref17hfc60ab601cb9be5dE
	.loc	20 152 18 is_stmt 0
	movq	%rax, -40(%rbp)
	movq	%rdx, -32(%rbp)
	movq	-40(%rbp), %rcx
	movq	-32(%rbp), %rax
Ltmp492:
	.loc	17 497 27 is_stmt 1
	movq	%rcx, -24(%rbp)
	movq	%rax, -16(%rbp)
Ltmp493:
	.loc	17 560 20
	movq	%rcx, -176(%rbp)
	movq	%rax, -168(%rbp)
	leaq	-176(%rbp), %rax
	movq	%rax, -8(%rbp)
Ltmp494:
	.loc	26 1531 27
	movq	-192(%rbp), %rdi
	movq	-184(%rbp), %rsi
	.loc	26 1531 34 is_stmt 0
	movq	-176(%rbp), %rdx
	movq	-168(%rbp), %rcx
	.loc	26 1531 13
	callq	__ZN64_$LT$std..ffi..os_str..OsStr$u20$as$u20$core..cmp..PartialEq$GT$2eq17h147954be5eacbe3eE
Ltmp495:
	.loc	17 561 6 is_stmt 1
	andb	$1, %al
	movzbl	%al, %eax
	addq	$208, %rsp
	popq	%rbp
	retq
Ltmp496:
Lfunc_end74:
	.cfi_endproc

	.p2align	4, 0x90
__ZN74_$LT$core..result..Result$LT$T$C$E$GT$$u20$as$u20$core..cmp..PartialEq$GT$2eq17h139856d3d6064d6eE:
Lfunc_begin75:
	.loc	2 499 0
	.cfi_startproc
	pushq	%rbp
	.cfi_def_cfa_offset 16
	.cfi_offset %rbp, -16
	movq	%rsp, %rbp
	.cfi_def_cfa_register %rbp
	subq	$112, %rsp
	movq	%rdi, -104(%rbp)
	movq	%rsi, -96(%rbp)
	movq	%rdi, -64(%rbp)
	movq	%rsi, -56(%rbp)
Ltmp497:
	.loc	2 499 16 prologue_end
	movq	(%rdi), %rdx
	xorl	%eax, %eax
	movl	$1, %ecx
	cmpq	$0, %rdx
	cmoveq	%rcx, %rax
	movq	%rax, -48(%rbp)
Ltmp498:
	.loc	2 499 16 is_stmt 0
	movq	(%rsi), %rsi
	xorl	%ecx, %ecx
	movl	$1, %edx
	cmpq	$0, %rsi
	cmoveq	%rdx, %rcx
	movq	%rcx, -40(%rbp)
Ltmp499:
	.loc	2 499 16
	cmpq	%rcx, %rax
	je	LBB75_2
	movb	$0, -82(%rbp)
	jmp	LBB75_9
LBB75_2:
	.loc	2 0 16
	movq	-96(%rbp), %rax
	movq	-104(%rbp), %rcx
	.loc	2 499 16
	movq	%rcx, -80(%rbp)
	movq	%rax, -72(%rbp)
	movq	-80(%rbp), %rax
	movq	(%rax), %rdx
	xorl	%eax, %eax
	movl	$1, %ecx
	cmpq	$0, %rdx
	cmoveq	%rcx, %rax
	cmpq	$0, %rax
	jne	LBB75_4
	movq	-72(%rbp), %rax
	movq	(%rax), %rdx
	xorl	%eax, %eax
	movl	$1, %ecx
	cmpq	$0, %rdx
	cmoveq	%rcx, %rax
	cmpq	$0, %rax
	je	LBB75_8
	jmp	LBB75_6
LBB75_4:
	movq	-72(%rbp), %rax
	movq	(%rax), %rdx
	xorl	%eax, %eax
	movl	$1, %ecx
	cmpq	$0, %rdx
	cmoveq	%rcx, %rax
	cmpq	$1, %rax
	jne	LBB75_6
	.loc	2 512 55 is_stmt 1
	movq	-80(%rbp), %rdi
	addq	$8, %rdi
	movq	%rdi, -32(%rbp)
	movq	-72(%rbp), %rsi
	addq	$8, %rsi
	movq	%rsi, -24(%rbp)
Ltmp500:
	.loc	2 512 55 is_stmt 0
	callq	__ZN4core3cmp5impls69_$LT$impl$u20$core..cmp..PartialEq$LT$$RF$B$GT$$u20$for$u20$$RF$A$GT$2eq17h7cbc5f6792bb6617E
	andb	$1, %al
	movb	%al, -81(%rbp)
Ltmp501:
	.loc	2 499 24 is_stmt 1
	jmp	LBB75_7
LBB75_6:
	.loc	2 499 16 is_stmt 0
	ud2
LBB75_7:
	movb	-81(%rbp), %al
	andb	$1, %al
	movb	%al, -82(%rbp)
	jmp	LBB75_9
LBB75_8:
	.loc	2 507 54 is_stmt 1
	movq	-80(%rbp), %rdi
	movq	%rdi, -16(%rbp)
	movq	-72(%rbp), %rsi
	movq	%rsi, -8(%rbp)
Ltmp502:
	.loc	2 507 54 is_stmt 0
	callq	__ZN4core3cmp5impls69_$LT$impl$u20$core..cmp..PartialEq$LT$$RF$B$GT$$u20$for$u20$$RF$A$GT$2eq17h3f4180d73f11c68aE
	andb	$1, %al
	movb	%al, -81(%rbp)
Ltmp503:
	.loc	2 499 24 is_stmt 1
	jmp	LBB75_7
Ltmp504:
LBB75_9:
	.loc	2 499 25 is_stmt 0
	movb	-82(%rbp), %al
	andb	$1, %al
	movzbl	%al, %eax
	addq	$112, %rsp
	popq	%rbp
	retq
Ltmp505:
Lfunc_end75:
	.cfi_endproc

	.p2align	4, 0x90
__ZN77_$LT$alloc..string..String$u20$as$u20$core..cmp..PartialEq$LT$$RF$str$GT$$GT$2eq17hdec9832a74681f27E:
Lfunc_begin76:
	.loc	18 2228 0 is_stmt 1
	.cfi_startproc
	pushq	%rbp
	.cfi_def_cfa_offset 16
	.cfi_offset %rbp, -16
	movq	%rsp, %rbp
	.cfi_def_cfa_register %rbp
	subq	$128, %rsp
	movq	%rsi, -120(%rbp)
	movq	%rdi, -112(%rbp)
	movq	%rsi, -104(%rbp)
Ltmp506:
	.loc	18 2229 32 prologue_end
	movq	%rdi, -72(%rbp)
Ltmp507:
	.loc	18 2389 43
	callq	__ZN72_$LT$alloc..vec..Vec$LT$T$C$A$GT$$u20$as$u20$core..ops..deref..Deref$GT$5deref17hfc60ab601cb9be5dE
	movq	%rax, %rcx
	movq	-120(%rbp), %rax
	movq	%rcx, -64(%rbp)
	movq	%rdx, -56(%rbp)
Ltmp508:
	.loc	19 173 14
	movq	%rcx, -48(%rbp)
	movq	%rdx, -40(%rbp)
	movq	-48(%rbp), %rdi
	movq	-40(%rbp), %rsi
Ltmp509:
	.loc	18 2229 43
	movq	(%rax), %rdx
	movq	8(%rax), %rcx
	movq	%rdx, -32(%rbp)
	movq	%rcx, -24(%rbp)
Ltmp510:
	.loc	34 65 21
	movq	%rdx, -16(%rbp)
	movq	%rcx, -8(%rbp)
Ltmp511:
	.loc	18 2229 17
	callq	__ZN4core3str6traits54_$LT$impl$u20$core..cmp..PartialEq$u20$for$u20$str$GT$2eq17h730cb3d959692efcE
	.loc	18 2230 14
	andb	$1, %al
	movzbl	%al, %eax
	addq	$128, %rsp
	popq	%rbp
	retq
Ltmp512:
Lfunc_end76:
	.cfi_endproc

	.p2align	4, 0x90
__ZN79_$LT$core..result..Result$LT$T$C$E$GT$$u20$as$u20$core..ops..try_trait..Try$GT$6branch17h751626a0df4903afE:
Lfunc_begin77:
	.loc	2 2090 0
	.cfi_startproc
	pushq	%rbp
	.cfi_def_cfa_offset 16
	.cfi_offset %rbp, -16
	movq	%rsp, %rbp
	.cfi_def_cfa_register %rbp
	subq	$48, %rsp
	movq	%rsi, -48(%rbp)
Ltmp513:
	movq	%rdi, -40(%rbp)
	movq	%rdi, -32(%rbp)
Ltmp514:
	.loc	2 2091 15 prologue_end
	movl	(%rsi), %eax
	.loc	2 2091 9 is_stmt 0
	cmpq	$0, %rax
Ltmp515:
	jne	LBB77_2
Ltmp516:
	.loc	2 0 9
	movq	-40(%rbp), %rax
	movq	-48(%rbp), %rcx
	.loc	2 2092 16 is_stmt 1
	movl	4(%rcx), %ecx
	movl	%ecx, -4(%rbp)
Ltmp517:
	.loc	2 2092 22 is_stmt 0
	movl	%ecx, 4(%rax)
	movl	$0, (%rax)
Ltmp518:
	.loc	2 2092 45
	jmp	LBB77_3
Ltmp519:
LBB77_2:
	.loc	2 0 45
	movq	-40(%rbp), %rax
	movq	-48(%rbp), %rcx
	.loc	2 2093 17 is_stmt 1
	movq	8(%rcx), %rcx
	movq	%rcx, -16(%rbp)
Ltmp520:
	.loc	2 2093 42 is_stmt 0
	movq	%rcx, -24(%rbp)
	.loc	2 2093 23
	movq	-24(%rbp), %rcx
	movq	%rcx, 8(%rax)
	movl	$1, (%rax)
Ltmp521:
LBB77_3:
	.loc	2 0 23
	movq	-32(%rbp), %rax
	.loc	2 2095 6 is_stmt 1
	addq	$48, %rsp
	popq	%rbp
	retq
Ltmp522:
Lfunc_end77:
	.cfi_endproc

	.p2align	4, 0x90
__ZN79_$LT$core..result..Result$LT$T$C$E$GT$$u20$as$u20$core..ops..try_trait..Try$GT$6branch17ha00afcc085d6f6aaE:
Lfunc_begin78:
	.loc	2 2090 0
	.cfi_startproc
	pushq	%rbp
	.cfi_def_cfa_offset 16
	.cfi_offset %rbp, -16
	movq	%rsp, %rbp
	.cfi_def_cfa_register %rbp
	subq	$144, %rsp
	movq	%rsi, -144(%rbp)
Ltmp523:
	movq	%rdi, -136(%rbp)
	movq	%rdi, -128(%rbp)
Ltmp524:
	.loc	2 2091 9 prologue_end
	cmpq	$0, (%rsi)
Ltmp525:
	jne	LBB78_2
Ltmp526:
	.loc	2 0 9 is_stmt 0
	movq	-136(%rbp), %rax
	movq	-144(%rbp), %rcx
	.loc	2 2092 16 is_stmt 1
	movq	8(%rcx), %rdx
	movq	%rdx, -120(%rbp)
	movq	16(%rcx), %rdx
	movq	%rdx, -112(%rbp)
	movq	24(%rcx), %rcx
	movq	%rcx, -104(%rbp)
Ltmp527:
	.loc	2 2092 44 is_stmt 0
	movq	-120(%rbp), %rcx
	movq	%rcx, -96(%rbp)
	movq	-112(%rbp), %rcx
	movq	%rcx, -88(%rbp)
	movq	-104(%rbp), %rcx
	movq	%rcx, -80(%rbp)
	.loc	2 2092 22
	movq	-96(%rbp), %rcx
	movq	%rcx, 8(%rax)
	movq	-88(%rbp), %rcx
	movq	%rcx, 16(%rax)
	movq	-80(%rbp), %rcx
	movq	%rcx, 24(%rax)
	movq	$0, (%rax)
Ltmp528:
	.loc	2 2092 45
	jmp	LBB78_3
Ltmp529:
LBB78_2:
	.loc	2 0 45
	movq	-136(%rbp), %rax
	movq	-144(%rbp), %rcx
	.loc	2 2093 17 is_stmt 1
	movq	8(%rcx), %rdx
	movq	%rdx, -72(%rbp)
	movq	16(%rcx), %rdx
	movq	%rdx, -64(%rbp)
	movq	24(%rcx), %rcx
	movq	%rcx, -56(%rbp)
Ltmp530:
	.loc	2 2093 46 is_stmt 0
	movq	-72(%rbp), %rcx
	movq	%rcx, -24(%rbp)
	movq	-64(%rbp), %rcx
	movq	%rcx, -16(%rbp)
	movq	-56(%rbp), %rcx
	movq	%rcx, -8(%rbp)
	.loc	2 2093 42
	movq	-24(%rbp), %rcx
	movq	%rcx, -48(%rbp)
	movq	-16(%rbp), %rcx
	movq	%rcx, -40(%rbp)
	movq	-8(%rbp), %rcx
	movq	%rcx, -32(%rbp)
	.loc	2 2093 23
	movq	-48(%rbp), %rcx
	movq	%rcx, 8(%rax)
	movq	-40(%rbp), %rcx
	movq	%rcx, 16(%rax)
	movq	-32(%rbp), %rcx
	movq	%rcx, 24(%rax)
	movq	$1, (%rax)
Ltmp531:
LBB78_3:
	.loc	2 0 23
	movq	-128(%rbp), %rax
	.loc	2 2095 6 is_stmt 1
	addq	$144, %rsp
	popq	%rbp
	retq
Ltmp532:
Lfunc_end78:
	.cfi_endproc

	.p2align	4, 0x90
__ZN79_$LT$core..result..Result$LT$T$C$E$GT$$u20$as$u20$core..ops..try_trait..Try$GT$6branch17ha82a197cbe9988caE:
Lfunc_begin79:
	.loc	2 2090 0
	.cfi_startproc
	pushq	%rbp
	.cfi_def_cfa_offset 16
	.cfi_offset %rbp, -16
	movq	%rsp, %rbp
	.cfi_def_cfa_register %rbp
	subq	$40, %rsp
	movq	%rdi, -40(%rbp)
Ltmp533:
	.loc	2 2091 15 prologue_end
	movq	-40(%rbp), %rdx
	movl	$1, %eax
	xorl	%ecx, %ecx
	cmpq	$0, %rdx
	cmoveq	%rcx, %rax
	.loc	2 2091 9 is_stmt 0
	cmpq	$0, %rax
	jne	LBB79_2
Ltmp534:
	.loc	2 2092 22 is_stmt 1
	movq	$0, -32(%rbp)
Ltmp535:
	.loc	2 2092 45 is_stmt 0
	jmp	LBB79_3
LBB79_2:
	.loc	2 2093 17 is_stmt 1
	movq	-40(%rbp), %rax
	movq	%rax, -8(%rbp)
Ltmp536:
	.loc	2 2093 42 is_stmt 0
	movq	%rax, -24(%rbp)
	.loc	2 2093 23
	movq	-24(%rbp), %rax
	movq	%rax, -32(%rbp)
Ltmp537:
LBB79_3:
	.loc	2 2095 6 is_stmt 1
	movq	-32(%rbp), %rax
	addq	$40, %rsp
	popq	%rbp
	retq
Ltmp538:
Lfunc_end79:
	.cfi_endproc

	.p2align	4, 0x90
__ZN79_$LT$std..path..Path$u20$as$u20$core..convert..AsRef$LT$std..path..Path$GT$$GT$6as_ref17h3638398c70182bfdE:
Lfunc_begin80:
	.loc	22 3106 0
	.cfi_startproc
	pushq	%rbp
	.cfi_def_cfa_offset 16
	.cfi_offset %rbp, -16
	movq	%rsp, %rbp
	.cfi_def_cfa_register %rbp
	subq	$16, %rsp
	movq	%rsi, %rdx
	movq	%rdi, %rax
	movq	%rax, -16(%rbp)
	movq	%rdx, -8(%rbp)
Ltmp539:
	.loc	22 3108 6 prologue_end
	addq	$16, %rsp
	popq	%rbp
	retq
Ltmp540:
Lfunc_end80:
	.cfi_endproc

	.p2align	4, 0x90
__ZN80_$LT$std..io..Write..write_fmt..Adapter$LT$T$GT$$u20$as$u20$core..fmt..Write$GT$9write_str17hf4ff96312a9420e4E:
Lfunc_begin81:
	.loc	6 1670 0
	.cfi_startproc
	.cfi_personality 155, _rust_eh_personality
	.cfi_lsda 16, Lexception11
	pushq	%rbp
	.cfi_def_cfa_offset 16
	.cfi_offset %rbp, -16
	movq	%rsp, %rbp
	.cfi_def_cfa_register %rbp
	subq	$112, %rsp
	movq	%rdi, -112(%rbp)
	movq	%rdi, -80(%rbp)
	movq	%rsi, -72(%rbp)
	movq	%rdx, -64(%rbp)
Ltmp544:
	.loc	6 1671 23 prologue_end
	movq	8(%rdi), %rdi
	.loc	6 1671 44 is_stmt 0
	movq	%rsi, -56(%rbp)
	movq	%rdx, -48(%rbp)
Ltmp545:
	.loc	21 327 18 is_stmt 1
	movq	%rsi, -40(%rbp)
	movq	%rdx, -32(%rbp)
	movq	-40(%rbp), %rsi
	movq	-32(%rbp), %rdx
Ltmp546:
	.loc	6 1671 23
	callq	__ZN3std2io5Write9write_all17h48bf74e1029f1763E
	movq	%rax, -96(%rbp)
	movq	-96(%rbp), %rdx
	movl	$1, %eax
	xorl	%ecx, %ecx
	cmpq	$0, %rdx
	cmoveq	%rcx, %rax
	.loc	6 1671 17 is_stmt 0
	cmpq	$0, %rax
	jne	LBB81_2
	.loc	6 1672 31 is_stmt 1
	movb	$0, -97(%rbp)
	.loc	6 1672 36 is_stmt 0
	jmp	LBB81_6
LBB81_2:
	.loc	6 0 36
	movq	-112(%rbp), %rdi
	.loc	6 1673 25 is_stmt 1
	movq	-96(%rbp), %rax
	movq	%rax, -24(%rbp)
Ltmp547:
	.loc	6 1674 38
	movq	%rax, -88(%rbp)
Ltmp541:
	.loc	6 1674 25 is_stmt 0
	callq	__ZN4core3ptr81drop_in_place$LT$core..result..Result$LT$$LP$$RP$$C$std..io..error..Error$GT$$GT$17h961f320e5bb2f13bE
Ltmp542:
	jmp	LBB81_5
LBB81_3:
	.loc	6 0 25
	movq	-112(%rbp), %rax
	.loc	6 1674 25
	movq	-88(%rbp), %rcx
	movq	%rcx, (%rax)
Ltmp548:
	.loc	6 1670 13 is_stmt 1
	movq	-16(%rbp), %rdi
	callq	__Unwind_Resume
LBB81_4:
Ltmp543:
	.loc	6 0 13 is_stmt 0
	movq	%rax, %rcx
	movl	%edx, %eax
	movq	%rcx, -16(%rbp)
	movl	%eax, -8(%rbp)
	jmp	LBB81_3
LBB81_5:
	movq	-112(%rbp), %rax
Ltmp549:
	.loc	6 1674 25 is_stmt 1
	movq	-88(%rbp), %rcx
	movq	%rcx, (%rax)
	.loc	6 1675 25
	movb	$1, -97(%rbp)
Ltmp550:
LBB81_6:
	.loc	6 1678 14
	movb	-97(%rbp), %al
	andb	$1, %al
	movzbl	%al, %eax
	addq	$112, %rsp
	popq	%rbp
	retq
Ltmp551:
Lfunc_end81:
	.cfi_endproc
	.section	__TEXT,__gcc_except_tab
	.p2align	2
GCC_except_table81:
Lexception11:
	.byte	255
	.byte	255
	.byte	1
	.uleb128 Lcst_end11-Lcst_begin11
Lcst_begin11:
	.uleb128 Lfunc_begin81-Lfunc_begin81
	.uleb128 Ltmp541-Lfunc_begin81
	.byte	0
	.byte	0
	.uleb128 Ltmp541-Lfunc_begin81
	.uleb128 Ltmp542-Ltmp541
	.uleb128 Ltmp543-Lfunc_begin81
	.byte	0
	.uleb128 Ltmp542-Lfunc_begin81
	.uleb128 Lfunc_end81-Ltmp542
	.byte	0
	.byte	0
Lcst_end11:
	.p2align	2

	.section	__TEXT,__text,regular,pure_instructions
	.p2align	4, 0x90
__ZN89_$LT$core..ops..range..Range$LT$T$GT$$u20$as$u20$core..iter..range..RangeIteratorImpl$GT$9spec_next17haacbf4223849dfd0E:
Lfunc_begin82:
	.loc	23 620 0
	.cfi_startproc
	pushq	%rbp
	.cfi_def_cfa_offset 16
	.cfi_offset %rbp, -16
	movq	%rsp, %rbp
	.cfi_def_cfa_register %rbp
	subq	$48, %rsp
	movq	%rdi, -48(%rbp)
	movq	%rdi, -24(%rbp)
Ltmp552:
	.loc	23 621 25 prologue_end
	movq	%rdi, %rsi
	addq	$8, %rsi
	.loc	23 621 12 is_stmt 0
	callq	__ZN4core3cmp5impls55_$LT$impl$u20$core..cmp..PartialOrd$u20$for$u20$u64$GT$2lt17hd12df8c7198e0cd0E
	testb	$1, %al
	jne	LBB82_2
	.loc	23 626 13 is_stmt 1
	movq	$0, -40(%rbp)
	.loc	23 621 9
	jmp	LBB82_3
LBB82_2:
	.loc	23 0 9 is_stmt 0
	movq	-48(%rbp), %rax
	movq	%rax, -8(%rbp)
Ltmp553:
	.file	50 "/rustc/2c8cc343237b8f7d5a3c3703e3a87f2eb2c54a74/library/core/src" "clone.rs"
	.loc	50 189 25 is_stmt 1
	movq	(%rax), %rdi
Ltmp554:
	.loc	23 623 30
	movl	$1, %esi
	callq	__ZN47_$LT$u64$u20$as$u20$core..iter..range..Step$GT$17forward_unchecked17hc5ccc99a68dc3011E
	movq	-48(%rbp), %rdi
	movq	%rax, %rsi
	movq	%rsi, -16(%rbp)
Ltmp555:
	.loc	23 624 18
	callq	__ZN4core3mem7replace17h694062d671371e3bE
	.loc	23 624 13 is_stmt 0
	movq	%rax, -32(%rbp)
	movq	$1, -40(%rbp)
Ltmp556:
LBB82_3:
	.loc	23 628 6 is_stmt 1
	movq	-40(%rbp), %rax
	movq	-32(%rbp), %rdx
	addq	$48, %rsp
	popq	%rbp
	retq
Ltmp557:
Lfunc_end82:
	.cfi_endproc

	.p2align	4, 0x90
__ZN91_$LT$core..slice..iter..Iter$LT$T$GT$$u20$as$u20$core..iter..traits..iterator..Iterator$GT$4next17h601828f46a80734eE:
Lfunc_begin83:
	.file	51 "/rustc/2c8cc343237b8f7d5a3c3703e3a87f2eb2c54a74/library/core/src/slice/iter" "macros.rs"
	.loc	51 124 0
	.cfi_startproc
	pushq	%rbp
	.cfi_def_cfa_offset 16
	.cfi_offset %rbp, -16
	movq	%rsp, %rbp
	.cfi_def_cfa_register %rbp
	subq	$304, %rsp
	movq	%rdi, -304(%rbp)
	movq	%rdi, -240(%rbp)
Ltmp558:
	.loc	51 132 29 prologue_end
	movq	8(%rdi), %rax
	movq	%rax, -224(%rbp)
Ltmp559:
	.loc	11 326 9
	movq	%rax, -216(%rbp)
Ltmp560:
	.loc	46 52 36
	movq	%rax, -280(%rbp)
	.loc	46 52 18 is_stmt 0
	movq	-280(%rbp), %rax
	movq	%rax, -208(%rbp)
Ltmp561:
	.loc	46 38 13 is_stmt 1
	movq	%rax, -200(%rbp)
Ltmp562:
	.loc	46 215 33
	movq	%rax, -192(%rbp)
	.loc	46 215 18 is_stmt 0
	movq	%rax, -184(%rbp)
Ltmp563:
	.loc	51 133 24 is_stmt 1
	movb	$1, %al
	testb	$1, %al
	jne	LBB83_2
LBB83_1:
	.loc	51 0 24 is_stmt 0
	movq	-304(%rbp), %rcx
	.loc	51 136 24 is_stmt 1
	movq	8(%rcx), %rax
	movq	%rax, -136(%rbp)
	cmpq	(%rcx), %rax
	je	LBB83_4
	jmp	LBB83_3
LBB83_2:
	.loc	51 0 24 is_stmt 0
	movq	-304(%rbp), %rax
	.loc	51 134 33 is_stmt 1
	movq	(%rax), %rax
	movq	%rax, -176(%rbp)
Ltmp564:
	.loc	38 53 36
	movq	%rax, -272(%rbp)
	.loc	38 53 18 is_stmt 0
	movq	-272(%rbp), %rax
	movq	%rax, -168(%rbp)
Ltmp565:
	.loc	38 39 13 is_stmt 1
	movq	%rax, -160(%rbp)
Ltmp566:
	.loc	38 209 33
	movq	%rax, -152(%rbp)
	.loc	38 209 18 is_stmt 0
	movq	%rax, -144(%rbp)
Ltmp567:
	.loc	51 133 21 is_stmt 1
	jmp	LBB83_1
LBB83_3:
	.loc	51 0 21 is_stmt 0
	movq	-304(%rbp), %rax
	.loc	51 139 30 is_stmt 1
	movq	%rax, -128(%rbp)
Ltmp568:
	.loc	51 76 20
	xorl	%eax, %eax
	testb	$1, %al
	jne	LBB83_6
	jmp	LBB83_7
Ltmp569:
LBB83_4:
	.loc	51 137 25
	movq	$0, -296(%rbp)
LBB83_5:
	.loc	51 142 14
	movq	-296(%rbp), %rax
	addq	$304, %rsp
	popq	%rbp
	retq
LBB83_6:
	.loc	51 0 14 is_stmt 0
	movq	-304(%rbp), %rax
Ltmp570:
	.loc	51 57 29 is_stmt 1
	movq	(%rax), %rcx
	movq	%rcx, -64(%rbp)
Ltmp571:
	.loc	38 1198 9
	movq	%rcx, -56(%rbp)
Ltmp572:
	.loc	38 61 9
	movq	%rcx, -48(%rbp)
Ltmp573:
	.loc	38 1180 9
	movq	%rcx, -40(%rbp)
Ltmp574:
	.loc	38 555 18
	addq	$-1, %rcx
	movq	%rcx, -32(%rbp)
	movq	-32(%rbp), %rcx
	movq	%rcx, -24(%rbp)
Ltmp575:
	.loc	38 100 29
	movq	%rcx, -16(%rbp)
Ltmp576:
	.loc	39 118 36
	movq	%rcx, -248(%rbp)
	.loc	39 118 14 is_stmt 0
	movq	-248(%rbp), %rcx
	movq	%rcx, -256(%rbp)
	movq	-256(%rbp), %rcx
Ltmp577:
	.loc	51 57 17 is_stmt 1
	movq	%rcx, (%rax)
	.loc	51 78 21
	movq	8(%rax), %rax
	movq	%rax, -8(%rbp)
	movq	%rax, -288(%rbp)
	.loc	51 76 17
	jmp	LBB83_8
LBB83_7:
	.loc	51 0 17 is_stmt 0
	movq	-304(%rbp), %rcx
	.loc	51 80 31 is_stmt 1
	movq	8(%rcx), %rax
	movq	%rax, -120(%rbp)
Ltmp578:
	.loc	11 326 9
	movq	%rax, -112(%rbp)
Ltmp579:
	.loc	51 83 64
	movq	8(%rcx), %rdx
	movq	%rdx, -104(%rbp)
Ltmp580:
	.loc	11 326 9
	movq	%rdx, -96(%rbp)
Ltmp581:
	.loc	46 1034 18
	movq	%rdx, -88(%rbp)
Ltmp582:
	.loc	46 487 18
	addq	$4, %rdx
	movq	%rdx, -80(%rbp)
	movq	-80(%rbp), %rdx
	movq	%rdx, -72(%rbp)
Ltmp583:
	.loc	11 201 13
	movq	%rdx, -264(%rbp)
Ltmp584:
	.loc	51 83 21
	movq	-264(%rbp), %rdx
	movq	%rdx, 8(%rcx)
	.loc	51 84 21
	movq	%rax, -288(%rbp)
Ltmp585:
LBB83_8:
	.loc	51 139 30
	movq	-288(%rbp), %rax
	.loc	51 139 25 is_stmt 0
	movq	%rax, -296(%rbp)
	.loc	51 136 21 is_stmt 1
	jmp	LBB83_5
Ltmp586:
Lfunc_end83:
	.cfi_endproc

	.p2align	4, 0x90
__ZN18build_script_build4main17h9695a3d766d10fe2E:
Lfunc_begin84:
	.loc	9 7 0
	.cfi_startproc
	.cfi_personality 155, _rust_eh_personality
	.cfi_lsda 16, Lexception12
	pushq	%rbp
	.cfi_def_cfa_offset 16
	.cfi_offset %rbp, -16
	movq	%rsp, %rbp
	.cfi_def_cfa_register %rbp
	subq	$752, %rsp
Ltmp670:
	.loc	9 8 9 prologue_end
	movb	$0, -25(%rbp)
	.loc	9 8 25 is_stmt 0
	leaq	l___unnamed_18(%rip), %rsi
	leaq	-560(%rbp), %rdi
	movq	%rdi, -584(%rbp)
	movl	$30, %edx
	callq	__ZN3std3env3var17h1820b2dd0dabfed8E
	movq	-584(%rbp), %rdi
Ltmp587:
Ltmp671:
	.loc	9 9 21 is_stmt 1
	callq	__ZN4core6result19Result$LT$T$C$E$GT$6as_ref17hde37ceed3d12ac4bE
Ltmp588:
	movq	%rdx, -576(%rbp)
	movq	%rax, -568(%rbp)
	jmp	LBB84_3
Ltmp672:
LBB84_1:
Ltmp667:
	.loc	9 0 21 is_stmt 0
	leaq	-560(%rbp), %rdi
	.loc	9 37 1 is_stmt 1
	callq	__ZN4core3ptr91drop_in_place$LT$core..result..Result$LT$alloc..string..String$C$std..env..VarError$GT$$GT$17h12b8bea9e26e040cE
Ltmp668:
	jmp	LBB84_66
LBB84_2:
Ltmp666:
	.loc	9 0 1 is_stmt 0
	movq	%rax, %rcx
	movl	%edx, %eax
	movq	%rcx, -24(%rbp)
	movl	%eax, -16(%rbp)
	jmp	LBB84_1
LBB84_3:
Ltmp589:
	movq	-576(%rbp), %rdx
	movq	-568(%rbp), %rsi
	leaq	-528(%rbp), %rdi
Ltmp673:
	.loc	9 9 21 is_stmt 1
	callq	__ZN4core6result19Result$LT$T$C$E$GT$3map17h4ab04b0905265f7dE
Ltmp590:
	jmp	LBB84_4
LBB84_4:
Ltmp591:
	leaq	l___unnamed_19(%rip), %rsi
	leaq	-528(%rbp), %rdi
	callq	__ZN74_$LT$core..result..Result$LT$T$C$E$GT$$u20$as$u20$core..cmp..PartialEq$GT$2eq17h139856d3d6064d6eE
Ltmp592:
	movb	%al, -585(%rbp)
	jmp	LBB84_5
LBB84_5:
	.loc	9 0 21 is_stmt 0
	movb	-585(%rbp), %al
	.loc	9 9 21
	movb	%al, %cl
	andb	$1, %cl
	movb	%cl, -1(%rbp)
Ltmp674:
	.loc	9 10 8 is_stmt 1
	testb	$1, %al
	jne	LBB84_7
LBB84_6:
Ltmp595:
	.loc	9 0 8 is_stmt 0
	leaq	-512(%rbp), %rdi
	.loc	9 13 14 is_stmt 1
	callq	__ZN7autocfg3new17h826195da96c0618eE
Ltmp596:
	jmp	LBB84_9
LBB84_7:
Ltmp593:
	.loc	9 11 9
	leaq	l___unnamed_20(%rip), %rdi
	movl	$9, %esi
	callq	__ZN7autocfg4emit17h3f17b9b44dfb7d78E
Ltmp594:
	jmp	LBB84_8
LBB84_8:
	jmp	LBB84_6
LBB84_9:
Ltmp597:
Ltmp675:
	.loc	9 14 18
	leaq	l___unnamed_21(%rip), %rsi
	leaq	-512(%rbp), %rdi
	movl	$3, %edx
	callq	__ZN7autocfg7AutoCfg19probe_sysroot_crate17h6402458666fb0dc4E
Ltmp598:
	movb	%al, -586(%rbp)
	jmp	LBB84_12
Ltmp676:
LBB84_10:
Ltmp662:
	.loc	9 0 18 is_stmt 0
	leaq	-512(%rbp), %rdi
	.loc	9 37 1 is_stmt 1
	callq	__ZN4core3ptr37drop_in_place$LT$autocfg..AutoCfg$GT$17h4840d40d68673402E
Ltmp663:
	jmp	LBB84_1
LBB84_11:
Ltmp661:
	.loc	9 0 1 is_stmt 0
	movq	%rax, %rcx
	movl	%edx, %eax
	movq	%rcx, -24(%rbp)
	movl	%eax, -16(%rbp)
	jmp	LBB84_10
LBB84_12:
	movb	-586(%rbp), %al
Ltmp677:
	.loc	9 14 18 is_stmt 1
	testb	$1, %al
	jne	LBB84_14
	jmp	LBB84_13
LBB84_13:
	.loc	9 17 9
	leaq	L___unnamed_22(%rip), %rax
	movq	%rax, -384(%rbp)
	movq	$4, -376(%rbp)
	.loc	9 14 15
	jmp	LBB84_15
LBB84_14:
	.loc	9 15 9
	leaq	l___unnamed_21(%rip), %rax
	movq	%rax, -384(%rbp)
	movq	$3, -376(%rbp)
LBB84_15:
Ltmp599:
	.loc	9 0 9 is_stmt 0
	leaq	-384(%rbp), %rdi
Ltmp678:
	.loc	9 19 23 is_stmt 1
	callq	__ZN4core3fmt10ArgumentV111new_display17h7c4f65ce98ef81e8E
Ltmp600:
	movq	%rdx, -608(%rbp)
	movq	%rax, -600(%rbp)
	jmp	LBB84_16
LBB84_16:
	.loc	9 0 23 is_stmt 0
	movq	-608(%rbp), %rax
	movq	-600(%rbp), %rcx
	.loc	9 19 23
	movq	%rcx, -272(%rbp)
	movq	%rax, -264(%rbp)
Ltmp601:
	leaq	l___unnamed_23(%rip), %rsi
	leaq	-320(%rbp), %rdi
	movl	$2, %edx
	leaq	-272(%rbp), %rcx
	movl	$1, %r8d
	callq	__ZN4core3fmt9Arguments6new_v117hb07f32a6d50ff579E
Ltmp602:
	jmp	LBB84_17
LBB84_17:
Ltmp603:
	.loc	9 0 23
	leaq	-344(%rbp), %rdi
	leaq	-320(%rbp), %rsi
	.loc	9 19 23
	callq	__ZN5alloc3fmt6format17h77851606fdfd57cbE
Ltmp604:
	jmp	LBB84_18
LBB84_18:
Ltmp679:
	.loc	9 19 23
	movq	-328(%rbp), %rax
	movq	%rax, -352(%rbp)
	movq	-344(%rbp), %rax
	movq	-336(%rbp), %rcx
	movq	%rcx, -360(%rbp)
	movq	%rax, -368(%rbp)
Ltmp605:
	leaq	-368(%rbp), %rdi
Ltmp680:
	.loc	9 19 22
	callq	__ZN65_$LT$alloc..string..String$u20$as$u20$core..ops..deref..Deref$GT$5deref17h0788697115fd300eE
Ltmp606:
	movq	%rdx, -624(%rbp)
	movq	%rax, -616(%rbp)
	jmp	LBB84_21
LBB84_19:
Ltmp610:
	.loc	9 0 22
	leaq	-368(%rbp), %rdi
	.loc	9 19 59
	callq	__ZN4core3ptr42drop_in_place$LT$alloc..string..String$GT$17h3cc4b04911fd7e35E
Ltmp611:
	jmp	LBB84_10
LBB84_20:
Ltmp609:
	.loc	9 0 59
	movq	%rax, %rcx
	movl	%edx, %eax
	movq	%rcx, -24(%rbp)
	movl	%eax, -16(%rbp)
	jmp	LBB84_19
LBB84_21:
Ltmp607:
	movq	-624(%rbp), %rdx
	movq	-616(%rbp), %rsi
	leaq	-512(%rbp), %rdi
	.loc	9 19 8
	callq	__ZN7autocfg7AutoCfg10probe_path17hd5a60fd079624a44E
Ltmp608:
	movb	%al, -625(%rbp)
	jmp	LBB84_22
LBB84_22:
Ltmp612:
	.loc	9 0 8
	leaq	-368(%rbp), %rdi
	.loc	9 19 59
	callq	__ZN4core3ptr42drop_in_place$LT$alloc..string..String$GT$17h3cc4b04911fd7e35E
Ltmp613:
	jmp	LBB84_24
Ltmp681:
LBB84_23:
Ltmp669:
	.loc	9 7 1 is_stmt 1
	callq	__ZN4core9panicking19panic_cannot_unwind17h1fbca7e1d7f56ae1E
LBB84_24:
	.loc	9 0 1 is_stmt 0
	movb	-625(%rbp), %al
Ltmp682:
	.loc	9 19 8 is_stmt 1
	testb	$1, %al
	jne	LBB84_26
	jmp	LBB84_25
LBB84_25:
Ltmp616:
Ltmp683:
	.loc	9 23 30
	leaq	l___unnamed_24(%rip), %rsi
	leaq	-256(%rbp), %rdi
	movl	$21, %edx
	callq	__ZN3std3env3var17h1820b2dd0dabfed8E
Ltmp617:
	jmp	LBB84_28
Ltmp684:
LBB84_26:
Ltmp614:
	.loc	9 20 9
	leaq	l___unnamed_25(%rip), %rdi
	movl	$12, %esi
	callq	__ZN7autocfg4emit17h3f17b9b44dfb7d78E
Ltmp615:
	jmp	LBB84_27
LBB84_27:
	jmp	LBB84_25
LBB84_28:
Ltmp685:
	.loc	9 23 12
	movb	$1, -25(%rbp)
	cmpq	$0, -256(%rbp)
	jne	LBB84_30
	.loc	9 23 15 is_stmt 0
	movb	$0, -25(%rbp)
	movq	-232(%rbp), %rax
	movq	%rax, -208(%rbp)
	movq	-248(%rbp), %rax
	movq	-240(%rbp), %rcx
	movq	%rcx, -216(%rbp)
	movq	%rax, -224(%rbp)
Ltmp618:
	.loc	9 24 12 is_stmt 1
	leaq	l___unnamed_26(%rip), %rsi
	leaq	-224(%rbp), %rdi
	callq	__ZN77_$LT$alloc..string..String$u20$as$u20$core..cmp..PartialEq$LT$$RF$str$GT$$GT$2eq17hdec9832a74681f27E
Ltmp619:
	movb	%al, -626(%rbp)
	jmp	LBB84_33
Ltmp686:
LBB84_30:
	.loc	9 32 5
	cmpq	$0, -256(%rbp)
	je	LBB84_58
	jmp	LBB84_59
LBB84_31:
Ltmp644:
	.loc	9 0 5 is_stmt 0
	leaq	-224(%rbp), %rdi
	.loc	9 32 5
	callq	__ZN4core3ptr42drop_in_place$LT$alloc..string..String$GT$17h3cc4b04911fd7e35E
Ltmp645:
	jmp	LBB84_55
LBB84_32:
Ltmp643:
	.loc	9 0 5
	movq	%rax, %rcx
	movl	%edx, %eax
	movq	%rcx, -24(%rbp)
	movl	%eax, -16(%rbp)
	jmp	LBB84_31
LBB84_33:
	movb	-626(%rbp), %al
Ltmp687:
	.loc	9 24 12 is_stmt 1
	testb	$1, %al
	jne	LBB84_35
	jmp	LBB84_34
LBB84_34:
Ltmp620:
	.loc	9 24 39 is_stmt 0
	leaq	l___unnamed_27(%rip), %rsi
	leaq	-224(%rbp), %rdi
	callq	__ZN77_$LT$alloc..string..String$u20$as$u20$core..cmp..PartialEq$LT$$RF$str$GT$$GT$2eq17hdec9832a74681f27E
Ltmp621:
	movb	%al, -627(%rbp)
	jmp	LBB84_37
LBB84_35:
	.loc	9 24 12
	movb	$1, -193(%rbp)
LBB84_36:
	testb	$1, -193(%rbp)
	jne	LBB84_39
	jmp	LBB84_38
LBB84_37:
	.loc	9 0 12
	movb	-627(%rbp), %al
	.loc	9 24 12
	andb	$1, %al
	movb	%al, -193(%rbp)
	jmp	LBB84_36
Ltmp688:
LBB84_38:
Ltmp646:
	.loc	9 0 12
	leaq	-224(%rbp), %rdi
	.loc	9 32 5 is_stmt 1
	callq	__ZN4core3ptr42drop_in_place$LT$alloc..string..String$GT$17h3cc4b04911fd7e35E
Ltmp647:
	jmp	LBB84_30
LBB84_39:
	.loc	9 0 5 is_stmt 0
	movb	-585(%rbp), %al
Ltmp689:
	.loc	9 25 28 is_stmt 1
	testb	$1, %al
	jne	LBB84_41
	jmp	LBB84_40
LBB84_40:
	.loc	9 25 55 is_stmt 0
	leaq	l___unnamed_28(%rip), %rax
	movq	%rax, -192(%rbp)
	movq	$3, -184(%rbp)
	.loc	9 25 25
	jmp	LBB84_42
LBB84_41:
	.loc	9 25 40
	leaq	l___unnamed_29(%rip), %rax
	movq	%rax, -192(%rbp)
	movq	$3, -184(%rbp)
LBB84_42:
Ltmp622:
	.loc	9 0 40
	leaq	-384(%rbp), %rdi
Ltmp690:
	.loc	9 27 28 is_stmt 1
	callq	__ZN4core3fmt10ArgumentV111new_display17h7c4f65ce98ef81e8E
Ltmp623:
	movq	%rdx, -648(%rbp)
	movq	%rax, -640(%rbp)
	jmp	LBB84_43
LBB84_43:
	.loc	9 0 28 is_stmt 0
	movq	-648(%rbp), %rax
	movq	-640(%rbp), %rcx
	movq	%rcx, -680(%rbp)
	movq	%rax, -672(%rbp)
Ltmp624:
	leaq	-224(%rbp), %rdi
	.loc	9 27 28
	callq	__ZN4core3fmt10ArgumentV111new_display17h47594c03ac0e80a5E
Ltmp625:
	movq	%rdx, -664(%rbp)
	movq	%rax, -656(%rbp)
	jmp	LBB84_44
LBB84_44:
	.loc	9 0 28
	movq	-664(%rbp), %rax
	movq	-656(%rbp), %rcx
	movq	%rcx, -712(%rbp)
	movq	%rax, -704(%rbp)
Ltmp626:
	leaq	-192(%rbp), %rdi
	.loc	9 27 28
	callq	__ZN4core3fmt10ArgumentV111new_display17h7c4f65ce98ef81e8E
Ltmp627:
	movq	%rdx, -696(%rbp)
	movq	%rax, -688(%rbp)
	jmp	LBB84_45
LBB84_45:
	.loc	9 0 28
	movq	-696(%rbp), %rax
	movq	-688(%rbp), %rcx
	movq	-704(%rbp), %rdx
	movq	-712(%rbp), %rsi
	movq	-672(%rbp), %rdi
	movq	-680(%rbp), %r8
	.loc	9 27 28
	movq	%r8, -80(%rbp)
	movq	%rdi, -72(%rbp)
	movq	%rsi, -64(%rbp)
	movq	%rdx, -56(%rbp)
	movq	%rcx, -48(%rbp)
	movq	%rax, -40(%rbp)
Ltmp628:
	leaq	l___unnamed_30(%rip), %rsi
	leaq	-128(%rbp), %rdi
	leaq	-80(%rbp), %rcx
	movl	$3, %r8d
	movq	%r8, %rdx
	callq	__ZN4core3fmt9Arguments6new_v117hb07f32a6d50ff579E
Ltmp629:
	jmp	LBB84_46
LBB84_46:
Ltmp630:
	.loc	9 0 28
	leaq	-152(%rbp), %rdi
	leaq	-128(%rbp), %rsi
	.loc	9 27 28
	callq	__ZN5alloc3fmt6format17h77851606fdfd57cbE
Ltmp631:
	jmp	LBB84_47
LBB84_47:
Ltmp691:
	.loc	9 27 28
	movq	-136(%rbp), %rax
	movq	%rax, -160(%rbp)
	movq	-152(%rbp), %rax
	movq	-144(%rbp), %rcx
	movq	%rcx, -168(%rbp)
	movq	%rax, -176(%rbp)
Ltmp632:
	leaq	-176(%rbp), %rdi
Ltmp692:
	.loc	9 28 30 is_stmt 1
	callq	__ZN65_$LT$alloc..string..String$u20$as$u20$core..ops..deref..Deref$GT$5deref17h0788697115fd300eE
Ltmp633:
	movq	%rdx, -728(%rbp)
	movq	%rax, -720(%rbp)
	jmp	LBB84_50
Ltmp693:
LBB84_48:
Ltmp639:
	.loc	9 0 30 is_stmt 0
	leaq	-176(%rbp), %rdi
	.loc	9 31 9 is_stmt 1
	callq	__ZN4core3ptr42drop_in_place$LT$alloc..string..String$GT$17h3cc4b04911fd7e35E
Ltmp640:
	jmp	LBB84_31
LBB84_49:
Ltmp638:
	.loc	9 0 9 is_stmt 0
	movq	%rax, %rcx
	movl	%edx, %eax
	movq	%rcx, -24(%rbp)
	movl	%eax, -16(%rbp)
	jmp	LBB84_48
LBB84_50:
Ltmp634:
	movq	-728(%rbp), %rdx
	movq	-720(%rbp), %rsi
	leaq	-512(%rbp), %rdi
Ltmp694:
	.loc	9 28 16 is_stmt 1
	callq	__ZN7autocfg7AutoCfg10probe_path17hd5a60fd079624a44E
Ltmp635:
	movb	%al, -729(%rbp)
	jmp	LBB84_51
LBB84_51:
	.loc	9 0 16 is_stmt 0
	movb	-729(%rbp), %al
	.loc	9 28 16
	testb	$1, %al
	jne	LBB84_53
	jmp	LBB84_52
Ltmp695:
LBB84_52:
Ltmp641:
	.loc	9 0 16
	leaq	-176(%rbp), %rdi
	.loc	9 31 9 is_stmt 1
	callq	__ZN4core3ptr42drop_in_place$LT$alloc..string..String$GT$17h3cc4b04911fd7e35E
Ltmp642:
	jmp	LBB84_38
LBB84_53:
Ltmp636:
Ltmp696:
	.loc	9 29 17
	leaq	l___unnamed_31(%rip), %rdi
	movl	$12, %esi
	callq	__ZN7autocfg4emit17h3f17b9b44dfb7d78E
Ltmp637:
	jmp	LBB84_54
LBB84_54:
	jmp	LBB84_52
Ltmp697:
LBB84_55:
	.loc	9 32 5
	cmpq	$0, -256(%rbp)
	je	LBB84_10
	jmp	LBB84_57
LBB84_56:
Ltmp648:
	.loc	9 0 5 is_stmt 0
	movq	%rax, %rcx
	movl	%edx, %eax
	movq	%rcx, -24(%rbp)
	movl	%eax, -16(%rbp)
	jmp	LBB84_55
LBB84_57:
Ltmp649:
	leaq	-256(%rbp), %rdi
	.loc	9 32 5
	callq	__ZN4core3ptr91drop_in_place$LT$core..result..Result$LT$alloc..string..String$C$std..env..VarError$GT$$GT$17h12b8bea9e26e040cE
Ltmp650:
	jmp	LBB84_10
LBB84_58:
	testb	$1, -25(%rbp)
	jne	LBB84_61
	jmp	LBB84_60
LBB84_59:
Ltmp651:
	.loc	9 0 5
	leaq	-256(%rbp), %rdi
	.loc	9 32 5
	callq	__ZN4core3ptr91drop_in_place$LT$core..result..Result$LT$alloc..string..String$C$std..env..VarError$GT$$GT$17h12b8bea9e26e040cE
Ltmp652:
	jmp	LBB84_60
LBB84_60:
	movb	$0, -25(%rbp)
Ltmp655:
	.loc	9 34 5 is_stmt 1
	leaq	L___unnamed_32(%rip), %rdi
	movl	$8, %esi
	callq	__ZN7autocfg10rerun_path17h0aab45068290d662E
Ltmp656:
	jmp	LBB84_62
LBB84_61:
	.loc	9 32 5
	leaq	-248(%rbp), %rdi
Ltmp653:
	callq	__ZN4core3ptr42drop_in_place$LT$alloc..string..String$GT$17h3cc4b04911fd7e35E
Ltmp654:
	jmp	LBB84_60
LBB84_62:
Ltmp657:
	.loc	9 36 5
	callq	__ZN18build_script_build17write_radix_bases17h17a3dca65d7e02fbE
Ltmp658:
	movq	%rdx, -752(%rbp)
	movq	%rax, -744(%rbp)
	jmp	LBB84_63
LBB84_63:
Ltmp659:
	.loc	9 0 5 is_stmt 0
	movq	-752(%rbp), %rsi
	movq	-744(%rbp), %rdi
	.loc	9 36 5
	leaq	l___unnamed_33(%rip), %rdx
	callq	__ZN4core6result19Result$LT$T$C$E$GT$6unwrap17h7a22a2da751b1cc1E
Ltmp660:
	jmp	LBB84_64
Ltmp698:
LBB84_64:
Ltmp664:
	.loc	9 0 5
	leaq	-512(%rbp), %rdi
	.loc	9 37 1 is_stmt 1
	callq	__ZN4core3ptr37drop_in_place$LT$autocfg..AutoCfg$GT$17h4840d40d68673402E
Ltmp665:
	jmp	LBB84_65
Ltmp699:
LBB84_65:
	.loc	9 37 1 is_stmt 0
	leaq	-560(%rbp), %rdi
	callq	__ZN4core3ptr91drop_in_place$LT$core..result..Result$LT$alloc..string..String$C$std..env..VarError$GT$$GT$17h12b8bea9e26e040cE
	.loc	9 37 2
	addq	$752, %rsp
	popq	%rbp
	retq
LBB84_66:
	.loc	9 7 1 is_stmt 1
	movq	-24(%rbp), %rdi
	callq	__Unwind_Resume
Ltmp700:
Lfunc_end84:
	.cfi_endproc
	.section	__TEXT,__gcc_except_tab
	.p2align	2
GCC_except_table84:
Lexception12:
	.byte	255
	.byte	255
	.byte	1
	.uleb128 Lcst_end12-Lcst_begin12
Lcst_begin12:
	.uleb128 Lfunc_begin84-Lfunc_begin84
	.uleb128 Ltmp587-Lfunc_begin84
	.byte	0
	.byte	0
	.uleb128 Ltmp587-Lfunc_begin84
	.uleb128 Ltmp588-Ltmp587
	.uleb128 Ltmp666-Lfunc_begin84
	.byte	0
	.uleb128 Ltmp667-Lfunc_begin84
	.uleb128 Ltmp668-Ltmp667
	.uleb128 Ltmp669-Lfunc_begin84
	.byte	0
	.uleb128 Ltmp589-Lfunc_begin84
	.uleb128 Ltmp594-Ltmp589
	.uleb128 Ltmp666-Lfunc_begin84
	.byte	0
	.uleb128 Ltmp597-Lfunc_begin84
	.uleb128 Ltmp598-Ltmp597
	.uleb128 Ltmp661-Lfunc_begin84
	.byte	0
	.uleb128 Ltmp662-Lfunc_begin84
	.uleb128 Ltmp663-Ltmp662
	.uleb128 Ltmp669-Lfunc_begin84
	.byte	0
	.uleb128 Ltmp599-Lfunc_begin84
	.uleb128 Ltmp604-Ltmp599
	.uleb128 Ltmp661-Lfunc_begin84
	.byte	0
	.uleb128 Ltmp605-Lfunc_begin84
	.uleb128 Ltmp606-Ltmp605
	.uleb128 Ltmp609-Lfunc_begin84
	.byte	0
	.uleb128 Ltmp610-Lfunc_begin84
	.uleb128 Ltmp611-Ltmp610
	.uleb128 Ltmp669-Lfunc_begin84
	.byte	0
	.uleb128 Ltmp607-Lfunc_begin84
	.uleb128 Ltmp608-Ltmp607
	.uleb128 Ltmp609-Lfunc_begin84
	.byte	0
	.uleb128 Ltmp612-Lfunc_begin84
	.uleb128 Ltmp615-Ltmp612
	.uleb128 Ltmp661-Lfunc_begin84
	.byte	0
	.uleb128 Ltmp618-Lfunc_begin84
	.uleb128 Ltmp619-Ltmp618
	.uleb128 Ltmp643-Lfunc_begin84
	.byte	0
	.uleb128 Ltmp644-Lfunc_begin84
	.uleb128 Ltmp645-Ltmp644
	.uleb128 Ltmp669-Lfunc_begin84
	.byte	0
	.uleb128 Ltmp620-Lfunc_begin84
	.uleb128 Ltmp621-Ltmp620
	.uleb128 Ltmp643-Lfunc_begin84
	.byte	0
	.uleb128 Ltmp646-Lfunc_begin84
	.uleb128 Ltmp647-Ltmp646
	.uleb128 Ltmp648-Lfunc_begin84
	.byte	0
	.uleb128 Ltmp622-Lfunc_begin84
	.uleb128 Ltmp631-Ltmp622
	.uleb128 Ltmp643-Lfunc_begin84
	.byte	0
	.uleb128 Ltmp632-Lfunc_begin84
	.uleb128 Ltmp633-Ltmp632
	.uleb128 Ltmp638-Lfunc_begin84
	.byte	0
	.uleb128 Ltmp639-Lfunc_begin84
	.uleb128 Ltmp640-Ltmp639
	.uleb128 Ltmp669-Lfunc_begin84
	.byte	0
	.uleb128 Ltmp634-Lfunc_begin84
	.uleb128 Ltmp635-Ltmp634
	.uleb128 Ltmp638-Lfunc_begin84
	.byte	0
	.uleb128 Ltmp641-Lfunc_begin84
	.uleb128 Ltmp642-Ltmp641
	.uleb128 Ltmp643-Lfunc_begin84
	.byte	0
	.uleb128 Ltmp636-Lfunc_begin84
	.uleb128 Ltmp637-Ltmp636
	.uleb128 Ltmp638-Lfunc_begin84
	.byte	0
	.uleb128 Ltmp649-Lfunc_begin84
	.uleb128 Ltmp650-Ltmp649
	.uleb128 Ltmp669-Lfunc_begin84
	.byte	0
	.uleb128 Ltmp651-Lfunc_begin84
	.uleb128 Ltmp660-Ltmp651
	.uleb128 Ltmp661-Lfunc_begin84
	.byte	0
	.uleb128 Ltmp664-Lfunc_begin84
	.uleb128 Ltmp665-Ltmp664
	.uleb128 Ltmp666-Lfunc_begin84
	.byte	0
	.uleb128 Ltmp665-Lfunc_begin84
	.uleb128 Lfunc_end84-Ltmp665
	.byte	0
	.byte	0
Lcst_end12:
	.p2align	2

	.section	__TEXT,__text,regular,pure_instructions
	.p2align	4, 0x90
__ZN18build_script_build17write_radix_bases17h17a3dca65d7e02fbE:
Lfunc_begin85:
	.loc	9 48 0
	.cfi_startproc
	.cfi_personality 155, _rust_eh_personality
	.cfi_lsda 16, Lexception13
	pushq	%rbp
	.cfi_def_cfa_offset 16
	.cfi_offset %rbp, -16
	movq	%rsp, %rbp
	.cfi_def_cfa_register %rbp
	subq	$1200, %rsp
Ltmp785:
	.loc	9 49 19 prologue_end
	leaq	-744(%rbp), %rdi
	leaq	l___unnamed_34(%rip), %rsi
	movl	$7, %edx
	callq	__ZN3std3env3var17h1820b2dd0dabfed8E
	leaq	-776(%rbp), %rdi
	leaq	-744(%rbp), %rsi
	callq	__ZN79_$LT$core..result..Result$LT$T$C$E$GT$$u20$as$u20$core..ops..try_trait..Try$GT$6branch17ha00afcc085d6f6aaE
	cmpq	$0, -776(%rbp)
	jne	LBB85_2
	movq	-752(%rbp), %rax
	movq	%rax, -648(%rbp)
	movq	-768(%rbp), %rax
	movq	-760(%rbp), %rcx
	movq	%rcx, -656(%rbp)
	movq	%rax, -664(%rbp)
Ltmp786:
	.loc	9 49 19 is_stmt 0
	movq	-648(%rbp), %rax
	movq	%rax, -784(%rbp)
	movq	-664(%rbp), %rax
	movq	-656(%rbp), %rcx
	movq	%rcx, -792(%rbp)
	movq	%rax, -800(%rbp)
Ltmp701:
	leaq	-800(%rbp), %rdi
Ltmp787:
	.loc	9 50 21 is_stmt 1
	callq	__ZN3std4path4Path3new17h9030b00e077da7a3E
Ltmp702:
	movq	%rdx, -832(%rbp)
	movq	%rax, -824(%rbp)
	jmp	LBB85_6
Ltmp788:
LBB85_2:
	.loc	9 49 38
	movq	-752(%rbp), %rax
	movq	%rax, -696(%rbp)
	movq	-768(%rbp), %rax
	movq	-760(%rbp), %rcx
	movq	%rcx, -704(%rbp)
	movq	%rax, -712(%rbp)
Ltmp789:
	.loc	9 49 38 is_stmt 0
	movq	-696(%rbp), %rax
	movq	%rax, -672(%rbp)
	movq	-712(%rbp), %rax
	movq	-704(%rbp), %rcx
	movq	%rcx, -680(%rbp)
	movq	%rax, -688(%rbp)
	.loc	9 49 19
	leaq	l___unnamed_35(%rip), %rsi
	leaq	-688(%rbp), %rdi
	callq	__ZN153_$LT$core..result..Result$LT$T$C$F$GT$$u20$as$u20$core..ops..try_trait..FromResidual$LT$core..result..Result$LT$core..convert..Infallible$C$E$GT$$GT$$GT$13from_residual17h6bd6c0596cd8c4b2E
	movq	%rdx, -808(%rbp)
	movq	%rax, -816(%rbp)
Ltmp790:
LBB85_3:
	.loc	9 88 2 is_stmt 1
	movq	-816(%rbp), %rax
	movq	-808(%rbp), %rdx
	addq	$1200, %rsp
	popq	%rbp
	retq
LBB85_4:
Ltmp782:
	.loc	9 0 2 is_stmt 0
	leaq	-800(%rbp), %rdi
	.loc	9 88 1
	callq	__ZN4core3ptr42drop_in_place$LT$alloc..string..String$GT$17h3cc4b04911fd7e35E
Ltmp783:
	jmp	LBB85_82
LBB85_5:
Ltmp781:
	.loc	9 0 1
	movq	%rax, %rcx
	movl	%edx, %eax
	movq	%rcx, -96(%rbp)
	movl	%eax, -88(%rbp)
	jmp	LBB85_4
LBB85_6:
Ltmp703:
	movq	-832(%rbp), %rdx
	movq	-824(%rbp), %rsi
Ltmp791:
	.loc	9 50 21 is_stmt 1
	leaq	l___unnamed_36(%rip), %rcx
	leaq	-640(%rbp), %rdi
	movl	$14, %r8d
	callq	__ZN3std4path4Path4join17h9948c5d6068b8b18E
Ltmp704:
	jmp	LBB85_7
LBB85_7:
Ltmp705:
	.loc	9 0 21 is_stmt 0
	leaq	-592(%rbp), %rdi
	leaq	-640(%rbp), %rsi
Ltmp792:
	.loc	9 51 17 is_stmt 1
	callq	__ZN3std2fs4File6create17h99a8227dcdef1018E
Ltmp706:
	jmp	LBB85_10
Ltmp793:
LBB85_8:
Ltmp777:
	.loc	9 0 17 is_stmt 0
	leaq	-640(%rbp), %rdi
	.loc	9 88 1 is_stmt 1
	callq	__ZN4core3ptr39drop_in_place$LT$std..path..PathBuf$GT$17h7509febe977ce1cbE
Ltmp778:
	jmp	LBB85_4
LBB85_9:
Ltmp776:
	.loc	9 0 1 is_stmt 0
	movq	%rax, %rcx
	movl	%edx, %eax
	movq	%rcx, -96(%rbp)
	movl	%eax, -88(%rbp)
	jmp	LBB85_8
LBB85_10:
Ltmp707:
	leaq	-608(%rbp), %rdi
	leaq	-592(%rbp), %rsi
Ltmp794:
	.loc	9 51 17 is_stmt 1
	callq	__ZN79_$LT$core..result..Result$LT$T$C$E$GT$$u20$as$u20$core..ops..try_trait..Try$GT$6branch17h751626a0df4903afE
Ltmp708:
	jmp	LBB85_11
LBB85_11:
	movl	-608(%rbp), %eax
	cmpq	$0, %rax
	jne	LBB85_13
	movl	-604(%rbp), %eax
	movl	%eax, -68(%rbp)
Ltmp795:
	.loc	9 51 17 is_stmt 0
	movl	%eax, -612(%rbp)
Ltmp796:
Ltmp711:
	.loc	9 53 18 is_stmt 1
	leaq	l___unnamed_37(%rip), %rdi
	callq	__ZN4core5array98_$LT$impl$u20$core..iter..traits..collect..IntoIterator$u20$for$u20$$RF$$u5b$T$u3b$$u20$N$u5d$$GT$9into_iter17h1a8452cc61b91a1fE
Ltmp712:
	movq	%rdx, -848(%rbp)
	movq	%rax, -840(%rbp)
	jmp	LBB85_18
Ltmp797:
LBB85_13:
	.loc	9 51 41
	movq	-600(%rbp), %rdi
	movq	%rdi, -80(%rbp)
Ltmp709:
Ltmp798:
	.loc	9 51 17 is_stmt 0
	leaq	l___unnamed_38(%rip), %rsi
	callq	__ZN153_$LT$core..result..Result$LT$T$C$F$GT$$u20$as$u20$core..ops..try_trait..FromResidual$LT$core..result..Result$LT$core..convert..Infallible$C$E$GT$$GT$$GT$13from_residual17h5c3b373ecdd22184E
Ltmp710:
	movq	%rdx, -864(%rbp)
	movq	%rax, -856(%rbp)
	jmp	LBB85_14
LBB85_14:
	.loc	9 0 17
	movq	-864(%rbp), %rax
	movq	-856(%rbp), %rcx
	.loc	9 51 17
	movq	%rcx, -816(%rbp)
	movq	%rax, -808(%rbp)
Ltmp799:
LBB85_15:
Ltmp765:
	.loc	9 0 17
	leaq	-640(%rbp), %rdi
	.loc	9 88 1 is_stmt 1
	callq	__ZN4core3ptr39drop_in_place$LT$std..path..PathBuf$GT$17h7509febe977ce1cbE
Ltmp766:
	jmp	LBB85_79
LBB85_16:
Ltmp772:
	.loc	9 0 1 is_stmt 0
	leaq	-612(%rbp), %rdi
Ltmp800:
	.loc	9 88 1
	callq	__ZN4core3ptr34drop_in_place$LT$std..fs..File$GT$17h815da78b16166a21E
Ltmp773:
	jmp	LBB85_8
LBB85_17:
Ltmp771:
	.loc	9 0 1
	movq	%rax, %rcx
	movl	%edx, %eax
	movq	%rcx, -96(%rbp)
	movl	%eax, -88(%rbp)
	jmp	LBB85_16
LBB85_18:
	movq	-848(%rbp), %rax
	movq	-840(%rbp), %rcx
Ltmp801:
	.loc	9 53 18 is_stmt 1
	movq	%rcx, -576(%rbp)
	movq	%rax, -568(%rbp)
LBB85_19:
Ltmp713:
	.loc	9 0 18 is_stmt 0
	leaq	-576(%rbp), %rdi
Ltmp802:
	.loc	9 53 18
	callq	__ZN91_$LT$core..slice..iter..Iter$LT$T$GT$$u20$as$u20$core..iter..traits..iterator..Iterator$GT$4next17h601828f46a80734eE
Ltmp714:
	movq	%rax, -872(%rbp)
	jmp	LBB85_20
LBB85_20:
	.loc	9 0 18
	movq	-872(%rbp), %rax
	.loc	9 53 18
	movq	%rax, -560(%rbp)
	movq	-560(%rbp), %rdx
	movl	$1, %eax
	xorl	%ecx, %ecx
	cmpq	$0, %rdx
	cmoveq	%rcx, %rax
	cmpq	$0, %rax
	jne	LBB85_22
Ltmp803:
	.loc	9 87 5 is_stmt 1
	movq	$0, -816(%rbp)
Ltmp774:
	leaq	-612(%rbp), %rdi
Ltmp804:
	.loc	9 88 1
	callq	__ZN4core3ptr34drop_in_place$LT$std..fs..File$GT$17h815da78b16166a21E
Ltmp775:
	jmp	LBB85_80
LBB85_22:
Ltmp805:
	.loc	9 53 10
	movq	-560(%rbp), %rax
	movl	(%rax), %eax
	movl	%eax, -548(%rbp)
Ltmp806:
	.loc	9 54 22
	cmpl	$64, -548(%rbp)
	jl	LBB85_24
	.loc	9 57 13
	movq	$-1, -544(%rbp)
	.loc	9 54 19
	jmp	LBB85_30
LBB85_24:
	.loc	9 55 19
	movl	-548(%rbp), %ecx
	.loc	9 55 13 is_stmt 0
	movl	%ecx, %eax
	andl	$-64, %eax
	cmpl	$0, %eax
	setne	%al
	movl	%ecx, %ecx
	andq	$63, %rcx
	movl	$1, %edx
	shlq	%cl, %rdx
	movq	%rdx, -880(%rbp)
	testb	$1, %al
	jne	LBB85_26
	.loc	9 0 13
	movq	-880(%rbp), %rax
	.loc	9 55 13
	movq	%rax, %rcx
	subq	$1, %rcx
	movq	%rcx, -888(%rbp)
	cmpq	$1, %rax
	setb	%al
	testb	$1, %al
	jne	LBB85_29
	jmp	LBB85_28
LBB85_26:
Ltmp769:
	leaq	_str.0(%rip), %rdi
	leaq	l___unnamed_39(%rip), %rdx
	movl	$35, %esi
	callq	__ZN4core9panicking5panic17hc1bc45270cf64b03E
Ltmp770:
	jmp	LBB85_27
LBB85_27:
	.loc	9 0 13
	ud2
LBB85_28:
	movq	-888(%rbp), %rax
	.loc	9 55 13
	movq	%rax, -544(%rbp)
	.loc	9 54 19 is_stmt 1
	jmp	LBB85_30
LBB85_29:
Ltmp767:
	.loc	9 55 13
	leaq	_str.1(%rip), %rdi
	leaq	l___unnamed_39(%rip), %rdx
	movl	$33, %esi
	callq	__ZN4core9panicking5panic17hc1bc45270cf64b03E
Ltmp768:
	jmp	LBB85_27
LBB85_30:
Ltmp715:
Ltmp807:
	.loc	9 60 9
	leaq	l___unnamed_40(%rip), %rsi
	leaq	l___unnamed_11(%rip), %rcx
	xorl	%eax, %eax
	movl	%eax, %r8d
	leaq	-528(%rbp), %rdi
	movl	$1, %edx
	callq	__ZN4core3fmt9Arguments6new_v117hb07f32a6d50ff579E
Ltmp716:
	jmp	LBB85_31
LBB85_31:
Ltmp717:
	.loc	9 0 9 is_stmt 0
	leaq	-612(%rbp), %rdi
	leaq	-528(%rbp), %rsi
	.loc	9 60 9
	callq	__ZN3std2io5Write9write_fmt17hac1baffa9b1ace31E
Ltmp718:
	movq	%rax, -896(%rbp)
	jmp	LBB85_32
LBB85_32:
Ltmp719:
	.loc	9 0 9
	movq	-896(%rbp), %rdi
	.loc	9 60 9
	callq	__ZN79_$LT$core..result..Result$LT$T$C$E$GT$$u20$as$u20$core..ops..try_trait..Try$GT$6branch17ha82a197cbe9988caE
Ltmp720:
	movq	%rax, -904(%rbp)
	jmp	LBB85_33
LBB85_33:
	.loc	9 0 9
	movq	-904(%rbp), %rax
	.loc	9 60 9
	movq	%rax, -536(%rbp)
	movq	-536(%rbp), %rdx
	movl	$1, %eax
	xorl	%ecx, %ecx
	cmpq	$0, %rdx
	cmoveq	%rcx, %rax
	cmpq	$0, %rax
	jne	LBB85_35
Ltmp723:
	.loc	9 0 9
	leaq	-548(%rbp), %rdi
	.loc	9 61 9 is_stmt 1
	callq	__ZN4core3fmt10ArgumentV111new_display17hd4d012f3dc3da058E
Ltmp724:
	movq	%rdx, -920(%rbp)
	movq	%rax, -912(%rbp)
	jmp	LBB85_38
LBB85_35:
	.loc	9 60 53
	movq	-536(%rbp), %rdi
	movq	%rdi, -64(%rbp)
Ltmp721:
Ltmp808:
	.loc	9 60 9 is_stmt 0
	leaq	l___unnamed_41(%rip), %rsi
	callq	__ZN153_$LT$core..result..Result$LT$T$C$F$GT$$u20$as$u20$core..ops..try_trait..FromResidual$LT$core..result..Result$LT$core..convert..Infallible$C$E$GT$$GT$$GT$13from_residual17h5c3b373ecdd22184E
Ltmp722:
	movq	%rdx, -936(%rbp)
	movq	%rax, -928(%rbp)
	jmp	LBB85_36
LBB85_36:
	.loc	9 0 9
	movq	-936(%rbp), %rax
	movq	-928(%rbp), %rcx
	.loc	9 60 9
	movq	%rcx, -816(%rbp)
	movq	%rax, -808(%rbp)
Ltmp809:
LBB85_37:
Ltmp763:
	.loc	9 0 9
	leaq	-612(%rbp), %rdi
	.loc	9 88 1 is_stmt 1
	callq	__ZN4core3ptr34drop_in_place$LT$std..fs..File$GT$17h815da78b16166a21E
Ltmp764:
	jmp	LBB85_15
LBB85_38:
	.loc	9 0 1 is_stmt 0
	movq	-920(%rbp), %rax
	movq	-912(%rbp), %rcx
Ltmp810:
	.loc	9 61 9 is_stmt 1
	movq	%rcx, -424(%rbp)
	movq	%rax, -416(%rbp)
Ltmp725:
	movq	%rsp, %rax
	movq	$2, (%rax)
	leaq	l___unnamed_42(%rip), %rsi
	leaq	l___unnamed_43(%rip), %r9
	leaq	-472(%rbp), %rdi
	movl	$3, %edx
	leaq	-424(%rbp), %rcx
	movl	$1, %r8d
	callq	__ZN4core3fmt9Arguments16new_v1_formatted17hf6702eee5b5917deE
Ltmp726:
	jmp	LBB85_40
LBB85_40:
Ltmp727:
	.loc	9 0 9 is_stmt 0
	leaq	-612(%rbp), %rdi
	leaq	-472(%rbp), %rsi
	.loc	9 61 9
	callq	__ZN3std2io5Write9write_fmt17hac1baffa9b1ace31E
Ltmp728:
	movq	%rax, -944(%rbp)
	jmp	LBB85_41
LBB85_41:
Ltmp729:
	.loc	9 0 9
	movq	-944(%rbp), %rdi
	.loc	9 61 9
	callq	__ZN79_$LT$core..result..Result$LT$T$C$E$GT$$u20$as$u20$core..ops..try_trait..Try$GT$6branch17ha82a197cbe9988caE
Ltmp730:
	movq	%rax, -952(%rbp)
	jmp	LBB85_42
LBB85_42:
	.loc	9 0 9
	movq	-952(%rbp), %rax
	.loc	9 61 9
	movq	%rax, -480(%rbp)
	movq	-480(%rbp), %rdx
	movl	$1, %eax
	xorl	%ecx, %ecx
	cmpq	$0, %rdx
	cmoveq	%rcx, %rax
	cmpq	$0, %rax
	jne	LBB85_44
	.loc	9 66 22 is_stmt 1
	movq	$0, -408(%rbp)
	movq	$257, -400(%rbp)
	movq	-408(%rbp), %rdi
	movq	-400(%rbp), %rsi
Ltmp733:
	callq	__ZN63_$LT$I$u20$as$u20$core..iter..traits..collect..IntoIterator$GT$9into_iter17h1a3f01758cddc4cdE
Ltmp734:
	movq	%rdx, -968(%rbp)
	movq	%rax, -960(%rbp)
	jmp	LBB85_46
LBB85_44:
	.loc	9 65 10
	movq	-480(%rbp), %rdi
	movq	%rdi, -56(%rbp)
Ltmp731:
Ltmp811:
	.loc	9 61 9
	leaq	l___unnamed_44(%rip), %rsi
	callq	__ZN153_$LT$core..result..Result$LT$T$C$F$GT$$u20$as$u20$core..ops..try_trait..FromResidual$LT$core..result..Result$LT$core..convert..Infallible$C$E$GT$$GT$$GT$13from_residual17h5c3b373ecdd22184E
Ltmp732:
	movq	%rdx, -984(%rbp)
	movq	%rax, -976(%rbp)
	jmp	LBB85_45
LBB85_45:
	.loc	9 0 9 is_stmt 0
	movq	-984(%rbp), %rax
	movq	-976(%rbp), %rcx
	.loc	9 61 9
	movq	%rcx, -816(%rbp)
	movq	%rax, -808(%rbp)
	jmp	LBB85_37
Ltmp812:
LBB85_46:
	.loc	9 0 9
	movq	-968(%rbp), %rax
	movq	-960(%rbp), %rcx
	.loc	9 66 22 is_stmt 1
	movq	%rcx, -392(%rbp)
	movq	%rax, -384(%rbp)
LBB85_47:
Ltmp735:
	.loc	9 0 22 is_stmt 0
	leaq	-392(%rbp), %rdi
Ltmp813:
	.loc	9 66 22
	callq	__ZN4core4iter5range101_$LT$impl$u20$core..iter..traits..iterator..Iterator$u20$for$u20$core..ops..range..Range$LT$A$GT$$GT$4next17h200188c5fb00b9caE
Ltmp736:
	movq	%rdx, -1000(%rbp)
	movq	%rax, -992(%rbp)
	jmp	LBB85_48
LBB85_48:
	.loc	9 0 22
	movq	-1000(%rbp), %rax
	movq	-992(%rbp), %rcx
	.loc	9 66 22
	movq	%rcx, -376(%rbp)
	movq	%rax, -368(%rbp)
	cmpq	$0, -376(%rbp)
	jne	LBB85_50
Ltmp814:
Ltmp755:
	.loc	9 84 9 is_stmt 1
	leaq	l___unnamed_45(%rip), %rsi
	leaq	l___unnamed_11(%rip), %rcx
	xorl	%eax, %eax
	movl	%eax, %r8d
	leaq	-176(%rbp), %rdi
	movl	$1, %edx
	callq	__ZN4core3fmt9Arguments6new_v117hb07f32a6d50ff579E
Ltmp756:
	jmp	LBB85_73
LBB85_50:
Ltmp815:
	.loc	9 66 13
	movq	-368(%rbp), %rax
	movq	%rax, -360(%rbp)
Ltmp816:
	.loc	9 67 36
	cmpq	$0, -360(%rbp)
	jne	LBB85_52
	movb	$1, -317(%rbp)
	jmp	LBB85_54
LBB85_52:
	.loc	9 67 50 is_stmt 0
	movq	-360(%rbp), %rcx
	movq	%rcx, -24(%rbp)
Ltmp817:
	.loc	24 2144 13 is_stmt 1
	movq	%rcx, -16(%rbp)
Ltmp818:
	.loc	24 89 13
	movq	%rcx, %rax
	shrq	%rax
	movabsq	$6148914691236517205, %rdx
	andq	%rdx, %rax
	subq	%rax, %rcx
	movabsq	$3689348814741910323, %rdx
	movq	%rcx, %rax
	andq	%rdx, %rax
	shrq	$2, %rcx
	andq	%rdx, %rcx
	addq	%rcx, %rax
	movq	%rax, %rcx
	shrq	$4, %rcx
	addq	%rcx, %rax
	movabsq	$1085102592571150095, %rcx
	andq	%rcx, %rax
	movabsq	$72340172838076673, %rcx
	imulq	%rcx, %rax
	shrq	$56, %rax
	movq	%rax, -8(%rbp)
	movq	-8(%rbp), %rax
Ltmp819:
	.loc	24 2144 13
	cmpl	$1, %eax
	sete	%al
	movb	%al, -1001(%rbp)
Ltmp820:
	.loc	24 0 13 is_stmt 0
	movb	-1001(%rbp), %al
	.loc	9 67 36 is_stmt 1
	andb	$1, %al
	movb	%al, -317(%rbp)
LBB85_54:
	testb	$1, -317(%rbp)
	jne	LBB85_56
	.loc	9 70 33
	movl	$1, -316(%rbp)
Ltmp821:
	.loc	9 71 32
	movq	-360(%rbp), %rax
	movq	%rax, -312(%rbp)
Ltmp822:
	.loc	9 73 17
	jmp	LBB85_58
Ltmp823:
LBB85_56:
	.loc	9 68 17
	movq	$0, -336(%rbp)
	movl	$0, -328(%rbp)
LBB85_57:
	.loc	9 67 18
	movq	-336(%rbp), %rax
	movq	%rax, -352(%rbp)
	.loc	9 67 24 is_stmt 0
	movl	-328(%rbp), %eax
	movl	%eax, -340(%rbp)
Ltmp741:
	leaq	-352(%rbp), %rdi
Ltmp824:
	.loc	9 82 13 is_stmt 1
	callq	__ZN4core3fmt10ArgumentV111new_display17h8667e834a70b8923E
Ltmp742:
	movq	%rdx, -1024(%rbp)
	movq	%rax, -1016(%rbp)
	jmp	LBB85_63
Ltmp825:
LBB85_58:
	.loc	9 73 37
	movq	-312(%rbp), %rdi
	.loc	9 73 54 is_stmt 0
	movq	-360(%rbp), %rsi
Ltmp737:
	.loc	9 73 37
	callq	__ZN4core3num21_$LT$impl$u20$u64$GT$11checked_mul17h97662ab5f4ddaf13E
Ltmp738:
	movq	%rdx, -1040(%rbp)
	movq	%rax, -1032(%rbp)
	jmp	LBB85_59
LBB85_59:
	.loc	9 0 37
	movq	-1040(%rbp), %rax
	movq	-1032(%rbp), %rcx
	.loc	9 73 37
	movq	%rcx, -304(%rbp)
	movq	%rax, -296(%rbp)
	.loc	9 73 27
	cmpq	$1, -304(%rbp)
	jne	LBB85_61
	.loc	9 73 32
	movq	-296(%rbp), %rax
	movq	%rax, -1048(%rbp)
	movq	%rax, -48(%rbp)
	.loc	9 74 24 is_stmt 1
	cmpq	-544(%rbp), %rax
	jbe	LBB85_62
Ltmp826:
LBB85_61:
	.loc	9 80 18
	movq	-312(%rbp), %rcx
	.loc	9 80 24 is_stmt 0
	movl	-316(%rbp), %eax
	.loc	9 80 17
	movq	%rcx, -336(%rbp)
	movl	%eax, -328(%rbp)
Ltmp827:
	.loc	9 67 33 is_stmt 1
	jmp	LBB85_57
LBB85_62:
	.loc	9 0 33 is_stmt 0
	movq	-1048(%rbp), %rax
Ltmp828:
	.loc	9 77 21 is_stmt 1
	movq	%rax, -312(%rbp)
	.loc	9 78 21
	movl	-316(%rbp), %eax
	incl	%eax
	movl	%eax, -1052(%rbp)
	seto	%al
	testb	$1, %al
	jne	LBB85_72
	jmp	LBB85_71
Ltmp829:
LBB85_63:
	.loc	9 0 21 is_stmt 0
	movq	-1024(%rbp), %rax
	movq	-1016(%rbp), %rcx
	movq	%rcx, -1088(%rbp)
	movq	%rax, -1080(%rbp)
Ltmp743:
	leaq	-340(%rbp), %rdi
Ltmp830:
	.loc	9 82 13 is_stmt 1
	callq	__ZN4core3fmt10ArgumentV111new_display17hd4d012f3dc3da058E
Ltmp744:
	movq	%rdx, -1072(%rbp)
	movq	%rax, -1064(%rbp)
	jmp	LBB85_64
LBB85_64:
	.loc	9 0 13 is_stmt 0
	movq	-1072(%rbp), %rax
	movq	-1064(%rbp), %rcx
	movq	%rcx, -1120(%rbp)
	movq	%rax, -1112(%rbp)
Ltmp745:
	leaq	-360(%rbp), %rdi
	.loc	9 82 13
	callq	__ZN4core3fmt10ArgumentV111new_display17h8667e834a70b8923E
Ltmp746:
	movq	%rdx, -1104(%rbp)
	movq	%rax, -1096(%rbp)
	jmp	LBB85_65
LBB85_65:
	.loc	9 0 13
	movq	-1104(%rbp), %rax
	movq	-1096(%rbp), %rcx
	movq	-1112(%rbp), %rdx
	movq	-1120(%rbp), %rsi
	movq	-1080(%rbp), %rdi
	movq	-1088(%rbp), %r8
	.loc	9 82 13
	movq	%r8, -232(%rbp)
	movq	%rdi, -224(%rbp)
	movq	%rsi, -216(%rbp)
	movq	%rdx, -208(%rbp)
	movq	%rcx, -200(%rbp)
	movq	%rax, -192(%rbp)
Ltmp747:
	leaq	l___unnamed_46(%rip), %rsi
	leaq	-280(%rbp), %rdi
	movl	$4, %edx
	leaq	-232(%rbp), %rcx
	movl	$3, %r8d
	callq	__ZN4core3fmt9Arguments6new_v117hb07f32a6d50ff579E
Ltmp748:
	jmp	LBB85_66
LBB85_66:
Ltmp749:
	.loc	9 0 13
	leaq	-612(%rbp), %rdi
	leaq	-280(%rbp), %rsi
	.loc	9 82 13
	callq	__ZN3std2io5Write9write_fmt17hac1baffa9b1ace31E
Ltmp750:
	movq	%rax, -1128(%rbp)
	jmp	LBB85_67
LBB85_67:
Ltmp751:
	.loc	9 0 13
	movq	-1128(%rbp), %rdi
	.loc	9 82 13
	callq	__ZN79_$LT$core..result..Result$LT$T$C$E$GT$$u20$as$u20$core..ops..try_trait..Try$GT$6branch17ha82a197cbe9988caE
Ltmp752:
	movq	%rax, -1136(%rbp)
	jmp	LBB85_68
LBB85_68:
	.loc	9 0 13
	movq	-1136(%rbp), %rax
	.loc	9 82 13
	movq	%rax, -288(%rbp)
	movq	-288(%rbp), %rdx
	movl	$1, %eax
	xorl	%ecx, %ecx
	cmpq	$0, %rdx
	cmoveq	%rcx, %rax
	cmpq	$0, %rax
	je	LBB85_47
	.loc	9 82 67
	movq	-288(%rbp), %rdi
	movq	%rdi, -40(%rbp)
Ltmp753:
Ltmp831:
	.loc	9 82 13
	leaq	l___unnamed_47(%rip), %rsi
	callq	__ZN153_$LT$core..result..Result$LT$T$C$F$GT$$u20$as$u20$core..ops..try_trait..FromResidual$LT$core..result..Result$LT$core..convert..Infallible$C$E$GT$$GT$$GT$13from_residual17h5c3b373ecdd22184E
Ltmp754:
	movq	%rdx, -1152(%rbp)
	movq	%rax, -1144(%rbp)
	jmp	LBB85_70
LBB85_70:
	.loc	9 0 13
	movq	-1152(%rbp), %rax
	movq	-1144(%rbp), %rcx
	.loc	9 82 13
	movq	%rcx, -816(%rbp)
	movq	%rax, -808(%rbp)
	jmp	LBB85_37
Ltmp832:
LBB85_71:
	.loc	9 0 13
	movl	-1052(%rbp), %eax
Ltmp833:
	.loc	9 78 21 is_stmt 1
	movl	%eax, -316(%rbp)
Ltmp834:
	.loc	9 73 17
	jmp	LBB85_58
LBB85_72:
Ltmp739:
Ltmp835:
	.loc	9 78 21
	leaq	_str.2(%rip), %rdi
	leaq	l___unnamed_48(%rip), %rdx
	movl	$28, %esi
	callq	__ZN4core9panicking5panic17hc1bc45270cf64b03E
Ltmp740:
	jmp	LBB85_27
Ltmp836:
LBB85_73:
Ltmp757:
	.loc	9 0 21 is_stmt 0
	leaq	-612(%rbp), %rdi
	leaq	-176(%rbp), %rsi
	.loc	9 84 9 is_stmt 1
	callq	__ZN3std2io5Write9write_fmt17hac1baffa9b1ace31E
Ltmp758:
	movq	%rax, -1160(%rbp)
	jmp	LBB85_74
LBB85_74:
Ltmp759:
	.loc	9 0 9 is_stmt 0
	movq	-1160(%rbp), %rdi
	.loc	9 84 9
	callq	__ZN79_$LT$core..result..Result$LT$T$C$E$GT$$u20$as$u20$core..ops..try_trait..Try$GT$6branch17ha82a197cbe9988caE
Ltmp760:
	movq	%rax, -1168(%rbp)
	jmp	LBB85_75
LBB85_75:
	.loc	9 0 9
	movq	-1168(%rbp), %rax
	.loc	9 84 9
	movq	%rax, -184(%rbp)
	movq	-184(%rbp), %rdx
	movl	$1, %eax
	xorl	%ecx, %ecx
	cmpq	$0, %rdx
	cmoveq	%rcx, %rax
	cmpq	$0, %rax
	je	LBB85_19
	.loc	9 84 26
	movq	-184(%rbp), %rdi
	movq	%rdi, -32(%rbp)
Ltmp761:
Ltmp837:
	.loc	9 84 9
	leaq	l___unnamed_49(%rip), %rsi
	callq	__ZN153_$LT$core..result..Result$LT$T$C$F$GT$$u20$as$u20$core..ops..try_trait..FromResidual$LT$core..result..Result$LT$core..convert..Infallible$C$E$GT$$GT$$GT$13from_residual17h5c3b373ecdd22184E
Ltmp762:
	movq	%rdx, -1184(%rbp)
	movq	%rax, -1176(%rbp)
	jmp	LBB85_77
LBB85_77:
	.loc	9 0 9
	movq	-1184(%rbp), %rax
	movq	-1176(%rbp), %rcx
	.loc	9 84 9
	movq	%rcx, -816(%rbp)
	movq	%rax, -808(%rbp)
	jmp	LBB85_37
Ltmp838:
LBB85_78:
Ltmp784:
	.loc	9 48 1 is_stmt 1
	callq	__ZN4core9panicking19panic_cannot_unwind17h1fbca7e1d7f56ae1E
LBB85_79:
	.loc	9 88 1
	leaq	-800(%rbp), %rdi
	callq	__ZN4core3ptr42drop_in_place$LT$alloc..string..String$GT$17h3cc4b04911fd7e35E
	jmp	LBB85_3
LBB85_80:
Ltmp779:
	.loc	9 0 1 is_stmt 0
	leaq	-640(%rbp), %rdi
Ltmp839:
	.loc	9 88 1
	callq	__ZN4core3ptr39drop_in_place$LT$std..path..PathBuf$GT$17h7509febe977ce1cbE
Ltmp780:
	jmp	LBB85_81
Ltmp840:
LBB85_81:
	.loc	9 88 1
	leaq	-800(%rbp), %rdi
	callq	__ZN4core3ptr42drop_in_place$LT$alloc..string..String$GT$17h3cc4b04911fd7e35E
	jmp	LBB85_3
LBB85_82:
	.loc	9 48 1 is_stmt 1
	movq	-96(%rbp), %rdi
	callq	__Unwind_Resume
Ltmp841:
Lfunc_end85:
	.cfi_endproc
	.section	__TEXT,__gcc_except_tab
	.p2align	2
GCC_except_table85:
Lexception13:
	.byte	255
	.byte	255
	.byte	1
	.uleb128 Lcst_end13-Lcst_begin13
Lcst_begin13:
	.uleb128 Lfunc_begin85-Lfunc_begin85
	.uleb128 Ltmp701-Lfunc_begin85
	.byte	0
	.byte	0
	.uleb128 Ltmp701-Lfunc_begin85
	.uleb128 Ltmp702-Ltmp701
	.uleb128 Ltmp781-Lfunc_begin85
	.byte	0
	.uleb128 Ltmp702-Lfunc_begin85
	.uleb128 Ltmp782-Ltmp702
	.byte	0
	.byte	0
	.uleb128 Ltmp782-Lfunc_begin85
	.uleb128 Ltmp783-Ltmp782
	.uleb128 Ltmp784-Lfunc_begin85
	.byte	0
	.uleb128 Ltmp703-Lfunc_begin85
	.uleb128 Ltmp704-Ltmp703
	.uleb128 Ltmp781-Lfunc_begin85
	.byte	0
	.uleb128 Ltmp705-Lfunc_begin85
	.uleb128 Ltmp706-Ltmp705
	.uleb128 Ltmp776-Lfunc_begin85
	.byte	0
	.uleb128 Ltmp777-Lfunc_begin85
	.uleb128 Ltmp778-Ltmp777
	.uleb128 Ltmp784-Lfunc_begin85
	.byte	0
	.uleb128 Ltmp707-Lfunc_begin85
	.uleb128 Ltmp708-Ltmp707
	.uleb128 Ltmp776-Lfunc_begin85
	.byte	0
	.uleb128 Ltmp711-Lfunc_begin85
	.uleb128 Ltmp712-Ltmp711
	.uleb128 Ltmp771-Lfunc_begin85
	.byte	0
	.uleb128 Ltmp709-Lfunc_begin85
	.uleb128 Ltmp710-Ltmp709
	.uleb128 Ltmp776-Lfunc_begin85
	.byte	0
	.uleb128 Ltmp765-Lfunc_begin85
	.uleb128 Ltmp766-Ltmp765
	.uleb128 Ltmp781-Lfunc_begin85
	.byte	0
	.uleb128 Ltmp772-Lfunc_begin85
	.uleb128 Ltmp773-Ltmp772
	.uleb128 Ltmp784-Lfunc_begin85
	.byte	0
	.uleb128 Ltmp713-Lfunc_begin85
	.uleb128 Ltmp714-Ltmp713
	.uleb128 Ltmp771-Lfunc_begin85
	.byte	0
	.uleb128 Ltmp774-Lfunc_begin85
	.uleb128 Ltmp775-Ltmp774
	.uleb128 Ltmp776-Lfunc_begin85
	.byte	0
	.uleb128 Ltmp769-Lfunc_begin85
	.uleb128 Ltmp722-Ltmp769
	.uleb128 Ltmp771-Lfunc_begin85
	.byte	0
	.uleb128 Ltmp763-Lfunc_begin85
	.uleb128 Ltmp764-Ltmp763
	.uleb128 Ltmp776-Lfunc_begin85
	.byte	0
	.uleb128 Ltmp725-Lfunc_begin85
	.uleb128 Ltmp762-Ltmp725
	.uleb128 Ltmp771-Lfunc_begin85
	.byte	0
	.uleb128 Ltmp762-Lfunc_begin85
	.uleb128 Ltmp779-Ltmp762
	.byte	0
	.byte	0
	.uleb128 Ltmp779-Lfunc_begin85
	.uleb128 Ltmp780-Ltmp779
	.uleb128 Ltmp781-Lfunc_begin85
	.byte	0
	.uleb128 Ltmp780-Lfunc_begin85
	.uleb128 Lfunc_end85-Ltmp780
	.byte	0
	.byte	0
Lcst_end13:
	.p2align	2

	.section	__TEXT,__text,regular,pure_instructions
	.globl	_main
	.p2align	4, 0x90
_main:
Lfunc_begin86:
	.cfi_startproc
	pushq	%rbp
	.cfi_def_cfa_offset 16
	.cfi_offset %rbp, -16
	movq	%rsp, %rbp
	.cfi_def_cfa_register %rbp
	movq	%rsi, %rdx
	movslq	%edi, %rsi
	leaq	__ZN18build_script_build4main17h9695a3d766d10fe2E(%rip), %rdi
	xorl	%ecx, %ecx
	callq	__ZN3std2rt10lang_start17hd01dc49994c45f71E
	popq	%rbp
	retq
Lfunc_end86:
	.cfi_endproc

	.section	__DATA,__const
	.p2align	3
l___unnamed_50:
	.quad	__ZN4core3ptr39drop_in_place$LT$std..env..VarError$GT$17h893f1f65fa36a0f7E
	.asciz	"\030\000\000\000\000\000\000\000\b\000\000\000\000\000\000"
	.quad	__ZN57_$LT$std..env..VarError$u20$as$u20$core..fmt..Display$GT$3fmt17hff1ea9f5c9d28420E

	.p2align	3
l___unnamed_1:
	.quad	__ZN4core3ptr39drop_in_place$LT$std..env..VarError$GT$17h893f1f65fa36a0f7E
	.asciz	"\030\000\000\000\000\000\000\000\b\000\000\000\000\000\000"
	.quad	__ZN55_$LT$std..env..VarError$u20$as$u20$core..fmt..Debug$GT$3fmt17hca5f9b8668ac52cdE
	.quad	__ZN57_$LT$std..env..VarError$u20$as$u20$core..fmt..Display$GT$3fmt17hff1ea9f5c9d28420E
	.quad	l___unnamed_50
	.quad	__ZN4core5error5Error6source17h61fc0d9b5cdd8831E
	.quad	__ZN4core5error5Error7type_id17he59dd181bfca523bE
	.quad	__ZN57_$LT$std..env..VarError$u20$as$u20$core..error..Error$GT$11description17h17e9f4d9bdba0041E
	.quad	__ZN4core5error5Error5cause17h46bb908b79cc7b04E
	.quad	__ZN4core5error5Error7provide17h8d845c6ab701746cE

	.p2align	3
l___unnamed_51:
	.quad	__ZN4core3ptr42drop_in_place$LT$std..io..error..Error$GT$17h0936ab0439591bd9E
	.asciz	"\b\000\000\000\000\000\000\000\b\000\000\000\000\000\000"
	.quad	__ZN60_$LT$std..io..error..Error$u20$as$u20$core..fmt..Display$GT$3fmt17h30873c19434b7e15E

	.p2align	3
l___unnamed_2:
	.quad	__ZN4core3ptr42drop_in_place$LT$std..io..error..Error$GT$17h0936ab0439591bd9E
	.asciz	"\b\000\000\000\000\000\000\000\b\000\000\000\000\000\000"
	.quad	__ZN58_$LT$std..io..error..Error$u20$as$u20$core..fmt..Debug$GT$3fmt17h0f690fff27c65905E
	.quad	__ZN60_$LT$std..io..error..Error$u20$as$u20$core..fmt..Display$GT$3fmt17h30873c19434b7e15E
	.quad	l___unnamed_51
	.quad	__ZN60_$LT$std..io..error..Error$u20$as$u20$core..error..Error$GT$6source17h98d18b67995187bcE
	.quad	__ZN4core5error5Error7type_id17h7678c49fb7a09a86E
	.quad	__ZN60_$LT$std..io..error..Error$u20$as$u20$core..error..Error$GT$11description17h4dfd8d19bc035a8fE
	.quad	__ZN60_$LT$std..io..error..Error$u20$as$u20$core..error..Error$GT$5cause17h2fa0cd812065aaa2E
	.quad	__ZN4core5error5Error7provide17hf7a6d7d3fb9730abE

	.section	__TEXT,__const
l___unnamed_7:
	.byte	35

l___unnamed_52:
	.ascii	"/rustc/2c8cc343237b8f7d5a3c3703e3a87f2eb2c54a74/library/std/src/io/mod.rs"

	.section	__DATA,__const
	.p2align	3
l___unnamed_9:
	.quad	l___unnamed_52
	.asciz	"I\000\000\000\000\000\000\000\r\006\000\000!\000\000"

	.section	__TEXT,__const
l___unnamed_53:
	.ascii	"failed to write whole buffer"

	.section	__DATA,__const
	.p2align	3
l___unnamed_8:
	.quad	l___unnamed_53
	.ascii	"\034\000\000\000\000\000\000\000\027"
	.space	7

	.p2align	3
l___unnamed_3:
	.quad	__ZN4core3ptr76drop_in_place$LT$std..io..Write..write_fmt..Adapter$LT$std..fs..File$GT$$GT$17h7059797a21a80e06E
	.asciz	"\020\000\000\000\000\000\000\000\b\000\000\000\000\000\000"
	.quad	__ZN80_$LT$std..io..Write..write_fmt..Adapter$LT$T$GT$$u20$as$u20$core..fmt..Write$GT$9write_str17hf4ff96312a9420e4E
	.quad	__ZN4core3fmt5Write10write_char17hfae2bf02fc12efcfE
	.quad	__ZN4core3fmt5Write9write_fmt17h9f5c150571f94617E

	.section	__TEXT,__const
l___unnamed_54:
	.ascii	"formatter error"

	.section	__DATA,__const
	.p2align	3
l___unnamed_10:
	.quad	l___unnamed_54
	.ascii	"\017\000\000\000\000\000\000\000("
	.space	7

	.p2align	3
l___unnamed_4:
	.quad	__ZN4core3ptr85drop_in_place$LT$std..rt..lang_start$LT$$LP$$RP$$GT$..$u7b$$u7b$closure$u7d$$u7d$$GT$17h8f92b15733df66b0E
	.asciz	"\b\000\000\000\000\000\000\000\b\000\000\000\000\000\000"
	.quad	__ZN4core3ops8function6FnOnce40call_once$u7b$$u7b$vtable.shim$u7d$$u7d$17h167bf66fa578f9a5E
	.quad	__ZN3std2rt10lang_start28_$u7b$$u7b$closure$u7d$$u7d$17h7a9b1335893c1cf8E
	.quad	__ZN3std2rt10lang_start28_$u7b$$u7b$closure$u7d$$u7d$17h7a9b1335893c1cf8E

	.p2align	3
l___unnamed_5:
	.quad	__ZN4core3ptr88drop_in_place$LT$$RF$mut$u20$std..io..Write..write_fmt..Adapter$LT$std..fs..File$GT$$GT$17h9594b8f3b8d38228E
	.asciz	"\b\000\000\000\000\000\000\000\b\000\000\000\000\000\000"
	.quad	__ZN50_$LT$$RF$mut$u20$W$u20$as$u20$core..fmt..Write$GT$9write_str17h7e836ff52b297fd7E
	.quad	__ZN50_$LT$$RF$mut$u20$W$u20$as$u20$core..fmt..Write$GT$10write_char17hf044801ffdd6caf0E
	.quad	__ZN50_$LT$$RF$mut$u20$W$u20$as$u20$core..fmt..Write$GT$9write_fmt17hd330067587f1df3bE

	.section	__TEXT,__const
	.p2align	3
l___unnamed_11:
	.byte	0

l___unnamed_55:
	.ascii	"invalid args"

	.section	__DATA,__const
	.p2align	3
l___unnamed_12:
	.quad	l___unnamed_55
	.asciz	"\f\000\000\000\000\000\000"

	.section	__TEXT,__const
l___unnamed_56:
	.ascii	"/rustc/2c8cc343237b8f7d5a3c3703e3a87f2eb2c54a74/library/core/src/fmt/mod.rs"

	.section	__DATA,__const
	.p2align	3
l___unnamed_13:
	.quad	l___unnamed_56
	.asciz	"K\000\000\000\000\000\000\000\221\001\000\000\r\000\000"

	.section	__TEXT,__const
l___unnamed_57:
	.ascii	"/rustc/2c8cc343237b8f7d5a3c3703e3a87f2eb2c54a74/library/core/src/char/methods.rs"

	.section	__DATA,__const
	.p2align	3
l___unnamed_16:
	.quad	l___unnamed_57
	.asciz	"P\000\000\000\000\000\000\000\335\006\000\000\n\000\000"

	.section	__TEXT,__const
l___unnamed_58:
	.ascii	"encode_utf8: need "

l___unnamed_59:
	.ascii	" bytes to encode U+"

l___unnamed_60:
	.ascii	", but the buffer has "

	.section	__DATA,__const
	.p2align	3
l___unnamed_14:
	.quad	l___unnamed_58
	.asciz	"\022\000\000\000\000\000\000"
	.quad	l___unnamed_59
	.asciz	"\023\000\000\000\000\000\000"
	.quad	l___unnamed_60
	.asciz	"\025\000\000\000\000\000\000"

	.p2align	3
l___unnamed_15:
	.quad	l___unnamed_57
	.asciz	"P\000\000\000\000\000\000\000\326\006\000\000\016\000\000"

	.section	__TEXT,__const
l___unnamed_17:
	.ascii	"called `Result::unwrap()` on an `Err` value"

	.section	__DATA,__const
	.p2align	3
l___unnamed_6:
	.quad	__ZN4core3ptr72drop_in_place$LT$alloc..boxed..Box$LT$dyn$u20$core..error..Error$GT$$GT$17h8db795347aedad84E
	.asciz	"\020\000\000\000\000\000\000\000\b\000\000\000\000\000\000"
	.quad	__ZN67_$LT$alloc..boxed..Box$LT$T$C$A$GT$$u20$as$u20$core..fmt..Debug$GT$3fmt17hd6ad85ea534110b8E

	.section	__TEXT,__const
l___unnamed_18:
	.ascii	"CARGO_CFG_TARGET_POINTER_WIDTH"

l___unnamed_61:
	.ascii	"64"

	.section	__DATA,__const
	.p2align	3
l___unnamed_19:
	.quad	l___unnamed_61
	.asciz	"\002\000\000\000\000\000\000"

	.section	__TEXT,__const
l___unnamed_20:
	.ascii	"u64_digit"

l___unnamed_21:
	.ascii	"std"

	.section	__TEXT,__literal4,4byte_literals
L___unnamed_22:
	.ascii	"core"

	.section	__TEXT,__const
l___unnamed_62:
	.ascii	"::convert::TryFrom"

	.section	__DATA,__const
	.p2align	3
l___unnamed_23:
	.quad	l___unnamed_11
	.space	8
	.quad	l___unnamed_62
	.asciz	"\022\000\000\000\000\000\000"

	.section	__TEXT,__const
l___unnamed_25:
	.ascii	"has_try_from"

l___unnamed_24:
	.ascii	"CARGO_CFG_TARGET_ARCH"

l___unnamed_63:
	.ascii	"x86_64"

	.section	__DATA,__const
	.p2align	3
l___unnamed_26:
	.quad	l___unnamed_63
	.asciz	"\006\000\000\000\000\000\000"

	.section	__TEXT,__const
l___unnamed_64:
	.ascii	"x86"

	.section	__DATA,__const
	.p2align	3
l___unnamed_27:
	.quad	l___unnamed_64
	.asciz	"\003\000\000\000\000\000\000"

	.section	__TEXT,__const
l___unnamed_29:
	.ascii	"u64"

l___unnamed_28:
	.ascii	"u32"

	.section	__TEXT,__literal8,8byte_literals
L___unnamed_65:
	.ascii	"::arch::"

	.section	__TEXT,__const
l___unnamed_66:
	.ascii	"::_addcarry_"

	.section	__DATA,__const
	.p2align	3
l___unnamed_30:
	.quad	l___unnamed_11
	.space	8
	.quad	L___unnamed_65
	.asciz	"\b\000\000\000\000\000\000"
	.quad	l___unnamed_66
	.asciz	"\f\000\000\000\000\000\000"

	.section	__TEXT,__const
l___unnamed_31:
	.ascii	"use_addcarry"

	.section	__TEXT,__literal8,8byte_literals
L___unnamed_32:
	.ascii	"build.rs"

	.section	__TEXT,__const
l___unnamed_67:
	.ascii	"/Users/natalie/.cargo/registry/src/github.com-1ecc6299db9ec823/num-bigint-0.4.3/build.rs"

	.section	__DATA,__const
	.p2align	3
l___unnamed_33:
	.quad	l___unnamed_67
	.asciz	"X\000\000\000\000\000\000\000$\000\000\000\031\000\000"

	.section	__TEXT,__const
l___unnamed_34:
	.ascii	"OUT_DIR"

	.section	__DATA,__const
	.p2align	3
l___unnamed_35:
	.quad	l___unnamed_67
	.asciz	"X\000\000\000\000\000\000\0001\000\000\000\023\000\000"

	.section	__TEXT,__const
l___unnamed_36:
	.ascii	"radix_bases.rs"

	.section	__DATA,__const
	.p2align	3
l___unnamed_38:
	.quad	l___unnamed_67
	.asciz	"X\000\000\000\000\000\000\0003\000\000\000\021\000\000"

	.section	__TEXT,__const
	.p2align	2
l___unnamed_37:
	.asciz	"\020\000\000\000 \000\000\000@\000\000"

	.section	__DATA,__const
	.p2align	3
l___unnamed_39:
	.quad	l___unnamed_67
	.asciz	"X\000\000\000\000\000\000\0007\000\000\000\r\000\000"

	.section	__TEXT,__const
	.p2align	4
_str.0:
	.ascii	"attempt to shift left with overflow"

	.p2align	4
_str.1:
	.ascii	"attempt to subtract with overflow"

l___unnamed_68:
	.ascii	"#[deny(overflowing_literals)]\n"

	.section	__DATA,__const
	.p2align	3
l___unnamed_40:
	.quad	l___unnamed_68
	.asciz	"\036\000\000\000\000\000\000"

	.p2align	3
l___unnamed_41:
	.quad	l___unnamed_67
	.asciz	"X\000\000\000\000\000\000\000<\000\000\000\t\000\000"

	.section	__TEXT,__const
l___unnamed_69:
	.ascii	"pub(crate) static BASES_"

l___unnamed_70:
	.ascii	": [(u"

l___unnamed_71:
	.ascii	", usize); 257] = [\n"

	.section	__DATA,__const
	.p2align	3
l___unnamed_42:
	.quad	l___unnamed_69
	.asciz	"\030\000\000\000\000\000\000"
	.quad	l___unnamed_70
	.asciz	"\005\000\000\000\000\000\000"
	.quad	l___unnamed_71
	.asciz	"\023\000\000\000\000\000\000"

	.section	__TEXT,__const
	.p2align	3
l___unnamed_43:
	.asciz	"\002\000\000\000\000\000\000"
	.space	8
	.asciz	"\002\000\000\000\000\000\000"
	.space	8
	.ascii	"\000\000\000\000 \000\000\000\003"
	.space	7
	.asciz	"\000\000\000\000\000\000\000\000\002\000\000\000\000\000\000"
	.space	8
	.asciz	"\002\000\000\000\000\000\000"
	.space	8
	.ascii	"\000\000\000\000 \000\000\000\003"
	.space	7
	.space	8

	.section	__DATA,__const
	.p2align	3
l___unnamed_44:
	.quad	l___unnamed_67
	.asciz	"X\000\000\000\000\000\000\000=\000\000\000\t\000\000"

	.section	__TEXT,__const
l___unnamed_72:
	.ascii	"    ("

l___unnamed_73:
	.ascii	", "

l___unnamed_74:
	.ascii	"), // "

l___unnamed_75:
	.byte	10

	.section	__DATA,__const
	.p2align	3
l___unnamed_46:
	.quad	l___unnamed_72
	.asciz	"\005\000\000\000\000\000\000"
	.quad	l___unnamed_73
	.asciz	"\002\000\000\000\000\000\000"
	.quad	l___unnamed_74
	.asciz	"\006\000\000\000\000\000\000"
	.quad	l___unnamed_75
	.asciz	"\001\000\000\000\000\000\000"

	.p2align	3
l___unnamed_47:
	.quad	l___unnamed_67
	.asciz	"X\000\000\000\000\000\000\000R\000\000\000\r\000\000"

	.p2align	3
l___unnamed_48:
	.quad	l___unnamed_67
	.asciz	"X\000\000\000\000\000\000\000N\000\000\000\025\000\000"

	.section	__TEXT,__const
	.p2align	4
_str.2:
	.ascii	"attempt to add with overflow"

l___unnamed_76:
	.ascii	"];\n"

	.section	__DATA,__const
	.p2align	3
l___unnamed_45:
	.quad	l___unnamed_76
	.asciz	"\003\000\000\000\000\000\000"

	.p2align	3
l___unnamed_49:
	.quad	l___unnamed_67
	.asciz	"X\000\000\000\000\000\000\000T\000\000\000\t\000\000"

	.section	__DATA,__const
Lsec_end0:
	.section	__TEXT,__text,regular,pure_instructions
Lsec_end1: