	.section	__TEXT,__text,regular,pure_instructions
	.macosx_version_min 10, 7
	.p2align	4, 0x90
__ZN3std10sys_common9backtrace28__rust_begin_short_backtrace17h2349677108d2c9d2E:
Lfunc_begin0:
	.file	1 "/rustc/2c8cc343237b8f7d5a3c3703e3a87f2eb2c54a74/library/std/src/sys_common" "backtrace.rs"
	.loc	1 117 0
	.cfi_startproc
	pushq	%rbp
	.cfi_def_cfa_offset 16
	.cfi_offset %rbp, -16
	movq	%rsp, %rbp
	.cfi_def_cfa_register %rbp
	subq	$48, %rsp
	movq	%rdi, -32(%rbp)
Ltmp0:
	.loc	1 121 18 prologue_end
	callq	__ZN4core3ops8function6FnOnce9call_once17hbab7440d4639f714E
Ltmp1:
	.file	2 "/rustc/2c8cc343237b8f7d5a3c3703e3a87f2eb2c54a74/library/core/src" "hint.rs"
	.loc	2 295 5
	## InlineAsm Start
	## InlineAsm End
Ltmp2:
	.loc	1 127 2
	addq	$48, %rsp
	popq	%rbp
	retq
Ltmp3:
Lfunc_end0:
	.cfi_endproc

	.private_extern	__ZN3std2rt10lang_start17hc9b566c163b48157E
	.globl	__ZN3std2rt10lang_start17hc9b566c163b48157E
	.p2align	4, 0x90
__ZN3std2rt10lang_start17hc9b566c163b48157E:
Lfunc_begin1:
	.file	3 "/rustc/2c8cc343237b8f7d5a3c3703e3a87f2eb2c54a74/library/std/src" "rt.rs"
	.loc	3 159 0
	.cfi_startproc
	pushq	%rbp
	.cfi_def_cfa_offset 16
	.cfi_offset %rbp, -16
	movq	%rsp, %rbp
	.cfi_def_cfa_register %rbp
	subq	$64, %rsp
	movl	%ecx, %eax
	movq	%rdx, %rcx
	movq	%rsi, %rdx
	movq	%rdi, -40(%rbp)
	movq	%rdx, -32(%rbp)
	movq	%rcx, -24(%rbp)
	movb	%al, -9(%rbp)
Ltmp4:
	.loc	3 166 10 prologue_end
	movq	%rdi, -48(%rbp)
	.loc	3 165 17
	leaq	-48(%rbp), %rdi
	leaq	l___unnamed_1(%rip), %rsi
	movzbl	%al, %r8d
	callq	__ZN3std2rt19lang_start_internal17h72dc55d09e0a2397E
	movq	%rax, -56(%rbp)
	.loc	3 165 12 is_stmt 0
	movq	-56(%rbp), %rax
	movq	%rax, -8(%rbp)
	.loc	3 172 2 is_stmt 1
	addq	$64, %rsp
	popq	%rbp
	retq
Ltmp5:
Lfunc_end1:
	.cfi_endproc

	.p2align	4, 0x90
__ZN3std2rt10lang_start28_$u7b$$u7b$closure$u7d$$u7d$17h10c8cf46c86e3027E:
Lfunc_begin2:
	.loc	3 166 0
	.cfi_startproc
	pushq	%rbp
	.cfi_def_cfa_offset 16
	.cfi_offset %rbp, -16
	movq	%rsp, %rbp
	.cfi_def_cfa_register %rbp
	subq	$32, %rsp
	movq	%rdi, -16(%rbp)
Ltmp6:
	.loc	3 166 77 prologue_end
	movq	(%rdi), %rdi
	.loc	3 166 18 is_stmt 0
	callq	__ZN3std10sys_common9backtrace28__rust_begin_short_backtrace17h2349677108d2c9d2E
	callq	__ZN54_$LT$$LP$$RP$$u20$as$u20$std..process..Termination$GT$6report17h15528e8ec4dd975aE
	movb	%al, -17(%rbp)
Ltmp7:
	.file	4 "/rustc/2c8cc343237b8f7d5a3c3703e3a87f2eb2c54a74/library/std/src" "process.rs"
	.loc	4 1820 9 is_stmt 1
	leaq	-17(%rbp), %rax
	movq	%rax, -8(%rbp)
Ltmp8:
	.file	5 "/rustc/2c8cc343237b8f7d5a3c3703e3a87f2eb2c54a74/library/std/src/sys/unix/process" "process_common.rs"
	.loc	5 594 9
	movzbl	-17(%rbp), %eax
Ltmp9:
	.loc	3 166 100
	addq	$32, %rsp
	popq	%rbp
	retq
Ltmp10:
Lfunc_end2:
	.cfi_endproc

	.p2align	4, 0x90
__ZN4core3ops8function6FnOnce40call_once$u7b$$u7b$vtable.shim$u7d$$u7d$17hd25d54e08fdf770fE:
Lfunc_begin3:
	.file	6 "/rustc/2c8cc343237b8f7d5a3c3703e3a87f2eb2c54a74/library/core/src/ops" "function.rs"
	.loc	6 250 0
	.cfi_startproc
	pushq	%rbp
	.cfi_def_cfa_offset 16
	.cfi_offset %rbp, -16
	movq	%rsp, %rbp
	.cfi_def_cfa_register %rbp
	subq	$16, %rsp
	movq	%rdi, -8(%rbp)
Ltmp11:
	.loc	6 250 5 prologue_end
	movq	(%rdi), %rdi
	callq	__ZN4core3ops8function6FnOnce9call_once17h72b83b7e58cebabbE
	addq	$16, %rsp
	popq	%rbp
	retq
Ltmp12:
Lfunc_end3:
	.cfi_endproc

	.p2align	4, 0x90
__ZN4core3ops8function6FnOnce9call_once17h72b83b7e58cebabbE:
Lfunc_begin4:
	.loc	6 250 0
	.cfi_startproc
	.cfi_personality 155, _rust_eh_personality
	.cfi_lsda 16, Lexception0
	pushq	%rbp
	.cfi_def_cfa_offset 16
	.cfi_offset %rbp, -16
	movq	%rsp, %rbp
	.cfi_def_cfa_register %rbp
	subq	$48, %rsp
	movq	%rdi, -32(%rbp)
Ltmp13:
	leaq	-32(%rbp), %rdi
Ltmp16:
	.loc	6 250 5 prologue_end
	callq	__ZN3std2rt10lang_start28_$u7b$$u7b$closure$u7d$$u7d$17h10c8cf46c86e3027E
Ltmp14:
	movl	%eax, -36(%rbp)
	jmp	LBB4_3
LBB4_1:
	movq	-16(%rbp), %rdi
	callq	__Unwind_Resume
LBB4_2:
Ltmp15:
	.loc	6 0 5 is_stmt 0
	movq	%rax, %rcx
	movl	%edx, %eax
	movq	%rcx, -16(%rbp)
	movl	%eax, -8(%rbp)
	jmp	LBB4_1
LBB4_3:
	movl	-36(%rbp), %eax
	.loc	6 250 5
	addq	$48, %rsp
	popq	%rbp
	retq
Ltmp17:
Lfunc_end4:
	.cfi_endproc
	.section	__TEXT,__gcc_except_tab
	.p2align	2
GCC_except_table4:
Lexception0:
	.byte	255
	.byte	255
	.byte	1
	.uleb128 Lcst_end0-Lcst_begin0
Lcst_begin0:
	.uleb128 Ltmp13-Lfunc_begin4
	.uleb128 Ltmp14-Ltmp13
	.uleb128 Ltmp15-Lfunc_begin4
	.byte	0
	.uleb128 Ltmp14-Lfunc_begin4
	.uleb128 Lfunc_end4-Ltmp14
	.byte	0
	.byte	0
Lcst_end0:
	.p2align	2

	.section	__TEXT,__text,regular,pure_instructions
	.p2align	4, 0x90
__ZN4core3ops8function6FnOnce9call_once17hbab7440d4639f714E:
Lfunc_begin5:
	.loc	6 250 0 is_stmt 1
	.cfi_startproc
	pushq	%rbp
	.cfi_def_cfa_offset 16
	.cfi_offset %rbp, -16
	movq	%rsp, %rbp
	.cfi_def_cfa_register %rbp
	subq	$16, %rsp
	movq	%rdi, -8(%rbp)
Ltmp18:
	.loc	6 250 5 prologue_end
	callq	*%rdi
	addq	$16, %rsp
	popq	%rbp
	retq
Ltmp19:
Lfunc_end5:
	.cfi_endproc

	.p2align	4, 0x90
__ZN4core3ptr85drop_in_place$LT$std..rt..lang_start$LT$$LP$$RP$$GT$..$u7b$$u7b$closure$u7d$$u7d$$GT$17h8415f7e65f91ddb3E:
Lfunc_begin6:
	.file	7 "/rustc/2c8cc343237b8f7d5a3c3703e3a87f2eb2c54a74/library/core/src/ptr" "mod.rs"
	.loc	7 490 0
	.cfi_startproc
	pushq	%rbp
	.cfi_def_cfa_offset 16
	.cfi_offset %rbp, -16
	movq	%rsp, %rbp
	.cfi_def_cfa_register %rbp
	pushq	%rax
	movq	%rdi, -8(%rbp)
Ltmp20:
	.loc	7 490 1 prologue_end
	addq	$8, %rsp
	popq	%rbp
	retq
Ltmp21:
Lfunc_end6:
	.cfi_endproc

	.p2align	4, 0x90
__ZN4core6option15Option$LT$T$GT$7is_some17hc410063462f4d564E:
Lfunc_begin7:
	.file	8 "/rustc/2c8cc343237b8f7d5a3c3703e3a87f2eb2c54a74/library/core/src" "option.rs"
	.loc	8 597 0
	.cfi_startproc
	pushq	%rbp
	.cfi_def_cfa_offset 16
	.cfi_offset %rbp, -16
	movq	%rsp, %rbp
	.cfi_def_cfa_register %rbp
	subq	$16, %rsp
	movq	%rdi, -8(%rbp)
Ltmp22:
	.loc	8 598 18 prologue_end
	movq	8(%rdi), %rdx
	movl	$1, %eax
	xorl	%ecx, %ecx
	cmpq	$0, %rdx
	cmoveq	%rcx, %rax
	.loc	8 598 9 is_stmt 0
	cmpq	$1, %rax
	jne	LBB7_2
	movb	$1, -9(%rbp)
	jmp	LBB7_3
LBB7_2:
	movb	$0, -9(%rbp)
LBB7_3:
	.loc	8 599 6 is_stmt 1
	movb	-9(%rbp), %al
	andb	$1, %al
	movzbl	%al, %eax
	addq	$16, %rsp
	popq	%rbp
	retq
Ltmp23:
Lfunc_end7:
	.cfi_endproc

	.p2align	4, 0x90
__ZN54_$LT$$LP$$RP$$u20$as$u20$std..process..Termination$GT$6report17h15528e8ec4dd975aE:
Lfunc_begin8:
	.loc	4 2182 0
	.cfi_startproc
	pushq	%rbp
	.cfi_def_cfa_offset 16
	.cfi_offset %rbp, -16
	movq	%rsp, %rbp
	.cfi_def_cfa_register %rbp
	pushq	%rax
Ltmp24:
	.loc	4 2184 6 prologue_end
	xorl	%eax, %eax
	addq	$8, %rsp
	popq	%rbp
	retq
Ltmp25:
Lfunc_end8:
	.cfi_endproc

	.p2align	4, 0x90
__ZN18build_script_build4main17ha9b84376e8d5a8baE:
Lfunc_begin9:
	.file	9 "/Users/natalie/.cargo/registry/src/github.com-1ecc6299db9ec823/num-integer-0.1.45" "build.rs"
	.loc	9 5 0
	.cfi_startproc
	.cfi_personality 155, _rust_eh_personality
	.cfi_lsda 16, Lexception1
	pushq	%rbp
	.cfi_def_cfa_offset 16
	.cfi_offset %rbp, -16
	movq	%rsp, %rbp
	.cfi_def_cfa_register %rbp
	subq	$208, %rsp
Ltmp37:
	.loc	9 8 8 prologue_end
	leaq	l___unnamed_2(%rip), %rsi
	leaq	-168(%rbp), %rdi
	movq	%rdi, -184(%rbp)
	movl	$18, %edx
	callq	__ZN3std3env6var_os17h31cd1fd4037c58d8E
	movq	-184(%rbp), %rdi
Ltmp26:
	callq	__ZN4core6option15Option$LT$T$GT$7is_some17hc410063462f4d564E
Ltmp27:
	movb	%al, -170(%rbp)
	jmp	LBB9_3
LBB9_1:
Ltmp29:
	.loc	9 0 8 is_stmt 0
	leaq	-168(%rbp), %rdi
	.loc	9 8 50
	callq	__ZN4core3ptr75drop_in_place$LT$core..option..Option$LT$std..ffi..os_str..OsString$GT$$GT$17hcf24ffb176e8ecaeE
Ltmp30:
	jmp	LBB9_5
LBB9_2:
Ltmp28:
	.loc	9 0 50
	movq	%rax, %rcx
	movl	%edx, %eax
	movq	%rcx, -16(%rbp)
	movl	%eax, -8(%rbp)
	jmp	LBB9_1
LBB9_3:
	.loc	9 8 50
	leaq	-168(%rbp), %rdi
	callq	__ZN4core3ptr75drop_in_place$LT$core..option..Option$LT$std..ffi..os_str..OsString$GT$$GT$17hcf24ffb176e8ecaeE
	movb	-170(%rbp), %al
	.loc	9 8 8
	testb	$1, %al
	jne	LBB9_7
	jmp	LBB9_6
LBB9_4:
Ltmp36:
	.loc	9 5 1 is_stmt 1
	callq	__ZN4core9panicking19panic_cannot_unwind17h1fbca7e1d7f56ae1E
LBB9_5:
	movq	-16(%rbp), %rdi
	callq	__Unwind_Resume
LBB9_6:
	.loc	9 0 1 is_stmt 0
	leaq	-144(%rbp), %rdi
	movq	%rdi, -200(%rbp)
	.loc	9 8 55 is_stmt 1
	callq	__ZN7autocfg3new17h826195da96c0618eE
	movq	-200(%rbp), %rdi
Ltmp31:
	leaq	L___unnamed_3(%rip), %rsi
	movl	$4, %edx
	callq	__ZN7autocfg7AutoCfg10probe_type17hdfa930afa0542df0E
Ltmp32:
	movb	%al, -185(%rbp)
	jmp	LBB9_11
LBB9_7:
	.loc	9 8 8 is_stmt 0
	movb	$1, -169(%rbp)
LBB9_8:
	testb	$1, -169(%rbp)
	jne	LBB9_13
	jmp	LBB9_12
LBB9_9:
Ltmp34:
	.loc	9 0 8
	leaq	-144(%rbp), %rdi
	.loc	9 8 87
	callq	__ZN4core3ptr37drop_in_place$LT$autocfg..AutoCfg$GT$17h4840d40d68673402E
Ltmp35:
	jmp	LBB9_5
LBB9_10:
Ltmp33:
	.loc	9 0 87
	movq	%rax, %rcx
	movl	%edx, %eax
	movq	%rcx, -16(%rbp)
	movl	%eax, -8(%rbp)
	jmp	LBB9_9
LBB9_11:
	.loc	9 8 87
	leaq	-144(%rbp), %rdi
	callq	__ZN4core3ptr37drop_in_place$LT$autocfg..AutoCfg$GT$17h4840d40d68673402E
	movb	-185(%rbp), %al
	.loc	9 8 8
	andb	$1, %al
	movb	%al, -169(%rbp)
	jmp	LBB9_8
LBB9_12:
	.loc	9 12 5 is_stmt 1
	leaq	L___unnamed_4(%rip), %rdi
	movl	$8, %esi
	callq	__ZN7autocfg10rerun_path17h0aab45068290d662E
	.loc	9 13 2
	addq	$208, %rsp
	popq	%rbp
	retq
LBB9_13:
	.loc	9 9 9
	leaq	L___unnamed_5(%rip), %rdi
	movl	$8, %esi
	callq	__ZN7autocfg4emit17h3f17b9b44dfb7d78E
	jmp	LBB9_12
Ltmp38:
Lfunc_end9:
	.cfi_endproc
	.section	__TEXT,__gcc_except_tab
	.p2align	2
GCC_except_table9:
Lexception1:
	.byte	255
	.byte	255
	.byte	1
	.uleb128 Lcst_end1-Lcst_begin1
Lcst_begin1:
	.uleb128 Lfunc_begin9-Lfunc_begin9
	.uleb128 Ltmp26-Lfunc_begin9
	.byte	0
	.byte	0
	.uleb128 Ltmp26-Lfunc_begin9
	.uleb128 Ltmp27-Ltmp26
	.uleb128 Ltmp28-Lfunc_begin9
	.byte	0
	.uleb128 Ltmp29-Lfunc_begin9
	.uleb128 Ltmp30-Ltmp29
	.uleb128 Ltmp36-Lfunc_begin9
	.byte	0
	.uleb128 Ltmp30-Lfunc_begin9
	.uleb128 Ltmp31-Ltmp30
	.byte	0
	.byte	0
	.uleb128 Ltmp31-Lfunc_begin9
	.uleb128 Ltmp32-Ltmp31
	.uleb128 Ltmp33-Lfunc_begin9
	.byte	0
	.uleb128 Ltmp34-Lfunc_begin9
	.uleb128 Ltmp35-Ltmp34
	.uleb128 Ltmp36-Lfunc_begin9
	.byte	0
	.uleb128 Ltmp35-Lfunc_begin9
	.uleb128 Lfunc_end9-Ltmp35
	.byte	0
	.byte	0
Lcst_end1:
	.p2align	2

	.section	__TEXT,__text,regular,pure_instructions
	.globl	_main
	.p2align	4, 0x90
_main:
Lfunc_begin10:
	.cfi_startproc
	pushq	%rbp
	.cfi_def_cfa_offset 16
	.cfi_offset %rbp, -16
	movq	%rsp, %rbp
	.cfi_def_cfa_register %rbp
	movq	%rsi, %rdx
	movslq	%edi, %rsi
	leaq	__ZN18build_script_build4main17ha9b84376e8d5a8baE(%rip), %rdi
	xorl	%ecx, %ecx
	callq	__ZN3std2rt10lang_start17hc9b566c163b48157E
	popq	%rbp
	retq
Lfunc_end10:
	.cfi_endproc

	.section	__DATA,__const
	.p2align	3
l___unnamed_1:
	.quad	__ZN4core3ptr85drop_in_place$LT$std..rt..lang_start$LT$$LP$$RP$$GT$..$u7b$$u7b$closure$u7d$$u7d$$GT$17h8415f7e65f91ddb3E
	.asciz	"\b\000\000\000\000\000\000\000\b\000\000\000\000\000\000"
	.quad	__ZN4core3ops8function6FnOnce40call_once$u7b$$u7b$vtable.shim$u7d$$u7d$17hd25d54e08fdf770fE
	.quad	__ZN3std2rt10lang_start28_$u7b$$u7b$closure$u7d$$u7d$17h10c8cf46c86e3027E
	.quad	__ZN3std2rt10lang_start28_$u7b$$u7b$closure$u7d$$u7d$17h10c8cf46c86e3027E

	.section	__TEXT,__const
l___unnamed_2:
	.ascii	"CARGO_FEATURE_I128"

	.section	__TEXT,__literal4,4byte_literals
L___unnamed_3:
	.ascii	"i128"

	.section	__TEXT,__literal8,8byte_literals
L___unnamed_5:
	.ascii	"has_i128"

L___unnamed_4:
	.ascii	"build.rs"

	.section	__DATA,__const
Lsec_end0:
	.section	__TEXT,__text,regular,pure_instructions
Lsec_end1: