	.section	__TEXT,__text,regular,pure_instructions
	.macosx_version_min 10, 7
	.p2align	4, 0x90
__ZN102_$LT$core..iter..adapters..map..Map$LT$I$C$F$GT$$u20$as$u20$core..iter..traits..iterator..Iterator$GT$8try_fold17hd39b486b30501c7dE:
Lfunc_begin0:
	.file	1 "/rustc/2c8cc343237b8f7d5a3c3703e3a87f2eb2c54a74/library/core/src/iter/adapters" "map.rs"
	.loc	1 111 0
	.cfi_startproc
	.cfi_personality 155, _rust_eh_personality
	.cfi_lsda 16, Lexception0
	pushq	%rbp
	.cfi_def_cfa_offset 16
	.cfi_offset %rbp, -16
	movq	%rsp, %rbp
	.cfi_def_cfa_register %rbp
	subq	$96, %rsp
	movq	%rdi, -72(%rbp)
	movq	%rsi, -64(%rbp)
	movq	%rdi, -40(%rbp)
	movq	%rsi, -32(%rbp)
Ltmp5:
	.loc	1 117 28 prologue_end
	movb	$1, -41(%rbp)
Ltmp0:
	.loc	1 117 34 is_stmt 0
	callq	__ZN4core4iter8adapters3map12map_try_fold17h467cbb1187e021c2E
Ltmp1:
	movq	%rax, -56(%rbp)
	jmp	LBB0_3
LBB0_1:
	.loc	1 117 62
	testb	$1, -41(%rbp)
	jne	LBB0_6
	jmp	LBB0_5
LBB0_2:
Ltmp4:
	.loc	1 0 62
	movq	%rax, %rcx
	movl	%edx, %eax
	movq	%rcx, -16(%rbp)
	movl	%eax, -8(%rbp)
	jmp	LBB0_1
LBB0_3:
	movq	-56(%rbp), %rdx
	movq	-64(%rbp), %rsi
	movq	-72(%rbp), %rdi
	.loc	1 117 9
	movb	$0, -41(%rbp)
Ltmp2:
	callq	__ZN4core4iter6traits8iterator8Iterator8try_fold17hb538b7a468e1c952E
Ltmp3:
	movq	%rdx, -88(%rbp)
	movq	%rax, -80(%rbp)
	jmp	LBB0_4
LBB0_4:
	.loc	1 0 9
	movq	-88(%rbp), %rdx
	movq	-80(%rbp), %rax
	.loc	1 118 6 is_stmt 1
	addq	$96, %rsp
	popq	%rbp
	retq
LBB0_5:
	.loc	1 111 5
	movq	-16(%rbp), %rdi
	callq	__Unwind_Resume
LBB0_6:
	.loc	1 117 62
	jmp	LBB0_5
Ltmp6:
Lfunc_end0:
	.cfi_endproc
	.section	__TEXT,__gcc_except_tab
	.p2align	2
GCC_except_table0:
Lexception0:
	.byte	255
	.byte	255
	.byte	1
	.uleb128 Lcst_end0-Lcst_begin0
Lcst_begin0:
	.uleb128 Ltmp0-Lfunc_begin0
	.uleb128 Ltmp3-Ltmp0
	.uleb128 Ltmp4-Lfunc_begin0
	.byte	0
	.uleb128 Ltmp3-Lfunc_begin0
	.uleb128 Lfunc_end0-Ltmp3
	.byte	0
	.byte	0
Lcst_end0:
	.p2align	2

	.section	__TEXT,__text,regular,pure_instructions
	.p2align	4, 0x90
__ZN106_$LT$core..ops..range..Range$LT$usize$GT$$u20$as$u20$core..slice..index..SliceIndex$LT$$u5b$T$u5d$$GT$$GT$17get_unchecked_mut17h5aaac5a006dcb425E:
Lfunc_begin1:
	.file	2 "/rustc/2c8cc343237b8f7d5a3c3703e3a87f2eb2c54a74/library/core/src/slice" "index.rs"
	.loc	2 391 0
	.cfi_startproc
	pushq	%rbp
	.cfi_def_cfa_offset 16
	.cfi_offset %rbp, -16
	movq	%rsp, %rbp
	.cfi_def_cfa_register %rbp
	subq	$160, %rsp
	movq	%rdi, -128(%rbp)
	movq	%rsi, -120(%rbp)
	movq	%rdx, -112(%rbp)
	movq	%rcx, -104(%rbp)
Ltmp7:
	.loc	2 400 43 prologue_end
	movq	%rdx, -96(%rbp)
	movq	%rcx, -88(%rbp)
Ltmp8:
	.file	3 "/rustc/2c8cc343237b8f7d5a3c3703e3a87f2eb2c54a74/library/core/src/ptr" "mut_ptr.rs"
	.loc	3 2037 9
	movq	%rdx, -80(%rbp)
Ltmp9:
	.loc	2 400 66
	movq	%rdi, -72(%rbp)
Ltmp10:
	.loc	3 1034 18
	movq	%rdx, -64(%rbp)
	.loc	3 1034 30 is_stmt 0
	movq	%rdi, -56(%rbp)
Ltmp11:
	.loc	3 487 18 is_stmt 1
	addq	%rdi, %rdx
	movq	%rdx, -48(%rbp)
	movq	-48(%rbp), %rax
	movq	%rax, -40(%rbp)
Ltmp12:
	.loc	2 400 79
	subq	%rdi, %rsi
	movq	%rsi, -32(%rbp)
Ltmp13:
	.file	4 "/rustc/2c8cc343237b8f7d5a3c3703e3a87f2eb2c54a74/library/core/src/ptr" "mod.rs"
	.loc	4 766 24
	movq	%rax, -24(%rbp)
Ltmp14:
	.loc	3 60 9
	movq	%rax, -16(%rbp)
Ltmp15:
	.loc	4 766 37
	movq	%rsi, -8(%rbp)
Ltmp16:
	.file	5 "/rustc/2c8cc343237b8f7d5a3c3703e3a87f2eb2c54a74/library/core/src/ptr" "metadata.rs"
	.loc	5 135 36
	movq	%rax, -144(%rbp)
	movq	%rsi, -136(%rbp)
	.loc	5 135 14 is_stmt 0
	movq	-144(%rbp), %rcx
	movq	-136(%rbp), %rax
	movq	%rcx, -160(%rbp)
	movq	%rax, -152(%rbp)
	movq	-160(%rbp), %rax
	movq	-152(%rbp), %rdx
Ltmp17:
	.loc	2 402 6 is_stmt 1
	addq	$160, %rsp
	popq	%rbp
	retq
Ltmp18:
Lfunc_end1:
	.cfi_endproc

	.p2align	4, 0x90
__ZN111_$LT$alloc..vec..Vec$LT$T$GT$$u20$as$u20$alloc..vec..spec_from_iter_nested..SpecFromIterNested$LT$T$C$I$GT$$GT$9from_iter17hc0f6426829028903E:
Lfunc_begin2:
	.file	6 "/rustc/2c8cc343237b8f7d5a3c3703e3a87f2eb2c54a74/library/alloc/src/vec" "spec_from_iter_nested.rs"
	.loc	6 20 0
	.cfi_startproc
	.cfi_personality 155, _rust_eh_personality
	.cfi_lsda 16, Lexception1
	pushq	%rbp
	.cfi_def_cfa_offset 16
	.cfi_offset %rbp, -16
	movq	%rsp, %rbp
	.cfi_def_cfa_register %rbp
	subq	$528, %rsp
	movq	%rsi, -456(%rbp)
Ltmp35:
	movq	%rdi, %rax
	movq	-456(%rbp), %rdi
	movq	%rax, -448(%rbp)
	movq	%rax, -440(%rbp)
Ltmp36:
	.loc	6 26 13 prologue_end
	movb	$1, -234(%rbp)
Ltmp19:
	.loc	6 26 32 is_stmt 0
	callq	__ZN90_$LT$core..str..iter..Split$LT$P$GT$$u20$as$u20$core..iter..traits..iterator..Iterator$GT$4next17h85962ae6a274630eE
Ltmp20:
	movq	%rdx, -432(%rbp)
	movq	%rax, -424(%rbp)
	jmp	LBB2_3
Ltmp37:
LBB2_1:
	.loc	6 45 5 is_stmt 1
	testb	$1, -234(%rbp)
	jne	LBB2_19
	jmp	LBB2_18
Ltmp38:
LBB2_2:
Ltmp21:
	.loc	6 0 5 is_stmt 0
	movq	%rax, %rcx
	movl	%edx, %eax
	movq	%rcx, -208(%rbp)
	movl	%eax, -200(%rbp)
	jmp	LBB2_1
Ltmp39:
LBB2_3:
	movq	-432(%rbp), %rax
	movq	-424(%rbp), %rcx
	.loc	6 26 32 is_stmt 1
	movq	%rcx, -392(%rbp)
	movq	%rax, -384(%rbp)
	movq	-392(%rbp), %rdx
	movl	$1, %eax
	xorl	%ecx, %ecx
	cmpq	$0, %rdx
	cmoveq	%rcx, %rax
	.loc	6 26 26 is_stmt 0
	cmpq	$0, %rax
	jne	LBB2_5
Ltmp40:
	.loc	6 0 26
	movq	-448(%rbp), %rax
Ltmp41:
	.file	7 "/rustc/2c8cc343237b8f7d5a3c3703e3a87f2eb2c54a74/library/alloc/src/vec" "mod.rs"
	.loc	7 425 20 is_stmt 1
	movq	L___unnamed_2(%rip), %rdx
	movq	L___unnamed_2+8(%rip), %rcx
	.loc	7 425 9 is_stmt 0
	movq	%rdx, (%rax)
	movq	%rcx, 8(%rax)
	movq	$0, 16(%rax)
Ltmp42:
	.loc	6 45 5 is_stmt 1
	jmp	LBB2_20
Ltmp43:
LBB2_5:
	.loc	6 0 5 is_stmt 0
	movq	-456(%rbp), %rsi
	.loc	6 28 18 is_stmt 1
	movq	-392(%rbp), %rcx
	movq	%rcx, -472(%rbp)
	movq	-384(%rbp), %rax
	movq	%rax, -464(%rbp)
	movq	%rcx, -192(%rbp)
	movq	%rax, -184(%rbp)
Ltmp22:
	leaq	-376(%rbp), %rdi
Ltmp44:
	.loc	6 29 34
	callq	__ZN4core4iter6traits8iterator8Iterator9size_hint17h42aa5b5a9c864aaaE
Ltmp23:
	jmp	LBB2_8
Ltmp45:
LBB2_6:
	.loc	6 39 13
	movb	$1, %al
	testb	$1, %al
	jne	LBB2_14
	jmp	LBB2_1
Ltmp46:
LBB2_7:
Ltmp28:
	.loc	6 0 13 is_stmt 0
	movq	%rax, %rcx
	movl	%edx, %eax
	movq	%rcx, -208(%rbp)
	movl	%eax, -200(%rbp)
	jmp	LBB2_6
Ltmp47:
LBB2_8:
	.loc	6 29 22 is_stmt 1
	movq	-376(%rbp), %rax
	movq	%rax, -176(%rbp)
Ltmp48:
	.loc	6 31 61
	movq	%rax, -168(%rbp)
Ltmp49:
	.file	8 "/rustc/2c8cc343237b8f7d5a3c3703e3a87f2eb2c54a74/library/core/src/num" "uint_macros.rs"
	.loc	8 1022 13
	incq	%rax
	movq	$-1, %rcx
	cmoveq	%rcx, %rax
	movq	%rax, -160(%rbp)
	movq	-160(%rbp), %rax
	movq	%rax, -480(%rbp)
	movq	%rax, -152(%rbp)
Ltmp50:
	.loc	8 0 13 is_stmt 0
	movq	-480(%rbp), %rsi
	.loc	6 31 21 is_stmt 1
	movq	$4, -144(%rbp)
Ltmp51:
	.file	9 "/rustc/2c8cc343237b8f7d5a3c3703e3a87f2eb2c54a74/library/core/src" "cmp.rs"
	.loc	9 1276 5
	movq	$4, -136(%rbp)
	.loc	9 1276 12 is_stmt 0
	movq	%rsi, -128(%rbp)
Ltmp24:
	movl	$4, %edi
Ltmp52:
	.loc	9 803 13 is_stmt 1
	callq	__ZN4core3cmp6max_by17h13f7b8ee2fc50dc2E
Ltmp25:
	movq	%rax, -488(%rbp)
	jmp	LBB2_10
Ltmp53:
LBB2_10:
	.loc	9 0 13 is_stmt 0
	movq	-488(%rbp), %rdi
	.loc	9 803 13
	movq	%rdi, -120(%rbp)
Ltmp54:
	.loc	6 32 53 is_stmt 1
	movq	%rdi, -112(%rbp)
Ltmp55:
	.loc	7 483 32
	movq	%rdi, -104(%rbp)
Ltmp56:
	.loc	7 676 45
	movq	%rdi, -96(%rbp)
Ltmp57:
	.file	10 "/rustc/2c8cc343237b8f7d5a3c3703e3a87f2eb2c54a74/library/alloc/src" "raw_vec.rs"
	.loc	10 131 37
	movb	$0, -233(%rbp)
	.loc	10 131 9 is_stmt 0
	movzbl	-233(%rbp), %esi
Ltmp26:
	callq	__ZN5alloc7raw_vec19RawVec$LT$T$C$A$GT$11allocate_in17hab123b971f4df817E
Ltmp27:
	movq	%rdx, -504(%rbp)
	movq	%rax, -496(%rbp)
	jmp	LBB2_11
Ltmp58:
LBB2_11:
	.loc	10 0 9
	movq	-504(%rbp), %rax
	movq	-496(%rbp), %rcx
	.loc	7 676 9 is_stmt 1
	movq	%rcx, -352(%rbp)
	movq	%rax, -344(%rbp)
	movq	$0, -336(%rbp)
Ltmp59:
	.loc	6 35 32
	leaq	-352(%rbp), %rax
	movq	%rax, -88(%rbp)
Ltmp60:
	.loc	7 1280 19
	leaq	-352(%rbp), %rax
	movq	%rax, -80(%rbp)
Ltmp61:
	.loc	10 224 9
	movq	-344(%rbp), %rax
	movq	%rax, -512(%rbp)
	movq	%rax, -72(%rbp)
Ltmp62:
	.file	11 "/rustc/2c8cc343237b8f7d5a3c3703e3a87f2eb2c54a74/library/core/src/ptr" "unique.rs"
	.loc	11 104 9
	movq	%rax, -64(%rbp)
Ltmp63:
	.file	12 "/rustc/2c8cc343237b8f7d5a3c3703e3a87f2eb2c54a74/library/core/src/ptr" "non_null.rs"
	.loc	12 326 9
	movq	%rax, -56(%rbp)
Ltmp64:
	.loc	7 1282 21
	movq	%rax, -48(%rbp)
Ltmp65:
	.loc	3 52 36
	movq	%rax, -232(%rbp)
	.loc	3 52 18 is_stmt 0
	movq	-232(%rbp), %rax
	movq	%rax, -40(%rbp)
Ltmp66:
	.loc	3 38 13 is_stmt 1
	movq	%rax, -32(%rbp)
Ltmp67:
	.loc	3 215 33
	movq	%rax, -24(%rbp)
	.loc	3 215 18 is_stmt 0
	movq	%rax, -16(%rbp)
	movq	-16(%rbp), %rax
Ltmp68:
	.loc	3 0 18
	movq	-456(%rbp), %rsi
	movq	-512(%rbp), %rax
	movq	-464(%rbp), %rcx
	movq	-472(%rbp), %rdx
	.loc	6 35 53 is_stmt 1
	movq	%rdx, -328(%rbp)
	movq	%rcx, -320(%rbp)
Ltmp69:
	.loc	4 1354 9
	movq	-328(%rbp), %rcx
	movq	-320(%rbp), %rdx
	movq	%rdx, 8(%rax)
	movq	%rcx, (%rax)
	leaq	-352(%rbp), %rax
Ltmp70:
	.loc	6 36 21
	movq	%rax, -8(%rbp)
Ltmp71:
	.loc	7 1377 9
	movq	$1, -336(%rbp)
Ltmp72:
	.loc	6 38 17
	movq	-336(%rbp), %rax
	movq	%rax, -400(%rbp)
	movq	-352(%rbp), %rax
	movq	-344(%rbp), %rcx
	movq	%rcx, -408(%rbp)
	movq	%rax, -416(%rbp)
Ltmp73:
	.loc	6 43 64
	movb	$0, -234(%rbp)
	movl	$9, %ecx
	leaq	-312(%rbp), %rdi
	movq	%rdi, -520(%rbp)
	rep;movsq (%rsi), %es:(%rdi)
	movq	-520(%rbp), %rsi
Ltmp29:
	leaq	-416(%rbp), %rdi
	.loc	6 43 9 is_stmt 0
	callq	__ZN97_$LT$alloc..vec..Vec$LT$T$C$A$GT$$u20$as$u20$alloc..vec..spec_extend..SpecExtend$LT$T$C$I$GT$$GT$11spec_extend17he1354ca7383640f1E
Ltmp30:
	jmp	LBB2_17
Ltmp74:
LBB2_13:
Ltmp34:
	.loc	6 20 5 is_stmt 1
	callq	__ZN4core9panicking19panic_cannot_unwind17h1fbca7e1d7f56ae1E
Ltmp75:
LBB2_14:
	.loc	6 39 13
	jmp	LBB2_1
Ltmp76:
LBB2_15:
Ltmp32:
	.loc	6 0 13 is_stmt 0
	leaq	-416(%rbp), %rdi
	.loc	6 45 5 is_stmt 1
	callq	__ZN4core3ptr51drop_in_place$LT$alloc..vec..Vec$LT$$RF$str$GT$$GT$17hf984b22451e359f1E
Ltmp33:
	jmp	LBB2_1
Ltmp77:
LBB2_16:
Ltmp31:
	.loc	6 0 5 is_stmt 0
	movq	%rax, %rcx
	movl	%edx, %eax
	movq	%rcx, -208(%rbp)
	movl	%eax, -200(%rbp)
	jmp	LBB2_15
Ltmp78:
LBB2_17:
	movq	-448(%rbp), %rax
Ltmp79:
	.loc	6 44 9 is_stmt 1
	movq	-416(%rbp), %rcx
	movq	%rcx, (%rax)
	movq	-408(%rbp), %rcx
	movq	%rcx, 8(%rax)
	movq	-400(%rbp), %rcx
	movq	%rcx, 16(%rax)
Ltmp80:
	.loc	6 45 5
	jmp	LBB2_20
Ltmp81:
LBB2_18:
	.loc	6 20 5
	movq	-208(%rbp), %rdi
	callq	__Unwind_Resume
Ltmp82:
LBB2_19:
	.loc	6 45 5
	jmp	LBB2_18
Ltmp83:
LBB2_20:
	.loc	6 0 5 is_stmt 0
	movq	-440(%rbp), %rax
	.loc	6 45 6
	addq	$528, %rsp
	popq	%rbp
	retq
Ltmp84:
Lfunc_end2:
	.cfi_endproc
	.section	__TEXT,__gcc_except_tab
	.p2align	2
GCC_except_table2:
Lexception1:
	.byte	255
	.byte	255
	.byte	1
	.uleb128 Lcst_end1-Lcst_begin1
Lcst_begin1:
	.uleb128 Ltmp19-Lfunc_begin2
	.uleb128 Ltmp20-Ltmp19
	.uleb128 Ltmp21-Lfunc_begin2
	.byte	0
	.uleb128 Ltmp22-Lfunc_begin2
	.uleb128 Ltmp27-Ltmp22
	.uleb128 Ltmp28-Lfunc_begin2
	.byte	0
	.uleb128 Ltmp29-Lfunc_begin2
	.uleb128 Ltmp30-Ltmp29
	.uleb128 Ltmp31-Lfunc_begin2
	.byte	0
	.uleb128 Ltmp32-Lfunc_begin2
	.uleb128 Ltmp33-Ltmp32
	.uleb128 Ltmp34-Lfunc_begin2
	.byte	0
	.uleb128 Ltmp33-Lfunc_begin2
	.uleb128 Lfunc_end2-Ltmp33
	.byte	0
	.byte	0
Lcst_end1:
	.p2align	2

	.section	__TEXT,__text,regular,pure_instructions
	.p2align	4, 0x90
__ZN3std10sys_common9backtrace28__rust_begin_short_backtrace17hc119bdba3bfdb185E:
Lfunc_begin3:
	.file	13 "/rustc/2c8cc343237b8f7d5a3c3703e3a87f2eb2c54a74/library/std/src/sys_common" "backtrace.rs"
	.loc	13 117 0 is_stmt 1
	.cfi_startproc
	pushq	%rbp
	.cfi_def_cfa_offset 16
	.cfi_offset %rbp, -16
	movq	%rsp, %rbp
	.cfi_def_cfa_register %rbp
	subq	$48, %rsp
	movq	%rdi, -32(%rbp)
Ltmp85:
	.loc	13 121 18 prologue_end
	callq	__ZN4core3ops8function6FnOnce9call_once17hd2a8da57951e2968E
Ltmp86:
	.file	14 "/rustc/2c8cc343237b8f7d5a3c3703e3a87f2eb2c54a74/library/core/src" "hint.rs"
	.loc	14 295 5
	## InlineAsm Start
	## InlineAsm End
Ltmp87:
	.loc	13 127 2
	addq	$48, %rsp
	popq	%rbp
	retq
Ltmp88:
Lfunc_end3:
	.cfi_endproc

	.private_extern	__ZN3std2rt10lang_start17h971ae159162ba7c9E
	.globl	__ZN3std2rt10lang_start17h971ae159162ba7c9E
	.p2align	4, 0x90
__ZN3std2rt10lang_start17h971ae159162ba7c9E:
Lfunc_begin4:
	.file	15 "/rustc/2c8cc343237b8f7d5a3c3703e3a87f2eb2c54a74/library/std/src" "rt.rs"
	.loc	15 159 0
	.cfi_startproc
	pushq	%rbp
	.cfi_def_cfa_offset 16
	.cfi_offset %rbp, -16
	movq	%rsp, %rbp
	.cfi_def_cfa_register %rbp
	subq	$64, %rsp
	movl	%ecx, %eax
	movq	%rdx, %rcx
	movq	%rsi, %rdx
	movq	%rdi, -40(%rbp)
	movq	%rdx, -32(%rbp)
	movq	%rcx, -24(%rbp)
	movb	%al, -9(%rbp)
Ltmp89:
	.loc	15 166 10 prologue_end
	movq	%rdi, -48(%rbp)
	.loc	15 165 17
	leaq	-48(%rbp), %rdi
	leaq	l___unnamed_1(%rip), %rsi
	movzbl	%al, %r8d
	callq	__ZN3std2rt19lang_start_internal17h72dc55d09e0a2397E
	movq	%rax, -56(%rbp)
	.loc	15 165 12 is_stmt 0
	movq	-56(%rbp), %rax
	movq	%rax, -8(%rbp)
	.loc	15 172 2 is_stmt 1
	addq	$64, %rsp
	popq	%rbp
	retq
Ltmp90:
Lfunc_end4:
	.cfi_endproc

	.p2align	4, 0x90
__ZN3std2rt10lang_start28_$u7b$$u7b$closure$u7d$$u7d$17h10038a518b62a946E:
Lfunc_begin5:
	.loc	15 166 0
	.cfi_startproc
	pushq	%rbp
	.cfi_def_cfa_offset 16
	.cfi_offset %rbp, -16
	movq	%rsp, %rbp
	.cfi_def_cfa_register %rbp
	subq	$32, %rsp
	movq	%rdi, -16(%rbp)
Ltmp91:
	.loc	15 166 77 prologue_end
	movq	(%rdi), %rdi
	.loc	15 166 18 is_stmt 0
	callq	__ZN3std10sys_common9backtrace28__rust_begin_short_backtrace17hc119bdba3bfdb185E
	callq	__ZN54_$LT$$LP$$RP$$u20$as$u20$std..process..Termination$GT$6report17h4e431edce173dd47E
	movb	%al, -17(%rbp)
Ltmp92:
	.file	16 "/rustc/2c8cc343237b8f7d5a3c3703e3a87f2eb2c54a74/library/std/src" "process.rs"
	.loc	16 1820 9 is_stmt 1
	leaq	-17(%rbp), %rax
	movq	%rax, -8(%rbp)
Ltmp93:
	.file	17 "/rustc/2c8cc343237b8f7d5a3c3703e3a87f2eb2c54a74/library/std/src/sys/unix/process" "process_common.rs"
	.loc	17 594 9
	movzbl	-17(%rbp), %eax
Ltmp94:
	.loc	15 166 100
	addq	$32, %rsp
	popq	%rbp
	retq
Ltmp95:
Lfunc_end5:
	.cfi_endproc

	.p2align	4, 0x90
__ZN4core3cmp5impls69_$LT$impl$u20$core..cmp..PartialEq$LT$$RF$B$GT$$u20$for$u20$$RF$A$GT$2eq17h85fce115c4c406fdE:
Lfunc_begin6:
	.loc	9 1530 0
	.cfi_startproc
	pushq	%rbp
	.cfi_def_cfa_offset 16
	.cfi_offset %rbp, -16
	movq	%rsp, %rbp
	.cfi_def_cfa_register %rbp
	subq	$16, %rsp
	movq	%rdi, -16(%rbp)
	movq	%rsi, -8(%rbp)
Ltmp96:
	.loc	9 1531 27 prologue_end
	movq	(%rdi), %rdi
	.loc	9 1531 34 is_stmt 0
	movq	(%rsi), %rsi
	.loc	9 1531 13
	callq	__ZN4core3cmp5impls69_$LT$impl$u20$core..cmp..PartialEq$LT$$RF$B$GT$$u20$for$u20$$RF$A$GT$2eq17ha1c8f7d333144631E
	.loc	9 1532 10 is_stmt 1
	andb	$1, %al
	movzbl	%al, %eax
	addq	$16, %rsp
	popq	%rbp
	retq
Ltmp97:
Lfunc_end6:
	.cfi_endproc

	.p2align	4, 0x90
__ZN4core3cmp5impls69_$LT$impl$u20$core..cmp..PartialEq$LT$$RF$B$GT$$u20$for$u20$$RF$A$GT$2eq17ha1c8f7d333144631E:
Lfunc_begin7:
	.loc	9 1530 0
	.cfi_startproc
	pushq	%rbp
	.cfi_def_cfa_offset 16
	.cfi_offset %rbp, -16
	movq	%rsp, %rbp
	.cfi_def_cfa_register %rbp
	subq	$16, %rsp
	movq	%rsi, %rax
	movq	%rdi, %rcx
	movq	%rcx, -16(%rbp)
	movq	%rax, -8(%rbp)
Ltmp98:
	.loc	9 1531 27 prologue_end
	movq	(%rcx), %rdi
	movq	8(%rcx), %rsi
	.loc	9 1531 34 is_stmt 0
	movq	(%rax), %rdx
	movq	8(%rax), %rcx
	.loc	9 1531 13
	callq	__ZN4core3str6traits54_$LT$impl$u20$core..cmp..PartialEq$u20$for$u20$str$GT$2eq17h10c7e5a4b9b0800bE
	.loc	9 1532 10 is_stmt 1
	andb	$1, %al
	movzbl	%al, %eax
	addq	$16, %rsp
	popq	%rbp
	retq
Ltmp99:
Lfunc_end7:
	.cfi_endproc

	.p2align	4, 0x90
__ZN4core3fmt10ArgumentV111new_display17h9c76086abf1dfc2bE:
Lfunc_begin8:
	.file	18 "/rustc/2c8cc343237b8f7d5a3c3703e3a87f2eb2c54a74/library/core/src/fmt" "mod.rs"
	.loc	18 327 0
	.cfi_startproc
	pushq	%rbp
	.cfi_def_cfa_offset 16
	.cfi_offset %rbp, -16
	movq	%rsp, %rbp
	.cfi_def_cfa_register %rbp
	subq	$56, %rsp
	movq	%rdi, -40(%rbp)
Ltmp100:
	.loc	18 328 23 prologue_end
	movq	%rdi, -32(%rbp)
	.loc	18 328 26 is_stmt 0
	movq	__ZN60_$LT$autocfg..error..Error$u20$as$u20$core..fmt..Display$GT$3fmt17h28ac528b50de9399E@GOTPCREL(%rip), %rax
	movq	%rax, -24(%rbp)
Ltmp101:
	.loc	18 347 42 is_stmt 1
	movq	%rax, -16(%rbp)
	movq	-16(%rbp), %rax
	.loc	18 347 68 is_stmt 0
	movq	%rdi, -8(%rbp)
	movq	-8(%rbp), %rcx
	.loc	18 347 18
	movq	%rcx, -56(%rbp)
	movq	%rax, -48(%rbp)
Ltmp102:
	.loc	18 329 10 is_stmt 1
	movq	-56(%rbp), %rax
	movq	-48(%rbp), %rdx
	addq	$56, %rsp
	popq	%rbp
	retq
Ltmp103:
Lfunc_end8:
	.cfi_endproc

	.p2align	4, 0x90
__ZN4core3fmt10ArgumentV111new_display17he23049d8b2a57842E:
Lfunc_begin9:
	.loc	18 327 0
	.cfi_startproc
	pushq	%rbp
	.cfi_def_cfa_offset 16
	.cfi_offset %rbp, -16
	movq	%rsp, %rbp
	.cfi_def_cfa_register %rbp
	subq	$56, %rsp
	movq	%rdi, -40(%rbp)
Ltmp104:
	.loc	18 328 23 prologue_end
	movq	%rdi, -32(%rbp)
	.loc	18 328 26 is_stmt 0
	movq	__ZN57_$LT$std..env..VarError$u20$as$u20$core..fmt..Display$GT$3fmt17hff1ea9f5c9d28420E@GOTPCREL(%rip), %rax
	movq	%rax, -24(%rbp)
Ltmp105:
	.loc	18 347 42 is_stmt 1
	movq	%rax, -16(%rbp)
	movq	-16(%rbp), %rax
	.loc	18 347 68 is_stmt 0
	movq	%rdi, -8(%rbp)
	movq	-8(%rbp), %rcx
	.loc	18 347 18
	movq	%rcx, -56(%rbp)
	movq	%rax, -48(%rbp)
Ltmp106:
	.loc	18 329 10 is_stmt 1
	movq	-56(%rbp), %rax
	movq	-48(%rbp), %rdx
	addq	$56, %rsp
	popq	%rbp
	retq
Ltmp107:
Lfunc_end9:
	.cfi_endproc

	.p2align	4, 0x90
__ZN4core3fmt9Arguments6new_v117h574a8624480134a0E:
Lfunc_begin10:
	.loc	18 399 0
	.cfi_startproc
	pushq	%rbp
	.cfi_def_cfa_offset 16
	.cfi_offset %rbp, -16
	movq	%rsp, %rbp
	.cfi_def_cfa_register %rbp
	subq	$160, %rsp
	movq	%r8, -152(%rbp)
	movq	%rcx, -144(%rbp)
	movq	%rdx, -136(%rbp)
	movq	%rsi, -128(%rbp)
	movq	%rdi, -120(%rbp)
	movq	%rdi, -112(%rbp)
	movq	%rsi, -32(%rbp)
	movq	%rdx, -24(%rbp)
	movq	%rcx, -16(%rbp)
	movq	%r8, -8(%rbp)
Ltmp108:
	.loc	18 400 12 prologue_end
	cmpq	%r8, %rdx
	jb	LBB10_2
	.loc	18 0 12 is_stmt 0
	movq	-136(%rbp), %rax
	movq	-152(%rbp), %rcx
	.loc	18 400 56
	addq	$1, %rcx
	.loc	18 400 41
	cmpq	%rcx, %rax
	seta	%al
	.loc	18 400 12
	andb	$1, %al
	movb	%al, -97(%rbp)
	jmp	LBB10_3
LBB10_2:
	movb	$1, -97(%rbp)
LBB10_3:
	testb	$1, -97(%rbp)
	jne	LBB10_5
	.loc	18 0 12
	movq	-112(%rbp), %rax
	movq	-120(%rbp), %rcx
	movq	-152(%rbp), %rdx
	movq	-144(%rbp), %rsi
	movq	-136(%rbp), %rdi
	movq	-128(%rbp), %r8
	.loc	18 403 34 is_stmt 1
	movq	$0, -48(%rbp)
	.loc	18 403 9 is_stmt 0
	movq	%r8, 16(%rcx)
	movq	%rdi, 24(%rcx)
	movq	-48(%rbp), %r8
	movq	-40(%rbp), %rdi
	movq	%r8, (%rcx)
	movq	%rdi, 8(%rcx)
	movq	%rsi, 32(%rcx)
	movq	%rdx, 40(%rcx)
	.loc	18 404 6 is_stmt 1
	addq	$160, %rsp
	popq	%rbp
	retq
LBB10_5:
	.loc	18 401 13
	leaq	l___unnamed_3(%rip), %rsi
	leaq	l___unnamed_4(%rip), %rcx
	xorl	%eax, %eax
	movl	%eax, %r8d
	leaq	-96(%rbp), %rdi
	movq	%rdi, -160(%rbp)
	movl	$1, %edx
	callq	__ZN4core3fmt9Arguments6new_v117h574a8624480134a0E
	movq	-160(%rbp), %rdi
	leaq	l___unnamed_5(%rip), %rsi
	callq	__ZN4core9panicking9panic_fmt17h9b5d807e24bcaaedE
Ltmp109:
Lfunc_end10:
	.cfi_endproc

	.p2align	4, 0x90
__ZN4core3num23_$LT$impl$u20$usize$GT$11checked_add17h4effb9344aa37833E:
Lfunc_begin11:
	.loc	8 442 0
	.cfi_startproc
	pushq	%rbp
	.cfi_def_cfa_offset 16
	.cfi_offset %rbp, -16
	movq	%rsp, %rbp
	.cfi_def_cfa_register %rbp
	subq	$120, %rsp
	movq	%rdi, -80(%rbp)
	movq	%rsi, -72(%rbp)
Ltmp110:
	.loc	8 443 26 prologue_end
	movq	%rdi, -64(%rbp)
	.loc	8 443 47 is_stmt 0
	movq	%rsi, -56(%rbp)
Ltmp111:
	.loc	8 1479 26 is_stmt 1
	addq	%rsi, %rdi
	setb	%al
	andb	$1, %al
	movq	%rdi, -48(%rbp)
	movb	%al, -40(%rbp)
	movq	-48(%rbp), %rcx
	movb	-40(%rbp), %al
	.loc	8 1479 18 is_stmt 0
	movq	%rcx, -32(%rbp)
	.loc	8 1479 21
	movb	%al, %dl
	andb	$1, %dl
	movb	%dl, -17(%rbp)
Ltmp112:
	.loc	8 1480 13 is_stmt 1
	movq	%rcx, -96(%rbp)
	andb	$1, %al
	movb	%al, -88(%rbp)
Ltmp113:
	.loc	8 443 18
	movq	-96(%rbp), %rax
	movq	%rax, -120(%rbp)
	movq	%rax, -16(%rbp)
	.loc	8 443 21 is_stmt 0
	movb	-88(%rbp), %al
	movb	%al, %cl
	andb	$1, %cl
	movb	%cl, -2(%rbp)
Ltmp114:
	.loc	8 444 16 is_stmt 1
	andb	$1, %al
	movb	%al, -1(%rbp)
	testb	$1, -1(%rbp)
	jne	LBB11_2
	.loc	8 0 16 is_stmt 0
	movq	-120(%rbp), %rax
	.loc	8 444 42
	movq	%rax, -104(%rbp)
	movq	$1, -112(%rbp)
	.loc	8 444 13
	jmp	LBB11_3
LBB11_2:
	.loc	8 444 30
	movq	$0, -112(%rbp)
Ltmp115:
LBB11_3:
	.loc	8 445 10 is_stmt 1
	movq	-112(%rbp), %rax
	movq	-104(%rbp), %rdx
	addq	$120, %rsp
	popq	%rbp
	retq
Ltmp116:
Lfunc_end11:
	.cfi_endproc

	.p2align	4, 0x90
__ZN4core3num23_$LT$impl$u20$usize$GT$11checked_mul17hb5bf1598477b15cfE:
Lfunc_begin12:
	.loc	8 558 0
	.cfi_startproc
	pushq	%rbp
	.cfi_def_cfa_offset 16
	.cfi_offset %rbp, -16
	movq	%rsp, %rbp
	.cfi_def_cfa_register %rbp
	subq	$120, %rsp
	movq	%rdi, %rax
	movq	%rax, -80(%rbp)
	movq	%rsi, -72(%rbp)
Ltmp117:
	.loc	8 559 26 prologue_end
	movq	%rax, -64(%rbp)
	.loc	8 559 47 is_stmt 0
	movq	%rsi, -56(%rbp)
Ltmp118:
	.loc	8 1677 26 is_stmt 1
	mulq	%rsi
	movq	%rax, %rcx
	seto	%al
	andb	$1, %al
	movq	%rcx, -48(%rbp)
	movb	%al, -40(%rbp)
	movq	-48(%rbp), %rcx
	movb	-40(%rbp), %al
	.loc	8 1677 18 is_stmt 0
	movq	%rcx, -32(%rbp)
	.loc	8 1677 21
	movb	%al, %dl
	andb	$1, %dl
	movb	%dl, -17(%rbp)
Ltmp119:
	.loc	8 1678 13 is_stmt 1
	movq	%rcx, -96(%rbp)
	andb	$1, %al
	movb	%al, -88(%rbp)
Ltmp120:
	.loc	8 559 18
	movq	-96(%rbp), %rax
	movq	%rax, -120(%rbp)
	movq	%rax, -16(%rbp)
	.loc	8 559 21 is_stmt 0
	movb	-88(%rbp), %al
	movb	%al, %cl
	andb	$1, %cl
	movb	%cl, -2(%rbp)
Ltmp121:
	.loc	8 560 16 is_stmt 1
	andb	$1, %al
	movb	%al, -1(%rbp)
	testb	$1, -1(%rbp)
	jne	LBB12_2
	.loc	8 0 16 is_stmt 0
	movq	-120(%rbp), %rax
	.loc	8 560 42
	movq	%rax, -104(%rbp)
	movq	$1, -112(%rbp)
	.loc	8 560 13
	jmp	LBB12_3
LBB12_2:
	.loc	8 560 30
	movq	$0, -112(%rbp)
Ltmp122:
LBB12_3:
	.loc	8 561 10 is_stmt 1
	movq	-112(%rbp), %rax
	movq	-104(%rbp), %rdx
	addq	$120, %rsp
	popq	%rbp
	retq
Ltmp123:
Lfunc_end12:
	.cfi_endproc

	.p2align	4, 0x90
__ZN4core3ops8function5FnMut8call_mut17h3ec871fa89e2ea37E:
Lfunc_begin13:
	.file	19 "/rustc/2c8cc343237b8f7d5a3c3703e3a87f2eb2c54a74/library/core/src/ops" "function.rs"
	.loc	19 166 0
	.cfi_startproc
	pushq	%rbp
	.cfi_def_cfa_offset 16
	.cfi_offset %rbp, -16
	movq	%rsp, %rbp
	.cfi_def_cfa_register %rbp
	subq	$32, %rsp
	movq	%rsi, -24(%rbp)
	movq	%rdx, -16(%rbp)
	movq	%rdi, -8(%rbp)
Ltmp124:
	.loc	19 166 5 prologue_end
	movq	-24(%rbp), %rdi
	movq	-16(%rbp), %rsi
	callq	__ZN4core3num23_$LT$impl$u20$usize$GT$11checked_add17h4effb9344aa37833E
	addq	$32, %rsp
	popq	%rbp
	retq
Ltmp125:
Lfunc_end13:
	.cfi_endproc

	.p2align	4, 0x90
__ZN4core3ops8function5impls80_$LT$impl$u20$core..ops..function..FnOnce$LT$A$GT$$u20$for$u20$$RF$mut$u20$F$GT$9call_once17hdf80c0b6c832e817E:
Lfunc_begin14:
	.loc	19 309 0
	.cfi_startproc
	pushq	%rbp
	.cfi_def_cfa_offset 16
	.cfi_offset %rbp, -16
	movq	%rsp, %rbp
	.cfi_def_cfa_register %rbp
	subq	$16, %rsp
	movq	%rsi, -16(%rbp)
	movq	%rdi, -8(%rbp)
Ltmp126:
	.loc	19 310 30 prologue_end
	movq	-16(%rbp), %rsi
	.loc	19 310 13 is_stmt 0
	callq	__ZN5alloc3str17join_generic_copy28_$u7b$$u7b$closure$u7d$$u7d$17ha724d8319618287dE
	.loc	19 311 10 is_stmt 1
	addq	$16, %rsp
	popq	%rbp
	retq
Ltmp127:
Lfunc_end14:
	.cfi_endproc

	.p2align	4, 0x90
__ZN4core3ops8function6FnOnce40call_once$u7b$$u7b$vtable.shim$u7d$$u7d$17hbb1e594e12a4938fE:
Lfunc_begin15:
	.loc	19 250 0
	.cfi_startproc
	pushq	%rbp
	.cfi_def_cfa_offset 16
	.cfi_offset %rbp, -16
	movq	%rsp, %rbp
	.cfi_def_cfa_register %rbp
	subq	$16, %rsp
	movq	%rdi, -8(%rbp)
Ltmp128:
	.loc	19 250 5 prologue_end
	movq	(%rdi), %rdi
	callq	__ZN4core3ops8function6FnOnce9call_once17ha2b2cbc106e27388E
	addq	$16, %rsp
	popq	%rbp
	retq
Ltmp129:
Lfunc_end15:
	.cfi_endproc

	.p2align	4, 0x90
__ZN4core3ops8function6FnOnce9call_once17ha2b2cbc106e27388E:
Lfunc_begin16:
	.loc	19 250 0
	.cfi_startproc
	.cfi_personality 155, _rust_eh_personality
	.cfi_lsda 16, Lexception2
	pushq	%rbp
	.cfi_def_cfa_offset 16
	.cfi_offset %rbp, -16
	movq	%rsp, %rbp
	.cfi_def_cfa_register %rbp
	subq	$48, %rsp
	movq	%rdi, -32(%rbp)
Ltmp130:
	leaq	-32(%rbp), %rdi
Ltmp133:
	.loc	19 250 5 prologue_end
	callq	__ZN3std2rt10lang_start28_$u7b$$u7b$closure$u7d$$u7d$17h10038a518b62a946E
Ltmp131:
	movl	%eax, -36(%rbp)
	jmp	LBB16_3
LBB16_1:
	movq	-16(%rbp), %rdi
	callq	__Unwind_Resume
LBB16_2:
Ltmp132:
	.loc	19 0 5 is_stmt 0
	movq	%rax, %rcx
	movl	%edx, %eax
	movq	%rcx, -16(%rbp)
	movl	%eax, -8(%rbp)
	jmp	LBB16_1
LBB16_3:
	movl	-36(%rbp), %eax
	.loc	19 250 5
	addq	$48, %rsp
	popq	%rbp
	retq
Ltmp134:
Lfunc_end16:
	.cfi_endproc
	.section	__TEXT,__gcc_except_tab
	.p2align	2
GCC_except_table16:
Lexception2:
	.byte	255
	.byte	255
	.byte	1
	.uleb128 Lcst_end2-Lcst_begin2
Lcst_begin2:
	.uleb128 Ltmp130-Lfunc_begin16
	.uleb128 Ltmp131-Ltmp130
	.uleb128 Ltmp132-Lfunc_begin16
	.byte	0
	.uleb128 Ltmp131-Lfunc_begin16
	.uleb128 Lfunc_end16-Ltmp131
	.byte	0
	.byte	0
Lcst_end2:
	.p2align	2

	.section	__TEXT,__text,regular,pure_instructions
	.p2align	4, 0x90
__ZN4core3ops8function6FnOnce9call_once17hd2a8da57951e2968E:
Lfunc_begin17:
	.loc	19 250 0 is_stmt 1
	.cfi_startproc
	pushq	%rbp
	.cfi_def_cfa_offset 16
	.cfi_offset %rbp, -16
	movq	%rsp, %rbp
	.cfi_def_cfa_register %rbp
	subq	$16, %rsp
	movq	%rdi, -8(%rbp)
Ltmp135:
	.loc	19 250 5 prologue_end
	callq	*%rdi
	addq	$16, %rsp
	popq	%rbp
	retq
Ltmp136:
Lfunc_end17:
	.cfi_endproc

	.p2align	4, 0x90
__ZN4core3ptr51drop_in_place$LT$alloc..vec..Vec$LT$$RF$str$GT$$GT$17hf984b22451e359f1E:
Lfunc_begin18:
	.loc	4 490 0
	.cfi_startproc
	.cfi_personality 155, _rust_eh_personality
	.cfi_lsda 16, Lexception3
	pushq	%rbp
	.cfi_def_cfa_offset 16
	.cfi_offset %rbp, -16
	movq	%rsp, %rbp
	.cfi_def_cfa_register %rbp
	subq	$32, %rsp
	movq	%rdi, -32(%rbp)
	movq	%rdi, -24(%rbp)
Ltmp137:
Ltmp143:
	.loc	4 490 1 prologue_end
	callq	__ZN70_$LT$alloc..vec..Vec$LT$T$C$A$GT$$u20$as$u20$core..ops..drop..Drop$GT$4drop17h47c4887ab2c88e21E
Ltmp138:
	jmp	LBB18_3
LBB18_1:
Ltmp140:
	.loc	4 0 1 is_stmt 0
	movq	-32(%rbp), %rdi
	.loc	4 490 1
	callq	__ZN4core3ptr58drop_in_place$LT$alloc..raw_vec..RawVec$LT$$RF$str$GT$$GT$17hbaec00169c7e7ae1E
Ltmp141:
	jmp	LBB18_5
LBB18_2:
Ltmp139:
	.loc	4 0 1
	movq	%rax, %rcx
	movl	%edx, %eax
	movq	%rcx, -16(%rbp)
	movl	%eax, -8(%rbp)
	jmp	LBB18_1
LBB18_3:
	movq	-32(%rbp), %rdi
	.loc	4 490 1
	callq	__ZN4core3ptr58drop_in_place$LT$alloc..raw_vec..RawVec$LT$$RF$str$GT$$GT$17hbaec00169c7e7ae1E
	addq	$32, %rsp
	popq	%rbp
	retq
LBB18_4:
Ltmp142:
	callq	__ZN4core9panicking19panic_cannot_unwind17h1fbca7e1d7f56ae1E
LBB18_5:
	movq	-16(%rbp), %rdi
	callq	__Unwind_Resume
Ltmp144:
Lfunc_end18:
	.cfi_endproc
	.section	__TEXT,__gcc_except_tab
	.p2align	2
GCC_except_table18:
Lexception3:
	.byte	255
	.byte	255
	.byte	1
	.uleb128 Lcst_end3-Lcst_begin3
Lcst_begin3:
	.uleb128 Ltmp137-Lfunc_begin18
	.uleb128 Ltmp138-Ltmp137
	.uleb128 Ltmp139-Lfunc_begin18
	.byte	0
	.uleb128 Ltmp140-Lfunc_begin18
	.uleb128 Ltmp141-Ltmp140
	.uleb128 Ltmp142-Lfunc_begin18
	.byte	0
	.uleb128 Ltmp141-Lfunc_begin18
	.uleb128 Lfunc_end18-Ltmp141
	.byte	0
	.byte	0
Lcst_end3:
	.p2align	2

	.section	__TEXT,__text,regular,pure_instructions
	.p2align	4, 0x90
__ZN4core3ptr58drop_in_place$LT$alloc..raw_vec..RawVec$LT$$RF$str$GT$$GT$17hbaec00169c7e7ae1E:
Lfunc_begin19:
	.loc	4 490 0 is_stmt 1
	.cfi_startproc
	pushq	%rbp
	.cfi_def_cfa_offset 16
	.cfi_offset %rbp, -16
	movq	%rsp, %rbp
	.cfi_def_cfa_register %rbp
	subq	$16, %rsp
	movq	%rdi, -8(%rbp)
Ltmp145:
	.loc	4 490 1 prologue_end
	callq	__ZN77_$LT$alloc..raw_vec..RawVec$LT$T$C$A$GT$$u20$as$u20$core..ops..drop..Drop$GT$4drop17ha7581a90a663927aE
	addq	$16, %rsp
	popq	%rbp
	retq
Ltmp146:
Lfunc_end19:
	.cfi_endproc

	.p2align	4, 0x90
__ZN4core3ptr85drop_in_place$LT$std..rt..lang_start$LT$$LP$$RP$$GT$..$u7b$$u7b$closure$u7d$$u7d$$GT$17h19d8769e3cf94b62E:
Lfunc_begin20:
	.loc	4 490 0
	.cfi_startproc
	pushq	%rbp
	.cfi_def_cfa_offset 16
	.cfi_offset %rbp, -16
	movq	%rsp, %rbp
	.cfi_def_cfa_register %rbp
	pushq	%rax
	movq	%rdi, -8(%rbp)
Ltmp147:
	.loc	4 490 1 prologue_end
	addq	$8, %rsp
	popq	%rbp
	retq
Ltmp148:
Lfunc_end20:
	.cfi_endproc

	.p2align	4, 0x90
__ZN4core3ptr9const_ptr33_$LT$impl$u20$$BP$const$u20$T$GT$7sub_ptr17h04e09944121424e6E:
Lfunc_begin21:
	.file	20 "/rustc/2c8cc343237b8f7d5a3c3703e3a87f2eb2c54a74/library/core/src/ptr" "const_ptr.rs"
	.loc	20 791 0
	.cfi_startproc
	pushq	%rbp
	.cfi_def_cfa_offset 16
	.cfi_offset %rbp, -16
	movq	%rsp, %rbp
	.cfi_def_cfa_register %rbp
	subq	$64, %rsp
	movq	%rdi, -56(%rbp)
	movq	%rsi, -48(%rbp)
	movq	%rdi, -32(%rbp)
	movq	%rsi, -24(%rbp)
Ltmp149:
	.file	21 "/rustc/2c8cc343237b8f7d5a3c3703e3a87f2eb2c54a74/library/core/src/mem" "mod.rs"
	.loc	21 309 5 prologue_end
	movq	$16, -16(%rbp)
Ltmp150:
	.loc	20 806 17
	movb	$1, %al
	testb	$1, %al
	jne	LBB21_2
	movb	$0, -33(%rbp)
	jmp	LBB21_3
LBB21_2:
	movb	$1, -33(%rbp)
LBB21_3:
	.loc	20 806 9 is_stmt 0
	movb	-33(%rbp), %al
	xorb	$-1, %al
	testb	$1, %al
	jne	LBB21_5
	.loc	20 0 9
	movq	-48(%rbp), %rcx
	movq	-56(%rbp), %rax
	.loc	20 808 18 is_stmt 1
	subq	%rcx, %rax
	shrq	$4, %rax
	movq	%rax, -8(%rbp)
	movq	-8(%rbp), %rax
Ltmp151:
	.loc	20 809 6
	addq	$64, %rsp
	popq	%rbp
	retq
LBB21_5:
Ltmp152:
	.loc	20 806 9
	leaq	l___unnamed_6(%rip), %rdi
	leaq	l___unnamed_7(%rip), %rdx
	movl	$73, %esi
	callq	__ZN4core9panicking5panic17hc1bc45270cf64b03E
Ltmp153:
Lfunc_end21:
	.cfi_endproc

	.p2align	4, 0x90
__ZN4core3str6traits54_$LT$impl$u20$core..cmp..PartialEq$u20$for$u20$str$GT$2eq17h10c7e5a4b9b0800bE:
Lfunc_begin22:
	.file	22 "/rustc/2c8cc343237b8f7d5a3c3703e3a87f2eb2c54a74/library/core/src/str" "traits.rs"
	.loc	22 28 0
	.cfi_startproc
	pushq	%rbp
	.cfi_def_cfa_offset 16
	.cfi_offset %rbp, -16
	movq	%rsp, %rbp
	.cfi_def_cfa_register %rbp
	subq	$112, %rsp
	movq	%rdi, -80(%rbp)
	movq	%rsi, -72(%rbp)
	movq	%rdx, -64(%rbp)
	movq	%rcx, -56(%rbp)
Ltmp154:
	.loc	22 29 9 prologue_end
	movq	%rdi, -48(%rbp)
	movq	%rsi, -40(%rbp)
Ltmp155:
	.file	23 "/rustc/2c8cc343237b8f7d5a3c3703e3a87f2eb2c54a74/library/core/src/str" "mod.rs"
	.loc	23 327 18
	movq	%rdi, -112(%rbp)
	movq	%rsi, -104(%rbp)
Ltmp156:
	.loc	22 29 9
	leaq	-112(%rbp), %rax
	movq	%rax, -32(%rbp)
	.loc	22 29 28 is_stmt 0
	movq	%rdx, -24(%rbp)
	movq	%rcx, -16(%rbp)
Ltmp157:
	.loc	23 327 18 is_stmt 1
	movq	%rdx, -96(%rbp)
	movq	%rcx, -88(%rbp)
Ltmp158:
	.loc	22 29 28
	leaq	-96(%rbp), %rax
	movq	%rax, -8(%rbp)
Ltmp159:
	.loc	9 1531 27
	movq	-112(%rbp), %rdi
	movq	-104(%rbp), %rsi
	.loc	9 1531 34 is_stmt 0
	movq	-96(%rbp), %rdx
	movq	-88(%rbp), %rcx
	.loc	9 1531 13
	callq	__ZN4core5slice3cmp81_$LT$impl$u20$core..cmp..PartialEq$LT$$u5b$B$u5d$$GT$$u20$for$u20$$u5b$A$u5d$$GT$2eq17hd41b7aafdd62a6d3E
Ltmp160:
	.loc	22 30 6 is_stmt 1
	andb	$1, %al
	movzbl	%al, %eax
	addq	$112, %rsp
	popq	%rbp
	retq
Ltmp161:
Lfunc_end22:
	.cfi_endproc

	.p2align	4, 0x90
__ZN4core3str74_$LT$impl$u20$core..convert..AsRef$LT$$u5b$u8$u5d$$GT$$u20$for$u20$str$GT$6as_ref17he92abc95714f871dE:
Lfunc_begin23:
	.loc	23 2579 0
	.cfi_startproc
	pushq	%rbp
	.cfi_def_cfa_offset 16
	.cfi_offset %rbp, -16
	movq	%rsp, %rbp
	.cfi_def_cfa_register %rbp
	subq	$48, %rsp
	movq	%rdi, -48(%rbp)
	movq	%rsi, -40(%rbp)
Ltmp162:
	.loc	23 2580 9 prologue_end
	movq	%rdi, -32(%rbp)
	movq	%rsi, -24(%rbp)
Ltmp163:
	.loc	23 327 18
	movq	%rdi, -16(%rbp)
	movq	%rsi, -8(%rbp)
	movq	-16(%rbp), %rax
	movq	-8(%rbp), %rdx
Ltmp164:
	.loc	23 2581 6
	addq	$48, %rsp
	popq	%rbp
	retq
Ltmp165:
Lfunc_end23:
	.cfi_endproc

	.p2align	4, 0x90
__ZN4core4iter6traits8iterator8Iterator7collect17ha89c53a995faac48E:
Lfunc_begin24:
	.file	24 "/rustc/2c8cc343237b8f7d5a3c3703e3a87f2eb2c54a74/library/core/src/iter/traits" "iterator.rs"
	.loc	24 1856 0
	.cfi_startproc
	pushq	%rbp
	.cfi_def_cfa_offset 16
	.cfi_offset %rbp, -16
	movq	%rsp, %rbp
	.cfi_def_cfa_register %rbp
	subq	$96, %rsp
	movq	%rdi, -88(%rbp)
	movq	%rdi, -80(%rbp)
Ltmp166:
	.loc	24 1860 33 prologue_end
	leaq	-72(%rbp), %rdi
	movl	$72, %edx
	callq	_memcpy
Ltmp167:
	.loc	24 0 33 is_stmt 0
	movq	-88(%rbp), %rdi
	.loc	24 1860 9
	leaq	-72(%rbp), %rsi
	callq	__ZN95_$LT$alloc..vec..Vec$LT$T$GT$$u20$as$u20$core..iter..traits..collect..FromIterator$LT$T$GT$$GT$9from_iter17hf0d7e63061c4f51eE
	movq	-80(%rbp), %rax
	.loc	24 1861 6 is_stmt 1
	addq	$96, %rsp
	popq	%rbp
	retq
Ltmp168:
Lfunc_end24:
	.cfi_endproc

	.p2align	4, 0x90
__ZN4core4iter6traits8iterator8Iterator8try_fold17hb538b7a468e1c952E:
Lfunc_begin25:
	.loc	24 2254 0
	.cfi_startproc
	.cfi_personality 155, _rust_eh_personality
	.cfi_lsda 16, Lexception4
	pushq	%rbp
	.cfi_def_cfa_offset 16
	.cfi_offset %rbp, -16
	movq	%rsp, %rbp
	.cfi_def_cfa_register %rbp
	subq	$224, %rsp
	movq	%rdi, -144(%rbp)
	movq	%rdx, -136(%rbp)
	movq	%rdi, -56(%rbp)
	movq	%rsi, -48(%rbp)
Ltmp180:
	.loc	24 2260 25 prologue_end
	movb	$1, -57(%rbp)
	movq	%rsi, -112(%rbp)
LBB25_1:
Ltmp169:
	.loc	24 0 25 is_stmt 0
	movq	-144(%rbp), %rdi
Ltmp181:
	.loc	24 2261 29 is_stmt 1
	callq	__ZN91_$LT$core..slice..iter..Iter$LT$T$GT$$u20$as$u20$core..iter..traits..iterator..Iterator$GT$4next17h33ad792353a4b4efE
Ltmp170:
	movq	%rax, -152(%rbp)
	jmp	LBB25_4
Ltmp182:
LBB25_2:
	.loc	24 2265 5
	testb	$1, -57(%rbp)
	jne	LBB25_16
	jmp	LBB25_15
LBB25_3:
Ltmp179:
	.loc	24 0 5 is_stmt 0
	movq	%rax, %rcx
	movl	%edx, %eax
	movq	%rcx, -32(%rbp)
	movl	%eax, -24(%rbp)
	jmp	LBB25_2
LBB25_4:
	movq	-152(%rbp), %rax
Ltmp183:
	.loc	24 2261 29 is_stmt 1
	movq	%rax, -104(%rbp)
	.loc	24 2261 19 is_stmt 0
	movq	-104(%rbp), %rdx
	movl	$1, %eax
	xorl	%ecx, %ecx
	cmpq	$0, %rdx
	cmoveq	%rcx, %rax
	cmpq	$1, %rax
	jne	LBB25_6
	.loc	24 2261 24
	movq	-104(%rbp), %rax
	movq	%rax, -16(%rbp)
	.loc	24 2262 23 is_stmt 1
	movb	$0, -57(%rbp)
	movq	-112(%rbp), %rcx
	.loc	24 2262 21 is_stmt 0
	movq	%rcx, -80(%rbp)
	movq	%rax, -72(%rbp)
	movq	-80(%rbp), %rsi
	movq	-72(%rbp), %rdx
Ltmp173:
	leaq	-136(%rbp), %rdi
	callq	__ZN4core4iter8adapters3map12map_try_fold28_$u7b$$u7b$closure$u7d$$u7d$17hc93c6be15787934cE
Ltmp174:
	movq	%rdx, -168(%rbp)
	movq	%rax, -160(%rbp)
	jmp	LBB25_10
Ltmp184:
LBB25_6:
	.loc	24 2261 9 is_stmt 1
	jmp	LBB25_7
LBB25_7:
	.loc	24 2264 15
	movb	$0, -57(%rbp)
	movq	-112(%rbp), %rdi
Ltmp171:
	callq	__ZN75_$LT$core..option..Option$LT$T$GT$$u20$as$u20$core..ops..try_trait..Try$GT$11from_output17h23cc18f4d7b0017bE
Ltmp172:
	movq	%rdx, -184(%rbp)
	movq	%rax, -176(%rbp)
	jmp	LBB25_8
LBB25_8:
	.loc	24 0 15 is_stmt 0
	movq	-184(%rbp), %rax
	movq	-176(%rbp), %rcx
	.loc	24 2264 15
	movq	%rcx, -128(%rbp)
	movq	%rax, -120(%rbp)
Ltmp185:
LBB25_9:
	.loc	24 2265 6 is_stmt 1
	movq	-128(%rbp), %rax
	movq	-120(%rbp), %rdx
	addq	$224, %rsp
	popq	%rbp
	retq
LBB25_10:
Ltmp175:
	.loc	24 0 6 is_stmt 0
	movq	-168(%rbp), %rsi
	movq	-160(%rbp), %rdi
Ltmp186:
	.loc	24 2262 21 is_stmt 1
	callq	__ZN75_$LT$core..option..Option$LT$T$GT$$u20$as$u20$core..ops..try_trait..Try$GT$6branch17ha2761298492a647dE
Ltmp176:
	movq	%rdx, -200(%rbp)
	movq	%rax, -192(%rbp)
	jmp	LBB25_11
LBB25_11:
	.loc	24 0 21 is_stmt 0
	movq	-200(%rbp), %rax
	movq	-192(%rbp), %rcx
	.loc	24 2262 21
	movq	%rcx, -96(%rbp)
	movq	%rax, -88(%rbp)
	cmpq	$0, -96(%rbp)
	jne	LBB25_13
	movq	-88(%rbp), %rax
	movq	%rax, -8(%rbp)
	.loc	24 2262 13
	movb	$1, -57(%rbp)
	movq	%rax, -112(%rbp)
Ltmp187:
	.loc	24 2261 9 is_stmt 1
	jmp	LBB25_1
LBB25_13:
Ltmp177:
Ltmp188:
	.loc	24 2262 21
	callq	__ZN84_$LT$core..option..Option$LT$T$GT$$u20$as$u20$core..ops..try_trait..FromResidual$GT$13from_residual17h96c47aecdcd6b046E
Ltmp178:
	movq	%rdx, -216(%rbp)
	movq	%rax, -208(%rbp)
	jmp	LBB25_14
LBB25_14:
	.loc	24 0 21 is_stmt 0
	movq	-216(%rbp), %rax
	movq	-208(%rbp), %rcx
	.loc	24 2262 21
	movq	%rcx, -128(%rbp)
	movq	%rax, -120(%rbp)
Ltmp189:
	.loc	24 2265 5 is_stmt 1
	jmp	LBB25_9
LBB25_15:
	.loc	24 2254 5
	movq	-32(%rbp), %rdi
	callq	__Unwind_Resume
LBB25_16:
	.loc	24 2265 5
	jmp	LBB25_15
Ltmp190:
Lfunc_end25:
	.cfi_endproc
	.section	__TEXT,__gcc_except_tab
	.p2align	2
GCC_except_table25:
Lexception4:
	.byte	255
	.byte	255
	.byte	1
	.uleb128 Lcst_end4-Lcst_begin4
Lcst_begin4:
	.uleb128 Ltmp169-Lfunc_begin25
	.uleb128 Ltmp178-Ltmp169
	.uleb128 Ltmp179-Lfunc_begin25
	.byte	0
	.uleb128 Ltmp178-Lfunc_begin25
	.uleb128 Lfunc_end25-Ltmp178
	.byte	0
	.byte	0
Lcst_end4:
	.p2align	2

	.section	__TEXT,__text,regular,pure_instructions
	.p2align	4, 0x90
__ZN4core4iter8adapters3map12map_try_fold17h467cbb1187e021c2E:
Lfunc_begin26:
	.loc	1 87 0
	.cfi_startproc
	pushq	%rbp
	.cfi_def_cfa_offset 16
	.cfi_offset %rbp, -16
	movq	%rsp, %rbp
	.cfi_def_cfa_register %rbp
	subq	$24, %rsp
	movq	%rdi, -16(%rbp)
Ltmp191:
	.loc	1 91 5 prologue_end
	movq	%rdi, -24(%rbp)
	.loc	1 92 2
	movq	-24(%rbp), %rax
	addq	$24, %rsp
	popq	%rbp
	retq
Ltmp192:
Lfunc_end26:
	.cfi_endproc

	.p2align	4, 0x90
__ZN4core4iter8adapters3map12map_try_fold28_$u7b$$u7b$closure$u7d$$u7d$17hc93c6be15787934cE:
Lfunc_begin27:
	.loc	1 91 0
	.cfi_startproc
	.cfi_personality 155, _rust_eh_personality
	.cfi_lsda 16, Lexception5
	pushq	%rbp
	.cfi_def_cfa_offset 16
	.cfi_offset %rbp, -16
	movq	%rsp, %rbp
	.cfi_def_cfa_register %rbp
	subq	$112, %rsp
	movq	%rdi, -96(%rbp)
	movq	%rsi, -88(%rbp)
	movq	%rdi, -40(%rbp)
	movq	%rsi, -32(%rbp)
	movq	%rdx, -24(%rbp)
Ltmp198:
	.loc	1 91 23 prologue_end
	movb	$1, -41(%rbp)
	.loc	1 91 28 is_stmt 0
	movq	(%rdi), %rdi
	movq	%rdx, -56(%rbp)
	movq	-56(%rbp), %rsi
Ltmp193:
	callq	__ZN5alloc3str17join_generic_copy28_$u7b$$u7b$closure$u7d$$u7d$28_$u7b$$u7b$closure$u7d$$u7d$17hb504aeb605e45f0dE
Ltmp194:
	movq	%rax, -80(%rbp)
	jmp	LBB27_3
LBB27_1:
	.loc	1 91 34
	testb	$1, -41(%rbp)
	jne	LBB27_6
	jmp	LBB27_5
LBB27_2:
Ltmp197:
	.loc	1 0 34
	movq	%rax, %rcx
	movl	%edx, %eax
	movq	%rcx, -16(%rbp)
	movl	%eax, -8(%rbp)
	jmp	LBB27_1
LBB27_3:
	movq	-96(%rbp), %rdi
	movq	-80(%rbp), %rax
	movq	-88(%rbp), %rcx
	.loc	1 91 21
	movb	$0, -41(%rbp)
	movq	%rcx, -72(%rbp)
	movq	%rax, -64(%rbp)
	movq	-72(%rbp), %rsi
	movq	-64(%rbp), %rdx
Ltmp195:
	callq	__ZN4core3ops8function5FnMut8call_mut17h3ec871fa89e2ea37E
Ltmp196:
	movq	%rdx, -112(%rbp)
	movq	%rax, -104(%rbp)
	jmp	LBB27_4
LBB27_4:
	.loc	1 0 21
	movq	-112(%rbp), %rdx
	movq	-104(%rbp), %rax
	.loc	1 91 35
	addq	$112, %rsp
	popq	%rbp
	retq
LBB27_5:
	.loc	1 91 5
	movq	-16(%rbp), %rdi
	callq	__Unwind_Resume
LBB27_6:
	.loc	1 91 34
	jmp	LBB27_5
Ltmp199:
Lfunc_end27:
	.cfi_endproc
	.section	__TEXT,__gcc_except_tab
	.p2align	2
GCC_except_table27:
Lexception5:
	.byte	255
	.byte	255
	.byte	1
	.uleb128 Lcst_end5-Lcst_begin5
Lcst_begin5:
	.uleb128 Ltmp193-Lfunc_begin27
	.uleb128 Ltmp196-Ltmp193
	.uleb128 Ltmp197-Lfunc_begin27
	.byte	0
	.uleb128 Ltmp196-Lfunc_begin27
	.uleb128 Lfunc_end27-Ltmp196
	.byte	0
	.byte	0
Lcst_end5:
	.p2align	2

	.section	__TEXT,__text,regular,pure_instructions
	.p2align	4, 0x90
__ZN4core4iter8adapters3map16Map$LT$I$C$F$GT$3new17h7d3795c1c12993d8E:
Lfunc_begin28:
	.loc	1 68 0 is_stmt 1
	.cfi_startproc
	pushq	%rbp
	.cfi_def_cfa_offset 16
	.cfi_offset %rbp, -16
	movq	%rsp, %rbp
	.cfi_def_cfa_register %rbp
	subq	$40, %rsp
	movq	%rdi, -24(%rbp)
	movq	%rsi, -16(%rbp)
Ltmp200:
	.loc	1 69 9 prologue_end
	movq	%rdi, -40(%rbp)
	movq	%rsi, -32(%rbp)
	.loc	1 70 6
	movq	-40(%rbp), %rax
	movq	-32(%rbp), %rdx
	addq	$40, %rsp
	popq	%rbp
	retq
Ltmp201:
Lfunc_end28:
	.cfi_endproc

	.p2align	4, 0x90
__ZN4core4iter8adapters3map16Map$LT$I$C$F$GT$3new17ha68c592e86a249b3E:
Lfunc_begin29:
	.loc	1 68 0
	.cfi_startproc
	pushq	%rbp
	.cfi_def_cfa_offset 16
	.cfi_offset %rbp, -16
	movq	%rsp, %rbp
	.cfi_def_cfa_register %rbp
	subq	$40, %rsp
	movq	%rdi, -24(%rbp)
	movq	%rsi, -16(%rbp)
Ltmp202:
	.loc	1 69 9 prologue_end
	movq	%rdi, -40(%rbp)
	movq	%rsi, -32(%rbp)
	.loc	1 70 6
	movq	-40(%rbp), %rax
	movq	-32(%rbp), %rdx
	addq	$40, %rsp
	popq	%rbp
	retq
Ltmp203:
Lfunc_end29:
	.cfi_endproc

	.p2align	4, 0x90
__ZN4core5alloc6layout6Layout5array5inner17h5ed937c90de90f52E:
Lfunc_begin30:
	.file	25 "/rustc/2c8cc343237b8f7d5a3c3703e3a87f2eb2c54a74/library/core/src/alloc" "layout.rs"
	.loc	25 441 0
	.cfi_startproc
	pushq	%rbp
	.cfi_def_cfa_offset 16
	.cfi_offset %rbp, -16
	movq	%rsp, %rbp
	.cfi_def_cfa_register %rbp
	subq	$176, %rsp
	movq	%rdi, -168(%rbp)
	movq	%rsi, -160(%rbp)
	movq	%rdx, -152(%rbp)
	movq	%rdi, -88(%rbp)
	movq	%rsi, -80(%rbp)
	movq	%rdx, -72(%rbp)
Ltmp204:
	.loc	25 452 16 prologue_end
	cmpq	$0, %rdi
	jne	LBB30_2
	movb	$0, -121(%rbp)
	jmp	LBB30_5
LBB30_2:
	.loc	25 0 16 is_stmt 0
	movq	-168(%rbp), %rax
	movq	-160(%rbp), %rcx
	.loc	25 452 68
	movq	%rcx, -64(%rbp)
Ltmp205:
	.loc	25 93 32 is_stmt 1
	movq	%rcx, -56(%rbp)
Ltmp206:
	.file	26 "/rustc/2c8cc343237b8f7d5a3c3703e3a87f2eb2c54a74/library/core/src/ptr" "alignment.rs"
	.loc	26 97 9
	movq	%rcx, -104(%rbp)
	movq	-104(%rbp), %rdx
Ltmp207:
	.loc	25 93 31
	subq	$1, %rdx
	.loc	25 93 9 is_stmt 0
	movabsq	$9223372036854775807, %rcx
	subq	%rdx, %rcx
	movq	%rcx, -176(%rbp)
Ltmp208:
	.loc	25 452 41 is_stmt 1
	cmpq	$0, %rax
	sete	%al
	testb	$1, %al
	jne	LBB30_4
	.loc	25 0 41 is_stmt 0
	movq	-168(%rbp), %rcx
	movq	-176(%rbp), %rax
	.loc	25 452 41
	xorl	%edx, %edx
	divq	%rcx
	movq	%rax, %rcx
	movq	-152(%rbp), %rax
	.loc	25 452 37
	cmpq	%rcx, %rax
	seta	%al
	.loc	25 452 16
	andb	$1, %al
	movb	%al, -121(%rbp)
	jmp	LBB30_5
LBB30_4:
	.loc	25 452 41
	leaq	_str.0(%rip), %rdi
	leaq	l___unnamed_8(%rip), %rdx
	movl	$25, %esi
	callq	__ZN4core9panicking5panic17hc1bc45270cf64b03E
LBB30_5:
	.loc	25 452 16
	testb	$1, -121(%rbp)
	jne	LBB30_7
	.loc	25 0 16
	movq	-160(%rbp), %rax
	movq	-152(%rbp), %rdx
	movq	-168(%rbp), %rcx
	.loc	25 456 30 is_stmt 1
	imulq	%rdx, %rcx
	movq	%rcx, -48(%rbp)
Ltmp209:
	.loc	25 461 59
	movq	%rcx, -40(%rbp)
	.loc	25 461 71 is_stmt 0
	movq	%rax, -32(%rbp)
Ltmp210:
	.loc	26 97 9 is_stmt 1
	movq	%rax, -96(%rbp)
	movq	-96(%rbp), %rax
	movq	%rax, -24(%rbp)
Ltmp211:
	.loc	25 120 65
	movq	%rax, -16(%rbp)
Ltmp212:
	.loc	26 89 18
	movq	%rax, -8(%rbp)
	movq	-8(%rbp), %rax
Ltmp213:
	.loc	25 120 18
	movq	%rcx, -120(%rbp)
	movq	%rax, -112(%rbp)
Ltmp214:
	.loc	25 461 22
	movq	-120(%rbp), %rcx
	movq	-112(%rbp), %rax
	movq	%rcx, -144(%rbp)
	movq	%rax, -136(%rbp)
Ltmp215:
	.loc	25 462 10
	jmp	LBB30_8
LBB30_7:
	.loc	25 453 24
	movq	$0, -136(%rbp)
LBB30_8:
	.loc	25 462 10
	movq	-144(%rbp), %rax
	movq	-136(%rbp), %rdx
	addq	$176, %rsp
	popq	%rbp
	retq
Ltmp216:
Lfunc_end30:
	.cfi_endproc

	.p2align	4, 0x90
__ZN4core5slice29_$LT$impl$u20$$u5b$T$u5d$$GT$12split_at_mut17h1d4fc8a3e8db61f4E:
Lfunc_begin31:
	.file	27 "/rustc/2c8cc343237b8f7d5a3c3703e3a87f2eb2c54a74/library/core/src/slice" "mod.rs"
	.loc	27 1620 0
	.cfi_startproc
	pushq	%rbp
	.cfi_def_cfa_offset 16
	.cfi_offset %rbp, -16
	movq	%rsp, %rbp
	.cfi_def_cfa_register %rbp
	subq	$80, %rsp
	movq	%r8, -72(%rbp)
	movq	%rcx, -64(%rbp)
	movq	%rdx, -56(%rbp)
	movq	%rsi, -48(%rbp)
	movq	%rdi, -40(%rbp)
	movq	%rdi, -32(%rbp)
	movq	%rsi, -24(%rbp)
	movq	%rdx, -16(%rbp)
	movq	%rcx, -8(%rbp)
Ltmp217:
	.loc	27 1621 17 prologue_end
	cmpq	%rdx, %rcx
	setbe	%al
	.loc	27 1621 9 is_stmt 0
	xorb	$-1, %al
	testb	$1, %al
	jne	LBB31_2
	.loc	27 0 9
	movq	-64(%rbp), %rcx
	movq	-56(%rbp), %rdx
	movq	-48(%rbp), %rsi
	movq	-40(%rbp), %rdi
	.loc	27 1624 18 is_stmt 1
	callq	__ZN4core5slice29_$LT$impl$u20$$u5b$T$u5d$$GT$22split_at_mut_unchecked17h9ba6a6a2911733bcE
	movq	-32(%rbp), %rax
	.loc	27 1625 6
	addq	$80, %rsp
	popq	%rbp
	retq
LBB31_2:
	.loc	27 0 6 is_stmt 0
	movq	-72(%rbp), %rdx
	.loc	27 1621 9 is_stmt 1
	leaq	l___unnamed_9(%rip), %rdi
	movl	$35, %esi
	callq	__ZN4core9panicking5panic17hc1bc45270cf64b03E
Ltmp218:
Lfunc_end31:
	.cfi_endproc

	.p2align	4, 0x90
__ZN4core5slice29_$LT$impl$u20$$u5b$T$u5d$$GT$15copy_from_slice17h19e76ba5048131c3E:
Lfunc_begin32:
	.loc	27 3301 0
	.cfi_startproc
	pushq	%rbp
	.cfi_def_cfa_offset 16
	.cfi_offset %rbp, -16
	movq	%rsp, %rbp
	.cfi_def_cfa_register %rbp
	subq	$128, %rsp
	movq	%rdi, -128(%rbp)
	movq	%rsi, -120(%rbp)
	movq	%rdx, -112(%rbp)
	movq	%rcx, -104(%rbp)
	movq	%r8, -96(%rbp)
	movq	%rdi, -88(%rbp)
	movq	%rsi, -80(%rbp)
	movq	%rdx, -72(%rbp)
	movq	%rcx, -64(%rbp)
Ltmp219:
	.loc	27 3317 12 prologue_end
	cmpq	%rcx, %rsi
	jne	LBB32_2
	.loc	27 0 12 is_stmt 0
	movq	-112(%rbp), %rsi
	movq	-128(%rbp), %rdi
	movq	-120(%rbp), %rdx
	movq	-104(%rbp), %rax
	.loc	27 3325 38 is_stmt 1
	movq	%rsi, -56(%rbp)
	movq	%rax, -48(%rbp)
Ltmp220:
	.loc	27 477 9
	movq	%rsi, -40(%rbp)
Ltmp221:
	.loc	27 3325 52
	movq	%rdi, -32(%rbp)
	movq	%rdx, -24(%rbp)
Ltmp222:
	.loc	27 507 9
	movq	%rdi, -16(%rbp)
Ltmp223:
	.loc	27 3325 71
	movq	%rdx, -8(%rbp)
Ltmp224:
	.file	28 "/rustc/2c8cc343237b8f7d5a3c3703e3a87f2eb2c54a74/library/core/src" "intrinsics.rs"
	.loc	28 2372 9
	shlq	$0, %rdx
	callq	_memcpy
Ltmp225:
	.loc	27 3327 6
	addq	$128, %rsp
	popq	%rbp
	retq
LBB32_2:
	.loc	27 0 6 is_stmt 0
	movq	-96(%rbp), %rdx
	movq	-104(%rbp), %rsi
	movq	-120(%rbp), %rdi
	.loc	27 3318 13 is_stmt 1
	callq	__ZN4core5slice29_$LT$impl$u20$$u5b$T$u5d$$GT$15copy_from_slice17len_mismatch_fail17h1c0d44dec593879cE
Ltmp226:
Lfunc_end32:
	.cfi_endproc

	.p2align	4, 0x90
__ZN4core5slice29_$LT$impl$u20$$u5b$T$u5d$$GT$22split_at_mut_unchecked17h9ba6a6a2911733bcE:
Lfunc_begin33:
	.loc	27 1722 0
	.cfi_startproc
	pushq	%rbp
	.cfi_def_cfa_offset 16
	.cfi_offset %rbp, -16
	movq	%rsp, %rbp
	.cfi_def_cfa_register %rbp
	subq	$272, %rsp
	movq	%rcx, %r9
	movq	%rsi, %rcx
	movq	%rdi, %rax
	movq	%rcx, -208(%rbp)
	movq	%rdx, -200(%rbp)
	movq	%r9, -192(%rbp)
Ltmp227:
	.loc	27 1723 19 prologue_end
	movq	%rdx, -184(%rbp)
Ltmp228:
	.loc	27 1724 19
	movq	%rcx, -176(%rbp)
	movq	%rdx, -168(%rbp)
Ltmp229:
	.loc	27 507 9
	movq	%rcx, -160(%rbp)
Ltmp230:
	.loc	27 1735 33
	movq	%rcx, -152(%rbp)
	.loc	27 1735 38 is_stmt 0
	movq	%r9, -144(%rbp)
Ltmp231:
	.file	29 "/rustc/2c8cc343237b8f7d5a3c3703e3a87f2eb2c54a74/library/core/src/slice" "raw.rs"
	.loc	29 145 45 is_stmt 1
	movq	%rcx, -136(%rbp)
	.loc	29 145 51 is_stmt 0
	movq	%r9, -128(%rbp)
Ltmp232:
	.loc	4 766 24 is_stmt 1
	movq	%rcx, -120(%rbp)
Ltmp233:
	.loc	3 60 9
	movq	%rcx, -112(%rbp)
Ltmp234:
	.loc	4 766 37
	movq	%r9, -104(%rbp)
Ltmp235:
	.loc	5 135 36
	movq	%rcx, -256(%rbp)
	movq	%r9, -248(%rbp)
	.loc	5 135 14 is_stmt 0
	movq	-256(%rbp), %r8
	movq	-248(%rbp), %rsi
	movq	%r8, -272(%rbp)
	movq	%rsi, -264(%rbp)
	movq	-272(%rbp), %r8
	movq	-264(%rbp), %rsi
Ltmp236:
	.loc	27 1735 63 is_stmt 1
	movq	%rcx, -96(%rbp)
	.loc	27 1735 71 is_stmt 0
	movq	%r9, -88(%rbp)
Ltmp237:
	.loc	3 1034 18 is_stmt 1
	movq	%rcx, -80(%rbp)
	.loc	3 1034 30 is_stmt 0
	movq	%r9, -72(%rbp)
Ltmp238:
	.loc	3 487 18 is_stmt 1
	addq	%r9, %rcx
	movq	%rcx, -64(%rbp)
	movq	-64(%rbp), %rcx
	movq	%rcx, -56(%rbp)
Ltmp239:
	.loc	27 1735 77
	subq	%r9, %rdx
	movq	%rdx, -48(%rbp)
Ltmp240:
	.loc	29 145 45
	movq	%rcx, -40(%rbp)
	.loc	29 145 51 is_stmt 0
	movq	%rdx, -32(%rbp)
Ltmp241:
	.loc	4 766 24 is_stmt 1
	movq	%rcx, -24(%rbp)
Ltmp242:
	.loc	3 60 9
	movq	%rcx, -16(%rbp)
Ltmp243:
	.loc	4 766 37
	movq	%rdx, -8(%rbp)
Ltmp244:
	.loc	5 135 36
	movq	%rcx, -224(%rbp)
	movq	%rdx, -216(%rbp)
	.loc	5 135 14 is_stmt 0
	movq	-224(%rbp), %rdx
	movq	-216(%rbp), %rcx
	movq	%rdx, -240(%rbp)
	movq	%rcx, -232(%rbp)
	movq	-240(%rbp), %rdx
	movq	-232(%rbp), %rcx
Ltmp245:
	.loc	27 1735 13 is_stmt 1
	movq	%r8, (%rdi)
	movq	%rsi, 8(%rdi)
	movq	%rdx, 16(%rdi)
	movq	%rcx, 24(%rdi)
Ltmp246:
	.loc	27 1737 6
	addq	$272, %rsp
	popq	%rbp
	retq
Ltmp247:
Lfunc_end33:
	.cfi_endproc

	.p2align	4, 0x90
__ZN4core5slice29_$LT$impl$u20$$u5b$T$u5d$$GT$3get17hc12d030078a3cbb1E:
Lfunc_begin34:
	.loc	27 339 0
	.cfi_startproc
	pushq	%rbp
	.cfi_def_cfa_offset 16
	.cfi_offset %rbp, -16
	movq	%rsp, %rbp
	.cfi_def_cfa_register %rbp
	subq	$32, %rsp
	movq	%rdx, -32(%rbp)
	movq	%rsi, %rdx
	movq	%rdi, %rsi
	movq	-32(%rbp), %rdi
	movq	%rsi, -24(%rbp)
	movq	%rdx, -16(%rbp)
	movq	%rdi, -8(%rbp)
Ltmp248:
	.loc	27 343 9 prologue_end
	callq	__ZN75_$LT$usize$u20$as$u20$core..slice..index..SliceIndex$LT$$u5b$T$u5d$$GT$$GT$3get17hb9343036c23dc9a4E
	.loc	27 344 6
	addq	$32, %rsp
	popq	%rbp
	retq
Ltmp249:
Lfunc_end34:
	.cfi_endproc

	.p2align	4, 0x90
__ZN4core5slice29_$LT$impl$u20$$u5b$T$u5d$$GT$8contains17hd7ddda23616d8feaE:
Lfunc_begin35:
	.loc	27 2228 0
	.cfi_startproc
	pushq	%rbp
	.cfi_def_cfa_offset 16
	.cfi_offset %rbp, -16
	movq	%rsp, %rbp
	.cfi_def_cfa_register %rbp
	subq	$32, %rsp
	movq	%rdx, -32(%rbp)
	movq	%rsi, %rdx
	movq	%rdi, %rsi
	movq	-32(%rbp), %rdi
	movq	%rsi, -24(%rbp)
	movq	%rdx, -16(%rbp)
	movq	%rdi, -8(%rbp)
Ltmp250:
	.loc	27 2232 9 prologue_end
	callq	__ZN53_$LT$T$u20$as$u20$core..slice..cmp..SliceContains$GT$14slice_contains17h2a78b9bdeb11930fE
	.loc	27 2233 6
	andb	$1, %al
	movzbl	%al, %eax
	addq	$32, %rsp
	popq	%rbp
	retq
Ltmp251:
Lfunc_end35:
	.cfi_endproc

	.p2align	4, 0x90
__ZN4core6option15Option$LT$T$GT$3map17h901bc8628cbba3aaE:
Lfunc_begin36:
	.file	30 "/rustc/2c8cc343237b8f7d5a3c3703e3a87f2eb2c54a74/library/core/src" "option.rs"
	.loc	30 964 0
	.cfi_startproc
	pushq	%rbp
	.cfi_def_cfa_offset 16
	.cfi_offset %rbp, -16
	movq	%rsp, %rbp
	.cfi_def_cfa_register %rbp
	subq	$64, %rsp
	movq	%rsi, -64(%rbp)
	movq	%rdi, -56(%rbp)
	movq	%rsi, -16(%rbp)
Ltmp252:
	.loc	30 969 15 prologue_end
	movb	$1, -17(%rbp)
	movq	-56(%rbp), %rdx
	movl	$1, %eax
	xorl	%ecx, %ecx
	cmpq	$0, %rdx
	cmoveq	%rcx, %rax
	.loc	30 969 9 is_stmt 0
	cmpq	$0, %rax
	jne	LBB36_2
	.loc	30 971 21 is_stmt 1
	movq	$0, -48(%rbp)
	jmp	LBB36_3
LBB36_2:
	.loc	30 0 21 is_stmt 0
	movq	-64(%rbp), %rdi
	.loc	30 970 18 is_stmt 1
	movq	-56(%rbp), %rax
	movq	%rax, -8(%rbp)
Ltmp253:
	.loc	30 970 29 is_stmt 0
	movb	$0, -17(%rbp)
	movq	%rax, -32(%rbp)
	movq	-32(%rbp), %rsi
	callq	__ZN4core3ops8function5impls80_$LT$impl$u20$core..ops..function..FnOnce$LT$A$GT$$u20$for$u20$$RF$mut$u20$F$GT$9call_once17hdf80c0b6c832e817E
	.loc	30 970 24
	movq	%rax, -48(%rbp)
	movq	%rdx, -40(%rbp)
Ltmp254:
LBB36_3:
	.loc	30 973 5 is_stmt 1
	testb	$1, -17(%rbp)
	jne	LBB36_5
LBB36_4:
	.loc	30 973 6 is_stmt 0
	movq	-48(%rbp), %rax
	movq	-40(%rbp), %rdx
	addq	$64, %rsp
	popq	%rbp
	retq
LBB36_5:
	.loc	30 973 5
	jmp	LBB36_4
Ltmp255:
Lfunc_end36:
	.cfi_endproc

	.p2align	4, 0x90
__ZN4core6option15Option$LT$T$GT$8and_then17h72aaafc3fde44248E:
Lfunc_begin37:
	.loc	30 1303 0 is_stmt 1
	.cfi_startproc
	pushq	%rbp
	.cfi_def_cfa_offset 16
	.cfi_offset %rbp, -16
	movq	%rsp, %rbp
	.cfi_def_cfa_register %rbp
	subq	$96, %rsp
	movq	%rdx, -88(%rbp)
	movq	%rcx, -80(%rbp)
	movq	%rdi, -72(%rbp)
	movq	%rsi, -64(%rbp)
	movq	%rdx, -24(%rbp)
	movq	%rcx, -16(%rbp)
Ltmp256:
	.loc	30 1308 15 prologue_end
	movb	$1, -25(%rbp)
	.loc	30 1308 9 is_stmt 0
	cmpq	$0, -72(%rbp)
	jne	LBB37_2
	.loc	30 1310 21 is_stmt 1
	movq	$0, -56(%rbp)
	jmp	LBB37_3
LBB37_2:
	.loc	30 0 21 is_stmt 0
	movq	-80(%rbp), %rsi
	movq	-88(%rbp), %rdi
	.loc	30 1309 18 is_stmt 1
	movq	-64(%rbp), %rax
	movq	%rax, -8(%rbp)
Ltmp257:
	.loc	30 1309 24 is_stmt 0
	movb	$0, -25(%rbp)
	movq	%rax, -40(%rbp)
	movq	-40(%rbp), %rdx
	callq	__ZN5alloc3str17join_generic_copy28_$u7b$$u7b$closure$u7d$$u7d$17h1d4fbbd7953b1eb8E
	movq	%rdx, -48(%rbp)
	movq	%rax, -56(%rbp)
Ltmp258:
LBB37_3:
	.loc	30 1312 5 is_stmt 1
	testb	$1, -25(%rbp)
	jne	LBB37_5
LBB37_4:
	.loc	30 1312 6 is_stmt 0
	movq	-56(%rbp), %rax
	movq	-48(%rbp), %rdx
	addq	$96, %rsp
	popq	%rbp
	retq
LBB37_5:
	.loc	30 1312 5
	jmp	LBB37_4
Ltmp259:
Lfunc_end37:
	.cfi_endproc

	.p2align	4, 0x90
__ZN51_$LT$T$u20$as$u20$core..borrow..Borrow$LT$T$GT$$GT$6borrow17h28edbf6cc775d7bbE:
Lfunc_begin38:
	.file	31 "/rustc/2c8cc343237b8f7d5a3c3703e3a87f2eb2c54a74/library/core/src" "borrow.rs"
	.loc	31 213 0 is_stmt 1
	.cfi_startproc
	pushq	%rbp
	.cfi_def_cfa_offset 16
	.cfi_offset %rbp, -16
	movq	%rsp, %rbp
	.cfi_def_cfa_register %rbp
	subq	$16, %rsp
	movq	%rsi, %rdx
	movq	%rdi, %rax
	movq	%rax, -16(%rbp)
	movq	%rdx, -8(%rbp)
Ltmp260:
	.loc	31 215 6 prologue_end
	addq	$16, %rsp
	popq	%rbp
	retq
Ltmp261:
Lfunc_end38:
	.cfi_endproc

	.p2align	4, 0x90
__ZN53_$LT$T$u20$as$u20$core..slice..cmp..SliceContains$GT$14slice_contains17h2a78b9bdeb11930fE:
Lfunc_begin39:
	.file	32 "/rustc/2c8cc343237b8f7d5a3c3703e3a87f2eb2c54a74/library/core/src/slice" "cmp.rs"
	.loc	32 237 0
	.cfi_startproc
	pushq	%rbp
	.cfi_def_cfa_offset 16
	.cfi_offset %rbp, -16
	movq	%rsp, %rbp
	.cfi_def_cfa_register %rbp
	subq	$96, %rsp
	movq	%rdx, -88(%rbp)
	movq	%rsi, %rax
	movq	-88(%rbp), %rsi
	movq	%rax, -80(%rbp)
	movq	%rdi, %rax
	movq	-80(%rbp), %rdi
	movq	%rax, -72(%rbp)
	movq	%rax, -40(%rbp)
	movq	%rdi, -32(%rbp)
	movq	%rsi, -24(%rbp)
Ltmp262:
	.loc	32 238 9 prologue_end
	movq	%rdi, -16(%rbp)
	movq	%rsi, -8(%rbp)
Ltmp263:
	.loc	27 742 9
	callq	__ZN4core5slice4iter13Iter$LT$T$GT$3new17h02ac4387b01a56d6E
	movq	-72(%rbp), %rdi
	movq	%rdx, -56(%rbp)
	movq	%rax, -64(%rbp)
Ltmp264:
	.loc	32 238 22
	movq	%rdi, -48(%rbp)
	.loc	32 238 9 is_stmt 0
	movq	-48(%rbp), %rsi
	leaq	-64(%rbp), %rdi
	callq	__ZN91_$LT$core..slice..iter..Iter$LT$T$GT$$u20$as$u20$core..iter..traits..iterator..Iterator$GT$3any17h173692b5517bff6bE
	.loc	32 239 6 is_stmt 1
	andb	$1, %al
	movzbl	%al, %eax
	addq	$96, %rsp
	popq	%rbp
	retq
Ltmp265:
Lfunc_end39:
	.cfi_endproc

	.p2align	4, 0x90
__ZN53_$LT$T$u20$as$u20$core..slice..cmp..SliceContains$GT$14slice_contains28_$u7b$$u7b$closure$u7d$$u7d$17h1c022e91f7dd891fE:
Lfunc_begin40:
	.loc	32 238 0
	.cfi_startproc
	pushq	%rbp
	.cfi_def_cfa_offset 16
	.cfi_offset %rbp, -16
	movq	%rsp, %rbp
	.cfi_def_cfa_register %rbp
	subq	$32, %rsp
	movq	%rsi, -24(%rbp)
	movq	%rdi, %rax
	movq	-24(%rbp), %rdi
	movq	%rax, -16(%rbp)
	movq	%rdi, -8(%rbp)
Ltmp266:
	.loc	32 238 32 prologue_end
	movq	(%rax), %rsi
	.loc	32 238 26 is_stmt 0
	callq	__ZN4core3cmp5impls69_$LT$impl$u20$core..cmp..PartialEq$LT$$RF$B$GT$$u20$for$u20$$RF$A$GT$2eq17ha1c8f7d333144631E
	.loc	32 238 37
	andb	$1, %al
	movzbl	%al, %eax
	addq	$32, %rsp
	popq	%rbp
	retq
Ltmp267:
Lfunc_end40:
	.cfi_endproc

	.p2align	4, 0x90
__ZN54_$LT$$LP$$RP$$u20$as$u20$std..process..Termination$GT$6report17h4e431edce173dd47E:
Lfunc_begin41:
	.loc	16 2182 0 is_stmt 1
	.cfi_startproc
	pushq	%rbp
	.cfi_def_cfa_offset 16
	.cfi_offset %rbp, -16
	movq	%rsp, %rbp
	.cfi_def_cfa_register %rbp
	pushq	%rax
Ltmp268:
	.loc	16 2184 6 prologue_end
	xorl	%eax, %eax
	addq	$8, %rsp
	popq	%rbp
	retq
Ltmp269:
Lfunc_end41:
	.cfi_endproc

	.p2align	4, 0x90
__ZN55_$LT$$RF$T$u20$as$u20$core..borrow..Borrow$LT$T$GT$$GT$6borrow17h0d78f0abf87df710E:
Lfunc_begin42:
	.loc	31 229 0
	.cfi_startproc
	pushq	%rbp
	.cfi_def_cfa_offset 16
	.cfi_offset %rbp, -16
	movq	%rsp, %rbp
	.cfi_def_cfa_register %rbp
	pushq	%rax
	movq	%rdi, -8(%rbp)
Ltmp270:
	.loc	31 230 9 prologue_end
	movq	(%rdi), %rax
	movq	8(%rdi), %rdx
	.loc	31 231 6
	addq	$8, %rsp
	popq	%rbp
	retq
Ltmp271:
Lfunc_end42:
	.cfi_endproc

	.p2align	4, 0x90
__ZN55_$LT$T$u20$as$u20$core..option..SpecOptionPartialEq$GT$2eq17h03f72908393c6808E:
Lfunc_begin43:
	.loc	30 2102 0
	.cfi_startproc
	pushq	%rbp
	.cfi_def_cfa_offset 16
	.cfi_offset %rbp, -16
	movq	%rsp, %rbp
	.cfi_def_cfa_register %rbp
	subq	$64, %rsp
	movq	%rdi, -32(%rbp)
	movq	%rsi, -24(%rbp)
Ltmp272:
	.loc	30 2103 15 prologue_end
	movq	%rdi, -48(%rbp)
	movq	%rsi, -40(%rbp)
	movq	-48(%rbp), %rax
	movq	(%rax), %rax
	testq	%rax, %rax
	setne	%al
	movzbl	%al, %eax
	movq	%rax, -64(%rbp)
	.loc	30 2103 9 is_stmt 0
	je	LBB43_2
	jmp	LBB43_7
LBB43_7:
	.loc	30 0 9
	movq	-64(%rbp), %rax
	.loc	30 2103 9
	subq	$1, %rax
	je	LBB43_3
	jmp	LBB43_1
LBB43_1:
	.loc	30 2106 18 is_stmt 1
	movb	$0, -49(%rbp)
	jmp	LBB43_5
LBB43_2:
	.loc	30 2103 15
	movq	-40(%rbp), %rax
	movq	(%rax), %rdx
	movl	$1, %eax
	xorl	%ecx, %ecx
	cmpq	$0, %rdx
	cmoveq	%rcx, %rax
	.loc	30 2103 9 is_stmt 0
	cmpq	$0, %rax
	je	LBB43_6
	jmp	LBB43_1
LBB43_3:
	.loc	30 2103 15
	movq	-40(%rbp), %rax
	movq	(%rax), %rdx
	movl	$1, %eax
	xorl	%ecx, %ecx
	cmpq	$0, %rdx
	cmoveq	%rcx, %rax
	.loc	30 2103 9
	cmpq	$1, %rax
	jne	LBB43_1
	.loc	30 2104 19 is_stmt 1
	movq	-48(%rbp), %rdi
	movq	%rdi, -16(%rbp)
	.loc	30 2104 28 is_stmt 0
	movq	-40(%rbp), %rsi
	movq	%rsi, -8(%rbp)
Ltmp273:
	.loc	30 2104 35
	callq	__ZN4core3cmp5impls69_$LT$impl$u20$core..cmp..PartialEq$LT$$RF$B$GT$$u20$for$u20$$RF$A$GT$2eq17h85fce115c4c406fdE
	andb	$1, %al
	movb	%al, -49(%rbp)
Ltmp274:
LBB43_5:
	.loc	30 2108 6 is_stmt 1
	movb	-49(%rbp), %al
	andb	$1, %al
	movzbl	%al, %eax
	addq	$64, %rsp
	popq	%rbp
	retq
LBB43_6:
	.loc	30 2105 29
	movb	$1, -49(%rbp)
	jmp	LBB43_5
Ltmp275:
Lfunc_end43:
	.cfi_endproc

	.p2align	4, 0x90
__ZN5alloc3str17join_generic_copy17h7364edce8183a05eE:
Lfunc_begin44:
	.file	33 "/rustc/2c8cc343237b8f7d5a3c3703e3a87f2eb2c54a74/library/alloc/src" "str.rs"
	.loc	33 129 0
	.cfi_startproc
	.cfi_personality 155, _rust_eh_personality
	.cfi_lsda 16, Lexception6
	pushq	%rbp
	.cfi_def_cfa_offset 16
	.cfi_offset %rbp, -16
	movq	%rsp, %rbp
	.cfi_def_cfa_register %rbp
	subq	$3744, %rsp
	movq	%r8, -2952(%rbp)
	movq	%rcx, -2944(%rbp)
	movq	%rdx, -2936(%rbp)
	movq	%rsi, %rax
	movq	-2936(%rbp), %rsi
	movq	%rax, -2928(%rbp)
	movq	%rdi, %rax
	movq	-2928(%rbp), %rdi
	movq	%rax, -2920(%rbp)
	movq	%rax, -2912(%rbp)
	movq	%rdi, -1920(%rbp)
	movq	%rsi, -1912(%rbp)
	movq	%rcx, -1904(%rbp)
	movq	%r8, -1896(%rbp)
Ltmp376:
	.loc	33 135 19 prologue_end
	movq	%r8, -1864(%rbp)
Ltmp377:
	.loc	33 136 20
	movq	%rdi, -1856(%rbp)
	movq	%rsi, -1848(%rbp)
Ltmp378:
	.loc	27 742 9
	callq	__ZN4core5slice4iter13Iter$LT$T$GT$3new17h02ac4387b01a56d6E
	movq	%rdx, -2896(%rbp)
	movq	%rax, -2904(%rbp)
Ltmp379:
	.loc	33 139 23
	leaq	-2904(%rbp), %rdi
	callq	__ZN91_$LT$core..slice..iter..Iter$LT$T$GT$$u20$as$u20$core..iter..traits..iterator..Iterator$GT$4next17h33ad792353a4b4efE
	movq	%rax, -2888(%rbp)
	movq	-2888(%rbp), %rdx
	movl	$1, %eax
	xorl	%ecx, %ecx
	cmpq	$0, %rdx
	cmoveq	%rcx, %rax
	.loc	33 139 17 is_stmt 0
	cmpq	$0, %rax
	jne	LBB44_2
	.loc	33 0 17
	movq	-2920(%rbp), %rax
Ltmp380:
	.loc	7 425 20 is_stmt 1
	movq	L___unnamed_10(%rip), %rdx
	movq	L___unnamed_10+8(%rip), %rcx
	.loc	7 425 9 is_stmt 0
	movq	%rdx, (%rax)
	movq	%rcx, 8(%rax)
	movq	$0, 16(%rax)
Ltmp381:
	.loc	33 185 2 is_stmt 1
	jmp	LBB44_85
LBB44_2:
Ltmp382:
	.loc	33 140 14
	movq	-2888(%rbp), %rax
	movq	%rax, -2968(%rbp)
	movq	%rax, -1840(%rbp)
Ltmp383:
	.loc	33 140 24 is_stmt 0
	movq	%rax, -1832(%rbp)
Ltmp384:
	.loc	33 149 22 is_stmt 1
	leaq	-2904(%rbp), %rax
	movq	%rax, -1824(%rbp)
Ltmp385:
	.file	34 "/rustc/2c8cc343237b8f7d5a3c3703e3a87f2eb2c54a74/library/core/src/slice/iter" "macros.rs"
	.loc	34 16 21
	movq	-2896(%rbp), %rax
	movq	%rax, -2960(%rbp)
	movq	%rax, -1816(%rbp)
Ltmp386:
	.loc	34 17 12
	xorl	%eax, %eax
	testb	$1, %al
	jne	LBB44_4
	.loc	34 0 12 is_stmt 0
	movq	-2960(%rbp), %rsi
	.loc	34 25 22 is_stmt 1
	movq	-2904(%rbp), %rdi
	.loc	34 25 40 is_stmt 0
	movq	%rsi, -1736(%rbp)
	.loc	34 25 22
	callq	__ZN4core3ptr9const_ptr33_$LT$impl$u20$$BP$const$u20$T$GT$7sub_ptr17h04e09944121424e6E
	movq	%rax, -2864(%rbp)
	.loc	34 17 9 is_stmt 1
	jmp	LBB44_5
LBB44_4:
	.loc	34 0 9 is_stmt 0
	movq	-2960(%rbp), %rcx
	.loc	34 20 13 is_stmt 1
	movq	-2904(%rbp), %rax
	movq	%rax, -1808(%rbp)
Ltmp387:
	.loc	20 209 33
	movq	%rax, -1800(%rbp)
	.loc	20 209 18 is_stmt 0
	movq	%rax, -1792(%rbp)
	movq	-1792(%rbp), %rax
	movq	%rax, -1784(%rbp)
Ltmp388:
	.loc	34 20 43 is_stmt 1
	movq	%rcx, -1776(%rbp)
Ltmp389:
	.loc	12 326 9
	movq	%rcx, -1768(%rbp)
Ltmp390:
	.loc	3 215 33
	movq	%rcx, -1760(%rbp)
	.loc	3 215 18 is_stmt 0
	movq	%rcx, -1752(%rbp)
	movq	-1752(%rbp), %rcx
	movq	%rcx, -1744(%rbp)
Ltmp391:
	.loc	8 1203 13 is_stmt 1
	subq	%rcx, %rax
	movq	%rax, -2864(%rbp)
Ltmp392:
LBB44_5:
	.loc	8 0 13 is_stmt 0
	movq	-2952(%rbp), %rdi
	.loc	33 148 24 is_stmt 1
	movq	-2864(%rbp), %rsi
	callq	__ZN4core3num23_$LT$impl$u20$usize$GT$11checked_mul17hb5bf1598477b15cfE
	movq	-2928(%rbp), %rcx
	movq	%rax, %rdi
	movq	-2936(%rbp), %rax
	movq	%rdx, %rsi
	.loc	33 150 19
	movq	%rcx, -2856(%rbp)
	movq	%rax, -2848(%rbp)
	.loc	33 148 24
	movq	-2856(%rbp), %rdx
	movq	-2848(%rbp), %rcx
	callq	__ZN4core6option15Option$LT$T$GT$8and_then17h72aaafc3fde44248E
	movq	%rdx, -2872(%rbp)
	movq	%rax, -2880(%rbp)
	.loc	33 153 17
	leaq	l___unnamed_11(%rip), %rax
	movq	%rax, -1728(%rbp)
	movq	$53, -1720(%rbp)
Ltmp393:
	.loc	30 784 9
	cmpq	$0, -2880(%rbp)
	jne	LBB44_7
	.loc	30 786 21
	leaq	l___unnamed_11(%rip), %rdi
	leaq	l___unnamed_12(%rip), %rdx
	movl	$53, %esi
	callq	__ZN4core6option13expect_failed17h5792a81bec0ff713E
LBB44_7:
	.loc	30 785 18
	movq	-2872(%rbp), %rdi
	movq	%rdi, -2992(%rbp)
	movq	%rdi, -1712(%rbp)
Ltmp394:
	.loc	33 156 41
	movq	%rdi, -1704(%rbp)
Ltmp395:
	.loc	7 483 32
	movq	%rdi, -1696(%rbp)
Ltmp396:
	.loc	7 676 45
	movq	%rdi, -1688(%rbp)
Ltmp397:
	.loc	10 131 37
	movb	$0, -2209(%rbp)
	.loc	10 131 9 is_stmt 0
	movzbl	-2209(%rbp), %esi
	callq	__ZN5alloc7raw_vec19RawVec$LT$T$C$A$GT$11allocate_in17h65356be745ae6427E
	movq	-2968(%rbp), %rdi
Ltmp398:
	.loc	7 676 9 is_stmt 1
	movq	%rax, -2840(%rbp)
	movq	%rdx, -2832(%rbp)
	movq	$0, -2824(%rbp)
Ltmp399:
Ltmp276:
	.loc	33 159 30
	callq	__ZN55_$LT$$RF$T$u20$as$u20$core..borrow..Borrow$LT$T$GT$$GT$6borrow17h0d78f0abf87df710E
Ltmp277:
	movq	%rdx, -2984(%rbp)
	movq	%rax, -2976(%rbp)
	jmp	LBB44_10
Ltmp400:
LBB44_8:
Ltmp373:
	.loc	33 0 30 is_stmt 0
	leaq	-2840(%rbp), %rdi
	.loc	33 185 1 is_stmt 1
	callq	__ZN4core3ptr46drop_in_place$LT$alloc..vec..Vec$LT$u8$GT$$GT$17h4f2044b0d8758f9cE
Ltmp374:
	jmp	LBB44_84
LBB44_9:
Ltmp372:
	.loc	33 0 1 is_stmt 0
	movq	%rax, %rcx
	movl	%edx, %eax
	movq	%rcx, -1680(%rbp)
	movl	%eax, -1672(%rbp)
	jmp	LBB44_8
LBB44_10:
Ltmp278:
	movq	-2984(%rbp), %rsi
	movq	-2976(%rbp), %rdi
Ltmp401:
	.loc	33 159 30 is_stmt 1
	callq	__ZN4core3str74_$LT$impl$u20$core..convert..AsRef$LT$$u5b$u8$u5d$$GT$$u20$for$u20$str$GT$6as_ref17he92abc95714f871dE
Ltmp279:
	movq	%rdx, -3008(%rbp)
	movq	%rax, -3000(%rbp)
	jmp	LBB44_11
LBB44_11:
Ltmp280:
	.loc	33 0 30 is_stmt 0
	movq	-3008(%rbp), %rdx
	movq	-3000(%rbp), %rsi
	leaq	-2840(%rbp), %rdi
	.loc	33 159 5
	callq	__ZN5alloc3vec16Vec$LT$T$C$A$GT$17extend_from_slice17h3297eca43fdcc0faE
Ltmp281:
	jmp	LBB44_12
LBB44_12:
	.loc	33 0 5
	leaq	-2840(%rbp), %rdi
	.loc	33 162 19 is_stmt 1
	movq	%rdi, -1664(%rbp)
Ltmp402:
	.loc	7 2062 9
	movq	-2824(%rbp), %rax
	movq	%rax, -3032(%rbp)
	movq	%rax, -1656(%rbp)
Ltmp403:
Ltmp282:
	.loc	33 163 22
	callq	__ZN5alloc3vec16Vec$LT$T$C$A$GT$18spare_capacity_mut17h541f3e70265e620bE
Ltmp283:
	movq	%rdx, -3024(%rbp)
	movq	%rax, -3016(%rbp)
	jmp	LBB44_13
LBB44_13:
	.loc	33 0 22 is_stmt 0
	movq	-3024(%rbp), %rcx
	movq	-3016(%rbp), %rdx
	movq	-3032(%rbp), %rsi
	movq	-2992(%rbp), %rax
	.loc	33 163 22
	movq	%rdx, -1648(%rbp)
	movq	%rcx, -1640(%rbp)
	.loc	33 163 70
	subq	%rsi, %rax
	.loc	33 163 68
	movq	%rax, -2816(%rbp)
Ltmp404:
	.loc	27 443 24 is_stmt 1
	movq	-2816(%rbp), %rax
	movq	%rax, -1632(%rbp)
	.loc	27 443 48 is_stmt 0
	movq	%rdx, -1624(%rbp)
	movq	%rcx, -1616(%rbp)
Ltmp405:
	.loc	2 451 18 is_stmt 1
	movq	$0, -2208(%rbp)
	movq	%rax, -2200(%rbp)
	movq	-2208(%rbp), %rdi
	movq	-2200(%rbp), %rsi
Ltmp284:
	callq	__ZN106_$LT$core..ops..range..Range$LT$usize$GT$$u20$as$u20$core..slice..index..SliceIndex$LT$$u5b$T$u5d$$GT$$GT$17get_unchecked_mut17h5aaac5a006dcb425E
Ltmp285:
	movq	%rdx, -3048(%rbp)
	movq	%rax, -3040(%rbp)
	jmp	LBB44_14
LBB44_14:
	.loc	2 0 18 is_stmt 0
	movq	-2944(%rbp), %rcx
	movq	-2952(%rbp), %rax
	movq	-3048(%rbp), %rdx
	movq	-3040(%rbp), %rsi
	.loc	2 451 18
	movq	%rsi, %rdi
	movq	%rdi, -3096(%rbp)
	movq	%rdx, %rdi
	movq	%rdi, -3088(%rbp)
Ltmp406:
	.loc	27 443 9 is_stmt 1
	movq	%rsi, -1608(%rbp)
	movq	%rdx, -1600(%rbp)
Ltmp407:
	.loc	33 167 54
	movq	%rcx, -1592(%rbp)
	movq	%rax, -1584(%rbp)
Ltmp408:
	.loc	27 477 9
	movq	%rcx, -1576(%rbp)
Ltmp409:
	.loc	20 61 9
	movq	%rcx, -1568(%rbp)
Ltmp410:
	.loc	33 167 75
	movq	%rcx, -1560(%rbp)
	movq	%rax, -1552(%rbp)
Ltmp411:
	.loc	27 137 23
	movq	%rcx, -1544(%rbp)
	movq	%rax, -1536(%rbp)
Ltmp412:
	.loc	5 98 14
	movq	%rcx, -2192(%rbp)
	movq	%rax, -2184(%rbp)
	movq	-2184(%rbp), %rax
	movq	%rax, -1528(%rbp)
Ltmp413:
	.loc	29 100 37
	movq	%rcx, -1520(%rbp)
	.loc	29 100 43 is_stmt 0
	movq	%rax, -1512(%rbp)
Ltmp414:
	.loc	4 734 20 is_stmt 1
	movq	%rcx, -1504(%rbp)
Ltmp415:
	.loc	20 61 9
	movq	%rcx, -1496(%rbp)
Ltmp416:
	.loc	4 734 33
	movq	%rax, -1488(%rbp)
Ltmp417:
	.loc	5 118 36
	movq	%rcx, -2160(%rbp)
	movq	%rax, -2152(%rbp)
	.loc	5 118 14 is_stmt 0
	movq	-2160(%rbp), %rcx
	movq	-2152(%rbp), %rax
	movq	%rcx, -2176(%rbp)
	movq	%rax, -2168(%rbp)
	movq	-2176(%rbp), %rcx
	movq	%rcx, -3080(%rbp)
	movq	-2168(%rbp), %rax
	movq	%rax, -3072(%rbp)
Ltmp418:
	.loc	29 100 9 is_stmt 1
	movq	%rcx, -1480(%rbp)
	movq	%rax, -1472(%rbp)
Ltmp419:
	.loc	33 168 27
	movq	-2904(%rbp), %rdi
	movq	-2896(%rbp), %rsi
	movq	%rdi, -1464(%rbp)
	movq	%rsi, -1456(%rbp)
Ltmp286:
Ltmp420:
	.loc	24 787 9
	callq	__ZN4core4iter8adapters3map16Map$LT$I$C$F$GT$3new17ha68c592e86a249b3E
Ltmp287:
	movq	%rdx, -3064(%rbp)
	movq	%rax, -3056(%rbp)
	jmp	LBB44_15
LBB44_15:
	.loc	24 0 9 is_stmt 0
	movq	-3072(%rbp), %rax
	movq	-3080(%rbp), %rcx
	movq	-3064(%rbp), %rdx
	movq	-3056(%rbp), %rsi
	movq	-3088(%rbp), %rdi
	movq	-3096(%rbp), %r8
	.loc	24 787 9
	movq	%rsi, %r9
	movq	%r9, -3120(%rbp)
	movq	%rdx, %r9
	movq	%r9, -3112(%rbp)
	movq	%rsi, -1448(%rbp)
	movq	%rdx, -1440(%rbp)
Ltmp421:
	.loc	33 176 58 is_stmt 1
	movq	%r8, -2808(%rbp)
	movq	%rdi, -2800(%rbp)
Ltmp422:
	.loc	33 176 66 is_stmt 0
	movq	%rsi, -1432(%rbp)
	movq	%rdx, -1424(%rbp)
Ltmp423:
	.loc	33 176 46
	movq	%rcx, -1416(%rbp)
	movq	%rax, -1408(%rbp)
Ltmp424:
	.loc	33 176 22
	movq	%rcx, -1400(%rbp)
	movq	%rax, -1392(%rbp)
Ltmp425:
	.loc	27 137 23 is_stmt 1
	movq	%rcx, -1384(%rbp)
	movq	%rax, -1376(%rbp)
Ltmp426:
	.loc	5 98 14
	movq	%rcx, -2144(%rbp)
	movq	%rax, -2136(%rbp)
	movq	-2136(%rbp), %rax
	movq	%rax, -3104(%rbp)
Ltmp427:
	.loc	33 176 22
	subq	$4, %rax
	ja	LBB44_16
	.loc	33 0 22 is_stmt 0
	movq	-3104(%rbp), %rax
	leaq	LJTI44_0(%rip), %rcx
	movslq	(%rcx,%rax,4), %rax
	addq	%rcx, %rax
	jmpq	*%rax
LBB44_16:
	movq	-3112(%rbp), %rax
	movq	-3120(%rbp), %rcx
	.loc	33 176 22
	movq	%rcx, -1368(%rbp)
	movq	%rax, -1360(%rbp)
	movq	%rcx, -2312(%rbp)
	movq	%rax, -2304(%rbp)
Ltmp428:
	.loc	33 176 22
	jmp	LBB44_22
Ltmp429:
LBB44_17:
	.loc	33 0 22
	movq	-3112(%rbp), %rax
	movq	-3120(%rbp), %rcx
	.loc	33 176 22
	movq	%rcx, -288(%rbp)
	movq	%rax, -280(%rbp)
	movq	%rcx, -2792(%rbp)
	movq	%rax, -2784(%rbp)
Ltmp430:
	.loc	33 176 22
	jmp	LBB44_73
Ltmp431:
LBB44_18:
	.loc	33 0 22
	movq	-3112(%rbp), %rax
	movq	-3120(%rbp), %rcx
	.loc	33 176 22
	movq	%rcx, -504(%rbp)
	movq	%rax, -496(%rbp)
	movq	%rcx, -2696(%rbp)
	movq	%rax, -2688(%rbp)
Ltmp432:
	.loc	33 176 22
	jmp	LBB44_63
Ltmp433:
LBB44_19:
	.loc	33 0 22
	movq	-3112(%rbp), %rax
	movq	-3120(%rbp), %rcx
	.loc	33 176 22
	movq	%rcx, -720(%rbp)
	movq	%rax, -712(%rbp)
	movq	%rcx, -2600(%rbp)
	movq	%rax, -2592(%rbp)
Ltmp434:
	.loc	33 176 22
	jmp	LBB44_53
Ltmp435:
LBB44_20:
	.loc	33 0 22
	movq	-3112(%rbp), %rax
	movq	-3120(%rbp), %rcx
	.loc	33 176 22
	movq	%rcx, -936(%rbp)
	movq	%rax, -928(%rbp)
	movq	%rcx, -2504(%rbp)
	movq	%rax, -2496(%rbp)
Ltmp436:
	.loc	33 176 22
	jmp	LBB44_43
Ltmp437:
LBB44_21:
	.loc	33 0 22
	movq	-3112(%rbp), %rax
	movq	-3120(%rbp), %rcx
	.loc	33 176 22
	movq	%rcx, -1152(%rbp)
	movq	%rax, -1144(%rbp)
	movq	%rcx, -2408(%rbp)
	movq	%rax, -2400(%rbp)
Ltmp438:
	.loc	33 176 22
	jmp	LBB44_33
Ltmp439:
LBB44_22:
	.loc	33 0 22
	leaq	-2312(%rbp), %rdi
Ltmp440:
	.loc	33 176 22
	movq	%rdi, -1352(%rbp)
Ltmp358:
Ltmp441:
	.loc	1 103 9 is_stmt 1
	callq	__ZN91_$LT$core..slice..iter..Iter$LT$T$GT$$u20$as$u20$core..iter..traits..iterator..Iterator$GT$4next17h33ad792353a4b4efE
Ltmp359:
	movq	%rax, -3128(%rbp)
	jmp	LBB44_23
LBB44_23:
Ltmp360:
	.loc	1 0 9 is_stmt 0
	movq	-3128(%rbp), %rdi
	leaq	-2312(%rbp), %rsi
	.loc	1 103 9
	callq	__ZN4core6option15Option$LT$T$GT$3map17h901bc8628cbba3aaE
Ltmp361:
	movq	%rdx, -3144(%rbp)
	movq	%rax, -3136(%rbp)
	jmp	LBB44_24
LBB44_24:
	.loc	1 0 9
	movq	-3144(%rbp), %rax
	movq	-3136(%rbp), %rcx
	.loc	1 103 9
	movq	%rcx, -2296(%rbp)
	movq	%rax, -2288(%rbp)
Ltmp442:
	.loc	33 176 22 is_stmt 1
	movq	-2296(%rbp), %rdx
	movl	$1, %eax
	xorl	%ecx, %ecx
	cmpq	$0, %rdx
	cmoveq	%rcx, %rax
	cmpq	$0, %rax
	jne	LBB44_26
Ltmp443:
	.loc	33 176 22 is_stmt 0
	jmp	LBB44_32
LBB44_26:
	.loc	33 0 22
	movq	-3072(%rbp), %rax
	movq	-3080(%rbp), %rcx
Ltmp444:
	.loc	33 176 22
	movq	-2296(%rbp), %rsi
	movq	%rsi, -3160(%rbp)
	movq	-2288(%rbp), %rdx
	movq	%rdx, -3152(%rbp)
	movq	%rsi, -1344(%rbp)
	movq	%rdx, -1336(%rbp)
Ltmp445:
	.loc	33 176 22
	movq	%rcx, -1328(%rbp)
	movq	%rax, -1320(%rbp)
Ltmp446:
	.loc	27 137 23 is_stmt 1
	movq	%rcx, -1312(%rbp)
	movq	%rax, -1304(%rbp)
Ltmp447:
	.loc	5 98 14
	movq	%rcx, -1968(%rbp)
	movq	%rax, -1960(%rbp)
	movq	-1960(%rbp), %rcx
	movq	%rcx, -1296(%rbp)
Ltmp448:
	.loc	33 176 22
	movq	-2808(%rbp), %rsi
	movq	-2800(%rbp), %rdx
Ltmp362:
	leaq	l___unnamed_13(%rip), %r8
	leaq	-2280(%rbp), %rdi
	callq	__ZN4core5slice29_$LT$impl$u20$$u5b$T$u5d$$GT$12split_at_mut17h1d4fc8a3e8db61f4E
Ltmp363:
	jmp	LBB44_27
LBB44_27:
	.loc	33 0 22 is_stmt 0
	movq	-3072(%rbp), %rcx
	movq	-3080(%rbp), %rdx
	.loc	33 176 22
	movq	-2280(%rbp), %rdi
	movq	-2272(%rbp), %rsi
	movq	%rdi, -1288(%rbp)
	movq	%rsi, -1280(%rbp)
	movq	-2264(%rbp), %r8
	movq	%r8, -3176(%rbp)
	movq	-2256(%rbp), %rax
	movq	%rax, -3168(%rbp)
	movq	%r8, -1272(%rbp)
	movq	%rax, -1264(%rbp)
Ltmp364:
Ltmp449:
	.loc	33 176 22
	leaq	l___unnamed_13(%rip), %r8
	callq	__ZN4core5slice29_$LT$impl$u20$$u5b$T$u5d$$GT$15copy_from_slice17h19e76ba5048131c3E
Ltmp365:
	jmp	LBB44_28
LBB44_28:
	.loc	33 0 22
	movq	-3152(%rbp), %rsi
	movq	-3160(%rbp), %rdi
	movq	-3168(%rbp), %rax
	movq	-3176(%rbp), %rcx
	.loc	33 176 22
	movq	%rcx, -2808(%rbp)
	movq	%rax, -2800(%rbp)
Ltmp366:
	callq	__ZN51_$LT$T$u20$as$u20$core..borrow..Borrow$LT$T$GT$$GT$6borrow17h28edbf6cc775d7bbE
Ltmp367:
	movq	%rdx, -3192(%rbp)
	movq	%rax, -3184(%rbp)
	jmp	LBB44_29
LBB44_29:
	.loc	33 0 22
	movq	-3192(%rbp), %rax
	movq	-3184(%rbp), %rcx
	.loc	33 176 22
	movq	%rcx, %rdx
	movq	%rdx, -3208(%rbp)
	movq	%rax, %rdx
	movq	%rdx, -3200(%rbp)
	movq	%rcx, -1256(%rbp)
	movq	%rax, -1248(%rbp)
Ltmp450:
	.file	35 "/rustc/2c8cc343237b8f7d5a3c3703e3a87f2eb2c54a74/library/core/src/convert" "mod.rs"
	.loc	35 794 9 is_stmt 1
	movq	%rcx, -1240(%rbp)
	movq	%rax, -1232(%rbp)
Ltmp451:
	.loc	33 176 22
	movq	%rcx, -1224(%rbp)
	movq	%rax, -1216(%rbp)
Ltmp452:
	.loc	27 137 23
	movq	%rcx, -1208(%rbp)
	movq	%rax, -1200(%rbp)
Ltmp453:
	.loc	5 98 14
	movq	%rcx, -1952(%rbp)
	movq	%rax, -1944(%rbp)
	movq	-1944(%rbp), %rcx
	movq	%rcx, -1192(%rbp)
Ltmp454:
	.loc	33 176 22
	movq	-2808(%rbp), %rsi
	movq	-2800(%rbp), %rdx
Ltmp368:
	leaq	l___unnamed_13(%rip), %r8
	leaq	-2248(%rbp), %rdi
	callq	__ZN4core5slice29_$LT$impl$u20$$u5b$T$u5d$$GT$12split_at_mut17h1d4fc8a3e8db61f4E
Ltmp369:
	jmp	LBB44_30
LBB44_30:
	.loc	33 0 22 is_stmt 0
	movq	-3200(%rbp), %rcx
	movq	-3208(%rbp), %rdx
	.loc	33 176 22
	movq	-2248(%rbp), %rdi
	movq	-2240(%rbp), %rsi
	movq	%rdi, -1184(%rbp)
	movq	%rsi, -1176(%rbp)
	movq	-2232(%rbp), %r8
	movq	%r8, -3224(%rbp)
	movq	-2224(%rbp), %rax
	movq	%rax, -3216(%rbp)
	movq	%r8, -1168(%rbp)
	movq	%rax, -1160(%rbp)
Ltmp370:
Ltmp455:
	.loc	33 176 22
	leaq	l___unnamed_13(%rip), %r8
	callq	__ZN4core5slice29_$LT$impl$u20$$u5b$T$u5d$$GT$15copy_from_slice17h19e76ba5048131c3E
Ltmp371:
	jmp	LBB44_31
LBB44_31:
	.loc	33 0 22
	movq	-3216(%rbp), %rax
	movq	-3224(%rbp), %rcx
	.loc	33 176 22
	movq	%rcx, -2808(%rbp)
	movq	%rax, -2800(%rbp)
Ltmp456:
	.loc	33 176 22
	jmp	LBB44_22
Ltmp457:
LBB44_32:
	.loc	33 0 22
	movq	-2920(%rbp), %rax
	movq	-2992(%rbp), %rcx
	.loc	33 176 22
	movq	-2808(%rbp), %rsi
	movq	-2800(%rbp), %rdx
Ltmp458:
	.loc	33 176 22
	movq	%rsi, -72(%rbp)
	movq	%rdx, -64(%rbp)
Ltmp459:
	.loc	33 181 41 is_stmt 1
	movq	%rsi, -56(%rbp)
	movq	%rdx, -48(%rbp)
Ltmp460:
	.loc	27 137 23
	movq	%rsi, -40(%rbp)
	movq	%rdx, -32(%rbp)
Ltmp461:
	.loc	5 98 14
	movq	%rsi, -1936(%rbp)
	movq	%rdx, -1928(%rbp)
Ltmp462:
	.loc	33 181 26
	subq	-1928(%rbp), %rcx
	movq	%rcx, -24(%rbp)
Ltmp463:
	.loc	33 182 9
	leaq	-2840(%rbp), %rdx
	movq	%rdx, -16(%rbp)
	.loc	33 182 24 is_stmt 0
	movq	%rcx, -8(%rbp)
Ltmp464:
	.loc	7 1377 9 is_stmt 1
	movq	%rcx, -2824(%rbp)
Ltmp465:
	.loc	33 184 5
	movq	-2840(%rbp), %rcx
	movq	%rcx, (%rax)
	movq	-2832(%rbp), %rcx
	movq	%rcx, 8(%rax)
	movq	-2824(%rbp), %rcx
	movq	%rcx, 16(%rax)
Ltmp466:
	.loc	33 185 2
	jmp	LBB44_85
LBB44_33:
	.loc	33 0 2 is_stmt 0
	leaq	-2408(%rbp), %rdi
Ltmp467:
	.loc	33 176 22 is_stmt 1
	movq	%rdi, -1136(%rbp)
Ltmp288:
Ltmp468:
	.loc	1 103 9
	callq	__ZN91_$LT$core..slice..iter..Iter$LT$T$GT$$u20$as$u20$core..iter..traits..iterator..Iterator$GT$4next17h33ad792353a4b4efE
Ltmp289:
	movq	%rax, -3232(%rbp)
	jmp	LBB44_34
LBB44_34:
Ltmp290:
	.loc	1 0 9 is_stmt 0
	movq	-3232(%rbp), %rdi
	leaq	-2408(%rbp), %rsi
	.loc	1 103 9
	callq	__ZN4core6option15Option$LT$T$GT$3map17h901bc8628cbba3aaE
Ltmp291:
	movq	%rdx, -3248(%rbp)
	movq	%rax, -3240(%rbp)
	jmp	LBB44_35
LBB44_35:
	.loc	1 0 9
	movq	-3248(%rbp), %rax
	movq	-3240(%rbp), %rcx
	.loc	1 103 9
	movq	%rcx, -2392(%rbp)
	movq	%rax, -2384(%rbp)
Ltmp469:
	.loc	33 176 22 is_stmt 1
	movq	-2392(%rbp), %rdx
	movl	$1, %eax
	xorl	%ecx, %ecx
	cmpq	$0, %rdx
	cmoveq	%rcx, %rax
	cmpq	$0, %rax
	jne	LBB44_37
Ltmp470:
	.loc	33 176 22 is_stmt 0
	jmp	LBB44_32
LBB44_37:
	.loc	33 0 22
	movq	-3072(%rbp), %rax
	movq	-3080(%rbp), %rcx
Ltmp471:
	.loc	33 176 22
	movq	-2392(%rbp), %rsi
	movq	%rsi, -3264(%rbp)
	movq	-2384(%rbp), %rdx
	movq	%rdx, -3256(%rbp)
	movq	%rsi, -1128(%rbp)
	movq	%rdx, -1120(%rbp)
Ltmp472:
	.loc	33 176 22
	movq	%rcx, -1112(%rbp)
	movq	%rax, -1104(%rbp)
Ltmp473:
	.loc	27 137 23 is_stmt 1
	movq	%rcx, -1096(%rbp)
	movq	%rax, -1088(%rbp)
Ltmp474:
	.loc	5 98 14
	movq	%rcx, -2000(%rbp)
	movq	%rax, -1992(%rbp)
	movq	-1992(%rbp), %rcx
	movq	%rcx, -1080(%rbp)
Ltmp475:
	.loc	33 176 22
	movq	-2808(%rbp), %rsi
	movq	-2800(%rbp), %rdx
Ltmp292:
	leaq	l___unnamed_13(%rip), %r8
	leaq	-2376(%rbp), %rdi
	callq	__ZN4core5slice29_$LT$impl$u20$$u5b$T$u5d$$GT$12split_at_mut17h1d4fc8a3e8db61f4E
Ltmp293:
	jmp	LBB44_38
LBB44_38:
	.loc	33 0 22 is_stmt 0
	movq	-3072(%rbp), %rcx
	movq	-3080(%rbp), %rdx
	.loc	33 176 22
	movq	-2376(%rbp), %rdi
	movq	-2368(%rbp), %rsi
	movq	%rdi, -1072(%rbp)
	movq	%rsi, -1064(%rbp)
	movq	-2360(%rbp), %r8
	movq	%r8, -3280(%rbp)
	movq	-2352(%rbp), %rax
	movq	%rax, -3272(%rbp)
	movq	%r8, -1056(%rbp)
	movq	%rax, -1048(%rbp)
Ltmp294:
Ltmp476:
	.loc	33 176 22
	leaq	l___unnamed_13(%rip), %r8
	callq	__ZN4core5slice29_$LT$impl$u20$$u5b$T$u5d$$GT$15copy_from_slice17h19e76ba5048131c3E
Ltmp295:
	jmp	LBB44_39
LBB44_39:
	.loc	33 0 22
	movq	-3256(%rbp), %rsi
	movq	-3264(%rbp), %rdi
	movq	-3272(%rbp), %rax
	movq	-3280(%rbp), %rcx
	.loc	33 176 22
	movq	%rcx, -2808(%rbp)
	movq	%rax, -2800(%rbp)
Ltmp296:
	callq	__ZN51_$LT$T$u20$as$u20$core..borrow..Borrow$LT$T$GT$$GT$6borrow17h28edbf6cc775d7bbE
Ltmp297:
	movq	%rdx, -3296(%rbp)
	movq	%rax, -3288(%rbp)
	jmp	LBB44_40
LBB44_40:
	.loc	33 0 22
	movq	-3296(%rbp), %rax
	movq	-3288(%rbp), %rcx
	.loc	33 176 22
	movq	%rcx, %rdx
	movq	%rdx, -3312(%rbp)
	movq	%rax, %rdx
	movq	%rdx, -3304(%rbp)
	movq	%rcx, -1040(%rbp)
	movq	%rax, -1032(%rbp)
Ltmp477:
	.loc	35 794 9 is_stmt 1
	movq	%rcx, -1024(%rbp)
	movq	%rax, -1016(%rbp)
Ltmp478:
	.loc	33 176 22
	movq	%rcx, -1008(%rbp)
	movq	%rax, -1000(%rbp)
Ltmp479:
	.loc	27 137 23
	movq	%rcx, -992(%rbp)
	movq	%rax, -984(%rbp)
Ltmp480:
	.loc	5 98 14
	movq	%rcx, -1984(%rbp)
	movq	%rax, -1976(%rbp)
	movq	-1976(%rbp), %rcx
	movq	%rcx, -976(%rbp)
Ltmp481:
	.loc	33 176 22
	movq	-2808(%rbp), %rsi
	movq	-2800(%rbp), %rdx
Ltmp298:
	leaq	l___unnamed_13(%rip), %r8
	leaq	-2344(%rbp), %rdi
	callq	__ZN4core5slice29_$LT$impl$u20$$u5b$T$u5d$$GT$12split_at_mut17h1d4fc8a3e8db61f4E
Ltmp299:
	jmp	LBB44_41
LBB44_41:
	.loc	33 0 22 is_stmt 0
	movq	-3304(%rbp), %rcx
	movq	-3312(%rbp), %rdx
	.loc	33 176 22
	movq	-2344(%rbp), %rdi
	movq	-2336(%rbp), %rsi
	movq	%rdi, -968(%rbp)
	movq	%rsi, -960(%rbp)
	movq	-2328(%rbp), %r8
	movq	%r8, -3328(%rbp)
	movq	-2320(%rbp), %rax
	movq	%rax, -3320(%rbp)
	movq	%r8, -952(%rbp)
	movq	%rax, -944(%rbp)
Ltmp300:
Ltmp482:
	.loc	33 176 22
	leaq	l___unnamed_13(%rip), %r8
	callq	__ZN4core5slice29_$LT$impl$u20$$u5b$T$u5d$$GT$15copy_from_slice17h19e76ba5048131c3E
Ltmp301:
	jmp	LBB44_42
LBB44_42:
	.loc	33 0 22
	movq	-3320(%rbp), %rax
	movq	-3328(%rbp), %rcx
	.loc	33 176 22
	movq	%rcx, -2808(%rbp)
	movq	%rax, -2800(%rbp)
Ltmp483:
	.loc	33 176 22
	jmp	LBB44_33
Ltmp484:
LBB44_43:
	.loc	33 0 22
	leaq	-2504(%rbp), %rdi
Ltmp485:
	.loc	33 176 22
	movq	%rdi, -920(%rbp)
Ltmp302:
Ltmp486:
	.loc	1 103 9 is_stmt 1
	callq	__ZN91_$LT$core..slice..iter..Iter$LT$T$GT$$u20$as$u20$core..iter..traits..iterator..Iterator$GT$4next17h33ad792353a4b4efE
Ltmp303:
	movq	%rax, -3336(%rbp)
	jmp	LBB44_44
LBB44_44:
Ltmp304:
	.loc	1 0 9 is_stmt 0
	movq	-3336(%rbp), %rdi
	leaq	-2504(%rbp), %rsi
	.loc	1 103 9
	callq	__ZN4core6option15Option$LT$T$GT$3map17h901bc8628cbba3aaE
Ltmp305:
	movq	%rdx, -3352(%rbp)
	movq	%rax, -3344(%rbp)
	jmp	LBB44_45
LBB44_45:
	.loc	1 0 9
	movq	-3352(%rbp), %rax
	movq	-3344(%rbp), %rcx
	.loc	1 103 9
	movq	%rcx, -2488(%rbp)
	movq	%rax, -2480(%rbp)
Ltmp487:
	.loc	33 176 22 is_stmt 1
	movq	-2488(%rbp), %rdx
	movl	$1, %eax
	xorl	%ecx, %ecx
	cmpq	$0, %rdx
	cmoveq	%rcx, %rax
	cmpq	$0, %rax
	jne	LBB44_47
Ltmp488:
	.loc	33 176 22 is_stmt 0
	jmp	LBB44_32
LBB44_47:
	.loc	33 0 22
	movq	-3072(%rbp), %rax
	movq	-3080(%rbp), %rcx
Ltmp489:
	.loc	33 176 22
	movq	-2488(%rbp), %rsi
	movq	%rsi, -3368(%rbp)
	movq	-2480(%rbp), %rdx
	movq	%rdx, -3360(%rbp)
	movq	%rsi, -912(%rbp)
	movq	%rdx, -904(%rbp)
Ltmp490:
	.loc	33 176 22
	movq	%rcx, -896(%rbp)
	movq	%rax, -888(%rbp)
Ltmp491:
	.loc	27 137 23 is_stmt 1
	movq	%rcx, -880(%rbp)
	movq	%rax, -872(%rbp)
Ltmp492:
	.loc	5 98 14
	movq	%rcx, -2032(%rbp)
	movq	%rax, -2024(%rbp)
	movq	-2024(%rbp), %rcx
	movq	%rcx, -864(%rbp)
Ltmp493:
	.loc	33 176 22
	movq	-2808(%rbp), %rsi
	movq	-2800(%rbp), %rdx
Ltmp306:
	leaq	l___unnamed_13(%rip), %r8
	leaq	-2472(%rbp), %rdi
	callq	__ZN4core5slice29_$LT$impl$u20$$u5b$T$u5d$$GT$12split_at_mut17h1d4fc8a3e8db61f4E
Ltmp307:
	jmp	LBB44_48
LBB44_48:
	.loc	33 0 22 is_stmt 0
	movq	-3072(%rbp), %rcx
	movq	-3080(%rbp), %rdx
	.loc	33 176 22
	movq	-2472(%rbp), %rdi
	movq	-2464(%rbp), %rsi
	movq	%rdi, -856(%rbp)
	movq	%rsi, -848(%rbp)
	movq	-2456(%rbp), %r8
	movq	%r8, -3384(%rbp)
	movq	-2448(%rbp), %rax
	movq	%rax, -3376(%rbp)
	movq	%r8, -840(%rbp)
	movq	%rax, -832(%rbp)
Ltmp308:
Ltmp494:
	.loc	33 176 22
	leaq	l___unnamed_13(%rip), %r8
	callq	__ZN4core5slice29_$LT$impl$u20$$u5b$T$u5d$$GT$15copy_from_slice17h19e76ba5048131c3E
Ltmp309:
	jmp	LBB44_49
LBB44_49:
	.loc	33 0 22
	movq	-3360(%rbp), %rsi
	movq	-3368(%rbp), %rdi
	movq	-3376(%rbp), %rax
	movq	-3384(%rbp), %rcx
	.loc	33 176 22
	movq	%rcx, -2808(%rbp)
	movq	%rax, -2800(%rbp)
Ltmp310:
	callq	__ZN51_$LT$T$u20$as$u20$core..borrow..Borrow$LT$T$GT$$GT$6borrow17h28edbf6cc775d7bbE
Ltmp311:
	movq	%rdx, -3400(%rbp)
	movq	%rax, -3392(%rbp)
	jmp	LBB44_50
LBB44_50:
	.loc	33 0 22
	movq	-3400(%rbp), %rax
	movq	-3392(%rbp), %rcx
	.loc	33 176 22
	movq	%rcx, %rdx
	movq	%rdx, -3416(%rbp)
	movq	%rax, %rdx
	movq	%rdx, -3408(%rbp)
	movq	%rcx, -824(%rbp)
	movq	%rax, -816(%rbp)
Ltmp495:
	.loc	35 794 9 is_stmt 1
	movq	%rcx, -808(%rbp)
	movq	%rax, -800(%rbp)
Ltmp496:
	.loc	33 176 22
	movq	%rcx, -792(%rbp)
	movq	%rax, -784(%rbp)
Ltmp497:
	.loc	27 137 23
	movq	%rcx, -776(%rbp)
	movq	%rax, -768(%rbp)
Ltmp498:
	.loc	5 98 14
	movq	%rcx, -2016(%rbp)
	movq	%rax, -2008(%rbp)
	movq	-2008(%rbp), %rcx
	movq	%rcx, -760(%rbp)
Ltmp499:
	.loc	33 176 22
	movq	-2808(%rbp), %rsi
	movq	-2800(%rbp), %rdx
Ltmp312:
	leaq	l___unnamed_13(%rip), %r8
	leaq	-2440(%rbp), %rdi
	callq	__ZN4core5slice29_$LT$impl$u20$$u5b$T$u5d$$GT$12split_at_mut17h1d4fc8a3e8db61f4E
Ltmp313:
	jmp	LBB44_51
LBB44_51:
	.loc	33 0 22 is_stmt 0
	movq	-3408(%rbp), %rcx
	movq	-3416(%rbp), %rdx
	.loc	33 176 22
	movq	-2440(%rbp), %rdi
	movq	-2432(%rbp), %rsi
	movq	%rdi, -752(%rbp)
	movq	%rsi, -744(%rbp)
	movq	-2424(%rbp), %r8
	movq	%r8, -3432(%rbp)
	movq	-2416(%rbp), %rax
	movq	%rax, -3424(%rbp)
	movq	%r8, -736(%rbp)
	movq	%rax, -728(%rbp)
Ltmp314:
Ltmp500:
	.loc	33 176 22
	leaq	l___unnamed_13(%rip), %r8
	callq	__ZN4core5slice29_$LT$impl$u20$$u5b$T$u5d$$GT$15copy_from_slice17h19e76ba5048131c3E
Ltmp315:
	jmp	LBB44_52
LBB44_52:
	.loc	33 0 22
	movq	-3424(%rbp), %rax
	movq	-3432(%rbp), %rcx
	.loc	33 176 22
	movq	%rcx, -2808(%rbp)
	movq	%rax, -2800(%rbp)
Ltmp501:
	.loc	33 176 22
	jmp	LBB44_43
Ltmp502:
LBB44_53:
	.loc	33 0 22
	leaq	-2600(%rbp), %rdi
Ltmp503:
	.loc	33 176 22
	movq	%rdi, -704(%rbp)
Ltmp316:
Ltmp504:
	.loc	1 103 9 is_stmt 1
	callq	__ZN91_$LT$core..slice..iter..Iter$LT$T$GT$$u20$as$u20$core..iter..traits..iterator..Iterator$GT$4next17h33ad792353a4b4efE
Ltmp317:
	movq	%rax, -3440(%rbp)
	jmp	LBB44_54
LBB44_54:
Ltmp318:
	.loc	1 0 9 is_stmt 0
	movq	-3440(%rbp), %rdi
	leaq	-2600(%rbp), %rsi
	.loc	1 103 9
	callq	__ZN4core6option15Option$LT$T$GT$3map17h901bc8628cbba3aaE
Ltmp319:
	movq	%rdx, -3456(%rbp)
	movq	%rax, -3448(%rbp)
	jmp	LBB44_55
LBB44_55:
	.loc	1 0 9
	movq	-3456(%rbp), %rax
	movq	-3448(%rbp), %rcx
	.loc	1 103 9
	movq	%rcx, -2584(%rbp)
	movq	%rax, -2576(%rbp)
Ltmp505:
	.loc	33 176 22 is_stmt 1
	movq	-2584(%rbp), %rdx
	movl	$1, %eax
	xorl	%ecx, %ecx
	cmpq	$0, %rdx
	cmoveq	%rcx, %rax
	cmpq	$0, %rax
	jne	LBB44_57
Ltmp506:
	.loc	33 176 22 is_stmt 0
	jmp	LBB44_32
LBB44_57:
	.loc	33 0 22
	movq	-3072(%rbp), %rax
	movq	-3080(%rbp), %rcx
Ltmp507:
	.loc	33 176 22
	movq	-2584(%rbp), %rsi
	movq	%rsi, -3472(%rbp)
	movq	-2576(%rbp), %rdx
	movq	%rdx, -3464(%rbp)
	movq	%rsi, -696(%rbp)
	movq	%rdx, -688(%rbp)
Ltmp508:
	.loc	33 176 22
	movq	%rcx, -680(%rbp)
	movq	%rax, -672(%rbp)
Ltmp509:
	.loc	27 137 23 is_stmt 1
	movq	%rcx, -664(%rbp)
	movq	%rax, -656(%rbp)
Ltmp510:
	.loc	5 98 14
	movq	%rcx, -2064(%rbp)
	movq	%rax, -2056(%rbp)
	movq	-2056(%rbp), %rcx
	movq	%rcx, -648(%rbp)
Ltmp511:
	.loc	33 176 22
	movq	-2808(%rbp), %rsi
	movq	-2800(%rbp), %rdx
Ltmp320:
	leaq	l___unnamed_13(%rip), %r8
	leaq	-2568(%rbp), %rdi
	callq	__ZN4core5slice29_$LT$impl$u20$$u5b$T$u5d$$GT$12split_at_mut17h1d4fc8a3e8db61f4E
Ltmp321:
	jmp	LBB44_58
LBB44_58:
	.loc	33 0 22 is_stmt 0
	movq	-3072(%rbp), %rcx
	movq	-3080(%rbp), %rdx
	.loc	33 176 22
	movq	-2568(%rbp), %rdi
	movq	-2560(%rbp), %rsi
	movq	%rdi, -640(%rbp)
	movq	%rsi, -632(%rbp)
	movq	-2552(%rbp), %r8
	movq	%r8, -3488(%rbp)
	movq	-2544(%rbp), %rax
	movq	%rax, -3480(%rbp)
	movq	%r8, -624(%rbp)
	movq	%rax, -616(%rbp)
Ltmp322:
Ltmp512:
	.loc	33 176 22
	leaq	l___unnamed_13(%rip), %r8
	callq	__ZN4core5slice29_$LT$impl$u20$$u5b$T$u5d$$GT$15copy_from_slice17h19e76ba5048131c3E
Ltmp323:
	jmp	LBB44_59
LBB44_59:
	.loc	33 0 22
	movq	-3464(%rbp), %rsi
	movq	-3472(%rbp), %rdi
	movq	-3480(%rbp), %rax
	movq	-3488(%rbp), %rcx
	.loc	33 176 22
	movq	%rcx, -2808(%rbp)
	movq	%rax, -2800(%rbp)
Ltmp324:
	callq	__ZN51_$LT$T$u20$as$u20$core..borrow..Borrow$LT$T$GT$$GT$6borrow17h28edbf6cc775d7bbE
Ltmp325:
	movq	%rdx, -3504(%rbp)
	movq	%rax, -3496(%rbp)
	jmp	LBB44_60
LBB44_60:
	.loc	33 0 22
	movq	-3504(%rbp), %rax
	movq	-3496(%rbp), %rcx
	.loc	33 176 22
	movq	%rcx, %rdx
	movq	%rdx, -3520(%rbp)
	movq	%rax, %rdx
	movq	%rdx, -3512(%rbp)
	movq	%rcx, -608(%rbp)
	movq	%rax, -600(%rbp)
Ltmp513:
	.loc	35 794 9 is_stmt 1
	movq	%rcx, -592(%rbp)
	movq	%rax, -584(%rbp)
Ltmp514:
	.loc	33 176 22
	movq	%rcx, -576(%rbp)
	movq	%rax, -568(%rbp)
Ltmp515:
	.loc	27 137 23
	movq	%rcx, -560(%rbp)
	movq	%rax, -552(%rbp)
Ltmp516:
	.loc	5 98 14
	movq	%rcx, -2048(%rbp)
	movq	%rax, -2040(%rbp)
	movq	-2040(%rbp), %rcx
	movq	%rcx, -544(%rbp)
Ltmp517:
	.loc	33 176 22
	movq	-2808(%rbp), %rsi
	movq	-2800(%rbp), %rdx
Ltmp326:
	leaq	l___unnamed_13(%rip), %r8
	leaq	-2536(%rbp), %rdi
	callq	__ZN4core5slice29_$LT$impl$u20$$u5b$T$u5d$$GT$12split_at_mut17h1d4fc8a3e8db61f4E
Ltmp327:
	jmp	LBB44_61
LBB44_61:
	.loc	33 0 22 is_stmt 0
	movq	-3512(%rbp), %rcx
	movq	-3520(%rbp), %rdx
	.loc	33 176 22
	movq	-2536(%rbp), %rdi
	movq	-2528(%rbp), %rsi
	movq	%rdi, -536(%rbp)
	movq	%rsi, -528(%rbp)
	movq	-2520(%rbp), %r8
	movq	%r8, -3536(%rbp)
	movq	-2512(%rbp), %rax
	movq	%rax, -3528(%rbp)
	movq	%r8, -520(%rbp)
	movq	%rax, -512(%rbp)
Ltmp328:
Ltmp518:
	.loc	33 176 22
	leaq	l___unnamed_13(%rip), %r8
	callq	__ZN4core5slice29_$LT$impl$u20$$u5b$T$u5d$$GT$15copy_from_slice17h19e76ba5048131c3E
Ltmp329:
	jmp	LBB44_62
LBB44_62:
	.loc	33 0 22
	movq	-3528(%rbp), %rax
	movq	-3536(%rbp), %rcx
	.loc	33 176 22
	movq	%rcx, -2808(%rbp)
	movq	%rax, -2800(%rbp)
Ltmp519:
	.loc	33 176 22
	jmp	LBB44_53
Ltmp520:
LBB44_63:
	.loc	33 0 22
	leaq	-2696(%rbp), %rdi
Ltmp521:
	.loc	33 176 22
	movq	%rdi, -488(%rbp)
Ltmp330:
Ltmp522:
	.loc	1 103 9 is_stmt 1
	callq	__ZN91_$LT$core..slice..iter..Iter$LT$T$GT$$u20$as$u20$core..iter..traits..iterator..Iterator$GT$4next17h33ad792353a4b4efE
Ltmp331:
	movq	%rax, -3544(%rbp)
	jmp	LBB44_64
LBB44_64:
Ltmp332:
	.loc	1 0 9 is_stmt 0
	movq	-3544(%rbp), %rdi
	leaq	-2696(%rbp), %rsi
	.loc	1 103 9
	callq	__ZN4core6option15Option$LT$T$GT$3map17h901bc8628cbba3aaE
Ltmp333:
	movq	%rdx, -3560(%rbp)
	movq	%rax, -3552(%rbp)
	jmp	LBB44_65
LBB44_65:
	.loc	1 0 9
	movq	-3560(%rbp), %rax
	movq	-3552(%rbp), %rcx
	.loc	1 103 9
	movq	%rcx, -2680(%rbp)
	movq	%rax, -2672(%rbp)
Ltmp523:
	.loc	33 176 22 is_stmt 1
	movq	-2680(%rbp), %rdx
	movl	$1, %eax
	xorl	%ecx, %ecx
	cmpq	$0, %rdx
	cmoveq	%rcx, %rax
	cmpq	$0, %rax
	jne	LBB44_67
Ltmp524:
	.loc	33 176 22 is_stmt 0
	jmp	LBB44_32
LBB44_67:
	.loc	33 0 22
	movq	-3072(%rbp), %rax
	movq	-3080(%rbp), %rcx
Ltmp525:
	.loc	33 176 22
	movq	-2680(%rbp), %rsi
	movq	%rsi, -3576(%rbp)
	movq	-2672(%rbp), %rdx
	movq	%rdx, -3568(%rbp)
	movq	%rsi, -480(%rbp)
	movq	%rdx, -472(%rbp)
Ltmp526:
	.loc	33 176 22
	movq	%rcx, -464(%rbp)
	movq	%rax, -456(%rbp)
Ltmp527:
	.loc	27 137 23 is_stmt 1
	movq	%rcx, -448(%rbp)
	movq	%rax, -440(%rbp)
Ltmp528:
	.loc	5 98 14
	movq	%rcx, -2096(%rbp)
	movq	%rax, -2088(%rbp)
	movq	-2088(%rbp), %rcx
	movq	%rcx, -432(%rbp)
Ltmp529:
	.loc	33 176 22
	movq	-2808(%rbp), %rsi
	movq	-2800(%rbp), %rdx
Ltmp334:
	leaq	l___unnamed_13(%rip), %r8
	leaq	-2664(%rbp), %rdi
	callq	__ZN4core5slice29_$LT$impl$u20$$u5b$T$u5d$$GT$12split_at_mut17h1d4fc8a3e8db61f4E
Ltmp335:
	jmp	LBB44_68
LBB44_68:
	.loc	33 0 22 is_stmt 0
	movq	-3072(%rbp), %rcx
	movq	-3080(%rbp), %rdx
	.loc	33 176 22
	movq	-2664(%rbp), %rdi
	movq	-2656(%rbp), %rsi
	movq	%rdi, -424(%rbp)
	movq	%rsi, -416(%rbp)
	movq	-2648(%rbp), %r8
	movq	%r8, -3592(%rbp)
	movq	-2640(%rbp), %rax
	movq	%rax, -3584(%rbp)
	movq	%r8, -408(%rbp)
	movq	%rax, -400(%rbp)
Ltmp336:
Ltmp530:
	.loc	33 176 22
	leaq	l___unnamed_13(%rip), %r8
	callq	__ZN4core5slice29_$LT$impl$u20$$u5b$T$u5d$$GT$15copy_from_slice17h19e76ba5048131c3E
Ltmp337:
	jmp	LBB44_69
LBB44_69:
	.loc	33 0 22
	movq	-3568(%rbp), %rsi
	movq	-3576(%rbp), %rdi
	movq	-3584(%rbp), %rax
	movq	-3592(%rbp), %rcx
	.loc	33 176 22
	movq	%rcx, -2808(%rbp)
	movq	%rax, -2800(%rbp)
Ltmp338:
	callq	__ZN51_$LT$T$u20$as$u20$core..borrow..Borrow$LT$T$GT$$GT$6borrow17h28edbf6cc775d7bbE
Ltmp339:
	movq	%rdx, -3608(%rbp)
	movq	%rax, -3600(%rbp)
	jmp	LBB44_70
LBB44_70:
	.loc	33 0 22
	movq	-3608(%rbp), %rax
	movq	-3600(%rbp), %rcx
	.loc	33 176 22
	movq	%rcx, %rdx
	movq	%rdx, -3624(%rbp)
	movq	%rax, %rdx
	movq	%rdx, -3616(%rbp)
	movq	%rcx, -392(%rbp)
	movq	%rax, -384(%rbp)
Ltmp531:
	.loc	35 794 9 is_stmt 1
	movq	%rcx, -376(%rbp)
	movq	%rax, -368(%rbp)
Ltmp532:
	.loc	33 176 22
	movq	%rcx, -360(%rbp)
	movq	%rax, -352(%rbp)
Ltmp533:
	.loc	27 137 23
	movq	%rcx, -344(%rbp)
	movq	%rax, -336(%rbp)
Ltmp534:
	.loc	5 98 14
	movq	%rcx, -2080(%rbp)
	movq	%rax, -2072(%rbp)
	movq	-2072(%rbp), %rcx
	movq	%rcx, -328(%rbp)
Ltmp535:
	.loc	33 176 22
	movq	-2808(%rbp), %rsi
	movq	-2800(%rbp), %rdx
Ltmp340:
	leaq	l___unnamed_13(%rip), %r8
	leaq	-2632(%rbp), %rdi
	callq	__ZN4core5slice29_$LT$impl$u20$$u5b$T$u5d$$GT$12split_at_mut17h1d4fc8a3e8db61f4E
Ltmp341:
	jmp	LBB44_71
LBB44_71:
	.loc	33 0 22 is_stmt 0
	movq	-3616(%rbp), %rcx
	movq	-3624(%rbp), %rdx
	.loc	33 176 22
	movq	-2632(%rbp), %rdi
	movq	-2624(%rbp), %rsi
	movq	%rdi, -320(%rbp)
	movq	%rsi, -312(%rbp)
	movq	-2616(%rbp), %r8
	movq	%r8, -3640(%rbp)
	movq	-2608(%rbp), %rax
	movq	%rax, -3632(%rbp)
	movq	%r8, -304(%rbp)
	movq	%rax, -296(%rbp)
Ltmp342:
Ltmp536:
	.loc	33 176 22
	leaq	l___unnamed_13(%rip), %r8
	callq	__ZN4core5slice29_$LT$impl$u20$$u5b$T$u5d$$GT$15copy_from_slice17h19e76ba5048131c3E
Ltmp343:
	jmp	LBB44_72
LBB44_72:
	.loc	33 0 22
	movq	-3632(%rbp), %rax
	movq	-3640(%rbp), %rcx
	.loc	33 176 22
	movq	%rcx, -2808(%rbp)
	movq	%rax, -2800(%rbp)
Ltmp537:
	.loc	33 176 22
	jmp	LBB44_63
Ltmp538:
LBB44_73:
	.loc	33 0 22
	leaq	-2792(%rbp), %rdi
Ltmp539:
	.loc	33 176 22
	movq	%rdi, -272(%rbp)
Ltmp344:
Ltmp540:
	.loc	1 103 9 is_stmt 1
	callq	__ZN91_$LT$core..slice..iter..Iter$LT$T$GT$$u20$as$u20$core..iter..traits..iterator..Iterator$GT$4next17h33ad792353a4b4efE
Ltmp345:
	movq	%rax, -3648(%rbp)
	jmp	LBB44_74
LBB44_74:
Ltmp346:
	.loc	1 0 9 is_stmt 0
	movq	-3648(%rbp), %rdi
	leaq	-2792(%rbp), %rsi
	.loc	1 103 9
	callq	__ZN4core6option15Option$LT$T$GT$3map17h901bc8628cbba3aaE
Ltmp347:
	movq	%rdx, -3664(%rbp)
	movq	%rax, -3656(%rbp)
	jmp	LBB44_75
LBB44_75:
	.loc	1 0 9
	movq	-3664(%rbp), %rax
	movq	-3656(%rbp), %rcx
	.loc	1 103 9
	movq	%rcx, -2776(%rbp)
	movq	%rax, -2768(%rbp)
Ltmp541:
	.loc	33 176 22 is_stmt 1
	movq	-2776(%rbp), %rdx
	movl	$1, %eax
	xorl	%ecx, %ecx
	cmpq	$0, %rdx
	cmoveq	%rcx, %rax
	cmpq	$0, %rax
	jne	LBB44_77
Ltmp542:
	.loc	33 176 22 is_stmt 0
	jmp	LBB44_32
LBB44_77:
	.loc	33 0 22
	movq	-3072(%rbp), %rax
	movq	-3080(%rbp), %rcx
Ltmp543:
	.loc	33 176 22
	movq	-2776(%rbp), %rsi
	movq	%rsi, -3680(%rbp)
	movq	-2768(%rbp), %rdx
	movq	%rdx, -3672(%rbp)
	movq	%rsi, -264(%rbp)
	movq	%rdx, -256(%rbp)
Ltmp544:
	.loc	33 176 22
	movq	%rcx, -248(%rbp)
	movq	%rax, -240(%rbp)
Ltmp545:
	.loc	27 137 23 is_stmt 1
	movq	%rcx, -232(%rbp)
	movq	%rax, -224(%rbp)
Ltmp546:
	.loc	5 98 14
	movq	%rcx, -2128(%rbp)
	movq	%rax, -2120(%rbp)
	movq	-2120(%rbp), %rcx
	movq	%rcx, -216(%rbp)
Ltmp547:
	.loc	33 176 22
	movq	-2808(%rbp), %rsi
	movq	-2800(%rbp), %rdx
Ltmp348:
	leaq	l___unnamed_13(%rip), %r8
	leaq	-2760(%rbp), %rdi
	callq	__ZN4core5slice29_$LT$impl$u20$$u5b$T$u5d$$GT$12split_at_mut17h1d4fc8a3e8db61f4E
Ltmp349:
	jmp	LBB44_78
LBB44_78:
	.loc	33 0 22 is_stmt 0
	movq	-3072(%rbp), %rcx
	movq	-3080(%rbp), %rdx
	.loc	33 176 22
	movq	-2760(%rbp), %rdi
	movq	-2752(%rbp), %rsi
	movq	%rdi, -208(%rbp)
	movq	%rsi, -200(%rbp)
	movq	-2744(%rbp), %r8
	movq	%r8, -3696(%rbp)
	movq	-2736(%rbp), %rax
	movq	%rax, -3688(%rbp)
	movq	%r8, -192(%rbp)
	movq	%rax, -184(%rbp)
Ltmp350:
Ltmp548:
	.loc	33 176 22
	leaq	l___unnamed_13(%rip), %r8
	callq	__ZN4core5slice29_$LT$impl$u20$$u5b$T$u5d$$GT$15copy_from_slice17h19e76ba5048131c3E
Ltmp351:
	jmp	LBB44_79
LBB44_79:
	.loc	33 0 22
	movq	-3672(%rbp), %rsi
	movq	-3680(%rbp), %rdi
	movq	-3688(%rbp), %rax
	movq	-3696(%rbp), %rcx
	.loc	33 176 22
	movq	%rcx, -2808(%rbp)
	movq	%rax, -2800(%rbp)
Ltmp352:
	callq	__ZN51_$LT$T$u20$as$u20$core..borrow..Borrow$LT$T$GT$$GT$6borrow17h28edbf6cc775d7bbE
Ltmp353:
	movq	%rdx, -3712(%rbp)
	movq	%rax, -3704(%rbp)
	jmp	LBB44_80
LBB44_80:
	.loc	33 0 22
	movq	-3712(%rbp), %rax
	movq	-3704(%rbp), %rcx
	.loc	33 176 22
	movq	%rcx, %rdx
	movq	%rdx, -3728(%rbp)
	movq	%rax, %rdx
	movq	%rdx, -3720(%rbp)
	movq	%rcx, -176(%rbp)
	movq	%rax, -168(%rbp)
Ltmp549:
	.loc	35 794 9 is_stmt 1
	movq	%rcx, -160(%rbp)
	movq	%rax, -152(%rbp)
Ltmp550:
	.loc	33 176 22
	movq	%rcx, -144(%rbp)
	movq	%rax, -136(%rbp)
Ltmp551:
	.loc	27 137 23
	movq	%rcx, -128(%rbp)
	movq	%rax, -120(%rbp)
Ltmp552:
	.loc	5 98 14
	movq	%rcx, -2112(%rbp)
	movq	%rax, -2104(%rbp)
	movq	-2104(%rbp), %rcx
	movq	%rcx, -112(%rbp)
Ltmp553:
	.loc	33 176 22
	movq	-2808(%rbp), %rsi
	movq	-2800(%rbp), %rdx
Ltmp354:
	leaq	l___unnamed_13(%rip), %r8
	leaq	-2728(%rbp), %rdi
	callq	__ZN4core5slice29_$LT$impl$u20$$u5b$T$u5d$$GT$12split_at_mut17h1d4fc8a3e8db61f4E
Ltmp355:
	jmp	LBB44_81
LBB44_81:
	.loc	33 0 22 is_stmt 0
	movq	-3720(%rbp), %rcx
	movq	-3728(%rbp), %rdx
	.loc	33 176 22
	movq	-2728(%rbp), %rdi
	movq	-2720(%rbp), %rsi
	movq	%rdi, -104(%rbp)
	movq	%rsi, -96(%rbp)
	movq	-2712(%rbp), %r8
	movq	%r8, -3744(%rbp)
	movq	-2704(%rbp), %rax
	movq	%rax, -3736(%rbp)
	movq	%r8, -88(%rbp)
	movq	%rax, -80(%rbp)
Ltmp356:
Ltmp554:
	.loc	33 176 22
	leaq	l___unnamed_13(%rip), %r8
	callq	__ZN4core5slice29_$LT$impl$u20$$u5b$T$u5d$$GT$15copy_from_slice17h19e76ba5048131c3E
Ltmp357:
	jmp	LBB44_82
LBB44_82:
	.loc	33 0 22
	movq	-3736(%rbp), %rax
	movq	-3744(%rbp), %rcx
	.loc	33 176 22
	movq	%rcx, -2808(%rbp)
	movq	%rax, -2800(%rbp)
Ltmp555:
	.loc	33 176 22
	jmp	LBB44_73
Ltmp556:
LBB44_83:
Ltmp375:
	.loc	33 129 1 is_stmt 1
	callq	__ZN4core9panicking19panic_cannot_unwind17h1fbca7e1d7f56ae1E
LBB44_84:
	movq	-1680(%rbp), %rdi
	callq	__Unwind_Resume
LBB44_85:
	.loc	33 0 1 is_stmt 0
	movq	-2912(%rbp), %rax
	.loc	33 185 2 is_stmt 1
	addq	$3744, %rsp
	popq	%rbp
	retq
Ltmp557:
Lfunc_end44:
	.cfi_endproc
	.p2align	2, 0x90
	.data_region jt32
.set L44_0_set_17, LBB44_17-LJTI44_0
.set L44_0_set_18, LBB44_18-LJTI44_0
.set L44_0_set_19, LBB44_19-LJTI44_0
.set L44_0_set_20, LBB44_20-LJTI44_0
.set L44_0_set_21, LBB44_21-LJTI44_0
LJTI44_0:
	.long	L44_0_set_17
	.long	L44_0_set_18
	.long	L44_0_set_19
	.long	L44_0_set_20
	.long	L44_0_set_21
	.end_data_region
	.file	36 "/rustc/2c8cc343237b8f7d5a3c3703e3a87f2eb2c54a74/library/alloc/src" "macros.rs"
	.section	__TEXT,__gcc_except_tab
	.p2align	2
GCC_except_table44:
Lexception6:
	.byte	255
	.byte	255
	.byte	1
	.uleb128 Lcst_end6-Lcst_begin6
Lcst_begin6:
	.uleb128 Lfunc_begin44-Lfunc_begin44
	.uleb128 Ltmp276-Lfunc_begin44
	.byte	0
	.byte	0
	.uleb128 Ltmp276-Lfunc_begin44
	.uleb128 Ltmp277-Ltmp276
	.uleb128 Ltmp372-Lfunc_begin44
	.byte	0
	.uleb128 Ltmp373-Lfunc_begin44
	.uleb128 Ltmp374-Ltmp373
	.uleb128 Ltmp375-Lfunc_begin44
	.byte	0
	.uleb128 Ltmp278-Lfunc_begin44
	.uleb128 Ltmp357-Ltmp278
	.uleb128 Ltmp372-Lfunc_begin44
	.byte	0
	.uleb128 Ltmp357-Lfunc_begin44
	.uleb128 Lfunc_end44-Ltmp357
	.byte	0
	.byte	0
Lcst_end6:
	.p2align	2

	.section	__TEXT,__text,regular,pure_instructions
	.p2align	4, 0x90
__ZN5alloc3str17join_generic_copy28_$u7b$$u7b$closure$u7d$$u7d$17h1d4fbbd7953b1eb8E:
Lfunc_begin45:
	.loc	33 150 0
	.cfi_startproc
	pushq	%rbp
	.cfi_def_cfa_offset 16
	.cfi_offset %rbp, -16
	movq	%rsp, %rbp
	.cfi_def_cfa_register %rbp
	subq	$96, %rsp
	movq	%rdx, -88(%rbp)
	movq	%rdi, -80(%rbp)
	movq	%rsi, -72(%rbp)
	movq	%rdx, -48(%rbp)
Ltmp558:
	.loc	33 151 13 prologue_end
	movq	-80(%rbp), %rdi
	movq	-72(%rbp), %rsi
	movq	%rdi, -32(%rbp)
	movq	%rsi, -24(%rbp)
Ltmp559:
	.loc	27 742 9
	callq	__ZN4core5slice4iter13Iter$LT$T$GT$3new17h02ac4387b01a56d6E
	movq	%rax, %rdi
	movq	%rdx, %rsi
	movq	%rdi, -16(%rbp)
	movq	%rsi, -8(%rbp)
Ltmp560:
	.loc	24 787 9
	callq	__ZN4core4iter8adapters3map16Map$LT$I$C$F$GT$3new17h7d3795c1c12993d8E
	movq	-88(%rbp), %rsi
	movq	%rdx, -56(%rbp)
	movq	%rax, -64(%rbp)
	leaq	-64(%rbp), %rdi
Ltmp561:
	.loc	33 151 13
	callq	__ZN102_$LT$core..iter..adapters..map..Map$LT$I$C$F$GT$$u20$as$u20$core..iter..traits..iterator..Iterator$GT$8try_fold17hd39b486b30501c7dE
	.loc	33 152 10
	addq	$96, %rsp
	popq	%rbp
	retq
Ltmp562:
Lfunc_end45:
	.cfi_endproc

	.p2align	4, 0x90
__ZN5alloc3str17join_generic_copy28_$u7b$$u7b$closure$u7d$$u7d$17ha724d8319618287dE:
Lfunc_begin46:
	.loc	33 168 0
	.cfi_startproc
	pushq	%rbp
	.cfi_def_cfa_offset 16
	.cfi_offset %rbp, -16
	movq	%rsp, %rbp
	.cfi_def_cfa_register %rbp
	subq	$160, %rsp
	movq	%rsi, -152(%rbp)
	movq	%rdi, %rax
	movq	-152(%rbp), %rdi
	movq	%rax, -112(%rbp)
	movq	%rdi, -104(%rbp)
Ltmp563:
	.loc	33 169 22 prologue_end
	callq	__ZN55_$LT$$RF$T$u20$as$u20$core..borrow..Borrow$LT$T$GT$$GT$6borrow17h0d78f0abf87df710E
	movq	%rax, %rdi
	movq	%rdx, %rsi
	callq	__ZN4core3str74_$LT$impl$u20$core..convert..AsRef$LT$$u5b$u8$u5d$$GT$$u20$for$u20$str$GT$6as_ref17he92abc95714f871dE
	movq	%rax, -96(%rbp)
	movq	%rdx, -88(%rbp)
Ltmp564:
	.loc	33 170 41
	movq	%rax, -80(%rbp)
	movq	%rdx, -72(%rbp)
Ltmp565:
	.loc	27 477 9
	movq	%rax, -64(%rbp)
Ltmp566:
	.loc	20 61 9
	movq	%rax, -56(%rbp)
Ltmp567:
	.loc	33 170 61
	movq	%rdx, -48(%rbp)
Ltmp568:
	.loc	29 100 37
	movq	%rax, -40(%rbp)
	.loc	29 100 43 is_stmt 0
	movq	%rdx, -32(%rbp)
Ltmp569:
	.loc	4 734 20 is_stmt 1
	movq	%rax, -24(%rbp)
Ltmp570:
	.loc	20 61 9
	movq	%rax, -16(%rbp)
Ltmp571:
	.loc	4 734 33
	movq	%rdx, -8(%rbp)
Ltmp572:
	.loc	5 118 36
	movq	%rax, -128(%rbp)
	movq	%rdx, -120(%rbp)
	.loc	5 118 14 is_stmt 0
	movq	-128(%rbp), %rcx
	movq	-120(%rbp), %rax
	movq	%rcx, -144(%rbp)
	movq	%rax, -136(%rbp)
	movq	-144(%rbp), %rax
	movq	-136(%rbp), %rdx
Ltmp573:
	.loc	33 171 10 is_stmt 1
	addq	$160, %rsp
	popq	%rbp
	retq
Ltmp574:
Lfunc_end46:
	.cfi_endproc

	.p2align	4, 0x90
__ZN5alloc3str17join_generic_copy28_$u7b$$u7b$closure$u7d$$u7d$28_$u7b$$u7b$closure$u7d$$u7d$17hb504aeb605e45f0dE:
Lfunc_begin47:
	.loc	33 151 0
	.cfi_startproc
	pushq	%rbp
	.cfi_def_cfa_offset 16
	.cfi_offset %rbp, -16
	movq	%rsp, %rbp
	.cfi_def_cfa_register %rbp
	subq	$32, %rsp
	movq	%rsi, -24(%rbp)
	movq	%rdi, %rax
	movq	-24(%rbp), %rdi
	movq	%rax, -16(%rbp)
	movq	%rdi, -8(%rbp)
Ltmp575:
	.loc	33 151 34 prologue_end
	callq	__ZN55_$LT$$RF$T$u20$as$u20$core..borrow..Borrow$LT$T$GT$$GT$6borrow17h0d78f0abf87df710E
	movq	%rax, %rdi
	movq	%rdx, %rsi
	callq	__ZN4core3str74_$LT$impl$u20$core..convert..AsRef$LT$$u5b$u8$u5d$$GT$$u20$for$u20$str$GT$6as_ref17he92abc95714f871dE
	movq	%rdx, %rax
	.loc	33 151 59 is_stmt 0
	addq	$32, %rsp
	popq	%rbp
	retq
Ltmp576:
Lfunc_end47:
	.cfi_endproc

	.p2align	4, 0x90
__ZN5alloc3str75_$LT$impl$u20$alloc..slice..Join$LT$$RF$str$GT$$u20$for$u20$$u5b$S$u5d$$GT$4join17ha3fd23ec3f1862a2E:
Lfunc_begin48:
	.loc	33 74 0 is_stmt 1
	.cfi_startproc
	pushq	%rbp
	.cfi_def_cfa_offset 16
	.cfi_offset %rbp, -16
	movq	%rsp, %rbp
	.cfi_def_cfa_register %rbp
	subq	$128, %rsp
	movq	%rdi, -128(%rbp)
	movq	%rdi, -120(%rbp)
	movq	%rsi, -64(%rbp)
	movq	%rdx, -56(%rbp)
	movq	%rcx, -48(%rbp)
	movq	%r8, -40(%rbp)
Ltmp577:
	.loc	33 75 71 prologue_end
	movq	%rcx, -32(%rbp)
	movq	%r8, -24(%rbp)
Ltmp578:
	.loc	23 327 18
	movq	%rcx, -16(%rbp)
	movq	%r8, -8(%rbp)
	movq	-16(%rbp), %rcx
	movq	-8(%rbp), %r8
Ltmp579:
	.loc	33 75 46
	leaq	-112(%rbp), %rdi
	callq	__ZN5alloc3str17join_generic_copy17h7364edce8183a05eE
	movq	-128(%rbp), %rdi
	movq	-120(%rbp), %rax
Ltmp580:
	.file	37 "/rustc/2c8cc343237b8f7d5a3c3703e3a87f2eb2c54a74/library/alloc/src" "string.rs"
	.loc	37 846 23
	movq	-112(%rbp), %rcx
	movq	%rcx, -88(%rbp)
	movq	-104(%rbp), %rcx
	movq	%rcx, -80(%rbp)
	movq	-96(%rbp), %rcx
	movq	%rcx, -72(%rbp)
	.loc	37 846 9 is_stmt 0
	movq	-88(%rbp), %rcx
	movq	%rcx, (%rdi)
	movq	-80(%rbp), %rcx
	movq	%rcx, 8(%rdi)
	movq	-72(%rbp), %rcx
	movq	%rcx, 16(%rdi)
Ltmp581:
	.loc	33 76 6 is_stmt 1
	addq	$128, %rsp
	popq	%rbp
	retq
Ltmp582:
Lfunc_end48:
	.cfi_endproc

	.p2align	4, 0x90
__ZN5alloc3vec16Vec$LT$T$C$A$GT$16extend_desugared17h2a902907565f4260E:
Lfunc_begin49:
	.loc	7 2845 0
	.cfi_startproc
	.cfi_personality 155, _rust_eh_personality
	.cfi_lsda 16, Lexception7
	pushq	%rbp
	.cfi_def_cfa_offset 16
	.cfi_offset %rbp, -16
	movq	%rsp, %rbp
	.cfi_def_cfa_register %rbp
	subq	$384, %rsp
	movq	%rdi, -320(%rbp)
	movq	%rsi, -312(%rbp)
Ltmp591:
	movq	%rdi, -232(%rbp)
Ltmp592:
LBB49_1:
Ltmp583:
	movq	-312(%rbp), %rdi
Ltmp593:
	.loc	7 2853 35 prologue_end
	callq	__ZN90_$LT$core..str..iter..Split$LT$P$GT$$u20$as$u20$core..iter..traits..iterator..Iterator$GT$4next17h85962ae6a274630eE
Ltmp584:
	movq	%rdx, -336(%rbp)
	movq	%rax, -328(%rbp)
	jmp	LBB49_4
Ltmp594:
LBB49_2:
	.loc	7 2845 5
	movq	-224(%rbp), %rdi
	callq	__Unwind_Resume
Ltmp595:
LBB49_3:
Ltmp585:
	.loc	7 0 5 is_stmt 0
	movq	%rax, %rcx
	movl	%edx, %eax
	movq	%rcx, -224(%rbp)
	movl	%eax, -216(%rbp)
	jmp	LBB49_2
Ltmp596:
LBB49_4:
	movq	-336(%rbp), %rax
	movq	-328(%rbp), %rcx
Ltmp597:
	.loc	7 2853 35 is_stmt 1
	movq	%rcx, -304(%rbp)
	movq	%rax, -296(%rbp)
	.loc	7 2853 19 is_stmt 0
	movq	-304(%rbp), %rdx
	movl	$1, %eax
	xorl	%ecx, %ecx
	cmpq	$0, %rdx
	cmoveq	%rcx, %rax
	cmpq	$1, %rax
	jne	LBB49_6
Ltmp598:
	.loc	7 0 19
	movq	-320(%rbp), %rax
	.loc	7 2853 24
	movq	-304(%rbp), %rdx
	movq	%rdx, -360(%rbp)
	movq	-296(%rbp), %rcx
	movq	%rcx, -352(%rbp)
	movq	%rdx, -208(%rbp)
	movq	%rcx, -200(%rbp)
	.loc	7 2854 23 is_stmt 1
	movq	%rax, -192(%rbp)
Ltmp599:
	.loc	7 2062 9
	movq	16(%rax), %rcx
	movq	%rcx, -344(%rbp)
	movq	%rcx, -184(%rbp)
Ltmp600:
	.loc	7 2855 23
	movq	%rax, -176(%rbp)
Ltmp601:
	.loc	7 889 9
	movq	%rax, -168(%rbp)
Ltmp602:
	.loc	10 232 12
	xorl	%eax, %eax
	testb	$1, %al
	jne	LBB49_9
	jmp	LBB49_8
Ltmp603:
LBB49_6:
	.loc	7 2853 9
	jmp	LBB49_7
Ltmp604:
LBB49_7:
	.loc	7 2867 6
	addq	$384, %rsp
	popq	%rbp
	retq
Ltmp605:
LBB49_8:
	.loc	7 0 6 is_stmt 0
	movq	-320(%rbp), %rax
Ltmp606:
	.loc	10 232 44 is_stmt 1
	movq	(%rax), %rax
	movq	%rax, -288(%rbp)
	.loc	10 232 9 is_stmt 0
	jmp	LBB49_10
Ltmp607:
LBB49_9:
	.loc	10 232 24
	movq	$-1, -288(%rbp)
Ltmp608:
LBB49_10:
	.loc	10 0 24
	movq	-344(%rbp), %rax
	.loc	7 2855 16 is_stmt 1
	cmpq	-288(%rbp), %rax
	je	LBB49_12
Ltmp609:
LBB49_11:
	.loc	7 0 16 is_stmt 0
	movq	-320(%rbp), %rax
	.loc	7 2860 28 is_stmt 1
	movq	%rax, -136(%rbp)
Ltmp610:
	.loc	7 1280 19
	movq	%rax, -128(%rbp)
Ltmp611:
	.loc	10 224 9
	movq	8(%rax), %rax
	movq	%rax, -368(%rbp)
	movq	%rax, -120(%rbp)
Ltmp612:
	.loc	11 104 9
	movq	%rax, -112(%rbp)
Ltmp613:
	.loc	12 326 9
	movq	%rax, -104(%rbp)
Ltmp614:
	.loc	7 1282 21
	movq	%rax, -96(%rbp)
Ltmp615:
	.loc	3 52 36
	movq	%rax, -240(%rbp)
	.loc	3 52 18 is_stmt 0
	movq	-240(%rbp), %rax
	movq	%rax, -88(%rbp)
Ltmp616:
	.loc	3 38 13 is_stmt 1
	movq	%rax, -80(%rbp)
Ltmp617:
	.loc	3 215 33
	movq	%rax, -72(%rbp)
	.loc	3 215 18 is_stmt 0
	movq	%rax, -64(%rbp)
	movq	-64(%rbp), %rax
	jmp	LBB49_18
Ltmp618:
LBB49_12:
Ltmp586:
	.loc	3 0 18
	movq	-312(%rbp), %rsi
	leaq	-280(%rbp), %rdi
	.loc	7 2856 34 is_stmt 1
	callq	__ZN4core4iter6traits8iterator8Iterator9size_hint17h42aa5b5a9c864aaaE
Ltmp587:
	jmp	LBB49_15
Ltmp619:
LBB49_13:
	.loc	7 2866 9
	movb	$1, %al
	testb	$1, %al
	jne	LBB49_20
	jmp	LBB49_2
Ltmp620:
LBB49_14:
Ltmp590:
	.loc	7 0 9 is_stmt 0
	movq	%rax, %rcx
	movl	%edx, %eax
	movq	%rcx, -224(%rbp)
	movl	%eax, -216(%rbp)
	jmp	LBB49_13
Ltmp621:
LBB49_15:
	.loc	7 2856 22 is_stmt 1
	movq	-280(%rbp), %rax
	movq	%rax, -160(%rbp)
Ltmp622:
	.loc	7 2857 30
	movq	%rax, -152(%rbp)
Ltmp623:
	.loc	8 1022 13
	incq	%rax
	movq	$-1, %rcx
	cmoveq	%rcx, %rax
	movq	%rax, -144(%rbp)
	movq	-144(%rbp), %rax
	movq	%rax, -376(%rbp)
Ltmp624:
Ltmp588:
	.loc	8 0 13 is_stmt 0
	movq	-376(%rbp), %rsi
	movq	-320(%rbp), %rdi
	.loc	7 2857 17 is_stmt 1
	callq	__ZN5alloc3vec16Vec$LT$T$C$A$GT$7reserve17he2808c295141befcE
Ltmp589:
	jmp	LBB49_17
Ltmp625:
LBB49_17:
	.loc	7 2855 13
	jmp	LBB49_11
Ltmp626:
LBB49_18:
	.loc	7 0 13 is_stmt 0
	movq	-368(%rbp), %rax
	movq	-344(%rbp), %rcx
	.loc	7 2860 50 is_stmt 1
	movq	%rcx, -56(%rbp)
Ltmp627:
	.loc	3 1034 18
	movq	%rax, -48(%rbp)
	.loc	3 1034 30 is_stmt 0
	movq	%rcx, -40(%rbp)
Ltmp628:
	.loc	3 487 18 is_stmt 1
	shlq	$4, %rcx
	addq	%rcx, %rax
	movq	%rax, -32(%rbp)
	movq	-32(%rbp), %rax
	movq	%rax, -384(%rbp)
Ltmp629:
	.loc	3 0 18 is_stmt 0
	movq	-320(%rbp), %rax
	movq	-344(%rbp), %rcx
	movq	-384(%rbp), %rdx
	movq	-352(%rbp), %rsi
	movq	-360(%rbp), %rdi
	.loc	3 487 18
	movq	%rdx, -24(%rbp)
Ltmp630:
	.loc	7 2860 56 is_stmt 1
	movq	%rdi, -256(%rbp)
	movq	%rsi, -248(%rbp)
Ltmp631:
	.loc	4 1354 9
	movq	-256(%rbp), %rsi
	movq	%rsi, (%rdx)
	movq	-248(%rbp), %rsi
	movq	%rsi, 8(%rdx)
Ltmp632:
	.loc	7 2864 17
	movq	%rax, -16(%rbp)
	.loc	7 2864 30 is_stmt 0
	addq	$1, %rcx
	movq	%rcx, -8(%rbp)
Ltmp633:
	.loc	7 1377 9 is_stmt 1
	movq	%rcx, 16(%rax)
Ltmp634:
	.loc	7 2853 9
	jmp	LBB49_1
Ltmp635:
LBB49_20:
	.loc	7 2866 9
	jmp	LBB49_2
Ltmp636:
Lfunc_end49:
	.cfi_endproc
	.section	__TEXT,__gcc_except_tab
	.p2align	2
GCC_except_table49:
Lexception7:
	.byte	255
	.byte	255
	.byte	1
	.uleb128 Lcst_end7-Lcst_begin7
Lcst_begin7:
	.uleb128 Ltmp583-Lfunc_begin49
	.uleb128 Ltmp584-Ltmp583
	.uleb128 Ltmp585-Lfunc_begin49
	.byte	0
	.uleb128 Ltmp584-Lfunc_begin49
	.uleb128 Ltmp586-Ltmp584
	.byte	0
	.byte	0
	.uleb128 Ltmp586-Lfunc_begin49
	.uleb128 Ltmp589-Ltmp586
	.uleb128 Ltmp590-Lfunc_begin49
	.byte	0
Lcst_end7:
	.p2align	2

	.section	__TEXT,__text,regular,pure_instructions
	.p2align	4, 0x90
__ZN5alloc3vec16Vec$LT$T$C$A$GT$18spare_capacity_mut17h541f3e70265e620bE:
Lfunc_begin50:
	.loc	7 2241 0
	.cfi_startproc
	pushq	%rbp
	.cfi_def_cfa_offset 16
	.cfi_offset %rbp, -16
	movq	%rsp, %rbp
	.cfi_def_cfa_register %rbp
	subq	$248, %rsp
	movq	%rdi, -248(%rbp)
	movq	%rdi, -184(%rbp)
Ltmp637:
	.loc	7 2247 17 prologue_end
	movq	%rdi, -176(%rbp)
Ltmp638:
	.loc	7 1280 19
	movq	%rdi, -168(%rbp)
Ltmp639:
	.loc	10 224 9
	movq	8(%rdi), %rax
	movq	%rax, -160(%rbp)
Ltmp640:
	.loc	11 104 9
	movq	%rax, -152(%rbp)
Ltmp641:
	.loc	12 326 9
	movq	%rax, -144(%rbp)
Ltmp642:
	.loc	7 1282 21
	movq	%rax, -136(%rbp)
Ltmp643:
	.loc	3 52 36
	movq	%rax, -224(%rbp)
	.loc	3 52 18 is_stmt 0
	movq	-224(%rbp), %rcx
	movq	%rcx, -128(%rbp)
Ltmp644:
	.loc	3 38 13 is_stmt 1
	movq	%rcx, -120(%rbp)
Ltmp645:
	.loc	3 215 33
	movq	%rcx, -112(%rbp)
	.loc	3 215 18 is_stmt 0
	movq	%rcx, -104(%rbp)
Ltmp646:
	.loc	7 2247 39 is_stmt 1
	movq	16(%rdi), %rcx
	movq	%rcx, -96(%rbp)
Ltmp647:
	.loc	3 1034 18
	movq	%rax, -88(%rbp)
	.loc	3 1034 30 is_stmt 0
	movq	%rcx, -80(%rbp)
Ltmp648:
	.loc	3 487 18 is_stmt 1
	addq	%rcx, %rax
	movq	%rax, -72(%rbp)
	movq	-72(%rbp), %rax
	movq	%rax, -240(%rbp)
Ltmp649:
	.loc	7 2247 17
	movq	%rax, -64(%rbp)
	.loc	7 2248 17
	movq	%rdi, -56(%rbp)
Ltmp650:
	.loc	10 232 12
	xorl	%eax, %eax
	testb	$1, %al
	jne	LBB50_2
	.loc	10 0 12 is_stmt 0
	movq	-248(%rbp), %rax
	.loc	10 232 44
	movq	(%rax), %rax
	movq	%rax, -232(%rbp)
	.loc	10 232 9
	jmp	LBB50_3
LBB50_2:
	.loc	10 232 24
	movq	$-1, -232(%rbp)
Ltmp651:
LBB50_3:
	.loc	10 0 24
	movq	-240(%rbp), %rcx
	movq	-248(%rbp), %rax
	.loc	7 2248 39 is_stmt 1
	movq	16(%rax), %rdx
	.loc	7 2248 17 is_stmt 0
	movq	-232(%rbp), %rax
	subq	%rdx, %rax
	movq	%rax, -48(%rbp)
Ltmp652:
	.loc	29 145 45 is_stmt 1
	movq	%rcx, -40(%rbp)
	.loc	29 145 51 is_stmt 0
	movq	%rax, -32(%rbp)
Ltmp653:
	.loc	4 766 24 is_stmt 1
	movq	%rcx, -24(%rbp)
Ltmp654:
	.loc	3 60 9
	movq	%rcx, -16(%rbp)
Ltmp655:
	.loc	4 766 37
	movq	%rax, -8(%rbp)
Ltmp656:
	.loc	5 135 36
	movq	%rcx, -200(%rbp)
	movq	%rax, -192(%rbp)
	.loc	5 135 14 is_stmt 0
	movq	-200(%rbp), %rcx
	movq	-192(%rbp), %rax
	movq	%rcx, -216(%rbp)
	movq	%rax, -208(%rbp)
	movq	-216(%rbp), %rax
	movq	-208(%rbp), %rdx
Ltmp657:
	.loc	7 2251 6 is_stmt 1
	addq	$248, %rsp
	popq	%rbp
	retq
Ltmp658:
Lfunc_end50:
	.cfi_endproc

	.p2align	4, 0x90
__ZN5alloc3vec16Vec$LT$T$C$A$GT$7reserve17he2808c295141befcE:
Lfunc_begin51:
	.loc	7 911 0
	.cfi_startproc
	pushq	%rbp
	.cfi_def_cfa_offset 16
	.cfi_offset %rbp, -16
	movq	%rsp, %rbp
	.cfi_def_cfa_register %rbp
	subq	$16, %rsp
	movq	%rsi, %rdx
	movq	%rdi, -16(%rbp)
	movq	%rdx, -8(%rbp)
Ltmp659:
	.loc	7 912 26 prologue_end
	movq	16(%rdi), %rsi
	.loc	7 912 9 is_stmt 0
	callq	__ZN5alloc7raw_vec19RawVec$LT$T$C$A$GT$7reserve17h29ac943527072b1bE
	.loc	7 913 6 is_stmt 1
	addq	$16, %rsp
	popq	%rbp
	retq
Ltmp660:
Lfunc_end51:
	.cfi_endproc

	.p2align	4, 0x90
__ZN5alloc5alloc6Global10alloc_impl17hdf1ea8781ef78950E:
Lfunc_begin52:
	.file	38 "/rustc/2c8cc343237b8f7d5a3c3703e3a87f2eb2c54a74/library/alloc/src" "alloc.rs"
	.loc	38 172 0
	.cfi_startproc
	pushq	%rbp
	.cfi_def_cfa_offset 16
	.cfi_offset %rbp, -16
	movq	%rsp, %rbp
	.cfi_def_cfa_register %rbp
	subq	$352, %rsp
	movb	%cl, %al
	movb	%al, -345(%rbp)
	movq	%rsi, -336(%rbp)
	movq	%rdx, -328(%rbp)
	movq	%rdi, -208(%rbp)
	andb	$1, %al
	movb	%al, -193(%rbp)
Ltmp661:
	.loc	38 173 15 prologue_end
	leaq	-336(%rbp), %rax
	movq	%rax, -144(%rbp)
Ltmp662:
	.loc	25 129 9
	movq	-336(%rbp), %rax
	movq	%rax, -344(%rbp)
Ltmp663:
	.loc	38 173 9
	cmpq	$0, %rax
	jne	LBB52_2
	.loc	38 174 51
	leaq	-336(%rbp), %rax
	movq	%rax, -48(%rbp)
Ltmp664:
	.loc	25 216 71
	leaq	-336(%rbp), %rax
	movq	%rax, -40(%rbp)
Ltmp665:
	.loc	25 140 9
	movq	-328(%rbp), %rax
	movq	%rax, -32(%rbp)
Ltmp666:
	.loc	26 97 9
	movq	%rax, -232(%rbp)
	movq	-232(%rbp), %rax
	movq	%rax, -24(%rbp)
Ltmp667:
	.loc	4 599 14
	movq	%rax, -16(%rbp)
	movq	-16(%rbp), %rax
	movq	%rax, -8(%rbp)
Ltmp668:
	.loc	12 201 13
	movq	%rax, -304(%rbp)
Ltmp669:
	.loc	38 174 21
	movq	-304(%rbp), %rdi
	xorl	%eax, %eax
	movl	%eax, %esi
	callq	__ZN4core3ptr8non_null26NonNull$LT$$u5b$T$u5d$$GT$20slice_from_raw_parts17h1a5a81613082d52dE
	.loc	38 174 18 is_stmt 0
	movq	%rax, -320(%rbp)
	movq	%rdx, -312(%rbp)
	.loc	38 174 72
	jmp	LBB52_15
LBB52_2:
	.loc	38 0 72
	movb	-345(%rbp), %al
	movq	-344(%rbp), %rcx
	.loc	38 176 13 is_stmt 1
	movq	%rcx, -136(%rbp)
Ltmp670:
	.loc	38 177 34
	testb	$1, %al
	jne	LBB52_4
	.loc	38 177 79 is_stmt 0
	movq	-336(%rbp), %rcx
	movq	-328(%rbp), %rax
	movq	%rcx, -272(%rbp)
	movq	%rax, -264(%rbp)
Ltmp671:
	.loc	38 95 27 is_stmt 1
	leaq	-272(%rbp), %rax
	movq	%rax, -104(%rbp)
Ltmp672:
	.loc	25 129 9
	movq	-272(%rbp), %rdi
Ltmp673:
	.loc	38 95 42
	leaq	-272(%rbp), %rax
	movq	%rax, -96(%rbp)
Ltmp674:
	.loc	25 140 9
	movq	-264(%rbp), %rax
	movq	%rax, -88(%rbp)
Ltmp675:
	.loc	26 97 9
	movq	%rax, -216(%rbp)
	movq	-216(%rbp), %rsi
Ltmp676:
	.loc	38 95 14
	callq	___rust_alloc
	movq	%rax, -296(%rbp)
Ltmp677:
	.loc	38 177 31
	jmp	LBB52_5
LBB52_4:
	.loc	38 177 56 is_stmt 0
	movq	-336(%rbp), %rcx
	movq	-328(%rbp), %rax
	movq	%rcx, -288(%rbp)
	movq	%rax, -280(%rbp)
Ltmp678:
	.loc	38 166 34 is_stmt 1
	leaq	-288(%rbp), %rax
	movq	%rax, -128(%rbp)
Ltmp679:
	.loc	25 129 9
	movq	-288(%rbp), %rdi
Ltmp680:
	.loc	38 166 49
	leaq	-288(%rbp), %rax
	movq	%rax, -120(%rbp)
Ltmp681:
	.loc	25 140 9
	movq	-280(%rbp), %rax
	movq	%rax, -112(%rbp)
Ltmp682:
	.loc	26 97 9
	movq	%rax, -224(%rbp)
	movq	-224(%rbp), %rsi
Ltmp683:
	.loc	38 166 14
	callq	___rust_alloc_zeroed
	movq	%rax, -296(%rbp)
Ltmp684:
LBB52_5:
	.loc	38 178 40
	movq	-296(%rbp), %rdi
	.loc	38 178 27 is_stmt 0
	callq	__ZN4core3ptr8non_null16NonNull$LT$T$GT$3new17hef91946685c683a2E
	movq	%rax, -240(%rbp)
Ltmp685:
	.loc	30 1096 15 is_stmt 1
	movq	-240(%rbp), %rdx
	movl	$1, %eax
	xorl	%ecx, %ecx
	cmpq	$0, %rdx
	cmoveq	%rcx, %rax
	.loc	30 1096 9 is_stmt 0
	cmpq	$0, %rax
	jne	LBB52_7
	.loc	30 1098 21 is_stmt 1
	movq	$0, -248(%rbp)
	.loc	30 1098 28 is_stmt 0
	jmp	LBB52_8
LBB52_7:
	.loc	30 1097 18 is_stmt 1
	movq	-240(%rbp), %rax
	movq	%rax, -80(%rbp)
Ltmp686:
	.loc	30 1097 24 is_stmt 0
	movq	%rax, -248(%rbp)
Ltmp687:
LBB52_8:
	.file	39 "/rustc/2c8cc343237b8f7d5a3c3703e3a87f2eb2c54a74/library/core/src" "result.rs"
	.loc	39 2091 15 is_stmt 1
	movq	-248(%rbp), %rdx
	xorl	%eax, %eax
	movl	$1, %ecx
	cmpq	$0, %rdx
	cmoveq	%rcx, %rax
	.loc	39 2091 9 is_stmt 0
	cmpq	$0, %rax
	jne	LBB52_10
	.loc	39 2092 16 is_stmt 1
	movq	-248(%rbp), %rax
	movq	%rax, -72(%rbp)
Ltmp688:
	.loc	39 2092 22 is_stmt 0
	movq	%rax, -256(%rbp)
Ltmp689:
	.loc	39 2092 45
	jmp	LBB52_11
LBB52_10:
Ltmp690:
	.loc	39 2093 23 is_stmt 1
	movq	$0, -256(%rbp)
Ltmp691:
LBB52_11:
	.loc	38 178 27
	movq	-256(%rbp), %rdx
	xorl	%eax, %eax
	movl	$1, %ecx
	cmpq	$0, %rdx
	cmoveq	%rcx, %rax
	cmpq	$0, %rax
	jne	LBB52_13
	.loc	38 0 27 is_stmt 0
	movq	-344(%rbp), %rsi
	.loc	38 178 27
	movq	-256(%rbp), %rdi
	movq	%rdi, -64(%rbp)
Ltmp692:
	.loc	38 178 27
	movq	%rdi, -56(%rbp)
Ltmp693:
	.loc	38 179 20 is_stmt 1
	callq	__ZN4core3ptr8non_null26NonNull$LT$$u5b$T$u5d$$GT$20slice_from_raw_parts17h1a5a81613082d52dE
	.loc	38 179 17 is_stmt 0
	movq	%rax, -320(%rbp)
	movq	%rdx, -312(%rbp)
Ltmp694:
	.loc	38 180 13 is_stmt 1
	jmp	LBB52_15
LBB52_13:
Ltmp695:
	.loc	39 2107 23
	movq	$0, -320(%rbp)
Ltmp696:
LBB52_14:
	.loc	38 182 6
	movq	-320(%rbp), %rax
	movq	-312(%rbp), %rdx
	addq	$352, %rsp
	popq	%rbp
	retq
LBB52_15:
	jmp	LBB52_14
Ltmp697:
Lfunc_end52:
	.cfi_endproc

	.p2align	4, 0x90
__ZN5alloc5slice29_$LT$impl$u20$$u5b$T$u5d$$GT$4join17hd9c8bf6e5b1b5413E:
Lfunc_begin53:
	.file	40 "/rustc/2c8cc343237b8f7d5a3c3703e3a87f2eb2c54a74/library/alloc/src" "slice.rs"
	.loc	40 576 0
	.cfi_startproc
	pushq	%rbp
	.cfi_def_cfa_offset 16
	.cfi_offset %rbp, -16
	movq	%rsp, %rbp
	.cfi_def_cfa_register %rbp
	subq	$48, %rsp
	movq	%rdi, %rax
	movq	%rax, -40(%rbp)
	movq	%rsi, -32(%rbp)
	movq	%rdx, -24(%rbp)
	movq	%rcx, -16(%rbp)
	movq	%r8, -8(%rbp)
Ltmp698:
	.loc	40 580 9 prologue_end
	callq	__ZN5alloc3str75_$LT$impl$u20$alloc..slice..Join$LT$$RF$str$GT$$u20$for$u20$$u5b$S$u5d$$GT$4join17ha3fd23ec3f1862a2E
	movq	-40(%rbp), %rax
	.loc	40 581 6
	addq	$48, %rsp
	popq	%rbp
	retq
Ltmp699:
Lfunc_end53:
	.cfi_endproc

	.p2align	4, 0x90
__ZN5alloc7raw_vec14handle_reserve17h560a2991b3a5aba4E:
Lfunc_begin54:
	.loc	10 487 0
	.cfi_startproc
	pushq	%rbp
	.cfi_def_cfa_offset 16
	.cfi_offset %rbp, -16
	movq	%rsp, %rbp
	.cfi_def_cfa_register %rbp
	subq	$48, %rsp
	movq	%rdi, -32(%rbp)
	movq	%rsi, -24(%rbp)
Ltmp700:
	.loc	10 488 11 prologue_end
	callq	__ZN4core6result19Result$LT$T$C$E$GT$7map_err17hb20f3b946b17c817E
	movq	%rdx, -40(%rbp)
	movq	%rax, -48(%rbp)
	movabsq	$-9223372036854775807, %rdx
	movl	$1, %eax
	xorl	%ecx, %ecx
	cmpq	%rdx, -40(%rbp)
	cmoveq	%rcx, %rax
	.loc	10 488 5 is_stmt 0
	cmpq	$0, %rax
	jne	LBB54_2
	.loc	10 493 2 is_stmt 1
	addq	$48, %rsp
	popq	%rbp
	retq
LBB54_2:
	.loc	10 488 11
	movl	$1, %eax
	xorl	%ecx, %ecx
	cmpq	$0, -40(%rbp)
	cmoveq	%rcx, %rax
	.loc	10 488 5 is_stmt 0
	cmpq	$0, %rax
	jne	LBB54_4
	.loc	10 489 34 is_stmt 1
	callq	__ZN5alloc7raw_vec17capacity_overflow17h082ee8492f253a0eE
LBB54_4:
	.loc	10 490 26
	movq	-48(%rbp), %rdi
	movq	-40(%rbp), %rsi
	movq	%rdi, -16(%rbp)
	movq	%rsi, -8(%rbp)
Ltmp701:
	.loc	10 490 43 is_stmt 0
	callq	__ZN5alloc5alloc18handle_alloc_error17hb5f6ff255f23ea4dE
Ltmp702:
Lfunc_end54:
	.cfi_endproc

	.p2align	4, 0x90
__ZN5alloc7raw_vec19RawVec$LT$T$C$A$GT$11allocate_in17hab123b971f4df817E:
Lfunc_begin55:
	.loc	10 169 0 is_stmt 1
	.cfi_startproc
	.cfi_personality 155, _rust_eh_personality
	.cfi_lsda 16, Lexception8
	pushq	%rbp
	.cfi_def_cfa_offset 16
	.cfi_offset %rbp, -16
	movq	%rsp, %rbp
	.cfi_def_cfa_register %rbp
	subq	$384, %rsp
	movq	%rdi, -296(%rbp)
	movb	%sil, %al
	andb	$1, %al
	movb	%al, -281(%rbp)
	movq	%rdi, -168(%rbp)
Ltmp718:
	.loc	10 171 12 prologue_end
	movb	$1, -177(%rbp)
	xorl	%eax, %eax
	testb	$1, %al
	jne	LBB55_2
	.loc	10 0 12 is_stmt 0
	movq	-296(%rbp), %rax
	.loc	10 171 25
	cmpq	$0, %rax
	sete	%al
	.loc	10 171 12
	andb	$1, %al
	movb	%al, -249(%rbp)
	jmp	LBB55_3
LBB55_2:
	movb	$1, -249(%rbp)
LBB55_3:
	testb	$1, -249(%rbp)
	jne	LBB55_5
	.loc	10 0 12
	movq	-296(%rbp), %rax
	.loc	10 176 51 is_stmt 1
	movq	%rax, -144(%rbp)
Ltmp719:
	.loc	21 459 5
	movq	$8, -136(%rbp)
Ltmp720:
	.loc	26 89 18
	movq	$8, -128(%rbp)
	movq	-128(%rbp), %rax
	movq	%rax, -304(%rbp)
	jmp	LBB55_10
Ltmp721:
LBB55_5:
	.loc	10 172 26
	movb	$0, -177(%rbp)
Ltmp715:
	.loc	10 172 13 is_stmt 0
	callq	__ZN5alloc7raw_vec19RawVec$LT$T$C$A$GT$6new_in17h672483f327620488E
Ltmp716:
	movq	%rdx, -320(%rbp)
	movq	%rax, -312(%rbp)
	jmp	LBB55_8
LBB55_6:
	.loc	10 202 5 is_stmt 1
	testb	$1, -177(%rbp)
	jne	LBB55_25
	jmp	LBB55_24
LBB55_7:
Ltmp717:
	.loc	10 0 5 is_stmt 0
	movq	%rax, %rcx
	movl	%edx, %eax
	movq	%rcx, -160(%rbp)
	movl	%eax, -152(%rbp)
	jmp	LBB55_6
LBB55_8:
	movq	-320(%rbp), %rax
	movq	-312(%rbp), %rcx
	.loc	10 172 13 is_stmt 1
	movq	%rcx, -272(%rbp)
	movq	%rax, -264(%rbp)
LBB55_9:
	.loc	10 202 6
	movq	-272(%rbp), %rax
	movq	-264(%rbp), %rdx
	addq	$384, %rsp
	popq	%rbp
	retq
LBB55_10:
Ltmp703:
	.loc	10 0 6 is_stmt 0
	movq	-296(%rbp), %rdx
	movq	-304(%rbp), %rsi
	movl	$16, %edi
Ltmp722:
	.loc	25 438 16 is_stmt 1
	callq	__ZN4core5alloc6layout6Layout5array5inner17h5ed937c90de90f52E
Ltmp704:
	movq	%rdx, -336(%rbp)
	movq	%rax, -328(%rbp)
	jmp	LBB55_11
LBB55_11:
	.loc	25 0 16 is_stmt 0
	movq	-336(%rbp), %rax
	movq	-328(%rbp), %rcx
	.loc	25 438 16
	movq	%rcx, -248(%rbp)
	movq	%rax, -240(%rbp)
Ltmp723:
	.loc	10 176 32 is_stmt 1
	xorl	%eax, %eax
	movl	$1, %ecx
	cmpq	$0, -240(%rbp)
	cmoveq	%rcx, %rax
	.loc	10 176 26 is_stmt 0
	cmpq	$0, %rax
	jne	LBB55_13
	.loc	10 177 20 is_stmt 1
	movq	-248(%rbp), %rcx
	movq	%rcx, -352(%rbp)
	movq	-240(%rbp), %rax
	movq	%rax, -344(%rbp)
	movq	%rcx, -120(%rbp)
	movq	%rax, -112(%rbp)
Ltmp724:
	.loc	10 177 31 is_stmt 0
	movq	%rcx, -104(%rbp)
	movq	%rax, -96(%rbp)
Ltmp725:
	.loc	10 509 9 is_stmt 1
	movabsq	$-9223372036854775807, %rax
	movq	%rax, -224(%rbp)
Ltmp726:
	.loc	10 180 19
	movabsq	$-9223372036854775807, %rdx
	movl	$1, %eax
	xorl	%ecx, %ecx
	cmpq	%rdx, -224(%rbp)
	cmoveq	%rcx, %rax
	.loc	10 180 13 is_stmt 0
	cmpq	$0, %rax
	je	LBB55_15
	jmp	LBB55_16
Ltmp727:
LBB55_13:
Ltmp705:
	.loc	10 178 27 is_stmt 1
	callq	__ZN5alloc7raw_vec17capacity_overflow17h082ee8492f253a0eE
Ltmp706:
	jmp	LBB55_14
LBB55_14:
	.loc	10 0 27 is_stmt 0
	ud2
LBB55_15:
Ltmp728:
	.loc	10 184 32 is_stmt 1
	movb	-281(%rbp), %al
	andb	$1, %al
	movzbl	%al, %eax
	.loc	10 184 26 is_stmt 0
	cmpq	$0, %rax
	je	LBB55_17
	jmp	LBB55_18
LBB55_16:
Ltmp707:
	.loc	10 182 27 is_stmt 1
	callq	__ZN5alloc7raw_vec17capacity_overflow17h082ee8492f253a0eE
Ltmp708:
	jmp	LBB55_14
LBB55_17:
Ltmp711:
	.loc	10 0 27 is_stmt 0
	movq	-344(%rbp), %rdx
	movq	-352(%rbp), %rsi
	leaq	-280(%rbp), %rdi
	.loc	10 185 45 is_stmt 1
	callq	__ZN63_$LT$alloc..alloc..Global$u20$as$u20$core..alloc..Allocator$GT$8allocate17hd34aa0c52b6983fbE
Ltmp712:
	movq	%rdx, -368(%rbp)
	movq	%rax, -360(%rbp)
	jmp	LBB55_21
LBB55_18:
Ltmp709:
	.loc	10 0 45 is_stmt 0
	movq	-344(%rbp), %rdx
	movq	-352(%rbp), %rsi
	leaq	-280(%rbp), %rdi
	.loc	10 186 38 is_stmt 1
	callq	__ZN63_$LT$alloc..alloc..Global$u20$as$u20$core..alloc..Allocator$GT$15allocate_zeroed17h17125f7b6d267366E
Ltmp710:
	movq	%rdx, -384(%rbp)
	movq	%rax, -376(%rbp)
	jmp	LBB55_19
LBB55_19:
	.loc	10 0 38 is_stmt 0
	movq	-384(%rbp), %rax
	movq	-376(%rbp), %rcx
	.loc	10 186 38
	movq	%rcx, -216(%rbp)
	movq	%rax, -208(%rbp)
LBB55_20:
Ltmp729:
	.loc	10 188 29 is_stmt 1
	movq	-216(%rbp), %rdx
	xorl	%eax, %eax
	movl	$1, %ecx
	cmpq	$0, %rdx
	cmoveq	%rcx, %rax
	.loc	10 188 23 is_stmt 0
	cmpq	$0, %rax
	je	LBB55_22
	jmp	LBB55_23
Ltmp730:
LBB55_21:
	.loc	10 0 23
	movq	-368(%rbp), %rax
	movq	-360(%rbp), %rcx
	.loc	10 185 45 is_stmt 1
	movq	%rcx, -216(%rbp)
	movq	%rax, -208(%rbp)
	.loc	10 185 66 is_stmt 0
	jmp	LBB55_20
LBB55_22:
	.loc	10 0 66
	movq	-296(%rbp), %rax
Ltmp731:
	.loc	10 189 20 is_stmt 1
	movq	-216(%rbp), %rcx
	movq	-208(%rbp), %rdx
	movq	%rcx, -88(%rbp)
	movq	%rdx, -80(%rbp)
Ltmp732:
	.loc	10 189 28 is_stmt 0
	movq	%rcx, -72(%rbp)
	movq	%rdx, -64(%rbp)
Ltmp733:
	.loc	10 197 53 is_stmt 1
	movq	%rcx, -56(%rbp)
	movq	%rdx, -48(%rbp)
Ltmp734:
	.loc	12 450 41
	movq	%rcx, -40(%rbp)
	movq	%rdx, -32(%rbp)
	movq	%rcx, -24(%rbp)
Ltmp735:
	.loc	12 201 13
	movq	%rcx, -192(%rbp)
Ltmp736:
	.loc	12 326 9
	movq	-192(%rbp), %rcx
	movq	%rcx, -16(%rbp)
Ltmp737:
	.loc	11 87 59
	movq	%rcx, -8(%rbp)
Ltmp738:
	.loc	12 201 13
	movq	%rcx, -176(%rbp)
Ltmp739:
	.loc	11 87 18
	movq	-176(%rbp), %rcx
	movq	%rcx, -200(%rbp)
Ltmp740:
	.loc	10 196 13
	movq	-200(%rbp), %rcx
	movq	%rcx, -264(%rbp)
	movq	%rax, -272(%rbp)
Ltmp741:
	.loc	10 171 9
	jmp	LBB55_9
LBB55_23:
Ltmp713:
	.loc	10 0 9 is_stmt 0
	movq	-344(%rbp), %rsi
	movq	-352(%rbp), %rdi
Ltmp742:
	.loc	10 190 27 is_stmt 1
	callq	__ZN5alloc5alloc18handle_alloc_error17hb5f6ff255f23ea4dE
Ltmp714:
	jmp	LBB55_14
Ltmp743:
LBB55_24:
	.loc	10 169 5
	movq	-160(%rbp), %rdi
	callq	__Unwind_Resume
LBB55_25:
	.loc	10 202 5
	jmp	LBB55_24
Ltmp744:
Lfunc_end55:
	.cfi_endproc
	.section	__TEXT,__gcc_except_tab
	.p2align	2
GCC_except_table55:
Lexception8:
	.byte	255
	.byte	255
	.byte	1
	.uleb128 Lcst_end8-Lcst_begin8
Lcst_begin8:
	.uleb128 Ltmp715-Lfunc_begin55
	.uleb128 Ltmp714-Ltmp715
	.uleb128 Ltmp717-Lfunc_begin55
	.byte	0
	.uleb128 Ltmp714-Lfunc_begin55
	.uleb128 Lfunc_end55-Ltmp714
	.byte	0
	.byte	0
Lcst_end8:
	.p2align	2

	.section	__TEXT,__text,regular,pure_instructions
	.p2align	4, 0x90
__ZN5alloc7raw_vec19RawVec$LT$T$C$A$GT$13needs_to_grow17h4e48e148cdcc7afaE:
Lfunc_begin56:
	.loc	10 360 0
	.cfi_startproc
	pushq	%rbp
	.cfi_def_cfa_offset 16
	.cfi_offset %rbp, -16
	movq	%rsp, %rbp
	.cfi_def_cfa_register %rbp
	subq	$72, %rsp
	movq	%rdi, -72(%rbp)
	movq	%rsi, -64(%rbp)
	movq	%rdx, -56(%rbp)
	movq	%rdi, -40(%rbp)
	movq	%rsi, -32(%rbp)
	movq	%rdx, -24(%rbp)
Ltmp745:
	.loc	10 361 22 prologue_end
	movq	%rdi, -16(%rbp)
Ltmp746:
	.loc	10 232 12
	xorl	%eax, %eax
	testb	$1, %al
	jne	LBB56_2
	.loc	10 0 12 is_stmt 0
	movq	-72(%rbp), %rax
	.loc	10 232 44
	movq	(%rax), %rax
	movq	%rax, -48(%rbp)
	.loc	10 232 9
	jmp	LBB56_3
LBB56_2:
	.loc	10 232 24
	movq	$-1, -48(%rbp)
Ltmp747:
LBB56_3:
	.loc	10 0 24
	movq	-56(%rbp), %rax
	movq	-64(%rbp), %rdx
	.loc	10 361 51 is_stmt 1
	movq	%rdx, -8(%rbp)
Ltmp748:
	.loc	8 1203 38
	movq	-48(%rbp), %rcx
	.loc	8 1203 13 is_stmt 0
	subq	%rdx, %rcx
Ltmp749:
	.loc	10 361 9 is_stmt 1
	cmpq	%rcx, %rax
	seta	%al
	.loc	10 362 6
	andb	$1, %al
	movzbl	%al, %eax
	addq	$72, %rsp
	popq	%rbp
	retq
Ltmp750:
Lfunc_end56:
	.cfi_endproc

	.p2align	4, 0x90
__ZN5alloc7raw_vec19RawVec$LT$T$C$A$GT$14current_memory17ha964cea59f11e4b6E:
Lfunc_begin57:
	.loc	10 240 0
	.cfi_startproc
	pushq	%rbp
	.cfi_def_cfa_offset 16
	.cfi_offset %rbp, -16
	movq	%rsp, %rbp
	.cfi_def_cfa_register %rbp
	subq	$176, %rsp
	movq	%rsi, -152(%rbp)
	movq	%rdi, -144(%rbp)
	movq	%rdi, -136(%rbp)
	movq	%rsi, -80(%rbp)
Ltmp751:
	.loc	10 241 12 prologue_end
	xorl	%eax, %eax
	testb	$1, %al
	jne	LBB57_2
	.loc	10 0 12 is_stmt 0
	movq	-152(%rbp), %rax
	.loc	10 241 25
	cmpq	$0, (%rax)
	sete	%al
	.loc	10 241 12
	andb	$1, %al
	movb	%al, -121(%rbp)
	jmp	LBB57_3
LBB57_2:
	movb	$1, -121(%rbp)
LBB57_3:
	testb	$1, -121(%rbp)
	jne	LBB57_5
	.loc	10 0 12
	movq	-152(%rbp), %rax
	.loc	10 247 49 is_stmt 1
	movq	(%rax), %rdx
	movq	%rdx, -72(%rbp)
Ltmp752:
	.loc	21 459 5
	movq	$8, -64(%rbp)
Ltmp753:
	.loc	26 89 18
	movq	$8, -56(%rbp)
	movq	-56(%rbp), %rsi
Ltmp754:
	.loc	25 438 16
	movl	$16, %edi
	callq	__ZN4core5alloc6layout6Layout5array5inner17h5ed937c90de90f52E
	movq	%rax, %rdi
	movq	%rdx, %rsi
Ltmp755:
	.loc	10 247 30
	leaq	l___unnamed_14(%rip), %rdx
	callq	__ZN4core6result19Result$LT$T$C$E$GT$16unwrap_unchecked17hcde7deaa30762ffbE
	movq	%rax, %rcx
	movq	-152(%rbp), %rax
	movq	%rcx, -168(%rbp)
	movq	%rdx, -160(%rbp)
	movq	%rcx, -48(%rbp)
	movq	%rdx, -40(%rbp)
Ltmp756:
	.loc	10 248 23
	movq	8(%rax), %rax
	movq	%rax, -32(%rbp)
Ltmp757:
	.loc	11 137 22
	movq	%rax, -24(%rbp)
Ltmp758:
	.loc	12 450 41
	movq	%rax, -16(%rbp)
	movq	%rax, -8(%rbp)
Ltmp759:
	.loc	12 201 13
	movq	%rax, -88(%rbp)
Ltmp760:
	.loc	11 191 18
	movq	-88(%rbp), %rax
	.loc	11 191 9 is_stmt 0
	movq	%rax, -96(%rbp)
Ltmp761:
	.loc	10 248 23 is_stmt 1
	movq	-96(%rbp), %rdi
	callq	__ZN50_$LT$T$u20$as$u20$core..convert..Into$LT$U$GT$$GT$4into17h140140ea115c604bE
	movq	-168(%rbp), %rcx
	movq	-160(%rbp), %rdx
	movq	%rax, %rsi
	movq	-144(%rbp), %rax
	.loc	10 248 22 is_stmt 0
	movq	%rsi, -120(%rbp)
	movq	%rcx, -112(%rbp)
	movq	%rdx, -104(%rbp)
	.loc	10 248 17
	movq	-120(%rbp), %rcx
	movq	%rcx, (%rax)
	movq	-112(%rbp), %rcx
	movq	%rcx, 8(%rax)
	movq	-104(%rbp), %rcx
	movq	%rcx, 16(%rax)
Ltmp762:
	.loc	10 241 9 is_stmt 1
	jmp	LBB57_6
LBB57_5:
	.loc	10 0 9 is_stmt 0
	movq	-144(%rbp), %rax
	.loc	10 242 13 is_stmt 1
	movq	$0, 16(%rax)
LBB57_6:
	.loc	10 0 13 is_stmt 0
	movq	-136(%rbp), %rax
	.loc	10 251 6 is_stmt 1
	addq	$176, %rsp
	popq	%rbp
	retq
Ltmp763:
Lfunc_end57:
	.cfi_endproc

	.p2align	4, 0x90
__ZN5alloc7raw_vec19RawVec$LT$T$C$A$GT$14grow_amortized17hd4094f6220907bbdE:
Lfunc_begin58:
	.loc	10 379 0
	.cfi_startproc
	pushq	%rbp
	.cfi_def_cfa_offset 16
	.cfi_offset %rbp, -16
	movq	%rsp, %rbp
	.cfi_def_cfa_register %rbp
	subq	$656, %rsp
	movq	%rdi, -624(%rbp)
	movq	%rsi, -616(%rbp)
	movq	%rdx, -608(%rbp)
	movq	%rdi, -352(%rbp)
	movq	%rsi, -344(%rbp)
	movq	%rdx, -336(%rbp)
Ltmp764:
	.loc	10 383 12 prologue_end
	xorl	%eax, %eax
	testb	$1, %al
	jne	LBB58_2
	.loc	10 0 12 is_stmt 0
	movq	-608(%rbp), %rsi
	movq	-616(%rbp), %rdi
	.loc	10 390 28 is_stmt 1
	callq	__ZN4core3num23_$LT$impl$u20$usize$GT$11checked_add17h4effb9344aa37833E
	movq	%rdx, -528(%rbp)
	movq	%rax, -536(%rbp)
	.loc	10 390 62 is_stmt 0
	movq	$0, -512(%rbp)
Ltmp765:
	.loc	30 1096 9 is_stmt 1
	cmpq	$0, -536(%rbp)
	je	LBB58_4
	jmp	LBB58_5
Ltmp766:
LBB58_2:
	.loc	10 386 24
	movq	$0, -576(%rbp)
	movq	-584(%rbp), %rdi
	movq	-576(%rbp), %rsi
	callq	__ZN50_$LT$T$u20$as$u20$core..convert..Into$LT$U$GT$$GT$4into17h9b3f4c8e577c0e28E
	.loc	10 386 20 is_stmt 0
	movq	%rax, -600(%rbp)
	movq	%rdx, -592(%rbp)
LBB58_3:
	.loc	10 403 6 is_stmt 1
	movq	-600(%rbp), %rax
	movq	-592(%rbp), %rdx
	addq	$656, %rsp
	popq	%rbp
	retq
LBB58_4:
Ltmp767:
	.loc	30 1098 25
	movq	-520(%rbp), %rcx
	movq	-512(%rbp), %rax
	.loc	30 1098 21 is_stmt 0
	movq	%rcx, -552(%rbp)
	movq	%rax, -544(%rbp)
	.loc	30 1098 28
	jmp	LBB58_6
LBB58_5:
	.loc	30 1097 18 is_stmt 1
	movq	-528(%rbp), %rax
	movq	%rax, -328(%rbp)
Ltmp768:
	.loc	30 1097 24 is_stmt 0
	movq	%rax, -552(%rbp)
	movabsq	$-9223372036854775807, %rax
	movq	%rax, -544(%rbp)
Ltmp769:
LBB58_6:
	.loc	39 2091 15 is_stmt 1
	movabsq	$-9223372036854775807, %rdx
	movl	$1, %eax
	xorl	%ecx, %ecx
	cmpq	%rdx, -544(%rbp)
	cmoveq	%rcx, %rax
	.loc	39 2091 9 is_stmt 0
	cmpq	$0, %rax
	jne	LBB58_8
	.loc	39 2092 16 is_stmt 1
	movq	-552(%rbp), %rax
	movq	%rax, -304(%rbp)
Ltmp770:
	.loc	39 2092 22 is_stmt 0
	movq	%rax, -568(%rbp)
	movabsq	$-9223372036854775807, %rax
	movq	%rax, -560(%rbp)
Ltmp771:
	.loc	39 2092 45
	jmp	LBB58_9
LBB58_8:
	.loc	39 2093 17 is_stmt 1
	movq	-552(%rbp), %rcx
	movq	-544(%rbp), %rax
	movq	%rcx, -320(%rbp)
	movq	%rax, -312(%rbp)
Ltmp772:
	.loc	39 2093 42 is_stmt 0
	movq	%rcx, -400(%rbp)
	movq	%rax, -392(%rbp)
	.loc	39 2093 23
	movq	-400(%rbp), %rcx
	movq	-392(%rbp), %rax
	movq	%rcx, -568(%rbp)
	movq	%rax, -560(%rbp)
Ltmp773:
LBB58_9:
	.loc	10 390 28 is_stmt 1
	movabsq	$-9223372036854775807, %rdx
	movl	$1, %eax
	xorl	%ecx, %ecx
	cmpq	%rdx, -560(%rbp)
	cmoveq	%rcx, %rax
	cmpq	$0, %rax
	jne	LBB58_11
	.loc	10 0 28 is_stmt 0
	movq	-624(%rbp), %rax
	.loc	10 390 28
	movq	-568(%rbp), %rsi
	movq	%rsi, -248(%rbp)
Ltmp774:
	.loc	10 390 28
	movq	%rsi, -240(%rbp)
Ltmp775:
	.loc	10 394 28 is_stmt 1
	movq	(%rax), %rdi
	shlq	$1, %rdi
	movq	%rdi, -232(%rbp)
	.loc	10 394 42 is_stmt 0
	movq	%rsi, -224(%rbp)
Ltmp776:
	.loc	9 1276 5 is_stmt 1
	movq	%rdi, -216(%rbp)
	.loc	9 1276 12 is_stmt 0
	movq	%rsi, -208(%rbp)
Ltmp777:
	.loc	9 803 13 is_stmt 1
	callq	__ZN4core3cmp6max_by17h13f7b8ee2fc50dc2E
	movq	%rax, %rsi
	movq	%rsi, -200(%rbp)
Ltmp778:
	.loc	10 395 52
	movq	%rsi, -192(%rbp)
	.loc	10 395 19 is_stmt 0
	movq	$4, -184(%rbp)
Ltmp779:
	.loc	9 1276 5 is_stmt 1
	movq	$4, -176(%rbp)
	.loc	9 1276 12 is_stmt 0
	movq	%rsi, -168(%rbp)
Ltmp780:
	.loc	9 803 13 is_stmt 1
	movl	$4, %edi
	callq	__ZN4core3cmp6max_by17h13f7b8ee2fc50dc2E
	movq	%rax, %rdx
	movq	%rdx, -648(%rbp)
	movq	%rdx, -160(%rbp)
Ltmp781:
	.loc	10 397 45
	movq	%rdx, -152(%rbp)
Ltmp782:
	.loc	21 459 5
	movq	$8, -144(%rbp)
Ltmp783:
	.loc	26 89 18
	movq	$8, -136(%rbp)
	movq	-136(%rbp), %rsi
Ltmp784:
	.loc	25 438 16
	movl	$16, %edi
	callq	__ZN4core5alloc6layout6Layout5array5inner17h5ed937c90de90f52E
	movq	-624(%rbp), %rsi
	movq	%rax, -640(%rbp)
	movq	%rdx, -632(%rbp)
	movq	%rax, -128(%rbp)
	movq	%rdx, -120(%rbp)
Ltmp785:
	.loc	10 400 43
	leaq	-440(%rbp), %rdi
	callq	__ZN5alloc7raw_vec19RawVec$LT$T$C$A$GT$14current_memory17ha964cea59f11e4b6E
	movq	-640(%rbp), %rsi
	movq	-632(%rbp), %rdx
	movq	-624(%rbp), %r8
	.loc	10 400 19 is_stmt 0
	leaq	-464(%rbp), %rdi
	leaq	-440(%rbp), %rcx
	callq	__ZN5alloc7raw_vec11finish_grow17hb10b964a44e7780fE
Ltmp786:
	.loc	39 2091 9 is_stmt 1
	cmpq	$0, -464(%rbp)
	je	LBB58_13
	jmp	LBB58_14
Ltmp787:
LBB58_11:
	.loc	10 390 79
	movq	-568(%rbp), %rcx
	movq	-560(%rbp), %rax
	movq	%rcx, -296(%rbp)
	movq	%rax, -288(%rbp)
Ltmp788:
	.loc	10 390 79 is_stmt 0
	movq	%rcx, -504(%rbp)
	movq	%rax, -496(%rbp)
Ltmp789:
	.loc	39 2107 17 is_stmt 1
	movq	-504(%rbp), %rcx
	movq	-496(%rbp), %rax
	movq	%rcx, -280(%rbp)
	movq	%rax, -272(%rbp)
Ltmp790:
	.loc	39 2107 38 is_stmt 0
	movq	%rcx, -264(%rbp)
	movq	%rax, -256(%rbp)
Ltmp791:
	.file	41 "/rustc/2c8cc343237b8f7d5a3c3703e3a87f2eb2c54a74/library/alloc/src/collections" "mod.rs"
	.loc	41 117 9 is_stmt 1
	movq	%rcx, -384(%rbp)
	movq	%rax, -376(%rbp)
Ltmp792:
	.loc	39 2107 23
	movq	-384(%rbp), %rcx
	movq	-376(%rbp), %rax
	movq	%rcx, -600(%rbp)
	movq	%rax, -592(%rbp)
Ltmp793:
LBB58_12:
	.file	42 "/Users/natalie/.cargo/registry/src/github.com-1ecc6299db9ec823/crossbeam-epoch-0.9.13" "build.rs"
	.loc	42 1 1
	jmp	LBB58_3
LBB58_13:
Ltmp794:
	.loc	39 2092 16
	movq	-456(%rbp), %rcx
	movq	-448(%rbp), %rax
	movq	%rcx, -96(%rbp)
	movq	%rax, -88(%rbp)
Ltmp795:
	.loc	39 2092 22 is_stmt 0
	movq	%rcx, -480(%rbp)
	movq	%rax, -472(%rbp)
	movq	$0, -488(%rbp)
Ltmp796:
	.loc	39 2092 45
	jmp	LBB58_15
LBB58_14:
	.loc	39 2093 17 is_stmt 1
	movq	-456(%rbp), %rcx
	movq	-448(%rbp), %rax
	movq	%rcx, -112(%rbp)
	movq	%rax, -104(%rbp)
Ltmp797:
	.loc	39 2093 42 is_stmt 0
	movq	%rcx, -368(%rbp)
	movq	%rax, -360(%rbp)
	.loc	39 2093 23
	movq	-368(%rbp), %rcx
	movq	-360(%rbp), %rax
	movq	%rcx, -480(%rbp)
	movq	%rax, -472(%rbp)
	movq	$1, -488(%rbp)
Ltmp798:
LBB58_15:
	.loc	10 400 19 is_stmt 1
	cmpq	$0, -488(%rbp)
	jne	LBB58_17
	.loc	10 0 19 is_stmt 0
	movq	-648(%rbp), %rcx
	movq	-624(%rbp), %rdi
	.loc	10 400 19
	movq	-480(%rbp), %rsi
	movq	-472(%rbp), %rdx
	movq	%rsi, -32(%rbp)
	movq	%rdx, -24(%rbp)
Ltmp799:
	.loc	10 400 19
	movq	%rsi, -16(%rbp)
	movq	%rdx, -8(%rbp)
Ltmp800:
	.loc	10 401 9 is_stmt 1
	callq	__ZN5alloc7raw_vec19RawVec$LT$T$C$A$GT$15set_ptr_and_cap17hb12f6d3ffe4dcde8E
	.loc	10 402 9
	movabsq	$-9223372036854775807, %rax
	movq	%rax, -592(%rbp)
Ltmp801:
	.loc	10 403 6
	jmp	LBB58_3
LBB58_17:
Ltmp802:
	.loc	10 400 82
	movq	-480(%rbp), %rcx
	movq	-472(%rbp), %rax
	movq	%rcx, -80(%rbp)
	movq	%rax, -72(%rbp)
Ltmp803:
	.loc	10 400 82 is_stmt 0
	movq	%rcx, -416(%rbp)
	movq	%rax, -408(%rbp)
Ltmp804:
	.loc	39 2107 17 is_stmt 1
	movq	-416(%rbp), %rcx
	movq	-408(%rbp), %rax
	movq	%rcx, -64(%rbp)
	movq	%rax, -56(%rbp)
Ltmp805:
	.loc	39 2107 38 is_stmt 0
	movq	%rcx, -48(%rbp)
	movq	%rax, -40(%rbp)
	.loc	39 2107 23
	movq	%rcx, -600(%rbp)
	movq	%rax, -592(%rbp)
Ltmp806:
	.loc	42 1 1 is_stmt 1
	jmp	LBB58_12
Ltmp807:
Lfunc_end58:
	.cfi_endproc

	.p2align	4, 0x90
__ZN5alloc7raw_vec19RawVec$LT$T$C$A$GT$15set_ptr_and_cap17hb12f6d3ffe4dcde8E:
Lfunc_begin59:
	.loc	10 364 0
	.cfi_startproc
	pushq	%rbp
	.cfi_def_cfa_offset 16
	.cfi_offset %rbp, -16
	movq	%rsp, %rbp
	.cfi_def_cfa_register %rbp
	subq	$112, %rsp
	movq	%rdi, -88(%rbp)
	movq	%rsi, -80(%rbp)
	movq	%rdx, -72(%rbp)
	movq	%rcx, -64(%rbp)
Ltmp808:
	.loc	10 368 51 prologue_end
	movq	%rsi, -56(%rbp)
	movq	%rdx, -48(%rbp)
Ltmp809:
	.loc	12 450 41
	movq	%rsi, -40(%rbp)
	movq	%rdx, -32(%rbp)
	movq	%rsi, -24(%rbp)
Ltmp810:
	.loc	12 201 13
	movq	%rsi, -104(%rbp)
Ltmp811:
	.loc	12 326 9
	movq	-104(%rbp), %rax
	movq	%rax, -16(%rbp)
Ltmp812:
	.loc	11 87 59
	movq	%rax, -8(%rbp)
Ltmp813:
	.loc	12 201 13
	movq	%rax, -96(%rbp)
Ltmp814:
	.loc	11 87 18
	movq	-96(%rbp), %rax
	movq	%rax, -112(%rbp)
Ltmp815:
	.loc	10 368 9
	movq	-112(%rbp), %rax
	movq	%rax, 8(%rdi)
	.loc	10 369 9
	movq	%rcx, (%rdi)
	.loc	10 370 6
	addq	$112, %rsp
	popq	%rbp
	retq
Ltmp816:
Lfunc_end59:
	.cfi_endproc

	.p2align	4, 0x90
__ZN5alloc7raw_vec19RawVec$LT$T$C$A$GT$6new_in17h672483f327620488E:
Lfunc_begin60:
	.loc	10 121 0
	.cfi_startproc
	pushq	%rbp
	.cfi_def_cfa_offset 16
	.cfi_offset %rbp, -16
	movq	%rsp, %rbp
	.cfi_def_cfa_register %rbp
	subq	$96, %rsp
Ltmp817:
	.loc	21 459 5 prologue_end
	movq	$8, -48(%rbp)
Ltmp818:
	.loc	4 599 14
	movq	$8, -40(%rbp)
	movq	-40(%rbp), %rax
	movq	%rax, -96(%rbp)
	movq	%rax, -32(%rbp)
Ltmp819:
	.loc	4 0 14 is_stmt 0
	movq	-96(%rbp), %rax
Ltmp820:
	.loc	12 97 36 is_stmt 1
	movq	%rax, -8(%rbp)
Ltmp821:
	.loc	12 201 13
	movq	%rax, -64(%rbp)
Ltmp822:
	.loc	11 191 18
	movq	-64(%rbp), %rax
	.loc	11 191 9 is_stmt 0
	movq	%rax, -72(%rbp)
Ltmp823:
	.loc	10 123 9 is_stmt 1
	movq	-72(%rbp), %rax
	movq	%rax, -80(%rbp)
	movq	$0, -88(%rbp)
	.loc	10 124 6
	movq	-88(%rbp), %rax
	movq	-80(%rbp), %rdx
	addq	$96, %rsp
	popq	%rbp
	retq
Ltmp824:
Lfunc_end60:
	.cfi_endproc

	.p2align	4, 0x90
__ZN5alloc7raw_vec19RawVec$LT$T$C$A$GT$7reserve17h29ac943527072b1bE:
Lfunc_begin61:
	.loc	10 274 0
	.cfi_startproc
	pushq	%rbp
	.cfi_def_cfa_offset 16
	.cfi_offset %rbp, -16
	movq	%rsp, %rbp
	.cfi_def_cfa_register %rbp
	subq	$48, %rsp
	movq	%rdi, -48(%rbp)
	movq	%rsi, -40(%rbp)
	movq	%rdx, -32(%rbp)
	movq	%rdi, -24(%rbp)
	movq	%rsi, -16(%rbp)
	movq	%rdx, -8(%rbp)
Ltmp825:
	.loc	10 288 12 prologue_end
	callq	__ZN5alloc7raw_vec19RawVec$LT$T$C$A$GT$13needs_to_grow17h4e48e148cdcc7afaE
	testb	$1, %al
	jne	LBB61_2
LBB61_1:
	.loc	10 291 6
	addq	$48, %rsp
	popq	%rbp
	retq
LBB61_2:
	.loc	10 0 6 is_stmt 0
	movq	-32(%rbp), %rdx
	movq	-40(%rbp), %rsi
	movq	-48(%rbp), %rdi
	.loc	10 289 13 is_stmt 1
	callq	__ZN5alloc7raw_vec19RawVec$LT$T$C$A$GT$7reserve21do_reserve_and_handle17h2beb28c381b409e1E
	.loc	10 288 9
	jmp	LBB61_1
Ltmp826:
Lfunc_end61:
	.cfi_endproc

	.p2align	4, 0x90
__ZN5alloc7raw_vec19RawVec$LT$T$C$A$GT$7reserve21do_reserve_and_handle17h2beb28c381b409e1E:
Lfunc_begin62:
	.loc	10 280 0
	.cfi_startproc
	pushq	%rbp
	.cfi_def_cfa_offset 16
	.cfi_offset %rbp, -16
	movq	%rsp, %rbp
	.cfi_def_cfa_register %rbp
	subq	$32, %rsp
	movq	%rdi, -24(%rbp)
	movq	%rsi, -16(%rbp)
	movq	%rdx, -8(%rbp)
Ltmp827:
	.loc	10 285 28 prologue_end
	callq	__ZN5alloc7raw_vec19RawVec$LT$T$C$A$GT$14grow_amortized17hd4094f6220907bbdE
	movq	%rax, %rdi
	movq	%rdx, %rsi
	.loc	10 285 13 is_stmt 0
	callq	__ZN5alloc7raw_vec14handle_reserve17h560a2991b3a5aba4E
	.loc	10 286 10 is_stmt 1
	addq	$32, %rsp
	popq	%rbp
	retq
Ltmp828:
Lfunc_end62:
	.cfi_endproc

	.p2align	4, 0x90
__ZN63_$LT$I$u20$as$u20$core..iter..traits..collect..IntoIterator$GT$9into_iter17hd0d1247518bb6ee2E:
Lfunc_begin63:
	.file	43 "/rustc/2c8cc343237b8f7d5a3c3703e3a87f2eb2c54a74/library/core/src/iter/traits" "collect.rs"
	.loc	43 272 0
	.cfi_startproc
	pushq	%rbp
	.cfi_def_cfa_offset 16
	.cfi_offset %rbp, -16
	movq	%rsp, %rbp
	.cfi_def_cfa_register %rbp
	subq	$16, %rsp
	movq	%rdi, %rax
	movq	%rax, -8(%rbp)
Ltmp829:
	.loc	43 273 9 prologue_end
	movl	$72, %edx
	callq	_memcpy
Ltmp830:
	.loc	43 0 9 is_stmt 0
	movq	-8(%rbp), %rax
	.loc	43 274 6 is_stmt 1
	addq	$16, %rsp
	popq	%rbp
	retq
Ltmp831:
Lfunc_end63:
	.cfi_endproc

	.p2align	4, 0x90
__ZN63_$LT$alloc..alloc..Global$u20$as$u20$core..alloc..Allocator$GT$10deallocate17h1b049417236273e6E:
Lfunc_begin64:
	.loc	38 246 0
	.cfi_startproc
	pushq	%rbp
	.cfi_def_cfa_offset 16
	.cfi_offset %rbp, -16
	movq	%rsp, %rbp
	.cfi_def_cfa_register %rbp
	subq	$112, %rsp
	movq	%rsi, -112(%rbp)
	movq	%rdx, -104(%rbp)
	movq	%rcx, -96(%rbp)
	movq	%rdi, -64(%rbp)
	movq	%rsi, -56(%rbp)
Ltmp832:
	.loc	38 247 12 prologue_end
	leaq	-104(%rbp), %rax
	movq	%rax, -48(%rbp)
	cmpq	$0, -104(%rbp)
	jne	LBB64_2
	.loc	38 247 9 is_stmt 0
	jmp	LBB64_3
LBB64_2:
	.loc	38 0 9
	movq	-112(%rbp), %rdi
	.loc	38 250 30 is_stmt 1
	movq	%rdi, -40(%rbp)
Ltmp833:
	.loc	12 326 9
	movq	%rdi, -32(%rbp)
Ltmp834:
	.loc	38 250 44
	movq	-104(%rbp), %rcx
	movq	-96(%rbp), %rax
	movq	%rcx, -88(%rbp)
	movq	%rax, -80(%rbp)
Ltmp835:
	.loc	38 113 34
	leaq	-88(%rbp), %rax
	movq	%rax, -24(%rbp)
Ltmp836:
	.loc	25 129 9
	movq	-88(%rbp), %rsi
Ltmp837:
	.loc	38 113 49
	leaq	-88(%rbp), %rax
	movq	%rax, -16(%rbp)
Ltmp838:
	.loc	25 140 9
	movq	-80(%rbp), %rax
	movq	%rax, -8(%rbp)
Ltmp839:
	.loc	26 97 9
	movq	%rax, -72(%rbp)
	movq	-72(%rbp), %rdx
Ltmp840:
	.loc	38 113 14
	callq	___rust_dealloc
Ltmp841:
LBB64_3:
	.loc	38 252 6
	addq	$112, %rsp
	popq	%rbp
	retq
Ltmp842:
Lfunc_end64:
	.cfi_endproc

	.p2align	4, 0x90
__ZN63_$LT$alloc..alloc..Global$u20$as$u20$core..alloc..Allocator$GT$15allocate_zeroed17h17125f7b6d267366E:
Lfunc_begin65:
	.loc	38 241 0
	.cfi_startproc
	pushq	%rbp
	.cfi_def_cfa_offset 16
	.cfi_offset %rbp, -16
	movq	%rsp, %rbp
	.cfi_def_cfa_register %rbp
	subq	$32, %rsp
	movq	%rdi, -24(%rbp)
	movq	%rsi, -16(%rbp)
	movq	%rdx, -8(%rbp)
	movl	$1, %ecx
Ltmp843:
	.loc	38 242 9 prologue_end
	callq	__ZN5alloc5alloc6Global10alloc_impl17hdf1ea8781ef78950E
	.loc	38 243 6
	addq	$32, %rsp
	popq	%rbp
	retq
Ltmp844:
Lfunc_end65:
	.cfi_endproc

	.p2align	4, 0x90
__ZN63_$LT$alloc..alloc..Global$u20$as$u20$core..alloc..Allocator$GT$8allocate17hd34aa0c52b6983fbE:
Lfunc_begin66:
	.loc	38 236 0
	.cfi_startproc
	pushq	%rbp
	.cfi_def_cfa_offset 16
	.cfi_offset %rbp, -16
	movq	%rsp, %rbp
	.cfi_def_cfa_register %rbp
	subq	$32, %rsp
	movq	%rdi, -24(%rbp)
	movq	%rsi, -16(%rbp)
	movq	%rdx, -8(%rbp)
	xorl	%ecx, %ecx
Ltmp845:
	.loc	38 237 9 prologue_end
	callq	__ZN5alloc5alloc6Global10alloc_impl17hdf1ea8781ef78950E
	.loc	38 238 6
	addq	$32, %rsp
	popq	%rbp
	retq
Ltmp846:
Lfunc_end66:
	.cfi_endproc

	.p2align	4, 0x90
__ZN65_$LT$alloc..string..String$u20$as$u20$core..ops..deref..Deref$GT$5deref17h3d4170b99132b682E:
Lfunc_begin67:
	.loc	37 2459 0
	.cfi_startproc
	pushq	%rbp
	.cfi_def_cfa_offset 16
	.cfi_offset %rbp, -16
	movq	%rsp, %rbp
	.cfi_def_cfa_register %rbp
	subq	$48, %rsp
	movq	%rdi, -40(%rbp)
Ltmp847:
	.loc	37 2460 43 prologue_end
	callq	__ZN72_$LT$alloc..vec..Vec$LT$T$C$A$GT$$u20$as$u20$core..ops..deref..Deref$GT$5deref17hfc60ab601cb9be5dE
	movq	%rax, -32(%rbp)
	movq	%rdx, -24(%rbp)
Ltmp848:
	.file	44 "/rustc/2c8cc343237b8f7d5a3c3703e3a87f2eb2c54a74/library/core/src/str" "converts.rs"
	.loc	44 173 14
	movq	%rax, -16(%rbp)
	movq	%rdx, -8(%rbp)
	movq	-16(%rbp), %rax
	movq	-8(%rbp), %rdx
Ltmp849:
	.loc	37 2461 6
	addq	$48, %rsp
	popq	%rbp
	retq
Ltmp850:
Lfunc_end67:
	.cfi_endproc

	.p2align	4, 0x90
__ZN70_$LT$alloc..vec..Vec$LT$T$C$A$GT$$u20$as$u20$core..ops..drop..Drop$GT$4drop17h47c4887ab2c88e21E:
Lfunc_begin68:
	.loc	7 3054 0
	.cfi_startproc
	pushq	%rbp
	.cfi_def_cfa_offset 16
	.cfi_offset %rbp, -16
	movq	%rsp, %rbp
	.cfi_def_cfa_register %rbp
	subq	$160, %rsp
	movq	%rdi, -120(%rbp)
Ltmp851:
	.loc	7 3059 62 prologue_end
	movq	%rdi, -112(%rbp)
Ltmp852:
	.loc	7 1280 19
	movq	%rdi, -104(%rbp)
Ltmp853:
	.loc	10 224 9
	movq	8(%rdi), %rcx
	movq	%rcx, -96(%rbp)
Ltmp854:
	.loc	11 104 9
	movq	%rcx, -88(%rbp)
Ltmp855:
	.loc	12 326 9
	movq	%rcx, -80(%rbp)
Ltmp856:
	.loc	7 1282 21
	movq	%rcx, -72(%rbp)
Ltmp857:
	.loc	3 52 36
	movq	%rcx, -160(%rbp)
	.loc	3 52 18 is_stmt 0
	movq	-160(%rbp), %rax
	movq	%rax, -64(%rbp)
Ltmp858:
	.loc	3 38 13 is_stmt 1
	movq	%rax, -56(%rbp)
Ltmp859:
	.loc	3 215 33
	movq	%rax, -48(%rbp)
	.loc	3 215 18 is_stmt 0
	movq	%rax, -40(%rbp)
Ltmp860:
	.loc	7 3059 81 is_stmt 1
	movq	16(%rdi), %rax
	movq	%rax, -32(%rbp)
Ltmp861:
	.loc	4 766 24
	movq	%rcx, -24(%rbp)
Ltmp862:
	.loc	3 60 9
	movq	%rcx, -16(%rbp)
Ltmp863:
	.loc	4 766 37
	movq	%rax, -8(%rbp)
Ltmp864:
	.loc	5 135 36
	movq	%rcx, -136(%rbp)
	movq	%rax, -128(%rbp)
	.loc	5 135 14 is_stmt 0
	movq	-136(%rbp), %rcx
	movq	-128(%rbp), %rax
	movq	%rcx, -152(%rbp)
	movq	%rax, -144(%rbp)
Ltmp865:
	.loc	7 3062 6 is_stmt 1
	addq	$160, %rsp
	popq	%rbp
	retq
Ltmp866:
Lfunc_end68:
	.cfi_endproc

	.p2align	4, 0x90
__ZN70_$LT$core..option..Option$LT$T$GT$$u20$as$u20$core..cmp..PartialEq$GT$2eq17h1d879d0626f46bf4E:
Lfunc_begin69:
	.loc	30 2088 0
	.cfi_startproc
	pushq	%rbp
	.cfi_def_cfa_offset 16
	.cfi_offset %rbp, -16
	movq	%rsp, %rbp
	.cfi_def_cfa_register %rbp
	subq	$16, %rsp
	movq	%rdi, -16(%rbp)
	movq	%rsi, -8(%rbp)
Ltmp867:
	.loc	30 2089 9 prologue_end
	callq	__ZN55_$LT$T$u20$as$u20$core..option..SpecOptionPartialEq$GT$2eq17h03f72908393c6808E
	.loc	30 2090 6
	andb	$1, %al
	movzbl	%al, %eax
	addq	$16, %rsp
	popq	%rbp
	retq
Ltmp868:
Lfunc_end69:
	.cfi_endproc

	.p2align	4, 0x90
__ZN72_$LT$alloc..vec..Vec$LT$T$C$A$GT$$u20$as$u20$core..ops..deref..Deref$GT$5deref17h147cceba569499a1E:
Lfunc_begin70:
	.loc	7 2636 0
	.cfi_startproc
	pushq	%rbp
	.cfi_def_cfa_offset 16
	.cfi_offset %rbp, -16
	movq	%rsp, %rbp
	.cfi_def_cfa_register %rbp
	subq	$184, %rsp
	movq	%rdi, -144(%rbp)
Ltmp869:
	.loc	7 2637 40 prologue_end
	movq	%rdi, -136(%rbp)
Ltmp870:
	.loc	7 1243 19
	movq	%rdi, -128(%rbp)
Ltmp871:
	.loc	10 224 9
	movq	8(%rdi), %rcx
	movq	%rcx, -120(%rbp)
Ltmp872:
	.loc	11 104 9
	movq	%rcx, -112(%rbp)
Ltmp873:
	.loc	12 326 9
	movq	%rcx, -104(%rbp)
Ltmp874:
	.loc	7 1245 21
	movq	%rcx, -96(%rbp)
Ltmp875:
	.loc	3 52 36
	movq	%rcx, -184(%rbp)
	.loc	3 52 18 is_stmt 0
	movq	-184(%rbp), %rax
	movq	%rax, -88(%rbp)
Ltmp876:
	.loc	3 38 13 is_stmt 1
	movq	%rax, -80(%rbp)
Ltmp877:
	.loc	3 215 33
	movq	%rax, -72(%rbp)
	.loc	3 215 18 is_stmt 0
	movq	%rax, -64(%rbp)
Ltmp878:
	.loc	7 1247 9 is_stmt 1
	movq	%rcx, -56(%rbp)
Ltmp879:
	.loc	7 2637 55
	movq	16(%rdi), %rax
	movq	%rax, -48(%rbp)
Ltmp880:
	.loc	29 100 37
	movq	%rcx, -40(%rbp)
	.loc	29 100 43 is_stmt 0
	movq	%rax, -32(%rbp)
Ltmp881:
	.loc	4 734 20 is_stmt 1
	movq	%rcx, -24(%rbp)
Ltmp882:
	.loc	20 61 9
	movq	%rcx, -16(%rbp)
Ltmp883:
	.loc	4 734 33
	movq	%rax, -8(%rbp)
Ltmp884:
	.loc	5 118 36
	movq	%rcx, -160(%rbp)
	movq	%rax, -152(%rbp)
	.loc	5 118 14 is_stmt 0
	movq	-160(%rbp), %rcx
	movq	-152(%rbp), %rax
	movq	%rcx, -176(%rbp)
	movq	%rax, -168(%rbp)
	movq	-176(%rbp), %rax
	movq	-168(%rbp), %rdx
Ltmp885:
	.loc	7 2638 6 is_stmt 1
	addq	$184, %rsp
	popq	%rbp
	retq
Ltmp886:
Lfunc_end70:
	.cfi_endproc

	.p2align	4, 0x90
__ZN75_$LT$alloc..vec..Vec$LT$T$C$A$GT$$u20$as$u20$core..ops..deref..DerefMut$GT$9deref_mut17hc0e03ab8a8090af5E:
Lfunc_begin71:
	.loc	7 2644 0
	.cfi_startproc
	pushq	%rbp
	.cfi_def_cfa_offset 16
	.cfi_offset %rbp, -16
	movq	%rsp, %rbp
	.cfi_def_cfa_register %rbp
	subq	$176, %rsp
	movq	%rdi, -136(%rbp)
Ltmp887:
	.loc	7 2645 44 prologue_end
	movq	%rdi, -128(%rbp)
Ltmp888:
	.loc	7 1280 19
	movq	%rdi, -120(%rbp)
Ltmp889:
	.loc	10 224 9
	movq	8(%rdi), %rcx
	movq	%rcx, -112(%rbp)
Ltmp890:
	.loc	11 104 9
	movq	%rcx, -104(%rbp)
Ltmp891:
	.loc	12 326 9
	movq	%rcx, -96(%rbp)
Ltmp892:
	.loc	7 1282 21
	movq	%rcx, -88(%rbp)
Ltmp893:
	.loc	3 52 36
	movq	%rcx, -176(%rbp)
	.loc	3 52 18 is_stmt 0
	movq	-176(%rbp), %rax
	movq	%rax, -80(%rbp)
Ltmp894:
	.loc	3 38 13 is_stmt 1
	movq	%rax, -72(%rbp)
Ltmp895:
	.loc	3 215 33
	movq	%rax, -64(%rbp)
	.loc	3 215 18 is_stmt 0
	movq	%rax, -56(%rbp)
Ltmp896:
	.loc	7 2645 63 is_stmt 1
	movq	16(%rdi), %rax
	movq	%rax, -48(%rbp)
Ltmp897:
	.loc	29 145 45
	movq	%rcx, -40(%rbp)
	.loc	29 145 51 is_stmt 0
	movq	%rax, -32(%rbp)
Ltmp898:
	.loc	4 766 24 is_stmt 1
	movq	%rcx, -24(%rbp)
Ltmp899:
	.loc	3 60 9
	movq	%rcx, -16(%rbp)
Ltmp900:
	.loc	4 766 37
	movq	%rax, -8(%rbp)
Ltmp901:
	.loc	5 135 36
	movq	%rcx, -152(%rbp)
	movq	%rax, -144(%rbp)
	.loc	5 135 14 is_stmt 0
	movq	-152(%rbp), %rcx
	movq	-144(%rbp), %rax
	movq	%rcx, -168(%rbp)
	movq	%rax, -160(%rbp)
	movq	-168(%rbp), %rax
	movq	-160(%rbp), %rdx
Ltmp902:
	.loc	7 2646 6 is_stmt 1
	addq	$176, %rsp
	popq	%rbp
	retq
Ltmp903:
Lfunc_end71:
	.cfi_endproc

	.p2align	4, 0x90
__ZN75_$LT$core..option..Option$LT$T$GT$$u20$as$u20$core..ops..try_trait..Try$GT$11from_output17h23cc18f4d7b0017bE:
Lfunc_begin72:
	.loc	30 2401 0
	.cfi_startproc
	pushq	%rbp
	.cfi_def_cfa_offset 16
	.cfi_offset %rbp, -16
	movq	%rsp, %rbp
	.cfi_def_cfa_register %rbp
	subq	$24, %rsp
	movq	%rdi, -8(%rbp)
Ltmp904:
	.loc	30 2402 9 prologue_end
	movq	%rdi, -16(%rbp)
	movq	$1, -24(%rbp)
	.loc	30 2403 6
	movq	-24(%rbp), %rax
	movq	-16(%rbp), %rdx
	addq	$24, %rsp
	popq	%rbp
	retq
Ltmp905:
Lfunc_end72:
	.cfi_endproc

	.p2align	4, 0x90
__ZN75_$LT$core..option..Option$LT$T$GT$$u20$as$u20$core..ops..try_trait..Try$GT$6branch17ha2761298492a647dE:
Lfunc_begin73:
	.loc	30 2406 0
	.cfi_startproc
	pushq	%rbp
	.cfi_def_cfa_offset 16
	.cfi_offset %rbp, -16
	movq	%rsp, %rbp
	.cfi_def_cfa_register %rbp
	subq	$40, %rsp
	movq	%rdi, -40(%rbp)
	movq	%rsi, -32(%rbp)
Ltmp906:
	.loc	30 2407 9 prologue_end
	cmpq	$0, -40(%rbp)
	jne	LBB73_2
	.loc	30 2409 21
	movq	$1, -24(%rbp)
	.loc	30 2409 44 is_stmt 0
	jmp	LBB73_3
LBB73_2:
	.loc	30 2408 18 is_stmt 1
	movq	-32(%rbp), %rax
	movq	%rax, -8(%rbp)
Ltmp907:
	.loc	30 2408 24 is_stmt 0
	movq	%rax, -16(%rbp)
	movq	$0, -24(%rbp)
Ltmp908:
LBB73_3:
	.loc	30 2411 6 is_stmt 1
	movq	-24(%rbp), %rax
	movq	-16(%rbp), %rdx
	addq	$40, %rsp
	popq	%rbp
	retq
Ltmp909:
Lfunc_end73:
	.cfi_endproc

	.p2align	4, 0x90
__ZN75_$LT$usize$u20$as$u20$core..slice..index..SliceIndex$LT$$u5b$T$u5d$$GT$$GT$3get17hb9343036c23dc9a4E:
Lfunc_begin74:
	.loc	2 217 0
	.cfi_startproc
	pushq	%rbp
	.cfi_def_cfa_offset 16
	.cfi_offset %rbp, -16
	movq	%rsp, %rbp
	.cfi_def_cfa_register %rbp
	subq	$136, %rsp
	movq	%rdi, -136(%rbp)
	movq	%rsi, -128(%rbp)
	movq	%rdx, -120(%rbp)
	movq	%rdi, -104(%rbp)
	movq	%rsi, -96(%rbp)
	movq	%rdx, -88(%rbp)
Ltmp910:
	.loc	2 219 12 prologue_end
	cmpq	%rdx, %rdi
	jb	LBB74_2
	.loc	2 219 87 is_stmt 0
	movq	$0, -112(%rbp)
	.loc	2 219 9
	jmp	LBB74_3
LBB74_2:
	.loc	2 0 9
	movq	-128(%rbp), %rax
	movq	-136(%rbp), %rcx
	movq	-120(%rbp), %rdx
	.loc	2 219 49
	movq	%rcx, -80(%rbp)
	.loc	2 219 68
	movq	%rax, -72(%rbp)
	movq	%rdx, -64(%rbp)
Ltmp911:
	.loc	2 240 13 is_stmt 1
	movq	%rax, -56(%rbp)
	movq	%rdx, -48(%rbp)
Ltmp912:
	.loc	20 1650 9
	movq	%rax, -40(%rbp)
Ltmp913:
	.loc	2 240 32
	movq	%rcx, -32(%rbp)
Ltmp914:
	.loc	20 932 18
	movq	%rax, -24(%rbp)
	.loc	20 932 30 is_stmt 0
	movq	%rcx, -16(%rbp)
Ltmp915:
	.loc	20 473 18 is_stmt 1
	shlq	$4, %rcx
	addq	%rcx, %rax
	movq	%rax, -8(%rbp)
	movq	-8(%rbp), %rax
Ltmp916:
	.loc	2 219 42
	movq	%rax, -112(%rbp)
LBB74_3:
	.loc	2 220 6
	movq	-112(%rbp), %rax
	addq	$136, %rsp
	popq	%rbp
	retq
Ltmp917:
Lfunc_end74:
	.cfi_endproc

	.p2align	4, 0x90
__ZN75_$LT$usize$u20$as$u20$core..slice..index..SliceIndex$LT$$u5b$T$u5d$$GT$$GT$9index_mut17he529e09c3e580b0bE:
Lfunc_begin75:
	.loc	2 264 0
	.cfi_startproc
	pushq	%rbp
	.cfi_def_cfa_offset 16
	.cfi_offset %rbp, -16
	movq	%rsp, %rbp
	.cfi_def_cfa_register %rbp
	subq	$64, %rsp
	movq	%rdi, -56(%rbp)
	movq	%rsi, -48(%rbp)
	movq	%rdx, -40(%rbp)
	movq	%rcx, -32(%rbp)
	movq	%rdi, -24(%rbp)
	movq	%rsi, -16(%rbp)
	movq	%rdx, -8(%rbp)
Ltmp918:
	.loc	2 266 14 prologue_end
	cmpq	%rdx, %rdi
	setb	%al
	testb	$1, %al
	jne	LBB75_1
	jmp	LBB75_2
LBB75_1:
	.loc	2 0 14 is_stmt 0
	movq	-48(%rbp), %rax
	movq	-56(%rbp), %rcx
	.loc	2 266 9
	shlq	$4, %rcx
	addq	%rcx, %rax
	.loc	2 267 6 is_stmt 1
	addq	$64, %rsp
	popq	%rbp
	retq
LBB75_2:
	.loc	2 0 6 is_stmt 0
	movq	-32(%rbp), %rdx
	movq	-40(%rbp), %rsi
	movq	-56(%rbp), %rdi
	.loc	2 266 14 is_stmt 1
	callq	__ZN4core9panicking18panic_bounds_check17hacb8a94866cda541E
Ltmp919:
Lfunc_end75:
	.cfi_endproc

	.p2align	4, 0x90
__ZN77_$LT$alloc..raw_vec..RawVec$LT$T$C$A$GT$$u20$as$u20$core..ops..drop..Drop$GT$4drop17ha7581a90a663927aE:
Lfunc_begin76:
	.loc	10 477 0
	.cfi_startproc
	pushq	%rbp
	.cfi_def_cfa_offset 16
	.cfi_offset %rbp, -16
	movq	%rsp, %rbp
	.cfi_def_cfa_register %rbp
	subq	$64, %rsp
	movq	%rdi, %rsi
	movq	%rsi, -64(%rbp)
	movq	%rsi, -32(%rbp)
Ltmp920:
	.loc	10 478 38 prologue_end
	leaq	-56(%rbp), %rdi
	callq	__ZN5alloc7raw_vec19RawVec$LT$T$C$A$GT$14current_memory17ha964cea59f11e4b6E
	.loc	10 478 16 is_stmt 0
	movl	$1, %eax
	xorl	%ecx, %ecx
	cmpq	$0, -40(%rbp)
	cmoveq	%rcx, %rax
	cmpq	$1, %rax
	jne	LBB76_2
	.loc	10 0 16
	movq	-64(%rbp), %rdi
	.loc	10 478 22
	movq	-56(%rbp), %rsi
	movq	%rsi, -24(%rbp)
	.loc	10 478 27
	movq	-48(%rbp), %rdx
	movq	-40(%rbp), %rcx
	movq	%rdx, -16(%rbp)
	movq	%rcx, -8(%rbp)
	.loc	10 479 22 is_stmt 1
	callq	__ZN63_$LT$alloc..alloc..Global$u20$as$u20$core..alloc..Allocator$GT$10deallocate17h1b049417236273e6E
Ltmp921:
LBB76_2:
	.loc	10 481 6
	addq	$64, %rsp
	popq	%rbp
	retq
Ltmp922:
Lfunc_end76:
	.cfi_endproc

	.p2align	4, 0x90
__ZN84_$LT$alloc..vec..Vec$LT$T$C$A$GT$$u20$as$u20$core..ops..index..IndexMut$LT$I$GT$$GT$9index_mut17hea7cf68efcb23d98E:
Lfunc_begin77:
	.loc	7 2743 0
	.cfi_startproc
	.cfi_personality 155, _rust_eh_personality
	.cfi_lsda 16, Lexception9
	pushq	%rbp
	.cfi_def_cfa_offset 16
	.cfi_offset %rbp, -16
	movq	%rsp, %rbp
	.cfi_def_cfa_register %rbp
	subq	$112, %rsp
	movq	%rsi, -96(%rbp)
	movq	%rdx, -88(%rbp)
	movq	%rdi, -56(%rbp)
	movq	%rsi, -48(%rbp)
Ltmp928:
	.loc	7 2744 9 prologue_end
	movb	$1, -57(%rbp)
Ltmp923:
	.loc	7 2744 34 is_stmt 0
	callq	__ZN75_$LT$alloc..vec..Vec$LT$T$C$A$GT$$u20$as$u20$core..ops..deref..DerefMut$GT$9deref_mut17hc0e03ab8a8090af5E
Ltmp924:
	movq	%rdx, -80(%rbp)
	movq	%rax, -72(%rbp)
	jmp	LBB77_3
LBB77_1:
	.loc	7 2745 5 is_stmt 1
	testb	$1, -57(%rbp)
	jne	LBB77_6
	jmp	LBB77_5
LBB77_2:
Ltmp927:
	.loc	7 0 5 is_stmt 0
	movq	%rax, %rcx
	movl	%edx, %eax
	movq	%rcx, -40(%rbp)
	movl	%eax, -32(%rbp)
	jmp	LBB77_1
LBB77_3:
	movq	-88(%rbp), %rcx
	movq	-80(%rbp), %rdx
	movq	-72(%rbp), %rsi
	movq	-96(%rbp), %rdi
	.loc	7 2744 29 is_stmt 1
	movq	%rsi, -24(%rbp)
	movq	%rdx, -16(%rbp)
	.loc	7 2744 42 is_stmt 0
	movb	$0, -57(%rbp)
	movq	%rdi, -8(%rbp)
Ltmp925:
Ltmp929:
	.loc	2 30 9 is_stmt 1
	callq	__ZN75_$LT$usize$u20$as$u20$core..slice..index..SliceIndex$LT$$u5b$T$u5d$$GT$$GT$9index_mut17he529e09c3e580b0bE
Ltmp926:
	movq	%rax, -104(%rbp)
	jmp	LBB77_4
Ltmp930:
LBB77_4:
	.loc	2 0 9 is_stmt 0
	movq	-104(%rbp), %rax
	.loc	7 2745 6 is_stmt 1
	addq	$112, %rsp
	popq	%rbp
	retq
LBB77_5:
	.loc	7 2743 5
	movq	-40(%rbp), %rdi
	callq	__Unwind_Resume
LBB77_6:
	.loc	7 2745 5
	jmp	LBB77_5
Ltmp931:
Lfunc_end77:
	.cfi_endproc
	.section	__TEXT,__gcc_except_tab
	.p2align	2
GCC_except_table77:
Lexception9:
	.byte	255
	.byte	255
	.byte	1
	.uleb128 Lcst_end9-Lcst_begin9
Lcst_begin9:
	.uleb128 Ltmp923-Lfunc_begin77
	.uleb128 Ltmp926-Ltmp923
	.uleb128 Ltmp927-Lfunc_begin77
	.byte	0
	.uleb128 Ltmp926-Lfunc_begin77
	.uleb128 Lfunc_end77-Ltmp926
	.byte	0
	.byte	0
Lcst_end9:
	.p2align	2

	.section	__TEXT,__text,regular,pure_instructions
	.p2align	4, 0x90
__ZN84_$LT$core..option..Option$LT$T$GT$$u20$as$u20$core..ops..try_trait..FromResidual$GT$13from_residual17h96c47aecdcd6b046E:
Lfunc_begin78:
	.loc	30 2418 0
	.cfi_startproc
	pushq	%rbp
	.cfi_def_cfa_offset 16
	.cfi_offset %rbp, -16
	movq	%rsp, %rbp
	.cfi_def_cfa_register %rbp
	subq	$24, %rsp
Ltmp932:
	.loc	30 2420 21 prologue_end
	movq	$0, -24(%rbp)
	.loc	30 2422 6
	movq	-24(%rbp), %rax
	movq	-16(%rbp), %rdx
	addq	$24, %rsp
	popq	%rbp
	retq
Ltmp933:
Lfunc_end78:
	.cfi_endproc

	.p2align	4, 0x90
__ZN91_$LT$core..slice..iter..Iter$LT$T$GT$$u20$as$u20$core..iter..traits..iterator..Iterator$GT$3any17h173692b5517bff6bE:
Lfunc_begin79:
	.loc	34 226 0
	.cfi_startproc
	.cfi_personality 155, _rust_eh_personality
	.cfi_lsda 16, Lexception10
	pushq	%rbp
	.cfi_def_cfa_offset 16
	.cfi_offset %rbp, -16
	movq	%rsp, %rbp
	.cfi_def_cfa_register %rbp
	subq	$96, %rsp
	movq	%rdi, -72(%rbp)
	movq	%rsi, -64(%rbp)
	movq	%rdi, -32(%rbp)
LBB79_1:
Ltmp934:
	movq	-72(%rbp), %rdi
Ltmp939:
	.loc	34 231 37 prologue_end
	callq	__ZN91_$LT$core..slice..iter..Iter$LT$T$GT$$u20$as$u20$core..iter..traits..iterator..Iterator$GT$4next17h33ad792353a4b4efE
Ltmp935:
	movq	%rax, -80(%rbp)
	jmp	LBB79_4
Ltmp940:
LBB79_2:
	.loc	34 226 13
	movq	-24(%rbp), %rdi
	callq	__Unwind_Resume
LBB79_3:
Ltmp938:
	.loc	34 0 13 is_stmt 0
	movq	%rax, %rcx
	movl	%edx, %eax
	movq	%rcx, -24(%rbp)
	movl	%eax, -16(%rbp)
	jmp	LBB79_2
LBB79_4:
	movq	-80(%rbp), %rax
Ltmp941:
	.loc	34 231 37 is_stmt 1
	movq	%rax, -48(%rbp)
	.loc	34 231 27 is_stmt 0
	movq	-48(%rbp), %rdx
	movl	$1, %eax
	xorl	%ecx, %ecx
	cmpq	$0, %rdx
	cmoveq	%rcx, %rax
	cmpq	$1, %rax
	jne	LBB79_6
	.loc	34 231 32
	movq	-48(%rbp), %rax
	movq	%rax, -8(%rbp)
	.loc	34 232 24 is_stmt 1
	movq	%rax, -40(%rbp)
	movq	-40(%rbp), %rsi
Ltmp936:
	leaq	-64(%rbp), %rdi
	callq	__ZN53_$LT$T$u20$as$u20$core..slice..cmp..SliceContains$GT$14slice_contains28_$u7b$$u7b$closure$u7d$$u7d$17h1c022e91f7dd891fE
Ltmp937:
	movb	%al, -81(%rbp)
	jmp	LBB79_8
Ltmp942:
LBB79_6:
	.loc	34 236 17
	movb	$0, -49(%rbp)
LBB79_7:
	.loc	34 237 14
	movb	-49(%rbp), %al
	andb	$1, %al
	movzbl	%al, %eax
	addq	$96, %rsp
	popq	%rbp
	retq
LBB79_8:
	.loc	34 0 14 is_stmt 0
	movb	-81(%rbp), %al
Ltmp943:
	.loc	34 232 24 is_stmt 1
	testb	$1, %al
	jne	LBB79_10
	jmp	LBB79_9
Ltmp944:
LBB79_9:
	.loc	34 231 17
	jmp	LBB79_1
LBB79_10:
Ltmp945:
	.loc	34 233 32
	movb	$1, -49(%rbp)
Ltmp946:
	.loc	34 237 13
	jmp	LBB79_7
Ltmp947:
Lfunc_end79:
	.cfi_endproc
	.section	__TEXT,__gcc_except_tab
	.p2align	2
GCC_except_table79:
Lexception10:
	.byte	255
	.byte	255
	.byte	1
	.uleb128 Lcst_end10-Lcst_begin10
Lcst_begin10:
	.uleb128 Ltmp934-Lfunc_begin79
	.uleb128 Ltmp935-Ltmp934
	.uleb128 Ltmp938-Lfunc_begin79
	.byte	0
	.uleb128 Ltmp935-Lfunc_begin79
	.uleb128 Ltmp936-Ltmp935
	.byte	0
	.byte	0
	.uleb128 Ltmp936-Lfunc_begin79
	.uleb128 Ltmp937-Ltmp936
	.uleb128 Ltmp938-Lfunc_begin79
	.byte	0
Lcst_end10:
	.p2align	2

	.section	__TEXT,__text,regular,pure_instructions
	.p2align	4, 0x90
__ZN95_$LT$alloc..vec..Vec$LT$T$GT$$u20$as$u20$core..iter..traits..collect..FromIterator$LT$T$GT$$GT$9from_iter17hf0d7e63061c4f51eE:
Lfunc_begin80:
	.loc	7 2752 0
	.cfi_startproc
	pushq	%rbp
	.cfi_def_cfa_offset 16
	.cfi_offset %rbp, -16
	movq	%rsp, %rbp
	.cfi_def_cfa_register %rbp
	subq	$160, %rsp
	movq	%rdi, -160(%rbp)
	movq	%rdi, -152(%rbp)
Ltmp948:
	.loc	7 2753 59 prologue_end
	leaq	-72(%rbp), %rdi
	movl	$72, %edx
	callq	_memcpy
Ltmp949:
	leaq	-144(%rbp), %rdi
	leaq	-72(%rbp), %rsi
	callq	__ZN63_$LT$I$u20$as$u20$core..iter..traits..collect..IntoIterator$GT$9into_iter17hd0d1247518bb6ee2E
	movq	-160(%rbp), %rdi
	.loc	7 2753 9 is_stmt 0
	leaq	-144(%rbp), %rsi
	callq	__ZN98_$LT$alloc..vec..Vec$LT$T$GT$$u20$as$u20$alloc..vec..spec_from_iter..SpecFromIter$LT$T$C$I$GT$$GT$9from_iter17h56f249e7d426d311E
	movq	-152(%rbp), %rax
	.loc	7 2754 6 is_stmt 1
	addq	$160, %rsp
	popq	%rbp
	retq
Ltmp950:
Lfunc_end80:
	.cfi_endproc

	.p2align	4, 0x90
__ZN97_$LT$alloc..vec..Vec$LT$T$C$A$GT$$u20$as$u20$alloc..vec..spec_extend..SpecExtend$LT$T$C$I$GT$$GT$11spec_extend17he1354ca7383640f1E:
Lfunc_begin81:
	.file	45 "/rustc/2c8cc343237b8f7d5a3c3703e3a87f2eb2c54a74/library/alloc/src/vec" "spec_extend.rs"
	.loc	45 16 0
	.cfi_startproc
	pushq	%rbp
	.cfi_def_cfa_offset 16
	.cfi_offset %rbp, -16
	movq	%rsp, %rbp
	.cfi_def_cfa_register %rbp
	subq	$96, %rsp
	movq	%rdi, -88(%rbp)
	movq	%rdi, -8(%rbp)
Ltmp951:
	.loc	45 17 31 prologue_end
	leaq	-80(%rbp), %rdi
	movl	$72, %edx
	callq	_memcpy
Ltmp952:
	.loc	45 0 31 is_stmt 0
	movq	-88(%rbp), %rdi
	.loc	45 17 9
	leaq	-80(%rbp), %rsi
	callq	__ZN5alloc3vec16Vec$LT$T$C$A$GT$16extend_desugared17h2a902907565f4260E
	.loc	45 18 6 is_stmt 1
	addq	$96, %rsp
	popq	%rbp
	retq
Ltmp953:
Lfunc_end81:
	.cfi_endproc

	.p2align	4, 0x90
__ZN98_$LT$alloc..vec..Vec$LT$T$GT$$u20$as$u20$alloc..vec..spec_from_iter..SpecFromIter$LT$T$C$I$GT$$GT$9from_iter17h56f249e7d426d311E:
Lfunc_begin82:
	.file	46 "/rustc/2c8cc343237b8f7d5a3c3703e3a87f2eb2c54a74/library/alloc/src/vec" "spec_from_iter.rs"
	.loc	46 32 0
	.cfi_startproc
	pushq	%rbp
	.cfi_def_cfa_offset 16
	.cfi_offset %rbp, -16
	movq	%rsp, %rbp
	.cfi_def_cfa_register %rbp
	subq	$96, %rsp
	movq	%rdi, -88(%rbp)
	movq	%rdi, -80(%rbp)
Ltmp954:
	.loc	46 33 39 prologue_end
	leaq	-72(%rbp), %rdi
	movl	$72, %edx
	callq	_memcpy
Ltmp955:
	.loc	46 0 39 is_stmt 0
	movq	-88(%rbp), %rdi
	.loc	46 33 9
	leaq	-72(%rbp), %rsi
	callq	__ZN111_$LT$alloc..vec..Vec$LT$T$GT$$u20$as$u20$alloc..vec..spec_from_iter_nested..SpecFromIterNested$LT$T$C$I$GT$$GT$9from_iter17hc0f6426829028903E
	movq	-80(%rbp), %rax
	.loc	46 34 6 is_stmt 1
	addq	$96, %rsp
	popq	%rbp
	retq
Ltmp956:
Lfunc_end82:
	.cfi_endproc

	.p2align	4, 0x90
__ZN18build_script_build4main17h60f67fd56afa9a42E:
Lfunc_begin83:
	.loc	42 20 0
	.cfi_startproc
	.cfi_personality 155, _rust_eh_personality
	.cfi_lsda 16, Lexception11
	pushq	%rbp
	.cfi_def_cfa_offset 16
	.cfi_offset %rbp, -16
	movq	%rsp, %rbp
	.cfi_def_cfa_register %rbp
	subq	$1024, %rsp
Ltmp1010:
	.loc	42 21 24 prologue_end
	leaq	-848(%rbp), %rdi
	leaq	l___unnamed_15(%rip), %rsi
	movl	$6, %edx
	callq	__ZN3std3env3var17h1820b2dd0dabfed8E
	.loc	42 21 18 is_stmt 0
	cmpq	$0, -848(%rbp)
	jne	LBB83_2
	.loc	42 22 12 is_stmt 1
	movq	-824(%rbp), %rax
	movq	%rax, -800(%rbp)
	movq	-840(%rbp), %rax
	movq	-832(%rbp), %rcx
	movq	%rcx, -808(%rbp)
	movq	%rax, -816(%rbp)
Ltmp1011:
	.loc	42 22 51 is_stmt 0
	movq	-800(%rbp), %rax
	movq	%rax, -776(%rbp)
	movq	-816(%rbp), %rax
	movq	-808(%rbp), %rcx
	movq	%rcx, -784(%rbp)
	movq	%rax, -792(%rbp)
	leaq	-872(%rbp), %rdi
	leaq	-792(%rbp), %rsi
	.loc	42 22 23
	callq	__ZN18build_script_build27convert_custom_linux_target17h3d49f0bbb4d78f6eE
Ltmp968:
	leaq	-536(%rbp), %rdi
Ltmp1012:
	.loc	42 33 21 is_stmt 1
	callq	__ZN7autocfg7AutoCfg3new17h380a3806518ab4deE
Ltmp969:
	jmp	LBB83_14
Ltmp1013:
LBB83_2:
	.loc	42 23 13
	movq	-824(%rbp), %rax
	movq	%rax, -752(%rbp)
	movq	-840(%rbp), %rax
	movq	-832(%rbp), %rcx
	movq	%rcx, -760(%rbp)
	movq	%rax, -768(%rbp)
Ltmp957:
Ltmp1014:
	.loc	42 24 13
	leaq	l___unnamed_16(%rip), %rdi
	callq	__ZN4core3fmt10ArgumentV111new_display17h7c4f65ce98ef81e8E
Ltmp958:
	movq	%rdx, -888(%rbp)
	movq	%rax, -880(%rbp)
	jmp	LBB83_5
Ltmp1015:
LBB83_3:
Ltmp966:
	.loc	42 0 13 is_stmt 0
	leaq	-768(%rbp), %rdi
	.loc	42 30 9 is_stmt 1
	callq	__ZN4core3ptr39drop_in_place$LT$std..env..VarError$GT$17h893f1f65fa36a0f7E
Ltmp967:
	jmp	LBB83_10
LBB83_4:
Ltmp965:
	.loc	42 0 9 is_stmt 0
	movq	%rax, %rcx
	movl	%edx, %eax
	movq	%rcx, -16(%rbp)
	movl	%eax, -8(%rbp)
	jmp	LBB83_3
LBB83_5:
	movq	-888(%rbp), %rax
	movq	-880(%rbp), %rcx
	movq	%rcx, -920(%rbp)
	movq	%rax, -912(%rbp)
Ltmp959:
	leaq	-768(%rbp), %rdi
Ltmp1016:
	.loc	42 24 13 is_stmt 1
	callq	__ZN4core3fmt10ArgumentV111new_display17he23049d8b2a57842E
Ltmp960:
	movq	%rdx, -904(%rbp)
	movq	%rax, -896(%rbp)
	jmp	LBB83_6
LBB83_6:
	.loc	42 0 13 is_stmt 0
	movq	-904(%rbp), %rax
	movq	-896(%rbp), %rcx
	movq	-912(%rbp), %rdx
	movq	-920(%rbp), %rsi
	.loc	42 24 13
	movq	%rsi, -696(%rbp)
	movq	%rdx, -688(%rbp)
	movq	%rcx, -680(%rbp)
	movq	%rax, -672(%rbp)
Ltmp961:
	leaq	l___unnamed_17(%rip), %rsi
	leaq	-744(%rbp), %rdi
	movl	$3, %edx
	leaq	-696(%rbp), %rcx
	movl	$2, %r8d
	callq	__ZN4core3fmt9Arguments6new_v117h574a8624480134a0E
Ltmp962:
	jmp	LBB83_7
LBB83_7:
Ltmp963:
	.loc	42 0 13
	leaq	-744(%rbp), %rdi
	.loc	42 24 13
	callq	__ZN3std2io5stdio6_print17ha0d536e53b83a5ccE
Ltmp964:
	jmp	LBB83_8
Ltmp1017:
LBB83_8:
	.loc	42 30 9 is_stmt 1
	leaq	-768(%rbp), %rdi
	callq	__ZN4core3ptr39drop_in_place$LT$std..env..VarError$GT$17h893f1f65fa36a0f7E
	jmp	LBB83_11
LBB83_9:
Ltmp1009:
	.loc	42 20 1
	callq	__ZN4core9panicking19panic_cannot_unwind17h1fbca7e1d7f56ae1E
LBB83_10:
	movq	-16(%rbp), %rdi
	callq	__Unwind_Resume
LBB83_11:
	.loc	42 57 2
	addq	$1024, %rsp
	popq	%rbp
	retq
LBB83_12:
Ltmp1007:
	.loc	42 0 2 is_stmt 0
	leaq	-872(%rbp), %rdi
	.loc	42 57 1
	callq	__ZN4core3ptr42drop_in_place$LT$alloc..string..String$GT$17h3cc4b04911fd7e35E
Ltmp1008:
	jmp	LBB83_10
LBB83_13:
Ltmp1006:
	.loc	42 0 1
	movq	%rax, %rcx
	movl	%edx, %eax
	movq	%rcx, -16(%rbp)
	movl	%eax, -8(%rbp)
	jmp	LBB83_12
LBB83_14:
Ltmp1018:
	.loc	42 33 21 is_stmt 1
	xorl	%eax, %eax
	movl	$1, %ecx
	cmpb	$2, -416(%rbp)
	cmoveq	%rcx, %rax
	.loc	42 33 15 is_stmt 0
	cmpq	$0, %rax
	jne	LBB83_16
	.loc	42 0 15
	movl	$16, %ecx
	movq	%rcx, -960(%rbp)
	leaq	-408(%rbp), %rdi
	movq	%rdi, -968(%rbp)
	leaq	-536(%rbp), %rsi
	.loc	42 34 12 is_stmt 1
	rep;movsq (%rsi), %es:(%rdi)
	movq	-968(%rbp), %rsi
	movq	-960(%rbp), %rcx
	leaq	-664(%rbp), %rdi
Ltmp1019:
	.loc	42 34 20 is_stmt 0
	rep;movsq (%rsi), %es:(%rdi)
Ltmp1020:
	.loc	42 48 8 is_stmt 1
	movq	l___unnamed_18(%rip), %rax
	movq	%rax, -952(%rbp)
	movq	l___unnamed_18+8(%rip), %rax
	movq	%rax, -944(%rbp)
Ltmp983:
	leaq	-872(%rbp), %rdi
	.loc	42 48 33 is_stmt 0
	callq	__ZN65_$LT$alloc..string..String$u20$as$u20$core..ops..deref..Deref$GT$5deref17h3d4170b99132b682E
Ltmp984:
	movq	%rdx, -936(%rbp)
	movq	%rax, -928(%rbp)
	jmp	LBB83_26
Ltmp1021:
LBB83_16:
	.loc	42 35 13 is_stmt 1
	movq	-520(%rbp), %rax
	movq	%rax, -264(%rbp)
	movq	-536(%rbp), %rax
	movq	-528(%rbp), %rcx
	movq	%rcx, -272(%rbp)
	movq	%rax, -280(%rbp)
Ltmp970:
Ltmp1022:
	.loc	42 36 13
	leaq	l___unnamed_16(%rip), %rdi
	callq	__ZN4core3fmt10ArgumentV111new_display17h7c4f65ce98ef81e8E
Ltmp971:
	movq	%rdx, -984(%rbp)
	movq	%rax, -976(%rbp)
	jmp	LBB83_19
Ltmp1023:
LBB83_17:
Ltmp979:
	.loc	42 0 13 is_stmt 0
	leaq	-280(%rbp), %rdi
	.loc	42 42 9 is_stmt 1
	callq	__ZN4core3ptr42drop_in_place$LT$autocfg..error..Error$GT$17h2b62f65f0836e0a6E
Ltmp980:
	jmp	LBB83_12
LBB83_18:
Ltmp978:
	.loc	42 0 9 is_stmt 0
	movq	%rax, %rcx
	movl	%edx, %eax
	movq	%rcx, -16(%rbp)
	movl	%eax, -8(%rbp)
	jmp	LBB83_17
LBB83_19:
	movq	-984(%rbp), %rax
	movq	-976(%rbp), %rcx
	movq	%rcx, -1016(%rbp)
	movq	%rax, -1008(%rbp)
Ltmp972:
	leaq	-280(%rbp), %rdi
Ltmp1024:
	.loc	42 36 13 is_stmt 1
	callq	__ZN4core3fmt10ArgumentV111new_display17h9c76086abf1dfc2bE
Ltmp973:
	movq	%rdx, -1000(%rbp)
	movq	%rax, -992(%rbp)
	jmp	LBB83_20
LBB83_20:
	.loc	42 0 13 is_stmt 0
	movq	-1000(%rbp), %rax
	movq	-992(%rbp), %rcx
	movq	-1008(%rbp), %rdx
	movq	-1016(%rbp), %rsi
	.loc	42 36 13
	movq	%rsi, -208(%rbp)
	movq	%rdx, -200(%rbp)
	movq	%rcx, -192(%rbp)
	movq	%rax, -184(%rbp)
Ltmp974:
	leaq	l___unnamed_19(%rip), %rsi
	leaq	-256(%rbp), %rdi
	movl	$3, %edx
	leaq	-208(%rbp), %rcx
	movl	$2, %r8d
	callq	__ZN4core3fmt9Arguments6new_v117h574a8624480134a0E
Ltmp975:
	jmp	LBB83_21
LBB83_21:
Ltmp976:
	.loc	42 0 13
	leaq	-256(%rbp), %rdi
	.loc	42 36 13
	callq	__ZN3std2io5stdio6_print17ha0d536e53b83a5ccE
Ltmp977:
	jmp	LBB83_22
Ltmp1025:
LBB83_22:
Ltmp981:
	.loc	42 0 13
	leaq	-280(%rbp), %rdi
	.loc	42 42 9 is_stmt 1
	callq	__ZN4core3ptr42drop_in_place$LT$autocfg..error..Error$GT$17h2b62f65f0836e0a6E
Ltmp982:
	jmp	LBB83_23
Ltmp1026:
LBB83_23:
	.loc	42 57 1
	leaq	-872(%rbp), %rdi
	callq	__ZN4core3ptr42drop_in_place$LT$alloc..string..String$GT$17h3cc4b04911fd7e35E
	jmp	LBB83_11
LBB83_24:
Ltmp1002:
	.loc	42 0 1 is_stmt 0
	leaq	-664(%rbp), %rdi
Ltmp1027:
	.loc	42 57 1
	callq	__ZN4core3ptr37drop_in_place$LT$autocfg..AutoCfg$GT$17h4840d40d68673402E
Ltmp1003:
	jmp	LBB83_12
LBB83_25:
Ltmp1001:
	.loc	42 0 1
	movq	%rax, %rcx
	movl	%edx, %eax
	movq	%rcx, -16(%rbp)
	movl	%eax, -8(%rbp)
	jmp	LBB83_24
LBB83_26:
	movq	-944(%rbp), %rsi
	movq	-952(%rbp), %rdi
	movq	-936(%rbp), %rax
	movq	-928(%rbp), %rcx
Ltmp1028:
	.loc	42 48 32 is_stmt 1
	movq	%rcx, -176(%rbp)
	movq	%rax, -168(%rbp)
Ltmp985:
	leaq	-176(%rbp), %rdx
	.loc	42 48 8 is_stmt 0
	callq	__ZN4core5slice29_$LT$impl$u20$$u5b$T$u5d$$GT$8contains17hd7ddda23616d8feaE
Ltmp986:
	movb	%al, -1017(%rbp)
	jmp	LBB83_27
LBB83_27:
	.loc	42 0 8
	movb	-1017(%rbp), %al
	.loc	42 48 8
	testb	$1, %al
	jne	LBB83_29
	jmp	LBB83_28
LBB83_28:
Ltmp991:
	.loc	42 0 8
	leaq	-664(%rbp), %rdi
	movl	$1, %esi
	movl	$61, %edx
	.loc	42 52 9 is_stmt 1
	callq	__ZN7autocfg7AutoCfg19probe_rustc_version17h442e8632859f25d8E
Ltmp992:
	movb	%al, -1018(%rbp)
	jmp	LBB83_32
LBB83_29:
Ltmp987:
	.loc	42 49 9
	leaq	l___unnamed_20(%rip), %rsi
	leaq	l___unnamed_4(%rip), %rcx
	xorl	%eax, %eax
	movl	%eax, %r8d
	leaq	-160(%rbp), %rdi
	movl	$1, %edx
	callq	__ZN4core3fmt9Arguments6new_v117h574a8624480134a0E
Ltmp988:
	jmp	LBB83_30
LBB83_30:
Ltmp989:
	.loc	42 0 9 is_stmt 0
	leaq	-160(%rbp), %rdi
	.loc	42 49 9
	callq	__ZN3std2io5stdio6_print17ha0d536e53b83a5ccE
Ltmp990:
	jmp	LBB83_31
LBB83_31:
	jmp	LBB83_28
LBB83_32:
	.loc	42 0 9
	movb	-1018(%rbp), %al
	.loc	42 52 8 is_stmt 1
	xorb	$-1, %al
	testb	$1, %al
	jne	LBB83_34
LBB83_33:
Ltmp997:
	.loc	42 56 5
	leaq	l___unnamed_21(%rip), %rsi
	leaq	l___unnamed_4(%rip), %rcx
	xorl	%eax, %eax
	movl	%eax, %r8d
	leaq	-64(%rbp), %rdi
	movl	$1, %edx
	callq	__ZN4core3fmt9Arguments6new_v117h574a8624480134a0E
Ltmp998:
	jmp	LBB83_37
LBB83_34:
Ltmp993:
	.loc	42 53 9
	leaq	l___unnamed_22(%rip), %rsi
	leaq	l___unnamed_4(%rip), %rcx
	xorl	%eax, %eax
	movl	%eax, %r8d
	leaq	-112(%rbp), %rdi
	movl	$1, %edx
	callq	__ZN4core3fmt9Arguments6new_v117h574a8624480134a0E
Ltmp994:
	jmp	LBB83_35
LBB83_35:
Ltmp995:
	.loc	42 0 9 is_stmt 0
	leaq	-112(%rbp), %rdi
	.loc	42 53 9
	callq	__ZN3std2io5stdio6_print17ha0d536e53b83a5ccE
Ltmp996:
	jmp	LBB83_36
LBB83_36:
	jmp	LBB83_33
LBB83_37:
Ltmp999:
	.loc	42 0 9
	leaq	-64(%rbp), %rdi
	.loc	42 56 5 is_stmt 1
	callq	__ZN3std2io5stdio6_print17ha0d536e53b83a5ccE
Ltmp1000:
	jmp	LBB83_38
Ltmp1029:
LBB83_38:
Ltmp1004:
	.loc	42 0 5 is_stmt 0
	leaq	-664(%rbp), %rdi
	.loc	42 57 1 is_stmt 1
	callq	__ZN4core3ptr37drop_in_place$LT$autocfg..AutoCfg$GT$17h4840d40d68673402E
Ltmp1005:
	jmp	LBB83_39
Ltmp1030:
LBB83_39:
	.loc	42 57 1 is_stmt 0
	leaq	-872(%rbp), %rdi
	callq	__ZN4core3ptr42drop_in_place$LT$alloc..string..String$GT$17h3cc4b04911fd7e35E
	jmp	LBB83_11
Ltmp1031:
Lfunc_end83:
	.cfi_endproc
	.section	__TEXT,__gcc_except_tab
	.p2align	2
GCC_except_table83:
Lexception11:
	.byte	255
	.byte	255
	.byte	1
	.uleb128 Lcst_end11-Lcst_begin11
Lcst_begin11:
	.uleb128 Lfunc_begin83-Lfunc_begin83
	.uleb128 Ltmp968-Lfunc_begin83
	.byte	0
	.byte	0
	.uleb128 Ltmp968-Lfunc_begin83
	.uleb128 Ltmp969-Ltmp968
	.uleb128 Ltmp1006-Lfunc_begin83
	.byte	0
	.uleb128 Ltmp957-Lfunc_begin83
	.uleb128 Ltmp958-Ltmp957
	.uleb128 Ltmp965-Lfunc_begin83
	.byte	0
	.uleb128 Ltmp966-Lfunc_begin83
	.uleb128 Ltmp967-Ltmp966
	.uleb128 Ltmp1009-Lfunc_begin83
	.byte	0
	.uleb128 Ltmp959-Lfunc_begin83
	.uleb128 Ltmp964-Ltmp959
	.uleb128 Ltmp965-Lfunc_begin83
	.byte	0
	.uleb128 Ltmp964-Lfunc_begin83
	.uleb128 Ltmp1007-Ltmp964
	.byte	0
	.byte	0
	.uleb128 Ltmp1007-Lfunc_begin83
	.uleb128 Ltmp1008-Ltmp1007
	.uleb128 Ltmp1009-Lfunc_begin83
	.byte	0
	.uleb128 Ltmp983-Lfunc_begin83
	.uleb128 Ltmp984-Ltmp983
	.uleb128 Ltmp1001-Lfunc_begin83
	.byte	0
	.uleb128 Ltmp970-Lfunc_begin83
	.uleb128 Ltmp971-Ltmp970
	.uleb128 Ltmp978-Lfunc_begin83
	.byte	0
	.uleb128 Ltmp979-Lfunc_begin83
	.uleb128 Ltmp980-Ltmp979
	.uleb128 Ltmp1009-Lfunc_begin83
	.byte	0
	.uleb128 Ltmp972-Lfunc_begin83
	.uleb128 Ltmp977-Ltmp972
	.uleb128 Ltmp978-Lfunc_begin83
	.byte	0
	.uleb128 Ltmp981-Lfunc_begin83
	.uleb128 Ltmp982-Ltmp981
	.uleb128 Ltmp1006-Lfunc_begin83
	.byte	0
	.uleb128 Ltmp982-Lfunc_begin83
	.uleb128 Ltmp1002-Ltmp982
	.byte	0
	.byte	0
	.uleb128 Ltmp1002-Lfunc_begin83
	.uleb128 Ltmp1003-Ltmp1002
	.uleb128 Ltmp1009-Lfunc_begin83
	.byte	0
	.uleb128 Ltmp985-Lfunc_begin83
	.uleb128 Ltmp1000-Ltmp985
	.uleb128 Ltmp1001-Lfunc_begin83
	.byte	0
	.uleb128 Ltmp1004-Lfunc_begin83
	.uleb128 Ltmp1005-Ltmp1004
	.uleb128 Ltmp1006-Lfunc_begin83
	.byte	0
	.uleb128 Ltmp1005-Lfunc_begin83
	.uleb128 Lfunc_end83-Ltmp1005
	.byte	0
	.byte	0
Lcst_end11:
	.p2align	2

	.section	__TEXT,__text,regular,pure_instructions
	.p2align	4, 0x90
__ZN18build_script_build27convert_custom_linux_target17h3d49f0bbb4d78f6eE:
Lfunc_begin84:
	.file	47 "/Users/natalie/.cargo/registry/src/github.com-1ecc6299db9ec823/crossbeam-epoch-0.9.13" "build-common.rs"
	.loc	47 6 0 is_stmt 1
	.cfi_startproc
	.cfi_personality 155, _rust_eh_personality
	.cfi_lsda 16, Lexception12
	pushq	%rbp
	.cfi_def_cfa_offset 16
	.cfi_offset %rbp, -16
	movq	%rsp, %rbp
	.cfi_def_cfa_register %rbp
	subq	$224, %rsp
	movq	%rsi, -160(%rbp)
Ltmp1059:
	movq	%rdi, %rax
	movq	-160(%rbp), %rdi
	movq	%rax, -152(%rbp)
	movq	%rax, -144(%rbp)
Ltmp1032:
Ltmp1060:
	.loc	47 7 32 prologue_end
	callq	__ZN65_$LT$alloc..string..String$u20$as$u20$core..ops..deref..Deref$GT$5deref17h3d4170b99132b682E
Ltmp1033:
	movq	%rdx, -136(%rbp)
	movq	%rax, -128(%rbp)
	jmp	LBB84_3
Ltmp1061:
LBB84_1:
Ltmp1056:
	.loc	47 0 32 is_stmt 0
	movq	-160(%rbp), %rdi
	.loc	47 13 1 is_stmt 1
	callq	__ZN4core3ptr42drop_in_place$LT$alloc..string..String$GT$17h3cc4b04911fd7e35E
Ltmp1057:
	jmp	LBB84_18
Ltmp1062:
LBB84_2:
Ltmp1055:
	.loc	47 0 1 is_stmt 0
	movq	%rax, %rcx
	movl	%edx, %eax
	movq	%rcx, -16(%rbp)
	movl	%eax, -8(%rbp)
	jmp	LBB84_1
Ltmp1063:
LBB84_3:
Ltmp1034:
	movq	-136(%rbp), %rdx
	movq	-128(%rbp), %rsi
	leaq	-96(%rbp), %rdi
	movl	$45, %ecx
	.loc	47 7 32 is_stmt 1
	callq	__ZN4core3str21_$LT$impl$u20$str$GT$5split17hc2b46b4835367eaeE
Ltmp1035:
	jmp	LBB84_4
Ltmp1064:
LBB84_4:
Ltmp1036:
	.loc	47 0 32 is_stmt 0
	leaq	-120(%rbp), %rdi
	leaq	-96(%rbp), %rsi
	.loc	47 7 32
	callq	__ZN4core4iter6traits8iterator8Iterator7collect17ha89c53a995faac48E
Ltmp1037:
	jmp	LBB84_5
Ltmp1065:
LBB84_5:
Ltmp1038:
	.loc	47 0 32
	leaq	-120(%rbp), %rdi
Ltmp1066:
	.loc	47 8 18 is_stmt 1
	callq	__ZN72_$LT$alloc..vec..Vec$LT$T$C$A$GT$$u20$as$u20$core..ops..deref..Deref$GT$5deref17h147cceba569499a1E
Ltmp1039:
	movq	%rdx, -176(%rbp)
	movq	%rax, -168(%rbp)
	jmp	LBB84_8
Ltmp1067:
LBB84_6:
Ltmp1051:
	.loc	47 0 18 is_stmt 0
	leaq	-120(%rbp), %rdi
	.loc	47 13 1 is_stmt 1
	callq	__ZN4core3ptr51drop_in_place$LT$alloc..vec..Vec$LT$$RF$str$GT$$GT$17hf984b22451e359f1E
Ltmp1052:
	jmp	LBB84_1
Ltmp1068:
LBB84_7:
Ltmp1050:
	.loc	47 0 1 is_stmt 0
	movq	%rax, %rcx
	movl	%edx, %eax
	movq	%rcx, -16(%rbp)
	movl	%eax, -8(%rbp)
	jmp	LBB84_6
Ltmp1069:
LBB84_8:
Ltmp1040:
	movq	-176(%rbp), %rsi
	movq	-168(%rbp), %rdi
	movl	$2, %edx
Ltmp1070:
	.loc	47 8 18 is_stmt 1
	callq	__ZN4core5slice29_$LT$impl$u20$$u5b$T$u5d$$GT$3get17hc12d030078a3cbb1E
Ltmp1041:
	movq	%rax, -184(%rbp)
	jmp	LBB84_9
Ltmp1071:
LBB84_9:
	.loc	47 0 18 is_stmt 0
	movq	-184(%rbp), %rax
	.loc	47 8 18
	movq	%rax, -24(%rbp)
Ltmp1042:
Ltmp1072:
	.loc	47 9 8 is_stmt 1
	leaq	l___unnamed_23(%rip), %rsi
	leaq	-24(%rbp), %rdi
	callq	__ZN70_$LT$core..option..Option$LT$T$GT$$u20$as$u20$core..cmp..PartialEq$GT$2eq17h1d879d0626f46bf4E
Ltmp1043:
	movb	%al, -185(%rbp)
	jmp	LBB84_10
Ltmp1073:
LBB84_10:
	.loc	47 0 8 is_stmt 0
	movb	-185(%rbp), %al
	.loc	47 9 8
	testb	$1, %al
	jne	LBB84_12
	jmp	LBB84_11
Ltmp1074:
LBB84_11:
Ltmp1046:
	.loc	47 0 8
	leaq	-120(%rbp), %rdi
	.loc	47 12 5 is_stmt 1
	callq	__ZN72_$LT$alloc..vec..Vec$LT$T$C$A$GT$$u20$as$u20$core..ops..deref..Deref$GT$5deref17h147cceba569499a1E
Ltmp1047:
	movq	%rdx, -208(%rbp)
	movq	%rax, -200(%rbp)
	jmp	LBB84_14
Ltmp1075:
LBB84_12:
Ltmp1044:
	.loc	47 10 9
	leaq	l___unnamed_24(%rip), %rdx
	leaq	-120(%rbp), %rdi
	movl	$1, %esi
	callq	__ZN84_$LT$alloc..vec..Vec$LT$T$C$A$GT$$u20$as$u20$core..ops..index..IndexMut$LT$I$GT$$GT$9index_mut17hea7cf68efcb23d98E
Ltmp1045:
	movq	%rax, -216(%rbp)
	jmp	LBB84_13
Ltmp1076:
LBB84_13:
	.loc	47 0 9 is_stmt 0
	movq	-216(%rbp), %rax
	.loc	47 10 9
	leaq	l___unnamed_25(%rip), %rcx
	movq	%rcx, (%rax)
	movq	$7, 8(%rax)
	.loc	47 9 5 is_stmt 1
	jmp	LBB84_11
Ltmp1077:
LBB84_14:
Ltmp1048:
	.loc	47 0 5 is_stmt 0
	movq	-208(%rbp), %rdx
	movq	-200(%rbp), %rsi
	movq	-152(%rbp), %rdi
	.loc	47 12 5 is_stmt 1
	leaq	l___unnamed_26(%rip), %rcx
	movl	$1, %r8d
	callq	__ZN5alloc5slice29_$LT$impl$u20$$u5b$T$u5d$$GT$4join17hd9c8bf6e5b1b5413E
Ltmp1049:
	jmp	LBB84_15
Ltmp1078:
LBB84_15:
Ltmp1053:
	.loc	47 0 5 is_stmt 0
	leaq	-120(%rbp), %rdi
	.loc	47 13 1 is_stmt 1
	callq	__ZN4core3ptr51drop_in_place$LT$alloc..vec..Vec$LT$$RF$str$GT$$GT$17hf984b22451e359f1E
Ltmp1054:
	jmp	LBB84_17
Ltmp1079:
LBB84_16:
Ltmp1058:
	.loc	47 6 1
	callq	__ZN4core9panicking19panic_cannot_unwind17h1fbca7e1d7f56ae1E
Ltmp1080:
LBB84_17:
	.loc	47 0 1 is_stmt 0
	movq	-160(%rbp), %rdi
	.loc	47 13 1 is_stmt 1
	callq	__ZN4core3ptr42drop_in_place$LT$alloc..string..String$GT$17h3cc4b04911fd7e35E
	movq	-144(%rbp), %rax
	.loc	47 13 2 is_stmt 0
	addq	$224, %rsp
	popq	%rbp
	retq
Ltmp1081:
LBB84_18:
	.loc	47 6 1 is_stmt 1
	movq	-16(%rbp), %rdi
	callq	__Unwind_Resume
Ltmp1082:
Lfunc_end84:
	.cfi_endproc
	.section	__TEXT,__gcc_except_tab
	.p2align	2
GCC_except_table84:
Lexception12:
	.byte	255
	.byte	255
	.byte	1
	.uleb128 Lcst_end12-Lcst_begin12
Lcst_begin12:
	.uleb128 Ltmp1032-Lfunc_begin84
	.uleb128 Ltmp1033-Ltmp1032
	.uleb128 Ltmp1055-Lfunc_begin84
	.byte	0
	.uleb128 Ltmp1056-Lfunc_begin84
	.uleb128 Ltmp1057-Ltmp1056
	.uleb128 Ltmp1058-Lfunc_begin84
	.byte	0
	.uleb128 Ltmp1034-Lfunc_begin84
	.uleb128 Ltmp1037-Ltmp1034
	.uleb128 Ltmp1055-Lfunc_begin84
	.byte	0
	.uleb128 Ltmp1038-Lfunc_begin84
	.uleb128 Ltmp1039-Ltmp1038
	.uleb128 Ltmp1050-Lfunc_begin84
	.byte	0
	.uleb128 Ltmp1051-Lfunc_begin84
	.uleb128 Ltmp1052-Ltmp1051
	.uleb128 Ltmp1058-Lfunc_begin84
	.byte	0
	.uleb128 Ltmp1040-Lfunc_begin84
	.uleb128 Ltmp1049-Ltmp1040
	.uleb128 Ltmp1050-Lfunc_begin84
	.byte	0
	.uleb128 Ltmp1053-Lfunc_begin84
	.uleb128 Ltmp1054-Ltmp1053
	.uleb128 Ltmp1055-Lfunc_begin84
	.byte	0
	.uleb128 Ltmp1054-Lfunc_begin84
	.uleb128 Lfunc_end84-Ltmp1054
	.byte	0
	.byte	0
Lcst_end12:
	.p2align	2

	.section	__TEXT,__text,regular,pure_instructions
	.globl	_main
	.p2align	4, 0x90
_main:
Lfunc_begin85:
	.cfi_startproc
	pushq	%rbp
	.cfi_def_cfa_offset 16
	.cfi_offset %rbp, -16
	movq	%rsp, %rbp
	.cfi_def_cfa_register %rbp
	movq	%rsi, %rdx
	movslq	%edi, %rsi
	leaq	__ZN18build_script_build4main17h60f67fd56afa9a42E(%rip), %rdi
	xorl	%ecx, %ecx
	callq	__ZN3std2rt10lang_start17h971ae159162ba7c9E
	popq	%rbp
	retq
Lfunc_end85:
	.cfi_endproc

	.section	__TEXT,__literal16,16byte_literals
	.p2align	3
L___unnamed_2:
	.asciz	"\000\000\000\000\000\000\000\000\b\000\000\000\000\000\000"

	.section	__DATA,__const
	.p2align	3
l___unnamed_1:
	.quad	__ZN4core3ptr85drop_in_place$LT$std..rt..lang_start$LT$$LP$$RP$$GT$..$u7b$$u7b$closure$u7d$$u7d$$GT$17h19d8769e3cf94b62E
	.asciz	"\b\000\000\000\000\000\000\000\b\000\000\000\000\000\000"
	.quad	__ZN4core3ops8function6FnOnce40call_once$u7b$$u7b$vtable.shim$u7d$$u7d$17hbb1e594e12a4938fE
	.quad	__ZN3std2rt10lang_start28_$u7b$$u7b$closure$u7d$$u7d$17h10038a518b62a946E
	.quad	__ZN3std2rt10lang_start28_$u7b$$u7b$closure$u7d$$u7d$17h10038a518b62a946E

	.section	__TEXT,__const
l___unnamed_27:
	.ascii	"invalid args"

	.section	__DATA,__const
	.p2align	3
l___unnamed_3:
	.quad	l___unnamed_27
	.asciz	"\f\000\000\000\000\000\000"

	.section	__TEXT,__const
	.p2align	3
l___unnamed_4:
	.byte	0

l___unnamed_28:
	.ascii	"/rustc/2c8cc343237b8f7d5a3c3703e3a87f2eb2c54a74/library/core/src/fmt/mod.rs"

	.section	__DATA,__const
	.p2align	3
l___unnamed_5:
	.quad	l___unnamed_28
	.asciz	"K\000\000\000\000\000\000\000\221\001\000\000\r\000\000"

	.section	__TEXT,__const
l___unnamed_6:
	.ascii	"assertion failed: 0 < pointee_size && pointee_size <= isize::MAX as usize"

l___unnamed_29:
	.ascii	"/rustc/2c8cc343237b8f7d5a3c3703e3a87f2eb2c54a74/library/core/src/ptr/const_ptr.rs"

	.section	__DATA,__const
	.p2align	3
l___unnamed_7:
	.quad	l___unnamed_29
	.asciz	"Q\000\000\000\000\000\000\000&\003\000\000\t\000\000"

	.section	__TEXT,__const
l___unnamed_30:
	.ascii	"/rustc/2c8cc343237b8f7d5a3c3703e3a87f2eb2c54a74/library/core/src/alloc/layout.rs"

	.section	__DATA,__const
	.p2align	3
l___unnamed_8:
	.quad	l___unnamed_30
	.asciz	"P\000\000\000\000\000\000\000\304\001\000\000)\000\000"

	.section	__TEXT,__const
	.p2align	4
_str.0:
	.ascii	"attempt to divide by zero"

l___unnamed_9:
	.ascii	"assertion failed: mid <= self.len()"

l___unnamed_11:
	.ascii	"attempt to join into collection with len > usize::MAX"

l___unnamed_31:
	.ascii	"/rustc/2c8cc343237b8f7d5a3c3703e3a87f2eb2c54a74/library/alloc/src/str.rs"

	.section	__DATA,__const
	.p2align	3
l___unnamed_13:
	.quad	l___unnamed_31
	.asciz	"H\000\000\000\000\000\000\000\260\000\000\000\026\000\000"

	.p2align	3
l___unnamed_12:
	.quad	l___unnamed_31
	.asciz	"H\000\000\000\000\000\000\000\231\000\000\000\n\000\000"

	.section	__TEXT,__literal16,16byte_literals
	.p2align	3
L___unnamed_10:
	.asciz	"\000\000\000\000\000\000\000\000\001\000\000\000\000\000\000"

	.section	__TEXT,__const
l___unnamed_32:
	.ascii	"/rustc/2c8cc343237b8f7d5a3c3703e3a87f2eb2c54a74/library/alloc/src/raw_vec.rs"

	.section	__DATA,__const
	.p2align	3
l___unnamed_14:
	.quad	l___unnamed_32
	.asciz	"L\000\000\000\000\000\000\000\367\000\000\000;\000\000"

	.section	__TEXT,__const
l___unnamed_15:
	.ascii	"TARGET"

l___unnamed_33:
	.ascii	"cargo:warning="

l___unnamed_34:
	.ascii	": unable to get TARGET environment variable: "

l___unnamed_35:
	.byte	10

	.section	__DATA,__const
	.p2align	3
l___unnamed_17:
	.quad	l___unnamed_33
	.asciz	"\016\000\000\000\000\000\000"
	.quad	l___unnamed_34
	.asciz	"-\000\000\000\000\000\000"
	.quad	l___unnamed_35
	.asciz	"\001\000\000\000\000\000\000"

	.section	__TEXT,__const
l___unnamed_36:
	.ascii	"crossbeam-epoch"

	.section	__DATA,__const
	.p2align	3
l___unnamed_16:
	.quad	l___unnamed_36
	.asciz	"\017\000\000\000\000\000\000"

	.section	__TEXT,__const
l___unnamed_37:
	.ascii	": unable to determine rustc version: "

	.section	__DATA,__const
	.p2align	3
l___unnamed_19:
	.quad	l___unnamed_33
	.asciz	"\016\000\000\000\000\000\000"
	.quad	l___unnamed_37
	.asciz	"%\000\000\000\000\000\000"
	.quad	l___unnamed_35
	.asciz	"\001\000\000\000\000\000\000"

	.section	__TEXT,__literal16,16byte_literals
L___unnamed_38:
	.ascii	"armv4t-none-eabi"

	.section	__TEXT,__const
l___unnamed_39:
	.ascii	"armv5te-none-eabi"

l___unnamed_40:
	.ascii	"avr-unknown-gnu-atmega328"

l___unnamed_41:
	.ascii	"bpfeb-unknown-none"

l___unnamed_42:
	.ascii	"bpfel-unknown-none"

l___unnamed_43:
	.ascii	"msp430-none-elf"

l___unnamed_44:
	.ascii	"riscv32i-unknown-none-elf"

l___unnamed_45:
	.ascii	"riscv32im-unknown-none-elf"

l___unnamed_46:
	.ascii	"riscv32imc-unknown-none-elf"

l___unnamed_47:
	.ascii	"thumbv4t-none-eabi"

l___unnamed_48:
	.ascii	"thumbv5te-none-eabi"

l___unnamed_49:
	.ascii	"thumbv6m-none-eabi"

	.section	__DATA,__const
	.p2align	3
l___unnamed_50:
	.quad	L___unnamed_38
	.asciz	"\020\000\000\000\000\000\000"
	.quad	l___unnamed_39
	.asciz	"\021\000\000\000\000\000\000"
	.quad	l___unnamed_40
	.asciz	"\031\000\000\000\000\000\000"
	.quad	l___unnamed_41
	.asciz	"\022\000\000\000\000\000\000"
	.quad	l___unnamed_42
	.asciz	"\022\000\000\000\000\000\000"
	.quad	l___unnamed_43
	.asciz	"\017\000\000\000\000\000\000"
	.quad	l___unnamed_44
	.asciz	"\031\000\000\000\000\000\000"
	.quad	l___unnamed_45
	.asciz	"\032\000\000\000\000\000\000"
	.quad	l___unnamed_46
	.asciz	"\033\000\000\000\000\000\000"
	.quad	l___unnamed_47
	.asciz	"\022\000\000\000\000\000\000"
	.quad	l___unnamed_48
	.asciz	"\023\000\000\000\000\000\000"
	.quad	l___unnamed_49
	.asciz	"\022\000\000\000\000\000\000"

	.p2align	3
l___unnamed_18:
	.quad	l___unnamed_50
	.asciz	"\f\000\000\000\000\000\000"

	.section	__TEXT,__const
l___unnamed_51:
	.ascii	"cargo:rustc-cfg=crossbeam_no_atomic_cas\n"

	.section	__DATA,__const
	.p2align	3
l___unnamed_20:
	.quad	l___unnamed_51
	.asciz	"(\000\000\000\000\000\000"

	.section	__TEXT,__const
l___unnamed_52:
	.ascii	"cargo:rustc-cfg=crossbeam_no_const_fn_trait_bound\n"

	.section	__DATA,__const
	.p2align	3
l___unnamed_22:
	.quad	l___unnamed_52
	.asciz	"2\000\000\000\000\000\000"

	.section	__TEXT,__const
l___unnamed_53:
	.ascii	"cargo:rerun-if-changed=no_atomic.rs\n"

	.section	__DATA,__const
	.p2align	3
l___unnamed_21:
	.quad	l___unnamed_53
	.asciz	"$\000\000\000\000\000\000"

	.section	__TEXT,__const
l___unnamed_54:
	.ascii	"linux"

	.section	__DATA,__const
	.p2align	3
l___unnamed_55:
	.quad	l___unnamed_54
	.asciz	"\005\000\000\000\000\000\000"

	.p2align	3
l___unnamed_23:
	.quad	l___unnamed_55

	.section	__TEXT,__const
l___unnamed_25:
	.ascii	"unknown"

l___unnamed_56:
	.ascii	"/Users/natalie/.cargo/registry/src/github.com-1ecc6299db9ec823/crossbeam-epoch-0.9.13/build-common.rs"

	.section	__DATA,__const
	.p2align	3
l___unnamed_24:
	.quad	l___unnamed_56
	.asciz	"e\000\000\000\000\000\000\000\n\000\000\000\t\000\000"

	.section	__TEXT,__const
l___unnamed_26:
	.byte	45

	.section	__DATA,__const
Lsec_end0:
	.section	__TEXT,__text,regular,pure_instructions
Lsec_end1: