	.section	__TEXT,__text,regular,pure_instructions
	.macosx_version_min 10, 7
	.p2align	4, 0x90
__ZN3std10sys_common9backtrace28__rust_begin_short_backtrace17h38cfdd311c5ef36fE:
Lfunc_begin0:
	.file	1 "/rustc/2c8cc343237b8f7d5a3c3703e3a87f2eb2c54a74/library/std/src/sys_common" "backtrace.rs"
	.loc	1 117 0
	.cfi_startproc
	pushq	%rbp
	.cfi_def_cfa_offset 16
	.cfi_offset %rbp, -16
	movq	%rsp, %rbp
	.cfi_def_cfa_register %rbp
	subq	$48, %rsp
	movq	%rdi, -32(%rbp)
Ltmp0:
	.loc	1 121 18 prologue_end
	callq	__ZN4core3ops8function6FnOnce9call_once17hf2d4c87f6a93195dE
Ltmp1:
	.file	2 "/rustc/2c8cc343237b8f7d5a3c3703e3a87f2eb2c54a74/library/core/src" "hint.rs"
	.loc	2 295 5
	## InlineAsm Start
	## InlineAsm End
Ltmp2:
	.loc	1 127 2
	addq	$48, %rsp
	popq	%rbp
	retq
Ltmp3:
Lfunc_end0:
	.cfi_endproc

	.private_extern	__ZN3std2rt10lang_start17h5c056847a7f735d1E
	.globl	__ZN3std2rt10lang_start17h5c056847a7f735d1E
	.p2align	4, 0x90
__ZN3std2rt10lang_start17h5c056847a7f735d1E:
Lfunc_begin1:
	.file	3 "/rustc/2c8cc343237b8f7d5a3c3703e3a87f2eb2c54a74/library/std/src" "rt.rs"
	.loc	3 159 0
	.cfi_startproc
	pushq	%rbp
	.cfi_def_cfa_offset 16
	.cfi_offset %rbp, -16
	movq	%rsp, %rbp
	.cfi_def_cfa_register %rbp
	subq	$64, %rsp
	movl	%ecx, %eax
	movq	%rdx, %rcx
	movq	%rsi, %rdx
	movq	%rdi, -40(%rbp)
	movq	%rdx, -32(%rbp)
	movq	%rcx, -24(%rbp)
	movb	%al, -9(%rbp)
Ltmp4:
	.loc	3 166 10 prologue_end
	movq	%rdi, -48(%rbp)
	.loc	3 165 17
	leaq	-48(%rbp), %rdi
	leaq	l___unnamed_1(%rip), %rsi
	movzbl	%al, %r8d
	callq	__ZN3std2rt19lang_start_internal17h72dc55d09e0a2397E
	movq	%rax, -56(%rbp)
	.loc	3 165 12 is_stmt 0
	movq	-56(%rbp), %rax
	movq	%rax, -8(%rbp)
	.loc	3 172 2 is_stmt 1
	addq	$64, %rsp
	popq	%rbp
	retq
Ltmp5:
Lfunc_end1:
	.cfi_endproc

	.p2align	4, 0x90
__ZN3std2rt10lang_start28_$u7b$$u7b$closure$u7d$$u7d$17h35bf7c510f5e63feE:
Lfunc_begin2:
	.loc	3 166 0
	.cfi_startproc
	pushq	%rbp
	.cfi_def_cfa_offset 16
	.cfi_offset %rbp, -16
	movq	%rsp, %rbp
	.cfi_def_cfa_register %rbp
	subq	$32, %rsp
	movq	%rdi, -16(%rbp)
Ltmp6:
	.loc	3 166 77 prologue_end
	movq	(%rdi), %rdi
	.loc	3 166 18 is_stmt 0
	callq	__ZN3std10sys_common9backtrace28__rust_begin_short_backtrace17h38cfdd311c5ef36fE
	callq	__ZN54_$LT$$LP$$RP$$u20$as$u20$std..process..Termination$GT$6report17he7576c06151022d0E
	movb	%al, -17(%rbp)
Ltmp7:
	.file	4 "/rustc/2c8cc343237b8f7d5a3c3703e3a87f2eb2c54a74/library/std/src" "process.rs"
	.loc	4 1820 9 is_stmt 1
	leaq	-17(%rbp), %rax
	movq	%rax, -8(%rbp)
Ltmp8:
	.file	5 "/rustc/2c8cc343237b8f7d5a3c3703e3a87f2eb2c54a74/library/std/src/sys/unix/process" "process_common.rs"
	.loc	5 594 9
	movzbl	-17(%rbp), %eax
Ltmp9:
	.loc	3 166 100
	addq	$32, %rsp
	popq	%rbp
	retq
Ltmp10:
Lfunc_end2:
	.cfi_endproc

	.p2align	4, 0x90
__ZN4core3fmt9Arguments6new_v117h5f130617618d6c8eE:
Lfunc_begin3:
	.file	6 "/rustc/2c8cc343237b8f7d5a3c3703e3a87f2eb2c54a74/library/core/src/fmt" "mod.rs"
	.loc	6 399 0
	.cfi_startproc
	pushq	%rbp
	.cfi_def_cfa_offset 16
	.cfi_offset %rbp, -16
	movq	%rsp, %rbp
	.cfi_def_cfa_register %rbp
	subq	$160, %rsp
	movq	%r8, -152(%rbp)
	movq	%rcx, -144(%rbp)
	movq	%rdx, -136(%rbp)
	movq	%rsi, -128(%rbp)
	movq	%rdi, -120(%rbp)
	movq	%rdi, -112(%rbp)
	movq	%rsi, -32(%rbp)
	movq	%rdx, -24(%rbp)
	movq	%rcx, -16(%rbp)
	movq	%r8, -8(%rbp)
Ltmp11:
	.loc	6 400 12 prologue_end
	cmpq	%r8, %rdx
	jb	LBB3_2
	.loc	6 0 12 is_stmt 0
	movq	-136(%rbp), %rax
	movq	-152(%rbp), %rcx
	.loc	6 400 56
	addq	$1, %rcx
	.loc	6 400 41
	cmpq	%rcx, %rax
	seta	%al
	.loc	6 400 12
	andb	$1, %al
	movb	%al, -97(%rbp)
	jmp	LBB3_3
LBB3_2:
	movb	$1, -97(%rbp)
LBB3_3:
	testb	$1, -97(%rbp)
	jne	LBB3_5
	.loc	6 0 12
	movq	-112(%rbp), %rax
	movq	-120(%rbp), %rcx
	movq	-152(%rbp), %rdx
	movq	-144(%rbp), %rsi
	movq	-136(%rbp), %rdi
	movq	-128(%rbp), %r8
	.loc	6 403 34 is_stmt 1
	movq	$0, -48(%rbp)
	.loc	6 403 9 is_stmt 0
	movq	%r8, 16(%rcx)
	movq	%rdi, 24(%rcx)
	movq	-48(%rbp), %r8
	movq	-40(%rbp), %rdi
	movq	%r8, (%rcx)
	movq	%rdi, 8(%rcx)
	movq	%rsi, 32(%rcx)
	movq	%rdx, 40(%rcx)
	.loc	6 404 6 is_stmt 1
	addq	$160, %rsp
	popq	%rbp
	retq
LBB3_5:
	.loc	6 401 13
	leaq	l___unnamed_2(%rip), %rsi
	leaq	l___unnamed_3(%rip), %rcx
	xorl	%eax, %eax
	movl	%eax, %r8d
	leaq	-96(%rbp), %rdi
	movq	%rdi, -160(%rbp)
	movl	$1, %edx
	callq	__ZN4core3fmt9Arguments6new_v117h5f130617618d6c8eE
	movq	-160(%rbp), %rdi
	leaq	l___unnamed_4(%rip), %rsi
	callq	__ZN4core9panicking9panic_fmt17h9b5d807e24bcaaedE
Ltmp12:
Lfunc_end3:
	.cfi_endproc

	.p2align	4, 0x90
__ZN4core3ops8function6FnOnce40call_once$u7b$$u7b$vtable.shim$u7d$$u7d$17hc7b802fea550eb0aE:
Lfunc_begin4:
	.file	7 "/rustc/2c8cc343237b8f7d5a3c3703e3a87f2eb2c54a74/library/core/src/ops" "function.rs"
	.loc	7 250 0
	.cfi_startproc
	pushq	%rbp
	.cfi_def_cfa_offset 16
	.cfi_offset %rbp, -16
	movq	%rsp, %rbp
	.cfi_def_cfa_register %rbp
	subq	$16, %rsp
	movq	%rdi, -8(%rbp)
Ltmp13:
	.loc	7 250 5 prologue_end
	movq	(%rdi), %rdi
	callq	__ZN4core3ops8function6FnOnce9call_once17h2d70fa1662b9c53dE
	addq	$16, %rsp
	popq	%rbp
	retq
Ltmp14:
Lfunc_end4:
	.cfi_endproc

	.p2align	4, 0x90
__ZN4core3ops8function6FnOnce9call_once17h2d70fa1662b9c53dE:
Lfunc_begin5:
	.loc	7 250 0
	.cfi_startproc
	.cfi_personality 155, _rust_eh_personality
	.cfi_lsda 16, Lexception0
	pushq	%rbp
	.cfi_def_cfa_offset 16
	.cfi_offset %rbp, -16
	movq	%rsp, %rbp
	.cfi_def_cfa_register %rbp
	subq	$48, %rsp
	movq	%rdi, -32(%rbp)
Ltmp15:
	leaq	-32(%rbp), %rdi
Ltmp18:
	.loc	7 250 5 prologue_end
	callq	__ZN3std2rt10lang_start28_$u7b$$u7b$closure$u7d$$u7d$17h35bf7c510f5e63feE
Ltmp16:
	movl	%eax, -36(%rbp)
	jmp	LBB5_3
LBB5_1:
	movq	-16(%rbp), %rdi
	callq	__Unwind_Resume
LBB5_2:
Ltmp17:
	.loc	7 0 5 is_stmt 0
	movq	%rax, %rcx
	movl	%edx, %eax
	movq	%rcx, -16(%rbp)
	movl	%eax, -8(%rbp)
	jmp	LBB5_1
LBB5_3:
	movl	-36(%rbp), %eax
	.loc	7 250 5
	addq	$48, %rsp
	popq	%rbp
	retq
Ltmp19:
Lfunc_end5:
	.cfi_endproc
	.section	__TEXT,__gcc_except_tab
	.p2align	2
GCC_except_table5:
Lexception0:
	.byte	255
	.byte	255
	.byte	1
	.uleb128 Lcst_end0-Lcst_begin0
Lcst_begin0:
	.uleb128 Ltmp15-Lfunc_begin5
	.uleb128 Ltmp16-Ltmp15
	.uleb128 Ltmp17-Lfunc_begin5
	.byte	0
	.uleb128 Ltmp16-Lfunc_begin5
	.uleb128 Lfunc_end5-Ltmp16
	.byte	0
	.byte	0
Lcst_end0:
	.p2align	2

	.section	__TEXT,__text,regular,pure_instructions
	.p2align	4, 0x90
__ZN4core3ops8function6FnOnce9call_once17hf2d4c87f6a93195dE:
Lfunc_begin6:
	.loc	7 250 0 is_stmt 1
	.cfi_startproc
	pushq	%rbp
	.cfi_def_cfa_offset 16
	.cfi_offset %rbp, -16
	movq	%rsp, %rbp
	.cfi_def_cfa_register %rbp
	subq	$16, %rsp
	movq	%rdi, -8(%rbp)
Ltmp20:
	.loc	7 250 5 prologue_end
	callq	*%rdi
	addq	$16, %rsp
	popq	%rbp
	retq
Ltmp21:
Lfunc_end6:
	.cfi_endproc

	.p2align	4, 0x90
__ZN4core3ptr85drop_in_place$LT$std..rt..lang_start$LT$$LP$$RP$$GT$..$u7b$$u7b$closure$u7d$$u7d$$GT$17h484e6270cd2e37f3E:
Lfunc_begin7:
	.file	8 "/rustc/2c8cc343237b8f7d5a3c3703e3a87f2eb2c54a74/library/core/src/ptr" "mod.rs"
	.loc	8 490 0
	.cfi_startproc
	pushq	%rbp
	.cfi_def_cfa_offset 16
	.cfi_offset %rbp, -16
	movq	%rsp, %rbp
	.cfi_def_cfa_register %rbp
	pushq	%rax
	movq	%rdi, -8(%rbp)
Ltmp22:
	.loc	8 490 1 prologue_end
	addq	$8, %rsp
	popq	%rbp
	retq
Ltmp23:
Lfunc_end7:
	.cfi_endproc

	.p2align	4, 0x90
__ZN54_$LT$$LP$$RP$$u20$as$u20$std..process..Termination$GT$6report17he7576c06151022d0E:
Lfunc_begin8:
	.loc	4 2182 0
	.cfi_startproc
	pushq	%rbp
	.cfi_def_cfa_offset 16
	.cfi_offset %rbp, -16
	movq	%rsp, %rbp
	.cfi_def_cfa_register %rbp
	pushq	%rax
Ltmp24:
	.loc	4 2184 6 prologue_end
	xorl	%eax, %eax
	addq	$8, %rsp
	popq	%rbp
	retq
Ltmp25:
Lfunc_end8:
	.cfi_endproc

	.p2align	4, 0x90
__ZN18build_script_build4main17h6fc74b326716453dE:
Lfunc_begin9:
	.file	9 "/Users/natalie/.cargo/registry/src/github.com-1ecc6299db9ec823/rayon-core-1.10.1" "build.rs"
	.loc	9 4 0
	.cfi_startproc
	pushq	%rbp
	.cfi_def_cfa_offset 16
	.cfi_offset %rbp, -16
	movq	%rsp, %rbp
	.cfi_def_cfa_register %rbp
	subq	$48, %rsp
Ltmp26:
	.loc	9 6 5 prologue_end
	leaq	-48(%rbp), %rdi
	leaq	l___unnamed_5(%rip), %rsi
	movl	$1, %edx
	leaq	l___unnamed_3(%rip), %rcx
	xorl	%eax, %eax
	movl	%eax, %r8d
	callq	__ZN4core3fmt9Arguments6new_v117h5f130617618d6c8eE
	leaq	-48(%rbp), %rdi
	callq	__ZN3std2io5stdio6_print17ha0d536e53b83a5ccE
	.loc	9 7 2
	addq	$48, %rsp
	popq	%rbp
	retq
Ltmp27:
Lfunc_end9:
	.cfi_endproc

	.globl	_main
	.p2align	4, 0x90
_main:
Lfunc_begin10:
	.cfi_startproc
	pushq	%rbp
	.cfi_def_cfa_offset 16
	.cfi_offset %rbp, -16
	movq	%rsp, %rbp
	.cfi_def_cfa_register %rbp
	movq	%rsi, %rdx
	movslq	%edi, %rsi
	leaq	__ZN18build_script_build4main17h6fc74b326716453dE(%rip), %rdi
	xorl	%ecx, %ecx
	callq	__ZN3std2rt10lang_start17h5c056847a7f735d1E
	popq	%rbp
	retq
Lfunc_end10:
	.cfi_endproc

	.section	__DATA,__const
	.p2align	3
l___unnamed_1:
	.quad	__ZN4core3ptr85drop_in_place$LT$std..rt..lang_start$LT$$LP$$RP$$GT$..$u7b$$u7b$closure$u7d$$u7d$$GT$17h484e6270cd2e37f3E
	.asciz	"\b\000\000\000\000\000\000\000\b\000\000\000\000\000\000"
	.quad	__ZN4core3ops8function6FnOnce40call_once$u7b$$u7b$vtable.shim$u7d$$u7d$17hc7b802fea550eb0aE
	.quad	__ZN3std2rt10lang_start28_$u7b$$u7b$closure$u7d$$u7d$17h35bf7c510f5e63feE
	.quad	__ZN3std2rt10lang_start28_$u7b$$u7b$closure$u7d$$u7d$17h35bf7c510f5e63feE

	.section	__TEXT,__const
l___unnamed_6:
	.ascii	"invalid args"

	.section	__DATA,__const
	.p2align	3
l___unnamed_2:
	.quad	l___unnamed_6
	.asciz	"\f\000\000\000\000\000\000"

	.section	__TEXT,__const
	.p2align	3
l___unnamed_3:
	.byte	0

l___unnamed_7:
	.ascii	"/rustc/2c8cc343237b8f7d5a3c3703e3a87f2eb2c54a74/library/core/src/fmt/mod.rs"

	.section	__DATA,__const
	.p2align	3
l___unnamed_4:
	.quad	l___unnamed_7
	.asciz	"K\000\000\000\000\000\000\000\221\001\000\000\r\000\000"

	.section	__TEXT,__const
l___unnamed_8:
	.ascii	"cargo:rerun-if-changed=build.rs\n"

	.section	__DATA,__const
	.p2align	3
l___unnamed_5:
	.quad	l___unnamed_8
	.asciz	" \000\000\000\000\000\000"

	.section	__DATA,__const
Lsec_end0:
	.section	__TEXT,__text,regular,pure_instructions
Lsec_end1: