	.section	__TEXT,__text,regular,pure_instructions
	.macosx_version_min 10, 7
	.p2align	4, 0x90
__ZN119_$LT$core..ptr..non_null..NonNull$LT$T$GT$$u20$as$u20$core..convert..From$LT$core..ptr..unique..Unique$LT$T$GT$$GT$$GT$4from17h43b4118f792c66a7E:
Lfunc_begin0:
	.file	1 "/rustc/2c8cc343237b8f7d5a3c3703e3a87f2eb2c54a74/library/core/src/ptr" "non_null.rs"
	.loc	1 765 0
	.cfi_startproc
	pushq	%rbp
	.cfi_def_cfa_offset 16
	.cfi_offset %rbp, -16
	movq	%rsp, %rbp
	.cfi_def_cfa_register %rbp
	subq	$40, %rsp
	movq	%rdi, -32(%rbp)
Ltmp0:
	.loc	1 768 41 prologue_end
	movq	%rdi, -24(%rbp)
Ltmp1:
	.file	2 "/rustc/2c8cc343237b8f7d5a3c3703e3a87f2eb2c54a74/library/core/src/ptr" "unique.rs"
	.loc	2 104 9
	movq	%rdi, -16(%rbp)
Ltmp2:
	.loc	1 326 9
	movq	%rdi, -8(%rbp)
Ltmp3:
	.loc	1 201 13
	movq	%rdi, -40(%rbp)
Ltmp4:
	.loc	1 769 6
	movq	-40(%rbp), %rax
	addq	$40, %rsp
	popq	%rbp
	retq
Ltmp5:
Lfunc_end0:
	.cfi_endproc

	.p2align	4, 0x90
__ZN3std10sys_common9backtrace28__rust_begin_short_backtrace17h92cdf6193d0b87e3E:
Lfunc_begin1:
	.file	3 "/rustc/2c8cc343237b8f7d5a3c3703e3a87f2eb2c54a74/library/std/src/sys_common" "backtrace.rs"
	.loc	3 117 0
	.cfi_startproc
	pushq	%rbp
	.cfi_def_cfa_offset 16
	.cfi_offset %rbp, -16
	movq	%rsp, %rbp
	.cfi_def_cfa_register %rbp
	subq	$48, %rsp
	movq	%rdi, -32(%rbp)
Ltmp6:
	.loc	3 121 18 prologue_end
	callq	__ZN4core3ops8function6FnOnce9call_once17hc39db8ebb8e2ba29E
Ltmp7:
	.file	4 "/rustc/2c8cc343237b8f7d5a3c3703e3a87f2eb2c54a74/library/core/src" "hint.rs"
	.loc	4 295 5
	## InlineAsm Start
	## InlineAsm End
Ltmp8:
	.loc	3 127 2
	addq	$48, %rsp
	popq	%rbp
	retq
Ltmp9:
Lfunc_end1:
	.cfi_endproc

	.private_extern	__ZN3std2rt10lang_start17he26746951839c4ccE
	.globl	__ZN3std2rt10lang_start17he26746951839c4ccE
	.p2align	4, 0x90
__ZN3std2rt10lang_start17he26746951839c4ccE:
Lfunc_begin2:
	.file	5 "/rustc/2c8cc343237b8f7d5a3c3703e3a87f2eb2c54a74/library/std/src" "rt.rs"
	.loc	5 159 0
	.cfi_startproc
	pushq	%rbp
	.cfi_def_cfa_offset 16
	.cfi_offset %rbp, -16
	movq	%rsp, %rbp
	.cfi_def_cfa_register %rbp
	subq	$64, %rsp
	movl	%ecx, %eax
	movq	%rdx, %rcx
	movq	%rsi, %rdx
	movq	%rdi, -40(%rbp)
	movq	%rdx, -32(%rbp)
	movq	%rcx, -24(%rbp)
	movb	%al, -9(%rbp)
Ltmp10:
	.loc	5 166 10 prologue_end
	movq	%rdi, -48(%rbp)
	.loc	5 165 17
	leaq	-48(%rbp), %rdi
	leaq	l___unnamed_1(%rip), %rsi
	movzbl	%al, %r8d
	callq	__ZN3std2rt19lang_start_internal17h72dc55d09e0a2397E
	movq	%rax, -56(%rbp)
	.loc	5 165 12 is_stmt 0
	movq	-56(%rbp), %rax
	movq	%rax, -8(%rbp)
	.loc	5 172 2 is_stmt 1
	addq	$64, %rsp
	popq	%rbp
	retq
Ltmp11:
Lfunc_end2:
	.cfi_endproc

	.p2align	4, 0x90
__ZN3std2rt10lang_start28_$u7b$$u7b$closure$u7d$$u7d$17h99fe6b66b856f2e1E:
Lfunc_begin3:
	.loc	5 166 0
	.cfi_startproc
	pushq	%rbp
	.cfi_def_cfa_offset 16
	.cfi_offset %rbp, -16
	movq	%rsp, %rbp
	.cfi_def_cfa_register %rbp
	subq	$32, %rsp
	movq	%rdi, -16(%rbp)
Ltmp12:
	.loc	5 166 77 prologue_end
	movq	(%rdi), %rdi
	.loc	5 166 18 is_stmt 0
	callq	__ZN3std10sys_common9backtrace28__rust_begin_short_backtrace17h92cdf6193d0b87e3E
	callq	__ZN54_$LT$$LP$$RP$$u20$as$u20$std..process..Termination$GT$6report17h05a222e6601b8f6cE
	movb	%al, -17(%rbp)
Ltmp13:
	.file	6 "/rustc/2c8cc343237b8f7d5a3c3703e3a87f2eb2c54a74/library/std/src" "process.rs"
	.loc	6 1820 9 is_stmt 1
	leaq	-17(%rbp), %rax
	movq	%rax, -8(%rbp)
Ltmp14:
	.file	7 "/rustc/2c8cc343237b8f7d5a3c3703e3a87f2eb2c54a74/library/std/src/sys/unix/process" "process_common.rs"
	.loc	7 594 9
	movzbl	-17(%rbp), %eax
Ltmp15:
	.loc	5 166 100
	addq	$32, %rsp
	popq	%rbp
	retq
Ltmp16:
Lfunc_end3:
	.cfi_endproc

	.p2align	4, 0x90
__ZN3std3env3var17he3c748e95c1b5b69E:
Lfunc_begin4:
	.file	8 "/rustc/2c8cc343237b8f7d5a3c3703e3a87f2eb2c54a74/library/std/src" "env.rs"
	.loc	8 227 0
	.cfi_startproc
	.cfi_personality 155, _rust_eh_personality
	.cfi_lsda 16, Lexception0
	pushq	%rbp
	.cfi_def_cfa_offset 16
	.cfi_offset %rbp, -16
	movq	%rsp, %rbp
	.cfi_def_cfa_register %rbp
	subq	$64, %rsp
	movq	%rdi, -64(%rbp)
	movq	%rdi, -56(%rbp)
	movq	%rsi, -32(%rbp)
	movq	%rdx, -24(%rbp)
Ltmp17:
	leaq	-32(%rbp), %rdi
Ltmp22:
	.loc	8 228 10 prologue_end
	callq	__ZN55_$LT$$RF$T$u20$as$u20$core..convert..AsRef$LT$U$GT$$GT$6as_ref17hb6b6908f48620db3E
Ltmp18:
	movq	%rdx, -48(%rbp)
	movq	%rax, -40(%rbp)
	jmp	LBB4_3
LBB4_1:
	.loc	8 227 1
	movq	-16(%rbp), %rdi
	callq	__Unwind_Resume
LBB4_2:
Ltmp21:
	.loc	8 0 1 is_stmt 0
	movq	%rax, %rcx
	movl	%edx, %eax
	movq	%rcx, -16(%rbp)
	movl	%eax, -8(%rbp)
	jmp	LBB4_1
LBB4_3:
Ltmp19:
	movq	-48(%rbp), %rdx
	movq	-40(%rbp), %rsi
	movq	-64(%rbp), %rdi
	.loc	8 228 5 is_stmt 1
	callq	__ZN3std3env4_var17h3981769605209d03E
Ltmp20:
	jmp	LBB4_4
LBB4_4:
	.loc	8 0 5 is_stmt 0
	movq	-56(%rbp), %rax
	.loc	8 229 2 is_stmt 1
	addq	$64, %rsp
	popq	%rbp
	retq
Ltmp23:
Lfunc_end4:
	.cfi_endproc
	.section	__TEXT,__gcc_except_tab
	.p2align	2
GCC_except_table4:
Lexception0:
	.byte	255
	.byte	255
	.byte	1
	.uleb128 Lcst_end0-Lcst_begin0
Lcst_begin0:
	.uleb128 Ltmp17-Lfunc_begin4
	.uleb128 Ltmp18-Ltmp17
	.uleb128 Ltmp21-Lfunc_begin4
	.byte	0
	.uleb128 Ltmp18-Lfunc_begin4
	.uleb128 Ltmp19-Ltmp18
	.byte	0
	.byte	0
	.uleb128 Ltmp19-Lfunc_begin4
	.uleb128 Ltmp20-Ltmp19
	.uleb128 Ltmp21-Lfunc_begin4
	.byte	0
Lcst_end0:
	.p2align	2

	.section	__TEXT,__text,regular,pure_instructions
	.p2align	4, 0x90
__ZN3std3ffi6os_str85_$LT$impl$u20$core..convert..AsRef$LT$std..ffi..os_str..OsStr$GT$$u20$for$u20$str$GT$6as_ref17h108d741c12959d2cE:
Lfunc_begin5:
	.file	9 "/rustc/2c8cc343237b8f7d5a3c3703e3a87f2eb2c54a74/library/std/src/ffi" "os_str.rs"
	.loc	9 1321 0
	.cfi_startproc
	pushq	%rbp
	.cfi_def_cfa_offset 16
	.cfi_offset %rbp, -16
	movq	%rsp, %rbp
	.cfi_def_cfa_register %rbp
	subq	$112, %rsp
	movq	%rdi, -112(%rbp)
	movq	%rsi, -104(%rbp)
Ltmp24:
	.loc	9 1322 43 prologue_end
	movq	%rdi, -96(%rbp)
	movq	%rsi, -88(%rbp)
Ltmp25:
	.file	10 "/rustc/2c8cc343237b8f7d5a3c3703e3a87f2eb2c54a74/library/std/src/sys/unix" "os_str.rs"
	.loc	10 201 30
	movq	%rdi, -80(%rbp)
	movq	%rsi, -72(%rbp)
Ltmp26:
	.file	11 "/rustc/2c8cc343237b8f7d5a3c3703e3a87f2eb2c54a74/library/core/src/str" "mod.rs"
	.loc	11 327 18
	movq	%rdi, -64(%rbp)
	movq	%rsi, -56(%rbp)
	movq	-64(%rbp), %rcx
	movq	-56(%rbp), %rax
Ltmp27:
	.loc	10 201 30
	movq	%rcx, -48(%rbp)
	movq	%rax, -40(%rbp)
Ltmp28:
	.loc	10 196 18
	movq	%rcx, -32(%rbp)
	movq	%rax, -24(%rbp)
	movq	-32(%rbp), %rax
	movq	-24(%rbp), %rdx
Ltmp29:
	.loc	9 1322 27
	movq	%rax, -16(%rbp)
	movq	%rdx, -8(%rbp)
	.loc	9 1323 6
	addq	$112, %rsp
	popq	%rbp
	retq
Ltmp30:
Lfunc_end5:
	.cfi_endproc

	.p2align	4, 0x90
__ZN44_$LT$$RF$T$u20$as$u20$core..fmt..Display$GT$3fmt17h31e3dd2bf9957a93E:
Lfunc_begin6:
	.file	12 "/rustc/2c8cc343237b8f7d5a3c3703e3a87f2eb2c54a74/library/core/src/fmt" "mod.rs"
	.loc	12 2377 0
	.cfi_startproc
	pushq	%rbp
	.cfi_def_cfa_offset 16
	.cfi_offset %rbp, -16
	movq	%rsp, %rbp
	.cfi_def_cfa_register %rbp
	subq	$16, %rsp
	movq	%rsi, %rdx
	movq	%rdi, %rax
	movq	%rax, -16(%rbp)
	movq	%rdx, -8(%rbp)
Ltmp31:
	.loc	12 2377 71 prologue_end
	movq	(%rax), %rdi
	movq	8(%rax), %rsi
	.loc	12 2377 62 is_stmt 0
	callq	__ZN42_$LT$str$u20$as$u20$core..fmt..Display$GT$3fmt17hd1cabce055ea2fbdE
	.loc	12 2377 84
	andb	$1, %al
	movzbl	%al, %eax
	addq	$16, %rsp
	popq	%rbp
	retq
Ltmp32:
Lfunc_end6:
	.cfi_endproc

	.p2align	4, 0x90
__ZN4core3cmp5impls69_$LT$impl$u20$core..cmp..PartialEq$LT$$RF$B$GT$$u20$for$u20$$RF$A$GT$2eq17hd21354890342f043E:
Lfunc_begin7:
	.file	13 "/rustc/2c8cc343237b8f7d5a3c3703e3a87f2eb2c54a74/library/core/src" "cmp.rs"
	.loc	13 1530 0 is_stmt 1
	.cfi_startproc
	pushq	%rbp
	.cfi_def_cfa_offset 16
	.cfi_offset %rbp, -16
	movq	%rsp, %rbp
	.cfi_def_cfa_register %rbp
	subq	$16, %rsp
	movq	%rsi, %rax
	movq	%rdi, %rcx
	movq	%rcx, -16(%rbp)
	movq	%rax, -8(%rbp)
Ltmp33:
	.loc	13 1531 27 prologue_end
	movq	(%rcx), %rdi
	movq	8(%rcx), %rsi
	.loc	13 1531 34 is_stmt 0
	movq	(%rax), %rdx
	movq	8(%rax), %rcx
	.loc	13 1531 13
	callq	__ZN4core3str6traits54_$LT$impl$u20$core..cmp..PartialEq$u20$for$u20$str$GT$2eq17hf364834d6df89586E
	.loc	13 1532 10 is_stmt 1
	andb	$1, %al
	movzbl	%al, %eax
	addq	$16, %rsp
	popq	%rbp
	retq
Ltmp34:
Lfunc_end7:
	.cfi_endproc

	.p2align	4, 0x90
__ZN4core3fmt10ArgumentV111new_display17h2c7c64641c307defE:
Lfunc_begin8:
	.loc	12 327 0
	.cfi_startproc
	pushq	%rbp
	.cfi_def_cfa_offset 16
	.cfi_offset %rbp, -16
	movq	%rsp, %rbp
	.cfi_def_cfa_register %rbp
	subq	$56, %rsp
	movq	%rdi, -40(%rbp)
Ltmp35:
	.loc	12 328 23 prologue_end
	movq	%rdi, -32(%rbp)
	.loc	12 328 26 is_stmt 0
	movq	__ZN57_$LT$std..env..VarError$u20$as$u20$core..fmt..Display$GT$3fmt17hff1ea9f5c9d28420E@GOTPCREL(%rip), %rax
	movq	%rax, -24(%rbp)
Ltmp36:
	.loc	12 347 42 is_stmt 1
	movq	%rax, -16(%rbp)
	movq	-16(%rbp), %rax
	.loc	12 347 68 is_stmt 0
	movq	%rdi, -8(%rbp)
	movq	-8(%rbp), %rcx
	.loc	12 347 18
	movq	%rcx, -56(%rbp)
	movq	%rax, -48(%rbp)
Ltmp37:
	.loc	12 329 10 is_stmt 1
	movq	-56(%rbp), %rax
	movq	-48(%rbp), %rdx
	addq	$56, %rsp
	popq	%rbp
	retq
Ltmp38:
Lfunc_end8:
	.cfi_endproc

	.p2align	4, 0x90
__ZN4core3fmt10ArgumentV111new_display17h7a804fa4b80ef8c9E:
Lfunc_begin9:
	.loc	12 327 0
	.cfi_startproc
	pushq	%rbp
	.cfi_def_cfa_offset 16
	.cfi_offset %rbp, -16
	movq	%rsp, %rbp
	.cfi_def_cfa_register %rbp
	subq	$56, %rsp
	movq	%rdi, -40(%rbp)
Ltmp39:
	.loc	12 328 23 prologue_end
	movq	%rdi, -32(%rbp)
	.loc	12 328 26 is_stmt 0
	leaq	__ZN44_$LT$$RF$T$u20$as$u20$core..fmt..Display$GT$3fmt17h31e3dd2bf9957a93E(%rip), %rax
	movq	%rax, -24(%rbp)
Ltmp40:
	.loc	12 347 42 is_stmt 1
	movq	%rax, -16(%rbp)
	movq	-16(%rbp), %rax
	.loc	12 347 68 is_stmt 0
	movq	%rdi, -8(%rbp)
	movq	-8(%rbp), %rcx
	.loc	12 347 18
	movq	%rcx, -56(%rbp)
	movq	%rax, -48(%rbp)
Ltmp41:
	.loc	12 329 10 is_stmt 1
	movq	-56(%rbp), %rax
	movq	-48(%rbp), %rdx
	addq	$56, %rsp
	popq	%rbp
	retq
Ltmp42:
Lfunc_end9:
	.cfi_endproc

	.p2align	4, 0x90
__ZN4core3fmt9Arguments6new_v117h0944953af7e51c36E:
Lfunc_begin10:
	.loc	12 399 0
	.cfi_startproc
	pushq	%rbp
	.cfi_def_cfa_offset 16
	.cfi_offset %rbp, -16
	movq	%rsp, %rbp
	.cfi_def_cfa_register %rbp
	subq	$160, %rsp
	movq	%r8, -152(%rbp)
	movq	%rcx, -144(%rbp)
	movq	%rdx, -136(%rbp)
	movq	%rsi, -128(%rbp)
	movq	%rdi, -120(%rbp)
	movq	%rdi, -112(%rbp)
	movq	%rsi, -32(%rbp)
	movq	%rdx, -24(%rbp)
	movq	%rcx, -16(%rbp)
	movq	%r8, -8(%rbp)
Ltmp43:
	.loc	12 400 12 prologue_end
	cmpq	%r8, %rdx
	jb	LBB10_2
	.loc	12 0 12 is_stmt 0
	movq	-136(%rbp), %rax
	movq	-152(%rbp), %rcx
	.loc	12 400 56
	addq	$1, %rcx
	.loc	12 400 41
	cmpq	%rcx, %rax
	seta	%al
	.loc	12 400 12
	andb	$1, %al
	movb	%al, -97(%rbp)
	jmp	LBB10_3
LBB10_2:
	movb	$1, -97(%rbp)
LBB10_3:
	testb	$1, -97(%rbp)
	jne	LBB10_5
	.loc	12 0 12
	movq	-112(%rbp), %rax
	movq	-120(%rbp), %rcx
	movq	-152(%rbp), %rdx
	movq	-144(%rbp), %rsi
	movq	-136(%rbp), %rdi
	movq	-128(%rbp), %r8
	.loc	12 403 34 is_stmt 1
	movq	$0, -48(%rbp)
	.loc	12 403 9 is_stmt 0
	movq	%r8, 16(%rcx)
	movq	%rdi, 24(%rcx)
	movq	-48(%rbp), %r8
	movq	-40(%rbp), %rdi
	movq	%r8, (%rcx)
	movq	%rdi, 8(%rcx)
	movq	%rsi, 32(%rcx)
	movq	%rdx, 40(%rcx)
	.loc	12 404 6 is_stmt 1
	addq	$160, %rsp
	popq	%rbp
	retq
LBB10_5:
	.loc	12 401 13
	leaq	l___unnamed_2(%rip), %rsi
	leaq	l___unnamed_3(%rip), %rcx
	xorl	%eax, %eax
	movl	%eax, %r8d
	leaq	-96(%rbp), %rdi
	movq	%rdi, -160(%rbp)
	movl	$1, %edx
	callq	__ZN4core3fmt9Arguments6new_v117h0944953af7e51c36E
	movq	-160(%rbp), %rdi
	leaq	l___unnamed_4(%rip), %rsi
	callq	__ZN4core9panicking9panic_fmt17h9b5d807e24bcaaedE
Ltmp44:
Lfunc_end10:
	.cfi_endproc

	.p2align	4, 0x90
__ZN4core3ops8function6FnOnce40call_once$u7b$$u7b$vtable.shim$u7d$$u7d$17hc7d7d61b844fe3afE:
Lfunc_begin11:
	.file	14 "/rustc/2c8cc343237b8f7d5a3c3703e3a87f2eb2c54a74/library/core/src/ops" "function.rs"
	.loc	14 250 0
	.cfi_startproc
	pushq	%rbp
	.cfi_def_cfa_offset 16
	.cfi_offset %rbp, -16
	movq	%rsp, %rbp
	.cfi_def_cfa_register %rbp
	subq	$16, %rsp
	movq	%rdi, -8(%rbp)
Ltmp45:
	.loc	14 250 5 prologue_end
	movq	(%rdi), %rdi
	callq	__ZN4core3ops8function6FnOnce9call_once17h93e01cd7ba960fd9E
	addq	$16, %rsp
	popq	%rbp
	retq
Ltmp46:
Lfunc_end11:
	.cfi_endproc

	.p2align	4, 0x90
__ZN4core3ops8function6FnOnce9call_once17h93e01cd7ba960fd9E:
Lfunc_begin12:
	.loc	14 250 0
	.cfi_startproc
	.cfi_personality 155, _rust_eh_personality
	.cfi_lsda 16, Lexception1
	pushq	%rbp
	.cfi_def_cfa_offset 16
	.cfi_offset %rbp, -16
	movq	%rsp, %rbp
	.cfi_def_cfa_register %rbp
	subq	$48, %rsp
	movq	%rdi, -32(%rbp)
Ltmp47:
	leaq	-32(%rbp), %rdi
Ltmp50:
	.loc	14 250 5 prologue_end
	callq	__ZN3std2rt10lang_start28_$u7b$$u7b$closure$u7d$$u7d$17h99fe6b66b856f2e1E
Ltmp48:
	movl	%eax, -36(%rbp)
	jmp	LBB12_3
LBB12_1:
	movq	-16(%rbp), %rdi
	callq	__Unwind_Resume
LBB12_2:
Ltmp49:
	.loc	14 0 5 is_stmt 0
	movq	%rax, %rcx
	movl	%edx, %eax
	movq	%rcx, -16(%rbp)
	movl	%eax, -8(%rbp)
	jmp	LBB12_1
LBB12_3:
	movl	-36(%rbp), %eax
	.loc	14 250 5
	addq	$48, %rsp
	popq	%rbp
	retq
Ltmp51:
Lfunc_end12:
	.cfi_endproc
	.section	__TEXT,__gcc_except_tab
	.p2align	2
GCC_except_table12:
Lexception1:
	.byte	255
	.byte	255
	.byte	1
	.uleb128 Lcst_end1-Lcst_begin1
Lcst_begin1:
	.uleb128 Ltmp47-Lfunc_begin12
	.uleb128 Ltmp48-Ltmp47
	.uleb128 Ltmp49-Lfunc_begin12
	.byte	0
	.uleb128 Ltmp48-Lfunc_begin12
	.uleb128 Lfunc_end12-Ltmp48
	.byte	0
	.byte	0
Lcst_end1:
	.p2align	2

	.section	__TEXT,__text,regular,pure_instructions
	.p2align	4, 0x90
__ZN4core3ops8function6FnOnce9call_once17hc39db8ebb8e2ba29E:
Lfunc_begin13:
	.loc	14 250 0 is_stmt 1
	.cfi_startproc
	pushq	%rbp
	.cfi_def_cfa_offset 16
	.cfi_offset %rbp, -16
	movq	%rsp, %rbp
	.cfi_def_cfa_register %rbp
	subq	$16, %rsp
	movq	%rdi, -8(%rbp)
Ltmp52:
	.loc	14 250 5 prologue_end
	callq	*%rdi
	addq	$16, %rsp
	popq	%rbp
	retq
Ltmp53:
Lfunc_end13:
	.cfi_endproc

	.p2align	4, 0x90
__ZN4core3ptr39drop_in_place$LT$std..env..VarError$GT$17hb5e9afdab6eef9afE:
Lfunc_begin14:
	.file	15 "/rustc/2c8cc343237b8f7d5a3c3703e3a87f2eb2c54a74/library/core/src/ptr" "mod.rs"
	.loc	15 490 0
	.cfi_startproc
	pushq	%rbp
	.cfi_def_cfa_offset 16
	.cfi_offset %rbp, -16
	movq	%rsp, %rbp
	.cfi_def_cfa_register %rbp
	subq	$16, %rsp
	movq	%rdi, -16(%rbp)
	movq	%rdi, -8(%rbp)
Ltmp54:
	.loc	15 490 1 prologue_end
	movq	8(%rdi), %rdx
	movl	$1, %eax
	xorl	%ecx, %ecx
	cmpq	$0, %rdx
	cmoveq	%rcx, %rax
	cmpq	$0, %rax
	jne	LBB14_2
LBB14_1:
	addq	$16, %rsp
	popq	%rbp
	retq
LBB14_2:
	.loc	15 0 1 is_stmt 0
	movq	-16(%rbp), %rdi
	.loc	15 490 1
	callq	__ZN4core3ptr47drop_in_place$LT$std..ffi..os_str..OsString$GT$17ha5f3df05d02a3715E
	jmp	LBB14_1
Ltmp55:
Lfunc_end14:
	.cfi_endproc

	.p2align	4, 0x90
__ZN4core3ptr42drop_in_place$LT$alloc..string..String$GT$17h9b63b8d8b758c8a1E:
Lfunc_begin15:
	.loc	15 490 0 is_stmt 1
	.cfi_startproc
	pushq	%rbp
	.cfi_def_cfa_offset 16
	.cfi_offset %rbp, -16
	movq	%rsp, %rbp
	.cfi_def_cfa_register %rbp
	subq	$16, %rsp
	movq	%rdi, -8(%rbp)
Ltmp56:
	.loc	15 490 1 prologue_end
	callq	__ZN4core3ptr46drop_in_place$LT$alloc..vec..Vec$LT$u8$GT$$GT$17hde22aeb17766a87bE
	addq	$16, %rsp
	popq	%rbp
	retq
Ltmp57:
Lfunc_end15:
	.cfi_endproc

	.p2align	4, 0x90
__ZN4core3ptr46drop_in_place$LT$alloc..vec..Vec$LT$u8$GT$$GT$17hde22aeb17766a87bE:
Lfunc_begin16:
	.loc	15 490 0
	.cfi_startproc
	.cfi_personality 155, _rust_eh_personality
	.cfi_lsda 16, Lexception2
	pushq	%rbp
	.cfi_def_cfa_offset 16
	.cfi_offset %rbp, -16
	movq	%rsp, %rbp
	.cfi_def_cfa_register %rbp
	subq	$32, %rsp
	movq	%rdi, -32(%rbp)
	movq	%rdi, -24(%rbp)
Ltmp58:
Ltmp64:
	.loc	15 490 1 prologue_end
	callq	__ZN70_$LT$alloc..vec..Vec$LT$T$C$A$GT$$u20$as$u20$core..ops..drop..Drop$GT$4drop17h8a7dcd99e937062fE
Ltmp59:
	jmp	LBB16_3
LBB16_1:
Ltmp61:
	.loc	15 0 1 is_stmt 0
	movq	-32(%rbp), %rdi
	.loc	15 490 1
	callq	__ZN4core3ptr53drop_in_place$LT$alloc..raw_vec..RawVec$LT$u8$GT$$GT$17h7957c4b385749dc6E
Ltmp62:
	jmp	LBB16_5
LBB16_2:
Ltmp60:
	.loc	15 0 1
	movq	%rax, %rcx
	movl	%edx, %eax
	movq	%rcx, -16(%rbp)
	movl	%eax, -8(%rbp)
	jmp	LBB16_1
LBB16_3:
	movq	-32(%rbp), %rdi
	.loc	15 490 1
	callq	__ZN4core3ptr53drop_in_place$LT$alloc..raw_vec..RawVec$LT$u8$GT$$GT$17h7957c4b385749dc6E
	addq	$32, %rsp
	popq	%rbp
	retq
LBB16_4:
Ltmp63:
	callq	__ZN4core9panicking19panic_cannot_unwind17h1fbca7e1d7f56ae1E
LBB16_5:
	movq	-16(%rbp), %rdi
	callq	__Unwind_Resume
Ltmp65:
Lfunc_end16:
	.cfi_endproc
	.section	__TEXT,__gcc_except_tab
	.p2align	2
GCC_except_table16:
Lexception2:
	.byte	255
	.byte	255
	.byte	1
	.uleb128 Lcst_end2-Lcst_begin2
Lcst_begin2:
	.uleb128 Ltmp58-Lfunc_begin16
	.uleb128 Ltmp59-Ltmp58
	.uleb128 Ltmp60-Lfunc_begin16
	.byte	0
	.uleb128 Ltmp61-Lfunc_begin16
	.uleb128 Ltmp62-Ltmp61
	.uleb128 Ltmp63-Lfunc_begin16
	.byte	0
	.uleb128 Ltmp62-Lfunc_begin16
	.uleb128 Lfunc_end16-Ltmp62
	.byte	0
	.byte	0
Lcst_end2:
	.p2align	2

	.section	__TEXT,__text,regular,pure_instructions
	.p2align	4, 0x90
__ZN4core3ptr47drop_in_place$LT$std..ffi..os_str..OsString$GT$17ha5f3df05d02a3715E:
Lfunc_begin17:
	.loc	15 490 0 is_stmt 1
	.cfi_startproc
	pushq	%rbp
	.cfi_def_cfa_offset 16
	.cfi_offset %rbp, -16
	movq	%rsp, %rbp
	.cfi_def_cfa_register %rbp
	subq	$16, %rsp
	movq	%rdi, -8(%rbp)
Ltmp66:
	.loc	15 490 1 prologue_end
	callq	__ZN4core3ptr48drop_in_place$LT$std..sys..unix..os_str..Buf$GT$17h9a1abe1c78bed6d3E
	addq	$16, %rsp
	popq	%rbp
	retq
Ltmp67:
Lfunc_end17:
	.cfi_endproc

	.p2align	4, 0x90
__ZN4core3ptr48drop_in_place$LT$std..sys..unix..os_str..Buf$GT$17h9a1abe1c78bed6d3E:
Lfunc_begin18:
	.loc	15 490 0
	.cfi_startproc
	pushq	%rbp
	.cfi_def_cfa_offset 16
	.cfi_offset %rbp, -16
	movq	%rsp, %rbp
	.cfi_def_cfa_register %rbp
	subq	$16, %rsp
	movq	%rdi, -8(%rbp)
Ltmp68:
	.loc	15 490 1 prologue_end
	callq	__ZN4core3ptr46drop_in_place$LT$alloc..vec..Vec$LT$u8$GT$$GT$17hde22aeb17766a87bE
	addq	$16, %rsp
	popq	%rbp
	retq
Ltmp69:
Lfunc_end18:
	.cfi_endproc

	.p2align	4, 0x90
__ZN4core3ptr53drop_in_place$LT$alloc..raw_vec..RawVec$LT$u8$GT$$GT$17h7957c4b385749dc6E:
Lfunc_begin19:
	.loc	15 490 0
	.cfi_startproc
	pushq	%rbp
	.cfi_def_cfa_offset 16
	.cfi_offset %rbp, -16
	movq	%rsp, %rbp
	.cfi_def_cfa_register %rbp
	subq	$16, %rsp
	movq	%rdi, -8(%rbp)
Ltmp70:
	.loc	15 490 1 prologue_end
	callq	__ZN77_$LT$alloc..raw_vec..RawVec$LT$T$C$A$GT$$u20$as$u20$core..ops..drop..Drop$GT$4drop17hcf1755236dbad8edE
	addq	$16, %rsp
	popq	%rbp
	retq
Ltmp71:
Lfunc_end19:
	.cfi_endproc

	.p2align	4, 0x90
__ZN4core3ptr85drop_in_place$LT$std..rt..lang_start$LT$$LP$$RP$$GT$..$u7b$$u7b$closure$u7d$$u7d$$GT$17ha3fedc12f3de4a38E:
Lfunc_begin20:
	.loc	15 490 0
	.cfi_startproc
	pushq	%rbp
	.cfi_def_cfa_offset 16
	.cfi_offset %rbp, -16
	movq	%rsp, %rbp
	.cfi_def_cfa_register %rbp
	pushq	%rax
	movq	%rdi, -8(%rbp)
Ltmp72:
	.loc	15 490 1 prologue_end
	addq	$8, %rsp
	popq	%rbp
	retq
Ltmp73:
Lfunc_end20:
	.cfi_endproc

	.p2align	4, 0x90
__ZN4core3str6traits54_$LT$impl$u20$core..cmp..PartialEq$u20$for$u20$str$GT$2eq17hf364834d6df89586E:
Lfunc_begin21:
	.file	16 "/rustc/2c8cc343237b8f7d5a3c3703e3a87f2eb2c54a74/library/core/src/str" "traits.rs"
	.loc	16 28 0
	.cfi_startproc
	pushq	%rbp
	.cfi_def_cfa_offset 16
	.cfi_offset %rbp, -16
	movq	%rsp, %rbp
	.cfi_def_cfa_register %rbp
	subq	$112, %rsp
	movq	%rdi, -80(%rbp)
	movq	%rsi, -72(%rbp)
	movq	%rdx, -64(%rbp)
	movq	%rcx, -56(%rbp)
Ltmp74:
	.loc	16 29 9 prologue_end
	movq	%rdi, -48(%rbp)
	movq	%rsi, -40(%rbp)
Ltmp75:
	.loc	11 327 18
	movq	%rdi, -112(%rbp)
	movq	%rsi, -104(%rbp)
Ltmp76:
	.loc	16 29 9
	leaq	-112(%rbp), %rax
	movq	%rax, -32(%rbp)
	.loc	16 29 28 is_stmt 0
	movq	%rdx, -24(%rbp)
	movq	%rcx, -16(%rbp)
Ltmp77:
	.loc	11 327 18 is_stmt 1
	movq	%rdx, -96(%rbp)
	movq	%rcx, -88(%rbp)
Ltmp78:
	.loc	16 29 28
	leaq	-96(%rbp), %rax
	movq	%rax, -8(%rbp)
Ltmp79:
	.loc	13 1531 27
	movq	-112(%rbp), %rdi
	movq	-104(%rbp), %rsi
	.loc	13 1531 34 is_stmt 0
	movq	-96(%rbp), %rdx
	movq	-88(%rbp), %rcx
	.loc	13 1531 13
	callq	__ZN4core5slice3cmp81_$LT$impl$u20$core..cmp..PartialEq$LT$$u5b$B$u5d$$GT$$u20$for$u20$$u5b$A$u5d$$GT$2eq17hffd8f296ebc5be5aE
Ltmp80:
	.loc	16 30 6 is_stmt 1
	andb	$1, %al
	movzbl	%al, %eax
	addq	$112, %rsp
	popq	%rbp
	retq
Ltmp81:
Lfunc_end21:
	.cfi_endproc

	.p2align	4, 0x90
__ZN4core4hint21unreachable_unchecked17h21db44f25eff3efcE:
Lfunc_begin22:
	.loc	4 100 0
	.cfi_startproc
	pushq	%rbp
	.cfi_def_cfa_offset 16
	.cfi_offset %rbp, -16
	movq	%rsp, %rbp
	.cfi_def_cfa_register %rbp
Ltmp82:
	.loc	4 104 9 prologue_end
	ud2
Ltmp83:
Lfunc_end22:
	.cfi_endproc

	.p2align	4, 0x90
__ZN4core5alloc6layout6Layout5array5inner17h414d4d7dc200bee5E:
Lfunc_begin23:
	.file	17 "/rustc/2c8cc343237b8f7d5a3c3703e3a87f2eb2c54a74/library/core/src/alloc" "layout.rs"
	.loc	17 441 0
	.cfi_startproc
	pushq	%rbp
	.cfi_def_cfa_offset 16
	.cfi_offset %rbp, -16
	movq	%rsp, %rbp
	.cfi_def_cfa_register %rbp
	subq	$176, %rsp
	movq	%rdi, -168(%rbp)
	movq	%rsi, -160(%rbp)
	movq	%rdx, -152(%rbp)
	movq	%rdi, -88(%rbp)
	movq	%rsi, -80(%rbp)
	movq	%rdx, -72(%rbp)
Ltmp84:
	.loc	17 452 16 prologue_end
	cmpq	$0, %rdi
	jne	LBB23_2
	movb	$0, -121(%rbp)
	jmp	LBB23_5
LBB23_2:
	.loc	17 0 16 is_stmt 0
	movq	-168(%rbp), %rax
	movq	-160(%rbp), %rcx
	.loc	17 452 68
	movq	%rcx, -64(%rbp)
Ltmp85:
	.loc	17 93 32 is_stmt 1
	movq	%rcx, -56(%rbp)
Ltmp86:
	.file	18 "/rustc/2c8cc343237b8f7d5a3c3703e3a87f2eb2c54a74/library/core/src/ptr" "alignment.rs"
	.loc	18 97 9
	movq	%rcx, -104(%rbp)
	movq	-104(%rbp), %rdx
Ltmp87:
	.loc	17 93 31
	subq	$1, %rdx
	.loc	17 93 9 is_stmt 0
	movabsq	$9223372036854775807, %rcx
	subq	%rdx, %rcx
	movq	%rcx, -176(%rbp)
Ltmp88:
	.loc	17 452 41 is_stmt 1
	cmpq	$0, %rax
	sete	%al
	testb	$1, %al
	jne	LBB23_4
	.loc	17 0 41 is_stmt 0
	movq	-168(%rbp), %rcx
	movq	-176(%rbp), %rax
	.loc	17 452 41
	xorl	%edx, %edx
	divq	%rcx
	movq	%rax, %rcx
	movq	-152(%rbp), %rax
	.loc	17 452 37
	cmpq	%rcx, %rax
	seta	%al
	.loc	17 452 16
	andb	$1, %al
	movb	%al, -121(%rbp)
	jmp	LBB23_5
LBB23_4:
	.loc	17 452 41
	leaq	_str.0(%rip), %rdi
	leaq	l___unnamed_5(%rip), %rdx
	movl	$25, %esi
	callq	__ZN4core9panicking5panic17hc1bc45270cf64b03E
LBB23_5:
	.loc	17 452 16
	testb	$1, -121(%rbp)
	jne	LBB23_7
	.loc	17 0 16
	movq	-160(%rbp), %rax
	movq	-152(%rbp), %rdx
	movq	-168(%rbp), %rcx
	.loc	17 456 30 is_stmt 1
	imulq	%rdx, %rcx
	movq	%rcx, -48(%rbp)
Ltmp89:
	.loc	17 461 59
	movq	%rcx, -40(%rbp)
	.loc	17 461 71 is_stmt 0
	movq	%rax, -32(%rbp)
Ltmp90:
	.loc	18 97 9 is_stmt 1
	movq	%rax, -96(%rbp)
	movq	-96(%rbp), %rax
	movq	%rax, -24(%rbp)
Ltmp91:
	.loc	17 120 65
	movq	%rax, -16(%rbp)
Ltmp92:
	.loc	18 89 18
	movq	%rax, -8(%rbp)
	movq	-8(%rbp), %rax
Ltmp93:
	.loc	17 120 18
	movq	%rcx, -120(%rbp)
	movq	%rax, -112(%rbp)
Ltmp94:
	.loc	17 461 22
	movq	-120(%rbp), %rcx
	movq	-112(%rbp), %rax
	movq	%rcx, -144(%rbp)
	movq	%rax, -136(%rbp)
Ltmp95:
	.loc	17 462 10
	jmp	LBB23_8
LBB23_7:
	.loc	17 453 24
	movq	$0, -136(%rbp)
LBB23_8:
	.loc	17 462 10
	movq	-144(%rbp), %rax
	movq	-136(%rbp), %rdx
	addq	$176, %rsp
	popq	%rbp
	retq
Ltmp96:
Lfunc_end23:
	.cfi_endproc

	.p2align	4, 0x90
__ZN4core5slice29_$LT$impl$u20$$u5b$T$u5d$$GT$8contains17hb1971f89aad98fa6E:
Lfunc_begin24:
	.file	19 "/rustc/2c8cc343237b8f7d5a3c3703e3a87f2eb2c54a74/library/core/src/slice" "mod.rs"
	.loc	19 2228 0
	.cfi_startproc
	pushq	%rbp
	.cfi_def_cfa_offset 16
	.cfi_offset %rbp, -16
	movq	%rsp, %rbp
	.cfi_def_cfa_register %rbp
	subq	$32, %rsp
	movq	%rdx, -32(%rbp)
	movq	%rsi, %rdx
	movq	%rdi, %rsi
	movq	-32(%rbp), %rdi
	movq	%rsi, -24(%rbp)
	movq	%rdx, -16(%rbp)
	movq	%rdi, -8(%rbp)
Ltmp97:
	.loc	19 2232 9 prologue_end
	callq	__ZN53_$LT$T$u20$as$u20$core..slice..cmp..SliceContains$GT$14slice_contains17h36a3eb92a9f24999E
	.loc	19 2233 6
	andb	$1, %al
	movzbl	%al, %eax
	addq	$32, %rsp
	popq	%rbp
	retq
Ltmp98:
Lfunc_end24:
	.cfi_endproc

	.p2align	4, 0x90
__ZN4core5slice3cmp81_$LT$impl$u20$core..cmp..PartialEq$LT$$u5b$B$u5d$$GT$$u20$for$u20$$u5b$A$u5d$$GT$2eq17hffd8f296ebc5be5aE:
Lfunc_begin25:
	.file	20 "/rustc/2c8cc343237b8f7d5a3c3703e3a87f2eb2c54a74/library/core/src/slice" "cmp.rs"
	.loc	20 25 0
	.cfi_startproc
	pushq	%rbp
	.cfi_def_cfa_offset 16
	.cfi_offset %rbp, -16
	movq	%rsp, %rbp
	.cfi_def_cfa_register %rbp
	subq	$32, %rsp
	movq	%rdi, -32(%rbp)
	movq	%rsi, -24(%rbp)
	movq	%rdx, -16(%rbp)
	movq	%rcx, -8(%rbp)
Ltmp99:
	.loc	20 26 9 prologue_end
	callq	__ZN73_$LT$$u5b$A$u5d$$u20$as$u20$core..slice..cmp..SlicePartialEq$LT$B$GT$$GT$5equal17h2c151525e022430eE
	.loc	20 27 6
	andb	$1, %al
	movzbl	%al, %eax
	addq	$32, %rsp
	popq	%rbp
	retq
Ltmp100:
Lfunc_end25:
	.cfi_endproc

	.p2align	4, 0x90
__ZN4core5slice4iter13Iter$LT$T$GT$3new17h8fd192fcaa2149e7E:
Lfunc_begin26:
	.file	21 "/rustc/2c8cc343237b8f7d5a3c3703e3a87f2eb2c54a74/library/core/src/slice" "iter.rs"
	.loc	21 82 0
	.cfi_startproc
	pushq	%rbp
	.cfi_def_cfa_offset 16
	.cfi_offset %rbp, -16
	movq	%rsp, %rbp
	.cfi_def_cfa_register %rbp
	subq	$280, %rsp
	movq	%rdi, -280(%rbp)
	movq	%rsi, -272(%rbp)
	movq	%rdi, -208(%rbp)
	movq	%rsi, -200(%rbp)
Ltmp101:
	.loc	21 83 19 prologue_end
	movq	%rdi, -184(%rbp)
	movq	%rsi, -176(%rbp)
Ltmp102:
	.loc	19 477 9
	movq	%rdi, -168(%rbp)
Ltmp103:
	.loc	21 86 21
	movq	%rdi, -160(%rbp)
Ltmp104:
	.file	22 "/rustc/2c8cc343237b8f7d5a3c3703e3a87f2eb2c54a74/library/core/src/ptr" "const_ptr.rs"
	.loc	22 53 36
	movq	%rdi, -232(%rbp)
	.loc	22 53 18 is_stmt 0
	movq	-232(%rbp), %rax
	movq	%rax, -152(%rbp)
Ltmp105:
	.loc	22 39 13 is_stmt 1
	movq	%rax, -144(%rbp)
Ltmp106:
	.loc	22 209 33
	movq	%rax, -136(%rbp)
	.loc	22 209 18 is_stmt 0
	movq	%rax, -128(%rbp)
Ltmp107:
	.loc	21 89 20 is_stmt 1
	xorl	%eax, %eax
	testb	$1, %al
	jne	LBB26_2
	.loc	21 0 20 is_stmt 0
	movq	-280(%rbp), %rax
	movq	-272(%rbp), %rcx
	.loc	21 89 76
	movq	%rax, -40(%rbp)
	.loc	21 89 84
	movq	%rcx, -32(%rbp)
Ltmp108:
	.loc	22 932 18 is_stmt 1
	movq	%rax, -24(%rbp)
	.loc	22 932 30 is_stmt 0
	movq	%rcx, -16(%rbp)
Ltmp109:
	.loc	22 473 18 is_stmt 1
	shlq	$4, %rcx
	addq	%rcx, %rax
	movq	%rax, -248(%rbp)
Ltmp110:
	.loc	21 89 17
	jmp	LBB26_3
LBB26_2:
	.loc	21 0 17 is_stmt 0
	movq	-272(%rbp), %rcx
	movq	-280(%rbp), %rax
	.loc	21 89 32
	movq	%rax, -120(%rbp)
	.loc	21 89 54
	movq	%rcx, -112(%rbp)
Ltmp111:
	.loc	22 1118 9 is_stmt 1
	movq	%rax, -104(%rbp)
Ltmp112:
	.loc	22 61 9
	movq	%rax, -96(%rbp)
Ltmp113:
	.loc	22 1118 40
	movq	%rcx, -88(%rbp)
Ltmp114:
	.loc	22 1100 9
	movq	%rax, -80(%rbp)
	.loc	22 1100 30 is_stmt 0
	movq	%rcx, -72(%rbp)
Ltmp115:
	.loc	22 555 18 is_stmt 1
	addq	%rcx, %rax
	movq	%rax, -64(%rbp)
	movq	-64(%rbp), %rax
	movq	%rax, -56(%rbp)
Ltmp116:
	.loc	22 100 29
	movq	%rax, -48(%rbp)
Ltmp117:
	.file	23 "/rustc/2c8cc343237b8f7d5a3c3703e3a87f2eb2c54a74/library/core/src/ptr" "metadata.rs"
	.loc	23 118 36
	movq	%rax, -216(%rbp)
	.loc	23 118 14 is_stmt 0
	movq	-216(%rbp), %rax
	movq	%rax, -224(%rbp)
	movq	-224(%rbp), %rax
	movq	%rax, -248(%rbp)
Ltmp118:
LBB26_3:
	.loc	23 0 14
	movq	-280(%rbp), %rax
Ltmp119:
	.loc	21 91 48 is_stmt 1
	movq	%rax, -8(%rbp)
Ltmp120:
	.loc	1 201 13
	movq	%rax, -240(%rbp)
Ltmp121:
	.loc	21 91 64
	movq	-248(%rbp), %rax
	.loc	21 91 13 is_stmt 0
	movq	-240(%rbp), %rcx
	movq	%rcx, -256(%rbp)
	movq	%rax, -264(%rbp)
Ltmp122:
	.loc	21 93 6 is_stmt 1
	movq	-264(%rbp), %rax
	movq	-256(%rbp), %rdx
	addq	$280, %rsp
	popq	%rbp
	retq
Ltmp123:
Lfunc_end26:
	.cfi_endproc

	.p2align	4, 0x90
__ZN4core6result19Result$LT$T$C$E$GT$16unwrap_unchecked17h1618c72bf3e2168bE:
Lfunc_begin27:
	.file	24 "/rustc/2c8cc343237b8f7d5a3c3703e3a87f2eb2c54a74/library/core/src" "result.rs"
	.loc	24 1530 0
	.cfi_startproc
	.cfi_personality 155, _rust_eh_personality
	.cfi_lsda 16, Lexception3
	pushq	%rbp
	.cfi_def_cfa_offset 16
	.cfi_offset %rbp, -16
	movq	%rsp, %rbp
	.cfi_def_cfa_register %rbp
	subq	$64, %rsp
	movq	%rdi, -48(%rbp)
	movq	%rsi, -40(%rbp)
Ltmp127:
	.loc	24 1532 15 prologue_end
	xorl	%eax, %eax
	movl	$1, %ecx
	cmpq	$0, -40(%rbp)
	cmoveq	%rcx, %rax
	.loc	24 1532 9 is_stmt 0
	cmpq	$0, %rax
	jne	LBB27_2
	.loc	24 1533 16 is_stmt 1
	movq	-48(%rbp), %rcx
	movq	%rcx, -64(%rbp)
	movq	-40(%rbp), %rax
	movq	%rax, -56(%rbp)
	movq	%rcx, -16(%rbp)
	movq	%rax, -8(%rbp)
	.loc	24 1537 5
	xorl	%eax, %eax
	movl	$1, %ecx
	cmpq	$0, -40(%rbp)
	cmoveq	%rcx, %rax
	cmpq	$0, %rax
	je	LBB27_10
	jmp	LBB27_11
LBB27_2:
Ltmp124:
	.loc	24 1535 32
	callq	__ZN4core4hint21unreachable_unchecked17h21db44f25eff3efcE
Ltmp125:
	jmp	LBB27_5
LBB27_3:
	.loc	24 1537 5
	xorl	%eax, %eax
	movl	$1, %ecx
	cmpq	$0, -40(%rbp)
	cmoveq	%rcx, %rax
	cmpq	$0, %rax
	je	LBB27_6
	jmp	LBB27_7
LBB27_4:
Ltmp126:
	.loc	24 0 5 is_stmt 0
	movq	%rax, %rcx
	movl	%edx, %eax
	movq	%rcx, -32(%rbp)
	movl	%eax, -24(%rbp)
	jmp	LBB27_3
LBB27_5:
	ud2
LBB27_6:
	.loc	24 1537 5
	movb	$1, %al
	testb	$1, %al
	jne	LBB27_9
	jmp	LBB27_8
LBB27_7:
	jmp	LBB27_8
LBB27_8:
	.loc	24 1530 5 is_stmt 1
	movq	-32(%rbp), %rdi
	callq	__Unwind_Resume
LBB27_9:
	.loc	24 1537 5
	jmp	LBB27_8
LBB27_10:
	.loc	24 0 5 is_stmt 0
	movq	-56(%rbp), %rdx
	movq	-64(%rbp), %rax
	.loc	24 1537 6
	addq	$64, %rsp
	popq	%rbp
	retq
LBB27_11:
	.loc	24 1537 5
	jmp	LBB27_10
Ltmp128:
Lfunc_end27:
	.cfi_endproc
	.section	__TEXT,__gcc_except_tab
	.p2align	2
GCC_except_table27:
Lexception3:
	.byte	255
	.byte	255
	.byte	1
	.uleb128 Lcst_end3-Lcst_begin3
Lcst_begin3:
	.uleb128 Ltmp124-Lfunc_begin27
	.uleb128 Ltmp125-Ltmp124
	.uleb128 Ltmp126-Lfunc_begin27
	.byte	0
	.uleb128 Ltmp125-Lfunc_begin27
	.uleb128 Lfunc_end27-Ltmp125
	.byte	0
	.byte	0
Lcst_end3:
	.p2align	2

	.section	__TEXT,__text,regular,pure_instructions
	.p2align	4, 0x90
__ZN50_$LT$T$u20$as$u20$core..convert..Into$LT$U$GT$$GT$4into17he3099a4d2c034542E:
Lfunc_begin28:
	.file	25 "/rustc/2c8cc343237b8f7d5a3c3703e3a87f2eb2c54a74/library/core/src/convert" "mod.rs"
	.loc	25 725 0 is_stmt 1
	.cfi_startproc
	pushq	%rbp
	.cfi_def_cfa_offset 16
	.cfi_offset %rbp, -16
	movq	%rsp, %rbp
	.cfi_def_cfa_register %rbp
	subq	$16, %rsp
	movq	%rdi, -8(%rbp)
Ltmp129:
	.loc	25 726 9 prologue_end
	callq	__ZN119_$LT$core..ptr..non_null..NonNull$LT$T$GT$$u20$as$u20$core..convert..From$LT$core..ptr..unique..Unique$LT$T$GT$$GT$$GT$4from17h43b4118f792c66a7E
	.loc	25 727 6
	addq	$16, %rsp
	popq	%rbp
	retq
Ltmp130:
Lfunc_end28:
	.cfi_endproc

	.p2align	4, 0x90
__ZN53_$LT$T$u20$as$u20$core..slice..cmp..SliceContains$GT$14slice_contains17h36a3eb92a9f24999E:
Lfunc_begin29:
	.loc	20 237 0
	.cfi_startproc
	pushq	%rbp
	.cfi_def_cfa_offset 16
	.cfi_offset %rbp, -16
	movq	%rsp, %rbp
	.cfi_def_cfa_register %rbp
	subq	$96, %rsp
	movq	%rdx, -88(%rbp)
	movq	%rsi, %rax
	movq	-88(%rbp), %rsi
	movq	%rax, -80(%rbp)
	movq	%rdi, %rax
	movq	-80(%rbp), %rdi
	movq	%rax, -72(%rbp)
	movq	%rax, -40(%rbp)
	movq	%rdi, -32(%rbp)
	movq	%rsi, -24(%rbp)
Ltmp131:
	.loc	20 238 9 prologue_end
	movq	%rdi, -16(%rbp)
	movq	%rsi, -8(%rbp)
Ltmp132:
	.loc	19 742 9
	callq	__ZN4core5slice4iter13Iter$LT$T$GT$3new17h8fd192fcaa2149e7E
	movq	-72(%rbp), %rdi
	movq	%rdx, -56(%rbp)
	movq	%rax, -64(%rbp)
Ltmp133:
	.loc	20 238 22
	movq	%rdi, -48(%rbp)
	.loc	20 238 9 is_stmt 0
	movq	-48(%rbp), %rsi
	leaq	-64(%rbp), %rdi
	callq	__ZN91_$LT$core..slice..iter..Iter$LT$T$GT$$u20$as$u20$core..iter..traits..iterator..Iterator$GT$3any17hf9bceb4b51ed887fE
	.loc	20 239 6 is_stmt 1
	andb	$1, %al
	movzbl	%al, %eax
	addq	$96, %rsp
	popq	%rbp
	retq
Ltmp134:
Lfunc_end29:
	.cfi_endproc

	.p2align	4, 0x90
__ZN53_$LT$T$u20$as$u20$core..slice..cmp..SliceContains$GT$14slice_contains28_$u7b$$u7b$closure$u7d$$u7d$17hba7b018c8797024fE:
Lfunc_begin30:
	.loc	20 238 0
	.cfi_startproc
	pushq	%rbp
	.cfi_def_cfa_offset 16
	.cfi_offset %rbp, -16
	movq	%rsp, %rbp
	.cfi_def_cfa_register %rbp
	subq	$32, %rsp
	movq	%rsi, -24(%rbp)
	movq	%rdi, %rax
	movq	-24(%rbp), %rdi
	movq	%rax, -16(%rbp)
	movq	%rdi, -8(%rbp)
Ltmp135:
	.loc	20 238 32 prologue_end
	movq	(%rax), %rsi
	.loc	20 238 26 is_stmt 0
	callq	__ZN4core3cmp5impls69_$LT$impl$u20$core..cmp..PartialEq$LT$$RF$B$GT$$u20$for$u20$$RF$A$GT$2eq17hd21354890342f043E
	.loc	20 238 37
	andb	$1, %al
	movzbl	%al, %eax
	addq	$32, %rsp
	popq	%rbp
	retq
Ltmp136:
Lfunc_end30:
	.cfi_endproc

	.p2align	4, 0x90
__ZN54_$LT$$LP$$RP$$u20$as$u20$std..process..Termination$GT$6report17h05a222e6601b8f6cE:
Lfunc_begin31:
	.loc	6 2182 0 is_stmt 1
	.cfi_startproc
	pushq	%rbp
	.cfi_def_cfa_offset 16
	.cfi_offset %rbp, -16
	movq	%rsp, %rbp
	.cfi_def_cfa_register %rbp
	pushq	%rax
Ltmp137:
	.loc	6 2184 6 prologue_end
	xorl	%eax, %eax
	addq	$8, %rsp
	popq	%rbp
	retq
Ltmp138:
Lfunc_end31:
	.cfi_endproc

	.p2align	4, 0x90
__ZN55_$LT$$RF$T$u20$as$u20$core..convert..AsRef$LT$U$GT$$GT$6as_ref17hb6b6908f48620db3E:
Lfunc_begin32:
	.loc	25 667 0
	.cfi_startproc
	pushq	%rbp
	.cfi_def_cfa_offset 16
	.cfi_offset %rbp, -16
	movq	%rsp, %rbp
	.cfi_def_cfa_register %rbp
	subq	$16, %rsp
	movq	%rdi, %rax
	movq	%rax, -8(%rbp)
Ltmp139:
	.loc	25 668 33 prologue_end
	movq	(%rax), %rdi
	movq	8(%rax), %rsi
	.loc	25 668 9 is_stmt 0
	callq	__ZN3std3ffi6os_str85_$LT$impl$u20$core..convert..AsRef$LT$std..ffi..os_str..OsStr$GT$$u20$for$u20$str$GT$6as_ref17h108d741c12959d2cE
	.loc	25 669 6 is_stmt 1
	addq	$16, %rsp
	popq	%rbp
	retq
Ltmp140:
Lfunc_end32:
	.cfi_endproc

	.p2align	4, 0x90
__ZN5alloc7raw_vec19RawVec$LT$T$C$A$GT$14current_memory17h4c7726f37200b195E:
Lfunc_begin33:
	.file	26 "/rustc/2c8cc343237b8f7d5a3c3703e3a87f2eb2c54a74/library/alloc/src" "raw_vec.rs"
	.loc	26 240 0
	.cfi_startproc
	pushq	%rbp
	.cfi_def_cfa_offset 16
	.cfi_offset %rbp, -16
	movq	%rsp, %rbp
	.cfi_def_cfa_register %rbp
	subq	$176, %rsp
	movq	%rsi, -152(%rbp)
	movq	%rdi, -144(%rbp)
	movq	%rdi, -136(%rbp)
	movq	%rsi, -80(%rbp)
Ltmp141:
	.loc	26 241 12 prologue_end
	xorl	%eax, %eax
	testb	$1, %al
	jne	LBB33_2
	.loc	26 0 12 is_stmt 0
	movq	-152(%rbp), %rax
	.loc	26 241 25
	cmpq	$0, (%rax)
	sete	%al
	.loc	26 241 12
	andb	$1, %al
	movb	%al, -121(%rbp)
	jmp	LBB33_3
LBB33_2:
	movb	$1, -121(%rbp)
LBB33_3:
	testb	$1, -121(%rbp)
	jne	LBB33_5
	.loc	26 0 12
	movq	-152(%rbp), %rax
	.loc	26 247 49 is_stmt 1
	movq	(%rax), %rdx
	movq	%rdx, -72(%rbp)
Ltmp142:
	.file	27 "/rustc/2c8cc343237b8f7d5a3c3703e3a87f2eb2c54a74/library/core/src/mem" "mod.rs"
	.loc	27 459 5
	movq	$1, -64(%rbp)
Ltmp143:
	.loc	18 89 18
	movq	$1, -56(%rbp)
	movq	-56(%rbp), %rsi
Ltmp144:
	.loc	17 438 16
	movl	$1, %edi
	callq	__ZN4core5alloc6layout6Layout5array5inner17h414d4d7dc200bee5E
	movq	%rax, %rdi
	movq	%rdx, %rsi
Ltmp145:
	.loc	26 247 30
	leaq	l___unnamed_6(%rip), %rdx
	callq	__ZN4core6result19Result$LT$T$C$E$GT$16unwrap_unchecked17h1618c72bf3e2168bE
	movq	%rax, %rcx
	movq	-152(%rbp), %rax
	movq	%rcx, -168(%rbp)
	movq	%rdx, -160(%rbp)
	movq	%rcx, -48(%rbp)
	movq	%rdx, -40(%rbp)
Ltmp146:
	.loc	26 248 23
	movq	8(%rax), %rax
	movq	%rax, -32(%rbp)
Ltmp147:
	.loc	2 137 22
	movq	%rax, -24(%rbp)
Ltmp148:
	.loc	1 450 41
	movq	%rax, -16(%rbp)
	movq	%rax, -8(%rbp)
Ltmp149:
	.loc	1 201 13
	movq	%rax, -88(%rbp)
Ltmp150:
	.loc	2 191 18
	movq	-88(%rbp), %rax
	.loc	2 191 9 is_stmt 0
	movq	%rax, -96(%rbp)
Ltmp151:
	.loc	26 248 23 is_stmt 1
	movq	-96(%rbp), %rdi
	callq	__ZN50_$LT$T$u20$as$u20$core..convert..Into$LT$U$GT$$GT$4into17he3099a4d2c034542E
	movq	-168(%rbp), %rcx
	movq	-160(%rbp), %rdx
	movq	%rax, %rsi
	movq	-144(%rbp), %rax
	.loc	26 248 22 is_stmt 0
	movq	%rsi, -120(%rbp)
	movq	%rcx, -112(%rbp)
	movq	%rdx, -104(%rbp)
	.loc	26 248 17
	movq	-120(%rbp), %rcx
	movq	%rcx, (%rax)
	movq	-112(%rbp), %rcx
	movq	%rcx, 8(%rax)
	movq	-104(%rbp), %rcx
	movq	%rcx, 16(%rax)
Ltmp152:
	.loc	26 241 9 is_stmt 1
	jmp	LBB33_6
LBB33_5:
	.loc	26 0 9 is_stmt 0
	movq	-144(%rbp), %rax
	.loc	26 242 13 is_stmt 1
	movq	$0, 16(%rax)
LBB33_6:
	.loc	26 0 13 is_stmt 0
	movq	-136(%rbp), %rax
	.loc	26 251 6 is_stmt 1
	addq	$176, %rsp
	popq	%rbp
	retq
Ltmp153:
Lfunc_end33:
	.cfi_endproc

	.p2align	4, 0x90
__ZN63_$LT$alloc..alloc..Global$u20$as$u20$core..alloc..Allocator$GT$10deallocate17h67bc5e2a7e2aa144E:
Lfunc_begin34:
	.file	28 "/rustc/2c8cc343237b8f7d5a3c3703e3a87f2eb2c54a74/library/alloc/src" "alloc.rs"
	.loc	28 246 0
	.cfi_startproc
	pushq	%rbp
	.cfi_def_cfa_offset 16
	.cfi_offset %rbp, -16
	movq	%rsp, %rbp
	.cfi_def_cfa_register %rbp
	subq	$112, %rsp
	movq	%rsi, -112(%rbp)
	movq	%rdx, -104(%rbp)
	movq	%rcx, -96(%rbp)
	movq	%rdi, -64(%rbp)
	movq	%rsi, -56(%rbp)
Ltmp154:
	.loc	28 247 12 prologue_end
	leaq	-104(%rbp), %rax
	movq	%rax, -48(%rbp)
	cmpq	$0, -104(%rbp)
	jne	LBB34_2
	.loc	28 247 9 is_stmt 0
	jmp	LBB34_3
LBB34_2:
	.loc	28 0 9
	movq	-112(%rbp), %rdi
	.loc	28 250 30 is_stmt 1
	movq	%rdi, -40(%rbp)
Ltmp155:
	.loc	1 326 9
	movq	%rdi, -32(%rbp)
Ltmp156:
	.loc	28 250 44
	movq	-104(%rbp), %rcx
	movq	-96(%rbp), %rax
	movq	%rcx, -88(%rbp)
	movq	%rax, -80(%rbp)
Ltmp157:
	.loc	28 113 34
	leaq	-88(%rbp), %rax
	movq	%rax, -24(%rbp)
Ltmp158:
	.loc	17 129 9
	movq	-88(%rbp), %rsi
Ltmp159:
	.loc	28 113 49
	leaq	-88(%rbp), %rax
	movq	%rax, -16(%rbp)
Ltmp160:
	.loc	17 140 9
	movq	-80(%rbp), %rax
	movq	%rax, -8(%rbp)
Ltmp161:
	.loc	18 97 9
	movq	%rax, -72(%rbp)
	movq	-72(%rbp), %rdx
Ltmp162:
	.loc	28 113 14
	callq	___rust_dealloc
Ltmp163:
LBB34_3:
	.loc	28 252 6
	addq	$112, %rsp
	popq	%rbp
	retq
Ltmp164:
Lfunc_end34:
	.cfi_endproc

	.p2align	4, 0x90
__ZN65_$LT$alloc..string..String$u20$as$u20$core..ops..deref..Deref$GT$5deref17h0d456f7a4fea27b3E:
Lfunc_begin35:
	.file	29 "/rustc/2c8cc343237b8f7d5a3c3703e3a87f2eb2c54a74/library/alloc/src" "string.rs"
	.loc	29 2459 0
	.cfi_startproc
	pushq	%rbp
	.cfi_def_cfa_offset 16
	.cfi_offset %rbp, -16
	movq	%rsp, %rbp
	.cfi_def_cfa_register %rbp
	subq	$48, %rsp
	movq	%rdi, -40(%rbp)
Ltmp165:
	.loc	29 2460 43 prologue_end
	callq	__ZN72_$LT$alloc..vec..Vec$LT$T$C$A$GT$$u20$as$u20$core..ops..deref..Deref$GT$5deref17h406c9d90b7c6c3ecE
	movq	%rax, -32(%rbp)
	movq	%rdx, -24(%rbp)
Ltmp166:
	.file	30 "/rustc/2c8cc343237b8f7d5a3c3703e3a87f2eb2c54a74/library/core/src/str" "converts.rs"
	.loc	30 173 14
	movq	%rax, -16(%rbp)
	movq	%rdx, -8(%rbp)
	movq	-16(%rbp), %rax
	movq	-8(%rbp), %rdx
Ltmp167:
	.loc	29 2461 6
	addq	$48, %rsp
	popq	%rbp
	retq
Ltmp168:
Lfunc_end35:
	.cfi_endproc

	.p2align	4, 0x90
__ZN70_$LT$alloc..vec..Vec$LT$T$C$A$GT$$u20$as$u20$core..ops..drop..Drop$GT$4drop17h8a7dcd99e937062fE:
Lfunc_begin36:
	.file	31 "/rustc/2c8cc343237b8f7d5a3c3703e3a87f2eb2c54a74/library/alloc/src/vec" "mod.rs"
	.loc	31 3054 0
	.cfi_startproc
	pushq	%rbp
	.cfi_def_cfa_offset 16
	.cfi_offset %rbp, -16
	movq	%rsp, %rbp
	.cfi_def_cfa_register %rbp
	subq	$160, %rsp
	movq	%rdi, -120(%rbp)
Ltmp169:
	.loc	31 3059 62 prologue_end
	movq	%rdi, -112(%rbp)
Ltmp170:
	.loc	31 1280 19
	movq	%rdi, -104(%rbp)
Ltmp171:
	.loc	26 224 9
	movq	8(%rdi), %rcx
	movq	%rcx, -96(%rbp)
Ltmp172:
	.loc	2 104 9
	movq	%rcx, -88(%rbp)
Ltmp173:
	.loc	1 326 9
	movq	%rcx, -80(%rbp)
Ltmp174:
	.loc	31 1282 21
	movq	%rcx, -72(%rbp)
Ltmp175:
	.file	32 "/rustc/2c8cc343237b8f7d5a3c3703e3a87f2eb2c54a74/library/core/src/ptr" "mut_ptr.rs"
	.loc	32 52 36
	movq	%rcx, -160(%rbp)
	.loc	32 52 18 is_stmt 0
	movq	-160(%rbp), %rax
	movq	%rax, -64(%rbp)
Ltmp176:
	.loc	32 38 13 is_stmt 1
	movq	%rax, -56(%rbp)
Ltmp177:
	.loc	32 215 33
	movq	%rax, -48(%rbp)
	.loc	32 215 18 is_stmt 0
	movq	%rax, -40(%rbp)
Ltmp178:
	.loc	31 3059 81 is_stmt 1
	movq	16(%rdi), %rax
	movq	%rax, -32(%rbp)
Ltmp179:
	.loc	15 766 24
	movq	%rcx, -24(%rbp)
Ltmp180:
	.loc	32 60 9
	movq	%rcx, -16(%rbp)
Ltmp181:
	.loc	15 766 37
	movq	%rax, -8(%rbp)
Ltmp182:
	.loc	23 135 36
	movq	%rcx, -136(%rbp)
	movq	%rax, -128(%rbp)
	.loc	23 135 14 is_stmt 0
	movq	-136(%rbp), %rcx
	movq	-128(%rbp), %rax
	movq	%rcx, -152(%rbp)
	movq	%rax, -144(%rbp)
Ltmp183:
	.loc	31 3062 6 is_stmt 1
	addq	$160, %rsp
	popq	%rbp
	retq
Ltmp184:
Lfunc_end36:
	.cfi_endproc

	.p2align	4, 0x90
__ZN72_$LT$alloc..vec..Vec$LT$T$C$A$GT$$u20$as$u20$core..ops..deref..Deref$GT$5deref17h406c9d90b7c6c3ecE:
Lfunc_begin37:
	.loc	31 2636 0
	.cfi_startproc
	pushq	%rbp
	.cfi_def_cfa_offset 16
	.cfi_offset %rbp, -16
	movq	%rsp, %rbp
	.cfi_def_cfa_register %rbp
	subq	$184, %rsp
	movq	%rdi, -144(%rbp)
Ltmp185:
	.loc	31 2637 40 prologue_end
	movq	%rdi, -136(%rbp)
Ltmp186:
	.loc	31 1243 19
	movq	%rdi, -128(%rbp)
Ltmp187:
	.loc	26 224 9
	movq	8(%rdi), %rcx
	movq	%rcx, -120(%rbp)
Ltmp188:
	.loc	2 104 9
	movq	%rcx, -112(%rbp)
Ltmp189:
	.loc	1 326 9
	movq	%rcx, -104(%rbp)
Ltmp190:
	.loc	31 1245 21
	movq	%rcx, -96(%rbp)
Ltmp191:
	.loc	32 52 36
	movq	%rcx, -184(%rbp)
	.loc	32 52 18 is_stmt 0
	movq	-184(%rbp), %rax
	movq	%rax, -88(%rbp)
Ltmp192:
	.loc	32 38 13 is_stmt 1
	movq	%rax, -80(%rbp)
Ltmp193:
	.loc	32 215 33
	movq	%rax, -72(%rbp)
	.loc	32 215 18 is_stmt 0
	movq	%rax, -64(%rbp)
Ltmp194:
	.loc	31 1247 9 is_stmt 1
	movq	%rcx, -56(%rbp)
Ltmp195:
	.loc	31 2637 55
	movq	16(%rdi), %rax
	movq	%rax, -48(%rbp)
Ltmp196:
	.file	33 "/rustc/2c8cc343237b8f7d5a3c3703e3a87f2eb2c54a74/library/core/src/slice" "raw.rs"
	.loc	33 100 37
	movq	%rcx, -40(%rbp)
	.loc	33 100 43 is_stmt 0
	movq	%rax, -32(%rbp)
Ltmp197:
	.loc	15 734 20 is_stmt 1
	movq	%rcx, -24(%rbp)
Ltmp198:
	.loc	22 61 9
	movq	%rcx, -16(%rbp)
Ltmp199:
	.loc	15 734 33
	movq	%rax, -8(%rbp)
Ltmp200:
	.loc	23 118 36
	movq	%rcx, -160(%rbp)
	movq	%rax, -152(%rbp)
	.loc	23 118 14 is_stmt 0
	movq	-160(%rbp), %rcx
	movq	-152(%rbp), %rax
	movq	%rcx, -176(%rbp)
	movq	%rax, -168(%rbp)
	movq	-176(%rbp), %rax
	movq	-168(%rbp), %rdx
Ltmp201:
	.loc	31 2638 6 is_stmt 1
	addq	$184, %rsp
	popq	%rbp
	retq
Ltmp202:
Lfunc_end37:
	.cfi_endproc

	.p2align	4, 0x90
__ZN73_$LT$$u5b$A$u5d$$u20$as$u20$core..slice..cmp..SlicePartialEq$LT$B$GT$$GT$5equal17h2c151525e022430eE:
Lfunc_begin38:
	.loc	20 82 0
	.cfi_startproc
	pushq	%rbp
	.cfi_def_cfa_offset 16
	.cfi_offset %rbp, -16
	movq	%rsp, %rbp
	.cfi_def_cfa_register %rbp
	subq	$144, %rsp
	movq	%rdi, -136(%rbp)
	movq	%rsi, -128(%rbp)
	movq	%rdx, -120(%rbp)
	movq	%rcx, -112(%rbp)
	movq	%rdi, -96(%rbp)
	movq	%rsi, -88(%rbp)
	movq	%rdx, -80(%rbp)
	movq	%rcx, -72(%rbp)
Ltmp203:
	.loc	20 83 12 prologue_end
	cmpq	%rcx, %rsi
	jne	LBB38_2
	.loc	20 0 12 is_stmt 0
	movq	-120(%rbp), %rsi
	movq	-136(%rbp), %rdi
	movq	-112(%rbp), %rax
	movq	-128(%rbp), %rcx
	.loc	20 90 41 is_stmt 1
	movq	%rdi, -64(%rbp)
	movq	%rcx, -56(%rbp)
Ltmp204:
	.loc	27 338 14
	movq	%rcx, %rdx
	shlq	$0, %rdx
	movq	%rdx, -48(%rbp)
	movq	-48(%rbp), %rdx
	movq	%rdx, -40(%rbp)
Ltmp205:
	.loc	20 91 20
	movq	%rdi, -32(%rbp)
	movq	%rcx, -24(%rbp)
	.loc	20 91 48 is_stmt 0
	movq	%rsi, -16(%rbp)
	movq	%rax, -8(%rbp)
	.loc	20 91 13
	callq	_memcmp
	cmpl	$0, %eax
	sete	%al
	andb	$1, %al
	movb	%al, -97(%rbp)
Ltmp206:
	.loc	20 93 6 is_stmt 1
	jmp	LBB38_3
LBB38_2:
	.loc	20 84 20
	movb	$0, -97(%rbp)
LBB38_3:
	.loc	20 93 6
	movb	-97(%rbp), %al
	andb	$1, %al
	movzbl	%al, %eax
	addq	$144, %rsp
	popq	%rbp
	retq
Ltmp207:
Lfunc_end38:
	.cfi_endproc

	.p2align	4, 0x90
__ZN77_$LT$alloc..raw_vec..RawVec$LT$T$C$A$GT$$u20$as$u20$core..ops..drop..Drop$GT$4drop17hcf1755236dbad8edE:
Lfunc_begin39:
	.loc	26 477 0
	.cfi_startproc
	pushq	%rbp
	.cfi_def_cfa_offset 16
	.cfi_offset %rbp, -16
	movq	%rsp, %rbp
	.cfi_def_cfa_register %rbp
	subq	$64, %rsp
	movq	%rdi, %rsi
	movq	%rsi, -64(%rbp)
	movq	%rsi, -32(%rbp)
Ltmp208:
	.loc	26 478 38 prologue_end
	leaq	-56(%rbp), %rdi
	callq	__ZN5alloc7raw_vec19RawVec$LT$T$C$A$GT$14current_memory17h4c7726f37200b195E
	.loc	26 478 16 is_stmt 0
	movl	$1, %eax
	xorl	%ecx, %ecx
	cmpq	$0, -40(%rbp)
	cmoveq	%rcx, %rax
	cmpq	$1, %rax
	jne	LBB39_2
	.loc	26 0 16
	movq	-64(%rbp), %rdi
	.loc	26 478 22
	movq	-56(%rbp), %rsi
	movq	%rsi, -24(%rbp)
	.loc	26 478 27
	movq	-48(%rbp), %rdx
	movq	-40(%rbp), %rcx
	movq	%rdx, -16(%rbp)
	movq	%rcx, -8(%rbp)
	.loc	26 479 22 is_stmt 1
	callq	__ZN63_$LT$alloc..alloc..Global$u20$as$u20$core..alloc..Allocator$GT$10deallocate17h67bc5e2a7e2aa144E
Ltmp209:
LBB39_2:
	.loc	26 481 6
	addq	$64, %rsp
	popq	%rbp
	retq
Ltmp210:
Lfunc_end39:
	.cfi_endproc

	.p2align	4, 0x90
__ZN91_$LT$core..slice..iter..Iter$LT$T$GT$$u20$as$u20$core..iter..traits..iterator..Iterator$GT$3any17hf9bceb4b51ed887fE:
Lfunc_begin40:
	.file	34 "/rustc/2c8cc343237b8f7d5a3c3703e3a87f2eb2c54a74/library/core/src/slice/iter" "macros.rs"
	.loc	34 226 0
	.cfi_startproc
	.cfi_personality 155, _rust_eh_personality
	.cfi_lsda 16, Lexception4
	pushq	%rbp
	.cfi_def_cfa_offset 16
	.cfi_offset %rbp, -16
	movq	%rsp, %rbp
	.cfi_def_cfa_register %rbp
	subq	$96, %rsp
	movq	%rdi, -72(%rbp)
	movq	%rsi, -64(%rbp)
	movq	%rdi, -32(%rbp)
LBB40_1:
Ltmp211:
	movq	-72(%rbp), %rdi
Ltmp216:
	.loc	34 231 37 prologue_end
	callq	__ZN91_$LT$core..slice..iter..Iter$LT$T$GT$$u20$as$u20$core..iter..traits..iterator..Iterator$GT$4next17h13859f45e7c484c3E
Ltmp212:
	movq	%rax, -80(%rbp)
	jmp	LBB40_4
Ltmp217:
LBB40_2:
	.loc	34 226 13
	movq	-24(%rbp), %rdi
	callq	__Unwind_Resume
LBB40_3:
Ltmp215:
	.loc	34 0 13 is_stmt 0
	movq	%rax, %rcx
	movl	%edx, %eax
	movq	%rcx, -24(%rbp)
	movl	%eax, -16(%rbp)
	jmp	LBB40_2
LBB40_4:
	movq	-80(%rbp), %rax
Ltmp218:
	.loc	34 231 37 is_stmt 1
	movq	%rax, -48(%rbp)
	.loc	34 231 27 is_stmt 0
	movq	-48(%rbp), %rdx
	movl	$1, %eax
	xorl	%ecx, %ecx
	cmpq	$0, %rdx
	cmoveq	%rcx, %rax
	cmpq	$1, %rax
	jne	LBB40_6
	.loc	34 231 32
	movq	-48(%rbp), %rax
	movq	%rax, -8(%rbp)
	.loc	34 232 24 is_stmt 1
	movq	%rax, -40(%rbp)
	movq	-40(%rbp), %rsi
Ltmp213:
	leaq	-64(%rbp), %rdi
	callq	__ZN53_$LT$T$u20$as$u20$core..slice..cmp..SliceContains$GT$14slice_contains28_$u7b$$u7b$closure$u7d$$u7d$17hba7b018c8797024fE
Ltmp214:
	movb	%al, -81(%rbp)
	jmp	LBB40_8
Ltmp219:
LBB40_6:
	.loc	34 236 17
	movb	$0, -49(%rbp)
LBB40_7:
	.loc	34 237 14
	movb	-49(%rbp), %al
	andb	$1, %al
	movzbl	%al, %eax
	addq	$96, %rsp
	popq	%rbp
	retq
LBB40_8:
	.loc	34 0 14 is_stmt 0
	movb	-81(%rbp), %al
Ltmp220:
	.loc	34 232 24 is_stmt 1
	testb	$1, %al
	jne	LBB40_10
	jmp	LBB40_9
Ltmp221:
LBB40_9:
	.loc	34 231 17
	jmp	LBB40_1
LBB40_10:
Ltmp222:
	.loc	34 233 32
	movb	$1, -49(%rbp)
Ltmp223:
	.loc	34 237 13
	jmp	LBB40_7
Ltmp224:
Lfunc_end40:
	.cfi_endproc
	.section	__TEXT,__gcc_except_tab
	.p2align	2
GCC_except_table40:
Lexception4:
	.byte	255
	.byte	255
	.byte	1
	.uleb128 Lcst_end4-Lcst_begin4
Lcst_begin4:
	.uleb128 Ltmp211-Lfunc_begin40
	.uleb128 Ltmp212-Ltmp211
	.uleb128 Ltmp215-Lfunc_begin40
	.byte	0
	.uleb128 Ltmp212-Lfunc_begin40
	.uleb128 Ltmp213-Ltmp212
	.byte	0
	.byte	0
	.uleb128 Ltmp213-Lfunc_begin40
	.uleb128 Ltmp214-Ltmp213
	.uleb128 Ltmp215-Lfunc_begin40
	.byte	0
Lcst_end4:
	.p2align	2

	.section	__TEXT,__text,regular,pure_instructions
	.p2align	4, 0x90
__ZN91_$LT$core..slice..iter..Iter$LT$T$GT$$u20$as$u20$core..iter..traits..iterator..Iterator$GT$4next17h13859f45e7c484c3E:
Lfunc_begin41:
	.loc	34 124 0
	.cfi_startproc
	pushq	%rbp
	.cfi_def_cfa_offset 16
	.cfi_offset %rbp, -16
	movq	%rsp, %rbp
	.cfi_def_cfa_register %rbp
	subq	$304, %rsp
	movq	%rdi, -304(%rbp)
	movq	%rdi, -240(%rbp)
Ltmp225:
	.loc	34 132 29 prologue_end
	movq	8(%rdi), %rax
	movq	%rax, -224(%rbp)
Ltmp226:
	.loc	1 326 9
	movq	%rax, -216(%rbp)
Ltmp227:
	.loc	32 52 36
	movq	%rax, -280(%rbp)
	.loc	32 52 18 is_stmt 0
	movq	-280(%rbp), %rax
	movq	%rax, -208(%rbp)
Ltmp228:
	.loc	32 38 13 is_stmt 1
	movq	%rax, -200(%rbp)
Ltmp229:
	.loc	32 215 33
	movq	%rax, -192(%rbp)
	.loc	32 215 18 is_stmt 0
	movq	%rax, -184(%rbp)
Ltmp230:
	.loc	34 133 24 is_stmt 1
	movb	$1, %al
	testb	$1, %al
	jne	LBB41_2
LBB41_1:
	.loc	34 0 24 is_stmt 0
	movq	-304(%rbp), %rcx
	.loc	34 136 24 is_stmt 1
	movq	8(%rcx), %rax
	movq	%rax, -136(%rbp)
	cmpq	(%rcx), %rax
	je	LBB41_4
	jmp	LBB41_3
LBB41_2:
	.loc	34 0 24 is_stmt 0
	movq	-304(%rbp), %rax
	.loc	34 134 33 is_stmt 1
	movq	(%rax), %rax
	movq	%rax, -176(%rbp)
Ltmp231:
	.loc	22 53 36
	movq	%rax, -272(%rbp)
	.loc	22 53 18 is_stmt 0
	movq	-272(%rbp), %rax
	movq	%rax, -168(%rbp)
Ltmp232:
	.loc	22 39 13 is_stmt 1
	movq	%rax, -160(%rbp)
Ltmp233:
	.loc	22 209 33
	movq	%rax, -152(%rbp)
	.loc	22 209 18 is_stmt 0
	movq	%rax, -144(%rbp)
Ltmp234:
	.loc	34 133 21 is_stmt 1
	jmp	LBB41_1
LBB41_3:
	.loc	34 0 21 is_stmt 0
	movq	-304(%rbp), %rax
	.loc	34 139 30 is_stmt 1
	movq	%rax, -128(%rbp)
Ltmp235:
	.loc	34 76 20
	xorl	%eax, %eax
	testb	$1, %al
	jne	LBB41_6
	jmp	LBB41_7
Ltmp236:
LBB41_4:
	.loc	34 137 25
	movq	$0, -296(%rbp)
LBB41_5:
	.loc	34 142 14
	movq	-296(%rbp), %rax
	addq	$304, %rsp
	popq	%rbp
	retq
LBB41_6:
	.loc	34 0 14 is_stmt 0
	movq	-304(%rbp), %rax
Ltmp237:
	.loc	34 57 29 is_stmt 1
	movq	(%rax), %rcx
	movq	%rcx, -64(%rbp)
Ltmp238:
	.loc	22 1198 9
	movq	%rcx, -56(%rbp)
Ltmp239:
	.loc	22 61 9
	movq	%rcx, -48(%rbp)
Ltmp240:
	.loc	22 1180 9
	movq	%rcx, -40(%rbp)
Ltmp241:
	.loc	22 555 18
	addq	$-1, %rcx
	movq	%rcx, -32(%rbp)
	movq	-32(%rbp), %rcx
	movq	%rcx, -24(%rbp)
Ltmp242:
	.loc	22 100 29
	movq	%rcx, -16(%rbp)
Ltmp243:
	.loc	23 118 36
	movq	%rcx, -248(%rbp)
	.loc	23 118 14 is_stmt 0
	movq	-248(%rbp), %rcx
	movq	%rcx, -256(%rbp)
	movq	-256(%rbp), %rcx
Ltmp244:
	.loc	34 57 17 is_stmt 1
	movq	%rcx, (%rax)
	.loc	34 78 21
	movq	8(%rax), %rax
	movq	%rax, -8(%rbp)
	movq	%rax, -288(%rbp)
	.loc	34 76 17
	jmp	LBB41_8
LBB41_7:
	.loc	34 0 17 is_stmt 0
	movq	-304(%rbp), %rcx
	.loc	34 80 31 is_stmt 1
	movq	8(%rcx), %rax
	movq	%rax, -120(%rbp)
Ltmp245:
	.loc	1 326 9
	movq	%rax, -112(%rbp)
Ltmp246:
	.loc	34 83 64
	movq	8(%rcx), %rdx
	movq	%rdx, -104(%rbp)
Ltmp247:
	.loc	1 326 9
	movq	%rdx, -96(%rbp)
Ltmp248:
	.loc	32 1034 18
	movq	%rdx, -88(%rbp)
Ltmp249:
	.loc	32 487 18
	addq	$16, %rdx
	movq	%rdx, -80(%rbp)
	movq	-80(%rbp), %rdx
	movq	%rdx, -72(%rbp)
Ltmp250:
	.loc	1 201 13
	movq	%rdx, -264(%rbp)
Ltmp251:
	.loc	34 83 21
	movq	-264(%rbp), %rdx
	movq	%rdx, 8(%rcx)
	.loc	34 84 21
	movq	%rax, -288(%rbp)
Ltmp252:
LBB41_8:
	.loc	34 139 30
	movq	-288(%rbp), %rax
	.loc	34 139 25 is_stmt 0
	movq	%rax, -296(%rbp)
	.loc	34 136 21 is_stmt 1
	jmp	LBB41_5
Ltmp253:
Lfunc_end41:
	.cfi_endproc

	.p2align	4, 0x90
__ZN18build_script_build4main17h1c75c15850878e79E:
Lfunc_begin42:
	.file	35 "/Users/natalie/.cargo/registry/src/github.com-1ecc6299db9ec823/futures-core-0.3.25" "build.rs"
	.loc	35 19 0
	.cfi_startproc
	.cfi_personality 155, _rust_eh_personality
	.cfi_lsda 16, Lexception5
	pushq	%rbp
	.cfi_def_cfa_offset 16
	.cfi_offset %rbp, -16
	movq	%rsp, %rbp
	.cfi_def_cfa_register %rbp
	subq	$400, %rsp
Ltmp281:
	.loc	35 20 24 prologue_end
	leaq	-288(%rbp), %rdi
	leaq	l___unnamed_7(%rip), %rsi
	movl	$6, %edx
	callq	__ZN3std3env3var17he3c748e95c1b5b69E
	.loc	35 20 18 is_stmt 0
	cmpq	$0, -288(%rbp)
	jne	LBB42_2
	.loc	35 21 12 is_stmt 1
	movq	-264(%rbp), %rax
	movq	%rax, -240(%rbp)
	movq	-280(%rbp), %rax
	movq	-272(%rbp), %rcx
	movq	%rcx, -248(%rbp)
	movq	%rax, -256(%rbp)
Ltmp282:
	.loc	35 21 23 is_stmt 0
	movq	-240(%rbp), %rax
	movq	%rax, -296(%rbp)
	movq	-256(%rbp), %rax
	movq	-248(%rbp), %rcx
	movq	%rcx, -304(%rbp)
	movq	%rax, -312(%rbp)
Ltmp283:
	.loc	35 36 8 is_stmt 1
	movq	l___unnamed_8(%rip), %rax
	movq	%rax, -344(%rbp)
	movq	l___unnamed_8+8(%rip), %rax
	movq	%rax, -336(%rbp)
Ltmp265:
	leaq	-312(%rbp), %rdi
	.loc	35 36 33 is_stmt 0
	callq	__ZN65_$LT$alloc..string..String$u20$as$u20$core..ops..deref..Deref$GT$5deref17h0d456f7a4fea27b3E
Ltmp266:
	movq	%rdx, -328(%rbp)
	movq	%rax, -320(%rbp)
	jmp	LBB42_14
Ltmp284:
LBB42_2:
	.loc	35 22 13 is_stmt 1
	movq	-264(%rbp), %rax
	movq	%rax, -216(%rbp)
	movq	-280(%rbp), %rax
	movq	-272(%rbp), %rcx
	movq	%rcx, -224(%rbp)
	movq	%rax, -232(%rbp)
Ltmp254:
Ltmp285:
	.loc	35 23 13
	leaq	l___unnamed_9(%rip), %rdi
	callq	__ZN4core3fmt10ArgumentV111new_display17h7a804fa4b80ef8c9E
Ltmp255:
	movq	%rdx, -360(%rbp)
	movq	%rax, -352(%rbp)
	jmp	LBB42_5
Ltmp286:
LBB42_3:
Ltmp263:
	.loc	35 0 13 is_stmt 0
	leaq	-232(%rbp), %rdi
	.loc	35 29 9 is_stmt 1
	callq	__ZN4core3ptr39drop_in_place$LT$std..env..VarError$GT$17hb5e9afdab6eef9afE
Ltmp264:
	jmp	LBB42_10
LBB42_4:
Ltmp262:
	.loc	35 0 9 is_stmt 0
	movq	%rax, %rcx
	movl	%edx, %eax
	movq	%rcx, -16(%rbp)
	movl	%eax, -8(%rbp)
	jmp	LBB42_3
LBB42_5:
	movq	-360(%rbp), %rax
	movq	-352(%rbp), %rcx
	movq	%rcx, -392(%rbp)
	movq	%rax, -384(%rbp)
Ltmp256:
	leaq	-232(%rbp), %rdi
Ltmp287:
	.loc	35 23 13 is_stmt 1
	callq	__ZN4core3fmt10ArgumentV111new_display17h2c7c64641c307defE
Ltmp257:
	movq	%rdx, -376(%rbp)
	movq	%rax, -368(%rbp)
	jmp	LBB42_6
LBB42_6:
	.loc	35 0 13 is_stmt 0
	movq	-376(%rbp), %rax
	movq	-368(%rbp), %rcx
	movq	-384(%rbp), %rdx
	movq	-392(%rbp), %rsi
	.loc	35 23 13
	movq	%rsi, -160(%rbp)
	movq	%rdx, -152(%rbp)
	movq	%rcx, -144(%rbp)
	movq	%rax, -136(%rbp)
Ltmp258:
	leaq	l___unnamed_10(%rip), %rsi
	leaq	-208(%rbp), %rdi
	movl	$3, %edx
	leaq	-160(%rbp), %rcx
	movl	$2, %r8d
	callq	__ZN4core3fmt9Arguments6new_v117h0944953af7e51c36E
Ltmp259:
	jmp	LBB42_7
LBB42_7:
Ltmp260:
	.loc	35 0 13
	leaq	-208(%rbp), %rdi
	.loc	35 23 13
	callq	__ZN3std2io5stdio6_print17ha0d536e53b83a5ccE
Ltmp261:
	jmp	LBB42_8
Ltmp288:
LBB42_8:
	.loc	35 29 9 is_stmt 1
	leaq	-232(%rbp), %rdi
	callq	__ZN4core3ptr39drop_in_place$LT$std..env..VarError$GT$17hb5e9afdab6eef9afE
	jmp	LBB42_11
LBB42_9:
Ltmp280:
	.loc	35 19 1
	callq	__ZN4core9panicking19panic_cannot_unwind17h1fbca7e1d7f56ae1E
LBB42_10:
	movq	-16(%rbp), %rdi
	callq	__Unwind_Resume
LBB42_11:
	.loc	35 41 2
	addq	$400, %rsp
	popq	%rbp
	retq
LBB42_12:
Ltmp278:
	.loc	35 0 2 is_stmt 0
	leaq	-312(%rbp), %rdi
	.loc	35 41 1
	callq	__ZN4core3ptr42drop_in_place$LT$alloc..string..String$GT$17h9b63b8d8b758c8a1E
Ltmp279:
	jmp	LBB42_10
LBB42_13:
Ltmp277:
	.loc	35 0 1
	movq	%rax, %rcx
	movl	%edx, %eax
	movq	%rcx, -16(%rbp)
	movl	%eax, -8(%rbp)
	jmp	LBB42_12
LBB42_14:
	movq	-336(%rbp), %rsi
	movq	-344(%rbp), %rdi
	movq	-328(%rbp), %rax
	movq	-320(%rbp), %rcx
Ltmp289:
	.loc	35 36 32 is_stmt 1
	movq	%rcx, -128(%rbp)
	movq	%rax, -120(%rbp)
Ltmp267:
	leaq	-128(%rbp), %rdx
	.loc	35 36 8 is_stmt 0
	callq	__ZN4core5slice29_$LT$impl$u20$$u5b$T$u5d$$GT$8contains17hb1971f89aad98fa6E
Ltmp268:
	movb	%al, -393(%rbp)
	jmp	LBB42_15
LBB42_15:
	.loc	35 0 8
	movb	-393(%rbp), %al
	.loc	35 36 8
	testb	$1, %al
	jne	LBB42_17
	jmp	LBB42_16
LBB42_16:
Ltmp273:
	.loc	35 40 5 is_stmt 1
	leaq	l___unnamed_11(%rip), %rsi
	leaq	l___unnamed_3(%rip), %rcx
	xorl	%eax, %eax
	movl	%eax, %r8d
	leaq	-64(%rbp), %rdi
	movl	$1, %edx
	callq	__ZN4core3fmt9Arguments6new_v117h0944953af7e51c36E
Ltmp274:
	jmp	LBB42_20
LBB42_17:
Ltmp269:
	.loc	35 37 9
	leaq	l___unnamed_12(%rip), %rsi
	leaq	l___unnamed_3(%rip), %rcx
	xorl	%eax, %eax
	movl	%eax, %r8d
	leaq	-112(%rbp), %rdi
	movl	$1, %edx
	callq	__ZN4core3fmt9Arguments6new_v117h0944953af7e51c36E
Ltmp270:
	jmp	LBB42_18
LBB42_18:
Ltmp271:
	.loc	35 0 9 is_stmt 0
	leaq	-112(%rbp), %rdi
	.loc	35 37 9
	callq	__ZN3std2io5stdio6_print17ha0d536e53b83a5ccE
Ltmp272:
	jmp	LBB42_19
LBB42_19:
	jmp	LBB42_16
LBB42_20:
Ltmp275:
	.loc	35 0 9
	leaq	-64(%rbp), %rdi
	.loc	35 40 5 is_stmt 1
	callq	__ZN3std2io5stdio6_print17ha0d536e53b83a5ccE
Ltmp276:
	jmp	LBB42_21
Ltmp290:
LBB42_21:
	.loc	35 41 1
	leaq	-312(%rbp), %rdi
	callq	__ZN4core3ptr42drop_in_place$LT$alloc..string..String$GT$17h9b63b8d8b758c8a1E
	jmp	LBB42_11
Ltmp291:
Lfunc_end42:
	.cfi_endproc
	.section	__TEXT,__gcc_except_tab
	.p2align	2
GCC_except_table42:
Lexception5:
	.byte	255
	.byte	255
	.byte	1
	.uleb128 Lcst_end5-Lcst_begin5
Lcst_begin5:
	.uleb128 Lfunc_begin42-Lfunc_begin42
	.uleb128 Ltmp265-Lfunc_begin42
	.byte	0
	.byte	0
	.uleb128 Ltmp265-Lfunc_begin42
	.uleb128 Ltmp266-Ltmp265
	.uleb128 Ltmp277-Lfunc_begin42
	.byte	0
	.uleb128 Ltmp254-Lfunc_begin42
	.uleb128 Ltmp255-Ltmp254
	.uleb128 Ltmp262-Lfunc_begin42
	.byte	0
	.uleb128 Ltmp263-Lfunc_begin42
	.uleb128 Ltmp264-Ltmp263
	.uleb128 Ltmp280-Lfunc_begin42
	.byte	0
	.uleb128 Ltmp256-Lfunc_begin42
	.uleb128 Ltmp261-Ltmp256
	.uleb128 Ltmp262-Lfunc_begin42
	.byte	0
	.uleb128 Ltmp261-Lfunc_begin42
	.uleb128 Ltmp278-Ltmp261
	.byte	0
	.byte	0
	.uleb128 Ltmp278-Lfunc_begin42
	.uleb128 Ltmp279-Ltmp278
	.uleb128 Ltmp280-Lfunc_begin42
	.byte	0
	.uleb128 Ltmp267-Lfunc_begin42
	.uleb128 Ltmp276-Ltmp267
	.uleb128 Ltmp277-Lfunc_begin42
	.byte	0
	.uleb128 Ltmp276-Lfunc_begin42
	.uleb128 Lfunc_end42-Ltmp276
	.byte	0
	.byte	0
Lcst_end5:
	.p2align	2

	.section	__TEXT,__text,regular,pure_instructions
	.globl	_main
	.p2align	4, 0x90
_main:
Lfunc_begin43:
	.cfi_startproc
	pushq	%rbp
	.cfi_def_cfa_offset 16
	.cfi_offset %rbp, -16
	movq	%rsp, %rbp
	.cfi_def_cfa_register %rbp
	movq	%rsi, %rdx
	movslq	%edi, %rsi
	leaq	__ZN18build_script_build4main17h1c75c15850878e79E(%rip), %rdi
	xorl	%ecx, %ecx
	callq	__ZN3std2rt10lang_start17he26746951839c4ccE
	popq	%rbp
	retq
Lfunc_end43:
	.cfi_endproc

	.section	__DATA,__const
	.p2align	3
l___unnamed_1:
	.quad	__ZN4core3ptr85drop_in_place$LT$std..rt..lang_start$LT$$LP$$RP$$GT$..$u7b$$u7b$closure$u7d$$u7d$$GT$17ha3fedc12f3de4a38E
	.asciz	"\b\000\000\000\000\000\000\000\b\000\000\000\000\000\000"
	.quad	__ZN4core3ops8function6FnOnce40call_once$u7b$$u7b$vtable.shim$u7d$$u7d$17hc7d7d61b844fe3afE
	.quad	__ZN3std2rt10lang_start28_$u7b$$u7b$closure$u7d$$u7d$17h99fe6b66b856f2e1E
	.quad	__ZN3std2rt10lang_start28_$u7b$$u7b$closure$u7d$$u7d$17h99fe6b66b856f2e1E

	.section	__TEXT,__const
l___unnamed_13:
	.ascii	"invalid args"

	.section	__DATA,__const
	.p2align	3
l___unnamed_2:
	.quad	l___unnamed_13
	.asciz	"\f\000\000\000\000\000\000"

	.section	__TEXT,__const
	.p2align	3
l___unnamed_3:
	.byte	0

l___unnamed_14:
	.ascii	"/rustc/2c8cc343237b8f7d5a3c3703e3a87f2eb2c54a74/library/core/src/fmt/mod.rs"

	.section	__DATA,__const
	.p2align	3
l___unnamed_4:
	.quad	l___unnamed_14
	.asciz	"K\000\000\000\000\000\000\000\221\001\000\000\r\000\000"

	.section	__TEXT,__const
l___unnamed_15:
	.ascii	"/rustc/2c8cc343237b8f7d5a3c3703e3a87f2eb2c54a74/library/core/src/alloc/layout.rs"

	.section	__DATA,__const
	.p2align	3
l___unnamed_5:
	.quad	l___unnamed_15
	.asciz	"P\000\000\000\000\000\000\000\304\001\000\000)\000\000"

	.section	__TEXT,__const
	.p2align	4
_str.0:
	.ascii	"attempt to divide by zero"

l___unnamed_16:
	.ascii	"/rustc/2c8cc343237b8f7d5a3c3703e3a87f2eb2c54a74/library/alloc/src/raw_vec.rs"

	.section	__DATA,__const
	.p2align	3
l___unnamed_6:
	.quad	l___unnamed_16
	.asciz	"L\000\000\000\000\000\000\000\367\000\000\000;\000\000"

	.section	__TEXT,__const
l___unnamed_7:
	.ascii	"TARGET"

l___unnamed_17:
	.ascii	"cargo:warning="

l___unnamed_18:
	.ascii	": unable to get TARGET environment variable: "

l___unnamed_19:
	.byte	10

	.section	__DATA,__const
	.p2align	3
l___unnamed_10:
	.quad	l___unnamed_17
	.asciz	"\016\000\000\000\000\000\000"
	.quad	l___unnamed_18
	.asciz	"-\000\000\000\000\000\000"
	.quad	l___unnamed_19
	.asciz	"\001\000\000\000\000\000\000"

	.section	__TEXT,__const
l___unnamed_20:
	.ascii	"futures-core"

	.section	__DATA,__const
	.p2align	3
l___unnamed_9:
	.quad	l___unnamed_20
	.asciz	"\f\000\000\000\000\000\000"

	.section	__TEXT,__literal16,16byte_literals
L___unnamed_21:
	.ascii	"armv4t-none-eabi"

	.section	__TEXT,__const
l___unnamed_22:
	.ascii	"armv5te-none-eabi"

l___unnamed_23:
	.ascii	"avr-unknown-gnu-atmega328"

l___unnamed_24:
	.ascii	"bpfeb-unknown-none"

l___unnamed_25:
	.ascii	"bpfel-unknown-none"

l___unnamed_26:
	.ascii	"msp430-none-elf"

l___unnamed_27:
	.ascii	"riscv32i-unknown-none-elf"

l___unnamed_28:
	.ascii	"riscv32im-unknown-none-elf"

l___unnamed_29:
	.ascii	"riscv32imc-unknown-none-elf"

l___unnamed_30:
	.ascii	"thumbv4t-none-eabi"

l___unnamed_31:
	.ascii	"thumbv5te-none-eabi"

l___unnamed_32:
	.ascii	"thumbv6m-none-eabi"

	.section	__DATA,__const
	.p2align	3
l___unnamed_33:
	.quad	L___unnamed_21
	.asciz	"\020\000\000\000\000\000\000"
	.quad	l___unnamed_22
	.asciz	"\021\000\000\000\000\000\000"
	.quad	l___unnamed_23
	.asciz	"\031\000\000\000\000\000\000"
	.quad	l___unnamed_24
	.asciz	"\022\000\000\000\000\000\000"
	.quad	l___unnamed_25
	.asciz	"\022\000\000\000\000\000\000"
	.quad	l___unnamed_26
	.asciz	"\017\000\000\000\000\000\000"
	.quad	l___unnamed_27
	.asciz	"\031\000\000\000\000\000\000"
	.quad	l___unnamed_28
	.asciz	"\032\000\000\000\000\000\000"
	.quad	l___unnamed_29
	.asciz	"\033\000\000\000\000\000\000"
	.quad	l___unnamed_30
	.asciz	"\022\000\000\000\000\000\000"
	.quad	l___unnamed_31
	.asciz	"\023\000\000\000\000\000\000"
	.quad	l___unnamed_32
	.asciz	"\022\000\000\000\000\000\000"

	.p2align	3
l___unnamed_8:
	.quad	l___unnamed_33
	.asciz	"\f\000\000\000\000\000\000"

	.section	__TEXT,__const
l___unnamed_34:
	.ascii	"cargo:rustc-cfg=futures_no_atomic_cas\n"

	.section	__DATA,__const
	.p2align	3
l___unnamed_12:
	.quad	l___unnamed_34
	.asciz	"&\000\000\000\000\000\000"

	.section	__TEXT,__const
l___unnamed_35:
	.ascii	"cargo:rerun-if-changed=no_atomic_cas.rs\n"

	.section	__DATA,__const
	.p2align	3
l___unnamed_11:
	.quad	l___unnamed_35
	.asciz	"(\000\000\000\000\000\000"

	.section	__DATA,__const
Lsec_end0:
	.section	__TEXT,__text,regular,pure_instructions
Lsec_end1: