	.section	__TEXT,__text,regular,pure_instructions
	.macosx_version_min 10, 7
	.p2align	4, 0x90
__ZN106_$LT$core..ops..range..Range$LT$usize$GT$$u20$as$u20$core..slice..index..SliceIndex$LT$$u5b$T$u5d$$GT$$GT$13get_unchecked17ha0f71df591c2aea9E:
Lfunc_begin0:
	.file	1 "/rustc/2c8cc343237b8f7d5a3c3703e3a87f2eb2c54a74/library/core/src/slice" "index.rs"
	.loc	1 373 0
	.cfi_startproc
	pushq	%rbp
	.cfi_def_cfa_offset 16
	.cfi_offset %rbp, -16
	movq	%rsp, %rbp
	.cfi_def_cfa_register %rbp
	subq	$160, %rsp
	movq	%rdi, -128(%rbp)
	movq	%rsi, -120(%rbp)
	movq	%rdx, -112(%rbp)
	movq	%rcx, -104(%rbp)
Ltmp0:
	.loc	1 386 39 prologue_end
	movq	%rdx, -96(%rbp)
	movq	%rcx, -88(%rbp)
Ltmp1:
	.file	2 "/rustc/2c8cc343237b8f7d5a3c3703e3a87f2eb2c54a74/library/core/src/ptr" "const_ptr.rs"
	.loc	2 1650 9
	movq	%rdx, -80(%rbp)
Ltmp2:
	.loc	1 386 58
	movq	%rdi, -72(%rbp)
Ltmp3:
	.loc	2 932 18
	movq	%rdx, -64(%rbp)
	.loc	2 932 30 is_stmt 0
	movq	%rdi, -56(%rbp)
Ltmp4:
	.loc	2 473 18 is_stmt 1
	addq	%rdi, %rdx
	movq	%rdx, -48(%rbp)
	movq	-48(%rbp), %rax
	movq	%rax, -40(%rbp)
Ltmp5:
	.loc	1 386 71
	subq	%rdi, %rsi
	movq	%rsi, -32(%rbp)
Ltmp6:
	.file	3 "/rustc/2c8cc343237b8f7d5a3c3703e3a87f2eb2c54a74/library/core/src/ptr" "mod.rs"
	.loc	3 734 20
	movq	%rax, -24(%rbp)
Ltmp7:
	.loc	2 61 9
	movq	%rax, -16(%rbp)
Ltmp8:
	.loc	3 734 33
	movq	%rsi, -8(%rbp)
Ltmp9:
	.file	4 "/rustc/2c8cc343237b8f7d5a3c3703e3a87f2eb2c54a74/library/core/src/ptr" "metadata.rs"
	.loc	4 118 36
	movq	%rax, -144(%rbp)
	movq	%rsi, -136(%rbp)
	.loc	4 118 14 is_stmt 0
	movq	-144(%rbp), %rcx
	movq	-136(%rbp), %rax
	movq	%rcx, -160(%rbp)
	movq	%rax, -152(%rbp)
	movq	-160(%rbp), %rax
	movq	-152(%rbp), %rdx
Ltmp10:
	.loc	1 388 6 is_stmt 1
	addq	$160, %rsp
	popq	%rbp
	retq
Ltmp11:
Lfunc_end0:
	.cfi_endproc

	.p2align	4, 0x90
__ZN106_$LT$core..ops..range..Range$LT$usize$GT$$u20$as$u20$core..slice..index..SliceIndex$LT$$u5b$T$u5d$$GT$$GT$17get_unchecked_mut17hc541dae9b208c56dE:
Lfunc_begin1:
	.loc	1 391 0
	.cfi_startproc
	pushq	%rbp
	.cfi_def_cfa_offset 16
	.cfi_offset %rbp, -16
	movq	%rsp, %rbp
	.cfi_def_cfa_register %rbp
	subq	$160, %rsp
	movq	%rdi, -128(%rbp)
	movq	%rsi, -120(%rbp)
	movq	%rdx, -112(%rbp)
	movq	%rcx, -104(%rbp)
Ltmp12:
	.loc	1 400 43 prologue_end
	movq	%rdx, -96(%rbp)
	movq	%rcx, -88(%rbp)
Ltmp13:
	.file	5 "/rustc/2c8cc343237b8f7d5a3c3703e3a87f2eb2c54a74/library/core/src/ptr" "mut_ptr.rs"
	.loc	5 2037 9
	movq	%rdx, -80(%rbp)
Ltmp14:
	.loc	1 400 66
	movq	%rdi, -72(%rbp)
Ltmp15:
	.loc	5 1034 18
	movq	%rdx, -64(%rbp)
	.loc	5 1034 30 is_stmt 0
	movq	%rdi, -56(%rbp)
Ltmp16:
	.loc	5 487 18 is_stmt 1
	addq	%rdi, %rdx
	movq	%rdx, -48(%rbp)
	movq	-48(%rbp), %rax
	movq	%rax, -40(%rbp)
Ltmp17:
	.loc	1 400 79
	subq	%rdi, %rsi
	movq	%rsi, -32(%rbp)
Ltmp18:
	.loc	3 766 24
	movq	%rax, -24(%rbp)
Ltmp19:
	.loc	5 60 9
	movq	%rax, -16(%rbp)
Ltmp20:
	.loc	3 766 37
	movq	%rsi, -8(%rbp)
Ltmp21:
	.loc	4 135 36
	movq	%rax, -144(%rbp)
	movq	%rsi, -136(%rbp)
	.loc	4 135 14 is_stmt 0
	movq	-144(%rbp), %rcx
	movq	-136(%rbp), %rax
	movq	%rcx, -160(%rbp)
	movq	%rax, -152(%rbp)
	movq	-160(%rbp), %rax
	movq	-152(%rbp), %rdx
Ltmp22:
	.loc	1 402 6 is_stmt 1
	addq	$160, %rsp
	popq	%rbp
	retq
Ltmp23:
Lfunc_end1:
	.cfi_endproc

	.p2align	4, 0x90
__ZN106_$LT$core..ops..range..Range$LT$usize$GT$$u20$as$u20$core..slice..index..SliceIndex$LT$$u5b$T$u5d$$GT$$GT$3get17h736703e2c40eaee4E:
Lfunc_begin2:
	.loc	1 353 0
	.cfi_startproc
	pushq	%rbp
	.cfi_def_cfa_offset 16
	.cfi_offset %rbp, -16
	movq	%rsp, %rbp
	.cfi_def_cfa_register %rbp
	subq	$96, %rsp
	movq	%rdi, -88(%rbp)
	movq	%rsi, -80(%rbp)
	movq	%rdx, -72(%rbp)
	movq	%rcx, -64(%rbp)
	movq	%rdi, -32(%rbp)
	movq	%rsi, -24(%rbp)
	movq	%rdx, -16(%rbp)
	movq	%rcx, -8(%rbp)
Ltmp24:
	.loc	1 354 12 prologue_end
	cmpq	%rsi, %rdi
	ja	LBB2_2
	.loc	1 0 12 is_stmt 0
	movq	-80(%rbp), %rax
	movq	-64(%rbp), %rcx
	.loc	1 354 37
	cmpq	%rcx, %rax
	seta	%al
	.loc	1 354 12
	andb	$1, %al
	movb	%al, -33(%rbp)
	jmp	LBB2_3
LBB2_2:
	movb	$1, -33(%rbp)
LBB2_3:
	testb	$1, -33(%rbp)
	jne	LBB2_5
	.loc	1 0 12
	movq	-64(%rbp), %rcx
	movq	-72(%rbp), %rdx
	movq	-80(%rbp), %rsi
	movq	-88(%rbp), %rdi
	.loc	1 358 29 is_stmt 1
	callq	__ZN106_$LT$core..ops..range..Range$LT$usize$GT$$u20$as$u20$core..slice..index..SliceIndex$LT$$u5b$T$u5d$$GT$$GT$13get_unchecked17ha0f71df591c2aea9E
	.loc	1 358 22 is_stmt 0
	movq	%rax, -56(%rbp)
	movq	%rdx, -48(%rbp)
	.loc	1 354 9 is_stmt 1
	jmp	LBB2_6
LBB2_5:
	.loc	1 355 13
	movq	$0, -56(%rbp)
LBB2_6:
	.loc	1 360 6
	movq	-56(%rbp), %rax
	movq	-48(%rbp), %rdx
	addq	$96, %rsp
	popq	%rbp
	retq
Ltmp25:
Lfunc_end2:
	.cfi_endproc

	.p2align	4, 0x90
__ZN106_$LT$core..ops..range..Range$LT$usize$GT$$u20$as$u20$core..slice..index..SliceIndex$LT$$u5b$T$u5d$$GT$$GT$5index17he85d7d93c0907dc9E:
Lfunc_begin3:
	.loc	1 405 0
	.cfi_startproc
	pushq	%rbp
	.cfi_def_cfa_offset 16
	.cfi_offset %rbp, -16
	movq	%rsp, %rbp
	.cfi_def_cfa_register %rbp
	subq	$80, %rsp
	movq	%rdi, -72(%rbp)
	movq	%rsi, -64(%rbp)
	movq	%rdx, -56(%rbp)
	movq	%rcx, -48(%rbp)
	movq	%r8, -40(%rbp)
	movq	%rdi, -32(%rbp)
	movq	%rsi, -24(%rbp)
	movq	%rdx, -16(%rbp)
	movq	%rcx, -8(%rbp)
Ltmp26:
	.loc	1 406 12 prologue_end
	cmpq	%rsi, %rdi
	ja	LBB3_2
	.loc	1 0 12 is_stmt 0
	movq	-64(%rbp), %rax
	movq	-48(%rbp), %rcx
	.loc	1 408 19 is_stmt 1
	cmpq	%rcx, %rax
	ja	LBB3_4
	jmp	LBB3_3
LBB3_2:
	.loc	1 0 19 is_stmt 0
	movq	-40(%rbp), %rdx
	movq	-64(%rbp), %rsi
	movq	-72(%rbp), %rdi
	.loc	1 407 13 is_stmt 1
	callq	__ZN4core5slice5index22slice_index_order_fail17h0d8f800a07d5f26eE
LBB3_3:
	.loc	1 0 13 is_stmt 0
	movq	-48(%rbp), %rcx
	movq	-56(%rbp), %rdx
	movq	-64(%rbp), %rsi
	movq	-72(%rbp), %rdi
	.loc	1 412 20 is_stmt 1
	callq	__ZN106_$LT$core..ops..range..Range$LT$usize$GT$$u20$as$u20$core..slice..index..SliceIndex$LT$$u5b$T$u5d$$GT$$GT$13get_unchecked17ha0f71df591c2aea9E
	.loc	1 413 6
	addq	$80, %rsp
	popq	%rbp
	retq
LBB3_4:
	.loc	1 0 6 is_stmt 0
	movq	-40(%rbp), %rdx
	movq	-48(%rbp), %rsi
	movq	-64(%rbp), %rdi
	.loc	1 409 13 is_stmt 1
	callq	__ZN4core5slice5index24slice_end_index_len_fail17hc921cb2f1513645aE
Ltmp27:
Lfunc_end3:
	.cfi_endproc

	.p2align	4, 0x90
__ZN106_$LT$core..ops..range..Range$LT$usize$GT$$u20$as$u20$core..slice..index..SliceIndex$LT$$u5b$T$u5d$$GT$$GT$9index_mut17hf63c13f10379f439E:
Lfunc_begin4:
	.loc	1 416 0
	.cfi_startproc
	pushq	%rbp
	.cfi_def_cfa_offset 16
	.cfi_offset %rbp, -16
	movq	%rsp, %rbp
	.cfi_def_cfa_register %rbp
	subq	$80, %rsp
	movq	%rdi, -72(%rbp)
	movq	%rsi, -64(%rbp)
	movq	%rdx, -56(%rbp)
	movq	%rcx, -48(%rbp)
	movq	%r8, -40(%rbp)
	movq	%rdi, -32(%rbp)
	movq	%rsi, -24(%rbp)
	movq	%rdx, -16(%rbp)
	movq	%rcx, -8(%rbp)
Ltmp28:
	.loc	1 417 12 prologue_end
	cmpq	%rsi, %rdi
	ja	LBB4_2
	.loc	1 0 12 is_stmt 0
	movq	-64(%rbp), %rax
	movq	-48(%rbp), %rcx
	.loc	1 419 19 is_stmt 1
	cmpq	%rcx, %rax
	ja	LBB4_4
	jmp	LBB4_3
LBB4_2:
	.loc	1 0 19 is_stmt 0
	movq	-40(%rbp), %rdx
	movq	-64(%rbp), %rsi
	movq	-72(%rbp), %rdi
	.loc	1 418 13 is_stmt 1
	callq	__ZN4core5slice5index22slice_index_order_fail17h0d8f800a07d5f26eE
LBB4_3:
	.loc	1 0 13 is_stmt 0
	movq	-48(%rbp), %rcx
	movq	-56(%rbp), %rdx
	movq	-64(%rbp), %rsi
	movq	-72(%rbp), %rdi
	.loc	1 423 24 is_stmt 1
	callq	__ZN106_$LT$core..ops..range..Range$LT$usize$GT$$u20$as$u20$core..slice..index..SliceIndex$LT$$u5b$T$u5d$$GT$$GT$17get_unchecked_mut17hc541dae9b208c56dE
	.loc	1 424 6
	addq	$80, %rsp
	popq	%rbp
	retq
LBB4_4:
	.loc	1 0 6 is_stmt 0
	movq	-40(%rbp), %rdx
	movq	-48(%rbp), %rsi
	movq	-64(%rbp), %rdi
	.loc	1 420 13 is_stmt 1
	callq	__ZN4core5slice5index24slice_end_index_len_fail17hc921cb2f1513645aE
Ltmp29:
Lfunc_end4:
	.cfi_endproc

	.p2align	4, 0x90
__ZN119_$LT$alloc..collections..btree..map..BTreeMap$LT$K$C$V$C$A$GT$$u20$as$u20$core..iter..traits..collect..IntoIterator$GT$9into_iter17he209c0eb372bddb1E:
Lfunc_begin5:
	.file	6 "/rustc/2c8cc343237b8f7d5a3c3703e3a87f2eb2c54a74/library/alloc/src/collections/btree" "map.rs"
	.loc	6 1615 0
	.cfi_startproc
	pushq	%rbp
	.cfi_def_cfa_offset 16
	.cfi_offset %rbp, -16
	movq	%rsp, %rbp
	.cfi_def_cfa_register %rbp
	subq	$480, %rsp
	movq	%rdi, -464(%rbp)
	movq	%rdi, -456(%rbp)
Ltmp30:
	.loc	6 1616 40 prologue_end
	movq	16(%rsi), %rax
	movq	%rax, -408(%rbp)
	movq	(%rsi), %rax
	movq	8(%rsi), %rcx
	movq	%rcx, -416(%rbp)
	movq	%rax, -424(%rbp)
Ltmp31:
	.file	7 "/rustc/2c8cc343237b8f7d5a3c3703e3a87f2eb2c54a74/library/core/src/mem" "manually_drop.rs"
	.loc	7 71 24
	movq	-408(%rbp), %rax
	movq	%rax, -176(%rbp)
	movq	-424(%rbp), %rax
	movq	-416(%rbp), %rcx
	movq	%rcx, -184(%rbp)
	movq	%rax, -192(%rbp)
	.loc	7 71 9 is_stmt 0
	movq	-176(%rbp), %rax
	movq	%rax, -432(%rbp)
	movq	-192(%rbp), %rax
	movq	-184(%rbp), %rcx
	movq	%rcx, -440(%rbp)
	movq	%rax, -448(%rbp)
	leaq	-448(%rbp), %rdi
Ltmp32:
	.loc	6 1617 29 is_stmt 1
	movq	%rdi, -104(%rbp)
	movq	%rdi, -96(%rbp)
Ltmp33:
	.file	8 "/rustc/2c8cc343237b8f7d5a3c3703e3a87f2eb2c54a74/library/core/src" "option.rs"
	.loc	8 1623 28
	movq	$0, -160(%rbp)
	.loc	8 1623 9 is_stmt 0
	movq	-168(%rbp), %rsi
Ltmp34:
	movq	-160(%rbp), %rdx
	callq	__ZN4core3mem7replace17h4656a6e76bbc264bE
	movq	%rdx, -392(%rbp)
	movq	%rax, -400(%rbp)
Ltmp35:
	.loc	6 1617 16 is_stmt 1
	movq	-392(%rbp), %rdx
	movl	$1, %eax
	xorl	%ecx, %ecx
	cmpq	$0, %rdx
	cmoveq	%rcx, %rax
	cmpq	$1, %rax
	jne	LBB5_2
Ltmp36:
	.loc	6 1617 21 is_stmt 0
	movq	-400(%rbp), %rdi
	movq	-392(%rbp), %rsi
	movq	%rdi, -56(%rbp)
	movq	%rsi, -48(%rbp)
	.loc	6 1618 30 is_stmt 1
	callq	__ZN5alloc11collections5btree4node76NodeRef$LT$alloc..collections..btree..node..marker..Owned$C$K$C$V$C$Type$GT$10into_dying17h5b118898046cc81fE
	movq	%rax, %rsi
	leaq	-384(%rbp), %rdi
	callq	__ZN5alloc11collections5btree8navigate178_$LT$impl$u20$alloc..collections..btree..node..NodeRef$LT$alloc..collections..btree..node..marker..Dying$C$K$C$V$C$alloc..collections..btree..node..marker..LeafOrInternal$GT$$GT$10full_range17h6ddd4810c8444c5eE
Ltmp37:
	.loc	6 1621 24
	leaq	-320(%rbp), %rdi
	leaq	-384(%rbp), %rsi
	movl	$64, %edx
	callq	_memcpy
	movq	-464(%rbp), %rdi
	.loc	6 1622 25
	leaq	-448(%rbp), %rax
	movq	%rax, -40(%rbp)
	movq	-432(%rbp), %rax
	movq	%rax, -472(%rbp)
	.loc	6 1623 57
	leaq	-448(%rbp), %rax
	movq	%rax, -32(%rbp)
	.loc	6 1623 52 is_stmt 0
	leaq	-448(%rbp), %rax
	movq	%rax, -24(%rbp)
Ltmp38:
	.loc	7 113 28 is_stmt 1
	leaq	-448(%rbp), %rax
	movq	%rax, -16(%rbp)
Ltmp39:
	.loc	3 1157 34
	leaq	-152(%rbp), %rax
	movq	%rax, -8(%rbp)
Ltmp40:
	.loc	6 1620 13
	leaq	-320(%rbp), %rsi
	movl	$64, %edx
	callq	_memcpy
	movq	-472(%rbp), %rcx
	movq	-464(%rbp), %rax
	movq	%rcx, 64(%rax)
Ltmp41:
	.loc	6 1617 9
	jmp	LBB5_3
Ltmp42:
LBB5_2:
	.loc	6 1627 24
	leaq	-256(%rbp), %rdi
	callq	__ZN5alloc11collections5btree8navigate39LazyLeafRange$LT$BorrowType$C$K$C$V$GT$4none17h85a3aac12847c0feE
	movq	-464(%rbp), %rdi
	.loc	6 1629 57
	leaq	-448(%rbp), %rax
	movq	%rax, -88(%rbp)
	.loc	6 1629 52 is_stmt 0
	leaq	-448(%rbp), %rax
	movq	%rax, -80(%rbp)
Ltmp43:
	.loc	7 113 28 is_stmt 1
	leaq	-448(%rbp), %rax
	movq	%rax, -72(%rbp)
Ltmp44:
	.loc	3 1157 34
	leaq	-144(%rbp), %rax
	movq	%rax, -64(%rbp)
Ltmp45:
	.loc	6 1626 13
	leaq	-256(%rbp), %rsi
	movl	$64, %edx
	callq	_memcpy
	movq	-464(%rbp), %rax
	movq	$0, 64(%rax)
Ltmp46:
LBB5_3:
	.loc	6 0 13 is_stmt 0
	movq	-456(%rbp), %rax
	.loc	6 1632 6 is_stmt 1
	addq	$480, %rsp
	popq	%rbp
	retq
Ltmp47:
Lfunc_end5:
	.cfi_endproc

	.p2align	4, 0x90
__ZN119_$LT$core..ptr..non_null..NonNull$LT$T$GT$$u20$as$u20$core..convert..From$LT$core..ptr..unique..Unique$LT$T$GT$$GT$$GT$4from17h5dc57092eff0798cE:
Lfunc_begin6:
	.file	9 "/rustc/2c8cc343237b8f7d5a3c3703e3a87f2eb2c54a74/library/core/src/ptr" "non_null.rs"
	.loc	9 765 0
	.cfi_startproc
	pushq	%rbp
	.cfi_def_cfa_offset 16
	.cfi_offset %rbp, -16
	movq	%rsp, %rbp
	.cfi_def_cfa_register %rbp
	subq	$40, %rsp
	movq	%rdi, -32(%rbp)
Ltmp48:
	.loc	9 768 41 prologue_end
	movq	%rdi, -24(%rbp)
Ltmp49:
	.file	10 "/rustc/2c8cc343237b8f7d5a3c3703e3a87f2eb2c54a74/library/core/src/ptr" "unique.rs"
	.loc	10 104 9
	movq	%rdi, -16(%rbp)
Ltmp50:
	.loc	9 326 9
	movq	%rdi, -8(%rbp)
Ltmp51:
	.loc	9 201 13
	movq	%rdi, -40(%rbp)
Ltmp52:
	.loc	9 769 6
	movq	-40(%rbp), %rax
	addq	$40, %rsp
	popq	%rbp
	retq
Ltmp53:
Lfunc_end6:
	.cfi_endproc

	.p2align	4, 0x90
__ZN174_$LT$$LT$alloc..collections..btree..map..IntoIter$LT$K$C$V$C$A$GT$$u20$as$u20$core..ops..drop..Drop$GT$..drop..DropGuard$LT$K$C$V$C$A$GT$$u20$as$u20$core..ops..drop..Drop$GT$4drop17hda831038cfd41deaE:
Lfunc_begin7:
	.loc	6 1641 0
	.cfi_startproc
	pushq	%rbp
	.cfi_def_cfa_offset 16
	.cfi_offset %rbp, -16
	movq	%rsp, %rbp
	.cfi_def_cfa_register %rbp
	subq	$96, %rsp
	movq	%rdi, -88(%rbp)
	movq	%rdi, -8(%rbp)
LBB7_1:
	movq	-88(%rbp), %rax
Ltmp54:
	.loc	6 1644 38 prologue_end
	movq	(%rax), %rsi
	leaq	-80(%rbp), %rdi
	callq	__ZN5alloc11collections5btree3map25IntoIter$LT$K$C$V$C$A$GT$10dying_next17h419c1b67e89fe091E
	.loc	6 1644 27 is_stmt 0
	movq	-72(%rbp), %rdx
	movl	$1, %eax
	xorl	%ecx, %ecx
	cmpq	$0, %rdx
	cmoveq	%rcx, %rax
	cmpq	$1, %rax
	jne	LBB7_3
	.loc	6 1644 32
	movq	-80(%rbp), %rax
	movq	%rax, -56(%rbp)
	movq	-72(%rbp), %rax
	movq	%rax, -48(%rbp)
	movq	-64(%rbp), %rax
	movq	%rax, -40(%rbp)
	.loc	6 1646 30 is_stmt 1
	movq	-56(%rbp), %rax
	movq	%rax, -32(%rbp)
	movq	-48(%rbp), %rax
	movq	%rax, -24(%rbp)
	movq	-40(%rbp), %rax
	movq	%rax, -16(%rbp)
	leaq	-32(%rbp), %rdi
	callq	__ZN5alloc11collections5btree4node173Handle$LT$alloc..collections..btree..node..NodeRef$LT$alloc..collections..btree..node..marker..Dying$C$K$C$V$C$NodeType$GT$$C$alloc..collections..btree..node..marker..KV$GT$12drop_key_val17hf860890d3347f70dE
Ltmp55:
	.loc	6 1644 17
	jmp	LBB7_1
LBB7_3:
	.loc	6 1648 14
	addq	$96, %rsp
	popq	%rbp
	retq
Ltmp56:
Lfunc_end7:
	.cfi_endproc

	.p2align	4, 0x90
__ZN3std10sys_common9backtrace28__rust_begin_short_backtrace17h3e9223860b4d27bbE:
Lfunc_begin8:
	.file	11 "/rustc/2c8cc343237b8f7d5a3c3703e3a87f2eb2c54a74/library/std/src/sys_common" "backtrace.rs"
	.loc	11 117 0
	.cfi_startproc
	pushq	%rbp
	.cfi_def_cfa_offset 16
	.cfi_offset %rbp, -16
	movq	%rsp, %rbp
	.cfi_def_cfa_register %rbp
	subq	$48, %rsp
	movq	%rdi, -32(%rbp)
Ltmp57:
	.loc	11 121 18 prologue_end
	callq	__ZN4core3ops8function6FnOnce9call_once17h294830cdfccab7edE
Ltmp58:
	.file	12 "/rustc/2c8cc343237b8f7d5a3c3703e3a87f2eb2c54a74/library/core/src" "hint.rs"
	.loc	12 295 5
	## InlineAsm Start
	## InlineAsm End
Ltmp59:
	.loc	11 127 2
	addq	$48, %rsp
	popq	%rbp
	retq
Ltmp60:
Lfunc_end8:
	.cfi_endproc

	.p2align	4, 0x90
__ZN3std2io5error14repr_bitpacked11decode_repr17h2c7ec6bf52f2e277E:
Lfunc_begin9:
	.file	13 "/rustc/2c8cc343237b8f7d5a3c3703e3a87f2eb2c54a74/library/std/src/io/error" "repr_bitpacked.rs"
	.loc	13 246 0
	.cfi_startproc
	.cfi_personality 155, _rust_eh_personality
	.cfi_lsda 16, Lexception0
	pushq	%rbp
	.cfi_def_cfa_offset 16
	.cfi_offset %rbp, -16
	movq	%rsp, %rbp
	.cfi_def_cfa_register %rbp
	subq	$320, %rsp
	movq	%rsi, -272(%rbp)
	movq	%rdi, -264(%rbp)
	movq	%rdi, -256(%rbp)
	movq	%rsi, -184(%rbp)
Ltmp70:
	.loc	13 250 9 prologue_end
	movb	$1, -201(%rbp)
	.loc	13 250 16 is_stmt 0
	movq	%rsi, -160(%rbp)
Ltmp71:
	.loc	9 326 9 is_stmt 1
	movq	%rsi, -152(%rbp)
Ltmp72:
	.loc	5 215 33
	movq	%rsi, -144(%rbp)
	.loc	5 215 18 is_stmt 0
	movq	%rsi, -248(%rbp)
Ltmp73:
	.loc	13 251 11 is_stmt 1
	movq	-248(%rbp), %rax
	andl	$3, %eax
	movq	%rax, -280(%rbp)
	.loc	13 251 5 is_stmt 0
	subq	$3, %rax
	ja	LBB9_2
	.loc	13 0 5
	movq	-280(%rbp), %rax
	leaq	LJTI9_0(%rip), %rcx
	movslq	(%rcx,%rax,4), %rax
	addq	%rcx, %rax
	jmpq	*%rax
LBB9_2:
Ltmp67:
	.loc	13 280 13 is_stmt 1
	leaq	l___unnamed_2(%rip), %rdi
	leaq	l___unnamed_3(%rip), %rdx
	movl	$40, %esi
	callq	__ZN4core9panicking5panic17hc1bc45270cf64b03E
Ltmp68:
	jmp	LBB9_9
LBB9_3:
	.loc	13 0 13 is_stmt 0
	movq	-264(%rbp), %rax
	.loc	13 253 26 is_stmt 1
	movq	-248(%rbp), %rcx
	.loc	13 253 24 is_stmt 0
	sarq	$32, %rcx
	movl	%ecx, -4(%rbp)
Ltmp74:
	.loc	13 254 13 is_stmt 1
	movl	%ecx, 4(%rax)
	movb	$0, (%rax)
Ltmp75:
	.loc	13 255 9
	jmp	LBB9_12
LBB9_4:
	.loc	13 257 30
	movl	-244(%rbp), %edi
	.loc	13 257 29 is_stmt 0
	movl	%edi, -12(%rbp)
Ltmp63:
Ltmp76:
	.loc	13 258 24 is_stmt 1
	callq	__ZN3std2io5error14repr_bitpacked14kind_from_prim17hf543205ede3c4fbdE
Ltmp64:
	movb	%al, -281(%rbp)
	jmp	LBB9_13
Ltmp77:
LBB9_5:
	.loc	13 0 24 is_stmt 0
	movq	-264(%rbp), %rax
	movq	-272(%rbp), %rcx
	.loc	13 270 58 is_stmt 1
	movq	%rcx, -40(%rbp)
Ltmp78:
	.loc	9 450 41
	movq	%rcx, -32(%rbp)
	movq	%rcx, -24(%rbp)
Ltmp79:
	.loc	9 201 13
	movq	%rcx, -224(%rbp)
Ltmp80:
	.loc	9 326 9
	movq	-224(%rbp), %rcx
Ltmp81:
	.loc	13 270 31
	movq	%rcx, 8(%rax)
	movb	$2, (%rax)
	.loc	13 270 94 is_stmt 0
	jmp	LBB9_12
LBB9_6:
	.loc	13 0 94
	movq	-272(%rbp), %rax
	.loc	13 275 26 is_stmt 1
	movq	%rax, -120(%rbp)
Ltmp82:
	.loc	9 326 9
	movq	%rax, -112(%rbp)
Ltmp83:
	.loc	5 1300 9
	movq	%rax, -104(%rbp)
Ltmp84:
	.loc	5 60 9
	movq	%rax, -96(%rbp)
Ltmp85:
	.loc	5 1282 9
	movq	%rax, -88(%rbp)
Ltmp86:
	.loc	5 568 18
	addq	$-1, %rax
	movq	%rax, -80(%rbp)
	movq	-80(%rbp), %rax
	movq	%rax, -296(%rbp)
	jmp	LBB9_10
Ltmp87:
LBB9_7:
	.loc	13 283 1
	testb	$1, -201(%rbp)
	jne	LBB9_19
	jmp	LBB9_18
LBB9_8:
Ltmp69:
	.loc	13 0 1 is_stmt 0
	movq	%rax, %rcx
	movl	%edx, %eax
	movq	%rcx, -136(%rbp)
	movl	%eax, -128(%rbp)
	jmp	LBB9_7
LBB9_9:
	ud2
LBB9_10:
	movq	-296(%rbp), %rax
Ltmp88:
	.loc	5 568 18 is_stmt 1
	movq	%rax, -72(%rbp)
Ltmp89:
	.loc	5 99 33
	movq	%rax, -64(%rbp)
Ltmp90:
	.loc	4 135 36
	movq	%rax, -192(%rbp)
	.loc	4 135 14 is_stmt 0
	movq	-192(%rbp), %rax
	movq	%rax, -200(%rbp)
	movq	-200(%rbp), %rax
	movq	%rax, -56(%rbp)
Ltmp91:
	.loc	5 60 9 is_stmt 1
	movq	%rax, -48(%rbp)
Ltmp92:
	.loc	13 276 31
	movb	$0, -201(%rbp)
	movq	%rax, -216(%rbp)
	movq	-216(%rbp), %rdi
Ltmp61:
	callq	__ZN78_$LT$std..io..error..repr_bitpacked..Repr$u20$as$u20$core..ops..drop..Drop$GT$4drop28_$u7b$$u7b$closure$u7d$$u7d$17h4f3531045c6c67a5E
Ltmp62:
	movq	%rax, -304(%rbp)
	jmp	LBB9_11
LBB9_11:
	.loc	13 0 31 is_stmt 0
	movq	-264(%rbp), %rax
	movq	-304(%rbp), %rcx
	.loc	13 276 13
	movq	%rcx, 8(%rax)
	movb	$3, (%rax)
Ltmp93:
LBB9_12:
	.loc	13 283 1 is_stmt 1
	testb	$1, -201(%rbp)
	jne	LBB9_21
	jmp	LBB9_20
LBB9_13:
	.loc	13 0 1 is_stmt 0
	movb	-281(%rbp), %al
Ltmp94:
	.loc	13 258 24 is_stmt 1
	movb	%al, -233(%rbp)
	.loc	13 258 65 is_stmt 0
	leaq	-248(%rbp), %rax
	movq	%rax, -232(%rbp)
Ltmp95:
	.loc	8 871 15 is_stmt 1
	movl	$1, %eax
	xorl	%ecx, %ecx
	cmpb	$41, -233(%rbp)
	cmoveq	%rcx, %rax
	.loc	8 871 9 is_stmt 0
	cmpq	$0, %rax
	jne	LBB9_15
	.loc	8 873 21 is_stmt 1
	movq	-232(%rbp), %rdi
Ltmp65:
	callq	__ZN3std2io5error14repr_bitpacked11decode_repr28_$u7b$$u7b$closure$u7d$$u7d$17hc56f803938ed810cE
Ltmp66:
	movb	%al, -305(%rbp)
	jmp	LBB9_17
LBB9_15:
	.loc	8 872 18
	movb	-233(%rbp), %al
	movb	%al, -5(%rbp)
Ltmp96:
	.loc	8 872 24 is_stmt 0
	movb	%al, -234(%rbp)
Ltmp97:
LBB9_16:
	.loc	8 0 24
	movq	-264(%rbp), %rax
Ltmp98:
	.loc	13 268 31 is_stmt 1
	movb	-234(%rbp), %cl
	.loc	13 268 13 is_stmt 0
	movb	%cl, 1(%rax)
	movb	$1, (%rax)
Ltmp99:
	.loc	13 269 9 is_stmt 1
	jmp	LBB9_12
LBB9_17:
	.loc	13 0 9 is_stmt 0
	movb	-305(%rbp), %al
Ltmp100:
	.loc	8 873 21 is_stmt 1
	movb	%al, -234(%rbp)
	.loc	8 873 23 is_stmt 0
	jmp	LBB9_16
Ltmp101:
LBB9_18:
	.loc	13 246 1 is_stmt 1
	movq	-136(%rbp), %rdi
	callq	__Unwind_Resume
LBB9_19:
	.loc	13 283 1
	jmp	LBB9_18
LBB9_20:
	.loc	13 0 1 is_stmt 0
	movq	-256(%rbp), %rax
	.loc	13 283 2
	addq	$320, %rsp
	popq	%rbp
	retq
LBB9_21:
	.loc	13 283 1
	jmp	LBB9_20
Ltmp102:
Lfunc_end9:
	.cfi_endproc
	.p2align	2, 0x90
	.data_region jt32
.set L9_0_set_5, LBB9_5-LJTI9_0
.set L9_0_set_6, LBB9_6-LJTI9_0
.set L9_0_set_3, LBB9_3-LJTI9_0
.set L9_0_set_4, LBB9_4-LJTI9_0
LJTI9_0:
	.long	L9_0_set_5
	.long	L9_0_set_6
	.long	L9_0_set_3
	.long	L9_0_set_4
	.end_data_region
	.section	__TEXT,__gcc_except_tab
	.p2align	2
GCC_except_table9:
Lexception0:
	.byte	255
	.byte	255
	.byte	1
	.uleb128 Lcst_end0-Lcst_begin0
Lcst_begin0:
	.uleb128 Ltmp67-Lfunc_begin9
	.uleb128 Ltmp66-Ltmp67
	.uleb128 Ltmp69-Lfunc_begin9
	.byte	0
	.uleb128 Ltmp66-Lfunc_begin9
	.uleb128 Lfunc_end9-Ltmp66
	.byte	0
	.byte	0
Lcst_end0:
	.p2align	2

	.section	__TEXT,__text,regular,pure_instructions
	.p2align	4, 0x90
__ZN3std2io5error14repr_bitpacked11decode_repr28_$u7b$$u7b$closure$u7d$$u7d$17hc56f803938ed810cE:
Lfunc_begin10:
	.loc	13 258 0 is_stmt 1
	.cfi_startproc
	pushq	%rbp
	.cfi_def_cfa_offset 16
	.cfi_offset %rbp, -16
	movq	%rsp, %rbp
	.cfi_def_cfa_register %rbp
	subq	$16, %rsp
	movq	%rdi, -16(%rbp)
Ltmp103:
	.loc	13 266 17 prologue_end
	callq	__ZN4core4hint21unreachable_unchecked17h1f80f13aed532ea1E
Ltmp104:
Lfunc_end10:
	.cfi_endproc

	.p2align	4, 0x90
__ZN3std2io5error14repr_bitpacked14kind_from_prim17hf543205ede3c4fbdE:
Lfunc_begin11:
	.loc	13 289 0
	.cfi_startproc
	pushq	%rbp
	.cfi_def_cfa_offset 16
	.cfi_offset %rbp, -16
	movq	%rsp, %rbp
	.cfi_def_cfa_register %rbp
	subq	$336, %rsp
	movl	%edi, -336(%rbp)
Ltmp105:
	.loc	13 302 5 prologue_end
	leaq	-336(%rbp), %rax
	movq	%rax, -328(%rbp)
	cmpl	$0, -336(%rbp)
	je	LBB11_2
	leaq	-336(%rbp), %rax
	movq	%rax, -320(%rbp)
	cmpl	$1, -336(%rbp)
	je	LBB11_5
	jmp	LBB11_4
LBB11_2:
Ltmp106:
	.loc	13 302 5 is_stmt 0
	movb	$0, -329(%rbp)
Ltmp107:
LBB11_3:
	.loc	13 345 2 is_stmt 1
	movb	-329(%rbp), %al
	addq	$336, %rsp
	popq	%rbp
	retq
LBB11_4:
	.loc	13 302 5
	leaq	-336(%rbp), %rax
	movq	%rax, -312(%rbp)
	cmpl	$2, -336(%rbp)
	je	LBB11_7
	jmp	LBB11_6
LBB11_5:
Ltmp108:
	.loc	13 302 5 is_stmt 0
	movb	$1, -329(%rbp)
Ltmp109:
	.loc	13 302 5
	jmp	LBB11_3
LBB11_6:
	leaq	-336(%rbp), %rax
	movq	%rax, -304(%rbp)
	cmpl	$3, -336(%rbp)
	je	LBB11_9
	jmp	LBB11_8
LBB11_7:
Ltmp110:
	.loc	13 302 5
	movb	$2, -329(%rbp)
Ltmp111:
	.loc	13 302 5
	jmp	LBB11_3
LBB11_8:
	leaq	-336(%rbp), %rax
	movq	%rax, -296(%rbp)
	cmpl	$4, -336(%rbp)
	je	LBB11_11
	jmp	LBB11_10
LBB11_9:
Ltmp112:
	.loc	13 302 5
	movb	$3, -329(%rbp)
Ltmp113:
	.loc	13 302 5
	jmp	LBB11_3
LBB11_10:
	leaq	-336(%rbp), %rax
	movq	%rax, -288(%rbp)
	cmpl	$5, -336(%rbp)
	je	LBB11_13
	jmp	LBB11_12
LBB11_11:
Ltmp114:
	.loc	13 302 5
	movb	$4, -329(%rbp)
Ltmp115:
	.loc	13 302 5
	jmp	LBB11_3
LBB11_12:
	leaq	-336(%rbp), %rax
	movq	%rax, -280(%rbp)
	cmpl	$6, -336(%rbp)
	je	LBB11_15
	jmp	LBB11_14
LBB11_13:
Ltmp116:
	.loc	13 302 5
	movb	$5, -329(%rbp)
Ltmp117:
	.loc	13 302 5
	jmp	LBB11_3
LBB11_14:
	leaq	-336(%rbp), %rax
	movq	%rax, -272(%rbp)
	cmpl	$7, -336(%rbp)
	je	LBB11_17
	jmp	LBB11_16
LBB11_15:
Ltmp118:
	.loc	13 302 5
	movb	$6, -329(%rbp)
Ltmp119:
	.loc	13 302 5
	jmp	LBB11_3
LBB11_16:
	leaq	-336(%rbp), %rax
	movq	%rax, -264(%rbp)
	cmpl	$8, -336(%rbp)
	je	LBB11_19
	jmp	LBB11_18
LBB11_17:
Ltmp120:
	.loc	13 302 5
	movb	$7, -329(%rbp)
Ltmp121:
	.loc	13 302 5
	jmp	LBB11_3
LBB11_18:
	leaq	-336(%rbp), %rax
	movq	%rax, -256(%rbp)
	cmpl	$9, -336(%rbp)
	je	LBB11_21
	jmp	LBB11_20
LBB11_19:
Ltmp122:
	.loc	13 302 5
	movb	$8, -329(%rbp)
Ltmp123:
	.loc	13 302 5
	jmp	LBB11_3
LBB11_20:
	leaq	-336(%rbp), %rax
	movq	%rax, -248(%rbp)
	cmpl	$10, -336(%rbp)
	je	LBB11_23
	jmp	LBB11_22
LBB11_21:
Ltmp124:
	.loc	13 302 5
	movb	$9, -329(%rbp)
Ltmp125:
	.loc	13 302 5
	jmp	LBB11_3
LBB11_22:
	leaq	-336(%rbp), %rax
	movq	%rax, -240(%rbp)
	cmpl	$11, -336(%rbp)
	je	LBB11_25
	jmp	LBB11_24
LBB11_23:
Ltmp126:
	.loc	13 302 5
	movb	$10, -329(%rbp)
Ltmp127:
	.loc	13 302 5
	jmp	LBB11_3
LBB11_24:
	leaq	-336(%rbp), %rax
	movq	%rax, -232(%rbp)
	cmpl	$12, -336(%rbp)
	je	LBB11_27
	jmp	LBB11_26
LBB11_25:
Ltmp128:
	.loc	13 302 5
	movb	$11, -329(%rbp)
Ltmp129:
	.loc	13 302 5
	jmp	LBB11_3
LBB11_26:
	leaq	-336(%rbp), %rax
	movq	%rax, -224(%rbp)
	cmpl	$13, -336(%rbp)
	je	LBB11_29
	jmp	LBB11_28
LBB11_27:
Ltmp130:
	.loc	13 302 5
	movb	$12, -329(%rbp)
Ltmp131:
	.loc	13 302 5
	jmp	LBB11_3
LBB11_28:
	leaq	-336(%rbp), %rax
	movq	%rax, -216(%rbp)
	cmpl	$14, -336(%rbp)
	je	LBB11_31
	jmp	LBB11_30
LBB11_29:
Ltmp132:
	.loc	13 302 5
	movb	$13, -329(%rbp)
Ltmp133:
	.loc	13 302 5
	jmp	LBB11_3
LBB11_30:
	leaq	-336(%rbp), %rax
	movq	%rax, -208(%rbp)
	cmpl	$15, -336(%rbp)
	je	LBB11_33
	jmp	LBB11_32
LBB11_31:
Ltmp134:
	.loc	13 302 5
	movb	$14, -329(%rbp)
Ltmp135:
	.loc	13 302 5
	jmp	LBB11_3
LBB11_32:
	leaq	-336(%rbp), %rax
	movq	%rax, -200(%rbp)
	cmpl	$16, -336(%rbp)
	je	LBB11_35
	jmp	LBB11_34
LBB11_33:
Ltmp136:
	.loc	13 302 5
	movb	$15, -329(%rbp)
Ltmp137:
	.loc	13 302 5
	jmp	LBB11_3
LBB11_34:
	leaq	-336(%rbp), %rax
	movq	%rax, -192(%rbp)
	cmpl	$17, -336(%rbp)
	je	LBB11_37
	jmp	LBB11_36
LBB11_35:
Ltmp138:
	.loc	13 302 5
	movb	$16, -329(%rbp)
Ltmp139:
	.loc	13 302 5
	jmp	LBB11_3
LBB11_36:
	leaq	-336(%rbp), %rax
	movq	%rax, -184(%rbp)
	cmpl	$18, -336(%rbp)
	je	LBB11_39
	jmp	LBB11_38
LBB11_37:
Ltmp140:
	.loc	13 302 5
	movb	$17, -329(%rbp)
Ltmp141:
	.loc	13 302 5
	jmp	LBB11_3
LBB11_38:
	leaq	-336(%rbp), %rax
	movq	%rax, -176(%rbp)
	cmpl	$19, -336(%rbp)
	je	LBB11_41
	jmp	LBB11_40
LBB11_39:
Ltmp142:
	.loc	13 302 5
	movb	$18, -329(%rbp)
Ltmp143:
	.loc	13 302 5
	jmp	LBB11_3
LBB11_40:
	leaq	-336(%rbp), %rax
	movq	%rax, -168(%rbp)
	cmpl	$20, -336(%rbp)
	je	LBB11_43
	jmp	LBB11_42
LBB11_41:
Ltmp144:
	.loc	13 302 5
	movb	$19, -329(%rbp)
Ltmp145:
	.loc	13 302 5
	jmp	LBB11_3
LBB11_42:
	leaq	-336(%rbp), %rax
	movq	%rax, -160(%rbp)
	cmpl	$21, -336(%rbp)
	je	LBB11_45
	jmp	LBB11_44
LBB11_43:
Ltmp146:
	.loc	13 302 5
	movb	$20, -329(%rbp)
Ltmp147:
	.loc	13 302 5
	jmp	LBB11_3
LBB11_44:
	leaq	-336(%rbp), %rax
	movq	%rax, -152(%rbp)
	cmpl	$22, -336(%rbp)
	je	LBB11_47
	jmp	LBB11_46
LBB11_45:
Ltmp148:
	.loc	13 302 5
	movb	$21, -329(%rbp)
Ltmp149:
	.loc	13 302 5
	jmp	LBB11_3
LBB11_46:
	leaq	-336(%rbp), %rax
	movq	%rax, -144(%rbp)
	cmpl	$23, -336(%rbp)
	je	LBB11_49
	jmp	LBB11_48
LBB11_47:
Ltmp150:
	.loc	13 302 5
	movb	$22, -329(%rbp)
Ltmp151:
	.loc	13 302 5
	jmp	LBB11_3
LBB11_48:
	leaq	-336(%rbp), %rax
	movq	%rax, -136(%rbp)
	cmpl	$24, -336(%rbp)
	je	LBB11_51
	jmp	LBB11_50
LBB11_49:
Ltmp152:
	.loc	13 302 5
	movb	$23, -329(%rbp)
Ltmp153:
	.loc	13 302 5
	jmp	LBB11_3
LBB11_50:
	leaq	-336(%rbp), %rax
	movq	%rax, -128(%rbp)
	cmpl	$25, -336(%rbp)
	je	LBB11_53
	jmp	LBB11_52
LBB11_51:
Ltmp154:
	.loc	13 302 5
	movb	$24, -329(%rbp)
Ltmp155:
	.loc	13 302 5
	jmp	LBB11_3
LBB11_52:
	leaq	-336(%rbp), %rax
	movq	%rax, -120(%rbp)
	cmpl	$26, -336(%rbp)
	je	LBB11_55
	jmp	LBB11_54
LBB11_53:
Ltmp156:
	.loc	13 302 5
	movb	$25, -329(%rbp)
Ltmp157:
	.loc	13 302 5
	jmp	LBB11_3
LBB11_54:
	leaq	-336(%rbp), %rax
	movq	%rax, -112(%rbp)
	cmpl	$27, -336(%rbp)
	je	LBB11_57
	jmp	LBB11_56
LBB11_55:
Ltmp158:
	.loc	13 302 5
	movb	$26, -329(%rbp)
Ltmp159:
	.loc	13 302 5
	jmp	LBB11_3
LBB11_56:
	leaq	-336(%rbp), %rax
	movq	%rax, -104(%rbp)
	cmpl	$28, -336(%rbp)
	je	LBB11_59
	jmp	LBB11_58
LBB11_57:
Ltmp160:
	.loc	13 302 5
	movb	$27, -329(%rbp)
Ltmp161:
	.loc	13 302 5
	jmp	LBB11_3
LBB11_58:
	leaq	-336(%rbp), %rax
	movq	%rax, -96(%rbp)
	cmpl	$29, -336(%rbp)
	je	LBB11_61
	jmp	LBB11_60
LBB11_59:
Ltmp162:
	.loc	13 302 5
	movb	$28, -329(%rbp)
Ltmp163:
	.loc	13 302 5
	jmp	LBB11_3
LBB11_60:
	leaq	-336(%rbp), %rax
	movq	%rax, -88(%rbp)
	cmpl	$30, -336(%rbp)
	je	LBB11_63
	jmp	LBB11_62
LBB11_61:
Ltmp164:
	.loc	13 302 5
	movb	$29, -329(%rbp)
Ltmp165:
	.loc	13 302 5
	jmp	LBB11_3
LBB11_62:
	leaq	-336(%rbp), %rax
	movq	%rax, -80(%rbp)
	cmpl	$31, -336(%rbp)
	je	LBB11_65
	jmp	LBB11_64
LBB11_63:
Ltmp166:
	.loc	13 302 5
	movb	$30, -329(%rbp)
Ltmp167:
	.loc	13 302 5
	jmp	LBB11_3
LBB11_64:
	leaq	-336(%rbp), %rax
	movq	%rax, -72(%rbp)
	cmpl	$32, -336(%rbp)
	je	LBB11_67
	jmp	LBB11_66
LBB11_65:
Ltmp168:
	.loc	13 302 5
	movb	$31, -329(%rbp)
Ltmp169:
	.loc	13 302 5
	jmp	LBB11_3
LBB11_66:
	leaq	-336(%rbp), %rax
	movq	%rax, -64(%rbp)
	cmpl	$33, -336(%rbp)
	je	LBB11_69
	jmp	LBB11_68
LBB11_67:
Ltmp170:
	.loc	13 302 5
	movb	$32, -329(%rbp)
Ltmp171:
	.loc	13 302 5
	jmp	LBB11_3
LBB11_68:
	leaq	-336(%rbp), %rax
	movq	%rax, -56(%rbp)
	cmpl	$34, -336(%rbp)
	je	LBB11_71
	jmp	LBB11_70
LBB11_69:
Ltmp172:
	.loc	13 302 5
	movb	$33, -329(%rbp)
Ltmp173:
	.loc	13 302 5
	jmp	LBB11_3
LBB11_70:
	leaq	-336(%rbp), %rax
	movq	%rax, -48(%rbp)
	cmpl	$35, -336(%rbp)
	je	LBB11_73
	jmp	LBB11_72
LBB11_71:
Ltmp174:
	.loc	13 302 5
	movb	$34, -329(%rbp)
Ltmp175:
	.loc	13 302 5
	jmp	LBB11_3
LBB11_72:
	leaq	-336(%rbp), %rax
	movq	%rax, -40(%rbp)
	cmpl	$39, -336(%rbp)
	je	LBB11_75
	jmp	LBB11_74
LBB11_73:
Ltmp176:
	.loc	13 302 5
	movb	$35, -329(%rbp)
Ltmp177:
	.loc	13 302 5
	jmp	LBB11_3
LBB11_74:
	leaq	-336(%rbp), %rax
	movq	%rax, -32(%rbp)
	cmpl	$37, -336(%rbp)
	je	LBB11_77
	jmp	LBB11_76
LBB11_75:
Ltmp178:
	.loc	13 302 5
	movb	$39, -329(%rbp)
Ltmp179:
	.loc	13 302 5
	jmp	LBB11_3
LBB11_76:
	leaq	-336(%rbp), %rax
	movq	%rax, -24(%rbp)
	cmpl	$36, -336(%rbp)
	je	LBB11_79
	jmp	LBB11_78
LBB11_77:
Ltmp180:
	.loc	13 302 5
	movb	$37, -329(%rbp)
Ltmp181:
	.loc	13 302 5
	jmp	LBB11_3
LBB11_78:
	leaq	-336(%rbp), %rax
	movq	%rax, -16(%rbp)
	cmpl	$38, -336(%rbp)
	je	LBB11_81
	jmp	LBB11_80
LBB11_79:
Ltmp182:
	.loc	13 302 5
	movb	$36, -329(%rbp)
Ltmp183:
	.loc	13 302 5
	jmp	LBB11_3
LBB11_80:
	leaq	-336(%rbp), %rax
	movq	%rax, -8(%rbp)
	cmpl	$40, -336(%rbp)
	je	LBB11_83
	jmp	LBB11_82
LBB11_81:
Ltmp184:
	.loc	13 302 5
	movb	$38, -329(%rbp)
Ltmp185:
	.loc	13 302 5
	jmp	LBB11_3
LBB11_82:
	movb	$41, -329(%rbp)
	jmp	LBB11_3
LBB11_83:
Ltmp186:
	.loc	13 302 5
	movb	$40, -329(%rbp)
Ltmp187:
	.loc	13 302 5
	jmp	LBB11_3
Ltmp188:
Lfunc_end11:
	.cfi_endproc

	.private_extern	__ZN3std2rt10lang_start17ha3a9534aa0e10e82E
	.globl	__ZN3std2rt10lang_start17ha3a9534aa0e10e82E
	.p2align	4, 0x90
__ZN3std2rt10lang_start17ha3a9534aa0e10e82E:
Lfunc_begin12:
	.file	14 "/rustc/2c8cc343237b8f7d5a3c3703e3a87f2eb2c54a74/library/std/src" "rt.rs"
	.loc	14 159 0 is_stmt 1
	.cfi_startproc
	pushq	%rbp
	.cfi_def_cfa_offset 16
	.cfi_offset %rbp, -16
	movq	%rsp, %rbp
	.cfi_def_cfa_register %rbp
	subq	$64, %rsp
	movl	%ecx, %eax
	movq	%rdx, %rcx
	movq	%rsi, %rdx
	movq	%rdi, -40(%rbp)
	movq	%rdx, -32(%rbp)
	movq	%rcx, -24(%rbp)
	movb	%al, -9(%rbp)
Ltmp189:
	.loc	14 166 10 prologue_end
	movq	%rdi, -48(%rbp)
	.loc	14 165 17
	leaq	-48(%rbp), %rdi
	leaq	l___unnamed_1(%rip), %rsi
	movzbl	%al, %r8d
	callq	__ZN3std2rt19lang_start_internal17h72dc55d09e0a2397E
	movq	%rax, -56(%rbp)
	.loc	14 165 12 is_stmt 0
	movq	-56(%rbp), %rax
	movq	%rax, -8(%rbp)
	.loc	14 172 2 is_stmt 1
	addq	$64, %rsp
	popq	%rbp
	retq
Ltmp190:
Lfunc_end12:
	.cfi_endproc

	.p2align	4, 0x90
__ZN3std2rt10lang_start28_$u7b$$u7b$closure$u7d$$u7d$17h9945f5cad1ac6701E:
Lfunc_begin13:
	.loc	14 166 0
	.cfi_startproc
	pushq	%rbp
	.cfi_def_cfa_offset 16
	.cfi_offset %rbp, -16
	movq	%rsp, %rbp
	.cfi_def_cfa_register %rbp
	subq	$32, %rsp
	movq	%rdi, -16(%rbp)
Ltmp191:
	.loc	14 166 77 prologue_end
	movq	(%rdi), %rdi
	.loc	14 166 18 is_stmt 0
	callq	__ZN3std10sys_common9backtrace28__rust_begin_short_backtrace17h3e9223860b4d27bbE
	callq	__ZN54_$LT$$LP$$RP$$u20$as$u20$std..process..Termination$GT$6report17h980b3ab41bda4818E
	movb	%al, -17(%rbp)
Ltmp192:
	.file	15 "/rustc/2c8cc343237b8f7d5a3c3703e3a87f2eb2c54a74/library/std/src" "process.rs"
	.loc	15 1820 9 is_stmt 1
	leaq	-17(%rbp), %rax
	movq	%rax, -8(%rbp)
Ltmp193:
	.file	16 "/rustc/2c8cc343237b8f7d5a3c3703e3a87f2eb2c54a74/library/std/src/sys/unix/process" "process_common.rs"
	.loc	16 594 9
	movzbl	-17(%rbp), %eax
Ltmp194:
	.loc	14 166 100
	addq	$32, %rsp
	popq	%rbp
	retq
Ltmp195:
Lfunc_end13:
	.cfi_endproc

	.p2align	4, 0x90
__ZN3std3env6var_os17h868de02b50257fd2E:
Lfunc_begin14:
	.file	17 "/rustc/2c8cc343237b8f7d5a3c3703e3a87f2eb2c54a74/library/std/src" "env.rs"
	.loc	17 268 0
	.cfi_startproc
	.cfi_personality 155, _rust_eh_personality
	.cfi_lsda 16, Lexception1
	pushq	%rbp
	.cfi_def_cfa_offset 16
	.cfi_offset %rbp, -16
	movq	%rsp, %rbp
	.cfi_def_cfa_register %rbp
	subq	$64, %rsp
	movq	%rdi, -64(%rbp)
	movq	%rdi, -56(%rbp)
	movq	%rsi, -32(%rbp)
	movq	%rdx, -24(%rbp)
Ltmp196:
	leaq	-32(%rbp), %rdi
Ltmp201:
	.loc	17 269 13 prologue_end
	callq	__ZN55_$LT$$RF$T$u20$as$u20$core..convert..AsRef$LT$U$GT$$GT$6as_ref17h1dc040ab9a420123E
Ltmp197:
	movq	%rdx, -48(%rbp)
	movq	%rax, -40(%rbp)
	jmp	LBB14_3
LBB14_1:
	.loc	17 268 1
	movq	-16(%rbp), %rdi
	callq	__Unwind_Resume
LBB14_2:
Ltmp200:
	.loc	17 0 1 is_stmt 0
	movq	%rax, %rcx
	movl	%edx, %eax
	movq	%rcx, -16(%rbp)
	movl	%eax, -8(%rbp)
	jmp	LBB14_1
LBB14_3:
Ltmp198:
	movq	-48(%rbp), %rdx
	movq	-40(%rbp), %rsi
	movq	-64(%rbp), %rdi
	.loc	17 269 5 is_stmt 1
	callq	__ZN3std3env7_var_os17h71e71f6d7accb7a3E
Ltmp199:
	jmp	LBB14_4
LBB14_4:
	.loc	17 0 5 is_stmt 0
	movq	-56(%rbp), %rax
	.loc	17 270 2 is_stmt 1
	addq	$64, %rsp
	popq	%rbp
	retq
Ltmp202:
Lfunc_end14:
	.cfi_endproc
	.section	__TEXT,__gcc_except_tab
	.p2align	2
GCC_except_table14:
Lexception1:
	.byte	255
	.byte	255
	.byte	1
	.uleb128 Lcst_end1-Lcst_begin1
Lcst_begin1:
	.uleb128 Ltmp196-Lfunc_begin14
	.uleb128 Ltmp197-Ltmp196
	.uleb128 Ltmp200-Lfunc_begin14
	.byte	0
	.uleb128 Ltmp197-Lfunc_begin14
	.uleb128 Ltmp198-Ltmp197
	.byte	0
	.byte	0
	.uleb128 Ltmp198-Lfunc_begin14
	.uleb128 Ltmp199-Ltmp198
	.uleb128 Ltmp200-Lfunc_begin14
	.byte	0
Lcst_end1:
	.p2align	2

	.section	__TEXT,__text,regular,pure_instructions
	.p2align	4, 0x90
__ZN3std3ffi6os_str85_$LT$impl$u20$core..convert..AsRef$LT$std..ffi..os_str..OsStr$GT$$u20$for$u20$str$GT$6as_ref17h9f20806b4d11505dE:
Lfunc_begin15:
	.file	18 "/rustc/2c8cc343237b8f7d5a3c3703e3a87f2eb2c54a74/library/std/src/ffi" "os_str.rs"
	.loc	18 1321 0
	.cfi_startproc
	pushq	%rbp
	.cfi_def_cfa_offset 16
	.cfi_offset %rbp, -16
	movq	%rsp, %rbp
	.cfi_def_cfa_register %rbp
	subq	$112, %rsp
	movq	%rdi, -112(%rbp)
	movq	%rsi, -104(%rbp)
Ltmp203:
	.loc	18 1322 43 prologue_end
	movq	%rdi, -96(%rbp)
	movq	%rsi, -88(%rbp)
Ltmp204:
	.file	19 "/rustc/2c8cc343237b8f7d5a3c3703e3a87f2eb2c54a74/library/std/src/sys/unix" "os_str.rs"
	.loc	19 201 30
	movq	%rdi, -80(%rbp)
	movq	%rsi, -72(%rbp)
Ltmp205:
	.file	20 "/rustc/2c8cc343237b8f7d5a3c3703e3a87f2eb2c54a74/library/core/src/str" "mod.rs"
	.loc	20 327 18
	movq	%rdi, -64(%rbp)
	movq	%rsi, -56(%rbp)
	movq	-64(%rbp), %rcx
	movq	-56(%rbp), %rax
Ltmp206:
	.loc	19 201 30
	movq	%rcx, -48(%rbp)
	movq	%rax, -40(%rbp)
Ltmp207:
	.loc	19 196 18
	movq	%rcx, -32(%rbp)
	movq	%rax, -24(%rbp)
	movq	-32(%rbp), %rax
	movq	-24(%rbp), %rdx
Ltmp208:
	.loc	18 1322 27
	movq	%rax, -16(%rbp)
	movq	%rdx, -8(%rbp)
	.loc	18 1323 6
	addq	$112, %rsp
	popq	%rbp
	retq
Ltmp209:
Lfunc_end15:
	.cfi_endproc

	.p2align	4, 0x90
__ZN3std7process7Command3arg17h5d8938b078552acdE:
Lfunc_begin16:
	.loc	15 607 0
	.cfi_startproc
	.cfi_personality 155, _rust_eh_personality
	.cfi_lsda 16, Lexception2
	pushq	%rbp
	.cfi_def_cfa_offset 16
	.cfi_offset %rbp, -16
	movq	%rsp, %rbp
	.cfi_def_cfa_register %rbp
	subq	$64, %rsp
	movq	%rdi, -64(%rbp)
	movq	%rsi, -40(%rbp)
	movq	%rdx, -32(%rbp)
	movq	%rdi, -24(%rbp)
Ltmp210:
	leaq	-40(%rbp), %rdi
Ltmp215:
	.loc	15 608 24 prologue_end
	callq	__ZN55_$LT$$RF$T$u20$as$u20$core..convert..AsRef$LT$U$GT$$GT$6as_ref17h1dc040ab9a420123E
Ltmp211:
	movq	%rdx, -56(%rbp)
	movq	%rax, -48(%rbp)
	jmp	LBB16_3
LBB16_1:
	.loc	15 607 5
	movq	-16(%rbp), %rdi
	callq	__Unwind_Resume
LBB16_2:
Ltmp214:
	.loc	15 0 5 is_stmt 0
	movq	%rax, %rcx
	movl	%edx, %eax
	movq	%rcx, -16(%rbp)
	movl	%eax, -8(%rbp)
	jmp	LBB16_1
LBB16_3:
Ltmp212:
	movq	-56(%rbp), %rdx
	movq	-48(%rbp), %rsi
	movq	-64(%rbp), %rdi
	.loc	15 608 9 is_stmt 1
	callq	__ZN3std3sys4unix7process14process_common7Command3arg17hdfe06f44e19d0682E
Ltmp213:
	jmp	LBB16_4
LBB16_4:
	.loc	15 0 9 is_stmt 0
	movq	-64(%rbp), %rax
	.loc	15 610 6 is_stmt 1
	addq	$64, %rsp
	popq	%rbp
	retq
Ltmp216:
Lfunc_end16:
	.cfi_endproc
	.section	__TEXT,__gcc_except_tab
	.p2align	2
GCC_except_table16:
Lexception2:
	.byte	255
	.byte	255
	.byte	1
	.uleb128 Lcst_end2-Lcst_begin2
Lcst_begin2:
	.uleb128 Ltmp210-Lfunc_begin16
	.uleb128 Ltmp211-Ltmp210
	.uleb128 Ltmp214-Lfunc_begin16
	.byte	0
	.uleb128 Ltmp211-Lfunc_begin16
	.uleb128 Ltmp212-Ltmp211
	.byte	0
	.byte	0
	.uleb128 Ltmp212-Lfunc_begin16
	.uleb128 Ltmp213-Ltmp212
	.uleb128 Ltmp214-Lfunc_begin16
	.byte	0
Lcst_end2:
	.p2align	2

	.section	__TEXT,__text,regular,pure_instructions
	.p2align	4, 0x90
__ZN3std7process7Command3new17hdb995b62735c09c0E:
Lfunc_begin17:
	.loc	15 561 0
	.cfi_startproc
	.cfi_personality 155, _rust_eh_personality
	.cfi_lsda 16, Lexception3
	pushq	%rbp
	.cfi_def_cfa_offset 16
	.cfi_offset %rbp, -16
	movq	%rsp, %rbp
	.cfi_def_cfa_register %rbp
	subq	$272, %rsp
	movq	%rsi, -264(%rbp)
Ltmp225:
	movq	%rdi, %rax
	movq	-264(%rbp), %rdi
	movq	%rax, -256(%rbp)
	movq	%rax, -248(%rbp)
Ltmp217:
Ltmp226:
	.loc	15 562 44 prologue_end
	callq	__ZN98_$LT$std..ffi..os_str..OsString$u20$as$u20$core..convert..AsRef$LT$std..ffi..os_str..OsStr$GT$$GT$6as_ref17hc5e91f953d71e281E
Ltmp218:
	movq	%rdx, -240(%rbp)
	movq	%rax, -232(%rbp)
	jmp	LBB17_3
Ltmp227:
LBB17_1:
Ltmp222:
	.loc	15 0 44 is_stmt 0
	movq	-264(%rbp), %rdi
	.loc	15 563 5 is_stmt 1
	callq	__ZN4core3ptr47drop_in_place$LT$std..ffi..os_str..OsString$GT$17hbbe202a20fd676acE
Ltmp223:
	jmp	LBB17_6
Ltmp228:
LBB17_2:
Ltmp221:
	.loc	15 0 5 is_stmt 0
	movq	%rax, %rcx
	movl	%edx, %eax
	movq	%rcx, -16(%rbp)
	movl	%eax, -8(%rbp)
	jmp	LBB17_1
Ltmp229:
LBB17_3:
Ltmp219:
	movq	-240(%rbp), %rdx
	movq	-232(%rbp), %rsi
	leaq	-224(%rbp), %rdi
	.loc	15 562 26 is_stmt 1
	callq	__ZN3std3sys4unix7process14process_common7Command3new17hbc75e5b02e009ba8E
Ltmp220:
	jmp	LBB17_4
Ltmp230:
LBB17_4:
	.loc	15 0 26 is_stmt 0
	movq	-256(%rbp), %rdi
	.loc	15 562 9
	leaq	-224(%rbp), %rsi
	movl	$208, %edx
	callq	_memcpy
	movq	-264(%rbp), %rdi
	.loc	15 563 5 is_stmt 1
	callq	__ZN4core3ptr47drop_in_place$LT$std..ffi..os_str..OsString$GT$17hbbe202a20fd676acE
	movq	-248(%rbp), %rax
	.loc	15 563 6 is_stmt 0
	addq	$272, %rsp
	popq	%rbp
	retq
Ltmp231:
LBB17_5:
Ltmp224:
	.loc	15 561 5 is_stmt 1
	callq	__ZN4core9panicking19panic_cannot_unwind17h1fbca7e1d7f56ae1E
Ltmp232:
LBB17_6:
	movq	-16(%rbp), %rdi
	callq	__Unwind_Resume
Ltmp233:
Lfunc_end17:
	.cfi_endproc
	.section	__TEXT,__gcc_except_tab
	.p2align	2
GCC_except_table17:
Lexception3:
	.byte	255
	.byte	255
	.byte	1
	.uleb128 Lcst_end3-Lcst_begin3
Lcst_begin3:
	.uleb128 Ltmp217-Lfunc_begin17
	.uleb128 Ltmp218-Ltmp217
	.uleb128 Ltmp221-Lfunc_begin17
	.byte	0
	.uleb128 Ltmp222-Lfunc_begin17
	.uleb128 Ltmp223-Ltmp222
	.uleb128 Ltmp224-Lfunc_begin17
	.byte	0
	.uleb128 Ltmp219-Lfunc_begin17
	.uleb128 Ltmp220-Ltmp219
	.uleb128 Ltmp221-Lfunc_begin17
	.byte	0
	.uleb128 Ltmp220-Lfunc_begin17
	.uleb128 Lfunc_end17-Ltmp220
	.byte	0
	.byte	0
Lcst_end3:
	.p2align	2

	.section	__TEXT,__text,regular,pure_instructions
	.p2align	4, 0x90
__ZN4core3cmp5impls69_$LT$impl$u20$core..cmp..PartialEq$LT$$RF$B$GT$$u20$for$u20$$RF$A$GT$2eq17h42024dd60b6f059cE:
Lfunc_begin18:
	.file	21 "/rustc/2c8cc343237b8f7d5a3c3703e3a87f2eb2c54a74/library/core/src" "cmp.rs"
	.loc	21 1530 0
	.cfi_startproc
	pushq	%rbp
	.cfi_def_cfa_offset 16
	.cfi_offset %rbp, -16
	movq	%rsp, %rbp
	.cfi_def_cfa_register %rbp
	subq	$16, %rsp
	movq	%rsi, %rax
	movq	%rdi, %rcx
	movq	%rcx, -16(%rbp)
	movq	%rax, -8(%rbp)
Ltmp234:
	.loc	21 1531 27 prologue_end
	movq	(%rcx), %rdi
	movq	8(%rcx), %rsi
	.loc	21 1531 34 is_stmt 0
	movq	(%rax), %rdx
	movq	8(%rax), %rcx
	.loc	21 1531 13
	callq	__ZN4core3str6traits54_$LT$impl$u20$core..cmp..PartialEq$u20$for$u20$str$GT$2eq17hd9e08c1e9ea8361fE
	.loc	21 1532 10 is_stmt 1
	andb	$1, %al
	movzbl	%al, %eax
	addq	$16, %rsp
	popq	%rbp
	retq
Ltmp235:
Lfunc_end18:
	.cfi_endproc

	.p2align	4, 0x90
__ZN4core3cmp9PartialEq2ne17h2d449efc4b60c5efE:
Lfunc_begin19:
	.loc	21 227 0
	.cfi_startproc
	pushq	%rbp
	.cfi_def_cfa_offset 16
	.cfi_offset %rbp, -16
	movq	%rsp, %rbp
	.cfi_def_cfa_register %rbp
	subq	$16, %rsp
	movq	%rdi, -16(%rbp)
	movq	%rsi, -8(%rbp)
Ltmp236:
	.loc	21 228 10 prologue_end
	callq	__ZN70_$LT$core..option..Option$LT$T$GT$$u20$as$u20$core..cmp..PartialEq$GT$2eq17h2141df7c48b75e0fE
	.loc	21 228 9 is_stmt 0
	xorb	$-1, %al
	.loc	21 229 6 is_stmt 1
	andb	$1, %al
	movzbl	%al, %eax
	addq	$16, %rsp
	popq	%rbp
	retq
Ltmp237:
Lfunc_end19:
	.cfi_endproc

	.p2align	4, 0x90
__ZN4core3fmt9Arguments6new_v117h123eb87e7c662001E:
Lfunc_begin20:
	.file	22 "/rustc/2c8cc343237b8f7d5a3c3703e3a87f2eb2c54a74/library/core/src/fmt" "mod.rs"
	.loc	22 399 0
	.cfi_startproc
	pushq	%rbp
	.cfi_def_cfa_offset 16
	.cfi_offset %rbp, -16
	movq	%rsp, %rbp
	.cfi_def_cfa_register %rbp
	subq	$160, %rsp
	movq	%r8, -152(%rbp)
	movq	%rcx, -144(%rbp)
	movq	%rdx, -136(%rbp)
	movq	%rsi, -128(%rbp)
	movq	%rdi, -120(%rbp)
	movq	%rdi, -112(%rbp)
	movq	%rsi, -32(%rbp)
	movq	%rdx, -24(%rbp)
	movq	%rcx, -16(%rbp)
	movq	%r8, -8(%rbp)
Ltmp238:
	.loc	22 400 12 prologue_end
	cmpq	%r8, %rdx
	jb	LBB20_2
	.loc	22 0 12 is_stmt 0
	movq	-136(%rbp), %rax
	movq	-152(%rbp), %rcx
	.loc	22 400 56
	addq	$1, %rcx
	.loc	22 400 41
	cmpq	%rcx, %rax
	seta	%al
	.loc	22 400 12
	andb	$1, %al
	movb	%al, -97(%rbp)
	jmp	LBB20_3
LBB20_2:
	movb	$1, -97(%rbp)
LBB20_3:
	testb	$1, -97(%rbp)
	jne	LBB20_5
	.loc	22 0 12
	movq	-112(%rbp), %rax
	movq	-120(%rbp), %rcx
	movq	-152(%rbp), %rdx
	movq	-144(%rbp), %rsi
	movq	-136(%rbp), %rdi
	movq	-128(%rbp), %r8
	.loc	22 403 34 is_stmt 1
	movq	$0, -48(%rbp)
	.loc	22 403 9 is_stmt 0
	movq	%r8, 16(%rcx)
	movq	%rdi, 24(%rcx)
	movq	-48(%rbp), %r8
	movq	-40(%rbp), %rdi
	movq	%r8, (%rcx)
	movq	%rdi, 8(%rcx)
	movq	%rsi, 32(%rcx)
	movq	%rdx, 40(%rcx)
	.loc	22 404 6 is_stmt 1
	addq	$160, %rsp
	popq	%rbp
	retq
LBB20_5:
	.loc	22 401 13
	leaq	l___unnamed_4(%rip), %rsi
	leaq	l___unnamed_5(%rip), %rcx
	xorl	%eax, %eax
	movl	%eax, %r8d
	leaq	-96(%rbp), %rdi
	movq	%rdi, -160(%rbp)
	movl	$1, %edx
	callq	__ZN4core3fmt9Arguments6new_v117h123eb87e7c662001E
	movq	-160(%rbp), %rdi
	leaq	l___unnamed_6(%rip), %rsi
	callq	__ZN4core9panicking9panic_fmt17h9b5d807e24bcaaedE
Ltmp239:
Lfunc_end20:
	.cfi_endproc

	.p2align	4, 0x90
__ZN4core3mem12maybe_uninit20MaybeUninit$LT$T$GT$16assume_init_drop17h9f51593ae5dfa89cE:
Lfunc_begin21:
	.file	23 "/rustc/2c8cc343237b8f7d5a3c3703e3a87f2eb2c54a74/library/core/src/mem" "maybe_uninit.rs"
	.loc	23 724 0
	.cfi_startproc
	pushq	%rbp
	.cfi_def_cfa_offset 16
	.cfi_offset %rbp, -16
	movq	%rsp, %rbp
	.cfi_def_cfa_register %rbp
	subq	$16, %rsp
	movq	%rdi, -16(%rbp)
Ltmp240:
	.loc	23 728 37 prologue_end
	movq	%rdi, -8(%rbp)
	.loc	23 728 18 is_stmt 0
	callq	__ZN4core3ptr75drop_in_place$LT$core..option..Option$LT$std..ffi..os_str..OsString$GT$$GT$17hafb747f148c86c32E
	.loc	23 729 6 is_stmt 1
	addq	$16, %rsp
	popq	%rbp
	retq
Ltmp241:
Lfunc_end21:
	.cfi_endproc

	.p2align	4, 0x90
__ZN4core3mem12maybe_uninit20MaybeUninit$LT$T$GT$16assume_init_drop17hbf0b28bf72ad2804E:
Lfunc_begin22:
	.loc	23 724 0
	.cfi_startproc
	pushq	%rbp
	.cfi_def_cfa_offset 16
	.cfi_offset %rbp, -16
	movq	%rsp, %rbp
	.cfi_def_cfa_register %rbp
	subq	$16, %rsp
	movq	%rdi, -16(%rbp)
Ltmp242:
	.loc	23 728 37 prologue_end
	movq	%rdi, -8(%rbp)
	.loc	23 728 18 is_stmt 0
	callq	__ZN4core3ptr47drop_in_place$LT$std..ffi..os_str..OsString$GT$17hbbe202a20fd676acE
	.loc	23 729 6 is_stmt 1
	addq	$16, %rsp
	popq	%rbp
	retq
Ltmp243:
Lfunc_end22:
	.cfi_endproc

	.p2align	4, 0x90
__ZN4core3mem7replace17h39990e13506572f3E:
Lfunc_begin23:
	.file	24 "/rustc/2c8cc343237b8f7d5a3c3703e3a87f2eb2c54a74/library/core/src/mem" "mod.rs"
	.loc	24 905 0
	.cfi_startproc
	pushq	%rbp
	.cfi_def_cfa_offset 16
	.cfi_offset %rbp, -16
	movq	%rsp, %rbp
	.cfi_def_cfa_register %rbp
	subq	$208, %rsp
	movq	%rdx, -208(%rbp)
Ltmp244:
	movq	%rsi, -200(%rbp)
	movq	%rdi, -192(%rbp)
	movq	%rdi, -184(%rbp)
	movq	%rsi, -48(%rbp)
Ltmp245:
	.loc	24 910 32 prologue_end
	movq	%rsi, -40(%rbp)
Ltmp246:
	.loc	3 1157 34
	leaq	-144(%rbp), %rax
	movq	%rax, -32(%rbp)
	.loc	3 1157 9 is_stmt 0
	movq	(%rsi), %rax
	movq	%rax, -144(%rbp)
	movq	8(%rsi), %rax
	movq	%rax, -136(%rbp)
	movq	16(%rsi), %rax
	movq	%rax, -128(%rbp)
	movq	24(%rsi), %rax
	movq	%rax, -120(%rbp)
	.loc	3 1158 9 is_stmt 1
	movq	-144(%rbp), %rax
	movq	%rax, -112(%rbp)
	movq	-136(%rbp), %rax
	movq	%rax, -104(%rbp)
	movq	-128(%rbp), %rax
	movq	%rax, -96(%rbp)
	movq	-120(%rbp), %rax
	movq	%rax, -88(%rbp)
Ltmp247:
	.loc	3 0 9 is_stmt 0
	movq	-184(%rbp), %rax
	movq	-200(%rbp), %rcx
	movq	-208(%rbp), %rdx
	movq	-192(%rbp), %rsi
Ltmp248:
	.loc	23 627 38 is_stmt 1
	movq	-112(%rbp), %rdi
	movq	%rdi, -80(%rbp)
	movq	-104(%rbp), %rdi
	movq	%rdi, -72(%rbp)
	movq	-96(%rbp), %rdi
	movq	%rdi, -64(%rbp)
	movq	-88(%rbp), %rdi
	movq	%rdi, -56(%rbp)
Ltmp249:
	.loc	7 89 9
	movq	-80(%rbp), %rdi
	movq	%rdi, (%rsi)
	movq	-72(%rbp), %rdi
	movq	%rdi, 8(%rsi)
	movq	-64(%rbp), %rdi
	movq	%rdi, 16(%rsi)
	movq	-56(%rbp), %rdi
	movq	%rdi, 24(%rsi)
Ltmp250:
	.loc	24 911 20
	movq	%rcx, -8(%rbp)
	.loc	24 911 26 is_stmt 0
	movq	(%rdx), %rsi
	movq	%rsi, -176(%rbp)
	movq	8(%rdx), %rsi
	movq	%rsi, -168(%rbp)
	movq	16(%rdx), %rsi
	movq	%rsi, -160(%rbp)
	movq	24(%rdx), %rdx
	movq	%rdx, -152(%rbp)
Ltmp251:
	.loc	3 1354 9 is_stmt 1
	movq	-176(%rbp), %rdx
	movq	%rdx, (%rcx)
	movq	-168(%rbp), %rdx
	movq	%rdx, 8(%rcx)
	movq	-160(%rbp), %rdx
	movq	%rdx, 16(%rcx)
	movq	-152(%rbp), %rdx
	movq	%rdx, 24(%rcx)
Ltmp252:
	.loc	24 914 2
	addq	$208, %rsp
	popq	%rbp
	retq
Ltmp253:
Lfunc_end23:
	.cfi_endproc

	.p2align	4, 0x90
__ZN4core3mem7replace17h4656a6e76bbc264bE:
Lfunc_begin24:
	.loc	24 905 0
	.cfi_startproc
	pushq	%rbp
	.cfi_def_cfa_offset 16
	.cfi_offset %rbp, -16
	movq	%rsp, %rbp
	.cfi_def_cfa_register %rbp
	subq	$184, %rsp
	movq	%rdi, -184(%rbp)
	movq	%rsi, -176(%rbp)
	movq	%rdx, -168(%rbp)
	movq	%rdi, -112(%rbp)
	movq	%rsi, -104(%rbp)
	movq	%rdx, -96(%rbp)
Ltmp254:
	.loc	24 910 32 prologue_end
	movq	%rdi, -88(%rbp)
Ltmp255:
	.loc	3 1157 34
	leaq	-128(%rbp), %rax
	movq	%rax, -80(%rbp)
	.loc	3 1157 9 is_stmt 0
	movq	(%rdi), %rax
	movq	%rax, -128(%rbp)
	movq	8(%rdi), %rax
	movq	%rax, -120(%rbp)
	.loc	3 1158 9 is_stmt 1
	movq	-128(%rbp), %rcx
	movq	%rcx, -160(%rbp)
	movq	-120(%rbp), %rax
	movq	%rax, -152(%rbp)
	movq	%rcx, -72(%rbp)
	movq	%rax, -64(%rbp)
	.loc	3 0 9 is_stmt 0
	movq	-152(%rbp), %rdx
	movq	-160(%rbp), %rax
	movq	-184(%rbp), %rcx
	movq	-168(%rbp), %rsi
	movq	-176(%rbp), %rdi
Ltmp256:
	.loc	23 627 38 is_stmt 1
	movq	%rax, -40(%rbp)
	movq	%rdx, -32(%rbp)
Ltmp257:
	.loc	7 89 9
	movq	%rax, -24(%rbp)
	movq	%rdx, -16(%rbp)
Ltmp258:
	.loc	24 911 20
	movq	%rcx, -8(%rbp)
	.loc	24 911 26 is_stmt 0
	movq	%rdi, -144(%rbp)
	movq	%rsi, -136(%rbp)
Ltmp259:
	.loc	3 1354 9 is_stmt 1
	movq	-144(%rbp), %rsi
	movq	-136(%rbp), %rdi
	movq	%rdi, 8(%rcx)
	movq	%rsi, (%rcx)
Ltmp260:
	.loc	24 914 2
	addq	$184, %rsp
	popq	%rbp
	retq
Ltmp261:
Lfunc_end24:
	.cfi_endproc

	.p2align	4, 0x90
__ZN4core3ops8function6FnOnce40call_once$u7b$$u7b$vtable.shim$u7d$$u7d$17h456d5429f56010f0E:
Lfunc_begin25:
	.file	25 "/rustc/2c8cc343237b8f7d5a3c3703e3a87f2eb2c54a74/library/core/src/ops" "function.rs"
	.loc	25 250 0
	.cfi_startproc
	pushq	%rbp
	.cfi_def_cfa_offset 16
	.cfi_offset %rbp, -16
	movq	%rsp, %rbp
	.cfi_def_cfa_register %rbp
	subq	$16, %rsp
	movq	%rdi, -8(%rbp)
Ltmp262:
	.loc	25 250 5 prologue_end
	movq	(%rdi), %rdi
	callq	__ZN4core3ops8function6FnOnce9call_once17h6a8e097a1b1f18b4E
	addq	$16, %rsp
	popq	%rbp
	retq
Ltmp263:
Lfunc_end25:
	.cfi_endproc

	.p2align	4, 0x90
__ZN4core3ops8function6FnOnce9call_once17h294830cdfccab7edE:
Lfunc_begin26:
	.loc	25 250 0
	.cfi_startproc
	pushq	%rbp
	.cfi_def_cfa_offset 16
	.cfi_offset %rbp, -16
	movq	%rsp, %rbp
	.cfi_def_cfa_register %rbp
	subq	$16, %rsp
	movq	%rdi, -8(%rbp)
Ltmp264:
	.loc	25 250 5 prologue_end
	callq	*%rdi
	addq	$16, %rsp
	popq	%rbp
	retq
Ltmp265:
Lfunc_end26:
	.cfi_endproc

	.p2align	4, 0x90
__ZN4core3ops8function6FnOnce9call_once17h6a8e097a1b1f18b4E:
Lfunc_begin27:
	.loc	25 250 0
	.cfi_startproc
	.cfi_personality 155, _rust_eh_personality
	.cfi_lsda 16, Lexception4
	pushq	%rbp
	.cfi_def_cfa_offset 16
	.cfi_offset %rbp, -16
	movq	%rsp, %rbp
	.cfi_def_cfa_register %rbp
	subq	$48, %rsp
	movq	%rdi, -32(%rbp)
Ltmp266:
	leaq	-32(%rbp), %rdi
Ltmp269:
	.loc	25 250 5 prologue_end
	callq	__ZN3std2rt10lang_start28_$u7b$$u7b$closure$u7d$$u7d$17h9945f5cad1ac6701E
Ltmp267:
	movl	%eax, -36(%rbp)
	jmp	LBB27_3
LBB27_1:
	movq	-16(%rbp), %rdi
	callq	__Unwind_Resume
LBB27_2:
Ltmp268:
	.loc	25 0 5 is_stmt 0
	movq	%rax, %rcx
	movl	%edx, %eax
	movq	%rcx, -16(%rbp)
	movl	%eax, -8(%rbp)
	jmp	LBB27_1
LBB27_3:
	movl	-36(%rbp), %eax
	.loc	25 250 5
	addq	$48, %rsp
	popq	%rbp
	retq
Ltmp270:
Lfunc_end27:
	.cfi_endproc
	.section	__TEXT,__gcc_except_tab
	.p2align	2
GCC_except_table27:
Lexception4:
	.byte	255
	.byte	255
	.byte	1
	.uleb128 Lcst_end4-Lcst_begin4
Lcst_begin4:
	.uleb128 Ltmp266-Lfunc_begin27
	.uleb128 Ltmp267-Ltmp266
	.uleb128 Ltmp268-Lfunc_begin27
	.byte	0
	.uleb128 Ltmp267-Lfunc_begin27
	.uleb128 Lfunc_end27-Ltmp267
	.byte	0
	.byte	0
Lcst_end4:
	.p2align	2

	.section	__TEXT,__text,regular,pure_instructions
	.p2align	4, 0x90
__ZN4core3ptr101drop_in_place$LT$std..io..error..ErrorData$LT$alloc..boxed..Box$LT$std..io..error..Custom$GT$$GT$$GT$17hd7274fb4f1b62cf3E:
Lfunc_begin28:
	.loc	3 490 0 is_stmt 1
	.cfi_startproc
	pushq	%rbp
	.cfi_def_cfa_offset 16
	.cfi_offset %rbp, -16
	movq	%rsp, %rbp
	.cfi_def_cfa_register %rbp
	subq	$16, %rsp
	movq	%rdi, -16(%rbp)
	movq	%rdi, -8(%rbp)
Ltmp271:
	.loc	3 490 1 prologue_end
	movb	(%rdi), %al
	subb	$3, %al
	jb	LBB28_2
	jmp	LBB28_1
LBB28_1:
	.loc	3 0 1 is_stmt 0
	movq	-16(%rbp), %rdi
	.loc	3 490 1
	addq	$8, %rdi
	callq	__ZN4core3ptr68drop_in_place$LT$alloc..boxed..Box$LT$std..io..error..Custom$GT$$GT$17h03246dc1e9ecf983E
LBB28_2:
	addq	$16, %rsp
	popq	%rbp
	retq
Ltmp272:
Lfunc_end28:
	.cfi_endproc

	.p2align	4, 0x90
__ZN4core3ptr118drop_in_place$LT$alloc..boxed..Box$LT$dyn$u20$core..error..Error$u2b$core..marker..Send$u2b$core..marker..Sync$GT$$GT$17h0f624cf64efee7eeE:
Lfunc_begin29:
	.loc	3 490 0 is_stmt 1
	.cfi_startproc
	.cfi_personality 155, _rust_eh_personality
	.cfi_lsda 16, Lexception5
	pushq	%rbp
	.cfi_def_cfa_offset 16
	.cfi_offset %rbp, -16
	movq	%rsp, %rbp
	.cfi_def_cfa_register %rbp
	subq	$32, %rsp
	movq	%rdi, %rax
	movq	%rax, -32(%rbp)
	movq	%rax, -24(%rbp)
Ltmp279:
	.loc	3 490 1 prologue_end
	movq	(%rax), %rdi
	movq	8(%rax), %rax
	movq	(%rax), %rax
Ltmp273:
	callq	*%rax
Ltmp274:
	jmp	LBB29_3
LBB29_1:
	.loc	3 0 1 is_stmt 0
	movq	-32(%rbp), %rax
	.loc	3 490 1
	movq	(%rax), %rdi
	movq	8(%rax), %rsi
Ltmp276:
	callq	__ZN5alloc5alloc8box_free17hc651461441a16f1fE
Ltmp277:
	jmp	LBB29_5
LBB29_2:
Ltmp275:
	.loc	3 0 1
	movq	%rax, %rcx
	movl	%edx, %eax
	movq	%rcx, -16(%rbp)
	movl	%eax, -8(%rbp)
	jmp	LBB29_1
LBB29_3:
	movq	-32(%rbp), %rax
	.loc	3 490 1
	movq	(%rax), %rdi
	movq	8(%rax), %rsi
	callq	__ZN5alloc5alloc8box_free17hc651461441a16f1fE
	addq	$32, %rsp
	popq	%rbp
	retq
LBB29_4:
Ltmp278:
	callq	__ZN4core9panicking19panic_cannot_unwind17h1fbca7e1d7f56ae1E
LBB29_5:
	movq	-16(%rbp), %rdi
	callq	__Unwind_Resume
Ltmp280:
Lfunc_end29:
	.cfi_endproc
	.section	__TEXT,__gcc_except_tab
	.p2align	2
GCC_except_table29:
Lexception5:
	.byte	255
	.byte	255
	.byte	1
	.uleb128 Lcst_end5-Lcst_begin5
Lcst_begin5:
	.uleb128 Ltmp273-Lfunc_begin29
	.uleb128 Ltmp274-Ltmp273
	.uleb128 Ltmp275-Lfunc_begin29
	.byte	0
	.uleb128 Ltmp276-Lfunc_begin29
	.uleb128 Ltmp277-Ltmp276
	.uleb128 Ltmp278-Lfunc_begin29
	.byte	0
	.uleb128 Ltmp277-Lfunc_begin29
	.uleb128 Lfunc_end29-Ltmp277
	.byte	0
	.byte	0
Lcst_end5:
	.p2align	2

	.section	__TEXT,__text,regular,pure_instructions
	.p2align	4, 0x90
__ZN4core3ptr152drop_in_place$LT$alloc..collections..btree..map..BTreeMap$LT$std..ffi..os_str..OsString$C$core..option..Option$LT$std..ffi..os_str..OsString$GT$$GT$$GT$17h28945e2d53aedf3eE:
Lfunc_begin30:
	.loc	3 490 0 is_stmt 1
	.cfi_startproc
	pushq	%rbp
	.cfi_def_cfa_offset 16
	.cfi_offset %rbp, -16
	movq	%rsp, %rbp
	.cfi_def_cfa_register %rbp
	subq	$16, %rsp
	movq	%rdi, -8(%rbp)
Ltmp281:
	.loc	3 490 1 prologue_end
	callq	__ZN99_$LT$alloc..collections..btree..map..BTreeMap$LT$K$C$V$C$A$GT$$u20$as$u20$core..ops..drop..Drop$GT$4drop17h616c6322d4f5abb8E
	addq	$16, %rsp
	popq	%rbp
	retq
Ltmp282:
Lfunc_end30:
	.cfi_endproc

	.p2align	4, 0x90
__ZN4core3ptr152drop_in_place$LT$alloc..collections..btree..map..IntoIter$LT$std..ffi..os_str..OsString$C$core..option..Option$LT$std..ffi..os_str..OsString$GT$$GT$$GT$17he08751bfb69f6331E:
Lfunc_begin31:
	.loc	3 490 0
	.cfi_startproc
	pushq	%rbp
	.cfi_def_cfa_offset 16
	.cfi_offset %rbp, -16
	movq	%rsp, %rbp
	.cfi_def_cfa_register %rbp
	subq	$16, %rsp
	movq	%rdi, -8(%rbp)
Ltmp283:
	.loc	3 490 1 prologue_end
	callq	__ZN99_$LT$alloc..collections..btree..map..IntoIter$LT$K$C$V$C$A$GT$$u20$as$u20$core..ops..drop..Drop$GT$4drop17hd91f5cea5109c5eeE
	addq	$16, %rsp
	popq	%rbp
	retq
Ltmp284:
Lfunc_end31:
	.cfi_endproc

	.p2align	4, 0x90
__ZN4core3ptr203drop_in_place$LT$dyn$u20$core..ops..function..FnMut$LT$$LP$$RP$$GT$$u2b$Output$u20$$u3d$$u20$core..result..Result$LT$$LP$$RP$$C$std..io..error..Error$GT$$u2b$core..marker..Send$u2b$core..marker..Sync$GT$17he9d824406e7559e8E:
Lfunc_begin32:
	.loc	3 490 0
	.cfi_startproc
	pushq	%rbp
	.cfi_def_cfa_offset 16
	.cfi_offset %rbp, -16
	movq	%rsp, %rbp
	.cfi_def_cfa_register %rbp
	subq	$16, %rsp
	movq	%rdi, -16(%rbp)
	movq	%rsi, -8(%rbp)
Ltmp285:
	.loc	3 490 1 prologue_end
	callq	*(%rsi)
	addq	$16, %rsp
	popq	%rbp
	retq
Ltmp286:
Lfunc_end32:
	.cfi_endproc

	.p2align	4, 0x90
__ZN4core3ptr228drop_in_place$LT$alloc..boxed..Box$LT$dyn$u20$core..ops..function..FnMut$LT$$LP$$RP$$GT$$u2b$Output$u20$$u3d$$u20$core..result..Result$LT$$LP$$RP$$C$std..io..error..Error$GT$$u2b$core..marker..Send$u2b$core..marker..Sync$GT$$GT$17he8d4c5ba0ed8adbfE:
Lfunc_begin33:
	.loc	3 490 0
	.cfi_startproc
	.cfi_personality 155, _rust_eh_personality
	.cfi_lsda 16, Lexception6
	pushq	%rbp
	.cfi_def_cfa_offset 16
	.cfi_offset %rbp, -16
	movq	%rsp, %rbp
	.cfi_def_cfa_register %rbp
	subq	$32, %rsp
	movq	%rdi, %rax
	movq	%rax, -32(%rbp)
	movq	%rax, -24(%rbp)
Ltmp293:
	.loc	3 490 1 prologue_end
	movq	(%rax), %rdi
	movq	8(%rax), %rax
	movq	(%rax), %rax
Ltmp287:
	callq	*%rax
Ltmp288:
	jmp	LBB33_3
LBB33_1:
	.loc	3 0 1 is_stmt 0
	movq	-32(%rbp), %rax
	.loc	3 490 1
	movq	(%rax), %rdi
	movq	8(%rax), %rsi
Ltmp290:
	callq	__ZN5alloc5alloc8box_free17he9457fe3877ca4d9E
Ltmp291:
	jmp	LBB33_5
LBB33_2:
Ltmp289:
	.loc	3 0 1
	movq	%rax, %rcx
	movl	%edx, %eax
	movq	%rcx, -16(%rbp)
	movl	%eax, -8(%rbp)
	jmp	LBB33_1
LBB33_3:
	movq	-32(%rbp), %rax
	.loc	3 490 1
	movq	(%rax), %rdi
	movq	8(%rax), %rsi
	callq	__ZN5alloc5alloc8box_free17he9457fe3877ca4d9E
	addq	$32, %rsp
	popq	%rbp
	retq
LBB33_4:
Ltmp292:
	callq	__ZN4core9panicking19panic_cannot_unwind17h1fbca7e1d7f56ae1E
LBB33_5:
	movq	-16(%rbp), %rdi
	callq	__Unwind_Resume
Ltmp294:
Lfunc_end33:
	.cfi_endproc
	.section	__TEXT,__gcc_except_tab
	.p2align	2
GCC_except_table33:
Lexception6:
	.byte	255
	.byte	255
	.byte	1
	.uleb128 Lcst_end6-Lcst_begin6
Lcst_begin6:
	.uleb128 Ltmp287-Lfunc_begin33
	.uleb128 Ltmp288-Ltmp287
	.uleb128 Ltmp289-Lfunc_begin33
	.byte	0
	.uleb128 Ltmp290-Lfunc_begin33
	.uleb128 Ltmp291-Ltmp290
	.uleb128 Ltmp292-Lfunc_begin33
	.byte	0
	.uleb128 Ltmp291-Lfunc_begin33
	.uleb128 Lfunc_end33-Ltmp291
	.byte	0
	.byte	0
Lcst_end6:
	.p2align	2

	.section	__TEXT,__text,regular,pure_instructions
	.p2align	4, 0x90
__ZN4core3ptr238drop_in_place$LT$$u5b$alloc..boxed..Box$LT$dyn$u20$core..ops..function..FnMut$LT$$LP$$RP$$GT$$u2b$Output$u20$$u3d$$u20$core..result..Result$LT$$LP$$RP$$C$std..io..error..Error$GT$$u2b$core..marker..Send$u2b$core..marker..Sync$GT$$u5d$$GT$17h0bf2569a953da6c5E:
Lfunc_begin34:
	.loc	3 490 0 is_stmt 1
	.cfi_startproc
	.cfi_personality 155, _rust_eh_personality
	.cfi_lsda 16, Lexception7
	pushq	%rbp
	.cfi_def_cfa_offset 16
	.cfi_offset %rbp, -16
	movq	%rsp, %rbp
	.cfi_def_cfa_register %rbp
	subq	$80, %rsp
	movq	%rdi, -64(%rbp)
	movq	%rsi, -56(%rbp)
	movq	%rdi, -32(%rbp)
	movq	%rsi, -24(%rbp)
Ltmp306:
	.loc	3 490 1 prologue_end
	xorl	%eax, %eax
	testb	$1, %al
	jne	LBB34_1
	jmp	LBB34_2
LBB34_1:
	movq	$0, -48(%rbp)
	jmp	LBB34_11
LBB34_2:
	.loc	3 0 1 is_stmt 0
	movq	-56(%rbp), %rax
	movq	-64(%rbp), %rcx
	.loc	3 490 1
	movq	%rcx, -40(%rbp)
	shlq	$4, %rax
	addq	-40(%rbp), %rax
	movq	%rax, -72(%rbp)
LBB34_3:
	.loc	3 0 1
	movq	-72(%rbp), %rax
	.loc	3 490 1
	cmpq	%rax, -40(%rbp)
	je	LBB34_5
	movq	-40(%rbp), %rdi
	movq	%rdi, %rax
	addq	$16, %rax
	movq	%rax, -40(%rbp)
Ltmp295:
	callq	__ZN4core3ptr228drop_in_place$LT$alloc..boxed..Box$LT$dyn$u20$core..ops..function..FnMut$LT$$LP$$RP$$GT$$u2b$Output$u20$$u3d$$u20$core..result..Result$LT$$LP$$RP$$C$std..io..error..Error$GT$$u2b$core..marker..Send$u2b$core..marker..Sync$GT$$GT$17he8d4c5ba0ed8adbfE
Ltmp296:
	jmp	LBB34_3
LBB34_5:
	addq	$80, %rsp
	popq	%rbp
	retq
LBB34_6:
	.loc	3 0 1
	movq	-72(%rbp), %rax
	.loc	3 490 1
	cmpq	%rax, -40(%rbp)
	je	LBB34_9
	jmp	LBB34_8
LBB34_7:
Ltmp297:
	.loc	3 0 1
	movq	%rax, %rcx
	movl	%edx, %eax
	movq	%rcx, -16(%rbp)
	movl	%eax, -8(%rbp)
	jmp	LBB34_6
LBB34_8:
	.loc	3 490 1
	movq	-40(%rbp), %rdi
	movq	%rdi, %rax
	addq	$16, %rax
	movq	%rax, -40(%rbp)
Ltmp298:
	callq	__ZN4core3ptr228drop_in_place$LT$alloc..boxed..Box$LT$dyn$u20$core..ops..function..FnMut$LT$$LP$$RP$$GT$$u2b$Output$u20$$u3d$$u20$core..result..Result$LT$$LP$$RP$$C$std..io..error..Error$GT$$u2b$core..marker..Send$u2b$core..marker..Sync$GT$$GT$17he8d4c5ba0ed8adbfE
Ltmp299:
	jmp	LBB34_6
LBB34_9:
	movq	-16(%rbp), %rdi
	callq	__Unwind_Resume
LBB34_10:
Ltmp305:
	callq	__ZN4core9panicking19panic_cannot_unwind17h1fbca7e1d7f56ae1E
LBB34_11:
	.loc	3 0 1
	movq	-56(%rbp), %rax
	.loc	3 490 1
	cmpq	%rax, -48(%rbp)
	je	LBB34_5
	.loc	3 0 1
	movq	-64(%rbp), %rdi
	.loc	3 490 1
	movq	-48(%rbp), %rax
	movq	%rax, %rcx
	shlq	$4, %rcx
	addq	%rcx, %rdi
	incq	%rax
	movq	%rax, -48(%rbp)
Ltmp300:
	callq	__ZN4core3ptr228drop_in_place$LT$alloc..boxed..Box$LT$dyn$u20$core..ops..function..FnMut$LT$$LP$$RP$$GT$$u2b$Output$u20$$u3d$$u20$core..result..Result$LT$$LP$$RP$$C$std..io..error..Error$GT$$u2b$core..marker..Send$u2b$core..marker..Sync$GT$$GT$17he8d4c5ba0ed8adbfE
Ltmp301:
	jmp	LBB34_11
LBB34_13:
	.loc	3 0 1
	movq	-56(%rbp), %rax
	.loc	3 490 1
	cmpq	%rax, -48(%rbp)
	je	LBB34_9
	jmp	LBB34_15
LBB34_14:
Ltmp302:
	.loc	3 0 1
	movq	%rax, %rcx
	movl	%edx, %eax
	movq	%rcx, -16(%rbp)
	movl	%eax, -8(%rbp)
	jmp	LBB34_13
LBB34_15:
	movq	-64(%rbp), %rdi
	.loc	3 490 1
	movq	-48(%rbp), %rax
	movq	%rax, %rcx
	shlq	$4, %rcx
	addq	%rcx, %rdi
	incq	%rax
	movq	%rax, -48(%rbp)
Ltmp303:
	callq	__ZN4core3ptr228drop_in_place$LT$alloc..boxed..Box$LT$dyn$u20$core..ops..function..FnMut$LT$$LP$$RP$$GT$$u2b$Output$u20$$u3d$$u20$core..result..Result$LT$$LP$$RP$$C$std..io..error..Error$GT$$u2b$core..marker..Send$u2b$core..marker..Sync$GT$$GT$17he8d4c5ba0ed8adbfE
Ltmp304:
	jmp	LBB34_13
Ltmp307:
Lfunc_end34:
	.cfi_endproc
	.section	__TEXT,__gcc_except_tab
	.p2align	2
GCC_except_table34:
Lexception7:
	.byte	255
	.byte	255
	.byte	1
	.uleb128 Lcst_end7-Lcst_begin7
Lcst_begin7:
	.uleb128 Ltmp295-Lfunc_begin34
	.uleb128 Ltmp296-Ltmp295
	.uleb128 Ltmp297-Lfunc_begin34
	.byte	0
	.uleb128 Ltmp298-Lfunc_begin34
	.uleb128 Ltmp299-Ltmp298
	.uleb128 Ltmp305-Lfunc_begin34
	.byte	0
	.uleb128 Ltmp299-Lfunc_begin34
	.uleb128 Ltmp300-Ltmp299
	.byte	0
	.byte	0
	.uleb128 Ltmp300-Lfunc_begin34
	.uleb128 Ltmp301-Ltmp300
	.uleb128 Ltmp302-Lfunc_begin34
	.byte	0
	.uleb128 Ltmp303-Lfunc_begin34
	.uleb128 Ltmp304-Ltmp303
	.uleb128 Ltmp305-Lfunc_begin34
	.byte	0
Lcst_end7:
	.p2align	2

	.section	__TEXT,__text,regular,pure_instructions
	.p2align	4, 0x90
__ZN4core3ptr250drop_in_place$LT$$LT$alloc..collections..btree..map..IntoIter$LT$K$C$V$C$A$GT$$u20$as$u20$core..ops..drop..Drop$GT$..drop..DropGuard$LT$std..ffi..os_str..OsString$C$core..option..Option$LT$std..ffi..os_str..OsString$GT$$C$alloc..alloc..Global$GT$$GT$17h95b54fb2ad6df1ddE:
Lfunc_begin35:
	.loc	3 490 0 is_stmt 1
	.cfi_startproc
	pushq	%rbp
	.cfi_def_cfa_offset 16
	.cfi_offset %rbp, -16
	movq	%rsp, %rbp
	.cfi_def_cfa_register %rbp
	subq	$16, %rsp
	movq	%rdi, -8(%rbp)
Ltmp308:
	.loc	3 490 1 prologue_end
	callq	__ZN174_$LT$$LT$alloc..collections..btree..map..IntoIter$LT$K$C$V$C$A$GT$$u20$as$u20$core..ops..drop..Drop$GT$..drop..DropGuard$LT$K$C$V$C$A$GT$$u20$as$u20$core..ops..drop..Drop$GT$4drop17hda831038cfd41deaE
	addq	$16, %rsp
	popq	%rbp
	retq
Ltmp309:
Lfunc_end35:
	.cfi_endproc

	.p2align	4, 0x90
__ZN4core3ptr251drop_in_place$LT$alloc..vec..Vec$LT$alloc..boxed..Box$LT$dyn$u20$core..ops..function..FnMut$LT$$LP$$RP$$GT$$u2b$Output$u20$$u3d$$u20$core..result..Result$LT$$LP$$RP$$C$std..io..error..Error$GT$$u2b$core..marker..Send$u2b$core..marker..Sync$GT$$GT$$GT$17hfa09ee7afbe03211E:
Lfunc_begin36:
	.loc	3 490 0
	.cfi_startproc
	.cfi_personality 155, _rust_eh_personality
	.cfi_lsda 16, Lexception8
	pushq	%rbp
	.cfi_def_cfa_offset 16
	.cfi_offset %rbp, -16
	movq	%rsp, %rbp
	.cfi_def_cfa_register %rbp
	subq	$32, %rsp
	movq	%rdi, -32(%rbp)
	movq	%rdi, -24(%rbp)
Ltmp310:
Ltmp316:
	.loc	3 490 1 prologue_end
	callq	__ZN70_$LT$alloc..vec..Vec$LT$T$C$A$GT$$u20$as$u20$core..ops..drop..Drop$GT$4drop17h3d1311037985edcdE
Ltmp311:
	jmp	LBB36_3
LBB36_1:
Ltmp313:
	.loc	3 0 1 is_stmt 0
	movq	-32(%rbp), %rdi
	.loc	3 490 1
	callq	__ZN4core3ptr258drop_in_place$LT$alloc..raw_vec..RawVec$LT$alloc..boxed..Box$LT$dyn$u20$core..ops..function..FnMut$LT$$LP$$RP$$GT$$u2b$Output$u20$$u3d$$u20$core..result..Result$LT$$LP$$RP$$C$std..io..error..Error$GT$$u2b$core..marker..Send$u2b$core..marker..Sync$GT$$GT$$GT$17h293ceca24c2e3a3bE
Ltmp314:
	jmp	LBB36_5
LBB36_2:
Ltmp312:
	.loc	3 0 1
	movq	%rax, %rcx
	movl	%edx, %eax
	movq	%rcx, -16(%rbp)
	movl	%eax, -8(%rbp)
	jmp	LBB36_1
LBB36_3:
	movq	-32(%rbp), %rdi
	.loc	3 490 1
	callq	__ZN4core3ptr258drop_in_place$LT$alloc..raw_vec..RawVec$LT$alloc..boxed..Box$LT$dyn$u20$core..ops..function..FnMut$LT$$LP$$RP$$GT$$u2b$Output$u20$$u3d$$u20$core..result..Result$LT$$LP$$RP$$C$std..io..error..Error$GT$$u2b$core..marker..Send$u2b$core..marker..Sync$GT$$GT$$GT$17h293ceca24c2e3a3bE
	addq	$32, %rsp
	popq	%rbp
	retq
LBB36_4:
Ltmp315:
	callq	__ZN4core9panicking19panic_cannot_unwind17h1fbca7e1d7f56ae1E
LBB36_5:
	movq	-16(%rbp), %rdi
	callq	__Unwind_Resume
Ltmp317:
Lfunc_end36:
	.cfi_endproc
	.section	__TEXT,__gcc_except_tab
	.p2align	2
GCC_except_table36:
Lexception8:
	.byte	255
	.byte	255
	.byte	1
	.uleb128 Lcst_end8-Lcst_begin8
Lcst_begin8:
	.uleb128 Ltmp310-Lfunc_begin36
	.uleb128 Ltmp311-Ltmp310
	.uleb128 Ltmp312-Lfunc_begin36
	.byte	0
	.uleb128 Ltmp313-Lfunc_begin36
	.uleb128 Ltmp314-Ltmp313
	.uleb128 Ltmp315-Lfunc_begin36
	.byte	0
	.uleb128 Ltmp314-Lfunc_begin36
	.uleb128 Lfunc_end36-Ltmp314
	.byte	0
	.byte	0
Lcst_end8:
	.p2align	2

	.section	__TEXT,__text,regular,pure_instructions
	.p2align	4, 0x90
__ZN4core3ptr258drop_in_place$LT$alloc..raw_vec..RawVec$LT$alloc..boxed..Box$LT$dyn$u20$core..ops..function..FnMut$LT$$LP$$RP$$GT$$u2b$Output$u20$$u3d$$u20$core..result..Result$LT$$LP$$RP$$C$std..io..error..Error$GT$$u2b$core..marker..Send$u2b$core..marker..Sync$GT$$GT$$GT$17h293ceca24c2e3a3bE:
Lfunc_begin37:
	.loc	3 490 0 is_stmt 1
	.cfi_startproc
	pushq	%rbp
	.cfi_def_cfa_offset 16
	.cfi_offset %rbp, -16
	movq	%rsp, %rbp
	.cfi_def_cfa_register %rbp
	subq	$16, %rsp
	movq	%rdi, -8(%rbp)
Ltmp318:
	.loc	3 490 1 prologue_end
	callq	__ZN77_$LT$alloc..raw_vec..RawVec$LT$T$C$A$GT$$u20$as$u20$core..ops..drop..Drop$GT$4drop17hf95c76e67bf2ef5eE
	addq	$16, %rsp
	popq	%rbp
	retq
Ltmp319:
Lfunc_end37:
	.cfi_endproc

	.p2align	4, 0x90
__ZN4core3ptr41drop_in_place$LT$std..process..Output$GT$17hd24faaa6d6327c11E:
Lfunc_begin38:
	.loc	3 490 0
	.cfi_startproc
	.cfi_personality 155, _rust_eh_personality
	.cfi_lsda 16, Lexception9
	pushq	%rbp
	.cfi_def_cfa_offset 16
	.cfi_offset %rbp, -16
	movq	%rsp, %rbp
	.cfi_def_cfa_register %rbp
	subq	$32, %rsp
	movq	%rdi, -32(%rbp)
	movq	%rdi, -24(%rbp)
Ltmp320:
Ltmp326:
	.loc	3 490 1 prologue_end
	callq	__ZN4core3ptr46drop_in_place$LT$alloc..vec..Vec$LT$u8$GT$$GT$17hb37108cacda7e739E
Ltmp321:
	jmp	LBB38_3
LBB38_1:
	.loc	3 0 1 is_stmt 0
	movq	-32(%rbp), %rdi
	.loc	3 490 1
	addq	$24, %rdi
Ltmp323:
	callq	__ZN4core3ptr46drop_in_place$LT$alloc..vec..Vec$LT$u8$GT$$GT$17hb37108cacda7e739E
Ltmp324:
	jmp	LBB38_5
LBB38_2:
Ltmp322:
	.loc	3 0 1
	movq	%rax, %rcx
	movl	%edx, %eax
	movq	%rcx, -16(%rbp)
	movl	%eax, -8(%rbp)
	jmp	LBB38_1
LBB38_3:
	movq	-32(%rbp), %rdi
	.loc	3 490 1
	addq	$24, %rdi
	callq	__ZN4core3ptr46drop_in_place$LT$alloc..vec..Vec$LT$u8$GT$$GT$17hb37108cacda7e739E
	addq	$32, %rsp
	popq	%rbp
	retq
LBB38_4:
Ltmp325:
	callq	__ZN4core9panicking19panic_cannot_unwind17h1fbca7e1d7f56ae1E
LBB38_5:
	movq	-16(%rbp), %rdi
	callq	__Unwind_Resume
Ltmp327:
Lfunc_end38:
	.cfi_endproc
	.section	__TEXT,__gcc_except_tab
	.p2align	2
GCC_except_table38:
Lexception9:
	.byte	255
	.byte	255
	.byte	1
	.uleb128 Lcst_end9-Lcst_begin9
Lcst_begin9:
	.uleb128 Ltmp320-Lfunc_begin38
	.uleb128 Ltmp321-Ltmp320
	.uleb128 Ltmp322-Lfunc_begin38
	.byte	0
	.uleb128 Ltmp323-Lfunc_begin38
	.uleb128 Ltmp324-Ltmp323
	.uleb128 Ltmp325-Lfunc_begin38
	.byte	0
	.uleb128 Ltmp324-Lfunc_begin38
	.uleb128 Lfunc_end38-Ltmp324
	.byte	0
	.byte	0
Lcst_end9:
	.p2align	2

	.section	__TEXT,__text,regular,pure_instructions
	.p2align	4, 0x90
__ZN4core3ptr42drop_in_place$LT$std..io..error..Error$GT$17hf1101296696f3a24E:
Lfunc_begin39:
	.loc	3 490 0 is_stmt 1
	.cfi_startproc
	pushq	%rbp
	.cfi_def_cfa_offset 16
	.cfi_offset %rbp, -16
	movq	%rsp, %rbp
	.cfi_def_cfa_register %rbp
	subq	$16, %rsp
	movq	%rdi, -8(%rbp)
Ltmp328:
	.loc	3 490 1 prologue_end
	callq	__ZN4core3ptr57drop_in_place$LT$std..io..error..repr_bitpacked..Repr$GT$17hb56a0e94b8f9c44eE
	addq	$16, %rsp
	popq	%rbp
	retq
Ltmp329:
Lfunc_end39:
	.cfi_endproc

	.p2align	4, 0x90
__ZN4core3ptr42drop_in_place$LT$std..process..Command$GT$17h024d4e8b1d36e2caE:
Lfunc_begin40:
	.loc	3 490 0
	.cfi_startproc
	pushq	%rbp
	.cfi_def_cfa_offset 16
	.cfi_offset %rbp, -16
	movq	%rsp, %rbp
	.cfi_def_cfa_register %rbp
	subq	$16, %rsp
	movq	%rdi, -8(%rbp)
Ltmp330:
	.loc	3 490 1 prologue_end
	callq	__ZN4core3ptr69drop_in_place$LT$std..sys..unix..process..process_common..Command$GT$17h914a22d4af927211E
	addq	$16, %rsp
	popq	%rbp
	retq
Ltmp331:
Lfunc_end40:
	.cfi_endproc

	.p2align	4, 0x90
__ZN4core3ptr43drop_in_place$LT$std..io..error..Custom$GT$17h491515c1bfec2d75E:
Lfunc_begin41:
	.loc	3 490 0
	.cfi_startproc
	pushq	%rbp
	.cfi_def_cfa_offset 16
	.cfi_offset %rbp, -16
	movq	%rsp, %rbp
	.cfi_def_cfa_register %rbp
	subq	$16, %rsp
	movq	%rdi, -8(%rbp)
Ltmp332:
	.loc	3 490 1 prologue_end
	callq	__ZN4core3ptr118drop_in_place$LT$alloc..boxed..Box$LT$dyn$u20$core..error..Error$u2b$core..marker..Send$u2b$core..marker..Sync$GT$$GT$17h0f624cf64efee7eeE
	addq	$16, %rsp
	popq	%rbp
	retq
Ltmp333:
Lfunc_end41:
	.cfi_endproc

	.p2align	4, 0x90
__ZN4core3ptr46drop_in_place$LT$alloc..vec..Vec$LT$u8$GT$$GT$17hb37108cacda7e739E:
Lfunc_begin42:
	.loc	3 490 0
	.cfi_startproc
	.cfi_personality 155, _rust_eh_personality
	.cfi_lsda 16, Lexception10
	pushq	%rbp
	.cfi_def_cfa_offset 16
	.cfi_offset %rbp, -16
	movq	%rsp, %rbp
	.cfi_def_cfa_register %rbp
	subq	$32, %rsp
	movq	%rdi, -32(%rbp)
	movq	%rdi, -24(%rbp)
Ltmp334:
Ltmp340:
	.loc	3 490 1 prologue_end
	callq	__ZN70_$LT$alloc..vec..Vec$LT$T$C$A$GT$$u20$as$u20$core..ops..drop..Drop$GT$4drop17hac12f3f320279951E
Ltmp335:
	jmp	LBB42_3
LBB42_1:
Ltmp337:
	.loc	3 0 1 is_stmt 0
	movq	-32(%rbp), %rdi
	.loc	3 490 1
	callq	__ZN4core3ptr53drop_in_place$LT$alloc..raw_vec..RawVec$LT$u8$GT$$GT$17h24e4be574643aacfE
Ltmp338:
	jmp	LBB42_5
LBB42_2:
Ltmp336:
	.loc	3 0 1
	movq	%rax, %rcx
	movl	%edx, %eax
	movq	%rcx, -16(%rbp)
	movl	%eax, -8(%rbp)
	jmp	LBB42_1
LBB42_3:
	movq	-32(%rbp), %rdi
	.loc	3 490 1
	callq	__ZN4core3ptr53drop_in_place$LT$alloc..raw_vec..RawVec$LT$u8$GT$$GT$17h24e4be574643aacfE
	addq	$32, %rsp
	popq	%rbp
	retq
LBB42_4:
Ltmp339:
	callq	__ZN4core9panicking19panic_cannot_unwind17h1fbca7e1d7f56ae1E
LBB42_5:
	movq	-16(%rbp), %rdi
	callq	__Unwind_Resume
Ltmp341:
Lfunc_end42:
	.cfi_endproc
	.section	__TEXT,__gcc_except_tab
	.p2align	2
GCC_except_table42:
Lexception10:
	.byte	255
	.byte	255
	.byte	1
	.uleb128 Lcst_end10-Lcst_begin10
Lcst_begin10:
	.uleb128 Ltmp334-Lfunc_begin42
	.uleb128 Ltmp335-Ltmp334
	.uleb128 Ltmp336-Lfunc_begin42
	.byte	0
	.uleb128 Ltmp337-Lfunc_begin42
	.uleb128 Ltmp338-Ltmp337
	.uleb128 Ltmp339-Lfunc_begin42
	.byte	0
	.uleb128 Ltmp338-Lfunc_begin42
	.uleb128 Lfunc_end42-Ltmp338
	.byte	0
	.byte	0
Lcst_end10:
	.p2align	2

	.section	__TEXT,__text,regular,pure_instructions
	.p2align	4, 0x90
__ZN4core3ptr47drop_in_place$LT$alloc..ffi..c_str..CString$GT$17h42d4d6441efd3103E:
Lfunc_begin43:
	.loc	3 490 0 is_stmt 1
	.cfi_startproc
	.cfi_personality 155, _rust_eh_personality
	.cfi_lsda 16, Lexception11
	pushq	%rbp
	.cfi_def_cfa_offset 16
	.cfi_offset %rbp, -16
	movq	%rsp, %rbp
	.cfi_def_cfa_register %rbp
	subq	$32, %rsp
	movq	%rdi, -32(%rbp)
	movq	%rdi, -24(%rbp)
Ltmp342:
Ltmp348:
	.loc	3 490 1 prologue_end
	callq	__ZN68_$LT$alloc..ffi..c_str..CString$u20$as$u20$core..ops..drop..Drop$GT$4drop17h26a9c1f04557532dE
Ltmp343:
	jmp	LBB43_3
LBB43_1:
Ltmp345:
	.loc	3 0 1 is_stmt 0
	movq	-32(%rbp), %rdi
	.loc	3 490 1
	callq	__ZN4core3ptr58drop_in_place$LT$alloc..boxed..Box$LT$$u5b$u8$u5d$$GT$$GT$17h869cbe6ce29128d3E
Ltmp346:
	jmp	LBB43_5
LBB43_2:
Ltmp344:
	.loc	3 0 1
	movq	%rax, %rcx
	movl	%edx, %eax
	movq	%rcx, -16(%rbp)
	movl	%eax, -8(%rbp)
	jmp	LBB43_1
LBB43_3:
	movq	-32(%rbp), %rdi
	.loc	3 490 1
	callq	__ZN4core3ptr58drop_in_place$LT$alloc..boxed..Box$LT$$u5b$u8$u5d$$GT$$GT$17h869cbe6ce29128d3E
	addq	$32, %rsp
	popq	%rbp
	retq
LBB43_4:
Ltmp347:
	callq	__ZN4core9panicking19panic_cannot_unwind17h1fbca7e1d7f56ae1E
LBB43_5:
	movq	-16(%rbp), %rdi
	callq	__Unwind_Resume
Ltmp349:
Lfunc_end43:
	.cfi_endproc
	.section	__TEXT,__gcc_except_tab
	.p2align	2
GCC_except_table43:
Lexception11:
	.byte	255
	.byte	255
	.byte	1
	.uleb128 Lcst_end11-Lcst_begin11
Lcst_begin11:
	.uleb128 Ltmp342-Lfunc_begin43
	.uleb128 Ltmp343-Ltmp342
	.uleb128 Ltmp344-Lfunc_begin43
	.byte	0
	.uleb128 Ltmp345-Lfunc_begin43
	.uleb128 Ltmp346-Ltmp345
	.uleb128 Ltmp347-Lfunc_begin43
	.byte	0
	.uleb128 Ltmp346-Lfunc_begin43
	.uleb128 Lfunc_end43-Ltmp346
	.byte	0
	.byte	0
Lcst_end11:
	.p2align	2

	.section	__TEXT,__text,regular,pure_instructions
	.p2align	4, 0x90
__ZN4core3ptr47drop_in_place$LT$std..ffi..os_str..OsString$GT$17hbbe202a20fd676acE:
Lfunc_begin44:
	.loc	3 490 0 is_stmt 1
	.cfi_startproc
	pushq	%rbp
	.cfi_def_cfa_offset 16
	.cfi_offset %rbp, -16
	movq	%rsp, %rbp
	.cfi_def_cfa_register %rbp
	subq	$16, %rsp
	movq	%rdi, -8(%rbp)
Ltmp350:
	.loc	3 490 1 prologue_end
	callq	__ZN4core3ptr48drop_in_place$LT$std..sys..unix..os_str..Buf$GT$17h908d8ba846e60bd6E
	addq	$16, %rsp
	popq	%rbp
	retq
Ltmp351:
Lfunc_end44:
	.cfi_endproc

	.p2align	4, 0x90
__ZN4core3ptr48drop_in_place$LT$std..os..fd..owned..OwnedFd$GT$17hf730799c033894bcE:
Lfunc_begin45:
	.loc	3 490 0
	.cfi_startproc
	pushq	%rbp
	.cfi_def_cfa_offset 16
	.cfi_offset %rbp, -16
	movq	%rsp, %rbp
	.cfi_def_cfa_register %rbp
	subq	$16, %rsp
	movq	%rdi, -8(%rbp)
Ltmp352:
	.loc	3 490 1 prologue_end
	callq	__ZN69_$LT$std..os..fd..owned..OwnedFd$u20$as$u20$core..ops..drop..Drop$GT$4drop17hb2c44b4d2d7ada3fE
	addq	$16, %rsp
	popq	%rbp
	retq
Ltmp353:
Lfunc_end45:
	.cfi_endproc

	.p2align	4, 0x90
__ZN4core3ptr48drop_in_place$LT$std..sys..unix..os_str..Buf$GT$17h908d8ba846e60bd6E:
Lfunc_begin46:
	.loc	3 490 0
	.cfi_startproc
	pushq	%rbp
	.cfi_def_cfa_offset 16
	.cfi_offset %rbp, -16
	movq	%rsp, %rbp
	.cfi_def_cfa_register %rbp
	subq	$16, %rsp
	movq	%rdi, -8(%rbp)
Ltmp354:
	.loc	3 490 1 prologue_end
	callq	__ZN4core3ptr46drop_in_place$LT$alloc..vec..Vec$LT$u8$GT$$GT$17hb37108cacda7e739E
	addq	$16, %rsp
	popq	%rbp
	retq
Ltmp355:
Lfunc_end46:
	.cfi_endproc

	.p2align	4, 0x90
__ZN4core3ptr49drop_in_place$LT$std..sys..unix..fd..FileDesc$GT$17h38616d8f3afa2392E:
Lfunc_begin47:
	.loc	3 490 0
	.cfi_startproc
	pushq	%rbp
	.cfi_def_cfa_offset 16
	.cfi_offset %rbp, -16
	movq	%rsp, %rbp
	.cfi_def_cfa_register %rbp
	subq	$16, %rsp
	movq	%rdi, -8(%rbp)
Ltmp356:
	.loc	3 490 1 prologue_end
	callq	__ZN4core3ptr48drop_in_place$LT$std..os..fd..owned..OwnedFd$GT$17hf730799c033894bcE
	addq	$16, %rsp
	popq	%rbp
	retq
Ltmp357:
Lfunc_end47:
	.cfi_endproc

	.p2align	4, 0x90
__ZN4core3ptr53drop_in_place$LT$alloc..raw_vec..RawVec$LT$u8$GT$$GT$17h24e4be574643aacfE:
Lfunc_begin48:
	.loc	3 490 0
	.cfi_startproc
	pushq	%rbp
	.cfi_def_cfa_offset 16
	.cfi_offset %rbp, -16
	movq	%rsp, %rbp
	.cfi_def_cfa_register %rbp
	subq	$16, %rsp
	movq	%rdi, -8(%rbp)
Ltmp358:
	.loc	3 490 1 prologue_end
	callq	__ZN77_$LT$alloc..raw_vec..RawVec$LT$T$C$A$GT$$u20$as$u20$core..ops..drop..Drop$GT$4drop17h892fbae962d60295E
	addq	$16, %rsp
	popq	%rbp
	retq
Ltmp359:
Lfunc_end48:
	.cfi_endproc

	.p2align	4, 0x90
__ZN4core3ptr57drop_in_place$LT$$u5b$alloc..ffi..c_str..CString$u5d$$GT$17h06a2f135159ae3b2E:
Lfunc_begin49:
	.loc	3 490 0
	.cfi_startproc
	.cfi_personality 155, _rust_eh_personality
	.cfi_lsda 16, Lexception12
	pushq	%rbp
	.cfi_def_cfa_offset 16
	.cfi_offset %rbp, -16
	movq	%rsp, %rbp
	.cfi_def_cfa_register %rbp
	subq	$80, %rsp
	movq	%rdi, -64(%rbp)
	movq	%rsi, -56(%rbp)
	movq	%rdi, -32(%rbp)
	movq	%rsi, -24(%rbp)
Ltmp371:
	.loc	3 490 1 prologue_end
	xorl	%eax, %eax
	testb	$1, %al
	jne	LBB49_1
	jmp	LBB49_2
LBB49_1:
	movq	$0, -48(%rbp)
	jmp	LBB49_11
LBB49_2:
	.loc	3 0 1 is_stmt 0
	movq	-56(%rbp), %rax
	movq	-64(%rbp), %rcx
	.loc	3 490 1
	movq	%rcx, -40(%rbp)
	shlq	$4, %rax
	addq	-40(%rbp), %rax
	movq	%rax, -72(%rbp)
LBB49_3:
	.loc	3 0 1
	movq	-72(%rbp), %rax
	.loc	3 490 1
	cmpq	%rax, -40(%rbp)
	je	LBB49_5
	movq	-40(%rbp), %rdi
	movq	%rdi, %rax
	addq	$16, %rax
	movq	%rax, -40(%rbp)
Ltmp360:
	callq	__ZN4core3ptr47drop_in_place$LT$alloc..ffi..c_str..CString$GT$17h42d4d6441efd3103E
Ltmp361:
	jmp	LBB49_3
LBB49_5:
	addq	$80, %rsp
	popq	%rbp
	retq
LBB49_6:
	.loc	3 0 1
	movq	-72(%rbp), %rax
	.loc	3 490 1
	cmpq	%rax, -40(%rbp)
	je	LBB49_9
	jmp	LBB49_8
LBB49_7:
Ltmp362:
	.loc	3 0 1
	movq	%rax, %rcx
	movl	%edx, %eax
	movq	%rcx, -16(%rbp)
	movl	%eax, -8(%rbp)
	jmp	LBB49_6
LBB49_8:
	.loc	3 490 1
	movq	-40(%rbp), %rdi
	movq	%rdi, %rax
	addq	$16, %rax
	movq	%rax, -40(%rbp)
Ltmp363:
	callq	__ZN4core3ptr47drop_in_place$LT$alloc..ffi..c_str..CString$GT$17h42d4d6441efd3103E
Ltmp364:
	jmp	LBB49_6
LBB49_9:
	movq	-16(%rbp), %rdi
	callq	__Unwind_Resume
LBB49_10:
Ltmp370:
	callq	__ZN4core9panicking19panic_cannot_unwind17h1fbca7e1d7f56ae1E
LBB49_11:
	.loc	3 0 1
	movq	-56(%rbp), %rax
	.loc	3 490 1
	cmpq	%rax, -48(%rbp)
	je	LBB49_5
	.loc	3 0 1
	movq	-64(%rbp), %rdi
	.loc	3 490 1
	movq	-48(%rbp), %rax
	movq	%rax, %rcx
	shlq	$4, %rcx
	addq	%rcx, %rdi
	incq	%rax
	movq	%rax, -48(%rbp)
Ltmp365:
	callq	__ZN4core3ptr47drop_in_place$LT$alloc..ffi..c_str..CString$GT$17h42d4d6441efd3103E
Ltmp366:
	jmp	LBB49_11
LBB49_13:
	.loc	3 0 1
	movq	-56(%rbp), %rax
	.loc	3 490 1
	cmpq	%rax, -48(%rbp)
	je	LBB49_9
	jmp	LBB49_15
LBB49_14:
Ltmp367:
	.loc	3 0 1
	movq	%rax, %rcx
	movl	%edx, %eax
	movq	%rcx, -16(%rbp)
	movl	%eax, -8(%rbp)
	jmp	LBB49_13
LBB49_15:
	movq	-64(%rbp), %rdi
	.loc	3 490 1
	movq	-48(%rbp), %rax
	movq	%rax, %rcx
	shlq	$4, %rcx
	addq	%rcx, %rdi
	incq	%rax
	movq	%rax, -48(%rbp)
Ltmp368:
	callq	__ZN4core3ptr47drop_in_place$LT$alloc..ffi..c_str..CString$GT$17h42d4d6441efd3103E
Ltmp369:
	jmp	LBB49_13
Ltmp372:
Lfunc_end49:
	.cfi_endproc
	.section	__TEXT,__gcc_except_tab
	.p2align	2
GCC_except_table49:
Lexception12:
	.byte	255
	.byte	255
	.byte	1
	.uleb128 Lcst_end12-Lcst_begin12
Lcst_begin12:
	.uleb128 Ltmp360-Lfunc_begin49
	.uleb128 Ltmp361-Ltmp360
	.uleb128 Ltmp362-Lfunc_begin49
	.byte	0
	.uleb128 Ltmp363-Lfunc_begin49
	.uleb128 Ltmp364-Ltmp363
	.uleb128 Ltmp370-Lfunc_begin49
	.byte	0
	.uleb128 Ltmp364-Lfunc_begin49
	.uleb128 Ltmp365-Ltmp364
	.byte	0
	.byte	0
	.uleb128 Ltmp365-Lfunc_begin49
	.uleb128 Ltmp366-Ltmp365
	.uleb128 Ltmp367-Lfunc_begin49
	.byte	0
	.uleb128 Ltmp368-Lfunc_begin49
	.uleb128 Ltmp369-Ltmp368
	.uleb128 Ltmp370-Lfunc_begin49
	.byte	0
Lcst_end12:
	.p2align	2

	.section	__TEXT,__text,regular,pure_instructions
	.p2align	4, 0x90
__ZN4core3ptr57drop_in_place$LT$std..io..error..repr_bitpacked..Repr$GT$17hb56a0e94b8f9c44eE:
Lfunc_begin50:
	.loc	3 490 0 is_stmt 1
	.cfi_startproc
	pushq	%rbp
	.cfi_def_cfa_offset 16
	.cfi_offset %rbp, -16
	movq	%rsp, %rbp
	.cfi_def_cfa_register %rbp
	subq	$16, %rsp
	movq	%rdi, -8(%rbp)
Ltmp373:
	.loc	3 490 1 prologue_end
	callq	__ZN78_$LT$std..io..error..repr_bitpacked..Repr$u20$as$u20$core..ops..drop..Drop$GT$4drop17h0d92b36cc908a8a1E
	addq	$16, %rsp
	popq	%rbp
	retq
Ltmp374:
Lfunc_end50:
	.cfi_endproc

	.p2align	4, 0x90
__ZN4core3ptr57drop_in_place$LT$std..sys_common..process..CommandEnv$GT$17h33ad091681c9cadbE:
Lfunc_begin51:
	.loc	3 490 0
	.cfi_startproc
	pushq	%rbp
	.cfi_def_cfa_offset 16
	.cfi_offset %rbp, -16
	movq	%rsp, %rbp
	.cfi_def_cfa_register %rbp
	subq	$16, %rsp
	movq	%rdi, -8(%rbp)
Ltmp375:
	.loc	3 490 1 prologue_end
	callq	__ZN4core3ptr152drop_in_place$LT$alloc..collections..btree..map..BTreeMap$LT$std..ffi..os_str..OsString$C$core..option..Option$LT$std..ffi..os_str..OsString$GT$$GT$$GT$17h28945e2d53aedf3eE
	addq	$16, %rsp
	popq	%rbp
	retq
Ltmp376:
Lfunc_end51:
	.cfi_endproc

	.p2align	4, 0x90
__ZN4core3ptr58drop_in_place$LT$alloc..boxed..Box$LT$$u5b$u8$u5d$$GT$$GT$17h869cbe6ce29128d3E:
Lfunc_begin52:
	.loc	3 490 0
	.cfi_startproc
	pushq	%rbp
	.cfi_def_cfa_offset 16
	.cfi_offset %rbp, -16
	movq	%rsp, %rbp
	.cfi_def_cfa_register %rbp
	subq	$32, %rsp
	movq	%rdi, -32(%rbp)
	movq	%rdi, -24(%rbp)
	movq	-32(%rbp), %rax
Ltmp377:
	.loc	3 490 1 prologue_end
	movq	(%rax), %rdi
	movq	8(%rax), %rsi
	callq	__ZN5alloc5alloc8box_free17h6532cead095c8566E
	addq	$32, %rsp
	popq	%rbp
	retq
Ltmp378:
Lfunc_end52:
	.cfi_endproc

	.p2align	4, 0x90
__ZN4core3ptr59drop_in_place$LT$alloc..boxed..Box$LT$$u5b$u32$u5d$$GT$$GT$17hb54424110786ea3eE:
Lfunc_begin53:
	.loc	3 490 0
	.cfi_startproc
	pushq	%rbp
	.cfi_def_cfa_offset 16
	.cfi_offset %rbp, -16
	movq	%rsp, %rbp
	.cfi_def_cfa_register %rbp
	subq	$32, %rsp
	movq	%rdi, -32(%rbp)
	movq	%rdi, -24(%rbp)
	movq	-32(%rbp), %rax
Ltmp379:
	.loc	3 490 1 prologue_end
	movq	(%rax), %rdi
	movq	8(%rax), %rsi
	callq	__ZN5alloc5alloc8box_free17h83a05640da7f258cE
	addq	$32, %rsp
	popq	%rbp
	retq
Ltmp380:
Lfunc_end53:
	.cfi_endproc

	.p2align	4, 0x90
__ZN4core3ptr60drop_in_place$LT$alloc..vec..Vec$LT$$BP$const$u20$i8$GT$$GT$17hfbee0b1637fd9944E:
Lfunc_begin54:
	.loc	3 490 0
	.cfi_startproc
	.cfi_personality 155, _rust_eh_personality
	.cfi_lsda 16, Lexception13
	pushq	%rbp
	.cfi_def_cfa_offset 16
	.cfi_offset %rbp, -16
	movq	%rsp, %rbp
	.cfi_def_cfa_register %rbp
	subq	$32, %rsp
	movq	%rdi, -32(%rbp)
	movq	%rdi, -24(%rbp)
Ltmp381:
Ltmp387:
	.loc	3 490 1 prologue_end
	callq	__ZN70_$LT$alloc..vec..Vec$LT$T$C$A$GT$$u20$as$u20$core..ops..drop..Drop$GT$4drop17h51f75c816f3d3423E
Ltmp382:
	jmp	LBB54_3
LBB54_1:
Ltmp384:
	.loc	3 0 1 is_stmt 0
	movq	-32(%rbp), %rdi
	.loc	3 490 1
	callq	__ZN4core3ptr67drop_in_place$LT$alloc..raw_vec..RawVec$LT$$BP$const$u20$i8$GT$$GT$17h43f1adff21543bd0E
Ltmp385:
	jmp	LBB54_5
LBB54_2:
Ltmp383:
	.loc	3 0 1
	movq	%rax, %rcx
	movl	%edx, %eax
	movq	%rcx, -16(%rbp)
	movl	%eax, -8(%rbp)
	jmp	LBB54_1
LBB54_3:
	movq	-32(%rbp), %rdi
	.loc	3 490 1
	callq	__ZN4core3ptr67drop_in_place$LT$alloc..raw_vec..RawVec$LT$$BP$const$u20$i8$GT$$GT$17h43f1adff21543bd0E
	addq	$32, %rsp
	popq	%rbp
	retq
LBB54_4:
Ltmp386:
	callq	__ZN4core9panicking19panic_cannot_unwind17h1fbca7e1d7f56ae1E
LBB54_5:
	movq	-16(%rbp), %rdi
	callq	__Unwind_Resume
Ltmp388:
Lfunc_end54:
	.cfi_endproc
	.section	__TEXT,__gcc_except_tab
	.p2align	2
GCC_except_table54:
Lexception13:
	.byte	255
	.byte	255
	.byte	1
	.uleb128 Lcst_end13-Lcst_begin13
Lcst_begin13:
	.uleb128 Ltmp381-Lfunc_begin54
	.uleb128 Ltmp382-Ltmp381
	.uleb128 Ltmp383-Lfunc_begin54
	.byte	0
	.uleb128 Ltmp384-Lfunc_begin54
	.uleb128 Ltmp385-Ltmp384
	.uleb128 Ltmp386-Lfunc_begin54
	.byte	0
	.uleb128 Ltmp385-Lfunc_begin54
	.uleb128 Lfunc_end54-Ltmp385
	.byte	0
	.byte	0
Lcst_end13:
	.p2align	2

	.section	__TEXT,__text,regular,pure_instructions
	.p2align	4, 0x90
__ZN4core3ptr66drop_in_place$LT$std..sys..unix..process..process_common..Argv$GT$17h8f553488eb912753E:
Lfunc_begin55:
	.loc	3 490 0 is_stmt 1
	.cfi_startproc
	pushq	%rbp
	.cfi_def_cfa_offset 16
	.cfi_offset %rbp, -16
	movq	%rsp, %rbp
	.cfi_def_cfa_register %rbp
	subq	$16, %rsp
	movq	%rdi, -8(%rbp)
Ltmp389:
	.loc	3 490 1 prologue_end
	callq	__ZN4core3ptr60drop_in_place$LT$alloc..vec..Vec$LT$$BP$const$u20$i8$GT$$GT$17hfbee0b1637fd9944E
	addq	$16, %rsp
	popq	%rbp
	retq
Ltmp390:
Lfunc_end55:
	.cfi_endproc

	.p2align	4, 0x90
__ZN4core3ptr67drop_in_place$LT$alloc..raw_vec..RawVec$LT$$BP$const$u20$i8$GT$$GT$17h43f1adff21543bd0E:
Lfunc_begin56:
	.loc	3 490 0
	.cfi_startproc
	pushq	%rbp
	.cfi_def_cfa_offset 16
	.cfi_offset %rbp, -16
	movq	%rsp, %rbp
	.cfi_def_cfa_register %rbp
	subq	$16, %rsp
	movq	%rdi, -8(%rbp)
Ltmp391:
	.loc	3 490 1 prologue_end
	callq	__ZN77_$LT$alloc..raw_vec..RawVec$LT$T$C$A$GT$$u20$as$u20$core..ops..drop..Drop$GT$4drop17hc8b89568e76a513cE
	addq	$16, %rsp
	popq	%rbp
	retq
Ltmp392:
Lfunc_end56:
	.cfi_endproc

	.p2align	4, 0x90
__ZN4core3ptr67drop_in_place$LT$std..sys..unix..process..process_common..Stdio$GT$17h3025a17f00465c81E:
Lfunc_begin57:
	.loc	3 490 0
	.cfi_startproc
	pushq	%rbp
	.cfi_def_cfa_offset 16
	.cfi_offset %rbp, -16
	movq	%rsp, %rbp
	.cfi_def_cfa_register %rbp
	subq	$16, %rsp
	movq	%rdi, -16(%rbp)
	movq	%rdi, -8(%rbp)
Ltmp393:
	.loc	3 490 1 prologue_end
	movl	(%rdi), %eax
	subl	$3, %eax
	jb	LBB57_2
	jmp	LBB57_1
LBB57_1:
	.loc	3 0 1 is_stmt 0
	movq	-16(%rbp), %rdi
	.loc	3 490 1
	addq	$4, %rdi
	callq	__ZN4core3ptr49drop_in_place$LT$std..sys..unix..fd..FileDesc$GT$17h38616d8f3afa2392E
LBB57_2:
	addq	$16, %rsp
	popq	%rbp
	retq
Ltmp394:
Lfunc_end57:
	.cfi_endproc

	.p2align	4, 0x90
__ZN4core3ptr68drop_in_place$LT$alloc..boxed..Box$LT$std..io..error..Custom$GT$$GT$17h03246dc1e9ecf983E:
Lfunc_begin58:
	.loc	3 490 0 is_stmt 1
	.cfi_startproc
	.cfi_personality 155, _rust_eh_personality
	.cfi_lsda 16, Lexception14
	pushq	%rbp
	.cfi_def_cfa_offset 16
	.cfi_offset %rbp, -16
	movq	%rsp, %rbp
	.cfi_def_cfa_register %rbp
	subq	$32, %rsp
	movq	%rdi, -32(%rbp)
	movq	%rdi, -24(%rbp)
Ltmp401:
	.loc	3 490 1 prologue_end
	movq	(%rdi), %rdi
Ltmp395:
	callq	__ZN4core3ptr43drop_in_place$LT$std..io..error..Custom$GT$17h491515c1bfec2d75E
Ltmp396:
	jmp	LBB58_3
LBB58_1:
	.loc	3 0 1 is_stmt 0
	movq	-32(%rbp), %rax
	.loc	3 490 1
	movq	(%rax), %rdi
Ltmp398:
	callq	__ZN5alloc5alloc8box_free17h1f40e02fb8cf684cE
Ltmp399:
	jmp	LBB58_5
LBB58_2:
Ltmp397:
	.loc	3 0 1
	movq	%rax, %rcx
	movl	%edx, %eax
	movq	%rcx, -16(%rbp)
	movl	%eax, -8(%rbp)
	jmp	LBB58_1
LBB58_3:
	movq	-32(%rbp), %rax
	.loc	3 490 1
	movq	(%rax), %rdi
	callq	__ZN5alloc5alloc8box_free17h1f40e02fb8cf684cE
	addq	$32, %rsp
	popq	%rbp
	retq
LBB58_4:
Ltmp400:
	callq	__ZN4core9panicking19panic_cannot_unwind17h1fbca7e1d7f56ae1E
LBB58_5:
	movq	-16(%rbp), %rdi
	callq	__Unwind_Resume
Ltmp402:
Lfunc_end58:
	.cfi_endproc
	.section	__TEXT,__gcc_except_tab
	.p2align	2
GCC_except_table58:
Lexception14:
	.byte	255
	.byte	255
	.byte	1
	.uleb128 Lcst_end14-Lcst_begin14
Lcst_begin14:
	.uleb128 Ltmp395-Lfunc_begin58
	.uleb128 Ltmp396-Ltmp395
	.uleb128 Ltmp397-Lfunc_begin58
	.byte	0
	.uleb128 Ltmp398-Lfunc_begin58
	.uleb128 Ltmp399-Ltmp398
	.uleb128 Ltmp400-Lfunc_begin58
	.byte	0
	.uleb128 Ltmp399-Lfunc_begin58
	.uleb128 Lfunc_end58-Ltmp399
	.byte	0
	.byte	0
Lcst_end14:
	.p2align	2

	.section	__TEXT,__text,regular,pure_instructions
	.p2align	4, 0x90
__ZN4core3ptr69drop_in_place$LT$std..sys..unix..process..process_common..Command$GT$17h914a22d4af927211E:
Lfunc_begin59:
	.loc	3 490 0 is_stmt 1
	.cfi_startproc
	.cfi_personality 155, _rust_eh_personality
	.cfi_lsda 16, Lexception15
	pushq	%rbp
	.cfi_def_cfa_offset 16
	.cfi_offset %rbp, -16
	movq	%rsp, %rbp
	.cfi_def_cfa_register %rbp
	subq	$32, %rsp
	movq	%rdi, -32(%rbp)
	movq	%rdi, -24(%rbp)
Ltmp449:
	.loc	3 490 1 prologue_end
	addq	$64, %rdi
Ltmp403:
	callq	__ZN4core3ptr47drop_in_place$LT$alloc..ffi..c_str..CString$GT$17h42d4d6441efd3103E
Ltmp404:
	jmp	LBB59_3
LBB59_1:
	.loc	3 0 1 is_stmt 0
	movq	-32(%rbp), %rdi
	.loc	3 490 1
	addq	$80, %rdi
Ltmp406:
	callq	__ZN4core3ptr70drop_in_place$LT$alloc..vec..Vec$LT$alloc..ffi..c_str..CString$GT$$GT$17h35b156b588b42892E
Ltmp407:
	jmp	LBB59_5
LBB59_2:
Ltmp405:
	.loc	3 0 1
	movq	%rax, %rcx
	movl	%edx, %eax
	movq	%rcx, -16(%rbp)
	movl	%eax, -8(%rbp)
	jmp	LBB59_1
LBB59_3:
	movq	-32(%rbp), %rdi
	.loc	3 490 1
	addq	$80, %rdi
Ltmp408:
	callq	__ZN4core3ptr70drop_in_place$LT$alloc..vec..Vec$LT$alloc..ffi..c_str..CString$GT$$GT$17h35b156b588b42892E
Ltmp409:
	jmp	LBB59_7
LBB59_4:
Ltmp448:
	callq	__ZN4core9panicking19panic_cannot_unwind17h1fbca7e1d7f56ae1E
LBB59_5:
	.loc	3 0 1
	movq	-32(%rbp), %rdi
	.loc	3 490 1
	addq	$104, %rdi
Ltmp411:
	callq	__ZN4core3ptr66drop_in_place$LT$std..sys..unix..process..process_common..Argv$GT$17h8f553488eb912753E
Ltmp412:
	jmp	LBB59_8
LBB59_6:
Ltmp410:
	.loc	3 0 1
	movq	%rax, %rcx
	movl	%edx, %eax
	movq	%rcx, -16(%rbp)
	movl	%eax, -8(%rbp)
	jmp	LBB59_5
LBB59_7:
	movq	-32(%rbp), %rdi
	.loc	3 490 1
	addq	$104, %rdi
Ltmp413:
	callq	__ZN4core3ptr66drop_in_place$LT$std..sys..unix..process..process_common..Argv$GT$17h8f553488eb912753E
Ltmp414:
	jmp	LBB59_10
LBB59_8:
Ltmp416:
	.loc	3 0 1
	movq	-32(%rbp), %rdi
	.loc	3 490 1
	callq	__ZN4core3ptr57drop_in_place$LT$std..sys_common..process..CommandEnv$GT$17h33ad091681c9cadbE
Ltmp417:
	jmp	LBB59_11
LBB59_9:
Ltmp415:
	.loc	3 0 1
	movq	%rax, %rcx
	movl	%edx, %eax
	movq	%rcx, -16(%rbp)
	movl	%eax, -8(%rbp)
	jmp	LBB59_8
LBB59_10:
Ltmp418:
	movq	-32(%rbp), %rdi
	.loc	3 490 1
	callq	__ZN4core3ptr57drop_in_place$LT$std..sys_common..process..CommandEnv$GT$17h33ad091681c9cadbE
Ltmp419:
	jmp	LBB59_13
LBB59_11:
	.loc	3 0 1
	movq	-32(%rbp), %rdi
	.loc	3 490 1
	addq	$32, %rdi
Ltmp421:
	callq	__ZN4core3ptr75drop_in_place$LT$core..option..Option$LT$alloc..ffi..c_str..CString$GT$$GT$17he6d4f74a6203a616E
Ltmp422:
	jmp	LBB59_14
LBB59_12:
Ltmp420:
	.loc	3 0 1
	movq	%rax, %rcx
	movl	%edx, %eax
	movq	%rcx, -16(%rbp)
	movl	%eax, -8(%rbp)
	jmp	LBB59_11
LBB59_13:
	movq	-32(%rbp), %rdi
	.loc	3 490 1
	addq	$32, %rdi
Ltmp423:
	callq	__ZN4core3ptr75drop_in_place$LT$core..option..Option$LT$alloc..ffi..c_str..CString$GT$$GT$17he6d4f74a6203a616E
Ltmp424:
	jmp	LBB59_16
LBB59_14:
	.loc	3 0 1
	movq	-32(%rbp), %rdi
	.loc	3 490 1
	subq	$-128, %rdi
Ltmp426:
	callq	__ZN4core3ptr251drop_in_place$LT$alloc..vec..Vec$LT$alloc..boxed..Box$LT$dyn$u20$core..ops..function..FnMut$LT$$LP$$RP$$GT$$u2b$Output$u20$$u3d$$u20$core..result..Result$LT$$LP$$RP$$C$std..io..error..Error$GT$$u2b$core..marker..Send$u2b$core..marker..Sync$GT$$GT$$GT$17hfa09ee7afbe03211E
Ltmp427:
	jmp	LBB59_17
LBB59_15:
Ltmp425:
	.loc	3 0 1
	movq	%rax, %rcx
	movl	%edx, %eax
	movq	%rcx, -16(%rbp)
	movl	%eax, -8(%rbp)
	jmp	LBB59_14
LBB59_16:
	movq	-32(%rbp), %rdi
	.loc	3 490 1
	subq	$-128, %rdi
Ltmp428:
	callq	__ZN4core3ptr251drop_in_place$LT$alloc..vec..Vec$LT$alloc..boxed..Box$LT$dyn$u20$core..ops..function..FnMut$LT$$LP$$RP$$GT$$u2b$Output$u20$$u3d$$u20$core..result..Result$LT$$LP$$RP$$C$std..io..error..Error$GT$$u2b$core..marker..Send$u2b$core..marker..Sync$GT$$GT$$GT$17hfa09ee7afbe03211E
Ltmp429:
	jmp	LBB59_19
LBB59_17:
	.loc	3 0 1
	movq	-32(%rbp), %rdi
	.loc	3 490 1
	addq	$48, %rdi
Ltmp431:
	callq	__ZN4core3ptr87drop_in_place$LT$core..option..Option$LT$alloc..boxed..Box$LT$$u5b$u32$u5d$$GT$$GT$$GT$17he58d6ead1fa4d92eE
Ltmp432:
	jmp	LBB59_20
LBB59_18:
Ltmp430:
	.loc	3 0 1
	movq	%rax, %rcx
	movl	%edx, %eax
	movq	%rcx, -16(%rbp)
	movl	%eax, -8(%rbp)
	jmp	LBB59_17
LBB59_19:
	movq	-32(%rbp), %rdi
	.loc	3 490 1
	addq	$48, %rdi
Ltmp433:
	callq	__ZN4core3ptr87drop_in_place$LT$core..option..Option$LT$alloc..boxed..Box$LT$$u5b$u32$u5d$$GT$$GT$$GT$17he58d6ead1fa4d92eE
Ltmp434:
	jmp	LBB59_22
LBB59_20:
	.loc	3 0 1
	movq	-32(%rbp), %rdi
	.loc	3 490 1
	addq	$152, %rdi
Ltmp436:
	callq	__ZN4core3ptr95drop_in_place$LT$core..option..Option$LT$std..sys..unix..process..process_common..Stdio$GT$$GT$17hfbe67685f5e0cd1cE
Ltmp437:
	jmp	LBB59_23
LBB59_21:
Ltmp435:
	.loc	3 0 1
	movq	%rax, %rcx
	movl	%edx, %eax
	movq	%rcx, -16(%rbp)
	movl	%eax, -8(%rbp)
	jmp	LBB59_20
LBB59_22:
	movq	-32(%rbp), %rdi
	.loc	3 490 1
	addq	$152, %rdi
Ltmp438:
	callq	__ZN4core3ptr95drop_in_place$LT$core..option..Option$LT$std..sys..unix..process..process_common..Stdio$GT$$GT$17hfbe67685f5e0cd1cE
Ltmp439:
	jmp	LBB59_25
LBB59_23:
	.loc	3 0 1
	movq	-32(%rbp), %rdi
	.loc	3 490 1
	addq	$160, %rdi
Ltmp441:
	callq	__ZN4core3ptr95drop_in_place$LT$core..option..Option$LT$std..sys..unix..process..process_common..Stdio$GT$$GT$17hfbe67685f5e0cd1cE
Ltmp442:
	jmp	LBB59_26
LBB59_24:
Ltmp440:
	.loc	3 0 1
	movq	%rax, %rcx
	movl	%edx, %eax
	movq	%rcx, -16(%rbp)
	movl	%eax, -8(%rbp)
	jmp	LBB59_23
LBB59_25:
	movq	-32(%rbp), %rdi
	.loc	3 490 1
	addq	$160, %rdi
Ltmp443:
	callq	__ZN4core3ptr95drop_in_place$LT$core..option..Option$LT$std..sys..unix..process..process_common..Stdio$GT$$GT$17hfbe67685f5e0cd1cE
Ltmp444:
	jmp	LBB59_28
LBB59_26:
	.loc	3 0 1
	movq	-32(%rbp), %rdi
	.loc	3 490 1
	addq	$168, %rdi
Ltmp446:
	callq	__ZN4core3ptr95drop_in_place$LT$core..option..Option$LT$std..sys..unix..process..process_common..Stdio$GT$$GT$17hfbe67685f5e0cd1cE
Ltmp447:
	jmp	LBB59_29
LBB59_27:
Ltmp445:
	.loc	3 0 1
	movq	%rax, %rcx
	movl	%edx, %eax
	movq	%rcx, -16(%rbp)
	movl	%eax, -8(%rbp)
	jmp	LBB59_26
LBB59_28:
	movq	-32(%rbp), %rdi
	.loc	3 490 1
	addq	$168, %rdi
	callq	__ZN4core3ptr95drop_in_place$LT$core..option..Option$LT$std..sys..unix..process..process_common..Stdio$GT$$GT$17hfbe67685f5e0cd1cE
	addq	$32, %rsp
	popq	%rbp
	retq
LBB59_29:
	movq	-16(%rbp), %rdi
	callq	__Unwind_Resume
Ltmp450:
Lfunc_end59:
	.cfi_endproc
	.section	__TEXT,__gcc_except_tab
	.p2align	2
GCC_except_table59:
Lexception15:
	.byte	255
	.byte	255
	.byte	1
	.uleb128 Lcst_end15-Lcst_begin15
Lcst_begin15:
	.uleb128 Ltmp403-Lfunc_begin59
	.uleb128 Ltmp404-Ltmp403
	.uleb128 Ltmp405-Lfunc_begin59
	.byte	0
	.uleb128 Ltmp406-Lfunc_begin59
	.uleb128 Ltmp407-Ltmp406
	.uleb128 Ltmp448-Lfunc_begin59
	.byte	0
	.uleb128 Ltmp408-Lfunc_begin59
	.uleb128 Ltmp409-Ltmp408
	.uleb128 Ltmp410-Lfunc_begin59
	.byte	0
	.uleb128 Ltmp411-Lfunc_begin59
	.uleb128 Ltmp412-Ltmp411
	.uleb128 Ltmp448-Lfunc_begin59
	.byte	0
	.uleb128 Ltmp413-Lfunc_begin59
	.uleb128 Ltmp414-Ltmp413
	.uleb128 Ltmp415-Lfunc_begin59
	.byte	0
	.uleb128 Ltmp416-Lfunc_begin59
	.uleb128 Ltmp417-Ltmp416
	.uleb128 Ltmp448-Lfunc_begin59
	.byte	0
	.uleb128 Ltmp418-Lfunc_begin59
	.uleb128 Ltmp419-Ltmp418
	.uleb128 Ltmp420-Lfunc_begin59
	.byte	0
	.uleb128 Ltmp421-Lfunc_begin59
	.uleb128 Ltmp422-Ltmp421
	.uleb128 Ltmp448-Lfunc_begin59
	.byte	0
	.uleb128 Ltmp423-Lfunc_begin59
	.uleb128 Ltmp424-Ltmp423
	.uleb128 Ltmp425-Lfunc_begin59
	.byte	0
	.uleb128 Ltmp426-Lfunc_begin59
	.uleb128 Ltmp427-Ltmp426
	.uleb128 Ltmp448-Lfunc_begin59
	.byte	0
	.uleb128 Ltmp428-Lfunc_begin59
	.uleb128 Ltmp429-Ltmp428
	.uleb128 Ltmp430-Lfunc_begin59
	.byte	0
	.uleb128 Ltmp431-Lfunc_begin59
	.uleb128 Ltmp432-Ltmp431
	.uleb128 Ltmp448-Lfunc_begin59
	.byte	0
	.uleb128 Ltmp433-Lfunc_begin59
	.uleb128 Ltmp434-Ltmp433
	.uleb128 Ltmp435-Lfunc_begin59
	.byte	0
	.uleb128 Ltmp436-Lfunc_begin59
	.uleb128 Ltmp437-Ltmp436
	.uleb128 Ltmp448-Lfunc_begin59
	.byte	0
	.uleb128 Ltmp438-Lfunc_begin59
	.uleb128 Ltmp439-Ltmp438
	.uleb128 Ltmp440-Lfunc_begin59
	.byte	0
	.uleb128 Ltmp441-Lfunc_begin59
	.uleb128 Ltmp442-Ltmp441
	.uleb128 Ltmp448-Lfunc_begin59
	.byte	0
	.uleb128 Ltmp443-Lfunc_begin59
	.uleb128 Ltmp444-Ltmp443
	.uleb128 Ltmp445-Lfunc_begin59
	.byte	0
	.uleb128 Ltmp446-Lfunc_begin59
	.uleb128 Ltmp447-Ltmp446
	.uleb128 Ltmp448-Lfunc_begin59
	.byte	0
	.uleb128 Ltmp447-Lfunc_begin59
	.uleb128 Lfunc_end59-Ltmp447
	.byte	0
	.byte	0
Lcst_end15:
	.p2align	2

	.section	__TEXT,__text,regular,pure_instructions
	.p2align	4, 0x90
__ZN4core3ptr70drop_in_place$LT$alloc..vec..Vec$LT$alloc..ffi..c_str..CString$GT$$GT$17h35b156b588b42892E:
Lfunc_begin60:
	.loc	3 490 0 is_stmt 1
	.cfi_startproc
	.cfi_personality 155, _rust_eh_personality
	.cfi_lsda 16, Lexception16
	pushq	%rbp
	.cfi_def_cfa_offset 16
	.cfi_offset %rbp, -16
	movq	%rsp, %rbp
	.cfi_def_cfa_register %rbp
	subq	$32, %rsp
	movq	%rdi, -32(%rbp)
	movq	%rdi, -24(%rbp)
Ltmp451:
Ltmp457:
	.loc	3 490 1 prologue_end
	callq	__ZN70_$LT$alloc..vec..Vec$LT$T$C$A$GT$$u20$as$u20$core..ops..drop..Drop$GT$4drop17he9349207471f3cffE
Ltmp452:
	jmp	LBB60_3
LBB60_1:
Ltmp454:
	.loc	3 0 1 is_stmt 0
	movq	-32(%rbp), %rdi
	.loc	3 490 1
	callq	__ZN4core3ptr77drop_in_place$LT$alloc..raw_vec..RawVec$LT$alloc..ffi..c_str..CString$GT$$GT$17ha5b535ff0d78be21E
Ltmp455:
	jmp	LBB60_5
LBB60_2:
Ltmp453:
	.loc	3 0 1
	movq	%rax, %rcx
	movl	%edx, %eax
	movq	%rcx, -16(%rbp)
	movl	%eax, -8(%rbp)
	jmp	LBB60_1
LBB60_3:
	movq	-32(%rbp), %rdi
	.loc	3 490 1
	callq	__ZN4core3ptr77drop_in_place$LT$alloc..raw_vec..RawVec$LT$alloc..ffi..c_str..CString$GT$$GT$17ha5b535ff0d78be21E
	addq	$32, %rsp
	popq	%rbp
	retq
LBB60_4:
Ltmp456:
	callq	__ZN4core9panicking19panic_cannot_unwind17h1fbca7e1d7f56ae1E
LBB60_5:
	movq	-16(%rbp), %rdi
	callq	__Unwind_Resume
Ltmp458:
Lfunc_end60:
	.cfi_endproc
	.section	__TEXT,__gcc_except_tab
	.p2align	2
GCC_except_table60:
Lexception16:
	.byte	255
	.byte	255
	.byte	1
	.uleb128 Lcst_end16-Lcst_begin16
Lcst_begin16:
	.uleb128 Ltmp451-Lfunc_begin60
	.uleb128 Ltmp452-Ltmp451
	.uleb128 Ltmp453-Lfunc_begin60
	.byte	0
	.uleb128 Ltmp454-Lfunc_begin60
	.uleb128 Ltmp455-Ltmp454
	.uleb128 Ltmp456-Lfunc_begin60
	.byte	0
	.uleb128 Ltmp455-Lfunc_begin60
	.uleb128 Lfunc_end60-Ltmp455
	.byte	0
	.byte	0
Lcst_end16:
	.p2align	2

	.section	__TEXT,__text,regular,pure_instructions
	.p2align	4, 0x90
__ZN4core3ptr72drop_in_place$LT$alloc..collections..btree..mem..replace..PanicGuard$GT$17hc8788a7cb72ebccfE:
Lfunc_begin61:
	.loc	3 490 0 is_stmt 1
	.cfi_startproc
	pushq	%rbp
	.cfi_def_cfa_offset 16
	.cfi_offset %rbp, -16
	movq	%rsp, %rbp
	.cfi_def_cfa_register %rbp
	subq	$16, %rsp
	movq	%rdi, -8(%rbp)
Ltmp459:
	.loc	3 490 1 prologue_end
	callq	__ZN93_$LT$alloc..collections..btree..mem..replace..PanicGuard$u20$as$u20$core..ops..drop..Drop$GT$4drop17hd8f71405b84037e0E
	addq	$16, %rsp
	popq	%rbp
	retq
Ltmp460:
Lfunc_end61:
	.cfi_endproc

	.p2align	4, 0x90
__ZN4core3ptr75drop_in_place$LT$core..option..Option$LT$alloc..ffi..c_str..CString$GT$$GT$17he6d4f74a6203a616E:
Lfunc_begin62:
	.loc	3 490 0
	.cfi_startproc
	pushq	%rbp
	.cfi_def_cfa_offset 16
	.cfi_offset %rbp, -16
	movq	%rsp, %rbp
	.cfi_def_cfa_register %rbp
	subq	$16, %rsp
	movq	%rdi, -16(%rbp)
	movq	%rdi, -8(%rbp)
Ltmp461:
	.loc	3 490 1 prologue_end
	movq	(%rdi), %rdx
	movl	$1, %eax
	xorl	%ecx, %ecx
	cmpq	$0, %rdx
	cmoveq	%rcx, %rax
	cmpq	$0, %rax
	jne	LBB62_2
LBB62_1:
	addq	$16, %rsp
	popq	%rbp
	retq
LBB62_2:
	.loc	3 0 1 is_stmt 0
	movq	-16(%rbp), %rdi
	.loc	3 490 1
	callq	__ZN4core3ptr47drop_in_place$LT$alloc..ffi..c_str..CString$GT$17h42d4d6441efd3103E
	jmp	LBB62_1
Ltmp462:
Lfunc_end62:
	.cfi_endproc

	.p2align	4, 0x90
__ZN4core3ptr75drop_in_place$LT$core..option..Option$LT$std..ffi..os_str..OsString$GT$$GT$17hafb747f148c86c32E:
Lfunc_begin63:
	.loc	3 490 0 is_stmt 1
	.cfi_startproc
	pushq	%rbp
	.cfi_def_cfa_offset 16
	.cfi_offset %rbp, -16
	movq	%rsp, %rbp
	.cfi_def_cfa_register %rbp
	subq	$16, %rsp
	movq	%rdi, -16(%rbp)
	movq	%rdi, -8(%rbp)
Ltmp463:
	.loc	3 490 1 prologue_end
	movq	8(%rdi), %rdx
	movl	$1, %eax
	xorl	%ecx, %ecx
	cmpq	$0, %rdx
	cmoveq	%rcx, %rax
	cmpq	$0, %rax
	jne	LBB63_2
LBB63_1:
	addq	$16, %rsp
	popq	%rbp
	retq
LBB63_2:
	.loc	3 0 1 is_stmt 0
	movq	-16(%rbp), %rdi
	.loc	3 490 1
	callq	__ZN4core3ptr47drop_in_place$LT$std..ffi..os_str..OsString$GT$17hbbe202a20fd676acE
	jmp	LBB63_1
Ltmp464:
Lfunc_end63:
	.cfi_endproc

	.p2align	4, 0x90
__ZN4core3ptr77drop_in_place$LT$alloc..raw_vec..RawVec$LT$alloc..ffi..c_str..CString$GT$$GT$17ha5b535ff0d78be21E:
Lfunc_begin64:
	.loc	3 490 0 is_stmt 1
	.cfi_startproc
	pushq	%rbp
	.cfi_def_cfa_offset 16
	.cfi_offset %rbp, -16
	movq	%rsp, %rbp
	.cfi_def_cfa_register %rbp
	subq	$16, %rsp
	movq	%rdi, -8(%rbp)
Ltmp465:
	.loc	3 490 1 prologue_end
	callq	__ZN77_$LT$alloc..raw_vec..RawVec$LT$T$C$A$GT$$u20$as$u20$core..ops..drop..Drop$GT$4drop17hec56d5fd09574ef4E
	addq	$16, %rsp
	popq	%rbp
	retq
Ltmp466:
Lfunc_end64:
	.cfi_endproc

	.p2align	4, 0x90
__ZN4core3ptr85drop_in_place$LT$std..rt..lang_start$LT$$LP$$RP$$GT$..$u7b$$u7b$closure$u7d$$u7d$$GT$17h94ef52cdcf19890eE:
Lfunc_begin65:
	.loc	3 490 0
	.cfi_startproc
	pushq	%rbp
	.cfi_def_cfa_offset 16
	.cfi_offset %rbp, -16
	movq	%rsp, %rbp
	.cfi_def_cfa_register %rbp
	pushq	%rax
	movq	%rdi, -8(%rbp)
Ltmp467:
	.loc	3 490 1 prologue_end
	addq	$8, %rsp
	popq	%rbp
	retq
Ltmp468:
Lfunc_end65:
	.cfi_endproc

	.p2align	4, 0x90
__ZN4core3ptr87drop_in_place$LT$core..option..Option$LT$alloc..boxed..Box$LT$$u5b$u32$u5d$$GT$$GT$$GT$17he58d6ead1fa4d92eE:
Lfunc_begin66:
	.loc	3 490 0
	.cfi_startproc
	pushq	%rbp
	.cfi_def_cfa_offset 16
	.cfi_offset %rbp, -16
	movq	%rsp, %rbp
	.cfi_def_cfa_register %rbp
	subq	$16, %rsp
	movq	%rdi, -16(%rbp)
	movq	%rdi, -8(%rbp)
Ltmp469:
	.loc	3 490 1 prologue_end
	movq	(%rdi), %rdx
	movl	$1, %eax
	xorl	%ecx, %ecx
	cmpq	$0, %rdx
	cmoveq	%rcx, %rax
	cmpq	$0, %rax
	jne	LBB66_2
LBB66_1:
	addq	$16, %rsp
	popq	%rbp
	retq
LBB66_2:
	.loc	3 0 1 is_stmt 0
	movq	-16(%rbp), %rdi
	.loc	3 490 1
	callq	__ZN4core3ptr59drop_in_place$LT$alloc..boxed..Box$LT$$u5b$u32$u5d$$GT$$GT$17hb54424110786ea3eE
	jmp	LBB66_1
Ltmp470:
Lfunc_end66:
	.cfi_endproc

	.p2align	4, 0x90
__ZN4core3ptr93drop_in_place$LT$dyn$u20$core..error..Error$u2b$core..marker..Send$u2b$core..marker..Sync$GT$17h199947ef2b0b523cE:
Lfunc_begin67:
	.loc	3 490 0 is_stmt 1
	.cfi_startproc
	pushq	%rbp
	.cfi_def_cfa_offset 16
	.cfi_offset %rbp, -16
	movq	%rsp, %rbp
	.cfi_def_cfa_register %rbp
	subq	$16, %rsp
	movq	%rdi, -16(%rbp)
	movq	%rsi, -8(%rbp)
Ltmp471:
	.loc	3 490 1 prologue_end
	callq	*(%rsi)
	addq	$16, %rsp
	popq	%rbp
	retq
Ltmp472:
Lfunc_end67:
	.cfi_endproc

	.p2align	4, 0x90
__ZN4core3ptr95drop_in_place$LT$core..option..Option$LT$std..sys..unix..process..process_common..Stdio$GT$$GT$17hfbe67685f5e0cd1cE:
Lfunc_begin68:
	.loc	3 490 0
	.cfi_startproc
	pushq	%rbp
	.cfi_def_cfa_offset 16
	.cfi_offset %rbp, -16
	movq	%rsp, %rbp
	.cfi_def_cfa_register %rbp
	subq	$16, %rsp
	movq	%rdi, -16(%rbp)
	movq	%rdi, -8(%rbp)
Ltmp473:
	.loc	3 490 1 prologue_end
	movl	$1, %eax
	xorl	%ecx, %ecx
	cmpl	$4, (%rdi)
	cmoveq	%rcx, %rax
	cmpq	$0, %rax
	jne	LBB68_2
LBB68_1:
	addq	$16, %rsp
	popq	%rbp
	retq
LBB68_2:
	.loc	3 0 1 is_stmt 0
	movq	-16(%rbp), %rdi
	.loc	3 490 1
	callq	__ZN4core3ptr67drop_in_place$LT$std..sys..unix..process..process_common..Stdio$GT$17h3025a17f00465c81E
	jmp	LBB68_1
Ltmp474:
Lfunc_end68:
	.cfi_endproc

	.p2align	4, 0x90
__ZN4core3str21_$LT$impl$u20$str$GT$5parse17h531f2ad3d5447efbE:
Lfunc_begin69:
	.loc	20 2352 0 is_stmt 1
	.cfi_startproc
	pushq	%rbp
	.cfi_def_cfa_offset 16
	.cfi_offset %rbp, -16
	movq	%rsp, %rbp
	.cfi_def_cfa_register %rbp
	subq	$32, %rsp
	movq	%rdi, -24(%rbp)
	movq	%rsi, -16(%rbp)
Ltmp475:
	.loc	20 2353 9 prologue_end
	callq	__ZN4core3num60_$LT$impl$u20$core..str..traits..FromStr$u20$for$u20$u32$GT$8from_str17hc43530aba0d836a9E
	movq	%rax, -8(%rbp)
	movq	-8(%rbp), %rax
	movq	%rax, -32(%rbp)
	.loc	20 2354 6
	movq	-32(%rbp), %rax
	addq	$32, %rsp
	popq	%rbp
	retq
Ltmp476:
Lfunc_end69:
	.cfi_endproc

	.p2align	4, 0x90
__ZN4core3str21_$LT$impl$u20$str$GT$5split17hf182787418e35a9dE:
Lfunc_begin70:
	.loc	20 1341 0
	.cfi_startproc
	.cfi_personality 155, _rust_eh_personality
	.cfi_lsda 16, Lexception17
	pushq	%rbp
	.cfi_def_cfa_offset 16
	.cfi_offset %rbp, -16
	movq	%rsp, %rbp
	.cfi_def_cfa_register %rbp
	subq	$272, %rsp
	movl	%ecx, -260(%rbp)
	movq	%rdx, -256(%rbp)
	movq	%rsi, -248(%rbp)
	movq	%rdi, -240(%rbp)
	movq	%rdi, -232(%rbp)
	movq	%rsi, -88(%rbp)
	movq	%rdx, -80(%rbp)
	movl	%ecx, -68(%rbp)
Ltmp480:
	.loc	20 1342 15 prologue_end
	movb	$1, -89(%rbp)
	.loc	20 1344 18
	movq	%rsi, -64(%rbp)
	movq	%rdx, -56(%rbp)
Ltmp481:
	.loc	20 160 9
	movq	%rsi, -48(%rbp)
	movq	%rdx, -40(%rbp)
Ltmp482:
	.loc	20 327 18
	movq	%rsi, -32(%rbp)
	movq	%rdx, -24(%rbp)
	movq	-24(%rbp), %rax
	movq	%rax, -224(%rbp)
Ltmp483:
	.loc	20 0 18 is_stmt 0
	movq	-256(%rbp), %rcx
	movq	-248(%rbp), %rdx
	movl	-260(%rbp), %esi
	.loc	20 1345 22 is_stmt 1
	movb	$0, -89(%rbp)
Ltmp477:
	leaq	-144(%rbp), %rdi
	callq	__ZN52_$LT$char$u20$as$u20$core..str..pattern..Pattern$GT$13into_searcher17h1a1ce36ef066d205E
Ltmp478:
	jmp	LBB70_4
LBB70_2:
	.loc	20 1349 5
	testb	$1, -89(%rbp)
	jne	LBB70_6
	jmp	LBB70_5
LBB70_3:
Ltmp479:
	.loc	20 0 5 is_stmt 0
	movq	%rax, %rcx
	movl	%edx, %eax
	movq	%rcx, -16(%rbp)
	movl	%eax, -8(%rbp)
	jmp	LBB70_2
LBB70_4:
	movq	-224(%rbp), %rax
	.loc	20 1342 15 is_stmt 1
	movq	$0, -168(%rbp)
	movq	%rax, -160(%rbp)
	leaq	-216(%rbp), %rdi
	leaq	-144(%rbp), %rsi
	movl	$48, %edx
	callq	_memcpy
	movq	-240(%rbp), %rdi
	movb	$1, -152(%rbp)
	movb	$0, -151(%rbp)
	.loc	20 1342 9 is_stmt 0
	leaq	-216(%rbp), %rsi
	movl	$72, %edx
	callq	_memcpy
	movq	-232(%rbp), %rax
	.loc	20 1349 6 is_stmt 1
	addq	$272, %rsp
	popq	%rbp
	retq
LBB70_5:
	.loc	20 1341 5
	movq	-16(%rbp), %rdi
	callq	__Unwind_Resume
LBB70_6:
	.loc	20 1349 5
	jmp	LBB70_5
Ltmp484:
Lfunc_end70:
	.cfi_endproc
	.section	__TEXT,__gcc_except_tab
	.p2align	2
GCC_except_table70:
Lexception17:
	.byte	255
	.byte	255
	.byte	1
	.uleb128 Lcst_end17-Lcst_begin17
Lcst_begin17:
	.uleb128 Ltmp477-Lfunc_begin70
	.uleb128 Ltmp478-Ltmp477
	.uleb128 Ltmp479-Lfunc_begin70
	.byte	0
	.uleb128 Ltmp478-Lfunc_begin70
	.uleb128 Lfunc_end70-Ltmp478
	.byte	0
	.byte	0
Lcst_end17:
	.p2align	2

	.section	__TEXT,__text,regular,pure_instructions
	.p2align	4, 0x90
__ZN4core3str4iter22SplitInternal$LT$P$GT$4next17h06a28031129f4aceE:
Lfunc_begin71:
	.file	26 "/rustc/2c8cc343237b8f7d5a3c3703e3a87f2eb2c54a74/library/core/src/str" "iter.rs"
	.loc	26 602 0
	.cfi_startproc
	pushq	%rbp
	.cfi_def_cfa_offset 16
	.cfi_offset %rbp, -16
	movq	%rsp, %rbp
	.cfi_def_cfa_register %rbp
	subq	$160, %rsp
	movq	%rdi, -136(%rbp)
	movq	%rdi, -72(%rbp)
Ltmp485:
	.loc	26 603 12 prologue_end
	testb	$1, 65(%rdi)
	jne	LBB71_2
	.loc	26 0 12 is_stmt 0
	movq	-136(%rbp), %rdi
	.loc	26 607 24 is_stmt 1
	callq	__ZN81_$LT$core..str..pattern..CharSearcher$u20$as$u20$core..str..pattern..Searcher$GT$8haystack17ha167fd65f271d18aE
	movq	-136(%rbp), %rsi
	movq	%rax, -152(%rbp)
	movq	%rdx, -144(%rbp)
	movq	%rax, -64(%rbp)
	movq	%rdx, -56(%rbp)
Ltmp486:
	.loc	26 608 15
	leaq	-112(%rbp), %rdi
	callq	__ZN81_$LT$core..str..pattern..CharSearcher$u20$as$u20$core..str..pattern..Searcher$GT$10next_match17hd355f08d5091854cE
	.loc	26 608 9 is_stmt 0
	cmpq	$0, -112(%rbp)
	je	LBB71_4
	jmp	LBB71_5
Ltmp487:
LBB71_2:
	.loc	26 604 20 is_stmt 1
	movq	$0, -128(%rbp)
LBB71_3:
	.loc	26 617 6
	movq	-128(%rbp), %rax
	movq	-120(%rbp), %rdx
	addq	$160, %rsp
	popq	%rbp
	retq
LBB71_4:
	.loc	26 0 6 is_stmt 0
	movq	-136(%rbp), %rdi
Ltmp488:
	.loc	26 615 21 is_stmt 1
	callq	__ZN4core3str4iter22SplitInternal$LT$P$GT$7get_end17hedd86c215d5c87deE
	movq	%rdx, -120(%rbp)
	movq	%rax, -128(%rbp)
	.loc	26 615 34 is_stmt 0
	jmp	LBB71_6
LBB71_5:
	.loc	26 0 34
	movq	-136(%rbp), %rsi
	movq	-144(%rbp), %rcx
	movq	-152(%rbp), %rdx
	.loc	26 610 19 is_stmt 1
	movq	-104(%rbp), %rax
	movq	%rax, -48(%rbp)
	.loc	26 610 22 is_stmt 0
	movq	-96(%rbp), %rdi
	movq	%rdi, -160(%rbp)
	movq	%rdi, -40(%rbp)
Ltmp489:
	.loc	26 611 27 is_stmt 1
	movq	%rdx, -32(%rbp)
	movq	%rcx, -24(%rbp)
	.loc	26 611 50 is_stmt 0
	movq	48(%rsi), %rsi
	movq	%rsi, -88(%rbp)
	movq	%rax, -80(%rbp)
Ltmp490:
	.loc	20 511 20 is_stmt 1
	movq	-88(%rbp), %rdi
	movq	-80(%rbp), %rsi
	callq	__ZN4core3str6traits108_$LT$impl$u20$core..slice..index..SliceIndex$LT$str$GT$$u20$for$u20$core..ops..range..Range$LT$usize$GT$$GT$13get_unchecked17hec6c80944f44e2deE
	movq	-160(%rbp), %rsi
	movq	-136(%rbp), %rcx
	.loc	20 511 18 is_stmt 0
	movq	%rax, -16(%rbp)
	movq	%rdx, -8(%rbp)
Ltmp491:
	.loc	26 612 17 is_stmt 1
	movq	%rsi, 48(%rcx)
	.loc	26 613 17
	movq	%rax, -128(%rbp)
	movq	%rdx, -120(%rbp)
Ltmp492:
LBB71_6:
	.loc	26 617 6
	jmp	LBB71_3
Ltmp493:
Lfunc_end71:
	.cfi_endproc

	.p2align	4, 0x90
__ZN4core3str4iter22SplitInternal$LT$P$GT$7get_end17hedd86c215d5c87deE:
Lfunc_begin72:
	.loc	26 587 0
	.cfi_startproc
	pushq	%rbp
	.cfi_def_cfa_offset 16
	.cfi_offset %rbp, -16
	movq	%rsp, %rbp
	.cfi_def_cfa_register %rbp
	subq	$96, %rsp
	movq	%rdi, -88(%rbp)
	movq	%rdi, -40(%rbp)
Ltmp494:
	.loc	26 588 13 prologue_end
	movb	65(%rdi), %al
	.loc	26 588 12 is_stmt 0
	xorb	$-1, %al
	testb	$1, %al
	jne	LBB72_2
LBB72_1:
	.loc	26 598 9 is_stmt 1
	movq	$0, -80(%rbp)
	.loc	26 599 6
	jmp	LBB72_8
LBB72_2:
	.loc	26 0 6 is_stmt 0
	movq	-88(%rbp), %rax
	.loc	26 589 13 is_stmt 1
	movb	$1, 65(%rax)
	.loc	26 591 16
	testb	$1, 64(%rax)
	jne	LBB72_4
	.loc	26 0 16 is_stmt 0
	movq	-88(%rbp), %rcx
	.loc	26 591 45
	movq	56(%rcx), %rax
	subq	48(%rcx), %rax
	cmpq	$0, %rax
	seta	%al
	.loc	26 591 16
	andb	$1, %al
	movb	%al, -57(%rbp)
	jmp	LBB72_5
LBB72_4:
	movb	$1, -57(%rbp)
LBB72_5:
	testb	$1, -57(%rbp)
	jne	LBB72_7
	.loc	26 588 9 is_stmt 1
	jmp	LBB72_1
LBB72_7:
	.loc	26 0 9 is_stmt 0
	movq	-88(%rbp), %rdi
	.loc	26 593 39 is_stmt 1
	callq	__ZN81_$LT$core..str..pattern..CharSearcher$u20$as$u20$core..str..pattern..Searcher$GT$8haystack17ha167fd65f271d18aE
	movq	%rax, %rcx
	movq	-88(%rbp), %rax
	movq	%rcx, -96(%rbp)
	movq	%rdx, %rcx
	movq	-96(%rbp), %rdx
	movq	%rdx, -32(%rbp)
	movq	%rcx, -24(%rbp)
	.loc	26 593 77 is_stmt 0
	movq	48(%rax), %rsi
	.loc	26 593 89
	movq	56(%rax), %rax
	.loc	26 593 77
	movq	%rsi, -56(%rbp)
	movq	%rax, -48(%rbp)
Ltmp495:
	.loc	20 511 20 is_stmt 1
	movq	-56(%rbp), %rdi
	movq	-48(%rbp), %rsi
	callq	__ZN4core3str6traits108_$LT$impl$u20$core..slice..index..SliceIndex$LT$str$GT$$u20$for$u20$core..ops..range..Range$LT$usize$GT$$GT$13get_unchecked17hec6c80944f44e2deE
	.loc	20 511 18 is_stmt 0
	movq	%rax, -16(%rbp)
	movq	%rdx, -8(%rbp)
Ltmp496:
	.loc	26 594 24 is_stmt 1
	movq	%rax, -80(%rbp)
	movq	%rdx, -72(%rbp)
Ltmp497:
LBB72_8:
	.loc	26 599 6
	movq	-80(%rbp), %rax
	movq	-72(%rbp), %rdx
	addq	$96, %rsp
	popq	%rbp
	retq
Ltmp498:
Lfunc_end72:
	.cfi_endproc

	.p2align	4, 0x90
__ZN4core3str6traits108_$LT$impl$u20$core..slice..index..SliceIndex$LT$str$GT$$u20$for$u20$core..ops..range..Range$LT$usize$GT$$GT$13get_unchecked17hec6c80944f44e2deE:
Lfunc_begin73:
	.file	27 "/rustc/2c8cc343237b8f7d5a3c3703e3a87f2eb2c54a74/library/core/src/str" "traits.rs"
	.loc	27 197 0
	.cfi_startproc
	pushq	%rbp
	.cfi_def_cfa_offset 16
	.cfi_offset %rbp, -16
	movq	%rsp, %rbp
	.cfi_def_cfa_register %rbp
	subq	$192, %rsp
	movq	%rdi, -160(%rbp)
	movq	%rsi, -152(%rbp)
	movq	%rdx, -144(%rbp)
	movq	%rcx, -136(%rbp)
Ltmp499:
	.loc	27 198 21 prologue_end
	movq	%rdx, -128(%rbp)
	movq	%rcx, -120(%rbp)
Ltmp500:
	.loc	27 201 28
	movq	%rdx, -112(%rbp)
	movq	%rcx, -104(%rbp)
Ltmp501:
	.loc	2 1650 9
	movq	%rdx, -96(%rbp)
Ltmp502:
	.loc	27 201 47
	movq	%rdi, -88(%rbp)
Ltmp503:
	.loc	2 932 18
	movq	%rdx, -80(%rbp)
	.loc	2 932 30 is_stmt 0
	movq	%rdi, -72(%rbp)
Ltmp504:
	.loc	2 473 18 is_stmt 1
	addq	%rdi, %rdx
	movq	%rdx, -64(%rbp)
	movq	-64(%rbp), %rax
	movq	%rax, -56(%rbp)
Ltmp505:
	.loc	27 202 19
	subq	%rdi, %rsi
	movq	%rsi, -48(%rbp)
Ltmp506:
	.loc	27 203 35
	movq	%rax, -40(%rbp)
	.loc	27 203 40 is_stmt 0
	movq	%rsi, -32(%rbp)
Ltmp507:
	.loc	3 734 20 is_stmt 1
	movq	%rax, -24(%rbp)
Ltmp508:
	.loc	2 61 9
	movq	%rax, -16(%rbp)
Ltmp509:
	.loc	3 734 33
	movq	%rsi, -8(%rbp)
Ltmp510:
	.loc	4 118 36
	movq	%rax, -176(%rbp)
	movq	%rsi, -168(%rbp)
	.loc	4 118 14 is_stmt 0
	movq	-176(%rbp), %rcx
	movq	-168(%rbp), %rax
	movq	%rcx, -192(%rbp)
	movq	%rax, -184(%rbp)
	movq	-192(%rbp), %rax
	movq	-184(%rbp), %rdx
Ltmp511:
	.loc	27 204 6 is_stmt 1
	addq	$192, %rsp
	popq	%rbp
	retq
Ltmp512:
Lfunc_end73:
	.cfi_endproc

	.p2align	4, 0x90
__ZN4core3str6traits54_$LT$impl$u20$core..cmp..PartialEq$u20$for$u20$str$GT$2eq17hd9e08c1e9ea8361fE:
Lfunc_begin74:
	.loc	27 28 0
	.cfi_startproc
	pushq	%rbp
	.cfi_def_cfa_offset 16
	.cfi_offset %rbp, -16
	movq	%rsp, %rbp
	.cfi_def_cfa_register %rbp
	subq	$112, %rsp
	movq	%rdi, -80(%rbp)
	movq	%rsi, -72(%rbp)
	movq	%rdx, -64(%rbp)
	movq	%rcx, -56(%rbp)
Ltmp513:
	.loc	27 29 9 prologue_end
	movq	%rdi, -48(%rbp)
	movq	%rsi, -40(%rbp)
Ltmp514:
	.loc	20 327 18
	movq	%rdi, -112(%rbp)
	movq	%rsi, -104(%rbp)
Ltmp515:
	.loc	27 29 9
	leaq	-112(%rbp), %rax
	movq	%rax, -32(%rbp)
	.loc	27 29 28 is_stmt 0
	movq	%rdx, -24(%rbp)
	movq	%rcx, -16(%rbp)
Ltmp516:
	.loc	20 327 18 is_stmt 1
	movq	%rdx, -96(%rbp)
	movq	%rcx, -88(%rbp)
Ltmp517:
	.loc	27 29 28
	leaq	-96(%rbp), %rax
	movq	%rax, -8(%rbp)
Ltmp518:
	.loc	21 1531 27
	movq	-112(%rbp), %rdi
	movq	-104(%rbp), %rsi
	.loc	21 1531 34 is_stmt 0
	movq	-96(%rbp), %rdx
	movq	-88(%rbp), %rcx
	.loc	21 1531 13
	callq	__ZN4core5slice3cmp81_$LT$impl$u20$core..cmp..PartialEq$LT$$u5b$B$u5d$$GT$$u20$for$u20$$u5b$A$u5d$$GT$2eq17hae347b4b40f6306fE
Ltmp519:
	.loc	27 30 6 is_stmt 1
	andb	$1, %al
	movzbl	%al, %eax
	addq	$112, %rsp
	popq	%rbp
	retq
Ltmp520:
Lfunc_end74:
	.cfi_endproc

	.p2align	4, 0x90
__ZN4core4char7methods15encode_utf8_raw17h1bdba5248709c3aeE:
Lfunc_begin75:
	.file	28 "/rustc/2c8cc343237b8f7d5a3c3703e3a87f2eb2c54a74/library/core/src/char" "methods.rs"
	.loc	28 1729 0
	.cfi_startproc
	pushq	%rbp
	.cfi_def_cfa_offset 16
	.cfi_offset %rbp, -16
	movq	%rsp, %rbp
	.cfi_def_cfa_register %rbp
	subq	$560, %rsp
	movq	%rsi, -544(%rbp)
	movq	%rdx, -536(%rbp)
	movl	%edi, -516(%rbp)
	movq	%rsi, -304(%rbp)
	movq	%rdx, -296(%rbp)
Ltmp521:
	.loc	28 1730 24 prologue_end
	movl	-516(%rbp), %edi
	.loc	28 1730 15 is_stmt 0
	callq	__ZN4core4char7methods8len_utf817he22403bfbda0e47aE
	movq	-544(%rbp), %rsi
	movq	-536(%rbp), %rdx
	movq	%rax, -512(%rbp)
Ltmp522:
	.loc	28 1731 12 is_stmt 1
	movq	-512(%rbp), %rax
	.loc	28 1731 22 is_stmt 0
	movq	%rsi, -272(%rbp)
	movq	%rdx, -264(%rbp)
Ltmp523:
	.loc	1 30 25 is_stmt 1
	movq	%rsi, -256(%rbp)
	movq	%rdx, -248(%rbp)
Ltmp524:
	.loc	28 1731 11
	movq	%rax, -504(%rbp)
	movq	%rsi, -496(%rbp)
	movq	%rdx, -488(%rbp)
	.loc	28 1731 5 is_stmt 0
	movq	-504(%rbp), %rax
	decq	%rax
	movq	%rax, -528(%rbp)
	subq	$3, %rax
	ja	LBB75_1
	.loc	28 0 5
	movq	-528(%rbp), %rax
	leaq	LJTI75_0(%rip), %rcx
	movslq	(%rcx,%rax,4), %rax
	addq	%rcx, %rax
	jmpq	*%rax
LBB75_1:
	movq	-536(%rbp), %rcx
	leaq	-512(%rbp), %rsi
	.loc	28 1750 14 is_stmt 1
	movq	%rsi, -120(%rbp)
Ltmp525:
	.loc	22 328 23
	movq	%rsi, -112(%rbp)
	.loc	22 328 26 is_stmt 0
	movq	__ZN4core3fmt3num3imp54_$LT$impl$u20$core..fmt..Display$u20$for$u20$usize$GT$3fmt17ha5c925fcd7ed33faE@GOTPCREL(%rip), %rax
	movq	%rax, -104(%rbp)
Ltmp526:
	.loc	22 347 42 is_stmt 1
	movq	%rax, -96(%rbp)
	movq	-96(%rbp), %rdx
	.loc	22 347 68 is_stmt 0
	movq	%rsi, -88(%rbp)
	movq	-88(%rbp), %rsi
	.loc	22 347 18
	movq	%rsi, -384(%rbp)
	movq	%rdx, -376(%rbp)
	leaq	-516(%rbp), %rsi
Ltmp527:
	.loc	28 1750 14 is_stmt 1
	movq	%rsi, -80(%rbp)
Ltmp528:
	.loc	22 328 23
	movq	%rsi, -72(%rbp)
	.loc	22 328 26 is_stmt 0
	movq	__ZN4core3fmt3num53_$LT$impl$u20$core..fmt..UpperHex$u20$for$u20$u32$GT$3fmt17ha96bbefe8f663d11E@GOTPCREL(%rip), %rdx
	movq	%rdx, -64(%rbp)
Ltmp529:
	.loc	22 347 42 is_stmt 1
	movq	%rdx, -56(%rbp)
	movq	-56(%rbp), %rdx
	.loc	22 347 68 is_stmt 0
	movq	%rsi, -48(%rbp)
	movq	-48(%rbp), %rsi
	.loc	22 347 18
	movq	%rsi, -368(%rbp)
	movq	%rdx, -360(%rbp)
Ltmp530:
	.loc	28 1754 13 is_stmt 1
	movq	%rcx, -336(%rbp)
	leaq	-336(%rbp), %rcx
	.loc	28 1750 14
	movq	%rcx, -40(%rbp)
Ltmp531:
	.loc	22 328 23
	movq	%rcx, -32(%rbp)
	.loc	22 328 26 is_stmt 0
	movq	%rax, -24(%rbp)
Ltmp532:
	.loc	22 347 42 is_stmt 1
	movq	%rax, -16(%rbp)
	movq	-16(%rbp), %rax
	.loc	22 347 68 is_stmt 0
	movq	%rcx, -8(%rbp)
	movq	-8(%rbp), %rcx
	.loc	22 347 18
	movq	%rcx, -352(%rbp)
	movq	%rax, -344(%rbp)
Ltmp533:
	.loc	28 1750 14 is_stmt 1
	movq	-384(%rbp), %rcx
	movq	-376(%rbp), %rax
	movq	%rcx, -432(%rbp)
	movq	%rax, -424(%rbp)
	movq	-368(%rbp), %rcx
	movq	-360(%rbp), %rax
	movq	%rcx, -416(%rbp)
	movq	%rax, -408(%rbp)
	movq	-352(%rbp), %rcx
	movq	-344(%rbp), %rax
	movq	%rcx, -400(%rbp)
	movq	%rax, -392(%rbp)
	leaq	l___unnamed_7(%rip), %rsi
	leaq	-480(%rbp), %rdi
	movq	%rdi, -552(%rbp)
	leaq	-432(%rbp), %rcx
	movl	$3, %r8d
	movq	%r8, %rdx
	callq	__ZN4core3fmt9Arguments6new_v117h123eb87e7c662001E
	movq	-552(%rbp), %rdi
	leaq	l___unnamed_8(%rip), %rsi
	callq	__ZN4core9panicking9panic_fmt17h9b5d807e24bcaaedE
LBB75_2:
	.loc	28 1732 13
	cmpq	$1, -488(%rbp)
	jae	LBB75_10
	jmp	LBB75_1
LBB75_3:
	.loc	28 1735 13
	cmpq	$2, -488(%rbp)
	jae	LBB75_9
	jmp	LBB75_1
LBB75_4:
	.loc	28 1739 13
	cmpq	$3, -488(%rbp)
	jae	LBB75_8
	jmp	LBB75_1
LBB75_5:
	.loc	28 1744 13
	cmpq	$4, -488(%rbp)
	jb	LBB75_1
	.loc	28 1744 14 is_stmt 0
	movq	-496(%rbp), %rsi
	movq	%rsi, -240(%rbp)
	.loc	28 1744 17
	movq	-496(%rbp), %rdx
	movq	%rdx, %rax
	addq	$1, %rax
	movq	%rax, -232(%rbp)
	.loc	28 1744 20
	movq	-496(%rbp), %rcx
	movq	%rcx, %rax
	addq	$2, %rax
	movq	%rax, -224(%rbp)
	.loc	28 1744 23
	movq	-496(%rbp), %rax
	movq	%rax, %rdi
	addq	$3, %rdi
	movq	%rdi, -216(%rbp)
Ltmp534:
	.loc	28 1745 19 is_stmt 1
	movl	-516(%rbp), %edi
	shrl	$18, %edi
	.loc	28 1745 18 is_stmt 0
	andl	$7, %edi
	.loc	28 1745 13
	orb	$-16, %dil
	movb	%dil, (%rsi)
	.loc	28 1746 19 is_stmt 1
	movl	-516(%rbp), %esi
	shrl	$12, %esi
	.loc	28 1746 18 is_stmt 0
	andl	$63, %esi
	.loc	28 1746 13
	orb	$-128, %sil
	movb	%sil, 1(%rdx)
	.loc	28 1747 19 is_stmt 1
	movl	-516(%rbp), %edx
	shrl	$6, %edx
	.loc	28 1747 18 is_stmt 0
	andl	$63, %edx
	.loc	28 1747 13
	orb	$-128, %dl
	movb	%dl, 2(%rcx)
	.loc	28 1748 19 is_stmt 1
	movl	-516(%rbp), %ecx
	.loc	28 1748 18 is_stmt 0
	andl	$63, %ecx
	.loc	28 1748 13
	orb	$-128, %cl
	movb	%cl, 3(%rax)
Ltmp535:
LBB75_7:
	.loc	28 0 13
	movq	-536(%rbp), %rcx
	movq	-544(%rbp), %rdx
	.loc	28 1757 10 is_stmt 1
	movq	%rdx, -160(%rbp)
	movq	%rcx, -152(%rbp)
	.loc	28 1757 16 is_stmt 0
	movq	-512(%rbp), %rax
	.loc	28 1757 14
	movq	%rax, -328(%rbp)
Ltmp536:
	.loc	1 30 9 is_stmt 1
	movq	-328(%rbp), %rax
	movq	%rax, -144(%rbp)
	.loc	1 30 25 is_stmt 0
	movq	%rdx, -136(%rbp)
	movq	%rcx, -128(%rbp)
Ltmp537:
	.loc	1 461 9 is_stmt 1
	movq	$0, -320(%rbp)
	movq	%rax, -312(%rbp)
	movq	-320(%rbp), %rdi
	movq	-312(%rbp), %rsi
	leaq	l___unnamed_9(%rip), %r8
	callq	__ZN106_$LT$core..ops..range..Range$LT$usize$GT$$u20$as$u20$core..slice..index..SliceIndex$LT$$u5b$T$u5d$$GT$$GT$9index_mut17hf63c13f10379f439E
Ltmp538:
	.loc	28 1758 2
	addq	$560, %rsp
	popq	%rbp
	retq
LBB75_8:
Ltmp539:
	.loc	28 1739 14
	movq	-496(%rbp), %rdx
	movq	%rdx, -208(%rbp)
	.loc	28 1739 17 is_stmt 0
	movq	-496(%rbp), %rcx
	movq	%rcx, %rax
	addq	$1, %rax
	movq	%rax, -200(%rbp)
	.loc	28 1739 20
	movq	-496(%rbp), %rax
	movq	%rax, %rsi
	addq	$2, %rsi
	movq	%rsi, -192(%rbp)
Ltmp540:
	.loc	28 1740 19 is_stmt 1
	movl	-516(%rbp), %esi
	shrl	$12, %esi
	.loc	28 1740 18 is_stmt 0
	andl	$15, %esi
	.loc	28 1740 13
	orb	$-32, %sil
	movb	%sil, (%rdx)
	.loc	28 1741 19 is_stmt 1
	movl	-516(%rbp), %edx
	shrl	$6, %edx
	.loc	28 1741 18 is_stmt 0
	andl	$63, %edx
	.loc	28 1741 13
	orb	$-128, %dl
	movb	%dl, 1(%rcx)
	.loc	28 1742 19 is_stmt 1
	movl	-516(%rbp), %ecx
	.loc	28 1742 18 is_stmt 0
	andl	$63, %ecx
	.loc	28 1742 13
	orb	$-128, %cl
	movb	%cl, 2(%rax)
Ltmp541:
	.loc	28 1743 9 is_stmt 1
	jmp	LBB75_7
LBB75_9:
	.loc	28 1735 14
	movq	-496(%rbp), %rcx
	movq	%rcx, -184(%rbp)
	.loc	28 1735 17 is_stmt 0
	movq	-496(%rbp), %rax
	movq	%rax, %rdx
	addq	$1, %rdx
	movq	%rdx, -176(%rbp)
Ltmp542:
	.loc	28 1736 19 is_stmt 1
	movl	-516(%rbp), %edx
	shrl	$6, %edx
	.loc	28 1736 18 is_stmt 0
	andl	$31, %edx
	.loc	28 1736 13
	orb	$-64, %dl
	movb	%dl, (%rcx)
	.loc	28 1737 19 is_stmt 1
	movl	-516(%rbp), %ecx
	.loc	28 1737 18 is_stmt 0
	andl	$63, %ecx
	.loc	28 1737 13
	orb	$-128, %cl
	movb	%cl, 1(%rax)
Ltmp543:
	.loc	28 1738 9 is_stmt 1
	jmp	LBB75_7
LBB75_10:
	.loc	28 1732 14
	movq	-496(%rbp), %rax
	movq	%rax, -168(%rbp)
Ltmp544:
	.loc	28 1733 18
	movl	-516(%rbp), %ecx
	.loc	28 1733 13 is_stmt 0
	movb	%cl, (%rax)
Ltmp545:
	.loc	28 1734 9 is_stmt 1
	jmp	LBB75_7
Ltmp546:
Lfunc_end75:
	.cfi_endproc
	.p2align	2, 0x90
	.data_region jt32
.set L75_0_set_2, LBB75_2-LJTI75_0
.set L75_0_set_3, LBB75_3-LJTI75_0
.set L75_0_set_4, LBB75_4-LJTI75_0
.set L75_0_set_5, LBB75_5-LJTI75_0
LJTI75_0:
	.long	L75_0_set_2
	.long	L75_0_set_3
	.long	L75_0_set_4
	.long	L75_0_set_5
	.end_data_region

	.p2align	4, 0x90
__ZN4core4char7methods8len_utf817he22403bfbda0e47aE:
Lfunc_begin76:
	.loc	28 1701 0
	.cfi_startproc
	pushq	%rbp
	.cfi_def_cfa_offset 16
	.cfi_offset %rbp, -16
	movq	%rsp, %rbp
	.cfi_def_cfa_register %rbp
	subq	$24, %rsp
	movl	%edi, -20(%rbp)
	movl	%edi, -4(%rbp)
Ltmp547:
	.loc	28 1702 8 prologue_end
	cmpl	$128, %edi
	jb	LBB76_2
	.loc	28 0 8 is_stmt 0
	movl	-20(%rbp), %eax
	.loc	28 1704 15 is_stmt 1
	cmpl	$2048, %eax
	jb	LBB76_5
	jmp	LBB76_4
LBB76_2:
	.loc	28 1703 9
	movq	$1, -16(%rbp)
LBB76_3:
	.loc	28 1711 2
	movq	-16(%rbp), %rax
	addq	$24, %rsp
	popq	%rbp
	retq
LBB76_4:
	.loc	28 0 2 is_stmt 0
	movl	-20(%rbp), %eax
	.loc	28 1706 15 is_stmt 1
	cmpl	$65536, %eax
	jb	LBB76_8
	jmp	LBB76_7
LBB76_5:
	.loc	28 1705 9
	movq	$2, -16(%rbp)
LBB76_6:
	.loc	28 1702 5
	jmp	LBB76_3
LBB76_7:
	.loc	28 1709 9
	movq	$4, -16(%rbp)
	.loc	28 1706 12
	jmp	LBB76_9
LBB76_8:
	.loc	28 1707 9
	movq	$3, -16(%rbp)
LBB76_9:
	.loc	28 1704 12
	jmp	LBB76_6
Ltmp548:
Lfunc_end76:
	.cfi_endproc

	.p2align	4, 0x90
__ZN4core4hint21unreachable_unchecked17h1f80f13aed532ea1E:
Lfunc_begin77:
	.loc	12 100 0
	.cfi_startproc
	pushq	%rbp
	.cfi_def_cfa_offset 16
	.cfi_offset %rbp, -16
	movq	%rsp, %rbp
	.cfi_def_cfa_register %rbp
Ltmp549:
	.loc	12 104 9 prologue_end
	ud2
Ltmp550:
Lfunc_end77:
	.cfi_endproc

	.p2align	4, 0x90
__ZN4core5alloc6layout10size_align17h5e77996f163ac63fE:
Lfunc_begin78:
	.file	29 "/rustc/2c8cc343237b8f7d5a3c3703e3a87f2eb2c54a74/library/core/src/alloc" "layout.rs"
	.loc	29 19 0
	.cfi_startproc
	pushq	%rbp
	.cfi_def_cfa_offset 16
	.cfi_offset %rbp, -16
	movq	%rsp, %rbp
	.cfi_def_cfa_register %rbp
	subq	$16, %rsp
Ltmp551:
	.loc	29 20 5 prologue_end
	movq	$640, -16(%rbp)
	movq	$8, -8(%rbp)
	.loc	29 21 2
	movq	-16(%rbp), %rax
	movq	-8(%rbp), %rdx
	addq	$16, %rsp
	popq	%rbp
	retq
Ltmp552:
Lfunc_end78:
	.cfi_endproc

	.p2align	4, 0x90
__ZN4core5alloc6layout10size_align17hfaf746e2a9f8003aE:
Lfunc_begin79:
	.loc	29 19 0
	.cfi_startproc
	pushq	%rbp
	.cfi_def_cfa_offset 16
	.cfi_offset %rbp, -16
	movq	%rsp, %rbp
	.cfi_def_cfa_register %rbp
	subq	$16, %rsp
Ltmp553:
	.loc	29 20 5 prologue_end
	movq	$544, -16(%rbp)
	movq	$8, -8(%rbp)
	.loc	29 21 2
	movq	-16(%rbp), %rax
	movq	-8(%rbp), %rdx
	addq	$16, %rsp
	popq	%rbp
	retq
Ltmp554:
Lfunc_end79:
	.cfi_endproc

	.p2align	4, 0x90
__ZN4core5alloc6layout6Layout5array5inner17h58036b6e17a10b61E:
Lfunc_begin80:
	.loc	29 441 0
	.cfi_startproc
	pushq	%rbp
	.cfi_def_cfa_offset 16
	.cfi_offset %rbp, -16
	movq	%rsp, %rbp
	.cfi_def_cfa_register %rbp
	subq	$176, %rsp
	movq	%rdi, -168(%rbp)
	movq	%rsi, -160(%rbp)
	movq	%rdx, -152(%rbp)
	movq	%rdi, -88(%rbp)
	movq	%rsi, -80(%rbp)
	movq	%rdx, -72(%rbp)
Ltmp555:
	.loc	29 452 16 prologue_end
	cmpq	$0, %rdi
	jne	LBB80_2
	movb	$0, -121(%rbp)
	jmp	LBB80_5
LBB80_2:
	.loc	29 0 16 is_stmt 0
	movq	-168(%rbp), %rax
	movq	-160(%rbp), %rcx
	.loc	29 452 68
	movq	%rcx, -64(%rbp)
Ltmp556:
	.loc	29 93 32 is_stmt 1
	movq	%rcx, -56(%rbp)
Ltmp557:
	.file	30 "/rustc/2c8cc343237b8f7d5a3c3703e3a87f2eb2c54a74/library/core/src/ptr" "alignment.rs"
	.loc	30 97 9
	movq	%rcx, -104(%rbp)
	movq	-104(%rbp), %rdx
Ltmp558:
	.loc	29 93 31
	subq	$1, %rdx
	.loc	29 93 9 is_stmt 0
	movabsq	$9223372036854775807, %rcx
	subq	%rdx, %rcx
	movq	%rcx, -176(%rbp)
Ltmp559:
	.loc	29 452 41 is_stmt 1
	cmpq	$0, %rax
	sete	%al
	testb	$1, %al
	jne	LBB80_4
	.loc	29 0 41 is_stmt 0
	movq	-168(%rbp), %rcx
	movq	-176(%rbp), %rax
	.loc	29 452 41
	xorl	%edx, %edx
	divq	%rcx
	movq	%rax, %rcx
	movq	-152(%rbp), %rax
	.loc	29 452 37
	cmpq	%rcx, %rax
	seta	%al
	.loc	29 452 16
	andb	$1, %al
	movb	%al, -121(%rbp)
	jmp	LBB80_5
LBB80_4:
	.loc	29 452 41
	leaq	_str.0(%rip), %rdi
	leaq	l___unnamed_10(%rip), %rdx
	movl	$25, %esi
	callq	__ZN4core9panicking5panic17hc1bc45270cf64b03E
LBB80_5:
	.loc	29 452 16
	testb	$1, -121(%rbp)
	jne	LBB80_7
	.loc	29 0 16
	movq	-160(%rbp), %rax
	movq	-152(%rbp), %rdx
	movq	-168(%rbp), %rcx
	.loc	29 456 30 is_stmt 1
	imulq	%rdx, %rcx
	movq	%rcx, -48(%rbp)
Ltmp560:
	.loc	29 461 59
	movq	%rcx, -40(%rbp)
	.loc	29 461 71 is_stmt 0
	movq	%rax, -32(%rbp)
Ltmp561:
	.loc	30 97 9 is_stmt 1
	movq	%rax, -96(%rbp)
	movq	-96(%rbp), %rax
	movq	%rax, -24(%rbp)
Ltmp562:
	.loc	29 120 65
	movq	%rax, -16(%rbp)
Ltmp563:
	.loc	30 89 18
	movq	%rax, -8(%rbp)
	movq	-8(%rbp), %rax
Ltmp564:
	.loc	29 120 18
	movq	%rcx, -120(%rbp)
	movq	%rax, -112(%rbp)
Ltmp565:
	.loc	29 461 22
	movq	-120(%rbp), %rcx
	movq	-112(%rbp), %rax
	movq	%rcx, -144(%rbp)
	movq	%rax, -136(%rbp)
Ltmp566:
	.loc	29 462 10
	jmp	LBB80_8
LBB80_7:
	.loc	29 453 24
	movq	$0, -136(%rbp)
LBB80_8:
	.loc	29 462 10
	movq	-144(%rbp), %rax
	movq	-136(%rbp), %rdx
	addq	$176, %rsp
	popq	%rbp
	retq
Ltmp567:
Lfunc_end80:
	.cfi_endproc

	.p2align	4, 0x90
__ZN4core5slice3cmp81_$LT$impl$u20$core..cmp..PartialEq$LT$$u5b$B$u5d$$GT$$u20$for$u20$$u5b$A$u5d$$GT$2eq17hae347b4b40f6306fE:
Lfunc_begin81:
	.file	31 "/rustc/2c8cc343237b8f7d5a3c3703e3a87f2eb2c54a74/library/core/src/slice" "cmp.rs"
	.loc	31 25 0
	.cfi_startproc
	pushq	%rbp
	.cfi_def_cfa_offset 16
	.cfi_offset %rbp, -16
	movq	%rsp, %rbp
	.cfi_def_cfa_register %rbp
	subq	$32, %rsp
	movq	%rdi, -32(%rbp)
	movq	%rsi, -24(%rbp)
	movq	%rdx, -16(%rbp)
	movq	%rcx, -8(%rbp)
Ltmp568:
	.loc	31 26 9 prologue_end
	callq	__ZN73_$LT$$u5b$A$u5d$$u20$as$u20$core..slice..cmp..SlicePartialEq$LT$B$GT$$GT$5equal17hb88935103f1fdae3E
	.loc	31 27 6
	andb	$1, %al
	movzbl	%al, %eax
	addq	$32, %rsp
	popq	%rbp
	retq
Ltmp569:
Lfunc_end81:
	.cfi_endproc

	.p2align	4, 0x90
__ZN4core5slice6memchr12memchr_naive17h4feac61231be8b67E:
Lfunc_begin82:
	.file	32 "/rustc/2c8cc343237b8f7d5a3c3703e3a87f2eb2c54a74/library/core/src/slice" "memchr.rs"
	.loc	32 48 0
	.cfi_startproc
	pushq	%rbp
	.cfi_def_cfa_offset 16
	.cfi_offset %rbp, -16
	movq	%rsp, %rbp
	.cfi_def_cfa_register %rbp
	subq	$80, %rsp
	movq	%rdx, -72(%rbp)
	movq	%rsi, -64(%rbp)
	movb	%dil, %al
	movb	%al, -49(%rbp)
	movb	%al, -17(%rbp)
	movq	%rsi, -16(%rbp)
	movq	%rdx, -8(%rbp)
Ltmp570:
	.loc	32 49 17 prologue_end
	movq	$0, -32(%rbp)
LBB82_1:
	.loc	32 0 17 is_stmt 0
	movq	-72(%rbp), %rax
Ltmp571:
	.loc	32 52 11 is_stmt 1
	cmpq	%rax, -32(%rbp)
	jb	LBB82_3
	.loc	32 60 5
	movq	$0, -48(%rbp)
Ltmp572:
	.loc	32 61 2
	jmp	LBB82_8
LBB82_3:
	.loc	32 0 2 is_stmt 0
	movq	-72(%rbp), %rcx
Ltmp573:
	.loc	32 53 17 is_stmt 1
	movq	-32(%rbp), %rax
	movq	%rax, -80(%rbp)
	.loc	32 53 12 is_stmt 0
	cmpq	%rcx, %rax
	setb	%al
	testb	$1, %al
	jne	LBB82_4
	jmp	LBB82_5
LBB82_4:
	.loc	32 0 12
	movq	-64(%rbp), %rax
	movq	-80(%rbp), %rcx
	movb	-49(%rbp), %dl
	.loc	32 53 12
	cmpb	%dl, (%rax,%rcx)
	je	LBB82_7
	jmp	LBB82_6
LBB82_5:
	.loc	32 0 12
	movq	-72(%rbp), %rsi
	movq	-80(%rbp), %rdi
	.loc	32 53 12
	leaq	l___unnamed_11(%rip), %rdx
	callq	__ZN4core9panicking18panic_bounds_check17hacb8a94866cda541E
LBB82_6:
	.loc	32 57 9 is_stmt 1
	movq	-32(%rbp), %rax
	addq	$1, %rax
	movq	%rax, -32(%rbp)
	.loc	32 52 5
	jmp	LBB82_1
LBB82_7:
	.loc	32 54 25
	movq	-32(%rbp), %rax
	.loc	32 54 20 is_stmt 0
	movq	%rax, -40(%rbp)
	movq	$1, -48(%rbp)
Ltmp574:
LBB82_8:
	.loc	32 61 2 is_stmt 1
	movq	-48(%rbp), %rax
	movq	-40(%rbp), %rdx
	addq	$80, %rsp
	popq	%rbp
	retq
Ltmp575:
Lfunc_end82:
	.cfi_endproc

	.p2align	4, 0x90
__ZN4core5slice6memchr6memchr17h355f9a23530a96eeE:
Lfunc_begin83:
	.loc	32 38 0
	.cfi_startproc
	pushq	%rbp
	.cfi_def_cfa_offset 16
	.cfi_offset %rbp, -16
	movq	%rsp, %rbp
	.cfi_def_cfa_register %rbp
	subq	$64, %rsp
	movq	%rdx, -64(%rbp)
	movq	%rsi, -56(%rbp)
	movb	%dil, %al
	movb	%al, -41(%rbp)
	movb	%al, -17(%rbp)
	movq	%rsi, -16(%rbp)
	movq	%rdx, -8(%rbp)
Ltmp576:
	.loc	32 40 8 prologue_end
	cmpq	$16, %rdx
	jb	LBB83_2
	.loc	32 0 8 is_stmt 0
	movq	-64(%rbp), %rdx
	movq	-56(%rbp), %rsi
	movb	-41(%rbp), %al
	.loc	32 44 5 is_stmt 1
	movzbl	%al, %edi
	callq	__ZN4core5slice6memchr14memchr_aligned17h35d16807f0081d88E
	movq	%rdx, -32(%rbp)
	movq	%rax, -40(%rbp)
	.loc	32 45 2
	jmp	LBB83_3
LBB83_2:
	.loc	32 0 2 is_stmt 0
	movq	-64(%rbp), %rdx
	movq	-56(%rbp), %rsi
	movb	-41(%rbp), %al
	.loc	32 41 16 is_stmt 1
	movzbl	%al, %edi
	callq	__ZN4core5slice6memchr12memchr_naive17h4feac61231be8b67E
	movq	%rdx, -32(%rbp)
	movq	%rax, -40(%rbp)
LBB83_3:
	.loc	32 45 2
	movq	-40(%rbp), %rax
	movq	-32(%rbp), %rdx
	addq	$64, %rsp
	popq	%rbp
	retq
Ltmp577:
Lfunc_end83:
	.cfi_endproc

	.p2align	4, 0x90
__ZN4core6option15Option$LT$T$GT$3map17hf73625707ab69fb4E:
Lfunc_begin84:
	.loc	8 964 0
	.cfi_startproc
	pushq	%rbp
	.cfi_def_cfa_offset 16
	.cfi_offset %rbp, -16
	movq	%rsp, %rbp
	.cfi_def_cfa_register %rbp
	subq	$112, %rsp
	movq	%rcx, -104(%rbp)
	movq	%rdx, -96(%rbp)
	movq	%rdi, -88(%rbp)
	movq	%rdi, -80(%rbp)
	movq	%rsi, -72(%rbp)
	movq	%rdx, -24(%rbp)
	movq	%rcx, -16(%rbp)
Ltmp578:
	.loc	8 969 15 prologue_end
	movb	$1, -25(%rbp)
	movq	-72(%rbp), %rdx
	movl	$1, %eax
	xorl	%ecx, %ecx
	cmpq	$0, %rdx
	cmoveq	%rcx, %rax
	.loc	8 969 9 is_stmt 0
	cmpq	$0, %rax
	jne	LBB84_2
	.loc	8 0 9
	movq	-88(%rbp), %rax
	.loc	8 971 21 is_stmt 1
	movq	$0, 8(%rax)
	jmp	LBB84_3
LBB84_2:
	.loc	8 0 21 is_stmt 0
	movq	-104(%rbp), %rdx
	movq	-96(%rbp), %rsi
	.loc	8 970 18 is_stmt 1
	movq	-72(%rbp), %rax
	movq	%rax, -8(%rbp)
Ltmp579:
	.loc	8 970 29 is_stmt 0
	movb	$0, -25(%rbp)
	movq	%rax, -40(%rbp)
	movq	-40(%rbp), %rcx
	leaq	-64(%rbp), %rdi
	callq	__ZN5alloc11collections5btree4node40NodeRef$LT$BorrowType$C$K$C$V$C$Type$GT$6ascend28_$u7b$$u7b$closure$u7d$$u7d$17hed946e2958f9bac7E
	movq	-88(%rbp), %rax
	.loc	8 970 24
	movq	-64(%rbp), %rcx
	movq	%rcx, (%rax)
	movq	-56(%rbp), %rcx
	movq	%rcx, 8(%rax)
	movq	-48(%rbp), %rcx
	movq	%rcx, 16(%rax)
Ltmp580:
LBB84_3:
	.loc	8 973 5 is_stmt 1
	testb	$1, -25(%rbp)
	jne	LBB84_5
LBB84_4:
	.loc	8 0 5 is_stmt 0
	movq	-80(%rbp), %rax
	.loc	8 973 6
	addq	$112, %rsp
	popq	%rbp
	retq
LBB84_5:
	.loc	8 973 5
	jmp	LBB84_4
Ltmp581:
Lfunc_end84:
	.cfi_endproc

	.p2align	4, 0x90
__ZN4core6result19Result$LT$T$C$E$GT$16unwrap_unchecked17hcbae4cb419eee682E:
Lfunc_begin85:
	.file	33 "/rustc/2c8cc343237b8f7d5a3c3703e3a87f2eb2c54a74/library/core/src" "result.rs"
	.loc	33 1530 0 is_stmt 1
	.cfi_startproc
	.cfi_personality 155, _rust_eh_personality
	.cfi_lsda 16, Lexception18
	pushq	%rbp
	.cfi_def_cfa_offset 16
	.cfi_offset %rbp, -16
	movq	%rsp, %rbp
	.cfi_def_cfa_register %rbp
	subq	$64, %rsp
	movq	%rdi, -48(%rbp)
	movq	%rsi, -40(%rbp)
Ltmp585:
	.loc	33 1532 15 prologue_end
	xorl	%eax, %eax
	movl	$1, %ecx
	cmpq	$0, -40(%rbp)
	cmoveq	%rcx, %rax
	.loc	33 1532 9 is_stmt 0
	cmpq	$0, %rax
	jne	LBB85_2
	.loc	33 1533 16 is_stmt 1
	movq	-48(%rbp), %rcx
	movq	%rcx, -64(%rbp)
	movq	-40(%rbp), %rax
	movq	%rax, -56(%rbp)
	movq	%rcx, -16(%rbp)
	movq	%rax, -8(%rbp)
	.loc	33 1537 5
	xorl	%eax, %eax
	movl	$1, %ecx
	cmpq	$0, -40(%rbp)
	cmoveq	%rcx, %rax
	cmpq	$0, %rax
	je	LBB85_10
	jmp	LBB85_11
LBB85_2:
Ltmp582:
	.loc	33 1535 32
	callq	__ZN4core4hint21unreachable_unchecked17h1f80f13aed532ea1E
Ltmp583:
	jmp	LBB85_5
LBB85_3:
	.loc	33 1537 5
	xorl	%eax, %eax
	movl	$1, %ecx
	cmpq	$0, -40(%rbp)
	cmoveq	%rcx, %rax
	cmpq	$0, %rax
	je	LBB85_6
	jmp	LBB85_7
LBB85_4:
Ltmp584:
	.loc	33 0 5 is_stmt 0
	movq	%rax, %rcx
	movl	%edx, %eax
	movq	%rcx, -32(%rbp)
	movl	%eax, -24(%rbp)
	jmp	LBB85_3
LBB85_5:
	ud2
LBB85_6:
	.loc	33 1537 5
	movb	$1, %al
	testb	$1, %al
	jne	LBB85_9
	jmp	LBB85_8
LBB85_7:
	jmp	LBB85_8
LBB85_8:
	.loc	33 1530 5 is_stmt 1
	movq	-32(%rbp), %rdi
	callq	__Unwind_Resume
LBB85_9:
	.loc	33 1537 5
	jmp	LBB85_8
LBB85_10:
	.loc	33 0 5 is_stmt 0
	movq	-56(%rbp), %rdx
	movq	-64(%rbp), %rax
	.loc	33 1537 6
	addq	$64, %rsp
	popq	%rbp
	retq
LBB85_11:
	.loc	33 1537 5
	jmp	LBB85_10
Ltmp586:
Lfunc_end85:
	.cfi_endproc
	.section	__TEXT,__gcc_except_tab
	.p2align	2
GCC_except_table85:
Lexception18:
	.byte	255
	.byte	255
	.byte	1
	.uleb128 Lcst_end18-Lcst_begin18
Lcst_begin18:
	.uleb128 Ltmp582-Lfunc_begin85
	.uleb128 Ltmp583-Ltmp582
	.uleb128 Ltmp584-Lfunc_begin85
	.byte	0
	.uleb128 Ltmp583-Lfunc_begin85
	.uleb128 Lfunc_end85-Ltmp583
	.byte	0
	.byte	0
Lcst_end18:
	.p2align	2

	.section	__TEXT,__text,regular,pure_instructions
	.p2align	4, 0x90
__ZN4core6result19Result$LT$T$C$E$GT$2ok17h8b359dc2fb1defc3E:
Lfunc_begin86:
	.loc	33 642 0 is_stmt 1
	.cfi_startproc
	pushq	%rbp
	.cfi_def_cfa_offset 16
	.cfi_offset %rbp, -16
	movq	%rsp, %rbp
	.cfi_def_cfa_register %rbp
	subq	$56, %rsp
	movq	%rdi, -56(%rbp)
Ltmp587:
	.loc	33 646 9 prologue_end
	cmpq	$0, (%rdi)
Ltmp588:
	jne	LBB86_2
Ltmp589:
	.loc	33 0 9 is_stmt 0
	movq	-56(%rbp), %rax
	.loc	33 647 16 is_stmt 1
	movq	8(%rax), %rcx
	movq	16(%rax), %rax
	movq	%rcx, -16(%rbp)
	movq	%rax, -8(%rbp)
Ltmp590:
	.loc	33 647 22 is_stmt 0
	movq	%rcx, -48(%rbp)
	movq	%rax, -40(%rbp)
Ltmp591:
	.loc	33 647 28
	jmp	LBB86_3
Ltmp592:
LBB86_2:
	.loc	33 0 28
	movq	-56(%rbp), %rax
	.loc	33 650 17 is_stmt 1
	movq	8(%rax), %rcx
	movq	%rcx, -32(%rbp)
	movq	16(%rax), %rax
	movq	%rax, -24(%rbp)
Ltmp593:
	.loc	33 650 23 is_stmt 0
	movq	$0, -48(%rbp)
Ltmp594:
LBB86_3:
	.loc	33 652 6 is_stmt 1
	movq	-48(%rbp), %rax
	movq	-40(%rbp), %rdx
	addq	$56, %rsp
	popq	%rbp
	retq
Ltmp595:
Lfunc_end86:
	.cfi_endproc

	.p2align	4, 0x90
__ZN4core6result19Result$LT$T$C$E$GT$2ok17hc97c3cc4513340bbE:
Lfunc_begin87:
	.loc	33 642 0
	.cfi_startproc
	pushq	%rbp
	.cfi_def_cfa_offset 16
	.cfi_offset %rbp, -16
	movq	%rsp, %rbp
	.cfi_def_cfa_register %rbp
	subq	$144, %rsp
	movq	%rsi, -144(%rbp)
Ltmp596:
	movq	%rdi, -136(%rbp)
	movq	%rdi, -128(%rbp)
Ltmp597:
	.loc	33 646 15 prologue_end
	movq	8(%rsi), %rdx
	xorl	%eax, %eax
	movl	$1, %ecx
	cmpq	$0, %rdx
	cmoveq	%rcx, %rax
	.loc	33 646 9 is_stmt 0
	cmpq	$0, %rax
Ltmp598:
	jne	LBB87_2
Ltmp599:
	.loc	33 0 9
	movq	-144(%rbp), %rsi
	.loc	33 647 16 is_stmt 1
	leaq	-120(%rbp), %rdi
	movl	$56, %edx
	callq	_memcpy
Ltmp600:
	.loc	33 647 27 is_stmt 0
	leaq	-64(%rbp), %rdi
	leaq	-120(%rbp), %rsi
	movl	$56, %edx
	callq	_memcpy
	movq	-136(%rbp), %rdi
	.loc	33 647 22
	leaq	-64(%rbp), %rsi
	movl	$56, %edx
	callq	_memcpy
Ltmp601:
	.loc	33 647 28
	jmp	LBB87_3
Ltmp602:
LBB87_2:
	.loc	33 0 28
	movq	-136(%rbp), %rax
	movq	-144(%rbp), %rcx
	.loc	33 650 17 is_stmt 1
	movq	(%rcx), %rcx
	movq	%rcx, -8(%rbp)
Ltmp603:
	.loc	33 650 23 is_stmt 0
	movq	$0, 8(%rax)
Ltmp604:
	.loc	33 650 26
	leaq	-8(%rbp), %rdi
	callq	__ZN4core3ptr42drop_in_place$LT$std..io..error..Error$GT$17hf1101296696f3a24E
Ltmp605:
LBB87_3:
	.loc	33 0 26
	movq	-128(%rbp), %rax
	.loc	33 652 6 is_stmt 1
	addq	$144, %rsp
	popq	%rbp
	retq
Ltmp606:
Lfunc_end87:
	.cfi_endproc

	.p2align	4, 0x90
__ZN4core6result19Result$LT$T$C$E$GT$2ok17hd121f07896692a0bE:
Lfunc_begin88:
	.loc	33 642 0
	.cfi_startproc
	pushq	%rbp
	.cfi_def_cfa_offset 16
	.cfi_offset %rbp, -16
	movq	%rsp, %rbp
	.cfi_def_cfa_register %rbp
	subq	$32, %rsp
	movq	%rdi, -24(%rbp)
	movq	-24(%rbp), %rax
	movq	%rax, -32(%rbp)
Ltmp607:
	.loc	33 646 15 prologue_end
	movb	-32(%rbp), %al
	andb	$1, %al
	movzbl	%al, %eax
	.loc	33 646 9 is_stmt 0
	cmpq	$0, %rax
	jne	LBB88_2
	.loc	33 647 16 is_stmt 1
	movl	-28(%rbp), %eax
	movl	%eax, -4(%rbp)
Ltmp608:
	.loc	33 647 22 is_stmt 0
	movl	%eax, -12(%rbp)
	movl	$1, -16(%rbp)
Ltmp609:
	.loc	33 647 28
	jmp	LBB88_3
LBB88_2:
	.loc	33 650 17 is_stmt 1
	movb	-31(%rbp), %al
	movb	%al, -5(%rbp)
Ltmp610:
	.loc	33 650 23 is_stmt 0
	movl	$0, -16(%rbp)
Ltmp611:
LBB88_3:
	.loc	33 652 6 is_stmt 1
	movl	-16(%rbp), %eax
	movl	-12(%rbp), %edx
	addq	$32, %rsp
	popq	%rbp
	retq
Ltmp612:
Lfunc_end88:
	.cfi_endproc

	.p2align	4, 0x90
__ZN50_$LT$T$u20$as$u20$core..convert..Into$LT$U$GT$$GT$4into17hd54763732c476628E:
Lfunc_begin89:
	.file	34 "/rustc/2c8cc343237b8f7d5a3c3703e3a87f2eb2c54a74/library/core/src/convert" "mod.rs"
	.loc	34 725 0
	.cfi_startproc
	pushq	%rbp
	.cfi_def_cfa_offset 16
	.cfi_offset %rbp, -16
	movq	%rsp, %rbp
	.cfi_def_cfa_register %rbp
	subq	$16, %rsp
	movq	%rdi, -8(%rbp)
Ltmp613:
	.loc	34 726 9 prologue_end
	callq	__ZN119_$LT$core..ptr..non_null..NonNull$LT$T$GT$$u20$as$u20$core..convert..From$LT$core..ptr..unique..Unique$LT$T$GT$$GT$$GT$4from17h5dc57092eff0798cE
	.loc	34 727 6
	addq	$16, %rsp
	popq	%rbp
	retq
Ltmp614:
Lfunc_end89:
	.cfi_endproc

	.p2align	4, 0x90
__ZN52_$LT$char$u20$as$u20$core..str..pattern..Pattern$GT$13into_searcher17h1a1ce36ef066d205E:
Lfunc_begin90:
	.file	35 "/rustc/2c8cc343237b8f7d5a3c3703e3a87f2eb2c54a74/library/core/src/str" "pattern.rs"
	.loc	35 543 0
	.cfi_startproc
	pushq	%rbp
	.cfi_def_cfa_offset 16
	.cfi_offset %rbp, -16
	movq	%rsp, %rbp
	.cfi_def_cfa_register %rbp
	subq	$224, %rsp
	movq	%rcx, -208(%rbp)
	movq	%rdx, -216(%rbp)
	movl	%esi, -196(%rbp)
	movq	%rdi, -192(%rbp)
	movq	%rdi, -184(%rbp)
	movl	%esi, -164(%rbp)
	movq	%rdx, -160(%rbp)
	movq	%rcx, -152(%rbp)
Ltmp615:
	.loc	35 544 32 prologue_end
	leaq	-172(%rbp), %rdi
	xorl	%esi, %esi
	movl	$4, %edx
	callq	_memset
	movl	-196(%rbp), %edi
Ltmp616:
	.loc	35 545 25
	movl	%edi, -140(%rbp)
	.loc	35 545 42 is_stmt 0
	leaq	-172(%rbp), %rax
	movq	%rax, -136(%rbp)
	movq	$4, -128(%rbp)
Ltmp617:
	.loc	28 663 42 is_stmt 1
	leaq	-172(%rbp), %rsi
	movl	$4, %edx
	callq	__ZN4core4char7methods15encode_utf8_raw17h1bdba5248709c3aeE
	movq	-216(%rbp), %r9
	movq	-208(%rbp), %r8
	movl	-196(%rbp), %esi
	movq	-192(%rbp), %rdi
	movq	%rax, %rcx
	movq	-184(%rbp), %rax
	movq	%rcx, -120(%rbp)
	movq	%rdx, -112(%rbp)
Ltmp618:
	.loc	35 545 25
	movq	%rcx, -104(%rbp)
	movq	%rdx, -96(%rbp)
Ltmp619:
	.loc	20 160 9
	movq	%rcx, -88(%rbp)
	movq	%rdx, -80(%rbp)
Ltmp620:
	.loc	20 327 18
	movq	%rcx, -72(%rbp)
	movq	%rdx, -64(%rbp)
	movq	-64(%rbp), %rcx
Ltmp621:
	.loc	20 160 9
	movq	%rcx, -56(%rbp)
Ltmp622:
	.loc	35 549 26
	movq	%r9, -48(%rbp)
	movq	%r8, -40(%rbp)
Ltmp623:
	.loc	20 160 9
	movq	%r9, -32(%rbp)
	movq	%r8, -24(%rbp)
Ltmp624:
	.loc	20 327 18
	movq	%r9, -16(%rbp)
	movq	%r8, -8(%rbp)
	movq	-8(%rbp), %rdx
Ltmp625:
	.loc	35 552 13
	movl	-172(%rbp), %r10d
	movl	%r10d, -168(%rbp)
	.loc	35 546 9
	movq	%r9, (%rdi)
	movq	%r8, 8(%rdi)
	movq	$0, 16(%rdi)
	movq	%rdx, 24(%rdi)
	movl	%esi, 44(%rdi)
	movq	%rcx, 32(%rdi)
	movl	-168(%rbp), %ecx
	movl	%ecx, 40(%rdi)
Ltmp626:
	.loc	35 554 6
	addq	$224, %rsp
	popq	%rbp
	retq
Ltmp627:
Lfunc_end90:
	.cfi_endproc

	.p2align	4, 0x90
__ZN54_$LT$$LP$$RP$$u20$as$u20$std..process..Termination$GT$6report17h980b3ab41bda4818E:
Lfunc_begin91:
	.loc	15 2182 0
	.cfi_startproc
	pushq	%rbp
	.cfi_def_cfa_offset 16
	.cfi_offset %rbp, -16
	movq	%rsp, %rbp
	.cfi_def_cfa_register %rbp
	pushq	%rax
Ltmp628:
	.loc	15 2184 6 prologue_end
	xorl	%eax, %eax
	addq	$8, %rsp
	popq	%rbp
	retq
Ltmp629:
Lfunc_end91:
	.cfi_endproc

	.p2align	4, 0x90
__ZN55_$LT$$RF$T$u20$as$u20$core..convert..AsRef$LT$U$GT$$GT$6as_ref17h1dc040ab9a420123E:
Lfunc_begin92:
	.loc	34 667 0
	.cfi_startproc
	pushq	%rbp
	.cfi_def_cfa_offset 16
	.cfi_offset %rbp, -16
	movq	%rsp, %rbp
	.cfi_def_cfa_register %rbp
	subq	$16, %rsp
	movq	%rdi, %rax
	movq	%rax, -8(%rbp)
Ltmp630:
	.loc	34 668 33 prologue_end
	movq	(%rax), %rdi
	movq	8(%rax), %rsi
	.loc	34 668 9 is_stmt 0
	callq	__ZN3std3ffi6os_str85_$LT$impl$u20$core..convert..AsRef$LT$std..ffi..os_str..OsStr$GT$$u20$for$u20$str$GT$6as_ref17h9f20806b4d11505dE
	.loc	34 669 6 is_stmt 1
	addq	$16, %rsp
	popq	%rbp
	retq
Ltmp631:
Lfunc_end92:
	.cfi_endproc

	.p2align	4, 0x90
__ZN55_$LT$T$u20$as$u20$core..option..SpecOptionPartialEq$GT$2eq17hea15208001e8a218E:
Lfunc_begin93:
	.loc	8 2102 0
	.cfi_startproc
	pushq	%rbp
	.cfi_def_cfa_offset 16
	.cfi_offset %rbp, -16
	movq	%rsp, %rbp
	.cfi_def_cfa_register %rbp
	subq	$64, %rsp
	movq	%rdi, -32(%rbp)
	movq	%rsi, -24(%rbp)
Ltmp632:
	.loc	8 2103 15 prologue_end
	movq	%rdi, -48(%rbp)
	movq	%rsi, -40(%rbp)
	movq	-48(%rbp), %rax
	movq	(%rax), %rax
	testq	%rax, %rax
	setne	%al
	movzbl	%al, %eax
	movq	%rax, -64(%rbp)
	.loc	8 2103 9 is_stmt 0
	je	LBB93_2
	jmp	LBB93_7
LBB93_7:
	.loc	8 0 9
	movq	-64(%rbp), %rax
	.loc	8 2103 9
	subq	$1, %rax
	je	LBB93_3
	jmp	LBB93_1
LBB93_1:
	.loc	8 2106 18 is_stmt 1
	movb	$0, -49(%rbp)
	jmp	LBB93_5
LBB93_2:
	.loc	8 2103 15
	movq	-40(%rbp), %rax
	movq	(%rax), %rdx
	movl	$1, %eax
	xorl	%ecx, %ecx
	cmpq	$0, %rdx
	cmoveq	%rcx, %rax
	.loc	8 2103 9 is_stmt 0
	cmpq	$0, %rax
	je	LBB93_6
	jmp	LBB93_1
LBB93_3:
	.loc	8 2103 15
	movq	-40(%rbp), %rax
	movq	(%rax), %rdx
	movl	$1, %eax
	xorl	%ecx, %ecx
	cmpq	$0, %rdx
	cmoveq	%rcx, %rax
	.loc	8 2103 9
	cmpq	$1, %rax
	jne	LBB93_1
	.loc	8 2104 19 is_stmt 1
	movq	-48(%rbp), %rdi
	movq	%rdi, -16(%rbp)
	.loc	8 2104 28 is_stmt 0
	movq	-40(%rbp), %rsi
	movq	%rsi, -8(%rbp)
Ltmp633:
	.loc	8 2104 35
	callq	__ZN4core3cmp5impls69_$LT$impl$u20$core..cmp..PartialEq$LT$$RF$B$GT$$u20$for$u20$$RF$A$GT$2eq17h42024dd60b6f059cE
	andb	$1, %al
	movb	%al, -49(%rbp)
Ltmp634:
LBB93_5:
	.loc	8 2108 6 is_stmt 1
	movb	-49(%rbp), %al
	andb	$1, %al
	movzbl	%al, %eax
	addq	$64, %rsp
	popq	%rbp
	retq
LBB93_6:
	.loc	8 2105 29
	movb	$1, -49(%rbp)
	jmp	LBB93_5
Ltmp635:
Lfunc_end93:
	.cfi_endproc

	.p2align	4, 0x90
__ZN59_$LT$alloc..alloc..Global$u20$as$u20$core..clone..Clone$GT$5clone17h6032e871695753d3E:
Lfunc_begin94:
	.file	36 "/rustc/2c8cc343237b8f7d5a3c3703e3a87f2eb2c54a74/library/alloc/src" "alloc.rs"
	.loc	36 53 0
	.cfi_startproc
	pushq	%rbp
	.cfi_def_cfa_offset 16
	.cfi_offset %rbp, -16
	movq	%rsp, %rbp
	.cfi_def_cfa_register %rbp
	pushq	%rax
	movq	%rdi, -8(%rbp)
Ltmp636:
	.loc	36 53 21 prologue_end
	addq	$8, %rsp
	popq	%rbp
	retq
Ltmp637:
Lfunc_end94:
	.cfi_endproc

	.p2align	4, 0x90
__ZN5alloc11collections5btree3map25IntoIter$LT$K$C$V$C$A$GT$10dying_next17h419c1b67e89fe091E:
Lfunc_begin95:
	.loc	6 1663 0
	.cfi_startproc
	pushq	%rbp
	.cfi_def_cfa_offset 16
	.cfi_offset %rbp, -16
	movq	%rsp, %rbp
	.cfi_def_cfa_register %rbp
	subq	$64, %rsp
	movq	%rsi, -56(%rbp)
	movq	%rdi, -48(%rbp)
	movq	%rdi, -40(%rbp)
	movq	%rsi, -8(%rbp)
Ltmp638:
	.loc	6 1666 12 prologue_end
	cmpq	$0, 64(%rsi)
	jne	LBB95_2
	.loc	6 0 12 is_stmt 0
	movq	-56(%rbp), %rdi
	.loc	6 1667 41 is_stmt 1
	callq	__ZN59_$LT$alloc..alloc..Global$u20$as$u20$core..clone..Clone$GT$5clone17h6032e871695753d3E
	movq	-56(%rbp), %rdi
	.loc	6 1667 13 is_stmt 0
	callq	__ZN5alloc11collections5btree8navigate75LazyLeafRange$LT$alloc..collections..btree..node..marker..Dying$C$K$C$V$GT$16deallocating_end17he5e62de4968625ddE
	movq	-48(%rbp), %rax
	.loc	6 1668 13 is_stmt 1
	movq	$0, 8(%rax)
	.loc	6 1666 9
	jmp	LBB95_3
LBB95_2:
	.loc	6 0 9 is_stmt 0
	movq	-56(%rbp), %rdi
	.loc	6 1670 13 is_stmt 1
	movq	64(%rdi), %rax
	subq	$1, %rax
	movq	%rax, 64(%rdi)
	.loc	6 1671 66
	callq	__ZN59_$LT$alloc..alloc..Global$u20$as$u20$core..clone..Clone$GT$5clone17h6032e871695753d3E
	movq	-56(%rbp), %rsi
	.loc	6 1671 27 is_stmt 0
	leaq	-32(%rbp), %rdi
	callq	__ZN5alloc11collections5btree8navigate75LazyLeafRange$LT$alloc..collections..btree..node..marker..Dying$C$K$C$V$GT$27deallocating_next_unchecked17h9b62b96c018c9af5E
	movq	-48(%rbp), %rax
	.loc	6 1671 13
	movq	-32(%rbp), %rcx
	movq	%rcx, (%rax)
	movq	-24(%rbp), %rcx
	movq	%rcx, 8(%rax)
	movq	-16(%rbp), %rcx
	movq	%rcx, 16(%rax)
LBB95_3:
	.loc	6 0 13
	movq	-40(%rbp), %rax
	.loc	6 1673 6 is_stmt 1
	addq	$64, %rsp
	popq	%rbp
	retq
Ltmp639:
Lfunc_end95:
	.cfi_endproc

	.p2align	4, 0x90
__ZN5alloc11collections5btree3mem7replace17h19face5fbcbbcbe3E:
Lfunc_begin96:
	.file	37 "/rustc/2c8cc343237b8f7d5a3c3703e3a87f2eb2c54a74/library/alloc/src/collections/btree" "mem.rs"
	.loc	37 20 0
	.cfi_startproc
	.cfi_personality 155, _rust_eh_personality
	.cfi_lsda 16, Lexception19
	pushq	%rbp
	.cfi_def_cfa_offset 16
	.cfi_offset %rbp, -16
	movq	%rsp, %rbp
	.cfi_def_cfa_register %rbp
	subq	$352, %rsp
	movq	%rsi, -352(%rbp)
	movq	%rdi, -344(%rbp)
	movq	%rdi, -336(%rbp)
	movq	%rsi, -72(%rbp)
Ltmp646:
	.loc	37 27 9 prologue_end
	movb	$1, -145(%rbp)
Ltmp647:
	.loc	37 28 36
	movq	%rsi, -40(%rbp)
Ltmp648:
	.loc	3 1157 34
	leaq	-144(%rbp), %rax
	movq	%rax, -32(%rbp)
	.loc	3 1157 9 is_stmt 0
	movq	(%rsi), %rax
	movq	%rax, -144(%rbp)
	movq	8(%rsi), %rax
	movq	%rax, -136(%rbp)
	movq	16(%rsi), %rax
	movq	%rax, -128(%rbp)
	.loc	3 1158 9 is_stmt 1
	movq	-144(%rbp), %rax
	movq	%rax, -120(%rbp)
	movq	-136(%rbp), %rax
	movq	%rax, -112(%rbp)
	movq	-128(%rbp), %rax
	movq	%rax, -104(%rbp)
Ltmp649:
	.loc	23 627 38
	movq	-104(%rbp), %rax
	movq	%rax, -80(%rbp)
	movq	-120(%rbp), %rax
	movq	-112(%rbp), %rcx
	movq	%rcx, -88(%rbp)
	movq	%rax, -96(%rbp)
Ltmp650:
	.loc	7 89 9
	movq	-80(%rbp), %rax
	movq	%rax, -304(%rbp)
	movq	-96(%rbp), %rax
	movq	-88(%rbp), %rcx
	movq	%rcx, -312(%rbp)
	movq	%rax, -320(%rbp)
Ltmp651:
	.loc	37 29 28
	movb	$0, -145(%rbp)
	.loc	37 29 35 is_stmt 0
	movq	-304(%rbp), %rax
	movq	%rax, -184(%rbp)
	movq	-320(%rbp), %rax
	movq	-312(%rbp), %rcx
	movq	%rcx, -192(%rbp)
	movq	%rax, -200(%rbp)
	.loc	37 29 28
	movq	-184(%rbp), %rax
	movq	%rax, -208(%rbp)
	movq	-200(%rbp), %rax
	movq	-192(%rbp), %rcx
	movq	%rcx, -216(%rbp)
	movq	%rax, -224(%rbp)
Ltmp640:
	leaq	-272(%rbp), %rdi
	leaq	-224(%rbp), %rsi
	callq	__ZN5alloc11collections5btree8navigate263_$LT$impl$u20$alloc..collections..btree..node..Handle$LT$alloc..collections..btree..node..NodeRef$LT$alloc..collections..btree..node..marker..Dying$C$K$C$V$C$alloc..collections..btree..node..marker..Leaf$GT$$C$alloc..collections..btree..node..marker..Edge$GT$$GT$27deallocating_next_unchecked28_$u7b$$u7b$closure$u7d$$u7d$17h0ec10d291c2ffb70E
Ltmp641:
	jmp	LBB96_4
Ltmp652:
LBB96_2:
	.loc	37 35 1 is_stmt 1
	movb	$1, %al
	testb	$1, %al
	jne	LBB96_6
	jmp	LBB96_5
LBB96_3:
Ltmp642:
	.loc	37 0 1 is_stmt 0
	movq	%rax, %rcx
	movl	%edx, %eax
	movq	%rcx, -24(%rbp)
	movl	%eax, -16(%rbp)
	jmp	LBB96_2
LBB96_4:
	movq	-336(%rbp), %rax
	movq	-352(%rbp), %rcx
	movq	-344(%rbp), %rdx
Ltmp653:
	.loc	37 29 10 is_stmt 1
	movq	-272(%rbp), %rsi
	movq	%rsi, -296(%rbp)
	movq	-264(%rbp), %rsi
	movq	%rsi, -288(%rbp)
	movq	-256(%rbp), %rsi
	movq	%rsi, -280(%rbp)
	.loc	37 29 21 is_stmt 0
	movq	-248(%rbp), %rsi
	movq	%rsi, (%rdx)
	movq	-240(%rbp), %rsi
	movq	%rsi, 8(%rdx)
	movq	-232(%rbp), %rsi
	movq	%rsi, 16(%rdx)
Ltmp654:
	.loc	37 31 20 is_stmt 1
	movq	%rcx, -8(%rbp)
	.loc	37 31 23 is_stmt 0
	movq	-296(%rbp), %rdx
	movq	%rdx, -176(%rbp)
	movq	-288(%rbp), %rdx
	movq	%rdx, -168(%rbp)
	movq	-280(%rbp), %rdx
	movq	%rdx, -160(%rbp)
Ltmp655:
	.loc	3 1354 9 is_stmt 1
	movq	-176(%rbp), %rdx
	movq	%rdx, (%rcx)
	movq	-168(%rbp), %rdx
	movq	%rdx, 8(%rcx)
	movq	-160(%rbp), %rdx
	movq	%rdx, 16(%rcx)
Ltmp656:
	.loc	37 35 2
	addq	$352, %rsp
	popq	%rbp
	retq
LBB96_5:
	.loc	37 35 1 is_stmt 0
	testb	$1, -145(%rbp)
	jne	LBB96_9
	jmp	LBB96_8
LBB96_6:
Ltmp643:
	.loc	37 0 1
	leaq	-328(%rbp), %rdi
	.loc	37 35 1
	callq	__ZN4core3ptr72drop_in_place$LT$alloc..collections..btree..mem..replace..PanicGuard$GT$17hc8788a7cb72ebccfE
Ltmp644:
	jmp	LBB96_5
LBB96_7:
Ltmp645:
	.loc	37 20 1 is_stmt 1
	callq	__ZN4core9panicking19panic_cannot_unwind17h1fbca7e1d7f56ae1E
LBB96_8:
	movq	-24(%rbp), %rdi
	callq	__Unwind_Resume
LBB96_9:
	.loc	37 35 1
	jmp	LBB96_8
Ltmp657:
Lfunc_end96:
	.cfi_endproc
	.section	__TEXT,__gcc_except_tab
	.p2align	2
GCC_except_table96:
Lexception19:
	.byte	255
	.byte	255
	.byte	1
	.uleb128 Lcst_end19-Lcst_begin19
Lcst_begin19:
	.uleb128 Ltmp640-Lfunc_begin96
	.uleb128 Ltmp641-Ltmp640
	.uleb128 Ltmp642-Lfunc_begin96
	.byte	0
	.uleb128 Ltmp643-Lfunc_begin96
	.uleb128 Ltmp644-Ltmp643
	.uleb128 Ltmp645-Lfunc_begin96
	.byte	0
	.uleb128 Ltmp644-Lfunc_begin96
	.uleb128 Lfunc_end96-Ltmp644
	.byte	0
	.byte	0
Lcst_end19:
	.p2align	2

	.section	__TEXT,__text,regular,pure_instructions
	.p2align	4, 0x90
__ZN5alloc11collections5btree4node127NodeRef$LT$alloc..collections..btree..node..marker..Dying$C$K$C$V$C$alloc..collections..btree..node..marker..LeafOrInternal$GT$21deallocate_and_ascend17h338a207175ae3348E:
Lfunc_begin97:
	.file	38 "/rustc/2c8cc343237b8f7d5a3c3703e3a87f2eb2c54a74/library/alloc/src/collections/btree" "node.rs"
	.loc	38 396 0
	.cfi_startproc
	.cfi_personality 155, _rust_eh_personality
	.cfi_lsda 16, Lexception20
	pushq	%rbp
	.cfi_def_cfa_offset 16
	.cfi_offset %rbp, -16
	movq	%rsp, %rbp
	.cfi_def_cfa_register %rbp
	subq	$368, %rsp
	movq	%rdx, -312(%rbp)
	movq	%rsi, -304(%rbp)
	movq	%rdi, -296(%rbp)
	movq	%rdi, -288(%rbp)
	movq	%rsi, -168(%rbp)
	movq	%rdx, -160(%rbp)
Ltmp667:
	.loc	38 400 22 prologue_end
	movq	%rsi, -152(%rbp)
Ltmp668:
	.loc	38 401 20
	movq	%rdx, -144(%rbp)
Ltmp658:
	leaq	-272(%rbp), %rdi
Ltmp669:
	.loc	38 402 19
	callq	__ZN5alloc11collections5btree4node40NodeRef$LT$BorrowType$C$K$C$V$C$Type$GT$6ascend17hb949904f5cdb83d5E
Ltmp659:
	jmp	LBB97_3
Ltmp670:
LBB97_1:
	.loc	38 396 5
	movq	-136(%rbp), %rdi
	callq	__Unwind_Resume
LBB97_2:
Ltmp666:
	.loc	38 0 5 is_stmt 0
	movq	%rax, %rcx
	movl	%edx, %eax
	movq	%rcx, -136(%rbp)
	movl	%eax, -128(%rbp)
	jmp	LBB97_1
LBB97_3:
Ltmp671:
	.loc	33 646 9 is_stmt 1
	cmpq	$0, -272(%rbp)
	jne	LBB97_5
	.loc	33 0 9 is_stmt 0
	movq	-296(%rbp), %rax
	.loc	33 647 16 is_stmt 1
	movq	-264(%rbp), %rcx
	movq	%rcx, -216(%rbp)
	movq	-256(%rbp), %rcx
	movq	%rcx, -208(%rbp)
	movq	-248(%rbp), %rcx
	movq	%rcx, -200(%rbp)
Ltmp672:
	.loc	33 647 27 is_stmt 0
	movq	-216(%rbp), %rcx
	movq	%rcx, -192(%rbp)
	movq	-208(%rbp), %rcx
	movq	%rcx, -184(%rbp)
	movq	-200(%rbp), %rcx
	movq	%rcx, -176(%rbp)
	.loc	33 647 22
	movq	-192(%rbp), %rcx
	movq	%rcx, (%rax)
	movq	-184(%rbp), %rcx
	movq	%rcx, 8(%rax)
	movq	-176(%rbp), %rcx
	movq	%rcx, 16(%rax)
Ltmp673:
	.loc	33 647 28
	jmp	LBB97_6
LBB97_5:
	.loc	33 0 28
	movq	-296(%rbp), %rax
Ltmp674:
	.loc	33 650 23 is_stmt 1
	movq	$0, 8(%rax)
Ltmp675:
LBB97_6:
	.loc	33 0 23 is_stmt 0
	movq	-304(%rbp), %rax
	movq	-312(%rbp), %rcx
Ltmp676:
	.loc	38 405 17 is_stmt 1
	movq	%rcx, -120(%rbp)
Ltmp677:
	.loc	9 450 41
	movq	%rcx, -112(%rbp)
	movq	%rcx, -104(%rbp)
Ltmp678:
	.loc	9 201 13
	movq	%rcx, -240(%rbp)
Ltmp679:
	.loc	38 406 20
	cmpq	$0, %rax
	ja	LBB97_8
Ltmp660:
Ltmp680:
	.loc	29 149 29
	callq	__ZN4core5alloc6layout10size_align17hfaf746e2a9f8003aE
Ltmp661:
	movq	%rdx, -328(%rbp)
	movq	%rax, -320(%rbp)
	jmp	LBB97_12
Ltmp681:
LBB97_8:
Ltmp662:
	.loc	29 149 29 is_stmt 0
	callq	__ZN4core5alloc6layout10size_align17h5e77996f163ac63fE
Ltmp663:
	movq	%rdx, -344(%rbp)
	movq	%rax, -336(%rbp)
	jmp	LBB97_9
LBB97_9:
	.loc	29 0 29
	movq	-344(%rbp), %rax
	movq	-336(%rbp), %rcx
	.loc	29 149 14
	movq	%rcx, -96(%rbp)
	.loc	29 149 20
	movq	%rax, -88(%rbp)
Ltmp682:
	.loc	29 153 52 is_stmt 1
	movq	%rcx, -80(%rbp)
	.loc	29 153 58 is_stmt 0
	movq	%rax, -72(%rbp)
Ltmp683:
	.loc	29 120 65 is_stmt 1
	movq	%rax, -64(%rbp)
Ltmp684:
	.loc	30 89 18
	movq	%rax, -56(%rbp)
	movq	-56(%rbp), %rax
	movq	%rax, -352(%rbp)
Ltmp685:
	.loc	30 0 18 is_stmt 0
	movq	-352(%rbp), %rax
	movq	-336(%rbp), %rcx
	.loc	29 120 18 is_stmt 1
	movq	%rcx, -232(%rbp)
	movq	%rax, -224(%rbp)
Ltmp686:
LBB97_11:
	.loc	38 404 13
	movq	-240(%rbp), %rsi
	movq	-232(%rbp), %rdx
	movq	-224(%rbp), %rcx
Ltmp664:
	leaq	-280(%rbp), %rdi
	callq	__ZN63_$LT$alloc..alloc..Global$u20$as$u20$core..alloc..Allocator$GT$10deallocate17h80554a1ded21a024E
Ltmp665:
	jmp	LBB97_14
LBB97_12:
	.loc	38 0 13 is_stmt 0
	movq	-328(%rbp), %rax
	movq	-320(%rbp), %rcx
Ltmp687:
	.loc	29 149 14 is_stmt 1
	movq	%rcx, -48(%rbp)
	.loc	29 149 20 is_stmt 0
	movq	%rax, -40(%rbp)
Ltmp688:
	.loc	29 153 52 is_stmt 1
	movq	%rcx, -32(%rbp)
	.loc	29 153 58 is_stmt 0
	movq	%rax, -24(%rbp)
Ltmp689:
	.loc	29 120 65 is_stmt 1
	movq	%rax, -16(%rbp)
Ltmp690:
	.loc	30 89 18
	movq	%rax, -8(%rbp)
	movq	-8(%rbp), %rax
	movq	%rax, -360(%rbp)
Ltmp691:
	.loc	30 0 18 is_stmt 0
	movq	-360(%rbp), %rax
	movq	-320(%rbp), %rcx
	.loc	29 120 18 is_stmt 1
	movq	%rcx, -232(%rbp)
	movq	%rax, -224(%rbp)
Ltmp692:
	.loc	29 154 6
	jmp	LBB97_11
LBB97_14:
	.loc	29 0 6 is_stmt 0
	movq	-288(%rbp), %rax
	.loc	38 414 6 is_stmt 1
	addq	$368, %rsp
	popq	%rbp
	retq
Ltmp693:
Lfunc_end97:
	.cfi_endproc
	.section	__TEXT,__gcc_except_tab
	.p2align	2
GCC_except_table97:
Lexception20:
	.byte	255
	.byte	255
	.byte	1
	.uleb128 Lcst_end20-Lcst_begin20
Lcst_begin20:
	.uleb128 Ltmp658-Lfunc_begin97
	.uleb128 Ltmp659-Ltmp658
	.uleb128 Ltmp666-Lfunc_begin97
	.byte	0
	.uleb128 Ltmp659-Lfunc_begin97
	.uleb128 Ltmp660-Ltmp659
	.byte	0
	.byte	0
	.uleb128 Ltmp660-Lfunc_begin97
	.uleb128 Ltmp665-Ltmp660
	.uleb128 Ltmp666-Lfunc_begin97
	.byte	0
Lcst_end20:
	.p2align	2

	.section	__TEXT,__text,regular,pure_instructions
	.p2align	4, 0x90
__ZN5alloc11collections5btree4node137Handle$LT$alloc..collections..btree..node..NodeRef$LT$BorrowType$C$K$C$V$C$NodeType$GT$$C$alloc..collections..btree..node..marker..KV$GT$10right_edge17ha18a88c9b6e9dd6dE:
Lfunc_begin98:
	.loc	38 765 0
	.cfi_startproc
	pushq	%rbp
	.cfi_def_cfa_offset 16
	.cfi_offset %rbp, -16
	movq	%rsp, %rbp
	.cfi_def_cfa_register %rbp
	subq	$16, %rsp
	movq	%rsi, %rax
	movq	%rdi, %rcx
	movq	%rcx, -8(%rbp)
Ltmp694:
	.loc	38 766 35 prologue_end
	movq	(%rax), %rsi
	movq	8(%rax), %rdx
	.loc	38 766 46 is_stmt 0
	movq	16(%rax), %rcx
	addq	$1, %rcx
	.loc	38 766 18
	callq	__ZN5alloc11collections5btree4node139Handle$LT$alloc..collections..btree..node..NodeRef$LT$BorrowType$C$K$C$V$C$NodeType$GT$$C$alloc..collections..btree..node..marker..Edge$GT$8new_edge17h6ceb92adef04bfecE
Ltmp695:
	.loc	38 0 18
	movq	-8(%rbp), %rax
	.loc	38 767 6 is_stmt 1
	addq	$16, %rsp
	popq	%rbp
	retq
Ltmp696:
Lfunc_end98:
	.cfi_endproc

	.p2align	4, 0x90
__ZN5alloc11collections5btree4node137Handle$LT$alloc..collections..btree..node..NodeRef$LT$BorrowType$C$K$C$V$C$NodeType$GT$$C$alloc..collections..btree..node..marker..KV$GT$10right_edge17hd600601676b51b2aE:
Lfunc_begin99:
	.loc	38 765 0
	.cfi_startproc
	pushq	%rbp
	.cfi_def_cfa_offset 16
	.cfi_offset %rbp, -16
	movq	%rsp, %rbp
	.cfi_def_cfa_register %rbp
	subq	$16, %rsp
	movq	%rsi, %rax
	movq	%rdi, %rcx
	movq	%rcx, -8(%rbp)
Ltmp697:
	.loc	38 766 35 prologue_end
	movq	(%rax), %rsi
	movq	8(%rax), %rdx
	.loc	38 766 46 is_stmt 0
	movq	16(%rax), %rcx
	addq	$1, %rcx
	.loc	38 766 18
	callq	__ZN5alloc11collections5btree4node139Handle$LT$alloc..collections..btree..node..NodeRef$LT$BorrowType$C$K$C$V$C$NodeType$GT$$C$alloc..collections..btree..node..marker..Edge$GT$8new_edge17ha6cda1134c07c0a5E
Ltmp698:
	.loc	38 0 18
	movq	-8(%rbp), %rax
	.loc	38 767 6 is_stmt 1
	addq	$16, %rsp
	popq	%rbp
	retq
Ltmp699:
Lfunc_end99:
	.cfi_endproc

	.p2align	4, 0x90
__ZN5alloc11collections5btree4node137Handle$LT$alloc..collections..btree..node..NodeRef$LT$BorrowType$C$K$C$V$C$NodeType$GT$$C$alloc..collections..btree..node..marker..KV$GT$6new_kv17h198827a640fb92e8E:
Lfunc_begin100:
	.loc	38 755 0
	.cfi_startproc
	pushq	%rbp
	.cfi_def_cfa_offset 16
	.cfi_offset %rbp, -16
	movq	%rsp, %rbp
	.cfi_def_cfa_register %rbp
	subq	$24, %rsp
	movq	%rdi, %rax
	movq	%rsi, -24(%rbp)
	movq	%rdx, -16(%rbp)
	movq	%rcx, -8(%rbp)
Ltmp700:
	.loc	38 758 9 prologue_end
	movq	%rsi, (%rdi)
	movq	%rdx, 8(%rdi)
	movq	%rcx, 16(%rdi)
	.loc	38 759 6
	addq	$24, %rsp
	popq	%rbp
	retq
Ltmp701:
Lfunc_end100:
	.cfi_endproc

	.p2align	4, 0x90
__ZN5alloc11collections5btree4node139Handle$LT$alloc..collections..btree..node..NodeRef$LT$BorrowType$C$K$C$V$C$NodeType$GT$$C$alloc..collections..btree..node..marker..Edge$GT$8new_edge17h34d49292782994aaE:
Lfunc_begin101:
	.loc	38 806 0
	.cfi_startproc
	pushq	%rbp
	.cfi_def_cfa_offset 16
	.cfi_offset %rbp, -16
	movq	%rsp, %rbp
	.cfi_def_cfa_register %rbp
	subq	$24, %rsp
	movq	%rdi, %rax
	movq	%rsi, -24(%rbp)
	movq	%rdx, -16(%rbp)
	movq	%rcx, -8(%rbp)
Ltmp702:
	.loc	38 809 9 prologue_end
	movq	%rsi, (%rdi)
	movq	%rdx, 8(%rdi)
	movq	%rcx, 16(%rdi)
	.loc	38 810 6
	addq	$24, %rsp
	popq	%rbp
	retq
Ltmp703:
Lfunc_end101:
	.cfi_endproc

	.p2align	4, 0x90
__ZN5alloc11collections5btree4node139Handle$LT$alloc..collections..btree..node..NodeRef$LT$BorrowType$C$K$C$V$C$NodeType$GT$$C$alloc..collections..btree..node..marker..Edge$GT$8new_edge17h6ceb92adef04bfecE:
Lfunc_begin102:
	.loc	38 806 0
	.cfi_startproc
	pushq	%rbp
	.cfi_def_cfa_offset 16
	.cfi_offset %rbp, -16
	movq	%rsp, %rbp
	.cfi_def_cfa_register %rbp
	subq	$24, %rsp
	movq	%rdi, %rax
	movq	%rsi, -24(%rbp)
	movq	%rdx, -16(%rbp)
	movq	%rcx, -8(%rbp)
Ltmp704:
	.loc	38 809 9 prologue_end
	movq	%rsi, (%rdi)
	movq	%rdx, 8(%rdi)
	movq	%rcx, 16(%rdi)
	.loc	38 810 6
	addq	$24, %rsp
	popq	%rbp
	retq
Ltmp705:
Lfunc_end102:
	.cfi_endproc

	.p2align	4, 0x90
__ZN5alloc11collections5btree4node139Handle$LT$alloc..collections..btree..node..NodeRef$LT$BorrowType$C$K$C$V$C$NodeType$GT$$C$alloc..collections..btree..node..marker..Edge$GT$8new_edge17ha6cda1134c07c0a5E:
Lfunc_begin103:
	.loc	38 806 0
	.cfi_startproc
	pushq	%rbp
	.cfi_def_cfa_offset 16
	.cfi_offset %rbp, -16
	movq	%rsp, %rbp
	.cfi_def_cfa_register %rbp
	subq	$24, %rsp
	movq	%rdi, %rax
	movq	%rsi, -24(%rbp)
	movq	%rdx, -16(%rbp)
	movq	%rcx, -8(%rbp)
Ltmp706:
	.loc	38 809 9 prologue_end
	movq	%rsi, (%rdi)
	movq	%rdx, 8(%rdi)
	movq	%rcx, 16(%rdi)
	.loc	38 810 6
	addq	$24, %rsp
	popq	%rbp
	retq
Ltmp707:
Lfunc_end103:
	.cfi_endproc

	.p2align	4, 0x90
__ZN5alloc11collections5btree4node139Handle$LT$alloc..collections..btree..node..NodeRef$LT$BorrowType$C$K$C$V$C$NodeType$GT$$C$alloc..collections..btree..node..marker..Edge$GT$8right_kv17h89b21cd5cae13997E:
Lfunc_begin104:
	.loc	38 820 0
	.cfi_startproc
	pushq	%rbp
	.cfi_def_cfa_offset 16
	.cfi_offset %rbp, -16
	movq	%rsp, %rbp
	.cfi_def_cfa_register %rbp
	subq	$80, %rsp
	movq	%rsi, -80(%rbp)
Ltmp708:
	movq	%rdi, %rax
	movq	-80(%rbp), %rdi
	movq	%rax, -72(%rbp)
	movq	%rax, -64(%rbp)
Ltmp709:
	.loc	38 821 12 prologue_end
	movq	16(%rdi), %rax
	movq	%rax, -56(%rbp)
	.loc	38 821 23 is_stmt 0
	callq	__ZN5alloc11collections5btree4node40NodeRef$LT$BorrowType$C$K$C$V$C$Type$GT$3len17h2b00679baa352d59E
Ltmp710:
	movq	%rax, %rcx
	movq	-56(%rbp), %rax
	.loc	38 821 12
	cmpq	%rcx, %rax
Ltmp711:
	jb	LBB104_2
Ltmp712:
	.loc	38 0 12
	movq	-72(%rbp), %rax
	movq	-80(%rbp), %rcx
	.loc	38 824 17 is_stmt 1
	movq	(%rcx), %rdx
	movq	%rdx, -24(%rbp)
	movq	8(%rcx), %rdx
	movq	%rdx, -16(%rbp)
	movq	16(%rcx), %rcx
	movq	%rcx, -8(%rbp)
	.loc	38 824 13 is_stmt 0
	movq	-24(%rbp), %rcx
	movq	%rcx, 8(%rax)
	movq	-16(%rbp), %rcx
	movq	%rcx, 16(%rax)
	movq	-8(%rbp), %rcx
	movq	%rcx, 24(%rax)
	movq	$1, (%rax)
	.loc	38 821 9 is_stmt 1
	jmp	LBB104_3
Ltmp713:
LBB104_2:
	.loc	38 0 9 is_stmt 0
	movq	-80(%rbp), %rax
	.loc	38 822 40 is_stmt 1
	movq	(%rax), %rsi
	movq	8(%rax), %rdx
	.loc	38 822 51 is_stmt 0
	movq	16(%rax), %rcx
	.loc	38 822 25
	leaq	-48(%rbp), %rdi
	callq	__ZN5alloc11collections5btree4node137Handle$LT$alloc..collections..btree..node..NodeRef$LT$BorrowType$C$K$C$V$C$NodeType$GT$$C$alloc..collections..btree..node..marker..KV$GT$6new_kv17h198827a640fb92e8E
	movq	-72(%rbp), %rax
	.loc	38 822 13
	movq	-48(%rbp), %rcx
	movq	%rcx, 8(%rax)
	movq	-40(%rbp), %rcx
	movq	%rcx, 16(%rax)
	movq	-32(%rbp), %rcx
	movq	%rcx, 24(%rax)
	movq	$0, (%rax)
Ltmp714:
LBB104_3:
	.loc	38 0 13
	movq	-64(%rbp), %rax
	.loc	38 826 6 is_stmt 1
	addq	$80, %rsp
	popq	%rbp
	retq
Ltmp715:
Lfunc_end104:
	.cfi_endproc

	.p2align	4, 0x90
__ZN5alloc11collections5btree4node145Handle$LT$alloc..collections..btree..node..NodeRef$LT$BorrowType$C$K$C$V$C$alloc..collections..btree..node..marker..LeafOrInternal$GT$$C$Type$GT$5force17hd14557cd1f64547cE:
Lfunc_begin105:
	.loc	38 1561 0
	.cfi_startproc
	pushq	%rbp
	.cfi_def_cfa_offset 16
	.cfi_offset %rbp, -16
	movq	%rsp, %rbp
	.cfi_def_cfa_register %rbp
	subq	$128, %rsp
	movq	%rsi, %rax
	movq	%rax, -128(%rbp)
Ltmp716:
	movq	%rdi, -120(%rbp)
	movq	%rdi, -112(%rbp)
Ltmp717:
	.loc	38 1567 15 prologue_end
	movq	(%rax), %rsi
	movq	8(%rax), %rdx
	leaq	-104(%rbp), %rdi
	callq	__ZN5alloc11collections5btree4node91NodeRef$LT$BorrowType$C$K$C$V$C$alloc..collections..btree..node..marker..LeafOrInternal$GT$5force17h565ed921a44457daE
Ltmp718:
	.loc	38 1567 9 is_stmt 0
	cmpq	$0, -104(%rbp)
Ltmp719:
	jne	LBB105_2
Ltmp720:
	.loc	38 0 9
	movq	-120(%rbp), %rax
	movq	-128(%rbp), %rcx
	.loc	38 1568 31 is_stmt 1
	movq	-96(%rbp), %rsi
	movq	-88(%rbp), %rdx
	movq	%rsi, -16(%rbp)
	movq	%rdx, -8(%rbp)
Ltmp721:
	.loc	38 1569 55
	movq	16(%rcx), %rcx
	.loc	38 1569 35 is_stmt 0
	movq	%rsi, -80(%rbp)
	movq	%rdx, -72(%rbp)
	movq	%rcx, -64(%rbp)
	.loc	38 1569 17
	movq	-80(%rbp), %rcx
	movq	%rcx, 8(%rax)
	movq	-72(%rbp), %rcx
	movq	%rcx, 16(%rax)
	movq	-64(%rbp), %rcx
	movq	%rcx, 24(%rax)
	movq	$0, (%rax)
Ltmp722:
	.loc	38 1570 13 is_stmt 1
	jmp	LBB105_3
Ltmp723:
LBB105_2:
	.loc	38 0 13 is_stmt 0
	movq	-120(%rbp), %rax
	movq	-128(%rbp), %rcx
	.loc	38 1571 35 is_stmt 1
	movq	-96(%rbp), %rsi
	movq	-88(%rbp), %rdx
	movq	%rsi, -32(%rbp)
	movq	%rdx, -24(%rbp)
Ltmp724:
	.loc	38 1572 59
	movq	16(%rcx), %rcx
	.loc	38 1572 39 is_stmt 0
	movq	%rsi, -56(%rbp)
	movq	%rdx, -48(%rbp)
	movq	%rcx, -40(%rbp)
	.loc	38 1572 17
	movq	-56(%rbp), %rcx
	movq	%rcx, 8(%rax)
	movq	-48(%rbp), %rcx
	movq	%rcx, 16(%rax)
	movq	-40(%rbp), %rcx
	movq	%rcx, 24(%rax)
	movq	$1, (%rax)
Ltmp725:
LBB105_3:
	.loc	38 0 17
	movq	-112(%rbp), %rax
	.loc	38 1575 6 is_stmt 1
	addq	$128, %rsp
	popq	%rbp
	retq
Ltmp726:
Lfunc_end105:
	.cfi_endproc

	.p2align	4, 0x90
__ZN5alloc11collections5btree4node173Handle$LT$alloc..collections..btree..node..NodeRef$LT$alloc..collections..btree..node..marker..Dying$C$K$C$V$C$NodeType$GT$$C$alloc..collections..btree..node..marker..KV$GT$12drop_key_val17hf860890d3347f70dE:
Lfunc_begin106:
	.loc	38 1092 0
	.cfi_startproc
	pushq	%rbp
	.cfi_def_cfa_offset 16
	.cfi_offset %rbp, -16
	movq	%rsp, %rbp
	.cfi_def_cfa_register %rbp
	subq	$240, %rsp
	movq	%rdi, -224(%rbp)
Ltmp727:
	.loc	38 1094 20 prologue_end
	callq	__ZN5alloc11collections5btree4node76NodeRef$LT$alloc..collections..btree..node..marker..Dying$C$K$C$V$C$Type$GT$13as_leaf_dying17he89885afe644cf1aE
	movq	-224(%rbp), %rdi
	movq	%rax, -232(%rbp)
	movq	%rax, -216(%rbp)
Ltmp728:
	.loc	38 1096 13
	addq	$8, %rax
	movq	%rax, -208(%rbp)
	movq	$11, -200(%rbp)
	.loc	38 1096 41 is_stmt 0
	movq	16(%rdi), %rcx
	movq	%rcx, -192(%rbp)
Ltmp729:
	.file	39 "/rustc/2c8cc343237b8f7d5a3c3703e3a87f2eb2c54a74/library/core/src/slice" "mod.rs"
	.loc	39 443 24 is_stmt 1
	movq	%rcx, -184(%rbp)
	.loc	39 443 48 is_stmt 0
	movq	%rax, -176(%rbp)
	movq	$11, -168(%rbp)
Ltmp730:
	.loc	1 253 13 is_stmt 1
	movq	%rax, -160(%rbp)
	movq	$11, -152(%rbp)
Ltmp731:
	.loc	5 2037 9
	movq	%rax, -144(%rbp)
Ltmp732:
	.loc	1 253 36
	movq	%rcx, -136(%rbp)
Ltmp733:
	.loc	5 1034 18
	movq	%rax, -128(%rbp)
	.loc	5 1034 30 is_stmt 0
	movq	%rcx, -120(%rbp)
Ltmp734:
	.loc	5 487 18 is_stmt 1
	imulq	$24, %rcx, %rcx
	addq	%rcx, %rax
	movq	%rax, -112(%rbp)
	movq	-112(%rbp), %rdi
Ltmp735:
	.loc	38 1096 13
	callq	__ZN4core3mem12maybe_uninit20MaybeUninit$LT$T$GT$16assume_init_drop17hbf0b28bf72ad2804E
	movq	-232(%rbp), %rax
	movq	-224(%rbp), %rdi
	.loc	38 1097 13
	addq	$272, %rax
	movq	%rax, -104(%rbp)
	movq	$11, -96(%rbp)
	.loc	38 1097 41 is_stmt 0
	movq	16(%rdi), %rcx
	movq	%rcx, -88(%rbp)
Ltmp736:
	.loc	39 443 24 is_stmt 1
	movq	%rcx, -80(%rbp)
	.loc	39 443 48 is_stmt 0
	movq	%rax, -72(%rbp)
	movq	$11, -64(%rbp)
Ltmp737:
	.loc	1 253 13 is_stmt 1
	movq	%rax, -56(%rbp)
	movq	$11, -48(%rbp)
Ltmp738:
	.loc	5 2037 9
	movq	%rax, -40(%rbp)
Ltmp739:
	.loc	1 253 36
	movq	%rcx, -32(%rbp)
Ltmp740:
	.loc	5 1034 18
	movq	%rax, -24(%rbp)
	.loc	5 1034 30 is_stmt 0
	movq	%rcx, -16(%rbp)
Ltmp741:
	.loc	5 487 18 is_stmt 1
	imulq	$24, %rcx, %rcx
	addq	%rcx, %rax
	movq	%rax, -8(%rbp)
	movq	-8(%rbp), %rdi
Ltmp742:
	.loc	38 1097 13
	callq	__ZN4core3mem12maybe_uninit20MaybeUninit$LT$T$GT$16assume_init_drop17h9f51593ae5dfa89cE
Ltmp743:
	.loc	38 1099 6
	addq	$240, %rsp
	popq	%rbp
	retq
Ltmp744:
Lfunc_end106:
	.cfi_endproc

	.p2align	4, 0x90
__ZN5alloc11collections5btree4node176Handle$LT$alloc..collections..btree..node..NodeRef$LT$BorrowType$C$K$C$V$C$alloc..collections..btree..node..marker..Leaf$GT$$C$alloc..collections..btree..node..marker..Edge$GT$16forget_node_type17h2bded09d077512ddE:
Lfunc_begin107:
	.loc	38 1536 0
	.cfi_startproc
	pushq	%rbp
	.cfi_def_cfa_offset 16
	.cfi_offset %rbp, -16
	movq	%rsp, %rbp
	.cfi_def_cfa_register %rbp
	subq	$32, %rsp
	movq	%rsi, -16(%rbp)
	movq	%rdi, -24(%rbp)
	movq	%rdi, -8(%rbp)
Ltmp745:
	.loc	38 1539 35 prologue_end
	movq	(%rsi), %rdi
	movq	8(%rsi), %rsi
	callq	__ZN5alloc11collections5btree4node81NodeRef$LT$BorrowType$C$K$C$V$C$alloc..collections..btree..node..marker..Leaf$GT$11forget_type17h5ce92414645b0f97E
	movq	-24(%rbp), %rdi
	movq	%rax, %rsi
	movq	-16(%rbp), %rax
	.loc	38 1539 60 is_stmt 0
	movq	16(%rax), %rcx
	.loc	38 1539 18
	callq	__ZN5alloc11collections5btree4node139Handle$LT$alloc..collections..btree..node..NodeRef$LT$BorrowType$C$K$C$V$C$NodeType$GT$$C$alloc..collections..btree..node..marker..Edge$GT$8new_edge17h34d49292782994aaE
	movq	-8(%rbp), %rax
	.loc	38 1540 6 is_stmt 1
	addq	$32, %rsp
	popq	%rbp
	retq
Ltmp746:
Lfunc_end107:
	.cfi_endproc

	.p2align	4, 0x90
__ZN5alloc11collections5btree4node180Handle$LT$alloc..collections..btree..node..NodeRef$LT$BorrowType$C$K$C$V$C$alloc..collections..btree..node..marker..Internal$GT$$C$alloc..collections..btree..node..marker..Edge$GT$16forget_node_type17h13f808e6d8ea48b2E:
Lfunc_begin108:
	.loc	38 1544 0
	.cfi_startproc
	pushq	%rbp
	.cfi_def_cfa_offset 16
	.cfi_offset %rbp, -16
	movq	%rsp, %rbp
	.cfi_def_cfa_register %rbp
	subq	$32, %rsp
	movq	%rsi, -16(%rbp)
	movq	%rdi, -24(%rbp)
	movq	%rdi, -8(%rbp)
Ltmp747:
	.loc	38 1547 35 prologue_end
	movq	(%rsi), %rdi
	movq	8(%rsi), %rsi
	callq	__ZN5alloc11collections5btree4node85NodeRef$LT$BorrowType$C$K$C$V$C$alloc..collections..btree..node..marker..Internal$GT$11forget_type17h2b104279274bc24eE
	movq	-24(%rbp), %rdi
	movq	%rax, %rsi
	movq	-16(%rbp), %rax
	.loc	38 1547 60 is_stmt 0
	movq	16(%rax), %rcx
	.loc	38 1547 18
	callq	__ZN5alloc11collections5btree4node139Handle$LT$alloc..collections..btree..node..NodeRef$LT$BorrowType$C$K$C$V$C$NodeType$GT$$C$alloc..collections..btree..node..marker..Edge$GT$8new_edge17h34d49292782994aaE
	movq	-8(%rbp), %rax
	.loc	38 1548 6 is_stmt 1
	addq	$32, %rsp
	popq	%rbp
	retq
Ltmp748:
Lfunc_end108:
	.cfi_endproc

	.p2align	4, 0x90
__ZN5alloc11collections5btree4node180Handle$LT$alloc..collections..btree..node..NodeRef$LT$BorrowType$C$K$C$V$C$alloc..collections..btree..node..marker..Internal$GT$$C$alloc..collections..btree..node..marker..Edge$GT$7descend17h4ede6fa56697b0d6E:
Lfunc_begin109:
	.loc	38 1008 0
	.cfi_startproc
	pushq	%rbp
	.cfi_def_cfa_offset 16
	.cfi_offset %rbp, -16
	movq	%rsp, %rbp
	.cfi_def_cfa_register %rbp
	subq	$208, %rsp
	movq	%rdi, -208(%rbp)
Ltmp749:
	.loc	38 1020 26 prologue_end
	callq	__ZN5alloc11collections5btree4node85NodeRef$LT$BorrowType$C$K$C$V$C$alloc..collections..btree..node..marker..Internal$GT$15as_internal_ptr17hbb6657be316b01a3E
	movq	-208(%rbp), %rdi
	movq	%rax, -176(%rbp)
Ltmp750:
	.loc	38 1021 29
	movq	%rax, %rdx
	addq	$544, %rdx
	movq	%rdx, -168(%rbp)
	movq	$12, -160(%rbp)
	.loc	38 1021 63 is_stmt 0
	movq	16(%rdi), %rcx
	movq	%rcx, -152(%rbp)
Ltmp751:
	.loc	39 405 20 is_stmt 1
	movq	%rcx, -144(%rbp)
	.loc	39 405 40 is_stmt 0
	movq	%rdx, -136(%rbp)
	movq	$12, -128(%rbp)
Ltmp752:
	.loc	1 240 13 is_stmt 1
	movq	%rdx, -120(%rbp)
	movq	$12, -112(%rbp)
Ltmp753:
	.loc	2 1650 9
	movq	%rdx, -104(%rbp)
Ltmp754:
	.loc	1 240 32
	movq	%rcx, -96(%rbp)
Ltmp755:
	.loc	2 932 18
	movq	%rdx, -88(%rbp)
	.loc	2 932 30 is_stmt 0
	movq	%rcx, -80(%rbp)
Ltmp756:
	.loc	2 473 18 is_stmt 1
	leaq	544(%rax,%rcx,8), %rax
	movq	%rax, -72(%rbp)
	movq	-72(%rbp), %rax
Ltmp757:
	.loc	38 1021 29
	movq	%rax, -64(%rbp)
Ltmp758:
	.loc	23 697 13
	movq	%rax, -56(%rbp)
Ltmp759:
	.loc	23 530 9
	movq	%rax, -48(%rbp)
Ltmp760:
	.loc	2 1216 23
	movq	%rax, -40(%rbp)
	leaq	-184(%rbp), %rcx
Ltmp761:
	.loc	3 1157 34
	movq	%rcx, -32(%rbp)
	.loc	3 1157 9 is_stmt 0
	movq	(%rax), %rax
	movq	%rax, -184(%rbp)
	.loc	3 1158 9 is_stmt 1
	movq	-184(%rbp), %rax
	movq	%rax, -24(%rbp)
Ltmp762:
	.loc	23 627 38
	movq	%rax, -16(%rbp)
Ltmp763:
	.loc	7 89 9
	movq	%rax, -8(%rbp)
Ltmp764:
	.loc	38 1022 33
	movq	(%rdi), %rcx
	decq	%rcx
	.loc	38 1022 9 is_stmt 0
	movq	%rcx, -200(%rbp)
	movq	%rax, -192(%rbp)
Ltmp765:
	.loc	38 1023 6 is_stmt 1
	movq	-200(%rbp), %rax
	movq	-192(%rbp), %rdx
	addq	$208, %rsp
	popq	%rbp
	retq
Ltmp766:
Lfunc_end109:
	.cfi_endproc

	.p2align	4, 0x90
__ZN5alloc11collections5btree4node25Handle$LT$Node$C$Type$GT$9into_node17hdb4bb8f3d819eb76E:
Lfunc_begin110:
	.loc	38 742 0
	.cfi_startproc
	pushq	%rbp
	.cfi_def_cfa_offset 16
	.cfi_offset %rbp, -16
	movq	%rsp, %rbp
	.cfi_def_cfa_register %rbp
Ltmp767:
	.loc	38 743 9 prologue_end
	movq	(%rdi), %rax
	movq	8(%rdi), %rdx
	.loc	38 744 6
	popq	%rbp
	retq
Ltmp768:
Lfunc_end110:
	.cfi_endproc

	.p2align	4, 0x90
__ZN5alloc11collections5btree4node40NodeRef$LT$BorrowType$C$K$C$V$C$Type$GT$10first_edge17h1c3829359883e7e2E:
Lfunc_begin111:
	.loc	38 338 0
	.cfi_startproc
	pushq	%rbp
	.cfi_def_cfa_offset 16
	.cfi_offset %rbp, -16
	movq	%rsp, %rbp
	.cfi_def_cfa_register %rbp
	subq	$32, %rsp
	movq	%rdi, %rax
	movq	%rax, -24(%rbp)
	movq	%rsi, -16(%rbp)
	movq	%rdx, -8(%rbp)
Ltmp769:
	.loc	38 339 18 prologue_end
	xorl	%eax, %eax
	movl	%eax, %ecx
	callq	__ZN5alloc11collections5btree4node139Handle$LT$alloc..collections..btree..node..NodeRef$LT$BorrowType$C$K$C$V$C$NodeType$GT$$C$alloc..collections..btree..node..marker..Edge$GT$8new_edge17h6ceb92adef04bfecE
	movq	-24(%rbp), %rax
	.loc	38 340 6
	addq	$32, %rsp
	popq	%rbp
	retq
Ltmp770:
Lfunc_end111:
	.cfi_endproc

	.p2align	4, 0x90
__ZN5alloc11collections5btree4node40NodeRef$LT$BorrowType$C$K$C$V$C$Type$GT$10first_edge17h5187a2216345237bE:
Lfunc_begin112:
	.loc	38 338 0
	.cfi_startproc
	pushq	%rbp
	.cfi_def_cfa_offset 16
	.cfi_offset %rbp, -16
	movq	%rsp, %rbp
	.cfi_def_cfa_register %rbp
	subq	$32, %rsp
	movq	%rdi, %rax
	movq	%rax, -24(%rbp)
	movq	%rsi, -16(%rbp)
	movq	%rdx, -8(%rbp)
Ltmp771:
	.loc	38 339 18 prologue_end
	xorl	%eax, %eax
	movl	%eax, %ecx
	callq	__ZN5alloc11collections5btree4node139Handle$LT$alloc..collections..btree..node..NodeRef$LT$BorrowType$C$K$C$V$C$NodeType$GT$$C$alloc..collections..btree..node..marker..Edge$GT$8new_edge17ha6cda1134c07c0a5E
	movq	-24(%rbp), %rax
	.loc	38 340 6
	addq	$32, %rsp
	popq	%rbp
	retq
Ltmp772:
Lfunc_end112:
	.cfi_endproc

	.p2align	4, 0x90
__ZN5alloc11collections5btree4node40NodeRef$LT$BorrowType$C$K$C$V$C$Type$GT$11as_leaf_ptr17h1cd761097a9144e5E:
Lfunc_begin113:
	.loc	38 300 0
	.cfi_startproc
	pushq	%rbp
	.cfi_def_cfa_offset 16
	.cfi_offset %rbp, -16
	movq	%rsp, %rbp
	.cfi_def_cfa_register %rbp
	subq	$16, %rsp
	movq	%rdi, -16(%rbp)
Ltmp773:
	.loc	38 304 9 prologue_end
	movq	8(%rdi), %rax
	movq	%rax, -8(%rbp)
	.loc	38 305 6
	addq	$16, %rsp
	popq	%rbp
	retq
Ltmp774:
Lfunc_end113:
	.cfi_endproc

	.p2align	4, 0x90
__ZN5alloc11collections5btree4node40NodeRef$LT$BorrowType$C$K$C$V$C$Type$GT$3len17h2b00679baa352d59E:
Lfunc_begin114:
	.loc	38 277 0
	.cfi_startproc
	pushq	%rbp
	.cfi_def_cfa_offset 16
	.cfi_offset %rbp, -16
	movq	%rsp, %rbp
	.cfi_def_cfa_register %rbp
	subq	$16, %rsp
	movq	%rdi, -16(%rbp)
Ltmp775:
	.loc	38 280 32 prologue_end
	callq	__ZN5alloc11collections5btree4node40NodeRef$LT$BorrowType$C$K$C$V$C$Type$GT$11as_leaf_ptr17h1cd761097a9144e5E
	.loc	38 280 30 is_stmt 0
	movw	538(%rax), %ax
	movw	%ax, -2(%rbp)
Ltmp776:
	.file	40 "/rustc/2c8cc343237b8f7d5a3c3703e3a87f2eb2c54a74/library/core/src/convert" "num.rs"
	.loc	40 54 17 is_stmt 1
	movzwl	%ax, %eax
Ltmp777:
	.loc	38 281 6
	addq	$16, %rsp
	popq	%rbp
	retq
Ltmp778:
Lfunc_end114:
	.cfi_endproc

	.p2align	4, 0x90
__ZN5alloc11collections5btree4node40NodeRef$LT$BorrowType$C$K$C$V$C$Type$GT$6ascend17hb949904f5cdb83d5E:
Lfunc_begin115:
	.loc	38 318 0
	.cfi_startproc
	pushq	%rbp
	.cfi_def_cfa_offset 16
	.cfi_offset %rbp, -16
	movq	%rsp, %rbp
	.cfi_def_cfa_register %rbp
	subq	$192, %rsp
	movq	%rdi, -176(%rbp)
	movq	%rdi, -168(%rbp)
	movq	%rsi, -160(%rbp)
	movq	%rdx, -152(%rbp)
Ltmp779:
	.loc	38 327 34 prologue_end
	leaq	-160(%rbp), %rdi
	callq	__ZN5alloc11collections5btree4node40NodeRef$LT$BorrowType$C$K$C$V$C$Type$GT$11as_leaf_ptr17h1cd761097a9144e5E
	movq	%rax, -144(%rbp)
Ltmp780:
	.loc	38 328 18
	movq	-144(%rbp), %rax
	movq	(%rax), %rax
	movq	%rax, -104(%rbp)
	.loc	38 328 9 is_stmt 0
	leaq	-104(%rbp), %rax
	movq	%rax, -32(%rbp)
Ltmp781:
	.loc	8 675 15 is_stmt 1
	movq	-104(%rbp), %rdx
	movl	$1, %eax
	xorl	%ecx, %ecx
	cmpq	$0, %rdx
	cmoveq	%rcx, %rax
	.loc	8 675 9 is_stmt 0
	cmpq	$0, %rax
	jne	LBB115_2
	.loc	8 677 21 is_stmt 1
	movq	$0, -112(%rbp)
	jmp	LBB115_3
LBB115_2:
	.loc	8 676 18
	leaq	-104(%rbp), %rax
	movq	%rax, -24(%rbp)
Ltmp782:
	.loc	8 676 28 is_stmt 0
	leaq	-104(%rbp), %rax
	movq	%rax, -112(%rbp)
Ltmp783:
LBB115_3:
	.loc	38 330 18 is_stmt 1
	leaq	-160(%rbp), %rax
	movq	%rax, -96(%rbp)
	leaq	-144(%rbp), %rax
	movq	%rax, -88(%rbp)
	.loc	38 328 9
	movq	-112(%rbp), %rsi
	movq	-96(%rbp), %rdx
	movq	-88(%rbp), %rcx
	leaq	-136(%rbp), %rdi
	callq	__ZN4core6option15Option$LT$T$GT$3map17hf73625707ab69fb4E
	.loc	38 335 20
	movq	-160(%rbp), %rcx
	movq	%rcx, -192(%rbp)
	movq	-152(%rbp), %rax
	movq	%rax, -184(%rbp)
	movq	%rcx, -16(%rbp)
	movq	%rax, -8(%rbp)
Ltmp784:
	.loc	8 1096 15
	movq	-128(%rbp), %rdx
	movl	$1, %eax
	xorl	%ecx, %ecx
	cmpq	$0, %rdx
	cmoveq	%rcx, %rax
	.loc	8 1096 9 is_stmt 0
	cmpq	$0, %rax
	jne	LBB115_5
	.loc	8 0 9
	movq	-176(%rbp), %rax
	movq	-184(%rbp), %rcx
	movq	-192(%rbp), %rdx
	.loc	8 1098 21 is_stmt 1
	movq	%rdx, 8(%rax)
	movq	%rcx, 16(%rax)
	movq	$1, (%rax)
	.loc	8 1098 28 is_stmt 0
	jmp	LBB115_6
LBB115_5:
	.loc	8 0 28
	movq	-176(%rbp), %rax
	.loc	8 1097 18 is_stmt 1
	movq	-136(%rbp), %rcx
	movq	%rcx, -80(%rbp)
	movq	-128(%rbp), %rcx
	movq	%rcx, -72(%rbp)
	movq	-120(%rbp), %rcx
	movq	%rcx, -64(%rbp)
Ltmp785:
	.loc	8 1097 27 is_stmt 0
	movq	-80(%rbp), %rcx
	movq	%rcx, -56(%rbp)
	movq	-72(%rbp), %rcx
	movq	%rcx, -48(%rbp)
	movq	-64(%rbp), %rcx
	movq	%rcx, -40(%rbp)
	.loc	8 1097 24
	movq	-56(%rbp), %rcx
	movq	%rcx, 8(%rax)
	movq	-48(%rbp), %rcx
	movq	%rcx, 16(%rax)
	movq	-40(%rbp), %rcx
	movq	%rcx, 24(%rax)
	movq	$0, (%rax)
Ltmp786:
LBB115_6:
	.loc	8 0 24
	movq	-168(%rbp), %rax
	.loc	38 336 6 is_stmt 1
	addq	$192, %rsp
	popq	%rbp
	retq
Ltmp787:
Lfunc_end115:
	.cfi_endproc

	.p2align	4, 0x90
__ZN5alloc11collections5btree4node40NodeRef$LT$BorrowType$C$K$C$V$C$Type$GT$6ascend28_$u7b$$u7b$closure$u7d$$u7d$17hed946e2958f9bac7E:
Lfunc_begin116:
	.loc	38 330 0
	.cfi_startproc
	pushq	%rbp
	.cfi_def_cfa_offset 16
	.cfi_offset %rbp, -16
	movq	%rsp, %rbp
	.cfi_def_cfa_register %rbp
	subq	$48, %rsp
	movq	%rdi, -48(%rbp)
	movq	%rdi, -40(%rbp)
	movq	%rsi, -32(%rbp)
	movq	%rdx, -24(%rbp)
	movq	%rcx, -16(%rbp)
Ltmp788:
	.loc	38 331 46 prologue_end
	movq	(%rcx), %rdi
	.loc	38 331 55 is_stmt 0
	movq	-32(%rbp), %rax
	movq	(%rax), %rsi
	addq	$1, %rsi
	.loc	38 331 23
	callq	__ZN5alloc11collections5btree4node85NodeRef$LT$BorrowType$C$K$C$V$C$alloc..collections..btree..node..marker..Internal$GT$13from_internal17h4ec32e2885683986E
	movq	-48(%rbp), %rdi
	movq	%rax, %rsi
	movq	-40(%rbp), %rax
	.loc	38 332 43 is_stmt 1
	movq	-24(%rbp), %rcx
	movq	(%rcx), %rcx
	movw	536(%rcx), %cx
	movw	%cx, -6(%rbp)
Ltmp789:
	.loc	23 627 38
	movw	%cx, -4(%rbp)
Ltmp790:
	.loc	7 89 9
	movw	%cx, -2(%rbp)
Ltmp791:
	.loc	40 54 17
	movzwl	%cx, %ecx
Ltmp792:
	.loc	38 330 27
	movq	%rsi, (%rdi)
	movq	%rdx, 8(%rdi)
	movq	%rcx, 16(%rdi)
	.loc	38 334 14
	addq	$48, %rsp
	popq	%rbp
	retq
Ltmp793:
Lfunc_end116:
	.cfi_endproc

	.p2align	4, 0x90
__ZN5alloc11collections5btree4node76NodeRef$LT$alloc..collections..btree..node..marker..Dying$C$K$C$V$C$Type$GT$13as_leaf_dying17he89885afe644cf1aE:
Lfunc_begin117:
	.loc	38 449 0
	.cfi_startproc
	pushq	%rbp
	.cfi_def_cfa_offset 16
	.cfi_offset %rbp, -16
	movq	%rsp, %rbp
	.cfi_def_cfa_register %rbp
	subq	$16, %rsp
	movq	%rdi, -16(%rbp)
Ltmp794:
	.loc	38 450 19 prologue_end
	callq	__ZN5alloc11collections5btree4node40NodeRef$LT$BorrowType$C$K$C$V$C$Type$GT$11as_leaf_ptr17h1cd761097a9144e5E
	movq	%rax, -8(%rbp)
	.loc	38 453 6
	addq	$16, %rsp
	popq	%rbp
	retq
Ltmp795:
Lfunc_end117:
	.cfi_endproc

	.p2align	4, 0x90
__ZN5alloc11collections5btree4node76NodeRef$LT$alloc..collections..btree..node..marker..Owned$C$K$C$V$C$Type$GT$10into_dying17h5b118898046cc81fE:
Lfunc_begin118:
	.loc	38 626 0
	.cfi_startproc
	pushq	%rbp
	.cfi_def_cfa_offset 16
	.cfi_offset %rbp, -16
	movq	%rsp, %rbp
	.cfi_def_cfa_register %rbp
	subq	$32, %rsp
	movq	%rdi, -16(%rbp)
	movq	%rsi, -8(%rbp)
Ltmp796:
	.loc	38 627 9 prologue_end
	movq	%rdi, -32(%rbp)
	movq	%rsi, -24(%rbp)
	.loc	38 628 6
	movq	-32(%rbp), %rax
	movq	-24(%rbp), %rdx
	addq	$32, %rsp
	popq	%rbp
	retq
Ltmp797:
Lfunc_end118:
	.cfi_endproc

	.p2align	4, 0x90
__ZN5alloc11collections5btree4node81NodeRef$LT$BorrowType$C$K$C$V$C$alloc..collections..btree..node..marker..Leaf$GT$11forget_type17h5ce92414645b0f97E:
Lfunc_begin119:
	.loc	38 667 0
	.cfi_startproc
	pushq	%rbp
	.cfi_def_cfa_offset 16
	.cfi_offset %rbp, -16
	movq	%rsp, %rbp
	.cfi_def_cfa_register %rbp
	subq	$32, %rsp
	movq	%rdi, -16(%rbp)
	movq	%rsi, -8(%rbp)
Ltmp798:
	.loc	38 668 9 prologue_end
	movq	%rdi, -32(%rbp)
	movq	%rsi, -24(%rbp)
	.loc	38 669 6
	movq	-32(%rbp), %rax
	movq	-24(%rbp), %rdx
	addq	$32, %rsp
	popq	%rbp
	retq
Ltmp799:
Lfunc_end119:
	.cfi_endproc

	.p2align	4, 0x90
__ZN5alloc11collections5btree4node85NodeRef$LT$BorrowType$C$K$C$V$C$alloc..collections..btree..node..marker..Internal$GT$11forget_type17h2b104279274bc24eE:
Lfunc_begin120:
	.loc	38 674 0
	.cfi_startproc
	pushq	%rbp
	.cfi_def_cfa_offset 16
	.cfi_offset %rbp, -16
	movq	%rsp, %rbp
	.cfi_def_cfa_register %rbp
	subq	$32, %rsp
	movq	%rdi, -16(%rbp)
	movq	%rsi, -8(%rbp)
Ltmp800:
	.loc	38 675 9 prologue_end
	movq	%rdi, -32(%rbp)
	movq	%rsi, -24(%rbp)
	.loc	38 676 6
	movq	-32(%rbp), %rax
	movq	-24(%rbp), %rdx
	addq	$32, %rsp
	popq	%rbp
	retq
Ltmp801:
Lfunc_end120:
	.cfi_endproc

	.p2align	4, 0x90
__ZN5alloc11collections5btree4node85NodeRef$LT$BorrowType$C$K$C$V$C$alloc..collections..btree..node..marker..Internal$GT$13from_internal17h4ec32e2885683986E:
Lfunc_begin121:
	.loc	38 248 0
	.cfi_startproc
	pushq	%rbp
	.cfi_def_cfa_offset 16
	.cfi_offset %rbp, -16
	movq	%rsp, %rbp
	.cfi_def_cfa_register %rbp
	subq	$64, %rsp
	movq	%rdi, -40(%rbp)
	movq	%rsi, -32(%rbp)
Ltmp802:
	.loc	38 250 33 prologue_end
	movq	%rdi, -24(%rbp)
Ltmp803:
	.loc	9 450 41
	movq	%rdi, -16(%rbp)
	movq	%rdi, -8(%rbp)
Ltmp804:
	.loc	9 201 13
	movq	%rdi, -48(%rbp)
Ltmp805:
	.loc	38 250 9
	movq	%rsi, -64(%rbp)
	movq	-48(%rbp), %rax
	movq	%rax, -56(%rbp)
	.loc	38 251 6
	movq	-64(%rbp), %rax
	movq	-56(%rbp), %rdx
	addq	$64, %rsp
	popq	%rbp
	retq
Ltmp806:
Lfunc_end121:
	.cfi_endproc

	.p2align	4, 0x90
__ZN5alloc11collections5btree4node85NodeRef$LT$BorrowType$C$K$C$V$C$alloc..collections..btree..node..marker..Internal$GT$15as_internal_ptr17hbb6657be316b01a3E:
Lfunc_begin122:
	.loc	38 258 0
	.cfi_startproc
	pushq	%rbp
	.cfi_def_cfa_offset 16
	.cfi_offset %rbp, -16
	movq	%rsp, %rbp
	.cfi_def_cfa_register %rbp
	subq	$16, %rsp
	movq	%rdi, -16(%rbp)
Ltmp807:
	.loc	38 260 9 prologue_end
	movq	8(%rdi), %rax
	movq	%rax, -8(%rbp)
	.loc	38 261 6
	addq	$16, %rsp
	popq	%rbp
	retq
Ltmp808:
Lfunc_end122:
	.cfi_endproc

	.p2align	4, 0x90
__ZN5alloc11collections5btree4node91NodeRef$LT$BorrowType$C$K$C$V$C$alloc..collections..btree..node..marker..LeafOrInternal$GT$5force17h565ed921a44457daE:
Lfunc_begin123:
	.loc	38 681 0
	.cfi_startproc
	pushq	%rbp
	.cfi_def_cfa_offset 16
	.cfi_offset %rbp, -16
	movq	%rsp, %rbp
	.cfi_def_cfa_register %rbp
	subq	$80, %rsp
	movq	%rdx, -80(%rbp)
	movq	%rsi, -72(%rbp)
	movq	%rdi, -64(%rbp)
	movq	%rdi, -56(%rbp)
	movq	%rsi, -16(%rbp)
	movq	%rdx, -8(%rbp)
Ltmp809:
	.loc	38 687 12 prologue_end
	cmpq	$0, %rsi
	jne	LBB123_2
	.loc	38 0 12 is_stmt 0
	movq	-64(%rbp), %rax
	movq	-80(%rbp), %rcx
	movq	-72(%rbp), %rdx
	.loc	38 688 31 is_stmt 1
	movq	%rdx, -48(%rbp)
	movq	%rcx, -40(%rbp)
	.loc	38 688 13 is_stmt 0
	movq	-48(%rbp), %rdx
	movq	-40(%rbp), %rcx
	movq	%rdx, 8(%rax)
	movq	%rcx, 16(%rax)
	movq	$0, (%rax)
	.loc	38 687 9 is_stmt 1
	jmp	LBB123_3
LBB123_2:
	.loc	38 0 9 is_stmt 0
	movq	-64(%rbp), %rax
	movq	-80(%rbp), %rcx
	movq	-72(%rbp), %rdx
	.loc	38 694 35 is_stmt 1
	movq	%rdx, -32(%rbp)
	movq	%rcx, -24(%rbp)
	.loc	38 694 13 is_stmt 0
	movq	-32(%rbp), %rdx
	movq	-24(%rbp), %rcx
	movq	%rdx, 8(%rax)
	movq	%rcx, 16(%rax)
	movq	$1, (%rax)
LBB123_3:
	.loc	38 0 13
	movq	-56(%rbp), %rax
	.loc	38 700 6 is_stmt 1
	addq	$80, %rsp
	popq	%rbp
	retq
Ltmp810:
Lfunc_end123:
	.cfi_endproc

	.p2align	4, 0x90
__ZN5alloc11collections5btree8navigate10full_range17hd90a46a2237a3b91E:
Lfunc_begin124:
	.file	41 "/rustc/2c8cc343237b8f7d5a3c3703e3a87f2eb2c54a74/library/alloc/src/collections/btree" "navigate.rs"
	.loc	41 289 0
	.cfi_startproc
	pushq	%rbp
	.cfi_def_cfa_offset 16
	.cfi_offset %rbp, -16
	movq	%rsp, %rbp
	.cfi_def_cfa_register %rbp
	subq	$160, %rsp
	movq	%rdi, %rax
	movq	%rsi, -32(%rbp)
	movq	%rdx, -24(%rbp)
	movq	%rcx, -16(%rbp)
	movq	%r8, -8(%rbp)
Ltmp811:
	.loc	41 294 21 prologue_end
	movq	%rsi, -120(%rbp)
	movq	%rdx, -112(%rbp)
	movq	$0, -128(%rbp)
	.loc	41 294 16 is_stmt 0
	movq	-128(%rbp), %rdx
	movq	%rdx, -160(%rbp)
	movq	-120(%rbp), %rdx
	movq	%rdx, -152(%rbp)
	movq	-112(%rbp), %rdx
	movq	%rdx, -144(%rbp)
	movq	-104(%rbp), %rdx
	movq	%rdx, -136(%rbp)
	.loc	41 295 20 is_stmt 1
	movq	%rcx, -56(%rbp)
	movq	%r8, -48(%rbp)
	movq	$0, -64(%rbp)
	.loc	41 295 15 is_stmt 0
	movq	-64(%rbp), %rcx
	movq	%rcx, -96(%rbp)
	movq	-56(%rbp), %rcx
	movq	%rcx, -88(%rbp)
	movq	-48(%rbp), %rcx
	movq	%rcx, -80(%rbp)
	movq	-40(%rbp), %rcx
	movq	%rcx, -72(%rbp)
	.loc	41 293 5 is_stmt 1
	movq	-160(%rbp), %rcx
	movq	%rcx, (%rdi)
	movq	-152(%rbp), %rcx
	movq	%rcx, 8(%rdi)
	movq	-144(%rbp), %rcx
	movq	%rcx, 16(%rdi)
	movq	-136(%rbp), %rcx
	movq	%rcx, 24(%rdi)
	movq	-96(%rbp), %rcx
	movq	%rcx, 32(%rdi)
	movq	-88(%rbp), %rcx
	movq	%rcx, 40(%rdi)
	movq	-80(%rbp), %rcx
	movq	%rcx, 48(%rdi)
	movq	-72(%rbp), %rcx
	movq	%rcx, 56(%rdi)
	.loc	41 297 2
	addq	$160, %rsp
	popq	%rbp
	retq
Ltmp812:
Lfunc_end124:
	.cfi_endproc

	.p2align	4, 0x90
__ZN5alloc11collections5btree8navigate142_$LT$impl$u20$alloc..collections..btree..node..NodeRef$LT$BorrowType$C$K$C$V$C$alloc..collections..btree..node..marker..LeafOrInternal$GT$$GT$15first_leaf_edge17h76b68b0af7e1af62E:
Lfunc_begin125:
	.loc	41 618 0
	.cfi_startproc
	pushq	%rbp
	.cfi_def_cfa_offset 16
	.cfi_offset %rbp, -16
	movq	%rsp, %rbp
	.cfi_def_cfa_register %rbp
	subq	$128, %rsp
	movq	%rdi, -128(%rbp)
	movq	%rdi, -120(%rbp)
	movq	%rsi, -48(%rbp)
	movq	%rdx, -40(%rbp)
Ltmp813:
	.loc	41 619 24 prologue_end
	movq	%rsi, -112(%rbp)
	movq	%rdx, -104(%rbp)
LBB125_1:
Ltmp814:
	.loc	41 621 19
	movq	-112(%rbp), %rsi
	movq	-104(%rbp), %rdx
	leaq	-96(%rbp), %rdi
	callq	__ZN5alloc11collections5btree4node91NodeRef$LT$BorrowType$C$K$C$V$C$alloc..collections..btree..node..marker..LeafOrInternal$GT$5force17h565ed921a44457daE
	.loc	41 621 13 is_stmt 0
	cmpq	$0, -96(%rbp)
	jne	LBB125_3
	.loc	41 0 13
	movq	-128(%rbp), %rdi
	.loc	41 622 22 is_stmt 1
	movq	-88(%rbp), %rsi
	movq	-80(%rbp), %rdx
	movq	%rsi, -16(%rbp)
	movq	%rdx, -8(%rbp)
Ltmp815:
	.loc	41 622 38 is_stmt 0
	callq	__ZN5alloc11collections5btree4node40NodeRef$LT$BorrowType$C$K$C$V$C$Type$GT$10first_edge17h1c3829359883e7e2E
	movq	-120(%rbp), %rax
Ltmp816:
	.loc	41 626 6 is_stmt 1
	addq	$128, %rsp
	popq	%rbp
	retq
LBB125_3:
Ltmp817:
	.loc	41 623 26
	movq	-88(%rbp), %rsi
	movq	-80(%rbp), %rdx
	movq	%rsi, -32(%rbp)
	movq	%rdx, -24(%rbp)
Ltmp818:
	.loc	41 623 46 is_stmt 0
	leaq	-72(%rbp), %rdi
	callq	__ZN5alloc11collections5btree4node40NodeRef$LT$BorrowType$C$K$C$V$C$Type$GT$10first_edge17h5187a2216345237bE
	leaq	-72(%rbp), %rdi
	callq	__ZN5alloc11collections5btree4node180Handle$LT$alloc..collections..btree..node..NodeRef$LT$BorrowType$C$K$C$V$C$alloc..collections..btree..node..marker..Internal$GT$$C$alloc..collections..btree..node..marker..Edge$GT$7descend17h4ede6fa56697b0d6E
	.loc	41 623 39
	movq	%rax, -112(%rbp)
	movq	%rdx, -104(%rbp)
Ltmp819:
	.loc	41 620 9 is_stmt 1
	jmp	LBB125_1
Ltmp820:
Lfunc_end125:
	.cfi_endproc

	.p2align	4, 0x90
__ZN5alloc11collections5btree8navigate178_$LT$impl$u20$alloc..collections..btree..node..NodeRef$LT$alloc..collections..btree..node..marker..Dying$C$K$C$V$C$alloc..collections..btree..node..marker..LeafOrInternal$GT$$GT$10full_range17h6ddd4810c8444c5eE:
Lfunc_begin126:
	.loc	41 354 0
	.cfi_startproc
	pushq	%rbp
	.cfi_def_cfa_offset 16
	.cfi_offset %rbp, -16
	movq	%rsp, %rbp
	.cfi_def_cfa_register %rbp
	subq	$112, %rsp
	movq	%rdi, %rax
	movq	%rax, -104(%rbp)
	movq	%rsi, -96(%rbp)
	movq	%rdx, -88(%rbp)
Ltmp821:
	.loc	41 357 40 prologue_end
	leaq	-96(%rbp), %rax
	movq	%rax, -64(%rbp)
Ltmp822:
	.loc	3 1157 34
	leaq	-80(%rbp), %rax
	movq	%rax, -56(%rbp)
	.loc	3 1157 9 is_stmt 0
	movq	-96(%rbp), %rax
	movq	%rax, -80(%rbp)
	movq	-88(%rbp), %rax
	movq	%rax, -72(%rbp)
	.loc	3 1158 9 is_stmt 1
	movq	-80(%rbp), %rcx
	movq	-72(%rbp), %r8
	movq	%rcx, -48(%rbp)
	movq	%r8, -40(%rbp)
Ltmp823:
	.loc	23 627 38
	movq	%rcx, -32(%rbp)
	movq	%r8, -24(%rbp)
Ltmp824:
	.loc	7 89 9
	movq	%rcx, -16(%rbp)
	movq	%r8, -8(%rbp)
Ltmp825:
	.loc	41 358 20
	movq	-96(%rbp), %rsi
	movq	-88(%rbp), %rdx
	.loc	41 358 9 is_stmt 0
	callq	__ZN5alloc11collections5btree8navigate10full_range17hd90a46a2237a3b91E
	movq	-104(%rbp), %rax
Ltmp826:
	.loc	41 359 6 is_stmt 1
	addq	$112, %rsp
	popq	%rbp
	retq
Ltmp827:
Lfunc_end126:
	.cfi_endproc

	.p2align	4, 0x90
__ZN5alloc11collections5btree8navigate235_$LT$impl$u20$alloc..collections..btree..node..Handle$LT$alloc..collections..btree..node..NodeRef$LT$BorrowType$C$K$C$V$C$alloc..collections..btree..node..marker..LeafOrInternal$GT$$C$alloc..collections..btree..node..marker..KV$GT$$GT$14next_leaf_edge17h74066cd17b78c7ceE:
Lfunc_begin127:
	.loc	41 699 0
	.cfi_startproc
	pushq	%rbp
	.cfi_def_cfa_offset 16
	.cfi_offset %rbp, -16
	movq	%rsp, %rbp
	.cfi_def_cfa_register %rbp
	subq	$224, %rsp
	movq	%rdi, -216(%rbp)
	movq	%rdi, -208(%rbp)
Ltmp828:
	.loc	41 700 15 prologue_end
	movq	(%rsi), %rax
	movq	%rax, -168(%rbp)
	movq	8(%rsi), %rax
	movq	%rax, -160(%rbp)
	movq	16(%rsi), %rax
	movq	%rax, -152(%rbp)
	leaq	-200(%rbp), %rdi
	leaq	-168(%rbp), %rsi
Ltmp829:
	callq	__ZN5alloc11collections5btree4node145Handle$LT$alloc..collections..btree..node..NodeRef$LT$BorrowType$C$K$C$V$C$alloc..collections..btree..node..marker..LeafOrInternal$GT$$C$Type$GT$5force17hd14557cd1f64547cE
	.loc	41 700 9 is_stmt 0
	cmpq	$0, -200(%rbp)
	jne	LBB127_2
Ltmp830:
	.loc	41 0 9
	movq	-216(%rbp), %rdi
	.loc	41 701 18 is_stmt 1
	movq	-192(%rbp), %rax
	movq	%rax, -144(%rbp)
	movq	-184(%rbp), %rax
	movq	%rax, -136(%rbp)
	movq	-176(%rbp), %rax
	movq	%rax, -128(%rbp)
Ltmp831:
	.loc	41 701 30 is_stmt 0
	movq	-144(%rbp), %rax
	movq	%rax, -120(%rbp)
	movq	-136(%rbp), %rax
	movq	%rax, -112(%rbp)
	movq	-128(%rbp), %rax
	movq	%rax, -104(%rbp)
	leaq	-120(%rbp), %rsi
	callq	__ZN5alloc11collections5btree4node137Handle$LT$alloc..collections..btree..node..NodeRef$LT$BorrowType$C$K$C$V$C$NodeType$GT$$C$alloc..collections..btree..node..marker..KV$GT$10right_edge17ha18a88c9b6e9dd6dE
Ltmp832:
	.loc	41 701 49
	jmp	LBB127_3
Ltmp833:
LBB127_2:
	.loc	41 702 22 is_stmt 1
	movq	-192(%rbp), %rax
	movq	%rax, -96(%rbp)
	movq	-184(%rbp), %rax
	movq	%rax, -88(%rbp)
	movq	-176(%rbp), %rax
	movq	%rax, -80(%rbp)
Ltmp834:
	.loc	41 703 42
	movq	-96(%rbp), %rax
	movq	%rax, -48(%rbp)
	movq	-88(%rbp), %rax
	movq	%rax, -40(%rbp)
	movq	-80(%rbp), %rax
	movq	%rax, -32(%rbp)
	leaq	-72(%rbp), %rdi
	leaq	-48(%rbp), %rsi
	callq	__ZN5alloc11collections5btree4node137Handle$LT$alloc..collections..btree..node..NodeRef$LT$BorrowType$C$K$C$V$C$NodeType$GT$$C$alloc..collections..btree..node..marker..KV$GT$10right_edge17hd600601676b51b2aE
Ltmp835:
	.loc	41 704 17
	movq	-72(%rbp), %rax
	movq	%rax, -24(%rbp)
	movq	-64(%rbp), %rax
	movq	%rax, -16(%rbp)
	movq	-56(%rbp), %rax
	movq	%rax, -8(%rbp)
	leaq	-24(%rbp), %rdi
	callq	__ZN5alloc11collections5btree4node180Handle$LT$alloc..collections..btree..node..NodeRef$LT$BorrowType$C$K$C$V$C$alloc..collections..btree..node..marker..Internal$GT$$C$alloc..collections..btree..node..marker..Edge$GT$7descend17h4ede6fa56697b0d6E
	movq	-216(%rbp), %rdi
	movq	%rax, %rsi
	callq	__ZN5alloc11collections5btree8navigate142_$LT$impl$u20$alloc..collections..btree..node..NodeRef$LT$BorrowType$C$K$C$V$C$alloc..collections..btree..node..marker..LeafOrInternal$GT$$GT$15first_leaf_edge17h76b68b0af7e1af62E
Ltmp836:
LBB127_3:
	.loc	41 0 17 is_stmt 0
	movq	-208(%rbp), %rax
	.loc	41 707 6 is_stmt 1
	addq	$224, %rsp
	popq	%rbp
	retq
Ltmp837:
Lfunc_end127:
	.cfi_endproc

	.p2align	4, 0x90
__ZN5alloc11collections5btree8navigate263_$LT$impl$u20$alloc..collections..btree..node..Handle$LT$alloc..collections..btree..node..NodeRef$LT$alloc..collections..btree..node..marker..Dying$C$K$C$V$C$alloc..collections..btree..node..marker..Leaf$GT$$C$alloc..collections..btree..node..marker..Edge$GT$$GT$16deallocating_end17h34a066ae19254defE:
Lfunc_begin128:
	.loc	41 504 0
	.cfi_startproc
	.cfi_personality 155, _rust_eh_personality
	.cfi_lsda 16, Lexception21
	pushq	%rbp
	.cfi_def_cfa_offset 16
	.cfi_offset %rbp, -16
	movq	%rsp, %rbp
	.cfi_def_cfa_register %rbp
	subq	$224, %rsp
Ltmp849:
	.loc	41 505 24 prologue_end
	movq	16(%rdi), %rax
	movq	%rax, -144(%rbp)
	movq	(%rdi), %rax
	movq	8(%rdi), %rcx
	movq	%rcx, -152(%rbp)
	movq	%rax, -160(%rbp)
Ltmp838:
	leaq	-184(%rbp), %rdi
Ltmp850:
	.loc	41 0 24 is_stmt 0
	leaq	-160(%rbp), %rsi
	.loc	41 505 24
	callq	__ZN5alloc11collections5btree4node176Handle$LT$alloc..collections..btree..node..NodeRef$LT$BorrowType$C$K$C$V$C$alloc..collections..btree..node..marker..Leaf$GT$$C$alloc..collections..btree..node..marker..Edge$GT$16forget_node_type17h2bded09d077512ddE
Ltmp839:
	jmp	LBB128_3
Ltmp851:
LBB128_1:
	.loc	41 504 5 is_stmt 1
	movq	-16(%rbp), %rdi
	callq	__Unwind_Resume
Ltmp852:
LBB128_2:
Ltmp848:
	.loc	41 0 5 is_stmt 0
	movq	%rax, %rcx
	movl	%edx, %eax
	movq	%rcx, -16(%rbp)
	movl	%eax, -8(%rbp)
	jmp	LBB128_1
Ltmp853:
LBB128_3:
	.loc	41 506 9 is_stmt 1
	jmp	LBB128_4
Ltmp854:
LBB128_4:
	.loc	41 507 22
	movq	-168(%rbp), %rax
	movq	%rax, -96(%rbp)
	movq	-184(%rbp), %rax
	movq	-176(%rbp), %rcx
	movq	%rcx, -104(%rbp)
	movq	%rax, -112(%rbp)
Ltmp840:
	leaq	-112(%rbp), %rdi
	callq	__ZN5alloc11collections5btree4node25Handle$LT$Node$C$Type$GT$9into_node17hdb4bb8f3d819eb76E
Ltmp841:
	movq	%rdx, -208(%rbp)
	movq	%rax, -200(%rbp)
	jmp	LBB128_5
Ltmp855:
LBB128_5:
	.loc	41 0 22 is_stmt 0
	movq	-208(%rbp), %rax
	movq	-200(%rbp), %rcx
	movq	%rcx, -224(%rbp)
	movq	%rax, -216(%rbp)
Ltmp842:
	leaq	-192(%rbp), %rdi
	.loc	41 507 61
	callq	__ZN59_$LT$alloc..alloc..Global$u20$as$u20$core..clone..Clone$GT$5clone17h6032e871695753d3E
Ltmp843:
	jmp	LBB128_6
Ltmp856:
LBB128_6:
Ltmp844:
	.loc	41 0 61
	movq	-216(%rbp), %rdx
	movq	-224(%rbp), %rsi
	leaq	-136(%rbp), %rdi
	.loc	41 507 22
	callq	__ZN5alloc11collections5btree4node127NodeRef$LT$alloc..collections..btree..node..marker..Dying$C$K$C$V$C$alloc..collections..btree..node..marker..LeafOrInternal$GT$21deallocate_and_ascend17h338a207175ae3348E
Ltmp845:
	jmp	LBB128_7
Ltmp857:
LBB128_7:
	.loc	41 506 19 is_stmt 1
	movq	-128(%rbp), %rdx
	movl	$1, %eax
	xorl	%ecx, %ecx
	cmpq	$0, %rdx
	cmoveq	%rcx, %rax
	cmpq	$1, %rax
	jne	LBB128_9
Ltmp858:
	.loc	41 506 24 is_stmt 0
	movq	-120(%rbp), %rax
	movq	%rax, -72(%rbp)
	movq	-136(%rbp), %rax
	movq	-128(%rbp), %rcx
	movq	%rcx, -80(%rbp)
	movq	%rax, -88(%rbp)
	.loc	41 509 20 is_stmt 1
	movq	-72(%rbp), %rax
	movq	%rax, -24(%rbp)
	movq	-88(%rbp), %rax
	movq	-80(%rbp), %rcx
	movq	%rcx, -32(%rbp)
	movq	%rax, -40(%rbp)
Ltmp846:
	leaq	-64(%rbp), %rdi
	leaq	-40(%rbp), %rsi
	callq	__ZN5alloc11collections5btree4node180Handle$LT$alloc..collections..btree..node..NodeRef$LT$BorrowType$C$K$C$V$C$alloc..collections..btree..node..marker..Internal$GT$$C$alloc..collections..btree..node..marker..Edge$GT$16forget_node_type17h13f808e6d8ea48b2E
Ltmp847:
	jmp	LBB128_10
Ltmp859:
LBB128_9:
	.loc	41 511 6
	addq	$224, %rsp
	popq	%rbp
	retq
Ltmp860:
LBB128_10:
	.loc	41 509 13
	movq	-64(%rbp), %rax
	movq	%rax, -184(%rbp)
	movq	-56(%rbp), %rax
	movq	%rax, -176(%rbp)
	movq	-48(%rbp), %rax
	movq	%rax, -168(%rbp)
Ltmp861:
	.loc	41 506 9
	jmp	LBB128_4
Ltmp862:
Lfunc_end128:
	.cfi_endproc
	.section	__TEXT,__gcc_except_tab
	.p2align	2
GCC_except_table128:
Lexception21:
	.byte	255
	.byte	255
	.byte	1
	.uleb128 Lcst_end21-Lcst_begin21
Lcst_begin21:
	.uleb128 Ltmp838-Lfunc_begin128
	.uleb128 Ltmp839-Ltmp838
	.uleb128 Ltmp848-Lfunc_begin128
	.byte	0
	.uleb128 Ltmp839-Lfunc_begin128
	.uleb128 Ltmp840-Ltmp839
	.byte	0
	.byte	0
	.uleb128 Ltmp840-Lfunc_begin128
	.uleb128 Ltmp847-Ltmp840
	.uleb128 Ltmp848-Lfunc_begin128
	.byte	0
Lcst_end21:
	.p2align	2

	.section	__TEXT,__text,regular,pure_instructions
	.p2align	4, 0x90
__ZN5alloc11collections5btree8navigate263_$LT$impl$u20$alloc..collections..btree..node..Handle$LT$alloc..collections..btree..node..NodeRef$LT$alloc..collections..btree..node..marker..Dying$C$K$C$V$C$alloc..collections..btree..node..marker..Leaf$GT$$C$alloc..collections..btree..node..marker..Edge$GT$$GT$17deallocating_next17hb35b2cfc2d960defE:
Lfunc_begin129:
	.loc	41 447 0
	.cfi_startproc
	.cfi_personality 155, _rust_eh_personality
	.cfi_lsda 16, Lexception22
	pushq	%rbp
	.cfi_def_cfa_offset 16
	.cfi_offset %rbp, -16
	movq	%rsp, %rbp
	.cfi_def_cfa_register %rbp
	subq	$560, %rsp
	movq	%rdi, -520(%rbp)
	movq	%rdi, -512(%rbp)
Ltmp878:
	.loc	41 452 24 prologue_end
	movq	16(%rsi), %rax
	movq	%rax, -456(%rbp)
	movq	(%rsi), %rax
	movq	8(%rsi), %rcx
	movq	%rcx, -464(%rbp)
	movq	%rax, -472(%rbp)
Ltmp863:
	leaq	-496(%rbp), %rdi
	leaq	-472(%rbp), %rsi
Ltmp879:
	callq	__ZN5alloc11collections5btree4node176Handle$LT$alloc..collections..btree..node..NodeRef$LT$BorrowType$C$K$C$V$C$alloc..collections..btree..node..marker..Leaf$GT$$C$alloc..collections..btree..node..marker..Edge$GT$16forget_node_type17h2bded09d077512ddE
Ltmp864:
	jmp	LBB129_3
Ltmp880:
LBB129_1:
	.loc	41 447 5
	movq	-32(%rbp), %rdi
	callq	__Unwind_Resume
Ltmp881:
LBB129_2:
Ltmp877:
	.loc	41 0 5 is_stmt 0
	movq	%rax, %rcx
	movl	%edx, %eax
	movq	%rcx, -32(%rbp)
	movl	%eax, -24(%rbp)
	jmp	LBB129_1
Ltmp882:
LBB129_3:
	.loc	41 453 9 is_stmt 1
	jmp	LBB129_4
Ltmp883:
LBB129_4:
	.loc	41 454 26
	movq	-480(%rbp), %rax
	movq	%rax, -376(%rbp)
	movq	-496(%rbp), %rax
	movq	-488(%rbp), %rcx
	movq	%rcx, -384(%rbp)
	movq	%rax, -392(%rbp)
Ltmp865:
	leaq	-424(%rbp), %rdi
	leaq	-392(%rbp), %rsi
	callq	__ZN5alloc11collections5btree4node139Handle$LT$alloc..collections..btree..node..NodeRef$LT$BorrowType$C$K$C$V$C$NodeType$GT$$C$alloc..collections..btree..node..marker..Edge$GT$8right_kv17h89b21cd5cae13997E
Ltmp866:
	jmp	LBB129_5
Ltmp884:
LBB129_5:
	.loc	41 454 20 is_stmt 0
	cmpq	$0, -424(%rbp)
	jne	LBB129_7
Ltmp885:
	.loc	41 455 20 is_stmt 1
	movq	-416(%rbp), %rax
	movq	%rax, -368(%rbp)
	movq	-408(%rbp), %rax
	movq	%rax, -360(%rbp)
	movq	-400(%rbp), %rax
	movq	%rax, -352(%rbp)
Ltmp886:
	.loc	41 455 59 is_stmt 0
	leaq	-368(%rbp), %rax
	movq	%rax, -16(%rbp)
Ltmp887:
	.loc	3 1157 34 is_stmt 1
	leaq	-104(%rbp), %rax
	movq	%rax, -8(%rbp)
	.loc	3 1157 9 is_stmt 0
	movq	-368(%rbp), %rax
	movq	%rax, -104(%rbp)
	movq	-360(%rbp), %rax
	movq	%rax, -96(%rbp)
	movq	-352(%rbp), %rax
	movq	%rax, -88(%rbp)
	.loc	3 1158 9 is_stmt 1
	movq	-104(%rbp), %rax
	movq	%rax, -80(%rbp)
	movq	-96(%rbp), %rax
	movq	%rax, -72(%rbp)
	movq	-88(%rbp), %rax
	movq	%rax, -64(%rbp)
Ltmp888:
	.loc	23 626 13
	jmp	LBB129_15
Ltmp889:
LBB129_7:
	.loc	41 456 21
	movq	-400(%rbp), %rax
	movq	%rax, -208(%rbp)
	movq	-416(%rbp), %rax
	movq	-408(%rbp), %rcx
	movq	%rcx, -216(%rbp)
	movq	%rax, -224(%rbp)
Ltmp890:
	.loc	41 457 36
	movq	-208(%rbp), %rax
	movq	%rax, -160(%rbp)
	movq	-224(%rbp), %rax
	movq	-216(%rbp), %rcx
	movq	%rcx, -168(%rbp)
	movq	%rax, -176(%rbp)
Ltmp867:
	leaq	-176(%rbp), %rdi
	callq	__ZN5alloc11collections5btree4node25Handle$LT$Node$C$Type$GT$9into_node17hdb4bb8f3d819eb76E
Ltmp868:
	movq	%rdx, -536(%rbp)
	movq	%rax, -528(%rbp)
	jmp	LBB129_8
Ltmp891:
LBB129_8:
	.loc	41 0 36 is_stmt 0
	movq	-536(%rbp), %rax
	movq	-528(%rbp), %rcx
	movq	%rcx, -552(%rbp)
	movq	%rax, -544(%rbp)
Ltmp869:
	leaq	-504(%rbp), %rdi
	.loc	41 457 80
	callq	__ZN59_$LT$alloc..alloc..Global$u20$as$u20$core..clone..Clone$GT$5clone17h6032e871695753d3E
Ltmp870:
	jmp	LBB129_9
Ltmp892:
LBB129_9:
Ltmp871:
	.loc	41 0 80
	movq	-544(%rbp), %rdx
	movq	-552(%rbp), %rsi
	leaq	-200(%rbp), %rdi
	.loc	41 457 36
	callq	__ZN5alloc11collections5btree4node127NodeRef$LT$alloc..collections..btree..node..marker..Dying$C$K$C$V$C$alloc..collections..btree..node..marker..LeafOrInternal$GT$21deallocate_and_ascend17h338a207175ae3348E
Ltmp872:
	jmp	LBB129_10
Ltmp893:
LBB129_10:
	.loc	41 457 27
	movq	-192(%rbp), %rdx
	movl	$1, %eax
	xorl	%ecx, %ecx
	cmpq	$0, %rdx
	cmoveq	%rcx, %rax
	.loc	41 457 21
	cmpq	$0, %rax
	jne	LBB129_12
Ltmp894:
	.loc	41 0 21
	movq	-520(%rbp), %rax
	.loc	41 459 40 is_stmt 1
	movq	$0, 8(%rax)
Ltmp895:
	.file	42 "/Users/natalie/.cargo/registry/src/github.com-1ecc6299db9ec823/crc32fast-1.3.2" "build.rs"
	.loc	42 1 1
	jmp	LBB129_14
Ltmp896:
LBB129_12:
	.loc	41 458 30
	movq	-184(%rbp), %rax
	movq	%rax, -136(%rbp)
	movq	-200(%rbp), %rax
	movq	-192(%rbp), %rcx
	movq	%rcx, -144(%rbp)
	movq	%rax, -152(%rbp)
Ltmp897:
	.loc	41 458 46 is_stmt 0
	movq	-136(%rbp), %rax
	movq	%rax, -112(%rbp)
	movq	-152(%rbp), %rax
	movq	-144(%rbp), %rcx
	movq	%rcx, -120(%rbp)
	movq	%rax, -128(%rbp)
Ltmp873:
	leaq	-448(%rbp), %rdi
	leaq	-128(%rbp), %rsi
	callq	__ZN5alloc11collections5btree4node180Handle$LT$alloc..collections..btree..node..NodeRef$LT$BorrowType$C$K$C$V$C$alloc..collections..btree..node..marker..Internal$GT$$C$alloc..collections..btree..node..marker..Edge$GT$16forget_node_type17h13f808e6d8ea48b2E
Ltmp874:
	jmp	LBB129_13
Ltmp898:
LBB129_13:
	.loc	41 454 13 is_stmt 1
	movq	-448(%rbp), %rax
	movq	%rax, -496(%rbp)
	movq	-440(%rbp), %rax
	movq	%rax, -488(%rbp)
	movq	-432(%rbp), %rax
	movq	%rax, -480(%rbp)
	.loc	41 453 9
	jmp	LBB129_4
Ltmp899:
LBB129_14:
	.loc	41 0 9 is_stmt 0
	movq	-512(%rbp), %rax
	.loc	41 464 6 is_stmt 1
	addq	$560, %rsp
	popq	%rbp
	retq
Ltmp900:
LBB129_15:
	.loc	23 627 38
	movq	-64(%rbp), %rax
	movq	%rax, -40(%rbp)
	movq	-80(%rbp), %rax
	movq	-72(%rbp), %rcx
	movq	%rcx, -48(%rbp)
	movq	%rax, -56(%rbp)
Ltmp901:
	.loc	7 89 9
	movq	-40(%rbp), %rax
	movq	%rax, -256(%rbp)
	movq	-56(%rbp), %rax
	movq	-48(%rbp), %rcx
	movq	%rcx, -264(%rbp)
	movq	%rax, -272(%rbp)
Ltmp875:
	leaq	-296(%rbp), %rdi
	leaq	-272(%rbp), %rsi
Ltmp902:
	.loc	41 455 40
	callq	__ZN5alloc11collections5btree8navigate235_$LT$impl$u20$alloc..collections..btree..node..Handle$LT$alloc..collections..btree..node..NodeRef$LT$BorrowType$C$K$C$V$C$alloc..collections..btree..node..marker..LeafOrInternal$GT$$C$alloc..collections..btree..node..marker..KV$GT$$GT$14next_leaf_edge17h74066cd17b78c7ceE
Ltmp876:
	jmp	LBB129_16
Ltmp903:
LBB129_16:
	.loc	41 0 40 is_stmt 0
	movq	-520(%rbp), %rdi
	.loc	41 455 84
	movq	-368(%rbp), %rax
	movq	%rax, -248(%rbp)
	movq	-360(%rbp), %rax
	movq	%rax, -240(%rbp)
	movq	-352(%rbp), %rax
	movq	%rax, -232(%rbp)
	.loc	41 455 39
	movq	-296(%rbp), %rax
	movq	%rax, -344(%rbp)
	movq	-288(%rbp), %rax
	movq	%rax, -336(%rbp)
	movq	-280(%rbp), %rax
	movq	%rax, -328(%rbp)
	movq	-248(%rbp), %rax
	movq	%rax, -320(%rbp)
	movq	-240(%rbp), %rax
	movq	%rax, -312(%rbp)
	movq	-232(%rbp), %rax
	movq	%rax, -304(%rbp)
	.loc	41 455 34
	leaq	-344(%rbp), %rsi
	movl	$48, %edx
	callq	_memcpy
Ltmp904:
	.loc	42 1 1 is_stmt 1
	jmp	LBB129_14
Ltmp905:
Lfunc_end129:
	.cfi_endproc
	.section	__TEXT,__gcc_except_tab
	.p2align	2
GCC_except_table129:
Lexception22:
	.byte	255
	.byte	255
	.byte	1
	.uleb128 Lcst_end22-Lcst_begin22
Lcst_begin22:
	.uleb128 Ltmp863-Lfunc_begin129
	.uleb128 Ltmp864-Ltmp863
	.uleb128 Ltmp877-Lfunc_begin129
	.byte	0
	.uleb128 Ltmp864-Lfunc_begin129
	.uleb128 Ltmp865-Ltmp864
	.byte	0
	.byte	0
	.uleb128 Ltmp865-Lfunc_begin129
	.uleb128 Ltmp876-Ltmp865
	.uleb128 Ltmp877-Lfunc_begin129
	.byte	0
	.uleb128 Ltmp876-Lfunc_begin129
	.uleb128 Lfunc_end129-Ltmp876
	.byte	0
	.byte	0
Lcst_end22:
	.p2align	2

	.section	__TEXT,__text,regular,pure_instructions
	.p2align	4, 0x90
__ZN5alloc11collections5btree8navigate263_$LT$impl$u20$alloc..collections..btree..node..Handle$LT$alloc..collections..btree..node..NodeRef$LT$alloc..collections..btree..node..marker..Dying$C$K$C$V$C$alloc..collections..btree..node..marker..Leaf$GT$$C$alloc..collections..btree..node..marker..Edge$GT$$GT$27deallocating_next_unchecked17h02147cd67c5313edE:
Lfunc_begin130:
	.loc	41 583 0
	.cfi_startproc
	pushq	%rbp
	.cfi_def_cfa_offset 16
	.cfi_offset %rbp, -16
	movq	%rsp, %rbp
	.cfi_def_cfa_register %rbp
	subq	$32, %rsp
	movq	%rdi, %rax
	movq	%rax, -32(%rbp)
	movq	%rsi, -16(%rbp)
Ltmp906:
	.loc	41 587 9 prologue_end
	callq	__ZN5alloc11collections5btree3mem7replace17h19face5fbcbbcbe3E
	movq	-32(%rbp), %rax
	.loc	41 590 6
	addq	$32, %rsp
	popq	%rbp
	retq
Ltmp907:
Lfunc_end130:
	.cfi_endproc

	.p2align	4, 0x90
__ZN5alloc11collections5btree8navigate263_$LT$impl$u20$alloc..collections..btree..node..Handle$LT$alloc..collections..btree..node..NodeRef$LT$alloc..collections..btree..node..marker..Dying$C$K$C$V$C$alloc..collections..btree..node..marker..Leaf$GT$$C$alloc..collections..btree..node..marker..Edge$GT$$GT$27deallocating_next_unchecked28_$u7b$$u7b$closure$u7d$$u7d$17h0ec10d291c2ffb70E:
Lfunc_begin131:
	.loc	41 587 0
	.cfi_startproc
	pushq	%rbp
	.cfi_def_cfa_offset 16
	.cfi_offset %rbp, -16
	movq	%rsp, %rbp
	.cfi_def_cfa_register %rbp
	subq	$96, %rsp
	movq	%rdi, -96(%rbp)
	movq	%rdi, -88(%rbp)
Ltmp908:
	.loc	41 588 13 prologue_end
	movq	(%rsi), %rax
	movq	%rax, -32(%rbp)
	movq	8(%rsi), %rax
	movq	%rax, -24(%rbp)
	movq	16(%rsi), %rax
	movq	%rax, -16(%rbp)
	leaq	-80(%rbp), %rdi
	leaq	-32(%rbp), %rsi
Ltmp909:
	callq	__ZN5alloc11collections5btree8navigate263_$LT$impl$u20$alloc..collections..btree..node..Handle$LT$alloc..collections..btree..node..NodeRef$LT$alloc..collections..btree..node..marker..Dying$C$K$C$V$C$alloc..collections..btree..node..marker..Leaf$GT$$C$alloc..collections..btree..node..marker..Edge$GT$$GT$17deallocating_next17hb35b2cfc2d960defE
Ltmp910:
	.loc	8 821 15
	movq	-72(%rbp), %rdx
	movl	$1, %eax
	xorl	%ecx, %ecx
	cmpq	$0, %rdx
	cmoveq	%rcx, %rax
	.loc	8 821 9 is_stmt 0
	cmpq	$0, %rax
	jne	LBB131_2
Ltmp911:
	.loc	8 823 21 is_stmt 1
	leaq	l___unnamed_12(%rip), %rdi
	leaq	l___unnamed_13(%rip), %rdx
	movl	$43, %esi
	callq	__ZN4core9panicking5panic17hc1bc45270cf64b03E
Ltmp912:
LBB131_2:
	.loc	8 0 21 is_stmt 0
	movq	-96(%rbp), %rdi
	.loc	8 822 18 is_stmt 1
	leaq	-80(%rbp), %rsi
	movl	$48, %edx
	callq	_memcpy
	movq	-88(%rbp), %rax
Ltmp913:
	.loc	41 589 10
	addq	$96, %rsp
	popq	%rbp
	retq
Ltmp914:
Lfunc_end131:
	.cfi_endproc

	.p2align	4, 0x90
__ZN5alloc11collections5btree8navigate39LazyLeafRange$LT$BorrowType$C$K$C$V$GT$10init_front17h57b502a2a856d675E:
Lfunc_begin132:
	.loc	41 209 0
	.cfi_startproc
	pushq	%rbp
	.cfi_def_cfa_offset 16
	.cfi_offset %rbp, -16
	movq	%rsp, %rbp
	.cfi_def_cfa_register %rbp
	subq	$192, %rsp
	movq	%rdi, -192(%rbp)
	movq	%rdi, -72(%rbp)
Ltmp915:
	.loc	41 212 16 prologue_end
	movl	$1, %eax
	xorl	%ecx, %ecx
	cmpq	$2, (%rdi)
	cmoveq	%rcx, %rax
	cmpq	$1, %rax
	jne	LBB132_2
	.loc	41 0 16 is_stmt 0
	movq	-192(%rbp), %rax
	.loc	41 212 16
	cmpq	$0, (%rax)
	je	LBB132_3
Ltmp916:
LBB132_2:
	.loc	41 0 16
	movq	-192(%rbp), %rdx
	.loc	41 215 15 is_stmt 1
	movl	$1, %eax
	xorl	%ecx, %ecx
	cmpq	$2, (%rdx)
	cmoveq	%rcx, %rax
	.loc	41 215 9 is_stmt 0
	cmpq	$0, %rax
	je	LBB132_4
	jmp	LBB132_5
LBB132_3:
	.loc	41 0 9
	movq	-192(%rbp), %rax
Ltmp917:
	.loc	41 212 42 is_stmt 1
	movq	%rax, %rcx
	addq	$8, %rcx
	movq	%rcx, -64(%rbp)
	.loc	41 213 71
	movq	%rcx, -56(%rbp)
Ltmp918:
	.loc	3 1157 34
	leaq	-88(%rbp), %rcx
	movq	%rcx, -48(%rbp)
	.loc	3 1157 9 is_stmt 0
	movq	8(%rax), %rcx
	movq	%rcx, -88(%rbp)
	movq	16(%rax), %rax
	movq	%rax, -80(%rbp)
	.loc	3 1158 9 is_stmt 1
	movq	-88(%rbp), %rsi
	movq	-80(%rbp), %rdx
	movq	%rsi, -40(%rbp)
	movq	%rdx, -32(%rbp)
Ltmp919:
	.loc	23 627 38
	movq	%rsi, -24(%rbp)
	movq	%rdx, -16(%rbp)
Ltmp920:
	.loc	41 213 52
	leaq	-112(%rbp), %rdi
	callq	__ZN5alloc11collections5btree8navigate142_$LT$impl$u20$alloc..collections..btree..node..NodeRef$LT$BorrowType$C$K$C$V$C$alloc..collections..btree..node..marker..LeafOrInternal$GT$$GT$15first_leaf_edge17h76b68b0af7e1af62E
	movq	-192(%rbp), %rax
	.loc	41 213 31 is_stmt 0
	movq	-112(%rbp), %rcx
	movq	%rcx, -136(%rbp)
	movq	-104(%rbp), %rcx
	movq	%rcx, -128(%rbp)
	movq	-96(%rbp), %rcx
	movq	%rcx, -120(%rbp)
	movq	$1, -144(%rbp)
	.loc	41 213 26
	movq	-144(%rbp), %rcx
	movq	%rcx, -176(%rbp)
	movq	-136(%rbp), %rcx
	movq	%rcx, -168(%rbp)
	movq	-128(%rbp), %rcx
	movq	%rcx, -160(%rbp)
	movq	-120(%rbp), %rcx
	movq	%rcx, -152(%rbp)
	.loc	41 213 13
	movq	-176(%rbp), %rcx
	movq	%rcx, (%rax)
	movq	-168(%rbp), %rcx
	movq	%rcx, 8(%rax)
	movq	-160(%rbp), %rcx
	movq	%rcx, 16(%rax)
	movq	-152(%rbp), %rcx
	movq	%rcx, 24(%rax)
Ltmp921:
	.loc	41 212 9 is_stmt 1
	jmp	LBB132_2
LBB132_4:
	.loc	41 216 21
	movq	$0, -184(%rbp)
	jmp	LBB132_8
LBB132_5:
	.loc	41 0 21 is_stmt 0
	movq	-192(%rbp), %rax
	.loc	41 215 9 is_stmt 1
	cmpq	$0, (%rax)
	jne	LBB132_7
	.loc	41 219 55
	callq	__ZN4core4hint21unreachable_unchecked17h1f80f13aed532ea1E
LBB132_7:
	.loc	41 0 55 is_stmt 0
	movq	-192(%rbp), %rax
	.loc	41 217 39 is_stmt 1
	addq	$8, %rax
	movq	%rax, -8(%rbp)
Ltmp922:
	.loc	41 217 49 is_stmt 0
	movq	%rax, -184(%rbp)
Ltmp923:
LBB132_8:
	.loc	41 221 6 is_stmt 1
	movq	-184(%rbp), %rax
	addq	$192, %rsp
	popq	%rbp
	retq
Ltmp924:
Lfunc_end132:
	.cfi_endproc

	.p2align	4, 0x90
__ZN5alloc11collections5btree8navigate39LazyLeafRange$LT$BorrowType$C$K$C$V$GT$4none17h85a3aac12847c0feE:
Lfunc_begin133:
	.loc	41 133 0
	.cfi_startproc
	pushq	%rbp
	.cfi_def_cfa_offset 16
	.cfi_offset %rbp, -16
	movq	%rsp, %rbp
	.cfi_def_cfa_register %rbp
	subq	$64, %rsp
	movq	%rdi, %rax
Ltmp925:
	.loc	41 134 32 prologue_end
	movq	$2, -64(%rbp)
	.loc	41 134 44 is_stmt 0
	movq	$2, -32(%rbp)
	.loc	41 134 9
	movq	-64(%rbp), %rcx
	movq	%rcx, (%rdi)
	movq	-56(%rbp), %rcx
	movq	%rcx, 8(%rdi)
	movq	-48(%rbp), %rcx
	movq	%rcx, 16(%rdi)
	movq	-40(%rbp), %rcx
	movq	%rcx, 24(%rdi)
	movq	-32(%rbp), %rcx
	movq	%rcx, 32(%rdi)
	movq	-24(%rbp), %rcx
	movq	%rcx, 40(%rdi)
	movq	-16(%rbp), %rcx
	movq	%rcx, 48(%rdi)
	movq	-8(%rbp), %rcx
	movq	%rcx, 56(%rdi)
	.loc	41 135 6 is_stmt 1
	addq	$64, %rsp
	popq	%rbp
	retq
Ltmp926:
Lfunc_end133:
	.cfi_endproc

	.p2align	4, 0x90
__ZN5alloc11collections5btree8navigate75LazyLeafRange$LT$alloc..collections..btree..node..marker..Dying$C$K$C$V$GT$10take_front17h92fc1b4113bd1bf3E:
Lfunc_begin134:
	.loc	41 171 0
	.cfi_startproc
	pushq	%rbp
	.cfi_def_cfa_offset 16
	.cfi_offset %rbp, -16
	movq	%rsp, %rbp
	.cfi_def_cfa_register %rbp
	subq	$368, %rsp
	movq	%rdi, -360(%rbp)
	movq	%rdi, -352(%rbp)
	movq	%rsi, -48(%rbp)
Ltmp927:
	.loc	41 174 15 prologue_end
	movq	%rsi, -24(%rbp)
Ltmp928:
	.loc	8 1623 28
	movq	$2, -144(%rbp)
	.loc	8 1623 9 is_stmt 0
	leaq	-280(%rbp), %rdi
	leaq	-144(%rbp), %rdx
	callq	__ZN4core3mem7replace17h39990e13506572f3E
Ltmp929:
	.loc	8 2407 15 is_stmt 1
	movl	$1, %eax
	xorl	%ecx, %ecx
	cmpq	$2, -280(%rbp)
	cmoveq	%rcx, %rax
	.loc	8 2407 9 is_stmt 0
	cmpq	$0, %rax
	jne	LBB134_2
	.loc	8 2409 21 is_stmt 1
	movq	$2, -312(%rbp)
	.loc	8 2409 44 is_stmt 0
	jmp	LBB134_3
LBB134_2:
	.loc	8 2408 18 is_stmt 1
	movq	-280(%rbp), %rax
	movq	%rax, -112(%rbp)
	movq	-272(%rbp), %rax
	movq	%rax, -104(%rbp)
	movq	-264(%rbp), %rax
	movq	%rax, -96(%rbp)
	movq	-256(%rbp), %rax
	movq	%rax, -88(%rbp)
Ltmp930:
	.loc	8 2408 46 is_stmt 0
	movq	-112(%rbp), %rax
	movq	%rax, -80(%rbp)
	movq	-104(%rbp), %rax
	movq	%rax, -72(%rbp)
	movq	-96(%rbp), %rax
	movq	%rax, -64(%rbp)
	movq	-88(%rbp), %rax
	movq	%rax, -56(%rbp)
	.loc	8 2408 24
	movq	-80(%rbp), %rax
	movq	%rax, -312(%rbp)
	movq	-72(%rbp), %rax
	movq	%rax, -304(%rbp)
	movq	-64(%rbp), %rax
	movq	%rax, -296(%rbp)
	movq	-56(%rbp), %rax
	movq	%rax, -288(%rbp)
Ltmp931:
LBB134_3:
	.loc	41 174 15 is_stmt 1
	xorl	%eax, %eax
	movl	$1, %ecx
	cmpq	$2, -312(%rbp)
	cmoveq	%rcx, %rax
	cmpq	$0, %rax
	jne	LBB134_5
	movq	-312(%rbp), %rax
	movq	%rax, -248(%rbp)
	movq	-304(%rbp), %rax
	movq	%rax, -240(%rbp)
	movq	-296(%rbp), %rax
	movq	%rax, -232(%rbp)
	movq	-288(%rbp), %rax
	movq	%rax, -224(%rbp)
Ltmp932:
	.loc	41 174 15 is_stmt 0
	movq	-248(%rbp), %rax
	movq	%rax, -344(%rbp)
	movq	-240(%rbp), %rax
	movq	%rax, -336(%rbp)
	movq	-232(%rbp), %rax
	movq	%rax, -328(%rbp)
	movq	-224(%rbp), %rax
	movq	%rax, -320(%rbp)
Ltmp933:
	.loc	41 174 9
	cmpq	$0, -344(%rbp)
	je	LBB134_7
	jmp	LBB134_8
LBB134_5:
	.loc	41 0 9
	movq	-360(%rbp), %rax
Ltmp934:
	.loc	8 2420 21 is_stmt 1
	movq	$0, 8(%rax)
Ltmp935:
LBB134_6:
	.loc	8 0 21 is_stmt 0
	movq	-352(%rbp), %rax
	.loc	41 178 6 is_stmt 1
	addq	$368, %rsp
	popq	%rbp
	retq
LBB134_7:
	.loc	41 175 34
	movq	-336(%rbp), %rsi
	movq	-328(%rbp), %rdx
	movq	%rsi, -16(%rbp)
	movq	%rdx, -8(%rbp)
Ltmp936:
	.loc	41 175 48 is_stmt 0
	leaq	-216(%rbp), %rdi
	callq	__ZN5alloc11collections5btree8navigate142_$LT$impl$u20$alloc..collections..btree..node..NodeRef$LT$BorrowType$C$K$C$V$C$alloc..collections..btree..node..marker..LeafOrInternal$GT$$GT$15first_leaf_edge17h76b68b0af7e1af62E
	movq	-360(%rbp), %rax
	.loc	41 175 43
	movq	-216(%rbp), %rcx
	movq	%rcx, (%rax)
	movq	-208(%rbp), %rcx
	movq	%rcx, 8(%rax)
	movq	-200(%rbp), %rcx
	movq	%rcx, 16(%rax)
Ltmp937:
	.loc	41 175 70
	jmp	LBB134_9
LBB134_8:
	.loc	41 0 70
	movq	-360(%rbp), %rax
	.loc	41 176 34 is_stmt 1
	movq	-336(%rbp), %rcx
	movq	%rcx, -192(%rbp)
	movq	-328(%rbp), %rcx
	movq	%rcx, -184(%rbp)
	movq	-320(%rbp), %rcx
	movq	%rcx, -176(%rbp)
Ltmp938:
	.loc	41 176 48 is_stmt 0
	movq	-192(%rbp), %rcx
	movq	%rcx, -168(%rbp)
	movq	-184(%rbp), %rcx
	movq	%rcx, -160(%rbp)
	movq	-176(%rbp), %rcx
	movq	%rcx, -152(%rbp)
	.loc	41 176 43
	movq	-168(%rbp), %rcx
	movq	%rcx, (%rax)
	movq	-160(%rbp), %rcx
	movq	%rcx, 8(%rax)
	movq	-152(%rbp), %rcx
	movq	%rcx, 16(%rax)
Ltmp939:
LBB134_9:
	.loc	41 178 6 is_stmt 1
	jmp	LBB134_6
Ltmp940:
Lfunc_end134:
	.cfi_endproc

	.p2align	4, 0x90
__ZN5alloc11collections5btree8navigate75LazyLeafRange$LT$alloc..collections..btree..node..marker..Dying$C$K$C$V$GT$16deallocating_end17he5e62de4968625ddE:
Lfunc_begin135:
	.loc	41 201 0
	.cfi_startproc
	.cfi_personality 155, _rust_eh_personality
	.cfi_lsda 16, Lexception23
	pushq	%rbp
	.cfi_def_cfa_offset 16
	.cfi_offset %rbp, -16
	movq	%rsp, %rbp
	.cfi_def_cfa_register %rbp
	subq	$112, %rsp
	movq	%rdi, %rsi
	movq	%rsi, -32(%rbp)
Ltmp946:
	.loc	41 202 30 prologue_end
	movb	$1, -33(%rbp)
Ltmp941:
	leaq	-112(%rbp), %rdi
	callq	__ZN5alloc11collections5btree8navigate75LazyLeafRange$LT$alloc..collections..btree..node..marker..Dying$C$K$C$V$GT$10take_front17h92fc1b4113bd1bf3E
Ltmp942:
	jmp	LBB135_3
Ltmp947:
LBB135_1:
	.loc	41 205 5
	testb	$1, -33(%rbp)
	jne	LBB135_8
	jmp	LBB135_7
LBB135_2:
Ltmp945:
	.loc	41 0 5 is_stmt 0
	movq	%rax, %rcx
	movl	%edx, %eax
	movq	%rcx, -16(%rbp)
	movl	%eax, -8(%rbp)
	jmp	LBB135_1
LBB135_3:
Ltmp948:
	.loc	41 202 16 is_stmt 1
	movq	-104(%rbp), %rdx
	movl	$1, %eax
	xorl	%ecx, %ecx
	cmpq	$0, %rdx
	cmoveq	%rcx, %rax
	cmpq	$1, %rax
	jne	LBB135_5
	.loc	41 202 21 is_stmt 0
	movq	-96(%rbp), %rax
	movq	%rax, -72(%rbp)
	movq	-112(%rbp), %rax
	movq	-104(%rbp), %rcx
	movq	%rcx, -80(%rbp)
	movq	%rax, -88(%rbp)
	.loc	41 203 13 is_stmt 1
	movq	-72(%rbp), %rax
	movq	%rax, -48(%rbp)
	movq	-88(%rbp), %rax
	movq	-80(%rbp), %rcx
	movq	%rcx, -56(%rbp)
	movq	%rax, -64(%rbp)
	.loc	41 203 36 is_stmt 0
	movb	$0, -33(%rbp)
Ltmp943:
	leaq	-64(%rbp), %rdi
	.loc	41 203 13
	callq	__ZN5alloc11collections5btree8navigate263_$LT$impl$u20$alloc..collections..btree..node..Handle$LT$alloc..collections..btree..node..NodeRef$LT$alloc..collections..btree..node..marker..Dying$C$K$C$V$C$alloc..collections..btree..node..marker..Leaf$GT$$C$alloc..collections..btree..node..marker..Edge$GT$$GT$16deallocating_end17h34a066ae19254defE
Ltmp944:
	jmp	LBB135_6
Ltmp949:
LBB135_5:
	.loc	41 205 5 is_stmt 1
	testb	$1, -33(%rbp)
	jne	LBB135_10
	jmp	LBB135_9
LBB135_6:
	.loc	41 202 9
	jmp	LBB135_5
LBB135_7:
	.loc	41 201 5
	movq	-16(%rbp), %rdi
	callq	__Unwind_Resume
LBB135_8:
	.loc	41 205 5
	jmp	LBB135_7
LBB135_9:
	.loc	41 205 6 is_stmt 0
	addq	$112, %rsp
	popq	%rbp
	retq
LBB135_10:
	.loc	41 205 5
	jmp	LBB135_9
Ltmp950:
Lfunc_end135:
	.cfi_endproc
	.section	__TEXT,__gcc_except_tab
	.p2align	2
GCC_except_table135:
Lexception23:
	.byte	255
	.byte	255
	.byte	1
	.uleb128 Lcst_end23-Lcst_begin23
Lcst_begin23:
	.uleb128 Ltmp941-Lfunc_begin135
	.uleb128 Ltmp944-Ltmp941
	.uleb128 Ltmp945-Lfunc_begin135
	.byte	0
	.uleb128 Ltmp944-Lfunc_begin135
	.uleb128 Lfunc_end135-Ltmp944
	.byte	0
	.byte	0
Lcst_end23:
	.p2align	2

	.section	__TEXT,__text,regular,pure_instructions
	.p2align	4, 0x90
__ZN5alloc11collections5btree8navigate75LazyLeafRange$LT$alloc..collections..btree..node..marker..Dying$C$K$C$V$GT$27deallocating_next_unchecked17h9b62b96c018c9af5E:
Lfunc_begin136:
	.loc	41 181 0 is_stmt 1
	.cfi_startproc
	.cfi_personality 155, _rust_eh_personality
	.cfi_lsda 16, Lexception24
	pushq	%rbp
	.cfi_def_cfa_offset 16
	.cfi_offset %rbp, -16
	movq	%rsp, %rbp
	.cfi_def_cfa_register %rbp
	subq	$96, %rsp
	movq	%rsi, -88(%rbp)
	movq	%rdi, %rax
	movq	-88(%rbp), %rdi
	movq	%rax, -80(%rbp)
	movq	%rax, -72(%rbp)
	movq	%rdi, -40(%rbp)
Ltmp958:
	.loc	41 185 9 prologue_end
	movb	$1, -41(%rbp)
Ltmp951:
	.loc	41 186 21
	callq	__ZN5alloc11collections5btree8navigate39LazyLeafRange$LT$BorrowType$C$K$C$V$GT$10init_front17h57b502a2a856d675E
Ltmp952:
	movq	%rax, -64(%rbp)
	jmp	LBB136_3
LBB136_1:
	.loc	41 188 5
	testb	$1, -41(%rbp)
	jne	LBB136_9
	jmp	LBB136_8
LBB136_2:
Ltmp957:
	.loc	41 0 5 is_stmt 0
	movq	%rax, %rcx
	movl	%edx, %eax
	movq	%rcx, -24(%rbp)
	movl	%eax, -16(%rbp)
	jmp	LBB136_1
LBB136_3:
	movq	-64(%rbp), %rax
	.loc	41 186 21 is_stmt 1
	movq	%rax, -56(%rbp)
Ltmp959:
	.loc	8 821 15
	movq	-56(%rbp), %rdx
	movl	$1, %eax
	xorl	%ecx, %ecx
	cmpq	$0, %rdx
	cmoveq	%rcx, %rax
	.loc	8 821 9 is_stmt 0
	cmpq	$0, %rax
	jne	LBB136_5
Ltmp955:
	.loc	8 823 21 is_stmt 1
	leaq	l___unnamed_12(%rip), %rdi
	leaq	l___unnamed_14(%rip), %rdx
	movl	$43, %esi
	callq	__ZN4core9panicking5panic17hc1bc45270cf64b03E
Ltmp956:
	jmp	LBB136_7
LBB136_5:
	.loc	8 0 21 is_stmt 0
	movq	-80(%rbp), %rdi
	.loc	8 822 18 is_stmt 1
	movq	-56(%rbp), %rsi
	movq	%rsi, -8(%rbp)
Ltmp960:
	.loc	41 187 52
	movb	$0, -41(%rbp)
Ltmp953:
	.loc	41 187 18 is_stmt 0
	callq	__ZN5alloc11collections5btree8navigate263_$LT$impl$u20$alloc..collections..btree..node..Handle$LT$alloc..collections..btree..node..NodeRef$LT$alloc..collections..btree..node..marker..Dying$C$K$C$V$C$alloc..collections..btree..node..marker..Leaf$GT$$C$alloc..collections..btree..node..marker..Edge$GT$$GT$27deallocating_next_unchecked17h02147cd67c5313edE
Ltmp954:
	jmp	LBB136_6
Ltmp961:
LBB136_6:
	.loc	41 0 18
	movq	-72(%rbp), %rax
	.loc	41 188 6 is_stmt 1
	addq	$96, %rsp
	popq	%rbp
	retq
LBB136_7:
	.loc	41 0 6 is_stmt 0
	ud2
LBB136_8:
	.loc	41 181 5 is_stmt 1
	movq	-24(%rbp), %rdi
	callq	__Unwind_Resume
LBB136_9:
	.loc	41 188 5
	jmp	LBB136_8
Ltmp962:
Lfunc_end136:
	.cfi_endproc
	.section	__TEXT,__gcc_except_tab
	.p2align	2
GCC_except_table136:
Lexception24:
	.byte	255
	.byte	255
	.byte	1
	.uleb128 Lcst_end24-Lcst_begin24
Lcst_begin24:
	.uleb128 Ltmp951-Lfunc_begin136
	.uleb128 Ltmp954-Ltmp951
	.uleb128 Ltmp957-Lfunc_begin136
	.byte	0
	.uleb128 Ltmp954-Lfunc_begin136
	.uleb128 Lfunc_end136-Ltmp954
	.byte	0
	.byte	0
Lcst_end24:
	.p2align	2

	.section	__TEXT,__text,regular,pure_instructions
	.p2align	4, 0x90
__ZN5alloc5alloc8box_free17h1f40e02fb8cf684cE:
Lfunc_begin137:
	.loc	36 340 0
	.cfi_startproc
	.cfi_personality 155, _rust_eh_personality
	.cfi_lsda 16, Lexception25
	pushq	%rbp
	.cfi_def_cfa_offset 16
	.cfi_offset %rbp, -16
	movq	%rsp, %rbp
	.cfi_def_cfa_register %rbp
	subq	$256, %rsp
	movq	%rdi, -240(%rbp)
Ltmp966:
	.loc	36 345 32 prologue_end
	leaq	-240(%rbp), %rax
	movq	%rax, -184(%rbp)
Ltmp967:
	.loc	10 117 18
	leaq	-240(%rbp), %rax
	movq	%rax, -176(%rbp)
Ltmp968:
	.loc	9 376 20
	movq	-240(%rbp), %rax
	movq	%rax, -168(%rbp)
Ltmp969:
	.loc	36 345 20
	movq	$24, -160(%rbp)
	movq	-160(%rbp), %rcx
	movq	%rcx, -256(%rbp)
	movq	%rcx, -152(%rbp)
Ltmp970:
	.loc	36 346 38
	leaq	-240(%rbp), %rax
	movq	%rax, -144(%rbp)
Ltmp971:
	.loc	10 117 18
	leaq	-240(%rbp), %rax
	movq	%rax, -136(%rbp)
Ltmp972:
	.loc	9 376 20
	movq	-240(%rbp), %rax
	movq	%rax, -128(%rbp)
Ltmp973:
	.loc	36 346 21
	movq	$8, -120(%rbp)
	movq	-120(%rbp), %rax
	movq	%rax, -112(%rbp)
Ltmp974:
	.loc	36 347 56
	movq	%rcx, -104(%rbp)
	.loc	36 347 62 is_stmt 0
	movq	%rax, -96(%rbp)
Ltmp975:
	.loc	29 120 65 is_stmt 1
	movq	%rax, -88(%rbp)
Ltmp976:
	.loc	30 89 18
	movq	%rax, -80(%rbp)
	movq	-80(%rbp), %rax
	movq	%rax, -248(%rbp)
Ltmp977:
	.loc	30 0 18 is_stmt 0
	movq	-248(%rbp), %rax
	movq	-256(%rbp), %rcx
	.loc	29 120 18 is_stmt 1
	movq	%rcx, -224(%rbp)
	movq	%rax, -216(%rbp)
Ltmp978:
	.loc	36 348 37
	movq	-240(%rbp), %rax
	movq	%rax, -72(%rbp)
Ltmp979:
	.loc	10 137 22
	movq	%rax, -64(%rbp)
Ltmp980:
	.loc	9 450 41
	movq	%rax, -56(%rbp)
	movq	%rax, -48(%rbp)
Ltmp981:
	.loc	9 201 13
	movq	%rax, -192(%rbp)
Ltmp982:
	.loc	10 191 18
	movq	-192(%rbp), %rax
	.loc	10 191 9 is_stmt 0
	movq	%rax, -200(%rbp)
Ltmp983:
	.loc	9 768 41 is_stmt 1
	movq	-200(%rbp), %rax
	movq	%rax, -40(%rbp)
Ltmp984:
	.loc	10 104 9
	movq	%rax, -32(%rbp)
Ltmp985:
	.loc	9 326 9
	movq	%rax, -24(%rbp)
Ltmp986:
	.loc	9 201 13
	movq	%rax, -208(%rbp)
Ltmp987:
	.loc	36 348 50
	movq	-224(%rbp), %rdx
	movq	-216(%rbp), %rcx
	.loc	36 348 9 is_stmt 0
	movq	-208(%rbp), %rsi
Ltmp963:
	leaq	-232(%rbp), %rdi
	callq	__ZN63_$LT$alloc..alloc..Global$u20$as$u20$core..alloc..Allocator$GT$10deallocate17h80554a1ded21a024E
Ltmp964:
	jmp	LBB137_4
Ltmp988:
LBB137_2:
	.loc	36 340 1 is_stmt 1
	movq	-16(%rbp), %rdi
	callq	__Unwind_Resume
LBB137_3:
Ltmp965:
	.loc	36 0 1 is_stmt 0
	movq	%rax, %rcx
	movl	%edx, %eax
	movq	%rcx, -16(%rbp)
	movl	%eax, -8(%rbp)
	jmp	LBB137_2
LBB137_4:
	.loc	36 350 2 is_stmt 1
	addq	$256, %rsp
	popq	%rbp
	retq
Ltmp989:
Lfunc_end137:
	.cfi_endproc
	.section	__TEXT,__gcc_except_tab
	.p2align	2
GCC_except_table137:
Lexception25:
	.byte	255
	.byte	255
	.byte	1
	.uleb128 Lcst_end25-Lcst_begin25
Lcst_begin25:
	.uleb128 Ltmp963-Lfunc_begin137
	.uleb128 Ltmp964-Ltmp963
	.uleb128 Ltmp965-Lfunc_begin137
	.byte	0
	.uleb128 Ltmp964-Lfunc_begin137
	.uleb128 Lfunc_end137-Ltmp964
	.byte	0
	.byte	0
Lcst_end25:
	.p2align	2

	.section	__TEXT,__text,regular,pure_instructions
	.p2align	4, 0x90
__ZN5alloc5alloc8box_free17h6532cead095c8566E:
Lfunc_begin138:
	.loc	36 340 0
	.cfi_startproc
	.cfi_personality 155, _rust_eh_personality
	.cfi_lsda 16, Lexception26
	pushq	%rbp
	.cfi_def_cfa_offset 16
	.cfi_offset %rbp, -16
	movq	%rsp, %rbp
	.cfi_def_cfa_register %rbp
	subq	$304, %rsp
	movq	%rdi, -288(%rbp)
	movq	%rsi, -280(%rbp)
Ltmp993:
	.loc	36 345 32 prologue_end
	leaq	-288(%rbp), %rax
	movq	%rax, -224(%rbp)
Ltmp994:
	.loc	10 117 18
	leaq	-288(%rbp), %rax
	movq	%rax, -216(%rbp)
Ltmp995:
	.loc	9 376 20
	movq	-288(%rbp), %rcx
	movq	-280(%rbp), %rax
	movq	%rcx, -208(%rbp)
	movq	%rax, -200(%rbp)
Ltmp996:
	.loc	36 345 20
	shlq	$0, %rax
	movq	%rax, -192(%rbp)
	movq	-192(%rbp), %rcx
	movq	%rcx, -304(%rbp)
	movq	%rcx, -184(%rbp)
Ltmp997:
	.loc	36 346 38
	leaq	-288(%rbp), %rax
	movq	%rax, -176(%rbp)
Ltmp998:
	.loc	10 117 18
	leaq	-288(%rbp), %rax
	movq	%rax, -168(%rbp)
Ltmp999:
	.loc	9 376 20
	movq	-288(%rbp), %rdx
	movq	-280(%rbp), %rax
	movq	%rdx, -160(%rbp)
	movq	%rax, -152(%rbp)
Ltmp1000:
	.loc	36 346 21
	movq	$1, -144(%rbp)
	movq	-144(%rbp), %rax
	movq	%rax, -136(%rbp)
Ltmp1001:
	.loc	36 347 56
	movq	%rcx, -128(%rbp)
	.loc	36 347 62 is_stmt 0
	movq	%rax, -120(%rbp)
Ltmp1002:
	.loc	29 120 65 is_stmt 1
	movq	%rax, -112(%rbp)
Ltmp1003:
	.loc	30 89 18
	movq	%rax, -104(%rbp)
	movq	-104(%rbp), %rax
	movq	%rax, -296(%rbp)
Ltmp1004:
	.loc	30 0 18 is_stmt 0
	movq	-296(%rbp), %rax
	movq	-304(%rbp), %rcx
	.loc	29 120 18 is_stmt 1
	movq	%rcx, -264(%rbp)
	movq	%rax, -256(%rbp)
Ltmp1005:
	.loc	36 348 37
	movq	-288(%rbp), %rax
	movq	-280(%rbp), %rcx
	movq	%rax, -96(%rbp)
	movq	%rcx, -88(%rbp)
Ltmp1006:
	.loc	10 137 22
	movq	%rax, -80(%rbp)
	movq	%rcx, -72(%rbp)
Ltmp1007:
	.loc	9 450 41
	movq	%rax, -64(%rbp)
	movq	%rcx, -56(%rbp)
	movq	%rax, -48(%rbp)
Ltmp1008:
	.loc	9 201 13
	movq	%rax, -232(%rbp)
Ltmp1009:
	.loc	10 191 18
	movq	-232(%rbp), %rax
	.loc	10 191 9 is_stmt 0
	movq	%rax, -240(%rbp)
Ltmp1010:
	.loc	9 768 41 is_stmt 1
	movq	-240(%rbp), %rax
	movq	%rax, -40(%rbp)
Ltmp1011:
	.loc	10 104 9
	movq	%rax, -32(%rbp)
Ltmp1012:
	.loc	9 326 9
	movq	%rax, -24(%rbp)
Ltmp1013:
	.loc	9 201 13
	movq	%rax, -248(%rbp)
Ltmp1014:
	.loc	36 348 50
	movq	-264(%rbp), %rdx
	movq	-256(%rbp), %rcx
	.loc	36 348 9 is_stmt 0
	movq	-248(%rbp), %rsi
Ltmp990:
	leaq	-272(%rbp), %rdi
	callq	__ZN63_$LT$alloc..alloc..Global$u20$as$u20$core..alloc..Allocator$GT$10deallocate17h80554a1ded21a024E
Ltmp991:
	jmp	LBB138_4
Ltmp1015:
LBB138_2:
	.loc	36 340 1 is_stmt 1
	movq	-16(%rbp), %rdi
	callq	__Unwind_Resume
LBB138_3:
Ltmp992:
	.loc	36 0 1 is_stmt 0
	movq	%rax, %rcx
	movl	%edx, %eax
	movq	%rcx, -16(%rbp)
	movl	%eax, -8(%rbp)
	jmp	LBB138_2
LBB138_4:
	.loc	36 350 2 is_stmt 1
	addq	$304, %rsp
	popq	%rbp
	retq
Ltmp1016:
Lfunc_end138:
	.cfi_endproc
	.section	__TEXT,__gcc_except_tab
	.p2align	2
GCC_except_table138:
Lexception26:
	.byte	255
	.byte	255
	.byte	1
	.uleb128 Lcst_end26-Lcst_begin26
Lcst_begin26:
	.uleb128 Ltmp990-Lfunc_begin138
	.uleb128 Ltmp991-Ltmp990
	.uleb128 Ltmp992-Lfunc_begin138
	.byte	0
	.uleb128 Ltmp991-Lfunc_begin138
	.uleb128 Lfunc_end138-Ltmp991
	.byte	0
	.byte	0
Lcst_end26:
	.p2align	2

	.section	__TEXT,__text,regular,pure_instructions
	.p2align	4, 0x90
__ZN5alloc5alloc8box_free17h83a05640da7f258cE:
Lfunc_begin139:
	.loc	36 340 0
	.cfi_startproc
	.cfi_personality 155, _rust_eh_personality
	.cfi_lsda 16, Lexception27
	pushq	%rbp
	.cfi_def_cfa_offset 16
	.cfi_offset %rbp, -16
	movq	%rsp, %rbp
	.cfi_def_cfa_register %rbp
	subq	$304, %rsp
	movq	%rdi, -288(%rbp)
	movq	%rsi, -280(%rbp)
Ltmp1020:
	.loc	36 345 32 prologue_end
	leaq	-288(%rbp), %rax
	movq	%rax, -224(%rbp)
Ltmp1021:
	.loc	10 117 18
	leaq	-288(%rbp), %rax
	movq	%rax, -216(%rbp)
Ltmp1022:
	.loc	9 376 20
	movq	-288(%rbp), %rcx
	movq	-280(%rbp), %rax
	movq	%rcx, -208(%rbp)
	movq	%rax, -200(%rbp)
Ltmp1023:
	.loc	36 345 20
	shlq	$2, %rax
	movq	%rax, -192(%rbp)
	movq	-192(%rbp), %rcx
	movq	%rcx, -304(%rbp)
	movq	%rcx, -184(%rbp)
Ltmp1024:
	.loc	36 346 38
	leaq	-288(%rbp), %rax
	movq	%rax, -176(%rbp)
Ltmp1025:
	.loc	10 117 18
	leaq	-288(%rbp), %rax
	movq	%rax, -168(%rbp)
Ltmp1026:
	.loc	9 376 20
	movq	-288(%rbp), %rdx
	movq	-280(%rbp), %rax
	movq	%rdx, -160(%rbp)
	movq	%rax, -152(%rbp)
Ltmp1027:
	.loc	36 346 21
	movq	$4, -144(%rbp)
	movq	-144(%rbp), %rax
	movq	%rax, -136(%rbp)
Ltmp1028:
	.loc	36 347 56
	movq	%rcx, -128(%rbp)
	.loc	36 347 62 is_stmt 0
	movq	%rax, -120(%rbp)
Ltmp1029:
	.loc	29 120 65 is_stmt 1
	movq	%rax, -112(%rbp)
Ltmp1030:
	.loc	30 89 18
	movq	%rax, -104(%rbp)
	movq	-104(%rbp), %rax
	movq	%rax, -296(%rbp)
Ltmp1031:
	.loc	30 0 18 is_stmt 0
	movq	-296(%rbp), %rax
	movq	-304(%rbp), %rcx
	.loc	29 120 18 is_stmt 1
	movq	%rcx, -264(%rbp)
	movq	%rax, -256(%rbp)
Ltmp1032:
	.loc	36 348 37
	movq	-288(%rbp), %rax
	movq	-280(%rbp), %rcx
	movq	%rax, -96(%rbp)
	movq	%rcx, -88(%rbp)
Ltmp1033:
	.loc	10 137 22
	movq	%rax, -80(%rbp)
	movq	%rcx, -72(%rbp)
Ltmp1034:
	.loc	9 450 41
	movq	%rax, -64(%rbp)
	movq	%rcx, -56(%rbp)
	movq	%rax, -48(%rbp)
Ltmp1035:
	.loc	9 201 13
	movq	%rax, -232(%rbp)
Ltmp1036:
	.loc	10 191 18
	movq	-232(%rbp), %rax
	.loc	10 191 9 is_stmt 0
	movq	%rax, -240(%rbp)
Ltmp1037:
	.loc	9 768 41 is_stmt 1
	movq	-240(%rbp), %rax
	movq	%rax, -40(%rbp)
Ltmp1038:
	.loc	10 104 9
	movq	%rax, -32(%rbp)
Ltmp1039:
	.loc	9 326 9
	movq	%rax, -24(%rbp)
Ltmp1040:
	.loc	9 201 13
	movq	%rax, -248(%rbp)
Ltmp1041:
	.loc	36 348 50
	movq	-264(%rbp), %rdx
	movq	-256(%rbp), %rcx
	.loc	36 348 9 is_stmt 0
	movq	-248(%rbp), %rsi
Ltmp1017:
	leaq	-272(%rbp), %rdi
	callq	__ZN63_$LT$alloc..alloc..Global$u20$as$u20$core..alloc..Allocator$GT$10deallocate17h80554a1ded21a024E
Ltmp1018:
	jmp	LBB139_4
Ltmp1042:
LBB139_2:
	.loc	36 340 1 is_stmt 1
	movq	-16(%rbp), %rdi
	callq	__Unwind_Resume
LBB139_3:
Ltmp1019:
	.loc	36 0 1 is_stmt 0
	movq	%rax, %rcx
	movl	%edx, %eax
	movq	%rcx, -16(%rbp)
	movl	%eax, -8(%rbp)
	jmp	LBB139_2
LBB139_4:
	.loc	36 350 2 is_stmt 1
	addq	$304, %rsp
	popq	%rbp
	retq
Ltmp1043:
Lfunc_end139:
	.cfi_endproc
	.section	__TEXT,__gcc_except_tab
	.p2align	2
GCC_except_table139:
Lexception27:
	.byte	255
	.byte	255
	.byte	1
	.uleb128 Lcst_end27-Lcst_begin27
Lcst_begin27:
	.uleb128 Ltmp1017-Lfunc_begin139
	.uleb128 Ltmp1018-Ltmp1017
	.uleb128 Ltmp1019-Lfunc_begin139
	.byte	0
	.uleb128 Ltmp1018-Lfunc_begin139
	.uleb128 Lfunc_end139-Ltmp1018
	.byte	0
	.byte	0
Lcst_end27:
	.p2align	2

	.section	__TEXT,__text,regular,pure_instructions
	.p2align	4, 0x90
__ZN5alloc5alloc8box_free17hc651461441a16f1fE:
Lfunc_begin140:
	.loc	36 340 0
	.cfi_startproc
	.cfi_personality 155, _rust_eh_personality
	.cfi_lsda 16, Lexception28
	pushq	%rbp
	.cfi_def_cfa_offset 16
	.cfi_offset %rbp, -16
	movq	%rsp, %rbp
	.cfi_def_cfa_register %rbp
	subq	$304, %rsp
	movq	%rdi, -288(%rbp)
	movq	%rsi, -280(%rbp)
Ltmp1047:
	.loc	36 345 32 prologue_end
	leaq	-288(%rbp), %rax
	movq	%rax, -224(%rbp)
Ltmp1048:
	.loc	10 117 18
	leaq	-288(%rbp), %rax
	movq	%rax, -216(%rbp)
Ltmp1049:
	.loc	9 376 20
	movq	-288(%rbp), %rcx
	movq	-280(%rbp), %rax
	movq	%rcx, -208(%rbp)
	movq	%rax, -200(%rbp)
Ltmp1050:
	.loc	36 345 20
	movq	8(%rax), %rax
	movq	%rax, -192(%rbp)
	movq	-192(%rbp), %rcx
	movq	%rcx, -304(%rbp)
	movq	%rcx, -184(%rbp)
Ltmp1051:
	.loc	36 346 38
	leaq	-288(%rbp), %rax
	movq	%rax, -176(%rbp)
Ltmp1052:
	.loc	10 117 18
	leaq	-288(%rbp), %rax
	movq	%rax, -168(%rbp)
Ltmp1053:
	.loc	9 376 20
	movq	-288(%rbp), %rdx
	movq	-280(%rbp), %rax
	movq	%rdx, -160(%rbp)
	movq	%rax, -152(%rbp)
Ltmp1054:
	.loc	36 346 21
	movq	16(%rax), %rax
	movq	%rax, -144(%rbp)
	movq	-144(%rbp), %rax
	movq	%rax, -136(%rbp)
Ltmp1055:
	.loc	36 347 56
	movq	%rcx, -128(%rbp)
	.loc	36 347 62 is_stmt 0
	movq	%rax, -120(%rbp)
Ltmp1056:
	.loc	29 120 65 is_stmt 1
	movq	%rax, -112(%rbp)
Ltmp1057:
	.loc	30 89 18
	movq	%rax, -104(%rbp)
	movq	-104(%rbp), %rax
	movq	%rax, -296(%rbp)
Ltmp1058:
	.loc	30 0 18 is_stmt 0
	movq	-296(%rbp), %rax
	movq	-304(%rbp), %rcx
	.loc	29 120 18 is_stmt 1
	movq	%rcx, -264(%rbp)
	movq	%rax, -256(%rbp)
Ltmp1059:
	.loc	36 348 37
	movq	-288(%rbp), %rax
	movq	-280(%rbp), %rcx
	movq	%rax, -96(%rbp)
	movq	%rcx, -88(%rbp)
Ltmp1060:
	.loc	10 137 22
	movq	%rax, -80(%rbp)
	movq	%rcx, -72(%rbp)
Ltmp1061:
	.loc	9 450 41
	movq	%rax, -64(%rbp)
	movq	%rcx, -56(%rbp)
	movq	%rax, -48(%rbp)
Ltmp1062:
	.loc	9 201 13
	movq	%rax, -232(%rbp)
Ltmp1063:
	.loc	10 191 18
	movq	-232(%rbp), %rax
	.loc	10 191 9 is_stmt 0
	movq	%rax, -240(%rbp)
Ltmp1064:
	.loc	9 768 41 is_stmt 1
	movq	-240(%rbp), %rax
	movq	%rax, -40(%rbp)
Ltmp1065:
	.loc	10 104 9
	movq	%rax, -32(%rbp)
Ltmp1066:
	.loc	9 326 9
	movq	%rax, -24(%rbp)
Ltmp1067:
	.loc	9 201 13
	movq	%rax, -248(%rbp)
Ltmp1068:
	.loc	36 348 50
	movq	-264(%rbp), %rdx
	movq	-256(%rbp), %rcx
	.loc	36 348 9 is_stmt 0
	movq	-248(%rbp), %rsi
Ltmp1044:
	leaq	-272(%rbp), %rdi
	callq	__ZN63_$LT$alloc..alloc..Global$u20$as$u20$core..alloc..Allocator$GT$10deallocate17h80554a1ded21a024E
Ltmp1045:
	jmp	LBB140_4
Ltmp1069:
LBB140_2:
	.loc	36 340 1 is_stmt 1
	movq	-16(%rbp), %rdi
	callq	__Unwind_Resume
LBB140_3:
Ltmp1046:
	.loc	36 0 1 is_stmt 0
	movq	%rax, %rcx
	movl	%edx, %eax
	movq	%rcx, -16(%rbp)
	movl	%eax, -8(%rbp)
	jmp	LBB140_2
LBB140_4:
	.loc	36 350 2 is_stmt 1
	addq	$304, %rsp
	popq	%rbp
	retq
Ltmp1070:
Lfunc_end140:
	.cfi_endproc
	.section	__TEXT,__gcc_except_tab
	.p2align	2
GCC_except_table140:
Lexception28:
	.byte	255
	.byte	255
	.byte	1
	.uleb128 Lcst_end28-Lcst_begin28
Lcst_begin28:
	.uleb128 Ltmp1044-Lfunc_begin140
	.uleb128 Ltmp1045-Ltmp1044
	.uleb128 Ltmp1046-Lfunc_begin140
	.byte	0
	.uleb128 Ltmp1045-Lfunc_begin140
	.uleb128 Lfunc_end140-Ltmp1045
	.byte	0
	.byte	0
Lcst_end28:
	.p2align	2

	.section	__TEXT,__text,regular,pure_instructions
	.p2align	4, 0x90
__ZN5alloc5alloc8box_free17he9457fe3877ca4d9E:
Lfunc_begin141:
	.loc	36 340 0
	.cfi_startproc
	.cfi_personality 155, _rust_eh_personality
	.cfi_lsda 16, Lexception29
	pushq	%rbp
	.cfi_def_cfa_offset 16
	.cfi_offset %rbp, -16
	movq	%rsp, %rbp
	.cfi_def_cfa_register %rbp
	subq	$304, %rsp
	movq	%rdi, -288(%rbp)
	movq	%rsi, -280(%rbp)
Ltmp1074:
	.loc	36 345 32 prologue_end
	leaq	-288(%rbp), %rax
	movq	%rax, -224(%rbp)
Ltmp1075:
	.loc	10 117 18
	leaq	-288(%rbp), %rax
	movq	%rax, -216(%rbp)
Ltmp1076:
	.loc	9 376 20
	movq	-288(%rbp), %rcx
	movq	-280(%rbp), %rax
	movq	%rcx, -208(%rbp)
	movq	%rax, -200(%rbp)
Ltmp1077:
	.loc	36 345 20
	movq	8(%rax), %rax
	movq	%rax, -192(%rbp)
	movq	-192(%rbp), %rcx
	movq	%rcx, -304(%rbp)
	movq	%rcx, -184(%rbp)
Ltmp1078:
	.loc	36 346 38
	leaq	-288(%rbp), %rax
	movq	%rax, -176(%rbp)
Ltmp1079:
	.loc	10 117 18
	leaq	-288(%rbp), %rax
	movq	%rax, -168(%rbp)
Ltmp1080:
	.loc	9 376 20
	movq	-288(%rbp), %rdx
	movq	-280(%rbp), %rax
	movq	%rdx, -160(%rbp)
	movq	%rax, -152(%rbp)
Ltmp1081:
	.loc	36 346 21
	movq	16(%rax), %rax
	movq	%rax, -144(%rbp)
	movq	-144(%rbp), %rax
	movq	%rax, -136(%rbp)
Ltmp1082:
	.loc	36 347 56
	movq	%rcx, -128(%rbp)
	.loc	36 347 62 is_stmt 0
	movq	%rax, -120(%rbp)
Ltmp1083:
	.loc	29 120 65 is_stmt 1
	movq	%rax, -112(%rbp)
Ltmp1084:
	.loc	30 89 18
	movq	%rax, -104(%rbp)
	movq	-104(%rbp), %rax
	movq	%rax, -296(%rbp)
Ltmp1085:
	.loc	30 0 18 is_stmt 0
	movq	-296(%rbp), %rax
	movq	-304(%rbp), %rcx
	.loc	29 120 18 is_stmt 1
	movq	%rcx, -264(%rbp)
	movq	%rax, -256(%rbp)
Ltmp1086:
	.loc	36 348 37
	movq	-288(%rbp), %rax
	movq	-280(%rbp), %rcx
	movq	%rax, -96(%rbp)
	movq	%rcx, -88(%rbp)
Ltmp1087:
	.loc	10 137 22
	movq	%rax, -80(%rbp)
	movq	%rcx, -72(%rbp)
Ltmp1088:
	.loc	9 450 41
	movq	%rax, -64(%rbp)
	movq	%rcx, -56(%rbp)
	movq	%rax, -48(%rbp)
Ltmp1089:
	.loc	9 201 13
	movq	%rax, -232(%rbp)
Ltmp1090:
	.loc	10 191 18
	movq	-232(%rbp), %rax
	.loc	10 191 9 is_stmt 0
	movq	%rax, -240(%rbp)
Ltmp1091:
	.loc	9 768 41 is_stmt 1
	movq	-240(%rbp), %rax
	movq	%rax, -40(%rbp)
Ltmp1092:
	.loc	10 104 9
	movq	%rax, -32(%rbp)
Ltmp1093:
	.loc	9 326 9
	movq	%rax, -24(%rbp)
Ltmp1094:
	.loc	9 201 13
	movq	%rax, -248(%rbp)
Ltmp1095:
	.loc	36 348 50
	movq	-264(%rbp), %rdx
	movq	-256(%rbp), %rcx
	.loc	36 348 9 is_stmt 0
	movq	-248(%rbp), %rsi
Ltmp1071:
	leaq	-272(%rbp), %rdi
	callq	__ZN63_$LT$alloc..alloc..Global$u20$as$u20$core..alloc..Allocator$GT$10deallocate17h80554a1ded21a024E
Ltmp1072:
	jmp	LBB141_4
Ltmp1096:
LBB141_2:
	.loc	36 340 1 is_stmt 1
	movq	-16(%rbp), %rdi
	callq	__Unwind_Resume
LBB141_3:
Ltmp1073:
	.loc	36 0 1 is_stmt 0
	movq	%rax, %rcx
	movl	%edx, %eax
	movq	%rcx, -16(%rbp)
	movl	%eax, -8(%rbp)
	jmp	LBB141_2
LBB141_4:
	.loc	36 350 2 is_stmt 1
	addq	$304, %rsp
	popq	%rbp
	retq
Ltmp1097:
Lfunc_end141:
	.cfi_endproc
	.section	__TEXT,__gcc_except_tab
	.p2align	2
GCC_except_table141:
Lexception29:
	.byte	255
	.byte	255
	.byte	1
	.uleb128 Lcst_end29-Lcst_begin29
Lcst_begin29:
	.uleb128 Ltmp1071-Lfunc_begin141
	.uleb128 Ltmp1072-Ltmp1071
	.uleb128 Ltmp1073-Lfunc_begin141
	.byte	0
	.uleb128 Ltmp1072-Lfunc_begin141
	.uleb128 Lfunc_end141-Ltmp1072
	.byte	0
	.byte	0
Lcst_end29:
	.p2align	2

	.section	__TEXT,__text,regular,pure_instructions
	.p2align	4, 0x90
__ZN5alloc7raw_vec19RawVec$LT$T$C$A$GT$14current_memory17h4b64467326d14d46E:
Lfunc_begin142:
	.file	43 "/rustc/2c8cc343237b8f7d5a3c3703e3a87f2eb2c54a74/library/alloc/src" "raw_vec.rs"
	.loc	43 240 0
	.cfi_startproc
	pushq	%rbp
	.cfi_def_cfa_offset 16
	.cfi_offset %rbp, -16
	movq	%rsp, %rbp
	.cfi_def_cfa_register %rbp
	subq	$176, %rsp
	movq	%rsi, -152(%rbp)
	movq	%rdi, -144(%rbp)
	movq	%rdi, -136(%rbp)
	movq	%rsi, -80(%rbp)
Ltmp1098:
	.loc	43 241 12 prologue_end
	xorl	%eax, %eax
	testb	$1, %al
	jne	LBB142_2
	.loc	43 0 12 is_stmt 0
	movq	-152(%rbp), %rax
	.loc	43 241 25
	cmpq	$0, (%rax)
	sete	%al
	.loc	43 241 12
	andb	$1, %al
	movb	%al, -121(%rbp)
	jmp	LBB142_3
LBB142_2:
	movb	$1, -121(%rbp)
LBB142_3:
	testb	$1, -121(%rbp)
	jne	LBB142_5
	.loc	43 0 12
	movq	-152(%rbp), %rax
	.loc	43 247 49 is_stmt 1
	movq	(%rax), %rdx
	movq	%rdx, -72(%rbp)
Ltmp1099:
	.loc	24 459 5
	movq	$8, -64(%rbp)
Ltmp1100:
	.loc	30 89 18
	movq	$8, -56(%rbp)
	movq	-56(%rbp), %rsi
Ltmp1101:
	.loc	29 438 16
	movl	$8, %edi
	callq	__ZN4core5alloc6layout6Layout5array5inner17h58036b6e17a10b61E
	movq	%rax, %rdi
	movq	%rdx, %rsi
Ltmp1102:
	.loc	43 247 30
	leaq	l___unnamed_15(%rip), %rdx
	callq	__ZN4core6result19Result$LT$T$C$E$GT$16unwrap_unchecked17hcbae4cb419eee682E
	movq	%rax, %rcx
	movq	-152(%rbp), %rax
	movq	%rcx, -168(%rbp)
	movq	%rdx, -160(%rbp)
	movq	%rcx, -48(%rbp)
	movq	%rdx, -40(%rbp)
Ltmp1103:
	.loc	43 248 23
	movq	8(%rax), %rax
	movq	%rax, -32(%rbp)
Ltmp1104:
	.loc	10 137 22
	movq	%rax, -24(%rbp)
Ltmp1105:
	.loc	9 450 41
	movq	%rax, -16(%rbp)
	movq	%rax, -8(%rbp)
Ltmp1106:
	.loc	9 201 13
	movq	%rax, -88(%rbp)
Ltmp1107:
	.loc	10 191 18
	movq	-88(%rbp), %rax
	.loc	10 191 9 is_stmt 0
	movq	%rax, -96(%rbp)
Ltmp1108:
	.loc	43 248 23 is_stmt 1
	movq	-96(%rbp), %rdi
	callq	__ZN50_$LT$T$u20$as$u20$core..convert..Into$LT$U$GT$$GT$4into17hd54763732c476628E
	movq	-168(%rbp), %rcx
	movq	-160(%rbp), %rdx
	movq	%rax, %rsi
	movq	-144(%rbp), %rax
	.loc	43 248 22 is_stmt 0
	movq	%rsi, -120(%rbp)
	movq	%rcx, -112(%rbp)
	movq	%rdx, -104(%rbp)
	.loc	43 248 17
	movq	-120(%rbp), %rcx
	movq	%rcx, (%rax)
	movq	-112(%rbp), %rcx
	movq	%rcx, 8(%rax)
	movq	-104(%rbp), %rcx
	movq	%rcx, 16(%rax)
Ltmp1109:
	.loc	43 241 9 is_stmt 1
	jmp	LBB142_6
LBB142_5:
	.loc	43 0 9 is_stmt 0
	movq	-144(%rbp), %rax
	.loc	43 242 13 is_stmt 1
	movq	$0, 16(%rax)
LBB142_6:
	.loc	43 0 13 is_stmt 0
	movq	-136(%rbp), %rax
	.loc	43 251 6 is_stmt 1
	addq	$176, %rsp
	popq	%rbp
	retq
Ltmp1110:
Lfunc_end142:
	.cfi_endproc

	.p2align	4, 0x90
__ZN5alloc7raw_vec19RawVec$LT$T$C$A$GT$14current_memory17h6c85a933e7775e3eE:
Lfunc_begin143:
	.loc	43 240 0
	.cfi_startproc
	pushq	%rbp
	.cfi_def_cfa_offset 16
	.cfi_offset %rbp, -16
	movq	%rsp, %rbp
	.cfi_def_cfa_register %rbp
	subq	$176, %rsp
	movq	%rsi, -152(%rbp)
	movq	%rdi, -144(%rbp)
	movq	%rdi, -136(%rbp)
	movq	%rsi, -80(%rbp)
Ltmp1111:
	.loc	43 241 12 prologue_end
	xorl	%eax, %eax
	testb	$1, %al
	jne	LBB143_2
	.loc	43 0 12 is_stmt 0
	movq	-152(%rbp), %rax
	.loc	43 241 25
	cmpq	$0, (%rax)
	sete	%al
	.loc	43 241 12
	andb	$1, %al
	movb	%al, -121(%rbp)
	jmp	LBB143_3
LBB143_2:
	movb	$1, -121(%rbp)
LBB143_3:
	testb	$1, -121(%rbp)
	jne	LBB143_5
	.loc	43 0 12
	movq	-152(%rbp), %rax
	.loc	43 247 49 is_stmt 1
	movq	(%rax), %rdx
	movq	%rdx, -72(%rbp)
Ltmp1112:
	.loc	24 459 5
	movq	$1, -64(%rbp)
Ltmp1113:
	.loc	30 89 18
	movq	$1, -56(%rbp)
	movq	-56(%rbp), %rsi
Ltmp1114:
	.loc	29 438 16
	movl	$1, %edi
	callq	__ZN4core5alloc6layout6Layout5array5inner17h58036b6e17a10b61E
	movq	%rax, %rdi
	movq	%rdx, %rsi
Ltmp1115:
	.loc	43 247 30
	leaq	l___unnamed_15(%rip), %rdx
	callq	__ZN4core6result19Result$LT$T$C$E$GT$16unwrap_unchecked17hcbae4cb419eee682E
	movq	%rax, %rcx
	movq	-152(%rbp), %rax
	movq	%rcx, -168(%rbp)
	movq	%rdx, -160(%rbp)
	movq	%rcx, -48(%rbp)
	movq	%rdx, -40(%rbp)
Ltmp1116:
	.loc	43 248 23
	movq	8(%rax), %rax
	movq	%rax, -32(%rbp)
Ltmp1117:
	.loc	10 137 22
	movq	%rax, -24(%rbp)
Ltmp1118:
	.loc	9 450 41
	movq	%rax, -16(%rbp)
	movq	%rax, -8(%rbp)
Ltmp1119:
	.loc	9 201 13
	movq	%rax, -88(%rbp)
Ltmp1120:
	.loc	10 191 18
	movq	-88(%rbp), %rax
	.loc	10 191 9 is_stmt 0
	movq	%rax, -96(%rbp)
Ltmp1121:
	.loc	43 248 23 is_stmt 1
	movq	-96(%rbp), %rdi
	callq	__ZN50_$LT$T$u20$as$u20$core..convert..Into$LT$U$GT$$GT$4into17hd54763732c476628E
	movq	-168(%rbp), %rcx
	movq	-160(%rbp), %rdx
	movq	%rax, %rsi
	movq	-144(%rbp), %rax
	.loc	43 248 22 is_stmt 0
	movq	%rsi, -120(%rbp)
	movq	%rcx, -112(%rbp)
	movq	%rdx, -104(%rbp)
	.loc	43 248 17
	movq	-120(%rbp), %rcx
	movq	%rcx, (%rax)
	movq	-112(%rbp), %rcx
	movq	%rcx, 8(%rax)
	movq	-104(%rbp), %rcx
	movq	%rcx, 16(%rax)
Ltmp1122:
	.loc	43 241 9 is_stmt 1
	jmp	LBB143_6
LBB143_5:
	.loc	43 0 9 is_stmt 0
	movq	-144(%rbp), %rax
	.loc	43 242 13 is_stmt 1
	movq	$0, 16(%rax)
LBB143_6:
	.loc	43 0 13 is_stmt 0
	movq	-136(%rbp), %rax
	.loc	43 251 6 is_stmt 1
	addq	$176, %rsp
	popq	%rbp
	retq
Ltmp1123:
Lfunc_end143:
	.cfi_endproc

	.p2align	4, 0x90
__ZN5alloc7raw_vec19RawVec$LT$T$C$A$GT$14current_memory17hb380d89f9b5fa6ceE:
Lfunc_begin144:
	.loc	43 240 0
	.cfi_startproc
	pushq	%rbp
	.cfi_def_cfa_offset 16
	.cfi_offset %rbp, -16
	movq	%rsp, %rbp
	.cfi_def_cfa_register %rbp
	subq	$176, %rsp
	movq	%rsi, -152(%rbp)
	movq	%rdi, -144(%rbp)
	movq	%rdi, -136(%rbp)
	movq	%rsi, -80(%rbp)
Ltmp1124:
	.loc	43 241 12 prologue_end
	xorl	%eax, %eax
	testb	$1, %al
	jne	LBB144_2
	.loc	43 0 12 is_stmt 0
	movq	-152(%rbp), %rax
	.loc	43 241 25
	cmpq	$0, (%rax)
	sete	%al
	.loc	43 241 12
	andb	$1, %al
	movb	%al, -121(%rbp)
	jmp	LBB144_3
LBB144_2:
	movb	$1, -121(%rbp)
LBB144_3:
	testb	$1, -121(%rbp)
	jne	LBB144_5
	.loc	43 0 12
	movq	-152(%rbp), %rax
	.loc	43 247 49 is_stmt 1
	movq	(%rax), %rdx
	movq	%rdx, -72(%rbp)
Ltmp1125:
	.loc	24 459 5
	movq	$8, -64(%rbp)
Ltmp1126:
	.loc	30 89 18
	movq	$8, -56(%rbp)
	movq	-56(%rbp), %rsi
Ltmp1127:
	.loc	29 438 16
	movl	$16, %edi
	callq	__ZN4core5alloc6layout6Layout5array5inner17h58036b6e17a10b61E
	movq	%rax, %rdi
	movq	%rdx, %rsi
Ltmp1128:
	.loc	43 247 30
	leaq	l___unnamed_15(%rip), %rdx
	callq	__ZN4core6result19Result$LT$T$C$E$GT$16unwrap_unchecked17hcbae4cb419eee682E
	movq	%rax, %rcx
	movq	-152(%rbp), %rax
	movq	%rcx, -168(%rbp)
	movq	%rdx, -160(%rbp)
	movq	%rcx, -48(%rbp)
	movq	%rdx, -40(%rbp)
Ltmp1129:
	.loc	43 248 23
	movq	8(%rax), %rax
	movq	%rax, -32(%rbp)
Ltmp1130:
	.loc	10 137 22
	movq	%rax, -24(%rbp)
Ltmp1131:
	.loc	9 450 41
	movq	%rax, -16(%rbp)
	movq	%rax, -8(%rbp)
Ltmp1132:
	.loc	9 201 13
	movq	%rax, -88(%rbp)
Ltmp1133:
	.loc	10 191 18
	movq	-88(%rbp), %rax
	.loc	10 191 9 is_stmt 0
	movq	%rax, -96(%rbp)
Ltmp1134:
	.loc	43 248 23 is_stmt 1
	movq	-96(%rbp), %rdi
	callq	__ZN50_$LT$T$u20$as$u20$core..convert..Into$LT$U$GT$$GT$4into17hd54763732c476628E
	movq	-168(%rbp), %rcx
	movq	-160(%rbp), %rdx
	movq	%rax, %rsi
	movq	-144(%rbp), %rax
	.loc	43 248 22 is_stmt 0
	movq	%rsi, -120(%rbp)
	movq	%rcx, -112(%rbp)
	movq	%rdx, -104(%rbp)
	.loc	43 248 17
	movq	-120(%rbp), %rcx
	movq	%rcx, (%rax)
	movq	-112(%rbp), %rcx
	movq	%rcx, 8(%rax)
	movq	-104(%rbp), %rcx
	movq	%rcx, 16(%rax)
Ltmp1135:
	.loc	43 241 9 is_stmt 1
	jmp	LBB144_6
LBB144_5:
	.loc	43 0 9 is_stmt 0
	movq	-144(%rbp), %rax
	.loc	43 242 13 is_stmt 1
	movq	$0, 16(%rax)
LBB144_6:
	.loc	43 0 13 is_stmt 0
	movq	-136(%rbp), %rax
	.loc	43 251 6 is_stmt 1
	addq	$176, %rsp
	popq	%rbp
	retq
Ltmp1136:
Lfunc_end144:
	.cfi_endproc

	.p2align	4, 0x90
__ZN5alloc7raw_vec19RawVec$LT$T$C$A$GT$14current_memory17hc86141f0a1d8f521E:
Lfunc_begin145:
	.loc	43 240 0
	.cfi_startproc
	pushq	%rbp
	.cfi_def_cfa_offset 16
	.cfi_offset %rbp, -16
	movq	%rsp, %rbp
	.cfi_def_cfa_register %rbp
	subq	$176, %rsp
	movq	%rsi, -152(%rbp)
	movq	%rdi, -144(%rbp)
	movq	%rdi, -136(%rbp)
	movq	%rsi, -80(%rbp)
Ltmp1137:
	.loc	43 241 12 prologue_end
	xorl	%eax, %eax
	testb	$1, %al
	jne	LBB145_2
	.loc	43 0 12 is_stmt 0
	movq	-152(%rbp), %rax
	.loc	43 241 25
	cmpq	$0, (%rax)
	sete	%al
	.loc	43 241 12
	andb	$1, %al
	movb	%al, -121(%rbp)
	jmp	LBB145_3
LBB145_2:
	movb	$1, -121(%rbp)
LBB145_3:
	testb	$1, -121(%rbp)
	jne	LBB145_5
	.loc	43 0 12
	movq	-152(%rbp), %rax
	.loc	43 247 49 is_stmt 1
	movq	(%rax), %rdx
	movq	%rdx, -72(%rbp)
Ltmp1138:
	.loc	24 459 5
	movq	$8, -64(%rbp)
Ltmp1139:
	.loc	30 89 18
	movq	$8, -56(%rbp)
	movq	-56(%rbp), %rsi
Ltmp1140:
	.loc	29 438 16
	movl	$16, %edi
	callq	__ZN4core5alloc6layout6Layout5array5inner17h58036b6e17a10b61E
	movq	%rax, %rdi
	movq	%rdx, %rsi
Ltmp1141:
	.loc	43 247 30
	leaq	l___unnamed_15(%rip), %rdx
	callq	__ZN4core6result19Result$LT$T$C$E$GT$16unwrap_unchecked17hcbae4cb419eee682E
	movq	%rax, %rcx
	movq	-152(%rbp), %rax
	movq	%rcx, -168(%rbp)
	movq	%rdx, -160(%rbp)
	movq	%rcx, -48(%rbp)
	movq	%rdx, -40(%rbp)
Ltmp1142:
	.loc	43 248 23
	movq	8(%rax), %rax
	movq	%rax, -32(%rbp)
Ltmp1143:
	.loc	10 137 22
	movq	%rax, -24(%rbp)
Ltmp1144:
	.loc	9 450 41
	movq	%rax, -16(%rbp)
	movq	%rax, -8(%rbp)
Ltmp1145:
	.loc	9 201 13
	movq	%rax, -88(%rbp)
Ltmp1146:
	.loc	10 191 18
	movq	-88(%rbp), %rax
	.loc	10 191 9 is_stmt 0
	movq	%rax, -96(%rbp)
Ltmp1147:
	.loc	43 248 23 is_stmt 1
	movq	-96(%rbp), %rdi
	callq	__ZN50_$LT$T$u20$as$u20$core..convert..Into$LT$U$GT$$GT$4into17hd54763732c476628E
	movq	-168(%rbp), %rcx
	movq	-160(%rbp), %rdx
	movq	%rax, %rsi
	movq	-144(%rbp), %rax
	.loc	43 248 22 is_stmt 0
	movq	%rsi, -120(%rbp)
	movq	%rcx, -112(%rbp)
	movq	%rdx, -104(%rbp)
	.loc	43 248 17
	movq	-120(%rbp), %rcx
	movq	%rcx, (%rax)
	movq	-112(%rbp), %rcx
	movq	%rcx, 8(%rax)
	movq	-104(%rbp), %rcx
	movq	%rcx, 16(%rax)
Ltmp1148:
	.loc	43 241 9 is_stmt 1
	jmp	LBB145_6
LBB145_5:
	.loc	43 0 9 is_stmt 0
	movq	-144(%rbp), %rax
	.loc	43 242 13 is_stmt 1
	movq	$0, 16(%rax)
LBB145_6:
	.loc	43 0 13 is_stmt 0
	movq	-136(%rbp), %rax
	.loc	43 251 6 is_stmt 1
	addq	$176, %rsp
	popq	%rbp
	retq
Ltmp1149:
Lfunc_end145:
	.cfi_endproc

	.p2align	4, 0x90
__ZN63_$LT$alloc..alloc..Global$u20$as$u20$core..alloc..Allocator$GT$10deallocate17h80554a1ded21a024E:
Lfunc_begin146:
	.loc	36 246 0
	.cfi_startproc
	pushq	%rbp
	.cfi_def_cfa_offset 16
	.cfi_offset %rbp, -16
	movq	%rsp, %rbp
	.cfi_def_cfa_register %rbp
	subq	$112, %rsp
	movq	%rsi, -112(%rbp)
	movq	%rdx, -104(%rbp)
	movq	%rcx, -96(%rbp)
	movq	%rdi, -64(%rbp)
	movq	%rsi, -56(%rbp)
Ltmp1150:
	.loc	36 247 12 prologue_end
	leaq	-104(%rbp), %rax
	movq	%rax, -48(%rbp)
	cmpq	$0, -104(%rbp)
	jne	LBB146_2
	.loc	36 247 9 is_stmt 0
	jmp	LBB146_3
LBB146_2:
	.loc	36 0 9
	movq	-112(%rbp), %rdi
	.loc	36 250 30 is_stmt 1
	movq	%rdi, -40(%rbp)
Ltmp1151:
	.loc	9 326 9
	movq	%rdi, -32(%rbp)
Ltmp1152:
	.loc	36 250 44
	movq	-104(%rbp), %rcx
	movq	-96(%rbp), %rax
	movq	%rcx, -88(%rbp)
	movq	%rax, -80(%rbp)
Ltmp1153:
	.loc	36 113 34
	leaq	-88(%rbp), %rax
	movq	%rax, -24(%rbp)
Ltmp1154:
	.loc	29 129 9
	movq	-88(%rbp), %rsi
Ltmp1155:
	.loc	36 113 49
	leaq	-88(%rbp), %rax
	movq	%rax, -16(%rbp)
Ltmp1156:
	.loc	29 140 9
	movq	-80(%rbp), %rax
	movq	%rax, -8(%rbp)
Ltmp1157:
	.loc	30 97 9
	movq	%rax, -72(%rbp)
	movq	-72(%rbp), %rdx
Ltmp1158:
	.loc	36 113 14
	callq	___rust_dealloc
Ltmp1159:
LBB146_3:
	.loc	36 252 6
	addq	$112, %rsp
	popq	%rbp
	retq
Ltmp1160:
Lfunc_end146:
	.cfi_endproc

	.p2align	4, 0x90
__ZN68_$LT$alloc..ffi..c_str..CString$u20$as$u20$core..ops..drop..Drop$GT$4drop17h26a9c1f04557532dE:
Lfunc_begin147:
	.file	44 "/rustc/2c8cc343237b8f7d5a3c3703e3a87f2eb2c54a74/library/alloc/src/ffi" "c_str.rs"
	.loc	44 701 0
	.cfi_startproc
	pushq	%rbp
	.cfi_def_cfa_offset 16
	.cfi_offset %rbp, -16
	movq	%rsp, %rbp
	.cfi_def_cfa_register %rbp
	subq	$80, %rsp
	movq	%rdi, -80(%rbp)
Ltmp1161:
	.loc	44 703 14 prologue_end
	movq	(%rdi), %rax
	movq	8(%rdi), %rcx
	movq	%rax, -72(%rbp)
	movq	%rcx, -64(%rbp)
Ltmp1162:
	.loc	39 443 48
	movq	%rax, -56(%rbp)
	movq	%rcx, -48(%rbp)
Ltmp1163:
	.loc	1 253 13
	movq	%rax, -40(%rbp)
	movq	%rcx, -32(%rbp)
Ltmp1164:
	.loc	5 2037 9
	movq	%rax, -24(%rbp)
Ltmp1165:
	.loc	5 1034 18
	movq	%rax, -16(%rbp)
Ltmp1166:
	.loc	5 487 18
	movq	%rax, -8(%rbp)
	movq	-8(%rbp), %rax
Ltmp1167:
	.loc	44 703 13
	movb	$0, (%rax)
	.loc	44 705 6
	addq	$80, %rsp
	popq	%rbp
	retq
Ltmp1168:
Lfunc_end147:
	.cfi_endproc

	.p2align	4, 0x90
__ZN69_$LT$std..os..fd..owned..OwnedFd$u20$as$u20$core..ops..drop..Drop$GT$4drop17hb2c44b4d2d7ada3fE:
Lfunc_begin148:
	.file	45 "/rustc/2c8cc343237b8f7d5a3c3703e3a87f2eb2c54a74/library/std/src/os/fd" "owned.rs"
	.loc	45 170 0
	.cfi_startproc
	pushq	%rbp
	.cfi_def_cfa_offset 16
	.cfi_offset %rbp, -16
	movq	%rsp, %rbp
	.cfi_def_cfa_register %rbp
	subq	$16, %rsp
	movq	%rdi, -8(%rbp)
Ltmp1169:
	.loc	45 177 33 prologue_end
	movl	(%rdi), %edi
	.loc	45 177 21 is_stmt 0
	callq	_close$NOCANCEL
	.loc	45 179 6 is_stmt 1
	addq	$16, %rsp
	popq	%rbp
	retq
Ltmp1170:
Lfunc_end148:
	.cfi_endproc

	.p2align	4, 0x90
__ZN70_$LT$alloc..vec..Vec$LT$T$C$A$GT$$u20$as$u20$core..ops..drop..Drop$GT$4drop17h3d1311037985edcdE:
Lfunc_begin149:
	.file	46 "/rustc/2c8cc343237b8f7d5a3c3703e3a87f2eb2c54a74/library/alloc/src/vec" "mod.rs"
	.loc	46 3054 0
	.cfi_startproc
	pushq	%rbp
	.cfi_def_cfa_offset 16
	.cfi_offset %rbp, -16
	movq	%rsp, %rbp
	.cfi_def_cfa_register %rbp
	subq	$160, %rsp
	movq	%rdi, -120(%rbp)
Ltmp1171:
	.loc	46 3059 62 prologue_end
	movq	%rdi, -112(%rbp)
Ltmp1172:
	.loc	46 1280 19
	movq	%rdi, -104(%rbp)
Ltmp1173:
	.loc	43 224 9
	movq	8(%rdi), %rcx
	movq	%rcx, -96(%rbp)
Ltmp1174:
	.loc	10 104 9
	movq	%rcx, -88(%rbp)
Ltmp1175:
	.loc	9 326 9
	movq	%rcx, -80(%rbp)
Ltmp1176:
	.loc	46 1282 21
	movq	%rcx, -72(%rbp)
Ltmp1177:
	.loc	5 52 36
	movq	%rcx, -160(%rbp)
	.loc	5 52 18 is_stmt 0
	movq	-160(%rbp), %rax
	movq	%rax, -64(%rbp)
Ltmp1178:
	.loc	5 38 13 is_stmt 1
	movq	%rax, -56(%rbp)
Ltmp1179:
	.loc	5 215 33
	movq	%rax, -48(%rbp)
	.loc	5 215 18 is_stmt 0
	movq	%rax, -40(%rbp)
Ltmp1180:
	.loc	46 3059 81 is_stmt 1
	movq	16(%rdi), %rax
	movq	%rax, -32(%rbp)
Ltmp1181:
	.loc	3 766 24
	movq	%rcx, -24(%rbp)
Ltmp1182:
	.loc	5 60 9
	movq	%rcx, -16(%rbp)
Ltmp1183:
	.loc	3 766 37
	movq	%rax, -8(%rbp)
Ltmp1184:
	.loc	4 135 36
	movq	%rcx, -136(%rbp)
	movq	%rax, -128(%rbp)
	.loc	4 135 14 is_stmt 0
	movq	-136(%rbp), %rcx
	movq	-128(%rbp), %rax
	movq	%rcx, -152(%rbp)
	movq	%rax, -144(%rbp)
	movq	-152(%rbp), %rdi
	movq	-144(%rbp), %rsi
Ltmp1185:
	.loc	46 3059 13 is_stmt 1
	callq	__ZN4core3ptr238drop_in_place$LT$$u5b$alloc..boxed..Box$LT$dyn$u20$core..ops..function..FnMut$LT$$LP$$RP$$GT$$u2b$Output$u20$$u3d$$u20$core..result..Result$LT$$LP$$RP$$C$std..io..error..Error$GT$$u2b$core..marker..Send$u2b$core..marker..Sync$GT$$u5d$$GT$17h0bf2569a953da6c5E
	.loc	46 3062 6
	addq	$160, %rsp
	popq	%rbp
	retq
Ltmp1186:
Lfunc_end149:
	.cfi_endproc

	.p2align	4, 0x90
__ZN70_$LT$alloc..vec..Vec$LT$T$C$A$GT$$u20$as$u20$core..ops..drop..Drop$GT$4drop17h51f75c816f3d3423E:
Lfunc_begin150:
	.loc	46 3054 0
	.cfi_startproc
	pushq	%rbp
	.cfi_def_cfa_offset 16
	.cfi_offset %rbp, -16
	movq	%rsp, %rbp
	.cfi_def_cfa_register %rbp
	subq	$160, %rsp
	movq	%rdi, -120(%rbp)
Ltmp1187:
	.loc	46 3059 62 prologue_end
	movq	%rdi, -112(%rbp)
Ltmp1188:
	.loc	46 1280 19
	movq	%rdi, -104(%rbp)
Ltmp1189:
	.loc	43 224 9
	movq	8(%rdi), %rcx
	movq	%rcx, -96(%rbp)
Ltmp1190:
	.loc	10 104 9
	movq	%rcx, -88(%rbp)
Ltmp1191:
	.loc	9 326 9
	movq	%rcx, -80(%rbp)
Ltmp1192:
	.loc	46 1282 21
	movq	%rcx, -72(%rbp)
Ltmp1193:
	.loc	5 52 36
	movq	%rcx, -160(%rbp)
	.loc	5 52 18 is_stmt 0
	movq	-160(%rbp), %rax
	movq	%rax, -64(%rbp)
Ltmp1194:
	.loc	5 38 13 is_stmt 1
	movq	%rax, -56(%rbp)
Ltmp1195:
	.loc	5 215 33
	movq	%rax, -48(%rbp)
	.loc	5 215 18 is_stmt 0
	movq	%rax, -40(%rbp)
Ltmp1196:
	.loc	46 3059 81 is_stmt 1
	movq	16(%rdi), %rax
	movq	%rax, -32(%rbp)
Ltmp1197:
	.loc	3 766 24
	movq	%rcx, -24(%rbp)
Ltmp1198:
	.loc	5 60 9
	movq	%rcx, -16(%rbp)
Ltmp1199:
	.loc	3 766 37
	movq	%rax, -8(%rbp)
Ltmp1200:
	.loc	4 135 36
	movq	%rcx, -136(%rbp)
	movq	%rax, -128(%rbp)
	.loc	4 135 14 is_stmt 0
	movq	-136(%rbp), %rcx
	movq	-128(%rbp), %rax
	movq	%rcx, -152(%rbp)
	movq	%rax, -144(%rbp)
Ltmp1201:
	.loc	46 3062 6 is_stmt 1
	addq	$160, %rsp
	popq	%rbp
	retq
Ltmp1202:
Lfunc_end150:
	.cfi_endproc

	.p2align	4, 0x90
__ZN70_$LT$alloc..vec..Vec$LT$T$C$A$GT$$u20$as$u20$core..ops..drop..Drop$GT$4drop17hac12f3f320279951E:
Lfunc_begin151:
	.loc	46 3054 0
	.cfi_startproc
	pushq	%rbp
	.cfi_def_cfa_offset 16
	.cfi_offset %rbp, -16
	movq	%rsp, %rbp
	.cfi_def_cfa_register %rbp
	subq	$160, %rsp
	movq	%rdi, -120(%rbp)
Ltmp1203:
	.loc	46 3059 62 prologue_end
	movq	%rdi, -112(%rbp)
Ltmp1204:
	.loc	46 1280 19
	movq	%rdi, -104(%rbp)
Ltmp1205:
	.loc	43 224 9
	movq	8(%rdi), %rcx
	movq	%rcx, -96(%rbp)
Ltmp1206:
	.loc	10 104 9
	movq	%rcx, -88(%rbp)
Ltmp1207:
	.loc	9 326 9
	movq	%rcx, -80(%rbp)
Ltmp1208:
	.loc	46 1282 21
	movq	%rcx, -72(%rbp)
Ltmp1209:
	.loc	5 52 36
	movq	%rcx, -160(%rbp)
	.loc	5 52 18 is_stmt 0
	movq	-160(%rbp), %rax
	movq	%rax, -64(%rbp)
Ltmp1210:
	.loc	5 38 13 is_stmt 1
	movq	%rax, -56(%rbp)
Ltmp1211:
	.loc	5 215 33
	movq	%rax, -48(%rbp)
	.loc	5 215 18 is_stmt 0
	movq	%rax, -40(%rbp)
Ltmp1212:
	.loc	46 3059 81 is_stmt 1
	movq	16(%rdi), %rax
	movq	%rax, -32(%rbp)
Ltmp1213:
	.loc	3 766 24
	movq	%rcx, -24(%rbp)
Ltmp1214:
	.loc	5 60 9
	movq	%rcx, -16(%rbp)
Ltmp1215:
	.loc	3 766 37
	movq	%rax, -8(%rbp)
Ltmp1216:
	.loc	4 135 36
	movq	%rcx, -136(%rbp)
	movq	%rax, -128(%rbp)
	.loc	4 135 14 is_stmt 0
	movq	-136(%rbp), %rcx
	movq	-128(%rbp), %rax
	movq	%rcx, -152(%rbp)
	movq	%rax, -144(%rbp)
Ltmp1217:
	.loc	46 3062 6 is_stmt 1
	addq	$160, %rsp
	popq	%rbp
	retq
Ltmp1218:
Lfunc_end151:
	.cfi_endproc

	.p2align	4, 0x90
__ZN70_$LT$alloc..vec..Vec$LT$T$C$A$GT$$u20$as$u20$core..ops..drop..Drop$GT$4drop17he9349207471f3cffE:
Lfunc_begin152:
	.loc	46 3054 0
	.cfi_startproc
	pushq	%rbp
	.cfi_def_cfa_offset 16
	.cfi_offset %rbp, -16
	movq	%rsp, %rbp
	.cfi_def_cfa_register %rbp
	subq	$160, %rsp
	movq	%rdi, -120(%rbp)
Ltmp1219:
	.loc	46 3059 62 prologue_end
	movq	%rdi, -112(%rbp)
Ltmp1220:
	.loc	46 1280 19
	movq	%rdi, -104(%rbp)
Ltmp1221:
	.loc	43 224 9
	movq	8(%rdi), %rcx
	movq	%rcx, -96(%rbp)
Ltmp1222:
	.loc	10 104 9
	movq	%rcx, -88(%rbp)
Ltmp1223:
	.loc	9 326 9
	movq	%rcx, -80(%rbp)
Ltmp1224:
	.loc	46 1282 21
	movq	%rcx, -72(%rbp)
Ltmp1225:
	.loc	5 52 36
	movq	%rcx, -160(%rbp)
	.loc	5 52 18 is_stmt 0
	movq	-160(%rbp), %rax
	movq	%rax, -64(%rbp)
Ltmp1226:
	.loc	5 38 13 is_stmt 1
	movq	%rax, -56(%rbp)
Ltmp1227:
	.loc	5 215 33
	movq	%rax, -48(%rbp)
	.loc	5 215 18 is_stmt 0
	movq	%rax, -40(%rbp)
Ltmp1228:
	.loc	46 3059 81 is_stmt 1
	movq	16(%rdi), %rax
	movq	%rax, -32(%rbp)
Ltmp1229:
	.loc	3 766 24
	movq	%rcx, -24(%rbp)
Ltmp1230:
	.loc	5 60 9
	movq	%rcx, -16(%rbp)
Ltmp1231:
	.loc	3 766 37
	movq	%rax, -8(%rbp)
Ltmp1232:
	.loc	4 135 36
	movq	%rcx, -136(%rbp)
	movq	%rax, -128(%rbp)
	.loc	4 135 14 is_stmt 0
	movq	-136(%rbp), %rcx
	movq	-128(%rbp), %rax
	movq	%rcx, -152(%rbp)
	movq	%rax, -144(%rbp)
	movq	-152(%rbp), %rdi
	movq	-144(%rbp), %rsi
Ltmp1233:
	.loc	46 3059 13 is_stmt 1
	callq	__ZN4core3ptr57drop_in_place$LT$$u5b$alloc..ffi..c_str..CString$u5d$$GT$17h06a2f135159ae3b2E
	.loc	46 3062 6
	addq	$160, %rsp
	popq	%rbp
	retq
Ltmp1234:
Lfunc_end152:
	.cfi_endproc

	.p2align	4, 0x90
__ZN70_$LT$core..option..Option$LT$T$GT$$u20$as$u20$core..cmp..PartialEq$GT$2eq17h2141df7c48b75e0fE:
Lfunc_begin153:
	.loc	8 2088 0
	.cfi_startproc
	pushq	%rbp
	.cfi_def_cfa_offset 16
	.cfi_offset %rbp, -16
	movq	%rsp, %rbp
	.cfi_def_cfa_register %rbp
	subq	$16, %rsp
	movq	%rdi, -16(%rbp)
	movq	%rsi, -8(%rbp)
Ltmp1235:
	.loc	8 2089 9 prologue_end
	callq	__ZN55_$LT$T$u20$as$u20$core..option..SpecOptionPartialEq$GT$2eq17hea15208001e8a218E
	.loc	8 2090 6
	andb	$1, %al
	movzbl	%al, %eax
	addq	$16, %rsp
	popq	%rbp
	retq
Ltmp1236:
Lfunc_end153:
	.cfi_endproc

	.p2align	4, 0x90
__ZN72_$LT$alloc..vec..Vec$LT$T$C$A$GT$$u20$as$u20$core..ops..deref..Deref$GT$5deref17haac5ecd75b3d5e07E:
Lfunc_begin154:
	.loc	46 2636 0
	.cfi_startproc
	pushq	%rbp
	.cfi_def_cfa_offset 16
	.cfi_offset %rbp, -16
	movq	%rsp, %rbp
	.cfi_def_cfa_register %rbp
	subq	$184, %rsp
	movq	%rdi, -144(%rbp)
Ltmp1237:
	.loc	46 2637 40 prologue_end
	movq	%rdi, -136(%rbp)
Ltmp1238:
	.loc	46 1243 19
	movq	%rdi, -128(%rbp)
Ltmp1239:
	.loc	43 224 9
	movq	8(%rdi), %rcx
	movq	%rcx, -120(%rbp)
Ltmp1240:
	.loc	10 104 9
	movq	%rcx, -112(%rbp)
Ltmp1241:
	.loc	9 326 9
	movq	%rcx, -104(%rbp)
Ltmp1242:
	.loc	46 1245 21
	movq	%rcx, -96(%rbp)
Ltmp1243:
	.loc	5 52 36
	movq	%rcx, -184(%rbp)
	.loc	5 52 18 is_stmt 0
	movq	-184(%rbp), %rax
	movq	%rax, -88(%rbp)
Ltmp1244:
	.loc	5 38 13 is_stmt 1
	movq	%rax, -80(%rbp)
Ltmp1245:
	.loc	5 215 33
	movq	%rax, -72(%rbp)
	.loc	5 215 18 is_stmt 0
	movq	%rax, -64(%rbp)
Ltmp1246:
	.loc	46 1247 9 is_stmt 1
	movq	%rcx, -56(%rbp)
Ltmp1247:
	.loc	46 2637 55
	movq	16(%rdi), %rax
	movq	%rax, -48(%rbp)
Ltmp1248:
	.file	47 "/rustc/2c8cc343237b8f7d5a3c3703e3a87f2eb2c54a74/library/core/src/slice" "raw.rs"
	.loc	47 100 37
	movq	%rcx, -40(%rbp)
	.loc	47 100 43 is_stmt 0
	movq	%rax, -32(%rbp)
Ltmp1249:
	.loc	3 734 20 is_stmt 1
	movq	%rcx, -24(%rbp)
Ltmp1250:
	.loc	2 61 9
	movq	%rcx, -16(%rbp)
Ltmp1251:
	.loc	3 734 33
	movq	%rax, -8(%rbp)
Ltmp1252:
	.loc	4 118 36
	movq	%rcx, -160(%rbp)
	movq	%rax, -152(%rbp)
	.loc	4 118 14 is_stmt 0
	movq	-160(%rbp), %rcx
	movq	-152(%rbp), %rax
	movq	%rcx, -176(%rbp)
	movq	%rax, -168(%rbp)
	movq	-176(%rbp), %rax
	movq	-168(%rbp), %rdx
Ltmp1253:
	.loc	46 2638 6 is_stmt 1
	addq	$184, %rsp
	popq	%rbp
	retq
Ltmp1254:
Lfunc_end154:
	.cfi_endproc

	.p2align	4, 0x90
__ZN73_$LT$$u5b$A$u5d$$u20$as$u20$core..slice..cmp..SlicePartialEq$LT$B$GT$$GT$5equal17hb88935103f1fdae3E:
Lfunc_begin155:
	.loc	31 82 0
	.cfi_startproc
	pushq	%rbp
	.cfi_def_cfa_offset 16
	.cfi_offset %rbp, -16
	movq	%rsp, %rbp
	.cfi_def_cfa_register %rbp
	subq	$144, %rsp
	movq	%rdi, -136(%rbp)
	movq	%rsi, -128(%rbp)
	movq	%rdx, -120(%rbp)
	movq	%rcx, -112(%rbp)
	movq	%rdi, -96(%rbp)
	movq	%rsi, -88(%rbp)
	movq	%rdx, -80(%rbp)
	movq	%rcx, -72(%rbp)
Ltmp1255:
	.loc	31 83 12 prologue_end
	cmpq	%rcx, %rsi
	jne	LBB155_2
	.loc	31 0 12 is_stmt 0
	movq	-120(%rbp), %rsi
	movq	-136(%rbp), %rdi
	movq	-112(%rbp), %rax
	movq	-128(%rbp), %rcx
	.loc	31 90 41 is_stmt 1
	movq	%rdi, -64(%rbp)
	movq	%rcx, -56(%rbp)
Ltmp1256:
	.loc	24 338 14
	movq	%rcx, %rdx
	shlq	$0, %rdx
	movq	%rdx, -48(%rbp)
	movq	-48(%rbp), %rdx
	movq	%rdx, -40(%rbp)
Ltmp1257:
	.loc	31 91 20
	movq	%rdi, -32(%rbp)
	movq	%rcx, -24(%rbp)
	.loc	31 91 48 is_stmt 0
	movq	%rsi, -16(%rbp)
	movq	%rax, -8(%rbp)
	.loc	31 91 13
	callq	_memcmp
	cmpl	$0, %eax
	sete	%al
	andb	$1, %al
	movb	%al, -97(%rbp)
Ltmp1258:
	.loc	31 93 6 is_stmt 1
	jmp	LBB155_3
LBB155_2:
	.loc	31 84 20
	movb	$0, -97(%rbp)
LBB155_3:
	.loc	31 93 6
	movb	-97(%rbp), %al
	andb	$1, %al
	movzbl	%al, %eax
	addq	$144, %rsp
	popq	%rbp
	retq
Ltmp1259:
Lfunc_end155:
	.cfi_endproc

	.p2align	4, 0x90
__ZN77_$LT$alloc..raw_vec..RawVec$LT$T$C$A$GT$$u20$as$u20$core..ops..drop..Drop$GT$4drop17h892fbae962d60295E:
Lfunc_begin156:
	.loc	43 477 0
	.cfi_startproc
	pushq	%rbp
	.cfi_def_cfa_offset 16
	.cfi_offset %rbp, -16
	movq	%rsp, %rbp
	.cfi_def_cfa_register %rbp
	subq	$64, %rsp
	movq	%rdi, %rsi
	movq	%rsi, -64(%rbp)
	movq	%rsi, -32(%rbp)
Ltmp1260:
	.loc	43 478 38 prologue_end
	leaq	-56(%rbp), %rdi
	callq	__ZN5alloc7raw_vec19RawVec$LT$T$C$A$GT$14current_memory17h6c85a933e7775e3eE
	.loc	43 478 16 is_stmt 0
	movl	$1, %eax
	xorl	%ecx, %ecx
	cmpq	$0, -40(%rbp)
	cmoveq	%rcx, %rax
	cmpq	$1, %rax
	jne	LBB156_2
	.loc	43 0 16
	movq	-64(%rbp), %rdi
	.loc	43 478 22
	movq	-56(%rbp), %rsi
	movq	%rsi, -24(%rbp)
	.loc	43 478 27
	movq	-48(%rbp), %rdx
	movq	-40(%rbp), %rcx
	movq	%rdx, -16(%rbp)
	movq	%rcx, -8(%rbp)
	.loc	43 479 22 is_stmt 1
	callq	__ZN63_$LT$alloc..alloc..Global$u20$as$u20$core..alloc..Allocator$GT$10deallocate17h80554a1ded21a024E
Ltmp1261:
LBB156_2:
	.loc	43 481 6
	addq	$64, %rsp
	popq	%rbp
	retq
Ltmp1262:
Lfunc_end156:
	.cfi_endproc

	.p2align	4, 0x90
__ZN77_$LT$alloc..raw_vec..RawVec$LT$T$C$A$GT$$u20$as$u20$core..ops..drop..Drop$GT$4drop17hc8b89568e76a513cE:
Lfunc_begin157:
	.loc	43 477 0
	.cfi_startproc
	pushq	%rbp
	.cfi_def_cfa_offset 16
	.cfi_offset %rbp, -16
	movq	%rsp, %rbp
	.cfi_def_cfa_register %rbp
	subq	$64, %rsp
	movq	%rdi, %rsi
	movq	%rsi, -64(%rbp)
	movq	%rsi, -32(%rbp)
Ltmp1263:
	.loc	43 478 38 prologue_end
	leaq	-56(%rbp), %rdi
	callq	__ZN5alloc7raw_vec19RawVec$LT$T$C$A$GT$14current_memory17h4b64467326d14d46E
	.loc	43 478 16 is_stmt 0
	movl	$1, %eax
	xorl	%ecx, %ecx
	cmpq	$0, -40(%rbp)
	cmoveq	%rcx, %rax
	cmpq	$1, %rax
	jne	LBB157_2
	.loc	43 0 16
	movq	-64(%rbp), %rdi
	.loc	43 478 22
	movq	-56(%rbp), %rsi
	movq	%rsi, -24(%rbp)
	.loc	43 478 27
	movq	-48(%rbp), %rdx
	movq	-40(%rbp), %rcx
	movq	%rdx, -16(%rbp)
	movq	%rcx, -8(%rbp)
	.loc	43 479 22 is_stmt 1
	callq	__ZN63_$LT$alloc..alloc..Global$u20$as$u20$core..alloc..Allocator$GT$10deallocate17h80554a1ded21a024E
Ltmp1264:
LBB157_2:
	.loc	43 481 6
	addq	$64, %rsp
	popq	%rbp
	retq
Ltmp1265:
Lfunc_end157:
	.cfi_endproc

	.p2align	4, 0x90
__ZN77_$LT$alloc..raw_vec..RawVec$LT$T$C$A$GT$$u20$as$u20$core..ops..drop..Drop$GT$4drop17hec56d5fd09574ef4E:
Lfunc_begin158:
	.loc	43 477 0
	.cfi_startproc
	pushq	%rbp
	.cfi_def_cfa_offset 16
	.cfi_offset %rbp, -16
	movq	%rsp, %rbp
	.cfi_def_cfa_register %rbp
	subq	$64, %rsp
	movq	%rdi, %rsi
	movq	%rsi, -64(%rbp)
	movq	%rsi, -32(%rbp)
Ltmp1266:
	.loc	43 478 38 prologue_end
	leaq	-56(%rbp), %rdi
	callq	__ZN5alloc7raw_vec19RawVec$LT$T$C$A$GT$14current_memory17hb380d89f9b5fa6ceE
	.loc	43 478 16 is_stmt 0
