	.section	__TEXT,__text,regular,pure_instructions
	.macosx_version_min 10, 7
	.p2align	4, 0x90
__ZN106_$LT$core..ops..range..Range$LT$usize$GT$$u20$as$u20$core..slice..index..SliceIndex$LT$$u5b$T$u5d$$GT$$GT$13get_unchecked17hb6ffd9063b9bb83fE:
Lfunc_begin0:
	.file	1 "/rustc/2c8cc343237b8f7d5a3c3703e3a87f2eb2c54a74/library/core/src/slice" "index.rs"
	.loc	1 373 0
	.cfi_startproc
	pushq	%rbp
	.cfi_def_cfa_offset 16
	.cfi_offset %rbp, -16
	movq	%rsp, %rbp
	.cfi_def_cfa_register %rbp
	subq	$160, %rsp
	movq	%rdi, -128(%rbp)
	movq	%rsi, -120(%rbp)
	movq	%rdx, -112(%rbp)
	movq	%rcx, -104(%rbp)
Ltmp0:
	.loc	1 386 39 prologue_end
	movq	%rdx, -96(%rbp)
	movq	%rcx, -88(%rbp)
Ltmp1:
	.file	2 "/rustc/2c8cc343237b8f7d5a3c3703e3a87f2eb2c54a74/library/core/src/ptr" "const_ptr.rs"
	.loc	2 1650 9
	movq	%rdx, -80(%rbp)
Ltmp2:
	.loc	1 386 58
	movq	%rdi, -72(%rbp)
Ltmp3:
	.loc	2 932 18
	movq	%rdx, -64(%rbp)
	.loc	2 932 30 is_stmt 0
	movq	%rdi, -56(%rbp)
Ltmp4:
	.loc	2 473 18 is_stmt 1
	addq	%rdi, %rdx
	movq	%rdx, -48(%rbp)
	movq	-48(%rbp), %rax
	movq	%rax, -40(%rbp)
Ltmp5:
	.loc	1 386 71
	subq	%rdi, %rsi
	movq	%rsi, -32(%rbp)
Ltmp6:
	.file	3 "/rustc/2c8cc343237b8f7d5a3c3703e3a87f2eb2c54a74/library/core/src/ptr" "mod.rs"
	.loc	3 734 20
	movq	%rax, -24(%rbp)
Ltmp7:
	.loc	2 61 9
	movq	%rax, -16(%rbp)
Ltmp8:
	.loc	3 734 33
	movq	%rsi, -8(%rbp)
Ltmp9:
	.file	4 "/rustc/2c8cc343237b8f7d5a3c3703e3a87f2eb2c54a74/library/core/src/ptr" "metadata.rs"
	.loc	4 118 36
	movq	%rax, -144(%rbp)
	movq	%rsi, -136(%rbp)
	.loc	4 118 14 is_stmt 0
	movq	-144(%rbp), %rcx
	movq	-136(%rbp), %rax
	movq	%rcx, -160(%rbp)
	movq	%rax, -152(%rbp)
	movq	-160(%rbp), %rax
	movq	-152(%rbp), %rdx
Ltmp10:
	.loc	1 388 6 is_stmt 1
	addq	$160, %rsp
	popq	%rbp
	retq
Ltmp11:
Lfunc_end0:
	.cfi_endproc

	.p2align	4, 0x90
__ZN110_$LT$core..ops..range..RangeFrom$LT$usize$GT$$u20$as$u20$core..slice..index..SliceIndex$LT$$u5b$T$u5d$$GT$$GT$5index17h28f3476c01ee1675E:
Lfunc_begin1:
	.loc	1 493 0
	.cfi_startproc
	pushq	%rbp
	.cfi_def_cfa_offset 16
	.cfi_offset %rbp, -16
	movq	%rsp, %rbp
	.cfi_def_cfa_register %rbp
	subq	$144, %rsp
	movq	%rdi, -144(%rbp)
	movq	%rsi, -136(%rbp)
	movq	%rdx, -128(%rbp)
	movq	%rcx, -120(%rbp)
	movq	%rdi, -80(%rbp)
	movq	%rsi, -72(%rbp)
	movq	%rdx, -64(%rbp)
Ltmp12:
	.loc	1 494 12 prologue_end
	cmpq	%rdx, %rdi
	ja	LBB1_2
	.loc	1 0 12 is_stmt 0
	movq	-128(%rbp), %rcx
	movq	-136(%rbp), %rdx
	movq	-144(%rbp), %rsi
	.loc	1 498 20 is_stmt 1
	movq	%rsi, -56(%rbp)
	.loc	1 498 39 is_stmt 0
	movq	%rdx, -48(%rbp)
	movq	%rcx, -40(%rbp)
Ltmp13:
	.loc	1 483 31 is_stmt 1
	movq	%rdx, -32(%rbp)
	movq	%rcx, -24(%rbp)
Ltmp14:
	.loc	2 1630 18
	movq	%rdx, -16(%rbp)
	movq	%rcx, -8(%rbp)
Ltmp15:
	.loc	4 98 14
	movq	%rdx, -96(%rbp)
	movq	%rcx, -88(%rbp)
	movq	-88(%rbp), %rax
Ltmp16:
	.loc	1 483 18
	movq	%rsi, -112(%rbp)
	movq	%rax, -104(%rbp)
	movq	-112(%rbp), %rdi
	movq	-104(%rbp), %rsi
	callq	__ZN106_$LT$core..ops..range..Range$LT$usize$GT$$u20$as$u20$core..slice..index..SliceIndex$LT$$u5b$T$u5d$$GT$$GT$13get_unchecked17hb6ffd9063b9bb83fE
Ltmp17:
	.loc	1 499 6
	addq	$144, %rsp
	popq	%rbp
	retq
LBB1_2:
	.loc	1 0 6 is_stmt 0
	movq	-120(%rbp), %rdx
	movq	-128(%rbp), %rsi
	movq	-144(%rbp), %rdi
	.loc	1 495 13 is_stmt 1
	callq	__ZN4core5slice5index26slice_start_index_len_fail17h9d301bb51ec3e351E
Ltmp18:
Lfunc_end1:
	.cfi_endproc

	.p2align	4, 0x90
__ZN119_$LT$alloc..collections..btree..map..BTreeMap$LT$K$C$V$C$A$GT$$u20$as$u20$core..iter..traits..collect..IntoIterator$GT$9into_iter17h5ef979ce3e73e70aE:
Lfunc_begin2:
	.file	5 "/rustc/2c8cc343237b8f7d5a3c3703e3a87f2eb2c54a74/library/alloc/src/collections/btree" "map.rs"
	.loc	5 1615 0
	.cfi_startproc
	pushq	%rbp
	.cfi_def_cfa_offset 16
	.cfi_offset %rbp, -16
	movq	%rsp, %rbp
	.cfi_def_cfa_register %rbp
	subq	$480, %rsp
	movq	%rdi, -464(%rbp)
	movq	%rdi, -456(%rbp)
Ltmp19:
	.loc	5 1616 40 prologue_end
	movq	16(%rsi), %rax
	movq	%rax, -408(%rbp)
	movq	(%rsi), %rax
	movq	8(%rsi), %rcx
	movq	%rcx, -416(%rbp)
	movq	%rax, -424(%rbp)
Ltmp20:
	.file	6 "/rustc/2c8cc343237b8f7d5a3c3703e3a87f2eb2c54a74/library/core/src/mem" "manually_drop.rs"
	.loc	6 71 24
	movq	-408(%rbp), %rax
	movq	%rax, -176(%rbp)
	movq	-424(%rbp), %rax
	movq	-416(%rbp), %rcx
	movq	%rcx, -184(%rbp)
	movq	%rax, -192(%rbp)
	.loc	6 71 9 is_stmt 0
	movq	-176(%rbp), %rax
	movq	%rax, -432(%rbp)
	movq	-192(%rbp), %rax
	movq	-184(%rbp), %rcx
	movq	%rcx, -440(%rbp)
	movq	%rax, -448(%rbp)
	leaq	-448(%rbp), %rdi
Ltmp21:
	.loc	5 1617 29 is_stmt 1
	movq	%rdi, -104(%rbp)
	movq	%rdi, -96(%rbp)
Ltmp22:
	.file	7 "/rustc/2c8cc343237b8f7d5a3c3703e3a87f2eb2c54a74/library/core/src" "option.rs"
	.loc	7 1623 28
	movq	$0, -160(%rbp)
	.loc	7 1623 9 is_stmt 0
	movq	-168(%rbp), %rsi
Ltmp23:
	movq	-160(%rbp), %rdx
	callq	__ZN4core3mem7replace17hdf82e6ac95f32bc6E
	movq	%rdx, -392(%rbp)
	movq	%rax, -400(%rbp)
Ltmp24:
	.loc	5 1617 16 is_stmt 1
	movq	-392(%rbp), %rdx
	movl	$1, %eax
	xorl	%ecx, %ecx
	cmpq	$0, %rdx
	cmoveq	%rcx, %rax
	cmpq	$1, %rax
	jne	LBB2_2
Ltmp25:
	.loc	5 1617 21 is_stmt 0
	movq	-400(%rbp), %rdi
	movq	-392(%rbp), %rsi
	movq	%rdi, -56(%rbp)
	movq	%rsi, -48(%rbp)
	.loc	5 1618 30 is_stmt 1
	callq	__ZN5alloc11collections5btree4node76NodeRef$LT$alloc..collections..btree..node..marker..Owned$C$K$C$V$C$Type$GT$10into_dying17h870a33f5d6047171E
	movq	%rax, %rsi
	leaq	-384(%rbp), %rdi
	callq	__ZN5alloc11collections5btree8navigate178_$LT$impl$u20$alloc..collections..btree..node..NodeRef$LT$alloc..collections..btree..node..marker..Dying$C$K$C$V$C$alloc..collections..btree..node..marker..LeafOrInternal$GT$$GT$10full_range17h0e1b5d51327b524bE
Ltmp26:
	.loc	5 1621 24
	leaq	-320(%rbp), %rdi
	leaq	-384(%rbp), %rsi
	movl	$64, %edx
	callq	_memcpy
	movq	-464(%rbp), %rdi
	.loc	5 1622 25
	leaq	-448(%rbp), %rax
	movq	%rax, -40(%rbp)
	movq	-432(%rbp), %rax
	movq	%rax, -472(%rbp)
	.loc	5 1623 57
	leaq	-448(%rbp), %rax
	movq	%rax, -32(%rbp)
	.loc	5 1623 52 is_stmt 0
	leaq	-448(%rbp), %rax
	movq	%rax, -24(%rbp)
Ltmp27:
	.loc	6 113 28 is_stmt 1
	leaq	-448(%rbp), %rax
	movq	%rax, -16(%rbp)
Ltmp28:
	.loc	3 1157 34
	leaq	-152(%rbp), %rax
	movq	%rax, -8(%rbp)
Ltmp29:
	.loc	5 1620 13
	leaq	-320(%rbp), %rsi
	movl	$64, %edx
	callq	_memcpy
	movq	-472(%rbp), %rcx
	movq	-464(%rbp), %rax
	movq	%rcx, 64(%rax)
Ltmp30:
	.loc	5 1617 9
	jmp	LBB2_3
Ltmp31:
LBB2_2:
	.loc	5 1627 24
	leaq	-256(%rbp), %rdi
	callq	__ZN5alloc11collections5btree8navigate39LazyLeafRange$LT$BorrowType$C$K$C$V$GT$4none17hc28eabb991c8ad1eE
	movq	-464(%rbp), %rdi
	.loc	5 1629 57
	leaq	-448(%rbp), %rax
	movq	%rax, -88(%rbp)
	.loc	5 1629 52 is_stmt 0
	leaq	-448(%rbp), %rax
	movq	%rax, -80(%rbp)
Ltmp32:
	.loc	6 113 28 is_stmt 1
	leaq	-448(%rbp), %rax
	movq	%rax, -72(%rbp)
Ltmp33:
	.loc	3 1157 34
	leaq	-144(%rbp), %rax
	movq	%rax, -64(%rbp)
Ltmp34:
	.loc	5 1626 13
	leaq	-256(%rbp), %rsi
	movl	$64, %edx
	callq	_memcpy
	movq	-464(%rbp), %rax
	movq	$0, 64(%rax)
Ltmp35:
LBB2_3:
	.loc	5 0 13 is_stmt 0
	movq	-456(%rbp), %rax
	.loc	5 1632 6 is_stmt 1
	addq	$480, %rsp
	popq	%rbp
	retq
Ltmp36:
Lfunc_end2:
	.cfi_endproc

	.p2align	4, 0x90
__ZN119_$LT$core..ptr..non_null..NonNull$LT$T$GT$$u20$as$u20$core..convert..From$LT$core..ptr..unique..Unique$LT$T$GT$$GT$$GT$4from17h10b60ca6f300476cE:
Lfunc_begin3:
	.file	8 "/rustc/2c8cc343237b8f7d5a3c3703e3a87f2eb2c54a74/library/core/src/ptr" "non_null.rs"
	.loc	8 765 0
	.cfi_startproc
	pushq	%rbp
	.cfi_def_cfa_offset 16
	.cfi_offset %rbp, -16
	movq	%rsp, %rbp
	.cfi_def_cfa_register %rbp
	subq	$40, %rsp
	movq	%rdi, -32(%rbp)
Ltmp37:
	.loc	8 768 41 prologue_end
	movq	%rdi, -24(%rbp)
Ltmp38:
	.file	9 "/rustc/2c8cc343237b8f7d5a3c3703e3a87f2eb2c54a74/library/core/src/ptr" "unique.rs"
	.loc	9 104 9
	movq	%rdi, -16(%rbp)
Ltmp39:
	.loc	8 326 9
	movq	%rdi, -8(%rbp)
Ltmp40:
	.loc	8 201 13
	movq	%rdi, -40(%rbp)
Ltmp41:
	.loc	8 769 6
	movq	-40(%rbp), %rax
	addq	$40, %rsp
	popq	%rbp
	retq
Ltmp42:
Lfunc_end3:
	.cfi_endproc

	.p2align	4, 0x90
__ZN174_$LT$$LT$alloc..collections..btree..map..IntoIter$LT$K$C$V$C$A$GT$$u20$as$u20$core..ops..drop..Drop$GT$..drop..DropGuard$LT$K$C$V$C$A$GT$$u20$as$u20$core..ops..drop..Drop$GT$4drop17h637fa81eda85a466E:
Lfunc_begin4:
	.loc	5 1641 0
	.cfi_startproc
	pushq	%rbp
	.cfi_def_cfa_offset 16
	.cfi_offset %rbp, -16
	movq	%rsp, %rbp
	.cfi_def_cfa_register %rbp
	subq	$96, %rsp
	movq	%rdi, -88(%rbp)
	movq	%rdi, -8(%rbp)
LBB4_1:
	movq	-88(%rbp), %rax
Ltmp43:
	.loc	5 1644 38 prologue_end
	movq	(%rax), %rsi
	leaq	-80(%rbp), %rdi
	callq	__ZN5alloc11collections5btree3map25IntoIter$LT$K$C$V$C$A$GT$10dying_next17hc8b24ab0a20d0363E
	.loc	5 1644 27 is_stmt 0
	movq	-72(%rbp), %rdx
	movl	$1, %eax
	xorl	%ecx, %ecx
	cmpq	$0, %rdx
	cmoveq	%rcx, %rax
	cmpq	$1, %rax
	jne	LBB4_3
	.loc	5 1644 32
	movq	-80(%rbp), %rax
	movq	%rax, -56(%rbp)
	movq	-72(%rbp), %rax
	movq	%rax, -48(%rbp)
	movq	-64(%rbp), %rax
	movq	%rax, -40(%rbp)
	.loc	5 1646 30 is_stmt 1
	movq	-56(%rbp), %rax
	movq	%rax, -32(%rbp)
	movq	-48(%rbp), %rax
	movq	%rax, -24(%rbp)
	movq	-40(%rbp), %rax
	movq	%rax, -16(%rbp)
	leaq	-32(%rbp), %rdi
	callq	__ZN5alloc11collections5btree4node173Handle$LT$alloc..collections..btree..node..NodeRef$LT$alloc..collections..btree..node..marker..Dying$C$K$C$V$C$NodeType$GT$$C$alloc..collections..btree..node..marker..KV$GT$12drop_key_val17h1e2c0090e4dc276dE
Ltmp44:
	.loc	5 1644 17
	jmp	LBB4_1
LBB4_3:
	.loc	5 1648 14
	addq	$96, %rsp
	popq	%rbp
	retq
Ltmp45:
Lfunc_end4:
	.cfi_endproc

	.p2align	4, 0x90
__ZN3std10sys_common9backtrace28__rust_begin_short_backtrace17hbc5e6766a824bf1cE:
Lfunc_begin5:
	.file	10 "/rustc/2c8cc343237b8f7d5a3c3703e3a87f2eb2c54a74/library/std/src/sys_common" "backtrace.rs"
	.loc	10 117 0
	.cfi_startproc
	pushq	%rbp
	.cfi_def_cfa_offset 16
	.cfi_offset %rbp, -16
	movq	%rsp, %rbp
	.cfi_def_cfa_register %rbp
	subq	$48, %rsp
	movq	%rdi, -32(%rbp)
Ltmp46:
	.loc	10 121 18 prologue_end
	callq	__ZN4core3ops8function6FnOnce9call_once17hda6bccd5c620cdecE
Ltmp47:
	.file	11 "/rustc/2c8cc343237b8f7d5a3c3703e3a87f2eb2c54a74/library/core/src" "hint.rs"
	.loc	11 295 5
	## InlineAsm Start
	## InlineAsm End
Ltmp48:
	.loc	10 127 2
	addq	$48, %rsp
	popq	%rbp
	retq
Ltmp49:
Lfunc_end5:
	.cfi_endproc

	.p2align	4, 0x90
__ZN3std2fs10DirBuilder6create17ha90af0f933cbbd37E:
Lfunc_begin6:
	.file	12 "/rustc/2c8cc343237b8f7d5a3c3703e3a87f2eb2c54a74/library/std/src" "fs.rs"
	.loc	12 2449 0
	.cfi_startproc
	.cfi_personality 155, _rust_eh_personality
	.cfi_lsda 16, Lexception0
	pushq	%rbp
	.cfi_def_cfa_offset 16
	.cfi_offset %rbp, -16
	movq	%rsp, %rbp
	.cfi_def_cfa_register %rbp
	subq	$80, %rsp
	movq	%rdi, -64(%rbp)
	movq	%rsi, -40(%rbp)
	movq	%rdx, -32(%rbp)
	movq	%rdi, -24(%rbp)
Ltmp50:
	leaq	-40(%rbp), %rdi
Ltmp55:
	.loc	12 2450 22 prologue_end
	callq	__ZN55_$LT$$RF$T$u20$as$u20$core..convert..AsRef$LT$U$GT$$GT$6as_ref17heeeca63e2339649dE
Ltmp51:
	movq	%rdx, -56(%rbp)
	movq	%rax, -48(%rbp)
	jmp	LBB6_3
LBB6_1:
	.loc	12 2449 5
	movq	-16(%rbp), %rdi
	callq	__Unwind_Resume
LBB6_2:
Ltmp54:
	.loc	12 0 5 is_stmt 0
	movq	%rax, %rcx
	movl	%edx, %eax
	movq	%rcx, -16(%rbp)
	movl	%eax, -8(%rbp)
	jmp	LBB6_1
LBB6_3:
Ltmp52:
	movq	-56(%rbp), %rdx
	movq	-48(%rbp), %rsi
	movq	-64(%rbp), %rdi
	.loc	12 2450 9 is_stmt 1
	callq	__ZN3std2fs10DirBuilder7_create17he5801dcd9d6cfb94E
Ltmp53:
	movq	%rax, -72(%rbp)
	jmp	LBB6_4
LBB6_4:
	.loc	12 0 9 is_stmt 0
	movq	-72(%rbp), %rax
	.loc	12 2451 6 is_stmt 1
	addq	$80, %rsp
	popq	%rbp
	retq
Ltmp56:
Lfunc_end6:
	.cfi_endproc
	.section	__TEXT,__gcc_except_tab
	.p2align	2
GCC_except_table6:
Lexception0:
	.byte	255
	.byte	255
	.byte	1
	.uleb128 Lcst_end0-Lcst_begin0
Lcst_begin0:
	.uleb128 Ltmp50-Lfunc_begin6
	.uleb128 Ltmp51-Ltmp50
	.uleb128 Ltmp54-Lfunc_begin6
	.byte	0
	.uleb128 Ltmp51-Lfunc_begin6
	.uleb128 Ltmp52-Ltmp51
	.byte	0
	.byte	0
	.uleb128 Ltmp52-Lfunc_begin6
	.uleb128 Ltmp53-Ltmp52
	.uleb128 Ltmp54-Lfunc_begin6
	.byte	0
Lcst_end0:
	.p2align	2

	.section	__TEXT,__text,regular,pure_instructions
	.p2align	4, 0x90
__ZN3std2fs11OpenOptions4open17h559e9b4bda919e34E:
Lfunc_begin7:
	.loc	12 1058 0
	.cfi_startproc
	.cfi_personality 155, _rust_eh_personality
	.cfi_lsda 16, Lexception1
	pushq	%rbp
	.cfi_def_cfa_offset 16
	.cfi_offset %rbp, -16
	movq	%rsp, %rbp
	.cfi_def_cfa_register %rbp
	subq	$80, %rsp
	movq	%rsi, -80(%rbp)
	movq	%rdi, -72(%rbp)
	movq	%rdi, -64(%rbp)
	movq	%rdx, -40(%rbp)
	movq	%rcx, -32(%rbp)
	movq	%rsi, -24(%rbp)
Ltmp57:
	leaq	-40(%rbp), %rdi
Ltmp62:
	.loc	12 1059 20 prologue_end
	callq	__ZN55_$LT$$RF$T$u20$as$u20$core..convert..AsRef$LT$U$GT$$GT$6as_ref17heeeca63e2339649dE
Ltmp58:
	movq	%rdx, -56(%rbp)
	movq	%rax, -48(%rbp)
	jmp	LBB7_3
LBB7_1:
	.loc	12 1058 5
	movq	-16(%rbp), %rdi
	callq	__Unwind_Resume
LBB7_2:
Ltmp61:
	.loc	12 0 5 is_stmt 0
	movq	%rax, %rcx
	movl	%edx, %eax
	movq	%rcx, -16(%rbp)
	movl	%eax, -8(%rbp)
	jmp	LBB7_1
LBB7_3:
Ltmp59:
	movq	-56(%rbp), %rcx
	movq	-48(%rbp), %rdx
	movq	-80(%rbp), %rsi
	movq	-72(%rbp), %rdi
	.loc	12 1059 9 is_stmt 1
	callq	__ZN3std2fs11OpenOptions5_open17h765806b2579ff7e6E
Ltmp60:
	jmp	LBB7_4
LBB7_4:
	.loc	12 0 9 is_stmt 0
	movq	-64(%rbp), %rax
	.loc	12 1060 6 is_stmt 1
	addq	$80, %rsp
	popq	%rbp
	retq
Ltmp63:
Lfunc_end7:
	.cfi_endproc
	.section	__TEXT,__gcc_except_tab
	.p2align	2
GCC_except_table7:
Lexception1:
	.byte	255
	.byte	255
	.byte	1
	.uleb128 Lcst_end1-Lcst_begin1
Lcst_begin1:
	.uleb128 Ltmp57-Lfunc_begin7
	.uleb128 Ltmp58-Ltmp57
	.uleb128 Ltmp61-Lfunc_begin7
	.byte	0
	.uleb128 Ltmp58-Lfunc_begin7
	.uleb128 Ltmp59-Ltmp58
	.byte	0
	.byte	0
	.uleb128 Ltmp59-Lfunc_begin7
	.uleb128 Ltmp60-Ltmp59
	.uleb128 Ltmp61-Lfunc_begin7
	.byte	0
Lcst_end1:
	.p2align	2

	.section	__TEXT,__text,regular,pure_instructions
	.p2align	4, 0x90
__ZN3std2fs14create_dir_all17hcc41d7a2b8629f20E:
Lfunc_begin8:
	.loc	12 2201 0
	.cfi_startproc
	.cfi_personality 155, _rust_eh_personality
	.cfi_lsda 16, Lexception2
	pushq	%rbp
	.cfi_def_cfa_offset 16
	.cfi_offset %rbp, -16
	movq	%rsp, %rbp
	.cfi_def_cfa_register %rbp
	subq	$80, %rsp
	movq	%rdi, -40(%rbp)
	movq	%rsi, -32(%rbp)
Ltmp64:
Ltmp73:
	.loc	12 2202 5 prologue_end
	callq	__ZN3std2fs10DirBuilder3new17h01ad7574908c5578E
Ltmp65:
	movb	%dl, -43(%rbp)
	movw	%ax, -42(%rbp)
	jmp	LBB8_3
LBB8_1:
	.loc	12 2201 1
	movq	-16(%rbp), %rdi
	callq	__Unwind_Resume
LBB8_2:
Ltmp72:
	.loc	12 0 1 is_stmt 0
	movq	%rax, %rcx
	movl	%edx, %eax
	movq	%rcx, -16(%rbp)
	movl	%eax, -8(%rbp)
	jmp	LBB8_1
LBB8_3:
	movb	-43(%rbp), %al
	movw	-42(%rbp), %cx
	.loc	12 2202 5 is_stmt 1
	movw	%cx, -24(%rbp)
	movb	%al, -22(%rbp)
Ltmp66:
	leaq	-24(%rbp), %rdi
	movl	$1, %esi
	callq	__ZN3std2fs10DirBuilder9recursive17hfec34490388f79b4E
Ltmp67:
	movq	%rax, -56(%rbp)
	jmp	LBB8_4
LBB8_4:
Ltmp68:
	.loc	12 0 5 is_stmt 0
	leaq	-40(%rbp), %rdi
	.loc	12 2202 46
	callq	__ZN55_$LT$$RF$T$u20$as$u20$core..convert..AsRef$LT$U$GT$$GT$6as_ref17heeeca63e2339649dE
Ltmp69:
	movq	%rdx, -72(%rbp)
	movq	%rax, -64(%rbp)
	jmp	LBB8_5
LBB8_5:
Ltmp70:
	.loc	12 0 46
	movq	-72(%rbp), %rdx
	movq	-64(%rbp), %rsi
	movq	-56(%rbp), %rdi
	.loc	12 2202 5
	callq	__ZN3std2fs10DirBuilder6create17ha90af0f933cbbd37E
Ltmp71:
	movq	%rax, -80(%rbp)
	jmp	LBB8_6
LBB8_6:
	.loc	12 0 5
	movq	-80(%rbp), %rax
	.loc	12 2203 2 is_stmt 1
	addq	$80, %rsp
	popq	%rbp
	retq
Ltmp74:
Lfunc_end8:
	.cfi_endproc
	.section	__TEXT,__gcc_except_tab
	.p2align	2
GCC_except_table8:
Lexception2:
	.byte	255
	.byte	255
	.byte	1
	.uleb128 Lcst_end2-Lcst_begin2
Lcst_begin2:
	.uleb128 Ltmp64-Lfunc_begin8
	.uleb128 Ltmp65-Ltmp64
	.uleb128 Ltmp72-Lfunc_begin8
	.byte	0
	.uleb128 Ltmp65-Lfunc_begin8
	.uleb128 Ltmp66-Ltmp65
	.byte	0
	.byte	0
	.uleb128 Ltmp66-Lfunc_begin8
	.uleb128 Ltmp71-Ltmp66
	.uleb128 Ltmp72-Lfunc_begin8
	.byte	0
Lcst_end2:
	.p2align	2

	.section	__TEXT,__text,regular,pure_instructions
	.p2align	4, 0x90
__ZN3std2fs14remove_dir_all17hf9ff01ee673a6674E:
Lfunc_begin9:
	.loc	12 2279 0
	.cfi_startproc
	.cfi_personality 155, _rust_eh_personality
	.cfi_lsda 16, Lexception3
	pushq	%rbp
	.cfi_def_cfa_offset 16
	.cfi_offset %rbp, -16
	movq	%rsp, %rbp
	.cfi_def_cfa_register %rbp
	subq	$64, %rsp
	movq	%rdi, -32(%rbp)
	movq	%rsi, -24(%rbp)
Ltmp75:
	leaq	-32(%rbp), %rdi
Ltmp80:
	.loc	12 2280 28 prologue_end
	callq	__ZN55_$LT$$RF$T$u20$as$u20$core..convert..AsRef$LT$U$GT$$GT$6as_ref17heeeca63e2339649dE
Ltmp76:
	movq	%rdx, -48(%rbp)
	movq	%rax, -40(%rbp)
	jmp	LBB9_3
LBB9_1:
	.loc	12 2279 1
	movq	-16(%rbp), %rdi
	callq	__Unwind_Resume
LBB9_2:
Ltmp79:
	.loc	12 0 1 is_stmt 0
	movq	%rax, %rcx
	movl	%edx, %eax
	movq	%rcx, -16(%rbp)
	movl	%eax, -8(%rbp)
	jmp	LBB9_1
LBB9_3:
Ltmp77:
	movq	-48(%rbp), %rsi
	movq	-40(%rbp), %rdi
	.loc	12 2280 5 is_stmt 1
	callq	__ZN3std3sys4unix2fs15remove_dir_impl14remove_dir_all17hfb0ac08457f049b2E
Ltmp78:
	movq	%rax, -56(%rbp)
	jmp	LBB9_4
LBB9_4:
	.loc	12 0 5 is_stmt 0
	movq	-56(%rbp), %rax
	.loc	12 2281 2 is_stmt 1
	addq	$64, %rsp
	popq	%rbp
	retq
Ltmp81:
Lfunc_end9:
	.cfi_endproc
	.section	__TEXT,__gcc_except_tab
	.p2align	2
GCC_except_table9:
Lexception3:
	.byte	255
	.byte	255
	.byte	1
	.uleb128 Lcst_end3-Lcst_begin3
Lcst_begin3:
	.uleb128 Ltmp75-Lfunc_begin9
	.uleb128 Ltmp76-Ltmp75
	.uleb128 Ltmp79-Lfunc_begin9
	.byte	0
	.uleb128 Ltmp76-Lfunc_begin9
	.uleb128 Ltmp77-Ltmp76
	.byte	0
	.byte	0
	.uleb128 Ltmp77-Lfunc_begin9
	.uleb128 Ltmp78-Ltmp77
	.uleb128 Ltmp79-Lfunc_begin9
	.byte	0
Lcst_end3:
	.p2align	2

	.section	__TEXT,__text,regular,pure_instructions
	.p2align	4, 0x90
__ZN3std2fs4File6create17hc52240201f74b3f9E:
Lfunc_begin10:
	.loc	12 378 0
	.cfi_startproc
	.cfi_personality 155, _rust_eh_personality
	.cfi_lsda 16, Lexception4
	pushq	%rbp
	.cfi_def_cfa_offset 16
	.cfi_offset %rbp, -16
	movq	%rsp, %rbp
	.cfi_def_cfa_register %rbp
	subq	$112, %rsp
	movq	%rdi, -64(%rbp)
	movq	%rdi, -56(%rbp)
	movq	%rsi, -48(%rbp)
	movq	%rdx, -40(%rbp)
Ltmp82:
	leaq	-32(%rbp), %rdi
Ltmp95:
	.loc	12 379 9 prologue_end
	callq	__ZN3std2fs11OpenOptions3new17hb715257bf3b1044cE
Ltmp83:
	jmp	LBB10_3
LBB10_1:
	.loc	12 378 5
	movq	-16(%rbp), %rdi
	callq	__Unwind_Resume
LBB10_2:
Ltmp94:
	.loc	12 0 5 is_stmt 0
	movq	%rax, %rcx
	movl	%edx, %eax
	movq	%rcx, -16(%rbp)
	movl	%eax, -8(%rbp)
	jmp	LBB10_1
LBB10_3:
Ltmp84:
	leaq	-32(%rbp), %rdi
	movl	$1, %esi
	.loc	12 379 9 is_stmt 1
	callq	__ZN3std2fs11OpenOptions5write17h6a5db1940a04f260E
Ltmp85:
	movq	%rax, -72(%rbp)
	jmp	LBB10_4
LBB10_4:
Ltmp86:
	.loc	12 0 9 is_stmt 0
	movq	-72(%rbp), %rdi
	movl	$1, %esi
	.loc	12 379 9
	callq	__ZN3std2fs11OpenOptions6create17h89a170d7d8fa2f7cE
Ltmp87:
	movq	%rax, -80(%rbp)
	jmp	LBB10_5
LBB10_5:
Ltmp88:
	.loc	12 0 9
	movq	-80(%rbp), %rdi
	movl	$1, %esi
	.loc	12 379 9
	callq	__ZN3std2fs11OpenOptions8truncate17h89eab471baa57fc5E
Ltmp89:
	movq	%rax, -88(%rbp)
	jmp	LBB10_6
LBB10_6:
Ltmp90:
	.loc	12 0 9
	leaq	-48(%rbp), %rdi
	.loc	12 379 73
	callq	__ZN55_$LT$$RF$T$u20$as$u20$core..convert..AsRef$LT$U$GT$$GT$6as_ref17heeeca63e2339649dE
Ltmp91:
	movq	%rdx, -104(%rbp)
	movq	%rax, -96(%rbp)
	jmp	LBB10_7
LBB10_7:
Ltmp92:
	.loc	12 0 73
	movq	-104(%rbp), %rcx
	movq	-96(%rbp), %rdx
	movq	-88(%rbp), %rsi
	movq	-64(%rbp), %rdi
	.loc	12 379 9
	callq	__ZN3std2fs11OpenOptions4open17h559e9b4bda919e34E
Ltmp93:
	jmp	LBB10_8
LBB10_8:
	.loc	12 0 9
	movq	-56(%rbp), %rax
	.loc	12 380 6 is_stmt 1
	addq	$112, %rsp
	popq	%rbp
	retq
Ltmp96:
Lfunc_end10:
	.cfi_endproc
	.section	__TEXT,__gcc_except_tab
	.p2align	2
GCC_except_table10:
Lexception4:
	.byte	255
	.byte	255
	.byte	1
	.uleb128 Lcst_end4-Lcst_begin4
Lcst_begin4:
	.uleb128 Ltmp82-Lfunc_begin10
	.uleb128 Ltmp83-Ltmp82
	.uleb128 Ltmp94-Lfunc_begin10
	.byte	0
	.uleb128 Ltmp83-Lfunc_begin10
	.uleb128 Ltmp84-Ltmp83
	.byte	0
	.byte	0
	.uleb128 Ltmp84-Lfunc_begin10
	.uleb128 Ltmp93-Ltmp84
	.uleb128 Ltmp94-Lfunc_begin10
	.byte	0
Lcst_end4:
	.p2align	2

	.section	__TEXT,__text,regular,pure_instructions
	.p2align	4, 0x90
__ZN3std2fs8Metadata17h1fed41c5b2f914f7E:
Lfunc_begin11:
	.loc	12 110 0
	.cfi_startproc
	pushq	%rbp
	.cfi_def_cfa_offset 16
	.cfi_offset %rbp, -16
	movq	%rsp, %rbp
	.cfi_def_cfa_register %rbp
	subq	$16, %rsp
	movq	%rdi, %rax
	movq	%rax, -8(%rbp)
Ltmp97:
	.loc	12 110 1 prologue_end
	movl	$144, %edx
	callq	_memcpy
Ltmp98:
	.loc	12 0 1 is_stmt 0
	movq	-8(%rbp), %rax
	.loc	12 110 1
	addq	$16, %rsp
	popq	%rbp
	retq
Ltmp99:
Lfunc_end11:
	.cfi_endproc

	.p2align	4, 0x90
__ZN3std2fs8metadata17ha010425ea9857686E:
Lfunc_begin12:
	.loc	12 1828 0 is_stmt 1
	.cfi_startproc
	.cfi_personality 155, _rust_eh_personality
	.cfi_lsda 16, Lexception5
	pushq	%rbp
	.cfi_def_cfa_offset 16
	.cfi_offset %rbp, -16
	movq	%rsp, %rbp
	.cfi_def_cfa_register %rbp
	subq	$224, %rsp
	movq	%rdi, -216(%rbp)
	movq	%rdi, -208(%rbp)
	movq	%rsi, -184(%rbp)
	movq	%rdx, -176(%rbp)
Ltmp100:
	leaq	-184(%rbp), %rdi
Ltmp107:
	.loc	12 1829 18 prologue_end
	callq	__ZN55_$LT$$RF$T$u20$as$u20$core..convert..AsRef$LT$U$GT$$GT$6as_ref17heeeca63e2339649dE
Ltmp101:
	movq	%rdx, -200(%rbp)
	movq	%rax, -192(%rbp)
	jmp	LBB12_3
LBB12_1:
	.loc	12 1828 1
	movq	-16(%rbp), %rdi
	callq	__Unwind_Resume
LBB12_2:
Ltmp106:
	.loc	12 0 1 is_stmt 0
	movq	%rax, %rcx
	movl	%edx, %eax
	movq	%rcx, -16(%rbp)
	movl	%eax, -8(%rbp)
	jmp	LBB12_1
LBB12_3:
Ltmp102:
	movq	-200(%rbp), %rdx
	movq	-192(%rbp), %rsi
	leaq	-168(%rbp), %rdi
	.loc	12 1829 5 is_stmt 1
	callq	__ZN3std3sys4unix2fs4stat17h9d8d62844b0f1aa1E
Ltmp103:
	jmp	LBB12_4
LBB12_4:
Ltmp104:
	.loc	12 0 5 is_stmt 0
	movq	-216(%rbp), %rdi
	leaq	-168(%rbp), %rsi
	.loc	12 1829 5
	callq	__ZN4core6result19Result$LT$T$C$E$GT$3map17h09936036eaace51bE
Ltmp105:
	jmp	LBB12_5
LBB12_5:
	.loc	12 0 5
	movq	-208(%rbp), %rax
	.loc	12 1830 2 is_stmt 1
	addq	$224, %rsp
	popq	%rbp
	retq
Ltmp108:
Lfunc_end12:
	.cfi_endproc
	.section	__TEXT,__gcc_except_tab
	.p2align	2
GCC_except_table12:
Lexception5:
	.byte	255
	.byte	255
	.byte	1
	.uleb128 Lcst_end5-Lcst_begin5
Lcst_begin5:
	.uleb128 Ltmp100-Lfunc_begin12
	.uleb128 Ltmp101-Ltmp100
	.uleb128 Ltmp106-Lfunc_begin12
	.byte	0
	.uleb128 Ltmp101-Lfunc_begin12
	.uleb128 Ltmp102-Ltmp101
	.byte	0
	.byte	0
	.uleb128 Ltmp102-Lfunc_begin12
	.uleb128 Ltmp105-Ltmp102
	.uleb128 Ltmp106-Lfunc_begin12
	.byte	0
Lcst_end5:
	.p2align	2

	.section	__TEXT,__text,regular,pure_instructions
	.p2align	4, 0x90
__ZN3std2io5Write9write_all17hd5b8f4d082d2e6a6E:
Lfunc_begin13:
	.file	13 "/rustc/2c8cc343237b8f7d5a3c3703e3a87f2eb2c54a74/library/std/src/io" "mod.rs"
	.loc	13 1540 0
	.cfi_startproc
	.cfi_personality 155, _rust_eh_personality
	.cfi_lsda 16, Lexception6
	pushq	%rbp
	.cfi_def_cfa_offset 16
	.cfi_offset %rbp, -16
	movq	%rsp, %rbp
	.cfi_def_cfa_register %rbp
	subq	$256, %rsp
	movq	%rdi, -232(%rbp)
	movq	%rsi, -224(%rbp)
	movq	%rdx, -216(%rbp)
	movq	%rdi, -136(%rbp)
LBB13_1:
Ltmp117:
	.loc	13 1541 16 prologue_end
	movq	-224(%rbp), %rcx
	movq	-216(%rbp), %rax
	movq	%rcx, -128(%rbp)
	movq	%rax, -120(%rbp)
Ltmp118:
	.file	14 "/rustc/2c8cc343237b8f7d5a3c3703e3a87f2eb2c54a74/library/core/src/slice" "mod.rs"
	.loc	14 153 9
	cmpq	$0, %rax
	sete	%al
Ltmp119:
	.loc	13 1541 15
	xorb	$-1, %al
	testb	$1, %al
	jne	LBB13_3
	.loc	13 1554 9
	movq	$0, -208(%rbp)
	.loc	13 1555 6
	jmp	LBB13_23
LBB13_3:
	.loc	13 0 6 is_stmt 0
	movq	-232(%rbp), %rsi
	.loc	13 1542 30 is_stmt 1
	movq	-224(%rbp), %rdx
	movq	-216(%rbp), %rcx
	.loc	13 1542 19 is_stmt 0
	leaq	-200(%rbp), %rdi
	callq	__ZN48_$LT$std..fs..File$u20$as$u20$std..io..Write$GT$5write17hb66af813b1fcdc57E
	.loc	13 1542 13
	cmpq	$0, -200(%rbp)
	jne	LBB13_5
	cmpq	$0, -192(%rbp)
	je	LBB13_13
	jmp	LBB13_14
LBB13_5:
	.loc	13 1550 21 is_stmt 1
	leaq	-192(%rbp), %rax
	movq	%rax, -168(%rbp)
	leaq	-168(%rbp), %rax
	movq	%rax, -112(%rbp)
	.loc	13 1550 31 is_stmt 0
	movq	-168(%rbp), %rdi
Ltmp109:
	callq	__ZN3std2io5error5Error4kind17hdca089f4e3b14b35E
Ltmp110:
	movb	%al, -233(%rbp)
	jmp	LBB13_8
LBB13_6:
	.loc	13 1553 9 is_stmt 1
	cmpq	$1, -200(%rbp)
	je	LBB13_16
	jmp	LBB13_17
LBB13_7:
Ltmp113:
	.loc	13 0 9 is_stmt 0
	movq	%rax, %rcx
	movl	%edx, %eax
	movq	%rcx, -104(%rbp)
	movl	%eax, -96(%rbp)
	jmp	LBB13_6
LBB13_8:
	movb	-233(%rbp), %al
	.loc	13 1550 31 is_stmt 1
	movb	%al, -153(%rbp)
	leaq	-153(%rbp), %rax
	movq	%rax, -88(%rbp)
	.loc	13 1550 43 is_stmt 0
	leaq	l___unnamed_2(%rip), %rax
	movq	%rax, -80(%rbp)
Ltmp120:
	.file	15 "/rustc/2c8cc343237b8f7d5a3c3703e3a87f2eb2c54a74/library/std/src/io" "error.rs"
	.loc	15 165 45 is_stmt 1
	movzbl	-153(%rbp), %eax
	movq	%rax, -72(%rbp)
Ltmp121:
	.loc	15 165 45 is_stmt 0
	movzbl	l___unnamed_2(%rip), %ecx
	movq	%rcx, -64(%rbp)
Ltmp122:
	.loc	15 165 45
	cmpq	%rcx, %rax
Ltmp123:
	.loc	13 1550 31 is_stmt 1
	je	LBB13_10
	.loc	13 1551 21
	movq	-192(%rbp), %rax
	movq	%rax, -56(%rbp)
Ltmp124:
	.loc	13 1551 34 is_stmt 0
	movq	%rax, -208(%rbp)
Ltmp125:
	.file	16 "/Users/natalie/.cargo/registry/src/github.com-1ecc6299db9ec823/az-1.2.1" "build.rs"
	.loc	16 1 1 is_stmt 1
	jmp	LBB13_12
LBB13_10:
	.loc	13 1550 70
	jmp	LBB13_11
LBB13_11:
	.loc	13 1553 9
	cmpq	$1, -200(%rbp)
	je	LBB13_20
	jmp	LBB13_21
LBB13_12:
	.loc	13 1555 6
	jmp	LBB13_23
LBB13_13:
	.loc	13 1544 32
	leaq	l___unnamed_3(%rip), %rax
	movq	%rax, -24(%rbp)
Ltmp126:
	.loc	15 554 47
	leaq	l___unnamed_3(%rip), %rax
	movq	%rax, -16(%rbp)
Ltmp127:
	.file	17 "/rustc/2c8cc343237b8f7d5a3c3703e3a87f2eb2c54a74/library/std/src/io/error" "repr_bitpacked.rs"
	.loc	17 206 46
	leaq	l___unnamed_3(%rip), %rax
	movq	%rax, -8(%rbp)
Ltmp128:
	.loc	8 201 13
	leaq	l___unnamed_3(%rip), %rax
	movq	%rax, -144(%rbp)
Ltmp129:
	.loc	17 206 9
	movq	-144(%rbp), %rax
	movq	%rax, -152(%rbp)
Ltmp130:
	.loc	15 554 9
	movq	-152(%rbp), %rax
	movq	%rax, -184(%rbp)
Ltmp131:
	.loc	13 1544 28
	movq	-184(%rbp), %rax
	movq	%rax, -208(%rbp)
	.loc	16 1 1
	jmp	LBB13_12
LBB13_14:
	.loc	13 1549 20
	movq	-192(%rbp), %rax
	movq	%rax, -48(%rbp)
Ltmp132:
	.loc	13 1549 33 is_stmt 0
	movq	-224(%rbp), %rsi
	movq	-216(%rbp), %rdx
	movq	%rsi, -40(%rbp)
	movq	%rdx, -32(%rbp)
	.loc	13 1549 37
	movq	%rax, -176(%rbp)
Ltmp133:
	.loc	1 18 9 is_stmt 1
	movq	-176(%rbp), %rdi
Ltmp111:
	leaq	l___unnamed_4(%rip), %rcx
	callq	__ZN110_$LT$core..ops..range..RangeFrom$LT$usize$GT$$u20$as$u20$core..slice..index..SliceIndex$LT$$u5b$T$u5d$$GT$$GT$5index17h28f3476c01ee1675E
Ltmp112:
	movq	%rdx, -256(%rbp)
	movq	%rax, -248(%rbp)
	jmp	LBB13_15
Ltmp134:
LBB13_15:
	.loc	1 0 9 is_stmt 0
	movq	-256(%rbp), %rax
	movq	-248(%rbp), %rcx
	.loc	13 1549 26 is_stmt 1
	movq	%rcx, -224(%rbp)
	movq	%rax, -216(%rbp)
Ltmp135:
	.loc	13 1549 40 is_stmt 0
	jmp	LBB13_11
LBB13_16:
	.loc	13 1553 9 is_stmt 1
	movb	$1, %al
	testb	$1, %al
	jne	LBB13_18
	jmp	LBB13_17
LBB13_17:
	.loc	13 1540 5
	movq	-104(%rbp), %rdi
	callq	__Unwind_Resume
LBB13_18:
	.loc	13 1553 9
	leaq	-192(%rbp), %rdi
Ltmp114:
	callq	__ZN4core3ptr42drop_in_place$LT$std..io..error..Error$GT$17h2b6a895a2cf1b5b9E
Ltmp115:
	jmp	LBB13_17
LBB13_19:
Ltmp116:
	.loc	13 1540 5
	callq	__ZN4core9panicking19panic_cannot_unwind17h1fbca7e1d7f56ae1E
LBB13_20:
	.loc	13 1553 9
	movb	$1, %al
	testb	$1, %al
	jne	LBB13_22
	jmp	LBB13_21
LBB13_21:
	.loc	13 1541 9
	jmp	LBB13_1
LBB13_22:
	.loc	13 1553 9
	leaq	-200(%rbp), %rdi
	addq	$8, %rdi
	callq	__ZN4core3ptr42drop_in_place$LT$std..io..error..Error$GT$17h2b6a895a2cf1b5b9E
	jmp	LBB13_21
LBB13_23:
	.loc	13 1555 6
	movq	-208(%rbp), %rax
	addq	$256, %rsp
	popq	%rbp
	retq
Ltmp136:
Lfunc_end13:
	.cfi_endproc
	.section	__TEXT,__gcc_except_tab
	.p2align	2
GCC_except_table13:
Lexception6:
	.byte	255
	.byte	255
	.byte	1
	.uleb128 Lcst_end6-Lcst_begin6
Lcst_begin6:
	.uleb128 Lfunc_begin13-Lfunc_begin13
	.uleb128 Ltmp109-Lfunc_begin13
	.byte	0
	.byte	0
	.uleb128 Ltmp109-Lfunc_begin13
	.uleb128 Ltmp112-Ltmp109
	.uleb128 Ltmp113-Lfunc_begin13
	.byte	0
	.uleb128 Ltmp112-Lfunc_begin13
	.uleb128 Ltmp114-Ltmp112
	.byte	0
	.byte	0
	.uleb128 Ltmp114-Lfunc_begin13
	.uleb128 Ltmp115-Ltmp114
	.uleb128 Ltmp116-Lfunc_begin13
	.byte	0
	.uleb128 Ltmp115-Lfunc_begin13
	.uleb128 Lfunc_end13-Ltmp115
	.byte	0
	.byte	0
Lcst_end6:
	.p2align	2

	.section	__TEXT,__text,regular,pure_instructions
	.p2align	4, 0x90
__ZN3std2io5error14repr_bitpacked11decode_repr17h04cc543df063cc17E:
Lfunc_begin14:
	.loc	17 246 0
	.cfi_startproc
	.cfi_personality 155, _rust_eh_personality
	.cfi_lsda 16, Lexception7
	pushq	%rbp
	.cfi_def_cfa_offset 16
	.cfi_offset %rbp, -16
	movq	%rsp, %rbp
	.cfi_def_cfa_register %rbp
	subq	$320, %rsp
	movq	%rsi, -272(%rbp)
	movq	%rdi, -264(%rbp)
	movq	%rdi, -256(%rbp)
	movq	%rsi, -184(%rbp)
Ltmp146:
	.loc	17 250 9 prologue_end
	movb	$1, -201(%rbp)
	.loc	17 250 16 is_stmt 0
	movq	%rsi, -160(%rbp)
Ltmp147:
	.loc	8 326 9 is_stmt 1
	movq	%rsi, -152(%rbp)
Ltmp148:
	.file	18 "/rustc/2c8cc343237b8f7d5a3c3703e3a87f2eb2c54a74/library/core/src/ptr" "mut_ptr.rs"
	.loc	18 215 33
	movq	%rsi, -144(%rbp)
	.loc	18 215 18 is_stmt 0
	movq	%rsi, -248(%rbp)
Ltmp149:
	.loc	17 251 11 is_stmt 1
	movq	-248(%rbp), %rax
	andl	$3, %eax
	movq	%rax, -280(%rbp)
	.loc	17 251 5 is_stmt 0
	subq	$3, %rax
	ja	LBB14_2
	.loc	17 0 5
	movq	-280(%rbp), %rax
	leaq	LJTI14_0(%rip), %rcx
	movslq	(%rcx,%rax,4), %rax
	addq	%rcx, %rax
	jmpq	*%rax
LBB14_2:
Ltmp143:
	.loc	17 280 13 is_stmt 1
	leaq	l___unnamed_5(%rip), %rdi
	leaq	l___unnamed_6(%rip), %rdx
	movl	$40, %esi
	callq	__ZN4core9panicking5panic17hc1bc45270cf64b03E
Ltmp144:
	jmp	LBB14_9
LBB14_3:
	.loc	17 0 13 is_stmt 0
	movq	-264(%rbp), %rax
	.loc	17 253 26 is_stmt 1
	movq	-248(%rbp), %rcx
	.loc	17 253 24 is_stmt 0
	sarq	$32, %rcx
	movl	%ecx, -4(%rbp)
Ltmp150:
	.loc	17 254 13 is_stmt 1
	movl	%ecx, 4(%rax)
	movb	$0, (%rax)
Ltmp151:
	.loc	17 255 9
	jmp	LBB14_12
LBB14_4:
	.loc	17 257 30
	movl	-244(%rbp), %edi
	.loc	17 257 29 is_stmt 0
	movl	%edi, -12(%rbp)
Ltmp139:
Ltmp152:
	.loc	17 258 24 is_stmt 1
	callq	__ZN3std2io5error14repr_bitpacked14kind_from_prim17he94a8e2ac3c91540E
Ltmp140:
	movb	%al, -281(%rbp)
	jmp	LBB14_13
Ltmp153:
LBB14_5:
	.loc	17 0 24 is_stmt 0
	movq	-264(%rbp), %rax
	movq	-272(%rbp), %rcx
	.loc	17 270 58 is_stmt 1
	movq	%rcx, -40(%rbp)
Ltmp154:
	.loc	8 450 41
	movq	%rcx, -32(%rbp)
	movq	%rcx, -24(%rbp)
Ltmp155:
	.loc	8 201 13
	movq	%rcx, -224(%rbp)
Ltmp156:
	.loc	8 326 9
	movq	-224(%rbp), %rcx
Ltmp157:
	.loc	17 270 31
	movq	%rcx, 8(%rax)
	movb	$2, (%rax)
	.loc	17 270 94 is_stmt 0
	jmp	LBB14_12
LBB14_6:
	.loc	17 0 94
	movq	-272(%rbp), %rax
	.loc	17 275 26 is_stmt 1
	movq	%rax, -120(%rbp)
Ltmp158:
	.loc	8 326 9
	movq	%rax, -112(%rbp)
Ltmp159:
	.loc	18 1300 9
	movq	%rax, -104(%rbp)
Ltmp160:
	.loc	18 60 9
	movq	%rax, -96(%rbp)
Ltmp161:
	.loc	18 1282 9
	movq	%rax, -88(%rbp)
Ltmp162:
	.loc	18 568 18
	addq	$-1, %rax
	movq	%rax, -80(%rbp)
	movq	-80(%rbp), %rax
	movq	%rax, -296(%rbp)
	jmp	LBB14_10
Ltmp163:
LBB14_7:
	.loc	17 283 1
	testb	$1, -201(%rbp)
	jne	LBB14_19
	jmp	LBB14_18
LBB14_8:
Ltmp145:
	.loc	17 0 1 is_stmt 0
	movq	%rax, %rcx
	movl	%edx, %eax
	movq	%rcx, -136(%rbp)
	movl	%eax, -128(%rbp)
	jmp	LBB14_7
LBB14_9:
	ud2
LBB14_10:
	movq	-296(%rbp), %rax
Ltmp164:
	.loc	18 568 18 is_stmt 1
	movq	%rax, -72(%rbp)
Ltmp165:
	.loc	18 99 33
	movq	%rax, -64(%rbp)
Ltmp166:
	.loc	4 135 36
	movq	%rax, -192(%rbp)
	.loc	4 135 14 is_stmt 0
	movq	-192(%rbp), %rax
	movq	%rax, -200(%rbp)
	movq	-200(%rbp), %rax
	movq	%rax, -56(%rbp)
Ltmp167:
	.loc	18 60 9 is_stmt 1
	movq	%rax, -48(%rbp)
Ltmp168:
	.loc	17 276 31
	movb	$0, -201(%rbp)
	movq	%rax, -216(%rbp)
	movq	-216(%rbp), %rdi
Ltmp137:
	callq	__ZN78_$LT$std..io..error..repr_bitpacked..Repr$u20$as$u20$core..ops..drop..Drop$GT$4drop28_$u7b$$u7b$closure$u7d$$u7d$17he1ec531df4c4786eE
Ltmp138:
	movq	%rax, -304(%rbp)
	jmp	LBB14_11
LBB14_11:
	.loc	17 0 31 is_stmt 0
	movq	-264(%rbp), %rax
	movq	-304(%rbp), %rcx
	.loc	17 276 13
	movq	%rcx, 8(%rax)
	movb	$3, (%rax)
Ltmp169:
LBB14_12:
	.loc	17 283 1 is_stmt 1
	testb	$1, -201(%rbp)
	jne	LBB14_21
	jmp	LBB14_20
LBB14_13:
	.loc	17 0 1 is_stmt 0
	movb	-281(%rbp), %al
Ltmp170:
	.loc	17 258 24 is_stmt 1
	movb	%al, -233(%rbp)
	.loc	17 258 65 is_stmt 0
	leaq	-248(%rbp), %rax
	movq	%rax, -232(%rbp)
Ltmp171:
	.loc	7 871 15 is_stmt 1
	movl	$1, %eax
	xorl	%ecx, %ecx
	cmpb	$41, -233(%rbp)
	cmoveq	%rcx, %rax
	.loc	7 871 9 is_stmt 0
	cmpq	$0, %rax
	jne	LBB14_15
	.loc	7 873 21 is_stmt 1
	movq	-232(%rbp), %rdi
Ltmp141:
	callq	__ZN3std2io5error14repr_bitpacked11decode_repr28_$u7b$$u7b$closure$u7d$$u7d$17he99f0292e36631cbE
Ltmp142:
	movb	%al, -305(%rbp)
	jmp	LBB14_17
LBB14_15:
	.loc	7 872 18
	movb	-233(%rbp), %al
	movb	%al, -5(%rbp)
Ltmp172:
	.loc	7 872 24 is_stmt 0
	movb	%al, -234(%rbp)
Ltmp173:
LBB14_16:
	.loc	7 0 24
	movq	-264(%rbp), %rax
Ltmp174:
	.loc	17 268 31 is_stmt 1
	movb	-234(%rbp), %cl
	.loc	17 268 13 is_stmt 0
	movb	%cl, 1(%rax)
	movb	$1, (%rax)
Ltmp175:
	.loc	17 269 9 is_stmt 1
	jmp	LBB14_12
LBB14_17:
	.loc	17 0 9 is_stmt 0
	movb	-305(%rbp), %al
Ltmp176:
	.loc	7 873 21 is_stmt 1
	movb	%al, -234(%rbp)
	.loc	7 873 23 is_stmt 0
	jmp	LBB14_16
Ltmp177:
LBB14_18:
	.loc	17 246 1 is_stmt 1
	movq	-136(%rbp), %rdi
	callq	__Unwind_Resume
LBB14_19:
	.loc	17 283 1
	jmp	LBB14_18
LBB14_20:
	.loc	17 0 1 is_stmt 0
	movq	-256(%rbp), %rax
	.loc	17 283 2
	addq	$320, %rsp
	popq	%rbp
	retq
LBB14_21:
	.loc	17 283 1
	jmp	LBB14_20
Ltmp178:
Lfunc_end14:
	.cfi_endproc
	.p2align	2, 0x90
	.data_region jt32
.set L14_0_set_5, LBB14_5-LJTI14_0
.set L14_0_set_6, LBB14_6-LJTI14_0
.set L14_0_set_3, LBB14_3-LJTI14_0
.set L14_0_set_4, LBB14_4-LJTI14_0
LJTI14_0:
	.long	L14_0_set_5
	.long	L14_0_set_6
	.long	L14_0_set_3
	.long	L14_0_set_4
	.end_data_region
	.section	__TEXT,__gcc_except_tab
	.p2align	2
GCC_except_table14:
Lexception7:
	.byte	255
	.byte	255
	.byte	1
	.uleb128 Lcst_end7-Lcst_begin7
Lcst_begin7:
	.uleb128 Ltmp143-Lfunc_begin14
	.uleb128 Ltmp142-Ltmp143
	.uleb128 Ltmp145-Lfunc_begin14
	.byte	0
	.uleb128 Ltmp142-Lfunc_begin14
	.uleb128 Lfunc_end14-Ltmp142
	.byte	0
	.byte	0
Lcst_end7:
	.p2align	2

	.section	__TEXT,__text,regular,pure_instructions
	.p2align	4, 0x90
__ZN3std2io5error14repr_bitpacked11decode_repr17he607014ba38a1185E:
Lfunc_begin15:
	.loc	17 246 0 is_stmt 1
	.cfi_startproc
	.cfi_personality 155, _rust_eh_personality
	.cfi_lsda 16, Lexception8
	pushq	%rbp
	.cfi_def_cfa_offset 16
	.cfi_offset %rbp, -16
	movq	%rsp, %rbp
	.cfi_def_cfa_register %rbp
	subq	$320, %rsp
	movq	%rsi, -272(%rbp)
	movq	%rdi, -264(%rbp)
	movq	%rdi, -256(%rbp)
	movq	%rsi, -184(%rbp)
Ltmp188:
	.loc	17 250 9 prologue_end
	movb	$1, -201(%rbp)
	.loc	17 250 16 is_stmt 0
	movq	%rsi, -160(%rbp)
Ltmp189:
	.loc	8 326 9 is_stmt 1
	movq	%rsi, -152(%rbp)
Ltmp190:
	.loc	18 215 33
	movq	%rsi, -144(%rbp)
	.loc	18 215 18 is_stmt 0
	movq	%rsi, -248(%rbp)
Ltmp191:
	.loc	17 251 11 is_stmt 1
	movq	-248(%rbp), %rax
	andl	$3, %eax
	movq	%rax, -280(%rbp)
	.loc	17 251 5 is_stmt 0
	subq	$3, %rax
	ja	LBB15_2
	.loc	17 0 5
	movq	-280(%rbp), %rax
	leaq	LJTI15_0(%rip), %rcx
	movslq	(%rcx,%rax,4), %rax
	addq	%rcx, %rax
	jmpq	*%rax
LBB15_2:
Ltmp185:
	.loc	17 280 13 is_stmt 1
	leaq	l___unnamed_5(%rip), %rdi
	leaq	l___unnamed_6(%rip), %rdx
	movl	$40, %esi
	callq	__ZN4core9panicking5panic17hc1bc45270cf64b03E
Ltmp186:
	jmp	LBB15_9
LBB15_3:
	.loc	17 0 13 is_stmt 0
	movq	-264(%rbp), %rax
	.loc	17 253 26 is_stmt 1
	movq	-248(%rbp), %rcx
	.loc	17 253 24 is_stmt 0
	sarq	$32, %rcx
	movl	%ecx, -4(%rbp)
Ltmp192:
	.loc	17 254 13 is_stmt 1
	movl	%ecx, 4(%rax)
	movb	$0, (%rax)
Ltmp193:
	.loc	17 255 9
	jmp	LBB15_12
LBB15_4:
	.loc	17 257 30
	movl	-244(%rbp), %edi
	.loc	17 257 29 is_stmt 0
	movl	%edi, -12(%rbp)
Ltmp181:
Ltmp194:
	.loc	17 258 24 is_stmt 1
	callq	__ZN3std2io5error14repr_bitpacked14kind_from_prim17he94a8e2ac3c91540E
Ltmp182:
	movb	%al, -281(%rbp)
	jmp	LBB15_13
Ltmp195:
LBB15_5:
	.loc	17 0 24 is_stmt 0
	movq	-264(%rbp), %rax
	movq	-272(%rbp), %rcx
	.loc	17 270 58 is_stmt 1
	movq	%rcx, -40(%rbp)
Ltmp196:
	.loc	8 450 41
	movq	%rcx, -32(%rbp)
	movq	%rcx, -24(%rbp)
Ltmp197:
	.loc	8 201 13
	movq	%rcx, -224(%rbp)
Ltmp198:
	.loc	8 326 9
	movq	-224(%rbp), %rcx
Ltmp199:
	.loc	17 270 31
	movq	%rcx, 8(%rax)
	movb	$2, (%rax)
	.loc	17 270 94 is_stmt 0
	jmp	LBB15_12
LBB15_6:
	.loc	17 0 94
	movq	-272(%rbp), %rax
	.loc	17 275 26 is_stmt 1
	movq	%rax, -120(%rbp)
Ltmp200:
	.loc	8 326 9
	movq	%rax, -112(%rbp)
Ltmp201:
	.loc	18 1300 9
	movq	%rax, -104(%rbp)
Ltmp202:
	.loc	18 60 9
	movq	%rax, -96(%rbp)
Ltmp203:
	.loc	18 1282 9
	movq	%rax, -88(%rbp)
Ltmp204:
	.loc	18 568 18
	addq	$-1, %rax
	movq	%rax, -80(%rbp)
	movq	-80(%rbp), %rax
	movq	%rax, -296(%rbp)
	jmp	LBB15_10
Ltmp205:
LBB15_7:
	.loc	17 283 1
	testb	$1, -201(%rbp)
	jne	LBB15_19
	jmp	LBB15_18
LBB15_8:
Ltmp187:
	.loc	17 0 1 is_stmt 0
	movq	%rax, %rcx
	movl	%edx, %eax
	movq	%rcx, -136(%rbp)
	movl	%eax, -128(%rbp)
	jmp	LBB15_7
LBB15_9:
	ud2
LBB15_10:
	movq	-296(%rbp), %rax
Ltmp206:
	.loc	18 568 18 is_stmt 1
	movq	%rax, -72(%rbp)
Ltmp207:
	.loc	18 99 33
	movq	%rax, -64(%rbp)
Ltmp208:
	.loc	4 135 36
	movq	%rax, -192(%rbp)
	.loc	4 135 14 is_stmt 0
	movq	-192(%rbp), %rax
	movq	%rax, -200(%rbp)
	movq	-200(%rbp), %rax
	movq	%rax, -56(%rbp)
Ltmp209:
	.loc	18 60 9 is_stmt 1
	movq	%rax, -48(%rbp)
Ltmp210:
	.loc	17 276 31
	movb	$0, -201(%rbp)
	movq	%rax, -216(%rbp)
	movq	-216(%rbp), %rdi
Ltmp179:
	callq	__ZN3std2io5error14repr_bitpacked4Repr4data28_$u7b$$u7b$closure$u7d$$u7d$17h148fb600e8f08e7fE
Ltmp180:
	movq	%rax, -304(%rbp)
	jmp	LBB15_11
LBB15_11:
	.loc	17 0 31 is_stmt 0
	movq	-264(%rbp), %rax
	movq	-304(%rbp), %rcx
	.loc	17 276 13
	movq	%rcx, 8(%rax)
	movb	$3, (%rax)
Ltmp211:
LBB15_12:
	.loc	17 283 1 is_stmt 1
	testb	$1, -201(%rbp)
	jne	LBB15_21
	jmp	LBB15_20
LBB15_13:
	.loc	17 0 1 is_stmt 0
	movb	-281(%rbp), %al
Ltmp212:
	.loc	17 258 24 is_stmt 1
	movb	%al, -233(%rbp)
	.loc	17 258 65 is_stmt 0
	leaq	-248(%rbp), %rax
	movq	%rax, -232(%rbp)
Ltmp213:
	.loc	7 871 15 is_stmt 1
	movl	$1, %eax
	xorl	%ecx, %ecx
	cmpb	$41, -233(%rbp)
	cmoveq	%rcx, %rax
	.loc	7 871 9 is_stmt 0
	cmpq	$0, %rax
	jne	LBB15_15
	.loc	7 873 21 is_stmt 1
	movq	-232(%rbp), %rdi
Ltmp183:
	callq	__ZN3std2io5error14repr_bitpacked11decode_repr28_$u7b$$u7b$closure$u7d$$u7d$17hd9f7309480c32e30E
Ltmp184:
	movb	%al, -305(%rbp)
	jmp	LBB15_17
LBB15_15:
	.loc	7 872 18
	movb	-233(%rbp), %al
	movb	%al, -5(%rbp)
Ltmp214:
	.loc	7 872 24 is_stmt 0
	movb	%al, -234(%rbp)
Ltmp215:
LBB15_16:
	.loc	7 0 24
	movq	-264(%rbp), %rax
Ltmp216:
	.loc	17 268 31 is_stmt 1
	movb	-234(%rbp), %cl
	.loc	17 268 13 is_stmt 0
	movb	%cl, 1(%rax)
	movb	$1, (%rax)
Ltmp217:
	.loc	17 269 9 is_stmt 1
	jmp	LBB15_12
LBB15_17:
	.loc	17 0 9 is_stmt 0
	movb	-305(%rbp), %al
Ltmp218:
	.loc	7 873 21 is_stmt 1
	movb	%al, -234(%rbp)
	.loc	7 873 23 is_stmt 0
	jmp	LBB15_16
Ltmp219:
LBB15_18:
	.loc	17 246 1 is_stmt 1
	movq	-136(%rbp), %rdi
	callq	__Unwind_Resume
LBB15_19:
	.loc	17 283 1
	jmp	LBB15_18
LBB15_20:
	.loc	17 0 1 is_stmt 0
	movq	-256(%rbp), %rax
	.loc	17 283 2
	addq	$320, %rsp
	popq	%rbp
	retq
LBB15_21:
	.loc	17 283 1
	jmp	LBB15_20
Ltmp220:
Lfunc_end15:
	.cfi_endproc
	.p2align	2, 0x90
	.data_region jt32
.set L15_0_set_5, LBB15_5-LJTI15_0
.set L15_0_set_6, LBB15_6-LJTI15_0
.set L15_0_set_3, LBB15_3-LJTI15_0
.set L15_0_set_4, LBB15_4-LJTI15_0
LJTI15_0:
	.long	L15_0_set_5
	.long	L15_0_set_6
	.long	L15_0_set_3
	.long	L15_0_set_4
	.end_data_region
	.section	__TEXT,__gcc_except_tab
	.p2align	2
GCC_except_table15:
Lexception8:
	.byte	255
	.byte	255
	.byte	1
	.uleb128 Lcst_end8-Lcst_begin8
Lcst_begin8:
	.uleb128 Ltmp185-Lfunc_begin15
	.uleb128 Ltmp184-Ltmp185
	.uleb128 Ltmp187-Lfunc_begin15
	.byte	0
	.uleb128 Ltmp184-Lfunc_begin15
	.uleb128 Lfunc_end15-Ltmp184
	.byte	0
	.byte	0
Lcst_end8:
	.p2align	2

	.section	__TEXT,__text,regular,pure_instructions
	.p2align	4, 0x90
__ZN3std2io5error14repr_bitpacked11decode_repr28_$u7b$$u7b$closure$u7d$$u7d$17hd9f7309480c32e30E:
Lfunc_begin16:
	.loc	17 258 0 is_stmt 1
	.cfi_startproc
	pushq	%rbp
	.cfi_def_cfa_offset 16
	.cfi_offset %rbp, -16
	movq	%rsp, %rbp
	.cfi_def_cfa_register %rbp
	subq	$16, %rsp
	movq	%rdi, -16(%rbp)
Ltmp221:
	.loc	17 266 17 prologue_end
	callq	__ZN4core4hint21unreachable_unchecked17h2512972abae891aeE
Ltmp222:
Lfunc_end16:
	.cfi_endproc

	.p2align	4, 0x90
__ZN3std2io5error14repr_bitpacked11decode_repr28_$u7b$$u7b$closure$u7d$$u7d$17he99f0292e36631cbE:
Lfunc_begin17:
	.loc	17 258 0
	.cfi_startproc
	pushq	%rbp
	.cfi_def_cfa_offset 16
	.cfi_offset %rbp, -16
	movq	%rsp, %rbp
	.cfi_def_cfa_register %rbp
	subq	$16, %rsp
	movq	%rdi, -16(%rbp)
Ltmp223:
	.loc	17 266 17 prologue_end
	callq	__ZN4core4hint21unreachable_unchecked17h2512972abae891aeE
Ltmp224:
Lfunc_end17:
	.cfi_endproc

	.p2align	4, 0x90
__ZN3std2io5error14repr_bitpacked14kind_from_prim17he94a8e2ac3c91540E:
Lfunc_begin18:
	.loc	17 289 0
	.cfi_startproc
	pushq	%rbp
	.cfi_def_cfa_offset 16
	.cfi_offset %rbp, -16
	movq	%rsp, %rbp
	.cfi_def_cfa_register %rbp
	subq	$336, %rsp
	movl	%edi, -336(%rbp)
Ltmp225:
	.loc	17 302 5 prologue_end
	leaq	-336(%rbp), %rax
	movq	%rax, -328(%rbp)
	cmpl	$0, -336(%rbp)
	je	LBB18_2
	leaq	-336(%rbp), %rax
	movq	%rax, -320(%rbp)
	cmpl	$1, -336(%rbp)
	je	LBB18_5
	jmp	LBB18_4
LBB18_2:
Ltmp226:
	.loc	17 302 5 is_stmt 0
	movb	$0, -329(%rbp)
Ltmp227:
LBB18_3:
	.loc	17 345 2 is_stmt 1
	movb	-329(%rbp), %al
	addq	$336, %rsp
	popq	%rbp
	retq
LBB18_4:
	.loc	17 302 5
	leaq	-336(%rbp), %rax
	movq	%rax, -312(%rbp)
	cmpl	$2, -336(%rbp)
	je	LBB18_7
	jmp	LBB18_6
LBB18_5:
Ltmp228:
	.loc	17 302 5 is_stmt 0
	movb	$1, -329(%rbp)
Ltmp229:
	.loc	17 302 5
	jmp	LBB18_3
LBB18_6:
	leaq	-336(%rbp), %rax
	movq	%rax, -304(%rbp)
	cmpl	$3, -336(%rbp)
	je	LBB18_9
	jmp	LBB18_8
LBB18_7:
Ltmp230:
	.loc	17 302 5
	movb	$2, -329(%rbp)
Ltmp231:
	.loc	17 302 5
	jmp	LBB18_3
LBB18_8:
	leaq	-336(%rbp), %rax
	movq	%rax, -296(%rbp)
	cmpl	$4, -336(%rbp)
	je	LBB18_11
	jmp	LBB18_10
LBB18_9:
Ltmp232:
	.loc	17 302 5
	movb	$3, -329(%rbp)
Ltmp233:
	.loc	17 302 5
	jmp	LBB18_3
LBB18_10:
	leaq	-336(%rbp), %rax
	movq	%rax, -288(%rbp)
	cmpl	$5, -336(%rbp)
	je	LBB18_13
	jmp	LBB18_12
LBB18_11:
Ltmp234:
	.loc	17 302 5
	movb	$4, -329(%rbp)
Ltmp235:
	.loc	17 302 5
	jmp	LBB18_3
LBB18_12:
	leaq	-336(%rbp), %rax
	movq	%rax, -280(%rbp)
	cmpl	$6, -336(%rbp)
	je	LBB18_15
	jmp	LBB18_14
LBB18_13:
Ltmp236:
	.loc	17 302 5
	movb	$5, -329(%rbp)
Ltmp237:
	.loc	17 302 5
	jmp	LBB18_3
LBB18_14:
	leaq	-336(%rbp), %rax
	movq	%rax, -272(%rbp)
	cmpl	$7, -336(%rbp)
	je	LBB18_17
	jmp	LBB18_16
LBB18_15:
Ltmp238:
	.loc	17 302 5
	movb	$6, -329(%rbp)
Ltmp239:
	.loc	17 302 5
	jmp	LBB18_3
LBB18_16:
	leaq	-336(%rbp), %rax
	movq	%rax, -264(%rbp)
	cmpl	$8, -336(%rbp)
	je	LBB18_19
	jmp	LBB18_18
LBB18_17:
Ltmp240:
	.loc	17 302 5
	movb	$7, -329(%rbp)
Ltmp241:
	.loc	17 302 5
	jmp	LBB18_3
LBB18_18:
	leaq	-336(%rbp), %rax
	movq	%rax, -256(%rbp)
	cmpl	$9, -336(%rbp)
	je	LBB18_21
	jmp	LBB18_20
LBB18_19:
Ltmp242:
	.loc	17 302 5
	movb	$8, -329(%rbp)
Ltmp243:
	.loc	17 302 5
	jmp	LBB18_3
LBB18_20:
	leaq	-336(%rbp), %rax
	movq	%rax, -248(%rbp)
	cmpl	$10, -336(%rbp)
	je	LBB18_23
	jmp	LBB18_22
LBB18_21:
Ltmp244:
	.loc	17 302 5
	movb	$9, -329(%rbp)
Ltmp245:
	.loc	17 302 5
	jmp	LBB18_3
LBB18_22:
	leaq	-336(%rbp), %rax
	movq	%rax, -240(%rbp)
	cmpl	$11, -336(%rbp)
	je	LBB18_25
	jmp	LBB18_24
LBB18_23:
Ltmp246:
	.loc	17 302 5
	movb	$10, -329(%rbp)
Ltmp247:
	.loc	17 302 5
	jmp	LBB18_3
LBB18_24:
	leaq	-336(%rbp), %rax
	movq	%rax, -232(%rbp)
	cmpl	$12, -336(%rbp)
	je	LBB18_27
	jmp	LBB18_26
LBB18_25:
Ltmp248:
	.loc	17 302 5
	movb	$11, -329(%rbp)
Ltmp249:
	.loc	17 302 5
	jmp	LBB18_3
LBB18_26:
	leaq	-336(%rbp), %rax
	movq	%rax, -224(%rbp)
	cmpl	$13, -336(%rbp)
	je	LBB18_29
	jmp	LBB18_28
LBB18_27:
Ltmp250:
	.loc	17 302 5
	movb	$12, -329(%rbp)
Ltmp251:
	.loc	17 302 5
	jmp	LBB18_3
LBB18_28:
	leaq	-336(%rbp), %rax
	movq	%rax, -216(%rbp)
	cmpl	$14, -336(%rbp)
	je	LBB18_31
	jmp	LBB18_30
LBB18_29:
Ltmp252:
	.loc	17 302 5
	movb	$13, -329(%rbp)
Ltmp253:
	.loc	17 302 5
	jmp	LBB18_3
LBB18_30:
	leaq	-336(%rbp), %rax
	movq	%rax, -208(%rbp)
	cmpl	$15, -336(%rbp)
	je	LBB18_33
	jmp	LBB18_32
LBB18_31:
Ltmp254:
	.loc	17 302 5
	movb	$14, -329(%rbp)
Ltmp255:
	.loc	17 302 5
	jmp	LBB18_3
LBB18_32:
	leaq	-336(%rbp), %rax
	movq	%rax, -200(%rbp)
	cmpl	$16, -336(%rbp)
	je	LBB18_35
	jmp	LBB18_34
LBB18_33:
Ltmp256:
	.loc	17 302 5
	movb	$15, -329(%rbp)
Ltmp257:
	.loc	17 302 5
	jmp	LBB18_3
LBB18_34:
	leaq	-336(%rbp), %rax
	movq	%rax, -192(%rbp)
	cmpl	$17, -336(%rbp)
	je	LBB18_37
	jmp	LBB18_36
LBB18_35:
Ltmp258:
	.loc	17 302 5
	movb	$16, -329(%rbp)
Ltmp259:
	.loc	17 302 5
	jmp	LBB18_3
LBB18_36:
	leaq	-336(%rbp), %rax
	movq	%rax, -184(%rbp)
	cmpl	$18, -336(%rbp)
	je	LBB18_39
	jmp	LBB18_38
LBB18_37:
Ltmp260:
	.loc	17 302 5
	movb	$17, -329(%rbp)
Ltmp261:
	.loc	17 302 5
	jmp	LBB18_3
LBB18_38:
	leaq	-336(%rbp), %rax
	movq	%rax, -176(%rbp)
	cmpl	$19, -336(%rbp)
	je	LBB18_41
	jmp	LBB18_40
LBB18_39:
Ltmp262:
	.loc	17 302 5
	movb	$18, -329(%rbp)
Ltmp263:
	.loc	17 302 5
	jmp	LBB18_3
LBB18_40:
	leaq	-336(%rbp), %rax
	movq	%rax, -168(%rbp)
	cmpl	$20, -336(%rbp)
	je	LBB18_43
	jmp	LBB18_42
LBB18_41:
Ltmp264:
	.loc	17 302 5
	movb	$19, -329(%rbp)
Ltmp265:
	.loc	17 302 5
	jmp	LBB18_3
LBB18_42:
	leaq	-336(%rbp), %rax
	movq	%rax, -160(%rbp)
	cmpl	$21, -336(%rbp)
	je	LBB18_45
	jmp	LBB18_44
LBB18_43:
Ltmp266:
	.loc	17 302 5
	movb	$20, -329(%rbp)
Ltmp267:
	.loc	17 302 5
	jmp	LBB18_3
LBB18_44:
	leaq	-336(%rbp), %rax
	movq	%rax, -152(%rbp)
	cmpl	$22, -336(%rbp)
	je	LBB18_47
	jmp	LBB18_46
LBB18_45:
Ltmp268:
	.loc	17 302 5
	movb	$21, -329(%rbp)
Ltmp269:
	.loc	17 302 5
	jmp	LBB18_3
LBB18_46:
	leaq	-336(%rbp), %rax
	movq	%rax, -144(%rbp)
	cmpl	$23, -336(%rbp)
	je	LBB18_49
	jmp	LBB18_48
LBB18_47:
Ltmp270:
	.loc	17 302 5
	movb	$22, -329(%rbp)
Ltmp271:
	.loc	17 302 5
	jmp	LBB18_3
LBB18_48:
	leaq	-336(%rbp), %rax
	movq	%rax, -136(%rbp)
	cmpl	$24, -336(%rbp)
	je	LBB18_51
	jmp	LBB18_50
LBB18_49:
Ltmp272:
	.loc	17 302 5
	movb	$23, -329(%rbp)
Ltmp273:
	.loc	17 302 5
	jmp	LBB18_3
LBB18_50:
	leaq	-336(%rbp), %rax
	movq	%rax, -128(%rbp)
	cmpl	$25, -336(%rbp)
	je	LBB18_53
	jmp	LBB18_52
LBB18_51:
Ltmp274:
	.loc	17 302 5
	movb	$24, -329(%rbp)
Ltmp275:
	.loc	17 302 5
	jmp	LBB18_3
LBB18_52:
	leaq	-336(%rbp), %rax
	movq	%rax, -120(%rbp)
	cmpl	$26, -336(%rbp)
	je	LBB18_55
	jmp	LBB18_54
LBB18_53:
Ltmp276:
	.loc	17 302 5
	movb	$25, -329(%rbp)
Ltmp277:
	.loc	17 302 5
	jmp	LBB18_3
LBB18_54:
	leaq	-336(%rbp), %rax
	movq	%rax, -112(%rbp)
	cmpl	$27, -336(%rbp)
	je	LBB18_57
	jmp	LBB18_56
LBB18_55:
Ltmp278:
	.loc	17 302 5
	movb	$26, -329(%rbp)
Ltmp279:
	.loc	17 302 5
	jmp	LBB18_3
LBB18_56:
	leaq	-336(%rbp), %rax
	movq	%rax, -104(%rbp)
	cmpl	$28, -336(%rbp)
	je	LBB18_59
	jmp	LBB18_58
LBB18_57:
Ltmp280:
	.loc	17 302 5
	movb	$27, -329(%rbp)
Ltmp281:
	.loc	17 302 5
	jmp	LBB18_3
LBB18_58:
	leaq	-336(%rbp), %rax
	movq	%rax, -96(%rbp)
	cmpl	$29, -336(%rbp)
	je	LBB18_61
	jmp	LBB18_60
LBB18_59:
Ltmp282:
	.loc	17 302 5
	movb	$28, -329(%rbp)
Ltmp283:
	.loc	17 302 5
	jmp	LBB18_3
LBB18_60:
	leaq	-336(%rbp), %rax
	movq	%rax, -88(%rbp)
	cmpl	$30, -336(%rbp)
	je	LBB18_63
	jmp	LBB18_62
LBB18_61:
Ltmp284:
	.loc	17 302 5
	movb	$29, -329(%rbp)
Ltmp285:
	.loc	17 302 5
	jmp	LBB18_3
LBB18_62:
	leaq	-336(%rbp), %rax
	movq	%rax, -80(%rbp)
	cmpl	$31, -336(%rbp)
	je	LBB18_65
	jmp	LBB18_64
LBB18_63:
Ltmp286:
	.loc	17 302 5
	movb	$30, -329(%rbp)
Ltmp287:
	.loc	17 302 5
	jmp	LBB18_3
LBB18_64:
	leaq	-336(%rbp), %rax
	movq	%rax, -72(%rbp)
	cmpl	$32, -336(%rbp)
	je	LBB18_67
	jmp	LBB18_66
LBB18_65:
Ltmp288:
	.loc	17 302 5
	movb	$31, -329(%rbp)
Ltmp289:
	.loc	17 302 5
	jmp	LBB18_3
LBB18_66:
	leaq	-336(%rbp), %rax
	movq	%rax, -64(%rbp)
	cmpl	$33, -336(%rbp)
	je	LBB18_69
	jmp	LBB18_68
LBB18_67:
Ltmp290:
	.loc	17 302 5
	movb	$32, -329(%rbp)
Ltmp291:
	.loc	17 302 5
	jmp	LBB18_3
LBB18_68:
	leaq	-336(%rbp), %rax
	movq	%rax, -56(%rbp)
	cmpl	$34, -336(%rbp)
	je	LBB18_71
	jmp	LBB18_70
LBB18_69:
Ltmp292:
	.loc	17 302 5
	movb	$33, -329(%rbp)
Ltmp293:
	.loc	17 302 5
	jmp	LBB18_3
LBB18_70:
	leaq	-336(%rbp), %rax
	movq	%rax, -48(%rbp)
	cmpl	$35, -336(%rbp)
	je	LBB18_73
	jmp	LBB18_72
LBB18_71:
Ltmp294:
	.loc	17 302 5
	movb	$34, -329(%rbp)
Ltmp295:
	.loc	17 302 5
	jmp	LBB18_3
LBB18_72:
	leaq	-336(%rbp), %rax
	movq	%rax, -40(%rbp)
	cmpl	$39, -336(%rbp)
	je	LBB18_75
	jmp	LBB18_74
LBB18_73:
Ltmp296:
	.loc	17 302 5
	movb	$35, -329(%rbp)
Ltmp297:
	.loc	17 302 5
	jmp	LBB18_3
LBB18_74:
	leaq	-336(%rbp), %rax
	movq	%rax, -32(%rbp)
	cmpl	$37, -336(%rbp)
	je	LBB18_77
	jmp	LBB18_76
LBB18_75:
Ltmp298:
	.loc	17 302 5
	movb	$39, -329(%rbp)
Ltmp299:
	.loc	17 302 5
	jmp	LBB18_3
LBB18_76:
	leaq	-336(%rbp), %rax
	movq	%rax, -24(%rbp)
	cmpl	$36, -336(%rbp)
	je	LBB18_79
	jmp	LBB18_78
LBB18_77:
Ltmp300:
	.loc	17 302 5
	movb	$37, -329(%rbp)
Ltmp301:
	.loc	17 302 5
	jmp	LBB18_3
LBB18_78:
	leaq	-336(%rbp), %rax
	movq	%rax, -16(%rbp)
	cmpl	$38, -336(%rbp)
	je	LBB18_81
	jmp	LBB18_80
LBB18_79:
Ltmp302:
	.loc	17 302 5
	movb	$36, -329(%rbp)
Ltmp303:
	.loc	17 302 5
	jmp	LBB18_3
LBB18_80:
	leaq	-336(%rbp), %rax
	movq	%rax, -8(%rbp)
	cmpl	$40, -336(%rbp)
	je	LBB18_83
	jmp	LBB18_82
LBB18_81:
Ltmp304:
	.loc	17 302 5
	movb	$38, -329(%rbp)
Ltmp305:
	.loc	17 302 5
	jmp	LBB18_3
LBB18_82:
	movb	$41, -329(%rbp)
	jmp	LBB18_3
LBB18_83:
Ltmp306:
	.loc	17 302 5
	movb	$40, -329(%rbp)
Ltmp307:
	.loc	17 302 5
	jmp	LBB18_3
Ltmp308:
Lfunc_end18:
	.cfi_endproc

	.p2align	4, 0x90
__ZN3std2io5error14repr_bitpacked4Repr4data28_$u7b$$u7b$closure$u7d$$u7d$17h148fb600e8f08e7fE:
Lfunc_begin19:
	.loc	17 212 0 is_stmt 1
	.cfi_startproc
	pushq	%rbp
	.cfi_def_cfa_offset 16
	.cfi_offset %rbp, -16
	movq	%rsp, %rbp
	.cfi_def_cfa_register %rbp
	subq	$16, %rsp
	movq	%rdi, %rax
	movq	%rax, -8(%rbp)
Ltmp309:
	.loc	17 212 45 prologue_end
	addq	$16, %rsp
	popq	%rbp
	retq
Ltmp310:
Lfunc_end19:
	.cfi_endproc

	.p2align	4, 0x90
__ZN3std2io5error5Error4kind17hdca089f4e3b14b35E:
Lfunc_begin20:
	.loc	15 893 0
	.cfi_startproc
	pushq	%rbp
	.cfi_def_cfa_offset 16
	.cfi_offset %rbp, -16
	movq	%rsp, %rbp
	.cfi_def_cfa_register %rbp
	subq	$80, %rsp
	movq	%rdi, -40(%rbp)
Ltmp311:
	.loc	15 894 15 prologue_end
	movq	%rdi, -32(%rbp)
Ltmp312:
	.loc	17 212 30
	movq	(%rdi), %rsi
	leaq	-56(%rbp), %rdi
	.loc	17 212 18 is_stmt 0
	callq	__ZN3std2io5error14repr_bitpacked11decode_repr17he607014ba38a1185E
Ltmp313:
	.loc	15 894 15 is_stmt 1
	movzbl	-56(%rbp), %eax
	movq	%rax, -72(%rbp)
	.loc	15 0 15 is_stmt 0
	movq	-72(%rbp), %rax
	leaq	LJTI20_0(%rip), %rcx
	movslq	(%rcx,%rax,4), %rax
	addq	%rcx, %rax
	jmpq	*%rax
	.loc	15 894 15
	ud2
LBB20_2:
	.loc	15 895 27 is_stmt 1
	movl	-52(%rbp), %edi
	movl	%edi, -4(%rbp)
Ltmp314:
	.loc	15 895 36 is_stmt 0
	callq	__ZN3std3sys4unix17decode_error_kind17h50ab8511eed7ed72E
	movb	%al, -57(%rbp)
Ltmp315:
	.loc	15 895 63
	jmp	LBB20_6
LBB20_3:
	.loc	15 897 31 is_stmt 1
	movb	-55(%rbp), %al
	movb	%al, -5(%rbp)
Ltmp316:
	.loc	15 897 40 is_stmt 0
	movb	%al, -57(%rbp)
Ltmp317:
	.loc	15 897 43
	jmp	LBB20_6
LBB20_4:
	.loc	15 898 38 is_stmt 1
	movq	-48(%rbp), %rax
	movq	%rax, -16(%rbp)
Ltmp318:
	.loc	15 898 44 is_stmt 0
	movb	16(%rax), %al
	movb	%al, -57(%rbp)
Ltmp319:
	.loc	15 898 49
	jmp	LBB20_6
LBB20_5:
	.loc	15 896 31 is_stmt 1
	movq	-48(%rbp), %rax
	movq	%rax, -24(%rbp)
Ltmp320:
	.loc	15 896 37 is_stmt 0
	movb	16(%rax), %al
	movb	%al, -57(%rbp)
Ltmp321:
LBB20_6:
	.loc	15 900 6 is_stmt 1
	movb	-57(%rbp), %al
	addq	$80, %rsp
	popq	%rbp
	retq
Ltmp322:
Lfunc_end20:
	.cfi_endproc
	.p2align	2, 0x90
	.data_region jt32
.set L20_0_set_2, LBB20_2-LJTI20_0
.set L20_0_set_3, LBB20_3-LJTI20_0
.set L20_0_set_4, LBB20_4-LJTI20_0
.set L20_0_set_5, LBB20_5-LJTI20_0
LJTI20_0:
	.long	L20_0_set_2
	.long	L20_0_set_3
	.long	L20_0_set_4
	.long	L20_0_set_5
	.end_data_region

	.private_extern	__ZN3std2rt10lang_start17h2ccb11917573c1eaE
	.globl	__ZN3std2rt10lang_start17h2ccb11917573c1eaE
	.p2align	4, 0x90
__ZN3std2rt10lang_start17h2ccb11917573c1eaE:
Lfunc_begin21:
	.file	19 "/rustc/2c8cc343237b8f7d5a3c3703e3a87f2eb2c54a74/library/std/src" "rt.rs"
	.loc	19 159 0
	.cfi_startproc
	pushq	%rbp
	.cfi_def_cfa_offset 16
	.cfi_offset %rbp, -16
	movq	%rsp, %rbp
	.cfi_def_cfa_register %rbp
	subq	$64, %rsp
	movl	%ecx, %eax
	movq	%rdx, %rcx
	movq	%rsi, %rdx
	movq	%rdi, -40(%rbp)
	movq	%rdx, -32(%rbp)
	movq	%rcx, -24(%rbp)
	movb	%al, -9(%rbp)
Ltmp323:
	.loc	19 166 10 prologue_end
	movq	%rdi, -48(%rbp)
	.loc	19 165 17
	leaq	-48(%rbp), %rdi
	leaq	l___unnamed_1(%rip), %rsi
	movzbl	%al, %r8d
	callq	__ZN3std2rt19lang_start_internal17h72dc55d09e0a2397E
	movq	%rax, -56(%rbp)
	.loc	19 165 12 is_stmt 0
	movq	-56(%rbp), %rax
	movq	%rax, -8(%rbp)
	.loc	19 172 2 is_stmt 1
	addq	$64, %rsp
	popq	%rbp
	retq
Ltmp324:
Lfunc_end21:
	.cfi_endproc

	.p2align	4, 0x90
__ZN3std2rt10lang_start28_$u7b$$u7b$closure$u7d$$u7d$17h3ecbf50f07fda551E:
Lfunc_begin22:
	.loc	19 166 0
	.cfi_startproc
	pushq	%rbp
	.cfi_def_cfa_offset 16
	.cfi_offset %rbp, -16
	movq	%rsp, %rbp
	.cfi_def_cfa_register %rbp
	subq	$32, %rsp
	movq	%rdi, -16(%rbp)
Ltmp325:
	.loc	19 166 77 prologue_end
	movq	(%rdi), %rdi
	.loc	19 166 18 is_stmt 0
	callq	__ZN3std10sys_common9backtrace28__rust_begin_short_backtrace17hbc5e6766a824bf1cE
	callq	__ZN54_$LT$$LP$$RP$$u20$as$u20$std..process..Termination$GT$6report17hd1efe7533a348d2bE
	movb	%al, -17(%rbp)
Ltmp326:
	.file	20 "/rustc/2c8cc343237b8f7d5a3c3703e3a87f2eb2c54a74/library/std/src" "process.rs"
	.loc	20 1820 9 is_stmt 1
	leaq	-17(%rbp), %rax
	movq	%rax, -8(%rbp)
Ltmp327:
	.file	21 "/rustc/2c8cc343237b8f7d5a3c3703e3a87f2eb2c54a74/library/std/src/sys/unix/process" "process_common.rs"
	.loc	21 594 9
	movzbl	-17(%rbp), %eax
Ltmp328:
	.loc	19 166 100
	addq	$32, %rsp
	popq	%rbp
	retq
Ltmp329:
Lfunc_end22:
	.cfi_endproc

	.p2align	4, 0x90
__ZN3std3env6var_os17h9008a8449cc9c229E:
Lfunc_begin23:
	.file	22 "/rustc/2c8cc343237b8f7d5a3c3703e3a87f2eb2c54a74/library/std/src" "env.rs"
	.loc	22 268 0
	.cfi_startproc
	.cfi_personality 155, _rust_eh_personality
	.cfi_lsda 16, Lexception9
	pushq	%rbp
	.cfi_def_cfa_offset 16
	.cfi_offset %rbp, -16
	movq	%rsp, %rbp
	.cfi_def_cfa_register %rbp
	subq	$64, %rsp
	movq	%rdi, -64(%rbp)
	movq	%rdi, -56(%rbp)
	movq	%rsi, -32(%rbp)
	movq	%rdx, -24(%rbp)
Ltmp330:
	leaq	-32(%rbp), %rdi
Ltmp335:
	.loc	22 269 13 prologue_end
	callq	__ZN55_$LT$$RF$T$u20$as$u20$core..convert..AsRef$LT$U$GT$$GT$6as_ref17haa94cf418805022dE
Ltmp331:
	movq	%rdx, -48(%rbp)
	movq	%rax, -40(%rbp)
	jmp	LBB23_3
LBB23_1:
	.loc	22 268 1
	movq	-16(%rbp), %rdi
	callq	__Unwind_Resume
LBB23_2:
Ltmp334:
	.loc	22 0 1 is_stmt 0
	movq	%rax, %rcx
	movl	%edx, %eax
	movq	%rcx, -16(%rbp)
	movl	%eax, -8(%rbp)
	jmp	LBB23_1
LBB23_3:
Ltmp332:
	movq	-48(%rbp), %rdx
	movq	-40(%rbp), %rsi
	movq	-64(%rbp), %rdi
	.loc	22 269 5 is_stmt 1
	callq	__ZN3std3env7_var_os17h71e71f6d7accb7a3E
Ltmp333:
	jmp	LBB23_4
LBB23_4:
	.loc	22 0 5 is_stmt 0
	movq	-56(%rbp), %rax
	.loc	22 270 2 is_stmt 1
	addq	$64, %rsp
	popq	%rbp
	retq
Ltmp336:
Lfunc_end23:
	.cfi_endproc
	.section	__TEXT,__gcc_except_tab
	.p2align	2
GCC_except_table23:
Lexception9:
	.byte	255
	.byte	255
	.byte	1
	.uleb128 Lcst_end9-Lcst_begin9
Lcst_begin9:
	.uleb128 Ltmp330-Lfunc_begin23
	.uleb128 Ltmp331-Ltmp330
	.uleb128 Ltmp334-Lfunc_begin23
	.byte	0
	.uleb128 Ltmp331-Lfunc_begin23
	.uleb128 Ltmp332-Ltmp331
	.byte	0
	.byte	0
	.uleb128 Ltmp332-Lfunc_begin23
	.uleb128 Ltmp333-Ltmp332
	.uleb128 Ltmp334-Lfunc_begin23
	.byte	0
Lcst_end9:
	.p2align	2

	.section	__TEXT,__text,regular,pure_instructions
	.p2align	4, 0x90
__ZN3std3ffi6os_str103_$LT$impl$u20$core..convert..AsRef$LT$std..ffi..os_str..OsStr$GT$$u20$for$u20$alloc..string..String$GT$6as_ref17h46a631b7121ef659E:
Lfunc_begin24:
	.file	23 "/rustc/2c8cc343237b8f7d5a3c3703e3a87f2eb2c54a74/library/std/src/ffi" "os_str.rs"
	.loc	23 1329 0
	.cfi_startproc
	pushq	%rbp
	.cfi_def_cfa_offset 16
	.cfi_offset %rbp, -16
	movq	%rsp, %rbp
	.cfi_def_cfa_register %rbp
	subq	$160, %rsp
	movq	%rdi, -160(%rbp)
Ltmp337:
	.loc	23 1330 12 prologue_end
	movq	%rdi, -152(%rbp)
Ltmp338:
	.file	24 "/rustc/2c8cc343237b8f7d5a3c3703e3a87f2eb2c54a74/library/alloc/src" "string.rs"
	.loc	24 2460 43
	callq	__ZN72_$LT$alloc..vec..Vec$LT$T$C$A$GT$$u20$as$u20$core..ops..deref..Deref$GT$5deref17h99af573b5965d277E
	movq	%rax, -144(%rbp)
	movq	%rdx, -136(%rbp)
Ltmp339:
	.file	25 "/rustc/2c8cc343237b8f7d5a3c3703e3a87f2eb2c54a74/library/core/src/str" "converts.rs"
	.loc	25 173 14
	movq	%rax, -128(%rbp)
	movq	%rdx, -120(%rbp)
	movq	-128(%rbp), %rcx
	movq	-120(%rbp), %rax
Ltmp340:
	.loc	23 1330 9
	movq	%rcx, -112(%rbp)
	movq	%rax, -104(%rbp)
Ltmp341:
	.loc	23 1322 43
	movq	%rcx, -96(%rbp)
	movq	%rax, -88(%rbp)
Ltmp342:
	.file	26 "/rustc/2c8cc343237b8f7d5a3c3703e3a87f2eb2c54a74/library/std/src/sys/unix" "os_str.rs"
	.loc	26 201 30
	movq	%rcx, -80(%rbp)
	movq	%rax, -72(%rbp)
Ltmp343:
	.file	27 "/rustc/2c8cc343237b8f7d5a3c3703e3a87f2eb2c54a74/library/core/src/str" "mod.rs"
	.loc	27 327 18
	movq	%rcx, -64(%rbp)
	movq	%rax, -56(%rbp)
	movq	-64(%rbp), %rcx
	movq	-56(%rbp), %rax
Ltmp344:
	.loc	26 201 30
	movq	%rcx, -48(%rbp)
	movq	%rax, -40(%rbp)
Ltmp345:
	.loc	26 196 18
	movq	%rcx, -32(%rbp)
	movq	%rax, -24(%rbp)
	movq	-32(%rbp), %rax
	movq	-24(%rbp), %rdx
Ltmp346:
	.loc	23 1322 27
	movq	%rax, -16(%rbp)
	movq	%rdx, -8(%rbp)
Ltmp347:
	.loc	23 1331 6
	addq	$160, %rsp
	popq	%rbp
	retq
Ltmp348:
Lfunc_end24:
	.cfi_endproc

	.p2align	4, 0x90
__ZN3std3ffi6os_str85_$LT$impl$u20$core..convert..AsRef$LT$std..ffi..os_str..OsStr$GT$$u20$for$u20$str$GT$6as_ref17hcf18a003b486f31cE:
Lfunc_begin25:
	.loc	23 1321 0
	.cfi_startproc
	pushq	%rbp
	.cfi_def_cfa_offset 16
	.cfi_offset %rbp, -16
	movq	%rsp, %rbp
	.cfi_def_cfa_register %rbp
	subq	$112, %rsp
	movq	%rdi, -112(%rbp)
	movq	%rsi, -104(%rbp)
Ltmp349:
	.loc	23 1322 43 prologue_end
	movq	%rdi, -96(%rbp)
	movq	%rsi, -88(%rbp)
Ltmp350:
	.loc	26 201 30
	movq	%rdi, -80(%rbp)
	movq	%rsi, -72(%rbp)
Ltmp351:
	.loc	27 327 18
	movq	%rdi, -64(%rbp)
	movq	%rsi, -56(%rbp)
	movq	-64(%rbp), %rcx
	movq	-56(%rbp), %rax
Ltmp352:
	.loc	26 201 30
	movq	%rcx, -48(%rbp)
	movq	%rax, -40(%rbp)
Ltmp353:
	.loc	26 196 18
	movq	%rcx, -32(%rbp)
	movq	%rax, -24(%rbp)
	movq	-32(%rbp), %rax
	movq	-24(%rbp), %rdx
Ltmp354:
	.loc	23 1322 27
	movq	%rax, -16(%rbp)
	movq	%rdx, -8(%rbp)
	.loc	23 1323 6
	addq	$112, %rsp
	popq	%rbp
	retq
Ltmp355:
Lfunc_end25:
	.cfi_endproc

	.p2align	4, 0x90
__ZN3std4path4Path3new17hea22ef6572dd7526E:
Lfunc_begin26:
	.file	28 "/rustc/2c8cc343237b8f7d5a3c3703e3a87f2eb2c54a74/library/std/src" "path.rs"
	.loc	28 2037 0
	.cfi_startproc
	pushq	%rbp
	.cfi_def_cfa_offset 16
	.cfi_offset %rbp, -16
	movq	%rsp, %rbp
	.cfi_def_cfa_register %rbp
	subq	$16, %rsp
	movq	%rdi, -8(%rbp)
Ltmp356:
	.loc	28 2038 21 prologue_end
	callq	__ZN98_$LT$std..ffi..os_str..OsString$u20$as$u20$core..convert..AsRef$LT$std..ffi..os_str..OsStr$GT$$GT$6as_ref17h5cda01bd2dad2a0eE
	.loc	28 2039 6
	addq	$16, %rsp
	popq	%rbp
	retq
Ltmp357:
Lfunc_end26:
	.cfi_endproc

	.p2align	4, 0x90
__ZN3std4path4Path3new17hf1bf6110ac41d84dE:
Lfunc_begin27:
	.loc	28 2037 0
	.cfi_startproc
	pushq	%rbp
	.cfi_def_cfa_offset 16
	.cfi_offset %rbp, -16
	movq	%rsp, %rbp
	.cfi_def_cfa_register %rbp
	subq	$16, %rsp
	movq	%rdi, -8(%rbp)
Ltmp358:
	.loc	28 2038 21 prologue_end
	callq	__ZN3std3ffi6os_str103_$LT$impl$u20$core..convert..AsRef$LT$std..ffi..os_str..OsStr$GT$$u20$for$u20$alloc..string..String$GT$6as_ref17h46a631b7121ef659E
	.loc	28 2039 6
	addq	$16, %rsp
	popq	%rbp
	retq
Ltmp359:
Lfunc_end27:
	.cfi_endproc

	.p2align	4, 0x90
__ZN3std4path4Path4join17ha3605f219991983fE:
Lfunc_begin28:
	.loc	28 2545 0
	.cfi_startproc
	.cfi_personality 155, _rust_eh_personality
	.cfi_lsda 16, Lexception10
	pushq	%rbp
	.cfi_def_cfa_offset 16
	.cfi_offset %rbp, -16
	movq	%rsp, %rbp
	.cfi_def_cfa_register %rbp
	subq	$96, %rsp
	movq	%rdx, -88(%rbp)
	movq	%rsi, -80(%rbp)
	movq	%rdi, -72(%rbp)
	movq	%rdi, -64(%rbp)
	movq	%rcx, -40(%rbp)
	movq	%rsi, -32(%rbp)
	movq	%rdx, -24(%rbp)
Ltmp360:
	leaq	-40(%rbp), %rdi
Ltmp365:
	.loc	28 2546 20 prologue_end
	callq	__ZN55_$LT$$RF$T$u20$as$u20$core..convert..AsRef$LT$U$GT$$GT$6as_ref17he7c3f66ee15fc2b7E
Ltmp361:
	movq	%rdx, -56(%rbp)
	movq	%rax, -48(%rbp)
	jmp	LBB28_3
LBB28_1:
	.loc	28 2545 5
	movq	-16(%rbp), %rdi
	callq	__Unwind_Resume
LBB28_2:
Ltmp364:
	.loc	28 0 5 is_stmt 0
	movq	%rax, %rcx
	movl	%edx, %eax
	movq	%rcx, -16(%rbp)
	movl	%eax, -8(%rbp)
	jmp	LBB28_1
LBB28_3:
Ltmp362:
	movq	-56(%rbp), %r8
	movq	-48(%rbp), %rcx
	movq	-88(%rbp), %rdx
	movq	-80(%rbp), %rsi
	movq	-72(%rbp), %rdi
	.loc	28 2546 9 is_stmt 1
	callq	__ZN3std4path4Path5_join17h09a4a37dd04fbaf0E
Ltmp363:
	jmp	LBB28_4
LBB28_4:
	.loc	28 0 9 is_stmt 0
	movq	-64(%rbp), %rax
	.loc	28 2547 6 is_stmt 1
	addq	$96, %rsp
	popq	%rbp
	retq
Ltmp366:
Lfunc_end28:
	.cfi_endproc
	.section	__TEXT,__gcc_except_tab
	.p2align	2
GCC_except_table28:
Lexception10:
	.byte	255
	.byte	255
	.byte	1
	.uleb128 Lcst_end10-Lcst_begin10
Lcst_begin10:
	.uleb128 Ltmp360-Lfunc_begin28
	.uleb128 Ltmp361-Ltmp360
	.uleb128 Ltmp364-Lfunc_begin28
	.byte	0
	.uleb128 Ltmp361-Lfunc_begin28
	.uleb128 Ltmp362-Ltmp361
	.byte	0
	.byte	0
	.uleb128 Ltmp362-Lfunc_begin28
	.uleb128 Ltmp363-Ltmp362
	.uleb128 Ltmp364-Lfunc_begin28
	.byte	0
Lcst_end10:
	.p2align	2

	.section	__TEXT,__text,regular,pure_instructions
	.p2align	4, 0x90
__ZN3std4path4Path4join17hcebd5928d5abd4a9E:
Lfunc_begin29:
	.loc	28 2545 0
	.cfi_startproc
	.cfi_personality 155, _rust_eh_personality
	.cfi_lsda 16, Lexception11
	pushq	%rbp
	.cfi_def_cfa_offset 16
	.cfi_offset %rbp, -16
	movq	%rsp, %rbp
	.cfi_def_cfa_register %rbp
	subq	$96, %rsp
	movq	%rcx, -72(%rbp)
Ltmp375:
	movq	%rdx, -88(%rbp)
	movq	%rsi, -80(%rbp)
	movq	%rdi, %rax
	movq	-72(%rbp), %rdi
	movq	%rax, -64(%rbp)
	movq	%rax, -56(%rbp)
	movq	%rsi, -32(%rbp)
	movq	%rdx, -24(%rbp)
Ltmp367:
Ltmp376:
	.loc	28 2546 20 prologue_end
	callq	__ZN3std4path95_$LT$impl$u20$core..convert..AsRef$LT$std..path..Path$GT$$u20$for$u20$alloc..string..String$GT$6as_ref17h793c5075a5f3f574E
Ltmp368:
	movq	%rdx, -48(%rbp)
	movq	%rax, -40(%rbp)
	jmp	LBB29_3
Ltmp377:
LBB29_1:
Ltmp372:
	.loc	28 0 20 is_stmt 0
	movq	-72(%rbp), %rdi
	.loc	28 2547 5 is_stmt 1
	callq	__ZN4core3ptr42drop_in_place$LT$alloc..string..String$GT$17he93eb17f96d7ba2eE
Ltmp373:
	jmp	LBB29_6
Ltmp378:
LBB29_2:
Ltmp371:
	.loc	28 0 5 is_stmt 0
	movq	%rax, %rcx
	movl	%edx, %eax
	movq	%rcx, -16(%rbp)
	movl	%eax, -8(%rbp)
	jmp	LBB29_1
Ltmp379:
LBB29_3:
Ltmp369:
	movq	-48(%rbp), %r8
	movq	-40(%rbp), %rcx
	movq	-88(%rbp), %rdx
	movq	-80(%rbp), %rsi
	movq	-64(%rbp), %rdi
	.loc	28 2546 9 is_stmt 1
	callq	__ZN3std4path4Path5_join17h09a4a37dd04fbaf0E
Ltmp370:
	jmp	LBB29_4
Ltmp380:
LBB29_4:
	.loc	28 0 9 is_stmt 0
	movq	-72(%rbp), %rdi
	.loc	28 2547 5 is_stmt 1
	callq	__ZN4core3ptr42drop_in_place$LT$alloc..string..String$GT$17he93eb17f96d7ba2eE
	movq	-56(%rbp), %rax
	.loc	28 2547 6 is_stmt 0
	addq	$96, %rsp
	popq	%rbp
	retq
Ltmp381:
LBB29_5:
Ltmp374:
	.loc	28 2545 5 is_stmt 1
	callq	__ZN4core9panicking19panic_cannot_unwind17h1fbca7e1d7f56ae1E
Ltmp382:
LBB29_6:
	movq	-16(%rbp), %rdi
	callq	__Unwind_Resume
Ltmp383:
Lfunc_end29:
	.cfi_endproc
	.section	__TEXT,__gcc_except_tab
	.p2align	2
GCC_except_table29:
Lexception11:
	.byte	255
	.byte	255
	.byte	1
	.uleb128 Lcst_end11-Lcst_begin11
Lcst_begin11:
	.uleb128 Ltmp367-Lfunc_begin29
	.uleb128 Ltmp368-Ltmp367
	.uleb128 Ltmp371-Lfunc_begin29
	.byte	0
	.uleb128 Ltmp372-Lfunc_begin29
	.uleb128 Ltmp373-Ltmp372
	.uleb128 Ltmp374-Lfunc_begin29
	.byte	0
	.uleb128 Ltmp369-Lfunc_begin29
	.uleb128 Ltmp370-Ltmp369
	.uleb128 Ltmp371-Lfunc_begin29
	.byte	0
	.uleb128 Ltmp370-Lfunc_begin29
	.uleb128 Lfunc_end29-Ltmp370
	.byte	0
	.byte	0
Lcst_end11:
	.p2align	2

	.section	__TEXT,__text,regular,pure_instructions
	.p2align	4, 0x90
__ZN3std4path4Path6exists17h80c34d2cee37e635E:
Lfunc_begin30:
	.loc	28 2836 0
	.cfi_startproc
	pushq	%rbp
	.cfi_def_cfa_offset 16
	.cfi_offset %rbp, -16
	movq	%rsp, %rbp
	.cfi_def_cfa_register %rbp
	subq	$192, %rsp
	movq	%rsi, %rdx
	movq	%rdi, %rsi
	movq	%rsi, -24(%rbp)
	movq	%rdx, -16(%rbp)
Ltmp384:
	.loc	28 2837 9 prologue_end
	leaq	-176(%rbp), %rdi
	callq	__ZN3std2fs8metadata17ha010425ea9857686E
	leaq	-176(%rbp), %rax
	movq	%rax, -8(%rbp)
Ltmp385:
	.file	29 "/rustc/2c8cc343237b8f7d5a3c3703e3a87f2eb2c54a74/library/core/src/macros" "mod.rs"
	.loc	29 344 9
	cmpq	$0, -176(%rbp)
	jne	LBB30_2
	.loc	29 345 48
	movb	$1, -177(%rbp)
	jmp	LBB30_3
LBB30_2:
	.loc	29 346 18
	movb	$0, -177(%rbp)
Ltmp386:
LBB30_3:
	.loc	28 2838 5
	leaq	-176(%rbp), %rdi
	callq	__ZN4core3ptr90drop_in_place$LT$core..result..Result$LT$std..fs..Metadata$C$std..io..error..Error$GT$$GT$17h5be374cce664fe1fE
	.loc	28 2838 6 is_stmt 0
	movb	-177(%rbp), %al
	andb	$1, %al
	movzbl	%al, %eax
	addq	$192, %rsp
	popq	%rbp
	retq
Ltmp387:
Lfunc_end30:
	.cfi_endproc
	.file	30 "/rustc/2c8cc343237b8f7d5a3c3703e3a87f2eb2c54a74/library/core/src" "result.rs"

	.p2align	4, 0x90
__ZN3std4path95_$LT$impl$u20$core..convert..AsRef$LT$std..path..Path$GT$$u20$for$u20$alloc..string..String$GT$6as_ref17h793c5075a5f3f574E:
Lfunc_begin31:
	.loc	28 3146 0 is_stmt 1
	.cfi_startproc
	pushq	%rbp
	.cfi_def_cfa_offset 16
	.cfi_offset %rbp, -16
	movq	%rsp, %rbp
	.cfi_def_cfa_register %rbp
	subq	$16, %rsp
	movq	%rdi, -8(%rbp)
Ltmp388:
	.loc	28 3147 9 prologue_end
	callq	__ZN3std4path4Path3new17hf1bf6110ac41d84dE
	.loc	28 3148 6
	addq	$16, %rsp
	popq	%rbp
	retq
Ltmp389:
Lfunc_end31:
	.cfi_endproc

	.p2align	4, 0x90
__ZN3std7process7Command11current_dir17h3a1f8bf06dfed388E:
Lfunc_begin32:
	.loc	20 776 0
	.cfi_startproc
	.cfi_personality 155, _rust_eh_personality
	.cfi_lsda 16, Lexception12
	pushq	%rbp
	.cfi_def_cfa_offset 16
	.cfi_offset %rbp, -16
	movq	%rsp, %rbp
	.cfi_def_cfa_register %rbp
	subq	$80, %rsp
	movq	%rdi, -72(%rbp)
	movq	%rsi, -48(%rbp)
	movq	%rdi, -40(%rbp)
Ltmp390:
	leaq	-48(%rbp), %rdi
Ltmp395:
	.loc	20 777 24 prologue_end
	callq	__ZN55_$LT$$RF$T$u20$as$u20$core..convert..AsRef$LT$U$GT$$GT$6as_ref17h941fcfc21bda34c9E
Ltmp391:
	movq	%rdx, -64(%rbp)
	movq	%rax, -56(%rbp)
	jmp	LBB32_3
LBB32_1:
	.loc	20 776 5
	movq	-32(%rbp), %rdi
	callq	__Unwind_Resume
LBB32_2:
Ltmp394:
	.loc	20 0 5 is_stmt 0
	movq	%rax, %rcx
	movl	%edx, %eax
	movq	%rcx, -32(%rbp)
	movl	%eax, -24(%rbp)
	jmp	LBB32_1
LBB32_3:
	movq	-64(%rbp), %rdx
	movq	-56(%rbp), %rsi
	movq	-72(%rbp), %rdi
	.loc	20 777 24 is_stmt 1
	movq	%rsi, -16(%rbp)
	movq	%rdx, -8(%rbp)
Ltmp392:
	.loc	20 777 9 is_stmt 0
	callq	__ZN3std3sys4unix7process14process_common7Command3cwd17h8319f9827451b40dE
Ltmp393:
	jmp	LBB32_4
LBB32_4:
	.loc	20 0 9
	movq	-72(%rbp), %rax
	.loc	20 779 6 is_stmt 1
	addq	$80, %rsp
	popq	%rbp
	retq
Ltmp396:
Lfunc_end32:
	.cfi_endproc
	.section	__TEXT,__gcc_except_tab
	.p2align	2
GCC_except_table32:
Lexception12:
	.byte	255
	.byte	255
	.byte	1
	.uleb128 Lcst_end12-Lcst_begin12
Lcst_begin12:
	.uleb128 Ltmp390-Lfunc_begin32
	.uleb128 Ltmp391-Ltmp390
	.uleb128 Ltmp394-Lfunc_begin32
	.byte	0
	.uleb128 Ltmp391-Lfunc_begin32
	.uleb128 Ltmp392-Ltmp391
	.byte	0
	.byte	0
	.uleb128 Ltmp392-Lfunc_begin32
	.uleb128 Ltmp393-Ltmp392
	.uleb128 Ltmp394-Lfunc_begin32
	.byte	0
Lcst_end12:
	.p2align	2

	.section	__TEXT,__text,regular,pure_instructions
	.p2align	4, 0x90
__ZN3std7process7Command3arg17hf65e507c8eb249f0E:
Lfunc_begin33:
	.loc	20 607 0
	.cfi_startproc
	.cfi_personality 155, _rust_eh_personality
	.cfi_lsda 16, Lexception13
	pushq	%rbp
	.cfi_def_cfa_offset 16
	.cfi_offset %rbp, -16
	movq	%rsp, %rbp
	.cfi_def_cfa_register %rbp
	subq	$64, %rsp
	movq	%rdi, -64(%rbp)
	movq	%rsi, -40(%rbp)
	movq	%rdx, -32(%rbp)
	movq	%rdi, -24(%rbp)
Ltmp397:
	leaq	-40(%rbp), %rdi
Ltmp402:
	.loc	20 608 24 prologue_end
	callq	__ZN55_$LT$$RF$T$u20$as$u20$core..convert..AsRef$LT$U$GT$$GT$6as_ref17h5de45abd7efea6d8E
Ltmp398:
	movq	%rdx, -56(%rbp)
	movq	%rax, -48(%rbp)
	jmp	LBB33_3
LBB33_1:
	.loc	20 607 5
	movq	-16(%rbp), %rdi
	callq	__Unwind_Resume
LBB33_2:
Ltmp401:
	.loc	20 0 5 is_stmt 0
	movq	%rax, %rcx
	movl	%edx, %eax
	movq	%rcx, -16(%rbp)
	movl	%eax, -8(%rbp)
	jmp	LBB33_1
LBB33_3:
Ltmp399:
	movq	-56(%rbp), %rdx
	movq	-48(%rbp), %rsi
	movq	-64(%rbp), %rdi
	.loc	20 608 9 is_stmt 1
	callq	__ZN3std3sys4unix7process14process_common7Command3arg17hdfe06f44e19d0682E
Ltmp400:
	jmp	LBB33_4
LBB33_4:
	.loc	20 0 9 is_stmt 0
	movq	-64(%rbp), %rax
	.loc	20 610 6 is_stmt 1
	addq	$64, %rsp
	popq	%rbp
	retq
Ltmp403:
Lfunc_end33:
	.cfi_endproc
	.section	__TEXT,__gcc_except_tab
	.p2align	2
GCC_except_table33:
Lexception13:
	.byte	255
	.byte	255
	.byte	1
	.uleb128 Lcst_end13-Lcst_begin13
Lcst_begin13:
	.uleb128 Ltmp397-Lfunc_begin33
	.uleb128 Ltmp398-Ltmp397
	.uleb128 Ltmp401-Lfunc_begin33
	.byte	0
	.uleb128 Ltmp398-Lfunc_begin33
	.uleb128 Ltmp399-Ltmp398
	.byte	0
	.byte	0
	.uleb128 Ltmp399-Lfunc_begin33
	.uleb128 Ltmp400-Ltmp399
	.uleb128 Ltmp401-Lfunc_begin33
	.byte	0
Lcst_end13:
	.p2align	2

	.section	__TEXT,__text,regular,pure_instructions
	.p2align	4, 0x90
__ZN3std7process7Command3new17h0ca08ce99cae64f7E:
Lfunc_begin34:
	.loc	20 561 0
	.cfi_startproc
	.cfi_personality 155, _rust_eh_personality
	.cfi_lsda 16, Lexception14
	pushq	%rbp
	.cfi_def_cfa_offset 16
	.cfi_offset %rbp, -16
	movq	%rsp, %rbp
	.cfi_def_cfa_register %rbp
	subq	$272, %rsp
	movq	%rdi, -264(%rbp)
	movq	%rdi, -256(%rbp)
	movq	%rsi, -232(%rbp)
Ltmp404:
	leaq	-232(%rbp), %rdi
Ltmp409:
	.loc	20 562 44 prologue_end
	callq	__ZN55_$LT$$RF$T$u20$as$u20$core..convert..AsRef$LT$U$GT$$GT$6as_ref17h15ba69fd0c04e928E
Ltmp405:
	movq	%rdx, -248(%rbp)
	movq	%rax, -240(%rbp)
	jmp	LBB34_3
LBB34_1:
	.loc	20 561 5
	movq	-16(%rbp), %rdi
	callq	__Unwind_Resume
LBB34_2:
Ltmp408:
	.loc	20 0 5 is_stmt 0
	movq	%rax, %rcx
	movl	%edx, %eax
	movq	%rcx, -16(%rbp)
	movl	%eax, -8(%rbp)
	jmp	LBB34_1
LBB34_3:
Ltmp406:
	movq	-248(%rbp), %rdx
	movq	-240(%rbp), %rsi
	leaq	-224(%rbp), %rdi
	.loc	20 562 26 is_stmt 1
	callq	__ZN3std3sys4unix7process14process_common7Command3new17hbc75e5b02e009ba8E
Ltmp407:
	jmp	LBB34_4
LBB34_4:
	.loc	20 0 26 is_stmt 0
	movq	-264(%rbp), %rdi
	.loc	20 562 9
	leaq	-224(%rbp), %rsi
	movl	$208, %edx
	callq	_memcpy
	movq	-256(%rbp), %rax
	.loc	20 563 6 is_stmt 1
	addq	$272, %rsp
	popq	%rbp
	retq
Ltmp410:
Lfunc_end34:
	.cfi_endproc
	.section	__TEXT,__gcc_except_tab
	.p2align	2
GCC_except_table34:
Lexception14:
	.byte	255
	.byte	255
	.byte	1
	.uleb128 Lcst_end14-Lcst_begin14
Lcst_begin14:
	.uleb128 Ltmp404-Lfunc_begin34
	.uleb128 Ltmp405-Ltmp404
	.uleb128 Ltmp408-Lfunc_begin34
	.byte	0
	.uleb128 Ltmp405-Lfunc_begin34
	.uleb128 Ltmp406-Ltmp405
	.byte	0
	.byte	0
	.uleb128 Ltmp406-Lfunc_begin34
	.uleb128 Ltmp407-Ltmp406
	.uleb128 Ltmp408-Lfunc_begin34
	.byte	0
	.uleb128 Ltmp407-Lfunc_begin34
	.uleb128 Lfunc_end34-Ltmp407
	.byte	0
	.byte	0
Lcst_end14:
	.p2align	2

	.section	__TEXT,__text,regular,pure_instructions
	.p2align	4, 0x90
__ZN3std7process7Command4args17hcf163a2aa1faf234E:
Lfunc_begin35:
	.loc	20 636 0
	.cfi_startproc
	.cfi_personality 155, _rust_eh_personality
	.cfi_lsda 16, Lexception15
	pushq	%rbp
	.cfi_def_cfa_offset 16
	.cfi_offset %rbp, -16
	movq	%rsp, %rbp
	.cfi_def_cfa_register %rbp
	subq	$112, %rsp
	movq	%rsi, -80(%rbp)
	movq	%rdi, %rax
	movq	-80(%rbp), %rdi
	movq	%rax, -72(%rbp)
	movq	%rax, -32(%rbp)
	movq	%rdi, -24(%rbp)
Ltmp419:
	.loc	20 641 20 prologue_end
	callq	__ZN4core5array98_$LT$impl$u20$core..iter..traits..collect..IntoIterator$u20$for$u20$$RF$$u5b$T$u3b$$u20$N$u5d$$GT$9into_iter17h366a7992b04d7512E
	movq	%rax, -64(%rbp)
	movq	%rdx, -56(%rbp)
LBB35_1:
Ltmp411:
	.loc	20 0 20 is_stmt 0
	leaq	-64(%rbp), %rdi
Ltmp420:
	.loc	20 641 20
	callq	__ZN91_$LT$core..slice..iter..Iter$LT$T$GT$$u20$as$u20$core..iter..traits..iterator..Iterator$GT$4next17hf1d88a95996fe605E
Ltmp412:
	movq	%rax, -88(%rbp)
	jmp	LBB35_4
Ltmp421:
LBB35_2:
	.loc	20 636 5 is_stmt 1
	movq	-16(%rbp), %rdi
	callq	__Unwind_Resume
LBB35_3:
Ltmp413:
	.loc	20 0 5 is_stmt 0
	movq	%rax, %rcx
	movl	%edx, %eax
	movq	%rcx, -16(%rbp)
	movl	%eax, -8(%rbp)
	jmp	LBB35_2
LBB35_4:
	movq	-88(%rbp), %rax
Ltmp422:
	.loc	20 641 20 is_stmt 1
	movq	%rax, -48(%rbp)
	movq	-48(%rbp), %rdx
	movl	$1, %eax
	xorl	%ecx, %ecx
	cmpq	$0, %rdx
	cmoveq	%rcx, %rax
	cmpq	$0, %rax
	jne	LBB35_6
Ltmp423:
	.loc	20 0 20 is_stmt 0
	movq	-72(%rbp), %rax
	.loc	20 645 6 is_stmt 1
	addq	$112, %rsp
	popq	%rbp
	retq
LBB35_6:
Ltmp424:
	.loc	20 641 13
	movq	-48(%rbp), %rax
	movq	%rax, -40(%rbp)
Ltmp414:
	leaq	-40(%rbp), %rdi
Ltmp425:
	.loc	20 642 22
	callq	__ZN55_$LT$$RF$T$u20$as$u20$core..convert..AsRef$LT$U$GT$$GT$6as_ref17he10a977f38d88168E
Ltmp415:
	movq	%rdx, -104(%rbp)
	movq	%rax, -96(%rbp)
	jmp	LBB35_9
Ltmp426:
LBB35_7:
	.loc	20 643 9
	jmp	LBB35_2
LBB35_8:
Ltmp418:
	.loc	20 0 9 is_stmt 0
	movq	%rax, %rcx
	movl	%edx, %eax
	movq	%rcx, -16(%rbp)
	movl	%eax, -8(%rbp)
	jmp	LBB35_7
LBB35_9:
Ltmp416:
	movq	-104(%rbp), %rdx
	movq	-96(%rbp), %rsi
	movq	-72(%rbp), %rdi
Ltmp427:
	.loc	20 642 13 is_stmt 1
	callq	__ZN3std7process7Command3arg17hf65e507c8eb249f0E
Ltmp417:
	jmp	LBB35_10
Ltmp428:
LBB35_10:
	.loc	20 643 9
	jmp	LBB35_11
LBB35_11:
	.loc	20 641 9
	jmp	LBB35_1
Ltmp429:
Lfunc_end35:
	.cfi_endproc
	.section	__TEXT,__gcc_except_tab
	.p2align	2
GCC_except_table35:
Lexception15:
	.byte	255
	.byte	255
	.byte	1
	.uleb128 Lcst_end15-Lcst_begin15
Lcst_begin15:
	.uleb128 Lfunc_begin35-Lfunc_begin35
	.uleb128 Ltmp411-Lfunc_begin35
	.byte	0
	.byte	0
	.uleb128 Ltmp411-Lfunc_begin35
	.uleb128 Ltmp412-Ltmp411
	.uleb128 Ltmp413-Lfunc_begin35
	.byte	0
	.uleb128 Ltmp412-Lfunc_begin35
	.uleb128 Ltmp414-Ltmp412
	.byte	0
	.byte	0
	.uleb128 Ltmp414-Lfunc_begin35
	.uleb128 Ltmp417-Ltmp414
	.uleb128 Ltmp418-Lfunc_begin35
	.byte	0
Lcst_end15:
	.p2align	2

	.section	__TEXT,__text,regular,pure_instructions
	.p2align	4, 0x90
__ZN3std7process7Command6stderr17h34c54d96f2d1a57eE:
Lfunc_begin36:
	.loc	20 863 0
	.cfi_startproc
	pushq	%rbp
	.cfi_def_cfa_offset 16
	.cfi_offset %rbp, -16
	movq	%rsp, %rbp
	.cfi_def_cfa_register %rbp
	subq	$32, %rsp
	movl	%edx, -32(%rbp)
	movl	%esi, %eax
	movl	-32(%rbp), %esi
	movl	%eax, -28(%rbp)
	movq	%rdi, %rax
	movl	-28(%rbp), %edi
	movq	%rax, -24(%rbp)
	movq	%rax, -16(%rbp)
	movl	%edi, -8(%rbp)
	movl	%esi, -4(%rbp)
Ltmp430:
	.loc	20 864 27 prologue_end
	callq	__ZN50_$LT$T$u20$as$u20$core..convert..Into$LT$U$GT$$GT$4into17h9d07501070a61cedE
	movq	-24(%rbp), %rdi
	movl	%eax, %esi
	.loc	20 864 9 is_stmt 0
	callq	__ZN3std3sys4unix7process14process_common7Command6stderr17hd1d38402fa9f967aE
	movq	-24(%rbp), %rax
	.loc	20 866 6 is_stmt 1
	addq	$32, %rsp
	popq	%rbp
	retq
Ltmp431:
Lfunc_end36:
	.cfi_endproc

	.p2align	4, 0x90
__ZN3std7process7Command6stdout17hf477f54f100e9a42E:
Lfunc_begin37:
	.loc	20 834 0
	.cfi_startproc
	pushq	%rbp
	.cfi_def_cfa_offset 16
	.cfi_offset %rbp, -16
	movq	%rsp, %rbp
	.cfi_def_cfa_register %rbp
	subq	$32, %rsp
	movl	%edx, -32(%rbp)
	movl	%esi, %eax
	movl	-32(%rbp), %esi
	movl	%eax, -28(%rbp)
	movq	%rdi, %rax
	movl	-28(%rbp), %edi
	movq	%rax, -24(%rbp)
	movq	%rax, -16(%rbp)
	movl	%edi, -8(%rbp)
	movl	%esi, -4(%rbp)
Ltmp432:
	.loc	20 835 27 prologue_end
	callq	__ZN50_$LT$T$u20$as$u20$core..convert..Into$LT$U$GT$$GT$4into17h9d07501070a61cedE
	movq	-24(%rbp), %rdi
	movl	%eax, %esi
	.loc	20 835 9 is_stmt 0
	callq	__ZN3std3sys4unix7process14process_common7Command6stdout17h0914c93ae9eab2baE
	movq	-24(%rbp), %rax
	.loc	20 837 6 is_stmt 1
	addq	$32, %rsp
	popq	%rbp
	retq
Ltmp433:
Lfunc_end37:
	.cfi_endproc

	.p2align	4, 0x90
__ZN42_$LT$$RF$T$u20$as$u20$core..fmt..Debug$GT$3fmt17h2d48c0f16025c4e1E:
Lfunc_begin38:
	.file	31 "/rustc/2c8cc343237b8f7d5a3c3703e3a87f2eb2c54a74/library/core/src/fmt" "mod.rs"
	.loc	31 2377 0
	.cfi_startproc
	pushq	%rbp
	.cfi_def_cfa_offset 16
	.cfi_offset %rbp, -16
	movq	%rsp, %rbp
	.cfi_def_cfa_register %rbp
	subq	$16, %rsp
	movq	%rsi, %rdx
	movq	%rdi, %rax
	movq	%rax, -16(%rbp)
	movq	%rdx, -8(%rbp)
Ltmp434:
	.loc	31 2377 71 prologue_end
	movq	(%rax), %rdi
	movq	8(%rax), %rsi
	.loc	31 2377 62 is_stmt 0
	callq	__ZN52_$LT$std..path..Path$u20$as$u20$core..fmt..Debug$GT$3fmt17hbc50285c36725826E
	.loc	31 2377 84
	andb	$1, %al
	movzbl	%al, %eax
	addq	$16, %rsp
	popq	%rbp
	retq
Ltmp435:
Lfunc_end38:
	.cfi_endproc

	.p2align	4, 0x90
__ZN42_$LT$$RF$T$u20$as$u20$core..fmt..Debug$GT$3fmt17h5e7f7f16135a8f64E:
Lfunc_begin39:
	.loc	31 2377 0 is_stmt 1
	.cfi_startproc
	pushq	%rbp
	.cfi_def_cfa_offset 16
	.cfi_offset %rbp, -16
	movq	%rsp, %rbp
	.cfi_def_cfa_register %rbp
	subq	$16, %rsp
	movq	%rsi, %rdx
	movq	%rdi, %rax
	movq	%rax, -16(%rbp)
	movq	%rdx, -8(%rbp)
Ltmp436:
	.loc	31 2377 71 prologue_end
	movq	(%rax), %rdi
	movq	8(%rax), %rsi
	.loc	31 2377 62 is_stmt 0
	callq	__ZN40_$LT$str$u20$as$u20$core..fmt..Debug$GT$3fmt17h4564f13343f2ac60E
	.loc	31 2377 84
	andb	$1, %al
	movzbl	%al, %eax
	addq	$16, %rsp
	popq	%rbp
	retq
Ltmp437:
Lfunc_end39:
	.cfi_endproc

	.p2align	4, 0x90
__ZN44_$LT$$RF$T$u20$as$u20$core..fmt..Display$GT$3fmt17h4b6daccd714245bcE:
Lfunc_begin40:
	.loc	31 2377 0 is_stmt 1
	.cfi_startproc
	pushq	%rbp
	.cfi_def_cfa_offset 16
	.cfi_offset %rbp, -16
	movq	%rsp, %rbp
	.cfi_def_cfa_register %rbp
	subq	$16, %rsp
	movq	%rsi, %rdx
	movq	%rdi, %rax
	movq	%rax, -16(%rbp)
	movq	%rdx, -8(%rbp)
Ltmp438:
	.loc	31 2377 71 prologue_end
	movq	(%rax), %rdi
	movq	8(%rax), %rsi
	.loc	31 2377 62 is_stmt 0
	callq	__ZN42_$LT$str$u20$as$u20$core..fmt..Display$GT$3fmt17hd1cabce055ea2fbdE
	.loc	31 2377 84
	andb	$1, %al
	movzbl	%al, %eax
	addq	$16, %rsp
	popq	%rbp
	retq
Ltmp439:
Lfunc_end40:
	.cfi_endproc

	.p2align	4, 0x90
__ZN4core3fmt10ArgumentV111new_display17h513a0fe42f469c6aE:
Lfunc_begin41:
	.loc	31 327 0 is_stmt 1
	.cfi_startproc
	pushq	%rbp
	.cfi_def_cfa_offset 16
	.cfi_offset %rbp, -16
	movq	%rsp, %rbp
	.cfi_def_cfa_register %rbp
	subq	$56, %rsp
	movq	%rdi, -40(%rbp)
Ltmp440:
	.loc	31 328 23 prologue_end
	movq	%rdi, -32(%rbp)
	.loc	31 328 26 is_stmt 0
	leaq	__ZN44_$LT$$RF$T$u20$as$u20$core..fmt..Display$GT$3fmt17h4b6daccd714245bcE(%rip), %rax
	movq	%rax, -24(%rbp)
Ltmp441:
	.loc	31 347 42 is_stmt 1
	movq	%rax, -16(%rbp)
	movq	-16(%rbp), %rax
	.loc	31 347 68 is_stmt 0
	movq	%rdi, -8(%rbp)
	movq	-8(%rbp), %rcx
	.loc	31 347 18
	movq	%rcx, -56(%rbp)
	movq	%rax, -48(%rbp)
Ltmp442:
	.loc	31 329 10 is_stmt 1
	movq	-56(%rbp), %rax
	movq	-48(%rbp), %rdx
	addq	$56, %rsp
	popq	%rbp
	retq
Ltmp443:
Lfunc_end41:
	.cfi_endproc

	.p2align	4, 0x90
__ZN4core3fmt10ArgumentV19new_debug17h519c1184b64fb695E:
Lfunc_begin42:
	.loc	31 327 0
	.cfi_startproc
	pushq	%rbp
	.cfi_def_cfa_offset 16
	.cfi_offset %rbp, -16
	movq	%rsp, %rbp
	.cfi_def_cfa_register %rbp
	subq	$56, %rsp
	movq	%rdi, -40(%rbp)
Ltmp444:
	.loc	31 328 23 prologue_end
	movq	%rdi, -32(%rbp)
	.loc	31 328 26 is_stmt 0
	movq	__ZN55_$LT$std..path..PathBuf$u20$as$u20$core..fmt..Debug$GT$3fmt17h62cf8806274ce328E@GOTPCREL(%rip), %rax
	movq	%rax, -24(%rbp)
Ltmp445:
	.loc	31 347 42 is_stmt 1
	movq	%rax, -16(%rbp)
	movq	-16(%rbp), %rax
	.loc	31 347 68 is_stmt 0
	movq	%rdi, -8(%rbp)
	movq	-8(%rbp), %rcx
	.loc	31 347 18
	movq	%rcx, -56(%rbp)
	movq	%rax, -48(%rbp)
Ltmp446:
	.loc	31 329 10 is_stmt 1
	movq	-56(%rbp), %rax
	movq	-48(%rbp), %rdx
	addq	$56, %rsp
	popq	%rbp
	retq
Ltmp447:
Lfunc_end42:
	.cfi_endproc

	.p2align	4, 0x90
__ZN4core3fmt10ArgumentV19new_debug17h59ff242b4bd6c7c3E:
Lfunc_begin43:
	.loc	31 327 0
	.cfi_startproc
	pushq	%rbp
	.cfi_def_cfa_offset 16
	.cfi_offset %rbp, -16
	movq	%rsp, %rbp
	.cfi_def_cfa_register %rbp
	subq	$56, %rsp
	movq	%rdi, -40(%rbp)
Ltmp448:
	.loc	31 328 23 prologue_end
	movq	%rdi, -32(%rbp)
	.loc	31 328 26 is_stmt 0
	movq	__ZN58_$LT$std..process..Command$u20$as$u20$core..fmt..Debug$GT$3fmt17h39afebd60e57ac6eE@GOTPCREL(%rip), %rax
	movq	%rax, -24(%rbp)
Ltmp449:
	.loc	31 347 42 is_stmt 1
	movq	%rax, -16(%rbp)
	movq	-16(%rbp), %rax
	.loc	31 347 68 is_stmt 0
	movq	%rdi, -8(%rbp)
	movq	-8(%rbp), %rcx
	.loc	31 347 18
	movq	%rcx, -56(%rbp)
	movq	%rax, -48(%rbp)
Ltmp450:
	.loc	31 329 10 is_stmt 1
	movq	-56(%rbp), %rax
	movq	-48(%rbp), %rdx
	addq	$56, %rsp
	popq	%rbp
	retq
Ltmp451:
Lfunc_end43:
	.cfi_endproc

	.p2align	4, 0x90
__ZN4core3fmt10ArgumentV19new_debug17hc51e22b3cba68decE:
Lfunc_begin44:
	.loc	31 327 0
	.cfi_startproc
	pushq	%rbp
	.cfi_def_cfa_offset 16
	.cfi_offset %rbp, -16
	movq	%rsp, %rbp
	.cfi_def_cfa_register %rbp
	subq	$56, %rsp
	movq	%rdi, -40(%rbp)
Ltmp452:
	.loc	31 328 23 prologue_end
	movq	%rdi, -32(%rbp)
	.loc	31 328 26 is_stmt 0
	leaq	__ZN42_$LT$$RF$T$u20$as$u20$core..fmt..Debug$GT$3fmt17h5e7f7f16135a8f64E(%rip), %rax
	movq	%rax, -24(%rbp)
Ltmp453:
	.loc	31 347 42 is_stmt 1
	movq	%rax, -16(%rbp)
	movq	-16(%rbp), %rax
	.loc	31 347 68 is_stmt 0
	movq	%rdi, -8(%rbp)
	movq	-8(%rbp), %rcx
	.loc	31 347 18
	movq	%rcx, -56(%rbp)
	movq	%rax, -48(%rbp)
Ltmp454:
	.loc	31 329 10 is_stmt 1
	movq	-56(%rbp), %rax
	movq	-48(%rbp), %rdx
	addq	$56, %rsp
	popq	%rbp
	retq
Ltmp455:
Lfunc_end44:
	.cfi_endproc

	.p2align	4, 0x90
__ZN4core3fmt10ArgumentV19new_debug17hcd97c5f29bd15325E:
Lfunc_begin45:
	.loc	31 327 0
	.cfi_startproc
	pushq	%rbp
	.cfi_def_cfa_offset 16
	.cfi_offset %rbp, -16
	movq	%rsp, %rbp
	.cfi_def_cfa_register %rbp
	subq	$56, %rsp
	movq	%rdi, -40(%rbp)
Ltmp456:
	.loc	31 328 23 prologue_end
	movq	%rdi, -32(%rbp)
	.loc	31 328 26 is_stmt 0
	leaq	__ZN42_$LT$$RF$T$u20$as$u20$core..fmt..Debug$GT$3fmt17h2d48c0f16025c4e1E(%rip), %rax
	movq	%rax, -24(%rbp)
Ltmp457:
	.loc	31 347 42 is_stmt 1
	movq	%rax, -16(%rbp)
	movq	-16(%rbp), %rax
	.loc	31 347 68 is_stmt 0
	movq	%rdi, -8(%rbp)
	movq	-8(%rbp), %rcx
	.loc	31 347 18
	movq	%rcx, -56(%rbp)
	movq	%rax, -48(%rbp)
Ltmp458:
	.loc	31 329 10 is_stmt 1
	movq	-56(%rbp), %rax
	movq	-48(%rbp), %rdx
	addq	$56, %rsp
	popq	%rbp
	retq
Ltmp459:
Lfunc_end45:
	.cfi_endproc

	.p2align	4, 0x90
__ZN4core3fmt9Arguments6as_str17hdf7da9f579f88413E:
Lfunc_begin46:
	.loc	31 521 0
	.cfi_startproc
	pushq	%rbp
	.cfi_def_cfa_offset 16
	.cfi_offset %rbp, -16
	movq	%rsp, %rbp
	.cfi_def_cfa_register %rbp
	subq	$64, %rsp
	movq	%rdi, -16(%rbp)
Ltmp460:
	.loc	31 522 16 prologue_end
	movq	16(%rdi), %rsi
	movq	24(%rdi), %rdx
	.loc	31 522 29 is_stmt 0
	movq	32(%rdi), %rcx
	movq	40(%rdi), %rax
	.loc	31 522 15
	movq	%rsi, -48(%rbp)
	movq	%rdx, -40(%rbp)
	movq	%rcx, -32(%rbp)
	movq	%rax, -24(%rbp)
	.loc	31 523 14 is_stmt 1
	cmpq	$0, -40(%rbp)
	je	LBB46_2
	.loc	31 524 14
	cmpq	$1, -40(%rbp)
	je	LBB46_6
	jmp	LBB46_3
LBB46_2:
	.loc	31 523 18
	cmpq	$0, -24(%rbp)
	je	LBB46_4
LBB46_3:
	.loc	31 525 18
	movq	$0, -64(%rbp)
	jmp	LBB46_5
LBB46_4:
	.loc	31 523 25
	leaq	l___unnamed_7(%rip), %rax
	movq	%rax, -64(%rbp)
	movq	$0, -56(%rbp)
LBB46_5:
	.loc	31 527 6
	movq	-64(%rbp), %rax
	movq	-56(%rbp), %rdx
	addq	$64, %rsp
	popq	%rbp
	retq
LBB46_6:
	.loc	31 524 19
	cmpq	$0, -24(%rbp)
	jne	LBB46_3
	.loc	31 524 15 is_stmt 0
	movq	-48(%rbp), %rax
	movq	%rax, -8(%rbp)
Ltmp461:
	.loc	31 524 31
	movq	(%rax), %rcx
	movq	8(%rax), %rax
	.loc	31 524 26
	movq	%rcx, -64(%rbp)
	movq	%rax, -56(%rbp)
Ltmp462:
	.loc	31 524 32
	jmp	LBB46_5
Ltmp463:
Lfunc_end46:
	.cfi_endproc

	.p2align	4, 0x90
__ZN4core3fmt9Arguments6new_v117hdacd1202fdb7b9a1E:
Lfunc_begin47:
	.loc	31 399 0 is_stmt 1
	.cfi_startproc
	pushq	%rbp
	.cfi_def_cfa_offset 16
	.cfi_offset %rbp, -16
	movq	%rsp, %rbp
	.cfi_def_cfa_register %rbp
	subq	$160, %rsp
	movq	%r8, -152(%rbp)
	movq	%rcx, -144(%rbp)
	movq	%rdx, -136(%rbp)
	movq	%rsi, -128(%rbp)
	movq	%rdi, -120(%rbp)
	movq	%rdi, -112(%rbp)
	movq	%rsi, -32(%rbp)
	movq	%rdx, -24(%rbp)
	movq	%rcx, -16(%rbp)
	movq	%r8, -8(%rbp)
Ltmp464:
	.loc	31 400 12 prologue_end
	cmpq	%r8, %rdx
	jb	LBB47_2
	.loc	31 0 12 is_stmt 0
	movq	-136(%rbp), %rax
	movq	-152(%rbp), %rcx
	.loc	31 400 56
	addq	$1, %rcx
	.loc	31 400 41
	cmpq	%rcx, %rax
	seta	%al
	.loc	31 400 12
	andb	$1, %al
	movb	%al, -97(%rbp)
	jmp	LBB47_3
LBB47_2:
	movb	$1, -97(%rbp)
LBB47_3:
	testb	$1, -97(%rbp)
	jne	LBB47_5
	.loc	31 0 12
	movq	-112(%rbp), %rax
	movq	-120(%rbp), %rcx
	movq	-152(%rbp), %rdx
	movq	-144(%rbp), %rsi
	movq	-136(%rbp), %rdi
	movq	-128(%rbp), %r8
	.loc	31 403 34 is_stmt 1
	movq	$0, -48(%rbp)
	.loc	31 403 9 is_stmt 0
	movq	%r8, 16(%rcx)
	movq	%rdi, 24(%rcx)
	movq	-48(%rbp), %r8
	movq	-40(%rbp), %rdi
	movq	%r8, (%rcx)
	movq	%rdi, 8(%rcx)
	movq	%rsi, 32(%rcx)
	movq	%rdx, 40(%rcx)
	.loc	31 404 6 is_stmt 1
	addq	$160, %rsp
	popq	%rbp
	retq
LBB47_5:
	.loc	31 401 13
	leaq	l___unnamed_8(%rip), %rsi
	leaq	l___unnamed_7(%rip), %rcx
	xorl	%eax, %eax
	movl	%eax, %r8d
	leaq	-96(%rbp), %rdi
	movq	%rdi, -160(%rbp)
	movl	$1, %edx
	callq	__ZN4core3fmt9Arguments6new_v117hdacd1202fdb7b9a1E
	movq	-160(%rbp), %rdi
	leaq	l___unnamed_9(%rip), %rsi
	callq	__ZN4core9panicking9panic_fmt17h9b5d807e24bcaaedE
Ltmp465:
Lfunc_end47:
	.cfi_endproc

	.p2align	4, 0x90
__ZN4core3mem12maybe_uninit20MaybeUninit$LT$T$GT$16assume_init_drop17h4a580066d29789c0E:
Lfunc_begin48:
	.file	32 "/rustc/2c8cc343237b8f7d5a3c3703e3a87f2eb2c54a74/library/core/src/mem" "maybe_uninit.rs"
	.loc	32 724 0
	.cfi_startproc
	pushq	%rbp
	.cfi_def_cfa_offset 16
	.cfi_offset %rbp, -16
	movq	%rsp, %rbp
	.cfi_def_cfa_register %rbp
	subq	$16, %rsp
	movq	%rdi, -16(%rbp)
Ltmp466:
	.loc	32 728 37 prologue_end
	movq	%rdi, -8(%rbp)
	.loc	32 728 18 is_stmt 0
	callq	__ZN4core3ptr47drop_in_place$LT$std..ffi..os_str..OsString$GT$17hf82b070c725cf247E
	.loc	32 729 6 is_stmt 1
	addq	$16, %rsp
	popq	%rbp
	retq
Ltmp467:
Lfunc_end48:
	.cfi_endproc

	.p2align	4, 0x90
__ZN4core3mem12maybe_uninit20MaybeUninit$LT$T$GT$16assume_init_drop17hddd40f02498d1154E:
Lfunc_begin49:
	.loc	32 724 0
	.cfi_startproc
	pushq	%rbp
	.cfi_def_cfa_offset 16
	.cfi_offset %rbp, -16
	movq	%rsp, %rbp
	.cfi_def_cfa_register %rbp
	subq	$16, %rsp
	movq	%rdi, -16(%rbp)
Ltmp468:
	.loc	32 728 37 prologue_end
	movq	%rdi, -8(%rbp)
	.loc	32 728 18 is_stmt 0
	callq	__ZN4core3ptr75drop_in_place$LT$core..option..Option$LT$std..ffi..os_str..OsString$GT$$GT$17hd03223ea987e98f5E
	.loc	32 729 6 is_stmt 1
	addq	$16, %rsp
	popq	%rbp
	retq
Ltmp469:
Lfunc_end49:
	.cfi_endproc

	.p2align	4, 0x90
__ZN4core3mem7replace17h9b628d6f25a5d21aE:
Lfunc_begin50:
	.file	33 "/rustc/2c8cc343237b8f7d5a3c3703e3a87f2eb2c54a74/library/core/src/mem" "mod.rs"
	.loc	33 905 0
	.cfi_startproc
	pushq	%rbp
	.cfi_def_cfa_offset 16
	.cfi_offset %rbp, -16
	movq	%rsp, %rbp
	.cfi_def_cfa_register %rbp
	subq	$208, %rsp
	movq	%rdx, -208(%rbp)
Ltmp470:
	movq	%rsi, -200(%rbp)
	movq	%rdi, -192(%rbp)
	movq	%rdi, -184(%rbp)
	movq	%rsi, -48(%rbp)
Ltmp471:
	.loc	33 910 32 prologue_end
	movq	%rsi, -40(%rbp)
Ltmp472:
	.loc	3 1157 34
	leaq	-144(%rbp), %rax
	movq	%rax, -32(%rbp)
	.loc	3 1157 9 is_stmt 0
	movq	(%rsi), %rax
	movq	%rax, -144(%rbp)
	movq	8(%rsi), %rax
	movq	%rax, -136(%rbp)
	movq	16(%rsi), %rax
	movq	%rax, -128(%rbp)
	movq	24(%rsi), %rax
	movq	%rax, -120(%rbp)
	.loc	3 1158 9 is_stmt 1
	movq	-144(%rbp), %rax
	movq	%rax, -112(%rbp)
	movq	-136(%rbp), %rax
	movq	%rax, -104(%rbp)
	movq	-128(%rbp), %rax
	movq	%rax, -96(%rbp)
	movq	-120(%rbp), %rax
	movq	%rax, -88(%rbp)
Ltmp473:
	.loc	3 0 9 is_stmt 0
	movq	-184(%rbp), %rax
	movq	-200(%rbp), %rcx
	movq	-208(%rbp), %rdx
	movq	-192(%rbp), %rsi
Ltmp474:
	.loc	32 627 38 is_stmt 1
	movq	-112(%rbp), %rdi
	movq	%rdi, -80(%rbp)
	movq	-104(%rbp), %rdi
	movq	%rdi, -72(%rbp)
	movq	-96(%rbp), %rdi
	movq	%rdi, -64(%rbp)
	movq	-88(%rbp), %rdi
	movq	%rdi, -56(%rbp)
Ltmp475:
	.loc	6 89 9
	movq	-80(%rbp), %rdi
	movq	%rdi, (%rsi)
	movq	-72(%rbp), %rdi
	movq	%rdi, 8(%rsi)
	movq	-64(%rbp), %rdi
	movq	%rdi, 16(%rsi)
	movq	-56(%rbp), %rdi
	movq	%rdi, 24(%rsi)
Ltmp476:
	.loc	33 911 20
	movq	%rcx, -8(%rbp)
	.loc	33 911 26 is_stmt 0
	movq	(%rdx), %rsi
	movq	%rsi, -176(%rbp)
	movq	8(%rdx), %rsi
	movq	%rsi, -168(%rbp)
	movq	16(%rdx), %rsi
	movq	%rsi, -160(%rbp)
	movq	24(%rdx), %rdx
	movq	%rdx, -152(%rbp)
Ltmp477:
	.loc	3 1354 9 is_stmt 1
	movq	-176(%rbp), %rdx
	movq	%rdx, (%rcx)
	movq	-168(%rbp), %rdx
	movq	%rdx, 8(%rcx)
	movq	-160(%rbp), %rdx
	movq	%rdx, 16(%rcx)
	movq	-152(%rbp), %rdx
	movq	%rdx, 24(%rcx)
Ltmp478:
	.loc	33 914 2
	addq	$208, %rsp
	popq	%rbp
	retq
Ltmp479:
Lfunc_end50:
	.cfi_endproc

	.p2align	4, 0x90
__ZN4core3mem7replace17hdf82e6ac95f32bc6E:
Lfunc_begin51:
	.loc	33 905 0
	.cfi_startproc
	pushq	%rbp
	.cfi_def_cfa_offset 16
	.cfi_offset %rbp, -16
	movq	%rsp, %rbp
	.cfi_def_cfa_register %rbp
	subq	$184, %rsp
	movq	%rdi, -184(%rbp)
	movq	%rsi, -176(%rbp)
	movq	%rdx, -168(%rbp)
	movq	%rdi, -112(%rbp)
	movq	%rsi, -104(%rbp)
	movq	%rdx, -96(%rbp)
Ltmp480:
	.loc	33 910 32 prologue_end
	movq	%rdi, -88(%rbp)
Ltmp481:
	.loc	3 1157 34
	leaq	-128(%rbp), %rax
	movq	%rax, -80(%rbp)
	.loc	3 1157 9 is_stmt 0
	movq	(%rdi), %rax
	movq	%rax, -128(%rbp)
	movq	8(%rdi), %rax
	movq	%rax, -120(%rbp)
	.loc	3 1158 9 is_stmt 1
	movq	-128(%rbp), %rcx
	movq	%rcx, -160(%rbp)
	movq	-120(%rbp), %rax
	movq	%rax, -152(%rbp)
	movq	%rcx, -72(%rbp)
	movq	%rax, -64(%rbp)
	.loc	3 0 9 is_stmt 0
	movq	-152(%rbp), %rdx
	movq	-160(%rbp), %rax
	movq	-184(%rbp), %rcx
	movq	-168(%rbp), %rsi
	movq	-176(%rbp), %rdi
Ltmp482:
	.loc	32 627 38 is_stmt 1
	movq	%rax, -40(%rbp)
	movq	%rdx, -32(%rbp)
Ltmp483:
	.loc	6 89 9
	movq	%rax, -24(%rbp)
	movq	%rdx, -16(%rbp)
Ltmp484:
	.loc	33 911 20
	movq	%rcx, -8(%rbp)
	.loc	33 911 26 is_stmt 0
	movq	%rdi, -144(%rbp)
	movq	%rsi, -136(%rbp)
Ltmp485:
	.loc	3 1354 9 is_stmt 1
	movq	-144(%rbp), %rsi
	movq	-136(%rbp), %rdi
	movq	%rdi, 8(%rcx)
	movq	%rsi, (%rcx)
Ltmp486:
	.loc	33 914 2
	addq	$184, %rsp
	popq	%rbp
	retq
Ltmp487:
Lfunc_end51:
	.cfi_endproc

	.p2align	4, 0x90
__ZN4core3ops8function6FnOnce40call_once$u7b$$u7b$vtable.shim$u7d$$u7d$17h69869f5cbff8ff73E:
Lfunc_begin52:
	.file	34 "/rustc/2c8cc343237b8f7d5a3c3703e3a87f2eb2c54a74/library/core/src/ops" "function.rs"
	.loc	34 250 0
	.cfi_startproc
	pushq	%rbp
	.cfi_def_cfa_offset 16
	.cfi_offset %rbp, -16
	movq	%rsp, %rbp
	.cfi_def_cfa_register %rbp
	subq	$16, %rsp
	movq	%rdi, -8(%rbp)
Ltmp488:
	.loc	34 250 5 prologue_end
	movq	(%rdi), %rdi
	callq	__ZN4core3ops8function6FnOnce9call_once17h751f2998331b4ff8E
	addq	$16, %rsp
	popq	%rbp
	retq
Ltmp489:
Lfunc_end52:
	.cfi_endproc

	.p2align	4, 0x90
__ZN4core3ops8function6FnOnce9call_once17h1cf5f9aba2dd1994E:
Lfunc_begin53:
	.loc	34 250 0
	.cfi_startproc
	pushq	%rbp
	.cfi_def_cfa_offset 16
	.cfi_offset %rbp, -16
	movq	%rsp, %rbp
	.cfi_def_cfa_register %rbp
	subq	$32, %rsp
	movq	%rdi, %rax
	movq	%rax, -32(%rbp)
	movq	%rsi, -24(%rbp)
	movq	%rdx, -16(%rbp)
Ltmp490:
	.loc	34 250 5 prologue_end
	movq	-24(%rbp), %rsi
	movq	-16(%rbp), %rdx
	callq	__ZN5alloc3str56_$LT$impl$u20$alloc..borrow..ToOwned$u20$for$u20$str$GT$8to_owned17h571233efa01e0c6eE
	movq	-32(%rbp), %rax
	addq	$32, %rsp
	popq	%rbp
	retq
Ltmp491:
Lfunc_end53:
	.cfi_endproc

	.p2align	4, 0x90
__ZN4core3ops8function6FnOnce9call_once17h751f2998331b4ff8E:
Lfunc_begin54:
	.loc	34 250 0
	.cfi_startproc
	.cfi_personality 155, _rust_eh_personality
	.cfi_lsda 16, Lexception16
	pushq	%rbp
	.cfi_def_cfa_offset 16
	.cfi_offset %rbp, -16
	movq	%rsp, %rbp
	.cfi_def_cfa_register %rbp
	subq	$48, %rsp
	movq	%rdi, -32(%rbp)
Ltmp492:
	leaq	-32(%rbp), %rdi
Ltmp495:
	.loc	34 250 5 prologue_end
	callq	__ZN3std2rt10lang_start28_$u7b$$u7b$closure$u7d$$u7d$17h3ecbf50f07fda551E
Ltmp493:
	movl	%eax, -36(%rbp)
	jmp	LBB54_3
LBB54_1:
	movq	-16(%rbp), %rdi
	callq	__Unwind_Resume
LBB54_2:
Ltmp494:
	.loc	34 0 5 is_stmt 0
	movq	%rax, %rcx
	movl	%edx, %eax
	movq	%rcx, -16(%rbp)
	movl	%eax, -8(%rbp)
	jmp	LBB54_1
LBB54_3:
	movl	-36(%rbp), %eax
	.loc	34 250 5
	addq	$48, %rsp
	popq	%rbp
	retq
Ltmp496:
Lfunc_end54:
	.cfi_endproc
	.section	__TEXT,__gcc_except_tab
	.p2align	2
GCC_except_table54:
Lexception16:
	.byte	255
	.byte	255
	.byte	1
	.uleb128 Lcst_end16-Lcst_begin16
Lcst_begin16:
	.uleb128 Ltmp492-Lfunc_begin54
	.uleb128 Ltmp493-Ltmp492
	.uleb128 Ltmp494-Lfunc_begin54
	.byte	0
	.uleb128 Ltmp493-Lfunc_begin54
	.uleb128 Lfunc_end54-Ltmp493
	.byte	0
	.byte	0
Lcst_end16:
	.p2align	2

	.section	__TEXT,__text,regular,pure_instructions
	.p2align	4, 0x90
__ZN4core3ops8function6FnOnce9call_once17h88ff85b1d725ad30E:
Lfunc_begin55:
	.loc	34 250 0 is_stmt 1
	.cfi_startproc
	pushq	%rbp
	.cfi_def_cfa_offset 16
	.cfi_offset %rbp, -16
	movq	%rsp, %rbp
	.cfi_def_cfa_register %rbp
	subq	$176, %rsp
	movq	%rdi, -168(%rbp)
	movq	%rdi, -160(%rbp)
	leaq	-152(%rbp), %rdi
	movl	$144, %edx
	callq	_memcpy
	movq	-168(%rbp), %rdi
Ltmp497:
	.loc	34 250 5 prologue_end
	leaq	-152(%rbp), %rsi
	callq	__ZN3std2fs8Metadata17h1fed41c5b2f914f7E
	movq	-160(%rbp), %rax
	addq	$176, %rsp
	popq	%rbp
	retq
Ltmp498:
Lfunc_end55:
	.cfi_endproc

	.p2align	4, 0x90
__ZN4core3ops8function6FnOnce9call_once17hda6bccd5c620cdecE:
Lfunc_begin56:
	.loc	34 250 0
	.cfi_startproc
	pushq	%rbp
	.cfi_def_cfa_offset 16
	.cfi_offset %rbp, -16
	movq	%rsp, %rbp
	.cfi_def_cfa_register %rbp
	subq	$16, %rsp
	movq	%rdi, -8(%rbp)
Ltmp499:
	.loc	34 250 5 prologue_end
	callq	*%rdi
	addq	$16, %rsp
	popq	%rbp
	retq
Ltmp500:
Lfunc_end56:
	.cfi_endproc

	.p2align	4, 0x90
__ZN4core3ptr101drop_in_place$LT$std..io..error..ErrorData$LT$alloc..boxed..Box$LT$std..io..error..Custom$GT$$GT$$GT$17h4c4736f806ff57c9E:
Lfunc_begin57:
	.loc	3 490 0
	.cfi_startproc
	pushq	%rbp
	.cfi_def_cfa_offset 16
	.cfi_offset %rbp, -16
	movq	%rsp, %rbp
	.cfi_def_cfa_register %rbp
	subq	$16, %rsp
	movq	%rdi, -16(%rbp)
	movq	%rdi, -8(%rbp)
Ltmp501:
	.loc	3 490 1 prologue_end
	movb	(%rdi), %al
	subb	$3, %al
	jb	LBB57_2
	jmp	LBB57_1
LBB57_1:
	.loc	3 0 1 is_stmt 0
	movq	-16(%rbp), %rdi
	.loc	3 490 1
	addq	$8, %rdi
	callq	__ZN4core3ptr68drop_in_place$LT$alloc..boxed..Box$LT$std..io..error..Custom$GT$$GT$17h6dcc30973b05808fE
LBB57_2:
	addq	$16, %rsp
	popq	%rbp
	retq
Ltmp502:
Lfunc_end57:
	.cfi_endproc

	.p2align	4, 0x90
__ZN4core3ptr118drop_in_place$LT$alloc..boxed..Box$LT$dyn$u20$core..error..Error$u2b$core..marker..Send$u2b$core..marker..Sync$GT$$GT$17h6b8be1aec776e0e6E:
Lfunc_begin58:
	.loc	3 490 0 is_stmt 1
	.cfi_startproc
	.cfi_personality 155, _rust_eh_personality
	.cfi_lsda 16, Lexception17
	pushq	%rbp
	.cfi_def_cfa_offset 16
	.cfi_offset %rbp, -16
	movq	%rsp, %rbp
	.cfi_def_cfa_register %rbp
	subq	$32, %rsp
	movq	%rdi, %rax
	movq	%rax, -32(%rbp)
	movq	%rax, -24(%rbp)
Ltmp509:
	.loc	3 490 1 prologue_end
	movq	(%rax), %rdi
	movq	8(%rax), %rax
	movq	(%rax), %rax
Ltmp503:
	callq	*%rax
Ltmp504:
	jmp	LBB58_3
LBB58_1:
	.loc	3 0 1 is_stmt 0
	movq	-32(%rbp), %rax
	.loc	3 490 1
	movq	(%rax), %rdi
	movq	8(%rax), %rsi
Ltmp506:
	callq	__ZN5alloc5alloc8box_free17h51eb5636e88dc3d8E
Ltmp507:
	jmp	LBB58_5
LBB58_2:
Ltmp505:
	.loc	3 0 1
	movq	%rax, %rcx
	movl	%edx, %eax
	movq	%rcx, -16(%rbp)
	movl	%eax, -8(%rbp)
	jmp	LBB58_1
LBB58_3:
	movq	-32(%rbp), %rax
	.loc	3 490 1
	movq	(%rax), %rdi
	movq	8(%rax), %rsi
	callq	__ZN5alloc5alloc8box_free17h51eb5636e88dc3d8E
	addq	$32, %rsp
	popq	%rbp
	retq
LBB58_4:
Ltmp508:
	callq	__ZN4core9panicking19panic_cannot_unwind17h1fbca7e1d7f56ae1E
LBB58_5:
	movq	-16(%rbp), %rdi
	callq	__Unwind_Resume
Ltmp510:
Lfunc_end58:
	.cfi_endproc
	.section	__TEXT,__gcc_except_tab
	.p2align	2
GCC_except_table58:
Lexception17:
	.byte	255
	.byte	255
	.byte	1
	.uleb128 Lcst_end17-Lcst_begin17
Lcst_begin17:
	.uleb128 Ltmp503-Lfunc_begin58
	.uleb128 Ltmp504-Ltmp503
	.uleb128 Ltmp505-Lfunc_begin58
	.byte	0
	.uleb128 Ltmp506-Lfunc_begin58
	.uleb128 Ltmp507-Ltmp506
	.uleb128 Ltmp508-Lfunc_begin58
	.byte	0
	.uleb128 Ltmp507-Lfunc_begin58
	.uleb128 Lfunc_end58-Ltmp507
	.byte	0
	.byte	0
Lcst_end17:
	.p2align	2

	.section	__TEXT,__text,regular,pure_instructions
	.p2align	4, 0x90
__ZN4core3ptr152drop_in_place$LT$alloc..collections..btree..map..BTreeMap$LT$std..ffi..os_str..OsString$C$core..option..Option$LT$std..ffi..os_str..OsString$GT$$GT$$GT$17h569e09d69f2c0043E:
Lfunc_begin59:
	.loc	3 490 0 is_stmt 1
	.cfi_startproc
	pushq	%rbp
	.cfi_def_cfa_offset 16
	.cfi_offset %rbp, -16
	movq	%rsp, %rbp
	.cfi_def_cfa_register %rbp
	subq	$16, %rsp
	movq	%rdi, -8(%rbp)
Ltmp511:
	.loc	3 490 1 prologue_end
	callq	__ZN99_$LT$alloc..collections..btree..map..BTreeMap$LT$K$C$V$C$A$GT$$u20$as$u20$core..ops..drop..Drop$GT$4drop17h6da5faa9bcc114cbE
	addq	$16, %rsp
	popq	%rbp
	retq
Ltmp512:
Lfunc_end59:
	.cfi_endproc

	.p2align	4, 0x90
__ZN4core3ptr152drop_in_place$LT$alloc..collections..btree..map..IntoIter$LT$std..ffi..os_str..OsString$C$core..option..Option$LT$std..ffi..os_str..OsString$GT$$GT$$GT$17h052b5cac53a74c7dE:
Lfunc_begin60:
	.loc	3 490 0
	.cfi_startproc
	pushq	%rbp
	.cfi_def_cfa_offset 16
	.cfi_offset %rbp, -16
	movq	%rsp, %rbp
	.cfi_def_cfa_register %rbp
	subq	$16, %rsp
	movq	%rdi, -8(%rbp)
Ltmp513:
	.loc	3 490 1 prologue_end
	callq	__ZN99_$LT$alloc..collections..btree..map..IntoIter$LT$K$C$V$C$A$GT$$u20$as$u20$core..ops..drop..Drop$GT$4drop17h7449b1711dd1bf75E
	addq	$16, %rsp
	popq	%rbp
	retq
Ltmp514:
Lfunc_end60:
	.cfi_endproc

	.p2align	4, 0x90
__ZN4core3ptr203drop_in_place$LT$dyn$u20$core..ops..function..FnMut$LT$$LP$$RP$$GT$$u2b$Output$u20$$u3d$$u20$core..result..Result$LT$$LP$$RP$$C$std..io..error..Error$GT$$u2b$core..marker..Send$u2b$core..marker..Sync$GT$17h165eba0b86dfaf84E:
Lfunc_begin61:
	.loc	3 490 0
	.cfi_startproc
	pushq	%rbp
	.cfi_def_cfa_offset 16
	.cfi_offset %rbp, -16
	movq	%rsp, %rbp
	.cfi_def_cfa_register %rbp
	subq	$16, %rsp
	movq	%rdi, -16(%rbp)
	movq	%rsi, -8(%rbp)
Ltmp515:
	.loc	3 490 1 prologue_end
	callq	*(%rsi)
	addq	$16, %rsp
	popq	%rbp
	retq
Ltmp516:
Lfunc_end61:
	.cfi_endproc

	.p2align	4, 0x90
__ZN4core3ptr228drop_in_place$LT$alloc..boxed..Box$LT$dyn$u20$core..ops..function..FnMut$LT$$LP$$RP$$GT$$u2b$Output$u20$$u3d$$u20$core..result..Result$LT$$LP$$RP$$C$std..io..error..Error$GT$$u2b$core..marker..Send$u2b$core..marker..Sync$GT$$GT$17h422937863be52a60E:
Lfunc_begin62:
	.loc	3 490 0
	.cfi_startproc
	.cfi_personality 155, _rust_eh_personality
	.cfi_lsda 16, Lexception18
	pushq	%rbp
	.cfi_def_cfa_offset 16
	.cfi_offset %rbp, -16
	movq	%rsp, %rbp
	.cfi_def_cfa_register %rbp
	subq	$32, %rsp
	movq	%rdi, %rax
	movq	%rax, -32(%rbp)
	movq	%rax, -24(%rbp)
Ltmp523:
	.loc	3 490 1 prologue_end
	movq	(%rax), %rdi
	movq	8(%rax), %rax
	movq	(%rax), %rax
Ltmp517:
	callq	*%rax
Ltmp518:
	jmp	LBB62_3
LBB62_1:
	.loc	3 0 1 is_stmt 0
	movq	-32(%rbp), %rax
	.loc	3 490 1
	movq	(%rax), %rdi
	movq	8(%rax), %rsi
Ltmp520:
	callq	__ZN5alloc5alloc8box_free17h2b258618f5f198e4E
Ltmp521:
	jmp	LBB62_5
LBB62_2:
Ltmp519:
	.loc	3 0 1
	movq	%rax, %rcx
	movl	%edx, %eax
	movq	%rcx, -16(%rbp)
	movl	%eax, -8(%rbp)
	jmp	LBB62_1
LBB62_3:
	movq	-32(%rbp), %rax
	.loc	3 490 1
	movq	(%rax), %rdi
	movq	8(%rax), %rsi
	callq	__ZN5alloc5alloc8box_free17h2b258618f5f198e4E
	addq	$32, %rsp
	popq	%rbp
	retq
LBB62_4:
Ltmp522:
	callq	__ZN4core9panicking19panic_cannot_unwind17h1fbca7e1d7f56ae1E
LBB62_5:
	movq	-16(%rbp), %rdi
	callq	__Unwind_Resume
Ltmp524:
Lfunc_end62:
	.cfi_endproc
	.section	__TEXT,__gcc_except_tab
	.p2align	2
GCC_except_table62:
Lexception18:
	.byte	255
	.byte	255
	.byte	1
	.uleb128 Lcst_end18-Lcst_begin18
Lcst_begin18:
	.uleb128 Ltmp517-Lfunc_begin62
	.uleb128 Ltmp518-Ltmp517
	.uleb128 Ltmp519-Lfunc_begin62
	.byte	0
	.uleb128 Ltmp520-Lfunc_begin62
	.uleb128 Ltmp521-Ltmp520
	.uleb128 Ltmp522-Lfunc_begin62
	.byte	0
	.uleb128 Ltmp521-Lfunc_begin62
	.uleb128 Lfunc_end62-Ltmp521
	.byte	0
	.byte	0
Lcst_end18:
	.p2align	2

	.section	__TEXT,__text,regular,pure_instructions
	.p2align	4, 0x90
__ZN4core3ptr238drop_in_place$LT$$u5b$alloc..boxed..Box$LT$dyn$u20$core..ops..function..FnMut$LT$$LP$$RP$$GT$$u2b$Output$u20$$u3d$$u20$core..result..Result$LT$$LP$$RP$$C$std..io..error..Error$GT$$u2b$core..marker..Send$u2b$core..marker..Sync$GT$$u5d$$GT$17hdeff1d73dc53fcf5E:
Lfunc_begin63:
	.loc	3 490 0 is_stmt 1
	.cfi_startproc
	.cfi_personality 155, _rust_eh_personality
	.cfi_lsda 16, Lexception19
	pushq	%rbp
	.cfi_def_cfa_offset 16
	.cfi_offset %rbp, -16
	movq	%rsp, %rbp
	.cfi_def_cfa_register %rbp
	subq	$80, %rsp
	movq	%rdi, -64(%rbp)
	movq	%rsi, -56(%rbp)
	movq	%rdi, -32(%rbp)
	movq	%rsi, -24(%rbp)
Ltmp536:
	.loc	3 490 1 prologue_end
	xorl	%eax, %eax
	testb	$1, %al
	jne	LBB63_1
	jmp	LBB63_2
LBB63_1:
	movq	$0, -48(%rbp)
	jmp	LBB63_11
LBB63_2:
	.loc	3 0 1 is_stmt 0
	movq	-56(%rbp), %rax
	movq	-64(%rbp), %rcx
	.loc	3 490 1
	movq	%rcx, -40(%rbp)
	shlq	$4, %rax
	addq	-40(%rbp), %rax
	movq	%rax, -72(%rbp)
LBB63_3:
	.loc	3 0 1
	movq	-72(%rbp), %rax
	.loc	3 490 1
	cmpq	%rax, -40(%rbp)
	je	LBB63_5
	movq	-40(%rbp), %rdi
	movq	%rdi, %rax
	addq	$16, %rax
	movq	%rax, -40(%rbp)
Ltmp525:
	callq	__ZN4core3ptr228drop_in_place$LT$alloc..boxed..Box$LT$dyn$u20$core..ops..function..FnMut$LT$$LP$$RP$$GT$$u2b$Output$u20$$u3d$$u20$core..result..Result$LT$$LP$$RP$$C$std..io..error..Error$GT$$u2b$core..marker..Send$u2b$core..marker..Sync$GT$$GT$17h422937863be52a60E
Ltmp526:
	jmp	LBB63_3
LBB63_5:
	addq	$80, %rsp
	popq	%rbp
	retq
LBB63_6:
	.loc	3 0 1
	movq	-72(%rbp), %rax
	.loc	3 490 1
	cmpq	%rax, -40(%rbp)
	je	LBB63_9
	jmp	LBB63_8
LBB63_7:
Ltmp527:
	.loc	3 0 1
	movq	%rax, %rcx
	movl	%edx, %eax
	movq	%rcx, -16(%rbp)
	movl	%eax, -8(%rbp)
	jmp	LBB63_6
LBB63_8:
	.loc	3 490 1
	movq	-40(%rbp), %rdi
	movq	%rdi, %rax
	addq	$16, %rax
	movq	%rax, -40(%rbp)
Ltmp528:
	callq	__ZN4core3ptr228drop_in_place$LT$alloc..boxed..Box$LT$dyn$u20$core..ops..function..FnMut$LT$$LP$$RP$$GT$$u2b$Output$u20$$u3d$$u20$core..result..Result$LT$$LP$$RP$$C$std..io..error..Error$GT$$u2b$core..marker..Send$u2b$core..marker..Sync$GT$$GT$17h422937863be52a60E
Ltmp529:
	jmp	LBB63_6
LBB63_9:
	movq	-16(%rbp), %rdi
	callq	__Unwind_Resume
LBB63_10:
Ltmp535:
	callq	__ZN4core9panicking19panic_cannot_unwind17h1fbca7e1d7f56ae1E
LBB63_11:
	.loc	3 0 1
	movq	-56(%rbp), %rax
	.loc	3 490 1
	cmpq	%rax, -48(%rbp)
	je	LBB63_5
	.loc	3 0 1
	movq	-64(%rbp), %rdi
	.loc	3 490 1
	movq	-48(%rbp), %rax
	movq	%rax, %rcx
	shlq	$4, %rcx
	addq	%rcx, %rdi
	incq	%rax
	movq	%rax, -48(%rbp)
Ltmp530:
	callq	__ZN4core3ptr228drop_in_place$LT$alloc..boxed..Box$LT$dyn$u20$core..ops..function..FnMut$LT$$LP$$RP$$GT$$u2b$Output$u20$$u3d$$u20$core..result..Result$LT$$LP$$RP$$C$std..io..error..Error$GT$$u2b$core..marker..Send$u2b$core..marker..Sync$GT$$GT$17h422937863be52a60E
Ltmp531:
	jmp	LBB63_11
LBB63_13:
	.loc	3 0 1
	movq	-56(%rbp), %rax
	.loc	3 490 1
	cmpq	%rax, -48(%rbp)
	je	LBB63_9
	jmp	LBB63_15
LBB63_14:
Ltmp532:
	.loc	3 0 1
	movq	%rax, %rcx
	movl	%edx, %eax
	movq	%rcx, -16(%rbp)
	movl	%eax, -8(%rbp)
	jmp	LBB63_13
LBB63_15:
	movq	-64(%rbp), %rdi
	.loc	3 490 1
	movq	-48(%rbp), %rax
	movq	%rax, %rcx
	shlq	$4, %rcx
	addq	%rcx, %rdi
	incq	%rax
	movq	%rax, -48(%rbp)
Ltmp533:
	callq	__ZN4core3ptr228drop_in_place$LT$alloc..boxed..Box$LT$dyn$u20$core..ops..function..FnMut$LT$$LP$$RP$$GT$$u2b$Output$u20$$u3d$$u20$core..result..Result$LT$$LP$$RP$$C$std..io..error..Error$GT$$u2b$core..marker..Send$u2b$core..marker..Sync$GT$$GT$17h422937863be52a60E
Ltmp534:
	jmp	LBB63_13
Ltmp537:
Lfunc_end63:
	.cfi_endproc
	.section	__TEXT,__gcc_except_tab
	.p2align	2
GCC_except_table63:
Lexception19:
	.byte	255
	.byte	255
	.byte	1
	.uleb128 Lcst_end19-Lcst_begin19
Lcst_begin19:
	.uleb128 Ltmp525-Lfunc_begin63
	.uleb128 Ltmp526-Ltmp525
	.uleb128 Ltmp527-Lfunc_begin63
	.byte	0
	.uleb128 Ltmp528-Lfunc_begin63
	.uleb128 Ltmp529-Ltmp528
	.uleb128 Ltmp535-Lfunc_begin63
	.byte	0
	.uleb128 Ltmp529-Lfunc_begin63
	.uleb128 Ltmp530-Ltmp529
	.byte	0
	.byte	0
	.uleb128 Ltmp530-Lfunc_begin63
	.uleb128 Ltmp531-Ltmp530
	.uleb128 Ltmp532-Lfunc_begin63
	.byte	0
	.uleb128 Ltmp533-Lfunc_begin63
	.uleb128 Ltmp534-Ltmp533
	.uleb128 Ltmp535-Lfunc_begin63
	.byte	0
Lcst_end19:
	.p2align	2

	.section	__TEXT,__text,regular,pure_instructions
	.p2align	4, 0x90
__ZN4core3ptr250drop_in_place$LT$$LT$alloc..collections..btree..map..IntoIter$LT$K$C$V$C$A$GT$$u20$as$u20$core..ops..drop..Drop$GT$..drop..DropGuard$LT$std..ffi..os_str..OsString$C$core..option..Option$LT$std..ffi..os_str..OsString$GT$$C$alloc..alloc..Global$GT$$GT$17h6af56fac5dad1e9bE:
Lfunc_begin64:
	.loc	3 490 0 is_stmt 1
	.cfi_startproc
	pushq	%rbp
	.cfi_def_cfa_offset 16
	.cfi_offset %rbp, -16
	movq	%rsp, %rbp
	.cfi_def_cfa_register %rbp
	subq	$16, %rsp
	movq	%rdi, -8(%rbp)
Ltmp538:
	.loc	3 490 1 prologue_end
	callq	__ZN174_$LT$$LT$alloc..collections..btree..map..IntoIter$LT$K$C$V$C$A$GT$$u20$as$u20$core..ops..drop..Drop$GT$..drop..DropGuard$LT$K$C$V$C$A$GT$$u20$as$u20$core..ops..drop..Drop$GT$4drop17h637fa81eda85a466E
	addq	$16, %rsp
	popq	%rbp
	retq
Ltmp539:
Lfunc_end64:
	.cfi_endproc

	.p2align	4, 0x90
__ZN4core3ptr251drop_in_place$LT$alloc..vec..Vec$LT$alloc..boxed..Box$LT$dyn$u20$core..ops..function..FnMut$LT$$LP$$RP$$GT$$u2b$Output$u20$$u3d$$u20$core..result..Result$LT$$LP$$RP$$C$std..io..error..Error$GT$$u2b$core..marker..Send$u2b$core..marker..Sync$GT$$GT$$GT$17hfe6f0d9f29e8122fE:
Lfunc_begin65:
	.loc	3 490 0
	.cfi_startproc
	.cfi_personality 155, _rust_eh_personality
	.cfi_lsda 16, Lexception20
	pushq	%rbp
	.cfi_def_cfa_offset 16
	.cfi_offset %rbp, -16
	movq	%rsp, %rbp
	.cfi_def_cfa_register %rbp
	subq	$32, %rsp
	movq	%rdi, -32(%rbp)
	movq	%rdi, -24(%rbp)
Ltmp540:
Ltmp546:
	.loc	3 490 1 prologue_end
	callq	__ZN70_$LT$alloc..vec..Vec$LT$T$C$A$GT$$u20$as$u20$core..ops..drop..Drop$GT$4drop17h22431b14e983bf19E
Ltmp541:
	jmp	LBB65_3
LBB65_1:
Ltmp543:
	.loc	3 0 1 is_stmt 0
	movq	-32(%rbp), %rdi
	.loc	3 490 1
	callq	__ZN4core3ptr258drop_in_place$LT$alloc..raw_vec..RawVec$LT$alloc..boxed..Box$LT$dyn$u20$core..ops..function..FnMut$LT$$LP$$RP$$GT$$u2b$Output$u20$$u3d$$u20$core..result..Result$LT$$LP$$RP$$C$std..io..error..Error$GT$$u2b$core..marker..Send$u2b$core..marker..Sync$GT$$GT$$GT$17h028e50ee87068708E
Ltmp544:
	jmp	LBB65_5
LBB65_2:
Ltmp542:
	.loc	3 0 1
	movq	%rax, %rcx
	movl	%edx, %eax
	movq	%rcx, -16(%rbp)
	movl	%eax, -8(%rbp)
	jmp	LBB65_1
LBB65_3:
	movq	-32(%rbp), %rdi
	.loc	3 490 1
	callq	__ZN4core3ptr258drop_in_place$LT$alloc..raw_vec..RawVec$LT$alloc..boxed..Box$LT$dyn$u20$core..ops..function..FnMut$LT$$LP$$RP$$GT$$u2b$Output$u20$$u3d$$u20$core..result..Result$LT$$LP$$RP$$C$std..io..error..Error$GT$$u2b$core..marker..Send$u2b$core..marker..Sync$GT$$GT$$GT$17h028e50ee87068708E
	addq	$32, %rsp
	popq	%rbp
	retq
LBB65_4:
Ltmp545:
	callq	__ZN4core9panicking19panic_cannot_unwind17h1fbca7e1d7f56ae1E
LBB65_5:
	movq	-16(%rbp), %rdi
	callq	__Unwind_Resume
Ltmp547:
Lfunc_end65:
	.cfi_endproc
	.section	__TEXT,__gcc_except_tab
	.p2align	2
GCC_except_table65:
Lexception20:
	.byte	255
	.byte	255
	.byte	1
	.uleb128 Lcst_end20-Lcst_begin20
Lcst_begin20:
	.uleb128 Ltmp540-Lfunc_begin65
	.uleb128 Ltmp541-Ltmp540
	.uleb128 Ltmp542-Lfunc_begin65
	.byte	0
	.uleb128 Ltmp543-Lfunc_begin65
	.uleb128 Ltmp544-Ltmp543
	.uleb128 Ltmp545-Lfunc_begin65
	.byte	0
	.uleb128 Ltmp544-Lfunc_begin65
	.uleb128 Lfunc_end65-Ltmp544
	.byte	0
	.byte	0
Lcst_end20:
	.p2align	2

	.section	__TEXT,__text,regular,pure_instructions
	.p2align	4, 0x90
__ZN4core3ptr258drop_in_place$LT$alloc..raw_vec..RawVec$LT$alloc..boxed..Box$LT$dyn$u20$core..ops..function..FnMut$LT$$LP$$RP$$GT$$u2b$Output$u20$$u3d$$u20$core..result..Result$LT$$LP$$RP$$C$std..io..error..Error$GT$$u2b$core..marker..Send$u2b$core..marker..Sync$GT$$GT$$GT$17h028e50ee87068708E:
Lfunc_begin66:
	.loc	3 490 0 is_stmt 1
	.cfi_startproc
	pushq	%rbp
	.cfi_def_cfa_offset 16
	.cfi_offset %rbp, -16
	movq	%rsp, %rbp
	.cfi_def_cfa_register %rbp
	subq	$16, %rsp
	movq	%rdi, -8(%rbp)
Ltmp548:
	.loc	3 490 1 prologue_end
	callq	__ZN77_$LT$alloc..raw_vec..RawVec$LT$T$C$A$GT$$u20$as$u20$core..ops..drop..Drop$GT$4drop17he2c258dc7f1298f7E
	addq	$16, %rsp
	popq	%rbp
	retq
Ltmp549:
Lfunc_end66:
	.cfi_endproc

	.p2align	4, 0x90
__ZN4core3ptr34drop_in_place$LT$std..fs..File$GT$17h14da1ceb3eaad71eE:
Lfunc_begin67:
	.loc	3 490 0
	.cfi_startproc
	pushq	%rbp
	.cfi_def_cfa_offset 16
	.cfi_offset %rbp, -16
	movq	%rsp, %rbp
	.cfi_def_cfa_register %rbp
	subq	$16, %rsp
	movq	%rdi, -8(%rbp)
Ltmp550:
	.loc	3 490 1 prologue_end
	callq	__ZN4core3ptr45drop_in_place$LT$std..sys..unix..fs..File$GT$17h5950635c682c23deE
	addq	$16, %rsp
	popq	%rbp
	retq
Ltmp551:
Lfunc_end67:
	.cfi_endproc

	.p2align	4, 0x90
__ZN4core3ptr39drop_in_place$LT$std..path..PathBuf$GT$17hff2dd4f2da8ed0e0E:
Lfunc_begin68:
	.loc	3 490 0
	.cfi_startproc
	pushq	%rbp
	.cfi_def_cfa_offset 16
	.cfi_offset %rbp, -16
	movq	%rsp, %rbp
	.cfi_def_cfa_register %rbp
	subq	$16, %rsp
	movq	%rdi, -8(%rbp)
Ltmp552:
	.loc	3 490 1 prologue_end
	callq	__ZN4core3ptr47drop_in_place$LT$std..ffi..os_str..OsString$GT$17hf82b070c725cf247E
	addq	$16, %rsp
	popq	%rbp
	retq
Ltmp553:
Lfunc_end68:
	.cfi_endproc

	.p2align	4, 0x90
__ZN4core3ptr42drop_in_place$LT$alloc..string..String$GT$17he93eb17f96d7ba2eE:
Lfunc_begin69:
	.loc	3 490 0
	.cfi_startproc
	pushq	%rbp
	.cfi_def_cfa_offset 16
	.cfi_offset %rbp, -16
	movq	%rsp, %rbp
	.cfi_def_cfa_register %rbp
	subq	$16, %rsp
	movq	%rdi, -8(%rbp)
Ltmp554:
	.loc	3 490 1 prologue_end
	callq	__ZN4core3ptr46drop_in_place$LT$alloc..vec..Vec$LT$u8$GT$$GT$17hfe95973b5341d530E
	addq	$16, %rsp
	popq	%rbp
	retq
Ltmp555:
Lfunc_end69:
	.cfi_endproc

	.p2align	4, 0x90
__ZN4core3ptr42drop_in_place$LT$std..io..error..Error$GT$17h2b6a895a2cf1b5b9E:
Lfunc_begin70:
	.loc	3 490 0
	.cfi_startproc
	pushq	%rbp
	.cfi_def_cfa_offset 16
	.cfi_offset %rbp, -16
	movq	%rsp, %rbp
	.cfi_def_cfa_register %rbp
	subq	$16, %rsp
	movq	%rdi, -8(%rbp)
Ltmp556:
	.loc	3 490 1 prologue_end
	callq	__ZN4core3ptr57drop_in_place$LT$std..io..error..repr_bitpacked..Repr$GT$17h79e0711cd7676ec4E
	addq	$16, %rsp
	popq	%rbp
	retq
Ltmp557:
Lfunc_end70:
	.cfi_endproc

	.p2align	4, 0x90
__ZN4core3ptr42drop_in_place$LT$std..process..Command$GT$17h2cda88b94dce1d8fE:
Lfunc_begin71:
	.loc	3 490 0
	.cfi_startproc
	pushq	%rbp
	.cfi_def_cfa_offset 16
	.cfi_offset %rbp, -16
	movq	%rsp, %rbp
	.cfi_def_cfa_register %rbp
	subq	$16, %rsp
	movq	%rdi, -8(%rbp)
Ltmp558:
	.loc	3 490 1 prologue_end
	callq	__ZN4core3ptr69drop_in_place$LT$std..sys..unix..process..process_common..Command$GT$17h8fda6e783df0fc03E
	addq	$16, %rsp
	popq	%rbp
	retq
Ltmp559:
Lfunc_end71:
	.cfi_endproc

	.p2align	4, 0x90
__ZN4core3ptr43drop_in_place$LT$std..io..error..Custom$GT$17h923c00f16c45b1a8E:
Lfunc_begin72:
	.loc	3 490 0
	.cfi_startproc
	pushq	%rbp
	.cfi_def_cfa_offset 16
	.cfi_offset %rbp, -16
	movq	%rsp, %rbp
	.cfi_def_cfa_register %rbp
	subq	$16, %rsp
	movq	%rdi, -8(%rbp)
Ltmp560:
	.loc	3 490 1 prologue_end
	callq	__ZN4core3ptr118drop_in_place$LT$alloc..boxed..Box$LT$dyn$u20$core..error..Error$u2b$core..marker..Send$u2b$core..marker..Sync$GT$$GT$17h6b8be1aec776e0e6E
	addq	$16, %rsp
	popq	%rbp
	retq
Ltmp561:
Lfunc_end72:
	.cfi_endproc

	.p2align	4, 0x90
__ZN4core3ptr45drop_in_place$LT$std..sys..unix..fs..File$GT$17h5950635c682c23deE:
Lfunc_begin73:
	.loc	3 490 0
	.cfi_startproc
	pushq	%rbp
	.cfi_def_cfa_offset 16
	.cfi_offset %rbp, -16
	movq	%rsp, %rbp
	.cfi_def_cfa_register %rbp
	subq	$16, %rsp
	movq	%rdi, -8(%rbp)
Ltmp562:
	.loc	3 490 1 prologue_end
	callq	__ZN4core3ptr49drop_in_place$LT$std..sys..unix..fd..FileDesc$GT$17h334e8c890c4c32d8E
	addq	$16, %rsp
	popq	%rbp
	retq
Ltmp563:
Lfunc_end73:
	.cfi_endproc

	.p2align	4, 0x90
__ZN4core3ptr46drop_in_place$LT$alloc..vec..Vec$LT$u8$GT$$GT$17hfe95973b5341d530E:
Lfunc_begin74:
	.loc	3 490 0
	.cfi_startproc
	.cfi_personality 155, _rust_eh_personality
	.cfi_lsda 16, Lexception21
	pushq	%rbp
	.cfi_def_cfa_offset 16
	.cfi_offset %rbp, -16
	movq	%rsp, %rbp
	.cfi_def_cfa_register %rbp
	subq	$32, %rsp
	movq	%rdi, -32(%rbp)
	movq	%rdi, -24(%rbp)
Ltmp564:
Ltmp570:
	.loc	3 490 1 prologue_end
	callq	__ZN70_$LT$alloc..vec..Vec$LT$T$C$A$GT$$u20$as$u20$core..ops..drop..Drop$GT$4drop17hcefe90e8b24e07ffE
Ltmp565:
	jmp	LBB74_3
LBB74_1:
Ltmp567:
	.loc	3 0 1 is_stmt 0
	movq	-32(%rbp), %rdi
	.loc	3 490 1
	callq	__ZN4core3ptr53drop_in_place$LT$alloc..raw_vec..RawVec$LT$u8$GT$$GT$17h257b58f187be47efE
Ltmp568:
	jmp	LBB74_5
LBB74_2:
Ltmp566:
	.loc	3 0 1
	movq	%rax, %rcx
	movl	%edx, %eax
	movq	%rcx, -16(%rbp)
	movl	%eax, -8(%rbp)
	jmp	LBB74_1
LBB74_3:
	movq	-32(%rbp), %rdi
	.loc	3 490 1
	callq	__ZN4core3ptr53drop_in_place$LT$alloc..raw_vec..RawVec$LT$u8$GT$$GT$17h257b58f187be47efE
	addq	$32, %rsp
	popq	%rbp
	retq
LBB74_4:
Ltmp569:
	callq	__ZN4core9panicking19panic_cannot_unwind17h1fbca7e1d7f56ae1E
LBB74_5:
	movq	-16(%rbp), %rdi
	callq	__Unwind_Resume
Ltmp571:
Lfunc_end74:
	.cfi_endproc
	.section	__TEXT,__gcc_except_tab
	.p2align	2
GCC_except_table74:
Lexception21:
	.byte	255
	.byte	255
	.byte	1
	.uleb128 Lcst_end21-Lcst_begin21
Lcst_begin21:
	.uleb128 Ltmp564-Lfunc_begin74
	.uleb128 Ltmp565-Ltmp564
	.uleb128 Ltmp566-Lfunc_begin74
	.byte	0
	.uleb128 Ltmp567-Lfunc_begin74
	.uleb128 Ltmp568-Ltmp567
	.uleb128 Ltmp569-Lfunc_begin74
	.byte	0
	.uleb128 Ltmp568-Lfunc_begin74
	.uleb128 Lfunc_end74-Ltmp568
	.byte	0
	.byte	0
Lcst_end21:
	.p2align	2

	.section	__TEXT,__text,regular,pure_instructions
	.p2align	4, 0x90
__ZN4core3ptr47drop_in_place$LT$alloc..ffi..c_str..CString$GT$17he3952a2fb9d39efdE:
Lfunc_begin75:
	.loc	3 490 0 is_stmt 1
	.cfi_startproc
	.cfi_personality 155, _rust_eh_personality
	.cfi_lsda 16, Lexception22
	pushq	%rbp
	.cfi_def_cfa_offset 16
	.cfi_offset %rbp, -16
	movq	%rsp, %rbp
	.cfi_def_cfa_register %rbp
	subq	$32, %rsp
	movq	%rdi, -32(%rbp)
	movq	%rdi, -24(%rbp)
Ltmp572:
Ltmp578:
	.loc	3 490 1 prologue_end
	callq	__ZN68_$LT$alloc..ffi..c_str..CString$u20$as$u20$core..ops..drop..Drop$GT$4drop17h7dd33a0e4bf0b2cbE
Ltmp573:
	jmp	LBB75_3
LBB75_1:
Ltmp575:
	.loc	3 0 1 is_stmt 0
	movq	-32(%rbp), %rdi
	.loc	3 490 1
	callq	__ZN4core3ptr58drop_in_place$LT$alloc..boxed..Box$LT$$u5b$u8$u5d$$GT$$GT$17h41e7137b4d86bdc2E
Ltmp576:
	jmp	LBB75_5
LBB75_2:
Ltmp574:
	.loc	3 0 1
	movq	%rax, %rcx
	movl	%edx, %eax
	movq	%rcx, -16(%rbp)
	movl	%eax, -8(%rbp)
	jmp	LBB75_1
LBB75_3:
	movq	-32(%rbp), %rdi
	.loc	3 490 1
	callq	__ZN4core3ptr58drop_in_place$LT$alloc..boxed..Box$LT$$u5b$u8$u5d$$GT$$GT$17h41e7137b4d86bdc2E
	addq	$32, %rsp
	popq	%rbp
	retq
LBB75_4:
Ltmp577:
	callq	__ZN4core9panicking19panic_cannot_unwind17h1fbca7e1d7f56ae1E
LBB75_5:
	movq	-16(%rbp), %rdi
	callq	__Unwind_Resume
Ltmp579:
Lfunc_end75:
	.cfi_endproc
	.section	__TEXT,__gcc_except_tab
	.p2align	2
GCC_except_table75:
Lexception22:
	.byte	255
	.byte	255
	.byte	1
	.uleb128 Lcst_end22-Lcst_begin22
Lcst_begin22:
	.uleb128 Ltmp572-Lfunc_begin75
	.uleb128 Ltmp573-Ltmp572
	.uleb128 Ltmp574-Lfunc_begin75
	.byte	0
	.uleb128 Ltmp575-Lfunc_begin75
	.uleb128 Ltmp576-Ltmp575
	.uleb128 Ltmp577-Lfunc_begin75
	.byte	0
	.uleb128 Ltmp576-Lfunc_begin75
	.uleb128 Lfunc_end75-Ltmp576
	.byte	0
	.byte	0
Lcst_end22:
	.p2align	2

	.section	__TEXT,__text,regular,pure_instructions
	.p2align	4, 0x90
__ZN4core3ptr47drop_in_place$LT$std..ffi..os_str..OsString$GT$17hf82b070c725cf247E:
Lfunc_begin76:
	.loc	3 490 0 is_stmt 1
	.cfi_startproc
	pushq	%rbp
	.cfi_def_cfa_offset 16
	.cfi_offset %rbp, -16
	movq	%rsp, %rbp
	.cfi_def_cfa_register %rbp
	subq	$16, %rsp
	movq	%rdi, -8(%rbp)
Ltmp580:
	.loc	3 490 1 prologue_end
	callq	__ZN4core3ptr48drop_in_place$LT$std..sys..unix..os_str..Buf$GT$17hf68cb6a32d4de8f8E
	addq	$16, %rsp
	popq	%rbp
	retq
Ltmp581:
Lfunc_end76:
	.cfi_endproc

	.p2align	4, 0x90
__ZN4core3ptr48drop_in_place$LT$std..os..fd..owned..OwnedFd$GT$17h281934a44b89ab3bE:
Lfunc_begin77:
	.loc	3 490 0
	.cfi_startproc
	pushq	%rbp
	.cfi_def_cfa_offset 16
	.cfi_offset %rbp, -16
	movq	%rsp, %rbp
	.cfi_def_cfa_register %rbp
	subq	$16, %rsp
	movq	%rdi, -8(%rbp)
Ltmp582:
	.loc	3 490 1 prologue_end
	callq	__ZN69_$LT$std..os..fd..owned..OwnedFd$u20$as$u20$core..ops..drop..Drop$GT$4drop17hb04b93692a185ca8E
	addq	$16, %rsp
	popq	%rbp
	retq
Ltmp583:
Lfunc_end77:
	.cfi_endproc

	.p2align	4, 0x90
__ZN4core3ptr48drop_in_place$LT$std..sys..unix..os_str..Buf$GT$17hf68cb6a32d4de8f8E:
Lfunc_begin78:
	.loc	3 490 0
	.cfi_startproc
	pushq	%rbp
	.cfi_def_cfa_offset 16
	.cfi_offset %rbp, -16
	movq	%rsp, %rbp
	.cfi_def_cfa_register %rbp
	subq	$16, %rsp
	movq	%rdi, -8(%rbp)
Ltmp584:
	.loc	3 490 1 prologue_end
	callq	__ZN4core3ptr46drop_in_place$LT$alloc..vec..Vec$LT$u8$GT$$GT$17hfe95973b5341d530E
	addq	$16, %rsp
	popq	%rbp
	retq
Ltmp585:
Lfunc_end78:
	.cfi_endproc

	.p2align	4, 0x90
__ZN4core3ptr49drop_in_place$LT$std..sys..unix..fd..FileDesc$GT$17h334e8c890c4c32d8E:
Lfunc_begin79:
	.loc	3 490 0
	.cfi_startproc
	pushq	%rbp
	.cfi_def_cfa_offset 16
	.cfi_offset %rbp, -16
	movq	%rsp, %rbp
	.cfi_def_cfa_register %rbp
	subq	$16, %rsp
	movq	%rdi, -8(%rbp)
Ltmp586:
	.loc	3 490 1 prologue_end
	callq	__ZN4core3ptr48drop_in_place$LT$std..os..fd..owned..OwnedFd$GT$17h281934a44b89ab3bE
	addq	$16, %rsp
	popq	%rbp
	retq
Ltmp587:
Lfunc_end79:
	.cfi_endproc

	.p2align	4, 0x90
__ZN4core3ptr53drop_in_place$LT$alloc..raw_vec..RawVec$LT$u8$GT$$GT$17h257b58f187be47efE:
Lfunc_begin80:
	.loc	3 490 0
	.cfi_startproc
	pushq	%rbp
	.cfi_def_cfa_offset 16
	.cfi_offset %rbp, -16
	movq	%rsp, %rbp
	.cfi_def_cfa_register %rbp
	subq	$16, %rsp
	movq	%rdi, -8(%rbp)
Ltmp588:
	.loc	3 490 1 prologue_end
	callq	__ZN77_$LT$alloc..raw_vec..RawVec$LT$T$C$A$GT$$u20$as$u20$core..ops..drop..Drop$GT$4drop17ha7e2f005f014f3c4E
	addq	$16, %rsp
	popq	%rbp
	retq
Ltmp589:
Lfunc_end80:
	.cfi_endproc

	.p2align	4, 0x90
__ZN4core3ptr57drop_in_place$LT$$u5b$alloc..ffi..c_str..CString$u5d$$GT$17haa245af0dd981e3fE:
Lfunc_begin81:
	.loc	3 490 0
	.cfi_startproc
	.cfi_personality 155, _rust_eh_personality
	.cfi_lsda 16, Lexception23
	pushq	%rbp
	.cfi_def_cfa_offset 16
	.cfi_offset %rbp, -16
	movq	%rsp, %rbp
	.cfi_def_cfa_register %rbp
	subq	$80, %rsp
	movq	%rdi, -64(%rbp)
	movq	%rsi, -56(%rbp)
	movq	%rdi, -32(%rbp)
	movq	%rsi, -24(%rbp)
Ltmp601:
	.loc	3 490 1 prologue_end
	xorl	%eax, %eax
	testb	$1, %al
	jne	LBB81_1
	jmp	LBB81_2
LBB81_1:
	movq	$0, -48(%rbp)
	jmp	LBB81_11
LBB81_2:
	.loc	3 0 1 is_stmt 0
	movq	-56(%rbp), %rax
	movq	-64(%rbp), %rcx
	.loc	3 490 1
	movq	%rcx, -40(%rbp)
	shlq	$4, %rax
	addq	-40(%rbp), %rax
	movq	%rax, -72(%rbp)
LBB81_3:
	.loc	3 0 1
	movq	-72(%rbp), %rax
	.loc	3 490 1
	cmpq	%rax, -40(%rbp)
	je	LBB81_5
	movq	-40(%rbp), %rdi
	movq	%rdi, %rax
	addq	$16, %rax
	movq	%rax, -40(%rbp)
Ltmp590:
	callq	__ZN4core3ptr47drop_in_place$LT$alloc..ffi..c_str..CString$GT$17he3952a2fb9d39efdE
Ltmp591:
	jmp	LBB81_3
LBB81_5:
	addq	$80, %rsp
	popq	%rbp
	retq
LBB81_6:
	.loc	3 0 1
	movq	-72(%rbp), %rax
	.loc	3 490 1
	cmpq	%rax, -40(%rbp)
	je	LBB81_9
	jmp	LBB81_8
LBB81_7:
Ltmp592:
	.loc	3 0 1
	movq	%rax, %rcx
	movl	%edx, %eax
	movq	%rcx, -16(%rbp)
	movl	%eax, -8(%rbp)
	jmp	LBB81_6
LBB81_8:
	.loc	3 490 1
	movq	-40(%rbp), %rdi
	movq	%rdi, %rax
	addq	$16, %rax
	movq	%rax, -40(%rbp)
Ltmp593:
	callq	__ZN4core3ptr47drop_in_place$LT$alloc..ffi..c_str..CString$GT$17he3952a2fb9d39efdE
Ltmp594:
	jmp	LBB81_6
LBB81_9:
	movq	-16(%rbp), %rdi
	callq	__Unwind_Resume
LBB81_10:
Ltmp600:
	callq	__ZN4core9panicking19panic_cannot_unwind17h1fbca7e1d7f56ae1E
LBB81_11:
	.loc	3 0 1
	movq	-56(%rbp), %rax
	.loc	3 490 1
	cmpq	%rax, -48(%rbp)
	je	LBB81_5
	.loc	3 0 1
	movq	-64(%rbp), %rdi
	.loc	3 490 1
	movq	-48(%rbp), %rax
	movq	%rax, %rcx
	shlq	$4, %rcx
	addq	%rcx, %rdi
	incq	%rax
	movq	%rax, -48(%rbp)
Ltmp595:
	callq	__ZN4core3ptr47drop_in_place$LT$alloc..ffi..c_str..CString$GT$17he3952a2fb9d39efdE
Ltmp596:
	jmp	LBB81_11
LBB81_13:
	.loc	3 0 1
	movq	-56(%rbp), %rax
	.loc	3 490 1
	cmpq	%rax, -48(%rbp)
	je	LBB81_9
	jmp	LBB81_15
LBB81_14:
Ltmp597:
	.loc	3 0 1
	movq	%rax, %rcx
	movl	%edx, %eax
	movq	%rcx, -16(%rbp)
	movl	%eax, -8(%rbp)
	jmp	LBB81_13
LBB81_15:
	movq	-64(%rbp), %rdi
	.loc	3 490 1
	movq	-48(%rbp), %rax
	movq	%rax, %rcx
	shlq	$4, %rcx
	addq	%rcx, %rdi
	incq	%rax
	movq	%rax, -48(%rbp)
Ltmp598:
	callq	__ZN4core3ptr47drop_in_place$LT$alloc..ffi..c_str..CString$GT$17he3952a2fb9d39efdE
Ltmp599:
	jmp	LBB81_13
Ltmp602:
Lfunc_end81:
	.cfi_endproc
	.section	__TEXT,__gcc_except_tab
	.p2align	2
GCC_except_table81:
Lexception23:
	.byte	255
	.byte	255
	.byte	1
	.uleb128 Lcst_end23-Lcst_begin23
Lcst_begin23:
	.uleb128 Ltmp590-Lfunc_begin81
	.uleb128 Ltmp591-Ltmp590
	.uleb128 Ltmp592-Lfunc_begin81
	.byte	0
	.uleb128 Ltmp593-Lfunc_begin81
	.uleb128 Ltmp594-Ltmp593
	.uleb128 Ltmp600-Lfunc_begin81
	.byte	0
	.uleb128 Ltmp594-Lfunc_begin81
	.uleb128 Ltmp595-Ltmp594
	.byte	0
	.byte	0
	.uleb128 Ltmp595-Lfunc_begin81
	.uleb128 Ltmp596-Ltmp595
	.uleb128 Ltmp597-Lfunc_begin81
	.byte	0
	.uleb128 Ltmp598-Lfunc_begin81
	.uleb128 Ltmp599-Ltmp598
	.uleb128 Ltmp600-Lfunc_begin81
	.byte	0
Lcst_end23:
	.p2align	2

	.section	__TEXT,__text,regular,pure_instructions
	.p2align	4, 0x90
__ZN4core3ptr57drop_in_place$LT$std..io..error..repr_bitpacked..Repr$GT$17h79e0711cd7676ec4E:
Lfunc_begin82:
	.loc	3 490 0 is_stmt 1
	.cfi_startproc
	pushq	%rbp
	.cfi_def_cfa_offset 16
	.cfi_offset %rbp, -16
	movq	%rsp, %rbp
	.cfi_def_cfa_register %rbp
	subq	$16, %rsp
	movq	%rdi, -8(%rbp)
Ltmp603:
	.loc	3 490 1 prologue_end
	callq	__ZN78_$LT$std..io..error..repr_bitpacked..Repr$u20$as$u20$core..ops..drop..Drop$GT$4drop17ha0ff09612e1718b9E
	addq	$16, %rsp
	popq	%rbp
	retq
Ltmp604:
Lfunc_end82:
	.cfi_endproc

	.p2align	4, 0x90
__ZN4core3ptr57drop_in_place$LT$std..sys_common..process..CommandEnv$GT$17hf4fa7b4f24715caeE:
Lfunc_begin83:
	.loc	3 490 0
	.cfi_startproc
	pushq	%rbp
	.cfi_def_cfa_offset 16
	.cfi_offset %rbp, -16
	movq	%rsp, %rbp
	.cfi_def_cfa_register %rbp
	subq	$16, %rsp
	movq	%rdi, -8(%rbp)
Ltmp605:
	.loc	3 490 1 prologue_end
	callq	__ZN4core3ptr152drop_in_place$LT$alloc..collections..btree..map..BTreeMap$LT$std..ffi..os_str..OsString$C$core..option..Option$LT$std..ffi..os_str..OsString$GT$$GT$$GT$17h569e09d69f2c0043E
	addq	$16, %rsp
	popq	%rbp
	retq
Ltmp606:
Lfunc_end83:
	.cfi_endproc

	.p2align	4, 0x90
__ZN4core3ptr58drop_in_place$LT$alloc..boxed..Box$LT$$u5b$u8$u5d$$GT$$GT$17h41e7137b4d86bdc2E:
Lfunc_begin84:
	.loc	3 490 0
	.cfi_startproc
	pushq	%rbp
	.cfi_def_cfa_offset 16
	.cfi_offset %rbp, -16
	movq	%rsp, %rbp
	.cfi_def_cfa_register %rbp
	subq	$32, %rsp
	movq	%rdi, -32(%rbp)
	movq	%rdi, -24(%rbp)
	movq	-32(%rbp), %rax
Ltmp607:
	.loc	3 490 1 prologue_end
	movq	(%rax), %rdi
	movq	8(%rax), %rsi
	callq	__ZN5alloc5alloc8box_free17h22ae2731e1e782d8E
	addq	$32, %rsp
	popq	%rbp
	retq
Ltmp608:
Lfunc_end84:
	.cfi_endproc

	.p2align	4, 0x90
__ZN4core3ptr59drop_in_place$LT$alloc..boxed..Box$LT$$u5b$u32$u5d$$GT$$GT$17h73d3f73ae45ec5d6E:
Lfunc_begin85:
	.loc	3 490 0
	.cfi_startproc
	pushq	%rbp
	.cfi_def_cfa_offset 16
	.cfi_offset %rbp, -16
	movq	%rsp, %rbp
	.cfi_def_cfa_register %rbp
	subq	$32, %rsp
	movq	%rdi, -32(%rbp)
	movq	%rdi, -24(%rbp)
	movq	-32(%rbp), %rax
Ltmp609:
	.loc	3 490 1 prologue_end
	movq	(%rax), %rdi
	movq	8(%rax), %rsi
	callq	__ZN5alloc5alloc8box_free17h33d05d5ae6adaeedE
	addq	$32, %rsp
	popq	%rbp
	retq
Ltmp610:
Lfunc_end85:
	.cfi_endproc

	.p2align	4, 0x90
__ZN4core3ptr60drop_in_place$LT$alloc..vec..Vec$LT$$BP$const$u20$i8$GT$$GT$17h73dc037af8c6574aE:
Lfunc_begin86:
	.loc	3 490 0
	.cfi_startproc
	.cfi_personality 155, _rust_eh_personality
	.cfi_lsda 16, Lexception24
	pushq	%rbp
	.cfi_def_cfa_offset 16
	.cfi_offset %rbp, -16
	movq	%rsp, %rbp
	.cfi_def_cfa_register %rbp
	subq	$32, %rsp
	movq	%rdi, -32(%rbp)
	movq	%rdi, -24(%rbp)
Ltmp611:
Ltmp617:
	.loc	3 490 1 prologue_end
	callq	__ZN70_$LT$alloc..vec..Vec$LT$T$C$A$GT$$u20$as$u20$core..ops..drop..Drop$GT$4drop17h9cd8a0dc32de3c02E
Ltmp612:
	jmp	LBB86_3
LBB86_1:
Ltmp614:
	.loc	3 0 1 is_stmt 0
	movq	-32(%rbp), %rdi
	.loc	3 490 1
	callq	__ZN4core3ptr67drop_in_place$LT$alloc..raw_vec..RawVec$LT$$BP$const$u20$i8$GT$$GT$17hcb980d0f9559279dE
Ltmp615:
	jmp	LBB86_5
LBB86_2:
Ltmp613:
	.loc	3 0 1
	movq	%rax, %rcx
	movl	%edx, %eax
	movq	%rcx, -16(%rbp)
	movl	%eax, -8(%rbp)
	jmp	LBB86_1
LBB86_3:
	movq	-32(%rbp), %rdi
	.loc	3 490 1
	callq	__ZN4core3ptr67drop_in_place$LT$alloc..raw_vec..RawVec$LT$$BP$const$u20$i8$GT$$GT$17hcb980d0f9559279dE
	addq	$32, %rsp
	popq	%rbp
	retq
LBB86_4:
Ltmp616:
	callq	__ZN4core9panicking19panic_cannot_unwind17h1fbca7e1d7f56ae1E
LBB86_5:
	movq	-16(%rbp), %rdi
	callq	__Unwind_Resume
Ltmp618:
Lfunc_end86:
	.cfi_endproc
	.section	__TEXT,__gcc_except_tab
	.p2align	2
GCC_except_table86:
Lexception24:
	.byte	255
	.byte	255
	.byte	1
	.uleb128 Lcst_end24-Lcst_begin24
Lcst_begin24:
	.uleb128 Ltmp611-Lfunc_begin86
	.uleb128 Ltmp612-Ltmp611
	.uleb128 Ltmp613-Lfunc_begin86
	.byte	0
	.uleb128 Ltmp614-Lfunc_begin86
	.uleb128 Ltmp615-Ltmp614
	.uleb128 Ltmp616-Lfunc_begin86
	.byte	0
	.uleb128 Ltmp615-Lfunc_begin86
	.uleb128 Lfunc_end86-Ltmp615
	.byte	0
	.byte	0
Lcst_end24:
	.p2align	2

	.section	__TEXT,__text,regular,pure_instructions
	.p2align	4, 0x90
__ZN4core3ptr66drop_in_place$LT$std..sys..unix..process..process_common..Argv$GT$17h038501c2ee02a67dE:
Lfunc_begin87:
	.loc	3 490 0 is_stmt 1
	.cfi_startproc
	pushq	%rbp
	.cfi_def_cfa_offset 16
	.cfi_offset %rbp, -16
	movq	%rsp, %rbp
	.cfi_def_cfa_register %rbp
	subq	$16, %rsp
	movq	%rdi, -8(%rbp)
Ltmp619:
	.loc	3 490 1 prologue_end
	callq	__ZN4core3ptr60drop_in_place$LT$alloc..vec..Vec$LT$$BP$const$u20$i8$GT$$GT$17h73dc037af8c6574aE
	addq	$16, %rsp
	popq	%rbp
	retq
Ltmp620:
Lfunc_end87:
	.cfi_endproc

	.p2align	4, 0x90
__ZN4core3ptr67drop_in_place$LT$alloc..raw_vec..RawVec$LT$$BP$const$u20$i8$GT$$GT$17hcb980d0f9559279dE:
Lfunc_begin88:
	.loc	3 490 0
	.cfi_startproc
	pushq	%rbp
	.cfi_def_cfa_offset 16
	.cfi_offset %rbp, -16
	movq	%rsp, %rbp
	.cfi_def_cfa_register %rbp
	subq	$16, %rsp
	movq	%rdi, -8(%rbp)
Ltmp621:
	.loc	3 490 1 prologue_end
	callq	__ZN77_$LT$alloc..raw_vec..RawVec$LT$T$C$A$GT$$u20$as$u20$core..ops..drop..Drop$GT$4drop17ha237b487a0597538E
	addq	$16, %rsp
	popq	%rbp
	retq
Ltmp622:
Lfunc_end88:
	.cfi_endproc

	.p2align	4, 0x90
__ZN4core3ptr67drop_in_place$LT$std..sys..unix..process..process_common..Stdio$GT$17h2acf9c9dae0c548aE:
Lfunc_begin89:
	.loc	3 490 0
	.cfi_startproc
	pushq	%rbp
	.cfi_def_cfa_offset 16
	.cfi_offset %rbp, -16
	movq	%rsp, %rbp
	.cfi_def_cfa_register %rbp
	subq	$16, %rsp
	movq	%rdi, -16(%rbp)
	movq	%rdi, -8(%rbp)
Ltmp623:
	.loc	3 490 1 prologue_end
	movl	(%rdi), %eax
	subl	$3, %eax
	jb	LBB89_2
	jmp	LBB89_1
LBB89_1:
	.loc	3 0 1 is_stmt 0
	movq	-16(%rbp), %rdi
	.loc	3 490 1
	addq	$4, %rdi
	callq	__ZN4core3ptr49drop_in_place$LT$std..sys..unix..fd..FileDesc$GT$17h334e8c890c4c32d8E
LBB89_2:
	addq	$16, %rsp
	popq	%rbp
	retq
Ltmp624:
Lfunc_end89:
	.cfi_endproc

	.p2align	4, 0x90
__ZN4core3ptr68drop_in_place$LT$alloc..boxed..Box$LT$std..io..error..Custom$GT$$GT$17h6dcc30973b05808fE:
Lfunc_begin90:
	.loc	3 490 0 is_stmt 1
	.cfi_startproc
	.cfi_personality 155, _rust_eh_personality
	.cfi_lsda 16, Lexception25
	pushq	%rbp
	.cfi_def_cfa_offset 16
	.cfi_offset %rbp, -16
	movq	%rsp, %rbp
	.cfi_def_cfa_register %rbp
	subq	$32, %rsp
	movq	%rdi, -32(%rbp)
	movq	%rdi, -24(%rbp)
Ltmp631:
	.loc	3 490 1 prologue_end
	movq	(%rdi), %rdi
Ltmp625:
	callq	__ZN4core3ptr43drop_in_place$LT$std..io..error..Custom$GT$17h923c00f16c45b1a8E
Ltmp626:
	jmp	LBB90_3
LBB90_1:
	.loc	3 0 1 is_stmt 0
	movq	-32(%rbp), %rax
	.loc	3 490 1
	movq	(%rax), %rdi
Ltmp628:
	callq	__ZN5alloc5alloc8box_free17hc4d44e045d2a4dfaE
Ltmp629:
	jmp	LBB90_5
LBB90_2:
Ltmp627:
	.loc	3 0 1
	movq	%rax, %rcx
	movl	%edx, %eax
	movq	%rcx, -16(%rbp)
	movl	%eax, -8(%rbp)
	jmp	LBB90_1
LBB90_3:
	movq	-32(%rbp), %rax
	.loc	3 490 1
	movq	(%rax), %rdi
	callq	__ZN5alloc5alloc8box_free17hc4d44e045d2a4dfaE
	addq	$32, %rsp
	popq	%rbp
	retq
LBB90_4:
Ltmp630:
	callq	__ZN4core9panicking19panic_cannot_unwind17h1fbca7e1d7f56ae1E
LBB90_5:
	movq	-16(%rbp), %rdi
	callq	__Unwind_Resume
Ltmp632:
Lfunc_end90:
	.cfi_endproc
	.section	__TEXT,__gcc_except_tab
	.p2align	2
GCC_except_table90:
Lexception25:
	.byte	255
	.byte	255
	.byte	1
	.uleb128 Lcst_end25-Lcst_begin25
Lcst_begin25:
	.uleb128 Ltmp625-Lfunc_begin90
	.uleb128 Ltmp626-Ltmp625
	.uleb128 Ltmp627-Lfunc_begin90
	.byte	0
	.uleb128 Ltmp628-Lfunc_begin90
	.uleb128 Ltmp629-Ltmp628
	.uleb128 Ltmp630-Lfunc_begin90
	.byte	0
	.uleb128 Ltmp629-Lfunc_begin90
	.uleb128 Lfunc_end90-Ltmp629
	.byte	0
	.byte	0
Lcst_end25:
	.p2align	2

	.section	__TEXT,__text,regular,pure_instructions
	.p2align	4, 0x90
__ZN4core3ptr69drop_in_place$LT$std..sys..unix..process..process_common..Command$GT$17h8fda6e783df0fc03E:
Lfunc_begin91:
	.loc	3 490 0 is_stmt 1
	.cfi_startproc
	.cfi_personality 155, _rust_eh_personality
	.cfi_lsda 16, Lexception26
	pushq	%rbp
	.cfi_def_cfa_offset 16
	.cfi_offset %rbp, -16
	movq	%rsp, %rbp
	.cfi_def_cfa_register %rbp
	subq	$32, %rsp
	movq	%rdi, -32(%rbp)
	movq	%rdi, -24(%rbp)
Ltmp679:
	.loc	3 490 1 prologue_end
	addq	$64, %rdi
Ltmp633:
	callq	__ZN4core3ptr47drop_in_place$LT$alloc..ffi..c_str..CString$GT$17he3952a2fb9d39efdE
Ltmp634:
	jmp	LBB91_3
LBB91_1:
	.loc	3 0 1 is_stmt 0
	movq	-32(%rbp), %rdi
	.loc	3 490 1
	addq	$80, %rdi
Ltmp636:
	callq	__ZN4core3ptr70drop_in_place$LT$alloc..vec..Vec$LT$alloc..ffi..c_str..CString$GT$$GT$17h839c46b05b1d796dE
Ltmp637:
	jmp	LBB91_5
LBB91_2:
Ltmp635:
	.loc	3 0 1
	movq	%rax, %rcx
	movl	%edx, %eax
	movq	%rcx, -16(%rbp)
	movl	%eax, -8(%rbp)
	jmp	LBB91_1
LBB91_3:
	movq	-32(%rbp), %rdi
	.loc	3 490 1
	addq	$80, %rdi
Ltmp638:
	callq	__ZN4core3ptr70drop_in_place$LT$alloc..vec..Vec$LT$alloc..ffi..c_str..CString$GT$$GT$17h839c46b05b1d796dE
Ltmp639:
	jmp	LBB91_7
LBB91_4:
Ltmp678:
	callq	__ZN4core9panicking19panic_cannot_unwind17h1fbca7e1d7f56ae1E
LBB91_5:
	.loc	3 0 1
	movq	-32(%rbp), %rdi
	.loc	3 490 1
	addq	$104, %rdi
Ltmp641:
	callq	__ZN4core3ptr66drop_in_place$LT$std..sys..unix..process..process_common..Argv$GT$17h038501c2ee02a67dE
Ltmp642:
	jmp	LBB91_8
LBB91_6:
Ltmp640:
	.loc	3 0 1
	movq	%rax, %rcx
	movl	%edx, %eax
	movq	%rcx, -16(%rbp)
	movl	%eax, -8(%rbp)
	jmp	LBB91_5
LBB91_7:
	movq	-32(%rbp), %rdi
	.loc	3 490 1
	addq	$104, %rdi
Ltmp643:
	callq	__ZN4core3ptr66drop_in_place$LT$std..sys..unix..process..process_common..Argv$GT$17h038501c2ee02a67dE
Ltmp644:
	jmp	LBB91_10
LBB91_8:
Ltmp646:
	.loc	3 0 1
	movq	-32(%rbp), %rdi
	.loc	3 490 1
	callq	__ZN4core3ptr57drop_in_place$LT$std..sys_common..process..CommandEnv$GT$17hf4fa7b4f24715caeE
Ltmp647:
	jmp	LBB91_11
LBB91_9:
Ltmp645:
	.loc	3 0 1
	movq	%rax, %rcx
	movl	%edx, %eax
	movq	%rcx, -16(%rbp)
	movl	%eax, -8(%rbp)
	jmp	LBB91_8
LBB91_10:
Ltmp648:
	movq	-32(%rbp), %rdi
	.loc	3 490 1
	callq	__ZN4core3ptr57drop_in_place$LT$std..sys_common..process..CommandEnv$GT$17hf4fa7b4f24715caeE
Ltmp649:
	jmp	LBB91_13
LBB91_11:
	.loc	3 0 1
	movq	-32(%rbp), %rdi
	.loc	3 490 1
	addq	$32, %rdi
Ltmp651:
	callq	__ZN4core3ptr75drop_in_place$LT$core..option..Option$LT$alloc..ffi..c_str..CString$GT$$GT$17h975b4eb7addb99c8E
Ltmp652:
	jmp	LBB91_14
LBB91_12:
Ltmp650:
	.loc	3 0 1
	movq	%rax, %rcx
	movl	%edx, %eax
	movq	%rcx, -16(%rbp)
	movl	%eax, -8(%rbp)
	jmp	LBB91_11
LBB91_13:
	movq	-32(%rbp), %rdi
	.loc	3 490 1
	addq	$32, %rdi
Ltmp653:
	callq	__ZN4core3ptr75drop_in_place$LT$core..option..Option$LT$alloc..ffi..c_str..CString$GT$$GT$17h975b4eb7addb99c8E
Ltmp654:
	jmp	LBB91_16
LBB91_14:
	.loc	3 0 1
	movq	-32(%rbp), %rdi
	.loc	3 490 1
	subq	$-128, %rdi
Ltmp656:
	callq	__ZN4core3ptr251drop_in_place$LT$alloc..vec..Vec$LT$alloc..boxed..Box$LT$dyn$u20$core..ops..function..FnMut$LT$$LP$$RP$$GT$$u2b$Output$u20$$u3d$$u20$core..result..Result$LT$$LP$$RP$$C$std..io..error..Error$GT$$u2b$core..marker..Send$u2b$core..marker..Sync$GT$$GT$$GT$17hfe6f0d9f29e8122fE
Ltmp657:
	jmp	LBB91_17
LBB91_15:
Ltmp655:
	.loc	3 0 1
	movq	%rax, %rcx
	movl	%edx, %eax
	movq	%rcx, -16(%rbp)
	movl	%eax, -8(%rbp)
	jmp	LBB91_14
LBB91_16:
	movq	-32(%rbp), %rdi
	.loc	3 490 1
	subq	$-128, %rdi
Ltmp658:
	callq	__ZN4core3ptr251drop_in_place$LT$alloc..vec..Vec$LT$alloc..boxed..Box$LT$dyn$u20$core..ops..function..FnMut$LT$$LP$$RP$$GT$$u2b$Output$u20$$u3d$$u20$core..result..Result$LT$$LP$$RP$$C$std..io..error..Error$GT$$u2b$core..marker..Send$u2b$core..marker..Sync$GT$$GT$$GT$17hfe6f0d9f29e8122fE
Ltmp659:
	jmp	LBB91_19
LBB91_17:
	.loc	3 0 1
	movq	-32(%rbp), %rdi
	.loc	3 490 1
	addq	$48, %rdi
Ltmp661:
	callq	__ZN4core3ptr87drop_in_place$LT$core..option..Option$LT$alloc..boxed..Box$LT$$u5b$u32$u5d$$GT$$GT$$GT$17h316b495626776c20E
Ltmp662:
	jmp	LBB91_20
LBB91_18:
Ltmp660:
	.loc	3 0 1
	movq	%rax, %rcx
	movl	%edx, %eax
	movq	%rcx, -16(%rbp)
	movl	%eax, -8(%rbp)
	jmp	LBB91_17
LBB91_19:
	movq	-32(%rbp), %rdi
	.loc	3 490 1
	addq	$48, %rdi
Ltmp663:
	callq	__ZN4core3ptr87drop_in_place$LT$core..option..Option$LT$alloc..boxed..Box$LT$$u5b$u32$u5d$$GT$$GT$$GT$17h316b495626776c20E
Ltmp664:
	jmp	LBB91_22
LBB91_20:
	.loc	3 0 1
	movq	-32(%rbp), %rdi
	.loc	3 490 1
	addq	$152, %rdi
Ltmp666:
	callq	__ZN4core3ptr95drop_in_place$LT$core..option..Option$LT$std..sys..unix..process..process_common..Stdio$GT$$GT$17h225a393761435ad8E
Ltmp667:
	jmp	LBB91_23
LBB91_21:
Ltmp665:
	.loc	3 0 1
	movq	%rax, %rcx
	movl	%edx, %eax
	movq	%rcx, -16(%rbp)
	movl	%eax, -8(%rbp)
	jmp	LBB91_20
LBB91_22:
	movq	-32(%rbp), %rdi
	.loc	3 490 1
	addq	$152, %rdi
Ltmp668:
	callq	__ZN4core3ptr95drop_in_place$LT$core..option..Option$LT$std..sys..unix..process..process_common..Stdio$GT$$GT$17h225a393761435ad8E
Ltmp669:
	jmp	LBB91_25
LBB91_23:
	.loc	3 0 1
	movq	-32(%rbp), %rdi
	.loc	3 490 1
	addq	$160, %rdi
Ltmp671:
	callq	__ZN4core3ptr95drop_in_place$LT$core..option..Option$LT$std..sys..unix..process..process_common..Stdio$GT$$GT$17h225a393761435ad8E
Ltmp672:
	jmp	LBB91_26
LBB91_24:
Ltmp670:
	.loc	3 0 1
	movq	%rax, %rcx
	movl	%edx, %eax
	movq	%rcx, -16(%rbp)
	movl	%eax, -8(%rbp)
	jmp	LBB91_23
LBB91_25:
	movq	-32(%rbp), %rdi
	.loc	3 490 1
	addq	$160, %rdi
Ltmp673:
	callq	__ZN4core3ptr95drop_in_place$LT$core..option..Option$LT$std..sys..unix..process..process_common..Stdio$GT$$GT$17h225a393761435ad8E
Ltmp674:
	jmp	LBB91_28
LBB91_26:
	.loc	3 0 1
	movq	-32(%rbp), %rdi
	.loc	3 490 1
	addq	$168, %rdi
Ltmp676:
	callq	__ZN4core3ptr95drop_in_place$LT$core..option..Option$LT$std..sys..unix..process..process_common..Stdio$GT$$GT$17h225a393761435ad8E
Ltmp677:
	jmp	LBB91_29
LBB91_27:
Ltmp675:
	.loc	3 0 1
	movq	%rax, %rcx
	movl	%edx, %eax
	movq	%rcx, -16(%rbp)
	movl	%eax, -8(%rbp)
	jmp	LBB91_26
LBB91_28:
	movq	-32(%rbp), %rdi
	.loc	3 490 1
	addq	$168, %rdi
	callq	__ZN4core3ptr95drop_in_place$LT$core..option..Option$LT$std..sys..unix..process..process_common..Stdio$GT$$GT$17h225a393761435ad8E
	addq	$32, %rsp
	popq	%rbp
	retq
LBB91_29:
	movq	-16(%rbp), %rdi
	callq	__Unwind_Resume
Ltmp680:
Lfunc_end91:
	.cfi_endproc
	.section	__TEXT,__gcc_except_tab
	.p2align	2
GCC_except_table91:
Lexception26:
	.byte	255
	.byte	255
	.byte	1
	.uleb128 Lcst_end26-Lcst_begin26
Lcst_begin26:
	.uleb128 Ltmp633-Lfunc_begin91
	.uleb128 Ltmp634-Ltmp633
	.uleb128 Ltmp635-Lfunc_begin91
	.byte	0
	.uleb128 Ltmp636-Lfunc_begin91
	.uleb128 Ltmp637-Ltmp636
	.uleb128 Ltmp678-Lfunc_begin91
	.byte	0
	.uleb128 Ltmp638-Lfunc_begin91
	.uleb128 Ltmp639-Ltmp638
	.uleb128 Ltmp640-Lfunc_begin91
	.byte	0
	.uleb128 Ltmp641-Lfunc_begin91
	.uleb128 Ltmp642-Ltmp641
	.uleb128 Ltmp678-Lfunc_begin91
	.byte	0
	.uleb128 Ltmp643-Lfunc_begin91
	.uleb128 Ltmp644-Ltmp643
	.uleb128 Ltmp645-Lfunc_begin91
	.byte	0
	.uleb128 Ltmp646-Lfunc_begin91
	.uleb128 Ltmp647-Ltmp646
	.uleb128 Ltmp678-Lfunc_begin91
	.byte	0
	.uleb128 Ltmp648-Lfunc_begin91
	.uleb128 Ltmp649-Ltmp648
	.uleb128 Ltmp650-Lfunc_begin91
	.byte	0
	.uleb128 Ltmp651-Lfunc_begin91
	.uleb128 Ltmp652-Ltmp651
	.uleb128 Ltmp678-Lfunc_begin91
	.byte	0
	.uleb128 Ltmp653-Lfunc_begin91
	.uleb128 Ltmp654-Ltmp653
	.uleb128 Ltmp655-Lfunc_begin91
	.byte	0
	.uleb128 Ltmp656-Lfunc_begin91
	.uleb128 Ltmp657-Ltmp656
	.uleb128 Ltmp678-Lfunc_begin91
	.byte	0
	.uleb128 Ltmp658-Lfunc_begin91
	.uleb128 Ltmp659-Ltmp658
	.uleb128 Ltmp660-Lfunc_begin91
	.byte	0
	.uleb128 Ltmp661-Lfunc_begin91
	.uleb128 Ltmp662-Ltmp661
	.uleb128 Ltmp678-Lfunc_begin91
	.byte	0
	.uleb128 Ltmp663-Lfunc_begin91
	.uleb128 Ltmp664-Ltmp663
	.uleb128 Ltmp665-Lfunc_begin91
	.byte	0
	.uleb128 Ltmp666-Lfunc_begin91
	.uleb128 Ltmp667-Ltmp666
	.uleb128 Ltmp678-Lfunc_begin91
	.byte	0
	.uleb128 Ltmp668-Lfunc_begin91
	.uleb128 Ltmp669-Ltmp668
	.uleb128 Ltmp670-Lfunc_begin91
	.byte	0
	.uleb128 Ltmp671-Lfunc_begin91
	.uleb128 Ltmp672-Ltmp671
	.uleb128 Ltmp678-Lfunc_begin91
	.byte	0
	.uleb128 Ltmp673-Lfunc_begin91
	.uleb128 Ltmp674-Ltmp673
	.uleb128 Ltmp675-Lfunc_begin91
	.byte	0
	.uleb128 Ltmp676-Lfunc_begin91
	.uleb128 Ltmp677-Ltmp676
	.uleb128 Ltmp678-Lfunc_begin91
	.byte	0
	.uleb128 Ltmp677-Lfunc_begin91
	.uleb128 Lfunc_end91-Ltmp677
	.byte	0
	.byte	0
Lcst_end26:
	.p2align	2

	.section	__TEXT,__text,regular,pure_instructions
	.p2align	4, 0x90
__ZN4core3ptr70drop_in_place$LT$alloc..vec..Vec$LT$alloc..ffi..c_str..CString$GT$$GT$17h839c46b05b1d796dE:
Lfunc_begin92:
	.loc	3 490 0 is_stmt 1
	.cfi_startproc
	.cfi_personality 155, _rust_eh_personality
	.cfi_lsda 16, Lexception27
	pushq	%rbp
	.cfi_def_cfa_offset 16
	.cfi_offset %rbp, -16
	movq	%rsp, %rbp
	.cfi_def_cfa_register %rbp
	subq	$32, %rsp
	movq	%rdi, -32(%rbp)
	movq	%rdi, -24(%rbp)
Ltmp681:
Ltmp687:
	.loc	3 490 1 prologue_end
	callq	__ZN70_$LT$alloc..vec..Vec$LT$T$C$A$GT$$u20$as$u20$core..ops..drop..Drop$GT$4drop17h04830978c5b5738cE
Ltmp682:
	jmp	LBB92_3
LBB92_1:
Ltmp684:
	.loc	3 0 1 is_stmt 0
	movq	-32(%rbp), %rdi
	.loc	3 490 1
	callq	__ZN4core3ptr77drop_in_place$LT$alloc..raw_vec..RawVec$LT$alloc..ffi..c_str..CString$GT$$GT$17h26812a33aaf151abE
Ltmp685:
	jmp	LBB92_5
LBB92_2:
Ltmp683:
	.loc	3 0 1
	movq	%rax, %rcx
	movl	%edx, %eax
	movq	%rcx, -16(%rbp)
	movl	%eax, -8(%rbp)
	jmp	LBB92_1
LBB92_3:
	movq	-32(%rbp), %rdi
	.loc	3 490 1
	callq	__ZN4core3ptr77drop_in_place$LT$alloc..raw_vec..RawVec$LT$alloc..ffi..c_str..CString$GT$$GT$17h26812a33aaf151abE
	addq	$32, %rsp
	popq	%rbp
	retq
LBB92_4:
Ltmp686:
	callq	__ZN4core9panicking19panic_cannot_unwind17h1fbca7e1d7f56ae1E
LBB92_5:
	movq	-16(%rbp), %rdi
	callq	__Unwind_Resume
Ltmp688:
Lfunc_end92:
	.cfi_endproc
	.section	__TEXT,__gcc_except_tab
	.p2align	2
GCC_except_table92:
Lexception27:
	.byte	255
	.byte	255
	.byte	1
	.uleb128 Lcst_end27-Lcst_begin27
Lcst_begin27:
	.uleb128 Ltmp681-Lfunc_begin92
	.uleb128 Ltmp682-Ltmp681
	.uleb128 Ltmp683-Lfunc_begin92
	.byte	0
	.uleb128 Ltmp684-Lfunc_begin92
	.uleb128 Ltmp685-Ltmp684
	.uleb128 Ltmp686-Lfunc_begin92
	.byte	0
	.uleb128 Ltmp685-Lfunc_begin92
	.uleb128 Lfunc_end92-Ltmp685
	.byte	0
	.byte	0
Lcst_end27:
	.p2align	2

	.section	__TEXT,__text,regular,pure_instructions
	.p2align	4, 0x90
__ZN4core3ptr72drop_in_place$LT$alloc..collections..btree..mem..replace..PanicGuard$GT$17h85f2b3db1e3066c3E:
Lfunc_begin93:
	.loc	3 490 0 is_stmt 1
	.cfi_startproc
	pushq	%rbp
	.cfi_def_cfa_offset 16
	.cfi_offset %rbp, -16
	movq	%rsp, %rbp
	.cfi_def_cfa_register %rbp
	subq	$16, %rsp
	movq	%rdi, -8(%rbp)
Ltmp689:
	.loc	3 490 1 prologue_end
	callq	__ZN93_$LT$alloc..collections..btree..mem..replace..PanicGuard$u20$as$u20$core..ops..drop..Drop$GT$4drop17hd8f71405b84037e0E
	addq	$16, %rsp
	popq	%rbp
	retq
Ltmp690:
Lfunc_end93:
	.cfi_endproc

	.p2align	4, 0x90
__ZN4core3ptr75drop_in_place$LT$core..option..Option$LT$alloc..ffi..c_str..CString$GT$$GT$17h975b4eb7addb99c8E:
Lfunc_begin94:
	.loc	3 490 0
	.cfi_startproc
	pushq	%rbp
	.cfi_def_cfa_offset 16
	.cfi_offset %rbp, -16
	movq	%rsp, %rbp
	.cfi_def_cfa_register %rbp
	subq	$16, %rsp
	movq	%rdi, -16(%rbp)
	movq	%rdi, -8(%rbp)
Ltmp691:
	.loc	3 490 1 prologue_end
	movq	(%rdi), %rdx
	movl	$1, %eax
	xorl	%ecx, %ecx
	cmpq	$0, %rdx
	cmoveq	%rcx, %rax
	cmpq	$0, %rax
	jne	LBB94_2
LBB94_1:
	addq	$16, %rsp
	popq	%rbp
	retq
LBB94_2:
	.loc	3 0 1 is_stmt 0
	movq	-16(%rbp), %rdi
	.loc	3 490 1
	callq	__ZN4core3ptr47drop_in_place$LT$alloc..ffi..c_str..CString$GT$17he3952a2fb9d39efdE
	jmp	LBB94_1
Ltmp692:
Lfunc_end94:
	.cfi_endproc

	.p2align	4, 0x90
__ZN4core3ptr75drop_in_place$LT$core..option..Option$LT$std..ffi..os_str..OsString$GT$$GT$17hd03223ea987e98f5E:
Lfunc_begin95:
	.loc	3 490 0 is_stmt 1
	.cfi_startproc
	pushq	%rbp
	.cfi_def_cfa_offset 16
	.cfi_offset %rbp, -16
	movq	%rsp, %rbp
	.cfi_def_cfa_register %rbp
	subq	$16, %rsp
	movq	%rdi, -16(%rbp)
	movq	%rdi, -8(%rbp)
Ltmp693:
	.loc	3 490 1 prologue_end
	movq	8(%rdi), %rdx
	movl	$1, %eax
	xorl	%ecx, %ecx
	cmpq	$0, %rdx
	cmoveq	%rcx, %rax
	cmpq	$0, %rax
	jne	LBB95_2
LBB95_1:
	addq	$16, %rsp
	popq	%rbp
	retq
LBB95_2:
	.loc	3 0 1 is_stmt 0
	movq	-16(%rbp), %rdi
	.loc	3 490 1
	callq	__ZN4core3ptr47drop_in_place$LT$std..ffi..os_str..OsString$GT$17hf82b070c725cf247E
	jmp	LBB95_1
Ltmp694:
Lfunc_end95:
	.cfi_endproc

	.p2align	4, 0x90
__ZN4core3ptr77drop_in_place$LT$alloc..raw_vec..RawVec$LT$alloc..ffi..c_str..CString$GT$$GT$17h26812a33aaf151abE:
Lfunc_begin96:
	.loc	3 490 0 is_stmt 1
	.cfi_startproc
	pushq	%rbp
	.cfi_def_cfa_offset 16
	.cfi_offset %rbp, -16
	movq	%rsp, %rbp
	.cfi_def_cfa_register %rbp
	subq	$16, %rsp
	movq	%rdi, -8(%rbp)
Ltmp695:
	.loc	3 490 1 prologue_end
	callq	__ZN77_$LT$alloc..raw_vec..RawVec$LT$T$C$A$GT$$u20$as$u20$core..ops..drop..Drop$GT$4drop17he2ccfb1bc12145e6E
	addq	$16, %rsp
	popq	%rbp
	retq
Ltmp696:
Lfunc_end96:
	.cfi_endproc

	.p2align	4, 0x90
__ZN4core3ptr85drop_in_place$LT$std..rt..lang_start$LT$$LP$$RP$$GT$..$u7b$$u7b$closure$u7d$$u7d$$GT$17hf6391d08e16f14b7E:
Lfunc_begin97:
	.loc	3 490 0
	.cfi_startproc
	pushq	%rbp
	.cfi_def_cfa_offset 16
	.cfi_offset %rbp, -16
	movq	%rsp, %rbp
	.cfi_def_cfa_register %rbp
	pushq	%rax
	movq	%rdi, -8(%rbp)
Ltmp697:
	.loc	3 490 1 prologue_end
	addq	$8, %rsp
	popq	%rbp
	retq
Ltmp698:
Lfunc_end97:
	.cfi_endproc

	.p2align	4, 0x90
__ZN4core3ptr87drop_in_place$LT$core..option..Option$LT$alloc..boxed..Box$LT$$u5b$u32$u5d$$GT$$GT$$GT$17h316b495626776c20E:
Lfunc_begin98:
	.loc	3 490 0
	.cfi_startproc
	pushq	%rbp
	.cfi_def_cfa_offset 16
	.cfi_offset %rbp, -16
	movq	%rsp, %rbp
	.cfi_def_cfa_register %rbp
	subq	$16, %rsp
	movq	%rdi, -16(%rbp)
	movq	%rdi, -8(%rbp)
Ltmp699:
	.loc	3 490 1 prologue_end
	movq	(%rdi), %rdx
	movl	$1, %eax
	xorl	%ecx, %ecx
	cmpq	$0, %rdx
	cmoveq	%rcx, %rax
	cmpq	$0, %rax
	jne	LBB98_2
LBB98_1:
	addq	$16, %rsp
	popq	%rbp
	retq
LBB98_2:
	.loc	3 0 1 is_stmt 0
	movq	-16(%rbp), %rdi
	.loc	3 490 1
	callq	__ZN4core3ptr59drop_in_place$LT$alloc..boxed..Box$LT$$u5b$u32$u5d$$GT$$GT$17h73d3f73ae45ec5d6E
	jmp	LBB98_1
Ltmp700:
Lfunc_end98:
	.cfi_endproc

	.p2align	4, 0x90
__ZN4core3ptr8non_null16NonNull$LT$T$GT$3new17h8901a6e0c4ec9760E:
Lfunc_begin99:
	.loc	8 222 0 is_stmt 1
	.cfi_startproc
	pushq	%rbp
	.cfi_def_cfa_offset 16
	.cfi_offset %rbp, -16
	movq	%rsp, %rbp
	.cfi_def_cfa_register %rbp
	subq	$88, %rsp
	movq	%rdi, -88(%rbp)
	movq	%rdi, -56(%rbp)
Ltmp701:
	.loc	8 223 13 prologue_end
	movq	%rdi, -48(%rbp)
Ltmp702:
	.loc	18 52 36
	movq	%rdi, -64(%rbp)
	.loc	18 52 18 is_stmt 0
	movq	-64(%rbp), %rax
	movq	%rax, -40(%rbp)
Ltmp703:
	.loc	18 38 13 is_stmt 1
	movq	%rax, -32(%rbp)
Ltmp704:
	.loc	18 215 33
	movq	%rax, -24(%rbp)
	.loc	18 215 18 is_stmt 0
	movq	%rax, -16(%rbp)
Ltmp705:
	.loc	18 38 13 is_stmt 1
	cmpq	$0, -16(%rbp)
	sete	%al
Ltmp706:
	.loc	8 223 12
	xorb	$-1, %al
	testb	$1, %al
	jne	LBB99_2
	.loc	8 227 13
	movq	$0, -80(%rbp)
	.loc	8 223 9
	jmp	LBB99_3
LBB99_2:
	.loc	8 0 9 is_stmt 0
	movq	-88(%rbp), %rax
	.loc	8 225 47 is_stmt 1
	movq	%rax, -8(%rbp)
Ltmp707:
	.loc	8 201 13
	movq	%rax, -72(%rbp)
Ltmp708:
	.loc	8 225 13
	movq	-72(%rbp), %rax
	movq	%rax, -80(%rbp)
LBB99_3:
	.loc	8 229 6
	movq	-80(%rbp), %rax
	addq	$88, %rsp
	popq	%rbp
	retq
Ltmp709:
Lfunc_end99:
	.cfi_endproc

	.p2align	4, 0x90
__ZN4core3ptr8non_null26NonNull$LT$$u5b$T$u5d$$GT$20slice_from_raw_parts17h34d990049d3269fcE:
Lfunc_begin100:
	.loc	8 482 0
	.cfi_startproc
	pushq	%rbp
	.cfi_def_cfa_offset 16
	.cfi_offset %rbp, -16
	movq	%rsp, %rbp
	.cfi_def_cfa_register %rbp
	subq	$128, %rsp
	movq	%rdi, -80(%rbp)
	movq	%rsi, -72(%rbp)
Ltmp710:
	.loc	8 484 70 prologue_end
	movq	%rdi, -64(%rbp)
Ltmp711:
	.loc	8 326 9
	movq	%rdi, -56(%rbp)
Ltmp712:
	.loc	8 484 85
	movq	%rsi, -48(%rbp)
Ltmp713:
	.loc	3 766 24
	movq	%rdi, -40(%rbp)
Ltmp714:
	.loc	18 60 9
	movq	%rdi, -32(%rbp)
Ltmp715:
	.loc	3 766 37
	movq	%rsi, -24(%rbp)
Ltmp716:
	.loc	4 135 36
	movq	%rdi, -96(%rbp)
	movq	%rsi, -88(%rbp)
	.loc	4 135 14 is_stmt 0
	movq	-96(%rbp), %rcx
	movq	-88(%rbp), %rax
	movq	%rcx, -112(%rbp)
	movq	%rax, -104(%rbp)
	movq	-112(%rbp), %rcx
	movq	-104(%rbp), %rax
	movq	%rcx, -16(%rbp)
	movq	%rax, -8(%rbp)
Ltmp717:
	.loc	8 201 13 is_stmt 1
	movq	%rcx, -128(%rbp)
	movq	%rax, -120(%rbp)
Ltmp718:
	.loc	8 485 6
	movq	-128(%rbp), %rax
	movq	-120(%rbp), %rdx
	addq	$128, %rsp
	popq	%rbp
	retq
Ltmp719:
Lfunc_end100:
	.cfi_endproc

	.p2align	4, 0x90
__ZN4core3ptr90drop_in_place$LT$core..result..Result$LT$std..fs..Metadata$C$std..io..error..Error$GT$$GT$17h5be374cce664fe1fE:
Lfunc_begin101:
	.loc	3 490 0
	.cfi_startproc
	pushq	%rbp
	.cfi_def_cfa_offset 16
	.cfi_offset %rbp, -16
	movq	%rsp, %rbp
	.cfi_def_cfa_register %rbp
	subq	$16, %rsp
	movq	%rdi, -16(%rbp)
	movq	%rdi, -8(%rbp)
Ltmp720:
	.loc	3 490 1 prologue_end
	cmpq	$0, (%rdi)
	jne	LBB101_2
LBB101_1:
	addq	$16, %rsp
	popq	%rbp
	retq
LBB101_2:
	.loc	3 0 1 is_stmt 0
	movq	-16(%rbp), %rdi
	.loc	3 490 1
	addq	$8, %rdi
	callq	__ZN4core3ptr42drop_in_place$LT$std..io..error..Error$GT$17h2b6a895a2cf1b5b9E
	jmp	LBB101_1
Ltmp721:
Lfunc_end101:
	.cfi_endproc

	.p2align	4, 0x90
__ZN4core3ptr93drop_in_place$LT$dyn$u20$core..error..Error$u2b$core..marker..Send$u2b$core..marker..Sync$GT$17h9b2c702b16a98108E:
Lfunc_begin102:
	.loc	3 490 0 is_stmt 1
	.cfi_startproc
	pushq	%rbp
	.cfi_def_cfa_offset 16
	.cfi_offset %rbp, -16
	movq	%rsp, %rbp
	.cfi_def_cfa_register %rbp
	subq	$16, %rsp
	movq	%rdi, -16(%rbp)
	movq	%rsi, -8(%rbp)
Ltmp722:
	.loc	3 490 1 prologue_end
	callq	*(%rsi)
	addq	$16, %rsp
	popq	%rbp
	retq
Ltmp723:
Lfunc_end102:
	.cfi_endproc

	.p2align	4, 0x90
__ZN4core3ptr95drop_in_place$LT$core..option..Option$LT$std..sys..unix..process..process_common..Stdio$GT$$GT$17h225a393761435ad8E:
Lfunc_begin103:
	.loc	3 490 0
	.cfi_startproc
	pushq	%rbp
	.cfi_def_cfa_offset 16
	.cfi_offset %rbp, -16
	movq	%rsp, %rbp
	.cfi_def_cfa_register %rbp
	subq	$16, %rsp
	movq	%rdi, -16(%rbp)
	movq	%rdi, -8(%rbp)
Ltmp724:
	.loc	3 490 1 prologue_end
	movl	$1, %eax
	xorl	%ecx, %ecx
	cmpl	$4, (%rdi)
	cmoveq	%rcx, %rax
	cmpq	$0, %rax
	jne	LBB103_2
LBB103_1:
	addq	$16, %rsp
	popq	%rbp
	retq
LBB103_2:
	.loc	3 0 1 is_stmt 0
	movq	-16(%rbp), %rdi
	.loc	3 490 1
	callq	__ZN4core3ptr67drop_in_place$LT$std..sys..unix..process..process_common..Stdio$GT$17h2acf9c9dae0c548aE
	jmp	LBB103_1
Ltmp725:
Lfunc_end103:
	.cfi_endproc

	.p2align	4, 0x90
__ZN4core3str21_$LT$impl$u20$str$GT$16is_char_boundary17h48ccf34b5876ff19E:
Lfunc_begin104:
	.loc	27 211 0 is_stmt 1
	.cfi_startproc
	pushq	%rbp
	.cfi_def_cfa_offset 16
	.cfi_offset %rbp, -16
	movq	%rsp, %rbp
	.cfi_def_cfa_register %rbp
	subq	$176, %rsp
	movq	%rdi, -176(%rbp)
	movq	%rsi, -168(%rbp)
	movq	%rdx, -160(%rbp)
	movq	%rdi, -136(%rbp)
	movq	%rsi, -128(%rbp)
	movq	%rdx, -120(%rbp)
Ltmp726:
	.loc	27 216 12 prologue_end
	cmpq	$0, %rdx
	jne	LBB104_2
	.loc	27 217 20
	movb	$1, -145(%rbp)
	.loc	27 234 6
	jmp	LBB104_6
LBB104_2:
	.loc	27 0 6 is_stmt 0
	movq	-160(%rbp), %rdi
	movq	-168(%rbp), %rax
	movq	-176(%rbp), %rcx
	.loc	27 220 15 is_stmt 1
	movq	%rcx, -112(%rbp)
	movq	%rax, -104(%rbp)
Ltmp727:
	.loc	27 327 18
	movq	%rcx, -96(%rbp)
	movq	%rax, -88(%rbp)
	movq	-96(%rbp), %rsi
	movq	-88(%rbp), %rdx
Ltmp728:
	.loc	27 220 15
	movq	%rsi, -80(%rbp)
	movq	%rdx, -72(%rbp)
	.loc	27 220 35 is_stmt 0
	movq	%rdi, -64(%rbp)
Ltmp729:
	.loc	14 343 9 is_stmt 1
	callq	__ZN75_$LT$usize$u20$as$u20$core..slice..index..SliceIndex$LT$$u5b$T$u5d$$GT$$GT$3get17h9bbf1a8c45f8e5b9E
	movq	%rax, -144(%rbp)
Ltmp730:
	.loc	27 220 15
	movq	-144(%rbp), %rdx
	movl	$1, %eax
	xorl	%ecx, %ecx
	cmpq	$0, %rdx
	cmoveq	%rcx, %rax
	.loc	27 220 9 is_stmt 0
	cmpq	$0, %rax
	jne	LBB104_4
	.loc	27 0 9
	movq	-160(%rbp), %rax
	movq	-168(%rbp), %rcx
	movq	-176(%rbp), %rdx
	.loc	27 230 30 is_stmt 1
	movq	%rdx, -48(%rbp)
	movq	%rcx, -40(%rbp)
Ltmp731:
	.loc	27 160 9
	movq	%rdx, -32(%rbp)
	movq	%rcx, -24(%rbp)
Ltmp732:
	.loc	27 327 18
	movq	%rdx, -16(%rbp)
	movq	%rcx, -8(%rbp)
Ltmp733:
	.loc	27 230 21
	cmpq	-8(%rbp), %rax
	sete	%al
	andb	$1, %al
	movb	%al, -145(%rbp)
	.loc	27 230 39 is_stmt 0
	jmp	LBB104_5
LBB104_4:
	.loc	27 232 19 is_stmt 1
	movq	-144(%rbp), %rax
	movb	(%rax), %al
	movb	%al, -50(%rbp)
Ltmp734:
	.loc	27 232 25 is_stmt 0
	movb	%al, -49(%rbp)
Ltmp735:
	.file	35 "/rustc/2c8cc343237b8f7d5a3c3703e3a87f2eb2c54a74/library/core/src/num" "mod.rs"
	.loc	35 885 9 is_stmt 1
	cmpb	$-64, %al
	setge	%al
	andb	$1, %al
	movb	%al, -145(%rbp)
Ltmp736:
LBB104_5:
	.loc	27 234 6
	jmp	LBB104_6
LBB104_6:
	movb	-145(%rbp), %al
	andb	$1, %al
	movzbl	%al, %eax
	addq	$176, %rsp
	popq	%rbp
	retq
Ltmp737:
Lfunc_end104:
	.cfi_endproc

	.p2align	4, 0x90
__ZN4core3str6traits108_$LT$impl$u20$core..slice..index..SliceIndex$LT$str$GT$$u20$for$u20$core..ops..range..Range$LT$usize$GT$$GT$13get_unchecked17h603ccc59b2b7bd0dE:
Lfunc_begin105:
	.file	36 "/rustc/2c8cc343237b8f7d5a3c3703e3a87f2eb2c54a74/library/core/src/str" "traits.rs"
	.loc	36 197 0
	.cfi_startproc
	pushq	%rbp
	.cfi_def_cfa_offset 16
	.cfi_offset %rbp, -16
	movq	%rsp, %rbp
	.cfi_def_cfa_register %rbp
	subq	$192, %rsp
	movq	%rdi, -160(%rbp)
	movq	%rsi, -152(%rbp)
	movq	%rdx, -144(%rbp)
	movq	%rcx, -136(%rbp)
Ltmp738:
	.loc	36 198 21 prologue_end
	movq	%rdx, -128(%rbp)
	movq	%rcx, -120(%rbp)
Ltmp739:
	.loc	36 201 28
	movq	%rdx, -112(%rbp)
	movq	%rcx, -104(%rbp)
Ltmp740:
	.loc	2 1650 9
	movq	%rdx, -96(%rbp)
Ltmp741:
	.loc	36 201 47
	movq	%rdi, -88(%rbp)
Ltmp742:
	.loc	2 932 18
	movq	%rdx, -80(%rbp)
	.loc	2 932 30 is_stmt 0
	movq	%rdi, -72(%rbp)
Ltmp743:
	.loc	2 473 18 is_stmt 1
	addq	%rdi, %rdx
	movq	%rdx, -64(%rbp)
	movq	-64(%rbp), %rax
	movq	%rax, -56(%rbp)
Ltmp744:
	.loc	36 202 19
	subq	%rdi, %rsi
	movq	%rsi, -48(%rbp)
Ltmp745:
	.loc	36 203 35
	movq	%rax, -40(%rbp)
	.loc	36 203 40 is_stmt 0
	movq	%rsi, -32(%rbp)
Ltmp746:
	.loc	3 734 20 is_stmt 1
	movq	%rax, -24(%rbp)
Ltmp747:
	.loc	2 61 9
	movq	%rax, -16(%rbp)
Ltmp748:
	.loc	3 734 33
	movq	%rsi, -8(%rbp)
Ltmp749:
	.loc	4 118 36
	movq	%rax, -176(%rbp)
	movq	%rsi, -168(%rbp)
	.loc	4 118 14 is_stmt 0
	movq	-176(%rbp), %rcx
	movq	-168(%rbp), %rax
	movq	%rcx, -192(%rbp)
	movq	%rax, -184(%rbp)
	movq	-192(%rbp), %rax
	movq	-184(%rbp), %rdx
Ltmp750:
	.loc	36 204 6 is_stmt 1
	addq	$192, %rsp
	popq	%rbp
	retq
Ltmp751:
Lfunc_end105:
	.cfi_endproc

	.p2align	4, 0x90
__ZN4core3str6traits108_$LT$impl$u20$core..slice..index..SliceIndex$LT$str$GT$$u20$for$u20$core..ops..range..Range$LT$usize$GT$$GT$3get17hc35182eceaee7b4bE:
Lfunc_begin106:
	.loc	36 170 0
	.cfi_startproc
	pushq	%rbp
	.cfi_def_cfa_offset 16
	.cfi_offset %rbp, -16
	movq	%rsp, %rbp
	.cfi_def_cfa_register %rbp
	subq	$96, %rsp
	movq	%rdi, -88(%rbp)
	movq	%rsi, -80(%rbp)
	movq	%rdx, -72(%rbp)
	movq	%rcx, -64(%rbp)
	movq	%rdi, -32(%rbp)
	movq	%rsi, -24(%rbp)
	movq	%rdx, -16(%rbp)
	movq	%rcx, -8(%rbp)
Ltmp752:
	.loc	36 171 12 prologue_end
	cmpq	%rsi, %rdi
	jbe	LBB106_2
	movb	$0, -33(%rbp)
	jmp	LBB106_3
LBB106_2:
	.loc	36 0 12 is_stmt 0
	movq	-88(%rbp), %rdx
	movq	-64(%rbp), %rsi
	movq	-72(%rbp), %rdi
	.loc	36 172 16 is_stmt 1
	callq	__ZN4core3str21_$LT$impl$u20$str$GT$16is_char_boundary17h48ccf34b5876ff19E
	.loc	36 171 12
	andb	$1, %al
	movb	%al, -33(%rbp)
LBB106_3:
	testb	$1, -33(%rbp)
	jne	LBB106_5
	movb	$0, -34(%rbp)
	jmp	LBB106_6
LBB106_5:
	.loc	36 0 12 is_stmt 0
	movq	-80(%rbp), %rdx
	movq	-64(%rbp), %rsi
	movq	-72(%rbp), %rdi
	.loc	36 173 16 is_stmt 1
	callq	__ZN4core3str21_$LT$impl$u20$str$GT$16is_char_boundary17h48ccf34b5876ff19E
	.loc	36 171 12
	andb	$1, %al
	movb	%al, -34(%rbp)
LBB106_6:
	testb	$1, -34(%rbp)
	jne	LBB106_8
	.loc	36 180 13
	movq	$0, -56(%rbp)
	.loc	36 171 9
	jmp	LBB106_9
LBB106_8:
	.loc	36 0 9 is_stmt 0
	movq	-64(%rbp), %rcx
	movq	-72(%rbp), %rdx
	movq	-80(%rbp), %rsi
	movq	-88(%rbp), %rdi
	.loc	36 178 29 is_stmt 1
	callq	__ZN4core3str6traits108_$LT$impl$u20$core..slice..index..SliceIndex$LT$str$GT$$u20$for$u20$core..ops..range..Range$LT$usize$GT$$GT$13get_unchecked17h603ccc59b2b7bd0dE
	.loc	36 178 13 is_stmt 0
	movq	%rax, -56(%rbp)
	movq	%rdx, -48(%rbp)
LBB106_9:
	.loc	36 182 6 is_stmt 1
	movq	-56(%rbp), %rax
	movq	-48(%rbp), %rdx
	addq	$96, %rsp
	popq	%rbp
	retq
Ltmp753:
Lfunc_end106:
	.cfi_endproc

	.p2align	4, 0x90
__ZN4core3str6traits108_$LT$impl$u20$core..slice..index..SliceIndex$LT$str$GT$$u20$for$u20$core..ops..range..Range$LT$usize$GT$$GT$5index17h74e7dcf92cb9631bE:
Lfunc_begin107:
	.loc	36 214 0
	.cfi_startproc
	pushq	%rbp
	.cfi_def_cfa_offset 16
	.cfi_offset %rbp, -16
	movq	%rsp, %rbp
	.cfi_def_cfa_register %rbp
	subq	$144, %rsp
	movq	%rdx, -136(%rbp)
	movq	%rcx, -128(%rbp)
	movq	%r8, -120(%rbp)
	movq	%rdi, -64(%rbp)
	movq	%rsi, -56(%rbp)
	movq	%rdx, -48(%rbp)
	movq	%rcx, -40(%rbp)
Ltmp754:
	.loc	36 215 28 prologue_end
	movq	%rdi, -96(%rbp)
	movq	%rsi, -88(%rbp)
	.loc	36 215 14 is_stmt 0
	movq	-96(%rbp), %rax
	movq	%rax, -112(%rbp)
	movq	%rax, -32(%rbp)
	.loc	36 215 21
	movq	-88(%rbp), %rax
	movq	%rax, -104(%rbp)
	movq	%rax, -24(%rbp)
Ltmp755:
	.loc	36 216 15 is_stmt 1
	callq	__ZN4core3str6traits108_$LT$impl$u20$core..slice..index..SliceIndex$LT$str$GT$$u20$for$u20$core..ops..range..Range$LT$usize$GT$$GT$3get17hc35182eceaee7b4bE
	movq	%rdx, -72(%rbp)
	movq	%rax, -80(%rbp)
	movq	-80(%rbp), %rdx
	movl	$1, %eax
	xorl	%ecx, %ecx
	cmpq	$0, %rdx
	cmoveq	%rcx, %rax
	.loc	36 216 9 is_stmt 0
	cmpq	$0, %rax
	jne	LBB107_2
	.loc	36 0 9
	movq	-120(%rbp), %r8
	movq	-104(%rbp), %rcx
	movq	-112(%rbp), %rdx
	movq	-128(%rbp), %rsi
	movq	-136(%rbp), %rdi
	.loc	36 218 21 is_stmt 1
	callq	__ZN4core3str16slice_error_fail17h13b85bf03fb2869bE
LBB107_2:
	.loc	36 217 18
	movq	-80(%rbp), %rax
	movq	-72(%rbp), %rdx
	movq	%rax, -16(%rbp)
	movq	%rdx, -8(%rbp)
Ltmp756:
	.loc	36 220 6
	addq	$144, %rsp
	popq	%rbp
	retq
Ltmp757:
Lfunc_end107:
	.cfi_endproc

	.p2align	4, 0x90
__ZN4core3str6traits66_$LT$impl$u20$core..ops..index..Index$LT$I$GT$$u20$for$u20$str$GT$5index17hbaf8dda7a82dc3b8E:
Lfunc_begin108:
	.loc	36 64 0
	.cfi_startproc
	pushq	%rbp
	.cfi_def_cfa_offset 16
	.cfi_offset %rbp, -16
	movq	%rsp, %rbp
	.cfi_def_cfa_register %rbp
	subq	$48, %rsp
	movq	%rcx, -48(%rbp)
	movq	%rdx, -40(%rbp)
	movq	%rsi, %rcx
	movq	-48(%rbp), %rsi
	movq	%rdi, %rdx
	movq	-40(%rbp), %rdi
	movq	%rdx, -32(%rbp)
	movq	%rcx, -24(%rbp)
	movq	%rdi, -16(%rbp)
	movq	%rsi, -8(%rbp)
Ltmp758:
	.loc	36 65 9 prologue_end
	callq	__ZN4core3str6traits108_$LT$impl$u20$core..slice..index..SliceIndex$LT$str$GT$$u20$for$u20$core..ops..range..Range$LT$usize$GT$$GT$5index17h74e7dcf92cb9631bE
	.loc	36 66 6
	addq	$48, %rsp
	popq	%rbp
	retq
Ltmp759:
Lfunc_end108:
	.cfi_endproc

	.p2align	4, 0x90
__ZN4core4hint21unreachable_unchecked17h2512972abae891aeE:
Lfunc_begin109:
	.loc	11 100 0
	.cfi_startproc
	pushq	%rbp
	.cfi_def_cfa_offset 16
	.cfi_offset %rbp, -16
	movq	%rsp, %rbp
	.cfi_def_cfa_register %rbp
Ltmp760:
	.loc	11 104 9 prologue_end
	ud2
Ltmp761:
Lfunc_end109:
	.cfi_endproc

	.p2align	4, 0x90
__ZN4core5alloc6layout10size_align17h45ca32d8cca4ade0E:
Lfunc_begin110:
	.file	37 "/rustc/2c8cc343237b8f7d5a3c3703e3a87f2eb2c54a74/library/core/src/alloc" "layout.rs"
	.loc	37 19 0
	.cfi_startproc
	pushq	%rbp
	.cfi_def_cfa_offset 16
	.cfi_offset %rbp, -16
	movq	%rsp, %rbp
	.cfi_def_cfa_register %rbp
	subq	$16, %rsp
Ltmp762:
	.loc	37 20 5 prologue_end
	movq	$640, -16(%rbp)
	movq	$8, -8(%rbp)
	.loc	37 21 2
	movq	-16(%rbp), %rax
	movq	-8(%rbp), %rdx
	addq	$16, %rsp
	popq	%rbp
	retq
Ltmp763:
Lfunc_end110:
	.cfi_endproc

	.p2align	4, 0x90
__ZN4core5alloc6layout10size_align17he20c3286cceb84a4E:
Lfunc_begin111:
	.loc	37 19 0
	.cfi_startproc
	pushq	%rbp
	.cfi_def_cfa_offset 16
	.cfi_offset %rbp, -16
	movq	%rsp, %rbp
	.cfi_def_cfa_register %rbp
	subq	$16, %rsp
Ltmp764:
	.loc	37 20 5 prologue_end
	movq	$544, -16(%rbp)
	movq	$8, -8(%rbp)
	.loc	37 21 2
	movq	-16(%rbp), %rax
	movq	-8(%rbp), %rdx
	addq	$16, %rsp
	popq	%rbp
	retq
Ltmp765:
Lfunc_end111:
	.cfi_endproc

	.p2align	4, 0x90
__ZN4core5alloc6layout6Layout5array5inner17hf0a2b4fe96db0987E:
Lfunc_begin112:
	.loc	37 441 0
	.cfi_startproc
	pushq	%rbp
	.cfi_def_cfa_offset 16
	.cfi_offset %rbp, -16
	movq	%rsp, %rbp
	.cfi_def_cfa_register %rbp
	subq	$176, %rsp
	movq	%rdi, -168(%rbp)
	movq	%rsi, -160(%rbp)
	movq	%rdx, -152(%rbp)
	movq	%rdi, -88(%rbp)
	movq	%rsi, -80(%rbp)
	movq	%rdx, -72(%rbp)
Ltmp766:
	.loc	37 452 16 prologue_end
	cmpq	$0, %rdi
	jne	LBB112_2
	movb	$0, -121(%rbp)
	jmp	LBB112_5
LBB112_2:
	.loc	37 0 16 is_stmt 0
	movq	-168(%rbp), %rax
	movq	-160(%rbp), %rcx
	.loc	37 452 68
	movq	%rcx, -64(%rbp)
Ltmp767:
	.loc	37 93 32 is_stmt 1
	movq	%rcx, -56(%rbp)
Ltmp768:
	.file	38 "/rustc/2c8cc343237b8f7d5a3c3703e3a87f2eb2c54a74/library/core/src/ptr" "alignment.rs"
	.loc	38 97 9
	movq	%rcx, -104(%rbp)
	movq	-104(%rbp), %rdx
Ltmp769:
	.loc	37 93 31
	subq	$1, %rdx
	.loc	37 93 9 is_stmt 0
	movabsq	$9223372036854775807, %rcx
	subq	%rdx, %rcx
	movq	%rcx, -176(%rbp)
Ltmp770:
	.loc	37 452 41 is_stmt 1
	cmpq	$0, %rax
	sete	%al
	testb	$1, %al
	jne	LBB112_4
	.loc	37 0 41 is_stmt 0
	movq	-168(%rbp), %rcx
	movq	-176(%rbp), %rax
	.loc	37 452 41
	xorl	%edx, %edx
	divq	%rcx
	movq	%rax, %rcx
	movq	-152(%rbp), %rax
	.loc	37 452 37
	cmpq	%rcx, %rax
	seta	%al
	.loc	37 452 16
	andb	$1, %al
	movb	%al, -121(%rbp)
	jmp	LBB112_5
LBB112_4:
	.loc	37 452 41
	leaq	_str.0(%rip), %rdi
	leaq	l___unnamed_10(%rip), %rdx
	movl	$25, %esi
	callq	__ZN4core9panicking5panic17hc1bc45270cf64b03E
LBB112_5:
	.loc	37 452 16
	testb	$1, -121(%rbp)
	jne	LBB112_7
	.loc	37 0 16
	movq	-160(%rbp), %rax
	movq	-152(%rbp), %rdx
	movq	-168(%rbp), %rcx
	.loc	37 456 30 is_stmt 1
	imulq	%rdx, %rcx
	movq	%rcx, -48(%rbp)
Ltmp771:
	.loc	37 461 59
	movq	%rcx, -40(%rbp)
	.loc	37 461 71 is_stmt 0
	movq	%rax, -32(%rbp)
Ltmp772:
	.loc	38 97 9 is_stmt 1
	movq	%rax, -96(%rbp)
	movq	-96(%rbp), %rax
	movq	%rax, -24(%rbp)
Ltmp773:
	.loc	37 120 65
	movq	%rax, -16(%rbp)
Ltmp774:
	.loc	38 89 18
	movq	%rax, -8(%rbp)
	movq	-8(%rbp), %rax
Ltmp775:
	.loc	37 120 18
	movq	%rcx, -120(%rbp)
	movq	%rax, -112(%rbp)
Ltmp776:
	.loc	37 461 22
	movq	-120(%rbp), %rcx
	movq	-112(%rbp), %rax
	movq	%rcx, -144(%rbp)
	movq	%rax, -136(%rbp)
Ltmp777:
	.loc	37 462 10
	jmp	LBB112_8
LBB112_7:
	.loc	37 453 24
	movq	$0, -136(%rbp)
LBB112_8:
	.loc	37 462 10
	movq	-144(%rbp), %rax
	movq	-136(%rbp), %rdx
	addq	$176, %rsp
	popq	%rbp
	retq
Ltmp778:
Lfunc_end112:
	.cfi_endproc

	.p2align	4, 0x90
__ZN4core5array98_$LT$impl$u20$core..iter..traits..collect..IntoIterator$u20$for$u20$$RF$$u5b$T$u3b$$u20$N$u5d$$GT$9into_iter17h366a7992b04d7512E:
Lfunc_begin113:
	.file	39 "/rustc/2c8cc343237b8f7d5a3c3703e3a87f2eb2c54a74/library/core/src/array" "mod.rs"
	.loc	39 333 0
	.cfi_startproc
	pushq	%rbp
	.cfi_def_cfa_offset 16
	.cfi_offset %rbp, -16
	movq	%rsp, %rbp
	.cfi_def_cfa_register %rbp
	subq	$32, %rsp
	movq	%rdi, -24(%rbp)
Ltmp779:
	.loc	39 334 9 prologue_end
	movq	%rdi, -16(%rbp)
	movq	$2, -8(%rbp)
	movl	$2, %esi
Ltmp780:
	.loc	14 742 9
	callq	__ZN4core5slice4iter13Iter$LT$T$GT$3new17h6dcef91a246c90aaE
Ltmp781:
	.loc	39 335 6
	addq	$32, %rsp
	popq	%rbp
	retq
Ltmp782:
Lfunc_end113:
	.cfi_endproc

	.p2align	4, 0x90
__ZN4core5slice4iter13Iter$LT$T$GT$3new17h6dcef91a246c90aaE:
Lfunc_begin114:
	.file	40 "/rustc/2c8cc343237b8f7d5a3c3703e3a87f2eb2c54a74/library/core/src/slice" "iter.rs"
	.loc	40 82 0
	.cfi_startproc
	pushq	%rbp
	.cfi_def_cfa_offset 16
	.cfi_offset %rbp, -16
	movq	%rsp, %rbp
	.cfi_def_cfa_register %rbp
	subq	$280, %rsp
	movq	%rdi, -280(%rbp)
	movq	%rsi, -272(%rbp)
	movq	%rdi, -208(%rbp)
	movq	%rsi, -200(%rbp)
Ltmp783:
	.loc	40 83 19 prologue_end
	movq	%rdi, -184(%rbp)
	movq	%rsi, -176(%rbp)
Ltmp784:
	.loc	14 477 9
	movq	%rdi, -168(%rbp)
Ltmp785:
	.loc	40 86 21
	movq	%rdi, -160(%rbp)
Ltmp786:
	.loc	2 53 36
	movq	%rdi, -232(%rbp)
	.loc	2 53 18 is_stmt 0
	movq	-232(%rbp), %rax
	movq	%rax, -152(%rbp)
Ltmp787:
	.loc	2 39 13 is_stmt 1
	movq	%rax, -144(%rbp)
Ltmp788:
	.loc	2 209 33
	movq	%rax, -136(%rbp)
	.loc	2 209 18 is_stmt 0
	movq	%rax, -128(%rbp)
Ltmp789:
	.loc	40 89 20 is_stmt 1
	xorl	%eax, %eax
	testb	$1, %al
	jne	LBB114_2
	.loc	40 0 20 is_stmt 0
	movq	-280(%rbp), %rax
	movq	-272(%rbp), %rcx
	.loc	40 89 76
	movq	%rax, -40(%rbp)
	.loc	40 89 84
	movq	%rcx, -32(%rbp)
Ltmp790:
	.loc	2 932 18 is_stmt 1
	movq	%rax, -24(%rbp)
	.loc	2 932 30 is_stmt 0
	movq	%rcx, -16(%rbp)
Ltmp791:
	.loc	2 473 18 is_stmt 1
	shlq	$4, %rcx
	addq	%rcx, %rax
	movq	%rax, -248(%rbp)
Ltmp792:
	.loc	40 89 17
	jmp	LBB114_3
LBB114_2:
	.loc	40 0 17 is_stmt 0
	movq	-272(%rbp), %rcx
	movq	-280(%rbp), %rax
	.loc	40 89 32
	movq	%rax, -120(%rbp)
	.loc	40 89 54
	movq	%rcx, -112(%rbp)
Ltmp793:
	.loc	2 1118 9 is_stmt 1
	movq	%rax, -104(%rbp)
Ltmp794:
	.loc	2 61 9
	movq	%rax, -96(%rbp)
Ltmp795:
	.loc	2 1118 40
	movq	%rcx, -88(%rbp)
Ltmp796:
	.loc	2 1100 9
	movq	%rax, -80(%rbp)
	.loc	2 1100 30 is_stmt 0
	movq	%rcx, -72(%rbp)
Ltmp797:
	.loc	2 555 18 is_stmt 1
	addq	%rcx, %rax
	movq	%rax, -64(%rbp)
	movq	-64(%rbp), %rax
	movq	%rax, -56(%rbp)
Ltmp798:
	.loc	2 100 29
	movq	%rax, -48(%rbp)
Ltmp799:
	.loc	4 118 36
	movq	%rax, -216(%rbp)
	.loc	4 118 14 is_stmt 0
	movq	-216(%rbp), %rax
	movq	%rax, -224(%rbp)
	movq	-224(%rbp), %rax
	movq	%rax, -248(%rbp)
Ltmp800:
LBB114_3:
	.loc	4 0 14
	movq	-280(%rbp), %rax
Ltmp801:
	.loc	40 91 48 is_stmt 1
	movq	%rax, -8(%rbp)
Ltmp802:
	.loc	8 201 13
	movq	%rax, -240(%rbp)
Ltmp803:
	.loc	40 91 64
	movq	-248(%rbp), %rax
	.loc	40 91 13 is_stmt 0
	movq	-240(%rbp), %rcx
	movq	%rcx, -256(%rbp)
	movq	%rax, -264(%rbp)
Ltmp804:
	.loc	40 93 6 is_stmt 1
	movq	-264(%rbp), %rax
	movq	-256(%rbp), %rdx
	addq	$280, %rsp
	popq	%rbp
	retq
Ltmp805:
Lfunc_end114:
	.cfi_endproc

	.p2align	4, 0x90
__ZN4core6option15Option$LT$T$GT$11map_or_else17h19e57e0cb1b1b9aeE:
Lfunc_begin115:
	.loc	7 1055 0
	.cfi_startproc
	.cfi_personality 155, _rust_eh_personality
	.cfi_lsda 16, Lexception28
	pushq	%rbp
	.cfi_def_cfa_offset 16
	.cfi_offset %rbp, -16
	movq	%rsp, %rbp
	.cfi_def_cfa_register %rbp
	subq	$112, %rsp
	movq	%rcx, -112(%rbp)
	movq	%rdi, -104(%rbp)
	movq	%rdi, -96(%rbp)
	movq	%rsi, -88(%rbp)
	movq	%rdx, -80(%rbp)
	movq	%rcx, -48(%rbp)
Ltmp811:
	.loc	7 1062 15 prologue_end
	movb	$1, -49(%rbp)
	movb	$1, -50(%rbp)
	movq	-88(%rbp), %rdx
	movl	$1, %eax
	xorl	%ecx, %ecx
	cmpq	$0, %rdx
	cmoveq	%rcx, %rax
	.loc	7 1062 9 is_stmt 0
	cmpq	$0, %rax
	jne	LBB115_2
	.loc	7 0 9
	movq	-112(%rbp), %rsi
	movq	-104(%rbp), %rdi
	.loc	7 1064 21 is_stmt 1
	movb	$0, -49(%rbp)
Ltmp808:
	callq	__ZN5alloc3fmt6format28_$u7b$$u7b$closure$u7d$$u7d$17h376bbb4fa8e754c3E
Ltmp809:
	jmp	LBB115_7
LBB115_2:
	.loc	7 0 21 is_stmt 0
	movq	-104(%rbp), %rdi
	.loc	7 1063 18 is_stmt 1
	movq	-88(%rbp), %rcx
	movq	-80(%rbp), %rax
	movq	%rcx, -32(%rbp)
	movq	%rax, -24(%rbp)
Ltmp812:
	.loc	7 1063 24 is_stmt 0
	movb	$0, -50(%rbp)
	movq	%rcx, -72(%rbp)
	movq	%rax, -64(%rbp)
	movq	-72(%rbp), %rsi
	movq	-64(%rbp), %rdx
Ltmp806:
	callq	__ZN4core3ops8function6FnOnce9call_once17h1cf5f9aba2dd1994E
Ltmp807:
	jmp	LBB115_5
Ltmp813:
LBB115_3:
	.loc	7 1066 5 is_stmt 1
	testb	$1, -50(%rbp)
	jne	LBB115_9
	jmp	LBB115_8
LBB115_4:
Ltmp810:
	.loc	7 0 5 is_stmt 0
	movq	%rax, %rcx
	movl	%edx, %eax
	movq	%rcx, -16(%rbp)
	movl	%eax, -8(%rbp)
	jmp	LBB115_3
LBB115_5:
	.loc	7 1063 27 is_stmt 1
	jmp	LBB115_6
LBB115_6:
	.loc	7 1066 5
	testb	$1, -50(%rbp)
	jne	LBB115_11
	jmp	LBB115_10
LBB115_7:
	.loc	7 1064 29
	jmp	LBB115_6
LBB115_8:
	.loc	7 1066 5
	testb	$1, -49(%rbp)
	jne	LBB115_13
	jmp	LBB115_12
LBB115_9:
	jmp	LBB115_8
LBB115_10:
	testb	$1, -49(%rbp)
	jne	LBB115_15
	jmp	LBB115_14
LBB115_11:
	jmp	LBB115_10
LBB115_12:
	.loc	7 1055 5
	movq	-16(%rbp), %rdi
	callq	__Unwind_Resume
LBB115_13:
	.loc	7 1066 5
	jmp	LBB115_12
LBB115_14:
	.loc	7 0 5 is_stmt 0
	movq	-96(%rbp), %rax
	.loc	7 1066 6
	addq	$112, %rsp
	popq	%rbp
	retq
LBB115_15:
	.loc	7 1066 5
	jmp	LBB115_14
Ltmp814:
Lfunc_end115:
	.cfi_endproc
	.section	__TEXT,__gcc_except_tab
	.p2align	2
GCC_except_table115:
Lexception28:
	.byte	255
	.byte	255
	.byte	1
	.uleb128 Lcst_end28-Lcst_begin28
Lcst_begin28:
	.uleb128 Ltmp808-Lfunc_begin115
	.uleb128 Ltmp807-Ltmp808
	.uleb128 Ltmp810-Lfunc_begin115
	.byte	0
	.uleb128 Ltmp807-Lfunc_begin115
	.uleb128 Lfunc_end115-Ltmp807
	.byte	0
	.byte	0
Lcst_end28:
	.p2align	2

	.section	__TEXT,__text,regular,pure_instructions
	.p2align	4, 0x90
__ZN4core6option15Option$LT$T$GT$14unwrap_or_else17hd341abf1fd11ce76E:
Lfunc_begin116:
	.loc	7 866 0 is_stmt 1
	.cfi_startproc
	pushq	%rbp
	.cfi_def_cfa_offset 16
	.cfi_offset %rbp, -16
	movq	%rsp, %rbp
	.cfi_def_cfa_register %rbp
	subq	$80, %rsp
	movq	%rdx, -72(%rbp)
	movq	%rsi, -64(%rbp)
Ltmp815:
	movq	%rdi, -56(%rbp)
	movq	%rdi, -48(%rbp)
Ltmp816:
	movq	%rdx, -8(%rbp)
Ltmp817:
	.loc	7 871 15 prologue_end
	movb	$1, -9(%rbp)
	movq	8(%rsi), %rdx
	movl	$1, %eax
	xorl	%ecx, %ecx
	cmpq	$0, %rdx
	cmoveq	%rcx, %rax
	.loc	7 871 9 is_stmt 0
	cmpq	$0, %rax
Ltmp818:
	jne	LBB116_2
Ltmp819:
	.loc	7 0 9
	movq	-72(%rbp), %rsi
	movq	-56(%rbp), %rdi
	.loc	7 873 21 is_stmt 1
	movb	$0, -9(%rbp)
	callq	__ZN18build_script_build9cargo_env28_$u7b$$u7b$closure$u7d$$u7d$17h09d8cecbb6452144E
	.loc	7 873 23 is_stmt 0
	jmp	LBB116_3
Ltmp820:
LBB116_2:
	.loc	7 0 23
	movq	-56(%rbp), %rax
	movq	-64(%rbp), %rcx
	.loc	7 872 18 is_stmt 1
	movq	(%rcx), %rdx
	movq	%rdx, -40(%rbp)
	movq	8(%rcx), %rdx
	movq	%rdx, -32(%rbp)
	movq	16(%rcx), %rcx
	movq	%rcx, -24(%rbp)
Ltmp821:
	.loc	7 872 24 is_stmt 0
	movq	-40(%rbp), %rcx
	movq	%rcx, (%rax)
	movq	-32(%rbp), %rcx
	movq	%rcx, 8(%rax)
	movq	-24(%rbp), %rcx
	movq	%rcx, 16(%rax)
Ltmp822:
LBB116_3:
	.loc	7 875 5 is_stmt 1
	testb	$1, -9(%rbp)
	jne	LBB116_5
Ltmp823:
LBB116_4:
	.loc	7 0 5 is_stmt 0
	movq	-48(%rbp), %rax
	.loc	7 875 6
	addq	$80, %rsp
	popq	%rbp
	retq
Ltmp824:
LBB116_5:
	.loc	7 875 5
	jmp	LBB116_4
Ltmp825:
Lfunc_end116:
	.cfi_endproc

	.p2align	4, 0x90
__ZN4core6option15Option$LT$T$GT$3map17hfc3d53be84769ae5E:
Lfunc_begin117:
	.loc	7 964 0 is_stmt 1
	.cfi_startproc
	pushq	%rbp
	.cfi_def_cfa_offset 16
	.cfi_offset %rbp, -16
	movq	%rsp, %rbp
	.cfi_def_cfa_register %rbp
	subq	$112, %rsp
	movq	%rcx, -104(%rbp)
	movq	%rdx, -96(%rbp)
	movq	%rdi, -88(%rbp)
	movq	%rdi, -80(%rbp)
	movq	%rsi, -72(%rbp)
	movq	%rdx, -24(%rbp)
	movq	%rcx, -16(%rbp)
Ltmp826:
	.loc	7 969 15 prologue_end
	movb	$1, -25(%rbp)
	movq	-72(%rbp), %rdx
	movl	$1, %eax
	xorl	%ecx, %ecx
	cmpq	$0, %rdx
	cmoveq	%rcx, %rax
	.loc	7 969 9 is_stmt 0
	cmpq	$0, %rax
	jne	LBB117_2
	.loc	7 0 9
	movq	-88(%rbp), %rax
	.loc	7 971 21 is_stmt 1
	movq	$0, 8(%rax)
	jmp	LBB117_3
LBB117_2:
	.loc	7 0 21 is_stmt 0
	movq	-104(%rbp), %rdx
	movq	-96(%rbp), %rsi
	.loc	7 970 18 is_stmt 1
	movq	-72(%rbp), %rax
	movq	%rax, -8(%rbp)
Ltmp827:
	.loc	7 970 29 is_stmt 0
	movb	$0, -25(%rbp)
	movq	%rax, -40(%rbp)
	movq	-40(%rbp), %rcx
	leaq	-64(%rbp), %rdi
	callq	__ZN5alloc11collections5btree4node40NodeRef$LT$BorrowType$C$K$C$V$C$Type$GT$6ascend28_$u7b$$u7b$closure$u7d$$u7d$17hf9057e07573ba86aE
	movq	-88(%rbp), %rax
	.loc	7 970 24
	movq	-64(%rbp), %rcx
	movq	%rcx, (%rax)
	movq	-56(%rbp), %rcx
	movq	%rcx, 8(%rax)
	movq	-48(%rbp), %rcx
	movq	%rcx, 16(%rax)
Ltmp828:
LBB117_3:
	.loc	7 973 5 is_stmt 1
	testb	$1, -25(%rbp)
	jne	LBB117_5
LBB117_4:
	.loc	7 0 5 is_stmt 0
	movq	-80(%rbp), %rax
	.loc	7 973 6
	addq	$112, %rsp
	popq	%rbp
	retq
LBB117_5:
	.loc	7 973 5
	jmp	LBB117_4
Ltmp829:
Lfunc_end117:
	.cfi_endproc

	.p2align	4, 0x90
__ZN4core6result19Result$LT$T$C$E$GT$14unwrap_or_else17h0e71d22f6ba4fe0aE:
Lfunc_begin118:
	.loc	30 1500 0 is_stmt 1
	.cfi_startproc
	pushq	%rbp
	.cfi_def_cfa_offset 16
	.cfi_offset %rbp, -16
	movq	%rsp, %rbp
	.cfi_def_cfa_register %rbp
	subq	$64, %rsp
	movq	%rsi, -56(%rbp)
	movq	%rdi, -48(%rbp)
	movq	%rsi, -24(%rbp)
Ltmp830:
	.loc	30 1501 15 prologue_end
	movb	$1, -25(%rbp)
	movq	-48(%rbp), %rdx
	movl	$1, %eax
	xorl	%ecx, %ecx
	cmpq	$0, %rdx
	cmoveq	%rcx, %rax
	.loc	30 1501 9 is_stmt 0
	cmpq	$0, %rax
	jne	LBB118_2
	.loc	30 1502 22 is_stmt 1
	jmp	LBB118_3
LBB118_2:
	.loc	30 0 22 is_stmt 0
	movq	-56(%rbp), %rdi
	.loc	30 1503 17 is_stmt 1
	movq	-48(%rbp), %rax
	movq	%rax, -8(%rbp)
Ltmp831:
	.loc	30 1503 23 is_stmt 0
	movb	$0, -25(%rbp)
	movq	%rax, -40(%rbp)
	movq	-40(%rbp), %rsi
	callq	__ZN18build_script_build19create_dir_or_panic28_$u7b$$u7b$closure$u7d$$u7d$17hcbed343d24d7dcd1E
Ltmp832:
LBB118_3:
	.loc	30 1505 5 is_stmt 1
	testb	$1, -25(%rbp)
	jne	LBB118_5
LBB118_4:
	.loc	30 1505 6 is_stmt 0
	addq	$64, %rsp
	popq	%rbp
	retq
LBB118_5:
	.loc	30 1505 5
	jmp	LBB118_4
Ltmp833:
Lfunc_end118:
	.cfi_endproc

	.p2align	4, 0x90
__ZN4core6result19Result$LT$T$C$E$GT$14unwrap_or_else17h1b8ebcec0a75b732E:
Lfunc_begin119:
	.loc	30 1500 0 is_stmt 1
	.cfi_startproc
	pushq	%rbp
	.cfi_def_cfa_offset 16
	.cfi_offset %rbp, -16
	movq	%rsp, %rbp
	.cfi_def_cfa_register %rbp
	subq	$64, %rsp
	movq	%rsi, -56(%rbp)
	movq	%rdi, -48(%rbp)
	movq	%rsi, -24(%rbp)
Ltmp834:
	.loc	30 1501 15 prologue_end
	movb	$1, -25(%rbp)
	movq	-48(%rbp), %rdx
	movl	$1, %eax
	xorl	%ecx, %ecx
	cmpq	$0, %rdx
	cmoveq	%rcx, %rax
	.loc	30 1501 9 is_stmt 0
	cmpq	$0, %rax
	jne	LBB119_2
	.loc	30 1502 22 is_stmt 1
	jmp	LBB119_3
LBB119_2:
	.loc	30 0 22 is_stmt 0
	movq	-56(%rbp), %rdi
	.loc	30 1503 17 is_stmt 1
	movq	-48(%rbp), %rax
	movq	%rax, -8(%rbp)
Ltmp835:
	.loc	30 1503 23 is_stmt 0
	movb	$0, -25(%rbp)
	movq	%rax, -40(%rbp)
	movq	-40(%rbp), %rsi
	callq	__ZN18build_script_build19remove_dir_or_panic28_$u7b$$u7b$closure$u7d$$u7d$17hf915a7ba90f6495aE
Ltmp836:
LBB119_3:
	.loc	30 1505 5 is_stmt 1
	testb	$1, -25(%rbp)
	jne	LBB119_5
LBB119_4:
	.loc	30 1505 6 is_stmt 0
	addq	$64, %rsp
	popq	%rbp
	retq
LBB119_5:
	.loc	30 1505 5
	jmp	LBB119_4
Ltmp837:
Lfunc_end119:
	.cfi_endproc

	.p2align	4, 0x90
__ZN4core6result19Result$LT$T$C$E$GT$14unwrap_or_else17hbcc22ed7796e2e34E:
Lfunc_begin120:
	.loc	30 1500 0 is_stmt 1
	.cfi_startproc
	pushq	%rbp
	.cfi_def_cfa_offset 16
	.cfi_offset %rbp, -16
	movq	%rsp, %rbp
	.cfi_def_cfa_register %rbp
	subq	$64, %rsp
	movq	%rdi, -64(%rbp)
Ltmp838:
	movq	%rsi, -56(%rbp)
Ltmp839:
	movq	%rsi, -24(%rbp)
Ltmp840:
	.loc	30 1501 15 prologue_end
	movb	$1, -25(%rbp)
	movl	(%rdi), %eax
	.loc	30 1501 9 is_stmt 0
	cmpq	$0, %rax
Ltmp841:
	jne	LBB120_2
Ltmp842:
	.loc	30 0 9
	movq	-64(%rbp), %rax
	.loc	30 1502 16 is_stmt 1
	movl	4(%rax), %eax
	movl	%eax, -4(%rbp)
Ltmp843:
	.loc	30 1502 22 is_stmt 0
	movl	%eax, -44(%rbp)
Ltmp844:
	.loc	30 1502 22
	jmp	LBB120_3
Ltmp845:
LBB120_2:
	.loc	30 0 22
	movq	-56(%rbp), %rdi
	movq	-64(%rbp), %rax
	.loc	30 1503 17 is_stmt 1
	movq	8(%rax), %rax
	movq	%rax, -16(%rbp)
Ltmp846:
	.loc	30 1503 23 is_stmt 0
	movb	$0, -25(%rbp)
	movq	%rax, -40(%rbp)
	movq	-40(%rbp), %rsi
	callq	__ZN18build_script_build13check_feature28_$u7b$$u7b$closure$u7d$$u7d$17h46b950b74ea20a6cE
	movl	%eax, -44(%rbp)
Ltmp847:
LBB120_3:
	.loc	30 1505 5 is_stmt 1
	testb	$1, -25(%rbp)
	jne	LBB120_5
Ltmp848:
LBB120_4:
	.loc	30 1505 6 is_stmt 0
	movl	-44(%rbp), %eax
	addq	$64, %rsp
	popq	%rbp
	retq
Ltmp849:
LBB120_5:
	.loc	30 1505 5
	jmp	LBB120_4
Ltmp850:
Lfunc_end120:
	.cfi_endproc

	.p2align	4, 0x90
__ZN4core6result19Result$LT$T$C$E$GT$14unwrap_or_else17hd683b5e1ed105185E:
Lfunc_begin121:
	.loc	30 1500 0 is_stmt 1
	.cfi_startproc
	pushq	%rbp
	.cfi_def_cfa_offset 16
	.cfi_offset %rbp, -16
	movq	%rsp, %rbp
	.cfi_def_cfa_register %rbp
	subq	$64, %rsp
	movq	%rdi, -64(%rbp)
Ltmp851:
	movq	%rsi, -56(%rbp)
Ltmp852:
	movq	%rsi, -24(%rbp)
Ltmp853:
	.loc	30 1501 15 prologue_end
	movb	$1, -25(%rbp)
	movl	(%rdi), %eax
	.loc	30 1501 9 is_stmt 0
	cmpq	$0, %rax
Ltmp854:
	jne	LBB121_2
Ltmp855:
	.loc	30 0 9
	movq	-64(%rbp), %rax
	.loc	30 1502 16 is_stmt 1
	movl	4(%rax), %eax
	movl	%eax, -4(%rbp)
Ltmp856:
	.loc	30 1502 22 is_stmt 0
	movl	%eax, -44(%rbp)
Ltmp857:
	.loc	30 1502 22
	jmp	LBB121_3
Ltmp858:
LBB121_2:
	.loc	30 0 22
	movq	-56(%rbp), %rdi
	movq	-64(%rbp), %rax
	.loc	30 1503 17 is_stmt 1
	movq	8(%rax), %rax
	movq	%rax, -16(%rbp)
Ltmp859:
	.loc	30 1503 23 is_stmt 0
	movb	$0, -25(%rbp)
	movq	%rax, -40(%rbp)
	movq	-40(%rbp), %rsi
	callq	__ZN18build_script_build20create_file_or_panic28_$u7b$$u7b$closure$u7d$$u7d$17h81c0f2c916557295E
	movl	%eax, -44(%rbp)
Ltmp860:
LBB121_3:
	.loc	30 1505 5 is_stmt 1
	testb	$1, -25(%rbp)
	jne	LBB121_5
Ltmp861:
LBB121_4:
	.loc	30 1505 6 is_stmt 0
	movl	-44(%rbp), %eax
	addq	$64, %rsp
	popq	%rbp
	retq
Ltmp862:
LBB121_5:
	.loc	30 1505 5
	jmp	LBB121_4
Ltmp863:
Lfunc_end121:
	.cfi_endproc

	.p2align	4, 0x90
__ZN4core6result19Result$LT$T$C$E$GT$14unwrap_or_else17hdbf81e8571e65d39E:
Lfunc_begin122:
	.loc	30 1500 0 is_stmt 1
	.cfi_startproc
	pushq	%rbp
	.cfi_def_cfa_offset 16
	.cfi_offset %rbp, -16
	movq	%rsp, %rbp
	.cfi_def_cfa_register %rbp
	subq	$64, %rsp
	movq	%rsi, -56(%rbp)
	movq	%rdi, -48(%rbp)
	movq	%rsi, -24(%rbp)
Ltmp864:
	.loc	30 1501 15 prologue_end
	movb	$1, -25(%rbp)
	movq	-48(%rbp), %rdx
	movl	$1, %eax
	xorl	%ecx, %ecx
	cmpq	$0, %rdx
	cmoveq	%rcx, %rax
	.loc	30 1501 9 is_stmt 0
	cmpq	$0, %rax
	jne	LBB122_2
	.loc	30 1502 22 is_stmt 1
	jmp	LBB122_3
LBB122_2:
	.loc	30 0 22 is_stmt 0
	movq	-56(%rbp), %rdi
	.loc	30 1503 17 is_stmt 1
	movq	-48(%rbp), %rax
	movq	%rax, -8(%rbp)
Ltmp865:
	.loc	30 1503 23 is_stmt 0
	movb	$0, -25(%rbp)
	movq	%rax, -40(%rbp)
	movq	-40(%rbp), %rsi
	callq	__ZN18build_script_build20create_file_or_panic28_$u7b$$u7b$closure$u7d$$u7d$17he2bda8b199d1f332E
Ltmp866:
LBB122_3:
	.loc	30 1505 5 is_stmt 1
	testb	$1, -25(%rbp)
	jne	LBB122_5
LBB122_4:
	.loc	30 1505 6 is_stmt 0
	addq	$64, %rsp
	popq	%rbp
	retq
LBB122_5:
	.loc	30 1505 5
	jmp	LBB122_4
Ltmp867:
Lfunc_end122:
	.cfi_endproc

	.p2align	4, 0x90
__ZN4core6result19Result$LT$T$C$E$GT$16unwrap_unchecked17he1f3ace5dcb30210E:
Lfunc_begin123:
	.loc	30 1530 0 is_stmt 1
	.cfi_startproc
	.cfi_personality 155, _rust_eh_personality
	.cfi_lsda 16, Lexception29
	pushq	%rbp
	.cfi_def_cfa_offset 16
	.cfi_offset %rbp, -16
	movq	%rsp, %rbp
	.cfi_def_cfa_register %rbp
	subq	$64, %rsp
	movq	%rdi, -48(%rbp)
	movq	%rsi, -40(%rbp)
Ltmp871:
	.loc	30 1532 15 prologue_end
	xorl	%eax, %eax
	movl	$1, %ecx
	cmpq	$0, -40(%rbp)
	cmoveq	%rcx, %rax
	.loc	30 1532 9 is_stmt 0
	cmpq	$0, %rax
	jne	LBB123_2
	.loc	30 1533 16 is_stmt 1
	movq	-48(%rbp), %rcx
	movq	%rcx, -64(%rbp)
	movq	-40(%rbp), %rax
	movq	%rax, -56(%rbp)
	movq	%rcx, -16(%rbp)
	movq	%rax, -8(%rbp)
	.loc	30 1537 5
	xorl	%eax, %eax
	movl	$1, %ecx
	cmpq	$0, -40(%rbp)
	cmoveq	%rcx, %rax
	cmpq	$0, %rax
	je	LBB123_10
	jmp	LBB123_11
LBB123_2:
Ltmp868:
	.loc	30 1535 32
	callq	__ZN4core4hint21unreachable_unchecked17h2512972abae891aeE
Ltmp869:
	jmp	LBB123_5
LBB123_3:
	.loc	30 1537 5
	xorl	%eax, %eax
	movl	$1, %ecx
	cmpq	$0, -40(%rbp)
	cmoveq	%rcx, %rax
	cmpq	$0, %rax
	je	LBB123_6
	jmp	LBB123_7
LBB123_4:
Ltmp870:
	.loc	30 0 5 is_stmt 0
	movq	%rax, %rcx
	movl	%edx, %eax
	movq	%rcx, -32(%rbp)
	movl	%eax, -24(%rbp)
	jmp	LBB123_3
LBB123_5:
	ud2
LBB123_6:
	.loc	30 1537 5
	movb	$1, %al
	testb	$1, %al
	jne	LBB123_9
	jmp	LBB123_8
LBB123_7:
	jmp	LBB123_8
LBB123_8:
	.loc	30 1530 5 is_stmt 1
	movq	-32(%rbp), %rdi
	callq	__Unwind_Resume
LBB123_9:
	.loc	30 1537 5
	jmp	LBB123_8
LBB123_10:
	.loc	30 0 5 is_stmt 0
	movq	-56(%rbp), %rdx
	movq	-64(%rbp), %rax
	.loc	30 1537 6
	addq	$64, %rsp
	popq	%rbp
	retq
LBB123_11:
	.loc	30 1537 5
	jmp	LBB123_10
Ltmp872:
Lfunc_end123:
	.cfi_endproc
	.section	__TEXT,__gcc_except_tab
	.p2align	2
GCC_except_table123:
Lexception29:
	.byte	255
	.byte	255
	.byte	1
	.uleb128 Lcst_end29-Lcst_begin29
Lcst_begin29:
	.uleb128 Ltmp868-Lfunc_begin123
	.uleb128 Ltmp869-Ltmp868
	.uleb128 Ltmp870-Lfunc_begin123
	.byte	0
	.uleb128 Ltmp869-Lfunc_begin123
	.uleb128 Lfunc_end123-Ltmp869
	.byte	0
	.byte	0
Lcst_end29:
	.p2align	2

	.section	__TEXT,__text,regular,pure_instructions
	.p2align	4, 0x90
__ZN4core6result19Result$LT$T$C$E$GT$3map17h09936036eaace51bE:
Lfunc_begin124:
	.loc	30 772 0 is_stmt 1
	.cfi_startproc
	pushq	%rbp
	.cfi_def_cfa_offset 16
	.cfi_offset %rbp, -16
	movq	%rsp, %rbp
	.cfi_def_cfa_register %rbp
	subq	$624, %rsp
	movq	%rsi, -624(%rbp)
Ltmp873:
	movq	%rdi, -616(%rbp)
	movq	%rdi, -608(%rbp)
Ltmp874:
	.loc	30 773 15 prologue_end
	movb	$1, -17(%rbp)
	.loc	30 773 9 is_stmt 0
	cmpq	$0, (%rsi)
Ltmp875:
	jne	LBB124_2
Ltmp876:
	.loc	30 0 9
	movq	-624(%rbp), %rsi
	.loc	30 774 16 is_stmt 1
	addq	$8, %rsi
	leaq	-600(%rbp), %rdi
	movl	$144, %edx
	callq	_memcpy
Ltmp877:
	.loc	30 774 25 is_stmt 0
	movb	$0, -17(%rbp)
	.loc	30 774 28
	leaq	-168(%rbp), %rdi
	leaq	-600(%rbp), %rsi
	movl	$144, %edx
	callq	_memcpy
	.loc	30 774 25
	leaq	-312(%rbp), %rdi
	leaq	-168(%rbp), %rsi
	movl	$144, %edx
	callq	_memcpy
	leaq	-456(%rbp), %rdi
	leaq	-312(%rbp), %rsi
	callq	__ZN4core3ops8function6FnOnce9call_once17h88ff85b1d725ad30E
	movq	-616(%rbp), %rdi
	.loc	30 774 22
	addq	$8, %rdi
	leaq	-456(%rbp), %rsi
	movl	$144, %edx
	callq	_memcpy
	movq	-616(%rbp), %rax
	movq	$0, (%rax)
Ltmp878:
	.loc	30 774 30
	jmp	LBB124_3
Ltmp879:
LBB124_2:
	.loc	30 0 30
	movq	-616(%rbp), %rax
	movq	-624(%rbp), %rcx
	.loc	30 775 17 is_stmt 1
	movq	8(%rcx), %rcx
	movq	%rcx, -8(%rbp)
Ltmp880:
	.loc	30 775 23 is_stmt 0
	movq	%rcx, 8(%rax)
	movq	$1, (%rax)
Ltmp881:
LBB124_3:
	.loc	30 777 5 is_stmt 1
	testb	$1, -17(%rbp)
	jne	LBB124_5
Ltmp882:
LBB124_4:
	.loc	30 0 5 is_stmt 0
	movq	-608(%rbp), %rax
	.loc	30 777 6
	addq	$624, %rsp
	popq	%rbp
	retq
Ltmp883:
LBB124_5:
	.loc	30 777 5
	jmp	LBB124_4
Ltmp884:
Lfunc_end124:
	.cfi_endproc

	.p2align	4, 0x90
__ZN50_$LT$T$u20$as$u20$core..convert..Into$LT$U$GT$$GT$4into17h9d07501070a61cedE:
Lfunc_begin125:
	.file	41 "/rustc/2c8cc343237b8f7d5a3c3703e3a87f2eb2c54a74/library/core/src/convert" "mod.rs"
	.loc	41 725 0 is_stmt 1
	.cfi_startproc
	pushq	%rbp
	.cfi_def_cfa_offset 16
	.cfi_offset %rbp, -16
	movq	%rsp, %rbp
	.cfi_def_cfa_register %rbp
	subq	$16, %rsp
	movl	%esi, %edx
	movl	%edi, %eax
	movl	%eax, -16(%rbp)
	movl	%edx, -12(%rbp)
	movl	%eax, -8(%rbp)
	movl	%edx, -4(%rbp)
Ltmp885:
	.loc	41 727 6 prologue_end
	addq	$16, %rsp
	popq	%rbp
	retq
Ltmp886:
Lfunc_end125:
	.cfi_endproc

	.p2align	4, 0x90
__ZN50_$LT$T$u20$as$u20$core..convert..Into$LT$U$GT$$GT$4into17hb3770ffdae9cf119E:
Lfunc_begin126:
	.loc	41 725 0
	.cfi_startproc
	pushq	%rbp
	.cfi_def_cfa_offset 16
	.cfi_offset %rbp, -16
	movq	%rsp, %rbp
	.cfi_def_cfa_register %rbp
	subq	$16, %rsp
	movq	%rdi, -8(%rbp)
Ltmp887:
	.loc	41 726 9 prologue_end
	callq	__ZN119_$LT$core..ptr..non_null..NonNull$LT$T$GT$$u20$as$u20$core..convert..From$LT$core..ptr..unique..Unique$LT$T$GT$$GT$$GT$4from17h10b60ca6f300476cE
	.loc	41 727 6
	addq	$16, %rsp
	popq	%rbp
	retq
Ltmp888:
Lfunc_end126:
	.cfi_endproc

	.p2align	4, 0x90
__ZN52_$LT$T$u20$as$u20$alloc..slice..hack..ConvertVec$GT$6to_vec17hb401654e5222eb08E:
Lfunc_begin127:
	.file	42 "/rustc/2c8cc343237b8f7d5a3c3703e3a87f2eb2c54a74/library/alloc/src" "slice.rs"
	.loc	42 161 0
	.cfi_startproc
	.cfi_personality 155, _rust_eh_personality
	.cfi_lsda 16, Lexception30
	pushq	%rbp
	.cfi_def_cfa_offset 16
	.cfi_offset %rbp, -16
	movq	%rsp, %rbp
	.cfi_def_cfa_register %rbp
	subq	$448, %rsp
	movq	%rdx, -432(%rbp)
	movq	%rsi, -424(%rbp)
	movq	%rdi, -416(%rbp)
	movq	%rdi, -408(%rbp)
	movq	%rsi, -320(%rbp)
	movq	%rdx, -312(%rbp)
Ltmp892:
	.loc	42 162 47 prologue_end
	movq	%rsi, -280(%rbp)
	movq	%rdx, -272(%rbp)
Ltmp893:
	.loc	14 137 23
	movq	%rsi, -264(%rbp)
	movq	%rdx, -256(%rbp)
Ltmp894:
	.loc	4 98 14
	movq	%rsi, -384(%rbp)
	movq	%rdx, -376(%rbp)
	movq	-376(%rbp), %rdi
	movq	%rdi, -248(%rbp)
Ltmp895:
	.file	43 "/rustc/2c8cc343237b8f7d5a3c3703e3a87f2eb2c54a74/library/alloc/src/vec" "mod.rs"
	.loc	43 676 45
	movq	%rdi, -240(%rbp)
Ltmp896:
	.file	44 "/rustc/2c8cc343237b8f7d5a3c3703e3a87f2eb2c54a74/library/alloc/src" "raw_vec.rs"
	.loc	44 131 37
	movb	$0, -361(%rbp)
	.loc	44 131 9 is_stmt 0
	movzbl	-361(%rbp), %esi
Ltmp889:
	callq	__ZN5alloc7raw_vec19RawVec$LT$T$C$A$GT$11allocate_in17h53acc21f743a7870E
Ltmp890:
	movq	%rdx, -400(%rbp)
	movq	%rax, -392(%rbp)
	jmp	LBB127_3
Ltmp897:
LBB127_1:
	.loc	42 171 9 is_stmt 1
	xorl	%eax, %eax
	testb	$1, %al
	jne	LBB127_6
	jmp	LBB127_5
LBB127_2:
Ltmp891:
	.loc	42 0 9 is_stmt 0
	movq	%rax, %rcx
	movl	%edx, %eax
	movq	%rcx, -232(%rbp)
	movl	%eax, -224(%rbp)
	jmp	LBB127_1
LBB127_3:
Ltmp898:
	movq	-416(%rbp), %rax
	movq	-424(%rbp), %rcx
	movq	-432(%rbp), %rdx
	movq	-400(%rbp), %rsi
	movq	-392(%rbp), %rdi
Ltmp899:
	.loc	43 676 9 is_stmt 1
	movq	%rdi, (%rax)
	movq	%rsi, 8(%rax)
	movq	$0, 16(%rax)
Ltmp900:
	.loc	42 167 17
	movq	%rcx, -216(%rbp)
	movq	%rdx, -208(%rbp)
Ltmp901:
	.loc	14 477 9
	movq	%rcx, -200(%rbp)
Ltmp902:
	.loc	42 167 51
	movq	%rax, -192(%rbp)
Ltmp903:
	.loc	43 1280 19
	movq	%rax, -184(%rbp)
Ltmp904:
	.loc	44 224 9
	movq	8(%rax), %rax
	movq	%rax, -440(%rbp)
	movq	%rax, -176(%rbp)
Ltmp905:
	.loc	9 104 9
	movq	%rax, -168(%rbp)
Ltmp906:
	.loc	8 326 9
	movq	%rax, -160(%rbp)
Ltmp907:
	.loc	43 1282 21
	movq	%rax, -152(%rbp)
Ltmp908:
	.loc	18 52 36
	movq	%rax, -360(%rbp)
	.loc	18 52 18 is_stmt 0
	movq	-360(%rbp), %rax
	movq	%rax, -144(%rbp)
Ltmp909:
	.loc	18 38 13 is_stmt 1
	movq	%rax, -136(%rbp)
Ltmp910:
	.loc	18 215 33
	movq	%rax, -128(%rbp)
	.loc	18 215 18 is_stmt 0
	movq	%rax, -120(%rbp)
	movq	-120(%rbp), %rax
Ltmp911:
	.loc	18 0 18
	movq	-432(%rbp), %rax
	movq	-424(%rbp), %rsi
	movq	-440(%rbp), %rdi
	.loc	42 167 67 is_stmt 1
	movq	%rsi, -112(%rbp)
	movq	%rax, -104(%rbp)
Ltmp912:
	.loc	14 137 23
	movq	%rsi, -96(%rbp)
	movq	%rax, -88(%rbp)
Ltmp913:
	.loc	4 98 14
	movq	%rsi, -352(%rbp)
	movq	%rax, -344(%rbp)
	movq	-344(%rbp), %rdx
	movq	%rdx, -80(%rbp)
Ltmp914:
	.loc	2 1297 38
	movq	%rsi, -72(%rbp)
	.loc	2 1297 44 is_stmt 0
	movq	%rdi, -64(%rbp)
	.loc	2 1297 50
	movq	%rdx, -56(%rbp)
Ltmp915:
	.file	45 "/rustc/2c8cc343237b8f7d5a3c3703e3a87f2eb2c54a74/library/core/src" "intrinsics.rs"
	.loc	45 2372 9 is_stmt 1
	shlq	$0, %rdx
	callq	_memcpy
	movq	-424(%rbp), %rsi
	movq	-432(%rbp), %rdx
	movq	-416(%rbp), %rcx
	movq	-408(%rbp), %rax
Ltmp916:
	.loc	42 168 17
	movq	%rcx, -48(%rbp)
	.loc	42 168 27 is_stmt 0
	movq	%rsi, -40(%rbp)
	movq	%rdx, -32(%rbp)
Ltmp917:
	.loc	14 137 23 is_stmt 1
	movq	%rsi, -24(%rbp)
	movq	%rdx, -16(%rbp)
Ltmp918:
	.loc	4 98 14
	movq	%rsi, -336(%rbp)
	movq	%rdx, -328(%rbp)
	movq	-328(%rbp), %rdx
	movq	%rdx, -8(%rbp)
Ltmp919:
	.loc	43 1377 9
	movq	%rdx, 16(%rcx)
Ltmp920:
	.loc	42 171 10
	addq	$448, %rsp
	popq	%rbp
	retq
Ltmp921:
LBB127_5:
	.loc	42 161 9
	movq	-232(%rbp), %rdi
	callq	__Unwind_Resume
LBB127_6:
	.loc	42 171 9
	jmp	LBB127_5
Ltmp922:
Lfunc_end127:
	.cfi_endproc
	.section	__TEXT,__gcc_except_tab
	.p2align	2
GCC_except_table127:
Lexception30:
	.byte	255
	.byte	255
	.byte	1
	.uleb128 Lcst_end30-Lcst_begin30
Lcst_begin30:
	.uleb128 Ltmp889-Lfunc_begin127
	.uleb128 Ltmp890-Ltmp889
	.uleb128 Ltmp891-Lfunc_begin127
	.byte	0
	.uleb128 Ltmp890-Lfunc_begin127
	.uleb128 Lfunc_end127-Ltmp890
	.byte	0
	.byte	0
Lcst_end30:
	.p2align	2

	.section	__TEXT,__text,regular,pure_instructions
	.p2align	4, 0x90
__ZN54_$LT$$LP$$RP$$u20$as$u20$std..process..Termination$GT$6report17hd1efe7533a348d2bE:
Lfunc_begin128:
	.loc	20 2182 0
	.cfi_startproc
	pushq	%rbp
	.cfi_def_cfa_offset 16
	.cfi_offset %rbp, -16
	movq	%rsp, %rbp
	.cfi_def_cfa_register %rbp
	pushq	%rax
Ltmp923:
	.loc	20 2184 6 prologue_end
	xorl	%eax, %eax
	addq	$8, %rsp
	popq	%rbp
	retq
Ltmp924:
Lfunc_end128:
	.cfi_endproc

	.p2align	4, 0x90
__ZN55_$LT$$RF$T$u20$as$u20$core..convert..AsRef$LT$U$GT$$GT$6as_ref17h15ba69fd0c04e928E:
Lfunc_begin129:
	.loc	41 667 0
	.cfi_startproc
	pushq	%rbp
	.cfi_def_cfa_offset 16
	.cfi_offset %rbp, -16
	movq	%rsp, %rbp
	.cfi_def_cfa_register %rbp
	subq	$16, %rsp
	movq	%rdi, -8(%rbp)
Ltmp925:
	.loc	41 668 33 prologue_end
	movq	(%rdi), %rdi
	.loc	41 668 9 is_stmt 0
	callq	__ZN98_$LT$std..ffi..os_str..OsString$u20$as$u20$core..convert..AsRef$LT$std..ffi..os_str..OsStr$GT$$GT$6as_ref17h5cda01bd2dad2a0eE
	.loc	41 669 6 is_stmt 1
	addq	$16, %rsp
	popq	%rbp
	retq
Ltmp926:
Lfunc_end129:
	.cfi_endproc

	.p2align	4, 0x90
__ZN55_$LT$$RF$T$u20$as$u20$core..convert..AsRef$LT$U$GT$$GT$6as_ref17h5de45abd7efea6d8E:
Lfunc_begin130:
	.loc	41 667 0
	.cfi_startproc
	pushq	%rbp
	.cfi_def_cfa_offset 16
	.cfi_offset %rbp, -16
	movq	%rsp, %rbp
	.cfi_def_cfa_register %rbp
	subq	$16, %rsp
	movq	%rdi, %rax
	movq	%rax, -8(%rbp)
Ltmp927:
	.loc	41 668 33 prologue_end
	movq	(%rax), %rdi
	movq	8(%rax), %rsi
	.loc	41 668 9 is_stmt 0
	callq	__ZN95_$LT$std..ffi..os_str..OsStr$u20$as$u20$core..convert..AsRef$LT$std..ffi..os_str..OsStr$GT$$GT$6as_ref17hecee848e8706e527E
	.loc	41 669 6 is_stmt 1
	addq	$16, %rsp
	popq	%rbp
	retq
Ltmp928:
Lfunc_end130:
	.cfi_endproc

	.p2align	4, 0x90
__ZN55_$LT$$RF$T$u20$as$u20$core..convert..AsRef$LT$U$GT$$GT$6as_ref17h941fcfc21bda34c9E:
Lfunc_begin131:
	.loc	41 667 0
	.cfi_startproc
	pushq	%rbp
	.cfi_def_cfa_offset 16
	.cfi_offset %rbp, -16
	movq	%rsp, %rbp
	.cfi_def_cfa_register %rbp
	subq	$16, %rsp
	movq	%rdi, -8(%rbp)
Ltmp929:
	.loc	41 668 33 prologue_end
	movq	(%rdi), %rdi
	.loc	41 668 9 is_stmt 0
	callq	__ZN82_$LT$std..path..PathBuf$u20$as$u20$core..convert..AsRef$LT$std..path..Path$GT$$GT$6as_ref17h332f813a02d44fe6E
	.loc	41 669 6 is_stmt 1
	addq	$16, %rsp
	popq	%rbp
	retq
Ltmp930:
Lfunc_end131:
	.cfi_endproc

	.p2align	4, 0x90
__ZN55_$LT$$RF$T$u20$as$u20$core..convert..AsRef$LT$U$GT$$GT$6as_ref17haa94cf418805022dE:
Lfunc_begin132:
	.loc	41 667 0
	.cfi_startproc
	pushq	%rbp
	.cfi_def_cfa_offset 16
	.cfi_offset %rbp, -16
	movq	%rsp, %rbp
	.cfi_def_cfa_register %rbp
	subq	$16, %rsp
	movq	%rdi, %rax
	movq	%rax, -8(%rbp)
Ltmp931:
	.loc	41 668 33 prologue_end
	movq	(%rax), %rdi
	movq	8(%rax), %rsi
	.loc	41 668 9 is_stmt 0
	callq	__ZN3std3ffi6os_str85_$LT$impl$u20$core..convert..AsRef$LT$std..ffi..os_str..OsStr$GT$$u20$for$u20$str$GT$6as_ref17hcf18a003b486f31cE
	.loc	41 669 6 is_stmt 1
	addq	$16, %rsp
	popq	%rbp
	retq
Ltmp932:
Lfunc_end132:
	.cfi_endproc

	.p2align	4, 0x90
__ZN55_$LT$$RF$T$u20$as$u20$core..convert..AsRef$LT$U$GT$$GT$6as_ref17he10a977f38d88168E:
Lfunc_begin133:
	.loc	41 667 0
	.cfi_startproc
	pushq	%rbp
	.cfi_def_cfa_offset 16
	.cfi_offset %rbp, -16
	movq	%rsp, %rbp
	.cfi_def_cfa_register %rbp
	subq	$16, %rsp
	movq	%rdi, -8(%rbp)
Ltmp933:
	.loc	41 668 33 prologue_end
	movq	(%rdi), %rdi
	.loc	41 668 9 is_stmt 0
	callq	__ZN55_$LT$$RF$T$u20$as$u20$core..convert..AsRef$LT$U$GT$$GT$6as_ref17haa94cf418805022dE
	.loc	41 669 6 is_stmt 1
	addq	$16, %rsp
	popq	%rbp
	retq
Ltmp934:
Lfunc_end133:
	.cfi_endproc

	.p2align	4, 0x90
__ZN55_$LT$$RF$T$u20$as$u20$core..convert..AsRef$LT$U$GT$$GT$6as_ref17he7c3f66ee15fc2b7E:
Lfunc_begin134:
	.loc	41 667 0
	.cfi_startproc
	pushq	%rbp
	.cfi_def_cfa_offset 16
	.cfi_offset %rbp, -16
	movq	%rsp, %rbp
	.cfi_def_cfa_register %rbp
	subq	$16, %rsp
	movq	%rdi, -8(%rbp)
Ltmp935:
	.loc	41 668 33 prologue_end
	movq	(%rdi), %rdi
	.loc	41 668 9 is_stmt 0
	callq	__ZN3std4path95_$LT$impl$u20$core..convert..AsRef$LT$std..path..Path$GT$$u20$for$u20$alloc..string..String$GT$6as_ref17h793c5075a5f3f574E
	.loc	41 669 6 is_stmt 1
	addq	$16, %rsp
	popq	%rbp
	retq
Ltmp936:
Lfunc_end134:
	.cfi_endproc

	.p2align	4, 0x90
__ZN55_$LT$$RF$T$u20$as$u20$core..convert..AsRef$LT$U$GT$$GT$6as_ref17heeeca63e2339649dE:
Lfunc_begin135:
	.loc	41 667 0
	.cfi_startproc
	pushq	%rbp
	.cfi_def_cfa_offset 16
	.cfi_offset %rbp, -16
	movq	%rsp, %rbp
	.cfi_def_cfa_register %rbp
	subq	$16, %rsp
	movq	%rdi, %rax
	movq	%rax, -8(%rbp)
Ltmp937:
	.loc	41 668 33 prologue_end
	movq	(%rax), %rdi
	movq	8(%rax), %rsi
	.loc	41 668 9 is_stmt 0
	callq	__ZN79_$LT$std..path..Path$u20$as$u20$core..convert..AsRef$LT$std..path..Path$GT$$GT$6as_ref17h3cfbea4fd2e8ec06E
	.loc	41 669 6 is_stmt 1
	addq	$16, %rsp
	popq	%rbp
	retq
Ltmp938:
Lfunc_end135:
	.cfi_endproc

	.p2align	4, 0x90
__ZN59_$LT$alloc..alloc..Global$u20$as$u20$core..clone..Clone$GT$5clone17hcfe7c0e8e975a5f7E:
Lfunc_begin136:
	.file	46 "/rustc/2c8cc343237b8f7d5a3c3703e3a87f2eb2c54a74/library/alloc/src" "alloc.rs"
	.loc	46 53 0
	.cfi_startproc
	pushq	%rbp
	.cfi_def_cfa_offset 16
	.cfi_offset %rbp, -16
	movq	%rsp, %rbp
	.cfi_def_cfa_register %rbp
	pushq	%rax
	movq	%rdi, -8(%rbp)
Ltmp939:
	.loc	46 53 21 prologue_end
	addq	$8, %rsp
	popq	%rbp
	retq
Ltmp940:
Lfunc_end136:
	.cfi_endproc

	.p2align	4, 0x90
__ZN5alloc11collections5btree3map25IntoIter$LT$K$C$V$C$A$GT$10dying_next17hc8b24ab0a20d0363E:
Lfunc_begin137:
	.loc	5 1663 0
	.cfi_startproc
	pushq	%rbp
	.cfi_def_cfa_offset 16
	.cfi_offset %rbp, -16
	movq	%rsp, %rbp
	.cfi_def_cfa_register %rbp
	subq	$64, %rsp
	movq	%rsi, -56(%rbp)
	movq	%rdi, -48(%rbp)
	movq	%rdi, -40(%rbp)
	movq	%rsi, -8(%rbp)
Ltmp941:
	.loc	5 1666 12 prologue_end
	cmpq	$0, 64(%rsi)
	jne	LBB137_2
	.loc	5 0 12 is_stmt 0
	movq	-56(%rbp), %rdi
	.loc	5 1667 41 is_stmt 1
	callq	__ZN59_$LT$alloc..alloc..Global$u20$as$u20$core..clone..Clone$GT$5clone17hcfe7c0e8e975a5f7E
	movq	-56(%rbp), %rdi
	.loc	5 1667 13 is_stmt 0
	callq	__ZN5alloc11collections5btree8navigate75LazyLeafRange$LT$alloc..collections..btree..node..marker..Dying$C$K$C$V$GT$16deallocating_end17h31a6dbfd7709471eE
	movq	-48(%rbp), %rax
	.loc	5 1668 13 is_stmt 1
	movq	$0, 8(%rax)
	.loc	5 1666 9
	jmp	LBB137_3
LBB137_2:
	.loc	5 0 9 is_stmt 0
	movq	-56(%rbp), %rdi
	.loc	5 1670 13 is_stmt 1
	movq	64(%rdi), %rax
	subq	$1, %rax
	movq	%rax, 64(%rdi)
	.loc	5 1671 66
	callq	__ZN59_$LT$alloc..alloc..Global$u20$as$u20$core..clone..Clone$GT$5clone17hcfe7c0e8e975a5f7E
	movq	-56(%rbp), %rsi
	.loc	5 1671 27 is_stmt 0
	leaq	-32(%rbp), %rdi
	callq	__ZN5alloc11collections5btree8navigate75LazyLeafRange$LT$alloc..collections..btree..node..marker..Dying$C$K$C$V$GT$27deallocating_next_unchecked17hf041f7081ae9586aE
	movq	-48(%rbp), %rax
	.loc	5 1671 13
	movq	-32(%rbp), %rcx
	movq	%rcx, (%rax)
	movq	-24(%rbp), %rcx
	movq	%rcx, 8(%rax)
	movq	-16(%rbp), %rcx
	movq	%rcx, 16(%rax)
LBB137_3:
	.loc	5 0 13
	movq	-40(%rbp), %rax
	.loc	5 1673 6 is_stmt 1
	addq	$64, %rsp
	popq	%rbp
	retq
Ltmp942:
Lfunc_end137:
	.cfi_endproc

	.p2align	4, 0x90
__ZN5alloc11collections5btree3mem7replace17h72f3ee986010f472E:
Lfunc_begin138:
	.file	47 "/rustc/2c8cc343237b8f7d5a3c3703e3a87f2eb2c54a74/library/alloc/src/collections/btree" "mem.rs"
	.loc	47 20 0
	.cfi_startproc
	.cfi_personality 155, _rust_eh_personality
	.cfi_lsda 16, Lexception31
	pushq	%rbp
	.cfi_def_cfa_offset 16
	.cfi_offset %rbp, -16
	movq	%rsp, %rbp
	.cfi_def_cfa_register %rbp
	subq	$352, %rsp
	movq	%rsi, -352(%rbp)
	movq	%rdi, -344(%rbp)
	movq	%rdi, -336(%rbp)
	movq	%rsi, -72(%rbp)
Ltmp949:
	.loc	47 27 9 prologue_end
	movb	$1, -145(%rbp)
Ltmp950:
	.loc	47 28 36
	movq	%rsi, -40(%rbp)
Ltmp951:
	.loc	3 1157 34
	leaq	-144(%rbp), %rax
	movq	%rax, -32(%rbp)
	.loc	3 1157 9 is_stmt 0
	movq	(%rsi), %rax
	movq	%rax, -144(%rbp)
	movq	8(%rsi), %rax
	movq	%rax, -136(%rbp)
	movq	16(%rsi), %rax
	movq	%rax, -128(%rbp)
	.loc	3 1158 9 is_stmt 1
	movq	-144(%rbp), %rax
	movq	%rax, -120(%rbp)
	movq	-136(%rbp), %rax
	movq	%rax, -112(%rbp)
	movq	-128(%rbp), %rax
	movq	%rax, -104(%rbp)
Ltmp952:
	.loc	32 627 38
	movq	-104(%rbp), %rax
	movq	%rax, -80(%rbp)
	movq	-120(%rbp), %rax
	movq	-112(%rbp), %rcx
	movq	%rcx, -88(%rbp)
	movq	%rax, -96(%rbp)
Ltmp953:
	.loc	6 89 9
	movq	-80(%rbp), %rax
	movq	%rax, -304(%rbp)
	movq	-96(%rbp), %rax
	movq	-88(%rbp), %rcx
	movq	%rcx, -312(%rbp)
	movq	%rax, -320(%rbp)
Ltmp954:
	.loc	47 29 28
	movb	$0, -145(%rbp)
	.loc	47 29 35 is_stmt 0
	movq	-304(%rbp), %rax
	movq	%rax, -184(%rbp)
	movq	-320(%rbp), %rax
	movq	-312(%rbp), %rcx
	movq	%rcx, -192(%rbp)
	movq	%rax, -200(%rbp)
	.loc	47 29 28
	movq	-184(%rbp), %rax
	movq	%rax, -208(%rbp)
	movq	-200(%rbp), %rax
	movq	-192(%rbp), %rcx
	movq	%rcx, -216(%rbp)
	movq	%rax, -224(%rbp)
Ltmp943:
	leaq	-272(%rbp), %rdi
	leaq	-224(%rbp), %rsi
	callq	__ZN5alloc11collections5btree8navigate263_$LT$impl$u20$alloc..collections..btree..node..Handle$LT$alloc..collections..btree..node..NodeRef$LT$alloc..collections..btree..node..marker..Dying$C$K$C$V$C$alloc..collections..btree..node..marker..Leaf$GT$$C$alloc..collections..btree..node..marker..Edge$GT$$GT$27deallocating_next_unchecked28_$u7b$$u7b$closure$u7d$$u7d$17h9f0afc4f415e0b7eE
Ltmp944:
	jmp	LBB138_4
Ltmp955:
LBB138_2:
	.loc	47 35 1 is_stmt 1
	movb	$1, %al
	testb	$1, %al
	jne	LBB138_6
	jmp	LBB138_5
LBB138_3:
Ltmp945:
	.loc	47 0 1 is_stmt 0
	movq	%rax, %rcx
	movl	%edx, %eax
	movq	%rcx, -24(%rbp)
	movl	%eax, -16(%rbp)
	jmp	LBB138_2
LBB138_4:
	movq	-336(%rbp), %rax
	movq	-352(%rbp), %rcx
	movq	-344(%rbp), %rdx
Ltmp956:
	.loc	47 29 10 is_stmt 1
	movq	-272(%rbp), %rsi
	movq	%rsi, -296(%rbp)
	movq	-264(%rbp), %rsi
	movq	%rsi, -288(%rbp)
	movq	-256(%rbp), %rsi
	movq	%rsi, -280(%rbp)
	.loc	47 29 21 is_stmt 0
	movq	-248(%rbp), %rsi
	movq	%rsi, (%rdx)
	movq	-240(%rbp), %rsi
	movq	%rsi, 8(%rdx)
	movq	-232(%rbp), %rsi
	movq	%rsi, 16(%rdx)
Ltmp957:
	.loc	47 31 20 is_stmt 1
	movq	%rcx, -8(%rbp)
	.loc	47 31 23 is_stmt 0
	movq	-296(%rbp), %rdx
	movq	%rdx, -176(%rbp)
	movq	-288(%rbp), %rdx
	movq	%rdx, -168(%rbp)
	movq	-280(%rbp), %rdx
	movq	%rdx, -160(%rbp)
Ltmp958:
	.loc	3 1354 9 is_stmt 1
	movq	-176(%rbp), %rdx
	movq	%rdx, (%rcx)
	movq	-168(%rbp), %rdx
	movq	%rdx, 8(%rcx)
	movq	-160(%rbp), %rdx
	movq	%rdx, 16(%rcx)
Ltmp959:
	.loc	47 35 2
	addq	$352, %rsp
	popq	%rbp
	retq
LBB138_5:
	.loc	47 35 1 is_stmt 0
	testb	$1, -145(%rbp)
	jne	LBB138_9
	jmp	LBB138_8
LBB138_6:
Ltmp946:
	.loc	47 0 1
	leaq	-328(%rbp), %rdi
	.loc	47 35 1
	callq	__ZN4core3ptr72drop_in_place$LT$alloc..collections..btree..mem..replace..PanicGuard$GT$17h85f2b3db1e3066c3E
Ltmp947:
	jmp	LBB138_5
LBB138_7:
Ltmp948:
	.loc	47 20 1 is_stmt 1
	callq	__ZN4core9panicking19panic_cannot_unwind17h1fbca7e1d7f56ae1E
LBB138_8:
	movq	-24(%rbp), %rdi
	callq	__Unwind_Resume
LBB138_9:
	.loc	47 35 1
	jmp	LBB138_8
Ltmp960:
Lfunc_end138:
	.cfi_endproc
	.section	__TEXT,__gcc_except_tab
	.p2align	2
GCC_except_table138:
Lexception31:
	.byte	255
	.byte	255
	.byte	1
	.uleb128 Lcst_end31-Lcst_begin31
Lcst_begin31:
	.uleb128 Ltmp943-Lfunc_begin138
	.uleb128 Ltmp944-Ltmp943
	.uleb128 Ltmp945-Lfunc_begin138
	.byte	0
	.uleb128 Ltmp946-Lfunc_begin138
	.uleb128 Ltmp947-Ltmp946
	.uleb128 Ltmp948-Lfunc_begin138
	.byte	0
	.uleb128 Ltmp947-Lfunc_begin138
	.uleb128 Lfunc_end138-Ltmp947
	.byte	0
	.byte	0
Lcst_end31:
	.p2align	2

	.section	__TEXT,__text,regular,pure_instructions
	.p2align	4, 0x90
__ZN5alloc11collections5btree4node127NodeRef$LT$alloc..collections..btree..node..marker..Dying$C$K$C$V$C$alloc..collections..btree..node..marker..LeafOrInternal$GT$21deallocate_and_ascend17h5f9bdfb21947eb0dE:
Lfunc_begin139:
	.file	48 "/rustc/2c8cc343237b8f7d5a3c3703e3a87f2eb2c54a74/library/alloc/src/collections/btree" "node.rs"
	.loc	48 396 0
	.cfi_startproc
	.cfi_personality 155, _rust_eh_personality
	.cfi_lsda 16, Lexception32
	pushq	%rbp
	.cfi_def_cfa_offset 16
	.cfi_offset %rbp, -16
	movq	%rsp, %rbp
	.cfi_def_cfa_register %rbp
	subq	$368, %rsp
	movq	%rdx, -312(%rbp)
	movq	%rsi, -304(%rbp)
	movq	%rdi, -296(%rbp)
	movq	%rdi, -288(%rbp)
	movq	%rsi, -168(%rbp)
	movq	%rdx, -160(%rbp)
Ltmp970:
	.loc	48 400 22 prologue_end
	movq	%rsi, -152(%rbp)
Ltmp971:
	.loc	48 401 20
	movq	%rdx, -144(%rbp)
Ltmp961:
	leaq	-272(%rbp), %rdi
Ltmp972:
	.loc	48 402 19
	callq	__ZN5alloc11collections5btree4node40NodeRef$LT$BorrowType$C$K$C$V$C$Type$GT$6ascend17hb6bbd5695ae00276E
Ltmp962:
	jmp	LBB139_3
Ltmp973:
LBB139_1:
	.loc	48 396 5
	movq	-136(%rbp), %rdi
	callq	__Unwind_Resume
LBB139_2:
Ltmp969:
	.loc	48 0 5 is_stmt 0
	movq	%rax, %rcx
	movl	%edx, %eax
	movq	%rcx, -136(%rbp)
	movl	%eax, -128(%rbp)
	jmp	LBB139_1
LBB139_3:
Ltmp974:
	.loc	30 646 9 is_stmt 1
	cmpq	$0, -272(%rbp)
	jne	LBB139_5
	.loc	30 0 9 is_stmt 0
	movq	-296(%rbp), %rax
	.loc	30 647 16 is_stmt 1
	movq	-264(%rbp), %rcx
	movq	%rcx, -216(%rbp)
	movq	-256(%rbp), %rcx
	movq	%rcx, -208(%rbp)
	movq	-248(%rbp), %rcx
	movq	%rcx, -200(%rbp)
Ltmp975:
	.loc	30 647 27 is_stmt 0
	movq	-216(%rbp), %rcx
	movq	%rcx, -192(%rbp)
	movq	-208(%rbp), %rcx
	movq	%rcx, -184(%rbp)
	movq	-200(%rbp), %rcx
	movq	%rcx, -176(%rbp)
	.loc	30 647 22
	movq	-192(%rbp), %rcx
	movq	%rcx, (%rax)
	movq	-184(%rbp), %rcx
	movq	%rcx, 8(%rax)
	movq	-176(%rbp), %rcx
	movq	%rcx, 16(%rax)
Ltmp976:
	.loc	30 647 28
	jmp	LBB139_6
LBB139_5:
	.loc	30 0 28
	movq	-296(%rbp), %rax
Ltmp977:
	.loc	30 650 23 is_stmt 1
	movq	$0, 8(%rax)
Ltmp978:
LBB139_6:
	.loc	30 0 23 is_stmt 0
	movq	-304(%rbp), %rax
	movq	-312(%rbp), %rcx
Ltmp979:
	.loc	48 405 17 is_stmt 1
	movq	%rcx, -120(%rbp)
Ltmp980:
	.loc	8 450 41
	movq	%rcx, -112(%rbp)
	movq	%rcx, -104(%rbp)
Ltmp981:
	.loc	8 201 13
	movq	%rcx, -240(%rbp)
Ltmp982:
	.loc	48 406 20
	cmpq	$0, %rax
	ja	LBB139_8
Ltmp963:
Ltmp983:
	.loc	37 149 29
	callq	__ZN4core5alloc6layout10size_align17he20c3286cceb84a4E
Ltmp964:
	movq	%rdx, -328(%rbp)
	movq	%rax, -320(%rbp)
	jmp	LBB139_12
Ltmp984:
LBB139_8:
Ltmp965:
	.loc	37 149 29 is_stmt 0
	callq	__ZN4core5alloc6layout10size_align17h45ca32d8cca4ade0E
Ltmp966:
	movq	%rdx, -344(%rbp)
	movq	%rax, -336(%rbp)
	jmp	LBB139_9
LBB139_9:
	.loc	37 0 29
	movq	-344(%rbp), %rax
	movq	-336(%rbp), %rcx
	.loc	37 149 14
	movq	%rcx, -96(%rbp)
	.loc	37 149 20
	movq	%rax, -88(%rbp)
Ltmp985:
	.loc	37 153 52 is_stmt 1
	movq	%rcx, -80(%rbp)
	.loc	37 153 58 is_stmt 0
	movq	%rax, -72(%rbp)
Ltmp986:
	.loc	37 120 65 is_stmt 1
	movq	%rax, -64(%rbp)
Ltmp987:
	.loc	38 89 18
	movq	%rax, -56(%rbp)
	movq	-56(%rbp), %rax
	movq	%rax, -352(%rbp)
Ltmp988:
	.loc	38 0 18 is_stmt 0
	movq	-352(%rbp), %rax
	movq	-336(%rbp), %rcx
	.loc	37 120 18 is_stmt 1
	movq	%rcx, -232(%rbp)
	movq	%rax, -224(%rbp)
Ltmp989:
LBB139_11:
	.loc	48 404 13
	movq	-240(%rbp), %rsi
	movq	-232(%rbp), %rdx
	movq	-224(%rbp), %rcx
Ltmp967:
	leaq	-280(%rbp), %rdi
	callq	__ZN63_$LT$alloc..alloc..Global$u20$as$u20$core..alloc..Allocator$GT$10deallocate17h225a492feb947a61E
Ltmp968:
	jmp	LBB139_14
LBB139_12:
	.loc	48 0 13 is_stmt 0
	movq	-328(%rbp), %rax
	movq	-320(%rbp), %rcx
Ltmp990:
	.loc	37 149 14 is_stmt 1
	movq	%rcx, -48(%rbp)
	.loc	37 149 20 is_stmt 0
	movq	%rax, -40(%rbp)
Ltmp991:
	.loc	37 153 52 is_stmt 1
	movq	%rcx, -32(%rbp)
	.loc	37 153 58 is_stmt 0
	movq	%rax, -24(%rbp)
Ltmp992:
	.loc	37 120 65 is_stmt 1
	movq	%rax, -16(%rbp)
Ltmp993:
	.loc	38 89 18
	movq	%rax, -8(%rbp)
	movq	-8(%rbp), %rax
	movq	%rax, -360(%rbp)
Ltmp994:
	.loc	38 0 18 is_stmt 0
	movq	-360(%rbp), %rax
	movq	-320(%rbp), %rcx
	.loc	37 120 18 is_stmt 1
	movq	%rcx, -232(%rbp)
	movq	%rax, -224(%rbp)
Ltmp995:
	.loc	37 154 6
	jmp	LBB139_11
LBB139_14:
	.loc	37 0 6 is_stmt 0
	movq	-288(%rbp), %rax
	.loc	48 414 6 is_stmt 1
	addq	$368, %rsp
	popq	%rbp
	retq
Ltmp996:
Lfunc_end139:
	.cfi_endproc
	.section	__TEXT,__gcc_except_tab
	.p2align	2
GCC_except_table139:
Lexception32:
	.byte	255
	.byte	255
	.byte	1
	.uleb128 Lcst_end32-Lcst_begin32
Lcst_begin32:
	.uleb128 Ltmp961-Lfunc_begin139
	.uleb128 Ltmp962-Ltmp961
	.uleb128 Ltmp969-Lfunc_begin139
	.byte	0
	.uleb128 Ltmp962-Lfunc_begin139
	.uleb128 Ltmp963-Ltmp962
	.byte	0
	.byte	0
	.uleb128 Ltmp963-Lfunc_begin139
	.uleb128 Ltmp968-Ltmp963
	.uleb128 Ltmp969-Lfunc_begin139
	.byte	0
Lcst_end32:
	.p2align	2

	.section	__TEXT,__text,regular,pure_instructions
	.p2align	4, 0x90
__ZN5alloc11collections5btree4node137Handle$LT$alloc..collections..btree..node..NodeRef$LT$BorrowType$C$K$C$V$C$NodeType$GT$$C$alloc..collections..btree..node..marker..KV$GT$10right_edge17hb748dd21ef3b6694E:
Lfunc_begin140:
	.loc	48 765 0
	.cfi_startproc
	pushq	%rbp
	.cfi_def_cfa_offset 16
	.cfi_offset %rbp, -16
	movq	%rsp, %rbp
	.cfi_def_cfa_register %rbp
	subq	$16, %rsp
	movq	%rsi, %rax
	movq	%rdi, %rcx
	movq	%rcx, -8(%rbp)
Ltmp997:
	.loc	48 766 35 prologue_end
	movq	(%rax), %rsi
	movq	8(%rax), %rdx
	.loc	48 766 46 is_stmt 0
	movq	16(%rax), %rcx
	addq	$1, %rcx
	.loc	48 766 18
	callq	__ZN5alloc11collections5btree4node139Handle$LT$alloc..collections..btree..node..NodeRef$LT$BorrowType$C$K$C$V$C$NodeType$GT$$C$alloc..collections..btree..node..marker..Edge$GT$8new_edge17h5efc0781c0a9313cE
Ltmp998:
	.loc	48 0 18
	movq	-8(%rbp), %rax
	.loc	48 767 6 is_stmt 1
	addq	$16, %rsp
	popq	%rbp
	retq
Ltmp999:
Lfunc_end140:
	.cfi_endproc

	.p2align	4, 0x90
__ZN5alloc11collections5btree4node137Handle$LT$alloc..collections..btree..node..NodeRef$LT$BorrowType$C$K$C$V$C$NodeType$GT$$C$alloc..collections..btree..node..marker..KV$GT$10right_edge17hcdd3b4bf2ba13241E:
Lfunc_begin141:
	.loc	48 765 0
	.cfi_startproc
	pushq	%rbp
	.cfi_def_cfa_offset 16
	.cfi_offset %rbp, -16
	movq	%rsp, %rbp
	.cfi_def_cfa_register %rbp
	subq	$16, %rsp
	movq	%rsi, %rax
	movq	%rdi, %rcx
	movq	%rcx, -8(%rbp)
Ltmp1000:
	.loc	48 766 35 prologue_end
	movq	(%rax), %rsi
	movq	8(%rax), %rdx
	.loc	48 766 46 is_stmt 0
	movq	16(%rax), %rcx
	addq	$1, %rcx
	.loc	48 766 18
	callq	__ZN5alloc11collections5btree4node139Handle$LT$alloc..collections..btree..node..NodeRef$LT$BorrowType$C$K$C$V$C$NodeType$GT$$C$alloc..collections..btree..node..marker..Edge$GT$8new_edge17ha0eec39a4035d0afE
Ltmp1001:
	.loc	48 0 18
	movq	-8(%rbp), %rax
	.loc	48 767 6 is_stmt 1
	addq	$16, %rsp
	popq	%rbp
	retq
Ltmp1002:
Lfunc_end141:
	.cfi_endproc

	.p2align	4, 0x90
__ZN5alloc11collections5btree4node137Handle$LT$alloc..collections..btree..node..NodeRef$LT$BorrowType$C$K$C$V$C$NodeType$GT$$C$alloc..collections..btree..node..marker..KV$GT$6new_kv17h4e6587c151315a46E:
Lfunc_begin142:
	.loc	48 755 0
	.cfi_startproc
	pushq	%rbp
	.cfi_def_cfa_offset 16
	.cfi_offset %rbp, -16
	movq	%rsp, %rbp
	.cfi_def_cfa_register %rbp
	subq	$24, %rsp
	movq	%rdi, %rax
	movq	%rsi, -24(%rbp)
	movq	%rdx, -16(%rbp)
	movq	%rcx, -8(%rbp)
Ltmp1003:
	.loc	48 758 9 prologue_end
	movq	%rsi, (%rdi)
	movq	%rdx, 8(%rdi)
	movq	%rcx, 16(%rdi)
	.loc	48 759 6
	addq	$24, %rsp
	popq	%rbp
	retq
Ltmp1004:
Lfunc_end142:
	.cfi_endproc

	.p2align	4, 0x90
__ZN5alloc11collections5btree4node139Handle$LT$alloc..collections..btree..node..NodeRef$LT$BorrowType$C$K$C$V$C$NodeType$GT$$C$alloc..collections..btree..node..marker..Edge$GT$8new_edge17h5efc0781c0a9313cE:
Lfunc_begin143:
	.loc	48 806 0
	.cfi_startproc
	pushq	%rbp
	.cfi_def_cfa_offset 16
	.cfi_offset %rbp, -16
	movq	%rsp, %rbp
	.cfi_def_cfa_register %rbp
	subq	$24, %rsp
	movq	%rdi, %rax
	movq	%rsi, -24(%rbp)
	movq	%rdx, -16(%rbp)
	movq	%rcx, -8(%rbp)
Ltmp1005:
	.loc	48 809 9 prologue_end
	movq	%rsi, (%rdi)
	movq	%rdx, 8(%rdi)
	movq	%rcx, 16(%rdi)
	.loc	48 810 6
	addq	$24, %rsp
	popq	%rbp
	retq
Ltmp1006:
Lfunc_end143:
	.cfi_endproc

	.p2align	4, 0x90
__ZN5alloc11collections5btree4node139Handle$LT$alloc..collections..btree..node..NodeRef$LT$BorrowType$C$K$C$V$C$NodeType$GT$$C$alloc..collections..btree..node..marker..Edge$GT$8new_edge17ha066a02e01454fceE:
Lfunc_begin144:
	.loc	48 806 0
	.cfi_startproc
	pushq	%rbp
	.cfi_def_cfa_offset 16
	.cfi_offset %rbp, -16
	movq	%rsp, %rbp
	.cfi_def_cfa_register %rbp
	subq	$24, %rsp
	movq	%rdi, %rax
	movq	%rsi, -24(%rbp)
	movq	%rdx, -16(%rbp)
	movq	%rcx, -8(%rbp)
Ltmp1007:
	.loc	48 809 9 prologue_end
	movq	%rsi, (%rdi)
	movq	%rdx, 8(%rdi)
	movq	%rcx, 16(%rdi)
	.loc	48 810 6
	addq	$24, %rsp
	popq	%rbp
	retq
Ltmp1008:
Lfunc_end144:
	.cfi_endproc

	.p2align	4, 0x90
__ZN5alloc11collections5btree4node139Handle$LT$alloc..collections..btree..node..NodeRef$LT$BorrowType$C$K$C$V$C$NodeType$GT$$C$alloc..collections..btree..node..marker..Edge$GT$8new_edge17ha0eec39a4035d0afE:
Lfunc_begin145:
	.loc	48 806 0
	.cfi_startproc
	pushq	%rbp
	.cfi_def_cfa_offset 16
	.cfi_offset %rbp, -16
	movq	%rsp, %rbp
	.cfi_def_cfa_register %rbp
	subq	$24, %rsp
	movq	%rdi, %rax
	movq	%rsi, -24(%rbp)
	movq	%rdx, -16(%rbp)
	movq	%rcx, -8(%rbp)
Ltmp1009:
	.loc	48 809 9 prologue_end
	movq	%rsi, (%rdi)
	movq	%rdx, 8(%rdi)
	movq	%rcx, 16(%rdi)
	.loc	48 810 6
	addq	$24, %rsp
	popq	%rbp
	retq
Ltmp1010:
Lfunc_end145:
	.cfi_endproc

	.p2align	4, 0x90
__ZN5alloc11collections5btree4node139Handle$LT$alloc..collections..btree..node..NodeRef$LT$BorrowType$C$K$C$V$C$NodeType$GT$$C$alloc..collections..btree..node..marker..Edge$GT$8right_kv17h30daa9b020e75df7E:
Lfunc_begin146:
	.loc	48 820 0
	.cfi_startproc
	pushq	%rbp
	.cfi_def_cfa_offset 16
	.cfi_offset %rbp, -16
	movq	%rsp, %rbp
	.cfi_def_cfa_register %rbp
	subq	$80, %rsp
	movq	%rsi, -80(%rbp)
Ltmp1011:
	movq	%rdi, %rax
	movq	-80(%rbp), %rdi
	movq	%rax, -72(%rbp)
	movq	%rax, -64(%rbp)
Ltmp1012:
	.loc	48 821 12 prologue_end
	movq	16(%rdi), %rax
	movq	%rax, -56(%rbp)
	.loc	48 821 23 is_stmt 0
	callq	__ZN5alloc11collections5btree4node40NodeRef$LT$BorrowType$C$K$C$V$C$Type$GT$3len17h5152ff65a6a60c48E
Ltmp1013:
	movq	%rax, %rcx
	movq	-56(%rbp), %rax
	.loc	48 821 12
	cmpq	%rcx, %rax
Ltmp1014:
	jb	LBB146_2
Ltmp1015:
	.loc	48 0 12
	movq	-72(%rbp), %rax
	movq	-80(%rbp), %rcx
	.loc	48 824 17 is_stmt 1
	movq	(%rcx), %rdx
	movq	%rdx, -24(%rbp)
	movq	8(%rcx), %rdx
	movq	%rdx, -16(%rbp)
	movq	16(%rcx), %rcx
	movq	%rcx, -8(%rbp)
	.loc	48 824 13 is_stmt 0
	movq	-24(%rbp), %rcx
	movq	%rcx, 8(%rax)
	movq	-16(%rbp), %rcx
	movq	%rcx, 16(%rax)
	movq	-8(%rbp), %rcx
	movq	%rcx, 24(%rax)
	movq	$1, (%rax)
	.loc	48 821 9 is_stmt 1
	jmp	LBB146_3
Ltmp1016:
LBB146_2:
	.loc	48 0 9 is_stmt 0
	movq	-80(%rbp), %rax
	.loc	48 822 40 is_stmt 1
	movq	(%rax), %rsi
	movq	8(%rax), %rdx
	.loc	48 822 51 is_stmt 0
	movq	16(%rax), %rcx
	.loc	48 822 25
	leaq	-48(%rbp), %rdi
	callq	__ZN5alloc11collections5btree4node137Handle$LT$alloc..collections..btree..node..NodeRef$LT$BorrowType$C$K$C$V$C$NodeType$GT$$C$alloc..collections..btree..node..marker..KV$GT$6new_kv17h4e6587c151315a46E
	movq	-72(%rbp), %rax
	.loc	48 822 13
	movq	-48(%rbp), %rcx
	movq	%rcx, 8(%rax)
	movq	-40(%rbp), %rcx
	movq	%rcx, 16(%rax)
	movq	-32(%rbp), %rcx
	movq	%rcx, 24(%rax)
	movq	$0, (%rax)
Ltmp1017:
LBB146_3:
	.loc	48 0 13
	movq	-64(%rbp), %rax
	.loc	48 826 6 is_stmt 1
	addq	$80, %rsp
	popq	%rbp
	retq
Ltmp1018:
Lfunc_end146:
	.cfi_endproc

	.p2align	4, 0x90
__ZN5alloc11collections5btree4node145Handle$LT$alloc..collections..btree..node..NodeRef$LT$BorrowType$C$K$C$V$C$alloc..collections..btree..node..marker..LeafOrInternal$GT$$C$Type$GT$5force17h83ba37c1f3084612E:
Lfunc_begin147:
	.loc	48 1561 0
	.cfi_startproc
	pushq	%rbp
	.cfi_def_cfa_offset 16
	.cfi_offset %rbp, -16
	movq	%rsp, %rbp
	.cfi_def_cfa_register %rbp
	subq	$128, %rsp
	movq	%rsi, %rax
	movq	%rax, -128(%rbp)
Ltmp1019:
	movq	%rdi, -120(%rbp)
	movq	%rdi, -112(%rbp)
Ltmp1020:
	.loc	48 1567 15 prologue_end
	movq	(%rax), %rsi
	movq	8(%rax), %rdx
	leaq	-104(%rbp), %rdi
	callq	__ZN5alloc11collections5btree4node91NodeRef$LT$BorrowType$C$K$C$V$C$alloc..collections..btree..node..marker..LeafOrInternal$GT$5force17hf8fe548d4ebe985eE
Ltmp1021:
	.loc	48 1567 9 is_stmt 0
	cmpq	$0, -104(%rbp)
Ltmp1022:
	jne	LBB147_2
Ltmp1023:
	.loc	48 0 9
	movq	-120(%rbp), %rax
	movq	-128(%rbp), %rcx
	.loc	48 1568 31 is_stmt 1
	movq	-96(%rbp), %rsi
	movq	-88(%rbp), %rdx
	movq	%rsi, -16(%rbp)
	movq	%rdx, -8(%rbp)
Ltmp1024:
	.loc	48 1569 55
	movq	16(%rcx), %rcx
	.loc	48 1569 35 is_stmt 0
	movq	%rsi, -80(%rbp)
	movq	%rdx, -72(%rbp)
	movq	%rcx, -64(%rbp)
	.loc	48 1569 17
	movq	-80(%rbp), %rcx
	movq	%rcx, 8(%rax)
	movq	-72(%rbp), %rcx
	movq	%rcx, 16(%rax)
	movq	-64(%rbp), %rcx
	movq	%rcx, 24(%rax)
	movq	$0, (%rax)
Ltmp1025:
	.loc	48 1570 13 is_stmt 1
	jmp	LBB147_3
Ltmp1026:
LBB147_2:
	.loc	48 0 13 is_stmt 0
	movq	-120(%rbp), %rax
	movq	-128(%rbp), %rcx
	.loc	48 1571 35 is_stmt 1
	movq	-96(%rbp), %rsi
	movq	-88(%rbp), %rdx
	movq	%rsi, -32(%rbp)
	movq	%rdx, -24(%rbp)
Ltmp1027:
	.loc	48 1572 59
	movq	16(%rcx), %rcx
	.loc	48 1572 39 is_stmt 0
	movq	%rsi, -56(%rbp)
	movq	%rdx, -48(%rbp)
	movq	%rcx, -40(%rbp)
	.loc	48 1572 17
	movq	-56(%rbp), %rcx
	movq	%rcx, 8(%rax)
	movq	-48(%rbp), %rcx
	movq	%rcx, 16(%rax)
	movq	-40(%rbp), %rcx
	movq	%rcx, 24(%rax)
	movq	$1, (%rax)
Ltmp1028:
LBB147_3:
	.loc	48 0 17
	movq	-112(%rbp), %rax
	.loc	48 1575 6 is_stmt 1
	addq	$128, %rsp
	popq	%rbp
	retq
Ltmp1029:
Lfunc_end147:
	.cfi_endproc

	.p2align	4, 0x90
__ZN5alloc11collections5btree4node173Handle$LT$alloc..collections..btree..node..NodeRef$LT$alloc..collections..btree..node..marker..Dying$C$K$C$V$C$NodeType$GT$$C$alloc..collections..btree..node..marker..KV$GT$12drop_key_val17h1e2c0090e4dc276dE:
Lfunc_begin148:
	.loc	48 1092 0
	.cfi_startproc
	pushq	%rbp
	.cfi_def_cfa_offset 16
	.cfi_offset %rbp, -16
	movq	%rsp, %rbp
	.cfi_def_cfa_register %rbp
	subq	$240, %rsp
	movq	%rdi, -224(%rbp)
Ltmp1030:
	.loc	48 1094 20 prologue_end
	callq	__ZN5alloc11collections5btree4node76NodeRef$LT$alloc..collections..btree..node..marker..Dying$C$K$C$V$C$Type$GT$13as_leaf_dying17h218d62ed6be07350E
	movq	-224(%rbp), %rdi
	movq	%rax, -232(%rbp)
	movq	%rax, -216(%rbp)
Ltmp1031:
	.loc	48 1096 13
	addq	$8, %rax
	movq	%rax, -208(%rbp)
	movq	$11, -200(%rbp)
	.loc	48 1096 41 is_stmt 0
	movq	16(%rdi), %rcx
	movq	%rcx, -192(%rbp)
Ltmp1032:
	.loc	14 443 24 is_stmt 1
	movq	%rcx, -184(%rbp)
	.loc	14 443 48 is_stmt 0
	movq	%rax, -176(%rbp)
	movq	$11, -168(%rbp)
Ltmp1033:
	.loc	1 253 13 is_stmt 1
	movq	%rax, -160(%rbp)
	movq	$11, -152(%rbp)
Ltmp1034:
	.loc	18 2037 9
	movq	%rax, -144(%rbp)
Ltmp1035:
	.loc	1 253 36
	movq	%rcx, -136(%rbp)
Ltmp1036:
	.loc	18 1034 18
	movq	%rax, -128(%rbp)
	.loc	18 1034 30 is_stmt 0
	movq	%rcx, -120(%rbp)
Ltmp1037:
	.loc	18 487 18 is_stmt 1
	imulq	$24, %rcx, %rcx
	addq	%rcx, %rax
	movq	%rax, -112(%rbp)
	movq	-112(%rbp), %rdi
Ltmp1038:
	.loc	48 1096 13
	callq	__ZN4core3mem12maybe_uninit20MaybeUninit$LT$T$GT$16assume_init_drop17h4a580066d29789c0E
	movq	-232(%rbp), %rax
	movq	-224(%rbp), %rdi
	.loc	48 1097 13
	addq	$272, %rax
	movq	%rax, -104(%rbp)
	movq	$11, -96(%rbp)
	.loc	48 1097 41 is_stmt 0
	movq	16(%rdi), %rcx
	movq	%rcx, -88(%rbp)
Ltmp1039:
	.loc	14 443 24 is_stmt 1
	movq	%rcx, -80(%rbp)
	.loc	14 443 48 is_stmt 0
	movq	%rax, -72(%rbp)
	movq	$11, -64(%rbp)
Ltmp1040:
	.loc	1 253 13 is_stmt 1
	movq	%rax, -56(%rbp)
	movq	$11, -48(%rbp)
Ltmp1041:
	.loc	18 2037 9
	movq	%rax, -40(%rbp)
Ltmp1042:
	.loc	1 253 36
	movq	%rcx, -32(%rbp)
Ltmp1043:
	.loc	18 1034 18
	movq	%rax, -24(%rbp)
	.loc	18 1034 30 is_stmt 0
	movq	%rcx, -16(%rbp)
Ltmp1044:
	.loc	18 487 18 is_stmt 1
	imulq	$24, %rcx, %rcx
	addq	%rcx, %rax
	movq	%rax, -8(%rbp)
	movq	-8(%rbp), %rdi
Ltmp1045:
	.loc	48 1097 13
	callq	__ZN4core3mem12maybe_uninit20MaybeUninit$LT$T$GT$16assume_init_drop17hddd40f02498d1154E
Ltmp1046:
	.loc	48 1099 6
	addq	$240, %rsp
	popq	%rbp
	retq
Ltmp1047:
Lfunc_end148:
	.cfi_endproc

	.p2align	4, 0x90
__ZN5alloc11collections5btree4node176Handle$LT$alloc..collections..btree..node..NodeRef$LT$BorrowType$C$K$C$V$C$alloc..collections..btree..node..marker..Leaf$GT$$C$alloc..collections..btree..node..marker..Edge$GT$16forget_node_type17h0a70a535a7e744f1E:
Lfunc_begin149:
	.loc	48 1536 0
	.cfi_startproc
	pushq	%rbp
	.cfi_def_cfa_offset 16
	.cfi_offset %rbp, -16
	movq	%rsp, %rbp
	.cfi_def_cfa_register %rbp
	subq	$32, %rsp
	movq	%rsi, -16(%rbp)
	movq	%rdi, -24(%rbp)
	movq	%rdi, -8(%rbp)
Ltmp1048:
	.loc	48 1539 35 prologue_end
	movq	(%rsi), %rdi
	movq	8(%rsi), %rsi
	callq	__ZN5alloc11collections5btree4node81NodeRef$LT$BorrowType$C$K$C$V$C$alloc..collections..btree..node..marker..Leaf$GT$11forget_type17he9369b7535360d6dE
	movq	-24(%rbp), %rdi
	movq	%rax, %rsi
	movq	-16(%rbp), %rax
	.loc	48 1539 60 is_stmt 0
	movq	16(%rax), %rcx
	.loc	48 1539 18
	callq	__ZN5alloc11collections5btree4node139Handle$LT$alloc..collections..btree..node..NodeRef$LT$BorrowType$C$K$C$V$C$NodeType$GT$$C$alloc..collections..btree..node..marker..Edge$GT$8new_edge17ha066a02e01454fceE
	movq	-8(%rbp), %rax
	.loc	48 1540 6 is_stmt 1
	addq	$32, %rsp
	popq	%rbp
	retq
Ltmp1049:
Lfunc_end149:
	.cfi_endproc

	.p2align	4, 0x90
__ZN5alloc11collections5btree4node180Handle$LT$alloc..collections..btree..node..NodeRef$LT$BorrowType$C$K$C$V$C$alloc..collections..btree..node..marker..Internal$GT$$C$alloc..collections..btree..node..marker..Edge$GT$16forget_node_type17hbea5b39974b9dfa4E:
Lfunc_begin150:
	.loc	48 1544 0
	.cfi_startproc
	pushq	%rbp
	.cfi_def_cfa_offset 16
	.cfi_offset %rbp, -16
	movq	%rsp, %rbp
	.cfi_def_cfa_register %rbp
	subq	$32, %rsp
	movq	%rsi, -16(%rbp)
	movq	%rdi, -24(%rbp)
	movq	%rdi, -8(%rbp)
Ltmp1050:
	.loc	48 1547 35 prologue_end
	movq	(%rsi), %rdi
	movq	8(%rsi), %rsi
	callq	__ZN5alloc11collections5btree4node85NodeRef$LT$BorrowType$C$K$C$V$C$alloc..collections..btree..node..marker..Internal$GT$11forget_type17hb189f6d70f454dc8E
	movq	-24(%rbp), %rdi
	movq	%rax, %rsi
	movq	-16(%rbp), %rax
	.loc	48 1547 60 is_stmt 0
	movq	16(%rax), %rcx
	.loc	48 1547 18
	callq	__ZN5alloc11collections5btree4node139Handle$LT$alloc..collections..btree..node..NodeRef$LT$BorrowType$C$K$C$V$C$NodeType$GT$$C$alloc..collections..btree..node..marker..Edge$GT$8new_edge17ha066a02e01454fceE
	movq	-8(%rbp), %rax
	.loc	48 1548 6 is_stmt 1
	addq	$32, %rsp
	popq	%rbp
	retq
Ltmp1051:
Lfunc_end150:
	.cfi_endproc

	.p2align	4, 0x90
__ZN5alloc11collections5btree4node180Handle$LT$alloc..collections..btree..node..NodeRef$LT$BorrowType$C$K$C$V$C$alloc..collections..btree..node..marker..Internal$GT$$C$alloc..collections..btree..node..marker..Edge$GT$7descend17h0a21805776622783E:
Lfunc_begin151:
	.loc	48 1008 0
	.cfi_startproc
	pushq	%rbp
	.cfi_def_cfa_offset 16
	.cfi_offset %rbp, -16
	movq	%rsp, %rbp
	.cfi_def_cfa_register %rbp
	subq	$208, %rsp
	movq	%rdi, -208(%rbp)
Ltmp1052:
	.loc	48 1020 26 prologue_end
	callq	__ZN5alloc11collections5btree4node85NodeRef$LT$BorrowType$C$K$C$V$C$alloc..collections..btree..node..marker..Internal$GT$15as_internal_ptr17hf795393d9511e8ffE
	movq	-208(%rbp), %rdi
	movq	%rax, -176(%rbp)
Ltmp1053:
	.loc	48 1021 29
	movq	%rax, %rdx
	addq	$544, %rdx
	movq	%rdx, -168(%rbp)
	movq	$12, -160(%rbp)
	.loc	48 1021 63 is_stmt 0
	movq	16(%rdi), %rcx
	movq	%rcx, -152(%rbp)
Ltmp1054:
	.loc	14 405 20 is_stmt 1
	movq	%rcx, -144(%rbp)
	.loc	14 405 40 is_stmt 0
	movq	%rdx, -136(%rbp)
	movq	$12, -128(%rbp)
Ltmp1055:
	.loc	1 240 13 is_stmt 1
	movq	%rdx, -120(%rbp)
	movq	$12, -112(%rbp)
Ltmp1056:
	.loc	2 1650 9
	movq	%rdx, -104(%rbp)
Ltmp1057:
	.loc	1 240 32
	movq	%rcx, -96(%rbp)
Ltmp1058:
	.loc	2 932 18
	movq	%rdx, -88(%rbp)
	.loc	2 932 30 is_stmt 0
	movq	%rcx, -80(%rbp)
Ltmp1059:
	.loc	2 473 18 is_stmt 1
	leaq	544(%rax,%rcx,8), %rax
	movq	%rax, -72(%rbp)
	movq	-72(%rbp), %rax
Ltmp1060:
	.loc	48 1021 29
	movq	%rax, -64(%rbp)
Ltmp1061:
	.loc	32 697 13
	movq	%rax, -56(%rbp)
Ltmp1062:
	.loc	32 530 9
	movq	%rax, -48(%rbp)
Ltmp1063:
	.loc	2 1216 23
	movq	%rax, -40(%rbp)
	leaq	-184(%rbp), %rcx
Ltmp1064:
	.loc	3 1157 34
	movq	%rcx, -32(%rbp)
	.loc	3 1157 9 is_stmt 0
	movq	(%rax), %rax
	movq	%rax, -184(%rbp)
	.loc	3 1158 9 is_stmt 1
	movq	-184(%rbp), %rax
	movq	%rax, -24(%rbp)
Ltmp1065:
	.loc	32 627 38
	movq	%rax, -16(%rbp)
Ltmp1066:
	.loc	6 89 9
	movq	%rax, -8(%rbp)
Ltmp1067:
	.loc	48 1022 33
	movq	(%rdi), %rcx
	decq	%rcx
	.loc	48 1022 9 is_stmt 0
	movq	%rcx, -200(%rbp)
	movq	%rax, -192(%rbp)
Ltmp1068:
	.loc	48 1023 6 is_stmt 1
	movq	-200(%rbp), %rax
	movq	-192(%rbp), %rdx
	addq	$208, %rsp
	popq	%rbp
	retq
Ltmp1069:
Lfunc_end151:
	.cfi_endproc

	.p2align	4, 0x90
__ZN5alloc11collections5btree4node25Handle$LT$Node$C$Type$GT$9into_node17h1a747ed65c77bc62E:
Lfunc_begin152:
	.loc	48 742 0
	.cfi_startproc
	pushq	%rbp
	.cfi_def_cfa_offset 16
	.cfi_offset %rbp, -16
	movq	%rsp, %rbp
	.cfi_def_cfa_register %rbp
Ltmp1070:
	.loc	48 743 9 prologue_end
	movq	(%rdi), %rax
	movq	8(%rdi), %rdx
	.loc	48 744 6
	popq	%rbp
	retq
Ltmp1071:
Lfunc_end152:
	.cfi_endproc

	.p2align	4, 0x90
__ZN5alloc11collections5btree4node40NodeRef$LT$BorrowType$C$K$C$V$C$Type$GT$10first_edge17h3e016bd5e20476d3E:
Lfunc_begin153:
	.loc	48 338 0
	.cfi_startproc
	pushq	%rbp
	.cfi_def_cfa_offset 16
	.cfi_offset %rbp, -16
	movq	%rsp, %rbp
	.cfi_def_cfa_register %rbp
	subq	$32, %rsp
	movq	%rdi, %rax
	movq	%rax, -24(%rbp)
	movq	%rsi, -16(%rbp)
	movq	%rdx, -8(%rbp)
Ltmp1072:
	.loc	48 339 18 prologue_end
	xorl	%eax, %eax
	movl	%eax, %ecx
	callq	__ZN5alloc11collections5btree4node139Handle$LT$alloc..collections..btree..node..NodeRef$LT$BorrowType$C$K$C$V$C$NodeType$GT$$C$alloc..collections..btree..node..marker..Edge$GT$8new_edge17h5efc0781c0a9313cE
	movq	-24(%rbp), %rax
	.loc	48 340 6
	addq	$32, %rsp
	popq	%rbp
	retq
Ltmp1073:
Lfunc_end153:
	.cfi_endproc

	.p2align	4, 0x90
__ZN5alloc11collections5btree4node40NodeRef$LT$BorrowType$C$K$C$V$C$Type$GT$10first_edge17h41ba17aefcac2f26E:
Lfunc_begin154:
	.loc	48 338 0
	.cfi_startproc
	pushq	%rbp
	.cfi_def_cfa_offset 16
	.cfi_offset %rbp, -16
	movq	%rsp, %rbp
	.cfi_def_cfa_register %rbp
	subq	$32, %rsp
	movq	%rdi, %rax
	movq	%rax, -24(%rbp)
	movq	%rsi, -16(%rbp)
	movq	%rdx, -8(%rbp)
Ltmp1074:
	.loc	48 339 18 prologue_end
	xorl	%eax, %eax
	movl	%eax, %ecx
	callq	__ZN5alloc11collections5btree4node139Handle$LT$alloc..collections..btree..node..NodeRef$LT$BorrowType$C$K$C$V$C$NodeType$GT$$C$alloc..collections..btree..node..marker..Edge$GT$8new_edge17ha0eec39a4035d0afE
	movq	-24(%rbp), %rax
	.loc	48 340 6
	addq	$32, %rsp
	popq	%rbp
	retq
Ltmp1075:
Lfunc_end154:
	.cfi_endproc

	.p2align	4, 0x90
__ZN5alloc11collections5btree4node40NodeRef$LT$BorrowType$C$K$C$V$C$Type$GT$11as_leaf_ptr17h823336c89e9bed11E:
Lfunc_begin155:
	.loc	48 300 0
	.cfi_startproc
	pushq	%rbp
	.cfi_def_cfa_offset 16
	.cfi_offset %rbp, -16
	movq	%rsp, %rbp
	.cfi_def_cfa_register %rbp
	subq	$16, %rsp
	movq	%rdi, -16(%rbp)
Ltmp1076:
	.loc	48 304 9 prologue_end
	movq	8(%rdi), %rax
	movq	%rax, -8(%rbp)
	.loc	48 305 6
	addq	$16, %rsp
	popq	%rbp
	retq
Ltmp1077:
Lfunc_end155:
	.cfi_endproc

	.p2align	4, 0x90
__ZN5alloc11collections5btree4node40NodeRef$LT$BorrowType$C$K$C$V$C$Type$GT$3len17h5152ff65a6a60c48E:
Lfunc_begin156:
	.loc	48 277 0
	.cfi_startproc
	pushq	%rbp
	.cfi_def_cfa_offset 16
	.cfi_offset %rbp, -16
	movq	%rsp, %rbp
	.cfi_def_cfa_register %rbp
	subq	$16, %rsp
	movq	%rdi, -16(%rbp)
Ltmp1078:
	.loc	48 280 32 prologue_end
	callq	__ZN5alloc11collections5btree4node40NodeRef$LT$BorrowType$C$K$C$V$C$Type$GT$11as_leaf_ptr17h823336c89e9bed11E
	.loc	48 280 30 is_stmt 0
	movw	538(%rax), %ax
	movw	%ax, -2(%rbp)
Ltmp1079:
	.file	49 "/rustc/2c8cc343237b8f7d5a3c3703e3a87f2eb2c54a74/library/core/src/convert" "num.rs"
	.loc	49 54 17 is_stmt 1
	movzwl	%ax, %eax
Ltmp1080:
	.loc	48 281 6
	addq	$16, %rsp
	popq	%rbp
	retq
Ltmp1081:
Lfunc_end156:
	.cfi_endproc

	.p2align	4, 0x90
__ZN5alloc11collections5btree4node40NodeRef$LT$BorrowType$C$K$C$V$C$Type$GT$6ascend17hb6bbd5695ae00276E:
Lfunc_begin157:
	.loc	48 318 0
	.cfi_startproc
	pushq	%rbp
	.cfi_def_cfa_offset 16
	.cfi_offset %rbp, -16
	movq	%rsp, %rbp
	.cfi_def_cfa_register %rbp
	subq	$192, %rsp
	movq	%rdi, -176(%rbp)
	movq	%rdi, -168(%rbp)
	movq	%rsi, -160(%rbp)
	movq	%rdx, -152(%rbp)
Ltmp1082:
	.loc	48 327 34 prologue_end
	leaq	-160(%rbp), %rdi
	callq	__ZN5alloc11collections5btree4node40NodeRef$LT$BorrowType$C$K$C$V$C$Type$GT$11as_leaf_ptr17h823336c89e9bed11E
	movq	%rax, -144(%rbp)
Ltmp1083:
	.loc	48 328 18
	movq	-144(%rbp), %rax
	movq	(%rax), %rax
	movq	%rax, -104(%rbp)
	.loc	48 328 9 is_stmt 0
	leaq	-104(%rbp), %rax
	movq	%rax, -32(%rbp)
Ltmp1084:
	.loc	7 675 15 is_stmt 1
	movq	-104(%rbp), %rdx
	movl	$1, %eax
	xorl	%ecx, %ecx
	cmpq	$0, %rdx
	cmoveq	%rcx, %rax
	.loc	7 675 9 is_stmt 0
	cmpq	$0, %rax
	jne	LBB157_2
	.loc	7 677 21 is_stmt 1
	movq	$0, -112(%rbp)
	jmp	LBB157_3
LBB157_2:
	.loc	7 676 18
	leaq	-104(%rbp), %rax
	movq	%rax, -24(%rbp)
Ltmp1085:
	.loc	7 676 28 is_stmt 0
	leaq	-104(%rbp), %rax
	movq	%rax, -112(%rbp)
Ltmp1086:
LBB157_3:
	.loc	48 330 18 is_stmt 1
	leaq	-160(%rbp), %rax
	movq	%rax, -96(%rbp)
	leaq	-144(%rbp), %rax
	movq	%rax, -88(%rbp)
	.loc	48 328 9
	movq	-112(%rbp), %rsi
	movq	-96(%rbp), %rdx
	movq	-88(%rbp), %rcx
	leaq	-136(%rbp), %rdi
	callq	__ZN4core6option15Option$LT$T$GT$3map17hfc3d53be84769ae5E
	.loc	48 335 20
	movq	-160(%rbp), %rcx
	movq	%rcx, -192(%rbp)
	movq	-152(%rbp), %rax
	movq	%rax, -184(%rbp)
	movq	%rcx, -16(%rbp)
	movq	%rax, -8(%rbp)
Ltmp1087:
	.loc	7 1096 15
	movq	-128(%rbp), %rdx
	movl	$1, %eax
	xorl	%ecx, %ecx
	cmpq	$0, %rdx
	cmoveq	%rcx, %rax
	.loc	7 1096 9 is_stmt 0
	cmpq	$0, %rax
	jne	LBB157_5
	.loc	7 0 9
	movq	-176(%rbp), %rax
	movq	-184(%rbp), %rcx
	movq	-192(%rbp), %rdx
	.loc	7 1098 21 is_stmt 1
	movq	%rdx, 8(%rax)
	movq	%rcx, 16(%rax)
	movq	$1, (%rax)
	.loc	7 1098 28 is_stmt 0
	jmp	LBB157_6
LBB157_5:
	.loc	7 0 28
	movq	-176(%rbp), %rax
	.loc	7 1097 18 is_stmt 1
	movq	-136(%rbp), %rcx
	movq	%rcx, -80(%rbp)
	movq	-128(%rbp), %rcx
	movq	%rcx, -72(%rbp)
	movq	-120(%rbp), %rcx
	movq	%rcx, -64(%rbp)
Ltmp1088:
	.loc	7 1097 27 is_stmt 0
	movq	-80(%rbp), %rcx
	movq	%rcx, -56(%rbp)
	movq	-72(%rbp), %rcx
	movq	%rcx, -48(%rbp)
	movq	-64(%rbp), %rcx
	movq	%rcx, -40(%rbp)
	.loc	7 1097 24
	movq	-56(%rbp), %rcx
	movq	%rcx, 8(%rax)
	movq	-48(%rbp), %rcx
	movq	%rcx, 16(%rax)
	movq	-40(%rbp), %rcx
	movq	%rcx, 24(%rax)
	movq	$0, (%rax)
Ltmp1089:
LBB157_6:
	.loc	7 0 24
	movq	-168(%rbp), %rax
	.loc	48 336 6 is_stmt 1
	addq	$192, %rsp
	popq	%rbp
	retq
Ltmp1090:
Lfunc_end157:
	.cfi_endproc

	.p2align	4, 0x90
__ZN5alloc11collections5btree4node40NodeRef$LT$BorrowType$C$K$C$V$C$Type$GT$6ascend28_$u7b$$u7b$closure$u7d$$u7d$17hf9057e07573ba86aE:
Lfunc_begin158:
	.loc	48 330 0
	.cfi_startproc
	pushq	%rbp
	.cfi_def_cfa_offset 16
	.cfi_offset %rbp, -16
	movq	%rsp, %rbp
	.cfi_def_cfa_register %rbp
	subq	$48, %rsp
	movq	%rdi, -48(%rbp)
	movq	%rdi, -40(%rbp)
	movq	%rsi, -32(%rbp)
	movq	%rdx, -24(%rbp)
	movq	%rcx, -16(%rbp)
Ltmp1091:
	.loc	48 331 46 prologue_end
	movq	(%rcx), %rdi
	.loc	48 331 55 is_stmt 0
	movq	-32(%rbp), %rax
	movq	(%rax), %rsi
	addq	$1, %rsi
	.loc	48 331 23
	callq	__ZN5alloc11collections5btree4node85NodeRef$LT$BorrowType$C$K$C$V$C$alloc..collections..btree..node..marker..Internal$GT$13from_internal17h897ff7d8fef23a5bE
	movq	-48(%rbp), %rdi
	movq	%rax, %rsi
	movq	-40(%rbp), %rax
	.loc	48 332 43 is_stmt 1
	movq	-24(%rbp), %rcx
	movq	(%rcx), %rcx
	movw	536(%rcx), %cx
	movw	%cx, -6(%rbp)
Ltmp1092:
	.loc	32 627 38
	movw	%cx, -4(%rbp)
Ltmp1093:
	.loc	6 89 9
	movw	%cx, -2(%rbp)
Ltmp1094:
	.loc	49 54 17
	movzwl	%cx, %ecx
Ltmp1095:
	.loc	48 330 27
	movq	%rsi, (%rdi)
	movq	%rdx, 8(%rdi)
	movq	%rcx, 16(%rdi)
	.loc	48 334 14
	addq	$48, %rsp
	popq	%rbp
	retq
Ltmp1096:
Lfunc_end158:
	.cfi_endproc

	.p2align	4, 0x90
__ZN5alloc11collections5btree4node76NodeRef$LT$alloc..collections..btree..node..marker..Dying$C$K$C$V$C$Type$GT$13as_leaf_dying17h218d62ed6be07350E:
Lfunc_begin159:
	.loc	48 449 0
	.cfi_startproc
	pushq	%rbp
	.cfi_def_cfa_offset 16
	.cfi_offset %rbp, -16
	movq	%rsp, %rbp
	.cfi_def_cfa_register %rbp
	subq	$16, %rsp
	movq	%rdi, -16(%rbp)
Ltmp1097:
	.loc	48 450 19 prologue_end
	callq	__ZN5alloc11collections5btree4node40NodeRef$LT$BorrowType$C$K$C$V$C$Type$GT$11as_leaf_ptr17h823336c89e9bed11E
	movq	%rax, -8(%rbp)
	.loc	48 453 6
	addq	$16, %rsp
	popq	%rbp
	retq
Ltmp1098:
Lfunc_end159:
	.cfi_endproc

	.p2align	4, 0x90
__ZN5alloc11collections5btree4node76NodeRef$LT$alloc..collections..btree..node..marker..Owned$C$K$C$V$C$Type$GT$10into_dying17h870a33f5d6047171E:
Lfunc_begin160:
	.loc	48 626 0
	.cfi_startproc
	pushq	%rbp
	.cfi_def_cfa_offset 16
	.cfi_offset %rbp, -16
	movq	%rsp, %rbp
	.cfi_def_cfa_register %rbp
	subq	$32, %rsp
	movq	%rdi, -16(%rbp)
	movq	%rsi, -8(%rbp)
Ltmp1099:
	.loc	48 627 9 prologue_end
	movq	%rdi, -32(%rbp)
	movq	%rsi, -24(%rbp)
	.loc	48 628 6
	movq	-32(%rbp), %rax
	movq	-24(%rbp), %rdx
	addq	$32, %rsp
	popq	%rbp
	retq
Ltmp1100:
Lfunc_end160:
	.cfi_endproc

	.p2align	4, 0x90
__ZN5alloc11collections5btree4node81NodeRef$LT$BorrowType$C$K$C$V$C$alloc..collections..btree..node..marker..Leaf$GT$11forget_type17he9369b7535360d6dE:
Lfunc_begin161:
	.loc	48 667 0
	.cfi_startproc
	pushq	%rbp
	.cfi_def_cfa_offset 16
	.cfi_offset %rbp, -16
	movq	%rsp, %rbp
	.cfi_def_cfa_register %rbp
	subq	$32, %rsp
	movq	%rdi, -16(%rbp)
	movq	%rsi, -8(%rbp)
Ltmp1101:
	.loc	48 668 9 prologue_end
	movq	%rdi, -32(%rbp)
	movq	%rsi, -24(%rbp)
	.loc	48 669 6
	movq	-32(%rbp), %rax
	movq	-24(%rbp), %rdx
	addq	$32, %rsp
	popq	%rbp
	retq
Ltmp1102:
Lfunc_end161:
	.cfi_endproc

	.p2align	4, 0x90
__ZN5alloc11collections5btree4node85NodeRef$LT$BorrowType$C$K$C$V$C$alloc..collections..btree..node..marker..Internal$GT$11forget_type17hb189f6d70f454dc8E:
Lfunc_begin162:
	.loc	48 674 0
	.cfi_startproc
	pushq	%rbp
	.cfi_def_cfa_offset 16
	.cfi_offset %rbp, -16
	movq	%rsp, %rbp
	.cfi_def_cfa_register %rbp
	subq	$32, %rsp
	movq	%rdi, -16(%rbp)
	movq	%rsi, -8(%rbp)
Ltmp1103:
	.loc	48 675 9 prologue_end
	movq	%rdi, -32(%rbp)
	movq	%rsi, -24(%rbp)
	.loc	48 676 6
	movq	-32(%rbp), %rax
	movq	-24(%rbp), %rdx
	addq	$32, %rsp
	popq	%rbp
	retq
Ltmp1104:
Lfunc_end162:
	.cfi_endproc

	.p2align	4, 0x90
__ZN5alloc11collections5btree4node85NodeRef$LT$BorrowType$C$K$C$V$C$alloc..collections..btree..node..marker..Internal$GT$13from_internal17h897ff7d8fef23a5bE:
Lfunc_begin163:
	.loc	48 248 0
	.cfi_startproc
	pushq	%rbp
	.cfi_def_cfa_offset 16
	.cfi_offset %rbp, -16
	movq	%rsp, %rbp
	.cfi_def_cfa_register %rbp
	subq	$64, %rsp
	movq	%rdi, -40(%rbp)
	movq	%rsi, -32(%rbp)
Ltmp1105:
	.loc	48 250 33 prologue_end
	movq	%rdi, -24(%rbp)
Ltmp1106:
	.loc	8 450 41
	movq	%rdi, -16(%rbp)
	movq	%rdi, -8(%rbp)
Ltmp1107:
	.loc	8 201 13
	movq	%rdi, -48(%rbp)
Ltmp1108:
	.loc	48 250 9
	movq	%rsi, -64(%rbp)
	movq	-48(%rbp), %rax
	movq	%rax, -56(%rbp)
	.loc	48 251 6
	movq	-64(%rbp), %rax
	movq	-56(%rbp), %rdx
	addq	$64, %rsp
	popq	%rbp
	retq
Ltmp1109:
Lfunc_end163:
	.cfi_endproc

	.p2align	4, 0x90
__ZN5alloc11collections5btree4node85NodeRef$LT$BorrowType$C$K$C$V$C$alloc..collections..btree..node..marker..Internal$GT$15as_internal_ptr17hf795393d9511e8ffE:
Lfunc_begin164:
	.loc	48 258 0
	.cfi_startproc
	pushq	%rbp
	.cfi_def_cfa_offset 16
	.cfi_offset %rbp, -16
	movq	%rsp, %rbp
	.cfi_def_cfa_register %rbp
	subq	$16, %rsp
	movq	%rdi, -16(%rbp)
Ltmp1110:
	.loc	48 260 9 prologue_end
	movq	8(%rdi), %rax
	movq	%rax, -8(%rbp)
	.loc	48 261 6
	addq	$16, %rsp
	popq	%rbp
	retq
Ltmp1111:
Lfunc_end164:
	.cfi_endproc

	.p2align	4, 0x90
__ZN5alloc11collections5btree4node91NodeRef$LT$BorrowType$C$K$C$V$C$alloc..collections..btree..node..marker..LeafOrInternal$GT$5force17hf8fe548d4ebe985eE:
Lfunc_begin165:
	.loc	48 681 0
	.cfi_startproc
	pushq	%rbp
	.cfi_def_cfa_offset 16
	.cfi_offset %rbp, -16
	movq	%rsp, %rbp
	.cfi_def_cfa_register %rbp
	subq	$80, %rsp
	movq	%rdx, -80(%rbp)
	movq	%rsi, -72(%rbp)
	movq	%rdi, -64(%rbp)
	movq	%rdi, -56(%rbp)
	movq	%rsi, -16(%rbp)
	movq	%rdx, -8(%rbp)
Ltmp1112:
	.loc	48 687 12 prologue_end
	cmpq	$0, %rsi
	jne	LBB165_2
	.loc	48 0 12 is_stmt 0
	movq	-64(%rbp), %rax
	movq	-80(%rbp), %rcx
	movq	-72(%rbp), %rdx
	.loc	48 688 31 is_stmt 1
	movq	%rdx, -48(%rbp)
	movq	%rcx, -40(%rbp)
	.loc	48 688 13 is_stmt 0
	movq	-48(%rbp), %rdx
	movq	-40(%rbp), %rcx
	movq	%rdx, 8(%rax)
	movq	%rcx, 16(%rax)
	movq	$0, (%rax)
	.loc	48 687 9 is_stmt 1
	jmp	LBB165_3
LBB165_2:
	.loc	48 0 9 is_stmt 0
	movq	-64(%rbp), %rax
	movq	-80(%rbp), %rcx
	movq	-72(%rbp), %rdx
	.loc	48 694 35 is_stmt 1
	movq	%rdx, -32(%rbp)
	movq	%rcx, -24(%rbp)
	.loc	48 694 13 is_stmt 0
	movq	-32(%rbp), %rdx
	movq	-24(%rbp), %rcx
	movq	%rdx, 8(%rax)
	movq	%rcx, 16(%rax)
	movq	$1, (%rax)
LBB165_3:
	.loc	48 0 13
	movq	-56(%rbp), %rax
	.loc	48 700 6 is_stmt 1
	addq	$80, %rsp
	popq	%rbp
	retq
Ltmp1113:
Lfunc_end165:
	.cfi_endproc

	.p2align	4, 0x90
__ZN5alloc11collections5btree8navigate10full_range17heb023d944f49bd30E:
Lfunc_begin166:
	.file	50 "/rustc/2c8cc343237b8f7d5a3c3703e3a87f2eb2c54a74/library/alloc/src/collections/btree" "navigate.rs"
	.loc	50 289 0
	.cfi_startproc
	pushq	%rbp
	.cfi_def_cfa_offset 16
	.cfi_offset %rbp, -16
	movq	%rsp, %rbp
	.cfi_def_cfa_register %rbp
	subq	$160, %rsp
	movq	%rdi, %rax
	movq	%rsi, -32(%rbp)
	movq	%rdx, -24(%rbp)
	movq	%rcx, -16(%rbp)
	movq	%r8, -8(%rbp)
Ltmp1114:
	.loc	50 294 21 prologue_end
	movq	%rsi, -120(%rbp)
	movq	%rdx, -112(%rbp)
	movq	$0, -128(%rbp)
	.loc	50 294 16 is_stmt 0
	movq	-128(%rbp), %rdx
	movq	%rdx, -160(%rbp)
	movq	-120(%rbp), %rdx
	movq	%rdx, -152(%rbp)
	movq	-112(%rbp), %rdx
	movq	%rdx, -144(%rbp)
	movq	-104(%rbp), %rdx
	movq	%rdx, -136(%rbp)
	.loc	50 295 20 is_stmt 1
	movq	%rcx, -56(%rbp)
	movq	%r8, -48(%rbp)
	movq	$0, -64(%rbp)
	.loc	50 295 15 is_stmt 0
	movq	-64(%rbp), %rcx
	movq	%rcx, -96(%rbp)
	movq	-56(%rbp), %rcx
	movq	%rcx, -88(%rbp)
	movq	-48(%rbp), %rcx
	movq	%rcx, -80(%rbp)
	movq	-40(%rbp), %rcx
	movq	%rcx, -72(%rbp)
	.loc	50 293 5 is_stmt 1
	movq	-160(%rbp), %rcx
	movq	%rcx, (%rdi)
	movq	-152(%rbp), %rcx
	movq	%rcx, 8(%rdi)
	movq	-144(%rbp), %rcx
	movq	%rcx, 16(%rdi)
	movq	-136(%rbp), %rcx
	movq	%rcx, 24(%rdi)
	movq	-96(%rbp), %rcx
	movq	%rcx, 32(%rdi)
	movq	-88(%rbp), %rcx
	movq	%rcx, 40(%rdi)
	movq	-80(%rbp), %rcx
	movq	%rcx, 48(%rdi)
	movq	-72(%rbp), %rcx
	movq	%rcx, 56(%rdi)
	.loc	50 297 2
	addq	$160, %rsp
	popq	%rbp
	retq
Ltmp1115:
Lfunc_end166:
	.cfi_endproc

	.p2align	4, 0x90
__ZN5alloc11collections5btree8navigate142_$LT$impl$u20$alloc..collections..btree..node..NodeRef$LT$BorrowType$C$K$C$V$C$alloc..collections..btree..node..marker..LeafOrInternal$GT$$GT$15first_leaf_edge17h763c915631bdafa5E:
Lfunc_begin167:
	.loc	50 618 0
	.cfi_startproc
	pushq	%rbp
	.cfi_def_cfa_offset 16
	.cfi_offset %rbp, -16
	movq	%rsp, %rbp
	.cfi_def_cfa_register %rbp
	subq	$128, %rsp
	movq	%rdi, -128(%rbp)
	movq	%rdi, -120(%rbp)
	movq	%rsi, -48(%rbp)
	movq	%rdx, -40(%rbp)
Ltmp1116:
	.loc	50 619 24 prologue_end
	movq	%rsi, -112(%rbp)
	movq	%rdx, -104(%rbp)
LBB167_1:
Ltmp1117:
	.loc	50 621 19
	movq	-112(%rbp), %rsi
	movq	-104(%rbp), %rdx
	leaq	-96(%rbp), %rdi
	callq	__ZN5alloc11collections5btree4node91NodeRef$LT$BorrowType$C$K$C$V$C$alloc..collections..btree..node..marker..LeafOrInternal$GT$5force17hf8fe548d4ebe985eE
	.loc	50 621 13 is_stmt 0
	cmpq	$0, -96(%rbp)
	jne	LBB167_3
	.loc	50 0 13
	movq	-128(%rbp), %rdi
	.loc	50 622 22 is_stmt 1
	movq	-88(%rbp), %rsi
	movq	-80(%rbp), %rdx
	movq	%rsi, -16(%rbp)
	movq	%rdx, -8(%rbp)
Ltmp1118:
	.loc	50 622 38 is_stmt 0
	callq	__ZN5alloc11collections5btree4node40NodeRef$LT$BorrowType$C$K$C$V$C$Type$GT$10first_edge17h41ba17aefcac2f26E
	movq	-120(%rbp), %rax
Ltmp1119:
	.loc	50 626 6 is_stmt 1
	addq	$128, %rsp
	popq	%rbp
	retq
LBB167_3:
Ltmp1120:
	.loc	50 623 26
	movq	-88(%rbp), %rsi
	movq	-80(%rbp), %rdx
	movq	%rsi, -32(%rbp)
	movq	%rdx, -24(%rbp)
Ltmp1121:
	.loc	50 623 46 is_stmt 0
	leaq	-72(%rbp), %rdi
	callq	__ZN5alloc11collections5btree4node40NodeRef$LT$BorrowType$C$K$C$V$C$Type$GT$10first_edge17h3e016bd5e20476d3E
	leaq	-72(%rbp), %rdi
	callq	__ZN5alloc11collections5btree4node180Handle$LT$alloc..collections..btree..node..NodeRef$LT$BorrowType$C$K$C$V$C$alloc..collections..btree..node..marker..Internal$GT$$C$alloc..collections..btree..node..marker..Edge$GT$7descend17h0a21805776622783E
	.loc	50 623 39
	movq	%rax, -112(%rbp)
	movq	%rdx, -104(%rbp)
Ltmp1122:
	.loc	50 620 9 is_stmt 1
	jmp	LBB167_1
Ltmp1123:
Lfunc_end167:
	.cfi_endproc

	.p2align	4, 0x90
__ZN5alloc11collections5btree8navigate178_$LT$impl$u20$alloc..collections..btree..node..NodeRef$LT$alloc..collections..btree..node..marker..Dying$C$K$C$V$C$alloc..collections..btree..node..marker..LeafOrInternal$GT$$GT$10full_range17h0e1b5d51327b524bE:
Lfunc_begin168:
	.loc	50 354 0
	.cfi_startproc
	pushq	%rbp
	.cfi_def_cfa_offset 16
	.cfi_offset %rbp, -16
	movq	%rsp, %rbp
	.cfi_def_cfa_register %rbp
	subq	$112, %rsp
	movq	%rdi, %rax
	movq	%rax, -104(%rbp)
	movq	%rsi, -96(%rbp)
	movq	%rdx, -88(%rbp)
Ltmp1124:
	.loc	50 357 40 prologue_end
	leaq	-96(%rbp), %rax
	movq	%rax, -64(%rbp)
Ltmp1125:
	.loc	3 1157 34
	leaq	-80(%rbp), %rax
	movq	%rax, -56(%rbp)
	.loc	3 1157 9 is_stmt 0
	movq	-96(%rbp), %rax
	movq	%rax, -80(%rbp)
	movq	-88(%rbp), %rax
	movq	%rax, -72(%rbp)
	.loc	3 1158 9 is_stmt 1
	movq	-80(%rbp), %rcx
	movq	-72(%rbp), %r8
	movq	%rcx, -48(%rbp)
	movq	%r8, -40(%rbp)
Ltmp1126:
	.loc	32 627 38
	movq	%rcx, -32(%rbp)
	movq	%r8, -24(%rbp)
Ltmp1127:
	.loc	6 89 9
	movq	%rcx, -16(%rbp)
	movq	%r8, -8(%rbp)
Ltmp1128:
	.loc	50 358 20
	movq	-96(%rbp), %rsi
	movq	-88(%rbp), %rdx
	.loc	50 358 9 is_stmt 0
	callq	__ZN5alloc11collections5btree8navigate10full_range17heb023d944f49bd30E
	movq	-104(%rbp), %rax
Ltmp1129:
	.loc	50 359 6 is_stmt 1
	addq	$112, %rsp
	popq	%rbp
	retq
Ltmp1130:
Lfunc_end168:
	.cfi_endproc

	.p2align	4, 0x90
__ZN5alloc11collections5btree8navigate235_$LT$impl$u20$alloc..collections..btree..node..Handle$LT$alloc..collections..btree..node..NodeRef$LT$BorrowType$C$K$C$V$C$alloc..collections..btree..node..marker..LeafOrInternal$GT$$C$alloc..collections..btree..node..marker..KV$GT$$GT$14next_leaf_edge17hd73d3bf0183fb3f1E:
Lfunc_begin169:
	.loc	50 699 0
	.cfi_startproc
	pushq	%rbp
	.cfi_def_cfa_offset 16
	.cfi_offset %rbp, -16
	movq	%rsp, %rbp
	.cfi_def_cfa_register %rbp
	subq	$224, %rsp
	movq	%rdi, -216(%rbp)
	movq	%rdi, -208(%rbp)
Ltmp1131:
	.loc	50 700 15 prologue_end
	movq	(%rsi), %rax
	movq	%rax, -168(%rbp)
	movq	8(%rsi), %rax
	movq	%rax, -160(%rbp)
	movq	16(%rsi), %rax
	movq	%rax, -152(%rbp)
	leaq	-200(%rbp), %rdi
	leaq	-168(%rbp), %rsi
Ltmp1132:
	callq	__ZN5alloc11collections5btree4node145Handle$LT$alloc..collections..btree..node..NodeRef$LT$BorrowType$C$K$C$V$C$alloc..collections..btree..node..marker..LeafOrInternal$GT$$C$Type$GT$5force17h83ba37c1f3084612E
	.loc	50 700 9 is_stmt 0
	cmpq	$0, -200(%rbp)
	jne	LBB169_2
Ltmp1133:
	.loc	50 0 9
	movq	-216(%rbp), %rdi
	.loc	50 701 18 is_stmt 1
	movq	-192(%rbp), %rax
	movq	%rax, -144(%rbp)
	movq	-184(%rbp), %rax
	movq	%rax, -136(%rbp)
	movq	-176(%rbp), %rax
	movq	%rax, -128(%rbp)
Ltmp1134:
	.loc	50 701 30 is_stmt 0
	movq	-144(%rbp), %rax
	movq	%rax, -120(%rbp)
	movq	-136(%rbp), %rax
	movq	%rax, -112(%rbp)
	movq	-128(%rbp), %rax
	movq	%rax, -104(%rbp)
	leaq	-120(%rbp), %rsi
	callq	__ZN5alloc11collections5btree4node137Handle$LT$alloc..collections..btree..node..NodeRef$LT$BorrowType$C$K$C$V$C$NodeType$GT$$C$alloc..collections..btree..node..marker..KV$GT$10right_edge17hcdd3b4bf2ba13241E
Ltmp1135:
	.loc	50 701 49
	jmp	LBB169_3
Ltmp1136:
LBB169_2:
	.loc	50 702 22 is_stmt 1
	movq	-192(%rbp), %rax
	movq	%rax, -96(%rbp)
	movq	-184(%rbp), %rax
	movq	%rax, -88(%rbp)
	movq	-176(%rbp), %rax
	movq	%rax, -80(%rbp)
Ltmp1137:
	.loc	50 703 42
	movq	-96(%rbp), %rax
	movq	%rax, -48(%rbp)
	movq	-88(%rbp), %rax
	movq	%rax, -40(%rbp)
	movq	-80(%rbp), %rax
	movq	%rax, -32(%rbp)
	leaq	-72(%rbp), %rdi
	leaq	-48(%rbp), %rsi
	callq	__ZN5alloc11collections5btree4node137Handle$LT$alloc..collections..btree..node..NodeRef$LT$BorrowType$C$K$C$V$C$NodeType$GT$$C$alloc..collections..btree..node..marker..KV$GT$10right_edge17hb748dd21ef3b6694E
Ltmp1138:
	.loc	50 704 17
	movq	-72(%rbp), %rax
	movq	%rax, -24(%rbp)
	movq	-64(%rbp), %rax
	movq	%rax, -16(%rbp)
	movq	-56(%rbp), %rax
	movq	%rax, -8(%rbp)
	leaq	-24(%rbp), %rdi
	callq	__ZN5alloc11collections5btree4node180Handle$LT$alloc..collections..btree..node..NodeRef$LT$BorrowType$C$K$C$V$C$alloc..collections..btree..node..marker..Internal$GT$$C$alloc..collections..btree..node..marker..Edge$GT$7descend17h0a21805776622783E
	movq	-216(%rbp), %rdi
	movq	%rax, %rsi
	callq	__ZN5alloc11collections5btree8navigate142_$LT$impl$u20$alloc..collections..btree..node..NodeRef$LT$BorrowType$C$K$C$V$C$alloc..collections..btree..node..marker..LeafOrInternal$GT$$GT$15first_leaf_edge17h763c915631bdafa5E
Ltmp1139:
LBB169_3:
	.loc	50 0 17 is_stmt 0
	movq	-208(%rbp), %rax
	.loc	50 707 6 is_stmt 1
	addq	$224, %rsp
	popq	%rbp
	retq
Ltmp1140:
Lfunc_end169:
	.cfi_endproc

	.p2align	4, 0x90
__ZN5alloc11collections5btree8navigate263_$LT$impl$u20$alloc..collections..btree..node..Handle$LT$alloc..collections..btree..node..NodeRef$LT$alloc..collections..btree..node..marker..Dying$C$K$C$V$C$alloc..collections..btree..node..marker..Leaf$GT$$C$alloc..collections..btree..node..marker..Edge$GT$$GT$16deallocating_end17h44d1baa731a735f9E:
Lfunc_begin170:
	.loc	50 504 0
	.cfi_startproc
	.cfi_personality 155, _rust_eh_personality
	.cfi_lsda 16, Lexception33
	pushq	%rbp
	.cfi_def_cfa_offset 16
	.cfi_offset %rbp, -16
	movq	%rsp, %rbp
	.cfi_def_cfa_register %rbp
	subq	$224, %rsp
Ltmp1152:
	.loc	50 505 24 prologue_end
	movq	16(%rdi), %rax
	movq	%rax, -144(%rbp)
	movq	(%rdi), %rax
	movq	8(%rdi), %rcx
	movq	%rcx, -152(%rbp)
	movq	%rax, -160(%rbp)
Ltmp1141:
	leaq	-184(%rbp), %rdi
Ltmp1153:
	.loc	50 0 24 is_stmt 0
	leaq	-160(%rbp), %rsi
	.loc	50 505 24
	callq	__ZN5alloc11collections5btree4node176Handle$LT$alloc..collections..btree..node..NodeRef$LT$BorrowType$C$K$C$V$C$alloc..collections..btree..node..marker..Leaf$GT$$C$alloc..collections..btree..node..marker..Edge$GT$16forget_node_type17h0a70a535a7e744f1E
Ltmp1142:
	jmp	LBB170_3
Ltmp1154:
LBB170_1:
	.loc	50 504 5 is_stmt 1
	movq	-16(%rbp), %rdi
	callq	__Unwind_Resume
Ltmp1155:
LBB170_2:
Ltmp1151:
	.loc	50 0 5 is_stmt 0
	movq	%rax, %rcx
	movl	%edx, %eax
	movq	%rcx, -16(%rbp)
	movl	%eax, -8(%rbp)
	jmp	LBB170_1
Ltmp1156:
LBB170_3:
	.loc	50 506 9 is_stmt 1
	jmp	LBB170_4
Ltmp1157:
LBB170_4:
	.loc	50 507 22
	movq	-168(%rbp), %rax
	movq	%rax, -96(%rbp)
	movq	-184(%rbp), %rax
	movq	-176(%rbp), %rcx
	movq	%rcx, -104(%rbp)
	movq	%rax, -112(%rbp)
Ltmp1143:
	leaq	-112(%rbp), %rdi
	callq	__ZN5alloc11collections5btree4node25Handle$LT$Node$C$Type$GT$9into_node17h1a747ed65c77bc62E
Ltmp1144:
	movq	%rdx, -208(%rbp)
	movq	%rax, -200(%rbp)
	jmp	LBB170_5
Ltmp1158:
LBB170_5:
	.loc	50 0 22 is_stmt 0
	movq	-208(%rbp), %rax
	movq	-200(%rbp), %rcx
	movq	%rcx, -224(%rbp)
	movq	%rax, -216(%rbp)
Ltmp1145:
	leaq	-192(%rbp), %rdi
	.loc	50 507 61
	callq	__ZN59_$LT$alloc..alloc..Global$u20$as$u20$core..clone..Clone$GT$5clone17hcfe7c0e8e975a5f7E
Ltmp1146:
	jmp	LBB170_6
Ltmp1159:
LBB170_6:
Ltmp1147:
	.loc	50 0 61
	movq	-216(%rbp), %rdx
	movq	-224(%rbp), %rsi
	leaq	-136(%rbp), %rdi
	.loc	50 507 22
	callq	__ZN5alloc11collections5btree4node127NodeRef$LT$alloc..collections..btree..node..marker..Dying$C$K$C$V$C$alloc..collections..btree..node..marker..LeafOrInternal$GT$21deallocate_and_ascend17h5f9bdfb21947eb0dE
Ltmp1148:
	jmp	LBB170_7
Ltmp1160:
LBB170_7:
	.loc	50 506 19 is_stmt 1
	movq	-128(%rbp), %rdx
	movl	$1, %eax
	xorl	%ecx, %ecx
	cmpq	$0, %rdx
	cmoveq	%rcx, %rax
	cmpq	$1, %rax
	jne	LBB170_9
Ltmp1161:
	.loc	50 506 24 is_stmt 0
	movq	-120(%rbp), %rax
	movq	%rax, -72(%rbp)
	movq	-136(%rbp), %rax
	movq	-128(%rbp), %rcx
	movq	%rcx, -80(%rbp)
	movq	%rax, -88(%rbp)
	.loc	50 509 20 is_stmt 1
	movq	-72(%rbp), %rax
	movq	%rax, -24(%rbp)
	movq	-88(%rbp), %rax
	movq	-80(%rbp), %rcx
	movq	%rcx, -32(%rbp)
	movq	%rax, -40(%rbp)
Ltmp1149:
	leaq	-64(%rbp), %rdi
	leaq	-40(%rbp), %rsi
	callq	__ZN5alloc11collections5btree4node180Handle$LT$alloc..collections..btree..node..NodeRef$LT$BorrowType$C$K$C$V$C$alloc..collections..btree..node..marker..Internal$GT$$C$alloc..collections..btree..node..marker..Edge$GT$16forget_node_type17hbea5b39974b9dfa4E
Ltmp1150:
	jmp	LBB170_10
Ltmp1162:
LBB170_9:
	.loc	50 511 6
	addq	$224, %rsp
	popq	%rbp
	retq
Ltmp1163:
LBB170_10:
	.loc	50 509 13
	movq	-64(%rbp), %rax
	movq	%rax, -184(%rbp)
	movq	-56(%rbp), %rax
	movq	%rax, -176(%rbp)
	movq	-48(%rbp), %rax
	movq	%rax, -168(%rbp)
Ltmp1164:
	.loc	50 506 9
	jmp	LBB170_4
Ltmp1165:
Lfunc_end170:
	.cfi_endproc
	.section	__TEXT,__gcc_except_tab
	.p2align	2
GCC_except_table170:
Lexception33:
	.byte	255
	.byte	255
	.byte	1
	.uleb128 Lcst_end33-Lcst_begin33
Lcst_begin33:
	.uleb128 Ltmp1141-Lfunc_begin170
	.uleb128 Ltmp1142-Ltmp1141
	.uleb128 Ltmp1151-Lfunc_begin170
	.byte	0
	.uleb128 Ltmp1142-Lfunc_begin170
	.uleb128 Ltmp1143-Ltmp1142
	.byte	0
	.byte	0
	.uleb128 Ltmp1143-Lfunc_begin170
	.uleb128 Ltmp1150-Ltmp1143
	.uleb128 Ltmp1151-Lfunc_begin170
	.byte	0
Lcst_end33:
	.p2align	2

	.section	__TEXT,__text,regular,pure_instructions
	.p2align	4, 0x90
__ZN5alloc11collections5btree8navigate263_$LT$impl$u20$alloc..collections..btree..node..Handle$LT$alloc..collections..btree..node..NodeRef$LT$alloc..collections..btree..node..marker..Dying$C$K$C$V$C$alloc..collections..btree..node..marker..Leaf$GT$$C$alloc..collections..btree..node..marker..Edge$GT$$GT$17deallocating_next17h66ebe2c5a01240bdE:
Lfunc_begin171:
	.loc	50 447 0
	.cfi_startproc
	.cfi_personality 155, _rust_eh_personality
	.cfi_lsda 16, Lexception34
	pushq	%rbp
	.cfi_def_cfa_offset 16
	.cfi_offset %rbp, -16
	movq	%rsp, %rbp
	.cfi_def_cfa_register %rbp
	subq	$560, %rsp
	movq	%rdi, -520(%rbp)
	movq	%rdi, -512(%rbp)
Ltmp1181:
	.loc	50 452 24 prologue_end
	movq	16(%rsi), %rax
	movq	%rax, -456(%rbp)
	movq	(%rsi), %rax
	movq	8(%rsi), %rcx
	movq	%rcx, -464(%rbp)
	movq	%rax, -472(%rbp)
Ltmp1166:
	leaq	-496(%rbp), %rdi
	leaq	-472(%rbp), %rsi
Ltmp1182:
	callq	__ZN5alloc11collections5btree4node176Handle$LT$alloc..collections..btree..node..NodeRef$LT$BorrowType$C$K$C$V$C$alloc..collections..btree..node..marker..Leaf$GT$$C$alloc..collections..btree..node..marker..Edge$GT$16forget_node_type17h0a70a535a7e744f1E
Ltmp1167:
	jmp	LBB171_3
Ltmp1183:
LBB171_1:
	.loc	50 447 5
	movq	-32(%rbp), %rdi
	callq	__Unwind_Resume
Ltmp1184:
LBB171_2:
Ltmp1180:
	.loc	50 0 5 is_stmt 0
	movq	%rax, %rcx
	movl	%edx, %eax
	movq	%rcx, -32(%rbp)
	movl	%eax, -24(%rbp)
	jmp	LBB171_1
Ltmp1185:
LBB171_3:
	.loc	50 453 9 is_stmt 1
	jmp	LBB171_4
Ltmp1186:
LBB171_4:
	.loc	50 454 26
	movq	-480(%rbp), %rax
	movq	%rax, -376(%rbp)
	movq	-496(%rbp), %rax
	movq	-488(%rbp), %rcx
	movq	%rcx, -384(%rbp)
	movq	%rax, -392(%rbp)
Ltmp1168:
	leaq	-424(%rbp), %rdi
	leaq	-392(%rbp), %rsi
	callq	__ZN5alloc11collections5btree4node139Handle$LT$alloc..collections..btree..node..NodeRef$LT$BorrowType$C$K$C$V$C$NodeType$GT$$C$alloc..collections..btree..node..marker..Edge$GT$8right_kv17h30daa9b020e75df7E
Ltmp1169:
	jmp	LBB171_5
Ltmp1187:
LBB171_5:
	.loc	50 454 20 is_stmt 0
	cmpq	$0, -424(%rbp)
	jne	LBB171_7
Ltmp1188:
	.loc	50 455 20 is_stmt 1
	movq	-416(%rbp), %rax
	movq	%rax, -368(%rbp)
	movq	-408(%rbp), %rax
	movq	%rax, -360(%rbp)
	movq	-400(%rbp), %rax
	movq	%rax, -352(%rbp)
Ltmp1189:
	.loc	50 455 59 is_stmt 0
	leaq	-368(%rbp), %rax
	movq	%rax, -16(%rbp)
Ltmp1190:
	.loc	3 1157 34 is_stmt 1
	leaq	-104(%rbp), %rax
	movq	%rax, -8(%rbp)
	.loc	3 1157 9 is_stmt 0
	movq	-368(%rbp), %rax
	movq	%rax, -104(%rbp)
	movq	-360(%rbp), %rax
	movq	%rax, -96(%rbp)
	movq	-352(%rbp), %rax
	movq	%rax, -88(%rbp)
	.loc	3 1158 9 is_stmt 1
	movq	-104(%rbp), %rax
	movq	%rax, -80(%rbp)
	movq	-96(%rbp), %rax
	movq	%rax, -72(%rbp)
	movq	-88(%rbp), %rax
	movq	%rax, -64(%rbp)
Ltmp1191:
	.loc	32 626 13
	jmp	LBB171_15
Ltmp1192:
LBB171_7:
	.loc	50 456 21
	movq	-400(%rbp), %rax
	movq	%rax, -208(%rbp)
	movq	-416(%rbp), %rax
	movq	-408(%rbp), %rcx
	movq	%rcx, -216(%rbp)
	movq	%rax, -224(%rbp)
Ltmp1193:
	.loc	50 457 36
	movq	-208(%rbp), %rax
	movq	%rax, -160(%rbp)
	movq	-224(%rbp), %rax
	movq	-216(%rbp), %rcx
	movq	%rcx, -168(%rbp)
	movq	%rax, -176(%rbp)
Ltmp1170:
	leaq	-176(%rbp), %rdi
	callq	__ZN5alloc11collections5btree4node25Handle$LT$Node$C$Type$GT$9into_node17h1a747ed65c77bc62E
Ltmp1171:
	movq	%rdx, -536(%rbp)
	movq	%rax, -528(%rbp)
	jmp	LBB171_8
Ltmp1194:
LBB171_8:
	.loc	50 0 36 is_stmt 0
	movq	-536(%rbp), %rax
	movq	-528(%rbp), %rcx
	movq	%rcx, -552(%rbp)
	movq	%rax, -544(%rbp)
Ltmp1172:
	leaq	-504(%rbp), %rdi
	.loc	50 457 80
	callq	__ZN59_$LT$alloc..alloc..Global$u20$as$u20$core..clone..Clone$GT$5clone17hcfe7c0e8e975a5f7E
Ltmp1173:
	jmp	LBB171_9
Ltmp1195:
LBB171_9:
Ltmp1174:
	.loc	50 0 80
	movq	-544(%rbp), %rdx
	movq	-552(%rbp), %rsi
	leaq	-200(%rbp), %rdi
	.loc	50 457 36
	callq	__ZN5alloc11collections5btree4node127NodeRef$LT$alloc..collections..btree..node..marker..Dying$C$K$C$V$C$alloc..collections..btree..node..marker..LeafOrInternal$GT$21deallocate_and_ascend17h5f9bdfb21947eb0dE
Ltmp1175:
	jmp	LBB171_10
Ltmp1196:
LBB171_10:
	.loc	50 457 27
	movq	-192(%rbp), %rdx
	movl	$1, %eax
	xorl	%ecx, %ecx
	cmpq	$0, %rdx
	cmoveq	%rcx, %rax
	.loc	50 457 21
	cmpq	$0, %rax
	jne	LBB171_12
Ltmp1197:
	.loc	50 0 21
	movq	-520(%rbp), %rax
	.loc	50 459 40 is_stmt 1
	movq	$0, 8(%rax)
Ltmp1198:
	.loc	16 1 1
	jmp	LBB171_14
Ltmp1199:
LBB171_12:
	.loc	50 458 30
	movq	-184(%rbp), %rax
	movq	%rax, -136(%rbp)
	movq	-200(%rbp), %rax
	movq	-192(%rbp), %rcx
	movq	%rcx, -144(%rbp)
	movq	%rax, -152(%rbp)
Ltmp1200:
	.loc	50 458 46 is_stmt 0
	movq	-136(%rbp), %rax
	movq	%rax, -112(%rbp)
	movq	-152(%rbp), %rax
	movq	-144(%rbp), %rcx
	movq	%rcx, -120(%rbp)
	movq	%rax, -128(%rbp)
Ltmp1176:
	leaq	-448(%rbp), %rdi
	leaq	-128(%rbp), %rsi
	callq	__ZN5alloc11collections5btree4node180Handle$LT$alloc..collections..btree..node..NodeRef$LT$BorrowType$C$K$C$V$C$alloc..collections..btree..node..marker..Internal$GT$$C$alloc..collections..btree..node..marker..Edge$GT$16forget_node_type17hbea5b39974b9dfa4E
Ltmp1177:
	jmp	LBB171_13
Ltmp1201:
LBB171_13:
	.loc	50 454 13 is_stmt 1
	movq	-448(%rbp), %rax
	movq	%rax, -496(%rbp)
	movq	-440(%rbp), %rax
	movq	%rax, -488(%rbp)
	movq	-432(%rbp), %rax
	movq	%rax, -480(%rbp)
	.loc	50 453 9
	jmp	LBB171_4
Ltmp1202:
LBB171_14:
	.loc	50 0 9 is_stmt 0
	movq	-512(%rbp), %rax
	.loc	50 464 6 is_stmt 1
	addq	$560, %rsp
	popq	%rbp
	retq
Ltmp1203:
LBB171_15:
	.loc	32 627 38
	movq	-64(%rbp), %rax
	movq	%rax, -40(%rbp)
	movq	-80(%rbp), %rax
	movq	-72(%rbp), %rcx
	movq	%rcx, -48(%rbp)
	movq	%rax, -56(%rbp)
Ltmp1204:
	.loc	6 89 9
	movq	-40(%rbp), %rax
	movq	%rax, -256(%rbp)
	movq	-56(%rbp), %rax
	movq	-48(%rbp), %rcx
	movq	%rcx, -264(%rbp)
	movq	%rax, -272(%rbp)
Ltmp1178:
	leaq	-296(%rbp), %rdi
	leaq	-272(%rbp), %rsi
Ltmp1205:
	.loc	50 455 40
	callq	__ZN5alloc11collections5btree8navigate235_$LT$impl$u20$alloc..collections..btree..node..Handle$LT$alloc..collections..btree..node..NodeRef$LT$BorrowType$C$K$C$V$C$alloc..collections..btree..node..marker..LeafOrInternal$GT$$C$alloc..collections..btree..node..marker..KV$GT$$GT$14next_leaf_edge17hd73d3bf0183fb3f1E
Ltmp1179:
	jmp	LBB171_16
Ltmp1206:
LBB171_16:
	.loc	50 0 40 is_stmt 0
	movq	-520(%rbp), %rdi
	.loc	50 455 84
	movq	-368(%rbp), %rax
	movq	%rax, -248(%rbp)
	movq	-360(%rbp), %rax
	movq	%rax, -240(%rbp)
	movq	-352(%rbp), %rax
	movq	%rax, -232(%rbp)
	.loc	50 455 39
	movq	-296(%rbp), %rax
	movq	%rax, -344(%rbp)
	movq	-288(%rbp), %rax
	movq	%rax, -336(%rbp)
	movq	-280(%rbp), %rax
	movq	%rax, -328(%rbp)
	movq	-248(%rbp), %rax
	movq	%rax, -320(%rbp)
	movq	-240(%rbp), %rax
	movq	%rax, -312(%rbp)
	movq	-232(%rbp), %rax
	movq	%rax, -304(%rbp)
	.loc	50 455 34
	leaq	-344(%rbp), %rsi
	movl	$48, %edx
	callq	_memcpy
Ltmp1207:
	.loc	16 1 1 is_stmt 1
	jmp	LBB171_14
Ltmp1208:
Lfunc_end171:
	.cfi_endproc
	.section	__TEXT,__gcc_except_tab
	.p2align	2
GCC_except_table171:
Lexception34:
	.byte	255
	.byte	255
	.byte	1
	.uleb128 Lcst_end34-Lcst_begin34
Lcst_begin34:
	.uleb128 Ltmp1166-Lfunc_begin171
	.uleb128 Ltmp1167-Ltmp1166
	.uleb128 Ltmp1180-Lfunc_begin171
	.byte	0
	.uleb128 Ltmp1167-Lfunc_begin171
	.uleb128 Ltmp1168-Ltmp1167
	.byte	0
	.byte	0
	.uleb128 Ltmp1168-Lfunc_begin171
	.uleb128 Ltmp1179-Ltmp1168
	.uleb128 Ltmp1180-Lfunc_begin171
	.byte	0
	.uleb128 Ltmp1179-Lfunc_begin171
	.uleb128 Lfunc_end171-Ltmp1179
	.byte	0
	.byte	0
Lcst_end34:
	.p2align	2

	.section	__TEXT,__text,regular,pure_instructions
	.p2align	4, 0x90
__ZN5alloc11collections5btree8navigate263_$LT$impl$u20$alloc..collections..btree..node..Handle$LT$alloc..collections..btree..node..NodeRef$LT$alloc..collections..btree..node..marker..Dying$C$K$C$V$C$alloc..collections..btree..node..marker..Leaf$GT$$C$alloc..collections..btree..node..marker..Edge$GT$$GT$27deallocating_next_unchecked17h6a5546901b838bc1E:
Lfunc_begin172:
	.loc	50 583 0
	.cfi_startproc
	pushq	%rbp
	.cfi_def_cfa_offset 16
	.cfi_offset %rbp, -16
	movq	%rsp, %rbp
	.cfi_def_cfa_register %rbp
	subq	$32, %rsp
	movq	%rdi, %rax
	movq	%rax, -32(%rbp)
	movq	%rsi, -16(%rbp)
Ltmp1209:
	.loc	50 587 9 prologue_end
	callq	__ZN5alloc11collections5btree3mem7replace17h72f3ee986010f472E
	movq	-32(%rbp), %rax
	.loc	50 590 6
	addq	$32, %rsp
	popq	%rbp
	retq
Ltmp1210:
Lfunc_end172:
	.cfi_endproc

	.p2align	4, 0x90
__ZN5alloc11collections5btree8navigate263_$LT$impl$u20$alloc..collections..btree..node..Handle$LT$alloc..collections..btree..node..NodeRef$LT$alloc..collections..btree..node..marker..Dying$C$K$C$V$C$alloc..collections..btree..node..marker..Leaf$GT$$C$alloc..collections..btree..node..marker..Edge$GT$$GT$27deallocating_next_unchecked28_$u7b$$u7b$closure$u7d$$u7d$17h9f0afc4f415e0b7eE:
Lfunc_begin173:
	.loc	50 587 0
	.cfi_startproc
	pushq	%rbp
	.cfi_def_cfa_offset 16
	.cfi_offset %rbp, -16
	movq	%rsp, %rbp
	.cfi_def_cfa_register %rbp
	subq	$96, %rsp
	movq	%rdi, -96(%rbp)
	movq	%rdi, -88(%rbp)
Ltmp1211:
	.loc	50 588 13 prologue_end
	movq	(%rsi), %rax
	movq	%rax, -32(%rbp)
	movq	8(%rsi), %rax
	movq	%rax, -24(%rbp)
	movq	16(%rsi), %rax
	movq	%rax, -16(%rbp)
	leaq	-80(%rbp), %rdi
	leaq	-32(%rbp), %rsi
Ltmp1212:
	callq	__ZN5alloc11collections5btree8navigate263_$LT$impl$u20$alloc..collections..btree..node..Handle$LT$alloc..collections..btree..node..NodeRef$LT$alloc..collections..btree..node..marker..Dying$C$K$C$V$C$alloc..collections..btree..node..marker..Leaf$GT$$C$alloc..collections..btree..node..marker..Edge$GT$$GT$17deallocating_next17h66ebe2c5a01240bdE
Ltmp1213:
	.loc	7 821 15
	movq	-72(%rbp), %rdx
	movl	$1, %eax
	xorl	%ecx, %ecx
	cmpq	$0, %rdx
	cmoveq	%rcx, %rax
	.loc	7 821 9 is_stmt 0
	cmpq	$0, %rax
	jne	LBB173_2
Ltmp1214:
	.loc	7 823 21 is_stmt 1
	leaq	l___unnamed_11(%rip), %rdi
	leaq	l___unnamed_12(%rip), %rdx
	movl	$43, %esi
	callq	__ZN4core9panicking5panic17hc1bc45270cf64b03E
Ltmp1215:
LBB173_2:
	.loc	7 0 21 is_stmt 0
	movq	-96(%rbp), %rdi
	.loc	7 822 18 is_stmt 1
	leaq	-80(%rbp), %rsi
	movl	$48, %edx
	callq	_memcpy
	movq	-88(%rbp), %rax
Ltmp1216:
	.loc	50 589 10
	addq	$96, %rsp
	popq	%rbp
	retq
Ltmp1217:
Lfunc_end173:
	.cfi_endproc

	.p2align	4, 0x90
__ZN5alloc11collections5btree8navigate39LazyLeafRange$LT$BorrowType$C$K$C$V$GT$10init_front17hbc850952b10c48b0E:
Lfunc_begin174:
	.loc	50 209 0
	.cfi_startproc
	pushq	%rbp
	.cfi_def_cfa_offset 16
	.cfi_offset %rbp, -16
	movq	%rsp, %rbp
	.cfi_def_cfa_register %rbp
	subq	$192, %rsp
	movq	%rdi, -192(%rbp)
	movq	%rdi, -72(%rbp)
Ltmp1218:
	.loc	50 212 16 prologue_end
	movl	$1, %eax
	xorl	%ecx, %ecx
	cmpq	$2, (%rdi)
	cmoveq	%rcx, %rax
	cmpq	$1, %rax
	jne	LBB174_2
	.loc	50 0 16 is_stmt 0
	movq	-192(%rbp), %rax
	.loc	50 212 16
	cmpq	$0, (%rax)
	je	LBB174_3
Ltmp1219:
LBB174_2:
	.loc	50 0 16
	movq	-192(%rbp), %rdx
	.loc	50 215 15 is_stmt 1
	movl	$1, %eax
	xorl	%ecx, %ecx
	cmpq	$2, (%rdx)
	cmoveq	%rcx, %rax
	.loc	50 215 9 is_stmt 0
	cmpq	$0, %rax
	je	LBB174_4
	jmp	LBB174_5
LBB174_3:
	.loc	50 0 9
	movq	-192(%rbp), %rax
Ltmp1220:
	.loc	50 212 42 is_stmt 1
	movq	%rax, %rcx
	addq	$8, %rcx
	movq	%rcx, -64(%rbp)
	.loc	50 213 71
	movq	%rcx, -56(%rbp)
Ltmp1221:
	.loc	3 1157 34
	leaq	-88(%rbp), %rcx
	movq	%rcx, -48(%rbp)
	.loc	3 1157 9 is_stmt 0
	movq	8(%rax), %rcx
	movq	%rcx, -88(%rbp)
	movq	16(%rax), %rax
	movq	%rax, -80(%rbp)
	.loc	3 1158 9 is_stmt 1
	movq	-88(%rbp), %rsi
	movq	-80(%rbp), %rdx
	movq	%rsi, -40(%rbp)
	movq	%rdx, -32(%rbp)
Ltmp1222:
	.loc	32 627 38
	movq	%rsi, -24(%rbp)
	movq	%rdx, -16(%rbp)
Ltmp1223:
	.loc	50 213 52
	leaq	-112(%rbp), %rdi
	callq	__ZN5alloc11collections5btree8navigate142_$LT$impl$u20$alloc..collections..btree..node..NodeRef$LT$BorrowType$C$K$C$V$C$alloc..collections..btree..node..marker..LeafOrInternal$GT$$GT$15first_leaf_edge17h763c915631bdafa5E
	movq	-192(%rbp), %rax
	.loc	50 213 31 is_stmt 0
	movq	-112(%rbp), %rcx
	movq	%rcx, -136(%rbp)
	movq	-104(%rbp), %rcx
	movq	%rcx, -128(%rbp)
	movq	-96(%rbp), %rcx
	movq	%rcx, -120(%rbp)
	movq	$1, -144(%rbp)
	.loc	50 213 26
	movq	-144(%rbp), %rcx
	movq	%rcx, -176(%rbp)
	movq	-136(%rbp), %rcx
	movq	%rcx, -168(%rbp)
	movq	-128(%rbp), %rcx
	movq	%rcx, -160(%rbp)
	movq	-120(%rbp), %rcx
	movq	%rcx, -152(%rbp)
	.loc	50 213 13
	movq	-176(%rbp), %rcx
	movq	%rcx, (%rax)
	movq	-168(%rbp), %rcx
	movq	%rcx, 8(%rax)
	movq	-160(%rbp), %rcx
	movq	%rcx, 16(%rax)
	movq	-152(%rbp), %rcx
	movq	%rcx, 24(%rax)
Ltmp1224:
	.loc	50 212 9 is_stmt 1
	jmp	LBB174_2
LBB174_4:
	.loc	50 216 21
	movq	$0, -184(%rbp)
	jmp	LBB174_8
LBB174_5:
	.loc	50 0 21 is_stmt 0
	movq	-192(%rbp), %rax
	.loc	50 215 9 is_stmt 1
	cmpq	$0, (%rax)
	jne	LBB174_7
	.loc	50 219 55
	callq	__ZN4core4hint21unreachable_unchecked17h2512972abae891aeE
LBB174_7:
	.loc	50 0 55 is_stmt 0
	movq	-192(%rbp), %rax
	.loc	50 217 39 is_stmt 1
	addq	$8, %rax
	movq	%rax, -8(%rbp)
Ltmp1225:
	.loc	50 217 49 is_stmt 0
	movq	%rax, -184(%rbp)
Ltmp1226:
LBB174_8:
	.loc	50 221 6 is_stmt 1
	movq	-184(%rbp), %rax
	addq	$192, %rsp
	popq	%rbp
	retq
Ltmp1227:
Lfunc_end174:
	.cfi_endproc

	.p2align	4, 0x90
__ZN5alloc11collections5btree8navigate39LazyLeafRange$LT$BorrowType$C$K$C$V$GT$4none17hc28eabb991c8ad1eE:
Lfunc_begin175:
	.loc	50 133 0
	.cfi_startproc
	pushq	%rbp
	.cfi_def_cfa_offset 16
	.cfi_offset %rbp, -16
	movq	%rsp, %rbp
	.cfi_def_cfa_register %rbp
	subq	$64, %rsp
	movq	%rdi, %rax
Ltmp1228:
	.loc	50 134 32 prologue_end
	movq	$2, -64(%rbp)
	.loc	50 134 44 is_stmt 0
	movq	$2, -32(%rbp)
	.loc	50 134 9
	movq	-64(%rbp), %rcx
	movq	%rcx, (%rdi)
	movq	-56(%rbp), %rcx
	movq	%rcx, 8(%rdi)
	movq	-48(%rbp), %rcx
	movq	%rcx, 16(%rdi)
	movq	-40(%rbp), %rcx
	movq	%rcx, 24(%rdi)
	movq	-32(%rbp), %rcx
	movq	%rcx, 32(%rdi)
	movq	-24(%rbp), %rcx
	movq	%rcx, 40(%rdi)
	movq	-16(%rbp), %rcx
	movq	%rcx, 48(%rdi)
	movq	-8(%rbp), %rcx
	movq	%rcx, 56(%rdi)
	.loc	50 135 6 is_stmt 1
	addq	$64, %rsp
	popq	%rbp
	retq
Ltmp1229:
Lfunc_end175:
	.cfi_endproc

	.p2align	4, 0x90
__ZN5alloc11collections5btree8navigate75LazyLeafRange$LT$alloc..collections..btree..node..marker..Dying$C$K$C$V$GT$10take_front17hfbe0c1756b42d62bE:
Lfunc_begin176:
	.loc	50 171 0
	.cfi_startproc
	pushq	%rbp
	.cfi_def_cfa_offset 16
	.cfi_offset %rbp, -16
	movq	%rsp, %rbp
	.cfi_def_cfa_register %rbp
	subq	$368, %rsp
	movq	%rdi, -360(%rbp)
	movq	%rdi, -352(%rbp)
	movq	%rsi, -48(%rbp)
Ltmp1230:
	.loc	50 174 15 prologue_end
	movq	%rsi, -24(%rbp)
Ltmp1231:
	.loc	7 1623 28
	movq	$2, -144(%rbp)
	.loc	7 1623 9 is_stmt 0
	leaq	-280(%rbp), %rdi
	leaq	-144(%rbp), %rdx
	callq	__ZN4core3mem7replace17h9b628d6f25a5d21aE
Ltmp1232:
	.loc	7 2407 15 is_stmt 1
	movl	$1, %eax
	xorl	%ecx, %ecx
	cmpq	$2, -280(%rbp)
	cmoveq	%rcx, %rax
	.loc	7 2407 9 is_stmt 0
	cmpq	$0, %rax
	jne	LBB176_2
