	.section	__TEXT,__text,regular,pure_instructions
	.macosx_version_min 10, 7
	.p2align	4, 0x90
__ZN106_$LT$core..ops..range..Range$LT$usize$GT$$u20$as$u20$core..slice..index..SliceIndex$LT$$u5b$T$u5d$$GT$$GT$13get_unchecked17haf952281b87f041dE:
Lfunc_begin0:
	.file	1 "/rustc/2c8cc343237b8f7d5a3c3703e3a87f2eb2c54a74/library/core/src/slice" "index.rs"
	.loc	1 373 0
	.cfi_startproc
	pushq	%rbp
	.cfi_def_cfa_offset 16
	.cfi_offset %rbp, -16
	movq	%rsp, %rbp
	.cfi_def_cfa_register %rbp
	subq	$160, %rsp
	movq	%rdi, -128(%rbp)
	movq	%rsi, -120(%rbp)
	movq	%rdx, -112(%rbp)
	movq	%rcx, -104(%rbp)
Ltmp0:
	.loc	1 386 39 prologue_end
	movq	%rdx, -96(%rbp)
	movq	%rcx, -88(%rbp)
Ltmp1:
	.file	2 "/rustc/2c8cc343237b8f7d5a3c3703e3a87f2eb2c54a74/library/core/src/ptr" "const_ptr.rs"
	.loc	2 1650 9
	movq	%rdx, -80(%rbp)
Ltmp2:
	.loc	1 386 58
	movq	%rdi, -72(%rbp)
Ltmp3:
	.loc	2 932 18
	movq	%rdx, -64(%rbp)
	.loc	2 932 30 is_stmt 0
	movq	%rdi, -56(%rbp)
Ltmp4:
	.loc	2 473 18 is_stmt 1
	addq	%rdi, %rdx
	movq	%rdx, -48(%rbp)
	movq	-48(%rbp), %rax
	movq	%rax, -40(%rbp)
Ltmp5:
	.loc	1 386 71
	subq	%rdi, %rsi
	movq	%rsi, -32(%rbp)
Ltmp6:
	.file	3 "/rustc/2c8cc343237b8f7d5a3c3703e3a87f2eb2c54a74/library/core/src/ptr" "mod.rs"
	.loc	3 734 20
	movq	%rax, -24(%rbp)
Ltmp7:
	.loc	2 61 9
	movq	%rax, -16(%rbp)
Ltmp8:
	.loc	3 734 33
	movq	%rsi, -8(%rbp)
Ltmp9:
	.file	4 "/rustc/2c8cc343237b8f7d5a3c3703e3a87f2eb2c54a74/library/core/src/ptr" "metadata.rs"
	.loc	4 118 36
	movq	%rax, -144(%rbp)
	movq	%rsi, -136(%rbp)
	.loc	4 118 14 is_stmt 0
	movq	-144(%rbp), %rcx
	movq	-136(%rbp), %rax
	movq	%rcx, -160(%rbp)
	movq	%rax, -152(%rbp)
	movq	-160(%rbp), %rax
	movq	-152(%rbp), %rdx
Ltmp10:
	.loc	1 388 6 is_stmt 1
	addq	$160, %rsp
	popq	%rbp
	retq
Ltmp11:
Lfunc_end0:
	.cfi_endproc

	.p2align	4, 0x90
__ZN106_$LT$core..ops..range..Range$LT$usize$GT$$u20$as$u20$core..slice..index..SliceIndex$LT$$u5b$T$u5d$$GT$$GT$17get_unchecked_mut17h9f33c5b41ab3aab3E:
Lfunc_begin1:
	.loc	1 391 0
	.cfi_startproc
	pushq	%rbp
	.cfi_def_cfa_offset 16
	.cfi_offset %rbp, -16
	movq	%rsp, %rbp
	.cfi_def_cfa_register %rbp
	subq	$160, %rsp
	movq	%rdi, -128(%rbp)
	movq	%rsi, -120(%rbp)
	movq	%rdx, -112(%rbp)
	movq	%rcx, -104(%rbp)
Ltmp12:
	.loc	1 400 43 prologue_end
	movq	%rdx, -96(%rbp)
	movq	%rcx, -88(%rbp)
Ltmp13:
	.file	5 "/rustc/2c8cc343237b8f7d5a3c3703e3a87f2eb2c54a74/library/core/src/ptr" "mut_ptr.rs"
	.loc	5 2037 9
	movq	%rdx, -80(%rbp)
Ltmp14:
	.loc	1 400 66
	movq	%rdi, -72(%rbp)
Ltmp15:
	.loc	5 1034 18
	movq	%rdx, -64(%rbp)
	.loc	5 1034 30 is_stmt 0
	movq	%rdi, -56(%rbp)
Ltmp16:
	.loc	5 487 18 is_stmt 1
	addq	%rdi, %rdx
	movq	%rdx, -48(%rbp)
	movq	-48(%rbp), %rax
	movq	%rax, -40(%rbp)
Ltmp17:
	.loc	1 400 79
	subq	%rdi, %rsi
	movq	%rsi, -32(%rbp)
Ltmp18:
	.loc	3 766 24
	movq	%rax, -24(%rbp)
Ltmp19:
	.loc	5 60 9
	movq	%rax, -16(%rbp)
Ltmp20:
	.loc	3 766 37
	movq	%rsi, -8(%rbp)
Ltmp21:
	.loc	4 135 36
	movq	%rax, -144(%rbp)
	movq	%rsi, -136(%rbp)
	.loc	4 135 14 is_stmt 0
	movq	-144(%rbp), %rcx
	movq	-136(%rbp), %rax
	movq	%rcx, -160(%rbp)
	movq	%rax, -152(%rbp)
	movq	-160(%rbp), %rax
	movq	-152(%rbp), %rdx
Ltmp22:
	.loc	1 402 6 is_stmt 1
	addq	$160, %rsp
	popq	%rbp
	retq
Ltmp23:
Lfunc_end1:
	.cfi_endproc

	.p2align	4, 0x90
__ZN106_$LT$core..ops..range..Range$LT$usize$GT$$u20$as$u20$core..slice..index..SliceIndex$LT$$u5b$T$u5d$$GT$$GT$9index_mut17h9e0c77e9da2080f4E:
Lfunc_begin2:
	.loc	1 416 0
	.cfi_startproc
	pushq	%rbp
	.cfi_def_cfa_offset 16
	.cfi_offset %rbp, -16
	movq	%rsp, %rbp
	.cfi_def_cfa_register %rbp
	subq	$80, %rsp
	movq	%rdi, -72(%rbp)
	movq	%rsi, -64(%rbp)
	movq	%rdx, -56(%rbp)
	movq	%rcx, -48(%rbp)
	movq	%r8, -40(%rbp)
	movq	%rdi, -32(%rbp)
	movq	%rsi, -24(%rbp)
	movq	%rdx, -16(%rbp)
	movq	%rcx, -8(%rbp)
Ltmp24:
	.loc	1 417 12 prologue_end
	cmpq	%rsi, %rdi
	ja	LBB2_2
	.loc	1 0 12 is_stmt 0
	movq	-64(%rbp), %rax
	movq	-48(%rbp), %rcx
	.loc	1 419 19 is_stmt 1
	cmpq	%rcx, %rax
	ja	LBB2_4
	jmp	LBB2_3
LBB2_2:
	.loc	1 0 19 is_stmt 0
	movq	-40(%rbp), %rdx
	movq	-64(%rbp), %rsi
	movq	-72(%rbp), %rdi
	.loc	1 418 13 is_stmt 1
	callq	__ZN4core5slice5index22slice_index_order_fail17h0d8f800a07d5f26eE
LBB2_3:
	.loc	1 0 13 is_stmt 0
	movq	-48(%rbp), %rcx
	movq	-56(%rbp), %rdx
	movq	-64(%rbp), %rsi
	movq	-72(%rbp), %rdi
	.loc	1 423 24 is_stmt 1
	callq	__ZN106_$LT$core..ops..range..Range$LT$usize$GT$$u20$as$u20$core..slice..index..SliceIndex$LT$$u5b$T$u5d$$GT$$GT$17get_unchecked_mut17h9f33c5b41ab3aab3E
	.loc	1 424 6
	addq	$80, %rsp
	popq	%rbp
	retq
LBB2_4:
	.loc	1 0 6 is_stmt 0
	movq	-40(%rbp), %rdx
	movq	-48(%rbp), %rsi
	movq	-64(%rbp), %rdi
	.loc	1 420 13 is_stmt 1
	callq	__ZN4core5slice5index24slice_end_index_len_fail17hc921cb2f1513645aE
Ltmp25:
Lfunc_end2:
	.cfi_endproc

	.p2align	4, 0x90
__ZN110_$LT$core..ops..range..RangeFrom$LT$usize$GT$$u20$as$u20$core..slice..index..SliceIndex$LT$$u5b$T$u5d$$GT$$GT$5index17h748c2174e60bef1cE:
Lfunc_begin3:
	.loc	1 493 0
	.cfi_startproc
	pushq	%rbp
	.cfi_def_cfa_offset 16
	.cfi_offset %rbp, -16
	movq	%rsp, %rbp
	.cfi_def_cfa_register %rbp
	subq	$144, %rsp
	movq	%rdi, -144(%rbp)
	movq	%rsi, -136(%rbp)
	movq	%rdx, -128(%rbp)
	movq	%rcx, -120(%rbp)
	movq	%rdi, -80(%rbp)
	movq	%rsi, -72(%rbp)
	movq	%rdx, -64(%rbp)
Ltmp26:
	.loc	1 494 12 prologue_end
	cmpq	%rdx, %rdi
	ja	LBB3_2
	.loc	1 0 12 is_stmt 0
	movq	-128(%rbp), %rcx
	movq	-136(%rbp), %rdx
	movq	-144(%rbp), %rsi
	.loc	1 498 20 is_stmt 1
	movq	%rsi, -56(%rbp)
	.loc	1 498 39 is_stmt 0
	movq	%rdx, -48(%rbp)
	movq	%rcx, -40(%rbp)
Ltmp27:
	.loc	1 483 31 is_stmt 1
	movq	%rdx, -32(%rbp)
	movq	%rcx, -24(%rbp)
Ltmp28:
	.loc	2 1630 18
	movq	%rdx, -16(%rbp)
	movq	%rcx, -8(%rbp)
Ltmp29:
	.loc	4 98 14
	movq	%rdx, -96(%rbp)
	movq	%rcx, -88(%rbp)
	movq	-88(%rbp), %rax
Ltmp30:
	.loc	1 483 18
	movq	%rsi, -112(%rbp)
	movq	%rax, -104(%rbp)
	movq	-112(%rbp), %rdi
	movq	-104(%rbp), %rsi
	callq	__ZN106_$LT$core..ops..range..Range$LT$usize$GT$$u20$as$u20$core..slice..index..SliceIndex$LT$$u5b$T$u5d$$GT$$GT$13get_unchecked17haf952281b87f041dE
Ltmp31:
	.loc	1 499 6
	addq	$144, %rsp
	popq	%rbp
	retq
LBB3_2:
	.loc	1 0 6 is_stmt 0
	movq	-120(%rbp), %rdx
	movq	-128(%rbp), %rsi
	movq	-144(%rbp), %rdi
	.loc	1 495 13 is_stmt 1
	callq	__ZN4core5slice5index26slice_start_index_len_fail17h9d301bb51ec3e351E
Ltmp32:
Lfunc_end3:
	.cfi_endproc

	.p2align	4, 0x90
__ZN119_$LT$core..ptr..non_null..NonNull$LT$T$GT$$u20$as$u20$core..convert..From$LT$core..ptr..unique..Unique$LT$T$GT$$GT$$GT$4from17h6ea9105bbbcb4258E:
Lfunc_begin4:
	.file	6 "/rustc/2c8cc343237b8f7d5a3c3703e3a87f2eb2c54a74/library/core/src/ptr" "non_null.rs"
	.loc	6 765 0
	.cfi_startproc
	pushq	%rbp
	.cfi_def_cfa_offset 16
	.cfi_offset %rbp, -16
	movq	%rsp, %rbp
	.cfi_def_cfa_register %rbp
	subq	$40, %rsp
	movq	%rdi, -32(%rbp)
Ltmp33:
	.loc	6 768 41 prologue_end
	movq	%rdi, -24(%rbp)
Ltmp34:
	.file	7 "/rustc/2c8cc343237b8f7d5a3c3703e3a87f2eb2c54a74/library/core/src/ptr" "unique.rs"
	.loc	7 104 9
	movq	%rdi, -16(%rbp)
Ltmp35:
	.loc	6 326 9
	movq	%rdi, -8(%rbp)
Ltmp36:
	.loc	6 201 13
	movq	%rdi, -40(%rbp)
Ltmp37:
	.loc	6 769 6
	movq	-40(%rbp), %rax
	addq	$40, %rsp
	popq	%rbp
	retq
Ltmp38:
Lfunc_end4:
	.cfi_endproc

	.p2align	4, 0x90
__ZN3std10sys_common9backtrace28__rust_begin_short_backtrace17hd3ba71e651750f2eE:
Lfunc_begin5:
	.file	8 "/rustc/2c8cc343237b8f7d5a3c3703e3a87f2eb2c54a74/library/std/src/sys_common" "backtrace.rs"
	.loc	8 117 0
	.cfi_startproc
	pushq	%rbp
	.cfi_def_cfa_offset 16
	.cfi_offset %rbp, -16
	movq	%rsp, %rbp
	.cfi_def_cfa_register %rbp
	subq	$48, %rsp
	movq	%rdi, -32(%rbp)
Ltmp39:
	.loc	8 121 18 prologue_end
	callq	__ZN4core3ops8function6FnOnce9call_once17hb5ccc784817c02eeE
Ltmp40:
	.file	9 "/rustc/2c8cc343237b8f7d5a3c3703e3a87f2eb2c54a74/library/core/src" "hint.rs"
	.loc	9 295 5
	## InlineAsm Start
	## InlineAsm End
Ltmp41:
	.loc	8 127 2
	addq	$48, %rsp
	popq	%rbp
	retq
Ltmp42:
Lfunc_end5:
	.cfi_endproc

	.p2align	4, 0x90
__ZN3std2fs11OpenOptions4open17h0718fa75f579191dE:
Lfunc_begin6:
	.file	10 "/rustc/2c8cc343237b8f7d5a3c3703e3a87f2eb2c54a74/library/std/src" "fs.rs"
	.loc	10 1058 0
	.cfi_startproc
	.cfi_personality 155, _rust_eh_personality
	.cfi_lsda 16, Lexception0
	pushq	%rbp
	.cfi_def_cfa_offset 16
	.cfi_offset %rbp, -16
	movq	%rsp, %rbp
	.cfi_def_cfa_register %rbp
	subq	$80, %rsp
	movq	%rsi, -80(%rbp)
	movq	%rdi, -72(%rbp)
	movq	%rdi, -64(%rbp)
	movq	%rdx, -40(%rbp)
	movq	%rcx, -32(%rbp)
	movq	%rsi, -24(%rbp)
Ltmp43:
	leaq	-40(%rbp), %rdi
Ltmp48:
	.loc	10 1059 20 prologue_end
	callq	__ZN55_$LT$$RF$T$u20$as$u20$core..convert..AsRef$LT$U$GT$$GT$6as_ref17h4a743a54c3f9a491E
Ltmp44:
	movq	%rdx, -56(%rbp)
	movq	%rax, -48(%rbp)
	jmp	LBB6_3
LBB6_1:
	.loc	10 1058 5
	movq	-16(%rbp), %rdi
	callq	__Unwind_Resume
LBB6_2:
Ltmp47:
	.loc	10 0 5 is_stmt 0
	movq	%rax, %rcx
	movl	%edx, %eax
	movq	%rcx, -16(%rbp)
	movl	%eax, -8(%rbp)
	jmp	LBB6_1
LBB6_3:
Ltmp45:
	movq	-56(%rbp), %rcx
	movq	-48(%rbp), %rdx
	movq	-80(%rbp), %rsi
	movq	-72(%rbp), %rdi
	.loc	10 1059 9 is_stmt 1
	callq	__ZN3std2fs11OpenOptions5_open17h765806b2579ff7e6E
Ltmp46:
	jmp	LBB6_4
LBB6_4:
	.loc	10 0 9 is_stmt 0
	movq	-64(%rbp), %rax
	.loc	10 1060 6 is_stmt 1
	addq	$80, %rsp
	popq	%rbp
	retq
Ltmp49:
Lfunc_end6:
	.cfi_endproc
	.section	__TEXT,__gcc_except_tab
	.p2align	2
GCC_except_table6:
Lexception0:
	.byte	255
	.byte	255
	.byte	1
	.uleb128 Lcst_end0-Lcst_begin0
Lcst_begin0:
	.uleb128 Ltmp43-Lfunc_begin6
	.uleb128 Ltmp44-Ltmp43
	.uleb128 Ltmp47-Lfunc_begin6
	.byte	0
	.uleb128 Ltmp44-Lfunc_begin6
	.uleb128 Ltmp45-Ltmp44
	.byte	0
	.byte	0
	.uleb128 Ltmp45-Lfunc_begin6
	.uleb128 Ltmp46-Ltmp45
	.uleb128 Ltmp47-Lfunc_begin6
	.byte	0
Lcst_end0:
	.p2align	2

	.section	__TEXT,__text,regular,pure_instructions
	.p2align	4, 0x90
__ZN3std2fs4File6create17h17f4357b6dd465f2E:
Lfunc_begin7:
	.loc	10 378 0
	.cfi_startproc
	.cfi_personality 155, _rust_eh_personality
	.cfi_lsda 16, Lexception1
	pushq	%rbp
	.cfi_def_cfa_offset 16
	.cfi_offset %rbp, -16
	movq	%rsp, %rbp
	.cfi_def_cfa_register %rbp
	subq	$96, %rsp
	movq	%rdi, -56(%rbp)
	movq	%rdi, -48(%rbp)
	movq	%rsi, -40(%rbp)
Ltmp50:
	leaq	-32(%rbp), %rdi
Ltmp63:
	.loc	10 379 9 prologue_end
	callq	__ZN3std2fs11OpenOptions3new17hb715257bf3b1044cE
Ltmp51:
	jmp	LBB7_3
LBB7_1:
	.loc	10 378 5
	movq	-16(%rbp), %rdi
	callq	__Unwind_Resume
LBB7_2:
Ltmp62:
	.loc	10 0 5 is_stmt 0
	movq	%rax, %rcx
	movl	%edx, %eax
	movq	%rcx, -16(%rbp)
	movl	%eax, -8(%rbp)
	jmp	LBB7_1
LBB7_3:
Ltmp52:
	leaq	-32(%rbp), %rdi
	movl	$1, %esi
	.loc	10 379 9 is_stmt 1
	callq	__ZN3std2fs11OpenOptions5write17h6a5db1940a04f260E
Ltmp53:
	movq	%rax, -64(%rbp)
	jmp	LBB7_4
LBB7_4:
Ltmp54:
	.loc	10 0 9 is_stmt 0
	movq	-64(%rbp), %rdi
	movl	$1, %esi
	.loc	10 379 9
	callq	__ZN3std2fs11OpenOptions6create17h89a170d7d8fa2f7cE
Ltmp55:
	movq	%rax, -72(%rbp)
	jmp	LBB7_5
LBB7_5:
Ltmp56:
	.loc	10 0 9
	movq	-72(%rbp), %rdi
	movl	$1, %esi
	.loc	10 379 9
	callq	__ZN3std2fs11OpenOptions8truncate17h89eab471baa57fc5E
Ltmp57:
	movq	%rax, -80(%rbp)
	jmp	LBB7_6
LBB7_6:
Ltmp58:
	.loc	10 0 9
	leaq	-40(%rbp), %rdi
	.loc	10 379 73
	callq	__ZN55_$LT$$RF$T$u20$as$u20$core..convert..AsRef$LT$U$GT$$GT$6as_ref17haa5115eb3f0fd6aaE
Ltmp59:
	movq	%rdx, -96(%rbp)
	movq	%rax, -88(%rbp)
	jmp	LBB7_7
LBB7_7:
Ltmp60:
	.loc	10 0 73
	movq	-96(%rbp), %rcx
	movq	-88(%rbp), %rdx
	movq	-80(%rbp), %rsi
	movq	-56(%rbp), %rdi
	.loc	10 379 9
	callq	__ZN3std2fs11OpenOptions4open17h0718fa75f579191dE
Ltmp61:
	jmp	LBB7_8
LBB7_8:
	.loc	10 0 9
	movq	-48(%rbp), %rax
	.loc	10 380 6 is_stmt 1
	addq	$96, %rsp
	popq	%rbp
	retq
Ltmp64:
Lfunc_end7:
	.cfi_endproc
	.section	__TEXT,__gcc_except_tab
	.p2align	2
GCC_except_table7:
Lexception1:
	.byte	255
	.byte	255
	.byte	1
	.uleb128 Lcst_end1-Lcst_begin1
Lcst_begin1:
	.uleb128 Ltmp50-Lfunc_begin7
	.uleb128 Ltmp51-Ltmp50
	.uleb128 Ltmp62-Lfunc_begin7
	.byte	0
	.uleb128 Ltmp51-Lfunc_begin7
	.uleb128 Ltmp52-Ltmp51
	.byte	0
	.byte	0
	.uleb128 Ltmp52-Lfunc_begin7
	.uleb128 Ltmp61-Ltmp52
	.uleb128 Ltmp62-Lfunc_begin7
	.byte	0
Lcst_end1:
	.p2align	2

	.section	__TEXT,__text,regular,pure_instructions
	.p2align	4, 0x90
__ZN3std2fs7ReadDir17ha92b7fe260940011E:
Lfunc_begin8:
	.loc	10 128 0
	.cfi_startproc
	pushq	%rbp
	.cfi_def_cfa_offset 16
	.cfi_offset %rbp, -16
	movq	%rsp, %rbp
	.cfi_def_cfa_register %rbp
	subq	$32, %rsp
	movb	%sil, %al
	movq	%rdi, -16(%rbp)
	andb	$1, %al
	movb	%al, -8(%rbp)
Ltmp65:
	.loc	10 128 1 prologue_end
	movq	%rdi, -32(%rbp)
	movb	%al, -24(%rbp)
	movq	-32(%rbp), %rax
	movb	-24(%rbp), %dl
	addq	$32, %rsp
	popq	%rbp
	retq
Ltmp66:
Lfunc_end8:
	.cfi_endproc

	.p2align	4, 0x90
__ZN3std2fs8read_dir17h24e8ecbf923fa767E:
Lfunc_begin9:
	.loc	10 2354 0
	.cfi_startproc
	.cfi_personality 155, _rust_eh_personality
	.cfi_lsda 16, Lexception2
	pushq	%rbp
	.cfi_def_cfa_offset 16
	.cfi_offset %rbp, -16
	movq	%rsp, %rbp
	.cfi_def_cfa_register %rbp
	subq	$80, %rsp
	movq	%rdi, -80(%rbp)
	movq	%rdi, -72(%rbp)
	movq	%rsi, -48(%rbp)
	movq	%rdx, -40(%rbp)
Ltmp67:
	leaq	-48(%rbp), %rdi
Ltmp74:
	.loc	10 2355 21 prologue_end
	callq	__ZN55_$LT$$RF$T$u20$as$u20$core..convert..AsRef$LT$U$GT$$GT$6as_ref17h4a743a54c3f9a491E
Ltmp68:
	movq	%rdx, -64(%rbp)
	movq	%rax, -56(%rbp)
	jmp	LBB9_3
LBB9_1:
	.loc	10 2354 1
	movq	-16(%rbp), %rdi
	callq	__Unwind_Resume
LBB9_2:
Ltmp73:
	.loc	10 0 1 is_stmt 0
	movq	%rax, %rcx
	movl	%edx, %eax
	movq	%rcx, -16(%rbp)
	movl	%eax, -8(%rbp)
	jmp	LBB9_1
LBB9_3:
Ltmp69:
	movq	-64(%rbp), %rdx
	movq	-56(%rbp), %rsi
	leaq	-32(%rbp), %rdi
	.loc	10 2355 5 is_stmt 1
	callq	__ZN3std3sys4unix2fs7readdir17h9727c2873723db23E
Ltmp70:
	jmp	LBB9_4
LBB9_4:
Ltmp71:
	.loc	10 0 5 is_stmt 0
	movq	-80(%rbp), %rdi
	leaq	-32(%rbp), %rsi
	.loc	10 2355 5
	callq	__ZN4core6result19Result$LT$T$C$E$GT$3map17hed0dcb7d85644172E
Ltmp72:
	jmp	LBB9_5
LBB9_5:
	.loc	10 0 5
	movq	-72(%rbp), %rax
	.loc	10 2356 2 is_stmt 1
	addq	$80, %rsp
	popq	%rbp
	retq
Ltmp75:
Lfunc_end9:
	.cfi_endproc
	.section	__TEXT,__gcc_except_tab
	.p2align	2
GCC_except_table9:
Lexception2:
	.byte	255
	.byte	255
	.byte	1
	.uleb128 Lcst_end2-Lcst_begin2
Lcst_begin2:
	.uleb128 Ltmp67-Lfunc_begin9
	.uleb128 Ltmp68-Ltmp67
	.uleb128 Ltmp73-Lfunc_begin9
	.byte	0
	.uleb128 Ltmp68-Lfunc_begin9
	.uleb128 Ltmp69-Ltmp68
	.byte	0
	.byte	0
	.uleb128 Ltmp69-Lfunc_begin9
	.uleb128 Ltmp72-Ltmp69
	.uleb128 Ltmp73-Lfunc_begin9
	.byte	0
Lcst_end2:
	.p2align	2

	.section	__TEXT,__text,regular,pure_instructions
	.p2align	4, 0x90
__ZN3std2io5Write9write_all17hc46049673707b404E:
Lfunc_begin10:
	.file	11 "/rustc/2c8cc343237b8f7d5a3c3703e3a87f2eb2c54a74/library/std/src/io" "mod.rs"
	.loc	11 1540 0
	.cfi_startproc
	.cfi_personality 155, _rust_eh_personality
	.cfi_lsda 16, Lexception3
	pushq	%rbp
	.cfi_def_cfa_offset 16
	.cfi_offset %rbp, -16
	movq	%rsp, %rbp
	.cfi_def_cfa_register %rbp
	subq	$256, %rsp
	movq	%rdi, -232(%rbp)
	movq	%rsi, -224(%rbp)
	movq	%rdx, -216(%rbp)
	movq	%rdi, -136(%rbp)
LBB10_1:
Ltmp84:
	.loc	11 1541 16 prologue_end
	movq	-224(%rbp), %rcx
	movq	-216(%rbp), %rax
	movq	%rcx, -128(%rbp)
	movq	%rax, -120(%rbp)
Ltmp85:
	.file	12 "/rustc/2c8cc343237b8f7d5a3c3703e3a87f2eb2c54a74/library/core/src/slice" "mod.rs"
	.loc	12 153 9
	cmpq	$0, %rax
	sete	%al
Ltmp86:
	.loc	11 1541 15
	xorb	$-1, %al
	testb	$1, %al
	jne	LBB10_3
	.loc	11 1554 9
	movq	$0, -208(%rbp)
	.loc	11 1555 6
	jmp	LBB10_23
LBB10_3:
	.loc	11 0 6 is_stmt 0
	movq	-232(%rbp), %rsi
	.loc	11 1542 30 is_stmt 1
	movq	-224(%rbp), %rdx
	movq	-216(%rbp), %rcx
	.loc	11 1542 19 is_stmt 0
	leaq	-200(%rbp), %rdi
	callq	__ZN48_$LT$std..fs..File$u20$as$u20$std..io..Write$GT$5write17hb66af813b1fcdc57E
	.loc	11 1542 13
	cmpq	$0, -200(%rbp)
	jne	LBB10_5
	cmpq	$0, -192(%rbp)
	je	LBB10_13
	jmp	LBB10_14
LBB10_5:
	.loc	11 1550 21 is_stmt 1
	leaq	-192(%rbp), %rax
	movq	%rax, -168(%rbp)
	leaq	-168(%rbp), %rax
	movq	%rax, -112(%rbp)
	.loc	11 1550 31 is_stmt 0
	movq	-168(%rbp), %rdi
Ltmp76:
	callq	__ZN3std2io5error5Error4kind17h37ab5e1347943661E
Ltmp77:
	movb	%al, -233(%rbp)
	jmp	LBB10_8
LBB10_6:
	.loc	11 1553 9 is_stmt 1
	cmpq	$1, -200(%rbp)
	je	LBB10_16
	jmp	LBB10_17
LBB10_7:
Ltmp80:
	.loc	11 0 9 is_stmt 0
	movq	%rax, %rcx
	movl	%edx, %eax
	movq	%rcx, -104(%rbp)
	movl	%eax, -96(%rbp)
	jmp	LBB10_6
LBB10_8:
	movb	-233(%rbp), %al
	.loc	11 1550 31 is_stmt 1
	movb	%al, -153(%rbp)
	leaq	-153(%rbp), %rax
	movq	%rax, -88(%rbp)
	.loc	11 1550 43 is_stmt 0
	leaq	l___unnamed_6(%rip), %rax
	movq	%rax, -80(%rbp)
Ltmp87:
	.file	13 "/rustc/2c8cc343237b8f7d5a3c3703e3a87f2eb2c54a74/library/std/src/io" "error.rs"
	.loc	13 165 45 is_stmt 1
	movzbl	-153(%rbp), %eax
	movq	%rax, -72(%rbp)
Ltmp88:
	.loc	13 165 45 is_stmt 0
	movzbl	l___unnamed_6(%rip), %ecx
	movq	%rcx, -64(%rbp)
Ltmp89:
	.loc	13 165 45
	cmpq	%rcx, %rax
Ltmp90:
	.loc	11 1550 31 is_stmt 1
	je	LBB10_10
	.loc	11 1551 21
	movq	-192(%rbp), %rax
	movq	%rax, -56(%rbp)
Ltmp91:
	.loc	11 1551 34 is_stmt 0
	movq	%rax, -208(%rbp)
Ltmp92:
	.file	14 "/Users/natalie/.cargo/registry/src/github.com-1ecc6299db9ec823/khronos_api-3.1.0" "build.rs"
	.loc	14 1 1 is_stmt 1
	jmp	LBB10_12
LBB10_10:
	.loc	11 1550 70
	jmp	LBB10_11
LBB10_11:
	.loc	11 1553 9
	cmpq	$1, -200(%rbp)
	je	LBB10_20
	jmp	LBB10_21
LBB10_12:
	.loc	11 1555 6
	jmp	LBB10_23
LBB10_13:
	.loc	11 1544 32
	leaq	l___unnamed_7(%rip), %rax
	movq	%rax, -24(%rbp)
Ltmp93:
	.loc	13 554 47
	leaq	l___unnamed_7(%rip), %rax
	movq	%rax, -16(%rbp)
Ltmp94:
	.file	15 "/rustc/2c8cc343237b8f7d5a3c3703e3a87f2eb2c54a74/library/std/src/io/error" "repr_bitpacked.rs"
	.loc	15 206 46
	leaq	l___unnamed_7(%rip), %rax
	movq	%rax, -8(%rbp)
Ltmp95:
	.loc	6 201 13
	leaq	l___unnamed_7(%rip), %rax
	movq	%rax, -144(%rbp)
Ltmp96:
	.loc	15 206 9
	movq	-144(%rbp), %rax
	movq	%rax, -152(%rbp)
Ltmp97:
	.loc	13 554 9
	movq	-152(%rbp), %rax
	movq	%rax, -184(%rbp)
Ltmp98:
	.loc	11 1544 28
	movq	-184(%rbp), %rax
	movq	%rax, -208(%rbp)
	.loc	14 1 1
	jmp	LBB10_12
LBB10_14:
	.loc	11 1549 20
	movq	-192(%rbp), %rax
	movq	%rax, -48(%rbp)
Ltmp99:
	.loc	11 1549 33 is_stmt 0
	movq	-224(%rbp), %rsi
	movq	-216(%rbp), %rdx
	movq	%rsi, -40(%rbp)
	movq	%rdx, -32(%rbp)
	.loc	11 1549 37
	movq	%rax, -176(%rbp)
Ltmp100:
	.loc	1 18 9 is_stmt 1
	movq	-176(%rbp), %rdi
Ltmp78:
	leaq	l___unnamed_8(%rip), %rcx
	callq	__ZN110_$LT$core..ops..range..RangeFrom$LT$usize$GT$$u20$as$u20$core..slice..index..SliceIndex$LT$$u5b$T$u5d$$GT$$GT$5index17h748c2174e60bef1cE
Ltmp79:
	movq	%rdx, -256(%rbp)
	movq	%rax, -248(%rbp)
	jmp	LBB10_15
Ltmp101:
LBB10_15:
	.loc	1 0 9 is_stmt 0
	movq	-256(%rbp), %rax
	movq	-248(%rbp), %rcx
	.loc	11 1549 26 is_stmt 1
	movq	%rcx, -224(%rbp)
	movq	%rax, -216(%rbp)
Ltmp102:
	.loc	11 1549 40 is_stmt 0
	jmp	LBB10_11
LBB10_16:
	.loc	11 1553 9 is_stmt 1
	movb	$1, %al
	testb	$1, %al
	jne	LBB10_18
	jmp	LBB10_17
LBB10_17:
	.loc	11 1540 5
	movq	-104(%rbp), %rdi
	callq	__Unwind_Resume
LBB10_18:
	.loc	11 1553 9
	leaq	-192(%rbp), %rdi
Ltmp81:
	callq	__ZN4core3ptr42drop_in_place$LT$std..io..error..Error$GT$17h6fd4e1b7df689ae6E
Ltmp82:
	jmp	LBB10_17
LBB10_19:
Ltmp83:
	.loc	11 1540 5
	callq	__ZN4core9panicking19panic_cannot_unwind17h1fbca7e1d7f56ae1E
LBB10_20:
	.loc	11 1553 9
	movb	$1, %al
	testb	$1, %al
	jne	LBB10_22
	jmp	LBB10_21
LBB10_21:
	.loc	11 1541 9
	jmp	LBB10_1
LBB10_22:
	.loc	11 1553 9
	leaq	-200(%rbp), %rdi
	addq	$8, %rdi
	callq	__ZN4core3ptr42drop_in_place$LT$std..io..error..Error$GT$17h6fd4e1b7df689ae6E
	jmp	LBB10_21
LBB10_23:
	.loc	11 1555 6
	movq	-208(%rbp), %rax
	addq	$256, %rsp
	popq	%rbp
	retq
Ltmp103:
Lfunc_end10:
	.cfi_endproc
	.section	__TEXT,__gcc_except_tab
	.p2align	2
GCC_except_table10:
Lexception3:
	.byte	255
	.byte	255
	.byte	1
	.uleb128 Lcst_end3-Lcst_begin3
Lcst_begin3:
	.uleb128 Lfunc_begin10-Lfunc_begin10
	.uleb128 Ltmp76-Lfunc_begin10
	.byte	0
	.byte	0
	.uleb128 Ltmp76-Lfunc_begin10
	.uleb128 Ltmp79-Ltmp76
	.uleb128 Ltmp80-Lfunc_begin10
	.byte	0
	.uleb128 Ltmp79-Lfunc_begin10
	.uleb128 Ltmp81-Ltmp79
	.byte	0
	.byte	0
	.uleb128 Ltmp81-Lfunc_begin10
	.uleb128 Ltmp82-Ltmp81
	.uleb128 Ltmp83-Lfunc_begin10
	.byte	0
	.uleb128 Ltmp82-Lfunc_begin10
	.uleb128 Lfunc_end10-Ltmp82
	.byte	0
	.byte	0
Lcst_end3:
	.p2align	2

	.section	__TEXT,__text,regular,pure_instructions
	.p2align	4, 0x90
__ZN3std2io5Write9write_fmt17h60618344047b1912E:
Lfunc_begin11:
	.loc	11 1661 0
	.cfi_startproc
	.cfi_personality 155, _rust_eh_personality
	.cfi_lsda 16, Lexception4
	pushq	%rbp
	.cfi_def_cfa_offset 16
	.cfi_offset %rbp, -16
	movq	%rsp, %rbp
	.cfi_def_cfa_register %rbp
	subq	$192, %rsp
	movq	%rdi, -64(%rbp)
Ltmp110:
	.loc	11 1681 56 prologue_end
	movq	$0, -160(%rbp)
	.loc	11 1681 26 is_stmt 0
	movb	$1, -82(%rbp)
	movq	%rdi, -168(%rbp)
	movq	-160(%rbp), %rax
	movq	%rax, -176(%rbp)
Ltmp111:
	.loc	11 1682 39 is_stmt 1
	movq	40(%rsi), %rax
	movq	%rax, -104(%rbp)
	movq	32(%rsi), %rax
	movq	%rax, -112(%rbp)
	movq	24(%rsi), %rax
	movq	%rax, -120(%rbp)
	movq	16(%rsi), %rax
	movq	%rax, -128(%rbp)
	movq	(%rsi), %rax
	movq	8(%rsi), %rcx
	movq	%rcx, -136(%rbp)
	movq	%rax, -144(%rbp)
Ltmp104:
	.loc	11 1682 15 is_stmt 0
	leaq	l___unnamed_1(%rip), %rsi
Ltmp112:
	.loc	11 0 15
	leaq	-176(%rbp), %rdi
	leaq	-144(%rbp), %rdx
	.loc	11 1682 15
	callq	__ZN4core3fmt5write17hfa389e524187f2c6E
Ltmp105:
	movb	%al, -185(%rbp)
	jmp	LBB11_3
Ltmp113:
LBB11_1:
Ltmp107:
	.loc	11 0 15
	leaq	-176(%rbp), %rdi
	.loc	11 1693 5 is_stmt 1
	callq	__ZN4core3ptr76drop_in_place$LT$std..io..Write..write_fmt..Adapter$LT$std..fs..File$GT$$GT$17h793233edcab5b137E
Ltmp108:
	jmp	LBB11_5
Ltmp114:
LBB11_2:
Ltmp106:
	.loc	11 0 5 is_stmt 0
	movq	%rax, %rcx
	movl	%edx, %eax
	movq	%rcx, -56(%rbp)
	movl	%eax, -48(%rbp)
	jmp	LBB11_1
Ltmp115:
LBB11_3:
	movb	-185(%rbp), %al
Ltmp116:
	.loc	11 1682 15 is_stmt 1
	andb	$1, %al
	movb	%al, -145(%rbp)
	movb	-145(%rbp), %al
	andb	$1, %al
	movzbl	%al, %eax
	.loc	11 1682 9 is_stmt 0
	cmpq	$0, %rax
	je	LBB11_6
	jmp	LBB11_7
Ltmp117:
LBB11_4:
Ltmp109:
	.loc	11 1661 5 is_stmt 1
	callq	__ZN4core9panicking19panic_cannot_unwind17h1fbca7e1d7f56ae1E
Ltmp118:
LBB11_5:
	movq	-56(%rbp), %rdi
	callq	__Unwind_Resume
Ltmp119:
LBB11_6:
	.loc	11 1683 23
	movq	$0, -184(%rbp)
	.loc	11 1683 28 is_stmt 0
	jmp	LBB11_14
Ltmp120:
LBB11_7:
	.loc	11 1686 20 is_stmt 1
	leaq	-176(%rbp), %rax
	movq	%rax, -40(%rbp)
Ltmp121:
	.file	16 "/rustc/2c8cc343237b8f7d5a3c3703e3a87f2eb2c54a74/library/core/src" "result.rs"
	.loc	16 589 10
	leaq	-176(%rbp), %rax
	movq	%rax, -32(%rbp)
Ltmp122:
	.loc	16 542 18
	movq	-176(%rbp), %rdx
	movl	$1, %eax
	xorl	%ecx, %ecx
	cmpq	$0, %rdx
	cmoveq	%rcx, %rax
	.file	17 "/rustc/2c8cc343237b8f7d5a3c3703e3a87f2eb2c54a74/library/core/src/macros" "mod.rs"
	.loc	17 344 9
	cmpq	$0, %rax
	jne	LBB11_9
Ltmp123:
	.loc	17 345 48
	movb	$1, -81(%rbp)
	jmp	LBB11_10
Ltmp124:
LBB11_9:
	.loc	17 346 18
	movb	$0, -81(%rbp)
Ltmp125:
LBB11_10:
	.loc	16 589 9
	movb	-81(%rbp), %al
	xorb	$-1, %al
Ltmp126:
	.loc	11 1686 20
	testb	$1, %al
	jne	LBB11_12
Ltmp127:
	.loc	11 1689 25
	leaq	l___unnamed_9(%rip), %rax
	movq	%rax, -24(%rbp)
Ltmp128:
	.loc	13 554 47
	leaq	l___unnamed_9(%rip), %rax
	movq	%rax, -16(%rbp)
Ltmp129:
	.loc	15 206 46
	leaq	l___unnamed_9(%rip), %rax
	movq	%rax, -8(%rbp)
Ltmp130:
	.loc	6 201 13
	leaq	l___unnamed_9(%rip), %rax
	movq	%rax, -72(%rbp)
Ltmp131:
	.loc	15 206 9
	movq	-72(%rbp), %rax
	movq	%rax, -80(%rbp)
Ltmp132:
	.loc	13 554 9
	movq	-80(%rbp), %rax
	movq	%rax, -96(%rbp)
Ltmp133:
	.loc	11 1689 21
	movq	-96(%rbp), %rax
	movq	%rax, -184(%rbp)
	.loc	11 1686 17
	jmp	LBB11_13
Ltmp134:
LBB11_12:
	.loc	11 1687 21
	movb	$0, -82(%rbp)
	movq	-176(%rbp), %rax
	movq	%rax, -184(%rbp)
Ltmp135:
LBB11_13:
	.loc	11 1690 17
	jmp	LBB11_14
Ltmp136:
LBB11_14:
	.loc	11 1693 5
	testb	$1, -82(%rbp)
	jne	LBB11_16
Ltmp137:
LBB11_15:
	.loc	11 1693 6 is_stmt 0
	movq	-184(%rbp), %rax
	addq	$192, %rsp
	popq	%rbp
	retq
Ltmp138:
LBB11_16:
	.loc	11 1693 5
	leaq	-176(%rbp), %rdi
	callq	__ZN4core3ptr81drop_in_place$LT$core..result..Result$LT$$LP$$RP$$C$std..io..error..Error$GT$$GT$17h94d92379f06ecf8dE
	jmp	LBB11_15
Ltmp139:
Lfunc_end11:
	.cfi_endproc
	.section	__TEXT,__gcc_except_tab
	.p2align	2
GCC_except_table11:
Lexception4:
	.byte	255
	.byte	255
	.byte	1
	.uleb128 Lcst_end4-Lcst_begin4
Lcst_begin4:
	.uleb128 Ltmp104-Lfunc_begin11
	.uleb128 Ltmp105-Ltmp104
	.uleb128 Ltmp106-Lfunc_begin11
	.byte	0
	.uleb128 Ltmp107-Lfunc_begin11
	.uleb128 Ltmp108-Ltmp107
	.uleb128 Ltmp109-Lfunc_begin11
	.byte	0
	.uleb128 Ltmp108-Lfunc_begin11
	.uleb128 Lfunc_end11-Ltmp108
	.byte	0
	.byte	0
Lcst_end4:
	.p2align	2

	.section	__TEXT,__text,regular,pure_instructions
	.p2align	4, 0x90
__ZN3std2io5error14repr_bitpacked11decode_repr17h29098058fcc61410E:
Lfunc_begin12:
	.loc	15 246 0 is_stmt 1
	.cfi_startproc
	.cfi_personality 155, _rust_eh_personality
	.cfi_lsda 16, Lexception5
	pushq	%rbp
	.cfi_def_cfa_offset 16
	.cfi_offset %rbp, -16
	movq	%rsp, %rbp
	.cfi_def_cfa_register %rbp
	subq	$320, %rsp
	movq	%rsi, -272(%rbp)
	movq	%rdi, -264(%rbp)
	movq	%rdi, -256(%rbp)
	movq	%rsi, -184(%rbp)
Ltmp149:
	.loc	15 250 9 prologue_end
	movb	$1, -201(%rbp)
	.loc	15 250 16 is_stmt 0
	movq	%rsi, -160(%rbp)
Ltmp150:
	.loc	6 326 9 is_stmt 1
	movq	%rsi, -152(%rbp)
Ltmp151:
	.loc	5 215 33
	movq	%rsi, -144(%rbp)
	.loc	5 215 18 is_stmt 0
	movq	%rsi, -248(%rbp)
Ltmp152:
	.loc	15 251 11 is_stmt 1
	movq	-248(%rbp), %rax
	andl	$3, %eax
	movq	%rax, -280(%rbp)
	.loc	15 251 5 is_stmt 0
	subq	$3, %rax
	ja	LBB12_2
	.loc	15 0 5
	movq	-280(%rbp), %rax
	leaq	LJTI12_0(%rip), %rcx
	movslq	(%rcx,%rax,4), %rax
	addq	%rcx, %rax
	jmpq	*%rax
LBB12_2:
Ltmp146:
	.loc	15 280 13 is_stmt 1
	leaq	l___unnamed_10(%rip), %rdi
	leaq	l___unnamed_11(%rip), %rdx
	movl	$40, %esi
	callq	__ZN4core9panicking5panic17hc1bc45270cf64b03E
Ltmp147:
	jmp	LBB12_9
LBB12_3:
	.loc	15 0 13 is_stmt 0
	movq	-264(%rbp), %rax
	.loc	15 253 26 is_stmt 1
	movq	-248(%rbp), %rcx
	.loc	15 253 24 is_stmt 0
	sarq	$32, %rcx
	movl	%ecx, -4(%rbp)
Ltmp153:
	.loc	15 254 13 is_stmt 1
	movl	%ecx, 4(%rax)
	movb	$0, (%rax)
Ltmp154:
	.loc	15 255 9
	jmp	LBB12_12
LBB12_4:
	.loc	15 257 30
	movl	-244(%rbp), %edi
	.loc	15 257 29 is_stmt 0
	movl	%edi, -12(%rbp)
Ltmp142:
Ltmp155:
	.loc	15 258 24 is_stmt 1
	callq	__ZN3std2io5error14repr_bitpacked14kind_from_prim17h45e51caf6a6cb18cE
Ltmp143:
	movb	%al, -281(%rbp)
	jmp	LBB12_13
Ltmp156:
LBB12_5:
	.loc	15 0 24 is_stmt 0
	movq	-264(%rbp), %rax
	movq	-272(%rbp), %rcx
	.loc	15 270 58 is_stmt 1
	movq	%rcx, -40(%rbp)
Ltmp157:
	.loc	6 450 41
	movq	%rcx, -32(%rbp)
	movq	%rcx, -24(%rbp)
Ltmp158:
	.loc	6 201 13
	movq	%rcx, -224(%rbp)
Ltmp159:
	.loc	6 326 9
	movq	-224(%rbp), %rcx
Ltmp160:
	.loc	15 270 31
	movq	%rcx, 8(%rax)
	movb	$2, (%rax)
	.loc	15 270 94 is_stmt 0
	jmp	LBB12_12
LBB12_6:
	.loc	15 0 94
	movq	-272(%rbp), %rax
	.loc	15 275 26 is_stmt 1
	movq	%rax, -120(%rbp)
Ltmp161:
	.loc	6 326 9
	movq	%rax, -112(%rbp)
Ltmp162:
	.loc	5 1300 9
	movq	%rax, -104(%rbp)
Ltmp163:
	.loc	5 60 9
	movq	%rax, -96(%rbp)
Ltmp164:
	.loc	5 1282 9
	movq	%rax, -88(%rbp)
Ltmp165:
	.loc	5 568 18
	addq	$-1, %rax
	movq	%rax, -80(%rbp)
	movq	-80(%rbp), %rax
	movq	%rax, -296(%rbp)
	jmp	LBB12_10
Ltmp166:
LBB12_7:
	.loc	15 283 1
	testb	$1, -201(%rbp)
	jne	LBB12_19
	jmp	LBB12_18
LBB12_8:
Ltmp148:
	.loc	15 0 1 is_stmt 0
	movq	%rax, %rcx
	movl	%edx, %eax
	movq	%rcx, -136(%rbp)
	movl	%eax, -128(%rbp)
	jmp	LBB12_7
LBB12_9:
	ud2
LBB12_10:
	movq	-296(%rbp), %rax
Ltmp167:
	.loc	5 568 18 is_stmt 1
	movq	%rax, -72(%rbp)
Ltmp168:
	.loc	5 99 33
	movq	%rax, -64(%rbp)
Ltmp169:
	.loc	4 135 36
	movq	%rax, -192(%rbp)
	.loc	4 135 14 is_stmt 0
	movq	-192(%rbp), %rax
	movq	%rax, -200(%rbp)
	movq	-200(%rbp), %rax
	movq	%rax, -56(%rbp)
Ltmp170:
	.loc	5 60 9 is_stmt 1
	movq	%rax, -48(%rbp)
Ltmp171:
	.loc	15 276 31
	movb	$0, -201(%rbp)
	movq	%rax, -216(%rbp)
	movq	-216(%rbp), %rdi
Ltmp140:
	callq	__ZN3std2io5error14repr_bitpacked4Repr4data28_$u7b$$u7b$closure$u7d$$u7d$17h79c6242b5d8016a9E
Ltmp141:
	movq	%rax, -304(%rbp)
	jmp	LBB12_11
LBB12_11:
	.loc	15 0 31 is_stmt 0
	movq	-264(%rbp), %rax
	movq	-304(%rbp), %rcx
	.loc	15 276 13
	movq	%rcx, 8(%rax)
	movb	$3, (%rax)
Ltmp172:
LBB12_12:
	.loc	15 283 1 is_stmt 1
	testb	$1, -201(%rbp)
	jne	LBB12_21
	jmp	LBB12_20
LBB12_13:
	.loc	15 0 1 is_stmt 0
	movb	-281(%rbp), %al
Ltmp173:
	.loc	15 258 24 is_stmt 1
	movb	%al, -233(%rbp)
	.loc	15 258 65 is_stmt 0
	leaq	-248(%rbp), %rax
	movq	%rax, -232(%rbp)
Ltmp174:
	.file	18 "/rustc/2c8cc343237b8f7d5a3c3703e3a87f2eb2c54a74/library/core/src" "option.rs"
	.loc	18 871 15 is_stmt 1
	movl	$1, %eax
	xorl	%ecx, %ecx
	cmpb	$41, -233(%rbp)
	cmoveq	%rcx, %rax
	.loc	18 871 9 is_stmt 0
	cmpq	$0, %rax
	jne	LBB12_15
	.loc	18 873 21 is_stmt 1
	movq	-232(%rbp), %rdi
Ltmp144:
	callq	__ZN3std2io5error14repr_bitpacked11decode_repr28_$u7b$$u7b$closure$u7d$$u7d$17h8fc2548ce53055d9E
Ltmp145:
	movb	%al, -305(%rbp)
	jmp	LBB12_17
LBB12_15:
	.loc	18 872 18
	movb	-233(%rbp), %al
	movb	%al, -5(%rbp)
Ltmp175:
	.loc	18 872 24 is_stmt 0
	movb	%al, -234(%rbp)
Ltmp176:
LBB12_16:
	.loc	18 0 24
	movq	-264(%rbp), %rax
Ltmp177:
	.loc	15 268 31 is_stmt 1
	movb	-234(%rbp), %cl
	.loc	15 268 13 is_stmt 0
	movb	%cl, 1(%rax)
	movb	$1, (%rax)
Ltmp178:
	.loc	15 269 9 is_stmt 1
	jmp	LBB12_12
LBB12_17:
	.loc	15 0 9 is_stmt 0
	movb	-305(%rbp), %al
Ltmp179:
	.loc	18 873 21 is_stmt 1
	movb	%al, -234(%rbp)
	.loc	18 873 23 is_stmt 0
	jmp	LBB12_16
Ltmp180:
LBB12_18:
	.loc	15 246 1 is_stmt 1
	movq	-136(%rbp), %rdi
	callq	__Unwind_Resume
LBB12_19:
	.loc	15 283 1
	jmp	LBB12_18
LBB12_20:
	.loc	15 0 1 is_stmt 0
	movq	-256(%rbp), %rax
	.loc	15 283 2
	addq	$320, %rsp
	popq	%rbp
	retq
LBB12_21:
	.loc	15 283 1
	jmp	LBB12_20
Ltmp181:
Lfunc_end12:
	.cfi_endproc
	.p2align	2, 0x90
	.data_region jt32
.set L12_0_set_5, LBB12_5-LJTI12_0
.set L12_0_set_6, LBB12_6-LJTI12_0
.set L12_0_set_3, LBB12_3-LJTI12_0
.set L12_0_set_4, LBB12_4-LJTI12_0
LJTI12_0:
	.long	L12_0_set_5
	.long	L12_0_set_6
	.long	L12_0_set_3
	.long	L12_0_set_4
	.end_data_region
	.section	__TEXT,__gcc_except_tab
	.p2align	2
GCC_except_table12:
Lexception5:
	.byte	255
	.byte	255
	.byte	1
	.uleb128 Lcst_end5-Lcst_begin5
Lcst_begin5:
	.uleb128 Ltmp146-Lfunc_begin12
	.uleb128 Ltmp145-Ltmp146
	.uleb128 Ltmp148-Lfunc_begin12
	.byte	0
	.uleb128 Ltmp145-Lfunc_begin12
	.uleb128 Lfunc_end12-Ltmp145
	.byte	0
	.byte	0
Lcst_end5:
	.p2align	2

	.section	__TEXT,__text,regular,pure_instructions
	.p2align	4, 0x90
__ZN3std2io5error14repr_bitpacked11decode_repr17h677a034c1856f3a0E:
Lfunc_begin13:
	.loc	15 246 0 is_stmt 1
	.cfi_startproc
	.cfi_personality 155, _rust_eh_personality
	.cfi_lsda 16, Lexception6
	pushq	%rbp
	.cfi_def_cfa_offset 16
	.cfi_offset %rbp, -16
	movq	%rsp, %rbp
	.cfi_def_cfa_register %rbp
	subq	$320, %rsp
	movq	%rsi, -272(%rbp)
	movq	%rdi, -264(%rbp)
	movq	%rdi, -256(%rbp)
	movq	%rsi, -184(%rbp)
Ltmp191:
	.loc	15 250 9 prologue_end
	movb	$1, -201(%rbp)
	.loc	15 250 16 is_stmt 0
	movq	%rsi, -160(%rbp)
Ltmp192:
	.loc	6 326 9 is_stmt 1
	movq	%rsi, -152(%rbp)
Ltmp193:
	.loc	5 215 33
	movq	%rsi, -144(%rbp)
	.loc	5 215 18 is_stmt 0
	movq	%rsi, -248(%rbp)
Ltmp194:
	.loc	15 251 11 is_stmt 1
	movq	-248(%rbp), %rax
	andl	$3, %eax
	movq	%rax, -280(%rbp)
	.loc	15 251 5 is_stmt 0
	subq	$3, %rax
	ja	LBB13_2
	.loc	15 0 5
	movq	-280(%rbp), %rax
	leaq	LJTI13_0(%rip), %rcx
	movslq	(%rcx,%rax,4), %rax
	addq	%rcx, %rax
	jmpq	*%rax
LBB13_2:
Ltmp188:
	.loc	15 280 13 is_stmt 1
	leaq	l___unnamed_10(%rip), %rdi
	leaq	l___unnamed_11(%rip), %rdx
	movl	$40, %esi
	callq	__ZN4core9panicking5panic17hc1bc45270cf64b03E
Ltmp189:
	jmp	LBB13_9
LBB13_3:
	.loc	15 0 13 is_stmt 0
	movq	-264(%rbp), %rax
	.loc	15 253 26 is_stmt 1
	movq	-248(%rbp), %rcx
	.loc	15 253 24 is_stmt 0
	sarq	$32, %rcx
	movl	%ecx, -4(%rbp)
Ltmp195:
	.loc	15 254 13 is_stmt 1
	movl	%ecx, 4(%rax)
	movb	$0, (%rax)
Ltmp196:
	.loc	15 255 9
	jmp	LBB13_12
LBB13_4:
	.loc	15 257 30
	movl	-244(%rbp), %edi
	.loc	15 257 29 is_stmt 0
	movl	%edi, -12(%rbp)
Ltmp184:
Ltmp197:
	.loc	15 258 24 is_stmt 1
	callq	__ZN3std2io5error14repr_bitpacked14kind_from_prim17h45e51caf6a6cb18cE
Ltmp185:
	movb	%al, -281(%rbp)
	jmp	LBB13_13
Ltmp198:
LBB13_5:
	.loc	15 0 24 is_stmt 0
	movq	-264(%rbp), %rax
	movq	-272(%rbp), %rcx
	.loc	15 270 58 is_stmt 1
	movq	%rcx, -40(%rbp)
Ltmp199:
	.loc	6 450 41
	movq	%rcx, -32(%rbp)
	movq	%rcx, -24(%rbp)
Ltmp200:
	.loc	6 201 13
	movq	%rcx, -224(%rbp)
Ltmp201:
	.loc	6 326 9
	movq	-224(%rbp), %rcx
Ltmp202:
	.loc	15 270 31
	movq	%rcx, 8(%rax)
	movb	$2, (%rax)
	.loc	15 270 94 is_stmt 0
	jmp	LBB13_12
LBB13_6:
	.loc	15 0 94
	movq	-272(%rbp), %rax
	.loc	15 275 26 is_stmt 1
	movq	%rax, -120(%rbp)
Ltmp203:
	.loc	6 326 9
	movq	%rax, -112(%rbp)
Ltmp204:
	.loc	5 1300 9
	movq	%rax, -104(%rbp)
Ltmp205:
	.loc	5 60 9
	movq	%rax, -96(%rbp)
Ltmp206:
	.loc	5 1282 9
	movq	%rax, -88(%rbp)
Ltmp207:
	.loc	5 568 18
	addq	$-1, %rax
	movq	%rax, -80(%rbp)
	movq	-80(%rbp), %rax
	movq	%rax, -296(%rbp)
	jmp	LBB13_10
Ltmp208:
LBB13_7:
	.loc	15 283 1
	testb	$1, -201(%rbp)
	jne	LBB13_19
	jmp	LBB13_18
LBB13_8:
Ltmp190:
	.loc	15 0 1 is_stmt 0
	movq	%rax, %rcx
	movl	%edx, %eax
	movq	%rcx, -136(%rbp)
	movl	%eax, -128(%rbp)
	jmp	LBB13_7
LBB13_9:
	ud2
LBB13_10:
	movq	-296(%rbp), %rax
Ltmp209:
	.loc	5 568 18 is_stmt 1
	movq	%rax, -72(%rbp)
Ltmp210:
	.loc	5 99 33
	movq	%rax, -64(%rbp)
Ltmp211:
	.loc	4 135 36
	movq	%rax, -192(%rbp)
	.loc	4 135 14 is_stmt 0
	movq	-192(%rbp), %rax
	movq	%rax, -200(%rbp)
	movq	-200(%rbp), %rax
	movq	%rax, -56(%rbp)
Ltmp212:
	.loc	5 60 9 is_stmt 1
	movq	%rax, -48(%rbp)
Ltmp213:
	.loc	15 276 31
	movb	$0, -201(%rbp)
	movq	%rax, -216(%rbp)
	movq	-216(%rbp), %rdi
Ltmp182:
	callq	__ZN78_$LT$std..io..error..repr_bitpacked..Repr$u20$as$u20$core..ops..drop..Drop$GT$4drop28_$u7b$$u7b$closure$u7d$$u7d$17hb4d71329e0ed7c10E
Ltmp183:
	movq	%rax, -304(%rbp)
	jmp	LBB13_11
LBB13_11:
	.loc	15 0 31 is_stmt 0
	movq	-264(%rbp), %rax
	movq	-304(%rbp), %rcx
	.loc	15 276 13
	movq	%rcx, 8(%rax)
	movb	$3, (%rax)
Ltmp214:
LBB13_12:
	.loc	15 283 1 is_stmt 1
	testb	$1, -201(%rbp)
	jne	LBB13_21
	jmp	LBB13_20
LBB13_13:
	.loc	15 0 1 is_stmt 0
	movb	-281(%rbp), %al
Ltmp215:
	.loc	15 258 24 is_stmt 1
	movb	%al, -233(%rbp)
	.loc	15 258 65 is_stmt 0
	leaq	-248(%rbp), %rax
	movq	%rax, -232(%rbp)
Ltmp216:
	.loc	18 871 15 is_stmt 1
	movl	$1, %eax
	xorl	%ecx, %ecx
	cmpb	$41, -233(%rbp)
	cmoveq	%rcx, %rax
	.loc	18 871 9 is_stmt 0
	cmpq	$0, %rax
	jne	LBB13_15
	.loc	18 873 21 is_stmt 1
	movq	-232(%rbp), %rdi
Ltmp186:
	callq	__ZN3std2io5error14repr_bitpacked11decode_repr28_$u7b$$u7b$closure$u7d$$u7d$17h300056669b012297E
Ltmp187:
	movb	%al, -305(%rbp)
	jmp	LBB13_17
LBB13_15:
	.loc	18 872 18
	movb	-233(%rbp), %al
	movb	%al, -5(%rbp)
Ltmp217:
	.loc	18 872 24 is_stmt 0
	movb	%al, -234(%rbp)
Ltmp218:
LBB13_16:
	.loc	18 0 24
	movq	-264(%rbp), %rax
Ltmp219:
	.loc	15 268 31 is_stmt 1
	movb	-234(%rbp), %cl
	.loc	15 268 13 is_stmt 0
	movb	%cl, 1(%rax)
	movb	$1, (%rax)
Ltmp220:
	.loc	15 269 9 is_stmt 1
	jmp	LBB13_12
LBB13_17:
	.loc	15 0 9 is_stmt 0
	movb	-305(%rbp), %al
Ltmp221:
	.loc	18 873 21 is_stmt 1
	movb	%al, -234(%rbp)
	.loc	18 873 23 is_stmt 0
	jmp	LBB13_16
Ltmp222:
LBB13_18:
	.loc	15 246 1 is_stmt 1
	movq	-136(%rbp), %rdi
	callq	__Unwind_Resume
LBB13_19:
	.loc	15 283 1
	jmp	LBB13_18
LBB13_20:
	.loc	15 0 1 is_stmt 0
	movq	-256(%rbp), %rax
	.loc	15 283 2
	addq	$320, %rsp
	popq	%rbp
	retq
LBB13_21:
	.loc	15 283 1
	jmp	LBB13_20
Ltmp223:
Lfunc_end13:
	.cfi_endproc
	.p2align	2, 0x90
	.data_region jt32
.set L13_0_set_5, LBB13_5-LJTI13_0
.set L13_0_set_6, LBB13_6-LJTI13_0
.set L13_0_set_3, LBB13_3-LJTI13_0
.set L13_0_set_4, LBB13_4-LJTI13_0
LJTI13_0:
	.long	L13_0_set_5
	.long	L13_0_set_6
	.long	L13_0_set_3
	.long	L13_0_set_4
	.end_data_region
	.section	__TEXT,__gcc_except_tab
	.p2align	2
GCC_except_table13:
Lexception6:
	.byte	255
	.byte	255
	.byte	1
	.uleb128 Lcst_end6-Lcst_begin6
Lcst_begin6:
	.uleb128 Ltmp188-Lfunc_begin13
	.uleb128 Ltmp187-Ltmp188
	.uleb128 Ltmp190-Lfunc_begin13
	.byte	0
	.uleb128 Ltmp187-Lfunc_begin13
	.uleb128 Lfunc_end13-Ltmp187
	.byte	0
	.byte	0
Lcst_end6:
	.p2align	2

	.section	__TEXT,__text,regular,pure_instructions
	.p2align	4, 0x90
__ZN3std2io5error14repr_bitpacked11decode_repr28_$u7b$$u7b$closure$u7d$$u7d$17h300056669b012297E:
Lfunc_begin14:
	.loc	15 258 0 is_stmt 1
	.cfi_startproc
	pushq	%rbp
	.cfi_def_cfa_offset 16
	.cfi_offset %rbp, -16
	movq	%rsp, %rbp
	.cfi_def_cfa_register %rbp
	subq	$16, %rsp
	movq	%rdi, -16(%rbp)
Ltmp224:
	.loc	15 266 17 prologue_end
	callq	__ZN4core4hint21unreachable_unchecked17h12dc8325387ffcb7E
Ltmp225:
Lfunc_end14:
	.cfi_endproc

	.p2align	4, 0x90
__ZN3std2io5error14repr_bitpacked11decode_repr28_$u7b$$u7b$closure$u7d$$u7d$17h8fc2548ce53055d9E:
Lfunc_begin15:
	.loc	15 258 0
	.cfi_startproc
	pushq	%rbp
	.cfi_def_cfa_offset 16
	.cfi_offset %rbp, -16
	movq	%rsp, %rbp
	.cfi_def_cfa_register %rbp
	subq	$16, %rsp
	movq	%rdi, -16(%rbp)
Ltmp226:
	.loc	15 266 17 prologue_end
	callq	__ZN4core4hint21unreachable_unchecked17h12dc8325387ffcb7E
Ltmp227:
Lfunc_end15:
	.cfi_endproc

	.p2align	4, 0x90
__ZN3std2io5error14repr_bitpacked14kind_from_prim17h45e51caf6a6cb18cE:
Lfunc_begin16:
	.loc	15 289 0
	.cfi_startproc
	pushq	%rbp
	.cfi_def_cfa_offset 16
	.cfi_offset %rbp, -16
	movq	%rsp, %rbp
	.cfi_def_cfa_register %rbp
	subq	$336, %rsp
	movl	%edi, -336(%rbp)
Ltmp228:
	.loc	15 302 5 prologue_end
	leaq	-336(%rbp), %rax
	movq	%rax, -328(%rbp)
	cmpl	$0, -336(%rbp)
	je	LBB16_2
	leaq	-336(%rbp), %rax
	movq	%rax, -320(%rbp)
	cmpl	$1, -336(%rbp)
	je	LBB16_5
	jmp	LBB16_4
LBB16_2:
Ltmp229:
	.loc	15 302 5 is_stmt 0
	movb	$0, -329(%rbp)
Ltmp230:
LBB16_3:
	.loc	15 345 2 is_stmt 1
	movb	-329(%rbp), %al
	addq	$336, %rsp
	popq	%rbp
	retq
LBB16_4:
	.loc	15 302 5
	leaq	-336(%rbp), %rax
	movq	%rax, -312(%rbp)
	cmpl	$2, -336(%rbp)
	je	LBB16_7
	jmp	LBB16_6
LBB16_5:
Ltmp231:
	.loc	15 302 5 is_stmt 0
	movb	$1, -329(%rbp)
Ltmp232:
	.loc	15 302 5
	jmp	LBB16_3
LBB16_6:
	leaq	-336(%rbp), %rax
	movq	%rax, -304(%rbp)
	cmpl	$3, -336(%rbp)
	je	LBB16_9
	jmp	LBB16_8
LBB16_7:
Ltmp233:
	.loc	15 302 5
	movb	$2, -329(%rbp)
Ltmp234:
	.loc	15 302 5
	jmp	LBB16_3
LBB16_8:
	leaq	-336(%rbp), %rax
	movq	%rax, -296(%rbp)
	cmpl	$4, -336(%rbp)
	je	LBB16_11
	jmp	LBB16_10
LBB16_9:
Ltmp235:
	.loc	15 302 5
	movb	$3, -329(%rbp)
Ltmp236:
	.loc	15 302 5
	jmp	LBB16_3
LBB16_10:
	leaq	-336(%rbp), %rax
	movq	%rax, -288(%rbp)
	cmpl	$5, -336(%rbp)
	je	LBB16_13
	jmp	LBB16_12
LBB16_11:
Ltmp237:
	.loc	15 302 5
	movb	$4, -329(%rbp)
Ltmp238:
	.loc	15 302 5
	jmp	LBB16_3
LBB16_12:
	leaq	-336(%rbp), %rax
	movq	%rax, -280(%rbp)
	cmpl	$6, -336(%rbp)
	je	LBB16_15
	jmp	LBB16_14
LBB16_13:
Ltmp239:
	.loc	15 302 5
	movb	$5, -329(%rbp)
Ltmp240:
	.loc	15 302 5
	jmp	LBB16_3
LBB16_14:
	leaq	-336(%rbp), %rax
	movq	%rax, -272(%rbp)
	cmpl	$7, -336(%rbp)
	je	LBB16_17
	jmp	LBB16_16
LBB16_15:
Ltmp241:
	.loc	15 302 5
	movb	$6, -329(%rbp)
Ltmp242:
	.loc	15 302 5
	jmp	LBB16_3
LBB16_16:
	leaq	-336(%rbp), %rax
	movq	%rax, -264(%rbp)
	cmpl	$8, -336(%rbp)
	je	LBB16_19
	jmp	LBB16_18
LBB16_17:
Ltmp243:
	.loc	15 302 5
	movb	$7, -329(%rbp)
Ltmp244:
	.loc	15 302 5
	jmp	LBB16_3
LBB16_18:
	leaq	-336(%rbp), %rax
	movq	%rax, -256(%rbp)
	cmpl	$9, -336(%rbp)
	je	LBB16_21
	jmp	LBB16_20
LBB16_19:
Ltmp245:
	.loc	15 302 5
	movb	$8, -329(%rbp)
Ltmp246:
	.loc	15 302 5
	jmp	LBB16_3
LBB16_20:
	leaq	-336(%rbp), %rax
	movq	%rax, -248(%rbp)
	cmpl	$10, -336(%rbp)
	je	LBB16_23
	jmp	LBB16_22
LBB16_21:
Ltmp247:
	.loc	15 302 5
	movb	$9, -329(%rbp)
Ltmp248:
	.loc	15 302 5
	jmp	LBB16_3
LBB16_22:
	leaq	-336(%rbp), %rax
	movq	%rax, -240(%rbp)
	cmpl	$11, -336(%rbp)
	je	LBB16_25
	jmp	LBB16_24
LBB16_23:
Ltmp249:
	.loc	15 302 5
	movb	$10, -329(%rbp)
Ltmp250:
	.loc	15 302 5
	jmp	LBB16_3
LBB16_24:
	leaq	-336(%rbp), %rax
	movq	%rax, -232(%rbp)
	cmpl	$12, -336(%rbp)
	je	LBB16_27
	jmp	LBB16_26
LBB16_25:
Ltmp251:
	.loc	15 302 5
	movb	$11, -329(%rbp)
Ltmp252:
	.loc	15 302 5
	jmp	LBB16_3
LBB16_26:
	leaq	-336(%rbp), %rax
	movq	%rax, -224(%rbp)
	cmpl	$13, -336(%rbp)
	je	LBB16_29
	jmp	LBB16_28
LBB16_27:
Ltmp253:
	.loc	15 302 5
	movb	$12, -329(%rbp)
Ltmp254:
	.loc	15 302 5
	jmp	LBB16_3
LBB16_28:
	leaq	-336(%rbp), %rax
	movq	%rax, -216(%rbp)
	cmpl	$14, -336(%rbp)
	je	LBB16_31
	jmp	LBB16_30
LBB16_29:
Ltmp255:
	.loc	15 302 5
	movb	$13, -329(%rbp)
Ltmp256:
	.loc	15 302 5
	jmp	LBB16_3
LBB16_30:
	leaq	-336(%rbp), %rax
	movq	%rax, -208(%rbp)
	cmpl	$15, -336(%rbp)
	je	LBB16_33
	jmp	LBB16_32
LBB16_31:
Ltmp257:
	.loc	15 302 5
	movb	$14, -329(%rbp)
Ltmp258:
	.loc	15 302 5
	jmp	LBB16_3
LBB16_32:
	leaq	-336(%rbp), %rax
	movq	%rax, -200(%rbp)
	cmpl	$16, -336(%rbp)
	je	LBB16_35
	jmp	LBB16_34
LBB16_33:
Ltmp259:
	.loc	15 302 5
	movb	$15, -329(%rbp)
Ltmp260:
	.loc	15 302 5
	jmp	LBB16_3
LBB16_34:
	leaq	-336(%rbp), %rax
	movq	%rax, -192(%rbp)
	cmpl	$17, -336(%rbp)
	je	LBB16_37
	jmp	LBB16_36
LBB16_35:
Ltmp261:
	.loc	15 302 5
	movb	$16, -329(%rbp)
Ltmp262:
	.loc	15 302 5
	jmp	LBB16_3
LBB16_36:
	leaq	-336(%rbp), %rax
	movq	%rax, -184(%rbp)
	cmpl	$18, -336(%rbp)
	je	LBB16_39
	jmp	LBB16_38
LBB16_37:
Ltmp263:
	.loc	15 302 5
	movb	$17, -329(%rbp)
Ltmp264:
	.loc	15 302 5
	jmp	LBB16_3
LBB16_38:
	leaq	-336(%rbp), %rax
	movq	%rax, -176(%rbp)
	cmpl	$19, -336(%rbp)
	je	LBB16_41
	jmp	LBB16_40
LBB16_39:
Ltmp265:
	.loc	15 302 5
	movb	$18, -329(%rbp)
Ltmp266:
	.loc	15 302 5
	jmp	LBB16_3
LBB16_40:
	leaq	-336(%rbp), %rax
	movq	%rax, -168(%rbp)
	cmpl	$20, -336(%rbp)
	je	LBB16_43
	jmp	LBB16_42
LBB16_41:
Ltmp267:
	.loc	15 302 5
	movb	$19, -329(%rbp)
Ltmp268:
	.loc	15 302 5
	jmp	LBB16_3
LBB16_42:
	leaq	-336(%rbp), %rax
	movq	%rax, -160(%rbp)
	cmpl	$21, -336(%rbp)
	je	LBB16_45
	jmp	LBB16_44
LBB16_43:
Ltmp269:
	.loc	15 302 5
	movb	$20, -329(%rbp)
Ltmp270:
	.loc	15 302 5
	jmp	LBB16_3
LBB16_44:
	leaq	-336(%rbp), %rax
	movq	%rax, -152(%rbp)
	cmpl	$22, -336(%rbp)
	je	LBB16_47
	jmp	LBB16_46
LBB16_45:
Ltmp271:
	.loc	15 302 5
	movb	$21, -329(%rbp)
Ltmp272:
	.loc	15 302 5
	jmp	LBB16_3
LBB16_46:
	leaq	-336(%rbp), %rax
	movq	%rax, -144(%rbp)
	cmpl	$23, -336(%rbp)
	je	LBB16_49
	jmp	LBB16_48
LBB16_47:
Ltmp273:
	.loc	15 302 5
	movb	$22, -329(%rbp)
Ltmp274:
	.loc	15 302 5
	jmp	LBB16_3
LBB16_48:
	leaq	-336(%rbp), %rax
	movq	%rax, -136(%rbp)
	cmpl	$24, -336(%rbp)
	je	LBB16_51
	jmp	LBB16_50
LBB16_49:
Ltmp275:
	.loc	15 302 5
	movb	$23, -329(%rbp)
Ltmp276:
	.loc	15 302 5
	jmp	LBB16_3
LBB16_50:
	leaq	-336(%rbp), %rax
	movq	%rax, -128(%rbp)
	cmpl	$25, -336(%rbp)
	je	LBB16_53
	jmp	LBB16_52
LBB16_51:
Ltmp277:
	.loc	15 302 5
	movb	$24, -329(%rbp)
Ltmp278:
	.loc	15 302 5
	jmp	LBB16_3
LBB16_52:
	leaq	-336(%rbp), %rax
	movq	%rax, -120(%rbp)
	cmpl	$26, -336(%rbp)
	je	LBB16_55
	jmp	LBB16_54
LBB16_53:
Ltmp279:
	.loc	15 302 5
	movb	$25, -329(%rbp)
Ltmp280:
	.loc	15 302 5
	jmp	LBB16_3
LBB16_54:
	leaq	-336(%rbp), %rax
	movq	%rax, -112(%rbp)
	cmpl	$27, -336(%rbp)
	je	LBB16_57
	jmp	LBB16_56
LBB16_55:
Ltmp281:
	.loc	15 302 5
	movb	$26, -329(%rbp)
Ltmp282:
	.loc	15 302 5
	jmp	LBB16_3
LBB16_56:
	leaq	-336(%rbp), %rax
	movq	%rax, -104(%rbp)
	cmpl	$28, -336(%rbp)
	je	LBB16_59
	jmp	LBB16_58
LBB16_57:
Ltmp283:
	.loc	15 302 5
	movb	$27, -329(%rbp)
Ltmp284:
	.loc	15 302 5
	jmp	LBB16_3
LBB16_58:
	leaq	-336(%rbp), %rax
	movq	%rax, -96(%rbp)
	cmpl	$29, -336(%rbp)
	je	LBB16_61
	jmp	LBB16_60
LBB16_59:
Ltmp285:
	.loc	15 302 5
	movb	$28, -329(%rbp)
Ltmp286:
	.loc	15 302 5
	jmp	LBB16_3
LBB16_60:
	leaq	-336(%rbp), %rax
	movq	%rax, -88(%rbp)
	cmpl	$30, -336(%rbp)
	je	LBB16_63
	jmp	LBB16_62
LBB16_61:
Ltmp287:
	.loc	15 302 5
	movb	$29, -329(%rbp)
Ltmp288:
	.loc	15 302 5
	jmp	LBB16_3
LBB16_62:
	leaq	-336(%rbp), %rax
	movq	%rax, -80(%rbp)
	cmpl	$31, -336(%rbp)
	je	LBB16_65
	jmp	LBB16_64
LBB16_63:
Ltmp289:
	.loc	15 302 5
	movb	$30, -329(%rbp)
Ltmp290:
	.loc	15 302 5
	jmp	LBB16_3
LBB16_64:
	leaq	-336(%rbp), %rax
	movq	%rax, -72(%rbp)
	cmpl	$32, -336(%rbp)
	je	LBB16_67
	jmp	LBB16_66
LBB16_65:
Ltmp291:
	.loc	15 302 5
	movb	$31, -329(%rbp)
Ltmp292:
	.loc	15 302 5
	jmp	LBB16_3
LBB16_66:
	leaq	-336(%rbp), %rax
	movq	%rax, -64(%rbp)
	cmpl	$33, -336(%rbp)
	je	LBB16_69
	jmp	LBB16_68
LBB16_67:
Ltmp293:
	.loc	15 302 5
	movb	$32, -329(%rbp)
Ltmp294:
	.loc	15 302 5
	jmp	LBB16_3
LBB16_68:
	leaq	-336(%rbp), %rax
	movq	%rax, -56(%rbp)
	cmpl	$34, -336(%rbp)
	je	LBB16_71
	jmp	LBB16_70
LBB16_69:
Ltmp295:
	.loc	15 302 5
	movb	$33, -329(%rbp)
Ltmp296:
	.loc	15 302 5
	jmp	LBB16_3
LBB16_70:
	leaq	-336(%rbp), %rax
	movq	%rax, -48(%rbp)
	cmpl	$35, -336(%rbp)
	je	LBB16_73
	jmp	LBB16_72
LBB16_71:
Ltmp297:
	.loc	15 302 5
	movb	$34, -329(%rbp)
Ltmp298:
	.loc	15 302 5
	jmp	LBB16_3
LBB16_72:
	leaq	-336(%rbp), %rax
	movq	%rax, -40(%rbp)
	cmpl	$39, -336(%rbp)
	je	LBB16_75
	jmp	LBB16_74
LBB16_73:
Ltmp299:
	.loc	15 302 5
	movb	$35, -329(%rbp)
Ltmp300:
	.loc	15 302 5
	jmp	LBB16_3
LBB16_74:
	leaq	-336(%rbp), %rax
	movq	%rax, -32(%rbp)
	cmpl	$37, -336(%rbp)
	je	LBB16_77
	jmp	LBB16_76
LBB16_75:
Ltmp301:
	.loc	15 302 5
	movb	$39, -329(%rbp)
Ltmp302:
	.loc	15 302 5
	jmp	LBB16_3
LBB16_76:
	leaq	-336(%rbp), %rax
	movq	%rax, -24(%rbp)
	cmpl	$36, -336(%rbp)
	je	LBB16_79
	jmp	LBB16_78
LBB16_77:
Ltmp303:
	.loc	15 302 5
	movb	$37, -329(%rbp)
Ltmp304:
	.loc	15 302 5
	jmp	LBB16_3
LBB16_78:
	leaq	-336(%rbp), %rax
	movq	%rax, -16(%rbp)
	cmpl	$38, -336(%rbp)
	je	LBB16_81
	jmp	LBB16_80
LBB16_79:
Ltmp305:
	.loc	15 302 5
	movb	$36, -329(%rbp)
Ltmp306:
	.loc	15 302 5
	jmp	LBB16_3
LBB16_80:
	leaq	-336(%rbp), %rax
	movq	%rax, -8(%rbp)
	cmpl	$40, -336(%rbp)
	je	LBB16_83
	jmp	LBB16_82
LBB16_81:
Ltmp307:
	.loc	15 302 5
	movb	$38, -329(%rbp)
Ltmp308:
	.loc	15 302 5
	jmp	LBB16_3
LBB16_82:
	movb	$41, -329(%rbp)
	jmp	LBB16_3
LBB16_83:
Ltmp309:
	.loc	15 302 5
	movb	$40, -329(%rbp)
Ltmp310:
	.loc	15 302 5
	jmp	LBB16_3
Ltmp311:
Lfunc_end16:
	.cfi_endproc

	.p2align	4, 0x90
__ZN3std2io5error14repr_bitpacked4Repr4data28_$u7b$$u7b$closure$u7d$$u7d$17h79c6242b5d8016a9E:
Lfunc_begin17:
	.loc	15 212 0 is_stmt 1
	.cfi_startproc
	pushq	%rbp
	.cfi_def_cfa_offset 16
	.cfi_offset %rbp, -16
	movq	%rsp, %rbp
	.cfi_def_cfa_register %rbp
	subq	$16, %rsp
	movq	%rdi, %rax
	movq	%rax, -8(%rbp)
Ltmp312:
	.loc	15 212 45 prologue_end
	addq	$16, %rsp
	popq	%rbp
	retq
Ltmp313:
Lfunc_end17:
	.cfi_endproc

	.p2align	4, 0x90
__ZN3std2io5error5Error4kind17h37ab5e1347943661E:
Lfunc_begin18:
	.loc	13 893 0
	.cfi_startproc
	pushq	%rbp
	.cfi_def_cfa_offset 16
	.cfi_offset %rbp, -16
	movq	%rsp, %rbp
	.cfi_def_cfa_register %rbp
	subq	$80, %rsp
	movq	%rdi, -40(%rbp)
Ltmp314:
	.loc	13 894 15 prologue_end
	movq	%rdi, -32(%rbp)
Ltmp315:
	.loc	15 212 30
	movq	(%rdi), %rsi
	leaq	-56(%rbp), %rdi
	.loc	15 212 18 is_stmt 0
	callq	__ZN3std2io5error14repr_bitpacked11decode_repr17h29098058fcc61410E
Ltmp316:
	.loc	13 894 15 is_stmt 1
	movzbl	-56(%rbp), %eax
	movq	%rax, -72(%rbp)
	.loc	13 0 15 is_stmt 0
	movq	-72(%rbp), %rax
	leaq	LJTI18_0(%rip), %rcx
	movslq	(%rcx,%rax,4), %rax
	addq	%rcx, %rax
	jmpq	*%rax
	.loc	13 894 15
	ud2
LBB18_2:
	.loc	13 895 27 is_stmt 1
	movl	-52(%rbp), %edi
	movl	%edi, -4(%rbp)
Ltmp317:
	.loc	13 895 36 is_stmt 0
	callq	__ZN3std3sys4unix17decode_error_kind17h50ab8511eed7ed72E
	movb	%al, -57(%rbp)
Ltmp318:
	.loc	13 895 63
	jmp	LBB18_6
LBB18_3:
	.loc	13 897 31 is_stmt 1
	movb	-55(%rbp), %al
	movb	%al, -5(%rbp)
Ltmp319:
	.loc	13 897 40 is_stmt 0
	movb	%al, -57(%rbp)
Ltmp320:
	.loc	13 897 43
	jmp	LBB18_6
LBB18_4:
	.loc	13 898 38 is_stmt 1
	movq	-48(%rbp), %rax
	movq	%rax, -16(%rbp)
Ltmp321:
	.loc	13 898 44 is_stmt 0
	movb	16(%rax), %al
	movb	%al, -57(%rbp)
Ltmp322:
	.loc	13 898 49
	jmp	LBB18_6
LBB18_5:
	.loc	13 896 31 is_stmt 1
	movq	-48(%rbp), %rax
	movq	%rax, -24(%rbp)
Ltmp323:
	.loc	13 896 37 is_stmt 0
	movb	16(%rax), %al
	movb	%al, -57(%rbp)
Ltmp324:
LBB18_6:
	.loc	13 900 6 is_stmt 1
	movb	-57(%rbp), %al
	addq	$80, %rsp
	popq	%rbp
	retq
Ltmp325:
Lfunc_end18:
	.cfi_endproc
	.p2align	2, 0x90
	.data_region jt32
.set L18_0_set_2, LBB18_2-LJTI18_0
.set L18_0_set_3, LBB18_3-LJTI18_0
.set L18_0_set_4, LBB18_4-LJTI18_0
.set L18_0_set_5, LBB18_5-LJTI18_0
LJTI18_0:
	.long	L18_0_set_2
	.long	L18_0_set_3
	.long	L18_0_set_4
	.long	L18_0_set_5
	.end_data_region

	.private_extern	__ZN3std2rt10lang_start17ha32cd6fe45470fdbE
	.globl	__ZN3std2rt10lang_start17ha32cd6fe45470fdbE
	.p2align	4, 0x90
__ZN3std2rt10lang_start17ha32cd6fe45470fdbE:
Lfunc_begin19:
	.file	19 "/rustc/2c8cc343237b8f7d5a3c3703e3a87f2eb2c54a74/library/std/src" "rt.rs"
	.loc	19 159 0
	.cfi_startproc
	pushq	%rbp
	.cfi_def_cfa_offset 16
	.cfi_offset %rbp, -16
	movq	%rsp, %rbp
	.cfi_def_cfa_register %rbp
	subq	$64, %rsp
	movl	%ecx, %eax
	movq	%rdx, %rcx
	movq	%rsi, %rdx
	movq	%rdi, -40(%rbp)
	movq	%rdx, -32(%rbp)
	movq	%rcx, -24(%rbp)
	movb	%al, -9(%rbp)
Ltmp326:
	.loc	19 166 10 prologue_end
	movq	%rdi, -48(%rbp)
	.loc	19 165 17
	leaq	-48(%rbp), %rdi
	leaq	l___unnamed_2(%rip), %rsi
	movzbl	%al, %r8d
	callq	__ZN3std2rt19lang_start_internal17h72dc55d09e0a2397E
	movq	%rax, -56(%rbp)
	.loc	19 165 12 is_stmt 0
	movq	-56(%rbp), %rax
	movq	%rax, -8(%rbp)
	.loc	19 172 2 is_stmt 1
	addq	$64, %rsp
	popq	%rbp
	retq
Ltmp327:
Lfunc_end19:
	.cfi_endproc

	.p2align	4, 0x90
__ZN3std2rt10lang_start28_$u7b$$u7b$closure$u7d$$u7d$17h32837193c9cd9668E:
Lfunc_begin20:
	.loc	19 166 0
	.cfi_startproc
	pushq	%rbp
	.cfi_def_cfa_offset 16
	.cfi_offset %rbp, -16
	movq	%rsp, %rbp
	.cfi_def_cfa_register %rbp
	subq	$32, %rsp
	movq	%rdi, -16(%rbp)
Ltmp328:
	.loc	19 166 77 prologue_end
	movq	(%rdi), %rdi
	.loc	19 166 18 is_stmt 0
	callq	__ZN3std10sys_common9backtrace28__rust_begin_short_backtrace17hd3ba71e651750f2eE
	callq	__ZN54_$LT$$LP$$RP$$u20$as$u20$std..process..Termination$GT$6report17h8079d25e8a4a414dE
	movb	%al, -17(%rbp)
Ltmp329:
	.file	20 "/rustc/2c8cc343237b8f7d5a3c3703e3a87f2eb2c54a74/library/std/src" "process.rs"
	.loc	20 1820 9 is_stmt 1
	leaq	-17(%rbp), %rax
	movq	%rax, -8(%rbp)
Ltmp330:
	.file	21 "/rustc/2c8cc343237b8f7d5a3c3703e3a87f2eb2c54a74/library/std/src/sys/unix/process" "process_common.rs"
	.loc	21 594 9
	movzbl	-17(%rbp), %eax
Ltmp331:
	.loc	19 166 100
	addq	$32, %rsp
	popq	%rbp
	retq
Ltmp332:
Lfunc_end20:
	.cfi_endproc

	.p2align	4, 0x90
__ZN3std3env3var17h9bef73f310d32c59E:
Lfunc_begin21:
	.file	22 "/rustc/2c8cc343237b8f7d5a3c3703e3a87f2eb2c54a74/library/std/src" "env.rs"
	.loc	22 227 0
	.cfi_startproc
	.cfi_personality 155, _rust_eh_personality
	.cfi_lsda 16, Lexception7
	pushq	%rbp
	.cfi_def_cfa_offset 16
	.cfi_offset %rbp, -16
	movq	%rsp, %rbp
	.cfi_def_cfa_register %rbp
	subq	$64, %rsp
	movq	%rdi, -64(%rbp)
	movq	%rdi, -56(%rbp)
	movq	%rsi, -32(%rbp)
	movq	%rdx, -24(%rbp)
Ltmp333:
	leaq	-32(%rbp), %rdi
Ltmp338:
	.loc	22 228 10 prologue_end
	callq	__ZN55_$LT$$RF$T$u20$as$u20$core..convert..AsRef$LT$U$GT$$GT$6as_ref17h64697840b01135d1E
Ltmp334:
	movq	%rdx, -48(%rbp)
	movq	%rax, -40(%rbp)
	jmp	LBB21_3
LBB21_1:
	.loc	22 227 1
	movq	-16(%rbp), %rdi
	callq	__Unwind_Resume
LBB21_2:
Ltmp337:
	.loc	22 0 1 is_stmt 0
	movq	%rax, %rcx
	movl	%edx, %eax
	movq	%rcx, -16(%rbp)
	movl	%eax, -8(%rbp)
	jmp	LBB21_1
LBB21_3:
Ltmp335:
	movq	-48(%rbp), %rdx
	movq	-40(%rbp), %rsi
	movq	-64(%rbp), %rdi
	.loc	22 228 5 is_stmt 1
	callq	__ZN3std3env4_var17h3981769605209d03E
Ltmp336:
	jmp	LBB21_4
LBB21_4:
	.loc	22 0 5 is_stmt 0
	movq	-56(%rbp), %rax
	.loc	22 229 2 is_stmt 1
	addq	$64, %rsp
	popq	%rbp
	retq
Ltmp339:
Lfunc_end21:
	.cfi_endproc
	.section	__TEXT,__gcc_except_tab
	.p2align	2
GCC_except_table21:
Lexception7:
	.byte	255
	.byte	255
	.byte	1
	.uleb128 Lcst_end7-Lcst_begin7
Lcst_begin7:
	.uleb128 Ltmp333-Lfunc_begin21
	.uleb128 Ltmp334-Ltmp333
	.uleb128 Ltmp337-Lfunc_begin21
	.byte	0
	.uleb128 Ltmp334-Lfunc_begin21
	.uleb128 Ltmp335-Ltmp334
	.byte	0
	.byte	0
	.uleb128 Ltmp335-Lfunc_begin21
	.uleb128 Ltmp336-Ltmp335
	.uleb128 Ltmp337-Lfunc_begin21
	.byte	0
Lcst_end7:
	.p2align	2

	.section	__TEXT,__text,regular,pure_instructions
	.p2align	4, 0x90
__ZN3std3ffi6os_str103_$LT$impl$u20$core..convert..AsRef$LT$std..ffi..os_str..OsStr$GT$$u20$for$u20$alloc..string..String$GT$6as_ref17hb53e26ac78b2a33aE:
Lfunc_begin22:
	.file	23 "/rustc/2c8cc343237b8f7d5a3c3703e3a87f2eb2c54a74/library/std/src/ffi" "os_str.rs"
	.loc	23 1329 0
	.cfi_startproc
	pushq	%rbp
	.cfi_def_cfa_offset 16
	.cfi_offset %rbp, -16
	movq	%rsp, %rbp
	.cfi_def_cfa_register %rbp
	subq	$160, %rsp
	movq	%rdi, -160(%rbp)
Ltmp340:
	.loc	23 1330 12 prologue_end
	movq	%rdi, -152(%rbp)
Ltmp341:
	.file	24 "/rustc/2c8cc343237b8f7d5a3c3703e3a87f2eb2c54a74/library/alloc/src" "string.rs"
	.loc	24 2460 43
	callq	__ZN72_$LT$alloc..vec..Vec$LT$T$C$A$GT$$u20$as$u20$core..ops..deref..Deref$GT$5deref17h3433034c9f79467bE
	movq	%rax, -144(%rbp)
	movq	%rdx, -136(%rbp)
Ltmp342:
	.file	25 "/rustc/2c8cc343237b8f7d5a3c3703e3a87f2eb2c54a74/library/core/src/str" "converts.rs"
	.loc	25 173 14
	movq	%rax, -128(%rbp)
	movq	%rdx, -120(%rbp)
	movq	-128(%rbp), %rcx
	movq	-120(%rbp), %rax
Ltmp343:
	.loc	23 1330 9
	movq	%rcx, -112(%rbp)
	movq	%rax, -104(%rbp)
Ltmp344:
	.loc	23 1322 43
	movq	%rcx, -96(%rbp)
	movq	%rax, -88(%rbp)
Ltmp345:
	.file	26 "/rustc/2c8cc343237b8f7d5a3c3703e3a87f2eb2c54a74/library/std/src/sys/unix" "os_str.rs"
	.loc	26 201 30
	movq	%rcx, -80(%rbp)
	movq	%rax, -72(%rbp)
Ltmp346:
	.file	27 "/rustc/2c8cc343237b8f7d5a3c3703e3a87f2eb2c54a74/library/core/src/str" "mod.rs"
	.loc	27 327 18
	movq	%rcx, -64(%rbp)
	movq	%rax, -56(%rbp)
	movq	-64(%rbp), %rcx
	movq	-56(%rbp), %rax
Ltmp347:
	.loc	26 201 30
	movq	%rcx, -48(%rbp)
	movq	%rax, -40(%rbp)
Ltmp348:
	.loc	26 196 18
	movq	%rcx, -32(%rbp)
	movq	%rax, -24(%rbp)
	movq	-32(%rbp), %rax
	movq	-24(%rbp), %rdx
Ltmp349:
	.loc	23 1322 27
	movq	%rax, -16(%rbp)
	movq	%rdx, -8(%rbp)
Ltmp350:
	.loc	23 1331 6
	addq	$160, %rsp
	popq	%rbp
	retq
Ltmp351:
Lfunc_end22:
	.cfi_endproc

	.p2align	4, 0x90
__ZN3std3ffi6os_str5OsStr6to_str17h05b7a7bb6e5cfe43E:
Lfunc_begin23:
	.loc	23 703 0
	.cfi_startproc
	pushq	%rbp
	.cfi_def_cfa_offset 16
	.cfi_offset %rbp, -16
	movq	%rsp, %rbp
	.cfi_def_cfa_register %rbp
	subq	$16, %rsp
	movq	%rdi, -16(%rbp)
	movq	%rsi, -8(%rbp)
Ltmp352:
	.loc	23 704 9 prologue_end
	callq	__ZN3std3sys4unix6os_str5Slice6to_str17h19373d45d7a45923E
	.loc	23 705 6
	addq	$16, %rsp
	popq	%rbp
	retq
Ltmp353:
Lfunc_end23:
	.cfi_endproc

	.p2align	4, 0x90
__ZN3std3ffi6os_str85_$LT$impl$u20$core..convert..AsRef$LT$std..ffi..os_str..OsStr$GT$$u20$for$u20$str$GT$6as_ref17ha312662caad39cb5E:
Lfunc_begin24:
	.loc	23 1321 0
	.cfi_startproc
	pushq	%rbp
	.cfi_def_cfa_offset 16
	.cfi_offset %rbp, -16
	movq	%rsp, %rbp
	.cfi_def_cfa_register %rbp
	subq	$112, %rsp
	movq	%rdi, -112(%rbp)
	movq	%rsi, -104(%rbp)
Ltmp354:
	.loc	23 1322 43 prologue_end
	movq	%rdi, -96(%rbp)
	movq	%rsi, -88(%rbp)
Ltmp355:
	.loc	26 201 30
	movq	%rdi, -80(%rbp)
	movq	%rsi, -72(%rbp)
Ltmp356:
	.loc	27 327 18
	movq	%rdi, -64(%rbp)
	movq	%rsi, -56(%rbp)
	movq	-64(%rbp), %rcx
	movq	-56(%rbp), %rax
Ltmp357:
	.loc	26 201 30
	movq	%rcx, -48(%rbp)
	movq	%rax, -40(%rbp)
Ltmp358:
	.loc	26 196 18
	movq	%rcx, -32(%rbp)
	movq	%rax, -24(%rbp)
	movq	-32(%rbp), %rax
	movq	-24(%rbp), %rdx
Ltmp359:
	.loc	23 1322 27
	movq	%rax, -16(%rbp)
	movq	%rdx, -8(%rbp)
	.loc	23 1323 6
	addq	$112, %rsp
	popq	%rbp
	retq
Ltmp360:
Lfunc_end24:
	.cfi_endproc

	.p2align	4, 0x90
__ZN3std4path4Path3new17h33e00c095794b807E:
Lfunc_begin25:
	.file	28 "/rustc/2c8cc343237b8f7d5a3c3703e3a87f2eb2c54a74/library/std/src" "path.rs"
	.loc	28 2037 0
	.cfi_startproc
	pushq	%rbp
	.cfi_def_cfa_offset 16
	.cfi_offset %rbp, -16
	movq	%rsp, %rbp
	.cfi_def_cfa_register %rbp
	subq	$16, %rsp
	movq	%rdi, -8(%rbp)
Ltmp361:
	.loc	28 2038 21 prologue_end
	callq	__ZN98_$LT$std..ffi..os_str..OsString$u20$as$u20$core..convert..AsRef$LT$std..ffi..os_str..OsStr$GT$$GT$6as_ref17ha4f5f3544ee7bddcE
	.loc	28 2039 6
	addq	$16, %rsp
	popq	%rbp
	retq
Ltmp362:
Lfunc_end25:
	.cfi_endproc

	.p2align	4, 0x90
__ZN3std4path4Path3new17h529bf2a6e14a2ea3E:
Lfunc_begin26:
	.loc	28 2037 0
	.cfi_startproc
	pushq	%rbp
	.cfi_def_cfa_offset 16
	.cfi_offset %rbp, -16
	movq	%rsp, %rbp
	.cfi_def_cfa_register %rbp
	subq	$16, %rsp
	movq	%rdi, -16(%rbp)
	movq	%rsi, -8(%rbp)
Ltmp363:
	.loc	28 2038 21 prologue_end
	callq	__ZN3std3ffi6os_str85_$LT$impl$u20$core..convert..AsRef$LT$std..ffi..os_str..OsStr$GT$$u20$for$u20$str$GT$6as_ref17ha312662caad39cb5E
	.loc	28 2039 6
	addq	$16, %rsp
	popq	%rbp
	retq
Ltmp364:
Lfunc_end26:
	.cfi_endproc

	.p2align	4, 0x90
__ZN3std4path4Path3new17h9d343ea5891365eeE:
Lfunc_begin27:
	.loc	28 2037 0
	.cfi_startproc
	pushq	%rbp
	.cfi_def_cfa_offset 16
	.cfi_offset %rbp, -16
	movq	%rsp, %rbp
	.cfi_def_cfa_register %rbp
	subq	$16, %rsp
	movq	%rdi, -8(%rbp)
Ltmp365:
	.loc	28 2038 21 prologue_end
	callq	__ZN3std3ffi6os_str103_$LT$impl$u20$core..convert..AsRef$LT$std..ffi..os_str..OsStr$GT$$u20$for$u20$alloc..string..String$GT$6as_ref17hb53e26ac78b2a33aE
	.loc	28 2039 6
	addq	$16, %rsp
	popq	%rbp
	retq
Ltmp366:
Lfunc_end27:
	.cfi_endproc

	.p2align	4, 0x90
__ZN3std4path4Path4join17h0c9fa84c42293178E:
Lfunc_begin28:
	.loc	28 2545 0
	.cfi_startproc
	.cfi_personality 155, _rust_eh_personality
	.cfi_lsda 16, Lexception8
	pushq	%rbp
	.cfi_def_cfa_offset 16
	.cfi_offset %rbp, -16
	movq	%rsp, %rbp
	.cfi_def_cfa_register %rbp
	subq	$96, %rsp
	movq	%rdx, -96(%rbp)
	movq	%rsi, -88(%rbp)
	movq	%rdi, -80(%rbp)
	movq	%rdi, -72(%rbp)
	movq	%rcx, -48(%rbp)
	movq	%r8, -40(%rbp)
	movq	%rsi, -32(%rbp)
	movq	%rdx, -24(%rbp)
Ltmp367:
	leaq	-48(%rbp), %rdi
Ltmp372:
	.loc	28 2546 20 prologue_end
	callq	__ZN55_$LT$$RF$T$u20$as$u20$core..convert..AsRef$LT$U$GT$$GT$6as_ref17hd49aa7c51ffb8b17E
Ltmp368:
	movq	%rdx, -64(%rbp)
	movq	%rax, -56(%rbp)
	jmp	LBB28_3
LBB28_1:
	.loc	28 2545 5
	movq	-16(%rbp), %rdi
	callq	__Unwind_Resume
LBB28_2:
Ltmp371:
	.loc	28 0 5 is_stmt 0
	movq	%rax, %rcx
	movl	%edx, %eax
	movq	%rcx, -16(%rbp)
	movl	%eax, -8(%rbp)
	jmp	LBB28_1
LBB28_3:
Ltmp369:
	movq	-64(%rbp), %r8
	movq	-56(%rbp), %rcx
	movq	-96(%rbp), %rdx
	movq	-88(%rbp), %rsi
	movq	-80(%rbp), %rdi
	.loc	28 2546 9 is_stmt 1
	callq	__ZN3std4path4Path5_join17h09a4a37dd04fbaf0E
Ltmp370:
	jmp	LBB28_4
LBB28_4:
	.loc	28 0 9 is_stmt 0
	movq	-72(%rbp), %rax
	.loc	28 2547 6 is_stmt 1
	addq	$96, %rsp
	popq	%rbp
	retq
Ltmp373:
Lfunc_end28:
	.cfi_endproc
	.section	__TEXT,__gcc_except_tab
	.p2align	2
GCC_except_table28:
Lexception8:
	.byte	255
	.byte	255
	.byte	1
	.uleb128 Lcst_end8-Lcst_begin8
Lcst_begin8:
	.uleb128 Ltmp367-Lfunc_begin28
	.uleb128 Ltmp368-Ltmp367
	.uleb128 Ltmp371-Lfunc_begin28
	.byte	0
	.uleb128 Ltmp368-Lfunc_begin28
	.uleb128 Ltmp369-Ltmp368
	.byte	0
	.byte	0
	.uleb128 Ltmp369-Lfunc_begin28
	.uleb128 Ltmp370-Ltmp369
	.uleb128 Ltmp371-Lfunc_begin28
	.byte	0
Lcst_end8:
	.p2align	2

	.section	__TEXT,__text,regular,pure_instructions
	.p2align	4, 0x90
__ZN3std4path4Path6to_str17h71f8cf9075006793E:
Lfunc_begin29:
	.loc	28 2106 0
	.cfi_startproc
	pushq	%rbp
	.cfi_def_cfa_offset 16
	.cfi_offset %rbp, -16
	movq	%rsp, %rbp
	.cfi_def_cfa_register %rbp
	subq	$32, %rsp
	movq	%rdi, -32(%rbp)
	movq	%rsi, -24(%rbp)
Ltmp374:
	.loc	28 2107 9 prologue_end
	movq	%rdi, -16(%rbp)
	movq	%rsi, -8(%rbp)
Ltmp375:
	.loc	23 704 9
	callq	__ZN3std3sys4unix6os_str5Slice6to_str17h19373d45d7a45923E
Ltmp376:
	.loc	28 2108 6
	addq	$32, %rsp
	popq	%rbp
	retq
Ltmp377:
Lfunc_end29:
	.cfi_endproc

	.p2align	4, 0x90
__ZN3std4path4Path8read_dir17ha3ccf1956b17669dE:
Lfunc_begin30:
	.loc	28 2805 0
	.cfi_startproc
	pushq	%rbp
	.cfi_def_cfa_offset 16
	.cfi_offset %rbp, -16
	movq	%rsp, %rbp
	.cfi_def_cfa_register %rbp
	subq	$32, %rsp
	movq	%rdi, %rax
	movq	%rax, -24(%rbp)
	movq	%rsi, -16(%rbp)
	movq	%rdx, -8(%rbp)
Ltmp378:
	.loc	28 2806 9 prologue_end
	callq	__ZN3std2fs8read_dir17h24e8ecbf923fa767E
	movq	-24(%rbp), %rax
	.loc	28 2807 6
	addq	$32, %rsp
	popq	%rbp
	retq
Ltmp379:
Lfunc_end30:
	.cfi_endproc

	.p2align	4, 0x90
__ZN3std4path77_$LT$impl$u20$core..convert..AsRef$LT$std..path..Path$GT$$u20$for$u20$str$GT$6as_ref17hcaeb42a548ff5c29E:
Lfunc_begin31:
	.loc	28 3138 0
	.cfi_startproc
	pushq	%rbp
	.cfi_def_cfa_offset 16
	.cfi_offset %rbp, -16
	movq	%rsp, %rbp
	.cfi_def_cfa_register %rbp
	subq	$16, %rsp
	movq	%rdi, -16(%rbp)
	movq	%rsi, -8(%rbp)
Ltmp380:
	.loc	28 3139 9 prologue_end
	callq	__ZN3std4path4Path3new17h529bf2a6e14a2ea3E
	.loc	28 3140 6
	addq	$16, %rsp
	popq	%rbp
	retq
Ltmp381:
Lfunc_end31:
	.cfi_endproc

	.p2align	4, 0x90
__ZN42_$LT$$RF$T$u20$as$u20$core..fmt..Debug$GT$3fmt17ha3c8203a2626a16fE:
Lfunc_begin32:
	.file	29 "/rustc/2c8cc343237b8f7d5a3c3703e3a87f2eb2c54a74/library/core/src/fmt" "mod.rs"
	.loc	29 2377 0
	.cfi_startproc
	pushq	%rbp
	.cfi_def_cfa_offset 16
	.cfi_offset %rbp, -16
	movq	%rsp, %rbp
	.cfi_def_cfa_register %rbp
	subq	$16, %rsp
	movq	%rsi, %rdx
	movq	%rdi, %rax
	movq	%rax, -16(%rbp)
	movq	%rdx, -8(%rbp)
Ltmp382:
	.loc	29 2377 71 prologue_end
	movq	(%rax), %rdi
	movq	8(%rax), %rsi
	.loc	29 2377 62 is_stmt 0
	callq	__ZN40_$LT$str$u20$as$u20$core..fmt..Debug$GT$3fmt17h4564f13343f2ac60E
	.loc	29 2377 84
	andb	$1, %al
	movzbl	%al, %eax
	addq	$16, %rsp
	popq	%rbp
	retq
Ltmp383:
Lfunc_end32:
	.cfi_endproc

	.p2align	4, 0x90
__ZN4core3cmp5impls69_$LT$impl$u20$core..cmp..PartialEq$LT$$RF$B$GT$$u20$for$u20$$RF$A$GT$2ne17ha9221531d128a1b4E:
Lfunc_begin33:
	.file	30 "/rustc/2c8cc343237b8f7d5a3c3703e3a87f2eb2c54a74/library/core/src" "cmp.rs"
	.loc	30 1534 0 is_stmt 1
	.cfi_startproc
	pushq	%rbp
	.cfi_def_cfa_offset 16
	.cfi_offset %rbp, -16
	movq	%rsp, %rbp
	.cfi_def_cfa_register %rbp
	subq	$16, %rsp
	movq	%rsi, %rax
	movq	%rdi, %rcx
	movq	%rcx, -16(%rbp)
	movq	%rax, -8(%rbp)
Ltmp384:
	.loc	30 1535 27 prologue_end
	movq	(%rcx), %rdi
	movq	8(%rcx), %rsi
	.loc	30 1535 34 is_stmt 0
	movq	(%rax), %rdx
	movq	8(%rax), %rcx
	.loc	30 1535 13
	callq	__ZN4core3str6traits54_$LT$impl$u20$core..cmp..PartialEq$u20$for$u20$str$GT$2ne17hadf3abe42c97a225E
	.loc	30 1536 10 is_stmt 1
	andb	$1, %al
	movzbl	%al, %eax
	addq	$16, %rsp
	popq	%rbp
	retq
Ltmp385:
Lfunc_end33:
	.cfi_endproc

	.p2align	4, 0x90
__ZN4core3fmt10ArgumentV19new_debug17hc2eb6352157515c6E:
Lfunc_begin34:
	.loc	29 327 0
	.cfi_startproc
	pushq	%rbp
	.cfi_def_cfa_offset 16
	.cfi_offset %rbp, -16
	movq	%rsp, %rbp
	.cfi_def_cfa_register %rbp
	subq	$56, %rsp
	movq	%rdi, -40(%rbp)
Ltmp386:
	.loc	29 328 23 prologue_end
	movq	%rdi, -32(%rbp)
	.loc	29 328 26 is_stmt 0
	leaq	__ZN42_$LT$$RF$T$u20$as$u20$core..fmt..Debug$GT$3fmt17ha3c8203a2626a16fE(%rip), %rax
	movq	%rax, -24(%rbp)
Ltmp387:
	.loc	29 347 42 is_stmt 1
	movq	%rax, -16(%rbp)
	movq	-16(%rbp), %rax
	.loc	29 347 68 is_stmt 0
	movq	%rdi, -8(%rbp)
	movq	-8(%rbp), %rcx
	.loc	29 347 18
	movq	%rcx, -56(%rbp)
	movq	%rax, -48(%rbp)
Ltmp388:
	.loc	29 329 10 is_stmt 1
	movq	-56(%rbp), %rax
	movq	-48(%rbp), %rdx
	addq	$56, %rsp
	popq	%rbp
	retq
Ltmp389:
Lfunc_end34:
	.cfi_endproc

	.p2align	4, 0x90
__ZN4core3fmt5Write10write_char17h7085bfbd9d23b6e9E:
Lfunc_begin35:
	.loc	29 168 0
	.cfi_startproc
	pushq	%rbp
	.cfi_def_cfa_offset 16
	.cfi_offset %rbp, -16
	movq	%rsp, %rbp
	.cfi_def_cfa_register %rbp
	subq	$80, %rsp
	movq	%rdi, -64(%rbp)
	movl	%esi, -68(%rbp)
	movq	%rdi, -48(%rbp)
	movl	%esi, -40(%rbp)
Ltmp390:
	.loc	29 169 24 prologue_end
	movl	%esi, -36(%rbp)
	.loc	29 169 43 is_stmt 0
	leaq	-52(%rbp), %rdi
	xorl	%esi, %esi
	movl	$4, %edx
	callq	_memset
	movl	-68(%rbp), %edi
	.loc	29 169 38
	leaq	-52(%rbp), %rax
	movq	%rax, -32(%rbp)
	movq	$4, -24(%rbp)
Ltmp391:
	.file	31 "/rustc/2c8cc343237b8f7d5a3c3703e3a87f2eb2c54a74/library/core/src/char" "methods.rs"
	.loc	31 663 42 is_stmt 1
	leaq	-52(%rbp), %rsi
	movl	$4, %edx
	callq	__ZN4core4char7methods15encode_utf8_raw17h1abcea1c85d8307dE
	movq	-64(%rbp), %rdi
	movq	%rax, %rsi
	movq	%rsi, -16(%rbp)
	movq	%rdx, -8(%rbp)
Ltmp392:
	.loc	29 169 9
	callq	__ZN80_$LT$std..io..Write..write_fmt..Adapter$LT$T$GT$$u20$as$u20$core..fmt..Write$GT$9write_str17h5a52513601f1e1deE
	.loc	29 170 6
	andb	$1, %al
	movzbl	%al, %eax
	addq	$80, %rsp
	popq	%rbp
	retq
Ltmp393:
Lfunc_end35:
	.cfi_endproc

	.p2align	4, 0x90
__ZN4core3fmt5Write9write_fmt17h5adf9b1b7d820dceE:
Lfunc_begin36:
	.loc	29 196 0
	.cfi_startproc
	pushq	%rbp
	.cfi_def_cfa_offset 16
	.cfi_offset %rbp, -16
	movq	%rsp, %rbp
	.cfi_def_cfa_register %rbp
	subq	$64, %rsp
	movq	%rdi, -56(%rbp)
Ltmp394:
	.loc	29 197 26 prologue_end
	leaq	-48(%rbp), %rdi
	movl	$48, %edx
	callq	_memcpy
Ltmp395:
	.loc	29 197 9 is_stmt 0
	leaq	-56(%rbp), %rdi
	leaq	l___unnamed_3(%rip), %rsi
	leaq	-48(%rbp), %rdx
	callq	__ZN4core3fmt5write17hfa389e524187f2c6E
	.loc	29 198 6 is_stmt 1
	andb	$1, %al
	movzbl	%al, %eax
	addq	$64, %rsp
	popq	%rbp
	retq
Ltmp396:
Lfunc_end36:
	.cfi_endproc

	.p2align	4, 0x90
__ZN4core3fmt9Arguments6new_v117h8abefee7c24ee4cfE:
Lfunc_begin37:
	.loc	29 399 0
	.cfi_startproc
	pushq	%rbp
	.cfi_def_cfa_offset 16
	.cfi_offset %rbp, -16
	movq	%rsp, %rbp
	.cfi_def_cfa_register %rbp
	subq	$160, %rsp
	movq	%r8, -152(%rbp)
	movq	%rcx, -144(%rbp)
	movq	%rdx, -136(%rbp)
	movq	%rsi, -128(%rbp)
	movq	%rdi, -120(%rbp)
	movq	%rdi, -112(%rbp)
	movq	%rsi, -32(%rbp)
	movq	%rdx, -24(%rbp)
	movq	%rcx, -16(%rbp)
	movq	%r8, -8(%rbp)
Ltmp397:
	.loc	29 400 12 prologue_end
	cmpq	%r8, %rdx
	jb	LBB37_2
	.loc	29 0 12 is_stmt 0
	movq	-136(%rbp), %rax
	movq	-152(%rbp), %rcx
	.loc	29 400 56
	addq	$1, %rcx
	.loc	29 400 41
	cmpq	%rcx, %rax
	seta	%al
	.loc	29 400 12
	andb	$1, %al
	movb	%al, -97(%rbp)
	jmp	LBB37_3
LBB37_2:
	movb	$1, -97(%rbp)
LBB37_3:
	testb	$1, -97(%rbp)
	jne	LBB37_5
	.loc	29 0 12
	movq	-112(%rbp), %rax
	movq	-120(%rbp), %rcx
	movq	-152(%rbp), %rdx
	movq	-144(%rbp), %rsi
	movq	-136(%rbp), %rdi
	movq	-128(%rbp), %r8
	.loc	29 403 34 is_stmt 1
	movq	$0, -48(%rbp)
	.loc	29 403 9 is_stmt 0
	movq	%r8, 16(%rcx)
	movq	%rdi, 24(%rcx)
	movq	-48(%rbp), %r8
	movq	-40(%rbp), %rdi
	movq	%r8, (%rcx)
	movq	%rdi, 8(%rcx)
	movq	%rsi, 32(%rcx)
	movq	%rdx, 40(%rcx)
	.loc	29 404 6 is_stmt 1
	addq	$160, %rsp
	popq	%rbp
	retq
LBB37_5:
	.loc	29 401 13
	leaq	l___unnamed_12(%rip), %rsi
	leaq	l___unnamed_13(%rip), %rcx
	xorl	%eax, %eax
	movl	%eax, %r8d
	leaq	-96(%rbp), %rdi
	movq	%rdi, -160(%rbp)
	movl	$1, %edx
	callq	__ZN4core3fmt9Arguments6new_v117h8abefee7c24ee4cfE
	movq	-160(%rbp), %rdi
	leaq	l___unnamed_14(%rip), %rsi
	callq	__ZN4core9panicking9panic_fmt17h9b5d807e24bcaaedE
Ltmp398:
Lfunc_end37:
	.cfi_endproc

	.p2align	4, 0x90
__ZN4core3ops8function6FnOnce40call_once$u7b$$u7b$vtable.shim$u7d$$u7d$17h15dd4df7966eefc7E:
Lfunc_begin38:
	.file	32 "/rustc/2c8cc343237b8f7d5a3c3703e3a87f2eb2c54a74/library/core/src/ops" "function.rs"
	.loc	32 250 0
	.cfi_startproc
	pushq	%rbp
	.cfi_def_cfa_offset 16
	.cfi_offset %rbp, -16
	movq	%rsp, %rbp
	.cfi_def_cfa_register %rbp
	subq	$16, %rsp
	movq	%rdi, -8(%rbp)
Ltmp399:
	.loc	32 250 5 prologue_end
	movq	(%rdi), %rdi
	callq	__ZN4core3ops8function6FnOnce9call_once17h55e229bb507743caE
	addq	$16, %rsp
	popq	%rbp
	retq
Ltmp400:
Lfunc_end38:
	.cfi_endproc

	.p2align	4, 0x90
__ZN4core3ops8function6FnOnce9call_once17h55e229bb507743caE:
Lfunc_begin39:
	.loc	32 250 0
	.cfi_startproc
	.cfi_personality 155, _rust_eh_personality
	.cfi_lsda 16, Lexception9
	pushq	%rbp
	.cfi_def_cfa_offset 16
	.cfi_offset %rbp, -16
	movq	%rsp, %rbp
	.cfi_def_cfa_register %rbp
	subq	$48, %rsp
	movq	%rdi, -32(%rbp)
Ltmp401:
	leaq	-32(%rbp), %rdi
Ltmp404:
	.loc	32 250 5 prologue_end
	callq	__ZN3std2rt10lang_start28_$u7b$$u7b$closure$u7d$$u7d$17h32837193c9cd9668E
Ltmp402:
	movl	%eax, -36(%rbp)
	jmp	LBB39_3
LBB39_1:
	movq	-16(%rbp), %rdi
	callq	__Unwind_Resume
LBB39_2:
Ltmp403:
	.loc	32 0 5 is_stmt 0
	movq	%rax, %rcx
	movl	%edx, %eax
	movq	%rcx, -16(%rbp)
	movl	%eax, -8(%rbp)
	jmp	LBB39_1
LBB39_3:
	movl	-36(%rbp), %eax
	.loc	32 250 5
	addq	$48, %rsp
	popq	%rbp
	retq
Ltmp405:
Lfunc_end39:
	.cfi_endproc
	.section	__TEXT,__gcc_except_tab
	.p2align	2
GCC_except_table39:
Lexception9:
	.byte	255
	.byte	255
	.byte	1
	.uleb128 Lcst_end9-Lcst_begin9
Lcst_begin9:
	.uleb128 Ltmp401-Lfunc_begin39
	.uleb128 Ltmp402-Ltmp401
	.uleb128 Ltmp403-Lfunc_begin39
	.byte	0
	.uleb128 Ltmp402-Lfunc_begin39
	.uleb128 Lfunc_end39-Ltmp402
	.byte	0
	.byte	0
Lcst_end9:
	.p2align	2

	.section	__TEXT,__text,regular,pure_instructions
	.p2align	4, 0x90
__ZN4core3ops8function6FnOnce9call_once17h99199c1f07280b09E:
Lfunc_begin40:
	.loc	32 250 0 is_stmt 1
	.cfi_startproc
	pushq	%rbp
	.cfi_def_cfa_offset 16
	.cfi_offset %rbp, -16
	movq	%rsp, %rbp
	.cfi_def_cfa_register %rbp
	subq	$32, %rsp
	movb	%sil, %al
	movq	%rdi, -24(%rbp)
	andb	$1, %al
	movb	%al, -16(%rbp)
Ltmp406:
	.loc	32 250 5 prologue_end
	movq	-24(%rbp), %rdi
	movzbl	-16(%rbp), %esi
	callq	__ZN3std2fs7ReadDir17ha92b7fe260940011E
	andb	$1, %dl
	addq	$32, %rsp
	popq	%rbp
	retq
Ltmp407:
Lfunc_end40:
	.cfi_endproc

	.p2align	4, 0x90
__ZN4core3ops8function6FnOnce9call_once17hb5ccc784817c02eeE:
Lfunc_begin41:
	.loc	32 250 0
	.cfi_startproc
	pushq	%rbp
	.cfi_def_cfa_offset 16
	.cfi_offset %rbp, -16
	movq	%rsp, %rbp
	.cfi_def_cfa_register %rbp
	subq	$16, %rsp
	movq	%rdi, -8(%rbp)
Ltmp408:
	.loc	32 250 5 prologue_end
	callq	*%rdi
	addq	$16, %rsp
	popq	%rbp
	retq
Ltmp409:
Lfunc_end41:
	.cfi_endproc

	.p2align	4, 0x90
__ZN4core3ptr101drop_in_place$LT$std..io..error..ErrorData$LT$alloc..boxed..Box$LT$std..io..error..Custom$GT$$GT$$GT$17h416866a1deb8713fE:
Lfunc_begin42:
	.loc	3 490 0
	.cfi_startproc
	pushq	%rbp
	.cfi_def_cfa_offset 16
	.cfi_offset %rbp, -16
	movq	%rsp, %rbp
	.cfi_def_cfa_register %rbp
	subq	$16, %rsp
	movq	%rdi, -16(%rbp)
	movq	%rdi, -8(%rbp)
Ltmp410:
	.loc	3 490 1 prologue_end
	movb	(%rdi), %al
	subb	$3, %al
	jb	LBB42_2
	jmp	LBB42_1
LBB42_1:
	.loc	3 0 1 is_stmt 0
	movq	-16(%rbp), %rdi
	.loc	3 490 1
	addq	$8, %rdi
	callq	__ZN4core3ptr68drop_in_place$LT$alloc..boxed..Box$LT$std..io..error..Custom$GT$$GT$17h362c956f0555eddcE
LBB42_2:
	addq	$16, %rsp
	popq	%rbp
	retq
Ltmp411:
Lfunc_end42:
	.cfi_endproc

	.p2align	4, 0x90
__ZN4core3ptr118drop_in_place$LT$alloc..boxed..Box$LT$dyn$u20$core..error..Error$u2b$core..marker..Send$u2b$core..marker..Sync$GT$$GT$17h17bfc4837252ee36E:
Lfunc_begin43:
	.loc	3 490 0 is_stmt 1
	.cfi_startproc
	.cfi_personality 155, _rust_eh_personality
	.cfi_lsda 16, Lexception10
	pushq	%rbp
	.cfi_def_cfa_offset 16
	.cfi_offset %rbp, -16
	movq	%rsp, %rbp
	.cfi_def_cfa_register %rbp
	subq	$32, %rsp
	movq	%rdi, %rax
	movq	%rax, -32(%rbp)
	movq	%rax, -24(%rbp)
Ltmp418:
	.loc	3 490 1 prologue_end
	movq	(%rax), %rdi
	movq	8(%rax), %rax
	movq	(%rax), %rax
Ltmp412:
	callq	*%rax
Ltmp413:
	jmp	LBB43_3
LBB43_1:
	.loc	3 0 1 is_stmt 0
	movq	-32(%rbp), %rax
	.loc	3 490 1
	movq	(%rax), %rdi
	movq	8(%rax), %rsi
Ltmp415:
	callq	__ZN5alloc5alloc8box_free17hd86019f0eb26cec6E
Ltmp416:
	jmp	LBB43_5
LBB43_2:
Ltmp414:
	.loc	3 0 1
	movq	%rax, %rcx
	movl	%edx, %eax
	movq	%rcx, -16(%rbp)
	movl	%eax, -8(%rbp)
	jmp	LBB43_1
LBB43_3:
	movq	-32(%rbp), %rax
	.loc	3 490 1
	movq	(%rax), %rdi
	movq	8(%rax), %rsi
	callq	__ZN5alloc5alloc8box_free17hd86019f0eb26cec6E
	addq	$32, %rsp
	popq	%rbp
	retq
LBB43_4:
Ltmp417:
	callq	__ZN4core9panicking19panic_cannot_unwind17h1fbca7e1d7f56ae1E
LBB43_5:
	movq	-16(%rbp), %rdi
	callq	__Unwind_Resume
Ltmp419:
Lfunc_end43:
	.cfi_endproc
	.section	__TEXT,__gcc_except_tab
	.p2align	2
GCC_except_table43:
Lexception10:
	.byte	255
	.byte	255
	.byte	1
	.uleb128 Lcst_end10-Lcst_begin10
Lcst_begin10:
	.uleb128 Ltmp412-Lfunc_begin43
	.uleb128 Ltmp413-Ltmp412
	.uleb128 Ltmp414-Lfunc_begin43
	.byte	0
	.uleb128 Ltmp415-Lfunc_begin43
	.uleb128 Ltmp416-Ltmp415
	.uleb128 Ltmp417-Lfunc_begin43
	.byte	0
	.uleb128 Ltmp416-Lfunc_begin43
	.uleb128 Lfunc_end43-Ltmp416
	.byte	0
	.byte	0
Lcst_end10:
	.p2align	2

	.section	__TEXT,__text,regular,pure_instructions
	.p2align	4, 0x90
__ZN4core3ptr34drop_in_place$LT$std..fs..File$GT$17h1eeec8c0c11b715bE:
Lfunc_begin44:
	.loc	3 490 0 is_stmt 1
	.cfi_startproc
	pushq	%rbp
	.cfi_def_cfa_offset 16
	.cfi_offset %rbp, -16
	movq	%rsp, %rbp
	.cfi_def_cfa_register %rbp
	subq	$16, %rsp
	movq	%rdi, -8(%rbp)
Ltmp420:
	.loc	3 490 1 prologue_end
	callq	__ZN4core3ptr45drop_in_place$LT$std..sys..unix..fs..File$GT$17h3f769d38f307b3edE
	addq	$16, %rsp
	popq	%rbp
	retq
Ltmp421:
Lfunc_end44:
	.cfi_endproc

	.p2align	4, 0x90
__ZN4core3ptr37drop_in_place$LT$std..fs..ReadDir$GT$17hbf7fcc77737d4c93E:
Lfunc_begin45:
	.loc	3 490 0
	.cfi_startproc
	pushq	%rbp
	.cfi_def_cfa_offset 16
	.cfi_offset %rbp, -16
	movq	%rsp, %rbp
	.cfi_def_cfa_register %rbp
	subq	$16, %rsp
	movq	%rdi, -8(%rbp)
Ltmp422:
	.loc	3 490 1 prologue_end
	callq	__ZN4core3ptr48drop_in_place$LT$std..sys..unix..fs..ReadDir$GT$17h9044363fdab54214E
	addq	$16, %rsp
	popq	%rbp
	retq
Ltmp423:
Lfunc_end45:
	.cfi_endproc

	.p2align	4, 0x90
__ZN4core3ptr38drop_in_place$LT$std..fs..DirEntry$GT$17h8641de91c9412d3dE:
Lfunc_begin46:
	.loc	3 490 0
	.cfi_startproc
	pushq	%rbp
	.cfi_def_cfa_offset 16
	.cfi_offset %rbp, -16
	movq	%rsp, %rbp
	.cfi_def_cfa_register %rbp
	subq	$16, %rsp
	movq	%rdi, -8(%rbp)
Ltmp424:
	.loc	3 490 1 prologue_end
	callq	__ZN4core3ptr49drop_in_place$LT$std..sys..unix..fs..DirEntry$GT$17hba7eadaba21e1118E
	addq	$16, %rsp
	popq	%rbp
	retq
Ltmp425:
Lfunc_end46:
	.cfi_endproc

	.p2align	4, 0x90
__ZN4core3ptr39drop_in_place$LT$std..env..VarError$GT$17h7ef54b88ba639cf7E:
Lfunc_begin47:
	.loc	3 490 0
	.cfi_startproc
	pushq	%rbp
	.cfi_def_cfa_offset 16
	.cfi_offset %rbp, -16
	movq	%rsp, %rbp
	.cfi_def_cfa_register %rbp
	subq	$16, %rsp
	movq	%rdi, -16(%rbp)
	movq	%rdi, -8(%rbp)
Ltmp426:
	.loc	3 490 1 prologue_end
	movq	8(%rdi), %rdx
	movl	$1, %eax
	xorl	%ecx, %ecx
	cmpq	$0, %rdx
	cmoveq	%rcx, %rax
	cmpq	$0, %rax
	jne	LBB47_2
LBB47_1:
	addq	$16, %rsp
	popq	%rbp
	retq
LBB47_2:
	.loc	3 0 1 is_stmt 0
	movq	-16(%rbp), %rdi
	.loc	3 490 1
	callq	__ZN4core3ptr47drop_in_place$LT$std..ffi..os_str..OsString$GT$17heed7d02176f8affdE
	jmp	LBB47_1
Ltmp427:
Lfunc_end47:
	.cfi_endproc

	.p2align	4, 0x90
__ZN4core3ptr39drop_in_place$LT$std..path..PathBuf$GT$17h2192ecb8b325638bE:
Lfunc_begin48:
	.loc	3 490 0 is_stmt 1
	.cfi_startproc
	pushq	%rbp
	.cfi_def_cfa_offset 16
	.cfi_offset %rbp, -16
	movq	%rsp, %rbp
	.cfi_def_cfa_register %rbp
	subq	$16, %rsp
	movq	%rdi, -8(%rbp)
Ltmp428:
	.loc	3 490 1 prologue_end
	callq	__ZN4core3ptr47drop_in_place$LT$std..ffi..os_str..OsString$GT$17heed7d02176f8affdE
	addq	$16, %rsp
	popq	%rbp
	retq
Ltmp429:
Lfunc_end48:
	.cfi_endproc

	.p2align	4, 0x90
__ZN4core3ptr42drop_in_place$LT$alloc..string..String$GT$17h558212a3d815ad24E:
Lfunc_begin49:
	.loc	3 490 0
	.cfi_startproc
	pushq	%rbp
	.cfi_def_cfa_offset 16
	.cfi_offset %rbp, -16
	movq	%rsp, %rbp
	.cfi_def_cfa_register %rbp
	subq	$16, %rsp
	movq	%rdi, -8(%rbp)
Ltmp430:
	.loc	3 490 1 prologue_end
	callq	__ZN4core3ptr46drop_in_place$LT$alloc..vec..Vec$LT$u8$GT$$GT$17hbf935e36c2445293E
	addq	$16, %rsp
	popq	%rbp
	retq
Ltmp431:
Lfunc_end49:
	.cfi_endproc

	.p2align	4, 0x90
__ZN4core3ptr42drop_in_place$LT$std..io..error..Error$GT$17h6fd4e1b7df689ae6E:
Lfunc_begin50:
	.loc	3 490 0
	.cfi_startproc
	pushq	%rbp
	.cfi_def_cfa_offset 16
	.cfi_offset %rbp, -16
	movq	%rsp, %rbp
	.cfi_def_cfa_register %rbp
	subq	$16, %rsp
	movq	%rdi, -8(%rbp)
Ltmp432:
	.loc	3 490 1 prologue_end
	callq	__ZN4core3ptr57drop_in_place$LT$std..io..error..repr_bitpacked..Repr$GT$17h2f3dd2fda6eb4a8cE
	addq	$16, %rsp
	popq	%rbp
	retq
Ltmp433:
Lfunc_end50:
	.cfi_endproc

	.p2align	4, 0x90
__ZN4core3ptr43drop_in_place$LT$std..io..error..Custom$GT$17habf2adc86a74490eE:
Lfunc_begin51:
	.loc	3 490 0
	.cfi_startproc
	pushq	%rbp
	.cfi_def_cfa_offset 16
	.cfi_offset %rbp, -16
	movq	%rsp, %rbp
	.cfi_def_cfa_register %rbp
	subq	$16, %rsp
	movq	%rdi, -8(%rbp)
Ltmp434:
	.loc	3 490 1 prologue_end
	callq	__ZN4core3ptr118drop_in_place$LT$alloc..boxed..Box$LT$dyn$u20$core..error..Error$u2b$core..marker..Send$u2b$core..marker..Sync$GT$$GT$17h17bfc4837252ee36E
	addq	$16, %rsp
	popq	%rbp
	retq
Ltmp435:
Lfunc_end51:
	.cfi_endproc

	.p2align	4, 0x90
__ZN4core3ptr44drop_in_place$LT$std..sys..unix..fs..Dir$GT$17hd109e62cce6db01aE:
Lfunc_begin52:
	.loc	3 490 0
	.cfi_startproc
	pushq	%rbp
	.cfi_def_cfa_offset 16
	.cfi_offset %rbp, -16
	movq	%rsp, %rbp
	.cfi_def_cfa_register %rbp
	subq	$16, %rsp
	movq	%rdi, -8(%rbp)
Ltmp436:
	.loc	3 490 1 prologue_end
	callq	__ZN65_$LT$std..sys..unix..fs..Dir$u20$as$u20$core..ops..drop..Drop$GT$4drop17hff7b9954a5da23c2E
	addq	$16, %rsp
	popq	%rbp
	retq
Ltmp437:
Lfunc_end52:
	.cfi_endproc

	.p2align	4, 0x90
__ZN4core3ptr45drop_in_place$LT$std..sys..unix..fs..File$GT$17h3f769d38f307b3edE:
Lfunc_begin53:
	.loc	3 490 0
	.cfi_startproc
	pushq	%rbp
	.cfi_def_cfa_offset 16
	.cfi_offset %rbp, -16
	movq	%rsp, %rbp
	.cfi_def_cfa_register %rbp
	subq	$16, %rsp
	movq	%rdi, -8(%rbp)
Ltmp438:
	.loc	3 490 1 prologue_end
	callq	__ZN4core3ptr49drop_in_place$LT$std..sys..unix..fd..FileDesc$GT$17h44bba2bdfca2791fE
	addq	$16, %rsp
	popq	%rbp
	retq
Ltmp439:
Lfunc_end53:
	.cfi_endproc

	.p2align	4, 0x90
__ZN4core3ptr46drop_in_place$LT$alloc..vec..Vec$LT$u8$GT$$GT$17hbf935e36c2445293E:
Lfunc_begin54:
	.loc	3 490 0
	.cfi_startproc
	.cfi_personality 155, _rust_eh_personality
	.cfi_lsda 16, Lexception11
	pushq	%rbp
	.cfi_def_cfa_offset 16
	.cfi_offset %rbp, -16
	movq	%rsp, %rbp
	.cfi_def_cfa_register %rbp
	subq	$32, %rsp
	movq	%rdi, -32(%rbp)
	movq	%rdi, -24(%rbp)
Ltmp440:
Ltmp446:
	.loc	3 490 1 prologue_end
	callq	__ZN70_$LT$alloc..vec..Vec$LT$T$C$A$GT$$u20$as$u20$core..ops..drop..Drop$GT$4drop17h5069fa232b8c513fE
Ltmp441:
	jmp	LBB54_3
LBB54_1:
Ltmp443:
	.loc	3 0 1 is_stmt 0
	movq	-32(%rbp), %rdi
	.loc	3 490 1
	callq	__ZN4core3ptr53drop_in_place$LT$alloc..raw_vec..RawVec$LT$u8$GT$$GT$17h4e4100ab8ecddff4E
Ltmp444:
	jmp	LBB54_5
LBB54_2:
Ltmp442:
	.loc	3 0 1
	movq	%rax, %rcx
	movl	%edx, %eax
	movq	%rcx, -16(%rbp)
	movl	%eax, -8(%rbp)
	jmp	LBB54_1
LBB54_3:
	movq	-32(%rbp), %rdi
	.loc	3 490 1
	callq	__ZN4core3ptr53drop_in_place$LT$alloc..raw_vec..RawVec$LT$u8$GT$$GT$17h4e4100ab8ecddff4E
	addq	$32, %rsp
	popq	%rbp
	retq
LBB54_4:
Ltmp445:
	callq	__ZN4core9panicking19panic_cannot_unwind17h1fbca7e1d7f56ae1E
LBB54_5:
	movq	-16(%rbp), %rdi
	callq	__Unwind_Resume
Ltmp447:
Lfunc_end54:
	.cfi_endproc
	.section	__TEXT,__gcc_except_tab
	.p2align	2
GCC_except_table54:
Lexception11:
	.byte	255
	.byte	255
	.byte	1
	.uleb128 Lcst_end11-Lcst_begin11
Lcst_begin11:
	.uleb128 Ltmp440-Lfunc_begin54
	.uleb128 Ltmp441-Ltmp440
	.uleb128 Ltmp442-Lfunc_begin54
	.byte	0
	.uleb128 Ltmp443-Lfunc_begin54
	.uleb128 Ltmp444-Ltmp443
	.uleb128 Ltmp445-Lfunc_begin54
	.byte	0
	.uleb128 Ltmp444-Lfunc_begin54
	.uleb128 Lfunc_end54-Ltmp444
	.byte	0
	.byte	0
Lcst_end11:
	.p2align	2

	.section	__TEXT,__text,regular,pure_instructions
	.p2align	4, 0x90
__ZN4core3ptr47drop_in_place$LT$std..ffi..os_str..OsString$GT$17heed7d02176f8affdE:
Lfunc_begin55:
	.loc	3 490 0 is_stmt 1
	.cfi_startproc
	pushq	%rbp
	.cfi_def_cfa_offset 16
	.cfi_offset %rbp, -16
	movq	%rsp, %rbp
	.cfi_def_cfa_register %rbp
	subq	$16, %rsp
	movq	%rdi, -8(%rbp)
Ltmp448:
	.loc	3 490 1 prologue_end
	callq	__ZN4core3ptr48drop_in_place$LT$std..sys..unix..os_str..Buf$GT$17hd80717efe78465c5E
	addq	$16, %rsp
	popq	%rbp
	retq
Ltmp449:
Lfunc_end55:
	.cfi_endproc

	.p2align	4, 0x90
__ZN4core3ptr48drop_in_place$LT$std..os..fd..owned..OwnedFd$GT$17h73a7a472ee619061E:
Lfunc_begin56:
	.loc	3 490 0
	.cfi_startproc
	pushq	%rbp
	.cfi_def_cfa_offset 16
	.cfi_offset %rbp, -16
	movq	%rsp, %rbp
	.cfi_def_cfa_register %rbp
	subq	$16, %rsp
	movq	%rdi, -8(%rbp)
Ltmp450:
	.loc	3 490 1 prologue_end
	callq	__ZN69_$LT$std..os..fd..owned..OwnedFd$u20$as$u20$core..ops..drop..Drop$GT$4drop17h10b84763d2cb75e2E
	addq	$16, %rsp
	popq	%rbp
	retq
Ltmp451:
Lfunc_end56:
	.cfi_endproc

	.p2align	4, 0x90
__ZN4core3ptr48drop_in_place$LT$std..sys..unix..fs..ReadDir$GT$17h9044363fdab54214E:
Lfunc_begin57:
	.loc	3 490 0
	.cfi_startproc
	pushq	%rbp
	.cfi_def_cfa_offset 16
	.cfi_offset %rbp, -16
	movq	%rsp, %rbp
	.cfi_def_cfa_register %rbp
	subq	$16, %rsp
	movq	%rdi, -8(%rbp)
Ltmp452:
	.loc	3 490 1 prologue_end
	callq	__ZN4core3ptr77drop_in_place$LT$alloc..sync..Arc$LT$std..sys..unix..fs..InnerReadDir$GT$$GT$17hcb0cfe9588c237d5E
	addq	$16, %rsp
	popq	%rbp
	retq
Ltmp453:
Lfunc_end57:
	.cfi_endproc

	.p2align	4, 0x90
__ZN4core3ptr48drop_in_place$LT$std..sys..unix..os_str..Buf$GT$17hd80717efe78465c5E:
Lfunc_begin58:
	.loc	3 490 0
	.cfi_startproc
	pushq	%rbp
	.cfi_def_cfa_offset 16
	.cfi_offset %rbp, -16
	movq	%rsp, %rbp
	.cfi_def_cfa_register %rbp
	subq	$16, %rsp
	movq	%rdi, -8(%rbp)
Ltmp454:
	.loc	3 490 1 prologue_end
	callq	__ZN4core3ptr46drop_in_place$LT$alloc..vec..Vec$LT$u8$GT$$GT$17hbf935e36c2445293E
	addq	$16, %rsp
	popq	%rbp
	retq
Ltmp455:
Lfunc_end58:
	.cfi_endproc

	.p2align	4, 0x90
__ZN4core3ptr49drop_in_place$LT$std..sys..unix..fd..FileDesc$GT$17h44bba2bdfca2791fE:
Lfunc_begin59:
	.loc	3 490 0
	.cfi_startproc
	pushq	%rbp
	.cfi_def_cfa_offset 16
	.cfi_offset %rbp, -16
	movq	%rsp, %rbp
	.cfi_def_cfa_register %rbp
	subq	$16, %rsp
	movq	%rdi, -8(%rbp)
Ltmp456:
	.loc	3 490 1 prologue_end
	callq	__ZN4core3ptr48drop_in_place$LT$std..os..fd..owned..OwnedFd$GT$17h73a7a472ee619061E
	addq	$16, %rsp
	popq	%rbp
	retq
Ltmp457:
Lfunc_end59:
	.cfi_endproc

	.p2align	4, 0x90
__ZN4core3ptr49drop_in_place$LT$std..sys..unix..fs..DirEntry$GT$17hba7eadaba21e1118E:
Lfunc_begin60:
	.loc	3 490 0
	.cfi_startproc
	pushq	%rbp
	.cfi_def_cfa_offset 16
	.cfi_offset %rbp, -16
	movq	%rsp, %rbp
	.cfi_def_cfa_register %rbp
	subq	$16, %rsp
	movq	%rdi, -8(%rbp)
Ltmp458:
	.loc	3 490 1 prologue_end
	addq	$1048, %rdi
	callq	__ZN4core3ptr77drop_in_place$LT$alloc..sync..Arc$LT$std..sys..unix..fs..InnerReadDir$GT$$GT$17hcb0cfe9588c237d5E
	addq	$16, %rsp
	popq	%rbp
	retq
Ltmp459:
Lfunc_end60:
	.cfi_endproc

	.p2align	4, 0x90
__ZN4core3ptr53drop_in_place$LT$alloc..raw_vec..RawVec$LT$u8$GT$$GT$17h4e4100ab8ecddff4E:
Lfunc_begin61:
	.loc	3 490 0
	.cfi_startproc
	pushq	%rbp
	.cfi_def_cfa_offset 16
	.cfi_offset %rbp, -16
	movq	%rsp, %rbp
	.cfi_def_cfa_register %rbp
	subq	$16, %rsp
	movq	%rdi, -8(%rbp)
Ltmp460:
	.loc	3 490 1 prologue_end
	callq	__ZN77_$LT$alloc..raw_vec..RawVec$LT$T$C$A$GT$$u20$as$u20$core..ops..drop..Drop$GT$4drop17h640921cdb665a647E
	addq	$16, %rsp
	popq	%rbp
	retq
Ltmp461:
Lfunc_end61:
	.cfi_endproc

	.p2align	4, 0x90
__ZN4core3ptr53drop_in_place$LT$std..sys..unix..fs..InnerReadDir$GT$17h514d07c20c95e032E:
Lfunc_begin62:
	.loc	3 490 0
	.cfi_startproc
	.cfi_personality 155, _rust_eh_personality
	.cfi_lsda 16, Lexception12
	pushq	%rbp
	.cfi_def_cfa_offset 16
	.cfi_offset %rbp, -16
	movq	%rsp, %rbp
	.cfi_def_cfa_register %rbp
	subq	$32, %rsp
	movq	%rdi, -32(%rbp)
	movq	%rdi, -24(%rbp)
Ltmp462:
Ltmp468:
	.loc	3 490 1 prologue_end
	callq	__ZN4core3ptr44drop_in_place$LT$std..sys..unix..fs..Dir$GT$17hd109e62cce6db01aE
Ltmp463:
	jmp	LBB62_3
LBB62_1:
	.loc	3 0 1 is_stmt 0
	movq	-32(%rbp), %rdi
	.loc	3 490 1
	addq	$8, %rdi
Ltmp465:
	callq	__ZN4core3ptr39drop_in_place$LT$std..path..PathBuf$GT$17h2192ecb8b325638bE
Ltmp466:
	jmp	LBB62_5
LBB62_2:
Ltmp464:
	.loc	3 0 1
	movq	%rax, %rcx
	movl	%edx, %eax
	movq	%rcx, -16(%rbp)
	movl	%eax, -8(%rbp)
	jmp	LBB62_1
LBB62_3:
	movq	-32(%rbp), %rdi
	.loc	3 490 1
	addq	$8, %rdi
	callq	__ZN4core3ptr39drop_in_place$LT$std..path..PathBuf$GT$17h2192ecb8b325638bE
	addq	$32, %rsp
	popq	%rbp
	retq
LBB62_4:
Ltmp467:
	callq	__ZN4core9panicking19panic_cannot_unwind17h1fbca7e1d7f56ae1E
LBB62_5:
	movq	-16(%rbp), %rdi
	callq	__Unwind_Resume
Ltmp469:
Lfunc_end62:
	.cfi_endproc
	.section	__TEXT,__gcc_except_tab
	.p2align	2
GCC_except_table62:
Lexception12:
	.byte	255
	.byte	255
	.byte	1
	.uleb128 Lcst_end12-Lcst_begin12
Lcst_begin12:
	.uleb128 Ltmp462-Lfunc_begin62
	.uleb128 Ltmp463-Ltmp462
	.uleb128 Ltmp464-Lfunc_begin62
	.byte	0
	.uleb128 Ltmp465-Lfunc_begin62
	.uleb128 Ltmp466-Ltmp465
	.uleb128 Ltmp467-Lfunc_begin62
	.byte	0
	.uleb128 Ltmp466-Lfunc_begin62
	.uleb128 Lfunc_end62-Ltmp466
	.byte	0
	.byte	0
Lcst_end12:
	.p2align	2

	.section	__TEXT,__text,regular,pure_instructions
	.p2align	4, 0x90
__ZN4core3ptr57drop_in_place$LT$std..io..error..repr_bitpacked..Repr$GT$17h2f3dd2fda6eb4a8cE:
Lfunc_begin63:
	.loc	3 490 0 is_stmt 1
	.cfi_startproc
	pushq	%rbp
	.cfi_def_cfa_offset 16
	.cfi_offset %rbp, -16
	movq	%rsp, %rbp
	.cfi_def_cfa_register %rbp
	subq	$16, %rsp
	movq	%rdi, -8(%rbp)
Ltmp470:
	.loc	3 490 1 prologue_end
	callq	__ZN78_$LT$std..io..error..repr_bitpacked..Repr$u20$as$u20$core..ops..drop..Drop$GT$4drop17h603501c46f05bbaaE
	addq	$16, %rsp
	popq	%rbp
	retq
Ltmp471:
Lfunc_end63:
	.cfi_endproc

	.p2align	4, 0x90
__ZN4core3ptr68drop_in_place$LT$alloc..boxed..Box$LT$std..io..error..Custom$GT$$GT$17h362c956f0555eddcE:
Lfunc_begin64:
	.loc	3 490 0
	.cfi_startproc
	.cfi_personality 155, _rust_eh_personality
	.cfi_lsda 16, Lexception13
	pushq	%rbp
	.cfi_def_cfa_offset 16
	.cfi_offset %rbp, -16
	movq	%rsp, %rbp
	.cfi_def_cfa_register %rbp
	subq	$32, %rsp
	movq	%rdi, -32(%rbp)
	movq	%rdi, -24(%rbp)
Ltmp478:
	.loc	3 490 1 prologue_end
	movq	(%rdi), %rdi
Ltmp472:
	callq	__ZN4core3ptr43drop_in_place$LT$std..io..error..Custom$GT$17habf2adc86a74490eE
Ltmp473:
	jmp	LBB64_3
LBB64_1:
	.loc	3 0 1 is_stmt 0
	movq	-32(%rbp), %rax
	.loc	3 490 1
	movq	(%rax), %rdi
Ltmp475:
	callq	__ZN5alloc5alloc8box_free17h964e7fb350d31894E
Ltmp476:
	jmp	LBB64_5
LBB64_2:
Ltmp474:
	.loc	3 0 1
	movq	%rax, %rcx
	movl	%edx, %eax
	movq	%rcx, -16(%rbp)
	movl	%eax, -8(%rbp)
	jmp	LBB64_1
LBB64_3:
	movq	-32(%rbp), %rax
	.loc	3 490 1
	movq	(%rax), %rdi
	callq	__ZN5alloc5alloc8box_free17h964e7fb350d31894E
	addq	$32, %rsp
	popq	%rbp
	retq
LBB64_4:
Ltmp477:
	callq	__ZN4core9panicking19panic_cannot_unwind17h1fbca7e1d7f56ae1E
LBB64_5:
	movq	-16(%rbp), %rdi
	callq	__Unwind_Resume
Ltmp479:
Lfunc_end64:
	.cfi_endproc
	.section	__TEXT,__gcc_except_tab
	.p2align	2
GCC_except_table64:
Lexception13:
	.byte	255
	.byte	255
	.byte	1
	.uleb128 Lcst_end13-Lcst_begin13
Lcst_begin13:
	.uleb128 Ltmp472-Lfunc_begin64
	.uleb128 Ltmp473-Ltmp472
	.uleb128 Ltmp474-Lfunc_begin64
	.byte	0
	.uleb128 Ltmp475-Lfunc_begin64
	.uleb128 Ltmp476-Ltmp475
	.uleb128 Ltmp477-Lfunc_begin64
	.byte	0
	.uleb128 Ltmp476-Lfunc_begin64
	.uleb128 Lfunc_end64-Ltmp476
	.byte	0
	.byte	0
Lcst_end13:
	.p2align	2

	.section	__TEXT,__text,regular,pure_instructions
	.p2align	4, 0x90
__ZN4core3ptr76drop_in_place$LT$std..io..Write..write_fmt..Adapter$LT$std..fs..File$GT$$GT$17h793233edcab5b137E:
Lfunc_begin65:
	.loc	3 490 0 is_stmt 1
	.cfi_startproc
	pushq	%rbp
	.cfi_def_cfa_offset 16
	.cfi_offset %rbp, -16
	movq	%rsp, %rbp
	.cfi_def_cfa_register %rbp
	subq	$16, %rsp
	movq	%rdi, -8(%rbp)
Ltmp480:
	.loc	3 490 1 prologue_end
	callq	__ZN4core3ptr81drop_in_place$LT$core..result..Result$LT$$LP$$RP$$C$std..io..error..Error$GT$$GT$17h94d92379f06ecf8dE
	addq	$16, %rsp
	popq	%rbp
	retq
Ltmp481:
Lfunc_end65:
	.cfi_endproc

	.p2align	4, 0x90
__ZN4core3ptr77drop_in_place$LT$alloc..sync..Arc$LT$std..sys..unix..fs..InnerReadDir$GT$$GT$17hcb0cfe9588c237d5E:
Lfunc_begin66:
	.loc	3 490 0
	.cfi_startproc
	pushq	%rbp
	.cfi_def_cfa_offset 16
	.cfi_offset %rbp, -16
	movq	%rsp, %rbp
	.cfi_def_cfa_register %rbp
	subq	$16, %rsp
	movq	%rdi, -8(%rbp)
Ltmp482:
	.loc	3 490 1 prologue_end
	callq	__ZN67_$LT$alloc..sync..Arc$LT$T$GT$$u20$as$u20$core..ops..drop..Drop$GT$4drop17h35713c38feae6427E
	addq	$16, %rsp
	popq	%rbp
	retq
Ltmp483:
Lfunc_end66:
	.cfi_endproc

	.p2align	4, 0x90
__ZN4core3ptr78drop_in_place$LT$alloc..sync..Weak$LT$std..sys..unix..fs..InnerReadDir$GT$$GT$17h4b1b7d52b1f4d7e0E:
Lfunc_begin67:
	.loc	3 490 0
	.cfi_startproc
	pushq	%rbp
	.cfi_def_cfa_offset 16
	.cfi_offset %rbp, -16
	movq	%rsp, %rbp
	.cfi_def_cfa_register %rbp
	subq	$16, %rsp
	movq	%rdi, -8(%rbp)
Ltmp484:
	.loc	3 490 1 prologue_end
	callq	__ZN68_$LT$alloc..sync..Weak$LT$T$GT$$u20$as$u20$core..ops..drop..Drop$GT$4drop17h33f6cccc9347842aE
	addq	$16, %rsp
	popq	%rbp
	retq
Ltmp485:
Lfunc_end67:
	.cfi_endproc

	.p2align	4, 0x90
__ZN4core3ptr81drop_in_place$LT$core..result..Result$LT$$LP$$RP$$C$std..io..error..Error$GT$$GT$17h94d92379f06ecf8dE:
Lfunc_begin68:
	.loc	3 490 0
	.cfi_startproc
	pushq	%rbp
	.cfi_def_cfa_offset 16
	.cfi_offset %rbp, -16
	movq	%rsp, %rbp
	.cfi_def_cfa_register %rbp
	subq	$16, %rsp
	movq	%rdi, -16(%rbp)
	movq	%rdi, -8(%rbp)
Ltmp486:
	.loc	3 490 1 prologue_end
	movq	(%rdi), %rdx
	movl	$1, %eax
	xorl	%ecx, %ecx
	cmpq	$0, %rdx
	cmoveq	%rcx, %rax
	cmpq	$0, %rax
	jne	LBB68_2
LBB68_1:
	addq	$16, %rsp
	popq	%rbp
	retq
LBB68_2:
	.loc	3 0 1 is_stmt 0
	movq	-16(%rbp), %rdi
	.loc	3 490 1
	callq	__ZN4core3ptr42drop_in_place$LT$std..io..error..Error$GT$17h6fd4e1b7df689ae6E
	jmp	LBB68_1
Ltmp487:
Lfunc_end68:
	.cfi_endproc

	.p2align	4, 0x90
__ZN4core3ptr85drop_in_place$LT$std..rt..lang_start$LT$$LP$$RP$$GT$..$u7b$$u7b$closure$u7d$$u7d$$GT$17h3e4c59dee5df0ae8E:
Lfunc_begin69:
	.loc	3 490 0 is_stmt 1
	.cfi_startproc
	pushq	%rbp
	.cfi_def_cfa_offset 16
	.cfi_offset %rbp, -16
	movq	%rsp, %rbp
	.cfi_def_cfa_register %rbp
	pushq	%rax
	movq	%rdi, -8(%rbp)
Ltmp488:
	.loc	3 490 1 prologue_end
	addq	$8, %rsp
	popq	%rbp
	retq
Ltmp489:
Lfunc_end69:
	.cfi_endproc

	.p2align	4, 0x90
__ZN4core3ptr88drop_in_place$LT$$RF$mut$u20$std..io..Write..write_fmt..Adapter$LT$std..fs..File$GT$$GT$17h6b8006d0d3b353dfE:
Lfunc_begin70:
	.loc	3 490 0
	.cfi_startproc
	pushq	%rbp
	.cfi_def_cfa_offset 16
	.cfi_offset %rbp, -16
	movq	%rsp, %rbp
	.cfi_def_cfa_register %rbp
	pushq	%rax
	movq	%rdi, -8(%rbp)
Ltmp490:
	.loc	3 490 1 prologue_end
	addq	$8, %rsp
	popq	%rbp
	retq
Ltmp491:
Lfunc_end70:
	.cfi_endproc

	.p2align	4, 0x90
__ZN4core3ptr93drop_in_place$LT$dyn$u20$core..error..Error$u2b$core..marker..Send$u2b$core..marker..Sync$GT$17h1d47cbecbce1f161E:
Lfunc_begin71:
	.loc	3 490 0
	.cfi_startproc
	pushq	%rbp
	.cfi_def_cfa_offset 16
	.cfi_offset %rbp, -16
	movq	%rsp, %rbp
	.cfi_def_cfa_register %rbp
	subq	$16, %rsp
	movq	%rdi, -16(%rbp)
	movq	%rsi, -8(%rbp)
Ltmp492:
	.loc	3 490 1 prologue_end
	callq	*(%rsi)
	addq	$16, %rsp
	popq	%rbp
	retq
Ltmp493:
Lfunc_end71:
	.cfi_endproc

	.p2align	4, 0x90
__ZN4core3str6traits54_$LT$impl$u20$core..cmp..PartialEq$u20$for$u20$str$GT$2eq17h4c7eba35cd0524a9E:
Lfunc_begin72:
	.file	33 "/rustc/2c8cc343237b8f7d5a3c3703e3a87f2eb2c54a74/library/core/src/str" "traits.rs"
	.loc	33 28 0
	.cfi_startproc
	pushq	%rbp
	.cfi_def_cfa_offset 16
	.cfi_offset %rbp, -16
	movq	%rsp, %rbp
	.cfi_def_cfa_register %rbp
	subq	$112, %rsp
	movq	%rdi, -80(%rbp)
	movq	%rsi, -72(%rbp)
	movq	%rdx, -64(%rbp)
	movq	%rcx, -56(%rbp)
Ltmp494:
	.loc	33 29 9 prologue_end
	movq	%rdi, -48(%rbp)
	movq	%rsi, -40(%rbp)
Ltmp495:
	.loc	27 327 18
	movq	%rdi, -112(%rbp)
	movq	%rsi, -104(%rbp)
Ltmp496:
	.loc	33 29 9
	leaq	-112(%rbp), %rax
	movq	%rax, -32(%rbp)
	.loc	33 29 28 is_stmt 0
	movq	%rdx, -24(%rbp)
	movq	%rcx, -16(%rbp)
Ltmp497:
	.loc	27 327 18 is_stmt 1
	movq	%rdx, -96(%rbp)
	movq	%rcx, -88(%rbp)
Ltmp498:
	.loc	33 29 28
	leaq	-96(%rbp), %rax
	movq	%rax, -8(%rbp)
Ltmp499:
	.loc	30 1531 27
	movq	-112(%rbp), %rdi
	movq	-104(%rbp), %rsi
	.loc	30 1531 34 is_stmt 0
	movq	-96(%rbp), %rdx
	movq	-88(%rbp), %rcx
	.loc	30 1531 13
	callq	__ZN4core5slice3cmp81_$LT$impl$u20$core..cmp..PartialEq$LT$$u5b$B$u5d$$GT$$u20$for$u20$$u5b$A$u5d$$GT$2eq17h07aa2393b2726885E
Ltmp500:
	.loc	33 30 6 is_stmt 1
	andb	$1, %al
	movzbl	%al, %eax
	addq	$112, %rsp
	popq	%rbp
	retq
Ltmp501:
Lfunc_end72:
	.cfi_endproc

	.p2align	4, 0x90
__ZN4core3str6traits54_$LT$impl$u20$core..cmp..PartialEq$u20$for$u20$str$GT$2ne17hadf3abe42c97a225E:
Lfunc_begin73:
	.loc	33 32 0
	.cfi_startproc
	pushq	%rbp
	.cfi_def_cfa_offset 16
	.cfi_offset %rbp, -16
	movq	%rsp, %rbp
	.cfi_def_cfa_register %rbp
	subq	$32, %rsp
	movq	%rdi, -32(%rbp)
	movq	%rsi, -24(%rbp)
	movq	%rdx, -16(%rbp)
	movq	%rcx, -8(%rbp)
Ltmp502:
	.loc	33 33 10 prologue_end
	callq	__ZN4core3str6traits54_$LT$impl$u20$core..cmp..PartialEq$u20$for$u20$str$GT$2eq17h4c7eba35cd0524a9E
	.loc	33 33 9 is_stmt 0
	xorb	$-1, %al
	.loc	33 34 6 is_stmt 1
	andb	$1, %al
	movzbl	%al, %eax
	addq	$32, %rsp
	popq	%rbp
	retq
Ltmp503:
Lfunc_end73:
	.cfi_endproc

	.p2align	4, 0x90
__ZN4core4char7methods15encode_utf8_raw17h1abcea1c85d8307dE:
Lfunc_begin74:
	.loc	31 1729 0
	.cfi_startproc
	pushq	%rbp
	.cfi_def_cfa_offset 16
	.cfi_offset %rbp, -16
	movq	%rsp, %rbp
	.cfi_def_cfa_register %rbp
	subq	$560, %rsp
	movq	%rsi, -544(%rbp)
	movq	%rdx, -536(%rbp)
	movl	%edi, -516(%rbp)
	movq	%rsi, -304(%rbp)
	movq	%rdx, -296(%rbp)
Ltmp504:
	.loc	31 1730 24 prologue_end
	movl	-516(%rbp), %edi
	.loc	31 1730 15 is_stmt 0
	callq	__ZN4core4char7methods8len_utf817he7cea0f74561c42dE
	movq	-544(%rbp), %rsi
	movq	-536(%rbp), %rdx
	movq	%rax, -512(%rbp)
Ltmp505:
	.loc	31 1731 12 is_stmt 1
	movq	-512(%rbp), %rax
	.loc	31 1731 22 is_stmt 0
	movq	%rsi, -272(%rbp)
	movq	%rdx, -264(%rbp)
Ltmp506:
	.loc	1 30 25 is_stmt 1
	movq	%rsi, -256(%rbp)
	movq	%rdx, -248(%rbp)
Ltmp507:
	.loc	31 1731 11
	movq	%rax, -504(%rbp)
	movq	%rsi, -496(%rbp)
	movq	%rdx, -488(%rbp)
	.loc	31 1731 5 is_stmt 0
	movq	-504(%rbp), %rax
	decq	%rax
	movq	%rax, -528(%rbp)
	subq	$3, %rax
	ja	LBB74_1
	.loc	31 0 5
	movq	-528(%rbp), %rax
	leaq	LJTI74_0(%rip), %rcx
	movslq	(%rcx,%rax,4), %rax
	addq	%rcx, %rax
	jmpq	*%rax
LBB74_1:
	movq	-536(%rbp), %rcx
	leaq	-512(%rbp), %rsi
	.loc	31 1750 14 is_stmt 1
	movq	%rsi, -120(%rbp)
Ltmp508:
	.loc	29 328 23
	movq	%rsi, -112(%rbp)
	.loc	29 328 26 is_stmt 0
	movq	__ZN4core3fmt3num3imp54_$LT$impl$u20$core..fmt..Display$u20$for$u20$usize$GT$3fmt17ha5c925fcd7ed33faE@GOTPCREL(%rip), %rax
	movq	%rax, -104(%rbp)
Ltmp509:
	.loc	29 347 42 is_stmt 1
	movq	%rax, -96(%rbp)
	movq	-96(%rbp), %rdx
	.loc	29 347 68 is_stmt 0
	movq	%rsi, -88(%rbp)
	movq	-88(%rbp), %rsi
	.loc	29 347 18
	movq	%rsi, -384(%rbp)
	movq	%rdx, -376(%rbp)
	leaq	-516(%rbp), %rsi
Ltmp510:
	.loc	31 1750 14 is_stmt 1
	movq	%rsi, -80(%rbp)
Ltmp511:
	.loc	29 328 23
	movq	%rsi, -72(%rbp)
	.loc	29 328 26 is_stmt 0
	movq	__ZN4core3fmt3num53_$LT$impl$u20$core..fmt..UpperHex$u20$for$u20$u32$GT$3fmt17ha96bbefe8f663d11E@GOTPCREL(%rip), %rdx
	movq	%rdx, -64(%rbp)
Ltmp512:
	.loc	29 347 42 is_stmt 1
	movq	%rdx, -56(%rbp)
	movq	-56(%rbp), %rdx
	.loc	29 347 68 is_stmt 0
	movq	%rsi, -48(%rbp)
	movq	-48(%rbp), %rsi
	.loc	29 347 18
	movq	%rsi, -368(%rbp)
	movq	%rdx, -360(%rbp)
Ltmp513:
	.loc	31 1754 13 is_stmt 1
	movq	%rcx, -336(%rbp)
	leaq	-336(%rbp), %rcx
	.loc	31 1750 14
	movq	%rcx, -40(%rbp)
Ltmp514:
	.loc	29 328 23
	movq	%rcx, -32(%rbp)
	.loc	29 328 26 is_stmt 0
	movq	%rax, -24(%rbp)
Ltmp515:
	.loc	29 347 42 is_stmt 1
	movq	%rax, -16(%rbp)
	movq	-16(%rbp), %rax
	.loc	29 347 68 is_stmt 0
	movq	%rcx, -8(%rbp)
	movq	-8(%rbp), %rcx
	.loc	29 347 18
	movq	%rcx, -352(%rbp)
	movq	%rax, -344(%rbp)
Ltmp516:
	.loc	31 1750 14 is_stmt 1
	movq	-384(%rbp), %rcx
	movq	-376(%rbp), %rax
	movq	%rcx, -432(%rbp)
	movq	%rax, -424(%rbp)
	movq	-368(%rbp), %rcx
	movq	-360(%rbp), %rax
	movq	%rcx, -416(%rbp)
	movq	%rax, -408(%rbp)
	movq	-352(%rbp), %rcx
	movq	-344(%rbp), %rax
	movq	%rcx, -400(%rbp)
	movq	%rax, -392(%rbp)
	leaq	l___unnamed_15(%rip), %rsi
	leaq	-480(%rbp), %rdi
	movq	%rdi, -552(%rbp)
	leaq	-432(%rbp), %rcx
	movl	$3, %r8d
	movq	%r8, %rdx
	callq	__ZN4core3fmt9Arguments6new_v117h8abefee7c24ee4cfE
	movq	-552(%rbp), %rdi
	leaq	l___unnamed_16(%rip), %rsi
	callq	__ZN4core9panicking9panic_fmt17h9b5d807e24bcaaedE
LBB74_2:
	.loc	31 1732 13
	cmpq	$1, -488(%rbp)
	jae	LBB74_10
	jmp	LBB74_1
LBB74_3:
	.loc	31 1735 13
	cmpq	$2, -488(%rbp)
	jae	LBB74_9
	jmp	LBB74_1
LBB74_4:
	.loc	31 1739 13
	cmpq	$3, -488(%rbp)
	jae	LBB74_8
	jmp	LBB74_1
LBB74_5:
	.loc	31 1744 13
	cmpq	$4, -488(%rbp)
	jb	LBB74_1
	.loc	31 1744 14 is_stmt 0
	movq	-496(%rbp), %rsi
	movq	%rsi, -240(%rbp)
	.loc	31 1744 17
	movq	-496(%rbp), %rdx
	movq	%rdx, %rax
	addq	$1, %rax
	movq	%rax, -232(%rbp)
	.loc	31 1744 20
	movq	-496(%rbp), %rcx
	movq	%rcx, %rax
	addq	$2, %rax
	movq	%rax, -224(%rbp)
	.loc	31 1744 23
	movq	-496(%rbp), %rax
	movq	%rax, %rdi
	addq	$3, %rdi
	movq	%rdi, -216(%rbp)
Ltmp517:
	.loc	31 1745 19 is_stmt 1
	movl	-516(%rbp), %edi
	shrl	$18, %edi
	.loc	31 1745 18 is_stmt 0
	andl	$7, %edi
	.loc	31 1745 13
	orb	$-16, %dil
	movb	%dil, (%rsi)
	.loc	31 1746 19 is_stmt 1
	movl	-516(%rbp), %esi
	shrl	$12, %esi
	.loc	31 1746 18 is_stmt 0
	andl	$63, %esi
	.loc	31 1746 13
	orb	$-128, %sil
	movb	%sil, 1(%rdx)
	.loc	31 1747 19 is_stmt 1
	movl	-516(%rbp), %edx
	shrl	$6, %edx
	.loc	31 1747 18 is_stmt 0
	andl	$63, %edx
	.loc	31 1747 13
	orb	$-128, %dl
	movb	%dl, 2(%rcx)
	.loc	31 1748 19 is_stmt 1
	movl	-516(%rbp), %ecx
	.loc	31 1748 18 is_stmt 0
	andl	$63, %ecx
	.loc	31 1748 13
	orb	$-128, %cl
	movb	%cl, 3(%rax)
Ltmp518:
LBB74_7:
	.loc	31 0 13
	movq	-536(%rbp), %rcx
	movq	-544(%rbp), %rdx
	.loc	31 1757 10 is_stmt 1
	movq	%rdx, -160(%rbp)
	movq	%rcx, -152(%rbp)
	.loc	31 1757 16 is_stmt 0
	movq	-512(%rbp), %rax
	.loc	31 1757 14
	movq	%rax, -328(%rbp)
Ltmp519:
	.loc	1 30 9 is_stmt 1
	movq	-328(%rbp), %rax
	movq	%rax, -144(%rbp)
	.loc	1 30 25 is_stmt 0
	movq	%rdx, -136(%rbp)
	movq	%rcx, -128(%rbp)
Ltmp520:
	.loc	1 461 9 is_stmt 1
	movq	$0, -320(%rbp)
	movq	%rax, -312(%rbp)
	movq	-320(%rbp), %rdi
	movq	-312(%rbp), %rsi
	leaq	l___unnamed_17(%rip), %r8
	callq	__ZN106_$LT$core..ops..range..Range$LT$usize$GT$$u20$as$u20$core..slice..index..SliceIndex$LT$$u5b$T$u5d$$GT$$GT$9index_mut17h9e0c77e9da2080f4E
Ltmp521:
	.loc	31 1758 2
	addq	$560, %rsp
	popq	%rbp
	retq
LBB74_8:
Ltmp522:
	.loc	31 1739 14
	movq	-496(%rbp), %rdx
	movq	%rdx, -208(%rbp)
	.loc	31 1739 17 is_stmt 0
	movq	-496(%rbp), %rcx
	movq	%rcx, %rax
	addq	$1, %rax
	movq	%rax, -200(%rbp)
	.loc	31 1739 20
	movq	-496(%rbp), %rax
	movq	%rax, %rsi
	addq	$2, %rsi
	movq	%rsi, -192(%rbp)
Ltmp523:
	.loc	31 1740 19 is_stmt 1
	movl	-516(%rbp), %esi
	shrl	$12, %esi
	.loc	31 1740 18 is_stmt 0
	andl	$15, %esi
	.loc	31 1740 13
	orb	$-32, %sil
	movb	%sil, (%rdx)
	.loc	31 1741 19 is_stmt 1
	movl	-516(%rbp), %edx
	shrl	$6, %edx
	.loc	31 1741 18 is_stmt 0
	andl	$63, %edx
	.loc	31 1741 13
	orb	$-128, %dl
	movb	%dl, 1(%rcx)
	.loc	31 1742 19 is_stmt 1
	movl	-516(%rbp), %ecx
	.loc	31 1742 18 is_stmt 0
	andl	$63, %ecx
	.loc	31 1742 13
	orb	$-128, %cl
	movb	%cl, 2(%rax)
Ltmp524:
	.loc	31 1743 9 is_stmt 1
	jmp	LBB74_7
LBB74_9:
	.loc	31 1735 14
	movq	-496(%rbp), %rcx
	movq	%rcx, -184(%rbp)
	.loc	31 1735 17 is_stmt 0
	movq	-496(%rbp), %rax
	movq	%rax, %rdx
	addq	$1, %rdx
	movq	%rdx, -176(%rbp)
Ltmp525:
	.loc	31 1736 19 is_stmt 1
	movl	-516(%rbp), %edx
	shrl	$6, %edx
	.loc	31 1736 18 is_stmt 0
	andl	$31, %edx
	.loc	31 1736 13
	orb	$-64, %dl
	movb	%dl, (%rcx)
	.loc	31 1737 19 is_stmt 1
	movl	-516(%rbp), %ecx
	.loc	31 1737 18 is_stmt 0
	andl	$63, %ecx
	.loc	31 1737 13
	orb	$-128, %cl
	movb	%cl, 1(%rax)
Ltmp526:
	.loc	31 1738 9 is_stmt 1
	jmp	LBB74_7
LBB74_10:
	.loc	31 1732 14
	movq	-496(%rbp), %rax
	movq	%rax, -168(%rbp)
Ltmp527:
	.loc	31 1733 18
	movl	-516(%rbp), %ecx
	.loc	31 1733 13 is_stmt 0
	movb	%cl, (%rax)
Ltmp528:
	.loc	31 1734 9 is_stmt 1
	jmp	LBB74_7
Ltmp529:
Lfunc_end74:
	.cfi_endproc
	.p2align	2, 0x90
	.data_region jt32
.set L74_0_set_2, LBB74_2-LJTI74_0
.set L74_0_set_3, LBB74_3-LJTI74_0
.set L74_0_set_4, LBB74_4-LJTI74_0
.set L74_0_set_5, LBB74_5-LJTI74_0
LJTI74_0:
	.long	L74_0_set_2
	.long	L74_0_set_3
	.long	L74_0_set_4
	.long	L74_0_set_5
	.end_data_region

	.p2align	4, 0x90
__ZN4core4char7methods8len_utf817he7cea0f74561c42dE:
Lfunc_begin75:
	.loc	31 1701 0
	.cfi_startproc
	pushq	%rbp
	.cfi_def_cfa_offset 16
	.cfi_offset %rbp, -16
	movq	%rsp, %rbp
	.cfi_def_cfa_register %rbp
	subq	$24, %rsp
	movl	%edi, -20(%rbp)
	movl	%edi, -4(%rbp)
Ltmp530:
	.loc	31 1702 8 prologue_end
	cmpl	$128, %edi
	jb	LBB75_2
	.loc	31 0 8 is_stmt 0
	movl	-20(%rbp), %eax
	.loc	31 1704 15 is_stmt 1
	cmpl	$2048, %eax
	jb	LBB75_5
	jmp	LBB75_4
LBB75_2:
	.loc	31 1703 9
	movq	$1, -16(%rbp)
LBB75_3:
	.loc	31 1711 2
	movq	-16(%rbp), %rax
	addq	$24, %rsp
	popq	%rbp
	retq
LBB75_4:
	.loc	31 0 2 is_stmt 0
	movl	-20(%rbp), %eax
	.loc	31 1706 15 is_stmt 1
	cmpl	$65536, %eax
	jb	LBB75_8
	jmp	LBB75_7
LBB75_5:
	.loc	31 1705 9
	movq	$2, -16(%rbp)
LBB75_6:
	.loc	31 1702 5
	jmp	LBB75_3
LBB75_7:
	.loc	31 1709 9
	movq	$4, -16(%rbp)
	.loc	31 1706 12
	jmp	LBB75_9
LBB75_8:
	.loc	31 1707 9
	movq	$3, -16(%rbp)
LBB75_9:
	.loc	31 1704 12
	jmp	LBB75_6
Ltmp531:
Lfunc_end75:
	.cfi_endproc

	.p2align	4, 0x90
__ZN4core4hint21unreachable_unchecked17h12dc8325387ffcb7E:
Lfunc_begin76:
	.loc	9 100 0
	.cfi_startproc
	pushq	%rbp
	.cfi_def_cfa_offset 16
	.cfi_offset %rbp, -16
	movq	%rsp, %rbp
	.cfi_def_cfa_register %rbp
Ltmp532:
	.loc	9 104 9 prologue_end
	ud2
Ltmp533:
Lfunc_end76:
	.cfi_endproc

	.p2align	4, 0x90
__ZN4core4sync6atomic10atomic_sub17h6890dda9651394c6E:
Lfunc_begin77:
	.file	34 "/rustc/2c8cc343237b8f7d5a3c3703e3a87f2eb2c54a74/library/core/src/sync" "atomic.rs"
	.loc	34 3069 0
	.cfi_startproc
	pushq	%rbp
	.cfi_def_cfa_offset 16
	.cfi_offset %rbp, -16
	movq	%rsp, %rbp
	.cfi_def_cfa_register %rbp
	subq	$56, %rsp
	movq	%rsi, -56(%rbp)
	movq	%rdi, -48(%rbp)
	movb	%dl, %al
	movb	%al, -25(%rbp)
	movq	%rdi, -16(%rbp)
	movq	%rsi, -8(%rbp)
Ltmp534:
	.loc	34 3072 15 prologue_end
	movzbl	-25(%rbp), %eax
	movq	%rax, -40(%rbp)
	.loc	34 0 15 is_stmt 0
	movq	-40(%rbp), %rax
	leaq	LJTI77_0(%rip), %rcx
	movslq	(%rcx,%rax,4), %rax
	addq	%rcx, %rax
	jmpq	*%rax
	.loc	34 3072 15
	ud2
LBB77_2:
	.loc	34 0 15
	movq	-48(%rbp), %rcx
	movq	-56(%rbp), %rax
	.loc	34 3073 24 is_stmt 1
	negq	%rax
	lock		xaddq	%rax, (%rcx)
	movq	%rax, -24(%rbp)
	.loc	34 3073 64 is_stmt 0
	jmp	LBB77_7
LBB77_3:
	.loc	34 0 64
	movq	-48(%rbp), %rcx
	movq	-56(%rbp), %rax
	.loc	34 3075 24 is_stmt 1
	negq	%rax
	lock		xaddq	%rax, (%rcx)
	movq	%rax, -24(%rbp)
	.loc	34 3075 64 is_stmt 0
	jmp	LBB77_7
LBB77_4:
	.loc	34 0 64
	movq	-48(%rbp), %rcx
	movq	-56(%rbp), %rax
	.loc	34 3074 24 is_stmt 1
	negq	%rax
	lock		xaddq	%rax, (%rcx)
	movq	%rax, -24(%rbp)
	.loc	34 3074 64 is_stmt 0
	jmp	LBB77_7
LBB77_5:
	.loc	34 0 64
	movq	-48(%rbp), %rcx
	movq	-56(%rbp), %rax
	.loc	34 3076 23 is_stmt 1
	negq	%rax
	lock		xaddq	%rax, (%rcx)
	movq	%rax, -24(%rbp)
	.loc	34 3076 62 is_stmt 0
	jmp	LBB77_7
LBB77_6:
	.loc	34 0 62
	movq	-48(%rbp), %rcx
	movq	-56(%rbp), %rax
	.loc	34 3077 23 is_stmt 1
	negq	%rax
	lock		xaddq	%rax, (%rcx)
	movq	%rax, -24(%rbp)
LBB77_7:
	.loc	34 3080 2
	movq	-24(%rbp), %rax
	addq	$56, %rsp
	popq	%rbp
	retq
Ltmp535:
Lfunc_end77:
	.cfi_endproc
	.p2align	2, 0x90
	.data_region jt32
.set L77_0_set_2, LBB77_2-LJTI77_0
.set L77_0_set_3, LBB77_3-LJTI77_0
.set L77_0_set_4, LBB77_4-LJTI77_0
.set L77_0_set_5, LBB77_5-LJTI77_0
.set L77_0_set_6, LBB77_6-LJTI77_0
LJTI77_0:
	.long	L77_0_set_2
	.long	L77_0_set_3
	.long	L77_0_set_4
	.long	L77_0_set_5
	.long	L77_0_set_6
	.end_data_region

	.p2align	4, 0x90
__ZN4core4sync6atomic5fence17hbbe07fa695b85333E:
Lfunc_begin78:
	.loc	34 3362 0
	.cfi_startproc
	pushq	%rbp
	.cfi_def_cfa_offset 16
	.cfi_offset %rbp, -16
	movq	%rsp, %rbp
	.cfi_def_cfa_register %rbp
	subq	$80, %rsp
	movb	%dil, %al
	movb	%al, -49(%rbp)
Ltmp536:
	.loc	34 3365 15 prologue_end
	movzbl	-49(%rbp), %eax
	movq	%rax, -64(%rbp)
	.loc	34 0 15 is_stmt 0
	movq	-64(%rbp), %rax
	leaq	LJTI78_0(%rip), %rcx
	movslq	(%rcx,%rax,4), %rax
	addq	%rcx, %rax
	jmpq	*%rax
	.loc	34 3365 15
	ud2
LBB78_2:
	.loc	34 3370 24 is_stmt 1
	leaq	l___unnamed_18(%rip), %rsi
	leaq	l___unnamed_13(%rip), %rcx
	xorl	%eax, %eax
	movl	%eax, %r8d
	leaq	-48(%rbp), %rdi
	movq	%rdi, -72(%rbp)
	movl	$1, %edx
	callq	__ZN4core3fmt9Arguments6new_v117h8abefee7c24ee4cfE
	movq	-72(%rbp), %rdi
	leaq	l___unnamed_19(%rip), %rsi
	callq	__ZN4core9panicking9panic_fmt17h9b5d807e24bcaaedE
LBB78_3:
	##MEMBARRIER
	.loc	34 3367 24
	jmp	LBB78_7
LBB78_4:
	##MEMBARRIER
	.loc	34 3366 24
	jmp	LBB78_7
LBB78_5:
	##MEMBARRIER
	.loc	34 3368 23
	jmp	LBB78_7
LBB78_6:
	.loc	34 3369 23
	mfence
LBB78_7:
	.loc	34 3373 2
	addq	$80, %rsp
	popq	%rbp
	retq
Ltmp537:
Lfunc_end78:
	.cfi_endproc
	.p2align	2, 0x90
	.data_region jt32
.set L78_0_set_2, LBB78_2-LJTI78_0
.set L78_0_set_3, LBB78_3-LJTI78_0
.set L78_0_set_4, LBB78_4-LJTI78_0
.set L78_0_set_5, LBB78_5-LJTI78_0
.set L78_0_set_6, LBB78_6-LJTI78_0
LJTI78_0:
	.long	L78_0_set_2
	.long	L78_0_set_3
	.long	L78_0_set_4
	.long	L78_0_set_5
	.long	L78_0_set_6
	.end_data_region

	.p2align	4, 0x90
__ZN4core5alloc6layout6Layout13for_value_raw17h0cedce3a71a1a07bE:
Lfunc_begin79:
	.file	35 "/rustc/2c8cc343237b8f7d5a3c3703e3a87f2eb2c54a74/library/core/src/alloc" "layout.rs"
	.loc	35 197 0
	.cfi_startproc
	pushq	%rbp
	.cfi_def_cfa_offset 16
	.cfi_offset %rbp, -16
	movq	%rsp, %rbp
	.cfi_def_cfa_register %rbp
	subq	$120, %rsp
	movq	%rdi, -88(%rbp)
Ltmp538:
	.loc	35 199 60 prologue_end
	movq	%rdi, -80(%rbp)
Ltmp539:
	.file	36 "/rustc/2c8cc343237b8f7d5a3c3703e3a87f2eb2c54a74/library/core/src/mem" "mod.rs"
	.loc	36 387 14
	movq	$48, -72(%rbp)
	movq	-72(%rbp), %rcx
Ltmp540:
	.loc	35 199 86
	movq	%rdi, -64(%rbp)
Ltmp541:
	.loc	36 529 14
	movq	$8, -56(%rbp)
	movq	-56(%rbp), %rax
Ltmp542:
	.loc	35 199 38
	movq	%rcx, -104(%rbp)
	movq	%rax, -96(%rbp)
	.loc	35 199 14 is_stmt 0
	movq	-104(%rbp), %rcx
	movq	%rcx, -48(%rbp)
	.loc	35 199 20
	movq	-96(%rbp), %rax
	movq	%rax, -40(%rbp)
Ltmp543:
	.loc	35 201 52 is_stmt 1
	movq	%rcx, -32(%rbp)
	.loc	35 201 58 is_stmt 0
	movq	%rax, -24(%rbp)
Ltmp544:
	.loc	35 120 65 is_stmt 1
	movq	%rax, -16(%rbp)
Ltmp545:
	.file	37 "/rustc/2c8cc343237b8f7d5a3c3703e3a87f2eb2c54a74/library/core/src/ptr" "alignment.rs"
	.loc	37 89 18
	movq	%rax, -8(%rbp)
	movq	-8(%rbp), %rax
Ltmp546:
	.loc	35 120 18
	movq	%rcx, -120(%rbp)
	movq	%rax, -112(%rbp)
Ltmp547:
	.loc	35 202 6
	movq	-120(%rbp), %rax
	movq	-112(%rbp), %rdx
	addq	$120, %rsp
	popq	%rbp
	retq
Ltmp548:
Lfunc_end79:
	.cfi_endproc

	.p2align	4, 0x90
__ZN4core5alloc6layout6Layout5array5inner17he52fa74ef2b053beE:
Lfunc_begin80:
	.loc	35 441 0
	.cfi_startproc
	pushq	%rbp
	.cfi_def_cfa_offset 16
	.cfi_offset %rbp, -16
	movq	%rsp, %rbp
	.cfi_def_cfa_register %rbp
	subq	$176, %rsp
	movq	%rdi, -168(%rbp)
	movq	%rsi, -160(%rbp)
	movq	%rdx, -152(%rbp)
	movq	%rdi, -88(%rbp)
	movq	%rsi, -80(%rbp)
	movq	%rdx, -72(%rbp)
Ltmp549:
	.loc	35 452 16 prologue_end
	cmpq	$0, %rdi
	jne	LBB80_2
	movb	$0, -121(%rbp)
	jmp	LBB80_5
LBB80_2:
	.loc	35 0 16 is_stmt 0
	movq	-168(%rbp), %rax
	movq	-160(%rbp), %rcx
	.loc	35 452 68
	movq	%rcx, -64(%rbp)
Ltmp550:
	.loc	35 93 32 is_stmt 1
	movq	%rcx, -56(%rbp)
Ltmp551:
	.loc	37 97 9
	movq	%rcx, -104(%rbp)
	movq	-104(%rbp), %rdx
Ltmp552:
	.loc	35 93 31
	subq	$1, %rdx
	.loc	35 93 9 is_stmt 0
	movabsq	$9223372036854775807, %rcx
	subq	%rdx, %rcx
	movq	%rcx, -176(%rbp)
Ltmp553:
	.loc	35 452 41 is_stmt 1
	cmpq	$0, %rax
	sete	%al
	testb	$1, %al
	jne	LBB80_4
	.loc	35 0 41 is_stmt 0
	movq	-168(%rbp), %rcx
	movq	-176(%rbp), %rax
	.loc	35 452 41
	xorl	%edx, %edx
	divq	%rcx
	movq	%rax, %rcx
	movq	-152(%rbp), %rax
	.loc	35 452 37
	cmpq	%rcx, %rax
	seta	%al
	.loc	35 452 16
	andb	$1, %al
	movb	%al, -121(%rbp)
	jmp	LBB80_5
LBB80_4:
	.loc	35 452 41
	leaq	_str.0(%rip), %rdi
	leaq	l___unnamed_20(%rip), %rdx
	movl	$25, %esi
	callq	__ZN4core9panicking5panic17hc1bc45270cf64b03E
LBB80_5:
	.loc	35 452 16
	testb	$1, -121(%rbp)
	jne	LBB80_7
	.loc	35 0 16
	movq	-160(%rbp), %rax
	movq	-152(%rbp), %rdx
	movq	-168(%rbp), %rcx
	.loc	35 456 30 is_stmt 1
	imulq	%rdx, %rcx
	movq	%rcx, -48(%rbp)
Ltmp554:
	.loc	35 461 59
	movq	%rcx, -40(%rbp)
	.loc	35 461 71 is_stmt 0
	movq	%rax, -32(%rbp)
Ltmp555:
	.loc	37 97 9 is_stmt 1
	movq	%rax, -96(%rbp)
	movq	-96(%rbp), %rax
	movq	%rax, -24(%rbp)
Ltmp556:
	.loc	35 120 65
	movq	%rax, -16(%rbp)
Ltmp557:
	.loc	37 89 18
	movq	%rax, -8(%rbp)
	movq	-8(%rbp), %rax
Ltmp558:
	.loc	35 120 18
	movq	%rcx, -120(%rbp)
	movq	%rax, -112(%rbp)
Ltmp559:
	.loc	35 461 22
	movq	-120(%rbp), %rcx
	movq	-112(%rbp), %rax
	movq	%rcx, -144(%rbp)
	movq	%rax, -136(%rbp)
Ltmp560:
	.loc	35 462 10
	jmp	LBB80_8
LBB80_7:
	.loc	35 453 24
	movq	$0, -136(%rbp)
LBB80_8:
	.loc	35 462 10
	movq	-144(%rbp), %rax
	movq	-136(%rbp), %rdx
	addq	$176, %rsp
	popq	%rbp
	retq
Ltmp561:
Lfunc_end80:
	.cfi_endproc

	.p2align	4, 0x90
__ZN4core5slice3cmp81_$LT$impl$u20$core..cmp..PartialEq$LT$$u5b$B$u5d$$GT$$u20$for$u20$$u5b$A$u5d$$GT$2eq17h07aa2393b2726885E:
Lfunc_begin81:
	.file	38 "/rustc/2c8cc343237b8f7d5a3c3703e3a87f2eb2c54a74/library/core/src/slice" "cmp.rs"
	.loc	38 25 0
	.cfi_startproc
	pushq	%rbp
	.cfi_def_cfa_offset 16
	.cfi_offset %rbp, -16
	movq	%rsp, %rbp
	.cfi_def_cfa_register %rbp
	subq	$32, %rsp
	movq	%rdi, -32(%rbp)
	movq	%rsi, -24(%rbp)
	movq	%rdx, -16(%rbp)
	movq	%rcx, -8(%rbp)
Ltmp562:
	.loc	38 26 9 prologue_end
	callq	__ZN73_$LT$$u5b$A$u5d$$u20$as$u20$core..slice..cmp..SlicePartialEq$LT$B$GT$$GT$5equal17h2827c1dfb76da2d1E
	.loc	38 27 6
	andb	$1, %al
	movzbl	%al, %eax
	addq	$32, %rsp
	popq	%rbp
	retq
Ltmp563:
Lfunc_end81:
	.cfi_endproc

	.p2align	4, 0x90
__ZN4core6option15Option$LT$T$GT$6unwrap17h3c2d590fbef6125aE:
Lfunc_begin82:
	.loc	18 820 0
	.cfi_startproc
	pushq	%rbp
	.cfi_def_cfa_offset 16
	.cfi_offset %rbp, -16
	movq	%rsp, %rbp
	.cfi_def_cfa_register %rbp
	subq	$48, %rsp
	movq	%rdx, -40(%rbp)
	movq	%rdi, -32(%rbp)
	movq	%rsi, -24(%rbp)
Ltmp564:
	.loc	18 821 15 prologue_end
	movq	-32(%rbp), %rdx
	movl	$1, %eax
	xorl	%ecx, %ecx
	cmpq	$0, %rdx
	cmoveq	%rcx, %rax
	.loc	18 821 9 is_stmt 0
	cmpq	$0, %rax
	jne	LBB82_2
	.loc	18 0 9
	movq	-40(%rbp), %rdx
	.loc	18 823 21 is_stmt 1
	leaq	l___unnamed_21(%rip), %rdi
	movl	$43, %esi
	callq	__ZN4core9panicking5panic17hc1bc45270cf64b03E
LBB82_2:
	.loc	18 822 18
	movq	-32(%rbp), %rax
	movq	-24(%rbp), %rdx
	movq	%rax, -16(%rbp)
	movq	%rdx, -8(%rbp)
	.loc	18 825 6
	addq	$48, %rsp
	popq	%rbp
	retq
Ltmp565:
Lfunc_end82:
	.cfi_endproc

	.p2align	4, 0x90
__ZN4core6option15Option$LT$T$GT$6unwrap17h95d06ede5780a07aE:
Lfunc_begin83:
	.loc	18 820 0
	.cfi_startproc
	pushq	%rbp
	.cfi_def_cfa_offset 16
	.cfi_offset %rbp, -16
	movq	%rsp, %rbp
	.cfi_def_cfa_register %rbp
	subq	$48, %rsp
	movq	%rdx, -40(%rbp)
	movq	%rdi, -32(%rbp)
	movq	%rsi, -24(%rbp)
Ltmp566:
	.loc	18 821 15 prologue_end
	movq	-32(%rbp), %rdx
	movl	$1, %eax
	xorl	%ecx, %ecx
	cmpq	$0, %rdx
	cmoveq	%rcx, %rax
	.loc	18 821 9 is_stmt 0
	cmpq	$0, %rax
	jne	LBB83_2
	.loc	18 0 9
	movq	-40(%rbp), %rdx
	.loc	18 823 21 is_stmt 1
	leaq	l___unnamed_21(%rip), %rdi
	movl	$43, %esi
	callq	__ZN4core9panicking5panic17hc1bc45270cf64b03E
LBB83_2:
	.loc	18 822 18
	movq	-32(%rbp), %rax
	movq	-24(%rbp), %rdx
	movq	%rax, -16(%rbp)
	movq	%rdx, -8(%rbp)
	.loc	18 825 6
	addq	$48, %rsp
	popq	%rbp
	retq
Ltmp567:
Lfunc_end83:
	.cfi_endproc

	.p2align	4, 0x90
__ZN4core6result19Result$LT$T$C$E$GT$16unwrap_unchecked17h5df92992c9dc3574E:
Lfunc_begin84:
	.loc	16 1530 0
	.cfi_startproc
	.cfi_personality 155, _rust_eh_personality
	.cfi_lsda 16, Lexception14
	pushq	%rbp
	.cfi_def_cfa_offset 16
	.cfi_offset %rbp, -16
	movq	%rsp, %rbp
	.cfi_def_cfa_register %rbp
	subq	$64, %rsp
	movq	%rdi, -48(%rbp)
	movq	%rsi, -40(%rbp)
Ltmp571:
	.loc	16 1532 15 prologue_end
	xorl	%eax, %eax
	movl	$1, %ecx
	cmpq	$0, -40(%rbp)
	cmoveq	%rcx, %rax
	.loc	16 1532 9 is_stmt 0
	cmpq	$0, %rax
	jne	LBB84_2
	.loc	16 1533 16 is_stmt 1
	movq	-48(%rbp), %rcx
	movq	%rcx, -64(%rbp)
	movq	-40(%rbp), %rax
	movq	%rax, -56(%rbp)
	movq	%rcx, -16(%rbp)
	movq	%rax, -8(%rbp)
	.loc	16 1537 5
	xorl	%eax, %eax
	movl	$1, %ecx
	cmpq	$0, -40(%rbp)
	cmoveq	%rcx, %rax
	cmpq	$0, %rax
	je	LBB84_10
	jmp	LBB84_11
LBB84_2:
Ltmp568:
	.loc	16 1535 32
	callq	__ZN4core4hint21unreachable_unchecked17h12dc8325387ffcb7E
Ltmp569:
	jmp	LBB84_5
LBB84_3:
	.loc	16 1537 5
	xorl	%eax, %eax
	movl	$1, %ecx
	cmpq	$0, -40(%rbp)
	cmoveq	%rcx, %rax
	cmpq	$0, %rax
	je	LBB84_6
	jmp	LBB84_7
LBB84_4:
Ltmp570:
	.loc	16 0 5 is_stmt 0
	movq	%rax, %rcx
	movl	%edx, %eax
	movq	%rcx, -32(%rbp)
	movl	%eax, -24(%rbp)
	jmp	LBB84_3
LBB84_5:
	ud2
LBB84_6:
	.loc	16 1537 5
	movb	$1, %al
	testb	$1, %al
	jne	LBB84_9
	jmp	LBB84_8
LBB84_7:
	jmp	LBB84_8
LBB84_8:
	.loc	16 1530 5 is_stmt 1
	movq	-32(%rbp), %rdi
	callq	__Unwind_Resume
LBB84_9:
	.loc	16 1537 5
	jmp	LBB84_8
LBB84_10:
	.loc	16 0 5 is_stmt 0
	movq	-56(%rbp), %rdx
	movq	-64(%rbp), %rax
	.loc	16 1537 6
	addq	$64, %rsp
	popq	%rbp
	retq
LBB84_11:
	.loc	16 1537 5
	jmp	LBB84_10
Ltmp572:
Lfunc_end84:
	.cfi_endproc
	.section	__TEXT,__gcc_except_tab
	.p2align	2
GCC_except_table84:
Lexception14:
	.byte	255
	.byte	255
	.byte	1
	.uleb128 Lcst_end14-Lcst_begin14
Lcst_begin14:
	.uleb128 Ltmp568-Lfunc_begin84
	.uleb128 Ltmp569-Ltmp568
	.uleb128 Ltmp570-Lfunc_begin84
	.byte	0
	.uleb128 Ltmp569-Lfunc_begin84
	.uleb128 Lfunc_end84-Ltmp569
	.byte	0
	.byte	0
Lcst_end14:
	.p2align	2

	.section	__TEXT,__text,regular,pure_instructions
	.p2align	4, 0x90
__ZN4core6result19Result$LT$T$C$E$GT$3map17hed0dcb7d85644172E:
Lfunc_begin85:
	.loc	16 772 0 is_stmt 1
	.cfi_startproc
	pushq	%rbp
	.cfi_def_cfa_offset 16
	.cfi_offset %rbp, -16
	movq	%rsp, %rbp
	.cfi_def_cfa_register %rbp
	subq	$80, %rsp
	movq	%rsi, -80(%rbp)
Ltmp573:
	movq	%rdi, -72(%rbp)
	movq	%rdi, -64(%rbp)
Ltmp574:
	.loc	16 773 15 prologue_end
	movb	$1, -33(%rbp)
	xorl	%eax, %eax
	movl	$1, %ecx
	cmpb	$2, 8(%rsi)
	cmoveq	%rcx, %rax
	.loc	16 773 9 is_stmt 0
	cmpq	$0, %rax
Ltmp575:
	jne	LBB85_2
Ltmp576:
	.loc	16 0 9
	movq	-80(%rbp), %rax
	.loc	16 774 16 is_stmt 1
	movq	(%rax), %rcx
	movb	8(%rax), %al
	movq	%rcx, -16(%rbp)
	movb	%al, %dl
	andb	$1, %dl
	movb	%dl, -8(%rbp)
Ltmp577:
	.loc	16 774 25 is_stmt 0
	movb	$0, -33(%rbp)
	movq	%rcx, -56(%rbp)
	andb	$1, %al
	movb	%al, -48(%rbp)
	movq	-56(%rbp), %rdi
	movb	-48(%rbp), %al
	andb	$1, %al
	movzbl	%al, %esi
	callq	__ZN4core3ops8function6FnOnce9call_once17h99199c1f07280b09E
	movq	%rax, %rcx
	movq	-72(%rbp), %rax
	.loc	16 774 22
	movq	%rcx, (%rax)
	andb	$1, %dl
	movb	%dl, 8(%rax)
Ltmp578:
	.loc	16 774 30
	jmp	LBB85_3
Ltmp579:
LBB85_2:
	.loc	16 0 30
	movq	-72(%rbp), %rax
	movq	-80(%rbp), %rcx
	.loc	16 775 17 is_stmt 1
	movq	(%rcx), %rcx
	movq	%rcx, -24(%rbp)
Ltmp580:
	.loc	16 775 23 is_stmt 0
	movq	%rcx, (%rax)
	movb	$2, 8(%rax)
Ltmp581:
LBB85_3:
	.loc	16 777 5 is_stmt 1
	testb	$1, -33(%rbp)
	jne	LBB85_5
Ltmp582:
LBB85_4:
	.loc	16 0 5 is_stmt 0
	movq	-64(%rbp), %rax
	.loc	16 777 6
	addq	$80, %rsp
	popq	%rbp
	retq
Ltmp583:
LBB85_5:
	.loc	16 777 5
	jmp	LBB85_4
Ltmp584:
Lfunc_end85:
	.cfi_endproc

	.p2align	4, 0x90
__ZN4core6result19Result$LT$T$C$E$GT$6unwrap17h3d4374ef3d15d92cE:
Lfunc_begin86:
	.loc	16 1106 0 is_stmt 1
	.cfi_startproc
	.cfi_personality 155, _rust_eh_personality
	.cfi_lsda 16, Lexception15
	pushq	%rbp
	.cfi_def_cfa_offset 16
	.cfi_offset %rbp, -16
	movq	%rsp, %rbp
	.cfi_def_cfa_register %rbp
	subq	$64, %rsp
	movq	%rdi, -56(%rbp)
Ltmp591:
	movq	%rsi, -48(%rbp)
Ltmp592:
	.loc	16 1110 15 prologue_end
	xorl	%eax, %eax
	movl	$1, %ecx
	cmpb	$2, 8(%rdi)
	cmoveq	%rcx, %rax
	.loc	16 1110 9 is_stmt 0
	cmpq	$0, %rax
Ltmp593:
	jne	LBB86_2
Ltmp594:
	.loc	16 0 9
	movq	-56(%rbp), %rcx
	.loc	16 1111 16 is_stmt 1
	movq	(%rcx), %rax
	movb	8(%rcx), %dl
	movq	%rax, -16(%rbp)
	movb	%dl, -8(%rbp)
	.loc	16 1114 6
	addq	$64, %rsp
	popq	%rbp
	retq
Ltmp595:
LBB86_2:
	.loc	16 0 6 is_stmt 0
	movq	-48(%rbp), %r8
	movq	-56(%rbp), %rax
	.loc	16 1112 17 is_stmt 1
	movq	(%rax), %rax
	movq	%rax, -40(%rbp)
Ltmp585:
Ltmp596:
	.loc	16 1112 23 is_stmt 0
	leaq	l___unnamed_22(%rip), %rdi
	leaq	l___unnamed_4(%rip), %rcx
	movl	$43, %esi
	leaq	-40(%rbp), %rdx
	callq	__ZN4core6result13unwrap_failed17h533573e6d3b6061cE
Ltmp586:
	jmp	LBB86_5
Ltmp597:
LBB86_3:
Ltmp588:
	.loc	16 0 23
	leaq	-40(%rbp), %rdi
	.loc	16 1112 86
	callq	__ZN4core3ptr42drop_in_place$LT$std..io..error..Error$GT$17h6fd4e1b7df689ae6E
Ltmp589:
	jmp	LBB86_7
Ltmp598:
LBB86_4:
Ltmp587:
	.loc	16 0 86
	movq	%rax, %rcx
	movl	%edx, %eax
	movq	%rcx, -32(%rbp)
	movl	%eax, -24(%rbp)
	jmp	LBB86_3
Ltmp599:
LBB86_5:
	ud2
Ltmp600:
LBB86_6:
Ltmp590:
	.loc	16 1106 5 is_stmt 1
	callq	__ZN4core9panicking19panic_cannot_unwind17h1fbca7e1d7f56ae1E
Ltmp601:
LBB86_7:
	movq	-32(%rbp), %rdi
	callq	__Unwind_Resume
Ltmp602:
Lfunc_end86:
	.cfi_endproc
	.section	__TEXT,__gcc_except_tab
	.p2align	2
GCC_except_table86:
Lexception15:
	.byte	255
	.byte	255
	.byte	1
	.uleb128 Lcst_end15-Lcst_begin15
Lcst_begin15:
	.uleb128 Ltmp585-Lfunc_begin86
	.uleb128 Ltmp586-Ltmp585
	.uleb128 Ltmp587-Lfunc_begin86
	.byte	0
	.uleb128 Ltmp588-Lfunc_begin86
	.uleb128 Ltmp589-Ltmp588
	.uleb128 Ltmp590-Lfunc_begin86
	.byte	0
	.uleb128 Ltmp589-Lfunc_begin86
	.uleb128 Lfunc_end86-Ltmp589
	.byte	0
	.byte	0
Lcst_end15:
	.p2align	2

	.section	__TEXT,__text,regular,pure_instructions
	.p2align	4, 0x90
__ZN4core6result19Result$LT$T$C$E$GT$6unwrap17h7bfc0e1a41d72db5E:
Lfunc_begin87:
	.loc	16 1106 0
	.cfi_startproc
	.cfi_personality 155, _rust_eh_personality
	.cfi_lsda 16, Lexception16
	pushq	%rbp
	.cfi_def_cfa_offset 16
	.cfi_offset %rbp, -16
	movq	%rsp, %rbp
	.cfi_def_cfa_register %rbp
	subq	$80, %rsp
	movq	%rdx, -72(%rbp)
	movq	%rsi, -64(%rbp)
Ltmp609:
	movq	%rdi, -56(%rbp)
Ltmp610:
	movq	%rdi, -48(%rbp)
Ltmp611:
	.loc	16 1110 9 prologue_end
	cmpq	$0, (%rsi)
Ltmp612:
	jne	LBB87_2
Ltmp613:
	.loc	16 0 9 is_stmt 0
	movq	-48(%rbp), %rax
	movq	-56(%rbp), %rcx
	movq	-64(%rbp), %rdx
	.loc	16 1111 16 is_stmt 1
	movq	8(%rdx), %rsi
	movq	%rsi, (%rcx)
	movq	16(%rdx), %rsi
	movq	%rsi, 8(%rcx)
	movq	24(%rdx), %rdx
	movq	%rdx, 16(%rcx)
	.loc	16 1114 6
	addq	$80, %rsp
	popq	%rbp
	retq
Ltmp614:
LBB87_2:
	.loc	16 0 6 is_stmt 0
	movq	-72(%rbp), %r8
	movq	-64(%rbp), %rcx
	.loc	16 1112 17 is_stmt 1
	movq	24(%rcx), %rax
	movq	%rax, -24(%rbp)
	movq	8(%rcx), %rax
	movq	16(%rcx), %rcx
	movq	%rcx, -32(%rbp)
	movq	%rax, -40(%rbp)
Ltmp603:
Ltmp615:
	.loc	16 1112 23 is_stmt 0
	leaq	l___unnamed_22(%rip), %rdi
	leaq	l___unnamed_5(%rip), %rcx
	movl	$43, %esi
	leaq	-40(%rbp), %rdx
	callq	__ZN4core6result13unwrap_failed17h533573e6d3b6061cE
Ltmp604:
	jmp	LBB87_5
Ltmp616:
LBB87_3:
Ltmp606:
	.loc	16 0 23
	leaq	-40(%rbp), %rdi
	.loc	16 1112 86
	callq	__ZN4core3ptr39drop_in_place$LT$std..env..VarError$GT$17h7ef54b88ba639cf7E
Ltmp607:
	jmp	LBB87_7
Ltmp617:
LBB87_4:
Ltmp605:
	.loc	16 0 86
	movq	%rax, %rcx
	movl	%edx, %eax
	movq	%rcx, -16(%rbp)
	movl	%eax, -8(%rbp)
	jmp	LBB87_3
Ltmp618:
LBB87_5:
	ud2
Ltmp619:
LBB87_6:
Ltmp608:
	.loc	16 1106 5 is_stmt 1
	callq	__ZN4core9panicking19panic_cannot_unwind17h1fbca7e1d7f56ae1E
Ltmp620:
LBB87_7:
	movq	-16(%rbp), %rdi
	callq	__Unwind_Resume
Ltmp621:
Lfunc_end87:
	.cfi_endproc
	.section	__TEXT,__gcc_except_tab
	.p2align	2
GCC_except_table87:
Lexception16:
	.byte	255
	.byte	255
	.byte	1
	.uleb128 Lcst_end16-Lcst_begin16
Lcst_begin16:
	.uleb128 Ltmp603-Lfunc_begin87
	.uleb128 Ltmp604-Ltmp603
	.uleb128 Ltmp605-Lfunc_begin87
	.byte	0
	.uleb128 Ltmp606-Lfunc_begin87
	.uleb128 Ltmp607-Ltmp606
	.uleb128 Ltmp608-Lfunc_begin87
	.byte	0
	.uleb128 Ltmp607-Lfunc_begin87
	.uleb128 Lfunc_end87-Ltmp607
	.byte	0
	.byte	0
Lcst_end16:
	.p2align	2

	.section	__TEXT,__text,regular,pure_instructions
	.p2align	4, 0x90
__ZN4core6result19Result$LT$T$C$E$GT$6unwrap17h93a821a4be9ebba5E:
Lfunc_begin88:
	.loc	16 1106 0
	.cfi_startproc
	.cfi_personality 155, _rust_eh_personality
	.cfi_lsda 16, Lexception17
	pushq	%rbp
	.cfi_def_cfa_offset 16
	.cfi_offset %rbp, -16
	movq	%rsp, %rbp
	.cfi_def_cfa_register %rbp
	subq	$64, %rsp
	movq	%rdx, -56(%rbp)
	movq	%rsi, -48(%rbp)
Ltmp628:
	movq	%rdi, -40(%rbp)
Ltmp629:
	movq	%rdi, -32(%rbp)
Ltmp630:
	.loc	16 1110 15 prologue_end
	movq	8(%rsi), %rdx
	xorl	%eax, %eax
	movl	$1, %ecx
	cmpq	$0, %rdx
	cmoveq	%rcx, %rax
	.loc	16 1110 9 is_stmt 0
	cmpq	$0, %rax
Ltmp631:
	jne	LBB88_2
Ltmp632:
	.loc	16 0 9
	movq	-32(%rbp), %rax
	movq	-40(%rbp), %rcx
	movq	-48(%rbp), %rdx
	.loc	16 1111 16 is_stmt 1
	movq	(%rdx), %rsi
	movq	%rsi, (%rcx)
	movq	8(%rdx), %rsi
	movq	%rsi, 8(%rcx)
	movq	16(%rdx), %rdx
	movq	%rdx, 16(%rcx)
	.loc	16 1114 6
	addq	$64, %rsp
	popq	%rbp
	retq
Ltmp633:
LBB88_2:
	.loc	16 0 6 is_stmt 0
	movq	-56(%rbp), %r8
	movq	-48(%rbp), %rax
	.loc	16 1112 17 is_stmt 1
	movq	(%rax), %rax
	movq	%rax, -24(%rbp)
Ltmp622:
Ltmp634:
	.loc	16 1112 23 is_stmt 0
	leaq	l___unnamed_22(%rip), %rdi
	leaq	l___unnamed_4(%rip), %rcx
	movl	$43, %esi
	leaq	-24(%rbp), %rdx
	callq	__ZN4core6result13unwrap_failed17h533573e6d3b6061cE
Ltmp623:
	jmp	LBB88_5
Ltmp635:
LBB88_3:
Ltmp625:
	.loc	16 0 23
	leaq	-24(%rbp), %rdi
	.loc	16 1112 86
	callq	__ZN4core3ptr42drop_in_place$LT$std..io..error..Error$GT$17h6fd4e1b7df689ae6E
Ltmp626:
	jmp	LBB88_7
Ltmp636:
LBB88_4:
Ltmp624:
	.loc	16 0 86
	movq	%rax, %rcx
	movl	%edx, %eax
	movq	%rcx, -16(%rbp)
	movl	%eax, -8(%rbp)
	jmp	LBB88_3
Ltmp637:
LBB88_5:
	ud2
Ltmp638:
LBB88_6:
Ltmp627:
	.loc	16 1106 5 is_stmt 1
	callq	__ZN4core9panicking19panic_cannot_unwind17h1fbca7e1d7f56ae1E
Ltmp639:
LBB88_7:
	movq	-16(%rbp), %rdi
	callq	__Unwind_Resume
Ltmp640:
Lfunc_end88:
	.cfi_endproc
	.section	__TEXT,__gcc_except_tab
	.p2align	2
GCC_except_table88:
Lexception17:
	.byte	255
	.byte	255
	.byte	1
	.uleb128 Lcst_end17-Lcst_begin17
Lcst_begin17:
	.uleb128 Ltmp622-Lfunc_begin88
	.uleb128 Ltmp623-Ltmp622
	.uleb128 Ltmp624-Lfunc_begin88
	.byte	0
	.uleb128 Ltmp625-Lfunc_begin88
	.uleb128 Ltmp626-Ltmp625
	.uleb128 Ltmp627-Lfunc_begin88
	.byte	0
	.uleb128 Ltmp626-Lfunc_begin88
	.uleb128 Lfunc_end88-Ltmp626
	.byte	0
	.byte	0
Lcst_end17:
	.p2align	2

	.section	__TEXT,__text,regular,pure_instructions
	.p2align	4, 0x90
__ZN4core6result19Result$LT$T$C$E$GT$6unwrap17ha469f0069ca7793cE:
Lfunc_begin89:
	.loc	16 1106 0
	.cfi_startproc
	.cfi_personality 155, _rust_eh_personality
	.cfi_lsda 16, Lexception18
	pushq	%rbp
	.cfi_def_cfa_offset 16
	.cfi_offset %rbp, -16
	movq	%rsp, %rbp
	.cfi_def_cfa_register %rbp
	subq	$64, %rsp
	movq	%rdx, -56(%rbp)
	movq	%rsi, -48(%rbp)
Ltmp647:
	movq	%rdi, -40(%rbp)
Ltmp648:
	movq	%rdi, -32(%rbp)
Ltmp649:
	.loc	16 1110 15 prologue_end
	movq	1048(%rsi), %rdx
	xorl	%eax, %eax
	movl	$1, %ecx
	cmpq	$0, %rdx
	cmoveq	%rcx, %rax
	.loc	16 1110 9 is_stmt 0
	cmpq	$0, %rax
Ltmp650:
	jne	LBB89_2
Ltmp651:
	.loc	16 0 9
	movq	-48(%rbp), %rsi
	movq	-40(%rbp), %rdi
	.loc	16 1111 16 is_stmt 1
	movl	$1056, %edx
	callq	_memcpy
	movq	-32(%rbp), %rax
	.loc	16 1114 6
	addq	$64, %rsp
	popq	%rbp
	retq
Ltmp652:
LBB89_2:
	.loc	16 0 6 is_stmt 0
	movq	-56(%rbp), %r8
	movq	-48(%rbp), %rax
	.loc	16 1112 17 is_stmt 1
	movq	(%rax), %rax
	movq	%rax, -24(%rbp)
Ltmp641:
Ltmp653:
	.loc	16 1112 23 is_stmt 0
	leaq	l___unnamed_22(%rip), %rdi
	leaq	l___unnamed_4(%rip), %rcx
	movl	$43, %esi
	leaq	-24(%rbp), %rdx
	callq	__ZN4core6result13unwrap_failed17h533573e6d3b6061cE
Ltmp642:
	jmp	LBB89_5
Ltmp654:
LBB89_3:
Ltmp644:
	.loc	16 0 23
	leaq	-24(%rbp), %rdi
	.loc	16 1112 86
	callq	__ZN4core3ptr42drop_in_place$LT$std..io..error..Error$GT$17h6fd4e1b7df689ae6E
Ltmp645:
	jmp	LBB89_7
Ltmp655:
LBB89_4:
Ltmp643:
	.loc	16 0 86
	movq	%rax, %rcx
	movl	%edx, %eax
	movq	%rcx, -16(%rbp)
	movl	%eax, -8(%rbp)
	jmp	LBB89_3
Ltmp656:
LBB89_5:
	ud2
Ltmp657:
LBB89_6:
Ltmp646:
	.loc	16 1106 5 is_stmt 1
	callq	__ZN4core9panicking19panic_cannot_unwind17h1fbca7e1d7f56ae1E
Ltmp658:
LBB89_7:
	movq	-16(%rbp), %rdi
	callq	__Unwind_Resume
Ltmp659:
Lfunc_end89:
	.cfi_endproc
	.section	__TEXT,__gcc_except_tab
	.p2align	2
GCC_except_table89:
Lexception18:
	.byte	255
	.byte	255
	.byte	1
	.uleb128 Lcst_end18-Lcst_begin18
Lcst_begin18:
	.uleb128 Lfunc_begin89-Lfunc_begin89
	.uleb128 Ltmp641-Lfunc_begin89
	.byte	0
	.byte	0
	.uleb128 Ltmp641-Lfunc_begin89
	.uleb128 Ltmp642-Ltmp641
	.uleb128 Ltmp643-Lfunc_begin89
	.byte	0
	.uleb128 Ltmp644-Lfunc_begin89
	.uleb128 Ltmp645-Ltmp644
	.uleb128 Ltmp646-Lfunc_begin89
	.byte	0
	.uleb128 Ltmp645-Lfunc_begin89
	.uleb128 Lfunc_end89-Ltmp645
	.byte	0
	.byte	0
Lcst_end18:
	.p2align	2

	.section	__TEXT,__text,regular,pure_instructions
	.p2align	4, 0x90
__ZN4core6result19Result$LT$T$C$E$GT$6unwrap17hccecfd6239db5dadE:
Lfunc_begin90:
	.loc	16 1106 0
	.cfi_startproc
	.cfi_personality 155, _rust_eh_personality
	.cfi_lsda 16, Lexception19
	pushq	%rbp
	.cfi_def_cfa_offset 16
	.cfi_offset %rbp, -16
	movq	%rsp, %rbp
	.cfi_def_cfa_register %rbp
	subq	$48, %rsp
	movq	%rdi, -48(%rbp)
Ltmp666:
	movq	%rsi, -40(%rbp)
Ltmp667:
	.loc	16 1110 15 prologue_end
	movl	(%rdi), %eax
	.loc	16 1110 9 is_stmt 0
	cmpq	$0, %rax
Ltmp668:
	jne	LBB90_2
Ltmp669:
	.loc	16 0 9
	movq	-48(%rbp), %rax
	.loc	16 1111 16 is_stmt 1
	movl	4(%rax), %eax
	movl	%eax, -4(%rbp)
	.loc	16 1114 6
	addq	$48, %rsp
	popq	%rbp
	retq
Ltmp670:
LBB90_2:
	.loc	16 0 6 is_stmt 0
	movq	-40(%rbp), %r8
	movq	-48(%rbp), %rax
	.loc	16 1112 17 is_stmt 1
	movq	8(%rax), %rax
	movq	%rax, -32(%rbp)
Ltmp660:
Ltmp671:
	.loc	16 1112 23 is_stmt 0
	leaq	l___unnamed_22(%rip), %rdi
	leaq	l___unnamed_4(%rip), %rcx
	movl	$43, %esi
	leaq	-32(%rbp), %rdx
	callq	__ZN4core6result13unwrap_failed17h533573e6d3b6061cE
Ltmp661:
	jmp	LBB90_5
Ltmp672:
LBB90_3:
Ltmp663:
	.loc	16 0 23
	leaq	-32(%rbp), %rdi
	.loc	16 1112 86
	callq	__ZN4core3ptr42drop_in_place$LT$std..io..error..Error$GT$17h6fd4e1b7df689ae6E
Ltmp664:
	jmp	LBB90_7
Ltmp673:
LBB90_4:
Ltmp662:
	.loc	16 0 86
	movq	%rax, %rcx
	movl	%edx, %eax
	movq	%rcx, -24(%rbp)
	movl	%eax, -16(%rbp)
	jmp	LBB90_3
Ltmp674:
LBB90_5:
	ud2
Ltmp675:
LBB90_6:
Ltmp665:
	.loc	16 1106 5 is_stmt 1
	callq	__ZN4core9panicking19panic_cannot_unwind17h1fbca7e1d7f56ae1E
Ltmp676:
LBB90_7:
	movq	-24(%rbp), %rdi
	callq	__Unwind_Resume
Ltmp677:
Lfunc_end90:
	.cfi_endproc
	.section	__TEXT,__gcc_except_tab
	.p2align	2
GCC_except_table90:
Lexception19:
	.byte	255
	.byte	255
	.byte	1
	.uleb128 Lcst_end19-Lcst_begin19
Lcst_begin19:
	.uleb128 Ltmp660-Lfunc_begin90
	.uleb128 Ltmp661-Ltmp660
	.uleb128 Ltmp662-Lfunc_begin90
	.byte	0
	.uleb128 Ltmp663-Lfunc_begin90
	.uleb128 Ltmp664-Ltmp663
	.uleb128 Ltmp665-Lfunc_begin90
	.byte	0
	.uleb128 Ltmp664-Lfunc_begin90
	.uleb128 Lfunc_end90-Ltmp664
	.byte	0
	.byte	0
Lcst_end19:
	.p2align	2

	.section	__TEXT,__text,regular,pure_instructions
	.p2align	4, 0x90
__ZN4core6result19Result$LT$T$C$E$GT$6unwrap17hd899382417040825E:
Lfunc_begin91:
	.loc	16 1106 0
	.cfi_startproc
	.cfi_personality 155, _rust_eh_personality
	.cfi_lsda 16, Lexception20
	pushq	%rbp
	.cfi_def_cfa_offset 16
	.cfi_offset %rbp, -16
	movq	%rsp, %rbp
	.cfi_def_cfa_register %rbp
	subq	$48, %rsp
	movq	%rsi, -48(%rbp)
	movq	%rdi, -40(%rbp)
Ltmp684:
	.loc	16 1110 15 prologue_end
	movq	-40(%rbp), %rdx
	movl	$1, %eax
	xorl	%ecx, %ecx
	cmpq	$0, %rdx
	cmoveq	%rcx, %rax
	.loc	16 1110 9 is_stmt 0
	cmpq	$0, %rax
	jne	LBB91_2
	.loc	16 1114 6 is_stmt 1
	addq	$48, %rsp
	popq	%rbp
	retq
LBB91_2:
	.loc	16 0 6 is_stmt 0
	movq	-48(%rbp), %r8
	.loc	16 1112 17 is_stmt 1
	movq	-40(%rbp), %rax
	movq	%rax, -32(%rbp)
Ltmp678:
Ltmp685:
	.loc	16 1112 23 is_stmt 0
	leaq	l___unnamed_22(%rip), %rdi
	leaq	l___unnamed_4(%rip), %rcx
	movl	$43, %esi
	leaq	-32(%rbp), %rdx
	callq	__ZN4core6result13unwrap_failed17h533573e6d3b6061cE
Ltmp679:
	jmp	LBB91_5
Ltmp686:
LBB91_3:
Ltmp681:
	.loc	16 0 23
	leaq	-32(%rbp), %rdi
	.loc	16 1112 86
	callq	__ZN4core3ptr42drop_in_place$LT$std..io..error..Error$GT$17h6fd4e1b7df689ae6E
Ltmp682:
	jmp	LBB91_7
LBB91_4:
Ltmp680:
	.loc	16 0 86
	movq	%rax, %rcx
	movl	%edx, %eax
	movq	%rcx, -16(%rbp)
	movl	%eax, -8(%rbp)
	jmp	LBB91_3
LBB91_5:
	ud2
LBB91_6:
Ltmp683:
	.loc	16 1106 5 is_stmt 1
	callq	__ZN4core9panicking19panic_cannot_unwind17h1fbca7e1d7f56ae1E
LBB91_7:
	movq	-16(%rbp), %rdi
	callq	__Unwind_Resume
Ltmp687:
Lfunc_end91:
	.cfi_endproc
	.section	__TEXT,__gcc_except_tab
	.p2align	2
GCC_except_table91:
Lexception20:
	.byte	255
	.byte	255
	.byte	1
	.uleb128 Lcst_end20-Lcst_begin20
Lcst_begin20:
	.uleb128 Ltmp678-Lfunc_begin91
	.uleb128 Ltmp679-Ltmp678
	.uleb128 Ltmp680-Lfunc_begin91
	.byte	0
	.uleb128 Ltmp681-Lfunc_begin91
	.uleb128 Ltmp682-Ltmp681
	.uleb128 Ltmp683-Lfunc_begin91
	.byte	0
	.uleb128 Ltmp682-Lfunc_begin91
	.uleb128 Lfunc_end91-Ltmp682
	.byte	0
	.byte	0
Lcst_end20:
	.p2align	2

	.section	__TEXT,__text,regular,pure_instructions
	.p2align	4, 0x90
__ZN50_$LT$$RF$mut$u20$W$u20$as$u20$core..fmt..Write$GT$10write_char17hc744e94155b3f5dfE:
Lfunc_begin92:
	.loc	29 207 0
	.cfi_startproc
	pushq	%rbp
	.cfi_def_cfa_offset 16
	.cfi_offset %rbp, -16
	movq	%rsp, %rbp
	.cfi_def_cfa_register %rbp
	subq	$16, %rsp
	movq	%rdi, -16(%rbp)
	movl	%esi, -4(%rbp)
Ltmp688:
	.loc	29 208 9 prologue_end
	movq	(%rdi), %rdi
	callq	__ZN4core3fmt5Write10write_char17h7085bfbd9d23b6e9E
	.loc	29 209 6
	andb	$1, %al
	movzbl	%al, %eax
	addq	$16, %rsp
	popq	%rbp
	retq
Ltmp689:
Lfunc_end92:
	.cfi_endproc

	.p2align	4, 0x90
__ZN50_$LT$$RF$mut$u20$W$u20$as$u20$core..fmt..Write$GT$9write_fmt17hca06f3951dac845cE:
Lfunc_begin93:
	.loc	29 211 0
	.cfi_startproc
	pushq	%rbp
	.cfi_def_cfa_offset 16
	.cfi_offset %rbp, -16
	movq	%rsp, %rbp
	.cfi_def_cfa_register %rbp
	subq	$64, %rsp
	movq	%rdi, -8(%rbp)
Ltmp690:
	.loc	29 212 9 prologue_end
	movq	(%rdi), %rax
	movq	%rax, -64(%rbp)
	.loc	29 212 28 is_stmt 0
	leaq	-56(%rbp), %rdi
	movl	$48, %edx
	callq	_memcpy
Ltmp691:
	.loc	29 0 28
	movq	-64(%rbp), %rdi
	.loc	29 212 9
	leaq	-56(%rbp), %rsi
	callq	__ZN4core3fmt5Write9write_fmt17h5adf9b1b7d820dceE
	.loc	29 213 6 is_stmt 1
	andb	$1, %al
	movzbl	%al, %eax
	addq	$64, %rsp
	popq	%rbp
	retq
Ltmp692:
Lfunc_end93:
	.cfi_endproc

	.p2align	4, 0x90
__ZN50_$LT$$RF$mut$u20$W$u20$as$u20$core..fmt..Write$GT$9write_str17h730734f01a0a207eE:
Lfunc_begin94:
	.loc	29 203 0
	.cfi_startproc
	pushq	%rbp
	.cfi_def_cfa_offset 16
	.cfi_offset %rbp, -16
	movq	%rsp, %rbp
	.cfi_def_cfa_register %rbp
	subq	$32, %rsp
	movq	%rdi, -24(%rbp)
	movq	%rsi, -16(%rbp)
	movq	%rdx, -8(%rbp)
Ltmp693:
	.loc	29 204 9 prologue_end
	movq	(%rdi), %rdi
	callq	__ZN80_$LT$std..io..Write..write_fmt..Adapter$LT$T$GT$$u20$as$u20$core..fmt..Write$GT$9write_str17h5a52513601f1e1deE
	.loc	29 205 6
	andb	$1, %al
	movzbl	%al, %eax
	addq	$32, %rsp
	popq	%rbp
	retq
Ltmp694:
Lfunc_end94:
	.cfi_endproc

	.p2align	4, 0x90
__ZN50_$LT$T$u20$as$u20$core..convert..Into$LT$U$GT$$GT$4into17hb3e7d8ef8a377e41E:
Lfunc_begin95:
	.file	39 "/rustc/2c8cc343237b8f7d5a3c3703e3a87f2eb2c54a74/library/core/src/convert" "mod.rs"
	.loc	39 725 0
	.cfi_startproc
	pushq	%rbp
	.cfi_def_cfa_offset 16
	.cfi_offset %rbp, -16
	movq	%rsp, %rbp
	.cfi_def_cfa_register %rbp
	subq	$16, %rsp
	movq	%rdi, -8(%rbp)
Ltmp695:
	.loc	39 726 9 prologue_end
	callq	__ZN119_$LT$core..ptr..non_null..NonNull$LT$T$GT$$u20$as$u20$core..convert..From$LT$core..ptr..unique..Unique$LT$T$GT$$GT$$GT$4from17h6ea9105bbbcb4258E
	.loc	39 727 6
	addq	$16, %rsp
	popq	%rbp
	retq
Ltmp696:
Lfunc_end95:
	.cfi_endproc

	.p2align	4, 0x90
__ZN54_$LT$$LP$$RP$$u20$as$u20$std..process..Termination$GT$6report17h8079d25e8a4a414dE:
Lfunc_begin96:
	.loc	20 2182 0
	.cfi_startproc
	pushq	%rbp
	.cfi_def_cfa_offset 16
	.cfi_offset %rbp, -16
	movq	%rsp, %rbp
	.cfi_def_cfa_register %rbp
	pushq	%rax
Ltmp697:
	.loc	20 2184 6 prologue_end
	xorl	%eax, %eax
	addq	$8, %rsp
	popq	%rbp
	retq
Ltmp698:
Lfunc_end96:
	.cfi_endproc

	.p2align	4, 0x90
__ZN55_$LT$$RF$T$u20$as$u20$core..convert..AsRef$LT$U$GT$$GT$6as_ref17h4a743a54c3f9a491E:
Lfunc_begin97:
	.loc	39 667 0
	.cfi_startproc
	pushq	%rbp
	.cfi_def_cfa_offset 16
	.cfi_offset %rbp, -16
	movq	%rsp, %rbp
	.cfi_def_cfa_register %rbp
	subq	$16, %rsp
	movq	%rdi, %rax
	movq	%rax, -8(%rbp)
Ltmp699:
	.loc	39 668 33 prologue_end
	movq	(%rax), %rdi
	movq	8(%rax), %rsi
	.loc	39 668 9 is_stmt 0
	callq	__ZN79_$LT$std..path..Path$u20$as$u20$core..convert..AsRef$LT$std..path..Path$GT$$GT$6as_ref17hb8d5eb5fc28fde54E
	.loc	39 669 6 is_stmt 1
	addq	$16, %rsp
	popq	%rbp
	retq
Ltmp700:
Lfunc_end97:
	.cfi_endproc

	.p2align	4, 0x90
__ZN55_$LT$$RF$T$u20$as$u20$core..convert..AsRef$LT$U$GT$$GT$6as_ref17h64697840b01135d1E:
Lfunc_begin98:
	.loc	39 667 0
	.cfi_startproc
	pushq	%rbp
	.cfi_def_cfa_offset 16
	.cfi_offset %rbp, -16
	movq	%rsp, %rbp
	.cfi_def_cfa_register %rbp
	subq	$16, %rsp
	movq	%rdi, %rax
	movq	%rax, -8(%rbp)
Ltmp701:
	.loc	39 668 33 prologue_end
	movq	(%rax), %rdi
	movq	8(%rax), %rsi
	.loc	39 668 9 is_stmt 0
	callq	__ZN3std3ffi6os_str85_$LT$impl$u20$core..convert..AsRef$LT$std..ffi..os_str..OsStr$GT$$u20$for$u20$str$GT$6as_ref17ha312662caad39cb5E
	.loc	39 669 6 is_stmt 1
	addq	$16, %rsp
	popq	%rbp
	retq
Ltmp702:
Lfunc_end98:
	.cfi_endproc

	.p2align	4, 0x90
__ZN55_$LT$$RF$T$u20$as$u20$core..convert..AsRef$LT$U$GT$$GT$6as_ref17haa5115eb3f0fd6aaE:
Lfunc_begin99:
	.loc	39 667 0
	.cfi_startproc
	pushq	%rbp
	.cfi_def_cfa_offset 16
	.cfi_offset %rbp, -16
	movq	%rsp, %rbp
	.cfi_def_cfa_register %rbp
	subq	$16, %rsp
	movq	%rdi, -8(%rbp)
Ltmp703:
	.loc	39 668 33 prologue_end
	movq	(%rdi), %rdi
	.loc	39 668 9 is_stmt 0
	callq	__ZN82_$LT$std..path..PathBuf$u20$as$u20$core..convert..AsRef$LT$std..path..Path$GT$$GT$6as_ref17h2216da4c961bd3e6E
	.loc	39 669 6 is_stmt 1
	addq	$16, %rsp
	popq	%rbp
	retq
Ltmp704:
Lfunc_end99:
	.cfi_endproc

	.p2align	4, 0x90
__ZN55_$LT$$RF$T$u20$as$u20$core..convert..AsRef$LT$U$GT$$GT$6as_ref17hd49aa7c51ffb8b17E:
Lfunc_begin100:
	.loc	39 667 0
	.cfi_startproc
	pushq	%rbp
	.cfi_def_cfa_offset 16
	.cfi_offset %rbp, -16
	movq	%rsp, %rbp
	.cfi_def_cfa_register %rbp
	subq	$16, %rsp
	movq	%rdi, %rax
	movq	%rax, -8(%rbp)
Ltmp705:
	.loc	39 668 33 prologue_end
	movq	(%rax), %rdi
	movq	8(%rax), %rsi
	.loc	39 668 9 is_stmt 0
	callq	__ZN3std4path77_$LT$impl$u20$core..convert..AsRef$LT$std..path..Path$GT$$u20$for$u20$str$GT$6as_ref17hcaeb42a548ff5c29E
	.loc	39 669 6 is_stmt 1
	addq	$16, %rsp
	popq	%rbp
	retq
Ltmp706:
Lfunc_end100:
	.cfi_endproc

	.p2align	4, 0x90
__ZN5alloc2rc11is_dangling17hb56223a4af65a1f4E:
Lfunc_begin101:
	.file	40 "/rustc/2c8cc343237b8f7d5a3c3703e3a87f2eb2c54a74/library/alloc/src" "rc.rs"
	.loc	40 2221 0
	.cfi_startproc
	pushq	%rbp
	.cfi_def_cfa_offset 16
	.cfi_offset %rbp, -16
	movq	%rsp, %rbp
	.cfi_def_cfa_register %rbp
	subq	$32, %rsp
	movq	%rdi, -32(%rbp)
Ltmp707:
	.loc	40 2222 5 prologue_end
	movq	%rdi, -24(%rbp)
Ltmp708:
	.loc	5 215 33
	movq	%rdi, -16(%rbp)
	.loc	5 215 18 is_stmt 0
	movq	%rdi, -8(%rbp)
Ltmp709:
	.loc	40 2222 5 is_stmt 1
	cmpq	$-1, -8(%rbp)
	sete	%al
	.loc	40 2223 2
	andb	$1, %al
	movzbl	%al, %eax
	addq	$32, %rsp
	popq	%rbp
	retq
Ltmp710:
Lfunc_end101:
	.cfi_endproc

	.p2align	4, 0x90
__ZN5alloc4sync12Arc$LT$T$GT$9drop_slow17h9c16eed09a6c207fE:
Lfunc_begin102:
	.file	41 "/rustc/2c8cc343237b8f7d5a3c3703e3a87f2eb2c54a74/library/alloc/src" "sync.rs"
	.loc	41 1120 0
	.cfi_startproc
	pushq	%rbp
	.cfi_def_cfa_offset 16
	.cfi_offset %rbp, -16
	movq	%rsp, %rbp
	.cfi_def_cfa_register %rbp
	subq	$48, %rsp
	movq	%rdi, -40(%rbp)
	movq	%rdi, -24(%rbp)
Ltmp711:
	.loc	41 1123 61 prologue_end
	movq	%rdi, -16(%rbp)
Ltmp712:
	.loc	41 1646 25
	movq	(%rdi), %rdi
	movq	%rdi, -8(%rbp)
	.loc	41 1646 18 is_stmt 0
	addq	$16, %rdi
Ltmp713:
	.loc	41 1123 18 is_stmt 1
	callq	__ZN4core3ptr53drop_in_place$LT$std..sys..unix..fs..InnerReadDir$GT$17h514d07c20c95e032E
	movq	-40(%rbp), %rdi
	.loc	41 1126 26
	movq	(%rdi), %rax
	.loc	41 1126 14 is_stmt 0
	movq	%rax, -32(%rbp)
Ltmp714:
	.loc	36 980 24 is_stmt 1
	leaq	-32(%rbp), %rdi
	callq	__ZN4core3ptr78drop_in_place$LT$alloc..sync..Weak$LT$std..sys..unix..fs..InnerReadDir$GT$$GT$17h4b1b7d52b1f4d7e0E
Ltmp715:
	.loc	41 1127 6
	addq	$48, %rsp
	popq	%rbp
	retq
Ltmp716:
Lfunc_end102:
	.cfi_endproc

	.p2align	4, 0x90
__ZN5alloc4sync13Weak$LT$T$GT$5inner17ha316300d4a41e1f0E:
Lfunc_begin103:
	.loc	41 2092 0
	.cfi_startproc
	pushq	%rbp
	.cfi_def_cfa_offset 16
	.cfi_offset %rbp, -16
	movq	%rsp, %rbp
	.cfi_def_cfa_register %rbp
	subq	$80, %rsp
	movq	%rdi, -72(%rbp)
	movq	%rdi, -32(%rbp)
Ltmp717:
	.loc	41 2093 24 prologue_end
	movq	(%rdi), %rdi
	movq	%rdi, -24(%rbp)
	.loc	41 2093 12 is_stmt 0
	callq	__ZN5alloc2rc11is_dangling17hb56223a4af65a1f4E
	testb	$1, %al
	jne	LBB103_2
	.loc	41 0 12
	movq	-72(%rbp), %rax
	.loc	41 2100 27 is_stmt 1
	movq	(%rax), %rax
	movq	%rax, -16(%rbp)
Ltmp718:
	.loc	6 326 9
	movq	%rax, -8(%rbp)
Ltmp719:
	.loc	41 2101 59
	movq	%rax, %rcx
	addq	$8, %rcx
	.loc	41 2101 17 is_stmt 0
	movq	%rcx, -48(%rbp)
	movq	%rax, -40(%rbp)
Ltmp720:
	.loc	41 2099 13 is_stmt 1
	movq	-48(%rbp), %rcx
	movq	-40(%rbp), %rax
	movq	%rcx, -64(%rbp)
	movq	%rax, -56(%rbp)
	.loc	41 2093 9
	jmp	LBB103_3
LBB103_2:
	.loc	41 2094 13
	movq	$0, -64(%rbp)
LBB103_3:
	.loc	41 2104 6
	movq	-64(%rbp), %rax
	movq	-56(%rbp), %rdx
	addq	$80, %rsp
	popq	%rbp
	retq
Ltmp721:
Lfunc_end103:
	.cfi_endproc

	.p2align	4, 0x90
__ZN5alloc5alloc8box_free17h964e7fb350d31894E:
Lfunc_begin104:
	.file	42 "/rustc/2c8cc343237b8f7d5a3c3703e3a87f2eb2c54a74/library/alloc/src" "alloc.rs"
	.loc	42 340 0
	.cfi_startproc
	.cfi_personality 155, _rust_eh_personality
	.cfi_lsda 16, Lexception21
	pushq	%rbp
	.cfi_def_cfa_offset 16
	.cfi_offset %rbp, -16
	movq	%rsp, %rbp
	.cfi_def_cfa_register %rbp
	subq	$256, %rsp
	movq	%rdi, -240(%rbp)
Ltmp725:
	.loc	42 345 32 prologue_end
	leaq	-240(%rbp), %rax
	movq	%rax, -184(%rbp)
Ltmp726:
	.loc	7 117 18
	leaq	-240(%rbp), %rax
	movq	%rax, -176(%rbp)
Ltmp727:
	.loc	6 376 20
	movq	-240(%rbp), %rax
	movq	%rax, -168(%rbp)
Ltmp728:
	.loc	42 345 20
	movq	$24, -160(%rbp)
	movq	-160(%rbp), %rcx
	movq	%rcx, -256(%rbp)
	movq	%rcx, -152(%rbp)
Ltmp729:
	.loc	42 346 38
	leaq	-240(%rbp), %rax
	movq	%rax, -144(%rbp)
Ltmp730:
	.loc	7 117 18
	leaq	-240(%rbp), %rax
	movq	%rax, -136(%rbp)
Ltmp731:
	.loc	6 376 20
	movq	-240(%rbp), %rax
	movq	%rax, -128(%rbp)
Ltmp732:
	.loc	42 346 21
	movq	$8, -120(%rbp)
	movq	-120(%rbp), %rax
	movq	%rax, -112(%rbp)
Ltmp733:
	.loc	42 347 56
	movq	%rcx, -104(%rbp)
	.loc	42 347 62 is_stmt 0
	movq	%rax, -96(%rbp)
Ltmp734:
	.loc	35 120 65 is_stmt 1
	movq	%rax, -88(%rbp)
Ltmp735:
	.loc	37 89 18
	movq	%rax, -80(%rbp)
	movq	-80(%rbp), %rax
	movq	%rax, -248(%rbp)
Ltmp736:
	.loc	37 0 18 is_stmt 0
	movq	-248(%rbp), %rax
	movq	-256(%rbp), %rcx
	.loc	35 120 18 is_stmt 1
	movq	%rcx, -224(%rbp)
	movq	%rax, -216(%rbp)
Ltmp737:
	.loc	42 348 37
	movq	-240(%rbp), %rax
	movq	%rax, -72(%rbp)
Ltmp738:
	.loc	7 137 22
	movq	%rax, -64(%rbp)
Ltmp739:
	.loc	6 450 41
	movq	%rax, -56(%rbp)
	movq	%rax, -48(%rbp)
Ltmp740:
	.loc	6 201 13
	movq	%rax, -192(%rbp)
Ltmp741:
	.loc	7 191 18
	movq	-192(%rbp), %rax
	.loc	7 191 9 is_stmt 0
	movq	%rax, -200(%rbp)
Ltmp742:
	.loc	6 768 41 is_stmt 1
	movq	-200(%rbp), %rax
	movq	%rax, -40(%rbp)
Ltmp743:
	.loc	7 104 9
	movq	%rax, -32(%rbp)
Ltmp744:
	.loc	6 326 9
	movq	%rax, -24(%rbp)
Ltmp745:
	.loc	6 201 13
	movq	%rax, -208(%rbp)
Ltmp746:
	.loc	42 348 50
	movq	-224(%rbp), %rdx
	movq	-216(%rbp), %rcx
	.loc	42 348 9 is_stmt 0
	movq	-208(%rbp), %rsi
Ltmp722:
	leaq	-232(%rbp), %rdi
	callq	__ZN63_$LT$alloc..alloc..Global$u20$as$u20$core..alloc..Allocator$GT$10deallocate17h6b91ea3cdb65de20E
Ltmp723:
	jmp	LBB104_4
Ltmp747:
LBB104_2:
	.loc	42 340 1 is_stmt 1
	movq	-16(%rbp), %rdi
	callq	__Unwind_Resume
LBB104_3:
Ltmp724:
	.loc	42 0 1 is_stmt 0
	movq	%rax, %rcx
	movl	%edx, %eax
	movq	%rcx, -16(%rbp)
	movl	%eax, -8(%rbp)
	jmp	LBB104_2
LBB104_4:
	.loc	42 350 2 is_stmt 1
	addq	$256, %rsp
	popq	%rbp
	retq
Ltmp748:
Lfunc_end104:
	.cfi_endproc
	.section	__TEXT,__gcc_except_tab
	.p2align	2
GCC_except_table104:
Lexception21:
	.byte	255
	.byte	255
	.byte	1
	.uleb128 Lcst_end21-Lcst_begin21
Lcst_begin21:
	.uleb128 Ltmp722-Lfunc_begin104
	.uleb128 Ltmp723-Ltmp722
	.uleb128 Ltmp724-Lfunc_begin104
	.byte	0
	.uleb128 Ltmp723-Lfunc_begin104
	.uleb128 Lfunc_end104-Ltmp723
	.byte	0
	.byte	0
Lcst_end21:
	.p2align	2

	.section	__TEXT,__text,regular,pure_instructions
	.p2align	4, 0x90
__ZN5alloc5alloc8box_free17hd86019f0eb26cec6E:
Lfunc_begin105:
	.loc	42 340 0
	.cfi_startproc
	.cfi_personality 155, _rust_eh_personality
	.cfi_lsda 16, Lexception22
	pushq	%rbp
	.cfi_def_cfa_offset 16
	.cfi_offset %rbp, -16
	movq	%rsp, %rbp
	.cfi_def_cfa_register %rbp
	subq	$304, %rsp
	movq	%rdi, -288(%rbp)
	movq	%rsi, -280(%rbp)
Ltmp752:
	.loc	42 345 32 prologue_end
	leaq	-288(%rbp), %rax
	movq	%rax, -224(%rbp)
Ltmp753:
	.loc	7 117 18
	leaq	-288(%rbp), %rax
	movq	%rax, -216(%rbp)
Ltmp754:
	.loc	6 376 20
	movq	-288(%rbp), %rcx
	movq	-280(%rbp), %rax
	movq	%rcx, -208(%rbp)
	movq	%rax, -200(%rbp)
Ltmp755:
	.loc	42 345 20
	movq	8(%rax), %rax
	movq	%rax, -192(%rbp)
	movq	-192(%rbp), %rcx
	movq	%rcx, -304(%rbp)
	movq	%rcx, -184(%rbp)
Ltmp756:
	.loc	42 346 38
	leaq	-288(%rbp), %rax
	movq	%rax, -176(%rbp)
Ltmp757:
	.loc	7 117 18
	leaq	-288(%rbp), %rax
	movq	%rax, -168(%rbp)
Ltmp758:
	.loc	6 376 20
	movq	-288(%rbp), %rdx
	movq	-280(%rbp), %rax
	movq	%rdx, -160(%rbp)
	movq	%rax, -152(%rbp)
Ltmp759:
	.loc	42 346 21
	movq	16(%rax), %rax
	movq	%rax, -144(%rbp)
	movq	-144(%rbp), %rax
	movq	%rax, -136(%rbp)
Ltmp760:
	.loc	42 347 56
	movq	%rcx, -128(%rbp)
	.loc	42 347 62 is_stmt 0
	movq	%rax, -120(%rbp)
Ltmp761:
	.loc	35 120 65 is_stmt 1
	movq	%rax, -112(%rbp)
Ltmp762:
	.loc	37 89 18
	movq	%rax, -104(%rbp)
	movq	-104(%rbp), %rax
	movq	%rax, -296(%rbp)
Ltmp763:
	.loc	37 0 18 is_stmt 0
	movq	-296(%rbp), %rax
	movq	-304(%rbp), %rcx
	.loc	35 120 18 is_stmt 1
	movq	%rcx, -264(%rbp)
	movq	%rax, -256(%rbp)
Ltmp764:
	.loc	42 348 37
	movq	-288(%rbp), %rax
	movq	-280(%rbp), %rcx
	movq	%rax, -96(%rbp)
	movq	%rcx, -88(%rbp)
Ltmp765:
	.loc	7 137 22
	movq	%rax, -80(%rbp)
	movq	%rcx, -72(%rbp)
Ltmp766:
	.loc	6 450 41
	movq	%rax, -64(%rbp)
	movq	%rcx, -56(%rbp)
	movq	%rax, -48(%rbp)
Ltmp767:
	.loc	6 201 13
	movq	%rax, -232(%rbp)
Ltmp768:
	.loc	7 191 18
	movq	-232(%rbp), %rax
	.loc	7 191 9 is_stmt 0
	movq	%rax, -240(%rbp)
Ltmp769:
	.loc	6 768 41 is_stmt 1
	movq	-240(%rbp), %rax
	movq	%rax, -40(%rbp)
Ltmp770:
	.loc	7 104 9
	movq	%rax, -32(%rbp)
Ltmp771:
	.loc	6 326 9
	movq	%rax, -24(%rbp)
Ltmp772:
	.loc	6 201 13
	movq	%rax, -248(%rbp)
Ltmp773:
	.loc	42 348 50
	movq	-264(%rbp), %rdx
	movq	-256(%rbp), %rcx
	.loc	42 348 9 is_stmt 0
	movq	-248(%rbp), %rsi
Ltmp749:
	leaq	-272(%rbp), %rdi
	callq	__ZN63_$LT$alloc..alloc..Global$u20$as$u20$core..alloc..Allocator$GT$10deallocate17h6b91ea3cdb65de20E
Ltmp750:
	jmp	LBB105_4
Ltmp774:
LBB105_2:
	.loc	42 340 1 is_stmt 1
	movq	-16(%rbp), %rdi
	callq	__Unwind_Resume
LBB105_3:
Ltmp751:
	.loc	42 0 1 is_stmt 0
	movq	%rax, %rcx
	movl	%edx, %eax
	movq	%rcx, -16(%rbp)
	movl	%eax, -8(%rbp)
	jmp	LBB105_2
LBB105_4:
	.loc	42 350 2 is_stmt 1
	addq	$304, %rsp
	popq	%rbp
	retq
Ltmp775:
Lfunc_end105:
	.cfi_endproc
	.section	__TEXT,__gcc_except_tab
	.p2align	2
GCC_except_table105:
Lexception22:
	.byte	255
	.byte	255
	.byte	1
	.uleb128 Lcst_end22-Lcst_begin22
Lcst_begin22:
	.uleb128 Ltmp749-Lfunc_begin105
	.uleb128 Ltmp750-Ltmp749
	.uleb128 Ltmp751-Lfunc_begin105
	.byte	0
	.uleb128 Ltmp750-Lfunc_begin105
	.uleb128 Lfunc_end105-Ltmp750
	.byte	0
	.byte	0
Lcst_end22:
	.p2align	2

	.section	__TEXT,__text,regular,pure_instructions
	.p2align	4, 0x90
__ZN5alloc7raw_vec19RawVec$LT$T$C$A$GT$14current_memory17he11605061c450c4aE:
Lfunc_begin106:
	.file	43 "/rustc/2c8cc343237b8f7d5a3c3703e3a87f2eb2c54a74/library/alloc/src" "raw_vec.rs"
	.loc	43 240 0
	.cfi_startproc
	pushq	%rbp
	.cfi_def_cfa_offset 16
	.cfi_offset %rbp, -16
	movq	%rsp, %rbp
	.cfi_def_cfa_register %rbp
	subq	$176, %rsp
	movq	%rsi, -152(%rbp)
	movq	%rdi, -144(%rbp)
	movq	%rdi, -136(%rbp)
	movq	%rsi, -80(%rbp)
Ltmp776:
	.loc	43 241 12 prologue_end
	xorl	%eax, %eax
	testb	$1, %al
	jne	LBB106_2
	.loc	43 0 12 is_stmt 0
	movq	-152(%rbp), %rax
	.loc	43 241 25
	cmpq	$0, (%rax)
	sete	%al
	.loc	43 241 12
	andb	$1, %al
	movb	%al, -121(%rbp)
	jmp	LBB106_3
LBB106_2:
	movb	$1, -121(%rbp)
LBB106_3:
	testb	$1, -121(%rbp)
	jne	LBB106_5
	.loc	43 0 12
	movq	-152(%rbp), %rax
	.loc	43 247 49 is_stmt 1
	movq	(%rax), %rdx
	movq	%rdx, -72(%rbp)
Ltmp777:
	.loc	36 459 5
	movq	$1, -64(%rbp)
Ltmp778:
	.loc	37 89 18
	movq	$1, -56(%rbp)
	movq	-56(%rbp), %rsi
Ltmp779:
	.loc	35 438 16
	movl	$1, %edi
	callq	__ZN4core5alloc6layout6Layout5array5inner17he52fa74ef2b053beE
	movq	%rax, %rdi
	movq	%rdx, %rsi
Ltmp780:
	.loc	43 247 30
	leaq	l___unnamed_23(%rip), %rdx
	callq	__ZN4core6result19Result$LT$T$C$E$GT$16unwrap_unchecked17h5df92992c9dc3574E
	movq	%rax, %rcx
	movq	-152(%rbp), %rax
	movq	%rcx, -168(%rbp)
	movq	%rdx, -160(%rbp)
	movq	%rcx, -48(%rbp)
	movq	%rdx, -40(%rbp)
Ltmp781:
	.loc	43 248 23
	movq	8(%rax), %rax
	movq	%rax, -32(%rbp)
Ltmp782:
	.loc	7 137 22
	movq	%rax, -24(%rbp)
Ltmp783:
	.loc	6 450 41
	movq	%rax, -16(%rbp)
	movq	%rax, -8(%rbp)
Ltmp784:
	.loc	6 201 13
	movq	%rax, -88(%rbp)
Ltmp785:
	.loc	7 191 18
	movq	-88(%rbp), %rax
	.loc	7 191 9 is_stmt 0
	movq	%rax, -96(%rbp)
Ltmp786:
	.loc	43 248 23 is_stmt 1
	movq	-96(%rbp), %rdi
	callq	__ZN50_$LT$T$u20$as$u20$core..convert..Into$LT$U$GT$$GT$4into17hb3e7d8ef8a377e41E
	movq	-168(%rbp), %rcx
	movq	-160(%rbp), %rdx
	movq	%rax, %rsi
	movq	-144(%rbp), %rax
	.loc	43 248 22 is_stmt 0
	movq	%rsi, -120(%rbp)
	movq	%rcx, -112(%rbp)
	movq	%rdx, -104(%rbp)
	.loc	43 248 17
	movq	-120(%rbp), %rcx
	movq	%rcx, (%rax)
	movq	-112(%rbp), %rcx
	movq	%rcx, 8(%rax)
	movq	-104(%rbp), %rcx
	movq	%rcx, 16(%rax)
Ltmp787:
	.loc	43 241 9 is_stmt 1
	jmp	LBB106_6
LBB106_5:
	.loc	43 0 9 is_stmt 0
	movq	-144(%rbp), %rax
	.loc	43 242 13 is_stmt 1
	movq	$0, 16(%rax)
LBB106_6:
	.loc	43 0 13 is_stmt 0
	movq	-136(%rbp), %rax
	.loc	43 251 6 is_stmt 1
	addq	$176, %rsp
	popq	%rbp
	retq
Ltmp788:
Lfunc_end106:
	.cfi_endproc

	.p2align	4, 0x90
__ZN62_$LT$std..path..PathBuf$u20$as$u20$core..ops..deref..Deref$GT$5deref17h9fbc4b116fd3c92aE:
Lfunc_begin107:
	.loc	28 1776 0
	.cfi_startproc
	pushq	%rbp
	.cfi_def_cfa_offset 16
	.cfi_offset %rbp, -16
	movq	%rsp, %rbp
	.cfi_def_cfa_register %rbp
	subq	$16, %rsp
	movq	%rdi, -8(%rbp)
Ltmp789:
	.loc	28 1777 9 prologue_end
	callq	__ZN3std4path4Path3new17h33e00c095794b807E
	.loc	28 1778 6
	addq	$16, %rsp
	popq	%rbp
	retq
Ltmp790:
Lfunc_end107:
	.cfi_endproc

	.p2align	4, 0x90
__ZN63_$LT$I$u20$as$u20$core..iter..traits..collect..IntoIterator$GT$9into_iter17hced929ea24944942E:
Lfunc_begin108:
	.file	44 "/rustc/2c8cc343237b8f7d5a3c3703e3a87f2eb2c54a74/library/core/src/iter/traits" "collect.rs"
	.loc	44 272 0
	.cfi_startproc
	pushq	%rbp
	.cfi_def_cfa_offset 16
	.cfi_offset %rbp, -16
	movq	%rsp, %rbp
	.cfi_def_cfa_register %rbp
	subq	$16, %rsp
	movq	%rdi, %rax
	movb	%sil, %dl
	movq	%rax, -16(%rbp)
	andb	$1, %dl
	movb	%dl, -8(%rbp)
Ltmp791:
	.loc	44 274 6 prologue_end
	addq	$16, %rsp
	popq	%rbp
	retq
Ltmp792:
Lfunc_end108:
	.cfi_endproc

	.p2align	4, 0x90
__ZN63_$LT$alloc..alloc..Global$u20$as$u20$core..alloc..Allocator$GT$10deallocate17h6b91ea3cdb65de20E:
Lfunc_begin109:
	.loc	42 246 0
	.cfi_startproc
	pushq	%rbp
	.cfi_def_cfa_offset 16
	.cfi_offset %rbp, -16
	movq	%rsp, %rbp
	.cfi_def_cfa_register %rbp
	subq	$112, %rsp
	movq	%rsi, -112(%rbp)
	movq	%rdx, -104(%rbp)
	movq	%rcx, -96(%rbp)
	movq	%rdi, -64(%rbp)
	movq	%rsi, -56(%rbp)
Ltmp793:
	.loc	42 247 12 prologue_end
	leaq	-104(%rbp), %rax
	movq	%rax, -48(%rbp)
	cmpq	$0, -104(%rbp)
	jne	LBB109_2
	.loc	42 247 9 is_stmt 0
	jmp	LBB109_3
LBB109_2:
	.loc	42 0 9
	movq	-112(%rbp), %rdi
	.loc	42 250 30 is_stmt 1
	movq	%rdi, -40(%rbp)
Ltmp794:
	.loc	6 326 9
	movq	%rdi, -32(%rbp)
Ltmp795:
	.loc	42 250 44
	movq	-104(%rbp), %rcx
	movq	-96(%rbp), %rax
	movq	%rcx, -88(%rbp)
	movq	%rax, -80(%rbp)
Ltmp796:
	.loc	42 113 34
	leaq	-88(%rbp), %rax
	movq	%rax, -24(%rbp)
Ltmp797:
	.loc	35 129 9
	movq	-88(%rbp), %rsi
Ltmp798:
	.loc	42 113 49
	leaq	-88(%rbp), %rax
	movq	%rax, -16(%rbp)
Ltmp799:
	.loc	35 140 9
	movq	-80(%rbp), %rax
	movq	%rax, -8(%rbp)
Ltmp800:
	.loc	37 97 9
	movq	%rax, -72(%rbp)
	movq	-72(%rbp), %rdx
Ltmp801:
	.loc	42 113 14
	callq	___rust_dealloc
Ltmp802:
LBB109_3:
	.loc	42 252 6
	addq	$112, %rsp
	popq	%rbp
	retq
Ltmp803:
Lfunc_end109:
	.cfi_endproc

	.p2align	4, 0x90
__ZN67_$LT$alloc..sync..Arc$LT$T$GT$$u20$as$u20$core..ops..drop..Drop$GT$4drop17h35713c38feae6427E:
Lfunc_begin110:
	.loc	41 1706 0
	.cfi_startproc
	pushq	%rbp
	.cfi_def_cfa_offset 16
	.cfi_offset %rbp, -16
	movq	%rsp, %rbp
	.cfi_def_cfa_register %rbp
	subq	$64, %rsp
	movq	%rdi, -64(%rbp)
	movq	%rdi, -48(%rbp)
Ltmp804:
	.loc	41 1710 12 prologue_end
	movq	%rdi, -40(%rbp)
Ltmp805:
	.loc	41 1115 18
	movq	%rdi, -32(%rbp)
Ltmp806:
	.loc	6 376 20
	movq	(%rdi), %rdi
	movq	%rdi, -24(%rbp)
Ltmp807:
	.loc	41 1710 12
	movq	%rdi, -16(%rbp)
Ltmp808:
	.loc	34 2409 37
	movq	%rdi, -8(%rbp)
	.loc	34 2409 26 is_stmt 0
	movl	$1, %esi
	movl	$1, %edx
	callq	__ZN4core4sync6atomic10atomic_sub17h6890dda9651394c6E
Ltmp809:
	.loc	41 1710 12 is_stmt 1
	cmpq	$1, %rax
	jne	LBB110_2
	.loc	41 1742 9
	movb	$2, -49(%rbp)
	movzbl	-49(%rbp), %edi
	callq	__ZN4core4sync6atomic5fence17hbbe07fa695b85333E
	movq	-64(%rbp), %rdi
	.loc	41 1745 13
	callq	__ZN5alloc4sync12Arc$LT$T$GT$9drop_slow17h9c16eed09a6c207fE
	.loc	41 1747 6
	jmp	LBB110_3
LBB110_2:
	jmp	LBB110_3
LBB110_3:
	addq	$64, %rsp
	popq	%rbp
	retq
Ltmp810:
Lfunc_end110:
	.cfi_endproc

	.p2align	4, 0x90
__ZN68_$LT$alloc..sync..Weak$LT$T$GT$$u20$as$u20$core..ops..drop..Drop$GT$4drop17h33f6cccc9347842aE:
Lfunc_begin111:
	.loc	41 2237 0
	.cfi_startproc
	pushq	%rbp
	.cfi_def_cfa_offset 16
	.cfi_offset %rbp, -16
	movq	%rsp, %rbp
	.cfi_def_cfa_register %rbp
	subq	$144, %rsp
	movq	%rdi, -128(%rbp)
	movq	%rdi, -72(%rbp)
Ltmp811:
	.loc	41 2246 42 prologue_end
	callq	__ZN5alloc4sync13Weak$LT$T$GT$5inner17ha316300d4a41e1f0E
	movq	%rdx, -96(%rbp)
	movq	%rax, -104(%rbp)
	.loc	41 2246 28 is_stmt 0
	movq	-104(%rbp), %rdx
	movl	$1, %eax
	xorl	%ecx, %ecx
	cmpq	$0, %rdx
	cmoveq	%rcx, %rax
	cmpq	$1, %rax
	jne	LBB111_2
	.loc	41 2246 33
	movq	-104(%rbp), %rcx
	movq	-96(%rbp), %rax
	movq	%rcx, -64(%rbp)
	movq	%rax, -56(%rbp)
	.loc	41 2246 57
	movq	%rcx, -120(%rbp)
	movq	%rax, -112(%rbp)
Ltmp812:
	.loc	41 2248 12 is_stmt 1
	movq	-120(%rbp), %rdi
	movq	%rdi, -48(%rbp)
Ltmp813:
	.loc	34 2409 37
	movq	%rdi, -40(%rbp)
	.loc	34 2409 26 is_stmt 0
	movl	$1, %esi
	movl	$1, %edx
	callq	__ZN4core4sync6atomic10atomic_sub17h6890dda9651394c6E
Ltmp814:
	.loc	41 2248 12 is_stmt 1
	cmpq	$1, %rax
	je	LBB111_4
	jmp	LBB111_5
Ltmp815:
LBB111_2:
	.loc	41 2252 6
	jmp	LBB111_3
LBB111_3:
	addq	$144, %rsp
	popq	%rbp
	retq
LBB111_4:
Ltmp816:
	.loc	41 2249 13
	movb	$2, -81(%rbp)
	movzbl	-81(%rbp), %edi
	callq	__ZN4core4sync6atomic5fence17hbbe07fa695b85333E
	movq	-128(%rbp), %rax
	.loc	41 2250 40
	movq	(%rax), %rcx
	movq	%rcx, -32(%rbp)
Ltmp817:
	.loc	6 450 41
	movq	%rcx, -24(%rbp)
	movq	%rcx, -16(%rbp)
Ltmp818:
	.loc	6 201 13
	movq	%rcx, -80(%rbp)
Ltmp819:
	.loc	41 2250 79
	movq	(%rax), %rdi
	movq	%rdi, -8(%rbp)
	.loc	41 2250 57 is_stmt 0
	callq	__ZN4core5alloc6layout6Layout13for_value_raw17h0cedce3a71a1a07bE
	movq	%rax, -136(%rbp)
	movq	%rdx, %rcx
	movq	-136(%rbp), %rdx
	.loc	41 2250 22
	movq	-80(%rbp), %rsi
	leaq	l___unnamed_13(%rip), %rdi
	callq	__ZN63_$LT$alloc..alloc..Global$u20$as$u20$core..alloc..Allocator$GT$10deallocate17h6b91ea3cdb65de20E
	.loc	41 2248 9 is_stmt 1
	jmp	LBB111_6
LBB111_5:
	jmp	LBB111_6
Ltmp820:
LBB111_6:
	.loc	41 2252 6
	jmp	LBB111_3
Ltmp821:
Lfunc_end111:
	.cfi_endproc

	.p2align	4, 0x90
__ZN69_$LT$std..os..fd..owned..OwnedFd$u20$as$u20$core..ops..drop..Drop$GT$4drop17h10b84763d2cb75e2E:
Lfunc_begin112:
	.file	45 "/rustc/2c8cc343237b8f7d5a3c3703e3a87f2eb2c54a74/library/std/src/os/fd" "owned.rs"
	.loc	45 170 0
	.cfi_startproc
	pushq	%rbp
	.cfi_def_cfa_offset 16
	.cfi_offset %rbp, -16
	movq	%rsp, %rbp
	.cfi_def_cfa_register %rbp
	subq	$16, %rsp
	movq	%rdi, -8(%rbp)
Ltmp822:
	.loc	45 177 33 prologue_end
	movl	(%rdi), %edi
	.loc	45 177 21 is_stmt 0
	callq	_close$NOCANCEL
	.loc	45 179 6 is_stmt 1
	addq	$16, %rsp
	popq	%rbp
	retq
Ltmp823:
Lfunc_end112:
	.cfi_endproc

	.p2align	4, 0x90
__ZN70_$LT$alloc..vec..Vec$LT$T$C$A$GT$$u20$as$u20$core..ops..drop..Drop$GT$4drop17h5069fa232b8c513fE:
Lfunc_begin113:
	.file	46 "/rustc/2c8cc343237b8f7d5a3c3703e3a87f2eb2c54a74/library/alloc/src/vec" "mod.rs"
	.loc	46 3054 0
	.cfi_startproc
	pushq	%rbp
	.cfi_def_cfa_offset 16
	.cfi_offset %rbp, -16
	movq	%rsp, %rbp
	.cfi_def_cfa_register %rbp
	subq	$160, %rsp
	movq	%rdi, -120(%rbp)
Ltmp824:
	.loc	46 3059 62 prologue_end
	movq	%rdi, -112(%rbp)
Ltmp825:
	.loc	46 1280 19
	movq	%rdi, -104(%rbp)
Ltmp826:
	.loc	43 224 9
	movq	8(%rdi), %rcx
	movq	%rcx, -96(%rbp)
Ltmp827:
	.loc	7 104 9
	movq	%rcx, -88(%rbp)
Ltmp828:
	.loc	6 326 9
	movq	%rcx, -80(%rbp)
Ltmp829:
	.loc	46 1282 21
	movq	%rcx, -72(%rbp)
Ltmp830:
	.loc	5 52 36
	movq	%rcx, -160(%rbp)
	.loc	5 52 18 is_stmt 0
	movq	-160(%rbp), %rax
	movq	%rax, -64(%rbp)
Ltmp831:
	.loc	5 38 13 is_stmt 1
	movq	%rax, -56(%rbp)
Ltmp832:
	.loc	5 215 33
	movq	%rax, -48(%rbp)
	.loc	5 215 18 is_stmt 0
	movq	%rax, -40(%rbp)
Ltmp833:
	.loc	46 3059 81 is_stmt 1
	movq	16(%rdi), %rax
	movq	%rax, -32(%rbp)
Ltmp834:
	.loc	3 766 24
	movq	%rcx, -24(%rbp)
Ltmp835:
	.loc	5 60 9
	movq	%rcx, -16(%rbp)
Ltmp836:
	.loc	3 766 37
	movq	%rax, -8(%rbp)
Ltmp837:
	.loc	4 135 36
	movq	%rcx, -136(%rbp)
	movq	%rax, -128(%rbp)
	.loc	4 135 14 is_stmt 0
	movq	-136(%rbp), %rcx
	movq	-128(%rbp), %rax
	movq	%rcx, -152(%rbp)
	movq	%rax, -144(%rbp)
Ltmp838:
	.loc	46 3062 6 is_stmt 1
	addq	$160, %rsp
	popq	%rbp
	retq
Ltmp839:
Lfunc_end113:
	.cfi_endproc

	.p2align	4, 0x90
__ZN72_$LT$alloc..vec..Vec$LT$T$C$A$GT$$u20$as$u20$core..ops..deref..Deref$GT$5deref17h3433034c9f79467bE:
Lfunc_begin114:
	.loc	46 2636 0
	.cfi_startproc
	pushq	%rbp
	.cfi_def_cfa_offset 16
	.cfi_offset %rbp, -16
	movq	%rsp, %rbp
	.cfi_def_cfa_register %rbp
	subq	$184, %rsp
	movq	%rdi, -144(%rbp)
Ltmp840:
	.loc	46 2637 40 prologue_end
	movq	%rdi, -136(%rbp)
Ltmp841:
	.loc	46 1243 19
	movq	%rdi, -128(%rbp)
Ltmp842:
	.loc	43 224 9
	movq	8(%rdi), %rcx
	movq	%rcx, -120(%rbp)
Ltmp843:
	.loc	7 104 9
	movq	%rcx, -112(%rbp)
Ltmp844:
	.loc	6 326 9
	movq	%rcx, -104(%rbp)
Ltmp845:
	.loc	46 1245 21
	movq	%rcx, -96(%rbp)
Ltmp846:
	.loc	5 52 36
	movq	%rcx, -184(%rbp)
	.loc	5 52 18 is_stmt 0
	movq	-184(%rbp), %rax
	movq	%rax, -88(%rbp)
Ltmp847:
	.loc	5 38 13 is_stmt 1
	movq	%rax, -80(%rbp)
Ltmp848:
	.loc	5 215 33
	movq	%rax, -72(%rbp)
	.loc	5 215 18 is_stmt 0
	movq	%rax, -64(%rbp)
Ltmp849:
	.loc	46 1247 9 is_stmt 1
	movq	%rcx, -56(%rbp)
Ltmp850:
	.loc	46 2637 55
	movq	16(%rdi), %rax
	movq	%rax, -48(%rbp)
Ltmp851:
	.file	47 "/rustc/2c8cc343237b8f7d5a3c3703e3a87f2eb2c54a74/library/core/src/slice" "raw.rs"
	.loc	47 100 37
	movq	%rcx, -40(%rbp)
	.loc	47 100 43 is_stmt 0
	movq	%rax, -32(%rbp)
Ltmp852:
	.loc	3 734 20 is_stmt 1
	movq	%rcx, -24(%rbp)
Ltmp853:
	.loc	2 61 9
	movq	%rcx, -16(%rbp)
Ltmp854:
	.loc	3 734 33
	movq	%rax, -8(%rbp)
Ltmp855:
	.loc	4 118 36
	movq	%rcx, -160(%rbp)
	movq	%rax, -152(%rbp)
	.loc	4 118 14 is_stmt 0
	movq	-160(%rbp), %rcx
	movq	-152(%rbp), %rax
	movq	%rcx, -176(%rbp)
	movq	%rax, -168(%rbp)
	movq	-176(%rbp), %rax
	movq	-168(%rbp), %rdx
Ltmp856:
	.loc	46 2638 6 is_stmt 1
	addq	$184, %rsp
	popq	%rbp
	retq
Ltmp857:
Lfunc_end114:
	.cfi_endproc

	.p2align	4, 0x90
__ZN73_$LT$$u5b$A$u5d$$u20$as$u20$core..slice..cmp..SlicePartialEq$LT$B$GT$$GT$5equal17h2827c1dfb76da2d1E:
Lfunc_begin115:
	.loc	38 82 0
	.cfi_startproc
	pushq	%rbp
	.cfi_def_cfa_offset 16
	.cfi_offset %rbp, -16
	movq	%rsp, %rbp
	.cfi_def_cfa_register %rbp
	subq	$144, %rsp
	movq	%rdi, -136(%rbp)
	movq	%rsi, -128(%rbp)
	movq	%rdx, -120(%rbp)
	movq	%rcx, -112(%rbp)
	movq	%rdi, -96(%rbp)
	movq	%rsi, -88(%rbp)
	movq	%rdx, -80(%rbp)
	movq	%rcx, -72(%rbp)
Ltmp858:
	.loc	38 83 12 prologue_end
	cmpq	%rcx, %rsi
	jne	LBB115_2
	.loc	38 0 12 is_stmt 0
	movq	-120(%rbp), %rsi
	movq	-136(%rbp), %rdi
	movq	-112(%rbp), %rax
	movq	-128(%rbp), %rcx
	.loc	38 90 41 is_stmt 1
	movq	%rdi, -64(%rbp)
	movq	%rcx, -56(%rbp)
Ltmp859:
	.loc	36 338 14
	movq	%rcx, %rdx
	shlq	$0, %rdx
	movq	%rdx, -48(%rbp)
	movq	-48(%rbp), %rdx
	movq	%rdx, -40(%rbp)
Ltmp860:
	.loc	38 91 20
	movq	%rdi, -32(%rbp)
	movq	%rcx, -24(%rbp)
	.loc	38 91 48 is_stmt 0
	movq	%rsi, -16(%rbp)
	movq	%rax, -8(%rbp)
	.loc	38 91 13
	callq	_memcmp
	cmpl	$0, %eax
	sete	%al
	andb	$1, %al
	movb	%al, -97(%rbp)
Ltmp861:
	.loc	38 93 6 is_stmt 1
	jmp	LBB115_3
LBB115_2:
	.loc	38 84 20
	movb	$0, -97(%rbp)
LBB115_3:
	.loc	38 93 6
	movb	-97(%rbp), %al
	andb	$1, %al
	movzbl	%al, %eax
	addq	$144, %rsp
	popq	%rbp
	retq
Ltmp862:
Lfunc_end115:
	.cfi_endproc

	.p2align	4, 0x90
__ZN77_$LT$alloc..raw_vec..RawVec$LT$T$C$A$GT$$u20$as$u20$core..ops..drop..Drop$GT$4drop17h640921cdb665a647E:
Lfunc_begin116:
	.loc	43 477 0
	.cfi_startproc
	pushq	%rbp
	.cfi_def_cfa_offset 16
	.cfi_offset %rbp, -16
	movq	%rsp, %rbp
	.cfi_def_cfa_register %rbp
	subq	$64, %rsp
	movq	%rdi, %rsi
	movq	%rsi, -64(%rbp)
	movq	%rsi, -32(%rbp)
Ltmp863:
	.loc	43 478 38 prologue_end
	leaq	-56(%rbp), %rdi
	callq	__ZN5alloc7raw_vec19RawVec$LT$T$C$A$GT$14current_memory17he11605061c450c4aE
	.loc	43 478 16 is_stmt 0
	movl	$1, %eax
	xorl	%ecx, %ecx
	cmpq	$0, -40(%rbp)
	cmoveq	%rcx, %rax
	cmpq	$1, %rax
	jne	LBB116_2
	.loc	43 0 16
	movq	-64(%rbp), %rdi
	.loc	43 478 22
	movq	-56(%rbp), %rsi
	movq	%rsi, -24(%rbp)
	.loc	43 478 27
	movq	-48(%rbp), %rdx
	movq	-40(%rbp), %rcx
	movq	%rdx, -16(%rbp)
	movq	%rcx, -8(%rbp)
	.loc	43 479 22 is_stmt 1
	callq	__ZN63_$LT$alloc..alloc..Global$u20$as$u20$core..alloc..Allocator$GT$10deallocate17h6b91ea3cdb65de20E
Ltmp864:
LBB116_2:
	.loc	43 481 6
	addq	$64, %rsp
	popq	%rbp
	retq
Ltmp865:
Lfunc_end116:
	.cfi_endproc

	.p2align	4, 0x90
__ZN78_$LT$std..io..error..repr_bitpacked..Repr$u20$as$u20$core..ops..drop..Drop$GT$4drop17h603501c46f05bbaaE:
Lfunc_begin117:
	.loc	15 232 0
	.cfi_startproc
	pushq	%rbp
	.cfi_def_cfa_offset 16
	.cfi_offset %rbp, -16
	movq	%rsp, %rbp
	.cfi_def_cfa_register %rbp
	subq	$32, %rsp
	movq	%rdi, -8(%rbp)
Ltmp866:
	.loc	15 236 33 prologue_end
	movq	(%rdi), %rsi
	.loc	15 236 21 is_stmt 0
	leaq	-24(%rbp), %rdi
	callq	__ZN3std2io5error14repr_bitpacked11decode_repr17h677a034c1856f3a0E
	.loc	15 236 72
	leaq	-24(%rbp), %rdi
	callq	__ZN4core3ptr101drop_in_place$LT$std..io..error..ErrorData$LT$alloc..boxed..Box$LT$std..io..error..Custom$GT$$GT$$GT$17h416866a1deb8713fE
	.loc	15 238 6 is_stmt 1
	addq	$32, %rsp
	popq	%rbp
	retq
Ltmp867:
Lfunc_end117:
	.cfi_endproc

	.p2align	4, 0x90
__ZN78_$LT$std..io..error..repr_bitpacked..Repr$u20$as$u20$core..ops..drop..Drop$GT$4drop28_$u7b$$u7b$closure$u7d$$u7d$17hb4d71329e0ed7c10E:
Lfunc_begin118:
	.loc	15 236 0
	.cfi_startproc
	pushq	%rbp
	.cfi_def_cfa_offset 16
	.cfi_offset %rbp, -16
	movq	%rsp, %rbp
	.cfi_def_cfa_register %rbp
	subq	$80, %rsp
	movq	%rdi, -48(%rbp)
Ltmp868:
	.loc	15 236 69 prologue_end
	movq	%rdi, -32(%rbp)
Ltmp869:
	.file	48 "/rustc/2c8cc343237b8f7d5a3c3703e3a87f2eb2c54a74/library/alloc/src" "boxed.rs"
	.loc	48 958 36
	movq	%rdi, -24(%rbp)
Ltmp870:
	.loc	48 1014 44
	movq	%rdi, -16(%rbp)
Ltmp871:
	.loc	7 87 59
	movq	%rdi, -8(%rbp)
Ltmp872:
	.loc	6 201 13
	movq	%rdi, -64(%rbp)
Ltmp873:
	.loc	7 87 18
	movq	-64(%rbp), %rax
	movq	%rax, -72(%rbp)
Ltmp874:
	.loc	48 1014 9
	movq	-72(%rbp), %rax
	movq	%rax, -80(%rbp)
Ltmp875:
	.loc	15 236 71
	movq	-80(%rbp), %rax
	addq	$80, %rsp
	popq	%rbp
	retq
Ltmp876:
Lfunc_end118:
	.cfi_endproc

	.p2align	4, 0x90
__ZN79_$LT$std..path..Path$u20$as$u20$core..convert..AsRef$LT$std..path..Path$GT$$GT$6as_ref17hb8d5eb5fc28fde54E:
Lfunc_begin119:
	.loc	28 3106 0
	.cfi_startproc
	pushq	%rbp
	.cfi_def_cfa_offset 16
	.cfi_offset %rbp, -16
	movq	%rsp, %rbp
	.cfi_def_cfa_register %rbp
	subq	$16, %rsp
	movq	%rsi, %rdx
	movq	%rdi, %rax
	movq	%rax, -16(%rbp)
	movq	%rdx, -8(%rbp)
Ltmp877:
	.loc	28 3108 6 prologue_end
	addq	$16, %rsp
	popq	%rbp
	retq
Ltmp878:
Lfunc_end119:
	.cfi_endproc

	.p2align	4, 0x90
__ZN80_$LT$std..io..Write..write_fmt..Adapter$LT$T$GT$$u20$as$u20$core..fmt..Write$GT$9write_str17h5a52513601f1e1deE:
Lfunc_begin120:
	.loc	11 1670 0
	.cfi_startproc
	.cfi_personality 155, _rust_eh_personality
	.cfi_lsda 16, Lexception23
	pushq	%rbp
	.cfi_def_cfa_offset 16
	.cfi_offset %rbp, -16
	movq	%rsp, %rbp
	.cfi_def_cfa_register %rbp
	subq	$112, %rsp
	movq	%rdi, -112(%rbp)
	movq	%rdi, -80(%rbp)
	movq	%rsi, -72(%rbp)
	movq	%rdx, -64(%rbp)
Ltmp882:
	.loc	11 1671 23 prologue_end
	movq	8(%rdi), %rdi
	.loc	11 1671 44 is_stmt 0
	movq	%rsi, -56(%rbp)
	movq	%rdx, -48(%rbp)
Ltmp883:
	.loc	27 327 18 is_stmt 1
	movq	%rsi, -40(%rbp)
	movq	%rdx, -32(%rbp)
	movq	-40(%rbp), %rsi
	movq	-32(%rbp), %rdx
Ltmp884:
	.loc	11 1671 23
	callq	__ZN3std2io5Write9write_all17hc46049673707b404E
	movq	%rax, -96(%rbp)
	movq	-96(%rbp), %rdx
	movl	$1, %eax
	xorl	%ecx, %ecx
	cmpq	$0, %rdx
	cmoveq	%rcx, %rax
	.loc	11 1671 17 is_stmt 0
	cmpq	$0, %rax
	jne	LBB120_2
	.loc	11 1672 31 is_stmt 1
	movb	$0, -97(%rbp)
	.loc	11 1672 36 is_stmt 0
	jmp	LBB120_6
LBB120_2:
	.loc	11 0 36
	movq	-112(%rbp), %rdi
	.loc	11 1673 25 is_stmt 1
	movq	-96(%rbp), %rax
	movq	%rax, -24(%rbp)
Ltmp885:
	.loc	11 1674 38
	movq	%rax, -88(%rbp)
Ltmp879:
	.loc	11 1674 25 is_stmt 0
	callq	__ZN4core3ptr81drop_in_place$LT$core..result..Result$LT$$LP$$RP$$C$std..io..error..Error$GT$$GT$17h94d92379f06ecf8dE
Ltmp880:
	jmp	LBB120_5
LBB120_3:
	.loc	11 0 25
	movq	-112(%rbp), %rax
	.loc	11 1674 25
	movq	-88(%rbp), %rcx
	movq	%rcx, (%rax)
Ltmp886:
	.loc	11 1670 13 is_stmt 1
	movq	-16(%rbp), %rdi
	callq	__Unwind_Resume
LBB120_4:
Ltmp881:
	.loc	11 0 13 is_stmt 0
	movq	%rax, %rcx
	movl	%edx, %eax
	movq	%rcx, -16(%rbp)
	movl	%eax, -8(%rbp)
	jmp	LBB120_3
LBB120_5:
	movq	-112(%rbp), %rax
Ltmp887:
	.loc	11 1674 25 is_stmt 1
	movq	-88(%rbp), %rcx
	movq	%rcx, (%rax)
	.loc	11 1675 25
	movb	$1, -97(%rbp)
Ltmp888:
LBB120_6:
	.loc	11 1678 14
	movb	-97(%rbp), %al
	andb	$1, %al
	movzbl	%al, %eax
	addq	$112, %rsp
	popq	%rbp
	retq
Ltmp889:
Lfunc_end120:
	.cfi_endproc
	.section	__TEXT,__gcc_except_tab
	.p2align	2
GCC_except_table120:
Lexception23:
	.byte	255
	.byte	255
	.byte	1
	.uleb128 Lcst_end23-Lcst_begin23
Lcst_begin23:
	.uleb128 Lfunc_begin120-Lfunc_begin120
	.uleb128 Ltmp879-Lfunc_begin120
	.byte	0
	.byte	0
	.uleb128 Ltmp879-Lfunc_begin120
	.uleb128 Ltmp880-Ltmp879
	.uleb128 Ltmp881-Lfunc_begin120
	.byte	0
	.uleb128 Ltmp880-Lfunc_begin120
	.uleb128 Lfunc_end120-Ltmp880
	.byte	0
	.byte	0
Lcst_end23:
	.p2align	2

	.section	__TEXT,__text,regular,pure_instructions
	.p2align	4, 0x90
__ZN82_$LT$std..path..PathBuf$u20$as$u20$core..convert..AsRef$LT$std..path..Path$GT$$GT$6as_ref17h2216da4c961bd3e6E:
Lfunc_begin121:
	.loc	28 3154 0
	.cfi_startproc
	pushq	%rbp
	.cfi_def_cfa_offset 16
	.cfi_offset %rbp, -16
	movq	%rsp, %rbp
	.cfi_def_cfa_register %rbp
	subq	$16, %rsp
	movq	%rdi, -16(%rbp)
Ltmp890:
	.loc	28 3155 9 prologue_end
	movq	%rdi, -8(%rbp)
Ltmp891:
	.loc	28 1777 9
	callq	__ZN3std4path4Path3new17h33e00c095794b807E
Ltmp892:
	.loc	28 3156 6
	addq	$16, %rsp
	popq	%rbp
	retq
Ltmp893:
Lfunc_end121:
	.cfi_endproc

	.p2align	4, 0x90
__ZN98_$LT$std..ffi..os_str..OsString$u20$as$u20$core..convert..AsRef$LT$std..ffi..os_str..OsStr$GT$$GT$6as_ref17ha4f5f3544ee7bddcE:
Lfunc_begin122:
	.loc	23 1313 0
	.cfi_startproc
	pushq	%rbp
	.cfi_def_cfa_offset 16
	.cfi_offset %rbp, -16
	movq	%rsp, %rbp
	.cfi_def_cfa_register %rbp
	subq	$80, %rsp
	movq	%rdi, -72(%rbp)
Ltmp894:
	.loc	23 1314 9 prologue_end
	movq	%rdi, -56(%rbp)
Ltmp895:
	.loc	23 515 10
	movq	%rdi, -48(%rbp)
Ltmp896:
	.loc	23 497 27
	movq	%rdi, -40(%rbp)
Ltmp897:
	.loc	26 152 34
	callq	__ZN72_$LT$alloc..vec..Vec$LT$T$C$A$GT$$u20$as$u20$core..ops..deref..Deref$GT$5deref17h3433034c9f79467bE
	.loc	26 152 18 is_stmt 0
	movq	%rax, -32(%rbp)
	movq	%rdx, -24(%rbp)
	movq	-32(%rbp), %rax
	movq	-24(%rbp), %rdx
Ltmp898:
	.loc	23 497 27 is_stmt 1
	movq	%rax, -16(%rbp)
	movq	%rdx, -8(%rbp)
Ltmp899:
	.loc	23 1315 6
	addq	$80, %rsp
	popq	%rbp
	retq
Ltmp900:
Lfunc_end122:
	.cfi_endproc

	.p2align	4, 0x90
__ZN18build_script_build4main17h3f0f3da9ff8c0f9fE:
Lfunc_begin123:
	.loc	14 23 0
	.cfi_startproc
	.cfi_personality 155, _rust_eh_personality
	.cfi_lsda 16, Lexception24
	pushq	%rbp
	.cfi_def_cfa_offset 16
	.cfi_offset %rbp, -16
	movq	%rsp, %rbp
	.cfi_def_cfa_register %rbp
	movl	$5072, %eax
	callq	___rust_probestack
	subq	%rax, %rsp
Ltmp1025:
	.loc	14 25 16 prologue_end
	leaq	l___unnamed_24(%rip), %rsi
	leaq	-4680(%rbp), %rdi
	movq	%rdi, -4736(%rbp)
	movl	$7, %edx
	callq	__ZN3std3env3var17h9bef73f310d32c59E
	movq	-4736(%rbp), %rsi
	leaq	l___unnamed_25(%rip), %rdx
	leaq	-4704(%rbp), %rdi
	movq	%rdi, -4728(%rbp)
	callq	__ZN4core6result19Result$LT$T$C$E$GT$6unwrap17h7bfc0e1a41d72db5E
	movq	-4728(%rbp), %rdi
Ltmp901:
Ltmp1026:
	.loc	14 26 34
	callq	__ZN3std4path4Path3new17h9d343ea5891365eeE
Ltmp902:
	movq	%rdx, -4720(%rbp)
	movq	%rax, -4712(%rbp)
	jmp	LBB123_3
Ltmp1027:
LBB123_1:
Ltmp1022:
	.loc	14 0 34 is_stmt 0
	leaq	-4704(%rbp), %rdi
	.loc	14 61 1 is_stmt 1
	callq	__ZN4core3ptr42drop_in_place$LT$alloc..string..String$GT$17h558212a3d815ad24E
Ltmp1023:
	jmp	LBB123_76
LBB123_2:
Ltmp1021:
	.loc	14 0 1 is_stmt 0
	movq	%rax, %rcx
	movl	%edx, %eax
	movq	%rcx, -16(%rbp)
	movl	%eax, -8(%rbp)
	jmp	LBB123_1
LBB123_3:
Ltmp903:
	movq	-4720(%rbp), %rdx
	movq	-4712(%rbp), %rsi
Ltmp1028:
	.loc	14 26 34 is_stmt 1
	leaq	l___unnamed_26(%rip), %rcx
	leaq	-4624(%rbp), %rdi
	movl	$13, %r8d
	callq	__ZN3std4path4Path4join17h0c9fa84c42293178E
Ltmp904:
	jmp	LBB123_4
LBB123_4:
Ltmp905:
	.loc	14 0 34 is_stmt 0
	leaq	-4640(%rbp), %rdi
	leaq	-4624(%rbp), %rsi
	.loc	14 26 20
	callq	__ZN3std2fs4File6create17h17f4357b6dd465f2E
Ltmp906:
	jmp	LBB123_7
LBB123_5:
Ltmp910:
	.loc	14 0 20
	leaq	-4624(%rbp), %rdi
	.loc	14 26 82
	callq	__ZN4core3ptr39drop_in_place$LT$std..path..PathBuf$GT$17h2192ecb8b325638bE
Ltmp911:
	jmp	LBB123_1
LBB123_6:
Ltmp909:
	.loc	14 0 82
	movq	%rax, %rcx
	movl	%edx, %eax
	movq	%rcx, -16(%rbp)
	movl	%eax, -8(%rbp)
	jmp	LBB123_5
LBB123_7:
Ltmp907:
	.loc	14 26 20
	leaq	l___unnamed_27(%rip), %rsi
	leaq	-4640(%rbp), %rdi
	callq	__ZN4core6result19Result$LT$T$C$E$GT$6unwrap17hccecfd6239db5dadE
Ltmp908:
	movl	%eax, -4740(%rbp)
	jmp	LBB123_8
LBB123_8:
	.loc	14 0 20
	movl	-4740(%rbp), %eax
	.loc	14 26 20
	movl	%eax, -4644(%rbp)
Ltmp912:
	leaq	-4624(%rbp), %rdi
	.loc	14 26 82
	callq	__ZN4core3ptr39drop_in_place$LT$std..path..PathBuf$GT$17h2192ecb8b325638bE
Ltmp913:
	jmp	LBB123_12
Ltmp1029:
LBB123_9:
Ltmp1024:
	.loc	14 23 1 is_stmt 1
	callq	__ZN4core9panicking19panic_cannot_unwind17h1fbca7e1d7f56ae1E
LBB123_10:
Ltmp1017:
	.loc	14 0 1 is_stmt 0
	leaq	-4644(%rbp), %rdi
Ltmp1030:
	.loc	14 61 1 is_stmt 1
	callq	__ZN4core3ptr34drop_in_place$LT$std..fs..File$GT$17h1eeec8c0c11b715bE
Ltmp1018:
	jmp	LBB123_1
LBB123_11:
Ltmp1016:
	.loc	14 0 1 is_stmt 0
	movq	%rax, %rcx
	movl	%edx, %eax
	movq	%rcx, -16(%rbp)
	movl	%eax, -8(%rbp)
	jmp	LBB123_10
LBB123_12:
Ltmp914:
	leaq	-4552(%rbp), %rdi
Ltmp1031:
	.loc	14 32 16 is_stmt 1
	callq	__ZN3std3env11current_dir17hfb4a2dd7e9a165e1E
Ltmp915:
	jmp	LBB123_13
LBB123_13:
Ltmp916:
	leaq	l___unnamed_28(%rip), %rdx
	leaq	-4576(%rbp), %rdi
	leaq	-4552(%rbp), %rsi
	callq	__ZN4core6result19Result$LT$T$C$E$GT$6unwrap17h93a821a4be9ebba5E
Ltmp917:
	jmp	LBB123_14
LBB123_14:
Ltmp918:
	.loc	14 0 16 is_stmt 0
	leaq	-4576(%rbp), %rdi
	.loc	14 32 16
	callq	__ZN62_$LT$std..path..PathBuf$u20$as$u20$core..ops..deref..Deref$GT$5deref17h9fbc4b116fd3c92aE
Ltmp919:
	movq	%rdx, -4760(%rbp)
	movq	%rax, -4752(%rbp)
	jmp	LBB123_17
LBB123_15:
Ltmp923:
	.loc	14 0 16
	leaq	-4576(%rbp), %rdi
	.loc	14 32 72
	callq	__ZN4core3ptr39drop_in_place$LT$std..path..PathBuf$GT$17h2192ecb8b325638bE
Ltmp924:
	jmp	LBB123_10
LBB123_16:
Ltmp922:
	.loc	14 0 72
	movq	%rax, %rcx
	movl	%edx, %eax
	movq	%rcx, -16(%rbp)
	movl	%eax, -8(%rbp)
	jmp	LBB123_15
LBB123_17:
Ltmp920:
	movq	-4760(%rbp), %rdx
	movq	-4752(%rbp), %rsi
	.loc	14 32 16
	leaq	l___unnamed_29(%rip), %rcx
	leaq	-4600(%rbp), %rdi
	movl	$20, %r8d
	callq	__ZN3std4path4Path4join17h0c9fa84c42293178E
Ltmp921:
	jmp	LBB123_18
LBB123_18:
Ltmp925:
	.loc	14 0 16
	leaq	-4576(%rbp), %rdi
	.loc	14 32 72
	callq	__ZN4core3ptr39drop_in_place$LT$std..path..PathBuf$GT$17h2192ecb8b325638bE
Ltmp926:
	jmp	LBB123_21
LBB123_19:
Ltmp1012:
	.loc	14 0 72
	leaq	-4600(%rbp), %rdi
	.loc	14 61 1 is_stmt 1
	callq	__ZN4core3ptr39drop_in_place$LT$std..path..PathBuf$GT$17h2192ecb8b325638bE
Ltmp1013:
	jmp	LBB123_10
LBB123_20:
Ltmp1011:
	.loc	14 0 1 is_stmt 0
	movq	%rax, %rcx
	movl	%edx, %eax
	movq	%rcx, -16(%rbp)
	movl	%eax, -8(%rbp)
	jmp	LBB123_19
LBB123_21:
Ltmp927:
Ltmp1032:
	.loc	14 36 5 is_stmt 1
	leaq	l___unnamed_30(%rip), %rsi
	leaq	l___unnamed_13(%rip), %rcx
	xorl	%eax, %eax
	movl	%eax, %r8d
	leaq	-4528(%rbp), %rdi
	movl	$1, %edx
	callq	__ZN4core3fmt9Arguments6new_v117h8abefee7c24ee4cfE
Ltmp928:
	jmp	LBB123_22
LBB123_22:
Ltmp929:
	.loc	14 0 5 is_stmt 0
	leaq	-4644(%rbp), %rdi
	leaq	-4528(%rbp), %rsi
	.loc	14 36 5
	callq	__ZN3std2io5Write9write_fmt17h60618344047b1912E
Ltmp930:
	movq	%rax, -4768(%rbp)
	jmp	LBB123_23
LBB123_23:
Ltmp931:
	.loc	14 0 5
	movq	-4768(%rbp), %rdi
	.loc	14 36 5
	leaq	l___unnamed_31(%rip), %rsi
	callq	__ZN4core6result19Result$LT$T$C$E$GT$6unwrap17hd899382417040825E
Ltmp932:
	jmp	LBB123_24
LBB123_24:
Ltmp933:
	.loc	14 0 5
	leaq	-4600(%rbp), %rdi
	.loc	14 41 18 is_stmt 1
	callq	__ZN62_$LT$std..path..PathBuf$u20$as$u20$core..ops..deref..Deref$GT$5deref17h9fbc4b116fd3c92aE
Ltmp934:
	movq	%rdx, -4784(%rbp)
	movq	%rax, -4776(%rbp)
	jmp	LBB123_25
LBB123_25:
Ltmp935:
	.loc	14 0 18 is_stmt 0
	movq	-4784(%rbp), %rdx
	movq	-4776(%rbp), %rsi
	leaq	-4480(%rbp), %rdi
	.loc	14 41 18
	callq	__ZN3std4path4Path8read_dir17ha3ccf1956b17669dE
Ltmp936:
	jmp	LBB123_26
LBB123_26:
Ltmp937:
	leaq	l___unnamed_32(%rip), %rsi
	leaq	-4480(%rbp), %rdi
	callq	__ZN4core6result19Result$LT$T$C$E$GT$6unwrap17h3d4374ef3d15d92cE
Ltmp938:
	movb	%dl, -4793(%rbp)
	movq	%rax, -4792(%rbp)
	jmp	LBB123_27
LBB123_27:
Ltmp939:
	.loc	14 0 18
	movq	-4792(%rbp), %rdi
	movb	-4793(%rbp), %al
	.loc	14 41 18
	movzbl	%al, %esi
	andl	$1, %esi
	callq	__ZN63_$LT$I$u20$as$u20$core..iter..traits..collect..IntoIterator$GT$9into_iter17hced929ea24944942E
Ltmp940:
	movb	%dl, -4809(%rbp)
	movq	%rax, -4808(%rbp)
	jmp	LBB123_28
LBB123_28:
	.loc	14 0 18
	movb	-4809(%rbp), %al
	movq	-4808(%rbp), %rcx
	.loc	14 41 18
	movq	%rcx, -4464(%rbp)
	andb	$1, %al
	movb	%al, -4456(%rbp)
LBB123_29:
Ltmp941:
	.loc	14 0 18
	leaq	-4448(%rbp), %rdi
	leaq	-4464(%rbp), %rsi
Ltmp1033:
	.loc	14 41 18
	callq	__ZN75_$LT$std..fs..ReadDir$u20$as$u20$core..iter..traits..iterator..Iterator$GT$4next17ha19b40438823b6e5E
Ltmp942:
	jmp	LBB123_32
Ltmp1034:
LBB123_30:
Ltmp1001:
	.loc	14 0 18
	leaq	-4464(%rbp), %rdi
	.loc	14 41 5
	callq	__ZN4core3ptr37drop_in_place$LT$std..fs..ReadDir$GT$17hbf7fcc77737d4c93E
Ltmp1002:
	jmp	LBB123_19
LBB123_31:
Ltmp1000:
	.loc	14 0 5
	movq	%rax, %rcx
	movl	%edx, %eax
	movq	%rcx, -16(%rbp)
	movl	%eax, -8(%rbp)
	jmp	LBB123_30
LBB123_32:
Ltmp1035:
	.loc	14 41 18
	cmpq	$0, -4448(%rbp)
	jne	LBB123_34
Ltmp1036:
Ltmp1003:
	.loc	14 0 18
	leaq	-4464(%rbp), %rdi
	.loc	14 41 5
	callq	__ZN4core3ptr37drop_in_place$LT$std..fs..ReadDir$GT$17hbf7fcc77737d4c93E
Ltmp1004:
	jmp	LBB123_70
LBB123_34:
Ltmp1037:
	.loc	14 41 9
	leaq	-4440(%rbp), %rsi
	leaq	-3384(%rbp), %rdi
	movq	%rdi, -4840(%rbp)
	movl	$1056, %edx
	movq	%rdx, -4832(%rbp)
	callq	_memcpy
	movq	-4840(%rbp), %rsi
	movq	-4832(%rbp), %rdx
	leaq	-1272(%rbp), %rdi
	movq	%rdi, -4824(%rbp)
Ltmp1038:
	.loc	14 42 21 is_stmt 1
	callq	_memcpy
	movq	-4824(%rbp), %rsi
Ltmp943:
	leaq	l___unnamed_33(%rip), %rdx
	leaq	-2328(%rbp), %rdi
	callq	__ZN4core6result19Result$LT$T$C$E$GT$6unwrap17ha469f0069ca7793cE
Ltmp944:
	jmp	LBB123_35
LBB123_35:
Ltmp945:
	.loc	14 0 21 is_stmt 0
	leaq	-216(%rbp), %rdi
	leaq	-2328(%rbp), %rsi
Ltmp1039:
	.loc	14 43 20 is_stmt 1
	callq	__ZN3std2fs8DirEntry4path17h7c15b6f24f191af6E
Ltmp946:
	jmp	LBB123_38
Ltmp1040:
LBB123_36:
Ltmp996:
	.loc	14 0 20 is_stmt 0
	leaq	-2328(%rbp), %rdi
	.loc	14 57 5 is_stmt 1
	callq	__ZN4core3ptr38drop_in_place$LT$std..fs..DirEntry$GT$17h8641de91c9412d3dE
Ltmp997:
	jmp	LBB123_30
LBB123_37:
Ltmp995:
	.loc	14 0 5 is_stmt 0
	movq	%rax, %rcx
	movl	%edx, %eax
	movq	%rcx, -16(%rbp)
	movl	%eax, -8(%rbp)
	jmp	LBB123_36
LBB123_38:
Ltmp947:
	leaq	-216(%rbp), %rdi
Ltmp1041:
	.loc	14 44 24 is_stmt 1
	callq	__ZN62_$LT$std..path..PathBuf$u20$as$u20$core..ops..deref..Deref$GT$5deref17h9fbc4b116fd3c92aE
Ltmp948:
	movq	%rdx, -4856(%rbp)
	movq	%rax, -4848(%rbp)
	jmp	LBB123_41
Ltmp1042:
LBB123_39:
Ltmp991:
	.loc	14 0 24 is_stmt 0
	leaq	-216(%rbp), %rdi
	.loc	14 57 5 is_stmt 1
	callq	__ZN4core3ptr39drop_in_place$LT$std..path..PathBuf$GT$17h2192ecb8b325638bE
Ltmp992:
	jmp	LBB123_36
LBB123_40:
Ltmp990:
	.loc	14 0 5 is_stmt 0
	movq	%rax, %rcx
	movl	%edx, %eax
	movq	%rcx, -16(%rbp)
	movl	%eax, -8(%rbp)
	jmp	LBB123_39
LBB123_41:
Ltmp949:
	movq	-4856(%rbp), %rsi
	movq	-4848(%rbp), %rdi
Ltmp1043:
	.loc	14 44 24 is_stmt 1
	callq	__ZN3std4path4Path9file_name17ha38fffa460ddeaadE
Ltmp950:
	movq	%rdx, -4872(%rbp)
	movq	%rax, -4864(%rbp)
	jmp	LBB123_42
LBB123_42:
Ltmp951:
	.loc	14 0 24 is_stmt 0
	movq	-4872(%rbp), %rsi
	movq	-4864(%rbp), %rdi
	.loc	14 44 24
	leaq	l___unnamed_34(%rip), %rdx
	callq	__ZN4core6option15Option$LT$T$GT$6unwrap17h3c2d590fbef6125aE
Ltmp952:
	movq	%rdx, -4888(%rbp)
	movq	%rax, -4880(%rbp)
	jmp	LBB123_43
LBB123_43:
Ltmp953:
	.loc	14 0 24
	movq	-4888(%rbp), %rsi
	movq	-4880(%rbp), %rdi
	.loc	14 44 24
	callq	__ZN3std3ffi6os_str5OsStr6to_str17h05b7a7bb6e5cfe43E
Ltmp954:
	movq	%rdx, -4904(%rbp)
	movq	%rax, -4896(%rbp)
	jmp	LBB123_44
LBB123_44:
Ltmp955:
	.loc	14 0 24
	movq	-4904(%rbp), %rsi
	movq	-4896(%rbp), %rdi
	.loc	14 44 24
	leaq	l___unnamed_35(%rip), %rdx
	callq	__ZN4core6option15Option$LT$T$GT$6unwrap17h95d06ede5780a07aE
Ltmp956:
	movq	%rdx, -4920(%rbp)
	movq	%rax, -4912(%rbp)
	jmp	LBB123_45
LBB123_45:
	.loc	14 0 24
	movq	-4920(%rbp), %rax
	movq	-4912(%rbp), %rcx
	.loc	14 44 24
	movq	%rcx, -192(%rbp)
	movq	%rax, -184(%rbp)
Ltmp957:
	leaq	-216(%rbp), %rdi
Ltmp1044:
	.loc	14 48 12 is_stmt 1
	callq	__ZN62_$LT$std..path..PathBuf$u20$as$u20$core..ops..deref..Deref$GT$5deref17h9fbc4b116fd3c92aE
Ltmp958:
	movq	%rdx, -4936(%rbp)
	movq	%rax, -4928(%rbp)
	jmp	LBB123_46
LBB123_46:
Ltmp959:
	.loc	14 0 12 is_stmt 0
	movq	-4936(%rbp), %rsi
	movq	-4928(%rbp), %rdi
	.loc	14 48 12
	callq	__ZN3std4path4Path6is_dir17h9e3e99776f8ea6b2E
Ltmp960:
	movb	%al, -4937(%rbp)
	jmp	LBB123_47
LBB123_47:
	.loc	14 0 12
	movb	-4937(%rbp), %al
	.loc	14 48 12
	testb	$1, %al
	jne	LBB123_49
	jmp	LBB123_48
LBB123_48:
	movb	$0, -169(%rbp)
	jmp	LBB123_51
LBB123_49:
Ltmp961:
	.loc	14 48 29
	leaq	l___unnamed_36(%rip), %rsi
	leaq	-192(%rbp), %rdi
	callq	__ZN4core3cmp5impls69_$LT$impl$u20$core..cmp..PartialEq$LT$$RF$B$GT$$u20$for$u20$$RF$A$GT$2ne17ha9221531d128a1b4E
Ltmp962:
	movb	%al, -4938(%rbp)
	jmp	LBB123_50
LBB123_50:
	.loc	14 0 29
	movb	-4938(%rbp), %al
	.loc	14 48 12
	andb	$1, %al
	movb	%al, -169(%rbp)
LBB123_51:
	testb	$1, -169(%rbp)
	jne	LBB123_53
Ltmp1045:
LBB123_52:
Ltmp993:
	.loc	14 0 12
	leaq	-216(%rbp), %rdi
	.loc	14 57 5 is_stmt 1
	callq	__ZN4core3ptr39drop_in_place$LT$std..path..PathBuf$GT$17h2192ecb8b325638bE
Ltmp994:
	jmp	LBB123_69
LBB123_53:
Ltmp963:
	.loc	14 0 5 is_stmt 0
	leaq	-216(%rbp), %rdi
Ltmp1046:
	.loc	14 51 28 is_stmt 1
	callq	__ZN62_$LT$std..path..PathBuf$u20$as$u20$core..ops..deref..Deref$GT$5deref17h9fbc4b116fd3c92aE
Ltmp964:
	movq	%rdx, -4960(%rbp)
	movq	%rax, -4952(%rbp)
	jmp	LBB123_54
LBB123_54:
Ltmp965:
	.loc	14 0 28 is_stmt 0
	movq	-4960(%rbp), %rdx
	movq	-4952(%rbp), %rsi
	.loc	14 51 28
	leaq	l___unnamed_37(%rip), %rcx
	leaq	-168(%rbp), %rdi
	movl	$13, %r8d
	callq	__ZN3std4path4Path4join17h0c9fa84c42293178E
Ltmp966:
	jmp	LBB123_55
LBB123_55:
Ltmp967:
	.loc	14 0 28
	leaq	-168(%rbp), %rdi
Ltmp1047:
	.loc	14 52 16 is_stmt 1
	callq	__ZN62_$LT$std..path..PathBuf$u20$as$u20$core..ops..deref..Deref$GT$5deref17h9fbc4b116fd3c92aE
Ltmp968:
	movq	%rdx, -4976(%rbp)
	movq	%rax, -4968(%rbp)
	jmp	LBB123_58
Ltmp1048:
LBB123_56:
Ltmp986:
	.loc	14 0 16 is_stmt 0
	leaq	-168(%rbp), %rdi
	.loc	14 56 9 is_stmt 1
	callq	__ZN4core3ptr39drop_in_place$LT$std..path..PathBuf$GT$17h2192ecb8b325638bE
Ltmp987:
	jmp	LBB123_39
LBB123_57:
Ltmp985:
	.loc	14 0 9 is_stmt 0
	movq	%rax, %rcx
	movl	%edx, %eax
	movq	%rcx, -16(%rbp)
	movl	%eax, -8(%rbp)
	jmp	LBB123_56
LBB123_58:
Ltmp969:
	movq	-4976(%rbp), %rsi
	movq	-4968(%rbp), %rdi
Ltmp1049:
	.loc	14 52 16 is_stmt 1
	callq	__ZN3std4path4Path7is_file17h86a29a859fd60ccfE
Ltmp970:
	movb	%al, -4977(%rbp)
	jmp	LBB123_59
LBB123_59:
	.loc	14 0 16 is_stmt 0
	movb	-4977(%rbp), %al
	.loc	14 52 16
	testb	$1, %al
	jne	LBB123_61
	jmp	LBB123_60
Ltmp1050:
LBB123_60:
Ltmp988:
	.loc	14 0 16
	leaq	-168(%rbp), %rdi
	.loc	14 56 9 is_stmt 1
	callq	__ZN4core3ptr39drop_in_place$LT$std..path..PathBuf$GT$17h2192ecb8b325638bE
Ltmp989:
	jmp	LBB123_52
LBB123_61:
Ltmp971:
	.loc	14 0 9 is_stmt 0
	leaq	-168(%rbp), %rdi
Ltmp1051:
	.loc	14 54 59 is_stmt 1
	callq	__ZN62_$LT$std..path..PathBuf$u20$as$u20$core..ops..deref..Deref$GT$5deref17h9fbc4b116fd3c92aE
Ltmp972:
	movq	%rdx, -5000(%rbp)
	movq	%rax, -4992(%rbp)
	jmp	LBB123_62
LBB123_62:
Ltmp973:
	.loc	14 0 59 is_stmt 0
	movq	-5000(%rbp), %rsi
	movq	-4992(%rbp), %rdi
	.loc	14 54 59
	callq	__ZN3std4path4Path6to_str17h71f8cf9075006793E
Ltmp974:
	movq	%rdx, -5016(%rbp)
	movq	%rax, -5008(%rbp)
	jmp	LBB123_63
LBB123_63:
Ltmp975:
	.loc	14 0 59
	movq	-5016(%rbp), %rsi
	movq	-5008(%rbp), %rdi
	.loc	14 54 59
	leaq	l___unnamed_38(%rip), %rdx
	callq	__ZN4core6option15Option$LT$T$GT$6unwrap17h95d06ede5780a07aE
Ltmp976:
	movq	%rdx, -5032(%rbp)
	movq	%rax, -5024(%rbp)
	jmp	LBB123_64
LBB123_64:
	.loc	14 0 59
	movq	-5032(%rbp), %rax
	movq	-5024(%rbp), %rcx
	.loc	14 54 59
	movq	%rcx, -80(%rbp)
	movq	%rax, -72(%rbp)
Ltmp977:
	leaq	-80(%rbp), %rdi
	.loc	14 54 17
	callq	__ZN4core3fmt10ArgumentV19new_debug17hc2eb6352157515c6E
Ltmp978:
	movq	%rdx, -5048(%rbp)
	movq	%rax, -5040(%rbp)
	jmp	LBB123_65
LBB123_65:
	.loc	14 0 17
	movq	-5048(%rbp), %rax
	movq	-5040(%rbp), %rcx
	.loc	14 54 17
	movq	%rcx, -96(%rbp)
	movq	%rax, -88(%rbp)
Ltmp979:
	leaq	l___unnamed_39(%rip), %rsi
	leaq	-144(%rbp), %rdi
	movl	$2, %edx
	leaq	-96(%rbp), %rcx
	movl	$1, %r8d
	callq	__ZN4core3fmt9Arguments6new_v117h8abefee7c24ee4cfE
Ltmp980:
	jmp	LBB123_66
LBB123_66:
Ltmp981:
	.loc	14 0 17
	leaq	-4644(%rbp), %rdi
	leaq	-144(%rbp), %rsi
	.loc	14 54 17
	callq	__ZN3std2io5Write9write_fmt17h60618344047b1912E
Ltmp982:
	movq	%rax, -5056(%rbp)
	jmp	LBB123_67
LBB123_67:
Ltmp983:
	.loc	14 0 17
	movq	-5056(%rbp), %rdi
	.loc	14 54 17
	leaq	l___unnamed_40(%rip), %rsi
	callq	__ZN4core6result19Result$LT$T$C$E$GT$6unwrap17hd899382417040825E
Ltmp984:
	jmp	LBB123_68
LBB123_68:
	jmp	LBB123_60
Ltmp1052:
LBB123_69:
Ltmp998:
	.loc	14 0 17
	leaq	-2328(%rbp), %rdi
	.loc	14 57 5 is_stmt 1
	callq	__ZN4core3ptr38drop_in_place$LT$std..fs..DirEntry$GT$17h8641de91c9412d3dE
Ltmp999:
	jmp	LBB123_29
Ltmp1053:
LBB123_70:
Ltmp1005:
	.loc	14 60 5
	leaq	l___unnamed_41(%rip), %rsi
	leaq	l___unnamed_13(%rip), %rcx
	xorl	%eax, %eax
	movl	%eax, %r8d
	leaq	-64(%rbp), %rdi
	movl	$1, %edx
	callq	__ZN4core3fmt9Arguments6new_v117h8abefee7c24ee4cfE
Ltmp1006:
	jmp	LBB123_71
LBB123_71:
Ltmp1007:
	.loc	14 0 5 is_stmt 0
	leaq	-4644(%rbp), %rdi
	leaq	-64(%rbp), %rsi
	.loc	14 60 5
	callq	__ZN3std2io5Write9write_fmt17h60618344047b1912E
Ltmp1008:
	movq	%rax, -5064(%rbp)
	jmp	LBB123_72
LBB123_72:
Ltmp1009:
	.loc	14 0 5
	movq	-5064(%rbp), %rdi
	.loc	14 60 5
	leaq	l___unnamed_42(%rip), %rsi
	callq	__ZN4core6result19Result$LT$T$C$E$GT$6unwrap17hd899382417040825E
Ltmp1010:
	jmp	LBB123_73
Ltmp1054:
LBB123_73:
Ltmp1014:
	.loc	14 0 5
	leaq	-4600(%rbp), %rdi
	.loc	14 61 1 is_stmt 1
	callq	__ZN4core3ptr39drop_in_place$LT$std..path..PathBuf$GT$17h2192ecb8b325638bE
Ltmp1015:
	jmp	LBB123_74
Ltmp1055:
LBB123_74:
Ltmp1019:
	.loc	14 0 1 is_stmt 0
	leaq	-4644(%rbp), %rdi
	.loc	14 61 1
	callq	__ZN4core3ptr34drop_in_place$LT$std..fs..File$GT$17h1eeec8c0c11b715bE
Ltmp1020:
	jmp	LBB123_75
Ltmp1056:
LBB123_75:
	.loc	14 61 1
	leaq	-4704(%rbp), %rdi
	callq	__ZN4core3ptr42drop_in_place$LT$alloc..string..String$GT$17h558212a3d815ad24E
	.loc	14 61 2
	addq	$5072, %rsp
	popq	%rbp
	retq
LBB123_76:
	.loc	14 23 1 is_stmt 1
	movq	-16(%rbp), %rdi
	callq	__Unwind_Resume
Ltmp1057:
Lfunc_end123:
	.cfi_endproc
	.section	__TEXT,__gcc_except_tab
	.p2align	2
GCC_except_table123:
Lexception24:
	.byte	255
	.byte	255
	.byte	1
	.uleb128 Lcst_end24-Lcst_begin24
Lcst_begin24:
	.uleb128 Lfunc_begin123-Lfunc_begin123
	.uleb128 Ltmp901-Lfunc_begin123
	.byte	0
	.byte	0
	.uleb128 Ltmp901-Lfunc_begin123
	.uleb128 Ltmp902-Ltmp901
	.uleb128 Ltmp1021-Lfunc_begin123
	.byte	0
	.uleb128 Ltmp1022-Lfunc_begin123
	.uleb128 Ltmp1023-Ltmp1022
	.uleb128 Ltmp1024-Lfunc_begin123
	.byte	0
	.uleb128 Ltmp903-Lfunc_begin123
	.uleb128 Ltmp904-Ltmp903
	.uleb128 Ltmp1021-Lfunc_begin123
	.byte	0
	.uleb128 Ltmp905-Lfunc_begin123
	.uleb128 Ltmp906-Ltmp905
	.uleb128 Ltmp909-Lfunc_begin123
	.byte	0
	.uleb128 Ltmp910-Lfunc_begin123
	.uleb128 Ltmp911-Ltmp910
	.uleb128 Ltmp1024-Lfunc_begin123
	.byte	0
	.uleb128 Ltmp907-Lfunc_begin123
	.uleb128 Ltmp908-Ltmp907
	.uleb128 Ltmp909-Lfunc_begin123
	.byte	0
	.uleb128 Ltmp912-Lfunc_begin123
	.uleb128 Ltmp913-Ltmp912
	.uleb128 Ltmp1016-Lfunc_begin123
	.byte	0
	.uleb128 Ltmp1017-Lfunc_begin123
	.uleb128 Ltmp1018-Ltmp1017
	.uleb128 Ltmp1024-Lfunc_begin123
	.byte	0
	.uleb128 Ltmp914-Lfunc_begin123
	.uleb128 Ltmp917-Ltmp914
	.uleb128 Ltmp1016-Lfunc_begin123
	.byte	0
	.uleb128 Ltmp918-Lfunc_begin123
	.uleb128 Ltmp919-Ltmp918
	.uleb128 Ltmp922-Lfunc_begin123
	.byte	0
	.uleb128 Ltmp923-Lfunc_begin123
	.uleb128 Ltmp924-Ltmp923
	.uleb128 Ltmp1024-Lfunc_begin123
	.byte	0
	.uleb128 Ltmp920-Lfunc_begin123
	.uleb128 Ltmp921-Ltmp920
	.uleb128 Ltmp922-Lfunc_begin123
	.byte	0
	.uleb128 Ltmp925-Lfunc_begin123
	.uleb128 Ltmp926-Ltmp925
	.uleb128 Ltmp1011-Lfunc_begin123
	.byte	0
	.uleb128 Ltmp1012-Lfunc_begin123
	.uleb128 Ltmp1013-Ltmp1012
	.uleb128 Ltmp1024-Lfunc_begin123
	.byte	0
	.uleb128 Ltmp927-Lfunc_begin123
	.uleb128 Ltmp940-Ltmp927
	.uleb128 Ltmp1011-Lfunc_begin123
	.byte	0
	.uleb128 Ltmp941-Lfunc_begin123
	.uleb128 Ltmp942-Ltmp941
	.uleb128 Ltmp1000-Lfunc_begin123
	.byte	0
	.uleb128 Ltmp1001-Lfunc_begin123
	.uleb128 Ltmp1002-Ltmp1001
	.uleb128 Ltmp1024-Lfunc_begin123
	.byte	0
	.uleb128 Ltmp1003-Lfunc_begin123
	.uleb128 Ltmp1004-Ltmp1003
	.uleb128 Ltmp1011-Lfunc_begin123
	.byte	0
	.uleb128 Ltmp1004-Lfunc_begin123
	.uleb128 Ltmp943-Ltmp1004
	.byte	0
	.byte	0
	.uleb128 Ltmp943-Lfunc_begin123
	.uleb128 Ltmp944-Ltmp943
	.uleb128 Ltmp1000-Lfunc_begin123
	.byte	0
	.uleb128 Ltmp945-Lfunc_begin123
	.uleb128 Ltmp946-Ltmp945
	.uleb128 Ltmp995-Lfunc_begin123
	.byte	0
	.uleb128 Ltmp996-Lfunc_begin123
	.uleb128 Ltmp997-Ltmp996
	.uleb128 Ltmp1024-Lfunc_begin123
	.byte	0
	.uleb128 Ltmp947-Lfunc_begin123
	.uleb128 Ltmp948-Ltmp947
	.uleb128 Ltmp990-Lfunc_begin123
	.byte	0
	.uleb128 Ltmp991-Lfunc_begin123
	.uleb128 Ltmp992-Ltmp991
	.uleb128 Ltmp1024-Lfunc_begin123
	.byte	0
	.uleb128 Ltmp949-Lfunc_begin123
	.uleb128 Ltmp962-Ltmp949
	.uleb128 Ltmp990-Lfunc_begin123
	.byte	0
	.uleb128 Ltmp993-Lfunc_begin123
	.uleb128 Ltmp994-Ltmp993
	.uleb128 Ltmp995-Lfunc_begin123
	.byte	0
	.uleb128 Ltmp963-Lfunc_begin123
	.uleb128 Ltmp966-Ltmp963
	.uleb128 Ltmp990-Lfunc_begin123
	.byte	0
	.uleb128 Ltmp967-Lfunc_begin123
	.uleb128 Ltmp968-Ltmp967
	.uleb128 Ltmp985-Lfunc_begin123
	.byte	0
	.uleb128 Ltmp986-Lfunc_begin123
	.uleb128 Ltmp987-Ltmp986
	.uleb128 Ltmp1024-Lfunc_begin123
	.byte	0
	.uleb128 Ltmp969-Lfunc_begin123
	.uleb128 Ltmp970-Ltmp969
	.uleb128 Ltmp985-Lfunc_begin123
	.byte	0
	.uleb128 Ltmp988-Lfunc_begin123
	.uleb128 Ltmp989-Ltmp988
	.uleb128 Ltmp990-Lfunc_begin123
	.byte	0
	.uleb128 Ltmp971-Lfunc_begin123
	.uleb128 Ltmp984-Ltmp971
	.uleb128 Ltmp985-Lfunc_begin123
	.byte	0
	.uleb128 Ltmp998-Lfunc_begin123
	.uleb128 Ltmp999-Ltmp998
	.uleb128 Ltmp1000-Lfunc_begin123
	.byte	0
	.uleb128 Ltmp1005-Lfunc_begin123
	.uleb128 Ltmp1010-Ltmp1005
	.uleb128 Ltmp1011-Lfunc_begin123
	.byte	0
	.uleb128 Ltmp1014-Lfunc_begin123
	.uleb128 Ltmp1015-Ltmp1014
	.uleb128 Ltmp1016-Lfunc_begin123
	.byte	0
	.uleb128 Ltmp1019-Lfunc_begin123
	.uleb128 Ltmp1020-Ltmp1019
	.uleb128 Ltmp1021-Lfunc_begin123
	.byte	0
	.uleb128 Ltmp1020-Lfunc_begin123
	.uleb128 Lfunc_end123-Ltmp1020
	.byte	0
	.byte	0
Lcst_end24:
	.p2align	2

	.section	__TEXT,__text,regular,pure_instructions
	.globl	_main
	.p2align	4, 0x90
_main:
Lfunc_begin124:
	.cfi_startproc
	pushq	%rbp
	.cfi_def_cfa_offset 16
	.cfi_offset %rbp, -16
	movq	%rsp, %rbp
	.cfi_def_cfa_register %rbp
	movq	%rsi, %rdx
	movslq	%edi, %rsi
	leaq	__ZN18build_script_build4main17h3f0f3da9ff8c0f9fE(%rip), %rdi
	xorl	%ecx, %ecx
	callq	__ZN3std2rt10lang_start17ha32cd6fe45470fdbE
	popq	%rbp
	retq
Lfunc_end124:
	.cfi_endproc

	.section	__TEXT,__const
l___unnamed_6:
	.byte	35

l___unnamed_43:
	.ascii	"/rustc/2c8cc343237b8f7d5a3c3703e3a87f2eb2c54a74/library/std/src/io/mod.rs"

	.section	__DATA,__const
	.p2align	3
l___unnamed_8:
	.quad	l___unnamed_43
	.asciz	"I\000\000\000\000\000\000\000\r\006\000\000!\000\000"

	.section	__TEXT,__const
l___unnamed_44:
	.ascii	"failed to write whole buffer"

	.section	__DATA,__const
	.p2align	3
l___unnamed_7:
	.quad	l___unnamed_44
	.ascii	"\034\000\000\000\000\000\000\000\027"
	.space	7

	.p2align	3
l___unnamed_1:
	.quad	__ZN4core3ptr76drop_in_place$LT$std..io..Write..write_fmt..Adapter$LT$std..fs..File$GT$$GT$17h793233edcab5b137E
	.asciz	"\020\000\000\000\000\000\000\000\b\000\000\000\000\000\000"
	.quad	__ZN80_$LT$std..io..Write..write_fmt..Adapter$LT$T$GT$$u20$as$u20$core..fmt..Write$GT$9write_str17h5a52513601f1e1deE
	.quad	__ZN4core3fmt5Write10write_char17h7085bfbd9d23b6e9E
	.quad	__ZN4core3fmt5Write9write_fmt17h5adf9b1b7d820dceE

	.section	__TEXT,__const
l___unnamed_45:
	.ascii	"formatter error"

	.section	__DATA,__const
	.p2align	3
l___unnamed_9:
	.quad	l___unnamed_45
	.ascii	"\017\000\000\000\000\000\000\000("
	.space	7

	.section	__TEXT,__const
l___unnamed_10:
	.ascii	"internal error: entered unreachable code"

l___unnamed_46:
	.ascii	"/rustc/2c8cc343237b8f7d5a3c3703e3a87f2eb2c54a74/library/std/src/io/error/repr_bitpacked.rs"

	.section	__DATA,__const
	.p2align	3
l___unnamed_11:
	.quad	l___unnamed_46
	.asciz	"Z\000\000\000\000\000\000\000\030\001\000\000\r\000\000"

	.p2align	3
l___unnamed_2:
	.quad	__ZN4core3ptr85drop_in_place$LT$std..rt..lang_start$LT$$LP$$RP$$GT$..$u7b$$u7b$closure$u7d$$u7d$$GT$17h3e4c59dee5df0ae8E
	.asciz	"\b\000\000\000\000\000\000\000\b\000\000\000\000\000\000"
	.quad	__ZN4core3ops8function6FnOnce40call_once$u7b$$u7b$vtable.shim$u7d$$u7d$17h15dd4df7966eefc7E
	.quad	__ZN3std2rt10lang_start28_$u7b$$u7b$closure$u7d$$u7d$17h32837193c9cd9668E
	.quad	__ZN3std2rt10lang_start28_$u7b$$u7b$closure$u7d$$u7d$17h32837193c9cd9668E

	.p2align	3
l___unnamed_3:
	.quad	__ZN4core3ptr88drop_in_place$LT$$RF$mut$u20$std..io..Write..write_fmt..Adapter$LT$std..fs..File$GT$$GT$17h6b8006d0d3b353dfE
	.asciz	"\b\000\000\000\000\000\000\000\b\000\000\000\000\000\000"
	.quad	__ZN50_$LT$$RF$mut$u20$W$u20$as$u20$core..fmt..Write$GT$9write_str17h730734f01a0a207eE
	.quad	__ZN50_$LT$$RF$mut$u20$W$u20$as$u20$core..fmt..Write$GT$10write_char17hc744e94155b3f5dfE
	.quad	__ZN50_$LT$$RF$mut$u20$W$u20$as$u20$core..fmt..Write$GT$9write_fmt17hca06f3951dac845cE

	.section	__TEXT,__const
l___unnamed_47:
	.ascii	"invalid args"

	.section	__DATA,__const
	.p2align	3
l___unnamed_12:
	.quad	l___unnamed_47
	.asciz	"\f\000\000\000\000\000\000"

	.section	__TEXT,__const
	.p2align	3
l___unnamed_13:
	.byte	0

l___unnamed_48:
	.ascii	"/rustc/2c8cc343237b8f7d5a3c3703e3a87f2eb2c54a74/library/core/src/fmt/mod.rs"

	.section	__DATA,__const
	.p2align	3
l___unnamed_14:
	.quad	l___unnamed_48
	.asciz	"K\000\000\000\000\000\000\000\221\001\000\000\r\000\000"

	.section	__TEXT,__const
l___unnamed_49:
	.ascii	"/rustc/2c8cc343237b8f7d5a3c3703e3a87f2eb2c54a74/library/core/src/char/methods.rs"

	.section	__DATA,__const
	.p2align	3
l___unnamed_17:
	.quad	l___unnamed_49
	.asciz	"P\000\000\000\000\000\000\000\335\006\000\000\n\000\000"

	.section	__TEXT,__const
l___unnamed_50:
	.ascii	"encode_utf8: need "

l___unnamed_51:
	.ascii	" bytes to encode U+"

l___unnamed_52:
	.ascii	", but the buffer has "

	.section	__DATA,__const
	.p2align	3
l___unnamed_15:
	.quad	l___unnamed_50
	.asciz	"\022\000\000\000\000\000\000"
	.quad	l___unnamed_51
	.asciz	"\023\000\000\000\000\000\000"
	.quad	l___unnamed_52
	.asciz	"\025\000\000\000\000\000\000"

	.p2align	3
l___unnamed_16:
	.quad	l___unnamed_49
	.asciz	"P\000\000\000\000\000\000\000\326\006\000\000\016\000\000"

	.section	__TEXT,__const
l___unnamed_53:
	.ascii	"there is no such thing as a relaxed fence"

	.section	__DATA,__const
	.p2align	3
l___unnamed_18:
	.quad	l___unnamed_53
	.asciz	")\000\000\000\000\000\000"

	.section	__TEXT,__const
l___unnamed_54:
	.ascii	"/rustc/2c8cc343237b8f7d5a3c3703e3a87f2eb2c54a74/library/core/src/sync/atomic.rs"

	.section	__DATA,__const
	.p2align	3
l___unnamed_19:
	.quad	l___unnamed_54
	.asciz	"O\000\000\000\000\000\000\000*\r\000\000\030\000\000"

	.section	__TEXT,__const
l___unnamed_55:
	.ascii	"/rustc/2c8cc343237b8f7d5a3c3703e3a87f2eb2c54a74/library/core/src/alloc/layout.rs"

	.section	__DATA,__const
	.p2align	3
l___unnamed_20:
	.quad	l___unnamed_55
	.asciz	"P\000\000\000\000\000\000\000\304\001\000\000)\000\000"

	.section	__TEXT,__const
	.p2align	4
_str.0:
	.ascii	"attempt to divide by zero"

l___unnamed_21:
	.ascii	"called `Option::unwrap()` on a `None` value"

l___unnamed_22:
	.ascii	"called `Result::unwrap()` on an `Err` value"

	.section	__DATA,__const
	.p2align	3
l___unnamed_4:
	.quad	__ZN4core3ptr42drop_in_place$LT$std..io..error..Error$GT$17h6fd4e1b7df689ae6E
	.asciz	"\b\000\000\000\000\000\000\000\b\000\000\000\000\000\000"
	.quad	__ZN58_$LT$std..io..error..Error$u20$as$u20$core..fmt..Debug$GT$3fmt17h0f690fff27c65905E

	.p2align	3
l___unnamed_5:
	.quad	__ZN4core3ptr39drop_in_place$LT$std..env..VarError$GT$17h7ef54b88ba639cf7E
	.asciz	"\030\000\000\000\000\000\000\000\b\000\000\000\000\000\000"
	.quad	__ZN55_$LT$std..env..VarError$u20$as$u20$core..fmt..Debug$GT$3fmt17hca5f9b8668ac52cdE

	.section	__TEXT,__const
l___unnamed_56:
	.ascii	"/rustc/2c8cc343237b8f7d5a3c3703e3a87f2eb2c54a74/library/alloc/src/raw_vec.rs"

	.section	__DATA,__const
	.p2align	3
l___unnamed_23:
	.quad	l___unnamed_56
	.asciz	"L\000\000\000\000\000\000\000\367\000\000\000;\000\000"

	.section	__TEXT,__const
l___unnamed_24:
	.ascii	"OUT_DIR"

l___unnamed_57:
	.ascii	"/Users/natalie/.cargo/registry/src/github.com-1ecc6299db9ec823/khronos_api-3.1.0/build.rs"

	.section	__DATA,__const
	.p2align	3
l___unnamed_25:
	.quad	l___unnamed_57
	.asciz	"Y\000\000\000\000\000\000\000\031\000\000\000$\000\000"

	.section	__TEXT,__const
l___unnamed_26:
	.ascii	"webgl_exts.rs"

	.section	__DATA,__const
	.p2align	3
l___unnamed_27:
	.quad	l___unnamed_57
	.asciz	"Y\000\000\000\000\000\000\000\032\000\000\000J\000\000"

	.p2align	3
l___unnamed_28:
	.quad	l___unnamed_57
	.asciz	"Y\000\000\000\000\000\000\000 \000\000\000#\000\000"

	.section	__TEXT,__const
l___unnamed_29:
	.ascii	"api_webgl/extensions"

l___unnamed_58:
	.ascii	"&[\n"

	.section	__DATA,__const
	.p2align	3
l___unnamed_30:
	.quad	l___unnamed_58
	.asciz	"\003\000\000\000\000\000\000"

	.p2align	3
l___unnamed_31:
	.quad	l___unnamed_57
	.asciz	"Y\000\000\000\000\000\000\000$\000\000\000\032\000\000"

	.p2align	3
l___unnamed_32:
	.quad	l___unnamed_57
	.asciz	"Y\000\000\000\000\000\000\000)\000\000\000\"\000\000"

	.p2align	3
l___unnamed_33:
	.quad	l___unnamed_57
	.asciz	"Y\000\000\000\000\000\000\000*\000\000\000\033\000\000"

	.p2align	3
l___unnamed_34:
	.quad	l___unnamed_57
	.asciz	"Y\000\000\000\000\000\000\000,\000\000\000)\000\000"

	.p2align	3
l___unnamed_35:
	.quad	l___unnamed_57
	.asciz	"Y\000\000\000\000\000\000\000,\000\000\000;\000\000"

	.section	__TEXT,__literal8,8byte_literals
L___unnamed_59:
	.ascii	"template"

	.section	__DATA,__const
	.p2align	3
l___unnamed_36:
	.quad	L___unnamed_59
	.asciz	"\b\000\000\000\000\000\000"

	.section	__TEXT,__const
l___unnamed_37:
	.ascii	"extension.xml"

l___unnamed_60:
	.ascii	"&*include_bytes!("

l___unnamed_61:
	.ascii	"),\n"

	.section	__DATA,__const
	.p2align	3
l___unnamed_39:
	.quad	l___unnamed_60
	.asciz	"\021\000\000\000\000\000\000"
	.quad	l___unnamed_61
	.asciz	"\003\000\000\000\000\000\000"

	.p2align	3
l___unnamed_38:
	.quad	l___unnamed_57
	.asciz	"Y\000\000\000\000\000\000\0006\000\000\000M\000\000"

	.p2align	3
l___unnamed_40:
	.quad	l___unnamed_57
	.asciz	"Y\000\000\000\000\000\000\0006\000\000\000W\000\000"

	.section	__TEXT,__const
l___unnamed_62:
	.ascii	"]\n"

	.section	__DATA,__const
	.p2align	3
l___unnamed_41:
	.quad	l___unnamed_62
	.asciz	"\002\000\000\000\000\000\000"

	.p2align	3
l___unnamed_42:
	.quad	l___unnamed_57
	.asciz	"Y\000\000\000\000\000\000\000<\000\000\000\031\000\000"

	.section	__DATA,__const
Lsec_end0:
	.section	__TEXT,__text,regular,pure_instructions
Lsec_end1: