	.section	__TEXT,__text,regular,pure_instructions
	.macosx_version_min 10, 7
	.p2align	4, 0x90
__ZN106_$LT$core..ops..range..Range$LT$usize$GT$$u20$as$u20$core..slice..index..SliceIndex$LT$$u5b$T$u5d$$GT$$GT$13get_unchecked17h0235503b7417d843E:
Lfunc_begin0:
	.file	1 "/rustc/2c8cc343237b8f7d5a3c3703e3a87f2eb2c54a74/library/core/src/slice" "index.rs"
	.loc	1 373 0
	.cfi_startproc
	pushq	%rbp
	.cfi_def_cfa_offset 16
	.cfi_offset %rbp, -16
	movq	%rsp, %rbp
	.cfi_def_cfa_register %rbp
	subq	$160, %rsp
	movq	%rdi, -128(%rbp)
	movq	%rsi, -120(%rbp)
	movq	%rdx, -112(%rbp)
	movq	%rcx, -104(%rbp)
Ltmp0:
	.loc	1 386 39 prologue_end
	movq	%rdx, -96(%rbp)
	movq	%rcx, -88(%rbp)
Ltmp1:
	.file	2 "/rustc/2c8cc343237b8f7d5a3c3703e3a87f2eb2c54a74/library/core/src/ptr" "const_ptr.rs"
	.loc	2 1650 9
	movq	%rdx, -80(%rbp)
Ltmp2:
	.loc	1 386 58
	movq	%rdi, -72(%rbp)
Ltmp3:
	.loc	2 932 18
	movq	%rdx, -64(%rbp)
	.loc	2 932 30 is_stmt 0
	movq	%rdi, -56(%rbp)
Ltmp4:
	.loc	2 473 18 is_stmt 1
	addq	%rdi, %rdx
	movq	%rdx, -48(%rbp)
	movq	-48(%rbp), %rax
	movq	%rax, -40(%rbp)
Ltmp5:
	.loc	1 386 71
	subq	%rdi, %rsi
	movq	%rsi, -32(%rbp)
Ltmp6:
	.file	3 "/rustc/2c8cc343237b8f7d5a3c3703e3a87f2eb2c54a74/library/core/src/ptr" "mod.rs"
	.loc	3 734 20
	movq	%rax, -24(%rbp)
Ltmp7:
	.loc	2 61 9
	movq	%rax, -16(%rbp)
Ltmp8:
	.loc	3 734 33
	movq	%rsi, -8(%rbp)
Ltmp9:
	.file	4 "/rustc/2c8cc343237b8f7d5a3c3703e3a87f2eb2c54a74/library/core/src/ptr" "metadata.rs"
	.loc	4 118 36
	movq	%rax, -144(%rbp)
	movq	%rsi, -136(%rbp)
	.loc	4 118 14 is_stmt 0
	movq	-144(%rbp), %rcx
	movq	-136(%rbp), %rax
	movq	%rcx, -160(%rbp)
	movq	%rax, -152(%rbp)
	movq	-160(%rbp), %rax
	movq	-152(%rbp), %rdx
Ltmp10:
	.loc	1 388 6 is_stmt 1
	addq	$160, %rsp
	popq	%rbp
	retq
Ltmp11:
Lfunc_end0:
	.cfi_endproc

	.p2align	4, 0x90
__ZN106_$LT$core..ops..range..Range$LT$usize$GT$$u20$as$u20$core..slice..index..SliceIndex$LT$$u5b$T$u5d$$GT$$GT$17get_unchecked_mut17hca5eb8002c85179fE:
Lfunc_begin1:
	.loc	1 391 0
	.cfi_startproc
	pushq	%rbp
	.cfi_def_cfa_offset 16
	.cfi_offset %rbp, -16
	movq	%rsp, %rbp
	.cfi_def_cfa_register %rbp
	subq	$160, %rsp
	movq	%rdi, -128(%rbp)
	movq	%rsi, -120(%rbp)
	movq	%rdx, -112(%rbp)
	movq	%rcx, -104(%rbp)
Ltmp12:
	.loc	1 400 43 prologue_end
	movq	%rdx, -96(%rbp)
	movq	%rcx, -88(%rbp)
Ltmp13:
	.file	5 "/rustc/2c8cc343237b8f7d5a3c3703e3a87f2eb2c54a74/library/core/src/ptr" "mut_ptr.rs"
	.loc	5 2037 9
	movq	%rdx, -80(%rbp)
Ltmp14:
	.loc	1 400 66
	movq	%rdi, -72(%rbp)
Ltmp15:
	.loc	5 1034 18
	movq	%rdx, -64(%rbp)
	.loc	5 1034 30 is_stmt 0
	movq	%rdi, -56(%rbp)
Ltmp16:
	.loc	5 487 18 is_stmt 1
	addq	%rdi, %rdx
	movq	%rdx, -48(%rbp)
	movq	-48(%rbp), %rax
	movq	%rax, -40(%rbp)
Ltmp17:
	.loc	1 400 79
	subq	%rdi, %rsi
	movq	%rsi, -32(%rbp)
Ltmp18:
	.loc	3 766 24
	movq	%rax, -24(%rbp)
Ltmp19:
	.loc	5 60 9
	movq	%rax, -16(%rbp)
Ltmp20:
	.loc	3 766 37
	movq	%rsi, -8(%rbp)
Ltmp21:
	.loc	4 135 36
	movq	%rax, -144(%rbp)
	movq	%rsi, -136(%rbp)
	.loc	4 135 14 is_stmt 0
	movq	-144(%rbp), %rcx
	movq	-136(%rbp), %rax
	movq	%rcx, -160(%rbp)
	movq	%rax, -152(%rbp)
	movq	-160(%rbp), %rax
	movq	-152(%rbp), %rdx
Ltmp22:
	.loc	1 402 6 is_stmt 1
	addq	$160, %rsp
	popq	%rbp
	retq
Ltmp23:
Lfunc_end1:
	.cfi_endproc

	.p2align	4, 0x90
__ZN106_$LT$core..ops..range..Range$LT$usize$GT$$u20$as$u20$core..slice..index..SliceIndex$LT$$u5b$T$u5d$$GT$$GT$3get17hba9bdd8c1b6c08fdE:
Lfunc_begin2:
	.loc	1 353 0
	.cfi_startproc
	pushq	%rbp
	.cfi_def_cfa_offset 16
	.cfi_offset %rbp, -16
	movq	%rsp, %rbp
	.cfi_def_cfa_register %rbp
	subq	$96, %rsp
	movq	%rdi, -88(%rbp)
	movq	%rsi, -80(%rbp)
	movq	%rdx, -72(%rbp)
	movq	%rcx, -64(%rbp)
	movq	%rdi, -32(%rbp)
	movq	%rsi, -24(%rbp)
	movq	%rdx, -16(%rbp)
	movq	%rcx, -8(%rbp)
Ltmp24:
	.loc	1 354 12 prologue_end
	cmpq	%rsi, %rdi
	ja	LBB2_2
	.loc	1 0 12 is_stmt 0
	movq	-80(%rbp), %rax
	movq	-64(%rbp), %rcx
	.loc	1 354 37
	cmpq	%rcx, %rax
	seta	%al
	.loc	1 354 12
	andb	$1, %al
	movb	%al, -33(%rbp)
	jmp	LBB2_3
LBB2_2:
	movb	$1, -33(%rbp)
LBB2_3:
	testb	$1, -33(%rbp)
	jne	LBB2_5
	.loc	1 0 12
	movq	-64(%rbp), %rcx
	movq	-72(%rbp), %rdx
	movq	-80(%rbp), %rsi
	movq	-88(%rbp), %rdi
	.loc	1 358 29 is_stmt 1
	callq	__ZN106_$LT$core..ops..range..Range$LT$usize$GT$$u20$as$u20$core..slice..index..SliceIndex$LT$$u5b$T$u5d$$GT$$GT$13get_unchecked17h0235503b7417d843E
	.loc	1 358 22 is_stmt 0
	movq	%rax, -56(%rbp)
	movq	%rdx, -48(%rbp)
	.loc	1 354 9 is_stmt 1
	jmp	LBB2_6
LBB2_5:
	.loc	1 355 13
	movq	$0, -56(%rbp)
LBB2_6:
	.loc	1 360 6
	movq	-56(%rbp), %rax
	movq	-48(%rbp), %rdx
	addq	$96, %rsp
	popq	%rbp
	retq
Ltmp25:
Lfunc_end2:
	.cfi_endproc

	.p2align	4, 0x90
__ZN106_$LT$core..ops..range..Range$LT$usize$GT$$u20$as$u20$core..slice..index..SliceIndex$LT$$u5b$T$u5d$$GT$$GT$5index17h6167e9bbe578b354E:
Lfunc_begin3:
	.loc	1 405 0
	.cfi_startproc
	pushq	%rbp
	.cfi_def_cfa_offset 16
	.cfi_offset %rbp, -16
	movq	%rsp, %rbp
	.cfi_def_cfa_register %rbp
	subq	$80, %rsp
	movq	%rdi, -72(%rbp)
	movq	%rsi, -64(%rbp)
	movq	%rdx, -56(%rbp)
	movq	%rcx, -48(%rbp)
	movq	%r8, -40(%rbp)
	movq	%rdi, -32(%rbp)
	movq	%rsi, -24(%rbp)
	movq	%rdx, -16(%rbp)
	movq	%rcx, -8(%rbp)
Ltmp26:
	.loc	1 406 12 prologue_end
	cmpq	%rsi, %rdi
	ja	LBB3_2
	.loc	1 0 12 is_stmt 0
	movq	-64(%rbp), %rax
	movq	-48(%rbp), %rcx
	.loc	1 408 19 is_stmt 1
	cmpq	%rcx, %rax
	ja	LBB3_4
	jmp	LBB3_3
LBB3_2:
	.loc	1 0 19 is_stmt 0
	movq	-40(%rbp), %rdx
	movq	-64(%rbp), %rsi
	movq	-72(%rbp), %rdi
	.loc	1 407 13 is_stmt 1
	callq	__ZN4core5slice5index22slice_index_order_fail17h0d8f800a07d5f26eE
LBB3_3:
	.loc	1 0 13 is_stmt 0
	movq	-48(%rbp), %rcx
	movq	-56(%rbp), %rdx
	movq	-64(%rbp), %rsi
	movq	-72(%rbp), %rdi
	.loc	1 412 20 is_stmt 1
	callq	__ZN106_$LT$core..ops..range..Range$LT$usize$GT$$u20$as$u20$core..slice..index..SliceIndex$LT$$u5b$T$u5d$$GT$$GT$13get_unchecked17h0235503b7417d843E
	.loc	1 413 6
	addq	$80, %rsp
	popq	%rbp
	retq
LBB3_4:
	.loc	1 0 6 is_stmt 0
	movq	-40(%rbp), %rdx
	movq	-48(%rbp), %rsi
	movq	-64(%rbp), %rdi
	.loc	1 409 13 is_stmt 1
	callq	__ZN4core5slice5index24slice_end_index_len_fail17hc921cb2f1513645aE
Ltmp27:
Lfunc_end3:
	.cfi_endproc

	.p2align	4, 0x90
__ZN106_$LT$core..ops..range..Range$LT$usize$GT$$u20$as$u20$core..slice..index..SliceIndex$LT$$u5b$T$u5d$$GT$$GT$9index_mut17hf2fa6db834403569E:
Lfunc_begin4:
	.loc	1 416 0
	.cfi_startproc
	pushq	%rbp
	.cfi_def_cfa_offset 16
	.cfi_offset %rbp, -16
	movq	%rsp, %rbp
	.cfi_def_cfa_register %rbp
	subq	$80, %rsp
	movq	%rdi, -72(%rbp)
	movq	%rsi, -64(%rbp)
	movq	%rdx, -56(%rbp)
	movq	%rcx, -48(%rbp)
	movq	%r8, -40(%rbp)
	movq	%rdi, -32(%rbp)
	movq	%rsi, -24(%rbp)
	movq	%rdx, -16(%rbp)
	movq	%rcx, -8(%rbp)
Ltmp28:
	.loc	1 417 12 prologue_end
	cmpq	%rsi, %rdi
	ja	LBB4_2
	.loc	1 0 12 is_stmt 0
	movq	-64(%rbp), %rax
	movq	-48(%rbp), %rcx
	.loc	1 419 19 is_stmt 1
	cmpq	%rcx, %rax
	ja	LBB4_4
	jmp	LBB4_3
LBB4_2:
	.loc	1 0 19 is_stmt 0
	movq	-40(%rbp), %rdx
	movq	-64(%rbp), %rsi
	movq	-72(%rbp), %rdi
	.loc	1 418 13 is_stmt 1
	callq	__ZN4core5slice5index22slice_index_order_fail17h0d8f800a07d5f26eE
LBB4_3:
	.loc	1 0 13 is_stmt 0
	movq	-48(%rbp), %rcx
	movq	-56(%rbp), %rdx
	movq	-64(%rbp), %rsi
	movq	-72(%rbp), %rdi
	.loc	1 423 24 is_stmt 1
	callq	__ZN106_$LT$core..ops..range..Range$LT$usize$GT$$u20$as$u20$core..slice..index..SliceIndex$LT$$u5b$T$u5d$$GT$$GT$17get_unchecked_mut17hca5eb8002c85179fE
	.loc	1 424 6
	addq	$80, %rsp
	popq	%rbp
	retq
LBB4_4:
	.loc	1 0 6 is_stmt 0
	movq	-40(%rbp), %rdx
	movq	-48(%rbp), %rsi
	movq	-64(%rbp), %rdi
	.loc	1 420 13 is_stmt 1
	callq	__ZN4core5slice5index24slice_end_index_len_fail17hc921cb2f1513645aE
Ltmp29:
Lfunc_end4:
	.cfi_endproc

	.p2align	4, 0x90
__ZN119_$LT$alloc..collections..btree..map..BTreeMap$LT$K$C$V$C$A$GT$$u20$as$u20$core..iter..traits..collect..IntoIterator$GT$9into_iter17h66f58ec352319667E:
Lfunc_begin5:
	.file	6 "/rustc/2c8cc343237b8f7d5a3c3703e3a87f2eb2c54a74/library/alloc/src/collections/btree" "map.rs"
	.loc	6 1615 0
	.cfi_startproc
	pushq	%rbp
	.cfi_def_cfa_offset 16
	.cfi_offset %rbp, -16
	movq	%rsp, %rbp
	.cfi_def_cfa_register %rbp
	subq	$480, %rsp
	movq	%rdi, -464(%rbp)
	movq	%rdi, -456(%rbp)
Ltmp30:
	.loc	6 1616 40 prologue_end
	movq	16(%rsi), %rax
	movq	%rax, -408(%rbp)
	movq	(%rsi), %rax
	movq	8(%rsi), %rcx
	movq	%rcx, -416(%rbp)
	movq	%rax, -424(%rbp)
Ltmp31:
	.file	7 "/rustc/2c8cc343237b8f7d5a3c3703e3a87f2eb2c54a74/library/core/src/mem" "manually_drop.rs"
	.loc	7 71 24
	movq	-408(%rbp), %rax
	movq	%rax, -176(%rbp)
	movq	-424(%rbp), %rax
	movq	-416(%rbp), %rcx
	movq	%rcx, -184(%rbp)
	movq	%rax, -192(%rbp)
	.loc	7 71 9 is_stmt 0
	movq	-176(%rbp), %rax
	movq	%rax, -432(%rbp)
	movq	-192(%rbp), %rax
	movq	-184(%rbp), %rcx
	movq	%rcx, -440(%rbp)
	movq	%rax, -448(%rbp)
	leaq	-448(%rbp), %rdi
Ltmp32:
	.loc	6 1617 29 is_stmt 1
	movq	%rdi, -104(%rbp)
	movq	%rdi, -96(%rbp)
Ltmp33:
	.file	8 "/rustc/2c8cc343237b8f7d5a3c3703e3a87f2eb2c54a74/library/core/src" "option.rs"
	.loc	8 1623 28
	movq	$0, -160(%rbp)
	.loc	8 1623 9 is_stmt 0
	movq	-168(%rbp), %rsi
Ltmp34:
	movq	-160(%rbp), %rdx
	callq	__ZN4core3mem7replace17hf6bae2c3745ee97dE
	movq	%rdx, -392(%rbp)
	movq	%rax, -400(%rbp)
Ltmp35:
	.loc	6 1617 16 is_stmt 1
	movq	-392(%rbp), %rdx
	movl	$1, %eax
	xorl	%ecx, %ecx
	cmpq	$0, %rdx
	cmoveq	%rcx, %rax
	cmpq	$1, %rax
	jne	LBB5_2
Ltmp36:
	.loc	6 1617 21 is_stmt 0
	movq	-400(%rbp), %rdi
	movq	-392(%rbp), %rsi
	movq	%rdi, -56(%rbp)
	movq	%rsi, -48(%rbp)
	.loc	6 1618 30 is_stmt 1
	callq	__ZN5alloc11collections5btree4node76NodeRef$LT$alloc..collections..btree..node..marker..Owned$C$K$C$V$C$Type$GT$10into_dying17hbdb33a98d977e3b4E
	movq	%rax, %rsi
	leaq	-384(%rbp), %rdi
	callq	__ZN5alloc11collections5btree8navigate178_$LT$impl$u20$alloc..collections..btree..node..NodeRef$LT$alloc..collections..btree..node..marker..Dying$C$K$C$V$C$alloc..collections..btree..node..marker..LeafOrInternal$GT$$GT$10full_range17hcf2c3204842cab7cE
Ltmp37:
	.loc	6 1621 24
	leaq	-320(%rbp), %rdi
	leaq	-384(%rbp), %rsi
	movl	$64, %edx
	callq	_memcpy
	movq	-464(%rbp), %rdi
	.loc	6 1622 25
	leaq	-448(%rbp), %rax
	movq	%rax, -40(%rbp)
	movq	-432(%rbp), %rax
	movq	%rax, -472(%rbp)
	.loc	6 1623 57
	leaq	-448(%rbp), %rax
	movq	%rax, -32(%rbp)
	.loc	6 1623 52 is_stmt 0
	leaq	-448(%rbp), %rax
	movq	%rax, -24(%rbp)
Ltmp38:
	.loc	7 113 28 is_stmt 1
	leaq	-448(%rbp), %rax
	movq	%rax, -16(%rbp)
Ltmp39:
	.loc	3 1157 34
	leaq	-152(%rbp), %rax
	movq	%rax, -8(%rbp)
Ltmp40:
	.loc	6 1620 13
	leaq	-320(%rbp), %rsi
	movl	$64, %edx
	callq	_memcpy
	movq	-472(%rbp), %rcx
	movq	-464(%rbp), %rax
	movq	%rcx, 64(%rax)
Ltmp41:
	.loc	6 1617 9
	jmp	LBB5_3
Ltmp42:
LBB5_2:
	.loc	6 1627 24
	leaq	-256(%rbp), %rdi
	callq	__ZN5alloc11collections5btree8navigate39LazyLeafRange$LT$BorrowType$C$K$C$V$GT$4none17hd56b9d6eba42356eE
	movq	-464(%rbp), %rdi
	.loc	6 1629 57
	leaq	-448(%rbp), %rax
	movq	%rax, -88(%rbp)
	.loc	6 1629 52 is_stmt 0
	leaq	-448(%rbp), %rax
	movq	%rax, -80(%rbp)
Ltmp43:
	.loc	7 113 28 is_stmt 1
	leaq	-448(%rbp), %rax
	movq	%rax, -72(%rbp)
Ltmp44:
	.loc	3 1157 34
	leaq	-144(%rbp), %rax
	movq	%rax, -64(%rbp)
Ltmp45:
	.loc	6 1626 13
	leaq	-256(%rbp), %rsi
	movl	$64, %edx
	callq	_memcpy
	movq	-464(%rbp), %rax
	movq	$0, 64(%rax)
Ltmp46:
LBB5_3:
	.loc	6 0 13 is_stmt 0
	movq	-456(%rbp), %rax
	.loc	6 1632 6 is_stmt 1
	addq	$480, %rsp
	popq	%rbp
	retq
Ltmp47:
Lfunc_end5:
	.cfi_endproc

	.p2align	4, 0x90
__ZN119_$LT$core..ptr..non_null..NonNull$LT$T$GT$$u20$as$u20$core..convert..From$LT$core..ptr..unique..Unique$LT$T$GT$$GT$$GT$4from17he04adad1ce0f20caE:
Lfunc_begin6:
	.file	9 "/rustc/2c8cc343237b8f7d5a3c3703e3a87f2eb2c54a74/library/core/src/ptr" "non_null.rs"
	.loc	9 765 0
	.cfi_startproc
	pushq	%rbp
	.cfi_def_cfa_offset 16
	.cfi_offset %rbp, -16
	movq	%rsp, %rbp
	.cfi_def_cfa_register %rbp
	subq	$40, %rsp
	movq	%rdi, -32(%rbp)
Ltmp48:
	.loc	9 768 41 prologue_end
	movq	%rdi, -24(%rbp)
Ltmp49:
	.file	10 "/rustc/2c8cc343237b8f7d5a3c3703e3a87f2eb2c54a74/library/core/src/ptr" "unique.rs"
	.loc	10 104 9
	movq	%rdi, -16(%rbp)
Ltmp50:
	.loc	9 326 9
	movq	%rdi, -8(%rbp)
Ltmp51:
	.loc	9 201 13
	movq	%rdi, -40(%rbp)
Ltmp52:
	.loc	9 769 6
	movq	-40(%rbp), %rax
	addq	$40, %rsp
	popq	%rbp
	retq
Ltmp53:
Lfunc_end6:
	.cfi_endproc

	.p2align	4, 0x90
__ZN174_$LT$$LT$alloc..collections..btree..map..IntoIter$LT$K$C$V$C$A$GT$$u20$as$u20$core..ops..drop..Drop$GT$..drop..DropGuard$LT$K$C$V$C$A$GT$$u20$as$u20$core..ops..drop..Drop$GT$4drop17h561d90c89cb8e564E:
Lfunc_begin7:
	.loc	6 1641 0
	.cfi_startproc
	pushq	%rbp
	.cfi_def_cfa_offset 16
	.cfi_offset %rbp, -16
	movq	%rsp, %rbp
	.cfi_def_cfa_register %rbp
	subq	$96, %rsp
	movq	%rdi, -88(%rbp)
	movq	%rdi, -8(%rbp)
LBB7_1:
	movq	-88(%rbp), %rax
Ltmp54:
	.loc	6 1644 38 prologue_end
	movq	(%rax), %rsi
	leaq	-80(%rbp), %rdi
	callq	__ZN5alloc11collections5btree3map25IntoIter$LT$K$C$V$C$A$GT$10dying_next17h90e61c50625edf79E
	.loc	6 1644 27 is_stmt 0
	movq	-72(%rbp), %rdx
	movl	$1, %eax
	xorl	%ecx, %ecx
	cmpq	$0, %rdx
	cmoveq	%rcx, %rax
	cmpq	$1, %rax
	jne	LBB7_3
	.loc	6 1644 32
	movq	-80(%rbp), %rax
	movq	%rax, -56(%rbp)
	movq	-72(%rbp), %rax
	movq	%rax, -48(%rbp)
	movq	-64(%rbp), %rax
	movq	%rax, -40(%rbp)
	.loc	6 1646 30 is_stmt 1
	movq	-56(%rbp), %rax
	movq	%rax, -32(%rbp)
	movq	-48(%rbp), %rax
	movq	%rax, -24(%rbp)
	movq	-40(%rbp), %rax
	movq	%rax, -16(%rbp)
	leaq	-32(%rbp), %rdi
	callq	__ZN5alloc11collections5btree4node173Handle$LT$alloc..collections..btree..node..NodeRef$LT$alloc..collections..btree..node..marker..Dying$C$K$C$V$C$NodeType$GT$$C$alloc..collections..btree..node..marker..KV$GT$12drop_key_val17hb7bb1a8a06e53b1bE
Ltmp55:
	.loc	6 1644 17
	jmp	LBB7_1
LBB7_3:
	.loc	6 1648 14
	addq	$96, %rsp
	popq	%rbp
	retq
Ltmp56:
Lfunc_end7:
	.cfi_endproc

	.p2align	4, 0x90
__ZN3std10sys_common9backtrace28__rust_begin_short_backtrace17h44e7529ea48c2feeE:
Lfunc_begin8:
	.file	11 "/rustc/2c8cc343237b8f7d5a3c3703e3a87f2eb2c54a74/library/std/src/sys_common" "backtrace.rs"
	.loc	11 117 0
	.cfi_startproc
	pushq	%rbp
	.cfi_def_cfa_offset 16
	.cfi_offset %rbp, -16
	movq	%rsp, %rbp
	.cfi_def_cfa_register %rbp
	subq	$48, %rsp
	movq	%rdi, -32(%rbp)
Ltmp57:
	.loc	11 121 18 prologue_end
	callq	__ZN4core3ops8function6FnOnce9call_once17h2846e05fc37b74d5E
Ltmp58:
	.file	12 "/rustc/2c8cc343237b8f7d5a3c3703e3a87f2eb2c54a74/library/core/src" "hint.rs"
	.loc	12 295 5
	## InlineAsm Start
	## InlineAsm End
Ltmp59:
	.loc	11 127 2
	addq	$48, %rsp
	popq	%rbp
	retq
Ltmp60:
Lfunc_end8:
	.cfi_endproc

	.p2align	4, 0x90
__ZN3std2fs5write17h45ab0a0b8ddfca39E:
Lfunc_begin9:
	.file	13 "/rustc/2c8cc343237b8f7d5a3c3703e3a87f2eb2c54a74/library/std/src" "fs.rs"
	.loc	13 325 0
	.cfi_startproc
	.cfi_personality 155, _rust_eh_personality
	.cfi_lsda 16, Lexception0
	pushq	%rbp
	.cfi_def_cfa_offset 16
	.cfi_offset %rbp, -16
	movq	%rsp, %rbp
	.cfi_def_cfa_register %rbp
	subq	$96, %rsp
	movq	%rdi, -40(%rbp)
	movq	%rsi, -32(%rbp)
	movq	%rdx, -24(%rbp)
Ltmp61:
	leaq	-40(%rbp), %rdi
Ltmp68:
	.loc	13 329 11 prologue_end
	callq	__ZN55_$LT$$RF$T$u20$as$u20$core..convert..AsRef$LT$U$GT$$GT$6as_ref17h59206ed780294d71E
Ltmp62:
	movq	%rdx, -56(%rbp)
	movq	%rax, -48(%rbp)
	jmp	LBB9_3
LBB9_1:
	.loc	13 330 1
	jmp	LBB9_6
LBB9_2:
Ltmp67:
	.loc	13 0 1 is_stmt 0
	movq	%rax, %rcx
	movl	%edx, %eax
	movq	%rcx, -16(%rbp)
	movl	%eax, -8(%rbp)
	jmp	LBB9_1
LBB9_3:
	movq	-56(%rbp), %rax
	movq	-48(%rbp), %rcx
	movq	%rcx, -88(%rbp)
	movq	%rax, -80(%rbp)
Ltmp63:
	leaq	-32(%rbp), %rdi
	.loc	13 329 26 is_stmt 1
	callq	__ZN55_$LT$$RF$T$u20$as$u20$core..convert..AsRef$LT$U$GT$$GT$6as_ref17h4026641e028424c6E
Ltmp64:
	movq	%rdx, -72(%rbp)
	movq	%rax, -64(%rbp)
	jmp	LBB9_4
LBB9_4:
Ltmp65:
	.loc	13 0 26 is_stmt 0
	movq	-72(%rbp), %rcx
	movq	-64(%rbp), %rdx
	movq	-80(%rbp), %rsi
	movq	-88(%rbp), %rdi
	.loc	13 329 5
	callq	__ZN3std2fs5write5inner17h7289a11fc0366c2bE
Ltmp66:
	movq	%rax, -96(%rbp)
	jmp	LBB9_5
LBB9_5:
	.loc	13 330 1 is_stmt 1
	jmp	LBB9_7
LBB9_6:
	.loc	13 325 1
	movq	-16(%rbp), %rdi
	callq	__Unwind_Resume
LBB9_7:
	.loc	13 0 1 is_stmt 0
	movq	-96(%rbp), %rax
	.loc	13 330 2 is_stmt 1
	addq	$96, %rsp
	popq	%rbp
	retq
Ltmp69:
Lfunc_end9:
	.cfi_endproc
	.section	__TEXT,__gcc_except_tab
	.p2align	2
GCC_except_table9:
Lexception0:
	.byte	255
	.byte	255
	.byte	1
	.uleb128 Lcst_end0-Lcst_begin0
Lcst_begin0:
	.uleb128 Ltmp61-Lfunc_begin9
	.uleb128 Ltmp66-Ltmp61
	.uleb128 Ltmp67-Lfunc_begin9
	.byte	0
	.uleb128 Ltmp66-Lfunc_begin9
	.uleb128 Lfunc_end9-Ltmp66
	.byte	0
	.byte	0
Lcst_end0:
	.p2align	2

	.section	__TEXT,__text,regular,pure_instructions
	.p2align	4, 0x90
__ZN3std2io5error14repr_bitpacked11decode_repr17h4b1a5b551610ae3aE:
Lfunc_begin10:
	.file	14 "/rustc/2c8cc343237b8f7d5a3c3703e3a87f2eb2c54a74/library/std/src/io/error" "repr_bitpacked.rs"
	.loc	14 246 0
	.cfi_startproc
	.cfi_personality 155, _rust_eh_personality
	.cfi_lsda 16, Lexception1
	pushq	%rbp
	.cfi_def_cfa_offset 16
	.cfi_offset %rbp, -16
	movq	%rsp, %rbp
	.cfi_def_cfa_register %rbp
	subq	$320, %rsp
	movq	%rsi, -272(%rbp)
	movq	%rdi, -264(%rbp)
	movq	%rdi, -256(%rbp)
	movq	%rsi, -184(%rbp)
Ltmp79:
	.loc	14 250 9 prologue_end
	movb	$1, -201(%rbp)
	.loc	14 250 16 is_stmt 0
	movq	%rsi, -160(%rbp)
Ltmp80:
	.loc	9 326 9 is_stmt 1
	movq	%rsi, -152(%rbp)
Ltmp81:
	.loc	5 215 33
	movq	%rsi, -144(%rbp)
	.loc	5 215 18 is_stmt 0
	movq	%rsi, -248(%rbp)
Ltmp82:
	.loc	14 251 11 is_stmt 1
	movq	-248(%rbp), %rax
	andl	$3, %eax
	movq	%rax, -280(%rbp)
	.loc	14 251 5 is_stmt 0
	subq	$3, %rax
	ja	LBB10_2
	.loc	14 0 5
	movq	-280(%rbp), %rax
	leaq	LJTI10_0(%rip), %rcx
	movslq	(%rcx,%rax,4), %rax
	addq	%rcx, %rax
	jmpq	*%rax
LBB10_2:
Ltmp76:
	.loc	14 280 13 is_stmt 1
	leaq	l___unnamed_2(%rip), %rdi
	leaq	l___unnamed_3(%rip), %rdx
	movl	$40, %esi
	callq	__ZN4core9panicking5panic17hc1bc45270cf64b03E
Ltmp77:
	jmp	LBB10_9
LBB10_3:
	.loc	14 0 13 is_stmt 0
	movq	-264(%rbp), %rax
	.loc	14 253 26 is_stmt 1
	movq	-248(%rbp), %rcx
	.loc	14 253 24 is_stmt 0
	sarq	$32, %rcx
	movl	%ecx, -4(%rbp)
Ltmp83:
	.loc	14 254 13 is_stmt 1
	movl	%ecx, 4(%rax)
	movb	$0, (%rax)
Ltmp84:
	.loc	14 255 9
	jmp	LBB10_12
LBB10_4:
	.loc	14 257 30
	movl	-244(%rbp), %edi
	.loc	14 257 29 is_stmt 0
	movl	%edi, -12(%rbp)
Ltmp72:
Ltmp85:
	.loc	14 258 24 is_stmt 1
	callq	__ZN3std2io5error14repr_bitpacked14kind_from_prim17h2a02a87e80900923E
Ltmp73:
	movb	%al, -281(%rbp)
	jmp	LBB10_13
Ltmp86:
LBB10_5:
	.loc	14 0 24 is_stmt 0
	movq	-264(%rbp), %rax
	movq	-272(%rbp), %rcx
	.loc	14 270 58 is_stmt 1
	movq	%rcx, -40(%rbp)
Ltmp87:
	.loc	9 450 41
	movq	%rcx, -32(%rbp)
	movq	%rcx, -24(%rbp)
Ltmp88:
	.loc	9 201 13
	movq	%rcx, -224(%rbp)
Ltmp89:
	.loc	9 326 9
	movq	-224(%rbp), %rcx
Ltmp90:
	.loc	14 270 31
	movq	%rcx, 8(%rax)
	movb	$2, (%rax)
	.loc	14 270 94 is_stmt 0
	jmp	LBB10_12
LBB10_6:
	.loc	14 0 94
	movq	-272(%rbp), %rax
	.loc	14 275 26 is_stmt 1
	movq	%rax, -120(%rbp)
Ltmp91:
	.loc	9 326 9
	movq	%rax, -112(%rbp)
Ltmp92:
	.loc	5 1300 9
	movq	%rax, -104(%rbp)
Ltmp93:
	.loc	5 60 9
	movq	%rax, -96(%rbp)
Ltmp94:
	.loc	5 1282 9
	movq	%rax, -88(%rbp)
Ltmp95:
	.loc	5 568 18
	addq	$-1, %rax
	movq	%rax, -80(%rbp)
	movq	-80(%rbp), %rax
	movq	%rax, -296(%rbp)
	jmp	LBB10_10
Ltmp96:
LBB10_7:
	.loc	14 283 1
	testb	$1, -201(%rbp)
	jne	LBB10_19
	jmp	LBB10_18
LBB10_8:
Ltmp78:
	.loc	14 0 1 is_stmt 0
	movq	%rax, %rcx
	movl	%edx, %eax
	movq	%rcx, -136(%rbp)
	movl	%eax, -128(%rbp)
	jmp	LBB10_7
LBB10_9:
	ud2
LBB10_10:
	movq	-296(%rbp), %rax
Ltmp97:
	.loc	5 568 18 is_stmt 1
	movq	%rax, -72(%rbp)
Ltmp98:
	.loc	5 99 33
	movq	%rax, -64(%rbp)
Ltmp99:
	.loc	4 135 36
	movq	%rax, -192(%rbp)
	.loc	4 135 14 is_stmt 0
	movq	-192(%rbp), %rax
	movq	%rax, -200(%rbp)
	movq	-200(%rbp), %rax
	movq	%rax, -56(%rbp)
Ltmp100:
	.loc	5 60 9 is_stmt 1
	movq	%rax, -48(%rbp)
Ltmp101:
	.loc	14 276 31
	movb	$0, -201(%rbp)
	movq	%rax, -216(%rbp)
	movq	-216(%rbp), %rdi
Ltmp70:
	callq	__ZN78_$LT$std..io..error..repr_bitpacked..Repr$u20$as$u20$core..ops..drop..Drop$GT$4drop28_$u7b$$u7b$closure$u7d$$u7d$17haa29ae93699fe27cE
Ltmp71:
	movq	%rax, -304(%rbp)
	jmp	LBB10_11
LBB10_11:
	.loc	14 0 31 is_stmt 0
	movq	-264(%rbp), %rax
	movq	-304(%rbp), %rcx
	.loc	14 276 13
	movq	%rcx, 8(%rax)
	movb	$3, (%rax)
Ltmp102:
LBB10_12:
	.loc	14 283 1 is_stmt 1
	testb	$1, -201(%rbp)
	jne	LBB10_21
	jmp	LBB10_20
LBB10_13:
	.loc	14 0 1 is_stmt 0
	movb	-281(%rbp), %al
Ltmp103:
	.loc	14 258 24 is_stmt 1
	movb	%al, -233(%rbp)
	.loc	14 258 65 is_stmt 0
	leaq	-248(%rbp), %rax
	movq	%rax, -232(%rbp)
Ltmp104:
	.loc	8 871 15 is_stmt 1
	movl	$1, %eax
	xorl	%ecx, %ecx
	cmpb	$41, -233(%rbp)
	cmoveq	%rcx, %rax
	.loc	8 871 9 is_stmt 0
	cmpq	$0, %rax
	jne	LBB10_15
	.loc	8 873 21 is_stmt 1
	movq	-232(%rbp), %rdi
Ltmp74:
	callq	__ZN3std2io5error14repr_bitpacked11decode_repr28_$u7b$$u7b$closure$u7d$$u7d$17hf2fd55b123c47607E
Ltmp75:
	movb	%al, -305(%rbp)
	jmp	LBB10_17
LBB10_15:
	.loc	8 872 18
	movb	-233(%rbp), %al
	movb	%al, -5(%rbp)
Ltmp105:
	.loc	8 872 24 is_stmt 0
	movb	%al, -234(%rbp)
Ltmp106:
LBB10_16:
	.loc	8 0 24
	movq	-264(%rbp), %rax
Ltmp107:
	.loc	14 268 31 is_stmt 1
	movb	-234(%rbp), %cl
	.loc	14 268 13 is_stmt 0
	movb	%cl, 1(%rax)
	movb	$1, (%rax)
Ltmp108:
	.loc	14 269 9 is_stmt 1
	jmp	LBB10_12
LBB10_17:
	.loc	14 0 9 is_stmt 0
	movb	-305(%rbp), %al
Ltmp109:
	.loc	8 873 21 is_stmt 1
	movb	%al, -234(%rbp)
	.loc	8 873 23 is_stmt 0
	jmp	LBB10_16
Ltmp110:
LBB10_18:
	.loc	14 246 1 is_stmt 1
	movq	-136(%rbp), %rdi
	callq	__Unwind_Resume
LBB10_19:
	.loc	14 283 1
	jmp	LBB10_18
LBB10_20:
	.loc	14 0 1 is_stmt 0
	movq	-256(%rbp), %rax
	.loc	14 283 2
	addq	$320, %rsp
	popq	%rbp
	retq
LBB10_21:
	.loc	14 283 1
	jmp	LBB10_20
Ltmp111:
Lfunc_end10:
	.cfi_endproc
	.p2align	2, 0x90
	.data_region jt32
.set L10_0_set_5, LBB10_5-LJTI10_0
.set L10_0_set_6, LBB10_6-LJTI10_0
.set L10_0_set_3, LBB10_3-LJTI10_0
.set L10_0_set_4, LBB10_4-LJTI10_0
LJTI10_0:
	.long	L10_0_set_5
	.long	L10_0_set_6
	.long	L10_0_set_3
	.long	L10_0_set_4
	.end_data_region
	.section	__TEXT,__gcc_except_tab
	.p2align	2
GCC_except_table10:
Lexception1:
	.byte	255
	.byte	255
	.byte	1
	.uleb128 Lcst_end1-Lcst_begin1
Lcst_begin1:
	.uleb128 Ltmp76-Lfunc_begin10
	.uleb128 Ltmp75-Ltmp76
	.uleb128 Ltmp78-Lfunc_begin10
	.byte	0
	.uleb128 Ltmp75-Lfunc_begin10
	.uleb128 Lfunc_end10-Ltmp75
	.byte	0
	.byte	0
Lcst_end1:
	.p2align	2

	.section	__TEXT,__text,regular,pure_instructions
	.p2align	4, 0x90
__ZN3std2io5error14repr_bitpacked11decode_repr28_$u7b$$u7b$closure$u7d$$u7d$17hf2fd55b123c47607E:
Lfunc_begin11:
	.loc	14 258 0 is_stmt 1
	.cfi_startproc
	pushq	%rbp
	.cfi_def_cfa_offset 16
	.cfi_offset %rbp, -16
	movq	%rsp, %rbp
	.cfi_def_cfa_register %rbp
	subq	$16, %rsp
	movq	%rdi, -16(%rbp)
Ltmp112:
	.loc	14 266 17 prologue_end
	callq	__ZN4core4hint21unreachable_unchecked17h149ecabeb9f798dcE
Ltmp113:
Lfunc_end11:
	.cfi_endproc

	.p2align	4, 0x90
__ZN3std2io5error14repr_bitpacked14kind_from_prim17h2a02a87e80900923E:
Lfunc_begin12:
	.loc	14 289 0
	.cfi_startproc
	pushq	%rbp
	.cfi_def_cfa_offset 16
	.cfi_offset %rbp, -16
	movq	%rsp, %rbp
	.cfi_def_cfa_register %rbp
	subq	$336, %rsp
	movl	%edi, -336(%rbp)
Ltmp114:
	.loc	14 302 5 prologue_end
	leaq	-336(%rbp), %rax
	movq	%rax, -328(%rbp)
	cmpl	$0, -336(%rbp)
	je	LBB12_2
	leaq	-336(%rbp), %rax
	movq	%rax, -320(%rbp)
	cmpl	$1, -336(%rbp)
	je	LBB12_5
	jmp	LBB12_4
LBB12_2:
Ltmp115:
	.loc	14 302 5 is_stmt 0
	movb	$0, -329(%rbp)
Ltmp116:
LBB12_3:
	.loc	14 345 2 is_stmt 1
	movb	-329(%rbp), %al
	addq	$336, %rsp
	popq	%rbp
	retq
LBB12_4:
	.loc	14 302 5
	leaq	-336(%rbp), %rax
	movq	%rax, -312(%rbp)
	cmpl	$2, -336(%rbp)
	je	LBB12_7
	jmp	LBB12_6
LBB12_5:
Ltmp117:
	.loc	14 302 5 is_stmt 0
	movb	$1, -329(%rbp)
Ltmp118:
	.loc	14 302 5
	jmp	LBB12_3
LBB12_6:
	leaq	-336(%rbp), %rax
	movq	%rax, -304(%rbp)
	cmpl	$3, -336(%rbp)
	je	LBB12_9
	jmp	LBB12_8
LBB12_7:
Ltmp119:
	.loc	14 302 5
	movb	$2, -329(%rbp)
Ltmp120:
	.loc	14 302 5
	jmp	LBB12_3
LBB12_8:
	leaq	-336(%rbp), %rax
	movq	%rax, -296(%rbp)
	cmpl	$4, -336(%rbp)
	je	LBB12_11
	jmp	LBB12_10
LBB12_9:
Ltmp121:
	.loc	14 302 5
	movb	$3, -329(%rbp)
Ltmp122:
	.loc	14 302 5
	jmp	LBB12_3
LBB12_10:
	leaq	-336(%rbp), %rax
	movq	%rax, -288(%rbp)
	cmpl	$5, -336(%rbp)
	je	LBB12_13
	jmp	LBB12_12
LBB12_11:
Ltmp123:
	.loc	14 302 5
	movb	$4, -329(%rbp)
Ltmp124:
	.loc	14 302 5
	jmp	LBB12_3
LBB12_12:
	leaq	-336(%rbp), %rax
	movq	%rax, -280(%rbp)
	cmpl	$6, -336(%rbp)
	je	LBB12_15
	jmp	LBB12_14
LBB12_13:
Ltmp125:
	.loc	14 302 5
	movb	$5, -329(%rbp)
Ltmp126:
	.loc	14 302 5
	jmp	LBB12_3
LBB12_14:
	leaq	-336(%rbp), %rax
	movq	%rax, -272(%rbp)
	cmpl	$7, -336(%rbp)
	je	LBB12_17
	jmp	LBB12_16
LBB12_15:
Ltmp127:
	.loc	14 302 5
	movb	$6, -329(%rbp)
Ltmp128:
	.loc	14 302 5
	jmp	LBB12_3
LBB12_16:
	leaq	-336(%rbp), %rax
	movq	%rax, -264(%rbp)
	cmpl	$8, -336(%rbp)
	je	LBB12_19
	jmp	LBB12_18
LBB12_17:
Ltmp129:
	.loc	14 302 5
	movb	$7, -329(%rbp)
Ltmp130:
	.loc	14 302 5
	jmp	LBB12_3
LBB12_18:
	leaq	-336(%rbp), %rax
	movq	%rax, -256(%rbp)
	cmpl	$9, -336(%rbp)
	je	LBB12_21
	jmp	LBB12_20
LBB12_19:
Ltmp131:
	.loc	14 302 5
	movb	$8, -329(%rbp)
Ltmp132:
	.loc	14 302 5
	jmp	LBB12_3
LBB12_20:
	leaq	-336(%rbp), %rax
	movq	%rax, -248(%rbp)
	cmpl	$10, -336(%rbp)
	je	LBB12_23
	jmp	LBB12_22
LBB12_21:
Ltmp133:
	.loc	14 302 5
	movb	$9, -329(%rbp)
Ltmp134:
	.loc	14 302 5
	jmp	LBB12_3
LBB12_22:
	leaq	-336(%rbp), %rax
	movq	%rax, -240(%rbp)
	cmpl	$11, -336(%rbp)
	je	LBB12_25
	jmp	LBB12_24
LBB12_23:
Ltmp135:
	.loc	14 302 5
	movb	$10, -329(%rbp)
Ltmp136:
	.loc	14 302 5
	jmp	LBB12_3
LBB12_24:
	leaq	-336(%rbp), %rax
	movq	%rax, -232(%rbp)
	cmpl	$12, -336(%rbp)
	je	LBB12_27
	jmp	LBB12_26
LBB12_25:
Ltmp137:
	.loc	14 302 5
	movb	$11, -329(%rbp)
Ltmp138:
	.loc	14 302 5
	jmp	LBB12_3
LBB12_26:
	leaq	-336(%rbp), %rax
	movq	%rax, -224(%rbp)
	cmpl	$13, -336(%rbp)
	je	LBB12_29
	jmp	LBB12_28
LBB12_27:
Ltmp139:
	.loc	14 302 5
	movb	$12, -329(%rbp)
Ltmp140:
	.loc	14 302 5
	jmp	LBB12_3
LBB12_28:
	leaq	-336(%rbp), %rax
	movq	%rax, -216(%rbp)
	cmpl	$14, -336(%rbp)
	je	LBB12_31
	jmp	LBB12_30
LBB12_29:
Ltmp141:
	.loc	14 302 5
	movb	$13, -329(%rbp)
Ltmp142:
	.loc	14 302 5
	jmp	LBB12_3
LBB12_30:
	leaq	-336(%rbp), %rax
	movq	%rax, -208(%rbp)
	cmpl	$15, -336(%rbp)
	je	LBB12_33
	jmp	LBB12_32
LBB12_31:
Ltmp143:
	.loc	14 302 5
	movb	$14, -329(%rbp)
Ltmp144:
	.loc	14 302 5
	jmp	LBB12_3
LBB12_32:
	leaq	-336(%rbp), %rax
	movq	%rax, -200(%rbp)
	cmpl	$16, -336(%rbp)
	je	LBB12_35
	jmp	LBB12_34
LBB12_33:
Ltmp145:
	.loc	14 302 5
	movb	$15, -329(%rbp)
Ltmp146:
	.loc	14 302 5
	jmp	LBB12_3
LBB12_34:
	leaq	-336(%rbp), %rax
	movq	%rax, -192(%rbp)
	cmpl	$17, -336(%rbp)
	je	LBB12_37
	jmp	LBB12_36
LBB12_35:
Ltmp147:
	.loc	14 302 5
	movb	$16, -329(%rbp)
Ltmp148:
	.loc	14 302 5
	jmp	LBB12_3
LBB12_36:
	leaq	-336(%rbp), %rax
	movq	%rax, -184(%rbp)
	cmpl	$18, -336(%rbp)
	je	LBB12_39
	jmp	LBB12_38
LBB12_37:
Ltmp149:
	.loc	14 302 5
	movb	$17, -329(%rbp)
Ltmp150:
	.loc	14 302 5
	jmp	LBB12_3
LBB12_38:
	leaq	-336(%rbp), %rax
	movq	%rax, -176(%rbp)
	cmpl	$19, -336(%rbp)
	je	LBB12_41
	jmp	LBB12_40
LBB12_39:
Ltmp151:
	.loc	14 302 5
	movb	$18, -329(%rbp)
Ltmp152:
	.loc	14 302 5
	jmp	LBB12_3
LBB12_40:
	leaq	-336(%rbp), %rax
	movq	%rax, -168(%rbp)
	cmpl	$20, -336(%rbp)
	je	LBB12_43
	jmp	LBB12_42
LBB12_41:
Ltmp153:
	.loc	14 302 5
	movb	$19, -329(%rbp)
Ltmp154:
	.loc	14 302 5
	jmp	LBB12_3
LBB12_42:
	leaq	-336(%rbp), %rax
	movq	%rax, -160(%rbp)
	cmpl	$21, -336(%rbp)
	je	LBB12_45
	jmp	LBB12_44
LBB12_43:
Ltmp155:
	.loc	14 302 5
	movb	$20, -329(%rbp)
Ltmp156:
	.loc	14 302 5
	jmp	LBB12_3
LBB12_44:
	leaq	-336(%rbp), %rax
	movq	%rax, -152(%rbp)
	cmpl	$22, -336(%rbp)
	je	LBB12_47
	jmp	LBB12_46
LBB12_45:
Ltmp157:
	.loc	14 302 5
	movb	$21, -329(%rbp)
Ltmp158:
	.loc	14 302 5
	jmp	LBB12_3
LBB12_46:
	leaq	-336(%rbp), %rax
	movq	%rax, -144(%rbp)
	cmpl	$23, -336(%rbp)
	je	LBB12_49
	jmp	LBB12_48
LBB12_47:
Ltmp159:
	.loc	14 302 5
	movb	$22, -329(%rbp)
Ltmp160:
	.loc	14 302 5
	jmp	LBB12_3
LBB12_48:
	leaq	-336(%rbp), %rax
	movq	%rax, -136(%rbp)
	cmpl	$24, -336(%rbp)
	je	LBB12_51
	jmp	LBB12_50
LBB12_49:
Ltmp161:
	.loc	14 302 5
	movb	$23, -329(%rbp)
Ltmp162:
	.loc	14 302 5
	jmp	LBB12_3
LBB12_50:
	leaq	-336(%rbp), %rax
	movq	%rax, -128(%rbp)
	cmpl	$25, -336(%rbp)
	je	LBB12_53
	jmp	LBB12_52
LBB12_51:
Ltmp163:
	.loc	14 302 5
	movb	$24, -329(%rbp)
Ltmp164:
	.loc	14 302 5
	jmp	LBB12_3
LBB12_52:
	leaq	-336(%rbp), %rax
	movq	%rax, -120(%rbp)
	cmpl	$26, -336(%rbp)
	je	LBB12_55
	jmp	LBB12_54
LBB12_53:
Ltmp165:
	.loc	14 302 5
	movb	$25, -329(%rbp)
Ltmp166:
	.loc	14 302 5
	jmp	LBB12_3
LBB12_54:
	leaq	-336(%rbp), %rax
	movq	%rax, -112(%rbp)
	cmpl	$27, -336(%rbp)
	je	LBB12_57
	jmp	LBB12_56
LBB12_55:
Ltmp167:
	.loc	14 302 5
	movb	$26, -329(%rbp)
Ltmp168:
	.loc	14 302 5
	jmp	LBB12_3
LBB12_56:
	leaq	-336(%rbp), %rax
	movq	%rax, -104(%rbp)
	cmpl	$28, -336(%rbp)
	je	LBB12_59
	jmp	LBB12_58
LBB12_57:
Ltmp169:
	.loc	14 302 5
	movb	$27, -329(%rbp)
Ltmp170:
	.loc	14 302 5
	jmp	LBB12_3
LBB12_58:
	leaq	-336(%rbp), %rax
	movq	%rax, -96(%rbp)
	cmpl	$29, -336(%rbp)
	je	LBB12_61
	jmp	LBB12_60
LBB12_59:
Ltmp171:
	.loc	14 302 5
	movb	$28, -329(%rbp)
Ltmp172:
	.loc	14 302 5
	jmp	LBB12_3
LBB12_60:
	leaq	-336(%rbp), %rax
	movq	%rax, -88(%rbp)
	cmpl	$30, -336(%rbp)
	je	LBB12_63
	jmp	LBB12_62
LBB12_61:
Ltmp173:
	.loc	14 302 5
	movb	$29, -329(%rbp)
Ltmp174:
	.loc	14 302 5
	jmp	LBB12_3
LBB12_62:
	leaq	-336(%rbp), %rax
	movq	%rax, -80(%rbp)
	cmpl	$31, -336(%rbp)
	je	LBB12_65
	jmp	LBB12_64
LBB12_63:
Ltmp175:
	.loc	14 302 5
	movb	$30, -329(%rbp)
Ltmp176:
	.loc	14 302 5
	jmp	LBB12_3
LBB12_64:
	leaq	-336(%rbp), %rax
	movq	%rax, -72(%rbp)
	cmpl	$32, -336(%rbp)
	je	LBB12_67
	jmp	LBB12_66
LBB12_65:
Ltmp177:
	.loc	14 302 5
	movb	$31, -329(%rbp)
Ltmp178:
	.loc	14 302 5
	jmp	LBB12_3
LBB12_66:
	leaq	-336(%rbp), %rax
	movq	%rax, -64(%rbp)
	cmpl	$33, -336(%rbp)
	je	LBB12_69
	jmp	LBB12_68
LBB12_67:
Ltmp179:
	.loc	14 302 5
	movb	$32, -329(%rbp)
Ltmp180:
	.loc	14 302 5
	jmp	LBB12_3
LBB12_68:
	leaq	-336(%rbp), %rax
	movq	%rax, -56(%rbp)
	cmpl	$34, -336(%rbp)
	je	LBB12_71
	jmp	LBB12_70
LBB12_69:
Ltmp181:
	.loc	14 302 5
	movb	$33, -329(%rbp)
Ltmp182:
	.loc	14 302 5
	jmp	LBB12_3
LBB12_70:
	leaq	-336(%rbp), %rax
	movq	%rax, -48(%rbp)
	cmpl	$35, -336(%rbp)
	je	LBB12_73
	jmp	LBB12_72
LBB12_71:
Ltmp183:
	.loc	14 302 5
	movb	$34, -329(%rbp)
Ltmp184:
	.loc	14 302 5
	jmp	LBB12_3
LBB12_72:
	leaq	-336(%rbp), %rax
	movq	%rax, -40(%rbp)
	cmpl	$39, -336(%rbp)
	je	LBB12_75
	jmp	LBB12_74
LBB12_73:
Ltmp185:
	.loc	14 302 5
	movb	$35, -329(%rbp)
Ltmp186:
	.loc	14 302 5
	jmp	LBB12_3
LBB12_74:
	leaq	-336(%rbp), %rax
	movq	%rax, -32(%rbp)
	cmpl	$37, -336(%rbp)
	je	LBB12_77
	jmp	LBB12_76
LBB12_75:
Ltmp187:
	.loc	14 302 5
	movb	$39, -329(%rbp)
Ltmp188:
	.loc	14 302 5
	jmp	LBB12_3
LBB12_76:
	leaq	-336(%rbp), %rax
	movq	%rax, -24(%rbp)
	cmpl	$36, -336(%rbp)
	je	LBB12_79
	jmp	LBB12_78
LBB12_77:
Ltmp189:
	.loc	14 302 5
	movb	$37, -329(%rbp)
Ltmp190:
	.loc	14 302 5
	jmp	LBB12_3
LBB12_78:
	leaq	-336(%rbp), %rax
	movq	%rax, -16(%rbp)
	cmpl	$38, -336(%rbp)
	je	LBB12_81
	jmp	LBB12_80
LBB12_79:
Ltmp191:
	.loc	14 302 5
	movb	$36, -329(%rbp)
Ltmp192:
	.loc	14 302 5
	jmp	LBB12_3
LBB12_80:
	leaq	-336(%rbp), %rax
	movq	%rax, -8(%rbp)
	cmpl	$40, -336(%rbp)
	je	LBB12_83
	jmp	LBB12_82
LBB12_81:
Ltmp193:
	.loc	14 302 5
	movb	$38, -329(%rbp)
Ltmp194:
	.loc	14 302 5
	jmp	LBB12_3
LBB12_82:
	movb	$41, -329(%rbp)
	jmp	LBB12_3
LBB12_83:
Ltmp195:
	.loc	14 302 5
	movb	$40, -329(%rbp)
Ltmp196:
	.loc	14 302 5
	jmp	LBB12_3
Ltmp197:
Lfunc_end12:
	.cfi_endproc

	.private_extern	__ZN3std2rt10lang_start17hd1ad1a5b6234578dE
	.globl	__ZN3std2rt10lang_start17hd1ad1a5b6234578dE
	.p2align	4, 0x90
__ZN3std2rt10lang_start17hd1ad1a5b6234578dE:
Lfunc_begin13:
	.file	15 "/rustc/2c8cc343237b8f7d5a3c3703e3a87f2eb2c54a74/library/std/src" "rt.rs"
	.loc	15 159 0 is_stmt 1
	.cfi_startproc
	pushq	%rbp
	.cfi_def_cfa_offset 16
	.cfi_offset %rbp, -16
	movq	%rsp, %rbp
	.cfi_def_cfa_register %rbp
	subq	$64, %rsp
	movl	%ecx, %eax
	movq	%rdx, %rcx
	movq	%rsi, %rdx
	movq	%rdi, -40(%rbp)
	movq	%rdx, -32(%rbp)
	movq	%rcx, -24(%rbp)
	movb	%al, -9(%rbp)
Ltmp198:
	.loc	15 166 10 prologue_end
	movq	%rdi, -48(%rbp)
	.loc	15 165 17
	leaq	-48(%rbp), %rdi
	leaq	l___unnamed_1(%rip), %rsi
	movzbl	%al, %r8d
	callq	__ZN3std2rt19lang_start_internal17h72dc55d09e0a2397E
	movq	%rax, -56(%rbp)
	.loc	15 165 12 is_stmt 0
	movq	-56(%rbp), %rax
	movq	%rax, -8(%rbp)
	.loc	15 172 2 is_stmt 1
	addq	$64, %rsp
	popq	%rbp
	retq
Ltmp199:
Lfunc_end13:
	.cfi_endproc

	.p2align	4, 0x90
__ZN3std2rt10lang_start28_$u7b$$u7b$closure$u7d$$u7d$17h8663439539e04202E:
Lfunc_begin14:
	.loc	15 166 0
	.cfi_startproc
	pushq	%rbp
	.cfi_def_cfa_offset 16
	.cfi_offset %rbp, -16
	movq	%rsp, %rbp
	.cfi_def_cfa_register %rbp
	subq	$32, %rsp
	movq	%rdi, -16(%rbp)
Ltmp200:
	.loc	15 166 77 prologue_end
	movq	(%rdi), %rdi
	.loc	15 166 18 is_stmt 0
	callq	__ZN3std10sys_common9backtrace28__rust_begin_short_backtrace17h44e7529ea48c2feeE
	callq	__ZN54_$LT$$LP$$RP$$u20$as$u20$std..process..Termination$GT$6report17h8e64eafb0b327553E
	movb	%al, -17(%rbp)
Ltmp201:
	.file	16 "/rustc/2c8cc343237b8f7d5a3c3703e3a87f2eb2c54a74/library/std/src" "process.rs"
	.loc	16 1820 9 is_stmt 1
	leaq	-17(%rbp), %rax
	movq	%rax, -8(%rbp)
Ltmp202:
	.file	17 "/rustc/2c8cc343237b8f7d5a3c3703e3a87f2eb2c54a74/library/std/src/sys/unix/process" "process_common.rs"
	.loc	17 594 9
	movzbl	-17(%rbp), %eax
Ltmp203:
	.loc	15 166 100
	addq	$32, %rsp
	popq	%rbp
	retq
Ltmp204:
Lfunc_end14:
	.cfi_endproc

	.p2align	4, 0x90
__ZN3std3env3var17h345caaba43cddf75E:
Lfunc_begin15:
	.file	18 "/rustc/2c8cc343237b8f7d5a3c3703e3a87f2eb2c54a74/library/std/src" "env.rs"
	.loc	18 227 0
	.cfi_startproc
	.cfi_personality 155, _rust_eh_personality
	.cfi_lsda 16, Lexception2
	pushq	%rbp
	.cfi_def_cfa_offset 16
	.cfi_offset %rbp, -16
	movq	%rsp, %rbp
	.cfi_def_cfa_register %rbp
	subq	$64, %rsp
	movq	%rdi, -64(%rbp)
	movq	%rdi, -56(%rbp)
	movq	%rsi, -32(%rbp)
	movq	%rdx, -24(%rbp)
Ltmp205:
	leaq	-32(%rbp), %rdi
Ltmp210:
	.loc	18 228 10 prologue_end
	callq	__ZN55_$LT$$RF$T$u20$as$u20$core..convert..AsRef$LT$U$GT$$GT$6as_ref17hfd8190ce178a47cbE
Ltmp206:
	movq	%rdx, -48(%rbp)
	movq	%rax, -40(%rbp)
	jmp	LBB15_3
LBB15_1:
	.loc	18 227 1
	movq	-16(%rbp), %rdi
	callq	__Unwind_Resume
LBB15_2:
Ltmp209:
	.loc	18 0 1 is_stmt 0
	movq	%rax, %rcx
	movl	%edx, %eax
	movq	%rcx, -16(%rbp)
	movl	%eax, -8(%rbp)
	jmp	LBB15_1
LBB15_3:
Ltmp207:
	movq	-48(%rbp), %rdx
	movq	-40(%rbp), %rsi
	movq	-64(%rbp), %rdi
	.loc	18 228 5 is_stmt 1
	callq	__ZN3std3env4_var17h3981769605209d03E
Ltmp208:
	jmp	LBB15_4
LBB15_4:
	.loc	18 0 5 is_stmt 0
	movq	-56(%rbp), %rax
	.loc	18 229 2 is_stmt 1
	addq	$64, %rsp
	popq	%rbp
	retq
Ltmp211:
Lfunc_end15:
	.cfi_endproc
	.section	__TEXT,__gcc_except_tab
	.p2align	2
GCC_except_table15:
Lexception2:
	.byte	255
	.byte	255
	.byte	1
	.uleb128 Lcst_end2-Lcst_begin2
Lcst_begin2:
	.uleb128 Ltmp205-Lfunc_begin15
	.uleb128 Ltmp206-Ltmp205
	.uleb128 Ltmp209-Lfunc_begin15
	.byte	0
	.uleb128 Ltmp206-Lfunc_begin15
	.uleb128 Ltmp207-Ltmp206
	.byte	0
	.byte	0
	.uleb128 Ltmp207-Lfunc_begin15
	.uleb128 Ltmp208-Ltmp207
	.uleb128 Ltmp209-Lfunc_begin15
	.byte	0
Lcst_end2:
	.p2align	2

	.section	__TEXT,__text,regular,pure_instructions
	.p2align	4, 0x90
__ZN3std3env6var_os17h39d2c75b4ddeb6eaE:
Lfunc_begin16:
	.loc	18 268 0
	.cfi_startproc
	.cfi_personality 155, _rust_eh_personality
	.cfi_lsda 16, Lexception3
	pushq	%rbp
	.cfi_def_cfa_offset 16
	.cfi_offset %rbp, -16
	movq	%rsp, %rbp
	.cfi_def_cfa_register %rbp
	subq	$64, %rsp
	movq	%rdi, -64(%rbp)
	movq	%rdi, -56(%rbp)
	movq	%rsi, -32(%rbp)
	movq	%rdx, -24(%rbp)
Ltmp212:
	leaq	-32(%rbp), %rdi
Ltmp217:
	.loc	18 269 13 prologue_end
	callq	__ZN55_$LT$$RF$T$u20$as$u20$core..convert..AsRef$LT$U$GT$$GT$6as_ref17hfd8190ce178a47cbE
Ltmp213:
	movq	%rdx, -48(%rbp)
	movq	%rax, -40(%rbp)
	jmp	LBB16_3
LBB16_1:
	.loc	18 268 1
	movq	-16(%rbp), %rdi
	callq	__Unwind_Resume
LBB16_2:
Ltmp216:
	.loc	18 0 1 is_stmt 0
	movq	%rax, %rcx
	movl	%edx, %eax
	movq	%rcx, -16(%rbp)
	movl	%eax, -8(%rbp)
	jmp	LBB16_1
LBB16_3:
Ltmp214:
	movq	-48(%rbp), %rdx
	movq	-40(%rbp), %rsi
	movq	-64(%rbp), %rdi
	.loc	18 269 5 is_stmt 1
	callq	__ZN3std3env7_var_os17h71e71f6d7accb7a3E
Ltmp215:
	jmp	LBB16_4
LBB16_4:
	.loc	18 0 5 is_stmt 0
	movq	-56(%rbp), %rax
	.loc	18 270 2 is_stmt 1
	addq	$64, %rsp
	popq	%rbp
	retq
Ltmp218:
Lfunc_end16:
	.cfi_endproc
	.section	__TEXT,__gcc_except_tab
	.p2align	2
GCC_except_table16:
Lexception3:
	.byte	255
	.byte	255
	.byte	1
	.uleb128 Lcst_end3-Lcst_begin3
Lcst_begin3:
	.uleb128 Ltmp212-Lfunc_begin16
	.uleb128 Ltmp213-Ltmp212
	.uleb128 Ltmp216-Lfunc_begin16
	.byte	0
	.uleb128 Ltmp213-Lfunc_begin16
	.uleb128 Ltmp214-Ltmp213
	.byte	0
	.byte	0
	.uleb128 Ltmp214-Lfunc_begin16
	.uleb128 Ltmp215-Ltmp214
	.uleb128 Ltmp216-Lfunc_begin16
	.byte	0
Lcst_end3:
	.p2align	2

	.section	__TEXT,__text,regular,pure_instructions
	.p2align	4, 0x90
__ZN3std3ffi6os_str85_$LT$impl$u20$core..convert..AsRef$LT$std..ffi..os_str..OsStr$GT$$u20$for$u20$str$GT$6as_ref17h9f0dfbd15934c2f3E:
Lfunc_begin17:
	.file	19 "/rustc/2c8cc343237b8f7d5a3c3703e3a87f2eb2c54a74/library/std/src/ffi" "os_str.rs"
	.loc	19 1321 0
	.cfi_startproc
	pushq	%rbp
	.cfi_def_cfa_offset 16
	.cfi_offset %rbp, -16
	movq	%rsp, %rbp
	.cfi_def_cfa_register %rbp
	subq	$112, %rsp
	movq	%rdi, -112(%rbp)
	movq	%rsi, -104(%rbp)
Ltmp219:
	.loc	19 1322 43 prologue_end
	movq	%rdi, -96(%rbp)
	movq	%rsi, -88(%rbp)
Ltmp220:
	.file	20 "/rustc/2c8cc343237b8f7d5a3c3703e3a87f2eb2c54a74/library/std/src/sys/unix" "os_str.rs"
	.loc	20 201 30
	movq	%rdi, -80(%rbp)
	movq	%rsi, -72(%rbp)
Ltmp221:
	.file	21 "/rustc/2c8cc343237b8f7d5a3c3703e3a87f2eb2c54a74/library/core/src/str" "mod.rs"
	.loc	21 327 18
	movq	%rdi, -64(%rbp)
	movq	%rsi, -56(%rbp)
	movq	-64(%rbp), %rcx
	movq	-56(%rbp), %rax
Ltmp222:
	.loc	20 201 30
	movq	%rcx, -48(%rbp)
	movq	%rax, -40(%rbp)
Ltmp223:
	.loc	20 196 18
	movq	%rcx, -32(%rbp)
	movq	%rax, -24(%rbp)
	movq	-32(%rbp), %rax
	movq	-24(%rbp), %rdx
Ltmp224:
	.loc	19 1322 27
	movq	%rax, -16(%rbp)
	movq	%rdx, -8(%rbp)
	.loc	19 1323 6
	addq	$112, %rsp
	popq	%rbp
	retq
Ltmp225:
Lfunc_end17:
	.cfi_endproc

	.p2align	4, 0x90
__ZN3std4path4Path3new17h903237f4e2bcc2bcE:
Lfunc_begin18:
	.file	22 "/rustc/2c8cc343237b8f7d5a3c3703e3a87f2eb2c54a74/library/std/src" "path.rs"
	.loc	22 2037 0
	.cfi_startproc
	pushq	%rbp
	.cfi_def_cfa_offset 16
	.cfi_offset %rbp, -16
	movq	%rsp, %rbp
	.cfi_def_cfa_register %rbp
	subq	$16, %rsp
	movq	%rdi, -16(%rbp)
	movq	%rsi, -8(%rbp)
Ltmp226:
	.loc	22 2038 21 prologue_end
	callq	__ZN3std3ffi6os_str85_$LT$impl$u20$core..convert..AsRef$LT$std..ffi..os_str..OsStr$GT$$u20$for$u20$str$GT$6as_ref17h9f0dfbd15934c2f3E
	.loc	22 2039 6
	addq	$16, %rsp
	popq	%rbp
	retq
Ltmp227:
Lfunc_end18:
	.cfi_endproc

	.p2align	4, 0x90
__ZN3std4path4Path3new17hc56f5d326eb695ccE:
Lfunc_begin19:
	.loc	22 2037 0
	.cfi_startproc
	pushq	%rbp
	.cfi_def_cfa_offset 16
	.cfi_offset %rbp, -16
	movq	%rsp, %rbp
	.cfi_def_cfa_register %rbp
	subq	$16, %rsp
	movq	%rdi, -8(%rbp)
Ltmp228:
	.loc	22 2038 21 prologue_end
	callq	__ZN98_$LT$std..ffi..os_str..OsString$u20$as$u20$core..convert..AsRef$LT$std..ffi..os_str..OsStr$GT$$GT$6as_ref17h4aa0d1b549cdc629E
	.loc	22 2039 6
	addq	$16, %rsp
	popq	%rbp
	retq
Ltmp229:
Lfunc_end19:
	.cfi_endproc

	.p2align	4, 0x90
__ZN3std4path4Path4join17h14ad579b19a03358E:
Lfunc_begin20:
	.loc	22 2545 0
	.cfi_startproc
	.cfi_personality 155, _rust_eh_personality
	.cfi_lsda 16, Lexception4
	pushq	%rbp
	.cfi_def_cfa_offset 16
	.cfi_offset %rbp, -16
	movq	%rsp, %rbp
	.cfi_def_cfa_register %rbp
	subq	$96, %rsp
	movq	%rdx, -96(%rbp)
	movq	%rsi, -88(%rbp)
	movq	%rdi, -80(%rbp)
	movq	%rdi, -72(%rbp)
	movq	%rcx, -48(%rbp)
	movq	%r8, -40(%rbp)
	movq	%rsi, -32(%rbp)
	movq	%rdx, -24(%rbp)
Ltmp230:
	leaq	-48(%rbp), %rdi
Ltmp235:
	.loc	22 2546 20 prologue_end
	callq	__ZN55_$LT$$RF$T$u20$as$u20$core..convert..AsRef$LT$U$GT$$GT$6as_ref17hf5843cf68dac9678E
Ltmp231:
	movq	%rdx, -64(%rbp)
	movq	%rax, -56(%rbp)
	jmp	LBB20_3
LBB20_1:
	.loc	22 2545 5
	movq	-16(%rbp), %rdi
	callq	__Unwind_Resume
LBB20_2:
Ltmp234:
	.loc	22 0 5 is_stmt 0
	movq	%rax, %rcx
	movl	%edx, %eax
	movq	%rcx, -16(%rbp)
	movl	%eax, -8(%rbp)
	jmp	LBB20_1
LBB20_3:
Ltmp232:
	movq	-64(%rbp), %r8
	movq	-56(%rbp), %rcx
	movq	-96(%rbp), %rdx
	movq	-88(%rbp), %rsi
	movq	-80(%rbp), %rdi
	.loc	22 2546 9 is_stmt 1
	callq	__ZN3std4path4Path5_join17h09a4a37dd04fbaf0E
Ltmp233:
	jmp	LBB20_4
LBB20_4:
	.loc	22 0 9 is_stmt 0
	movq	-72(%rbp), %rax
	.loc	22 2547 6 is_stmt 1
	addq	$96, %rsp
	popq	%rbp
	retq
Ltmp236:
Lfunc_end20:
	.cfi_endproc
	.section	__TEXT,__gcc_except_tab
	.p2align	2
GCC_except_table20:
Lexception4:
	.byte	255
	.byte	255
	.byte	1
	.uleb128 Lcst_end4-Lcst_begin4
Lcst_begin4:
	.uleb128 Ltmp230-Lfunc_begin20
	.uleb128 Ltmp231-Ltmp230
	.uleb128 Ltmp234-Lfunc_begin20
	.byte	0
	.uleb128 Ltmp231-Lfunc_begin20
	.uleb128 Ltmp232-Ltmp231
	.byte	0
	.byte	0
	.uleb128 Ltmp232-Lfunc_begin20
	.uleb128 Ltmp233-Ltmp232
	.uleb128 Ltmp234-Lfunc_begin20
	.byte	0
Lcst_end4:
	.p2align	2

	.section	__TEXT,__text,regular,pure_instructions
	.p2align	4, 0x90
__ZN3std4path77_$LT$impl$u20$core..convert..AsRef$LT$std..path..Path$GT$$u20$for$u20$str$GT$6as_ref17haddbdb8c41847453E:
Lfunc_begin21:
	.loc	22 3138 0
	.cfi_startproc
	pushq	%rbp
	.cfi_def_cfa_offset 16
	.cfi_offset %rbp, -16
	movq	%rsp, %rbp
	.cfi_def_cfa_register %rbp
	subq	$16, %rsp
	movq	%rdi, -16(%rbp)
	movq	%rsi, -8(%rbp)
Ltmp237:
	.loc	22 3139 9 prologue_end
	callq	__ZN3std4path4Path3new17h903237f4e2bcc2bcE
	.loc	22 3140 6
	addq	$16, %rsp
	popq	%rbp
	retq
Ltmp238:
Lfunc_end21:
	.cfi_endproc

	.p2align	4, 0x90
__ZN3std7process7Command3arg17ha7668b85bfc156b8E:
Lfunc_begin22:
	.loc	16 607 0
	.cfi_startproc
	.cfi_personality 155, _rust_eh_personality
	.cfi_lsda 16, Lexception5
	pushq	%rbp
	.cfi_def_cfa_offset 16
	.cfi_offset %rbp, -16
	movq	%rsp, %rbp
	.cfi_def_cfa_register %rbp
	subq	$64, %rsp
	movq	%rdi, -64(%rbp)
	movq	%rsi, -40(%rbp)
	movq	%rdx, -32(%rbp)
	movq	%rdi, -24(%rbp)
Ltmp239:
	leaq	-40(%rbp), %rdi
Ltmp244:
	.loc	16 608 24 prologue_end
	callq	__ZN55_$LT$$RF$T$u20$as$u20$core..convert..AsRef$LT$U$GT$$GT$6as_ref17hfd8190ce178a47cbE
Ltmp240:
	movq	%rdx, -56(%rbp)
	movq	%rax, -48(%rbp)
	jmp	LBB22_3
LBB22_1:
	.loc	16 607 5
	movq	-16(%rbp), %rdi
	callq	__Unwind_Resume
LBB22_2:
Ltmp243:
	.loc	16 0 5 is_stmt 0
	movq	%rax, %rcx
	movl	%edx, %eax
	movq	%rcx, -16(%rbp)
	movl	%eax, -8(%rbp)
	jmp	LBB22_1
LBB22_3:
Ltmp241:
	movq	-56(%rbp), %rdx
	movq	-48(%rbp), %rsi
	movq	-64(%rbp), %rdi
	.loc	16 608 9 is_stmt 1
	callq	__ZN3std3sys4unix7process14process_common7Command3arg17hdfe06f44e19d0682E
Ltmp242:
	jmp	LBB22_4
LBB22_4:
	.loc	16 0 9 is_stmt 0
	movq	-64(%rbp), %rax
	.loc	16 610 6 is_stmt 1
	addq	$64, %rsp
	popq	%rbp
	retq
Ltmp245:
Lfunc_end22:
	.cfi_endproc
	.section	__TEXT,__gcc_except_tab
	.p2align	2
GCC_except_table22:
Lexception5:
	.byte	255
	.byte	255
	.byte	1
	.uleb128 Lcst_end5-Lcst_begin5
Lcst_begin5:
	.uleb128 Ltmp239-Lfunc_begin22
	.uleb128 Ltmp240-Ltmp239
	.uleb128 Ltmp243-Lfunc_begin22
	.byte	0
	.uleb128 Ltmp240-Lfunc_begin22
	.uleb128 Ltmp241-Ltmp240
	.byte	0
	.byte	0
	.uleb128 Ltmp241-Lfunc_begin22
	.uleb128 Ltmp242-Ltmp241
	.uleb128 Ltmp243-Lfunc_begin22
	.byte	0
Lcst_end5:
	.p2align	2

	.section	__TEXT,__text,regular,pure_instructions
	.p2align	4, 0x90
__ZN3std7process7Command3arg17hb99da11149a4753cE:
Lfunc_begin23:
	.loc	16 607 0
	.cfi_startproc
	.cfi_personality 155, _rust_eh_personality
	.cfi_lsda 16, Lexception6
	pushq	%rbp
	.cfi_def_cfa_offset 16
	.cfi_offset %rbp, -16
	movq	%rsp, %rbp
	.cfi_def_cfa_register %rbp
	subq	$64, %rsp
	movq	%rsi, -64(%rbp)
	movq	%rdi, %rax
	movq	-64(%rbp), %rdi
	movq	%rax, -56(%rbp)
	movq	%rdi, -48(%rbp)
Ltmp254:
	movq	%rax, -24(%rbp)
Ltmp246:
Ltmp255:
	.loc	16 608 24 prologue_end
	callq	__ZN90_$LT$std..path..PathBuf$u20$as$u20$core..convert..AsRef$LT$std..ffi..os_str..OsStr$GT$$GT$6as_ref17hef9182bdf78a253bE
Ltmp256:
Ltmp247:
	.loc	16 0 24 is_stmt 0
	movq	%rdx, -40(%rbp)
	movq	%rax, -32(%rbp)
Ltmp257:
	.loc	16 608 24
	jmp	LBB23_3
Ltmp258:
LBB23_1:
Ltmp251:
	.loc	16 0 24
	movq	-48(%rbp), %rdi
	.loc	16 610 5 is_stmt 1
	callq	__ZN4core3ptr39drop_in_place$LT$std..path..PathBuf$GT$17h503ad3274a3a61d6E
Ltmp252:
	jmp	LBB23_6
Ltmp259:
LBB23_2:
Ltmp250:
	.loc	16 0 5 is_stmt 0
	movq	%rax, %rcx
	movl	%edx, %eax
	movq	%rcx, -16(%rbp)
	movl	%eax, -8(%rbp)
	jmp	LBB23_1
Ltmp260:
LBB23_3:
Ltmp248:
	movq	-40(%rbp), %rdx
	movq	-32(%rbp), %rsi
	movq	-56(%rbp), %rdi
	.loc	16 608 9 is_stmt 1
	callq	__ZN3std3sys4unix7process14process_common7Command3arg17hdfe06f44e19d0682E
Ltmp249:
	jmp	LBB23_4
Ltmp261:
LBB23_4:
	.loc	16 0 9 is_stmt 0
	movq	-48(%rbp), %rdi
	.loc	16 610 5 is_stmt 1
	callq	__ZN4core3ptr39drop_in_place$LT$std..path..PathBuf$GT$17h503ad3274a3a61d6E
	movq	-56(%rbp), %rax
	.loc	16 610 6 is_stmt 0
	addq	$64, %rsp
	popq	%rbp
	retq
Ltmp262:
LBB23_5:
Ltmp253:
	.loc	16 607 5 is_stmt 1
	callq	__ZN4core9panicking19panic_cannot_unwind17h1fbca7e1d7f56ae1E
Ltmp263:
LBB23_6:
	movq	-16(%rbp), %rdi
	callq	__Unwind_Resume
Ltmp264:
Lfunc_end23:
	.cfi_endproc
	.section	__TEXT,__gcc_except_tab
	.p2align	2
GCC_except_table23:
Lexception6:
	.byte	255
	.byte	255
	.byte	1
	.uleb128 Lcst_end6-Lcst_begin6
Lcst_begin6:
	.uleb128 Ltmp246-Lfunc_begin23
	.uleb128 Ltmp247-Ltmp246
	.uleb128 Ltmp250-Lfunc_begin23
	.byte	0
	.uleb128 Ltmp251-Lfunc_begin23
	.uleb128 Ltmp252-Ltmp251
	.uleb128 Ltmp253-Lfunc_begin23
	.byte	0
	.uleb128 Ltmp248-Lfunc_begin23
	.uleb128 Ltmp249-Ltmp248
	.uleb128 Ltmp250-Lfunc_begin23
	.byte	0
	.uleb128 Ltmp249-Lfunc_begin23
	.uleb128 Lfunc_end23-Ltmp249
	.byte	0
	.byte	0
Lcst_end6:
	.p2align	2

	.section	__TEXT,__text,regular,pure_instructions
	.p2align	4, 0x90
__ZN3std7process7Command3arg17hba0008df1bbb4839E:
Lfunc_begin24:
	.loc	16 607 0
	.cfi_startproc
	.cfi_personality 155, _rust_eh_personality
	.cfi_lsda 16, Lexception7
	pushq	%rbp
	.cfi_def_cfa_offset 16
	.cfi_offset %rbp, -16
	movq	%rsp, %rbp
	.cfi_def_cfa_register %rbp
	subq	$64, %rsp
	movq	%rsi, -64(%rbp)
	movq	%rdi, %rax
	movq	-64(%rbp), %rdi
	movq	%rax, -56(%rbp)
	movq	%rdi, -48(%rbp)
Ltmp273:
	movq	%rax, -24(%rbp)
Ltmp265:
Ltmp274:
	.loc	16 608 24 prologue_end
	callq	__ZN98_$LT$std..ffi..os_str..OsString$u20$as$u20$core..convert..AsRef$LT$std..ffi..os_str..OsStr$GT$$GT$6as_ref17h4aa0d1b549cdc629E
Ltmp275:
Ltmp266:
	.loc	16 0 24 is_stmt 0
	movq	%rdx, -40(%rbp)
	movq	%rax, -32(%rbp)
Ltmp276:
	.loc	16 608 24
	jmp	LBB24_3
Ltmp277:
LBB24_1:
Ltmp270:
	.loc	16 0 24
	movq	-48(%rbp), %rdi
	.loc	16 610 5 is_stmt 1
	callq	__ZN4core3ptr47drop_in_place$LT$std..ffi..os_str..OsString$GT$17h7b960380ef819b9fE
Ltmp271:
	jmp	LBB24_6
Ltmp278:
LBB24_2:
Ltmp269:
	.loc	16 0 5 is_stmt 0
	movq	%rax, %rcx
	movl	%edx, %eax
	movq	%rcx, -16(%rbp)
	movl	%eax, -8(%rbp)
	jmp	LBB24_1
Ltmp279:
LBB24_3:
Ltmp267:
	movq	-40(%rbp), %rdx
	movq	-32(%rbp), %rsi
	movq	-56(%rbp), %rdi
	.loc	16 608 9 is_stmt 1
	callq	__ZN3std3sys4unix7process14process_common7Command3arg17hdfe06f44e19d0682E
Ltmp268:
	jmp	LBB24_4
Ltmp280:
LBB24_4:
	.loc	16 0 9 is_stmt 0
	movq	-48(%rbp), %rdi
	.loc	16 610 5 is_stmt 1
	callq	__ZN4core3ptr47drop_in_place$LT$std..ffi..os_str..OsString$GT$17h7b960380ef819b9fE
	movq	-56(%rbp), %rax
	.loc	16 610 6 is_stmt 0
	addq	$64, %rsp
	popq	%rbp
	retq
Ltmp281:
LBB24_5:
Ltmp272:
	.loc	16 607 5 is_stmt 1
	callq	__ZN4core9panicking19panic_cannot_unwind17h1fbca7e1d7f56ae1E
Ltmp282:
LBB24_6:
	movq	-16(%rbp), %rdi
	callq	__Unwind_Resume
Ltmp283:
Lfunc_end24:
	.cfi_endproc
	.section	__TEXT,__gcc_except_tab
	.p2align	2
GCC_except_table24:
Lexception7:
	.byte	255
	.byte	255
	.byte	1
	.uleb128 Lcst_end7-Lcst_begin7
Lcst_begin7:
	.uleb128 Ltmp265-Lfunc_begin24
	.uleb128 Ltmp266-Ltmp265
	.uleb128 Ltmp269-Lfunc_begin24
	.byte	0
	.uleb128 Ltmp270-Lfunc_begin24
	.uleb128 Ltmp271-Ltmp270
	.uleb128 Ltmp272-Lfunc_begin24
	.byte	0
	.uleb128 Ltmp267-Lfunc_begin24
	.uleb128 Ltmp268-Ltmp267
	.uleb128 Ltmp269-Lfunc_begin24
	.byte	0
	.uleb128 Ltmp268-Lfunc_begin24
	.uleb128 Lfunc_end24-Ltmp268
	.byte	0
	.byte	0
Lcst_end7:
	.p2align	2

	.section	__TEXT,__text,regular,pure_instructions
	.p2align	4, 0x90
__ZN3std7process7Command3new17hbad00bb7cc138260E:
Lfunc_begin25:
	.loc	16 561 0
	.cfi_startproc
	.cfi_personality 155, _rust_eh_personality
	.cfi_lsda 16, Lexception8
	pushq	%rbp
	.cfi_def_cfa_offset 16
	.cfi_offset %rbp, -16
	movq	%rsp, %rbp
	.cfi_def_cfa_register %rbp
	subq	$272, %rsp
	movq	%rsi, -264(%rbp)
Ltmp292:
	movq	%rdi, %rax
	movq	-264(%rbp), %rdi
	movq	%rax, -256(%rbp)
	movq	%rax, -248(%rbp)
Ltmp284:
Ltmp293:
	.loc	16 562 44 prologue_end
	callq	__ZN98_$LT$std..ffi..os_str..OsString$u20$as$u20$core..convert..AsRef$LT$std..ffi..os_str..OsStr$GT$$GT$6as_ref17h4aa0d1b549cdc629E
Ltmp285:
	movq	%rdx, -240(%rbp)
	movq	%rax, -232(%rbp)
	jmp	LBB25_3
Ltmp294:
LBB25_1:
Ltmp289:
	.loc	16 0 44 is_stmt 0
	movq	-264(%rbp), %rdi
	.loc	16 563 5 is_stmt 1
	callq	__ZN4core3ptr47drop_in_place$LT$std..ffi..os_str..OsString$GT$17h7b960380ef819b9fE
Ltmp290:
	jmp	LBB25_6
Ltmp295:
LBB25_2:
Ltmp288:
	.loc	16 0 5 is_stmt 0
	movq	%rax, %rcx
	movl	%edx, %eax
	movq	%rcx, -16(%rbp)
	movl	%eax, -8(%rbp)
	jmp	LBB25_1
Ltmp296:
LBB25_3:
Ltmp286:
	movq	-240(%rbp), %rdx
	movq	-232(%rbp), %rsi
	leaq	-224(%rbp), %rdi
	.loc	16 562 26 is_stmt 1
	callq	__ZN3std3sys4unix7process14process_common7Command3new17hbc75e5b02e009ba8E
Ltmp287:
	jmp	LBB25_4
Ltmp297:
LBB25_4:
	.loc	16 0 26 is_stmt 0
	movq	-256(%rbp), %rdi
	.loc	16 562 9
	leaq	-224(%rbp), %rsi
	movl	$208, %edx
	callq	_memcpy
	movq	-264(%rbp), %rdi
	.loc	16 563 5 is_stmt 1
	callq	__ZN4core3ptr47drop_in_place$LT$std..ffi..os_str..OsString$GT$17h7b960380ef819b9fE
	movq	-248(%rbp), %rax
	.loc	16 563 6 is_stmt 0
	addq	$272, %rsp
	popq	%rbp
	retq
Ltmp298:
LBB25_5:
Ltmp291:
	.loc	16 561 5 is_stmt 1
	callq	__ZN4core9panicking19panic_cannot_unwind17h1fbca7e1d7f56ae1E
Ltmp299:
LBB25_6:
	movq	-16(%rbp), %rdi
	callq	__Unwind_Resume
Ltmp300:
Lfunc_end25:
	.cfi_endproc
	.section	__TEXT,__gcc_except_tab
	.p2align	2
GCC_except_table25:
Lexception8:
	.byte	255
	.byte	255
	.byte	1
	.uleb128 Lcst_end8-Lcst_begin8
Lcst_begin8:
	.uleb128 Ltmp284-Lfunc_begin25
	.uleb128 Ltmp285-Ltmp284
	.uleb128 Ltmp288-Lfunc_begin25
	.byte	0
	.uleb128 Ltmp289-Lfunc_begin25
	.uleb128 Ltmp290-Ltmp289
	.uleb128 Ltmp291-Lfunc_begin25
	.byte	0
	.uleb128 Ltmp286-Lfunc_begin25
	.uleb128 Ltmp287-Ltmp286
	.uleb128 Ltmp288-Lfunc_begin25
	.byte	0
	.uleb128 Ltmp287-Lfunc_begin25
	.uleb128 Lfunc_end25-Ltmp287
	.byte	0
	.byte	0
Lcst_end8:
	.p2align	2

	.section	__TEXT,__text,regular,pure_instructions
	.p2align	4, 0x90
__ZN3std7process7Command6stderr17h3bf7cca2d745c0daE:
Lfunc_begin26:
	.loc	16 863 0
	.cfi_startproc
	pushq	%rbp
	.cfi_def_cfa_offset 16
	.cfi_offset %rbp, -16
	movq	%rsp, %rbp
	.cfi_def_cfa_register %rbp
	subq	$32, %rsp
	movl	%edx, -32(%rbp)
	movl	%esi, %eax
	movl	-32(%rbp), %esi
	movl	%eax, -28(%rbp)
	movq	%rdi, %rax
	movl	-28(%rbp), %edi
	movq	%rax, -24(%rbp)
	movq	%rax, -16(%rbp)
	movl	%edi, -8(%rbp)
	movl	%esi, -4(%rbp)
Ltmp301:
	.loc	16 864 27 prologue_end
	callq	__ZN50_$LT$T$u20$as$u20$core..convert..Into$LT$U$GT$$GT$4into17h64ece591631fee93E
	movq	-24(%rbp), %rdi
	movl	%eax, %esi
	.loc	16 864 9 is_stmt 0
	callq	__ZN3std3sys4unix7process14process_common7Command6stderr17hd1d38402fa9f967aE
	movq	-24(%rbp), %rax
	.loc	16 866 6 is_stmt 1
	addq	$32, %rsp
	popq	%rbp
	retq
Ltmp302:
Lfunc_end26:
	.cfi_endproc

	.p2align	4, 0x90
__ZN4core3fmt9Arguments6new_v117ha0aaff7f77f8bcf8E:
Lfunc_begin27:
	.file	23 "/rustc/2c8cc343237b8f7d5a3c3703e3a87f2eb2c54a74/library/core/src/fmt" "mod.rs"
	.loc	23 399 0
	.cfi_startproc
	pushq	%rbp
	.cfi_def_cfa_offset 16
	.cfi_offset %rbp, -16
	movq	%rsp, %rbp
	.cfi_def_cfa_register %rbp
	subq	$160, %rsp
	movq	%r8, -152(%rbp)
	movq	%rcx, -144(%rbp)
	movq	%rdx, -136(%rbp)
	movq	%rsi, -128(%rbp)
	movq	%rdi, -120(%rbp)
	movq	%rdi, -112(%rbp)
	movq	%rsi, -32(%rbp)
	movq	%rdx, -24(%rbp)
	movq	%rcx, -16(%rbp)
	movq	%r8, -8(%rbp)
Ltmp303:
	.loc	23 400 12 prologue_end
	cmpq	%r8, %rdx
	jb	LBB27_2
	.loc	23 0 12 is_stmt 0
	movq	-136(%rbp), %rax
	movq	-152(%rbp), %rcx
	.loc	23 400 56
	addq	$1, %rcx
	.loc	23 400 41
	cmpq	%rcx, %rax
	seta	%al
	.loc	23 400 12
	andb	$1, %al
	movb	%al, -97(%rbp)
	jmp	LBB27_3
LBB27_2:
	movb	$1, -97(%rbp)
LBB27_3:
	testb	$1, -97(%rbp)
	jne	LBB27_5
	.loc	23 0 12
	movq	-112(%rbp), %rax
	movq	-120(%rbp), %rcx
	movq	-152(%rbp), %rdx
	movq	-144(%rbp), %rsi
	movq	-136(%rbp), %rdi
	movq	-128(%rbp), %r8
	.loc	23 403 34 is_stmt 1
	movq	$0, -48(%rbp)
	.loc	23 403 9 is_stmt 0
	movq	%r8, 16(%rcx)
	movq	%rdi, 24(%rcx)
	movq	-48(%rbp), %r8
	movq	-40(%rbp), %rdi
	movq	%r8, (%rcx)
	movq	%rdi, 8(%rcx)
	movq	%rsi, 32(%rcx)
	movq	%rdx, 40(%rcx)
	.loc	23 404 6 is_stmt 1
	addq	$160, %rsp
	popq	%rbp
	retq
LBB27_5:
	.loc	23 401 13
	leaq	l___unnamed_4(%rip), %rsi
	leaq	l___unnamed_5(%rip), %rcx
	xorl	%eax, %eax
	movl	%eax, %r8d
	leaq	-96(%rbp), %rdi
	movq	%rdi, -160(%rbp)
	movl	$1, %edx
	callq	__ZN4core3fmt9Arguments6new_v117ha0aaff7f77f8bcf8E
	movq	-160(%rbp), %rdi
	leaq	l___unnamed_6(%rip), %rsi
	callq	__ZN4core9panicking9panic_fmt17h9b5d807e24bcaaedE
Ltmp304:
Lfunc_end27:
	.cfi_endproc

	.p2align	4, 0x90
__ZN4core3mem12maybe_uninit20MaybeUninit$LT$T$GT$16assume_init_drop17h143c1ff1a31f0820E:
Lfunc_begin28:
	.file	24 "/rustc/2c8cc343237b8f7d5a3c3703e3a87f2eb2c54a74/library/core/src/mem" "maybe_uninit.rs"
	.loc	24 724 0
	.cfi_startproc
	pushq	%rbp
	.cfi_def_cfa_offset 16
	.cfi_offset %rbp, -16
	movq	%rsp, %rbp
	.cfi_def_cfa_register %rbp
	subq	$16, %rsp
	movq	%rdi, -16(%rbp)
Ltmp305:
	.loc	24 728 37 prologue_end
	movq	%rdi, -8(%rbp)
	.loc	24 728 18 is_stmt 0
	callq	__ZN4core3ptr47drop_in_place$LT$std..ffi..os_str..OsString$GT$17h7b960380ef819b9fE
	.loc	24 729 6 is_stmt 1
	addq	$16, %rsp
	popq	%rbp
	retq
Ltmp306:
Lfunc_end28:
	.cfi_endproc

	.p2align	4, 0x90
__ZN4core3mem12maybe_uninit20MaybeUninit$LT$T$GT$16assume_init_drop17h229f9bba24908c80E:
Lfunc_begin29:
	.loc	24 724 0
	.cfi_startproc
	pushq	%rbp
	.cfi_def_cfa_offset 16
	.cfi_offset %rbp, -16
	movq	%rsp, %rbp
	.cfi_def_cfa_register %rbp
	subq	$16, %rsp
	movq	%rdi, -16(%rbp)
Ltmp307:
	.loc	24 728 37 prologue_end
	movq	%rdi, -8(%rbp)
	.loc	24 728 18 is_stmt 0
	callq	__ZN4core3ptr75drop_in_place$LT$core..option..Option$LT$std..ffi..os_str..OsString$GT$$GT$17h0dd831f3d2382508E
	.loc	24 729 6 is_stmt 1
	addq	$16, %rsp
	popq	%rbp
	retq
Ltmp308:
Lfunc_end29:
	.cfi_endproc

	.p2align	4, 0x90
__ZN4core3mem7replace17hf6bae2c3745ee97dE:
Lfunc_begin30:
	.file	25 "/rustc/2c8cc343237b8f7d5a3c3703e3a87f2eb2c54a74/library/core/src/mem" "mod.rs"
	.loc	25 905 0
	.cfi_startproc
	pushq	%rbp
	.cfi_def_cfa_offset 16
	.cfi_offset %rbp, -16
	movq	%rsp, %rbp
	.cfi_def_cfa_register %rbp
	subq	$184, %rsp
	movq	%rdi, -184(%rbp)
	movq	%rsi, -176(%rbp)
	movq	%rdx, -168(%rbp)
	movq	%rdi, -112(%rbp)
	movq	%rsi, -104(%rbp)
	movq	%rdx, -96(%rbp)
Ltmp309:
	.loc	25 910 32 prologue_end
	movq	%rdi, -88(%rbp)
Ltmp310:
	.loc	3 1157 34
	leaq	-128(%rbp), %rax
	movq	%rax, -80(%rbp)
	.loc	3 1157 9 is_stmt 0
	movq	(%rdi), %rax
	movq	%rax, -128(%rbp)
	movq	8(%rdi), %rax
	movq	%rax, -120(%rbp)
	.loc	3 1158 9 is_stmt 1
	movq	-128(%rbp), %rcx
	movq	%rcx, -160(%rbp)
	movq	-120(%rbp), %rax
	movq	%rax, -152(%rbp)
	movq	%rcx, -72(%rbp)
	movq	%rax, -64(%rbp)
	.loc	3 0 9 is_stmt 0
	movq	-152(%rbp), %rdx
	movq	-160(%rbp), %rax
	movq	-184(%rbp), %rcx
	movq	-168(%rbp), %rsi
	movq	-176(%rbp), %rdi
Ltmp311:
	.loc	24 627 38 is_stmt 1
	movq	%rax, -40(%rbp)
	movq	%rdx, -32(%rbp)
Ltmp312:
	.loc	7 89 9
	movq	%rax, -24(%rbp)
	movq	%rdx, -16(%rbp)
Ltmp313:
	.loc	25 911 20
	movq	%rcx, -8(%rbp)
	.loc	25 911 26 is_stmt 0
	movq	%rdi, -144(%rbp)
	movq	%rsi, -136(%rbp)
Ltmp314:
	.loc	3 1354 9 is_stmt 1
	movq	-144(%rbp), %rsi
	movq	-136(%rbp), %rdi
	movq	%rdi, 8(%rcx)
	movq	%rsi, (%rcx)
Ltmp315:
	.loc	25 914 2
	addq	$184, %rsp
	popq	%rbp
	retq
Ltmp316:
Lfunc_end30:
	.cfi_endproc

	.p2align	4, 0x90
__ZN4core3mem7replace17hfa8daa46e0d9abeeE:
Lfunc_begin31:
	.loc	25 905 0
	.cfi_startproc
	pushq	%rbp
	.cfi_def_cfa_offset 16
	.cfi_offset %rbp, -16
	movq	%rsp, %rbp
	.cfi_def_cfa_register %rbp
	subq	$208, %rsp
	movq	%rdx, -208(%rbp)
Ltmp317:
	movq	%rsi, -200(%rbp)
	movq	%rdi, -192(%rbp)
	movq	%rdi, -184(%rbp)
	movq	%rsi, -48(%rbp)
Ltmp318:
	.loc	25 910 32 prologue_end
	movq	%rsi, -40(%rbp)
Ltmp319:
	.loc	3 1157 34
	leaq	-144(%rbp), %rax
	movq	%rax, -32(%rbp)
	.loc	3 1157 9 is_stmt 0
	movq	(%rsi), %rax
	movq	%rax, -144(%rbp)
	movq	8(%rsi), %rax
	movq	%rax, -136(%rbp)
	movq	16(%rsi), %rax
	movq	%rax, -128(%rbp)
	movq	24(%rsi), %rax
	movq	%rax, -120(%rbp)
	.loc	3 1158 9 is_stmt 1
	movq	-144(%rbp), %rax
	movq	%rax, -112(%rbp)
	movq	-136(%rbp), %rax
	movq	%rax, -104(%rbp)
	movq	-128(%rbp), %rax
	movq	%rax, -96(%rbp)
	movq	-120(%rbp), %rax
	movq	%rax, -88(%rbp)
Ltmp320:
	.loc	3 0 9 is_stmt 0
	movq	-184(%rbp), %rax
	movq	-200(%rbp), %rcx
	movq	-208(%rbp), %rdx
	movq	-192(%rbp), %rsi
Ltmp321:
	.loc	24 627 38 is_stmt 1
	movq	-112(%rbp), %rdi
	movq	%rdi, -80(%rbp)
	movq	-104(%rbp), %rdi
	movq	%rdi, -72(%rbp)
	movq	-96(%rbp), %rdi
	movq	%rdi, -64(%rbp)
	movq	-88(%rbp), %rdi
	movq	%rdi, -56(%rbp)
Ltmp322:
	.loc	7 89 9
	movq	-80(%rbp), %rdi
	movq	%rdi, (%rsi)
	movq	-72(%rbp), %rdi
	movq	%rdi, 8(%rsi)
	movq	-64(%rbp), %rdi
	movq	%rdi, 16(%rsi)
	movq	-56(%rbp), %rdi
	movq	%rdi, 24(%rsi)
Ltmp323:
	.loc	25 911 20
	movq	%rcx, -8(%rbp)
	.loc	25 911 26 is_stmt 0
	movq	(%rdx), %rsi
	movq	%rsi, -176(%rbp)
	movq	8(%rdx), %rsi
	movq	%rsi, -168(%rbp)
	movq	16(%rdx), %rsi
	movq	%rsi, -160(%rbp)
	movq	24(%rdx), %rdx
	movq	%rdx, -152(%rbp)
Ltmp324:
	.loc	3 1354 9 is_stmt 1
	movq	-176(%rbp), %rdx
	movq	%rdx, (%rcx)
	movq	-168(%rbp), %rdx
	movq	%rdx, 8(%rcx)
	movq	-160(%rbp), %rdx
	movq	%rdx, 16(%rcx)
	movq	-152(%rbp), %rdx
	movq	%rdx, 24(%rcx)
Ltmp325:
	.loc	25 914 2
	addq	$208, %rsp
	popq	%rbp
	retq
Ltmp326:
Lfunc_end31:
	.cfi_endproc

	.p2align	4, 0x90
__ZN4core3ops8function6FnOnce40call_once$u7b$$u7b$vtable.shim$u7d$$u7d$17h69d42b6605530243E:
Lfunc_begin32:
	.file	26 "/rustc/2c8cc343237b8f7d5a3c3703e3a87f2eb2c54a74/library/core/src/ops" "function.rs"
	.loc	26 250 0
	.cfi_startproc
	pushq	%rbp
	.cfi_def_cfa_offset 16
	.cfi_offset %rbp, -16
	movq	%rsp, %rbp
	.cfi_def_cfa_register %rbp
	subq	$16, %rsp
	movq	%rdi, -8(%rbp)
Ltmp327:
	.loc	26 250 5 prologue_end
	movq	(%rdi), %rdi
	callq	__ZN4core3ops8function6FnOnce9call_once17h338ca477ccf23ef3E
	addq	$16, %rsp
	popq	%rbp
	retq
Ltmp328:
Lfunc_end32:
	.cfi_endproc

	.p2align	4, 0x90
__ZN4core3ops8function6FnOnce9call_once17h2846e05fc37b74d5E:
Lfunc_begin33:
	.loc	26 250 0
	.cfi_startproc
	pushq	%rbp
	.cfi_def_cfa_offset 16
	.cfi_offset %rbp, -16
	movq	%rsp, %rbp
	.cfi_def_cfa_register %rbp
	subq	$16, %rsp
	movq	%rdi, -8(%rbp)
Ltmp329:
	.loc	26 250 5 prologue_end
	callq	*%rdi
	addq	$16, %rsp
	popq	%rbp
	retq
Ltmp330:
Lfunc_end33:
	.cfi_endproc

	.p2align	4, 0x90
__ZN4core3ops8function6FnOnce9call_once17h338ca477ccf23ef3E:
Lfunc_begin34:
	.loc	26 250 0
	.cfi_startproc
	.cfi_personality 155, _rust_eh_personality
	.cfi_lsda 16, Lexception9
	pushq	%rbp
	.cfi_def_cfa_offset 16
	.cfi_offset %rbp, -16
	movq	%rsp, %rbp
	.cfi_def_cfa_register %rbp
	subq	$48, %rsp
	movq	%rdi, -32(%rbp)
Ltmp331:
	leaq	-32(%rbp), %rdi
Ltmp334:
	.loc	26 250 5 prologue_end
	callq	__ZN3std2rt10lang_start28_$u7b$$u7b$closure$u7d$$u7d$17h8663439539e04202E
Ltmp332:
	movl	%eax, -36(%rbp)
	jmp	LBB34_3
LBB34_1:
	movq	-16(%rbp), %rdi
	callq	__Unwind_Resume
LBB34_2:
Ltmp333:
	.loc	26 0 5 is_stmt 0
	movq	%rax, %rcx
	movl	%edx, %eax
	movq	%rcx, -16(%rbp)
	movl	%eax, -8(%rbp)
	jmp	LBB34_1
LBB34_3:
	movl	-36(%rbp), %eax
	.loc	26 250 5
	addq	$48, %rsp
	popq	%rbp
	retq
Ltmp335:
Lfunc_end34:
	.cfi_endproc
	.section	__TEXT,__gcc_except_tab
	.p2align	2
GCC_except_table34:
Lexception9:
	.byte	255
	.byte	255
	.byte	1
	.uleb128 Lcst_end9-Lcst_begin9
Lcst_begin9:
	.uleb128 Ltmp331-Lfunc_begin34
	.uleb128 Ltmp332-Ltmp331
	.uleb128 Ltmp333-Lfunc_begin34
	.byte	0
	.uleb128 Ltmp332-Lfunc_begin34
	.uleb128 Lfunc_end34-Ltmp332
	.byte	0
	.byte	0
Lcst_end9:
	.p2align	2

	.section	__TEXT,__text,regular,pure_instructions
	.p2align	4, 0x90
__ZN4core3ptr101drop_in_place$LT$std..io..error..ErrorData$LT$alloc..boxed..Box$LT$std..io..error..Custom$GT$$GT$$GT$17he30a1a7ee87d105bE:
Lfunc_begin35:
	.loc	3 490 0 is_stmt 1
	.cfi_startproc
	pushq	%rbp
	.cfi_def_cfa_offset 16
	.cfi_offset %rbp, -16
	movq	%rsp, %rbp
	.cfi_def_cfa_register %rbp
	subq	$16, %rsp
	movq	%rdi, -16(%rbp)
	movq	%rdi, -8(%rbp)
Ltmp336:
	.loc	3 490 1 prologue_end
	movb	(%rdi), %al
	subb	$3, %al
	jb	LBB35_2
	jmp	LBB35_1
LBB35_1:
	.loc	3 0 1 is_stmt 0
	movq	-16(%rbp), %rdi
	.loc	3 490 1
	addq	$8, %rdi
	callq	__ZN4core3ptr68drop_in_place$LT$alloc..boxed..Box$LT$std..io..error..Custom$GT$$GT$17h2aa16bf3d2d378ebE
LBB35_2:
	addq	$16, %rsp
	popq	%rbp
	retq
Ltmp337:
Lfunc_end35:
	.cfi_endproc

	.p2align	4, 0x90
__ZN4core3ptr118drop_in_place$LT$alloc..boxed..Box$LT$dyn$u20$core..error..Error$u2b$core..marker..Send$u2b$core..marker..Sync$GT$$GT$17h7c8fa784bc4db52cE:
Lfunc_begin36:
	.loc	3 490 0 is_stmt 1
	.cfi_startproc
	.cfi_personality 155, _rust_eh_personality
	.cfi_lsda 16, Lexception10
	pushq	%rbp
	.cfi_def_cfa_offset 16
	.cfi_offset %rbp, -16
	movq	%rsp, %rbp
	.cfi_def_cfa_register %rbp
	subq	$32, %rsp
	movq	%rdi, %rax
	movq	%rax, -32(%rbp)
	movq	%rax, -24(%rbp)
Ltmp344:
	.loc	3 490 1 prologue_end
	movq	(%rax), %rdi
	movq	8(%rax), %rax
	movq	(%rax), %rax
Ltmp338:
	callq	*%rax
Ltmp339:
	jmp	LBB36_3
LBB36_1:
	.loc	3 0 1 is_stmt 0
	movq	-32(%rbp), %rax
	.loc	3 490 1
	movq	(%rax), %rdi
	movq	8(%rax), %rsi
Ltmp341:
	callq	__ZN5alloc5alloc8box_free17h677a55d62422c191E
Ltmp342:
	jmp	LBB36_5
LBB36_2:
Ltmp340:
	.loc	3 0 1
	movq	%rax, %rcx
	movl	%edx, %eax
	movq	%rcx, -16(%rbp)
	movl	%eax, -8(%rbp)
	jmp	LBB36_1
LBB36_3:
	movq	-32(%rbp), %rax
	.loc	3 490 1
	movq	(%rax), %rdi
	movq	8(%rax), %rsi
	callq	__ZN5alloc5alloc8box_free17h677a55d62422c191E
	addq	$32, %rsp
	popq	%rbp
	retq
LBB36_4:
Ltmp343:
	callq	__ZN4core9panicking19panic_cannot_unwind17h1fbca7e1d7f56ae1E
LBB36_5:
	movq	-16(%rbp), %rdi
	callq	__Unwind_Resume
Ltmp345:
Lfunc_end36:
	.cfi_endproc
	.section	__TEXT,__gcc_except_tab
	.p2align	2
GCC_except_table36:
Lexception10:
	.byte	255
	.byte	255
	.byte	1
	.uleb128 Lcst_end10-Lcst_begin10
Lcst_begin10:
	.uleb128 Ltmp338-Lfunc_begin36
	.uleb128 Ltmp339-Ltmp338
	.uleb128 Ltmp340-Lfunc_begin36
	.byte	0
	.uleb128 Ltmp341-Lfunc_begin36
	.uleb128 Ltmp342-Ltmp341
	.uleb128 Ltmp343-Lfunc_begin36
	.byte	0
	.uleb128 Ltmp342-Lfunc_begin36
	.uleb128 Lfunc_end36-Ltmp342
	.byte	0
	.byte	0
Lcst_end10:
	.p2align	2

	.section	__TEXT,__text,regular,pure_instructions
	.p2align	4, 0x90
__ZN4core3ptr152drop_in_place$LT$alloc..collections..btree..map..BTreeMap$LT$std..ffi..os_str..OsString$C$core..option..Option$LT$std..ffi..os_str..OsString$GT$$GT$$GT$17h552a9ae68ed470e9E:
Lfunc_begin37:
	.loc	3 490 0 is_stmt 1
	.cfi_startproc
	pushq	%rbp
	.cfi_def_cfa_offset 16
	.cfi_offset %rbp, -16
	movq	%rsp, %rbp
	.cfi_def_cfa_register %rbp
	subq	$16, %rsp
	movq	%rdi, -8(%rbp)
Ltmp346:
	.loc	3 490 1 prologue_end
	callq	__ZN99_$LT$alloc..collections..btree..map..BTreeMap$LT$K$C$V$C$A$GT$$u20$as$u20$core..ops..drop..Drop$GT$4drop17h2ff08ed666264932E
	addq	$16, %rsp
	popq	%rbp
	retq
Ltmp347:
Lfunc_end37:
	.cfi_endproc

	.p2align	4, 0x90
__ZN4core3ptr152drop_in_place$LT$alloc..collections..btree..map..IntoIter$LT$std..ffi..os_str..OsString$C$core..option..Option$LT$std..ffi..os_str..OsString$GT$$GT$$GT$17hc87190dcf4a0e282E:
Lfunc_begin38:
	.loc	3 490 0
	.cfi_startproc
	pushq	%rbp
	.cfi_def_cfa_offset 16
	.cfi_offset %rbp, -16
	movq	%rsp, %rbp
	.cfi_def_cfa_register %rbp
	subq	$16, %rsp
	movq	%rdi, -8(%rbp)
Ltmp348:
	.loc	3 490 1 prologue_end
	callq	__ZN99_$LT$alloc..collections..btree..map..IntoIter$LT$K$C$V$C$A$GT$$u20$as$u20$core..ops..drop..Drop$GT$4drop17h758452fce96284f9E
	addq	$16, %rsp
	popq	%rbp
	retq
Ltmp349:
Lfunc_end38:
	.cfi_endproc

	.p2align	4, 0x90
__ZN4core3ptr203drop_in_place$LT$dyn$u20$core..ops..function..FnMut$LT$$LP$$RP$$GT$$u2b$Output$u20$$u3d$$u20$core..result..Result$LT$$LP$$RP$$C$std..io..error..Error$GT$$u2b$core..marker..Send$u2b$core..marker..Sync$GT$17hb45ea22125c70ec1E:
Lfunc_begin39:
	.loc	3 490 0
	.cfi_startproc
	pushq	%rbp
	.cfi_def_cfa_offset 16
	.cfi_offset %rbp, -16
	movq	%rsp, %rbp
	.cfi_def_cfa_register %rbp
	subq	$16, %rsp
	movq	%rdi, -16(%rbp)
	movq	%rsi, -8(%rbp)
Ltmp350:
	.loc	3 490 1 prologue_end
	callq	*(%rsi)
	addq	$16, %rsp
	popq	%rbp
	retq
Ltmp351:
Lfunc_end39:
	.cfi_endproc

	.p2align	4, 0x90
__ZN4core3ptr228drop_in_place$LT$alloc..boxed..Box$LT$dyn$u20$core..ops..function..FnMut$LT$$LP$$RP$$GT$$u2b$Output$u20$$u3d$$u20$core..result..Result$LT$$LP$$RP$$C$std..io..error..Error$GT$$u2b$core..marker..Send$u2b$core..marker..Sync$GT$$GT$17h3bed0960047564ffE:
Lfunc_begin40:
	.loc	3 490 0
	.cfi_startproc
	.cfi_personality 155, _rust_eh_personality
	.cfi_lsda 16, Lexception11
	pushq	%rbp
	.cfi_def_cfa_offset 16
	.cfi_offset %rbp, -16
	movq	%rsp, %rbp
	.cfi_def_cfa_register %rbp
	subq	$32, %rsp
	movq	%rdi, %rax
	movq	%rax, -32(%rbp)
	movq	%rax, -24(%rbp)
Ltmp358:
	.loc	3 490 1 prologue_end
	movq	(%rax), %rdi
	movq	8(%rax), %rax
	movq	(%rax), %rax
Ltmp352:
	callq	*%rax
Ltmp353:
	jmp	LBB40_3
LBB40_1:
	.loc	3 0 1 is_stmt 0
	movq	-32(%rbp), %rax
	.loc	3 490 1
	movq	(%rax), %rdi
	movq	8(%rax), %rsi
Ltmp355:
	callq	__ZN5alloc5alloc8box_free17hb63098977a0c5347E
Ltmp356:
	jmp	LBB40_5
LBB40_2:
Ltmp354:
	.loc	3 0 1
	movq	%rax, %rcx
	movl	%edx, %eax
	movq	%rcx, -16(%rbp)
	movl	%eax, -8(%rbp)
	jmp	LBB40_1
LBB40_3:
	movq	-32(%rbp), %rax
	.loc	3 490 1
	movq	(%rax), %rdi
	movq	8(%rax), %rsi
	callq	__ZN5alloc5alloc8box_free17hb63098977a0c5347E
	addq	$32, %rsp
	popq	%rbp
	retq
LBB40_4:
Ltmp357:
	callq	__ZN4core9panicking19panic_cannot_unwind17h1fbca7e1d7f56ae1E
LBB40_5:
	movq	-16(%rbp), %rdi
	callq	__Unwind_Resume
Ltmp359:
Lfunc_end40:
	.cfi_endproc
	.section	__TEXT,__gcc_except_tab
	.p2align	2
GCC_except_table40:
Lexception11:
	.byte	255
	.byte	255
	.byte	1
	.uleb128 Lcst_end11-Lcst_begin11
Lcst_begin11:
	.uleb128 Ltmp352-Lfunc_begin40
	.uleb128 Ltmp353-Ltmp352
	.uleb128 Ltmp354-Lfunc_begin40
	.byte	0
	.uleb128 Ltmp355-Lfunc_begin40
	.uleb128 Ltmp356-Ltmp355
	.uleb128 Ltmp357-Lfunc_begin40
	.byte	0
	.uleb128 Ltmp356-Lfunc_begin40
	.uleb128 Lfunc_end40-Ltmp356
	.byte	0
	.byte	0
Lcst_end11:
	.p2align	2

	.section	__TEXT,__text,regular,pure_instructions
	.p2align	4, 0x90
__ZN4core3ptr238drop_in_place$LT$$u5b$alloc..boxed..Box$LT$dyn$u20$core..ops..function..FnMut$LT$$LP$$RP$$GT$$u2b$Output$u20$$u3d$$u20$core..result..Result$LT$$LP$$RP$$C$std..io..error..Error$GT$$u2b$core..marker..Send$u2b$core..marker..Sync$GT$$u5d$$GT$17hb3fee6604f2b7690E:
Lfunc_begin41:
	.loc	3 490 0 is_stmt 1
	.cfi_startproc
	.cfi_personality 155, _rust_eh_personality
	.cfi_lsda 16, Lexception12
	pushq	%rbp
	.cfi_def_cfa_offset 16
	.cfi_offset %rbp, -16
	movq	%rsp, %rbp
	.cfi_def_cfa_register %rbp
	subq	$80, %rsp
	movq	%rdi, -64(%rbp)
	movq	%rsi, -56(%rbp)
	movq	%rdi, -32(%rbp)
	movq	%rsi, -24(%rbp)
Ltmp371:
	.loc	3 490 1 prologue_end
	xorl	%eax, %eax
	testb	$1, %al
	jne	LBB41_1
	jmp	LBB41_2
LBB41_1:
	movq	$0, -48(%rbp)
	jmp	LBB41_11
LBB41_2:
	.loc	3 0 1 is_stmt 0
	movq	-56(%rbp), %rax
	movq	-64(%rbp), %rcx
	.loc	3 490 1
	movq	%rcx, -40(%rbp)
	shlq	$4, %rax
	addq	-40(%rbp), %rax
	movq	%rax, -72(%rbp)
LBB41_3:
	.loc	3 0 1
	movq	-72(%rbp), %rax
	.loc	3 490 1
	cmpq	%rax, -40(%rbp)
	je	LBB41_5
	movq	-40(%rbp), %rdi
	movq	%rdi, %rax
	addq	$16, %rax
	movq	%rax, -40(%rbp)
Ltmp360:
	callq	__ZN4core3ptr228drop_in_place$LT$alloc..boxed..Box$LT$dyn$u20$core..ops..function..FnMut$LT$$LP$$RP$$GT$$u2b$Output$u20$$u3d$$u20$core..result..Result$LT$$LP$$RP$$C$std..io..error..Error$GT$$u2b$core..marker..Send$u2b$core..marker..Sync$GT$$GT$17h3bed0960047564ffE
Ltmp361:
	jmp	LBB41_3
LBB41_5:
	addq	$80, %rsp
	popq	%rbp
	retq
LBB41_6:
	.loc	3 0 1
	movq	-72(%rbp), %rax
	.loc	3 490 1
	cmpq	%rax, -40(%rbp)
	je	LBB41_9
	jmp	LBB41_8
LBB41_7:
Ltmp362:
	.loc	3 0 1
	movq	%rax, %rcx
	movl	%edx, %eax
	movq	%rcx, -16(%rbp)
	movl	%eax, -8(%rbp)
	jmp	LBB41_6
LBB41_8:
	.loc	3 490 1
	movq	-40(%rbp), %rdi
	movq	%rdi, %rax
	addq	$16, %rax
	movq	%rax, -40(%rbp)
Ltmp363:
	callq	__ZN4core3ptr228drop_in_place$LT$alloc..boxed..Box$LT$dyn$u20$core..ops..function..FnMut$LT$$LP$$RP$$GT$$u2b$Output$u20$$u3d$$u20$core..result..Result$LT$$LP$$RP$$C$std..io..error..Error$GT$$u2b$core..marker..Send$u2b$core..marker..Sync$GT$$GT$17h3bed0960047564ffE
Ltmp364:
	jmp	LBB41_6
LBB41_9:
	movq	-16(%rbp), %rdi
	callq	__Unwind_Resume
LBB41_10:
Ltmp370:
	callq	__ZN4core9panicking19panic_cannot_unwind17h1fbca7e1d7f56ae1E
LBB41_11:
	.loc	3 0 1
	movq	-56(%rbp), %rax
	.loc	3 490 1
	cmpq	%rax, -48(%rbp)
	je	LBB41_5
	.loc	3 0 1
	movq	-64(%rbp), %rdi
	.loc	3 490 1
	movq	-48(%rbp), %rax
	movq	%rax, %rcx
	shlq	$4, %rcx
	addq	%rcx, %rdi
	incq	%rax
	movq	%rax, -48(%rbp)
Ltmp365:
	callq	__ZN4core3ptr228drop_in_place$LT$alloc..boxed..Box$LT$dyn$u20$core..ops..function..FnMut$LT$$LP$$RP$$GT$$u2b$Output$u20$$u3d$$u20$core..result..Result$LT$$LP$$RP$$C$std..io..error..Error$GT$$u2b$core..marker..Send$u2b$core..marker..Sync$GT$$GT$17h3bed0960047564ffE
Ltmp366:
	jmp	LBB41_11
LBB41_13:
	.loc	3 0 1
	movq	-56(%rbp), %rax
	.loc	3 490 1
	cmpq	%rax, -48(%rbp)
	je	LBB41_9
	jmp	LBB41_15
LBB41_14:
Ltmp367:
	.loc	3 0 1
	movq	%rax, %rcx
	movl	%edx, %eax
	movq	%rcx, -16(%rbp)
	movl	%eax, -8(%rbp)
	jmp	LBB41_13
LBB41_15:
	movq	-64(%rbp), %rdi
	.loc	3 490 1
	movq	-48(%rbp), %rax
	movq	%rax, %rcx
	shlq	$4, %rcx
	addq	%rcx, %rdi
	incq	%rax
	movq	%rax, -48(%rbp)
Ltmp368:
	callq	__ZN4core3ptr228drop_in_place$LT$alloc..boxed..Box$LT$dyn$u20$core..ops..function..FnMut$LT$$LP$$RP$$GT$$u2b$Output$u20$$u3d$$u20$core..result..Result$LT$$LP$$RP$$C$std..io..error..Error$GT$$u2b$core..marker..Send$u2b$core..marker..Sync$GT$$GT$17h3bed0960047564ffE
Ltmp369:
	jmp	LBB41_13
Ltmp372:
Lfunc_end41:
	.cfi_endproc
	.section	__TEXT,__gcc_except_tab
	.p2align	2
GCC_except_table41:
Lexception12:
	.byte	255
	.byte	255
	.byte	1
	.uleb128 Lcst_end12-Lcst_begin12
Lcst_begin12:
	.uleb128 Ltmp360-Lfunc_begin41
	.uleb128 Ltmp361-Ltmp360
	.uleb128 Ltmp362-Lfunc_begin41
	.byte	0
	.uleb128 Ltmp363-Lfunc_begin41
	.uleb128 Ltmp364-Ltmp363
	.uleb128 Ltmp370-Lfunc_begin41
	.byte	0
	.uleb128 Ltmp364-Lfunc_begin41
	.uleb128 Ltmp365-Ltmp364
	.byte	0
	.byte	0
	.uleb128 Ltmp365-Lfunc_begin41
	.uleb128 Ltmp366-Ltmp365
	.uleb128 Ltmp367-Lfunc_begin41
	.byte	0
	.uleb128 Ltmp368-Lfunc_begin41
	.uleb128 Ltmp369-Ltmp368
	.uleb128 Ltmp370-Lfunc_begin41
	.byte	0
Lcst_end12:
	.p2align	2

	.section	__TEXT,__text,regular,pure_instructions
	.p2align	4, 0x90
__ZN4core3ptr250drop_in_place$LT$$LT$alloc..collections..btree..map..IntoIter$LT$K$C$V$C$A$GT$$u20$as$u20$core..ops..drop..Drop$GT$..drop..DropGuard$LT$std..ffi..os_str..OsString$C$core..option..Option$LT$std..ffi..os_str..OsString$GT$$C$alloc..alloc..Global$GT$$GT$17h30d7c615d45f5cddE:
Lfunc_begin42:
	.loc	3 490 0 is_stmt 1
	.cfi_startproc
	pushq	%rbp
	.cfi_def_cfa_offset 16
	.cfi_offset %rbp, -16
	movq	%rsp, %rbp
	.cfi_def_cfa_register %rbp
	subq	$16, %rsp
	movq	%rdi, -8(%rbp)
Ltmp373:
	.loc	3 490 1 prologue_end
	callq	__ZN174_$LT$$LT$alloc..collections..btree..map..IntoIter$LT$K$C$V$C$A$GT$$u20$as$u20$core..ops..drop..Drop$GT$..drop..DropGuard$LT$K$C$V$C$A$GT$$u20$as$u20$core..ops..drop..Drop$GT$4drop17h561d90c89cb8e564E
	addq	$16, %rsp
	popq	%rbp
	retq
Ltmp374:
Lfunc_end42:
	.cfi_endproc

	.p2align	4, 0x90
__ZN4core3ptr251drop_in_place$LT$alloc..vec..Vec$LT$alloc..boxed..Box$LT$dyn$u20$core..ops..function..FnMut$LT$$LP$$RP$$GT$$u2b$Output$u20$$u3d$$u20$core..result..Result$LT$$LP$$RP$$C$std..io..error..Error$GT$$u2b$core..marker..Send$u2b$core..marker..Sync$GT$$GT$$GT$17h54be951796f7ef66E:
Lfunc_begin43:
	.loc	3 490 0
	.cfi_startproc
	.cfi_personality 155, _rust_eh_personality
	.cfi_lsda 16, Lexception13
	pushq	%rbp
	.cfi_def_cfa_offset 16
	.cfi_offset %rbp, -16
	movq	%rsp, %rbp
	.cfi_def_cfa_register %rbp
	subq	$32, %rsp
	movq	%rdi, -32(%rbp)
	movq	%rdi, -24(%rbp)
Ltmp375:
Ltmp381:
	.loc	3 490 1 prologue_end
	callq	__ZN70_$LT$alloc..vec..Vec$LT$T$C$A$GT$$u20$as$u20$core..ops..drop..Drop$GT$4drop17h14e1a050ac74dab6E
Ltmp376:
	jmp	LBB43_3
LBB43_1:
Ltmp378:
	.loc	3 0 1 is_stmt 0
	movq	-32(%rbp), %rdi
	.loc	3 490 1
	callq	__ZN4core3ptr258drop_in_place$LT$alloc..raw_vec..RawVec$LT$alloc..boxed..Box$LT$dyn$u20$core..ops..function..FnMut$LT$$LP$$RP$$GT$$u2b$Output$u20$$u3d$$u20$core..result..Result$LT$$LP$$RP$$C$std..io..error..Error$GT$$u2b$core..marker..Send$u2b$core..marker..Sync$GT$$GT$$GT$17hec146e7240cfcf45E
Ltmp379:
	jmp	LBB43_5
LBB43_2:
Ltmp377:
	.loc	3 0 1
	movq	%rax, %rcx
	movl	%edx, %eax
	movq	%rcx, -16(%rbp)
	movl	%eax, -8(%rbp)
	jmp	LBB43_1
LBB43_3:
	movq	-32(%rbp), %rdi
	.loc	3 490 1
	callq	__ZN4core3ptr258drop_in_place$LT$alloc..raw_vec..RawVec$LT$alloc..boxed..Box$LT$dyn$u20$core..ops..function..FnMut$LT$$LP$$RP$$GT$$u2b$Output$u20$$u3d$$u20$core..result..Result$LT$$LP$$RP$$C$std..io..error..Error$GT$$u2b$core..marker..Send$u2b$core..marker..Sync$GT$$GT$$GT$17hec146e7240cfcf45E
	addq	$32, %rsp
	popq	%rbp
	retq
LBB43_4:
Ltmp380:
	callq	__ZN4core9panicking19panic_cannot_unwind17h1fbca7e1d7f56ae1E
LBB43_5:
	movq	-16(%rbp), %rdi
	callq	__Unwind_Resume
Ltmp382:
Lfunc_end43:
	.cfi_endproc
	.section	__TEXT,__gcc_except_tab
	.p2align	2
GCC_except_table43:
Lexception13:
	.byte	255
	.byte	255
	.byte	1
	.uleb128 Lcst_end13-Lcst_begin13
Lcst_begin13:
	.uleb128 Ltmp375-Lfunc_begin43
	.uleb128 Ltmp376-Ltmp375
	.uleb128 Ltmp377-Lfunc_begin43
	.byte	0
	.uleb128 Ltmp378-Lfunc_begin43
	.uleb128 Ltmp379-Ltmp378
	.uleb128 Ltmp380-Lfunc_begin43
	.byte	0
	.uleb128 Ltmp379-Lfunc_begin43
	.uleb128 Lfunc_end43-Ltmp379
	.byte	0
	.byte	0
Lcst_end13:
	.p2align	2

	.section	__TEXT,__text,regular,pure_instructions
	.p2align	4, 0x90
__ZN4core3ptr258drop_in_place$LT$alloc..raw_vec..RawVec$LT$alloc..boxed..Box$LT$dyn$u20$core..ops..function..FnMut$LT$$LP$$RP$$GT$$u2b$Output$u20$$u3d$$u20$core..result..Result$LT$$LP$$RP$$C$std..io..error..Error$GT$$u2b$core..marker..Send$u2b$core..marker..Sync$GT$$GT$$GT$17hec146e7240cfcf45E:
Lfunc_begin44:
	.loc	3 490 0 is_stmt 1
	.cfi_startproc
	pushq	%rbp
	.cfi_def_cfa_offset 16
	.cfi_offset %rbp, -16
	movq	%rsp, %rbp
	.cfi_def_cfa_register %rbp
	subq	$16, %rsp
	movq	%rdi, -8(%rbp)
Ltmp383:
	.loc	3 490 1 prologue_end
	callq	__ZN77_$LT$alloc..raw_vec..RawVec$LT$T$C$A$GT$$u20$as$u20$core..ops..drop..Drop$GT$4drop17h8942186e093fcc85E
	addq	$16, %rsp
	popq	%rbp
	retq
Ltmp384:
Lfunc_end44:
	.cfi_endproc

	.p2align	4, 0x90
__ZN4core3ptr39drop_in_place$LT$std..env..VarError$GT$17h41f5e679439047c6E:
Lfunc_begin45:
	.loc	3 490 0
	.cfi_startproc
	pushq	%rbp
	.cfi_def_cfa_offset 16
	.cfi_offset %rbp, -16
	movq	%rsp, %rbp
	.cfi_def_cfa_register %rbp
	subq	$16, %rsp
	movq	%rdi, -16(%rbp)
	movq	%rdi, -8(%rbp)
Ltmp385:
	.loc	3 490 1 prologue_end
	movq	8(%rdi), %rdx
	movl	$1, %eax
	xorl	%ecx, %ecx
	cmpq	$0, %rdx
	cmoveq	%rcx, %rax
	cmpq	$0, %rax
	jne	LBB45_2
LBB45_1:
	addq	$16, %rsp
	popq	%rbp
	retq
LBB45_2:
	.loc	3 0 1 is_stmt 0
	movq	-16(%rbp), %rdi
	.loc	3 490 1
	callq	__ZN4core3ptr47drop_in_place$LT$std..ffi..os_str..OsString$GT$17h7b960380ef819b9fE
	jmp	LBB45_1
Ltmp386:
Lfunc_end45:
	.cfi_endproc

	.p2align	4, 0x90
__ZN4core3ptr39drop_in_place$LT$std..path..PathBuf$GT$17h503ad3274a3a61d6E:
Lfunc_begin46:
	.loc	3 490 0 is_stmt 1
	.cfi_startproc
	pushq	%rbp
	.cfi_def_cfa_offset 16
	.cfi_offset %rbp, -16
	movq	%rsp, %rbp
	.cfi_def_cfa_register %rbp
	subq	$16, %rsp
	movq	%rdi, -8(%rbp)
Ltmp387:
	.loc	3 490 1 prologue_end
	callq	__ZN4core3ptr47drop_in_place$LT$std..ffi..os_str..OsString$GT$17h7b960380ef819b9fE
	addq	$16, %rsp
	popq	%rbp
	retq
Ltmp388:
Lfunc_end46:
	.cfi_endproc

	.p2align	4, 0x90
__ZN4core3ptr42drop_in_place$LT$alloc..string..String$GT$17h8fd1ae4e1c052302E:
Lfunc_begin47:
	.loc	3 490 0
	.cfi_startproc
	pushq	%rbp
	.cfi_def_cfa_offset 16
	.cfi_offset %rbp, -16
	movq	%rsp, %rbp
	.cfi_def_cfa_register %rbp
	subq	$16, %rsp
	movq	%rdi, -8(%rbp)
Ltmp389:
	.loc	3 490 1 prologue_end
	callq	__ZN4core3ptr46drop_in_place$LT$alloc..vec..Vec$LT$u8$GT$$GT$17hddc27efdf20120cfE
	addq	$16, %rsp
	popq	%rbp
	retq
Ltmp390:
Lfunc_end47:
	.cfi_endproc

	.p2align	4, 0x90
__ZN4core3ptr42drop_in_place$LT$std..io..error..Error$GT$17h8d8cb6bf93c27322E:
Lfunc_begin48:
	.loc	3 490 0
	.cfi_startproc
	pushq	%rbp
	.cfi_def_cfa_offset 16
	.cfi_offset %rbp, -16
	movq	%rsp, %rbp
	.cfi_def_cfa_register %rbp
	subq	$16, %rsp
	movq	%rdi, -8(%rbp)
Ltmp391:
	.loc	3 490 1 prologue_end
	callq	__ZN4core3ptr57drop_in_place$LT$std..io..error..repr_bitpacked..Repr$GT$17h88bd5b659e8f85e8E
	addq	$16, %rsp
	popq	%rbp
	retq
Ltmp392:
Lfunc_end48:
	.cfi_endproc

	.p2align	4, 0x90
__ZN4core3ptr42drop_in_place$LT$std..process..Command$GT$17h1ea7634bbe145e02E:
Lfunc_begin49:
	.loc	3 490 0
	.cfi_startproc
	pushq	%rbp
	.cfi_def_cfa_offset 16
	.cfi_offset %rbp, -16
	movq	%rsp, %rbp
	.cfi_def_cfa_register %rbp
	subq	$16, %rsp
	movq	%rdi, -8(%rbp)
Ltmp393:
	.loc	3 490 1 prologue_end
	callq	__ZN4core3ptr69drop_in_place$LT$std..sys..unix..process..process_common..Command$GT$17hea84079a9e21c9f9E
	addq	$16, %rsp
	popq	%rbp
	retq
Ltmp394:
Lfunc_end49:
	.cfi_endproc

	.p2align	4, 0x90
__ZN4core3ptr43drop_in_place$LT$std..io..error..Custom$GT$17h080b65e05bc590f8E:
Lfunc_begin50:
	.loc	3 490 0
	.cfi_startproc
	pushq	%rbp
	.cfi_def_cfa_offset 16
	.cfi_offset %rbp, -16
	movq	%rsp, %rbp
	.cfi_def_cfa_register %rbp
	subq	$16, %rsp
	movq	%rdi, -8(%rbp)
Ltmp395:
	.loc	3 490 1 prologue_end
	callq	__ZN4core3ptr118drop_in_place$LT$alloc..boxed..Box$LT$dyn$u20$core..error..Error$u2b$core..marker..Send$u2b$core..marker..Sync$GT$$GT$17h7c8fa784bc4db52cE
	addq	$16, %rsp
	popq	%rbp
	retq
Ltmp396:
Lfunc_end50:
	.cfi_endproc

	.p2align	4, 0x90
__ZN4core3ptr46drop_in_place$LT$alloc..vec..Vec$LT$u8$GT$$GT$17hddc27efdf20120cfE:
Lfunc_begin51:
	.loc	3 490 0
	.cfi_startproc
	.cfi_personality 155, _rust_eh_personality
	.cfi_lsda 16, Lexception14
	pushq	%rbp
	.cfi_def_cfa_offset 16
	.cfi_offset %rbp, -16
	movq	%rsp, %rbp
	.cfi_def_cfa_register %rbp
	subq	$32, %rsp
	movq	%rdi, -32(%rbp)
	movq	%rdi, -24(%rbp)
Ltmp397:
Ltmp403:
	.loc	3 490 1 prologue_end
	callq	__ZN70_$LT$alloc..vec..Vec$LT$T$C$A$GT$$u20$as$u20$core..ops..drop..Drop$GT$4drop17h7b57b06004e20e94E
Ltmp398:
	jmp	LBB51_3
LBB51_1:
Ltmp400:
	.loc	3 0 1 is_stmt 0
	movq	-32(%rbp), %rdi
	.loc	3 490 1
	callq	__ZN4core3ptr53drop_in_place$LT$alloc..raw_vec..RawVec$LT$u8$GT$$GT$17hf762e40ebf2f86feE
Ltmp401:
	jmp	LBB51_5
LBB51_2:
Ltmp399:
	.loc	3 0 1
	movq	%rax, %rcx
	movl	%edx, %eax
	movq	%rcx, -16(%rbp)
	movl	%eax, -8(%rbp)
	jmp	LBB51_1
LBB51_3:
	movq	-32(%rbp), %rdi
	.loc	3 490 1
	callq	__ZN4core3ptr53drop_in_place$LT$alloc..raw_vec..RawVec$LT$u8$GT$$GT$17hf762e40ebf2f86feE
	addq	$32, %rsp
	popq	%rbp
	retq
LBB51_4:
Ltmp402:
	callq	__ZN4core9panicking19panic_cannot_unwind17h1fbca7e1d7f56ae1E
LBB51_5:
	movq	-16(%rbp), %rdi
	callq	__Unwind_Resume
Ltmp404:
Lfunc_end51:
	.cfi_endproc
	.section	__TEXT,__gcc_except_tab
	.p2align	2
GCC_except_table51:
Lexception14:
	.byte	255
	.byte	255
	.byte	1
	.uleb128 Lcst_end14-Lcst_begin14
Lcst_begin14:
	.uleb128 Ltmp397-Lfunc_begin51
	.uleb128 Ltmp398-Ltmp397
	.uleb128 Ltmp399-Lfunc_begin51
	.byte	0
	.uleb128 Ltmp400-Lfunc_begin51
	.uleb128 Ltmp401-Ltmp400
	.uleb128 Ltmp402-Lfunc_begin51
	.byte	0
	.uleb128 Ltmp401-Lfunc_begin51
	.uleb128 Lfunc_end51-Ltmp401
	.byte	0
	.byte	0
Lcst_end14:
	.p2align	2

	.section	__TEXT,__text,regular,pure_instructions
	.p2align	4, 0x90
__ZN4core3ptr47drop_in_place$LT$alloc..ffi..c_str..CString$GT$17hfb8116eb268a77e7E:
Lfunc_begin52:
	.loc	3 490 0 is_stmt 1
	.cfi_startproc
	.cfi_personality 155, _rust_eh_personality
	.cfi_lsda 16, Lexception15
	pushq	%rbp
	.cfi_def_cfa_offset 16
	.cfi_offset %rbp, -16
	movq	%rsp, %rbp
	.cfi_def_cfa_register %rbp
	subq	$32, %rsp
	movq	%rdi, -32(%rbp)
	movq	%rdi, -24(%rbp)
Ltmp405:
Ltmp411:
	.loc	3 490 1 prologue_end
	callq	__ZN68_$LT$alloc..ffi..c_str..CString$u20$as$u20$core..ops..drop..Drop$GT$4drop17h6fb3ee4e7babe2d7E
Ltmp406:
	jmp	LBB52_3
LBB52_1:
Ltmp408:
	.loc	3 0 1 is_stmt 0
	movq	-32(%rbp), %rdi
	.loc	3 490 1
	callq	__ZN4core3ptr58drop_in_place$LT$alloc..boxed..Box$LT$$u5b$u8$u5d$$GT$$GT$17hf0a6c6008c3908b3E
Ltmp409:
	jmp	LBB52_5
LBB52_2:
Ltmp407:
	.loc	3 0 1
	movq	%rax, %rcx
	movl	%edx, %eax
	movq	%rcx, -16(%rbp)
	movl	%eax, -8(%rbp)
	jmp	LBB52_1
LBB52_3:
	movq	-32(%rbp), %rdi
	.loc	3 490 1
	callq	__ZN4core3ptr58drop_in_place$LT$alloc..boxed..Box$LT$$u5b$u8$u5d$$GT$$GT$17hf0a6c6008c3908b3E
	addq	$32, %rsp
	popq	%rbp
	retq
LBB52_4:
Ltmp410:
	callq	__ZN4core9panicking19panic_cannot_unwind17h1fbca7e1d7f56ae1E
LBB52_5:
	movq	-16(%rbp), %rdi
	callq	__Unwind_Resume
Ltmp412:
Lfunc_end52:
	.cfi_endproc
	.section	__TEXT,__gcc_except_tab
	.p2align	2
GCC_except_table52:
Lexception15:
	.byte	255
	.byte	255
	.byte	1
	.uleb128 Lcst_end15-Lcst_begin15
Lcst_begin15:
	.uleb128 Ltmp405-Lfunc_begin52
	.uleb128 Ltmp406-Ltmp405
	.uleb128 Ltmp407-Lfunc_begin52
	.byte	0
	.uleb128 Ltmp408-Lfunc_begin52
	.uleb128 Ltmp409-Ltmp408
	.uleb128 Ltmp410-Lfunc_begin52
	.byte	0
	.uleb128 Ltmp409-Lfunc_begin52
	.uleb128 Lfunc_end52-Ltmp409
	.byte	0
	.byte	0
Lcst_end15:
	.p2align	2

	.section	__TEXT,__text,regular,pure_instructions
	.p2align	4, 0x90
__ZN4core3ptr47drop_in_place$LT$std..ffi..os_str..OsString$GT$17h7b960380ef819b9fE:
Lfunc_begin53:
	.loc	3 490 0 is_stmt 1
	.cfi_startproc
	pushq	%rbp
	.cfi_def_cfa_offset 16
	.cfi_offset %rbp, -16
	movq	%rsp, %rbp
	.cfi_def_cfa_register %rbp
	subq	$16, %rsp
	movq	%rdi, -8(%rbp)
Ltmp413:
	.loc	3 490 1 prologue_end
	callq	__ZN4core3ptr48drop_in_place$LT$std..sys..unix..os_str..Buf$GT$17h7a9546194e5479edE
	addq	$16, %rsp
	popq	%rbp
	retq
Ltmp414:
Lfunc_end53:
	.cfi_endproc

	.p2align	4, 0x90
__ZN4core3ptr48drop_in_place$LT$std..os..fd..owned..OwnedFd$GT$17hc5271efe3b3552e4E:
Lfunc_begin54:
	.loc	3 490 0
	.cfi_startproc
	pushq	%rbp
	.cfi_def_cfa_offset 16
	.cfi_offset %rbp, -16
	movq	%rsp, %rbp
	.cfi_def_cfa_register %rbp
	subq	$16, %rsp
	movq	%rdi, -8(%rbp)
Ltmp415:
	.loc	3 490 1 prologue_end
	callq	__ZN69_$LT$std..os..fd..owned..OwnedFd$u20$as$u20$core..ops..drop..Drop$GT$4drop17hc7e5f746c534ed94E
	addq	$16, %rsp
	popq	%rbp
	retq
Ltmp416:
Lfunc_end54:
	.cfi_endproc

	.p2align	4, 0x90
__ZN4core3ptr48drop_in_place$LT$std..sys..unix..os_str..Buf$GT$17h7a9546194e5479edE:
Lfunc_begin55:
	.loc	3 490 0
	.cfi_startproc
	pushq	%rbp
	.cfi_def_cfa_offset 16
	.cfi_offset %rbp, -16
	movq	%rsp, %rbp
	.cfi_def_cfa_register %rbp
	subq	$16, %rsp
	movq	%rdi, -8(%rbp)
Ltmp417:
	.loc	3 490 1 prologue_end
	callq	__ZN4core3ptr46drop_in_place$LT$alloc..vec..Vec$LT$u8$GT$$GT$17hddc27efdf20120cfE
	addq	$16, %rsp
	popq	%rbp
	retq
Ltmp418:
Lfunc_end55:
	.cfi_endproc

	.p2align	4, 0x90
__ZN4core3ptr49drop_in_place$LT$std..sys..unix..fd..FileDesc$GT$17h065eca7ce08be306E:
Lfunc_begin56:
	.loc	3 490 0
	.cfi_startproc
	pushq	%rbp
	.cfi_def_cfa_offset 16
	.cfi_offset %rbp, -16
	movq	%rsp, %rbp
	.cfi_def_cfa_register %rbp
	subq	$16, %rsp
	movq	%rdi, -8(%rbp)
Ltmp419:
	.loc	3 490 1 prologue_end
	callq	__ZN4core3ptr48drop_in_place$LT$std..os..fd..owned..OwnedFd$GT$17hc5271efe3b3552e4E
	addq	$16, %rsp
	popq	%rbp
	retq
Ltmp420:
Lfunc_end56:
	.cfi_endproc

	.p2align	4, 0x90
__ZN4core3ptr53drop_in_place$LT$alloc..raw_vec..RawVec$LT$u8$GT$$GT$17hf762e40ebf2f86feE:
Lfunc_begin57:
	.loc	3 490 0
	.cfi_startproc
	pushq	%rbp
	.cfi_def_cfa_offset 16
	.cfi_offset %rbp, -16
	movq	%rsp, %rbp
	.cfi_def_cfa_register %rbp
	subq	$16, %rsp
	movq	%rdi, -8(%rbp)
Ltmp421:
	.loc	3 490 1 prologue_end
	callq	__ZN77_$LT$alloc..raw_vec..RawVec$LT$T$C$A$GT$$u20$as$u20$core..ops..drop..Drop$GT$4drop17h5d99d9a88caadf7bE
	addq	$16, %rsp
	popq	%rbp
	retq
Ltmp422:
Lfunc_end57:
	.cfi_endproc

	.p2align	4, 0x90
__ZN4core3ptr57drop_in_place$LT$$u5b$alloc..ffi..c_str..CString$u5d$$GT$17hea517e95573baf24E:
Lfunc_begin58:
	.loc	3 490 0
	.cfi_startproc
	.cfi_personality 155, _rust_eh_personality
	.cfi_lsda 16, Lexception16
	pushq	%rbp
	.cfi_def_cfa_offset 16
	.cfi_offset %rbp, -16
	movq	%rsp, %rbp
	.cfi_def_cfa_register %rbp
	subq	$80, %rsp
	movq	%rdi, -64(%rbp)
	movq	%rsi, -56(%rbp)
	movq	%rdi, -32(%rbp)
	movq	%rsi, -24(%rbp)
Ltmp434:
	.loc	3 490 1 prologue_end
	xorl	%eax, %eax
	testb	$1, %al
	jne	LBB58_1
	jmp	LBB58_2
LBB58_1:
	movq	$0, -48(%rbp)
	jmp	LBB58_11
LBB58_2:
	.loc	3 0 1 is_stmt 0
	movq	-56(%rbp), %rax
	movq	-64(%rbp), %rcx
	.loc	3 490 1
	movq	%rcx, -40(%rbp)
	shlq	$4, %rax
	addq	-40(%rbp), %rax
	movq	%rax, -72(%rbp)
LBB58_3:
	.loc	3 0 1
	movq	-72(%rbp), %rax
	.loc	3 490 1
	cmpq	%rax, -40(%rbp)
	je	LBB58_5
	movq	-40(%rbp), %rdi
	movq	%rdi, %rax
	addq	$16, %rax
	movq	%rax, -40(%rbp)
Ltmp423:
	callq	__ZN4core3ptr47drop_in_place$LT$alloc..ffi..c_str..CString$GT$17hfb8116eb268a77e7E
Ltmp424:
	jmp	LBB58_3
LBB58_5:
	addq	$80, %rsp
	popq	%rbp
	retq
LBB58_6:
	.loc	3 0 1
	movq	-72(%rbp), %rax
	.loc	3 490 1
	cmpq	%rax, -40(%rbp)
	je	LBB58_9
	jmp	LBB58_8
LBB58_7:
Ltmp425:
	.loc	3 0 1
	movq	%rax, %rcx
	movl	%edx, %eax
	movq	%rcx, -16(%rbp)
	movl	%eax, -8(%rbp)
	jmp	LBB58_6
LBB58_8:
	.loc	3 490 1
	movq	-40(%rbp), %rdi
	movq	%rdi, %rax
	addq	$16, %rax
	movq	%rax, -40(%rbp)
Ltmp426:
	callq	__ZN4core3ptr47drop_in_place$LT$alloc..ffi..c_str..CString$GT$17hfb8116eb268a77e7E
Ltmp427:
	jmp	LBB58_6
LBB58_9:
	movq	-16(%rbp), %rdi
	callq	__Unwind_Resume
LBB58_10:
Ltmp433:
	callq	__ZN4core9panicking19panic_cannot_unwind17h1fbca7e1d7f56ae1E
LBB58_11:
	.loc	3 0 1
	movq	-56(%rbp), %rax
	.loc	3 490 1
	cmpq	%rax, -48(%rbp)
	je	LBB58_5
	.loc	3 0 1
	movq	-64(%rbp), %rdi
	.loc	3 490 1
	movq	-48(%rbp), %rax
	movq	%rax, %rcx
	shlq	$4, %rcx
	addq	%rcx, %rdi
	incq	%rax
	movq	%rax, -48(%rbp)
Ltmp428:
	callq	__ZN4core3ptr47drop_in_place$LT$alloc..ffi..c_str..CString$GT$17hfb8116eb268a77e7E
Ltmp429:
	jmp	LBB58_11
LBB58_13:
	.loc	3 0 1
	movq	-56(%rbp), %rax
	.loc	3 490 1
	cmpq	%rax, -48(%rbp)
	je	LBB58_9
	jmp	LBB58_15
LBB58_14:
Ltmp430:
	.loc	3 0 1
	movq	%rax, %rcx
	movl	%edx, %eax
	movq	%rcx, -16(%rbp)
	movl	%eax, -8(%rbp)
	jmp	LBB58_13
LBB58_15:
	movq	-64(%rbp), %rdi
	.loc	3 490 1
	movq	-48(%rbp), %rax
	movq	%rax, %rcx
	shlq	$4, %rcx
	addq	%rcx, %rdi
	incq	%rax
	movq	%rax, -48(%rbp)
Ltmp431:
	callq	__ZN4core3ptr47drop_in_place$LT$alloc..ffi..c_str..CString$GT$17hfb8116eb268a77e7E
Ltmp432:
	jmp	LBB58_13
Ltmp435:
Lfunc_end58:
	.cfi_endproc
	.section	__TEXT,__gcc_except_tab
	.p2align	2
GCC_except_table58:
Lexception16:
	.byte	255
	.byte	255
	.byte	1
	.uleb128 Lcst_end16-Lcst_begin16
Lcst_begin16:
	.uleb128 Ltmp423-Lfunc_begin58
	.uleb128 Ltmp424-Ltmp423
	.uleb128 Ltmp425-Lfunc_begin58
	.byte	0
	.uleb128 Ltmp426-Lfunc_begin58
	.uleb128 Ltmp427-Ltmp426
	.uleb128 Ltmp433-Lfunc_begin58
	.byte	0
	.uleb128 Ltmp427-Lfunc_begin58
	.uleb128 Ltmp428-Ltmp427
	.byte	0
	.byte	0
	.uleb128 Ltmp428-Lfunc_begin58
	.uleb128 Ltmp429-Ltmp428
	.uleb128 Ltmp430-Lfunc_begin58
	.byte	0
	.uleb128 Ltmp431-Lfunc_begin58
	.uleb128 Ltmp432-Ltmp431
	.uleb128 Ltmp433-Lfunc_begin58
	.byte	0
Lcst_end16:
	.p2align	2

	.section	__TEXT,__text,regular,pure_instructions
	.p2align	4, 0x90
__ZN4core3ptr57drop_in_place$LT$std..io..error..repr_bitpacked..Repr$GT$17h88bd5b659e8f85e8E:
Lfunc_begin59:
	.loc	3 490 0 is_stmt 1
	.cfi_startproc
	pushq	%rbp
	.cfi_def_cfa_offset 16
	.cfi_offset %rbp, -16
	movq	%rsp, %rbp
	.cfi_def_cfa_register %rbp
	subq	$16, %rsp
	movq	%rdi, -8(%rbp)
Ltmp436:
	.loc	3 490 1 prologue_end
	callq	__ZN78_$LT$std..io..error..repr_bitpacked..Repr$u20$as$u20$core..ops..drop..Drop$GT$4drop17h106edc4cb10b8b83E
	addq	$16, %rsp
	popq	%rbp
	retq
Ltmp437:
Lfunc_end59:
	.cfi_endproc

	.p2align	4, 0x90
__ZN4core3ptr57drop_in_place$LT$std..sys_common..process..CommandEnv$GT$17hd983f4fe8b78c174E:
Lfunc_begin60:
	.loc	3 490 0
	.cfi_startproc
	pushq	%rbp
	.cfi_def_cfa_offset 16
	.cfi_offset %rbp, -16
	movq	%rsp, %rbp
	.cfi_def_cfa_register %rbp
	subq	$16, %rsp
	movq	%rdi, -8(%rbp)
Ltmp438:
	.loc	3 490 1 prologue_end
	callq	__ZN4core3ptr152drop_in_place$LT$alloc..collections..btree..map..BTreeMap$LT$std..ffi..os_str..OsString$C$core..option..Option$LT$std..ffi..os_str..OsString$GT$$GT$$GT$17h552a9ae68ed470e9E
	addq	$16, %rsp
	popq	%rbp
	retq
Ltmp439:
Lfunc_end60:
	.cfi_endproc

	.p2align	4, 0x90
__ZN4core3ptr58drop_in_place$LT$alloc..boxed..Box$LT$$u5b$u8$u5d$$GT$$GT$17hf0a6c6008c3908b3E:
Lfunc_begin61:
	.loc	3 490 0
	.cfi_startproc
	pushq	%rbp
	.cfi_def_cfa_offset 16
	.cfi_offset %rbp, -16
	movq	%rsp, %rbp
	.cfi_def_cfa_register %rbp
	subq	$32, %rsp
	movq	%rdi, -32(%rbp)
	movq	%rdi, -24(%rbp)
	movq	-32(%rbp), %rax
Ltmp440:
	.loc	3 490 1 prologue_end
	movq	(%rax), %rdi
	movq	8(%rax), %rsi
	callq	__ZN5alloc5alloc8box_free17h6238e027f3daf35fE
	addq	$32, %rsp
	popq	%rbp
	retq
Ltmp441:
Lfunc_end61:
	.cfi_endproc

	.p2align	4, 0x90
__ZN4core3ptr59drop_in_place$LT$alloc..boxed..Box$LT$$u5b$u32$u5d$$GT$$GT$17he56987216034d889E:
Lfunc_begin62:
	.loc	3 490 0
	.cfi_startproc
	pushq	%rbp
	.cfi_def_cfa_offset 16
	.cfi_offset %rbp, -16
	movq	%rsp, %rbp
	.cfi_def_cfa_register %rbp
	subq	$32, %rsp
	movq	%rdi, -32(%rbp)
	movq	%rdi, -24(%rbp)
	movq	-32(%rbp), %rax
Ltmp442:
	.loc	3 490 1 prologue_end
	movq	(%rax), %rdi
	movq	8(%rax), %rsi
	callq	__ZN5alloc5alloc8box_free17h9caa2a2ec59cd00dE
	addq	$32, %rsp
	popq	%rbp
	retq
Ltmp443:
Lfunc_end62:
	.cfi_endproc

	.p2align	4, 0x90
__ZN4core3ptr60drop_in_place$LT$alloc..vec..Vec$LT$$BP$const$u20$i8$GT$$GT$17h23b20905bf101d2cE:
Lfunc_begin63:
	.loc	3 490 0
	.cfi_startproc
	.cfi_personality 155, _rust_eh_personality
	.cfi_lsda 16, Lexception17
	pushq	%rbp
	.cfi_def_cfa_offset 16
	.cfi_offset %rbp, -16
	movq	%rsp, %rbp
	.cfi_def_cfa_register %rbp
	subq	$32, %rsp
	movq	%rdi, -32(%rbp)
	movq	%rdi, -24(%rbp)
Ltmp444:
Ltmp450:
	.loc	3 490 1 prologue_end
	callq	__ZN70_$LT$alloc..vec..Vec$LT$T$C$A$GT$$u20$as$u20$core..ops..drop..Drop$GT$4drop17h76323c61c043c45bE
Ltmp445:
	jmp	LBB63_3
LBB63_1:
Ltmp447:
	.loc	3 0 1 is_stmt 0
	movq	-32(%rbp), %rdi
	.loc	3 490 1
	callq	__ZN4core3ptr67drop_in_place$LT$alloc..raw_vec..RawVec$LT$$BP$const$u20$i8$GT$$GT$17h0489916d7a572350E
Ltmp448:
	jmp	LBB63_5
LBB63_2:
Ltmp446:
	.loc	3 0 1
	movq	%rax, %rcx
	movl	%edx, %eax
	movq	%rcx, -16(%rbp)
	movl	%eax, -8(%rbp)
	jmp	LBB63_1
LBB63_3:
	movq	-32(%rbp), %rdi
	.loc	3 490 1
	callq	__ZN4core3ptr67drop_in_place$LT$alloc..raw_vec..RawVec$LT$$BP$const$u20$i8$GT$$GT$17h0489916d7a572350E
	addq	$32, %rsp
	popq	%rbp
	retq
LBB63_4:
Ltmp449:
	callq	__ZN4core9panicking19panic_cannot_unwind17h1fbca7e1d7f56ae1E
LBB63_5:
	movq	-16(%rbp), %rdi
	callq	__Unwind_Resume
Ltmp451:
Lfunc_end63:
	.cfi_endproc
	.section	__TEXT,__gcc_except_tab
	.p2align	2
GCC_except_table63:
Lexception17:
	.byte	255
	.byte	255
	.byte	1
	.uleb128 Lcst_end17-Lcst_begin17
Lcst_begin17:
	.uleb128 Ltmp444-Lfunc_begin63
	.uleb128 Ltmp445-Ltmp444
	.uleb128 Ltmp446-Lfunc_begin63
	.byte	0
	.uleb128 Ltmp447-Lfunc_begin63
	.uleb128 Ltmp448-Ltmp447
	.uleb128 Ltmp449-Lfunc_begin63
	.byte	0
	.uleb128 Ltmp448-Lfunc_begin63
	.uleb128 Lfunc_end63-Ltmp448
	.byte	0
	.byte	0
Lcst_end17:
	.p2align	2

	.section	__TEXT,__text,regular,pure_instructions
	.p2align	4, 0x90
__ZN4core3ptr66drop_in_place$LT$std..sys..unix..process..process_common..Argv$GT$17h404d7640ae79b939E:
Lfunc_begin64:
	.loc	3 490 0 is_stmt 1
	.cfi_startproc
	pushq	%rbp
	.cfi_def_cfa_offset 16
	.cfi_offset %rbp, -16
	movq	%rsp, %rbp
	.cfi_def_cfa_register %rbp
	subq	$16, %rsp
	movq	%rdi, -8(%rbp)
Ltmp452:
	.loc	3 490 1 prologue_end
	callq	__ZN4core3ptr60drop_in_place$LT$alloc..vec..Vec$LT$$BP$const$u20$i8$GT$$GT$17h23b20905bf101d2cE
	addq	$16, %rsp
	popq	%rbp
	retq
Ltmp453:
Lfunc_end64:
	.cfi_endproc

	.p2align	4, 0x90
__ZN4core3ptr67drop_in_place$LT$alloc..raw_vec..RawVec$LT$$BP$const$u20$i8$GT$$GT$17h0489916d7a572350E:
Lfunc_begin65:
	.loc	3 490 0
	.cfi_startproc
	pushq	%rbp
	.cfi_def_cfa_offset 16
	.cfi_offset %rbp, -16
	movq	%rsp, %rbp
	.cfi_def_cfa_register %rbp
	subq	$16, %rsp
	movq	%rdi, -8(%rbp)
Ltmp454:
	.loc	3 490 1 prologue_end
	callq	__ZN77_$LT$alloc..raw_vec..RawVec$LT$T$C$A$GT$$u20$as$u20$core..ops..drop..Drop$GT$4drop17h02ef647025355ffcE
	addq	$16, %rsp
	popq	%rbp
	retq
Ltmp455:
Lfunc_end65:
	.cfi_endproc

	.p2align	4, 0x90
__ZN4core3ptr67drop_in_place$LT$std..sys..unix..process..process_common..Stdio$GT$17h5656c1b789c7fe17E:
Lfunc_begin66:
	.loc	3 490 0
	.cfi_startproc
	pushq	%rbp
	.cfi_def_cfa_offset 16
	.cfi_offset %rbp, -16
	movq	%rsp, %rbp
	.cfi_def_cfa_register %rbp
	subq	$16, %rsp
	movq	%rdi, -16(%rbp)
	movq	%rdi, -8(%rbp)
Ltmp456:
	.loc	3 490 1 prologue_end
	movl	(%rdi), %eax
	subl	$3, %eax
	jb	LBB66_2
	jmp	LBB66_1
LBB66_1:
	.loc	3 0 1 is_stmt 0
	movq	-16(%rbp), %rdi
	.loc	3 490 1
	addq	$4, %rdi
	callq	__ZN4core3ptr49drop_in_place$LT$std..sys..unix..fd..FileDesc$GT$17h065eca7ce08be306E
LBB66_2:
	addq	$16, %rsp
	popq	%rbp
	retq
Ltmp457:
Lfunc_end66:
	.cfi_endproc

	.p2align	4, 0x90
__ZN4core3ptr68drop_in_place$LT$alloc..boxed..Box$LT$std..io..error..Custom$GT$$GT$17h2aa16bf3d2d378ebE:
Lfunc_begin67:
	.loc	3 490 0 is_stmt 1
	.cfi_startproc
	.cfi_personality 155, _rust_eh_personality
	.cfi_lsda 16, Lexception18
	pushq	%rbp
	.cfi_def_cfa_offset 16
	.cfi_offset %rbp, -16
	movq	%rsp, %rbp
	.cfi_def_cfa_register %rbp
	subq	$32, %rsp
	movq	%rdi, -32(%rbp)
	movq	%rdi, -24(%rbp)
Ltmp464:
	.loc	3 490 1 prologue_end
	movq	(%rdi), %rdi
Ltmp458:
	callq	__ZN4core3ptr43drop_in_place$LT$std..io..error..Custom$GT$17h080b65e05bc590f8E
Ltmp459:
	jmp	LBB67_3
LBB67_1:
	.loc	3 0 1 is_stmt 0
	movq	-32(%rbp), %rax
	.loc	3 490 1
	movq	(%rax), %rdi
Ltmp461:
	callq	__ZN5alloc5alloc8box_free17h427734722944d366E
Ltmp462:
	jmp	LBB67_5
LBB67_2:
Ltmp460:
	.loc	3 0 1
	movq	%rax, %rcx
	movl	%edx, %eax
	movq	%rcx, -16(%rbp)
	movl	%eax, -8(%rbp)
	jmp	LBB67_1
LBB67_3:
	movq	-32(%rbp), %rax
	.loc	3 490 1
	movq	(%rax), %rdi
	callq	__ZN5alloc5alloc8box_free17h427734722944d366E
	addq	$32, %rsp
	popq	%rbp
	retq
LBB67_4:
Ltmp463:
	callq	__ZN4core9panicking19panic_cannot_unwind17h1fbca7e1d7f56ae1E
LBB67_5:
	movq	-16(%rbp), %rdi
	callq	__Unwind_Resume
Ltmp465:
Lfunc_end67:
	.cfi_endproc
	.section	__TEXT,__gcc_except_tab
	.p2align	2
GCC_except_table67:
Lexception18:
	.byte	255
	.byte	255
	.byte	1
	.uleb128 Lcst_end18-Lcst_begin18
Lcst_begin18:
	.uleb128 Ltmp458-Lfunc_begin67
	.uleb128 Ltmp459-Ltmp458
	.uleb128 Ltmp460-Lfunc_begin67
	.byte	0
	.uleb128 Ltmp461-Lfunc_begin67
	.uleb128 Ltmp462-Ltmp461
	.uleb128 Ltmp463-Lfunc_begin67
	.byte	0
	.uleb128 Ltmp462-Lfunc_begin67
	.uleb128 Lfunc_end67-Ltmp462
	.byte	0
	.byte	0
Lcst_end18:
	.p2align	2

	.section	__TEXT,__text,regular,pure_instructions
	.p2align	4, 0x90
__ZN4core3ptr69drop_in_place$LT$std..sys..unix..process..process_common..Command$GT$17hea84079a9e21c9f9E:
Lfunc_begin68:
	.loc	3 490 0 is_stmt 1
	.cfi_startproc
	.cfi_personality 155, _rust_eh_personality
	.cfi_lsda 16, Lexception19
	pushq	%rbp
	.cfi_def_cfa_offset 16
	.cfi_offset %rbp, -16
	movq	%rsp, %rbp
	.cfi_def_cfa_register %rbp
	subq	$32, %rsp
	movq	%rdi, -32(%rbp)
	movq	%rdi, -24(%rbp)
Ltmp512:
	.loc	3 490 1 prologue_end
	addq	$64, %rdi
Ltmp466:
	callq	__ZN4core3ptr47drop_in_place$LT$alloc..ffi..c_str..CString$GT$17hfb8116eb268a77e7E
Ltmp467:
	jmp	LBB68_3
LBB68_1:
	.loc	3 0 1 is_stmt 0
	movq	-32(%rbp), %rdi
	.loc	3 490 1
	addq	$80, %rdi
Ltmp469:
	callq	__ZN4core3ptr70drop_in_place$LT$alloc..vec..Vec$LT$alloc..ffi..c_str..CString$GT$$GT$17hf907febdd240530eE
Ltmp470:
	jmp	LBB68_5
LBB68_2:
Ltmp468:
	.loc	3 0 1
	movq	%rax, %rcx
	movl	%edx, %eax
	movq	%rcx, -16(%rbp)
	movl	%eax, -8(%rbp)
	jmp	LBB68_1
LBB68_3:
	movq	-32(%rbp), %rdi
	.loc	3 490 1
	addq	$80, %rdi
Ltmp471:
	callq	__ZN4core3ptr70drop_in_place$LT$alloc..vec..Vec$LT$alloc..ffi..c_str..CString$GT$$GT$17hf907febdd240530eE
Ltmp472:
	jmp	LBB68_7
LBB68_4:
Ltmp511:
	callq	__ZN4core9panicking19panic_cannot_unwind17h1fbca7e1d7f56ae1E
LBB68_5:
	.loc	3 0 1
	movq	-32(%rbp), %rdi
	.loc	3 490 1
	addq	$104, %rdi
Ltmp474:
	callq	__ZN4core3ptr66drop_in_place$LT$std..sys..unix..process..process_common..Argv$GT$17h404d7640ae79b939E
Ltmp475:
	jmp	LBB68_8
LBB68_6:
Ltmp473:
	.loc	3 0 1
	movq	%rax, %rcx
	movl	%edx, %eax
	movq	%rcx, -16(%rbp)
	movl	%eax, -8(%rbp)
	jmp	LBB68_5
LBB68_7:
	movq	-32(%rbp), %rdi
	.loc	3 490 1
	addq	$104, %rdi
Ltmp476:
	callq	__ZN4core3ptr66drop_in_place$LT$std..sys..unix..process..process_common..Argv$GT$17h404d7640ae79b939E
Ltmp477:
	jmp	LBB68_10
LBB68_8:
Ltmp479:
	.loc	3 0 1
	movq	-32(%rbp), %rdi
	.loc	3 490 1
	callq	__ZN4core3ptr57drop_in_place$LT$std..sys_common..process..CommandEnv$GT$17hd983f4fe8b78c174E
Ltmp480:
	jmp	LBB68_11
LBB68_9:
Ltmp478:
	.loc	3 0 1
	movq	%rax, %rcx
	movl	%edx, %eax
	movq	%rcx, -16(%rbp)
	movl	%eax, -8(%rbp)
	jmp	LBB68_8
LBB68_10:
Ltmp481:
	movq	-32(%rbp), %rdi
	.loc	3 490 1
	callq	__ZN4core3ptr57drop_in_place$LT$std..sys_common..process..CommandEnv$GT$17hd983f4fe8b78c174E
Ltmp482:
	jmp	LBB68_13
LBB68_11:
	.loc	3 0 1
	movq	-32(%rbp), %rdi
	.loc	3 490 1
	addq	$32, %rdi
Ltmp484:
	callq	__ZN4core3ptr75drop_in_place$LT$core..option..Option$LT$alloc..ffi..c_str..CString$GT$$GT$17h69d90ee3db3381a4E
Ltmp485:
	jmp	LBB68_14
LBB68_12:
Ltmp483:
	.loc	3 0 1
	movq	%rax, %rcx
	movl	%edx, %eax
	movq	%rcx, -16(%rbp)
	movl	%eax, -8(%rbp)
	jmp	LBB68_11
LBB68_13:
	movq	-32(%rbp), %rdi
	.loc	3 490 1
	addq	$32, %rdi
Ltmp486:
	callq	__ZN4core3ptr75drop_in_place$LT$core..option..Option$LT$alloc..ffi..c_str..CString$GT$$GT$17h69d90ee3db3381a4E
Ltmp487:
	jmp	LBB68_16
LBB68_14:
	.loc	3 0 1
	movq	-32(%rbp), %rdi
	.loc	3 490 1
	subq	$-128, %rdi
Ltmp489:
	callq	__ZN4core3ptr251drop_in_place$LT$alloc..vec..Vec$LT$alloc..boxed..Box$LT$dyn$u20$core..ops..function..FnMut$LT$$LP$$RP$$GT$$u2b$Output$u20$$u3d$$u20$core..result..Result$LT$$LP$$RP$$C$std..io..error..Error$GT$$u2b$core..marker..Send$u2b$core..marker..Sync$GT$$GT$$GT$17h54be951796f7ef66E
Ltmp490:
	jmp	LBB68_17
LBB68_15:
Ltmp488:
	.loc	3 0 1
	movq	%rax, %rcx
	movl	%edx, %eax
	movq	%rcx, -16(%rbp)
	movl	%eax, -8(%rbp)
	jmp	LBB68_14
LBB68_16:
	movq	-32(%rbp), %rdi
	.loc	3 490 1
	subq	$-128, %rdi
Ltmp491:
	callq	__ZN4core3ptr251drop_in_place$LT$alloc..vec..Vec$LT$alloc..boxed..Box$LT$dyn$u20$core..ops..function..FnMut$LT$$LP$$RP$$GT$$u2b$Output$u20$$u3d$$u20$core..result..Result$LT$$LP$$RP$$C$std..io..error..Error$GT$$u2b$core..marker..Send$u2b$core..marker..Sync$GT$$GT$$GT$17h54be951796f7ef66E
Ltmp492:
	jmp	LBB68_19
LBB68_17:
	.loc	3 0 1
	movq	-32(%rbp), %rdi
	.loc	3 490 1
	addq	$48, %rdi
Ltmp494:
	callq	__ZN4core3ptr87drop_in_place$LT$core..option..Option$LT$alloc..boxed..Box$LT$$u5b$u32$u5d$$GT$$GT$$GT$17h76041fdfd34fef88E
Ltmp495:
	jmp	LBB68_20
LBB68_18:
Ltmp493:
	.loc	3 0 1
	movq	%rax, %rcx
	movl	%edx, %eax
	movq	%rcx, -16(%rbp)
	movl	%eax, -8(%rbp)
	jmp	LBB68_17
LBB68_19:
	movq	-32(%rbp), %rdi
	.loc	3 490 1
	addq	$48, %rdi
Ltmp496:
	callq	__ZN4core3ptr87drop_in_place$LT$core..option..Option$LT$alloc..boxed..Box$LT$$u5b$u32$u5d$$GT$$GT$$GT$17h76041fdfd34fef88E
Ltmp497:
	jmp	LBB68_22
LBB68_20:
	.loc	3 0 1
	movq	-32(%rbp), %rdi
	.loc	3 490 1
	addq	$152, %rdi
Ltmp499:
	callq	__ZN4core3ptr95drop_in_place$LT$core..option..Option$LT$std..sys..unix..process..process_common..Stdio$GT$$GT$17h238f03ace3ddfae0E
Ltmp500:
	jmp	LBB68_23
LBB68_21:
Ltmp498:
	.loc	3 0 1
	movq	%rax, %rcx
	movl	%edx, %eax
	movq	%rcx, -16(%rbp)
	movl	%eax, -8(%rbp)
	jmp	LBB68_20
LBB68_22:
	movq	-32(%rbp), %rdi
	.loc	3 490 1
	addq	$152, %rdi
Ltmp501:
	callq	__ZN4core3ptr95drop_in_place$LT$core..option..Option$LT$std..sys..unix..process..process_common..Stdio$GT$$GT$17h238f03ace3ddfae0E
Ltmp502:
	jmp	LBB68_25
LBB68_23:
	.loc	3 0 1
	movq	-32(%rbp), %rdi
	.loc	3 490 1
	addq	$160, %rdi
Ltmp504:
	callq	__ZN4core3ptr95drop_in_place$LT$core..option..Option$LT$std..sys..unix..process..process_common..Stdio$GT$$GT$17h238f03ace3ddfae0E
Ltmp505:
	jmp	LBB68_26
LBB68_24:
Ltmp503:
	.loc	3 0 1
	movq	%rax, %rcx
	movl	%edx, %eax
	movq	%rcx, -16(%rbp)
	movl	%eax, -8(%rbp)
	jmp	LBB68_23
LBB68_25:
	movq	-32(%rbp), %rdi
	.loc	3 490 1
	addq	$160, %rdi
Ltmp506:
	callq	__ZN4core3ptr95drop_in_place$LT$core..option..Option$LT$std..sys..unix..process..process_common..Stdio$GT$$GT$17h238f03ace3ddfae0E
Ltmp507:
	jmp	LBB68_28
LBB68_26:
	.loc	3 0 1
	movq	-32(%rbp), %rdi
	.loc	3 490 1
	addq	$168, %rdi
Ltmp509:
	callq	__ZN4core3ptr95drop_in_place$LT$core..option..Option$LT$std..sys..unix..process..process_common..Stdio$GT$$GT$17h238f03ace3ddfae0E
Ltmp510:
	jmp	LBB68_29
LBB68_27:
Ltmp508:
	.loc	3 0 1
	movq	%rax, %rcx
	movl	%edx, %eax
	movq	%rcx, -16(%rbp)
	movl	%eax, -8(%rbp)
	jmp	LBB68_26
LBB68_28:
	movq	-32(%rbp), %rdi
	.loc	3 490 1
	addq	$168, %rdi
	callq	__ZN4core3ptr95drop_in_place$LT$core..option..Option$LT$std..sys..unix..process..process_common..Stdio$GT$$GT$17h238f03ace3ddfae0E
	addq	$32, %rsp
	popq	%rbp
	retq
LBB68_29:
	movq	-16(%rbp), %rdi
	callq	__Unwind_Resume
Ltmp513:
Lfunc_end68:
	.cfi_endproc
	.section	__TEXT,__gcc_except_tab
	.p2align	2
GCC_except_table68:
Lexception19:
	.byte	255
	.byte	255
	.byte	1
	.uleb128 Lcst_end19-Lcst_begin19
Lcst_begin19:
	.uleb128 Ltmp466-Lfunc_begin68
	.uleb128 Ltmp467-Ltmp466
	.uleb128 Ltmp468-Lfunc_begin68
	.byte	0
	.uleb128 Ltmp469-Lfunc_begin68
	.uleb128 Ltmp470-Ltmp469
	.uleb128 Ltmp511-Lfunc_begin68
	.byte	0
	.uleb128 Ltmp471-Lfunc_begin68
	.uleb128 Ltmp472-Ltmp471
	.uleb128 Ltmp473-Lfunc_begin68
	.byte	0
	.uleb128 Ltmp474-Lfunc_begin68
	.uleb128 Ltmp475-Ltmp474
	.uleb128 Ltmp511-Lfunc_begin68
	.byte	0
	.uleb128 Ltmp476-Lfunc_begin68
	.uleb128 Ltmp477-Ltmp476
	.uleb128 Ltmp478-Lfunc_begin68
	.byte	0
	.uleb128 Ltmp479-Lfunc_begin68
	.uleb128 Ltmp480-Ltmp479
	.uleb128 Ltmp511-Lfunc_begin68
	.byte	0
	.uleb128 Ltmp481-Lfunc_begin68
	.uleb128 Ltmp482-Ltmp481
	.uleb128 Ltmp483-Lfunc_begin68
	.byte	0
	.uleb128 Ltmp484-Lfunc_begin68
	.uleb128 Ltmp485-Ltmp484
	.uleb128 Ltmp511-Lfunc_begin68
	.byte	0
	.uleb128 Ltmp486-Lfunc_begin68
	.uleb128 Ltmp487-Ltmp486
	.uleb128 Ltmp488-Lfunc_begin68
	.byte	0
	.uleb128 Ltmp489-Lfunc_begin68
	.uleb128 Ltmp490-Ltmp489
	.uleb128 Ltmp511-Lfunc_begin68
	.byte	0
	.uleb128 Ltmp491-Lfunc_begin68
	.uleb128 Ltmp492-Ltmp491
	.uleb128 Ltmp493-Lfunc_begin68
	.byte	0
	.uleb128 Ltmp494-Lfunc_begin68
	.uleb128 Ltmp495-Ltmp494
	.uleb128 Ltmp511-Lfunc_begin68
	.byte	0
	.uleb128 Ltmp496-Lfunc_begin68
	.uleb128 Ltmp497-Ltmp496
	.uleb128 Ltmp498-Lfunc_begin68
	.byte	0
	.uleb128 Ltmp499-Lfunc_begin68
	.uleb128 Ltmp500-Ltmp499
	.uleb128 Ltmp511-Lfunc_begin68
	.byte	0
	.uleb128 Ltmp501-Lfunc_begin68
	.uleb128 Ltmp502-Ltmp501
	.uleb128 Ltmp503-Lfunc_begin68
	.byte	0
	.uleb128 Ltmp504-Lfunc_begin68
	.uleb128 Ltmp505-Ltmp504
	.uleb128 Ltmp511-Lfunc_begin68
	.byte	0
	.uleb128 Ltmp506-Lfunc_begin68
	.uleb128 Ltmp507-Ltmp506
	.uleb128 Ltmp508-Lfunc_begin68
	.byte	0
	.uleb128 Ltmp509-Lfunc_begin68
	.uleb128 Ltmp510-Ltmp509
	.uleb128 Ltmp511-Lfunc_begin68
	.byte	0
	.uleb128 Ltmp510-Lfunc_begin68
	.uleb128 Lfunc_end68-Ltmp510
	.byte	0
	.byte	0
Lcst_end19:
	.p2align	2

	.section	__TEXT,__text,regular,pure_instructions
	.p2align	4, 0x90
__ZN4core3ptr70drop_in_place$LT$alloc..vec..Vec$LT$alloc..ffi..c_str..CString$GT$$GT$17hf907febdd240530eE:
Lfunc_begin69:
	.loc	3 490 0 is_stmt 1
	.cfi_startproc
	.cfi_personality 155, _rust_eh_personality
	.cfi_lsda 16, Lexception20
	pushq	%rbp
	.cfi_def_cfa_offset 16
	.cfi_offset %rbp, -16
	movq	%rsp, %rbp
	.cfi_def_cfa_register %rbp
	subq	$32, %rsp
	movq	%rdi, -32(%rbp)
	movq	%rdi, -24(%rbp)
Ltmp514:
Ltmp520:
	.loc	3 490 1 prologue_end
	callq	__ZN70_$LT$alloc..vec..Vec$LT$T$C$A$GT$$u20$as$u20$core..ops..drop..Drop$GT$4drop17he743796c785e33e3E
Ltmp515:
	jmp	LBB69_3
LBB69_1:
Ltmp517:
	.loc	3 0 1 is_stmt 0
	movq	-32(%rbp), %rdi
	.loc	3 490 1
	callq	__ZN4core3ptr77drop_in_place$LT$alloc..raw_vec..RawVec$LT$alloc..ffi..c_str..CString$GT$$GT$17h96a189536e2b106fE
Ltmp518:
	jmp	LBB69_5
LBB69_2:
Ltmp516:
	.loc	3 0 1
	movq	%rax, %rcx
	movl	%edx, %eax
	movq	%rcx, -16(%rbp)
	movl	%eax, -8(%rbp)
	jmp	LBB69_1
LBB69_3:
	movq	-32(%rbp), %rdi
	.loc	3 490 1
	callq	__ZN4core3ptr77drop_in_place$LT$alloc..raw_vec..RawVec$LT$alloc..ffi..c_str..CString$GT$$GT$17h96a189536e2b106fE
	addq	$32, %rsp
	popq	%rbp
	retq
LBB69_4:
Ltmp519:
	callq	__ZN4core9panicking19panic_cannot_unwind17h1fbca7e1d7f56ae1E
LBB69_5:
	movq	-16(%rbp), %rdi
	callq	__Unwind_Resume
Ltmp521:
Lfunc_end69:
	.cfi_endproc
	.section	__TEXT,__gcc_except_tab
	.p2align	2
GCC_except_table69:
Lexception20:
	.byte	255
	.byte	255
	.byte	1
	.uleb128 Lcst_end20-Lcst_begin20
Lcst_begin20:
	.uleb128 Ltmp514-Lfunc_begin69
	.uleb128 Ltmp515-Ltmp514
	.uleb128 Ltmp516-Lfunc_begin69
	.byte	0
	.uleb128 Ltmp517-Lfunc_begin69
	.uleb128 Ltmp518-Ltmp517
	.uleb128 Ltmp519-Lfunc_begin69
	.byte	0
	.uleb128 Ltmp518-Lfunc_begin69
	.uleb128 Lfunc_end69-Ltmp518
	.byte	0
	.byte	0
Lcst_end20:
	.p2align	2

	.section	__TEXT,__text,regular,pure_instructions
	.p2align	4, 0x90
__ZN4core3ptr72drop_in_place$LT$alloc..collections..btree..mem..replace..PanicGuard$GT$17h22b0ce0ab3d92f23E:
Lfunc_begin70:
	.loc	3 490 0 is_stmt 1
	.cfi_startproc
	pushq	%rbp
	.cfi_def_cfa_offset 16
	.cfi_offset %rbp, -16
	movq	%rsp, %rbp
	.cfi_def_cfa_register %rbp
	subq	$16, %rsp
	movq	%rdi, -8(%rbp)
Ltmp522:
	.loc	3 490 1 prologue_end
	callq	__ZN93_$LT$alloc..collections..btree..mem..replace..PanicGuard$u20$as$u20$core..ops..drop..Drop$GT$4drop17hd8f71405b84037e0E
	addq	$16, %rsp
	popq	%rbp
	retq
Ltmp523:
Lfunc_end70:
	.cfi_endproc

	.p2align	4, 0x90
__ZN4core3ptr75drop_in_place$LT$core..option..Option$LT$alloc..ffi..c_str..CString$GT$$GT$17h69d90ee3db3381a4E:
Lfunc_begin71:
	.loc	3 490 0
	.cfi_startproc
	pushq	%rbp
	.cfi_def_cfa_offset 16
	.cfi_offset %rbp, -16
	movq	%rsp, %rbp
	.cfi_def_cfa_register %rbp
	subq	$16, %rsp
	movq	%rdi, -16(%rbp)
	movq	%rdi, -8(%rbp)
Ltmp524:
	.loc	3 490 1 prologue_end
	movq	(%rdi), %rdx
	movl	$1, %eax
	xorl	%ecx, %ecx
	cmpq	$0, %rdx
	cmoveq	%rcx, %rax
	cmpq	$0, %rax
	jne	LBB71_2
LBB71_1:
	addq	$16, %rsp
	popq	%rbp
	retq
LBB71_2:
	.loc	3 0 1 is_stmt 0
	movq	-16(%rbp), %rdi
	.loc	3 490 1
	callq	__ZN4core3ptr47drop_in_place$LT$alloc..ffi..c_str..CString$GT$17hfb8116eb268a77e7E
	jmp	LBB71_1
Ltmp525:
Lfunc_end71:
	.cfi_endproc

	.p2align	4, 0x90
__ZN4core3ptr75drop_in_place$LT$core..option..Option$LT$std..ffi..os_str..OsString$GT$$GT$17h0dd831f3d2382508E:
Lfunc_begin72:
	.loc	3 490 0 is_stmt 1
	.cfi_startproc
	pushq	%rbp
	.cfi_def_cfa_offset 16
	.cfi_offset %rbp, -16
	movq	%rsp, %rbp
	.cfi_def_cfa_register %rbp
	subq	$16, %rsp
	movq	%rdi, -16(%rbp)
	movq	%rdi, -8(%rbp)
Ltmp526:
	.loc	3 490 1 prologue_end
	movq	8(%rdi), %rdx
	movl	$1, %eax
	xorl	%ecx, %ecx
	cmpq	$0, %rdx
	cmoveq	%rcx, %rax
	cmpq	$0, %rax
	jne	LBB72_2
LBB72_1:
	addq	$16, %rsp
	popq	%rbp
	retq
LBB72_2:
	.loc	3 0 1 is_stmt 0
	movq	-16(%rbp), %rdi
	.loc	3 490 1
	callq	__ZN4core3ptr47drop_in_place$LT$std..ffi..os_str..OsString$GT$17h7b960380ef819b9fE
	jmp	LBB72_1
Ltmp527:
Lfunc_end72:
	.cfi_endproc

	.p2align	4, 0x90
__ZN4core3ptr77drop_in_place$LT$alloc..raw_vec..RawVec$LT$alloc..ffi..c_str..CString$GT$$GT$17h96a189536e2b106fE:
Lfunc_begin73:
	.loc	3 490 0 is_stmt 1
	.cfi_startproc
	pushq	%rbp
	.cfi_def_cfa_offset 16
	.cfi_offset %rbp, -16
	movq	%rsp, %rbp
	.cfi_def_cfa_register %rbp
	subq	$16, %rsp
	movq	%rdi, -8(%rbp)
Ltmp528:
	.loc	3 490 1 prologue_end
	callq	__ZN77_$LT$alloc..raw_vec..RawVec$LT$T$C$A$GT$$u20$as$u20$core..ops..drop..Drop$GT$4drop17hfeac419583ee4aa6E
	addq	$16, %rsp
	popq	%rbp
	retq
Ltmp529:
Lfunc_end73:
	.cfi_endproc

	.p2align	4, 0x90
__ZN4core3ptr85drop_in_place$LT$std..rt..lang_start$LT$$LP$$RP$$GT$..$u7b$$u7b$closure$u7d$$u7d$$GT$17h986bcc32bddc0f87E:
Lfunc_begin74:
	.loc	3 490 0
	.cfi_startproc
	pushq	%rbp
	.cfi_def_cfa_offset 16
	.cfi_offset %rbp, -16
	movq	%rsp, %rbp
	.cfi_def_cfa_register %rbp
	pushq	%rax
	movq	%rdi, -8(%rbp)
Ltmp530:
	.loc	3 490 1 prologue_end
	addq	$8, %rsp
	popq	%rbp
	retq
Ltmp531:
Lfunc_end74:
	.cfi_endproc

	.p2align	4, 0x90
__ZN4core3ptr87drop_in_place$LT$core..option..Option$LT$alloc..boxed..Box$LT$$u5b$u32$u5d$$GT$$GT$$GT$17h76041fdfd34fef88E:
Lfunc_begin75:
	.loc	3 490 0
	.cfi_startproc
	pushq	%rbp
	.cfi_def_cfa_offset 16
	.cfi_offset %rbp, -16
	movq	%rsp, %rbp
	.cfi_def_cfa_register %rbp
	subq	$16, %rsp
	movq	%rdi, -16(%rbp)
	movq	%rdi, -8(%rbp)
Ltmp532:
	.loc	3 490 1 prologue_end
	movq	(%rdi), %rdx
	movl	$1, %eax
	xorl	%ecx, %ecx
	cmpq	$0, %rdx
	cmoveq	%rcx, %rax
	cmpq	$0, %rax
	jne	LBB75_2
LBB75_1:
	addq	$16, %rsp
	popq	%rbp
	retq
LBB75_2:
	.loc	3 0 1 is_stmt 0
	movq	-16(%rbp), %rdi
	.loc	3 490 1
	callq	__ZN4core3ptr59drop_in_place$LT$alloc..boxed..Box$LT$$u5b$u32$u5d$$GT$$GT$17he56987216034d889E
	jmp	LBB75_1
Ltmp533:
Lfunc_end75:
	.cfi_endproc

	.p2align	4, 0x90
__ZN4core3ptr91drop_in_place$LT$core..result..Result$LT$alloc..string..String$C$std..env..VarError$GT$$GT$17h045475d6c6923e47E:
Lfunc_begin76:
	.loc	3 490 0 is_stmt 1
	.cfi_startproc
	pushq	%rbp
	.cfi_def_cfa_offset 16
	.cfi_offset %rbp, -16
	movq	%rsp, %rbp
	.cfi_def_cfa_register %rbp
	subq	$16, %rsp
	movq	%rdi, -16(%rbp)
	movq	%rdi, -8(%rbp)
Ltmp534:
	.loc	3 490 1 prologue_end
	cmpq	$0, (%rdi)
	jne	LBB76_2
	.loc	3 0 1 is_stmt 0
	movq	-16(%rbp), %rdi
	.loc	3 490 1
	addq	$8, %rdi
	callq	__ZN4core3ptr42drop_in_place$LT$alloc..string..String$GT$17h8fd1ae4e1c052302E
	jmp	LBB76_3
LBB76_2:
	.loc	3 0 1
	movq	-16(%rbp), %rdi
	.loc	3 490 1
	addq	$8, %rdi
	callq	__ZN4core3ptr39drop_in_place$LT$std..env..VarError$GT$17h41f5e679439047c6E
LBB76_3:
	addq	$16, %rsp
	popq	%rbp
	retq
Ltmp535:
Lfunc_end76:
	.cfi_endproc

	.p2align	4, 0x90
__ZN4core3ptr93drop_in_place$LT$dyn$u20$core..error..Error$u2b$core..marker..Send$u2b$core..marker..Sync$GT$17hf8ff2af592376d5cE:
Lfunc_begin77:
	.loc	3 490 0 is_stmt 1
	.cfi_startproc
	pushq	%rbp
	.cfi_def_cfa_offset 16
	.cfi_offset %rbp, -16
	movq	%rsp, %rbp
	.cfi_def_cfa_register %rbp
	subq	$16, %rsp
	movq	%rdi, -16(%rbp)
	movq	%rsi, -8(%rbp)
Ltmp536:
	.loc	3 490 1 prologue_end
	callq	*(%rsi)
	addq	$16, %rsp
	popq	%rbp
	retq
Ltmp537:
Lfunc_end77:
	.cfi_endproc

	.p2align	4, 0x90
__ZN4core3ptr95drop_in_place$LT$core..option..Option$LT$std..sys..unix..process..process_common..Stdio$GT$$GT$17h238f03ace3ddfae0E:
Lfunc_begin78:
	.loc	3 490 0
	.cfi_startproc
	pushq	%rbp
	.cfi_def_cfa_offset 16
	.cfi_offset %rbp, -16
	movq	%rsp, %rbp
	.cfi_def_cfa_register %rbp
	subq	$16, %rsp
	movq	%rdi, -16(%rbp)
	movq	%rdi, -8(%rbp)
Ltmp538:
	.loc	3 490 1 prologue_end
	movl	$1, %eax
	xorl	%ecx, %ecx
	cmpl	$4, (%rdi)
	cmoveq	%rcx, %rax
	cmpq	$0, %rax
	jne	LBB78_2
LBB78_1:
	addq	$16, %rsp
	popq	%rbp
	retq
LBB78_2:
	.loc	3 0 1 is_stmt 0
	movq	-16(%rbp), %rdi
	.loc	3 490 1
	callq	__ZN4core3ptr67drop_in_place$LT$std..sys..unix..process..process_common..Stdio$GT$17h5656c1b789c7fe17E
	jmp	LBB78_1
Ltmp539:
Lfunc_end78:
	.cfi_endproc

	.p2align	4, 0x90
__ZN4core3str21_$LT$impl$u20$str$GT$5split17hdb82aae4dcaffb99E:
Lfunc_begin79:
	.loc	21 1341 0 is_stmt 1
	.cfi_startproc
	.cfi_personality 155, _rust_eh_personality
	.cfi_lsda 16, Lexception21
	pushq	%rbp
	.cfi_def_cfa_offset 16
	.cfi_offset %rbp, -16
	movq	%rsp, %rbp
	.cfi_def_cfa_register %rbp
	subq	$272, %rsp
	movl	%ecx, -260(%rbp)
	movq	%rdx, -256(%rbp)
	movq	%rsi, -248(%rbp)
	movq	%rdi, -240(%rbp)
	movq	%rdi, -232(%rbp)
	movq	%rsi, -88(%rbp)
	movq	%rdx, -80(%rbp)
	movl	%ecx, -68(%rbp)
Ltmp543:
	.loc	21 1342 15 prologue_end
	movb	$1, -89(%rbp)
	.loc	21 1344 18
	movq	%rsi, -64(%rbp)
	movq	%rdx, -56(%rbp)
Ltmp544:
	.loc	21 160 9
	movq	%rsi, -48(%rbp)
	movq	%rdx, -40(%rbp)
Ltmp545:
	.loc	21 327 18
	movq	%rsi, -32(%rbp)
	movq	%rdx, -24(%rbp)
	movq	-24(%rbp), %rax
	movq	%rax, -224(%rbp)
Ltmp546:
	.loc	21 0 18 is_stmt 0
	movq	-256(%rbp), %rcx
	movq	-248(%rbp), %rdx
	movl	-260(%rbp), %esi
	.loc	21 1345 22 is_stmt 1
	movb	$0, -89(%rbp)
Ltmp540:
	leaq	-144(%rbp), %rdi
	callq	__ZN52_$LT$char$u20$as$u20$core..str..pattern..Pattern$GT$13into_searcher17hf2a98cfd724559ccE
Ltmp541:
	jmp	LBB79_4
LBB79_2:
	.loc	21 1349 5
	testb	$1, -89(%rbp)
	jne	LBB79_6
	jmp	LBB79_5
LBB79_3:
Ltmp542:
	.loc	21 0 5 is_stmt 0
	movq	%rax, %rcx
	movl	%edx, %eax
	movq	%rcx, -16(%rbp)
	movl	%eax, -8(%rbp)
	jmp	LBB79_2
LBB79_4:
	movq	-224(%rbp), %rax
	.loc	21 1342 15 is_stmt 1
	movq	$0, -168(%rbp)
	movq	%rax, -160(%rbp)
	leaq	-216(%rbp), %rdi
	leaq	-144(%rbp), %rsi
	movl	$48, %edx
	callq	_memcpy
	movq	-240(%rbp), %rdi
	movb	$1, -152(%rbp)
	movb	$0, -151(%rbp)
	.loc	21 1342 9 is_stmt 0
	leaq	-216(%rbp), %rsi
	movl	$72, %edx
	callq	_memcpy
	movq	-232(%rbp), %rax
	.loc	21 1349 6 is_stmt 1
	addq	$272, %rsp
	popq	%rbp
	retq
LBB79_5:
	.loc	21 1341 5
	movq	-16(%rbp), %rdi
	callq	__Unwind_Resume
LBB79_6:
	.loc	21 1349 5
	jmp	LBB79_5
Ltmp547:
Lfunc_end79:
	.cfi_endproc
	.section	__TEXT,__gcc_except_tab
	.p2align	2
GCC_except_table79:
Lexception21:
	.byte	255
	.byte	255
	.byte	1
	.uleb128 Lcst_end21-Lcst_begin21
Lcst_begin21:
	.uleb128 Ltmp540-Lfunc_begin79
	.uleb128 Ltmp541-Ltmp540
	.uleb128 Ltmp542-Lfunc_begin79
	.byte	0
	.uleb128 Ltmp541-Lfunc_begin79
	.uleb128 Lfunc_end79-Ltmp541
	.byte	0
	.byte	0
Lcst_end21:
	.p2align	2

	.section	__TEXT,__text,regular,pure_instructions
	.p2align	4, 0x90
__ZN4core3str4iter22SplitInternal$LT$P$GT$4next17he7ca694112902106E:
Lfunc_begin80:
	.file	27 "/rustc/2c8cc343237b8f7d5a3c3703e3a87f2eb2c54a74/library/core/src/str" "iter.rs"
	.loc	27 602 0
	.cfi_startproc
	pushq	%rbp
	.cfi_def_cfa_offset 16
	.cfi_offset %rbp, -16
	movq	%rsp, %rbp
	.cfi_def_cfa_register %rbp
	subq	$160, %rsp
	movq	%rdi, -136(%rbp)
	movq	%rdi, -72(%rbp)
Ltmp548:
	.loc	27 603 12 prologue_end
	testb	$1, 65(%rdi)
	jne	LBB80_2
	.loc	27 0 12 is_stmt 0
	movq	-136(%rbp), %rdi
	.loc	27 607 24 is_stmt 1
	callq	__ZN81_$LT$core..str..pattern..CharSearcher$u20$as$u20$core..str..pattern..Searcher$GT$8haystack17h11ba387d93c84268E
	movq	-136(%rbp), %rsi
	movq	%rax, -152(%rbp)
	movq	%rdx, -144(%rbp)
	movq	%rax, -64(%rbp)
	movq	%rdx, -56(%rbp)
Ltmp549:
	.loc	27 608 15
	leaq	-112(%rbp), %rdi
	callq	__ZN81_$LT$core..str..pattern..CharSearcher$u20$as$u20$core..str..pattern..Searcher$GT$10next_match17hd9dca3246ef7620aE
	.loc	27 608 9 is_stmt 0
	cmpq	$0, -112(%rbp)
	je	LBB80_4
	jmp	LBB80_5
Ltmp550:
LBB80_2:
	.loc	27 604 20 is_stmt 1
	movq	$0, -128(%rbp)
LBB80_3:
	.loc	27 617 6
	movq	-128(%rbp), %rax
	movq	-120(%rbp), %rdx
	addq	$160, %rsp
	popq	%rbp
	retq
LBB80_4:
	.loc	27 0 6 is_stmt 0
	movq	-136(%rbp), %rdi
Ltmp551:
	.loc	27 615 21 is_stmt 1
	callq	__ZN4core3str4iter22SplitInternal$LT$P$GT$7get_end17h4e1b88ea6d532917E
	movq	%rdx, -120(%rbp)
	movq	%rax, -128(%rbp)
	.loc	27 615 34 is_stmt 0
	jmp	LBB80_6
LBB80_5:
	.loc	27 0 34
	movq	-136(%rbp), %rsi
	movq	-144(%rbp), %rcx
	movq	-152(%rbp), %rdx
	.loc	27 610 19 is_stmt 1
	movq	-104(%rbp), %rax
	movq	%rax, -48(%rbp)
	.loc	27 610 22 is_stmt 0
	movq	-96(%rbp), %rdi
	movq	%rdi, -160(%rbp)
	movq	%rdi, -40(%rbp)
Ltmp552:
	.loc	27 611 27 is_stmt 1
	movq	%rdx, -32(%rbp)
	movq	%rcx, -24(%rbp)
	.loc	27 611 50 is_stmt 0
	movq	48(%rsi), %rsi
	movq	%rsi, -88(%rbp)
	movq	%rax, -80(%rbp)
Ltmp553:
	.loc	21 511 20 is_stmt 1
	movq	-88(%rbp), %rdi
	movq	-80(%rbp), %rsi
	callq	__ZN4core3str6traits108_$LT$impl$u20$core..slice..index..SliceIndex$LT$str$GT$$u20$for$u20$core..ops..range..Range$LT$usize$GT$$GT$13get_unchecked17h1d4cd0cbc68d6fd6E
	movq	-160(%rbp), %rsi
	movq	-136(%rbp), %rcx
	.loc	21 511 18 is_stmt 0
	movq	%rax, -16(%rbp)
	movq	%rdx, -8(%rbp)
Ltmp554:
	.loc	27 612 17 is_stmt 1
	movq	%rsi, 48(%rcx)
	.loc	27 613 17
	movq	%rax, -128(%rbp)
	movq	%rdx, -120(%rbp)
Ltmp555:
LBB80_6:
	.loc	27 617 6
	jmp	LBB80_3
Ltmp556:
Lfunc_end80:
	.cfi_endproc

	.p2align	4, 0x90
__ZN4core3str4iter22SplitInternal$LT$P$GT$7get_end17h4e1b88ea6d532917E:
Lfunc_begin81:
	.loc	27 587 0
	.cfi_startproc
	pushq	%rbp
	.cfi_def_cfa_offset 16
	.cfi_offset %rbp, -16
	movq	%rsp, %rbp
	.cfi_def_cfa_register %rbp
	subq	$96, %rsp
	movq	%rdi, -88(%rbp)
	movq	%rdi, -40(%rbp)
Ltmp557:
	.loc	27 588 13 prologue_end
	movb	65(%rdi), %al
	.loc	27 588 12 is_stmt 0
	xorb	$-1, %al
	testb	$1, %al
	jne	LBB81_2
LBB81_1:
	.loc	27 598 9 is_stmt 1
	movq	$0, -80(%rbp)
	.loc	27 599 6
	jmp	LBB81_8
LBB81_2:
	.loc	27 0 6 is_stmt 0
	movq	-88(%rbp), %rax
	.loc	27 589 13 is_stmt 1
	movb	$1, 65(%rax)
	.loc	27 591 16
	testb	$1, 64(%rax)
	jne	LBB81_4
	.loc	27 0 16 is_stmt 0
	movq	-88(%rbp), %rcx
	.loc	27 591 45
	movq	56(%rcx), %rax
	subq	48(%rcx), %rax
	cmpq	$0, %rax
	seta	%al
	.loc	27 591 16
	andb	$1, %al
	movb	%al, -57(%rbp)
	jmp	LBB81_5
LBB81_4:
	movb	$1, -57(%rbp)
LBB81_5:
	testb	$1, -57(%rbp)
	jne	LBB81_7
	.loc	27 588 9 is_stmt 1
	jmp	LBB81_1
LBB81_7:
	.loc	27 0 9 is_stmt 0
	movq	-88(%rbp), %rdi
	.loc	27 593 39 is_stmt 1
	callq	__ZN81_$LT$core..str..pattern..CharSearcher$u20$as$u20$core..str..pattern..Searcher$GT$8haystack17h11ba387d93c84268E
	movq	%rax, %rcx
	movq	-88(%rbp), %rax
	movq	%rcx, -96(%rbp)
	movq	%rdx, %rcx
	movq	-96(%rbp), %rdx
	movq	%rdx, -32(%rbp)
	movq	%rcx, -24(%rbp)
	.loc	27 593 77 is_stmt 0
	movq	48(%rax), %rsi
	.loc	27 593 89
	movq	56(%rax), %rax
	.loc	27 593 77
	movq	%rsi, -56(%rbp)
	movq	%rax, -48(%rbp)
Ltmp558:
	.loc	21 511 20 is_stmt 1
	movq	-56(%rbp), %rdi
	movq	-48(%rbp), %rsi
	callq	__ZN4core3str6traits108_$LT$impl$u20$core..slice..index..SliceIndex$LT$str$GT$$u20$for$u20$core..ops..range..Range$LT$usize$GT$$GT$13get_unchecked17h1d4cd0cbc68d6fd6E
	.loc	21 511 18 is_stmt 0
	movq	%rax, -16(%rbp)
	movq	%rdx, -8(%rbp)
Ltmp559:
	.loc	27 594 24 is_stmt 1
	movq	%rax, -80(%rbp)
	movq	%rdx, -72(%rbp)
Ltmp560:
LBB81_8:
	.loc	27 599 6
	movq	-80(%rbp), %rax
	movq	-72(%rbp), %rdx
	addq	$96, %rsp
	popq	%rbp
	retq
Ltmp561:
Lfunc_end81:
	.cfi_endproc

	.p2align	4, 0x90
__ZN4core3str6traits108_$LT$impl$u20$core..slice..index..SliceIndex$LT$str$GT$$u20$for$u20$core..ops..range..Range$LT$usize$GT$$GT$13get_unchecked17h1d4cd0cbc68d6fd6E:
Lfunc_begin82:
	.file	28 "/rustc/2c8cc343237b8f7d5a3c3703e3a87f2eb2c54a74/library/core/src/str" "traits.rs"
	.loc	28 197 0
	.cfi_startproc
	pushq	%rbp
	.cfi_def_cfa_offset 16
	.cfi_offset %rbp, -16
	movq	%rsp, %rbp
	.cfi_def_cfa_register %rbp
	subq	$192, %rsp
	movq	%rdi, -160(%rbp)
	movq	%rsi, -152(%rbp)
	movq	%rdx, -144(%rbp)
	movq	%rcx, -136(%rbp)
Ltmp562:
	.loc	28 198 21 prologue_end
	movq	%rdx, -128(%rbp)
	movq	%rcx, -120(%rbp)
Ltmp563:
	.loc	28 201 28
	movq	%rdx, -112(%rbp)
	movq	%rcx, -104(%rbp)
Ltmp564:
	.loc	2 1650 9
	movq	%rdx, -96(%rbp)
Ltmp565:
	.loc	28 201 47
	movq	%rdi, -88(%rbp)
Ltmp566:
	.loc	2 932 18
	movq	%rdx, -80(%rbp)
	.loc	2 932 30 is_stmt 0
	movq	%rdi, -72(%rbp)
Ltmp567:
	.loc	2 473 18 is_stmt 1
	addq	%rdi, %rdx
	movq	%rdx, -64(%rbp)
	movq	-64(%rbp), %rax
	movq	%rax, -56(%rbp)
Ltmp568:
	.loc	28 202 19
	subq	%rdi, %rsi
	movq	%rsi, -48(%rbp)
Ltmp569:
	.loc	28 203 35
	movq	%rax, -40(%rbp)
	.loc	28 203 40 is_stmt 0
	movq	%rsi, -32(%rbp)
Ltmp570:
	.loc	3 734 20 is_stmt 1
	movq	%rax, -24(%rbp)
Ltmp571:
	.loc	2 61 9
	movq	%rax, -16(%rbp)
Ltmp572:
	.loc	3 734 33
	movq	%rsi, -8(%rbp)
Ltmp573:
	.loc	4 118 36
	movq	%rax, -176(%rbp)
	movq	%rsi, -168(%rbp)
	.loc	4 118 14 is_stmt 0
	movq	-176(%rbp), %rcx
	movq	-168(%rbp), %rax
	movq	%rcx, -192(%rbp)
	movq	%rax, -184(%rbp)
	movq	-192(%rbp), %rax
	movq	-184(%rbp), %rdx
Ltmp574:
	.loc	28 204 6 is_stmt 1
	addq	$192, %rsp
	popq	%rbp
	retq
Ltmp575:
Lfunc_end82:
	.cfi_endproc

	.p2align	4, 0x90
__ZN4core3str74_$LT$impl$u20$core..convert..AsRef$LT$$u5b$u8$u5d$$GT$$u20$for$u20$str$GT$6as_ref17hdc35bfcc900e34e5E:
Lfunc_begin83:
	.loc	21 2579 0
	.cfi_startproc
	pushq	%rbp
	.cfi_def_cfa_offset 16
	.cfi_offset %rbp, -16
	movq	%rsp, %rbp
	.cfi_def_cfa_register %rbp
	subq	$48, %rsp
	movq	%rdi, -48(%rbp)
	movq	%rsi, -40(%rbp)
Ltmp576:
	.loc	21 2580 9 prologue_end
	movq	%rdi, -32(%rbp)
	movq	%rsi, -24(%rbp)
Ltmp577:
	.loc	21 327 18
	movq	%rdi, -16(%rbp)
	movq	%rsi, -8(%rbp)
	movq	-16(%rbp), %rax
	movq	-8(%rbp), %rdx
Ltmp578:
	.loc	21 2581 6
	addq	$48, %rsp
	popq	%rbp
	retq
Ltmp579:
Lfunc_end83:
	.cfi_endproc

	.p2align	4, 0x90
__ZN4core4char7methods15encode_utf8_raw17hfbbbe99b3d974c05E:
Lfunc_begin84:
	.file	29 "/rustc/2c8cc343237b8f7d5a3c3703e3a87f2eb2c54a74/library/core/src/char" "methods.rs"
	.loc	29 1729 0
	.cfi_startproc
	pushq	%rbp
	.cfi_def_cfa_offset 16
	.cfi_offset %rbp, -16
	movq	%rsp, %rbp
	.cfi_def_cfa_register %rbp
	subq	$560, %rsp
	movq	%rsi, -544(%rbp)
	movq	%rdx, -536(%rbp)
	movl	%edi, -516(%rbp)
	movq	%rsi, -304(%rbp)
	movq	%rdx, -296(%rbp)
Ltmp580:
	.loc	29 1730 24 prologue_end
	movl	-516(%rbp), %edi
	.loc	29 1730 15 is_stmt 0
	callq	__ZN4core4char7methods8len_utf817hc879e853990cbab6E
	movq	-544(%rbp), %rsi
	movq	-536(%rbp), %rdx
	movq	%rax, -512(%rbp)
Ltmp581:
	.loc	29 1731 12 is_stmt 1
	movq	-512(%rbp), %rax
	.loc	29 1731 22 is_stmt 0
	movq	%rsi, -272(%rbp)
	movq	%rdx, -264(%rbp)
Ltmp582:
	.loc	1 30 25 is_stmt 1
	movq	%rsi, -256(%rbp)
	movq	%rdx, -248(%rbp)
Ltmp583:
	.loc	29 1731 11
	movq	%rax, -504(%rbp)
	movq	%rsi, -496(%rbp)
	movq	%rdx, -488(%rbp)
	.loc	29 1731 5 is_stmt 0
	movq	-504(%rbp), %rax
	decq	%rax
	movq	%rax, -528(%rbp)
	subq	$3, %rax
	ja	LBB84_1
	.loc	29 0 5
	movq	-528(%rbp), %rax
	leaq	LJTI84_0(%rip), %rcx
	movslq	(%rcx,%rax,4), %rax
	addq	%rcx, %rax
	jmpq	*%rax
LBB84_1:
	movq	-536(%rbp), %rcx
	leaq	-512(%rbp), %rsi
	.loc	29 1750 14 is_stmt 1
	movq	%rsi, -120(%rbp)
Ltmp584:
	.loc	23 328 23
	movq	%rsi, -112(%rbp)
	.loc	23 328 26 is_stmt 0
	movq	__ZN4core3fmt3num3imp54_$LT$impl$u20$core..fmt..Display$u20$for$u20$usize$GT$3fmt17ha5c925fcd7ed33faE@GOTPCREL(%rip), %rax
	movq	%rax, -104(%rbp)
Ltmp585:
	.loc	23 347 42 is_stmt 1
	movq	%rax, -96(%rbp)
	movq	-96(%rbp), %rdx
	.loc	23 347 68 is_stmt 0
	movq	%rsi, -88(%rbp)
	movq	-88(%rbp), %rsi
	.loc	23 347 18
	movq	%rsi, -384(%rbp)
	movq	%rdx, -376(%rbp)
	leaq	-516(%rbp), %rsi
Ltmp586:
	.loc	29 1750 14 is_stmt 1
	movq	%rsi, -80(%rbp)
Ltmp587:
	.loc	23 328 23
	movq	%rsi, -72(%rbp)
	.loc	23 328 26 is_stmt 0
	movq	__ZN4core3fmt3num53_$LT$impl$u20$core..fmt..UpperHex$u20$for$u20$u32$GT$3fmt17ha96bbefe8f663d11E@GOTPCREL(%rip), %rdx
	movq	%rdx, -64(%rbp)
Ltmp588:
	.loc	23 347 42 is_stmt 1
	movq	%rdx, -56(%rbp)
	movq	-56(%rbp), %rdx
	.loc	23 347 68 is_stmt 0
	movq	%rsi, -48(%rbp)
	movq	-48(%rbp), %rsi
	.loc	23 347 18
	movq	%rsi, -368(%rbp)
	movq	%rdx, -360(%rbp)
Ltmp589:
	.loc	29 1754 13 is_stmt 1
	movq	%rcx, -336(%rbp)
	leaq	-336(%rbp), %rcx
	.loc	29 1750 14
	movq	%rcx, -40(%rbp)
Ltmp590:
	.loc	23 328 23
	movq	%rcx, -32(%rbp)
	.loc	23 328 26 is_stmt 0
	movq	%rax, -24(%rbp)
Ltmp591:
	.loc	23 347 42 is_stmt 1
	movq	%rax, -16(%rbp)
	movq	-16(%rbp), %rax
	.loc	23 347 68 is_stmt 0
	movq	%rcx, -8(%rbp)
	movq	-8(%rbp), %rcx
	.loc	23 347 18
	movq	%rcx, -352(%rbp)
	movq	%rax, -344(%rbp)
Ltmp592:
	.loc	29 1750 14 is_stmt 1
	movq	-384(%rbp), %rcx
	movq	-376(%rbp), %rax
	movq	%rcx, -432(%rbp)
	movq	%rax, -424(%rbp)
	movq	-368(%rbp), %rcx
	movq	-360(%rbp), %rax
	movq	%rcx, -416(%rbp)
	movq	%rax, -408(%rbp)
	movq	-352(%rbp), %rcx
	movq	-344(%rbp), %rax
	movq	%rcx, -400(%rbp)
	movq	%rax, -392(%rbp)
	leaq	l___unnamed_7(%rip), %rsi
	leaq	-480(%rbp), %rdi
	movq	%rdi, -552(%rbp)
	leaq	-432(%rbp), %rcx
	movl	$3, %r8d
	movq	%r8, %rdx
	callq	__ZN4core3fmt9Arguments6new_v117ha0aaff7f77f8bcf8E
	movq	-552(%rbp), %rdi
	leaq	l___unnamed_8(%rip), %rsi
	callq	__ZN4core9panicking9panic_fmt17h9b5d807e24bcaaedE
LBB84_2:
	.loc	29 1732 13
	cmpq	$1, -488(%rbp)
	jae	LBB84_10
	jmp	LBB84_1
LBB84_3:
	.loc	29 1735 13
	cmpq	$2, -488(%rbp)
	jae	LBB84_9
	jmp	LBB84_1
LBB84_4:
	.loc	29 1739 13
	cmpq	$3, -488(%rbp)
	jae	LBB84_8
	jmp	LBB84_1
LBB84_5:
	.loc	29 1744 13
	cmpq	$4, -488(%rbp)
	jb	LBB84_1
	.loc	29 1744 14 is_stmt 0
	movq	-496(%rbp), %rsi
	movq	%rsi, -240(%rbp)
	.loc	29 1744 17
	movq	-496(%rbp), %rdx
	movq	%rdx, %rax
	addq	$1, %rax
	movq	%rax, -232(%rbp)
	.loc	29 1744 20
	movq	-496(%rbp), %rcx
	movq	%rcx, %rax
	addq	$2, %rax
	movq	%rax, -224(%rbp)
	.loc	29 1744 23
	movq	-496(%rbp), %rax
	movq	%rax, %rdi
	addq	$3, %rdi
	movq	%rdi, -216(%rbp)
Ltmp593:
	.loc	29 1745 19 is_stmt 1
	movl	-516(%rbp), %edi
	shrl	$18, %edi
	.loc	29 1745 18 is_stmt 0
	andl	$7, %edi
	.loc	29 1745 13
	orb	$-16, %dil
	movb	%dil, (%rsi)
	.loc	29 1746 19 is_stmt 1
	movl	-516(%rbp), %esi
	shrl	$12, %esi
	.loc	29 1746 18 is_stmt 0
	andl	$63, %esi
	.loc	29 1746 13
	orb	$-128, %sil
	movb	%sil, 1(%rdx)
	.loc	29 1747 19 is_stmt 1
	movl	-516(%rbp), %edx
	shrl	$6, %edx
	.loc	29 1747 18 is_stmt 0
	andl	$63, %edx
	.loc	29 1747 13
	orb	$-128, %dl
	movb	%dl, 2(%rcx)
	.loc	29 1748 19 is_stmt 1
	movl	-516(%rbp), %ecx
	.loc	29 1748 18 is_stmt 0
	andl	$63, %ecx
	.loc	29 1748 13
	orb	$-128, %cl
	movb	%cl, 3(%rax)
Ltmp594:
LBB84_7:
	.loc	29 0 13
	movq	-536(%rbp), %rcx
	movq	-544(%rbp), %rdx
	.loc	29 1757 10 is_stmt 1
	movq	%rdx, -160(%rbp)
	movq	%rcx, -152(%rbp)
	.loc	29 1757 16 is_stmt 0
	movq	-512(%rbp), %rax
	.loc	29 1757 14
	movq	%rax, -328(%rbp)
Ltmp595:
	.loc	1 30 9 is_stmt 1
	movq	-328(%rbp), %rax
	movq	%rax, -144(%rbp)
	.loc	1 30 25 is_stmt 0
	movq	%rdx, -136(%rbp)
	movq	%rcx, -128(%rbp)
Ltmp596:
	.loc	1 461 9 is_stmt 1
	movq	$0, -320(%rbp)
	movq	%rax, -312(%rbp)
	movq	-320(%rbp), %rdi
	movq	-312(%rbp), %rsi
	leaq	l___unnamed_9(%rip), %r8
	callq	__ZN106_$LT$core..ops..range..Range$LT$usize$GT$$u20$as$u20$core..slice..index..SliceIndex$LT$$u5b$T$u5d$$GT$$GT$9index_mut17hf2fa6db834403569E
Ltmp597:
	.loc	29 1758 2
	addq	$560, %rsp
	popq	%rbp
	retq
LBB84_8:
Ltmp598:
	.loc	29 1739 14
	movq	-496(%rbp), %rdx
	movq	%rdx, -208(%rbp)
	.loc	29 1739 17 is_stmt 0
	movq	-496(%rbp), %rcx
	movq	%rcx, %rax
	addq	$1, %rax
	movq	%rax, -200(%rbp)
	.loc	29 1739 20
	movq	-496(%rbp), %rax
	movq	%rax, %rsi
	addq	$2, %rsi
	movq	%rsi, -192(%rbp)
Ltmp599:
	.loc	29 1740 19 is_stmt 1
	movl	-516(%rbp), %esi
	shrl	$12, %esi
	.loc	29 1740 18 is_stmt 0
	andl	$15, %esi
	.loc	29 1740 13
	orb	$-32, %sil
	movb	%sil, (%rdx)
	.loc	29 1741 19 is_stmt 1
	movl	-516(%rbp), %edx
	shrl	$6, %edx
	.loc	29 1741 18 is_stmt 0
	andl	$63, %edx
	.loc	29 1741 13
	orb	$-128, %dl
	movb	%dl, 1(%rcx)
	.loc	29 1742 19 is_stmt 1
	movl	-516(%rbp), %ecx
	.loc	29 1742 18 is_stmt 0
	andl	$63, %ecx
	.loc	29 1742 13
	orb	$-128, %cl
	movb	%cl, 2(%rax)
Ltmp600:
	.loc	29 1743 9 is_stmt 1
	jmp	LBB84_7
LBB84_9:
	.loc	29 1735 14
	movq	-496(%rbp), %rcx
	movq	%rcx, -184(%rbp)
	.loc	29 1735 17 is_stmt 0
	movq	-496(%rbp), %rax
	movq	%rax, %rdx
	addq	$1, %rdx
	movq	%rdx, -176(%rbp)
Ltmp601:
	.loc	29 1736 19 is_stmt 1
	movl	-516(%rbp), %edx
	shrl	$6, %edx
	.loc	29 1736 18 is_stmt 0
	andl	$31, %edx
	.loc	29 1736 13
	orb	$-64, %dl
	movb	%dl, (%rcx)
	.loc	29 1737 19 is_stmt 1
	movl	-516(%rbp), %ecx
	.loc	29 1737 18 is_stmt 0
	andl	$63, %ecx
	.loc	29 1737 13
	orb	$-128, %cl
	movb	%cl, 1(%rax)
Ltmp602:
	.loc	29 1738 9 is_stmt 1
	jmp	LBB84_7
LBB84_10:
	.loc	29 1732 14
	movq	-496(%rbp), %rax
	movq	%rax, -168(%rbp)
Ltmp603:
	.loc	29 1733 18
	movl	-516(%rbp), %ecx
	.loc	29 1733 13 is_stmt 0
	movb	%cl, (%rax)
Ltmp604:
	.loc	29 1734 9 is_stmt 1
	jmp	LBB84_7
Ltmp605:
Lfunc_end84:
	.cfi_endproc
	.p2align	2, 0x90
	.data_region jt32
.set L84_0_set_2, LBB84_2-LJTI84_0
.set L84_0_set_3, LBB84_3-LJTI84_0
.set L84_0_set_4, LBB84_4-LJTI84_0
.set L84_0_set_5, LBB84_5-LJTI84_0
LJTI84_0:
	.long	L84_0_set_2
	.long	L84_0_set_3
	.long	L84_0_set_4
	.long	L84_0_set_5
	.end_data_region

	.p2align	4, 0x90
__ZN4core4char7methods8len_utf817hc879e853990cbab6E:
Lfunc_begin85:
	.loc	29 1701 0
	.cfi_startproc
	pushq	%rbp
	.cfi_def_cfa_offset 16
	.cfi_offset %rbp, -16
	movq	%rsp, %rbp
	.cfi_def_cfa_register %rbp
	subq	$24, %rsp
	movl	%edi, -20(%rbp)
	movl	%edi, -4(%rbp)
Ltmp606:
	.loc	29 1702 8 prologue_end
	cmpl	$128, %edi
	jb	LBB85_2
	.loc	29 0 8 is_stmt 0
	movl	-20(%rbp), %eax
	.loc	29 1704 15 is_stmt 1
	cmpl	$2048, %eax
	jb	LBB85_5
	jmp	LBB85_4
LBB85_2:
	.loc	29 1703 9
	movq	$1, -16(%rbp)
LBB85_3:
	.loc	29 1711 2
	movq	-16(%rbp), %rax
	addq	$24, %rsp
	popq	%rbp
	retq
LBB85_4:
	.loc	29 0 2 is_stmt 0
	movl	-20(%rbp), %eax
	.loc	29 1706 15 is_stmt 1
	cmpl	$65536, %eax
	jb	LBB85_8
	jmp	LBB85_7
LBB85_5:
	.loc	29 1705 9
	movq	$2, -16(%rbp)
LBB85_6:
	.loc	29 1702 5
	jmp	LBB85_3
LBB85_7:
	.loc	29 1709 9
	movq	$4, -16(%rbp)
	.loc	29 1706 12
	jmp	LBB85_9
LBB85_8:
	.loc	29 1707 9
	movq	$3, -16(%rbp)
LBB85_9:
	.loc	29 1704 12
	jmp	LBB85_6
Ltmp607:
Lfunc_end85:
	.cfi_endproc

	.p2align	4, 0x90
__ZN4core4hint21unreachable_unchecked17h149ecabeb9f798dcE:
Lfunc_begin86:
	.loc	12 100 0
	.cfi_startproc
	pushq	%rbp
	.cfi_def_cfa_offset 16
	.cfi_offset %rbp, -16
	movq	%rsp, %rbp
	.cfi_def_cfa_register %rbp
Ltmp608:
	.loc	12 104 9 prologue_end
	ud2
Ltmp609:
Lfunc_end86:
	.cfi_endproc

	.p2align	4, 0x90
__ZN4core5alloc6layout10size_align17h3d55dc6b34c47c05E:
Lfunc_begin87:
	.file	30 "/rustc/2c8cc343237b8f7d5a3c3703e3a87f2eb2c54a74/library/core/src/alloc" "layout.rs"
	.loc	30 19 0
	.cfi_startproc
	pushq	%rbp
	.cfi_def_cfa_offset 16
	.cfi_offset %rbp, -16
	movq	%rsp, %rbp
	.cfi_def_cfa_register %rbp
	subq	$16, %rsp
Ltmp610:
	.loc	30 20 5 prologue_end
	movq	$640, -16(%rbp)
	movq	$8, -8(%rbp)
	.loc	30 21 2
	movq	-16(%rbp), %rax
	movq	-8(%rbp), %rdx
	addq	$16, %rsp
	popq	%rbp
	retq
Ltmp611:
Lfunc_end87:
	.cfi_endproc

	.p2align	4, 0x90
__ZN4core5alloc6layout10size_align17h94a490114a8f3df1E:
Lfunc_begin88:
	.loc	30 19 0
	.cfi_startproc
	pushq	%rbp
	.cfi_def_cfa_offset 16
	.cfi_offset %rbp, -16
	movq	%rsp, %rbp
	.cfi_def_cfa_register %rbp
	subq	$16, %rsp
Ltmp612:
	.loc	30 20 5 prologue_end
	movq	$544, -16(%rbp)
	movq	$8, -8(%rbp)
	.loc	30 21 2
	movq	-16(%rbp), %rax
	movq	-8(%rbp), %rdx
	addq	$16, %rsp
	popq	%rbp
	retq
Ltmp613:
Lfunc_end88:
	.cfi_endproc

	.p2align	4, 0x90
__ZN4core5alloc6layout6Layout5array5inner17hb1fc1204fd444e23E:
Lfunc_begin89:
	.loc	30 441 0
	.cfi_startproc
	pushq	%rbp
	.cfi_def_cfa_offset 16
	.cfi_offset %rbp, -16
	movq	%rsp, %rbp
	.cfi_def_cfa_register %rbp
	subq	$176, %rsp
	movq	%rdi, -168(%rbp)
	movq	%rsi, -160(%rbp)
	movq	%rdx, -152(%rbp)
	movq	%rdi, -88(%rbp)
	movq	%rsi, -80(%rbp)
	movq	%rdx, -72(%rbp)
Ltmp614:
	.loc	30 452 16 prologue_end
	cmpq	$0, %rdi
	jne	LBB89_2
	movb	$0, -121(%rbp)
	jmp	LBB89_5
LBB89_2:
	.loc	30 0 16 is_stmt 0
	movq	-168(%rbp), %rax
	movq	-160(%rbp), %rcx
	.loc	30 452 68
	movq	%rcx, -64(%rbp)
Ltmp615:
	.loc	30 93 32 is_stmt 1
	movq	%rcx, -56(%rbp)
Ltmp616:
	.file	31 "/rustc/2c8cc343237b8f7d5a3c3703e3a87f2eb2c54a74/library/core/src/ptr" "alignment.rs"
	.loc	31 97 9
	movq	%rcx, -104(%rbp)
	movq	-104(%rbp), %rdx
Ltmp617:
	.loc	30 93 31
	subq	$1, %rdx
	.loc	30 93 9 is_stmt 0
	movabsq	$9223372036854775807, %rcx
	subq	%rdx, %rcx
	movq	%rcx, -176(%rbp)
Ltmp618:
	.loc	30 452 41 is_stmt 1
	cmpq	$0, %rax
	sete	%al
	testb	$1, %al
	jne	LBB89_4
	.loc	30 0 41 is_stmt 0
	movq	-168(%rbp), %rcx
	movq	-176(%rbp), %rax
	.loc	30 452 41
	xorl	%edx, %edx
	divq	%rcx
	movq	%rax, %rcx
	movq	-152(%rbp), %rax
	.loc	30 452 37
	cmpq	%rcx, %rax
	seta	%al
	.loc	30 452 16
	andb	$1, %al
	movb	%al, -121(%rbp)
	jmp	LBB89_5
LBB89_4:
	.loc	30 452 41
	leaq	_str.0(%rip), %rdi
	leaq	l___unnamed_10(%rip), %rdx
	movl	$25, %esi
	callq	__ZN4core9panicking5panic17hc1bc45270cf64b03E
LBB89_5:
	.loc	30 452 16
	testb	$1, -121(%rbp)
	jne	LBB89_7
	.loc	30 0 16
	movq	-160(%rbp), %rax
	movq	-152(%rbp), %rdx
	movq	-168(%rbp), %rcx
	.loc	30 456 30 is_stmt 1
	imulq	%rdx, %rcx
	movq	%rcx, -48(%rbp)
Ltmp619:
	.loc	30 461 59
	movq	%rcx, -40(%rbp)
	.loc	30 461 71 is_stmt 0
	movq	%rax, -32(%rbp)
Ltmp620:
	.loc	31 97 9 is_stmt 1
	movq	%rax, -96(%rbp)
	movq	-96(%rbp), %rax
	movq	%rax, -24(%rbp)
Ltmp621:
	.loc	30 120 65
	movq	%rax, -16(%rbp)
Ltmp622:
	.loc	31 89 18
	movq	%rax, -8(%rbp)
	movq	-8(%rbp), %rax
Ltmp623:
	.loc	30 120 18
	movq	%rcx, -120(%rbp)
	movq	%rax, -112(%rbp)
Ltmp624:
	.loc	30 461 22
	movq	-120(%rbp), %rcx
	movq	-112(%rbp), %rax
	movq	%rcx, -144(%rbp)
	movq	%rax, -136(%rbp)
Ltmp625:
	.loc	30 462 10
	jmp	LBB89_8
LBB89_7:
	.loc	30 453 24
	movq	$0, -136(%rbp)
LBB89_8:
	.loc	30 462 10
	movq	-144(%rbp), %rax
	movq	-136(%rbp), %rdx
	addq	$176, %rsp
	popq	%rbp
	retq
Ltmp626:
Lfunc_end89:
	.cfi_endproc

	.p2align	4, 0x90
__ZN4core5slice3cmp81_$LT$impl$u20$core..cmp..PartialEq$LT$$u5b$B$u5d$$GT$$u20$for$u20$$u5b$A$u5d$$GT$2eq17h20fbdf561ca61354E:
Lfunc_begin90:
	.file	32 "/rustc/2c8cc343237b8f7d5a3c3703e3a87f2eb2c54a74/library/core/src/slice" "cmp.rs"
	.loc	32 25 0
	.cfi_startproc
	pushq	%rbp
	.cfi_def_cfa_offset 16
	.cfi_offset %rbp, -16
	movq	%rsp, %rbp
	.cfi_def_cfa_register %rbp
	subq	$32, %rsp
	movq	%rdi, -32(%rbp)
	movq	%rsi, -24(%rbp)
	movq	%rdx, -16(%rbp)
	movq	%rcx, -8(%rbp)
Ltmp627:
	.loc	32 26 9 prologue_end
	callq	__ZN73_$LT$$u5b$A$u5d$$u20$as$u20$core..slice..cmp..SlicePartialEq$LT$B$GT$$GT$5equal17hbb75f3e834eb802fE
	.loc	32 27 6
	andb	$1, %al
	movzbl	%al, %eax
	addq	$32, %rsp
	popq	%rbp
	retq
Ltmp628:
Lfunc_end90:
	.cfi_endproc

	.p2align	4, 0x90
__ZN4core5slice6memchr12memchr_naive17hc6e763a00351ead9E:
Lfunc_begin91:
	.file	33 "/rustc/2c8cc343237b8f7d5a3c3703e3a87f2eb2c54a74/library/core/src/slice" "memchr.rs"
	.loc	33 48 0
	.cfi_startproc
	pushq	%rbp
	.cfi_def_cfa_offset 16
	.cfi_offset %rbp, -16
	movq	%rsp, %rbp
	.cfi_def_cfa_register %rbp
	subq	$80, %rsp
	movq	%rdx, -72(%rbp)
	movq	%rsi, -64(%rbp)
	movb	%dil, %al
	movb	%al, -49(%rbp)
	movb	%al, -17(%rbp)
	movq	%rsi, -16(%rbp)
	movq	%rdx, -8(%rbp)
Ltmp629:
	.loc	33 49 17 prologue_end
	movq	$0, -32(%rbp)
LBB91_1:
	.loc	33 0 17 is_stmt 0
	movq	-72(%rbp), %rax
Ltmp630:
	.loc	33 52 11 is_stmt 1
	cmpq	%rax, -32(%rbp)
	jb	LBB91_3
	.loc	33 60 5
	movq	$0, -48(%rbp)
Ltmp631:
	.loc	33 61 2
	jmp	LBB91_8
LBB91_3:
	.loc	33 0 2 is_stmt 0
	movq	-72(%rbp), %rcx
Ltmp632:
	.loc	33 53 17 is_stmt 1
	movq	-32(%rbp), %rax
	movq	%rax, -80(%rbp)
	.loc	33 53 12 is_stmt 0
	cmpq	%rcx, %rax
	setb	%al
	testb	$1, %al
	jne	LBB91_4
	jmp	LBB91_5
LBB91_4:
	.loc	33 0 12
	movq	-64(%rbp), %rax
	movq	-80(%rbp), %rcx
	movb	-49(%rbp), %dl
	.loc	33 53 12
	cmpb	%dl, (%rax,%rcx)
	je	LBB91_7
	jmp	LBB91_6
LBB91_5:
	.loc	33 0 12
	movq	-72(%rbp), %rsi
	movq	-80(%rbp), %rdi
	.loc	33 53 12
	leaq	l___unnamed_11(%rip), %rdx
	callq	__ZN4core9panicking18panic_bounds_check17hacb8a94866cda541E
LBB91_6:
	.loc	33 57 9 is_stmt 1
	movq	-32(%rbp), %rax
	addq	$1, %rax
	movq	%rax, -32(%rbp)
	.loc	33 52 5
	jmp	LBB91_1
LBB91_7:
	.loc	33 54 25
	movq	-32(%rbp), %rax
	.loc	33 54 20 is_stmt 0
	movq	%rax, -40(%rbp)
	movq	$1, -48(%rbp)
Ltmp633:
LBB91_8:
	.loc	33 61 2 is_stmt 1
	movq	-48(%rbp), %rax
	movq	-40(%rbp), %rdx
	addq	$80, %rsp
	popq	%rbp
	retq
Ltmp634:
Lfunc_end91:
	.cfi_endproc

	.p2align	4, 0x90
__ZN4core5slice6memchr6memchr17hbae67b3d0f54898aE:
Lfunc_begin92:
	.loc	33 38 0
	.cfi_startproc
	pushq	%rbp
	.cfi_def_cfa_offset 16
	.cfi_offset %rbp, -16
	movq	%rsp, %rbp
	.cfi_def_cfa_register %rbp
	subq	$64, %rsp
	movq	%rdx, -64(%rbp)
	movq	%rsi, -56(%rbp)
	movb	%dil, %al
	movb	%al, -41(%rbp)
	movb	%al, -17(%rbp)
	movq	%rsi, -16(%rbp)
	movq	%rdx, -8(%rbp)
Ltmp635:
	.loc	33 40 8 prologue_end
	cmpq	$16, %rdx
	jb	LBB92_2
	.loc	33 0 8 is_stmt 0
	movq	-64(%rbp), %rdx
	movq	-56(%rbp), %rsi
	movb	-41(%rbp), %al
	.loc	33 44 5 is_stmt 1
	movzbl	%al, %edi
	callq	__ZN4core5slice6memchr14memchr_aligned17h35d16807f0081d88E
	movq	%rdx, -32(%rbp)
	movq	%rax, -40(%rbp)
	.loc	33 45 2
	jmp	LBB92_3
LBB92_2:
	.loc	33 0 2 is_stmt 0
	movq	-64(%rbp), %rdx
	movq	-56(%rbp), %rsi
	movb	-41(%rbp), %al
	.loc	33 41 16 is_stmt 1
	movzbl	%al, %edi
	callq	__ZN4core5slice6memchr12memchr_naive17hc6e763a00351ead9E
	movq	%rdx, -32(%rbp)
	movq	%rax, -40(%rbp)
LBB92_3:
	.loc	33 45 2
	movq	-40(%rbp), %rax
	movq	-32(%rbp), %rdx
	addq	$64, %rsp
	popq	%rbp
	retq
Ltmp636:
Lfunc_end92:
	.cfi_endproc

	.p2align	4, 0x90
__ZN4core6option15Option$LT$T$GT$3map17he549e080b6712a13E:
Lfunc_begin93:
	.loc	8 964 0
	.cfi_startproc
	pushq	%rbp
	.cfi_def_cfa_offset 16
	.cfi_offset %rbp, -16
	movq	%rsp, %rbp
	.cfi_def_cfa_register %rbp
	subq	$112, %rsp
	movq	%rcx, -104(%rbp)
	movq	%rdx, -96(%rbp)
	movq	%rdi, -88(%rbp)
	movq	%rdi, -80(%rbp)
	movq	%rsi, -72(%rbp)
	movq	%rdx, -24(%rbp)
	movq	%rcx, -16(%rbp)
Ltmp637:
	.loc	8 969 15 prologue_end
	movb	$1, -25(%rbp)
	movq	-72(%rbp), %rdx
	movl	$1, %eax
	xorl	%ecx, %ecx
	cmpq	$0, %rdx
	cmoveq	%rcx, %rax
	.loc	8 969 9 is_stmt 0
	cmpq	$0, %rax
	jne	LBB93_2
	.loc	8 0 9
	movq	-88(%rbp), %rax
	.loc	8 971 21 is_stmt 1
	movq	$0, 8(%rax)
	jmp	LBB93_3
LBB93_2:
	.loc	8 0 21 is_stmt 0
	movq	-104(%rbp), %rdx
	movq	-96(%rbp), %rsi
	.loc	8 970 18 is_stmt 1
	movq	-72(%rbp), %rax
	movq	%rax, -8(%rbp)
Ltmp638:
	.loc	8 970 29 is_stmt 0
	movb	$0, -25(%rbp)
	movq	%rax, -40(%rbp)
	movq	-40(%rbp), %rcx
	leaq	-64(%rbp), %rdi
	callq	__ZN5alloc11collections5btree4node40NodeRef$LT$BorrowType$C$K$C$V$C$Type$GT$6ascend28_$u7b$$u7b$closure$u7d$$u7d$17hb5a444844afa6cd7E
	movq	-88(%rbp), %rax
	.loc	8 970 24
	movq	-64(%rbp), %rcx
	movq	%rcx, (%rax)
	movq	-56(%rbp), %rcx
	movq	%rcx, 8(%rax)
	movq	-48(%rbp), %rcx
	movq	%rcx, 16(%rax)
Ltmp639:
LBB93_3:
	.loc	8 973 5 is_stmt 1
	testb	$1, -25(%rbp)
	jne	LBB93_5
LBB93_4:
	.loc	8 0 5 is_stmt 0
	movq	-80(%rbp), %rax
	.loc	8 973 6
	addq	$112, %rsp
	popq	%rbp
	retq
LBB93_5:
	.loc	8 973 5
	jmp	LBB93_4
Ltmp640:
Lfunc_end93:
	.cfi_endproc

	.p2align	4, 0x90
__ZN4core6result19Result$LT$T$C$E$GT$16unwrap_unchecked17h1afa4fd11c20af5fE:
Lfunc_begin94:
	.file	34 "/rustc/2c8cc343237b8f7d5a3c3703e3a87f2eb2c54a74/library/core/src" "result.rs"
	.loc	34 1530 0 is_stmt 1
	.cfi_startproc
	.cfi_personality 155, _rust_eh_personality
	.cfi_lsda 16, Lexception22
	pushq	%rbp
	.cfi_def_cfa_offset 16
	.cfi_offset %rbp, -16
	movq	%rsp, %rbp
	.cfi_def_cfa_register %rbp
	subq	$64, %rsp
	movq	%rdi, -48(%rbp)
	movq	%rsi, -40(%rbp)
Ltmp644:
	.loc	34 1532 15 prologue_end
	xorl	%eax, %eax
	movl	$1, %ecx
	cmpq	$0, -40(%rbp)
	cmoveq	%rcx, %rax
	.loc	34 1532 9 is_stmt 0
	cmpq	$0, %rax
	jne	LBB94_2
	.loc	34 1533 16 is_stmt 1
	movq	-48(%rbp), %rcx
	movq	%rcx, -64(%rbp)
	movq	-40(%rbp), %rax
	movq	%rax, -56(%rbp)
	movq	%rcx, -16(%rbp)
	movq	%rax, -8(%rbp)
	.loc	34 1537 5
	xorl	%eax, %eax
	movl	$1, %ecx
	cmpq	$0, -40(%rbp)
	cmoveq	%rcx, %rax
	cmpq	$0, %rax
	je	LBB94_10
	jmp	LBB94_11
LBB94_2:
Ltmp641:
	.loc	34 1535 32
	callq	__ZN4core4hint21unreachable_unchecked17h149ecabeb9f798dcE
Ltmp642:
	jmp	LBB94_5
LBB94_3:
	.loc	34 1537 5
	xorl	%eax, %eax
	movl	$1, %ecx
	cmpq	$0, -40(%rbp)
	cmoveq	%rcx, %rax
	cmpq	$0, %rax
	je	LBB94_6
	jmp	LBB94_7
LBB94_4:
Ltmp643:
	.loc	34 0 5 is_stmt 0
	movq	%rax, %rcx
	movl	%edx, %eax
	movq	%rcx, -32(%rbp)
	movl	%eax, -24(%rbp)
	jmp	LBB94_3
LBB94_5:
	ud2
LBB94_6:
	.loc	34 1537 5
	movb	$1, %al
	testb	$1, %al
	jne	LBB94_9
	jmp	LBB94_8
LBB94_7:
	jmp	LBB94_8
LBB94_8:
	.loc	34 1530 5 is_stmt 1
	movq	-32(%rbp), %rdi
	callq	__Unwind_Resume
LBB94_9:
	.loc	34 1537 5
	jmp	LBB94_8
LBB94_10:
	.loc	34 0 5 is_stmt 0
	movq	-56(%rbp), %rdx
	movq	-64(%rbp), %rax
	.loc	34 1537 6
	addq	$64, %rsp
	popq	%rbp
	retq
LBB94_11:
	.loc	34 1537 5
	jmp	LBB94_10
Ltmp645:
Lfunc_end94:
	.cfi_endproc
	.section	__TEXT,__gcc_except_tab
	.p2align	2
GCC_except_table94:
Lexception22:
	.byte	255
	.byte	255
	.byte	1
	.uleb128 Lcst_end22-Lcst_begin22
Lcst_begin22:
	.uleb128 Ltmp641-Lfunc_begin94
	.uleb128 Ltmp642-Ltmp641
	.uleb128 Ltmp643-Lfunc_begin94
	.byte	0
	.uleb128 Ltmp642-Lfunc_begin94
	.uleb128 Lfunc_end94-Ltmp642
	.byte	0
	.byte	0
Lcst_end22:
	.p2align	2

	.section	__TEXT,__text,regular,pure_instructions
	.p2align	4, 0x90
__ZN4core6result19Result$LT$T$C$E$GT$2ok17h481f01ab3e689125E:
Lfunc_begin95:
	.loc	34 642 0 is_stmt 1
	.cfi_startproc
	pushq	%rbp
	.cfi_def_cfa_offset 16
	.cfi_offset %rbp, -16
	movq	%rsp, %rbp
	.cfi_def_cfa_register %rbp
	subq	$32, %rsp
	movq	%rdi, -32(%rbp)
Ltmp646:
	.loc	34 646 15 prologue_end
	movl	(%rdi), %eax
	.loc	34 646 9 is_stmt 0
	cmpq	$0, %rax
Ltmp647:
	jne	LBB95_2
Ltmp648:
	.loc	34 0 9
	movq	-32(%rbp), %rax
	.loc	34 647 16 is_stmt 1
	movl	4(%rax), %eax
	movl	%eax, -4(%rbp)
Ltmp649:
	.loc	34 647 22 is_stmt 0
	movl	%eax, -20(%rbp)
	movl	$1, -24(%rbp)
Ltmp650:
	.loc	34 647 28
	jmp	LBB95_3
Ltmp651:
LBB95_2:
	.loc	34 0 28
	movq	-32(%rbp), %rax
	.loc	34 650 17 is_stmt 1
	movq	8(%rax), %rax
	movq	%rax, -16(%rbp)
Ltmp652:
	.loc	34 650 23 is_stmt 0
	movl	$0, -24(%rbp)
Ltmp653:
	.loc	34 650 26
	leaq	-16(%rbp), %rdi
	callq	__ZN4core3ptr42drop_in_place$LT$std..io..error..Error$GT$17h8d8cb6bf93c27322E
Ltmp654:
LBB95_3:
	.loc	34 652 6 is_stmt 1
	movl	-24(%rbp), %eax
	movl	-20(%rbp), %edx
	addq	$32, %rsp
	popq	%rbp
	retq
Ltmp655:
Lfunc_end95:
	.cfi_endproc

	.p2align	4, 0x90
__ZN4core6result19Result$LT$T$C$E$GT$2ok17hea6da86a73c112b2E:
Lfunc_begin96:
	.loc	34 642 0
	.cfi_startproc
	pushq	%rbp
	.cfi_def_cfa_offset 16
	.cfi_offset %rbp, -16
	movq	%rsp, %rbp
	.cfi_def_cfa_register %rbp
	subq	$32, %rsp
	movq	%rdi, -32(%rbp)
Ltmp656:
	.loc	34 646 15 prologue_end
	movq	-32(%rbp), %rdx
	movl	$1, %eax
	xorl	%ecx, %ecx
	cmpq	$0, %rdx
	cmoveq	%rcx, %rax
	.loc	34 646 9 is_stmt 0
	cmpq	$0, %rax
	jne	LBB96_2
Ltmp657:
	.loc	34 647 22 is_stmt 1
	movb	$1, -17(%rbp)
Ltmp658:
	.loc	34 647 28 is_stmt 0
	jmp	LBB96_3
LBB96_2:
	.loc	34 650 17 is_stmt 1
	movq	-32(%rbp), %rax
	movq	%rax, -16(%rbp)
Ltmp659:
	.loc	34 650 23 is_stmt 0
	movb	$0, -17(%rbp)
Ltmp660:
	.loc	34 650 26
	leaq	-16(%rbp), %rdi
	callq	__ZN4core3ptr42drop_in_place$LT$std..io..error..Error$GT$17h8d8cb6bf93c27322E
LBB96_3:
	.loc	34 652 6 is_stmt 1
	movb	-17(%rbp), %al
	andb	$1, %al
	movzbl	%al, %eax
	addq	$32, %rsp
	popq	%rbp
	retq
Ltmp661:
Lfunc_end96:
	.cfi_endproc

	.p2align	4, 0x90
__ZN50_$LT$T$u20$as$u20$core..convert..Into$LT$U$GT$$GT$4into17h06fbfe78ea702376E:
Lfunc_begin97:
	.file	35 "/rustc/2c8cc343237b8f7d5a3c3703e3a87f2eb2c54a74/library/core/src/convert" "mod.rs"
	.loc	35 725 0
	.cfi_startproc
	pushq	%rbp
	.cfi_def_cfa_offset 16
	.cfi_offset %rbp, -16
	movq	%rsp, %rbp
	.cfi_def_cfa_register %rbp
	subq	$16, %rsp
	movq	%rdi, -8(%rbp)
Ltmp662:
	.loc	35 726 9 prologue_end
	callq	__ZN119_$LT$core..ptr..non_null..NonNull$LT$T$GT$$u20$as$u20$core..convert..From$LT$core..ptr..unique..Unique$LT$T$GT$$GT$$GT$4from17he04adad1ce0f20caE
	.loc	35 727 6
	addq	$16, %rsp
	popq	%rbp
	retq
Ltmp663:
Lfunc_end97:
	.cfi_endproc

	.p2align	4, 0x90
__ZN50_$LT$T$u20$as$u20$core..convert..Into$LT$U$GT$$GT$4into17h64ece591631fee93E:
Lfunc_begin98:
	.loc	35 725 0
	.cfi_startproc
	pushq	%rbp
	.cfi_def_cfa_offset 16
	.cfi_offset %rbp, -16
	movq	%rsp, %rbp
	.cfi_def_cfa_register %rbp
	subq	$16, %rsp
	movl	%esi, %edx
	movl	%edi, %eax
	movl	%eax, -16(%rbp)
	movl	%edx, -12(%rbp)
	movl	%eax, -8(%rbp)
	movl	%edx, -4(%rbp)
Ltmp664:
	.loc	35 727 6 prologue_end
	addq	$16, %rsp
	popq	%rbp
	retq
Ltmp665:
Lfunc_end98:
	.cfi_endproc

	.p2align	4, 0x90
__ZN52_$LT$char$u20$as$u20$core..str..pattern..Pattern$GT$13into_searcher17hf2a98cfd724559ccE:
Lfunc_begin99:
	.file	36 "/rustc/2c8cc343237b8f7d5a3c3703e3a87f2eb2c54a74/library/core/src/str" "pattern.rs"
	.loc	36 543 0
	.cfi_startproc
	pushq	%rbp
	.cfi_def_cfa_offset 16
	.cfi_offset %rbp, -16
	movq	%rsp, %rbp
	.cfi_def_cfa_register %rbp
	subq	$224, %rsp
	movq	%rcx, -208(%rbp)
	movq	%rdx, -216(%rbp)
	movl	%esi, -196(%rbp)
	movq	%rdi, -192(%rbp)
	movq	%rdi, -184(%rbp)
	movl	%esi, -164(%rbp)
	movq	%rdx, -160(%rbp)
	movq	%rcx, -152(%rbp)
Ltmp666:
	.loc	36 544 32 prologue_end
	leaq	-172(%rbp), %rdi
	xorl	%esi, %esi
	movl	$4, %edx
	callq	_memset
	movl	-196(%rbp), %edi
Ltmp667:
	.loc	36 545 25
	movl	%edi, -140(%rbp)
	.loc	36 545 42 is_stmt 0
	leaq	-172(%rbp), %rax
	movq	%rax, -136(%rbp)
	movq	$4, -128(%rbp)
Ltmp668:
	.loc	29 663 42 is_stmt 1
	leaq	-172(%rbp), %rsi
	movl	$4, %edx
	callq	__ZN4core4char7methods15encode_utf8_raw17hfbbbe99b3d974c05E
	movq	-216(%rbp), %r9
	movq	-208(%rbp), %r8
	movl	-196(%rbp), %esi
	movq	-192(%rbp), %rdi
	movq	%rax, %rcx
	movq	-184(%rbp), %rax
	movq	%rcx, -120(%rbp)
	movq	%rdx, -112(%rbp)
Ltmp669:
	.loc	36 545 25
	movq	%rcx, -104(%rbp)
	movq	%rdx, -96(%rbp)
Ltmp670:
	.loc	21 160 9
	movq	%rcx, -88(%rbp)
	movq	%rdx, -80(%rbp)
Ltmp671:
	.loc	21 327 18
	movq	%rcx, -72(%rbp)
	movq	%rdx, -64(%rbp)
	movq	-64(%rbp), %rcx
Ltmp672:
	.loc	21 160 9
	movq	%rcx, -56(%rbp)
Ltmp673:
	.loc	36 549 26
	movq	%r9, -48(%rbp)
	movq	%r8, -40(%rbp)
Ltmp674:
	.loc	21 160 9
	movq	%r9, -32(%rbp)
	movq	%r8, -24(%rbp)
Ltmp675:
	.loc	21 327 18
	movq	%r9, -16(%rbp)
	movq	%r8, -8(%rbp)
	movq	-8(%rbp), %rdx
Ltmp676:
	.loc	36 552 13
	movl	-172(%rbp), %r10d
	movl	%r10d, -168(%rbp)
	.loc	36 546 9
	movq	%r9, (%rdi)
	movq	%r8, 8(%rdi)
	movq	$0, 16(%rdi)
	movq	%rdx, 24(%rdi)
	movl	%esi, 44(%rdi)
	movq	%rcx, 32(%rdi)
	movl	-168(%rbp), %ecx
	movl	%ecx, 40(%rdi)
Ltmp677:
	.loc	36 554 6
	addq	$224, %rsp
	popq	%rbp
	retq
Ltmp678:
Lfunc_end99:
	.cfi_endproc

	.p2align	4, 0x90
__ZN54_$LT$$LP$$RP$$u20$as$u20$std..process..Termination$GT$6report17h8e64eafb0b327553E:
Lfunc_begin100:
	.loc	16 2182 0
	.cfi_startproc
	pushq	%rbp
	.cfi_def_cfa_offset 16
	.cfi_offset %rbp, -16
	movq	%rsp, %rbp
	.cfi_def_cfa_register %rbp
	pushq	%rax
Ltmp679:
	.loc	16 2184 6 prologue_end
	xorl	%eax, %eax
	addq	$8, %rsp
	popq	%rbp
	retq
Ltmp680:
Lfunc_end100:
	.cfi_endproc

	.p2align	4, 0x90
__ZN55_$LT$$RF$T$u20$as$u20$core..convert..AsRef$LT$U$GT$$GT$6as_ref17h4026641e028424c6E:
Lfunc_begin101:
	.loc	35 667 0
	.cfi_startproc
	pushq	%rbp
	.cfi_def_cfa_offset 16
	.cfi_offset %rbp, -16
	movq	%rsp, %rbp
	.cfi_def_cfa_register %rbp
	subq	$16, %rsp
	movq	%rdi, %rax
	movq	%rax, -8(%rbp)
Ltmp681:
	.loc	35 668 33 prologue_end
	movq	(%rax), %rdi
	movq	8(%rax), %rsi
	.loc	35 668 9 is_stmt 0
	callq	__ZN4core3str74_$LT$impl$u20$core..convert..AsRef$LT$$u5b$u8$u5d$$GT$$u20$for$u20$str$GT$6as_ref17hdc35bfcc900e34e5E
	.loc	35 669 6 is_stmt 1
	addq	$16, %rsp
	popq	%rbp
	retq
Ltmp682:
Lfunc_end101:
	.cfi_endproc

	.p2align	4, 0x90
__ZN55_$LT$$RF$T$u20$as$u20$core..convert..AsRef$LT$U$GT$$GT$6as_ref17h59206ed780294d71E:
Lfunc_begin102:
	.loc	35 667 0
	.cfi_startproc
	pushq	%rbp
	.cfi_def_cfa_offset 16
	.cfi_offset %rbp, -16
	movq	%rsp, %rbp
	.cfi_def_cfa_register %rbp
	subq	$16, %rsp
	movq	%rdi, -8(%rbp)
Ltmp683:
	.loc	35 668 33 prologue_end
	movq	(%rdi), %rdi
	.loc	35 668 9 is_stmt 0
	callq	__ZN82_$LT$std..path..PathBuf$u20$as$u20$core..convert..AsRef$LT$std..path..Path$GT$$GT$6as_ref17h9b8bfc8eeedbc899E
	.loc	35 669 6 is_stmt 1
	addq	$16, %rsp
	popq	%rbp
	retq
Ltmp684:
Lfunc_end102:
	.cfi_endproc

	.p2align	4, 0x90
__ZN55_$LT$$RF$T$u20$as$u20$core..convert..AsRef$LT$U$GT$$GT$6as_ref17hf5843cf68dac9678E:
Lfunc_begin103:
	.loc	35 667 0
	.cfi_startproc
	pushq	%rbp
	.cfi_def_cfa_offset 16
	.cfi_offset %rbp, -16
	movq	%rsp, %rbp
	.cfi_def_cfa_register %rbp
	subq	$16, %rsp
	movq	%rdi, %rax
	movq	%rax, -8(%rbp)
Ltmp685:
	.loc	35 668 33 prologue_end
	movq	(%rax), %rdi
	movq	8(%rax), %rsi
	.loc	35 668 9 is_stmt 0
	callq	__ZN3std4path77_$LT$impl$u20$core..convert..AsRef$LT$std..path..Path$GT$$u20$for$u20$str$GT$6as_ref17haddbdb8c41847453E
	.loc	35 669 6 is_stmt 1
	addq	$16, %rsp
	popq	%rbp
	retq
Ltmp686:
Lfunc_end103:
	.cfi_endproc

	.p2align	4, 0x90
__ZN55_$LT$$RF$T$u20$as$u20$core..convert..AsRef$LT$U$GT$$GT$6as_ref17hfd8190ce178a47cbE:
Lfunc_begin104:
	.loc	35 667 0
	.cfi_startproc
	pushq	%rbp
	.cfi_def_cfa_offset 16
	.cfi_offset %rbp, -16
	movq	%rsp, %rbp
	.cfi_def_cfa_register %rbp
	subq	$16, %rsp
	movq	%rdi, %rax
	movq	%rax, -8(%rbp)
Ltmp687:
	.loc	35 668 33 prologue_end
	movq	(%rax), %rdi
	movq	8(%rax), %rsi
	.loc	35 668 9 is_stmt 0
	callq	__ZN3std3ffi6os_str85_$LT$impl$u20$core..convert..AsRef$LT$std..ffi..os_str..OsStr$GT$$u20$for$u20$str$GT$6as_ref17h9f0dfbd15934c2f3E
	.loc	35 669 6 is_stmt 1
	addq	$16, %rsp
	popq	%rbp
	retq
Ltmp688:
Lfunc_end104:
	.cfi_endproc

	.p2align	4, 0x90
__ZN59_$LT$alloc..alloc..Global$u20$as$u20$core..clone..Clone$GT$5clone17h08dc641e42401f67E:
Lfunc_begin105:
	.file	37 "/rustc/2c8cc343237b8f7d5a3c3703e3a87f2eb2c54a74/library/alloc/src" "alloc.rs"
	.loc	37 53 0
	.cfi_startproc
	pushq	%rbp
	.cfi_def_cfa_offset 16
	.cfi_offset %rbp, -16
	movq	%rsp, %rbp
	.cfi_def_cfa_register %rbp
	pushq	%rax
	movq	%rdi, -8(%rbp)
Ltmp689:
	.loc	37 53 21 prologue_end
	addq	$8, %rsp
	popq	%rbp
	retq
Ltmp690:
Lfunc_end105:
	.cfi_endproc

	.p2align	4, 0x90
__ZN5alloc11collections5btree3map25IntoIter$LT$K$C$V$C$A$GT$10dying_next17h90e61c50625edf79E:
Lfunc_begin106:
	.loc	6 1663 0
	.cfi_startproc
	pushq	%rbp
	.cfi_def_cfa_offset 16
	.cfi_offset %rbp, -16
	movq	%rsp, %rbp
	.cfi_def_cfa_register %rbp
	subq	$64, %rsp
	movq	%rsi, -56(%rbp)
	movq	%rdi, -48(%rbp)
	movq	%rdi, -40(%rbp)
	movq	%rsi, -8(%rbp)
Ltmp691:
	.loc	6 1666 12 prologue_end
	cmpq	$0, 64(%rsi)
	jne	LBB106_2
	.loc	6 0 12 is_stmt 0
	movq	-56(%rbp), %rdi
	.loc	6 1667 41 is_stmt 1
	callq	__ZN59_$LT$alloc..alloc..Global$u20$as$u20$core..clone..Clone$GT$5clone17h08dc641e42401f67E
	movq	-56(%rbp), %rdi
	.loc	6 1667 13 is_stmt 0
	callq	__ZN5alloc11collections5btree8navigate75LazyLeafRange$LT$alloc..collections..btree..node..marker..Dying$C$K$C$V$GT$16deallocating_end17h4cdebddb7989b41fE
	movq	-48(%rbp), %rax
	.loc	6 1668 13 is_stmt 1
	movq	$0, 8(%rax)
	.loc	6 1666 9
	jmp	LBB106_3
LBB106_2:
	.loc	6 0 9 is_stmt 0
	movq	-56(%rbp), %rdi
	.loc	6 1670 13 is_stmt 1
	movq	64(%rdi), %rax
	subq	$1, %rax
	movq	%rax, 64(%rdi)
	.loc	6 1671 66
	callq	__ZN59_$LT$alloc..alloc..Global$u20$as$u20$core..clone..Clone$GT$5clone17h08dc641e42401f67E
	movq	-56(%rbp), %rsi
	.loc	6 1671 27 is_stmt 0
	leaq	-32(%rbp), %rdi
	callq	__ZN5alloc11collections5btree8navigate75LazyLeafRange$LT$alloc..collections..btree..node..marker..Dying$C$K$C$V$GT$27deallocating_next_unchecked17hf612d89815ac5594E
	movq	-48(%rbp), %rax
	.loc	6 1671 13
	movq	-32(%rbp), %rcx
	movq	%rcx, (%rax)
	movq	-24(%rbp), %rcx
	movq	%rcx, 8(%rax)
	movq	-16(%rbp), %rcx
	movq	%rcx, 16(%rax)
LBB106_3:
	.loc	6 0 13
	movq	-40(%rbp), %rax
	.loc	6 1673 6 is_stmt 1
	addq	$64, %rsp
	popq	%rbp
	retq
Ltmp692:
Lfunc_end106:
	.cfi_endproc

	.p2align	4, 0x90
__ZN5alloc11collections5btree3mem7replace17hd668fe5504a2cad9E:
Lfunc_begin107:
	.file	38 "/rustc/2c8cc343237b8f7d5a3c3703e3a87f2eb2c54a74/library/alloc/src/collections/btree" "mem.rs"
	.loc	38 20 0
	.cfi_startproc
	.cfi_personality 155, _rust_eh_personality
	.cfi_lsda 16, Lexception23
	pushq	%rbp
	.cfi_def_cfa_offset 16
	.cfi_offset %rbp, -16
	movq	%rsp, %rbp
	.cfi_def_cfa_register %rbp
	subq	$352, %rsp
	movq	%rsi, -352(%rbp)
	movq	%rdi, -344(%rbp)
	movq	%rdi, -336(%rbp)
	movq	%rsi, -72(%rbp)
Ltmp699:
	.loc	38 27 9 prologue_end
	movb	$1, -145(%rbp)
Ltmp700:
	.loc	38 28 36
	movq	%rsi, -40(%rbp)
Ltmp701:
	.loc	3 1157 34
	leaq	-144(%rbp), %rax
	movq	%rax, -32(%rbp)
	.loc	3 1157 9 is_stmt 0
	movq	(%rsi), %rax
	movq	%rax, -144(%rbp)
	movq	8(%rsi), %rax
	movq	%rax, -136(%rbp)
	movq	16(%rsi), %rax
	movq	%rax, -128(%rbp)
	.loc	3 1158 9 is_stmt 1
	movq	-144(%rbp), %rax
	movq	%rax, -120(%rbp)
	movq	-136(%rbp), %rax
	movq	%rax, -112(%rbp)
	movq	-128(%rbp), %rax
	movq	%rax, -104(%rbp)
Ltmp702:
	.loc	24 627 38
	movq	-104(%rbp), %rax
	movq	%rax, -80(%rbp)
	movq	-120(%rbp), %rax
	movq	-112(%rbp), %rcx
	movq	%rcx, -88(%rbp)
	movq	%rax, -96(%rbp)
Ltmp703:
	.loc	7 89 9
	movq	-80(%rbp), %rax
	movq	%rax, -304(%rbp)
	movq	-96(%rbp), %rax
	movq	-88(%rbp), %rcx
	movq	%rcx, -312(%rbp)
	movq	%rax, -320(%rbp)
Ltmp704:
	.loc	38 29 28
	movb	$0, -145(%rbp)
	.loc	38 29 35 is_stmt 0
	movq	-304(%rbp), %rax
	movq	%rax, -184(%rbp)
	movq	-320(%rbp), %rax
	movq	-312(%rbp), %rcx
	movq	%rcx, -192(%rbp)
	movq	%rax, -200(%rbp)
	.loc	38 29 28
	movq	-184(%rbp), %rax
	movq	%rax, -208(%rbp)
	movq	-200(%rbp), %rax
	movq	-192(%rbp), %rcx
	movq	%rcx, -216(%rbp)
	movq	%rax, -224(%rbp)
Ltmp693:
	leaq	-272(%rbp), %rdi
	leaq	-224(%rbp), %rsi
	callq	__ZN5alloc11collections5btree8navigate263_$LT$impl$u20$alloc..collections..btree..node..Handle$LT$alloc..collections..btree..node..NodeRef$LT$alloc..collections..btree..node..marker..Dying$C$K$C$V$C$alloc..collections..btree..node..marker..Leaf$GT$$C$alloc..collections..btree..node..marker..Edge$GT$$GT$27deallocating_next_unchecked28_$u7b$$u7b$closure$u7d$$u7d$17h87a7f370e04e68b2E
Ltmp694:
	jmp	LBB107_4
Ltmp705:
LBB107_2:
	.loc	38 35 1 is_stmt 1
	movb	$1, %al
	testb	$1, %al
	jne	LBB107_6
	jmp	LBB107_5
LBB107_3:
Ltmp695:
	.loc	38 0 1 is_stmt 0
	movq	%rax, %rcx
	movl	%edx, %eax
	movq	%rcx, -24(%rbp)
	movl	%eax, -16(%rbp)
	jmp	LBB107_2
LBB107_4:
	movq	-336(%rbp), %rax
	movq	-352(%rbp), %rcx
	movq	-344(%rbp), %rdx
Ltmp706:
	.loc	38 29 10 is_stmt 1
	movq	-272(%rbp), %rsi
	movq	%rsi, -296(%rbp)
	movq	-264(%rbp), %rsi
	movq	%rsi, -288(%rbp)
	movq	-256(%rbp), %rsi
	movq	%rsi, -280(%rbp)
	.loc	38 29 21 is_stmt 0
	movq	-248(%rbp), %rsi
	movq	%rsi, (%rdx)
	movq	-240(%rbp), %rsi
	movq	%rsi, 8(%rdx)
	movq	-232(%rbp), %rsi
	movq	%rsi, 16(%rdx)
Ltmp707:
	.loc	38 31 20 is_stmt 1
	movq	%rcx, -8(%rbp)
	.loc	38 31 23 is_stmt 0
	movq	-296(%rbp), %rdx
	movq	%rdx, -176(%rbp)
	movq	-288(%rbp), %rdx
	movq	%rdx, -168(%rbp)
	movq	-280(%rbp), %rdx
	movq	%rdx, -160(%rbp)
Ltmp708:
	.loc	3 1354 9 is_stmt 1
	movq	-176(%rbp), %rdx
	movq	%rdx, (%rcx)
	movq	-168(%rbp), %rdx
	movq	%rdx, 8(%rcx)
	movq	-160(%rbp), %rdx
	movq	%rdx, 16(%rcx)
Ltmp709:
	.loc	38 35 2
	addq	$352, %rsp
	popq	%rbp
	retq
LBB107_5:
	.loc	38 35 1 is_stmt 0
	testb	$1, -145(%rbp)
	jne	LBB107_9
	jmp	LBB107_8
LBB107_6:
Ltmp696:
	.loc	38 0 1
	leaq	-328(%rbp), %rdi
	.loc	38 35 1
	callq	__ZN4core3ptr72drop_in_place$LT$alloc..collections..btree..mem..replace..PanicGuard$GT$17h22b0ce0ab3d92f23E
Ltmp697:
	jmp	LBB107_5
LBB107_7:
Ltmp698:
	.loc	38 20 1 is_stmt 1
	callq	__ZN4core9panicking19panic_cannot_unwind17h1fbca7e1d7f56ae1E
LBB107_8:
	movq	-24(%rbp), %rdi
	callq	__Unwind_Resume
LBB107_9:
	.loc	38 35 1
	jmp	LBB107_8
Ltmp710:
Lfunc_end107:
	.cfi_endproc
	.section	__TEXT,__gcc_except_tab
	.p2align	2
GCC_except_table107:
Lexception23:
	.byte	255
	.byte	255
	.byte	1
	.uleb128 Lcst_end23-Lcst_begin23
Lcst_begin23:
	.uleb128 Ltmp693-Lfunc_begin107
	.uleb128 Ltmp694-Ltmp693
	.uleb128 Ltmp695-Lfunc_begin107
	.byte	0
	.uleb128 Ltmp696-Lfunc_begin107
	.uleb128 Ltmp697-Ltmp696
	.uleb128 Ltmp698-Lfunc_begin107
	.byte	0
	.uleb128 Ltmp697-Lfunc_begin107
	.uleb128 Lfunc_end107-Ltmp697
	.byte	0
	.byte	0
Lcst_end23:
	.p2align	2

	.section	__TEXT,__text,regular,pure_instructions
	.p2align	4, 0x90
__ZN5alloc11collections5btree4node127NodeRef$LT$alloc..collections..btree..node..marker..Dying$C$K$C$V$C$alloc..collections..btree..node..marker..LeafOrInternal$GT$21deallocate_and_ascend17hb56e6dfb42b5c007E:
Lfunc_begin108:
	.file	39 "/rustc/2c8cc343237b8f7d5a3c3703e3a87f2eb2c54a74/library/alloc/src/collections/btree" "node.rs"
	.loc	39 396 0
	.cfi_startproc
	.cfi_personality 155, _rust_eh_personality
	.cfi_lsda 16, Lexception24
	pushq	%rbp
	.cfi_def_cfa_offset 16
	.cfi_offset %rbp, -16
	movq	%rsp, %rbp
	.cfi_def_cfa_register %rbp
	subq	$368, %rsp
	movq	%rdx, -312(%rbp)
	movq	%rsi, -304(%rbp)
	movq	%rdi, -296(%rbp)
	movq	%rdi, -288(%rbp)
	movq	%rsi, -168(%rbp)
	movq	%rdx, -160(%rbp)
Ltmp720:
	.loc	39 400 22 prologue_end
	movq	%rsi, -152(%rbp)
Ltmp721:
	.loc	39 401 20
	movq	%rdx, -144(%rbp)
Ltmp711:
	leaq	-272(%rbp), %rdi
Ltmp722:
	.loc	39 402 19
	callq	__ZN5alloc11collections5btree4node40NodeRef$LT$BorrowType$C$K$C$V$C$Type$GT$6ascend17h988062f3721dabf1E
Ltmp712:
	jmp	LBB108_3
Ltmp723:
LBB108_1:
	.loc	39 396 5
	movq	-136(%rbp), %rdi
	callq	__Unwind_Resume
LBB108_2:
Ltmp719:
	.loc	39 0 5 is_stmt 0
	movq	%rax, %rcx
	movl	%edx, %eax
	movq	%rcx, -136(%rbp)
	movl	%eax, -128(%rbp)
	jmp	LBB108_1
LBB108_3:
Ltmp724:
	.loc	34 646 9 is_stmt 1
	cmpq	$0, -272(%rbp)
	jne	LBB108_5
	.loc	34 0 9 is_stmt 0
	movq	-296(%rbp), %rax
	.loc	34 647 16 is_stmt 1
	movq	-264(%rbp), %rcx
	movq	%rcx, -216(%rbp)
	movq	-256(%rbp), %rcx
	movq	%rcx, -208(%rbp)
	movq	-248(%rbp), %rcx
	movq	%rcx, -200(%rbp)
Ltmp725:
	.loc	34 647 27 is_stmt 0
	movq	-216(%rbp), %rcx
	movq	%rcx, -192(%rbp)
	movq	-208(%rbp), %rcx
	movq	%rcx, -184(%rbp)
	movq	-200(%rbp), %rcx
	movq	%rcx, -176(%rbp)
	.loc	34 647 22
	movq	-192(%rbp), %rcx
	movq	%rcx, (%rax)
	movq	-184(%rbp), %rcx
	movq	%rcx, 8(%rax)
	movq	-176(%rbp), %rcx
	movq	%rcx, 16(%rax)
Ltmp726:
	.loc	34 647 28
	jmp	LBB108_6
LBB108_5:
	.loc	34 0 28
	movq	-296(%rbp), %rax
Ltmp727:
	.loc	34 650 23 is_stmt 1
	movq	$0, 8(%rax)
Ltmp728:
LBB108_6:
	.loc	34 0 23 is_stmt 0
	movq	-304(%rbp), %rax
	movq	-312(%rbp), %rcx
Ltmp729:
	.loc	39 405 17 is_stmt 1
	movq	%rcx, -120(%rbp)
Ltmp730:
	.loc	9 450 41
	movq	%rcx, -112(%rbp)
	movq	%rcx, -104(%rbp)
Ltmp731:
	.loc	9 201 13
	movq	%rcx, -240(%rbp)
Ltmp732:
	.loc	39 406 20
	cmpq	$0, %rax
	ja	LBB108_8
Ltmp713:
Ltmp733:
	.loc	30 149 29
	callq	__ZN4core5alloc6layout10size_align17h94a490114a8f3df1E
Ltmp714:
	movq	%rdx, -328(%rbp)
	movq	%rax, -320(%rbp)
	jmp	LBB108_12
Ltmp734:
LBB108_8:
Ltmp715:
	.loc	30 149 29 is_stmt 0
	callq	__ZN4core5alloc6layout10size_align17h3d55dc6b34c47c05E
Ltmp716:
	movq	%rdx, -344(%rbp)
	movq	%rax, -336(%rbp)
	jmp	LBB108_9
LBB108_9:
	.loc	30 0 29
	movq	-344(%rbp), %rax
	movq	-336(%rbp), %rcx
	.loc	30 149 14
	movq	%rcx, -96(%rbp)
	.loc	30 149 20
	movq	%rax, -88(%rbp)
Ltmp735:
	.loc	30 153 52 is_stmt 1
	movq	%rcx, -80(%rbp)
	.loc	30 153 58 is_stmt 0
	movq	%rax, -72(%rbp)
Ltmp736:
	.loc	30 120 65 is_stmt 1
	movq	%rax, -64(%rbp)
Ltmp737:
	.loc	31 89 18
	movq	%rax, -56(%rbp)
	movq	-56(%rbp), %rax
	movq	%rax, -352(%rbp)
Ltmp738:
	.loc	31 0 18 is_stmt 0
	movq	-352(%rbp), %rax
	movq	-336(%rbp), %rcx
	.loc	30 120 18 is_stmt 1
	movq	%rcx, -232(%rbp)
	movq	%rax, -224(%rbp)
Ltmp739:
LBB108_11:
	.loc	39 404 13
	movq	-240(%rbp), %rsi
	movq	-232(%rbp), %rdx
	movq	-224(%rbp), %rcx
Ltmp717:
	leaq	-280(%rbp), %rdi
	callq	__ZN63_$LT$alloc..alloc..Global$u20$as$u20$core..alloc..Allocator$GT$10deallocate17hc0b6b574e8cdac8bE
Ltmp718:
	jmp	LBB108_14
LBB108_12:
	.loc	39 0 13 is_stmt 0
	movq	-328(%rbp), %rax
	movq	-320(%rbp), %rcx
Ltmp740:
	.loc	30 149 14 is_stmt 1
	movq	%rcx, -48(%rbp)
	.loc	30 149 20 is_stmt 0
	movq	%rax, -40(%rbp)
Ltmp741:
	.loc	30 153 52 is_stmt 1
	movq	%rcx, -32(%rbp)
	.loc	30 153 58 is_stmt 0
	movq	%rax, -24(%rbp)
Ltmp742:
	.loc	30 120 65 is_stmt 1
	movq	%rax, -16(%rbp)
Ltmp743:
	.loc	31 89 18
	movq	%rax, -8(%rbp)
	movq	-8(%rbp), %rax
	movq	%rax, -360(%rbp)
Ltmp744:
	.loc	31 0 18 is_stmt 0
	movq	-360(%rbp), %rax
	movq	-320(%rbp), %rcx
	.loc	30 120 18 is_stmt 1
	movq	%rcx, -232(%rbp)
	movq	%rax, -224(%rbp)
Ltmp745:
	.loc	30 154 6
	jmp	LBB108_11
LBB108_14:
	.loc	30 0 6 is_stmt 0
	movq	-288(%rbp), %rax
	.loc	39 414 6 is_stmt 1
	addq	$368, %rsp
	popq	%rbp
	retq
Ltmp746:
Lfunc_end108:
	.cfi_endproc
	.section	__TEXT,__gcc_except_tab
	.p2align	2
GCC_except_table108:
Lexception24:
	.byte	255
	.byte	255
	.byte	1
	.uleb128 Lcst_end24-Lcst_begin24
Lcst_begin24:
	.uleb128 Ltmp711-Lfunc_begin108
	.uleb128 Ltmp712-Ltmp711
	.uleb128 Ltmp719-Lfunc_begin108
	.byte	0
	.uleb128 Ltmp712-Lfunc_begin108
	.uleb128 Ltmp713-Ltmp712
	.byte	0
	.byte	0
	.uleb128 Ltmp713-Lfunc_begin108
	.uleb128 Ltmp718-Ltmp713
	.uleb128 Ltmp719-Lfunc_begin108
	.byte	0
Lcst_end24:
	.p2align	2

	.section	__TEXT,__text,regular,pure_instructions
	.p2align	4, 0x90
__ZN5alloc11collections5btree4node137Handle$LT$alloc..collections..btree..node..NodeRef$LT$BorrowType$C$K$C$V$C$NodeType$GT$$C$alloc..collections..btree..node..marker..KV$GT$10right_edge17h637cde7b39d68b5cE:
Lfunc_begin109:
	.loc	39 765 0
	.cfi_startproc
	pushq	%rbp
	.cfi_def_cfa_offset 16
	.cfi_offset %rbp, -16
	movq	%rsp, %rbp
	.cfi_def_cfa_register %rbp
	subq	$16, %rsp
	movq	%rsi, %rax
	movq	%rdi, %rcx
	movq	%rcx, -8(%rbp)
Ltmp747:
	.loc	39 766 35 prologue_end
	movq	(%rax), %rsi
	movq	8(%rax), %rdx
	.loc	39 766 46 is_stmt 0
	movq	16(%rax), %rcx
	addq	$1, %rcx
	.loc	39 766 18
	callq	__ZN5alloc11collections5btree4node139Handle$LT$alloc..collections..btree..node..NodeRef$LT$BorrowType$C$K$C$V$C$NodeType$GT$$C$alloc..collections..btree..node..marker..Edge$GT$8new_edge17h7a8ade71a2b9d2d6E
Ltmp748:
	.loc	39 0 18
	movq	-8(%rbp), %rax
	.loc	39 767 6 is_stmt 1
	addq	$16, %rsp
	popq	%rbp
	retq
Ltmp749:
Lfunc_end109:
	.cfi_endproc

	.p2align	4, 0x90
__ZN5alloc11collections5btree4node137Handle$LT$alloc..collections..btree..node..NodeRef$LT$BorrowType$C$K$C$V$C$NodeType$GT$$C$alloc..collections..btree..node..marker..KV$GT$10right_edge17h6ec359e61eb87610E:
Lfunc_begin110:
	.loc	39 765 0
	.cfi_startproc
	pushq	%rbp
	.cfi_def_cfa_offset 16
	.cfi_offset %rbp, -16
	movq	%rsp, %rbp
	.cfi_def_cfa_register %rbp
	subq	$16, %rsp
	movq	%rsi, %rax
	movq	%rdi, %rcx
	movq	%rcx, -8(%rbp)
Ltmp750:
	.loc	39 766 35 prologue_end
	movq	(%rax), %rsi
	movq	8(%rax), %rdx
	.loc	39 766 46 is_stmt 0
	movq	16(%rax), %rcx
	addq	$1, %rcx
	.loc	39 766 18
	callq	__ZN5alloc11collections5btree4node139Handle$LT$alloc..collections..btree..node..NodeRef$LT$BorrowType$C$K$C$V$C$NodeType$GT$$C$alloc..collections..btree..node..marker..Edge$GT$8new_edge17h8403fca3db2fbb9fE
Ltmp751:
	.loc	39 0 18
	movq	-8(%rbp), %rax
	.loc	39 767 6 is_stmt 1
	addq	$16, %rsp
	popq	%rbp
	retq
Ltmp752:
Lfunc_end110:
	.cfi_endproc

	.p2align	4, 0x90
__ZN5alloc11collections5btree4node137Handle$LT$alloc..collections..btree..node..NodeRef$LT$BorrowType$C$K$C$V$C$NodeType$GT$$C$alloc..collections..btree..node..marker..KV$GT$6new_kv17h45f30378ee3f7224E:
Lfunc_begin111:
	.loc	39 755 0
	.cfi_startproc
	pushq	%rbp
	.cfi_def_cfa_offset 16
	.cfi_offset %rbp, -16
	movq	%rsp, %rbp
	.cfi_def_cfa_register %rbp
	subq	$24, %rsp
	movq	%rdi, %rax
	movq	%rsi, -24(%rbp)
	movq	%rdx, -16(%rbp)
	movq	%rcx, -8(%rbp)
Ltmp753:
	.loc	39 758 9 prologue_end
	movq	%rsi, (%rdi)
	movq	%rdx, 8(%rdi)
	movq	%rcx, 16(%rdi)
	.loc	39 759 6
	addq	$24, %rsp
	popq	%rbp
	retq
Ltmp754:
Lfunc_end111:
	.cfi_endproc

	.p2align	4, 0x90
__ZN5alloc11collections5btree4node139Handle$LT$alloc..collections..btree..node..NodeRef$LT$BorrowType$C$K$C$V$C$NodeType$GT$$C$alloc..collections..btree..node..marker..Edge$GT$8new_edge17h25a0e29bfe0b2c62E:
Lfunc_begin112:
	.loc	39 806 0
	.cfi_startproc
	pushq	%rbp
	.cfi_def_cfa_offset 16
	.cfi_offset %rbp, -16
	movq	%rsp, %rbp
	.cfi_def_cfa_register %rbp
	subq	$24, %rsp
	movq	%rdi, %rax
	movq	%rsi, -24(%rbp)
	movq	%rdx, -16(%rbp)
	movq	%rcx, -8(%rbp)
Ltmp755:
	.loc	39 809 9 prologue_end
	movq	%rsi, (%rdi)
	movq	%rdx, 8(%rdi)
	movq	%rcx, 16(%rdi)
	.loc	39 810 6
	addq	$24, %rsp
	popq	%rbp
	retq
Ltmp756:
Lfunc_end112:
	.cfi_endproc

	.p2align	4, 0x90
__ZN5alloc11collections5btree4node139Handle$LT$alloc..collections..btree..node..NodeRef$LT$BorrowType$C$K$C$V$C$NodeType$GT$$C$alloc..collections..btree..node..marker..Edge$GT$8new_edge17h7a8ade71a2b9d2d6E:
Lfunc_begin113:
	.loc	39 806 0
	.cfi_startproc
	pushq	%rbp
	.cfi_def_cfa_offset 16
	.cfi_offset %rbp, -16
	movq	%rsp, %rbp
	.cfi_def_cfa_register %rbp
	subq	$24, %rsp
	movq	%rdi, %rax
	movq	%rsi, -24(%rbp)
	movq	%rdx, -16(%rbp)
	movq	%rcx, -8(%rbp)
Ltmp757:
	.loc	39 809 9 prologue_end
	movq	%rsi, (%rdi)
	movq	%rdx, 8(%rdi)
	movq	%rcx, 16(%rdi)
	.loc	39 810 6
	addq	$24, %rsp
	popq	%rbp
	retq
Ltmp758:
Lfunc_end113:
	.cfi_endproc

	.p2align	4, 0x90
__ZN5alloc11collections5btree4node139Handle$LT$alloc..collections..btree..node..NodeRef$LT$BorrowType$C$K$C$V$C$NodeType$GT$$C$alloc..collections..btree..node..marker..Edge$GT$8new_edge17h8403fca3db2fbb9fE:
Lfunc_begin114:
	.loc	39 806 0
	.cfi_startproc
	pushq	%rbp
	.cfi_def_cfa_offset 16
	.cfi_offset %rbp, -16
	movq	%rsp, %rbp
	.cfi_def_cfa_register %rbp
	subq	$24, %rsp
	movq	%rdi, %rax
	movq	%rsi, -24(%rbp)
	movq	%rdx, -16(%rbp)
	movq	%rcx, -8(%rbp)
Ltmp759:
	.loc	39 809 9 prologue_end
	movq	%rsi, (%rdi)
	movq	%rdx, 8(%rdi)
	movq	%rcx, 16(%rdi)
	.loc	39 810 6
	addq	$24, %rsp
	popq	%rbp
	retq
Ltmp760:
Lfunc_end114:
	.cfi_endproc

	.p2align	4, 0x90
__ZN5alloc11collections5btree4node139Handle$LT$alloc..collections..btree..node..NodeRef$LT$BorrowType$C$K$C$V$C$NodeType$GT$$C$alloc..collections..btree..node..marker..Edge$GT$8right_kv17h3005a7197d9f91e1E:
Lfunc_begin115:
	.loc	39 820 0
	.cfi_startproc
	pushq	%rbp
	.cfi_def_cfa_offset 16
	.cfi_offset %rbp, -16
	movq	%rsp, %rbp
	.cfi_def_cfa_register %rbp
	subq	$80, %rsp
	movq	%rsi, -80(%rbp)
Ltmp761:
	movq	%rdi, %rax
	movq	-80(%rbp), %rdi
	movq	%rax, -72(%rbp)
	movq	%rax, -64(%rbp)
Ltmp762:
	.loc	39 821 12 prologue_end
	movq	16(%rdi), %rax
	movq	%rax, -56(%rbp)
	.loc	39 821 23 is_stmt 0
	callq	__ZN5alloc11collections5btree4node40NodeRef$LT$BorrowType$C$K$C$V$C$Type$GT$3len17h44bd6336dd8abdc0E
Ltmp763:
	movq	%rax, %rcx
	movq	-56(%rbp), %rax
	.loc	39 821 12
	cmpq	%rcx, %rax
Ltmp764:
	jb	LBB115_2
Ltmp765:
	.loc	39 0 12
	movq	-72(%rbp), %rax
	movq	-80(%rbp), %rcx
	.loc	39 824 17 is_stmt 1
	movq	(%rcx), %rdx
	movq	%rdx, -24(%rbp)
	movq	8(%rcx), %rdx
	movq	%rdx, -16(%rbp)
	movq	16(%rcx), %rcx
	movq	%rcx, -8(%rbp)
	.loc	39 824 13 is_stmt 0
	movq	-24(%rbp), %rcx
	movq	%rcx, 8(%rax)
	movq	-16(%rbp), %rcx
	movq	%rcx, 16(%rax)
	movq	-8(%rbp), %rcx
	movq	%rcx, 24(%rax)
	movq	$1, (%rax)
	.loc	39 821 9 is_stmt 1
	jmp	LBB115_3
Ltmp766:
LBB115_2:
	.loc	39 0 9 is_stmt 0
	movq	-80(%rbp), %rax
	.loc	39 822 40 is_stmt 1
	movq	(%rax), %rsi
	movq	8(%rax), %rdx
	.loc	39 822 51 is_stmt 0
	movq	16(%rax), %rcx
	.loc	39 822 25
	leaq	-48(%rbp), %rdi
	callq	__ZN5alloc11collections5btree4node137Handle$LT$alloc..collections..btree..node..NodeRef$LT$BorrowType$C$K$C$V$C$NodeType$GT$$C$alloc..collections..btree..node..marker..KV$GT$6new_kv17h45f30378ee3f7224E
	movq	-72(%rbp), %rax
	.loc	39 822 13
	movq	-48(%rbp), %rcx
	movq	%rcx, 8(%rax)
	movq	-40(%rbp), %rcx
	movq	%rcx, 16(%rax)
	movq	-32(%rbp), %rcx
	movq	%rcx, 24(%rax)
	movq	$0, (%rax)
Ltmp767:
LBB115_3:
	.loc	39 0 13
	movq	-64(%rbp), %rax
	.loc	39 826 6 is_stmt 1
	addq	$80, %rsp
	popq	%rbp
	retq
Ltmp768:
Lfunc_end115:
	.cfi_endproc

	.p2align	4, 0x90
__ZN5alloc11collections5btree4node145Handle$LT$alloc..collections..btree..node..NodeRef$LT$BorrowType$C$K$C$V$C$alloc..collections..btree..node..marker..LeafOrInternal$GT$$C$Type$GT$5force17h4baa1b08dc7592e1E:
Lfunc_begin116:
	.loc	39 1561 0
	.cfi_startproc
	pushq	%rbp
	.cfi_def_cfa_offset 16
	.cfi_offset %rbp, -16
	movq	%rsp, %rbp
	.cfi_def_cfa_register %rbp
	subq	$128, %rsp
	movq	%rsi, %rax
	movq	%rax, -128(%rbp)
Ltmp769:
	movq	%rdi, -120(%rbp)
	movq	%rdi, -112(%rbp)
Ltmp770:
	.loc	39 1567 15 prologue_end
	movq	(%rax), %rsi
	movq	8(%rax), %rdx
	leaq	-104(%rbp), %rdi
	callq	__ZN5alloc11collections5btree4node91NodeRef$LT$BorrowType$C$K$C$V$C$alloc..collections..btree..node..marker..LeafOrInternal$GT$5force17hf933f17fa30502aaE
Ltmp771:
	.loc	39 1567 9 is_stmt 0
	cmpq	$0, -104(%rbp)
Ltmp772:
	jne	LBB116_2
Ltmp773:
	.loc	39 0 9
	movq	-120(%rbp), %rax
	movq	-128(%rbp), %rcx
	.loc	39 1568 31 is_stmt 1
	movq	-96(%rbp), %rsi
	movq	-88(%rbp), %rdx
	movq	%rsi, -16(%rbp)
	movq	%rdx, -8(%rbp)
Ltmp774:
	.loc	39 1569 55
	movq	16(%rcx), %rcx
	.loc	39 1569 35 is_stmt 0
	movq	%rsi, -80(%rbp)
	movq	%rdx, -72(%rbp)
	movq	%rcx, -64(%rbp)
	.loc	39 1569 17
	movq	-80(%rbp), %rcx
	movq	%rcx, 8(%rax)
	movq	-72(%rbp), %rcx
	movq	%rcx, 16(%rax)
	movq	-64(%rbp), %rcx
	movq	%rcx, 24(%rax)
	movq	$0, (%rax)
Ltmp775:
	.loc	39 1570 13 is_stmt 1
	jmp	LBB116_3
Ltmp776:
LBB116_2:
	.loc	39 0 13 is_stmt 0
	movq	-120(%rbp), %rax
	movq	-128(%rbp), %rcx
	.loc	39 1571 35 is_stmt 1
	movq	-96(%rbp), %rsi
	movq	-88(%rbp), %rdx
	movq	%rsi, -32(%rbp)
	movq	%rdx, -24(%rbp)
Ltmp777:
	.loc	39 1572 59
	movq	16(%rcx), %rcx
	.loc	39 1572 39 is_stmt 0
	movq	%rsi, -56(%rbp)
	movq	%rdx, -48(%rbp)
	movq	%rcx, -40(%rbp)
	.loc	39 1572 17
	movq	-56(%rbp), %rcx
	movq	%rcx, 8(%rax)
	movq	-48(%rbp), %rcx
	movq	%rcx, 16(%rax)
	movq	-40(%rbp), %rcx
	movq	%rcx, 24(%rax)
	movq	$1, (%rax)
Ltmp778:
LBB116_3:
	.loc	39 0 17
	movq	-112(%rbp), %rax
	.loc	39 1575 6 is_stmt 1
	addq	$128, %rsp
	popq	%rbp
	retq
Ltmp779:
Lfunc_end116:
	.cfi_endproc

	.p2align	4, 0x90
__ZN5alloc11collections5btree4node173Handle$LT$alloc..collections..btree..node..NodeRef$LT$alloc..collections..btree..node..marker..Dying$C$K$C$V$C$NodeType$GT$$C$alloc..collections..btree..node..marker..KV$GT$12drop_key_val17hb7bb1a8a06e53b1bE:
Lfunc_begin117:
	.loc	39 1092 0
	.cfi_startproc
	pushq	%rbp
	.cfi_def_cfa_offset 16
	.cfi_offset %rbp, -16
	movq	%rsp, %rbp
	.cfi_def_cfa_register %rbp
	subq	$240, %rsp
	movq	%rdi, -224(%rbp)
Ltmp780:
	.loc	39 1094 20 prologue_end
	callq	__ZN5alloc11collections5btree4node76NodeRef$LT$alloc..collections..btree..node..marker..Dying$C$K$C$V$C$Type$GT$13as_leaf_dying17hb40980ee04c505e7E
	movq	-224(%rbp), %rdi
	movq	%rax, -232(%rbp)
	movq	%rax, -216(%rbp)
Ltmp781:
	.loc	39 1096 13
	addq	$8, %rax
	movq	%rax, -208(%rbp)
	movq	$11, -200(%rbp)
	.loc	39 1096 41 is_stmt 0
	movq	16(%rdi), %rcx
	movq	%rcx, -192(%rbp)
Ltmp782:
	.file	40 "/rustc/2c8cc343237b8f7d5a3c3703e3a87f2eb2c54a74/library/core/src/slice" "mod.rs"
	.loc	40 443 24 is_stmt 1
	movq	%rcx, -184(%rbp)
	.loc	40 443 48 is_stmt 0
	movq	%rax, -176(%rbp)
	movq	$11, -168(%rbp)
Ltmp783:
	.loc	1 253 13 is_stmt 1
	movq	%rax, -160(%rbp)
	movq	$11, -152(%rbp)
Ltmp784:
	.loc	5 2037 9
	movq	%rax, -144(%rbp)
Ltmp785:
	.loc	1 253 36
	movq	%rcx, -136(%rbp)
Ltmp786:
	.loc	5 1034 18
	movq	%rax, -128(%rbp)
	.loc	5 1034 30 is_stmt 0
	movq	%rcx, -120(%rbp)
Ltmp787:
	.loc	5 487 18 is_stmt 1
	imulq	$24, %rcx, %rcx
	addq	%rcx, %rax
	movq	%rax, -112(%rbp)
	movq	-112(%rbp), %rdi
Ltmp788:
	.loc	39 1096 13
	callq	__ZN4core3mem12maybe_uninit20MaybeUninit$LT$T$GT$16assume_init_drop17h143c1ff1a31f0820E
	movq	-232(%rbp), %rax
	movq	-224(%rbp), %rdi
	.loc	39 1097 13
	addq	$272, %rax
	movq	%rax, -104(%rbp)
	movq	$11, -96(%rbp)
	.loc	39 1097 41 is_stmt 0
	movq	16(%rdi), %rcx
	movq	%rcx, -88(%rbp)
Ltmp789:
	.loc	40 443 24 is_stmt 1
	movq	%rcx, -80(%rbp)
	.loc	40 443 48 is_stmt 0
	movq	%rax, -72(%rbp)
	movq	$11, -64(%rbp)
Ltmp790:
	.loc	1 253 13 is_stmt 1
	movq	%rax, -56(%rbp)
	movq	$11, -48(%rbp)
Ltmp791:
	.loc	5 2037 9
	movq	%rax, -40(%rbp)
Ltmp792:
	.loc	1 253 36
	movq	%rcx, -32(%rbp)
Ltmp793:
	.loc	5 1034 18
	movq	%rax, -24(%rbp)
	.loc	5 1034 30 is_stmt 0
	movq	%rcx, -16(%rbp)
Ltmp794:
	.loc	5 487 18 is_stmt 1
	imulq	$24, %rcx, %rcx
	addq	%rcx, %rax
	movq	%rax, -8(%rbp)
	movq	-8(%rbp), %rdi
Ltmp795:
	.loc	39 1097 13
	callq	__ZN4core3mem12maybe_uninit20MaybeUninit$LT$T$GT$16assume_init_drop17h229f9bba24908c80E
Ltmp796:
	.loc	39 1099 6
	addq	$240, %rsp
	popq	%rbp
	retq
Ltmp797:
Lfunc_end117:
	.cfi_endproc

	.p2align	4, 0x90
__ZN5alloc11collections5btree4node176Handle$LT$alloc..collections..btree..node..NodeRef$LT$BorrowType$C$K$C$V$C$alloc..collections..btree..node..marker..Leaf$GT$$C$alloc..collections..btree..node..marker..Edge$GT$16forget_node_type17h43544e7a263150c3E:
Lfunc_begin118:
	.loc	39 1536 0
	.cfi_startproc
	pushq	%rbp
	.cfi_def_cfa_offset 16
	.cfi_offset %rbp, -16
	movq	%rsp, %rbp
	.cfi_def_cfa_register %rbp
	subq	$32, %rsp
	movq	%rsi, -16(%rbp)
	movq	%rdi, -24(%rbp)
	movq	%rdi, -8(%rbp)
Ltmp798:
	.loc	39 1539 35 prologue_end
	movq	(%rsi), %rdi
	movq	8(%rsi), %rsi
	callq	__ZN5alloc11collections5btree4node81NodeRef$LT$BorrowType$C$K$C$V$C$alloc..collections..btree..node..marker..Leaf$GT$11forget_type17h244608fb0c616848E
	movq	-24(%rbp), %rdi
	movq	%rax, %rsi
	movq	-16(%rbp), %rax
	.loc	39 1539 60 is_stmt 0
	movq	16(%rax), %rcx
	.loc	39 1539 18
	callq	__ZN5alloc11collections5btree4node139Handle$LT$alloc..collections..btree..node..NodeRef$LT$BorrowType$C$K$C$V$C$NodeType$GT$$C$alloc..collections..btree..node..marker..Edge$GT$8new_edge17h25a0e29bfe0b2c62E
	movq	-8(%rbp), %rax
	.loc	39 1540 6 is_stmt 1
	addq	$32, %rsp
	popq	%rbp
	retq
Ltmp799:
Lfunc_end118:
	.cfi_endproc

	.p2align	4, 0x90
__ZN5alloc11collections5btree4node180Handle$LT$alloc..collections..btree..node..NodeRef$LT$BorrowType$C$K$C$V$C$alloc..collections..btree..node..marker..Internal$GT$$C$alloc..collections..btree..node..marker..Edge$GT$16forget_node_type17h6870a1fcab67f461E:
Lfunc_begin119:
	.loc	39 1544 0
	.cfi_startproc
	pushq	%rbp
	.cfi_def_cfa_offset 16
	.cfi_offset %rbp, -16
	movq	%rsp, %rbp
	.cfi_def_cfa_register %rbp
	subq	$32, %rsp
	movq	%rsi, -16(%rbp)
	movq	%rdi, -24(%rbp)
	movq	%rdi, -8(%rbp)
Ltmp800:
	.loc	39 1547 35 prologue_end
	movq	(%rsi), %rdi
	movq	8(%rsi), %rsi
	callq	__ZN5alloc11collections5btree4node85NodeRef$LT$BorrowType$C$K$C$V$C$alloc..collections..btree..node..marker..Internal$GT$11forget_type17he0131e825d12a635E
	movq	-24(%rbp), %rdi
	movq	%rax, %rsi
	movq	-16(%rbp), %rax
	.loc	39 1547 60 is_stmt 0
	movq	16(%rax), %rcx
	.loc	39 1547 18
	callq	__ZN5alloc11collections5btree4node139Handle$LT$alloc..collections..btree..node..NodeRef$LT$BorrowType$C$K$C$V$C$NodeType$GT$$C$alloc..collections..btree..node..marker..Edge$GT$8new_edge17h25a0e29bfe0b2c62E
	movq	-8(%rbp), %rax
	.loc	39 1548 6 is_stmt 1
	addq	$32, %rsp
	popq	%rbp
	retq
Ltmp801:
Lfunc_end119:
	.cfi_endproc

	.p2align	4, 0x90
__ZN5alloc11collections5btree4node180Handle$LT$alloc..collections..btree..node..NodeRef$LT$BorrowType$C$K$C$V$C$alloc..collections..btree..node..marker..Internal$GT$$C$alloc..collections..btree..node..marker..Edge$GT$7descend17hd7bc8176076e5235E:
Lfunc_begin120:
	.loc	39 1008 0
	.cfi_startproc
	pushq	%rbp
	.cfi_def_cfa_offset 16
	.cfi_offset %rbp, -16
	movq	%rsp, %rbp
	.cfi_def_cfa_register %rbp
	subq	$208, %rsp
	movq	%rdi, -208(%rbp)
Ltmp802:
	.loc	39 1020 26 prologue_end
	callq	__ZN5alloc11collections5btree4node85NodeRef$LT$BorrowType$C$K$C$V$C$alloc..collections..btree..node..marker..Internal$GT$15as_internal_ptr17h869afabf84583904E
	movq	-208(%rbp), %rdi
	movq	%rax, -176(%rbp)
Ltmp803:
	.loc	39 1021 29
	movq	%rax, %rdx
	addq	$544, %rdx
	movq	%rdx, -168(%rbp)
	movq	$12, -160(%rbp)
	.loc	39 1021 63 is_stmt 0
	movq	16(%rdi), %rcx
	movq	%rcx, -152(%rbp)
Ltmp804:
	.loc	40 405 20 is_stmt 1
	movq	%rcx, -144(%rbp)
	.loc	40 405 40 is_stmt 0
	movq	%rdx, -136(%rbp)
	movq	$12, -128(%rbp)
Ltmp805:
	.loc	1 240 13 is_stmt 1
	movq	%rdx, -120(%rbp)
	movq	$12, -112(%rbp)
Ltmp806:
	.loc	2 1650 9
	movq	%rdx, -104(%rbp)
Ltmp807:
	.loc	1 240 32
	movq	%rcx, -96(%rbp)
Ltmp808:
	.loc	2 932 18
	movq	%rdx, -88(%rbp)
	.loc	2 932 30 is_stmt 0
	movq	%rcx, -80(%rbp)
Ltmp809:
	.loc	2 473 18 is_stmt 1
	leaq	544(%rax,%rcx,8), %rax
	movq	%rax, -72(%rbp)
	movq	-72(%rbp), %rax
Ltmp810:
	.loc	39 1021 29
	movq	%rax, -64(%rbp)
Ltmp811:
	.loc	24 697 13
	movq	%rax, -56(%rbp)
Ltmp812:
	.loc	24 530 9
	movq	%rax, -48(%rbp)
Ltmp813:
	.loc	2 1216 23
	movq	%rax, -40(%rbp)
	leaq	-184(%rbp), %rcx
Ltmp814:
	.loc	3 1157 34
	movq	%rcx, -32(%rbp)
	.loc	3 1157 9 is_stmt 0
	movq	(%rax), %rax
	movq	%rax, -184(%rbp)
	.loc	3 1158 9 is_stmt 1
	movq	-184(%rbp), %rax
	movq	%rax, -24(%rbp)
Ltmp815:
	.loc	24 627 38
	movq	%rax, -16(%rbp)
Ltmp816:
	.loc	7 89 9
	movq	%rax, -8(%rbp)
Ltmp817:
	.loc	39 1022 33
	movq	(%rdi), %rcx
	decq	%rcx
	.loc	39 1022 9 is_stmt 0
	movq	%rcx, -200(%rbp)
	movq	%rax, -192(%rbp)
Ltmp818:
	.loc	39 1023 6 is_stmt 1
	movq	-200(%rbp), %rax
	movq	-192(%rbp), %rdx
	addq	$208, %rsp
	popq	%rbp
	retq
Ltmp819:
Lfunc_end120:
	.cfi_endproc

	.p2align	4, 0x90
__ZN5alloc11collections5btree4node25Handle$LT$Node$C$Type$GT$9into_node17haf85cc9205919cd3E:
Lfunc_begin121:
	.loc	39 742 0
	.cfi_startproc
	pushq	%rbp
	.cfi_def_cfa_offset 16
	.cfi_offset %rbp, -16
	movq	%rsp, %rbp
	.cfi_def_cfa_register %rbp
Ltmp820:
	.loc	39 743 9 prologue_end
	movq	(%rdi), %rax
	movq	8(%rdi), %rdx
	.loc	39 744 6
	popq	%rbp
	retq
Ltmp821:
Lfunc_end121:
	.cfi_endproc

	.p2align	4, 0x90
__ZN5alloc11collections5btree4node40NodeRef$LT$BorrowType$C$K$C$V$C$Type$GT$10first_edge17h0eacd05fb1ff3f10E:
Lfunc_begin122:
	.loc	39 338 0
	.cfi_startproc
	pushq	%rbp
	.cfi_def_cfa_offset 16
	.cfi_offset %rbp, -16
	movq	%rsp, %rbp
	.cfi_def_cfa_register %rbp
	subq	$32, %rsp
	movq	%rdi, %rax
	movq	%rax, -24(%rbp)
	movq	%rsi, -16(%rbp)
	movq	%rdx, -8(%rbp)
Ltmp822:
	.loc	39 339 18 prologue_end
	xorl	%eax, %eax
	movl	%eax, %ecx
	callq	__ZN5alloc11collections5btree4node139Handle$LT$alloc..collections..btree..node..NodeRef$LT$BorrowType$C$K$C$V$C$NodeType$GT$$C$alloc..collections..btree..node..marker..Edge$GT$8new_edge17h7a8ade71a2b9d2d6E
	movq	-24(%rbp), %rax
	.loc	39 340 6
	addq	$32, %rsp
	popq	%rbp
	retq
Ltmp823:
Lfunc_end122:
	.cfi_endproc

	.p2align	4, 0x90
__ZN5alloc11collections5btree4node40NodeRef$LT$BorrowType$C$K$C$V$C$Type$GT$10first_edge17h6fa73f2222b94883E:
Lfunc_begin123:
	.loc	39 338 0
	.cfi_startproc
	pushq	%rbp
	.cfi_def_cfa_offset 16
	.cfi_offset %rbp, -16
	movq	%rsp, %rbp
	.cfi_def_cfa_register %rbp
	subq	$32, %rsp
	movq	%rdi, %rax
	movq	%rax, -24(%rbp)
	movq	%rsi, -16(%rbp)
	movq	%rdx, -8(%rbp)
Ltmp824:
	.loc	39 339 18 prologue_end
	xorl	%eax, %eax
	movl	%eax, %ecx
	callq	__ZN5alloc11collections5btree4node139Handle$LT$alloc..collections..btree..node..NodeRef$LT$BorrowType$C$K$C$V$C$NodeType$GT$$C$alloc..collections..btree..node..marker..Edge$GT$8new_edge17h8403fca3db2fbb9fE
	movq	-24(%rbp), %rax
	.loc	39 340 6
	addq	$32, %rsp
	popq	%rbp
	retq
Ltmp825:
Lfunc_end123:
	.cfi_endproc

	.p2align	4, 0x90
__ZN5alloc11collections5btree4node40NodeRef$LT$BorrowType$C$K$C$V$C$Type$GT$11as_leaf_ptr17h6167336e3d34be0dE:
Lfunc_begin124:
	.loc	39 300 0
	.cfi_startproc
	pushq	%rbp
	.cfi_def_cfa_offset 16
	.cfi_offset %rbp, -16
	movq	%rsp, %rbp
	.cfi_def_cfa_register %rbp
	subq	$16, %rsp
	movq	%rdi, -16(%rbp)
Ltmp826:
	.loc	39 304 9 prologue_end
	movq	8(%rdi), %rax
	movq	%rax, -8(%rbp)
	.loc	39 305 6
	addq	$16, %rsp
	popq	%rbp
	retq
Ltmp827:
Lfunc_end124:
	.cfi_endproc

	.p2align	4, 0x90
__ZN5alloc11collections5btree4node40NodeRef$LT$BorrowType$C$K$C$V$C$Type$GT$3len17h44bd6336dd8abdc0E:
Lfunc_begin125:
	.loc	39 277 0
	.cfi_startproc
	pushq	%rbp
	.cfi_def_cfa_offset 16
	.cfi_offset %rbp, -16
	movq	%rsp, %rbp
	.cfi_def_cfa_register %rbp
	subq	$16, %rsp
	movq	%rdi, -16(%rbp)
Ltmp828:
	.loc	39 280 32 prologue_end
	callq	__ZN5alloc11collections5btree4node40NodeRef$LT$BorrowType$C$K$C$V$C$Type$GT$11as_leaf_ptr17h6167336e3d34be0dE
	.loc	39 280 30 is_stmt 0
	movw	538(%rax), %ax
	movw	%ax, -2(%rbp)
Ltmp829:
	.file	41 "/rustc/2c8cc343237b8f7d5a3c3703e3a87f2eb2c54a74/library/core/src/convert" "num.rs"
	.loc	41 54 17 is_stmt 1
	movzwl	%ax, %eax
Ltmp830:
	.loc	39 281 6
	addq	$16, %rsp
	popq	%rbp
	retq
Ltmp831:
Lfunc_end125:
	.cfi_endproc

	.p2align	4, 0x90
__ZN5alloc11collections5btree4node40NodeRef$LT$BorrowType$C$K$C$V$C$Type$GT$6ascend17h988062f3721dabf1E:
Lfunc_begin126:
	.loc	39 318 0
	.cfi_startproc
	pushq	%rbp
	.cfi_def_cfa_offset 16
	.cfi_offset %rbp, -16
	movq	%rsp, %rbp
	.cfi_def_cfa_register %rbp
	subq	$192, %rsp
	movq	%rdi, -176(%rbp)
	movq	%rdi, -168(%rbp)
	movq	%rsi, -160(%rbp)
	movq	%rdx, -152(%rbp)
Ltmp832:
	.loc	39 327 34 prologue_end
	leaq	-160(%rbp), %rdi
	callq	__ZN5alloc11collections5btree4node40NodeRef$LT$BorrowType$C$K$C$V$C$Type$GT$11as_leaf_ptr17h6167336e3d34be0dE
	movq	%rax, -144(%rbp)
Ltmp833:
	.loc	39 328 18
	movq	-144(%rbp), %rax
	movq	(%rax), %rax
	movq	%rax, -104(%rbp)
	.loc	39 328 9 is_stmt 0
	leaq	-104(%rbp), %rax
	movq	%rax, -32(%rbp)
Ltmp834:
	.loc	8 675 15 is_stmt 1
	movq	-104(%rbp), %rdx
	movl	$1, %eax
	xorl	%ecx, %ecx
	cmpq	$0, %rdx
	cmoveq	%rcx, %rax
	.loc	8 675 9 is_stmt 0
	cmpq	$0, %rax
	jne	LBB126_2
	.loc	8 677 21 is_stmt 1
	movq	$0, -112(%rbp)
	jmp	LBB126_3
LBB126_2:
	.loc	8 676 18
	leaq	-104(%rbp), %rax
	movq	%rax, -24(%rbp)
Ltmp835:
	.loc	8 676 28 is_stmt 0
	leaq	-104(%rbp), %rax
	movq	%rax, -112(%rbp)
Ltmp836:
LBB126_3:
	.loc	39 330 18 is_stmt 1
	leaq	-160(%rbp), %rax
	movq	%rax, -96(%rbp)
	leaq	-144(%rbp), %rax
	movq	%rax, -88(%rbp)
	.loc	39 328 9
	movq	-112(%rbp), %rsi
	movq	-96(%rbp), %rdx
	movq	-88(%rbp), %rcx
	leaq	-136(%rbp), %rdi
	callq	__ZN4core6option15Option$LT$T$GT$3map17he549e080b6712a13E
	.loc	39 335 20
	movq	-160(%rbp), %rcx
	movq	%rcx, -192(%rbp)
	movq	-152(%rbp), %rax
	movq	%rax, -184(%rbp)
	movq	%rcx, -16(%rbp)
	movq	%rax, -8(%rbp)
Ltmp837:
	.loc	8 1096 15
	movq	-128(%rbp), %rdx
	movl	$1, %eax
	xorl	%ecx, %ecx
	cmpq	$0, %rdx
	cmoveq	%rcx, %rax
	.loc	8 1096 9 is_stmt 0
	cmpq	$0, %rax
	jne	LBB126_5
	.loc	8 0 9
	movq	-176(%rbp), %rax
	movq	-184(%rbp), %rcx
	movq	-192(%rbp), %rdx
	.loc	8 1098 21 is_stmt 1
	movq	%rdx, 8(%rax)
	movq	%rcx, 16(%rax)
	movq	$1, (%rax)
	.loc	8 1098 28 is_stmt 0
	jmp	LBB126_6
LBB126_5:
	.loc	8 0 28
	movq	-176(%rbp), %rax
	.loc	8 1097 18 is_stmt 1
	movq	-136(%rbp), %rcx
	movq	%rcx, -80(%rbp)
	movq	-128(%rbp), %rcx
	movq	%rcx, -72(%rbp)
	movq	-120(%rbp), %rcx
	movq	%rcx, -64(%rbp)
Ltmp838:
	.loc	8 1097 27 is_stmt 0
	movq	-80(%rbp), %rcx
	movq	%rcx, -56(%rbp)
	movq	-72(%rbp), %rcx
	movq	%rcx, -48(%rbp)
	movq	-64(%rbp), %rcx
	movq	%rcx, -40(%rbp)
	.loc	8 1097 24
	movq	-56(%rbp), %rcx
	movq	%rcx, 8(%rax)
	movq	-48(%rbp), %rcx
	movq	%rcx, 16(%rax)
	movq	-40(%rbp), %rcx
	movq	%rcx, 24(%rax)
	movq	$0, (%rax)
Ltmp839:
LBB126_6:
	.loc	8 0 24
	movq	-168(%rbp), %rax
	.loc	39 336 6 is_stmt 1
	addq	$192, %rsp
	popq	%rbp
	retq
Ltmp840:
Lfunc_end126:
	.cfi_endproc

	.p2align	4, 0x90
__ZN5alloc11collections5btree4node40NodeRef$LT$BorrowType$C$K$C$V$C$Type$GT$6ascend28_$u7b$$u7b$closure$u7d$$u7d$17hb5a444844afa6cd7E:
Lfunc_begin127:
	.loc	39 330 0
	.cfi_startproc
	pushq	%rbp
	.cfi_def_cfa_offset 16
	.cfi_offset %rbp, -16
	movq	%rsp, %rbp
	.cfi_def_cfa_register %rbp
	subq	$48, %rsp
	movq	%rdi, -48(%rbp)
	movq	%rdi, -40(%rbp)
	movq	%rsi, -32(%rbp)
	movq	%rdx, -24(%rbp)
	movq	%rcx, -16(%rbp)
Ltmp841:
	.loc	39 331 46 prologue_end
	movq	(%rcx), %rdi
	.loc	39 331 55 is_stmt 0
	movq	-32(%rbp), %rax
	movq	(%rax), %rsi
	addq	$1, %rsi
	.loc	39 331 23
	callq	__ZN5alloc11collections5btree4node85NodeRef$LT$BorrowType$C$K$C$V$C$alloc..collections..btree..node..marker..Internal$GT$13from_internal17hb540aaa8df098469E
	movq	-48(%rbp), %rdi
	movq	%rax, %rsi
	movq	-40(%rbp), %rax
	.loc	39 332 43 is_stmt 1
	movq	-24(%rbp), %rcx
	movq	(%rcx), %rcx
	movw	536(%rcx), %cx
	movw	%cx, -6(%rbp)
Ltmp842:
	.loc	24 627 38
	movw	%cx, -4(%rbp)
Ltmp843:
	.loc	7 89 9
	movw	%cx, -2(%rbp)
Ltmp844:
	.loc	41 54 17
	movzwl	%cx, %ecx
Ltmp845:
	.loc	39 330 27
	movq	%rsi, (%rdi)
	movq	%rdx, 8(%rdi)
	movq	%rcx, 16(%rdi)
	.loc	39 334 14
	addq	$48, %rsp
	popq	%rbp
	retq
Ltmp846:
Lfunc_end127:
	.cfi_endproc

	.p2align	4, 0x90
__ZN5alloc11collections5btree4node76NodeRef$LT$alloc..collections..btree..node..marker..Dying$C$K$C$V$C$Type$GT$13as_leaf_dying17hb40980ee04c505e7E:
Lfunc_begin128:
	.loc	39 449 0
	.cfi_startproc
	pushq	%rbp
	.cfi_def_cfa_offset 16
	.cfi_offset %rbp, -16
	movq	%rsp, %rbp
	.cfi_def_cfa_register %rbp
	subq	$16, %rsp
	movq	%rdi, -16(%rbp)
Ltmp847:
	.loc	39 450 19 prologue_end
	callq	__ZN5alloc11collections5btree4node40NodeRef$LT$BorrowType$C$K$C$V$C$Type$GT$11as_leaf_ptr17h6167336e3d34be0dE
	movq	%rax, -8(%rbp)
	.loc	39 453 6
	addq	$16, %rsp
	popq	%rbp
	retq
Ltmp848:
Lfunc_end128:
	.cfi_endproc

	.p2align	4, 0x90
__ZN5alloc11collections5btree4node76NodeRef$LT$alloc..collections..btree..node..marker..Owned$C$K$C$V$C$Type$GT$10into_dying17hbdb33a98d977e3b4E:
Lfunc_begin129:
	.loc	39 626 0
	.cfi_startproc
	pushq	%rbp
	.cfi_def_cfa_offset 16
	.cfi_offset %rbp, -16
	movq	%rsp, %rbp
	.cfi_def_cfa_register %rbp
	subq	$32, %rsp
	movq	%rdi, -16(%rbp)
	movq	%rsi, -8(%rbp)
Ltmp849:
	.loc	39 627 9 prologue_end
	movq	%rdi, -32(%rbp)
	movq	%rsi, -24(%rbp)
	.loc	39 628 6
	movq	-32(%rbp), %rax
	movq	-24(%rbp), %rdx
	addq	$32, %rsp
	popq	%rbp
	retq
Ltmp850:
Lfunc_end129:
	.cfi_endproc

	.p2align	4, 0x90
__ZN5alloc11collections5btree4node81NodeRef$LT$BorrowType$C$K$C$V$C$alloc..collections..btree..node..marker..Leaf$GT$11forget_type17h244608fb0c616848E:
Lfunc_begin130:
	.loc	39 667 0
	.cfi_startproc
	pushq	%rbp
	.cfi_def_cfa_offset 16
	.cfi_offset %rbp, -16
	movq	%rsp, %rbp
	.cfi_def_cfa_register %rbp
	subq	$32, %rsp
	movq	%rdi, -16(%rbp)
	movq	%rsi, -8(%rbp)
Ltmp851:
	.loc	39 668 9 prologue_end
	movq	%rdi, -32(%rbp)
	movq	%rsi, -24(%rbp)
	.loc	39 669 6
	movq	-32(%rbp), %rax
	movq	-24(%rbp), %rdx
	addq	$32, %rsp
	popq	%rbp
	retq
Ltmp852:
Lfunc_end130:
	.cfi_endproc

	.p2align	4, 0x90
__ZN5alloc11collections5btree4node85NodeRef$LT$BorrowType$C$K$C$V$C$alloc..collections..btree..node..marker..Internal$GT$11forget_type17he0131e825d12a635E:
Lfunc_begin131:
	.loc	39 674 0
	.cfi_startproc
	pushq	%rbp
	.cfi_def_cfa_offset 16
	.cfi_offset %rbp, -16
	movq	%rsp, %rbp
	.cfi_def_cfa_register %rbp
	subq	$32, %rsp
	movq	%rdi, -16(%rbp)
	movq	%rsi, -8(%rbp)
Ltmp853:
	.loc	39 675 9 prologue_end
	movq	%rdi, -32(%rbp)
	movq	%rsi, -24(%rbp)
	.loc	39 676 6
	movq	-32(%rbp), %rax
	movq	-24(%rbp), %rdx
	addq	$32, %rsp
	popq	%rbp
	retq
Ltmp854:
Lfunc_end131:
	.cfi_endproc

	.p2align	4, 0x90
__ZN5alloc11collections5btree4node85NodeRef$LT$BorrowType$C$K$C$V$C$alloc..collections..btree..node..marker..Internal$GT$13from_internal17hb540aaa8df098469E:
Lfunc_begin132:
	.loc	39 248 0
	.cfi_startproc
	pushq	%rbp
	.cfi_def_cfa_offset 16
	.cfi_offset %rbp, -16
	movq	%rsp, %rbp
	.cfi_def_cfa_register %rbp
	subq	$64, %rsp
	movq	%rdi, -40(%rbp)
	movq	%rsi, -32(%rbp)
Ltmp855:
	.loc	39 250 33 prologue_end
	movq	%rdi, -24(%rbp)
Ltmp856:
	.loc	9 450 41
	movq	%rdi, -16(%rbp)
	movq	%rdi, -8(%rbp)
Ltmp857:
	.loc	9 201 13
	movq	%rdi, -48(%rbp)
Ltmp858:
	.loc	39 250 9
	movq	%rsi, -64(%rbp)
	movq	-48(%rbp), %rax
	movq	%rax, -56(%rbp)
	.loc	39 251 6
	movq	-64(%rbp), %rax
	movq	-56(%rbp), %rdx
	addq	$64, %rsp
	popq	%rbp
	retq
Ltmp859:
Lfunc_end132:
	.cfi_endproc

	.p2align	4, 0x90
__ZN5alloc11collections5btree4node85NodeRef$LT$BorrowType$C$K$C$V$C$alloc..collections..btree..node..marker..Internal$GT$15as_internal_ptr17h869afabf84583904E:
Lfunc_begin133:
	.loc	39 258 0
	.cfi_startproc
	pushq	%rbp
	.cfi_def_cfa_offset 16
	.cfi_offset %rbp, -16
	movq	%rsp, %rbp
	.cfi_def_cfa_register %rbp
	subq	$16, %rsp
	movq	%rdi, -16(%rbp)
Ltmp860:
	.loc	39 260 9 prologue_end
	movq	8(%rdi), %rax
	movq	%rax, -8(%rbp)
	.loc	39 261 6
	addq	$16, %rsp
	popq	%rbp
	retq
Ltmp861:
Lfunc_end133:
	.cfi_endproc

	.p2align	4, 0x90
__ZN5alloc11collections5btree4node91NodeRef$LT$BorrowType$C$K$C$V$C$alloc..collections..btree..node..marker..LeafOrInternal$GT$5force17hf933f17fa30502aaE:
Lfunc_begin134:
	.loc	39 681 0
	.cfi_startproc
	pushq	%rbp
	.cfi_def_cfa_offset 16
	.cfi_offset %rbp, -16
	movq	%rsp, %rbp
	.cfi_def_cfa_register %rbp
	subq	$80, %rsp
	movq	%rdx, -80(%rbp)
	movq	%rsi, -72(%rbp)
	movq	%rdi, -64(%rbp)
	movq	%rdi, -56(%rbp)
	movq	%rsi, -16(%rbp)
	movq	%rdx, -8(%rbp)
Ltmp862:
	.loc	39 687 12 prologue_end
	cmpq	$0, %rsi
	jne	LBB134_2
	.loc	39 0 12 is_stmt 0
	movq	-64(%rbp), %rax
	movq	-80(%rbp), %rcx
	movq	-72(%rbp), %rdx
	.loc	39 688 31 is_stmt 1
	movq	%rdx, -48(%rbp)
	movq	%rcx, -40(%rbp)
	.loc	39 688 13 is_stmt 0
	movq	-48(%rbp), %rdx
	movq	-40(%rbp), %rcx
	movq	%rdx, 8(%rax)
	movq	%rcx, 16(%rax)
	movq	$0, (%rax)
	.loc	39 687 9 is_stmt 1
	jmp	LBB134_3
LBB134_2:
	.loc	39 0 9 is_stmt 0
	movq	-64(%rbp), %rax
	movq	-80(%rbp), %rcx
	movq	-72(%rbp), %rdx
	.loc	39 694 35 is_stmt 1
	movq	%rdx, -32(%rbp)
	movq	%rcx, -24(%rbp)
	.loc	39 694 13 is_stmt 0
	movq	-32(%rbp), %rdx
	movq	-24(%rbp), %rcx
	movq	%rdx, 8(%rax)
	movq	%rcx, 16(%rax)
	movq	$1, (%rax)
LBB134_3:
	.loc	39 0 13
	movq	-56(%rbp), %rax
	.loc	39 700 6 is_stmt 1
	addq	$80, %rsp
	popq	%rbp
	retq
Ltmp863:
Lfunc_end134:
	.cfi_endproc

	.p2align	4, 0x90
__ZN5alloc11collections5btree8navigate10full_range17h83d6883f65d1018cE:
Lfunc_begin135:
	.file	42 "/rustc/2c8cc343237b8f7d5a3c3703e3a87f2eb2c54a74/library/alloc/src/collections/btree" "navigate.rs"
	.loc	42 289 0
	.cfi_startproc
	pushq	%rbp
	.cfi_def_cfa_offset 16
	.cfi_offset %rbp, -16
	movq	%rsp, %rbp
	.cfi_def_cfa_register %rbp
	subq	$160, %rsp
	movq	%rdi, %rax
	movq	%rsi, -32(%rbp)
	movq	%rdx, -24(%rbp)
	movq	%rcx, -16(%rbp)
	movq	%r8, -8(%rbp)
Ltmp864:
	.loc	42 294 21 prologue_end
	movq	%rsi, -120(%rbp)
	movq	%rdx, -112(%rbp)
	movq	$0, -128(%rbp)
	.loc	42 294 16 is_stmt 0
	movq	-128(%rbp), %rdx
	movq	%rdx, -160(%rbp)
	movq	-120(%rbp), %rdx
	movq	%rdx, -152(%rbp)
	movq	-112(%rbp), %rdx
	movq	%rdx, -144(%rbp)
	movq	-104(%rbp), %rdx
	movq	%rdx, -136(%rbp)
	.loc	42 295 20 is_stmt 1
	movq	%rcx, -56(%rbp)
	movq	%r8, -48(%rbp)
	movq	$0, -64(%rbp)
	.loc	42 295 15 is_stmt 0
	movq	-64(%rbp), %rcx
	movq	%rcx, -96(%rbp)
	movq	-56(%rbp), %rcx
	movq	%rcx, -88(%rbp)
	movq	-48(%rbp), %rcx
	movq	%rcx, -80(%rbp)
	movq	-40(%rbp), %rcx
	movq	%rcx, -72(%rbp)
	.loc	42 293 5 is_stmt 1
	movq	-160(%rbp), %rcx
	movq	%rcx, (%rdi)
	movq	-152(%rbp), %rcx
	movq	%rcx, 8(%rdi)
	movq	-144(%rbp), %rcx
	movq	%rcx, 16(%rdi)
	movq	-136(%rbp), %rcx
	movq	%rcx, 24(%rdi)
	movq	-96(%rbp), %rcx
	movq	%rcx, 32(%rdi)
	movq	-88(%rbp), %rcx
	movq	%rcx, 40(%rdi)
	movq	-80(%rbp), %rcx
	movq	%rcx, 48(%rdi)
	movq	-72(%rbp), %rcx
	movq	%rcx, 56(%rdi)
	.loc	42 297 2
	addq	$160, %rsp
	popq	%rbp
	retq
Ltmp865:
Lfunc_end135:
	.cfi_endproc

	.p2align	4, 0x90
__ZN5alloc11collections5btree8navigate142_$LT$impl$u20$alloc..collections..btree..node..NodeRef$LT$BorrowType$C$K$C$V$C$alloc..collections..btree..node..marker..LeafOrInternal$GT$$GT$15first_leaf_edge17h0082fddd08d5f236E:
Lfunc_begin136:
	.loc	42 618 0
	.cfi_startproc
	pushq	%rbp
	.cfi_def_cfa_offset 16
	.cfi_offset %rbp, -16
	movq	%rsp, %rbp
	.cfi_def_cfa_register %rbp
	subq	$128, %rsp
	movq	%rdi, -128(%rbp)
	movq	%rdi, -120(%rbp)
	movq	%rsi, -48(%rbp)
	movq	%rdx, -40(%rbp)
Ltmp866:
	.loc	42 619 24 prologue_end
	movq	%rsi, -112(%rbp)
	movq	%rdx, -104(%rbp)
LBB136_1:
Ltmp867:
	.loc	42 621 19
	movq	-112(%rbp), %rsi
	movq	-104(%rbp), %rdx
	leaq	-96(%rbp), %rdi
	callq	__ZN5alloc11collections5btree4node91NodeRef$LT$BorrowType$C$K$C$V$C$alloc..collections..btree..node..marker..LeafOrInternal$GT$5force17hf933f17fa30502aaE
	.loc	42 621 13 is_stmt 0
	cmpq	$0, -96(%rbp)
	jne	LBB136_3
	.loc	42 0 13
	movq	-128(%rbp), %rdi
	.loc	42 622 22 is_stmt 1
	movq	-88(%rbp), %rsi
	movq	-80(%rbp), %rdx
	movq	%rsi, -16(%rbp)
	movq	%rdx, -8(%rbp)
Ltmp868:
	.loc	42 622 38 is_stmt 0
	callq	__ZN5alloc11collections5btree4node40NodeRef$LT$BorrowType$C$K$C$V$C$Type$GT$10first_edge17h6fa73f2222b94883E
	movq	-120(%rbp), %rax
Ltmp869:
	.loc	42 626 6 is_stmt 1
	addq	$128, %rsp
	popq	%rbp
	retq
LBB136_3:
Ltmp870:
	.loc	42 623 26
	movq	-88(%rbp), %rsi
	movq	-80(%rbp), %rdx
	movq	%rsi, -32(%rbp)
	movq	%rdx, -24(%rbp)
Ltmp871:
	.loc	42 623 46 is_stmt 0
	leaq	-72(%rbp), %rdi
	callq	__ZN5alloc11collections5btree4node40NodeRef$LT$BorrowType$C$K$C$V$C$Type$GT$10first_edge17h0eacd05fb1ff3f10E
	leaq	-72(%rbp), %rdi
	callq	__ZN5alloc11collections5btree4node180Handle$LT$alloc..collections..btree..node..NodeRef$LT$BorrowType$C$K$C$V$C$alloc..collections..btree..node..marker..Internal$GT$$C$alloc..collections..btree..node..marker..Edge$GT$7descend17hd7bc8176076e5235E
	.loc	42 623 39
	movq	%rax, -112(%rbp)
	movq	%rdx, -104(%rbp)
Ltmp872:
	.loc	42 620 9 is_stmt 1
	jmp	LBB136_1
Ltmp873:
Lfunc_end136:
	.cfi_endproc

	.p2align	4, 0x90
__ZN5alloc11collections5btree8navigate178_$LT$impl$u20$alloc..collections..btree..node..NodeRef$LT$alloc..collections..btree..node..marker..Dying$C$K$C$V$C$alloc..collections..btree..node..marker..LeafOrInternal$GT$$GT$10full_range17hcf2c3204842cab7cE:
Lfunc_begin137:
	.loc	42 354 0
	.cfi_startproc
	pushq	%rbp
	.cfi_def_cfa_offset 16
	.cfi_offset %rbp, -16
	movq	%rsp, %rbp
	.cfi_def_cfa_register %rbp
	subq	$112, %rsp
	movq	%rdi, %rax
	movq	%rax, -104(%rbp)
	movq	%rsi, -96(%rbp)
	movq	%rdx, -88(%rbp)
Ltmp874:
	.loc	42 357 40 prologue_end
	leaq	-96(%rbp), %rax
	movq	%rax, -64(%rbp)
Ltmp875:
	.loc	3 1157 34
	leaq	-80(%rbp), %rax
	movq	%rax, -56(%rbp)
	.loc	3 1157 9 is_stmt 0
	movq	-96(%rbp), %rax
	movq	%rax, -80(%rbp)
	movq	-88(%rbp), %rax
	movq	%rax, -72(%rbp)
	.loc	3 1158 9 is_stmt 1
	movq	-80(%rbp), %rcx
	movq	-72(%rbp), %r8
	movq	%rcx, -48(%rbp)
	movq	%r8, -40(%rbp)
Ltmp876:
	.loc	24 627 38
	movq	%rcx, -32(%rbp)
	movq	%r8, -24(%rbp)
Ltmp877:
	.loc	7 89 9
	movq	%rcx, -16(%rbp)
	movq	%r8, -8(%rbp)
Ltmp878:
	.loc	42 358 20
	movq	-96(%rbp), %rsi
	movq	-88(%rbp), %rdx
	.loc	42 358 9 is_stmt 0
	callq	__ZN5alloc11collections5btree8navigate10full_range17h83d6883f65d1018cE
	movq	-104(%rbp), %rax
Ltmp879:
	.loc	42 359 6 is_stmt 1
	addq	$112, %rsp
	popq	%rbp
	retq
Ltmp880:
Lfunc_end137:
	.cfi_endproc

	.p2align	4, 0x90
__ZN5alloc11collections5btree8navigate235_$LT$impl$u20$alloc..collections..btree..node..Handle$LT$alloc..collections..btree..node..NodeRef$LT$BorrowType$C$K$C$V$C$alloc..collections..btree..node..marker..LeafOrInternal$GT$$C$alloc..collections..btree..node..marker..KV$GT$$GT$14next_leaf_edge17hf783eb1d8b6cc774E:
Lfunc_begin138:
	.loc	42 699 0
	.cfi_startproc
	pushq	%rbp
	.cfi_def_cfa_offset 16
	.cfi_offset %rbp, -16
	movq	%rsp, %rbp
	.cfi_def_cfa_register %rbp
	subq	$224, %rsp
	movq	%rdi, -216(%rbp)
	movq	%rdi, -208(%rbp)
Ltmp881:
	.loc	42 700 15 prologue_end
	movq	(%rsi), %rax
	movq	%rax, -168(%rbp)
	movq	8(%rsi), %rax
	movq	%rax, -160(%rbp)
	movq	16(%rsi), %rax
	movq	%rax, -152(%rbp)
	leaq	-200(%rbp), %rdi
	leaq	-168(%rbp), %rsi
Ltmp882:
	callq	__ZN5alloc11collections5btree4node145Handle$LT$alloc..collections..btree..node..NodeRef$LT$BorrowType$C$K$C$V$C$alloc..collections..btree..node..marker..LeafOrInternal$GT$$C$Type$GT$5force17h4baa1b08dc7592e1E
	.loc	42 700 9 is_stmt 0
	cmpq	$0, -200(%rbp)
	jne	LBB138_2
Ltmp883:
	.loc	42 0 9
	movq	-216(%rbp), %rdi
	.loc	42 701 18 is_stmt 1
	movq	-192(%rbp), %rax
	movq	%rax, -144(%rbp)
	movq	-184(%rbp), %rax
	movq	%rax, -136(%rbp)
	movq	-176(%rbp), %rax
	movq	%rax, -128(%rbp)
Ltmp884:
	.loc	42 701 30 is_stmt 0
	movq	-144(%rbp), %rax
	movq	%rax, -120(%rbp)
	movq	-136(%rbp), %rax
	movq	%rax, -112(%rbp)
	movq	-128(%rbp), %rax
	movq	%rax, -104(%rbp)
	leaq	-120(%rbp), %rsi
	callq	__ZN5alloc11collections5btree4node137Handle$LT$alloc..collections..btree..node..NodeRef$LT$BorrowType$C$K$C$V$C$NodeType$GT$$C$alloc..collections..btree..node..marker..KV$GT$10right_edge17h6ec359e61eb87610E
Ltmp885:
	.loc	42 701 49
	jmp	LBB138_3
Ltmp886:
LBB138_2:
	.loc	42 702 22 is_stmt 1
	movq	-192(%rbp), %rax
	movq	%rax, -96(%rbp)
	movq	-184(%rbp), %rax
	movq	%rax, -88(%rbp)
	movq	-176(%rbp), %rax
	movq	%rax, -80(%rbp)
Ltmp887:
	.loc	42 703 42
	movq	-96(%rbp), %rax
	movq	%rax, -48(%rbp)
	movq	-88(%rbp), %rax
	movq	%rax, -40(%rbp)
	movq	-80(%rbp), %rax
	movq	%rax, -32(%rbp)
	leaq	-72(%rbp), %rdi
	leaq	-48(%rbp), %rsi
	callq	__ZN5alloc11collections5btree4node137Handle$LT$alloc..collections..btree..node..NodeRef$LT$BorrowType$C$K$C$V$C$NodeType$GT$$C$alloc..collections..btree..node..marker..KV$GT$10right_edge17h637cde7b39d68b5cE
Ltmp888:
	.loc	42 704 17
	movq	-72(%rbp), %rax
	movq	%rax, -24(%rbp)
	movq	-64(%rbp), %rax
	movq	%rax, -16(%rbp)
	movq	-56(%rbp), %rax
	movq	%rax, -8(%rbp)
	leaq	-24(%rbp), %rdi
	callq	__ZN5alloc11collections5btree4node180Handle$LT$alloc..collections..btree..node..NodeRef$LT$BorrowType$C$K$C$V$C$alloc..collections..btree..node..marker..Internal$GT$$C$alloc..collections..btree..node..marker..Edge$GT$7descend17hd7bc8176076e5235E
	movq	-216(%rbp), %rdi
	movq	%rax, %rsi
	callq	__ZN5alloc11collections5btree8navigate142_$LT$impl$u20$alloc..collections..btree..node..NodeRef$LT$BorrowType$C$K$C$V$C$alloc..collections..btree..node..marker..LeafOrInternal$GT$$GT$15first_leaf_edge17h0082fddd08d5f236E
Ltmp889:
LBB138_3:
	.loc	42 0 17 is_stmt 0
	movq	-208(%rbp), %rax
	.loc	42 707 6 is_stmt 1
	addq	$224, %rsp
	popq	%rbp
	retq
Ltmp890:
Lfunc_end138:
	.cfi_endproc

	.p2align	4, 0x90
__ZN5alloc11collections5btree8navigate263_$LT$impl$u20$alloc..collections..btree..node..Handle$LT$alloc..collections..btree..node..NodeRef$LT$alloc..collections..btree..node..marker..Dying$C$K$C$V$C$alloc..collections..btree..node..marker..Leaf$GT$$C$alloc..collections..btree..node..marker..Edge$GT$$GT$16deallocating_end17hd45ed0dd2195ed25E:
Lfunc_begin139:
	.loc	42 504 0
	.cfi_startproc
	.cfi_personality 155, _rust_eh_personality
	.cfi_lsda 16, Lexception25
	pushq	%rbp
	.cfi_def_cfa_offset 16
	.cfi_offset %rbp, -16
	movq	%rsp, %rbp
	.cfi_def_cfa_register %rbp
	subq	$224, %rsp
Ltmp902:
	.loc	42 505 24 prologue_end
	movq	16(%rdi), %rax
	movq	%rax, -144(%rbp)
	movq	(%rdi), %rax
	movq	8(%rdi), %rcx
	movq	%rcx, -152(%rbp)
	movq	%rax, -160(%rbp)
Ltmp891:
	leaq	-184(%rbp), %rdi
Ltmp903:
	.loc	42 0 24 is_stmt 0
	leaq	-160(%rbp), %rsi
	.loc	42 505 24
	callq	__ZN5alloc11collections5btree4node176Handle$LT$alloc..collections..btree..node..NodeRef$LT$BorrowType$C$K$C$V$C$alloc..collections..btree..node..marker..Leaf$GT$$C$alloc..collections..btree..node..marker..Edge$GT$16forget_node_type17h43544e7a263150c3E
Ltmp892:
	jmp	LBB139_3
Ltmp904:
LBB139_1:
	.loc	42 504 5 is_stmt 1
	movq	-16(%rbp), %rdi
	callq	__Unwind_Resume
Ltmp905:
LBB139_2:
Ltmp901:
	.loc	42 0 5 is_stmt 0
	movq	%rax, %rcx
	movl	%edx, %eax
	movq	%rcx, -16(%rbp)
	movl	%eax, -8(%rbp)
	jmp	LBB139_1
Ltmp906:
LBB139_3:
	.loc	42 506 9 is_stmt 1
	jmp	LBB139_4
Ltmp907:
LBB139_4:
	.loc	42 507 22
	movq	-168(%rbp), %rax
	movq	%rax, -96(%rbp)
	movq	-184(%rbp), %rax
	movq	-176(%rbp), %rcx
	movq	%rcx, -104(%rbp)
	movq	%rax, -112(%rbp)
Ltmp893:
	leaq	-112(%rbp), %rdi
	callq	__ZN5alloc11collections5btree4node25Handle$LT$Node$C$Type$GT$9into_node17haf85cc9205919cd3E
Ltmp894:
	movq	%rdx, -208(%rbp)
	movq	%rax, -200(%rbp)
	jmp	LBB139_5
Ltmp908:
LBB139_5:
	.loc	42 0 22 is_stmt 0
	movq	-208(%rbp), %rax
	movq	-200(%rbp), %rcx
	movq	%rcx, -224(%rbp)
	movq	%rax, -216(%rbp)
Ltmp895:
	leaq	-192(%rbp), %rdi
	.loc	42 507 61
	callq	__ZN59_$LT$alloc..alloc..Global$u20$as$u20$core..clone..Clone$GT$5clone17h08dc641e42401f67E
Ltmp896:
	jmp	LBB139_6
Ltmp909:
LBB139_6:
Ltmp897:
	.loc	42 0 61
	movq	-216(%rbp), %rdx
	movq	-224(%rbp), %rsi
	leaq	-136(%rbp), %rdi
	.loc	42 507 22
	callq	__ZN5alloc11collections5btree4node127NodeRef$LT$alloc..collections..btree..node..marker..Dying$C$K$C$V$C$alloc..collections..btree..node..marker..LeafOrInternal$GT$21deallocate_and_ascend17hb56e6dfb42b5c007E
Ltmp898:
	jmp	LBB139_7
Ltmp910:
LBB139_7:
	.loc	42 506 19 is_stmt 1
	movq	-128(%rbp), %rdx
	movl	$1, %eax
	xorl	%ecx, %ecx
	cmpq	$0, %rdx
	cmoveq	%rcx, %rax
	cmpq	$1, %rax
	jne	LBB139_9
Ltmp911:
	.loc	42 506 24 is_stmt 0
	movq	-120(%rbp), %rax
	movq	%rax, -72(%rbp)
	movq	-136(%rbp), %rax
	movq	-128(%rbp), %rcx
	movq	%rcx, -80(%rbp)
	movq	%rax, -88(%rbp)
	.loc	42 509 20 is_stmt 1
	movq	-72(%rbp), %rax
	movq	%rax, -24(%rbp)
	movq	-88(%rbp), %rax
	movq	-80(%rbp), %rcx
	movq	%rcx, -32(%rbp)
	movq	%rax, -40(%rbp)
Ltmp899:
	leaq	-64(%rbp), %rdi
	leaq	-40(%rbp), %rsi
	callq	__ZN5alloc11collections5btree4node180Handle$LT$alloc..collections..btree..node..NodeRef$LT$BorrowType$C$K$C$V$C$alloc..collections..btree..node..marker..Internal$GT$$C$alloc..collections..btree..node..marker..Edge$GT$16forget_node_type17h6870a1fcab67f461E
Ltmp900:
	jmp	LBB139_10
Ltmp912:
LBB139_9:
	.loc	42 511 6
	addq	$224, %rsp
	popq	%rbp
	retq
Ltmp913:
LBB139_10:
	.loc	42 509 13
	movq	-64(%rbp), %rax
	movq	%rax, -184(%rbp)
	movq	-56(%rbp), %rax
	movq	%rax, -176(%rbp)
	movq	-48(%rbp), %rax
	movq	%rax, -168(%rbp)
Ltmp914:
	.loc	42 506 9
	jmp	LBB139_4
Ltmp915:
Lfunc_end139:
	.cfi_endproc
	.section	__TEXT,__gcc_except_tab
	.p2align	2
GCC_except_table139:
Lexception25:
	.byte	255
	.byte	255
	.byte	1
	.uleb128 Lcst_end25-Lcst_begin25
Lcst_begin25:
	.uleb128 Ltmp891-Lfunc_begin139
	.uleb128 Ltmp892-Ltmp891
	.uleb128 Ltmp901-Lfunc_begin139
	.byte	0
	.uleb128 Ltmp892-Lfunc_begin139
	.uleb128 Ltmp893-Ltmp892
	.byte	0
	.byte	0
	.uleb128 Ltmp893-Lfunc_begin139
	.uleb128 Ltmp900-Ltmp893
	.uleb128 Ltmp901-Lfunc_begin139
	.byte	0
Lcst_end25:
	.p2align	2

	.section	__TEXT,__text,regular,pure_instructions
	.p2align	4, 0x90
__ZN5alloc11collections5btree8navigate263_$LT$impl$u20$alloc..collections..btree..node..Handle$LT$alloc..collections..btree..node..NodeRef$LT$alloc..collections..btree..node..marker..Dying$C$K$C$V$C$alloc..collections..btree..node..marker..Leaf$GT$$C$alloc..collections..btree..node..marker..Edge$GT$$GT$17deallocating_next17h1ccc3adaac801201E:
Lfunc_begin140:
	.loc	42 447 0
	.cfi_startproc
	.cfi_personality 155, _rust_eh_personality
	.cfi_lsda 16, Lexception26
	pushq	%rbp
	.cfi_def_cfa_offset 16
	.cfi_offset %rbp, -16
	movq	%rsp, %rbp
	.cfi_def_cfa_register %rbp
	subq	$560, %rsp
	movq	%rdi, -520(%rbp)
	movq	%rdi, -512(%rbp)
Ltmp931:
	.loc	42 452 24 prologue_end
	movq	16(%rsi), %rax
	movq	%rax, -456(%rbp)
	movq	(%rsi), %rax
	movq	8(%rsi), %rcx
	movq	%rcx, -464(%rbp)
	movq	%rax, -472(%rbp)
Ltmp916:
	leaq	-496(%rbp), %rdi
	leaq	-472(%rbp), %rsi
Ltmp932:
	callq	__ZN5alloc11collections5btree4node176Handle$LT$alloc..collections..btree..node..NodeRef$LT$BorrowType$C$K$C$V$C$alloc..collections..btree..node..marker..Leaf$GT$$C$alloc..collections..btree..node..marker..Edge$GT$16forget_node_type17h43544e7a263150c3E
Ltmp917:
	jmp	LBB140_3
Ltmp933:
LBB140_1:
	.loc	42 447 5
	movq	-32(%rbp), %rdi
	callq	__Unwind_Resume
Ltmp934:
LBB140_2:
Ltmp930:
	.loc	42 0 5 is_stmt 0
	movq	%rax, %rcx
	movl	%edx, %eax
	movq	%rcx, -32(%rbp)
	movl	%eax, -24(%rbp)
	jmp	LBB140_1
Ltmp935:
LBB140_3:
	.loc	42 453 9 is_stmt 1
	jmp	LBB140_4
Ltmp936:
LBB140_4:
	.loc	42 454 26
	movq	-480(%rbp), %rax
	movq	%rax, -376(%rbp)
	movq	-496(%rbp), %rax
	movq	-488(%rbp), %rcx
	movq	%rcx, -384(%rbp)
	movq	%rax, -392(%rbp)
Ltmp918:
	leaq	-424(%rbp), %rdi
	leaq	-392(%rbp), %rsi
	callq	__ZN5alloc11collections5btree4node139Handle$LT$alloc..collections..btree..node..NodeRef$LT$BorrowType$C$K$C$V$C$NodeType$GT$$C$alloc..collections..btree..node..marker..Edge$GT$8right_kv17h3005a7197d9f91e1E
Ltmp919:
	jmp	LBB140_5
Ltmp937:
LBB140_5:
	.loc	42 454 20 is_stmt 0
	cmpq	$0, -424(%rbp)
	jne	LBB140_7
Ltmp938:
	.loc	42 455 20 is_stmt 1
	movq	-416(%rbp), %rax
	movq	%rax, -368(%rbp)
	movq	-408(%rbp), %rax
	movq	%rax, -360(%rbp)
	movq	-400(%rbp), %rax
	movq	%rax, -352(%rbp)
Ltmp939:
	.loc	42 455 59 is_stmt 0
	leaq	-368(%rbp), %rax
	movq	%rax, -16(%rbp)
Ltmp940:
	.loc	3 1157 34 is_stmt 1
	leaq	-104(%rbp), %rax
	movq	%rax, -8(%rbp)
	.loc	3 1157 9 is_stmt 0
	movq	-368(%rbp), %rax
	movq	%rax, -104(%rbp)
	movq	-360(%rbp), %rax
	movq	%rax, -96(%rbp)
	movq	-352(%rbp), %rax
	movq	%rax, -88(%rbp)
	.loc	3 1158 9 is_stmt 1
	movq	-104(%rbp), %rax
	movq	%rax, -80(%rbp)
	movq	-96(%rbp), %rax
	movq	%rax, -72(%rbp)
	movq	-88(%rbp), %rax
	movq	%rax, -64(%rbp)
Ltmp941:
	.loc	24 626 13
	jmp	LBB140_15
Ltmp942:
LBB140_7:
	.loc	42 456 21
	movq	-400(%rbp), %rax
	movq	%rax, -208(%rbp)
	movq	-416(%rbp), %rax
	movq	-408(%rbp), %rcx
	movq	%rcx, -216(%rbp)
	movq	%rax, -224(%rbp)
Ltmp943:
	.loc	42 457 36
	movq	-208(%rbp), %rax
	movq	%rax, -160(%rbp)
	movq	-224(%rbp), %rax
	movq	-216(%rbp), %rcx
	movq	%rcx, -168(%rbp)
	movq	%rax, -176(%rbp)
Ltmp920:
	leaq	-176(%rbp), %rdi
	callq	__ZN5alloc11collections5btree4node25Handle$LT$Node$C$Type$GT$9into_node17haf85cc9205919cd3E
Ltmp921:
	movq	%rdx, -536(%rbp)
	movq	%rax, -528(%rbp)
	jmp	LBB140_8
Ltmp944:
LBB140_8:
	.loc	42 0 36 is_stmt 0
	movq	-536(%rbp), %rax
	movq	-528(%rbp), %rcx
	movq	%rcx, -552(%rbp)
	movq	%rax, -544(%rbp)
Ltmp922:
	leaq	-504(%rbp), %rdi
	.loc	42 457 80
	callq	__ZN59_$LT$alloc..alloc..Global$u20$as$u20$core..clone..Clone$GT$5clone17h08dc641e42401f67E
Ltmp923:
	jmp	LBB140_9
Ltmp945:
LBB140_9:
Ltmp924:
	.loc	42 0 80
	movq	-544(%rbp), %rdx
	movq	-552(%rbp), %rsi
	leaq	-200(%rbp), %rdi
	.loc	42 457 36
	callq	__ZN5alloc11collections5btree4node127NodeRef$LT$alloc..collections..btree..node..marker..Dying$C$K$C$V$C$alloc..collections..btree..node..marker..LeafOrInternal$GT$21deallocate_and_ascend17hb56e6dfb42b5c007E
Ltmp925:
	jmp	LBB140_10
Ltmp946:
LBB140_10:
	.loc	42 457 27
	movq	-192(%rbp), %rdx
	movl	$1, %eax
	xorl	%ecx, %ecx
	cmpq	$0, %rdx
	cmoveq	%rcx, %rax
	.loc	42 457 21
	cmpq	$0, %rax
	jne	LBB140_12
Ltmp947:
	.loc	42 0 21
	movq	-520(%rbp), %rax
	.loc	42 459 40 is_stmt 1
	movq	$0, 8(%rax)
Ltmp948:
	.file	43 "/Users/natalie/.cargo/registry/src/github.com-1ecc6299db9ec823/thiserror-1.0.37" "build.rs"
	.loc	43 1 1
	jmp	LBB140_14
Ltmp949:
LBB140_12:
	.loc	42 458 30
	movq	-184(%rbp), %rax
	movq	%rax, -136(%rbp)
	movq	-200(%rbp), %rax
	movq	-192(%rbp), %rcx
	movq	%rcx, -144(%rbp)
	movq	%rax, -152(%rbp)
Ltmp950:
	.loc	42 458 46 is_stmt 0
	movq	-136(%rbp), %rax
	movq	%rax, -112(%rbp)
	movq	-152(%rbp), %rax
	movq	-144(%rbp), %rcx
	movq	%rcx, -120(%rbp)
	movq	%rax, -128(%rbp)
Ltmp926:
	leaq	-448(%rbp), %rdi
	leaq	-128(%rbp), %rsi
	callq	__ZN5alloc11collections5btree4node180Handle$LT$alloc..collections..btree..node..NodeRef$LT$BorrowType$C$K$C$V$C$alloc..collections..btree..node..marker..Internal$GT$$C$alloc..collections..btree..node..marker..Edge$GT$16forget_node_type17h6870a1fcab67f461E
Ltmp927:
	jmp	LBB140_13
Ltmp951:
LBB140_13:
	.loc	42 454 13 is_stmt 1
	movq	-448(%rbp), %rax
	movq	%rax, -496(%rbp)
	movq	-440(%rbp), %rax
	movq	%rax, -488(%rbp)
	movq	-432(%rbp), %rax
	movq	%rax, -480(%rbp)
	.loc	42 453 9
	jmp	LBB140_4
Ltmp952:
LBB140_14:
	.loc	42 0 9 is_stmt 0
	movq	-512(%rbp), %rax
	.loc	42 464 6 is_stmt 1
	addq	$560, %rsp
	popq	%rbp
	retq
Ltmp953:
LBB140_15:
	.loc	24 627 38
	movq	-64(%rbp), %rax
	movq	%rax, -40(%rbp)
	movq	-80(%rbp), %rax
	movq	-72(%rbp), %rcx
	movq	%rcx, -48(%rbp)
	movq	%rax, -56(%rbp)
Ltmp954:
	.loc	7 89 9
	movq	-40(%rbp), %rax
	movq	%rax, -256(%rbp)
	movq	-56(%rbp), %rax
	movq	-48(%rbp), %rcx
	movq	%rcx, -264(%rbp)
	movq	%rax, -272(%rbp)
Ltmp928:
	leaq	-296(%rbp), %rdi
	leaq	-272(%rbp), %rsi
Ltmp955:
	.loc	42 455 40
	callq	__ZN5alloc11collections5btree8navigate235_$LT$impl$u20$alloc..collections..btree..node..Handle$LT$alloc..collections..btree..node..NodeRef$LT$BorrowType$C$K$C$V$C$alloc..collections..btree..node..marker..LeafOrInternal$GT$$C$alloc..collections..btree..node..marker..KV$GT$$GT$14next_leaf_edge17hf783eb1d8b6cc774E
Ltmp929:
	jmp	LBB140_16
Ltmp956:
LBB140_16:
	.loc	42 0 40 is_stmt 0
	movq	-520(%rbp), %rdi
	.loc	42 455 84
	movq	-368(%rbp), %rax
	movq	%rax, -248(%rbp)
	movq	-360(%rbp), %rax
	movq	%rax, -240(%rbp)
	movq	-352(%rbp), %rax
	movq	%rax, -232(%rbp)
	.loc	42 455 39
	movq	-296(%rbp), %rax
	movq	%rax, -344(%rbp)
	movq	-288(%rbp), %rax
	movq	%rax, -336(%rbp)
	movq	-280(%rbp), %rax
	movq	%rax, -328(%rbp)
	movq	-248(%rbp), %rax
	movq	%rax, -320(%rbp)
	movq	-240(%rbp), %rax
	movq	%rax, -312(%rbp)
	movq	-232(%rbp), %rax
	movq	%rax, -304(%rbp)
	.loc	42 455 34
	leaq	-344(%rbp), %rsi
	movl	$48, %edx
	callq	_memcpy
Ltmp957:
	.loc	43 1 1 is_stmt 1
	jmp	LBB140_14
Ltmp958:
Lfunc_end140:
	.cfi_endproc
	.section	__TEXT,__gcc_except_tab
	.p2align	2
GCC_except_table140:
Lexception26:
	.byte	255
	.byte	255
	.byte	1
	.uleb128 Lcst_end26-Lcst_begin26
Lcst_begin26:
	.uleb128 Ltmp916-Lfunc_begin140
	.uleb128 Ltmp917-Ltmp916
	.uleb128 Ltmp930-Lfunc_begin140
	.byte	0
	.uleb128 Ltmp917-Lfunc_begin140
	.uleb128 Ltmp918-Ltmp917
	.byte	0
	.byte	0
	.uleb128 Ltmp918-Lfunc_begin140
	.uleb128 Ltmp929-Ltmp918
	.uleb128 Ltmp930-Lfunc_begin140
	.byte	0
	.uleb128 Ltmp929-Lfunc_begin140
	.uleb128 Lfunc_end140-Ltmp929
	.byte	0
	.byte	0
Lcst_end26:
	.p2align	2

	.section	__TEXT,__text,regular,pure_instructions
	.p2align	4, 0x90
__ZN5alloc11collections5btree8navigate263_$LT$impl$u20$alloc..collections..btree..node..Handle$LT$alloc..collections..btree..node..NodeRef$LT$alloc..collections..btree..node..marker..Dying$C$K$C$V$C$alloc..collections..btree..node..marker..Leaf$GT$$C$alloc..collections..btree..node..marker..Edge$GT$$GT$27deallocating_next_unchecked17h9375da406fba6569E:
Lfunc_begin141:
	.loc	42 583 0
	.cfi_startproc
	pushq	%rbp
	.cfi_def_cfa_offset 16
	.cfi_offset %rbp, -16
	movq	%rsp, %rbp
	.cfi_def_cfa_register %rbp
	subq	$32, %rsp
	movq	%rdi, %rax
	movq	%rax, -32(%rbp)
	movq	%rsi, -16(%rbp)
Ltmp959:
	.loc	42 587 9 prologue_end
	callq	__ZN5alloc11collections5btree3mem7replace17hd668fe5504a2cad9E
	movq	-32(%rbp), %rax
	.loc	42 590 6
	addq	$32, %rsp
	popq	%rbp
	retq
Ltmp960:
Lfunc_end141:
	.cfi_endproc

	.p2align	4, 0x90
__ZN5alloc11collections5btree8navigate263_$LT$impl$u20$alloc..collections..btree..node..Handle$LT$alloc..collections..btree..node..NodeRef$LT$alloc..collections..btree..node..marker..Dying$C$K$C$V$C$alloc..collections..btree..node..marker..Leaf$GT$$C$alloc..collections..btree..node..marker..Edge$GT$$GT$27deallocating_next_unchecked28_$u7b$$u7b$closure$u7d$$u7d$17h87a7f370e04e68b2E:
Lfunc_begin142:
	.loc	42 587 0
	.cfi_startproc
	pushq	%rbp
	.cfi_def_cfa_offset 16
	.cfi_offset %rbp, -16
	movq	%rsp, %rbp
	.cfi_def_cfa_register %rbp
	subq	$96, %rsp
	movq	%rdi, -96(%rbp)
	movq	%rdi, -88(%rbp)
Ltmp961:
	.loc	42 588 13 prologue_end
	movq	(%rsi), %rax
	movq	%rax, -32(%rbp)
	movq	8(%rsi), %rax
	movq	%rax, -24(%rbp)
	movq	16(%rsi), %rax
	movq	%rax, -16(%rbp)
	leaq	-80(%rbp), %rdi
	leaq	-32(%rbp), %rsi
Ltmp962:
	callq	__ZN5alloc11collections5btree8navigate263_$LT$impl$u20$alloc..collections..btree..node..Handle$LT$alloc..collections..btree..node..NodeRef$LT$alloc..collections..btree..node..marker..Dying$C$K$C$V$C$alloc..collections..btree..node..marker..Leaf$GT$$C$alloc..collections..btree..node..marker..Edge$GT$$GT$17deallocating_next17h1ccc3adaac801201E
Ltmp963:
	.loc	8 821 15
	movq	-72(%rbp), %rdx
	movl	$1, %eax
	xorl	%ecx, %ecx
	cmpq	$0, %rdx
	cmoveq	%rcx, %rax
	.loc	8 821 9 is_stmt 0
	cmpq	$0, %rax
	jne	LBB142_2
Ltmp964:
	.loc	8 823 21 is_stmt 1
	leaq	l___unnamed_12(%rip), %rdi
	leaq	l___unnamed_13(%rip), %rdx
	movl	$43, %esi
	callq	__ZN4core9panicking5panic17hc1bc45270cf64b03E
Ltmp965:
LBB142_2:
	.loc	8 0 21 is_stmt 0
	movq	-96(%rbp), %rdi
	.loc	8 822 18 is_stmt 1
	leaq	-80(%rbp), %rsi
	movl	$48, %edx
	callq	_memcpy
	movq	-88(%rbp), %rax
Ltmp966:
	.loc	42 589 10
	addq	$96, %rsp
	popq	%rbp
	retq
Ltmp967:
Lfunc_end142:
	.cfi_endproc

	.p2align	4, 0x90
__ZN5alloc11collections5btree8navigate39LazyLeafRange$LT$BorrowType$C$K$C$V$GT$10init_front17hd3648b89a526a7aeE:
Lfunc_begin143:
	.loc	42 209 0
	.cfi_startproc
	pushq	%rbp
	.cfi_def_cfa_offset 16
	.cfi_offset %rbp, -16
	movq	%rsp, %rbp
	.cfi_def_cfa_register %rbp
	subq	$192, %rsp
	movq	%rdi, -192(%rbp)
	movq	%rdi, -72(%rbp)
Ltmp968:
	.loc	42 212 16 prologue_end
	movl	$1, %eax
	xorl	%ecx, %ecx
	cmpq	$2, (%rdi)
	cmoveq	%rcx, %rax
	cmpq	$1, %rax
	jne	LBB143_2
	.loc	42 0 16 is_stmt 0
	movq	-192(%rbp), %rax
	.loc	42 212 16
	cmpq	$0, (%rax)
	je	LBB143_3
Ltmp969:
LBB143_2:
	.loc	42 0 16
	movq	-192(%rbp), %rdx
	.loc	42 215 15 is_stmt 1
	movl	$1, %eax
	xorl	%ecx, %ecx
	cmpq	$2, (%rdx)
	cmoveq	%rcx, %rax
	.loc	42 215 9 is_stmt 0
	cmpq	$0, %rax
	je	LBB143_4
	jmp	LBB143_5
LBB143_3:
	.loc	42 0 9
	movq	-192(%rbp), %rax
Ltmp970:
	.loc	42 212 42 is_stmt 1
	movq	%rax, %rcx
	addq	$8, %rcx
	movq	%rcx, -64(%rbp)
	.loc	42 213 71
	movq	%rcx, -56(%rbp)
Ltmp971:
	.loc	3 1157 34
	leaq	-88(%rbp), %rcx
	movq	%rcx, -48(%rbp)
	.loc	3 1157 9 is_stmt 0
	movq	8(%rax), %rcx
	movq	%rcx, -88(%rbp)
	movq	16(%rax), %rax
	movq	%rax, -80(%rbp)
	.loc	3 1158 9 is_stmt 1
	movq	-88(%rbp), %rsi
	movq	-80(%rbp), %rdx
	movq	%rsi, -40(%rbp)
	movq	%rdx, -32(%rbp)
Ltmp972:
	.loc	24 627 38
	movq	%rsi, -24(%rbp)
	movq	%rdx, -16(%rbp)
Ltmp973:
	.loc	42 213 52
	leaq	-112(%rbp), %rdi
	callq	__ZN5alloc11collections5btree8navigate142_$LT$impl$u20$alloc..collections..btree..node..NodeRef$LT$BorrowType$C$K$C$V$C$alloc..collections..btree..node..marker..LeafOrInternal$GT$$GT$15first_leaf_edge17h0082fddd08d5f236E
	movq	-192(%rbp), %rax
	.loc	42 213 31 is_stmt 0
	movq	-112(%rbp), %rcx
	movq	%rcx, -136(%rbp)
	movq	-104(%rbp), %rcx
	movq	%rcx, -128(%rbp)
	movq	-96(%rbp), %rcx
	movq	%rcx, -120(%rbp)
	movq	$1, -144(%rbp)
	.loc	42 213 26
	movq	-144(%rbp), %rcx
	movq	%rcx, -176(%rbp)
	movq	-136(%rbp), %rcx
	movq	%rcx, -168(%rbp)
	movq	-128(%rbp), %rcx
	movq	%rcx, -160(%rbp)
	movq	-120(%rbp), %rcx
	movq	%rcx, -152(%rbp)
	.loc	42 213 13
	movq	-176(%rbp), %rcx
	movq	%rcx, (%rax)
	movq	-168(%rbp), %rcx
	movq	%rcx, 8(%rax)
	movq	-160(%rbp), %rcx
	movq	%rcx, 16(%rax)
	movq	-152(%rbp), %rcx
	movq	%rcx, 24(%rax)
Ltmp974:
	.loc	42 212 9 is_stmt 1
	jmp	LBB143_2
LBB143_4:
	.loc	42 216 21
	movq	$0, -184(%rbp)
	jmp	LBB143_8
LBB143_5:
	.loc	42 0 21 is_stmt 0
	movq	-192(%rbp), %rax
	.loc	42 215 9 is_stmt 1
	cmpq	$0, (%rax)
	jne	LBB143_7
	.loc	42 219 55
	callq	__ZN4core4hint21unreachable_unchecked17h149ecabeb9f798dcE
LBB143_7:
	.loc	42 0 55 is_stmt 0
	movq	-192(%rbp), %rax
	.loc	42 217 39 is_stmt 1
	addq	$8, %rax
	movq	%rax, -8(%rbp)
Ltmp975:
	.loc	42 217 49 is_stmt 0
	movq	%rax, -184(%rbp)
Ltmp976:
LBB143_8:
	.loc	42 221 6 is_stmt 1
	movq	-184(%rbp), %rax
	addq	$192, %rsp
	popq	%rbp
	retq
Ltmp977:
Lfunc_end143:
	.cfi_endproc

	.p2align	4, 0x90
__ZN5alloc11collections5btree8navigate39LazyLeafRange$LT$BorrowType$C$K$C$V$GT$4none17hd56b9d6eba42356eE:
Lfunc_begin144:
	.loc	42 133 0
	.cfi_startproc
	pushq	%rbp
	.cfi_def_cfa_offset 16
	.cfi_offset %rbp, -16
	movq	%rsp, %rbp
	.cfi_def_cfa_register %rbp
	subq	$64, %rsp
	movq	%rdi, %rax
Ltmp978:
	.loc	42 134 32 prologue_end
	movq	$2, -64(%rbp)
	.loc	42 134 44 is_stmt 0
	movq	$2, -32(%rbp)
	.loc	42 134 9
	movq	-64(%rbp), %rcx
	movq	%rcx, (%rdi)
	movq	-56(%rbp), %rcx
	movq	%rcx, 8(%rdi)
	movq	-48(%rbp), %rcx
	movq	%rcx, 16(%rdi)
	movq	-40(%rbp), %rcx
	movq	%rcx, 24(%rdi)
	movq	-32(%rbp), %rcx
	movq	%rcx, 32(%rdi)
	movq	-24(%rbp), %rcx
	movq	%rcx, 40(%rdi)
	movq	-16(%rbp), %rcx
	movq	%rcx, 48(%rdi)
	movq	-8(%rbp), %rcx
	movq	%rcx, 56(%rdi)
	.loc	42 135 6 is_stmt 1
	addq	$64, %rsp
	popq	%rbp
	retq
Ltmp979:
Lfunc_end144:
	.cfi_endproc

	.p2align	4, 0x90
__ZN5alloc11collections5btree8navigate75LazyLeafRange$LT$alloc..collections..btree..node..marker..Dying$C$K$C$V$GT$10take_front17h25f7be9dc3bef492E:
Lfunc_begin145:
	.loc	42 171 0
	.cfi_startproc
	pushq	%rbp
	.cfi_def_cfa_offset 16
	.cfi_offset %rbp, -16
	movq	%rsp, %rbp
	.cfi_def_cfa_register %rbp
	subq	$368, %rsp
	movq	%rdi, -360(%rbp)
	movq	%rdi, -352(%rbp)
	movq	%rsi, -48(%rbp)
Ltmp980:
	.loc	42 174 15 prologue_end
	movq	%rsi, -24(%rbp)
Ltmp981:
	.loc	8 1623 28
	movq	$2, -144(%rbp)
	.loc	8 1623 9 is_stmt 0
	leaq	-280(%rbp), %rdi
	leaq	-144(%rbp), %rdx
	callq	__ZN4core3mem7replace17hfa8daa46e0d9abeeE
Ltmp982:
	.loc	8 2407 15 is_stmt 1
	movl	$1, %eax
	xorl	%ecx, %ecx
	cmpq	$2, -280(%rbp)
	cmoveq	%rcx, %rax
	.loc	8 2407 9 is_stmt 0
	cmpq	$0, %rax
	jne	LBB145_2
	.loc	8 2409 21 is_stmt 1
	movq	$2, -312(%rbp)
	.loc	8 2409 44 is_stmt 0
	jmp	LBB145_3
LBB145_2:
	.loc	8 2408 18 is_stmt 1
	movq	-280(%rbp), %rax
	movq	%rax, -112(%rbp)
	movq	-272(%rbp), %rax
	movq	%rax, -104(%rbp)
	movq	-264(%rbp), %rax
	movq	%rax, -96(%rbp)
	movq	-256(%rbp), %rax
	movq	%rax, -88(%rbp)
Ltmp983:
	.loc	8 2408 46 is_stmt 0
	movq	-112(%rbp), %rax
	movq	%rax, -80(%rbp)
	movq	-104(%rbp), %rax
	movq	%rax, -72(%rbp)
	movq	-96(%rbp), %rax
	movq	%rax, -64(%rbp)
	movq	-88(%rbp), %rax
	movq	%rax, -56(%rbp)
	.loc	8 2408 24
	movq	-80(%rbp), %rax
	movq	%rax, -312(%rbp)
	movq	-72(%rbp), %rax
	movq	%rax, -304(%rbp)
	movq	-64(%rbp), %rax
	movq	%rax, -296(%rbp)
	movq	-56(%rbp), %rax
	movq	%rax, -288(%rbp)
Ltmp984:
LBB145_3:
	.loc	42 174 15 is_stmt 1
	xorl	%eax, %eax
	movl	$1, %ecx
	cmpq	$2, -312(%rbp)
	cmoveq	%rcx, %rax
	cmpq	$0, %rax
	jne	LBB145_5
	movq	-312(%rbp), %rax
	movq	%rax, -248(%rbp)
	movq	-304(%rbp), %rax
	movq	%rax, -240(%rbp)
	movq	-296(%rbp), %rax
	movq	%rax, -232(%rbp)
	movq	-288(%rbp), %rax
	movq	%rax, -224(%rbp)
Ltmp985:
	.loc	42 174 15 is_stmt 0
	movq	-248(%rbp), %rax
	movq	%rax, -344(%rbp)
	movq	-240(%rbp), %rax
	movq	%rax, -336(%rbp)
	movq	-232(%rbp), %rax
	movq	%rax, -328(%rbp)
	movq	-224(%rbp), %rax
	movq	%rax, -320(%rbp)
Ltmp986:
	.loc	42 174 9
	cmpq	$0, -344(%rbp)
	je	LBB145_7
	jmp	LBB145_8
LBB145_5:
	.loc	42 0 9
	movq	-360(%rbp), %rax
Ltmp987:
	.loc	8 2420 21 is_stmt 1
	movq	$0, 8(%rax)
Ltmp988:
LBB145_6:
	.loc	8 0 21 is_stmt 0
	movq	-352(%rbp), %rax
	.loc	42 178 6 is_stmt 1
	addq	$368, %rsp
	popq	%rbp
	retq
LBB145_7:
	.loc	42 175 34
	movq	-336(%rbp), %rsi
	movq	-328(%rbp), %rdx
	movq	%rsi, -16(%rbp)
	movq	%rdx, -8(%rbp)
Ltmp989:
	.loc	42 175 48 is_stmt 0
	leaq	-216(%rbp), %rdi
	callq	__ZN5alloc11collections5btree8navigate142_$LT$impl$u20$alloc..collections..btree..node..NodeRef$LT$BorrowType$C$K$C$V$C$alloc..collections..btree..node..marker..LeafOrInternal$GT$$GT$15first_leaf_edge17h0082fddd08d5f236E
	movq	-360(%rbp), %rax
	.loc	42 175 43
	movq	-216(%rbp), %rcx
	movq	%rcx, (%rax)
	movq	-208(%rbp), %rcx
	movq	%rcx, 8(%rax)
	movq	-200(%rbp), %rcx
	movq	%rcx, 16(%rax)
Ltmp990:
	.loc	42 175 70
	jmp	LBB145_9
LBB145_8:
	.loc	42 0 70
	movq	-360(%rbp), %rax
	.loc	42 176 34 is_stmt 1
	movq	-336(%rbp), %rcx
	movq	%rcx, -192(%rbp)
	movq	-328(%rbp), %rcx
	movq	%rcx, -184(%rbp)
	movq	-320(%rbp), %rcx
	movq	%rcx, -176(%rbp)
Ltmp991:
	.loc	42 176 48 is_stmt 0
	movq	-192(%rbp), %rcx
	movq	%rcx, -168(%rbp)
	movq	-184(%rbp), %rcx
	movq	%rcx, -160(%rbp)
	movq	-176(%rbp), %rcx
	movq	%rcx, -152(%rbp)
	.loc	42 176 43
	movq	-168(%rbp), %rcx
	movq	%rcx, (%rax)
	movq	-160(%rbp), %rcx
	movq	%rcx, 8(%rax)
	movq	-152(%rbp), %rcx
	movq	%rcx, 16(%rax)
Ltmp992:
LBB145_9:
	.loc	42 178 6 is_stmt 1
	jmp	LBB145_6
Ltmp993:
Lfunc_end145:
	.cfi_endproc

	.p2align	4, 0x90
__ZN5alloc11collections5btree8navigate75LazyLeafRange$LT$alloc..collections..btree..node..marker..Dying$C$K$C$V$GT$16deallocating_end17h4cdebddb7989b41fE:
Lfunc_begin146:
	.loc	42 201 0
	.cfi_startproc
	.cfi_personality 155, _rust_eh_personality
	.cfi_lsda 16, Lexception27
	pushq	%rbp
	.cfi_def_cfa_offset 16
	.cfi_offset %rbp, -16
	movq	%rsp, %rbp
	.cfi_def_cfa_register %rbp
	subq	$112, %rsp
	movq	%rdi, %rsi
	movq	%rsi, -32(%rbp)
Ltmp999:
	.loc	42 202 30 prologue_end
	movb	$1, -33(%rbp)
Ltmp994:
	leaq	-112(%rbp), %rdi
	callq	__ZN5alloc11collections5btree8navigate75LazyLeafRange$LT$alloc..collections..btree..node..marker..Dying$C$K$C$V$GT$10take_front17h25f7be9dc3bef492E
Ltmp995:
	jmp	LBB146_3
Ltmp1000:
LBB146_1:
	.loc	42 205 5
	testb	$1, -33(%rbp)
	jne	LBB146_8
	jmp	LBB146_7
LBB146_2:
Ltmp998:
	.loc	42 0 5 is_stmt 0
	movq	%rax, %rcx
	movl	%edx, %eax
	movq	%rcx, -16(%rbp)
	movl	%eax, -8(%rbp)
	jmp	LBB146_1
LBB146_3:
Ltmp1001:
	.loc	42 202 16 is_stmt 1
	movq	-104(%rbp), %rdx
	movl	$1, %eax
	xorl	%ecx, %ecx
	cmpq	$0, %rdx
	cmoveq	%rcx, %rax
	cmpq	$1, %rax
	jne	LBB146_5
	.loc	42 202 21 is_stmt 0
	movq	-96(%rbp), %rax
	movq	%rax, -72(%rbp)
	movq	-112(%rbp), %rax
	movq	-104(%rbp), %rcx
	movq	%rcx, -80(%rbp)
	movq	%rax, -88(%rbp)
	.loc	42 203 13 is_stmt 1
	movq	-72(%rbp), %rax
	movq	%rax, -48(%rbp)
	movq	-88(%rbp), %rax
	movq	-80(%rbp), %rcx
	movq	%rcx, -56(%rbp)
	movq	%rax, -64(%rbp)
	.loc	42 203 36 is_stmt 0
	movb	$0, -33(%rbp)
Ltmp996:
	leaq	-64(%rbp), %rdi
	.loc	42 203 13
	callq	__ZN5alloc11collections5btree8navigate263_$LT$impl$u20$alloc..collections..btree..node..Handle$LT$alloc..collections..btree..node..NodeRef$LT$alloc..collections..btree..node..marker..Dying$C$K$C$V$C$alloc..collections..btree..node..marker..Leaf$GT$$C$alloc..collections..btree..node..marker..Edge$GT$$GT$16deallocating_end17hd45ed0dd2195ed25E
Ltmp997:
	jmp	LBB146_6
Ltmp1002:
LBB146_5:
	.loc	42 205 5 is_stmt 1
	testb	$1, -33(%rbp)
	jne	LBB146_10
	jmp	LBB146_9
LBB146_6:
	.loc	42 202 9
	jmp	LBB146_5
LBB146_7:
	.loc	42 201 5
	movq	-16(%rbp), %rdi
	callq	__Unwind_Resume
LBB146_8:
	.loc	42 205 5
	jmp	LBB146_7
LBB146_9:
	.loc	42 205 6 is_stmt 0
	addq	$112, %rsp
	popq	%rbp
	retq
LBB146_10:
	.loc	42 205 5
	jmp	LBB146_9
Ltmp1003:
Lfunc_end146:
	.cfi_endproc
	.section	__TEXT,__gcc_except_tab
	.p2align	2
GCC_except_table146:
Lexception27:
	.byte	255
	.byte	255
	.byte	1
	.uleb128 Lcst_end27-Lcst_begin27
Lcst_begin27:
	.uleb128 Ltmp994-Lfunc_begin146
	.uleb128 Ltmp997-Ltmp994
	.uleb128 Ltmp998-Lfunc_begin146
	.byte	0
	.uleb128 Ltmp997-Lfunc_begin146
	.uleb128 Lfunc_end146-Ltmp997
	.byte	0
	.byte	0
Lcst_end27:
	.p2align	2

	.section	__TEXT,__text,regular,pure_instructions
	.p2align	4, 0x90
__ZN5alloc11collections5btree8navigate75LazyLeafRange$LT$alloc..collections..btree..node..marker..Dying$C$K$C$V$GT$27deallocating_next_unchecked17hf612d89815ac5594E:
Lfunc_begin147:
	.loc	42 181 0 is_stmt 1
	.cfi_startproc
	.cfi_personality 155, _rust_eh_personality
	.cfi_lsda 16, Lexception28
	pushq	%rbp
	.cfi_def_cfa_offset 16
	.cfi_offset %rbp, -16
	movq	%rsp, %rbp
	.cfi_def_cfa_register %rbp
	subq	$96, %rsp
	movq	%rsi, -88(%rbp)
	movq	%rdi, %rax
	movq	-88(%rbp), %rdi
	movq	%rax, -80(%rbp)
	movq	%rax, -72(%rbp)
	movq	%rdi, -40(%rbp)
Ltmp1011:
	.loc	42 185 9 prologue_end
	movb	$1, -41(%rbp)
Ltmp1004:
	.loc	42 186 21
	callq	__ZN5alloc11collections5btree8navigate39LazyLeafRange$LT$BorrowType$C$K$C$V$GT$10init_front17hd3648b89a526a7aeE
Ltmp1005:
	movq	%rax, -64(%rbp)
	jmp	LBB147_3
LBB147_1:
	.loc	42 188 5
	testb	$1, -41(%rbp)
	jne	LBB147_9
	jmp	LBB147_8
LBB147_2:
Ltmp1010:
	.loc	42 0 5 is_stmt 0
	movq	%rax, %rcx
	movl	%edx, %eax
	movq	%rcx, -24(%rbp)
	movl	%eax, -16(%rbp)
	jmp	LBB147_1
LBB147_3:
	movq	-64(%rbp), %rax
	.loc	42 186 21 is_stmt 1
	movq	%rax, -56(%rbp)
Ltmp1012:
	.loc	8 821 15
	movq	-56(%rbp), %rdx
	movl	$1, %eax
	xorl	%ecx, %ecx
	cmpq	$0, %rdx
	cmoveq	%rcx, %rax
	.loc	8 821 9 is_stmt 0
	cmpq	$0, %rax
	jne	LBB147_5
Ltmp1008:
	.loc	8 823 21 is_stmt 1
	leaq	l___unnamed_12(%rip), %rdi
	leaq	l___unnamed_14(%rip), %rdx
	movl	$43, %esi
	callq	__ZN4core9panicking5panic17hc1bc45270cf64b03E
Ltmp1009:
	jmp	LBB147_7
LBB147_5:
	.loc	8 0 21 is_stmt 0
	movq	-80(%rbp), %rdi
	.loc	8 822 18 is_stmt 1
	movq	-56(%rbp), %rsi
	movq	%rsi, -8(%rbp)
Ltmp1013:
	.loc	42 187 52
	movb	$0, -41(%rbp)
Ltmp1006:
	.loc	42 187 18 is_stmt 0
	callq	__ZN5alloc11collections5btree8navigate263_$LT$impl$u20$alloc..collections..btree..node..Handle$LT$alloc..collections..btree..node..NodeRef$LT$alloc..collections..btree..node..marker..Dying$C$K$C$V$C$alloc..collections..btree..node..marker..Leaf$GT$$C$alloc..collections..btree..node..marker..Edge$GT$$GT$27deallocating_next_unchecked17h9375da406fba6569E
Ltmp1007:
	jmp	LBB147_6
Ltmp1014:
LBB147_6:
	.loc	42 0 18
	movq	-72(%rbp), %rax
	.loc	42 188 6 is_stmt 1
	addq	$96, %rsp
	popq	%rbp
	retq
LBB147_7:
	.loc	42 0 6 is_stmt 0
	ud2
LBB147_8:
	.loc	42 181 5 is_stmt 1
	movq	-24(%rbp), %rdi
	callq	__Unwind_Resume
LBB147_9:
	.loc	42 188 5
	jmp	LBB147_8
Ltmp1015:
Lfunc_end147:
	.cfi_endproc
	.section	__TEXT,__gcc_except_tab
	.p2align	2
GCC_except_table147:
Lexception28:
	.byte	255
	.byte	255
	.byte	1
	.uleb128 Lcst_end28-Lcst_begin28
Lcst_begin28:
	.uleb128 Ltmp1004-Lfunc_begin147
	.uleb128 Ltmp1007-Ltmp1004
	.uleb128 Ltmp1010-Lfunc_begin147
	.byte	0
	.uleb128 Ltmp1007-Lfunc_begin147
	.uleb128 Lfunc_end147-Ltmp1007
	.byte	0
	.byte	0
Lcst_end28:
	.p2align	2

	.section	__TEXT,__text,regular,pure_instructions
	.p2align	4, 0x90
__ZN5alloc5alloc8box_free17h427734722944d366E:
Lfunc_begin148:
	.loc	37 340 0
	.cfi_startproc
	.cfi_personality 155, _rust_eh_personality
	.cfi_lsda 16, Lexception29
	pushq	%rbp
	.cfi_def_cfa_offset 16
	.cfi_offset %rbp, -16
	movq	%rsp, %rbp
	.cfi_def_cfa_register %rbp
	subq	$256, %rsp
	movq	%rdi, -240(%rbp)
Ltmp1019:
	.loc	37 345 32 prologue_end
	leaq	-240(%rbp), %rax
	movq	%rax, -184(%rbp)
Ltmp1020:
	.loc	10 117 18
	leaq	-240(%rbp), %rax
	movq	%rax, -176(%rbp)
Ltmp1021:
	.loc	9 376 20
	movq	-240(%rbp), %rax
	movq	%rax, -168(%rbp)
Ltmp1022:
	.loc	37 345 20
	movq	$24, -160(%rbp)
	movq	-160(%rbp), %rcx
	movq	%rcx, -256(%rbp)
	movq	%rcx, -152(%rbp)
Ltmp1023:
	.loc	37 346 38
	leaq	-240(%rbp), %rax
	movq	%rax, -144(%rbp)
Ltmp1024:
	.loc	10 117 18
	leaq	-240(%rbp), %rax
	movq	%rax, -136(%rbp)
Ltmp1025:
	.loc	9 376 20
	movq	-240(%rbp), %rax
	movq	%rax, -128(%rbp)
Ltmp1026:
	.loc	37 346 21
	movq	$8, -120(%rbp)
	movq	-120(%rbp), %rax
	movq	%rax, -112(%rbp)
Ltmp1027:
	.loc	37 347 56
	movq	%rcx, -104(%rbp)
	.loc	37 347 62 is_stmt 0
	movq	%rax, -96(%rbp)
Ltmp1028:
	.loc	30 120 65 is_stmt 1
	movq	%rax, -88(%rbp)
Ltmp1029:
	.loc	31 89 18
	movq	%rax, -80(%rbp)
	movq	-80(%rbp), %rax
	movq	%rax, -248(%rbp)
Ltmp1030:
	.loc	31 0 18 is_stmt 0
	movq	-248(%rbp), %rax
	movq	-256(%rbp), %rcx
	.loc	30 120 18 is_stmt 1
	movq	%rcx, -224(%rbp)
	movq	%rax, -216(%rbp)
Ltmp1031:
	.loc	37 348 37
	movq	-240(%rbp), %rax
	movq	%rax, -72(%rbp)
Ltmp1032:
	.loc	10 137 22
	movq	%rax, -64(%rbp)
Ltmp1033:
	.loc	9 450 41
	movq	%rax, -56(%rbp)
	movq	%rax, -48(%rbp)
Ltmp1034:
	.loc	9 201 13
	movq	%rax, -192(%rbp)
Ltmp1035:
	.loc	10 191 18
	movq	-192(%rbp), %rax
	.loc	10 191 9 is_stmt 0
	movq	%rax, -200(%rbp)
Ltmp1036:
	.loc	9 768 41 is_stmt 1
	movq	-200(%rbp), %rax
	movq	%rax, -40(%rbp)
Ltmp1037:
	.loc	10 104 9
	movq	%rax, -32(%rbp)
Ltmp1038:
	.loc	9 326 9
	movq	%rax, -24(%rbp)
Ltmp1039:
	.loc	9 201 13
	movq	%rax, -208(%rbp)
Ltmp1040:
	.loc	37 348 50
	movq	-224(%rbp), %rdx
	movq	-216(%rbp), %rcx
	.loc	37 348 9 is_stmt 0
	movq	-208(%rbp), %rsi
Ltmp1016:
	leaq	-232(%rbp), %rdi
	callq	__ZN63_$LT$alloc..alloc..Global$u20$as$u20$core..alloc..Allocator$GT$10deallocate17hc0b6b574e8cdac8bE
Ltmp1017:
	jmp	LBB148_4
Ltmp1041:
LBB148_2:
	.loc	37 340 1 is_stmt 1
	movq	-16(%rbp), %rdi
	callq	__Unwind_Resume
LBB148_3:
Ltmp1018:
	.loc	37 0 1 is_stmt 0
	movq	%rax, %rcx
	movl	%edx, %eax
	movq	%rcx, -16(%rbp)
	movl	%eax, -8(%rbp)
	jmp	LBB148_2
LBB148_4:
	.loc	37 350 2 is_stmt 1
	addq	$256, %rsp
	popq	%rbp
	retq
Ltmp1042:
Lfunc_end148:
	.cfi_endproc
	.section	__TEXT,__gcc_except_tab
	.p2align	2
GCC_except_table148:
Lexception29:
	.byte	255
	.byte	255
	.byte	1
	.uleb128 Lcst_end29-Lcst_begin29
Lcst_begin29:
	.uleb128 Ltmp1016-Lfunc_begin148
	.uleb128 Ltmp1017-Ltmp1016
	.uleb128 Ltmp1018-Lfunc_begin148
	.byte	0
	.uleb128 Ltmp1017-Lfunc_begin148
	.uleb128 Lfunc_end148-Ltmp1017
	.byte	0
	.byte	0
Lcst_end29:
	.p2align	2

	.section	__TEXT,__text,regular,pure_instructions
	.p2align	4, 0x90
__ZN5alloc5alloc8box_free17h6238e027f3daf35fE:
Lfunc_begin149:
	.loc	37 340 0
	.cfi_startproc
	.cfi_personality 155, _rust_eh_personality
	.cfi_lsda 16, Lexception30
	pushq	%rbp
	.cfi_def_cfa_offset 16
	.cfi_offset %rbp, -16
	movq	%rsp, %rbp
	.cfi_def_cfa_register %rbp
	subq	$304, %rsp
	movq	%rdi, -288(%rbp)
	movq	%rsi, -280(%rbp)
Ltmp1046:
	.loc	37 345 32 prologue_end
	leaq	-288(%rbp), %rax
	movq	%rax, -224(%rbp)
Ltmp1047:
	.loc	10 117 18
	leaq	-288(%rbp), %rax
	movq	%rax, -216(%rbp)
Ltmp1048:
	.loc	9 376 20
	movq	-288(%rbp), %rcx
	movq	-280(%rbp), %rax
	movq	%rcx, -208(%rbp)
	movq	%rax, -200(%rbp)
Ltmp1049:
	.loc	37 345 20
	shlq	$0, %rax
	movq	%rax, -192(%rbp)
	movq	-192(%rbp), %rcx
	movq	%rcx, -304(%rbp)
	movq	%rcx, -184(%rbp)
Ltmp1050:
	.loc	37 346 38
	leaq	-288(%rbp), %rax
	movq	%rax, -176(%rbp)
Ltmp1051:
	.loc	10 117 18
	leaq	-288(%rbp), %rax
	movq	%rax, -168(%rbp)
Ltmp1052:
	.loc	9 376 20
	movq	-288(%rbp), %rdx
	movq	-280(%rbp), %rax
	movq	%rdx, -160(%rbp)
	movq	%rax, -152(%rbp)
Ltmp1053:
	.loc	37 346 21
	movq	$1, -144(%rbp)
	movq	-144(%rbp), %rax
	movq	%rax, -136(%rbp)
Ltmp1054:
	.loc	37 347 56
	movq	%rcx, -128(%rbp)
	.loc	37 347 62 is_stmt 0
	movq	%rax, -120(%rbp)
Ltmp1055:
	.loc	30 120 65 is_stmt 1
	movq	%rax, -112(%rbp)
Ltmp1056:
	.loc	31 89 18
	movq	%rax, -104(%rbp)
	movq	-104(%rbp), %rax
	movq	%rax, -296(%rbp)
Ltmp1057:
	.loc	31 0 18 is_stmt 0
	movq	-296(%rbp), %rax
	movq	-304(%rbp), %rcx
	.loc	30 120 18 is_stmt 1
	movq	%rcx, -264(%rbp)
	movq	%rax, -256(%rbp)
Ltmp1058:
	.loc	37 348 37
	movq	-288(%rbp), %rax
	movq	-280(%rbp), %rcx
	movq	%rax, -96(%rbp)
	movq	%rcx, -88(%rbp)
Ltmp1059:
	.loc	10 137 22
	movq	%rax, -80(%rbp)
	movq	%rcx, -72(%rbp)
Ltmp1060:
	.loc	9 450 41
	movq	%rax, -64(%rbp)
	movq	%rcx, -56(%rbp)
	movq	%rax, -48(%rbp)
Ltmp1061:
	.loc	9 201 13
	movq	%rax, -232(%rbp)
Ltmp1062:
	.loc	10 191 18
	movq	-232(%rbp), %rax
	.loc	10 191 9 is_stmt 0
	movq	%rax, -240(%rbp)
Ltmp1063:
	.loc	9 768 41 is_stmt 1
	movq	-240(%rbp), %rax
	movq	%rax, -40(%rbp)
Ltmp1064:
	.loc	10 104 9
	movq	%rax, -32(%rbp)
Ltmp1065:
	.loc	9 326 9
	movq	%rax, -24(%rbp)
Ltmp1066:
	.loc	9 201 13
	movq	%rax, -248(%rbp)
Ltmp1067:
	.loc	37 348 50
	movq	-264(%rbp), %rdx
	movq	-256(%rbp), %rcx
	.loc	37 348 9 is_stmt 0
	movq	-248(%rbp), %rsi
Ltmp1043:
	leaq	-272(%rbp), %rdi
	callq	__ZN63_$LT$alloc..alloc..Global$u20$as$u20$core..alloc..Allocator$GT$10deallocate17hc0b6b574e8cdac8bE
Ltmp1044:
	jmp	LBB149_4
Ltmp1068:
LBB149_2:
	.loc	37 340 1 is_stmt 1
	movq	-16(%rbp), %rdi
	callq	__Unwind_Resume
LBB149_3:
Ltmp1045:
	.loc	37 0 1 is_stmt 0
	movq	%rax, %rcx
	movl	%edx, %eax
	movq	%rcx, -16(%rbp)
	movl	%eax, -8(%rbp)
	jmp	LBB149_2
LBB149_4:
	.loc	37 350 2 is_stmt 1
	addq	$304, %rsp
	popq	%rbp
	retq
Ltmp1069:
Lfunc_end149:
	.cfi_endproc
	.section	__TEXT,__gcc_except_tab
	.p2align	2
GCC_except_table149:
Lexception30:
	.byte	255
	.byte	255
	.byte	1
	.uleb128 Lcst_end30-Lcst_begin30
Lcst_begin30:
	.uleb128 Ltmp1043-Lfunc_begin149
	.uleb128 Ltmp1044-Ltmp1043
	.uleb128 Ltmp1045-Lfunc_begin149
	.byte	0
	.uleb128 Ltmp1044-Lfunc_begin149
	.uleb128 Lfunc_end149-Ltmp1044
	.byte	0
	.byte	0
Lcst_end30:
	.p2align	2

	.section	__TEXT,__text,regular,pure_instructions
	.p2align	4, 0x90
__ZN5alloc5alloc8box_free17h677a55d62422c191E:
Lfunc_begin150:
	.loc	37 340 0
	.cfi_startproc
	.cfi_personality 155, _rust_eh_personality
	.cfi_lsda 16, Lexception31
	pushq	%rbp
	.cfi_def_cfa_offset 16
	.cfi_offset %rbp, -16
	movq	%rsp, %rbp
	.cfi_def_cfa_register %rbp
	subq	$304, %rsp
	movq	%rdi, -288(%rbp)
	movq	%rsi, -280(%rbp)
Ltmp1073:
	.loc	37 345 32 prologue_end
	leaq	-288(%rbp), %rax
	movq	%rax, -224(%rbp)
Ltmp1074:
	.loc	10 117 18
	leaq	-288(%rbp), %rax
	movq	%rax, -216(%rbp)
Ltmp1075:
	.loc	9 376 20
	movq	-288(%rbp), %rcx
	movq	-280(%rbp), %rax
	movq	%rcx, -208(%rbp)
	movq	%rax, -200(%rbp)
Ltmp1076:
	.loc	37 345 20
	movq	8(%rax), %rax
	movq	%rax, -192(%rbp)
	movq	-192(%rbp), %rcx
	movq	%rcx, -304(%rbp)
	movq	%rcx, -184(%rbp)
Ltmp1077:
	.loc	37 346 38
	leaq	-288(%rbp), %rax
	movq	%rax, -176(%rbp)
Ltmp1078:
	.loc	10 117 18
	leaq	-288(%rbp), %rax
	movq	%rax, -168(%rbp)
Ltmp1079:
	.loc	9 376 20
	movq	-288(%rbp), %rdx
	movq	-280(%rbp), %rax
	movq	%rdx, -160(%rbp)
	movq	%rax, -152(%rbp)
Ltmp1080:
	.loc	37 346 21
	movq	16(%rax), %rax
	movq	%rax, -144(%rbp)
	movq	-144(%rbp), %rax
	movq	%rax, -136(%rbp)
Ltmp1081:
	.loc	37 347 56
	movq	%rcx, -128(%rbp)
	.loc	37 347 62 is_stmt 0
	movq	%rax, -120(%rbp)
Ltmp1082:
	.loc	30 120 65 is_stmt 1
	movq	%rax, -112(%rbp)
Ltmp1083:
	.loc	31 89 18
	movq	%rax, -104(%rbp)
	movq	-104(%rbp), %rax
	movq	%rax, -296(%rbp)
Ltmp1084:
	.loc	31 0 18 is_stmt 0
	movq	-296(%rbp), %rax
	movq	-304(%rbp), %rcx
	.loc	30 120 18 is_stmt 1
	movq	%rcx, -264(%rbp)
	movq	%rax, -256(%rbp)
Ltmp1085:
	.loc	37 348 37
	movq	-288(%rbp), %rax
	movq	-280(%rbp), %rcx
	movq	%rax, -96(%rbp)
	movq	%rcx, -88(%rbp)
Ltmp1086:
	.loc	10 137 22
	movq	%rax, -80(%rbp)
	movq	%rcx, -72(%rbp)
Ltmp1087:
	.loc	9 450 41
	movq	%rax, -64(%rbp)
	movq	%rcx, -56(%rbp)
	movq	%rax, -48(%rbp)
Ltmp1088:
	.loc	9 201 13
	movq	%rax, -232(%rbp)
Ltmp1089:
	.loc	10 191 18
	movq	-232(%rbp), %rax
	.loc	10 191 9 is_stmt 0
	movq	%rax, -240(%rbp)
Ltmp1090:
	.loc	9 768 41 is_stmt 1
	movq	-240(%rbp), %rax
	movq	%rax, -40(%rbp)
Ltmp1091:
	.loc	10 104 9
	movq	%rax, -32(%rbp)
Ltmp1092:
	.loc	9 326 9
	movq	%rax, -24(%rbp)
Ltmp1093:
	.loc	9 201 13
	movq	%rax, -248(%rbp)
Ltmp1094:
	.loc	37 348 50
	movq	-264(%rbp), %rdx
	movq	-256(%rbp), %rcx
	.loc	37 348 9 is_stmt 0
	movq	-248(%rbp), %rsi
Ltmp1070:
	leaq	-272(%rbp), %rdi
	callq	__ZN63_$LT$alloc..alloc..Global$u20$as$u20$core..alloc..Allocator$GT$10deallocate17hc0b6b574e8cdac8bE
Ltmp1071:
	jmp	LBB150_4
Ltmp1095:
LBB150_2:
	.loc	37 340 1 is_stmt 1
	movq	-16(%rbp), %rdi
	callq	__Unwind_Resume
LBB150_3:
Ltmp1072:
	.loc	37 0 1 is_stmt 0
	movq	%rax, %rcx
	movl	%edx, %eax
	movq	%rcx, -16(%rbp)
	movl	%eax, -8(%rbp)
	jmp	LBB150_2
LBB150_4:
	.loc	37 350 2 is_stmt 1
	addq	$304, %rsp
	popq	%rbp
	retq
Ltmp1096:
Lfunc_end150:
	.cfi_endproc
	.section	__TEXT,__gcc_except_tab
	.p2align	2
GCC_except_table150:
Lexception31:
	.byte	255
	.byte	255
	.byte	1
	.uleb128 Lcst_end31-Lcst_begin31
Lcst_begin31:
	.uleb128 Ltmp1070-Lfunc_begin150
	.uleb128 Ltmp1071-Ltmp1070
	.uleb128 Ltmp1072-Lfunc_begin150
	.byte	0
	.uleb128 Ltmp1071-Lfunc_begin150
	.uleb128 Lfunc_end150-Ltmp1071
	.byte	0
	.byte	0
Lcst_end31:
	.p2align	2

	.section	__TEXT,__text,regular,pure_instructions
	.p2align	4, 0x90
__ZN5alloc5alloc8box_free17h9caa2a2ec59cd00dE:
Lfunc_begin151:
	.loc	37 340 0
	.cfi_startproc
	.cfi_personality 155, _rust_eh_personality
	.cfi_lsda 16, Lexception32
	pushq	%rbp
	.cfi_def_cfa_offset 16
	.cfi_offset %rbp, -16
	movq	%rsp, %rbp
	.cfi_def_cfa_register %rbp
	subq	$304, %rsp
	movq	%rdi, -288(%rbp)
	movq	%rsi, -280(%rbp)
Ltmp1100:
	.loc	37 345 32 prologue_end
	leaq	-288(%rbp), %rax
	movq	%rax, -224(%rbp)
Ltmp1101:
	.loc	10 117 18
	leaq	-288(%rbp), %rax
	movq	%rax, -216(%rbp)
Ltmp1102:
	.loc	9 376 20
	movq	-288(%rbp), %rcx
	movq	-280(%rbp), %rax
	movq	%rcx, -208(%rbp)
	movq	%rax, -200(%rbp)
Ltmp1103:
	.loc	37 345 20
	shlq	$2, %rax
	movq	%rax, -192(%rbp)
	movq	-192(%rbp), %rcx
	movq	%rcx, -304(%rbp)
	movq	%rcx, -184(%rbp)
Ltmp1104:
	.loc	37 346 38
	leaq	-288(%rbp), %rax
	movq	%rax, -176(%rbp)
Ltmp1105:
	.loc	10 117 18
	leaq	-288(%rbp), %rax
	movq	%rax, -168(%rbp)
Ltmp1106:
	.loc	9 376 20
	movq	-288(%rbp), %rdx
	movq	-280(%rbp), %rax
	movq	%rdx, -160(%rbp)
	movq	%rax, -152(%rbp)
Ltmp1107:
	.loc	37 346 21
	movq	$4, -144(%rbp)
	movq	-144(%rbp), %rax
	movq	%rax, -136(%rbp)
Ltmp1108:
	.loc	37 347 56
	movq	%rcx, -128(%rbp)
	.loc	37 347 62 is_stmt 0
	movq	%rax, -120(%rbp)
Ltmp1109:
	.loc	30 120 65 is_stmt 1
	movq	%rax, -112(%rbp)
Ltmp1110:
	.loc	31 89 18
	movq	%rax, -104(%rbp)
	movq	-104(%rbp), %rax
	movq	%rax, -296(%rbp)
Ltmp1111:
	.loc	31 0 18 is_stmt 0
	movq	-296(%rbp), %rax
	movq	-304(%rbp), %rcx
	.loc	30 120 18 is_stmt 1
	movq	%rcx, -264(%rbp)
	movq	%rax, -256(%rbp)
Ltmp1112:
	.loc	37 348 37
	movq	-288(%rbp), %rax
	movq	-280(%rbp), %rcx
	movq	%rax, -96(%rbp)
	movq	%rcx, -88(%rbp)
Ltmp1113:
	.loc	10 137 22
	movq	%rax, -80(%rbp)
	movq	%rcx, -72(%rbp)
Ltmp1114:
	.loc	9 450 41
	movq	%rax, -64(%rbp)
	movq	%rcx, -56(%rbp)
	movq	%rax, -48(%rbp)
Ltmp1115:
	.loc	9 201 13
	movq	%rax, -232(%rbp)
Ltmp1116:
	.loc	10 191 18
	movq	-232(%rbp), %rax
	.loc	10 191 9 is_stmt 0
	movq	%rax, -240(%rbp)
Ltmp1117:
	.loc	9 768 41 is_stmt 1
	movq	-240(%rbp), %rax
	movq	%rax, -40(%rbp)
Ltmp1118:
	.loc	10 104 9
	movq	%rax, -32(%rbp)
Ltmp1119:
	.loc	9 326 9
	movq	%rax, -24(%rbp)
Ltmp1120:
	.loc	9 201 13
	movq	%rax, -248(%rbp)
Ltmp1121:
	.loc	37 348 50
	movq	-264(%rbp), %rdx
	movq	-256(%rbp), %rcx
	.loc	37 348 9 is_stmt 0
	movq	-248(%rbp), %rsi
Ltmp1097:
	leaq	-272(%rbp), %rdi
	callq	__ZN63_$LT$alloc..alloc..Global$u20$as$u20$core..alloc..Allocator$GT$10deallocate17hc0b6b574e8cdac8bE
Ltmp1098:
	jmp	LBB151_4
Ltmp1122:
LBB151_2:
	.loc	37 340 1 is_stmt 1
	movq	-16(%rbp), %rdi
	callq	__Unwind_Resume
LBB151_3:
Ltmp1099:
	.loc	37 0 1 is_stmt 0
	movq	%rax, %rcx
	movl	%edx, %eax
	movq	%rcx, -16(%rbp)
	movl	%eax, -8(%rbp)
	jmp	LBB151_2
LBB151_4:
	.loc	37 350 2 is_stmt 1
	addq	$304, %rsp
	popq	%rbp
	retq
Ltmp1123:
Lfunc_end151:
	.cfi_endproc
	.section	__TEXT,__gcc_except_tab
	.p2align	2
GCC_except_table151:
Lexception32:
	.byte	255
	.byte	255
	.byte	1
	.uleb128 Lcst_end32-Lcst_begin32
Lcst_begin32:
	.uleb128 Ltmp1097-Lfunc_begin151
	.uleb128 Ltmp1098-Ltmp1097
	.uleb128 Ltmp1099-Lfunc_begin151
	.byte	0
	.uleb128 Ltmp1098-Lfunc_begin151
	.uleb128 Lfunc_end151-Ltmp1098
	.byte	0
	.byte	0
Lcst_end32:
	.p2align	2

	.section	__TEXT,__text,regular,pure_instructions
	.p2align	4, 0x90
__ZN5alloc5alloc8box_free17hb63098977a0c5347E:
Lfunc_begin152:
	.loc	37 340 0
	.cfi_startproc
	.cfi_personality 155, _rust_eh_personality
	.cfi_lsda 16, Lexception33
	pushq	%rbp
	.cfi_def_cfa_offset 16
	.cfi_offset %rbp, -16
	movq	%rsp, %rbp
	.cfi_def_cfa_register %rbp
	subq	$304, %rsp
	movq	%rdi, -288(%rbp)
	movq	%rsi, -280(%rbp)
Ltmp1127:
	.loc	37 345 32 prologue_end
	leaq	-288(%rbp), %rax
	movq	%rax, -224(%rbp)
Ltmp1128:
	.loc	10 117 18
	leaq	-288(%rbp), %rax
	movq	%rax, -216(%rbp)
Ltmp1129:
	.loc	9 376 20
	movq	-288(%rbp), %rcx
	movq	-280(%rbp), %rax
	movq	%rcx, -208(%rbp)
	movq	%rax, -200(%rbp)
Ltmp1130:
	.loc	37 345 20
	movq	8(%rax), %rax
	movq	%rax, -192(%rbp)
	movq	-192(%rbp), %rcx
	movq	%rcx, -304(%rbp)
	movq	%rcx, -184(%rbp)
Ltmp1131:
	.loc	37 346 38
	leaq	-288(%rbp), %rax
	movq	%rax, -176(%rbp)
Ltmp1132:
	.loc	10 117 18
	leaq	-288(%rbp), %rax
	movq	%rax, -168(%rbp)
Ltmp1133:
	.loc	9 376 20
	movq	-288(%rbp), %rdx
	movq	-280(%rbp), %rax
	movq	%rdx, -160(%rbp)
	movq	%rax, -152(%rbp)
Ltmp1134:
	.loc	37 346 21
	movq	16(%rax), %rax
	movq	%rax, -144(%rbp)
	movq	-144(%rbp), %rax
	movq	%rax, -136(%rbp)
Ltmp1135:
	.loc	37 347 56
	movq	%rcx, -128(%rbp)
	.loc	37 347 62 is_stmt 0
	movq	%rax, -120(%rbp)
Ltmp1136:
	.loc	30 120 65 is_stmt 1
	movq	%rax, -112(%rbp)
Ltmp1137:
	.loc	31 89 18
	movq	%rax, -104(%rbp)
	movq	-104(%rbp), %rax
	movq	%rax, -296(%rbp)
Ltmp1138:
	.loc	31 0 18 is_stmt 0
	movq	-296(%rbp), %rax
	movq	-304(%rbp), %rcx
	.loc	30 120 18 is_stmt 1
	movq	%rcx, -264(%rbp)
	movq	%rax, -256(%rbp)
Ltmp1139:
	.loc	37 348 37
	movq	-288(%rbp), %rax
	movq	-280(%rbp), %rcx
	movq	%rax, -96(%rbp)
	movq	%rcx, -88(%rbp)
Ltmp1140:
	.loc	10 137 22
	movq	%rax, -80(%rbp)
	movq	%rcx, -72(%rbp)
Ltmp1141:
	.loc	9 450 41
	movq	%rax, -64(%rbp)
	movq	%rcx, -56(%rbp)
	movq	%rax, -48(%rbp)
Ltmp1142:
	.loc	9 201 13
	movq	%rax, -232(%rbp)
Ltmp1143:
	.loc	10 191 18
	movq	-232(%rbp), %rax
	.loc	10 191 9 is_stmt 0
	movq	%rax, -240(%rbp)
Ltmp1144:
	.loc	9 768 41 is_stmt 1
	movq	-240(%rbp), %rax
	movq	%rax, -40(%rbp)
Ltmp1145:
	.loc	10 104 9
	movq	%rax, -32(%rbp)
Ltmp1146:
	.loc	9 326 9
	movq	%rax, -24(%rbp)
Ltmp1147:
	.loc	9 201 13
	movq	%rax, -248(%rbp)
Ltmp1148:
	.loc	37 348 50
	movq	-264(%rbp), %rdx
	movq	-256(%rbp), %rcx
	.loc	37 348 9 is_stmt 0
	movq	-248(%rbp), %rsi
Ltmp1124:
	leaq	-272(%rbp), %rdi
	callq	__ZN63_$LT$alloc..alloc..Global$u20$as$u20$core..alloc..Allocator$GT$10deallocate17hc0b6b574e8cdac8bE
Ltmp1125:
	jmp	LBB152_4
Ltmp1149:
LBB152_2:
	.loc	37 340 1 is_stmt 1
	movq	-16(%rbp), %rdi
	callq	__Unwind_Resume
LBB152_3:
Ltmp1126:
	.loc	37 0 1 is_stmt 0
	movq	%rax, %rcx
	movl	%edx, %eax
	movq	%rcx, -16(%rbp)
	movl	%eax, -8(%rbp)
	jmp	LBB152_2
LBB152_4:
	.loc	37 350 2 is_stmt 1
	addq	$304, %rsp
	popq	%rbp
	retq
Ltmp1150:
Lfunc_end152:
	.cfi_endproc
	.section	__TEXT,__gcc_except_tab
	.p2align	2
GCC_except_table152:
Lexception33:
	.byte	255
	.byte	255
	.byte	1
	.uleb128 Lcst_end33-Lcst_begin33
Lcst_begin33:
	.uleb128 Ltmp1124-Lfunc_begin152
	.uleb128 Ltmp1125-Ltmp1124
	.uleb128 Ltmp1126-Lfunc_begin152
	.byte	0
	.uleb128 Ltmp1125-Lfunc_begin152
	.uleb128 Lfunc_end152-Ltmp1125
	.byte	0
	.byte	0
Lcst_end33:
	.p2align	2

	.section	__TEXT,__text,regular,pure_instructions
	.p2align	4, 0x90
__ZN5alloc6string6String8is_empty17h5e59b89291086e5aE:
Lfunc_begin153:
	.file	44 "/rustc/2c8cc343237b8f7d5a3c3703e3a87f2eb2c54a74/library/alloc/src" "string.rs"
	.loc	44 1656 0
	.cfi_startproc
	pushq	%rbp
	.cfi_def_cfa_offset 16
	.cfi_offset %rbp, -16
	movq	%rsp, %rbp
	.cfi_def_cfa_register %rbp
	subq	$24, %rsp
	movq	%rdi, -24(%rbp)
Ltmp1151:
	.loc	44 1657 9 prologue_end
	movq	%rdi, -16(%rbp)
Ltmp1152:
	.loc	44 1637 9
	movq	%rdi, -8(%rbp)
Ltmp1153:
	.loc	44 1657 9
	cmpq	$0, 16(%rdi)
	sete	%al
	.loc	44 1658 6
	andb	$1, %al
	movzbl	%al, %eax
	addq	$24, %rsp
	popq	%rbp
	retq
Ltmp1154:
Lfunc_end153:
	.cfi_endproc

	.p2align	4, 0x90
__ZN5alloc7raw_vec19RawVec$LT$T$C$A$GT$14current_memory17h3ec6025383a3152bE:
Lfunc_begin154:
	.file	45 "/rustc/2c8cc343237b8f7d5a3c3703e3a87f2eb2c54a74/library/alloc/src" "raw_vec.rs"
	.loc	45 240 0
	.cfi_startproc
	pushq	%rbp
	.cfi_def_cfa_offset 16
	.cfi_offset %rbp, -16
	movq	%rsp, %rbp
	.cfi_def_cfa_register %rbp
	subq	$176, %rsp
	movq	%rsi, -152(%rbp)
	movq	%rdi, -144(%rbp)
	movq	%rdi, -136(%rbp)
	movq	%rsi, -80(%rbp)
Ltmp1155:
	.loc	45 241 12 prologue_end
	xorl	%eax, %eax
	testb	$1, %al
	jne	LBB154_2
	.loc	45 0 12 is_stmt 0
	movq	-152(%rbp), %rax
	.loc	45 241 25
	cmpq	$0, (%rax)
	sete	%al
	.loc	45 241 12
	andb	$1, %al
	movb	%al, -121(%rbp)
	jmp	LBB154_3
LBB154_2:
	movb	$1, -121(%rbp)
LBB154_3:
	testb	$1, -121(%rbp)
	jne	LBB154_5
	.loc	45 0 12
	movq	-152(%rbp), %rax
	.loc	45 247 49 is_stmt 1
	movq	(%rax), %rdx
	movq	%rdx, -72(%rbp)
Ltmp1156:
	.loc	25 459 5
	movq	$8, -64(%rbp)
Ltmp1157:
	.loc	31 89 18
	movq	$8, -56(%rbp)
	movq	-56(%rbp), %rsi
Ltmp1158:
	.loc	30 438 16
	movl	$8, %edi
	callq	__ZN4core5alloc6layout6Layout5array5inner17hb1fc1204fd444e23E
	movq	%rax, %rdi
	movq	%rdx, %rsi
Ltmp1159:
	.loc	45 247 30
	leaq	l___unnamed_15(%rip), %rdx
	callq	__ZN4core6result19Result$LT$T$C$E$GT$16unwrap_unchecked17h1afa4fd11c20af5fE
	movq	%rax, %rcx
	movq	-152(%rbp), %rax
	movq	%rcx, -168(%rbp)
	movq	%rdx, -160(%rbp)
	movq	%rcx, -48(%rbp)
	movq	%rdx, -40(%rbp)
Ltmp1160:
	.loc	45 248 23
	movq	8(%rax), %rax
	movq	%rax, -32(%rbp)
Ltmp1161:
	.loc	10 137 22
	movq	%rax, -24(%rbp)
Ltmp1162:
	.loc	9 450 41
	movq	%rax, -16(%rbp)
	movq	%rax, -8(%rbp)
Ltmp1163:
	.loc	9 201 13
	movq	%rax, -88(%rbp)
Ltmp1164:
	.loc	10 191 18
	movq	-88(%rbp), %rax
	.loc	10 191 9 is_stmt 0
	movq	%rax, -96(%rbp)
Ltmp1165:
	.loc	45 248 23 is_stmt 1
	movq	-96(%rbp), %rdi
	callq	__ZN50_$LT$T$u20$as$u20$core..convert..Into$LT$U$GT$$GT$4into17h06fbfe78ea702376E
	movq	-168(%rbp), %rcx
	movq	-160(%rbp), %rdx
	movq	%rax, %rsi
	movq	-144(%rbp), %rax
	.loc	45 248 22 is_stmt 0
	movq	%rsi, -120(%rbp)
	movq	%rcx, -112(%rbp)
	movq	%rdx, -104(%rbp)
	.loc	45 248 17
	movq	-120(%rbp), %rcx
	movq	%rcx, (%rax)
	movq	-112(%rbp), %rcx
	movq	%rcx, 8(%rax)
	movq	-104(%rbp), %rcx
	movq	%rcx, 16(%rax)
Ltmp1166:
	.loc	45 241 9 is_stmt 1
	jmp	LBB154_6
LBB154_5:
	.loc	45 0 9 is_stmt 0
	movq	-144(%rbp), %rax
	.loc	45 242 13 is_stmt 1
	movq	$0, 16(%rax)
LBB154_6:
	.loc	45 0 13 is_stmt 0
	movq	-136(%rbp), %rax
	.loc	45 251 6 is_stmt 1
	addq	$176, %rsp
	popq	%rbp
	retq
Ltmp1167:
Lfunc_end154:
	.cfi_endproc

	.p2align	4, 0x90
__ZN5alloc7raw_vec19RawVec$LT$T$C$A$GT$14current_memory17h6cb0436afa8c4c01E:
Lfunc_begin155:
	.loc	45 240 0
	.cfi_startproc
	pushq	%rbp
	.cfi_def_cfa_offset 16
	.cfi_offset %rbp, -16
	movq	%rsp, %rbp
	.cfi_def_cfa_register %rbp
	subq	$176, %rsp
	movq	%rsi, -152(%rbp)
	movq	%rdi, -144(%rbp)
	movq	%rdi, -136(%rbp)
	movq	%rsi, -80(%rbp)
Ltmp1168:
	.loc	45 241 12 prologue_end
	xorl	%eax, %eax
	testb	$1, %al
	jne	LBB155_2
	.loc	45 0 12 is_stmt 0
	movq	-152(%rbp), %rax
	.loc	45 241 25
	cmpq	$0, (%rax)
	sete	%al
	.loc	45 241 12
	andb	$1, %al
	movb	%al, -121(%rbp)
	jmp	LBB155_3
LBB155_2:
	movb	$1, -121(%rbp)
LBB155_3:
	testb	$1, -121(%rbp)
	jne	LBB155_5
	.loc	45 0 12
	movq	-152(%rbp), %rax
	.loc	45 247 49 is_stmt 1
	movq	(%rax), %rdx
	movq	%rdx, -72(%rbp)
Ltmp1169:
	.loc	25 459 5
	movq	$8, -64(%rbp)
Ltmp1170:
	.loc	31 89 18
	movq	$8, -56(%rbp)
	movq	-56(%rbp), %rsi
Ltmp1171:
	.loc	30 438 16
	movl	$16, %edi
	callq	__ZN4core5alloc6layout6Layout5array5inner17hb1fc1204fd444e23E
	movq	%rax, %rdi
	movq	%rdx, %rsi
Ltmp1172:
	.loc	45 247 30
	leaq	l___unnamed_15(%rip), %rdx
	callq	__ZN4core6result19Result$LT$T$C$E$GT$16unwrap_unchecked17h1afa4fd11c20af5fE
	movq	%rax, %rcx
	movq	-152(%rbp), %rax
	movq	%rcx, -168(%rbp)
	movq	%rdx, -160(%rbp)
	movq	%rcx, -48(%rbp)
	movq	%rdx, -40(%rbp)
Ltmp1173:
	.loc	45 248 23
	movq	8(%rax), %rax
	movq	%rax, -32(%rbp)
Ltmp1174:
	.loc	10 137 22
	movq	%rax, -24(%rbp)
Ltmp1175:
	.loc	9 450 41
	movq	%rax, -16(%rbp)
	movq	%rax, -8(%rbp)
Ltmp1176:
	.loc	9 201 13
	movq	%rax, -88(%rbp)
Ltmp1177:
	.loc	10 191 18
	movq	-88(%rbp), %rax
	.loc	10 191 9 is_stmt 0
	movq	%rax, -96(%rbp)
Ltmp1178:
	.loc	45 248 23 is_stmt 1
	movq	-96(%rbp), %rdi
	callq	__ZN50_$LT$T$u20$as$u20$core..convert..Into$LT$U$GT$$GT$4into17h06fbfe78ea702376E
	movq	-168(%rbp), %rcx
	movq	-160(%rbp), %rdx
	movq	%rax, %rsi
	movq	-144(%rbp), %rax
	.loc	45 248 22 is_stmt 0
	movq	%rsi, -120(%rbp)
	movq	%rcx, -112(%rbp)
	movq	%rdx, -104(%rbp)
	.loc	45 248 17
	movq	-120(%rbp), %rcx
	movq	%rcx, (%rax)
	movq	-112(%rbp), %rcx
	movq	%rcx, 8(%rax)
	movq	-104(%rbp), %rcx
	movq	%rcx, 16(%rax)
Ltmp1179:
	.loc	45 241 9 is_stmt 1
	jmp	LBB155_6
LBB155_5:
	.loc	45 0 9 is_stmt 0
	movq	-144(%rbp), %rax
	.loc	45 242 13 is_stmt 1
	movq	$0, 16(%rax)
LBB155_6:
	.loc	45 0 13 is_stmt 0
	movq	-136(%rbp), %rax
	.loc	45 251 6 is_stmt 1
	addq	$176, %rsp
	popq	%rbp
	retq
Ltmp1180:
Lfunc_end155:
	.cfi_endproc

	.p2align	4, 0x90
__ZN5alloc7raw_vec19RawVec$LT$T$C$A$GT$14current_memory17h7ba3fadd5949d81cE:
Lfunc_begin156:
	.loc	45 240 0
	.cfi_startproc
	pushq	%rbp
	.cfi_def_cfa_offset 16
	.cfi_offset %rbp, -16
	movq	%rsp, %rbp
	.cfi_def_cfa_register %rbp
	subq	$176, %rsp
	movq	%rsi, -152(%rbp)
	movq	%rdi, -144(%rbp)
	movq	%rdi, -136(%rbp)
	movq	%rsi, -80(%rbp)
Ltmp1181:
	.loc	45 241 12 prologue_end
	xorl	%eax, %eax
	testb	$1, %al
	jne	LBB156_2
	.loc	45 0 12 is_stmt 0
	movq	-152(%rbp), %rax
	.loc	45 241 25
	cmpq	$0, (%rax)
	sete	%al
	.loc	45 241 12
	andb	$1, %al
	movb	%al, -121(%rbp)
	jmp	LBB156_3
LBB156_2:
	movb	$1, -121(%rbp)
LBB156_3:
	testb	$1, -121(%rbp)
	jne	LBB156_5
	.loc	45 0 12
	movq	-152(%rbp), %rax
	.loc	45 247 49 is_stmt 1
	movq	(%rax), %rdx
	movq	%rdx, -72(%rbp)
Ltmp1182:
	.loc	25 459 5
	movq	$8, -64(%rbp)
Ltmp1183:
	.loc	31 89 18
	movq	$8, -56(%rbp)
	movq	-56(%rbp), %rsi
Ltmp1184:
	.loc	30 438 16
	movl	$16, %edi
	callq	__ZN4core5alloc6layout6Layout5array5inner17hb1fc1204fd444e23E
	movq	%rax, %rdi
	movq	%rdx, %rsi
Ltmp1185:
	.loc	45 247 30
	leaq	l___unnamed_15(%rip), %rdx
	callq	__ZN4core6result19Result$LT$T$C$E$GT$16unwrap_unchecked17h1afa4fd11c20af5fE
	movq	%rax, %rcx
	movq	-152(%rbp), %rax
	movq	%rcx, -168(%rbp)
	movq	%rdx, -160(%rbp)
	movq	%rcx, -48(%rbp)
	movq	%rdx, -40(%rbp)
Ltmp1186:
	.loc	45 248 23
	movq	8(%rax), %rax
	movq	%rax, -32(%rbp)
Ltmp1187:
	.loc	10 137 22
	movq	%rax, -24(%rbp)
Ltmp1188:
	.loc	9 450 41
	movq	%rax, -16(%rbp)
	movq	%rax, -8(%rbp)
Ltmp1189:
	.loc	9 201 13
	movq	%rax, -88(%rbp)
Ltmp1190:
	.loc	10 191 18
	movq	-88(%rbp), %rax
	.loc	10 191 9 is_stmt 0
	movq	%rax, -96(%rbp)
Ltmp1191:
	.loc	45 248 23 is_stmt 1
	movq	-96(%rbp), %rdi
	callq	__ZN50_$LT$T$u20$as$u20$core..convert..Into$LT$U$GT$$GT$4into17h06fbfe78ea702376E
	movq	-168(%rbp), %rcx
	movq	-160(%rbp), %rdx
	movq	%rax, %rsi
	movq	-144(%rbp), %rax
	.loc	45 248 22 is_stmt 0
	movq	%rsi, -120(%rbp)
	movq	%rcx, -112(%rbp)
	movq	%rdx, -104(%rbp)
	.loc	45 248 17
	movq	-120(%rbp), %rcx
	movq	%rcx, (%rax)
	movq	-112(%rbp), %rcx
	movq	%rcx, 8(%rax)
	movq	-104(%rbp), %rcx
	movq	%rcx, 16(%rax)
Ltmp1192:
	.loc	45 241 9 is_stmt 1
	jmp	LBB156_6
LBB156_5:
	.loc	45 0 9 is_stmt 0
	movq	-144(%rbp), %rax
	.loc	45 242 13 is_stmt 1
	movq	$0, 16(%rax)
LBB156_6:
	.loc	45 0 13 is_stmt 0
	movq	-136(%rbp), %rax
	.loc	45 251 6 is_stmt 1
	addq	$176, %rsp
	popq	%rbp
	retq
Ltmp1193:
Lfunc_end156:
	.cfi_endproc

	.p2align	4, 0x90
__ZN5alloc7raw_vec19RawVec$LT$T$C$A$GT$14current_memory17h9b1a45ac0d547903E:
Lfunc_begin157:
	.loc	45 240 0
	.cfi_startproc
	pushq	%rbp
	.cfi_def_cfa_offset 16
	.cfi_offset %rbp, -16
	movq	%rsp, %rbp
	.cfi_def_cfa_register %rbp
	subq	$176, %rsp
	movq	%rsi, -152(%rbp)
	movq	%rdi, -144(%rbp)
	movq	%rdi, -136(%rbp)
	movq	%rsi, -80(%rbp)
Ltmp1194:
	.loc	45 241 12 prologue_end
	xorl	%eax, %eax
	testb	$1, %al
	jne	LBB157_2
	.loc	45 0 12 is_stmt 0
	movq	-152(%rbp), %rax
	.loc	45 241 25
	cmpq	$0, (%rax)
	sete	%al
	.loc	45 241 12
	andb	$1, %al
	movb	%al, -121(%rbp)
	jmp	LBB157_3
LBB157_2:
	movb	$1, -121(%rbp)
LBB157_3:
	testb	$1, -121(%rbp)
	jne	LBB157_5
	.loc	45 0 12
	movq	-152(%rbp), %rax
	.loc	45 247 49 is_stmt 1
	movq	(%rax), %rdx
	movq	%rdx, -72(%rbp)
Ltmp1195:
	.loc	25 459 5
	movq	$1, -64(%rbp)
Ltmp1196:
	.loc	31 89 18
	movq	$1, -56(%rbp)
	movq	-56(%rbp), %rsi
Ltmp1197:
	.loc	30 438 16
	movl	$1, %edi
	callq	__ZN4core5alloc6layout6Layout5array5inner17hb1fc1204fd444e23E
	movq	%rax, %rdi
	movq	%rdx, %rsi
Ltmp1198:
	.loc	45 247 30
	leaq	l___unnamed_15(%rip), %rdx
	callq	__ZN4core6result19Result$LT$T$C$E$GT$16unwrap_unchecked17h1afa4fd11c20af5fE
	movq	%rax, %rcx
	movq	-152(%rbp), %rax
	movq	%rcx, -168(%rbp)
	movq	%rdx, -160(%rbp)
	movq	%rcx, -48(%rbp)
	movq	%rdx, -40(%rbp)
Ltmp1199:
	.loc	45 248 23
	movq	8(%rax), %rax
	movq	%rax, -32(%rbp)
Ltmp1200:
	.loc	10 137 22
	movq	%rax, -24(%rbp)
Ltmp1201:
	.loc	9 450 41
	movq	%rax, -16(%rbp)
	movq	%rax, -8(%rbp)
Ltmp1202:
	.loc	9 201 13
	movq	%rax, -88(%rbp)
Ltmp1203:
	.loc	10 191 18
	movq	-88(%rbp), %rax
	.loc	10 191 9 is_stmt 0
	movq	%rax, -96(%rbp)
Ltmp1204:
	.loc	45 248 23 is_stmt 1
	movq	-96(%rbp), %rdi
	callq	__ZN50_$LT$T$u20$as$u20$core..convert..Into$LT$U$GT$$GT$4into17h06fbfe78ea702376E
	movq	-168(%rbp), %rcx
	movq	-160(%rbp), %rdx
	movq	%rax, %rsi
	movq	-144(%rbp), %rax
	.loc	45 248 22 is_stmt 0
	movq	%rsi, -120(%rbp)
	movq	%rcx, -112(%rbp)
	movq	%rdx, -104(%rbp)
	.loc	45 248 17
	movq	-120(%rbp), %rcx
	movq	%rcx, (%rax)
	movq	-112(%rbp), %rcx
	movq	%rcx, 8(%rax)
	movq	-104(%rbp), %rcx
	movq	%rcx, 16(%rax)
Ltmp1205:
	.loc	45 241 9 is_stmt 1
	jmp	LBB157_6
LBB157_5:
	.loc	45 0 9 is_stmt 0
	movq	-144(%rbp), %rax
	.loc	45 242 13 is_stmt 1
	movq	$0, 16(%rax)
LBB157_6:
	.loc	45 0 13 is_stmt 0
	movq	-136(%rbp), %rax
	.loc	45 251 6 is_stmt 1
	addq	$176, %rsp
	popq	%rbp
	retq
Ltmp1206:
Lfunc_end157:
	.cfi_endproc

	.p2align	4, 0x90
__ZN63_$LT$I$u20$as$u20$core..iter..traits..collect..IntoIterator$GT$9into_iter17ha00ff092a86ab374E:
Lfunc_begin158:
	.file	46 "/rustc/2c8cc343237b8f7d5a3c3703e3a87f2eb2c54a74/library/core/src/iter/traits" "collect.rs"
	.loc	46 272 0
	.cfi_startproc
	pushq	%rbp
	.cfi_def_cfa_offset 16
	.cfi_offset %rbp, -16
	movq	%rsp, %rbp
	.cfi_def_cfa_register %rbp
	subq	$16, %rsp
	movq	%rdi, %rax
	movq	%rax, -8(%rbp)
Ltmp1207:
	.loc	46 273 9 prologue_end
	movl	$72, %edx
	callq	_memcpy
Ltmp1208:
	.loc	46 0 9 is_stmt 0
	movq	-8(%rbp), %rax
	.loc	46 274 6 is_stmt 1
	addq	$16, %rsp
	popq	%rbp
	retq
Ltmp1209:
Lfunc_end158:
	.cfi_endproc

	.p2align	4, 0x90
__ZN63_$LT$alloc..alloc..Global$u20$as$u20$core..alloc..Allocator$GT$10deallocate17hc0b6b574e8cdac8bE:
Lfunc_begin159:
	.loc	37 246 0
	.cfi_startproc
	pushq	%rbp
	.cfi_def_cfa_offset 16
	.cfi_offset %rbp, -16
	movq	%rsp, %rbp
	.cfi_def_cfa_register %rbp
	subq	$112, %rsp
	movq	%rsi, -112(%rbp)
	movq	%rdx, -104(%rbp)
	movq	%rcx, -96(%rbp)
	movq	%rdi, -64(%rbp)
	movq	%rsi, -56(%rbp)
Ltmp1210:
	.loc	37 247 12 prologue_end
	leaq	-104(%rbp), %rax
	movq	%rax, -48(%rbp)
	cmpq	$0, -104(%rbp)
	jne	LBB159_2
	.loc	37 247 9 is_stmt 0
	jmp	LBB159_3
LBB159_2:
	.loc	37 0 9
	movq	-112(%rbp), %rdi
	.loc	37 250 30 is_stmt 1
	movq	%rdi, -40(%rbp)
Ltmp1211:
	.loc	9 326 9
	movq	%rdi, -32(%rbp)
Ltmp1212:
	.loc	37 250 44
	movq	-104(%rbp), %rcx
	movq	-96(%rbp), %rax
	movq	%rcx, -88(%rbp)
	movq	%rax, -80(%rbp)
Ltmp1213:
	.loc	37 113 34
	leaq	-88(%rbp), %rax
	movq	%rax, -24(%rbp)
Ltmp1214:
	.loc	30 129 9
	movq	-88(%rbp), %rsi
Ltmp1215:
	.loc	37 113 49
	leaq	-88(%rbp), %rax
	movq	%rax, -16(%rbp)
Ltmp1216:
	.loc	30 140 9
	movq	-80(%rbp), %rax
	movq	%rax, -8(%rbp)
Ltmp1217:
	.loc	31 97 9
	movq	%rax, -72(%rbp)
	movq	-72(%rbp), %rdx
Ltmp1218:
	.loc	37 113 14
	callq	___rust_dealloc
Ltmp1219:
LBB159_3:
	.loc	37 252 6
	addq	$112, %rsp
	popq	%rbp
	retq
Ltmp1220:
Lfunc_end159:
	.cfi_endproc

	.p2align	4, 0x90
__ZN65_$LT$alloc..string..String$u20$as$u20$core..ops..deref..Deref$GT$5deref17hbfbbfe9ba571e430E:
Lfunc_begin160:
	.loc	44 2459 0
	.cfi_startproc
	pushq	%rbp
	.cfi_def_cfa_offset 16
	.cfi_offset %rbp, -16
	movq	%rsp, %rbp
	.cfi_def_cfa_register %rbp
	subq	$48, %rsp
	movq	%rdi, -40(%rbp)
Ltmp1221:
	.loc	44 2460 43 prologue_end
	callq	__ZN72_$LT$alloc..vec..Vec$LT$T$C$A$GT$$u20$as$u20$core..ops..deref..Deref$GT$5deref17h6ed1ae6990d23ac1E
	movq	%rax, -32(%rbp)
	movq	%rdx, -24(%rbp)
Ltmp1222:
	.file	47 "/rustc/2c8cc343237b8f7d5a3c3703e3a87f2eb2c54a74/library/core/src/str" "converts.rs"
	.loc	47 173 14
	movq	%rax, -16(%rbp)
	movq	%rdx, -8(%rbp)
	movq	-16(%rbp), %rax
	movq	-8(%rbp), %rdx
Ltmp1223:
	.loc	44 2461 6
	addq	$48, %rsp
	popq	%rbp
	retq
Ltmp1224:
Lfunc_end160:
	.cfi_endproc

	.p2align	4, 0x90
__ZN68_$LT$alloc..ffi..c_str..CString$u20$as$u20$core..ops..drop..Drop$GT$4drop17h6fb3ee4e7babe2d7E:
Lfunc_begin161:
	.file	48 "/rustc/2c8cc343237b8f7d5a3c3703e3a87f2eb2c54a74/library/alloc/src/ffi" "c_str.rs"
	.loc	48 701 0
	.cfi_startproc
	pushq	%rbp
	.cfi_def_cfa_offset 16
	.cfi_offset %rbp, -16
	movq	%rsp, %rbp
	.cfi_def_cfa_register %rbp
	subq	$80, %rsp
	movq	%rdi, -80(%rbp)
Ltmp1225:
	.loc	48 703 14 prologue_end
	movq	(%rdi), %rax
	movq	8(%rdi), %rcx
	movq	%rax, -72(%rbp)
	movq	%rcx, -64(%rbp)
Ltmp1226:
	.loc	40 443 48
	movq	%rax, -56(%rbp)
	movq	%rcx, -48(%rbp)
Ltmp1227:
	.loc	1 253 13
	movq	%rax, -40(%rbp)
	movq	%rcx, -32(%rbp)
Ltmp1228:
	.loc	5 2037 9
	movq	%rax, -24(%rbp)
Ltmp1229:
	.loc	5 1034 18
	movq	%rax, -16(%rbp)
Ltmp1230:
	.loc	5 487 18
	movq	%rax, -8(%rbp)
	movq	-8(%rbp), %rax
Ltmp1231:
	.loc	48 703 13
	movb	$0, (%rax)
	.loc	48 705 6
	addq	$80, %rsp
	popq	%rbp
	retq
Ltmp1232:
Lfunc_end161:
	.cfi_endproc

	.p2align	4, 0x90
__ZN69_$LT$std..os..fd..owned..OwnedFd$u20$as$u20$core..ops..drop..Drop$GT$4drop17hc7e5f746c534ed94E:
Lfunc_begin162:
	.file	49 "/rustc/2c8cc343237b8f7d5a3c3703e3a87f2eb2c54a74/library/std/src/os/fd" "owned.rs"
	.loc	49 170 0
	.cfi_startproc
	pushq	%rbp
	.cfi_def_cfa_offset 16
	.cfi_offset %rbp, -16
	movq	%rsp, %rbp
	.cfi_def_cfa_register %rbp
	subq	$16, %rsp
	movq	%rdi, -8(%rbp)
Ltmp1233:
	.loc	49 177 33 prologue_end
	movl	(%rdi), %edi
	.loc	49 177 21 is_stmt 0
