	.section	__TEXT,__text,regular,pure_instructions
	.macosx_version_min 10, 7
	.globl	__ZN102_$LT$$RF$mut$u20$alloc..vec..Vec$LT$T$C$A$GT$$u20$as$u20$core..iter..traits..collect..IntoIterator$GT$9into_iter17h2d95930ec37b1a2cE
	.p2align	4, 0x90
__ZN102_$LT$$RF$mut$u20$alloc..vec..Vec$LT$T$C$A$GT$$u20$as$u20$core..iter..traits..collect..IntoIterator$GT$9into_iter17h2d95930ec37b1a2cE:
Lfunc_begin0:
	.file	1 "/rustc/2c8cc343237b8f7d5a3c3703e3a87f2eb2c54a74/library/alloc/src/vec" "mod.rs"
	.loc	1 2817 0
	.cfi_startproc
	pushq	%rbp
	.cfi_def_cfa_offset 16
	.cfi_offset %rbp, -16
	movq	%rsp, %rbp
	.cfi_def_cfa_register %rbp
	subq	$32, %rsp
	movq	%rdi, -24(%rbp)
Ltmp0:
	.loc	1 2818 9 prologue_end
	callq	__ZN75_$LT$alloc..vec..Vec$LT$T$C$A$GT$$u20$as$u20$core..ops..deref..DerefMut$GT$9deref_mut17he9a3591d994900e4E
	movq	%rax, %rdi
	movq	%rdx, %rsi
	movq	%rdi, -16(%rbp)
	movq	%rsi, -8(%rbp)
Ltmp1:
	.file	2 "/rustc/2c8cc343237b8f7d5a3c3703e3a87f2eb2c54a74/library/core/src/slice" "mod.rs"
	.loc	2 761 9
	callq	__ZN4core5slice4iter16IterMut$LT$T$GT$3new17hf37418b93fc645c2E
Ltmp2:
	.loc	1 2819 6
	addq	$32, %rsp
	popq	%rbp
	retq
Ltmp3:
Lfunc_end0:
	.cfi_endproc

	.p2align	4, 0x90
__ZN10std_detect6detect4arch3x8621__is_feature_detected4avx217h0af53266a371f36aE:
Lfunc_begin1:
	.file	3 "/rustc/2c8cc343237b8f7d5a3c3703e3a87f2eb2c54a74/library/stdarch/crates/std_detect/src/detect" "macros.rs"
	.loc	3 160 0
	.cfi_startproc
	pushq	%rbp
	.cfi_def_cfa_offset 16
	.cfi_offset %rbp, -16
	movq	%rsp, %rbp
	.cfi_def_cfa_register %rbp
Ltmp4:
	.file	4 "/rustc/2c8cc343237b8f7d5a3c3703e3a87f2eb2c54a74/library/stdarch/crates/std_detect/src/detect" "mod.rs"
	.loc	4 72 5 prologue_end
	movl	$15, %edi
	callq	__ZN10std_detect6detect5cache4test17h9b305f2db5f72a4aE
Ltmp5:
	.loc	3 162 18
	andb	$1, %al
	movzbl	%al, %eax
	popq	%rbp
	retq
Ltmp6:
Lfunc_end1:
	.cfi_endproc

	.p2align	4, 0x90
__ZN10std_detect6detect4arch3x8621__is_feature_detected6sse4_217h94e0168dcd960f50E:
Lfunc_begin2:
	.loc	3 160 0
	.cfi_startproc
	pushq	%rbp
	.cfi_def_cfa_offset 16
	.cfi_offset %rbp, -16
	movq	%rsp, %rbp
	.cfi_def_cfa_register %rbp
Ltmp7:
	.loc	4 72 5 prologue_end
	movl	$11, %edi
	callq	__ZN10std_detect6detect5cache4test17h9b305f2db5f72a4aE
Ltmp8:
	.loc	3 162 18
	andb	$1, %al
	movzbl	%al, %eax
	popq	%rbp
	retq
Ltmp9:
Lfunc_end2:
	.cfi_endproc

	.p2align	4, 0x90
__ZN10std_detect6detect5cache4test17h9b305f2db5f72a4aE:
Lfunc_begin3:
	.file	5 "/rustc/2c8cc343237b8f7d5a3c3703e3a87f2eb2c54a74/library/stdarch/crates/std_detect/src/detect" "cache.rs"
	.loc	5 185 0
	.cfi_startproc
	pushq	%rbp
	.cfi_def_cfa_offset 16
	.cfi_offset %rbp, -16
	movq	%rsp, %rbp
	.cfi_def_cfa_register %rbp
	subq	$80, %rsp
	movl	%edi, -64(%rbp)
Ltmp10:
	.loc	5 186 34 prologue_end
	cmpl	$63, -64(%rbp)
	jb	LBB3_2
	.loc	5 189 10
	movl	-64(%rbp), %eax
	subl	$63, %eax
	.loc	5 189 9 is_stmt 0
	movl	%eax, -56(%rbp)
	movq	$1, -48(%rbp)
	.loc	5 186 31 is_stmt 1
	jmp	LBB3_3
LBB3_2:
	.loc	5 187 10
	movl	-64(%rbp), %eax
	.loc	5 187 9 is_stmt 0
	movl	%eax, -56(%rbp)
	movq	$0, -48(%rbp)
LBB3_3:
	.loc	5 186 10 is_stmt 1
	movl	-56(%rbp), %eax
	movl	%eax, -76(%rbp)
	movl	%eax, -20(%rbp)
	.loc	5 186 24 is_stmt 0
	movq	-48(%rbp), %rax
	movq	%rax, -72(%rbp)
	movq	%rax, -16(%rbp)
Ltmp11:
	.loc	5 191 5 is_stmt 1
	cmpq	$2, %rax
	setb	%al
	testb	$1, %al
	jne	LBB3_4
	jmp	LBB3_5
LBB3_4:
	.loc	5 0 5 is_stmt 0
	movl	-76(%rbp), %esi
	movq	-72(%rbp), %rax
	.loc	5 191 5
	movq	__ZN10std_detect6detect5cache5CACHE17hcb98cfd93341c8d6E@GOTPCREL(%rip), %rdi
	shlq	$3, %rax
	addq	%rax, %rdi
	callq	__ZN10std_detect6detect5cache5Cache4test17h109dc208c173d2e5E
	movb	%al, -33(%rbp)
	.loc	5 193 25 is_stmt 1
	leaq	-64(%rbp), %rax
	movq	%rax, -32(%rbp)
Ltmp12:
	.file	6 "/rustc/2c8cc343237b8f7d5a3c3703e3a87f2eb2c54a74/library/core/src" "option.rs"
	.loc	6 871 15
	movl	$1, %eax
	xorl	%ecx, %ecx
	cmpb	$2, -33(%rbp)
	cmoveq	%rcx, %rax
	.loc	6 871 9 is_stmt 0
	cmpq	$0, %rax
	je	LBB3_6
	jmp	LBB3_7
Ltmp13:
LBB3_5:
	.loc	6 0 9
	movq	-72(%rbp), %rdi
	.loc	5 191 5 is_stmt 1
	leaq	l___unnamed_2(%rip), %rdx
	movl	$2, %esi
	callq	__ZN4core9panicking18panic_bounds_check17hacb8a94866cda541E
LBB3_6:
Ltmp14:
	.loc	6 873 21
	movq	-32(%rbp), %rdi
	callq	__ZN10std_detect6detect5cache4test28_$u7b$$u7b$closure$u7d$$u7d$17hf74afe8f915bd91fE
	andb	$1, %al
	movb	%al, -57(%rbp)
	.loc	6 873 23 is_stmt 0
	jmp	LBB3_8
LBB3_7:
	.loc	6 872 18 is_stmt 1
	movb	-33(%rbp), %al
	movb	%al, %cl
	andb	$1, %cl
	movb	%cl, -1(%rbp)
Ltmp15:
	.loc	6 872 24 is_stmt 0
	andb	$1, %al
	movb	%al, -57(%rbp)
Ltmp16:
LBB3_8:
	.loc	5 194 2 is_stmt 1
	movb	-57(%rbp), %al
	andb	$1, %al
	movzbl	%al, %eax
	addq	$80, %rsp
	popq	%rbp
	retq
Ltmp17:
Lfunc_end3:
	.cfi_endproc

	.globl	__ZN10std_detect6detect5cache4test28_$u7b$$u7b$closure$u7d$$u7d$17hf74afe8f915bd91fE
	.p2align	4, 0x90
__ZN10std_detect6detect5cache4test28_$u7b$$u7b$closure$u7d$$u7d$17hf74afe8f915bd91fE:
Lfunc_begin4:
	.loc	5 193 0
	.cfi_startproc
	pushq	%rbp
	.cfi_def_cfa_offset 16
	.cfi_offset %rbp, -16
	movq	%rsp, %rbp
	.cfi_def_cfa_register %rbp
	subq	$48, %rsp
	movq	%rdi, -40(%rbp)
Ltmp18:
	.loc	5 193 28 prologue_end
	callq	__ZN10std_detect6detect5cache21detect_and_initialize17h34e30b6315ee6942E
	movq	%rax, -32(%rbp)
	.loc	5 193 57 is_stmt 0
	movq	-40(%rbp), %rcx
	movl	(%rcx), %ecx
	movl	%ecx, -20(%rbp)
Ltmp19:
	.loc	5 52 18 is_stmt 1
	movq	%rax, -16(%rbp)
	.loc	5 52 26 is_stmt 0
	movl	%ecx, -4(%rbp)
Ltmp20:
	.loc	5 19 9 is_stmt 1
	movl	%ecx, %ecx
	andq	$63, %rcx
	movl	$1, %edx
	shlq	%cl, %rdx
	movq	%rdx, %rcx
	.loc	5 19 5 is_stmt 0
	andq	%rcx, %rax
	cmpq	$0, %rax
	setne	%al
Ltmp21:
	.loc	5 193 61 is_stmt 1
	andb	$1, %al
	movzbl	%al, %eax
	addq	$48, %rsp
	popq	%rbp
	retq
Ltmp22:
Lfunc_end4:
	.cfi_endproc

	.p2align	4, 0x90
__ZN10std_detect6detect5cache5Cache4test17h109dc208c173d2e5E:
Lfunc_begin5:
	.loc	5 105 0
	.cfi_startproc
	pushq	%rbp
	.cfi_def_cfa_offset 16
	.cfi_offset %rbp, -16
	movq	%rsp, %rbp
	.cfi_def_cfa_register %rbp
	subq	$80, %rsp
	movl	%esi, -76(%rbp)
	movq	%rdi, -56(%rbp)
	movl	%esi, -44(%rbp)
Ltmp23:
	.loc	5 106 22 prologue_end
	movq	%rdi, -40(%rbp)
Ltmp24:
	.file	7 "/rustc/2c8cc343237b8f7d5a3c3703e3a87f2eb2c54a74/library/core/src/sync" "atomic.rs"
	.loc	7 2127 38
	movq	%rdi, -32(%rbp)
	.loc	7 2127 26 is_stmt 0
	xorl	%esi, %esi
	callq	__ZN4core4sync6atomic11atomic_load17h1cc068196a86366eE
	movq	%rax, -72(%rbp)
	movq	%rax, -24(%rbp)
Ltmp25:
	.loc	5 107 12 is_stmt 1
	cmpq	$0, %rax
	jne	LBB5_2
	.loc	5 108 13
	movb	$2, -57(%rbp)
	.loc	5 107 9
	jmp	LBB5_3
LBB5_2:
	.loc	5 0 9 is_stmt 0
	movq	-72(%rbp), %rax
	movl	-76(%rbp), %ecx
	.loc	5 110 27 is_stmt 1
	movq	%rax, -16(%rbp)
	.loc	5 110 42 is_stmt 0
	movl	%ecx, -4(%rbp)
Ltmp26:
	.loc	5 19 9 is_stmt 1
	movl	%ecx, %ecx
	andq	$63, %rcx
	movl	$1, %edx
	shlq	%cl, %rdx
	movq	%rdx, %rcx
	.loc	5 19 5 is_stmt 0
	andq	%rcx, %rax
	cmpq	$0, %rax
	setne	%al
Ltmp27:
	.loc	5 110 13 is_stmt 1
	andb	$1, %al
	movb	%al, -57(%rbp)
Ltmp28:
LBB5_3:
	.loc	5 112 6
	movb	-57(%rbp), %al
	addq	$80, %rsp
	popq	%rbp
	retq
Ltmp29:
Lfunc_end5:
	.cfi_endproc

	.globl	__ZN119_$LT$core..ptr..non_null..NonNull$LT$T$GT$$u20$as$u20$core..convert..From$LT$core..ptr..unique..Unique$LT$T$GT$$GT$$GT$4from17hdc23e22d76e77a01E
	.p2align	4, 0x90
__ZN119_$LT$core..ptr..non_null..NonNull$LT$T$GT$$u20$as$u20$core..convert..From$LT$core..ptr..unique..Unique$LT$T$GT$$GT$$GT$4from17hdc23e22d76e77a01E:
Lfunc_begin6:
	.file	8 "/rustc/2c8cc343237b8f7d5a3c3703e3a87f2eb2c54a74/library/core/src/ptr" "non_null.rs"
	.loc	8 765 0
	.cfi_startproc
	pushq	%rbp
	.cfi_def_cfa_offset 16
	.cfi_offset %rbp, -16
	movq	%rsp, %rbp
	.cfi_def_cfa_register %rbp
	subq	$40, %rsp
	movq	%rdi, -32(%rbp)
Ltmp30:
	.loc	8 768 41 prologue_end
	movq	%rdi, -24(%rbp)
Ltmp31:
	.file	9 "/rustc/2c8cc343237b8f7d5a3c3703e3a87f2eb2c54a74/library/core/src/ptr" "unique.rs"
	.loc	9 104 9
	movq	%rdi, -16(%rbp)
Ltmp32:
	.loc	8 326 9
	movq	%rdi, -8(%rbp)
Ltmp33:
	.loc	8 201 13
	movq	%rdi, -40(%rbp)
Ltmp34:
	.loc	8 769 6
	movq	-40(%rbp), %rax
	addq	$40, %rsp
	popq	%rbp
	retq
Ltmp35:
Lfunc_end6:
	.cfi_endproc

	.p2align	4, 0x90
__ZN122_$LT$alloc..collections..TryReserveError$u20$as$u20$core..convert..From$LT$alloc..collections..TryReserveErrorKind$GT$$GT$4from17hdd32df091729e37fE:
Lfunc_begin7:
	.file	10 "/rustc/2c8cc343237b8f7d5a3c3703e3a87f2eb2c54a74/library/alloc/src/collections" "mod.rs"
	.loc	10 116 0
	.cfi_startproc
	pushq	%rbp
	.cfi_def_cfa_offset 16
	.cfi_offset %rbp, -16
	movq	%rsp, %rbp
	.cfi_def_cfa_register %rbp
	subq	$32, %rsp
	movq	%rdi, -16(%rbp)
	movq	%rsi, -8(%rbp)
Ltmp36:
	.loc	10 117 9 prologue_end
	movq	%rdi, -32(%rbp)
	movq	%rsi, -24(%rbp)
	.loc	10 118 6
	movq	-32(%rbp), %rax
	movq	-24(%rbp), %rdx
	addq	$32, %rsp
	popq	%rbp
	retq
Ltmp37:
Lfunc_end7:
	.cfi_endproc

	.section	__TEXT,__literal16,16byte_literals
	.p2align	4
LCPI8_0:
	.long	0x7fffffff
	.long	0x7fffffff
	.long	0x7fffffff
	.long	0x7fffffff
	.section	__TEXT,__text,regular,pure_instructions
	.p2align	4, 0x90
__ZN3std3f3221_$LT$impl$u20$f32$GT$3abs17h76e5257c8c772a6eE:
Lfunc_begin8:
	.file	11 "/rustc/2c8cc343237b8f7d5a3c3703e3a87f2eb2c54a74/library/std/src" "f32.rs"
	.loc	11 157 0
	.cfi_startproc
	pushq	%rbp
	.cfi_def_cfa_offset 16
	.cfi_offset %rbp, -16
	movq	%rsp, %rbp
	.cfi_def_cfa_register %rbp
	pushq	%rax
	movss	%xmm0, -8(%rbp)
Ltmp38:
	.loc	11 158 18 prologue_end
	movaps	LCPI8_0(%rip), %xmm1
	pand	%xmm1, %xmm0
	movss	%xmm0, -4(%rbp)
	movss	-4(%rbp), %xmm0
	.loc	11 159 6
	addq	$8, %rsp
	popq	%rbp
	retq
Ltmp39:
Lfunc_end8:
	.cfi_endproc

	.p2align	4, 0x90
__ZN3std3f3221_$LT$impl$u20$f32$GT$4ceil17hd307bee39d62bf3dE:
Lfunc_begin9:
	.loc	11 68 0
	.cfi_startproc
	pushq	%rbp
	.cfi_def_cfa_offset 16
	.cfi_offset %rbp, -16
	movq	%rsp, %rbp
	.cfi_def_cfa_register %rbp
	subq	$16, %rsp
	movss	%xmm0, -8(%rbp)
Ltmp40:
	.loc	11 69 18 prologue_end
	callq	_ceilf
	movss	%xmm0, -4(%rbp)
	movss	-4(%rbp), %xmm0
	.loc	11 70 6
	addq	$16, %rsp
	popq	%rbp
	retq
Ltmp41:
Lfunc_end9:
	.cfi_endproc

	.p2align	4, 0x90
__ZN3std3f3221_$LT$impl$u20$f32$GT$4sqrt17hf6b37d81bb691729E:
Lfunc_begin10:
	.loc	11 364 0
	.cfi_startproc
	pushq	%rbp
	.cfi_def_cfa_offset 16
	.cfi_offset %rbp, -16
	movq	%rsp, %rbp
	.cfi_def_cfa_register %rbp
	pushq	%rax
	movss	%xmm0, -8(%rbp)
Ltmp42:
	.loc	11 365 18 prologue_end
	sqrtss	%xmm0, %xmm0
	movss	%xmm0, -4(%rbp)
	movss	-4(%rbp), %xmm0
	.loc	11 366 6
	addq	$8, %rsp
	popq	%rbp
	retq
Ltmp43:
Lfunc_end10:
	.cfi_endproc

	.p2align	4, 0x90
__ZN3std3f3221_$LT$impl$u20$f32$GT$5floor17h31e619b069bc1746E:
Lfunc_begin11:
	.loc	11 49 0
	.cfi_startproc
	pushq	%rbp
	.cfi_def_cfa_offset 16
	.cfi_offset %rbp, -16
	movq	%rsp, %rbp
	.cfi_def_cfa_register %rbp
	subq	$16, %rsp
	movss	%xmm0, -8(%rbp)
Ltmp44:
	.loc	11 50 18 prologue_end
	callq	_floorf
	movss	%xmm0, -4(%rbp)
	movss	-4(%rbp), %xmm0
	.loc	11 51 6
	addq	$16, %rsp
	popq	%rbp
	retq
Ltmp45:
Lfunc_end11:
	.cfi_endproc

	.p2align	4, 0x90
__ZN47_$LT$i32$u20$as$u20$core..iter..range..Step$GT$17forward_unchecked17h308bf95ff900addeE:
Lfunc_begin12:
	.file	12 "/rustc/2c8cc343237b8f7d5a3c3703e3a87f2eb2c54a74/library/core/src/iter" "range.rs"
	.loc	12 189 0
	.cfi_startproc
	pushq	%rbp
	.cfi_def_cfa_offset 16
	.cfi_offset %rbp, -16
	movq	%rsp, %rbp
	.cfi_def_cfa_register %rbp
	subq	$32, %rsp
	movl	%edi, -28(%rbp)
	movq	%rsi, -24(%rbp)
Ltmp46:
	.loc	12 191 22 prologue_end
	movl	%edi, -12(%rbp)
	.loc	12 191 42 is_stmt 0
	movl	%esi, %eax
	movl	%eax, -8(%rbp)
Ltmp47:
	.file	13 "/rustc/2c8cc343237b8f7d5a3c3703e3a87f2eb2c54a74/library/core/src/num" "int_macros.rs"
	.loc	13 460 22 is_stmt 1
	addl	%eax, %edi
	movl	%edi, -4(%rbp)
	movl	-4(%rbp), %eax
Ltmp48:
	.loc	12 192 10
	addq	$32, %rsp
	popq	%rbp
	retq
Ltmp49:
Lfunc_end12:
	.cfi_endproc

	.p2align	4, 0x90
__ZN49_$LT$usize$u20$as$u20$core..iter..range..Step$GT$17forward_unchecked17he4216f796dd7d62eE:
Lfunc_begin13:
	.loc	12 189 0
	.cfi_startproc
	pushq	%rbp
	.cfi_def_cfa_offset 16
	.cfi_offset %rbp, -16
	movq	%rsp, %rbp
	.cfi_def_cfa_register %rbp
	subq	$40, %rsp
	movq	%rdi, -40(%rbp)
	movq	%rsi, -32(%rbp)
Ltmp50:
	.loc	12 191 22 prologue_end
	movq	%rdi, -24(%rbp)
	.loc	12 191 42 is_stmt 0
	movq	%rsi, -16(%rbp)
Ltmp51:
	.file	14 "/rustc/2c8cc343237b8f7d5a3c3703e3a87f2eb2c54a74/library/core/src/num" "uint_macros.rs"
	.loc	14 470 22 is_stmt 1
	addq	%rsi, %rdi
	movq	%rdi, -8(%rbp)
	movq	-8(%rbp), %rax
Ltmp52:
	.loc	12 192 10
	addq	$40, %rsp
	popq	%rbp
	retq
Ltmp53:
Lfunc_end13:
	.cfi_endproc

	.globl	__ZN4core3cmp3Ord3min17h08b3ed6b2afdbd1bE
	.p2align	4, 0x90
__ZN4core3cmp3Ord3min17h08b3ed6b2afdbd1bE:
Lfunc_begin14:
	.file	15 "/rustc/2c8cc343237b8f7d5a3c3703e3a87f2eb2c54a74/library/core/src" "cmp.rs"
	.loc	15 826 0
	.cfi_startproc
	pushq	%rbp
	.cfi_def_cfa_offset 16
	.cfi_offset %rbp, -16
	movq	%rsp, %rbp
	.cfi_def_cfa_register %rbp
	subq	$16, %rsp
	movq	%rdi, -16(%rbp)
	movq	%rsi, -8(%rbp)
Ltmp54:
	.loc	15 833 13 prologue_end
	callq	__ZN4core3cmp6min_by17h3c5b348fe89a6bf2E
	.loc	15 841 6
	addq	$16, %rsp
	popq	%rbp
	retq
Ltmp55:
Lfunc_end14:
	.cfi_endproc

	.p2align	4, 0x90
__ZN4core3cmp5impls50_$LT$impl$u20$core..cmp..Ord$u20$for$u20$usize$GT$3cmp17he38260d2f12e33e4E:
Lfunc_begin15:
	.loc	15 1454 0
	.cfi_startproc
	pushq	%rbp
	.cfi_def_cfa_offset 16
	.cfi_offset %rbp, -16
	movq	%rsp, %rbp
	.cfi_def_cfa_register %rbp
	subq	$40, %rsp
	movq	%rdi, -40(%rbp)
	movq	%rsi, -32(%rbp)
	movq	%rdi, -16(%rbp)
	movq	%rsi, -8(%rbp)
Ltmp56:
	.loc	15 1457 24 prologue_end
	movq	(%rdi), %rax
	cmpq	(%rsi), %rax
	jb	LBB15_2
	.loc	15 0 24 is_stmt 0
	movq	-32(%rbp), %rcx
	movq	-40(%rbp), %rax
	.loc	15 1458 29 is_stmt 1
	movq	(%rax), %rax
	cmpq	(%rcx), %rax
	je	LBB15_5
	jmp	LBB15_4
LBB15_2:
	.loc	15 1457 41
	movb	$-1, -17(%rbp)
LBB15_3:
	.loc	15 1460 18
	movb	-17(%rbp), %al
	addq	$40, %rsp
	popq	%rbp
	retq
LBB15_4:
	.loc	15 1459 28
	movb	$1, -17(%rbp)
	.loc	15 1458 26
	jmp	LBB15_6
LBB15_5:
	.loc	15 1458 47 is_stmt 0
	movb	$0, -17(%rbp)
LBB15_6:
	.loc	15 1457 21 is_stmt 1
	jmp	LBB15_3
Ltmp57:
Lfunc_end15:
	.cfi_endproc

	.p2align	4, 0x90
__ZN4core3cmp5impls55_$LT$impl$u20$core..cmp..PartialOrd$u20$for$u20$i32$GT$2lt17h637256132f6f4eb9E:
Lfunc_begin16:
	.loc	15 1441 0
	.cfi_startproc
	pushq	%rbp
	.cfi_def_cfa_offset 16
	.cfi_offset %rbp, -16
	movq	%rsp, %rbp
	.cfi_def_cfa_register %rbp
	subq	$16, %rsp
	movq	%rdi, -16(%rbp)
	movq	%rsi, -8(%rbp)
Ltmp58:
	.loc	15 1441 52 prologue_end
	movl	(%rdi), %eax
	cmpl	(%rsi), %eax
	setl	%al
	.loc	15 1441 72 is_stmt 0
	andb	$1, %al
	movzbl	%al, %eax
	addq	$16, %rsp
	popq	%rbp
	retq
Ltmp59:
Lfunc_end16:
	.cfi_endproc

	.p2align	4, 0x90
__ZN4core3cmp5impls57_$LT$impl$u20$core..cmp..PartialOrd$u20$for$u20$usize$GT$2lt17h363104cb545bab1bE:
Lfunc_begin17:
	.loc	15 1441 0 is_stmt 1
	.cfi_startproc
	pushq	%rbp
	.cfi_def_cfa_offset 16
	.cfi_offset %rbp, -16
	movq	%rsp, %rbp
	.cfi_def_cfa_register %rbp
	subq	$16, %rsp
	movq	%rdi, -16(%rbp)
	movq	%rsi, -8(%rbp)
Ltmp60:
	.loc	15 1441 52 prologue_end
	movq	(%rdi), %rax
	cmpq	(%rsi), %rax
	setb	%al
	.loc	15 1441 72 is_stmt 0
	andb	$1, %al
	movzbl	%al, %eax
	addq	$16, %rsp
	popq	%rbp
	retq
Ltmp61:
Lfunc_end17:
	.cfi_endproc

	.globl	__ZN4core3cmp6max_by17hb70c5b8946bbfe9fE
	.p2align	4, 0x90
__ZN4core3cmp6max_by17hb70c5b8946bbfe9fE:
Lfunc_begin18:
	.loc	15 1295 0 is_stmt 1
	.cfi_startproc
	.cfi_personality 155, _rust_eh_personality
	.cfi_lsda 16, Lexception0
	pushq	%rbp
	.cfi_def_cfa_offset 16
	.cfi_offset %rbp, -16
	movq	%rsp, %rbp
	.cfi_def_cfa_register %rbp
	subq	$96, %rsp
	movq	%rdi, -80(%rbp)
	movq	%rsi, -72(%rbp)
Ltmp65:
	.loc	15 1300 11 prologue_end
	movb	$1, -25(%rbp)
	movb	$1, -26(%rbp)
	leaq	-80(%rbp), %rax
	movq	%rax, -48(%rbp)
	leaq	-72(%rbp), %rax
	movq	%rax, -40(%rbp)
	movq	-48(%rbp), %rdi
	movq	-40(%rbp), %rsi
Ltmp62:
	callq	__ZN4core3ops8function6FnOnce9call_once17h9843a1d847caffe4E
Ltmp63:
	movb	%al, -81(%rbp)
	jmp	LBB18_3
LBB18_1:
	.loc	15 1304 1
	jmp	LBB18_4
LBB18_2:
Ltmp64:
	.loc	15 0 1 is_stmt 0
	movq	%rax, %rcx
	movl	%edx, %eax
	movq	%rcx, -16(%rbp)
	movl	%eax, -8(%rbp)
	jmp	LBB18_1
LBB18_3:
	movb	-81(%rbp), %al
	.loc	15 1300 11 is_stmt 1
	movb	%al, -49(%rbp)
	movb	-49(%rbp), %al
	.loc	15 1300 5 is_stmt 0
	incb	%al
	subb	$2, %al
	jb	LBB18_6
	jmp	LBB18_15
LBB18_15:
	jmp	LBB18_7
LBB18_4:
	.loc	15 1304 1 is_stmt 1
	testb	$1, -25(%rbp)
	jne	LBB18_12
	jmp	LBB18_11
	.loc	15 1300 11
	ud2
LBB18_6:
	.loc	15 1301 45
	movb	$0, -26(%rbp)
	movq	-72(%rbp), %rax
	movq	%rax, -64(%rbp)
	jmp	LBB18_8
LBB18_7:
	.loc	15 1302 30
	movb	$0, -25(%rbp)
	movq	-80(%rbp), %rax
	movq	%rax, -64(%rbp)
LBB18_8:
	.loc	15 1304 1
	testb	$1, -26(%rbp)
	jne	LBB18_10
LBB18_9:
	testb	$1, -25(%rbp)
	jne	LBB18_14
	jmp	LBB18_13
LBB18_10:
	jmp	LBB18_9
LBB18_11:
	.loc	15 1295 1
	movq	-16(%rbp), %rdi
	callq	__Unwind_Resume
LBB18_12:
	.loc	15 1304 1
	jmp	LBB18_11
LBB18_13:
	.loc	15 1304 2 is_stmt 0
	movq	-64(%rbp), %rax
	addq	$96, %rsp
	popq	%rbp
	retq
LBB18_14:
	.loc	15 1304 1
	jmp	LBB18_13
Ltmp66:
Lfunc_end18:
	.cfi_endproc
	.section	__TEXT,__gcc_except_tab
	.p2align	2
GCC_except_table18:
Lexception0:
	.byte	255
	.byte	255
	.byte	1
	.uleb128 Lcst_end0-Lcst_begin0
Lcst_begin0:
	.uleb128 Ltmp62-Lfunc_begin18
	.uleb128 Ltmp63-Ltmp62
	.uleb128 Ltmp64-Lfunc_begin18
	.byte	0
	.uleb128 Ltmp63-Lfunc_begin18
	.uleb128 Lfunc_end18-Ltmp63
	.byte	0
	.byte	0
Lcst_end0:
	.p2align	2

	.section	__TEXT,__text,regular,pure_instructions
	.globl	__ZN4core3cmp6min_by17h3c5b348fe89a6bf2E
	.p2align	4, 0x90
__ZN4core3cmp6min_by17h3c5b348fe89a6bf2E:
Lfunc_begin19:
	.loc	15 1204 0 is_stmt 1
	.cfi_startproc
	.cfi_personality 155, _rust_eh_personality
	.cfi_lsda 16, Lexception1
	pushq	%rbp
	.cfi_def_cfa_offset 16
	.cfi_offset %rbp, -16
	movq	%rsp, %rbp
	.cfi_def_cfa_register %rbp
	subq	$96, %rsp
	movq	%rdi, -80(%rbp)
	movq	%rsi, -72(%rbp)
Ltmp70:
	.loc	15 1209 11 prologue_end
	movb	$1, -25(%rbp)
	movb	$1, -26(%rbp)
	leaq	-80(%rbp), %rax
	movq	%rax, -48(%rbp)
	leaq	-72(%rbp), %rax
	movq	%rax, -40(%rbp)
	movq	-48(%rbp), %rdi
	movq	-40(%rbp), %rsi
Ltmp67:
	callq	__ZN4core3ops8function6FnOnce9call_once17h9843a1d847caffe4E
Ltmp68:
	movb	%al, -81(%rbp)
	jmp	LBB19_3
LBB19_1:
	.loc	15 1213 1
	jmp	LBB19_4
LBB19_2:
Ltmp69:
	.loc	15 0 1 is_stmt 0
	movq	%rax, %rcx
	movl	%edx, %eax
	movq	%rcx, -16(%rbp)
	movl	%eax, -8(%rbp)
	jmp	LBB19_1
LBB19_3:
	movb	-81(%rbp), %al
	.loc	15 1209 11 is_stmt 1
	movb	%al, -49(%rbp)
	movb	-49(%rbp), %al
	.loc	15 1209 5 is_stmt 0
	incb	%al
	subb	$2, %al
	jb	LBB19_6
	jmp	LBB19_15
LBB19_15:
	jmp	LBB19_7
LBB19_4:
	.loc	15 1213 1 is_stmt 1
	testb	$1, -25(%rbp)
	jne	LBB19_12
	jmp	LBB19_11
	.loc	15 1209 11
	ud2
LBB19_6:
	.loc	15 1210 45
	movb	$0, -25(%rbp)
	movq	-80(%rbp), %rax
	movq	%rax, -64(%rbp)
	jmp	LBB19_8
LBB19_7:
	.loc	15 1211 30
	movb	$0, -26(%rbp)
	movq	-72(%rbp), %rax
	movq	%rax, -64(%rbp)
LBB19_8:
	.loc	15 1213 1
	testb	$1, -26(%rbp)
	jne	LBB19_10
LBB19_9:
	testb	$1, -25(%rbp)
	jne	LBB19_14
	jmp	LBB19_13
LBB19_10:
	jmp	LBB19_9
LBB19_11:
	.loc	15 1204 1
	movq	-16(%rbp), %rdi
	callq	__Unwind_Resume
LBB19_12:
	.loc	15 1213 1
	jmp	LBB19_11
LBB19_13:
	.loc	15 1213 2 is_stmt 0
	movq	-64(%rbp), %rax
	addq	$96, %rsp
	popq	%rbp
	retq
LBB19_14:
	.loc	15 1213 1
	jmp	LBB19_13
Ltmp71:
Lfunc_end19:
	.cfi_endproc
	.section	__TEXT,__gcc_except_tab
	.p2align	2
GCC_except_table19:
Lexception1:
	.byte	255
	.byte	255
	.byte	1
	.uleb128 Lcst_end1-Lcst_begin1
Lcst_begin1:
	.uleb128 Ltmp67-Lfunc_begin19
	.uleb128 Ltmp68-Ltmp67
	.uleb128 Ltmp69-Lfunc_begin19
	.byte	0
	.uleb128 Ltmp68-Lfunc_begin19
	.uleb128 Lfunc_end19-Ltmp68
	.byte	0
	.byte	0
Lcst_end1:
	.p2align	2

	.section	__TEXT,__text,regular,pure_instructions
	.p2align	4, 0x90
__ZN4core3f3221_$LT$impl$u20$f32$GT$3max17he2ca4cdc8e77fa1cE:
Lfunc_begin20:
	.file	16 "/rustc/2c8cc343237b8f7d5a3c3703e3a87f2eb2c54a74/library/core/src/num" "f32.rs"
	.loc	16 849 0 is_stmt 1
	.cfi_startproc
	pushq	%rbp
	.cfi_def_cfa_offset 16
	.cfi_offset %rbp, -16
	movq	%rsp, %rbp
	.cfi_def_cfa_register %rbp
	subq	$12, %rsp
	movaps	%xmm1, %xmm2
	movaps	%xmm0, %xmm3
	movss	%xmm3, -12(%rbp)
	movss	%xmm2, -8(%rbp)
Ltmp72:
	.loc	16 850 9 prologue_end
	movaps	%xmm2, %xmm4
	movaps	%xmm3, %xmm0
	cmpunordss	%xmm0, %xmm0
	movaps	%xmm0, %xmm1
	pand	%xmm4, %xmm1
	maxss	%xmm3, %xmm2
	pandn	%xmm2, %xmm0
	por	%xmm1, %xmm0
	movss	%xmm0, -4(%rbp)
	movss	-4(%rbp), %xmm0
	.loc	16 851 6
	addq	$12, %rsp
	popq	%rbp
	retq
Ltmp73:
Lfunc_end20:
	.cfi_endproc

	.p2align	4, 0x90
__ZN4core3f3221_$LT$impl$u20$f32$GT$3min17he1460c8797fbd2feE:
Lfunc_begin21:
	.loc	16 869 0
	.cfi_startproc
	pushq	%rbp
	.cfi_def_cfa_offset 16
	.cfi_offset %rbp, -16
	movq	%rsp, %rbp
	.cfi_def_cfa_register %rbp
	subq	$12, %rsp
	movaps	%xmm1, %xmm2
	movaps	%xmm0, %xmm3
	movss	%xmm3, -12(%rbp)
	movss	%xmm2, -8(%rbp)
Ltmp74:
	.loc	16 870 9 prologue_end
	movaps	%xmm2, %xmm4
	movaps	%xmm3, %xmm0
	cmpunordss	%xmm0, %xmm0
	movaps	%xmm0, %xmm1
	pand	%xmm4, %xmm1
	minss	%xmm3, %xmm2
	pandn	%xmm2, %xmm0
	por	%xmm1, %xmm0
	movss	%xmm0, -4(%rbp)
	movss	-4(%rbp), %xmm0
	.loc	16 871 6
	addq	$12, %rsp
	popq	%rbp
	retq
Ltmp75:
Lfunc_end21:
	.cfi_endproc

	.section	__TEXT,__literal4,4byte_literals
	.p2align	2
LCPI22_0:
	.long	0x3f800000
	.section	__TEXT,__text,regular,pure_instructions
	.p2align	4, 0x90
__ZN4core3f3221_$LT$impl$u20$f32$GT$5recip17hd0448c12e2481782E:
Lfunc_begin22:
	.loc	16 792 0
	.cfi_startproc
	pushq	%rbp
	.cfi_def_cfa_offset 16
	.cfi_offset %rbp, -16
	movq	%rsp, %rbp
	.cfi_def_cfa_register %rbp
	subq	$4, %rsp
	movaps	%xmm0, %xmm1
	movss	%xmm1, -4(%rbp)
Ltmp76:
	.loc	16 793 9 prologue_end
	movss	LCPI22_0(%rip), %xmm0
	divss	%xmm1, %xmm0
	.loc	16 794 6
	addq	$4, %rsp
	popq	%rbp
	retq
Ltmp77:
Lfunc_end22:
	.cfi_endproc

	.globl	__ZN4core3fmt10ArgumentV19new_debug17h93abda1ed5734f49E
	.p2align	4, 0x90
__ZN4core3fmt10ArgumentV19new_debug17h93abda1ed5734f49E:
Lfunc_begin23:
	.file	17 "/rustc/2c8cc343237b8f7d5a3c3703e3a87f2eb2c54a74/library/core/src/fmt" "mod.rs"
	.loc	17 327 0
	.cfi_startproc
	pushq	%rbp
	.cfi_def_cfa_offset 16
	.cfi_offset %rbp, -16
	movq	%rsp, %rbp
	.cfi_def_cfa_register %rbp
	subq	$56, %rsp
	movq	%rdi, -40(%rbp)
Ltmp78:
	.loc	17 328 23 prologue_end
	movq	%rdi, -32(%rbp)
	.loc	17 328 26 is_stmt 0
	movq	__ZN4core3fmt5float50_$LT$impl$u20$core..fmt..Debug$u20$for$u20$f32$GT$3fmt17h32a9f944cf501db5E@GOTPCREL(%rip), %rax
	movq	%rax, -24(%rbp)
Ltmp79:
	.loc	17 347 42 is_stmt 1
	movq	%rax, -16(%rbp)
	movq	-16(%rbp), %rax
	.loc	17 347 68 is_stmt 0
	movq	%rdi, -8(%rbp)
	movq	-8(%rbp), %rcx
	.loc	17 347 18
	movq	%rcx, -56(%rbp)
	movq	%rax, -48(%rbp)
Ltmp80:
	.loc	17 329 10 is_stmt 1
	movq	-56(%rbp), %rax
	movq	-48(%rbp), %rdx
	addq	$56, %rsp
	popq	%rbp
	retq
Ltmp81:
Lfunc_end23:
	.cfi_endproc

	.p2align	4, 0x90
__ZN4core3fmt3num52_$LT$impl$u20$core..fmt..Debug$u20$for$u20$usize$GT$3fmt17hec43792cc870e3e3E:
Lfunc_begin24:
	.file	18 "/rustc/2c8cc343237b8f7d5a3c3703e3a87f2eb2c54a74/library/core/src/fmt" "num.rs"
	.loc	18 185 0
	.cfi_startproc
	pushq	%rbp
	.cfi_def_cfa_offset 16
	.cfi_offset %rbp, -16
	movq	%rsp, %rbp
	.cfi_def_cfa_register %rbp
	subq	$48, %rsp
	movq	%rsi, -48(%rbp)
	movq	%rdi, %rax
	movq	-48(%rbp), %rdi
	movq	%rax, -40(%rbp)
	movq	%rdi, -32(%rbp)
	movq	%rax, -16(%rbp)
	movq	%rdi, -8(%rbp)
Ltmp82:
	.loc	18 186 20 prologue_end
	callq	__ZN4core3fmt9Formatter15debug_lower_hex17h0921e6b9188d914eE
	testb	$1, %al
	jne	LBB24_2
	.loc	18 0 20 is_stmt 0
	movq	-32(%rbp), %rdi
	.loc	18 188 27 is_stmt 1
	callq	__ZN4core3fmt9Formatter15debug_upper_hex17h8ce487049a6cccf8E
	testb	$1, %al
	jne	LBB24_5
	jmp	LBB24_4
LBB24_2:
	.loc	18 0 27 is_stmt 0
	movq	-32(%rbp), %rsi
	movq	-40(%rbp), %rdi
	.loc	18 187 21 is_stmt 1
	callq	__ZN4core3fmt3num55_$LT$impl$u20$core..fmt..LowerHex$u20$for$u20$usize$GT$3fmt17h84f349805fe63f8dE
	andb	$1, %al
	movb	%al, -17(%rbp)
LBB24_3:
	.loc	18 193 14
	movb	-17(%rbp), %al
	andb	$1, %al
	movzbl	%al, %eax
	addq	$48, %rsp
	popq	%rbp
	retq
LBB24_4:
	.loc	18 0 14 is_stmt 0
	movq	-32(%rbp), %rsi
	movq	-40(%rbp), %rdi
	.loc	18 191 21 is_stmt 1
	callq	__ZN4core3fmt3num3imp54_$LT$impl$u20$core..fmt..Display$u20$for$u20$usize$GT$3fmt17ha5c925fcd7ed33faE
	andb	$1, %al
	movb	%al, -17(%rbp)
	.loc	18 188 24
	jmp	LBB24_6
LBB24_5:
	.loc	18 0 24 is_stmt 0
	movq	-32(%rbp), %rsi
	movq	-40(%rbp), %rdi
	.loc	18 189 21 is_stmt 1
	callq	__ZN4core3fmt3num55_$LT$impl$u20$core..fmt..UpperHex$u20$for$u20$usize$GT$3fmt17h49aa717311edc293E
	andb	$1, %al
	movb	%al, -17(%rbp)
LBB24_6:
	.loc	18 186 17
	jmp	LBB24_3
Ltmp83:
Lfunc_end24:
	.cfi_endproc

	.p2align	4, 0x90
__ZN4core3fmt9Arguments6new_v117h0600de7d391cb688E:
Lfunc_begin25:
	.loc	17 399 0
	.cfi_startproc
	pushq	%rbp
	.cfi_def_cfa_offset 16
	.cfi_offset %rbp, -16
	movq	%rsp, %rbp
	.cfi_def_cfa_register %rbp
	subq	$160, %rsp
	movq	%r8, -152(%rbp)
	movq	%rcx, -144(%rbp)
	movq	%rdx, -136(%rbp)
	movq	%rsi, -128(%rbp)
	movq	%rdi, -120(%rbp)
	movq	%rdi, -112(%rbp)
	movq	%rsi, -32(%rbp)
	movq	%rdx, -24(%rbp)
	movq	%rcx, -16(%rbp)
	movq	%r8, -8(%rbp)
Ltmp84:
	.loc	17 400 12 prologue_end
	cmpq	%r8, %rdx
	jb	LBB25_2
	.loc	17 0 12 is_stmt 0
	movq	-136(%rbp), %rax
	movq	-152(%rbp), %rcx
	.loc	17 400 56
	addq	$1, %rcx
	.loc	17 400 41
	cmpq	%rcx, %rax
	seta	%al
	.loc	17 400 12
	andb	$1, %al
	movb	%al, -97(%rbp)
	jmp	LBB25_3
LBB25_2:
	movb	$1, -97(%rbp)
LBB25_3:
	testb	$1, -97(%rbp)
	jne	LBB25_5
	.loc	17 0 12
	movq	-112(%rbp), %rax
	movq	-120(%rbp), %rcx
	movq	-152(%rbp), %rdx
	movq	-144(%rbp), %rsi
	movq	-136(%rbp), %rdi
	movq	-128(%rbp), %r8
	.loc	17 403 34 is_stmt 1
	movq	$0, -48(%rbp)
	.loc	17 403 9 is_stmt 0
	movq	%r8, 16(%rcx)
	movq	%rdi, 24(%rcx)
	movq	-48(%rbp), %r8
	movq	-40(%rbp), %rdi
	movq	%r8, (%rcx)
	movq	%rdi, 8(%rcx)
	movq	%rsi, 32(%rcx)
	movq	%rdx, 40(%rcx)
	.loc	17 404 6 is_stmt 1
	addq	$160, %rsp
	popq	%rbp
	retq
LBB25_5:
	.loc	17 401 13
	leaq	l___unnamed_3(%rip), %rsi
	leaq	l___unnamed_4(%rip), %rcx
	xorl	%eax, %eax
	movl	%eax, %r8d
	leaq	-96(%rbp), %rdi
	movq	%rdi, -160(%rbp)
	movl	$1, %edx
	callq	__ZN4core3fmt9Arguments6new_v117h0600de7d391cb688E
	movq	-160(%rbp), %rdi
	leaq	l___unnamed_5(%rip), %rsi
	callq	__ZN4core9panicking9panic_fmt17h9b5d807e24bcaaedE
Ltmp85:
Lfunc_end25:
	.cfi_endproc

	.globl	__ZN4core3mem7replace17h3600dce8f988ad7fE
	.p2align	4, 0x90
__ZN4core3mem7replace17h3600dce8f988ad7fE:
Lfunc_begin26:
	.file	19 "/rustc/2c8cc343237b8f7d5a3c3703e3a87f2eb2c54a74/library/core/src/mem" "mod.rs"
	.loc	19 905 0
	.cfi_startproc
	pushq	%rbp
	.cfi_def_cfa_offset 16
	.cfi_offset %rbp, -16
	movq	%rsp, %rbp
	.cfi_def_cfa_register %rbp
	subq	$120, %rsp
	movq	%rdi, -120(%rbp)
	movq	%rsi, -112(%rbp)
	movq	%rdi, -80(%rbp)
	movq	%rsi, -72(%rbp)
Ltmp86:
	.loc	19 910 32 prologue_end
	movq	%rdi, -64(%rbp)
Ltmp87:
	.file	20 "/rustc/2c8cc343237b8f7d5a3c3703e3a87f2eb2c54a74/library/core/src/ptr" "mod.rs"
	.loc	20 1157 34
	leaq	-88(%rbp), %rax
	movq	%rax, -56(%rbp)
	.loc	20 1157 9 is_stmt 0
	movq	(%rdi), %rax
	movq	%rax, -88(%rbp)
	.loc	20 1158 9 is_stmt 1
	movq	-88(%rbp), %rax
	movq	%rax, -104(%rbp)
	movq	%rax, -48(%rbp)
	.loc	20 0 9 is_stmt 0
	movq	-104(%rbp), %rax
	movq	-120(%rbp), %rcx
	movq	-112(%rbp), %rdx
Ltmp88:
	.file	21 "/rustc/2c8cc343237b8f7d5a3c3703e3a87f2eb2c54a74/library/core/src/mem" "maybe_uninit.rs"
	.loc	21 627 38 is_stmt 1
	movq	%rax, -24(%rbp)
Ltmp89:
	.file	22 "/rustc/2c8cc343237b8f7d5a3c3703e3a87f2eb2c54a74/library/core/src/mem" "manually_drop.rs"
	.loc	22 89 9
	movq	%rax, -16(%rbp)
Ltmp90:
	.loc	19 911 20
	movq	%rcx, -8(%rbp)
	.loc	19 911 26 is_stmt 0
	movq	%rdx, -96(%rbp)
Ltmp91:
	.loc	20 1354 9 is_stmt 1
	movq	-96(%rbp), %rdx
	movq	%rdx, (%rcx)
Ltmp92:
	.loc	19 914 2
	addq	$120, %rsp
	popq	%rbp
	retq
Ltmp93:
Lfunc_end26:
	.cfi_endproc

	.globl	__ZN4core3mem7replace17he83c5ff1fe7a5787E
	.p2align	4, 0x90
__ZN4core3mem7replace17he83c5ff1fe7a5787E:
Lfunc_begin27:
	.loc	19 905 0
	.cfi_startproc
	pushq	%rbp
	.cfi_def_cfa_offset 16
	.cfi_offset %rbp, -16
	movq	%rsp, %rbp
	.cfi_def_cfa_register %rbp
	subq	$96, %rsp
	movq	%rdi, -96(%rbp)
	movl	%esi, -88(%rbp)
	movq	%rdi, -72(%rbp)
	movl	%esi, -60(%rbp)
Ltmp94:
	.loc	19 910 32 prologue_end
	movq	%rdi, -56(%rbp)
Ltmp95:
	.loc	20 1157 34
	leaq	-76(%rbp), %rax
	movq	%rax, -48(%rbp)
	.loc	20 1157 9 is_stmt 0
	movl	(%rdi), %eax
	movl	%eax, -76(%rbp)
	.loc	20 1158 9 is_stmt 1
	movl	-76(%rbp), %eax
	movl	%eax, -84(%rbp)
	movl	%eax, -36(%rbp)
	.loc	20 0 9 is_stmt 0
	movl	-84(%rbp), %eax
	movq	-96(%rbp), %rcx
	movl	-88(%rbp), %edx
Ltmp96:
	.loc	21 627 38 is_stmt 1
	movl	%eax, -16(%rbp)
Ltmp97:
	.loc	22 89 9
	movl	%eax, -12(%rbp)
Ltmp98:
	.loc	19 911 20
	movq	%rcx, -8(%rbp)
	.loc	19 911 26 is_stmt 0
	movl	%edx, -80(%rbp)
Ltmp99:
	.loc	20 1354 9 is_stmt 1
	movl	-80(%rbp), %edx
	movl	%edx, (%rcx)
Ltmp100:
	.loc	19 914 2
	addq	$96, %rsp
	popq	%rbp
	retq
Ltmp101:
Lfunc_end27:
	.cfi_endproc

	.p2align	4, 0x90
__ZN4core3num23_$LT$impl$u20$usize$GT$11checked_add17h3d220d3dab135c76E:
Lfunc_begin28:
	.loc	14 442 0
	.cfi_startproc
	pushq	%rbp
	.cfi_def_cfa_offset 16
	.cfi_offset %rbp, -16
	movq	%rsp, %rbp
	.cfi_def_cfa_register %rbp
	subq	$120, %rsp
	movq	%rdi, -80(%rbp)
	movq	%rsi, -72(%rbp)
Ltmp102:
	.loc	14 443 26 prologue_end
	movq	%rdi, -64(%rbp)
	.loc	14 443 47 is_stmt 0
	movq	%rsi, -56(%rbp)
Ltmp103:
	.loc	14 1479 26 is_stmt 1
	addq	%rsi, %rdi
	setb	%al
	andb	$1, %al
	movq	%rdi, -48(%rbp)
	movb	%al, -40(%rbp)
	movq	-48(%rbp), %rcx
	movb	-40(%rbp), %al
	.loc	14 1479 18 is_stmt 0
	movq	%rcx, -32(%rbp)
	.loc	14 1479 21
	movb	%al, %dl
	andb	$1, %dl
	movb	%dl, -17(%rbp)
Ltmp104:
	.loc	14 1480 13 is_stmt 1
	movq	%rcx, -96(%rbp)
	andb	$1, %al
	movb	%al, -88(%rbp)
Ltmp105:
	.loc	14 443 18
	movq	-96(%rbp), %rax
	movq	%rax, -120(%rbp)
	movq	%rax, -16(%rbp)
	.loc	14 443 21 is_stmt 0
	movb	-88(%rbp), %al
	movb	%al, %cl
	andb	$1, %cl
	movb	%cl, -2(%rbp)
Ltmp106:
	.loc	14 444 16 is_stmt 1
	andb	$1, %al
	movb	%al, -1(%rbp)
	testb	$1, -1(%rbp)
	jne	LBB28_2
	.loc	14 0 16 is_stmt 0
	movq	-120(%rbp), %rax
	.loc	14 444 42
	movq	%rax, -104(%rbp)
	movq	$1, -112(%rbp)
	.loc	14 444 13
	jmp	LBB28_3
LBB28_2:
	.loc	14 444 30
	movq	$0, -112(%rbp)
Ltmp107:
LBB28_3:
	.loc	14 445 10 is_stmt 1
	movq	-112(%rbp), %rax
	movq	-104(%rbp), %rdx
	addq	$120, %rsp
	popq	%rbp
	retq
Ltmp108:
Lfunc_end28:
	.cfi_endproc

	.p2align	4, 0x90
__ZN4core3ops8function6FnOnce9call_once17h9843a1d847caffe4E:
Lfunc_begin29:
	.file	23 "/rustc/2c8cc343237b8f7d5a3c3703e3a87f2eb2c54a74/library/core/src/ops" "function.rs"
	.loc	23 250 0
	.cfi_startproc
	pushq	%rbp
	.cfi_def_cfa_offset 16
	.cfi_offset %rbp, -16
	movq	%rsp, %rbp
	.cfi_def_cfa_register %rbp
	subq	$32, %rsp
	movq	%rdi, -24(%rbp)
	movq	%rsi, -16(%rbp)
Ltmp109:
	.loc	23 250 5 prologue_end
	movq	-24(%rbp), %rdi
	movq	-16(%rbp), %rsi
	callq	__ZN4core3cmp5impls50_$LT$impl$u20$core..cmp..Ord$u20$for$u20$usize$GT$3cmp17he38260d2f12e33e4E
	addq	$32, %rsp
	popq	%rbp
	retq
Ltmp110:
Lfunc_end29:
	.cfi_endproc

	.p2align	4, 0x90
__ZN4core3ptr26drop_in_place$LT$usize$GT$17h39b5cb811f88685bE:
Lfunc_begin30:
	.loc	20 490 0
	.cfi_startproc
	pushq	%rbp
	.cfi_def_cfa_offset 16
	.cfi_offset %rbp, -16
	movq	%rsp, %rbp
	.cfi_def_cfa_register %rbp
	pushq	%rax
	movq	%rdi, -8(%rbp)
Ltmp111:
	.loc	20 490 1 prologue_end
	addq	$8, %rsp
	popq	%rbp
	retq
Ltmp112:
Lfunc_end30:
	.cfi_endproc

	.globl	__ZN4core3ptr47drop_in_place$LT$alloc..vec..Vec$LT$f32$GT$$GT$17h5e42e94b0ac57530E
	.p2align	4, 0x90
__ZN4core3ptr47drop_in_place$LT$alloc..vec..Vec$LT$f32$GT$$GT$17h5e42e94b0ac57530E:
Lfunc_begin31:
	.loc	20 490 0
	.cfi_startproc
	.cfi_personality 155, _rust_eh_personality
	.cfi_lsda 16, Lexception2
	pushq	%rbp
	.cfi_def_cfa_offset 16
	.cfi_offset %rbp, -16
	movq	%rsp, %rbp
	.cfi_def_cfa_register %rbp
	subq	$32, %rsp
	movq	%rdi, -32(%rbp)
	movq	%rdi, -24(%rbp)
Ltmp113:
Ltmp119:
	.loc	20 490 1 prologue_end
	callq	__ZN70_$LT$alloc..vec..Vec$LT$T$C$A$GT$$u20$as$u20$core..ops..drop..Drop$GT$4drop17hf804021c9afa5bc1E
Ltmp114:
	jmp	LBB31_3
LBB31_1:
Ltmp116:
	.loc	20 0 1 is_stmt 0
	movq	-32(%rbp), %rdi
	.loc	20 490 1
	callq	__ZN4core3ptr54drop_in_place$LT$alloc..raw_vec..RawVec$LT$f32$GT$$GT$17hf8c4a806093ded7fE
Ltmp117:
	jmp	LBB31_5
LBB31_2:
Ltmp115:
	.loc	20 0 1
	movq	%rax, %rcx
	movl	%edx, %eax
	movq	%rcx, -16(%rbp)
	movl	%eax, -8(%rbp)
	jmp	LBB31_1
LBB31_3:
	movq	-32(%rbp), %rdi
	.loc	20 490 1
	callq	__ZN4core3ptr54drop_in_place$LT$alloc..raw_vec..RawVec$LT$f32$GT$$GT$17hf8c4a806093ded7fE
	addq	$32, %rsp
	popq	%rbp
	retq
LBB31_4:
Ltmp118:
	callq	__ZN4core9panicking19panic_cannot_unwind17h1fbca7e1d7f56ae1E
LBB31_5:
	movq	-16(%rbp), %rdi
	callq	__Unwind_Resume
Ltmp120:
Lfunc_end31:
	.cfi_endproc
	.section	__TEXT,__gcc_except_tab
	.p2align	2
GCC_except_table31:
Lexception2:
	.byte	255
	.byte	255
	.byte	1
	.uleb128 Lcst_end2-Lcst_begin2
Lcst_begin2:
	.uleb128 Ltmp113-Lfunc_begin31
	.uleb128 Ltmp114-Ltmp113
	.uleb128 Ltmp115-Lfunc_begin31
	.byte	0
	.uleb128 Ltmp116-Lfunc_begin31
	.uleb128 Ltmp117-Ltmp116
	.uleb128 Ltmp118-Lfunc_begin31
	.byte	0
	.uleb128 Ltmp117-Lfunc_begin31
	.uleb128 Lfunc_end31-Ltmp117
	.byte	0
	.byte	0
Lcst_end2:
	.p2align	2

	.section	__TEXT,__text,regular,pure_instructions
	.globl	__ZN4core3ptr54drop_in_place$LT$alloc..raw_vec..RawVec$LT$f32$GT$$GT$17hf8c4a806093ded7fE
	.p2align	4, 0x90
__ZN4core3ptr54drop_in_place$LT$alloc..raw_vec..RawVec$LT$f32$GT$$GT$17hf8c4a806093ded7fE:
Lfunc_begin32:
	.loc	20 490 0 is_stmt 1
	.cfi_startproc
	pushq	%rbp
	.cfi_def_cfa_offset 16
	.cfi_offset %rbp, -16
	movq	%rsp, %rbp
	.cfi_def_cfa_register %rbp
	subq	$16, %rsp
	movq	%rdi, -8(%rbp)
Ltmp121:
	.loc	20 490 1 prologue_end
	callq	__ZN77_$LT$alloc..raw_vec..RawVec$LT$T$C$A$GT$$u20$as$u20$core..ops..drop..Drop$GT$4drop17h3e67cc277836583cE
	addq	$16, %rsp
	popq	%rbp
	retq
Ltmp122:
Lfunc_end32:
	.cfi_endproc

	.globl	__ZN4core3ptr62drop_in_place$LT$alloc..vec..set_len_on_drop..SetLenOnDrop$GT$17ha1222b58a5c6fd84E
	.p2align	4, 0x90
__ZN4core3ptr62drop_in_place$LT$alloc..vec..set_len_on_drop..SetLenOnDrop$GT$17ha1222b58a5c6fd84E:
Lfunc_begin33:
	.loc	20 490 0
	.cfi_startproc
	pushq	%rbp
	.cfi_def_cfa_offset 16
	.cfi_offset %rbp, -16
	movq	%rsp, %rbp
	.cfi_def_cfa_register %rbp
	subq	$16, %rsp
	movq	%rdi, -8(%rbp)
Ltmp123:
	.loc	20 490 1 prologue_end
	callq	__ZN83_$LT$alloc..vec..set_len_on_drop..SetLenOnDrop$u20$as$u20$core..ops..drop..Drop$GT$4drop17ha10391e0b4ca99fcE
	addq	$16, %rsp
	popq	%rbp
	retq
Ltmp124:
Lfunc_end33:
	.cfi_endproc

	.globl	__ZN4core3ptr8non_null16NonNull$LT$T$GT$3new17hfa0ba6c6658ded81E
	.p2align	4, 0x90
__ZN4core3ptr8non_null16NonNull$LT$T$GT$3new17hfa0ba6c6658ded81E:
Lfunc_begin34:
	.loc	8 222 0
	.cfi_startproc
	pushq	%rbp
	.cfi_def_cfa_offset 16
	.cfi_offset %rbp, -16
	movq	%rsp, %rbp
	.cfi_def_cfa_register %rbp
	subq	$88, %rsp
	movq	%rdi, -88(%rbp)
	movq	%rdi, -56(%rbp)
Ltmp125:
	.loc	8 223 13 prologue_end
	movq	%rdi, -48(%rbp)
Ltmp126:
	.file	24 "/rustc/2c8cc343237b8f7d5a3c3703e3a87f2eb2c54a74/library/core/src/ptr" "mut_ptr.rs"
	.loc	24 52 36
	movq	%rdi, -64(%rbp)
	.loc	24 52 18 is_stmt 0
	movq	-64(%rbp), %rax
	movq	%rax, -40(%rbp)
Ltmp127:
	.loc	24 38 13 is_stmt 1
	movq	%rax, -32(%rbp)
Ltmp128:
	.loc	24 215 33
	movq	%rax, -24(%rbp)
	.loc	24 215 18 is_stmt 0
	movq	%rax, -16(%rbp)
Ltmp129:
	.loc	24 38 13 is_stmt 1
	cmpq	$0, -16(%rbp)
	sete	%al
Ltmp130:
	.loc	8 223 12
	xorb	$-1, %al
	testb	$1, %al
	jne	LBB34_2
	.loc	8 227 13
	movq	$0, -80(%rbp)
	.loc	8 223 9
	jmp	LBB34_3
LBB34_2:
	.loc	8 0 9 is_stmt 0
	movq	-88(%rbp), %rax
	.loc	8 225 47 is_stmt 1
	movq	%rax, -8(%rbp)
Ltmp131:
	.loc	8 201 13
	movq	%rax, -72(%rbp)
Ltmp132:
	.loc	8 225 13
	movq	-72(%rbp), %rax
	movq	%rax, -80(%rbp)
LBB34_3:
	.loc	8 229 6
	movq	-80(%rbp), %rax
	addq	$88, %rsp
	popq	%rbp
	retq
Ltmp133:
Lfunc_end34:
	.cfi_endproc

	.globl	__ZN4core3ptr8non_null26NonNull$LT$$u5b$T$u5d$$GT$20slice_from_raw_parts17he182d5606049d4deE
	.p2align	4, 0x90
__ZN4core3ptr8non_null26NonNull$LT$$u5b$T$u5d$$GT$20slice_from_raw_parts17he182d5606049d4deE:
Lfunc_begin35:
	.loc	8 482 0
	.cfi_startproc
	pushq	%rbp
	.cfi_def_cfa_offset 16
	.cfi_offset %rbp, -16
	movq	%rsp, %rbp
	.cfi_def_cfa_register %rbp
	subq	$128, %rsp
	movq	%rdi, -80(%rbp)
	movq	%rsi, -72(%rbp)
Ltmp134:
	.loc	8 484 70 prologue_end
	movq	%rdi, -64(%rbp)
Ltmp135:
	.loc	8 326 9
	movq	%rdi, -56(%rbp)
Ltmp136:
	.loc	8 484 85
	movq	%rsi, -48(%rbp)
Ltmp137:
	.loc	20 766 24
	movq	%rdi, -40(%rbp)
Ltmp138:
	.loc	24 60 9
	movq	%rdi, -32(%rbp)
Ltmp139:
	.loc	20 766 37
	movq	%rsi, -24(%rbp)
Ltmp140:
	.file	25 "/rustc/2c8cc343237b8f7d5a3c3703e3a87f2eb2c54a74/library/core/src/ptr" "metadata.rs"
	.loc	25 135 36
	movq	%rdi, -96(%rbp)
	movq	%rsi, -88(%rbp)
	.loc	25 135 14 is_stmt 0
	movq	-96(%rbp), %rcx
	movq	-88(%rbp), %rax
	movq	%rcx, -112(%rbp)
	movq	%rax, -104(%rbp)
	movq	-112(%rbp), %rcx
	movq	-104(%rbp), %rax
	movq	%rcx, -16(%rbp)
	movq	%rax, -8(%rbp)
Ltmp141:
	.loc	8 201 13 is_stmt 1
	movq	%rcx, -128(%rbp)
	movq	%rax, -120(%rbp)
Ltmp142:
	.loc	8 485 6
	movq	-128(%rbp), %rax
	movq	-120(%rbp), %rdx
	addq	$128, %rsp
	popq	%rbp
	retq
Ltmp143:
Lfunc_end35:
	.cfi_endproc

	.p2align	4, 0x90
__ZN4core4hint21unreachable_unchecked17h38698a92accb6f6fE:
Lfunc_begin36:
	.file	26 "/rustc/2c8cc343237b8f7d5a3c3703e3a87f2eb2c54a74/library/core/src" "hint.rs"
	.loc	26 100 0
	.cfi_startproc
	pushq	%rbp
	.cfi_def_cfa_offset 16
	.cfi_offset %rbp, -16
	movq	%rsp, %rbp
	.cfi_def_cfa_register %rbp
Ltmp144:
	.loc	26 104 9 prologue_end
	ud2
Ltmp145:
Lfunc_end36:
	.cfi_endproc

	.globl	__ZN4core4iter5range101_$LT$impl$u20$core..iter..traits..iterator..Iterator$u20$for$u20$core..ops..range..Range$LT$A$GT$$GT$4next17h880630df7290efceE
	.p2align	4, 0x90
__ZN4core4iter5range101_$LT$impl$u20$core..iter..traits..iterator..Iterator$u20$for$u20$core..ops..range..Range$LT$A$GT$$GT$4next17h880630df7290efceE:
Lfunc_begin37:
	.loc	12 710 0
	.cfi_startproc
	pushq	%rbp
	.cfi_def_cfa_offset 16
	.cfi_offset %rbp, -16
	movq	%rsp, %rbp
	.cfi_def_cfa_register %rbp
	subq	$16, %rsp
	movq	%rdi, -8(%rbp)
Ltmp146:
	.loc	12 711 9 prologue_end
	callq	__ZN89_$LT$core..ops..range..Range$LT$T$GT$$u20$as$u20$core..iter..range..RangeIteratorImpl$GT$9spec_next17hc822fc7dba4a2e68E
	.loc	12 712 6
	addq	$16, %rsp
	popq	%rbp
	retq
Ltmp147:
Lfunc_end37:
	.cfi_endproc

	.globl	__ZN4core4iter5range101_$LT$impl$u20$core..iter..traits..iterator..Iterator$u20$for$u20$core..ops..range..Range$LT$A$GT$$GT$4next17h9cdbd81401b9c075E
	.p2align	4, 0x90
__ZN4core4iter5range101_$LT$impl$u20$core..iter..traits..iterator..Iterator$u20$for$u20$core..ops..range..Range$LT$A$GT$$GT$4next17h9cdbd81401b9c075E:
Lfunc_begin38:
	.loc	12 710 0
	.cfi_startproc
	pushq	%rbp
	.cfi_def_cfa_offset 16
	.cfi_offset %rbp, -16
	movq	%rsp, %rbp
	.cfi_def_cfa_register %rbp
	subq	$16, %rsp
	movq	%rdi, -8(%rbp)
Ltmp148:
	.loc	12 711 9 prologue_end
	callq	__ZN89_$LT$core..ops..range..Range$LT$T$GT$$u20$as$u20$core..iter..range..RangeIteratorImpl$GT$9spec_next17h4e56ff42bc5d0b85E
	.loc	12 712 6
	addq	$16, %rsp
	popq	%rbp
	retq
Ltmp149:
Lfunc_end38:
	.cfi_endproc

	.globl	__ZN4core4sync6atomic11atomic_load17h1cc068196a86366eE
	.p2align	4, 0x90
__ZN4core4sync6atomic11atomic_load17h1cc068196a86366eE:
Lfunc_begin39:
	.loc	7 3019 0
	.cfi_startproc
	pushq	%rbp
	.cfi_def_cfa_offset 16
	.cfi_offset %rbp, -16
	movq	%rsp, %rbp
	.cfi_def_cfa_register %rbp
	subq	$160, %rsp
	movq	%rdi, -136(%rbp)
	movb	%sil, %al
	movb	%al, -113(%rbp)
	movq	%rdi, -8(%rbp)
Ltmp150:
	.loc	7 3022 15 prologue_end
	movzbl	-113(%rbp), %eax
	movq	%rax, -128(%rbp)
	.loc	7 0 15 is_stmt 0
	movq	-128(%rbp), %rax
	leaq	LJTI39_0(%rip), %rcx
	movslq	(%rcx,%rax,4), %rax
	addq	%rcx, %rax
	jmpq	*%rax
	.loc	7 3022 15
	ud2
LBB39_2:
	.loc	7 0 15
	movq	-136(%rbp), %rax
	.loc	7 3023 24 is_stmt 1
	movq	(%rax), %rax
	movq	%rax, -112(%rbp)
	.loc	7 3023 59 is_stmt 0
	jmp	LBB39_7
LBB39_3:
	.loc	7 3026 24 is_stmt 1
	leaq	l___unnamed_6(%rip), %rsi
	leaq	l___unnamed_4(%rip), %rcx
	xorl	%eax, %eax
	movl	%eax, %r8d
	leaq	-104(%rbp), %rdi
	movq	%rdi, -144(%rbp)
	movl	$1, %edx
	callq	__ZN4core3fmt9Arguments6new_v117h0600de7d391cb688E
	movq	-144(%rbp), %rdi
	leaq	l___unnamed_7(%rip), %rsi
	callq	__ZN4core9panicking9panic_fmt17h9b5d807e24bcaaedE
LBB39_4:
	.loc	7 0 24 is_stmt 0
	movq	-136(%rbp), %rax
	.loc	7 3024 24 is_stmt 1
	movq	(%rax), %rax
	movq	%rax, -112(%rbp)
	.loc	7 3024 59 is_stmt 0
	jmp	LBB39_7
LBB39_5:
	.loc	7 3027 23 is_stmt 1
	leaq	l___unnamed_8(%rip), %rsi
	leaq	l___unnamed_4(%rip), %rcx
	xorl	%eax, %eax
	movl	%eax, %r8d
	leaq	-56(%rbp), %rdi
	movq	%rdi, -152(%rbp)
	movl	$1, %edx
	callq	__ZN4core3fmt9Arguments6new_v117h0600de7d391cb688E
	movq	-152(%rbp), %rdi
	leaq	l___unnamed_9(%rip), %rsi
	callq	__ZN4core9panicking9panic_fmt17h9b5d807e24bcaaedE
LBB39_6:
	.loc	7 0 23 is_stmt 0
	movq	-136(%rbp), %rax
	.loc	7 3025 23 is_stmt 1
	movq	(%rax), %rax
	movq	%rax, -112(%rbp)
LBB39_7:
	.loc	7 3030 2
	movq	-112(%rbp), %rax
	addq	$160, %rsp
	popq	%rbp
	retq
Ltmp151:
Lfunc_end39:
	.cfi_endproc
	.p2align	2, 0x90
	.data_region jt32
.set L39_0_set_2, LBB39_2-LJTI39_0
.set L39_0_set_3, LBB39_3-LJTI39_0
.set L39_0_set_4, LBB39_4-LJTI39_0
.set L39_0_set_5, LBB39_5-LJTI39_0
.set L39_0_set_6, LBB39_6-LJTI39_0
LJTI39_0:
	.long	L39_0_set_2
	.long	L39_0_set_3
	.long	L39_0_set_4
	.long	L39_0_set_5
	.long	L39_0_set_6
	.end_data_region

	.p2align	4, 0x90
__ZN4core5alloc6layout6Layout5array5inner17h6a7b267abbd56659E:
Lfunc_begin40:
	.file	27 "/rustc/2c8cc343237b8f7d5a3c3703e3a87f2eb2c54a74/library/core/src/alloc" "layout.rs"
	.loc	27 441 0
	.cfi_startproc
	pushq	%rbp
	.cfi_def_cfa_offset 16
	.cfi_offset %rbp, -16
	movq	%rsp, %rbp
	.cfi_def_cfa_register %rbp
	subq	$176, %rsp
	movq	%rdi, -168(%rbp)
	movq	%rsi, -160(%rbp)
	movq	%rdx, -152(%rbp)
	movq	%rdi, -88(%rbp)
	movq	%rsi, -80(%rbp)
	movq	%rdx, -72(%rbp)
Ltmp152:
	.loc	27 452 16 prologue_end
	cmpq	$0, %rdi
	jne	LBB40_2
	movb	$0, -121(%rbp)
	jmp	LBB40_5
LBB40_2:
	.loc	27 0 16 is_stmt 0
	movq	-168(%rbp), %rax
	movq	-160(%rbp), %rcx
	.loc	27 452 68
	movq	%rcx, -64(%rbp)
Ltmp153:
	.loc	27 93 32 is_stmt 1
	movq	%rcx, -56(%rbp)
Ltmp154:
	.file	28 "/rustc/2c8cc343237b8f7d5a3c3703e3a87f2eb2c54a74/library/core/src/ptr" "alignment.rs"
	.loc	28 97 9
	movq	%rcx, -104(%rbp)
	movq	-104(%rbp), %rdx
Ltmp155:
	.loc	27 93 31
	subq	$1, %rdx
	.loc	27 93 9 is_stmt 0
	movabsq	$9223372036854775807, %rcx
	subq	%rdx, %rcx
	movq	%rcx, -176(%rbp)
Ltmp156:
	.loc	27 452 41 is_stmt 1
	cmpq	$0, %rax
	sete	%al
	testb	$1, %al
	jne	LBB40_4
	.loc	27 0 41 is_stmt 0
	movq	-168(%rbp), %rcx
	movq	-176(%rbp), %rax
	.loc	27 452 41
	xorl	%edx, %edx
	divq	%rcx
	movq	%rax, %rcx
	movq	-152(%rbp), %rax
	.loc	27 452 37
	cmpq	%rcx, %rax
	seta	%al
	.loc	27 452 16
	andb	$1, %al
	movb	%al, -121(%rbp)
	jmp	LBB40_5
LBB40_4:
	.loc	27 452 41
	leaq	_str.0(%rip), %rdi
	leaq	l___unnamed_10(%rip), %rdx
	movl	$25, %esi
	callq	__ZN4core9panicking5panic17hc1bc45270cf64b03E
LBB40_5:
	.loc	27 452 16
	testb	$1, -121(%rbp)
	jne	LBB40_7
	.loc	27 0 16
	movq	-160(%rbp), %rax
	movq	-152(%rbp), %rdx
	movq	-168(%rbp), %rcx
	.loc	27 456 30 is_stmt 1
	imulq	%rdx, %rcx
	movq	%rcx, -48(%rbp)
Ltmp157:
	.loc	27 461 59
	movq	%rcx, -40(%rbp)
	.loc	27 461 71 is_stmt 0
	movq	%rax, -32(%rbp)
Ltmp158:
	.loc	28 97 9 is_stmt 1
	movq	%rax, -96(%rbp)
	movq	-96(%rbp), %rax
	movq	%rax, -24(%rbp)
Ltmp159:
	.loc	27 120 65
	movq	%rax, -16(%rbp)
Ltmp160:
	.loc	28 89 18
	movq	%rax, -8(%rbp)
	movq	-8(%rbp), %rax
Ltmp161:
	.loc	27 120 18
	movq	%rcx, -120(%rbp)
	movq	%rax, -112(%rbp)
Ltmp162:
	.loc	27 461 22
	movq	-120(%rbp), %rcx
	movq	-112(%rbp), %rax
	movq	%rcx, -144(%rbp)
	movq	%rax, -136(%rbp)
Ltmp163:
	.loc	27 462 10
	jmp	LBB40_8
LBB40_7:
	.loc	27 453 24
	movq	$0, -136(%rbp)
LBB40_8:
	.loc	27 462 10
	movq	-144(%rbp), %rax
	movq	-136(%rbp), %rdx
	addq	$176, %rsp
	popq	%rbp
	retq
Ltmp164:
Lfunc_end40:
	.cfi_endproc

	.globl	__ZN4core5slice4iter16IterMut$LT$T$GT$3new17hf37418b93fc645c2E
	.p2align	4, 0x90
__ZN4core5slice4iter16IterMut$LT$T$GT$3new17hf37418b93fc645c2E:
Lfunc_begin41:
	.file	29 "/rustc/2c8cc343237b8f7d5a3c3703e3a87f2eb2c54a74/library/core/src/slice" "iter.rs"
	.loc	29 203 0
	.cfi_startproc
	pushq	%rbp
	.cfi_def_cfa_offset 16
	.cfi_offset %rbp, -16
	movq	%rsp, %rbp
	.cfi_def_cfa_register %rbp
	subq	$288, %rsp
	movq	%rdi, -288(%rbp)
	movq	%rsi, -280(%rbp)
	movq	%rdi, -216(%rbp)
	movq	%rsi, -208(%rbp)
Ltmp165:
	.loc	29 204 19 prologue_end
	movq	%rdi, -192(%rbp)
	movq	%rsi, -184(%rbp)
Ltmp166:
	.loc	2 507 9
	movq	%rdi, -176(%rbp)
Ltmp167:
	.loc	29 222 21
	movq	%rdi, -168(%rbp)
Ltmp168:
	.loc	24 52 36
	movq	%rdi, -240(%rbp)
	.loc	24 52 18 is_stmt 0
	movq	-240(%rbp), %rax
	movq	%rax, -160(%rbp)
Ltmp169:
	.loc	24 38 13 is_stmt 1
	movq	%rax, -152(%rbp)
Ltmp170:
	.loc	24 215 33
	movq	%rax, -144(%rbp)
	.loc	24 215 18 is_stmt 0
	movq	%rax, -136(%rbp)
Ltmp171:
	.loc	29 225 20 is_stmt 1
	xorl	%eax, %eax
	testb	$1, %al
	jne	LBB41_2
	.loc	29 0 20 is_stmt 0
	movq	-288(%rbp), %rax
	movq	-280(%rbp), %rcx
	.loc	29 225 76
	movq	%rax, -48(%rbp)
	.loc	29 225 84
	movq	%rcx, -40(%rbp)
Ltmp172:
	.loc	24 1034 18 is_stmt 1
	movq	%rax, -32(%rbp)
	.loc	24 1034 30 is_stmt 0
	movq	%rcx, -24(%rbp)
Ltmp173:
	.loc	24 487 18 is_stmt 1
	shlq	$2, %rcx
	addq	%rcx, %rax
	movq	%rax, -16(%rbp)
	movq	-16(%rbp), %rax
	movq	%rax, -256(%rbp)
Ltmp174:
	.loc	29 225 17
	jmp	LBB41_3
LBB41_2:
	.loc	29 0 17 is_stmt 0
	movq	-280(%rbp), %rcx
	movq	-288(%rbp), %rax
	.loc	29 225 32
	movq	%rax, -128(%rbp)
	.loc	29 225 54
	movq	%rcx, -120(%rbp)
Ltmp175:
	.loc	24 1220 9 is_stmt 1
	movq	%rax, -112(%rbp)
Ltmp176:
	.loc	24 60 9
	movq	%rax, -104(%rbp)
Ltmp177:
	.loc	24 1220 40
	movq	%rcx, -96(%rbp)
Ltmp178:
	.loc	24 1202 9
	movq	%rax, -88(%rbp)
	.loc	24 1202 30 is_stmt 0
	movq	%rcx, -80(%rbp)
Ltmp179:
	.loc	24 568 18 is_stmt 1
	addq	%rcx, %rax
	movq	%rax, -72(%rbp)
	movq	-72(%rbp), %rax
	movq	%rax, -64(%rbp)
Ltmp180:
	.loc	24 99 33
	movq	%rax, -56(%rbp)
Ltmp181:
	.loc	25 135 36
	movq	%rax, -224(%rbp)
	.loc	25 135 14 is_stmt 0
	movq	-224(%rbp), %rax
	movq	%rax, -232(%rbp)
	movq	-232(%rbp), %rax
	movq	%rax, -256(%rbp)
Ltmp182:
LBB41_3:
	.loc	25 0 14
	movq	-288(%rbp), %rax
Ltmp183:
	.loc	29 227 48 is_stmt 1
	movq	%rax, -8(%rbp)
Ltmp184:
	.loc	8 201 13
	movq	%rax, -248(%rbp)
Ltmp185:
	.loc	29 227 54
	movq	-256(%rbp), %rax
	.loc	29 227 13 is_stmt 0
	movq	-248(%rbp), %rcx
	movq	%rcx, -264(%rbp)
	movq	%rax, -272(%rbp)
Ltmp186:
	.loc	29 229 6 is_stmt 1
	movq	-272(%rbp), %rax
	movq	-264(%rbp), %rdx
	addq	$288, %rsp
	popq	%rbp
	retq
Ltmp187:
Lfunc_end41:
	.cfi_endproc

	.globl	__ZN4core6result19Result$LT$T$C$E$GT$16unwrap_unchecked17h4fb7dcdb65ec32d9E
	.p2align	4, 0x90
__ZN4core6result19Result$LT$T$C$E$GT$16unwrap_unchecked17h4fb7dcdb65ec32d9E:
Lfunc_begin42:
	.file	30 "/rustc/2c8cc343237b8f7d5a3c3703e3a87f2eb2c54a74/library/core/src" "result.rs"
	.loc	30 1530 0
	.cfi_startproc
	.cfi_personality 155, _rust_eh_personality
	.cfi_lsda 16, Lexception3
	pushq	%rbp
	.cfi_def_cfa_offset 16
	.cfi_offset %rbp, -16
	movq	%rsp, %rbp
	.cfi_def_cfa_register %rbp
	subq	$64, %rsp
	movq	%rdi, -48(%rbp)
	movq	%rsi, -40(%rbp)
Ltmp191:
	.loc	30 1532 15 prologue_end
	xorl	%eax, %eax
	movl	$1, %ecx
	cmpq	$0, -40(%rbp)
	cmoveq	%rcx, %rax
	.loc	30 1532 9 is_stmt 0
	cmpq	$0, %rax
	jne	LBB42_2
	.loc	30 1533 16 is_stmt 1
	movq	-48(%rbp), %rcx
	movq	%rcx, -64(%rbp)
	movq	-40(%rbp), %rax
	movq	%rax, -56(%rbp)
	movq	%rcx, -16(%rbp)
	movq	%rax, -8(%rbp)
	.loc	30 1537 5
	xorl	%eax, %eax
	movl	$1, %ecx
	cmpq	$0, -40(%rbp)
	cmoveq	%rcx, %rax
	cmpq	$0, %rax
	je	LBB42_10
	jmp	LBB42_11
LBB42_2:
Ltmp188:
	.loc	30 1535 32
	callq	__ZN4core4hint21unreachable_unchecked17h38698a92accb6f6fE
Ltmp189:
	jmp	LBB42_5
LBB42_3:
	.loc	30 1537 5
	xorl	%eax, %eax
	movl	$1, %ecx
	cmpq	$0, -40(%rbp)
	cmoveq	%rcx, %rax
	cmpq	$0, %rax
	je	LBB42_6
	jmp	LBB42_7
LBB42_4:
Ltmp190:
	.loc	30 0 5 is_stmt 0
	movq	%rax, %rcx
	movl	%edx, %eax
	movq	%rcx, -32(%rbp)
	movl	%eax, -24(%rbp)
	jmp	LBB42_3
LBB42_5:
	ud2
LBB42_6:
	.loc	30 1537 5
	movb	$1, %al
	testb	$1, %al
	jne	LBB42_9
	jmp	LBB42_8
LBB42_7:
	jmp	LBB42_8
LBB42_8:
	.loc	30 1530 5 is_stmt 1
	movq	-32(%rbp), %rdi
	callq	__Unwind_Resume
LBB42_9:
	.loc	30 1537 5
	jmp	LBB42_8
LBB42_10:
	.loc	30 0 5 is_stmt 0
	movq	-56(%rbp), %rdx
	movq	-64(%rbp), %rax
	.loc	30 1537 6
	addq	$64, %rsp
	popq	%rbp
	retq
LBB42_11:
	.loc	30 1537 5
	jmp	LBB42_10
Ltmp192:
Lfunc_end42:
	.cfi_endproc
	.section	__TEXT,__gcc_except_tab
	.p2align	2
GCC_except_table42:
Lexception3:
	.byte	255
	.byte	255
	.byte	1
	.uleb128 Lcst_end3-Lcst_begin3
Lcst_begin3:
	.uleb128 Ltmp188-Lfunc_begin42
	.uleb128 Ltmp189-Ltmp188
	.uleb128 Ltmp190-Lfunc_begin42
	.byte	0
	.uleb128 Ltmp189-Lfunc_begin42
	.uleb128 Lfunc_end42-Ltmp189
	.byte	0
	.byte	0
Lcst_end3:
	.p2align	2

	.section	__TEXT,__text,regular,pure_instructions
	.globl	__ZN4core6result19Result$LT$T$C$E$GT$7map_err17h0491a5d83f260341E
	.p2align	4, 0x90
__ZN4core6result19Result$LT$T$C$E$GT$7map_err17h0491a5d83f260341E:
Lfunc_begin43:
	.loc	30 857 0 is_stmt 1
	.cfi_startproc
	pushq	%rbp
	.cfi_def_cfa_offset 16
	.cfi_offset %rbp, -16
	movq	%rsp, %rbp
	.cfi_def_cfa_register %rbp
	subq	$80, %rsp
	movq	%rcx, -80(%rbp)
	movq	%rdi, -72(%rbp)
	movq	%rdi, -64(%rbp)
	movq	%rsi, -56(%rbp)
	movq	%rdx, -48(%rbp)
	movq	%rcx, -32(%rbp)
Ltmp193:
	.loc	30 858 15 prologue_end
	movb	$1, -33(%rbp)
	movq	-56(%rbp), %rdx
	xorl	%eax, %eax
	movl	$1, %ecx
	cmpq	$0, %rdx
	cmoveq	%rcx, %rax
	.loc	30 858 9 is_stmt 0
	cmpq	$0, %rax
	jne	LBB43_2
	.loc	30 0 9
	movq	-72(%rbp), %rax
	.loc	30 859 16 is_stmt 1
	movq	-56(%rbp), %rdx
	movq	-48(%rbp), %rcx
	movq	%rdx, -16(%rbp)
	movq	%rcx, -8(%rbp)
Ltmp194:
	.loc	30 859 22 is_stmt 0
	movq	%rdx, 8(%rax)
	movq	%rcx, 16(%rax)
	movq	$0, (%rax)
Ltmp195:
	.loc	30 859 26
	jmp	LBB43_3
LBB43_2:
	.loc	30 0 26
	movq	-80(%rbp), %rdi
Ltmp196:
	.loc	30 860 27 is_stmt 1
	movb	$0, -33(%rbp)
	callq	__ZN5alloc7raw_vec11finish_grow28_$u7b$$u7b$closure$u7d$$u7d$17hd41b2e8578c489cfE
	movq	%rax, %rcx
	movq	-72(%rbp), %rax
	.loc	30 860 23 is_stmt 0
	movq	%rcx, 8(%rax)
	movq	%rdx, 16(%rax)
	movq	$1, (%rax)
Ltmp197:
LBB43_3:
	.loc	30 862 5 is_stmt 1
	testb	$1, -33(%rbp)
	jne	LBB43_5
LBB43_4:
	.loc	30 0 5 is_stmt 0
	movq	-64(%rbp), %rax
	.loc	30 862 6
	addq	$80, %rsp
	popq	%rbp
	retq
LBB43_5:
	.loc	30 862 5
	jmp	LBB43_4
Ltmp198:
Lfunc_end43:
	.cfi_endproc

	.globl	__ZN4core6result19Result$LT$T$C$E$GT$7map_err17hcb709856a8b69863E
	.p2align	4, 0x90
__ZN4core6result19Result$LT$T$C$E$GT$7map_err17hcb709856a8b69863E:
Lfunc_begin44:
	.loc	30 857 0 is_stmt 1
	.cfi_startproc
	pushq	%rbp
	.cfi_def_cfa_offset 16
	.cfi_offset %rbp, -16
	movq	%rsp, %rbp
	.cfi_def_cfa_register %rbp
	subq	$80, %rsp
	movq	%rdi, -72(%rbp)
	movq	%rdi, -64(%rbp)
	movq	%rsi, -56(%rbp)
	movq	%rdx, -48(%rbp)
Ltmp199:
	.loc	30 858 15 prologue_end
	movb	$1, -33(%rbp)
	xorl	%eax, %eax
	movl	$1, %ecx
	cmpq	$0, -48(%rbp)
	cmoveq	%rcx, %rax
	.loc	30 858 9 is_stmt 0
	cmpq	$0, %rax
	jne	LBB44_2
	.loc	30 0 9
	movq	-72(%rbp), %rax
	.loc	30 859 16 is_stmt 1
	movq	-56(%rbp), %rdx
	movq	-48(%rbp), %rcx
	movq	%rdx, -16(%rbp)
	movq	%rcx, -8(%rbp)
Ltmp200:
	.loc	30 859 22 is_stmt 0
	movq	%rdx, 8(%rax)
	movq	%rcx, 16(%rax)
	movq	$0, (%rax)
Ltmp201:
	.loc	30 859 26
	jmp	LBB44_3
LBB44_2:
Ltmp202:
	.loc	30 860 27 is_stmt 1
	movb	$0, -33(%rbp)
	callq	__ZN5alloc7raw_vec11finish_grow28_$u7b$$u7b$closure$u7d$$u7d$17hd83a0bc3551b7452E
	movq	%rax, %rcx
	movq	-72(%rbp), %rax
	.loc	30 860 23 is_stmt 0
	movq	%rcx, 8(%rax)
	movq	%rdx, 16(%rax)
	movq	$1, (%rax)
Ltmp203:
LBB44_3:
	.loc	30 862 5 is_stmt 1
	testb	$1, -33(%rbp)
	jne	LBB44_5
LBB44_4:
	.loc	30 0 5 is_stmt 0
	movq	-64(%rbp), %rax
	.loc	30 862 6
	addq	$80, %rsp
	popq	%rbp
	retq
LBB44_5:
	.loc	30 862 5
	jmp	LBB44_4
Ltmp204:
Lfunc_end44:
	.cfi_endproc

	.globl	__ZN4core6result19Result$LT$T$C$E$GT$7map_err17hcc85c8a69a8ee953E
	.p2align	4, 0x90
__ZN4core6result19Result$LT$T$C$E$GT$7map_err17hcc85c8a69a8ee953E:
Lfunc_begin45:
	.loc	30 857 0 is_stmt 1
	.cfi_startproc
	pushq	%rbp
	.cfi_def_cfa_offset 16
	.cfi_offset %rbp, -16
	movq	%rsp, %rbp
	.cfi_def_cfa_register %rbp
	subq	$96, %rsp
	movq	%rdi, -88(%rbp)
	movq	%rsi, -80(%rbp)
Ltmp205:
	.loc	30 858 15 prologue_end
	movb	$1, -33(%rbp)
	movabsq	$-9223372036854775807, %rdx
	movl	$1, %eax
	xorl	%ecx, %ecx
	cmpq	%rdx, -80(%rbp)
	cmoveq	%rcx, %rax
	.loc	30 858 9 is_stmt 0
	cmpq	$0, %rax
	jne	LBB45_2
Ltmp206:
	.loc	30 859 22 is_stmt 1
	movabsq	$-9223372036854775807, %rax
	movq	%rax, -64(%rbp)
Ltmp207:
	.loc	30 859 26 is_stmt 0
	jmp	LBB45_3
LBB45_2:
	.loc	30 860 17 is_stmt 1
	movq	-88(%rbp), %rcx
	movq	-80(%rbp), %rax
	movq	%rcx, -16(%rbp)
	movq	%rax, -8(%rbp)
Ltmp208:
	.loc	30 860 27 is_stmt 0
	movb	$0, -33(%rbp)
	movq	%rcx, -56(%rbp)
	movq	%rax, -48(%rbp)
	movq	-56(%rbp), %rdi
	movq	-48(%rbp), %rsi
	callq	__ZN5alloc7raw_vec14handle_reserve28_$u7b$$u7b$closure$u7d$$u7d$17hdd2e221d5ce43c77E
	.loc	30 860 23
	movq	%rax, -72(%rbp)
	movq	%rdx, -64(%rbp)
Ltmp209:
LBB45_3:
	.loc	30 862 5 is_stmt 1
	testb	$1, -33(%rbp)
	jne	LBB45_5
LBB45_4:
	.loc	30 862 6 is_stmt 0
	movq	-72(%rbp), %rax
	movq	-64(%rbp), %rdx
	addq	$96, %rsp
	popq	%rbp
	retq
LBB45_5:
	.loc	30 862 5
	jmp	LBB45_4
Ltmp210:
Lfunc_end45:
	.cfi_endproc

	.globl	__ZN50_$LT$T$u20$as$u20$core..convert..Into$LT$U$GT$$GT$4into17h276f0578ad68406bE
	.p2align	4, 0x90
__ZN50_$LT$T$u20$as$u20$core..convert..Into$LT$U$GT$$GT$4into17h276f0578ad68406bE:
Lfunc_begin46:
	.file	31 "/rustc/2c8cc343237b8f7d5a3c3703e3a87f2eb2c54a74/library/core/src/convert" "mod.rs"
	.loc	31 725 0 is_stmt 1
	.cfi_startproc
	pushq	%rbp
	.cfi_def_cfa_offset 16
	.cfi_offset %rbp, -16
	movq	%rsp, %rbp
	.cfi_def_cfa_register %rbp
	subq	$16, %rsp
	movq	%rdi, -16(%rbp)
	movq	%rsi, -8(%rbp)
Ltmp211:
	.loc	31 726 9 prologue_end
	callq	__ZN122_$LT$alloc..collections..TryReserveError$u20$as$u20$core..convert..From$LT$alloc..collections..TryReserveErrorKind$GT$$GT$4from17hdd32df091729e37fE
	.loc	31 727 6
	addq	$16, %rsp
	popq	%rbp
	retq
Ltmp212:
Lfunc_end46:
	.cfi_endproc

	.globl	__ZN50_$LT$T$u20$as$u20$core..convert..Into$LT$U$GT$$GT$4into17hbfed0220a720c470E
	.p2align	4, 0x90
__ZN50_$LT$T$u20$as$u20$core..convert..Into$LT$U$GT$$GT$4into17hbfed0220a720c470E:
Lfunc_begin47:
	.loc	31 725 0
	.cfi_startproc
	pushq	%rbp
	.cfi_def_cfa_offset 16
	.cfi_offset %rbp, -16
	movq	%rsp, %rbp
	.cfi_def_cfa_register %rbp
	subq	$16, %rsp
	movq	%rdi, -8(%rbp)
Ltmp213:
	.loc	31 726 9 prologue_end
	callq	__ZN119_$LT$core..ptr..non_null..NonNull$LT$T$GT$$u20$as$u20$core..convert..From$LT$core..ptr..unique..Unique$LT$T$GT$$GT$$GT$4from17hdc23e22d76e77a01E
	.loc	31 727 6
	addq	$16, %rsp
	popq	%rbp
	retq
Ltmp214:
Lfunc_end47:
	.cfi_endproc

	.p2align	4, 0x90
__ZN51_$LT$f32$u20$as$u20$alloc..vec..is_zero..IsZero$GT$7is_zero17hfa6c7e1260be65e8E:
Lfunc_begin48:
	.file	32 "/rustc/2c8cc343237b8f7d5a3c3703e3a87f2eb2c54a74/library/alloc/src/vec" "is_zero.rs"
	.loc	32 16 0
	.cfi_startproc
	pushq	%rbp
	.cfi_def_cfa_offset 16
	.cfi_offset %rbp, -16
	movq	%rsp, %rbp
	.cfi_def_cfa_register %rbp
	subq	$16, %rsp
	movq	%rdi, -8(%rbp)
Ltmp215:
	.loc	32 17 26 prologue_end
	movss	(%rdi), %xmm0
	.loc	32 17 17 is_stmt 0
	movss	%xmm0, -12(%rbp)
	movss	-12(%rbp), %xmm0
	leaq	l___unnamed_4(%rip), %rdi
	callq	__ZN51_$LT$f32$u20$as$u20$alloc..vec..is_zero..IsZero$GT$7is_zero28_$u7b$$u7b$closure$u7d$$u7d$17h5f6bdc8ce7ee9139E
	.loc	32 18 14 is_stmt 1
	andb	$1, %al
	movzbl	%al, %eax
	addq	$16, %rsp
	popq	%rbp
	retq
Ltmp216:
Lfunc_end48:
	.cfi_endproc

	.globl	__ZN51_$LT$f32$u20$as$u20$alloc..vec..is_zero..IsZero$GT$7is_zero28_$u7b$$u7b$closure$u7d$$u7d$17h5f6bdc8ce7ee9139E
	.p2align	4, 0x90
__ZN51_$LT$f32$u20$as$u20$alloc..vec..is_zero..IsZero$GT$7is_zero28_$u7b$$u7b$closure$u7d$$u7d$17h5f6bdc8ce7ee9139E:
Lfunc_begin49:
	.loc	32 40 0
	.cfi_startproc
	pushq	%rbp
	.cfi_def_cfa_offset 16
	.cfi_offset %rbp, -16
	movq	%rsp, %rbp
	.cfi_def_cfa_register %rbp
	subq	$32, %rsp
	movq	%rdi, -24(%rbp)
	movss	%xmm0, -16(%rbp)
Ltmp217:
	.loc	32 40 29 prologue_end
	movss	%xmm0, -12(%rbp)
Ltmp218:
	.loc	16 1045 48
	movss	%xmm0, -28(%rbp)
	.loc	16 1045 18 is_stmt 0
	movss	-28(%rbp), %xmm0
	movss	%xmm0, -8(%rbp)
Ltmp219:
	.loc	16 1042 22 is_stmt 1
	movd	%xmm0, %eax
	movl	%eax, -4(%rbp)
Ltmp220:
	.loc	32 40 29
	cmpl	$0, -4(%rbp)
	sete	%al
	.loc	32 40 45 is_stmt 0
	andb	$1, %al
	movzbl	%al, %eax
	addq	$32, %rsp
	popq	%rbp
	retq
Ltmp221:
Lfunc_end49:
	.cfi_endproc

	.globl	__ZN5alloc3vec16Vec$LT$T$C$A$GT$11extend_with17h2d974fcf2d7bcf3bE
	.p2align	4, 0x90
__ZN5alloc3vec16Vec$LT$T$C$A$GT$11extend_with17h2d974fcf2d7bcf3bE:
Lfunc_begin50:
	.loc	1 2503 0 is_stmt 1
	.cfi_startproc
	.cfi_personality 155, _rust_eh_personality
	.cfi_lsda 16, Lexception4
	pushq	%rbp
	.cfi_def_cfa_offset 16
	.cfi_offset %rbp, -16
	movq	%rsp, %rbp
	.cfi_def_cfa_register %rbp
	subq	$416, %rsp
	movq	%rdi, -344(%rbp)
	movq	%rsi, -336(%rbp)
	movss	%xmm0, -324(%rbp)
	movq	%rdi, -224(%rbp)
	movq	%rsi, -216(%rbp)
Ltmp237:
	.loc	1 2504 9 prologue_end
	movb	$1, -233(%rbp)
Ltmp222:
	callq	__ZN5alloc3vec16Vec$LT$T$C$A$GT$7reserve17hcd935119c63eb6f4E
Ltmp223:
	jmp	LBB50_3
LBB50_1:
	.loc	1 2529 5
	testb	$1, -233(%rbp)
	jne	LBB50_20
	jmp	LBB50_19
LBB50_2:
Ltmp236:
	.loc	1 0 5 is_stmt 0
	movq	%rax, %rcx
	movl	%edx, %eax
	movq	%rcx, -208(%rbp)
	movl	%eax, -200(%rbp)
	jmp	LBB50_1
LBB50_3:
	movq	-344(%rbp), %rax
	.loc	1 2507 27 is_stmt 1
	movq	%rax, -192(%rbp)
Ltmp238:
	.loc	1 1280 19
	movq	%rax, -184(%rbp)
Ltmp239:
	.file	33 "/rustc/2c8cc343237b8f7d5a3c3703e3a87f2eb2c54a74/library/alloc/src" "raw_vec.rs"
	.loc	33 224 9
	movq	8(%rax), %rax
	movq	%rax, -352(%rbp)
	movq	%rax, -176(%rbp)
Ltmp240:
	.loc	9 104 9
	movq	%rax, -168(%rbp)
Ltmp241:
	.loc	8 326 9
	movq	%rax, -160(%rbp)
Ltmp242:
	.loc	1 1282 21
	movq	%rax, -152(%rbp)
Ltmp243:
	.loc	24 52 36
	movq	%rax, -232(%rbp)
	.loc	24 52 18 is_stmt 0
	movq	-232(%rbp), %rax
	movq	%rax, -144(%rbp)
Ltmp244:
	.loc	24 38 13 is_stmt 1
	movq	%rax, -136(%rbp)
Ltmp245:
	.loc	24 215 33
	movq	%rax, -128(%rbp)
	.loc	24 215 18 is_stmt 0
	movq	%rax, -120(%rbp)
	movq	-120(%rbp), %rax
Ltmp246:
	.loc	24 0 18
	movq	-352(%rbp), %rax
	movq	-344(%rbp), %rcx
	.loc	1 2507 49 is_stmt 1
	movq	%rcx, -112(%rbp)
Ltmp247:
	.loc	1 2062 9
	movq	16(%rcx), %rcx
	movq	%rcx, -104(%rbp)
Ltmp248:
	.loc	24 1034 18
	movq	%rax, -96(%rbp)
	.loc	24 1034 30 is_stmt 0
	movq	%rcx, -88(%rbp)
Ltmp249:
	.loc	24 487 18 is_stmt 1
	shlq	$2, %rcx
	addq	%rcx, %rax
	movq	%rax, -80(%rbp)
	movq	-80(%rbp), %rax
	movq	%rax, -360(%rbp)
	.loc	24 0 18 is_stmt 0
	movq	-336(%rbp), %rax
	movq	-344(%rbp), %rcx
	movq	-360(%rbp), %rdx
	.loc	24 487 18
	movq	%rdx, -320(%rbp)
Ltmp250:
	.loc	1 2511 51 is_stmt 1
	movq	%rcx, %rdx
	addq	$16, %rdx
	movq	%rdx, -72(%rbp)
Ltmp251:
	.file	34 "/rustc/2c8cc343237b8f7d5a3c3703e3a87f2eb2c54a74/library/alloc/src/vec" "set_len_on_drop.rs"
	.loc	34 14 35
	movq	16(%rcx), %rcx
	.loc	34 14 9 is_stmt 0
	movq	%rdx, -304(%rbp)
	movq	%rcx, -312(%rbp)
Ltmp252:
	.loc	1 2514 22 is_stmt 1
	movq	$1, -296(%rbp)
	movq	%rax, -288(%rbp)
Ltmp253:
	.file	35 "/rustc/2c8cc343237b8f7d5a3c3703e3a87f2eb2c54a74/library/core/src/iter/traits" "collect.rs"
	.loc	35 273 9
	movq	-296(%rbp), %rcx
	movq	-288(%rbp), %rax
Ltmp254:
	.loc	1 2514 22
	movq	%rcx, -280(%rbp)
	movq	%rax, -272(%rbp)
LBB50_6:
	.loc	1 0 22 is_stmt 0
	leaq	-280(%rbp), %rdi
Ltmp255:
	.loc	1 2514 22
	movq	%rdi, -64(%rbp)
Ltmp224:
Ltmp256:
	.loc	12 711 9 is_stmt 1
	callq	__ZN89_$LT$core..ops..range..Range$LT$T$GT$$u20$as$u20$core..iter..range..RangeIteratorImpl$GT$9spec_next17h4e56ff42bc5d0b85E
Ltmp225:
	movq	%rdx, -376(%rbp)
	movq	%rax, -368(%rbp)
	jmp	LBB50_9
Ltmp257:
LBB50_7:
Ltmp231:
	.loc	12 0 9 is_stmt 0
	leaq	-312(%rbp), %rdi
	.loc	1 2528 9 is_stmt 1
	callq	__ZN4core3ptr62drop_in_place$LT$alloc..vec..set_len_on_drop..SetLenOnDrop$GT$17ha1222b58a5c6fd84E
Ltmp232:
	jmp	LBB50_1
LBB50_8:
Ltmp230:
	.loc	1 0 9 is_stmt 0
	movq	%rax, %rcx
	movl	%edx, %eax
	movq	%rcx, -208(%rbp)
	movl	%eax, -200(%rbp)
	jmp	LBB50_7
LBB50_9:
	movq	-376(%rbp), %rax
	movq	-368(%rbp), %rcx
Ltmp258:
	.loc	12 711 9 is_stmt 1
	movq	%rcx, -264(%rbp)
	movq	%rax, -256(%rbp)
Ltmp259:
	.loc	1 2514 22
	cmpq	$0, -264(%rbp)
	jne	LBB50_11
Ltmp260:
	.loc	1 0 22 is_stmt 0
	movq	-336(%rbp), %rax
	.loc	1 2521 16 is_stmt 1
	cmpq	$0, %rax
	ja	LBB50_15
	jmp	LBB50_14
LBB50_11:
Ltmp261:
	.loc	1 2515 28
	movq	-320(%rbp), %rax
	movq	%rax, -392(%rbp)
	movq	%rax, -56(%rbp)
Ltmp226:
	leaq	-324(%rbp), %rdi
	.loc	1 2515 33 is_stmt 0
	callq	__ZN86_$LT$alloc..vec..ExtendElement$LT$T$GT$$u20$as$u20$alloc..vec..ExtendWith$LT$T$GT$$GT$4next17hb515adfd2929e83aE
Ltmp227:
	movss	%xmm0, -380(%rbp)
	jmp	LBB50_12
LBB50_12:
	.loc	1 0 33
	movq	-392(%rbp), %rax
	movss	-380(%rbp), %xmm0
	.loc	1 2515 33
	movss	%xmm0, -244(%rbp)
Ltmp262:
	.loc	20 1354 9 is_stmt 1
	movl	-244(%rbp), %ecx
	movl	%ecx, (%rax)
Ltmp263:
	.loc	1 2516 23
	movq	-320(%rbp), %rax
	movq	%rax, -48(%rbp)
Ltmp264:
	.loc	24 1034 18
	movq	%rax, -40(%rbp)
Ltmp265:
	.loc	24 487 18
	addq	$4, %rax
	movq	%rax, -32(%rbp)
	movq	-32(%rbp), %rax
	movq	%rax, -400(%rbp)
Ltmp266:
	.loc	24 0 18 is_stmt 0
	movq	-400(%rbp), %rax
	.loc	1 2516 17 is_stmt 1
	movq	%rax, -320(%rbp)
	.loc	1 2518 17
	leaq	-312(%rbp), %rax
	movq	%rax, -24(%rbp)
Ltmp267:
	.loc	34 19 9
	movq	-312(%rbp), %rax
	addq	$1, %rax
	movq	%rax, -312(%rbp)
Ltmp268:
	.loc	1 2514 13
	jmp	LBB50_6
Ltmp269:
LBB50_14:
Ltmp234:
	.loc	1 0 13 is_stmt 0
	leaq	-312(%rbp), %rdi
	.loc	1 2528 9 is_stmt 1
	callq	__ZN4core3ptr62drop_in_place$LT$alloc..vec..set_len_on_drop..SetLenOnDrop$GT$17ha1222b58a5c6fd84E
Ltmp235:
	jmp	LBB50_18
LBB50_15:
Ltmp270:
	.loc	1 2523 28
	movq	-320(%rbp), %rax
	movq	%rax, -416(%rbp)
	movq	%rax, -16(%rbp)
	.loc	1 2523 33 is_stmt 0
	movb	$0, -233(%rbp)
	movss	-324(%rbp), %xmm0
Ltmp228:
	callq	__ZN86_$LT$alloc..vec..ExtendElement$LT$T$GT$$u20$as$u20$alloc..vec..ExtendWith$LT$T$GT$$GT$4last17h97bbffe50b3000c9E
Ltmp229:
	movss	%xmm0, -404(%rbp)
	jmp	LBB50_16
LBB50_16:
	.loc	1 0 33
	movq	-416(%rbp), %rax
	movss	-404(%rbp), %xmm0
	.loc	1 2523 33
	movss	%xmm0, -240(%rbp)
Ltmp271:
	.loc	20 1354 9 is_stmt 1
	movl	-240(%rbp), %ecx
	movl	%ecx, (%rax)
Ltmp272:
	.loc	1 2524 17
	leaq	-312(%rbp), %rax
	movq	%rax, -8(%rbp)
Ltmp273:
	.loc	34 19 9
	movq	-312(%rbp), %rax
	addq	$1, %rax
	movq	%rax, -312(%rbp)
Ltmp274:
	.loc	1 2521 13
	jmp	LBB50_14
Ltmp275:
LBB50_17:
Ltmp233:
	.loc	1 2503 5
	callq	__ZN4core9panicking19panic_cannot_unwind17h1fbca7e1d7f56ae1E
LBB50_18:
	.loc	1 2529 5
	testb	$1, -233(%rbp)
	jne	LBB50_22
	jmp	LBB50_21
LBB50_19:
	.loc	1 2503 5
	movq	-208(%rbp), %rdi
	callq	__Unwind_Resume
LBB50_20:
	.loc	1 2529 5
	jmp	LBB50_19
LBB50_21:
	.loc	1 2529 6 is_stmt 0
	addq	$416, %rsp
	popq	%rbp
	retq
LBB50_22:
	.loc	1 2529 5
	jmp	LBB50_21
Ltmp276:
Lfunc_end50:
	.cfi_endproc
	.section	__TEXT,__gcc_except_tab
	.p2align	2
GCC_except_table50:
Lexception4:
	.byte	255
	.byte	255
	.byte	1
	.uleb128 Lcst_end4-Lcst_begin4
Lcst_begin4:
	.uleb128 Ltmp222-Lfunc_begin50
	.uleb128 Ltmp223-Ltmp222
	.uleb128 Ltmp236-Lfunc_begin50
	.byte	0
	.uleb128 Ltmp224-Lfunc_begin50
	.uleb128 Ltmp225-Ltmp224
	.uleb128 Ltmp230-Lfunc_begin50
	.byte	0
	.uleb128 Ltmp231-Lfunc_begin50
	.uleb128 Ltmp232-Ltmp231
	.uleb128 Ltmp233-Lfunc_begin50
	.byte	0
	.uleb128 Ltmp226-Lfunc_begin50
	.uleb128 Ltmp227-Ltmp226
	.uleb128 Ltmp230-Lfunc_begin50
	.byte	0
	.uleb128 Ltmp234-Lfunc_begin50
	.uleb128 Ltmp235-Ltmp234
	.uleb128 Ltmp236-Lfunc_begin50
	.byte	0
	.uleb128 Ltmp228-Lfunc_begin50
	.uleb128 Ltmp229-Ltmp228
	.uleb128 Ltmp230-Lfunc_begin50
	.byte	0
	.uleb128 Ltmp229-Lfunc_begin50
	.uleb128 Lfunc_end50-Ltmp229
	.byte	0
	.byte	0
Lcst_end4:
	.p2align	2

	.section	__TEXT,__text,regular,pure_instructions
	.globl	__ZN5alloc3vec16Vec$LT$T$C$A$GT$6resize17h3425272564683f21E
	.p2align	4, 0x90
__ZN5alloc3vec16Vec$LT$T$C$A$GT$6resize17h3425272564683f21E:
Lfunc_begin51:
	.loc	1 2366 0 is_stmt 1
	.cfi_startproc
	.cfi_personality 155, _rust_eh_personality
	.cfi_lsda 16, Lexception5
	pushq	%rbp
	.cfi_def_cfa_offset 16
	.cfi_offset %rbp, -16
	movq	%rsp, %rbp
	.cfi_def_cfa_register %rbp
	subq	$96, %rsp
	movq	%rdi, -96(%rbp)
	movq	%rsi, -88(%rbp)
	movss	%xmm0, -76(%rbp)
	movq	%rdi, -56(%rbp)
	movq	%rsi, -48(%rbp)
	movss	%xmm0, -36(%rbp)
Ltmp282:
	.loc	1 2367 13 prologue_end
	movb	$1, -57(%rbp)
	.loc	1 2367 19 is_stmt 0
	movq	%rdi, -32(%rbp)
Ltmp283:
	.loc	1 2062 9 is_stmt 1
	movq	16(%rdi), %rax
	movq	%rax, -72(%rbp)
	movq	%rax, -24(%rbp)
Ltmp284:
	.loc	1 2369 12
	cmpq	%rax, %rsi
	ja	LBB51_2
Ltmp277:
	.loc	1 0 12 is_stmt 0
	movq	-88(%rbp), %rsi
	movq	-96(%rbp), %rdi
	.loc	1 2372 13 is_stmt 1
	callq	__ZN5alloc3vec16Vec$LT$T$C$A$GT$8truncate17hf8169924f9425b71E
Ltmp278:
	jmp	LBB51_7
LBB51_2:
	.loc	1 0 13 is_stmt 0
	movq	-96(%rbp), %rdi
	movss	-76(%rbp), %xmm0
	movq	-72(%rbp), %rax
	movq	-88(%rbp), %rsi
	.loc	1 2370 30 is_stmt 1
	subq	%rax, %rsi
	.loc	1 2370 59 is_stmt 0
	movb	$0, -57(%rbp)
	.loc	1 2370 45
	movss	%xmm0, -64(%rbp)
	.loc	1 2370 13
	movss	-64(%rbp), %xmm0
Ltmp279:
	callq	__ZN5alloc3vec16Vec$LT$T$C$A$GT$11extend_with17h2d974fcf2d7bcf3bE
Ltmp280:
	jmp	LBB51_5
Ltmp285:
LBB51_3:
	.loc	1 2374 5 is_stmt 1
	testb	$1, -57(%rbp)
	jne	LBB51_9
	jmp	LBB51_8
LBB51_4:
Ltmp281:
	.loc	1 0 5 is_stmt 0
	movq	%rax, %rcx
	movl	%edx, %eax
	movq	%rcx, -16(%rbp)
	movl	%eax, -8(%rbp)
	jmp	LBB51_3
LBB51_5:
Ltmp286:
	.loc	1 2369 9 is_stmt 1
	jmp	LBB51_6
Ltmp287:
LBB51_6:
	.loc	1 2374 5
	testb	$1, -57(%rbp)
	jne	LBB51_11
	jmp	LBB51_10
LBB51_7:
Ltmp288:
	.loc	1 2369 9
	jmp	LBB51_6
Ltmp289:
LBB51_8:
	.loc	1 2366 5
	movq	-16(%rbp), %rdi
	callq	__Unwind_Resume
LBB51_9:
	.loc	1 2374 5
	jmp	LBB51_8
LBB51_10:
	.loc	1 2374 6 is_stmt 0
	addq	$96, %rsp
	popq	%rbp
	retq
LBB51_11:
	.loc	1 2374 5
	jmp	LBB51_10
Ltmp290:
Lfunc_end51:
	.cfi_endproc
	.section	__TEXT,__gcc_except_tab
	.p2align	2
GCC_except_table51:
Lexception5:
	.byte	255
	.byte	255
	.byte	1
	.uleb128 Lcst_end5-Lcst_begin5
Lcst_begin5:
	.uleb128 Ltmp277-Lfunc_begin51
	.uleb128 Ltmp280-Ltmp277
	.uleb128 Ltmp281-Lfunc_begin51
	.byte	0
	.uleb128 Ltmp280-Lfunc_begin51
	.uleb128 Lfunc_end51-Ltmp280
	.byte	0
	.byte	0
Lcst_end5:
	.p2align	2

	.section	__TEXT,__text,regular,pure_instructions
	.globl	__ZN5alloc3vec16Vec$LT$T$C$A$GT$7reserve17hcd935119c63eb6f4E
	.p2align	4, 0x90
__ZN5alloc3vec16Vec$LT$T$C$A$GT$7reserve17hcd935119c63eb6f4E:
Lfunc_begin52:
	.loc	1 911 0 is_stmt 1
	.cfi_startproc
	pushq	%rbp
	.cfi_def_cfa_offset 16
	.cfi_offset %rbp, -16
	movq	%rsp, %rbp
	.cfi_def_cfa_register %rbp
	subq	$16, %rsp
	movq	%rsi, %rdx
	movq	%rdi, -16(%rbp)
	movq	%rdx, -8(%rbp)
Ltmp291:
	.loc	1 912 26 prologue_end
	movq	16(%rdi), %rsi
	.loc	1 912 9 is_stmt 0
	callq	__ZN5alloc7raw_vec19RawVec$LT$T$C$A$GT$7reserve17h9fa29c8d9f49dee3E
	.loc	1 913 6 is_stmt 1
	addq	$16, %rsp
	popq	%rbp
	retq
Ltmp292:
Lfunc_end52:
	.cfi_endproc

	.globl	__ZN5alloc3vec16Vec$LT$T$C$A$GT$8truncate17hf8169924f9425b71E
	.p2align	4, 0x90
__ZN5alloc3vec16Vec$LT$T$C$A$GT$8truncate17hf8169924f9425b71E:
Lfunc_begin53:
	.loc	1 1156 0
	.cfi_startproc
	pushq	%rbp
	.cfi_def_cfa_offset 16
	.cfi_offset %rbp, -16
	movq	%rsp, %rbp
	.cfi_def_cfa_register %rbp
	subq	$248, %rsp
	movq	%rdi, -248(%rbp)
	movq	%rsi, -240(%rbp)
	movq	%rdi, -192(%rbp)
	movq	%rsi, -184(%rbp)
Ltmp293:
	.loc	1 1168 16 prologue_end
	cmpq	16(%rdi), %rsi
	ja	LBB53_2
	.loc	1 0 16 is_stmt 0
	movq	-248(%rbp), %rax
	movq	-240(%rbp), %rcx
	.loc	1 1171 33 is_stmt 1
	movq	16(%rax), %rdx
	subq	%rcx, %rdx
	movq	%rdx, -176(%rbp)
Ltmp294:
	.loc	1 1172 51
	movq	%rax, -168(%rbp)
Ltmp295:
	.loc	1 1280 19
	movq	%rax, -160(%rbp)
Ltmp296:
	.loc	33 224 9
	movq	8(%rax), %rsi
	movq	%rsi, -152(%rbp)
Ltmp297:
	.loc	9 104 9
	movq	%rsi, -144(%rbp)
Ltmp298:
	.loc	8 326 9
	movq	%rsi, -136(%rbp)
Ltmp299:
	.loc	1 1282 21
	movq	%rsi, -128(%rbp)
Ltmp300:
	.loc	24 52 36
	movq	%rsi, -232(%rbp)
	.loc	24 52 18 is_stmt 0
	movq	-232(%rbp), %rdi
	movq	%rdi, -120(%rbp)
Ltmp301:
	.loc	24 38 13 is_stmt 1
	movq	%rdi, -112(%rbp)
Ltmp302:
	.loc	24 215 33
	movq	%rdi, -104(%rbp)
	.loc	24 215 18 is_stmt 0
	movq	%rdi, -96(%rbp)
Ltmp303:
	.loc	1 1172 73 is_stmt 1
	movq	%rcx, -88(%rbp)
Ltmp304:
	.loc	24 1034 18
	movq	%rsi, -80(%rbp)
	.loc	24 1034 30 is_stmt 0
	movq	%rcx, -72(%rbp)
Ltmp305:
	.loc	24 487 18 is_stmt 1
	movq	%rcx, %rdi
	shlq	$2, %rdi
	addq	%rdi, %rsi
	movq	%rsi, -64(%rbp)
	movq	-64(%rbp), %rsi
	movq	%rsi, -56(%rbp)
Ltmp306:
	.loc	1 1172 79
	movq	%rdx, -48(%rbp)
Ltmp307:
	.loc	20 766 24
	movq	%rsi, -40(%rbp)
Ltmp308:
	.loc	24 60 9
	movq	%rsi, -32(%rbp)
Ltmp309:
	.loc	20 766 37
	movq	%rdx, -24(%rbp)
Ltmp310:
	.loc	25 135 36
	movq	%rsi, -208(%rbp)
	movq	%rdx, -200(%rbp)
	.loc	25 135 14 is_stmt 0
	movq	-208(%rbp), %rsi
	movq	-200(%rbp), %rdx
	movq	%rsi, -224(%rbp)
	movq	%rdx, -216(%rbp)
	movq	-224(%rbp), %rsi
	movq	-216(%rbp), %rdx
	movq	%rsi, -16(%rbp)
	movq	%rdx, -8(%rbp)
Ltmp311:
	.loc	1 1173 13 is_stmt 1
	movq	%rcx, 16(%rax)
Ltmp312:
	.loc	1 1176 6
	jmp	LBB53_3
LBB53_2:
	jmp	LBB53_3
LBB53_3:
	addq	$248, %rsp
	popq	%rbp
	retq
Ltmp313:
Lfunc_end53:
	.cfi_endproc

	.globl	__ZN5alloc3vec9from_elem17h457aca7963275b3cE
	.p2align	4, 0x90
__ZN5alloc3vec9from_elem17h457aca7963275b3cE:
Lfunc_begin54:
	.loc	1 2561 0
	.cfi_startproc
	pushq	%rbp
	.cfi_def_cfa_offset 16
	.cfi_offset %rbp, -16
	movq	%rsp, %rbp
	.cfi_def_cfa_register %rbp
	subq	$32, %rsp
	movq	%rdi, %rax
	movq	%rax, -24(%rbp)
	movss	%xmm0, -12(%rbp)
	movq	%rsi, -8(%rbp)
Ltmp314:
	.loc	1 2562 5 prologue_end
	callq	__ZN62_$LT$T$u20$as$u20$alloc..vec..spec_from_elem..SpecFromElem$GT$9from_elem17h5a0b2f19f44a1ec4E
	movq	-24(%rbp), %rax
	.loc	1 2563 2
	addq	$32, %rsp
	popq	%rbp
	retq
Ltmp315:
Lfunc_end54:
	.cfi_endproc

	.p2align	4, 0x90
__ZN5alloc5alloc6Global10alloc_impl17h9efe8df304505d00E:
Lfunc_begin55:
	.file	36 "/rustc/2c8cc343237b8f7d5a3c3703e3a87f2eb2c54a74/library/alloc/src" "alloc.rs"
	.loc	36 172 0
	.cfi_startproc
	pushq	%rbp
	.cfi_def_cfa_offset 16
	.cfi_offset %rbp, -16
	movq	%rsp, %rbp
	.cfi_def_cfa_register %rbp
	subq	$352, %rsp
	movb	%cl, %al
	movb	%al, -345(%rbp)
	movq	%rsi, -336(%rbp)
	movq	%rdx, -328(%rbp)
	movq	%rdi, -208(%rbp)
	andb	$1, %al
	movb	%al, -193(%rbp)
Ltmp316:
	.loc	36 173 15 prologue_end
	leaq	-336(%rbp), %rax
	movq	%rax, -144(%rbp)
Ltmp317:
	.loc	27 129 9
	movq	-336(%rbp), %rax
	movq	%rax, -344(%rbp)
Ltmp318:
	.loc	36 173 9
	cmpq	$0, %rax
	jne	LBB55_2
	.loc	36 174 51
	leaq	-336(%rbp), %rax
	movq	%rax, -48(%rbp)
Ltmp319:
	.loc	27 216 71
	leaq	-336(%rbp), %rax
	movq	%rax, -40(%rbp)
Ltmp320:
	.loc	27 140 9
	movq	-328(%rbp), %rax
	movq	%rax, -32(%rbp)
Ltmp321:
	.loc	28 97 9
	movq	%rax, -232(%rbp)
	movq	-232(%rbp), %rax
	movq	%rax, -24(%rbp)
Ltmp322:
	.loc	20 599 14
	movq	%rax, -16(%rbp)
	movq	-16(%rbp), %rax
	movq	%rax, -8(%rbp)
Ltmp323:
	.loc	8 201 13
	movq	%rax, -304(%rbp)
Ltmp324:
	.loc	36 174 21
	movq	-304(%rbp), %rdi
	xorl	%eax, %eax
	movl	%eax, %esi
	callq	__ZN4core3ptr8non_null26NonNull$LT$$u5b$T$u5d$$GT$20slice_from_raw_parts17he182d5606049d4deE
	.loc	36 174 18 is_stmt 0
	movq	%rax, -320(%rbp)
	movq	%rdx, -312(%rbp)
	.loc	36 174 72
	jmp	LBB55_15
LBB55_2:
	.loc	36 0 72
	movb	-345(%rbp), %al
	movq	-344(%rbp), %rcx
	.loc	36 176 13 is_stmt 1
	movq	%rcx, -136(%rbp)
Ltmp325:
	.loc	36 177 34
	testb	$1, %al
	jne	LBB55_4
	.loc	36 177 79 is_stmt 0
	movq	-336(%rbp), %rcx
	movq	-328(%rbp), %rax
	movq	%rcx, -272(%rbp)
	movq	%rax, -264(%rbp)
Ltmp326:
	.loc	36 95 27 is_stmt 1
	leaq	-272(%rbp), %rax
	movq	%rax, -104(%rbp)
Ltmp327:
	.loc	27 129 9
	movq	-272(%rbp), %rdi
Ltmp328:
	.loc	36 95 42
	leaq	-272(%rbp), %rax
	movq	%rax, -96(%rbp)
Ltmp329:
	.loc	27 140 9
	movq	-264(%rbp), %rax
	movq	%rax, -88(%rbp)
Ltmp330:
	.loc	28 97 9
	movq	%rax, -216(%rbp)
	movq	-216(%rbp), %rsi
Ltmp331:
	.loc	36 95 14
	callq	___rust_alloc
	movq	%rax, -296(%rbp)
Ltmp332:
	.loc	36 177 31
	jmp	LBB55_5
LBB55_4:
	.loc	36 177 56 is_stmt 0
	movq	-336(%rbp), %rcx
	movq	-328(%rbp), %rax
	movq	%rcx, -288(%rbp)
	movq	%rax, -280(%rbp)
Ltmp333:
	.loc	36 166 34 is_stmt 1
	leaq	-288(%rbp), %rax
	movq	%rax, -128(%rbp)
Ltmp334:
	.loc	27 129 9
	movq	-288(%rbp), %rdi
Ltmp335:
	.loc	36 166 49
	leaq	-288(%rbp), %rax
	movq	%rax, -120(%rbp)
Ltmp336:
	.loc	27 140 9
	movq	-280(%rbp), %rax
	movq	%rax, -112(%rbp)
Ltmp337:
	.loc	28 97 9
	movq	%rax, -224(%rbp)
	movq	-224(%rbp), %rsi
Ltmp338:
	.loc	36 166 14
	callq	___rust_alloc_zeroed
	movq	%rax, -296(%rbp)
Ltmp339:
LBB55_5:
	.loc	36 178 40
	movq	-296(%rbp), %rdi
	.loc	36 178 27 is_stmt 0
	callq	__ZN4core3ptr8non_null16NonNull$LT$T$GT$3new17hfa0ba6c6658ded81E
	movq	%rax, -240(%rbp)
Ltmp340:
	.loc	6 1096 15 is_stmt 1
	movq	-240(%rbp), %rdx
	movl	$1, %eax
	xorl	%ecx, %ecx
	cmpq	$0, %rdx
	cmoveq	%rcx, %rax
	.loc	6 1096 9 is_stmt 0
	cmpq	$0, %rax
	jne	LBB55_7
	.loc	6 1098 21 is_stmt 1
	movq	$0, -248(%rbp)
	.loc	6 1098 28 is_stmt 0
	jmp	LBB55_8
LBB55_7:
	.loc	6 1097 18 is_stmt 1
	movq	-240(%rbp), %rax
	movq	%rax, -80(%rbp)
Ltmp341:
	.loc	6 1097 24 is_stmt 0
	movq	%rax, -248(%rbp)
Ltmp342:
LBB55_8:
	.loc	30 2091 15 is_stmt 1
	movq	-248(%rbp), %rdx
	xorl	%eax, %eax
	movl	$1, %ecx
	cmpq	$0, %rdx
	cmoveq	%rcx, %rax
	.loc	30 2091 9 is_stmt 0
	cmpq	$0, %rax
	jne	LBB55_10
	.loc	30 2092 16 is_stmt 1
	movq	-248(%rbp), %rax
	movq	%rax, -72(%rbp)
Ltmp343:
	.loc	30 2092 22 is_stmt 0
	movq	%rax, -256(%rbp)
Ltmp344:
	.loc	30 2092 45
	jmp	LBB55_11
LBB55_10:
Ltmp345:
	.loc	30 2093 23 is_stmt 1
	movq	$0, -256(%rbp)
Ltmp346:
LBB55_11:
	.loc	36 178 27
	movq	-256(%rbp), %rdx
	xorl	%eax, %eax
	movl	$1, %ecx
	cmpq	$0, %rdx
	cmoveq	%rcx, %rax
	cmpq	$0, %rax
	jne	LBB55_13
	.loc	36 0 27 is_stmt 0
	movq	-344(%rbp), %rsi
	.loc	36 178 27
	movq	-256(%rbp), %rdi
	movq	%rdi, -64(%rbp)
Ltmp347:
	.loc	36 178 27
	movq	%rdi, -56(%rbp)
Ltmp348:
	.loc	36 179 20 is_stmt 1
	callq	__ZN4core3ptr8non_null26NonNull$LT$$u5b$T$u5d$$GT$20slice_from_raw_parts17he182d5606049d4deE
	.loc	36 179 17 is_stmt 0
	movq	%rax, -320(%rbp)
	movq	%rdx, -312(%rbp)
Ltmp349:
	.loc	36 180 13 is_stmt 1
	jmp	LBB55_15
LBB55_13:
Ltmp350:
	.loc	30 2107 23
	movq	$0, -320(%rbp)
Ltmp351:
LBB55_14:
	.loc	36 182 6
	movq	-320(%rbp), %rax
	movq	-312(%rbp), %rdx
	addq	$352, %rsp
	popq	%rbp
	retq
LBB55_15:
	jmp	LBB55_14
Ltmp352:
Lfunc_end55:
	.cfi_endproc

	.p2align	4, 0x90
__ZN5alloc5alloc6Global9grow_impl17h4665a3f4aee6ae4cE:
Lfunc_begin56:
	.loc	36 186 0
	.cfi_startproc
	pushq	%rbp
	.cfi_def_cfa_offset 16
	.cfi_offset %rbp, -16
	movq	%rsp, %rbp
	.cfi_def_cfa_register %rbp
	subq	$736, %rsp
	movq	%rsi, -688(%rbp)
	movq	%rdi, -680(%rbp)
	movb	16(%rbp), %al
	movb	%al, -665(%rbp)
	movq	%rdx, -656(%rbp)
	movq	%rcx, -648(%rbp)
	movq	%r8, -640(%rbp)
	movq	%r9, -632(%rbp)
	movq	%rdi, -504(%rbp)
	movq	%rsi, -496(%rbp)
	andb	$1, %al
	movb	%al, -481(%rbp)
Ltmp353:
	.loc	36 198 15 prologue_end
	leaq	-656(%rbp), %rax
	movq	%rax, -392(%rbp)
Ltmp354:
	.loc	27 129 9
	movq	-656(%rbp), %rax
	movq	%rax, -664(%rbp)
Ltmp355:
	.loc	36 198 9
	cmpq	$0, %rax
	jne	LBB56_2
	.loc	36 0 9 is_stmt 0
	movq	-680(%rbp), %rdi
	movb	-665(%rbp), %al
	.loc	36 199 34 is_stmt 1
	movq	-640(%rbp), %rsi
	movq	-632(%rbp), %rdx
	.loc	36 199 18 is_stmt 0
	movzbl	%al, %ecx
	andl	$1, %ecx
	callq	__ZN5alloc5alloc6Global10alloc_impl17h9efe8df304505d00E
	movq	%rdx, -616(%rbp)
	movq	%rax, -624(%rbp)
	.loc	36 199 52
	jmp	LBB56_16
LBB56_2:
	.loc	36 203 25 is_stmt 1
	leaq	-656(%rbp), %rax
	movq	%rax, -384(%rbp)
Ltmp356:
	.loc	27 140 9
	movq	-648(%rbp), %rax
	movq	%rax, -376(%rbp)
Ltmp357:
	.loc	28 97 9
	movq	%rax, -536(%rbp)
	movq	-536(%rbp), %rax
Ltmp358:
	.loc	36 203 47
	leaq	-640(%rbp), %rcx
	movq	%rcx, -368(%rbp)
Ltmp359:
	.loc	27 140 9
	movq	-632(%rbp), %rcx
	movq	%rcx, -360(%rbp)
Ltmp360:
	.loc	28 97 9
	movq	%rcx, -528(%rbp)
	movq	-528(%rbp), %rcx
Ltmp361:
	.loc	36 203 25
	cmpq	%rcx, %rax
	je	LBB56_4
	.loc	36 0 25 is_stmt 0
	movq	-680(%rbp), %rdi
	movb	-665(%rbp), %al
	movq	-664(%rbp), %rcx
	.loc	36 222 13 is_stmt 1
	movq	%rcx, -160(%rbp)
Ltmp362:
	.loc	36 223 47
	movq	-640(%rbp), %rsi
	movq	-632(%rbp), %rdx
	.loc	36 223 31 is_stmt 0
	movzbl	%al, %ecx
	andl	$1, %ecx
	callq	__ZN5alloc5alloc6Global10alloc_impl17h9efe8df304505d00E
	movq	%rdx, -544(%rbp)
	movq	%rax, -552(%rbp)
Ltmp363:
	.loc	30 2091 15 is_stmt 1
	movq	-552(%rbp), %rdx
	xorl	%eax, %eax
	movl	$1, %ecx
	cmpq	$0, %rdx
	cmoveq	%rcx, %rax
	.loc	30 2091 9 is_stmt 0
	cmpq	$0, %rax
	je	LBB56_17
	jmp	LBB56_18
Ltmp364:
LBB56_4:
	.loc	30 0 9
	movq	-688(%rbp), %rdi
	movq	-664(%rbp), %rax
	.loc	36 203 13 is_stmt 1
	movq	%rax, -352(%rbp)
Ltmp365:
	.loc	36 204 32
	leaq	-640(%rbp), %rax
	movq	%rax, -344(%rbp)
Ltmp366:
	.loc	27 129 9
	movq	-640(%rbp), %rcx
	movq	%rcx, -704(%rbp)
	movq	%rcx, -336(%rbp)
Ltmp367:
	.loc	36 207 48
	leaq	-656(%rbp), %rax
	movq	%rax, -328(%rbp)
	.loc	36 209 39
	movq	%rdi, -320(%rbp)
Ltmp368:
	.loc	8 326 9
	movq	%rdi, -312(%rbp)
Ltmp369:
	.loc	36 209 53
	movq	-656(%rbp), %rdx
	movq	-648(%rbp), %rax
	movq	%rdx, -608(%rbp)
	movq	%rax, -600(%rbp)
	.loc	36 209 65 is_stmt 0
	movq	%rcx, -304(%rbp)
Ltmp370:
	.loc	36 132 34 is_stmt 1
	leaq	-608(%rbp), %rax
	movq	%rax, -296(%rbp)
Ltmp371:
	.loc	27 129 9
	movq	-608(%rbp), %rsi
Ltmp372:
	.loc	36 132 49
	leaq	-608(%rbp), %rax
	movq	%rax, -288(%rbp)
Ltmp373:
	.loc	27 140 9
	movq	-600(%rbp), %rax
	movq	%rax, -280(%rbp)
Ltmp374:
	.loc	28 97 9
	movq	%rax, -520(%rbp)
	movq	-520(%rbp), %rdx
Ltmp375:
	.loc	36 132 14
	callq	___rust_realloc
	movq	%rax, %rdi
	movq	%rdi, -696(%rbp)
	movq	%rdi, -272(%rbp)
Ltmp376:
	.loc	36 210 27
	callq	__ZN4core3ptr8non_null16NonNull$LT$T$GT$3new17hfa0ba6c6658ded81E
	movq	%rax, -576(%rbp)
Ltmp377:
	.loc	6 1096 15
	movq	-576(%rbp), %rdx
	movl	$1, %eax
	xorl	%ecx, %ecx
	cmpq	$0, %rdx
	cmoveq	%rcx, %rax
	.loc	6 1096 9 is_stmt 0
	cmpq	$0, %rax
	jne	LBB56_6
	.loc	6 1098 21 is_stmt 1
	movq	$0, -584(%rbp)
	.loc	6 1098 28 is_stmt 0
	jmp	LBB56_7
LBB56_6:
	.loc	6 1097 18 is_stmt 1
	movq	-576(%rbp), %rax
	movq	%rax, -264(%rbp)
Ltmp378:
	.loc	6 1097 24 is_stmt 0
	movq	%rax, -584(%rbp)
Ltmp379:
LBB56_7:
	.loc	30 2091 15 is_stmt 1
	movq	-584(%rbp), %rdx
	xorl	%eax, %eax
	movl	$1, %ecx
	cmpq	$0, %rdx
	cmoveq	%rcx, %rax
	.loc	30 2091 9 is_stmt 0
	cmpq	$0, %rax
	jne	LBB56_9
	.loc	30 2092 16 is_stmt 1
	movq	-584(%rbp), %rax
	movq	%rax, -256(%rbp)
Ltmp380:
	.loc	30 2092 22 is_stmt 0
	movq	%rax, -592(%rbp)
Ltmp381:
	.loc	30 2092 45
	jmp	LBB56_10
LBB56_9:
Ltmp382:
	.loc	30 2093 23 is_stmt 1
	movq	$0, -592(%rbp)
Ltmp383:
LBB56_10:
	.loc	36 210 27
	movq	-592(%rbp), %rdx
	xorl	%eax, %eax
	movl	$1, %ecx
	cmpq	$0, %rdx
	cmoveq	%rcx, %rax
	cmpq	$0, %rax
	jne	LBB56_12
	.loc	36 0 27 is_stmt 0
	movb	-665(%rbp), %al
	.loc	36 210 27
	movq	-592(%rbp), %rcx
	movq	%rcx, -712(%rbp)
	movq	%rcx, -248(%rbp)
Ltmp384:
	.loc	36 210 27
	movq	%rcx, -240(%rbp)
Ltmp385:
	.loc	36 211 20 is_stmt 1
	testb	$1, %al
	jne	LBB56_15
	jmp	LBB56_14
Ltmp386:
LBB56_12:
	.loc	30 2107 23
	movq	$0, -624(%rbp)
Ltmp387:
LBB56_13:
	.loc	36 229 6
	jmp	LBB56_22
LBB56_14:
	.loc	36 0 6 is_stmt 0
	movq	-704(%rbp), %rsi
	movq	-712(%rbp), %rdi
Ltmp388:
	.loc	36 214 20 is_stmt 1
	callq	__ZN4core3ptr8non_null26NonNull$LT$$u5b$T$u5d$$GT$20slice_from_raw_parts17he182d5606049d4deE
	.loc	36 214 17 is_stmt 0
	movq	%rax, -624(%rbp)
	movq	%rdx, -616(%rbp)
Ltmp389:
	.loc	36 215 13 is_stmt 1
	jmp	LBB56_16
LBB56_15:
	.loc	36 0 13 is_stmt 0
	movq	-664(%rbp), %rax
	movq	-704(%rbp), %rdx
	movq	-696(%rbp), %rcx
Ltmp390:
	.loc	36 212 21 is_stmt 1
	movq	%rcx, -232(%rbp)
	.loc	36 212 33 is_stmt 0
	movq	%rax, -224(%rbp)
Ltmp391:
	.loc	24 1034 18 is_stmt 1
	movq	%rcx, -216(%rbp)
	.loc	24 1034 30 is_stmt 0
	movq	%rax, -208(%rbp)
Ltmp392:
	.loc	24 487 18 is_stmt 1
	addq	%rax, %rcx
	movq	%rcx, -200(%rbp)
	movq	-200(%rbp), %rdi
	movq	%rdi, -192(%rbp)
Ltmp393:
	.loc	36 212 58
	subq	%rax, %rdx
	movq	%rdx, -184(%rbp)
Ltmp394:
	.loc	24 1488 30
	movq	%rdi, -176(%rbp)
	.loc	24 1488 41 is_stmt 0
	movq	%rdx, -168(%rbp)
Ltmp395:
	.file	37 "/rustc/2c8cc343237b8f7d5a3c3703e3a87f2eb2c54a74/library/core/src" "intrinsics.rs"
	.loc	37 2529 9 is_stmt 1
	shlq	$0, %rdx
	xorl	%esi, %esi
	callq	_memset
Ltmp396:
	.loc	36 211 17
	jmp	LBB56_14
Ltmp397:
LBB56_16:
	.loc	36 229 6
	jmp	LBB56_22
LBB56_17:
Ltmp398:
	.loc	30 2092 16
	movq	-552(%rbp), %rcx
	movq	-544(%rbp), %rax
	movq	%rcx, -152(%rbp)
	movq	%rax, -144(%rbp)
Ltmp399:
	.loc	30 2092 22 is_stmt 0
	movq	%rcx, -568(%rbp)
	movq	%rax, -560(%rbp)
Ltmp400:
	.loc	30 2092 45
	jmp	LBB56_19
LBB56_18:
Ltmp401:
	.loc	30 2093 23 is_stmt 1
	movq	$0, -568(%rbp)
Ltmp402:
LBB56_19:
	.loc	36 223 31
	movq	-568(%rbp), %rdx
	xorl	%eax, %eax
	movl	$1, %ecx
	cmpq	$0, %rdx
	cmoveq	%rcx, %rax
	cmpq	$0, %rax
	jne	LBB56_21
	.loc	36 0 31 is_stmt 0
	movq	-688(%rbp), %rsi
	movq	-664(%rbp), %rdx
	.loc	36 223 31
	movq	-568(%rbp), %rax
	movq	%rax, -728(%rbp)
	movq	-560(%rbp), %rcx
	movq	%rcx, -720(%rbp)
	movq	%rax, -136(%rbp)
	movq	%rcx, -128(%rbp)
Ltmp403:
	.loc	36 223 31
	movq	%rax, -120(%rbp)
	movq	%rcx, -112(%rbp)
Ltmp404:
	.loc	36 224 42 is_stmt 1
	movq	%rsi, -104(%rbp)
	movq	%rsi, -96(%rbp)
	.loc	36 224 56 is_stmt 0
	movq	%rax, -88(%rbp)
	movq	%rcx, -80(%rbp)
Ltmp405:
	.loc	8 548 9 is_stmt 1
	movq	%rax, -72(%rbp)
	movq	%rcx, -64(%rbp)
Ltmp406:
	.loc	8 529 41
	movq	%rax, -56(%rbp)
	movq	%rcx, -48(%rbp)
Ltmp407:
	.loc	8 326 9
	movq	%rax, -40(%rbp)
	movq	%rcx, -32(%rbp)
Ltmp408:
	.loc	24 2037 9
	movq	%rax, -24(%rbp)
Ltmp409:
	.loc	8 201 13
	movq	%rax, -512(%rbp)
Ltmp410:
	.loc	8 326 9
	movq	-512(%rbp), %rdi
	movq	%rdi, -16(%rbp)
Ltmp411:
	.loc	36 224 78
	movq	%rdx, -8(%rbp)
Ltmp412:
	.loc	37 2372 9
	shlq	$0, %rdx
	callq	_memcpy
	movq	-680(%rbp), %rdi
	movq	-688(%rbp), %rsi
Ltmp413:
	.loc	36 225 38
	movq	-656(%rbp), %rdx
	movq	-648(%rbp), %rcx
	.loc	36 225 17 is_stmt 0
	callq	__ZN63_$LT$alloc..alloc..Global$u20$as$u20$core..alloc..Allocator$GT$10deallocate17h53fc4896331f69bbE
	movq	-728(%rbp), %rcx
	movq	-720(%rbp), %rax
	.loc	36 226 17 is_stmt 1
	movq	%rcx, -624(%rbp)
	movq	%rax, -616(%rbp)
Ltmp414:
	.loc	36 227 13
	jmp	LBB56_16
LBB56_21:
Ltmp415:
	.loc	30 2107 23
	movq	$0, -624(%rbp)
Ltmp416:
	.file	38 "/Users/natalie/.cargo/registry/src/github.com-1ecc6299db9ec823/ab_glyph_rasterizer-0.1.7" "src/lib.rs"
	.loc	38 1 1
	jmp	LBB56_13
LBB56_22:
	.loc	36 229 6
	movq	-624(%rbp), %rax
	movq	-616(%rbp), %rdx
	addq	$736, %rsp
	popq	%rbp
	retq
Ltmp417:
Lfunc_end56:
	.cfi_endproc

	.globl	__ZN5alloc7raw_vec11finish_grow17h4863bce43e4a13e4E
	.p2align	4, 0x90
__ZN5alloc7raw_vec11finish_grow17h4863bce43e4a13e4E:
Lfunc_begin57:
	.loc	33 448 0
	.cfi_startproc
	pushq	%rbp
	.cfi_def_cfa_offset 16
	.cfi_offset %rbp, -16
	movq	%rsp, %rbp
	.cfi_def_cfa_register %rbp
	subq	$512, %rsp
	movq	%r8, -504(%rbp)
	movq	%rcx, -496(%rbp)
Ltmp418:
	movq	%rdi, -488(%rbp)
	movq	%rdi, -480(%rbp)
	movq	%rsi, -240(%rbp)
	movq	%rdx, -232(%rbp)
Ltmp419:
	movq	%r8, -224(%rbp)
Ltmp420:
	.loc	33 457 22 prologue_end
	leaq	-432(%rbp), %rdi
	callq	__ZN4core6result19Result$LT$T$C$E$GT$7map_err17hcb709856a8b69863E
Ltmp421:
	.loc	30 2091 9
	cmpq	$0, -432(%rbp)
Ltmp422:
	jne	LBB57_2
Ltmp423:
	.loc	30 2092 16
	movq	-424(%rbp), %rcx
	movq	-416(%rbp), %rax
	movq	%rcx, -184(%rbp)
	movq	%rax, -176(%rbp)
Ltmp424:
	.loc	30 2092 22 is_stmt 0
	movq	%rcx, -448(%rbp)
	movq	%rax, -440(%rbp)
	movq	$0, -456(%rbp)
Ltmp425:
	.loc	30 2092 45
	jmp	LBB57_3
Ltmp426:
LBB57_2:
	.loc	30 2093 17 is_stmt 1
	movq	-424(%rbp), %rcx
	movq	-416(%rbp), %rax
	movq	%rcx, -200(%rbp)
	movq	%rax, -192(%rbp)
Ltmp427:
	.loc	30 2093 42 is_stmt 0
	movq	%rcx, -304(%rbp)
	movq	%rax, -296(%rbp)
	.loc	30 2093 23
	movq	-304(%rbp), %rcx
	movq	-296(%rbp), %rax
	movq	%rcx, -448(%rbp)
	movq	%rax, -440(%rbp)
	movq	$1, -456(%rbp)
Ltmp428:
LBB57_3:
	.loc	33 457 22 is_stmt 1
	cmpq	$0, -456(%rbp)
	jne	LBB57_5
Ltmp429:
	movq	-448(%rbp), %rcx
	movq	-440(%rbp), %rax
	movq	%rcx, -120(%rbp)
	movq	%rax, -112(%rbp)
Ltmp430:
	.loc	33 457 22 is_stmt 0
	movq	%rcx, -472(%rbp)
	movq	%rax, -464(%rbp)
Ltmp431:
	.loc	33 509 9 is_stmt 1
	movabsq	$-9223372036854775807, %rax
	movq	%rax, -368(%rbp)
Ltmp432:
	.loc	30 2091 15
	movabsq	$-9223372036854775807, %rdx
	movl	$1, %eax
	xorl	%ecx, %ecx
	cmpq	%rdx, -368(%rbp)
	cmoveq	%rcx, %rax
	.loc	30 2091 9 is_stmt 0
	cmpq	$0, %rax
	je	LBB57_7
	jmp	LBB57_8
Ltmp433:
LBB57_5:
	.loc	30 0 9
	movq	-488(%rbp), %rax
	.loc	33 457 62 is_stmt 1
	movq	-448(%rbp), %rdx
	movq	-440(%rbp), %rcx
	movq	%rdx, -168(%rbp)
	movq	%rcx, -160(%rbp)
Ltmp434:
	.loc	33 457 62 is_stmt 0
	movq	%rdx, -408(%rbp)
	movq	%rcx, -400(%rbp)
Ltmp435:
	.loc	30 2107 17 is_stmt 1
	movq	-408(%rbp), %rdx
	movq	-400(%rbp), %rcx
	movq	%rdx, -152(%rbp)
	movq	%rcx, -144(%rbp)
Ltmp436:
	.loc	30 2107 38 is_stmt 0
	movq	%rdx, -136(%rbp)
	movq	%rcx, -128(%rbp)
Ltmp437:
	.loc	10 117 9 is_stmt 1
	movq	%rdx, -288(%rbp)
	movq	%rcx, -280(%rbp)
Ltmp438:
	.loc	30 2107 23
	movq	-288(%rbp), %rdx
	movq	-280(%rbp), %rcx
	movq	%rdx, 8(%rax)
	movq	%rcx, 16(%rax)
	movq	$1, (%rax)
Ltmp439:
LBB57_6:
	.loc	33 473 2
	jmp	LBB57_12
Ltmp440:
LBB57_7:
	.loc	30 2092 22
	movabsq	$-9223372036854775807, %rax
	movq	%rax, -384(%rbp)
Ltmp441:
	.loc	30 2092 45 is_stmt 0
	jmp	LBB57_9
Ltmp442:
LBB57_8:
	.loc	30 2093 17 is_stmt 1
	movq	-376(%rbp), %rcx
	movq	-368(%rbp), %rax
	movq	%rcx, -104(%rbp)
	movq	%rax, -96(%rbp)
Ltmp443:
	.loc	30 2093 42 is_stmt 0
	movq	%rcx, -272(%rbp)
	movq	%rax, -264(%rbp)
	.loc	30 2093 23
	movq	-272(%rbp), %rcx
	movq	-264(%rbp), %rax
	movq	%rcx, -392(%rbp)
	movq	%rax, -384(%rbp)
Ltmp444:
LBB57_9:
	.loc	33 459 5 is_stmt 1
	movabsq	$-9223372036854775807, %rdx
	movl	$1, %eax
	xorl	%ecx, %ecx
	cmpq	%rdx, -384(%rbp)
	cmoveq	%rcx, %rax
	cmpq	$0, %rax
	jne	LBB57_11
Ltmp445:
	.loc	33 0 5 is_stmt 0
	movq	-496(%rbp), %rdx
Ltmp446:
	.loc	33 461 25 is_stmt 1
	movl	$1, %eax
	xorl	%ecx, %ecx
	cmpq	$0, 16(%rdx)
	cmoveq	%rcx, %rax
	cmpq	$1, %rax
	je	LBB57_13
	jmp	LBB57_14
Ltmp447:
LBB57_11:
	.loc	33 0 25 is_stmt 0
	movq	-488(%rbp), %rax
	.loc	33 459 35 is_stmt 1
	movq	-392(%rbp), %rdx
	movq	-384(%rbp), %rcx
	movq	%rdx, -88(%rbp)
	movq	%rcx, -80(%rbp)
Ltmp448:
	.loc	33 459 35 is_stmt 0
	movq	%rdx, -360(%rbp)
	movq	%rcx, -352(%rbp)
Ltmp449:
	.loc	30 2107 17 is_stmt 1
	movq	-360(%rbp), %rdx
	movq	-352(%rbp), %rcx
	movq	%rdx, -72(%rbp)
	movq	%rcx, -64(%rbp)
Ltmp450:
	.loc	30 2107 38 is_stmt 0
	movq	%rdx, -56(%rbp)
	movq	%rcx, -48(%rbp)
	.loc	30 2107 23
	movq	%rdx, 8(%rax)
	movq	%rcx, 16(%rax)
	movq	$1, (%rax)
Ltmp451:
	.loc	38 1 1 is_stmt 1
	jmp	LBB57_6
Ltmp452:
LBB57_12:
	.loc	38 0 1 is_stmt 0
	movq	-480(%rbp), %rax
	.loc	33 473 2 is_stmt 1
	addq	$512, %rsp
	popq	%rbp
	retq
Ltmp453:
LBB57_13:
	.loc	33 0 2 is_stmt 0
	movq	-504(%rbp), %rdi
	movq	-496(%rbp), %rax
Ltmp454:
	.loc	33 461 31 is_stmt 1
	movq	(%rax), %rsi
	movq	%rsi, -40(%rbp)
	.loc	33 461 36 is_stmt 0
	movq	8(%rax), %rcx
	movq	16(%rax), %rax
	movq	%rcx, -328(%rbp)
	movq	%rax, -320(%rbp)
	leaq	-328(%rbp), %rax
	.loc	33 465 32 is_stmt 1
	movq	%rax, -32(%rbp)
Ltmp455:
	.loc	27 140 9
	movq	-320(%rbp), %rax
	movq	%rax, -24(%rbp)
Ltmp456:
	.loc	28 97 9
	movq	%rax, -256(%rbp)
	leaq	-472(%rbp), %rax
Ltmp457:
	.loc	33 465 54
	movq	%rax, -16(%rbp)
Ltmp458:
	.loc	27 140 9
	movq	-464(%rbp), %rax
	movq	%rax, -8(%rbp)
Ltmp459:
	.loc	28 97 9
	movq	%rax, -248(%rbp)
Ltmp460:
	.loc	33 466 29
	movq	-328(%rbp), %rdx
	movq	-320(%rbp), %rcx
	.loc	33 466 41 is_stmt 0
	movq	-472(%rbp), %r8
	movq	-464(%rbp), %r9
	.loc	33 466 13
	callq	__ZN63_$LT$alloc..alloc..Global$u20$as$u20$core..alloc..Allocator$GT$4grow17hf3df74b3fb51e7bbE
	movq	%rdx, -336(%rbp)
	movq	%rax, -344(%rbp)
Ltmp461:
	.loc	33 461 18 is_stmt 1
	jmp	LBB57_15
Ltmp462:
LBB57_14:
	.loc	33 0 18 is_stmt 0
	movq	-504(%rbp), %rdi
	.loc	33 469 24 is_stmt 1
	movq	-472(%rbp), %rsi
	movq	-464(%rbp), %rdx
	.loc	33 469 9 is_stmt 0
	callq	__ZN63_$LT$alloc..alloc..Global$u20$as$u20$core..alloc..Allocator$GT$8allocate17hb819e94c9a6319f2E
	movq	%rdx, -336(%rbp)
	movq	%rax, -344(%rbp)
Ltmp463:
LBB57_15:
	.loc	33 0 9
	movq	-488(%rbp), %rdi
Ltmp464:
	.loc	33 472 5 is_stmt 1
	movq	-344(%rbp), %rsi
	movq	-336(%rbp), %rdx
	.loc	33 472 20 is_stmt 0
	leaq	-472(%rbp), %rax
	movq	%rax, -312(%rbp)
	.loc	33 472 5
	movq	-312(%rbp), %rcx
	callq	__ZN4core6result19Result$LT$T$C$E$GT$7map_err17h0491a5d83f260341E
Ltmp465:
	.loc	33 473 2 is_stmt 1
	jmp	LBB57_12
Ltmp466:
Lfunc_end57:
	.cfi_endproc

	.globl	__ZN5alloc7raw_vec11finish_grow28_$u7b$$u7b$closure$u7d$$u7d$17hd41b2e8578c489cfE
	.p2align	4, 0x90
__ZN5alloc7raw_vec11finish_grow28_$u7b$$u7b$closure$u7d$$u7d$17hd41b2e8578c489cfE:
Lfunc_begin58:
	.loc	33 472 0
	.cfi_startproc
	pushq	%rbp
	.cfi_def_cfa_offset 16
	.cfi_offset %rbp, -16
	movq	%rsp, %rbp
	.cfi_def_cfa_register %rbp
	subq	$32, %rsp
	movq	%rdi, -32(%rbp)
Ltmp467:
	.loc	33 472 45 prologue_end
	movq	-32(%rbp), %rax
	movq	(%rax), %rcx
	movq	8(%rax), %rax
	.loc	33 472 24 is_stmt 0
	movq	%rcx, -24(%rbp)
	movq	%rax, -16(%rbp)
	movq	-24(%rbp), %rdi
	movq	-16(%rbp), %rsi
	callq	__ZN50_$LT$T$u20$as$u20$core..convert..Into$LT$U$GT$$GT$4into17h276f0578ad68406bE
	.loc	33 472 84
	addq	$32, %rsp
	popq	%rbp
	retq
Ltmp468:
Lfunc_end58:
	.cfi_endproc

	.globl	__ZN5alloc7raw_vec11finish_grow28_$u7b$$u7b$closure$u7d$$u7d$17hd83a0bc3551b7452E
	.p2align	4, 0x90
__ZN5alloc7raw_vec11finish_grow28_$u7b$$u7b$closure$u7d$$u7d$17hd83a0bc3551b7452E:
Lfunc_begin59:
	.loc	33 457 0 is_stmt 1
	.cfi_startproc
	pushq	%rbp
	.cfi_def_cfa_offset 16
	.cfi_offset %rbp, -16
	movq	%rsp, %rbp
	.cfi_def_cfa_register %rbp
	subq	$32, %rsp
Ltmp469:
	.loc	33 457 45 prologue_end
	movq	$0, -24(%rbp)
	.loc	33 457 61 is_stmt 0
	movq	-32(%rbp), %rax
	movq	-24(%rbp), %rdx
	addq	$32, %rsp
	popq	%rbp
	retq
Ltmp470:
Lfunc_end59:
	.cfi_endproc

	.p2align	4, 0x90
__ZN5alloc7raw_vec14handle_reserve17h6a92817e02ae75b1E:
Lfunc_begin60:
	.loc	33 487 0 is_stmt 1
	.cfi_startproc
	pushq	%rbp
	.cfi_def_cfa_offset 16
	.cfi_offset %rbp, -16
	movq	%rsp, %rbp
	.cfi_def_cfa_register %rbp
	subq	$48, %rsp
	movq	%rdi, -32(%rbp)
	movq	%rsi, -24(%rbp)
Ltmp471:
	.loc	33 488 11 prologue_end
	callq	__ZN4core6result19Result$LT$T$C$E$GT$7map_err17hcc85c8a69a8ee953E
	movq	%rdx, -40(%rbp)
	movq	%rax, -48(%rbp)
	movabsq	$-9223372036854775807, %rdx
	movl	$1, %eax
	xorl	%ecx, %ecx
	cmpq	%rdx, -40(%rbp)
	cmoveq	%rcx, %rax
	.loc	33 488 5 is_stmt 0
	cmpq	$0, %rax
	jne	LBB60_2
	.loc	33 493 2 is_stmt 1
	addq	$48, %rsp
	popq	%rbp
	retq
LBB60_2:
	.loc	33 488 11
	movl	$1, %eax
	xorl	%ecx, %ecx
	cmpq	$0, -40(%rbp)
	cmoveq	%rcx, %rax
	.loc	33 488 5 is_stmt 0
	cmpq	$0, %rax
	jne	LBB60_4
	.loc	33 489 34 is_stmt 1
	callq	__ZN5alloc7raw_vec17capacity_overflow17h082ee8492f253a0eE
LBB60_4:
	.loc	33 490 26
	movq	-48(%rbp), %rdi
	movq	-40(%rbp), %rsi
	movq	%rdi, -16(%rbp)
	movq	%rsi, -8(%rbp)
Ltmp472:
	.loc	33 490 43 is_stmt 0
	callq	__ZN5alloc5alloc18handle_alloc_error17hb5f6ff255f23ea4dE
Ltmp473:
Lfunc_end60:
	.cfi_endproc

	.globl	__ZN5alloc7raw_vec14handle_reserve28_$u7b$$u7b$closure$u7d$$u7d$17hdd2e221d5ce43c77E
	.p2align	4, 0x90
__ZN5alloc7raw_vec14handle_reserve28_$u7b$$u7b$closure$u7d$$u7d$17hdd2e221d5ce43c77E:
Lfunc_begin61:
	.loc	33 488 0 is_stmt 1
	.cfi_startproc
	pushq	%rbp
	.cfi_def_cfa_offset 16
	.cfi_offset %rbp, -16
	movq	%rsp, %rbp
	.cfi_def_cfa_register %rbp
	subq	$72, %rsp
	movq	%rdi, -72(%rbp)
	movq	%rsi, -64(%rbp)
Ltmp474:
	.loc	33 488 30 prologue_end
	leaq	-72(%rbp), %rax
	movq	%rax, -32(%rbp)
Ltmp475:
	.loc	10 75 9
	leaq	-72(%rbp), %rax
	movq	%rax, -24(%rbp)
Ltmp476:
	.loc	10 80 10
	movl	$1, %eax
	xorl	%ecx, %ecx
	cmpq	$0, -64(%rbp)
	cmoveq	%rcx, %rax
	cmpq	$0, %rax
	jne	LBB61_2
	movq	$0, -48(%rbp)
	jmp	LBB61_3
LBB61_2:
	.loc	10 94 9
	leaq	-72(%rbp), %rax
	movq	%rax, -16(%rbp)
Ltmp477:
	.loc	10 94 9 is_stmt 0
	leaq	-72(%rbp), %rax
	movq	%rax, -8(%rbp)
Ltmp478:
	.loc	27 36 16 is_stmt 1
	movq	-72(%rbp), %rcx
	movq	-64(%rbp), %rax
Ltmp479:
	.loc	10 80 10
	movq	%rcx, -56(%rbp)
	movq	%rax, -48(%rbp)
Ltmp480:
LBB61_3:
	.loc	33 488 38
	movq	-56(%rbp), %rax
	movq	-48(%rbp), %rdx
	addq	$72, %rsp
	popq	%rbp
	retq
Ltmp481:
Lfunc_end61:
	.cfi_endproc

	.globl	__ZN5alloc7raw_vec19RawVec$LT$T$C$A$GT$11allocate_in17hdc31011aa83ccde5E
	.p2align	4, 0x90
__ZN5alloc7raw_vec19RawVec$LT$T$C$A$GT$11allocate_in17hdc31011aa83ccde5E:
Lfunc_begin62:
	.loc	33 169 0
	.cfi_startproc
	.cfi_personality 155, _rust_eh_personality
	.cfi_lsda 16, Lexception6
	pushq	%rbp
	.cfi_def_cfa_offset 16
	.cfi_offset %rbp, -16
	movq	%rsp, %rbp
	.cfi_def_cfa_register %rbp
	subq	$384, %rsp
	movq	%rdi, -296(%rbp)
	movb	%sil, %al
	andb	$1, %al
	movb	%al, -281(%rbp)
	movq	%rdi, -168(%rbp)
Ltmp497:
	.loc	33 171 12 prologue_end
	movb	$1, -177(%rbp)
	xorl	%eax, %eax
	testb	$1, %al
	jne	LBB62_2
	.loc	33 0 12 is_stmt 0
	movq	-296(%rbp), %rax
	.loc	33 171 25
	cmpq	$0, %rax
	sete	%al
	.loc	33 171 12
	andb	$1, %al
	movb	%al, -249(%rbp)
	jmp	LBB62_3
LBB62_2:
	movb	$1, -249(%rbp)
LBB62_3:
	testb	$1, -249(%rbp)
	jne	LBB62_5
	.loc	33 0 12
	movq	-296(%rbp), %rax
	.loc	33 176 51 is_stmt 1
	movq	%rax, -144(%rbp)
Ltmp498:
	.loc	19 459 5
	movq	$4, -136(%rbp)
Ltmp499:
	.loc	28 89 18
	movq	$4, -128(%rbp)
	movq	-128(%rbp), %rax
	movq	%rax, -304(%rbp)
	jmp	LBB62_10
Ltmp500:
LBB62_5:
	.loc	33 172 26
	movb	$0, -177(%rbp)
Ltmp494:
	.loc	33 172 13 is_stmt 0
	callq	__ZN5alloc7raw_vec19RawVec$LT$T$C$A$GT$6new_in17h2f551ee9ede64a88E
Ltmp495:
	movq	%rdx, -320(%rbp)
	movq	%rax, -312(%rbp)
	jmp	LBB62_8
LBB62_6:
	.loc	33 202 5 is_stmt 1
	testb	$1, -177(%rbp)
	jne	LBB62_25
	jmp	LBB62_24
LBB62_7:
Ltmp496:
	.loc	33 0 5 is_stmt 0
	movq	%rax, %rcx
	movl	%edx, %eax
	movq	%rcx, -160(%rbp)
	movl	%eax, -152(%rbp)
	jmp	LBB62_6
LBB62_8:
	movq	-320(%rbp), %rax
	movq	-312(%rbp), %rcx
	.loc	33 172 13 is_stmt 1
	movq	%rcx, -272(%rbp)
	movq	%rax, -264(%rbp)
LBB62_9:
	.loc	33 202 6
	movq	-272(%rbp), %rax
	movq	-264(%rbp), %rdx
	addq	$384, %rsp
	popq	%rbp
	retq
LBB62_10:
Ltmp482:
	.loc	33 0 6 is_stmt 0
	movq	-296(%rbp), %rdx
	movq	-304(%rbp), %rsi
	movl	$4, %edi
Ltmp501:
	.loc	27 438 16 is_stmt 1
	callq	__ZN4core5alloc6layout6Layout5array5inner17h6a7b267abbd56659E
Ltmp483:
	movq	%rdx, -336(%rbp)
	movq	%rax, -328(%rbp)
	jmp	LBB62_11
LBB62_11:
	.loc	27 0 16 is_stmt 0
	movq	-336(%rbp), %rax
	movq	-328(%rbp), %rcx
	.loc	27 438 16
	movq	%rcx, -248(%rbp)
	movq	%rax, -240(%rbp)
Ltmp502:
	.loc	33 176 32 is_stmt 1
	xorl	%eax, %eax
	movl	$1, %ecx
	cmpq	$0, -240(%rbp)
	cmoveq	%rcx, %rax
	.loc	33 176 26 is_stmt 0
	cmpq	$0, %rax
	jne	LBB62_13
	.loc	33 177 20 is_stmt 1
	movq	-248(%rbp), %rcx
	movq	%rcx, -352(%rbp)
	movq	-240(%rbp), %rax
	movq	%rax, -344(%rbp)
	movq	%rcx, -120(%rbp)
	movq	%rax, -112(%rbp)
Ltmp503:
	.loc	33 177 31 is_stmt 0
	movq	%rcx, -104(%rbp)
	movq	%rax, -96(%rbp)
Ltmp504:
	.loc	33 509 9 is_stmt 1
	movabsq	$-9223372036854775807, %rax
	movq	%rax, -224(%rbp)
Ltmp505:
	.loc	33 180 19
	movabsq	$-9223372036854775807, %rdx
	movl	$1, %eax
	xorl	%ecx, %ecx
	cmpq	%rdx, -224(%rbp)
	cmoveq	%rcx, %rax
	.loc	33 180 13 is_stmt 0
	cmpq	$0, %rax
	je	LBB62_15
	jmp	LBB62_16
Ltmp506:
LBB62_13:
Ltmp484:
	.loc	33 178 27 is_stmt 1
	callq	__ZN5alloc7raw_vec17capacity_overflow17h082ee8492f253a0eE
Ltmp485:
	jmp	LBB62_14
LBB62_14:
	.loc	33 0 27 is_stmt 0
	ud2
LBB62_15:
Ltmp507:
	.loc	33 184 32 is_stmt 1
	movb	-281(%rbp), %al
	andb	$1, %al
	movzbl	%al, %eax
	.loc	33 184 26 is_stmt 0
	cmpq	$0, %rax
	je	LBB62_17
	jmp	LBB62_18
LBB62_16:
Ltmp486:
	.loc	33 182 27 is_stmt 1
	callq	__ZN5alloc7raw_vec17capacity_overflow17h082ee8492f253a0eE
Ltmp487:
	jmp	LBB62_14
LBB62_17:
Ltmp490:
	.loc	33 0 27 is_stmt 0
	movq	-344(%rbp), %rdx
	movq	-352(%rbp), %rsi
	leaq	-280(%rbp), %rdi
	.loc	33 185 45 is_stmt 1
	callq	__ZN63_$LT$alloc..alloc..Global$u20$as$u20$core..alloc..Allocator$GT$8allocate17hb819e94c9a6319f2E
Ltmp491:
	movq	%rdx, -368(%rbp)
	movq	%rax, -360(%rbp)
	jmp	LBB62_21
LBB62_18:
Ltmp488:
	.loc	33 0 45 is_stmt 0
	movq	-344(%rbp), %rdx
	movq	-352(%rbp), %rsi
	leaq	-280(%rbp), %rdi
	.loc	33 186 38 is_stmt 1
	callq	__ZN63_$LT$alloc..alloc..Global$u20$as$u20$core..alloc..Allocator$GT$15allocate_zeroed17h72546782e567a36bE
Ltmp489:
	movq	%rdx, -384(%rbp)
	movq	%rax, -376(%rbp)
	jmp	LBB62_19
LBB62_19:
	.loc	33 0 38 is_stmt 0
	movq	-384(%rbp), %rax
	movq	-376(%rbp), %rcx
	.loc	33 186 38
	movq	%rcx, -216(%rbp)
	movq	%rax, -208(%rbp)
LBB62_20:
Ltmp508:
	.loc	33 188 29 is_stmt 1
	movq	-216(%rbp), %rdx
	xorl	%eax, %eax
	movl	$1, %ecx
	cmpq	$0, %rdx
	cmoveq	%rcx, %rax
	.loc	33 188 23 is_stmt 0
	cmpq	$0, %rax
	je	LBB62_22
	jmp	LBB62_23
Ltmp509:
LBB62_21:
	.loc	33 0 23
	movq	-368(%rbp), %rax
	movq	-360(%rbp), %rcx
	.loc	33 185 45 is_stmt 1
	movq	%rcx, -216(%rbp)
	movq	%rax, -208(%rbp)
	.loc	33 185 66 is_stmt 0
	jmp	LBB62_20
LBB62_22:
	.loc	33 0 66
	movq	-296(%rbp), %rax
Ltmp510:
	.loc	33 189 20 is_stmt 1
	movq	-216(%rbp), %rcx
	movq	-208(%rbp), %rdx
	movq	%rcx, -88(%rbp)
	movq	%rdx, -80(%rbp)
Ltmp511:
	.loc	33 189 28 is_stmt 0
	movq	%rcx, -72(%rbp)
	movq	%rdx, -64(%rbp)
Ltmp512:
	.loc	33 197 53 is_stmt 1
	movq	%rcx, -56(%rbp)
	movq	%rdx, -48(%rbp)
Ltmp513:
	.loc	8 450 41
	movq	%rcx, -40(%rbp)
	movq	%rdx, -32(%rbp)
	movq	%rcx, -24(%rbp)
Ltmp514:
	.loc	8 201 13
	movq	%rcx, -192(%rbp)
Ltmp515:
	.loc	8 326 9
	movq	-192(%rbp), %rcx
	movq	%rcx, -16(%rbp)
Ltmp516:
	.loc	9 87 59
	movq	%rcx, -8(%rbp)
Ltmp517:
	.loc	8 201 13
	movq	%rcx, -176(%rbp)
Ltmp518:
	.loc	9 87 18
	movq	-176(%rbp), %rcx
	movq	%rcx, -200(%rbp)
Ltmp519:
	.loc	33 196 13
	movq	-200(%rbp), %rcx
	movq	%rcx, -264(%rbp)
	movq	%rax, -272(%rbp)
Ltmp520:
	.loc	33 171 9
	jmp	LBB62_9
LBB62_23:
Ltmp492:
	.loc	33 0 9 is_stmt 0
	movq	-344(%rbp), %rsi
	movq	-352(%rbp), %rdi
Ltmp521:
	.loc	33 190 27 is_stmt 1
	callq	__ZN5alloc5alloc18handle_alloc_error17hb5f6ff255f23ea4dE
Ltmp493:
	jmp	LBB62_14
Ltmp522:
LBB62_24:
	.loc	33 169 5
	movq	-160(%rbp), %rdi
	callq	__Unwind_Resume
LBB62_25:
	.loc	33 202 5
	jmp	LBB62_24
Ltmp523:
Lfunc_end62:
	.cfi_endproc
	.section	__TEXT,__gcc_except_tab
	.p2align	2
GCC_except_table62:
Lexception6:
	.byte	255
	.byte	255
	.byte	1
	.uleb128 Lcst_end6-Lcst_begin6
Lcst_begin6:
	.uleb128 Ltmp494-Lfunc_begin62
	.uleb128 Ltmp493-Ltmp494
	.uleb128 Ltmp496-Lfunc_begin62
	.byte	0
	.uleb128 Ltmp493-Lfunc_begin62
	.uleb128 Lfunc_end62-Ltmp493
	.byte	0
	.byte	0
Lcst_end6:
	.p2align	2

	.section	__TEXT,__text,regular,pure_instructions
	.globl	__ZN5alloc7raw_vec19RawVec$LT$T$C$A$GT$13needs_to_grow17haad2148f39dff186E
	.p2align	4, 0x90
__ZN5alloc7raw_vec19RawVec$LT$T$C$A$GT$13needs_to_grow17haad2148f39dff186E:
Lfunc_begin63:
	.loc	33 360 0
	.cfi_startproc
	pushq	%rbp
	.cfi_def_cfa_offset 16
	.cfi_offset %rbp, -16
	movq	%rsp, %rbp
	.cfi_def_cfa_register %rbp
	subq	$72, %rsp
	movq	%rdi, -72(%rbp)
	movq	%rsi, -64(%rbp)
	movq	%rdx, -56(%rbp)
	movq	%rdi, -40(%rbp)
	movq	%rsi, -32(%rbp)
	movq	%rdx, -24(%rbp)
Ltmp524:
	.loc	33 361 22 prologue_end
	movq	%rdi, -16(%rbp)
Ltmp525:
	.loc	33 232 12
	xorl	%eax, %eax
	testb	$1, %al
	jne	LBB63_2
	.loc	33 0 12 is_stmt 0
	movq	-72(%rbp), %rax
	.loc	33 232 44
	movq	(%rax), %rax
	movq	%rax, -48(%rbp)
	.loc	33 232 9
	jmp	LBB63_3
LBB63_2:
	.loc	33 232 24
	movq	$-1, -48(%rbp)
Ltmp526:
LBB63_3:
	.loc	33 0 24
	movq	-56(%rbp), %rax
	movq	-64(%rbp), %rdx
	.loc	33 361 51 is_stmt 1
	movq	%rdx, -8(%rbp)
Ltmp527:
	.loc	14 1203 38
	movq	-48(%rbp), %rcx
	.loc	14 1203 13 is_stmt 0
	subq	%rdx, %rcx
Ltmp528:
	.loc	33 361 9 is_stmt 1
	cmpq	%rcx, %rax
	seta	%al
	.loc	33 362 6
	andb	$1, %al
	movzbl	%al, %eax
	addq	$72, %rsp
	popq	%rbp
	retq
Ltmp529:
Lfunc_end63:
	.cfi_endproc

	.globl	__ZN5alloc7raw_vec19RawVec$LT$T$C$A$GT$14current_memory17h5d948b175efc42cbE
	.p2align	4, 0x90
__ZN5alloc7raw_vec19RawVec$LT$T$C$A$GT$14current_memory17h5d948b175efc42cbE:
Lfunc_begin64:
	.loc	33 240 0
	.cfi_startproc
	pushq	%rbp
	.cfi_def_cfa_offset 16
	.cfi_offset %rbp, -16
	movq	%rsp, %rbp
	.cfi_def_cfa_register %rbp
	subq	$176, %rsp
	movq	%rsi, -152(%rbp)
	movq	%rdi, -144(%rbp)
	movq	%rdi, -136(%rbp)
	movq	%rsi, -80(%rbp)
Ltmp530:
	.loc	33 241 12 prologue_end
	xorl	%eax, %eax
	testb	$1, %al
	jne	LBB64_2
	.loc	33 0 12 is_stmt 0
	movq	-152(%rbp), %rax
	.loc	33 241 25
	cmpq	$0, (%rax)
	sete	%al
	.loc	33 241 12
	andb	$1, %al
	movb	%al, -121(%rbp)
	jmp	LBB64_3
LBB64_2:
	movb	$1, -121(%rbp)
LBB64_3:
	testb	$1, -121(%rbp)
	jne	LBB64_5
	.loc	33 0 12
	movq	-152(%rbp), %rax
	.loc	33 247 49 is_stmt 1
	movq	(%rax), %rdx
	movq	%rdx, -72(%rbp)
Ltmp531:
	.loc	19 459 5
	movq	$4, -64(%rbp)
Ltmp532:
	.loc	28 89 18
	movq	$4, -56(%rbp)
	movq	-56(%rbp), %rsi
Ltmp533:
	.loc	27 438 16
	movl	$4, %edi
	callq	__ZN4core5alloc6layout6Layout5array5inner17h6a7b267abbd56659E
	movq	%rax, %rdi
	movq	%rdx, %rsi
Ltmp534:
	.loc	33 247 30
	leaq	l___unnamed_11(%rip), %rdx
	callq	__ZN4core6result19Result$LT$T$C$E$GT$16unwrap_unchecked17h4fb7dcdb65ec32d9E
	movq	%rax, %rcx
	movq	-152(%rbp), %rax
	movq	%rcx, -168(%rbp)
	movq	%rdx, -160(%rbp)
	movq	%rcx, -48(%rbp)
	movq	%rdx, -40(%rbp)
Ltmp535:
	.loc	33 248 23
	movq	8(%rax), %rax
	movq	%rax, -32(%rbp)
Ltmp536:
	.loc	9 137 22
	movq	%rax, -24(%rbp)
Ltmp537:
	.loc	8 450 41
	movq	%rax, -16(%rbp)
	movq	%rax, -8(%rbp)
Ltmp538:
	.loc	8 201 13
	movq	%rax, -88(%rbp)
Ltmp539:
	.loc	9 191 18
	movq	-88(%rbp), %rax
	.loc	9 191 9 is_stmt 0
	movq	%rax, -96(%rbp)
Ltmp540:
	.loc	33 248 23 is_stmt 1
	movq	-96(%rbp), %rdi
	callq	__ZN50_$LT$T$u20$as$u20$core..convert..Into$LT$U$GT$$GT$4into17hbfed0220a720c470E
	movq	-168(%rbp), %rcx
	movq	-160(%rbp), %rdx
	movq	%rax, %rsi
	movq	-144(%rbp), %rax
	.loc	33 248 22 is_stmt 0
	movq	%rsi, -120(%rbp)
	movq	%rcx, -112(%rbp)
	movq	%rdx, -104(%rbp)
	.loc	33 248 17
	movq	-120(%rbp), %rcx
	movq	%rcx, (%rax)
	movq	-112(%rbp), %rcx
	movq	%rcx, 8(%rax)
	movq	-104(%rbp), %rcx
	movq	%rcx, 16(%rax)
Ltmp541:
	.loc	33 241 9 is_stmt 1
	jmp	LBB64_6
LBB64_5:
	.loc	33 0 9 is_stmt 0
	movq	-144(%rbp), %rax
	.loc	33 242 13 is_stmt 1
	movq	$0, 16(%rax)
LBB64_6:
	.loc	33 0 13 is_stmt 0
	movq	-136(%rbp), %rax
	.loc	33 251 6 is_stmt 1
	addq	$176, %rsp
	popq	%rbp
	retq
Ltmp542:
Lfunc_end64:
	.cfi_endproc

	.globl	__ZN5alloc7raw_vec19RawVec$LT$T$C$A$GT$14grow_amortized17h69584c28c3cc2728E
	.p2align	4, 0x90
__ZN5alloc7raw_vec19RawVec$LT$T$C$A$GT$14grow_amortized17h69584c28c3cc2728E:
Lfunc_begin65:
	.loc	33 379 0
	.cfi_startproc
	pushq	%rbp
	.cfi_def_cfa_offset 16
	.cfi_offset %rbp, -16
	movq	%rsp, %rbp
	.cfi_def_cfa_register %rbp
	subq	$656, %rsp
	movq	%rdi, -624(%rbp)
	movq	%rsi, -616(%rbp)
	movq	%rdx, -608(%rbp)
	movq	%rdi, -352(%rbp)
	movq	%rsi, -344(%rbp)
	movq	%rdx, -336(%rbp)
Ltmp543:
	.loc	33 383 12 prologue_end
	xorl	%eax, %eax
	testb	$1, %al
	jne	LBB65_2
	.loc	33 0 12 is_stmt 0
	movq	-608(%rbp), %rsi
	movq	-616(%rbp), %rdi
	.loc	33 390 28 is_stmt 1
	callq	__ZN4core3num23_$LT$impl$u20$usize$GT$11checked_add17h3d220d3dab135c76E
	movq	%rdx, -528(%rbp)
	movq	%rax, -536(%rbp)
	.loc	33 390 62 is_stmt 0
	movq	$0, -512(%rbp)
Ltmp544:
	.loc	6 1096 9 is_stmt 1
	cmpq	$0, -536(%rbp)
	je	LBB65_4
	jmp	LBB65_5
Ltmp545:
LBB65_2:
	.loc	33 386 24
	movq	$0, -576(%rbp)
	movq	-584(%rbp), %rdi
	movq	-576(%rbp), %rsi
	callq	__ZN50_$LT$T$u20$as$u20$core..convert..Into$LT$U$GT$$GT$4into17h276f0578ad68406bE
	.loc	33 386 20 is_stmt 0
	movq	%rax, -600(%rbp)
	movq	%rdx, -592(%rbp)
LBB65_3:
	.loc	33 403 6 is_stmt 1
	movq	-600(%rbp), %rax
	movq	-592(%rbp), %rdx
	addq	$656, %rsp
	popq	%rbp
	retq
LBB65_4:
Ltmp546:
	.loc	6 1098 25
	movq	-520(%rbp), %rcx
	movq	-512(%rbp), %rax
	.loc	6 1098 21 is_stmt 0
	movq	%rcx, -552(%rbp)
	movq	%rax, -544(%rbp)
	.loc	6 1098 28
	jmp	LBB65_6
LBB65_5:
	.loc	6 1097 18 is_stmt 1
	movq	-528(%rbp), %rax
	movq	%rax, -328(%rbp)
Ltmp547:
	.loc	6 1097 24 is_stmt 0
	movq	%rax, -552(%rbp)
	movabsq	$-9223372036854775807, %rax
	movq	%rax, -544(%rbp)
Ltmp548:
LBB65_6:
	.loc	30 2091 15 is_stmt 1
	movabsq	$-9223372036854775807, %rdx
	movl	$1, %eax
	xorl	%ecx, %ecx
	cmpq	%rdx, -544(%rbp)
	cmoveq	%rcx, %rax
	.loc	30 2091 9 is_stmt 0
	cmpq	$0, %rax
	jne	LBB65_8
	.loc	30 2092 16 is_stmt 1
	movq	-552(%rbp), %rax
	movq	%rax, -304(%rbp)
Ltmp549:
	.loc	30 2092 22 is_stmt 0
	movq	%rax, -568(%rbp)
	movabsq	$-9223372036854775807, %rax
	movq	%rax, -560(%rbp)
Ltmp550:
	.loc	30 2092 45
	jmp	LBB65_9
LBB65_8:
	.loc	30 2093 17 is_stmt 1
	movq	-552(%rbp), %rcx
	movq	-544(%rbp), %rax
	movq	%rcx, -320(%rbp)
	movq	%rax, -312(%rbp)
Ltmp551:
	.loc	30 2093 42 is_stmt 0
	movq	%rcx, -400(%rbp)
	movq	%rax, -392(%rbp)
	.loc	30 2093 23
	movq	-400(%rbp), %rcx
	movq	-392(%rbp), %rax
	movq	%rcx, -568(%rbp)
	movq	%rax, -560(%rbp)
Ltmp552:
LBB65_9:
	.loc	33 390 28 is_stmt 1
	movabsq	$-9223372036854775807, %rdx
	movl	$1, %eax
	xorl	%ecx, %ecx
	cmpq	%rdx, -560(%rbp)
	cmoveq	%rcx, %rax
	cmpq	$0, %rax
	jne	LBB65_11
	.loc	33 0 28 is_stmt 0
	movq	-624(%rbp), %rax
	.loc	33 390 28
	movq	-568(%rbp), %rsi
	movq	%rsi, -248(%rbp)
Ltmp553:
	.loc	33 390 28
	movq	%rsi, -240(%rbp)
Ltmp554:
	.loc	33 394 28 is_stmt 1
	movq	(%rax), %rdi
	shlq	$1, %rdi
	movq	%rdi, -232(%rbp)
	.loc	33 394 42 is_stmt 0
	movq	%rsi, -224(%rbp)
Ltmp555:
	.loc	15 1276 5 is_stmt 1
	movq	%rdi, -216(%rbp)
	.loc	15 1276 12 is_stmt 0
	movq	%rsi, -208(%rbp)
Ltmp556:
	.loc	15 803 13 is_stmt 1
	callq	__ZN4core3cmp6max_by17hb70c5b8946bbfe9fE
	movq	%rax, %rsi
	movq	%rsi, -200(%rbp)
Ltmp557:
	.loc	33 395 52
	movq	%rsi, -192(%rbp)
	.loc	33 395 19 is_stmt 0
	movq	$4, -184(%rbp)
Ltmp558:
	.loc	15 1276 5 is_stmt 1
	movq	$4, -176(%rbp)
	.loc	15 1276 12 is_stmt 0
	movq	%rsi, -168(%rbp)
Ltmp559:
	.loc	15 803 13 is_stmt 1
	movl	$4, %edi
	callq	__ZN4core3cmp6max_by17hb70c5b8946bbfe9fE
	movq	%rax, %rdx
	movq	%rdx, -648(%rbp)
	movq	%rdx, -160(%rbp)
Ltmp560:
	.loc	33 397 45
	movq	%rdx, -152(%rbp)
Ltmp561:
	.loc	19 459 5
	movq	$4, -144(%rbp)
Ltmp562:
	.loc	28 89 18
	movq	$4, -136(%rbp)
	movq	-136(%rbp), %rsi
Ltmp563:
	.loc	27 438 16
	movl	$4, %edi
	callq	__ZN4core5alloc6layout6Layout5array5inner17h6a7b267abbd56659E
	movq	-624(%rbp), %rsi
	movq	%rax, -640(%rbp)
	movq	%rdx, -632(%rbp)
	movq	%rax, -128(%rbp)
	movq	%rdx, -120(%rbp)
Ltmp564:
	.loc	33 400 43
	leaq	-440(%rbp), %rdi
	callq	__ZN5alloc7raw_vec19RawVec$LT$T$C$A$GT$14current_memory17h5d948b175efc42cbE
	movq	-640(%rbp), %rsi
	movq	-632(%rbp), %rdx
	movq	-624(%rbp), %r8
	.loc	33 400 19 is_stmt 0
	leaq	-464(%rbp), %rdi
	leaq	-440(%rbp), %rcx
	callq	__ZN5alloc7raw_vec11finish_grow17h4863bce43e4a13e4E
Ltmp565:
	.loc	30 2091 9 is_stmt 1
	cmpq	$0, -464(%rbp)
	je	LBB65_13
	jmp	LBB65_14
Ltmp566:
LBB65_11:
	.loc	33 390 79
	movq	-568(%rbp), %rcx
	movq	-560(%rbp), %rax
	movq	%rcx, -296(%rbp)
	movq	%rax, -288(%rbp)
Ltmp567:
	.loc	33 390 79 is_stmt 0
	movq	%rcx, -504(%rbp)
	movq	%rax, -496(%rbp)
Ltmp568:
	.loc	30 2107 17 is_stmt 1
	movq	-504(%rbp), %rcx
	movq	-496(%rbp), %rax
	movq	%rcx, -280(%rbp)
	movq	%rax, -272(%rbp)
Ltmp569:
	.loc	30 2107 38 is_stmt 0
	movq	%rcx, -264(%rbp)
	movq	%rax, -256(%rbp)
Ltmp570:
	.loc	10 117 9 is_stmt 1
	movq	%rcx, -384(%rbp)
	movq	%rax, -376(%rbp)
Ltmp571:
	.loc	30 2107 23
	movq	-384(%rbp), %rcx
	movq	-376(%rbp), %rax
	movq	%rcx, -600(%rbp)
	movq	%rax, -592(%rbp)
Ltmp572:
LBB65_12:
	.loc	38 1 1
	jmp	LBB65_3
LBB65_13:
Ltmp573:
	.loc	30 2092 16
	movq	-456(%rbp), %rcx
	movq	-448(%rbp), %rax
	movq	%rcx, -96(%rbp)
	movq	%rax, -88(%rbp)
Ltmp574:
	.loc	30 2092 22 is_stmt 0
	movq	%rcx, -480(%rbp)
	movq	%rax, -472(%rbp)
	movq	$0, -488(%rbp)
Ltmp575:
	.loc	30 2092 45
	jmp	LBB65_15
LBB65_14:
	.loc	30 2093 17 is_stmt 1
	movq	-456(%rbp), %rcx
	movq	-448(%rbp), %rax
	movq	%rcx, -112(%rbp)
	movq	%rax, -104(%rbp)
Ltmp576:
	.loc	30 2093 42 is_stmt 0
	movq	%rcx, -368(%rbp)
	movq	%rax, -360(%rbp)
	.loc	30 2093 23
	movq	-368(%rbp), %rcx
	movq	-360(%rbp), %rax
	movq	%rcx, -480(%rbp)
	movq	%rax, -472(%rbp)
	movq	$1, -488(%rbp)
Ltmp577:
LBB65_15:
	.loc	33 400 19 is_stmt 1
	cmpq	$0, -488(%rbp)
	jne	LBB65_17
	.loc	33 0 19 is_stmt 0
	movq	-648(%rbp), %rcx
	movq	-624(%rbp), %rdi
	.loc	33 400 19
	movq	-480(%rbp), %rsi
	movq	-472(%rbp), %rdx
	movq	%rsi, -32(%rbp)
	movq	%rdx, -24(%rbp)
Ltmp578:
	.loc	33 400 19
	movq	%rsi, -16(%rbp)
	movq	%rdx, -8(%rbp)
Ltmp579:
	.loc	33 401 9 is_stmt 1
	callq	__ZN5alloc7raw_vec19RawVec$LT$T$C$A$GT$15set_ptr_and_cap17hf7f137735ff06f83E
	.loc	33 402 9
	movabsq	$-9223372036854775807, %rax
	movq	%rax, -592(%rbp)
Ltmp580:
	.loc	33 403 6
	jmp	LBB65_3
LBB65_17:
Ltmp581:
	.loc	33 400 82
	movq	-480(%rbp), %rcx
	movq	-472(%rbp), %rax
	movq	%rcx, -80(%rbp)
	movq	%rax, -72(%rbp)
Ltmp582:
	.loc	33 400 82 is_stmt 0
	movq	%rcx, -416(%rbp)
	movq	%rax, -408(%rbp)
Ltmp583:
	.loc	30 2107 17 is_stmt 1
	movq	-416(%rbp), %rcx
	movq	-408(%rbp), %rax
	movq	%rcx, -64(%rbp)
	movq	%rax, -56(%rbp)
Ltmp584:
	.loc	30 2107 38 is_stmt 0
	movq	%rcx, -48(%rbp)
	movq	%rax, -40(%rbp)
	.loc	30 2107 23
	movq	%rcx, -600(%rbp)
	movq	%rax, -592(%rbp)
Ltmp585:
	.loc	38 1 1 is_stmt 1
	jmp	LBB65_12
Ltmp586:
Lfunc_end65:
	.cfi_endproc

	.globl	__ZN5alloc7raw_vec19RawVec$LT$T$C$A$GT$15set_ptr_and_cap17hf7f137735ff06f83E
	.p2align	4, 0x90
__ZN5alloc7raw_vec19RawVec$LT$T$C$A$GT$15set_ptr_and_cap17hf7f137735ff06f83E:
Lfunc_begin66:
	.loc	33 364 0
	.cfi_startproc
	pushq	%rbp
	.cfi_def_cfa_offset 16
	.cfi_offset %rbp, -16
	movq	%rsp, %rbp
	.cfi_def_cfa_register %rbp
	subq	$112, %rsp
	movq	%rdi, -88(%rbp)
	movq	%rsi, -80(%rbp)
	movq	%rdx, -72(%rbp)
	movq	%rcx, -64(%rbp)
Ltmp587:
	.loc	33 368 51 prologue_end
	movq	%rsi, -56(%rbp)
	movq	%rdx, -48(%rbp)
Ltmp588:
	.loc	8 450 41
	movq	%rsi, -40(%rbp)
	movq	%rdx, -32(%rbp)
	movq	%rsi, -24(%rbp)
Ltmp589:
	.loc	8 201 13
	movq	%rsi, -104(%rbp)
Ltmp590:
	.loc	8 326 9
	movq	-104(%rbp), %rax
	movq	%rax, -16(%rbp)
Ltmp591:
	.loc	9 87 59
	movq	%rax, -8(%rbp)
Ltmp592:
	.loc	8 201 13
	movq	%rax, -96(%rbp)
Ltmp593:
	.loc	9 87 18
	movq	-96(%rbp), %rax
	movq	%rax, -112(%rbp)
Ltmp594:
	.loc	33 368 9
	movq	-112(%rbp), %rax
	movq	%rax, 8(%rdi)
	.loc	33 369 9
	movq	%rcx, (%rdi)
	.loc	33 370 6
	addq	$112, %rsp
	popq	%rbp
	retq
Ltmp595:
Lfunc_end66:
	.cfi_endproc

	.globl	__ZN5alloc7raw_vec19RawVec$LT$T$C$A$GT$6new_in17h2f551ee9ede64a88E
	.p2align	4, 0x90
__ZN5alloc7raw_vec19RawVec$LT$T$C$A$GT$6new_in17h2f551ee9ede64a88E:
Lfunc_begin67:
	.loc	33 121 0
	.cfi_startproc
	pushq	%rbp
	.cfi_def_cfa_offset 16
	.cfi_offset %rbp, -16
	movq	%rsp, %rbp
	.cfi_def_cfa_register %rbp
	subq	$96, %rsp
Ltmp596:
	.loc	19 459 5 prologue_end
	movq	$4, -48(%rbp)
Ltmp597:
	.loc	20 599 14
	movq	$4, -40(%rbp)
	movq	-40(%rbp), %rax
	movq	%rax, -96(%rbp)
	movq	%rax, -32(%rbp)
Ltmp598:
	.loc	20 0 14 is_stmt 0
	movq	-96(%rbp), %rax
Ltmp599:
	.loc	8 97 36 is_stmt 1
	movq	%rax, -8(%rbp)
Ltmp600:
	.loc	8 201 13
	movq	%rax, -64(%rbp)
Ltmp601:
	.loc	9 191 18
	movq	-64(%rbp), %rax
	.loc	9 191 9 is_stmt 0
	movq	%rax, -72(%rbp)
Ltmp602:
	.loc	33 123 9 is_stmt 1
	movq	-72(%rbp), %rax
	movq	%rax, -80(%rbp)
	movq	$0, -88(%rbp)
	.loc	33 124 6
	movq	-88(%rbp), %rax
	movq	-80(%rbp), %rdx
	addq	$96, %rsp
	popq	%rbp
	retq
Ltmp603:
Lfunc_end67:
	.cfi_endproc

	.globl	__ZN5alloc7raw_vec19RawVec$LT$T$C$A$GT$7reserve17h9fa29c8d9f49dee3E
	.p2align	4, 0x90
__ZN5alloc7raw_vec19RawVec$LT$T$C$A$GT$7reserve17h9fa29c8d9f49dee3E:
Lfunc_begin68:
	.loc	33 274 0
	.cfi_startproc
	pushq	%rbp
	.cfi_def_cfa_offset 16
	.cfi_offset %rbp, -16
	movq	%rsp, %rbp
	.cfi_def_cfa_register %rbp
	subq	$48, %rsp
	movq	%rdi, -48(%rbp)
	movq	%rsi, -40(%rbp)
	movq	%rdx, -32(%rbp)
	movq	%rdi, -24(%rbp)
	movq	%rsi, -16(%rbp)
	movq	%rdx, -8(%rbp)
Ltmp604:
	.loc	33 288 12 prologue_end
	callq	__ZN5alloc7raw_vec19RawVec$LT$T$C$A$GT$13needs_to_grow17haad2148f39dff186E
	testb	$1, %al
	jne	LBB68_2
LBB68_1:
	.loc	33 291 6
	addq	$48, %rsp
	popq	%rbp
	retq
LBB68_2:
	.loc	33 0 6 is_stmt 0
	movq	-32(%rbp), %rdx
	movq	-40(%rbp), %rsi
	movq	-48(%rbp), %rdi
	.loc	33 289 13 is_stmt 1
	callq	__ZN5alloc7raw_vec19RawVec$LT$T$C$A$GT$7reserve21do_reserve_and_handle17h93cc08d0a7cfd2c5E
	.loc	33 288 9
	jmp	LBB68_1
Ltmp605:
Lfunc_end68:
	.cfi_endproc

	.globl	__ZN5alloc7raw_vec19RawVec$LT$T$C$A$GT$7reserve21do_reserve_and_handle17h93cc08d0a7cfd2c5E
	.p2align	4, 0x90
__ZN5alloc7raw_vec19RawVec$LT$T$C$A$GT$7reserve21do_reserve_and_handle17h93cc08d0a7cfd2c5E:
Lfunc_begin69:
	.loc	33 280 0
	.cfi_startproc
	pushq	%rbp
	.cfi_def_cfa_offset 16
	.cfi_offset %rbp, -16
	movq	%rsp, %rbp
	.cfi_def_cfa_register %rbp
	subq	$32, %rsp
	movq	%rdi, -24(%rbp)
	movq	%rsi, -16(%rbp)
	movq	%rdx, -8(%rbp)
Ltmp606:
	.loc	33 285 28 prologue_end
	callq	__ZN5alloc7raw_vec19RawVec$LT$T$C$A$GT$14grow_amortized17h69584c28c3cc2728E
	movq	%rax, %rdi
	movq	%rdx, %rsi
	.loc	33 285 13 is_stmt 0
	callq	__ZN5alloc7raw_vec14handle_reserve17h6a92817e02ae75b1E
	.loc	33 286 10 is_stmt 1
	addq	$32, %rsp
	popq	%rbp
	retq
Ltmp607:
Lfunc_end69:
	.cfi_endproc

	.globl	__ZN62_$LT$T$u20$as$u20$alloc..vec..spec_from_elem..SpecFromElem$GT$9from_elem17h5a0b2f19f44a1ec4E
	.p2align	4, 0x90
__ZN62_$LT$T$u20$as$u20$alloc..vec..spec_from_elem..SpecFromElem$GT$9from_elem17h5a0b2f19f44a1ec4E:
Lfunc_begin70:
	.file	39 "/rustc/2c8cc343237b8f7d5a3c3703e3a87f2eb2c54a74/library/alloc/src/vec" "spec_from_elem.rs"
	.loc	39 23 0
	.cfi_startproc
	.cfi_personality 155, _rust_eh_personality
	.cfi_lsda 16, Lexception7
	pushq	%rbp
	.cfi_def_cfa_offset 16
	.cfi_offset %rbp, -16
	movq	%rsp, %rbp
	.cfi_def_cfa_register %rbp
	subq	$176, %rsp
	movq	%rsi, -144(%rbp)
	movq	%rdi, -136(%rbp)
	movq	%rdi, -128(%rbp)
	movss	%xmm0, -116(%rbp)
	movq	%rsi, -80(%rbp)
Ltmp621:
	.loc	39 24 9 prologue_end
	movb	$1, -83(%rbp)
	movb	$1, -84(%rbp)
Ltmp608:
	leaq	-116(%rbp), %rdi
	.loc	39 24 12 is_stmt 0
	callq	__ZN51_$LT$f32$u20$as$u20$alloc..vec..is_zero..IsZero$GT$7is_zero17hfa6c7e1260be65e8E
Ltmp609:
	movb	%al, -117(%rbp)
	jmp	LBB70_3
LBB70_1:
	.loc	39 30 5 is_stmt 1
	testb	$1, -84(%rbp)
	jne	LBB70_14
	jmp	LBB70_13
LBB70_2:
Ltmp620:
	.loc	39 0 5 is_stmt 0
	movq	%rax, %rcx
	movl	%edx, %eax
	movq	%rcx, -40(%rbp)
	movl	%eax, -32(%rbp)
	jmp	LBB70_1
LBB70_3:
	movb	-117(%rbp), %al
	.loc	39 24 12 is_stmt 1
	testb	$1, %al
	jne	LBB70_5
	jmp	LBB70_4
LBB70_4:
	.loc	39 0 12 is_stmt 0
	movq	-144(%rbp), %rdi
	.loc	39 27 43 is_stmt 1
	movq	%rdi, -16(%rbp)
	.loc	39 27 46 is_stmt 0
	movb	$0, -84(%rbp)
Ltmp622:
	.loc	1 676 45 is_stmt 1
	movq	%rdi, -8(%rbp)
Ltmp623:
	.loc	33 131 37
	movb	$0, -81(%rbp)
	.loc	33 131 9 is_stmt 0
	movzbl	-81(%rbp), %esi
Ltmp610:
	callq	__ZN5alloc7raw_vec19RawVec$LT$T$C$A$GT$11allocate_in17hdc31011aa83ccde5E
Ltmp611:
	movq	%rdx, -160(%rbp)
	movq	%rax, -152(%rbp)
	jmp	LBB70_8
Ltmp624:
LBB70_5:
	.loc	33 0 9
	movq	-144(%rbp), %rdi
	.loc	39 25 63 is_stmt 1
	movq	%rdi, -24(%rbp)
	.loc	39 25 66 is_stmt 0
	movb	$0, -84(%rbp)
Ltmp625:
	.loc	33 139 37 is_stmt 1
	movb	$1, -82(%rbp)
	.loc	33 139 9 is_stmt 0
	movzbl	-82(%rbp), %esi
Ltmp618:
	callq	__ZN5alloc7raw_vec19RawVec$LT$T$C$A$GT$11allocate_in17hdc31011aa83ccde5E
Ltmp619:
	movq	%rdx, -176(%rbp)
	movq	%rax, -168(%rbp)
	jmp	LBB70_6
Ltmp626:
LBB70_6:
	.loc	33 0 9
	movq	-136(%rbp), %rax
	movq	-144(%rbp), %rcx
	movq	-176(%rbp), %rdx
	movq	-168(%rbp), %rsi
	.loc	39 25 20 is_stmt 1
	movq	%rsi, (%rax)
	movq	%rdx, 8(%rax)
	movq	%rcx, 16(%rax)
LBB70_7:
	.loc	39 0 20 is_stmt 0
	movq	-128(%rbp), %rax
	.loc	39 30 6 is_stmt 1
	addq	$176, %rsp
	popq	%rbp
	retq
LBB70_8:
	.loc	39 0 6 is_stmt 0
	movq	-144(%rbp), %rsi
	movq	-160(%rbp), %rax
	movq	-152(%rbp), %rcx
Ltmp627:
	.loc	1 676 9 is_stmt 1
	movq	%rcx, -112(%rbp)
	movq	%rax, -104(%rbp)
	movq	$0, -96(%rbp)
Ltmp628:
	.loc	39 28 40
	movb	$0, -83(%rbp)
	movss	-116(%rbp), %xmm0
	.loc	39 28 26 is_stmt 0
	movss	%xmm0, -88(%rbp)
	.loc	39 28 9
	movss	-88(%rbp), %xmm0
Ltmp612:
	leaq	-112(%rbp), %rdi
	callq	__ZN5alloc3vec16Vec$LT$T$C$A$GT$11extend_with17h2d974fcf2d7bcf3bE
Ltmp613:
	jmp	LBB70_11
Ltmp629:
LBB70_9:
Ltmp615:
	.loc	39 0 9
	leaq	-112(%rbp), %rdi
	.loc	39 30 5 is_stmt 1
	callq	__ZN4core3ptr47drop_in_place$LT$alloc..vec..Vec$LT$f32$GT$$GT$17h5e42e94b0ac57530E
Ltmp616:
	jmp	LBB70_1
LBB70_10:
Ltmp614:
	.loc	39 0 5 is_stmt 0
	movq	%rax, %rcx
	movl	%edx, %eax
	movq	%rcx, -40(%rbp)
	movl	%eax, -32(%rbp)
	jmp	LBB70_9
LBB70_11:
	movq	-136(%rbp), %rax
Ltmp630:
	.loc	39 29 9 is_stmt 1
	movq	-112(%rbp), %rcx
	movq	%rcx, (%rax)
	movq	-104(%rbp), %rcx
	movq	%rcx, 8(%rax)
	movq	-96(%rbp), %rcx
	movq	%rcx, 16(%rax)
Ltmp631:
	.loc	39 30 5
	jmp	LBB70_7
LBB70_12:
Ltmp617:
	.loc	39 23 5
	callq	__ZN4core9panicking19panic_cannot_unwind17h1fbca7e1d7f56ae1E
LBB70_13:
	.loc	39 30 5
	testb	$1, -83(%rbp)
	jne	LBB70_16
	jmp	LBB70_15
LBB70_14:
	jmp	LBB70_13
LBB70_15:
	.loc	39 23 5
	movq	-40(%rbp), %rdi
	callq	__Unwind_Resume
LBB70_16:
	.loc	39 30 5
	jmp	LBB70_15
Ltmp632:
Lfunc_end70:
	.cfi_endproc
	.section	__TEXT,__gcc_except_tab
	.p2align	2
GCC_except_table70:
Lexception7:
	.byte	255
	.byte	255
	.byte	1
	.uleb128 Lcst_end7-Lcst_begin7
Lcst_begin7:
	.uleb128 Ltmp608-Lfunc_begin70
	.uleb128 Ltmp619-Ltmp608
	.uleb128 Ltmp620-Lfunc_begin70
	.byte	0
	.uleb128 Ltmp612-Lfunc_begin70
	.uleb128 Ltmp613-Ltmp612
	.uleb128 Ltmp614-Lfunc_begin70
	.byte	0
	.uleb128 Ltmp615-Lfunc_begin70
	.uleb128 Ltmp616-Ltmp615
	.uleb128 Ltmp617-Lfunc_begin70
	.byte	0
	.uleb128 Ltmp616-Lfunc_begin70
	.uleb128 Lfunc_end70-Ltmp616
	.byte	0
	.byte	0
Lcst_end7:
	.p2align	2

	.section	__TEXT,__text,regular,pure_instructions
	.globl	__ZN63_$LT$I$u20$as$u20$core..iter..traits..collect..IntoIterator$GT$9into_iter17h96bfbdb47885f99cE
	.p2align	4, 0x90
__ZN63_$LT$I$u20$as$u20$core..iter..traits..collect..IntoIterator$GT$9into_iter17h96bfbdb47885f99cE:
Lfunc_begin71:
	.loc	35 272 0
	.cfi_startproc
	pushq	%rbp
	.cfi_def_cfa_offset 16
	.cfi_offset %rbp, -16
	movq	%rsp, %rbp
	.cfi_def_cfa_register %rbp
	pushq	%rax
	movl	%esi, %edx
	movl	%edi, %eax
	movl	%eax, -8(%rbp)
	movl	%edx, -4(%rbp)
Ltmp633:
	.loc	35 274 6 prologue_end
	addq	$8, %rsp
	popq	%rbp
	retq
Ltmp634:
Lfunc_end71:
	.cfi_endproc

	.globl	__ZN63_$LT$I$u20$as$u20$core..iter..traits..collect..IntoIterator$GT$9into_iter17hcd02363d0288a484E
	.p2align	4, 0x90
__ZN63_$LT$I$u20$as$u20$core..iter..traits..collect..IntoIterator$GT$9into_iter17hcd02363d0288a484E:
Lfunc_begin72:
	.loc	35 272 0
	.cfi_startproc
	pushq	%rbp
	.cfi_def_cfa_offset 16
	.cfi_offset %rbp, -16
	movq	%rsp, %rbp
	.cfi_def_cfa_register %rbp
	subq	$16, %rsp
	movq	%rsi, %rdx
	movq	%rdi, %rax
	movq	%rax, -16(%rbp)
	movq	%rdx, -8(%rbp)
Ltmp635:
	.loc	35 274 6 prologue_end
	addq	$16, %rsp
	popq	%rbp
	retq
Ltmp636:
Lfunc_end72:
	.cfi_endproc

	.p2align	4, 0x90
__ZN63_$LT$alloc..alloc..Global$u20$as$u20$core..alloc..Allocator$GT$10deallocate17h53fc4896331f69bbE:
Lfunc_begin73:
	.loc	36 246 0
	.cfi_startproc
	pushq	%rbp
	.cfi_def_cfa_offset 16
	.cfi_offset %rbp, -16
	movq	%rsp, %rbp
	.cfi_def_cfa_register %rbp
	subq	$112, %rsp
	movq	%rsi, -112(%rbp)
	movq	%rdx, -104(%rbp)
	movq	%rcx, -96(%rbp)
	movq	%rdi, -64(%rbp)
	movq	%rsi, -56(%rbp)
Ltmp637:
	.loc	36 247 12 prologue_end
	leaq	-104(%rbp), %rax
	movq	%rax, -48(%rbp)
	cmpq	$0, -104(%rbp)
	jne	LBB73_2
	.loc	36 247 9 is_stmt 0
	jmp	LBB73_3
LBB73_2:
	.loc	36 0 9
	movq	-112(%rbp), %rdi
	.loc	36 250 30 is_stmt 1
	movq	%rdi, -40(%rbp)
Ltmp638:
	.loc	8 326 9
	movq	%rdi, -32(%rbp)
Ltmp639:
	.loc	36 250 44
	movq	-104(%rbp), %rcx
	movq	-96(%rbp), %rax
	movq	%rcx, -88(%rbp)
	movq	%rax, -80(%rbp)
Ltmp640:
	.loc	36 113 34
	leaq	-88(%rbp), %rax
	movq	%rax, -24(%rbp)
Ltmp641:
	.loc	27 129 9
	movq	-88(%rbp), %rsi
Ltmp642:
	.loc	36 113 49
	leaq	-88(%rbp), %rax
	movq	%rax, -16(%rbp)
Ltmp643:
	.loc	27 140 9
	movq	-80(%rbp), %rax
	movq	%rax, -8(%rbp)
Ltmp644:
	.loc	28 97 9
	movq	%rax, -72(%rbp)
	movq	-72(%rbp), %rdx
Ltmp645:
	.loc	36 113 14
	callq	___rust_dealloc
Ltmp646:
LBB73_3:
	.loc	36 252 6
	addq	$112, %rsp
	popq	%rbp
	retq
Ltmp647:
Lfunc_end73:
	.cfi_endproc

	.p2align	4, 0x90
__ZN63_$LT$alloc..alloc..Global$u20$as$u20$core..alloc..Allocator$GT$15allocate_zeroed17h72546782e567a36bE:
Lfunc_begin74:
	.loc	36 241 0
	.cfi_startproc
	pushq	%rbp
	.cfi_def_cfa_offset 16
	.cfi_offset %rbp, -16
	movq	%rsp, %rbp
	.cfi_def_cfa_register %rbp
	subq	$32, %rsp
	movq	%rdi, -24(%rbp)
	movq	%rsi, -16(%rbp)
	movq	%rdx, -8(%rbp)
	movl	$1, %ecx
Ltmp648:
	.loc	36 242 9 prologue_end
	callq	__ZN5alloc5alloc6Global10alloc_impl17h9efe8df304505d00E
	.loc	36 243 6
	addq	$32, %rsp
	popq	%rbp
	retq
Ltmp649:
Lfunc_end74:
	.cfi_endproc

	.p2align	4, 0x90
__ZN63_$LT$alloc..alloc..Global$u20$as$u20$core..alloc..Allocator$GT$4grow17hf3df74b3fb51e7bbE:
Lfunc_begin75:
	.loc	36 255 0
	.cfi_startproc
	pushq	%rbp
	.cfi_def_cfa_offset 16
	.cfi_offset %rbp, -16
	movq	%rsp, %rbp
	.cfi_def_cfa_register %rbp
	subq	$64, %rsp
	movq	%rdi, -48(%rbp)
	movq	%rsi, -40(%rbp)
	movq	%rdx, -32(%rbp)
	movq	%rcx, -24(%rbp)
	movq	%r8, -16(%rbp)
	movq	%r9, -8(%rbp)
Ltmp650:
	.loc	36 262 18 prologue_end
	movq	%rsp, %rax
	movl	$0, (%rax)
	callq	__ZN5alloc5alloc6Global9grow_impl17h4665a3f4aee6ae4cE
	.loc	36 263 6
	addq	$64, %rsp
	popq	%rbp
	retq
Ltmp651:
Lfunc_end75:
	.cfi_endproc

	.p2align	4, 0x90
__ZN63_$LT$alloc..alloc..Global$u20$as$u20$core..alloc..Allocator$GT$8allocate17hb819e94c9a6319f2E:
Lfunc_begin76:
	.loc	36 236 0
	.cfi_startproc
	pushq	%rbp
	.cfi_def_cfa_offset 16
	.cfi_offset %rbp, -16
	movq	%rsp, %rbp
	.cfi_def_cfa_register %rbp
	subq	$32, %rsp
	movq	%rdi, -24(%rbp)
	movq	%rsi, -16(%rbp)
	movq	%rdx, -8(%rbp)
	xorl	%ecx, %ecx
Ltmp652:
	.loc	36 237 9 prologue_end
	callq	__ZN5alloc5alloc6Global10alloc_impl17h9efe8df304505d00E
	.loc	36 238 6
	addq	$32, %rsp
	popq	%rbp
	retq
Ltmp653:
Lfunc_end76:
	.cfi_endproc

	.globl	__ZN70_$LT$alloc..vec..Vec$LT$T$C$A$GT$$u20$as$u20$core..ops..drop..Drop$GT$4drop17hf804021c9afa5bc1E
	.p2align	4, 0x90
__ZN70_$LT$alloc..vec..Vec$LT$T$C$A$GT$$u20$as$u20$core..ops..drop..Drop$GT$4drop17hf804021c9afa5bc1E:
Lfunc_begin77:
	.loc	1 3054 0
	.cfi_startproc
	pushq	%rbp
	.cfi_def_cfa_offset 16
	.cfi_offset %rbp, -16
	movq	%rsp, %rbp
	.cfi_def_cfa_register %rbp
	subq	$160, %rsp
	movq	%rdi, -120(%rbp)
Ltmp654:
	.loc	1 3059 62 prologue_end
	movq	%rdi, -112(%rbp)
Ltmp655:
	.loc	1 1280 19
	movq	%rdi, -104(%rbp)
Ltmp656:
	.loc	33 224 9
	movq	8(%rdi), %rcx
	movq	%rcx, -96(%rbp)
Ltmp657:
	.loc	9 104 9
	movq	%rcx, -88(%rbp)
Ltmp658:
	.loc	8 326 9
	movq	%rcx, -80(%rbp)
Ltmp659:
	.loc	1 1282 21
	movq	%rcx, -72(%rbp)
Ltmp660:
	.loc	24 52 36
	movq	%rcx, -160(%rbp)
	.loc	24 52 18 is_stmt 0
	movq	-160(%rbp), %rax
	movq	%rax, -64(%rbp)
Ltmp661:
	.loc	24 38 13 is_stmt 1
	movq	%rax, -56(%rbp)
Ltmp662:
	.loc	24 215 33
	movq	%rax, -48(%rbp)
	.loc	24 215 18 is_stmt 0
	movq	%rax, -40(%rbp)
Ltmp663:
	.loc	1 3059 81 is_stmt 1
	movq	16(%rdi), %rax
	movq	%rax, -32(%rbp)
Ltmp664:
	.loc	20 766 24
	movq	%rcx, -24(%rbp)
Ltmp665:
	.loc	24 60 9
	movq	%rcx, -16(%rbp)
Ltmp666:
	.loc	20 766 37
	movq	%rax, -8(%rbp)
Ltmp667:
	.loc	25 135 36
	movq	%rcx, -136(%rbp)
	movq	%rax, -128(%rbp)
	.loc	25 135 14 is_stmt 0
	movq	-136(%rbp), %rcx
	movq	-128(%rbp), %rax
	movq	%rcx, -152(%rbp)
	movq	%rax, -144(%rbp)
Ltmp668:
	.loc	1 3062 6 is_stmt 1
	addq	$160, %rsp
	popq	%rbp
	retq
Ltmp669:
Lfunc_end77:
	.cfi_endproc

	.globl	__ZN75_$LT$alloc..vec..Vec$LT$T$C$A$GT$$u20$as$u20$core..ops..deref..DerefMut$GT$9deref_mut17he9a3591d994900e4E
	.p2align	4, 0x90
__ZN75_$LT$alloc..vec..Vec$LT$T$C$A$GT$$u20$as$u20$core..ops..deref..DerefMut$GT$9deref_mut17he9a3591d994900e4E:
Lfunc_begin78:
	.loc	1 2644 0
	.cfi_startproc
	pushq	%rbp
	.cfi_def_cfa_offset 16
	.cfi_offset %rbp, -16
	movq	%rsp, %rbp
	.cfi_def_cfa_register %rbp
	subq	$176, %rsp
	movq	%rdi, -136(%rbp)
Ltmp670:
	.loc	1 2645 44 prologue_end
	movq	%rdi, -128(%rbp)
Ltmp671:
	.loc	1 1280 19
	movq	%rdi, -120(%rbp)
Ltmp672:
	.loc	33 224 9
	movq	8(%rdi), %rcx
	movq	%rcx, -112(%rbp)
Ltmp673:
	.loc	9 104 9
	movq	%rcx, -104(%rbp)
Ltmp674:
	.loc	8 326 9
	movq	%rcx, -96(%rbp)
Ltmp675:
	.loc	1 1282 21
	movq	%rcx, -88(%rbp)
Ltmp676:
	.loc	24 52 36
	movq	%rcx, -176(%rbp)
	.loc	24 52 18 is_stmt 0
	movq	-176(%rbp), %rax
	movq	%rax, -80(%rbp)
Ltmp677:
	.loc	24 38 13 is_stmt 1
	movq	%rax, -72(%rbp)
Ltmp678:
	.loc	24 215 33
	movq	%rax, -64(%rbp)
	.loc	24 215 18 is_stmt 0
	movq	%rax, -56(%rbp)
Ltmp679:
	.loc	1 2645 63 is_stmt 1
	movq	16(%rdi), %rax
	movq	%rax, -48(%rbp)
Ltmp680:
	.file	40 "/rustc/2c8cc343237b8f7d5a3c3703e3a87f2eb2c54a74/library/core/src/slice" "raw.rs"
	.loc	40 145 45
	movq	%rcx, -40(%rbp)
	.loc	40 145 51 is_stmt 0
	movq	%rax, -32(%rbp)
Ltmp681:
	.loc	20 766 24 is_stmt 1
	movq	%rcx, -24(%rbp)
Ltmp682:
	.loc	24 60 9
	movq	%rcx, -16(%rbp)
Ltmp683:
	.loc	20 766 37
	movq	%rax, -8(%rbp)
Ltmp684:
	.loc	25 135 36
	movq	%rcx, -152(%rbp)
	movq	%rax, -144(%rbp)
	.loc	25 135 14 is_stmt 0
	movq	-152(%rbp), %rcx
	movq	-144(%rbp), %rax
	movq	%rcx, -168(%rbp)
	movq	%rax, -160(%rbp)
	movq	-168(%rbp), %rax
	movq	-160(%rbp), %rdx
Ltmp685:
	.loc	1 2646 6 is_stmt 1
	addq	$176, %rsp
	popq	%rbp
	retq
Ltmp686:
Lfunc_end78:
	.cfi_endproc

	.globl	__ZN75_$LT$usize$u20$as$u20$core..slice..index..SliceIndex$LT$$u5b$T$u5d$$GT$$GT$9index_mut17h2b05040ebd73a9b0E
	.p2align	4, 0x90
__ZN75_$LT$usize$u20$as$u20$core..slice..index..SliceIndex$LT$$u5b$T$u5d$$GT$$GT$9index_mut17h2b05040ebd73a9b0E:
Lfunc_begin79:
	.file	41 "/rustc/2c8cc343237b8f7d5a3c3703e3a87f2eb2c54a74/library/core/src/slice" "index.rs"
	.loc	41 264 0
	.cfi_startproc
	pushq	%rbp
	.cfi_def_cfa_offset 16
	.cfi_offset %rbp, -16
	movq	%rsp, %rbp
	.cfi_def_cfa_register %rbp
	subq	$64, %rsp
	movq	%rdi, -56(%rbp)
	movq	%rsi, -48(%rbp)
	movq	%rdx, -40(%rbp)
	movq	%rcx, -32(%rbp)
	movq	%rdi, -24(%rbp)
	movq	%rsi, -16(%rbp)
	movq	%rdx, -8(%rbp)
Ltmp687:
	.loc	41 266 14 prologue_end
	cmpq	%rdx, %rdi
	setb	%al
	testb	$1, %al
	jne	LBB79_1
	jmp	LBB79_2
LBB79_1:
	.loc	41 0 14 is_stmt 0
	movq	-48(%rbp), %rax
	movq	-56(%rbp), %rcx
	.loc	41 266 9
	shlq	$2, %rcx
	addq	%rcx, %rax
	.loc	41 267 6 is_stmt 1
	addq	$64, %rsp
	popq	%rbp
	retq
LBB79_2:
	.loc	41 0 6 is_stmt 0
	movq	-32(%rbp), %rdx
	movq	-40(%rbp), %rsi
	movq	-56(%rbp), %rdi
	.loc	41 266 14 is_stmt 1
	callq	__ZN4core9panicking18panic_bounds_check17hacb8a94866cda541E
Ltmp688:
Lfunc_end79:
	.cfi_endproc

	.globl	__ZN77_$LT$alloc..raw_vec..RawVec$LT$T$C$A$GT$$u20$as$u20$core..ops..drop..Drop$GT$4drop17h3e67cc277836583cE
	.p2align	4, 0x90
__ZN77_$LT$alloc..raw_vec..RawVec$LT$T$C$A$GT$$u20$as$u20$core..ops..drop..Drop$GT$4drop17h3e67cc277836583cE:
Lfunc_begin80:
	.loc	33 477 0
	.cfi_startproc
	pushq	%rbp
	.cfi_def_cfa_offset 16
	.cfi_offset %rbp, -16
	movq	%rsp, %rbp
	.cfi_def_cfa_register %rbp
	subq	$64, %rsp
	movq	%rdi, %rsi
	movq	%rsi, -64(%rbp)
	movq	%rsi, -32(%rbp)
Ltmp689:
	.loc	33 478 38 prologue_end
	leaq	-56(%rbp), %rdi
	callq	__ZN5alloc7raw_vec19RawVec$LT$T$C$A$GT$14current_memory17h5d948b175efc42cbE
	.loc	33 478 16 is_stmt 0
	movl	$1, %eax
	xorl	%ecx, %ecx
	cmpq	$0, -40(%rbp)
	cmoveq	%rcx, %rax
	cmpq	$1, %rax
	jne	LBB80_2
	.loc	33 0 16
	movq	-64(%rbp), %rdi
	.loc	33 478 22
	movq	-56(%rbp), %rsi
	movq	%rsi, -24(%rbp)
	.loc	33 478 27
	movq	-48(%rbp), %rdx
	movq	-40(%rbp), %rcx
	movq	%rdx, -16(%rbp)
	movq	%rcx, -8(%rbp)
	.loc	33 479 22 is_stmt 1
	callq	__ZN63_$LT$alloc..alloc..Global$u20$as$u20$core..alloc..Allocator$GT$10deallocate17h53fc4896331f69bbE
Ltmp690:
LBB80_2:
	.loc	33 481 6
	addq	$64, %rsp
	popq	%rbp
	retq
Ltmp691:
Lfunc_end80:
	.cfi_endproc

	.p2align	4, 0x90
__ZN83_$LT$alloc..vec..set_len_on_drop..SetLenOnDrop$u20$as$u20$core..ops..drop..Drop$GT$4drop17ha10391e0b4ca99fcE:
Lfunc_begin81:
	.loc	34 30 0
	.cfi_startproc
	pushq	%rbp
	.cfi_def_cfa_offset 16
	.cfi_offset %rbp, -16
	movq	%rsp, %rbp
	.cfi_def_cfa_register %rbp
	pushq	%rax
	movq	%rdi, -8(%rbp)
Ltmp692:
	.loc	34 31 21 prologue_end
	movq	(%rdi), %rcx
	.loc	34 31 9 is_stmt 0
	movq	8(%rdi), %rax
	movq	%rcx, (%rax)
	.loc	34 32 6 is_stmt 1
	addq	$8, %rsp
	popq	%rbp
	retq
Ltmp693:
Lfunc_end81:
	.cfi_endproc

	.globl	__ZN84_$LT$alloc..vec..Vec$LT$T$C$A$GT$$u20$as$u20$core..ops..index..IndexMut$LT$I$GT$$GT$9index_mut17h0c906eb76f318a94E
	.p2align	4, 0x90
__ZN84_$LT$alloc..vec..Vec$LT$T$C$A$GT$$u20$as$u20$core..ops..index..IndexMut$LT$I$GT$$GT$9index_mut17h0c906eb76f318a94E:
Lfunc_begin82:
	.loc	1 2743 0
	.cfi_startproc
	.cfi_personality 155, _rust_eh_personality
	.cfi_lsda 16, Lexception8
	pushq	%rbp
	.cfi_def_cfa_offset 16
	.cfi_offset %rbp, -16
	movq	%rsp, %rbp
	.cfi_def_cfa_register %rbp
	subq	$112, %rsp
	movq	%rsi, -96(%rbp)
	movq	%rdx, -88(%rbp)
	movq	%rdi, -56(%rbp)
	movq	%rsi, -48(%rbp)
Ltmp699:
	.loc	1 2744 9 prologue_end
	movb	$1, -57(%rbp)
Ltmp694:
	.loc	1 2744 34 is_stmt 0
	callq	__ZN75_$LT$alloc..vec..Vec$LT$T$C$A$GT$$u20$as$u20$core..ops..deref..DerefMut$GT$9deref_mut17he9a3591d994900e4E
Ltmp695:
	movq	%rdx, -80(%rbp)
	movq	%rax, -72(%rbp)
	jmp	LBB82_3
LBB82_1:
	.loc	1 2745 5 is_stmt 1
	testb	$1, -57(%rbp)
	jne	LBB82_6
	jmp	LBB82_5
LBB82_2:
Ltmp698:
	.loc	1 0 5 is_stmt 0
	movq	%rax, %rcx
	movl	%edx, %eax
	movq	%rcx, -40(%rbp)
	movl	%eax, -32(%rbp)
	jmp	LBB82_1
LBB82_3:
	movq	-88(%rbp), %rcx
	movq	-80(%rbp), %rdx
	movq	-72(%rbp), %rsi
	movq	-96(%rbp), %rdi
	.loc	1 2744 29 is_stmt 1
	movq	%rsi, -24(%rbp)
	movq	%rdx, -16(%rbp)
	.loc	1 2744 42 is_stmt 0
	movb	$0, -57(%rbp)
	movq	%rdi, -8(%rbp)
Ltmp696:
Ltmp700:
	.loc	41 30 9 is_stmt 1
	callq	__ZN75_$LT$usize$u20$as$u20$core..slice..index..SliceIndex$LT$$u5b$T$u5d$$GT$$GT$9index_mut17h2b05040ebd73a9b0E
Ltmp697:
	movq	%rax, -104(%rbp)
	jmp	LBB82_4
Ltmp701:
LBB82_4:
	.loc	41 0 9 is_stmt 0
	movq	-104(%rbp), %rax
	.loc	1 2745 6 is_stmt 1
	addq	$112, %rsp
	popq	%rbp
	retq
LBB82_5:
	.loc	1 2743 5
	movq	-40(%rbp), %rdi
	callq	__Unwind_Resume
LBB82_6:
	.loc	1 2745 5
	jmp	LBB82_5
Ltmp702:
Lfunc_end82:
	.cfi_endproc
	.section	__TEXT,__gcc_except_tab
	.p2align	2
GCC_except_table82:
Lexception8:
	.byte	255
	.byte	255
	.byte	1
	.uleb128 Lcst_end8-Lcst_begin8
Lcst_begin8:
	.uleb128 Ltmp694-Lfunc_begin82
	.uleb128 Ltmp697-Ltmp694
	.uleb128 Ltmp698-Lfunc_begin82
	.byte	0
	.uleb128 Ltmp697-Lfunc_begin82
	.uleb128 Lfunc_end82-Ltmp697
	.byte	0
	.byte	0
Lcst_end8:
	.p2align	2

	.section	__TEXT,__text,regular,pure_instructions
	.globl	__ZN86_$LT$alloc..vec..ExtendElement$LT$T$GT$$u20$as$u20$alloc..vec..ExtendWith$LT$T$GT$$GT$4last17h97bbffe50b3000c9E
	.p2align	4, 0x90
__ZN86_$LT$alloc..vec..ExtendElement$LT$T$GT$$u20$as$u20$alloc..vec..ExtendWith$LT$T$GT$$GT$4last17h97bbffe50b3000c9E:
Lfunc_begin83:
	.loc	1 2495 0
	.cfi_startproc
	pushq	%rbp
	.cfi_def_cfa_offset 16
	.cfi_offset %rbp, -16
	movq	%rsp, %rbp
	.cfi_def_cfa_register %rbp
	subq	$4, %rsp
	movss	%xmm0, -4(%rbp)
Ltmp703:
	.loc	1 2497 6 prologue_end
	addq	$4, %rsp
	popq	%rbp
	retq
Ltmp704:
Lfunc_end83:
	.cfi_endproc

	.globl	__ZN86_$LT$alloc..vec..ExtendElement$LT$T$GT$$u20$as$u20$alloc..vec..ExtendWith$LT$T$GT$$GT$4next17hb515adfd2929e83aE
	.p2align	4, 0x90
__ZN86_$LT$alloc..vec..ExtendElement$LT$T$GT$$u20$as$u20$alloc..vec..ExtendWith$LT$T$GT$$GT$4next17hb515adfd2929e83aE:
Lfunc_begin84:
	.loc	1 2492 0
	.cfi_startproc
	pushq	%rbp
	.cfi_def_cfa_offset 16
	.cfi_offset %rbp, -16
	movq	%rsp, %rbp
	.cfi_def_cfa_register %rbp
	subq	$16, %rsp
	movq	%rdi, -16(%rbp)
	movq	%rdi, -8(%rbp)
Ltmp705:
	.file	42 "/rustc/2c8cc343237b8f7d5a3c3703e3a87f2eb2c54a74/library/core/src" "clone.rs"
	.loc	42 189 25 prologue_end
	movss	(%rdi), %xmm0
Ltmp706:
	.loc	1 2494 6
	addq	$16, %rsp
	popq	%rbp
	retq
Ltmp707:
Lfunc_end84:
	.cfi_endproc

	.globl	__ZN89_$LT$core..ops..range..Range$LT$T$GT$$u20$as$u20$core..iter..range..RangeIteratorImpl$GT$9spec_next17h4e56ff42bc5d0b85E
	.p2align	4, 0x90
__ZN89_$LT$core..ops..range..Range$LT$T$GT$$u20$as$u20$core..iter..range..RangeIteratorImpl$GT$9spec_next17h4e56ff42bc5d0b85E:
Lfunc_begin85:
	.loc	12 620 0
	.cfi_startproc
	pushq	%rbp
	.cfi_def_cfa_offset 16
	.cfi_offset %rbp, -16
	movq	%rsp, %rbp
	.cfi_def_cfa_register %rbp
	subq	$48, %rsp
	movq	%rdi, -48(%rbp)
	movq	%rdi, -24(%rbp)
Ltmp708:
	.loc	12 621 25 prologue_end
	movq	%rdi, %rsi
	addq	$8, %rsi
	.loc	12 621 12 is_stmt 0
	callq	__ZN4core3cmp5impls57_$LT$impl$u20$core..cmp..PartialOrd$u20$for$u20$usize$GT$2lt17h363104cb545bab1bE
	testb	$1, %al
	jne	LBB85_2
	.loc	12 626 13 is_stmt 1
	movq	$0, -40(%rbp)
	.loc	12 621 9
	jmp	LBB85_3
LBB85_2:
	.loc	12 0 9 is_stmt 0
	movq	-48(%rbp), %rax
	movq	%rax, -8(%rbp)
Ltmp709:
	.loc	42 189 25 is_stmt 1
	movq	(%rax), %rdi
Ltmp710:
	.loc	12 623 30
	movl	$1, %esi
	callq	__ZN49_$LT$usize$u20$as$u20$core..iter..range..Step$GT$17forward_unchecked17he4216f796dd7d62eE
	movq	-48(%rbp), %rdi
	movq	%rax, %rsi
	movq	%rsi, -16(%rbp)
Ltmp711:
	.loc	12 624 18
	callq	__ZN4core3mem7replace17h3600dce8f988ad7fE
	.loc	12 624 13 is_stmt 0
	movq	%rax, -32(%rbp)
	movq	$1, -40(%rbp)
Ltmp712:
LBB85_3:
	.loc	12 628 6 is_stmt 1
	movq	-40(%rbp), %rax
	movq	-32(%rbp), %rdx
	addq	$48, %rsp
	popq	%rbp
	retq
Ltmp713:
Lfunc_end85:
	.cfi_endproc

	.globl	__ZN89_$LT$core..ops..range..Range$LT$T$GT$$u20$as$u20$core..iter..range..RangeIteratorImpl$GT$9spec_next17hc822fc7dba4a2e68E
	.p2align	4, 0x90
__ZN89_$LT$core..ops..range..Range$LT$T$GT$$u20$as$u20$core..iter..range..RangeIteratorImpl$GT$9spec_next17hc822fc7dba4a2e68E:
Lfunc_begin86:
	.loc	12 620 0
	.cfi_startproc
	pushq	%rbp
	.cfi_def_cfa_offset 16
	.cfi_offset %rbp, -16
	movq	%rsp, %rbp
	.cfi_def_cfa_register %rbp
	subq	$48, %rsp
	movq	%rdi, -40(%rbp)
	movq	%rdi, -24(%rbp)
Ltmp714:
	.loc	12 621 25 prologue_end
	movq	%rdi, %rsi
	addq	$4, %rsi
	.loc	12 621 12 is_stmt 0
	callq	__ZN4core3cmp5impls55_$LT$impl$u20$core..cmp..PartialOrd$u20$for$u20$i32$GT$2lt17h637256132f6f4eb9E
	testb	$1, %al
	jne	LBB86_2
	.loc	12 626 13 is_stmt 1
	movl	$0, -32(%rbp)
	.loc	12 621 9
	jmp	LBB86_3
LBB86_2:
	.loc	12 0 9 is_stmt 0
	movq	-40(%rbp), %rax
	movq	%rax, -8(%rbp)
Ltmp715:
	.loc	42 189 25 is_stmt 1
	movl	(%rax), %edi
Ltmp716:
	.loc	12 623 30
	movl	$1, %esi
	callq	__ZN47_$LT$i32$u20$as$u20$core..iter..range..Step$GT$17forward_unchecked17h308bf95ff900addeE
	movq	-40(%rbp), %rdi
	movl	%eax, %esi
	movl	%esi, -12(%rbp)
Ltmp717:
	.loc	12 624 18
	callq	__ZN4core3mem7replace17he83c5ff1fe7a5787E
	.loc	12 624 13 is_stmt 0
	movl	%eax, -28(%rbp)
	movl	$1, -32(%rbp)
Ltmp718:
LBB86_3:
	.loc	12 628 6 is_stmt 1
	movl	-32(%rbp), %eax
	movl	-28(%rbp), %edx
	addq	$48, %rsp
	popq	%rbp
	retq
Ltmp719:
Lfunc_end86:
	.cfi_endproc

	.globl	__ZN94_$LT$core..slice..iter..IterMut$LT$T$GT$$u20$as$u20$core..iter..traits..iterator..Iterator$GT$4next17head553aed202c05bE
	.p2align	4, 0x90
__ZN94_$LT$core..slice..iter..IterMut$LT$T$GT$$u20$as$u20$core..iter..traits..iterator..Iterator$GT$4next17head553aed202c05bE:
Lfunc_begin87:
	.file	43 "/rustc/2c8cc343237b8f7d5a3c3703e3a87f2eb2c54a74/library/core/src/slice/iter" "macros.rs"
	.loc	43 124 0
	.cfi_startproc
	pushq	%rbp
	.cfi_def_cfa_offset 16
	.cfi_offset %rbp, -16
	movq	%rsp, %rbp
	.cfi_def_cfa_register %rbp
	subq	$304, %rsp
	movq	%rdi, -304(%rbp)
	movq	%rdi, -240(%rbp)
Ltmp720:
	.loc	43 132 29 prologue_end
	movq	8(%rdi), %rax
	movq	%rax, -224(%rbp)
Ltmp721:
	.loc	8 326 9
	movq	%rax, -216(%rbp)
Ltmp722:
	.loc	24 52 36
	movq	%rax, -280(%rbp)
	.loc	24 52 18 is_stmt 0
	movq	-280(%rbp), %rax
	movq	%rax, -208(%rbp)
Ltmp723:
	.loc	24 38 13 is_stmt 1
	movq	%rax, -200(%rbp)
Ltmp724:
	.loc	24 215 33
	movq	%rax, -192(%rbp)
	.loc	24 215 18 is_stmt 0
	movq	%rax, -184(%rbp)
Ltmp725:
	.loc	43 133 24 is_stmt 1
	movb	$1, %al
	testb	$1, %al
	jne	LBB87_2
LBB87_1:
	.loc	43 0 24 is_stmt 0
	movq	-304(%rbp), %rcx
	.loc	43 136 24 is_stmt 1
	movq	8(%rcx), %rax
	movq	%rax, -136(%rbp)
	cmpq	(%rcx), %rax
	je	LBB87_4
	jmp	LBB87_3
LBB87_2:
	.loc	43 0 24 is_stmt 0
	movq	-304(%rbp), %rax
	.loc	43 134 33 is_stmt 1
	movq	(%rax), %rax
	movq	%rax, -176(%rbp)
Ltmp726:
	.loc	24 52 36
	movq	%rax, -272(%rbp)
	.loc	24 52 18 is_stmt 0
	movq	-272(%rbp), %rax
	movq	%rax, -168(%rbp)
Ltmp727:
	.loc	24 38 13 is_stmt 1
	movq	%rax, -160(%rbp)
Ltmp728:
	.loc	24 215 33
	movq	%rax, -152(%rbp)
	.loc	24 215 18 is_stmt 0
	movq	%rax, -144(%rbp)
Ltmp729:
	.loc	43 133 21 is_stmt 1
	jmp	LBB87_1
LBB87_3:
	.loc	43 0 21 is_stmt 0
	movq	-304(%rbp), %rax
	.loc	43 139 30 is_stmt 1
	movq	%rax, -128(%rbp)
Ltmp730:
	.loc	43 76 20
	xorl	%eax, %eax
	testb	$1, %al
	jne	LBB87_6
	jmp	LBB87_7
Ltmp731:
LBB87_4:
	.loc	43 137 25
	movq	$0, -296(%rbp)
LBB87_5:
	.loc	43 142 14
	movq	-296(%rbp), %rax
	addq	$304, %rsp
	popq	%rbp
	retq
LBB87_6:
	.loc	43 0 14 is_stmt 0
	movq	-304(%rbp), %rax
Ltmp732:
	.loc	43 57 29 is_stmt 1
	movq	(%rax), %rcx
	movq	%rcx, -64(%rbp)
Ltmp733:
	.loc	24 1300 9
	movq	%rcx, -56(%rbp)
Ltmp734:
	.loc	24 60 9
	movq	%rcx, -48(%rbp)
Ltmp735:
	.loc	24 1282 9
	movq	%rcx, -40(%rbp)
Ltmp736:
	.loc	24 568 18
	addq	$-1, %rcx
	movq	%rcx, -32(%rbp)
	movq	-32(%rbp), %rcx
	movq	%rcx, -24(%rbp)
Ltmp737:
	.loc	24 99 33
	movq	%rcx, -16(%rbp)
Ltmp738:
	.loc	25 135 36
	movq	%rcx, -248(%rbp)
	.loc	25 135 14 is_stmt 0
	movq	-248(%rbp), %rcx
	movq	%rcx, -256(%rbp)
	movq	-256(%rbp), %rcx
Ltmp739:
	.loc	43 57 17 is_stmt 1
	movq	%rcx, (%rax)
	.loc	43 78 21
	movq	8(%rax), %rax
	movq	%rax, -8(%rbp)
Ltmp740:
	.loc	8 326 9
	movq	%rax, -288(%rbp)
Ltmp741:
	.loc	43 76 17
	jmp	LBB87_8
LBB87_7:
	.loc	43 0 17 is_stmt 0
	movq	-304(%rbp), %rcx
	.loc	43 80 31 is_stmt 1
	movq	8(%rcx), %rax
	movq	%rax, -120(%rbp)
Ltmp742:
	.loc	8 326 9
	movq	%rax, -112(%rbp)
Ltmp743:
	.loc	43 83 64
	movq	8(%rcx), %rdx
	movq	%rdx, -104(%rbp)
Ltmp744:
	.loc	8 326 9
	movq	%rdx, -96(%rbp)
Ltmp745:
	.loc	24 1034 18
	movq	%rdx, -88(%rbp)
Ltmp746:
	.loc	24 487 18
	addq	$4, %rdx
	movq	%rdx, -80(%rbp)
	movq	-80(%rbp), %rdx
	movq	%rdx, -72(%rbp)
Ltmp747:
	.loc	8 201 13
	movq	%rdx, -264(%rbp)
Ltmp748:
	.loc	43 83 21
	movq	-264(%rbp), %rdx
	movq	%rdx, 8(%rcx)
	.loc	43 84 21
	movq	%rax, -288(%rbp)
Ltmp749:
LBB87_8:
	.loc	43 139 30
	movq	-288(%rbp), %rax
	.loc	43 139 25 is_stmt 0
	movq	%rax, -296(%rbp)
	.loc	43 136 21 is_stmt 1
	jmp	LBB87_5
Ltmp750:
Lfunc_end87:
	.cfi_endproc

	.globl	__ZN73_$LT$ab_glyph_rasterizer..geometry..Point$u20$as$u20$core..fmt..Debug$GT$3fmt17h3b1cd7f576897106E
	.p2align	4, 0x90
__ZN73_$LT$ab_glyph_rasterizer..geometry..Point$u20$as$u20$core..fmt..Debug$GT$3fmt17h3b1cd7f576897106E:
Lfunc_begin88:
	.file	44 "/Users/natalie/.cargo/registry/src/github.com-1ecc6299db9ec823/ab_glyph_rasterizer-0.1.7" "src/geometry.rs"
	.loc	44 18 0
	.cfi_startproc
	pushq	%rbp
	.cfi_def_cfa_offset 16
	.cfi_offset %rbp, -16
	movq	%rsp, %rbp
	.cfi_def_cfa_register %rbp
	subq	$128, %rsp
	movq	%rdi, -128(%rbp)
	movq	%rsi, -104(%rbp)
	movq	%rdi, -16(%rbp)
	movq	%rsi, -8(%rbp)
Ltmp751:
	.loc	44 19 9 prologue_end
	callq	__ZN4core3fmt10ArgumentV19new_debug17h93abda1ed5734f49E
	movq	-128(%rbp), %rdi
	movq	%rax, -120(%rbp)
	movq	%rdx, -112(%rbp)
	addq	$4, %rdi
	callq	__ZN4core3fmt10ArgumentV19new_debug17h93abda1ed5734f49E
	movq	-120(%rbp), %rsi
	movq	-112(%rbp), %rcx
	movq	%rsi, -48(%rbp)
	movq	%rcx, -40(%rbp)
	movq	%rax, -32(%rbp)
	movq	%rdx, -24(%rbp)
	leaq	-96(%rbp), %rdi
	leaq	l___unnamed_12(%rip), %rsi
	movl	$3, %edx
	leaq	-48(%rbp), %rcx
	movl	$2, %r8d
	callq	__ZN4core3fmt9Arguments6new_v117h0600de7d391cb688E
	movq	-104(%rbp), %rdi
	leaq	-96(%rbp), %rsi
	callq	__ZN4core3fmt9Formatter9write_fmt17h9bb7721c944aee26E
	.loc	44 20 6
	andb	$1, %al
	movzbl	%al, %eax
	addq	$128, %rsp
	popq	%rbp
	retq
Ltmp752:
Lfunc_end88:
	.cfi_endproc

	.p2align	4, 0x90
__ZN19ab_glyph_rasterizer8geometry5Point11distance_to17h6505e194d9b5d1f8E:
Lfunc_begin89:
	.loc	44 25 0
	.cfi_startproc
	pushq	%rbp
	.cfi_def_cfa_offset 16
	.cfi_offset %rbp, -16
	movq	%rsp, %rbp
	.cfi_def_cfa_register %rbp
	subq	$32, %rsp
	movss	%xmm3, -32(%rbp)
	movss	%xmm2, -28(%rbp)
	movaps	%xmm1, %xmm3
	movss	-32(%rbp), %xmm1
	movaps	%xmm0, %xmm2
	movss	-28(%rbp), %xmm0
	movss	%xmm2, -24(%rbp)
	movss	%xmm3, -20(%rbp)
	movss	%xmm0, -16(%rbp)
	movss	%xmm1, -12(%rbp)
Ltmp753:
	.loc	44 26 17 prologue_end
	callq	__ZN78_$LT$ab_glyph_rasterizer..geometry..Point$u20$as$u20$core..ops..arith..Sub$GT$3sub17h97d2b73b0ec0fa32E
	movss	%xmm0, -8(%rbp)
	movss	%xmm1, -4(%rbp)
Ltmp754:
	.loc	44 27 10
	mulss	%xmm0, %xmm0
	.loc	44 27 22 is_stmt 0
	mulss	%xmm1, %xmm1
	.loc	44 27 9
	addss	%xmm1, %xmm0
	callq	__ZN3std3f3221_$LT$impl$u20$f32$GT$4sqrt17hf6b37d81bb691729E
Ltmp755:
	.loc	44 28 6 is_stmt 1
	addq	$32, %rsp
	popq	%rbp
	retq
Ltmp756:
Lfunc_end89:
	.cfi_endproc

	.p2align	4, 0x90
__ZN19ab_glyph_rasterizer8geometry5point17h497cda6dcbd50b4bE:
Lfunc_begin90:
	.loc	44 39 0
	.cfi_startproc
	pushq	%rbp
	.cfi_def_cfa_offset 16
	.cfi_offset %rbp, -16
	movq	%rsp, %rbp
	.cfi_def_cfa_register %rbp
	subq	$16, %rsp
	movss	%xmm0, -8(%rbp)
	movss	%xmm1, -4(%rbp)
Ltmp757:
	.loc	44 40 5 prologue_end
	movss	%xmm0, -16(%rbp)
	movss	%xmm1, -12(%rbp)
	.loc	44 41 2
	movss	-16(%rbp), %xmm0
	movss	-12(%rbp), %xmm1
	addq	$16, %rsp
	popq	%rbp
	retq
Ltmp758:
Lfunc_end90:
	.cfi_endproc

	.p2align	4, 0x90
__ZN19ab_glyph_rasterizer8geometry4lerp17h08f6db8a84fb5d78E:
Lfunc_begin91:
	.loc	44 45 0
	.cfi_startproc
	pushq	%rbp
	.cfi_def_cfa_offset 16
	.cfi_offset %rbp, -16
	movq	%rsp, %rbp
	.cfi_def_cfa_register %rbp
	subq	$32, %rsp
	movaps	%xmm3, %xmm5
	movss	%xmm2, -28(%rbp)
	movaps	%xmm1, %xmm2
	movss	-28(%rbp), %xmm1
	movss	%xmm2, -24(%rbp)
	movaps	%xmm0, %xmm2
	movss	-24(%rbp), %xmm0
	movss	%xmm2, -20(%rbp)
	movss	%xmm0, -16(%rbp)
	movss	%xmm1, -12(%rbp)
	movss	%xmm5, -8(%rbp)
	movss	%xmm4, -4(%rbp)
Ltmp759:
	.loc	44 46 22 prologue_end
	subss	%xmm0, %xmm5
	.loc	44 46 18 is_stmt 0
	movaps	%xmm2, %xmm3
	mulss	%xmm5, %xmm3
	.loc	44 46 11
	addss	%xmm3, %xmm0
	.loc	44 46 48
	subss	%xmm1, %xmm4
	.loc	44 46 44
	mulss	%xmm4, %xmm2
	.loc	44 46 37
	addss	%xmm2, %xmm1
	.loc	44 46 5
	callq	__ZN19ab_glyph_rasterizer8geometry5point17h497cda6dcbd50b4bE
	.loc	44 47 2 is_stmt 1
	addq	$32, %rsp
	popq	%rbp
	retq
Ltmp760:
Lfunc_end91:
	.cfi_endproc

	.p2align	4, 0x90
__ZN78_$LT$ab_glyph_rasterizer..geometry..Point$u20$as$u20$core..ops..arith..Sub$GT$3sub17h97d2b73b0ec0fa32E:
Lfunc_begin92:
	.loc	44 61 0
	.cfi_startproc
	pushq	%rbp
	.cfi_def_cfa_offset 16
	.cfi_offset %rbp, -16
	movq	%rsp, %rbp
	.cfi_def_cfa_register %rbp
	subq	$16, %rsp
	movss	%xmm0, -16(%rbp)
	movss	%xmm1, -12(%rbp)
	movss	%xmm2, -8(%rbp)
	movss	%xmm3, -4(%rbp)
Ltmp761:
	.loc	44 62 15 prologue_end
	subss	%xmm2, %xmm0
	.loc	44 62 31 is_stmt 0
	subss	%xmm3, %xmm1
	.loc	44 62 9
	callq	__ZN19ab_glyph_rasterizer8geometry5point17h497cda6dcbd50b4bE
	.loc	44 63 6 is_stmt 1
	addq	$16, %rsp
	popq	%rbp
	retq
Ltmp762:
Lfunc_end92:
	.cfi_endproc

	.globl	__ZN19ab_glyph_rasterizer6raster10Rasterizer3new17h3d4dd21738ae4f3fE
	.p2align	4, 0x90
__ZN19ab_glyph_rasterizer6raster10Rasterizer3new17h3d4dd21738ae4f3fE:
Lfunc_begin93:
	.file	45 "/Users/natalie/.cargo/registry/src/github.com-1ecc6299db9ec823/ab_glyph_rasterizer-0.1.7" "src/raster.rs"
	.loc	45 43 0
	.cfi_startproc
	pushq	%rbp
	.cfi_def_cfa_offset 16
	.cfi_offset %rbp, -16
	movq	%rsp, %rbp
	.cfi_def_cfa_register %rbp
	subq	$96, %rsp
	movq	%rdx, -80(%rbp)
	movq	%rsi, -72(%rbp)
	movq	%rdi, -64(%rbp)
	movq	%rdi, -56(%rbp)
	movq	%rsi, -16(%rbp)
	movq	%rdx, -8(%rbp)
Ltmp763:
	.loc	45 46 43 prologue_end
	callq	__ZN10std_detect6detect4arch3x8621__is_feature_detected4avx217h0af53266a371f36aE
	testb	$1, %al
	jne	LBB93_2
	.loc	45 48 19
	callq	__ZN10std_detect6detect4arch3x8621__is_feature_detected6sse4_217h94e0168dcd960f50E
	testb	$1, %al
	jne	LBB93_5
	jmp	LBB93_4
LBB93_2:
	.loc	45 47 13
	leaq	__ZN19ab_glyph_rasterizer6raster14draw_line_avx217h46a04995f399e6e9E(%rip), %rax
	movq	%rax, -48(%rbp)
LBB93_3:
	.loc	45 0 13 is_stmt 0
	movq	-80(%rbp), %rcx
	movq	-72(%rbp), %rax
Ltmp764:
	.loc	45 62 26 is_stmt 1
	mulq	%rcx
	movq	%rax, -88(%rbp)
	seto	%al
	testb	$1, %al
	jne	LBB93_7
	jmp	LBB93_6
Ltmp765:
LBB93_4:
	.loc	45 51 13
	leaq	__ZN19ab_glyph_rasterizer6raster10Rasterizer16draw_line_scalar17h5a994b0d43b7f915E(%rip), %rax
	movq	%rax, -48(%rbp)
	.loc	45 48 16
	jmp	LBB93_3
LBB93_5:
	.loc	45 49 13
	leaq	__ZN19ab_glyph_rasterizer6raster16draw_line_sse4_217h1f985beb4526fbe0E(%rip), %rax
	movq	%rax, -48(%rbp)
	.loc	45 48 16
	jmp	LBB93_3
LBB93_6:
	.loc	45 0 16 is_stmt 0
	movq	-88(%rbp), %rax
Ltmp766:
	.loc	45 62 26 is_stmt 1
	addq	$4, %rax
	movq	%rax, -96(%rbp)
	setb	%al
	testb	$1, %al
	jne	LBB93_9
	jmp	LBB93_8
LBB93_7:
	leaq	_str.1(%rip), %rdi
	leaq	l___unnamed_13(%rip), %rdx
	movl	$33, %esi
	callq	__ZN4core9panicking5panic17hc1bc45270cf64b03E
LBB93_8:
	.loc	45 0 26 is_stmt 0
	movq	-96(%rbp), %rsi
	.loc	45 62 16
	leaq	-40(%rbp), %rdi
	xorps	%xmm0, %xmm0
	callq	__ZN5alloc3vec9from_elem17h457aca7963275b3cE
	movq	-72(%rbp), %rdi
	movq	-80(%rbp), %rsi
	movq	-64(%rbp), %rcx
	movq	-56(%rbp), %rax
	.loc	45 63 13 is_stmt 1
	movq	-48(%rbp), %rdx
	.loc	45 59 9
	movq	%rdi, (%rcx)
	movq	%rsi, 8(%rcx)
	movq	-40(%rbp), %rsi
	movq	%rsi, 16(%rcx)
	movq	-32(%rbp), %rsi
	movq	%rsi, 24(%rcx)
	movq	-24(%rbp), %rsi
	movq	%rsi, 32(%rcx)
	movq	%rdx, 40(%rcx)
Ltmp767:
	.loc	45 65 6
	addq	$96, %rsp
	popq	%rbp
	retq
LBB93_9:
Ltmp768:
	.loc	45 62 26
	leaq	_str.2(%rip), %rdi
	leaq	l___unnamed_13(%rip), %rdx
	movl	$28, %esi
	callq	__ZN4core9panicking5panic17hc1bc45270cf64b03E
Ltmp769:
Lfunc_end93:
	.cfi_endproc

	.globl	__ZN19ab_glyph_rasterizer6raster10Rasterizer5reset17h855d78d6371816a2E
	.p2align	4, 0x90
__ZN19ab_glyph_rasterizer6raster10Rasterizer5reset17h855d78d6371816a2E:
Lfunc_begin94:
	.loc	45 77 0
	.cfi_startproc
	pushq	%rbp
	.cfi_def_cfa_offset 16
	.cfi_offset %rbp, -16
	movq	%rsp, %rbp
	.cfi_def_cfa_register %rbp
	subq	$80, %rsp
	movq	%rdi, -64(%rbp)
	movq	%rsi, -56(%rbp)
	movq	%rdx, -48(%rbp)
	movq	%rdi, -24(%rbp)
	movq	%rsi, -16(%rbp)
	movq	%rdx, -8(%rbp)
Ltmp770:
	.loc	45 78 9 prologue_end
	movq	%rsi, (%rdi)
	.loc	45 79 9
	movq	%rdx, 8(%rdi)
	.loc	45 80 9
	addq	$16, %rdi
	xorl	%eax, %eax
	movl	%eax, %esi
	callq	__ZN5alloc3vec16Vec$LT$T$C$A$GT$8truncate17hf8169924f9425b71E
	movq	-64(%rbp), %rdi
	movq	-56(%rbp), %rax
	movq	-48(%rbp), %rdx
	.loc	45 81 9
	addq	$16, %rdi
	movq	%rdi, -40(%rbp)
	.loc	45 81 23 is_stmt 0
	mulq	%rdx
	movq	%rax, -32(%rbp)
	seto	%al
	testb	$1, %al
	jne	LBB94_2
	.loc	45 0 23
	movq	-32(%rbp), %rax
	.loc	45 81 23
	addq	$4, %rax
	movq	%rax, -72(%rbp)
	setb	%al
	testb	$1, %al
	jne	LBB94_4
	jmp	LBB94_3
LBB94_2:
	leaq	_str.1(%rip), %rdi
	leaq	l___unnamed_14(%rip), %rdx
	movl	$33, %esi
	callq	__ZN4core9panicking5panic17hc1bc45270cf64b03E
LBB94_3:
	.loc	45 0 23
	movq	-72(%rbp), %rsi
	movq	-40(%rbp), %rdi
	.loc	45 81 9
	xorps	%xmm0, %xmm0
	callq	__ZN5alloc3vec16Vec$LT$T$C$A$GT$6resize17h3425272564683f21E
	.loc	45 82 6 is_stmt 1
	addq	$80, %rsp
	popq	%rbp
	retq
LBB94_4:
	.loc	45 81 23
	leaq	_str.2(%rip), %rdi
	leaq	l___unnamed_14(%rip), %rdx
	movl	$28, %esi
	callq	__ZN4core9panicking5panic17hc1bc45270cf64b03E
Ltmp771:
Lfunc_end94:
	.cfi_endproc

	.globl	__ZN19ab_glyph_rasterizer6raster10Rasterizer5clear17hb7c4cff2de294f8aE
	.p2align	4, 0x90
__ZN19ab_glyph_rasterizer6raster10Rasterizer5clear17hb7c4cff2de294f8aE:
Lfunc_begin95:
	.loc	45 92 0
	.cfi_startproc
	pushq	%rbp
	.cfi_def_cfa_offset 16
	.cfi_offset %rbp, -16
	movq	%rsp, %rbp
	.cfi_def_cfa_register %rbp
	subq	$48, %rsp
	movq	%rdi, -16(%rbp)
Ltmp772:
	.loc	45 93 19 prologue_end
	addq	$16, %rdi
	callq	__ZN102_$LT$$RF$mut$u20$alloc..vec..Vec$LT$T$C$A$GT$$u20$as$u20$core..iter..traits..collect..IntoIterator$GT$9into_iter17h2d95930ec37b1a2cE
	movq	%rax, -40(%rbp)
	movq	%rdx, -32(%rbp)
LBB95_1:
Ltmp773:
	.loc	45 93 19 is_stmt 0
	leaq	-40(%rbp), %rdi
	callq	__ZN94_$LT$core..slice..iter..IterMut$LT$T$GT$$u20$as$u20$core..iter..traits..iterator..Iterator$GT$4next17head553aed202c05bE
	movq	%rax, -24(%rbp)
	movq	-24(%rbp), %rdx
	movl	$1, %eax
	xorl	%ecx, %ecx
	cmpq	$0, %rdx
	cmoveq	%rcx, %rax
	cmpq	$0, %rax
	jne	LBB95_3
Ltmp774:
	.loc	45 96 6 is_stmt 1
	addq	$48, %rsp
	popq	%rbp
	retq
LBB95_3:
Ltmp775:
	.loc	45 93 13
	movq	-24(%rbp), %rax
	movq	%rax, -8(%rbp)
Ltmp776:
	.loc	45 94 13
	xorps	%xmm0, %xmm0
	movss	%xmm0, (%rax)
Ltmp777:
	.loc	45 93 9
	jmp	LBB95_1
Ltmp778:
Lfunc_end95:
	.cfi_endproc

	.globl	__ZN19ab_glyph_rasterizer6raster10Rasterizer10dimensions17h15547a8888a448b2E
	.p2align	4, 0x90
__ZN19ab_glyph_rasterizer6raster10Rasterizer10dimensions17h15547a8888a448b2E:
Lfunc_begin96:
	.loc	45 105 0
	.cfi_startproc
	pushq	%rbp
	.cfi_def_cfa_offset 16
	.cfi_offset %rbp, -16
	movq	%rsp, %rbp
	.cfi_def_cfa_register %rbp
	subq	$24, %rsp
	movq	%rdi, -8(%rbp)
Ltmp779:
	.loc	45 106 10 prologue_end
	movq	(%rdi), %rcx
	.loc	45 106 22 is_stmt 0
	movq	8(%rdi), %rax
	.loc	45 106 9
	movq	%rcx, -24(%rbp)
	movq	%rax, -16(%rbp)
	.loc	45 107 6 is_stmt 1
	movq	-24(%rbp), %rax
	movq	-16(%rbp), %rdx
	addq	$24, %rsp
	popq	%rbp
	retq
Ltmp780:
Lfunc_end96:
	.cfi_endproc

	.globl	__ZN19ab_glyph_rasterizer6raster10Rasterizer9draw_line17hbdb790779823d7ddE
	.p2align	4, 0x90
__ZN19ab_glyph_rasterizer6raster10Rasterizer9draw_line17hbdb790779823d7ddE:
Lfunc_begin97:
	.loc	45 116 0
	.cfi_startproc
	pushq	%rbp
	.cfi_def_cfa_offset 16
	.cfi_offset %rbp, -16
	movq	%rsp, %rbp
	.cfi_def_cfa_register %rbp
	subq	$32, %rsp
	movq	%rdi, %rax
	movq	%rax, -24(%rbp)
	movss	%xmm0, -16(%rbp)
	movss	%xmm1, -12(%rbp)
	movss	%xmm2, -8(%rbp)
	movss	%xmm3, -4(%rbp)
Ltmp781:
	.loc	45 117 18 prologue_end
	movq	%rax, %rdi
	callq	*40(%rax)
	.loc	45 118 6
	addq	$32, %rsp
	popq	%rbp
	retq
Ltmp782:
Lfunc_end97:
	.cfi_endproc

	.section	__TEXT,__literal4,4byte_literals
	.p2align	2
LCPI98_0:
	.long	0x34000000
LCPI98_1:
	.long	0xbf800000
LCPI98_2:
	.long	0x3f800000
LCPI98_3:
	.long	0x5f000000
LCPI98_4:
	.long	0x5f7fffff
LCPI98_5:
	.long	0x4effffff
LCPI98_6:
	.long	0x3f000000
LCPI98_7:
	.long	0x3fc00000
	.section	__TEXT,__text,regular,pure_instructions
	.p2align	4, 0x90
__ZN19ab_glyph_rasterizer6raster10Rasterizer16draw_line_scalar17h5a994b0d43b7f915E:
Lfunc_begin98:
	.loc	45 121 0
	.cfi_startproc
	pushq	%rbp
	.cfi_def_cfa_offset 16
	.cfi_offset %rbp, -16
	movq	%rsp, %rbp
	.cfi_def_cfa_register %rbp
	subq	$640, %rsp
	movss	%xmm1, -308(%rbp)
	movaps	%xmm0, %xmm1
	movss	-308(%rbp), %xmm0
	movq	%rdi, -304(%rbp)
	movss	%xmm1, -296(%rbp)
	movss	%xmm0, -292(%rbp)
	movss	%xmm2, -288(%rbp)
	movss	%xmm3, -284(%rbp)
	movq	%rdi, -176(%rbp)
	movss	%xmm1, -168(%rbp)
	movss	%xmm0, -164(%rbp)
	movss	%xmm2, -160(%rbp)
	movss	%xmm3, -156(%rbp)
Ltmp783:
	.loc	45 122 12 prologue_end
	subss	%xmm3, %xmm0
	callq	__ZN3std3f3221_$LT$impl$u20$f32$GT$3abs17h76e5257c8c772a6eE
	movaps	%xmm0, %xmm1
	movss	LCPI98_0(%rip), %xmm0
	ucomiss	%xmm1, %xmm0
	jae	LBB98_2
	.loc	45 0 12 is_stmt 0
	movss	-284(%rbp), %xmm0
	movss	-292(%rbp), %xmm1
	.loc	45 125 32 is_stmt 1
	ucomiss	%xmm1, %xmm0
	ja	LBB98_4
	jmp	LBB98_3
LBB98_2:
	.loc	45 180 6
	addq	$640, %rsp
	popq	%rbp
	retq
LBB98_3:
	.loc	45 0 6 is_stmt 0
	movss	-292(%rbp), %xmm0
	movss	-296(%rbp), %xmm1
	movss	-284(%rbp), %xmm2
	movss	-288(%rbp), %xmm3
	.loc	45 128 13 is_stmt 1
	movss	LCPI98_1(%rip), %xmm4
	movss	%xmm4, -272(%rbp)
	movss	%xmm3, -280(%rbp)
	movss	%xmm2, -276(%rbp)
	movss	%xmm1, -268(%rbp)
	movss	%xmm0, -264(%rbp)
	.loc	45 125 29
	jmp	LBB98_5
LBB98_4:
	.loc	45 0 29 is_stmt 0
	movss	-284(%rbp), %xmm0
	movss	-288(%rbp), %xmm1
	movss	-292(%rbp), %xmm2
	movss	-296(%rbp), %xmm3
	.loc	45 126 13 is_stmt 1
	movss	LCPI98_2(%rip), %xmm4
	movss	%xmm4, -272(%rbp)
	movss	%xmm3, -280(%rbp)
	movss	%xmm2, -276(%rbp)
	movss	%xmm1, -268(%rbp)
	movss	%xmm0, -264(%rbp)
LBB98_5:
	.loc	45 125 14
	movss	-272(%rbp), %xmm0
	movss	%xmm0, -336(%rbp)
	movss	%xmm0, -148(%rbp)
	.loc	45 125 19 is_stmt 0
	movss	-280(%rbp), %xmm0
	movss	-276(%rbp), %xmm1
	movss	%xmm1, -332(%rbp)
	movss	%xmm0, -144(%rbp)
	movss	%xmm1, -140(%rbp)
	.loc	45 125 23
	movss	-268(%rbp), %xmm2
	movss	-264(%rbp), %xmm3
	movss	%xmm3, -328(%rbp)
	movss	%xmm2, -136(%rbp)
	movss	%xmm3, -132(%rbp)
Ltmp784:
	.loc	45 130 20 is_stmt 1
	subss	%xmm0, %xmm2
	.loc	45 130 36 is_stmt 0
	subss	%xmm1, %xmm3
	.loc	45 130 20
	divss	%xmm3, %xmm2
	movss	%xmm2, -324(%rbp)
	movss	%xmm2, -124(%rbp)
Ltmp785:
	.loc	45 131 21 is_stmt 1
	movss	%xmm0, -260(%rbp)
	movss	LCPI98_3(%rip), %xmm2
Ltmp786:
	.loc	45 132 18
	movaps	%xmm1, %xmm0
	subss	%xmm2, %xmm0
	cvttss2si	%xmm0, %rcx
	movaps	%xmm1, %xmm0
	cvttss2si	%xmm0, %rax
	movq	%rax, %rdx
	sarq	$63, %rdx
	andq	%rdx, %rcx
	orq	%rcx, %rax
	xorl	%ecx, %ecx
	xorps	%xmm0, %xmm0
	ucomiss	%xmm0, %xmm1
	cmovbq	%rcx, %rax
	movss	LCPI98_4(%rip), %xmm0
	ucomiss	%xmm0, %xmm1
	movq	$-1, %rcx
	cmovaq	%rcx, %rax
	movq	%rax, -320(%rbp)
	movq	%rax, -120(%rbp)
Ltmp787:
	.loc	45 133 12
	xorps	%xmm0, %xmm0
	ucomiss	%xmm1, %xmm0
	ja	LBB98_7
LBB98_6:
	.loc	45 0 12 is_stmt 0
	movss	-328(%rbp), %xmm0
	movq	-304(%rbp), %rax
	.loc	45 136 22 is_stmt 1
	movq	8(%rax), %rax
	movq	%rax, -344(%rbp)
	.loc	45 136 38 is_stmt 0
	callq	__ZN3std3f3221_$LT$impl$u20$f32$GT$4ceil17hd307bee39d62bf3dE
	movq	-344(%rbp), %rdi
	movss	LCPI98_3(%rip), %xmm2
	movaps	%xmm0, %xmm1
	subss	%xmm2, %xmm1
	cvttss2si	%xmm1, %rax
	movaps	%xmm0, %xmm1
	cvttss2si	%xmm1, %rsi
	movq	%rsi, %rcx
	sarq	$63, %rcx
	andq	%rcx, %rax
	orq	%rax, %rsi
	xorl	%eax, %eax
	xorps	%xmm1, %xmm1
	ucomiss	%xmm1, %xmm0
	cmovbq	%rax, %rsi
	movss	LCPI98_4(%rip), %xmm1
	ucomiss	%xmm1, %xmm0
	movq	$-1, %rax
	cmovaq	%rax, %rsi
	.loc	45 136 22
	callq	__ZN4core3cmp3Ord3min17h08b3ed6b2afdbd1bE
	movq	-320(%rbp), %rcx
	.loc	45 136 18
	movq	%rcx, -256(%rbp)
	movq	%rax, -248(%rbp)
	movq	-256(%rbp), %rdi
	movq	-248(%rbp), %rsi
	callq	__ZN63_$LT$I$u20$as$u20$core..iter..traits..collect..IntoIterator$GT$9into_iter17hcd02363d0288a484E
	movq	%rax, -240(%rbp)
	movq	%rdx, -232(%rbp)
Ltmp788:
	.loc	45 136 9
	jmp	LBB98_8
Ltmp789:
LBB98_7:
	.loc	45 0 9
	movss	-324(%rbp), %xmm0
	movss	-332(%rbp), %xmm1
	.loc	45 134 18 is_stmt 1
	mulss	%xmm0, %xmm1
	.loc	45 134 13 is_stmt 0
	movss	-260(%rbp), %xmm0
	subss	%xmm1, %xmm0
	movss	%xmm0, -260(%rbp)
	.loc	45 133 9 is_stmt 1
	jmp	LBB98_6
LBB98_8:
	.loc	45 0 9 is_stmt 0
	leaq	-240(%rbp), %rdi
Ltmp790:
	.loc	45 136 18 is_stmt 1
	callq	__ZN4core4iter5range101_$LT$impl$u20$core..iter..traits..iterator..Iterator$u20$for$u20$core..ops..range..Range$LT$A$GT$$GT$4next17h9cdbd81401b9c075E
	movq	%rdx, -216(%rbp)
	movq	%rax, -224(%rbp)
	cmpq	$0, -224(%rbp)
	je	LBB98_2
	.loc	45 0 18 is_stmt 0
	movq	-304(%rbp), %rcx
	.loc	45 136 13
	movq	-216(%rbp), %rax
	movq	%rax, -360(%rbp)
	movq	%rax, -112(%rbp)
Ltmp791:
	.loc	45 137 29 is_stmt 1
	mulq	(%rcx)
	movq	%rax, -352(%rbp)
	seto	%al
	testb	$1, %al
	jne	LBB98_11
	.loc	45 0 29 is_stmt 0
	movq	-360(%rbp), %rax
	movq	-352(%rbp), %rcx
	.loc	45 137 29
	movq	%rcx, -104(%rbp)
Ltmp792:
	.loc	45 138 23 is_stmt 1
	addq	$1, %rax
	movq	%rax, -368(%rbp)
	setb	%al
	testb	$1, %al
	jne	LBB98_13
	jmp	LBB98_12
Ltmp793:
LBB98_11:
	.loc	45 137 29
	leaq	_str.1(%rip), %rdi
	leaq	l___unnamed_15(%rip), %rdx
	movl	$33, %esi
	callq	__ZN4core9panicking5panic17hc1bc45270cf64b03E
LBB98_12:
	.loc	45 0 29 is_stmt 0
	movq	-368(%rbp), %rax
Ltmp794:
	.loc	45 138 22 is_stmt 1
	movq	%rax, %rdx
	shrq	%rdx
	movl	%eax, %ecx
	andl	$1, %ecx
	orq	%rdx, %rcx
	cvtsi2ss	%rcx, %xmm0
	addss	%xmm0, %xmm0
	cvtsi2ss	%rax, %xmm1
	movss	%xmm1, -376(%rbp)
	testq	%rax, %rax
	movss	%xmm0, -372(%rbp)
	js	LBB98_59
	.loc	45 0 22 is_stmt 0
	movss	-376(%rbp), %xmm0
	movss	%xmm0, -372(%rbp)
LBB98_59:
	movss	-328(%rbp), %xmm1
	movss	-372(%rbp), %xmm0
	.loc	45 138 22
	callq	__ZN4core3f3221_$LT$impl$u20$f32$GT$3min17he1460c8797fbd2feE
	movq	-360(%rbp), %rax
	movss	%xmm0, -388(%rbp)
	.loc	45 138 51
	movq	%rax, %rdx
	shrq	%rdx
	movl	%eax, %ecx
	andl	$1, %ecx
	orq	%rdx, %rcx
	cvtsi2ss	%rcx, %xmm0
	addss	%xmm0, %xmm0
	cvtsi2ss	%rax, %xmm1
	movss	%xmm1, -384(%rbp)
	testq	%rax, %rax
	movss	%xmm0, -380(%rbp)
	js	LBB98_61
	.loc	45 0 51
	movss	-384(%rbp), %xmm0
	movss	%xmm0, -380(%rbp)
LBB98_61:
	movss	-332(%rbp), %xmm1
	movss	-380(%rbp), %xmm0
	.loc	45 138 51
	callq	__ZN4core3f3221_$LT$impl$u20$f32$GT$3max17he2ca4cdc8e77fa1cE
	movss	-388(%rbp), %xmm1
	movss	-324(%rbp), %xmm3
	movss	-336(%rbp), %xmm2
	.loc	45 138 22
	subss	%xmm0, %xmm1
	movss	%xmm1, -96(%rbp)
Ltmp795:
	.loc	45 139 25 is_stmt 1
	movss	-260(%rbp), %xmm0
	.loc	45 139 29 is_stmt 0
	mulss	%xmm1, %xmm3
	.loc	45 139 25
	addss	%xmm3, %xmm0
	movss	%xmm0, -396(%rbp)
	movss	%xmm0, -92(%rbp)
Ltmp796:
	.loc	45 140 21 is_stmt 1
	mulss	%xmm2, %xmm1
	movss	%xmm1, -392(%rbp)
	movss	%xmm1, -88(%rbp)
Ltmp797:
	.loc	45 141 31
	ucomiss	-260(%rbp), %xmm0
	ja	LBB98_15
	jmp	LBB98_14
Ltmp798:
LBB98_13:
	.loc	45 138 23
	leaq	_str.2(%rip), %rdi
	leaq	l___unnamed_16(%rip), %rdx
	movl	$28, %esi
	callq	__ZN4core9panicking5panic17hc1bc45270cf64b03E
LBB98_14:
	.loc	45 0 23 is_stmt 0
	movss	-396(%rbp), %xmm1
Ltmp799:
	.loc	45 141 71 is_stmt 1
	movss	-260(%rbp), %xmm0
	.loc	45 141 63 is_stmt 0
	movss	%xmm1, -208(%rbp)
	movss	%xmm0, -204(%rbp)
	.loc	45 141 28
	jmp	LBB98_16
LBB98_15:
	.loc	45 0 28
	movss	-396(%rbp), %xmm0
	.loc	45 141 44
	movss	-260(%rbp), %xmm1
	.loc	45 141 43
	movss	%xmm1, -208(%rbp)
	movss	%xmm0, -204(%rbp)
LBB98_16:
	.loc	45 141 18
	movss	-208(%rbp), %xmm0
	movss	%xmm0, -424(%rbp)
	movss	%xmm0, -84(%rbp)
	.loc	45 141 22
	movss	-204(%rbp), %xmm1
	movss	%xmm1, -420(%rbp)
	movss	%xmm1, -80(%rbp)
Ltmp800:
	.loc	45 142 27 is_stmt 1
	callq	__ZN3std3f3221_$LT$impl$u20$f32$GT$5floor17h31e619b069bc1746E
	movaps	%xmm0, %xmm1
	movss	-420(%rbp), %xmm0
	movss	%xmm1, -416(%rbp)
	movss	%xmm1, -76(%rbp)
Ltmp801:
	.loc	45 143 23
	cvttss2si	%xmm1, %eax
	movss	LCPI98_5(%rip), %xmm2
	ucomiss	%xmm2, %xmm1
	movl	$2147483647, %ecx
	cmoval	%ecx, %eax
	xorl	%ecx, %ecx
	ucomiss	%xmm1, %xmm1
	cmovpl	%ecx, %eax
	movl	%eax, -412(%rbp)
	movl	%eax, -72(%rbp)
Ltmp802:
	.loc	45 144 26
	callq	__ZN3std3f3221_$LT$impl$u20$f32$GT$4ceil17hd307bee39d62bf3dE
	movl	-412(%rbp), %eax
	movss	%xmm0, -408(%rbp)
	movss	%xmm0, -68(%rbp)
Ltmp803:
	.loc	45 145 23
	cvttss2si	%xmm0, %ecx
	movss	LCPI98_5(%rip), %xmm1
	ucomiss	%xmm1, %xmm0
	movl	$2147483647, %edx
	cmoval	%edx, %ecx
	xorl	%edx, %edx
	ucomiss	%xmm0, %xmm0
	cmovpl	%edx, %ecx
	movl	%ecx, -404(%rbp)
	movl	%ecx, -64(%rbp)
Ltmp804:
	.loc	45 146 23
	incl	%eax
	movl	%eax, -400(%rbp)
	seto	%al
	testb	$1, %al
	jne	LBB98_18
	.loc	45 0 23 is_stmt 0
	movl	-404(%rbp), %eax
	movl	-400(%rbp), %ecx
	.loc	45 146 16
	cmpl	%ecx, %eax
	jle	LBB98_20
	jmp	LBB98_19
LBB98_18:
	.loc	45 146 23
	leaq	_str.2(%rip), %rdi
	leaq	l___unnamed_17(%rip), %rdx
	movl	$28, %esi
	callq	__ZN4core9panicking5panic17hc1bc45270cf64b03E
LBB98_19:
	.loc	45 0 23
	movss	-420(%rbp), %xmm0
	movss	-424(%rbp), %xmm1
	.loc	45 155 25 is_stmt 1
	subss	%xmm1, %xmm0
	callq	__ZN4core3f3221_$LT$impl$u20$f32$GT$5recip17hd0448c12e2481782E
	movss	-424(%rbp), %xmm5
	movss	-416(%rbp), %xmm3
	movss	-420(%rbp), %xmm1
	movl	-412(%rbp), %ecx
	movq	-352(%rbp), %rax
	movaps	%xmm0, %xmm2
	movss	-408(%rbp), %xmm0
	movss	%xmm2, -448(%rbp)
	movss	%xmm2, -44(%rbp)
Ltmp805:
	.loc	45 156 27
	subss	%xmm3, %xmm5
	movss	%xmm5, -444(%rbp)
	movss	%xmm5, -40(%rbp)
Ltmp806:
	.loc	45 157 26
	movss	LCPI98_6(%rip), %xmm3
	mulss	%xmm2, %xmm3
	.loc	45 157 36 is_stmt 0
	movss	LCPI98_2(%rip), %xmm4
	subss	%xmm5, %xmm4
	.loc	45 157 26
	mulss	%xmm4, %xmm3
	.loc	45 157 50
	movss	LCPI98_2(%rip), %xmm4
	subss	%xmm5, %xmm4
	.loc	45 157 26
	mulss	%xmm4, %xmm3
	movss	%xmm3, -440(%rbp)
	movss	%xmm3, -36(%rbp)
Ltmp807:
	.loc	45 158 27 is_stmt 1
	subss	%xmm0, %xmm1
	movss	LCPI98_2(%rip), %xmm0
	addss	%xmm0, %xmm1
	movss	%xmm1, -32(%rbp)
Ltmp808:
	.loc	45 159 26
	movss	LCPI98_6(%rip), %xmm0
	mulss	%xmm2, %xmm0
	mulss	%xmm1, %xmm0
	mulss	%xmm1, %xmm0
	movss	%xmm0, -436(%rbp)
	movss	%xmm0, -28(%rbp)
Ltmp809:
	.loc	45 160 58
	movslq	%ecx, %rcx
	.loc	45 160 37 is_stmt 0
	addq	%rcx, %rax
	movq	%rax, -432(%rbp)
	seto	%al
	testb	$1, %al
	jne	LBB98_28
	jmp	LBB98_27
Ltmp810:
LBB98_20:
	.loc	45 0 37
	movq	-352(%rbp), %rax
	movl	-412(%rbp), %ecx
	movss	-416(%rbp), %xmm1
	movss	-396(%rbp), %xmm2
	.loc	45 147 33 is_stmt 1
	addss	-260(%rbp), %xmm2
	.loc	45 147 27 is_stmt 0
	movss	LCPI98_6(%rip), %xmm0
	mulss	%xmm2, %xmm0
	subss	%xmm1, %xmm0
	movss	%xmm0, -460(%rbp)
	movss	%xmm0, -60(%rbp)
Ltmp811:
	.loc	45 148 58 is_stmt 1
	movslq	%ecx, %rcx
	.loc	45 148 37 is_stmt 0
	addq	%rcx, %rax
	movq	%rax, -456(%rbp)
	seto	%al
	testb	$1, %al
	jne	LBB98_22
	.loc	45 0 37
	movq	-456(%rbp), %rax
	.loc	45 148 37
	movq	%rax, -56(%rbp)
Ltmp812:
	.loc	45 149 20 is_stmt 1
	cmpq	$0, %rax
	jl	LBB98_8
	jmp	LBB98_23
Ltmp813:
LBB98_22:
	.loc	45 148 37
	leaq	_str.2(%rip), %rdi
	leaq	l___unnamed_18(%rip), %rdx
	movl	$28, %esi
	callq	__ZN4core9panicking5panic17hc1bc45270cf64b03E
LBB98_23:
	.loc	45 0 37 is_stmt 0
	movq	-456(%rbp), %rsi
	movq	-304(%rbp), %rdi
	movss	-460(%rbp), %xmm2
	movss	-392(%rbp), %xmm0
Ltmp814:
	.loc	45 152 55 is_stmt 1
	movaps	%xmm0, %xmm1
	mulss	%xmm2, %xmm1
	.loc	45 152 51 is_stmt 0
	subss	%xmm1, %xmm0
	movss	%xmm0, -488(%rbp)
	.loc	45 152 17
	addq	$16, %rdi
	leaq	l___unnamed_19(%rip), %rdx
	callq	__ZN84_$LT$alloc..vec..Vec$LT$T$C$A$GT$$u20$as$u20$core..ops..index..IndexMut$LT$I$GT$$GT$9index_mut17h0c906eb76f318a94E
	movss	-488(%rbp), %xmm2
	movss	-392(%rbp), %xmm0
	movss	-460(%rbp), %xmm1
	movq	-304(%rbp), %rcx
	movq	%rax, %rdx
	movq	-456(%rbp), %rax
	addss	(%rdx), %xmm2
	movss	%xmm2, (%rdx)
	.loc	45 153 55 is_stmt 1
	mulss	%xmm1, %xmm0
	movss	%xmm0, -484(%rbp)
	.loc	45 153 17 is_stmt 0
	addq	$16, %rcx
	movq	%rcx, -480(%rbp)
	.loc	45 153 24
	addq	$1, %rax
	movq	%rax, -472(%rbp)
	setb	%al
	testb	$1, %al
	jne	LBB98_25
	.loc	45 0 24
	movq	-472(%rbp), %rsi
	movq	-480(%rbp), %rdi
	.loc	45 153 17
	leaq	l___unnamed_20(%rip), %rdx
	callq	__ZN84_$LT$alloc..vec..Vec$LT$T$C$A$GT$$u20$as$u20$core..ops..index..IndexMut$LT$I$GT$$GT$9index_mut17h0c906eb76f318a94E
	movss	-484(%rbp), %xmm0
	addss	(%rax), %xmm0
	movss	%xmm0, (%rax)
Ltmp815:
	.loc	45 146 13 is_stmt 1
	jmp	LBB98_26
LBB98_25:
Ltmp816:
	.loc	45 153 24
	leaq	_str.2(%rip), %rdi
	leaq	l___unnamed_21(%rip), %rdx
	movl	$28, %esi
	callq	__ZN4core9panicking5panic17hc1bc45270cf64b03E
Ltmp817:
LBB98_26:
	.loc	45 0 24 is_stmt 0
	movss	-396(%rbp), %xmm0
	.loc	45 178 13 is_stmt 1
	movss	%xmm0, -260(%rbp)
Ltmp818:
	.loc	45 136 9
	jmp	LBB98_8
LBB98_27:
	.loc	45 0 9 is_stmt 0
	movq	-432(%rbp), %rax
Ltmp819:
	.loc	45 160 37 is_stmt 1
	movq	%rax, -24(%rbp)
Ltmp820:
	.loc	45 161 20
	cmpq	$0, %rax
	jl	LBB98_8
	jmp	LBB98_29
Ltmp821:
LBB98_28:
	.loc	45 160 37
	leaq	_str.2(%rip), %rdi
	leaq	l___unnamed_22(%rip), %rdx
	movl	$28, %esi
	callq	__ZN4core9panicking5panic17hc1bc45270cf64b03E
LBB98_29:
	.loc	45 0 37 is_stmt 0
	movq	-432(%rbp), %rsi
	movq	-304(%rbp), %rdi
	movss	-440(%rbp), %xmm1
	movss	-392(%rbp), %xmm0
Ltmp822:
	.loc	45 164 51 is_stmt 1
	mulss	%xmm1, %xmm0
	movss	%xmm0, -496(%rbp)
	.loc	45 164 17 is_stmt 0
	addq	$16, %rdi
	leaq	l___unnamed_23(%rip), %rdx
	callq	__ZN84_$LT$alloc..vec..Vec$LT$T$C$A$GT$$u20$as$u20$core..ops..index..IndexMut$LT$I$GT$$GT$9index_mut17h0c906eb76f318a94E
	movss	-496(%rbp), %xmm0
	movq	%rax, %rcx
	movl	-412(%rbp), %eax
	addss	(%rcx), %xmm0
	movss	%xmm0, (%rcx)
	.loc	45 165 27 is_stmt 1
	addl	$2, %eax
	movl	%eax, -492(%rbp)
	seto	%al
	testb	$1, %al
	jne	LBB98_31
	.loc	45 0 27 is_stmt 0
	movl	-404(%rbp), %eax
	movl	-492(%rbp), %ecx
	.loc	45 165 20
	cmpl	%ecx, %eax
	je	LBB98_33
	jmp	LBB98_32
LBB98_31:
	.loc	45 165 27
	leaq	_str.2(%rip), %rdi
	leaq	l___unnamed_24(%rip), %rdx
	movl	$28, %esi
	callq	__ZN4core9panicking5panic17hc1bc45270cf64b03E
LBB98_32:
	.loc	45 0 27
	movq	-432(%rbp), %rax
	movq	-304(%rbp), %rcx
	movss	-392(%rbp), %xmm0
	movss	-440(%rbp), %xmm2
	movss	-448(%rbp), %xmm1
	movss	-444(%rbp), %xmm4
	.loc	45 168 34 is_stmt 1
	movss	LCPI98_7(%rip), %xmm3
	subss	%xmm4, %xmm3
	.loc	45 168 30 is_stmt 0
	mulss	%xmm3, %xmm1
	movss	%xmm1, -520(%rbp)
	movss	%xmm1, -12(%rbp)
Ltmp823:
	.loc	45 169 63 is_stmt 1
	subss	%xmm2, %xmm1
	.loc	45 169 59 is_stmt 0
	mulss	%xmm1, %xmm0
	movss	%xmm0, -516(%rbp)
	.loc	45 169 21
	addq	$16, %rcx
	movq	%rcx, -512(%rbp)
	.loc	45 169 28
	addq	$1, %rax
	movq	%rax, -504(%rbp)
	setb	%al
	testb	$1, %al
	jne	LBB98_38
	jmp	LBB98_37
Ltmp824:
LBB98_33:
	.loc	45 0 28
	movq	-432(%rbp), %rax
	movq	-304(%rbp), %rcx
	movss	-392(%rbp), %xmm0
	movss	-436(%rbp), %xmm2
	movss	-440(%rbp), %xmm3
	.loc	45 166 64 is_stmt 1
	movss	LCPI98_2(%rip), %xmm1
	subss	%xmm3, %xmm1
	.loc	45 166 63 is_stmt 0
	subss	%xmm2, %xmm1
	.loc	45 166 59
	mulss	%xmm1, %xmm0
	movss	%xmm0, -540(%rbp)
	.loc	45 166 21
	addq	$16, %rcx
	movq	%rcx, -536(%rbp)
	.loc	45 166 28
	addq	$1, %rax
	movq	%rax, -528(%rbp)
	setb	%al
	testb	$1, %al
	jne	LBB98_35
	.loc	45 0 28
	movq	-528(%rbp), %rsi
	movq	-536(%rbp), %rdi
	.loc	45 166 21
	leaq	l___unnamed_25(%rip), %rdx
	callq	__ZN84_$LT$alloc..vec..Vec$LT$T$C$A$GT$$u20$as$u20$core..ops..index..IndexMut$LT$I$GT$$GT$9index_mut17h0c906eb76f318a94E
	movss	-540(%rbp), %xmm0
	addss	(%rax), %xmm0
	movss	%xmm0, (%rax)
	.loc	45 165 17 is_stmt 1
	jmp	LBB98_36
LBB98_35:
	.loc	45 166 28
	leaq	_str.2(%rip), %rdi
	leaq	l___unnamed_26(%rip), %rdx
	movl	$28, %esi
	callq	__ZN4core9panicking5panic17hc1bc45270cf64b03E
LBB98_36:
	.loc	45 0 28 is_stmt 0
	movq	-352(%rbp), %rax
	movl	-404(%rbp), %ecx
	movq	-304(%rbp), %rdx
	movss	-436(%rbp), %xmm1
	movss	-392(%rbp), %xmm0
	.loc	45 176 53 is_stmt 1
	mulss	%xmm1, %xmm0
	movss	%xmm0, -564(%rbp)
	.loc	45 176 17 is_stmt 0
	addq	$16, %rdx
	movq	%rdx, -560(%rbp)
	.loc	45 176 36
	movslq	%ecx, %rcx
	.loc	45 176 24
	addq	%rcx, %rax
	movq	%rax, -552(%rbp)
	setb	%al
	testb	$1, %al
	jne	LBB98_57
	jmp	LBB98_56
LBB98_37:
	.loc	45 0 24
	movq	-504(%rbp), %rsi
	movq	-512(%rbp), %rdi
Ltmp825:
	.loc	45 169 21 is_stmt 1
	leaq	l___unnamed_27(%rip), %rdx
	callq	__ZN84_$LT$alloc..vec..Vec$LT$T$C$A$GT$$u20$as$u20$core..ops..index..IndexMut$LT$I$GT$$GT$9index_mut17h0c906eb76f318a94E
	movss	-516(%rbp), %xmm0
	movq	%rax, %rcx
	movl	-412(%rbp), %eax
	addss	(%rcx), %xmm0
	movss	%xmm0, (%rcx)
	.loc	45 170 31
	addl	$2, %eax
	movl	%eax, -568(%rbp)
	seto	%al
	testb	$1, %al
	jne	LBB98_40
	jmp	LBB98_39
LBB98_38:
	.loc	45 169 28
	leaq	_str.2(%rip), %rdi
	leaq	l___unnamed_28(%rip), %rdx
	movl	$28, %esi
	callq	__ZN4core9panicking5panic17hc1bc45270cf64b03E
LBB98_39:
	.loc	45 0 28 is_stmt 0
	movl	-404(%rbp), %eax
	.loc	45 170 40 is_stmt 1
	decl	%eax
	movl	%eax, -572(%rbp)
	seto	%al
	testb	$1, %al
	jne	LBB98_42
	jmp	LBB98_41
LBB98_40:
	.loc	45 170 31 is_stmt 0
	leaq	_str.2(%rip), %rdi
	leaq	l___unnamed_29(%rip), %rdx
	movl	$28, %esi
	callq	__ZN4core9panicking5panic17hc1bc45270cf64b03E
LBB98_41:
	.loc	45 0 31
	movl	-572(%rbp), %eax
	movl	-568(%rbp), %ecx
	.loc	45 170 31
	movl	%ecx, -200(%rbp)
	movl	%eax, -196(%rbp)
	movl	-200(%rbp), %edi
	movl	-196(%rbp), %esi
	callq	__ZN63_$LT$I$u20$as$u20$core..iter..traits..collect..IntoIterator$GT$9into_iter17h96bfbdb47885f99cE
	movl	%eax, -192(%rbp)
	movl	%edx, -188(%rbp)
Ltmp826:
	.loc	45 170 21
	jmp	LBB98_43
Ltmp827:
LBB98_42:
	.loc	45 170 40
	leaq	_str.3(%rip), %rdi
	leaq	l___unnamed_30(%rip), %rdx
	movl	$33, %esi
	callq	__ZN4core9panicking5panic17hc1bc45270cf64b03E
LBB98_43:
	.loc	45 0 40
	leaq	-192(%rbp), %rdi
Ltmp828:
	.loc	45 170 31
	callq	__ZN4core4iter5range101_$LT$impl$u20$core..iter..traits..iterator..Iterator$u20$for$u20$core..ops..range..Range$LT$A$GT$$GT$4next17h880630df7290efceE
	movl	%edx, -180(%rbp)
	movl	%eax, -184(%rbp)
	movl	-184(%rbp), %eax
	cmpq	$0, %rax
	jne	LBB98_45
Ltmp829:
	.loc	45 0 31
	movl	-412(%rbp), %ecx
	movl	-404(%rbp), %eax
	.loc	45 173 36 is_stmt 1
	subl	%ecx, %eax
	movl	%eax, -576(%rbp)
	seto	%al
	testb	$1, %al
	jne	LBB98_49
	jmp	LBB98_48
LBB98_45:
	.loc	45 0 36 is_stmt 0
	movq	-352(%rbp), %rax
	movq	-304(%rbp), %rdx
	movss	-448(%rbp), %xmm1
	movss	-392(%rbp), %xmm0
Ltmp830:
	.loc	45 170 25 is_stmt 1
	movl	-180(%rbp), %ecx
	movl	%ecx, -8(%rbp)
Ltmp831:
	.loc	45 171 60
	mulss	%xmm1, %xmm0
	movss	%xmm0, -596(%rbp)
	.loc	45 171 25 is_stmt 0
	addq	$16, %rdx
	movq	%rdx, -592(%rbp)
	.loc	45 171 44
	movslq	%ecx, %rcx
	.loc	45 171 32
	addq	%rcx, %rax
	movq	%rax, -584(%rbp)
	setb	%al
	testb	$1, %al
	jne	LBB98_47
	.loc	45 0 32
	movq	-584(%rbp), %rsi
	movq	-592(%rbp), %rdi
	.loc	45 171 25
	leaq	l___unnamed_31(%rip), %rdx
	callq	__ZN84_$LT$alloc..vec..Vec$LT$T$C$A$GT$$u20$as$u20$core..ops..index..IndexMut$LT$I$GT$$GT$9index_mut17h0c906eb76f318a94E
	movss	-596(%rbp), %xmm0
	addss	(%rax), %xmm0
	movss	%xmm0, (%rax)
Ltmp832:
	.loc	45 170 21 is_stmt 1
	jmp	LBB98_43
LBB98_47:
Ltmp833:
	.loc	45 171 32
	leaq	_str.2(%rip), %rdi
	leaq	l___unnamed_32(%rip), %rdx
	movl	$28, %esi
	callq	__ZN4core9panicking5panic17hc1bc45270cf64b03E
Ltmp834:
LBB98_48:
	.loc	45 0 32 is_stmt 0
	movl	-576(%rbp), %eax
	.loc	45 173 35 is_stmt 1
	subl	$3, %eax
	movl	%eax, -600(%rbp)
	seto	%al
	testb	$1, %al
	jne	LBB98_51
	jmp	LBB98_50
LBB98_49:
	.loc	45 173 36 is_stmt 0
	leaq	_str.3(%rip), %rdi
	leaq	l___unnamed_33(%rip), %rdx
	movl	$33, %esi
	callq	__ZN4core9panicking5panic17hc1bc45270cf64b03E
LBB98_50:
	.loc	45 0 36
	movl	-404(%rbp), %eax
	movq	-304(%rbp), %rcx
	movss	-392(%rbp), %xmm0
	movss	-436(%rbp), %xmm2
	movss	-520(%rbp), %xmm3
	movss	-448(%rbp), %xmm4
	movl	-600(%rbp), %edx
	.loc	45 173 35
	cvtsi2ss	%edx, %xmm1
	mulss	%xmm4, %xmm1
	.loc	45 173 30
	addss	%xmm1, %xmm3
	movss	%xmm3, -4(%rbp)
Ltmp835:
	.loc	45 174 68 is_stmt 1
	movss	LCPI98_2(%rip), %xmm1
	subss	%xmm3, %xmm1
	.loc	45 174 67 is_stmt 0
	subss	%xmm2, %xmm1
	.loc	45 174 63
	mulss	%xmm1, %xmm0
	movss	%xmm0, -620(%rbp)
	.loc	45 174 21
	addq	$16, %rcx
	movq	%rcx, -616(%rbp)
	.loc	45 174 40
	decl	%eax
	movl	%eax, -604(%rbp)
	seto	%al
	testb	$1, %al
	jne	LBB98_53
	jmp	LBB98_52
Ltmp836:
LBB98_51:
	.loc	45 173 35 is_stmt 1
	leaq	_str.3(%rip), %rdi
	leaq	l___unnamed_34(%rip), %rdx
	movl	$33, %esi
	callq	__ZN4core9panicking5panic17hc1bc45270cf64b03E
LBB98_52:
	.loc	45 0 35 is_stmt 0
	movq	-352(%rbp), %rax
	movl	-604(%rbp), %ecx
Ltmp837:
	.loc	45 174 40 is_stmt 1
	movslq	%ecx, %rcx
	.loc	45 174 28 is_stmt 0
	addq	%rcx, %rax
	movq	%rax, -632(%rbp)
	setb	%al
	testb	$1, %al
	jne	LBB98_55
	jmp	LBB98_54
LBB98_53:
	.loc	45 174 40
	leaq	_str.3(%rip), %rdi
	leaq	l___unnamed_35(%rip), %rdx
	movl	$33, %esi
	callq	__ZN4core9panicking5panic17hc1bc45270cf64b03E
LBB98_54:
	.loc	45 0 40
	movq	-632(%rbp), %rsi
	movq	-616(%rbp), %rdi
	.loc	45 174 21
	leaq	l___unnamed_36(%rip), %rdx
	callq	__ZN84_$LT$alloc..vec..Vec$LT$T$C$A$GT$$u20$as$u20$core..ops..index..IndexMut$LT$I$GT$$GT$9index_mut17h0c906eb76f318a94E
	movss	-620(%rbp), %xmm0
	addss	(%rax), %xmm0
	movss	%xmm0, (%rax)
Ltmp838:
	.loc	45 165 17 is_stmt 1
	jmp	LBB98_36
LBB98_55:
Ltmp839:
	.loc	45 174 28
	leaq	_str.2(%rip), %rdi
	leaq	l___unnamed_37(%rip), %rdx
	movl	$28, %esi
	callq	__ZN4core9panicking5panic17hc1bc45270cf64b03E
Ltmp840:
LBB98_56:
	.loc	45 0 28 is_stmt 0
	movq	-552(%rbp), %rsi
	movq	-560(%rbp), %rdi
	.loc	45 176 17 is_stmt 1
	leaq	l___unnamed_38(%rip), %rdx
	callq	__ZN84_$LT$alloc..vec..Vec$LT$T$C$A$GT$$u20$as$u20$core..ops..index..IndexMut$LT$I$GT$$GT$9index_mut17h0c906eb76f318a94E
	movss	-564(%rbp), %xmm0
	addss	(%rax), %xmm0
	movss	%xmm0, (%rax)
Ltmp841:
	.loc	45 146 13
	jmp	LBB98_26
LBB98_57:
Ltmp842:
	.loc	45 176 24
	leaq	_str.2(%rip), %rdi
	leaq	l___unnamed_39(%rip), %rdx
	movl	$28, %esi
	callq	__ZN4core9panicking5panic17hc1bc45270cf64b03E
Ltmp843:
Lfunc_end98:
	.cfi_endproc

	.section	__TEXT,__literal4,4byte_literals
	.p2align	2
LCPI99_0:
	.long	0x3eaa7efa
LCPI99_1:
	.long	0x40000000
LCPI99_2:
	.long	0x5f000000
LCPI99_3:
	.long	0x5f7fffff
LCPI99_4:
	.long	0x40400000
	.section	__TEXT,__text,regular,pure_instructions
	.globl	__ZN19ab_glyph_rasterizer6raster10Rasterizer9draw_quad17hfe5c5f0cc0db678fE
	.p2align	4, 0x90
__ZN19ab_glyph_rasterizer6raster10Rasterizer9draw_quad17hfe5c5f0cc0db678fE:
Lfunc_begin99:
	.loc	45 189 0
	.cfi_startproc
	pushq	%rbp
	.cfi_def_cfa_offset 16
	.cfi_offset %rbp, -16
	movq	%rsp, %rbp
	.cfi_def_cfa_register %rbp
	subq	$240, %rsp
	movaps	%xmm2, %xmm6
	movss	%xmm1, -188(%rbp)
	movaps	%xmm0, %xmm1
	movss	-188(%rbp), %xmm0
	movq	%rdi, -184(%rbp)
	movss	%xmm1, -172(%rbp)
	movss	%xmm0, -168(%rbp)
	movss	%xmm6, -164(%rbp)
	movss	%xmm3, -160(%rbp)
	movss	%xmm4, -156(%rbp)
	movss	%xmm5, -152(%rbp)
	movq	%rdi, -80(%rbp)
	movss	%xmm1, -72(%rbp)
	movss	%xmm0, -68(%rbp)
	movss	%xmm6, -64(%rbp)
	movss	%xmm3, -60(%rbp)
	movss	%xmm4, -56(%rbp)
	movss	%xmm5, -52(%rbp)
Ltmp844:
	.loc	45 190 27 prologue_end
	movss	LCPI99_1(%rip), %xmm2
	mulss	%xmm6, %xmm2
	.loc	45 190 20 is_stmt 0
	subss	%xmm2, %xmm1
	addss	%xmm4, %xmm1
	movss	%xmm1, -48(%rbp)
Ltmp845:
	.loc	45 191 27 is_stmt 1
	movss	LCPI99_1(%rip), %xmm2
	mulss	%xmm3, %xmm2
	.loc	45 191 20 is_stmt 0
	subss	%xmm2, %xmm0
	addss	%xmm5, %xmm0
	movss	%xmm0, -44(%rbp)
Ltmp846:
	.loc	45 192 21 is_stmt 1
	mulss	%xmm1, %xmm1
	.loc	45 192 35 is_stmt 0
	mulss	%xmm0, %xmm0
	.loc	45 192 21
	addss	%xmm0, %xmm1
	movss	%xmm1, -148(%rbp)
	movss	%xmm1, -40(%rbp)
Ltmp847:
	.loc	45 193 12 is_stmt 1
	movss	LCPI99_0(%rip), %xmm0
	ucomiss	%xmm1, %xmm0
	ja	LBB99_2
	.loc	45 0 12 is_stmt 0
	movss	-148(%rbp), %xmm1
	.loc	45 197 19 is_stmt 1
	movss	LCPI99_4(%rip), %xmm0
	movss	%xmm0, -36(%rbp)
Ltmp848:
	.loc	45 198 21
	movss	LCPI99_4(%rip), %xmm0
	mulss	%xmm1, %xmm0
	callq	__ZN3std3f3221_$LT$impl$u20$f32$GT$4sqrt17hf6b37d81bb691729E
	callq	__ZN3std3f3221_$LT$impl$u20$f32$GT$4sqrt17hf6b37d81bb691729E
	callq	__ZN3std3f3221_$LT$impl$u20$f32$GT$5floor17h31e619b069bc1746E
	movss	LCPI99_2(%rip), %xmm2
	movaps	%xmm0, %xmm1
	subss	%xmm2, %xmm1
	cvttss2si	%xmm1, %rcx
	movaps	%xmm0, %xmm1
	cvttss2si	%xmm1, %rax
	movq	%rax, %rdx
	sarq	$63, %rdx
	andq	%rdx, %rcx
	orq	%rcx, %rax
	xorl	%ecx, %ecx
	xorps	%xmm1, %xmm1
	ucomiss	%xmm1, %xmm0
	cmovbq	%rcx, %rax
	movss	LCPI99_3(%rip), %xmm1
	ucomiss	%xmm1, %xmm0
	movq	$-1, %rcx
	cmovaq	%rcx, %rax
	.loc	45 198 17 is_stmt 0
	addq	$1, %rax
	movq	%rax, -200(%rbp)
	setb	%al
	testb	$1, %al
	jne	LBB99_5
	jmp	LBB99_4
Ltmp849:
LBB99_2:
	.loc	45 0 17
	movss	-152(%rbp), %xmm3
	movss	-156(%rbp), %xmm2
	movss	-168(%rbp), %xmm1
	movss	-172(%rbp), %xmm0
	movq	-184(%rbp), %rdi
	.loc	45 194 13 is_stmt 1
	callq	__ZN19ab_glyph_rasterizer6raster10Rasterizer9draw_line17hbdb790779823d7ddE
Ltmp850:
LBB99_3:
	.loc	45 209 6
	addq	$240, %rsp
	popq	%rbp
	retq
LBB99_4:
	.loc	45 0 6 is_stmt 0
	movq	-200(%rbp), %rax
	movss	-168(%rbp), %xmm0
	movss	-172(%rbp), %xmm1
Ltmp851:
	.loc	45 198 17 is_stmt 1
	movq	%rax, -32(%rbp)
Ltmp852:
	.loc	45 199 21
	movss	%xmm1, -144(%rbp)
	movss	%xmm0, -140(%rbp)
Ltmp853:
	.loc	45 200 22
	movq	%rax, %rdx
	shrq	%rdx
	movl	%eax, %ecx
	andl	$1, %ecx
	orq	%rdx, %rcx
	cvtsi2ss	%rcx, %xmm0
	addss	%xmm0, %xmm0
	cvtsi2ss	%rax, %xmm1
	movss	%xmm1, -208(%rbp)
	testq	%rax, %rax
	movss	%xmm0, -204(%rbp)
	js	LBB99_12
	.loc	45 0 22 is_stmt 0
	movss	-208(%rbp), %xmm0
	movss	%xmm0, -204(%rbp)
LBB99_12:
	movss	-204(%rbp), %xmm0
	.loc	45 200 22
	callq	__ZN4core3f3221_$LT$impl$u20$f32$GT$5recip17hd0448c12e2481782E
	movq	-200(%rbp), %rax
	movss	%xmm0, -220(%rbp)
	movss	%xmm0, -20(%rbp)
Ltmp854:
	.loc	45 201 21 is_stmt 1
	xorps	%xmm0, %xmm0
	movss	%xmm0, -132(%rbp)
Ltmp855:
	.loc	45 202 22
	movq	%rax, %rcx
	subq	$1, %rcx
	movq	%rcx, -216(%rbp)
	cmpq	$1, %rax
	setb	%al
	testb	$1, %al
	jne	LBB99_7
	jmp	LBB99_6
Ltmp856:
LBB99_5:
	.loc	45 198 17
	leaq	_str.2(%rip), %rdi
	leaq	l___unnamed_40(%rip), %rdx
	movl	$28, %esi
	callq	__ZN4core9panicking5panic17hc1bc45270cf64b03E
LBB99_6:
	.loc	45 0 17 is_stmt 0
	movq	-216(%rbp), %rax
Ltmp857:
	.loc	45 202 19 is_stmt 1
	movq	$0, -128(%rbp)
	movq	%rax, -120(%rbp)
	movq	-128(%rbp), %rdi
	movq	-120(%rbp), %rsi
	callq	__ZN63_$LT$I$u20$as$u20$core..iter..traits..collect..IntoIterator$GT$9into_iter17hcd02363d0288a484E
	movq	%rax, -112(%rbp)
	movq	%rdx, -104(%rbp)
Ltmp858:
	.loc	45 202 9 is_stmt 0
	jmp	LBB99_8
Ltmp859:
LBB99_7:
	.loc	45 202 22
	leaq	_str.3(%rip), %rdi
	leaq	l___unnamed_41(%rip), %rdx
	movl	$33, %esi
	callq	__ZN4core9panicking5panic17hc1bc45270cf64b03E
LBB99_8:
	.loc	45 0 22
	leaq	-112(%rbp), %rdi
Ltmp860:
	.loc	45 202 19
	callq	__ZN4core4iter5range101_$LT$impl$u20$core..iter..traits..iterator..Iterator$u20$for$u20$core..ops..range..Range$LT$A$GT$$GT$4next17h9cdbd81401b9c075E
	movq	%rdx, -88(%rbp)
	movq	%rax, -96(%rbp)
	cmpq	$0, -96(%rbp)
	jne	LBB99_10
Ltmp861:
	.loc	45 0 19
	movss	-152(%rbp), %xmm3
	movss	-156(%rbp), %xmm2
	movq	-184(%rbp), %rdi
	.loc	45 208 24 is_stmt 1
	movss	-144(%rbp), %xmm0
	movss	-140(%rbp), %xmm1
	.loc	45 208 9 is_stmt 0
	callq	__ZN19ab_glyph_rasterizer6raster10Rasterizer9draw_line17hbdb790779823d7ddE
	jmp	LBB99_3
LBB99_10:
	.loc	45 0 9
	movss	-160(%rbp), %xmm4
	movss	-164(%rbp), %xmm3
	movss	-168(%rbp), %xmm2
	movss	-172(%rbp), %xmm1
	movss	-220(%rbp), %xmm0
Ltmp862:
	.loc	45 202 13 is_stmt 1
	movq	-88(%rbp), %rax
	movq	%rax, -16(%rbp)
Ltmp863:
	.loc	45 203 13
	addss	-132(%rbp), %xmm0
	movss	%xmm0, -132(%rbp)
	.loc	45 204 27
	movss	-132(%rbp), %xmm0
	movss	%xmm0, -236(%rbp)
	.loc	45 204 35 is_stmt 0
	movss	-132(%rbp), %xmm0
	.loc	45 204 30
	callq	__ZN19ab_glyph_rasterizer8geometry4lerp17h08f6db8a84fb5d78E
	movss	-160(%rbp), %xmm2
	movss	-156(%rbp), %xmm3
	movss	-152(%rbp), %xmm4
	movss	%xmm0, -232(%rbp)
	movaps	%xmm1, %xmm0
	movss	-164(%rbp), %xmm1
	movss	%xmm0, -240(%rbp)
	.loc	45 204 52
	movss	-132(%rbp), %xmm0
	.loc	45 204 47
	callq	__ZN19ab_glyph_rasterizer8geometry4lerp17h08f6db8a84fb5d78E
	movss	-240(%rbp), %xmm2
	movaps	%xmm0, %xmm3
	movss	-236(%rbp), %xmm0
	movaps	%xmm1, %xmm4
	movss	-232(%rbp), %xmm1
	.loc	45 204 22
	callq	__ZN19ab_glyph_rasterizer8geometry4lerp17h08f6db8a84fb5d78E
	movq	-184(%rbp), %rdi
	movaps	%xmm0, %xmm2
	movss	%xmm2, -228(%rbp)
	movaps	%xmm1, %xmm3
	movss	%xmm3, -224(%rbp)
	movss	%xmm2, -8(%rbp)
	movss	%xmm3, -4(%rbp)
Ltmp864:
	.loc	45 205 28 is_stmt 1
	movss	-144(%rbp), %xmm0
	movss	-140(%rbp), %xmm1
	.loc	45 205 13 is_stmt 0
	callq	__ZN19ab_glyph_rasterizer6raster10Rasterizer9draw_line17hbdb790779823d7ddE
	movss	-228(%rbp), %xmm0
	movss	-224(%rbp), %xmm1
	.loc	45 206 13 is_stmt 1
	movss	%xmm0, -144(%rbp)
	movss	%xmm1, -140(%rbp)
Ltmp865:
	.loc	45 202 9
	jmp	LBB99_8
Ltmp866:
Lfunc_end99:
	.cfi_endproc

	.globl	__ZN19ab_glyph_rasterizer6raster10Rasterizer10draw_cubic17h02eccfcb1acdf822E
	.p2align	4, 0x90
__ZN19ab_glyph_rasterizer6raster10Rasterizer10draw_cubic17h02eccfcb1acdf822E:
Lfunc_begin100:
	.loc	45 224 0
	.cfi_startproc
	pushq	%rbp
	.cfi_def_cfa_offset 16
	.cfi_offset %rbp, -16
	movq	%rsp, %rbp
	.cfi_def_cfa_register %rbp
	subq	$48, %rsp
	movq	%rdi, -40(%rbp)
	movss	%xmm0, -32(%rbp)
	movss	%xmm1, -28(%rbp)
	movss	%xmm2, -24(%rbp)
	movss	%xmm3, -20(%rbp)
	movss	%xmm4, -16(%rbp)
	movss	%xmm5, -12(%rbp)
	movss	%xmm6, -8(%rbp)
	movss	%xmm7, -4(%rbp)
Ltmp867:
	.loc	45 225 9 prologue_end
	xorl	%esi, %esi
	callq	__ZN19ab_glyph_rasterizer6raster10Rasterizer15tesselate_cubic17h4366aa978131535eE
	.loc	45 226 6
	addq	$48, %rsp
	popq	%rbp
	retq
Ltmp868:
Lfunc_end100:
	.cfi_endproc

	.section	__TEXT,__literal4,4byte_literals
	.p2align	2
LCPI101_0:
	.long	0x3dfae147
LCPI101_1:
	.long	0x3f000000
	.section	__TEXT,__text,regular,pure_instructions
	.p2align	4, 0x90
__ZN19ab_glyph_rasterizer6raster10Rasterizer15tesselate_cubic17h4366aa978131535eE:
Lfunc_begin101:
	.loc	45 229 0
	.cfi_startproc
	pushq	%rbp
	.cfi_def_cfa_offset 16
	.cfi_offset %rbp, -16
	movq	%rsp, %rbp
	.cfi_def_cfa_register %rbp
	subq	$224, %rsp
	movss	%xmm7, -128(%rbp)
	movss	%xmm6, -132(%rbp)
	movss	%xmm5, -148(%rbp)
	movss	%xmm4, -144(%rbp)
	movss	%xmm3, -160(%rbp)
	movss	%xmm2, -156(%rbp)
	movss	%xmm1, -136(%rbp)
	movss	%xmm0, -124(%rbp)
	movq	%rdi, -168(%rbp)
	movb	%sil, %al
	movb	%al, -117(%rbp)
	movq	%rdi, -104(%rbp)
	movss	%xmm0, -96(%rbp)
	movss	%xmm1, -92(%rbp)
	movss	%xmm2, -88(%rbp)
	movss	%xmm3, -84(%rbp)
	movss	%xmm4, -80(%rbp)
	movss	%xmm5, -76(%rbp)
	movss	%xmm6, -72(%rbp)
	movss	%xmm7, -68(%rbp)
	movb	%al, -61(%rbp)
Ltmp869:
	.loc	45 235 23 prologue_end
	callq	__ZN19ab_glyph_rasterizer8geometry5Point11distance_to17h6505e194d9b5d1f8E
	movss	-160(%rbp), %xmm1
	movss	-144(%rbp), %xmm2
	movss	-148(%rbp), %xmm3
	movaps	%xmm0, %xmm4
	movss	-156(%rbp), %xmm0
	movss	%xmm4, -152(%rbp)
	.loc	45 235 44 is_stmt 0
	callq	__ZN19ab_glyph_rasterizer8geometry5Point11distance_to17h6505e194d9b5d1f8E
	movss	-152(%rbp), %xmm4
	movss	-148(%rbp), %xmm1
	movss	-132(%rbp), %xmm2
	movss	-128(%rbp), %xmm3
	movaps	%xmm0, %xmm5
	movss	-144(%rbp), %xmm0
	.loc	45 235 23
	addss	%xmm5, %xmm4
	movss	%xmm4, -140(%rbp)
	.loc	45 235 65
	callq	__ZN19ab_glyph_rasterizer8geometry5Point11distance_to17h6505e194d9b5d1f8E
	movss	-140(%rbp), %xmm4
	movss	-136(%rbp), %xmm1
	movss	-132(%rbp), %xmm2
	movss	-128(%rbp), %xmm3
	movaps	%xmm0, %xmm5
	movss	-124(%rbp), %xmm0
	.loc	45 235 23
	addss	%xmm5, %xmm4
	movss	%xmm4, -116(%rbp)
	movss	%xmm4, -60(%rbp)
Ltmp870:
	.loc	45 236 24 is_stmt 1
	callq	__ZN19ab_glyph_rasterizer8geometry5Point11distance_to17h6505e194d9b5d1f8E
	movb	-117(%rbp), %al
	movaps	%xmm0, %xmm1
	movss	-116(%rbp), %xmm0
	movss	%xmm1, -56(%rbp)
Ltmp871:
	.loc	45 237 32
	mulss	%xmm0, %xmm0
	.loc	45 237 52 is_stmt 0
	mulss	%xmm1, %xmm1
	.loc	45 237 32
	subss	%xmm1, %xmm0
	movss	%xmm0, -112(%rbp)
	movss	%xmm0, -52(%rbp)
Ltmp872:
	.loc	45 239 12 is_stmt 1
	cmpb	$16, %al
	jb	LBB101_2
	movb	$0, -105(%rbp)
	jmp	LBB101_3
LBB101_2:
	.loc	45 0 12 is_stmt 0
	movss	-112(%rbp), %xmm0
	.loc	45 239 39
	movss	LCPI101_0(%rip), %xmm1
	ucomiss	%xmm1, %xmm0
	seta	%al
	.loc	45 239 12
	andb	$1, %al
	movb	%al, -105(%rbp)
LBB101_3:
	testb	$1, -105(%rbp)
	jne	LBB101_5
	.loc	45 0 12
	movss	-128(%rbp), %xmm3
	movss	-132(%rbp), %xmm2
	movss	-136(%rbp), %xmm1
	movss	-124(%rbp), %xmm0
	movq	-168(%rbp), %rdi
	.loc	45 252 13 is_stmt 1
	callq	__ZN19ab_glyph_rasterizer6raster10Rasterizer9draw_line17hbdb790779823d7ddE
	jmp	LBB101_10
LBB101_5:
	.loc	45 0 13 is_stmt 0
	movss	-160(%rbp), %xmm4
	movss	-156(%rbp), %xmm3
	movss	-136(%rbp), %xmm2
	movss	-124(%rbp), %xmm1
	.loc	45 240 23 is_stmt 1
	movss	LCPI101_1(%rip), %xmm0
	callq	__ZN19ab_glyph_rasterizer8geometry4lerp17h08f6db8a84fb5d78E
	movss	-160(%rbp), %xmm2
	movss	-144(%rbp), %xmm3
	movss	-148(%rbp), %xmm4
	movaps	%xmm0, %xmm5
	movss	%xmm5, -216(%rbp)
	movaps	%xmm1, %xmm0
	movss	-156(%rbp), %xmm1
	movss	%xmm0, -220(%rbp)
	movss	%xmm5, -48(%rbp)
	movss	%xmm0, -44(%rbp)
Ltmp873:
	.loc	45 241 23
	movss	LCPI101_1(%rip), %xmm0
	callq	__ZN19ab_glyph_rasterizer8geometry4lerp17h08f6db8a84fb5d78E
	movss	-148(%rbp), %xmm2
	movss	-132(%rbp), %xmm3
	movss	-128(%rbp), %xmm4
	movaps	%xmm0, %xmm5
	movss	%xmm5, -200(%rbp)
	movaps	%xmm1, %xmm0
	movss	-144(%rbp), %xmm1
	movss	%xmm0, -212(%rbp)
	movss	%xmm5, -40(%rbp)
	movss	%xmm0, -36(%rbp)
Ltmp874:
	.loc	45 242 23
	movss	LCPI101_1(%rip), %xmm0
	callq	__ZN19ab_glyph_rasterizer8geometry4lerp17h08f6db8a84fb5d78E
	movss	-220(%rbp), %xmm2
	movss	-200(%rbp), %xmm3
	movss	-212(%rbp), %xmm4
	movaps	%xmm0, %xmm5
	movss	%xmm5, -208(%rbp)
	movaps	%xmm1, %xmm0
	movss	-216(%rbp), %xmm1
	movss	%xmm0, -204(%rbp)
	movss	%xmm5, -32(%rbp)
	movss	%xmm0, -28(%rbp)
Ltmp875:
	.loc	45 244 22
	movss	LCPI101_1(%rip), %xmm0
	callq	__ZN19ab_glyph_rasterizer8geometry4lerp17h08f6db8a84fb5d78E
	movss	-212(%rbp), %xmm2
	movss	-208(%rbp), %xmm3
	movss	-204(%rbp), %xmm4
	movaps	%xmm0, %xmm5
	movss	%xmm5, -188(%rbp)
	movaps	%xmm1, %xmm0
	movss	-200(%rbp), %xmm1
	movss	%xmm0, -196(%rbp)
	movss	%xmm5, -24(%rbp)
	movss	%xmm0, -20(%rbp)
Ltmp876:
	.loc	45 245 22
	movss	LCPI101_1(%rip), %xmm0
	callq	__ZN19ab_glyph_rasterizer8geometry4lerp17h08f6db8a84fb5d78E
	movss	-196(%rbp), %xmm2
	movaps	%xmm0, %xmm3
	movss	%xmm3, -192(%rbp)
	movaps	%xmm1, %xmm4
	movss	-188(%rbp), %xmm1
	movss	%xmm4, -184(%rbp)
	movss	%xmm3, -16(%rbp)
	movss	%xmm4, -12(%rbp)
Ltmp877:
	.loc	45 247 22
	movss	LCPI101_1(%rip), %xmm0
	callq	__ZN19ab_glyph_rasterizer8geometry4lerp17h08f6db8a84fb5d78E
	movb	-117(%rbp), %al
	movss	%xmm0, -180(%rbp)
	movss	%xmm1, -176(%rbp)
	movss	%xmm0, -8(%rbp)
	movss	%xmm1, -4(%rbp)
Ltmp878:
	.loc	45 249 51
	addb	$1, %al
	movb	%al, -169(%rbp)
	setb	%al
	testb	$1, %al
	jne	LBB101_7
	.loc	45 0 51 is_stmt 0
	movb	-169(%rbp), %al
	movss	-176(%rbp), %xmm7
	movss	-180(%rbp), %xmm6
	movss	-196(%rbp), %xmm5
	movss	-188(%rbp), %xmm4
	movss	-220(%rbp), %xmm3
	movss	-216(%rbp), %xmm2
	movss	-136(%rbp), %xmm1
	movss	-124(%rbp), %xmm0
	movq	-168(%rbp), %rdi
	.loc	45 249 13
	movzbl	%al, %esi
	callq	__ZN19ab_glyph_rasterizer6raster10Rasterizer15tesselate_cubic17h4366aa978131535eE
	movb	-117(%rbp), %al
	.loc	45 250 51 is_stmt 1
	addb	$1, %al
	movb	%al, -221(%rbp)
	setb	%al
	testb	$1, %al
	jne	LBB101_9
	jmp	LBB101_8
LBB101_7:
	.loc	45 249 51
	leaq	_str.2(%rip), %rdi
	leaq	l___unnamed_42(%rip), %rdx
	movl	$28, %esi
	callq	__ZN4core9panicking5panic17hc1bc45270cf64b03E
LBB101_8:
	.loc	45 0 51 is_stmt 0
	movb	-221(%rbp), %al
	movss	-128(%rbp), %xmm7
	movss	-132(%rbp), %xmm6
	movss	-204(%rbp), %xmm5
	movss	-208(%rbp), %xmm4
	movss	-184(%rbp), %xmm3
	movss	-192(%rbp), %xmm2
	movss	-176(%rbp), %xmm1
	movss	-180(%rbp), %xmm0
	movq	-168(%rbp), %rdi
	.loc	45 250 13 is_stmt 1
	movzbl	%al, %esi
	callq	__ZN19ab_glyph_rasterizer6raster10Rasterizer15tesselate_cubic17h4366aa978131535eE
	jmp	LBB101_10
LBB101_9:
	.loc	45 250 51 is_stmt 0
	leaq	_str.2(%rip), %rdi
	leaq	l___unnamed_43(%rip), %rdx
	movl	$28, %esi
	callq	__ZN4core9panicking5panic17hc1bc45270cf64b03E
Ltmp879:
LBB101_10:
	.loc	45 254 6 is_stmt 1
	addq	$224, %rsp
	popq	%rbp
	retq
Ltmp880:
Lfunc_end101:
	.cfi_endproc

	.globl	__ZN76_$LT$ab_glyph_rasterizer..raster..Rasterizer$u20$as$u20$core..fmt..Debug$GT$3fmt17h3e973165b4bf003bE
	.p2align	4, 0x90
__ZN76_$LT$ab_glyph_rasterizer..raster..Rasterizer$u20$as$u20$core..fmt..Debug$GT$3fmt17h3e973165b4bf003bE:
Lfunc_begin102:
	.loc	45 306 0
	.cfi_startproc
	pushq	%rbp
	.cfi_def_cfa_offset 16
	.cfi_offset %rbp, -16
	movq	%rsp, %rbp
	.cfi_def_cfa_register %rbp
	subq	$48, %rsp
	movq	%rdi, -40(%rbp)
	movq	%rdi, -16(%rbp)
	movq	%rsi, -8(%rbp)
Ltmp881:
	.loc	45 307 9 prologue_end
	leaq	-32(%rbp), %rdi
	leaq	l___unnamed_44(%rip), %rdx
	movl	$10, %ecx
	callq	__ZN4core3fmt9Formatter12debug_struct17hb330e0caa577ed3dE
	movq	-40(%rbp), %rcx
	leaq	-32(%rbp), %rdi
	leaq	l___unnamed_45(%rip), %rsi
	movl	$5, %edx
	leaq	l___unnamed_1(%rip), %r8
	callq	__ZN4core3fmt8builders11DebugStruct5field17h2147d02d385887f6E
	movq	-40(%rbp), %rcx
	movq	%rax, %rdi
	.loc	45 309 30
	addq	$8, %rcx
	.loc	45 307 9
	leaq	l___unnamed_46(%rip), %rsi
	movl	$6, %edx
	leaq	l___unnamed_1(%rip), %r8
	callq	__ZN4core3fmt8builders11DebugStruct5field17h2147d02d385887f6E
	movq	%rax, %rdi
	callq	__ZN4core3fmt8builders11DebugStruct6finish17h081d244274ea39b1E
	.loc	45 311 6
	andb	$1, %al
	movzbl	%al, %eax
	addq	$48, %rsp
	popq	%rbp
	retq
Ltmp882:
Lfunc_end102:
	.cfi_endproc

	.section	__TEXT,__literal4,4byte_literals
	.p2align	2
LCPI103_0:
	.long	0x34000000
LCPI103_1:
	.long	0xbf800000
LCPI103_2:
	.long	0x3f800000
LCPI103_3:
	.long	0x5f000000
LCPI103_4:
	.long	0x5f7fffff
LCPI103_5:
	.long	0x4effffff
LCPI103_6:
	.long	0x3f000000
LCPI103_7:
	.long	0x3fc00000
	.section	__TEXT,__text,regular,pure_instructions
	.p2align	4, 0x90
__ZN19ab_glyph_rasterizer6raster14draw_line_avx217h46a04995f399e6e9E:
Lfunc_begin103:
	.loc	45 316 0
	.cfi_startproc
	pushq	%rbp
	.cfi_def_cfa_offset 16
	.cfi_offset %rbp, -16
	movq	%rsp, %rbp
	.cfi_def_cfa_register %rbp
	subq	$656, %rsp
	movq	%rdi, -328(%rbp)
	vmovss	%xmm0, -320(%rbp)
	vmovss	%xmm1, -316(%rbp)
	vmovss	%xmm2, -312(%rbp)
	vmovss	%xmm3, -308(%rbp)
	movq	%rdi, -304(%rbp)
	vmovss	%xmm0, -296(%rbp)
	vmovss	%xmm1, -292(%rbp)
	vmovss	%xmm2, -288(%rbp)
	vmovss	%xmm3, -284(%rbp)
	movq	%rdi, -176(%rbp)
	vmovss	%xmm0, -168(%rbp)
	vmovss	%xmm1, -164(%rbp)
	vmovss	%xmm2, -160(%rbp)
	vmovss	%xmm3, -156(%rbp)
Ltmp883:
	.loc	45 122 12 prologue_end
	vsubss	%xmm3, %xmm1, %xmm0
	callq	__ZN3std3f3221_$LT$impl$u20$f32$GT$3abs17h76e5257c8c772a6eE
	vmovaps	%xmm0, %xmm1
	vmovss	LCPI103_0(%rip), %xmm0
	vucomiss	%xmm1, %xmm0
	jae	LBB103_57
	.loc	45 0 12 is_stmt 0
	vmovss	-308(%rbp), %xmm0
	vmovss	-316(%rbp), %xmm1
	.loc	45 125 32 is_stmt 1
	vucomiss	%xmm1, %xmm0
	ja	LBB103_3
	.loc	45 0 32 is_stmt 0
	vmovss	-316(%rbp), %xmm0
	vmovss	-320(%rbp), %xmm1
	vmovss	-308(%rbp), %xmm2
	vmovss	-312(%rbp), %xmm3
	.loc	45 128 13 is_stmt 1
	vmovss	LCPI103_1(%rip), %xmm4
	vmovss	%xmm4, -272(%rbp)
	vmovss	%xmm3, -280(%rbp)
	vmovss	%xmm2, -276(%rbp)
	vmovss	%xmm1, -268(%rbp)
	vmovss	%xmm0, -264(%rbp)
	.loc	45 125 29
	jmp	LBB103_4
LBB103_3:
	.loc	45 0 29 is_stmt 0
	vmovss	-308(%rbp), %xmm0
	vmovss	-312(%rbp), %xmm1
	vmovss	-316(%rbp), %xmm2
	vmovss	-320(%rbp), %xmm3
	.loc	45 126 13 is_stmt 1
	vmovss	LCPI103_2(%rip), %xmm4
	vmovss	%xmm4, -272(%rbp)
	vmovss	%xmm3, -280(%rbp)
	vmovss	%xmm2, -276(%rbp)
	vmovss	%xmm1, -268(%rbp)
	vmovss	%xmm0, -264(%rbp)
LBB103_4:
	.loc	45 125 14
	vmovss	-272(%rbp), %xmm0
	vmovss	%xmm0, -352(%rbp)
	vmovss	%xmm0, -148(%rbp)
	.loc	45 125 19 is_stmt 0
	vmovss	-280(%rbp), %xmm0
	vmovss	-276(%rbp), %xmm1
	vmovss	%xmm1, -348(%rbp)
	vmovss	%xmm0, -144(%rbp)
	vmovss	%xmm1, -140(%rbp)
	.loc	45 125 23
	vmovss	-268(%rbp), %xmm2
	vmovss	-264(%rbp), %xmm3
	vmovss	%xmm3, -344(%rbp)
	vmovss	%xmm2, -136(%rbp)
	vmovss	%xmm3, -132(%rbp)
Ltmp884:
	.loc	45 130 20 is_stmt 1
	vsubss	%xmm0, %xmm2, %xmm2
	.loc	45 130 36 is_stmt 0
	vsubss	%xmm1, %xmm3, %xmm3
	.loc	45 130 20
	vdivss	%xmm3, %xmm2, %xmm2
	vmovss	%xmm2, -340(%rbp)
	vmovss	%xmm2, -124(%rbp)
Ltmp885:
	.loc	45 131 21 is_stmt 1
	vmovss	%xmm0, -260(%rbp)
	vmovss	LCPI103_3(%rip), %xmm0
Ltmp886:
	.loc	45 132 18
	vsubss	%xmm0, %xmm1, %xmm0
	vcvttss2si	%xmm0, %rcx
	vmovaps	%xmm1, %xmm0
	vcvttss2si	%xmm0, %rax
	movq	%rax, %rdx
	sarq	$63, %rdx
	andq	%rdx, %rcx
	orq	%rcx, %rax
	xorl	%ecx, %ecx
	vxorps	%xmm0, %xmm0, %xmm0
	vucomiss	%xmm0, %xmm1
	cmovbq	%rcx, %rax
	vmovss	LCPI103_4(%rip), %xmm0
	vucomiss	%xmm0, %xmm1
	movq	$-1, %rcx
	cmovaq	%rcx, %rax
	movq	%rax, -336(%rbp)
	movq	%rax, -120(%rbp)
Ltmp887:
	.loc	45 133 12
	vxorps	%xmm0, %xmm0, %xmm0
	vucomiss	%xmm1, %xmm0
	ja	LBB103_6
LBB103_5:
	.loc	45 0 12 is_stmt 0
	vmovss	-344(%rbp), %xmm0
	movq	-328(%rbp), %rax
	.loc	45 136 22 is_stmt 1
	movq	8(%rax), %rax
	movq	%rax, -360(%rbp)
	.loc	45 136 38 is_stmt 0
	callq	__ZN3std3f3221_$LT$impl$u20$f32$GT$4ceil17hd307bee39d62bf3dE
	movq	-360(%rbp), %rdi
	vmovss	LCPI103_3(%rip), %xmm1
	vsubss	%xmm1, %xmm0, %xmm1
	vcvttss2si	%xmm1, %rax
	vmovaps	%xmm0, %xmm1
	vcvttss2si	%xmm1, %rsi
	movq	%rsi, %rcx
	sarq	$63, %rcx
	andq	%rcx, %rax
	orq	%rax, %rsi
	xorl	%eax, %eax
	vxorps	%xmm1, %xmm1, %xmm1
	vucomiss	%xmm1, %xmm0
	cmovbq	%rax, %rsi
	vmovss	LCPI103_4(%rip), %xmm1
	vucomiss	%xmm1, %xmm0
	movq	$-1, %rax
	cmovaq	%rax, %rsi
	.loc	45 136 22
	callq	__ZN4core3cmp3Ord3min17h08b3ed6b2afdbd1bE
	movq	-336(%rbp), %rcx
	.loc	45 136 18
	movq	%rcx, -256(%rbp)
	movq	%rax, -248(%rbp)
	movq	-256(%rbp), %rdi
	movq	-248(%rbp), %rsi
	callq	__ZN63_$LT$I$u20$as$u20$core..iter..traits..collect..IntoIterator$GT$9into_iter17hcd02363d0288a484E
	movq	%rax, -240(%rbp)
	movq	%rdx, -232(%rbp)
Ltmp888:
	.loc	45 136 9
	jmp	LBB103_7
Ltmp889:
LBB103_6:
	.loc	45 0 9
	vmovss	-348(%rbp), %xmm0
	vmovss	-340(%rbp), %xmm1
	.loc	45 134 18 is_stmt 1
	vmulss	%xmm1, %xmm0, %xmm1
	.loc	45 134 13 is_stmt 0
	vmovss	-260(%rbp), %xmm0
	vsubss	%xmm1, %xmm0, %xmm0
	vmovss	%xmm0, -260(%rbp)
	.loc	45 133 9 is_stmt 1
	jmp	LBB103_5
LBB103_7:
	.loc	45 0 9 is_stmt 0
	leaq	-240(%rbp), %rdi
Ltmp890:
	.loc	45 136 18 is_stmt 1
	callq	__ZN4core4iter5range101_$LT$impl$u20$core..iter..traits..iterator..Iterator$u20$for$u20$core..ops..range..Range$LT$A$GT$$GT$4next17h9cdbd81401b9c075E
	movq	%rdx, -216(%rbp)
	movq	%rax, -224(%rbp)
	cmpq	$0, -224(%rbp)
	je	LBB103_57
	.loc	45 0 18 is_stmt 0
	movq	-328(%rbp), %rcx
	.loc	45 136 13
	movq	-216(%rbp), %rax
	movq	%rax, -376(%rbp)
	movq	%rax, -112(%rbp)
Ltmp891:
	.loc	45 137 29 is_stmt 1
	mulq	(%rcx)
	movq	%rax, -368(%rbp)
	seto	%al
	testb	$1, %al
	jne	LBB103_10
	.loc	45 0 29 is_stmt 0
	movq	-376(%rbp), %rax
	movq	-368(%rbp), %rcx
	.loc	45 137 29
	movq	%rcx, -104(%rbp)
Ltmp892:
	.loc	45 138 23 is_stmt 1
	addq	$1, %rax
	movq	%rax, -384(%rbp)
	setb	%al
	testb	$1, %al
	jne	LBB103_12
	jmp	LBB103_11
Ltmp893:
LBB103_10:
	.loc	45 137 29
	leaq	_str.1(%rip), %rdi
	leaq	l___unnamed_15(%rip), %rdx
	movl	$33, %esi
	callq	__ZN4core9panicking5panic17hc1bc45270cf64b03E
LBB103_11:
	.loc	45 0 29 is_stmt 0
	movq	-384(%rbp), %rax
Ltmp894:
	.loc	45 138 22 is_stmt 1
	vcvtsi2ss	%rax, %xmm0, %xmm0
	vmovss	%xmm0, -392(%rbp)
	movq	%rax, %rdx
	shrq	%rdx
	movl	%eax, %ecx
	andl	$1, %ecx
	orq	%rdx, %rcx
	vcvtsi2ss	%rcx, %xmm0, %xmm0
	vaddss	%xmm0, %xmm0, %xmm0
	testq	%rax, %rax
	vmovss	%xmm0, -388(%rbp)
	js	LBB103_59
	.loc	45 0 22 is_stmt 0
	vmovss	-392(%rbp), %xmm0
	vmovss	%xmm0, -388(%rbp)
LBB103_59:
	vmovss	-344(%rbp), %xmm1
	vmovss	-388(%rbp), %xmm0
	.loc	45 138 22
	callq	__ZN4core3f3221_$LT$impl$u20$f32$GT$3min17he1460c8797fbd2feE
	movq	-376(%rbp), %rax
	vmovss	%xmm0, -404(%rbp)
	.loc	45 138 51
	vcvtsi2ss	%rax, %xmm0, %xmm0
	vmovss	%xmm0, -400(%rbp)
	movq	%rax, %rdx
	shrq	%rdx
	movl	%eax, %ecx
	andl	$1, %ecx
	orq	%rdx, %rcx
	vcvtsi2ss	%rcx, %xmm0, %xmm0
	vaddss	%xmm0, %xmm0, %xmm0
	testq	%rax, %rax
	vmovss	%xmm0, -396(%rbp)
	js	LBB103_61
	.loc	45 0 51
	vmovss	-400(%rbp), %xmm0
	vmovss	%xmm0, -396(%rbp)
LBB103_61:
	vmovss	-348(%rbp), %xmm1
	vmovss	-396(%rbp), %xmm0
	.loc	45 138 51
	callq	__ZN4core3f3221_$LT$impl$u20$f32$GT$3max17he2ca4cdc8e77fa1cE
	vmovss	-340(%rbp), %xmm3
	vmovss	-352(%rbp), %xmm2
	vmovaps	%xmm0, %xmm1
	vmovss	-404(%rbp), %xmm0
	.loc	45 138 22
	vsubss	%xmm1, %xmm0, %xmm1
	vmovss	%xmm1, -96(%rbp)
Ltmp895:
	.loc	45 139 25 is_stmt 1
	vmovss	-260(%rbp), %xmm0
	.loc	45 139 29 is_stmt 0
	vmulss	%xmm1, %xmm3, %xmm3
	.loc	45 139 25
	vaddss	%xmm3, %xmm0, %xmm0
	vmovss	%xmm0, -412(%rbp)
	vmovss	%xmm0, -92(%rbp)
Ltmp896:
	.loc	45 140 21 is_stmt 1
	vmulss	%xmm2, %xmm1, %xmm1
	vmovss	%xmm1, -408(%rbp)
	vmovss	%xmm1, -88(%rbp)
Ltmp897:
	.loc	45 141 31
	vucomiss	-260(%rbp), %xmm0
	ja	LBB103_14
	jmp	LBB103_13
Ltmp898:
LBB103_12:
	.loc	45 138 23
	leaq	_str.2(%rip), %rdi
	leaq	l___unnamed_16(%rip), %rdx
	movl	$28, %esi
	callq	__ZN4core9panicking5panic17hc1bc45270cf64b03E
LBB103_13:
	.loc	45 0 23 is_stmt 0
	vmovss	-412(%rbp), %xmm1
Ltmp899:
	.loc	45 141 71 is_stmt 1
	vmovss	-260(%rbp), %xmm0
	.loc	45 141 63 is_stmt 0
	vmovss	%xmm1, -208(%rbp)
	vmovss	%xmm0, -204(%rbp)
	.loc	45 141 28
	jmp	LBB103_15
LBB103_14:
	.loc	45 0 28
	vmovss	-412(%rbp), %xmm0
	.loc	45 141 44
	vmovss	-260(%rbp), %xmm1
	.loc	45 141 43
	vmovss	%xmm1, -208(%rbp)
	vmovss	%xmm0, -204(%rbp)
LBB103_15:
	.loc	45 141 18
	vmovss	-208(%rbp), %xmm0
	vmovss	%xmm0, -440(%rbp)
	vmovss	%xmm0, -84(%rbp)
	.loc	45 141 22
	vmovss	-204(%rbp), %xmm1
	vmovss	%xmm1, -436(%rbp)
	vmovss	%xmm1, -80(%rbp)
Ltmp900:
	.loc	45 142 27 is_stmt 1
	callq	__ZN3std3f3221_$LT$impl$u20$f32$GT$5floor17h31e619b069bc1746E
	vmovaps	%xmm0, %xmm1
	vmovss	-436(%rbp), %xmm0
	vmovss	%xmm1, -432(%rbp)
	vmovss	%xmm1, -76(%rbp)
Ltmp901:
	.loc	45 143 23
	vcvttss2si	%xmm1, %eax
	vmovss	LCPI103_5(%rip), %xmm2
	vucomiss	%xmm2, %xmm1
	movl	$2147483647, %ecx
	cmoval	%ecx, %eax
	xorl	%ecx, %ecx
	vucomiss	%xmm1, %xmm1
	cmovpl	%ecx, %eax
	movl	%eax, -428(%rbp)
	movl	%eax, -72(%rbp)
Ltmp902:
	.loc	45 144 26
	callq	__ZN3std3f3221_$LT$impl$u20$f32$GT$4ceil17hd307bee39d62bf3dE
	movl	-428(%rbp), %eax
	vmovss	%xmm0, -424(%rbp)
	vmovss	%xmm0, -68(%rbp)
Ltmp903:
	.loc	45 145 23
	vcvttss2si	%xmm0, %ecx
	vmovss	LCPI103_5(%rip), %xmm1
	vucomiss	%xmm1, %xmm0
	movl	$2147483647, %edx
	cmoval	%edx, %ecx
	xorl	%edx, %edx
	vucomiss	%xmm0, %xmm0
	cmovpl	%edx, %ecx
	movl	%ecx, -420(%rbp)
	movl	%ecx, -64(%rbp)
Ltmp904:
	.loc	45 146 23
	incl	%eax
	movl	%eax, -416(%rbp)
	seto	%al
	testb	$1, %al
	jne	LBB103_17
	.loc	45 0 23 is_stmt 0
	movl	-420(%rbp), %eax
	movl	-416(%rbp), %ecx
	.loc	45 146 16
	cmpl	%ecx, %eax
	jle	LBB103_19
	jmp	LBB103_18
LBB103_17:
	.loc	45 146 23
	leaq	_str.2(%rip), %rdi
	leaq	l___unnamed_17(%rip), %rdx
	movl	$28, %esi
	callq	__ZN4core9panicking5panic17hc1bc45270cf64b03E
LBB103_18:
	.loc	45 0 23
	vmovss	-436(%rbp), %xmm0
	vmovss	-440(%rbp), %xmm1
	.loc	45 155 25 is_stmt 1
	vsubss	%xmm1, %xmm0, %xmm0
	callq	__ZN4core3f3221_$LT$impl$u20$f32$GT$5recip17hd0448c12e2481782E
	vmovss	-432(%rbp), %xmm4
	vmovss	-440(%rbp), %xmm3
	vmovss	-424(%rbp), %xmm1
	movl	-428(%rbp), %ecx
	movq	-368(%rbp), %rax
	vmovaps	%xmm0, %xmm2
	vmovss	-436(%rbp), %xmm0
	vmovss	%xmm2, -464(%rbp)
	vmovss	%xmm2, -44(%rbp)
Ltmp905:
	.loc	45 156 27
	vsubss	%xmm4, %xmm3, %xmm5
	vmovss	%xmm5, -460(%rbp)
	vmovss	%xmm5, -40(%rbp)
Ltmp906:
	.loc	45 157 26
	vmovss	LCPI103_6(%rip), %xmm3
	vmulss	%xmm2, %xmm3, %xmm3
	.loc	45 157 36 is_stmt 0
	vmovss	LCPI103_2(%rip), %xmm4
	vsubss	%xmm5, %xmm4, %xmm4
	.loc	45 157 26
	vmulss	%xmm4, %xmm3, %xmm3
	.loc	45 157 50
	vmovss	LCPI103_2(%rip), %xmm4
	vsubss	%xmm5, %xmm4, %xmm4
	.loc	45 157 26
	vmulss	%xmm4, %xmm3, %xmm3
	vmovss	%xmm3, -456(%rbp)
	vmovss	%xmm3, -36(%rbp)
Ltmp907:
	.loc	45 158 27 is_stmt 1
	vsubss	%xmm1, %xmm0, %xmm0
	vmovss	LCPI103_2(%rip), %xmm1
	vaddss	%xmm1, %xmm0, %xmm1
	vmovss	%xmm1, -32(%rbp)
Ltmp908:
	.loc	45 159 26
	vmovss	LCPI103_6(%rip), %xmm0
	vmulss	%xmm2, %xmm0, %xmm0
	vmulss	%xmm1, %xmm0, %xmm0
	vmulss	%xmm1, %xmm0, %xmm0
	vmovss	%xmm0, -452(%rbp)
	vmovss	%xmm0, -28(%rbp)
Ltmp909:
	.loc	45 160 58
	movslq	%ecx, %rcx
	.loc	45 160 37 is_stmt 0
	addq	%rcx, %rax
	movq	%rax, -448(%rbp)
	seto	%al
	testb	$1, %al
	jne	LBB103_27
	jmp	LBB103_26
Ltmp910:
LBB103_19:
	.loc	45 0 37
	movq	-368(%rbp), %rax
	movl	-428(%rbp), %ecx
	vmovss	-432(%rbp), %xmm1
	vmovss	-412(%rbp), %xmm0
	.loc	45 147 33 is_stmt 1
	vaddss	-260(%rbp), %xmm0, %xmm2
	.loc	45 147 27 is_stmt 0
	vmovss	LCPI103_6(%rip), %xmm0
	vmulss	%xmm2, %xmm0, %xmm0
	vsubss	%xmm1, %xmm0, %xmm0
	vmovss	%xmm0, -476(%rbp)
	vmovss	%xmm0, -60(%rbp)
Ltmp911:
	.loc	45 148 58 is_stmt 1
	movslq	%ecx, %rcx
	.loc	45 148 37 is_stmt 0
	addq	%rcx, %rax
	movq	%rax, -472(%rbp)
	seto	%al
	testb	$1, %al
	jne	LBB103_21
	.loc	45 0 37
	movq	-472(%rbp), %rax
	.loc	45 148 37
	movq	%rax, -56(%rbp)
Ltmp912:
	.loc	45 149 20 is_stmt 1
	cmpq	$0, %rax
	jl	LBB103_7
	jmp	LBB103_22
Ltmp913:
LBB103_21:
	.loc	45 148 37
	leaq	_str.2(%rip), %rdi
	leaq	l___unnamed_18(%rip), %rdx
	movl	$28, %esi
	callq	__ZN4core9panicking5panic17hc1bc45270cf64b03E
LBB103_22:
	.loc	45 0 37 is_stmt 0
	movq	-472(%rbp), %rsi
	movq	-328(%rbp), %rdi
	vmovss	-408(%rbp), %xmm0
	vmovss	-476(%rbp), %xmm1
Ltmp914:
	.loc	45 152 55 is_stmt 1
	vmulss	%xmm1, %xmm0, %xmm1
	.loc	45 152 51 is_stmt 0
	vsubss	%xmm1, %xmm0, %xmm0
	vmovss	%xmm0, -504(%rbp)
	.loc	45 152 17
	addq	$16, %rdi
	leaq	l___unnamed_19(%rip), %rdx
	callq	__ZN84_$LT$alloc..vec..Vec$LT$T$C$A$GT$$u20$as$u20$core..ops..index..IndexMut$LT$I$GT$$GT$9index_mut17h0c906eb76f318a94E
	vmovss	-504(%rbp), %xmm2
	vmovss	-476(%rbp), %xmm1
	vmovss	-408(%rbp), %xmm0
	movq	-328(%rbp), %rcx
	movq	%rax, %rdx
	movq	-472(%rbp), %rax
	vaddss	(%rdx), %xmm2, %xmm2
	vmovss	%xmm2, (%rdx)
	.loc	45 153 55 is_stmt 1
	vmulss	%xmm1, %xmm0, %xmm0
	vmovss	%xmm0, -500(%rbp)
	.loc	45 153 17 is_stmt 0
	addq	$16, %rcx
	movq	%rcx, -496(%rbp)
	.loc	45 153 24
	addq	$1, %rax
	movq	%rax, -488(%rbp)
	setb	%al
	testb	$1, %al
	jne	LBB103_24
	.loc	45 0 24
	movq	-488(%rbp), %rsi
	movq	-496(%rbp), %rdi
	.loc	45 153 17
	leaq	l___unnamed_20(%rip), %rdx
	callq	__ZN84_$LT$alloc..vec..Vec$LT$T$C$A$GT$$u20$as$u20$core..ops..index..IndexMut$LT$I$GT$$GT$9index_mut17h0c906eb76f318a94E
	vmovss	-500(%rbp), %xmm0
	vaddss	(%rax), %xmm0, %xmm0
	vmovss	%xmm0, (%rax)
Ltmp915:
	.loc	45 146 13 is_stmt 1
	jmp	LBB103_25
LBB103_24:
Ltmp916:
	.loc	45 153 24
	leaq	_str.2(%rip), %rdi
	leaq	l___unnamed_21(%rip), %rdx
	movl	$28, %esi
	callq	__ZN4core9panicking5panic17hc1bc45270cf64b03E
Ltmp917:
LBB103_25:
	.loc	45 0 24 is_stmt 0
	vmovss	-412(%rbp), %xmm0
	.loc	45 178 13 is_stmt 1
	vmovss	%xmm0, -260(%rbp)
Ltmp918:
	.loc	45 136 9
	jmp	LBB103_7
LBB103_26:
	.loc	45 0 9 is_stmt 0
	movq	-448(%rbp), %rax
Ltmp919:
	.loc	45 160 37 is_stmt 1
	movq	%rax, -24(%rbp)
Ltmp920:
	.loc	45 161 20
	cmpq	$0, %rax
	jl	LBB103_7
	jmp	LBB103_28
Ltmp921:
LBB103_27:
	.loc	45 160 37
	leaq	_str.2(%rip), %rdi
	leaq	l___unnamed_22(%rip), %rdx
	movl	$28, %esi
	callq	__ZN4core9panicking5panic17hc1bc45270cf64b03E
LBB103_28:
	.loc	45 0 37 is_stmt 0
	movq	-448(%rbp), %rsi
	movq	-328(%rbp), %rdi
	vmovss	-408(%rbp), %xmm0
	vmovss	-456(%rbp), %xmm1
Ltmp922:
	.loc	45 164 51 is_stmt 1
	vmulss	%xmm1, %xmm0, %xmm0
	vmovss	%xmm0, -512(%rbp)
	.loc	45 164 17 is_stmt 0
	addq	$16, %rdi
	leaq	l___unnamed_23(%rip), %rdx
	callq	__ZN84_$LT$alloc..vec..Vec$LT$T$C$A$GT$$u20$as$u20$core..ops..index..IndexMut$LT$I$GT$$GT$9index_mut17h0c906eb76f318a94E
	vmovss	-512(%rbp), %xmm0
	movq	%rax, %rcx
	movl	-428(%rbp), %eax
	vaddss	(%rcx), %xmm0, %xmm0
	vmovss	%xmm0, (%rcx)
	.loc	45 165 27 is_stmt 1
	addl	$2, %eax
	movl	%eax, -508(%rbp)
	seto	%al
	testb	$1, %al
	jne	LBB103_30
	.loc	45 0 27 is_stmt 0
	movl	-420(%rbp), %eax
	movl	-508(%rbp), %ecx
	.loc	45 165 20
	cmpl	%ecx, %eax
	je	LBB103_32
	jmp	LBB103_31
LBB103_30:
	.loc	45 165 27
	leaq	_str.2(%rip), %rdi
	leaq	l___unnamed_24(%rip), %rdx
	movl	$28, %esi
	callq	__ZN4core9panicking5panic17hc1bc45270cf64b03E
LBB103_31:
	.loc	45 0 27
	movq	-448(%rbp), %rax
	movq	-328(%rbp), %rcx
	vmovss	-408(%rbp), %xmm0
	vmovss	-456(%rbp), %xmm2
	vmovss	-464(%rbp), %xmm1
	vmovss	-460(%rbp), %xmm4
	.loc	45 168 34 is_stmt 1
	vmovss	LCPI103_7(%rip), %xmm3
	vsubss	%xmm4, %xmm3, %xmm3
	.loc	45 168 30 is_stmt 0
	vmulss	%xmm3, %xmm1, %xmm1
	vmovss	%xmm1, -536(%rbp)
	vmovss	%xmm1, -12(%rbp)
Ltmp923:
	.loc	45 169 63 is_stmt 1
	vsubss	%xmm2, %xmm1, %xmm1
	.loc	45 169 59 is_stmt 0
	vmulss	%xmm1, %xmm0, %xmm0
	vmovss	%xmm0, -532(%rbp)
	.loc	45 169 21
	addq	$16, %rcx
	movq	%rcx, -528(%rbp)
	.loc	45 169 28
	addq	$1, %rax
	movq	%rax, -520(%rbp)
	setb	%al
	testb	$1, %al
	jne	LBB103_37
	jmp	LBB103_36
Ltmp924:
LBB103_32:
	.loc	45 0 28
	movq	-448(%rbp), %rax
	movq	-328(%rbp), %rcx
	vmovss	-408(%rbp), %xmm0
	vmovss	-452(%rbp), %xmm2
	vmovss	-456(%rbp), %xmm3
	.loc	45 166 64 is_stmt 1
	vmovss	LCPI103_2(%rip), %xmm1
	vsubss	%xmm3, %xmm1, %xmm1
	.loc	45 166 63 is_stmt 0
	vsubss	%xmm2, %xmm1, %xmm1
	.loc	45 166 59
	vmulss	%xmm1, %xmm0, %xmm0
	vmovss	%xmm0, -556(%rbp)
	.loc	45 166 21
	addq	$16, %rcx
	movq	%rcx, -552(%rbp)
	.loc	45 166 28
	addq	$1, %rax
	movq	%rax, -544(%rbp)
	setb	%al
	testb	$1, %al
	jne	LBB103_34
	.loc	45 0 28
	movq	-544(%rbp), %rsi
	movq	-552(%rbp), %rdi
	.loc	45 166 21
	leaq	l___unnamed_25(%rip), %rdx
	callq	__ZN84_$LT$alloc..vec..Vec$LT$T$C$A$GT$$u20$as$u20$core..ops..index..IndexMut$LT$I$GT$$GT$9index_mut17h0c906eb76f318a94E
	vmovss	-556(%rbp), %xmm0
	vaddss	(%rax), %xmm0, %xmm0
	vmovss	%xmm0, (%rax)
	.loc	45 165 17 is_stmt 1
	jmp	LBB103_35
LBB103_34:
	.loc	45 166 28
	leaq	_str.2(%rip), %rdi
	leaq	l___unnamed_26(%rip), %rdx
	movl	$28, %esi
	callq	__ZN4core9panicking5panic17hc1bc45270cf64b03E
LBB103_35:
	.loc	45 0 28 is_stmt 0
	movq	-368(%rbp), %rax
	movl	-420(%rbp), %ecx
	movq	-328(%rbp), %rdx
	vmovss	-408(%rbp), %xmm0
	vmovss	-452(%rbp), %xmm1
	.loc	45 176 53 is_stmt 1
	vmulss	%xmm1, %xmm0, %xmm0
	vmovss	%xmm0, -580(%rbp)
	.loc	45 176 17 is_stmt 0
	addq	$16, %rdx
	movq	%rdx, -576(%rbp)
	.loc	45 176 36
	movslq	%ecx, %rcx
	.loc	45 176 24
	addq	%rcx, %rax
	movq	%rax, -568(%rbp)
	setb	%al
	testb	$1, %al
	jne	LBB103_56
	jmp	LBB103_55
LBB103_36:
	.loc	45 0 24
	movq	-520(%rbp), %rsi
	movq	-528(%rbp), %rdi
Ltmp925:
	.loc	45 169 21 is_stmt 1
	leaq	l___unnamed_27(%rip), %rdx
	callq	__ZN84_$LT$alloc..vec..Vec$LT$T$C$A$GT$$u20$as$u20$core..ops..index..IndexMut$LT$I$GT$$GT$9index_mut17h0c906eb76f318a94E
	vmovss	-532(%rbp), %xmm0
	movq	%rax, %rcx
	movl	-428(%rbp), %eax
	vaddss	(%rcx), %xmm0, %xmm0
	vmovss	%xmm0, (%rcx)
	.loc	45 170 31
	addl	$2, %eax
	movl	%eax, -584(%rbp)
	seto	%al
	testb	$1, %al
	jne	LBB103_39
	jmp	LBB103_38
LBB103_37:
	.loc	45 169 28
	leaq	_str.2(%rip), %rdi
	leaq	l___unnamed_28(%rip), %rdx
	movl	$28, %esi
	callq	__ZN4core9panicking5panic17hc1bc45270cf64b03E
LBB103_38:
	.loc	45 0 28 is_stmt 0
	movl	-420(%rbp), %eax
	.loc	45 170 40 is_stmt 1
	decl	%eax
	movl	%eax, -588(%rbp)
	seto	%al
	testb	$1, %al
	jne	LBB103_41
	jmp	LBB103_40
LBB103_39:
	.loc	45 170 31 is_stmt 0
	leaq	_str.2(%rip), %rdi
	leaq	l___unnamed_29(%rip), %rdx
	movl	$28, %esi
	callq	__ZN4core9panicking5panic17hc1bc45270cf64b03E
LBB103_40:
	.loc	45 0 31
	movl	-588(%rbp), %eax
	movl	-584(%rbp), %ecx
	.loc	45 170 31
	movl	%ecx, -200(%rbp)
	movl	%eax, -196(%rbp)
	movl	-200(%rbp), %edi
	movl	-196(%rbp), %esi
	callq	__ZN63_$LT$I$u20$as$u20$core..iter..traits..collect..IntoIterator$GT$9into_iter17h96bfbdb47885f99cE
	movl	%eax, -192(%rbp)
	movl	%edx, -188(%rbp)
Ltmp926:
	.loc	45 170 21
	jmp	LBB103_42
Ltmp927:
LBB103_41:
	.loc	45 170 40
	leaq	_str.3(%rip), %rdi
	leaq	l___unnamed_30(%rip), %rdx
	movl	$33, %esi
	callq	__ZN4core9panicking5panic17hc1bc45270cf64b03E
LBB103_42:
	.loc	45 0 40
	leaq	-192(%rbp), %rdi
Ltmp928:
	.loc	45 170 31
	callq	__ZN4core4iter5range101_$LT$impl$u20$core..iter..traits..iterator..Iterator$u20$for$u20$core..ops..range..Range$LT$A$GT$$GT$4next17h880630df7290efceE
	movl	%edx, -180(%rbp)
	movl	%eax, -184(%rbp)
	movl	-184(%rbp), %eax
	cmpq	$0, %rax
	jne	LBB103_44
Ltmp929:
	.loc	45 0 31
	movl	-428(%rbp), %ecx
	movl	-420(%rbp), %eax
	.loc	45 173 36 is_stmt 1
	subl	%ecx, %eax
	movl	%eax, -592(%rbp)
	seto	%al
	testb	$1, %al
	jne	LBB103_48
	jmp	LBB103_47
LBB103_44:
	.loc	45 0 36 is_stmt 0
	movq	-368(%rbp), %rax
	movq	-328(%rbp), %rdx
	vmovss	-408(%rbp), %xmm0
	vmovss	-464(%rbp), %xmm1
Ltmp930:
	.loc	45 170 25 is_stmt 1
	movl	-180(%rbp), %ecx
	movl	%ecx, -8(%rbp)
Ltmp931:
	.loc	45 171 60
	vmulss	%xmm1, %xmm0, %xmm0
	vmovss	%xmm0, -612(%rbp)
	.loc	45 171 25 is_stmt 0
	addq	$16, %rdx
	movq	%rdx, -608(%rbp)
	.loc	45 171 44
	movslq	%ecx, %rcx
	.loc	45 171 32
	addq	%rcx, %rax
	movq	%rax, -600(%rbp)
	setb	%al
	testb	$1, %al
	jne	LBB103_46
	.loc	45 0 32
	movq	-600(%rbp), %rsi
	movq	-608(%rbp), %rdi
	.loc	45 171 25
	leaq	l___unnamed_31(%rip), %rdx
	callq	__ZN84_$LT$alloc..vec..Vec$LT$T$C$A$GT$$u20$as$u20$core..ops..index..IndexMut$LT$I$GT$$GT$9index_mut17h0c906eb76f318a94E
	vmovss	-612(%rbp), %xmm0
	vaddss	(%rax), %xmm0, %xmm0
	vmovss	%xmm0, (%rax)
Ltmp932:
	.loc	45 170 21 is_stmt 1
	jmp	LBB103_42
LBB103_46:
Ltmp933:
	.loc	45 171 32
	leaq	_str.2(%rip), %rdi
	leaq	l___unnamed_32(%rip), %rdx
	movl	$28, %esi
	callq	__ZN4core9panicking5panic17hc1bc45270cf64b03E
Ltmp934:
LBB103_47:
	.loc	45 0 32 is_stmt 0
	movl	-592(%rbp), %eax
	.loc	45 173 35 is_stmt 1
	subl	$3, %eax
	movl	%eax, -616(%rbp)
	seto	%al
	testb	$1, %al
	jne	LBB103_50
	jmp	LBB103_49
LBB103_48:
	.loc	45 173 36 is_stmt 0
	leaq	_str.3(%rip), %rdi
	leaq	l___unnamed_33(%rip), %rdx
	movl	$33, %esi
	callq	__ZN4core9panicking5panic17hc1bc45270cf64b03E
LBB103_49:
	.loc	45 0 36
	movl	-420(%rbp), %eax
	movq	-328(%rbp), %rcx
	vmovss	-408(%rbp), %xmm0
	vmovss	-452(%rbp), %xmm2
	vmovss	-536(%rbp), %xmm1
	vmovss	-464(%rbp), %xmm4
	movl	-616(%rbp), %edx
	.loc	45 173 35
	vcvtsi2ss	%edx, %xmm3, %xmm3
	vmulss	%xmm4, %xmm3, %xmm3
	.loc	45 173 30
	vaddss	%xmm3, %xmm1, %xmm3
	vmovss	%xmm3, -4(%rbp)
Ltmp935:
	.loc	45 174 68 is_stmt 1
	vmovss	LCPI103_2(%rip), %xmm1
	vsubss	%xmm3, %xmm1, %xmm1
	.loc	45 174 67 is_stmt 0
	vsubss	%xmm2, %xmm1, %xmm1
	.loc	45 174 63
	vmulss	%xmm1, %xmm0, %xmm0
	vmovss	%xmm0, -636(%rbp)
	.loc	45 174 21
	addq	$16, %rcx
	movq	%rcx, -632(%rbp)
	.loc	45 174 40
	decl	%eax
	movl	%eax, -620(%rbp)
	seto	%al
	testb	$1, %al
	jne	LBB103_52
	jmp	LBB103_51
Ltmp936:
LBB103_50:
	.loc	45 173 35 is_stmt 1
	leaq	_str.3(%rip), %rdi
	leaq	l___unnamed_34(%rip), %rdx
	movl	$33, %esi
	callq	__ZN4core9panicking5panic17hc1bc45270cf64b03E
LBB103_51:
	.loc	45 0 35 is_stmt 0
	movq	-368(%rbp), %rax
	movl	-620(%rbp), %ecx
Ltmp937:
	.loc	45 174 40 is_stmt 1
	movslq	%ecx, %rcx
	.loc	45 174 28 is_stmt 0
	addq	%rcx, %rax
	movq	%rax, -648(%rbp)
	setb	%al
	testb	$1, %al
	jne	LBB103_54
	jmp	LBB103_53
LBB103_52:
	.loc	45 174 40
	leaq	_str.3(%rip), %rdi
	leaq	l___unnamed_35(%rip), %rdx
	movl	$33, %esi
	callq	__ZN4core9panicking5panic17hc1bc45270cf64b03E
LBB103_53:
	.loc	45 0 40
	movq	-648(%rbp), %rsi
	movq	-632(%rbp), %rdi
	.loc	45 174 21
	leaq	l___unnamed_36(%rip), %rdx
	callq	__ZN84_$LT$alloc..vec..Vec$LT$T$C$A$GT$$u20$as$u20$core..ops..index..IndexMut$LT$I$GT$$GT$9index_mut17h0c906eb76f318a94E
	vmovss	-636(%rbp), %xmm0
	vaddss	(%rax), %xmm0, %xmm0
	vmovss	%xmm0, (%rax)
Ltmp938:
	.loc	45 165 17 is_stmt 1
	jmp	LBB103_35
LBB103_54:
Ltmp939:
	.loc	45 174 28
	leaq	_str.2(%rip), %rdi
	leaq	l___unnamed_37(%rip), %rdx
	movl	$28, %esi
	callq	__ZN4core9panicking5panic17hc1bc45270cf64b03E
Ltmp940:
LBB103_55:
	.loc	45 0 28 is_stmt 0
	movq	-568(%rbp), %rsi
	movq	-576(%rbp), %rdi
	.loc	45 176 17 is_stmt 1
	leaq	l___unnamed_38(%rip), %rdx
	callq	__ZN84_$LT$alloc..vec..Vec$LT$T$C$A$GT$$u20$as$u20$core..ops..index..IndexMut$LT$I$GT$$GT$9index_mut17h0c906eb76f318a94E
	vmovss	-580(%rbp), %xmm0
	vaddss	(%rax), %xmm0, %xmm0
	vmovss	%xmm0, (%rax)
Ltmp941:
	.loc	45 146 13
	jmp	LBB103_25
LBB103_56:
Ltmp942:
	.loc	45 176 24
	leaq	_str.2(%rip), %rdi
	leaq	l___unnamed_39(%rip), %rdx
	movl	$28, %esi
	callq	__ZN4core9panicking5panic17hc1bc45270cf64b03E
Ltmp943:
LBB103_57:
	.loc	45 318 2
	addq	$656, %rsp
	popq	%rbp
	retq
Ltmp944:
Lfunc_end103:
	.cfi_endproc

	.section	__TEXT,__literal4,4byte_literals
	.p2align	2
LCPI104_0:
	.long	0x34000000
LCPI104_1:
	.long	0xbf800000
LCPI104_2:
	.long	0x3f800000
LCPI104_3:
	.long	0x5f000000
LCPI104_4:
	.long	0x5f7fffff
LCPI104_5:
	.long	0x4effffff
LCPI104_6:
	.long	0x3f000000
LCPI104_7:
	.long	0x3fc00000
	.section	__TEXT,__text,regular,pure_instructions
	.p2align	4, 0x90
__ZN19ab_glyph_rasterizer6raster16draw_line_sse4_217h1f985beb4526fbe0E:
Lfunc_begin104:
	.loc	45 322 0
	.cfi_startproc
	pushq	%rbp
	.cfi_def_cfa_offset 16
	.cfi_offset %rbp, -16
	movq	%rsp, %rbp
	.cfi_def_cfa_register %rbp
	subq	$656, %rsp
	movss	%xmm1, -332(%rbp)
	movaps	%xmm0, %xmm1
	movss	-332(%rbp), %xmm0
	movq	%rdi, -328(%rbp)
	movss	%xmm1, -320(%rbp)
	movss	%xmm0, -316(%rbp)
	movss	%xmm2, -312(%rbp)
	movss	%xmm3, -308(%rbp)
	movq	%rdi, -304(%rbp)
	movss	%xmm1, -296(%rbp)
	movss	%xmm0, -292(%rbp)
	movss	%xmm2, -288(%rbp)
	movss	%xmm3, -284(%rbp)
	movq	%rdi, -176(%rbp)
	movss	%xmm1, -168(%rbp)
	movss	%xmm0, -164(%rbp)
	movss	%xmm2, -160(%rbp)
	movss	%xmm3, -156(%rbp)
Ltmp945:
	.loc	45 122 12 prologue_end
	subss	%xmm3, %xmm0
	callq	__ZN3std3f3221_$LT$impl$u20$f32$GT$3abs17h76e5257c8c772a6eE
	movaps	%xmm0, %xmm1
	movss	LCPI104_0(%rip), %xmm0
	ucomiss	%xmm1, %xmm0
	jae	LBB104_57
	.loc	45 0 12 is_stmt 0
	movss	-308(%rbp), %xmm0
	movss	-316(%rbp), %xmm1
	.loc	45 125 32 is_stmt 1
	ucomiss	%xmm1, %xmm0
	ja	LBB104_3
	.loc	45 0 32 is_stmt 0
	movss	-316(%rbp), %xmm0
	movss	-320(%rbp), %xmm1
	movss	-308(%rbp), %xmm2
	movss	-312(%rbp), %xmm3
	.loc	45 128 13 is_stmt 1
	movss	LCPI104_1(%rip), %xmm4
	movss	%xmm4, -272(%rbp)
	movss	%xmm3, -280(%rbp)
	movss	%xmm2, -276(%rbp)
	movss	%xmm1, -268(%rbp)
	movss	%xmm0, -264(%rbp)
	.loc	45 125 29
	jmp	LBB104_4
LBB104_3:
	.loc	45 0 29 is_stmt 0
	movss	-308(%rbp), %xmm0
	movss	-312(%rbp), %xmm1
	movss	-316(%rbp), %xmm2
	movss	-320(%rbp), %xmm3
	.loc	45 126 13 is_stmt 1
	movss	LCPI104_2(%rip), %xmm4
	movss	%xmm4, -272(%rbp)
	movss	%xmm3, -280(%rbp)
	movss	%xmm2, -276(%rbp)
	movss	%xmm1, -268(%rbp)
	movss	%xmm0, -264(%rbp)
LBB104_4:
	.loc	45 125 14
	movss	-272(%rbp), %xmm0
	movss	%xmm0, -360(%rbp)
	movss	%xmm0, -148(%rbp)
	.loc	45 125 19 is_stmt 0
	movss	-280(%rbp), %xmm0
	movss	-276(%rbp), %xmm1
	movss	%xmm1, -356(%rbp)
	movss	%xmm0, -144(%rbp)
	movss	%xmm1, -140(%rbp)
	.loc	45 125 23
	movss	-268(%rbp), %xmm2
	movss	-264(%rbp), %xmm3
	movss	%xmm3, -352(%rbp)
	movss	%xmm2, -136(%rbp)
	movss	%xmm3, -132(%rbp)
Ltmp946:
	.loc	45 130 20 is_stmt 1
	subss	%xmm0, %xmm2
	.loc	45 130 36 is_stmt 0
	subss	%xmm1, %xmm3
	.loc	45 130 20
	divss	%xmm3, %xmm2
	movss	%xmm2, -348(%rbp)
	movss	%xmm2, -124(%rbp)
Ltmp947:
	.loc	45 131 21 is_stmt 1
	movss	%xmm0, -260(%rbp)
	movss	LCPI104_3(%rip), %xmm2
Ltmp948:
	.loc	45 132 18
	movaps	%xmm1, %xmm0
	subss	%xmm2, %xmm0
	cvttss2si	%xmm0, %rcx
	movaps	%xmm1, %xmm0
	cvttss2si	%xmm0, %rax
	movq	%rax, %rdx
	sarq	$63, %rdx
	andq	%rdx, %rcx
	orq	%rcx, %rax
	xorl	%ecx, %ecx
	xorps	%xmm0, %xmm0
	ucomiss	%xmm0, %xmm1
	cmovbq	%rcx, %rax
	movss	LCPI104_4(%rip), %xmm0
	ucomiss	%xmm0, %xmm1
	movq	$-1, %rcx
	cmovaq	%rcx, %rax
	movq	%rax, -344(%rbp)
	movq	%rax, -120(%rbp)
Ltmp949:
	.loc	45 133 12
	xorps	%xmm0, %xmm0
	ucomiss	%xmm1, %xmm0
	ja	LBB104_6
LBB104_5:
	.loc	45 0 12 is_stmt 0
	movss	-352(%rbp), %xmm0
	movq	-328(%rbp), %rax
	.loc	45 136 22 is_stmt 1
	movq	8(%rax), %rax
	movq	%rax, -368(%rbp)
	.loc	45 136 38 is_stmt 0
	callq	__ZN3std3f3221_$LT$impl$u20$f32$GT$4ceil17hd307bee39d62bf3dE
	movq	-368(%rbp), %rdi
	movss	LCPI104_3(%rip), %xmm2
	movaps	%xmm0, %xmm1
	subss	%xmm2, %xmm1
	cvttss2si	%xmm1, %rax
	movaps	%xmm0, %xmm1
	cvttss2si	%xmm1, %rsi
	movq	%rsi, %rcx
	sarq	$63, %rcx
	andq	%rcx, %rax
	orq	%rax, %rsi
	xorl	%eax, %eax
	xorps	%xmm1, %xmm1
	ucomiss	%xmm1, %xmm0
	cmovbq	%rax, %rsi
	movss	LCPI104_4(%rip), %xmm1
	ucomiss	%xmm1, %xmm0
	movq	$-1, %rax
	cmovaq	%rax, %rsi
	.loc	45 136 22
	callq	__ZN4core3cmp3Ord3min17h08b3ed6b2afdbd1bE
	movq	-344(%rbp), %rcx
	.loc	45 136 18
	movq	%rcx, -256(%rbp)
	movq	%rax, -248(%rbp)
	movq	-256(%rbp), %rdi
	movq	-248(%rbp), %rsi
	callq	__ZN63_$LT$I$u20$as$u20$core..iter..traits..collect..IntoIterator$GT$9into_iter17hcd02363d0288a484E
	movq	%rax, -240(%rbp)
	movq	%rdx, -232(%rbp)
Ltmp950:
	.loc	45 136 9
	jmp	LBB104_7
Ltmp951:
LBB104_6:
	.loc	45 0 9
	movss	-348(%rbp), %xmm0
	movss	-356(%rbp), %xmm1
	.loc	45 134 18 is_stmt 1
	mulss	%xmm0, %xmm1
	.loc	45 134 13 is_stmt 0
	movss	-260(%rbp), %xmm0
	subss	%xmm1, %xmm0
	movss	%xmm0, -260(%rbp)
	.loc	45 133 9 is_stmt 1
	jmp	LBB104_5
LBB104_7:
	.loc	45 0 9 is_stmt 0
	leaq	-240(%rbp), %rdi
Ltmp952:
	.loc	45 136 18 is_stmt 1
	callq	__ZN4core4iter5range101_$LT$impl$u20$core..iter..traits..iterator..Iterator$u20$for$u20$core..ops..range..Range$LT$A$GT$$GT$4next17h9cdbd81401b9c075E
	movq	%rdx, -216(%rbp)
	movq	%rax, -224(%rbp)
	cmpq	$0, -224(%rbp)
	je	LBB104_57
	.loc	45 0 18 is_stmt 0
	movq	-328(%rbp), %rcx
	.loc	45 136 13
	movq	-216(%rbp), %rax
	movq	%rax, -384(%rbp)
	movq	%rax, -112(%rbp)
Ltmp953:
	.loc	45 137 29 is_stmt 1
	mulq	(%rcx)
	movq	%rax, -376(%rbp)
	seto	%al
	testb	$1, %al
	jne	LBB104_10
	.loc	45 0 29 is_stmt 0
	movq	-384(%rbp), %rax
	movq	-376(%rbp), %rcx
	.loc	45 137 29
	movq	%rcx, -104(%rbp)
Ltmp954:
	.loc	45 138 23 is_stmt 1
	addq	$1, %rax
	movq	%rax, -392(%rbp)
	setb	%al
	testb	$1, %al
	jne	LBB104_12
	jmp	LBB104_11
Ltmp955:
LBB104_10:
	.loc	45 137 29
	leaq	_str.1(%rip), %rdi
	leaq	l___unnamed_15(%rip), %rdx
	movl	$33, %esi
	callq	__ZN4core9panicking5panic17hc1bc45270cf64b03E
LBB104_11:
	.loc	45 0 29 is_stmt 0
	movq	-392(%rbp), %rax
Ltmp956:
	.loc	45 138 22 is_stmt 1
	movq	%rax, %rdx
	shrq	%rdx
	movl	%eax, %ecx
	andl	$1, %ecx
	orq	%rdx, %rcx
	cvtsi2ss	%rcx, %xmm0
	addss	%xmm0, %xmm0
	cvtsi2ss	%rax, %xmm1
	movss	%xmm1, -400(%rbp)
	testq	%rax, %rax
	movss	%xmm0, -396(%rbp)
	js	LBB104_59
	.loc	45 0 22 is_stmt 0
	movss	-400(%rbp), %xmm0
	movss	%xmm0, -396(%rbp)
LBB104_59:
	movss	-352(%rbp), %xmm1
	movss	-396(%rbp), %xmm0
	.loc	45 138 22
	callq	__ZN4core3f3221_$LT$impl$u20$f32$GT$3min17he1460c8797fbd2feE
	movq	-384(%rbp), %rax
	movss	%xmm0, -412(%rbp)
	.loc	45 138 51
	movq	%rax, %rdx
	shrq	%rdx
	movl	%eax, %ecx
	andl	$1, %ecx
	orq	%rdx, %rcx
	cvtsi2ss	%rcx, %xmm0
	addss	%xmm0, %xmm0
	cvtsi2ss	%rax, %xmm1
	movss	%xmm1, -408(%rbp)
	testq	%rax, %rax
	movss	%xmm0, -404(%rbp)
	js	LBB104_61
	.loc	45 0 51
	movss	-408(%rbp), %xmm0
	movss	%xmm0, -404(%rbp)
LBB104_61:
	movss	-356(%rbp), %xmm1
	movss	-404(%rbp), %xmm0
	.loc	45 138 51
	callq	__ZN4core3f3221_$LT$impl$u20$f32$GT$3max17he2ca4cdc8e77fa1cE
	movss	-412(%rbp), %xmm1
	movss	-348(%rbp), %xmm3
	movss	-360(%rbp), %xmm2
	.loc	45 138 22
	subss	%xmm0, %xmm1
	movss	%xmm1, -96(%rbp)
Ltmp957:
	.loc	45 139 25 is_stmt 1
	movss	-260(%rbp), %xmm0
	.loc	45 139 29 is_stmt 0
	mulss	%xmm1, %xmm3
	.loc	45 139 25
	addss	%xmm3, %xmm0
	movss	%xmm0, -420(%rbp)
	movss	%xmm0, -92(%rbp)
Ltmp958:
	.loc	45 140 21 is_stmt 1
	mulss	%xmm2, %xmm1
	movss	%xmm1, -416(%rbp)
	movss	%xmm1, -88(%rbp)
Ltmp959:
	.loc	45 141 31
	ucomiss	-260(%rbp), %xmm0
	ja	LBB104_14
	jmp	LBB104_13
Ltmp960:
LBB104_12:
	.loc	45 138 23
	leaq	_str.2(%rip), %rdi
	leaq	l___unnamed_16(%rip), %rdx
	movl	$28, %esi
	callq	__ZN4core9panicking5panic17hc1bc45270cf64b03E
LBB104_13:
	.loc	45 0 23 is_stmt 0
	movss	-420(%rbp), %xmm1
Ltmp961:
	.loc	45 141 71 is_stmt 1
	movss	-260(%rbp), %xmm0
	.loc	45 141 63 is_stmt 0
	movss	%xmm1, -208(%rbp)
	movss	%xmm0, -204(%rbp)
	.loc	45 141 28
	jmp	LBB104_15
LBB104_14:
	.loc	45 0 28
	movss	-420(%rbp), %xmm0
	.loc	45 141 44
	movss	-260(%rbp), %xmm1
	.loc	45 141 43
	movss	%xmm1, -208(%rbp)
	movss	%xmm0, -204(%rbp)
LBB104_15:
	.loc	45 141 18
	movss	-208(%rbp), %xmm0
	movss	%xmm0, -448(%rbp)
	movss	%xmm0, -84(%rbp)
	.loc	45 141 22
	movss	-204(%rbp), %xmm1
	movss	%xmm1, -444(%rbp)
	movss	%xmm1, -80(%rbp)
Ltmp962:
	.loc	45 142 27 is_stmt 1
	callq	__ZN3std3f3221_$LT$impl$u20$f32$GT$5floor17h31e619b069bc1746E
	movaps	%xmm0, %xmm1
	movss	-444(%rbp), %xmm0
	movss	%xmm1, -440(%rbp)
	movss	%xmm1, -76(%rbp)
Ltmp963:
	.loc	45 143 23
	cvttss2si	%xmm1, %eax
	movss	LCPI104_5(%rip), %xmm2
	ucomiss	%xmm2, %xmm1
	movl	$2147483647, %ecx
	cmoval	%ecx, %eax
	xorl	%ecx, %ecx
	ucomiss	%xmm1, %xmm1
	cmovpl	%ecx, %eax
	movl	%eax, -436(%rbp)
	movl	%eax, -72(%rbp)
Ltmp964:
	.loc	45 144 26
	callq	__ZN3std3f3221_$LT$impl$u20$f32$GT$4ceil17hd307bee39d62bf3dE
	movl	-436(%rbp), %eax
	movss	%xmm0, -432(%rbp)
	movss	%xmm0, -68(%rbp)
Ltmp965:
	.loc	45 145 23
	cvttss2si	%xmm0, %ecx
	movss	LCPI104_5(%rip), %xmm1
	ucomiss	%xmm1, %xmm0
	movl	$2147483647, %edx
	cmoval	%edx, %ecx
	xorl	%edx, %edx
	ucomiss	%xmm0, %xmm0
	cmovpl	%edx, %ecx
	movl	%ecx, -428(%rbp)
	movl	%ecx, -64(%rbp)
Ltmp966:
	.loc	45 146 23
	incl	%eax
	movl	%eax, -424(%rbp)
	seto	%al
	testb	$1, %al
	jne	LBB104_17
	.loc	45 0 23 is_stmt 0
	movl	-428(%rbp), %eax
	movl	-424(%rbp), %ecx
	.loc	45 146 16
	cmpl	%ecx, %eax
	jle	LBB104_19
	jmp	LBB104_18
LBB104_17:
	.loc	45 146 23
	leaq	_str.2(%rip), %rdi
	leaq	l___unnamed_17(%rip), %rdx
	movl	$28, %esi
	callq	__ZN4core9panicking5panic17hc1bc45270cf64b03E
LBB104_18:
	.loc	45 0 23
	movss	-444(%rbp), %xmm0
	movss	-448(%rbp), %xmm1
	.loc	45 155 25 is_stmt 1
	subss	%xmm1, %xmm0
	callq	__ZN4core3f3221_$LT$impl$u20$f32$GT$5recip17hd0448c12e2481782E
	movss	-448(%rbp), %xmm5
	movss	-440(%rbp), %xmm3
	movss	-444(%rbp), %xmm1
	movl	-436(%rbp), %ecx
	movq	-376(%rbp), %rax
	movaps	%xmm0, %xmm2
	movss	-432(%rbp), %xmm0
	movss	%xmm2, -472(%rbp)
	movss	%xmm2, -44(%rbp)
Ltmp967:
	.loc	45 156 27
	subss	%xmm3, %xmm5
	movss	%xmm5, -468(%rbp)
	movss	%xmm5, -40(%rbp)
Ltmp968:
	.loc	45 157 26
	movss	LCPI104_6(%rip), %xmm3
	mulss	%xmm2, %xmm3
	.loc	45 157 36 is_stmt 0
	movss	LCPI104_2(%rip), %xmm4
	subss	%xmm5, %xmm4
	.loc	45 157 26
	mulss	%xmm4, %xmm3
	.loc	45 157 50
	movss	LCPI104_2(%rip), %xmm4
	subss	%xmm5, %xmm4
	.loc	45 157 26
	mulss	%xmm4, %xmm3
	movss	%xmm3, -464(%rbp)
	movss	%xmm3, -36(%rbp)
Ltmp969:
	.loc	45 158 27 is_stmt 1
	subss	%xmm0, %xmm1
	movss	LCPI104_2(%rip), %xmm0
	addss	%xmm0, %xmm1
	movss	%xmm1, -32(%rbp)
Ltmp970:
	.loc	45 159 26
	movss	LCPI104_6(%rip), %xmm0
	mulss	%xmm2, %xmm0
	mulss	%xmm1, %xmm0
	mulss	%xmm1, %xmm0
	movss	%xmm0, -460(%rbp)
	movss	%xmm0, -28(%rbp)
Ltmp971:
	.loc	45 160 58
	movslq	%ecx, %rcx
	.loc	45 160 37 is_stmt 0
	addq	%rcx, %rax
	movq	%rax, -456(%rbp)
	seto	%al
	testb	$1, %al
	jne	LBB104_27
	jmp	LBB104_26
Ltmp972:
LBB104_19:
	.loc	45 0 37
	movq	-376(%rbp), %rax
	movl	-436(%rbp), %ecx
	movss	-440(%rbp), %xmm1
	movss	-420(%rbp), %xmm2
	.loc	45 147 33 is_stmt 1
	addss	-260(%rbp), %xmm2
	.loc	45 147 27 is_stmt 0
	movss	LCPI104_6(%rip), %xmm0
	mulss	%xmm2, %xmm0
	subss	%xmm1, %xmm0
	movss	%xmm0, -484(%rbp)
	movss	%xmm0, -60(%rbp)
Ltmp973:
	.loc	45 148 58 is_stmt 1
	movslq	%ecx, %rcx
	.loc	45 148 37 is_stmt 0
	addq	%rcx, %rax
	movq	%rax, -480(%rbp)
	seto	%al
	testb	$1, %al
	jne	LBB104_21
	.loc	45 0 37
	movq	-480(%rbp), %rax
	.loc	45 148 37
	movq	%rax, -56(%rbp)
Ltmp974:
	.loc	45 149 20 is_stmt 1
	cmpq	$0, %rax
	jl	LBB104_7
	jmp	LBB104_22
Ltmp975:
LBB104_21:
	.loc	45 148 37
	leaq	_str.2(%rip), %rdi
	leaq	l___unnamed_18(%rip), %rdx
	movl	$28, %esi
	callq	__ZN4core9panicking5panic17hc1bc45270cf64b03E
LBB104_22:
	.loc	45 0 37 is_stmt 0
	movq	-480(%rbp), %rsi
	movq	-328(%rbp), %rdi
	movss	-484(%rbp), %xmm2
	movss	-416(%rbp), %xmm0
Ltmp976:
	.loc	45 152 55 is_stmt 1
	movaps	%xmm0, %xmm1
	mulss	%xmm2, %xmm1
	.loc	45 152 51 is_stmt 0
	subss	%xmm1, %xmm0
	movss	%xmm0, -512(%rbp)
	.loc	45 152 17
	addq	$16, %rdi
	leaq	l___unnamed_19(%rip), %rdx
	callq	__ZN84_$LT$alloc..vec..Vec$LT$T$C$A$GT$$u20$as$u20$core..ops..index..IndexMut$LT$I$GT$$GT$9index_mut17h0c906eb76f318a94E
	movss	-512(%rbp), %xmm2
	movss	-416(%rbp), %xmm0
	movss	-484(%rbp), %xmm1
	movq	-328(%rbp), %rcx
	movq	%rax, %rdx
	movq	-480(%rbp), %rax
	addss	(%rdx), %xmm2
	movss	%xmm2, (%rdx)
	.loc	45 153 55 is_stmt 1
	mulss	%xmm1, %xmm0
	movss	%xmm0, -508(%rbp)
	.loc	45 153 17 is_stmt 0
	addq	$16, %rcx
	movq	%rcx, -504(%rbp)
	.loc	45 153 24
	addq	$1, %rax
	movq	%rax, -496(%rbp)
	setb	%al
	testb	$1, %al
	jne	LBB104_24
	.loc	45 0 24
	movq	-496(%rbp), %rsi
	movq	-504(%rbp), %rdi
	.loc	45 153 17
	leaq	l___unnamed_20(%rip), %rdx
	callq	__ZN84_$LT$alloc..vec..Vec$LT$T$C$A$GT$$u20$as$u20$core..ops..index..IndexMut$LT$I$GT$$GT$9index_mut17h0c906eb76f318a94E
	movss	-508(%rbp), %xmm0
	addss	(%rax), %xmm0
	movss	%xmm0, (%rax)
Ltmp977:
	.loc	45 146 13 is_stmt 1
	jmp	LBB104_25
LBB104_24:
Ltmp978:
	.loc	45 153 24
	leaq	_str.2(%rip), %rdi
	leaq	l___unnamed_21(%rip), %rdx
	movl	$28, %esi
	callq	__ZN4core9panicking5panic17hc1bc45270cf64b03E
Ltmp979:
LBB104_25:
	.loc	45 0 24 is_stmt 0
	movss	-420(%rbp), %xmm0
	.loc	45 178 13 is_stmt 1
	movss	%xmm0, -260(%rbp)
Ltmp980:
	.loc	45 136 9
	jmp	LBB104_7
LBB104_26:
	.loc	45 0 9 is_stmt 0
	movq	-456(%rbp), %rax
Ltmp981:
	.loc	45 160 37 is_stmt 1
	movq	%rax, -24(%rbp)
Ltmp982:
	.loc	45 161 20
	cmpq	$0, %rax
	jl	LBB104_7
	jmp	LBB104_28
Ltmp983:
LBB104_27:
	.loc	45 160 37
	leaq	_str.2(%rip), %rdi
	leaq	l___unnamed_22(%rip), %rdx
	movl	$28, %esi
	callq	__ZN4core9panicking5panic17hc1bc45270cf64b03E
LBB104_28:
	.loc	45 0 37 is_stmt 0
	movq	-456(%rbp), %rsi
	movq	-328(%rbp), %rdi
	movss	-464(%rbp), %xmm1
	movss	-416(%rbp), %xmm0
Ltmp984:
	.loc	45 164 51 is_stmt 1
	mulss	%xmm1, %xmm0
	movss	%xmm0, -520(%rbp)
	.loc	45 164 17 is_stmt 0
	addq	$16, %rdi
	leaq	l___unnamed_23(%rip), %rdx
	callq	__ZN84_$LT$alloc..vec..Vec$LT$T$C$A$GT$$u20$as$u20$core..ops..index..IndexMut$LT$I$GT$$GT$9index_mut17h0c906eb76f318a94E
	movss	-520(%rbp), %xmm0
	movq	%rax, %rcx
	movl	-436(%rbp), %eax
	addss	(%rcx), %xmm0
	movss	%xmm0, (%rcx)
	.loc	45 165 27 is_stmt 1
	addl	$2, %eax
	movl	%eax, -516(%rbp)
	seto	%al
	testb	$1, %al
	jne	LBB104_30
	.loc	45 0 27 is_stmt 0
	movl	-428(%rbp), %eax
	movl	-516(%rbp), %ecx
	.loc	45 165 20
	cmpl	%ecx, %eax
	je	LBB104_32
	jmp	LBB104_31
LBB104_30:
	.loc	45 165 27
	leaq	_str.2(%rip), %rdi
	leaq	l___unnamed_24(%rip), %rdx
	movl	$28, %esi
	callq	__ZN4core9panicking5panic17hc1bc45270cf64b03E
LBB104_31:
	.loc	45 0 27
	movq	-456(%rbp), %rax
	movq	-328(%rbp), %rcx
	movss	-416(%rbp), %xmm0
	movss	-464(%rbp), %xmm2
	movss	-472(%rbp), %xmm1
	movss	-468(%rbp), %xmm4
	.loc	45 168 34 is_stmt 1
	movss	LCPI104_7(%rip), %xmm3
	subss	%xmm4, %xmm3
	.loc	45 168 30 is_stmt 0
	mulss	%xmm3, %xmm1
	movss	%xmm1, -544(%rbp)
	movss	%xmm1, -12(%rbp)
Ltmp985:
	.loc	45 169 63 is_stmt 1
	subss	%xmm2, %xmm1
	.loc	45 169 59 is_stmt 0
	mulss	%xmm1, %xmm0
	movss	%xmm0, -540(%rbp)
	.loc	45 169 21
	addq	$16, %rcx
	movq	%rcx, -536(%rbp)
	.loc	45 169 28
	addq	$1, %rax
	movq	%rax, -528(%rbp)
	setb	%al
	testb	$1, %al
	jne	LBB104_37
	jmp	LBB104_36
Ltmp986:
LBB104_32:
	.loc	45 0 28
	movq	-456(%rbp), %rax
	movq	-328(%rbp), %rcx
	movss	-416(%rbp), %xmm0
	movss	-460(%rbp), %xmm2
	movss	-464(%rbp), %xmm3
	.loc	45 166 64 is_stmt 1
	movss	LCPI104_2(%rip), %xmm1
	subss	%xmm3, %xmm1
	.loc	45 166 63 is_stmt 0
	subss	%xmm2, %xmm1
	.loc	45 166 59
	mulss	%xmm1, %xmm0
	movss	%xmm0, -564(%rbp)
	.loc	45 166 21
	addq	$16, %rcx
	movq	%rcx, -560(%rbp)
	.loc	45 166 28
	addq	$1, %rax
	movq	%rax, -552(%rbp)
	setb	%al
	testb	$1, %al
	jne	LBB104_34
	.loc	45 0 28
	movq	-552(%rbp), %rsi
	movq	-560(%rbp), %rdi
	.loc	45 166 21
	leaq	l___unnamed_25(%rip), %rdx
	callq	__ZN84_$LT$alloc..vec..Vec$LT$T$C$A$GT$$u20$as$u20$core..ops..index..IndexMut$LT$I$GT$$GT$9index_mut17h0c906eb76f318a94E
	movss	-564(%rbp), %xmm0
	addss	(%rax), %xmm0
	movss	%xmm0, (%rax)
	.loc	45 165 17 is_stmt 1
	jmp	LBB104_35
LBB104_34:
	.loc	45 166 28
	leaq	_str.2(%rip), %rdi
	leaq	l___unnamed_26(%rip), %rdx
	movl	$28, %esi
	callq	__ZN4core9panicking5panic17hc1bc45270cf64b03E
LBB104_35:
	.loc	45 0 28 is_stmt 0
	movq	-376(%rbp), %rax
	movl	-428(%rbp), %ecx
	movq	-328(%rbp), %rdx
	movss	-460(%rbp), %xmm1
	movss	-416(%rbp), %xmm0
	.loc	45 176 53 is_stmt 1
	mulss	%xmm1, %xmm0
	movss	%xmm0, -588(%rbp)
	.loc	45 176 17 is_stmt 0
	addq	$16, %rdx
	movq	%rdx, -584(%rbp)
	.loc	45 176 36
	movslq	%ecx, %rcx
	.loc	45 176 24
	addq	%rcx, %rax
	movq	%rax, -576(%rbp)
	setb	%al
	testb	$1, %al
	jne	LBB104_56
	jmp	LBB104_55
LBB104_36:
	.loc	45 0 24
	movq	-528(%rbp), %rsi
	movq	-536(%rbp), %rdi
Ltmp987:
	.loc	45 169 21 is_stmt 1
	leaq	l___unnamed_27(%rip), %rdx
	callq	__ZN84_$LT$alloc..vec..Vec$LT$T$C$A$GT$$u20$as$u20$core..ops..index..IndexMut$LT$I$GT$$GT$9index_mut17h0c906eb76f318a94E
	movss	-540(%rbp), %xmm0
	movq	%rax, %rcx
	movl	-436(%rbp), %eax
	addss	(%rcx), %xmm0
	movss	%xmm0, (%rcx)
	.loc	45 170 31
	addl	$2, %eax
	movl	%eax, -592(%rbp)
	seto	%al
	testb	$1, %al
	jne	LBB104_39
	jmp	LBB104_38
LBB104_37:
	.loc	45 169 28
	leaq	_str.2(%rip), %rdi
	leaq	l___unnamed_28(%rip), %rdx
	movl	$28, %esi
	callq	__ZN4core9panicking5panic17hc1bc45270cf64b03E
LBB104_38:
	.loc	45 0 28 is_stmt 0
	movl	-428(%rbp), %eax
	.loc	45 170 40 is_stmt 1
	decl	%eax
	movl	%eax, -596(%rbp)
	seto	%al
	testb	$1, %al
	jne	LBB104_41
	jmp	LBB104_40
LBB104_39:
	.loc	45 170 31 is_stmt 0
	leaq	_str.2(%rip), %rdi
	leaq	l___unnamed_29(%rip), %rdx
	movl	$28, %esi
	callq	__ZN4core9panicking5panic17hc1bc45270cf64b03E
LBB104_40:
	.loc	45 0 31
	movl	-596(%rbp), %eax
	movl	-592(%rbp), %ecx
	.loc	45 170 31
	movl	%ecx, -200(%rbp)
	movl	%eax, -196(%rbp)
	movl	-200(%rbp), %edi
	movl	-196(%rbp), %esi
	callq	__ZN63_$LT$I$u20$as$u20$core..iter..traits..collect..IntoIterator$GT$9into_iter17h96bfbdb47885f99cE
	movl	%eax, -192(%rbp)
	movl	%edx, -188(%rbp)
Ltmp988:
	.loc	45 170 21
	jmp	LBB104_42
Ltmp989:
LBB104_41:
	.loc	45 170 40
	leaq	_str.3(%rip), %rdi
	leaq	l___unnamed_30(%rip), %rdx
	movl	$33, %esi
	callq	__ZN4core9panicking5panic17hc1bc45270cf64b03E
LBB104_42:
	.loc	45 0 40
	leaq	-192(%rbp), %rdi
Ltmp990:
	.loc	45 170 31
	callq	__ZN4core4iter5range101_$LT$impl$u20$core..iter..traits..iterator..Iterator$u20$for$u20$core..ops..range..Range$LT$A$GT$$GT$4next17h880630df7290efceE
	movl	%edx, -180(%rbp)
	movl	%eax, -184(%rbp)
	movl	-184(%rbp), %eax
	cmpq	$0, %rax
	jne	LBB104_44
Ltmp991:
	.loc	45 0 31
	movl	-436(%rbp), %ecx
	movl	-428(%rbp), %eax
	.loc	45 173 36 is_stmt 1
	subl	%ecx, %eax
	movl	%eax, -600(%rbp)
	seto	%al
	testb	$1, %al
	jne	LBB104_48
	jmp	LBB104_47
LBB104_44:
	.loc	45 0 36 is_stmt 0
	movq	-376(%rbp), %rax
	movq	-328(%rbp), %rdx
	movss	-472(%rbp), %xmm1
	movss	-416(%rbp), %xmm0
Ltmp992:
	.loc	45 170 25 is_stmt 1
	movl	-180(%rbp), %ecx
	movl	%ecx, -8(%rbp)
Ltmp993:
	.loc	45 171 60
	mulss	%xmm1, %xmm0
	movss	%xmm0, -620(%rbp)
	.loc	45 171 25 is_stmt 0
	addq	$16, %rdx
	movq	%rdx, -616(%rbp)
	.loc	45 171 44
	movslq	%ecx, %rcx
	.loc	45 171 32
	addq	%rcx, %rax
	movq	%rax, -608(%rbp)
	setb	%al
	testb	$1, %al
	jne	LBB104_46
	.loc	45 0 32
	movq	-608(%rbp), %rsi
	movq	-616(%rbp), %rdi
	.loc	45 171 25
	leaq	l___unnamed_31(%rip), %rdx
	callq	__ZN84_$LT$alloc..vec..Vec$LT$T$C$A$GT$$u20$as$u20$core..ops..index..IndexMut$LT$I$GT$$GT$9index_mut17h0c906eb76f318a94E
	movss	-620(%rbp), %xmm0
	addss	(%rax), %xmm0
	movss	%xmm0, (%rax)
Ltmp994:
	.loc	45 170 21 is_stmt 1
	jmp	LBB104_42
LBB104_46:
Ltmp995:
	.loc	45 171 32
	leaq	_str.2(%rip), %rdi
	leaq	l___unnamed_32(%rip), %rdx
	movl	$28, %esi
	callq	__ZN4core9panicking5panic17hc1bc45270cf64b03E
Ltmp996:
LBB104_47:
	.loc	45 0 32 is_stmt 0
	movl	-600(%rbp), %eax
	.loc	45 173 35 is_stmt 1
	subl	$3, %eax
	movl	%eax, -624(%rbp)
	seto	%al
	testb	$1, %al
	jne	LBB104_50
	jmp	LBB104_49
LBB104_48:
	.loc	45 173 36 is_stmt 0
	leaq	_str.3(%rip), %rdi
	leaq	l___unnamed_33(%rip), %rdx
	movl	$33, %esi
	callq	__ZN4core9panicking5panic17hc1bc45270cf64b03E
LBB104_49:
	.loc	45 0 36
	movl	-428(%rbp), %eax
	movq	-328(%rbp), %rcx
	movss	-416(%rbp), %xmm0
	movss	-460(%rbp), %xmm2
	movss	-544(%rbp), %xmm3
	movss	-472(%rbp), %xmm4
	movl	-624(%rbp), %edx
	.loc	45 173 35
	cvtsi2ss	%edx, %xmm1
	mulss	%xmm4, %xmm1
	.loc	45 173 30
	addss	%xmm1, %xmm3
	movss	%xmm3, -4(%rbp)
Ltmp997:
	.loc	45 174 68 is_stmt 1
	movss	LCPI104_2(%rip), %xmm1
	subss	%xmm3, %xmm1
	.loc	45 174 67 is_stmt 0
	subss	%xmm2, %xmm1
	.loc	45 174 63
	mulss	%xmm1, %xmm0
	movss	%xmm0, -644(%rbp)
	.loc	45 174 21
	addq	$16, %rcx
	movq	%rcx, -640(%rbp)
	.loc	45 174 40
	decl	%eax
	movl	%eax, -628(%rbp)
	seto	%al
	testb	$1, %al
	jne	LBB104_52
	jmp	LBB104_51
Ltmp998:
LBB104_50:
	.loc	45 173 35 is_stmt 1
	leaq	_str.3(%rip), %rdi
	leaq	l___unnamed_34(%rip), %rdx
	movl	$33, %esi
	callq	__ZN4core9panicking5panic17hc1bc45270cf64b03E
LBB104_51:
	.loc	45 0 35 is_stmt 0
	movq	-376(%rbp), %rax
	movl	-628(%rbp), %ecx
Ltmp999:
	.loc	45 174 40 is_stmt 1
	movslq	%ecx, %rcx
	.loc	45 174 28 is_stmt 0
	addq	%rcx, %rax
	movq	%rax, -656(%rbp)
	setb	%al
	testb	$1, %al
	jne	LBB104_54
	jmp	LBB104_53
LBB104_52:
	.loc	45 174 40
	leaq	_str.3(%rip), %rdi
	leaq	l___unnamed_35(%rip), %rdx
	movl	$33, %esi
	callq	__ZN4core9panicking5panic17hc1bc45270cf64b03E
LBB104_53:
	.loc	45 0 40
	movq	-656(%rbp), %rsi
	movq	-640(%rbp), %rdi
	.loc	45 174 21
	leaq	l___unnamed_36(%rip), %rdx
	callq	__ZN84_$LT$alloc..vec..Vec$LT$T$C$A$GT$$u20$as$u20$core..ops..index..IndexMut$LT$I$GT$$GT$9index_mut17h0c906eb76f318a94E
	movss	-644(%rbp), %xmm0
	addss	(%rax), %xmm0
	movss	%xmm0, (%rax)
Ltmp1000:
	.loc	45 165 17 is_stmt 1
	jmp	LBB104_35
LBB104_54:
Ltmp1001:
	.loc	45 174 28
	leaq	_str.2(%rip), %rdi
	leaq	l___unnamed_37(%rip), %rdx
	movl	$28, %esi
	callq	__ZN4core9panicking5panic17hc1bc45270cf64b03E
Ltmp1002:
LBB104_55:
	.loc	45 0 28 is_stmt 0
	movq	-576(%rbp), %rsi
	movq	-584(%rbp), %rdi
	.loc	45 176 17 is_stmt 1
	leaq	l___unnamed_38(%rip), %rdx
	callq	__ZN84_$LT$alloc..vec..Vec$LT$T$C$A$GT$$u20$as$u20$core..ops..index..IndexMut$LT$I$GT$$GT$9index_mut17h0c906eb76f318a94E
	movss	-588(%rbp), %xmm0
	addss	(%rax), %xmm0
	movss	%xmm0, (%rax)
Ltmp1003:
	.loc	45 146 13
	jmp	LBB104_25
LBB104_56:
Ltmp1004:
	.loc	45 176 24
	leaq	_str.2(%rip), %rdi
	leaq	l___unnamed_39(%rip), %rdx
	movl	$28, %esi
	callq	__ZN4core9panicking5panic17hc1bc45270cf64b03E
Ltmp1005:
LBB104_57:
	.loc	45 324 2
	addq	$656, %rsp
	popq	%rbp
	retq
Ltmp1006:
Lfunc_end104:
	.cfi_endproc

	.section	__TEXT,__const
l___unnamed_47:
	.ascii	"/rustc/2c8cc343237b8f7d5a3c3703e3a87f2eb2c54a74/library/stdarch/crates/std_detect/src/detect/cache.rs"

	.section	__DATA,__const
	.p2align	3
l___unnamed_2:
	.quad	l___unnamed_47
	.asciz	"e\000\000\000\000\000\000\000\277\000\000\000\005\000\000"

	.section	__TEXT,__const
l___unnamed_48:
	.ascii	"invalid args"

	.section	__DATA,__const
	.p2align	3
l___unnamed_3:
	.quad	l___unnamed_48
	.asciz	"\f\000\000\000\000\000\000"

	.section	__TEXT,__const
	.p2align	3
l___unnamed_4:
	.byte	0

l___unnamed_49:
	.ascii	"/rustc/2c8cc343237b8f7d5a3c3703e3a87f2eb2c54a74/library/core/src/fmt/mod.rs"

	.section	__DATA,__const
	.p2align	3
l___unnamed_5:
	.quad	l___unnamed_49
	.asciz	"K\000\000\000\000\000\000\000\221\001\000\000\r\000\000"

	.section	__TEXT,__const
l___unnamed_50:
	.ascii	"there is no such thing as an acquire-release load"

	.section	__DATA,__const
	.p2align	3
l___unnamed_8:
	.quad	l___unnamed_50
	.asciz	"1\000\000\000\000\000\000"

	.section	__TEXT,__const
l___unnamed_51:
	.ascii	"/rustc/2c8cc343237b8f7d5a3c3703e3a87f2eb2c54a74/library/core/src/sync/atomic.rs"

	.section	__DATA,__const
	.p2align	3
l___unnamed_9:
	.quad	l___unnamed_51
	.asciz	"O\000\000\000\000\000\000\000\323\013\000\000\027\000\000"

	.section	__TEXT,__const
l___unnamed_52:
	.ascii	"there is no such thing as a release load"

	.section	__DATA,__const
	.p2align	3
l___unnamed_6:
	.quad	l___unnamed_52
	.asciz	"(\000\000\000\000\000\000"

	.p2align	3
l___unnamed_7:
	.quad	l___unnamed_51
	.asciz	"O\000\000\000\000\000\000\000\322\013\000\000\030\000\000"

	.section	__TEXT,__const
l___unnamed_53:
	.ascii	"/rustc/2c8cc343237b8f7d5a3c3703e3a87f2eb2c54a74/library/core/src/alloc/layout.rs"

	.section	__DATA,__const
	.p2align	3
l___unnamed_10:
	.quad	l___unnamed_53
	.asciz	"P\000\000\000\000\000\000\000\304\001\000\000)\000\000"

	.section	__TEXT,__const
	.p2align	4
_str.0:
	.ascii	"attempt to divide by zero"

l___unnamed_54:
	.ascii	"/rustc/2c8cc343237b8f7d5a3c3703e3a87f2eb2c54a74/library/alloc/src/raw_vec.rs"

	.section	__DATA,__const
	.p2align	3
l___unnamed_11:
	.quad	l___unnamed_54
	.asciz	"L\000\000\000\000\000\000\000\367\000\000\000;\000\000"

	.section	__TEXT,__const
l___unnamed_55:
	.ascii	"point("

l___unnamed_56:
	.ascii	", "

l___unnamed_57:
	.byte	41

	.section	__DATA,__const
	.p2align	3
l___unnamed_12:
	.quad	l___unnamed_55
	.asciz	"\006\000\000\000\000\000\000"
	.quad	l___unnamed_56
	.asciz	"\002\000\000\000\000\000\000"
	.quad	l___unnamed_57
	.asciz	"\001\000\000\000\000\000\000"

	.section	__TEXT,__const
l___unnamed_58:
	.ascii	"/Users/natalie/.cargo/registry/src/github.com-1ecc6299db9ec823/ab_glyph_rasterizer-0.1.7/src/raster.rs"

	.section	__DATA,__const
	.p2align	3
l___unnamed_13:
	.quad	l___unnamed_58
	.asciz	"f\000\000\000\000\000\000\000>\000\000\000\032\000\000"

	.section	__TEXT,__const
	.p2align	4
_str.1:
	.ascii	"attempt to multiply with overflow"

	.p2align	4
_str.2:
	.ascii	"attempt to add with overflow"

	.section	__DATA,__const
	.p2align	3
l___unnamed_14:
	.quad	l___unnamed_58
	.asciz	"f\000\000\000\000\000\000\000Q\000\000\000\027\000\000"

	.p2align	3
l___unnamed_15:
	.quad	l___unnamed_58
	.asciz	"f\000\000\000\000\000\000\000\211\000\000\000\035\000\000"

	.p2align	3
l___unnamed_16:
	.quad	l___unnamed_58
	.asciz	"f\000\000\000\000\000\000\000\212\000\000\000\027\000\000"

	.p2align	3
l___unnamed_17:
	.quad	l___unnamed_58
	.asciz	"f\000\000\000\000\000\000\000\222\000\000\000\027\000\000"

	.p2align	3
l___unnamed_18:
	.quad	l___unnamed_58
	.asciz	"f\000\000\000\000\000\000\000\224\000\000\000%\000\000"

	.p2align	3
l___unnamed_19:
	.quad	l___unnamed_58
	.asciz	"f\000\000\000\000\000\000\000\230\000\000\000\021\000\000"

	.p2align	3
l___unnamed_21:
	.quad	l___unnamed_58
	.asciz	"f\000\000\000\000\000\000\000\231\000\000\000\030\000\000"

	.p2align	3
l___unnamed_20:
	.quad	l___unnamed_58
	.asciz	"f\000\000\000\000\000\000\000\231\000\000\000\021\000\000"

	.p2align	3
l___unnamed_22:
	.quad	l___unnamed_58
	.asciz	"f\000\000\000\000\000\000\000\240\000\000\000%\000\000"

	.p2align	3
l___unnamed_23:
	.quad	l___unnamed_58
	.asciz	"f\000\000\000\000\000\000\000\244\000\000\000\021\000\000"

	.p2align	3
l___unnamed_24:
	.quad	l___unnamed_58
	.asciz	"f\000\000\000\000\000\000\000\245\000\000\000\033\000\000"

	.p2align	3
l___unnamed_26:
	.quad	l___unnamed_58
	.asciz	"f\000\000\000\000\000\000\000\246\000\000\000\034\000\000"

	.p2align	3
l___unnamed_25:
	.quad	l___unnamed_58
	.asciz	"f\000\000\000\000\000\000\000\246\000\000\000\025\000\000"

	.p2align	3
l___unnamed_28:
	.quad	l___unnamed_58
	.asciz	"f\000\000\000\000\000\000\000\251\000\000\000\034\000\000"

	.p2align	3
l___unnamed_27:
	.quad	l___unnamed_58
	.asciz	"f\000\000\000\000\000\000\000\251\000\000\000\025\000\000"

	.p2align	3
l___unnamed_29:
	.quad	l___unnamed_58
	.asciz	"f\000\000\000\000\000\000\000\252\000\000\000\037\000\000"

	.p2align	3
l___unnamed_30:
	.quad	l___unnamed_58
	.asciz	"f\000\000\000\000\000\000\000\252\000\000\000(\000\000"

	.section	__TEXT,__const
	.p2align	4
_str.3:
	.ascii	"attempt to subtract with overflow"

	.section	__DATA,__const
	.p2align	3
l___unnamed_32:
	.quad	l___unnamed_58
	.asciz	"f\000\000\000\000\000\000\000\253\000\000\000 \000\000"

	.p2align	3
l___unnamed_31:
	.quad	l___unnamed_58
	.asciz	"f\000\000\000\000\000\000\000\253\000\000\000\031\000\000"

	.p2align	3
l___unnamed_33:
	.quad	l___unnamed_58
	.asciz	"f\000\000\000\000\000\000\000\255\000\000\000$\000\000"

	.p2align	3
l___unnamed_34:
	.quad	l___unnamed_58
	.asciz	"f\000\000\000\000\000\000\000\255\000\000\000#\000\000"

	.p2align	3
l___unnamed_35:
	.quad	l___unnamed_58
	.asciz	"f\000\000\000\000\000\000\000\256\000\000\000(\000\000"

	.p2align	3
l___unnamed_37:
	.quad	l___unnamed_58
	.asciz	"f\000\000\000\000\000\000\000\256\000\000\000\034\000\000"

	.p2align	3
l___unnamed_36:
	.quad	l___unnamed_58
	.asciz	"f\000\000\000\000\000\000\000\256\000\000\000\025\000\000"

	.p2align	3
l___unnamed_39:
	.quad	l___unnamed_58
	.asciz	"f\000\000\000\000\000\000\000\260\000\000\000\030\000\000"

	.p2align	3
l___unnamed_38:
	.quad	l___unnamed_58
	.asciz	"f\000\000\000\000\000\000\000\260\000\000\000\021\000\000"

	.p2align	3
l___unnamed_40:
	.quad	l___unnamed_58
	.asciz	"f\000\000\000\000\000\000\000\306\000\000\000\021\000\000"

	.p2align	3
l___unnamed_41:
	.quad	l___unnamed_58
	.asciz	"f\000\000\000\000\000\000\000\312\000\000\000\026\000\000"

	.p2align	3
l___unnamed_42:
	.quad	l___unnamed_58
	.asciz	"f\000\000\000\000\000\000\000\371\000\000\0003\000\000"

	.p2align	3
l___unnamed_43:
	.quad	l___unnamed_58
	.asciz	"f\000\000\000\000\000\000\000\372\000\000\0003\000\000"

	.section	__TEXT,__const
l___unnamed_44:
	.ascii	"Rasterizer"

l___unnamed_45:
	.ascii	"width"

	.section	__DATA,__const
	.p2align	3
l___unnamed_1:
	.quad	__ZN4core3ptr26drop_in_place$LT$usize$GT$17h39b5cb811f88685bE
	.asciz	"\b\000\000\000\000\000\000\000\b\000\000\000\000\000\000"
	.quad	__ZN4core3fmt3num52_$LT$impl$u20$core..fmt..Debug$u20$for$u20$usize$GT$3fmt17hec43792cc870e3e3E

	.section	__TEXT,__const
l___unnamed_46:
	.ascii	"height"

	.section	__DATA,__const
Lsec_end0:
	.section	__TEXT,__text,regular,pure_instructions
Lsec_end1: