	.section	__TEXT,__text,regular,pure_instructions
	.macosx_version_min 10, 7
	.p2align	4, 0x90
__ZN100_$LT$ttf_parser..tables..glyf..GlyphPointsIter$u20$as$u20$core..iter..traits..iterator..Iterator$GT$4next17hb612ce63b35768e2E:
Lfunc_begin0:
	.file	1 "/Users/natalie/.cargo/registry/src/github.com-1ecc6299db9ec823/ttf-parser-0.17.1/src/tables" "glyf.rs"
	.loc	1 324 0
	.cfi_startproc
	pushq	%rbp
	.cfi_def_cfa_offset 16
	.cfi_offset %rbp, -16
	movq	%rsp, %rbp
	.cfi_def_cfa_register %rbp
	subq	$144, %rsp
	movq	%rdi, -96(%rbp)
	movq	%rdi, -56(%rbp)
Ltmp0:
	.loc	1 325 28 prologue_end
	movl	120(%rdi), %edi
	movl	$1, %esi
	callq	__ZN4core3num21_$LT$impl$u20$u16$GT$11checked_sub17hd446e9e2bb1ecfb4E
	movw	%ax, %di
	movw	%dx, %si
	callq	__ZN75_$LT$core..option..Option$LT$T$GT$$u20$as$u20$core..ops..try_trait..Try$GT$6branch17h56657c8359385836E
	movw	%dx, -78(%rbp)
	movw	%ax, -80(%rbp)
	movzwl	-80(%rbp), %eax
	cmpq	$0, %rax
	jne	LBB0_2
	.loc	1 0 28 is_stmt 0
	movq	-96(%rbp), %rdi
	.loc	1 325 28
	movw	-78(%rbp), %ax
	movw	%ax, -20(%rbp)
	.loc	1 325 9
	movw	%ax, 120(%rdi)
	.loc	1 329 26 is_stmt 1
	addq	$96, %rdi
	callq	__ZN10ttf_parser6tables4glyf13EndpointsIter4next17hc03f83325ecef45cE
	movq	-96(%rbp), %rdi
	movb	%al, %cl
	movb	%cl, -97(%rbp)
	movb	%al, -17(%rbp)
Ltmp1:
	.loc	1 330 21
	callq	__ZN94_$LT$ttf_parser..tables..glyf..FlagsIter$u20$as$u20$core..iter..traits..iterator..Iterator$GT$4next17h52fa61ba7f841ca5E
	movzbl	%dl, %esi
	movzbl	%al, %edi
	andl	$1, %edi
	callq	__ZN75_$LT$core..option..Option$LT$T$GT$$u20$as$u20$core..ops..try_trait..Try$GT$6branch17hd32bf0b58940a6e0E
	movb	%dl, -71(%rbp)
	movb	%al, -72(%rbp)
	movb	-72(%rbp), %al
	andb	$1, %al
	movzbl	%al, %eax
	cmpq	$0, %rax
	je	LBB0_4
	jmp	LBB0_5
Ltmp2:
LBB0_2:
	.loc	1 325 28
	callq	__ZN84_$LT$core..option..Option$LT$T$GT$$u20$as$u20$core..ops..try_trait..FromResidual$GT$13from_residual17h7db859ab9f4b7a65E
	movl	%eax, %ecx
	movl	%ecx, -32(%rbp)
	shrq	$32, %rax
	movw	%ax, -28(%rbp)
	movl	-32(%rbp), %eax
	movl	%eax, -88(%rbp)
	movw	-28(%rbp), %ax
	movw	%ax, -84(%rbp)
Ltmp3:
LBB0_3:
	.loc	1 341 6
	movl	-88(%rbp), %eax
	movzwl	-84(%rbp), %ecx
	shlq	$32, %rcx
	orq	%rcx, %rax
	addq	$144, %rsp
	popq	%rbp
	retq
LBB0_4:
	.loc	1 0 6 is_stmt 0
	movq	-96(%rbp), %rcx
Ltmp4:
	.loc	1 330 21 is_stmt 1
	movb	-71(%rbp), %al
	movb	%al, -103(%rbp)
	movb	%al, -2(%rbp)
Ltmp5:
	.loc	1 330 21 is_stmt 0
	movb	%al, -1(%rbp)
Ltmp6:
	.loc	1 332 16 is_stmt 1
	addq	$32, %rcx
	movq	%rcx, -128(%rbp)
	.loc	1 334 23
	movzbl	%al, %edi
	callq	__ZN10ttf_parser6tables4glyf16SimpleGlyphFlags7x_short17h58722d0303f4e4ffE
	movb	%al, %cl
	movb	-103(%rbp), %al
	movb	%cl, -129(%rbp)
	.loc	1 334 40 is_stmt 0
	movzbl	%al, %edi
	callq	__ZN10ttf_parser6tables4glyf16SimpleGlyphFlags27x_is_same_or_positive_short17hbd8d6bf739821472E
	movb	-129(%rbp), %cl
	movq	-128(%rbp), %rdi
	.loc	1 332 16 is_stmt 1
	movzbl	%cl, %esi
	andl	$1, %esi
	movzbl	%al, %edx
	andl	$1, %edx
	callq	__ZN10ttf_parser6tables4glyf10CoordsIter4next17h85e10885bede6965E
	movq	-96(%rbp), %rcx
	movw	%ax, %dx
	movb	-103(%rbp), %al
	movw	%dx, -102(%rbp)
	.loc	1 335 16
	addq	$64, %rcx
	movq	%rcx, -112(%rbp)
	.loc	1 337 23
	movzbl	%al, %edi
	callq	__ZN10ttf_parser6tables4glyf16SimpleGlyphFlags7y_short17he96d69625e5e4092E
	movb	%al, %cl
	movb	-103(%rbp), %al
	movb	%cl, -113(%rbp)
	.loc	1 337 40 is_stmt 0
	movzbl	%al, %edi
	callq	__ZN10ttf_parser6tables4glyf16SimpleGlyphFlags27y_is_same_or_positive_short17h69a618ffa07c7f80E
	movb	-113(%rbp), %cl
	movq	-112(%rbp), %rdi
	.loc	1 335 16 is_stmt 1
	movzbl	%cl, %esi
	andl	$1, %esi
	movzbl	%al, %edx
	andl	$1, %edx
	callq	__ZN10ttf_parser6tables4glyf10CoordsIter4next17h85e10885bede6965E
	movw	%ax, %cx
	movb	-103(%rbp), %al
	movw	%cx, -100(%rbp)
	.loc	1 338 29
	movzbl	%al, %edi
	callq	__ZN10ttf_parser6tables4glyf16SimpleGlyphFlags14on_curve_point17hfa57e8c5e85ccd7fE
	movw	-102(%rbp), %si
	movw	-100(%rbp), %dx
	movb	%al, %cl
	movb	-97(%rbp), %al
	.loc	1 331 14
	movw	%si, -64(%rbp)
	movw	%dx, -62(%rbp)
	andb	$1, %cl
	movb	%cl, -60(%rbp)
	andb	$1, %al
	movb	%al, -59(%rbp)
	.loc	1 331 9 is_stmt 0
	movl	-64(%rbp), %eax
	movl	%eax, -88(%rbp)
	movw	-60(%rbp), %ax
	movw	%ax, -84(%rbp)
Ltmp7:
	.loc	1 341 6 is_stmt 1
	jmp	LBB0_3
LBB0_5:
Ltmp8:
	.loc	1 330 21
	callq	__ZN84_$LT$core..option..Option$LT$T$GT$$u20$as$u20$core..ops..try_trait..FromResidual$GT$13from_residual17h7db859ab9f4b7a65E
	movl	%eax, %ecx
	movl	%ecx, -16(%rbp)
	shrq	$32, %rax
	movw	%ax, -12(%rbp)
	movl	-16(%rbp), %eax
	movl	%eax, -88(%rbp)
	movw	-12(%rbp), %ax
	movw	%ax, -84(%rbp)
	jmp	LBB0_3
Ltmp9:
Lfunc_end0:
	.cfi_endproc

	.globl	__ZN102_$LT$core..iter..adapters..map..Map$LT$I$C$F$GT$$u20$as$u20$core..iter..traits..iterator..Iterator$GT$4next17h147e9673a4652552E
	.p2align	4, 0x90
__ZN102_$LT$core..iter..adapters..map..Map$LT$I$C$F$GT$$u20$as$u20$core..iter..traits..iterator..Iterator$GT$4next17h147e9673a4652552E:
Lfunc_begin1:
	.file	2 "/rustc/2c8cc343237b8f7d5a3c3703e3a87f2eb2c54a74/library/core/src/iter/adapters" "map.rs"
	.loc	2 102 0
	.cfi_startproc
	pushq	%rbp
	.cfi_def_cfa_offset 16
	.cfi_offset %rbp, -16
	movq	%rsp, %rbp
	.cfi_def_cfa_register %rbp
	subq	$144, %rsp
	movq	%rsi, -136(%rbp)
	movq	%rdi, -128(%rbp)
	movq	%rdi, -120(%rbp)
	movq	%rsi, -8(%rbp)
Ltmp10:
	.loc	2 103 9 prologue_end
	leaq	-112(%rbp), %rdi
	callq	__ZN108_$LT$core..iter..adapters..filter..Filter$LT$I$C$P$GT$$u20$as$u20$core..iter..traits..iterator..Iterator$GT$4next17he18809c722a6d410E
	movq	-136(%rbp), %rdx
	movq	-128(%rbp), %rdi
	.loc	2 103 30 is_stmt 0
	addq	$96, %rdx
	.loc	2 103 9
	leaq	-112(%rbp), %rsi
	callq	__ZN4core6option15Option$LT$T$GT$3map17hfdf5e8d66067eebfE
	movq	-120(%rbp), %rax
	.loc	2 104 6 is_stmt 1
	addq	$144, %rsp
	popq	%rbp
	retq
Ltmp11:
Lfunc_end1:
	.cfi_endproc

	.globl	__ZN102_$LT$core..iter..adapters..map..Map$LT$I$C$F$GT$$u20$as$u20$core..iter..traits..iterator..Iterator$GT$4next17h78c52eb54a01bdb9E
	.p2align	4, 0x90
__ZN102_$LT$core..iter..adapters..map..Map$LT$I$C$F$GT$$u20$as$u20$core..iter..traits..iterator..Iterator$GT$4next17h78c52eb54a01bdb9E:
Lfunc_begin2:
	.loc	2 102 0
	.cfi_startproc
	pushq	%rbp
	.cfi_def_cfa_offset 16
	.cfi_offset %rbp, -16
	movq	%rsp, %rbp
	.cfi_def_cfa_register %rbp
	subq	$64, %rsp
	movq	%rsi, -56(%rbp)
	movq	%rdi, -48(%rbp)
	movq	%rdi, -40(%rbp)
	movq	%rsi, -8(%rbp)
Ltmp12:
	.loc	2 103 9 prologue_end
	leaq	-32(%rbp), %rdi
	callq	__ZN103_$LT$ttf_parser..parser..LazyArrayIter16$LT$T$GT$$u20$as$u20$core..iter..traits..iterator..Iterator$GT$4next17hfe5efdfb3a672b62E
	movq	-56(%rbp), %rdx
	movq	-48(%rbp), %rdi
	.loc	2 103 30 is_stmt 0
	addq	$24, %rdx
	.loc	2 103 9
	leaq	-32(%rbp), %rsi
	callq	__ZN4core6option15Option$LT$T$GT$3map17hc940646c651863d8E
	movq	-40(%rbp), %rax
	.loc	2 104 6 is_stmt 1
	addq	$64, %rsp
	popq	%rbp
	retq
Ltmp13:
Lfunc_end2:
	.cfi_endproc

	.globl	__ZN102_$LT$core..iter..adapters..map..Map$LT$I$C$F$GT$$u20$as$u20$core..iter..traits..iterator..Iterator$GT$4next17hc8ef7f5c437a267cE
	.p2align	4, 0x90
__ZN102_$LT$core..iter..adapters..map..Map$LT$I$C$F$GT$$u20$as$u20$core..iter..traits..iterator..Iterator$GT$4next17hc8ef7f5c437a267cE:
Lfunc_begin3:
	.loc	2 102 0
	.cfi_startproc
	pushq	%rbp
	.cfi_def_cfa_offset 16
	.cfi_offset %rbp, -16
	movq	%rsp, %rbp
	.cfi_def_cfa_register %rbp
	subq	$144, %rsp
	movq	%rsi, -136(%rbp)
	movq	%rdi, -128(%rbp)
	movq	%rdi, -120(%rbp)
	movq	%rsi, -8(%rbp)
Ltmp14:
	.loc	2 103 9 prologue_end
	leaq	-112(%rbp), %rdi
	callq	__ZN108_$LT$core..iter..adapters..filter..Filter$LT$I$C$P$GT$$u20$as$u20$core..iter..traits..iterator..Iterator$GT$4next17h823bf909668a4c0fE
	movq	-136(%rbp), %rdx
	movq	-128(%rbp), %rdi
	.loc	2 103 30 is_stmt 0
	addq	$96, %rdx
	.loc	2 103 9
	leaq	-112(%rbp), %rsi
	callq	__ZN4core6option15Option$LT$T$GT$3map17ha9c108331ed1dfa6E
	movq	-120(%rbp), %rax
	.loc	2 104 6 is_stmt 1
	addq	$144, %rsp
	popq	%rbp
	retq
Ltmp15:
Lfunc_end3:
	.cfi_endproc

	.globl	__ZN102_$LT$core..iter..adapters..map..Map$LT$I$C$F$GT$$u20$as$u20$core..iter..traits..iterator..Iterator$GT$8try_fold17h93c3ed6446c9c6aaE
	.p2align	4, 0x90
__ZN102_$LT$core..iter..adapters..map..Map$LT$I$C$F$GT$$u20$as$u20$core..iter..traits..iterator..Iterator$GT$8try_fold17h93c3ed6446c9c6aaE:
Lfunc_begin4:
	.loc	2 111 0
	.cfi_startproc
	.cfi_personality 155, _rust_eh_personality
	.cfi_lsda 16, Lexception0
	pushq	%rbp
	.cfi_def_cfa_offset 16
	.cfi_offset %rbp, -16
	movq	%rsp, %rbp
	.cfi_def_cfa_register %rbp
	subq	$112, %rsp
	movq	%rsi, %rax
	movq	%rdi, %rsi
	movq	%rsi, -96(%rbp)
	movq	%rax, -88(%rbp)
	movq	%rsi, -48(%rbp)
	movq	%rax, -40(%rbp)
	movq	%rdx, -32(%rbp)
	movq	%rcx, -24(%rbp)
Ltmp21:
	.loc	2 117 28 prologue_end
	movb	$1, -49(%rbp)
Ltmp16:
	leaq	-80(%rbp), %rdi
	.loc	2 117 34 is_stmt 0
	callq	__ZN4core4iter8adapters3map12map_try_fold17hec3c7589e2256e04E
Ltmp17:
	jmp	LBB4_3
LBB4_1:
	.loc	2 117 62
	testb	$1, -49(%rbp)
	jne	LBB4_6
	jmp	LBB4_5
LBB4_2:
Ltmp20:
	.loc	2 0 62
	movq	%rax, %rcx
	movl	%edx, %eax
	movq	%rcx, -16(%rbp)
	movl	%eax, -8(%rbp)
	jmp	LBB4_1
LBB4_3:
	movq	-88(%rbp), %rsi
	movq	-96(%rbp), %rdi
	.loc	2 117 9
	movb	$0, -49(%rbp)
Ltmp18:
	leaq	-80(%rbp), %rdx
	callq	__ZN4core4iter6traits8iterator8Iterator8try_fold17h7c8a266d501216c5E
Ltmp19:
	movq	%rdx, -112(%rbp)
	movq	%rax, -104(%rbp)
	jmp	LBB4_4
LBB4_4:
	.loc	2 0 9
	movq	-112(%rbp), %rdx
	movq	-104(%rbp), %rax
	.loc	2 118 6 is_stmt 1
	addq	$112, %rsp
	popq	%rbp
	retq
LBB4_5:
	.loc	2 111 5
	movq	-16(%rbp), %rdi
	callq	__Unwind_Resume
LBB4_6:
	.loc	2 117 62
	jmp	LBB4_5
Ltmp22:
Lfunc_end4:
	.cfi_endproc
	.section	__TEXT,__gcc_except_tab
	.p2align	2
GCC_except_table4:
Lexception0:
	.byte	255
	.byte	255
	.byte	1
	.uleb128 Lcst_end0-Lcst_begin0
Lcst_begin0:
	.uleb128 Ltmp16-Lfunc_begin4
	.uleb128 Ltmp19-Ltmp16
	.uleb128 Ltmp20-Lfunc_begin4
	.byte	0
	.uleb128 Ltmp19-Lfunc_begin4
	.uleb128 Lfunc_end4-Ltmp19
	.byte	0
	.byte	0
Lcst_end0:
	.p2align	2

	.section	__TEXT,__text,regular,pure_instructions
	.globl	__ZN102_$LT$core..iter..adapters..map..Map$LT$I$C$F$GT$$u20$as$u20$core..iter..traits..iterator..Iterator$GT$8try_fold17ha60beeac27c5e305E
	.p2align	4, 0x90
__ZN102_$LT$core..iter..adapters..map..Map$LT$I$C$F$GT$$u20$as$u20$core..iter..traits..iterator..Iterator$GT$8try_fold17ha60beeac27c5e305E:
Lfunc_begin5:
	.loc	2 111 0
	.cfi_startproc
	.cfi_personality 155, _rust_eh_personality
	.cfi_lsda 16, Lexception1
	pushq	%rbp
	.cfi_def_cfa_offset 16
	.cfi_offset %rbp, -16
	movq	%rsp, %rbp
	.cfi_def_cfa_register %rbp
	subq	$112, %rsp
	movq	%rsi, %rax
	movq	%rdi, %rsi
	movq	%rsi, -96(%rbp)
	movq	%rax, -88(%rbp)
	movq	%rsi, -48(%rbp)
	movq	%rax, -40(%rbp)
	movq	%rdx, -32(%rbp)
	movq	%rcx, -24(%rbp)
Ltmp28:
	.loc	2 117 28 prologue_end
	movb	$1, -49(%rbp)
	.loc	2 117 47 is_stmt 0
	addq	$96, %rsi
Ltmp23:
	leaq	-80(%rbp), %rdi
	.loc	2 117 34
	callq	__ZN4core4iter8adapters3map12map_try_fold17hf12df1464024d1f2E
Ltmp24:
	jmp	LBB5_3
LBB5_1:
	.loc	2 117 62
	testb	$1, -49(%rbp)
	jne	LBB5_6
	jmp	LBB5_5
LBB5_2:
Ltmp27:
	.loc	2 0 62
	movq	%rax, %rcx
	movl	%edx, %eax
	movq	%rcx, -16(%rbp)
	movl	%eax, -8(%rbp)
	jmp	LBB5_1
LBB5_3:
	movq	-88(%rbp), %rsi
	movq	-96(%rbp), %rdi
	.loc	2 117 9
	movb	$0, -49(%rbp)
Ltmp25:
	leaq	-80(%rbp), %rdx
	callq	__ZN108_$LT$core..iter..adapters..filter..Filter$LT$I$C$P$GT$$u20$as$u20$core..iter..traits..iterator..Iterator$GT$8try_fold17h4fa622c5030adbedE
Ltmp26:
	movq	%rdx, -112(%rbp)
	movq	%rax, -104(%rbp)
	jmp	LBB5_4
LBB5_4:
	.loc	2 0 9
	movq	-112(%rbp), %rdx
	movq	-104(%rbp), %rax
	.loc	2 118 6 is_stmt 1
	addq	$112, %rsp
	popq	%rbp
	retq
LBB5_5:
	.loc	2 111 5
	movq	-16(%rbp), %rdi
	callq	__Unwind_Resume
LBB5_6:
	.loc	2 117 62
	jmp	LBB5_5
Ltmp29:
Lfunc_end5:
	.cfi_endproc
	.section	__TEXT,__gcc_except_tab
	.p2align	2
GCC_except_table5:
Lexception1:
	.byte	255
	.byte	255
	.byte	1
	.uleb128 Lcst_end1-Lcst_begin1
Lcst_begin1:
	.uleb128 Ltmp23-Lfunc_begin5
	.uleb128 Ltmp26-Ltmp23
	.uleb128 Ltmp27-Lfunc_begin5
	.byte	0
	.uleb128 Ltmp26-Lfunc_begin5
	.uleb128 Lfunc_end5-Ltmp26
	.byte	0
	.byte	0
Lcst_end1:
	.p2align	2

	.section	__TEXT,__text,regular,pure_instructions
	.globl	__ZN102_$LT$core..iter..adapters..map..Map$LT$I$C$F$GT$$u20$as$u20$core..iter..traits..iterator..Iterator$GT$8try_fold17hadac0e069c37b30fE
	.p2align	4, 0x90
__ZN102_$LT$core..iter..adapters..map..Map$LT$I$C$F$GT$$u20$as$u20$core..iter..traits..iterator..Iterator$GT$8try_fold17hadac0e069c37b30fE:
Lfunc_begin6:
	.loc	2 111 0
	.cfi_startproc
	.cfi_personality 155, _rust_eh_personality
	.cfi_lsda 16, Lexception2
	pushq	%rbp
	.cfi_def_cfa_offset 16
	.cfi_offset %rbp, -16
	movq	%rsp, %rbp
	.cfi_def_cfa_register %rbp
	subq	$112, %rsp
	movq	%rsi, -104(%rbp)
	movq	%rdi, -96(%rbp)
	movq	%rdi, -88(%rbp)
	movq	%rsi, -48(%rbp)
	movq	%rdx, -32(%rbp)
	movq	%rcx, -24(%rbp)
Ltmp35:
	.loc	2 117 28 prologue_end
	movb	$1, -49(%rbp)
Ltmp30:
	leaq	-80(%rbp), %rdi
	.loc	2 117 34 is_stmt 0
	callq	__ZN4core4iter8adapters3map12map_try_fold17hd180672f82617793E
Ltmp31:
	jmp	LBB6_3
LBB6_1:
	.loc	2 117 62
	testb	$1, -49(%rbp)
	jne	LBB6_6
	jmp	LBB6_5
LBB6_2:
Ltmp34:
	.loc	2 0 62
	movq	%rax, %rcx
	movl	%edx, %eax
	movq	%rcx, -16(%rbp)
	movl	%eax, -8(%rbp)
	jmp	LBB6_1
LBB6_3:
	movq	-104(%rbp), %rsi
	movq	-96(%rbp), %rdi
	.loc	2 117 9
	movb	$0, -49(%rbp)
Ltmp32:
	leaq	-80(%rbp), %rdx
	callq	__ZN4core4iter6traits8iterator8Iterator8try_fold17h664fc60a2746a023E
Ltmp33:
	jmp	LBB6_4
LBB6_4:
	.loc	2 0 9
	movq	-88(%rbp), %rax
	.loc	2 118 6 is_stmt 1
	addq	$112, %rsp
	popq	%rbp
	retq
LBB6_5:
	.loc	2 111 5
	movq	-16(%rbp), %rdi
	callq	__Unwind_Resume
LBB6_6:
	.loc	2 117 62
	jmp	LBB6_5
Ltmp36:
Lfunc_end6:
	.cfi_endproc
	.section	__TEXT,__gcc_except_tab
	.p2align	2
GCC_except_table6:
Lexception2:
	.byte	255
	.byte	255
	.byte	1
	.uleb128 Lcst_end2-Lcst_begin2
Lcst_begin2:
	.uleb128 Ltmp30-Lfunc_begin6
	.uleb128 Ltmp33-Ltmp30
	.uleb128 Ltmp34-Lfunc_begin6
	.byte	0
	.uleb128 Ltmp33-Lfunc_begin6
	.uleb128 Lfunc_end6-Ltmp33
	.byte	0
	.byte	0
Lcst_end2:
	.p2align	2

	.section	__TEXT,__text,regular,pure_instructions
	.globl	__ZN102_$LT$core..iter..adapters..map..Map$LT$I$C$F$GT$$u20$as$u20$core..iter..traits..iterator..Iterator$GT$8try_fold17hc49e0f5ce1cda4daE
	.p2align	4, 0x90
__ZN102_$LT$core..iter..adapters..map..Map$LT$I$C$F$GT$$u20$as$u20$core..iter..traits..iterator..Iterator$GT$8try_fold17hc49e0f5ce1cda4daE:
Lfunc_begin7:
	.loc	2 111 0
	.cfi_startproc
	.cfi_personality 155, _rust_eh_personality
	.cfi_lsda 16, Lexception3
	pushq	%rbp
	.cfi_def_cfa_offset 16
	.cfi_offset %rbp, -16
	movq	%rsp, %rbp
	.cfi_def_cfa_register %rbp
	subq	$112, %rsp
	movq	%rsi, %rax
	movq	%rdi, %rsi
	movq	%rsi, -96(%rbp)
	movq	%rax, -88(%rbp)
	movq	%rsi, -48(%rbp)
	movq	%rax, -40(%rbp)
	movq	%rdx, -32(%rbp)
	movq	%rcx, -24(%rbp)
Ltmp42:
	.loc	2 117 28 prologue_end
	movb	$1, -49(%rbp)
Ltmp37:
	leaq	-80(%rbp), %rdi
	.loc	2 117 34 is_stmt 0
	callq	__ZN4core4iter8adapters3map12map_try_fold17h504b3436f37327f1E
Ltmp38:
	jmp	LBB7_3
LBB7_1:
	.loc	2 117 62
	testb	$1, -49(%rbp)
	jne	LBB7_6
	jmp	LBB7_5
LBB7_2:
Ltmp41:
	.loc	2 0 62
	movq	%rax, %rcx
	movl	%edx, %eax
	movq	%rcx, -16(%rbp)
	movl	%eax, -8(%rbp)
	jmp	LBB7_1
LBB7_3:
	movq	-88(%rbp), %rsi
	movq	-96(%rbp), %rdi
	.loc	2 117 9
	movb	$0, -49(%rbp)
Ltmp39:
	leaq	-80(%rbp), %rdx
	callq	__ZN4core4iter6traits8iterator8Iterator8try_fold17h14214484f4a2428fE
Ltmp40:
	movq	%rdx, -112(%rbp)
	movq	%rax, -104(%rbp)
	jmp	LBB7_4
LBB7_4:
	.loc	2 0 9
	movq	-112(%rbp), %rdx
	movq	-104(%rbp), %rax
	.loc	2 118 6 is_stmt 1
	addq	$112, %rsp
	popq	%rbp
	retq
LBB7_5:
	.loc	2 111 5
	movq	-16(%rbp), %rdi
	callq	__Unwind_Resume
LBB7_6:
	.loc	2 117 62
	jmp	LBB7_5
Ltmp43:
Lfunc_end7:
	.cfi_endproc
	.section	__TEXT,__gcc_except_tab
	.p2align	2
GCC_except_table7:
Lexception3:
	.byte	255
	.byte	255
	.byte	1
	.uleb128 Lcst_end3-Lcst_begin3
Lcst_begin3:
	.uleb128 Ltmp37-Lfunc_begin7
	.uleb128 Ltmp40-Ltmp37
	.uleb128 Ltmp41-Lfunc_begin7
	.byte	0
	.uleb128 Ltmp40-Lfunc_begin7
	.uleb128 Lfunc_end7-Ltmp40
	.byte	0
	.byte	0
Lcst_end3:
	.p2align	2

	.section	__TEXT,__text,regular,pure_instructions
	.globl	__ZN102_$LT$core..iter..adapters..map..Map$LT$I$C$F$GT$$u20$as$u20$core..iter..traits..iterator..Iterator$GT$8try_fold17hdac13d649ec21000E
	.p2align	4, 0x90
__ZN102_$LT$core..iter..adapters..map..Map$LT$I$C$F$GT$$u20$as$u20$core..iter..traits..iterator..Iterator$GT$8try_fold17hdac13d649ec21000E:
Lfunc_begin8:
	.loc	2 111 0
	.cfi_startproc
	.cfi_personality 155, _rust_eh_personality
	.cfi_lsda 16, Lexception4
	pushq	%rbp
	.cfi_def_cfa_offset 16
	.cfi_offset %rbp, -16
	movq	%rsp, %rbp
	.cfi_def_cfa_register %rbp
	subq	$112, %rsp
	movq	%rsi, -104(%rbp)
	movq	%rdi, -96(%rbp)
	movq	%rdi, -88(%rbp)
	movq	%rsi, -48(%rbp)
	movq	%rdx, -32(%rbp)
	movq	%rcx, -24(%rbp)
Ltmp49:
	.loc	2 117 28 prologue_end
	movb	$1, -49(%rbp)
Ltmp44:
	leaq	-80(%rbp), %rdi
	.loc	2 117 34 is_stmt 0
	callq	__ZN4core4iter8adapters3map12map_try_fold17h1a0274f8988ba021E
Ltmp45:
	jmp	LBB8_3
LBB8_1:
	.loc	2 117 62
	testb	$1, -49(%rbp)
	jne	LBB8_6
	jmp	LBB8_5
LBB8_2:
Ltmp48:
	.loc	2 0 62
	movq	%rax, %rcx
	movl	%edx, %eax
	movq	%rcx, -16(%rbp)
	movl	%eax, -8(%rbp)
	jmp	LBB8_1
LBB8_3:
	movq	-104(%rbp), %rsi
	movq	-96(%rbp), %rdi
	.loc	2 117 9
	movb	$0, -49(%rbp)
Ltmp46:
	leaq	-80(%rbp), %rdx
	callq	__ZN4core4iter6traits8iterator8Iterator8try_fold17h918ce74807c09dd5E
Ltmp47:
	jmp	LBB8_4
LBB8_4:
	.loc	2 0 9
	movq	-88(%rbp), %rax
	.loc	2 118 6 is_stmt 1
	addq	$112, %rsp
	popq	%rbp
	retq
LBB8_5:
	.loc	2 111 5
	movq	-16(%rbp), %rdi
	callq	__Unwind_Resume
LBB8_6:
	.loc	2 117 62
	jmp	LBB8_5
Ltmp50:
Lfunc_end8:
	.cfi_endproc
	.section	__TEXT,__gcc_except_tab
	.p2align	2
GCC_except_table8:
Lexception4:
	.byte	255
	.byte	255
	.byte	1
	.uleb128 Lcst_end4-Lcst_begin4
Lcst_begin4:
	.uleb128 Ltmp44-Lfunc_begin8
	.uleb128 Ltmp47-Ltmp44
	.uleb128 Ltmp48-Lfunc_begin8
	.byte	0
	.uleb128 Ltmp47-Lfunc_begin8
	.uleb128 Lfunc_end8-Ltmp47
	.byte	0
	.byte	0
Lcst_end4:
	.p2align	2

	.section	__TEXT,__text,regular,pure_instructions
	.globl	__ZN102_$LT$core..iter..adapters..map..Map$LT$I$C$F$GT$$u20$as$u20$core..iter..traits..iterator..Iterator$GT$8try_fold17hf634988e0e055fe5E
	.p2align	4, 0x90
__ZN102_$LT$core..iter..adapters..map..Map$LT$I$C$F$GT$$u20$as$u20$core..iter..traits..iterator..Iterator$GT$8try_fold17hf634988e0e055fe5E:
Lfunc_begin9:
	.loc	2 111 0
	.cfi_startproc
	.cfi_personality 155, _rust_eh_personality
	.cfi_lsda 16, Lexception5
	pushq	%rbp
	.cfi_def_cfa_offset 16
	.cfi_offset %rbp, -16
	movq	%rsp, %rbp
	.cfi_def_cfa_register %rbp
	subq	$112, %rsp
	movq	%rsi, %rax
	movq	%rdi, %rsi
	movq	%rsi, -96(%rbp)
	movq	%rax, -88(%rbp)
	movq	%rsi, -48(%rbp)
	movq	%rax, -40(%rbp)
	movq	%rdx, -32(%rbp)
	movq	%rcx, -24(%rbp)
Ltmp56:
	.loc	2 117 28 prologue_end
	movb	$1, -49(%rbp)
	.loc	2 117 47 is_stmt 0
	addq	$96, %rsi
Ltmp51:
	leaq	-80(%rbp), %rdi
	.loc	2 117 34
	callq	__ZN4core4iter8adapters3map12map_try_fold17h20d960ca200302dfE
Ltmp52:
	jmp	LBB9_3
LBB9_1:
	.loc	2 117 62
	testb	$1, -49(%rbp)
	jne	LBB9_6
	jmp	LBB9_5
LBB9_2:
Ltmp55:
	.loc	2 0 62
	movq	%rax, %rcx
	movl	%edx, %eax
	movq	%rcx, -16(%rbp)
	movl	%eax, -8(%rbp)
	jmp	LBB9_1
LBB9_3:
	movq	-88(%rbp), %rsi
	movq	-96(%rbp), %rdi
	.loc	2 117 9
	movb	$0, -49(%rbp)
Ltmp53:
	leaq	-80(%rbp), %rdx
	callq	__ZN108_$LT$core..iter..adapters..filter..Filter$LT$I$C$P$GT$$u20$as$u20$core..iter..traits..iterator..Iterator$GT$8try_fold17heecaeccfbd011a5fE
Ltmp54:
	movq	%rdx, -112(%rbp)
	movq	%rax, -104(%rbp)
	jmp	LBB9_4
LBB9_4:
	.loc	2 0 9
	movq	-112(%rbp), %rdx
	movq	-104(%rbp), %rax
	.loc	2 118 6 is_stmt 1
	addq	$112, %rsp
	popq	%rbp
	retq
LBB9_5:
	.loc	2 111 5
	movq	-16(%rbp), %rdi
	callq	__Unwind_Resume
LBB9_6:
	.loc	2 117 62
	jmp	LBB9_5
Ltmp57:
Lfunc_end9:
	.cfi_endproc
	.section	__TEXT,__gcc_except_tab
	.p2align	2
GCC_except_table9:
Lexception5:
	.byte	255
	.byte	255
	.byte	1
	.uleb128 Lcst_end5-Lcst_begin5
Lcst_begin5:
	.uleb128 Ltmp51-Lfunc_begin9
	.uleb128 Ltmp54-Ltmp51
	.uleb128 Ltmp55-Lfunc_begin9
	.byte	0
	.uleb128 Ltmp54-Lfunc_begin9
	.uleb128 Lfunc_end9-Ltmp54
	.byte	0
	.byte	0
Lcst_end5:
	.p2align	2

	.section	__TEXT,__text,regular,pure_instructions
	.globl	__ZN102_$LT$core..iter..adapters..map..Map$LT$I$C$F$GT$$u20$as$u20$core..iter..traits..iterator..Iterator$GT$9size_hint17h2d43506c7b98ba0bE
	.p2align	4, 0x90
__ZN102_$LT$core..iter..adapters..map..Map$LT$I$C$F$GT$$u20$as$u20$core..iter..traits..iterator..Iterator$GT$9size_hint17h2d43506c7b98ba0bE:
Lfunc_begin10:
	.loc	2 107 0
	.cfi_startproc
	pushq	%rbp
	.cfi_def_cfa_offset 16
	.cfi_offset %rbp, -16
	movq	%rsp, %rbp
	.cfi_def_cfa_register %rbp
	subq	$16, %rsp
	movq	%rdi, %rax
	movq	%rax, -16(%rbp)
	movq	%rsi, -8(%rbp)
Ltmp58:
	.loc	2 108 9 prologue_end
	callq	__ZN4core4iter6traits8iterator8Iterator9size_hint17h602b1082a5625e3aE
	movq	-16(%rbp), %rax
	.loc	2 109 6
	addq	$16, %rsp
	popq	%rbp
	retq
Ltmp59:
Lfunc_end10:
	.cfi_endproc

	.globl	__ZN102_$LT$core..iter..adapters..map..Map$LT$I$C$F$GT$$u20$as$u20$core..iter..traits..iterator..Iterator$GT$9size_hint17h48f0bafae1812924E
	.p2align	4, 0x90
__ZN102_$LT$core..iter..adapters..map..Map$LT$I$C$F$GT$$u20$as$u20$core..iter..traits..iterator..Iterator$GT$9size_hint17h48f0bafae1812924E:
Lfunc_begin11:
	.loc	2 107 0
	.cfi_startproc
	pushq	%rbp
	.cfi_def_cfa_offset 16
	.cfi_offset %rbp, -16
	movq	%rsp, %rbp
	.cfi_def_cfa_register %rbp
	subq	$16, %rsp
	movq	%rdi, %rax
	movq	%rax, -16(%rbp)
	movq	%rsi, -8(%rbp)
Ltmp60:
	.loc	2 108 9 prologue_end
	callq	__ZN86_$LT$core..option..Iter$LT$A$GT$$u20$as$u20$core..iter..traits..iterator..Iterator$GT$9size_hint17h39698fa90d79d596E
	movq	-16(%rbp), %rax
	.loc	2 109 6
	addq	$16, %rsp
	popq	%rbp
	retq
Ltmp61:
Lfunc_end11:
	.cfi_endproc

	.globl	__ZN102_$LT$core..iter..adapters..map..Map$LT$I$C$F$GT$$u20$as$u20$core..iter..traits..iterator..Iterator$GT$9size_hint17h569ac43ba9aece25E
	.p2align	4, 0x90
__ZN102_$LT$core..iter..adapters..map..Map$LT$I$C$F$GT$$u20$as$u20$core..iter..traits..iterator..Iterator$GT$9size_hint17h569ac43ba9aece25E:
Lfunc_begin12:
	.loc	2 107 0
	.cfi_startproc
	pushq	%rbp
	.cfi_def_cfa_offset 16
	.cfi_offset %rbp, -16
	movq	%rsp, %rbp
	.cfi_def_cfa_register %rbp
	subq	$16, %rsp
	movq	%rdi, %rax
	movq	%rax, -16(%rbp)
	movq	%rsi, -8(%rbp)
Ltmp62:
	.loc	2 108 9 prologue_end
	callq	__ZN108_$LT$core..iter..adapters..filter..Filter$LT$I$C$P$GT$$u20$as$u20$core..iter..traits..iterator..Iterator$GT$9size_hint17h1b0b571fa08d5086E
	movq	-16(%rbp), %rax
	.loc	2 109 6
	addq	$16, %rsp
	popq	%rbp
	retq
Ltmp63:
Lfunc_end12:
	.cfi_endproc

	.globl	__ZN102_$LT$core..iter..adapters..map..Map$LT$I$C$F$GT$$u20$as$u20$core..iter..traits..iterator..Iterator$GT$9size_hint17h783a864375b47c7cE
	.p2align	4, 0x90
__ZN102_$LT$core..iter..adapters..map..Map$LT$I$C$F$GT$$u20$as$u20$core..iter..traits..iterator..Iterator$GT$9size_hint17h783a864375b47c7cE:
Lfunc_begin13:
	.loc	2 107 0
	.cfi_startproc
	pushq	%rbp
	.cfi_def_cfa_offset 16
	.cfi_offset %rbp, -16
	movq	%rsp, %rbp
	.cfi_def_cfa_register %rbp
	subq	$16, %rsp
	movq	%rdi, %rax
	movq	%rax, -16(%rbp)
	movq	%rsi, -8(%rbp)
Ltmp64:
	.loc	2 108 9 prologue_end
	callq	__ZN86_$LT$core..option..Iter$LT$A$GT$$u20$as$u20$core..iter..traits..iterator..Iterator$GT$9size_hint17h39698fa90d79d596E
	movq	-16(%rbp), %rax
	.loc	2 109 6
	addq	$16, %rsp
	popq	%rbp
	retq
Ltmp65:
Lfunc_end13:
	.cfi_endproc

	.globl	__ZN102_$LT$core..iter..adapters..map..Map$LT$I$C$F$GT$$u20$as$u20$core..iter..traits..iterator..Iterator$GT$9size_hint17hca0b9f00ca313abbE
	.p2align	4, 0x90
__ZN102_$LT$core..iter..adapters..map..Map$LT$I$C$F$GT$$u20$as$u20$core..iter..traits..iterator..Iterator$GT$9size_hint17hca0b9f00ca313abbE:
Lfunc_begin14:
	.loc	2 107 0
	.cfi_startproc
	pushq	%rbp
	.cfi_def_cfa_offset 16
	.cfi_offset %rbp, -16
	movq	%rsp, %rbp
	.cfi_def_cfa_register %rbp
	subq	$16, %rsp
	movq	%rdi, %rax
	movq	%rax, -16(%rbp)
	movq	%rsi, -8(%rbp)
Ltmp66:
	.loc	2 108 9 prologue_end
	callq	__ZN108_$LT$core..iter..adapters..filter..Filter$LT$I$C$P$GT$$u20$as$u20$core..iter..traits..iterator..Iterator$GT$9size_hint17h0a1e83e7e8af4d2eE
	movq	-16(%rbp), %rax
	.loc	2 109 6
	addq	$16, %rsp
	popq	%rbp
	retq
Ltmp67:
Lfunc_end14:
	.cfi_endproc

	.globl	__ZN102_$LT$core..iter..adapters..zip..Zip$LT$A$C$B$GT$$u20$as$u20$core..iter..traits..iterator..Iterator$GT$4next17hf644bf810bb4ad22E
	.p2align	4, 0x90
__ZN102_$LT$core..iter..adapters..zip..Zip$LT$A$C$B$GT$$u20$as$u20$core..iter..traits..iterator..Iterator$GT$4next17hf644bf810bb4ad22E:
Lfunc_begin15:
	.file	3 "/rustc/2c8cc343237b8f7d5a3c3703e3a87f2eb2c54a74/library/core/src/iter/adapters" "zip.rs"
	.loc	3 83 0
	.cfi_startproc
	pushq	%rbp
	.cfi_def_cfa_offset 16
	.cfi_offset %rbp, -16
	movq	%rsp, %rbp
	.cfi_def_cfa_register %rbp
	subq	$32, %rsp
	movq	%rdi, -16(%rbp)
Ltmp68:
	.loc	3 84 9 prologue_end
	callq	__ZN111_$LT$core..iter..adapters..zip..Zip$LT$A$C$B$GT$$u20$as$u20$core..iter..adapters..zip..ZipImpl$LT$A$C$B$GT$$GT$4next17h42567d4d0f3e8cd6E
	movl	%eax, %ecx
	movl	%ecx, -8(%rbp)
	shrq	$32, %rax
	movw	%ax, -4(%rbp)
	movw	-4(%rbp), %ax
	movw	%ax, -20(%rbp)
	movl	-8(%rbp), %eax
	movl	%eax, -24(%rbp)
	.loc	3 85 6
	movl	-24(%rbp), %eax
	movzwl	-20(%rbp), %ecx
	shlq	$32, %rcx
	orq	%rcx, %rax
	addq	$32, %rsp
	popq	%rbp
	retq
Ltmp69:
Lfunc_end15:
	.cfi_endproc

	.globl	__ZN103_$LT$alloc..vec..into_iter..IntoIter$LT$T$C$A$GT$$u20$as$u20$core..iter..traits..iterator..Iterator$GT$10advance_by17h89142a7f26b92083E
	.p2align	4, 0x90
__ZN103_$LT$alloc..vec..into_iter..IntoIter$LT$T$C$A$GT$$u20$as$u20$core..iter..traits..iterator..Iterator$GT$10advance_by17h89142a7f26b92083E:
Lfunc_begin16:
	.file	4 "/rustc/2c8cc343237b8f7d5a3c3703e3a87f2eb2c54a74/library/alloc/src/vec" "into_iter.rs"
	.loc	4 216 0
	.cfi_startproc
	pushq	%rbp
	.cfi_def_cfa_offset 16
	.cfi_offset %rbp, -16
	movq	%rsp, %rbp
	.cfi_def_cfa_register %rbp
	subq	$320, %rsp
	movq	%rsi, -320(%rbp)
	movq	%rdi, -304(%rbp)
	movq	%rsi, -232(%rbp)
Ltmp70:
	.loc	4 217 25 prologue_end
	leaq	-304(%rbp), %rdi
	callq	__ZN83_$LT$$RF$mut$u20$I$u20$as$u20$core..iter..traits..exact_size..ExactSizeIterator$GT$3len17hec448aa93799a439E
	movq	-320(%rbp), %rsi
	movq	%rax, %rdi
	movq	%rdi, -216(%rbp)
	.loc	4 217 40 is_stmt 0
	movq	%rsi, -208(%rbp)
Ltmp71:
	.file	5 "/rustc/2c8cc343237b8f7d5a3c3703e3a87f2eb2c54a74/library/core/src" "cmp.rs"
	.loc	5 833 13 is_stmt 1
	callq	__ZN4core3cmp6min_by17h3c5b348fe89a6bf2E
	movq	%rax, -312(%rbp)
	movq	%rax, -200(%rbp)
Ltmp72:
	.loc	4 218 53
	movq	-304(%rbp), %rcx
	movq	8(%rcx), %rcx
	movq	%rcx, -192(%rbp)
	.loc	4 218 73 is_stmt 0
	movq	%rax, -184(%rbp)
Ltmp73:
	.file	6 "/rustc/2c8cc343237b8f7d5a3c3703e3a87f2eb2c54a74/library/core/src/ptr" "mod.rs"
	.loc	6 766 24 is_stmt 1
	movq	%rcx, -176(%rbp)
Ltmp74:
	.file	7 "/rustc/2c8cc343237b8f7d5a3c3703e3a87f2eb2c54a74/library/core/src/ptr" "mut_ptr.rs"
	.loc	7 60 9
	movq	%rcx, -168(%rbp)
Ltmp75:
	.loc	6 766 37
	movq	%rax, -160(%rbp)
Ltmp76:
	.file	8 "/rustc/2c8cc343237b8f7d5a3c3703e3a87f2eb2c54a74/library/core/src/ptr" "metadata.rs"
	.loc	8 135 36
	movq	%rcx, -264(%rbp)
	movq	%rax, -256(%rbp)
	.loc	8 135 14 is_stmt 0
	movq	-264(%rbp), %rcx
	movq	-256(%rbp), %rax
	movq	%rcx, -280(%rbp)
	movq	%rax, -272(%rbp)
	movq	-280(%rbp), %rcx
	movq	-272(%rbp), %rax
	movq	%rcx, -152(%rbp)
	movq	%rax, -144(%rbp)
Ltmp77:
	.loc	4 219 12 is_stmt 1
	xorl	%eax, %eax
	testb	$1, %al
	jne	LBB16_2
	.loc	4 0 12 is_stmt 0
	movq	-312(%rbp), %rcx
	.loc	4 224 33 is_stmt 1
	movq	-304(%rbp), %rax
	movq	8(%rax), %rax
	movq	%rax, -40(%rbp)
	.loc	4 224 46 is_stmt 0
	movq	%rcx, -32(%rbp)
Ltmp78:
	.file	9 "/rustc/2c8cc343237b8f7d5a3c3703e3a87f2eb2c54a74/library/core/src/ptr" "const_ptr.rs"
	.loc	9 932 18 is_stmt 1
	movq	%rax, -24(%rbp)
	.loc	9 932 30 is_stmt 0
	movq	%rcx, -16(%rbp)
Ltmp79:
	.loc	9 473 18 is_stmt 1
	shlq	$3, %rcx
	addq	%rcx, %rax
	movq	%rax, -8(%rbp)
	movq	-8(%rbp), %rcx
Ltmp80:
	.loc	4 224 13
	movq	-304(%rbp), %rax
	movq	%rcx, 8(%rax)
	.loc	4 219 9
	jmp	LBB16_3
LBB16_2:
	.loc	4 0 9 is_stmt 0
	movq	-312(%rbp), %rdx
	.loc	4 221 24 is_stmt 1
	movq	-304(%rbp), %rax
	movq	16(%rax), %rax
	movq	%rax, -136(%rbp)
	.loc	4 221 51 is_stmt 0
	movq	%rdx, -128(%rbp)
Ltmp81:
	.loc	9 1198 9 is_stmt 1
	movq	%rax, -120(%rbp)
Ltmp82:
	.loc	9 61 9
	movq	%rax, -112(%rbp)
Ltmp83:
	.loc	9 1198 40
	movq	%rdx, -104(%rbp)
Ltmp84:
	.loc	9 1180 9
	movq	%rax, -96(%rbp)
	.loc	9 1180 30 is_stmt 0
	movq	%rdx, -88(%rbp)
Ltmp85:
	.file	10 "/rustc/2c8cc343237b8f7d5a3c3703e3a87f2eb2c54a74/library/core/src/num" "int_macros.rs"
	.loc	10 1339 40 is_stmt 1
	movq	%rdx, -80(%rbp)
Ltmp86:
	.loc	10 1164 13
	xorl	%ecx, %ecx
	subq	%rdx, %rcx
	movq	%rcx, -72(%rbp)
Ltmp87:
	.loc	9 555 18
	addq	%rcx, %rax
	movq	%rax, -64(%rbp)
	movq	-64(%rbp), %rax
	movq	%rax, -56(%rbp)
Ltmp88:
	.loc	9 100 29
	movq	%rax, -48(%rbp)
Ltmp89:
	.loc	8 118 36
	movq	%rax, -240(%rbp)
	.loc	8 118 14 is_stmt 0
	movq	-240(%rbp), %rax
	movq	%rax, -248(%rbp)
	movq	-248(%rbp), %rcx
Ltmp90:
	.loc	4 221 13 is_stmt 1
	movq	-304(%rbp), %rax
	movq	%rcx, 16(%rax)
LBB16_3:
	.loc	4 0 13 is_stmt 0
	movq	-312(%rbp), %rax
	movq	-320(%rbp), %rcx
	.loc	4 230 12 is_stmt 1
	cmpq	%rcx, %rax
	jb	LBB16_5
	.loc	4 233 9
	movq	$0, -296(%rbp)
Ltmp91:
	.loc	4 234 6
	jmp	LBB16_6
LBB16_5:
	.loc	4 0 6 is_stmt 0
	movq	-312(%rbp), %rax
Ltmp92:
	.loc	4 231 20 is_stmt 1
	movq	%rax, -288(%rbp)
	movq	$1, -296(%rbp)
Ltmp93:
LBB16_6:
	.loc	4 234 6
	movq	-296(%rbp), %rax
	movq	-288(%rbp), %rdx
	addq	$320, %rsp
	popq	%rbp
	retq
Ltmp94:
Lfunc_end16:
	.cfi_endproc

	.globl	__ZN103_$LT$alloc..vec..into_iter..IntoIter$LT$T$C$A$GT$$u20$as$u20$core..iter..traits..iterator..Iterator$GT$4next17h4e2f8fc546967d85E
	.p2align	4, 0x90
__ZN103_$LT$alloc..vec..into_iter..IntoIter$LT$T$C$A$GT$$u20$as$u20$core..iter..traits..iterator..Iterator$GT$4next17h4e2f8fc546967d85E:
Lfunc_begin17:
	.loc	4 187 0
	.cfi_startproc
	pushq	%rbp
	.cfi_def_cfa_offset 16
	.cfi_offset %rbp, -16
	movq	%rsp, %rbp
	.cfi_def_cfa_register %rbp
	subq	$224, %rsp
	movq	%rdi, -216(%rbp)
	movq	%rdi, -168(%rbp)
Ltmp95:
	.loc	4 188 12 prologue_end
	movq	8(%rdi), %rax
	cmpq	16(%rdi), %rax
	je	LBB17_2
	.loc	4 190 19
	xorl	%eax, %eax
	testb	$1, %al
	jne	LBB17_5
	jmp	LBB17_4
LBB17_2:
	.loc	4 189 13
	movl	$1114112, -204(%rbp)
LBB17_3:
	.loc	4 203 6
	movw	-208(%rbp), %ax
	movl	-204(%rbp), %edx
	addq	$224, %rsp
	popq	%rbp
	retq
LBB17_4:
	.loc	4 0 6 is_stmt 0
	movq	-216(%rbp), %rcx
	.loc	4 198 23 is_stmt 1
	movq	8(%rcx), %rax
	movq	%rax, -64(%rbp)
Ltmp96:
	.loc	4 199 33
	movq	8(%rcx), %rdx
	movq	%rdx, -56(%rbp)
Ltmp97:
	.loc	9 932 18
	movq	%rdx, -48(%rbp)
Ltmp98:
	.loc	9 473 18
	addq	$8, %rdx
	movq	%rdx, -40(%rbp)
	movq	-40(%rbp), %rdx
Ltmp99:
	.loc	4 199 13
	movq	%rdx, 8(%rcx)
	.loc	4 201 37
	movq	%rax, -32(%rbp)
Ltmp100:
	.loc	6 1157 34
	leaq	-176(%rbp), %rcx
	movq	%rcx, -24(%rbp)
	.loc	6 1157 9 is_stmt 0
	movq	(%rax), %rax
	movq	%rax, -176(%rbp)
	.loc	6 1158 9 is_stmt 1
	movw	-176(%rbp), %cx
	movl	-172(%rbp), %eax
	movw	%cx, -16(%rbp)
	movl	%eax, -12(%rbp)
Ltmp101:
	.file	11 "/rustc/2c8cc343237b8f7d5a3c3703e3a87f2eb2c54a74/library/core/src/mem" "maybe_uninit.rs"
	.loc	11 627 38
	movw	%cx, -8(%rbp)
	movl	%eax, -4(%rbp)
Ltmp102:
	.loc	4 201 13
	movw	%cx, -208(%rbp)
	movl	%eax, -204(%rbp)
Ltmp103:
	.loc	4 190 16
	jmp	LBB17_6
LBB17_5:
	.loc	4 0 16 is_stmt 0
	movq	-216(%rbp), %rax
	.loc	4 193 24 is_stmt 1
	movq	16(%rax), %rcx
	movq	%rcx, -152(%rbp)
Ltmp104:
	.loc	9 1198 9
	movq	%rcx, -144(%rbp)
Ltmp105:
	.loc	9 61 9
	movq	%rcx, -136(%rbp)
Ltmp106:
	.loc	9 1180 9
	movq	%rcx, -128(%rbp)
Ltmp107:
	.loc	9 555 18
	addq	$-1, %rcx
	movq	%rcx, -120(%rbp)
	movq	-120(%rbp), %rcx
	movq	%rcx, -112(%rbp)
Ltmp108:
	.loc	9 100 29
	movq	%rcx, -104(%rbp)
Ltmp109:
	.loc	8 118 36
	movq	%rcx, -192(%rbp)
	.loc	8 118 14 is_stmt 0
	movq	-192(%rbp), %rcx
	movq	%rcx, -200(%rbp)
	movq	-200(%rbp), %rcx
Ltmp110:
	.loc	4 193 13 is_stmt 1
	movq	%rcx, 16(%rax)
Ltmp111:
	.loc	11 399 13
	leaq	-184(%rbp), %rax
	movq	%rax, -96(%rbp)
Ltmp112:
	.loc	11 569 9
	leaq	-184(%rbp), %rax
	movq	%rax, -88(%rbp)
Ltmp113:
	.loc	7 1488 30
	leaq	-184(%rbp), %rax
	movq	%rax, -80(%rbp)
Ltmp114:
	.file	12 "/rustc/2c8cc343237b8f7d5a3c3703e3a87f2eb2c54a74/library/core/src" "intrinsics.rs"
	.loc	12 2529 9
	leaq	-184(%rbp), %rdi
	xorl	%esi, %esi
	movl	$8, %edx
	callq	_memset
Ltmp115:
	.loc	11 627 38
	movw	-184(%rbp), %cx
	movl	-180(%rbp), %eax
	movw	%cx, -72(%rbp)
	movl	%eax, -68(%rbp)
Ltmp116:
	.loc	4 196 13
	movw	%cx, -208(%rbp)
	movl	%eax, -204(%rbp)
LBB17_6:
	.loc	4 188 9
	jmp	LBB17_3
Ltmp117:
Lfunc_end17:
	.cfi_endproc
	.file	13 "/rustc/2c8cc343237b8f7d5a3c3703e3a87f2eb2c54a74/library/core/src/mem" "mod.rs"

	.globl	__ZN103_$LT$alloc..vec..into_iter..IntoIter$LT$T$C$A$GT$$u20$as$u20$core..iter..traits..iterator..Iterator$GT$9size_hint17h9e93a72c9574868dE
	.p2align	4, 0x90
__ZN103_$LT$alloc..vec..into_iter..IntoIter$LT$T$C$A$GT$$u20$as$u20$core..iter..traits..iterator..Iterator$GT$9size_hint17h9e93a72c9574868dE:
Lfunc_begin18:
	.loc	4 206 0
	.cfi_startproc
	pushq	%rbp
	.cfi_def_cfa_offset 16
	.cfi_offset %rbp, -16
	movq	%rsp, %rbp
	.cfi_def_cfa_register %rbp
	subq	$128, %rsp
	movq	%rsi, -120(%rbp)
	movq	%rdi, -112(%rbp)
	movq	%rdi, -104(%rbp)
	movq	%rsi, -72(%rbp)
Ltmp118:
	.loc	4 207 24 prologue_end
	xorl	%eax, %eax
	testb	$1, %al
	jne	LBB18_2
	.loc	4 0 24 is_stmt 0
	movq	-120(%rbp), %rax
	.loc	4 210 22 is_stmt 1
	movq	16(%rax), %rdi
	.loc	4 210 39 is_stmt 0
	movq	8(%rax), %rsi
	.loc	4 210 22
	callq	__ZN4core3ptr9const_ptr33_$LT$impl$u20$$BP$const$u20$T$GT$7sub_ptr17h1c3f17fb681e2a4aE
	movq	%rax, -96(%rbp)
	.loc	4 207 21 is_stmt 1
	jmp	LBB18_3
LBB18_2:
	.loc	4 0 21 is_stmt 0
	movq	-120(%rbp), %rcx
	.loc	4 208 13 is_stmt 1
	movq	16(%rcx), %rax
	movq	%rax, -64(%rbp)
Ltmp119:
	.loc	9 209 33
	movq	%rax, -56(%rbp)
	.loc	9 209 18 is_stmt 0
	movq	%rax, -48(%rbp)
	movq	-48(%rbp), %rax
	movq	%rax, -40(%rbp)
Ltmp120:
	.loc	4 208 42 is_stmt 1
	movq	8(%rcx), %rcx
	movq	%rcx, -32(%rbp)
Ltmp121:
	.loc	9 209 33
	movq	%rcx, -24(%rbp)
	.loc	9 209 18 is_stmt 0
	movq	%rcx, -16(%rbp)
	movq	-16(%rbp), %rcx
	movq	%rcx, -8(%rbp)
Ltmp122:
	.file	14 "/rustc/2c8cc343237b8f7d5a3c3703e3a87f2eb2c54a74/library/core/src/num" "uint_macros.rs"
	.loc	14 1203 13 is_stmt 1
	subq	%rcx, %rax
	movq	%rax, -96(%rbp)
Ltmp123:
LBB18_3:
	.loc	14 0 13 is_stmt 0
	movq	-104(%rbp), %rax
	movq	-112(%rbp), %rcx
Ltmp124:
	.loc	4 212 10 is_stmt 1
	movq	-96(%rbp), %rdx
	.loc	4 212 22 is_stmt 0
	movq	-96(%rbp), %rsi
	.loc	4 212 17
	movq	%rsi, -80(%rbp)
	movq	$1, -88(%rbp)
	.loc	4 212 9
	movq	%rdx, (%rcx)
	movq	-88(%rbp), %rsi
	movq	-80(%rbp), %rdx
	movq	%rsi, 8(%rcx)
	movq	%rdx, 16(%rcx)
Ltmp125:
	.loc	4 213 6 is_stmt 1
	addq	$128, %rsp
	popq	%rbp
	retq
Ltmp126:
Lfunc_end18:
	.cfi_endproc

	.p2align	4, 0x90
__ZN103_$LT$ttf_parser..tables..glyf..CompositeGlyphIter$u20$as$u20$core..iter..traits..iterator..Iterator$GT$4next17h4fd445533fbba9ceE:
Lfunc_begin19:
	.loc	1 247 0
	.cfi_startproc
	pushq	%rbp
	.cfi_def_cfa_offset 16
	.cfi_offset %rbp, -16
	movq	%rsp, %rbp
	.cfi_def_cfa_register %rbp
	subq	$368, %rsp
	movq	%rsi, -360(%rbp)
	movq	%rdi, %rax
	movq	-360(%rbp), %rdi
	movq	%rax, -352(%rbp)
	movq	%rax, -344(%rbp)
	movq	%rdi, -144(%rbp)
Ltmp127:
	.loc	1 248 41 prologue_end
	callq	__ZN10ttf_parser6parser6Stream4read17h53fa956783463716E
	movw	%ax, %di
	movw	%dx, %si
	callq	__ZN75_$LT$core..option..Option$LT$T$GT$$u20$as$u20$core..ops..try_trait..Try$GT$6branch17h56657c8359385836E
	movw	%dx, -326(%rbp)
	movw	%ax, -328(%rbp)
	movzwl	-328(%rbp), %eax
	cmpq	$0, %rax
	jne	LBB19_2
	.loc	1 0 41 is_stmt 0
	movq	-360(%rbp), %rdi
	.loc	1 248 41
	movw	-326(%rbp), %ax
	movw	%ax, -32(%rbp)
	.loc	1 248 21
	movw	%ax, -330(%rbp)
Ltmp128:
	.loc	1 249 24 is_stmt 1
	callq	__ZN10ttf_parser6parser6Stream4read17h07e35b3d3d797ee2E
	movw	%ax, %di
	movw	%dx, %si
	callq	__ZN75_$LT$core..option..Option$LT$T$GT$$u20$as$u20$core..ops..try_trait..Try$GT$6branch17hccbb7eaff9ecc74dE
	movw	%dx, -318(%rbp)
	movw	%ax, -320(%rbp)
	movzwl	-320(%rbp), %eax
	cmpq	$0, %rax
	je	LBB19_4
	jmp	LBB19_5
Ltmp129:
LBB19_2:
	.loc	1 0 24 is_stmt 0
	movq	-352(%rbp), %rdi
Ltmp130:
	.loc	1 248 41 is_stmt 1
	callq	__ZN84_$LT$core..option..Option$LT$T$GT$$u20$as$u20$core..ops..try_trait..FromResidual$GT$13from_residual17hbc959a6df465d26fE
Ltmp131:
LBB19_3:
	.loc	1 0 41 is_stmt 0
	movq	-344(%rbp), %rax
	.loc	1 286 6 is_stmt 1
	addq	$368, %rsp
	popq	%rbp
	retq
LBB19_4:
Ltmp132:
	.loc	1 249 24
	movw	-318(%rbp), %ax
	movw	%ax, -362(%rbp)
	movw	%ax, -30(%rbp)
Ltmp133:
	.loc	1 249 24 is_stmt 0
	movw	%ax, -28(%rbp)
Ltmp134:
	.loc	1 251 22 is_stmt 1
	leaq	-312(%rbp), %rdi
	callq	__ZN78_$LT$ttf_parser..tables..glyf..Transform$u20$as$u20$core..default..Default$GT$7default17h3ca7a3d801af453aE
Ltmp135:
	.loc	1 253 12
	movzwl	-330(%rbp), %edi
	callq	__ZN10ttf_parser6tables4glyf19CompositeGlyphFlags18args_are_xy_values17h6cb3fe2ac3f5ec44E
	testb	$1, %al
	jne	LBB19_7
	jmp	LBB19_6
Ltmp136:
LBB19_5:
	.loc	1 0 12 is_stmt 0
	movq	-352(%rbp), %rdi
Ltmp137:
	.loc	1 249 24 is_stmt 1
	callq	__ZN84_$LT$core..option..Option$LT$T$GT$$u20$as$u20$core..ops..try_trait..FromResidual$GT$13from_residual17hbc959a6df465d26fE
	jmp	LBB19_3
Ltmp138:
LBB19_6:
	.loc	1 263 12
	movzwl	-330(%rbp), %edi
	callq	__ZN10ttf_parser6tables4glyf19CompositeGlyphFlags20we_have_a_two_by_two17h93563db19d8fae7dE
	testb	$1, %al
	jne	LBB19_19
	jmp	LBB19_18
LBB19_7:
	.loc	1 254 16
	movzwl	-330(%rbp), %edi
	callq	__ZN10ttf_parser6tables4glyf19CompositeGlyphFlags21arg_1_and_2_are_words17hab7fed2b9bbd9e38E
	testb	$1, %al
	jne	LBB19_9
	.loc	1 0 16 is_stmt 0
	movq	-360(%rbp), %rdi
	.loc	1 258 34 is_stmt 1
	callq	__ZN10ttf_parser6parser6Stream4read17h8ff124779f8fe745E
	movzbl	%dl, %esi
	movzbl	%al, %edi
	andl	$1, %edi
	callq	__ZN75_$LT$core..option..Option$LT$T$GT$$u20$as$u20$core..ops..try_trait..Try$GT$6branch17h769042de787eff2aE
	movb	%dl, -271(%rbp)
	movb	%al, -272(%rbp)
	movb	-272(%rbp), %al
	andb	$1, %al
	movzbl	%al, %eax
	cmpq	$0, %rax
	je	LBB19_14
	jmp	LBB19_15
LBB19_9:
	.loc	1 0 34 is_stmt 0
	movq	-360(%rbp), %rdi
	.loc	1 255 34 is_stmt 1
	callq	__ZN10ttf_parser6parser6Stream4read17h2b23b8e6a4403565E
	movw	%ax, %di
	movw	%dx, %si
	callq	__ZN75_$LT$core..option..Option$LT$T$GT$$u20$as$u20$core..ops..try_trait..Try$GT$6branch17h9c0821f259f51a15E
	movw	%dx, -286(%rbp)
	movw	%ax, -288(%rbp)
	movzwl	-288(%rbp), %eax
	cmpq	$0, %rax
	jne	LBB19_11
	.loc	1 0 34 is_stmt 0
	movq	-360(%rbp), %rdi
	.loc	1 255 34
	movswl	-286(%rbp), %eax
	movw	%ax, %cx
	movw	%cx, -26(%rbp)
	movw	%cx, -2(%rbp)
Ltmp139:
	.file	15 "/rustc/2c8cc343237b8f7d5a3c3703e3a87f2eb2c54a74/library/core/src/convert" "num.rs"
	.loc	15 54 17 is_stmt 1
	cvtsi2ss	%eax, %xmm0
Ltmp140:
	.loc	1 255 17
	movss	%xmm0, -296(%rbp)
	.loc	1 256 34
	callq	__ZN10ttf_parser6parser6Stream4read17h2b23b8e6a4403565E
	movw	%ax, %di
	movw	%dx, %si
	callq	__ZN75_$LT$core..option..Option$LT$T$GT$$u20$as$u20$core..ops..try_trait..Try$GT$6branch17h9c0821f259f51a15E
	movw	%dx, -278(%rbp)
	movw	%ax, -280(%rbp)
	movzwl	-280(%rbp), %eax
	cmpq	$0, %rax
	je	LBB19_12
	jmp	LBB19_13
LBB19_11:
	.loc	1 0 34 is_stmt 0
	movq	-352(%rbp), %rdi
Ltmp141:
	.loc	1 255 34 is_stmt 1
	callq	__ZN84_$LT$core..option..Option$LT$T$GT$$u20$as$u20$core..ops..try_trait..FromResidual$GT$13from_residual17hbc959a6df465d26fE
	jmp	LBB19_3
Ltmp142:
LBB19_12:
	.loc	1 256 34
	movswl	-278(%rbp), %eax
	movw	%ax, %cx
	movw	%cx, -24(%rbp)
	movw	%cx, -4(%rbp)
Ltmp143:
	.loc	15 54 17
	cvtsi2ss	%eax, %xmm0
Ltmp144:
	.loc	1 256 17
	movss	%xmm0, -292(%rbp)
	.loc	1 254 13
	jmp	LBB19_6
LBB19_13:
	.loc	1 0 13 is_stmt 0
	movq	-352(%rbp), %rdi
Ltmp145:
	.loc	1 256 34 is_stmt 1
	callq	__ZN84_$LT$core..option..Option$LT$T$GT$$u20$as$u20$core..ops..try_trait..FromResidual$GT$13from_residual17hbc959a6df465d26fE
	jmp	LBB19_3
Ltmp146:
LBB19_14:
	.loc	1 0 34 is_stmt 0
	movq	-360(%rbp), %rdi
	.loc	1 258 34 is_stmt 1
	movsbl	-271(%rbp), %eax
	movb	%al, %cl
	movb	%cl, -22(%rbp)
	movb	%cl, -5(%rbp)
Ltmp147:
	.loc	15 54 17
	cvtsi2ss	%eax, %xmm0
Ltmp148:
	.loc	1 258 17
	movss	%xmm0, -296(%rbp)
	.loc	1 259 34
	callq	__ZN10ttf_parser6parser6Stream4read17h8ff124779f8fe745E
	movzbl	%dl, %esi
	movzbl	%al, %edi
	andl	$1, %edi
	callq	__ZN75_$LT$core..option..Option$LT$T$GT$$u20$as$u20$core..ops..try_trait..Try$GT$6branch17h769042de787eff2aE
	movb	%dl, -263(%rbp)
	movb	%al, -264(%rbp)
	movb	-264(%rbp), %al
	andb	$1, %al
	movzbl	%al, %eax
	cmpq	$0, %rax
	je	LBB19_16
	jmp	LBB19_17
LBB19_15:
	.loc	1 0 34 is_stmt 0
	movq	-352(%rbp), %rdi
Ltmp149:
	.loc	1 258 34 is_stmt 1
	callq	__ZN84_$LT$core..option..Option$LT$T$GT$$u20$as$u20$core..ops..try_trait..FromResidual$GT$13from_residual17hbc959a6df465d26fE
	jmp	LBB19_3
Ltmp150:
LBB19_16:
	.loc	1 259 34
	movsbl	-263(%rbp), %eax
	movb	%al, %cl
	movb	%cl, -21(%rbp)
	movb	%cl, -6(%rbp)
Ltmp151:
	.loc	15 54 17
	cvtsi2ss	%eax, %xmm0
Ltmp152:
	.loc	1 259 17
	movss	%xmm0, -292(%rbp)
	.loc	1 254 13
	jmp	LBB19_6
LBB19_17:
	.loc	1 0 13 is_stmt 0
	movq	-352(%rbp), %rdi
Ltmp153:
	.loc	1 259 34 is_stmt 1
	callq	__ZN84_$LT$core..option..Option$LT$T$GT$$u20$as$u20$core..ops..try_trait..FromResidual$GT$13from_residual17hbc959a6df465d26fE
	jmp	LBB19_3
Ltmp154:
LBB19_18:
	.loc	1 268 19
	movzwl	-330(%rbp), %edi
	callq	__ZN10ttf_parser6tables4glyf19CompositeGlyphFlags24we_have_an_x_and_y_scale17hcfd32c5b59f3323cE
	testb	$1, %al
	jne	LBB19_30
	jmp	LBB19_29
LBB19_19:
	.loc	1 0 19 is_stmt 0
	movq	-360(%rbp), %rdi
	.loc	1 264 20 is_stmt 1
	callq	__ZN10ttf_parser6parser6Stream4read17h899c43630591dd98E
	movw	%ax, %di
	movw	%dx, %si
	callq	__ZN75_$LT$core..option..Option$LT$T$GT$$u20$as$u20$core..ops..try_trait..Try$GT$6branch17h45c6d1eb116cdce9E
	movw	%dx, -254(%rbp)
	movw	%ax, -256(%rbp)
	movzwl	-256(%rbp), %eax
	cmpq	$0, %rax
	jne	LBB19_21
	movzwl	-254(%rbp), %edi
	movw	%di, %ax
	movw	%ax, -20(%rbp)
	callq	__ZN10ttf_parser6parser7F2DOT146to_f3217h5eb9b53eb2da5c2aE
	movq	-360(%rbp), %rdi
	.loc	1 264 13 is_stmt 0
	movss	%xmm0, -312(%rbp)
	.loc	1 265 20 is_stmt 1
	callq	__ZN10ttf_parser6parser6Stream4read17h899c43630591dd98E
	movw	%ax, %di
	movw	%dx, %si
	callq	__ZN75_$LT$core..option..Option$LT$T$GT$$u20$as$u20$core..ops..try_trait..Try$GT$6branch17h45c6d1eb116cdce9E
	movw	%dx, -246(%rbp)
	movw	%ax, -248(%rbp)
	movzwl	-248(%rbp), %eax
	cmpq	$0, %rax
	je	LBB19_22
	jmp	LBB19_23
LBB19_21:
	.loc	1 0 20 is_stmt 0
	movq	-352(%rbp), %rdi
Ltmp155:
	.loc	1 264 20 is_stmt 1
	callq	__ZN84_$LT$core..option..Option$LT$T$GT$$u20$as$u20$core..ops..try_trait..FromResidual$GT$13from_residual17hbc959a6df465d26fE
	jmp	LBB19_3
Ltmp156:
LBB19_22:
	.loc	1 265 20
	movzwl	-246(%rbp), %edi
	movw	%di, %ax
	movw	%ax, -18(%rbp)
	callq	__ZN10ttf_parser6parser7F2DOT146to_f3217h5eb9b53eb2da5c2aE
	movq	-360(%rbp), %rdi
	.loc	1 265 13 is_stmt 0
	movss	%xmm0, -308(%rbp)
	.loc	1 266 20 is_stmt 1
	callq	__ZN10ttf_parser6parser6Stream4read17h899c43630591dd98E
	movw	%ax, %di
	movw	%dx, %si
	callq	__ZN75_$LT$core..option..Option$LT$T$GT$$u20$as$u20$core..ops..try_trait..Try$GT$6branch17h45c6d1eb116cdce9E
	movw	%dx, -238(%rbp)
	movw	%ax, -240(%rbp)
	movzwl	-240(%rbp), %eax
	cmpq	$0, %rax
	je	LBB19_24
	jmp	LBB19_25
LBB19_23:
	.loc	1 0 20 is_stmt 0
	movq	-352(%rbp), %rdi
Ltmp157:
	.loc	1 265 20 is_stmt 1
	callq	__ZN84_$LT$core..option..Option$LT$T$GT$$u20$as$u20$core..ops..try_trait..FromResidual$GT$13from_residual17hbc959a6df465d26fE
	jmp	LBB19_3
Ltmp158:
LBB19_24:
	.loc	1 266 20
	movzwl	-238(%rbp), %edi
	movw	%di, %ax
	movw	%ax, -16(%rbp)
	callq	__ZN10ttf_parser6parser7F2DOT146to_f3217h5eb9b53eb2da5c2aE
	movq	-360(%rbp), %rdi
	.loc	1 266 13 is_stmt 0
	movss	%xmm0, -304(%rbp)
	.loc	1 267 20 is_stmt 1
	callq	__ZN10ttf_parser6parser6Stream4read17h899c43630591dd98E
	movw	%ax, %di
	movw	%dx, %si
	callq	__ZN75_$LT$core..option..Option$LT$T$GT$$u20$as$u20$core..ops..try_trait..Try$GT$6branch17h45c6d1eb116cdce9E
	movw	%dx, -230(%rbp)
	movw	%ax, -232(%rbp)
	movzwl	-232(%rbp), %eax
	cmpq	$0, %rax
	je	LBB19_26
	jmp	LBB19_27
LBB19_25:
	.loc	1 0 20 is_stmt 0
	movq	-352(%rbp), %rdi
Ltmp159:
	.loc	1 266 20 is_stmt 1
	callq	__ZN84_$LT$core..option..Option$LT$T$GT$$u20$as$u20$core..ops..try_trait..FromResidual$GT$13from_residual17hbc959a6df465d26fE
	jmp	LBB19_3
Ltmp160:
LBB19_26:
	.loc	1 267 20
	movw	-230(%rbp), %ax
	movw	%ax, -14(%rbp)
	movzwl	%ax, %edi
	callq	__ZN10ttf_parser6parser7F2DOT146to_f3217h5eb9b53eb2da5c2aE
	.loc	1 267 13 is_stmt 0
	movss	%xmm0, -300(%rbp)
	.loc	1 263 9 is_stmt 1
	jmp	LBB19_28
LBB19_27:
	.loc	1 0 9 is_stmt 0
	movq	-352(%rbp), %rdi
Ltmp161:
	.loc	1 267 20 is_stmt 1
	callq	__ZN84_$LT$core..option..Option$LT$T$GT$$u20$as$u20$core..ops..try_trait..FromResidual$GT$13from_residual17hbc959a6df465d26fE
	jmp	LBB19_3
Ltmp162:
LBB19_28:
	.loc	1 276 13
	movzwl	-330(%rbp), %edi
	callq	__ZN10ttf_parser6tables4glyf19CompositeGlyphFlags15more_components17hb535c9adf3a68537E
	.loc	1 276 12 is_stmt 0
	xorb	$-1, %al
	testb	$1, %al
	jne	LBB19_39
	jmp	LBB19_38
LBB19_29:
	.loc	1 271 19 is_stmt 1
	movzwl	-330(%rbp), %edi
	callq	__ZN10ttf_parser6tables4glyf19CompositeGlyphFlags15we_have_a_scale17hed8d2efad1473419E
	testb	$1, %al
	jne	LBB19_35
	jmp	LBB19_28
LBB19_30:
	.loc	1 0 19 is_stmt 0
	movq	-360(%rbp), %rdi
	.loc	1 269 20 is_stmt 1
	callq	__ZN10ttf_parser6parser6Stream4read17h899c43630591dd98E
	movw	%ax, %di
	movw	%dx, %si
	callq	__ZN75_$LT$core..option..Option$LT$T$GT$$u20$as$u20$core..ops..try_trait..Try$GT$6branch17h45c6d1eb116cdce9E
	movw	%dx, -222(%rbp)
	movw	%ax, -224(%rbp)
	movzwl	-224(%rbp), %eax
	cmpq	$0, %rax
	jne	LBB19_32
	movzwl	-222(%rbp), %edi
	movw	%di, %ax
	movw	%ax, -12(%rbp)
	callq	__ZN10ttf_parser6parser7F2DOT146to_f3217h5eb9b53eb2da5c2aE
	movq	-360(%rbp), %rdi
	.loc	1 269 13 is_stmt 0
	movss	%xmm0, -312(%rbp)
	.loc	1 270 20 is_stmt 1
	callq	__ZN10ttf_parser6parser6Stream4read17h899c43630591dd98E
	movw	%ax, %di
	movw	%dx, %si
	callq	__ZN75_$LT$core..option..Option$LT$T$GT$$u20$as$u20$core..ops..try_trait..Try$GT$6branch17h45c6d1eb116cdce9E
	movw	%dx, -214(%rbp)
	movw	%ax, -216(%rbp)
	movzwl	-216(%rbp), %eax
	cmpq	$0, %rax
	je	LBB19_33
	jmp	LBB19_34
LBB19_32:
	.loc	1 0 20 is_stmt 0
	movq	-352(%rbp), %rdi
Ltmp163:
	.loc	1 269 20 is_stmt 1
	callq	__ZN84_$LT$core..option..Option$LT$T$GT$$u20$as$u20$core..ops..try_trait..FromResidual$GT$13from_residual17hbc959a6df465d26fE
	jmp	LBB19_3
Ltmp164:
LBB19_33:
	.loc	1 270 20
	movw	-214(%rbp), %ax
	movw	%ax, -10(%rbp)
	movzwl	%ax, %edi
	callq	__ZN10ttf_parser6parser7F2DOT146to_f3217h5eb9b53eb2da5c2aE
	.loc	1 270 13 is_stmt 0
	movss	%xmm0, -300(%rbp)
	.loc	1 268 16 is_stmt 1
	jmp	LBB19_28
LBB19_34:
	.loc	1 0 16 is_stmt 0
	movq	-352(%rbp), %rdi
Ltmp165:
	.loc	1 270 20 is_stmt 1
	callq	__ZN84_$LT$core..option..Option$LT$T$GT$$u20$as$u20$core..ops..try_trait..FromResidual$GT$13from_residual17hbc959a6df465d26fE
	jmp	LBB19_3
Ltmp166:
LBB19_35:
	.loc	1 0 20 is_stmt 0
	movq	-360(%rbp), %rdi
	.loc	1 272 20 is_stmt 1
	callq	__ZN10ttf_parser6parser6Stream4read17h899c43630591dd98E
	movw	%ax, %di
	movw	%dx, %si
	callq	__ZN75_$LT$core..option..Option$LT$T$GT$$u20$as$u20$core..ops..try_trait..Try$GT$6branch17h45c6d1eb116cdce9E
	movw	%dx, -206(%rbp)
	movw	%ax, -208(%rbp)
	movzwl	-208(%rbp), %eax
	cmpq	$0, %rax
	jne	LBB19_37
	movw	-206(%rbp), %ax
	movw	%ax, -8(%rbp)
	movzwl	%ax, %edi
	callq	__ZN10ttf_parser6parser7F2DOT146to_f3217h5eb9b53eb2da5c2aE
	.loc	1 272 13 is_stmt 0
	movss	%xmm0, -312(%rbp)
	.loc	1 273 20 is_stmt 1
	movss	-312(%rbp), %xmm0
	.loc	1 273 13 is_stmt 0
	movss	%xmm0, -300(%rbp)
	.loc	1 271 16 is_stmt 1
	jmp	LBB19_28
LBB19_37:
	.loc	1 0 16 is_stmt 0
	movq	-352(%rbp), %rdi
Ltmp167:
	.loc	1 272 20 is_stmt 1
	callq	__ZN84_$LT$core..option..Option$LT$T$GT$$u20$as$u20$core..ops..try_trait..FromResidual$GT$13from_residual17hbc959a6df465d26fE
	jmp	LBB19_3
Ltmp168:
LBB19_38:
	.loc	1 0 20 is_stmt 0
	movq	-352(%rbp), %rax
	movw	-362(%rbp), %dx
	.loc	1 283 24 is_stmt 1
	movq	-312(%rbp), %rcx
	movq	%rcx, -168(%rbp)
	movq	-304(%rbp), %rcx
	movq	%rcx, -160(%rbp)
	movq	-296(%rbp), %rcx
	movq	%rcx, -152(%rbp)
	.loc	1 284 13
	movw	-330(%rbp), %cx
	.loc	1 281 14
	movw	%dx, -176(%rbp)
	movq	-168(%rbp), %rdx
	movq	%rdx, -200(%rbp)
	movq	-160(%rbp), %rdx
	movq	%rdx, -192(%rbp)
	movq	-152(%rbp), %rdx
	movq	%rdx, -184(%rbp)
	movw	%cx, -174(%rbp)
	.loc	1 281 9 is_stmt 0
	movq	-200(%rbp), %rcx
	movq	%rcx, 4(%rax)
	movq	-192(%rbp), %rcx
	movq	%rcx, 12(%rax)
	movq	-184(%rbp), %rcx
	movq	%rcx, 20(%rax)
	movl	-176(%rbp), %ecx
	movl	%ecx, 28(%rax)
	movl	$1, (%rax)
Ltmp169:
	.loc	1 286 6 is_stmt 1
	jmp	LBB19_3
LBB19_39:
	.loc	1 0 6 is_stmt 0
	movq	-360(%rbp), %rdi
Ltmp170:
	.loc	1 278 13 is_stmt 1
	callq	__ZN10ttf_parser6parser6Stream11jump_to_end17hae5144e3aece9fbaE
	jmp	LBB19_38
Ltmp171:
Lfunc_end19:
	.cfi_endproc

	.globl	__ZN104_$LT$core..ops..control_flow..ControlFlow$LT$B$C$C$GT$$u20$as$u20$core..ops..try_trait..FromResidual$GT$13from_residual17h017e70b89fda791fE
	.p2align	4, 0x90
__ZN104_$LT$core..ops..control_flow..ControlFlow$LT$B$C$C$GT$$u20$as$u20$core..ops..try_trait..FromResidual$GT$13from_residual17h017e70b89fda791fE:
Lfunc_begin20:
	.file	16 "/rustc/2c8cc343237b8f7d5a3c3703e3a87f2eb2c54a74/library/core/src/ops" "control_flow.rs"
	.loc	16 123 0
	.cfi_startproc
	pushq	%rbp
	.cfi_def_cfa_offset 16
	.cfi_offset %rbp, -16
	movq	%rsp, %rbp
	.cfi_def_cfa_register %rbp
	subq	$32, %rsp
Ltmp172:
	.loc	16 125 38 prologue_end
	movq	$1, -32(%rbp)
Ltmp173:
	.loc	16 127 6
	movq	-32(%rbp), %rax
	movq	-24(%rbp), %rdx
	addq	$32, %rsp
	popq	%rbp
	retq
Ltmp174:
Lfunc_end20:
	.cfi_endproc

	.globl	__ZN104_$LT$core..ops..control_flow..ControlFlow$LT$B$C$C$GT$$u20$as$u20$core..ops..try_trait..FromResidual$GT$13from_residual17hd733654f89522dbaE
	.p2align	4, 0x90
__ZN104_$LT$core..ops..control_flow..ControlFlow$LT$B$C$C$GT$$u20$as$u20$core..ops..try_trait..FromResidual$GT$13from_residual17hd733654f89522dbaE:
Lfunc_begin21:
	.loc	16 123 0
	.cfi_startproc
	pushq	%rbp
	.cfi_def_cfa_offset 16
	.cfi_offset %rbp, -16
	movq	%rsp, %rbp
	.cfi_def_cfa_register %rbp
	subq	$48, %rsp
	movq	%rdi, %rax
Ltmp175:
	.loc	16 125 32 prologue_end
	movq	(%rsi), %rcx
	movq	%rcx, -48(%rbp)
	movq	8(%rsi), %rcx
	movq	%rcx, -40(%rbp)
	movq	16(%rsi), %rcx
	movq	%rcx, -32(%rbp)
Ltmp176:
	.loc	16 125 57 is_stmt 0
	movq	-48(%rbp), %rcx
	movq	%rcx, -24(%rbp)
	movq	-40(%rbp), %rcx
	movq	%rcx, -16(%rbp)
	movq	-32(%rbp), %rcx
	movq	%rcx, -8(%rbp)
	.loc	16 125 38
	movq	-24(%rbp), %rcx
	movq	%rcx, (%rdi)
	movq	-16(%rbp), %rcx
	movq	%rcx, 8(%rdi)
	movq	-8(%rbp), %rcx
	movq	%rcx, 16(%rdi)
Ltmp177:
	.loc	16 127 6 is_stmt 1
	addq	$48, %rsp
	popq	%rbp
	retq
Ltmp178:
Lfunc_end21:
	.cfi_endproc

	.globl	__ZN106_$LT$core..ops..range..Range$LT$usize$GT$$u20$as$u20$core..slice..index..SliceIndex$LT$$u5b$T$u5d$$GT$$GT$13get_unchecked17h04c920650165022cE
	.p2align	4, 0x90
__ZN106_$LT$core..ops..range..Range$LT$usize$GT$$u20$as$u20$core..slice..index..SliceIndex$LT$$u5b$T$u5d$$GT$$GT$13get_unchecked17h04c920650165022cE:
Lfunc_begin22:
	.file	17 "/rustc/2c8cc343237b8f7d5a3c3703e3a87f2eb2c54a74/library/core/src/slice" "index.rs"
	.loc	17 373 0
	.cfi_startproc
	pushq	%rbp
	.cfi_def_cfa_offset 16
	.cfi_offset %rbp, -16
	movq	%rsp, %rbp
	.cfi_def_cfa_register %rbp
	subq	$160, %rsp
	movq	%rdi, -128(%rbp)
	movq	%rsi, -120(%rbp)
	movq	%rdx, -112(%rbp)
	movq	%rcx, -104(%rbp)
Ltmp179:
	.loc	17 386 39 prologue_end
	movq	%rdx, -96(%rbp)
	movq	%rcx, -88(%rbp)
Ltmp180:
	.loc	9 1650 9
	movq	%rdx, -80(%rbp)
Ltmp181:
	.loc	17 386 58
	movq	%rdi, -72(%rbp)
Ltmp182:
	.loc	9 932 18
	movq	%rdx, -64(%rbp)
	.loc	9 932 30 is_stmt 0
	movq	%rdi, -56(%rbp)
Ltmp183:
	.loc	9 473 18 is_stmt 1
	leaq	(%rdx,%rdi,2), %rax
	movq	%rax, -48(%rbp)
	movq	-48(%rbp), %rax
	movq	%rax, -40(%rbp)
Ltmp184:
	.loc	17 386 71
	subq	%rdi, %rsi
	movq	%rsi, -32(%rbp)
Ltmp185:
	.loc	6 734 20
	movq	%rax, -24(%rbp)
Ltmp186:
	.loc	9 61 9
	movq	%rax, -16(%rbp)
Ltmp187:
	.loc	6 734 33
	movq	%rsi, -8(%rbp)
Ltmp188:
	.loc	8 118 36
	movq	%rax, -144(%rbp)
	movq	%rsi, -136(%rbp)
	.loc	8 118 14 is_stmt 0
	movq	-144(%rbp), %rcx
	movq	-136(%rbp), %rax
	movq	%rcx, -160(%rbp)
	movq	%rax, -152(%rbp)
	movq	-160(%rbp), %rax
	movq	-152(%rbp), %rdx
Ltmp189:
	.loc	17 388 6 is_stmt 1
	addq	$160, %rsp
	popq	%rbp
	retq
Ltmp190:
Lfunc_end22:
	.cfi_endproc

	.globl	__ZN106_$LT$core..ops..range..Range$LT$usize$GT$$u20$as$u20$core..slice..index..SliceIndex$LT$$u5b$T$u5d$$GT$$GT$17get_unchecked_mut17hb809e2aec3f99aa3E
	.p2align	4, 0x90
__ZN106_$LT$core..ops..range..Range$LT$usize$GT$$u20$as$u20$core..slice..index..SliceIndex$LT$$u5b$T$u5d$$GT$$GT$17get_unchecked_mut17hb809e2aec3f99aa3E:
Lfunc_begin23:
	.loc	17 391 0
	.cfi_startproc
	pushq	%rbp
	.cfi_def_cfa_offset 16
	.cfi_offset %rbp, -16
	movq	%rsp, %rbp
	.cfi_def_cfa_register %rbp
	subq	$160, %rsp
	movq	%rdi, -128(%rbp)
	movq	%rsi, -120(%rbp)
	movq	%rdx, -112(%rbp)
	movq	%rcx, -104(%rbp)
Ltmp191:
	.loc	17 400 43 prologue_end
	movq	%rdx, -96(%rbp)
	movq	%rcx, -88(%rbp)
Ltmp192:
	.loc	7 2037 9
	movq	%rdx, -80(%rbp)
Ltmp193:
	.loc	17 400 66
	movq	%rdi, -72(%rbp)
Ltmp194:
	.loc	7 1034 18
	movq	%rdx, -64(%rbp)
	.loc	7 1034 30 is_stmt 0
	movq	%rdi, -56(%rbp)
Ltmp195:
	.loc	7 487 18 is_stmt 1
	addq	%rdi, %rdx
	movq	%rdx, -48(%rbp)
	movq	-48(%rbp), %rax
	movq	%rax, -40(%rbp)
Ltmp196:
	.loc	17 400 79
	subq	%rdi, %rsi
	movq	%rsi, -32(%rbp)
Ltmp197:
	.loc	6 766 24
	movq	%rax, -24(%rbp)
Ltmp198:
	.loc	7 60 9
	movq	%rax, -16(%rbp)
Ltmp199:
	.loc	6 766 37
	movq	%rsi, -8(%rbp)
Ltmp200:
	.loc	8 135 36
	movq	%rax, -144(%rbp)
	movq	%rsi, -136(%rbp)
	.loc	8 135 14 is_stmt 0
	movq	-144(%rbp), %rcx
	movq	-136(%rbp), %rax
	movq	%rcx, -160(%rbp)
	movq	%rax, -152(%rbp)
	movq	-160(%rbp), %rax
	movq	-152(%rbp), %rdx
Ltmp201:
	.loc	17 402 6 is_stmt 1
	addq	$160, %rsp
	popq	%rbp
	retq
Ltmp202:
Lfunc_end23:
	.cfi_endproc

	.globl	__ZN106_$LT$core..ops..range..Range$LT$usize$GT$$u20$as$u20$core..slice..index..SliceIndex$LT$$u5b$T$u5d$$GT$$GT$5index17h7011541f6cddb564E
	.p2align	4, 0x90
__ZN106_$LT$core..ops..range..Range$LT$usize$GT$$u20$as$u20$core..slice..index..SliceIndex$LT$$u5b$T$u5d$$GT$$GT$5index17h7011541f6cddb564E:
Lfunc_begin24:
	.loc	17 405 0
	.cfi_startproc
	pushq	%rbp
	.cfi_def_cfa_offset 16
	.cfi_offset %rbp, -16
	movq	%rsp, %rbp
	.cfi_def_cfa_register %rbp
	subq	$80, %rsp
	movq	%rdi, -72(%rbp)
	movq	%rsi, -64(%rbp)
	movq	%rdx, -56(%rbp)
	movq	%rcx, -48(%rbp)
	movq	%r8, -40(%rbp)
	movq	%rdi, -32(%rbp)
	movq	%rsi, -24(%rbp)
	movq	%rdx, -16(%rbp)
	movq	%rcx, -8(%rbp)
Ltmp203:
	.loc	17 406 12 prologue_end
	cmpq	%rsi, %rdi
	ja	LBB24_2
	.loc	17 0 12 is_stmt 0
	movq	-64(%rbp), %rax
	movq	-48(%rbp), %rcx
	.loc	17 408 19 is_stmt 1
	cmpq	%rcx, %rax
	ja	LBB24_4
	jmp	LBB24_3
LBB24_2:
	.loc	17 0 19 is_stmt 0
	movq	-40(%rbp), %rdx
	movq	-64(%rbp), %rsi
	movq	-72(%rbp), %rdi
	.loc	17 407 13 is_stmt 1
	callq	__ZN4core5slice5index22slice_index_order_fail17h0d8f800a07d5f26eE
LBB24_3:
	.loc	17 0 13 is_stmt 0
	movq	-48(%rbp), %rcx
	movq	-56(%rbp), %rdx
	movq	-64(%rbp), %rsi
	movq	-72(%rbp), %rdi
	.loc	17 412 20 is_stmt 1
	callq	__ZN106_$LT$core..ops..range..Range$LT$usize$GT$$u20$as$u20$core..slice..index..SliceIndex$LT$$u5b$T$u5d$$GT$$GT$13get_unchecked17h04c920650165022cE
	.loc	17 413 6
	addq	$80, %rsp
	popq	%rbp
	retq
LBB24_4:
	.loc	17 0 6 is_stmt 0
	movq	-40(%rbp), %rdx
	movq	-48(%rbp), %rsi
	movq	-64(%rbp), %rdi
	.loc	17 409 13 is_stmt 1
	callq	__ZN4core5slice5index24slice_end_index_len_fail17hc921cb2f1513645aE
Ltmp204:
Lfunc_end24:
	.cfi_endproc

	.globl	__ZN106_$LT$core..ops..range..Range$LT$usize$GT$$u20$as$u20$core..slice..index..SliceIndex$LT$$u5b$T$u5d$$GT$$GT$9index_mut17h8b9008f539610772E
	.p2align	4, 0x90
__ZN106_$LT$core..ops..range..Range$LT$usize$GT$$u20$as$u20$core..slice..index..SliceIndex$LT$$u5b$T$u5d$$GT$$GT$9index_mut17h8b9008f539610772E:
Lfunc_begin25:
	.loc	17 416 0
	.cfi_startproc
	pushq	%rbp
	.cfi_def_cfa_offset 16
	.cfi_offset %rbp, -16
	movq	%rsp, %rbp
	.cfi_def_cfa_register %rbp
	subq	$80, %rsp
	movq	%rdi, -72(%rbp)
	movq	%rsi, -64(%rbp)
	movq	%rdx, -56(%rbp)
	movq	%rcx, -48(%rbp)
	movq	%r8, -40(%rbp)
	movq	%rdi, -32(%rbp)
	movq	%rsi, -24(%rbp)
	movq	%rdx, -16(%rbp)
	movq	%rcx, -8(%rbp)
Ltmp205:
	.loc	17 417 12 prologue_end
	cmpq	%rsi, %rdi
	ja	LBB25_2
	.loc	17 0 12 is_stmt 0
	movq	-64(%rbp), %rax
	movq	-48(%rbp), %rcx
	.loc	17 419 19 is_stmt 1
	cmpq	%rcx, %rax
	ja	LBB25_4
	jmp	LBB25_3
LBB25_2:
	.loc	17 0 19 is_stmt 0
	movq	-40(%rbp), %rdx
	movq	-64(%rbp), %rsi
	movq	-72(%rbp), %rdi
	.loc	17 418 13 is_stmt 1
	callq	__ZN4core5slice5index22slice_index_order_fail17h0d8f800a07d5f26eE
LBB25_3:
	.loc	17 0 13 is_stmt 0
	movq	-48(%rbp), %rcx
	movq	-56(%rbp), %rdx
	movq	-64(%rbp), %rsi
	movq	-72(%rbp), %rdi
	.loc	17 423 24 is_stmt 1
	callq	__ZN106_$LT$core..ops..range..Range$LT$usize$GT$$u20$as$u20$core..slice..index..SliceIndex$LT$$u5b$T$u5d$$GT$$GT$17get_unchecked_mut17hb809e2aec3f99aa3E
	.loc	17 424 6
	addq	$80, %rsp
	popq	%rbp
	retq
LBB25_4:
	.loc	17 0 6 is_stmt 0
	movq	-40(%rbp), %rdx
	movq	-48(%rbp), %rsi
	movq	-64(%rbp), %rdi
	.loc	17 420 13 is_stmt 1
	callq	__ZN4core5slice5index24slice_end_index_len_fail17hc921cb2f1513645aE
Ltmp206:
Lfunc_end25:
	.cfi_endproc

	.globl	__ZN107_$LT$core..iter..adapters..fuse..Fuse$LT$I$GT$$u20$as$u20$core..iter..adapters..fuse..FuseImpl$LT$I$GT$$GT$4next17h176582719a0927d9E
	.p2align	4, 0x90
__ZN107_$LT$core..iter..adapters..fuse..Fuse$LT$I$GT$$u20$as$u20$core..iter..adapters..fuse..FuseImpl$LT$I$GT$$GT$4next17h176582719a0927d9E:
Lfunc_begin26:
	.file	18 "/rustc/2c8cc343237b8f7d5a3c3703e3a87f2eb2c54a74/library/core/src/iter/adapters" "fuse.rs"
	.loc	18 336 0
	.cfi_startproc
	pushq	%rbp
	.cfi_def_cfa_offset 16
	.cfi_offset %rbp, -16
	movq	%rsp, %rbp
	.cfi_def_cfa_register %rbp
	subq	$96, %rsp
	movq	%rsi, -96(%rbp)
	movq	%rdi, -88(%rbp)
	movq	%rdi, -80(%rbp)
	movq	%rsi, -56(%rbp)
Ltmp207:
	.loc	18 337 9 prologue_end
	movq	%rsi, -32(%rbp)
Ltmp208:
	.file	19 "/rustc/2c8cc343237b8f7d5a3c3703e3a87f2eb2c54a74/library/core/src" "option.rs"
	.loc	19 697 15
	movl	$1, %eax
	xorl	%ecx, %ecx
	cmpq	$2, (%rsi)
	cmoveq	%rcx, %rax
	.loc	19 697 9 is_stmt 0
	cmpq	$0, %rax
	jne	LBB26_2
	.loc	19 699 21 is_stmt 1
	movq	$0, -64(%rbp)
	jmp	LBB26_3
LBB26_2:
	.loc	19 0 21 is_stmt 0
	movq	-96(%rbp), %rax
	.loc	19 698 18 is_stmt 1
	movq	%rax, -24(%rbp)
Ltmp209:
	.loc	19 698 32 is_stmt 0
	movq	%rax, -64(%rbp)
Ltmp210:
LBB26_3:
	.loc	19 2407 15 is_stmt 1
	movq	-64(%rbp), %rdx
	movl	$1, %eax
	xorl	%ecx, %ecx
	cmpq	$0, %rdx
	cmoveq	%rcx, %rax
	.loc	19 2407 9 is_stmt 0
	cmpq	$0, %rax
	jne	LBB26_5
	.loc	19 2409 21 is_stmt 1
	movq	$0, -72(%rbp)
	.loc	19 2409 44 is_stmt 0
	jmp	LBB26_6
LBB26_5:
	.loc	19 2408 18 is_stmt 1
	movq	-64(%rbp), %rax
	movq	%rax, -16(%rbp)
Ltmp211:
	.loc	19 2408 24 is_stmt 0
	movq	%rax, -72(%rbp)
Ltmp212:
LBB26_6:
	.loc	18 337 9 is_stmt 1
	movq	-72(%rbp), %rdx
	xorl	%eax, %eax
	movl	$1, %ecx
	cmpq	$0, %rdx
	cmoveq	%rcx, %rax
	cmpq	$0, %rax
	jne	LBB26_8
	.loc	18 0 9 is_stmt 0
	movq	-88(%rbp), %rdi
	.loc	18 337 9
	movq	-72(%rbp), %rsi
	movq	%rsi, -8(%rbp)
	callq	__ZN102_$LT$core..iter..adapters..map..Map$LT$I$C$F$GT$$u20$as$u20$core..iter..traits..iterator..Iterator$GT$4next17h147e9673a4652552E
	.loc	18 338 6 is_stmt 1
	jmp	LBB26_9
LBB26_8:
	.loc	18 0 6 is_stmt 0
	movq	-88(%rbp), %rax
Ltmp213:
	.loc	19 2420 21 is_stmt 1
	movq	$0, 8(%rax)
Ltmp214:
LBB26_9:
	.loc	19 0 21 is_stmt 0
	movq	-80(%rbp), %rax
	.loc	18 338 6 is_stmt 1
	addq	$96, %rsp
	popq	%rbp
	retq
Ltmp215:
Lfunc_end26:
	.cfi_endproc

	.globl	__ZN107_$LT$core..iter..adapters..fuse..Fuse$LT$I$GT$$u20$as$u20$core..iter..adapters..fuse..FuseImpl$LT$I$GT$$GT$4next17h85c2cac6b4a8ee49E
	.p2align	4, 0x90
__ZN107_$LT$core..iter..adapters..fuse..Fuse$LT$I$GT$$u20$as$u20$core..iter..adapters..fuse..FuseImpl$LT$I$GT$$GT$4next17h85c2cac6b4a8ee49E:
Lfunc_begin27:
	.loc	18 336 0
	.cfi_startproc
	pushq	%rbp
	.cfi_def_cfa_offset 16
	.cfi_offset %rbp, -16
	movq	%rsp, %rbp
	.cfi_def_cfa_register %rbp
	subq	$96, %rsp
	movq	%rsi, -96(%rbp)
	movq	%rdi, -88(%rbp)
	movq	%rdi, -80(%rbp)
	movq	%rsi, -56(%rbp)
Ltmp216:
	.loc	18 337 9 prologue_end
	movq	%rsi, -32(%rbp)
Ltmp217:
	.loc	19 697 15
	movl	$1, %eax
	xorl	%ecx, %ecx
	cmpq	$2, (%rsi)
	cmoveq	%rcx, %rax
	.loc	19 697 9 is_stmt 0
	cmpq	$0, %rax
	jne	LBB27_2
	.loc	19 699 21 is_stmt 1
	movq	$0, -64(%rbp)
	jmp	LBB27_3
LBB27_2:
	.loc	19 0 21 is_stmt 0
	movq	-96(%rbp), %rax
	.loc	19 698 18 is_stmt 1
	movq	%rax, -24(%rbp)
Ltmp218:
	.loc	19 698 32 is_stmt 0
	movq	%rax, -64(%rbp)
Ltmp219:
LBB27_3:
	.loc	19 2407 15 is_stmt 1
	movq	-64(%rbp), %rdx
	movl	$1, %eax
	xorl	%ecx, %ecx
	cmpq	$0, %rdx
	cmoveq	%rcx, %rax
	.loc	19 2407 9 is_stmt 0
	cmpq	$0, %rax
	jne	LBB27_5
	.loc	19 2409 21 is_stmt 1
	movq	$0, -72(%rbp)
	.loc	19 2409 44 is_stmt 0
	jmp	LBB27_6
LBB27_5:
	.loc	19 2408 18 is_stmt 1
	movq	-64(%rbp), %rax
	movq	%rax, -16(%rbp)
Ltmp220:
	.loc	19 2408 24 is_stmt 0
	movq	%rax, -72(%rbp)
Ltmp221:
LBB27_6:
	.loc	18 337 9 is_stmt 1
	movq	-72(%rbp), %rdx
	xorl	%eax, %eax
	movl	$1, %ecx
	cmpq	$0, %rdx
	cmoveq	%rcx, %rax
	cmpq	$0, %rax
	jne	LBB27_8
	.loc	18 0 9 is_stmt 0
	movq	-88(%rbp), %rdi
	.loc	18 337 9
	movq	-72(%rbp), %rsi
	movq	%rsi, -8(%rbp)
	callq	__ZN102_$LT$core..iter..adapters..map..Map$LT$I$C$F$GT$$u20$as$u20$core..iter..traits..iterator..Iterator$GT$4next17hc8ef7f5c437a267cE
	.loc	18 338 6 is_stmt 1
	jmp	LBB27_9
LBB27_8:
	.loc	18 0 6 is_stmt 0
	movq	-88(%rbp), %rax
Ltmp222:
	.loc	19 2420 21 is_stmt 1
	movq	$0, 8(%rax)
Ltmp223:
LBB27_9:
	.loc	19 0 21 is_stmt 0
	movq	-80(%rbp), %rax
	.loc	18 338 6 is_stmt 1
	addq	$96, %rsp
	popq	%rbp
	retq
Ltmp224:
Lfunc_end27:
	.cfi_endproc

	.globl	__ZN107_$LT$core..iter..adapters..fuse..Fuse$LT$I$GT$$u20$as$u20$core..iter..adapters..fuse..FuseImpl$LT$I$GT$$GT$8try_fold17h063b216a076f2633E
	.p2align	4, 0x90
__ZN107_$LT$core..iter..adapters..fuse..Fuse$LT$I$GT$$u20$as$u20$core..iter..adapters..fuse..FuseImpl$LT$I$GT$$GT$8try_fold17h063b216a076f2633E:
Lfunc_begin28:
	.loc	18 346 0
	.cfi_startproc
	.cfi_personality 155, _rust_eh_personality
	.cfi_lsda 16, Lexception6
	pushq	%rbp
	.cfi_def_cfa_offset 16
	.cfi_offset %rbp, -16
	movq	%rsp, %rbp
	.cfi_def_cfa_register %rbp
	subq	$208, %rsp
	movq	%rdi, -136(%rbp)
	movq	%rdx, -128(%rbp)
	movq	%rcx, -120(%rbp)
	movq	%rsi, -112(%rbp)
	movq	%rdi, -64(%rbp)
	movq	%rdx, -56(%rbp)
	movq	%rcx, -48(%rbp)
Ltmp234:
	.loc	18 352 9 prologue_end
	movb	$1, -65(%rbp)
Ltmp235:
	.loc	18 352 16 is_stmt 0
	cmpq	$1, (%rdi)
	jne	LBB28_2
	.loc	18 0 16
	movq	-120(%rbp), %rcx
	movq	-128(%rbp), %rdx
	movq	-136(%rbp), %rdi
	.loc	18 352 21
	addq	$8, %rdi
	movq	%rdi, -32(%rbp)
	.loc	18 353 33 is_stmt 1
	movq	-112(%rbp), %rsi
	.loc	18 353 38 is_stmt 0
	movb	$0, -65(%rbp)
Ltmp225:
	.loc	18 353 19
	callq	__ZN102_$LT$core..iter..adapters..map..Map$LT$I$C$F$GT$$u20$as$u20$core..iter..traits..iterator..Iterator$GT$8try_fold17hc49e0f5ce1cda4daE
Ltmp226:
	movq	%rdx, -152(%rbp)
	movq	%rax, -144(%rbp)
	jmp	LBB28_5
Ltmp236:
LBB28_2:
	.loc	18 355 15 is_stmt 1
	movq	-112(%rbp), %rdi
Ltmp231:
	callq	__ZN95_$LT$core..ops..control_flow..ControlFlow$LT$B$C$C$GT$$u20$as$u20$core..ops..try_trait..Try$GT$11from_output17hbc6d780f4858324fE
Ltmp232:
	movq	%rdx, -168(%rbp)
	movq	%rax, -160(%rbp)
	jmp	LBB28_11
LBB28_3:
	.loc	18 356 5
	testb	$1, -65(%rbp)
	jne	LBB28_13
	jmp	LBB28_12
LBB28_4:
Ltmp233:
	.loc	18 0 5 is_stmt 0
	movq	%rax, %rcx
	movl	%edx, %eax
	movq	%rcx, -24(%rbp)
	movl	%eax, -16(%rbp)
	jmp	LBB28_3
LBB28_5:
Ltmp227:
	movq	-152(%rbp), %rsi
	movq	-144(%rbp), %rdi
Ltmp237:
	.loc	18 353 19 is_stmt 1
	callq	__ZN95_$LT$core..ops..control_flow..ControlFlow$LT$B$C$C$GT$$u20$as$u20$core..ops..try_trait..Try$GT$6branch17h15e9352ea7b44ab7E
Ltmp228:
	movq	%rdx, -184(%rbp)
	movq	%rax, -176(%rbp)
	jmp	LBB28_6
LBB28_6:
	.loc	18 0 19 is_stmt 0
	movq	-184(%rbp), %rax
	movq	-176(%rbp), %rcx
	.loc	18 353 19
	movq	%rcx, -88(%rbp)
	movq	%rax, -80(%rbp)
	cmpq	$0, -88(%rbp)
	jne	LBB28_8
	movq	-80(%rbp), %rax
	movq	%rax, -8(%rbp)
	.loc	18 353 13
	movq	%rax, -112(%rbp)
Ltmp238:
	.loc	18 352 9 is_stmt 1
	jmp	LBB28_2
LBB28_8:
Ltmp229:
Ltmp239:
	.loc	18 353 19
	callq	__ZN104_$LT$core..ops..control_flow..ControlFlow$LT$B$C$C$GT$$u20$as$u20$core..ops..try_trait..FromResidual$GT$13from_residual17h017e70b89fda791fE
Ltmp230:
	movq	%rdx, -200(%rbp)
	movq	%rax, -192(%rbp)
	jmp	LBB28_9
LBB28_9:
	.loc	18 0 19 is_stmt 0
	movq	-200(%rbp), %rax
	movq	-192(%rbp), %rcx
	.loc	18 353 19
	movq	%rcx, -104(%rbp)
	movq	%rax, -96(%rbp)
Ltmp240:
LBB28_10:
	.loc	18 356 6 is_stmt 1
	movq	-104(%rbp), %rax
	movq	-96(%rbp), %rdx
	addq	$208, %rsp
	popq	%rbp
	retq
LBB28_11:
	.loc	18 0 6 is_stmt 0
	movq	-168(%rbp), %rax
	movq	-160(%rbp), %rcx
	.loc	18 355 15 is_stmt 1
	movq	%rcx, -104(%rbp)
	movq	%rax, -96(%rbp)
	.loc	18 356 5
	testb	$1, -65(%rbp)
	jne	LBB28_14
	jmp	LBB28_10
LBB28_12:
	.loc	18 346 5
	movq	-24(%rbp), %rdi
	callq	__Unwind_Resume
LBB28_13:
	.loc	18 356 5
	jmp	LBB28_12
LBB28_14:
	jmp	LBB28_10
Ltmp241:
Lfunc_end28:
	.cfi_endproc
	.section	__TEXT,__gcc_except_tab
	.p2align	2
GCC_except_table28:
Lexception6:
	.byte	255
	.byte	255
	.byte	1
	.uleb128 Lcst_end6-Lcst_begin6
Lcst_begin6:
	.uleb128 Ltmp225-Lfunc_begin28
	.uleb128 Ltmp230-Ltmp225
	.uleb128 Ltmp233-Lfunc_begin28
	.byte	0
	.uleb128 Ltmp230-Lfunc_begin28
	.uleb128 Lfunc_end28-Ltmp230
	.byte	0
	.byte	0
Lcst_end6:
	.p2align	2

	.section	__TEXT,__text,regular,pure_instructions
	.globl	__ZN107_$LT$core..iter..adapters..fuse..Fuse$LT$I$GT$$u20$as$u20$core..iter..adapters..fuse..FuseImpl$LT$I$GT$$GT$8try_fold17h54a96300ebde7728E
	.p2align	4, 0x90
__ZN107_$LT$core..iter..adapters..fuse..Fuse$LT$I$GT$$u20$as$u20$core..iter..adapters..fuse..FuseImpl$LT$I$GT$$GT$8try_fold17h54a96300ebde7728E:
Lfunc_begin29:
	.loc	18 346 0
	.cfi_startproc
	.cfi_personality 155, _rust_eh_personality
	.cfi_lsda 16, Lexception7
	pushq	%rbp
	.cfi_def_cfa_offset 16
	.cfi_offset %rbp, -16
	movq	%rsp, %rbp
	.cfi_def_cfa_register %rbp
	subq	$208, %rsp
	movq	%rdi, -136(%rbp)
	movq	%rdx, -128(%rbp)
	movq	%rcx, -120(%rbp)
	movq	%rsi, -112(%rbp)
	movq	%rdi, -64(%rbp)
	movq	%rdx, -56(%rbp)
	movq	%rcx, -48(%rbp)
Ltmp251:
	.loc	18 352 9 prologue_end
	movb	$1, -65(%rbp)
Ltmp252:
	.loc	18 352 16 is_stmt 0
	movl	$1, %eax
	xorl	%ecx, %ecx
	cmpq	$2, (%rdi)
	cmoveq	%rcx, %rax
	cmpq	$1, %rax
	jne	LBB29_2
	.loc	18 0 16
	movq	-120(%rbp), %rcx
	movq	-128(%rbp), %rdx
	movq	-136(%rbp), %rdi
	.loc	18 352 21
	movq	%rdi, -32(%rbp)
	.loc	18 353 33 is_stmt 1
	movq	-112(%rbp), %rsi
	.loc	18 353 38 is_stmt 0
	movb	$0, -65(%rbp)
Ltmp242:
	.loc	18 353 19
	callq	__ZN102_$LT$core..iter..adapters..map..Map$LT$I$C$F$GT$$u20$as$u20$core..iter..traits..iterator..Iterator$GT$8try_fold17ha60beeac27c5e305E
Ltmp243:
	movq	%rdx, -152(%rbp)
	movq	%rax, -144(%rbp)
	jmp	LBB29_5
Ltmp253:
LBB29_2:
	.loc	18 355 15 is_stmt 1
	movq	-112(%rbp), %rdi
Ltmp248:
	callq	__ZN95_$LT$core..ops..control_flow..ControlFlow$LT$B$C$C$GT$$u20$as$u20$core..ops..try_trait..Try$GT$11from_output17hbc6d780f4858324fE
Ltmp249:
	movq	%rdx, -168(%rbp)
	movq	%rax, -160(%rbp)
	jmp	LBB29_11
LBB29_3:
	.loc	18 356 5
	testb	$1, -65(%rbp)
	jne	LBB29_13
	jmp	LBB29_12
LBB29_4:
Ltmp250:
	.loc	18 0 5 is_stmt 0
	movq	%rax, %rcx
	movl	%edx, %eax
	movq	%rcx, -24(%rbp)
	movl	%eax, -16(%rbp)
	jmp	LBB29_3
LBB29_5:
Ltmp244:
	movq	-152(%rbp), %rsi
	movq	-144(%rbp), %rdi
Ltmp254:
	.loc	18 353 19 is_stmt 1
	callq	__ZN95_$LT$core..ops..control_flow..ControlFlow$LT$B$C$C$GT$$u20$as$u20$core..ops..try_trait..Try$GT$6branch17h15e9352ea7b44ab7E
Ltmp245:
	movq	%rdx, -184(%rbp)
	movq	%rax, -176(%rbp)
	jmp	LBB29_6
LBB29_6:
	.loc	18 0 19 is_stmt 0
	movq	-184(%rbp), %rax
	movq	-176(%rbp), %rcx
	.loc	18 353 19
	movq	%rcx, -88(%rbp)
	movq	%rax, -80(%rbp)
	cmpq	$0, -88(%rbp)
	jne	LBB29_8
	movq	-80(%rbp), %rax
	movq	%rax, -8(%rbp)
	.loc	18 353 13
	movq	%rax, -112(%rbp)
Ltmp255:
	.loc	18 352 9 is_stmt 1
	jmp	LBB29_2
LBB29_8:
Ltmp246:
Ltmp256:
	.loc	18 353 19
	callq	__ZN104_$LT$core..ops..control_flow..ControlFlow$LT$B$C$C$GT$$u20$as$u20$core..ops..try_trait..FromResidual$GT$13from_residual17h017e70b89fda791fE
Ltmp247:
	movq	%rdx, -200(%rbp)
	movq	%rax, -192(%rbp)
	jmp	LBB29_9
LBB29_9:
	.loc	18 0 19 is_stmt 0
	movq	-200(%rbp), %rax
	movq	-192(%rbp), %rcx
	.loc	18 353 19
	movq	%rcx, -104(%rbp)
	movq	%rax, -96(%rbp)
Ltmp257:
LBB29_10:
	.loc	18 356 6 is_stmt 1
	movq	-104(%rbp), %rax
	movq	-96(%rbp), %rdx
	addq	$208, %rsp
	popq	%rbp
	retq
LBB29_11:
	.loc	18 0 6 is_stmt 0
	movq	-168(%rbp), %rax
	movq	-160(%rbp), %rcx
	.loc	18 355 15 is_stmt 1
	movq	%rcx, -104(%rbp)
	movq	%rax, -96(%rbp)
	.loc	18 356 5
	testb	$1, -65(%rbp)
	jne	LBB29_14
	jmp	LBB29_10
LBB29_12:
	.loc	18 346 5
	movq	-24(%rbp), %rdi
	callq	__Unwind_Resume
LBB29_13:
	.loc	18 356 5
	jmp	LBB29_12
LBB29_14:
	jmp	LBB29_10
Ltmp258:
Lfunc_end29:
	.cfi_endproc
	.section	__TEXT,__gcc_except_tab
	.p2align	2
GCC_except_table29:
Lexception7:
	.byte	255
	.byte	255
	.byte	1
	.uleb128 Lcst_end7-Lcst_begin7
Lcst_begin7:
	.uleb128 Ltmp242-Lfunc_begin29
	.uleb128 Ltmp247-Ltmp242
	.uleb128 Ltmp250-Lfunc_begin29
	.byte	0
	.uleb128 Ltmp247-Lfunc_begin29
	.uleb128 Lfunc_end29-Ltmp247
	.byte	0
	.byte	0
Lcst_end7:
	.p2align	2

	.section	__TEXT,__text,regular,pure_instructions
	.globl	__ZN107_$LT$core..iter..adapters..fuse..Fuse$LT$I$GT$$u20$as$u20$core..iter..adapters..fuse..FuseImpl$LT$I$GT$$GT$8try_fold17h9cc3ea1466fe94b8E
	.p2align	4, 0x90
__ZN107_$LT$core..iter..adapters..fuse..Fuse$LT$I$GT$$u20$as$u20$core..iter..adapters..fuse..FuseImpl$LT$I$GT$$GT$8try_fold17h9cc3ea1466fe94b8E:
Lfunc_begin30:
	.loc	18 346 0
	.cfi_startproc
	.cfi_personality 155, _rust_eh_personality
	.cfi_lsda 16, Lexception8
	pushq	%rbp
	.cfi_def_cfa_offset 16
	.cfi_offset %rbp, -16
	movq	%rsp, %rbp
	.cfi_def_cfa_register %rbp
	subq	$560, %rsp
	movq	%rcx, -528(%rbp)
	movq	%rdx, -520(%rbp)
	movq	%rsi, -512(%rbp)
	movq	%rdi, -504(%rbp)
	movq	%rdi, -496(%rbp)
	movq	%rsi, -64(%rbp)
	movq	%rdx, -48(%rbp)
	movq	%rcx, -40(%rbp)
Ltmp268:
	.loc	18 352 9 prologue_end
	movb	$1, -65(%rbp)
Ltmp269:
	.loc	18 352 16 is_stmt 0
	cmpq	$1, (%rsi)
	jne	LBB30_2
	.loc	18 0 16
	movq	-528(%rbp), %rcx
	movq	-520(%rbp), %rdx
	movq	-512(%rbp), %rsi
	.loc	18 352 21
	addq	$8, %rsi
	movq	%rsi, -24(%rbp)
	.loc	18 353 38 is_stmt 1
	movb	$0, -65(%rbp)
Ltmp259:
	leaq	-384(%rbp), %rdi
	.loc	18 353 19 is_stmt 0
	callq	__ZN102_$LT$core..iter..adapters..map..Map$LT$I$C$F$GT$$u20$as$u20$core..iter..traits..iterator..Iterator$GT$8try_fold17hadac0e069c37b30fE
Ltmp260:
	jmp	LBB30_5
Ltmp270:
LBB30_2:
Ltmp265:
	.loc	18 0 19
	movq	-504(%rbp), %rdi
	.loc	18 355 15 is_stmt 1
	callq	__ZN95_$LT$core..ops..control_flow..ControlFlow$LT$B$C$C$GT$$u20$as$u20$core..ops..try_trait..Try$GT$11from_output17h57b92220b1cf4294E
Ltmp266:
	jmp	LBB30_11
LBB30_3:
	.loc	18 356 5
	testb	$1, -65(%rbp)
	jne	LBB30_13
	jmp	LBB30_12
LBB30_4:
Ltmp267:
	.loc	18 0 5 is_stmt 0
	movq	%rax, %rcx
	movl	%edx, %eax
	movq	%rcx, -16(%rbp)
	movl	%eax, -8(%rbp)
	jmp	LBB30_3
LBB30_5:
Ltmp261:
	leaq	-488(%rbp), %rdi
	leaq	-384(%rbp), %rsi
Ltmp271:
	.loc	18 353 19 is_stmt 1
	callq	__ZN95_$LT$core..ops..control_flow..ControlFlow$LT$B$C$C$GT$$u20$as$u20$core..ops..try_trait..Try$GT$6branch17h17d70f8693d22d3eE
Ltmp262:
	jmp	LBB30_6
LBB30_6:
	movl	$1, %eax
	xorl	%ecx, %ecx
	cmpq	$9, -488(%rbp)
	cmoveq	%rcx, %rax
	cmpq	$0, %rax
	jne	LBB30_8
Ltmp272:
	.loc	18 352 9
	jmp	LBB30_2
LBB30_8:
	.loc	18 0 9 is_stmt 0
	movl	$13, %ecx
	movq	%rcx, -544(%rbp)
	leaq	-280(%rbp), %rdi
	movq	%rdi, -552(%rbp)
	leaq	-488(%rbp), %rsi
Ltmp273:
	.loc	18 353 43 is_stmt 1
	rep;movsq (%rsi), %es:(%rdi)
	movq	-552(%rbp), %rsi
	movq	-544(%rbp), %rcx
	leaq	-176(%rbp), %rdi
	movq	%rdi, -536(%rbp)
Ltmp274:
	.loc	18 353 43 is_stmt 0
	rep;movsq (%rsi), %es:(%rdi)
	movq	-536(%rbp), %rsi
	movq	-504(%rbp), %rdi
Ltmp263:
	.loc	18 353 19
	callq	__ZN104_$LT$core..ops..control_flow..ControlFlow$LT$B$C$C$GT$$u20$as$u20$core..ops..try_trait..FromResidual$GT$13from_residual17h9b8bd3303019f9deE
Ltmp264:
	jmp	LBB30_9
Ltmp275:
LBB30_9:
	.loc	18 356 5 is_stmt 1
	jmp	LBB30_10
LBB30_10:
	.loc	18 0 5 is_stmt 0
	movq	-496(%rbp), %rax
	.loc	18 356 6
	addq	$560, %rsp
	popq	%rbp
	retq
LBB30_11:
	.loc	18 356 5
	testb	$1, -65(%rbp)
	jne	LBB30_14
	jmp	LBB30_10
LBB30_12:
	.loc	18 346 5 is_stmt 1
	movq	-16(%rbp), %rdi
	callq	__Unwind_Resume
LBB30_13:
	.loc	18 356 5
	jmp	LBB30_12
LBB30_14:
	jmp	LBB30_10
Ltmp276:
Lfunc_end30:
	.cfi_endproc
	.section	__TEXT,__gcc_except_tab
	.p2align	2
GCC_except_table30:
Lexception8:
	.byte	255
	.byte	255
	.byte	1
	.uleb128 Lcst_end8-Lcst_begin8
Lcst_begin8:
	.uleb128 Ltmp259-Lfunc_begin30
	.uleb128 Ltmp264-Ltmp259
	.uleb128 Ltmp267-Lfunc_begin30
	.byte	0
	.uleb128 Ltmp264-Lfunc_begin30
	.uleb128 Lfunc_end30-Ltmp264
	.byte	0
	.byte	0
Lcst_end8:
	.p2align	2

	.section	__TEXT,__text,regular,pure_instructions
	.globl	__ZN107_$LT$core..iter..adapters..fuse..Fuse$LT$I$GT$$u20$as$u20$core..iter..adapters..fuse..FuseImpl$LT$I$GT$$GT$8try_fold17hf68e241330bfdebfE
	.p2align	4, 0x90
__ZN107_$LT$core..iter..adapters..fuse..Fuse$LT$I$GT$$u20$as$u20$core..iter..adapters..fuse..FuseImpl$LT$I$GT$$GT$8try_fold17hf68e241330bfdebfE:
Lfunc_begin31:
	.loc	18 346 0
	.cfi_startproc
	.cfi_personality 155, _rust_eh_personality
	.cfi_lsda 16, Lexception9
	pushq	%rbp
	.cfi_def_cfa_offset 16
	.cfi_offset %rbp, -16
	movq	%rsp, %rbp
	.cfi_def_cfa_register %rbp
	subq	$208, %rsp
	movq	%rdi, -136(%rbp)
	movq	%rdx, -128(%rbp)
	movq	%rcx, -120(%rbp)
	movq	%rsi, -112(%rbp)
	movq	%rdi, -64(%rbp)
	movq	%rdx, -56(%rbp)
	movq	%rcx, -48(%rbp)
Ltmp286:
	.loc	18 352 9 prologue_end
	movb	$1, -65(%rbp)
Ltmp287:
	.loc	18 352 16 is_stmt 0
	movl	$1, %eax
	xorl	%ecx, %ecx
	cmpq	$2, (%rdi)
	cmoveq	%rcx, %rax
	cmpq	$1, %rax
	jne	LBB31_2
	.loc	18 0 16
	movq	-120(%rbp), %rcx
	movq	-128(%rbp), %rdx
	movq	-136(%rbp), %rdi
	.loc	18 352 21
	movq	%rdi, -32(%rbp)
	.loc	18 353 33 is_stmt 1
	movq	-112(%rbp), %rsi
	.loc	18 353 38 is_stmt 0
	movb	$0, -65(%rbp)
Ltmp277:
	.loc	18 353 19
	callq	__ZN102_$LT$core..iter..adapters..map..Map$LT$I$C$F$GT$$u20$as$u20$core..iter..traits..iterator..Iterator$GT$8try_fold17hf634988e0e055fe5E
Ltmp278:
	movq	%rdx, -152(%rbp)
	movq	%rax, -144(%rbp)
	jmp	LBB31_5
Ltmp288:
LBB31_2:
	.loc	18 355 15 is_stmt 1
	movq	-112(%rbp), %rdi
Ltmp283:
	callq	__ZN95_$LT$core..ops..control_flow..ControlFlow$LT$B$C$C$GT$$u20$as$u20$core..ops..try_trait..Try$GT$11from_output17hbc6d780f4858324fE
Ltmp284:
	movq	%rdx, -168(%rbp)
	movq	%rax, -160(%rbp)
	jmp	LBB31_11
LBB31_3:
	.loc	18 356 5
	testb	$1, -65(%rbp)
	jne	LBB31_13
	jmp	LBB31_12
LBB31_4:
Ltmp285:
	.loc	18 0 5 is_stmt 0
	movq	%rax, %rcx
	movl	%edx, %eax
	movq	%rcx, -24(%rbp)
	movl	%eax, -16(%rbp)
	jmp	LBB31_3
LBB31_5:
Ltmp279:
	movq	-152(%rbp), %rsi
	movq	-144(%rbp), %rdi
Ltmp289:
	.loc	18 353 19 is_stmt 1
	callq	__ZN95_$LT$core..ops..control_flow..ControlFlow$LT$B$C$C$GT$$u20$as$u20$core..ops..try_trait..Try$GT$6branch17h15e9352ea7b44ab7E
Ltmp280:
	movq	%rdx, -184(%rbp)
	movq	%rax, -176(%rbp)
	jmp	LBB31_6
LBB31_6:
	.loc	18 0 19 is_stmt 0
	movq	-184(%rbp), %rax
	movq	-176(%rbp), %rcx
	.loc	18 353 19
	movq	%rcx, -88(%rbp)
	movq	%rax, -80(%rbp)
	cmpq	$0, -88(%rbp)
	jne	LBB31_8
	movq	-80(%rbp), %rax
	movq	%rax, -8(%rbp)
	.loc	18 353 13
	movq	%rax, -112(%rbp)
Ltmp290:
	.loc	18 352 9 is_stmt 1
	jmp	LBB31_2
LBB31_8:
Ltmp281:
Ltmp291:
	.loc	18 353 19
	callq	__ZN104_$LT$core..ops..control_flow..ControlFlow$LT$B$C$C$GT$$u20$as$u20$core..ops..try_trait..FromResidual$GT$13from_residual17h017e70b89fda791fE
Ltmp282:
	movq	%rdx, -200(%rbp)
	movq	%rax, -192(%rbp)
	jmp	LBB31_9
LBB31_9:
	.loc	18 0 19 is_stmt 0
	movq	-200(%rbp), %rax
	movq	-192(%rbp), %rcx
	.loc	18 353 19
	movq	%rcx, -104(%rbp)
	movq	%rax, -96(%rbp)
Ltmp292:
LBB31_10:
	.loc	18 356 6 is_stmt 1
	movq	-104(%rbp), %rax
	movq	-96(%rbp), %rdx
	addq	$208, %rsp
	popq	%rbp
	retq
LBB31_11:
	.loc	18 0 6 is_stmt 0
	movq	-168(%rbp), %rax
	movq	-160(%rbp), %rcx
	.loc	18 355 15 is_stmt 1
	movq	%rcx, -104(%rbp)
	movq	%rax, -96(%rbp)
	.loc	18 356 5
	testb	$1, -65(%rbp)
	jne	LBB31_14
	jmp	LBB31_10
LBB31_12:
	.loc	18 346 5
	movq	-24(%rbp), %rdi
	callq	__Unwind_Resume
LBB31_13:
	.loc	18 356 5
	jmp	LBB31_12
LBB31_14:
	jmp	LBB31_10
Ltmp293:
Lfunc_end31:
	.cfi_endproc
	.section	__TEXT,__gcc_except_tab
	.p2align	2
GCC_except_table31:
Lexception9:
	.byte	255
	.byte	255
	.byte	1
	.uleb128 Lcst_end9-Lcst_begin9
Lcst_begin9:
	.uleb128 Ltmp277-Lfunc_begin31
	.uleb128 Ltmp282-Ltmp277
	.uleb128 Ltmp285-Lfunc_begin31
	.byte	0
	.uleb128 Ltmp282-Lfunc_begin31
	.uleb128 Lfunc_end31-Ltmp282
	.byte	0
	.byte	0
Lcst_end9:
	.p2align	2

	.section	__TEXT,__text,regular,pure_instructions
	.globl	__ZN107_$LT$core..iter..adapters..fuse..Fuse$LT$I$GT$$u20$as$u20$core..iter..adapters..fuse..FuseImpl$LT$I$GT$$GT$8try_fold17hf70508ef775e6522E
	.p2align	4, 0x90
__ZN107_$LT$core..iter..adapters..fuse..Fuse$LT$I$GT$$u20$as$u20$core..iter..adapters..fuse..FuseImpl$LT$I$GT$$GT$8try_fold17hf70508ef775e6522E:
Lfunc_begin32:
	.loc	18 346 0
	.cfi_startproc
	.cfi_personality 155, _rust_eh_personality
	.cfi_lsda 16, Lexception10
	pushq	%rbp
	.cfi_def_cfa_offset 16
	.cfi_offset %rbp, -16
	movq	%rsp, %rbp
	.cfi_def_cfa_register %rbp
	subq	$208, %rsp
	movq	%rdi, -136(%rbp)
	movq	%rdx, -128(%rbp)
	movq	%rcx, -120(%rbp)
	movq	%rsi, -112(%rbp)
	movq	%rdi, -64(%rbp)
	movq	%rdx, -56(%rbp)
	movq	%rcx, -48(%rbp)
Ltmp303:
	.loc	18 352 9 prologue_end
	movb	$1, -65(%rbp)
Ltmp304:
	.loc	18 352 16 is_stmt 0
	cmpq	$1, (%rdi)
	jne	LBB32_2
	.loc	18 0 16
	movq	-120(%rbp), %rcx
	movq	-128(%rbp), %rdx
	movq	-136(%rbp), %rdi
	.loc	18 352 21
	addq	$8, %rdi
	movq	%rdi, -32(%rbp)
	.loc	18 353 33 is_stmt 1
	movq	-112(%rbp), %rsi
	.loc	18 353 38 is_stmt 0
	movb	$0, -65(%rbp)
Ltmp294:
	.loc	18 353 19
	callq	__ZN102_$LT$core..iter..adapters..map..Map$LT$I$C$F$GT$$u20$as$u20$core..iter..traits..iterator..Iterator$GT$8try_fold17h93c3ed6446c9c6aaE
Ltmp295:
	movq	%rdx, -152(%rbp)
	movq	%rax, -144(%rbp)
	jmp	LBB32_5
Ltmp305:
LBB32_2:
	.loc	18 355 15 is_stmt 1
	movq	-112(%rbp), %rdi
Ltmp300:
	callq	__ZN95_$LT$core..ops..control_flow..ControlFlow$LT$B$C$C$GT$$u20$as$u20$core..ops..try_trait..Try$GT$11from_output17hbc6d780f4858324fE
Ltmp301:
	movq	%rdx, -168(%rbp)
	movq	%rax, -160(%rbp)
	jmp	LBB32_11
LBB32_3:
	.loc	18 356 5
	testb	$1, -65(%rbp)
	jne	LBB32_13
	jmp	LBB32_12
LBB32_4:
Ltmp302:
	.loc	18 0 5 is_stmt 0
	movq	%rax, %rcx
	movl	%edx, %eax
	movq	%rcx, -24(%rbp)
	movl	%eax, -16(%rbp)
	jmp	LBB32_3
LBB32_5:
Ltmp296:
	movq	-152(%rbp), %rsi
	movq	-144(%rbp), %rdi
Ltmp306:
	.loc	18 353 19 is_stmt 1
	callq	__ZN95_$LT$core..ops..control_flow..ControlFlow$LT$B$C$C$GT$$u20$as$u20$core..ops..try_trait..Try$GT$6branch17h15e9352ea7b44ab7E
Ltmp297:
	movq	%rdx, -184(%rbp)
	movq	%rax, -176(%rbp)
	jmp	LBB32_6
LBB32_6:
	.loc	18 0 19 is_stmt 0
	movq	-184(%rbp), %rax
	movq	-176(%rbp), %rcx
	.loc	18 353 19
	movq	%rcx, -88(%rbp)
	movq	%rax, -80(%rbp)
	cmpq	$0, -88(%rbp)
	jne	LBB32_8
	movq	-80(%rbp), %rax
	movq	%rax, -8(%rbp)
	.loc	18 353 13
	movq	%rax, -112(%rbp)
Ltmp307:
	.loc	18 352 9 is_stmt 1
	jmp	LBB32_2
LBB32_8:
Ltmp298:
Ltmp308:
	.loc	18 353 19
	callq	__ZN104_$LT$core..ops..control_flow..ControlFlow$LT$B$C$C$GT$$u20$as$u20$core..ops..try_trait..FromResidual$GT$13from_residual17h017e70b89fda791fE
Ltmp299:
	movq	%rdx, -200(%rbp)
	movq	%rax, -192(%rbp)
	jmp	LBB32_9
LBB32_9:
	.loc	18 0 19 is_stmt 0
	movq	-200(%rbp), %rax
	movq	-192(%rbp), %rcx
	.loc	18 353 19
	movq	%rcx, -104(%rbp)
	movq	%rax, -96(%rbp)
Ltmp309:
LBB32_10:
	.loc	18 356 6 is_stmt 1
	movq	-104(%rbp), %rax
	movq	-96(%rbp), %rdx
	addq	$208, %rsp
	popq	%rbp
	retq
LBB32_11:
	.loc	18 0 6 is_stmt 0
	movq	-168(%rbp), %rax
	movq	-160(%rbp), %rcx
	.loc	18 355 15 is_stmt 1
	movq	%rcx, -104(%rbp)
	movq	%rax, -96(%rbp)
	.loc	18 356 5
	testb	$1, -65(%rbp)
	jne	LBB32_14
	jmp	LBB32_10
LBB32_12:
	.loc	18 346 5
	movq	-24(%rbp), %rdi
	callq	__Unwind_Resume
LBB32_13:
	.loc	18 356 5
	jmp	LBB32_12
LBB32_14:
	jmp	LBB32_10
Ltmp310:
Lfunc_end32:
	.cfi_endproc
	.section	__TEXT,__gcc_except_tab
	.p2align	2
GCC_except_table32:
Lexception10:
	.byte	255
	.byte	255
	.byte	1
	.uleb128 Lcst_end10-Lcst_begin10
Lcst_begin10:
	.uleb128 Ltmp294-Lfunc_begin32
	.uleb128 Ltmp299-Ltmp294
	.uleb128 Ltmp302-Lfunc_begin32
	.byte	0
	.uleb128 Ltmp299-Lfunc_begin32
	.uleb128 Lfunc_end32-Ltmp299
	.byte	0
	.byte	0
Lcst_end10:
	.p2align	2

	.section	__TEXT,__text,regular,pure_instructions
	.globl	__ZN107_$LT$core..iter..adapters..fuse..Fuse$LT$I$GT$$u20$as$u20$core..iter..adapters..fuse..FuseImpl$LT$I$GT$$GT$8try_fold17hfbc21c4c56e4477fE
	.p2align	4, 0x90
__ZN107_$LT$core..iter..adapters..fuse..Fuse$LT$I$GT$$u20$as$u20$core..iter..adapters..fuse..FuseImpl$LT$I$GT$$GT$8try_fold17hfbc21c4c56e4477fE:
Lfunc_begin33:
	.loc	18 346 0
	.cfi_startproc
	.cfi_personality 155, _rust_eh_personality
	.cfi_lsda 16, Lexception11
	pushq	%rbp
	.cfi_def_cfa_offset 16
	.cfi_offset %rbp, -16
	movq	%rsp, %rbp
	.cfi_def_cfa_register %rbp
	subq	$560, %rsp
	movq	%rcx, -528(%rbp)
	movq	%rdx, -520(%rbp)
	movq	%rsi, -512(%rbp)
	movq	%rdi, -504(%rbp)
	movq	%rdi, -496(%rbp)
	movq	%rsi, -64(%rbp)
	movq	%rdx, -48(%rbp)
	movq	%rcx, -40(%rbp)
Ltmp320:
	.loc	18 352 9 prologue_end
	movb	$1, -65(%rbp)
Ltmp321:
	.loc	18 352 16 is_stmt 0
	cmpq	$1, (%rsi)
	jne	LBB33_2
	.loc	18 0 16
	movq	-528(%rbp), %rcx
	movq	-520(%rbp), %rdx
	movq	-512(%rbp), %rsi
	.loc	18 352 21
	addq	$8, %rsi
	movq	%rsi, -24(%rbp)
	.loc	18 353 38 is_stmt 1
	movb	$0, -65(%rbp)
Ltmp311:
	leaq	-384(%rbp), %rdi
	.loc	18 353 19 is_stmt 0
	callq	__ZN102_$LT$core..iter..adapters..map..Map$LT$I$C$F$GT$$u20$as$u20$core..iter..traits..iterator..Iterator$GT$8try_fold17hdac13d649ec21000E
Ltmp312:
	jmp	LBB33_5
Ltmp322:
LBB33_2:
Ltmp317:
	.loc	18 0 19
	movq	-504(%rbp), %rdi
	.loc	18 355 15 is_stmt 1
	callq	__ZN95_$LT$core..ops..control_flow..ControlFlow$LT$B$C$C$GT$$u20$as$u20$core..ops..try_trait..Try$GT$11from_output17h57b92220b1cf4294E
Ltmp318:
	jmp	LBB33_11
LBB33_3:
	.loc	18 356 5
	testb	$1, -65(%rbp)
	jne	LBB33_13
	jmp	LBB33_12
LBB33_4:
Ltmp319:
	.loc	18 0 5 is_stmt 0
	movq	%rax, %rcx
	movl	%edx, %eax
	movq	%rcx, -16(%rbp)
	movl	%eax, -8(%rbp)
	jmp	LBB33_3
LBB33_5:
Ltmp313:
	leaq	-488(%rbp), %rdi
	leaq	-384(%rbp), %rsi
Ltmp323:
	.loc	18 353 19 is_stmt 1
	callq	__ZN95_$LT$core..ops..control_flow..ControlFlow$LT$B$C$C$GT$$u20$as$u20$core..ops..try_trait..Try$GT$6branch17h17d70f8693d22d3eE
Ltmp314:
	jmp	LBB33_6
LBB33_6:
	movl	$1, %eax
	xorl	%ecx, %ecx
	cmpq	$9, -488(%rbp)
	cmoveq	%rcx, %rax
	cmpq	$0, %rax
	jne	LBB33_8
Ltmp324:
	.loc	18 352 9
	jmp	LBB33_2
LBB33_8:
	.loc	18 0 9 is_stmt 0
	movl	$13, %ecx
	movq	%rcx, -544(%rbp)
	leaq	-280(%rbp), %rdi
	movq	%rdi, -552(%rbp)
	leaq	-488(%rbp), %rsi
Ltmp325:
	.loc	18 353 43 is_stmt 1
	rep;movsq (%rsi), %es:(%rdi)
	movq	-552(%rbp), %rsi
	movq	-544(%rbp), %rcx
	leaq	-176(%rbp), %rdi
	movq	%rdi, -536(%rbp)
Ltmp326:
	.loc	18 353 43 is_stmt 0
	rep;movsq (%rsi), %es:(%rdi)
	movq	-536(%rbp), %rsi
	movq	-504(%rbp), %rdi
Ltmp315:
	.loc	18 353 19
	callq	__ZN104_$LT$core..ops..control_flow..ControlFlow$LT$B$C$C$GT$$u20$as$u20$core..ops..try_trait..FromResidual$GT$13from_residual17h9b8bd3303019f9deE
Ltmp316:
	jmp	LBB33_9
Ltmp327:
LBB33_9:
	.loc	18 356 5 is_stmt 1
	jmp	LBB33_10
LBB33_10:
	.loc	18 0 5 is_stmt 0
	movq	-496(%rbp), %rax
	.loc	18 356 6
	addq	$560, %rsp
	popq	%rbp
	retq
LBB33_11:
	.loc	18 356 5
	testb	$1, -65(%rbp)
	jne	LBB33_14
	jmp	LBB33_10
LBB33_12:
	.loc	18 346 5 is_stmt 1
	movq	-16(%rbp), %rdi
	callq	__Unwind_Resume
LBB33_13:
	.loc	18 356 5
	jmp	LBB33_12
LBB33_14:
	jmp	LBB33_10
Ltmp328:
Lfunc_end33:
	.cfi_endproc
	.section	__TEXT,__gcc_except_tab
	.p2align	2
GCC_except_table33:
Lexception11:
	.byte	255
	.byte	255
	.byte	1
	.uleb128 Lcst_end11-Lcst_begin11
Lcst_begin11:
	.uleb128 Ltmp311-Lfunc_begin33
	.uleb128 Ltmp316-Ltmp311
	.uleb128 Ltmp319-Lfunc_begin33
	.byte	0
	.uleb128 Ltmp316-Lfunc_begin33
	.uleb128 Lfunc_end33-Ltmp316
	.byte	0
	.byte	0
Lcst_end11:
	.p2align	2

	.section	__TEXT,__text,regular,pure_instructions
	.globl	__ZN107_$LT$core..ops..range..RangeInclusive$LT$T$GT$$u20$as$u20$core..iter..range..RangeInclusiveIteratorImpl$GT$9spec_next17h58c3601571b8bec3E
	.p2align	4, 0x90
__ZN107_$LT$core..ops..range..RangeInclusive$LT$T$GT$$u20$as$u20$core..iter..range..RangeInclusiveIteratorImpl$GT$9spec_next17h58c3601571b8bec3E:
Lfunc_begin34:
	.file	20 "/rustc/2c8cc343237b8f7d5a3c3703e3a87f2eb2c54a74/library/core/src/iter" "range.rs"
	.loc	20 1004 0
	.cfi_startproc
	pushq	%rbp
	.cfi_def_cfa_offset 16
	.cfi_offset %rbp, -16
	movq	%rsp, %rbp
	.cfi_def_cfa_register %rbp
	subq	$64, %rsp
	movq	%rdi, -56(%rbp)
	movq	%rdi, -40(%rbp)
Ltmp329:
	.loc	20 1005 12 prologue_end
	movq	%rdi, -32(%rbp)
Ltmp330:
	.file	21 "/rustc/2c8cc343237b8f7d5a3c3703e3a87f2eb2c54a74/library/core/src/ops" "range.rs"
	.loc	21 540 9
	testb	$1, 4(%rdi)
	jne	LBB34_2
	.loc	21 0 9 is_stmt 0
	movq	-56(%rbp), %rdi
	.loc	21 540 43
	movq	%rdi, %rsi
	addq	$2, %rsi
	.loc	21 540 28
	callq	__ZN4core3cmp5impls55_$LT$impl$u20$core..cmp..PartialOrd$u20$for$u20$u16$GT$2le17h8257cbc2dcc58001E
	.loc	21 540 27
	xorb	$-1, %al
	.loc	21 540 9
	andb	$1, %al
	movb	%al, -43(%rbp)
	jmp	LBB34_3
LBB34_2:
	movb	$1, -43(%rbp)
Ltmp331:
LBB34_3:
	.loc	20 1005 12 is_stmt 1
	testb	$1, -43(%rbp)
	jne	LBB34_5
	.loc	20 0 12 is_stmt 0
	movq	-56(%rbp), %rdi
	.loc	20 1008 41 is_stmt 1
	movq	%rdi, %rsi
	addq	$2, %rsi
	.loc	20 1008 28 is_stmt 0
	callq	__ZN4core3cmp5impls55_$LT$impl$u20$core..cmp..PartialOrd$u20$for$u20$u16$GT$2lt17h04dd30e8e3df525dE
	movb	%al, %cl
	andb	$1, %cl
	movb	%cl, -19(%rbp)
Ltmp332:
	.loc	20 1009 17 is_stmt 1
	testb	$1, %al
	jne	LBB34_8
	jmp	LBB34_7
Ltmp333:
LBB34_5:
	.loc	20 1006 20
	movw	$0, -48(%rbp)
LBB34_6:
	.loc	20 1017 6
	movw	-48(%rbp), %ax
	movw	-46(%rbp), %dx
	addq	$64, %rsp
	popq	%rbp
	retq
LBB34_7:
	.loc	20 0 6 is_stmt 0
	movq	-56(%rbp), %rax
Ltmp334:
	.loc	20 1014 13 is_stmt 1
	movb	$1, 4(%rax)
	movq	%rax, -16(%rbp)
Ltmp335:
	.file	22 "/rustc/2c8cc343237b8f7d5a3c3703e3a87f2eb2c54a74/library/core/src" "clone.rs"
	.loc	22 189 25
	movw	(%rax), %ax
Ltmp336:
	.loc	20 1015 13
	movw	%ax, -42(%rbp)
	.loc	20 1009 14
	jmp	LBB34_9
LBB34_8:
	.loc	20 0 14 is_stmt 0
	movq	-56(%rbp), %rax
	movq	%rax, -8(%rbp)
	.loc	20 1011 30 is_stmt 1
	movl	$1, %esi
	movzwl	(%rax), %edi
	callq	__ZN47_$LT$u16$u20$as$u20$core..iter..range..Step$GT$17forward_unchecked17hc7bfba12e4b8d43eE
	movq	-56(%rbp), %rdi
	movw	%ax, -18(%rbp)
Ltmp337:
	.loc	20 1012 13
	movzwl	%ax, %esi
	callq	__ZN4core3mem7replace17h8e0f854138d4c1c3E
	movw	%ax, -42(%rbp)
Ltmp338:
LBB34_9:
	.loc	20 1009 9
	movw	-42(%rbp), %ax
	movw	%ax, -46(%rbp)
	movw	$1, -48(%rbp)
Ltmp339:
	.loc	20 1017 6
	jmp	LBB34_6
Ltmp340:
Lfunc_end34:
	.cfi_endproc

	.globl	__ZN107_$LT$core..ops..range..RangeInclusive$LT$T$GT$$u20$as$u20$core..iter..range..RangeInclusiveIteratorImpl$GT$9spec_next17hdcad1d3f386a7fe0E
	.p2align	4, 0x90
__ZN107_$LT$core..ops..range..RangeInclusive$LT$T$GT$$u20$as$u20$core..iter..range..RangeInclusiveIteratorImpl$GT$9spec_next17hdcad1d3f386a7fe0E:
Lfunc_begin35:
	.loc	20 1004 0
	.cfi_startproc
	pushq	%rbp
	.cfi_def_cfa_offset 16
	.cfi_offset %rbp, -16
	movq	%rsp, %rbp
	.cfi_def_cfa_register %rbp
	subq	$64, %rsp
	movq	%rdi, -64(%rbp)
	movq	%rdi, -40(%rbp)
Ltmp341:
	.loc	20 1005 12 prologue_end
	movq	%rdi, -32(%rbp)
Ltmp342:
	.loc	21 540 9
	testb	$1, 8(%rdi)
	jne	LBB35_2
	.loc	21 0 9 is_stmt 0
	movq	-64(%rbp), %rdi
	.loc	21 540 43
	movq	%rdi, %rsi
	addq	$4, %rsi
	.loc	21 540 28
	callq	__ZN4core3cmp5impls55_$LT$impl$u20$core..cmp..PartialOrd$u20$for$u20$u32$GT$2le17h51d576d5fb2d4fe8E
	.loc	21 540 27
	xorb	$-1, %al
	.loc	21 540 9
	andb	$1, %al
	movb	%al, -45(%rbp)
	jmp	LBB35_3
LBB35_2:
	movb	$1, -45(%rbp)
Ltmp343:
LBB35_3:
	.loc	20 1005 12 is_stmt 1
	testb	$1, -45(%rbp)
	jne	LBB35_5
	.loc	20 0 12 is_stmt 0
	movq	-64(%rbp), %rdi
	.loc	20 1008 41 is_stmt 1
	movq	%rdi, %rsi
	addq	$4, %rsi
	.loc	20 1008 28 is_stmt 0
	callq	__ZN4core3cmp5impls55_$LT$impl$u20$core..cmp..PartialOrd$u20$for$u20$u32$GT$2lt17h1b1615da68282a4cE
	movb	%al, %cl
	andb	$1, %cl
	movb	%cl, -21(%rbp)
Ltmp344:
	.loc	20 1009 17 is_stmt 1
	testb	$1, %al
	jne	LBB35_8
	jmp	LBB35_7
Ltmp345:
LBB35_5:
	.loc	20 1006 20
	movl	$0, -56(%rbp)
LBB35_6:
	.loc	20 1017 6
	movl	-56(%rbp), %eax
	movl	-52(%rbp), %edx
	addq	$64, %rsp
	popq	%rbp
	retq
LBB35_7:
	.loc	20 0 6 is_stmt 0
	movq	-64(%rbp), %rax
Ltmp346:
	.loc	20 1014 13 is_stmt 1
	movb	$1, 8(%rax)
	movq	%rax, -16(%rbp)
Ltmp347:
	.loc	22 189 25
	movl	(%rax), %eax
Ltmp348:
	.loc	20 1015 13
	movl	%eax, -44(%rbp)
	.loc	20 1009 14
	jmp	LBB35_9
LBB35_8:
	.loc	20 0 14 is_stmt 0
	movq	-64(%rbp), %rax
	movq	%rax, -8(%rbp)
Ltmp349:
	.loc	22 189 25 is_stmt 1
	movl	(%rax), %edi
Ltmp350:
	.loc	20 1011 30
	movl	$1, %esi
	callq	__ZN47_$LT$u32$u20$as$u20$core..iter..range..Step$GT$17forward_unchecked17h2b54bb6a77afccfaE
	movq	-64(%rbp), %rdi
	movl	%eax, %esi
	movl	%esi, -20(%rbp)
Ltmp351:
	.loc	20 1012 13
	callq	__ZN4core3mem7replace17h691124111d9c1be8E
	movl	%eax, -44(%rbp)
Ltmp352:
LBB35_9:
	.loc	20 1009 9
	movl	-44(%rbp), %eax
	movl	%eax, -52(%rbp)
	movl	$1, -56(%rbp)
Ltmp353:
	.loc	20 1017 6
	jmp	LBB35_6
Ltmp354:
Lfunc_end35:
	.cfi_endproc

	.globl	__ZN108_$LT$core..iter..adapters..filter..Filter$LT$I$C$P$GT$$u20$as$u20$core..iter..traits..iterator..Iterator$GT$4next17h823bf909668a4c0fE
	.p2align	4, 0x90
__ZN108_$LT$core..iter..adapters..filter..Filter$LT$I$C$P$GT$$u20$as$u20$core..iter..traits..iterator..Iterator$GT$4next17h823bf909668a4c0fE:
Lfunc_begin36:
	.file	23 "/rustc/2c8cc343237b8f7d5a3c3703e3a87f2eb2c54a74/library/core/src/iter/adapters" "filter.rs"
	.loc	23 55 0
	.cfi_startproc
	pushq	%rbp
	.cfi_def_cfa_offset 16
	.cfi_offset %rbp, -16
	movq	%rsp, %rbp
	.cfi_def_cfa_register %rbp
	subq	$16, %rsp
	movq	%rsi, %rdx
	movq	%rdi, %rax
	movq	%rax, -16(%rbp)
	movq	%rdx, -8(%rbp)
Ltmp355:
	.loc	23 56 9 prologue_end
	movq	%rdx, %rsi
	callq	__ZN4core4iter6traits8iterator8Iterator4find17h6441d42ab58b550cE
	movq	-16(%rbp), %rax
	.loc	23 57 6
	addq	$16, %rsp
	popq	%rbp
	retq
Ltmp356:
Lfunc_end36:
	.cfi_endproc

	.globl	__ZN108_$LT$core..iter..adapters..filter..Filter$LT$I$C$P$GT$$u20$as$u20$core..iter..traits..iterator..Iterator$GT$4next17he18809c722a6d410E
	.p2align	4, 0x90
__ZN108_$LT$core..iter..adapters..filter..Filter$LT$I$C$P$GT$$u20$as$u20$core..iter..traits..iterator..Iterator$GT$4next17he18809c722a6d410E:
Lfunc_begin37:
	.loc	23 55 0
	.cfi_startproc
	pushq	%rbp
	.cfi_def_cfa_offset 16
	.cfi_offset %rbp, -16
	movq	%rsp, %rbp
	.cfi_def_cfa_register %rbp
	subq	$16, %rsp
	movq	%rsi, %rdx
	movq	%rdi, %rax
	movq	%rax, -16(%rbp)
	movq	%rdx, -8(%rbp)
Ltmp357:
	.loc	23 56 9 prologue_end
	movq	%rdx, %rsi
	callq	__ZN4core4iter6traits8iterator8Iterator4find17h24f3704b6cd8fcbaE
	movq	-16(%rbp), %rax
	.loc	23 57 6
	addq	$16, %rsp
	popq	%rbp
	retq
Ltmp358:
Lfunc_end37:
	.cfi_endproc

	.globl	__ZN108_$LT$core..iter..adapters..filter..Filter$LT$I$C$P$GT$$u20$as$u20$core..iter..traits..iterator..Iterator$GT$8try_fold17h4fa622c5030adbedE
	.p2align	4, 0x90
__ZN108_$LT$core..iter..adapters..filter..Filter$LT$I$C$P$GT$$u20$as$u20$core..iter..traits..iterator..Iterator$GT$8try_fold17h4fa622c5030adbedE:
Lfunc_begin38:
	.loc	23 87 0
	.cfi_startproc
	.cfi_personality 155, _rust_eh_personality
	.cfi_lsda 16, Lexception12
	pushq	%rbp
	.cfi_def_cfa_offset 16
	.cfi_offset %rbp, -16
	movq	%rsp, %rbp
	.cfi_def_cfa_register %rbp
	subq	$128, %rsp
	movq	%rsi, %rax
	movq	%rdi, %rsi
	movq	%rsi, -112(%rbp)
	movq	%rax, -104(%rbp)
Ltmp364:
	movq	%rsi, -32(%rbp)
	movq	%rax, -24(%rbp)
Ltmp365:
	.loc	23 93 28 prologue_end
	movb	$1, -33(%rbp)
	.loc	23 93 71 is_stmt 0
	movq	16(%rdx), %rax
	movq	%rax, -48(%rbp)
	movq	(%rdx), %rax
	movq	8(%rdx), %rcx
	movq	%rcx, -56(%rbp)
	movq	%rax, -64(%rbp)
Ltmp359:
	leaq	-96(%rbp), %rdi
	leaq	-64(%rbp), %rdx
Ltmp366:
	.loc	23 93 34
	callq	__ZN4core4iter8adapters6filter15filter_try_fold17hda45a0303ab492f3E
Ltmp360:
	jmp	LBB38_3
Ltmp367:
LBB38_1:
	.loc	23 93 76
	testb	$1, -33(%rbp)
	jne	LBB38_6
	jmp	LBB38_5
Ltmp368:
LBB38_2:
Ltmp363:
	.loc	23 0 76
	movq	%rax, %rcx
	movl	%edx, %eax
	movq	%rcx, -16(%rbp)
	movl	%eax, -8(%rbp)
	jmp	LBB38_1
Ltmp369:
LBB38_3:
	movq	-104(%rbp), %rsi
	movq	-112(%rbp), %rdi
	.loc	23 93 9
	movb	$0, -33(%rbp)
Ltmp361:
	leaq	-96(%rbp), %rdx
	callq	__ZN114_$LT$core..iter..adapters..flatten..FlatMap$LT$I$C$U$C$F$GT$$u20$as$u20$core..iter..traits..iterator..Iterator$GT$8try_fold17ha51393ff66cb8198E
Ltmp362:
	movq	%rdx, -128(%rbp)
	movq	%rax, -120(%rbp)
	jmp	LBB38_4
Ltmp370:
LBB38_4:
	.loc	23 0 9
	movq	-128(%rbp), %rdx
	movq	-120(%rbp), %rax
	.loc	23 94 6 is_stmt 1
	addq	$128, %rsp
	popq	%rbp
	retq
Ltmp371:
LBB38_5:
	.loc	23 87 5
	movq	-16(%rbp), %rdi
	callq	__Unwind_Resume
Ltmp372:
LBB38_6:
	.loc	23 93 76
	jmp	LBB38_5
Ltmp373:
Lfunc_end38:
	.cfi_endproc
	.section	__TEXT,__gcc_except_tab
	.p2align	2
GCC_except_table38:
Lexception12:
	.byte	255
	.byte	255
	.byte	1
	.uleb128 Lcst_end12-Lcst_begin12
Lcst_begin12:
	.uleb128 Ltmp359-Lfunc_begin38
	.uleb128 Ltmp362-Ltmp359
	.uleb128 Ltmp363-Lfunc_begin38
	.byte	0
	.uleb128 Ltmp362-Lfunc_begin38
	.uleb128 Lfunc_end38-Ltmp362
	.byte	0
	.byte	0
Lcst_end12:
	.p2align	2

	.section	__TEXT,__text,regular,pure_instructions
	.globl	__ZN108_$LT$core..iter..adapters..filter..Filter$LT$I$C$P$GT$$u20$as$u20$core..iter..traits..iterator..Iterator$GT$8try_fold17heecaeccfbd011a5fE
	.p2align	4, 0x90
__ZN108_$LT$core..iter..adapters..filter..Filter$LT$I$C$P$GT$$u20$as$u20$core..iter..traits..iterator..Iterator$GT$8try_fold17heecaeccfbd011a5fE:
Lfunc_begin39:
	.loc	23 87 0
	.cfi_startproc
	.cfi_personality 155, _rust_eh_personality
	.cfi_lsda 16, Lexception13
	pushq	%rbp
	.cfi_def_cfa_offset 16
	.cfi_offset %rbp, -16
	movq	%rsp, %rbp
	.cfi_def_cfa_register %rbp
	subq	$128, %rsp
	movq	%rsi, %rax
	movq	%rdi, %rsi
	movq	%rsi, -112(%rbp)
	movq	%rax, -104(%rbp)
Ltmp379:
	movq	%rsi, -32(%rbp)
	movq	%rax, -24(%rbp)
Ltmp380:
	.loc	23 93 28 prologue_end
	movb	$1, -33(%rbp)
	.loc	23 93 71 is_stmt 0
	movq	16(%rdx), %rax
	movq	%rax, -48(%rbp)
	movq	(%rdx), %rax
	movq	8(%rdx), %rcx
	movq	%rcx, -56(%rbp)
	movq	%rax, -64(%rbp)
Ltmp374:
	leaq	-96(%rbp), %rdi
	leaq	-64(%rbp), %rdx
Ltmp381:
	.loc	23 93 34
	callq	__ZN4core4iter8adapters6filter15filter_try_fold17h544b104add978622E
Ltmp375:
	jmp	LBB39_3
Ltmp382:
LBB39_1:
	.loc	23 93 76
	testb	$1, -33(%rbp)
	jne	LBB39_6
	jmp	LBB39_5
Ltmp383:
LBB39_2:
Ltmp378:
	.loc	23 0 76
	movq	%rax, %rcx
	movl	%edx, %eax
	movq	%rcx, -16(%rbp)
	movl	%eax, -8(%rbp)
	jmp	LBB39_1
Ltmp384:
LBB39_3:
	movq	-104(%rbp), %rsi
	movq	-112(%rbp), %rdi
	.loc	23 93 9
	movb	$0, -33(%rbp)
Ltmp376:
	leaq	-96(%rbp), %rdx
	callq	__ZN114_$LT$core..iter..adapters..flatten..FlatMap$LT$I$C$U$C$F$GT$$u20$as$u20$core..iter..traits..iterator..Iterator$GT$8try_fold17h04f708b0fb3c5591E
Ltmp377:
	movq	%rdx, -128(%rbp)
	movq	%rax, -120(%rbp)
	jmp	LBB39_4
Ltmp385:
LBB39_4:
	.loc	23 0 9
	movq	-128(%rbp), %rdx
	movq	-120(%rbp), %rax
	.loc	23 94 6 is_stmt 1
	addq	$128, %rsp
	popq	%rbp
	retq
Ltmp386:
LBB39_5:
	.loc	23 87 5
	movq	-16(%rbp), %rdi
	callq	__Unwind_Resume
Ltmp387:
LBB39_6:
	.loc	23 93 76
	jmp	LBB39_5
Ltmp388:
Lfunc_end39:
	.cfi_endproc
	.section	__TEXT,__gcc_except_tab
	.p2align	2
GCC_except_table39:
Lexception13:
	.byte	255
	.byte	255
	.byte	1
	.uleb128 Lcst_end13-Lcst_begin13
Lcst_begin13:
	.uleb128 Ltmp374-Lfunc_begin39
	.uleb128 Ltmp377-Ltmp374
	.uleb128 Ltmp378-Lfunc_begin39
	.byte	0
	.uleb128 Ltmp377-Lfunc_begin39
	.uleb128 Lfunc_end39-Ltmp377
	.byte	0
	.byte	0
Lcst_end13:
	.p2align	2

	.section	__TEXT,__text,regular,pure_instructions
	.globl	__ZN108_$LT$core..iter..adapters..filter..Filter$LT$I$C$P$GT$$u20$as$u20$core..iter..traits..iterator..Iterator$GT$9size_hint17h0a1e83e7e8af4d2eE
	.p2align	4, 0x90
__ZN108_$LT$core..iter..adapters..filter..Filter$LT$I$C$P$GT$$u20$as$u20$core..iter..traits..iterator..Iterator$GT$9size_hint17h0a1e83e7e8af4d2eE:
Lfunc_begin40:
	.loc	23 60 0
	.cfi_startproc
	pushq	%rbp
	.cfi_def_cfa_offset 16
	.cfi_offset %rbp, -16
	movq	%rsp, %rbp
	.cfi_def_cfa_register %rbp
	subq	$64, %rsp
	movq	%rdi, -64(%rbp)
	movq	%rdi, -56(%rbp)
	movq	%rsi, -24(%rbp)
Ltmp389:
	.loc	23 61 26 prologue_end
	leaq	-48(%rbp), %rdi
	callq	__ZN114_$LT$core..iter..adapters..flatten..FlatMap$LT$I$C$U$C$F$GT$$u20$as$u20$core..iter..traits..iterator..Iterator$GT$9size_hint17hd5b9487fd3f1e87fE
	movq	-64(%rbp), %rdi
	movq	-56(%rbp), %rax
	.loc	23 61 17 is_stmt 0
	movq	-40(%rbp), %rdx
	movq	-32(%rbp), %rcx
	movq	%rdx, -16(%rbp)
	movq	%rcx, -8(%rbp)
Ltmp390:
	.loc	23 62 9 is_stmt 1
	movq	$0, (%rdi)
	movq	%rdx, 8(%rdi)
	movq	%rcx, 16(%rdi)
Ltmp391:
	.loc	23 63 6
	addq	$64, %rsp
	popq	%rbp
	retq
Ltmp392:
Lfunc_end40:
	.cfi_endproc

	.globl	__ZN108_$LT$core..iter..adapters..filter..Filter$LT$I$C$P$GT$$u20$as$u20$core..iter..traits..iterator..Iterator$GT$9size_hint17h1b0b571fa08d5086E
	.p2align	4, 0x90
__ZN108_$LT$core..iter..adapters..filter..Filter$LT$I$C$P$GT$$u20$as$u20$core..iter..traits..iterator..Iterator$GT$9size_hint17h1b0b571fa08d5086E:
Lfunc_begin41:
	.loc	23 60 0
	.cfi_startproc
	pushq	%rbp
	.cfi_def_cfa_offset 16
	.cfi_offset %rbp, -16
	movq	%rsp, %rbp
	.cfi_def_cfa_register %rbp
	subq	$64, %rsp
	movq	%rdi, -64(%rbp)
	movq	%rdi, -56(%rbp)
	movq	%rsi, -24(%rbp)
Ltmp393:
	.loc	23 61 26 prologue_end
	leaq	-48(%rbp), %rdi
	callq	__ZN114_$LT$core..iter..adapters..flatten..FlatMap$LT$I$C$U$C$F$GT$$u20$as$u20$core..iter..traits..iterator..Iterator$GT$9size_hint17h69cd42c6c75a1e40E
	movq	-64(%rbp), %rdi
	movq	-56(%rbp), %rax
	.loc	23 61 17 is_stmt 0
	movq	-40(%rbp), %rdx
	movq	-32(%rbp), %rcx
	movq	%rdx, -16(%rbp)
	movq	%rcx, -8(%rbp)
Ltmp394:
	.loc	23 62 9 is_stmt 1
	movq	$0, (%rdi)
	movq	%rdx, 8(%rdi)
	movq	%rcx, 16(%rdi)
Ltmp395:
	.loc	23 63 6
	addq	$64, %rsp
	popq	%rbp
	retq
Ltmp396:
Lfunc_end41:
	.cfi_endproc

	.p2align	4, 0x90
__ZN10ttf_parser3Tag10from_bytes17hf16439362c21b637E:
Lfunc_begin42:
	.file	24 "/Users/natalie/.cargo/registry/src/github.com-1ecc6299db9ec823/ttf-parser-0.17.1/src" "lib.rs"
	.loc	24 215 0
	.cfi_startproc
	pushq	%rbp
	.cfi_def_cfa_offset 16
	.cfi_offset %rbp, -16
	movq	%rsp, %rbp
	.cfi_def_cfa_register %rbp
	subq	$16, %rsp
	movq	%rdi, -8(%rbp)
Ltmp397:
	.loc	24 216 14 prologue_end
	movzbl	(%rdi), %eax
	.loc	24 216 13 is_stmt 0
	shll	$24, %eax
	.loc	24 217 16 is_stmt 1
	movzbl	1(%rdi), %ecx
	.loc	24 217 15 is_stmt 0
	shll	$16, %ecx
	.loc	24 216 13 is_stmt 1
	orl	%ecx, %eax
	.loc	24 218 16
	movzbl	2(%rdi), %ecx
	.loc	24 218 15 is_stmt 0
	shll	$8, %ecx
	.loc	24 216 13 is_stmt 1
	orl	%ecx, %eax
	.loc	24 219 15
	movzbl	3(%rdi), %ecx
	.loc	24 216 13
	orl	%ecx, %eax
	.loc	24 216 9 is_stmt 0
	movl	%eax, -12(%rbp)
	.loc	24 220 6 is_stmt 1
	movl	-12(%rbp), %eax
	addq	$16, %rsp
	popq	%rbp
	retq
Ltmp398:
Lfunc_end42:
	.cfi_endproc

	.p2align	4, 0x90
__ZN10ttf_parser3Tag8to_bytes17h9ed3005a8e4db6e6E:
Lfunc_begin43:
	.loc	24 246 0
	.cfi_startproc
	pushq	%rbp
	.cfi_def_cfa_offset 16
	.cfi_offset %rbp, -16
	movq	%rsp, %rbp
	.cfi_def_cfa_register %rbp
	pushq	%rax
	movl	%edi, %eax
	movl	%eax, -4(%rbp)
Ltmp399:
	.loc	24 248 14 prologue_end
	movl	%eax, %ecx
	shrl	$24, %ecx
	.loc	24 248 13 is_stmt 0
	andl	$255, %ecx
	movb	%cl, %sil
	.loc	24 249 14 is_stmt 1
	movl	%eax, %ecx
	shrl	$16, %ecx
	.loc	24 249 13 is_stmt 0
	andl	$255, %ecx
	movb	%cl, %dl
	.loc	24 250 14 is_stmt 1
	movl	%eax, %ecx
	shrl	$8, %ecx
	.loc	24 250 13 is_stmt 0
	andl	$255, %ecx
	.loc	24 251 14 is_stmt 1
	shrl	$0, %eax
	.loc	24 251 13 is_stmt 0
	andl	$255, %eax
	.loc	24 247 9 is_stmt 1
	movb	%sil, -8(%rbp)
	movb	%dl, -7(%rbp)
	movb	%cl, -6(%rbp)
	movb	%al, -5(%rbp)
	.loc	24 253 6
	movl	-8(%rbp), %eax
	addq	$8, %rsp
	popq	%rbp
	retq
Ltmp400:
Lfunc_end43:
	.cfi_endproc

	.section	__TEXT,__literal4,4byte_literals
	.p2align	2
LCPI44_0:
	.long	0x7f7fffff
LCPI44_1:
	.long	0xff7fffff
	.section	__TEXT,__text,regular,pure_instructions
	.p2align	4, 0x90
__ZN10ttf_parser4BBox10is_default17h5483f904fb472b2cE:
Lfunc_begin44:
	.loc	24 370 0
	.cfi_startproc
	pushq	%rbp
	.cfi_def_cfa_offset 16
	.cfi_offset %rbp, -16
	movq	%rsp, %rbp
	.cfi_def_cfa_register %rbp
	subq	$24, %rsp
	movq	%rdi, -24(%rbp)
	movq	%rdi, -8(%rbp)
Ltmp401:
	.loc	24 371 9 prologue_end
	movss	(%rdi), %xmm0
	movss	LCPI44_0(%rip), %xmm1
	ucomiss	%xmm1, %xmm0
	jne	LBB44_1
	jp	LBB44_1
	jmp	LBB44_2
LBB44_1:
	movb	$0, -9(%rbp)
	jmp	LBB44_3
LBB44_2:
	.loc	24 0 9 is_stmt 0
	movq	-24(%rbp), %rax
	.loc	24 372 16 is_stmt 1
	movss	4(%rax), %xmm0
	movss	LCPI44_0(%rip), %xmm1
	ucomiss	%xmm1, %xmm0
	sete	%al
	setnp	%cl
	andb	%cl, %al
	.loc	24 371 9
	andb	$1, %al
	movb	%al, -9(%rbp)
LBB44_3:
	testb	$1, -9(%rbp)
	jne	LBB44_5
	movb	$0, -10(%rbp)
	jmp	LBB44_6
LBB44_5:
	.loc	24 0 9 is_stmt 0
	movq	-24(%rbp), %rax
	.loc	24 373 16 is_stmt 1
	movss	8(%rax), %xmm0
	movss	LCPI44_1(%rip), %xmm1
	ucomiss	%xmm1, %xmm0
	sete	%al
	setnp	%cl
	andb	%cl, %al
	.loc	24 371 9
	andb	$1, %al
	movb	%al, -10(%rbp)
LBB44_6:
	testb	$1, -10(%rbp)
	jne	LBB44_8
	movb	$0, -11(%rbp)
	jmp	LBB44_9
LBB44_8:
	.loc	24 0 9 is_stmt 0
	movq	-24(%rbp), %rax
	.loc	24 374 16 is_stmt 1
	movss	12(%rax), %xmm0
	movss	LCPI44_1(%rip), %xmm1
	ucomiss	%xmm1, %xmm0
	sete	%al
	setnp	%cl
	andb	%cl, %al
	.loc	24 371 9
	andb	$1, %al
	movb	%al, -11(%rbp)
LBB44_9:
	.loc	24 375 6
	movb	-11(%rbp), %al
	andb	$1, %al
	movzbl	%al, %eax
	addq	$24, %rsp
	popq	%rbp
	retq
Ltmp402:
Lfunc_end44:
	.cfi_endproc

	.section	__TEXT,__literal4,4byte_literals
	.p2align	2
LCPI45_0:
	.long	0xff7fffff
LCPI45_1:
	.long	0x7f7fffff
	.section	__TEXT,__text,regular,pure_instructions
	.p2align	4, 0x90
__ZN10ttf_parser4BBox3new17h5c8aff63e7b5b87aE:
Lfunc_begin45:
	.loc	24 360 0
	.cfi_startproc
	pushq	%rbp
	.cfi_def_cfa_offset 16
	.cfi_offset %rbp, -16
	movq	%rsp, %rbp
	.cfi_def_cfa_register %rbp
	movq	%rdi, %rax
Ltmp403:
	.loc	24 361 9 prologue_end
	movss	LCPI45_1(%rip), %xmm0
	movss	%xmm0, (%rdi)
	movss	LCPI45_1(%rip), %xmm0
	movss	%xmm0, 4(%rdi)
	movss	LCPI45_0(%rip), %xmm0
	movss	%xmm0, 8(%rdi)
	movss	LCPI45_0(%rip), %xmm0
	movss	%xmm0, 12(%rdi)
	.loc	24 367 6
	popq	%rbp
	retq
Ltmp404:
Lfunc_end45:
	.cfi_endproc

	.p2align	4, 0x90
__ZN10ttf_parser4BBox7to_rect17hef4517872d28d189E:
Lfunc_begin46:
	.loc	24 386 0
	.cfi_startproc
	pushq	%rbp
	.cfi_def_cfa_offset 16
	.cfi_offset %rbp, -16
	movq	%rsp, %rbp
	.cfi_def_cfa_register %rbp
	subq	$112, %rsp
	movq	%rsi, -104(%rbp)
Ltmp405:
	movq	%rdi, -96(%rbp)
	movq	%rdi, -88(%rbp)
Ltmp406:
	.loc	24 388 38 prologue_end
	movss	(%rsi), %xmm0
	.loc	24 388 20 is_stmt 0
	callq	__ZN65_$LT$i16$u20$as$u20$ttf_parser..parser..TryNumFrom$LT$f32$GT$$GT$12try_num_from17h676b711c7d6e24d2E
Ltmp407:
	movw	%ax, %di
	movw	%dx, %si
	callq	__ZN75_$LT$core..option..Option$LT$T$GT$$u20$as$u20$core..ops..try_trait..Try$GT$6branch17h9c0821f259f51a15E
	movw	%dx, -70(%rbp)
	movw	%ax, -72(%rbp)
	movzwl	-72(%rbp), %eax
	cmpq	$0, %rax
Ltmp408:
	jne	LBB46_2
Ltmp409:
	.loc	24 0 20
	movq	-104(%rbp), %rax
	.loc	24 388 20
	movw	-70(%rbp), %cx
	movw	%cx, -106(%rbp)
	movw	%cx, -8(%rbp)
	.loc	24 389 38 is_stmt 1
	movss	4(%rax), %xmm0
	.loc	24 389 20 is_stmt 0
	callq	__ZN65_$LT$i16$u20$as$u20$ttf_parser..parser..TryNumFrom$LT$f32$GT$$GT$12try_num_from17h676b711c7d6e24d2E
	movw	%ax, %di
	movw	%dx, %si
	callq	__ZN75_$LT$core..option..Option$LT$T$GT$$u20$as$u20$core..ops..try_trait..Try$GT$6branch17h9c0821f259f51a15E
	movw	%dx, -62(%rbp)
	movw	%ax, -64(%rbp)
	movzwl	-64(%rbp), %eax
	cmpq	$0, %rax
	je	LBB46_4
	jmp	LBB46_5
Ltmp410:
LBB46_2:
	.loc	24 0 20
	movq	-96(%rbp), %rdi
Ltmp411:
	.loc	24 388 20 is_stmt 1
	callq	__ZN84_$LT$core..option..Option$LT$T$GT$$u20$as$u20$core..ops..try_trait..FromResidual$GT$13from_residual17h30ca2549f9a5fc5aE
Ltmp412:
LBB46_3:
	.loc	24 0 20 is_stmt 0
	movq	-88(%rbp), %rax
	.loc	24 393 6 is_stmt 1
	addq	$112, %rsp
	popq	%rbp
	retq
Ltmp413:
LBB46_4:
	.loc	24 0 6 is_stmt 0
	movq	-104(%rbp), %rax
	.loc	24 389 20 is_stmt 1
	movw	-62(%rbp), %cx
	movw	%cx, -108(%rbp)
	movw	%cx, -6(%rbp)
	.loc	24 390 38
	movss	8(%rax), %xmm0
	.loc	24 390 20 is_stmt 0
	callq	__ZN65_$LT$i16$u20$as$u20$ttf_parser..parser..TryNumFrom$LT$f32$GT$$GT$12try_num_from17h676b711c7d6e24d2E
	movw	%ax, %di
	movw	%dx, %si
	callq	__ZN75_$LT$core..option..Option$LT$T$GT$$u20$as$u20$core..ops..try_trait..Try$GT$6branch17h9c0821f259f51a15E
	movw	%dx, -54(%rbp)
	movw	%ax, -56(%rbp)
	movzwl	-56(%rbp), %eax
	cmpq	$0, %rax
	je	LBB46_6
	jmp	LBB46_7
Ltmp414:
LBB46_5:
	.loc	24 0 20
	movq	-96(%rbp), %rdi
Ltmp415:
	.loc	24 389 20 is_stmt 1
	callq	__ZN84_$LT$core..option..Option$LT$T$GT$$u20$as$u20$core..ops..try_trait..FromResidual$GT$13from_residual17h30ca2549f9a5fc5aE
	jmp	LBB46_3
Ltmp416:
LBB46_6:
	.loc	24 0 20 is_stmt 0
	movq	-104(%rbp), %rax
	.loc	24 390 20 is_stmt 1
	movw	-54(%rbp), %cx
	movw	%cx, -110(%rbp)
	movw	%cx, -4(%rbp)
	.loc	24 391 38
	movss	12(%rax), %xmm0
	.loc	24 391 20 is_stmt 0
	callq	__ZN65_$LT$i16$u20$as$u20$ttf_parser..parser..TryNumFrom$LT$f32$GT$$GT$12try_num_from17h676b711c7d6e24d2E
	movw	%ax, %di
	movw	%dx, %si
	callq	__ZN75_$LT$core..option..Option$LT$T$GT$$u20$as$u20$core..ops..try_trait..Try$GT$6branch17h9c0821f259f51a15E
	movw	%dx, -46(%rbp)
	movw	%ax, -48(%rbp)
	movzwl	-48(%rbp), %eax
	cmpq	$0, %rax
	je	LBB46_8
	jmp	LBB46_9
Ltmp417:
LBB46_7:
	.loc	24 0 20
	movq	-96(%rbp), %rdi
Ltmp418:
	.loc	24 390 20 is_stmt 1
	callq	__ZN84_$LT$core..option..Option$LT$T$GT$$u20$as$u20$core..ops..try_trait..FromResidual$GT$13from_residual17h30ca2549f9a5fc5aE
	jmp	LBB46_3
Ltmp419:
LBB46_8:
	.loc	24 0 20 is_stmt 0
	movq	-96(%rbp), %rax
	movw	-110(%rbp), %dx
	movw	-108(%rbp), %si
	movw	-106(%rbp), %di
	.loc	24 391 20 is_stmt 1
	movw	-46(%rbp), %cx
	movw	%cx, -2(%rbp)
	.loc	24 387 14
	movw	%di, -80(%rbp)
	movw	%si, -78(%rbp)
	movw	%dx, -76(%rbp)
	movw	%cx, -74(%rbp)
	.loc	24 387 9 is_stmt 0
	movq	-80(%rbp), %rcx
	movq	%rcx, 2(%rax)
	movw	$1, (%rax)
	.loc	24 393 6 is_stmt 1
	jmp	LBB46_3
Ltmp420:
LBB46_9:
	.loc	24 0 6 is_stmt 0
	movq	-96(%rbp), %rdi
Ltmp421:
	.loc	24 391 20 is_stmt 1
	callq	__ZN84_$LT$core..option..Option$LT$T$GT$$u20$as$u20$core..ops..try_trait..FromResidual$GT$13from_residual17h30ca2549f9a5fc5aE
	jmp	LBB46_3
Ltmp422:
Lfunc_end46:
	.cfi_endproc

	.p2align	4, 0x90
__ZN10ttf_parser4BBox9extend_by17h57ad1fd8e7908addE:
Lfunc_begin47:
	.loc	24 378 0
	.cfi_startproc
	pushq	%rbp
	.cfi_def_cfa_offset 16
	.cfi_offset %rbp, -16
	movq	%rsp, %rbp
	.cfi_def_cfa_register %rbp
	subq	$48, %rsp
	movss	%xmm1, -36(%rbp)
	movaps	%xmm0, %xmm1
	movss	-36(%rbp), %xmm0
	movq	%rdi, -24(%rbp)
	movss	%xmm1, -32(%rbp)
	movss	%xmm0, -28(%rbp)
	movq	%rdi, -16(%rbp)
	movss	%xmm1, -8(%rbp)
	movss	%xmm0, -4(%rbp)
Ltmp423:
	.loc	24 379 22 prologue_end
	movss	(%rdi), %xmm0
	callq	__ZN4core3f3221_$LT$impl$u20$f32$GT$3min17h20afd13cdfc65326E
	movss	-28(%rbp), %xmm1
	movq	-24(%rbp), %rdi
	.loc	24 379 9 is_stmt 0
	movss	%xmm0, (%rdi)
	.loc	24 380 22 is_stmt 1
	movss	4(%rdi), %xmm0
	callq	__ZN4core3f3221_$LT$impl$u20$f32$GT$3min17h20afd13cdfc65326E
	movss	-32(%rbp), %xmm1
	movq	-24(%rbp), %rdi
	.loc	24 380 9 is_stmt 0
	movss	%xmm0, 4(%rdi)
	.loc	24 381 22 is_stmt 1
	movss	8(%rdi), %xmm0
	callq	__ZN4core3f3221_$LT$impl$u20$f32$GT$3max17he4ab85b6413d20d9E
	movss	-28(%rbp), %xmm1
	movq	-24(%rbp), %rdi
	.loc	24 381 9 is_stmt 0
	movss	%xmm0, 8(%rdi)
	.loc	24 382 22 is_stmt 1
	movss	12(%rdi), %xmm0
	callq	__ZN4core3f3221_$LT$impl$u20$f32$GT$3max17he4ab85b6413d20d9E
	movq	-24(%rbp), %rdi
	.loc	24 382 9 is_stmt 0
	movss	%xmm0, 12(%rdi)
	.loc	24 383 6 is_stmt 1
	addq	$48, %rsp
	popq	%rbp
	retq
Ltmp424:
Lfunc_end47:
	.cfi_endproc

	.p2align	4, 0x90
__ZN10ttf_parser4Face13outline_glyph17h42ef6168516b0222E:
Lfunc_begin48:
	.loc	24 1804 0
	.cfi_startproc
	pushq	%rbp
	.cfi_def_cfa_offset 16
	.cfi_offset %rbp, -16
	movq	%rsp, %rbp
	.cfi_def_cfa_register %rbp
	subq	$384, %rsp
	movq	%r8, -344(%rbp)
	movq	%rcx, -336(%rbp)
	movq	%rsi, -328(%rbp)
	movq	%rdi, -320(%rbp)
	movw	%dx, %ax
	movw	%ax, -306(%rbp)
	movq	%rdi, -304(%rbp)
	movq	%rsi, -64(%rbp)
	movw	%ax, -50(%rbp)
	movq	%rcx, -48(%rbp)
	movq	%r8, -40(%rbp)
Ltmp425:
	.loc	24 1811 20 prologue_end
	movl	$1, %eax
	xorl	%ecx, %ecx
	cmpq	$2, 384(%rsi)
	cmoveq	%rcx, %rax
	cmpq	$1, %rax
	jne	LBB48_2
	.loc	24 0 20 is_stmt 0
	movq	-328(%rbp), %rsi
	.loc	24 1811 25
	movq	%rsi, %rax
	addq	$32, %rax
	addq	$320, %rax
	movq	%rax, -352(%rbp)
	movq	%rax, -8(%rbp)
	.loc	24 1812 37 is_stmt 1
	addq	$32, %rsi
	addq	$2168, %rsi
	leaq	-216(%rbp), %rdi
	movl	$40, %edx
	callq	_memcpy
	leaq	-256(%rbp), %rdi
	leaq	-216(%rbp), %rsi
	callq	__ZN75_$LT$core..option..Option$LT$T$GT$$u20$as$u20$core..ops..try_trait..Try$GT$6branch17hf3416267181533e9E
	xorl	%eax, %eax
	movl	$1, %ecx
	cmpq	$2, -240(%rbp)
	cmoveq	%rcx, %rax
	cmpq	$0, %rax
	je	LBB48_10
	jmp	LBB48_11
Ltmp426:
LBB48_2:
	.loc	24 0 37 is_stmt 0
	movq	-328(%rbp), %rdx
Ltmp427:
	.loc	24 1816 16 is_stmt 1
	movl	$1, %eax
	xorl	%ecx, %ecx
	cmpq	$2, 2216(%rdx)
	cmoveq	%rcx, %rax
	cmpq	$1, %rax
	jne	LBB48_4
	.loc	24 0 16 is_stmt 0
	movq	-328(%rbp), %rsi
	.loc	24 1816 21
	addq	$32, %rsi
	addq	$2168, %rsi
	leaq	-136(%rbp), %rdi
	movl	$40, %edx
	callq	_memcpy
	movq	-320(%rbp), %rdi
	movw	-306(%rbp), %ax
	movq	-336(%rbp), %rcx
	movq	-344(%rbp), %r8
	.loc	24 1817 20 is_stmt 1
	leaq	-136(%rbp), %rsi
	movzwl	%ax, %edx
	callq	__ZN10ttf_parser6tables4glyf5Table7outline17h75e625e4b5231f3bE
	jmp	LBB48_9
Ltmp428:
LBB48_4:
	.loc	24 0 20 is_stmt 0
	movq	-328(%rbp), %rdx
Ltmp429:
	.loc	24 1820 16 is_stmt 1
	movl	$1, %eax
	xorl	%ecx, %ecx
	cmpq	$2, 576(%rdx)
	cmoveq	%rcx, %rax
	cmpq	$1, %rax
	jne	LBB48_6
	.loc	24 0 16 is_stmt 0
	movq	-344(%rbp), %r8
	movq	-336(%rbp), %rcx
	movw	-306(%rbp), %ax
	movq	-328(%rbp), %rsi
	.loc	24 1820 21
	addq	$32, %rsi
	addq	$544, %rsi
	movq	%rsi, -16(%rbp)
	.loc	24 1821 20 is_stmt 1
	leaq	-96(%rbp), %rdi
	movzwl	%ax, %edx
	callq	__ZN10ttf_parser6tables3cff4cff15Table7outline17hde44f6defc41ca6fE
	movq	-320(%rbp), %rdi
	leaq	-96(%rbp), %rsi
	callq	__ZN4core6result19Result$LT$T$C$E$GT$2ok17h75893d0f0a9b2a6cE
	jmp	LBB48_9
Ltmp430:
LBB48_6:
	.loc	24 0 20 is_stmt 0
	movq	-328(%rbp), %rdx
Ltmp431:
	.loc	24 1826 20 is_stmt 1
	movl	$1, %eax
	xorl	%ecx, %ecx
	cmpb	$0, 1080(%rdx)
	cmoveq	%rcx, %rax
	cmpq	$1, %rax
	jne	LBB48_8
	.loc	24 0 20 is_stmt 0
	movq	-328(%rbp), %rdi
	.loc	24 1826 25
	movq	%rdi, %rax
	addq	$32, %rax
	addq	$960, %rax
	movq	%rax, -368(%rbp)
	movq	%rax, -24(%rbp)
	.loc	24 1827 37 is_stmt 1
	callq	__ZN10ttf_parser4Face6coords17hbf818057f71c0917E
	movq	-368(%rbp), %rsi
	movw	-306(%rbp), %r8w
	movq	-336(%rbp), %r9
	movq	%rax, %rcx
	movq	-344(%rbp), %rax
	movq	%rcx, -360(%rbp)
	movq	%rdx, %rcx
	movq	-360(%rbp), %rdx
	.loc	24 1827 24 is_stmt 0
	leaq	-80(%rbp), %rdi
	movzwl	%r8w, %r8d
	movq	%rax, (%rsp)
	callq	__ZN10ttf_parser6tables3cff4cff25Table7outline17h8395456a448589bcE
	movq	-320(%rbp), %rdi
	leaq	-80(%rbp), %rsi
	callq	__ZN4core6result19Result$LT$T$C$E$GT$2ok17h75893d0f0a9b2a6cE
	jmp	LBB48_9
Ltmp432:
LBB48_8:
	.loc	24 0 24
	movq	-320(%rbp), %rax
	.loc	24 1831 9 is_stmt 1
	movw	$0, (%rax)
LBB48_9:
	.loc	24 0 9 is_stmt 0
	movq	-304(%rbp), %rax
	.loc	24 1832 6 is_stmt 1
	addq	$384, %rsp
	popq	%rbp
	retq
LBB48_10:
Ltmp433:
	.loc	24 1812 37
	leaq	-176(%rbp), %rdi
	leaq	-256(%rbp), %rsi
	movl	$40, %edx
	callq	_memcpy
Ltmp434:
	.loc	24 1812 37 is_stmt 0
	leaq	-296(%rbp), %rdi
	leaq	-176(%rbp), %rsi
	movl	$40, %edx
	callq	_memcpy
	movq	-328(%rbp), %rdi
Ltmp435:
	.loc	24 1812 56
	callq	__ZN10ttf_parser4Face6coords17hbf818057f71c0917E
	movq	-320(%rbp), %rdi
	movq	-352(%rbp), %rsi
	movw	-306(%rbp), %r9w
	movq	-336(%rbp), %r10
	movq	%rax, %rcx
	movq	-344(%rbp), %rax
	movq	%rdx, %r8
	.loc	24 1812 24
	leaq	-296(%rbp), %rdx
	movzwl	%r9w, %r9d
	movq	%r10, (%rsp)
	movq	%rax, 8(%rsp)
	callq	__ZN10ttf_parser6tables4gvar5Table7outline17hc575ba0364115213E
	jmp	LBB48_9
LBB48_11:
	.loc	24 0 24
	movq	-320(%rbp), %rdi
Ltmp436:
	.loc	24 1812 37
	callq	__ZN84_$LT$core..option..Option$LT$T$GT$$u20$as$u20$core..ops..try_trait..FromResidual$GT$13from_residual17h30ca2549f9a5fc5aE
	jmp	LBB48_9
Ltmp437:
Lfunc_end48:
	.cfi_endproc

	.p2align	4, 0x90
__ZN10ttf_parser4Face14variation_axes17h56eacc2954ad3fa8E:
Lfunc_begin49:
	.loc	24 1920 0 is_stmt 1
	.cfi_startproc
	pushq	%rbp
	.cfi_def_cfa_offset 16
	.cfi_offset %rbp, -16
	movq	%rsp, %rbp
	.cfi_def_cfa_register %rbp
	subq	$16, %rsp
	movq	%rdi, %rax
	movq	%rax, -8(%rbp)
Ltmp438:
	.loc	24 1921 9 prologue_end
	movq	976(%rax), %rdi
	movq	984(%rax), %rsi
	callq	__ZN4core6option15Option$LT$T$GT$3map17h93ff06c35fee36c0E
	movq	%rax, %rdi
	movq	%rdx, %rsi
	callq	__ZN4core6option15Option$LT$T$GT$17unwrap_or_default17h7ed005e1edaf4ebeE
	.loc	24 1922 6
	addq	$16, %rsp
	popq	%rbp
	retq
Ltmp439:
Lfunc_end49:
	.cfi_endproc

	.p2align	4, 0x90
__ZN10ttf_parser4Face16number_of_glyphs17haa2e36a50f384ff4E:
Lfunc_begin50:
	.loc	24 1534 0
	.cfi_startproc
	pushq	%rbp
	.cfi_def_cfa_offset 16
	.cfi_offset %rbp, -16
	movq	%rsp, %rbp
	.cfi_def_cfa_register %rbp
	subq	$16, %rsp
	movq	%rdi, -8(%rbp)
Ltmp440:
	.loc	24 1535 9 prologue_end
	movzwl	2252(%rdi), %edi
	callq	__ZN4core3num7nonzero10NonZeroU163get17hafc94e0a03dfa39aE
	.loc	24 1536 6
	addq	$16, %rsp
	popq	%rbp
	retq
Ltmp441:
Lfunc_end50:
	.cfi_endproc

	.p2align	4, 0x90
__ZN10ttf_parser4Face18glyph_raster_image17h3568b61c9e1973c1E:
Lfunc_begin51:
	.loc	24 1883 0
	.cfi_startproc
	pushq	%rbp
	.cfi_def_cfa_offset 16
	.cfi_offset %rbp, -16
	movq	%rsp, %rbp
	.cfi_def_cfa_register %rbp
	subq	$208, %rsp
	movq	%rsi, -200(%rbp)
	movq	%rdi, -192(%rbp)
	movw	%cx, %ax
	movw	%ax, -180(%rbp)
	movw	%dx, %cx
	movw	%cx, -178(%rbp)
	movq	%rdi, -176(%rbp)
	movq	%rsi, -16(%rbp)
	movw	%cx, -4(%rbp)
	movw	%ax, -2(%rbp)
Ltmp442:
	.loc	24 1888 16 prologue_end
	movq	1288(%rsi), %rdx
	movl	$1, %eax
	xorl	%ecx, %ecx
	cmpq	$0, %rdx
	cmoveq	%rcx, %rax
	cmpq	$1, %rax
	jne	LBB51_2
	.loc	24 0 16 is_stmt 0
	movq	-200(%rbp), %rsi
	.loc	24 1888 21
	addq	$32, %rsi
	addq	$1256, %rsi
	leaq	-168(%rbp), %rdi
	movl	$40, %edx
	callq	_memcpy
	movw	-180(%rbp), %ax
Ltmp443:
	.loc	24 1889 35 is_stmt 1
	leaq	-128(%rbp), %rdi
	leaq	-168(%rbp), %rsi
	movzwl	%ax, %edx
	callq	__ZN10ttf_parser6tables4sbix5Table11best_strike17h6a20cc3dd964c269E
	.loc	24 1889 20 is_stmt 0
	movq	-128(%rbp), %rdx
	movl	$1, %eax
	xorl	%ecx, %ecx
	cmpq	$0, %rdx
	cmoveq	%rcx, %rax
	cmpq	$1, %rax
	je	LBB51_3
Ltmp444:
LBB51_2:
	.loc	24 0 20
	movq	-200(%rbp), %rax
Ltmp445:
	.loc	24 1894 16 is_stmt 1
	movq	416(%rax), %rdx
	movl	$1, %eax
	xorl	%ecx, %ecx
	cmpq	$0, %rdx
	cmoveq	%rcx, %rax
	cmpq	$1, %rax
	je	LBB51_4
	jmp	LBB51_5
Ltmp446:
LBB51_3:
	.loc	24 1889 25
	leaq	-88(%rbp), %rdi
	leaq	-128(%rbp), %rsi
	movl	$40, %edx
	callq	_memcpy
	movq	-192(%rbp), %rdi
	movw	-178(%rbp), %ax
	.loc	24 1890 24
	leaq	-88(%rbp), %rsi
	movzwl	%ax, %edx
	callq	__ZN10ttf_parser6tables4sbix6Strike3get17h5c8ff38dde81d0c9E
	jmp	LBB51_6
Ltmp447:
LBB51_4:
	.loc	24 0 24 is_stmt 0
	movw	-180(%rbp), %ax
	movw	-178(%rbp), %cx
	movq	-192(%rbp), %rdi
	movq	-200(%rbp), %rdx
Ltmp448:
	.loc	24 1894 21 is_stmt 1
	movq	416(%rdx), %rsi
	movq	%rsi, -48(%rbp)
	movq	424(%rdx), %rsi
	movq	%rsi, -40(%rbp)
	movq	432(%rdx), %rsi
	movq	%rsi, -32(%rbp)
	movq	440(%rdx), %rdx
	movq	%rdx, -24(%rbp)
	.loc	24 1895 20
	leaq	-48(%rbp), %rsi
	movzwl	%cx, %edx
	movzwl	%ax, %ecx
	callq	__ZN10ttf_parser6tables4cbdt5Table3get17h8a14cf7f51316409E
	jmp	LBB51_6
Ltmp449:
LBB51_5:
	.loc	24 0 20 is_stmt 0
	movq	-192(%rbp), %rax
	.loc	24 1898 9 is_stmt 1
	movq	$0, (%rax)
LBB51_6:
	.loc	24 0 9 is_stmt 0
	movq	-176(%rbp), %rax
	.loc	24 1899 6 is_stmt 1
	addq	$208, %rsp
	popq	%rbp
	retq
Ltmp450:
Lfunc_end51:
	.cfi_endproc

	.p2align	4, 0x90
__ZN10ttf_parser4Face5names17h4f4e51a7cc27ab48E:
Lfunc_begin52:
	.loc	24 1103 0
	.cfi_startproc
	pushq	%rbp
	.cfi_def_cfa_offset 16
	.cfi_offset %rbp, -16
	movq	%rsp, %rbp
	.cfi_def_cfa_register %rbp
	subq	$96, %rsp
	movq	%rdi, -88(%rbp)
	movq	%rdi, -80(%rbp)
	movq	%rsi, -8(%rbp)
Ltmp451:
	.loc	24 1104 9 prologue_end
	movq	480(%rsi), %rax
	movq	%rax, -40(%rbp)
	movq	488(%rsi), %rax
	movq	%rax, -32(%rbp)
	movq	496(%rsi), %rax
	movq	%rax, -24(%rbp)
	movq	504(%rsi), %rax
	movq	%rax, -16(%rbp)
	leaq	-72(%rbp), %rdi
	leaq	-40(%rbp), %rsi
	callq	__ZN4core6option15Option$LT$T$GT$17unwrap_or_default17ha9e903e74fc62f17E
	movq	-88(%rbp), %rdi
	movq	-80(%rbp), %rax
	movq	-72(%rbp), %rcx
	movq	%rcx, (%rdi)
	movq	-64(%rbp), %rcx
	movq	%rcx, 8(%rdi)
	movq	-56(%rbp), %rcx
	movq	%rcx, 16(%rdi)
	movq	-48(%rbp), %rcx
	movq	%rcx, 24(%rdi)
	.loc	24 1105 6
	addq	$96, %rsp
	popq	%rbp
	retq
Ltmp452:
Lfunc_end52:
	.cfi_endproc

	.p2align	4, 0x90
__ZN10ttf_parser4Face6coords17hbf818057f71c0917E:
Lfunc_begin53:
	.loc	24 2010 0
	.cfi_startproc
	pushq	%rbp
	.cfi_def_cfa_offset 16
	.cfi_offset %rbp, -16
	movq	%rsp, %rbp
	.cfi_def_cfa_register %rbp
	subq	$16, %rsp
	movq	%rdi, -8(%rbp)
Ltmp453:
	.loc	24 2011 9 prologue_end
	addq	$2264, %rdi
	callq	__ZN10ttf_parser9VarCoords8as_slice17he40a2d6951e4ce69E
	.loc	24 2012 6
	addq	$16, %rsp
	popq	%rbp
	retq
Ltmp454:
Lfunc_end53:
	.cfi_endproc

	.p2align	4, 0x90
__ZN10ttf_parser4Face6tables17hebb0ea785a249b5dE:
Lfunc_begin54:
	.loc	24 1074 0
	.cfi_startproc
	pushq	%rbp
	.cfi_def_cfa_offset 16
	.cfi_offset %rbp, -16
	movq	%rsp, %rbp
	.cfi_def_cfa_register %rbp
	pushq	%rax
	movq	%rdi, %rax
	movq	%rax, -8(%rbp)
Ltmp455:
	.loc	24 1075 9 prologue_end
	addq	$32, %rax
	.loc	24 1076 6
	addq	$8, %rsp
	popq	%rbp
	retq
Ltmp456:
Lfunc_end54:
	.cfi_endproc

	.p2align	4, 0x90
__ZN10ttf_parser6parser6Stream11jump_to_end17hae5144e3aece9fbaE:
Lfunc_begin55:
	.file	25 "/Users/natalie/.cargo/registry/src/github.com-1ecc6299db9ec823/ttf-parser-0.17.1/src" "parser.rs"
	.loc	25 690 0
	.cfi_startproc
	pushq	%rbp
	.cfi_def_cfa_offset 16
	.cfi_offset %rbp, -16
	movq	%rsp, %rbp
	.cfi_def_cfa_register %rbp
	pushq	%rax
	movq	%rdi, -8(%rbp)
Ltmp457:
	.loc	25 691 23 prologue_end
	movq	8(%rdi), %rax
	.loc	25 691 9 is_stmt 0
	movq	%rax, 16(%rdi)
	.loc	25 692 6 is_stmt 1
	addq	$8, %rsp
	popq	%rbp
	retq
Ltmp458:
Lfunc_end55:
	.cfi_endproc

	.p2align	4, 0x90
__ZN10ttf_parser6parser6Stream3new17h61a7a24756ab0f82E:
Lfunc_begin56:
	.loc	25 664 0
	.cfi_startproc
	pushq	%rbp
	.cfi_def_cfa_offset 16
	.cfi_offset %rbp, -16
	movq	%rsp, %rbp
	.cfi_def_cfa_register %rbp
	subq	$16, %rsp
	movq	%rdi, %rax
	movq	%rsi, -16(%rbp)
	movq	%rdx, -8(%rbp)
Ltmp459:
	.loc	25 665 9 prologue_end
	movq	%rsi, (%rdi)
	movq	%rdx, 8(%rdi)
	movq	$0, 16(%rdi)
	.loc	25 666 6
	addq	$16, %rsp
	popq	%rbp
	retq
Ltmp460:
Lfunc_end56:
	.cfi_endproc

	.p2align	4, 0x90
__ZN10ttf_parser6parser6Stream4tail17h9f186e7a15c765e2E:
Lfunc_begin57:
	.loc	25 704 0
	.cfi_startproc
	pushq	%rbp
	.cfi_def_cfa_offset 16
	.cfi_offset %rbp, -16
	movq	%rsp, %rbp
	.cfi_def_cfa_register %rbp
	subq	$16, %rsp
	movq	%rdi, %rax
	movq	%rax, -8(%rbp)
Ltmp461:
	.loc	25 705 9 prologue_end
	movq	(%rax), %rdi
	movq	8(%rax), %rsi
	.loc	25 705 23 is_stmt 0
	movq	16(%rax), %rax
	movq	%rax, -16(%rbp)
	.loc	25 705 9
	movq	-16(%rbp), %rdx
	callq	__ZN4core5slice29_$LT$impl$u20$$u5b$T$u5d$$GT$3get17ha2291e1d5c6b37beE
	.loc	25 706 6 is_stmt 1
	addq	$16, %rsp
	popq	%rbp
	retq
Ltmp462:
Lfunc_end57:
	.cfi_endproc

	.p2align	4, 0x90
__ZN10ttf_parser6parser6Stream6offset17h8b637208ce4b2299E:
Lfunc_begin58:
	.loc	25 696 0
	.cfi_startproc
	pushq	%rbp
	.cfi_def_cfa_offset 16
	.cfi_offset %rbp, -16
	movq	%rsp, %rbp
	.cfi_def_cfa_register %rbp
	pushq	%rax
	movq	%rdi, -8(%rbp)
Ltmp463:
	.loc	25 697 9 prologue_end
	movq	16(%rdi), %rax
	.loc	25 698 6
	addq	$8, %rsp
	popq	%rbp
	retq
Ltmp464:
Lfunc_end58:
	.cfi_endproc

	.p2align	4, 0x90
__ZN10ttf_parser6parser6Stream7advance17h9342a9b7f326f321E:
Lfunc_begin59:
	.loc	25 720 0
	.cfi_startproc
	pushq	%rbp
	.cfi_def_cfa_offset 16
	.cfi_offset %rbp, -16
	movq	%rsp, %rbp
	.cfi_def_cfa_register %rbp
	subq	$32, %rsp
	movq	%rdi, -32(%rbp)
	movq	%rdi, -16(%rbp)
	movq	%rsi, -8(%rbp)
Ltmp465:
	.loc	25 721 9 prologue_end
	addq	16(%rdi), %rsi
	movq	%rsi, -24(%rbp)
	setb	%al
	testb	$1, %al
	jne	LBB59_2
	.loc	25 0 9 is_stmt 0
	movq	-32(%rbp), %rax
	movq	-24(%rbp), %rcx
	.loc	25 721 9
	movq	%rcx, 16(%rax)
	.loc	25 722 6 is_stmt 1
	addq	$32, %rsp
	popq	%rbp
	retq
LBB59_2:
	.loc	25 721 9
	leaq	_str.0(%rip), %rdi
	leaq	l___unnamed_28(%rip), %rdx
	movl	$28, %esi
	callq	__ZN4core9panicking5panic17hc1bc45270cf64b03E
Ltmp466:
Lfunc_end59:
	.cfi_endproc

	.section	__TEXT,__literal4,4byte_literals
	.p2align	2
LCPI60_0:
	.long	0x46800000
	.section	__TEXT,__text,regular,pure_instructions
	.p2align	4, 0x90
__ZN10ttf_parser6parser7F2DOT146to_f3217h5eb9b53eb2da5c2aE:
Lfunc_begin60:
	.loc	25 127 0
	.cfi_startproc
	pushq	%rbp
	.cfi_def_cfa_offset 16
	.cfi_offset %rbp, -16
	movq	%rsp, %rbp
	.cfi_def_cfa_register %rbp
	subq	$4, %rsp
	movw	%di, %ax
	movw	%ax, -4(%rbp)
	movw	%ax, -2(%rbp)
Ltmp467:
	.loc	15 54 17 prologue_end
	cwtl
	cvtsi2ss	%eax, %xmm0
Ltmp468:
	.loc	25 128 9
	movss	LCPI60_0(%rip), %xmm1
	divss	%xmm1, %xmm0
	.loc	25 129 6
	addq	$4, %rsp
	popq	%rbp
	retq
Ltmp469:
Lfunc_end60:
	.cfi_endproc

	.globl	__ZN10ttf_parser6tables4cmap7format09Subtable010codepoints17h6a8a6f9a00bca312E
	.p2align	4, 0x90
__ZN10ttf_parser6tables4cmap7format09Subtable010codepoints17h6a8a6f9a00bca312E:
Lfunc_begin61:
	.file	26 "/Users/natalie/.cargo/registry/src/github.com-1ecc6299db9ec823/ttf-parser-0.17.1/src/tables/cmap" "format0.rs"
	.loc	26 36 0
	.cfi_startproc
	.cfi_personality 155, _rust_eh_personality
	.cfi_lsda 16, Lexception14
	pushq	%rbp
	.cfi_def_cfa_offset 16
	.cfi_offset %rbp, -16
	movq	%rsp, %rbp
	.cfi_def_cfa_register %rbp
	subq	$192, %rsp
	movq	%rdi, %rax
	movq	%rsi, -160(%rbp)
Ltmp481:
	movq	%rax, -40(%rbp)
Ltmp482:
	.loc	26 37 30 prologue_end
	movq	(%rax), %rdi
	movq	8(%rax), %rsi
Ltmp483:
Ltmp470:
	callq	__ZN4core5slice29_$LT$impl$u20$$u5b$T$u5d$$GT$4iter17hd82b0f43cb687e89E
Ltmp471:
	movq	%rdx, -152(%rbp)
	movq	%rax, -144(%rbp)
Ltmp484:
	jmp	LBB61_3
Ltmp485:
LBB61_1:
	.loc	26 36 5
	movq	-32(%rbp), %rdi
	callq	__Unwind_Resume
Ltmp486:
LBB61_2:
Ltmp480:
	.loc	26 0 5 is_stmt 0
	movq	%rax, %rcx
	movl	%edx, %eax
	movq	%rcx, -32(%rbp)
	movl	%eax, -24(%rbp)
	jmp	LBB61_1
Ltmp487:
LBB61_3:
Ltmp472:
	movq	-152(%rbp), %rdx
	movq	-144(%rbp), %rsi
	leaq	-112(%rbp), %rdi
	.loc	26 37 30 is_stmt 1
	callq	__ZN4core4iter6traits8iterator8Iterator9enumerate17h6fb9e12f4a3fa233E
Ltmp473:
	jmp	LBB61_4
Ltmp488:
LBB61_4:
Ltmp474:
	.loc	26 0 30 is_stmt 0
	leaq	-136(%rbp), %rdi
	leaq	-112(%rbp), %rsi
	.loc	26 37 30
	callq	__ZN63_$LT$I$u20$as$u20$core..iter..traits..collect..IntoIterator$GT$9into_iter17hdef1823204623a24E
Ltmp475:
	jmp	LBB61_5
Ltmp489:
LBB61_5:
	movq	-136(%rbp), %rax
	movq	%rax, -88(%rbp)
	movq	-128(%rbp), %rax
	movq	%rax, -80(%rbp)
	movq	-120(%rbp), %rax
	movq	%rax, -72(%rbp)
Ltmp490:
LBB61_6:
Ltmp476:
	.loc	26 0 30
	leaq	-88(%rbp), %rdi
Ltmp491:
	.loc	26 37 30
	callq	__ZN110_$LT$core..iter..adapters..enumerate..Enumerate$LT$I$GT$$u20$as$u20$core..iter..traits..iterator..Iterator$GT$4next17hee52f2c4dc8dbca1E
Ltmp477:
	movq	%rdx, -176(%rbp)
	movq	%rax, -168(%rbp)
	jmp	LBB61_7
Ltmp492:
LBB61_7:
	.loc	26 0 30
	movq	-176(%rbp), %rax
	movq	-168(%rbp), %rcx
	.loc	26 37 30
	movq	%rcx, -64(%rbp)
	movq	%rax, -56(%rbp)
	movq	-56(%rbp), %rdx
	movl	$1, %eax
	xorl	%ecx, %ecx
	cmpq	$0, %rdx
	cmoveq	%rcx, %rax
	cmpq	$0, %rax
	jne	LBB61_9
Ltmp493:
	.loc	26 46 6 is_stmt 1
	addq	$192, %rsp
	popq	%rbp
	retq
Ltmp494:
LBB61_9:
	.loc	26 37 14
	movq	-64(%rbp), %rax
	movq	%rax, -184(%rbp)
	movq	%rax, -16(%rbp)
	.loc	26 37 17 is_stmt 0
	movq	-56(%rbp), %rax
	movq	%rax, -8(%rbp)
Ltmp495:
	.loc	26 42 16 is_stmt 1
	cmpb	$0, (%rax)
	je	LBB61_6
Ltmp496:
	.loc	26 0 16 is_stmt 0
	movq	-160(%rbp), %rdi
	movq	-184(%rbp), %rax
	.loc	26 43 17 is_stmt 1
	movl	%eax, -44(%rbp)
	movl	-44(%rbp), %esi
Ltmp478:
	callq	__ZN64_$LT$ab_glyph..ttfp..FontVec$u20$as$u20$ab_glyph..font..Font$GT$13codepoint_ids28_$u7b$$u7b$closure$u7d$$u7d$28_$u7b$$u7b$closure$u7d$$u7d$17he50d69d0dc60a6ebE
Ltmp479:
	jmp	LBB61_11
Ltmp497:
LBB61_11:
	jmp	LBB61_6
Ltmp498:
Lfunc_end61:
	.cfi_endproc
	.section	__TEXT,__gcc_except_tab
	.p2align	2
GCC_except_table61:
Lexception14:
	.byte	255
	.byte	255
	.byte	1
	.uleb128 Lcst_end14-Lcst_begin14
Lcst_begin14:
	.uleb128 Ltmp470-Lfunc_begin61
	.uleb128 Ltmp471-Ltmp470
	.uleb128 Ltmp480-Lfunc_begin61
	.byte	0
	.uleb128 Ltmp471-Lfunc_begin61
	.uleb128 Ltmp472-Ltmp471
	.byte	0
	.byte	0
	.uleb128 Ltmp472-Lfunc_begin61
	.uleb128 Ltmp479-Ltmp472
	.uleb128 Ltmp480-Lfunc_begin61
	.byte	0
Lcst_end14:
	.p2align	2

	.section	__TEXT,__text,regular,pure_instructions
	.globl	__ZN10ttf_parser6tables4cmap7format09Subtable010codepoints17h8585580fee084122E
	.p2align	4, 0x90
__ZN10ttf_parser6tables4cmap7format09Subtable010codepoints17h8585580fee084122E:
Lfunc_begin62:
	.loc	26 36 0
	.cfi_startproc
	.cfi_personality 155, _rust_eh_personality
	.cfi_lsda 16, Lexception15
	pushq	%rbp
	.cfi_def_cfa_offset 16
	.cfi_offset %rbp, -16
	movq	%rsp, %rbp
	.cfi_def_cfa_register %rbp
	subq	$192, %rsp
	movq	%rdi, %rax
	movq	%rsi, -160(%rbp)
Ltmp510:
	movq	%rax, -40(%rbp)
Ltmp511:
	.loc	26 37 30 prologue_end
	movq	(%rax), %rdi
	movq	8(%rax), %rsi
Ltmp512:
Ltmp499:
	callq	__ZN4core5slice29_$LT$impl$u20$$u5b$T$u5d$$GT$4iter17hd82b0f43cb687e89E
Ltmp500:
	movq	%rdx, -152(%rbp)
	movq	%rax, -144(%rbp)
Ltmp513:
	jmp	LBB62_3
Ltmp514:
LBB62_1:
	.loc	26 36 5
	movq	-32(%rbp), %rdi
	callq	__Unwind_Resume
Ltmp515:
LBB62_2:
Ltmp509:
	.loc	26 0 5 is_stmt 0
	movq	%rax, %rcx
	movl	%edx, %eax
	movq	%rcx, -32(%rbp)
	movl	%eax, -24(%rbp)
	jmp	LBB62_1
Ltmp516:
LBB62_3:
Ltmp501:
	movq	-152(%rbp), %rdx
	movq	-144(%rbp), %rsi
	leaq	-112(%rbp), %rdi
	.loc	26 37 30 is_stmt 1
	callq	__ZN4core4iter6traits8iterator8Iterator9enumerate17h6fb9e12f4a3fa233E
Ltmp502:
	jmp	LBB62_4
Ltmp517:
LBB62_4:
Ltmp503:
	.loc	26 0 30 is_stmt 0
	leaq	-136(%rbp), %rdi
	leaq	-112(%rbp), %rsi
	.loc	26 37 30
	callq	__ZN63_$LT$I$u20$as$u20$core..iter..traits..collect..IntoIterator$GT$9into_iter17hdef1823204623a24E
Ltmp504:
	jmp	LBB62_5
Ltmp518:
LBB62_5:
	movq	-136(%rbp), %rax
	movq	%rax, -88(%rbp)
	movq	-128(%rbp), %rax
	movq	%rax, -80(%rbp)
	movq	-120(%rbp), %rax
	movq	%rax, -72(%rbp)
Ltmp519:
LBB62_6:
Ltmp505:
	.loc	26 0 30
	leaq	-88(%rbp), %rdi
Ltmp520:
	.loc	26 37 30
	callq	__ZN110_$LT$core..iter..adapters..enumerate..Enumerate$LT$I$GT$$u20$as$u20$core..iter..traits..iterator..Iterator$GT$4next17hee52f2c4dc8dbca1E
Ltmp506:
	movq	%rdx, -176(%rbp)
	movq	%rax, -168(%rbp)
	jmp	LBB62_7
Ltmp521:
LBB62_7:
	.loc	26 0 30
	movq	-176(%rbp), %rax
	movq	-168(%rbp), %rcx
	.loc	26 37 30
	movq	%rcx, -64(%rbp)
	movq	%rax, -56(%rbp)
	movq	-56(%rbp), %rdx
	movl	$1, %eax
	xorl	%ecx, %ecx
	cmpq	$0, %rdx
	cmoveq	%rcx, %rax
	cmpq	$0, %rax
	jne	LBB62_9
Ltmp522:
	.loc	26 46 6 is_stmt 1
	addq	$192, %rsp
	popq	%rbp
	retq
Ltmp523:
LBB62_9:
	.loc	26 37 14
	movq	-64(%rbp), %rax
	movq	%rax, -184(%rbp)
	movq	%rax, -16(%rbp)
	.loc	26 37 17 is_stmt 0
	movq	-56(%rbp), %rax
	movq	%rax, -8(%rbp)
Ltmp524:
	.loc	26 42 16 is_stmt 1
	cmpb	$0, (%rax)
	je	LBB62_6
Ltmp525:
	.loc	26 0 16 is_stmt 0
	movq	-160(%rbp), %rdi
	movq	-184(%rbp), %rax
	.loc	26 43 17 is_stmt 1
	movl	%eax, -44(%rbp)
	movl	-44(%rbp), %esi
Ltmp507:
	callq	__ZN64_$LT$ab_glyph..ttfp..FontRef$u20$as$u20$ab_glyph..font..Font$GT$13codepoint_ids28_$u7b$$u7b$closure$u7d$$u7d$28_$u7b$$u7b$closure$u7d$$u7d$17h86c4e7df4d016022E
Ltmp508:
	jmp	LBB62_11
Ltmp526:
LBB62_11:
	jmp	LBB62_6
Ltmp527:
Lfunc_end62:
	.cfi_endproc
	.section	__TEXT,__gcc_except_tab
	.p2align	2
GCC_except_table62:
Lexception15:
	.byte	255
	.byte	255
	.byte	1
	.uleb128 Lcst_end15-Lcst_begin15
Lcst_begin15:
	.uleb128 Ltmp499-Lfunc_begin62
	.uleb128 Ltmp500-Ltmp499
	.uleb128 Ltmp509-Lfunc_begin62
	.byte	0
	.uleb128 Ltmp500-Lfunc_begin62
	.uleb128 Ltmp501-Ltmp500
	.byte	0
	.byte	0
	.uleb128 Ltmp501-Lfunc_begin62
	.uleb128 Ltmp508-Ltmp501
	.uleb128 Ltmp509-Lfunc_begin62
	.byte	0
Lcst_end15:
	.p2align	2

	.section	__TEXT,__text,regular,pure_instructions
	.globl	__ZN10ttf_parser6tables4cmap7format29Subtable210codepoints17h4c7b484524a5f592E
	.p2align	4, 0x90
__ZN10ttf_parser6tables4cmap7format29Subtable210codepoints17h4c7b484524a5f592E:
Lfunc_begin63:
	.file	27 "/Users/natalie/.cargo/registry/src/github.com-1ecc6299db9ec823/ttf-parser-0.17.1/src/tables/cmap" "format2.rs"
	.loc	27 123 0
	.cfi_startproc
	pushq	%rbp
	.cfi_def_cfa_offset 16
	.cfi_offset %rbp, -16
	movq	%rsp, %rbp
	.cfi_def_cfa_register %rbp
	subq	$32, %rsp
	movq	%rdi, -8(%rbp)
Ltmp528:
	.loc	27 124 39 prologue_end
	movq	(%rsi), %rax
	movq	%rax, -32(%rbp)
	movq	8(%rsi), %rax
	movq	%rax, -24(%rbp)
	movq	16(%rsi), %rax
	movq	%rax, -16(%rbp)
	.loc	27 124 17 is_stmt 0
	leaq	-32(%rbp), %rsi
Ltmp529:
	callq	__ZN10ttf_parser6tables4cmap7format29Subtable216codepoints_inner17h1e4172bd46db915fE
	.loc	27 125 6 is_stmt 1
	addq	$32, %rsp
	popq	%rbp
	retq
Ltmp530:
Lfunc_end63:
	.cfi_endproc

	.globl	__ZN10ttf_parser6tables4cmap7format29Subtable210codepoints17hda8a92eb2d2e0db1E
	.p2align	4, 0x90
__ZN10ttf_parser6tables4cmap7format29Subtable210codepoints17hda8a92eb2d2e0db1E:
Lfunc_begin64:
	.loc	27 123 0
	.cfi_startproc
	pushq	%rbp
	.cfi_def_cfa_offset 16
	.cfi_offset %rbp, -16
	movq	%rsp, %rbp
	.cfi_def_cfa_register %rbp
	subq	$32, %rsp
	movq	%rdi, -8(%rbp)
Ltmp531:
	.loc	27 124 39 prologue_end
	movq	(%rsi), %rax
	movq	%rax, -32(%rbp)
	movq	8(%rsi), %rax
	movq	%rax, -24(%rbp)
	movq	16(%rsi), %rax
	movq	%rax, -16(%rbp)
	.loc	27 124 17 is_stmt 0
	leaq	-32(%rbp), %rsi
Ltmp532:
	callq	__ZN10ttf_parser6tables4cmap7format29Subtable216codepoints_inner17h0ec4db1d8040345dE
	.loc	27 125 6 is_stmt 1
	addq	$32, %rsp
	popq	%rbp
	retq
Ltmp533:
Lfunc_end64:
	.cfi_endproc

	.globl	__ZN10ttf_parser6tables4cmap7format29Subtable216codepoints_inner17h0ec4db1d8040345dE
	.p2align	4, 0x90
__ZN10ttf_parser6tables4cmap7format29Subtable216codepoints_inner17h0ec4db1d8040345dE:
Lfunc_begin65:
	.loc	27 128 0
	.cfi_startproc
	.cfi_personality 155, _rust_eh_personality
	.cfi_lsda 16, Lexception16
	pushq	%rbp
	.cfi_def_cfa_offset 16
	.cfi_offset %rbp, -16
	movq	%rsp, %rbp
	.cfi_def_cfa_register %rbp
	subq	$336, %rsp
	movq	%rdi, -256(%rbp)
	movq	%rsi, -248(%rbp)
Ltmp577:
	movq	%rdi, -96(%rbp)
Ltmp578:
	.loc	27 129 27 prologue_end
	movw	$0, -232(%rbp)
	movw	$256, -230(%rbp)
	movzwl	-230(%rbp), %esi
Ltmp579:
	movzwl	-232(%rbp), %edi
Ltmp534:
	callq	__ZN63_$LT$I$u20$as$u20$core..iter..traits..collect..IntoIterator$GT$9into_iter17h6c1ebcdea001fb04E
Ltmp535:
	movw	%dx, -238(%rbp)
	movw	%ax, -236(%rbp)
Ltmp580:
	jmp	LBB65_3
Ltmp581:
LBB65_1:
	.loc	27 128 5
	movq	-48(%rbp), %rdi
	callq	__Unwind_Resume
Ltmp582:
LBB65_2:
Ltmp576:
	.loc	27 0 5 is_stmt 0
	movq	%rax, %rcx
	movl	%edx, %eax
	movq	%rcx, -48(%rbp)
	movl	%eax, -40(%rbp)
	jmp	LBB65_1
Ltmp583:
LBB65_3:
	movw	-238(%rbp), %ax
	movw	-236(%rbp), %cx
	.loc	27 129 27 is_stmt 1
	movw	%cx, -224(%rbp)
	movw	%ax, -222(%rbp)
Ltmp584:
LBB65_4:
Ltmp536:
	.loc	27 0 27 is_stmt 0
	leaq	-224(%rbp), %rdi
Ltmp585:
	.loc	27 129 27
	callq	__ZN4core4iter5range101_$LT$impl$u20$core..iter..traits..iterator..Iterator$u20$for$u20$core..ops..range..Range$LT$A$GT$$GT$4next17hcd4f5e007c22b019E
Ltmp537:
	movw	%dx, -260(%rbp)
	movw	%ax, -258(%rbp)
	jmp	LBB65_5
Ltmp586:
LBB65_5:
	.loc	27 0 27
	movw	-260(%rbp), %ax
	movw	-258(%rbp), %cx
	.loc	27 129 27
	movw	%cx, -216(%rbp)
	movw	%ax, -214(%rbp)
	movzwl	-216(%rbp), %eax
	cmpq	$0, %rax
	jne	LBB65_7
Ltmp587:
	.loc	27 150 9 is_stmt 1
	movb	$1, -233(%rbp)
	.loc	27 151 5
	jmp	LBB65_43
Ltmp588:
LBB65_7:
	.loc	27 0 5 is_stmt 0
	movq	-256(%rbp), %rdi
Ltmp589:
	.loc	27 129 13 is_stmt 1
	movw	-214(%rbp), %ax
	movw	%ax, -266(%rbp)
	movw	%ax, -26(%rbp)
Ltmp590:
	.loc	27 130 21
	movw	%ax, %si
Ltmp538:
	callq	__ZN10ttf_parser6parser20LazyArray16$LT$T$GT$3get17h94de7bc18aecee61E
Ltmp539:
	movw	%dx, -264(%rbp)
	movw	%ax, -262(%rbp)
	jmp	LBB65_8
Ltmp591:
LBB65_8:
	.loc	27 0 21 is_stmt 0
	movw	-264(%rbp), %ax
	movw	-262(%rbp), %cx
	.loc	27 130 21
	movw	%cx, %di
	movw	%ax, %si
Ltmp540:
	callq	__ZN75_$LT$core..option..Option$LT$T$GT$$u20$as$u20$core..ops..try_trait..Try$GT$6branch17h56657c8359385836E
Ltmp541:
	movw	%dx, -270(%rbp)
	movw	%ax, -268(%rbp)
	jmp	LBB65_9
Ltmp592:
LBB65_9:
	.loc	27 0 21
	movw	-270(%rbp), %ax
	movw	-268(%rbp), %cx
	.loc	27 130 21
	movw	%cx, -208(%rbp)
	movw	%ax, -206(%rbp)
	movzwl	-208(%rbp), %eax
	cmpq	$0, %rax
	jne	LBB65_11
Ltmp593:
	.loc	27 0 21
	movq	-256(%rbp), %rsi
	.loc	27 130 21
	movzwl	-206(%rbp), %edx
	movw	%dx, %ax
	movw	%ax, -24(%rbp)
	shrl	$3, %edx
	movw	%dx, %ax
	movw	%ax, -272(%rbp)
	movw	%ax, -22(%rbp)
Ltmp594:
	.loc	27 131 30 is_stmt 1
	addq	$16, %rsi
Ltmp544:
	leaq	-176(%rbp), %rdi
	callq	__ZN10ttf_parser6parser20LazyArray16$LT$T$GT$3get17h953fb22ca68c55ccE
Ltmp545:
	jmp	LBB65_14
Ltmp595:
LBB65_11:
Ltmp542:
	.loc	27 130 21
	callq	__ZN84_$LT$core..option..Option$LT$T$GT$$u20$as$u20$core..ops..try_trait..FromResidual$GT$13from_residual17h82f804793c52594bE
Ltmp543:
	movb	%al, -273(%rbp)
	jmp	LBB65_12
Ltmp596:
LBB65_12:
	.loc	27 0 21 is_stmt 0
	movb	-273(%rbp), %al
	.loc	27 130 21
	andb	$1, %al
	movb	%al, -233(%rbp)
Ltmp597:
LBB65_13:
	.loc	27 151 5 is_stmt 1
	jmp	LBB65_43
Ltmp598:
LBB65_14:
Ltmp546:
	.loc	27 0 5 is_stmt 0
	leaq	-192(%rbp), %rdi
	leaq	-176(%rbp), %rsi
Ltmp599:
	.loc	27 131 30 is_stmt 1
	callq	__ZN75_$LT$core..option..Option$LT$T$GT$$u20$as$u20$core..ops..try_trait..Try$GT$6branch17h00ce9514fe2612e9E
Ltmp547:
	jmp	LBB65_15
Ltmp600:
LBB65_15:
	movzwl	-192(%rbp), %eax
	cmpq	$0, %rax
	jne	LBB65_17
Ltmp601:
	.loc	27 0 30 is_stmt 0
	movw	-272(%rbp), %ax
	.loc	27 131 30
	movq	-190(%rbp), %rcx
	movq	%rcx, -160(%rbp)
Ltmp602:
	.loc	27 131 30
	movq	-160(%rbp), %rcx
	movq	%rcx, -200(%rbp)
Ltmp603:
	.loc	27 132 30 is_stmt 1
	movw	-200(%rbp), %cx
	movw	%cx, -276(%rbp)
	movw	%cx, -20(%rbp)
Ltmp604:
	.loc	27 134 16
	cmpw	$0, %ax
	je	LBB65_19
	jmp	LBB65_20
Ltmp605:
LBB65_17:
Ltmp548:
	.loc	27 131 30
	callq	__ZN84_$LT$core..option..Option$LT$T$GT$$u20$as$u20$core..ops..try_trait..FromResidual$GT$13from_residual17h82f804793c52594bE
Ltmp549:
	movb	%al, -277(%rbp)
	jmp	LBB65_18
Ltmp606:
LBB65_18:
	.loc	27 0 30 is_stmt 0
	movb	-277(%rbp), %al
	.loc	27 131 30
	andb	$1, %al
	movb	%al, -233(%rbp)
	jmp	LBB65_13
Ltmp607:
LBB65_19:
	.loc	27 0 30
	movw	-276(%rbp), %ax
Ltmp608:
	.loc	27 136 33 is_stmt 1
	movw	%ax, %di
	movzwl	-198(%rbp), %esi
Ltmp568:
	callq	__ZN4core3num21_$LT$impl$u20$u16$GT$11checked_add17h57ae7eefe4af90daE
Ltmp569:
	movw	%dx, -282(%rbp)
	movw	%ax, -280(%rbp)
	jmp	LBB65_38
Ltmp609:
LBB65_20:
	.loc	27 0 33 is_stmt 0
	movw	-266(%rbp), %ax
	.loc	27 142 51 is_stmt 1
	shlw	$8, %ax
	movw	%ax, -284(%rbp)
Ltmp610:
	.loc	27 0 51 is_stmt 0
	movw	-284(%rbp), %ax
	movw	-276(%rbp), %cx
	.loc	27 142 28
	movw	%cx, %di
	movw	%ax, %si
Ltmp550:
	callq	__ZN4core3num21_$LT$impl$u20$u16$GT$11checked_add17h57ae7eefe4af90daE
Ltmp551:
	movw	%dx, -288(%rbp)
	movw	%ax, -286(%rbp)
	jmp	LBB65_22
Ltmp611:
LBB65_22:
	.loc	27 0 28
	movw	-288(%rbp), %ax
	movw	-286(%rbp), %cx
	.loc	27 142 28
	movw	%cx, %di
	movw	%ax, %si
Ltmp552:
	callq	__ZN75_$LT$core..option..Option$LT$T$GT$$u20$as$u20$core..ops..try_trait..Try$GT$6branch17h56657c8359385836E
Ltmp553:
	movw	%dx, -292(%rbp)
	movw	%ax, -290(%rbp)
	jmp	LBB65_23
Ltmp612:
LBB65_23:
	.loc	27 0 28
	movw	-292(%rbp), %ax
	movw	-290(%rbp), %cx
	.loc	27 142 28
	movw	%cx, -136(%rbp)
	movw	%ax, -134(%rbp)
	movzwl	-136(%rbp), %eax
	cmpq	$0, %rax
	jne	LBB65_25
Ltmp613:
	movw	-134(%rbp), %ax
	movw	%ax, -298(%rbp)
	movw	%ax, -18(%rbp)
Ltmp614:
	.loc	27 142 28
	movw	%ax, -16(%rbp)
Ltmp615:
	.loc	27 143 29 is_stmt 1
	movw	-198(%rbp), %ax
	.loc	27 143 26 is_stmt 0
	movw	$0, -128(%rbp)
	movw	%ax, -126(%rbp)
	movzwl	-126(%rbp), %esi
	movzwl	-128(%rbp), %edi
Ltmp556:
	callq	__ZN63_$LT$I$u20$as$u20$core..iter..traits..collect..IntoIterator$GT$9into_iter17h6c1ebcdea001fb04E
Ltmp557:
	movw	%dx, -296(%rbp)
	movw	%ax, -294(%rbp)
	jmp	LBB65_27
Ltmp616:
LBB65_25:
Ltmp554:
	.loc	27 142 28 is_stmt 1
	callq	__ZN84_$LT$core..option..Option$LT$T$GT$$u20$as$u20$core..ops..try_trait..FromResidual$GT$13from_residual17h82f804793c52594bE
Ltmp555:
	movb	%al, -299(%rbp)
	jmp	LBB65_26
Ltmp617:
LBB65_26:
	.loc	27 0 28 is_stmt 0
	movb	-299(%rbp), %al
	.loc	27 142 28
	andb	$1, %al
	movb	%al, -233(%rbp)
	jmp	LBB65_13
Ltmp618:
LBB65_27:
	.loc	27 0 28
	movw	-296(%rbp), %ax
	movw	-294(%rbp), %cx
Ltmp619:
	.loc	27 143 26 is_stmt 1
	movw	%cx, -120(%rbp)
	movw	%ax, -118(%rbp)
Ltmp620:
LBB65_28:
Ltmp558:
	.loc	27 0 26 is_stmt 0
	leaq	-120(%rbp), %rdi
Ltmp621:
	.loc	27 143 26
	callq	__ZN4core4iter5range101_$LT$impl$u20$core..iter..traits..iterator..Iterator$u20$for$u20$core..ops..range..Range$LT$A$GT$$GT$4next17hcd4f5e007c22b019E
Ltmp559:
	movw	%dx, -304(%rbp)
	movw	%ax, -302(%rbp)
	jmp	LBB65_29
Ltmp622:
LBB65_29:
	.loc	27 0 26
	movw	-304(%rbp), %ax
	movw	-302(%rbp), %cx
	.loc	27 143 26
	movw	%cx, -112(%rbp)
	movw	%ax, -110(%rbp)
	movzwl	-112(%rbp), %eax
	cmpq	$0, %rax
	je	LBB65_4
Ltmp623:
	.loc	27 0 26
	movw	-298(%rbp), %ax
Ltmp624:
	.loc	27 144 38 is_stmt 1
	movzwl	-110(%rbp), %esi
Ltmp625:
	.loc	27 143 21
	movw	%si, %cx
	movw	%cx, -14(%rbp)
Ltmp626:
	.loc	27 144 38
	movw	%ax, %di
Ltmp560:
	callq	__ZN4core3num21_$LT$impl$u20$u16$GT$11checked_add17h57ae7eefe4af90daE
Ltmp561:
	movw	%dx, -308(%rbp)
	movw	%ax, -306(%rbp)
	jmp	LBB65_31
Ltmp627:
LBB65_31:
	.loc	27 0 38 is_stmt 0
	movw	-308(%rbp), %ax
	movw	-306(%rbp), %cx
	.loc	27 144 38
	movw	%cx, %di
	movw	%ax, %si
Ltmp562:
	callq	__ZN75_$LT$core..option..Option$LT$T$GT$$u20$as$u20$core..ops..try_trait..Try$GT$6branch17h56657c8359385836E
Ltmp563:
	movw	%dx, -312(%rbp)
	movw	%ax, -310(%rbp)
	jmp	LBB65_32
Ltmp628:
LBB65_32:
	.loc	27 0 38
	movw	-312(%rbp), %ax
	movw	-310(%rbp), %cx
	.loc	27 144 38
	movw	%cx, -104(%rbp)
	movw	%ax, -102(%rbp)
	movzwl	-104(%rbp), %eax
	cmpq	$0, %rax
	jne	LBB65_34
Ltmp629:
	movw	-102(%rbp), %ax
	movw	%ax, -12(%rbp)
Ltmp630:
	.loc	27 144 38
	movw	%ax, -10(%rbp)
	movw	%ax, -2(%rbp)
Ltmp631:
	.loc	15 54 17 is_stmt 1
	movzwl	%ax, %eax
	movl	%eax, -316(%rbp)
	.loc	15 55 14
	jmp	LBB65_36
Ltmp632:
LBB65_34:
Ltmp564:
	.loc	27 144 38
	callq	__ZN84_$LT$core..option..Option$LT$T$GT$$u20$as$u20$core..ops..try_trait..FromResidual$GT$13from_residual17h82f804793c52594bE
Ltmp565:
	movb	%al, -317(%rbp)
	jmp	LBB65_35
Ltmp633:
LBB65_35:
	.loc	27 0 38 is_stmt 0
	movb	-317(%rbp), %al
	.loc	27 144 38
	andb	$1, %al
	movb	%al, -233(%rbp)
	jmp	LBB65_13
Ltmp634:
LBB65_36:
	.loc	27 0 38
	movq	-248(%rbp), %rdi
	movl	-316(%rbp), %eax
Ltmp635:
	.loc	27 145 21 is_stmt 1
	movl	%eax, -100(%rbp)
	movl	-100(%rbp), %esi
Ltmp566:
	callq	__ZN64_$LT$ab_glyph..ttfp..FontVec$u20$as$u20$ab_glyph..font..Font$GT$13codepoint_ids28_$u7b$$u7b$closure$u7d$$u7d$28_$u7b$$u7b$closure$u7d$$u7d$17he50d69d0dc60a6ebE
Ltmp567:
	jmp	LBB65_37
Ltmp636:
LBB65_37:
	jmp	LBB65_28
Ltmp637:
LBB65_38:
	.loc	27 0 21 is_stmt 0
	movw	-282(%rbp), %ax
	movw	-280(%rbp), %cx
	.loc	27 136 33 is_stmt 1
	movw	%cx, %di
	movw	%ax, %si
Ltmp570:
	callq	__ZN75_$LT$core..option..Option$LT$T$GT$$u20$as$u20$core..ops..try_trait..Try$GT$6branch17h56657c8359385836E
Ltmp571:
	movw	%dx, -322(%rbp)
	movw	%ax, -320(%rbp)
	jmp	LBB65_39
Ltmp638:
LBB65_39:
	.loc	27 0 33 is_stmt 0
	movw	-322(%rbp), %ax
	movw	-320(%rbp), %cx
	.loc	27 136 33
	movw	%cx, -152(%rbp)
	movw	%ax, -150(%rbp)
	movzwl	-152(%rbp), %eax
	cmpq	$0, %rax
	jne	LBB65_41
Ltmp639:
	.loc	27 0 33
	movw	-266(%rbp), %ax
	movw	-276(%rbp), %cx
	.loc	27 136 33
	movw	-150(%rbp), %dx
	movw	%dx, -324(%rbp)
	movw	%dx, -8(%rbp)
Ltmp640:
	.loc	27 136 33
	movw	%dx, -6(%rbp)
Ltmp641:
	.loc	27 137 20 is_stmt 1
	cmpw	%cx, %ax
	jae	LBB65_45
	jmp	LBB65_44
Ltmp642:
LBB65_41:
Ltmp572:
	.loc	27 136 33
	callq	__ZN84_$LT$core..option..Option$LT$T$GT$$u20$as$u20$core..ops..try_trait..FromResidual$GT$13from_residual17h82f804793c52594bE
Ltmp573:
	movb	%al, -325(%rbp)
	jmp	LBB65_42
Ltmp643:
LBB65_42:
	.loc	27 0 33 is_stmt 0
	movb	-325(%rbp), %al
	.loc	27 136 33
	andb	$1, %al
	movb	%al, -233(%rbp)
	jmp	LBB65_13
Ltmp644:
LBB65_43:
	.loc	27 151 6 is_stmt 1
	movb	-233(%rbp), %al
	andb	$1, %al
	movzbl	%al, %eax
	addq	$336, %rsp
	popq	%rbp
	retq
Ltmp645:
LBB65_44:
	.loc	27 137 20
	movb	$0, -141(%rbp)
	jmp	LBB65_46
Ltmp646:
LBB65_45:
	.loc	27 0 20 is_stmt 0
	movw	-266(%rbp), %ax
	movw	-324(%rbp), %cx
	.loc	27 137 48
	cmpw	%cx, %ax
	setb	%al
	.loc	27 137 20
	andb	$1, %al
	movb	%al, -141(%rbp)
Ltmp647:
LBB65_46:
	testb	$1, -141(%rbp)
	je	LBB65_4
Ltmp648:
	.loc	27 0 20
	movw	-266(%rbp), %ax
	movw	%ax, -4(%rbp)
Ltmp649:
	.loc	15 54 17 is_stmt 1
	movzwl	%ax, %eax
	movl	%eax, -332(%rbp)
Ltmp650:
	.loc	15 0 17 is_stmt 0
	movq	-248(%rbp), %rdi
	movl	-332(%rbp), %eax
	.loc	27 138 21 is_stmt 1
	movl	%eax, -140(%rbp)
	movl	-140(%rbp), %esi
Ltmp574:
	callq	__ZN64_$LT$ab_glyph..ttfp..FontVec$u20$as$u20$ab_glyph..font..Font$GT$13codepoint_ids28_$u7b$$u7b$closure$u7d$$u7d$28_$u7b$$u7b$closure$u7d$$u7d$17he50d69d0dc60a6ebE
Ltmp575:
	jmp	LBB65_49
Ltmp651:
LBB65_49:
	jmp	LBB65_4
Ltmp652:
Lfunc_end65:
	.cfi_endproc
	.section	__TEXT,__gcc_except_tab
	.p2align	2
GCC_except_table65:
Lexception16:
	.byte	255
	.byte	255
	.byte	1
	.uleb128 Lcst_end16-Lcst_begin16
Lcst_begin16:
	.uleb128 Ltmp534-Lfunc_begin65
	.uleb128 Ltmp535-Ltmp534
	.uleb128 Ltmp576-Lfunc_begin65
	.byte	0
	.uleb128 Ltmp535-Lfunc_begin65
	.uleb128 Ltmp536-Ltmp535
	.byte	0
	.byte	0
	.uleb128 Ltmp536-Lfunc_begin65
	.uleb128 Ltmp575-Ltmp536
	.uleb128 Ltmp576-Lfunc_begin65
	.byte	0
Lcst_end16:
	.p2align	2

	.section	__TEXT,__text,regular,pure_instructions
	.globl	__ZN10ttf_parser6tables4cmap7format29Subtable216codepoints_inner17h1e4172bd46db915fE
	.p2align	4, 0x90
__ZN10ttf_parser6tables4cmap7format29Subtable216codepoints_inner17h1e4172bd46db915fE:
Lfunc_begin66:
	.loc	27 128 0
	.cfi_startproc
	.cfi_personality 155, _rust_eh_personality
	.cfi_lsda 16, Lexception17
	pushq	%rbp
	.cfi_def_cfa_offset 16
	.cfi_offset %rbp, -16
	movq	%rsp, %rbp
	.cfi_def_cfa_register %rbp
	subq	$336, %rsp
	movq	%rdi, -256(%rbp)
	movq	%rsi, -248(%rbp)
Ltmp696:
	movq	%rdi, -96(%rbp)
Ltmp697:
	.loc	27 129 27 prologue_end
	movw	$0, -232(%rbp)
	movw	$256, -230(%rbp)
	movzwl	-230(%rbp), %esi
Ltmp698:
	movzwl	-232(%rbp), %edi
Ltmp653:
	callq	__ZN63_$LT$I$u20$as$u20$core..iter..traits..collect..IntoIterator$GT$9into_iter17h6c1ebcdea001fb04E
Ltmp654:
	movw	%dx, -238(%rbp)
	movw	%ax, -236(%rbp)
Ltmp699:
	jmp	LBB66_3
Ltmp700:
LBB66_1:
	.loc	27 128 5
	movq	-48(%rbp), %rdi
	callq	__Unwind_Resume
Ltmp701:
LBB66_2:
Ltmp695:
	.loc	27 0 5 is_stmt 0
	movq	%rax, %rcx
	movl	%edx, %eax
	movq	%rcx, -48(%rbp)
	movl	%eax, -40(%rbp)
	jmp	LBB66_1
Ltmp702:
LBB66_3:
	movw	-238(%rbp), %ax
	movw	-236(%rbp), %cx
	.loc	27 129 27 is_stmt 1
	movw	%cx, -224(%rbp)
	movw	%ax, -222(%rbp)
Ltmp703:
LBB66_4:
Ltmp655:
	.loc	27 0 27 is_stmt 0
	leaq	-224(%rbp), %rdi
Ltmp704:
	.loc	27 129 27
	callq	__ZN4core4iter5range101_$LT$impl$u20$core..iter..traits..iterator..Iterator$u20$for$u20$core..ops..range..Range$LT$A$GT$$GT$4next17hcd4f5e007c22b019E
Ltmp656:
	movw	%dx, -260(%rbp)
	movw	%ax, -258(%rbp)
	jmp	LBB66_5
Ltmp705:
LBB66_5:
	.loc	27 0 27
	movw	-260(%rbp), %ax
	movw	-258(%rbp), %cx
	.loc	27 129 27
	movw	%cx, -216(%rbp)
	movw	%ax, -214(%rbp)
	movzwl	-216(%rbp), %eax
	cmpq	$0, %rax
	jne	LBB66_7
Ltmp706:
	.loc	27 150 9 is_stmt 1
	movb	$1, -233(%rbp)
	.loc	27 151 5
	jmp	LBB66_43
Ltmp707:
LBB66_7:
	.loc	27 0 5 is_stmt 0
	movq	-256(%rbp), %rdi
Ltmp708:
	.loc	27 129 13 is_stmt 1
	movw	-214(%rbp), %ax
	movw	%ax, -266(%rbp)
	movw	%ax, -26(%rbp)
Ltmp709:
	.loc	27 130 21
	movw	%ax, %si
Ltmp657:
	callq	__ZN10ttf_parser6parser20LazyArray16$LT$T$GT$3get17h94de7bc18aecee61E
Ltmp658:
	movw	%dx, -264(%rbp)
	movw	%ax, -262(%rbp)
	jmp	LBB66_8
Ltmp710:
LBB66_8:
	.loc	27 0 21 is_stmt 0
	movw	-264(%rbp), %ax
	movw	-262(%rbp), %cx
	.loc	27 130 21
	movw	%cx, %di
	movw	%ax, %si
Ltmp659:
	callq	__ZN75_$LT$core..option..Option$LT$T$GT$$u20$as$u20$core..ops..try_trait..Try$GT$6branch17h56657c8359385836E
Ltmp660:
	movw	%dx, -270(%rbp)
	movw	%ax, -268(%rbp)
	jmp	LBB66_9
Ltmp711:
LBB66_9:
	.loc	27 0 21
	movw	-270(%rbp), %ax
	movw	-268(%rbp), %cx
	.loc	27 130 21
	movw	%cx, -208(%rbp)
	movw	%ax, -206(%rbp)
	movzwl	-208(%rbp), %eax
	cmpq	$0, %rax
	jne	LBB66_11
Ltmp712:
	.loc	27 0 21
	movq	-256(%rbp), %rsi
	.loc	27 130 21
	movzwl	-206(%rbp), %edx
	movw	%dx, %ax
	movw	%ax, -24(%rbp)
	shrl	$3, %edx
	movw	%dx, %ax
	movw	%ax, -272(%rbp)
	movw	%ax, -22(%rbp)
Ltmp713:
	.loc	27 131 30 is_stmt 1
	addq	$16, %rsi
Ltmp663:
	leaq	-176(%rbp), %rdi
	callq	__ZN10ttf_parser6parser20LazyArray16$LT$T$GT$3get17h953fb22ca68c55ccE
Ltmp664:
	jmp	LBB66_14
Ltmp714:
LBB66_11:
Ltmp661:
	.loc	27 130 21
	callq	__ZN84_$LT$core..option..Option$LT$T$GT$$u20$as$u20$core..ops..try_trait..FromResidual$GT$13from_residual17h82f804793c52594bE
Ltmp662:
	movb	%al, -273(%rbp)
	jmp	LBB66_12
Ltmp715:
LBB66_12:
	.loc	27 0 21 is_stmt 0
	movb	-273(%rbp), %al
	.loc	27 130 21
	andb	$1, %al
	movb	%al, -233(%rbp)
Ltmp716:
LBB66_13:
	.loc	27 151 5 is_stmt 1
	jmp	LBB66_43
Ltmp717:
LBB66_14:
Ltmp665:
	.loc	27 0 5 is_stmt 0
	leaq	-192(%rbp), %rdi
	leaq	-176(%rbp), %rsi
Ltmp718:
	.loc	27 131 30 is_stmt 1
	callq	__ZN75_$LT$core..option..Option$LT$T$GT$$u20$as$u20$core..ops..try_trait..Try$GT$6branch17h00ce9514fe2612e9E
Ltmp666:
	jmp	LBB66_15
Ltmp719:
LBB66_15:
	movzwl	-192(%rbp), %eax
	cmpq	$0, %rax
	jne	LBB66_17
Ltmp720:
	.loc	27 0 30 is_stmt 0
	movw	-272(%rbp), %ax
	.loc	27 131 30
	movq	-190(%rbp), %rcx
	movq	%rcx, -160(%rbp)
Ltmp721:
	.loc	27 131 30
	movq	-160(%rbp), %rcx
	movq	%rcx, -200(%rbp)
Ltmp722:
	.loc	27 132 30 is_stmt 1
	movw	-200(%rbp), %cx
	movw	%cx, -276(%rbp)
	movw	%cx, -20(%rbp)
Ltmp723:
	.loc	27 134 16
	cmpw	$0, %ax
	je	LBB66_19
	jmp	LBB66_20
Ltmp724:
LBB66_17:
Ltmp667:
	.loc	27 131 30
	callq	__ZN84_$LT$core..option..Option$LT$T$GT$$u20$as$u20$core..ops..try_trait..FromResidual$GT$13from_residual17h82f804793c52594bE
Ltmp668:
	movb	%al, -277(%rbp)
	jmp	LBB66_18
Ltmp725:
LBB66_18:
	.loc	27 0 30 is_stmt 0
	movb	-277(%rbp), %al
	.loc	27 131 30
	andb	$1, %al
	movb	%al, -233(%rbp)
	jmp	LBB66_13
Ltmp726:
LBB66_19:
	.loc	27 0 30
	movw	-276(%rbp), %ax
Ltmp727:
	.loc	27 136 33 is_stmt 1
	movw	%ax, %di
	movzwl	-198(%rbp), %esi
Ltmp687:
	callq	__ZN4core3num21_$LT$impl$u20$u16$GT$11checked_add17h57ae7eefe4af90daE
Ltmp688:
	movw	%dx, -282(%rbp)
	movw	%ax, -280(%rbp)
	jmp	LBB66_38
Ltmp728:
LBB66_20:
	.loc	27 0 33 is_stmt 0
	movw	-266(%rbp), %ax
	.loc	27 142 51 is_stmt 1
	shlw	$8, %ax
	movw	%ax, -284(%rbp)
Ltmp729:
	.loc	27 0 51 is_stmt 0
	movw	-284(%rbp), %ax
	movw	-276(%rbp), %cx
	.loc	27 142 28
	movw	%cx, %di
	movw	%ax, %si
Ltmp669:
	callq	__ZN4core3num21_$LT$impl$u20$u16$GT$11checked_add17h57ae7eefe4af90daE
Ltmp670:
	movw	%dx, -288(%rbp)
	movw	%ax, -286(%rbp)
	jmp	LBB66_22
Ltmp730:
LBB66_22:
	.loc	27 0 28
	movw	-288(%rbp), %ax
	movw	-286(%rbp), %cx
	.loc	27 142 28
	movw	%cx, %di
	movw	%ax, %si
Ltmp671:
	callq	__ZN75_$LT$core..option..Option$LT$T$GT$$u20$as$u20$core..ops..try_trait..Try$GT$6branch17h56657c8359385836E
Ltmp672:
	movw	%dx, -292(%rbp)
	movw	%ax, -290(%rbp)
	jmp	LBB66_23
Ltmp731:
LBB66_23:
	.loc	27 0 28
	movw	-292(%rbp), %ax
	movw	-290(%rbp), %cx
	.loc	27 142 28
	movw	%cx, -136(%rbp)
	movw	%ax, -134(%rbp)
	movzwl	-136(%rbp), %eax
	cmpq	$0, %rax
	jne	LBB66_25
Ltmp732:
	movw	-134(%rbp), %ax
	movw	%ax, -298(%rbp)
	movw	%ax, -18(%rbp)
Ltmp733:
	.loc	27 142 28
	movw	%ax, -16(%rbp)
Ltmp734:
	.loc	27 143 29 is_stmt 1
	movw	-198(%rbp), %ax
	.loc	27 143 26 is_stmt 0
	movw	$0, -128(%rbp)
	movw	%ax, -126(%rbp)
	movzwl	-126(%rbp), %esi
	movzwl	-128(%rbp), %edi
Ltmp675:
	callq	__ZN63_$LT$I$u20$as$u20$core..iter..traits..collect..IntoIterator$GT$9into_iter17h6c1ebcdea001fb04E
Ltmp676:
	movw	%dx, -296(%rbp)
	movw	%ax, -294(%rbp)
	jmp	LBB66_27
Ltmp735:
LBB66_25:
Ltmp673:
	.loc	27 142 28 is_stmt 1
	callq	__ZN84_$LT$core..option..Option$LT$T$GT$$u20$as$u20$core..ops..try_trait..FromResidual$GT$13from_residual17h82f804793c52594bE
Ltmp674:
	movb	%al, -299(%rbp)
	jmp	LBB66_26
Ltmp736:
LBB66_26:
	.loc	27 0 28 is_stmt 0
	movb	-299(%rbp), %al
	.loc	27 142 28
	andb	$1, %al
	movb	%al, -233(%rbp)
	jmp	LBB66_13
Ltmp737:
LBB66_27:
	.loc	27 0 28
	movw	-296(%rbp), %ax
	movw	-294(%rbp), %cx
Ltmp738:
	.loc	27 143 26 is_stmt 1
	movw	%cx, -120(%rbp)
	movw	%ax, -118(%rbp)
Ltmp739:
LBB66_28:
Ltmp677:
	.loc	27 0 26 is_stmt 0
	leaq	-120(%rbp), %rdi
Ltmp740:
	.loc	27 143 26
	callq	__ZN4core4iter5range101_$LT$impl$u20$core..iter..traits..iterator..Iterator$u20$for$u20$core..ops..range..Range$LT$A$GT$$GT$4next17hcd4f5e007c22b019E
Ltmp678:
	movw	%dx, -304(%rbp)
	movw	%ax, -302(%rbp)
	jmp	LBB66_29
Ltmp741:
LBB66_29:
	.loc	27 0 26
	movw	-304(%rbp), %ax
	movw	-302(%rbp), %cx
	.loc	27 143 26
	movw	%cx, -112(%rbp)
	movw	%ax, -110(%rbp)
	movzwl	-112(%rbp), %eax
	cmpq	$0, %rax
	je	LBB66_4
Ltmp742:
	.loc	27 0 26
	movw	-298(%rbp), %ax
Ltmp743:
	.loc	27 144 38 is_stmt 1
	movzwl	-110(%rbp), %esi
Ltmp744:
	.loc	27 143 21
	movw	%si, %cx
	movw	%cx, -14(%rbp)
Ltmp745:
	.loc	27 144 38
	movw	%ax, %di
Ltmp679:
	callq	__ZN4core3num21_$LT$impl$u20$u16$GT$11checked_add17h57ae7eefe4af90daE
Ltmp680:
	movw	%dx, -308(%rbp)
	movw	%ax, -306(%rbp)
	jmp	LBB66_31
Ltmp746:
LBB66_31:
	.loc	27 0 38 is_stmt 0
	movw	-308(%rbp), %ax
	movw	-306(%rbp), %cx
	.loc	27 144 38
	movw	%cx, %di
	movw	%ax, %si
Ltmp681:
	callq	__ZN75_$LT$core..option..Option$LT$T$GT$$u20$as$u20$core..ops..try_trait..Try$GT$6branch17h56657c8359385836E
Ltmp682:
	movw	%dx, -312(%rbp)
	movw	%ax, -310(%rbp)
	jmp	LBB66_32
Ltmp747:
LBB66_32:
	.loc	27 0 38
	movw	-312(%rbp), %ax
	movw	-310(%rbp), %cx
	.loc	27 144 38
	movw	%cx, -104(%rbp)
	movw	%ax, -102(%rbp)
	movzwl	-104(%rbp), %eax
	cmpq	$0, %rax
	jne	LBB66_34
Ltmp748:
	movw	-102(%rbp), %ax
	movw	%ax, -12(%rbp)
Ltmp749:
	.loc	27 144 38
	movw	%ax, -10(%rbp)
	movw	%ax, -2(%rbp)
Ltmp750:
	.loc	15 54 17 is_stmt 1
	movzwl	%ax, %eax
	movl	%eax, -316(%rbp)
	.loc	15 55 14
	jmp	LBB66_36
Ltmp751:
LBB66_34:
Ltmp683:
	.loc	27 144 38
	callq	__ZN84_$LT$core..option..Option$LT$T$GT$$u20$as$u20$core..ops..try_trait..FromResidual$GT$13from_residual17h82f804793c52594bE
Ltmp684:
	movb	%al, -317(%rbp)
	jmp	LBB66_35
Ltmp752:
LBB66_35:
	.loc	27 0 38 is_stmt 0
	movb	-317(%rbp), %al
	.loc	27 144 38
	andb	$1, %al
	movb	%al, -233(%rbp)
	jmp	LBB66_13
Ltmp753:
LBB66_36:
	.loc	27 0 38
	movq	-248(%rbp), %rdi
	movl	-316(%rbp), %eax
Ltmp754:
	.loc	27 145 21 is_stmt 1
	movl	%eax, -100(%rbp)
	movl	-100(%rbp), %esi
Ltmp685:
	callq	__ZN64_$LT$ab_glyph..ttfp..FontRef$u20$as$u20$ab_glyph..font..Font$GT$13codepoint_ids28_$u7b$$u7b$closure$u7d$$u7d$28_$u7b$$u7b$closure$u7d$$u7d$17h86c4e7df4d016022E
Ltmp686:
	jmp	LBB66_37
Ltmp755:
LBB66_37:
	jmp	LBB66_28
Ltmp756:
LBB66_38:
	.loc	27 0 21 is_stmt 0
	movw	-282(%rbp), %ax
	movw	-280(%rbp), %cx
	.loc	27 136 33 is_stmt 1
	movw	%cx, %di
	movw	%ax, %si
Ltmp689:
	callq	__ZN75_$LT$core..option..Option$LT$T$GT$$u20$as$u20$core..ops..try_trait..Try$GT$6branch17h56657c8359385836E
Ltmp690:
	movw	%dx, -322(%rbp)
	movw	%ax, -320(%rbp)
	jmp	LBB66_39
Ltmp757:
LBB66_39:
	.loc	27 0 33 is_stmt 0
	movw	-322(%rbp), %ax
	movw	-320(%rbp), %cx
	.loc	27 136 33
	movw	%cx, -152(%rbp)
	movw	%ax, -150(%rbp)
	movzwl	-152(%rbp), %eax
	cmpq	$0, %rax
	jne	LBB66_41
Ltmp758:
	.loc	27 0 33
	movw	-266(%rbp), %ax
	movw	-276(%rbp), %cx
	.loc	27 136 33
	movw	-150(%rbp), %dx
	movw	%dx, -324(%rbp)
	movw	%dx, -8(%rbp)
Ltmp759:
	.loc	27 136 33
	movw	%dx, -6(%rbp)
Ltmp760:
	.loc	27 137 20 is_stmt 1
	cmpw	%cx, %ax
	jae	LBB66_45
	jmp	LBB66_44
Ltmp761:
LBB66_41:
Ltmp691:
	.loc	27 136 33
	callq	__ZN84_$LT$core..option..Option$LT$T$GT$$u20$as$u20$core..ops..try_trait..FromResidual$GT$13from_residual17h82f804793c52594bE
Ltmp692:
	movb	%al, -325(%rbp)
	jmp	LBB66_42
Ltmp762:
LBB66_42:
	.loc	27 0 33 is_stmt 0
	movb	-325(%rbp), %al
	.loc	27 136 33
	andb	$1, %al
	movb	%al, -233(%rbp)
	jmp	LBB66_13
Ltmp763:
LBB66_43:
	.loc	27 151 6 is_stmt 1
	movb	-233(%rbp), %al
	andb	$1, %al
	movzbl	%al, %eax
	addq	$336, %rsp
	popq	%rbp
	retq
Ltmp764:
LBB66_44:
	.loc	27 137 20
	movb	$0, -141(%rbp)
	jmp	LBB66_46
Ltmp765:
LBB66_45:
	.loc	27 0 20 is_stmt 0
	movw	-266(%rbp), %ax
	movw	-324(%rbp), %cx
	.loc	27 137 48
	cmpw	%cx, %ax
	setb	%al
	.loc	27 137 20
	andb	$1, %al
	movb	%al, -141(%rbp)
Ltmp766:
LBB66_46:
	testb	$1, -141(%rbp)
	je	LBB66_4
Ltmp767:
	.loc	27 0 20
	movw	-266(%rbp), %ax
	movw	%ax, -4(%rbp)
Ltmp768:
	.loc	15 54 17 is_stmt 1
	movzwl	%ax, %eax
	movl	%eax, -332(%rbp)
Ltmp769:
	.loc	15 0 17 is_stmt 0
	movq	-248(%rbp), %rdi
	movl	-332(%rbp), %eax
	.loc	27 138 21 is_stmt 1
	movl	%eax, -140(%rbp)
	movl	-140(%rbp), %esi
Ltmp693:
	callq	__ZN64_$LT$ab_glyph..ttfp..FontRef$u20$as$u20$ab_glyph..font..Font$GT$13codepoint_ids28_$u7b$$u7b$closure$u7d$$u7d$28_$u7b$$u7b$closure$u7d$$u7d$17h86c4e7df4d016022E
Ltmp694:
	jmp	LBB66_49
Ltmp770:
LBB66_49:
	jmp	LBB66_4
Ltmp771:
Lfunc_end66:
	.cfi_endproc
	.section	__TEXT,__gcc_except_tab
	.p2align	2
GCC_except_table66:
Lexception17:
	.byte	255
	.byte	255
	.byte	1
	.uleb128 Lcst_end17-Lcst_begin17
Lcst_begin17:
	.uleb128 Ltmp653-Lfunc_begin66
	.uleb128 Ltmp654-Ltmp653
	.uleb128 Ltmp695-Lfunc_begin66
	.byte	0
	.uleb128 Ltmp654-Lfunc_begin66
	.uleb128 Ltmp655-Ltmp654
	.byte	0
	.byte	0
	.uleb128 Ltmp655-Lfunc_begin66
	.uleb128 Ltmp694-Ltmp655
	.uleb128 Ltmp695-Lfunc_begin66
	.byte	0
Lcst_end17:
	.p2align	2

	.section	__TEXT,__text,regular,pure_instructions
	.globl	__ZN10ttf_parser6tables4cmap7format49Subtable410codepoints17h16f6f08d6cb64f77E
	.p2align	4, 0x90
__ZN10ttf_parser6tables4cmap7format49Subtable410codepoints17h16f6f08d6cb64f77E:
Lfunc_begin67:
	.file	28 "/Users/natalie/.cargo/registry/src/github.com-1ecc6299db9ec823/ttf-parser-0.17.1/src/tables/cmap" "format4.rs"
	.loc	28 104 0
	.cfi_startproc
	.cfi_personality 155, _rust_eh_personality
	.cfi_lsda 16, Lexception18
	pushq	%rbp
	.cfi_def_cfa_offset 16
	.cfi_offset %rbp, -16
	movq	%rsp, %rbp
	.cfi_def_cfa_register %rbp
	subq	$400, %rsp
	movq	%rdi, -360(%rbp)
	movq	%rsi, -352(%rbp)
Ltmp789:
	movq	%rdi, -64(%rbp)
Ltmp790:
	.loc	28 105 29 prologue_end
	movq	(%rdi), %rsi
Ltmp791:
	movq	8(%rdi), %rdx
Ltmp772:
	leaq	-200(%rbp), %rdi
	callq	__ZN102_$LT$ttf_parser..parser..LazyArray16$LT$T$GT$$u20$as$u20$core..iter..traits..collect..IntoIterator$GT$9into_iter17hab2f6fba9b6798e1E
Ltmp773:
Ltmp792:
	jmp	LBB67_3
Ltmp793:
LBB67_1:
	.loc	28 104 5
	movq	-56(%rbp), %rdi
	callq	__Unwind_Resume
Ltmp794:
LBB67_2:
Ltmp788:
	.loc	28 0 5 is_stmt 0
	movq	%rax, %rcx
	movl	%edx, %eax
	movq	%rcx, -56(%rbp)
	movl	%eax, -48(%rbp)
	jmp	LBB67_1
Ltmp795:
LBB67_3:
	movq	-360(%rbp), %rax
	.loc	28 105 62 is_stmt 1
	movq	16(%rax), %rdx
	movq	24(%rax), %rcx
Ltmp774:
	leaq	-272(%rbp), %rdi
	leaq	-200(%rbp), %rsi
	.loc	28 105 29 is_stmt 0
	callq	__ZN4core4iter6traits8iterator8Iterator3zip17heb85326d683cd3c2E
Ltmp775:
	jmp	LBB67_4
Ltmp796:
LBB67_4:
Ltmp776:
	.loc	28 0 29
	leaq	-344(%rbp), %rdi
	leaq	-272(%rbp), %rsi
	.loc	28 105 29
	callq	__ZN63_$LT$I$u20$as$u20$core..iter..traits..collect..IntoIterator$GT$9into_iter17h23a5eb27cb12f502E
Ltmp777:
	jmp	LBB67_5
Ltmp797:
LBB67_5:
	leaq	-176(%rbp), %rdi
	leaq	-344(%rbp), %rsi
	movl	$72, %edx
	callq	_memcpy
Ltmp798:
LBB67_6:
Ltmp778:
	.loc	28 0 29
	leaq	-176(%rbp), %rdi
Ltmp799:
	.loc	28 105 29
	callq	__ZN102_$LT$core..iter..adapters..zip..Zip$LT$A$C$B$GT$$u20$as$u20$core..iter..traits..iterator..Iterator$GT$4next17hf644bf810bb4ad22E
Ltmp779:
	movq	%rax, -368(%rbp)
	jmp	LBB67_7
Ltmp800:
LBB67_7:
	.loc	28 0 29
	movq	-368(%rbp), %rax
	.loc	28 105 29
	movl	%eax, %ecx
	movl	%ecx, -40(%rbp)
	shrq	$32, %rax
	movw	%ax, -36(%rbp)
	movl	-40(%rbp), %eax
	movl	%eax, -104(%rbp)
	movw	-36(%rbp), %ax
	movw	%ax, -100(%rbp)
	movzwl	-104(%rbp), %eax
	cmpq	$0, %rax
	jne	LBB67_9
Ltmp801:
LBB67_8:
	.loc	28 115 6 is_stmt 1
	addq	$400, %rsp
	popq	%rbp
	retq
Ltmp802:
LBB67_9:
	.loc	28 105 14
	movw	-102(%rbp), %ax
	movw	%ax, -372(%rbp)
	movw	%ax, -28(%rbp)
	.loc	28 105 21 is_stmt 0
	movw	-100(%rbp), %cx
	movw	%cx, -370(%rbp)
	movw	%cx, -26(%rbp)
Ltmp803:
	.loc	28 107 16 is_stmt 1
	cmpw	%cx, %ax
	je	LBB67_11
Ltmp804:
	movb	$0, -97(%rbp)
	jmp	LBB67_12
Ltmp805:
LBB67_11:
	.loc	28 0 16 is_stmt 0
	movw	-372(%rbp), %ax
	.loc	28 107 32
	cmpw	$-1, %ax
	sete	%al
	.loc	28 107 16
	andb	$1, %al
	movb	%al, -97(%rbp)
Ltmp806:
LBB67_12:
	testb	$1, -97(%rbp)
	jne	LBB67_8
Ltmp807:
	.loc	28 0 16
	movw	-370(%rbp), %ax
	movw	-372(%rbp), %cx
	.loc	28 111 31 is_stmt 1
	movw	%cx, %di
	movw	%ax, %si
Ltmp780:
	callq	__ZN4core3ops5range25RangeInclusive$LT$Idx$GT$3new17hde83013d7b639802E
Ltmp781:
	movq	%rax, -384(%rbp)
	jmp	LBB67_14
Ltmp808:
LBB67_14:
	.loc	28 0 31 is_stmt 0
	movq	-384(%rbp), %rax
	.loc	28 111 31
	movl	%eax, %ecx
	movl	%ecx, -24(%rbp)
	shrq	$32, %rax
	movw	%ax, -20(%rbp)
	movw	-20(%rbp), %ax
	movw	%ax, -84(%rbp)
	movl	-24(%rbp), %eax
	movl	%eax, -88(%rbp)
	movl	-88(%rbp), %eax
	movl	%eax, %edi
	movzwl	-84(%rbp), %eax
	shlq	$32, %rax
	orq	%rax, %rdi
Ltmp782:
	callq	__ZN63_$LT$I$u20$as$u20$core..iter..traits..collect..IntoIterator$GT$9into_iter17h77bff5e79246136bE
Ltmp783:
	movq	%rax, -392(%rbp)
	jmp	LBB67_15
Ltmp809:
LBB67_15:
	.loc	28 0 31
	movq	-392(%rbp), %rax
	.loc	28 111 31
	movl	%eax, %ecx
	movl	%ecx, -16(%rbp)
	shrq	$32, %rax
	movw	%ax, -12(%rbp)
	movl	-16(%rbp), %eax
	movl	%eax, -96(%rbp)
	movw	-12(%rbp), %ax
	movw	%ax, -92(%rbp)
	movl	-96(%rbp), %eax
	movl	%eax, -80(%rbp)
	movw	-92(%rbp), %ax
	movw	%ax, -76(%rbp)
Ltmp810:
LBB67_16:
Ltmp784:
	.loc	28 0 31
	leaq	-80(%rbp), %rdi
Ltmp811:
	.loc	28 111 31
	callq	__ZN4core4iter5range110_$LT$impl$u20$core..iter..traits..iterator..Iterator$u20$for$u20$core..ops..range..RangeInclusive$LT$A$GT$$GT$4next17h0f51f5956e06b522E
Ltmp785:
	movw	%dx, -396(%rbp)
	movw	%ax, -394(%rbp)
	jmp	LBB67_17
Ltmp812:
LBB67_17:
	.loc	28 0 31
	movw	-396(%rbp), %ax
	movw	-394(%rbp), %cx
	.loc	28 111 31
	movw	%cx, -72(%rbp)
	movw	%ax, -70(%rbp)
	movzwl	-72(%rbp), %eax
	cmpq	$0, %rax
	je	LBB67_6
Ltmp813:
	.loc	28 111 17
	movw	-70(%rbp), %ax
	movw	%ax, -4(%rbp)
	movw	%ax, -2(%rbp)
Ltmp814:
	.loc	15 54 17 is_stmt 1
	movzwl	%ax, %eax
	movl	%eax, -400(%rbp)
Ltmp815:
	.loc	15 0 17 is_stmt 0
	movq	-352(%rbp), %rdi
	movl	-400(%rbp), %eax
	.loc	28 112 17 is_stmt 1
	movl	%eax, -68(%rbp)
	movl	-68(%rbp), %esi
Ltmp786:
	callq	__ZN64_$LT$ab_glyph..ttfp..FontRef$u20$as$u20$ab_glyph..font..Font$GT$13codepoint_ids28_$u7b$$u7b$closure$u7d$$u7d$28_$u7b$$u7b$closure$u7d$$u7d$17h86c4e7df4d016022E
Ltmp787:
	jmp	LBB67_20
Ltmp816:
LBB67_20:
	jmp	LBB67_16
Ltmp817:
Lfunc_end67:
	.cfi_endproc
	.section	__TEXT,__gcc_except_tab
	.p2align	2
GCC_except_table67:
Lexception18:
	.byte	255
	.byte	255
	.byte	1
	.uleb128 Lcst_end18-Lcst_begin18
Lcst_begin18:
	.uleb128 Ltmp772-Lfunc_begin67
	.uleb128 Ltmp773-Ltmp772
	.uleb128 Ltmp788-Lfunc_begin67
	.byte	0
	.uleb128 Ltmp773-Lfunc_begin67
	.uleb128 Ltmp774-Ltmp773
	.byte	0
	.byte	0
	.uleb128 Ltmp774-Lfunc_begin67
	.uleb128 Ltmp777-Ltmp774
	.uleb128 Ltmp788-Lfunc_begin67
	.byte	0
	.uleb128 Ltmp777-Lfunc_begin67
	.uleb128 Ltmp778-Ltmp777
	.byte	0
	.byte	0
	.uleb128 Ltmp778-Lfunc_begin67
	.uleb128 Ltmp787-Ltmp778
	.uleb128 Ltmp788-Lfunc_begin67
	.byte	0
Lcst_end18:
	.p2align	2

	.section	__TEXT,__text,regular,pure_instructions
	.globl	__ZN10ttf_parser6tables4cmap7format49Subtable410codepoints17hbe6f10ac460d99fdE
	.p2align	4, 0x90
__ZN10ttf_parser6tables4cmap7format49Subtable410codepoints17hbe6f10ac460d99fdE:
Lfunc_begin68:
	.loc	28 104 0
	.cfi_startproc
	.cfi_personality 155, _rust_eh_personality
	.cfi_lsda 16, Lexception19
	pushq	%rbp
	.cfi_def_cfa_offset 16
	.cfi_offset %rbp, -16
	movq	%rsp, %rbp
	.cfi_def_cfa_register %rbp
	subq	$400, %rsp
	movq	%rdi, -360(%rbp)
	movq	%rsi, -352(%rbp)
Ltmp835:
	movq	%rdi, -64(%rbp)
Ltmp836:
	.loc	28 105 29 prologue_end
	movq	(%rdi), %rsi
Ltmp837:
	movq	8(%rdi), %rdx
Ltmp818:
	leaq	-200(%rbp), %rdi
	callq	__ZN102_$LT$ttf_parser..parser..LazyArray16$LT$T$GT$$u20$as$u20$core..iter..traits..collect..IntoIterator$GT$9into_iter17hab2f6fba9b6798e1E
Ltmp819:
Ltmp838:
	jmp	LBB68_3
Ltmp839:
LBB68_1:
	.loc	28 104 5
	movq	-56(%rbp), %rdi
	callq	__Unwind_Resume
Ltmp840:
LBB68_2:
Ltmp834:
	.loc	28 0 5 is_stmt 0
	movq	%rax, %rcx
	movl	%edx, %eax
	movq	%rcx, -56(%rbp)
	movl	%eax, -48(%rbp)
	jmp	LBB68_1
Ltmp841:
LBB68_3:
	movq	-360(%rbp), %rax
	.loc	28 105 62 is_stmt 1
	movq	16(%rax), %rdx
	movq	24(%rax), %rcx
Ltmp820:
	leaq	-272(%rbp), %rdi
	leaq	-200(%rbp), %rsi
	.loc	28 105 29 is_stmt 0
	callq	__ZN4core4iter6traits8iterator8Iterator3zip17heb85326d683cd3c2E
Ltmp821:
	jmp	LBB68_4
Ltmp842:
LBB68_4:
Ltmp822:
	.loc	28 0 29
	leaq	-344(%rbp), %rdi
	leaq	-272(%rbp), %rsi
	.loc	28 105 29
	callq	__ZN63_$LT$I$u20$as$u20$core..iter..traits..collect..IntoIterator$GT$9into_iter17h23a5eb27cb12f502E
Ltmp823:
	jmp	LBB68_5
Ltmp843:
LBB68_5:
	leaq	-176(%rbp), %rdi
	leaq	-344(%rbp), %rsi
	movl	$72, %edx
	callq	_memcpy
Ltmp844:
LBB68_6:
Ltmp824:
	.loc	28 0 29
	leaq	-176(%rbp), %rdi
Ltmp845:
	.loc	28 105 29
	callq	__ZN102_$LT$core..iter..adapters..zip..Zip$LT$A$C$B$GT$$u20$as$u20$core..iter..traits..iterator..Iterator$GT$4next17hf644bf810bb4ad22E
Ltmp825:
	movq	%rax, -368(%rbp)
	jmp	LBB68_7
Ltmp846:
LBB68_7:
	.loc	28 0 29
	movq	-368(%rbp), %rax
	.loc	28 105 29
	movl	%eax, %ecx
	movl	%ecx, -40(%rbp)
	shrq	$32, %rax
	movw	%ax, -36(%rbp)
	movl	-40(%rbp), %eax
	movl	%eax, -104(%rbp)
	movw	-36(%rbp), %ax
	movw	%ax, -100(%rbp)
	movzwl	-104(%rbp), %eax
	cmpq	$0, %rax
	jne	LBB68_9
Ltmp847:
LBB68_8:
	.loc	28 115 6 is_stmt 1
	addq	$400, %rsp
	popq	%rbp
	retq
Ltmp848:
LBB68_9:
	.loc	28 105 14
	movw	-102(%rbp), %ax
	movw	%ax, -372(%rbp)
	movw	%ax, -28(%rbp)
	.loc	28 105 21 is_stmt 0
	movw	-100(%rbp), %cx
	movw	%cx, -370(%rbp)
	movw	%cx, -26(%rbp)
Ltmp849:
	.loc	28 107 16 is_stmt 1
	cmpw	%cx, %ax
	je	LBB68_11
Ltmp850:
	movb	$0, -97(%rbp)
	jmp	LBB68_12
Ltmp851:
LBB68_11:
	.loc	28 0 16 is_stmt 0
	movw	-372(%rbp), %ax
	.loc	28 107 32
	cmpw	$-1, %ax
	sete	%al
	.loc	28 107 16
	andb	$1, %al
	movb	%al, -97(%rbp)
Ltmp852:
LBB68_12:
	testb	$1, -97(%rbp)
	jne	LBB68_8
Ltmp853:
	.loc	28 0 16
	movw	-370(%rbp), %ax
	movw	-372(%rbp), %cx
	.loc	28 111 31 is_stmt 1
	movw	%cx, %di
	movw	%ax, %si
Ltmp826:
	callq	__ZN4core3ops5range25RangeInclusive$LT$Idx$GT$3new17hde83013d7b639802E
Ltmp827:
	movq	%rax, -384(%rbp)
	jmp	LBB68_14
Ltmp854:
LBB68_14:
	.loc	28 0 31 is_stmt 0
	movq	-384(%rbp), %rax
	.loc	28 111 31
	movl	%eax, %ecx
	movl	%ecx, -24(%rbp)
	shrq	$32, %rax
	movw	%ax, -20(%rbp)
	movw	-20(%rbp), %ax
	movw	%ax, -84(%rbp)
	movl	-24(%rbp), %eax
	movl	%eax, -88(%rbp)
	movl	-88(%rbp), %eax
	movl	%eax, %edi
	movzwl	-84(%rbp), %eax
	shlq	$32, %rax
	orq	%rax, %rdi
Ltmp828:
	callq	__ZN63_$LT$I$u20$as$u20$core..iter..traits..collect..IntoIterator$GT$9into_iter17h77bff5e79246136bE
Ltmp829:
	movq	%rax, -392(%rbp)
	jmp	LBB68_15
Ltmp855:
LBB68_15:
	.loc	28 0 31
	movq	-392(%rbp), %rax
	.loc	28 111 31
	movl	%eax, %ecx
	movl	%ecx, -16(%rbp)
	shrq	$32, %rax
	movw	%ax, -12(%rbp)
	movl	-16(%rbp), %eax
	movl	%eax, -96(%rbp)
	movw	-12(%rbp), %ax
	movw	%ax, -92(%rbp)
	movl	-96(%rbp), %eax
	movl	%eax, -80(%rbp)
	movw	-92(%rbp), %ax
	movw	%ax, -76(%rbp)
Ltmp856:
LBB68_16:
Ltmp830:
	.loc	28 0 31
	leaq	-80(%rbp), %rdi
Ltmp857:
	.loc	28 111 31
	callq	__ZN4core4iter5range110_$LT$impl$u20$core..iter..traits..iterator..Iterator$u20$for$u20$core..ops..range..RangeInclusive$LT$A$GT$$GT$4next17h0f51f5956e06b522E
Ltmp831:
	movw	%dx, -396(%rbp)
	movw	%ax, -394(%rbp)
	jmp	LBB68_17
Ltmp858:
LBB68_17:
	.loc	28 0 31
	movw	-396(%rbp), %ax
	movw	-394(%rbp), %cx
	.loc	28 111 31
	movw	%cx, -72(%rbp)
	movw	%ax, -70(%rbp)
	movzwl	-72(%rbp), %eax
	cmpq	$0, %rax
	je	LBB68_6
Ltmp859:
	.loc	28 111 17
	movw	-70(%rbp), %ax
	movw	%ax, -4(%rbp)
	movw	%ax, -2(%rbp)
Ltmp860:
	.loc	15 54 17 is_stmt 1
	movzwl	%ax, %eax
	movl	%eax, -400(%rbp)
Ltmp861:
	.loc	15 0 17 is_stmt 0
	movq	-352(%rbp), %rdi
	movl	-400(%rbp), %eax
	.loc	28 112 17 is_stmt 1
	movl	%eax, -68(%rbp)
	movl	-68(%rbp), %esi
Ltmp832:
	callq	__ZN64_$LT$ab_glyph..ttfp..FontVec$u20$as$u20$ab_glyph..font..Font$GT$13codepoint_ids28_$u7b$$u7b$closure$u7d$$u7d$28_$u7b$$u7b$closure$u7d$$u7d$17he50d69d0dc60a6ebE
Ltmp833:
	jmp	LBB68_20
Ltmp862:
LBB68_20:
	jmp	LBB68_16
Ltmp863:
Lfunc_end68:
	.cfi_endproc
	.section	__TEXT,__gcc_except_tab
	.p2align	2
GCC_except_table68:
Lexception19:
	.byte	255
	.byte	255
	.byte	1
	.uleb128 Lcst_end19-Lcst_begin19
Lcst_begin19:
	.uleb128 Ltmp818-Lfunc_begin68
	.uleb128 Ltmp819-Ltmp818
	.uleb128 Ltmp834-Lfunc_begin68
	.byte	0
	.uleb128 Ltmp819-Lfunc_begin68
	.uleb128 Ltmp820-Ltmp819
	.byte	0
	.byte	0
	.uleb128 Ltmp820-Lfunc_begin68
	.uleb128 Ltmp823-Ltmp820
	.uleb128 Ltmp834-Lfunc_begin68
	.byte	0
	.uleb128 Ltmp823-Lfunc_begin68
	.uleb128 Ltmp824-Ltmp823
	.byte	0
	.byte	0
	.uleb128 Ltmp824-Lfunc_begin68
	.uleb128 Ltmp833-Ltmp824
	.uleb128 Ltmp834-Lfunc_begin68
	.byte	0
Lcst_end19:
	.p2align	2

	.section	__TEXT,__text,regular,pure_instructions
	.globl	__ZN10ttf_parser6tables4cmap7format69Subtable610codepoints17h5e3ddbcf4f682a08E
	.p2align	4, 0x90
__ZN10ttf_parser6tables4cmap7format69Subtable610codepoints17h5e3ddbcf4f682a08E:
Lfunc_begin69:
	.file	29 "/Users/natalie/.cargo/registry/src/github.com-1ecc6299db9ec823/ttf-parser-0.17.1/src/tables/cmap" "format6.rs"
	.loc	29 43 0
	.cfi_startproc
	.cfi_personality 155, _rust_eh_personality
	.cfi_lsda 16, Lexception20
	pushq	%rbp
	.cfi_def_cfa_offset 16
	.cfi_offset %rbp, -16
	movq	%rsp, %rbp
	.cfi_def_cfa_register %rbp
	subq	$112, %rsp
	movq	%rdi, -88(%rbp)
	movq	%rsi, -80(%rbp)
Ltmp875:
	movq	%rdi, -32(%rbp)
Ltmp864:
Ltmp876:
	.loc	29 44 21 prologue_end
	callq	__ZN10ttf_parser6parser20LazyArray16$LT$T$GT$3len17h762bec56063b27c1E
Ltmp877:
Ltmp865:
	.loc	29 0 21 is_stmt 0
	movw	%ax, -66(%rbp)
Ltmp878:
	.loc	29 44 21
	jmp	LBB69_3
Ltmp879:
LBB69_1:
	.loc	29 43 5 is_stmt 1
	movq	-24(%rbp), %rdi
	callq	__Unwind_Resume
Ltmp880:
LBB69_2:
Ltmp874:
	.loc	29 0 5 is_stmt 0
	movq	%rax, %rcx
	movl	%edx, %eax
	movq	%rcx, -24(%rbp)
	movl	%eax, -16(%rbp)
	jmp	LBB69_1
Ltmp881:
LBB69_3:
	movw	-66(%rbp), %ax
	.loc	29 44 18 is_stmt 1
	movw	$0, -64(%rbp)
	movw	%ax, -62(%rbp)
	movzwl	-62(%rbp), %esi
	movzwl	-64(%rbp), %edi
Ltmp866:
	callq	__ZN63_$LT$I$u20$as$u20$core..iter..traits..collect..IntoIterator$GT$9into_iter17h6c1ebcdea001fb04E
Ltmp867:
	movw	%dx, -92(%rbp)
	movw	%ax, -90(%rbp)
	jmp	LBB69_4
Ltmp882:
LBB69_4:
	.loc	29 0 18 is_stmt 0
	movw	-92(%rbp), %ax
	movw	-90(%rbp), %cx
	.loc	29 44 18
	movw	%cx, -56(%rbp)
	movw	%ax, -54(%rbp)
Ltmp883:
LBB69_5:
Ltmp868:
	.loc	29 0 18
	leaq	-56(%rbp), %rdi
Ltmp884:
	.loc	29 44 18
	callq	__ZN4core4iter5range101_$LT$impl$u20$core..iter..traits..iterator..Iterator$u20$for$u20$core..ops..range..Range$LT$A$GT$$GT$4next17hcd4f5e007c22b019E
Ltmp869:
	movw	%dx, -96(%rbp)
	movw	%ax, -94(%rbp)
	jmp	LBB69_6
Ltmp885:
LBB69_6:
	.loc	29 0 18
	movw	-96(%rbp), %ax
	movw	-94(%rbp), %cx
	.loc	29 44 18
	movw	%cx, -48(%rbp)
	movw	%ax, -46(%rbp)
	movzwl	-48(%rbp), %eax
	cmpq	$0, %rax
	jne	LBB69_8
Ltmp886:
	.loc	29 49 6 is_stmt 1
	addq	$112, %rsp
	popq	%rbp
	retq
Ltmp887:
LBB69_8:
	.loc	29 0 6 is_stmt 0
	movq	-88(%rbp), %rax
Ltmp888:
	.loc	29 45 39 is_stmt 1
	movzwl	-46(%rbp), %esi
Ltmp889:
	.loc	29 44 13
	movw	%si, %cx
	movw	%cx, -6(%rbp)
Ltmp890:
	.loc	29 45 39
	movl	16(%rax), %edi
Ltmp870:
	callq	__ZN4core3num21_$LT$impl$u20$u16$GT$11checked_add17h57ae7eefe4af90daE
Ltmp871:
	movw	%dx, -100(%rbp)
	movw	%ax, -98(%rbp)
	jmp	LBB69_9
Ltmp891:
LBB69_9:
	.loc	29 0 39 is_stmt 0
	movw	-100(%rbp), %ax
	movw	-98(%rbp), %cx
	.loc	29 45 39
	movw	%cx, -40(%rbp)
	movw	%ax, -38(%rbp)
	.loc	29 45 20
	movzwl	-40(%rbp), %eax
	cmpq	$1, %rax
	jne	LBB69_5
Ltmp892:
	.loc	29 45 25
	movw	-38(%rbp), %ax
	movw	%ax, -4(%rbp)
	movw	%ax, -2(%rbp)
Ltmp893:
	.loc	15 54 17 is_stmt 1
	movzwl	%ax, %eax
	movl	%eax, -104(%rbp)
Ltmp894:
	.loc	15 0 17 is_stmt 0
	movq	-80(%rbp), %rdi
	movl	-104(%rbp), %eax
	.loc	29 46 17 is_stmt 1
	movl	%eax, -36(%rbp)
	movl	-36(%rbp), %esi
Ltmp872:
	callq	__ZN64_$LT$ab_glyph..ttfp..FontRef$u20$as$u20$ab_glyph..font..Font$GT$13codepoint_ids28_$u7b$$u7b$closure$u7d$$u7d$28_$u7b$$u7b$closure$u7d$$u7d$17h86c4e7df4d016022E
Ltmp873:
	jmp	LBB69_12
Ltmp895:
LBB69_12:
	jmp	LBB69_5
Ltmp896:
Lfunc_end69:
	.cfi_endproc
	.section	__TEXT,__gcc_except_tab
	.p2align	2
GCC_except_table69:
Lexception20:
	.byte	255
	.byte	255
	.byte	1
	.uleb128 Lcst_end20-Lcst_begin20
Lcst_begin20:
	.uleb128 Ltmp864-Lfunc_begin69
	.uleb128 Ltmp865-Ltmp864
	.uleb128 Ltmp874-Lfunc_begin69
	.byte	0
	.uleb128 Ltmp865-Lfunc_begin69
	.uleb128 Ltmp866-Ltmp865
	.byte	0
	.byte	0
	.uleb128 Ltmp866-Lfunc_begin69
	.uleb128 Ltmp873-Ltmp866
	.uleb128 Ltmp874-Lfunc_begin69
	.byte	0
Lcst_end20:
	.p2align	2

	.section	__TEXT,__text,regular,pure_instructions
	.globl	__ZN10ttf_parser6tables4cmap7format69Subtable610codepoints17he2dbd769da40c8dfE
	.p2align	4, 0x90
__ZN10ttf_parser6tables4cmap7format69Subtable610codepoints17he2dbd769da40c8dfE:
Lfunc_begin70:
	.loc	29 43 0
	.cfi_startproc
	.cfi_personality 155, _rust_eh_personality
	.cfi_lsda 16, Lexception21
	pushq	%rbp
	.cfi_def_cfa_offset 16
	.cfi_offset %rbp, -16
	movq	%rsp, %rbp
	.cfi_def_cfa_register %rbp
	subq	$112, %rsp
	movq	%rdi, -88(%rbp)
	movq	%rsi, -80(%rbp)
Ltmp908:
	movq	%rdi, -32(%rbp)
Ltmp897:
Ltmp909:
	.loc	29 44 21 prologue_end
	callq	__ZN10ttf_parser6parser20LazyArray16$LT$T$GT$3len17h762bec56063b27c1E
Ltmp910:
Ltmp898:
	.loc	29 0 21 is_stmt 0
	movw	%ax, -66(%rbp)
Ltmp911:
	.loc	29 44 21
	jmp	LBB70_3
Ltmp912:
LBB70_1:
	.loc	29 43 5 is_stmt 1
	movq	-24(%rbp), %rdi
	callq	__Unwind_Resume
Ltmp913:
LBB70_2:
Ltmp907:
	.loc	29 0 5 is_stmt 0
	movq	%rax, %rcx
	movl	%edx, %eax
	movq	%rcx, -24(%rbp)
	movl	%eax, -16(%rbp)
	jmp	LBB70_1
Ltmp914:
LBB70_3:
	movw	-66(%rbp), %ax
	.loc	29 44 18 is_stmt 1
	movw	$0, -64(%rbp)
	movw	%ax, -62(%rbp)
	movzwl	-62(%rbp), %esi
	movzwl	-64(%rbp), %edi
Ltmp899:
	callq	__ZN63_$LT$I$u20$as$u20$core..iter..traits..collect..IntoIterator$GT$9into_iter17h6c1ebcdea001fb04E
Ltmp900:
	movw	%dx, -92(%rbp)
	movw	%ax, -90(%rbp)
	jmp	LBB70_4
Ltmp915:
LBB70_4:
	.loc	29 0 18 is_stmt 0
	movw	-92(%rbp), %ax
	movw	-90(%rbp), %cx
	.loc	29 44 18
	movw	%cx, -56(%rbp)
	movw	%ax, -54(%rbp)
Ltmp916:
LBB70_5:
Ltmp901:
	.loc	29 0 18
	leaq	-56(%rbp), %rdi
Ltmp917:
	.loc	29 44 18
	callq	__ZN4core4iter5range101_$LT$impl$u20$core..iter..traits..iterator..Iterator$u20$for$u20$core..ops..range..Range$LT$A$GT$$GT$4next17hcd4f5e007c22b019E
Ltmp902:
	movw	%dx, -96(%rbp)
	movw	%ax, -94(%rbp)
	jmp	LBB70_6
Ltmp918:
LBB70_6:
	.loc	29 0 18
	movw	-96(%rbp), %ax
	movw	-94(%rbp), %cx
	.loc	29 44 18
	movw	%cx, -48(%rbp)
	movw	%ax, -46(%rbp)
	movzwl	-48(%rbp), %eax
	cmpq	$0, %rax
	jne	LBB70_8
Ltmp919:
	.loc	29 49 6 is_stmt 1
	addq	$112, %rsp
	popq	%rbp
	retq
Ltmp920:
LBB70_8:
	.loc	29 0 6 is_stmt 0
	movq	-88(%rbp), %rax
Ltmp921:
	.loc	29 45 39 is_stmt 1
	movzwl	-46(%rbp), %esi
Ltmp922:
	.loc	29 44 13
	movw	%si, %cx
	movw	%cx, -6(%rbp)
Ltmp923:
	.loc	29 45 39
	movl	16(%rax), %edi
Ltmp903:
	callq	__ZN4core3num21_$LT$impl$u20$u16$GT$11checked_add17h57ae7eefe4af90daE
Ltmp904:
	movw	%dx, -100(%rbp)
	movw	%ax, -98(%rbp)
	jmp	LBB70_9
Ltmp924:
LBB70_9:
	.loc	29 0 39 is_stmt 0
	movw	-100(%rbp), %ax
	movw	-98(%rbp), %cx
	.loc	29 45 39
	movw	%cx, -40(%rbp)
	movw	%ax, -38(%rbp)
	.loc	29 45 20
	movzwl	-40(%rbp), %eax
	cmpq	$1, %rax
	jne	LBB70_5
Ltmp925:
	.loc	29 45 25
	movw	-38(%rbp), %ax
	movw	%ax, -4(%rbp)
	movw	%ax, -2(%rbp)
Ltmp926:
	.loc	15 54 17 is_stmt 1
	movzwl	%ax, %eax
	movl	%eax, -104(%rbp)
Ltmp927:
	.loc	15 0 17 is_stmt 0
	movq	-80(%rbp), %rdi
	movl	-104(%rbp), %eax
	.loc	29 46 17 is_stmt 1
	movl	%eax, -36(%rbp)
	movl	-36(%rbp), %esi
Ltmp905:
	callq	__ZN64_$LT$ab_glyph..ttfp..FontVec$u20$as$u20$ab_glyph..font..Font$GT$13codepoint_ids28_$u7b$$u7b$closure$u7d$$u7d$28_$u7b$$u7b$closure$u7d$$u7d$17he50d69d0dc60a6ebE
Ltmp906:
	jmp	LBB70_12
Ltmp928:
LBB70_12:
	jmp	LBB70_5
Ltmp929:
Lfunc_end70:
	.cfi_endproc
	.section	__TEXT,__gcc_except_tab
	.p2align	2
GCC_except_table70:
Lexception21:
	.byte	255
	.byte	255
	.byte	1
	.uleb128 Lcst_end21-Lcst_begin21
Lcst_begin21:
	.uleb128 Ltmp897-Lfunc_begin70
	.uleb128 Ltmp898-Ltmp897
	.uleb128 Ltmp907-Lfunc_begin70
	.byte	0
	.uleb128 Ltmp898-Lfunc_begin70
	.uleb128 Ltmp899-Ltmp898
	.byte	0
	.byte	0
	.uleb128 Ltmp899-Lfunc_begin70
	.uleb128 Ltmp906-Ltmp899
	.uleb128 Ltmp907-Lfunc_begin70
	.byte	0
Lcst_end21:
	.p2align	2

	.section	__TEXT,__text,regular,pure_instructions
	.globl	__ZN10ttf_parser6tables4cmap8Subtable10codepoints17hb70254b3195ffc42E
	.p2align	4, 0x90
__ZN10ttf_parser6tables4cmap8Subtable10codepoints17hb70254b3195ffc42E:
Lfunc_begin71:
	.file	30 "/Users/natalie/.cargo/registry/src/github.com-1ecc6299db9ec823/ttf-parser-0.17.1/src/tables/cmap" "mod.rs"
	.loc	30 145 0
	.cfi_startproc
	pushq	%rbp
	.cfi_def_cfa_offset 16
	.cfi_offset %rbp, -16
	movq	%rsp, %rbp
	.cfi_def_cfa_register %rbp
	subq	$272, %rsp
	movq	%rdi, -264(%rbp)
	movq	%rsi, -256(%rbp)
Ltmp930:
	movq	%rdi, -64(%rbp)
Ltmp931:
	.loc	30 146 9 prologue_end
	movb	$0, -65(%rbp)
	movb	$1, -65(%rbp)
	.loc	30 146 15 is_stmt 0
	movq	(%rdi), %rax
	movq	%rax, -248(%rbp)
Ltmp932:
	.loc	30 0 15
	movq	-248(%rbp), %rax
	leaq	LJTI71_0(%rip), %rcx
	movslq	(%rcx,%rax,4), %rax
	addq	%rcx, %rax
	jmpq	*%rax
Ltmp933:
	.loc	30 146 15
	ud2
LBB71_2:
Ltmp934:
	.loc	30 0 15
	movq	-256(%rbp), %rax
	movq	-264(%rbp), %rdi
	.loc	30 147 39 is_stmt 1
	addq	$8, %rdi
	movq	%rdi, -8(%rbp)
Ltmp935:
	.loc	30 147 76 is_stmt 0
	movb	$0, -65(%rbp)
	movq	(%rax), %rcx
	movq	%rcx, -240(%rbp)
	movq	8(%rax), %rcx
	movq	%rcx, -232(%rbp)
	movq	16(%rax), %rax
	movq	%rax, -224(%rbp)
	.loc	30 147 56
	leaq	-240(%rbp), %rsi
	callq	__ZN10ttf_parser6tables4cmap7format09Subtable010codepoints17h6a8a6f9a00bca312E
	jmp	LBB71_6
Ltmp936:
LBB71_3:
	.loc	30 0 56
	movq	-256(%rbp), %rax
	movq	-264(%rbp), %rdi
	.loc	30 148 49 is_stmt 1
	addq	$8, %rdi
	movq	%rdi, -16(%rbp)
Ltmp937:
	.loc	30 148 86 is_stmt 0
	movb	$0, -65(%rbp)
	movq	(%rax), %rcx
	movq	%rcx, -216(%rbp)
	movq	8(%rax), %rcx
	movq	%rcx, -208(%rbp)
	movq	16(%rax), %rax
	movq	%rax, -200(%rbp)
	.loc	30 148 66
	leaq	-216(%rbp), %rsi
	callq	__ZN10ttf_parser6tables4cmap7format29Subtable210codepoints17hda8a92eb2d2e0db1E
	jmp	LBB71_6
Ltmp938:
LBB71_4:
	.loc	30 0 66
	movq	-256(%rbp), %rax
	movq	-264(%rbp), %rdi
	.loc	30 149 49 is_stmt 1
	addq	$8, %rdi
	movq	%rdi, -24(%rbp)
Ltmp939:
	.loc	30 149 86 is_stmt 0
	movb	$0, -65(%rbp)
	movq	(%rax), %rcx
	movq	%rcx, -192(%rbp)
	movq	8(%rax), %rcx
	movq	%rcx, -184(%rbp)
	movq	16(%rax), %rax
	movq	%rax, -176(%rbp)
	.loc	30 149 66
	leaq	-192(%rbp), %rsi
	callq	__ZN10ttf_parser6tables4cmap7format49Subtable410codepoints17hbe6f10ac460d99fdE
	jmp	LBB71_6
Ltmp940:
LBB71_5:
	.loc	30 0 66
	movq	-256(%rbp), %rax
	movq	-264(%rbp), %rdi
	.loc	30 150 41 is_stmt 1
	addq	$8, %rdi
	movq	%rdi, -32(%rbp)
Ltmp941:
	.loc	30 150 78 is_stmt 0
	movb	$0, -65(%rbp)
	movq	(%rax), %rcx
	movq	%rcx, -168(%rbp)
	movq	8(%rax), %rcx
	movq	%rcx, -160(%rbp)
	movq	16(%rax), %rax
	movq	%rax, -152(%rbp)
	.loc	30 150 58
	leaq	-168(%rbp), %rsi
	callq	__ZN10ttf_parser6tables4cmap7format69Subtable610codepoints17he2dbd769da40c8dfE
Ltmp942:
LBB71_6:
	.loc	30 157 5 is_stmt 1
	testb	$1, -65(%rbp)
	jne	LBB71_11
	jmp	LBB71_10
Ltmp943:
LBB71_7:
	.loc	30 0 5 is_stmt 0
	movq	-256(%rbp), %rax
	movq	-264(%rbp), %rdi
	.loc	30 152 34 is_stmt 1
	addq	$8, %rdi
	movq	%rdi, -40(%rbp)
Ltmp944:
	.loc	30 152 71 is_stmt 0
	movb	$0, -65(%rbp)
	movq	(%rax), %rcx
	movq	%rcx, -144(%rbp)
	movq	8(%rax), %rcx
	movq	%rcx, -136(%rbp)
	movq	16(%rax), %rax
	movq	%rax, -128(%rbp)
	.loc	30 152 51
	leaq	-144(%rbp), %rsi
	callq	__ZN10ttf_parser6tables4cmap8format1010Subtable1010codepoints17hc0d38163cbac9533E
	jmp	LBB71_6
Ltmp945:
LBB71_8:
	.loc	30 0 51
	movq	-256(%rbp), %rax
	movq	-264(%rbp), %rdi
	.loc	30 153 39 is_stmt 1
	addq	$8, %rdi
	movq	%rdi, -48(%rbp)
Ltmp946:
	.loc	30 153 76 is_stmt 0
	movb	$0, -65(%rbp)
	movq	(%rax), %rcx
	movq	%rcx, -120(%rbp)
	movq	8(%rax), %rcx
	movq	%rcx, -112(%rbp)
	movq	16(%rax), %rax
	movq	%rax, -104(%rbp)
	.loc	30 153 56
	leaq	-120(%rbp), %rsi
	callq	__ZN10ttf_parser6tables4cmap8format1210Subtable1210codepoints17hb8788852d3bceb44E
	jmp	LBB71_6
Ltmp947:
LBB71_9:
	.loc	30 0 56
	movq	-256(%rbp), %rax
	movq	-264(%rbp), %rdi
	.loc	30 154 44 is_stmt 1
	addq	$8, %rdi
	movq	%rdi, -56(%rbp)
Ltmp948:
	.loc	30 154 81 is_stmt 0
	movb	$0, -65(%rbp)
	movq	(%rax), %rcx
	movq	%rcx, -96(%rbp)
	movq	8(%rax), %rcx
	movq	%rcx, -88(%rbp)
	movq	16(%rax), %rax
	movq	%rax, -80(%rbp)
	.loc	30 154 61
	leaq	-96(%rbp), %rsi
	callq	__ZN10ttf_parser6tables4cmap8format1310Subtable1310codepoints17h71636b502b2e95beE
	jmp	LBB71_6
Ltmp949:
LBB71_10:
	.loc	30 157 6 is_stmt 1
	addq	$272, %rsp
	popq	%rbp
	retq
Ltmp950:
LBB71_11:
	.loc	30 157 5 is_stmt 0
	jmp	LBB71_10
Ltmp951:
Lfunc_end71:
	.cfi_endproc
	.p2align	2, 0x90
	.data_region jt32
.set L71_0_set_2, LBB71_2-LJTI71_0
.set L71_0_set_3, LBB71_3-LJTI71_0
.set L71_0_set_4, LBB71_4-LJTI71_0
.set L71_0_set_5, LBB71_5-LJTI71_0
.set L71_0_set_6, LBB71_6-LJTI71_0
.set L71_0_set_7, LBB71_7-LJTI71_0
.set L71_0_set_8, LBB71_8-LJTI71_0
.set L71_0_set_9, LBB71_9-LJTI71_0
LJTI71_0:
	.long	L71_0_set_2
	.long	L71_0_set_3
	.long	L71_0_set_4
	.long	L71_0_set_5
	.long	L71_0_set_6
	.long	L71_0_set_7
	.long	L71_0_set_8
	.long	L71_0_set_9
	.long	L71_0_set_6
	.end_data_region

	.globl	__ZN10ttf_parser6tables4cmap8Subtable10codepoints17hec5aa63743e4ec5eE
	.p2align	4, 0x90
__ZN10ttf_parser6tables4cmap8Subtable10codepoints17hec5aa63743e4ec5eE:
Lfunc_begin72:
	.loc	30 145 0 is_stmt 1
	.cfi_startproc
	pushq	%rbp
	.cfi_def_cfa_offset 16
	.cfi_offset %rbp, -16
	movq	%rsp, %rbp
	.cfi_def_cfa_register %rbp
	subq	$272, %rsp
	movq	%rdi, -264(%rbp)
	movq	%rsi, -256(%rbp)
Ltmp952:
	movq	%rdi, -64(%rbp)
Ltmp953:
	.loc	30 146 9 prologue_end
	movb	$0, -65(%rbp)
	movb	$1, -65(%rbp)
	.loc	30 146 15 is_stmt 0
	movq	(%rdi), %rax
	movq	%rax, -248(%rbp)
Ltmp954:
	.loc	30 0 15
	movq	-248(%rbp), %rax
	leaq	LJTI72_0(%rip), %rcx
	movslq	(%rcx,%rax,4), %rax
	addq	%rcx, %rax
	jmpq	*%rax
Ltmp955:
	.loc	30 146 15
	ud2
LBB72_2:
Ltmp956:
	.loc	30 0 15
	movq	-256(%rbp), %rax
	movq	-264(%rbp), %rdi
	.loc	30 147 39 is_stmt 1
	addq	$8, %rdi
	movq	%rdi, -8(%rbp)
Ltmp957:
	.loc	30 147 76 is_stmt 0
	movb	$0, -65(%rbp)
	movq	(%rax), %rcx
	movq	%rcx, -240(%rbp)
	movq	8(%rax), %rcx
	movq	%rcx, -232(%rbp)
	movq	16(%rax), %rax
	movq	%rax, -224(%rbp)
	.loc	30 147 56
	leaq	-240(%rbp), %rsi
	callq	__ZN10ttf_parser6tables4cmap7format09Subtable010codepoints17h8585580fee084122E
	jmp	LBB72_6
Ltmp958:
LBB72_3:
	.loc	30 0 56
	movq	-256(%rbp), %rax
	movq	-264(%rbp), %rdi
	.loc	30 148 49 is_stmt 1
	addq	$8, %rdi
	movq	%rdi, -16(%rbp)
Ltmp959:
	.loc	30 148 86 is_stmt 0
	movb	$0, -65(%rbp)
	movq	(%rax), %rcx
	movq	%rcx, -216(%rbp)
	movq	8(%rax), %rcx
	movq	%rcx, -208(%rbp)
	movq	16(%rax), %rax
	movq	%rax, -200(%rbp)
	.loc	30 148 66
	leaq	-216(%rbp), %rsi
	callq	__ZN10ttf_parser6tables4cmap7format29Subtable210codepoints17h4c7b484524a5f592E
	jmp	LBB72_6
Ltmp960:
LBB72_4:
	.loc	30 0 66
	movq	-256(%rbp), %rax
	movq	-264(%rbp), %rdi
	.loc	30 149 49 is_stmt 1
	addq	$8, %rdi
	movq	%rdi, -24(%rbp)
Ltmp961:
	.loc	30 149 86 is_stmt 0
	movb	$0, -65(%rbp)
	movq	(%rax), %rcx
	movq	%rcx, -192(%rbp)
	movq	8(%rax), %rcx
	movq	%rcx, -184(%rbp)
	movq	16(%rax), %rax
	movq	%rax, -176(%rbp)
	.loc	30 149 66
	leaq	-192(%rbp), %rsi
	callq	__ZN10ttf_parser6tables4cmap7format49Subtable410codepoints17h16f6f08d6cb64f77E
	jmp	LBB72_6
Ltmp962:
LBB72_5:
	.loc	30 0 66
	movq	-256(%rbp), %rax
	movq	-264(%rbp), %rdi
	.loc	30 150 41 is_stmt 1
	addq	$8, %rdi
	movq	%rdi, -32(%rbp)
Ltmp963:
	.loc	30 150 78 is_stmt 0
	movb	$0, -65(%rbp)
	movq	(%rax), %rcx
	movq	%rcx, -168(%rbp)
	movq	8(%rax), %rcx
	movq	%rcx, -160(%rbp)
	movq	16(%rax), %rax
	movq	%rax, -152(%rbp)
	.loc	30 150 58
	leaq	-168(%rbp), %rsi
	callq	__ZN10ttf_parser6tables4cmap7format69Subtable610codepoints17h5e3ddbcf4f682a08E
Ltmp964:
LBB72_6:
	.loc	30 157 5 is_stmt 1
	testb	$1, -65(%rbp)
	jne	LBB72_11
	jmp	LBB72_10
Ltmp965:
LBB72_7:
	.loc	30 0 5 is_stmt 0
	movq	-256(%rbp), %rax
	movq	-264(%rbp), %rdi
	.loc	30 152 34 is_stmt 1
	addq	$8, %rdi
	movq	%rdi, -40(%rbp)
Ltmp966:
	.loc	30 152 71 is_stmt 0
	movb	$0, -65(%rbp)
	movq	(%rax), %rcx
	movq	%rcx, -144(%rbp)
	movq	8(%rax), %rcx
	movq	%rcx, -136(%rbp)
	movq	16(%rax), %rax
	movq	%rax, -128(%rbp)
	.loc	30 152 51
	leaq	-144(%rbp), %rsi
	callq	__ZN10ttf_parser6tables4cmap8format1010Subtable1010codepoints17hd2708a8d0e0ba11dE
	jmp	LBB72_6
Ltmp967:
LBB72_8:
	.loc	30 0 51
	movq	-256(%rbp), %rax
	movq	-264(%rbp), %rdi
	.loc	30 153 39 is_stmt 1
	addq	$8, %rdi
	movq	%rdi, -48(%rbp)
Ltmp968:
	.loc	30 153 76 is_stmt 0
	movb	$0, -65(%rbp)
	movq	(%rax), %rcx
	movq	%rcx, -120(%rbp)
	movq	8(%rax), %rcx
	movq	%rcx, -112(%rbp)
	movq	16(%rax), %rax
	movq	%rax, -104(%rbp)
	.loc	30 153 56
	leaq	-120(%rbp), %rsi
	callq	__ZN10ttf_parser6tables4cmap8format1210Subtable1210codepoints17h92337ea4224540aeE
	jmp	LBB72_6
Ltmp969:
LBB72_9:
	.loc	30 0 56
	movq	-256(%rbp), %rax
	movq	-264(%rbp), %rdi
	.loc	30 154 44 is_stmt 1
	addq	$8, %rdi
	movq	%rdi, -56(%rbp)
Ltmp970:
	.loc	30 154 81 is_stmt 0
	movb	$0, -65(%rbp)
	movq	(%rax), %rcx
	movq	%rcx, -96(%rbp)
	movq	8(%rax), %rcx
	movq	%rcx, -88(%rbp)
	movq	16(%rax), %rax
	movq	%rax, -80(%rbp)
	.loc	30 154 61
	leaq	-96(%rbp), %rsi
	callq	__ZN10ttf_parser6tables4cmap8format1310Subtable1310codepoints17h55bdb0f76fe2a997E
	jmp	LBB72_6
Ltmp971:
LBB72_10:
	.loc	30 157 6 is_stmt 1
	addq	$272, %rsp
	popq	%rbp
	retq
Ltmp972:
LBB72_11:
	.loc	30 157 5 is_stmt 0
	jmp	LBB72_10
Ltmp973:
Lfunc_end72:
	.cfi_endproc
	.p2align	2, 0x90
	.data_region jt32
.set L72_0_set_2, LBB72_2-LJTI72_0
.set L72_0_set_3, LBB72_3-LJTI72_0
.set L72_0_set_4, LBB72_4-LJTI72_0
.set L72_0_set_5, LBB72_5-LJTI72_0
.set L72_0_set_6, LBB72_6-LJTI72_0
.set L72_0_set_7, LBB72_7-LJTI72_0
.set L72_0_set_8, LBB72_8-LJTI72_0
.set L72_0_set_9, LBB72_9-LJTI72_0
LJTI72_0:
	.long	L72_0_set_2
	.long	L72_0_set_3
	.long	L72_0_set_4
	.long	L72_0_set_5
	.long	L72_0_set_6
	.long	L72_0_set_7
	.long	L72_0_set_8
	.long	L72_0_set_9
	.long	L72_0_set_6
	.end_data_region

	.p2align	4, 0x90
__ZN10ttf_parser6tables4cmap8Subtable10is_unicode17he6c0194fdbe509b5E:
Lfunc_begin73:
	.loc	30 61 0 is_stmt 1
	.cfi_startproc
	pushq	%rbp
	.cfi_def_cfa_offset 16
	.cfi_offset %rbp, -16
	movq	%rsp, %rbp
	.cfi_def_cfa_register %rbp
	subq	$32, %rsp
	movq	%rdi, -32(%rbp)
	movq	%rdi, -8(%rbp)
Ltmp974:
	.loc	30 66 15 prologue_end
	movzbl	98(%rdi), %eax
	movq	%rax, -24(%rbp)
	testq	%rax, %rax
	.loc	30 66 9 is_stmt 0
	je	LBB73_2
	jmp	LBB73_12
LBB73_12:
	.loc	30 0 9
	movq	-24(%rbp), %rax
	.loc	30 66 9
	subq	$3, %rax
	je	LBB73_3
	jmp	LBB73_1
LBB73_1:
	.loc	30 83 18 is_stmt 1
	movb	$0, -10(%rbp)
	jmp	LBB73_4
LBB73_2:
	.loc	30 67 36
	movb	$1, -10(%rbp)
	jmp	LBB73_4
LBB73_3:
	.loc	30 0 36 is_stmt 0
	movq	-32(%rbp), %rax
	.loc	30 68 36 is_stmt 1
	cmpw	$1, 96(%rax)
	je	LBB73_6
	jmp	LBB73_5
LBB73_4:
	.loc	30 85 6
	movb	-10(%rbp), %al
	andb	$1, %al
	movzbl	%al, %eax
	addq	$32, %rsp
	popq	%rbp
	retq
LBB73_5:
	.loc	30 0 6 is_stmt 0
	movq	-32(%rbp), %rax
	.loc	30 73 21 is_stmt 1
	movq	(%rax), %rax
	.loc	30 72 47
	addq	$-6, %rax
	subq	$2, %rax
	jb	LBB73_8
	jmp	LBB73_7
LBB73_6:
	.loc	30 68 91
	movb	$1, -10(%rbp)
	jmp	LBB73_4
LBB73_7:
	.loc	30 72 47
	movb	$0, -9(%rbp)
	jmp	LBB73_9
LBB73_8:
	movb	$1, -9(%rbp)
LBB73_9:
	.loc	30 0 47 is_stmt 0
	movq	-32(%rbp), %rax
Ltmp975:
	.loc	30 80 17 is_stmt 1
	cmpw	$10, 96(%rax)
	je	LBB73_11
	movb	$0, -10(%rbp)
	jmp	LBB73_4
LBB73_11:
	.loc	30 81 24
	movb	-9(%rbp), %al
	.loc	30 80 17
	andb	$1, %al
	movb	%al, -10(%rbp)
	jmp	LBB73_4
Ltmp976:
Lfunc_end73:
	.cfi_endproc

	.p2align	4, 0x90
__ZN10ttf_parser6tables4cmap8Subtable11glyph_index17h6a0cde17f487605bE:
Lfunc_begin74:
	.loc	30 98 0
	.cfi_startproc
	pushq	%rbp
	.cfi_def_cfa_offset 16
	.cfi_offset %rbp, -16
	movq	%rsp, %rbp
	.cfi_def_cfa_register %rbp
	subq	$112, %rsp
	movq	%rdi, -104(%rbp)
	movl	%esi, -92(%rbp)
	movq	%rdi, -72(%rbp)
	movl	%esi, -60(%rbp)
Ltmp977:
	.loc	30 99 15 prologue_end
	movq	(%rdi), %rax
	movq	%rax, -88(%rbp)
	.loc	30 0 15 is_stmt 0
	movq	-88(%rbp), %rax
	leaq	LJTI74_0(%rip), %rcx
	movslq	(%rcx,%rax,4), %rax
	addq	%rcx, %rax
	jmpq	*%rax
	.loc	30 99 15
	ud2
LBB74_2:
	.loc	30 0 15
	movl	-92(%rbp), %esi
	movq	-104(%rbp), %rdi
	.loc	30 100 39 is_stmt 1
	addq	$8, %rdi
	movq	%rdi, -8(%rbp)
Ltmp978:
	.loc	30 100 56 is_stmt 0
	callq	__ZN10ttf_parser6tables4cmap7format09Subtable011glyph_index17haaaeb41a80c44ac2E
	movw	%dx, -78(%rbp)
	movw	%ax, -80(%rbp)
	jmp	LBB74_11
Ltmp979:
LBB74_3:
	.loc	30 0 56
	movl	-92(%rbp), %esi
	movq	-104(%rbp), %rdi
	.loc	30 101 49 is_stmt 1
	addq	$8, %rdi
	movq	%rdi, -16(%rbp)
Ltmp980:
	.loc	30 101 66 is_stmt 0
	callq	__ZN10ttf_parser6tables4cmap7format29Subtable211glyph_index17hc5aa36adeb6ebef1E
	movw	%dx, -78(%rbp)
	movw	%ax, -80(%rbp)
	jmp	LBB74_11
Ltmp981:
LBB74_4:
	.loc	30 0 66
	movl	-92(%rbp), %esi
	movq	-104(%rbp), %rdi
	.loc	30 102 49 is_stmt 1
	addq	$8, %rdi
	movq	%rdi, -24(%rbp)
Ltmp982:
	.loc	30 102 66 is_stmt 0
	callq	__ZN10ttf_parser6tables4cmap7format49Subtable411glyph_index17h969bc06ace60ba51E
	movw	%dx, -78(%rbp)
	movw	%ax, -80(%rbp)
	jmp	LBB74_11
Ltmp983:
LBB74_5:
	.loc	30 0 66
	movl	-92(%rbp), %esi
	movq	-104(%rbp), %rdi
	.loc	30 103 41 is_stmt 1
	addq	$8, %rdi
	movq	%rdi, -32(%rbp)
Ltmp984:
	.loc	30 103 58 is_stmt 0
	callq	__ZN10ttf_parser6tables4cmap7format69Subtable611glyph_index17h1d5a3b4db5a5b923E
	movw	%dx, -78(%rbp)
	movw	%ax, -80(%rbp)
	jmp	LBB74_11
Ltmp985:
LBB74_6:
	.loc	30 104 38 is_stmt 1
	movw	$0, -80(%rbp)
	jmp	LBB74_11
LBB74_7:
	.loc	30 0 38 is_stmt 0
	movl	-92(%rbp), %esi
	movq	-104(%rbp), %rdi
	.loc	30 105 34 is_stmt 1
	addq	$8, %rdi
	movq	%rdi, -40(%rbp)
Ltmp986:
	.loc	30 105 51 is_stmt 0
	callq	__ZN10ttf_parser6tables4cmap8format1010Subtable1011glyph_index17h1ef8d210027b7ef2E
	movw	%dx, -78(%rbp)
	movw	%ax, -80(%rbp)
	jmp	LBB74_11
Ltmp987:
LBB74_8:
	.loc	30 0 51
	movl	-92(%rbp), %esi
	movq	-104(%rbp), %rdi
	.loc	30 106 39 is_stmt 1
	addq	$8, %rdi
	movq	%rdi, -48(%rbp)
Ltmp988:
	.loc	30 106 56 is_stmt 0
	callq	__ZN10ttf_parser6tables4cmap8format1210Subtable1211glyph_index17h7aee99a3999c43e3E
	movw	%dx, -78(%rbp)
	movw	%ax, -80(%rbp)
	jmp	LBB74_11
Ltmp989:
LBB74_9:
	.loc	30 0 56
	movl	-92(%rbp), %esi
	movq	-104(%rbp), %rdi
	.loc	30 107 44 is_stmt 1
	addq	$8, %rdi
	movq	%rdi, -56(%rbp)
Ltmp990:
	.loc	30 107 61 is_stmt 0
	callq	__ZN10ttf_parser6tables4cmap8format1310Subtable1311glyph_index17h003c8cba7efef1d3E
	movw	%dx, -78(%rbp)
	movw	%ax, -80(%rbp)
	jmp	LBB74_11
Ltmp991:
LBB74_10:
	.loc	30 109 53 is_stmt 1
	movw	$0, -80(%rbp)
LBB74_11:
	.loc	30 111 6
	movw	-80(%rbp), %ax
	movw	-78(%rbp), %dx
	addq	$112, %rsp
	popq	%rbp
	retq
Ltmp992:
Lfunc_end74:
	.cfi_endproc
	.p2align	2, 0x90
	.data_region jt32
.set L74_0_set_2, LBB74_2-LJTI74_0
.set L74_0_set_3, LBB74_3-LJTI74_0
.set L74_0_set_4, LBB74_4-LJTI74_0
.set L74_0_set_5, LBB74_5-LJTI74_0
.set L74_0_set_6, LBB74_6-LJTI74_0
.set L74_0_set_7, LBB74_7-LJTI74_0
.set L74_0_set_8, LBB74_8-LJTI74_0
.set L74_0_set_9, LBB74_9-LJTI74_0
.set L74_0_set_10, LBB74_10-LJTI74_0
LJTI74_0:
	.long	L74_0_set_2
	.long	L74_0_set_3
	.long	L74_0_set_4
	.long	L74_0_set_5
	.long	L74_0_set_6
	.long	L74_0_set_7
	.long	L74_0_set_8
	.long	L74_0_set_9
	.long	L74_0_set_10
	.end_data_region

	.globl	__ZN10ttf_parser6tables4cmap8format1010Subtable1010codepoints17hc0d38163cbac9533E
	.p2align	4, 0x90
__ZN10ttf_parser6tables4cmap8format1010Subtable1010codepoints17hc0d38163cbac9533E:
Lfunc_begin75:
	.file	31 "/Users/natalie/.cargo/registry/src/github.com-1ecc6299db9ec823/ttf-parser-0.17.1/src/tables/cmap" "format10.rs"
	.loc	31 38 0
	.cfi_startproc
	.cfi_personality 155, _rust_eh_personality
	.cfi_lsda 16, Lexception22
	pushq	%rbp
	.cfi_def_cfa_offset 16
	.cfi_offset %rbp, -16
	movq	%rsp, %rbp
	.cfi_def_cfa_register %rbp
	subq	$128, %rsp
	movq	%rdi, -96(%rbp)
	movq	%rsi, -88(%rbp)
Ltmp1004:
	movq	%rdi, -32(%rbp)
Ltmp993:
Ltmp1005:
	.loc	31 39 21 prologue_end
	callq	__ZN10ttf_parser6parser20LazyArray32$LT$T$GT$3len17hb1765e9392337c66E
Ltmp1006:
Ltmp994:
	.loc	31 0 21 is_stmt 0
	movl	%eax, -76(%rbp)
Ltmp1007:
	.loc	31 39 21
	jmp	LBB75_3
Ltmp1008:
LBB75_1:
	.loc	31 38 5 is_stmt 1
	movq	-24(%rbp), %rdi
	callq	__Unwind_Resume
Ltmp1009:
LBB75_2:
Ltmp1003:
	.loc	31 0 5 is_stmt 0
	movq	%rax, %rcx
	movl	%edx, %eax
	movq	%rcx, -24(%rbp)
	movl	%eax, -16(%rbp)
	jmp	LBB75_1
Ltmp1010:
LBB75_3:
	movl	-76(%rbp), %eax
	.loc	31 39 18 is_stmt 1
	movl	$0, -72(%rbp)
	movl	%eax, -68(%rbp)
	movl	-72(%rbp), %edi
	movl	-68(%rbp), %esi
Ltmp995:
	callq	__ZN63_$LT$I$u20$as$u20$core..iter..traits..collect..IntoIterator$GT$9into_iter17h1daac1e46e47e64dE
Ltmp996:
	movl	%edx, -104(%rbp)
	movl	%eax, -100(%rbp)
	jmp	LBB75_4
Ltmp1011:
LBB75_4:
	.loc	31 0 18 is_stmt 0
	movl	-104(%rbp), %eax
	movl	-100(%rbp), %ecx
	.loc	31 39 18
	movl	%ecx, -64(%rbp)
	movl	%eax, -60(%rbp)
Ltmp1012:
LBB75_5:
Ltmp997:
	.loc	31 0 18
	leaq	-64(%rbp), %rdi
Ltmp1013:
	.loc	31 39 18
	callq	__ZN4core4iter5range101_$LT$impl$u20$core..iter..traits..iterator..Iterator$u20$for$u20$core..ops..range..Range$LT$A$GT$$GT$4next17h2fa090f12fc1c738E
Ltmp998:
	movl	%edx, -112(%rbp)
	movl	%eax, -108(%rbp)
	jmp	LBB75_6
Ltmp1014:
LBB75_6:
	.loc	31 0 18
	movl	-112(%rbp), %eax
	movl	-108(%rbp), %ecx
	.loc	31 39 18
	movl	%ecx, -56(%rbp)
	movl	%eax, -52(%rbp)
	movl	-56(%rbp), %eax
	cmpq	$0, %rax
	jne	LBB75_8
Ltmp1015:
	.loc	31 44 6 is_stmt 1
	addq	$128, %rsp
	popq	%rbp
	retq
Ltmp1016:
LBB75_8:
	.loc	31 0 6 is_stmt 0
	movq	-96(%rbp), %rax
Ltmp1017:
	.loc	31 39 13 is_stmt 1
	movl	-52(%rbp), %esi
	movl	%esi, -8(%rbp)
Ltmp1018:
	.loc	31 40 39
	movl	16(%rax), %edi
Ltmp999:
	callq	__ZN4core3num21_$LT$impl$u20$u32$GT$11checked_add17h9aabd9e1fd55341fE
Ltmp1000:
	movl	%edx, -120(%rbp)
	movl	%eax, -116(%rbp)
	jmp	LBB75_9
Ltmp1019:
LBB75_9:
	.loc	31 0 39 is_stmt 0
	movl	-120(%rbp), %eax
	movl	-116(%rbp), %ecx
	.loc	31 40 39
	movl	%ecx, -48(%rbp)
	movl	%eax, -44(%rbp)
	.loc	31 40 20
	movl	-48(%rbp), %eax
	cmpq	$1, %rax
	jne	LBB75_5
Ltmp1020:
	.loc	31 0 20
	movq	-88(%rbp), %rdi
	.loc	31 40 25
	movl	-44(%rbp), %eax
	movl	%eax, -4(%rbp)
	.loc	31 41 17 is_stmt 1
	movl	%eax, -36(%rbp)
	movl	-36(%rbp), %esi
Ltmp1001:
	callq	__ZN64_$LT$ab_glyph..ttfp..FontVec$u20$as$u20$ab_glyph..font..Font$GT$13codepoint_ids28_$u7b$$u7b$closure$u7d$$u7d$28_$u7b$$u7b$closure$u7d$$u7d$17he50d69d0dc60a6ebE
Ltmp1002:
	jmp	LBB75_11
Ltmp1021:
LBB75_11:
	jmp	LBB75_5
Ltmp1022:
Lfunc_end75:
	.cfi_endproc
	.section	__TEXT,__gcc_except_tab
	.p2align	2
GCC_except_table75:
Lexception22:
	.byte	255
	.byte	255
	.byte	1
	.uleb128 Lcst_end22-Lcst_begin22
Lcst_begin22:
	.uleb128 Ltmp993-Lfunc_begin75
	.uleb128 Ltmp994-Ltmp993
	.uleb128 Ltmp1003-Lfunc_begin75
	.byte	0
	.uleb128 Ltmp994-Lfunc_begin75
	.uleb128 Ltmp995-Ltmp994
	.byte	0
	.byte	0
	.uleb128 Ltmp995-Lfunc_begin75
	.uleb128 Ltmp1002-Ltmp995
	.uleb128 Ltmp1003-Lfunc_begin75
	.byte	0
Lcst_end22:
	.p2align	2

	.section	__TEXT,__text,regular,pure_instructions
	.globl	__ZN10ttf_parser6tables4cmap8format1010Subtable1010codepoints17hd2708a8d0e0ba11dE
	.p2align	4, 0x90
__ZN10ttf_parser6tables4cmap8format1010Subtable1010codepoints17hd2708a8d0e0ba11dE:
Lfunc_begin76:
	.loc	31 38 0
	.cfi_startproc
	.cfi_personality 155, _rust_eh_personality
	.cfi_lsda 16, Lexception23
	pushq	%rbp
	.cfi_def_cfa_offset 16
	.cfi_offset %rbp, -16
	movq	%rsp, %rbp
	.cfi_def_cfa_register %rbp
	subq	$128, %rsp
	movq	%rdi, -96(%rbp)
	movq	%rsi, -88(%rbp)
Ltmp1034:
	movq	%rdi, -32(%rbp)
Ltmp1023:
Ltmp1035:
	.loc	31 39 21 prologue_end
	callq	__ZN10ttf_parser6parser20LazyArray32$LT$T$GT$3len17hb1765e9392337c66E
Ltmp1036:
Ltmp1024:
	.loc	31 0 21 is_stmt 0
	movl	%eax, -76(%rbp)
Ltmp1037:
	.loc	31 39 21
	jmp	LBB76_3
Ltmp1038:
LBB76_1:
	.loc	31 38 5 is_stmt 1
	movq	-24(%rbp), %rdi
	callq	__Unwind_Resume
Ltmp1039:
LBB76_2:
Ltmp1033:
	.loc	31 0 5 is_stmt 0
	movq	%rax, %rcx
	movl	%edx, %eax
	movq	%rcx, -24(%rbp)
	movl	%eax, -16(%rbp)
	jmp	LBB76_1
Ltmp1040:
LBB76_3:
	movl	-76(%rbp), %eax
	.loc	31 39 18 is_stmt 1
	movl	$0, -72(%rbp)
	movl	%eax, -68(%rbp)
	movl	-72(%rbp), %edi
	movl	-68(%rbp), %esi
Ltmp1025:
	callq	__ZN63_$LT$I$u20$as$u20$core..iter..traits..collect..IntoIterator$GT$9into_iter17h1daac1e46e47e64dE
Ltmp1026:
	movl	%edx, -104(%rbp)
	movl	%eax, -100(%rbp)
	jmp	LBB76_4
Ltmp1041:
LBB76_4:
	.loc	31 0 18 is_stmt 0
	movl	-104(%rbp), %eax
	movl	-100(%rbp), %ecx
	.loc	31 39 18
	movl	%ecx, -64(%rbp)
	movl	%eax, -60(%rbp)
Ltmp1042:
LBB76_5:
Ltmp1027:
	.loc	31 0 18
	leaq	-64(%rbp), %rdi
Ltmp1043:
	.loc	31 39 18
	callq	__ZN4core4iter5range101_$LT$impl$u20$core..iter..traits..iterator..Iterator$u20$for$u20$core..ops..range..Range$LT$A$GT$$GT$4next17h2fa090f12fc1c738E
Ltmp1028:
	movl	%edx, -112(%rbp)
	movl	%eax, -108(%rbp)
	jmp	LBB76_6
Ltmp1044:
LBB76_6:
	.loc	31 0 18
	movl	-112(%rbp), %eax
	movl	-108(%rbp), %ecx
	.loc	31 39 18
	movl	%ecx, -56(%rbp)
	movl	%eax, -52(%rbp)
	movl	-56(%rbp), %eax
	cmpq	$0, %rax
	jne	LBB76_8
Ltmp1045:
	.loc	31 44 6 is_stmt 1
	addq	$128, %rsp
	popq	%rbp
	retq
Ltmp1046:
LBB76_8:
	.loc	31 0 6 is_stmt 0
	movq	-96(%rbp), %rax
Ltmp1047:
	.loc	31 39 13 is_stmt 1
	movl	-52(%rbp), %esi
	movl	%esi, -8(%rbp)
Ltmp1048:
	.loc	31 40 39
	movl	16(%rax), %edi
Ltmp1029:
	callq	__ZN4core3num21_$LT$impl$u20$u32$GT$11checked_add17h9aabd9e1fd55341fE
Ltmp1030:
	movl	%edx, -120(%rbp)
	movl	%eax, -116(%rbp)
	jmp	LBB76_9
Ltmp1049:
LBB76_9:
	.loc	31 0 39 is_stmt 0
	movl	-120(%rbp), %eax
	movl	-116(%rbp), %ecx
	.loc	31 40 39
	movl	%ecx, -48(%rbp)
	movl	%eax, -44(%rbp)
	.loc	31 40 20
	movl	-48(%rbp), %eax
	cmpq	$1, %rax
	jne	LBB76_5
Ltmp1050:
	.loc	31 0 20
	movq	-88(%rbp), %rdi
	.loc	31 40 25
	movl	-44(%rbp), %eax
	movl	%eax, -4(%rbp)
	.loc	31 41 17 is_stmt 1
	movl	%eax, -36(%rbp)
	movl	-36(%rbp), %esi
Ltmp1031:
	callq	__ZN64_$LT$ab_glyph..ttfp..FontRef$u20$as$u20$ab_glyph..font..Font$GT$13codepoint_ids28_$u7b$$u7b$closure$u7d$$u7d$28_$u7b$$u7b$closure$u7d$$u7d$17h86c4e7df4d016022E
Ltmp1032:
	jmp	LBB76_11
Ltmp1051:
LBB76_11:
	jmp	LBB76_5
Ltmp1052:
Lfunc_end76:
	.cfi_endproc
	.section	__TEXT,__gcc_except_tab
	.p2align	2
GCC_except_table76:
Lexception23:
	.byte	255
	.byte	255
	.byte	1
	.uleb128 Lcst_end23-Lcst_begin23
Lcst_begin23:
	.uleb128 Ltmp1023-Lfunc_begin76
	.uleb128 Ltmp1024-Ltmp1023
	.uleb128 Ltmp1033-Lfunc_begin76
	.byte	0
	.uleb128 Ltmp1024-Lfunc_begin76
	.uleb128 Ltmp1025-Ltmp1024
	.byte	0
	.byte	0
	.uleb128 Ltmp1025-Lfunc_begin76
	.uleb128 Ltmp1032-Ltmp1025
	.uleb128 Ltmp1033-Lfunc_begin76
	.byte	0
Lcst_end23:
	.p2align	2

	.section	__TEXT,__text,regular,pure_instructions
	.globl	__ZN10ttf_parser6tables4cmap8format1210Subtable1210codepoints17h92337ea4224540aeE
	.p2align	4, 0x90
__ZN10ttf_parser6tables4cmap8format1210Subtable1210codepoints17h92337ea4224540aeE:
Lfunc_begin77:
	.file	32 "/Users/natalie/.cargo/registry/src/github.com-1ecc6299db9ec823/ttf-parser-0.17.1/src/tables/cmap" "format12.rs"
	.loc	32 69 0
	.cfi_startproc
	.cfi_personality 155, _rust_eh_personality
	.cfi_lsda 16, Lexception24
	pushq	%rbp
	.cfi_def_cfa_offset 16
	.cfi_offset %rbp, -16
	movq	%rsp, %rbp
	.cfi_def_cfa_register %rbp
	subq	$192, %rsp
	movq	%rsi, -184(%rbp)
Ltmp1066:
	movq	%rdi, -32(%rbp)
Ltmp1067:
	.loc	32 70 22 prologue_end
	movq	(%rdi), %rsi
Ltmp1068:
	movq	8(%rdi), %rdx
Ltmp1053:
	leaq	-176(%rbp), %rdi
	callq	__ZN102_$LT$ttf_parser..parser..LazyArray32$LT$T$GT$$u20$as$u20$core..iter..traits..collect..IntoIterator$GT$9into_iter17h172b16cb21504dd9E
Ltmp1054:
Ltmp1069:
	jmp	LBB77_3
Ltmp1070:
LBB77_1:
	.loc	32 69 5
	movq	-24(%rbp), %rdi
	callq	__Unwind_Resume
Ltmp1071:
LBB77_2:
Ltmp1065:
	.loc	32 0 5 is_stmt 0
	movq	%rax, %rcx
	movl	%edx, %eax
	movq	%rcx, -24(%rbp)
	movl	%eax, -16(%rbp)
	jmp	LBB77_1
Ltmp1072:
LBB77_3:
	.loc	32 70 22 is_stmt 1
	movq	-176(%rbp), %rax
	movq	%rax, -152(%rbp)
	movq	-168(%rbp), %rax
	movq	%rax, -144(%rbp)
	movq	-160(%rbp), %rax
	movq	%rax, -136(%rbp)
Ltmp1073:
LBB77_4:
Ltmp1055:
	.loc	32 0 22 is_stmt 0
	leaq	-128(%rbp), %rdi
	leaq	-152(%rbp), %rsi
Ltmp1074:
	.loc	32 70 22
	callq	__ZN103_$LT$ttf_parser..parser..LazyArrayIter32$LT$T$GT$$u20$as$u20$core..iter..traits..iterator..Iterator$GT$4next17hd44beb07f9646032E
Ltmp1056:
	jmp	LBB77_5
Ltmp1075:
LBB77_5:
	movl	-128(%rbp), %eax
	cmpq	$0, %rax
	jne	LBB77_7
Ltmp1076:
	.loc	32 75 6 is_stmt 1
	addq	$192, %rsp
	popq	%rbp
	retq
Ltmp1077:
LBB77_7:
	.loc	32 70 13
	movl	-116(%rbp), %eax
	movl	%eax, -104(%rbp)
	movq	-124(%rbp), %rax
	movq	%rax, -112(%rbp)
Ltmp1078:
	.loc	32 71 31
	movl	-112(%rbp), %esi
	.loc	32 71 55 is_stmt 0
	movl	-108(%rbp), %edx
Ltmp1057:
	leaq	-80(%rbp), %rdi
	.loc	32 71 31
	callq	__ZN4core3ops5range25RangeInclusive$LT$Idx$GT$3new17hcdb1595bdcd46b07E
Ltmp1058:
	jmp	LBB77_8
Ltmp1079:
LBB77_8:
Ltmp1059:
	.loc	32 0 31
	leaq	-96(%rbp), %rdi
	leaq	-80(%rbp), %rsi
	.loc	32 71 31
	callq	__ZN63_$LT$I$u20$as$u20$core..iter..traits..collect..IntoIterator$GT$9into_iter17h0a1cd957722c15ddE
Ltmp1060:
	jmp	LBB77_9
Ltmp1080:
LBB77_9:
	movq	-96(%rbp), %rax
	movq	%rax, -64(%rbp)
	movl	-88(%rbp), %eax
	movl	%eax, -56(%rbp)
Ltmp1081:
LBB77_10:
Ltmp1061:
	.loc	32 0 31
	leaq	-64(%rbp), %rdi
Ltmp1082:
	.loc	32 71 31
	callq	__ZN4core4iter5range110_$LT$impl$u20$core..iter..traits..iterator..Iterator$u20$for$u20$core..ops..range..RangeInclusive$LT$A$GT$$GT$4next17ha888497095704d47E
Ltmp1062:
	movl	%edx, -192(%rbp)
	movl	%eax, -188(%rbp)
	jmp	LBB77_11
Ltmp1083:
LBB77_11:
	.loc	32 0 31
	movl	-192(%rbp), %eax
	movl	-188(%rbp), %ecx
	.loc	32 71 31
	movl	%ecx, -48(%rbp)
	movl	%eax, -44(%rbp)
	movl	-48(%rbp), %eax
	cmpq	$0, %rax
	je	LBB77_4
Ltmp1084:
	.loc	32 0 31
	movq	-184(%rbp), %rdi
	.loc	32 71 17
	movl	-44(%rbp), %eax
	movl	%eax, -4(%rbp)
Ltmp1085:
	.loc	32 72 17 is_stmt 1
	movl	%eax, -36(%rbp)
	movl	-36(%rbp), %esi
Ltmp1063:
	callq	__ZN64_$LT$ab_glyph..ttfp..FontRef$u20$as$u20$ab_glyph..font..Font$GT$13codepoint_ids28_$u7b$$u7b$closure$u7d$$u7d$28_$u7b$$u7b$closure$u7d$$u7d$17h86c4e7df4d016022E
Ltmp1064:
	jmp	LBB77_13
Ltmp1086:
LBB77_13:
	jmp	LBB77_10
Ltmp1087:
Lfunc_end77:
	.cfi_endproc
	.section	__TEXT,__gcc_except_tab
	.p2align	2
GCC_except_table77:
Lexception24:
	.byte	255
	.byte	255
	.byte	1
	.uleb128 Lcst_end24-Lcst_begin24
Lcst_begin24:
	.uleb128 Ltmp1053-Lfunc_begin77
	.uleb128 Ltmp1054-Ltmp1053
	.uleb128 Ltmp1065-Lfunc_begin77
	.byte	0
	.uleb128 Ltmp1054-Lfunc_begin77
	.uleb128 Ltmp1055-Ltmp1054
	.byte	0
	.byte	0
	.uleb128 Ltmp1055-Lfunc_begin77
	.uleb128 Ltmp1064-Ltmp1055
	.uleb128 Ltmp1065-Lfunc_begin77
	.byte	0
Lcst_end24:
	.p2align	2

	.section	__TEXT,__text,regular,pure_instructions
	.globl	__ZN10ttf_parser6tables4cmap8format1210Subtable1210codepoints17hb8788852d3bceb44E
	.p2align	4, 0x90
__ZN10ttf_parser6tables4cmap8format1210Subtable1210codepoints17hb8788852d3bceb44E:
Lfunc_begin78:
	.loc	32 69 0
	.cfi_startproc
	.cfi_personality 155, _rust_eh_personality
	.cfi_lsda 16, Lexception25
	pushq	%rbp
	.cfi_def_cfa_offset 16
	.cfi_offset %rbp, -16
	movq	%rsp, %rbp
	.cfi_def_cfa_register %rbp
	subq	$192, %rsp
	movq	%rsi, -184(%rbp)
Ltmp1101:
	movq	%rdi, -32(%rbp)
Ltmp1102:
	.loc	32 70 22 prologue_end
	movq	(%rdi), %rsi
Ltmp1103:
	movq	8(%rdi), %rdx
Ltmp1088:
	leaq	-176(%rbp), %rdi
	callq	__ZN102_$LT$ttf_parser..parser..LazyArray32$LT$T$GT$$u20$as$u20$core..iter..traits..collect..IntoIterator$GT$9into_iter17h172b16cb21504dd9E
Ltmp1089:
Ltmp1104:
	jmp	LBB78_3
Ltmp1105:
LBB78_1:
	.loc	32 69 5
	movq	-24(%rbp), %rdi
	callq	__Unwind_Resume
Ltmp1106:
LBB78_2:
Ltmp1100:
	.loc	32 0 5 is_stmt 0
	movq	%rax, %rcx
	movl	%edx, %eax
	movq	%rcx, -24(%rbp)
	movl	%eax, -16(%rbp)
	jmp	LBB78_1
Ltmp1107:
LBB78_3:
	.loc	32 70 22 is_stmt 1
	movq	-176(%rbp), %rax
	movq	%rax, -152(%rbp)
	movq	-168(%rbp), %rax
	movq	%rax, -144(%rbp)
	movq	-160(%rbp), %rax
	movq	%rax, -136(%rbp)
Ltmp1108:
LBB78_4:
Ltmp1090:
	.loc	32 0 22 is_stmt 0
	leaq	-128(%rbp), %rdi
	leaq	-152(%rbp), %rsi
Ltmp1109:
	.loc	32 70 22
	callq	__ZN103_$LT$ttf_parser..parser..LazyArrayIter32$LT$T$GT$$u20$as$u20$core..iter..traits..iterator..Iterator$GT$4next17hd44beb07f9646032E
Ltmp1091:
	jmp	LBB78_5
Ltmp1110:
LBB78_5:
	movl	-128(%rbp), %eax
	cmpq	$0, %rax
	jne	LBB78_7
Ltmp1111:
	.loc	32 75 6 is_stmt 1
	addq	$192, %rsp
	popq	%rbp
	retq
Ltmp1112:
LBB78_7:
	.loc	32 70 13
	movl	-116(%rbp), %eax
	movl	%eax, -104(%rbp)
	movq	-124(%rbp), %rax
	movq	%rax, -112(%rbp)
Ltmp1113:
	.loc	32 71 31
	movl	-112(%rbp), %esi
	.loc	32 71 55 is_stmt 0
	movl	-108(%rbp), %edx
Ltmp1092:
	leaq	-80(%rbp), %rdi
	.loc	32 71 31
	callq	__ZN4core3ops5range25RangeInclusive$LT$Idx$GT$3new17hcdb1595bdcd46b07E
Ltmp1093:
	jmp	LBB78_8
Ltmp1114:
LBB78_8:
Ltmp1094:
	.loc	32 0 31
	leaq	-96(%rbp), %rdi
	leaq	-80(%rbp), %rsi
	.loc	32 71 31
	callq	__ZN63_$LT$I$u20$as$u20$core..iter..traits..collect..IntoIterator$GT$9into_iter17h0a1cd957722c15ddE
Ltmp1095:
	jmp	LBB78_9
Ltmp1115:
LBB78_9:
	movq	-96(%rbp), %rax
	movq	%rax, -64(%rbp)
	movl	-88(%rbp), %eax
	movl	%eax, -56(%rbp)
Ltmp1116:
LBB78_10:
Ltmp1096:
	.loc	32 0 31
	leaq	-64(%rbp), %rdi
Ltmp1117:
	.loc	32 71 31
	callq	__ZN4core4iter5range110_$LT$impl$u20$core..iter..traits..iterator..Iterator$u20$for$u20$core..ops..range..RangeInclusive$LT$A$GT$$GT$4next17ha888497095704d47E
Ltmp1097:
	movl	%edx, -192(%rbp)
	movl	%eax, -188(%rbp)
	jmp	LBB78_11
Ltmp1118:
LBB78_11:
	.loc	32 0 31
	movl	-192(%rbp), %eax
	movl	-188(%rbp), %ecx
	.loc	32 71 31
	movl	%ecx, -48(%rbp)
	movl	%eax, -44(%rbp)
	movl	-48(%rbp), %eax
	cmpq	$0, %rax
	je	LBB78_4
Ltmp1119:
	.loc	32 0 31
	movq	-184(%rbp), %rdi
	.loc	32 71 17
	movl	-44(%rbp), %eax
	movl	%eax, -4(%rbp)
Ltmp1120:
	.loc	32 72 17 is_stmt 1
	movl	%eax, -36(%rbp)
	movl	-36(%rbp), %esi
Ltmp1098:
	callq	__ZN64_$LT$ab_glyph..ttfp..FontVec$u20$as$u20$ab_glyph..font..Font$GT$13codepoint_ids28_$u7b$$u7b$closure$u7d$$u7d$28_$u7b$$u7b$closure$u7d$$u7d$17he50d69d0dc60a6ebE
Ltmp1099:
	jmp	LBB78_13
Ltmp1121:
LBB78_13:
	jmp	LBB78_10
Ltmp1122:
Lfunc_end78:
	.cfi_endproc
	.section	__TEXT,__gcc_except_tab
	.p2align	2
GCC_except_table78:
Lexception25:
	.byte	255
	.byte	255
	.byte	1
	.uleb128 Lcst_end25-Lcst_begin25
Lcst_begin25:
	.uleb128 Ltmp1088-Lfunc_begin78
	.uleb128 Ltmp1089-Ltmp1088
	.uleb128 Ltmp1100-Lfunc_begin78
	.byte	0
	.uleb128 Ltmp1089-Lfunc_begin78
	.uleb128 Ltmp1090-Ltmp1089
	.byte	0
	.byte	0
	.uleb128 Ltmp1090-Lfunc_begin78
	.uleb128 Ltmp1099-Ltmp1090
	.uleb128 Ltmp1100-Lfunc_begin78
	.byte	0
Lcst_end25:
	.p2align	2

	.section	__TEXT,__text,regular,pure_instructions
	.globl	__ZN10ttf_parser6tables4cmap8format1310Subtable1310codepoints17h55bdb0f76fe2a997E
	.p2align	4, 0x90
__ZN10ttf_parser6tables4cmap8format1310Subtable1310codepoints17h55bdb0f76fe2a997E:
Lfunc_begin79:
	.file	33 "/Users/natalie/.cargo/registry/src/github.com-1ecc6299db9ec823/ttf-parser-0.17.1/src/tables/cmap" "format13.rs"
	.loc	33 42 0
	.cfi_startproc
	.cfi_personality 155, _rust_eh_personality
	.cfi_lsda 16, Lexception26
	pushq	%rbp
	.cfi_def_cfa_offset 16
	.cfi_offset %rbp, -16
	movq	%rsp, %rbp
	.cfi_def_cfa_register %rbp
	subq	$192, %rsp
	movq	%rsi, -184(%rbp)
Ltmp1136:
	movq	%rdi, -32(%rbp)
Ltmp1137:
	.loc	33 43 22 prologue_end
	movq	(%rdi), %rsi
Ltmp1138:
	movq	8(%rdi), %rdx
Ltmp1123:
	leaq	-176(%rbp), %rdi
	callq	__ZN102_$LT$ttf_parser..parser..LazyArray32$LT$T$GT$$u20$as$u20$core..iter..traits..collect..IntoIterator$GT$9into_iter17h172b16cb21504dd9E
Ltmp1124:
Ltmp1139:
	jmp	LBB79_3
Ltmp1140:
LBB79_1:
	.loc	33 42 5
	movq	-24(%rbp), %rdi
	callq	__Unwind_Resume
Ltmp1141:
LBB79_2:
Ltmp1135:
	.loc	33 0 5 is_stmt 0
	movq	%rax, %rcx
	movl	%edx, %eax
	movq	%rcx, -24(%rbp)
	movl	%eax, -16(%rbp)
	jmp	LBB79_1
Ltmp1142:
LBB79_3:
	.loc	33 43 22 is_stmt 1
	movq	-176(%rbp), %rax
	movq	%rax, -152(%rbp)
	movq	-168(%rbp), %rax
	movq	%rax, -144(%rbp)
	movq	-160(%rbp), %rax
	movq	%rax, -136(%rbp)
Ltmp1143:
LBB79_4:
Ltmp1125:
	.loc	33 0 22 is_stmt 0
	leaq	-128(%rbp), %rdi
	leaq	-152(%rbp), %rsi
Ltmp1144:
	.loc	33 43 22
	callq	__ZN103_$LT$ttf_parser..parser..LazyArrayIter32$LT$T$GT$$u20$as$u20$core..iter..traits..iterator..Iterator$GT$4next17hd44beb07f9646032E
Ltmp1126:
	jmp	LBB79_5
Ltmp1145:
LBB79_5:
	movl	-128(%rbp), %eax
	cmpq	$0, %rax
	jne	LBB79_7
Ltmp1146:
	.loc	33 48 6 is_stmt 1
	addq	$192, %rsp
	popq	%rbp
	retq
Ltmp1147:
LBB79_7:
	.loc	33 43 13
	movl	-116(%rbp), %eax
	movl	%eax, -104(%rbp)
	movq	-124(%rbp), %rax
	movq	%rax, -112(%rbp)
Ltmp1148:
	.loc	33 44 31
	movl	-112(%rbp), %esi
	.loc	33 44 55 is_stmt 0
	movl	-108(%rbp), %edx
Ltmp1127:
	leaq	-80(%rbp), %rdi
	.loc	33 44 31
	callq	__ZN4core3ops5range25RangeInclusive$LT$Idx$GT$3new17hcdb1595bdcd46b07E
Ltmp1128:
	jmp	LBB79_8
Ltmp1149:
LBB79_8:
Ltmp1129:
	.loc	33 0 31
	leaq	-96(%rbp), %rdi
	leaq	-80(%rbp), %rsi
	.loc	33 44 31
	callq	__ZN63_$LT$I$u20$as$u20$core..iter..traits..collect..IntoIterator$GT$9into_iter17h0a1cd957722c15ddE
Ltmp1130:
	jmp	LBB79_9
Ltmp1150:
LBB79_9:
	movq	-96(%rbp), %rax
	movq	%rax, -64(%rbp)
	movl	-88(%rbp), %eax
	movl	%eax, -56(%rbp)
Ltmp1151:
LBB79_10:
Ltmp1131:
	.loc	33 0 31
	leaq	-64(%rbp), %rdi
Ltmp1152:
	.loc	33 44 31
	callq	__ZN4core4iter5range110_$LT$impl$u20$core..iter..traits..iterator..Iterator$u20$for$u20$core..ops..range..RangeInclusive$LT$A$GT$$GT$4next17ha888497095704d47E
Ltmp1132:
	movl	%edx, -192(%rbp)
	movl	%eax, -188(%rbp)
	jmp	LBB79_11
Ltmp1153:
LBB79_11:
	.loc	33 0 31
	movl	-192(%rbp), %eax
	movl	-188(%rbp), %ecx
	.loc	33 44 31
	movl	%ecx, -48(%rbp)
	movl	%eax, -44(%rbp)
	movl	-48(%rbp), %eax
	cmpq	$0, %rax
	je	LBB79_4
Ltmp1154:
	.loc	33 0 31
	movq	-184(%rbp), %rdi
	.loc	33 44 17
	movl	-44(%rbp), %eax
	movl	%eax, -4(%rbp)
Ltmp1155:
	.loc	33 45 17 is_stmt 1
	movl	%eax, -36(%rbp)
	movl	-36(%rbp), %esi
Ltmp1133:
	callq	__ZN64_$LT$ab_glyph..ttfp..FontRef$u20$as$u20$ab_glyph..font..Font$GT$13codepoint_ids28_$u7b$$u7b$closure$u7d$$u7d$28_$u7b$$u7b$closure$u7d$$u7d$17h86c4e7df4d016022E
Ltmp1134:
	jmp	LBB79_13
Ltmp1156:
LBB79_13:
	jmp	LBB79_10
Ltmp1157:
Lfunc_end79:
	.cfi_endproc
	.section	__TEXT,__gcc_except_tab
	.p2align	2
GCC_except_table79:
Lexception26:
	.byte	255
	.byte	255
	.byte	1
	.uleb128 Lcst_end26-Lcst_begin26
Lcst_begin26:
	.uleb128 Ltmp1123-Lfunc_begin79
	.uleb128 Ltmp1124-Ltmp1123
	.uleb128 Ltmp1135-Lfunc_begin79
	.byte	0
	.uleb128 Ltmp1124-Lfunc_begin79
	.uleb128 Ltmp1125-Ltmp1124
	.byte	0
	.byte	0
	.uleb128 Ltmp1125-Lfunc_begin79
	.uleb128 Ltmp1134-Ltmp1125
	.uleb128 Ltmp1135-Lfunc_begin79
	.byte	0
Lcst_end26:
	.p2align	2

	.section	__TEXT,__text,regular,pure_instructions
	.globl	__ZN10ttf_parser6tables4cmap8format1310Subtable1310codepoints17h71636b502b2e95beE
	.p2align	4, 0x90
__ZN10ttf_parser6tables4cmap8format1310Subtable1310codepoints17h71636b502b2e95beE:
Lfunc_begin80:
	.loc	33 42 0
	.cfi_startproc
	.cfi_personality 155, _rust_eh_personality
	.cfi_lsda 16, Lexception27
	pushq	%rbp
	.cfi_def_cfa_offset 16
	.cfi_offset %rbp, -16
	movq	%rsp, %rbp
	.cfi_def_cfa_register %rbp
	subq	$192, %rsp
	movq	%rsi, -184(%rbp)
Ltmp1171:
	movq	%rdi, -32(%rbp)
Ltmp1172:
	.loc	33 43 22 prologue_end
	movq	(%rdi), %rsi
Ltmp1173:
	movq	8(%rdi), %rdx
Ltmp1158:
	leaq	-176(%rbp), %rdi
	callq	__ZN102_$LT$ttf_parser..parser..LazyArray32$LT$T$GT$$u20$as$u20$core..iter..traits..collect..IntoIterator$GT$9into_iter17h172b16cb21504dd9E
Ltmp1159:
Ltmp1174:
	jmp	LBB80_3
Ltmp1175:
LBB80_1:
	.loc	33 42 5
	movq	-24(%rbp), %rdi
	callq	__Unwind_Resume
Ltmp1176:
LBB80_2:
Ltmp1170:
	.loc	33 0 5 is_stmt 0
	movq	%rax, %rcx
	movl	%edx, %eax
	movq	%rcx, -24(%rbp)
	movl	%eax, -16(%rbp)
	jmp	LBB80_1
Ltmp1177:
LBB80_3:
	.loc	33 43 22 is_stmt 1
	movq	-176(%rbp), %rax
	movq	%rax, -152(%rbp)
	movq	-168(%rbp), %rax
	movq	%rax, -144(%rbp)
	movq	-160(%rbp), %rax
	movq	%rax, -136(%rbp)
Ltmp1178:
LBB80_4:
Ltmp1160:
	.loc	33 0 22 is_stmt 0
	leaq	-128(%rbp), %rdi
	leaq	-152(%rbp), %rsi
Ltmp1179:
	.loc	33 43 22
	callq	__ZN103_$LT$ttf_parser..parser..LazyArrayIter32$LT$T$GT$$u20$as$u20$core..iter..traits..iterator..Iterator$GT$4next17hd44beb07f9646032E
Ltmp1161:
	jmp	LBB80_5
Ltmp1180:
LBB80_5:
	movl	-128(%rbp), %eax
	cmpq	$0, %rax
	jne	LBB80_7
Ltmp1181:
	.loc	33 48 6 is_stmt 1
	addq	$192, %rsp
	popq	%rbp
	retq
Ltmp1182:
LBB80_7:
	.loc	33 43 13
	movl	-116(%rbp), %eax
	movl	%eax, -104(%rbp)
	movq	-124(%rbp), %rax
	movq	%rax, -112(%rbp)
Ltmp1183:
	.loc	33 44 31
	movl	-112(%rbp), %esi
	.loc	33 44 55 is_stmt 0
	movl	-108(%rbp), %edx
Ltmp1162:
	leaq	-80(%rbp), %rdi
	.loc	33 44 31
	callq	__ZN4core3ops5range25RangeInclusive$LT$Idx$GT$3new17hcdb1595bdcd46b07E
Ltmp1163:
	jmp	LBB80_8
Ltmp1184:
LBB80_8:
Ltmp1164:
	.loc	33 0 31
	leaq	-96(%rbp), %rdi
	leaq	-80(%rbp), %rsi
	.loc	33 44 31
	callq	__ZN63_$LT$I$u20$as$u20$core..iter..traits..collect..IntoIterator$GT$9into_iter17h0a1cd957722c15ddE
Ltmp1165:
	jmp	LBB80_9
Ltmp1185:
LBB80_9:
	movq	-96(%rbp), %rax
	movq	%rax, -64(%rbp)
	movl	-88(%rbp), %eax
	movl	%eax, -56(%rbp)
Ltmp1186:
LBB80_10:
Ltmp1166:
	.loc	33 0 31
	leaq	-64(%rbp), %rdi
Ltmp1187:
	.loc	33 44 31
	callq	__ZN4core4iter5range110_$LT$impl$u20$core..iter..traits..iterator..Iterator$u20$for$u20$core..ops..range..RangeInclusive$LT$A$GT$$GT$4next17ha888497095704d47E
Ltmp1167:
	movl	%edx, -192(%rbp)
	movl	%eax, -188(%rbp)
	jmp	LBB80_11
Ltmp1188:
LBB80_11:
	.loc	33 0 31
	movl	-192(%rbp), %eax
	movl	-188(%rbp), %ecx
	.loc	33 44 31
	movl	%ecx, -48(%rbp)
	movl	%eax, -44(%rbp)
	movl	-48(%rbp), %eax
	cmpq	$0, %rax
	je	LBB80_4
Ltmp1189:
	.loc	33 0 31
	movq	-184(%rbp), %rdi
	.loc	33 44 17
	movl	-44(%rbp), %eax
	movl	%eax, -4(%rbp)
Ltmp1190:
	.loc	33 45 17 is_stmt 1
	movl	%eax, -36(%rbp)
	movl	-36(%rbp), %esi
Ltmp1168:
	callq	__ZN64_$LT$ab_glyph..ttfp..FontVec$u20$as$u20$ab_glyph..font..Font$GT$13codepoint_ids28_$u7b$$u7b$closure$u7d$$u7d$28_$u7b$$u7b$closure$u7d$$u7d$17he50d69d0dc60a6ebE
Ltmp1169:
	jmp	LBB80_13
Ltmp1191:
LBB80_13:
	jmp	LBB80_10
Ltmp1192:
Lfunc_end80:
	.cfi_endproc
	.section	__TEXT,__gcc_except_tab
	.p2align	2
GCC_except_table80:
Lexception27:
	.byte	255
	.byte	255
	.byte	1
	.uleb128 Lcst_end27-Lcst_begin27
Lcst_begin27:
	.uleb128 Ltmp1158-Lfunc_begin80
	.uleb128 Ltmp1159-Ltmp1158
	.uleb128 Ltmp1170-Lfunc_begin80
	.byte	0
	.uleb128 Ltmp1159-Lfunc_begin80
	.uleb128 Ltmp1160-Ltmp1159
	.byte	0
	.byte	0
	.uleb128 Ltmp1160-Lfunc_begin80
	.uleb128 Ltmp1169-Ltmp1160
	.uleb128 Ltmp1170-Lfunc_begin80
	.byte	0
Lcst_end27:
	.p2align	2

	.section	__TEXT,__text,regular,pure_instructions
	.p2align	4, 0x90
__ZN10ttf_parser6tables4cmap9Subtables3len17hd28e8751efdc2193E:
Lfunc_begin81:
	.loc	30 221 0
	.cfi_startproc
	pushq	%rbp
	.cfi_def_cfa_offset 16
	.cfi_offset %rbp, -16
	movq	%rsp, %rbp
	.cfi_def_cfa_register %rbp
	subq	$16, %rsp
	movq	%rdi, -8(%rbp)
Ltmp1193:
	.loc	30 222 9 prologue_end
	addq	$16, %rdi
	callq	__ZN10ttf_parser6parser20LazyArray16$LT$T$GT$3len17h59f3ee5bbaf48da5E
	.loc	30 223 6
	addq	$16, %rsp
	popq	%rbp
	retq
Ltmp1194:
Lfunc_end81:
	.cfi_endproc

	.p2align	4, 0x90
__ZN10ttf_parser6tables4glyf10CoordsIter3new17he100539eaed73edaE:
Lfunc_begin82:
	.loc	1 435 0
	.cfi_startproc
	pushq	%rbp
	.cfi_def_cfa_offset 16
	.cfi_offset %rbp, -16
	movq	%rsp, %rbp
	.cfi_def_cfa_register %rbp
	subq	$64, %rsp
	movq	%rdi, -56(%rbp)
	movq	%rdi, -48(%rbp)
	movq	%rsi, -16(%rbp)
	movq	%rdx, -8(%rbp)
Ltmp1195:
	.loc	1 437 21 prologue_end
	leaq	-40(%rbp), %rdi
	callq	__ZN10ttf_parser6parser6Stream3new17h61a7a24756ab0f82E
	movq	-56(%rbp), %rdi
	movq	-48(%rbp), %rax
	.loc	1 436 9
	movq	-40(%rbp), %rcx
	movq	%rcx, (%rdi)
	movq	-32(%rbp), %rcx
	movq	%rcx, 8(%rdi)
	movq	-24(%rbp), %rcx
	movq	%rcx, 16(%rdi)
	movw	$0, 24(%rdi)
	.loc	1 440 6
	addq	$64, %rsp
	popq	%rbp
	retq
Ltmp1196:
Lfunc_end82:
	.cfi_endproc

	.p2align	4, 0x90
__ZN10ttf_parser6tables4glyf10CoordsIter4next17h85e10885bede6965E:
Lfunc_begin83:
	.loc	1 443 0
	.cfi_startproc
	pushq	%rbp
	.cfi_def_cfa_offset 16
	.cfi_offset %rbp, -16
	movq	%rsp, %rbp
	.cfi_def_cfa_register %rbp
	subq	$48, %rsp
	movq	%rdi, -32(%rbp)
	movb	%dl, %cl
	movb	%cl, -19(%rbp)
	movb	%sil, %al
	movq	%rdi, -16(%rbp)
	movb	%al, %dl
	andb	$1, %dl
	movb	%dl, -8(%rbp)
	andb	$1, %cl
	movb	%cl, -7(%rbp)
Ltmp1197:
	.loc	1 449 21 prologue_end
	movw	$0, -18(%rbp)
Ltmp1198:
	.loc	1 450 12
	testb	$1, %al
	jne	LBB83_2
	.loc	1 0 12 is_stmt 0
	movb	-19(%rbp), %al
	.loc	1 455 19 is_stmt 1
	xorb	$-1, %al
	testb	$1, %al
	jne	LBB83_7
	jmp	LBB83_3
LBB83_2:
	.loc	1 0 19 is_stmt 0
	movq	-32(%rbp), %rdi
	.loc	1 451 27 is_stmt 1
	callq	__ZN10ttf_parser6parser6Stream4read17h834723093d2a97dbE
	movb	%al, %cl
	movb	%dl, %al
	xorl	%edx, %edx
	andb	$1, %cl
	movzbl	%cl, %edi
	movzbl	%al, %esi
	callq	__ZN4core6option15Option$LT$T$GT$9unwrap_or17ha2701e1bbe26f427E
	movb	%al, %cl
	movb	-19(%rbp), %al
	movb	%cl, -1(%rbp)
Ltmp1199:
	.loc	15 54 17
	movzbl	%cl, %ecx
Ltmp1200:
	.loc	1 451 13
	movw	%cx, -18(%rbp)
	.loc	1 452 16
	xorb	$-1, %al
	testb	$1, %al
	jne	LBB83_4
LBB83_3:
	.loc	1 0 16 is_stmt 0
	movq	-32(%rbp), %rax
	.loc	1 459 21 is_stmt 1
	movw	24(%rax), %cx
	.loc	1 459 44 is_stmt 0
	movw	-18(%rbp), %dx
	movw	%cx, -6(%rbp)
	movw	%dx, -4(%rbp)
Ltmp1201:
	.loc	10 1124 13 is_stmt 1
	addw	%dx, %cx
Ltmp1202:
	.loc	1 459 9
	movw	%cx, 24(%rax)
	.loc	1 460 9
	movw	24(%rax), %ax
Ltmp1203:
	.loc	1 461 6
	addq	$48, %rsp
	popq	%rbp
	retq
LBB83_4:
Ltmp1204:
	.loc	1 453 22
	movw	-18(%rbp), %ax
	movw	%ax, -34(%rbp)
	.loc	1 453 21 is_stmt 0
	cmpw	$-32768, %ax
	sete	%al
	testb	$1, %al
	jne	LBB83_6
	.loc	1 0 21
	movw	-34(%rbp), %cx
	.loc	1 453 17
	xorl	%eax, %eax
	subw	%cx, %ax
	movw	%ax, -18(%rbp)
	.loc	1 452 13 is_stmt 1
	jmp	LBB83_3
LBB83_6:
	.loc	1 453 21
	leaq	_str.1(%rip), %rdi
	leaq	l___unnamed_29(%rip), %rdx
	movl	$31, %esi
	callq	__ZN4core9panicking5panic17hc1bc45270cf64b03E
LBB83_7:
	.loc	1 0 21 is_stmt 0
	movq	-32(%rbp), %rdi
	.loc	1 456 17 is_stmt 1
	callq	__ZN10ttf_parser6parser6Stream4read17h2b23b8e6a4403565E
	movw	%ax, %cx
	movw	%dx, %ax
	xorl	%edx, %edx
	movzwl	%cx, %edi
	movzwl	%ax, %esi
	callq	__ZN4core6option15Option$LT$T$GT$9unwrap_or17h18e8a063984e854bE
	.loc	1 456 13 is_stmt 0
	movw	%ax, -18(%rbp)
	.loc	1 455 16 is_stmt 1
	jmp	LBB83_3
Ltmp1205:
Lfunc_end83:
	.cfi_endproc

	.p2align	4, 0x90
__ZN10ttf_parser6tables4glyf12outline_impl17ha5282c73f81c3425E:
Lfunc_begin84:
	.loc	1 513 0
	.cfi_startproc
	pushq	%rbp
	.cfi_def_cfa_offset 16
	.cfi_offset %rbp, -16
	movq	%rsp, %rbp
	.cfi_def_cfa_register %rbp
	subq	$1664, %rsp
	movq	%r9, -1608(%rbp)
	movq	%r8, -1600(%rbp)
	movq	%rcx, -1592(%rbp)
	movq	%rdx, -1584(%rbp)
	movq	%rsi, -1576(%rbp)
Ltmp1206:
	movq	%rdi, -1568(%rbp)
	movq	%rdi, -1560(%rbp)
	movq	24(%rbp), %rax
	movq	%rax, -1552(%rbp)
	movb	16(%rbp), %al
	movb	%al, -1537(%rbp)
Ltmp1207:
	movq	%rdx, -168(%rbp)
	movq	%rcx, -160(%rbp)
	movq	%r8, -152(%rbp)
	movq	%r9, -144(%rbp)
Ltmp1208:
	.loc	1 520 8 prologue_end
	cmpb	$32, %al
Ltmp1209:
	jae	LBB84_2
Ltmp1210:
	.loc	1 0 8 is_stmt 0
	movq	-1608(%rbp), %rdx
	movq	-1600(%rbp), %rsi
	leaq	-1536(%rbp), %rdi
	movq	%rdi, -1616(%rbp)
	.loc	1 524 17 is_stmt 1
	callq	__ZN10ttf_parser6parser6Stream3new17h61a7a24756ab0f82E
	movq	-1616(%rbp), %rdi
Ltmp1211:
	.loc	1 525 30
	callq	__ZN10ttf_parser6parser6Stream4read17h2b23b8e6a4403565E
	movw	%ax, %di
	movw	%dx, %si
	callq	__ZN75_$LT$core..option..Option$LT$T$GT$$u20$as$u20$core..ops..try_trait..Try$GT$6branch17h9c0821f259f51a15E
	movw	%dx, -1510(%rbp)
	movw	%ax, -1512(%rbp)
	movzwl	-1512(%rbp), %eax
	cmpq	$0, %rax
	je	LBB84_4
	jmp	LBB84_5
Ltmp1212:
LBB84_2:
	.loc	1 0 30 is_stmt 0
	movq	-1568(%rbp), %rax
	.loc	1 521 16 is_stmt 1
	movw	$2, (%rax)
Ltmp1213:
LBB84_3:
	.loc	1 0 16 is_stmt 0
	movq	-1560(%rbp), %rax
	.loc	1 562 2 is_stmt 1
	addq	$1664, %rsp
	popq	%rbp
	retq
Ltmp1214:
LBB84_4:
	.loc	1 525 30
	movw	-1510(%rbp), %ax
	movw	%ax, -1618(%rbp)
	movw	%ax, -88(%rbp)
Ltmp1215:
	.loc	1 525 30 is_stmt 0
	movw	%ax, -86(%rbp)
Ltmp1216:
	.loc	1 526 5 is_stmt 1
	leaq	-1536(%rbp), %rdi
	movl	$8, %esi
	callq	__ZN10ttf_parser6parser6Stream7advance17h9342a9b7f326f321E
	movw	-1618(%rbp), %ax
	.loc	1 528 8
	cmpw	$0, %ax
	jg	LBB84_7
	jmp	LBB84_6
Ltmp1217:
LBB84_5:
	.loc	1 0 8 is_stmt 0
	movq	-1568(%rbp), %rdi
Ltmp1218:
	.loc	1 525 30 is_stmt 1
	callq	__ZN84_$LT$core..option..Option$LT$T$GT$$u20$as$u20$core..ops..try_trait..FromResidual$GT$13from_residual17h0a7eb73a1308ab96E
	jmp	LBB84_3
Ltmp1219:
LBB84_6:
	.loc	1 0 30 is_stmt 0
	movw	-1618(%rbp), %ax
Ltmp1220:
	.loc	1 541 15 is_stmt 1
	cmpw	$0, %ax
	jl	LBB84_17
	jmp	LBB84_15
Ltmp1221:
LBB84_7:
	.loc	1 0 15 is_stmt 0
	movw	-1618(%rbp), %ax
	.loc	1 532 34 is_stmt 1
	movzwl	%ax, %edi
	callq	__ZN4core3num7nonzero10NonZeroU163new17ha9cd3c9acaa5cf32E
	movzwl	%ax, %edi
	callq	__ZN75_$LT$core..option..Option$LT$T$GT$$u20$as$u20$core..ops..try_trait..Try$GT$6branch17h5d98c885171ea8d2E
	movw	%ax, -1506(%rbp)
	xorl	%eax, %eax
	movl	$1, %ecx
	cmpw	$0, -1506(%rbp)
	cmoveq	%rcx, %rax
	cmpq	$0, %rax
	jne	LBB84_9
Ltmp1222:
	movw	-1506(%rbp), %ax
	movw	%ax, -1620(%rbp)
	movw	%ax, -84(%rbp)
Ltmp1223:
	.loc	1 532 34 is_stmt 0
	movw	%ax, -82(%rbp)
	leaq	-1536(%rbp), %rdi
Ltmp1224:
	.loc	1 533 43 is_stmt 1
	callq	__ZN10ttf_parser6parser6Stream4tail17h9f186e7a15c765e2E
	movq	%rax, %rdi
	movq	%rdx, %rsi
	callq	__ZN75_$LT$core..option..Option$LT$T$GT$$u20$as$u20$core..ops..try_trait..Try$GT$6branch17h05a07538bea0c9baE
	movq	%rdx, -984(%rbp)
	movq	%rax, -992(%rbp)
	movq	-992(%rbp), %rdx
	xorl	%eax, %eax
	movl	$1, %ecx
	cmpq	$0, %rdx
	cmoveq	%rcx, %rax
	cmpq	$0, %rax
	je	LBB84_10
	jmp	LBB84_11
Ltmp1225:
LBB84_9:
	.loc	1 0 43 is_stmt 0
	movq	-1568(%rbp), %rdi
Ltmp1226:
	.loc	1 532 34 is_stmt 1
	callq	__ZN84_$LT$core..option..Option$LT$T$GT$$u20$as$u20$core..ops..try_trait..FromResidual$GT$13from_residual17h0a7eb73a1308ab96E
	jmp	LBB84_3
Ltmp1227:
LBB84_10:
	.loc	1 0 34 is_stmt 0
	movw	-1620(%rbp), %ax
Ltmp1228:
	.loc	1 533 43 is_stmt 1
	movq	-992(%rbp), %rsi
	movq	-984(%rbp), %rdx
	movq	%rsi, -80(%rbp)
	movq	%rdx, -72(%rbp)
	.loc	1 533 22 is_stmt 0
	leaq	-1120(%rbp), %rdi
	movzwl	%ax, %ecx
	callq	__ZN10ttf_parser6tables4glyf20parse_simple_outline17h1b88548047bc88ddE
	leaq	-1248(%rbp), %rdi
	leaq	-1120(%rbp), %rsi
	callq	__ZN75_$LT$core..option..Option$LT$T$GT$$u20$as$u20$core..ops..try_trait..Try$GT$6branch17hd8ee8cfe6cc4fc5cE
	movq	-1248(%rbp), %rdx
	xorl	%eax, %eax
	movl	$1, %ecx
	cmpq	$0, %rdx
	cmoveq	%rcx, %rax
	cmpq	$0, %rax
	je	LBB84_12
	jmp	LBB84_13
Ltmp1229:
LBB84_11:
	.loc	1 0 22
	movq	-1568(%rbp), %rdi
Ltmp1230:
	.loc	1 533 43
	callq	__ZN84_$LT$core..option..Option$LT$T$GT$$u20$as$u20$core..ops..try_trait..FromResidual$GT$13from_residual17h0a7eb73a1308ab96E
	jmp	LBB84_3
Ltmp1231:
LBB84_12:
	.loc	1 533 22
	leaq	-976(%rbp), %rdi
	leaq	-1248(%rbp), %rsi
	movl	$128, %edx
	callq	_memcpy
Ltmp1232:
	.loc	1 533 22
	leaq	-1376(%rbp), %rdi
	leaq	-976(%rbp), %rsi
	movl	$128, %edx
	callq	_memcpy
Ltmp1233:
	.loc	1 533 22
	leaq	-1504(%rbp), %rdi
	leaq	-1376(%rbp), %rsi
	callq	__ZN63_$LT$I$u20$as$u20$core..iter..traits..collect..IntoIterator$GT$9into_iter17h7cff05654c6828bfE
	leaq	-848(%rbp), %rdi
	leaq	-1504(%rbp), %rsi
	movl	$128, %edx
	callq	_memcpy
Ltmp1234:
	.loc	1 533 9
	jmp	LBB84_14
Ltmp1235:
LBB84_13:
	.loc	1 0 9
	movq	-1568(%rbp), %rdi
Ltmp1236:
	.loc	1 533 22
	callq	__ZN84_$LT$core..option..Option$LT$T$GT$$u20$as$u20$core..ops..try_trait..FromResidual$GT$13from_residual17h0a7eb73a1308ab96E
	jmp	LBB84_3
Ltmp1237:
LBB84_14:
	.loc	1 0 22
	leaq	-848(%rbp), %rdi
Ltmp1238:
	.loc	1 533 22
	callq	__ZN100_$LT$ttf_parser..tables..glyf..GlyphPointsIter$u20$as$u20$core..iter..traits..iterator..Iterator$GT$4next17hb612ce63b35768e2E
	movl	%eax, %ecx
	movl	%ecx, -64(%rbp)
	shrq	$32, %rax
	movw	%ax, -60(%rbp)
	movl	-64(%rbp), %eax
	movl	%eax, -720(%rbp)
	movw	-60(%rbp), %ax
	movw	%ax, -716(%rbp)
	movl	$1, %eax
	xorl	%ecx, %ecx
	cmpb	$2, -716(%rbp)
	cmoveq	%rcx, %rax
	cmpq	$0, %rax
	jne	LBB84_16
Ltmp1239:
LBB84_15:
	.loc	1 0 22
	movq	-1552(%rbp), %rdi
	.loc	1 557 8 is_stmt 1
	callq	__ZN10ttf_parser4BBox10is_default17h5483f904fb472b2cE
	testb	$1, %al
	jne	LBB84_29
	jmp	LBB84_28
Ltmp1240:
LBB84_16:
	.loc	1 0 8 is_stmt 0
	movq	-1552(%rbp), %rdi
Ltmp1241:
	.loc	1 533 13 is_stmt 1
	movw	-716(%rbp), %ax
	movw	%ax, -708(%rbp)
	movl	-720(%rbp), %eax
	movl	%eax, -712(%rbp)
Ltmp1242:
	.loc	1 535 27
	movswl	-712(%rbp), %eax
	movw	%ax, %cx
	movw	%cx, -2(%rbp)
Ltmp1243:
	.loc	15 54 17
	cvtsi2ss	%eax, %xmm0
Ltmp1244:
	.loc	1 536 27
	movswl	-710(%rbp), %eax
	movw	%ax, %cx
	movw	%cx, -4(%rbp)
Ltmp1245:
	.loc	15 54 17
	cvtsi2ss	%eax, %xmm1
Ltmp1246:
	.loc	1 537 17
	movb	-708(%rbp), %cl
	.loc	1 538 17
	movb	-707(%rbp), %al
	.loc	1 534 13
	andb	$1, %cl
	andb	$1, %al
	movzbl	%cl, %esi
	movzbl	%al, %edx
	callq	__ZN10ttf_parser6tables4glyf7Builder10push_point17ha34910f0d1ea67c1E
	jmp	LBB84_14
Ltmp1247:
LBB84_17:
	.loc	1 0 13 is_stmt 0
	leaq	-1536(%rbp), %rdi
	.loc	1 543 45 is_stmt 1
	callq	__ZN10ttf_parser6parser6Stream4tail17h9f186e7a15c765e2E
	movq	%rax, %rdi
	movq	%rdx, %rsi
	callq	__ZN75_$LT$core..option..Option$LT$T$GT$$u20$as$u20$core..ops..try_trait..Try$GT$6branch17h05a07538bea0c9baE
	movq	%rdx, -648(%rbp)
	movq	%rax, -656(%rbp)
	movq	-656(%rbp), %rdx
	xorl	%eax, %eax
	movl	$1, %ecx
	cmpq	$0, %rdx
	cmoveq	%rcx, %rax
	cmpq	$0, %rax
	jne	LBB84_19
Ltmp1248:
	movq	-656(%rbp), %rsi
	movq	-648(%rbp), %rdx
	movq	%rsi, -56(%rbp)
	movq	%rdx, -48(%rbp)
	.loc	1 543 21 is_stmt 0
	leaq	-680(%rbp), %rdi
	callq	__ZN10ttf_parser6tables4glyf18CompositeGlyphIter3new17h6398eb2c14fb50afE
	leaq	-704(%rbp), %rdi
	leaq	-680(%rbp), %rsi
	callq	__ZN63_$LT$I$u20$as$u20$core..iter..traits..collect..IntoIterator$GT$9into_iter17hfa78580330e2f5faE
	movq	-704(%rbp), %rax
	movq	%rax, -640(%rbp)
	movq	-696(%rbp), %rax
	movq	%rax, -632(%rbp)
	movq	-688(%rbp), %rax
	movq	%rax, -624(%rbp)
Ltmp1249:
	.loc	1 543 9
	jmp	LBB84_20
Ltmp1250:
LBB84_19:
	.loc	1 0 9
	movq	-1568(%rbp), %rdi
Ltmp1251:
	.loc	1 543 45
	callq	__ZN84_$LT$core..option..Option$LT$T$GT$$u20$as$u20$core..ops..try_trait..FromResidual$GT$13from_residual17h0a7eb73a1308ab96E
	jmp	LBB84_3
Ltmp1252:
LBB84_20:
	.loc	1 543 21
	leaq	-616(%rbp), %rdi
	leaq	-640(%rbp), %rsi
	callq	__ZN103_$LT$ttf_parser..tables..glyf..CompositeGlyphIter$u20$as$u20$core..iter..traits..iterator..Iterator$GT$4next17h4fd445533fbba9ceE
	movl	-616(%rbp), %eax
	cmpq	$0, %rax
	je	LBB84_15
Ltmp1253:
	.loc	1 0 21
	movq	-1576(%rbp), %rsi
	.loc	1 543 13
	movq	-612(%rbp), %rax
	movq	%rax, -584(%rbp)
	movq	-604(%rbp), %rax
	movq	%rax, -576(%rbp)
	movq	-596(%rbp), %rax
	movq	%rax, -568(%rbp)
	movl	-588(%rbp), %eax
	movl	%eax, -560(%rbp)
Ltmp1254:
	.loc	1 544 34 is_stmt 1
	leaq	-552(%rbp), %rdi
	movzwl	-560(%rbp), %edx
	callq	__ZN10ttf_parser6tables4loca5Table11glyph_range17h749f880f72f9530dE
	.loc	1 544 20 is_stmt 0
	cmpq	$1, -552(%rbp)
	jne	LBB84_20
Ltmp1255:
	.loc	1 0 20
	movq	-1592(%rbp), %rsi
	movq	-1584(%rbp), %rdi
	.loc	1 544 25
	movq	-544(%rbp), %rdx
	movq	-536(%rbp), %rcx
	movq	%rdx, -40(%rbp)
	movq	%rcx, -32(%rbp)
Ltmp1256:
	.loc	1 545 43 is_stmt 1
	callq	__ZN4core5slice29_$LT$impl$u20$$u5b$T$u5d$$GT$3get17hd69a02a710496827E
	movq	%rdx, -520(%rbp)
	movq	%rax, -528(%rbp)
	.loc	1 545 24 is_stmt 0
	movq	-528(%rbp), %rdx
	movl	$1, %eax
	xorl	%ecx, %ecx
	cmpq	$0, %rdx
	cmoveq	%rcx, %rax
	cmpq	$1, %rax
	jne	LBB84_20
Ltmp1257:
	.loc	1 0 24
	movq	-1552(%rbp), %rax
	.loc	1 545 29
	movq	-528(%rbp), %rdx
	movq	%rdx, -1640(%rbp)
	movq	-520(%rbp), %rcx
	movq	%rcx, -1632(%rbp)
	movq	%rdx, -24(%rbp)
	movq	%rcx, -16(%rbp)
	.loc	1 546 56 is_stmt 1
	movq	32(%rax), %rcx
	movq	%rcx, -488(%rbp)
	movq	40(%rax), %rcx
	movq	%rcx, -480(%rbp)
	movq	48(%rax), %rax
	movq	%rax, -472(%rbp)
	.loc	1 546 75 is_stmt 0
	movq	-584(%rbp), %rax
	movq	%rax, -464(%rbp)
	movq	-576(%rbp), %rax
	movq	%rax, -456(%rbp)
	movq	-568(%rbp), %rax
	movq	%rax, -448(%rbp)
	.loc	1 546 37
	leaq	-512(%rbp), %rdi
	leaq	-488(%rbp), %rsi
	leaq	-464(%rbp), %rdx
	callq	__ZN10ttf_parser6tables4glyf9Transform7combine17h1fa32df84a348061E
	movq	-1552(%rbp), %rax
Ltmp1258:
	.loc	1 547 46 is_stmt 1
	movq	-512(%rbp), %rcx
	movq	%rcx, -344(%rbp)
	movq	-504(%rbp), %rcx
	movq	%rcx, -336(%rbp)
	movq	-496(%rbp), %rcx
	movq	%rcx, -328(%rbp)
	.loc	1 547 57 is_stmt 0
	movq	(%rax), %rcx
	movq	%rcx, -320(%rbp)
	movq	8(%rax), %rcx
	movq	%rcx, -312(%rbp)
	.loc	1 547 71
	movq	16(%rax), %rcx
	movq	24(%rax), %r8
	.loc	1 547 33
	leaq	-440(%rbp), %rdi
	leaq	-344(%rbp), %rsi
	leaq	-320(%rbp), %rdx
	callq	__ZN10ttf_parser6tables4glyf7Builder3new17h42ead3d054c589b9E
	movq	-1576(%rbp), %rcx
	movb	-1537(%rbp), %al
Ltmp1259:
	.loc	1 548 34 is_stmt 1
	movq	(%rcx), %rdx
	movq	%rdx, -272(%rbp)
	movq	8(%rcx), %rdx
	movq	%rdx, -264(%rbp)
	movq	16(%rcx), %rcx
	movq	%rcx, -256(%rbp)
	.loc	1 548 70 is_stmt 0
	addb	$1, %al
	movb	%al, -1621(%rbp)
	setb	%al
	testb	$1, %al
	jne	LBB84_25
Ltmp1260:
	.loc	1 0 70
	movb	-1621(%rbp), %r10b
	movq	-1632(%rbp), %r9
	movq	-1640(%rbp), %r8
	movq	-1592(%rbp), %rcx
	movq	-1584(%rbp), %rdx
	.loc	1 548 21
	leaq	-288(%rbp), %rdi
	leaq	-272(%rbp), %rsi
	leaq	-440(%rbp), %rax
	movzbl	%r10b, %r10d
	movl	%r10d, (%rsp)
	movq	%rax, 8(%rsp)
	callq	__ZN10ttf_parser6tables4glyf12outline_impl17ha5282c73f81c3425E
	leaq	-304(%rbp), %rdi
	leaq	-288(%rbp), %rsi
	callq	__ZN75_$LT$core..option..Option$LT$T$GT$$u20$as$u20$core..ops..try_trait..Try$GT$6branch17hc3dcecb3f8b42b7eE
	xorl	%eax, %eax
	movl	$1, %ecx
	cmpw	$2, -304(%rbp)
	cmoveq	%rcx, %rax
	cmpq	$0, %rax
	je	LBB84_26
	jmp	LBB84_27
Ltmp1261:
LBB84_25:
	.loc	1 548 70
	leaq	_str.0(%rip), %rdi
	leaq	l___unnamed_30(%rip), %rdx
	movl	$28, %esi
	callq	__ZN4core9panicking5panic17hc1bc45270cf64b03E
Ltmp1262:
LBB84_26:
	.loc	1 0 70
	movq	-1552(%rbp), %rax
	.loc	1 548 21
	movq	-304(%rbp), %rcx
	movq	%rcx, -248(%rbp)
	movw	-296(%rbp), %cx
	movw	%cx, -240(%rbp)
	.loc	1 551 36 is_stmt 1
	movq	-440(%rbp), %rcx
	movq	%rcx, -232(%rbp)
	movq	-432(%rbp), %rcx
	movq	%rcx, -224(%rbp)
	.loc	1 551 21 is_stmt 0
	movq	-232(%rbp), %rcx
	movq	%rcx, (%rax)
	movq	-224(%rbp), %rcx
	movq	%rcx, 8(%rax)
Ltmp1263:
	.loc	1 545 17 is_stmt 1
	jmp	LBB84_20
Ltmp1264:
LBB84_27:
	.loc	1 0 17 is_stmt 0
	movq	-1568(%rbp), %rdi
Ltmp1265:
	.loc	1 548 21 is_stmt 1
	callq	__ZN84_$LT$core..option..Option$LT$T$GT$$u20$as$u20$core..ops..try_trait..FromResidual$GT$13from_residual17h0a7eb73a1308ab96E
	jmp	LBB84_3
Ltmp1266:
LBB84_28:
	.loc	1 0 21 is_stmt 0
	movq	-1552(%rbp), %rax
	.loc	1 561 10 is_stmt 1
	movq	(%rax), %rcx
	movq	%rcx, -184(%rbp)
	movq	8(%rax), %rax
	movq	%rax, -176(%rbp)
	leaq	-200(%rbp), %rdi
	leaq	-184(%rbp), %rsi
	callq	__ZN10ttf_parser4BBox7to_rect17hef4517872d28d189E
	movq	-1568(%rbp), %rax
	.loc	1 561 5 is_stmt 0
	movq	-200(%rbp), %rcx
	movq	%rcx, (%rax)
	movw	-192(%rbp), %cx
	movw	%cx, 8(%rax)
Ltmp1267:
	.loc	1 562 2 is_stmt 1
	jmp	LBB84_3
Ltmp1268:
LBB84_29:
	.loc	1 0 2 is_stmt 0
	movq	-1568(%rbp), %rax
Ltmp1269:
	.loc	1 558 21 is_stmt 1
	movw	$0, -216(%rbp)
	.loc	1 558 16 is_stmt 0
	movq	-216(%rbp), %rcx
	movq	%rcx, (%rax)
	movw	-208(%rbp), %cx
	movw	%cx, 8(%rax)
	.file	34 "/Users/natalie/.cargo/registry/src/github.com-1ecc6299db9ec823/ab_glyph-0.2.18" "src/lib.rs"
	.loc	34 1 1 is_stmt 1
	jmp	LBB84_3
Ltmp1270:
Lfunc_end84:
	.cfi_endproc

	.p2align	4, 0x90
__ZN10ttf_parser6tables4glyf13EndpointsIter3new17h646eae7a773383adE:
Lfunc_begin85:
	.loc	1 357 0
	.cfi_startproc
	pushq	%rbp
	.cfi_def_cfa_offset 16
	.cfi_offset %rbp, -16
	movq	%rsp, %rbp
	.cfi_def_cfa_register %rbp
	subq	$96, %rsp
	movq	%rdi, -88(%rbp)
	movq	%rdi, -80(%rbp)
	movq	%rsi, -56(%rbp)
	movq	%rdx, -48(%rbp)
Ltmp1271:
	.loc	1 359 13 prologue_end
	movq	-56(%rbp), %rax
	movq	%rax, -72(%rbp)
	movq	-48(%rbp), %rax
	movq	%rax, -64(%rbp)
	leaq	-56(%rbp), %rdi
	xorl	%esi, %esi
	.loc	1 361 19
	callq	__ZN10ttf_parser6parser20LazyArray16$LT$T$GT$3get17h94de7bc18aecee61E
	movw	%ax, %di
	movw	%dx, %si
	callq	__ZN75_$LT$core..option..Option$LT$T$GT$$u20$as$u20$core..ops..try_trait..Try$GT$6branch17h56657c8359385836E
	movw	%dx, -14(%rbp)
	movw	%ax, -16(%rbp)
	movzwl	-16(%rbp), %eax
	cmpq	$0, %rax
	jne	LBB85_2
	.loc	1 0 19 is_stmt 0
	movq	-88(%rbp), %rax
	movq	-64(%rbp), %rdx
	movq	-72(%rbp), %rsi
	.loc	1 361 19
	movw	-14(%rbp), %cx
	movw	%cx, -2(%rbp)
	.loc	1 358 14 is_stmt 1
	movq	%rsi, -40(%rbp)
	movq	%rdx, -32(%rbp)
	movw	$1, -24(%rbp)
	movw	%cx, -22(%rbp)
	.loc	1 358 9 is_stmt 0
	movq	-40(%rbp), %rcx
	movq	%rcx, (%rax)
	movq	-32(%rbp), %rcx
	movq	%rcx, 8(%rax)
	movq	-24(%rbp), %rcx
	movq	%rcx, 16(%rax)
	.loc	1 363 6 is_stmt 1
	jmp	LBB85_3
LBB85_2:
	.loc	1 0 6 is_stmt 0
	movq	-88(%rbp), %rdi
Ltmp1272:
	.loc	1 361 19 is_stmt 1
	callq	__ZN84_$LT$core..option..Option$LT$T$GT$$u20$as$u20$core..ops..try_trait..FromResidual$GT$13from_residual17hb70b2cc36a1f67d4E
Ltmp1273:
LBB85_3:
	.loc	1 0 19 is_stmt 0
	movq	-80(%rbp), %rax
	.loc	1 363 6 is_stmt 1
	addq	$96, %rsp
	popq	%rbp
	retq
Ltmp1274:
Lfunc_end85:
	.cfi_endproc

	.p2align	4, 0x90
__ZN10ttf_parser6tables4glyf13EndpointsIter4next17hc03f83325ecef45cE:
Lfunc_begin86:
	.loc	1 366 0
	.cfi_startproc
	pushq	%rbp
	.cfi_def_cfa_offset 16
	.cfi_offset %rbp, -16
	movq	%rsp, %rbp
	.cfi_def_cfa_register %rbp
	subq	$80, %rsp
	movq	%rdi, -64(%rbp)
	movq	%rdi, -32(%rbp)
Ltmp1275:
	.loc	1 367 12 prologue_end
	cmpw	$0, 18(%rdi)
	jne	LBB86_2
	.loc	1 0 12 is_stmt 0
	movq	-64(%rbp), %rdi
Ltmp1276:
	.loc	1 368 32 is_stmt 1
	movl	16(%rdi), %esi
	callq	__ZN10ttf_parser6parser20LazyArray16$LT$T$GT$3get17h94de7bc18aecee61E
	movw	%dx, -46(%rbp)
	movw	%ax, -48(%rbp)
	.loc	1 368 20 is_stmt 0
	movzwl	-48(%rbp), %eax
	cmpq	$1, %rax
	je	LBB86_6
	jmp	LBB86_7
Ltmp1277:
LBB86_2:
	.loc	1 0 20
	movq	-64(%rbp), %rax
	.loc	1 383 13 is_stmt 1
	movw	18(%rax), %ax
	movw	%ax, %cx
	subw	$1, %cx
	movw	%cx, -66(%rbp)
	cmpw	$1, %ax
	setb	%al
	testb	$1, %al
	jne	LBB86_4
	.loc	1 0 13 is_stmt 0
	movq	-64(%rbp), %rax
	movw	-66(%rbp), %cx
	.loc	1 383 13
	movw	%cx, 18(%rax)
	.loc	1 384 13 is_stmt 1
	movb	$0, -49(%rbp)
	.loc	1 367 9
	jmp	LBB86_5
LBB86_4:
	.loc	1 383 13
	leaq	_str.2(%rip), %rdi
	leaq	l___unnamed_31(%rip), %rdx
	movl	$33, %esi
	callq	__ZN4core9panicking5panic17hc1bc45270cf64b03E
LBB86_5:
	.loc	1 386 6
	movb	-49(%rbp), %al
	andb	$1, %al
	movzbl	%al, %eax
	addq	$80, %rsp
	popq	%rbp
	retq
LBB86_6:
	.loc	1 0 6 is_stmt 0
	movq	-64(%rbp), %rax
Ltmp1278:
	.loc	1 368 25 is_stmt 1
	movw	-46(%rbp), %cx
	movw	%cx, -70(%rbp)
	movw	%cx, -18(%rbp)
	.loc	1 369 47
	movw	16(%rax), %ax
	movw	%ax, %cx
	subw	$1, %cx
	movw	%cx, -68(%rbp)
	cmpw	$1, %ax
	setb	%al
	testb	$1, %al
	jne	LBB86_9
	jmp	LBB86_8
Ltmp1279:
LBB86_7:
	.loc	1 0 47 is_stmt 0
	movq	-64(%rbp), %rax
Ltmp1280:
	.loc	1 377 30 is_stmt 1
	movl	16(%rax), %edi
	movl	$1, %esi
	callq	__ZN4core3num21_$LT$impl$u20$u16$GT$11checked_add17h57ae7eefe4af90daE
	movw	%dx, -38(%rbp)
	movw	%ax, -40(%rbp)
	.loc	1 377 20 is_stmt 0
	movzwl	-40(%rbp), %eax
	cmpq	$1, %rax
	je	LBB86_10
	jmp	LBB86_11
Ltmp1281:
LBB86_8:
	.loc	1 0 20
	movq	-64(%rbp), %rdi
	movw	-68(%rbp), %ax
Ltmp1282:
	.loc	1 369 28 is_stmt 1
	movzwl	%ax, %esi
	callq	__ZN10ttf_parser6parser20LazyArray16$LT$T$GT$3get17h94de7bc18aecee61E
	movw	%ax, %cx
	movw	%dx, %ax
	xorl	%edx, %edx
	movzwl	%cx, %edi
	movzwl	%ax, %esi
	callq	__ZN4core6option15Option$LT$T$GT$9unwrap_or17hb83045d89b735368E
	movw	-70(%rbp), %si
	movw	%ax, %cx
	movq	-64(%rbp), %rax
	movw	%cx, -16(%rbp)
	movw	%si, -6(%rbp)
	movw	%cx, -4(%rbp)
	xorl	%edx, %edx
Ltmp1283:
	.loc	14 1070 13
	subw	%cx, %si
	movw	%si, %cx
	cmovbl	%edx, %ecx
	movw	%cx, -2(%rbp)
	movw	-2(%rbp), %cx
Ltmp1284:
	.loc	1 372 17
	movw	%cx, 18(%rax)
	.loc	1 373 29
	movw	18(%rax), %si
	movw	%si, -12(%rbp)
	movw	$1, -10(%rbp)
	xorl	%edx, %edx
Ltmp1285:
	.loc	14 1070 13
	subw	$1, %si
	movw	%si, %cx
	cmovbl	%edx, %ecx
	movw	%cx, -8(%rbp)
	movw	-8(%rbp), %cx
Ltmp1286:
	.loc	1 373 17
	movw	%cx, 18(%rax)
Ltmp1287:
	.loc	1 368 13
	jmp	LBB86_7
LBB86_9:
Ltmp1288:
	.loc	1 369 47
	leaq	_str.2(%rip), %rdi
	leaq	l___unnamed_32(%rip), %rdx
	movl	$33, %esi
	callq	__ZN4core9panicking5panic17hc1bc45270cf64b03E
Ltmp1289:
LBB86_10:
	.loc	1 0 47 is_stmt 0
	movq	-64(%rbp), %rax
Ltmp1290:
	.loc	1 377 25 is_stmt 1
	movw	-38(%rbp), %cx
	movw	%cx, -14(%rbp)
	.loc	1 378 17
	movw	%cx, 16(%rax)
Ltmp1291:
LBB86_11:
	.loc	1 381 13
	movb	$1, -49(%rbp)
	.loc	1 367 9
	jmp	LBB86_5
Ltmp1292:
Lfunc_end86:
	.cfi_endproc

	.p2align	4, 0x90
__ZN10ttf_parser6tables4glyf16SimpleGlyphFlags11repeat_flag17ha16482094218de3eE:
Lfunc_begin87:
	.loc	1 489 0
	.cfi_startproc
	pushq	%rbp
	.cfi_def_cfa_offset 16
	.cfi_offset %rbp, -16
	movq	%rsp, %rbp
	.cfi_def_cfa_register %rbp
	subq	$1, %rsp
	movb	%dil, %al
	movb	%al, -1(%rbp)
Ltmp1293:
	.loc	1 489 46 prologue_end
	andb	$8, %al
	cmpb	$0, %al
	setne	%al
	.loc	1 489 66 is_stmt 0
	andb	$1, %al
	movzbl	%al, %eax
	addq	$1, %rsp
	popq	%rbp
	retq
Ltmp1294:
Lfunc_end87:
	.cfi_endproc

	.p2align	4, 0x90
__ZN10ttf_parser6tables4glyf16SimpleGlyphFlags14on_curve_point17hfa57e8c5e85ccd7fE:
Lfunc_begin88:
	.loc	1 486 0 is_stmt 1
	.cfi_startproc
	pushq	%rbp
	.cfi_def_cfa_offset 16
	.cfi_offset %rbp, -16
	movq	%rsp, %rbp
	.cfi_def_cfa_register %rbp
	subq	$1, %rsp
	movb	%dil, %al
	movb	%al, -1(%rbp)
Ltmp1295:
	.loc	1 486 49 prologue_end
	andb	$1, %al
	cmpb	$0, %al
	setne	%al
	.loc	1 486 69 is_stmt 0
	andb	$1, %al
	movzbl	%al, %eax
	addq	$1, %rsp
	popq	%rbp
	retq
Ltmp1296:
Lfunc_end88:
	.cfi_endproc

	.p2align	4, 0x90
__ZN10ttf_parser6tables4glyf16SimpleGlyphFlags27x_is_same_or_positive_short17hbd8d6bf739821472E:
Lfunc_begin89:
	.loc	1 490 0 is_stmt 1
	.cfi_startproc
	pushq	%rbp
	.cfi_def_cfa_offset 16
	.cfi_offset %rbp, -16
	movq	%rsp, %rbp
	.cfi_def_cfa_register %rbp
	subq	$1, %rsp
	movb	%dil, %al
	movb	%al, -1(%rbp)
Ltmp1297:
	.loc	1 490 62 prologue_end
	andb	$16, %al
	cmpb	$0, %al
	setne	%al
	.loc	1 490 82 is_stmt 0
	andb	$1, %al
	movzbl	%al, %eax
	addq	$1, %rsp
	popq	%rbp
	retq
Ltmp1298:
Lfunc_end89:
	.cfi_endproc

	.p2align	4, 0x90
__ZN10ttf_parser6tables4glyf16SimpleGlyphFlags27y_is_same_or_positive_short17h69a618ffa07c7f80E:
Lfunc_begin90:
	.loc	1 491 0 is_stmt 1
	.cfi_startproc
	pushq	%rbp
	.cfi_def_cfa_offset 16
	.cfi_offset %rbp, -16
	movq	%rsp, %rbp
	.cfi_def_cfa_register %rbp
	subq	$1, %rsp
	movb	%dil, %al
	movb	%al, -1(%rbp)
Ltmp1299:
	.loc	1 491 62 prologue_end
	andb	$32, %al
	cmpb	$0, %al
	setne	%al
	.loc	1 491 82 is_stmt 0
	andb	$1, %al
	movzbl	%al, %eax
	addq	$1, %rsp
	popq	%rbp
	retq
Ltmp1300:
Lfunc_end90:
	.cfi_endproc

	.p2align	4, 0x90
__ZN10ttf_parser6tables4glyf16SimpleGlyphFlags7x_short17h58722d0303f4e4ffE:
Lfunc_begin91:
	.loc	1 487 0 is_stmt 1
	.cfi_startproc
	pushq	%rbp
	.cfi_def_cfa_offset 16
	.cfi_offset %rbp, -16
	movq	%rsp, %rbp
	.cfi_def_cfa_register %rbp
	subq	$1, %rsp
	movb	%dil, %al
	movb	%al, -1(%rbp)
Ltmp1301:
	.loc	1 487 42 prologue_end
	andb	$2, %al
	cmpb	$0, %al
	setne	%al
	.loc	1 487 62 is_stmt 0
	andb	$1, %al
	movzbl	%al, %eax
	addq	$1, %rsp
	popq	%rbp
	retq
Ltmp1302:
Lfunc_end91:
	.cfi_endproc

	.p2align	4, 0x90
__ZN10ttf_parser6tables4glyf16SimpleGlyphFlags7y_short17he96d69625e5e4092E:
Lfunc_begin92:
	.loc	1 488 0 is_stmt 1
	.cfi_startproc
	pushq	%rbp
	.cfi_def_cfa_offset 16
	.cfi_offset %rbp, -16
	movq	%rsp, %rbp
	.cfi_def_cfa_register %rbp
	subq	$1, %rsp
	movb	%dil, %al
	movb	%al, -1(%rbp)
Ltmp1303:
	.loc	1 488 42 prologue_end
	andb	$4, %al
	cmpb	$0, %al
	setne	%al
	.loc	1 488 62 is_stmt 0
	andb	$1, %al
	movzbl	%al, %eax
	addq	$1, %rsp
	popq	%rbp
	retq
Ltmp1304:
Lfunc_end92:
	.cfi_endproc

	.p2align	4, 0x90
__ZN10ttf_parser6tables4glyf18CompositeGlyphIter3new17h6398eb2c14fb50afE:
Lfunc_begin93:
	.loc	1 236 0 is_stmt 1
	.cfi_startproc
	pushq	%rbp
	.cfi_def_cfa_offset 16
	.cfi_offset %rbp, -16
	movq	%rsp, %rbp
	.cfi_def_cfa_register %rbp
	subq	$64, %rsp
	movq	%rdi, -56(%rbp)
	movq	%rdi, -48(%rbp)
	movq	%rsi, -16(%rbp)
	movq	%rdx, -8(%rbp)
Ltmp1305:
	.loc	1 238 21 prologue_end
	leaq	-40(%rbp), %rdi
	callq	__ZN10ttf_parser6parser6Stream3new17h61a7a24756ab0f82E
	movq	-56(%rbp), %rdi
	movq	-48(%rbp), %rax
	.loc	1 237 9
	movq	-40(%rbp), %rcx
	movq	%rcx, (%rdi)
	movq	-32(%rbp), %rcx
	movq	%rcx, 8(%rdi)
	movq	-24(%rbp), %rcx
	movq	%rcx, 16(%rdi)
	.loc	1 240 6
	addq	$64, %rsp
	popq	%rbp
	retq
Ltmp1306:
Lfunc_end93:
	.cfi_endproc

	.p2align	4, 0x90
__ZN10ttf_parser6tables4glyf19CompositeGlyphFlags15more_components17hb535c9adf3a68537E:
Lfunc_begin94:
	.loc	1 503 0
	.cfi_startproc
	pushq	%rbp
	.cfi_def_cfa_offset 16
	.cfi_offset %rbp, -16
	movq	%rsp, %rbp
	.cfi_def_cfa_register %rbp
	subq	$2, %rsp
	movw	%di, %ax
	movw	%ax, -2(%rbp)
Ltmp1307:
	.loc	1 503 54 prologue_end
	andw	$32, %ax
	cmpw	$0, %ax
	setne	%al
	.loc	1 503 76 is_stmt 0
	andb	$1, %al
	movzbl	%al, %eax
	addq	$2, %rsp
	popq	%rbp
	retq
Ltmp1308:
Lfunc_end94:
	.cfi_endproc

	.p2align	4, 0x90
__ZN10ttf_parser6tables4glyf19CompositeGlyphFlags15we_have_a_scale17hed8d2efad1473419E:
Lfunc_begin95:
	.loc	1 502 0 is_stmt 1
	.cfi_startproc
	pushq	%rbp
	.cfi_def_cfa_offset 16
	.cfi_offset %rbp, -16
	movq	%rsp, %rbp
	.cfi_def_cfa_register %rbp
	subq	$2, %rsp
	movw	%di, %ax
	movw	%ax, -2(%rbp)
Ltmp1309:
	.loc	1 502 54 prologue_end
	andw	$8, %ax
	cmpw	$0, %ax
	setne	%al
	.loc	1 502 76 is_stmt 0
	andb	$1, %al
	movzbl	%al, %eax
	addq	$2, %rsp
	popq	%rbp
	retq
Ltmp1310:
Lfunc_end95:
	.cfi_endproc

	.p2align	4, 0x90
__ZN10ttf_parser6tables4glyf19CompositeGlyphFlags18args_are_xy_values17h6cb3fe2ac3f5ec44E:
Lfunc_begin96:
	.loc	1 501 0 is_stmt 1
	.cfi_startproc
	pushq	%rbp
	.cfi_def_cfa_offset 16
	.cfi_offset %rbp, -16
	movq	%rsp, %rbp
	.cfi_def_cfa_register %rbp
	subq	$2, %rsp
	movw	%di, %ax
	movw	%ax, -2(%rbp)
Ltmp1311:
	.loc	1 501 57 prologue_end
	andw	$2, %ax
	cmpw	$0, %ax
	setne	%al
	.loc	1 501 79 is_stmt 0
	andb	$1, %al
	movzbl	%al, %eax
	addq	$2, %rsp
	popq	%rbp
	retq
Ltmp1312:
Lfunc_end96:
	.cfi_endproc

	.p2align	4, 0x90
__ZN10ttf_parser6tables4glyf19CompositeGlyphFlags20we_have_a_two_by_two17h93563db19d8fae7dE:
Lfunc_begin97:
	.loc	1 505 0 is_stmt 1
	.cfi_startproc
	pushq	%rbp
	.cfi_def_cfa_offset 16
	.cfi_offset %rbp, -16
	movq	%rsp, %rbp
	.cfi_def_cfa_register %rbp
	subq	$2, %rsp
	movw	%di, %ax
	movw	%ax, -2(%rbp)
Ltmp1313:
	.loc	1 505 59 prologue_end
	andw	$128, %ax
	cmpw	$0, %ax
	setne	%al
	.loc	1 505 81 is_stmt 0
	andb	$1, %al
	movzbl	%al, %eax
	addq	$2, %rsp
	popq	%rbp
	retq
Ltmp1314:
Lfunc_end97:
	.cfi_endproc

	.p2align	4, 0x90
__ZN10ttf_parser6tables4glyf19CompositeGlyphFlags21arg_1_and_2_are_words17hab7fed2b9bbd9e38E:
Lfunc_begin98:
	.loc	1 500 0 is_stmt 1
	.cfi_startproc
	pushq	%rbp
	.cfi_def_cfa_offset 16
	.cfi_offset %rbp, -16
	movq	%rsp, %rbp
	.cfi_def_cfa_register %rbp
	subq	$2, %rsp
	movw	%di, %ax
	movw	%ax, -2(%rbp)
Ltmp1315:
	.loc	1 500 60 prologue_end
	andw	$1, %ax
	cmpw	$0, %ax
	setne	%al
	.loc	1 500 82 is_stmt 0
	andb	$1, %al
	movzbl	%al, %eax
	addq	$2, %rsp
	popq	%rbp
	retq
Ltmp1316:
Lfunc_end98:
	.cfi_endproc

	.p2align	4, 0x90
__ZN10ttf_parser6tables4glyf19CompositeGlyphFlags24we_have_an_x_and_y_scale17hcfd32c5b59f3323cE:
Lfunc_begin99:
	.loc	1 504 0 is_stmt 1
	.cfi_startproc
	pushq	%rbp
	.cfi_def_cfa_offset 16
	.cfi_offset %rbp, -16
	movq	%rsp, %rbp
	.cfi_def_cfa_register %rbp
	subq	$2, %rsp
	movw	%di, %ax
	movw	%ax, -2(%rbp)
Ltmp1317:
	.loc	1 504 63 prologue_end
	andw	$64, %ax
	cmpw	$0, %ax
	setne	%al
	.loc	1 504 85 is_stmt 0
	andb	$1, %al
	movzbl	%al, %eax
	addq	$2, %rsp
	popq	%rbp
	retq
Ltmp1318:
Lfunc_end99:
	.cfi_endproc

	.p2align	4, 0x90
__ZN10ttf_parser6tables4glyf20parse_simple_outline17h1b88548047bc88ddE:
Lfunc_begin100:
	.loc	1 565 0 is_stmt 1
	.cfi_startproc
	pushq	%rbp
	.cfi_def_cfa_offset 16
	.cfi_offset %rbp, -16
	movq	%rsp, %rbp
	.cfi_def_cfa_register %rbp
	subq	$992, %rsp
	movq	%rdx, -936(%rbp)
	movq	%rsi, -928(%rbp)
	movq	%rdi, -920(%rbp)
	movw	%cx, %ax
	movw	%ax, -898(%rbp)
	movq	%rdi, -912(%rbp)
	movq	%rsi, -232(%rbp)
	movq	%rdx, -224(%rbp)
	movw	%ax, -210(%rbp)
	leaq	-888(%rbp), %rdi
	movq	%rdi, -896(%rbp)
Ltmp1319:
	.loc	1 569 17 prologue_end
	callq	__ZN10ttf_parser6parser6Stream3new17h61a7a24756ab0f82E
	movw	-898(%rbp), %ax
Ltmp1320:
	.loc	1 570 43
	movw	%ax, %di
	callq	__ZN4core3num7nonzero10NonZeroU163get17hafc94e0a03dfa39aE
	movq	-896(%rbp), %rdi
	.loc	1 570 21 is_stmt 0
	movw	%ax, %si
	callq	__ZN10ttf_parser6parser6Stream12read_array1617hfe98745897a6f856E
	movq	%rax, %rdi
	movq	%rdx, %rsi
	callq	__ZN75_$LT$core..option..Option$LT$T$GT$$u20$as$u20$core..ops..try_trait..Try$GT$6branch17h58cd4907944973c5E
	movq	%rdx, -840(%rbp)
	movq	%rax, -848(%rbp)
	movq	-848(%rbp), %rdx
	xorl	%eax, %eax
	movl	$1, %ecx
	cmpq	$0, %rdx
	cmoveq	%rcx, %rax
	cmpq	$0, %rax
	jne	LBB100_2
	movq	-848(%rbp), %rcx
	movq	-840(%rbp), %rax
	movq	%rcx, -136(%rbp)
	movq	%rax, -128(%rbp)
Ltmp1321:
	.loc	1 570 21
	movq	%rcx, -864(%rbp)
	movq	%rax, -856(%rbp)
	leaq	-864(%rbp), %rdi
Ltmp1322:
	.loc	1 572 24 is_stmt 1
	callq	__ZN10ttf_parser6parser20LazyArray16$LT$T$GT$4last17h7bb4ef46878a31acE
	movw	%ax, %di
	movw	%dx, %si
	callq	__ZN75_$LT$core..option..Option$LT$T$GT$$u20$as$u20$core..ops..try_trait..Try$GT$6branch17h56657c8359385836E
	movw	%dx, -822(%rbp)
	movw	%ax, -824(%rbp)
	movzwl	-824(%rbp), %eax
	cmpq	$0, %rax
	je	LBB100_4
	jmp	LBB100_5
Ltmp1323:
LBB100_2:
	.loc	1 0 24 is_stmt 0
	movq	-920(%rbp), %rdi
Ltmp1324:
	.loc	1 570 21 is_stmt 1
	callq	__ZN84_$LT$core..option..Option$LT$T$GT$$u20$as$u20$core..ops..try_trait..FromResidual$GT$13from_residual17hf57532dbed568517E
Ltmp1325:
LBB100_3:
	.loc	1 0 21 is_stmt 0
	movq	-912(%rbp), %rax
	.loc	1 597 2 is_stmt 1
	addq	$992, %rsp
	popq	%rbp
	retq
LBB100_4:
Ltmp1326:
	.loc	1 572 24
	movzwl	-822(%rbp), %edi
	movw	%di, %ax
	movw	%ax, -114(%rbp)
	movl	$1, %esi
	callq	__ZN4core3num21_$LT$impl$u20$u16$GT$11checked_add17h57ae7eefe4af90daE
	movw	%ax, %di
	movw	%dx, %si
	callq	__ZN75_$LT$core..option..Option$LT$T$GT$$u20$as$u20$core..ops..try_trait..Try$GT$6branch17h56657c8359385836E
	movw	%dx, -830(%rbp)
	movw	%ax, -832(%rbp)
	movzwl	-832(%rbp), %eax
	cmpq	$0, %rax
	je	LBB100_6
	jmp	LBB100_7
LBB100_5:
	.loc	1 0 24 is_stmt 0
	movq	-920(%rbp), %rdi
Ltmp1327:
	.loc	1 572 24
	callq	__ZN84_$LT$core..option..Option$LT$T$GT$$u20$as$u20$core..ops..try_trait..FromResidual$GT$13from_residual17hf57532dbed568517E
	jmp	LBB100_3
Ltmp1328:
LBB100_6:
	.loc	1 572 24
	movw	-830(%rbp), %ax
	movw	%ax, -938(%rbp)
	movw	%ax, -112(%rbp)
Ltmp1329:
	.loc	1 572 24
	movw	%ax, -110(%rbp)
Ltmp1330:
	.loc	1 576 8 is_stmt 1
	cmpw	$1, %ax
	je	LBB100_8
	jmp	LBB100_9
Ltmp1331:
LBB100_7:
	.loc	1 0 8 is_stmt 0
	movq	-920(%rbp), %rdi
Ltmp1332:
	.loc	1 572 24 is_stmt 1
	callq	__ZN84_$LT$core..option..Option$LT$T$GT$$u20$as$u20$core..ops..try_trait..FromResidual$GT$13from_residual17hf57532dbed568517E
	jmp	LBB100_3
Ltmp1333:
LBB100_8:
	.loc	1 577 21
	leaq	-816(%rbp), %rdi
	callq	__ZN84_$LT$ttf_parser..tables..glyf..GlyphPointsIter$u20$as$u20$core..default..Default$GT$7default17hd0418f8759afe9d3E
	movq	-920(%rbp), %rdi
	.loc	1 577 16 is_stmt 0
	leaq	-816(%rbp), %rsi
	movl	$128, %edx
	callq	_memcpy
	.loc	34 1 1 is_stmt 1
	jmp	LBB100_3
LBB100_9:
	.loc	34 0 1 is_stmt 0
	leaq	-888(%rbp), %rdi
	.loc	1 581 28 is_stmt 1
	callq	__ZN10ttf_parser6parser6Stream4read17h53fa956783463716E
	movw	%ax, %di
	movw	%dx, %si
	callq	__ZN75_$LT$core..option..Option$LT$T$GT$$u20$as$u20$core..ops..try_trait..Try$GT$6branch17h56657c8359385836E
	movw	%dx, -686(%rbp)
	movw	%ax, -688(%rbp)
	movzwl	-688(%rbp), %eax
	cmpq	$0, %rax
	jne	LBB100_11
	movw	-686(%rbp), %ax
	movw	%ax, -108(%rbp)
Ltmp1334:
	.loc	1 581 28 is_stmt 0
	movw	%ax, -106(%rbp)
	movw	%ax, -2(%rbp)
Ltmp1335:
	.loc	15 54 17 is_stmt 1
	movzwl	%ax, %eax
	movl	%eax, %esi
Ltmp1336:
	.loc	1 582 5
	leaq	-888(%rbp), %rdi
	callq	__ZN10ttf_parser6parser6Stream7advance17h9342a9b7f326f321E
	.loc	1 584 24
	leaq	-888(%rbp), %rdi
	callq	__ZN10ttf_parser6parser6Stream6offset17h8b637208ce4b2299E
	movq	%rax, %rcx
	movw	-938(%rbp), %ax
	movq	%rcx, -952(%rbp)
	movq	%rcx, -104(%rbp)
Ltmp1337:
	.loc	1 585 40
	leaq	-664(%rbp), %rdi
	leaq	-888(%rbp), %rsi
	movzwl	%ax, %edx
	callq	__ZN10ttf_parser6tables4glyf18resolve_coords_len17hb7feb0b3fa437225E
	leaq	-680(%rbp), %rdi
	leaq	-664(%rbp), %rsi
	callq	__ZN75_$LT$core..option..Option$LT$T$GT$$u20$as$u20$core..ops..try_trait..Try$GT$6branch17h36a5b1340cf4bf74E
	movl	-680(%rbp), %eax
	cmpq	$0, %rax
	je	LBB100_12
	jmp	LBB100_13
Ltmp1338:
LBB100_11:
	.loc	1 0 40 is_stmt 0
	movq	-920(%rbp), %rdi
Ltmp1339:
	.loc	1 581 28 is_stmt 1
	callq	__ZN84_$LT$core..option..Option$LT$T$GT$$u20$as$u20$core..ops..try_trait..FromResidual$GT$13from_residual17hf57532dbed568517E
	jmp	LBB100_3
Ltmp1340:
LBB100_12:
	.loc	1 585 40
	movl	-676(%rbp), %ecx
	movl	%ecx, -972(%rbp)
	movl	-672(%rbp), %eax
	movl	%eax, -976(%rbp)
	movl	%ecx, -96(%rbp)
	movl	%eax, -92(%rbp)
	.loc	1 585 10 is_stmt 0
	movl	%ecx, -88(%rbp)
	.loc	1 585 24
	movl	%eax, -84(%rbp)
Ltmp1341:
	.loc	1 586 27 is_stmt 1
	leaq	-888(%rbp), %rdi
	callq	__ZN10ttf_parser6parser6Stream6offset17h8b637208ce4b2299E
	movl	-972(%rbp), %edi
	movq	%rax, -968(%rbp)
	movq	%rax, -80(%rbp)
Ltmp1342:
	.loc	1 587 45
	callq	__ZN64_$LT$usize$u20$as$u20$ttf_parser..parser..NumFrom$LT$u32$GT$$GT$8num_from17hbdbf446e9d081f51E
	movq	%rax, %rcx
	movq	-968(%rbp), %rax
	.loc	1 587 27 is_stmt 0
	addq	%rcx, %rax
	movq	%rax, -960(%rbp)
	setb	%al
	testb	$1, %al
	jne	LBB100_15
	jmp	LBB100_14
Ltmp1343:
LBB100_13:
	.loc	1 0 27
	movq	-920(%rbp), %rdi
Ltmp1344:
	.loc	1 585 40 is_stmt 1
	callq	__ZN84_$LT$core..option..Option$LT$T$GT$$u20$as$u20$core..ops..try_trait..FromResidual$GT$13from_residual17hf57532dbed568517E
	jmp	LBB100_3
Ltmp1345:
LBB100_14:
	.loc	1 0 40 is_stmt 0
	movq	-960(%rbp), %rax
	movl	-976(%rbp), %edi
Ltmp1346:
	.loc	1 587 27 is_stmt 1
	movq	%rax, -72(%rbp)
Ltmp1347:
	.loc	1 588 42
	callq	__ZN64_$LT$usize$u20$as$u20$ttf_parser..parser..NumFrom$LT$u32$GT$$GT$8num_from17hbdbf446e9d081f51E
	movq	%rax, %rcx
	movq	-960(%rbp), %rax
	.loc	1 588 24 is_stmt 0
	addq	%rcx, %rax
	movq	%rax, -984(%rbp)
	setb	%al
	testb	$1, %al
	jne	LBB100_17
	jmp	LBB100_16
Ltmp1348:
LBB100_15:
	.loc	1 587 27 is_stmt 1
	leaq	_str.0(%rip), %rdi
	leaq	l___unnamed_33(%rip), %rdx
	movl	$28, %esi
	callq	__ZN4core9panicking5panic17hc1bc45270cf64b03E
LBB100_16:
	.loc	1 0 27 is_stmt 0
	movq	-984(%rbp), %rax
Ltmp1349:
	.loc	1 588 24 is_stmt 1
	movq	%rax, -64(%rbp)
Ltmp1350:
	.loc	1 591 39
	movq	-864(%rbp), %rsi
	movq	-856(%rbp), %rdx
	.loc	1 591 20 is_stmt 0
	leaq	-472(%rbp), %rdi
	callq	__ZN10ttf_parser6tables4glyf13EndpointsIter3new17h646eae7a773383adE
	leaq	-496(%rbp), %rdi
	leaq	-472(%rbp), %rsi
	callq	__ZN75_$LT$core..option..Option$LT$T$GT$$u20$as$u20$core..ops..try_trait..Try$GT$6branch17h98a151d7a22e5466E
	movq	-496(%rbp), %rdx
	xorl	%eax, %eax
	movl	$1, %ecx
	cmpq	$0, %rdx
	cmoveq	%rcx, %rax
	cmpq	$0, %rax
	je	LBB100_18
	jmp	LBB100_19
Ltmp1351:
LBB100_17:
	.loc	1 588 24 is_stmt 1
	leaq	_str.0(%rip), %rdi
	leaq	l___unnamed_34(%rip), %rdx
	movl	$28, %esi
	callq	__ZN4core9panicking5panic17hc1bc45270cf64b03E
LBB100_18:
	.loc	1 0 24 is_stmt 0
	movq	-936(%rbp), %rsi
	movq	-928(%rbp), %rdi
	movq	-968(%rbp), %rax
	movq	-952(%rbp), %rcx
Ltmp1352:
	.loc	1 591 20 is_stmt 1
	movq	-480(%rbp), %rdx
	movq	%rdx, -432(%rbp)
	movq	-496(%rbp), %rdx
	movq	-488(%rbp), %r8
	movq	%r8, -440(%rbp)
	movq	%rdx, -448(%rbp)
Ltmp1353:
	.loc	1 591 20 is_stmt 0
	movq	-432(%rbp), %rdx
	movq	%rdx, -504(%rbp)
	movq	-448(%rbp), %rdx
	movq	-440(%rbp), %r8
	movq	%r8, -512(%rbp)
	movq	%rdx, -520(%rbp)
Ltmp1354:
	.loc	1 592 46 is_stmt 1
	movq	%rcx, -376(%rbp)
	movq	%rax, -368(%rbp)
	.loc	1 592 31 is_stmt 0
	movq	-376(%rbp), %rdx
	movq	-368(%rbp), %rcx
	callq	__ZN4core5slice29_$LT$impl$u20$$u5b$T$u5d$$GT$3get17hd69a02a710496827E
	movq	%rax, %rdi
	movq	%rdx, %rsi
	callq	__ZN75_$LT$core..option..Option$LT$T$GT$$u20$as$u20$core..ops..try_trait..Try$GT$6branch17h05a07538bea0c9baE
	movq	%rdx, -384(%rbp)
	movq	%rax, -392(%rbp)
	movq	-392(%rbp), %rdx
	xorl	%eax, %eax
	movl	$1, %ecx
	cmpq	$0, %rdx
	cmoveq	%rcx, %rax
	cmpq	$0, %rax
	je	LBB100_20
	jmp	LBB100_21
LBB100_19:
	.loc	1 0 31
	movq	-920(%rbp), %rdi
Ltmp1355:
	.loc	1 591 20 is_stmt 1
	callq	__ZN84_$LT$core..option..Option$LT$T$GT$$u20$as$u20$core..ops..try_trait..FromResidual$GT$13from_residual17hf57532dbed568517E
	jmp	LBB100_3
Ltmp1356:
LBB100_20:
	.loc	1 592 31
	movq	-392(%rbp), %rsi
	movq	-384(%rbp), %rdx
	movq	%rsi, -56(%rbp)
	movq	%rdx, -48(%rbp)
	leaq	-424(%rbp), %rdi
	.loc	1 592 16 is_stmt 0
	callq	__ZN10ttf_parser6tables4glyf9FlagsIter3new17heddb2a7e0eee2a0cE
	movq	-968(%rbp), %rcx
	movq	-960(%rbp), %rax
	movq	-928(%rbp), %rdi
	movq	-936(%rbp), %rsi
	.loc	1 593 50 is_stmt 1
	movq	%rcx, -312(%rbp)
	movq	%rax, -304(%rbp)
	.loc	1 593 35 is_stmt 0
	movq	-312(%rbp), %rdx
	movq	-304(%rbp), %rcx
	callq	__ZN4core5slice29_$LT$impl$u20$$u5b$T$u5d$$GT$3get17hd69a02a710496827E
	movq	%rax, %rdi
	movq	%rdx, %rsi
	callq	__ZN75_$LT$core..option..Option$LT$T$GT$$u20$as$u20$core..ops..try_trait..Try$GT$6branch17h05a07538bea0c9baE
	movq	%rdx, -320(%rbp)
	movq	%rax, -328(%rbp)
	movq	-328(%rbp), %rdx
	xorl	%eax, %eax
	movl	$1, %ecx
	cmpq	$0, %rdx
	cmoveq	%rcx, %rax
	cmpq	$0, %rax
	je	LBB100_22
	jmp	LBB100_23
LBB100_21:
	.loc	1 0 35
	movq	-920(%rbp), %rdi
Ltmp1357:
	.loc	1 592 31 is_stmt 1
	callq	__ZN84_$LT$core..option..Option$LT$T$GT$$u20$as$u20$core..ops..try_trait..FromResidual$GT$13from_residual17hf57532dbed568517E
	jmp	LBB100_3
Ltmp1358:
LBB100_22:
	.loc	1 593 35
	movq	-328(%rbp), %rsi
	movq	-320(%rbp), %rdx
	movq	%rsi, -40(%rbp)
	movq	%rdx, -32(%rbp)
	leaq	-360(%rbp), %rdi
	.loc	1 593 19 is_stmt 0
	callq	__ZN10ttf_parser6tables4glyf10CoordsIter3new17he100539eaed73edaE
	movq	-960(%rbp), %rcx
	movq	-984(%rbp), %rax
	movq	-928(%rbp), %rdi
	movq	-936(%rbp), %rsi
	.loc	1 594 50 is_stmt 1
	movq	%rcx, -248(%rbp)
	movq	%rax, -240(%rbp)
	.loc	1 594 35 is_stmt 0
	movq	-248(%rbp), %rdx
	movq	-240(%rbp), %rcx
	callq	__ZN4core5slice29_$LT$impl$u20$$u5b$T$u5d$$GT$3get17hd69a02a710496827E
	movq	%rax, %rdi
	movq	%rdx, %rsi
	callq	__ZN75_$LT$core..option..Option$LT$T$GT$$u20$as$u20$core..ops..try_trait..Try$GT$6branch17h05a07538bea0c9baE
	movq	%rdx, -256(%rbp)
	movq	%rax, -264(%rbp)
	movq	-264(%rbp), %rdx
	xorl	%eax, %eax
	movl	$1, %ecx
	cmpq	$0, %rdx
	cmoveq	%rcx, %rax
	cmpq	$0, %rax
	je	LBB100_24
	jmp	LBB100_25
LBB100_23:
	.loc	1 0 35
	movq	-920(%rbp), %rdi
Ltmp1359:
	.loc	1 593 35 is_stmt 1
	callq	__ZN84_$LT$core..option..Option$LT$T$GT$$u20$as$u20$core..ops..try_trait..FromResidual$GT$13from_residual17hf57532dbed568517E
	jmp	LBB100_3
Ltmp1360:
LBB100_24:
	.loc	1 594 35
	movq	-264(%rbp), %rsi
	movq	-256(%rbp), %rdx
	movq	%rsi, -24(%rbp)
	movq	%rdx, -16(%rbp)
	.loc	1 594 19 is_stmt 0
	leaq	-296(%rbp), %rdi
	callq	__ZN10ttf_parser6tables4glyf10CoordsIter3new17he100539eaed73edaE
	movw	-938(%rbp), %ax
	movq	-920(%rbp), %rdi
	.loc	1 590 10 is_stmt 1
	movq	-520(%rbp), %rcx
	movq	%rcx, -552(%rbp)
	movq	-512(%rbp), %rcx
	movq	%rcx, -544(%rbp)
	movq	-504(%rbp), %rcx
	movq	%rcx, -536(%rbp)
	movq	-424(%rbp), %rcx
	movq	%rcx, -648(%rbp)
	movq	-416(%rbp), %rcx
	movq	%rcx, -640(%rbp)
	movq	-408(%rbp), %rcx
	movq	%rcx, -632(%rbp)
	movq	-400(%rbp), %rcx
	movq	%rcx, -624(%rbp)
	movq	-360(%rbp), %rcx
	movq	%rcx, -616(%rbp)
	movq	-352(%rbp), %rcx
	movq	%rcx, -608(%rbp)
	movq	-344(%rbp), %rcx
	movq	%rcx, -600(%rbp)
	movq	-336(%rbp), %rcx
	movq	%rcx, -592(%rbp)
	movq	-296(%rbp), %rcx
	movq	%rcx, -584(%rbp)
	movq	-288(%rbp), %rcx
	movq	%rcx, -576(%rbp)
	movq	-280(%rbp), %rcx
	movq	%rcx, -568(%rbp)
	movq	-272(%rbp), %rcx
	movq	%rcx, -560(%rbp)
	movw	%ax, -528(%rbp)
	.loc	1 590 5 is_stmt 0
	leaq	-648(%rbp), %rsi
	movl	$128, %edx
	callq	_memcpy
Ltmp1361:
	.loc	1 597 2 is_stmt 1
	jmp	LBB100_3
LBB100_25:
	.loc	1 0 2 is_stmt 0
	movq	-920(%rbp), %rdi
Ltmp1362:
	.loc	1 594 35 is_stmt 1
	callq	__ZN84_$LT$core..option..Option$LT$T$GT$$u20$as$u20$core..ops..try_trait..FromResidual$GT$13from_residual17hf57532dbed568517E
	jmp	LBB100_3
Ltmp1363:
Lfunc_end100:
	.cfi_endproc

	.p2align	4, 0x90
__ZN10ttf_parser6tables4glyf5Point4lerp17h4928ee5857935eccE:
Lfunc_begin101:
	.loc	1 472 0
	.cfi_startproc
	pushq	%rbp
	.cfi_def_cfa_offset 16
	.cfi_offset %rbp, -16
	movq	%rsp, %rbp
	.cfi_def_cfa_register %rbp
	subq	$32, %rsp
	movaps	%xmm2, %xmm5
	movss	%xmm0, -24(%rbp)
	movss	%xmm1, -20(%rbp)
	movss	%xmm5, -16(%rbp)
	movss	%xmm3, -12(%rbp)
	movss	%xmm4, -4(%rbp)
Ltmp1364:
	.loc	1 474 29 prologue_end
	subss	%xmm0, %xmm5
	.loc	1 474 25 is_stmt 0
	movaps	%xmm4, %xmm2
	mulss	%xmm5, %xmm2
	.loc	1 474 16
	addss	%xmm2, %xmm0
	.loc	1 475 29 is_stmt 1
	subss	%xmm1, %xmm3
	.loc	1 475 25 is_stmt 0
	mulss	%xmm3, %xmm4
	.loc	1 475 16
	addss	%xmm4, %xmm1
	.loc	1 473 9 is_stmt 1
	movss	%xmm0, -32(%rbp)
	movss	%xmm1, -28(%rbp)
	.loc	1 477 6
	movss	-32(%rbp), %xmm0
	movss	-28(%rbp), %xmm1
	addq	$32, %rsp
	popq	%rbp
	retq
Ltmp1365:
Lfunc_end101:
	.cfi_endproc

	.p2align	4, 0x90
__ZN10ttf_parser6tables4glyf5Table3get17h5f251b1db4bbb0dbE:
Lfunc_begin102:
	.loc	1 684 0
	.cfi_startproc
	pushq	%rbp
	.cfi_def_cfa_offset 16
	.cfi_offset %rbp, -16
	movq	%rsp, %rbp
	.cfi_def_cfa_register %rbp
	subq	$128, %rsp
	movl	%esi, %eax
	movq	%rdi, %rsi
	movq	%rsi, -128(%rbp)
	movq	%rsi, -56(%rbp)
	movw	%ax, -42(%rbp)
Ltmp1366:
	.loc	1 685 21 prologue_end
	addq	$16, %rsi
	leaq	-80(%rbp), %rdi
	movzwl	%ax, %edx
	callq	__ZN10ttf_parser6tables4loca5Table11glyph_range17h749f880f72f9530dE
	leaq	-104(%rbp), %rdi
