	.section	__TEXT,__text,regular,pure_instructions
	.macosx_version_min 10, 7
	.globl	__ZN102_$LT$core..iter..adapters..zip..Zip$LT$A$C$B$GT$$u20$as$u20$core..iter..traits..iterator..Iterator$GT$4next17h0778e249a86db6c2E
	.p2align	4, 0x90
__ZN102_$LT$core..iter..adapters..zip..Zip$LT$A$C$B$GT$$u20$as$u20$core..iter..traits..iterator..Iterator$GT$4next17h0778e249a86db6c2E:
Lfunc_begin0:
	.file	1 "/rustc/2c8cc343237b8f7d5a3c3703e3a87f2eb2c54a74/library/core/src/iter/adapters" "zip.rs"
	.loc	1 83 0
	.cfi_startproc
	pushq	%rbp
	.cfi_def_cfa_offset 16
	.cfi_offset %rbp, -16
	movq	%rsp, %rbp
	.cfi_def_cfa_register %rbp
	subq	$16, %rsp
	movq	%rdi, -8(%rbp)
Ltmp0:
	.loc	1 84 9 prologue_end
	callq	__ZN111_$LT$core..iter..adapters..zip..Zip$LT$A$C$B$GT$$u20$as$u20$core..iter..adapters..zip..ZipImpl$LT$A$C$B$GT$$GT$4next17h43a34b8dc28cb834E
	.loc	1 85 6
	addq	$16, %rsp
	popq	%rbp
	retq
Ltmp1:
Lfunc_end0:
	.cfi_endproc

	.globl	__ZN111_$LT$core..iter..adapters..zip..Zip$LT$A$C$B$GT$$u20$as$u20$core..iter..adapters..zip..ZipImpl$LT$A$C$B$GT$$GT$3new17h06e7a9d8a14fe2e4E
	.p2align	4, 0x90
__ZN111_$LT$core..iter..adapters..zip..Zip$LT$A$C$B$GT$$u20$as$u20$core..iter..adapters..zip..ZipImpl$LT$A$C$B$GT$$GT$3new17h06e7a9d8a14fe2e4E:
Lfunc_begin1:
	.loc	1 262 0
	.cfi_startproc
	.cfi_personality 155, _rust_eh_personality
	.cfi_lsda 16, Lexception0
	pushq	%rbp
	.cfi_def_cfa_offset 16
	.cfi_offset %rbp, -16
	movq	%rsp, %rbp
	.cfi_def_cfa_register %rbp
	subq	$144, %rsp
	movq	%rdi, -120(%rbp)
	movq	%rdi, -112(%rbp)
	movq	%rsi, -96(%rbp)
	movq	%rdx, -88(%rbp)
	movq	%rcx, -80(%rbp)
	movq	%r8, -72(%rbp)
Ltmp2:
	leaq	-96(%rbp), %rdi
Ltmp9:
	.loc	1 263 21 prologue_end
	callq	__ZN4core4iter8adapters3zip27TrustedRandomAccessNoCoerce4size17h2da8f9e7f56b2785E
Ltmp3:
	movq	%rax, -104(%rbp)
	jmp	LBB1_3
LBB1_1:
	.loc	1 262 5
	movq	-64(%rbp), %rdi
	callq	__Unwind_Resume
LBB1_2:
Ltmp8:
	.loc	1 0 5 is_stmt 0
	movq	%rax, %rcx
	movl	%edx, %eax
	movq	%rcx, -64(%rbp)
	movl	%eax, -56(%rbp)
	jmp	LBB1_1
LBB1_3:
	movq	-104(%rbp), %rax
	.loc	1 263 21 is_stmt 1
	movq	%rax, -48(%rbp)
Ltmp10:
	.loc	1 264 28
	movq	%rax, -40(%rbp)
Ltmp4:
	leaq	-80(%rbp), %rdi
	.loc	1 264 35 is_stmt 0
	callq	__ZN4core4iter8adapters3zip27TrustedRandomAccessNoCoerce4size17h8e4ce139c8035b0dE
Ltmp5:
	movq	%rax, -128(%rbp)
	jmp	LBB1_4
LBB1_4:
	.loc	1 0 35
	movq	-128(%rbp), %rsi
	movq	-104(%rbp), %rdi
	.loc	1 264 35
	movq	%rsi, -32(%rbp)
Ltmp11:
	.file	2 "/rustc/2c8cc343237b8f7d5a3c3703e3a87f2eb2c54a74/library/core/src" "cmp.rs"
	.loc	2 1185 5 is_stmt 1
	movq	%rdi, -24(%rbp)
	.loc	2 1185 12 is_stmt 0
	movq	%rsi, -16(%rbp)
Ltmp6:
Ltmp12:
	.loc	2 833 13 is_stmt 1
	callq	__ZN4core3cmp6min_by17h8d2bddb5692d7b3eE
Ltmp7:
	movq	%rax, -136(%rbp)
	jmp	LBB1_5
LBB1_5:
	.loc	2 0 13 is_stmt 0
	movq	-112(%rbp), %rax
	movq	-120(%rbp), %rcx
	movq	-104(%rbp), %rdx
	movq	-136(%rbp), %rsi
	.loc	2 833 13
	movq	%rsi, -8(%rbp)
Ltmp13:
	.loc	1 265 15 is_stmt 1
	movq	-96(%rbp), %r10
	movq	-88(%rbp), %r9
	.loc	1 265 18 is_stmt 0
	movq	-80(%rbp), %r8
	movq	-72(%rbp), %rdi
	.loc	1 265 9
	movq	%r10, (%rcx)
	movq	%r9, 8(%rcx)
	movq	%r8, 16(%rcx)
	movq	%rdi, 24(%rcx)
	movq	$0, 32(%rcx)
	movq	%rsi, 40(%rcx)
	movq	%rdx, 48(%rcx)
Ltmp14:
	.loc	1 266 6 is_stmt 1
	addq	$144, %rsp
	popq	%rbp
	retq
Ltmp15:
Lfunc_end1:
	.cfi_endproc
	.section	__TEXT,__gcc_except_tab
	.p2align	2
GCC_except_table1:
Lexception0:
	.byte	255
	.byte	255
	.byte	1
	.uleb128 Lcst_end0-Lcst_begin0
Lcst_begin0:
	.uleb128 Ltmp2-Lfunc_begin1
	.uleb128 Ltmp3-Ltmp2
	.uleb128 Ltmp8-Lfunc_begin1
	.byte	0
	.uleb128 Ltmp3-Lfunc_begin1
	.uleb128 Ltmp4-Ltmp3
	.byte	0
	.byte	0
	.uleb128 Ltmp4-Lfunc_begin1
	.uleb128 Ltmp7-Ltmp4
	.uleb128 Ltmp8-Lfunc_begin1
	.byte	0
Lcst_end0:
	.p2align	2

	.section	__TEXT,__text,regular,pure_instructions
	.globl	__ZN111_$LT$core..iter..adapters..zip..Zip$LT$A$C$B$GT$$u20$as$u20$core..iter..adapters..zip..ZipImpl$LT$A$C$B$GT$$GT$4next17h43a34b8dc28cb834E
	.p2align	4, 0x90
__ZN111_$LT$core..iter..adapters..zip..Zip$LT$A$C$B$GT$$u20$as$u20$core..iter..adapters..zip..ZipImpl$LT$A$C$B$GT$$GT$4next17h43a34b8dc28cb834E:
Lfunc_begin2:
	.loc	1 269 0
	.cfi_startproc
	.cfi_personality 155, _rust_eh_personality
	.cfi_lsda 16, Lexception1
	pushq	%rbp
	.cfi_def_cfa_offset 16
	.cfi_offset %rbp, -16
	movq	%rsp, %rbp
	.cfi_def_cfa_register %rbp
	subq	$112, %rsp
	movq	%rdi, -88(%rbp)
	movq	%rdi, -40(%rbp)
Ltmp19:
	.loc	1 270 12 prologue_end
	movq	32(%rdi), %rax
	cmpq	40(%rdi), %rax
	jb	LBB2_2
	.loc	1 279 19
	xorl	%eax, %eax
	testb	$1, %al
	jne	LBB2_8
	jmp	LBB2_7
LBB2_2:
	.loc	1 0 19 is_stmt 0
	movq	-88(%rbp), %rdi
	.loc	1 271 21 is_stmt 1
	movq	32(%rdi), %rsi
	movq	%rsi, -112(%rbp)
	movq	%rsi, -32(%rbp)
Ltmp20:
	.loc	1 274 13
	movq	32(%rdi), %rax
	incq	%rax
	movq	%rax, 32(%rdi)
	.loc	1 277 23
	callq	__ZN94_$LT$core..slice..iter..IterMut$LT$T$GT$$u20$as$u20$core..iter..traits..iterator..Iterator$GT$24__iterator_get_unchecked17h6407be27cc7401afE
	movq	-88(%rbp), %rdi
	movq	-112(%rbp), %rsi
	movq	%rax, -104(%rbp)
	.loc	1 277 59 is_stmt 0
	addq	$16, %rdi
Ltmp16:
	callq	__ZN91_$LT$core..slice..iter..Iter$LT$T$GT$$u20$as$u20$core..iter..traits..iterator..Iterator$GT$24__iterator_get_unchecked17hc59fd88806974616E
Ltmp17:
	movq	%rax, -96(%rbp)
	jmp	LBB2_5
Ltmp21:
LBB2_3:
	.loc	1 269 5 is_stmt 1
	movq	-24(%rbp), %rdi
	callq	__Unwind_Resume
LBB2_4:
Ltmp18:
	.loc	1 0 5 is_stmt 0
	movq	%rax, %rcx
	movl	%edx, %eax
	movq	%rcx, -24(%rbp)
	movl	%eax, -16(%rbp)
	jmp	LBB2_3
LBB2_5:
	movq	-96(%rbp), %rax
	movq	-104(%rbp), %rcx
Ltmp22:
	.loc	1 277 22 is_stmt 1
	movq	%rcx, -64(%rbp)
	movq	%rax, -56(%rbp)
	.loc	1 277 17 is_stmt 0
	movq	-64(%rbp), %rcx
	movq	-56(%rbp), %rax
	movq	%rcx, -80(%rbp)
	movq	%rax, -72(%rbp)
Ltmp23:
LBB2_6:
	.loc	1 293 6 is_stmt 1
	movq	-80(%rbp), %rax
	movq	-72(%rbp), %rdx
	addq	$112, %rsp
	popq	%rbp
	retq
LBB2_7:
	.loc	1 279 19
	movb	$0, -41(%rbp)
	jmp	LBB2_9
LBB2_8:
	.loc	1 0 19 is_stmt 0
	movq	-88(%rbp), %rcx
	.loc	1 279 46
	movq	32(%rcx), %rax
	cmpq	48(%rcx), %rax
	setb	%al
	.loc	1 279 19
	andb	$1, %al
	movb	%al, -41(%rbp)
LBB2_9:
	testb	$1, -41(%rbp)
	jne	LBB2_11
	.loc	1 291 13 is_stmt 1
	movq	$0, -80(%rbp)
	.loc	1 279 16
	jmp	LBB2_12
LBB2_11:
	.loc	1 0 16 is_stmt 0
	movq	-88(%rbp), %rdi
	.loc	1 280 21 is_stmt 1
	movq	32(%rdi), %rsi
	movq	%rsi, -8(%rbp)
Ltmp24:
	.loc	1 282 13
	movq	32(%rdi), %rax
	addq	$1, %rax
	movq	%rax, 32(%rdi)
	.loc	1 283 13
	movq	40(%rdi), %rax
	addq	$1, %rax
	movq	%rax, 40(%rdi)
	.loc	1 287 17
	callq	__ZN94_$LT$core..slice..iter..IterMut$LT$T$GT$$u20$as$u20$core..iter..traits..iterator..Iterator$GT$24__iterator_get_unchecked17h6407be27cc7401afE
	.loc	1 289 13
	movq	$0, -80(%rbp)
Ltmp25:
LBB2_12:
	.loc	1 270 9
	jmp	LBB2_6
Ltmp26:
Lfunc_end2:
	.cfi_endproc
	.section	__TEXT,__gcc_except_tab
	.p2align	2
GCC_except_table2:
Lexception1:
	.byte	255
	.byte	255
	.byte	1
	.uleb128 Lcst_end1-Lcst_begin1
Lcst_begin1:
	.uleb128 Lfunc_begin2-Lfunc_begin2
	.uleb128 Ltmp16-Lfunc_begin2
	.byte	0
	.byte	0
	.uleb128 Ltmp16-Lfunc_begin2
	.uleb128 Ltmp17-Ltmp16
	.uleb128 Ltmp18-Lfunc_begin2
	.byte	0
	.uleb128 Ltmp17-Lfunc_begin2
	.uleb128 Lfunc_end2-Ltmp17
	.byte	0
	.byte	0
Lcst_end1:
	.p2align	2

	.section	__TEXT,__text,regular,pure_instructions
	.globl	__ZN42_$LT$$RF$T$u20$as$u20$core..fmt..Debug$GT$3fmt17h16f34d9a092ef96cE
	.p2align	4, 0x90
__ZN42_$LT$$RF$T$u20$as$u20$core..fmt..Debug$GT$3fmt17h16f34d9a092ef96cE:
Lfunc_begin3:
	.file	3 "/rustc/2c8cc343237b8f7d5a3c3703e3a87f2eb2c54a74/library/core/src/fmt" "mod.rs"
	.loc	3 2377 0
	.cfi_startproc
	pushq	%rbp
	.cfi_def_cfa_offset 16
	.cfi_offset %rbp, -16
	movq	%rsp, %rbp
	.cfi_def_cfa_register %rbp
	subq	$16, %rsp
	movq	%rdi, -16(%rbp)
	movq	%rsi, -8(%rbp)
Ltmp27:
	.loc	3 2377 71 prologue_end
	movq	(%rdi), %rdi
	.loc	3 2377 62 is_stmt 0
	callq	__ZN4core3fmt3num50_$LT$impl$u20$core..fmt..Debug$u20$for$u20$u16$GT$3fmt17h9716e6a0ef1fddaeE
	.loc	3 2377 84
	andb	$1, %al
	movzbl	%al, %eax
	addq	$16, %rsp
	popq	%rbp
	retq
Ltmp28:
Lfunc_end3:
	.cfi_endproc

	.globl	__ZN42_$LT$$RF$T$u20$as$u20$core..fmt..Debug$GT$3fmt17h52110cbb8a59f004E
	.p2align	4, 0x90
__ZN42_$LT$$RF$T$u20$as$u20$core..fmt..Debug$GT$3fmt17h52110cbb8a59f004E:
Lfunc_begin4:
	.loc	3 2377 0 is_stmt 1
	.cfi_startproc
	pushq	%rbp
	.cfi_def_cfa_offset 16
	.cfi_offset %rbp, -16
	movq	%rsp, %rbp
	.cfi_def_cfa_register %rbp
	subq	$16, %rsp
	movq	%rdi, -16(%rbp)
	movq	%rsi, -8(%rbp)
Ltmp29:
	.loc	3 2377 71 prologue_end
	movq	(%rdi), %rdi
	.loc	3 2377 62 is_stmt 0
	callq	__ZN4core3fmt3num52_$LT$impl$u20$core..fmt..Debug$u20$for$u20$usize$GT$3fmt17h01b756cc8cd89b9bE
	.loc	3 2377 84
	andb	$1, %al
	movzbl	%al, %eax
	addq	$16, %rsp
	popq	%rbp
	retq
Ltmp30:
Lfunc_end4:
	.cfi_endproc

	.p2align	4, 0x90
__ZN4core3cmp5impls50_$LT$impl$u20$core..cmp..Ord$u20$for$u20$usize$GT$3cmp17hc19d73dbd865d888E:
Lfunc_begin5:
	.loc	2 1454 0 is_stmt 1
	.cfi_startproc
	pushq	%rbp
	.cfi_def_cfa_offset 16
	.cfi_offset %rbp, -16
	movq	%rsp, %rbp
	.cfi_def_cfa_register %rbp
	subq	$40, %rsp
	movq	%rdi, -40(%rbp)
	movq	%rsi, -32(%rbp)
	movq	%rdi, -16(%rbp)
	movq	%rsi, -8(%rbp)
Ltmp31:
	.loc	2 1457 24 prologue_end
	movq	(%rdi), %rax
	cmpq	(%rsi), %rax
	jb	LBB5_2
	.loc	2 0 24 is_stmt 0
	movq	-32(%rbp), %rcx
	movq	-40(%rbp), %rax
	.loc	2 1458 29 is_stmt 1
	movq	(%rax), %rax
	cmpq	(%rcx), %rax
	je	LBB5_5
	jmp	LBB5_4
LBB5_2:
	.loc	2 1457 41
	movb	$-1, -17(%rbp)
LBB5_3:
	.loc	2 1460 18
	movb	-17(%rbp), %al
	addq	$40, %rsp
	popq	%rbp
	retq
LBB5_4:
	.loc	2 1459 28
	movb	$1, -17(%rbp)
	.loc	2 1458 26
	jmp	LBB5_6
LBB5_5:
	.loc	2 1458 47 is_stmt 0
	movb	$0, -17(%rbp)
LBB5_6:
	.loc	2 1457 21 is_stmt 1
	jmp	LBB5_3
Ltmp32:
Lfunc_end5:
	.cfi_endproc

	.globl	__ZN4core3cmp6min_by17h8d2bddb5692d7b3eE
	.p2align	4, 0x90
__ZN4core3cmp6min_by17h8d2bddb5692d7b3eE:
Lfunc_begin6:
	.loc	2 1204 0
	.cfi_startproc
	.cfi_personality 155, _rust_eh_personality
	.cfi_lsda 16, Lexception2
	pushq	%rbp
	.cfi_def_cfa_offset 16
	.cfi_offset %rbp, -16
	movq	%rsp, %rbp
	.cfi_def_cfa_register %rbp
	subq	$96, %rsp
	movq	%rdi, -80(%rbp)
	movq	%rsi, -72(%rbp)
Ltmp36:
	.loc	2 1209 11 prologue_end
	movb	$1, -25(%rbp)
	movb	$1, -26(%rbp)
	leaq	-80(%rbp), %rax
	movq	%rax, -48(%rbp)
	leaq	-72(%rbp), %rax
	movq	%rax, -40(%rbp)
	movq	-48(%rbp), %rdi
	movq	-40(%rbp), %rsi
Ltmp33:
	callq	__ZN4core3ops8function6FnOnce9call_once17h2176dae23b2e4f53E
Ltmp34:
	movb	%al, -81(%rbp)
	jmp	LBB6_3
LBB6_1:
	.loc	2 1213 1
	jmp	LBB6_4
LBB6_2:
Ltmp35:
	.loc	2 0 1 is_stmt 0
	movq	%rax, %rcx
	movl	%edx, %eax
	movq	%rcx, -16(%rbp)
	movl	%eax, -8(%rbp)
	jmp	LBB6_1
LBB6_3:
	movb	-81(%rbp), %al
	.loc	2 1209 11 is_stmt 1
	movb	%al, -49(%rbp)
	movb	-49(%rbp), %al
	.loc	2 1209 5 is_stmt 0
	incb	%al
	subb	$2, %al
	jb	LBB6_6
	jmp	LBB6_15
LBB6_15:
	jmp	LBB6_7
LBB6_4:
	.loc	2 1213 1 is_stmt 1
	testb	$1, -25(%rbp)
	jne	LBB6_12
	jmp	LBB6_11
	.loc	2 1209 11
	ud2
LBB6_6:
	.loc	2 1210 45
	movb	$0, -25(%rbp)
	movq	-80(%rbp), %rax
	movq	%rax, -64(%rbp)
	jmp	LBB6_8
LBB6_7:
	.loc	2 1211 30
	movb	$0, -26(%rbp)
	movq	-72(%rbp), %rax
	movq	%rax, -64(%rbp)
LBB6_8:
	.loc	2 1213 1
	testb	$1, -26(%rbp)
	jne	LBB6_10
LBB6_9:
	testb	$1, -25(%rbp)
	jne	LBB6_14
	jmp	LBB6_13
LBB6_10:
	jmp	LBB6_9
LBB6_11:
	.loc	2 1204 1
	movq	-16(%rbp), %rdi
	callq	__Unwind_Resume
LBB6_12:
	.loc	2 1213 1
	jmp	LBB6_11
LBB6_13:
	.loc	2 1213 2 is_stmt 0
	movq	-64(%rbp), %rax
	addq	$96, %rsp
	popq	%rbp
	retq
LBB6_14:
	.loc	2 1213 1
	jmp	LBB6_13
Ltmp37:
Lfunc_end6:
	.cfi_endproc
	.section	__TEXT,__gcc_except_tab
	.p2align	2
GCC_except_table6:
Lexception2:
	.byte	255
	.byte	255
	.byte	1
	.uleb128 Lcst_end2-Lcst_begin2
Lcst_begin2:
	.uleb128 Ltmp33-Lfunc_begin6
	.uleb128 Ltmp34-Ltmp33
	.uleb128 Ltmp35-Lfunc_begin6
	.byte	0
	.uleb128 Ltmp34-Lfunc_begin6
	.uleb128 Lfunc_end6-Ltmp34
	.byte	0
	.byte	0
Lcst_end2:
	.p2align	2

	.section	__TEXT,__text,regular,pure_instructions
	.p2align	4, 0x90
__ZN4core3fmt3num50_$LT$impl$u20$core..fmt..Debug$u20$for$u20$u16$GT$3fmt17h9716e6a0ef1fddaeE:
Lfunc_begin7:
	.file	4 "/rustc/2c8cc343237b8f7d5a3c3703e3a87f2eb2c54a74/library/core/src/fmt" "num.rs"
	.loc	4 185 0 is_stmt 1
	.cfi_startproc
	pushq	%rbp
	.cfi_def_cfa_offset 16
	.cfi_offset %rbp, -16
	movq	%rsp, %rbp
	.cfi_def_cfa_register %rbp
	subq	$48, %rsp
	movq	%rsi, -48(%rbp)
	movq	%rdi, %rax
	movq	-48(%rbp), %rdi
	movq	%rax, -40(%rbp)
	movq	%rdi, -32(%rbp)
	movq	%rax, -16(%rbp)
	movq	%rdi, -8(%rbp)
Ltmp38:
	.loc	4 186 20 prologue_end
	callq	__ZN4core3fmt9Formatter15debug_lower_hex17h0921e6b9188d914eE
	testb	$1, %al
	jne	LBB7_2
	.loc	4 0 20 is_stmt 0
	movq	-32(%rbp), %rdi
	.loc	4 188 27 is_stmt 1
	callq	__ZN4core3fmt9Formatter15debug_upper_hex17h8ce487049a6cccf8E
	testb	$1, %al
	jne	LBB7_5
	jmp	LBB7_4
LBB7_2:
	.loc	4 0 27 is_stmt 0
	movq	-32(%rbp), %rsi
	movq	-40(%rbp), %rdi
	.loc	4 187 21 is_stmt 1
	callq	__ZN4core3fmt3num53_$LT$impl$u20$core..fmt..LowerHex$u20$for$u20$u16$GT$3fmt17he1af57f7bbe2599fE
	andb	$1, %al
	movb	%al, -17(%rbp)
LBB7_3:
	.loc	4 193 14
	movb	-17(%rbp), %al
	andb	$1, %al
	movzbl	%al, %eax
	addq	$48, %rsp
	popq	%rbp
	retq
LBB7_4:
	.loc	4 0 14 is_stmt 0
	movq	-32(%rbp), %rsi
	movq	-40(%rbp), %rdi
	.loc	4 191 21 is_stmt 1
	callq	__ZN4core3fmt3num3imp52_$LT$impl$u20$core..fmt..Display$u20$for$u20$u16$GT$3fmt17h7d8f7431eaeff3c6E
	andb	$1, %al
	movb	%al, -17(%rbp)
	.loc	4 188 24
	jmp	LBB7_6
LBB7_5:
	.loc	4 0 24 is_stmt 0
	movq	-32(%rbp), %rsi
	movq	-40(%rbp), %rdi
	.loc	4 189 21 is_stmt 1
	callq	__ZN4core3fmt3num53_$LT$impl$u20$core..fmt..UpperHex$u20$for$u20$u16$GT$3fmt17h2cf7e042780f1009E
	andb	$1, %al
	movb	%al, -17(%rbp)
LBB7_6:
	.loc	4 186 17
	jmp	LBB7_3
Ltmp39:
Lfunc_end7:
	.cfi_endproc

	.p2align	4, 0x90
__ZN4core3fmt3num52_$LT$impl$u20$core..fmt..Debug$u20$for$u20$usize$GT$3fmt17h01b756cc8cd89b9bE:
Lfunc_begin8:
	.loc	4 185 0
	.cfi_startproc
	pushq	%rbp
	.cfi_def_cfa_offset 16
	.cfi_offset %rbp, -16
	movq	%rsp, %rbp
	.cfi_def_cfa_register %rbp
	subq	$48, %rsp
	movq	%rsi, -48(%rbp)
	movq	%rdi, %rax
	movq	-48(%rbp), %rdi
	movq	%rax, -40(%rbp)
	movq	%rdi, -32(%rbp)
	movq	%rax, -16(%rbp)
	movq	%rdi, -8(%rbp)
Ltmp40:
	.loc	4 186 20 prologue_end
	callq	__ZN4core3fmt9Formatter15debug_lower_hex17h0921e6b9188d914eE
	testb	$1, %al
	jne	LBB8_2
	.loc	4 0 20 is_stmt 0
	movq	-32(%rbp), %rdi
	.loc	4 188 27 is_stmt 1
	callq	__ZN4core3fmt9Formatter15debug_upper_hex17h8ce487049a6cccf8E
	testb	$1, %al
	jne	LBB8_5
	jmp	LBB8_4
LBB8_2:
	.loc	4 0 27 is_stmt 0
	movq	-32(%rbp), %rsi
	movq	-40(%rbp), %rdi
	.loc	4 187 21 is_stmt 1
	callq	__ZN4core3fmt3num55_$LT$impl$u20$core..fmt..LowerHex$u20$for$u20$usize$GT$3fmt17h84f349805fe63f8dE
	andb	$1, %al
	movb	%al, -17(%rbp)
LBB8_3:
	.loc	4 193 14
	movb	-17(%rbp), %al
	andb	$1, %al
	movzbl	%al, %eax
	addq	$48, %rsp
	popq	%rbp
	retq
LBB8_4:
	.loc	4 0 14 is_stmt 0
	movq	-32(%rbp), %rsi
	movq	-40(%rbp), %rdi
	.loc	4 191 21 is_stmt 1
	callq	__ZN4core3fmt3num3imp54_$LT$impl$u20$core..fmt..Display$u20$for$u20$usize$GT$3fmt17ha5c925fcd7ed33faE
	andb	$1, %al
	movb	%al, -17(%rbp)
	.loc	4 188 24
	jmp	LBB8_6
LBB8_5:
	.loc	4 0 24 is_stmt 0
	movq	-32(%rbp), %rsi
	movq	-40(%rbp), %rdi
	.loc	4 189 21 is_stmt 1
	callq	__ZN4core3fmt3num55_$LT$impl$u20$core..fmt..UpperHex$u20$for$u20$usize$GT$3fmt17h49aa717311edc293E
	andb	$1, %al
	movb	%al, -17(%rbp)
LBB8_6:
	.loc	4 186 17
	jmp	LBB8_3
Ltmp41:
Lfunc_end8:
	.cfi_endproc

	.p2align	4, 0x90
__ZN4core3fmt9Arguments6new_v117hdb6037912995ca85E:
Lfunc_begin9:
	.loc	3 399 0
	.cfi_startproc
	pushq	%rbp
	.cfi_def_cfa_offset 16
	.cfi_offset %rbp, -16
	movq	%rsp, %rbp
	.cfi_def_cfa_register %rbp
	subq	$160, %rsp
	movq	%r8, -152(%rbp)
	movq	%rcx, -144(%rbp)
	movq	%rdx, -136(%rbp)
	movq	%rsi, -128(%rbp)
	movq	%rdi, -120(%rbp)
	movq	%rdi, -112(%rbp)
	movq	%rsi, -32(%rbp)
	movq	%rdx, -24(%rbp)
	movq	%rcx, -16(%rbp)
	movq	%r8, -8(%rbp)
Ltmp42:
	.loc	3 400 12 prologue_end
	cmpq	%r8, %rdx
	jb	LBB9_2
	.loc	3 0 12 is_stmt 0
	movq	-136(%rbp), %rax
	movq	-152(%rbp), %rcx
	.loc	3 400 56
	addq	$1, %rcx
	.loc	3 400 41
	cmpq	%rcx, %rax
	seta	%al
	.loc	3 400 12
	andb	$1, %al
	movb	%al, -97(%rbp)
	jmp	LBB9_3
LBB9_2:
	movb	$1, -97(%rbp)
LBB9_3:
	testb	$1, -97(%rbp)
	jne	LBB9_5
	.loc	3 0 12
	movq	-112(%rbp), %rax
	movq	-120(%rbp), %rcx
	movq	-152(%rbp), %rdx
	movq	-144(%rbp), %rsi
	movq	-136(%rbp), %rdi
	movq	-128(%rbp), %r8
	.loc	3 403 34 is_stmt 1
	movq	$0, -48(%rbp)
	.loc	3 403 9 is_stmt 0
	movq	%r8, 16(%rcx)
	movq	%rdi, 24(%rcx)
	movq	-48(%rbp), %r8
	movq	-40(%rbp), %rdi
	movq	%r8, (%rcx)
	movq	%rdi, 8(%rcx)
	movq	%rsi, 32(%rcx)
	movq	%rdx, 40(%rcx)
	.loc	3 404 6 is_stmt 1
	addq	$160, %rsp
	popq	%rbp
	retq
LBB9_5:
	.loc	3 401 13
	leaq	l___unnamed_3(%rip), %rsi
	leaq	l___unnamed_4(%rip), %rcx
	xorl	%eax, %eax
	movl	%eax, %r8d
	leaq	-96(%rbp), %rdi
	movq	%rdi, -160(%rbp)
	movl	$1, %edx
	callq	__ZN4core3fmt9Arguments6new_v117hdb6037912995ca85E
	movq	-160(%rbp), %rdi
	leaq	l___unnamed_5(%rip), %rsi
	callq	__ZN4core9panicking9panic_fmt17h9b5d807e24bcaaedE
Ltmp43:
Lfunc_end9:
	.cfi_endproc

	.p2align	4, 0x90
__ZN4core3ops8function6FnOnce9call_once17h2176dae23b2e4f53E:
Lfunc_begin10:
	.file	5 "/rustc/2c8cc343237b8f7d5a3c3703e3a87f2eb2c54a74/library/core/src/ops" "function.rs"
	.loc	5 250 0
	.cfi_startproc
	pushq	%rbp
	.cfi_def_cfa_offset 16
	.cfi_offset %rbp, -16
	movq	%rsp, %rbp
	.cfi_def_cfa_register %rbp
	subq	$32, %rsp
	movq	%rdi, -24(%rbp)
	movq	%rsi, -16(%rbp)
Ltmp44:
	.loc	5 250 5 prologue_end
	movq	-24(%rbp), %rdi
	movq	-16(%rbp), %rsi
	callq	__ZN4core3cmp5impls50_$LT$impl$u20$core..cmp..Ord$u20$for$u20$usize$GT$3cmp17hc19d73dbd865d888E
	addq	$32, %rsp
	popq	%rbp
	retq
Ltmp45:
Lfunc_end10:
	.cfi_endproc

	.p2align	4, 0x90
__ZN4core3ptr28drop_in_place$LT$$RF$u16$GT$17hf69056337152485cE:
Lfunc_begin11:
	.file	6 "/rustc/2c8cc343237b8f7d5a3c3703e3a87f2eb2c54a74/library/core/src/ptr" "mod.rs"
	.loc	6 490 0
	.cfi_startproc
	pushq	%rbp
	.cfi_def_cfa_offset 16
	.cfi_offset %rbp, -16
	movq	%rsp, %rbp
	.cfi_def_cfa_register %rbp
	pushq	%rax
	movq	%rdi, -8(%rbp)
Ltmp46:
	.loc	6 490 1 prologue_end
	addq	$8, %rsp
	popq	%rbp
	retq
Ltmp47:
Lfunc_end11:
	.cfi_endproc

	.p2align	4, 0x90
__ZN4core3ptr30drop_in_place$LT$$RF$usize$GT$17hf64415d105347573E:
Lfunc_begin12:
	.loc	6 490 0
	.cfi_startproc
	pushq	%rbp
	.cfi_def_cfa_offset 16
	.cfi_offset %rbp, -16
	movq	%rsp, %rbp
	.cfi_def_cfa_register %rbp
	pushq	%rax
	movq	%rdi, -8(%rbp)
Ltmp48:
	.loc	6 490 1 prologue_end
	addq	$8, %rsp
	popq	%rbp
	retq
Ltmp49:
Lfunc_end12:
	.cfi_endproc

	.globl	__ZN4core3ptr9const_ptr33_$LT$impl$u20$$BP$const$u20$T$GT$7sub_ptr17haec1e67c2215574eE
	.p2align	4, 0x90
__ZN4core3ptr9const_ptr33_$LT$impl$u20$$BP$const$u20$T$GT$7sub_ptr17haec1e67c2215574eE:
Lfunc_begin13:
	.file	7 "/rustc/2c8cc343237b8f7d5a3c3703e3a87f2eb2c54a74/library/core/src/ptr" "const_ptr.rs"
	.loc	7 791 0
	.cfi_startproc
	pushq	%rbp
	.cfi_def_cfa_offset 16
	.cfi_offset %rbp, -16
	movq	%rsp, %rbp
	.cfi_def_cfa_register %rbp
	subq	$64, %rsp
	movq	%rdi, -56(%rbp)
	movq	%rsi, -48(%rbp)
	movq	%rdi, -32(%rbp)
	movq	%rsi, -24(%rbp)
Ltmp50:
	.file	8 "/rustc/2c8cc343237b8f7d5a3c3703e3a87f2eb2c54a74/library/core/src/mem" "mod.rs"
	.loc	8 309 5 prologue_end
	movq	$4, -16(%rbp)
Ltmp51:
	.loc	7 806 17
	movb	$1, %al
	testb	$1, %al
	jne	LBB13_2
	movb	$0, -33(%rbp)
	jmp	LBB13_3
LBB13_2:
	movb	$1, -33(%rbp)
LBB13_3:
	.loc	7 806 9 is_stmt 0
	movb	-33(%rbp), %al
	xorb	$-1, %al
	testb	$1, %al
	jne	LBB13_5
	.loc	7 0 9
	movq	-48(%rbp), %rcx
	movq	-56(%rbp), %rax
	.loc	7 808 18 is_stmt 1
	subq	%rcx, %rax
	shrq	$2, %rax
	movq	%rax, -8(%rbp)
	movq	-8(%rbp), %rax
Ltmp52:
	.loc	7 809 6
	addq	$64, %rsp
	popq	%rbp
	retq
LBB13_5:
Ltmp53:
	.loc	7 806 9
	leaq	l___unnamed_6(%rip), %rdi
	leaq	l___unnamed_7(%rip), %rdx
	movl	$73, %esi
	callq	__ZN4core9panicking5panic17hc1bc45270cf64b03E
Ltmp54:
Lfunc_end13:
	.cfi_endproc

	.globl	__ZN4core4iter6traits8iterator8Iterator3zip17h15fba7495c9c977cE
	.p2align	4, 0x90
__ZN4core4iter6traits8iterator8Iterator3zip17h15fba7495c9c977cE:
Lfunc_begin14:
	.file	9 "/rustc/2c8cc343237b8f7d5a3c3703e3a87f2eb2c54a74/library/core/src/iter/traits" "iterator.rs"
	.loc	9 623 0
	.cfi_startproc
	.cfi_personality 155, _rust_eh_personality
	.cfi_lsda 16, Lexception3
	pushq	%rbp
	.cfi_def_cfa_offset 16
	.cfi_offset %rbp, -16
	movq	%rsp, %rbp
	.cfi_def_cfa_register %rbp
	subq	$128, %rsp
	movq	%r8, -112(%rbp)
	movq	%rcx, -96(%rbp)
	movq	%rdx, -120(%rbp)
	movq	%rsi, %rax
	movq	-112(%rbp), %rsi
	movq	%rax, -104(%rbp)
	movq	%rdi, %rcx
	movq	-96(%rbp), %rdi
	movq	%rcx, -88(%rbp)
	movq	%rcx, -80(%rbp)
	movq	%rax, -48(%rbp)
	movq	%rdx, -40(%rbp)
	movq	%rdi, -32(%rbp)
	movq	%rsi, -24(%rbp)
Ltmp60:
	.loc	9 628 18 prologue_end
	movb	$1, -49(%rbp)
Ltmp55:
	.loc	9 628 24 is_stmt 0
	callq	__ZN63_$LT$I$u20$as$u20$core..iter..traits..collect..IntoIterator$GT$9into_iter17h051a63c3cf11a215E
Ltmp56:
	movq	%rdx, -72(%rbp)
	movq	%rax, -64(%rbp)
	jmp	LBB14_3
LBB14_1:
	.loc	9 628 41
	testb	$1, -49(%rbp)
	jne	LBB14_6
	jmp	LBB14_5
LBB14_2:
Ltmp59:
	.loc	9 0 41
	movq	%rax, %rcx
	movl	%edx, %eax
	movq	%rcx, -16(%rbp)
	movl	%eax, -8(%rbp)
	jmp	LBB14_1
LBB14_3:
	movq	-72(%rbp), %r8
	movq	-64(%rbp), %rcx
	movq	-120(%rbp), %rdx
	movq	-104(%rbp), %rsi
	movq	-88(%rbp), %rdi
	.loc	9 628 9
	movb	$0, -49(%rbp)
Ltmp57:
	callq	__ZN4core4iter8adapters3zip16Zip$LT$A$C$B$GT$3new17h8ce6fdabd1f76521E
Ltmp58:
	jmp	LBB14_4
LBB14_4:
	.loc	9 0 9
	movq	-80(%rbp), %rax
	.loc	9 629 6 is_stmt 1
	addq	$128, %rsp
	popq	%rbp
	retq
LBB14_5:
	.loc	9 623 5
	movq	-16(%rbp), %rdi
	callq	__Unwind_Resume
LBB14_6:
	.loc	9 628 41
	jmp	LBB14_5
Ltmp61:
Lfunc_end14:
	.cfi_endproc
	.section	__TEXT,__gcc_except_tab
	.p2align	2
GCC_except_table14:
Lexception3:
	.byte	255
	.byte	255
	.byte	1
	.uleb128 Lcst_end3-Lcst_begin3
Lcst_begin3:
	.uleb128 Ltmp55-Lfunc_begin14
	.uleb128 Ltmp58-Ltmp55
	.uleb128 Ltmp59-Lfunc_begin14
	.byte	0
	.uleb128 Ltmp58-Lfunc_begin14
	.uleb128 Lfunc_end14-Ltmp58
	.byte	0
	.byte	0
Lcst_end3:
	.p2align	2

	.section	__TEXT,__text,regular,pure_instructions
	.globl	__ZN4core4iter8adapters3zip16Zip$LT$A$C$B$GT$3new17h8ce6fdabd1f76521E
	.p2align	4, 0x90
__ZN4core4iter8adapters3zip16Zip$LT$A$C$B$GT$3new17h8ce6fdabd1f76521E:
Lfunc_begin15:
	.loc	1 22 0
	.cfi_startproc
	pushq	%rbp
	.cfi_def_cfa_offset 16
	.cfi_offset %rbp, -16
	movq	%rsp, %rbp
	.cfi_def_cfa_register %rbp
	subq	$48, %rsp
	movq	%rdi, %rax
	movq	%rax, -40(%rbp)
	movq	%rsi, -32(%rbp)
	movq	%rdx, -24(%rbp)
	movq	%rcx, -16(%rbp)
	movq	%r8, -8(%rbp)
Ltmp62:
	.loc	1 23 9 prologue_end
	callq	__ZN111_$LT$core..iter..adapters..zip..Zip$LT$A$C$B$GT$$u20$as$u20$core..iter..adapters..zip..ZipImpl$LT$A$C$B$GT$$GT$3new17h06e7a9d8a14fe2e4E
	movq	-40(%rbp), %rax
	.loc	1 24 6
	addq	$48, %rsp
	popq	%rbp
	retq
Ltmp63:
Lfunc_end15:
	.cfi_endproc

	.globl	__ZN4core4iter8adapters3zip27TrustedRandomAccessNoCoerce4size17h2da8f9e7f56b2785E
	.p2align	4, 0x90
__ZN4core4iter8adapters3zip27TrustedRandomAccessNoCoerce4size17h2da8f9e7f56b2785E:
Lfunc_begin16:
	.loc	1 538 0
	.cfi_startproc
	pushq	%rbp
	.cfi_def_cfa_offset 16
	.cfi_offset %rbp, -16
	movq	%rsp, %rbp
	.cfi_def_cfa_register %rbp
	subq	$32, %rsp
	movq	%rdi, %rsi
	movq	%rsi, -8(%rbp)
Ltmp64:
	.loc	1 542 9 prologue_end
	leaq	-32(%rbp), %rdi
	callq	__ZN94_$LT$core..slice..iter..IterMut$LT$T$GT$$u20$as$u20$core..iter..traits..iterator..Iterator$GT$9size_hint17hd5ad8ba4855c49eaE
	movq	-32(%rbp), %rax
	.loc	1 543 6
	addq	$32, %rsp
	popq	%rbp
	retq
Ltmp65:
Lfunc_end16:
	.cfi_endproc

	.globl	__ZN4core4iter8adapters3zip27TrustedRandomAccessNoCoerce4size17h8e4ce139c8035b0dE
	.p2align	4, 0x90
__ZN4core4iter8adapters3zip27TrustedRandomAccessNoCoerce4size17h8e4ce139c8035b0dE:
Lfunc_begin17:
	.loc	1 538 0
	.cfi_startproc
	pushq	%rbp
	.cfi_def_cfa_offset 16
	.cfi_offset %rbp, -16
	movq	%rsp, %rbp
	.cfi_def_cfa_register %rbp
	subq	$32, %rsp
	movq	%rdi, %rsi
	movq	%rsi, -8(%rbp)
Ltmp66:
	.loc	1 542 9 prologue_end
	leaq	-32(%rbp), %rdi
	callq	__ZN91_$LT$core..slice..iter..Iter$LT$T$GT$$u20$as$u20$core..iter..traits..iterator..Iterator$GT$9size_hint17hafbf540d00f26482E
	movq	-32(%rbp), %rax
	.loc	1 543 6
	addq	$32, %rsp
	popq	%rbp
	retq
Ltmp67:
Lfunc_end17:
	.cfi_endproc

	.globl	__ZN4core5slice29_$LT$impl$u20$$u5b$T$u5d$$GT$12chunks_exact17h927e6a749a27ca0bE
	.p2align	4, 0x90
__ZN4core5slice29_$LT$impl$u20$$u5b$T$u5d$$GT$12chunks_exact17h927e6a749a27ca0bE:
Lfunc_begin18:
	.file	10 "/rustc/2c8cc343237b8f7d5a3c3703e3a87f2eb2c54a74/library/core/src/slice" "mod.rs"
	.loc	10 917 0
	.cfi_startproc
	pushq	%rbp
	.cfi_def_cfa_offset 16
	.cfi_offset %rbp, -16
	movq	%rsp, %rbp
	.cfi_def_cfa_register %rbp
	subq	$208, %rsp
	movq	%rdx, -200(%rbp)
	movq	%rsi, -192(%rbp)
	movq	%rdi, -184(%rbp)
	movq	%rdi, -176(%rbp)
	movq	%rcx, -152(%rbp)
	movq	%rsi, -32(%rbp)
	movq	%rdx, -24(%rbp)
Ltmp68:
	.loc	10 918 9 prologue_end
	leaq	-152(%rbp), %rax
	movq	%rax, -144(%rbp)
	leaq	L___unnamed_8(%rip), %rax
	movq	%rax, -136(%rbp)
	movq	-144(%rbp), %rax
	movq	%rax, -168(%rbp)
	movq	%rax, -16(%rbp)
	movq	-136(%rbp), %rcx
	movq	%rcx, -160(%rbp)
	movq	%rcx, -8(%rbp)
Ltmp69:
	.loc	10 918 9 is_stmt 0
	movq	(%rax), %rax
	cmpq	(%rcx), %rax
	je	LBB18_2
Ltmp70:
	.loc	10 0 9
	movq	-200(%rbp), %rdx
	movq	-192(%rbp), %rsi
	movq	-184(%rbp), %rdi
	.loc	10 919 32 is_stmt 1
	movq	-152(%rbp), %rcx
	.loc	10 919 9 is_stmt 0
	callq	__ZN4core5slice4iter20ChunksExact$LT$T$GT$3new17hc80d83897e418518E
	movq	-176(%rbp), %rax
	.loc	10 920 6 is_stmt 1
	addq	$208, %rsp
	popq	%rbp
	retq
LBB18_2:
Ltmp71:
	.loc	10 918 9
	leaq	l___unnamed_9(%rip), %rsi
	leaq	l___unnamed_4(%rip), %rcx
	xorl	%eax, %eax
	movl	%eax, %r8d
	leaq	-80(%rbp), %rdi
	movl	$1, %edx
	callq	__ZN4core3fmt9Arguments6new_v117hdb6037912995ca85E
	movq	-168(%rbp), %rsi
	movq	-160(%rbp), %rdx
	movq	-40(%rbp), %rax
	movq	%rax, -88(%rbp)
	movq	-48(%rbp), %rax
	movq	%rax, -96(%rbp)
	movq	-56(%rbp), %rax
	movq	%rax, -104(%rbp)
	movq	-64(%rbp), %rax
	movq	%rax, -112(%rbp)
	movq	-80(%rbp), %rax
	movq	-72(%rbp), %rcx
	movq	%rcx, -120(%rbp)
	movq	%rax, -128(%rbp)
	leaq	l___unnamed_10(%rip), %r8
	movl	$1, %edi
	leaq	-128(%rbp), %rcx
	callq	__ZN4core9panicking13assert_failed17hb2f5695975f112dfE
Ltmp72:
Lfunc_end18:
	.cfi_endproc

	.globl	__ZN4core5slice29_$LT$impl$u20$$u5b$T$u5d$$GT$18split_at_unchecked17h94637d34b63c19c6E
	.p2align	4, 0x90
__ZN4core5slice29_$LT$impl$u20$$u5b$T$u5d$$GT$18split_at_unchecked17h94637d34b63c19c6E:
Lfunc_begin19:
	.loc	10 1673 0
	.cfi_startproc
	pushq	%rbp
	.cfi_def_cfa_offset 16
	.cfi_offset %rbp, -16
	movq	%rsp, %rbp
	.cfi_def_cfa_register %rbp
	subq	$272, %rsp
	movq	%rcx, %r9
	movq	%rsi, %rcx
	movq	%rdi, %rax
	movq	%rcx, -208(%rbp)
	movq	%rdx, -200(%rbp)
	movq	%r9, -192(%rbp)
Ltmp73:
	.loc	10 1678 19 prologue_end
	movq	%rdx, -184(%rbp)
Ltmp74:
	.loc	10 1679 19
	movq	%rcx, -176(%rbp)
	movq	%rdx, -168(%rbp)
Ltmp75:
	.loc	10 477 9
	movq	%rcx, -160(%rbp)
Ltmp76:
	.loc	10 1682 34
	movq	%rcx, -152(%rbp)
	.loc	10 1682 39 is_stmt 0
	movq	%r9, -144(%rbp)
Ltmp77:
	.file	11 "/rustc/2c8cc343237b8f7d5a3c3703e3a87f2eb2c54a74/library/core/src/slice" "raw.rs"
	.loc	11 100 37 is_stmt 1
	movq	%rcx, -136(%rbp)
	.loc	11 100 43 is_stmt 0
	movq	%r9, -128(%rbp)
Ltmp78:
	.loc	6 734 20 is_stmt 1
	movq	%rcx, -120(%rbp)
Ltmp79:
	.loc	7 61 9
	movq	%rcx, -112(%rbp)
Ltmp80:
	.loc	6 734 33
	movq	%r9, -104(%rbp)
Ltmp81:
	.file	12 "/rustc/2c8cc343237b8f7d5a3c3703e3a87f2eb2c54a74/library/core/src/ptr" "metadata.rs"
	.loc	12 118 36
	movq	%rcx, -256(%rbp)
	movq	%r9, -248(%rbp)
	.loc	12 118 14 is_stmt 0
	movq	-256(%rbp), %r8
	movq	-248(%rbp), %rsi
	movq	%r8, -272(%rbp)
	movq	%rsi, -264(%rbp)
	movq	-272(%rbp), %r8
	movq	-264(%rbp), %rsi
Ltmp82:
	.loc	10 1682 60 is_stmt 1
	movq	%rcx, -96(%rbp)
	.loc	10 1682 68 is_stmt 0
	movq	%r9, -88(%rbp)
Ltmp83:
	.loc	7 932 18 is_stmt 1
	movq	%rcx, -80(%rbp)
	.loc	7 932 30 is_stmt 0
	movq	%r9, -72(%rbp)
Ltmp84:
	.loc	7 473 18 is_stmt 1
	addq	%r9, %rcx
	movq	%rcx, -64(%rbp)
	movq	-64(%rbp), %rcx
	movq	%rcx, -56(%rbp)
Ltmp85:
	.loc	10 1682 74
	subq	%r9, %rdx
	movq	%rdx, -48(%rbp)
Ltmp86:
	.loc	11 100 37
	movq	%rcx, -40(%rbp)
	.loc	11 100 43 is_stmt 0
	movq	%rdx, -32(%rbp)
Ltmp87:
	.loc	6 734 20 is_stmt 1
	movq	%rcx, -24(%rbp)
Ltmp88:
	.loc	7 61 9
	movq	%rcx, -16(%rbp)
Ltmp89:
	.loc	6 734 33
	movq	%rdx, -8(%rbp)
Ltmp90:
	.loc	12 118 36
	movq	%rcx, -224(%rbp)
	movq	%rdx, -216(%rbp)
	.loc	12 118 14 is_stmt 0
	movq	-224(%rbp), %rdx
	movq	-216(%rbp), %rcx
	movq	%rdx, -240(%rbp)
	movq	%rcx, -232(%rbp)
	movq	-240(%rbp), %rdx
	movq	-232(%rbp), %rcx
Ltmp91:
	.loc	10 1682 18 is_stmt 1
	movq	%r8, (%rdi)
	movq	%rsi, 8(%rdi)
	movq	%rdx, 16(%rdi)
	movq	%rcx, 24(%rdi)
Ltmp92:
	.loc	10 1683 6
	addq	$272, %rsp
	popq	%rbp
	retq
Ltmp93:
Lfunc_end19:
	.cfi_endproc

	.globl	__ZN4core5slice29_$LT$impl$u20$$u5b$T$u5d$$GT$4iter17h69f6b8f578b5b530E
	.p2align	4, 0x90
__ZN4core5slice29_$LT$impl$u20$$u5b$T$u5d$$GT$4iter17h69f6b8f578b5b530E:
Lfunc_begin20:
	.loc	10 741 0
	.cfi_startproc
	pushq	%rbp
	.cfi_def_cfa_offset 16
	.cfi_offset %rbp, -16
	movq	%rsp, %rbp
	.cfi_def_cfa_register %rbp
	subq	$16, %rsp
	movq	%rdi, -16(%rbp)
	movq	%rsi, -8(%rbp)
Ltmp94:
	.loc	10 742 9 prologue_end
	callq	__ZN4core5slice4iter13Iter$LT$T$GT$3new17h86dbdec1b531053dE
	.loc	10 743 6
	addq	$16, %rsp
	popq	%rbp
	retq
Ltmp95:
Lfunc_end20:
	.cfi_endproc

	.globl	__ZN4core5slice29_$LT$impl$u20$$u5b$T$u5d$$GT$4iter17hc5c6b9413a4c7ba5E
	.p2align	4, 0x90
__ZN4core5slice29_$LT$impl$u20$$u5b$T$u5d$$GT$4iter17hc5c6b9413a4c7ba5E:
Lfunc_begin21:
	.loc	10 741 0
	.cfi_startproc
	pushq	%rbp
	.cfi_def_cfa_offset 16
	.cfi_offset %rbp, -16
	movq	%rsp, %rbp
	.cfi_def_cfa_register %rbp
	subq	$16, %rsp
	movq	%rdi, -16(%rbp)
	movq	%rsi, -8(%rbp)
Ltmp96:
	.loc	10 742 9 prologue_end
	callq	__ZN4core5slice4iter13Iter$LT$T$GT$3new17haadd22584ebd73d7E
	.loc	10 743 6
	addq	$16, %rsp
	popq	%rbp
	retq
Ltmp97:
Lfunc_end21:
	.cfi_endproc

	.globl	__ZN4core5slice29_$LT$impl$u20$$u5b$T$u5d$$GT$8iter_mut17hfa4170aba731251aE
	.p2align	4, 0x90
__ZN4core5slice29_$LT$impl$u20$$u5b$T$u5d$$GT$8iter_mut17hfa4170aba731251aE:
Lfunc_begin22:
	.loc	10 760 0
	.cfi_startproc
	pushq	%rbp
	.cfi_def_cfa_offset 16
	.cfi_offset %rbp, -16
	movq	%rsp, %rbp
	.cfi_def_cfa_register %rbp
	subq	$16, %rsp
	movq	%rdi, -16(%rbp)
	movq	%rsi, -8(%rbp)
Ltmp98:
	.loc	10 761 9 prologue_end
	callq	__ZN4core5slice4iter16IterMut$LT$T$GT$3new17h7a74254e59a57804E
	.loc	10 762 6
	addq	$16, %rsp
	popq	%rbp
	retq
Ltmp99:
Lfunc_end22:
	.cfi_endproc

	.globl	__ZN4core5slice29_$LT$impl$u20$$u5b$T$u5d$$GT$8split_at17h35c24c7173be4a20E
	.p2align	4, 0x90
__ZN4core5slice29_$LT$impl$u20$$u5b$T$u5d$$GT$8split_at17h35c24c7173be4a20E:
Lfunc_begin23:
	.loc	10 1587 0
	.cfi_startproc
	pushq	%rbp
	.cfi_def_cfa_offset 16
	.cfi_offset %rbp, -16
	movq	%rsp, %rbp
	.cfi_def_cfa_register %rbp
	subq	$80, %rsp
	movq	%r8, -72(%rbp)
	movq	%rcx, -64(%rbp)
	movq	%rdx, -56(%rbp)
	movq	%rsi, -48(%rbp)
	movq	%rdi, -40(%rbp)
	movq	%rdi, -32(%rbp)
	movq	%rsi, -24(%rbp)
	movq	%rdx, -16(%rbp)
	movq	%rcx, -8(%rbp)
Ltmp100:
	.loc	10 1588 17 prologue_end
	cmpq	%rdx, %rcx
	setbe	%al
	.loc	10 1588 9 is_stmt 0
	xorb	$-1, %al
	testb	$1, %al
	jne	LBB23_2
	.loc	10 0 9
	movq	-64(%rbp), %rcx
	movq	-56(%rbp), %rdx
	movq	-48(%rbp), %rsi
	movq	-40(%rbp), %rdi
	.loc	10 1591 18 is_stmt 1
	callq	__ZN4core5slice29_$LT$impl$u20$$u5b$T$u5d$$GT$18split_at_unchecked17h94637d34b63c19c6E
	movq	-32(%rbp), %rax
	.loc	10 1592 6
	addq	$80, %rsp
	popq	%rbp
	retq
LBB23_2:
	.loc	10 0 6 is_stmt 0
	movq	-72(%rbp), %rdx
	.loc	10 1588 9 is_stmt 1
	leaq	l___unnamed_11(%rip), %rdi
	movl	$35, %esi
	callq	__ZN4core9panicking5panic17hc1bc45270cf64b03E
Ltmp101:
Lfunc_end23:
	.cfi_endproc

	.globl	__ZN4core5slice4iter13Iter$LT$T$GT$3new17h86dbdec1b531053dE
	.p2align	4, 0x90
__ZN4core5slice4iter13Iter$LT$T$GT$3new17h86dbdec1b531053dE:
Lfunc_begin24:
	.file	13 "/rustc/2c8cc343237b8f7d5a3c3703e3a87f2eb2c54a74/library/core/src/slice" "iter.rs"
	.loc	13 82 0
	.cfi_startproc
	pushq	%rbp
	.cfi_def_cfa_offset 16
	.cfi_offset %rbp, -16
	movq	%rsp, %rbp
	.cfi_def_cfa_register %rbp
	subq	$280, %rsp
	movq	%rdi, -280(%rbp)
	movq	%rsi, -272(%rbp)
	movq	%rdi, -208(%rbp)
	movq	%rsi, -200(%rbp)
Ltmp102:
	.loc	13 83 19 prologue_end
	movq	%rdi, -184(%rbp)
	movq	%rsi, -176(%rbp)
Ltmp103:
	.loc	10 477 9
	movq	%rdi, -168(%rbp)
Ltmp104:
	.loc	13 86 21
	movq	%rdi, -160(%rbp)
Ltmp105:
	.loc	7 53 36
	movq	%rdi, -232(%rbp)
	.loc	7 53 18 is_stmt 0
	movq	-232(%rbp), %rax
	movq	%rax, -152(%rbp)
Ltmp106:
	.loc	7 39 13 is_stmt 1
	movq	%rax, -144(%rbp)
Ltmp107:
	.loc	7 209 33
	movq	%rax, -136(%rbp)
	.loc	7 209 18 is_stmt 0
	movq	%rax, -128(%rbp)
Ltmp108:
	.loc	13 89 20 is_stmt 1
	xorl	%eax, %eax
	testb	$1, %al
	jne	LBB24_2
	.loc	13 0 20 is_stmt 0
	movq	-272(%rbp), %rcx
	movq	-280(%rbp), %rax
	.loc	13 89 76
	movq	%rax, -40(%rbp)
	.loc	13 89 84
	movq	%rcx, -32(%rbp)
Ltmp109:
	.loc	7 932 18 is_stmt 1
	movq	%rax, -24(%rbp)
	.loc	7 932 30 is_stmt 0
	movq	%rcx, -16(%rbp)
Ltmp110:
	.loc	7 473 18 is_stmt 1
	addq	%rcx, %rax
	movq	%rax, -248(%rbp)
Ltmp111:
	.loc	13 89 17
	jmp	LBB24_3
LBB24_2:
	.loc	13 0 17 is_stmt 0
	movq	-272(%rbp), %rcx
	movq	-280(%rbp), %rax
	.loc	13 89 32
	movq	%rax, -120(%rbp)
	.loc	13 89 54
	movq	%rcx, -112(%rbp)
Ltmp112:
	.loc	7 1118 9 is_stmt 1
	movq	%rax, -104(%rbp)
Ltmp113:
	.loc	7 61 9
	movq	%rax, -96(%rbp)
Ltmp114:
	.loc	7 1118 40
	movq	%rcx, -88(%rbp)
Ltmp115:
	.loc	7 1100 9
	movq	%rax, -80(%rbp)
	.loc	7 1100 30 is_stmt 0
	movq	%rcx, -72(%rbp)
Ltmp116:
	.loc	7 555 18 is_stmt 1
	addq	%rcx, %rax
	movq	%rax, -64(%rbp)
	movq	-64(%rbp), %rax
	movq	%rax, -56(%rbp)
Ltmp117:
	.loc	7 100 29
	movq	%rax, -48(%rbp)
Ltmp118:
	.loc	12 118 36
	movq	%rax, -216(%rbp)
	.loc	12 118 14 is_stmt 0
	movq	-216(%rbp), %rax
	movq	%rax, -224(%rbp)
	movq	-224(%rbp), %rax
	movq	%rax, -248(%rbp)
Ltmp119:
LBB24_3:
	.loc	12 0 14
	movq	-280(%rbp), %rax
Ltmp120:
	.loc	13 91 48 is_stmt 1
	movq	%rax, -8(%rbp)
Ltmp121:
	.file	14 "/rustc/2c8cc343237b8f7d5a3c3703e3a87f2eb2c54a74/library/core/src/ptr" "non_null.rs"
	.loc	14 201 13
	movq	%rax, -240(%rbp)
Ltmp122:
	.loc	13 91 64
	movq	-248(%rbp), %rax
	.loc	13 91 13 is_stmt 0
	movq	-240(%rbp), %rcx
	movq	%rcx, -256(%rbp)
	movq	%rax, -264(%rbp)
Ltmp123:
	.loc	13 93 6 is_stmt 1
	movq	-264(%rbp), %rax
	movq	-256(%rbp), %rdx
	addq	$280, %rsp
	popq	%rbp
	retq
Ltmp124:
Lfunc_end24:
	.cfi_endproc

	.globl	__ZN4core5slice4iter13Iter$LT$T$GT$3new17haadd22584ebd73d7E
	.p2align	4, 0x90
__ZN4core5slice4iter13Iter$LT$T$GT$3new17haadd22584ebd73d7E:
Lfunc_begin25:
	.loc	13 82 0
	.cfi_startproc
	pushq	%rbp
	.cfi_def_cfa_offset 16
	.cfi_offset %rbp, -16
	movq	%rsp, %rbp
	.cfi_def_cfa_register %rbp
	subq	$280, %rsp
	movq	%rdi, -280(%rbp)
	movq	%rsi, -272(%rbp)
	movq	%rdi, -208(%rbp)
	movq	%rsi, -200(%rbp)
Ltmp125:
	.loc	13 83 19 prologue_end
	movq	%rdi, -184(%rbp)
	movq	%rsi, -176(%rbp)
Ltmp126:
	.loc	10 477 9
	movq	%rdi, -168(%rbp)
Ltmp127:
	.loc	13 86 21
	movq	%rdi, -160(%rbp)
Ltmp128:
	.loc	7 53 36
	movq	%rdi, -232(%rbp)
	.loc	7 53 18 is_stmt 0
	movq	-232(%rbp), %rax
	movq	%rax, -152(%rbp)
Ltmp129:
	.loc	7 39 13 is_stmt 1
	movq	%rax, -144(%rbp)
Ltmp130:
	.loc	7 209 33
	movq	%rax, -136(%rbp)
	.loc	7 209 18 is_stmt 0
	movq	%rax, -128(%rbp)
Ltmp131:
	.loc	13 89 20 is_stmt 1
	xorl	%eax, %eax
	testb	$1, %al
	jne	LBB25_2
	.loc	13 0 20 is_stmt 0
	movq	-280(%rbp), %rax
	movq	-272(%rbp), %rcx
	.loc	13 89 76
	movq	%rax, -40(%rbp)
	.loc	13 89 84
	movq	%rcx, -32(%rbp)
Ltmp132:
	.loc	7 932 18 is_stmt 1
	movq	%rax, -24(%rbp)
	.loc	7 932 30 is_stmt 0
	movq	%rcx, -16(%rbp)
Ltmp133:
	.loc	7 473 18 is_stmt 1
	shlq	$2, %rcx
	addq	%rcx, %rax
	movq	%rax, -248(%rbp)
Ltmp134:
	.loc	13 89 17
	jmp	LBB25_3
LBB25_2:
	.loc	13 0 17 is_stmt 0
	movq	-272(%rbp), %rcx
	movq	-280(%rbp), %rax
	.loc	13 89 32
	movq	%rax, -120(%rbp)
	.loc	13 89 54
	movq	%rcx, -112(%rbp)
Ltmp135:
	.loc	7 1118 9 is_stmt 1
	movq	%rax, -104(%rbp)
Ltmp136:
	.loc	7 61 9
	movq	%rax, -96(%rbp)
Ltmp137:
	.loc	7 1118 40
	movq	%rcx, -88(%rbp)
Ltmp138:
	.loc	7 1100 9
	movq	%rax, -80(%rbp)
	.loc	7 1100 30 is_stmt 0
	movq	%rcx, -72(%rbp)
Ltmp139:
	.loc	7 555 18 is_stmt 1
	addq	%rcx, %rax
	movq	%rax, -64(%rbp)
	movq	-64(%rbp), %rax
	movq	%rax, -56(%rbp)
Ltmp140:
	.loc	7 100 29
	movq	%rax, -48(%rbp)
Ltmp141:
	.loc	12 118 36
	movq	%rax, -216(%rbp)
	.loc	12 118 14 is_stmt 0
	movq	-216(%rbp), %rax
	movq	%rax, -224(%rbp)
	movq	-224(%rbp), %rax
	movq	%rax, -248(%rbp)
Ltmp142:
LBB25_3:
	.loc	12 0 14
	movq	-280(%rbp), %rax
Ltmp143:
	.loc	13 91 48 is_stmt 1
	movq	%rax, -8(%rbp)
Ltmp144:
	.loc	14 201 13
	movq	%rax, -240(%rbp)
Ltmp145:
	.loc	13 91 64
	movq	-248(%rbp), %rax
	.loc	13 91 13 is_stmt 0
	movq	-240(%rbp), %rcx
	movq	%rcx, -256(%rbp)
	movq	%rax, -264(%rbp)
Ltmp146:
	.loc	13 93 6 is_stmt 1
	movq	-264(%rbp), %rax
	movq	-256(%rbp), %rdx
	addq	$280, %rsp
	popq	%rbp
	retq
Ltmp147:
Lfunc_end25:
	.cfi_endproc

	.globl	__ZN4core5slice4iter16IterMut$LT$T$GT$3new17h7a74254e59a57804E
	.p2align	4, 0x90
__ZN4core5slice4iter16IterMut$LT$T$GT$3new17h7a74254e59a57804E:
Lfunc_begin26:
	.loc	13 203 0
	.cfi_startproc
	pushq	%rbp
	.cfi_def_cfa_offset 16
	.cfi_offset %rbp, -16
	movq	%rsp, %rbp
	.cfi_def_cfa_register %rbp
	subq	$288, %rsp
	movq	%rdi, -288(%rbp)
	movq	%rsi, -280(%rbp)
	movq	%rdi, -216(%rbp)
	movq	%rsi, -208(%rbp)
Ltmp148:
	.loc	13 204 19 prologue_end
	movq	%rdi, -192(%rbp)
	movq	%rsi, -184(%rbp)
Ltmp149:
	.loc	10 507 9
	movq	%rdi, -176(%rbp)
Ltmp150:
	.loc	13 222 21
	movq	%rdi, -168(%rbp)
Ltmp151:
	.file	15 "/rustc/2c8cc343237b8f7d5a3c3703e3a87f2eb2c54a74/library/core/src/ptr" "mut_ptr.rs"
	.loc	15 52 36
	movq	%rdi, -240(%rbp)
	.loc	15 52 18 is_stmt 0
	movq	-240(%rbp), %rax
	movq	%rax, -160(%rbp)
Ltmp152:
	.loc	15 38 13 is_stmt 1
	movq	%rax, -152(%rbp)
Ltmp153:
	.loc	15 215 33
	movq	%rax, -144(%rbp)
	.loc	15 215 18 is_stmt 0
	movq	%rax, -136(%rbp)
Ltmp154:
	.loc	13 225 20 is_stmt 1
	xorl	%eax, %eax
	testb	$1, %al
	jne	LBB26_2
	.loc	13 0 20 is_stmt 0
	movq	-288(%rbp), %rax
	movq	-280(%rbp), %rcx
	.loc	13 225 76
	movq	%rax, -48(%rbp)
	.loc	13 225 84
	movq	%rcx, -40(%rbp)
Ltmp155:
	.loc	15 1034 18 is_stmt 1
	movq	%rax, -32(%rbp)
	.loc	15 1034 30 is_stmt 0
	movq	%rcx, -24(%rbp)
Ltmp156:
	.loc	15 487 18 is_stmt 1
	shlq	$2, %rcx
	addq	%rcx, %rax
	movq	%rax, -16(%rbp)
	movq	-16(%rbp), %rax
	movq	%rax, -256(%rbp)
Ltmp157:
	.loc	13 225 17
	jmp	LBB26_3
LBB26_2:
	.loc	13 0 17 is_stmt 0
	movq	-280(%rbp), %rcx
	movq	-288(%rbp), %rax
	.loc	13 225 32
	movq	%rax, -128(%rbp)
	.loc	13 225 54
	movq	%rcx, -120(%rbp)
Ltmp158:
	.loc	15 1220 9 is_stmt 1
	movq	%rax, -112(%rbp)
Ltmp159:
	.loc	15 60 9
	movq	%rax, -104(%rbp)
Ltmp160:
	.loc	15 1220 40
	movq	%rcx, -96(%rbp)
Ltmp161:
	.loc	15 1202 9
	movq	%rax, -88(%rbp)
	.loc	15 1202 30 is_stmt 0
	movq	%rcx, -80(%rbp)
Ltmp162:
	.loc	15 568 18 is_stmt 1
	addq	%rcx, %rax
	movq	%rax, -72(%rbp)
	movq	-72(%rbp), %rax
	movq	%rax, -64(%rbp)
Ltmp163:
	.loc	15 99 33
	movq	%rax, -56(%rbp)
Ltmp164:
	.loc	12 135 36
	movq	%rax, -224(%rbp)
	.loc	12 135 14 is_stmt 0
	movq	-224(%rbp), %rax
	movq	%rax, -232(%rbp)
	movq	-232(%rbp), %rax
	movq	%rax, -256(%rbp)
Ltmp165:
LBB26_3:
	.loc	12 0 14
	movq	-288(%rbp), %rax
Ltmp166:
	.loc	13 227 48 is_stmt 1
	movq	%rax, -8(%rbp)
Ltmp167:
	.loc	14 201 13
	movq	%rax, -248(%rbp)
Ltmp168:
	.loc	13 227 54
	movq	-256(%rbp), %rax
	.loc	13 227 13 is_stmt 0
	movq	-248(%rbp), %rcx
	movq	%rcx, -264(%rbp)
	movq	%rax, -272(%rbp)
Ltmp169:
	.loc	13 229 6 is_stmt 1
	movq	-272(%rbp), %rax
	movq	-264(%rbp), %rdx
	addq	$288, %rsp
	popq	%rbp
	retq
Ltmp170:
Lfunc_end26:
	.cfi_endproc

	.globl	__ZN4core5slice4iter20ChunksExact$LT$T$GT$3new17hc80d83897e418518E
	.p2align	4, 0x90
__ZN4core5slice4iter20ChunksExact$LT$T$GT$3new17hc80d83897e418518E:
Lfunc_begin27:
	.loc	13 1820 0
	.cfi_startproc
	pushq	%rbp
	.cfi_def_cfa_offset 16
	.cfi_offset %rbp, -16
	movq	%rsp, %rbp
	.cfi_def_cfa_register %rbp
	subq	$144, %rsp
	movq	%rcx, -144(%rbp)
	movq	%rdx, -136(%rbp)
	movq	%rsi, -128(%rbp)
	movq	%rdi, -120(%rbp)
	movq	%rdi, -112(%rbp)
	movq	%rsi, -72(%rbp)
	movq	%rdx, -64(%rbp)
	movq	%rcx, -56(%rbp)
Ltmp171:
	.loc	13 1821 19 prologue_end
	cmpq	$0, %rcx
	sete	%al
	testb	$1, %al
	jne	LBB27_2
	.loc	13 0 19 is_stmt 0
	movq	-144(%rbp), %rcx
	movq	-136(%rbp), %rax
	movq	-128(%rbp), %rsi
	.loc	13 1821 19
	xorl	%edx, %edx
	divq	%rcx
	movq	%rdx, %rax
	movq	-136(%rbp), %rdx
	movq	%rax, -48(%rbp)
Ltmp172:
	.loc	13 1822 23 is_stmt 1
	movq	%rdx, %rcx
	subq	%rax, %rcx
	movq	%rcx, -40(%rbp)
Ltmp173:
	.loc	13 1824 35
	leaq	-104(%rbp), %rdi
	callq	__ZN4core5slice29_$LT$impl$u20$$u5b$T$u5d$$GT$18split_at_unchecked17h94637d34b63c19c6E
	movq	-144(%rbp), %rdx
	movq	-120(%rbp), %rcx
	movq	-112(%rbp), %rax
	.loc	13 1824 14 is_stmt 0
	movq	-104(%rbp), %r9
	movq	-96(%rbp), %r8
	movq	%r9, -32(%rbp)
	movq	%r8, -24(%rbp)
	.loc	13 1824 19
	movq	-88(%rbp), %rdi
	movq	-80(%rbp), %rsi
	movq	%rdi, -16(%rbp)
	movq	%rsi, -8(%rbp)
Ltmp174:
	.loc	13 1825 9 is_stmt 1
	movq	%r9, (%rcx)
	movq	%r8, 8(%rcx)
	movq	%rdi, 16(%rcx)
	movq	%rsi, 24(%rcx)
	movq	%rdx, 32(%rcx)
Ltmp175:
	.loc	13 1826 6
	addq	$144, %rsp
	popq	%rbp
	retq
LBB27_2:
	.loc	13 1821 19
	leaq	_str.0(%rip), %rdi
	leaq	l___unnamed_12(%rip), %rdx
	movl	$57, %esi
	callq	__ZN4core9panicking5panic17hc1bc45270cf64b03E
Ltmp176:
Lfunc_end27:
	.cfi_endproc

	.globl	__ZN4core5slice4iter20ChunksExact$LT$T$GT$9remainder17he49f367fcc0080abE
	.p2align	4, 0x90
__ZN4core5slice4iter20ChunksExact$LT$T$GT$9remainder17he49f367fcc0080abE:
Lfunc_begin28:
	.loc	13 1847 0
	.cfi_startproc
	pushq	%rbp
	.cfi_def_cfa_offset 16
	.cfi_offset %rbp, -16
	movq	%rsp, %rbp
	.cfi_def_cfa_register %rbp
	pushq	%rax
	movq	%rdi, -8(%rbp)
Ltmp177:
	.loc	13 1848 9 prologue_end
	movq	16(%rdi), %rax
	movq	24(%rdi), %rdx
	.loc	13 1849 6
	addq	$8, %rsp
	popq	%rbp
	retq
Ltmp178:
Lfunc_end28:
	.cfi_endproc

	.globl	__ZN4core9panicking13assert_failed17hb2f5695975f112dfE
	.p2align	4, 0x90
__ZN4core9panicking13assert_failed17hb2f5695975f112dfE:
Lfunc_begin29:
	.file	16 "/rustc/2c8cc343237b8f7d5a3c3703e3a87f2eb2c54a74/library/core/src" "panicking.rs"
	.loc	16 202 0
	.cfi_startproc
	pushq	%rbp
	.cfi_def_cfa_offset 16
	.cfi_offset %rbp, -16
	movq	%rsp, %rbp
	.cfi_def_cfa_register %rbp
	subq	$96, %rsp
	movq	%rcx, -80(%rbp)
Ltmp179:
	movq	%rdx, %rcx
	movq	-80(%rbp), %rdx
	movb	%dil, %al
	movq	%rsi, -72(%rbp)
	movq	%rcx, -64(%rbp)
	movb	%al, -1(%rbp)
Ltmp180:
	.loc	16 212 46 prologue_end
	movq	40(%rdx), %rcx
	movq	%rcx, -16(%rbp)
	movq	32(%rdx), %rcx
	movq	%rcx, -24(%rbp)
	movq	24(%rdx), %rcx
	movq	%rcx, -32(%rbp)
	movq	16(%rdx), %rcx
	movq	%rcx, -40(%rbp)
	movq	(%rdx), %rcx
	movq	8(%rdx), %rdx
	movq	%rdx, -48(%rbp)
	movq	%rcx, -56(%rbp)
	.loc	16 212 5 is_stmt 0
	movq	%rsp, %rcx
	movq	%r8, (%rcx)
	movzbl	%al, %edi
	leaq	l___unnamed_1(%rip), %r8
	leaq	-72(%rbp), %rsi
	leaq	-64(%rbp), %rcx
	leaq	-56(%rbp), %r9
	movq	%r8, %rdx
	callq	__ZN4core9panicking19assert_failed_inner17hccca5a268c0d7621E
Ltmp181:
Lfunc_end29:
	.cfi_endproc

	.globl	__ZN63_$LT$I$u20$as$u20$core..iter..traits..collect..IntoIterator$GT$9into_iter17h051a63c3cf11a215E
	.p2align	4, 0x90
__ZN63_$LT$I$u20$as$u20$core..iter..traits..collect..IntoIterator$GT$9into_iter17h051a63c3cf11a215E:
Lfunc_begin30:
	.file	17 "/rustc/2c8cc343237b8f7d5a3c3703e3a87f2eb2c54a74/library/core/src/iter/traits" "collect.rs"
	.loc	17 272 0 is_stmt 1
	.cfi_startproc
	pushq	%rbp
	.cfi_def_cfa_offset 16
	.cfi_offset %rbp, -16
	movq	%rsp, %rbp
	.cfi_def_cfa_register %rbp
	subq	$16, %rsp
	movq	%rsi, %rdx
	movq	%rdi, %rax
	movq	%rax, -16(%rbp)
	movq	%rdx, -8(%rbp)
Ltmp182:
	.loc	17 274 6 prologue_end
	addq	$16, %rsp
	popq	%rbp
	retq
Ltmp183:
Lfunc_end30:
	.cfi_endproc

	.globl	__ZN63_$LT$I$u20$as$u20$core..iter..traits..collect..IntoIterator$GT$9into_iter17h2268046556220883E
	.p2align	4, 0x90
__ZN63_$LT$I$u20$as$u20$core..iter..traits..collect..IntoIterator$GT$9into_iter17h2268046556220883E:
Lfunc_begin31:
	.loc	17 272 0
	.cfi_startproc
	pushq	%rbp
	.cfi_def_cfa_offset 16
	.cfi_offset %rbp, -16
	movq	%rsp, %rbp
	.cfi_def_cfa_register %rbp
	subq	$16, %rsp
	movq	%rsi, %rdx
	movq	%rdi, %rax
	movq	%rax, -16(%rbp)
	movq	%rdx, -8(%rbp)
Ltmp184:
	.loc	17 274 6 prologue_end
	addq	$16, %rsp
	popq	%rbp
	retq
Ltmp185:
Lfunc_end31:
	.cfi_endproc

	.globl	__ZN63_$LT$I$u20$as$u20$core..iter..traits..collect..IntoIterator$GT$9into_iter17h47b13f8c31f6e8fbE
	.p2align	4, 0x90
__ZN63_$LT$I$u20$as$u20$core..iter..traits..collect..IntoIterator$GT$9into_iter17h47b13f8c31f6e8fbE:
Lfunc_begin32:
	.loc	17 272 0
	.cfi_startproc
	pushq	%rbp
	.cfi_def_cfa_offset 16
	.cfi_offset %rbp, -16
	movq	%rsp, %rbp
	.cfi_def_cfa_register %rbp
	subq	$16, %rsp
	movq	%rsi, %rdx
	movq	%rdi, %rax
	movq	%rax, -16(%rbp)
	movq	%rdx, -8(%rbp)
Ltmp186:
	.loc	17 274 6 prologue_end
	addq	$16, %rsp
	popq	%rbp
	retq
Ltmp187:
Lfunc_end32:
	.cfi_endproc

	.globl	__ZN63_$LT$I$u20$as$u20$core..iter..traits..collect..IntoIterator$GT$9into_iter17h591dc8da0f25a3a0E
	.p2align	4, 0x90
__ZN63_$LT$I$u20$as$u20$core..iter..traits..collect..IntoIterator$GT$9into_iter17h591dc8da0f25a3a0E:
Lfunc_begin33:
	.loc	17 272 0
	.cfi_startproc
	pushq	%rbp
	.cfi_def_cfa_offset 16
	.cfi_offset %rbp, -16
	movq	%rsp, %rbp
	.cfi_def_cfa_register %rbp
	subq	$16, %rsp
	movq	%rdi, %rax
	movq	%rax, -8(%rbp)
Ltmp188:
	.loc	17 273 9 prologue_end
	movl	$40, %edx
	callq	_memcpy
Ltmp189:
	.loc	17 0 9 is_stmt 0
	movq	-8(%rbp), %rax
	.loc	17 274 6 is_stmt 1
	addq	$16, %rsp
	popq	%rbp
	retq
Ltmp190:
Lfunc_end33:
	.cfi_endproc

	.globl	__ZN63_$LT$I$u20$as$u20$core..iter..traits..collect..IntoIterator$GT$9into_iter17ha2c92608c70a4322E
	.p2align	4, 0x90
__ZN63_$LT$I$u20$as$u20$core..iter..traits..collect..IntoIterator$GT$9into_iter17ha2c92608c70a4322E:
Lfunc_begin34:
	.loc	17 272 0
	.cfi_startproc
	pushq	%rbp
	.cfi_def_cfa_offset 16
	.cfi_offset %rbp, -16
	movq	%rsp, %rbp
	.cfi_def_cfa_register %rbp
	subq	$16, %rsp
	movq	%rdi, %rax
	movq	%rax, -8(%rbp)
Ltmp191:
	.loc	17 273 9 prologue_end
	movl	$56, %edx
	callq	_memcpy
Ltmp192:
	.loc	17 0 9 is_stmt 0
	movq	-8(%rbp), %rax
	.loc	17 274 6 is_stmt 1
	addq	$16, %rsp
	popq	%rbp
	retq
Ltmp193:
Lfunc_end34:
	.cfi_endproc

	.p2align	4, 0x90
__ZN66_$LT$u32$u20$as$u20$core..ops..arith..AddAssign$LT$$RF$u32$GT$$GT$10add_assign17h9fe1a3d0f6c9044aE:
Lfunc_begin35:
	.file	18 "/rustc/2c8cc343237b8f7d5a3c3703e3a87f2eb2c54a74/library/core/src" "internal_macros.rs"
	.loc	18 126 0
	.cfi_startproc
	pushq	%rbp
	.cfi_def_cfa_offset 16
	.cfi_offset %rbp, -16
	movq	%rsp, %rbp
	.cfi_def_cfa_register %rbp
	subq	$48, %rsp
	movq	%rdi, -48(%rbp)
	movq	%rdi, -32(%rbp)
	movq	%rsi, -24(%rbp)
Ltmp194:
	.loc	18 127 31 prologue_end
	movq	%rdi, -16(%rbp)
	.loc	18 127 37 is_stmt 0
	movl	(%rsi), %eax
	movl	%eax, -4(%rbp)
Ltmp195:
	.file	19 "/rustc/2c8cc343237b8f7d5a3c3703e3a87f2eb2c54a74/library/core/src/ops" "arith.rs"
	.loc	19 763 51 is_stmt 1
	addl	(%rdi), %eax
	movl	%eax, -36(%rbp)
	setb	%al
	testb	$1, %al
	jne	LBB35_2
	.loc	19 0 51 is_stmt 0
	movq	-48(%rbp), %rax
	movl	-36(%rbp), %ecx
	.loc	19 763 51
	movl	%ecx, (%rax)
Ltmp196:
	.loc	18 128 14 is_stmt 1
	addq	$48, %rsp
	popq	%rbp
	retq
LBB35_2:
Ltmp197:
	.loc	19 763 51
	leaq	_str.1(%rip), %rdi
	leaq	l___unnamed_13(%rip), %rdx
	movl	$28, %esi
	callq	__ZN4core9panicking5panic17hc1bc45270cf64b03E
Ltmp198:
Lfunc_end35:
	.cfi_endproc

	.globl	__ZN91_$LT$core..slice..iter..Iter$LT$T$GT$$u20$as$u20$core..iter..traits..iterator..Iterator$GT$24__iterator_get_unchecked17hc59fd88806974616E
	.p2align	4, 0x90
__ZN91_$LT$core..slice..iter..Iter$LT$T$GT$$u20$as$u20$core..iter..traits..iterator..Iterator$GT$24__iterator_get_unchecked17hc59fd88806974616E:
Lfunc_begin36:
	.file	20 "/rustc/2c8cc343237b8f7d5a3c3703e3a87f2eb2c54a74/library/core/src/slice/iter" "macros.rs"
	.loc	20 319 0
	.cfi_startproc
	pushq	%rbp
	.cfi_def_cfa_offset 16
	.cfi_offset %rbp, -16
	movq	%rsp, %rbp
	.cfi_def_cfa_register %rbp
	subq	$64, %rsp
	movq	%rdi, -64(%rbp)
	movq	%rsi, -56(%rbp)
Ltmp199:
	.loc	20 330 42 prologue_end
	movq	8(%rdi), %rax
	movq	%rax, -48(%rbp)
Ltmp200:
	.loc	14 326 9
	movq	%rax, -40(%rbp)
Ltmp201:
	.loc	20 330 64
	movq	%rsi, -32(%rbp)
Ltmp202:
	.loc	15 1034 18
	movq	%rax, -24(%rbp)
	.loc	15 1034 30 is_stmt 0
	movq	%rsi, -16(%rbp)
Ltmp203:
	.loc	15 487 18 is_stmt 1
	shlq	$2, %rsi
	addq	%rsi, %rax
	movq	%rax, -8(%rbp)
	movq	-8(%rbp), %rax
Ltmp204:
	.loc	20 331 14
	addq	$64, %rsp
	popq	%rbp
	retq
Ltmp205:
Lfunc_end36:
	.cfi_endproc

	.globl	__ZN91_$LT$core..slice..iter..Iter$LT$T$GT$$u20$as$u20$core..iter..traits..iterator..Iterator$GT$4next17h63cfc4ed932084d7E
	.p2align	4, 0x90
__ZN91_$LT$core..slice..iter..Iter$LT$T$GT$$u20$as$u20$core..iter..traits..iterator..Iterator$GT$4next17h63cfc4ed932084d7E:
Lfunc_begin37:
	.loc	20 124 0
	.cfi_startproc
	pushq	%rbp
	.cfi_def_cfa_offset 16
	.cfi_offset %rbp, -16
	movq	%rsp, %rbp
	.cfi_def_cfa_register %rbp
	subq	$304, %rsp
	movq	%rdi, -304(%rbp)
	movq	%rdi, -240(%rbp)
Ltmp206:
	.loc	20 132 29 prologue_end
	movq	8(%rdi), %rax
	movq	%rax, -224(%rbp)
Ltmp207:
	.loc	14 326 9
	movq	%rax, -216(%rbp)
Ltmp208:
	.loc	15 52 36
	movq	%rax, -280(%rbp)
	.loc	15 52 18 is_stmt 0
	movq	-280(%rbp), %rax
	movq	%rax, -208(%rbp)
Ltmp209:
	.loc	15 38 13 is_stmt 1
	movq	%rax, -200(%rbp)
Ltmp210:
	.loc	15 215 33
	movq	%rax, -192(%rbp)
	.loc	15 215 18 is_stmt 0
	movq	%rax, -184(%rbp)
Ltmp211:
	.loc	20 133 24 is_stmt 1
	movb	$1, %al
	testb	$1, %al
	jne	LBB37_2
LBB37_1:
	.loc	20 0 24 is_stmt 0
	movq	-304(%rbp), %rcx
	.loc	20 136 24 is_stmt 1
	movq	8(%rcx), %rax
	movq	%rax, -136(%rbp)
	cmpq	(%rcx), %rax
	je	LBB37_4
	jmp	LBB37_3
LBB37_2:
	.loc	20 0 24 is_stmt 0
	movq	-304(%rbp), %rax
	.loc	20 134 33 is_stmt 1
	movq	(%rax), %rax
	movq	%rax, -176(%rbp)
Ltmp212:
	.loc	7 53 36
	movq	%rax, -272(%rbp)
	.loc	7 53 18 is_stmt 0
	movq	-272(%rbp), %rax
	movq	%rax, -168(%rbp)
Ltmp213:
	.loc	7 39 13 is_stmt 1
	movq	%rax, -160(%rbp)
Ltmp214:
	.loc	7 209 33
	movq	%rax, -152(%rbp)
	.loc	7 209 18 is_stmt 0
	movq	%rax, -144(%rbp)
Ltmp215:
	.loc	20 133 21 is_stmt 1
	jmp	LBB37_1
LBB37_3:
	.loc	20 0 21 is_stmt 0
	movq	-304(%rbp), %rax
	.loc	20 139 30 is_stmt 1
	movq	%rax, -128(%rbp)
Ltmp216:
	.loc	20 76 20
	xorl	%eax, %eax
	testb	$1, %al
	jne	LBB37_6
	jmp	LBB37_7
Ltmp217:
LBB37_4:
	.loc	20 137 25
	movq	$0, -296(%rbp)
LBB37_5:
	.loc	20 142 14
	movq	-296(%rbp), %rax
	addq	$304, %rsp
	popq	%rbp
	retq
LBB37_6:
	.loc	20 0 14 is_stmt 0
	movq	-304(%rbp), %rax
Ltmp218:
	.loc	20 57 29 is_stmt 1
	movq	(%rax), %rcx
	movq	%rcx, -64(%rbp)
Ltmp219:
	.loc	7 1198 9
	movq	%rcx, -56(%rbp)
Ltmp220:
	.loc	7 61 9
	movq	%rcx, -48(%rbp)
Ltmp221:
	.loc	7 1180 9
	movq	%rcx, -40(%rbp)
Ltmp222:
	.loc	7 555 18
	addq	$-1, %rcx
	movq	%rcx, -32(%rbp)
	movq	-32(%rbp), %rcx
	movq	%rcx, -24(%rbp)
Ltmp223:
	.loc	7 100 29
	movq	%rcx, -16(%rbp)
Ltmp224:
	.loc	12 118 36
	movq	%rcx, -248(%rbp)
	.loc	12 118 14 is_stmt 0
	movq	-248(%rbp), %rcx
	movq	%rcx, -256(%rbp)
	movq	-256(%rbp), %rcx
Ltmp225:
	.loc	20 57 17 is_stmt 1
	movq	%rcx, (%rax)
	.loc	20 78 21
	movq	8(%rax), %rax
	movq	%rax, -8(%rbp)
	movq	%rax, -288(%rbp)
	.loc	20 76 17
	jmp	LBB37_8
LBB37_7:
	.loc	20 0 17 is_stmt 0
	movq	-304(%rbp), %rcx
	.loc	20 80 31 is_stmt 1
	movq	8(%rcx), %rax
	movq	%rax, -120(%rbp)
Ltmp226:
	.loc	14 326 9
	movq	%rax, -112(%rbp)
Ltmp227:
	.loc	20 83 64
	movq	8(%rcx), %rdx
	movq	%rdx, -104(%rbp)
Ltmp228:
	.loc	14 326 9
	movq	%rdx, -96(%rbp)
Ltmp229:
	.loc	15 1034 18
	movq	%rdx, -88(%rbp)
Ltmp230:
	.loc	15 487 18
	addq	$1, %rdx
	movq	%rdx, -80(%rbp)
	movq	-80(%rbp), %rdx
	movq	%rdx, -72(%rbp)
Ltmp231:
	.loc	14 201 13
	movq	%rdx, -264(%rbp)
Ltmp232:
	.loc	20 83 21
	movq	-264(%rbp), %rdx
	movq	%rdx, 8(%rcx)
	.loc	20 84 21
	movq	%rax, -288(%rbp)
Ltmp233:
LBB37_8:
	.loc	20 139 30
	movq	-288(%rbp), %rax
	.loc	20 139 25 is_stmt 0
	movq	%rax, -296(%rbp)
	.loc	20 136 21 is_stmt 1
	jmp	LBB37_5
Ltmp234:
Lfunc_end37:
	.cfi_endproc

	.globl	__ZN91_$LT$core..slice..iter..Iter$LT$T$GT$$u20$as$u20$core..iter..traits..iterator..Iterator$GT$4next17hfd24a3e077af3f26E
	.p2align	4, 0x90
__ZN91_$LT$core..slice..iter..Iter$LT$T$GT$$u20$as$u20$core..iter..traits..iterator..Iterator$GT$4next17hfd24a3e077af3f26E:
Lfunc_begin38:
	.loc	20 124 0
	.cfi_startproc
	pushq	%rbp
	.cfi_def_cfa_offset 16
	.cfi_offset %rbp, -16
	movq	%rsp, %rbp
	.cfi_def_cfa_register %rbp
	subq	$304, %rsp
	movq	%rdi, -304(%rbp)
	movq	%rdi, -240(%rbp)
Ltmp235:
	.loc	20 132 29 prologue_end
	movq	8(%rdi), %rax
	movq	%rax, -224(%rbp)
Ltmp236:
	.loc	14 326 9
	movq	%rax, -216(%rbp)
Ltmp237:
	.loc	15 52 36
	movq	%rax, -280(%rbp)
	.loc	15 52 18 is_stmt 0
	movq	-280(%rbp), %rax
	movq	%rax, -208(%rbp)
Ltmp238:
	.loc	15 38 13 is_stmt 1
	movq	%rax, -200(%rbp)
Ltmp239:
	.loc	15 215 33
	movq	%rax, -192(%rbp)
	.loc	15 215 18 is_stmt 0
	movq	%rax, -184(%rbp)
Ltmp240:
	.loc	20 133 24 is_stmt 1
	movb	$1, %al
	testb	$1, %al
	jne	LBB38_2
LBB38_1:
	.loc	20 0 24 is_stmt 0
	movq	-304(%rbp), %rcx
	.loc	20 136 24 is_stmt 1
	movq	8(%rcx), %rax
	movq	%rax, -136(%rbp)
	cmpq	(%rcx), %rax
	je	LBB38_4
	jmp	LBB38_3
LBB38_2:
	.loc	20 0 24 is_stmt 0
	movq	-304(%rbp), %rax
	.loc	20 134 33 is_stmt 1
	movq	(%rax), %rax
	movq	%rax, -176(%rbp)
Ltmp241:
	.loc	7 53 36
	movq	%rax, -272(%rbp)
	.loc	7 53 18 is_stmt 0
	movq	-272(%rbp), %rax
	movq	%rax, -168(%rbp)
Ltmp242:
	.loc	7 39 13 is_stmt 1
	movq	%rax, -160(%rbp)
Ltmp243:
	.loc	7 209 33
	movq	%rax, -152(%rbp)
	.loc	7 209 18 is_stmt 0
	movq	%rax, -144(%rbp)
Ltmp244:
	.loc	20 133 21 is_stmt 1
	jmp	LBB38_1
LBB38_3:
	.loc	20 0 21 is_stmt 0
	movq	-304(%rbp), %rax
	.loc	20 139 30 is_stmt 1
	movq	%rax, -128(%rbp)
Ltmp245:
	.loc	20 76 20
	xorl	%eax, %eax
	testb	$1, %al
	jne	LBB38_6
	jmp	LBB38_7
Ltmp246:
LBB38_4:
	.loc	20 137 25
	movq	$0, -296(%rbp)
LBB38_5:
	.loc	20 142 14
	movq	-296(%rbp), %rax
	addq	$304, %rsp
	popq	%rbp
	retq
LBB38_6:
	.loc	20 0 14 is_stmt 0
	movq	-304(%rbp), %rax
Ltmp247:
	.loc	20 57 29 is_stmt 1
	movq	(%rax), %rcx
	movq	%rcx, -64(%rbp)
Ltmp248:
	.loc	7 1198 9
	movq	%rcx, -56(%rbp)
Ltmp249:
	.loc	7 61 9
	movq	%rcx, -48(%rbp)
Ltmp250:
	.loc	7 1180 9
	movq	%rcx, -40(%rbp)
Ltmp251:
	.loc	7 555 18
	addq	$-1, %rcx
	movq	%rcx, -32(%rbp)
	movq	-32(%rbp), %rcx
	movq	%rcx, -24(%rbp)
Ltmp252:
	.loc	7 100 29
	movq	%rcx, -16(%rbp)
Ltmp253:
	.loc	12 118 36
	movq	%rcx, -248(%rbp)
	.loc	12 118 14 is_stmt 0
	movq	-248(%rbp), %rcx
	movq	%rcx, -256(%rbp)
	movq	-256(%rbp), %rcx
Ltmp254:
	.loc	20 57 17 is_stmt 1
	movq	%rcx, (%rax)
	.loc	20 78 21
	movq	8(%rax), %rax
	movq	%rax, -8(%rbp)
	movq	%rax, -288(%rbp)
	.loc	20 76 17
	jmp	LBB38_8
LBB38_7:
	.loc	20 0 17 is_stmt 0
	movq	-304(%rbp), %rcx
	.loc	20 80 31 is_stmt 1
	movq	8(%rcx), %rax
	movq	%rax, -120(%rbp)
Ltmp255:
	.loc	14 326 9
	movq	%rax, -112(%rbp)
Ltmp256:
	.loc	20 83 64
	movq	8(%rcx), %rdx
	movq	%rdx, -104(%rbp)
Ltmp257:
	.loc	14 326 9
	movq	%rdx, -96(%rbp)
Ltmp258:
	.loc	15 1034 18
	movq	%rdx, -88(%rbp)
Ltmp259:
	.loc	15 487 18
	addq	$4, %rdx
	movq	%rdx, -80(%rbp)
	movq	-80(%rbp), %rdx
	movq	%rdx, -72(%rbp)
Ltmp260:
	.loc	14 201 13
	movq	%rdx, -264(%rbp)
Ltmp261:
	.loc	20 83 21
	movq	-264(%rbp), %rdx
	movq	%rdx, 8(%rcx)
	.loc	20 84 21
	movq	%rax, -288(%rbp)
Ltmp262:
LBB38_8:
	.loc	20 139 30
	movq	-288(%rbp), %rax
	.loc	20 139 25 is_stmt 0
	movq	%rax, -296(%rbp)
	.loc	20 136 21 is_stmt 1
	jmp	LBB38_5
Ltmp263:
Lfunc_end38:
	.cfi_endproc

	.globl	__ZN91_$LT$core..slice..iter..Iter$LT$T$GT$$u20$as$u20$core..iter..traits..iterator..Iterator$GT$9size_hint17hafbf540d00f26482E
	.p2align	4, 0x90
__ZN91_$LT$core..slice..iter..Iter$LT$T$GT$$u20$as$u20$core..iter..traits..iterator..Iterator$GT$9size_hint17hafbf540d00f26482E:
Lfunc_begin39:
	.loc	20 145 0
	.cfi_startproc
	pushq	%rbp
	.cfi_def_cfa_offset 16
	.cfi_offset %rbp, -16
	movq	%rsp, %rbp
	.cfi_def_cfa_register %rbp
	subq	$160, %rsp
	movq	%rsi, -152(%rbp)
	movq	%rdi, -144(%rbp)
	movq	%rdi, -136(%rbp)
	movq	%rsi, -96(%rbp)
Ltmp264:
	.loc	20 146 29 prologue_end
	movq	8(%rsi), %rax
	movq	%rax, -128(%rbp)
	movq	%rax, -88(%rbp)
Ltmp265:
	.loc	20 146 29 is_stmt 0
	xorl	%eax, %eax
	testb	$1, %al
	jne	LBB39_2
	.loc	20 0 29
	movq	-128(%rbp), %rsi
	movq	-152(%rbp), %rax
	.loc	20 146 29
	movq	(%rax), %rdi
	movq	%rsi, -8(%rbp)
	callq	__ZN4core3ptr9const_ptr33_$LT$impl$u20$$BP$const$u20$T$GT$7sub_ptr17haec1e67c2215574eE
	movq	%rax, -120(%rbp)
	jmp	LBB39_3
LBB39_2:
	.loc	20 0 29
	movq	-128(%rbp), %rcx
	movq	-152(%rbp), %rax
	.loc	20 146 29
	movq	(%rax), %rax
	movq	%rax, -80(%rbp)
Ltmp266:
	.loc	7 209 33 is_stmt 1
	movq	%rax, -72(%rbp)
	.loc	7 209 18 is_stmt 0
	movq	%rax, -64(%rbp)
	movq	-64(%rbp), %rax
	movq	%rax, -56(%rbp)
Ltmp267:
	.loc	20 146 29 is_stmt 1
	movq	%rcx, -48(%rbp)
Ltmp268:
	.loc	14 326 9
	movq	%rcx, -40(%rbp)
Ltmp269:
	.loc	15 215 33
	movq	%rcx, -32(%rbp)
	.loc	15 215 18 is_stmt 0
	movq	%rcx, -24(%rbp)
	movq	-24(%rbp), %rcx
	movq	%rcx, -16(%rbp)
Ltmp270:
	.file	21 "/rustc/2c8cc343237b8f7d5a3c3703e3a87f2eb2c54a74/library/core/src/num" "uint_macros.rs"
	.loc	21 1203 13 is_stmt 1
	subq	%rcx, %rax
	movq	%rax, -120(%rbp)
Ltmp271:
LBB39_3:
	.loc	21 0 13 is_stmt 0
	movq	-136(%rbp), %rax
	movq	-144(%rbp), %rcx
Ltmp272:
	.loc	20 147 18 is_stmt 1
	movq	-120(%rbp), %rdx
	.loc	20 147 30 is_stmt 0
	movq	-120(%rbp), %rsi
	.loc	20 147 25
	movq	%rsi, -104(%rbp)
	movq	$1, -112(%rbp)
	.loc	20 147 17
	movq	%rdx, (%rcx)
	movq	-112(%rbp), %rsi
	movq	-104(%rbp), %rdx
	movq	%rsi, 8(%rcx)
	movq	%rdx, 16(%rcx)
Ltmp273:
	.loc	20 148 14 is_stmt 1
	addq	$160, %rsp
	popq	%rbp
	retq
Ltmp274:
Lfunc_end39:
	.cfi_endproc

	.globl	__ZN94_$LT$core..slice..iter..IterMut$LT$T$GT$$u20$as$u20$core..iter..traits..iterator..Iterator$GT$24__iterator_get_unchecked17h6407be27cc7401afE
	.p2align	4, 0x90
__ZN94_$LT$core..slice..iter..IterMut$LT$T$GT$$u20$as$u20$core..iter..traits..iterator..Iterator$GT$24__iterator_get_unchecked17h6407be27cc7401afE:
Lfunc_begin40:
	.loc	20 319 0
	.cfi_startproc
	pushq	%rbp
	.cfi_def_cfa_offset 16
	.cfi_offset %rbp, -16
	movq	%rsp, %rbp
	.cfi_def_cfa_register %rbp
	subq	$64, %rsp
	movq	%rdi, -64(%rbp)
	movq	%rsi, -56(%rbp)
Ltmp275:
	.loc	20 330 42 prologue_end
	movq	8(%rdi), %rax
	movq	%rax, -48(%rbp)
Ltmp276:
	.loc	14 326 9
	movq	%rax, -40(%rbp)
Ltmp277:
	.loc	20 330 64
	movq	%rsi, -32(%rbp)
Ltmp278:
	.loc	15 1034 18
	movq	%rax, -24(%rbp)
	.loc	15 1034 30 is_stmt 0
	movq	%rsi, -16(%rbp)
Ltmp279:
	.loc	15 487 18 is_stmt 1
	shlq	$2, %rsi
	addq	%rsi, %rax
	movq	%rax, -8(%rbp)
	movq	-8(%rbp), %rax
Ltmp280:
	.loc	20 331 14
	addq	$64, %rsp
	popq	%rbp
	retq
Ltmp281:
Lfunc_end40:
	.cfi_endproc

	.globl	__ZN94_$LT$core..slice..iter..IterMut$LT$T$GT$$u20$as$u20$core..iter..traits..iterator..Iterator$GT$4next17hbcf32b0232821f8bE
	.p2align	4, 0x90
__ZN94_$LT$core..slice..iter..IterMut$LT$T$GT$$u20$as$u20$core..iter..traits..iterator..Iterator$GT$4next17hbcf32b0232821f8bE:
Lfunc_begin41:
	.loc	20 124 0
	.cfi_startproc
	pushq	%rbp
	.cfi_def_cfa_offset 16
	.cfi_offset %rbp, -16
	movq	%rsp, %rbp
	.cfi_def_cfa_register %rbp
	subq	$304, %rsp
	movq	%rdi, -304(%rbp)
	movq	%rdi, -240(%rbp)
Ltmp282:
	.loc	20 132 29 prologue_end
	movq	8(%rdi), %rax
	movq	%rax, -224(%rbp)
Ltmp283:
	.loc	14 326 9
	movq	%rax, -216(%rbp)
Ltmp284:
	.loc	15 52 36
	movq	%rax, -280(%rbp)
	.loc	15 52 18 is_stmt 0
	movq	-280(%rbp), %rax
	movq	%rax, -208(%rbp)
Ltmp285:
	.loc	15 38 13 is_stmt 1
	movq	%rax, -200(%rbp)
Ltmp286:
	.loc	15 215 33
	movq	%rax, -192(%rbp)
	.loc	15 215 18 is_stmt 0
	movq	%rax, -184(%rbp)
Ltmp287:
	.loc	20 133 24 is_stmt 1
	movb	$1, %al
	testb	$1, %al
	jne	LBB41_2
LBB41_1:
	.loc	20 0 24 is_stmt 0
	movq	-304(%rbp), %rcx
	.loc	20 136 24 is_stmt 1
	movq	8(%rcx), %rax
	movq	%rax, -136(%rbp)
	cmpq	(%rcx), %rax
	je	LBB41_4
	jmp	LBB41_3
LBB41_2:
	.loc	20 0 24 is_stmt 0
	movq	-304(%rbp), %rax
	.loc	20 134 33 is_stmt 1
	movq	(%rax), %rax
	movq	%rax, -176(%rbp)
Ltmp288:
	.loc	15 52 36
	movq	%rax, -272(%rbp)
	.loc	15 52 18 is_stmt 0
	movq	-272(%rbp), %rax
	movq	%rax, -168(%rbp)
Ltmp289:
	.loc	15 38 13 is_stmt 1
	movq	%rax, -160(%rbp)
Ltmp290:
	.loc	15 215 33
	movq	%rax, -152(%rbp)
	.loc	15 215 18 is_stmt 0
	movq	%rax, -144(%rbp)
Ltmp291:
	.loc	20 133 21 is_stmt 1
	jmp	LBB41_1
LBB41_3:
	.loc	20 0 21 is_stmt 0
	movq	-304(%rbp), %rax
	.loc	20 139 30 is_stmt 1
	movq	%rax, -128(%rbp)
Ltmp292:
	.loc	20 76 20
	xorl	%eax, %eax
	testb	$1, %al
	jne	LBB41_6
	jmp	LBB41_7
Ltmp293:
LBB41_4:
	.loc	20 137 25
	movq	$0, -296(%rbp)
LBB41_5:
	.loc	20 142 14
	movq	-296(%rbp), %rax
	addq	$304, %rsp
	popq	%rbp
	retq
LBB41_6:
	.loc	20 0 14 is_stmt 0
	movq	-304(%rbp), %rax
Ltmp294:
	.loc	20 57 29 is_stmt 1
	movq	(%rax), %rcx
	movq	%rcx, -64(%rbp)
Ltmp295:
	.loc	15 1300 9
	movq	%rcx, -56(%rbp)
Ltmp296:
	.loc	15 60 9
	movq	%rcx, -48(%rbp)
Ltmp297:
	.loc	15 1282 9
	movq	%rcx, -40(%rbp)
Ltmp298:
	.loc	15 568 18
	addq	$-1, %rcx
	movq	%rcx, -32(%rbp)
	movq	-32(%rbp), %rcx
	movq	%rcx, -24(%rbp)
Ltmp299:
	.loc	15 99 33
	movq	%rcx, -16(%rbp)
Ltmp300:
	.loc	12 135 36
	movq	%rcx, -248(%rbp)
	.loc	12 135 14 is_stmt 0
	movq	-248(%rbp), %rcx
	movq	%rcx, -256(%rbp)
	movq	-256(%rbp), %rcx
Ltmp301:
	.loc	20 57 17 is_stmt 1
	movq	%rcx, (%rax)
	.loc	20 78 21
	movq	8(%rax), %rax
	movq	%rax, -8(%rbp)
Ltmp302:
	.loc	14 326 9
	movq	%rax, -288(%rbp)
Ltmp303:
	.loc	20 76 17
	jmp	LBB41_8
LBB41_7:
	.loc	20 0 17 is_stmt 0
	movq	-304(%rbp), %rcx
	.loc	20 80 31 is_stmt 1
	movq	8(%rcx), %rax
	movq	%rax, -120(%rbp)
Ltmp304:
	.loc	14 326 9
	movq	%rax, -112(%rbp)
Ltmp305:
	.loc	20 83 64
	movq	8(%rcx), %rdx
	movq	%rdx, -104(%rbp)
Ltmp306:
	.loc	14 326 9
	movq	%rdx, -96(%rbp)
Ltmp307:
	.loc	15 1034 18
	movq	%rdx, -88(%rbp)
Ltmp308:
	.loc	15 487 18
	addq	$4, %rdx
	movq	%rdx, -80(%rbp)
	movq	-80(%rbp), %rdx
	movq	%rdx, -72(%rbp)
Ltmp309:
	.loc	14 201 13
	movq	%rdx, -264(%rbp)
Ltmp310:
	.loc	20 83 21
	movq	-264(%rbp), %rdx
	movq	%rdx, 8(%rcx)
	.loc	20 84 21
	movq	%rax, -288(%rbp)
Ltmp311:
LBB41_8:
	.loc	20 139 30
	movq	-288(%rbp), %rax
	.loc	20 139 25 is_stmt 0
	movq	%rax, -296(%rbp)
	.loc	20 136 21 is_stmt 1
	jmp	LBB41_5
Ltmp312:
Lfunc_end41:
	.cfi_endproc

	.globl	__ZN94_$LT$core..slice..iter..IterMut$LT$T$GT$$u20$as$u20$core..iter..traits..iterator..Iterator$GT$9size_hint17hd5ad8ba4855c49eaE
	.p2align	4, 0x90
__ZN94_$LT$core..slice..iter..IterMut$LT$T$GT$$u20$as$u20$core..iter..traits..iterator..Iterator$GT$9size_hint17hd5ad8ba4855c49eaE:
Lfunc_begin42:
	.loc	20 145 0
	.cfi_startproc
	pushq	%rbp
	.cfi_def_cfa_offset 16
	.cfi_offset %rbp, -16
	movq	%rsp, %rbp
	.cfi_def_cfa_register %rbp
	subq	$176, %rsp
	movq	%rsi, -168(%rbp)
	movq	%rdi, -160(%rbp)
	movq	%rdi, -152(%rbp)
	movq	%rsi, -112(%rbp)
Ltmp313:
	.loc	20 146 29 prologue_end
	movq	8(%rsi), %rax
	movq	%rax, -144(%rbp)
	movq	%rax, -104(%rbp)
Ltmp314:
	.loc	20 146 29 is_stmt 0
	xorl	%eax, %eax
	testb	$1, %al
	jne	LBB42_2
	.loc	20 0 29
	movq	-144(%rbp), %rsi
	movq	-168(%rbp), %rax
	.loc	20 146 29
	movq	(%rax), %rdi
	movq	%rdi, -24(%rbp)
	movq	%rsi, -16(%rbp)
	movq	%rsi, -8(%rbp)
Ltmp315:
	.loc	15 970 18 is_stmt 1
	callq	__ZN4core3ptr9const_ptr33_$LT$impl$u20$$BP$const$u20$T$GT$7sub_ptr17haec1e67c2215574eE
	movq	%rax, -136(%rbp)
Ltmp316:
	.loc	20 146 29
	jmp	LBB42_3
LBB42_2:
	.loc	20 0 29 is_stmt 0
	movq	-144(%rbp), %rcx
	movq	-168(%rbp), %rax
	.loc	20 146 29
	movq	(%rax), %rax
	movq	%rax, -96(%rbp)
Ltmp317:
	.loc	15 215 33 is_stmt 1
	movq	%rax, -88(%rbp)
	.loc	15 215 18 is_stmt 0
	movq	%rax, -80(%rbp)
	movq	-80(%rbp), %rax
	movq	%rax, -72(%rbp)
Ltmp318:
	.loc	20 146 29 is_stmt 1
	movq	%rcx, -64(%rbp)
Ltmp319:
	.loc	14 326 9
	movq	%rcx, -56(%rbp)
Ltmp320:
	.loc	15 215 33
	movq	%rcx, -48(%rbp)
	.loc	15 215 18 is_stmt 0
	movq	%rcx, -40(%rbp)
	movq	-40(%rbp), %rcx
	movq	%rcx, -32(%rbp)
Ltmp321:
	.loc	21 1203 13 is_stmt 1
	subq	%rcx, %rax
	movq	%rax, -136(%rbp)
Ltmp322:
LBB42_3:
	.loc	21 0 13 is_stmt 0
	movq	-152(%rbp), %rax
	movq	-160(%rbp), %rcx
Ltmp323:
	.loc	20 147 18 is_stmt 1
	movq	-136(%rbp), %rdx
	.loc	20 147 30 is_stmt 0
	movq	-136(%rbp), %rsi
	.loc	20 147 25
	movq	%rsi, -120(%rbp)
	movq	$1, -128(%rbp)
	.loc	20 147 17
	movq	%rdx, (%rcx)
	movq	-128(%rbp), %rsi
	movq	-120(%rbp), %rdx
	movq	%rsi, 8(%rcx)
	movq	%rdx, 16(%rcx)
Ltmp324:
	.loc	20 148 14 is_stmt 1
	addq	$176, %rsp
	popq	%rbp
	retq
Ltmp325:
Lfunc_end42:
	.cfi_endproc

	.globl	__ZN98_$LT$core..slice..iter..ChunksExact$LT$T$GT$$u20$as$u20$core..iter..traits..iterator..Iterator$GT$4next17h6c38235900286528E
	.p2align	4, 0x90
__ZN98_$LT$core..slice..iter..ChunksExact$LT$T$GT$$u20$as$u20$core..iter..traits..iterator..Iterator$GT$4next17h6c38235900286528E:
Lfunc_begin43:
	.loc	13 1865 0
	.cfi_startproc
	pushq	%rbp
	.cfi_def_cfa_offset 16
	.cfi_offset %rbp, -16
	movq	%rsp, %rbp
	.cfi_def_cfa_register %rbp
	subq	$96, %rsp
	movq	%rdi, -96(%rbp)
	movq	%rdi, -40(%rbp)
Ltmp326:
	.loc	13 1866 12 prologue_end
	movq	8(%rdi), %rax
	cmpq	32(%rdi), %rax
	jb	LBB43_2
	.loc	13 0 12 is_stmt 0
	movq	-96(%rbp), %rax
	.loc	13 1869 30 is_stmt 1
	movq	(%rax), %rsi
	movq	8(%rax), %rdx
	.loc	13 1869 46 is_stmt 0
	movq	32(%rax), %rcx
	.loc	13 1869 30
	leaq	-72(%rbp), %rdi
	leaq	l___unnamed_14(%rip), %r8
	callq	__ZN4core5slice29_$LT$impl$u20$$u5b$T$u5d$$GT$8split_at17h35c24c7173be4a20E
	movq	-96(%rbp), %rdx
	.loc	13 1869 18
	movq	-72(%rbp), %rcx
	movq	-64(%rbp), %rax
	movq	%rcx, -32(%rbp)
	movq	%rax, -24(%rbp)
	.loc	13 1869 23
	movq	-56(%rbp), %rdi
	movq	-48(%rbp), %rsi
	movq	%rdi, -16(%rbp)
	movq	%rsi, -8(%rbp)
Ltmp327:
	.loc	13 1870 13 is_stmt 1
	movq	%rdi, (%rdx)
	movq	%rsi, 8(%rdx)
	.loc	13 1871 13
	movq	%rcx, -88(%rbp)
	movq	%rax, -80(%rbp)
Ltmp328:
	.loc	13 1866 9
	jmp	LBB43_3
LBB43_2:
	.loc	13 1867 13
	movq	$0, -88(%rbp)
LBB43_3:
	.loc	13 1873 6
	movq	-88(%rbp), %rax
	movq	-80(%rbp), %rdx
	addq	$96, %rsp
	popq	%rbp
	retq
Ltmp329:
Lfunc_end43:
	.cfi_endproc

	.p2align	4, 0x90
__ZN5adler4algo32_$LT$impl$u20$adler..Adler32$GT$7compute17h6166efa97864548aE:
Lfunc_begin44:
	.file	22 "/Users/natalie/.cargo/registry/src/github.com-1ecc6299db9ec823/adler-1.0.2" "src/algo.rs"
	.loc	22 5 0
	.cfi_startproc
	pushq	%rbp
	.cfi_def_cfa_offset 16
	.cfi_offset %rbp, -16
	movq	%rsp, %rbp
	.cfi_def_cfa_register %rbp
	subq	$976, %rsp
	movq	%rdi, -872(%rbp)
	movq	%rsi, -864(%rbp)
	movq	%rdx, -856(%rbp)
	movq	%rdi, -136(%rbp)
	movq	%rsi, -128(%rbp)
	movq	%rdx, -120(%rbp)
Ltmp330:
	.loc	22 55 31 prologue_end
	movw	(%rdi), %ax
	movw	%ax, -2(%rbp)
Ltmp331:
	.file	23 "/rustc/2c8cc343237b8f7d5a3c3703e3a87f2eb2c54a74/library/core/src/convert" "num.rs"
	.loc	23 54 17
	movzwl	%ax, %eax
Ltmp332:
	.loc	22 55 21
	movl	%eax, -840(%rbp)
Ltmp333:
	.loc	22 56 31
	movw	2(%rdi), %ax
	movw	%ax, -4(%rbp)
Ltmp334:
	.loc	23 54 17
	movzwl	%ax, %eax
Ltmp335:
	.loc	22 56 21
	movl	%eax, -836(%rbp)
Ltmp336:
	.loc	22 57 31
	leaq	-816(%rbp), %rdi
	xorl	%esi, %esi
	movl	$16, %edx
	callq	_memset
	movq	-856(%rbp), %rdx
	.loc	22 57 25 is_stmt 0
	movq	-816(%rbp), %rax
	movq	%rax, -832(%rbp)
	movq	-808(%rbp), %rax
	movq	%rax, -824(%rbp)
Ltmp337:
	.loc	22 58 25 is_stmt 1
	movq	-832(%rbp), %rax
	movq	%rax, -800(%rbp)
	movq	-824(%rbp), %rax
	movq	%rax, -792(%rbp)
Ltmp338:
	.loc	22 60 63
	movq	%rdx, %rax
	andq	$3, %rax
	.loc	22 60 49 is_stmt 0
	movq	%rdx, %rcx
	subq	%rax, %rcx
	movq	%rcx, -848(%rbp)
	cmpq	%rax, %rdx
	setb	%al
	testb	$1, %al
	jne	LBB44_2
	.loc	22 0 49
	movq	-848(%rbp), %rcx
	movq	-856(%rbp), %rdx
	movq	-864(%rbp), %rsi
	.loc	22 60 34
	leaq	-784(%rbp), %rdi
	leaq	l___unnamed_15(%rip), %r8
	callq	__ZN4core5slice29_$LT$impl$u20$$u5b$T$u5d$$GT$8split_at17h35c24c7173be4a20E
	.loc	22 60 14
	movq	-784(%rbp), %rsi
	movq	-776(%rbp), %rdx
	movq	%rsi, -112(%rbp)
	movq	%rdx, -104(%rbp)
	.loc	22 60 21
	movq	-768(%rbp), %rcx
	movq	%rcx, -904(%rbp)
	movq	-760(%rbp), %rax
	movq	%rax, -896(%rbp)
	movq	%rcx, -96(%rbp)
	movq	%rax, -88(%rbp)
Ltmp339:
	.loc	22 63 26 is_stmt 1
	leaq	-752(%rbp), %rdi
	movl	$22208, %ecx
	callq	__ZN4core5slice29_$LT$impl$u20$$u5b$T$u5d$$GT$12chunks_exact17h927e6a749a27ca0bE
Ltmp340:
	.loc	22 64 31
	leaq	-752(%rbp), %rdi
	callq	__ZN4core5slice4iter20ChunksExact$LT$T$GT$9remainder17he49f367fcc0080abE
	movq	%rax, -888(%rbp)
	movq	%rdx, -880(%rbp)
	movq	%rax, -80(%rbp)
	movq	%rdx, -72(%rbp)
Ltmp341:
	.loc	22 65 22
	leaq	-672(%rbp), %rdi
	leaq	-752(%rbp), %rsi
	movl	$40, %edx
	callq	_memcpy
	leaq	-712(%rbp), %rdi
	leaq	-672(%rbp), %rsi
	callq	__ZN63_$LT$I$u20$as$u20$core..iter..traits..collect..IntoIterator$GT$9into_iter17h591dc8da0f25a3a0E
	leaq	-632(%rbp), %rdi
	leaq	-712(%rbp), %rsi
	movl	$40, %edx
	callq	_memcpy
Ltmp342:
	.loc	22 65 9 is_stmt 0
	jmp	LBB44_3
Ltmp343:
LBB44_2:
	.loc	22 60 49 is_stmt 1
	leaq	_str.2(%rip), %rdi
	leaq	l___unnamed_16(%rip), %rdx
	movl	$33, %esi
	callq	__ZN4core9panicking5panic17hc1bc45270cf64b03E
LBB44_3:
	.loc	22 0 49 is_stmt 0
	leaq	-632(%rbp), %rdi
Ltmp344:
	.loc	22 65 22 is_stmt 1
	callq	__ZN98_$LT$core..slice..iter..ChunksExact$LT$T$GT$$u20$as$u20$core..iter..traits..iterator..Iterator$GT$4next17h6c38235900286528E
	movq	%rdx, -584(%rbp)
	movq	%rax, -592(%rbp)
	movq	-592(%rbp), %rdx
	movl	$1, %eax
	xorl	%ecx, %ecx
	cmpq	$0, %rdx
	cmoveq	%rcx, %rax
	cmpq	$0, %rax
	jne	LBB44_5
Ltmp345:
	.loc	22 0 22 is_stmt 0
	movq	-880(%rbp), %rdx
	movq	-888(%rbp), %rsi
	.loc	22 77 25 is_stmt 1
	leaq	-352(%rbp), %rdi
	movl	$4, %ecx
	callq	__ZN4core5slice29_$LT$impl$u20$$u5b$T$u5d$$GT$12chunks_exact17h927e6a749a27ca0bE
	leaq	-392(%rbp), %rdi
	leaq	-352(%rbp), %rsi
	callq	__ZN63_$LT$I$u20$as$u20$core..iter..traits..collect..IntoIterator$GT$9into_iter17h591dc8da0f25a3a0E
	leaq	-312(%rbp), %rdi
	leaq	-392(%rbp), %rsi
	movl	$40, %edx
	callq	_memcpy
Ltmp346:
	.loc	22 77 9 is_stmt 0
	jmp	LBB44_13
Ltmp347:
LBB44_5:
	.loc	22 65 13 is_stmt 1
	movq	-592(%rbp), %rsi
	movq	-584(%rbp), %rdx
	movq	%rsi, -64(%rbp)
	movq	%rdx, -56(%rbp)
Ltmp348:
	.loc	22 66 29
	leaq	-536(%rbp), %rdi
	movl	$4, %ecx
	callq	__ZN4core5slice29_$LT$impl$u20$$u5b$T$u5d$$GT$12chunks_exact17h927e6a749a27ca0bE
	leaq	-576(%rbp), %rdi
	leaq	-536(%rbp), %rsi
	callq	__ZN63_$LT$I$u20$as$u20$core..iter..traits..collect..IntoIterator$GT$9into_iter17h591dc8da0f25a3a0E
	leaq	-496(%rbp), %rdi
	leaq	-576(%rbp), %rsi
	movl	$40, %edx
	callq	_memcpy
LBB44_6:
	.loc	22 0 29 is_stmt 0
	leaq	-496(%rbp), %rdi
Ltmp349:
	.loc	22 66 29
	callq	__ZN98_$LT$core..slice..iter..ChunksExact$LT$T$GT$$u20$as$u20$core..iter..traits..iterator..Iterator$GT$4next17h6c38235900286528E
	movq	%rdx, -448(%rbp)
	movq	%rax, -456(%rbp)
	movq	-456(%rbp), %rdx
	movl	$1, %eax
	xorl	%ecx, %ecx
	cmpq	$0, %rdx
	cmoveq	%rcx, %rax
	cmpq	$0, %rax
	jne	LBB44_8
Ltmp350:
	.loc	22 71 38 is_stmt 1
	movl	-840(%rbp), %eax
	.loc	22 71 18 is_stmt 0
	movl	$22208, %ecx
	mull	%ecx
	movl	%eax, -908(%rbp)
	seto	%al
	testb	$1, %al
	jne	LBB44_10
	jmp	LBB44_9
LBB44_8:
Ltmp351:
	.loc	22 66 17 is_stmt 1
	movq	-456(%rbp), %rsi
	movq	-448(%rbp), %rdx
	movq	%rsi, -48(%rbp)
	movq	%rdx, -40(%rbp)
Ltmp352:
	.loc	22 67 27
	leaq	-440(%rbp), %rdi
	callq	__ZN5adler4algo5U32X44from17h11b8350856bd83eaE
Ltmp353:
	.loc	22 68 26
	movq	-440(%rbp), %rax
	movq	%rax, -424(%rbp)
	movq	-432(%rbp), %rax
	movq	%rax, -416(%rbp)
	.loc	22 68 17 is_stmt 0
	leaq	-832(%rbp), %rdi
	leaq	-424(%rbp), %rsi
	callq	__ZN66_$LT$adler..algo..U32X4$u20$as$u20$core..ops..arith..AddAssign$GT$10add_assign17h731ec9647a21d9a3E
	.loc	22 69 26 is_stmt 1
	movq	-832(%rbp), %rax
	movq	%rax, -408(%rbp)
	movq	-824(%rbp), %rax
	movq	%rax, -400(%rbp)
	.loc	22 69 17 is_stmt 0
	leaq	-800(%rbp), %rdi
	leaq	-408(%rbp), %rsi
	callq	__ZN66_$LT$adler..algo..U32X4$u20$as$u20$core..ops..arith..AddAssign$GT$10add_assign17h731ec9647a21d9a3E
	jmp	LBB44_6
Ltmp354:
LBB44_9:
	.loc	22 0 17
	movl	-908(%rbp), %eax
	.loc	22 71 13 is_stmt 1
	addl	-836(%rbp), %eax
	movl	%eax, -912(%rbp)
	setb	%al
	testb	$1, %al
	jne	LBB44_12
	jmp	LBB44_11
LBB44_10:
	.loc	22 71 18 is_stmt 0
	leaq	_str.3(%rip), %rdi
	leaq	l___unnamed_17(%rip), %rdx
	movl	$33, %esi
	callq	__ZN4core9panicking5panic17hc1bc45270cf64b03E
LBB44_11:
	.loc	22 0 18
	movl	-912(%rbp), %eax
	.loc	22 71 13
	movl	%eax, -836(%rbp)
	.loc	22 72 13 is_stmt 1
	leaq	-832(%rbp), %rdi
	movl	$65521, %esi
	callq	__ZN77_$LT$adler..algo..U32X4$u20$as$u20$core..ops..arith..RemAssign$LT$u32$GT$$GT$10rem_assign17h603836f059cf9b65E
	.loc	22 73 13
	leaq	-800(%rbp), %rdi
	movl	$65521, %esi
	callq	__ZN77_$LT$adler..algo..U32X4$u20$as$u20$core..ops..arith..RemAssign$LT$u32$GT$$GT$10rem_assign17h603836f059cf9b65E
	.loc	22 74 13
	movl	-836(%rbp), %eax
	movl	$65521, %ecx
	xorl	%edx, %edx
	divl	%ecx
	movl	%edx, -836(%rbp)
Ltmp355:
	.loc	22 65 9
	jmp	LBB44_3
LBB44_12:
Ltmp356:
	.loc	22 71 13
	leaq	_str.1(%rip), %rdi
	leaq	l___unnamed_18(%rip), %rdx
	movl	$28, %esi
	callq	__ZN4core9panicking5panic17hc1bc45270cf64b03E
Ltmp357:
LBB44_13:
	.loc	22 0 13 is_stmt 0
	leaq	-312(%rbp), %rdi
Ltmp358:
	.loc	22 77 25 is_stmt 1
	callq	__ZN98_$LT$core..slice..iter..ChunksExact$LT$T$GT$$u20$as$u20$core..iter..traits..iterator..Iterator$GT$4next17h6c38235900286528E
	movq	%rdx, -264(%rbp)
	movq	%rax, -272(%rbp)
	movq	-272(%rbp), %rdx
	movl	$1, %eax
	xorl	%ecx, %ecx
	cmpq	$0, %rdx
	cmoveq	%rcx, %rax
	cmpq	$0, %rax
	jne	LBB44_15
Ltmp359:
	.loc	22 0 25 is_stmt 0
	movq	-880(%rbp), %rax
	.loc	22 82 14 is_stmt 1
	mull	-840(%rbp)
	movl	%eax, -916(%rbp)
	seto	%al
	testb	$1, %al
	jne	LBB44_17
	jmp	LBB44_16
LBB44_15:
Ltmp360:
	.loc	22 77 13
	movq	-272(%rbp), %rsi
	movq	-264(%rbp), %rdx
	movq	%rsi, -32(%rbp)
	movq	%rdx, -24(%rbp)
Ltmp361:
	.loc	22 78 23
	leaq	-256(%rbp), %rdi
	callq	__ZN5adler4algo5U32X44from17h11b8350856bd83eaE
Ltmp362:
	.loc	22 79 22
	movq	-256(%rbp), %rax
	movq	%rax, -240(%rbp)
	movq	-248(%rbp), %rax
	movq	%rax, -232(%rbp)
	.loc	22 79 13 is_stmt 0
	leaq	-832(%rbp), %rdi
	leaq	-240(%rbp), %rsi
	callq	__ZN66_$LT$adler..algo..U32X4$u20$as$u20$core..ops..arith..AddAssign$GT$10add_assign17h731ec9647a21d9a3E
	.loc	22 80 22 is_stmt 1
	movq	-832(%rbp), %rax
	movq	%rax, -224(%rbp)
	movq	-824(%rbp), %rax
	movq	%rax, -216(%rbp)
	.loc	22 80 13 is_stmt 0
	leaq	-800(%rbp), %rdi
	leaq	-224(%rbp), %rsi
	callq	__ZN66_$LT$adler..algo..U32X4$u20$as$u20$core..ops..arith..AddAssign$GT$10add_assign17h731ec9647a21d9a3E
	jmp	LBB44_13
Ltmp363:
LBB44_16:
	.loc	22 0 13
	movl	-916(%rbp), %eax
	.loc	22 82 9 is_stmt 1
	addl	-836(%rbp), %eax
	movl	%eax, -920(%rbp)
	setb	%al
	testb	$1, %al
	jne	LBB44_19
	jmp	LBB44_18
LBB44_17:
	.loc	22 82 14 is_stmt 0
	leaq	_str.3(%rip), %rdi
	leaq	l___unnamed_19(%rip), %rdx
	movl	$33, %esi
	callq	__ZN4core9panicking5panic17hc1bc45270cf64b03E
LBB44_18:
	.loc	22 0 14
	movl	-920(%rbp), %eax
	.loc	22 82 9
	movl	%eax, -836(%rbp)
	.loc	22 83 9 is_stmt 1
	leaq	-832(%rbp), %rdi
	movl	$65521, %esi
	callq	__ZN77_$LT$adler..algo..U32X4$u20$as$u20$core..ops..arith..RemAssign$LT$u32$GT$$GT$10rem_assign17h603836f059cf9b65E
	.loc	22 84 9
	leaq	-800(%rbp), %rdi
	movl	$65521, %esi
	callq	__ZN77_$LT$adler..algo..U32X4$u20$as$u20$core..ops..arith..RemAssign$LT$u32$GT$$GT$10rem_assign17h603836f059cf9b65E
	.loc	22 85 9
	movl	-836(%rbp), %eax
	movl	$65521, %ecx
	xorl	%edx, %edx
	divl	%ecx
	movl	%edx, -836(%rbp)
	.loc	22 88 9
	leaq	-800(%rbp), %rdi
	movl	$4, %esi
	callq	__ZN77_$LT$adler..algo..U32X4$u20$as$u20$core..ops..arith..MulAssign$LT$u32$GT$$GT$10mul_assign17hf78805d5c52b0bf0E
	.loc	22 89 29
	movl	-828(%rbp), %ecx
	.loc	22 89 23 is_stmt 0
	movl	$65521, %eax
	subl	%ecx, %eax
	movl	%eax, -924(%rbp)
	movl	$65521, %eax
	cmpl	%ecx, %eax
	setb	%al
	testb	$1, %al
	jne	LBB44_21
	jmp	LBB44_20
LBB44_19:
	.loc	22 82 9 is_stmt 1
	leaq	_str.1(%rip), %rdi
	leaq	l___unnamed_20(%rip), %rdx
	movl	$28, %esi
	callq	__ZN4core9panicking5panic17hc1bc45270cf64b03E
LBB44_20:
	.loc	22 0 9 is_stmt 0
	movl	-924(%rbp), %eax
	.loc	22 89 9 is_stmt 1
	addl	-796(%rbp), %eax
	movl	%eax, -928(%rbp)
	setb	%al
	testb	$1, %al
	jne	LBB44_23
	jmp	LBB44_22
LBB44_21:
	.loc	22 89 23 is_stmt 0
	leaq	_str.2(%rip), %rdi
	leaq	l___unnamed_21(%rip), %rdx
	movl	$33, %esi
	callq	__ZN4core9panicking5panic17hc1bc45270cf64b03E
LBB44_22:
	.loc	22 0 23
	movl	-928(%rbp), %eax
	.loc	22 89 9
	movl	%eax, -796(%rbp)
	.loc	22 90 30 is_stmt 1
	movl	-824(%rbp), %ecx
	.loc	22 90 23 is_stmt 0
	movl	$65521, %eax
	subl	%ecx, %eax
	movl	%eax, -932(%rbp)
	movl	$65521, %eax
	cmpl	%ecx, %eax
	setb	%al
	testb	$1, %al
	jne	LBB44_25
	jmp	LBB44_24
LBB44_23:
	.loc	22 89 9 is_stmt 1
	leaq	_str.1(%rip), %rdi
	leaq	l___unnamed_22(%rip), %rdx
	movl	$28, %esi
	callq	__ZN4core9panicking5panic17hc1bc45270cf64b03E
LBB44_24:
	.loc	22 0 9 is_stmt 0
	movl	-932(%rbp), %eax
	.loc	22 90 23 is_stmt 1
	movl	$2, %ecx
	mull	%ecx
	movl	%eax, -936(%rbp)
	seto	%al
	testb	$1, %al
	jne	LBB44_27
	jmp	LBB44_26
LBB44_25:
	leaq	_str.2(%rip), %rdi
	leaq	l___unnamed_23(%rip), %rdx
	movl	$33, %esi
	callq	__ZN4core9panicking5panic17hc1bc45270cf64b03E
LBB44_26:
	.loc	22 0 23 is_stmt 0
	movl	-936(%rbp), %eax
	.loc	22 90 9
	addl	-792(%rbp), %eax
	movl	%eax, -940(%rbp)
	setb	%al
	testb	$1, %al
	jne	LBB44_29
	jmp	LBB44_28
LBB44_27:
	.loc	22 90 23
	leaq	_str.3(%rip), %rdi
	leaq	l___unnamed_23(%rip), %rdx
	movl	$33, %esi
	callq	__ZN4core9panicking5panic17hc1bc45270cf64b03E
LBB44_28:
	.loc	22 0 23
	movl	-940(%rbp), %eax
	.loc	22 90 9
	movl	%eax, -792(%rbp)
	.loc	22 91 30 is_stmt 1
	movl	-820(%rbp), %ecx
	.loc	22 91 23 is_stmt 0
	movl	$65521, %eax
	subl	%ecx, %eax
	movl	%eax, -944(%rbp)
	movl	$65521, %eax
	cmpl	%ecx, %eax
	setb	%al
	testb	$1, %al
	jne	LBB44_31
	jmp	LBB44_30
LBB44_29:
	.loc	22 90 9 is_stmt 1
	leaq	_str.1(%rip), %rdi
	leaq	l___unnamed_24(%rip), %rdx
	movl	$28, %esi
	callq	__ZN4core9panicking5panic17hc1bc45270cf64b03E
LBB44_30:
	.loc	22 0 9 is_stmt 0
	movl	-944(%rbp), %eax
	.loc	22 91 23 is_stmt 1
	movl	$3, %ecx
	mull	%ecx
	movl	%eax, -948(%rbp)
	seto	%al
	testb	$1, %al
	jne	LBB44_33
	jmp	LBB44_32
LBB44_31:
	leaq	_str.2(%rip), %rdi
	leaq	l___unnamed_25(%rip), %rdx
	movl	$33, %esi
	callq	__ZN4core9panicking5panic17hc1bc45270cf64b03E
LBB44_32:
	.loc	22 0 23 is_stmt 0
	movl	-948(%rbp), %eax
	.loc	22 91 9
	addl	-788(%rbp), %eax
	movl	%eax, -952(%rbp)
	setb	%al
	testb	$1, %al
	jne	LBB44_35
	jmp	LBB44_34
LBB44_33:
	.loc	22 91 23
	leaq	_str.3(%rip), %rdi
	leaq	l___unnamed_25(%rip), %rdx
	movl	$33, %esi
	callq	__ZN4core9panicking5panic17hc1bc45270cf64b03E
LBB44_34:
	.loc	22 0 23
	movl	-952(%rbp), %eax
	.loc	22 91 9
	movl	%eax, -788(%rbp)
	.loc	22 92 20 is_stmt 1
	leaq	-832(%rbp), %rdi
	movl	$4, %esi
	callq	__ZN4core5slice29_$LT$impl$u20$$u5b$T$u5d$$GT$4iter17hc5c6b9413a4c7ba5E
	movq	%rax, %rdi
	movq	%rdx, %rsi
	callq	__ZN63_$LT$I$u20$as$u20$core..iter..traits..collect..IntoIterator$GT$9into_iter17h051a63c3cf11a215E
	movq	%rax, -208(%rbp)
	movq	%rdx, -200(%rbp)
Ltmp364:
	.loc	22 92 9 is_stmt 0
	jmp	LBB44_36
Ltmp365:
LBB44_35:
	.loc	22 91 9 is_stmt 1
	leaq	_str.1(%rip), %rdi
	leaq	l___unnamed_26(%rip), %rdx
	movl	$28, %esi
	callq	__ZN4core9panicking5panic17hc1bc45270cf64b03E
LBB44_36:
Ltmp366:
	.loc	22 92 20
	leaq	-208(%rbp), %rdi
	callq	__ZN91_$LT$core..slice..iter..Iter$LT$T$GT$$u20$as$u20$core..iter..traits..iterator..Iterator$GT$4next17hfd24a3e077af3f26E
	movq	%rax, -192(%rbp)
	movq	-192(%rbp), %rdx
	movl	$1, %eax
	xorl	%ecx, %ecx
	cmpq	$0, %rdx
	cmoveq	%rcx, %rax
	cmpq	$0, %rax
	jne	LBB44_38
Ltmp367:
	.loc	22 95 20
	leaq	-800(%rbp), %rdi
	movl	$4, %esi
	callq	__ZN4core5slice29_$LT$impl$u20$$u5b$T$u5d$$GT$4iter17hc5c6b9413a4c7ba5E
	movq	%rax, %rdi
	movq	%rdx, %rsi
	callq	__ZN63_$LT$I$u20$as$u20$core..iter..traits..collect..IntoIterator$GT$9into_iter17h051a63c3cf11a215E
	movq	%rax, -184(%rbp)
	movq	%rdx, -176(%rbp)
Ltmp368:
	.loc	22 95 9 is_stmt 0
	jmp	LBB44_41
Ltmp369:
LBB44_38:
	.loc	22 92 14 is_stmt 1
	movq	-192(%rbp), %rax
	movl	(%rax), %eax
	movl	%eax, -16(%rbp)
Ltmp370:
	.loc	22 93 13
	addl	-840(%rbp), %eax
	movl	%eax, -956(%rbp)
	setb	%al
	testb	$1, %al
	jne	LBB44_40
	.loc	22 0 13 is_stmt 0
	movl	-956(%rbp), %eax
	.loc	22 93 13
	movl	%eax, -840(%rbp)
Ltmp371:
	.loc	22 92 9 is_stmt 1
	jmp	LBB44_36
LBB44_40:
Ltmp372:
	.loc	22 93 13
	leaq	_str.1(%rip), %rdi
	leaq	l___unnamed_27(%rip), %rdx
	movl	$28, %esi
	callq	__ZN4core9panicking5panic17hc1bc45270cf64b03E
Ltmp373:
LBB44_41:
	.loc	22 95 20
	leaq	-184(%rbp), %rdi
	callq	__ZN91_$LT$core..slice..iter..Iter$LT$T$GT$$u20$as$u20$core..iter..traits..iterator..Iterator$GT$4next17hfd24a3e077af3f26E
	movq	%rax, -168(%rbp)
	movq	-168(%rbp), %rdx
	movl	$1, %eax
	xorl	%ecx, %ecx
	cmpq	$0, %rdx
	cmoveq	%rcx, %rax
	cmpq	$0, %rax
	jne	LBB44_43
Ltmp374:
	.loc	22 0 20 is_stmt 0
	movq	-896(%rbp), %rsi
	movq	-904(%rbp), %rdi
	.loc	22 100 22 is_stmt 1
	callq	__ZN4core5slice29_$LT$impl$u20$$u5b$T$u5d$$GT$4iter17h69f6b8f578b5b530E
	movq	%rax, %rdi
	movq	%rdx, %rsi
	callq	__ZN63_$LT$I$u20$as$u20$core..iter..traits..collect..IntoIterator$GT$9into_iter17h2268046556220883E
	movq	%rax, -160(%rbp)
	movq	%rdx, -152(%rbp)
Ltmp375:
	.loc	22 100 9 is_stmt 0
	jmp	LBB44_46
Ltmp376:
LBB44_43:
	.loc	22 95 14 is_stmt 1
	movq	-168(%rbp), %rax
	movl	(%rax), %eax
	movl	%eax, -12(%rbp)
Ltmp377:
	.loc	22 96 13
	addl	-836(%rbp), %eax
	movl	%eax, -960(%rbp)
	setb	%al
	testb	$1, %al
	jne	LBB44_45
	.loc	22 0 13 is_stmt 0
	movl	-960(%rbp), %eax
	.loc	22 96 13
	movl	%eax, -836(%rbp)
Ltmp378:
	.loc	22 95 9 is_stmt 1
	jmp	LBB44_41
LBB44_45:
Ltmp379:
	.loc	22 96 13
	leaq	_str.1(%rip), %rdi
	leaq	l___unnamed_28(%rip), %rdx
	movl	$28, %esi
	callq	__ZN4core9panicking5panic17hc1bc45270cf64b03E
Ltmp380:
LBB44_46:
	.loc	22 100 22
	leaq	-160(%rbp), %rdi
	callq	__ZN91_$LT$core..slice..iter..Iter$LT$T$GT$$u20$as$u20$core..iter..traits..iterator..Iterator$GT$4next17h63cfc4ed932084d7E
	movq	%rax, -144(%rbp)
	movq	-144(%rbp), %rdx
	movl	$1, %eax
	xorl	%ecx, %ecx
	cmpq	$0, %rdx
	cmoveq	%rcx, %rax
	cmpq	$0, %rax
	jne	LBB44_48
Ltmp381:
	.loc	22 105 19
	movl	-840(%rbp), %eax
	.loc	22 105 18 is_stmt 0
	movl	$65521, %ecx
	xorl	%edx, %edx
	divl	%ecx
	movq	-872(%rbp), %rax
	.loc	22 105 9
	movw	%dx, %cx
	movw	%cx, (%rax)
	.loc	22 106 19 is_stmt 1
	movl	-836(%rbp), %eax
	.loc	22 106 18 is_stmt 0
	movl	$65521, %ecx
	xorl	%edx, %edx
	divl	%ecx
	movq	-872(%rbp), %rax
	.loc	22 106 9
	movw	%dx, %cx
	movw	%cx, 2(%rax)
Ltmp382:
	.loc	22 107 6 is_stmt 1
	addq	$976, %rsp
	popq	%rbp
	retq
LBB44_48:
Ltmp383:
	.loc	22 100 14
	movq	-144(%rbp), %rax
	movb	(%rax), %al
	movb	%al, -6(%rbp)
	movb	%al, -5(%rbp)
Ltmp384:
	.loc	23 54 17
	movzbl	%al, %eax
Ltmp385:
	.loc	22 101 13
	addl	-840(%rbp), %eax
	movl	%eax, -964(%rbp)
	setb	%al
	testb	$1, %al
	jne	LBB44_50
	.loc	22 0 13 is_stmt 0
	movl	-964(%rbp), %eax
	.loc	22 101 13
	movl	%eax, -840(%rbp)
	.loc	22 102 18 is_stmt 1
	movl	-840(%rbp), %eax
	.loc	22 102 13 is_stmt 0
	addl	-836(%rbp), %eax
	movl	%eax, -968(%rbp)
	setb	%al
	testb	$1, %al
	jne	LBB44_52
	jmp	LBB44_51
LBB44_50:
	.loc	22 101 13 is_stmt 1
	leaq	_str.1(%rip), %rdi
	leaq	l___unnamed_29(%rip), %rdx
	movl	$28, %esi
	callq	__ZN4core9panicking5panic17hc1bc45270cf64b03E
LBB44_51:
	.loc	22 0 13 is_stmt 0
	movl	-968(%rbp), %eax
	.loc	22 102 13 is_stmt 1
	movl	%eax, -836(%rbp)
Ltmp386:
	.loc	22 100 9
	jmp	LBB44_46
LBB44_52:
Ltmp387:
	.loc	22 102 13
	leaq	_str.1(%rip), %rdi
	leaq	l___unnamed_30(%rip), %rdx
	movl	$28, %esi
	callq	__ZN4core9panicking5panic17hc1bc45270cf64b03E
Ltmp388:
Lfunc_end44:
	.cfi_endproc

	.p2align	4, 0x90
__ZN5adler4algo5U32X44from17h11b8350856bd83eaE:
Lfunc_begin45:
	.loc	22 114 0
	.cfi_startproc
	pushq	%rbp
	.cfi_def_cfa_offset 16
	.cfi_offset %rbp, -16
	movq	%rsp, %rbp
	.cfi_def_cfa_register %rbp
	subq	$96, %rsp
	movq	%rdx, -72(%rbp)
	movq	%rsi, -64(%rbp)
	movq	%rdi, -56(%rbp)
	movq	%rdi, -48(%rbp)
	movq	%rsi, -24(%rbp)
	movq	%rdx, -16(%rbp)
Ltmp389:
	.loc	22 116 23 prologue_end
	xorl	%eax, %eax
	cmpq	%rdx, %rax
	setb	%al
	testb	$1, %al
	jne	LBB45_1
	jmp	LBB45_2
LBB45_1:
	.loc	22 0 23 is_stmt 0
	movq	-72(%rbp), %rcx
	movq	-64(%rbp), %rax
	.loc	22 116 23
	movb	(%rax), %al
	movb	%al, -1(%rbp)
Ltmp390:
	.loc	23 54 17 is_stmt 1
	movzbl	%al, %eax
	movl	%eax, -76(%rbp)
Ltmp391:
	.loc	22 117 23
	movl	$1, %eax
	cmpq	%rcx, %rax
	setb	%al
	testb	$1, %al
	jne	LBB45_3
	jmp	LBB45_4
LBB45_2:
	.loc	22 0 23 is_stmt 0
	movq	-72(%rbp), %rsi
	.loc	22 116 23 is_stmt 1
	leaq	l___unnamed_31(%rip), %rdx
	xorl	%eax, %eax
	movl	%eax, %edi
	callq	__ZN4core9panicking18panic_bounds_check17hacb8a94866cda541E
LBB45_3:
	.loc	22 0 23 is_stmt 0
	movq	-72(%rbp), %rcx
	movq	-64(%rbp), %rax
	.loc	22 117 23 is_stmt 1
	movb	1(%rax), %al
	movb	%al, -2(%rbp)
Ltmp392:
	.loc	23 54 17
	movzbl	%al, %eax
	movl	%eax, -80(%rbp)
Ltmp393:
	.loc	22 118 23
	movl	$2, %eax
	cmpq	%rcx, %rax
	setb	%al
	testb	$1, %al
	jne	LBB45_5
	jmp	LBB45_6
LBB45_4:
	.loc	22 0 23 is_stmt 0
	movq	-72(%rbp), %rsi
	.loc	22 117 23 is_stmt 1
	leaq	l___unnamed_32(%rip), %rdx
	movl	$1, %edi
	callq	__ZN4core9panicking18panic_bounds_check17hacb8a94866cda541E
LBB45_5:
	.loc	22 0 23 is_stmt 0
	movq	-72(%rbp), %rcx
	movq	-64(%rbp), %rax
	.loc	22 118 23 is_stmt 1
	movb	2(%rax), %al
	movb	%al, -3(%rbp)
Ltmp394:
	.loc	23 54 17
	movzbl	%al, %eax
	movl	%eax, -84(%rbp)
Ltmp395:
	.loc	22 119 23
	movl	$3, %eax
	cmpq	%rcx, %rax
	setb	%al
	testb	$1, %al
	jne	LBB45_7
	jmp	LBB45_8
LBB45_6:
	.loc	22 0 23 is_stmt 0
	movq	-72(%rbp), %rsi
	.loc	22 118 23 is_stmt 1
	leaq	l___unnamed_33(%rip), %rdx
	movl	$2, %edi
	callq	__ZN4core9panicking18panic_bounds_check17hacb8a94866cda541E
LBB45_7:
	.loc	22 0 23 is_stmt 0
	movq	-48(%rbp), %rax
	movq	-56(%rbp), %rcx
	movl	-84(%rbp), %esi
	movl	-80(%rbp), %edi
	movl	-76(%rbp), %r8d
	movq	-64(%rbp), %rdx
	.loc	22 119 23 is_stmt 1
	movb	3(%rdx), %dl
	movb	%dl, -4(%rbp)
Ltmp396:
	.loc	23 54 17
	movzbl	%dl, %edx
Ltmp397:
	.loc	22 115 15
	movl	%r8d, -40(%rbp)
	movl	%edi, -36(%rbp)
	movl	%esi, -32(%rbp)
	movl	%edx, -28(%rbp)
	.loc	22 115 9 is_stmt 0
	movq	-40(%rbp), %rdx
	movq	%rdx, (%rcx)
	movq	-32(%rbp), %rdx
	movq	%rdx, 8(%rcx)
	.loc	22 121 6 is_stmt 1
	addq	$96, %rsp
	popq	%rbp
	retq
LBB45_8:
	.loc	22 0 6 is_stmt 0
	movq	-72(%rbp), %rsi
	.loc	22 119 23 is_stmt 1
	leaq	l___unnamed_34(%rip), %rdx
	movl	$3, %edi
	callq	__ZN4core9panicking18panic_bounds_check17hacb8a94866cda541E
Ltmp398:
Lfunc_end45:
	.cfi_endproc

	.globl	__ZN66_$LT$adler..algo..U32X4$u20$as$u20$core..ops..arith..AddAssign$GT$10add_assign17h731ec9647a21d9a3E
	.p2align	4, 0x90
__ZN66_$LT$adler..algo..U32X4$u20$as$u20$core..ops..arith..AddAssign$GT$10add_assign17h731ec9647a21d9a3E:
Lfunc_begin46:
	.loc	22 125 0
	.cfi_startproc
	pushq	%rbp
	.cfi_def_cfa_offset 16
	.cfi_offset %rbp, -16
	movq	%rsp, %rbp
	.cfi_def_cfa_register %rbp
	subq	$240, %rsp
	movq	%rsi, -232(%rbp)
	movq	%rdi, -24(%rbp)
Ltmp399:
	.loc	22 126 23 prologue_end
	movl	$4, %esi
	callq	__ZN4core5slice29_$LT$impl$u20$$u5b$T$u5d$$GT$8iter_mut17hfa4170aba731251aE
	movq	-232(%rbp), %rdi
	movq	%rax, -224(%rbp)
	movq	%rdx, -216(%rbp)
	.loc	22 126 45 is_stmt 0
	movl	$4, %esi
	callq	__ZN4core5slice29_$LT$impl$u20$$u5b$T$u5d$$GT$4iter17hc5c6b9413a4c7ba5E
	movq	-224(%rbp), %rsi
	movq	%rax, %rcx
	movq	%rdx, %r8
	movq	-216(%rbp), %rdx
	.loc	22 126 23
	leaq	-152(%rbp), %rdi
	callq	__ZN4core4iter6traits8iterator8Iterator3zip17h15fba7495c9c977cE
	leaq	-208(%rbp), %rdi
	leaq	-152(%rbp), %rsi
	callq	__ZN63_$LT$I$u20$as$u20$core..iter..traits..collect..IntoIterator$GT$9into_iter17ha2c92608c70a4322E
	leaq	-96(%rbp), %rdi
	leaq	-208(%rbp), %rsi
	movl	$56, %edx
	callq	_memcpy
Ltmp400:
LBB46_1:
	.loc	22 0 23
	leaq	-96(%rbp), %rdi
Ltmp401:
	.loc	22 126 23
	callq	__ZN102_$LT$core..iter..adapters..zip..Zip$LT$A$C$B$GT$$u20$as$u20$core..iter..traits..iterator..Iterator$GT$4next17h0778e249a86db6c2E
	movq	%rdx, -32(%rbp)
	movq	%rax, -40(%rbp)
	movq	-40(%rbp), %rdx
	movl	$1, %eax
	xorl	%ecx, %ecx
	cmpq	$0, %rdx
	cmoveq	%rcx, %rax
	cmpq	$0, %rax
	jne	LBB46_3
Ltmp402:
	.loc	22 129 6 is_stmt 1
	addq	$240, %rsp
	popq	%rbp
	retq
Ltmp403:
LBB46_3:
	.loc	22 126 14
	movq	-40(%rbp), %rdi
	movq	%rdi, -16(%rbp)
	.loc	22 126 17 is_stmt 0
	movq	-32(%rbp), %rsi
	movq	%rsi, -8(%rbp)
Ltmp404:
	.loc	22 127 13 is_stmt 1
	callq	__ZN66_$LT$u32$u20$as$u20$core..ops..arith..AddAssign$LT$$RF$u32$GT$$GT$10add_assign17h9fe1a3d0f6c9044aE
	jmp	LBB46_1
Ltmp405:
Lfunc_end46:
	.cfi_endproc

	.globl	__ZN77_$LT$adler..algo..U32X4$u20$as$u20$core..ops..arith..RemAssign$LT$u32$GT$$GT$10rem_assign17h603836f059cf9b65E
	.p2align	4, 0x90
__ZN77_$LT$adler..algo..U32X4$u20$as$u20$core..ops..arith..RemAssign$LT$u32$GT$$GT$10rem_assign17h603836f059cf9b65E:
Lfunc_begin47:
	.loc	22 133 0
	.cfi_startproc
	pushq	%rbp
	.cfi_def_cfa_offset 16
	.cfi_offset %rbp, -16
	movq	%rsp, %rbp
	.cfi_def_cfa_register %rbp
	subq	$64, %rsp
	movl	%esi, -52(%rbp)
	movq	%rdi, -24(%rbp)
	movl	%esi, -12(%rbp)
Ltmp406:
	.loc	22 134 18 prologue_end
	movl	$4, %esi
	callq	__ZN4core5slice29_$LT$impl$u20$$u5b$T$u5d$$GT$8iter_mut17hfa4170aba731251aE
	movq	%rax, %rdi
	movq	%rdx, %rsi
	callq	__ZN63_$LT$I$u20$as$u20$core..iter..traits..collect..IntoIterator$GT$9into_iter17h47b13f8c31f6e8fbE
	movq	%rax, -48(%rbp)
	movq	%rdx, -40(%rbp)
LBB47_1:
Ltmp407:
	.loc	22 134 18 is_stmt 0
	leaq	-48(%rbp), %rdi
	callq	__ZN94_$LT$core..slice..iter..IterMut$LT$T$GT$$u20$as$u20$core..iter..traits..iterator..Iterator$GT$4next17hbcf32b0232821f8bE
	movq	%rax, -32(%rbp)
	movq	-32(%rbp), %rdx
	movl	$1, %eax
	xorl	%ecx, %ecx
	cmpq	$0, %rdx
	cmoveq	%rcx, %rax
	cmpq	$0, %rax
	jne	LBB47_3
Ltmp408:
	.loc	22 137 6 is_stmt 1
	addq	$64, %rsp
	popq	%rbp
	retq
LBB47_3:
	.loc	22 0 6 is_stmt 0
	movl	-52(%rbp), %eax
Ltmp409:
	.loc	22 134 13 is_stmt 1
	movq	-32(%rbp), %rcx
	movq	%rcx, -64(%rbp)
	movq	%rcx, -8(%rbp)
Ltmp410:
	.loc	22 135 13
	cmpl	$0, %eax
	sete	%al
	testb	$1, %al
	jne	LBB47_5
	.loc	22 0 13 is_stmt 0
	movq	-64(%rbp), %rax
	movl	-52(%rbp), %ecx
	.loc	22 135 13
	movl	(%rax), %eax
	xorl	%edx, %edx
	divl	%ecx
	movq	-64(%rbp), %rax
	movl	%edx, (%rax)
Ltmp411:
	.loc	22 134 9 is_stmt 1
	jmp	LBB47_1
LBB47_5:
Ltmp412:
	.loc	22 135 13
	leaq	_str.0(%rip), %rdi
	leaq	l___unnamed_35(%rip), %rdx
	movl	$57, %esi
	callq	__ZN4core9panicking5panic17hc1bc45270cf64b03E
Ltmp413:
Lfunc_end47:
	.cfi_endproc

	.globl	__ZN77_$LT$adler..algo..U32X4$u20$as$u20$core..ops..arith..MulAssign$LT$u32$GT$$GT$10mul_assign17hf78805d5c52b0bf0E
	.p2align	4, 0x90
__ZN77_$LT$adler..algo..U32X4$u20$as$u20$core..ops..arith..MulAssign$LT$u32$GT$$GT$10mul_assign17hf78805d5c52b0bf0E:
Lfunc_begin48:
	.loc	22 141 0
	.cfi_startproc
	pushq	%rbp
	.cfi_def_cfa_offset 16
	.cfi_offset %rbp, -16
	movq	%rsp, %rbp
	.cfi_def_cfa_register %rbp
	subq	$64, %rsp
	movl	%esi, -52(%rbp)
	movq	%rdi, -24(%rbp)
	movl	%esi, -12(%rbp)
Ltmp414:
	.loc	22 142 18 prologue_end
	movl	$4, %esi
	callq	__ZN4core5slice29_$LT$impl$u20$$u5b$T$u5d$$GT$8iter_mut17hfa4170aba731251aE
	movq	%rax, %rdi
	movq	%rdx, %rsi
	callq	__ZN63_$LT$I$u20$as$u20$core..iter..traits..collect..IntoIterator$GT$9into_iter17h47b13f8c31f6e8fbE
	movq	%rax, -48(%rbp)
	movq	%rdx, -40(%rbp)
LBB48_1:
Ltmp415:
	.loc	22 142 18 is_stmt 0
	leaq	-48(%rbp), %rdi
	callq	__ZN94_$LT$core..slice..iter..IterMut$LT$T$GT$$u20$as$u20$core..iter..traits..iterator..Iterator$GT$4next17hbcf32b0232821f8bE
	movq	%rax, -32(%rbp)
	movq	-32(%rbp), %rdx
	movl	$1, %eax
	xorl	%ecx, %ecx
	cmpq	$0, %rdx
	cmoveq	%rcx, %rax
	cmpq	$0, %rax
	jne	LBB48_3
Ltmp416:
	.loc	22 145 6 is_stmt 1
	addq	$64, %rsp
	popq	%rbp
	retq
LBB48_3:
	.loc	22 0 6 is_stmt 0
	movl	-52(%rbp), %ecx
Ltmp417:
	.loc	22 142 13 is_stmt 1
	movq	-32(%rbp), %rax
	movq	%rax, -64(%rbp)
	movq	%rax, -8(%rbp)
Ltmp418:
	.loc	22 143 13
	movl	(%rax), %eax
	mull	%ecx
	movl	%eax, -56(%rbp)
	seto	%al
	testb	$1, %al
	jne	LBB48_5
	.loc	22 0 13 is_stmt 0
	movq	-64(%rbp), %rax
	movl	-56(%rbp), %ecx
	.loc	22 143 13
	movl	%ecx, (%rax)
Ltmp419:
	.loc	22 142 9 is_stmt 1
	jmp	LBB48_1
LBB48_5:
Ltmp420:
	.loc	22 143 13
	leaq	_str.3(%rip), %rdi
	leaq	l___unnamed_36(%rip), %rdx
	movl	$33, %esi
	callq	__ZN4core9panicking5panic17hc1bc45270cf64b03E
Ltmp421:
Lfunc_end48:
	.cfi_endproc

	.p2align	4, 0x90
__ZN5adler7Adler323new17h9b2c36f380878627E:
Lfunc_begin49:
	.file	24 "/Users/natalie/.cargo/registry/src/github.com-1ecc6299db9ec823/adler-1.0.2" "src/lib.rs"
	.loc	24 95 0
	.cfi_startproc
	pushq	%rbp
	.cfi_def_cfa_offset 16
	.cfi_offset %rbp, -16
	movq	%rsp, %rbp
	.cfi_def_cfa_register %rbp
Ltmp422:
	.loc	24 96 9 prologue_end
	callq	__ZN57_$LT$adler..Adler32$u20$as$u20$core..default..Default$GT$7default17hfe5f037dc0777c5dE
	.loc	24 97 6
	popq	%rbp
	retq
Ltmp423:
Lfunc_end49:
	.cfi_endproc

	.p2align	4, 0x90
__ZN5adler7Adler328checksum17h8228d098475e5b66E:
Lfunc_begin50:
	.loc	24 134 0
	.cfi_startproc
	pushq	%rbp
	.cfi_def_cfa_offset 16
	.cfi_offset %rbp, -16
	movq	%rsp, %rbp
	.cfi_def_cfa_register %rbp
	subq	$16, %rsp
	movq	%rdi, -16(%rbp)
Ltmp424:
	.loc	24 135 20 prologue_end
	movw	2(%rdi), %ax
	movw	%ax, -2(%rbp)
Ltmp425:
	.loc	23 54 17
	movzwl	%ax, %eax
Ltmp426:
	.loc	24 135 9
	shll	$16, %eax
	.loc	24 135 47 is_stmt 0
	movw	(%rdi), %cx
	movw	%cx, -4(%rbp)
Ltmp427:
	.loc	23 54 17 is_stmt 1
	movzwl	%cx, %ecx
Ltmp428:
	.loc	24 135 9
	orl	%ecx, %eax
	.loc	24 136 6
	addq	$16, %rsp
	popq	%rbp
	retq
Ltmp429:
Lfunc_end50:
	.cfi_endproc

	.globl	__ZN5adler7Adler3211write_slice17he23702340c632725E
	.p2align	4, 0x90
__ZN5adler7Adler3211write_slice17he23702340c632725E:
Lfunc_begin51:
	.loc	24 142 0
	.cfi_startproc
	pushq	%rbp
	.cfi_def_cfa_offset 16
	.cfi_offset %rbp, -16
	movq	%rsp, %rbp
	.cfi_def_cfa_register %rbp
	subq	$32, %rsp
	movq	%rdi, -24(%rbp)
	movq	%rsi, -16(%rbp)
	movq	%rdx, -8(%rbp)
Ltmp430:
	.loc	24 143 9 prologue_end
	callq	__ZN5adler4algo32_$LT$impl$u20$adler..Adler32$GT$7compute17h6166efa97864548aE
	.loc	24 144 6
	addq	$32, %rsp
	popq	%rbp
	retq
Ltmp431:
Lfunc_end51:
	.cfi_endproc

	.p2align	4, 0x90
__ZN57_$LT$adler..Adler32$u20$as$u20$core..default..Default$GT$7default17hfe5f037dc0777c5dE:
Lfunc_begin52:
	.loc	24 149 0
	.cfi_startproc
	pushq	%rbp
	.cfi_def_cfa_offset 16
	.cfi_offset %rbp, -16
	movq	%rsp, %rbp
	.cfi_def_cfa_register %rbp
	pushq	%rax
Ltmp432:
	.loc	24 150 9 prologue_end
	movw	$1, -8(%rbp)
	movw	$0, -6(%rbp)
	.loc	24 151 6
	movw	-8(%rbp), %ax
	movw	-6(%rbp), %dx
	addq	$8, %rsp
	popq	%rbp
	retq
Ltmp433:
Lfunc_end52:
	.cfi_endproc

	.globl	__ZN53_$LT$adler..Adler32$u20$as$u20$core..hash..Hasher$GT$5write17h59cb5a6276291913E
	.p2align	4, 0x90
__ZN53_$LT$adler..Adler32$u20$as$u20$core..hash..Hasher$GT$5write17h59cb5a6276291913E:
Lfunc_begin53:
	.loc	24 160 0
	.cfi_startproc
	pushq	%rbp
	.cfi_def_cfa_offset 16
	.cfi_offset %rbp, -16
	movq	%rsp, %rbp
	.cfi_def_cfa_register %rbp
	subq	$32, %rsp
	movq	%rdi, -24(%rbp)
	movq	%rsi, -16(%rbp)
	movq	%rdx, -8(%rbp)
Ltmp434:
	.loc	24 161 9 prologue_end
	callq	__ZN5adler7Adler3211write_slice17he23702340c632725E
	.loc	24 162 6
	addq	$32, %rsp
	popq	%rbp
	retq
Ltmp435:
Lfunc_end53:
	.cfi_endproc

	.globl	__ZN5adler13adler32_slice17ha6df64295f06b088E
	.p2align	4, 0x90
__ZN5adler13adler32_slice17ha6df64295f06b088E:
Lfunc_begin54:
	.loc	24 170 0
	.cfi_startproc
	pushq	%rbp
	.cfi_def_cfa_offset 16
	.cfi_offset %rbp, -16
	movq	%rsp, %rbp
	.cfi_def_cfa_register %rbp
	subq	$48, %rsp
	movq	%rdi, -40(%rbp)
	movq	%rsi, -32(%rbp)
	movq	%rdi, -16(%rbp)
	movq	%rsi, -8(%rbp)
Ltmp436:
	.loc	24 171 17 prologue_end
	callq	__ZN5adler7Adler323new17h9b2c36f380878627E
	movq	-40(%rbp), %rsi
	movw	%dx, %cx
	movq	-32(%rbp), %rdx
	movw	%cx, -22(%rbp)
	movw	%ax, -24(%rbp)
Ltmp437:
	.loc	24 172 5
	leaq	-24(%rbp), %rdi
	callq	__ZN5adler7Adler3211write_slice17he23702340c632725E
	.loc	24 173 5
	leaq	-24(%rbp), %rdi
	callq	__ZN5adler7Adler328checksum17h8228d098475e5b66E
Ltmp438:
	.loc	24 174 2
	addq	$48, %rsp
	popq	%rbp
	retq
Ltmp439:
Lfunc_end54:
	.cfi_endproc

	.globl	__ZN51_$LT$adler..Adler32$u20$as$u20$core..fmt..Debug$GT$3fmt17h75037ff44e59740eE
	.p2align	4, 0x90
__ZN51_$LT$adler..Adler32$u20$as$u20$core..fmt..Debug$GT$3fmt17h75037ff44e59740eE:
Lfunc_begin55:
	.loc	24 86 0
	.cfi_startproc
	pushq	%rbp
	.cfi_def_cfa_offset 16
	.cfi_offset %rbp, -16
	movq	%rsp, %rbp
	.cfi_def_cfa_register %rbp
	subq	$80, %rsp
	movq	%rsi, -40(%rbp)
	movq	%rdi, %rax
	movq	-40(%rbp), %rdi
	movq	%rax, -16(%rbp)
	movq	%rdi, -8(%rbp)
Ltmp440:
	.loc	24 88 5 prologue_end
	movq	%rax, -32(%rbp)
	.loc	24 89 5
	addq	$2, %rax
	movq	%rax, -24(%rbp)
	.loc	24 86 10
	leaq	l___unnamed_37(%rip), %rsi
	movl	$7, %edx
	leaq	l___unnamed_38(%rip), %rcx
	movl	$1, %r8d
	leaq	-32(%rbp), %r9
	leaq	l___unnamed_2(%rip), %rax
	leaq	l___unnamed_39(%rip), %r11
	leaq	-24(%rbp), %r10
	movq	%rax, (%rsp)
	movq	%r11, 8(%rsp)
	movq	$1, 16(%rsp)
	movq	%r10, 24(%rsp)
	movq	%rax, 32(%rsp)
	callq	__ZN4core3fmt9Formatter26debug_struct_field2_finish17h6d8f05a66ed84642E
	.loc	24 86 15 is_stmt 0
	andb	$1, %al
	movzbl	%al, %eax
	addq	$80, %rsp
	popq	%rbp
	retq
Ltmp441:
Lfunc_end55:
	.cfi_endproc

	.section	__TEXT,__const
l___unnamed_40:
	.ascii	"invalid args"

	.section	__DATA,__const
	.p2align	3
l___unnamed_3:
	.quad	l___unnamed_40
	.asciz	"\f\000\000\000\000\000\000"

	.section	__TEXT,__const
	.p2align	3
l___unnamed_4:
	.byte	0

l___unnamed_41:
	.ascii	"/rustc/2c8cc343237b8f7d5a3c3703e3a87f2eb2c54a74/library/core/src/fmt/mod.rs"

	.section	__DATA,__const
	.p2align	3
l___unnamed_5:
	.quad	l___unnamed_41
	.asciz	"K\000\000\000\000\000\000\000\221\001\000\000\r\000\000"

	.section	__TEXT,__const
l___unnamed_6:
	.ascii	"assertion failed: 0 < pointee_size && pointee_size <= isize::MAX as usize"

l___unnamed_42:
	.ascii	"/rustc/2c8cc343237b8f7d5a3c3703e3a87f2eb2c54a74/library/core/src/ptr/const_ptr.rs"

	.section	__DATA,__const
	.p2align	3
l___unnamed_7:
	.quad	l___unnamed_42
	.asciz	"Q\000\000\000\000\000\000\000&\003\000\000\t\000\000"

	.section	__TEXT,__literal8,8byte_literals
	.p2align	3
L___unnamed_8:
	.space	8

	.section	__TEXT,__const
l___unnamed_43:
	.ascii	"chunks cannot have a size of zero"

	.section	__DATA,__const
	.p2align	3
l___unnamed_9:
	.quad	l___unnamed_43
	.asciz	"!\000\000\000\000\000\000"

	.section	__TEXT,__const
l___unnamed_44:
	.ascii	"/rustc/2c8cc343237b8f7d5a3c3703e3a87f2eb2c54a74/library/core/src/slice/mod.rs"

	.section	__DATA,__const
	.p2align	3
l___unnamed_10:
	.quad	l___unnamed_44
	.asciz	"M\000\000\000\000\000\000\000\226\003\000\000\t\000\000"

	.section	__TEXT,__const
l___unnamed_11:
	.ascii	"assertion failed: mid <= self.len()"

l___unnamed_45:
	.ascii	"/rustc/2c8cc343237b8f7d5a3c3703e3a87f2eb2c54a74/library/core/src/slice/iter.rs"

	.section	__DATA,__const
	.p2align	3
l___unnamed_12:
	.quad	l___unnamed_45
	.asciz	"N\000\000\000\000\000\000\000\035\007\000\000\023\000\000"

	.section	__TEXT,__const
	.p2align	4
_str.0:
	.ascii	"attempt to calculate the remainder with a divisor of zero"

	.section	__DATA,__const
	.p2align	3
l___unnamed_1:
	.quad	__ZN4core3ptr30drop_in_place$LT$$RF$usize$GT$17hf64415d105347573E
	.asciz	"\b\000\000\000\000\000\000\000\b\000\000\000\000\000\000"
	.quad	__ZN42_$LT$$RF$T$u20$as$u20$core..fmt..Debug$GT$3fmt17h52110cbb8a59f004E

	.section	__TEXT,__const
l___unnamed_46:
	.ascii	"/rustc/2c8cc343237b8f7d5a3c3703e3a87f2eb2c54a74/library/core/src/ops/arith.rs"

	.section	__DATA,__const
	.p2align	3
l___unnamed_13:
	.quad	l___unnamed_46
	.asciz	"M\000\000\000\000\000\000\000\373\002\000\0003\000\000"

	.section	__TEXT,__const
	.p2align	4
_str.1:
	.ascii	"attempt to add with overflow"

	.section	__DATA,__const
	.p2align	3
l___unnamed_14:
	.quad	l___unnamed_45
	.asciz	"N\000\000\000\000\000\000\000M\007\000\000%\000\000"

	.section	__TEXT,__const
l___unnamed_47:
	.ascii	"/Users/natalie/.cargo/registry/src/github.com-1ecc6299db9ec823/adler-1.0.2/src/algo.rs"

	.section	__DATA,__const
	.p2align	3
l___unnamed_16:
	.quad	l___unnamed_47
	.asciz	"V\000\000\000\000\000\000\000<\000\000\0001\000\000"

	.section	__TEXT,__const
	.p2align	4
_str.2:
	.ascii	"attempt to subtract with overflow"

	.section	__DATA,__const
	.p2align	3
l___unnamed_15:
	.quad	l___unnamed_47
	.asciz	"V\000\000\000\000\000\000\000<\000\000\000(\000\000"

	.p2align	3
l___unnamed_17:
	.quad	l___unnamed_47
	.asciz	"V\000\000\000\000\000\000\000G\000\000\000\022\000\000"

	.section	__TEXT,__const
	.p2align	4
_str.3:
	.ascii	"attempt to multiply with overflow"

	.section	__DATA,__const
	.p2align	3
l___unnamed_18:
	.quad	l___unnamed_47
	.asciz	"V\000\000\000\000\000\000\000G\000\000\000\r\000\000"

	.p2align	3
l___unnamed_19:
	.quad	l___unnamed_47
	.asciz	"V\000\000\000\000\000\000\000R\000\000\000\016\000\000"

	.p2align	3
l___unnamed_20:
	.quad	l___unnamed_47
	.asciz	"V\000\000\000\000\000\000\000R\000\000\000\t\000\000"

	.p2align	3
l___unnamed_21:
	.quad	l___unnamed_47
	.asciz	"V\000\000\000\000\000\000\000Y\000\000\000\027\000\000"

	.p2align	3
l___unnamed_22:
	.quad	l___unnamed_47
	.asciz	"V\000\000\000\000\000\000\000Y\000\000\000\t\000\000"

	.p2align	3
l___unnamed_23:
	.quad	l___unnamed_47
	.asciz	"V\000\000\000\000\000\000\000Z\000\000\000\027\000\000"

	.p2align	3
l___unnamed_24:
	.quad	l___unnamed_47
	.asciz	"V\000\000\000\000\000\000\000Z\000\000\000\t\000\000"

	.p2align	3
l___unnamed_25:
	.quad	l___unnamed_47
	.asciz	"V\000\000\000\000\000\000\000[\000\000\000\027\000\000"

	.p2align	3
l___unnamed_26:
	.quad	l___unnamed_47
	.asciz	"V\000\000\000\000\000\000\000[\000\000\000\t\000\000"

	.p2align	3
l___unnamed_27:
	.quad	l___unnamed_47
	.asciz	"V\000\000\000\000\000\000\000]\000\000\000\r\000\000"

	.p2align	3
l___unnamed_28:
	.quad	l___unnamed_47
	.asciz	"V\000\000\000\000\000\000\000`\000\000\000\r\000\000"

	.p2align	3
l___unnamed_29:
	.quad	l___unnamed_47
	.asciz	"V\000\000\000\000\000\000\000e\000\000\000\r\000\000"

	.p2align	3
l___unnamed_30:
	.quad	l___unnamed_47
	.asciz	"V\000\000\000\000\000\000\000f\000\000\000\r\000\000"

	.p2align	3
l___unnamed_31:
	.quad	l___unnamed_47
	.asciz	"V\000\000\000\000\000\000\000t\000\000\000\027\000\000"

	.p2align	3
l___unnamed_32:
	.quad	l___unnamed_47
	.asciz	"V\000\000\000\000\000\000\000u\000\000\000\027\000\000"

	.p2align	3
l___unnamed_33:
	.quad	l___unnamed_47
	.asciz	"V\000\000\000\000\000\000\000v\000\000\000\027\000\000"

	.p2align	3
l___unnamed_34:
	.quad	l___unnamed_47
	.asciz	"V\000\000\000\000\000\000\000w\000\000\000\027\000\000"

	.p2align	3
l___unnamed_35:
	.quad	l___unnamed_47
	.asciz	"V\000\000\000\000\000\000\000\207\000\000\000\r\000\000"

	.p2align	3
l___unnamed_36:
	.quad	l___unnamed_47
	.asciz	"V\000\000\000\000\000\000\000\217\000\000\000\r\000\000"

	.section	__TEXT,__const
l___unnamed_37:
	.ascii	"Adler32"

l___unnamed_38:
	.byte	97

	.section	__DATA,__const
	.p2align	3
l___unnamed_2:
	.quad	__ZN4core3ptr28drop_in_place$LT$$RF$u16$GT$17hf69056337152485cE
	.asciz	"\b\000\000\000\000\000\000\000\b\000\000\000\000\000\000"
	.quad	__ZN42_$LT$$RF$T$u20$as$u20$core..fmt..Debug$GT$3fmt17h16f34d9a092ef96cE

	.section	__TEXT,__const
l___unnamed_39:
	.byte	98

	.section	__DATA,__const
Lsec_end0:
	.section	__TEXT,__text,regular,pure_instructions
Lsec_end1: