	.section	__TEXT,__text,regular,pure_instructions
	.macosx_version_min 10, 7
	.file	1 "/Users/natalie/.cargo/registry/src/github.com-1ecc6299db9ec823/ahash-0.8.0" "src/random_state.rs"
	.globl	__ZN42_$LT$$RF$T$u20$as$u20$core..fmt..Debug$GT$3fmt17h7211f2628619f5afE
	.p2align	4, 0x90
__ZN42_$LT$$RF$T$u20$as$u20$core..fmt..Debug$GT$3fmt17h7211f2628619f5afE:
Lfunc_begin0:
	.file	2 "/rustc/2c8cc343237b8f7d5a3c3703e3a87f2eb2c54a74/library/core/src/fmt" "mod.rs"
	.loc	2 2377 0
	.cfi_startproc
	pushq	%rbp
	.cfi_def_cfa_offset 16
	.cfi_offset %rbp, -16
	movq	%rsp, %rbp
	.cfi_def_cfa_register %rbp
	subq	$16, %rsp
	movq	%rdi, -16(%rbp)
	movq	%rsi, -8(%rbp)
Ltmp0:
	.loc	2 2377 71 prologue_end
	movq	(%rdi), %rdi
	.loc	2 2377 62 is_stmt 0
	callq	__ZN4core5array69_$LT$impl$u20$core..fmt..Debug$u20$for$u20$$u5b$T$u3b$$u20$N$u5d$$GT$3fmt17h8b08f9d659e2f6c6E
	.loc	2 2377 84
	andb	$1, %al
	movzbl	%al, %eax
	addq	$16, %rsp
	popq	%rbp
	retq
Ltmp1:
Lfunc_end0:
	.cfi_endproc

	.globl	__ZN42_$LT$$RF$T$u20$as$u20$core..fmt..Debug$GT$3fmt17h76e451c9dc9ec2b1E
	.p2align	4, 0x90
__ZN42_$LT$$RF$T$u20$as$u20$core..fmt..Debug$GT$3fmt17h76e451c9dc9ec2b1E:
Lfunc_begin1:
	.loc	2 2377 0 is_stmt 1
	.cfi_startproc
	pushq	%rbp
	.cfi_def_cfa_offset 16
	.cfi_offset %rbp, -16
	movq	%rsp, %rbp
	.cfi_def_cfa_register %rbp
	subq	$16, %rsp
	movq	%rsi, %rdx
	movq	%rdi, %rax
	movq	%rax, -16(%rbp)
	movq	%rdx, -8(%rbp)
Ltmp2:
	.loc	2 2377 71 prologue_end
	movq	(%rax), %rdi
	movq	8(%rax), %rsi
	.loc	2 2377 62 is_stmt 0
	callq	__ZN48_$LT$$u5b$T$u5d$$u20$as$u20$core..fmt..Debug$GT$3fmt17h086a066049f622e8E
	.loc	2 2377 84
	andb	$1, %al
	movzbl	%al, %eax
	addq	$16, %rsp
	popq	%rbp
	retq
Ltmp3:
Lfunc_end1:
	.cfi_endproc

	.globl	__ZN42_$LT$$RF$T$u20$as$u20$core..fmt..Debug$GT$3fmt17hd4aca703ea3274d1E
	.p2align	4, 0x90
__ZN42_$LT$$RF$T$u20$as$u20$core..fmt..Debug$GT$3fmt17hd4aca703ea3274d1E:
Lfunc_begin2:
	.loc	2 2377 0 is_stmt 1
	.cfi_startproc
	pushq	%rbp
	.cfi_def_cfa_offset 16
	.cfi_offset %rbp, -16
	movq	%rsp, %rbp
	.cfi_def_cfa_register %rbp
	subq	$16, %rsp
	movq	%rdi, -16(%rbp)
	movq	%rsi, -8(%rbp)
Ltmp4:
	.loc	2 2377 71 prologue_end
	movq	(%rdi), %rdi
	.loc	2 2377 62 is_stmt 0
	callq	__ZN4core3fmt3num50_$LT$impl$u20$core..fmt..Debug$u20$for$u20$u64$GT$3fmt17hbfe90d67779c634fE
	.loc	2 2377 84
	andb	$1, %al
	movzbl	%al, %eax
	addq	$16, %rsp
	popq	%rbp
	retq
Ltmp5:
Lfunc_end2:
	.cfi_endproc

	.globl	__ZN48_$LT$$u5b$T$u5d$$u20$as$u20$core..fmt..Debug$GT$3fmt17h086a066049f622e8E
	.p2align	4, 0x90
__ZN48_$LT$$u5b$T$u5d$$u20$as$u20$core..fmt..Debug$GT$3fmt17h086a066049f622e8E:
Lfunc_begin3:
	.loc	2 2602 0 is_stmt 1
	.cfi_startproc
	pushq	%rbp
	.cfi_def_cfa_offset 16
	.cfi_offset %rbp, -16
	movq	%rsp, %rbp
	.cfi_def_cfa_register %rbp
	subq	$80, %rsp
	movq	%rdx, -80(%rbp)
	movq	%rsi, %rax
	movq	-80(%rbp), %rsi
	movq	%rdi, -72(%rbp)
	movq	%rax, -64(%rbp)
	movq	%rdi, -40(%rbp)
	movq	%rax, -32(%rbp)
	movq	%rsi, -24(%rbp)
Ltmp6:
	.loc	2 2603 9 prologue_end
	leaq	-56(%rbp), %rdi
	callq	__ZN4core3fmt9Formatter10debug_list17hc648f6f2ff865c45E
	movq	-72(%rbp), %rdi
	movq	-64(%rbp), %rsi
	.loc	2 2603 32 is_stmt 0
	movq	%rdi, -16(%rbp)
	movq	%rsi, -8(%rbp)
Ltmp7:
	.file	3 "/rustc/2c8cc343237b8f7d5a3c3703e3a87f2eb2c54a74/library/core/src/slice" "mod.rs"
	.loc	3 742 9 is_stmt 1
	callq	__ZN4core5slice4iter13Iter$LT$T$GT$3new17h6f4393a39303623aE
	movq	%rax, %rsi
Ltmp8:
	.loc	2 2603 9
	leaq	-56(%rbp), %rdi
	callq	__ZN4core3fmt8builders9DebugList7entries17h9a8871732b737dffE
	movq	%rax, %rdi
	callq	__ZN4core3fmt8builders9DebugList6finish17hed399f470c25b4b2E
	.loc	2 2604 6
	andb	$1, %al
	movzbl	%al, %eax
	addq	$80, %rsp
	popq	%rbp
	retq
Ltmp9:
Lfunc_end3:
	.cfi_endproc

	.p2align	4, 0x90
__ZN4core3fmt3num50_$LT$impl$u20$core..fmt..Debug$u20$for$u20$u64$GT$3fmt17hbfe90d67779c634fE:
Lfunc_begin4:
	.file	4 "/rustc/2c8cc343237b8f7d5a3c3703e3a87f2eb2c54a74/library/core/src/fmt" "num.rs"
	.loc	4 185 0
	.cfi_startproc
	pushq	%rbp
	.cfi_def_cfa_offset 16
	.cfi_offset %rbp, -16
	movq	%rsp, %rbp
	.cfi_def_cfa_register %rbp
	subq	$48, %rsp
	movq	%rsi, -48(%rbp)
	movq	%rdi, %rax
	movq	-48(%rbp), %rdi
	movq	%rax, -40(%rbp)
	movq	%rdi, -32(%rbp)
	movq	%rax, -16(%rbp)
	movq	%rdi, -8(%rbp)
Ltmp10:
	.loc	4 186 20 prologue_end
	callq	__ZN4core3fmt9Formatter15debug_lower_hex17h0921e6b9188d914eE
	testb	$1, %al
	jne	LBB4_2
	.loc	4 0 20 is_stmt 0
	movq	-32(%rbp), %rdi
	.loc	4 188 27 is_stmt 1
	callq	__ZN4core3fmt9Formatter15debug_upper_hex17h8ce487049a6cccf8E
	testb	$1, %al
	jne	LBB4_5
	jmp	LBB4_4
LBB4_2:
	.loc	4 0 27 is_stmt 0
	movq	-32(%rbp), %rsi
	movq	-40(%rbp), %rdi
	.loc	4 187 21 is_stmt 1
	callq	__ZN4core3fmt3num53_$LT$impl$u20$core..fmt..LowerHex$u20$for$u20$u64$GT$3fmt17h9f1a647630acba52E
	andb	$1, %al
	movb	%al, -17(%rbp)
LBB4_3:
	.loc	4 193 14
	movb	-17(%rbp), %al
	andb	$1, %al
	movzbl	%al, %eax
	addq	$48, %rsp
	popq	%rbp
	retq
LBB4_4:
	.loc	4 0 14 is_stmt 0
	movq	-32(%rbp), %rsi
	movq	-40(%rbp), %rdi
	.loc	4 191 21 is_stmt 1
	callq	__ZN4core3fmt3num3imp52_$LT$impl$u20$core..fmt..Display$u20$for$u20$u64$GT$3fmt17hc0b393b21668e9bfE
	andb	$1, %al
	movb	%al, -17(%rbp)
	.loc	4 188 24
	jmp	LBB4_6
LBB4_5:
	.loc	4 0 24 is_stmt 0
	movq	-32(%rbp), %rsi
	movq	-40(%rbp), %rdi
	.loc	4 189 21 is_stmt 1
	callq	__ZN4core3fmt3num53_$LT$impl$u20$core..fmt..UpperHex$u20$for$u20$u64$GT$3fmt17h9873482f6824a169E
	andb	$1, %al
	movb	%al, -17(%rbp)
LBB4_6:
	.loc	4 186 17
	jmp	LBB4_3
Ltmp11:
Lfunc_end4:
	.cfi_endproc

	.globl	__ZN4core3fmt8builders9DebugList7entries17h9a8871732b737dffE
	.p2align	4, 0x90
__ZN4core3fmt8builders9DebugList7entries17h9a8871732b737dffE:
Lfunc_begin5:
	.file	5 "/rustc/2c8cc343237b8f7d5a3c3703e3a87f2eb2c54a74/library/core/src/fmt" "builders.rs"
	.loc	5 627 0
	.cfi_startproc
	.cfi_personality 155, _rust_eh_personality
	.cfi_lsda 16, Lexception0
	pushq	%rbp
	.cfi_def_cfa_offset 16
	.cfi_offset %rbp, -16
	movq	%rsp, %rbp
	.cfi_def_cfa_register %rbp
	subq	$112, %rsp
	movq	%rdx, -96(%rbp)
	movq	%rsi, %rax
	movq	-96(%rbp), %rsi
	movq	%rax, -88(%rbp)
	movq	%rdi, %rax
	movq	-88(%rbp), %rdi
	movq	%rax, -80(%rbp)
	movq	%rax, -40(%rbp)
	movq	%rdi, -32(%rbp)
	movq	%rsi, -24(%rbp)
Ltmp18:
	.loc	5 632 22 prologue_end
	callq	__ZN63_$LT$I$u20$as$u20$core..iter..traits..collect..IntoIterator$GT$9into_iter17h42b379c725cf310fE
	movq	%rax, -72(%rbp)
	movq	%rdx, -64(%rbp)
LBB5_1:
Ltmp12:
	.loc	5 0 22 is_stmt 0
	leaq	-72(%rbp), %rdi
Ltmp19:
	.loc	5 632 22
	callq	__ZN91_$LT$core..slice..iter..Iter$LT$T$GT$$u20$as$u20$core..iter..traits..iterator..Iterator$GT$4next17h5c20c6688eed24bdE
Ltmp13:
	movq	%rax, -104(%rbp)
	jmp	LBB5_4
Ltmp20:
LBB5_2:
	.loc	5 627 5 is_stmt 1
	movq	-16(%rbp), %rdi
	callq	__Unwind_Resume
LBB5_3:
Ltmp14:
	.loc	5 0 5 is_stmt 0
	movq	%rax, %rcx
	movl	%edx, %eax
	movq	%rcx, -16(%rbp)
	movl	%eax, -8(%rbp)
	jmp	LBB5_2
LBB5_4:
	movq	-104(%rbp), %rax
Ltmp21:
	.loc	5 632 22 is_stmt 1
	movq	%rax, -56(%rbp)
	movq	-56(%rbp), %rdx
	movl	$1, %eax
	xorl	%ecx, %ecx
	cmpq	$0, %rdx
	cmoveq	%rcx, %rax
	cmpq	$0, %rax
	jne	LBB5_6
Ltmp22:
	.loc	5 0 22 is_stmt 0
	movq	-80(%rbp), %rax
	.loc	5 636 6 is_stmt 1
	addq	$112, %rsp
	popq	%rbp
	retq
LBB5_6:
	.loc	5 0 6 is_stmt 0
	movq	-80(%rbp), %rdi
Ltmp23:
	.loc	5 632 13 is_stmt 1
	movq	-56(%rbp), %rax
	movq	%rax, -48(%rbp)
Ltmp15:
Ltmp24:
	.loc	5 633 13
	leaq	l___unnamed_1(%rip), %rdx
	leaq	-48(%rbp), %rsi
	callq	__ZN4core3fmt8builders9DebugList5entry17h90e9fab3d6cede22E
Ltmp16:
	jmp	LBB5_9
Ltmp25:
LBB5_7:
	.loc	5 634 9
	jmp	LBB5_2
LBB5_8:
Ltmp17:
	.loc	5 0 9 is_stmt 0
	movq	%rax, %rcx
	movl	%edx, %eax
	movq	%rcx, -16(%rbp)
	movl	%eax, -8(%rbp)
	jmp	LBB5_7
LBB5_9:
	.loc	5 634 9
	jmp	LBB5_10
LBB5_10:
	.loc	5 632 9 is_stmt 1
	jmp	LBB5_1
Ltmp26:
Lfunc_end5:
	.cfi_endproc
	.section	__TEXT,__gcc_except_tab
	.p2align	2
GCC_except_table5:
Lexception0:
	.byte	255
	.byte	255
	.byte	1
	.uleb128 Lcst_end0-Lcst_begin0
Lcst_begin0:
	.uleb128 Lfunc_begin5-Lfunc_begin5
	.uleb128 Ltmp12-Lfunc_begin5
	.byte	0
	.byte	0
	.uleb128 Ltmp12-Lfunc_begin5
	.uleb128 Ltmp13-Ltmp12
	.uleb128 Ltmp14-Lfunc_begin5
	.byte	0
	.uleb128 Ltmp13-Lfunc_begin5
	.uleb128 Ltmp15-Ltmp13
	.byte	0
	.byte	0
	.uleb128 Ltmp15-Lfunc_begin5
	.uleb128 Ltmp16-Ltmp15
	.uleb128 Ltmp17-Lfunc_begin5
	.byte	0
Lcst_end0:
	.p2align	2

	.section	__TEXT,__text,regular,pure_instructions
	.globl	__ZN4core3mem4drop17h00c3657501ba8156E
	.p2align	4, 0x90
__ZN4core3mem4drop17h00c3657501ba8156E:
Lfunc_begin6:
	.file	6 "/rustc/2c8cc343237b8f7d5a3c3703e3a87f2eb2c54a74/library/core/src/mem" "mod.rs"
	.loc	6 980 0
	.cfi_startproc
	pushq	%rbp
	.cfi_def_cfa_offset 16
	.cfi_offset %rbp, -16
	movq	%rsp, %rbp
	.cfi_def_cfa_register %rbp
	subq	$16, %rsp
	movq	%rdi, -8(%rbp)
Ltmp27:
	.loc	6 980 24 prologue_end
	leaq	-8(%rbp), %rdi
	callq	__ZN4core3ptr91drop_in_place$LT$alloc..boxed..Box$LT$$u5b$$u5b$u64$u3b$$u20$4$u5d$$u3b$$u20$2$u5d$$GT$$GT$17h1a2e75ad0fc4b3f6E
	.loc	6 980 25 is_stmt 0
	addq	$16, %rsp
	popq	%rbp
	retq
Ltmp28:
Lfunc_end6:
	.cfi_endproc

	.globl	__ZN4core3mem4drop17h4f4d29284271a137E
	.p2align	4, 0x90
__ZN4core3mem4drop17h4f4d29284271a137E:
Lfunc_begin7:
	.loc	6 980 0 is_stmt 1
	.cfi_startproc
	pushq	%rbp
	.cfi_def_cfa_offset 16
	.cfi_offset %rbp, -16
	movq	%rsp, %rbp
	.cfi_def_cfa_register %rbp
	subq	$16, %rsp
	movq	%rdi, -8(%rbp)
Ltmp29:
	.loc	6 980 24 prologue_end
	leaq	-8(%rbp), %rdi
	callq	__ZN4core3ptr158drop_in_place$LT$alloc..boxed..Box$LT$alloc..boxed..Box$LT$dyn$u20$ahash..random_state..RandomSource$u2b$core..marker..Send$u2b$core..marker..Sync$GT$$GT$$GT$17hf1f00cd2d2194c63E
	.loc	6 980 25 is_stmt 0
	addq	$16, %rsp
	popq	%rbp
	retq
Ltmp30:
Lfunc_end7:
	.cfi_endproc

	.globl	__ZN4core3ptr108drop_in_place$LT$dyn$u20$ahash..random_state..RandomSource$u2b$core..marker..Send$u2b$core..marker..Sync$GT$17h823a5499a081e61cE
	.p2align	4, 0x90
__ZN4core3ptr108drop_in_place$LT$dyn$u20$ahash..random_state..RandomSource$u2b$core..marker..Send$u2b$core..marker..Sync$GT$17h823a5499a081e61cE:
Lfunc_begin8:
	.file	7 "/rustc/2c8cc343237b8f7d5a3c3703e3a87f2eb2c54a74/library/core/src/ptr" "mod.rs"
	.loc	7 490 0 is_stmt 1
	.cfi_startproc
	pushq	%rbp
	.cfi_def_cfa_offset 16
	.cfi_offset %rbp, -16
	movq	%rsp, %rbp
	.cfi_def_cfa_register %rbp
	subq	$16, %rsp
	movq	%rdi, -16(%rbp)
	movq	%rsi, -8(%rbp)
Ltmp31:
	.loc	7 490 1 prologue_end
	callq	*(%rsi)
	addq	$16, %rsp
	popq	%rbp
	retq
Ltmp32:
Lfunc_end8:
	.cfi_endproc

	.globl	__ZN4core3ptr108drop_in_place$LT$once_cell..race..once_box..OnceBox$LT$$u5b$$u5b$u64$u3b$$u20$4$u5d$$u3b$$u20$2$u5d$$GT$$GT$17h2420841b7b82f40aE
	.p2align	4, 0x90
__ZN4core3ptr108drop_in_place$LT$once_cell..race..once_box..OnceBox$LT$$u5b$$u5b$u64$u3b$$u20$4$u5d$$u3b$$u20$2$u5d$$GT$$GT$17h2420841b7b82f40aE:
Lfunc_begin9:
	.loc	7 490 0
	.cfi_startproc
	pushq	%rbp
	.cfi_def_cfa_offset 16
	.cfi_offset %rbp, -16
	movq	%rsp, %rbp
	.cfi_def_cfa_register %rbp
	subq	$16, %rsp
	movq	%rdi, -8(%rbp)
Ltmp33:
	.loc	7 490 1 prologue_end
	callq	__ZN85_$LT$once_cell..race..once_box..OnceBox$LT$T$GT$$u20$as$u20$core..ops..drop..Drop$GT$4drop17h143aea82c8f4a1e7E
	addq	$16, %rsp
	popq	%rbp
	retq
Ltmp34:
Lfunc_end9:
	.cfi_endproc

	.globl	__ZN4core3ptr133drop_in_place$LT$alloc..boxed..Box$LT$dyn$u20$ahash..random_state..RandomSource$u2b$core..marker..Send$u2b$core..marker..Sync$GT$$GT$17hc31893b7f86ca1cbE
	.p2align	4, 0x90
__ZN4core3ptr133drop_in_place$LT$alloc..boxed..Box$LT$dyn$u20$ahash..random_state..RandomSource$u2b$core..marker..Send$u2b$core..marker..Sync$GT$$GT$17hc31893b7f86ca1cbE:
Lfunc_begin10:
	.loc	7 490 0
	.cfi_startproc
	.cfi_personality 155, _rust_eh_personality
	.cfi_lsda 16, Lexception1
	pushq	%rbp
	.cfi_def_cfa_offset 16
	.cfi_offset %rbp, -16
	movq	%rsp, %rbp
	.cfi_def_cfa_register %rbp
	subq	$32, %rsp
	movq	%rdi, %rax
	movq	%rax, -32(%rbp)
	movq	%rax, -24(%rbp)
Ltmp41:
	.loc	7 490 1 prologue_end
	movq	(%rax), %rdi
	movq	8(%rax), %rax
	movq	(%rax), %rax
Ltmp35:
	callq	*%rax
Ltmp36:
	jmp	LBB10_3
LBB10_1:
	.loc	7 0 1 is_stmt 0
	movq	-32(%rbp), %rax
	.loc	7 490 1
	movq	(%rax), %rdi
	movq	8(%rax), %rsi
Ltmp38:
	callq	__ZN5alloc5alloc8box_free17h9916cc066b44ef9cE
Ltmp39:
	jmp	LBB10_5
LBB10_2:
Ltmp37:
	.loc	7 0 1
	movq	%rax, %rcx
	movl	%edx, %eax
	movq	%rcx, -16(%rbp)
	movl	%eax, -8(%rbp)
	jmp	LBB10_1
LBB10_3:
	movq	-32(%rbp), %rax
	.loc	7 490 1
	movq	(%rax), %rdi
	movq	8(%rax), %rsi
	callq	__ZN5alloc5alloc8box_free17h9916cc066b44ef9cE
	addq	$32, %rsp
	popq	%rbp
	retq
LBB10_4:
Ltmp40:
	callq	__ZN4core9panicking19panic_cannot_unwind17h1fbca7e1d7f56ae1E
LBB10_5:
	movq	-16(%rbp), %rdi
	callq	__Unwind_Resume
Ltmp42:
Lfunc_end10:
	.cfi_endproc
	.section	__TEXT,__gcc_except_tab
	.p2align	2
GCC_except_table10:
Lexception1:
	.byte	255
	.byte	255
	.byte	1
	.uleb128 Lcst_end1-Lcst_begin1
Lcst_begin1:
	.uleb128 Ltmp35-Lfunc_begin10
	.uleb128 Ltmp36-Ltmp35
	.uleb128 Ltmp37-Lfunc_begin10
	.byte	0
	.uleb128 Ltmp38-Lfunc_begin10
	.uleb128 Ltmp39-Ltmp38
	.uleb128 Ltmp40-Lfunc_begin10
	.byte	0
	.uleb128 Ltmp39-Lfunc_begin10
	.uleb128 Lfunc_end10-Ltmp39
	.byte	0
	.byte	0
Lcst_end1:
	.p2align	2

	.section	__TEXT,__text,regular,pure_instructions
	.globl	__ZN4core3ptr158drop_in_place$LT$alloc..boxed..Box$LT$alloc..boxed..Box$LT$dyn$u20$ahash..random_state..RandomSource$u2b$core..marker..Send$u2b$core..marker..Sync$GT$$GT$$GT$17hf1f00cd2d2194c63E
	.p2align	4, 0x90
__ZN4core3ptr158drop_in_place$LT$alloc..boxed..Box$LT$alloc..boxed..Box$LT$dyn$u20$ahash..random_state..RandomSource$u2b$core..marker..Send$u2b$core..marker..Sync$GT$$GT$$GT$17hf1f00cd2d2194c63E:
Lfunc_begin11:
	.loc	7 490 0 is_stmt 1
	.cfi_startproc
	.cfi_personality 155, _rust_eh_personality
	.cfi_lsda 16, Lexception2
	pushq	%rbp
	.cfi_def_cfa_offset 16
	.cfi_offset %rbp, -16
	movq	%rsp, %rbp
	.cfi_def_cfa_register %rbp
	subq	$32, %rsp
	movq	%rdi, -32(%rbp)
	movq	%rdi, -24(%rbp)
Ltmp49:
	.loc	7 490 1 prologue_end
	movq	(%rdi), %rdi
Ltmp43:
	callq	__ZN4core3ptr133drop_in_place$LT$alloc..boxed..Box$LT$dyn$u20$ahash..random_state..RandomSource$u2b$core..marker..Send$u2b$core..marker..Sync$GT$$GT$17hc31893b7f86ca1cbE
Ltmp44:
	jmp	LBB11_3
LBB11_1:
	.loc	7 0 1 is_stmt 0
	movq	-32(%rbp), %rax
	.loc	7 490 1
	movq	(%rax), %rdi
Ltmp46:
	callq	__ZN5alloc5alloc8box_free17hc4dd4deb409b6098E
Ltmp47:
	jmp	LBB11_5
LBB11_2:
Ltmp45:
	.loc	7 0 1
	movq	%rax, %rcx
	movl	%edx, %eax
	movq	%rcx, -16(%rbp)
	movl	%eax, -8(%rbp)
	jmp	LBB11_1
LBB11_3:
	movq	-32(%rbp), %rax
	.loc	7 490 1
	movq	(%rax), %rdi
	callq	__ZN5alloc5alloc8box_free17hc4dd4deb409b6098E
	addq	$32, %rsp
	popq	%rbp
	retq
LBB11_4:
Ltmp48:
	callq	__ZN4core9panicking19panic_cannot_unwind17h1fbca7e1d7f56ae1E
LBB11_5:
	movq	-16(%rbp), %rdi
	callq	__Unwind_Resume
Ltmp50:
Lfunc_end11:
	.cfi_endproc
	.section	__TEXT,__gcc_except_tab
	.p2align	2
GCC_except_table11:
Lexception2:
	.byte	255
	.byte	255
	.byte	1
	.uleb128 Lcst_end2-Lcst_begin2
Lcst_begin2:
	.uleb128 Ltmp43-Lfunc_begin11
	.uleb128 Ltmp44-Ltmp43
	.uleb128 Ltmp45-Lfunc_begin11
	.byte	0
	.uleb128 Ltmp46-Lfunc_begin11
	.uleb128 Ltmp47-Ltmp46
	.uleb128 Ltmp48-Lfunc_begin11
	.byte	0
	.uleb128 Ltmp47-Lfunc_begin11
	.uleb128 Lfunc_end11-Ltmp47
	.byte	0
	.byte	0
Lcst_end2:
	.p2align	2

	.section	__TEXT,__text,regular,pure_instructions
	.globl	__ZN4core3ptr175drop_in_place$LT$once_cell..race..once_box..OnceBox$LT$alloc..boxed..Box$LT$dyn$u20$ahash..random_state..RandomSource$u2b$core..marker..Send$u2b$core..marker..Sync$GT$$GT$$GT$17h970cd6be7a126656E
	.p2align	4, 0x90
__ZN4core3ptr175drop_in_place$LT$once_cell..race..once_box..OnceBox$LT$alloc..boxed..Box$LT$dyn$u20$ahash..random_state..RandomSource$u2b$core..marker..Send$u2b$core..marker..Sync$GT$$GT$$GT$17h970cd6be7a126656E:
Lfunc_begin12:
	.loc	7 490 0 is_stmt 1
	.cfi_startproc
	pushq	%rbp
	.cfi_def_cfa_offset 16
	.cfi_offset %rbp, -16
	movq	%rsp, %rbp
	.cfi_def_cfa_register %rbp
	subq	$16, %rsp
	movq	%rdi, -8(%rbp)
Ltmp51:
	.loc	7 490 1 prologue_end
	callq	__ZN85_$LT$once_cell..race..once_box..OnceBox$LT$T$GT$$u20$as$u20$core..ops..drop..Drop$GT$4drop17hc51cfcd343e5da6fE
	addq	$16, %rsp
	popq	%rbp
	retq
Ltmp52:
Lfunc_end12:
	.cfi_endproc

	.p2align	4, 0x90
__ZN4core3ptr28drop_in_place$LT$$RF$u64$GT$17h942c03422a694918E:
Lfunc_begin13:
	.loc	7 490 0
	.cfi_startproc
	pushq	%rbp
	.cfi_def_cfa_offset 16
	.cfi_offset %rbp, -16
	movq	%rsp, %rbp
	.cfi_def_cfa_register %rbp
	pushq	%rax
	movq	%rdi, -8(%rbp)
Ltmp53:
	.loc	7 490 1 prologue_end
	addq	$8, %rsp
	popq	%rbp
	retq
Ltmp54:
Lfunc_end13:
	.cfi_endproc

	.p2align	4, 0x90
__ZN4core3ptr49drop_in_place$LT$$RF$$u5b$u64$u3b$$u20$2$u5d$$GT$17h1270a2da945cc1f0E:
Lfunc_begin14:
	.loc	7 490 0
	.cfi_startproc
	pushq	%rbp
	.cfi_def_cfa_offset 16
	.cfi_offset %rbp, -16
	movq	%rsp, %rbp
	.cfi_def_cfa_register %rbp
	pushq	%rax
	movq	%rdi, -8(%rbp)
Ltmp55:
	.loc	7 490 1 prologue_end
	addq	$8, %rsp
	popq	%rbp
	retq
Ltmp56:
Lfunc_end14:
	.cfi_endproc

	.globl	__ZN4core3ptr7mut_ptr31_$LT$impl$u20$$BP$mut$u20$T$GT$7is_null17h342381198e58eb04E
	.p2align	4, 0x90
__ZN4core3ptr7mut_ptr31_$LT$impl$u20$$BP$mut$u20$T$GT$7is_null17h342381198e58eb04E:
Lfunc_begin15:
	.file	8 "/rustc/2c8cc343237b8f7d5a3c3703e3a87f2eb2c54a74/library/core/src/ptr" "mut_ptr.rs"
	.loc	8 35 0
	.cfi_startproc
	pushq	%rbp
	.cfi_def_cfa_offset 16
	.cfi_offset %rbp, -16
	movq	%rsp, %rbp
	.cfi_def_cfa_register %rbp
	subq	$48, %rsp
	movq	%rdi, -40(%rbp)
Ltmp57:
	.loc	8 52 36 prologue_end
	movq	%rdi, -48(%rbp)
	.loc	8 52 18 is_stmt 0
	movq	-48(%rbp), %rax
	movq	%rax, -32(%rbp)
Ltmp58:
	.loc	8 38 13 is_stmt 1
	movq	%rax, -24(%rbp)
Ltmp59:
	.loc	8 215 33
	movq	%rax, -16(%rbp)
	.loc	8 215 18 is_stmt 0
	movq	%rax, -8(%rbp)
Ltmp60:
	.loc	8 38 13 is_stmt 1
	cmpq	$0, -8(%rbp)
	sete	%al
Ltmp61:
	.loc	8 53 6
	andb	$1, %al
	movzbl	%al, %eax
	addq	$48, %rsp
	popq	%rbp
	retq
Ltmp62:
Lfunc_end15:
	.cfi_endproc

	.globl	__ZN4core3ptr7mut_ptr31_$LT$impl$u20$$BP$mut$u20$T$GT$7is_null17h6e472fe4b1384b02E
	.p2align	4, 0x90
__ZN4core3ptr7mut_ptr31_$LT$impl$u20$$BP$mut$u20$T$GT$7is_null17h6e472fe4b1384b02E:
Lfunc_begin16:
	.loc	8 35 0
	.cfi_startproc
	pushq	%rbp
	.cfi_def_cfa_offset 16
	.cfi_offset %rbp, -16
	movq	%rsp, %rbp
	.cfi_def_cfa_register %rbp
	subq	$48, %rsp
	movq	%rdi, -40(%rbp)
Ltmp63:
	.loc	8 52 36 prologue_end
	movq	%rdi, -48(%rbp)
	.loc	8 52 18 is_stmt 0
	movq	-48(%rbp), %rax
	movq	%rax, -32(%rbp)
Ltmp64:
	.loc	8 38 13 is_stmt 1
	movq	%rax, -24(%rbp)
Ltmp65:
	.loc	8 215 33
	movq	%rax, -16(%rbp)
	.loc	8 215 18 is_stmt 0
	movq	%rax, -8(%rbp)
Ltmp66:
	.loc	8 38 13 is_stmt 1
	cmpq	$0, -8(%rbp)
	sete	%al
Ltmp67:
	.loc	8 53 6
	andb	$1, %al
	movzbl	%al, %eax
	addq	$48, %rsp
	popq	%rbp
	retq
Ltmp68:
Lfunc_end16:
	.cfi_endproc

	.globl	__ZN4core3ptr91drop_in_place$LT$alloc..boxed..Box$LT$$u5b$$u5b$u64$u3b$$u20$4$u5d$$u3b$$u20$2$u5d$$GT$$GT$17h1a2e75ad0fc4b3f6E
	.p2align	4, 0x90
__ZN4core3ptr91drop_in_place$LT$alloc..boxed..Box$LT$$u5b$$u5b$u64$u3b$$u20$4$u5d$$u3b$$u20$2$u5d$$GT$$GT$17h1a2e75ad0fc4b3f6E:
Lfunc_begin17:
	.loc	7 490 0
	.cfi_startproc
	pushq	%rbp
	.cfi_def_cfa_offset 16
	.cfi_offset %rbp, -16
	movq	%rsp, %rbp
	.cfi_def_cfa_register %rbp
	subq	$32, %rsp
	movq	%rdi, -32(%rbp)
	movq	%rdi, -24(%rbp)
	movq	-32(%rbp), %rax
Ltmp69:
	.loc	7 490 1 prologue_end
	movq	(%rax), %rdi
	callq	__ZN5alloc5alloc8box_free17ha309b3c8a4413b0dE
	addq	$32, %rsp
	popq	%rbp
	retq
Ltmp70:
Lfunc_end17:
	.cfi_endproc

	.globl	__ZN4core4sync6atomic10atomic_add17hb39628116b6c7386E
	.p2align	4, 0x90
__ZN4core4sync6atomic10atomic_add17hb39628116b6c7386E:
Lfunc_begin18:
	.file	9 "/rustc/2c8cc343237b8f7d5a3c3703e3a87f2eb2c54a74/library/core/src/sync" "atomic.rs"
	.loc	9 3052 0
	.cfi_startproc
	pushq	%rbp
	.cfi_def_cfa_offset 16
	.cfi_offset %rbp, -16
	movq	%rsp, %rbp
	.cfi_def_cfa_register %rbp
	subq	$56, %rsp
	movq	%rsi, -56(%rbp)
	movq	%rdi, -48(%rbp)
	movb	%dl, %al
	movb	%al, -25(%rbp)
	movq	%rdi, -16(%rbp)
	movq	%rsi, -8(%rbp)
Ltmp71:
	.loc	9 3055 15 prologue_end
	movzbl	-25(%rbp), %eax
	movq	%rax, -40(%rbp)
	.loc	9 0 15 is_stmt 0
	movq	-40(%rbp), %rax
	leaq	LJTI18_0(%rip), %rcx
	movslq	(%rcx,%rax,4), %rax
	addq	%rcx, %rax
	jmpq	*%rax
	.loc	9 3055 15
	ud2
LBB18_2:
	.loc	9 0 15
	movq	-48(%rbp), %rcx
	movq	-56(%rbp), %rax
	.loc	9 3056 24 is_stmt 1
	lock		xaddq	%rax, (%rcx)
	movq	%rax, -24(%rbp)
	.loc	9 3056 64 is_stmt 0
	jmp	LBB18_7
LBB18_3:
	.loc	9 0 64
	movq	-48(%rbp), %rcx
	movq	-56(%rbp), %rax
	.loc	9 3058 24 is_stmt 1
	lock		xaddq	%rax, (%rcx)
	movq	%rax, -24(%rbp)
	.loc	9 3058 64 is_stmt 0
	jmp	LBB18_7
LBB18_4:
	.loc	9 0 64
	movq	-48(%rbp), %rcx
	movq	-56(%rbp), %rax
	.loc	9 3057 24 is_stmt 1
	lock		xaddq	%rax, (%rcx)
	movq	%rax, -24(%rbp)
	.loc	9 3057 64 is_stmt 0
	jmp	LBB18_7
LBB18_5:
	.loc	9 0 64
	movq	-48(%rbp), %rcx
	movq	-56(%rbp), %rax
	.loc	9 3059 23 is_stmt 1
	lock		xaddq	%rax, (%rcx)
	movq	%rax, -24(%rbp)
	.loc	9 3059 62 is_stmt 0
	jmp	LBB18_7
LBB18_6:
	.loc	9 0 62
	movq	-48(%rbp), %rcx
	movq	-56(%rbp), %rax
	.loc	9 3060 23 is_stmt 1
	lock		xaddq	%rax, (%rcx)
	movq	%rax, -24(%rbp)
LBB18_7:
	.loc	9 3063 2
	movq	-24(%rbp), %rax
	addq	$56, %rsp
	popq	%rbp
	retq
Ltmp72:
Lfunc_end18:
	.cfi_endproc
	.p2align	2, 0x90
	.data_region jt32
.set L18_0_set_2, LBB18_2-LJTI18_0
.set L18_0_set_3, LBB18_3-LJTI18_0
.set L18_0_set_4, LBB18_4-LJTI18_0
.set L18_0_set_5, LBB18_5-LJTI18_0
.set L18_0_set_6, LBB18_6-LJTI18_0
LJTI18_0:
	.long	L18_0_set_2
	.long	L18_0_set_3
	.long	L18_0_set_4
	.long	L18_0_set_5
	.long	L18_0_set_6
	.end_data_region

	.p2align	4, 0x90
__ZN4core4sync6atomic11AtomicUsize3new17he798cd1d79e776bfE:
Lfunc_begin19:
	.loc	9 1956 0
	.cfi_startproc
	pushq	%rbp
	.cfi_def_cfa_offset 16
	.cfi_offset %rbp, -16
	movq	%rsp, %rbp
	.cfi_def_cfa_register %rbp
	subq	$32, %rsp
	movq	%rdi, -16(%rbp)
Ltmp73:
	.loc	9 1957 42 prologue_end
	movq	%rdi, -8(%rbp)
Ltmp74:
	.file	10 "/rustc/2c8cc343237b8f7d5a3c3703e3a87f2eb2c54a74/library/core/src" "cell.rs"
	.loc	10 1953 9
	movq	%rdi, -24(%rbp)
Ltmp75:
	.loc	9 1957 17
	movq	-24(%rbp), %rax
	movq	%rax, -32(%rbp)
	.loc	9 1958 14
	movq	-32(%rbp), %rax
	addq	$32, %rsp
	popq	%rbp
	retq
Ltmp76:
Lfunc_end19:
	.cfi_endproc

	.p2align	4, 0x90
__ZN4core4sync6atomic11AtomicUsize9fetch_add17hc4c99f991bb2248cE:
Lfunc_begin20:
	.loc	9 2377 0
	.cfi_startproc
	pushq	%rbp
	.cfi_def_cfa_offset 16
	.cfi_offset %rbp, -16
	movq	%rsp, %rbp
	.cfi_def_cfa_register %rbp
	subq	$32, %rsp
	movb	%dl, %al
	movq	%rdi, -32(%rbp)
	movq	%rsi, -24(%rbp)
	movb	%al, -9(%rbp)
Ltmp77:
	.loc	9 2379 37 prologue_end
	movq	%rdi, -8(%rbp)
	.loc	9 2379 26 is_stmt 0
	movzbl	%al, %edx
	callq	__ZN4core4sync6atomic10atomic_add17hb39628116b6c7386E
	.loc	9 2380 14 is_stmt 1
	addq	$32, %rsp
	popq	%rbp
	retq
Ltmp78:
Lfunc_end20:
	.cfi_endproc

	.globl	__ZN4core4sync6atomic18AtomicPtr$LT$T$GT$7get_mut17h12c475806de36111E
	.p2align	4, 0x90
__ZN4core4sync6atomic18AtomicPtr$LT$T$GT$7get_mut17h12c475806de36111E:
Lfunc_begin21:
	.loc	9 1038 0
	.cfi_startproc
	pushq	%rbp
	.cfi_def_cfa_offset 16
	.cfi_offset %rbp, -16
	movq	%rsp, %rbp
	.cfi_def_cfa_register %rbp
	subq	$16, %rsp
	movq	%rdi, %rax
	movq	%rax, -16(%rbp)
Ltmp79:
	.loc	9 1039 9 prologue_end
	movq	%rax, -8(%rbp)
	.loc	9 1040 6
	addq	$16, %rsp
	popq	%rbp
	retq
Ltmp80:
Lfunc_end21:
	.cfi_endproc

	.globl	__ZN4core4sync6atomic18AtomicPtr$LT$T$GT$7get_mut17h5d94dd8399bd11f0E
	.p2align	4, 0x90
__ZN4core4sync6atomic18AtomicPtr$LT$T$GT$7get_mut17h5d94dd8399bd11f0E:
Lfunc_begin22:
	.loc	9 1038 0
	.cfi_startproc
	pushq	%rbp
	.cfi_def_cfa_offset 16
	.cfi_offset %rbp, -16
	movq	%rsp, %rbp
	.cfi_def_cfa_register %rbp
	subq	$16, %rsp
	movq	%rdi, %rax
	movq	%rax, -16(%rbp)
Ltmp81:
	.loc	9 1039 9 prologue_end
	movq	%rax, -8(%rbp)
	.loc	9 1040 6
	addq	$16, %rsp
	popq	%rbp
	retq
Ltmp82:
Lfunc_end22:
	.cfi_endproc

	.globl	__ZN4core5array69_$LT$impl$u20$core..fmt..Debug$u20$for$u20$$u5b$T$u3b$$u20$N$u5d$$GT$3fmt17h8b08f9d659e2f6c6E
	.p2align	4, 0x90
__ZN4core5array69_$LT$impl$u20$core..fmt..Debug$u20$for$u20$$u5b$T$u3b$$u20$N$u5d$$GT$3fmt17h8b08f9d659e2f6c6E:
Lfunc_begin23:
	.file	11 "/rustc/2c8cc343237b8f7d5a3c3703e3a87f2eb2c54a74/library/core/src/array" "mod.rs"
	.loc	11 323 0
	.cfi_startproc
	pushq	%rbp
	.cfi_def_cfa_offset 16
	.cfi_offset %rbp, -16
	movq	%rsp, %rbp
	.cfi_def_cfa_register %rbp
	subq	$80, %rsp
	movq	%rsi, -80(%rbp)
	movq	%rdi, -56(%rbp)
	movq	%rsi, -48(%rbp)
Ltmp83:
	.loc	11 324 27 prologue_end
	movq	%rdi, -24(%rbp)
Ltmp84:
	.loc	11 358 22
	movq	%rdi, -16(%rbp)
	movq	$2, -8(%rbp)
Ltmp85:
	.file	12 "/rustc/2c8cc343237b8f7d5a3c3703e3a87f2eb2c54a74/library/core/src/slice" "index.rs"
	.loc	12 18 9
	movl	$2, %esi
	leaq	l___unnamed_3(%rip), %rdx
	callq	__ZN97_$LT$core..ops..range..RangeFull$u20$as$u20$core..slice..index..SliceIndex$LT$$u5b$T$u5d$$GT$$GT$5index17h2e78b3a63e27b606E
	movq	-80(%rbp), %rsi
Ltmp86:
	.loc	11 324 26
	movq	%rax, -72(%rbp)
	movq	%rdx, -64(%rbp)
	.loc	11 324 9 is_stmt 0
	leaq	-72(%rbp), %rdi
	callq	__ZN42_$LT$$RF$T$u20$as$u20$core..fmt..Debug$GT$3fmt17h76e451c9dc9ec2b1E
	.loc	11 325 6 is_stmt 1
	andb	$1, %al
	movzbl	%al, %eax
	addq	$80, %rsp
	popq	%rbp
	retq
Ltmp87:
Lfunc_end23:
	.cfi_endproc

	.globl	__ZN4core5slice4iter13Iter$LT$T$GT$3new17h6f4393a39303623aE
	.p2align	4, 0x90
__ZN4core5slice4iter13Iter$LT$T$GT$3new17h6f4393a39303623aE:
Lfunc_begin24:
	.file	13 "/rustc/2c8cc343237b8f7d5a3c3703e3a87f2eb2c54a74/library/core/src/slice" "iter.rs"
	.loc	13 82 0
	.cfi_startproc
	pushq	%rbp
	.cfi_def_cfa_offset 16
	.cfi_offset %rbp, -16
	movq	%rsp, %rbp
	.cfi_def_cfa_register %rbp
	subq	$280, %rsp
	movq	%rdi, -280(%rbp)
	movq	%rsi, -272(%rbp)
	movq	%rdi, -208(%rbp)
	movq	%rsi, -200(%rbp)
Ltmp88:
	.loc	13 83 19 prologue_end
	movq	%rdi, -184(%rbp)
	movq	%rsi, -176(%rbp)
Ltmp89:
	.loc	3 477 9
	movq	%rdi, -168(%rbp)
Ltmp90:
	.loc	13 86 21
	movq	%rdi, -160(%rbp)
Ltmp91:
	.file	14 "/rustc/2c8cc343237b8f7d5a3c3703e3a87f2eb2c54a74/library/core/src/ptr" "const_ptr.rs"
	.loc	14 53 36
	movq	%rdi, -232(%rbp)
	.loc	14 53 18 is_stmt 0
	movq	-232(%rbp), %rax
	movq	%rax, -152(%rbp)
Ltmp92:
	.loc	14 39 13 is_stmt 1
	movq	%rax, -144(%rbp)
Ltmp93:
	.loc	14 209 33
	movq	%rax, -136(%rbp)
	.loc	14 209 18 is_stmt 0
	movq	%rax, -128(%rbp)
Ltmp94:
	.loc	13 89 20 is_stmt 1
	xorl	%eax, %eax
	testb	$1, %al
	jne	LBB24_2
	.loc	13 0 20 is_stmt 0
	movq	-280(%rbp), %rax
	movq	-272(%rbp), %rcx
	.loc	13 89 76
	movq	%rax, -40(%rbp)
	.loc	13 89 84
	movq	%rcx, -32(%rbp)
Ltmp95:
	.loc	14 932 18 is_stmt 1
	movq	%rax, -24(%rbp)
	.loc	14 932 30 is_stmt 0
	movq	%rcx, -16(%rbp)
Ltmp96:
	.loc	14 473 18 is_stmt 1
	shlq	$3, %rcx
	addq	%rcx, %rax
	movq	%rax, -248(%rbp)
Ltmp97:
	.loc	13 89 17
	jmp	LBB24_3
LBB24_2:
	.loc	13 0 17 is_stmt 0
	movq	-272(%rbp), %rcx
	movq	-280(%rbp), %rax
	.loc	13 89 32
	movq	%rax, -120(%rbp)
	.loc	13 89 54
	movq	%rcx, -112(%rbp)
Ltmp98:
	.loc	14 1118 9 is_stmt 1
	movq	%rax, -104(%rbp)
Ltmp99:
	.loc	14 61 9
	movq	%rax, -96(%rbp)
Ltmp100:
	.loc	14 1118 40
	movq	%rcx, -88(%rbp)
Ltmp101:
	.loc	14 1100 9
	movq	%rax, -80(%rbp)
	.loc	14 1100 30 is_stmt 0
	movq	%rcx, -72(%rbp)
Ltmp102:
	.loc	14 555 18 is_stmt 1
	addq	%rcx, %rax
	movq	%rax, -64(%rbp)
	movq	-64(%rbp), %rax
	movq	%rax, -56(%rbp)
Ltmp103:
	.loc	14 100 29
	movq	%rax, -48(%rbp)
Ltmp104:
	.file	15 "/rustc/2c8cc343237b8f7d5a3c3703e3a87f2eb2c54a74/library/core/src/ptr" "metadata.rs"
	.loc	15 118 36
	movq	%rax, -216(%rbp)
	.loc	15 118 14 is_stmt 0
	movq	-216(%rbp), %rax
	movq	%rax, -224(%rbp)
	movq	-224(%rbp), %rax
	movq	%rax, -248(%rbp)
Ltmp105:
LBB24_3:
	.loc	15 0 14
	movq	-280(%rbp), %rax
Ltmp106:
	.loc	13 91 48 is_stmt 1
	movq	%rax, -8(%rbp)
Ltmp107:
	.file	16 "/rustc/2c8cc343237b8f7d5a3c3703e3a87f2eb2c54a74/library/core/src/ptr" "non_null.rs"
	.loc	16 201 13
	movq	%rax, -240(%rbp)
Ltmp108:
	.loc	13 91 64
	movq	-248(%rbp), %rax
	.loc	13 91 13 is_stmt 0
	movq	-240(%rbp), %rcx
	movq	%rcx, -256(%rbp)
	movq	%rax, -264(%rbp)
Ltmp109:
	.loc	13 93 6 is_stmt 1
	movq	-264(%rbp), %rax
	movq	-256(%rbp), %rdx
	addq	$280, %rsp
	popq	%rbp
	retq
Ltmp110:
Lfunc_end24:
	.cfi_endproc

	.globl	__ZN5alloc5alloc8box_free17h9916cc066b44ef9cE
	.p2align	4, 0x90
__ZN5alloc5alloc8box_free17h9916cc066b44ef9cE:
Lfunc_begin25:
	.file	17 "/rustc/2c8cc343237b8f7d5a3c3703e3a87f2eb2c54a74/library/alloc/src" "alloc.rs"
	.loc	17 340 0
	.cfi_startproc
	.cfi_personality 155, _rust_eh_personality
	.cfi_lsda 16, Lexception3
	pushq	%rbp
	.cfi_def_cfa_offset 16
	.cfi_offset %rbp, -16
	movq	%rsp, %rbp
	.cfi_def_cfa_register %rbp
	subq	$304, %rsp
	movq	%rdi, -288(%rbp)
	movq	%rsi, -280(%rbp)
Ltmp114:
	.loc	17 345 32 prologue_end
	leaq	-288(%rbp), %rax
	movq	%rax, -224(%rbp)
Ltmp115:
	.file	18 "/rustc/2c8cc343237b8f7d5a3c3703e3a87f2eb2c54a74/library/core/src/ptr" "unique.rs"
	.loc	18 117 18
	leaq	-288(%rbp), %rax
	movq	%rax, -216(%rbp)
Ltmp116:
	.loc	16 376 20
	movq	-288(%rbp), %rcx
	movq	-280(%rbp), %rax
	movq	%rcx, -208(%rbp)
	movq	%rax, -200(%rbp)
Ltmp117:
	.loc	17 345 20
	movq	8(%rax), %rax
	movq	%rax, -192(%rbp)
	movq	-192(%rbp), %rcx
	movq	%rcx, -304(%rbp)
	movq	%rcx, -184(%rbp)
Ltmp118:
	.loc	17 346 38
	leaq	-288(%rbp), %rax
	movq	%rax, -176(%rbp)
Ltmp119:
	.loc	18 117 18
	leaq	-288(%rbp), %rax
	movq	%rax, -168(%rbp)
Ltmp120:
	.loc	16 376 20
	movq	-288(%rbp), %rdx
	movq	-280(%rbp), %rax
	movq	%rdx, -160(%rbp)
	movq	%rax, -152(%rbp)
Ltmp121:
	.loc	17 346 21
	movq	16(%rax), %rax
	movq	%rax, -144(%rbp)
	movq	-144(%rbp), %rax
	movq	%rax, -136(%rbp)
Ltmp122:
	.loc	17 347 56
	movq	%rcx, -128(%rbp)
	.loc	17 347 62 is_stmt 0
	movq	%rax, -120(%rbp)
Ltmp123:
	.file	19 "/rustc/2c8cc343237b8f7d5a3c3703e3a87f2eb2c54a74/library/core/src/alloc" "layout.rs"
	.loc	19 120 65 is_stmt 1
	movq	%rax, -112(%rbp)
Ltmp124:
	.file	20 "/rustc/2c8cc343237b8f7d5a3c3703e3a87f2eb2c54a74/library/core/src/ptr" "alignment.rs"
	.loc	20 89 18
	movq	%rax, -104(%rbp)
	movq	-104(%rbp), %rax
	movq	%rax, -296(%rbp)
Ltmp125:
	.loc	20 0 18 is_stmt 0
	movq	-296(%rbp), %rax
	movq	-304(%rbp), %rcx
	.loc	19 120 18 is_stmt 1
	movq	%rcx, -264(%rbp)
	movq	%rax, -256(%rbp)
Ltmp126:
	.loc	17 348 37
	movq	-288(%rbp), %rax
	movq	-280(%rbp), %rcx
	movq	%rax, -96(%rbp)
	movq	%rcx, -88(%rbp)
Ltmp127:
	.loc	18 137 22
	movq	%rax, -80(%rbp)
	movq	%rcx, -72(%rbp)
Ltmp128:
	.loc	16 450 41
	movq	%rax, -64(%rbp)
	movq	%rcx, -56(%rbp)
	movq	%rax, -48(%rbp)
Ltmp129:
	.loc	16 201 13
	movq	%rax, -232(%rbp)
Ltmp130:
	.loc	18 191 18
	movq	-232(%rbp), %rax
	.loc	18 191 9 is_stmt 0
	movq	%rax, -240(%rbp)
Ltmp131:
	.loc	16 768 41 is_stmt 1
	movq	-240(%rbp), %rax
	movq	%rax, -40(%rbp)
Ltmp132:
	.loc	18 104 9
	movq	%rax, -32(%rbp)
Ltmp133:
	.loc	16 326 9
	movq	%rax, -24(%rbp)
Ltmp134:
	.loc	16 201 13
	movq	%rax, -248(%rbp)
Ltmp135:
	.loc	17 348 50
	movq	-264(%rbp), %rdx
	movq	-256(%rbp), %rcx
	.loc	17 348 9 is_stmt 0
	movq	-248(%rbp), %rsi
Ltmp111:
	leaq	-272(%rbp), %rdi
	callq	__ZN63_$LT$alloc..alloc..Global$u20$as$u20$core..alloc..Allocator$GT$10deallocate17h639ecc2044054608E
Ltmp112:
	jmp	LBB25_4
Ltmp136:
LBB25_2:
	.loc	17 340 1 is_stmt 1
	movq	-16(%rbp), %rdi
	callq	__Unwind_Resume
LBB25_3:
Ltmp113:
	.loc	17 0 1 is_stmt 0
	movq	%rax, %rcx
	movl	%edx, %eax
	movq	%rcx, -16(%rbp)
	movl	%eax, -8(%rbp)
	jmp	LBB25_2
LBB25_4:
	.loc	17 350 2 is_stmt 1
	addq	$304, %rsp
	popq	%rbp
	retq
Ltmp137:
Lfunc_end25:
	.cfi_endproc
	.section	__TEXT,__gcc_except_tab
	.p2align	2
GCC_except_table25:
Lexception3:
	.byte	255
	.byte	255
	.byte	1
	.uleb128 Lcst_end3-Lcst_begin3
Lcst_begin3:
	.uleb128 Ltmp111-Lfunc_begin25
	.uleb128 Ltmp112-Ltmp111
	.uleb128 Ltmp113-Lfunc_begin25
	.byte	0
	.uleb128 Ltmp112-Lfunc_begin25
	.uleb128 Lfunc_end25-Ltmp112
	.byte	0
	.byte	0
Lcst_end3:
	.p2align	2

	.section	__TEXT,__text,regular,pure_instructions
	.globl	__ZN5alloc5alloc8box_free17ha309b3c8a4413b0dE
	.p2align	4, 0x90
__ZN5alloc5alloc8box_free17ha309b3c8a4413b0dE:
Lfunc_begin26:
	.loc	17 340 0
	.cfi_startproc
	.cfi_personality 155, _rust_eh_personality
	.cfi_lsda 16, Lexception4
	pushq	%rbp
	.cfi_def_cfa_offset 16
	.cfi_offset %rbp, -16
	movq	%rsp, %rbp
	.cfi_def_cfa_register %rbp
	subq	$256, %rsp
	movq	%rdi, -240(%rbp)
Ltmp141:
	.loc	17 345 32 prologue_end
	leaq	-240(%rbp), %rax
	movq	%rax, -184(%rbp)
Ltmp142:
	.loc	18 117 18
	leaq	-240(%rbp), %rax
	movq	%rax, -176(%rbp)
Ltmp143:
	.loc	16 376 20
	movq	-240(%rbp), %rax
	movq	%rax, -168(%rbp)
Ltmp144:
	.loc	17 345 20
	movq	$64, -160(%rbp)
	movq	-160(%rbp), %rcx
	movq	%rcx, -256(%rbp)
	movq	%rcx, -152(%rbp)
Ltmp145:
	.loc	17 346 38
	leaq	-240(%rbp), %rax
	movq	%rax, -144(%rbp)
Ltmp146:
	.loc	18 117 18
	leaq	-240(%rbp), %rax
	movq	%rax, -136(%rbp)
Ltmp147:
	.loc	16 376 20
	movq	-240(%rbp), %rax
	movq	%rax, -128(%rbp)
Ltmp148:
	.loc	17 346 21
	movq	$8, -120(%rbp)
	movq	-120(%rbp), %rax
	movq	%rax, -112(%rbp)
Ltmp149:
	.loc	17 347 56
	movq	%rcx, -104(%rbp)
	.loc	17 347 62 is_stmt 0
	movq	%rax, -96(%rbp)
Ltmp150:
	.loc	19 120 65 is_stmt 1
	movq	%rax, -88(%rbp)
Ltmp151:
	.loc	20 89 18
	movq	%rax, -80(%rbp)
	movq	-80(%rbp), %rax
	movq	%rax, -248(%rbp)
Ltmp152:
	.loc	20 0 18 is_stmt 0
	movq	-248(%rbp), %rax
	movq	-256(%rbp), %rcx
	.loc	19 120 18 is_stmt 1
	movq	%rcx, -224(%rbp)
	movq	%rax, -216(%rbp)
Ltmp153:
	.loc	17 348 37
	movq	-240(%rbp), %rax
	movq	%rax, -72(%rbp)
Ltmp154:
	.loc	18 137 22
	movq	%rax, -64(%rbp)
Ltmp155:
	.loc	16 450 41
	movq	%rax, -56(%rbp)
	movq	%rax, -48(%rbp)
Ltmp156:
	.loc	16 201 13
	movq	%rax, -192(%rbp)
Ltmp157:
	.loc	18 191 18
	movq	-192(%rbp), %rax
	.loc	18 191 9 is_stmt 0
	movq	%rax, -200(%rbp)
Ltmp158:
	.loc	16 768 41 is_stmt 1
	movq	-200(%rbp), %rax
	movq	%rax, -40(%rbp)
Ltmp159:
	.loc	18 104 9
	movq	%rax, -32(%rbp)
Ltmp160:
	.loc	16 326 9
	movq	%rax, -24(%rbp)
Ltmp161:
	.loc	16 201 13
	movq	%rax, -208(%rbp)
Ltmp162:
	.loc	17 348 50
	movq	-224(%rbp), %rdx
	movq	-216(%rbp), %rcx
	.loc	17 348 9 is_stmt 0
	movq	-208(%rbp), %rsi
Ltmp138:
	leaq	-232(%rbp), %rdi
	callq	__ZN63_$LT$alloc..alloc..Global$u20$as$u20$core..alloc..Allocator$GT$10deallocate17h639ecc2044054608E
Ltmp139:
	jmp	LBB26_4
Ltmp163:
LBB26_2:
	.loc	17 340 1 is_stmt 1
	movq	-16(%rbp), %rdi
	callq	__Unwind_Resume
LBB26_3:
Ltmp140:
	.loc	17 0 1 is_stmt 0
	movq	%rax, %rcx
	movl	%edx, %eax
	movq	%rcx, -16(%rbp)
	movl	%eax, -8(%rbp)
	jmp	LBB26_2
LBB26_4:
	.loc	17 350 2 is_stmt 1
	addq	$256, %rsp
	popq	%rbp
	retq
Ltmp164:
Lfunc_end26:
	.cfi_endproc
	.section	__TEXT,__gcc_except_tab
	.p2align	2
GCC_except_table26:
Lexception4:
	.byte	255
	.byte	255
	.byte	1
	.uleb128 Lcst_end4-Lcst_begin4
Lcst_begin4:
	.uleb128 Ltmp138-Lfunc_begin26
	.uleb128 Ltmp139-Ltmp138
	.uleb128 Ltmp140-Lfunc_begin26
	.byte	0
	.uleb128 Ltmp139-Lfunc_begin26
	.uleb128 Lfunc_end26-Ltmp139
	.byte	0
	.byte	0
Lcst_end4:
	.p2align	2

	.section	__TEXT,__text,regular,pure_instructions
	.globl	__ZN5alloc5alloc8box_free17hc4dd4deb409b6098E
	.p2align	4, 0x90
__ZN5alloc5alloc8box_free17hc4dd4deb409b6098E:
Lfunc_begin27:
	.loc	17 340 0
	.cfi_startproc
	.cfi_personality 155, _rust_eh_personality
	.cfi_lsda 16, Lexception5
	pushq	%rbp
	.cfi_def_cfa_offset 16
	.cfi_offset %rbp, -16
	movq	%rsp, %rbp
	.cfi_def_cfa_register %rbp
	subq	$256, %rsp
	movq	%rdi, -240(%rbp)
Ltmp168:
	.loc	17 345 32 prologue_end
	leaq	-240(%rbp), %rax
	movq	%rax, -184(%rbp)
Ltmp169:
	.loc	18 117 18
	leaq	-240(%rbp), %rax
	movq	%rax, -176(%rbp)
Ltmp170:
	.loc	16 376 20
	movq	-240(%rbp), %rax
	movq	%rax, -168(%rbp)
Ltmp171:
	.loc	17 345 20
	movq	$16, -160(%rbp)
	movq	-160(%rbp), %rcx
	movq	%rcx, -256(%rbp)
	movq	%rcx, -152(%rbp)
Ltmp172:
	.loc	17 346 38
	leaq	-240(%rbp), %rax
	movq	%rax, -144(%rbp)
Ltmp173:
	.loc	18 117 18
	leaq	-240(%rbp), %rax
	movq	%rax, -136(%rbp)
Ltmp174:
	.loc	16 376 20
	movq	-240(%rbp), %rax
	movq	%rax, -128(%rbp)
Ltmp175:
	.loc	17 346 21
	movq	$8, -120(%rbp)
	movq	-120(%rbp), %rax
	movq	%rax, -112(%rbp)
Ltmp176:
	.loc	17 347 56
	movq	%rcx, -104(%rbp)
	.loc	17 347 62 is_stmt 0
	movq	%rax, -96(%rbp)
Ltmp177:
	.loc	19 120 65 is_stmt 1
	movq	%rax, -88(%rbp)
Ltmp178:
	.loc	20 89 18
	movq	%rax, -80(%rbp)
	movq	-80(%rbp), %rax
	movq	%rax, -248(%rbp)
Ltmp179:
	.loc	20 0 18 is_stmt 0
	movq	-248(%rbp), %rax
	movq	-256(%rbp), %rcx
	.loc	19 120 18 is_stmt 1
	movq	%rcx, -224(%rbp)
	movq	%rax, -216(%rbp)
Ltmp180:
	.loc	17 348 37
	movq	-240(%rbp), %rax
	movq	%rax, -72(%rbp)
Ltmp181:
	.loc	18 137 22
	movq	%rax, -64(%rbp)
Ltmp182:
	.loc	16 450 41
	movq	%rax, -56(%rbp)
	movq	%rax, -48(%rbp)
Ltmp183:
	.loc	16 201 13
	movq	%rax, -192(%rbp)
Ltmp184:
	.loc	18 191 18
	movq	-192(%rbp), %rax
	.loc	18 191 9 is_stmt 0
	movq	%rax, -200(%rbp)
Ltmp185:
	.loc	16 768 41 is_stmt 1
	movq	-200(%rbp), %rax
	movq	%rax, -40(%rbp)
Ltmp186:
	.loc	18 104 9
	movq	%rax, -32(%rbp)
Ltmp187:
	.loc	16 326 9
	movq	%rax, -24(%rbp)
Ltmp188:
	.loc	16 201 13
	movq	%rax, -208(%rbp)
Ltmp189:
	.loc	17 348 50
	movq	-224(%rbp), %rdx
	movq	-216(%rbp), %rcx
	.loc	17 348 9 is_stmt 0
	movq	-208(%rbp), %rsi
Ltmp165:
	leaq	-232(%rbp), %rdi
	callq	__ZN63_$LT$alloc..alloc..Global$u20$as$u20$core..alloc..Allocator$GT$10deallocate17h639ecc2044054608E
Ltmp166:
	jmp	LBB27_4
Ltmp190:
LBB27_2:
	.loc	17 340 1 is_stmt 1
	movq	-16(%rbp), %rdi
	callq	__Unwind_Resume
LBB27_3:
Ltmp167:
	.loc	17 0 1 is_stmt 0
	movq	%rax, %rcx
	movl	%edx, %eax
	movq	%rcx, -16(%rbp)
	movl	%eax, -8(%rbp)
	jmp	LBB27_2
LBB27_4:
	.loc	17 350 2 is_stmt 1
	addq	$256, %rsp
	popq	%rbp
	retq
Ltmp191:
Lfunc_end27:
	.cfi_endproc
	.section	__TEXT,__gcc_except_tab
	.p2align	2
GCC_except_table27:
Lexception5:
	.byte	255
	.byte	255
	.byte	1
	.uleb128 Lcst_end5-Lcst_begin5
Lcst_begin5:
	.uleb128 Ltmp165-Lfunc_begin27
	.uleb128 Ltmp166-Ltmp165
	.uleb128 Ltmp167-Lfunc_begin27
	.byte	0
	.uleb128 Ltmp166-Lfunc_begin27
	.uleb128 Lfunc_end27-Ltmp166
	.byte	0
	.byte	0
Lcst_end5:
	.p2align	2

	.section	__TEXT,__text,regular,pure_instructions
	.globl	__ZN5alloc5boxed12Box$LT$T$GT$8from_raw17h011a2dc69f9fc3f0E
	.p2align	4, 0x90
__ZN5alloc5boxed12Box$LT$T$GT$8from_raw17h011a2dc69f9fc3f0E:
Lfunc_begin28:
	.file	21 "/rustc/2c8cc343237b8f7d5a3c3703e3a87f2eb2c54a74/library/alloc/src" "boxed.rs"
	.loc	21 957 0
	.cfi_startproc
	pushq	%rbp
	.cfi_def_cfa_offset 16
	.cfi_offset %rbp, -16
	movq	%rsp, %rbp
	.cfi_def_cfa_register %rbp
	subq	$16, %rsp
	movq	%rdi, -8(%rbp)
Ltmp192:
	.loc	21 958 18 prologue_end
	callq	__ZN5alloc5boxed16Box$LT$T$C$A$GT$11from_raw_in17h5eaeaea21b483a8fE
	.loc	21 959 6
	addq	$16, %rsp
	popq	%rbp
	retq
Ltmp193:
Lfunc_end28:
	.cfi_endproc

	.globl	__ZN5alloc5boxed12Box$LT$T$GT$8from_raw17h36e491d83b32aad9E
	.p2align	4, 0x90
__ZN5alloc5boxed12Box$LT$T$GT$8from_raw17h36e491d83b32aad9E:
Lfunc_begin29:
	.loc	21 957 0
	.cfi_startproc
	pushq	%rbp
	.cfi_def_cfa_offset 16
	.cfi_offset %rbp, -16
	movq	%rsp, %rbp
	.cfi_def_cfa_register %rbp
	subq	$16, %rsp
	movq	%rdi, -8(%rbp)
Ltmp194:
	.loc	21 958 18 prologue_end
	callq	__ZN5alloc5boxed16Box$LT$T$C$A$GT$11from_raw_in17hcca192b8df33f147E
	.loc	21 959 6
	addq	$16, %rsp
	popq	%rbp
	retq
Ltmp195:
Lfunc_end29:
	.cfi_endproc

	.globl	__ZN5alloc5boxed16Box$LT$T$C$A$GT$11from_raw_in17h5eaeaea21b483a8fE
	.p2align	4, 0x90
__ZN5alloc5boxed16Box$LT$T$C$A$GT$11from_raw_in17h5eaeaea21b483a8fE:
Lfunc_begin30:
	.loc	21 1013 0
	.cfi_startproc
	pushq	%rbp
	.cfi_def_cfa_offset 16
	.cfi_offset %rbp, -16
	movq	%rsp, %rbp
	.cfi_def_cfa_register %rbp
	subq	$56, %rsp
	movq	%rdi, -32(%rbp)
Ltmp196:
	.loc	21 1014 44 prologue_end
	movq	%rdi, -16(%rbp)
Ltmp197:
	.loc	18 87 59
	movq	%rdi, -8(%rbp)
Ltmp198:
	.loc	16 201 13
	movq	%rdi, -40(%rbp)
Ltmp199:
	.loc	18 87 18
	movq	-40(%rbp), %rax
	movq	%rax, -48(%rbp)
Ltmp200:
	.loc	21 1014 9
	movq	-48(%rbp), %rax
	movq	%rax, -56(%rbp)
	.loc	21 1015 6
	movq	-56(%rbp), %rax
	addq	$56, %rsp
	popq	%rbp
	retq
Ltmp201:
Lfunc_end30:
	.cfi_endproc

	.globl	__ZN5alloc5boxed16Box$LT$T$C$A$GT$11from_raw_in17hcca192b8df33f147E
	.p2align	4, 0x90
__ZN5alloc5boxed16Box$LT$T$C$A$GT$11from_raw_in17hcca192b8df33f147E:
Lfunc_begin31:
	.loc	21 1013 0
	.cfi_startproc
	pushq	%rbp
	.cfi_def_cfa_offset 16
	.cfi_offset %rbp, -16
	movq	%rsp, %rbp
	.cfi_def_cfa_register %rbp
	subq	$56, %rsp
	movq	%rdi, -32(%rbp)
Ltmp202:
	.loc	21 1014 44 prologue_end
	movq	%rdi, -16(%rbp)
Ltmp203:
	.loc	18 87 59
	movq	%rdi, -8(%rbp)
Ltmp204:
	.loc	16 201 13
	movq	%rdi, -40(%rbp)
Ltmp205:
	.loc	18 87 18
	movq	-40(%rbp), %rax
	movq	%rax, -48(%rbp)
Ltmp206:
	.loc	21 1014 9
	movq	-48(%rbp), %rax
	movq	%rax, -56(%rbp)
	.loc	21 1015 6
	movq	-56(%rbp), %rax
	addq	$56, %rsp
	popq	%rbp
	retq
Ltmp207:
Lfunc_end31:
	.cfi_endproc

	.globl	__ZN63_$LT$I$u20$as$u20$core..iter..traits..collect..IntoIterator$GT$9into_iter17h42b379c725cf310fE
	.p2align	4, 0x90
__ZN63_$LT$I$u20$as$u20$core..iter..traits..collect..IntoIterator$GT$9into_iter17h42b379c725cf310fE:
Lfunc_begin32:
	.file	22 "/rustc/2c8cc343237b8f7d5a3c3703e3a87f2eb2c54a74/library/core/src/iter/traits" "collect.rs"
	.loc	22 272 0
	.cfi_startproc
	pushq	%rbp
	.cfi_def_cfa_offset 16
	.cfi_offset %rbp, -16
	movq	%rsp, %rbp
	.cfi_def_cfa_register %rbp
	subq	$16, %rsp
	movq	%rsi, %rdx
	movq	%rdi, %rax
	movq	%rax, -16(%rbp)
	movq	%rdx, -8(%rbp)
Ltmp208:
	.loc	22 274 6 prologue_end
	addq	$16, %rsp
	popq	%rbp
	retq
Ltmp209:
Lfunc_end32:
	.cfi_endproc

	.p2align	4, 0x90
__ZN63_$LT$alloc..alloc..Global$u20$as$u20$core..alloc..Allocator$GT$10deallocate17h639ecc2044054608E:
Lfunc_begin33:
	.loc	17 246 0
	.cfi_startproc
	pushq	%rbp
	.cfi_def_cfa_offset 16
	.cfi_offset %rbp, -16
	movq	%rsp, %rbp
	.cfi_def_cfa_register %rbp
	subq	$112, %rsp
	movq	%rsi, -112(%rbp)
	movq	%rdx, -104(%rbp)
	movq	%rcx, -96(%rbp)
	movq	%rdi, -64(%rbp)
	movq	%rsi, -56(%rbp)
Ltmp210:
	.loc	17 247 12 prologue_end
	leaq	-104(%rbp), %rax
	movq	%rax, -48(%rbp)
	cmpq	$0, -104(%rbp)
	jne	LBB33_2
	.loc	17 247 9 is_stmt 0
	jmp	LBB33_3
LBB33_2:
	.loc	17 0 9
	movq	-112(%rbp), %rdi
	.loc	17 250 30 is_stmt 1
	movq	%rdi, -40(%rbp)
Ltmp211:
	.loc	16 326 9
	movq	%rdi, -32(%rbp)
Ltmp212:
	.loc	17 250 44
	movq	-104(%rbp), %rcx
	movq	-96(%rbp), %rax
	movq	%rcx, -88(%rbp)
	movq	%rax, -80(%rbp)
Ltmp213:
	.loc	17 113 34
	leaq	-88(%rbp), %rax
	movq	%rax, -24(%rbp)
Ltmp214:
	.loc	19 129 9
	movq	-88(%rbp), %rsi
Ltmp215:
	.loc	17 113 49
	leaq	-88(%rbp), %rax
	movq	%rax, -16(%rbp)
Ltmp216:
	.loc	19 140 9
	movq	-80(%rbp), %rax
	movq	%rax, -8(%rbp)
Ltmp217:
	.loc	20 97 9
	movq	%rax, -72(%rbp)
	movq	-72(%rbp), %rdx
Ltmp218:
	.loc	17 113 14
	callq	___rust_dealloc
Ltmp219:
LBB33_3:
	.loc	17 252 6
	addq	$112, %rsp
	popq	%rbp
	retq
Ltmp220:
Lfunc_end33:
	.cfi_endproc

	.globl	__ZN85_$LT$once_cell..race..once_box..OnceBox$LT$T$GT$$u20$as$u20$core..ops..drop..Drop$GT$4drop17h143aea82c8f4a1e7E
	.p2align	4, 0x90
__ZN85_$LT$once_cell..race..once_box..OnceBox$LT$T$GT$$u20$as$u20$core..ops..drop..Drop$GT$4drop17h143aea82c8f4a1e7E:
Lfunc_begin34:
	.file	23 "/Users/natalie/.cargo/registry/src/github.com-1ecc6299db9ec823/once_cell-1.16.0/src" "race.rs"
	.loc	23 204 0
	.cfi_startproc
	pushq	%rbp
	.cfi_def_cfa_offset 16
	.cfi_offset %rbp, -16
	movq	%rsp, %rbp
	.cfi_def_cfa_register %rbp
	subq	$32, %rsp
	movq	%rdi, -16(%rbp)
Ltmp221:
	.loc	23 205 24 prologue_end
	callq	__ZN4core4sync6atomic18AtomicPtr$LT$T$GT$7get_mut17h5d94dd8399bd11f0E
	.loc	23 205 23 is_stmt 0
	movq	(%rax), %rdi
	movq	%rdi, -24(%rbp)
	movq	%rdi, -8(%rbp)
Ltmp222:
	.loc	23 206 17 is_stmt 1
	callq	__ZN4core3ptr7mut_ptr31_$LT$impl$u20$$BP$mut$u20$T$GT$7is_null17h6e472fe4b1384b02E
	.loc	23 206 16 is_stmt 0
	xorb	$-1, %al
	testb	$1, %al
	jne	LBB34_2
Ltmp223:
LBB34_1:
	.loc	23 209 10 is_stmt 1
	addq	$32, %rsp
	popq	%rbp
	retq
LBB34_2:
	.loc	23 0 10 is_stmt 0
	movq	-24(%rbp), %rdi
Ltmp224:
	.loc	23 207 31 is_stmt 1
	callq	__ZN5alloc5boxed12Box$LT$T$GT$8from_raw17h011a2dc69f9fc3f0E
	movq	%rax, %rdi
	.loc	23 207 17 is_stmt 0
	callq	__ZN4core3mem4drop17h00c3657501ba8156E
	jmp	LBB34_1
Ltmp225:
Lfunc_end34:
	.cfi_endproc

	.globl	__ZN85_$LT$once_cell..race..once_box..OnceBox$LT$T$GT$$u20$as$u20$core..ops..drop..Drop$GT$4drop17hc51cfcd343e5da6fE
	.p2align	4, 0x90
__ZN85_$LT$once_cell..race..once_box..OnceBox$LT$T$GT$$u20$as$u20$core..ops..drop..Drop$GT$4drop17hc51cfcd343e5da6fE:
Lfunc_begin35:
	.loc	23 204 0 is_stmt 1
	.cfi_startproc
	pushq	%rbp
	.cfi_def_cfa_offset 16
	.cfi_offset %rbp, -16
	movq	%rsp, %rbp
	.cfi_def_cfa_register %rbp
	subq	$32, %rsp
	movq	%rdi, -16(%rbp)
Ltmp226:
	.loc	23 205 24 prologue_end
	callq	__ZN4core4sync6atomic18AtomicPtr$LT$T$GT$7get_mut17h12c475806de36111E
	.loc	23 205 23 is_stmt 0
	movq	(%rax), %rdi
	movq	%rdi, -24(%rbp)
	movq	%rdi, -8(%rbp)
Ltmp227:
	.loc	23 206 17 is_stmt 1
	callq	__ZN4core3ptr7mut_ptr31_$LT$impl$u20$$BP$mut$u20$T$GT$7is_null17h342381198e58eb04E
	.loc	23 206 16 is_stmt 0
	xorb	$-1, %al
	testb	$1, %al
	jne	LBB35_2
Ltmp228:
LBB35_1:
	.loc	23 209 10 is_stmt 1
	addq	$32, %rsp
	popq	%rbp
	retq
LBB35_2:
	.loc	23 0 10 is_stmt 0
	movq	-24(%rbp), %rdi
Ltmp229:
	.loc	23 207 31 is_stmt 1
	callq	__ZN5alloc5boxed12Box$LT$T$GT$8from_raw17h36e491d83b32aad9E
	movq	%rax, %rdi
	.loc	23 207 17 is_stmt 0
	callq	__ZN4core3mem4drop17h4f4d29284271a137E
	jmp	LBB35_1
Ltmp230:
Lfunc_end35:
	.cfi_endproc

	.globl	__ZN91_$LT$core..slice..iter..Iter$LT$T$GT$$u20$as$u20$core..iter..traits..iterator..Iterator$GT$4next17h5c20c6688eed24bdE
	.p2align	4, 0x90
__ZN91_$LT$core..slice..iter..Iter$LT$T$GT$$u20$as$u20$core..iter..traits..iterator..Iterator$GT$4next17h5c20c6688eed24bdE:
Lfunc_begin36:
	.file	24 "/rustc/2c8cc343237b8f7d5a3c3703e3a87f2eb2c54a74/library/core/src/slice/iter" "macros.rs"
	.loc	24 124 0 is_stmt 1
	.cfi_startproc
	pushq	%rbp
	.cfi_def_cfa_offset 16
	.cfi_offset %rbp, -16
	movq	%rsp, %rbp
	.cfi_def_cfa_register %rbp
	subq	$304, %rsp
	movq	%rdi, -304(%rbp)
	movq	%rdi, -240(%rbp)
Ltmp231:
	.loc	24 132 29 prologue_end
	movq	8(%rdi), %rax
	movq	%rax, -224(%rbp)
Ltmp232:
	.loc	16 326 9
	movq	%rax, -216(%rbp)
Ltmp233:
	.loc	8 52 36
	movq	%rax, -280(%rbp)
	.loc	8 52 18 is_stmt 0
	movq	-280(%rbp), %rax
	movq	%rax, -208(%rbp)
Ltmp234:
	.loc	8 38 13 is_stmt 1
	movq	%rax, -200(%rbp)
Ltmp235:
	.loc	8 215 33
	movq	%rax, -192(%rbp)
	.loc	8 215 18 is_stmt 0
	movq	%rax, -184(%rbp)
Ltmp236:
	.loc	24 133 24 is_stmt 1
	movb	$1, %al
	testb	$1, %al
	jne	LBB36_2
LBB36_1:
	.loc	24 0 24 is_stmt 0
	movq	-304(%rbp), %rcx
	.loc	24 136 24 is_stmt 1
	movq	8(%rcx), %rax
	movq	%rax, -136(%rbp)
	cmpq	(%rcx), %rax
	je	LBB36_4
	jmp	LBB36_3
LBB36_2:
	.loc	24 0 24 is_stmt 0
	movq	-304(%rbp), %rax
	.loc	24 134 33 is_stmt 1
	movq	(%rax), %rax
	movq	%rax, -176(%rbp)
Ltmp237:
	.loc	14 53 36
	movq	%rax, -272(%rbp)
	.loc	14 53 18 is_stmt 0
	movq	-272(%rbp), %rax
	movq	%rax, -168(%rbp)
Ltmp238:
	.loc	14 39 13 is_stmt 1
	movq	%rax, -160(%rbp)
Ltmp239:
	.loc	14 209 33
	movq	%rax, -152(%rbp)
	.loc	14 209 18 is_stmt 0
	movq	%rax, -144(%rbp)
Ltmp240:
	.loc	24 133 21 is_stmt 1
	jmp	LBB36_1
LBB36_3:
	.loc	24 0 21 is_stmt 0
	movq	-304(%rbp), %rax
	.loc	24 139 30 is_stmt 1
	movq	%rax, -128(%rbp)
Ltmp241:
	.loc	24 76 20
	xorl	%eax, %eax
	testb	$1, %al
	jne	LBB36_6
	jmp	LBB36_7
Ltmp242:
LBB36_4:
	.loc	24 137 25
	movq	$0, -296(%rbp)
LBB36_5:
	.loc	24 142 14
	movq	-296(%rbp), %rax
	addq	$304, %rsp
	popq	%rbp
	retq
LBB36_6:
	.loc	24 0 14 is_stmt 0
	movq	-304(%rbp), %rax
Ltmp243:
	.loc	24 57 29 is_stmt 1
	movq	(%rax), %rcx
	movq	%rcx, -64(%rbp)
Ltmp244:
	.loc	14 1198 9
	movq	%rcx, -56(%rbp)
Ltmp245:
	.loc	14 61 9
	movq	%rcx, -48(%rbp)
Ltmp246:
	.loc	14 1180 9
	movq	%rcx, -40(%rbp)
Ltmp247:
	.loc	14 555 18
	addq	$-1, %rcx
	movq	%rcx, -32(%rbp)
	movq	-32(%rbp), %rcx
	movq	%rcx, -24(%rbp)
Ltmp248:
	.loc	14 100 29
	movq	%rcx, -16(%rbp)
Ltmp249:
	.loc	15 118 36
	movq	%rcx, -248(%rbp)
	.loc	15 118 14 is_stmt 0
	movq	-248(%rbp), %rcx
	movq	%rcx, -256(%rbp)
	movq	-256(%rbp), %rcx
Ltmp250:
	.loc	24 57 17 is_stmt 1
	movq	%rcx, (%rax)
	.loc	24 78 21
	movq	8(%rax), %rax
	movq	%rax, -8(%rbp)
	movq	%rax, -288(%rbp)
	.loc	24 76 17
	jmp	LBB36_8
LBB36_7:
	.loc	24 0 17 is_stmt 0
	movq	-304(%rbp), %rcx
	.loc	24 80 31 is_stmt 1
	movq	8(%rcx), %rax
	movq	%rax, -120(%rbp)
Ltmp251:
	.loc	16 326 9
	movq	%rax, -112(%rbp)
Ltmp252:
	.loc	24 83 64
	movq	8(%rcx), %rdx
	movq	%rdx, -104(%rbp)
Ltmp253:
	.loc	16 326 9
	movq	%rdx, -96(%rbp)
Ltmp254:
	.loc	8 1034 18
	movq	%rdx, -88(%rbp)
Ltmp255:
	.loc	8 487 18
	addq	$8, %rdx
	movq	%rdx, -80(%rbp)
	movq	-80(%rbp), %rdx
	movq	%rdx, -72(%rbp)
Ltmp256:
	.loc	16 201 13
	movq	%rdx, -264(%rbp)
Ltmp257:
	.loc	24 83 21
	movq	-264(%rbp), %rdx
	movq	%rdx, 8(%rcx)
	.loc	24 84 21
	movq	%rax, -288(%rbp)
Ltmp258:
LBB36_8:
	.loc	24 139 30
	movq	-288(%rbp), %rax
	.loc	24 139 25 is_stmt 0
	movq	%rax, -296(%rbp)
	.loc	24 136 21 is_stmt 1
	jmp	LBB36_5
Ltmp259:
Lfunc_end36:
	.cfi_endproc

	.globl	__ZN97_$LT$core..ops..range..RangeFull$u20$as$u20$core..slice..index..SliceIndex$LT$$u5b$T$u5d$$GT$$GT$5index17h2e78b3a63e27b606E
	.p2align	4, 0x90
__ZN97_$LT$core..ops..range..RangeFull$u20$as$u20$core..slice..index..SliceIndex$LT$$u5b$T$u5d$$GT$$GT$5index17h2e78b3a63e27b606E:
Lfunc_begin37:
	.loc	12 537 0
	.cfi_startproc
	pushq	%rbp
	.cfi_def_cfa_offset 16
	.cfi_offset %rbp, -16
	movq	%rsp, %rbp
	.cfi_def_cfa_register %rbp
	subq	$24, %rsp
	movq	%rdx, %rcx
	movq	%rsi, %rdx
	movq	%rdi, %rax
	movq	%rax, -16(%rbp)
	movq	%rdx, -8(%rbp)
Ltmp260:
	.loc	12 539 6 prologue_end
	addq	$24, %rsp
	popq	%rbp
	retq
Ltmp261:
Lfunc_end37:
	.cfi_endproc

	.p2align	4, 0x90
__ZN5ahash13fallback_hash7AHasher17from_random_state17h18ce63a48e99a174E:
Lfunc_begin38:
	.file	25 "/Users/natalie/.cargo/registry/src/github.com-1ecc6299db9ec823/ahash-0.8.0" "src/fallback_hash.rs"
	.loc	25 59 0
	.cfi_startproc
	pushq	%rbp
	.cfi_def_cfa_offset 16
	.cfi_offset %rbp, -16
	movq	%rsp, %rbp
	.cfi_def_cfa_register %rbp
	subq	$24, %rsp
	movq	%rdi, %rax
	movq	%rsi, -8(%rbp)
Ltmp262:
	.loc	25 61 21 prologue_end
	movq	(%rsi), %rdx
	.loc	25 62 18
	movq	8(%rsi), %rcx
	.loc	25 63 26
	movq	16(%rsi), %r8
	.loc	25 63 41 is_stmt 0
	movq	24(%rsi), %rsi
	.loc	25 63 25
	movq	%r8, -24(%rbp)
	movq	%rsi, -16(%rbp)
	.loc	25 60 9 is_stmt 1
	movq	%rdx, 16(%rdi)
	movq	%rcx, 24(%rdi)
	movq	-24(%rbp), %rcx
	movq	%rcx, (%rdi)
	movq	-16(%rbp), %rcx
	movq	%rcx, 8(%rdi)
	.loc	25 65 6
	addq	$24, %rsp
	popq	%rbp
	retq
Ltmp263:
Lfunc_end38:
	.cfi_endproc

	.p2align	4, 0x90
__ZN68_$LT$ahash..fallback_hash..AHasher$u20$as$u20$core..hash..Hasher$GT$9write_u6417hb0d8e9a00e6290d6E:
Lfunc_begin39:
	.loc	25 164 0
	.cfi_startproc
	pushq	%rbp
	.cfi_def_cfa_offset 16
	.cfi_offset %rbp, -16
	movq	%rsp, %rbp
	.cfi_def_cfa_register %rbp
	subq	$96, %rsp
	movq	%rsi, %rax
	movq	%rdi, -96(%rbp)
	movq	%rax, -88(%rbp)
	movq	%rdi, -80(%rbp)
	movq	%rax, -72(%rbp)
Ltmp264:
	.loc	25 99 50 prologue_end
	movq	16(%rdi), %rcx
	.loc	25 99 39 is_stmt 0
	xorq	%rcx, %rax
	movq	%rax, -64(%rbp)
	movabsq	$6364136223846793005, %rcx
	movq	%rcx, -56(%rbp)
	movq	%rax, -32(%rbp)
	movq	$0, -24(%rbp)
	movq	%rcx, -16(%rbp)
	movq	$0, -8(%rbp)
Ltmp265:
	.file	26 "/rustc/2c8cc343237b8f7d5a3c3703e3a87f2eb2c54a74/library/core/src/num" "uint_macros.rs"
	.loc	26 1226 13 is_stmt 1
	mulq	%rcx
Ltmp266:
	.file	27 "/Users/natalie/.cargo/registry/src/github.com-1ecc6299db9ec823/ahash-0.8.0" "src/operations.rs"
	.loc	27 15 18
	movq	%rdx, -40(%rbp)
	movq	%rax, -48(%rbp)
Ltmp267:
	.loc	27 16 5
	xorq	%rdx, %rax
Ltmp268:
	.loc	25 99 9
	movq	%rax, 16(%rdi)
Ltmp269:
	.loc	25 166 6
	addq	$96, %rsp
	popq	%rbp
	retq
Ltmp270:
Lfunc_end39:
	.cfi_endproc

	.p2align	4, 0x90
__ZN68_$LT$ahash..fallback_hash..AHasher$u20$as$u20$core..hash..Hasher$GT$11write_usize17hcc2444725075a8e4E:
Lfunc_begin40:
	.loc	25 175 0
	.cfi_startproc
	pushq	%rbp
	.cfi_def_cfa_offset 16
	.cfi_offset %rbp, -16
	movq	%rsp, %rbp
	.cfi_def_cfa_register %rbp
	subq	$16, %rsp
	movq	%rdi, -16(%rbp)
	movq	%rsi, -8(%rbp)
Ltmp271:
	.loc	25 176 9 prologue_end
	callq	__ZN68_$LT$ahash..fallback_hash..AHasher$u20$as$u20$core..hash..Hasher$GT$9write_u6417hb0d8e9a00e6290d6E
	.loc	25 177 6
	addq	$16, %rsp
	popq	%rbp
	retq
Ltmp272:
Lfunc_end40:
	.cfi_endproc

	.p2align	4, 0x90
__ZN68_$LT$ahash..fallback_hash..AHasher$u20$as$u20$core..hash..Hasher$GT$6finish17hd65e5be522ca69beE:
Lfunc_begin41:
	.loc	25 213 0
	.cfi_startproc
	pushq	%rbp
	.cfi_def_cfa_offset 16
	.cfi_offset %rbp, -16
	movq	%rsp, %rbp
	.cfi_def_cfa_register %rbp
	subq	$104, %rsp
	movq	%rdi, -104(%rbp)
Ltmp273:
	.loc	25 214 20 prologue_end
	movl	16(%rdi), %ecx
	.loc	25 214 19 is_stmt 0
	andl	$63, %ecx
	movl	%ecx, -92(%rbp)
Ltmp274:
	.loc	25 215 25 is_stmt 1
	movq	16(%rdi), %rax
	.loc	25 215 38 is_stmt 0
	movq	24(%rdi), %rdx
	movq	%rax, -64(%rbp)
	movq	%rdx, -56(%rbp)
	movq	%rax, -32(%rbp)
	movq	$0, -24(%rbp)
	movq	%rdx, -16(%rbp)
	movq	$0, -8(%rbp)
Ltmp275:
	.loc	26 1226 13 is_stmt 1
	mulq	%rdx
Ltmp276:
	.loc	27 15 18
	movq	%rdx, -40(%rbp)
	movq	%rax, -48(%rbp)
Ltmp277:
	.loc	27 16 5
	xorq	%rdx, %rax
	movq	%rax, -88(%rbp)
	movl	%ecx, -76(%rbp)
Ltmp278:
	.loc	26 217 43
	movl	%ecx, %ecx
	.loc	26 217 13 is_stmt 0
	rolq	%cl, %rax
	movq	%rax, -72(%rbp)
	movq	-72(%rbp), %rax
Ltmp279:
	.loc	25 216 6 is_stmt 1
	addq	$104, %rsp
	popq	%rbp
	retq
Ltmp280:
Lfunc_end41:
	.cfi_endproc

	.globl	__ZN5ahash12random_state19DefaultRandomSource3new17hdf0f543ecff79649E
	.p2align	4, 0x90
__ZN5ahash12random_state19DefaultRandomSource3new17hdf0f543ecff79649E:
Lfunc_begin42:
	.loc	1 128 0
	.cfi_startproc
	pushq	%rbp
	.cfi_def_cfa_offset 16
	.cfi_offset %rbp, -16
	movq	%rsp, %rbp
	.cfi_def_cfa_register %rbp
	subq	$32, %rsp
Ltmp281:
	.loc	1 130 22 prologue_end
	leaq	l___unnamed_4(%rip), %rdi
	callq	__ZN4core4sync6atomic11AtomicUsize3new17he798cd1d79e776bfE
	movq	%rax, -8(%rbp)
	movq	-8(%rbp), %rax
	movq	%rax, -16(%rbp)
	.loc	1 129 9
	movq	-16(%rbp), %rax
	movq	%rax, -24(%rbp)
	.loc	1 132 6
	movq	-24(%rbp), %rax
	addq	$32, %rsp
	popq	%rbp
	retq
Ltmp282:
Lfunc_end42:
	.cfi_endproc

	.globl	__ZN69_$LT$ahash..random_state..RandomState$u20$as$u20$core..fmt..Debug$GT$3fmt17h6b8d966707522917E
	.p2align	4, 0x90
__ZN69_$LT$ahash..random_state..RandomState$u20$as$u20$core..fmt..Debug$GT$3fmt17h6b8d966707522917E:
Lfunc_begin43:
	.loc	1 205 0
	.cfi_startproc
	pushq	%rbp
	.cfi_def_cfa_offset 16
	.cfi_offset %rbp, -16
	movq	%rsp, %rbp
	.cfi_def_cfa_register %rbp
	subq	$32, %rsp
	movq	%rsi, -24(%rbp)
	movq	%rdi, %rax
	movq	-24(%rbp), %rdi
	movq	%rax, -16(%rbp)
	movq	%rdi, -8(%rbp)
Ltmp283:
	.loc	1 206 9 prologue_end
	leaq	l___unnamed_5(%rip), %rsi
	movl	$18, %edx
	callq	__ZN4core3fmt9Formatter3pad17h322dee5343842323E
	.loc	1 207 6
	andb	$1, %al
	movzbl	%al, %eax
	addq	$32, %rsp
	popq	%rbp
	retq
Ltmp284:
Lfunc_end43:
	.cfi_endproc

	.globl	__ZN5ahash12random_state11RandomState9from_keys17h33b4b7549113ed4dE
	.p2align	4, 0x90
__ZN5ahash12random_state11RandomState9from_keys17h33b4b7549113ed4dE:
Lfunc_begin44:
	.loc	1 229 0
	.cfi_startproc
	pushq	%rbp
	.cfi_def_cfa_offset 16
	.cfi_offset %rbp, -16
	movq	%rsp, %rbp
	.cfi_def_cfa_register %rbp
	subq	$256, %rsp
	movq	%rcx, -248(%rbp)
	movq	%rdx, -240(%rbp)
	movq	%rsi, %rax
	movq	%rdi, -208(%rbp)
	movq	%rdi, -200(%rbp)
	movq	%rax, -56(%rbp)
	movq	%rdx, -48(%rbp)
	movq	%rcx, -40(%rbp)
Ltmp285:
	.loc	1 230 15 prologue_end
	movq	(%rax), %rsi
	movq	%rsi, -32(%rbp)
	.loc	1 230 19 is_stmt 0
	movq	8(%rax), %rdx
	movq	%rdx, -24(%rbp)
	.loc	1 230 23
	movq	16(%rax), %rcx
	movq	%rcx, -16(%rbp)
	.loc	1 230 27
	movq	24(%rax), %rax
	movq	%rax, -8(%rbp)
Ltmp286:
	.loc	1 231 54 is_stmt 1
	movq	%rsi, -160(%rbp)
	movq	%rdx, -152(%rbp)
	movq	%rcx, -144(%rbp)
	movq	%rax, -136(%rbp)
	.loc	1 231 26 is_stmt 0
	leaq	-192(%rbp), %rdi
	leaq	-160(%rbp), %rsi
	callq	__ZN5ahash13fallback_hash7AHasher17from_random_state17h18ce63a48e99a174E
	movq	-248(%rbp), %rsi
Ltmp287:
	.loc	1 232 9 is_stmt 1
	leaq	-192(%rbp), %rdi
	callq	__ZN68_$LT$ahash..fallback_hash..AHasher$u20$as$u20$core..hash..Hasher$GT$11write_usize17hcc2444725075a8e4E
	movq	-240(%rbp), %rdx
	.loc	1 233 19
	leaq	-192(%rbp), %rax
	movq	%rax, -128(%rbp)
Ltmp288:
	.loc	1 240 21
	movq	(%rdx), %rcx
	.loc	1 240 27 is_stmt 0
	movq	16(%rdx), %rax
	.loc	1 240 17
	movq	%rcx, -120(%rbp)
	movq	%rax, -112(%rbp)
	movq	-120(%rbp), %rsi
	movq	-112(%rbp), %rdx
	leaq	-128(%rbp), %rdi
	callq	__ZN5ahash12random_state11RandomState9from_keys28_$u7b$$u7b$closure$u7d$$u7d$17he0af8b1efb1c5125E
	movq	-240(%rbp), %rdx
	movq	%rax, -232(%rbp)
	.loc	1 241 21 is_stmt 1
	movq	8(%rdx), %rcx
	.loc	1 241 27 is_stmt 0
	movq	24(%rdx), %rax
	.loc	1 241 17
	movq	%rcx, -104(%rbp)
	movq	%rax, -96(%rbp)
	movq	-104(%rbp), %rsi
	movq	-96(%rbp), %rdx
	leaq	-128(%rbp), %rdi
	callq	__ZN5ahash12random_state11RandomState9from_keys28_$u7b$$u7b$closure$u7d$$u7d$17he0af8b1efb1c5125E
	movq	-240(%rbp), %rdx
	movq	%rax, -224(%rbp)
	.loc	1 242 21 is_stmt 1
	movq	16(%rdx), %rcx
	.loc	1 242 27 is_stmt 0
	movq	8(%rdx), %rax
	.loc	1 242 17
	movq	%rcx, -88(%rbp)
	movq	%rax, -80(%rbp)
	movq	-88(%rbp), %rsi
	movq	-80(%rbp), %rdx
	leaq	-128(%rbp), %rdi
	callq	__ZN5ahash12random_state11RandomState9from_keys28_$u7b$$u7b$closure$u7d$$u7d$17he0af8b1efb1c5125E
	movq	-240(%rbp), %rdx
	movq	%rax, -216(%rbp)
	.loc	1 243 21 is_stmt 1
	movq	24(%rdx), %rcx
	.loc	1 243 27 is_stmt 0
	movq	(%rdx), %rax
	.loc	1 243 17
	movq	%rcx, -72(%rbp)
	movq	%rax, -64(%rbp)
	movq	-72(%rbp), %rsi
	movq	-64(%rbp), %rdx
	leaq	-128(%rbp), %rdi
	callq	__ZN5ahash12random_state11RandomState9from_keys28_$u7b$$u7b$closure$u7d$$u7d$17he0af8b1efb1c5125E
	movq	-232(%rbp), %r8
	movq	-224(%rbp), %rsi
	movq	-216(%rbp), %rdx
	movq	-208(%rbp), %rdi
	movq	%rax, %rcx
	movq	-200(%rbp), %rax
	.loc	1 239 9 is_stmt 1
	movq	%r8, (%rdi)
	movq	%rsi, 8(%rdi)
	movq	%rdx, 16(%rdi)
	movq	%rcx, 24(%rdi)
Ltmp289:
	.loc	1 245 6
	addq	$256, %rsp
	popq	%rbp
	retq
Ltmp290:
Lfunc_end44:
	.cfi_endproc

	.p2align	4, 0x90
__ZN5ahash12random_state11RandomState9from_keys28_$u7b$$u7b$closure$u7d$$u7d$17he0af8b1efb1c5125E:
Lfunc_begin45:
	.loc	1 233 0
	.cfi_startproc
	pushq	%rbp
	.cfi_def_cfa_offset 16
	.cfi_offset %rbp, -16
	movq	%rsp, %rbp
	.cfi_def_cfa_register %rbp
	subq	$80, %rsp
	movq	%rsi, -72(%rbp)
	movq	%rdx, -64(%rbp)
	movq	%rdi, -24(%rbp)
	movq	%rsi, -16(%rbp)
	movq	%rdx, -8(%rbp)
Ltmp291:
	.loc	1 234 25 prologue_end
	movq	(%rdi), %rsi
	leaq	-56(%rbp), %rdi
	callq	__ZN68_$LT$ahash..fallback_hash..AHasher$u20$as$u20$core..clone..Clone$GT$5clone17hc2ba91a457092a67E
	movq	-72(%rbp), %rsi
Ltmp292:
	.loc	1 235 13
	leaq	-56(%rbp), %rdi
	callq	__ZN68_$LT$ahash..fallback_hash..AHasher$u20$as$u20$core..hash..Hasher$GT$9write_u6417hb0d8e9a00e6290d6E
	movq	-64(%rbp), %rsi
	.loc	1 236 13
	leaq	-56(%rbp), %rdi
	callq	__ZN68_$LT$ahash..fallback_hash..AHasher$u20$as$u20$core..hash..Hasher$GT$9write_u6417hb0d8e9a00e6290d6E
	.loc	1 237 13
	leaq	-56(%rbp), %rdi
	callq	__ZN68_$LT$ahash..fallback_hash..AHasher$u20$as$u20$core..hash..Hasher$GT$6finish17hd65e5be522ca69beE
Ltmp293:
	.loc	1 238 10
	addq	$80, %rsp
	popq	%rbp
	retq
Ltmp294:
Lfunc_end45:
	.cfi_endproc

	.globl	__ZN66_$LT$ahash..fallback_hash..AHasher$u20$as$u20$core..fmt..Debug$GT$3fmt17h2bdf425c18ab53a6E
	.p2align	4, 0x90
__ZN66_$LT$ahash..fallback_hash..AHasher$u20$as$u20$core..fmt..Debug$GT$3fmt17h2bdf425c18ab53a6E:
Lfunc_begin46:
	.loc	25 24 0
	.cfi_startproc
	pushq	%rbp
	.cfi_def_cfa_offset 16
	.cfi_offset %rbp, -16
	movq	%rsp, %rbp
	.cfi_def_cfa_register %rbp
	pushq	%r15
	pushq	%r14
	pushq	%rbx
	subq	$120, %rsp
	.cfi_offset %rbx, -40
	.cfi_offset %r14, -32
	.cfi_offset %r15, -24
	movq	%rsi, -72(%rbp)
	movq	%rdi, %rax
	movq	-72(%rbp), %rdi
	movq	%rax, -40(%rbp)
	movq	%rdi, -32(%rbp)
Ltmp295:
	.loc	25 26 5 prologue_end
	movq	%rax, %rcx
	addq	$16, %rcx
	movq	%rcx, -64(%rbp)
	.loc	25 27 5
	movq	%rax, %rcx
	addq	$24, %rcx
	movq	%rcx, -56(%rbp)
	.loc	25 28 5
	movq	%rax, -48(%rbp)
	.loc	25 24 10
	leaq	l___unnamed_6(%rip), %rsi
	movl	$7, %edx
	leaq	l___unnamed_7(%rip), %rcx
	movl	$6, %r8d
	leaq	-64(%rbp), %r9
	leaq	l___unnamed_1(%rip), %rbx
	leaq	l___unnamed_8(%rip), %r15
	leaq	-56(%rbp), %r14
	leaq	l___unnamed_9(%rip), %r11
	leaq	-48(%rbp), %r10
	leaq	l___unnamed_2(%rip), %rax
	movq	%rbx, (%rsp)
	movq	%r15, 8(%rsp)
	movq	$3, 16(%rsp)
	movq	%r14, 24(%rsp)
	movq	%rbx, 32(%rsp)
	movq	%r11, 40(%rsp)
	movq	$10, 48(%rsp)
	movq	%r10, 56(%rsp)
	movq	%rax, 64(%rsp)
	callq	__ZN4core3fmt9Formatter26debug_struct_field3_finish17hf5caeae338c1d93dE
	.loc	25 24 15 is_stmt 0
	andb	$1, %al
	movzbl	%al, %eax
	addq	$120, %rsp
	popq	%rbx
	popq	%r14
	popq	%r15
	popq	%rbp
	retq
Ltmp296:
Lfunc_end46:
	.cfi_endproc

	.p2align	4, 0x90
__ZN68_$LT$ahash..fallback_hash..AHasher$u20$as$u20$core..clone..Clone$GT$5clone17hc2ba91a457092a67E:
Lfunc_begin47:
	.loc	25 24 0 is_stmt 1
	.cfi_startproc
	pushq	%rbp
	.cfi_def_cfa_offset 16
	.cfi_offset %rbp, -16
	movq	%rsp, %rbp
	.cfi_def_cfa_register %rbp
	subq	$24, %rsp
	movq	%rdi, %rax
	movq	%rsi, -8(%rbp)
Ltmp297:
	.loc	25 26 5 prologue_end
	movq	16(%rsi), %rdx
	.loc	25 27 5
	movq	24(%rsi), %rcx
	.loc	25 28 5
	movq	(%rsi), %r8
	movq	%r8, -24(%rbp)
	movq	8(%rsi), %rsi
	movq	%rsi, -16(%rbp)
	.loc	25 24 17
	movq	%rdx, 16(%rdi)
	movq	%rcx, 24(%rdi)
	movq	-24(%rbp), %rcx
	movq	%rcx, (%rdi)
	movq	-16(%rbp), %rcx
	movq	%rcx, 8(%rdi)
	.loc	25 24 22 is_stmt 0
	addq	$24, %rsp
	popq	%rbp
	retq
Ltmp298:
Lfunc_end47:
	.cfi_endproc

	.globl	__ZN94_$LT$ahash..random_state..DefaultRandomSource$u20$as$u20$ahash..random_state..RandomSource$GT$15gen_hasher_seed17hb41960c34ab792c9E
	.p2align	4, 0x90
__ZN94_$LT$ahash..random_state..DefaultRandomSource$u20$as$u20$ahash..random_state..RandomSource$GT$15gen_hasher_seed17hb41960c34ab792c9E:
Lfunc_begin48:
	.loc	1 153 0 is_stmt 1
	.cfi_startproc
	pushq	%rbp
	.cfi_def_cfa_offset 16
	.cfi_offset %rbp, -16
	movq	%rsp, %rbp
	.cfi_def_cfa_register %rbp
	subq	$32, %rsp
	movq	%rdi, %rsi
	movq	%rsi, -16(%rbp)
Ltmp299:
	.loc	1 154 29 prologue_end
	movq	%rsi, -8(%rbp)
Ltmp300:
	.loc	1 155 47
	movb	$0, -17(%rbp)
	.loc	1 155 17 is_stmt 0
	movq	%rsi, %rdi
	movzbl	-17(%rbp), %edx
	callq	__ZN4core4sync6atomic11AtomicUsize9fetch_add17hc4c99f991bb2248cE
Ltmp301:
	.loc	1 156 14 is_stmt 1
	addq	$32, %rsp
	popq	%rbp
	retq
Ltmp302:
Lfunc_end48:
	.cfi_endproc

	.section	__DATA,__const
	.p2align	3
l___unnamed_1:
	.quad	__ZN4core3ptr28drop_in_place$LT$$RF$u64$GT$17h942c03422a694918E
	.asciz	"\b\000\000\000\000\000\000\000\b\000\000\000\000\000\000"
	.quad	__ZN42_$LT$$RF$T$u20$as$u20$core..fmt..Debug$GT$3fmt17hd4aca703ea3274d1E

	.section	__TEXT,__const
l___unnamed_10:
	.ascii	"/rustc/2c8cc343237b8f7d5a3c3703e3a87f2eb2c54a74/library/core/src/array/mod.rs"

	.section	__DATA,__const
	.p2align	3
l___unnamed_3:
	.quad	l___unnamed_10
	.asciz	"M\000\000\000\000\000\000\000D\001\000\000\033\000\000"

	.section	__TEXT,__const
	.p2align	3
l___unnamed_4:
	.ascii	"\323\b\243\205\210j?$Dsp\003.\212\031\023\3201\237)\"8\t\244\211lN\354\230\372.\b"

l___unnamed_5:
	.ascii	"RandomState { .. }"

l___unnamed_6:
	.ascii	"AHasher"

l___unnamed_7:
	.ascii	"buffer"

l___unnamed_8:
	.ascii	"pad"

l___unnamed_9:
	.ascii	"extra_keys"

	.section	__DATA,__const
	.p2align	3
l___unnamed_2:
	.quad	__ZN4core3ptr49drop_in_place$LT$$RF$$u5b$u64$u3b$$u20$2$u5d$$GT$17h1270a2da945cc1f0E
	.asciz	"\b\000\000\000\000\000\000\000\b\000\000\000\000\000\000"
	.quad	__ZN42_$LT$$RF$T$u20$as$u20$core..fmt..Debug$GT$3fmt17h7211f2628619f5afE

	.globl	__ZN5ahash12random_state15get_fixed_seeds5SEEDS17ha09cc0e4fc783566E
.zerofill __DATA,__common,__ZN5ahash12random_state15get_fixed_seeds5SEEDS17ha09cc0e4fc783566E,8,3
	.globl	__ZN5ahash12random_state11RAND_SOURCE17h02de07b6b37b3354E
.zerofill __DATA,__common,__ZN5ahash12random_state11RAND_SOURCE17h02de07b6b37b3354E,8,3
	.section	__DATA,__const
Lsec_end0:
	.section	__DATA,__common,zerofill
Lsec_end1:
	.section	__TEXT,__text,regular,pure_instructions
Lsec_end2: