	.section	__TEXT,__text,regular,pure_instructions
	.macosx_version_min 10, 7
	.file	1 "/Users/natalie/.cargo/registry/src/github.com-1ecc6299db9ec823/objc-0.2.7/src" "macros.rs"
	.globl	__ZN101_$LT$objc_foundation..array..NSArray$LT$T$C$O$GT$$u20$as$u20$core..ops..index..Index$LT$usize$GT$$GT$5index17h6e5b049871b8d059E
	.p2align	4, 0x90
__ZN101_$LT$objc_foundation..array..NSArray$LT$T$C$O$GT$$u20$as$u20$core..ops..index..Index$LT$usize$GT$$GT$5index17h6e5b049871b8d059E:
Lfunc_begin0:
	.file	2 "/Users/natalie/.cargo/registry/src/github.com-1ecc6299db9ec823/objc-foundation-0.1.1/src" "array.rs"
	.loc	2 194 0
	.cfi_startproc
	pushq	%rbp
	.cfi_def_cfa_offset 16
	.cfi_offset %rbp, -16
	movq	%rsp, %rbp
	.cfi_def_cfa_register %rbp
	subq	$16, %rsp
	movq	%rdi, -16(%rbp)
	movq	%rsi, -8(%rbp)
Ltmp0:
	.loc	2 195 9 prologue_end
	callq	__ZN15objc_foundation5array8INSArray9object_at17h39ab321293e30c23E
	.loc	2 196 6
	addq	$16, %rsp
	popq	%rbp
	retq
Ltmp1:
Lfunc_end0:
	.cfi_endproc

	.globl	__ZN102_$LT$core..iter..adapters..map..Map$LT$I$C$F$GT$$u20$as$u20$core..iter..traits..iterator..Iterator$GT$4fold17h16a01008daca04a5E
	.p2align	4, 0x90
__ZN102_$LT$core..iter..adapters..map..Map$LT$I$C$F$GT$$u20$as$u20$core..iter..traits..iterator..Iterator$GT$4fold17h16a01008daca04a5E:
Lfunc_begin1:
	.file	3 "/rustc/2c8cc343237b8f7d5a3c3703e3a87f2eb2c54a74/library/core/src/iter/adapters" "map.rs"
	.loc	3 120 0
	.cfi_startproc
	.cfi_personality 155, _rust_eh_personality
	.cfi_lsda 16, Lexception0
	pushq	%rbp
	.cfi_def_cfa_offset 16
	.cfi_offset %rbp, -16
	movq	%rsp, %rbp
	.cfi_def_cfa_register %rbp
	subq	$112, %rsp
	movq	%rdi, -112(%rbp)
	movq	%rsi, -104(%rbp)
Ltmp7:
	movq	%rdi, -40(%rbp)
	movq	%rsi, -32(%rbp)
Ltmp8:
	.loc	3 124 9 prologue_end
	movb	$1, -41(%rbp)
	.loc	3 124 24 is_stmt 0
	movb	$1, -42(%rbp)
	.loc	3 124 47
	movq	16(%rdx), %rax
	movq	%rax, -56(%rbp)
	movq	(%rdx), %rax
	movq	8(%rdx), %rcx
	movq	%rcx, -64(%rbp)
	movq	%rax, -72(%rbp)
Ltmp2:
	leaq	-96(%rbp), %rdi
	leaq	-72(%rbp), %rsi
	.loc	3 124 30
	callq	__ZN4core4iter8adapters3map8map_fold17hf779f9746dc4fb82E
Ltmp9:
Ltmp3:
	jmp	LBB1_3
Ltmp10:
LBB1_1:
	.loc	3 124 49
	testb	$1, -42(%rbp)
	jne	LBB1_6
	jmp	LBB1_5
Ltmp11:
LBB1_2:
Ltmp6:
	.loc	3 0 49
	movq	%rax, %rcx
	movl	%edx, %eax
	movq	%rcx, -16(%rbp)
	movl	%eax, -8(%rbp)
	jmp	LBB1_1
Ltmp12:
LBB1_3:
	movq	-104(%rbp), %rsi
	movq	-112(%rbp), %rdi
	.loc	3 124 9
	movb	$0, -41(%rbp)
	movb	$0, -42(%rbp)
Ltmp4:
	leaq	-96(%rbp), %rdx
	callq	__ZN4core4iter6traits8iterator8Iterator4fold17ha99a1667ef020e28E
Ltmp5:
	jmp	LBB1_4
Ltmp13:
LBB1_4:
	.loc	3 125 6 is_stmt 1
	addq	$112, %rsp
	popq	%rbp
	retq
Ltmp14:
LBB1_5:
	.loc	3 124 49
	testb	$1, -41(%rbp)
	jne	LBB1_8
	jmp	LBB1_7
Ltmp15:
LBB1_6:
	jmp	LBB1_5
Ltmp16:
LBB1_7:
	.loc	3 120 5
	movq	-16(%rbp), %rdi
	callq	__Unwind_Resume
Ltmp17:
LBB1_8:
	.loc	3 124 49
	jmp	LBB1_7
Ltmp18:
Lfunc_end1:
	.cfi_endproc
	.section	__TEXT,__gcc_except_tab
	.p2align	2
GCC_except_table1:
Lexception0:
	.byte	255
	.byte	255
	.byte	1
	.uleb128 Lcst_end0-Lcst_begin0
Lcst_begin0:
	.uleb128 Ltmp2-Lfunc_begin1
	.uleb128 Ltmp5-Ltmp2
	.uleb128 Ltmp6-Lfunc_begin1
	.byte	0
	.uleb128 Ltmp5-Lfunc_begin1
	.uleb128 Lfunc_end1-Ltmp5
	.byte	0
	.byte	0
Lcst_end0:
	.p2align	2

	.section	__TEXT,__text,regular,pure_instructions
	.globl	__ZN102_$LT$core..iter..adapters..map..Map$LT$I$C$F$GT$$u20$as$u20$core..iter..traits..iterator..Iterator$GT$4fold17hb26ab701798e481dE
	.p2align	4, 0x90
__ZN102_$LT$core..iter..adapters..map..Map$LT$I$C$F$GT$$u20$as$u20$core..iter..traits..iterator..Iterator$GT$4fold17hb26ab701798e481dE:
Lfunc_begin2:
	.loc	3 120 0
	.cfi_startproc
	.cfi_personality 155, _rust_eh_personality
	.cfi_lsda 16, Lexception1
	pushq	%rbp
	.cfi_def_cfa_offset 16
	.cfi_offset %rbp, -16
	movq	%rsp, %rbp
	.cfi_def_cfa_register %rbp
	subq	$112, %rsp
	movq	%rdi, -112(%rbp)
	movq	%rsi, -104(%rbp)
Ltmp24:
	movq	%rdi, -40(%rbp)
	movq	%rsi, -32(%rbp)
Ltmp25:
	.loc	3 124 9 prologue_end
	movb	$1, -41(%rbp)
	.loc	3 124 24 is_stmt 0
	movb	$1, -42(%rbp)
	.loc	3 124 47
	movq	16(%rdx), %rax
	movq	%rax, -56(%rbp)
	movq	(%rdx), %rax
	movq	8(%rdx), %rcx
	movq	%rcx, -64(%rbp)
	movq	%rax, -72(%rbp)
Ltmp19:
	leaq	-96(%rbp), %rdi
	leaq	-72(%rbp), %rsi
	.loc	3 124 30
	callq	__ZN4core4iter8adapters3map8map_fold17h0b522cf5a8dbed02E
Ltmp26:
Ltmp20:
	jmp	LBB2_3
Ltmp27:
LBB2_1:
	.loc	3 124 49
	testb	$1, -42(%rbp)
	jne	LBB2_6
	jmp	LBB2_5
Ltmp28:
LBB2_2:
Ltmp23:
	.loc	3 0 49
	movq	%rax, %rcx
	movl	%edx, %eax
	movq	%rcx, -16(%rbp)
	movl	%eax, -8(%rbp)
	jmp	LBB2_1
Ltmp29:
LBB2_3:
	movq	-104(%rbp), %rsi
	movq	-112(%rbp), %rdi
	.loc	3 124 9
	movb	$0, -41(%rbp)
	movb	$0, -42(%rbp)
Ltmp21:
	leaq	-96(%rbp), %rdx
	callq	__ZN4core4iter6traits8iterator8Iterator4fold17h94990763e6208d69E
Ltmp22:
	jmp	LBB2_4
Ltmp30:
LBB2_4:
	.loc	3 125 6 is_stmt 1
	addq	$112, %rsp
	popq	%rbp
	retq
Ltmp31:
LBB2_5:
	.loc	3 124 49
	testb	$1, -41(%rbp)
	jne	LBB2_8
	jmp	LBB2_7
Ltmp32:
LBB2_6:
	jmp	LBB2_5
Ltmp33:
LBB2_7:
	.loc	3 120 5
	movq	-16(%rbp), %rdi
	callq	__Unwind_Resume
Ltmp34:
LBB2_8:
	.loc	3 124 49
	jmp	LBB2_7
Ltmp35:
Lfunc_end2:
	.cfi_endproc
	.section	__TEXT,__gcc_except_tab
	.p2align	2
GCC_except_table2:
Lexception1:
	.byte	255
	.byte	255
	.byte	1
	.uleb128 Lcst_end1-Lcst_begin1
Lcst_begin1:
	.uleb128 Ltmp19-Lfunc_begin2
	.uleb128 Ltmp22-Ltmp19
	.uleb128 Ltmp23-Lfunc_begin2
	.byte	0
	.uleb128 Ltmp22-Lfunc_begin2
	.uleb128 Lfunc_end2-Ltmp22
	.byte	0
	.byte	0
Lcst_end1:
	.p2align	2

	.section	__TEXT,__text,regular,pure_instructions
	.globl	__ZN102_$LT$core..iter..adapters..map..Map$LT$I$C$F$GT$$u20$as$u20$core..iter..traits..iterator..Iterator$GT$9size_hint17h1854c3216a31cce4E
	.p2align	4, 0x90
__ZN102_$LT$core..iter..adapters..map..Map$LT$I$C$F$GT$$u20$as$u20$core..iter..traits..iterator..Iterator$GT$9size_hint17h1854c3216a31cce4E:
Lfunc_begin3:
	.loc	3 107 0
	.cfi_startproc
	pushq	%rbp
	.cfi_def_cfa_offset 16
	.cfi_offset %rbp, -16
	movq	%rsp, %rbp
	.cfi_def_cfa_register %rbp
	subq	$16, %rsp
	movq	%rdi, %rax
	movq	%rax, -16(%rbp)
	movq	%rsi, -8(%rbp)
Ltmp36:
	.loc	3 108 9 prologue_end
	callq	__ZN91_$LT$core..slice..iter..Iter$LT$T$GT$$u20$as$u20$core..iter..traits..iterator..Iterator$GT$9size_hint17h0bf186d631c77b3fE
	movq	-16(%rbp), %rax
	.loc	3 109 6
	addq	$16, %rsp
	popq	%rbp
	retq
Ltmp37:
Lfunc_end3:
	.cfi_endproc

	.globl	__ZN102_$LT$core..iter..adapters..map..Map$LT$I$C$F$GT$$u20$as$u20$core..iter..traits..iterator..Iterator$GT$9size_hint17h83e0d42392ba8a3dE
	.p2align	4, 0x90
__ZN102_$LT$core..iter..adapters..map..Map$LT$I$C$F$GT$$u20$as$u20$core..iter..traits..iterator..Iterator$GT$9size_hint17h83e0d42392ba8a3dE:
Lfunc_begin4:
	.loc	3 107 0
	.cfi_startproc
	pushq	%rbp
	.cfi_def_cfa_offset 16
	.cfi_offset %rbp, -16
	movq	%rsp, %rbp
	.cfi_def_cfa_register %rbp
	subq	$16, %rsp
	movq	%rdi, %rax
	movq	%rax, -16(%rbp)
	movq	%rsi, -8(%rbp)
Ltmp38:
	.loc	3 108 9 prologue_end
	callq	__ZN91_$LT$core..slice..iter..Iter$LT$T$GT$$u20$as$u20$core..iter..traits..iterator..Iterator$GT$9size_hint17h30f4092ed64ecce7E
	movq	-16(%rbp), %rax
	.loc	3 109 6
	addq	$16, %rsp
	popq	%rbp
	retq
Ltmp39:
Lfunc_end4:
	.cfi_endproc

	.globl	__ZN109_$LT$objc_foundation..dictionary..NSDictionary$LT$K$C$V$GT$$u20$as$u20$objc_foundation..object..INSObject$GT$5class17h5fac3c7593ed3cd7E
	.p2align	4, 0x90
__ZN109_$LT$objc_foundation..dictionary..NSDictionary$LT$K$C$V$GT$$u20$as$u20$objc_foundation..object..INSObject$GT$5class17h5fac3c7593ed3cd7E:
Lfunc_begin5:
	.file	4 "/Users/natalie/.cargo/registry/src/github.com-1ecc6299db9ec823/objc-foundation-0.1.1/src" "dictionary.rs"
	.loc	4 124 0
	.cfi_startproc
	pushq	%rbp
	.cfi_def_cfa_offset 16
	.cfi_offset %rbp, -16
	movq	%rsp, %rbp
	.cfi_def_cfa_register %rbp
Ltmp40:
	.loc	4 125 9 prologue_end
	leaq	l___unnamed_1(%rip), %rdi
	movl	$12, %esi
	callq	__ZN4objc7runtime5Class3get17h3f3e693432a1e7ffE
	movq	%rax, %rdi
	leaq	l___unnamed_2(%rip), %rsi
	callq	__ZN4core6option15Option$LT$T$GT$6unwrap17hedb164e9f8e5cfc6E
	.loc	4 126 6
	popq	%rbp
	retq
Ltmp41:
Lfunc_end5:
	.cfi_endproc

	.globl	__ZN111_$LT$alloc..vec..Vec$LT$T$GT$$u20$as$u20$alloc..vec..spec_from_iter_nested..SpecFromIterNested$LT$T$C$I$GT$$GT$9from_iter17h4d87a1fe8e9fdaebE
	.p2align	4, 0x90
__ZN111_$LT$alloc..vec..Vec$LT$T$GT$$u20$as$u20$alloc..vec..spec_from_iter_nested..SpecFromIterNested$LT$T$C$I$GT$$GT$9from_iter17h4d87a1fe8e9fdaebE:
Lfunc_begin6:
	.file	5 "/rustc/2c8cc343237b8f7d5a3c3703e3a87f2eb2c54a74/library/alloc/src/vec" "spec_from_iter_nested.rs"
	.loc	5 52 0
	.cfi_startproc
	.cfi_personality 155, _rust_eh_personality
	.cfi_lsda 16, Lexception2
	pushq	%rbp
	.cfi_def_cfa_offset 16
	.cfi_offset %rbp, -16
	movq	%rsp, %rbp
	.cfi_def_cfa_register %rbp
	subq	$192, %rsp
	movq	%rdi, -176(%rbp)
	movq	%rdi, -168(%rbp)
	movq	%rsi, -160(%rbp)
	movq	%rdx, -152(%rbp)
Ltmp57:
	.loc	5 53 13 prologue_end
	movb	$1, -66(%rbp)
Ltmp42:
	leaq	-144(%rbp), %rdi
	leaq	-160(%rbp), %rsi
	.loc	5 53 32 is_stmt 0
	callq	__ZN102_$LT$core..iter..adapters..map..Map$LT$I$C$F$GT$$u20$as$u20$core..iter..traits..iterator..Iterator$GT$9size_hint17h1854c3216a31cce4E
Ltmp43:
	jmp	LBB6_3
LBB6_1:
	.loc	5 64 5 is_stmt 1
	testb	$1, -66(%rbp)
	jne	LBB6_14
	jmp	LBB6_13
LBB6_2:
Ltmp50:
	.loc	5 0 5 is_stmt 0
	movq	%rax, %rcx
	movl	%edx, %eax
	movq	%rcx, -48(%rbp)
	movl	%eax, -40(%rbp)
	jmp	LBB6_1
LBB6_3:
	.loc	5 53 26 is_stmt 1
	cmpq	$1, -136(%rbp)
	jne	LBB6_5
	.loc	5 54 22
	movq	-128(%rbp), %rdi
	movq	%rdi, -32(%rbp)
Ltmp58:
	.loc	5 54 52 is_stmt 0
	movq	%rdi, -24(%rbp)
Ltmp59:
	.file	6 "/rustc/2c8cc343237b8f7d5a3c3703e3a87f2eb2c54a74/library/alloc/src/vec" "mod.rs"
	.loc	6 483 32 is_stmt 1
	movq	%rdi, -16(%rbp)
Ltmp60:
	.loc	6 676 45
	movq	%rdi, -8(%rbp)
Ltmp61:
	.file	7 "/rustc/2c8cc343237b8f7d5a3c3703e3a87f2eb2c54a74/library/alloc/src" "raw_vec.rs"
	.loc	7 131 37
	movb	$0, -65(%rbp)
	.loc	7 131 9 is_stmt 0
	movzbl	-65(%rbp), %esi
Ltmp48:
	callq	__ZN5alloc7raw_vec19RawVec$LT$T$C$A$GT$11allocate_in17h0987f78d380444a8E
Ltmp49:
	movq	%rdx, -192(%rbp)
	movq	%rax, -184(%rbp)
	jmp	LBB6_8
Ltmp62:
LBB6_5:
Ltmp44:
	.loc	5 59 18 is_stmt 1
	leaq	l___unnamed_3(%rip), %rsi
	leaq	l___unnamed_4(%rip), %rcx
	xorl	%eax, %eax
	movl	%eax, %r8d
	leaq	-120(%rbp), %rdi
	movl	$1, %edx
	callq	__ZN4core3fmt9Arguments6new_v117hf41603d116161827E
Ltmp45:
	jmp	LBB6_6
LBB6_6:
Ltmp46:
	leaq	l___unnamed_5(%rip), %rsi
	leaq	-120(%rbp), %rdi
	callq	__ZN4core9panicking9panic_fmt17h9b5d807e24bcaaedE
Ltmp47:
	jmp	LBB6_7
LBB6_7:
	.loc	5 0 18 is_stmt 0
	ud2
LBB6_8:
	movq	-176(%rbp), %rdi
	movq	-192(%rbp), %rax
	movq	-184(%rbp), %rcx
Ltmp63:
	.loc	6 676 9 is_stmt 1
	movq	%rcx, (%rdi)
	movq	%rax, 8(%rdi)
	movq	$0, 16(%rdi)
Ltmp64:
	.loc	5 62 28
	movb	$0, -66(%rbp)
	movq	-160(%rbp), %rsi
	movq	-152(%rbp), %rdx
Ltmp51:
	.loc	5 62 9 is_stmt 0
	callq	__ZN97_$LT$alloc..vec..Vec$LT$T$C$A$GT$$u20$as$u20$alloc..vec..spec_extend..SpecExtend$LT$T$C$I$GT$$GT$11spec_extend17he746d2af24280a89E
Ltmp52:
	jmp	LBB6_11
Ltmp65:
LBB6_9:
Ltmp54:
	.loc	5 0 9
	movq	-176(%rbp), %rdi
	.loc	5 64 5 is_stmt 1
	callq	__ZN4core3ptr81drop_in_place$LT$alloc..vec..Vec$LT$$RF$objc_foundation..string..NSString$GT$$GT$17hc4315068ee46261eE
Ltmp55:
	jmp	LBB6_1
LBB6_10:
Ltmp53:
	.loc	5 0 5 is_stmt 0
	movq	%rax, %rcx
	movl	%edx, %eax
	movq	%rcx, -48(%rbp)
	movl	%eax, -40(%rbp)
	jmp	LBB6_9
LBB6_11:
	movq	-168(%rbp), %rax
	.loc	5 64 6
	addq	$192, %rsp
	popq	%rbp
	retq
LBB6_12:
Ltmp56:
	.loc	5 52 5 is_stmt 1
	callq	__ZN4core9panicking19panic_cannot_unwind17h1fbca7e1d7f56ae1E
LBB6_13:
	movq	-48(%rbp), %rdi
	callq	__Unwind_Resume
LBB6_14:
	.loc	5 64 5
	jmp	LBB6_13
Ltmp66:
Lfunc_end6:
	.cfi_endproc
	.section	__TEXT,__gcc_except_tab
	.p2align	2
GCC_except_table6:
Lexception2:
	.byte	255
	.byte	255
	.byte	1
	.uleb128 Lcst_end2-Lcst_begin2
Lcst_begin2:
	.uleb128 Ltmp42-Lfunc_begin6
	.uleb128 Ltmp47-Ltmp42
	.uleb128 Ltmp50-Lfunc_begin6
	.byte	0
	.uleb128 Ltmp51-Lfunc_begin6
	.uleb128 Ltmp52-Ltmp51
	.uleb128 Ltmp53-Lfunc_begin6
	.byte	0
	.uleb128 Ltmp54-Lfunc_begin6
	.uleb128 Ltmp55-Ltmp54
	.uleb128 Ltmp56-Lfunc_begin6
	.byte	0
	.uleb128 Ltmp55-Lfunc_begin6
	.uleb128 Lfunc_end6-Ltmp55
	.byte	0
	.byte	0
Lcst_end2:
	.p2align	2

	.section	__TEXT,__text,regular,pure_instructions
	.globl	__ZN111_$LT$alloc..vec..Vec$LT$T$GT$$u20$as$u20$alloc..vec..spec_from_iter_nested..SpecFromIterNested$LT$T$C$I$GT$$GT$9from_iter17h6645853eccd8fdf3E
	.p2align	4, 0x90
__ZN111_$LT$alloc..vec..Vec$LT$T$GT$$u20$as$u20$alloc..vec..spec_from_iter_nested..SpecFromIterNested$LT$T$C$I$GT$$GT$9from_iter17h6645853eccd8fdf3E:
Lfunc_begin7:
	.loc	5 52 0
	.cfi_startproc
	.cfi_personality 155, _rust_eh_personality
	.cfi_lsda 16, Lexception3
	pushq	%rbp
	.cfi_def_cfa_offset 16
	.cfi_offset %rbp, -16
	movq	%rsp, %rbp
	.cfi_def_cfa_register %rbp
	subq	$192, %rsp
	movq	%rdi, -176(%rbp)
	movq	%rdi, -168(%rbp)
	movq	%rsi, -160(%rbp)
	movq	%rdx, -152(%rbp)
Ltmp82:
	.loc	5 53 13 prologue_end
	movb	$1, -66(%rbp)
Ltmp67:
	leaq	-144(%rbp), %rdi
	leaq	-160(%rbp), %rsi
	.loc	5 53 32 is_stmt 0
	callq	__ZN102_$LT$core..iter..adapters..map..Map$LT$I$C$F$GT$$u20$as$u20$core..iter..traits..iterator..Iterator$GT$9size_hint17h83e0d42392ba8a3dE
Ltmp68:
	jmp	LBB7_3
LBB7_1:
	.loc	5 64 5 is_stmt 1
	testb	$1, -66(%rbp)
	jne	LBB7_14
	jmp	LBB7_13
LBB7_2:
Ltmp75:
	.loc	5 0 5 is_stmt 0
	movq	%rax, %rcx
	movl	%edx, %eax
	movq	%rcx, -48(%rbp)
	movl	%eax, -40(%rbp)
	jmp	LBB7_1
LBB7_3:
	.loc	5 53 26 is_stmt 1
	cmpq	$1, -136(%rbp)
	jne	LBB7_5
	.loc	5 54 22
	movq	-128(%rbp), %rdi
	movq	%rdi, -32(%rbp)
Ltmp83:
	.loc	5 54 52 is_stmt 0
	movq	%rdi, -24(%rbp)
Ltmp84:
	.loc	6 483 32 is_stmt 1
	movq	%rdi, -16(%rbp)
Ltmp85:
	.loc	6 676 45
	movq	%rdi, -8(%rbp)
Ltmp86:
	.loc	7 131 37
	movb	$0, -65(%rbp)
	.loc	7 131 9 is_stmt 0
	movzbl	-65(%rbp), %esi
Ltmp73:
	callq	__ZN5alloc7raw_vec19RawVec$LT$T$C$A$GT$11allocate_in17h37199bc1378698f8E
Ltmp74:
	movq	%rdx, -192(%rbp)
	movq	%rax, -184(%rbp)
	jmp	LBB7_8
Ltmp87:
LBB7_5:
Ltmp69:
	.loc	5 59 18 is_stmt 1
	leaq	l___unnamed_3(%rip), %rsi
	leaq	l___unnamed_4(%rip), %rcx
	xorl	%eax, %eax
	movl	%eax, %r8d
	leaq	-120(%rbp), %rdi
	movl	$1, %edx
	callq	__ZN4core3fmt9Arguments6new_v117hf41603d116161827E
Ltmp70:
	jmp	LBB7_6
LBB7_6:
Ltmp71:
	leaq	l___unnamed_5(%rip), %rsi
	leaq	-120(%rbp), %rdi
	callq	__ZN4core9panicking9panic_fmt17h9b5d807e24bcaaedE
Ltmp72:
	jmp	LBB7_7
LBB7_7:
	.loc	5 0 18 is_stmt 0
	ud2
LBB7_8:
	movq	-176(%rbp), %rdi
	movq	-192(%rbp), %rax
	movq	-184(%rbp), %rcx
Ltmp88:
	.loc	6 676 9 is_stmt 1
	movq	%rcx, (%rdi)
	movq	%rax, 8(%rdi)
	movq	$0, 16(%rdi)
Ltmp89:
	.loc	5 62 28
	movb	$0, -66(%rbp)
	movq	-160(%rbp), %rsi
	movq	-152(%rbp), %rdx
Ltmp76:
	.loc	5 62 9 is_stmt 0
	callq	__ZN97_$LT$alloc..vec..Vec$LT$T$C$A$GT$$u20$as$u20$alloc..vec..spec_extend..SpecExtend$LT$T$C$I$GT$$GT$11spec_extend17h87beea07250b5ec1E
Ltmp77:
	jmp	LBB7_11
Ltmp90:
LBB7_9:
Ltmp79:
	.loc	5 0 9
	movq	-176(%rbp), %rdi
	.loc	5 64 5 is_stmt 1
	callq	__ZN4core3ptr81drop_in_place$LT$alloc..vec..Vec$LT$$RF$objc_foundation..object..NSObject$GT$$GT$17h407f56fc980aa313E
Ltmp80:
	jmp	LBB7_1
LBB7_10:
Ltmp78:
	.loc	5 0 5 is_stmt 0
	movq	%rax, %rcx
	movl	%edx, %eax
	movq	%rcx, -48(%rbp)
	movl	%eax, -40(%rbp)
	jmp	LBB7_9
LBB7_11:
	movq	-168(%rbp), %rax
	.loc	5 64 6
	addq	$192, %rsp
	popq	%rbp
	retq
LBB7_12:
Ltmp81:
	.loc	5 52 5 is_stmt 1
	callq	__ZN4core9panicking19panic_cannot_unwind17h1fbca7e1d7f56ae1E
LBB7_13:
	movq	-48(%rbp), %rdi
	callq	__Unwind_Resume
LBB7_14:
	.loc	5 64 5
	jmp	LBB7_13
Ltmp91:
Lfunc_end7:
	.cfi_endproc
	.section	__TEXT,__gcc_except_tab
	.p2align	2
GCC_except_table7:
Lexception3:
	.byte	255
	.byte	255
	.byte	1
	.uleb128 Lcst_end3-Lcst_begin3
Lcst_begin3:
	.uleb128 Ltmp67-Lfunc_begin7
	.uleb128 Ltmp72-Ltmp67
	.uleb128 Ltmp75-Lfunc_begin7
	.byte	0
	.uleb128 Ltmp76-Lfunc_begin7
	.uleb128 Ltmp77-Ltmp76
	.uleb128 Ltmp78-Lfunc_begin7
	.byte	0
	.uleb128 Ltmp79-Lfunc_begin7
	.uleb128 Ltmp80-Ltmp79
	.uleb128 Ltmp81-Lfunc_begin7
	.byte	0
	.uleb128 Ltmp80-Lfunc_begin7
	.uleb128 Lfunc_end7-Ltmp80
	.byte	0
	.byte	0
Lcst_end3:
	.p2align	2

	.section	__TEXT,__text,regular,pure_instructions
	.globl	__ZN153_$LT$core..result..Result$LT$T$C$F$GT$$u20$as$u20$core..ops..try_trait..FromResidual$LT$core..result..Result$LT$core..convert..Infallible$C$E$GT$$GT$$GT$13from_residual17h457b5fa5bc75b0d4E
	.p2align	4, 0x90
__ZN153_$LT$core..result..Result$LT$T$C$F$GT$$u20$as$u20$core..ops..try_trait..FromResidual$LT$core..result..Result$LT$core..convert..Infallible$C$E$GT$$GT$$GT$13from_residual17h457b5fa5bc75b0d4E:
Lfunc_begin8:
	.file	8 "/rustc/2c8cc343237b8f7d5a3c3703e3a87f2eb2c54a74/library/core/src" "result.rs"
	.loc	8 2105 0
	.cfi_startproc
	pushq	%rbp
	.cfi_def_cfa_offset 16
	.cfi_offset %rbp, -16
	movq	%rsp, %rbp
	.cfi_def_cfa_register %rbp
	subq	$96, %rsp
	movq	%rdi, %rax
Ltmp92:
	.loc	8 2107 17 prologue_end
	movq	(%rsi), %rcx
	movq	%rcx, -96(%rbp)
	movq	8(%rsi), %rcx
	movq	%rcx, -88(%rbp)
	movq	16(%rsi), %rcx
	movq	%rcx, -80(%rbp)
	movq	24(%rsi), %rcx
	movq	%rcx, -72(%rbp)
Ltmp93:
	.loc	8 2107 38 is_stmt 0
	movq	-96(%rbp), %rcx
	movq	%rcx, -32(%rbp)
	movq	-88(%rbp), %rcx
	movq	%rcx, -24(%rbp)
	movq	-80(%rbp), %rcx
	movq	%rcx, -16(%rbp)
	movq	-72(%rbp), %rcx
	movq	%rcx, -8(%rbp)
Ltmp94:
	.file	9 "/rustc/2c8cc343237b8f7d5a3c3703e3a87f2eb2c54a74/library/core/src/convert" "mod.rs"
	.loc	9 737 9 is_stmt 1
	movq	-32(%rbp), %rcx
	movq	%rcx, -64(%rbp)
	movq	-24(%rbp), %rcx
	movq	%rcx, -56(%rbp)
	movq	-16(%rbp), %rcx
	movq	%rcx, -48(%rbp)
	movq	-8(%rbp), %rcx
	movq	%rcx, -40(%rbp)
Ltmp95:
	.loc	8 2107 23
	movq	-64(%rbp), %rcx
	movq	%rcx, (%rdi)
	movq	-56(%rbp), %rcx
	movq	%rcx, 8(%rdi)
	movq	-48(%rbp), %rcx
	movq	%rcx, 16(%rdi)
	movq	-40(%rbp), %rcx
	movq	%rcx, 24(%rdi)
Ltmp96:
	.loc	8 2109 6
	addq	$96, %rsp
	popq	%rbp
	retq
Ltmp97:
Lfunc_end8:
	.cfi_endproc

	.globl	__ZN153_$LT$core..result..Result$LT$T$C$F$GT$$u20$as$u20$core..ops..try_trait..FromResidual$LT$core..result..Result$LT$core..convert..Infallible$C$E$GT$$GT$$GT$13from_residual17h764a1fbea61f5e99E
	.p2align	4, 0x90
__ZN153_$LT$core..result..Result$LT$T$C$F$GT$$u20$as$u20$core..ops..try_trait..FromResidual$LT$core..result..Result$LT$core..convert..Infallible$C$E$GT$$GT$$GT$13from_residual17h764a1fbea61f5e99E:
Lfunc_begin9:
	.loc	8 2105 0
	.cfi_startproc
	pushq	%rbp
	.cfi_def_cfa_offset 16
	.cfi_offset %rbp, -16
	movq	%rsp, %rbp
	.cfi_def_cfa_register %rbp
	subq	$96, %rsp
	movq	%rdi, %rax
Ltmp98:
	.loc	8 2107 17 prologue_end
	movq	(%rsi), %rcx
	movq	%rcx, -96(%rbp)
	movq	8(%rsi), %rcx
	movq	%rcx, -88(%rbp)
	movq	16(%rsi), %rcx
	movq	%rcx, -80(%rbp)
	movq	24(%rsi), %rcx
	movq	%rcx, -72(%rbp)
Ltmp99:
	.loc	8 2107 38 is_stmt 0
	movq	-96(%rbp), %rcx
	movq	%rcx, -32(%rbp)
	movq	-88(%rbp), %rcx
	movq	%rcx, -24(%rbp)
	movq	-80(%rbp), %rcx
	movq	%rcx, -16(%rbp)
	movq	-72(%rbp), %rcx
	movq	%rcx, -8(%rbp)
Ltmp100:
	.loc	9 737 9 is_stmt 1
	movq	-32(%rbp), %rcx
	movq	%rcx, -64(%rbp)
	movq	-24(%rbp), %rcx
	movq	%rcx, -56(%rbp)
	movq	-16(%rbp), %rcx
	movq	%rcx, -48(%rbp)
	movq	-8(%rbp), %rcx
	movq	%rcx, -40(%rbp)
Ltmp101:
	.loc	8 2107 23
	movq	-64(%rbp), %rcx
	movq	%rcx, (%rdi)
	movq	-56(%rbp), %rcx
	movq	%rcx, 8(%rdi)
	movq	-48(%rbp), %rcx
	movq	%rcx, 16(%rdi)
	movq	-40(%rbp), %rcx
	movq	%rcx, 24(%rdi)
Ltmp102:
	.loc	8 2109 6
	addq	$96, %rsp
	popq	%rbp
	retq
Ltmp103:
Lfunc_end9:
	.cfi_endproc

	.globl	__ZN15objc_foundation5array8INSArray5count17h82afe8ea9106db05E
	.p2align	4, 0x90
__ZN15objc_foundation5array8INSArray5count17h82afe8ea9106db05E:
Lfunc_begin10:
	.loc	2 66 0
	.cfi_startproc
	.cfi_personality 155, _rust_eh_personality
	.cfi_lsda 16, Lexception4
	pushq	%rbp
	.cfi_def_cfa_offset 16
	.cfi_offset %rbp, -16
	movq	%rsp, %rbp
	.cfi_def_cfa_register %rbp
	subq	$256, %rsp
	movq	%rdi, -248(%rbp)
	movq	%rdi, -168(%rbp)
	leaq	l___unnamed_6(%rip), %rax
	movq	%rax, -88(%rbp)
	movq	$6, -80(%rbp)
Ltmp110:
	.loc	1 54 36 prologue_end
	movb	$0, -105(%rbp)
	.loc	1 54 27 is_stmt 0
	movq	__ZN15objc_foundation5array8INSArray5count12register_sel3SEL17h41c0885129aa2e13E@GOTPCREL(%rip), %rdi
	movzbl	-105(%rbp), %esi
	callq	__ZN4core4sync6atomic11AtomicUsize4load17h443fe49fcf4c7482E
	movq	%rax, %rdi
	movq	%rdi, -240(%rbp)
	movq	%rdi, -72(%rbp)
Ltmp111:
	.loc	1 57 20 is_stmt 1
	callq	__ZN4core3ptr9const_ptr33_$LT$impl$u20$$BP$const$u20$T$GT$7is_null17ha546985450a90861E
	testb	$1, %al
	jne	LBB10_2
	.loc	1 0 20 is_stmt 0
	movq	-240(%rbp), %rdi
	.loc	1 62 21 is_stmt 1
	callq	__ZN4objc7runtime3Sel8from_ptr17h6cc59271a094997cE
	movq	%rax, -56(%rbp)
	movq	-56(%rbp), %rax
	movq	%rax, -120(%rbp)
	jmp	LBB10_3
LBB10_2:
	.loc	1 0 21 is_stmt 0
	leaq	l___unnamed_6(%rip), %rax
	movq	%rax, -48(%rbp)
	movq	$6, -40(%rbp)
	.loc	1 58 31 is_stmt 1
	leaq	l___unnamed_6(%rip), %rdi
	callq	_sel_registerName
	movq	%rax, -64(%rbp)
	movq	-64(%rbp), %rax
	movq	%rax, -104(%rbp)
Ltmp112:
	.loc	1 59 31
	leaq	-104(%rbp), %rdi
	callq	__ZN4objc7runtime3Sel6as_ptr17h04b387e578f26eafE
	movq	%rax, %rsi
	.loc	1 59 54 is_stmt 0
	movb	$0, -89(%rbp)
	.loc	1 59 21
	movq	__ZN15objc_foundation5array8INSArray5count12register_sel3SEL17h41c0885129aa2e13E@GOTPCREL(%rip), %rdi
	movzbl	-89(%rbp), %edx
	callq	__ZN4core4sync6atomic11AtomicUsize5store17h50b1fde0bd832e41E
	.loc	1 60 21 is_stmt 1
	movq	-104(%rbp), %rax
	movq	%rax, -120(%rbp)
Ltmp113:
LBB10_3:
	.loc	1 0 21 is_stmt 0
	movq	-248(%rbp), %rsi
	.loc	1 65 10 is_stmt 1
	movq	-120(%rbp), %rax
Ltmp114:
	.loc	2 68 13
	movq	%rax, -160(%rbp)
	movq	-160(%rbp), %rax
	movq	%rax, -232(%rbp)
Ltmp115:
	.loc	2 68 13 is_stmt 0
	movq	-232(%rbp), %rax
	movq	%rax, -200(%rbp)
	movq	-200(%rbp), %rax
	movq	%rax, -24(%rbp)
	movq	-24(%rbp), %rax
	movq	%rax, -32(%rbp)
	movq	%rsi, -8(%rbp)
Ltmp116:
	.file	10 "/Users/natalie/.cargo/registry/src/github.com-1ecc6299db9ec823/objc-0.2.7/src/message" "mod.rs"
	.loc	10 178 26 is_stmt 1
	movq	-32(%rbp), %rax
	movq	%rax, -16(%rbp)
	.loc	10 178 5 is_stmt 0
	movq	-16(%rbp), %rdx
	leaq	-224(%rbp), %rdi
	callq	__ZN4objc7message8platform15send_unverified17h25be760b08862ccdE
Ltmp117:
	.loc	2 68 13 is_stmt 1
	movq	-216(%rbp), %rdx
	movl	$1, %eax
	xorl	%ecx, %ecx
	cmpq	$0, %rdx
	cmoveq	%rcx, %rax
	cmpq	$0, %rax
	jne	LBB10_5
	movq	-224(%rbp), %rax
	movq	%rax, -136(%rbp)
Ltmp118:
	.loc	2 68 13 is_stmt 0
	movq	%rax, -128(%rbp)
Ltmp119:
	.loc	2 70 6 is_stmt 1
	addq	$256, %rsp
	popq	%rbp
	retq
LBB10_5:
Ltmp120:
	.loc	2 68 13
	movq	-208(%rbp), %rax
	movq	%rax, -176(%rbp)
	movq	-224(%rbp), %rax
	movq	-216(%rbp), %rcx
	movq	%rcx, -184(%rbp)
	movq	%rax, -192(%rbp)
Ltmp104:
Ltmp121:
	.loc	2 68 13 is_stmt 0
	leaq	l___unnamed_7(%rip), %rsi
	leaq	-192(%rbp), %rdi
	callq	__ZN4core9panicking13panic_display17h0e09fb0b7d155fc4E
Ltmp105:
	jmp	LBB10_8
Ltmp122:
LBB10_6:
Ltmp107:
	.loc	2 0 13
	leaq	-192(%rbp), %rdi
	.loc	2 68 13
	callq	__ZN4core3ptr48drop_in_place$LT$objc..message..MessageError$GT$17h5c4247deb9137b06E
Ltmp108:
	jmp	LBB10_10
Ltmp123:
LBB10_7:
Ltmp106:
	.loc	2 0 13
	movq	%rax, %rcx
	movl	%edx, %eax
	movq	%rcx, -152(%rbp)
	movl	%eax, -144(%rbp)
	jmp	LBB10_6
LBB10_8:
	ud2
LBB10_9:
Ltmp109:
	.loc	2 66 5 is_stmt 1
	callq	__ZN4core9panicking19panic_cannot_unwind17h1fbca7e1d7f56ae1E
LBB10_10:
	movq	-152(%rbp), %rdi
	callq	__Unwind_Resume
Ltmp124:
Lfunc_end10:
	.cfi_endproc
	.section	__TEXT,__gcc_except_tab
	.p2align	2
GCC_except_table10:
Lexception4:
	.byte	255
	.byte	255
	.byte	1
	.uleb128 Lcst_end4-Lcst_begin4
Lcst_begin4:
	.uleb128 Lfunc_begin10-Lfunc_begin10
	.uleb128 Ltmp104-Lfunc_begin10
	.byte	0
	.byte	0
	.uleb128 Ltmp104-Lfunc_begin10
	.uleb128 Ltmp105-Ltmp104
	.uleb128 Ltmp106-Lfunc_begin10
	.byte	0
	.uleb128 Ltmp107-Lfunc_begin10
	.uleb128 Ltmp108-Ltmp107
	.uleb128 Ltmp109-Lfunc_begin10
	.byte	0
	.uleb128 Ltmp108-Lfunc_begin10
	.uleb128 Lfunc_end10-Ltmp108
	.byte	0
	.byte	0
Lcst_end4:
	.p2align	2

	.section	__TEXT,__text,regular,pure_instructions
	.globl	__ZN15objc_foundation5array8INSArray8from_vec17h06ed48de41380021E
	.p2align	4, 0x90
__ZN15objc_foundation5array8INSArray8from_vec17h06ed48de41380021E:
Lfunc_begin11:
	.loc	2 100 0
	.cfi_startproc
	.cfi_personality 155, _rust_eh_personality
	.cfi_lsda 16, Lexception5
	pushq	%rbp
	.cfi_def_cfa_offset 16
	.cfi_offset %rbp, -16
	movq	%rsp, %rbp
	.cfi_def_cfa_register %rbp
	subq	$128, %rsp
	movq	%rdi, -64(%rbp)
Ltmp146:
Ltmp125:
	.loc	2 101 38 prologue_end
	callq	__ZN72_$LT$alloc..vec..Vec$LT$T$C$A$GT$$u20$as$u20$core..ops..deref..Deref$GT$5deref17h03307cb624fb3a1dE
Ltmp147:
Ltmp126:
	.loc	2 0 38 is_stmt 0
	movq	%rdx, -56(%rbp)
	movq	%rax, -48(%rbp)
Ltmp148:
	.loc	2 101 38
	jmp	LBB11_3
Ltmp149:
LBB11_1:
Ltmp143:
	.loc	2 0 38
	movq	-64(%rbp), %rdi
	.loc	2 105 5 is_stmt 1
	callq	__ZN4core3ptr100drop_in_place$LT$alloc..vec..Vec$LT$objc_id..id..Id$LT$objc_foundation..string..NSString$GT$$GT$$GT$17h03a4023f3c8cfcafE
Ltmp144:
	jmp	LBB11_13
Ltmp150:
LBB11_2:
Ltmp142:
	.loc	2 0 5 is_stmt 0
	movq	%rax, %rcx
	movl	%edx, %eax
	movq	%rcx, -16(%rbp)
	movl	%eax, -8(%rbp)
	jmp	LBB11_1
Ltmp151:
LBB11_3:
Ltmp127:
	movq	-56(%rbp), %rsi
	movq	-48(%rbp), %rdi
	.loc	2 101 38 is_stmt 1
	callq	__ZN4core5slice29_$LT$impl$u20$$u5b$T$u5d$$GT$4iter17hc4ba56f7c86bb9fdE
Ltmp128:
	movq	%rdx, -80(%rbp)
	movq	%rax, -72(%rbp)
	jmp	LBB11_4
Ltmp152:
LBB11_4:
Ltmp129:
	.loc	2 0 38 is_stmt 0
	movq	-80(%rbp), %rsi
	movq	-72(%rbp), %rdi
	.loc	2 101 38
	callq	__ZN4core4iter6traits8iterator8Iterator3map17h09749091769f080cE
Ltmp130:
	movq	%rdx, -96(%rbp)
	movq	%rax, -88(%rbp)
	jmp	LBB11_5
Ltmp153:
LBB11_5:
Ltmp131:
	.loc	2 0 38
	movq	-96(%rbp), %rdx
	movq	-88(%rbp), %rsi
	leaq	-40(%rbp), %rdi
	.loc	2 101 38
	callq	__ZN4core4iter6traits8iterator8Iterator7collect17h217b705165f46da4E
Ltmp132:
	jmp	LBB11_6
Ltmp154:
LBB11_6:
Ltmp133:
	.loc	2 0 38
	leaq	-40(%rbp), %rdi
Ltmp155:
	.loc	2 103 23 is_stmt 1
	callq	__ZN72_$LT$alloc..vec..Vec$LT$T$C$A$GT$$u20$as$u20$core..ops..deref..Deref$GT$5deref17h46664008093a0b47E
Ltmp134:
	movq	%rdx, -112(%rbp)
	movq	%rax, -104(%rbp)
	jmp	LBB11_9
Ltmp156:
LBB11_7:
Ltmp138:
	.loc	2 0 23 is_stmt 0
	leaq	-40(%rbp), %rdi
	.loc	2 105 5 is_stmt 1
	callq	__ZN4core3ptr81drop_in_place$LT$alloc..vec..Vec$LT$$RF$objc_foundation..string..NSString$GT$$GT$17hc4315068ee46261eE
Ltmp139:
	jmp	LBB11_1
Ltmp157:
LBB11_8:
Ltmp137:
	.loc	2 0 5 is_stmt 0
	movq	%rax, %rcx
	movl	%edx, %eax
	movq	%rcx, -16(%rbp)
	movl	%eax, -8(%rbp)
	jmp	LBB11_7
Ltmp158:
LBB11_9:
Ltmp135:
	movq	-112(%rbp), %rsi
	movq	-104(%rbp), %rdi
Ltmp159:
	.loc	2 103 13 is_stmt 1
	callq	__ZN15objc_foundation5array9from_refs17h0ec2ae5fdd1837eeE
Ltmp136:
	movq	%rax, -120(%rbp)
	jmp	LBB11_10
Ltmp160:
LBB11_10:
Ltmp140:
	.loc	2 0 13 is_stmt 0
	leaq	-40(%rbp), %rdi
	.loc	2 105 5 is_stmt 1
	callq	__ZN4core3ptr81drop_in_place$LT$alloc..vec..Vec$LT$$RF$objc_foundation..string..NSString$GT$$GT$17hc4315068ee46261eE
Ltmp141:
	jmp	LBB11_12
Ltmp161:
LBB11_11:
Ltmp145:
	.loc	2 100 5
	callq	__ZN4core9panicking19panic_cannot_unwind17h1fbca7e1d7f56ae1E
Ltmp162:
LBB11_12:
	.loc	2 0 5 is_stmt 0
	movq	-64(%rbp), %rdi
	.loc	2 105 5 is_stmt 1
	callq	__ZN4core3ptr100drop_in_place$LT$alloc..vec..Vec$LT$objc_id..id..Id$LT$objc_foundation..string..NSString$GT$$GT$$GT$17h03a4023f3c8cfcafE
	movq	-120(%rbp), %rax
	.loc	2 105 6 is_stmt 0
	addq	$128, %rsp
	popq	%rbp
	retq
Ltmp163:
LBB11_13:
	.loc	2 100 5 is_stmt 1
	movq	-16(%rbp), %rdi
	callq	__Unwind_Resume
Ltmp164:
Lfunc_end11:
	.cfi_endproc
	.section	__TEXT,__gcc_except_tab
	.p2align	2
GCC_except_table11:
Lexception5:
	.byte	255
	.byte	255
	.byte	1
	.uleb128 Lcst_end5-Lcst_begin5
Lcst_begin5:
	.uleb128 Ltmp125-Lfunc_begin11
	.uleb128 Ltmp126-Ltmp125
	.uleb128 Ltmp142-Lfunc_begin11
	.byte	0
	.uleb128 Ltmp143-Lfunc_begin11
	.uleb128 Ltmp144-Ltmp143
	.uleb128 Ltmp145-Lfunc_begin11
	.byte	0
	.uleb128 Ltmp127-Lfunc_begin11
	.uleb128 Ltmp132-Ltmp127
	.uleb128 Ltmp142-Lfunc_begin11
	.byte	0
	.uleb128 Ltmp133-Lfunc_begin11
	.uleb128 Ltmp134-Ltmp133
	.uleb128 Ltmp137-Lfunc_begin11
	.byte	0
	.uleb128 Ltmp138-Lfunc_begin11
	.uleb128 Ltmp139-Ltmp138
	.uleb128 Ltmp145-Lfunc_begin11
	.byte	0
	.uleb128 Ltmp135-Lfunc_begin11
	.uleb128 Ltmp136-Ltmp135
	.uleb128 Ltmp137-Lfunc_begin11
	.byte	0
	.uleb128 Ltmp140-Lfunc_begin11
	.uleb128 Ltmp141-Ltmp140
	.uleb128 Ltmp142-Lfunc_begin11
	.byte	0
	.uleb128 Ltmp141-Lfunc_begin11
	.uleb128 Lfunc_end11-Ltmp141
	.byte	0
	.byte	0
Lcst_end5:
	.p2align	2

	.section	__TEXT,__text,regular,pure_instructions
	.globl	__ZN15objc_foundation5array8INSArray8from_vec17hff7401ff7fb762ddE
	.p2align	4, 0x90
__ZN15objc_foundation5array8INSArray8from_vec17hff7401ff7fb762ddE:
Lfunc_begin12:
	.loc	2 100 0
	.cfi_startproc
	.cfi_personality 155, _rust_eh_personality
	.cfi_lsda 16, Lexception6
	pushq	%rbp
	.cfi_def_cfa_offset 16
	.cfi_offset %rbp, -16
	movq	%rsp, %rbp
	.cfi_def_cfa_register %rbp
	subq	$128, %rsp
	movq	%rdi, -64(%rbp)
Ltmp186:
Ltmp165:
	.loc	2 101 38 prologue_end
	callq	__ZN72_$LT$alloc..vec..Vec$LT$T$C$A$GT$$u20$as$u20$core..ops..deref..Deref$GT$5deref17hea72c0984c42e69dE
Ltmp187:
Ltmp166:
	.loc	2 0 38 is_stmt 0
	movq	%rdx, -56(%rbp)
	movq	%rax, -48(%rbp)
Ltmp188:
	.loc	2 101 38
	jmp	LBB12_3
Ltmp189:
LBB12_1:
Ltmp183:
	.loc	2 0 38
	movq	-64(%rbp), %rdi
	.loc	2 105 5 is_stmt 1
	callq	__ZN4core3ptr100drop_in_place$LT$alloc..vec..Vec$LT$objc_id..id..Id$LT$objc_foundation..object..NSObject$GT$$GT$$GT$17h7f3bff9b081af700E
Ltmp184:
	jmp	LBB12_13
Ltmp190:
LBB12_2:
Ltmp182:
	.loc	2 0 5 is_stmt 0
	movq	%rax, %rcx
	movl	%edx, %eax
	movq	%rcx, -16(%rbp)
	movl	%eax, -8(%rbp)
	jmp	LBB12_1
Ltmp191:
LBB12_3:
Ltmp167:
	movq	-56(%rbp), %rsi
	movq	-48(%rbp), %rdi
	.loc	2 101 38 is_stmt 1
	callq	__ZN4core5slice29_$LT$impl$u20$$u5b$T$u5d$$GT$4iter17h94770614890725e5E
Ltmp168:
	movq	%rdx, -80(%rbp)
	movq	%rax, -72(%rbp)
	jmp	LBB12_4
Ltmp192:
LBB12_4:
Ltmp169:
	.loc	2 0 38 is_stmt 0
	movq	-80(%rbp), %rsi
	movq	-72(%rbp), %rdi
	.loc	2 101 38
	callq	__ZN4core4iter6traits8iterator8Iterator3map17h52a9df533b5759bdE
Ltmp170:
	movq	%rdx, -96(%rbp)
	movq	%rax, -88(%rbp)
	jmp	LBB12_5
Ltmp193:
LBB12_5:
Ltmp171:
	.loc	2 0 38
	movq	-96(%rbp), %rdx
	movq	-88(%rbp), %rsi
	leaq	-40(%rbp), %rdi
	.loc	2 101 38
	callq	__ZN4core4iter6traits8iterator8Iterator7collect17h13e1c60eb08723acE
Ltmp172:
	jmp	LBB12_6
Ltmp194:
LBB12_6:
Ltmp173:
	.loc	2 0 38
	leaq	-40(%rbp), %rdi
Ltmp195:
	.loc	2 103 23 is_stmt 1
	callq	__ZN72_$LT$alloc..vec..Vec$LT$T$C$A$GT$$u20$as$u20$core..ops..deref..Deref$GT$5deref17h4586386fb0f2e9c8E
Ltmp174:
	movq	%rdx, -112(%rbp)
	movq	%rax, -104(%rbp)
	jmp	LBB12_9
Ltmp196:
LBB12_7:
Ltmp178:
	.loc	2 0 23 is_stmt 0
	leaq	-40(%rbp), %rdi
	.loc	2 105 5 is_stmt 1
	callq	__ZN4core3ptr81drop_in_place$LT$alloc..vec..Vec$LT$$RF$objc_foundation..object..NSObject$GT$$GT$17h407f56fc980aa313E
Ltmp179:
	jmp	LBB12_1
Ltmp197:
LBB12_8:
Ltmp177:
	.loc	2 0 5 is_stmt 0
	movq	%rax, %rcx
	movl	%edx, %eax
	movq	%rcx, -16(%rbp)
	movl	%eax, -8(%rbp)
	jmp	LBB12_7
Ltmp198:
LBB12_9:
Ltmp175:
	movq	-112(%rbp), %rsi
	movq	-104(%rbp), %rdi
Ltmp199:
	.loc	2 103 13 is_stmt 1
	callq	__ZN15objc_foundation5array9from_refs17h89ac6fa3513baee1E
Ltmp176:
	movq	%rax, -120(%rbp)
	jmp	LBB12_10
Ltmp200:
LBB12_10:
Ltmp180:
	.loc	2 0 13 is_stmt 0
	leaq	-40(%rbp), %rdi
	.loc	2 105 5 is_stmt 1
	callq	__ZN4core3ptr81drop_in_place$LT$alloc..vec..Vec$LT$$RF$objc_foundation..object..NSObject$GT$$GT$17h407f56fc980aa313E
Ltmp181:
	jmp	LBB12_12
Ltmp201:
LBB12_11:
Ltmp185:
	.loc	2 100 5
	callq	__ZN4core9panicking19panic_cannot_unwind17h1fbca7e1d7f56ae1E
Ltmp202:
LBB12_12:
	.loc	2 0 5 is_stmt 0
	movq	-64(%rbp), %rdi
	.loc	2 105 5 is_stmt 1
	callq	__ZN4core3ptr100drop_in_place$LT$alloc..vec..Vec$LT$objc_id..id..Id$LT$objc_foundation..object..NSObject$GT$$GT$$GT$17h7f3bff9b081af700E
	movq	-120(%rbp), %rax
	.loc	2 105 6 is_stmt 0
	addq	$128, %rsp
	popq	%rbp
	retq
Ltmp203:
LBB12_13:
	.loc	2 100 5 is_stmt 1
	movq	-16(%rbp), %rdi
	callq	__Unwind_Resume
Ltmp204:
Lfunc_end12:
	.cfi_endproc
	.section	__TEXT,__gcc_except_tab
	.p2align	2
GCC_except_table12:
Lexception6:
	.byte	255
	.byte	255
	.byte	1
	.uleb128 Lcst_end6-Lcst_begin6
Lcst_begin6:
	.uleb128 Ltmp165-Lfunc_begin12
	.uleb128 Ltmp166-Ltmp165
	.uleb128 Ltmp182-Lfunc_begin12
	.byte	0
	.uleb128 Ltmp183-Lfunc_begin12
	.uleb128 Ltmp184-Ltmp183
	.uleb128 Ltmp185-Lfunc_begin12
	.byte	0
	.uleb128 Ltmp167-Lfunc_begin12
	.uleb128 Ltmp172-Ltmp167
	.uleb128 Ltmp182-Lfunc_begin12
	.byte	0
	.uleb128 Ltmp173-Lfunc_begin12
	.uleb128 Ltmp174-Ltmp173
	.uleb128 Ltmp177-Lfunc_begin12
	.byte	0
	.uleb128 Ltmp178-Lfunc_begin12
	.uleb128 Ltmp179-Ltmp178
	.uleb128 Ltmp185-Lfunc_begin12
	.byte	0
	.uleb128 Ltmp175-Lfunc_begin12
	.uleb128 Ltmp176-Ltmp175
	.uleb128 Ltmp177-Lfunc_begin12
	.byte	0
	.uleb128 Ltmp180-Lfunc_begin12
	.uleb128 Ltmp181-Ltmp180
	.uleb128 Ltmp182-Lfunc_begin12
	.byte	0
	.uleb128 Ltmp181-Lfunc_begin12
	.uleb128 Lfunc_end12-Ltmp181
	.byte	0
	.byte	0
Lcst_end6:
	.p2align	2

	.section	__TEXT,__text,regular,pure_instructions
	.globl	__ZN15objc_foundation5array8INSArray8from_vec28_$u7b$$u7b$closure$u7d$$u7d$17haaadcc355a1bc8b0E
	.p2align	4, 0x90
__ZN15objc_foundation5array8INSArray8from_vec28_$u7b$$u7b$closure$u7d$$u7d$17haaadcc355a1bc8b0E:
Lfunc_begin13:
	.loc	2 101 0
	.cfi_startproc
	pushq	%rbp
	.cfi_def_cfa_offset 16
	.cfi_offset %rbp, -16
	movq	%rsp, %rbp
	.cfi_def_cfa_register %rbp
	subq	$32, %rsp
	movq	%rsi, -24(%rbp)
	movq	%rdi, %rax
	movq	-24(%rbp), %rdi
	movq	%rax, -16(%rbp)
	movq	%rdi, -8(%rbp)
Ltmp205:
	.loc	2 101 60 prologue_end
	callq	__ZN72_$LT$objc_id..id..Id$LT$T$C$O$GT$$u20$as$u20$core..ops..deref..Deref$GT$5deref17hea96774e0fce11a6E
	.loc	2 101 65 is_stmt 0
	addq	$32, %rsp
	popq	%rbp
	retq
Ltmp206:
Lfunc_end13:
	.cfi_endproc

	.globl	__ZN15objc_foundation5array8INSArray8from_vec28_$u7b$$u7b$closure$u7d$$u7d$17hbcc029d55f7fa3c8E
	.p2align	4, 0x90
__ZN15objc_foundation5array8INSArray8from_vec28_$u7b$$u7b$closure$u7d$$u7d$17hbcc029d55f7fa3c8E:
Lfunc_begin14:
	.loc	2 101 0 is_stmt 1
	.cfi_startproc
	pushq	%rbp
	.cfi_def_cfa_offset 16
	.cfi_offset %rbp, -16
	movq	%rsp, %rbp
	.cfi_def_cfa_register %rbp
	subq	$32, %rsp
	movq	%rsi, -24(%rbp)
	movq	%rdi, %rax
	movq	-24(%rbp), %rdi
	movq	%rax, -16(%rbp)
	movq	%rdi, -8(%rbp)
Ltmp207:
	.loc	2 101 60 prologue_end
	callq	__ZN72_$LT$objc_id..id..Id$LT$T$C$O$GT$$u20$as$u20$core..ops..deref..Deref$GT$5deref17h0b08f1e1084e70c1E
	.loc	2 101 65 is_stmt 0
	addq	$32, %rsp
	popq	%rbp
	retq
Ltmp208:
Lfunc_end14:
	.cfi_endproc

	.globl	__ZN15objc_foundation5array8INSArray9object_at17h39ab321293e30c23E
	.p2align	4, 0x90
__ZN15objc_foundation5array8INSArray9object_at17h39ab321293e30c23E:
Lfunc_begin15:
	.loc	2 72 0 is_stmt 1
	.cfi_startproc
	.cfi_personality 155, _rust_eh_personality
	.cfi_lsda 16, Lexception7
	pushq	%rbp
	.cfi_def_cfa_offset 16
	.cfi_offset %rbp, -16
	movq	%rsp, %rbp
	.cfi_def_cfa_register %rbp
	subq	$288, %rsp
	movq	%rdi, -288(%rbp)
	movq	%rsi, -280(%rbp)
	movq	%rdi, -192(%rbp)
	movq	%rsi, -184(%rbp)
	leaq	l___unnamed_8(%rip), %rax
	movq	%rax, -96(%rbp)
	movq	$15, -88(%rbp)
Ltmp215:
	.loc	1 54 36 prologue_end
	movb	$0, -113(%rbp)
	.loc	1 54 27 is_stmt 0
	movq	__ZN15objc_foundation5array8INSArray9object_at12register_sel3SEL17h0e828938f68f0576E@GOTPCREL(%rip), %rdi
	movzbl	-113(%rbp), %esi
	callq	__ZN4core4sync6atomic11AtomicUsize4load17h443fe49fcf4c7482E
	movq	%rax, %rdi
	movq	%rdi, -272(%rbp)
	movq	%rdi, -80(%rbp)
Ltmp216:
	.loc	1 57 20 is_stmt 1
	callq	__ZN4core3ptr9const_ptr33_$LT$impl$u20$$BP$const$u20$T$GT$7is_null17ha546985450a90861E
	testb	$1, %al
	jne	LBB15_2
	.loc	1 0 20 is_stmt 0
	movq	-272(%rbp), %rdi
	.loc	1 62 21 is_stmt 1
	callq	__ZN4objc7runtime3Sel8from_ptr17h6cc59271a094997cE
	movq	%rax, -64(%rbp)
	movq	-64(%rbp), %rax
	movq	%rax, -128(%rbp)
	jmp	LBB15_3
LBB15_2:
	.loc	1 0 21 is_stmt 0
	leaq	l___unnamed_8(%rip), %rax
	movq	%rax, -56(%rbp)
	movq	$15, -48(%rbp)
	.loc	1 58 31 is_stmt 1
	leaq	l___unnamed_8(%rip), %rdi
	callq	_sel_registerName
	movq	%rax, -72(%rbp)
	movq	-72(%rbp), %rax
	movq	%rax, -112(%rbp)
Ltmp217:
	.loc	1 59 31
	leaq	-112(%rbp), %rdi
	callq	__ZN4objc7runtime3Sel6as_ptr17h04b387e578f26eafE
	movq	%rax, %rsi
	.loc	1 59 54 is_stmt 0
	movb	$0, -97(%rbp)
	.loc	1 59 21
	movq	__ZN15objc_foundation5array8INSArray9object_at12register_sel3SEL17h0e828938f68f0576E@GOTPCREL(%rip), %rdi
	movzbl	-97(%rbp), %edx
	callq	__ZN4core4sync6atomic11AtomicUsize5store17h50b1fde0bd832e41E
	.loc	1 60 21 is_stmt 1
	movq	-112(%rbp), %rax
	movq	%rax, -128(%rbp)
Ltmp218:
LBB15_3:
	.loc	1 0 21 is_stmt 0
	movq	-288(%rbp), %rsi
	movq	-280(%rbp), %rax
	.loc	1 65 10 is_stmt 1
	movq	-128(%rbp), %rcx
Ltmp219:
	.loc	2 74 42
	movq	%rcx, -176(%rbp)
	movq	-176(%rbp), %rcx
	movq	%rcx, -264(%rbp)
Ltmp220:
	.loc	2 74 42 is_stmt 0
	movq	-264(%rbp), %rcx
	movq	%rcx, -232(%rbp)
	movq	%rax, -224(%rbp)
	movq	-232(%rbp), %rax
	movq	-224(%rbp), %rcx
	movq	%rax, -32(%rbp)
	movq	-32(%rbp), %rax
	movq	%rax, -40(%rbp)
	movq	%rsi, -16(%rbp)
	movq	%rcx, -8(%rbp)
Ltmp221:
	.loc	10 178 26 is_stmt 1
	movq	-40(%rbp), %rax
	movq	%rax, -24(%rbp)
	.loc	10 178 5 is_stmt 0
	movq	-24(%rbp), %rdx
	leaq	-256(%rbp), %rdi
	callq	__ZN4objc7message8platform15send_unverified17h9ae78848f5c826a5E
Ltmp222:
	.loc	2 74 42 is_stmt 1
	movq	-248(%rbp), %rdx
	movl	$1, %eax
	xorl	%ecx, %ecx
	cmpq	$0, %rdx
	cmoveq	%rcx, %rax
	cmpq	$0, %rax
	jne	LBB15_5
	movq	-256(%rbp), %rax
	movq	%rax, -152(%rbp)
Ltmp223:
	.loc	2 74 42 is_stmt 0
	movq	%rax, -144(%rbp)
Ltmp224:
	.loc	2 74 42
	movq	%rax, -136(%rbp)
Ltmp225:
	.loc	2 77 6 is_stmt 1
	addq	$288, %rsp
	popq	%rbp
	retq
LBB15_5:
Ltmp226:
	.loc	2 74 42
	movq	-240(%rbp), %rax
	movq	%rax, -200(%rbp)
	movq	-256(%rbp), %rax
	movq	-248(%rbp), %rcx
	movq	%rcx, -208(%rbp)
	movq	%rax, -216(%rbp)
Ltmp209:
Ltmp227:
	.loc	2 74 42 is_stmt 0
	leaq	l___unnamed_9(%rip), %rsi
	leaq	-216(%rbp), %rdi
	callq	__ZN4core9panicking13panic_display17h0e09fb0b7d155fc4E
Ltmp210:
	jmp	LBB15_8
Ltmp228:
LBB15_6:
Ltmp212:
	.loc	2 0 42
	leaq	-216(%rbp), %rdi
	.loc	2 74 42
	callq	__ZN4core3ptr48drop_in_place$LT$objc..message..MessageError$GT$17h5c4247deb9137b06E
Ltmp213:
	jmp	LBB15_10
Ltmp229:
LBB15_7:
Ltmp211:
	.loc	2 0 42
	movq	%rax, %rcx
	movl	%edx, %eax
	movq	%rcx, -168(%rbp)
	movl	%eax, -160(%rbp)
	jmp	LBB15_6
LBB15_8:
	ud2
LBB15_9:
Ltmp214:
	.loc	2 72 5 is_stmt 1
	callq	__ZN4core9panicking19panic_cannot_unwind17h1fbca7e1d7f56ae1E
LBB15_10:
	movq	-168(%rbp), %rdi
	callq	__Unwind_Resume
Ltmp230:
Lfunc_end15:
	.cfi_endproc
	.section	__TEXT,__gcc_except_tab
	.p2align	2
GCC_except_table15:
Lexception7:
	.byte	255
	.byte	255
	.byte	1
	.uleb128 Lcst_end7-Lcst_begin7
Lcst_begin7:
	.uleb128 Lfunc_begin15-Lfunc_begin15
	.uleb128 Ltmp209-Lfunc_begin15
	.byte	0
	.byte	0
	.uleb128 Ltmp209-Lfunc_begin15
	.uleb128 Ltmp210-Ltmp209
	.uleb128 Ltmp211-Lfunc_begin15
	.byte	0
	.uleb128 Ltmp212-Lfunc_begin15
	.uleb128 Ltmp213-Ltmp212
	.uleb128 Ltmp214-Lfunc_begin15
	.byte	0
	.uleb128 Ltmp213-Lfunc_begin15
	.uleb128 Lfunc_end15-Ltmp213
	.byte	0
	.byte	0
Lcst_end7:
	.p2align	2

	.section	__TEXT,__text,regular,pure_instructions
	.globl	__ZN15objc_foundation5array9from_refs17h0ec2ae5fdd1837eeE
	.p2align	4, 0x90
__ZN15objc_foundation5array9from_refs17h0ec2ae5fdd1837eeE:
Lfunc_begin16:
	.loc	2 54 0
	.cfi_startproc
	.cfi_personality 155, _rust_eh_personality
	.cfi_lsda 16, Lexception8
	pushq	%rbp
	.cfi_def_cfa_offset 16
	.cfi_offset %rbp, -16
	movq	%rsp, %rbp
	.cfi_def_cfa_register %rbp
	subq	$576, %rsp
	movq	%rdi, -552(%rbp)
	movq	%rsi, -544(%rbp)
	movq	%rdi, -376(%rbp)
	movq	%rsi, -368(%rbp)
Ltmp242:
	.loc	2 55 15 prologue_end
	callq	__ZN99_$LT$objc_foundation..array..NSArray$LT$T$C$O$GT$$u20$as$u20$objc_foundation..object..INSObject$GT$5class17h884ddaf511c0857fE
	movq	%rax, -536(%rbp)
	movq	%rax, -360(%rbp)
	leaq	l___unnamed_10(%rip), %rax
	movq	%rax, -168(%rbp)
	movq	$6, -160(%rbp)
Ltmp243:
	.loc	1 54 36
	movb	$0, -185(%rbp)
	.loc	1 54 27 is_stmt 0
	movq	__ZN15objc_foundation5array9from_refs12register_sel3SEL17h33c5e03adfd31b66E@GOTPCREL(%rip), %rdi
	movzbl	-185(%rbp), %esi
	callq	__ZN4core4sync6atomic11AtomicUsize4load17h443fe49fcf4c7482E
	movq	%rax, %rdi
	movq	%rdi, -528(%rbp)
	movq	%rdi, -152(%rbp)
Ltmp244:
	.loc	1 57 20 is_stmt 1
	callq	__ZN4core3ptr9const_ptr33_$LT$impl$u20$$BP$const$u20$T$GT$7is_null17ha546985450a90861E
	testb	$1, %al
	jne	LBB16_2
	.loc	1 0 20 is_stmt 0
	movq	-528(%rbp), %rdi
	.loc	1 62 21 is_stmt 1
	callq	__ZN4objc7runtime3Sel8from_ptr17h6cc59271a094997cE
	movq	%rax, -136(%rbp)
	movq	-136(%rbp), %rax
	movq	%rax, -200(%rbp)
	jmp	LBB16_3
LBB16_2:
	.loc	1 0 21 is_stmt 0
	leaq	l___unnamed_10(%rip), %rax
	movq	%rax, -128(%rbp)
	movq	$6, -120(%rbp)
	.loc	1 58 31 is_stmt 1
	leaq	l___unnamed_10(%rip), %rdi
	callq	_sel_registerName
	movq	%rax, -144(%rbp)
	movq	-144(%rbp), %rax
	movq	%rax, -184(%rbp)
Ltmp245:
	.loc	1 59 31
	leaq	-184(%rbp), %rdi
	callq	__ZN4objc7runtime3Sel6as_ptr17h04b387e578f26eafE
	movq	%rax, %rsi
	.loc	1 59 54 is_stmt 0
	movb	$0, -169(%rbp)
	.loc	1 59 21
	movq	__ZN15objc_foundation5array9from_refs12register_sel3SEL17h33c5e03adfd31b66E@GOTPCREL(%rip), %rdi
	movzbl	-169(%rbp), %edx
	callq	__ZN4core4sync6atomic11AtomicUsize5store17h50b1fde0bd832e41E
	.loc	1 60 21 is_stmt 1
	movq	-184(%rbp), %rax
	movq	%rax, -200(%rbp)
Ltmp246:
LBB16_3:
	.loc	1 0 21 is_stmt 0
	movq	-536(%rbp), %rsi
	.loc	1 65 10 is_stmt 1
	movq	-200(%rbp), %rax
Ltmp247:
	.loc	2 56 23
	movq	%rax, -352(%rbp)
	movq	-352(%rbp), %rax
	movq	%rax, -520(%rbp)
Ltmp248:
	.loc	2 56 23 is_stmt 0
	movq	-520(%rbp), %rax
	movq	%rax, -488(%rbp)
	movq	-488(%rbp), %rax
	movq	%rax, -24(%rbp)
	movq	-24(%rbp), %rax
	movq	%rax, -32(%rbp)
	movq	%rsi, -8(%rbp)
Ltmp249:
	.loc	10 178 26 is_stmt 1
	movq	-32(%rbp), %rax
	movq	%rax, -16(%rbp)
	.loc	10 178 5 is_stmt 0
	movq	-16(%rbp), %rdx
	leaq	-512(%rbp), %rdi
	callq	__ZN4objc7message8platform15send_unverified17hd6149ab338b24e0aE
Ltmp250:
	.loc	2 56 23 is_stmt 1
	movq	-504(%rbp), %rdx
	movl	$1, %eax
	xorl	%ecx, %ecx
	cmpq	$0, %rdx
	cmoveq	%rcx, %rax
	cmpq	$0, %rax
	jne	LBB16_8
	movq	-512(%rbp), %rax
	movq	%rax, -568(%rbp)
	movq	%rax, -328(%rbp)
Ltmp251:
	.loc	2 56 23 is_stmt 0
	movq	%rax, -320(%rbp)
Ltmp252:
	.loc	2 56 23
	movq	%rax, -312(%rbp)
	leaq	l___unnamed_11(%rip), %rax
	movq	%rax, -240(%rbp)
	movq	$23, -232(%rbp)
Ltmp253:
	.loc	1 54 36 is_stmt 1
	movb	$0, -257(%rbp)
	.loc	1 54 27 is_stmt 0
	movq	__ZN15objc_foundation5array9from_refs12register_sel3SEL17hbdbf53c6156fc087E@GOTPCREL(%rip), %rdi
	movzbl	-257(%rbp), %esi
	callq	__ZN4core4sync6atomic11AtomicUsize4load17h443fe49fcf4c7482E
	movq	%rax, %rdi
	movq	%rdi, -560(%rbp)
	movq	%rdi, -224(%rbp)
Ltmp254:
	.loc	1 57 20 is_stmt 1
	callq	__ZN4core3ptr9const_ptr33_$LT$impl$u20$$BP$const$u20$T$GT$7is_null17ha546985450a90861E
	testb	$1, %al
	jne	LBB16_6
	.loc	1 0 20 is_stmt 0
	movq	-560(%rbp), %rdi
	.loc	1 62 21 is_stmt 1
	callq	__ZN4objc7runtime3Sel8from_ptr17h6cc59271a094997cE
	movq	%rax, -208(%rbp)
	movq	-208(%rbp), %rax
	movq	%rax, -272(%rbp)
	jmp	LBB16_7
LBB16_6:
	.loc	1 0 21 is_stmt 0
	leaq	l___unnamed_11(%rip), %rax
	movq	%rax, -112(%rbp)
	movq	$23, -104(%rbp)
	.loc	1 58 31 is_stmt 1
	leaq	l___unnamed_11(%rip), %rdi
	callq	_sel_registerName
	movq	%rax, -216(%rbp)
	movq	-216(%rbp), %rax
	movq	%rax, -256(%rbp)
Ltmp255:
	.loc	1 59 31
	leaq	-256(%rbp), %rdi
	callq	__ZN4objc7runtime3Sel6as_ptr17h04b387e578f26eafE
	movq	%rax, %rsi
	.loc	1 59 54 is_stmt 0
	movb	$0, -241(%rbp)
	.loc	1 59 21
	movq	__ZN15objc_foundation5array9from_refs12register_sel3SEL17hbdbf53c6156fc087E@GOTPCREL(%rip), %rdi
	movzbl	-241(%rbp), %edx
	callq	__ZN4core4sync6atomic11AtomicUsize5store17h50b1fde0bd832e41E
	.loc	1 60 21 is_stmt 1
	movq	-256(%rbp), %rax
	movq	%rax, -272(%rbp)
Ltmp256:
LBB16_7:
	.loc	1 0 21 is_stmt 0
	movq	-568(%rbp), %rsi
	movq	-544(%rbp), %rax
	movq	-552(%rbp), %rcx
	.loc	1 65 10 is_stmt 1
	movq	-272(%rbp), %rdx
Ltmp257:
	.loc	2 57 23
	movq	%rdx, -304(%rbp)
	movq	-304(%rbp), %rdx
	movq	%rdx, -456(%rbp)
Ltmp258:
	.loc	2 57 23 is_stmt 0
	movq	-456(%rbp), %rdx
	movq	%rdx, -424(%rbp)
	movq	%rcx, -96(%rbp)
	movq	%rax, -88(%rbp)
	movq	%rcx, -416(%rbp)
	movq	%rax, -408(%rbp)
	movq	-424(%rbp), %rax
	movq	-416(%rbp), %rcx
	movq	-408(%rbp), %r8
	movq	%rax, -72(%rbp)
	movq	-72(%rbp), %rax
	movq	%rax, -80(%rbp)
	movq	%rsi, -56(%rbp)
	movq	%rcx, -48(%rbp)
	movq	%r8, -40(%rbp)
Ltmp259:
	.loc	10 178 26 is_stmt 1
	movq	-80(%rbp), %rax
	movq	%rax, -64(%rbp)
	.loc	10 178 5 is_stmt 0
	movq	-64(%rbp), %rdx
	leaq	-448(%rbp), %rdi
	callq	__ZN4objc7message8platform15send_unverified17h57fe90bf4cda5e5aE
Ltmp260:
	.loc	2 57 23 is_stmt 1
	movq	-440(%rbp), %rdx
	movl	$1, %eax
	xorl	%ecx, %ecx
	cmpq	$0, %rdx
	cmoveq	%rcx, %rax
	cmpq	$0, %rax
	je	LBB16_14
	jmp	LBB16_15
Ltmp261:
LBB16_8:
	.loc	2 56 23
	movq	-496(%rbp), %rax
	movq	%rax, -464(%rbp)
	movq	-512(%rbp), %rax
	movq	-504(%rbp), %rcx
	movq	%rcx, -472(%rbp)
	movq	%rax, -480(%rbp)
Ltmp231:
Ltmp262:
	.loc	2 56 23 is_stmt 0
	leaq	l___unnamed_12(%rip), %rsi
	leaq	-480(%rbp), %rdi
	callq	__ZN4core9panicking13panic_display17h0e09fb0b7d155fc4E
Ltmp232:
	jmp	LBB16_11
Ltmp263:
LBB16_9:
Ltmp234:
	.loc	2 0 23
	leaq	-480(%rbp), %rdi
	.loc	2 56 23
	callq	__ZN4core3ptr48drop_in_place$LT$objc..message..MessageError$GT$17h5c4247deb9137b06E
Ltmp235:
	jmp	LBB16_13
Ltmp264:
LBB16_10:
Ltmp233:
	.loc	2 0 23
	movq	%rax, %rcx
	movl	%edx, %eax
	movq	%rcx, -344(%rbp)
	movl	%eax, -336(%rbp)
	jmp	LBB16_9
LBB16_11:
	ud2
LBB16_12:
Ltmp241:
	.loc	2 54 1 is_stmt 1
	callq	__ZN4core9panicking19panic_cannot_unwind17h1fbca7e1d7f56ae1E
LBB16_13:
	movq	-344(%rbp), %rdi
	callq	__Unwind_Resume
LBB16_14:
Ltmp265:
	.loc	2 57 23
	movq	-448(%rbp), %rdi
	movq	%rdi, -296(%rbp)
Ltmp266:
	.loc	2 57 23 is_stmt 0
	movq	%rdi, -288(%rbp)
Ltmp267:
	.loc	2 57 23
	movq	%rdi, -280(%rbp)
Ltmp268:
	.loc	2 59 5 is_stmt 1
	callq	__ZN7objc_id2id15Id$LT$T$C$O$GT$17from_retained_ptr17h9d168dffe7e29c7dE
Ltmp269:
	.loc	2 60 2
	addq	$576, %rsp
	popq	%rbp
	retq
LBB16_15:
Ltmp270:
	.loc	2 57 23
	movq	-432(%rbp), %rax
	movq	%rax, -384(%rbp)
	movq	-448(%rbp), %rax
	movq	-440(%rbp), %rcx
	movq	%rcx, -392(%rbp)
	movq	%rax, -400(%rbp)
Ltmp236:
Ltmp271:
	.loc	2 57 23 is_stmt 0
	leaq	l___unnamed_13(%rip), %rsi
	leaq	-400(%rbp), %rdi
	callq	__ZN4core9panicking13panic_display17h0e09fb0b7d155fc4E
Ltmp237:
	jmp	LBB16_11
Ltmp272:
LBB16_16:
Ltmp239:
	.loc	2 0 23
	leaq	-400(%rbp), %rdi
	.loc	2 57 23
	callq	__ZN4core3ptr48drop_in_place$LT$objc..message..MessageError$GT$17h5c4247deb9137b06E
Ltmp240:
	jmp	LBB16_13
Ltmp273:
LBB16_17:
Ltmp238:
	.loc	2 0 23
	movq	%rax, %rcx
	movl	%edx, %eax
	movq	%rcx, -344(%rbp)
	movl	%eax, -336(%rbp)
	jmp	LBB16_16
Lfunc_end16:
	.cfi_endproc
	.section	__TEXT,__gcc_except_tab
	.p2align	2
GCC_except_table16:
Lexception8:
	.byte	255
	.byte	255
	.byte	1
	.uleb128 Lcst_end8-Lcst_begin8
Lcst_begin8:
	.uleb128 Lfunc_begin16-Lfunc_begin16
	.uleb128 Ltmp231-Lfunc_begin16
	.byte	0
	.byte	0
	.uleb128 Ltmp231-Lfunc_begin16
	.uleb128 Ltmp232-Ltmp231
	.uleb128 Ltmp233-Lfunc_begin16
	.byte	0
	.uleb128 Ltmp234-Lfunc_begin16
	.uleb128 Ltmp235-Ltmp234
	.uleb128 Ltmp241-Lfunc_begin16
	.byte	0
	.uleb128 Ltmp235-Lfunc_begin16
	.uleb128 Ltmp236-Ltmp235
	.byte	0
	.byte	0
	.uleb128 Ltmp236-Lfunc_begin16
	.uleb128 Ltmp237-Ltmp236
	.uleb128 Ltmp238-Lfunc_begin16
	.byte	0
	.uleb128 Ltmp239-Lfunc_begin16
	.uleb128 Ltmp240-Ltmp239
	.uleb128 Ltmp241-Lfunc_begin16
	.byte	0
Lcst_end8:
	.p2align	2

	.section	__TEXT,__text,regular,pure_instructions
	.globl	__ZN15objc_foundation5array9from_refs17h89ac6fa3513baee1E
	.p2align	4, 0x90
__ZN15objc_foundation5array9from_refs17h89ac6fa3513baee1E:
Lfunc_begin17:
	.loc	2 54 0 is_stmt 1
	.cfi_startproc
	.cfi_personality 155, _rust_eh_personality
	.cfi_lsda 16, Lexception9
	pushq	%rbp
	.cfi_def_cfa_offset 16
	.cfi_offset %rbp, -16
	movq	%rsp, %rbp
	.cfi_def_cfa_register %rbp
	subq	$576, %rsp
	movq	%rdi, -552(%rbp)
	movq	%rsi, -544(%rbp)
	movq	%rdi, -376(%rbp)
	movq	%rsi, -368(%rbp)
Ltmp285:
	.loc	2 55 15 prologue_end
	callq	__ZN99_$LT$objc_foundation..array..NSArray$LT$T$C$O$GT$$u20$as$u20$objc_foundation..object..INSObject$GT$5class17h583817f5592d1259E
	movq	%rax, -536(%rbp)
	movq	%rax, -360(%rbp)
	leaq	l___unnamed_10(%rip), %rax
	movq	%rax, -168(%rbp)
	movq	$6, -160(%rbp)
Ltmp286:
	.loc	1 54 36
	movb	$0, -185(%rbp)
	.loc	1 54 27 is_stmt 0
	movq	__ZN15objc_foundation5array9from_refs12register_sel3SEL17h33c5e03adfd31b66E@GOTPCREL(%rip), %rdi
	movzbl	-185(%rbp), %esi
	callq	__ZN4core4sync6atomic11AtomicUsize4load17h443fe49fcf4c7482E
	movq	%rax, %rdi
	movq	%rdi, -528(%rbp)
	movq	%rdi, -152(%rbp)
Ltmp287:
	.loc	1 57 20 is_stmt 1
	callq	__ZN4core3ptr9const_ptr33_$LT$impl$u20$$BP$const$u20$T$GT$7is_null17ha546985450a90861E
	testb	$1, %al
	jne	LBB17_2
	.loc	1 0 20 is_stmt 0
	movq	-528(%rbp), %rdi
	.loc	1 62 21 is_stmt 1
	callq	__ZN4objc7runtime3Sel8from_ptr17h6cc59271a094997cE
	movq	%rax, -136(%rbp)
	movq	-136(%rbp), %rax
	movq	%rax, -200(%rbp)
	jmp	LBB17_3
LBB17_2:
	.loc	1 0 21 is_stmt 0
	leaq	l___unnamed_10(%rip), %rax
	movq	%rax, -128(%rbp)
	movq	$6, -120(%rbp)
	.loc	1 58 31 is_stmt 1
	leaq	l___unnamed_10(%rip), %rdi
	callq	_sel_registerName
	movq	%rax, -144(%rbp)
	movq	-144(%rbp), %rax
	movq	%rax, -184(%rbp)
Ltmp288:
	.loc	1 59 31
	leaq	-184(%rbp), %rdi
	callq	__ZN4objc7runtime3Sel6as_ptr17h04b387e578f26eafE
	movq	%rax, %rsi
	.loc	1 59 54 is_stmt 0
	movb	$0, -169(%rbp)
	.loc	1 59 21
	movq	__ZN15objc_foundation5array9from_refs12register_sel3SEL17h33c5e03adfd31b66E@GOTPCREL(%rip), %rdi
	movzbl	-169(%rbp), %edx
	callq	__ZN4core4sync6atomic11AtomicUsize5store17h50b1fde0bd832e41E
	.loc	1 60 21 is_stmt 1
	movq	-184(%rbp), %rax
	movq	%rax, -200(%rbp)
Ltmp289:
LBB17_3:
	.loc	1 0 21 is_stmt 0
	movq	-536(%rbp), %rsi
	.loc	1 65 10 is_stmt 1
	movq	-200(%rbp), %rax
Ltmp290:
	.loc	2 56 23
	movq	%rax, -352(%rbp)
	movq	-352(%rbp), %rax
	movq	%rax, -520(%rbp)
Ltmp291:
	.loc	2 56 23 is_stmt 0
	movq	-520(%rbp), %rax
	movq	%rax, -488(%rbp)
	movq	-488(%rbp), %rax
	movq	%rax, -24(%rbp)
	movq	-24(%rbp), %rax
	movq	%rax, -32(%rbp)
	movq	%rsi, -8(%rbp)
Ltmp292:
	.loc	10 178 26 is_stmt 1
	movq	-32(%rbp), %rax
	movq	%rax, -16(%rbp)
	.loc	10 178 5 is_stmt 0
	movq	-16(%rbp), %rdx
	leaq	-512(%rbp), %rdi
	callq	__ZN4objc7message8platform15send_unverified17h02d968f075b129e8E
Ltmp293:
	.loc	2 56 23 is_stmt 1
	movq	-504(%rbp), %rdx
	movl	$1, %eax
	xorl	%ecx, %ecx
	cmpq	$0, %rdx
	cmoveq	%rcx, %rax
	cmpq	$0, %rax
	jne	LBB17_8
	movq	-512(%rbp), %rax
	movq	%rax, -568(%rbp)
	movq	%rax, -328(%rbp)
Ltmp294:
	.loc	2 56 23 is_stmt 0
	movq	%rax, -320(%rbp)
Ltmp295:
	.loc	2 56 23
	movq	%rax, -312(%rbp)
	leaq	l___unnamed_11(%rip), %rax
	movq	%rax, -240(%rbp)
	movq	$23, -232(%rbp)
Ltmp296:
	.loc	1 54 36 is_stmt 1
	movb	$0, -257(%rbp)
	.loc	1 54 27 is_stmt 0
	movq	__ZN15objc_foundation5array9from_refs12register_sel3SEL17hbdbf53c6156fc087E@GOTPCREL(%rip), %rdi
	movzbl	-257(%rbp), %esi
	callq	__ZN4core4sync6atomic11AtomicUsize4load17h443fe49fcf4c7482E
	movq	%rax, %rdi
	movq	%rdi, -560(%rbp)
	movq	%rdi, -224(%rbp)
Ltmp297:
	.loc	1 57 20 is_stmt 1
	callq	__ZN4core3ptr9const_ptr33_$LT$impl$u20$$BP$const$u20$T$GT$7is_null17ha546985450a90861E
	testb	$1, %al
	jne	LBB17_6
	.loc	1 0 20 is_stmt 0
	movq	-560(%rbp), %rdi
	.loc	1 62 21 is_stmt 1
	callq	__ZN4objc7runtime3Sel8from_ptr17h6cc59271a094997cE
	movq	%rax, -208(%rbp)
	movq	-208(%rbp), %rax
	movq	%rax, -272(%rbp)
	jmp	LBB17_7
LBB17_6:
	.loc	1 0 21 is_stmt 0
	leaq	l___unnamed_11(%rip), %rax
	movq	%rax, -112(%rbp)
	movq	$23, -104(%rbp)
	.loc	1 58 31 is_stmt 1
	leaq	l___unnamed_11(%rip), %rdi
	callq	_sel_registerName
	movq	%rax, -216(%rbp)
	movq	-216(%rbp), %rax
	movq	%rax, -256(%rbp)
Ltmp298:
	.loc	1 59 31
	leaq	-256(%rbp), %rdi
	callq	__ZN4objc7runtime3Sel6as_ptr17h04b387e578f26eafE
	movq	%rax, %rsi
	.loc	1 59 54 is_stmt 0
	movb	$0, -241(%rbp)
	.loc	1 59 21
	movq	__ZN15objc_foundation5array9from_refs12register_sel3SEL17hbdbf53c6156fc087E@GOTPCREL(%rip), %rdi
	movzbl	-241(%rbp), %edx
	callq	__ZN4core4sync6atomic11AtomicUsize5store17h50b1fde0bd832e41E
	.loc	1 60 21 is_stmt 1
	movq	-256(%rbp), %rax
	movq	%rax, -272(%rbp)
Ltmp299:
LBB17_7:
	.loc	1 0 21 is_stmt 0
	movq	-568(%rbp), %rsi
	movq	-544(%rbp), %rax
	movq	-552(%rbp), %rcx
	.loc	1 65 10 is_stmt 1
	movq	-272(%rbp), %rdx
Ltmp300:
	.loc	2 57 23
	movq	%rdx, -304(%rbp)
	movq	-304(%rbp), %rdx
	movq	%rdx, -456(%rbp)
Ltmp301:
	.loc	2 57 23 is_stmt 0
	movq	-456(%rbp), %rdx
	movq	%rdx, -424(%rbp)
	movq	%rcx, -96(%rbp)
	movq	%rax, -88(%rbp)
	movq	%rcx, -416(%rbp)
	movq	%rax, -408(%rbp)
	movq	-424(%rbp), %rax
	movq	-416(%rbp), %rcx
	movq	-408(%rbp), %r8
	movq	%rax, -72(%rbp)
	movq	-72(%rbp), %rax
	movq	%rax, -80(%rbp)
	movq	%rsi, -56(%rbp)
	movq	%rcx, -48(%rbp)
	movq	%r8, -40(%rbp)
Ltmp302:
	.loc	10 178 26 is_stmt 1
	movq	-80(%rbp), %rax
	movq	%rax, -64(%rbp)
	.loc	10 178 5 is_stmt 0
	movq	-64(%rbp), %rdx
	leaq	-448(%rbp), %rdi
	callq	__ZN4objc7message8platform15send_unverified17h13b131836b41fd49E
Ltmp303:
	.loc	2 57 23 is_stmt 1
	movq	-440(%rbp), %rdx
	movl	$1, %eax
	xorl	%ecx, %ecx
	cmpq	$0, %rdx
	cmoveq	%rcx, %rax
	cmpq	$0, %rax
	je	LBB17_14
	jmp	LBB17_15
Ltmp304:
LBB17_8:
	.loc	2 56 23
	movq	-496(%rbp), %rax
	movq	%rax, -464(%rbp)
	movq	-512(%rbp), %rax
	movq	-504(%rbp), %rcx
	movq	%rcx, -472(%rbp)
	movq	%rax, -480(%rbp)
Ltmp274:
Ltmp305:
	.loc	2 56 23 is_stmt 0
	leaq	l___unnamed_12(%rip), %rsi
	leaq	-480(%rbp), %rdi
	callq	__ZN4core9panicking13panic_display17h0e09fb0b7d155fc4E
Ltmp275:
	jmp	LBB17_11
Ltmp306:
LBB17_9:
Ltmp277:
	.loc	2 0 23
	leaq	-480(%rbp), %rdi
	.loc	2 56 23
	callq	__ZN4core3ptr48drop_in_place$LT$objc..message..MessageError$GT$17h5c4247deb9137b06E
Ltmp278:
	jmp	LBB17_13
Ltmp307:
LBB17_10:
Ltmp276:
	.loc	2 0 23
	movq	%rax, %rcx
	movl	%edx, %eax
	movq	%rcx, -344(%rbp)
	movl	%eax, -336(%rbp)
	jmp	LBB17_9
LBB17_11:
	ud2
LBB17_12:
Ltmp284:
	.loc	2 54 1 is_stmt 1
	callq	__ZN4core9panicking19panic_cannot_unwind17h1fbca7e1d7f56ae1E
LBB17_13:
	movq	-344(%rbp), %rdi
	callq	__Unwind_Resume
LBB17_14:
Ltmp308:
	.loc	2 57 23
	movq	-448(%rbp), %rdi
	movq	%rdi, -296(%rbp)
Ltmp309:
	.loc	2 57 23 is_stmt 0
	movq	%rdi, -288(%rbp)
Ltmp310:
	.loc	2 57 23
	movq	%rdi, -280(%rbp)
Ltmp311:
	.loc	2 59 5 is_stmt 1
	callq	__ZN7objc_id2id15Id$LT$T$C$O$GT$17from_retained_ptr17hccac50c79727008bE
Ltmp312:
	.loc	2 60 2
	addq	$576, %rsp
	popq	%rbp
	retq
LBB17_15:
Ltmp313:
	.loc	2 57 23
	movq	-432(%rbp), %rax
	movq	%rax, -384(%rbp)
	movq	-448(%rbp), %rax
	movq	-440(%rbp), %rcx
	movq	%rcx, -392(%rbp)
	movq	%rax, -400(%rbp)
Ltmp279:
Ltmp314:
	.loc	2 57 23 is_stmt 0
	leaq	l___unnamed_13(%rip), %rsi
	leaq	-400(%rbp), %rdi
	callq	__ZN4core9panicking13panic_display17h0e09fb0b7d155fc4E
Ltmp280:
	jmp	LBB17_11
Ltmp315:
LBB17_16:
Ltmp282:
	.loc	2 0 23
	leaq	-400(%rbp), %rdi
	.loc	2 57 23
	callq	__ZN4core3ptr48drop_in_place$LT$objc..message..MessageError$GT$17h5c4247deb9137b06E
Ltmp283:
	jmp	LBB17_13
Ltmp316:
LBB17_17:
Ltmp281:
	.loc	2 0 23
	movq	%rax, %rcx
	movl	%edx, %eax
	movq	%rcx, -344(%rbp)
	movl	%eax, -336(%rbp)
	jmp	LBB17_16
Lfunc_end17:
	.cfi_endproc
	.section	__TEXT,__gcc_except_tab
	.p2align	2
GCC_except_table17:
Lexception9:
	.byte	255
	.byte	255
	.byte	1
	.uleb128 Lcst_end9-Lcst_begin9
Lcst_begin9:
	.uleb128 Lfunc_begin17-Lfunc_begin17
	.uleb128 Ltmp274-Lfunc_begin17
	.byte	0
	.byte	0
	.uleb128 Ltmp274-Lfunc_begin17
	.uleb128 Ltmp275-Ltmp274
	.uleb128 Ltmp276-Lfunc_begin17
	.byte	0
	.uleb128 Ltmp277-Lfunc_begin17
	.uleb128 Ltmp278-Ltmp277
	.uleb128 Ltmp284-Lfunc_begin17
	.byte	0
	.uleb128 Ltmp278-Lfunc_begin17
	.uleb128 Ltmp279-Ltmp278
	.byte	0
	.byte	0
	.uleb128 Ltmp279-Lfunc_begin17
	.uleb128 Ltmp280-Ltmp279
	.uleb128 Ltmp281-Lfunc_begin17
	.byte	0
	.uleb128 Ltmp282-Lfunc_begin17
	.uleb128 Ltmp283-Ltmp282
	.uleb128 Ltmp284-Lfunc_begin17
	.byte	0
Lcst_end9:
	.p2align	2

	.section	__TEXT,__text,regular,pure_instructions
	.globl	__ZN15objc_foundation6object9INSObject3new17h587b63a034b187b9E
	.p2align	4, 0x90
__ZN15objc_foundation6object9INSObject3new17h587b63a034b187b9E:
Lfunc_begin18:
	.file	11 "/Users/natalie/.cargo/registry/src/github.com-1ecc6299db9ec823/objc-foundation-0.1.1/src" "object.rs"
	.loc	11 45 0 is_stmt 1
	.cfi_startproc
	.cfi_personality 155, _rust_eh_personality
	.cfi_lsda 16, Lexception10
	pushq	%rbp
	.cfi_def_cfa_offset 16
	.cfi_offset %rbp, -16
	movq	%rsp, %rbp
	.cfi_def_cfa_register %rbp
	subq	$496, %rsp
Ltmp328:
	.loc	11 46 19 prologue_end
	callq	__ZN109_$LT$objc_foundation..dictionary..NSDictionary$LT$K$C$V$GT$$u20$as$u20$objc_foundation..object..INSObject$GT$5class17h5fac3c7593ed3cd7E
	movq	%rax, -472(%rbp)
	movq	%rax, -328(%rbp)
	leaq	l___unnamed_10(%rip), %rax
	movq	%rax, -208(%rbp)
	movq	$6, -200(%rbp)
Ltmp329:
	.loc	1 54 36
	movb	$0, -225(%rbp)
	.loc	1 54 27 is_stmt 0
	movq	__ZN15objc_foundation6object9INSObject3new12register_sel3SEL17h8702c938989f7ee3E@GOTPCREL(%rip), %rdi
	movzbl	-225(%rbp), %esi
	callq	__ZN4core4sync6atomic11AtomicUsize4load17h443fe49fcf4c7482E
	movq	%rax, %rdi
	movq	%rdi, -464(%rbp)
	movq	%rdi, -192(%rbp)
Ltmp330:
	.loc	1 57 20 is_stmt 1
	callq	__ZN4core3ptr9const_ptr33_$LT$impl$u20$$BP$const$u20$T$GT$7is_null17ha546985450a90861E
	testb	$1, %al
	jne	LBB18_2
	.loc	1 0 20 is_stmt 0
	movq	-464(%rbp), %rdi
	.loc	1 62 21 is_stmt 1
	callq	__ZN4objc7runtime3Sel8from_ptr17h6cc59271a094997cE
	movq	%rax, -176(%rbp)
	movq	-176(%rbp), %rax
	movq	%rax, -240(%rbp)
	jmp	LBB18_3
LBB18_2:
	.loc	1 0 21 is_stmt 0
	leaq	l___unnamed_10(%rip), %rax
	movq	%rax, -80(%rbp)
	movq	$6, -72(%rbp)
	.loc	1 58 31 is_stmt 1
	leaq	l___unnamed_10(%rip), %rdi
	callq	_sel_registerName
	movq	%rax, -184(%rbp)
	movq	-184(%rbp), %rax
	movq	%rax, -224(%rbp)
Ltmp331:
	.loc	1 59 31
	leaq	-224(%rbp), %rdi
	callq	__ZN4objc7runtime3Sel6as_ptr17h04b387e578f26eafE
	movq	%rax, %rsi
	.loc	1 59 54 is_stmt 0
	movb	$0, -209(%rbp)
	.loc	1 59 21
	movq	__ZN15objc_foundation6object9INSObject3new12register_sel3SEL17h8702c938989f7ee3E@GOTPCREL(%rip), %rdi
	movzbl	-209(%rbp), %edx
	callq	__ZN4core4sync6atomic11AtomicUsize5store17h50b1fde0bd832e41E
	.loc	1 60 21 is_stmt 1
	movq	-224(%rbp), %rax
	movq	%rax, -240(%rbp)
Ltmp332:
LBB18_3:
	.loc	1 0 21 is_stmt 0
	movq	-472(%rbp), %rsi
	.loc	1 65 10 is_stmt 1
	movq	-240(%rbp), %rax
Ltmp333:
	.loc	11 48 34
	movq	%rax, -320(%rbp)
	movq	-320(%rbp), %rax
	movq	%rax, -456(%rbp)
Ltmp334:
	.loc	11 48 34 is_stmt 0
	movq	-456(%rbp), %rax
	movq	%rax, -424(%rbp)
	movq	-424(%rbp), %rax
	movq	%rax, -24(%rbp)
	movq	-24(%rbp), %rax
	movq	%rax, -32(%rbp)
	movq	%rsi, -8(%rbp)
Ltmp335:
	.loc	10 178 26 is_stmt 1
	movq	-32(%rbp), %rax
	movq	%rax, -16(%rbp)
	.loc	10 178 5 is_stmt 0
	movq	-16(%rbp), %rdx
	leaq	-448(%rbp), %rdi
	callq	__ZN4objc7message8platform15send_unverified17hfa08ac49d0ecf637E
Ltmp336:
	.loc	11 48 34 is_stmt 1
	movq	-440(%rbp), %rdx
	movl	$1, %eax
	xorl	%ecx, %ecx
	cmpq	$0, %rdx
	cmoveq	%rcx, %rax
	cmpq	$0, %rax
	jne	LBB18_8
	movq	-448(%rbp), %rax
	movq	%rax, -488(%rbp)
	movq	%rax, -296(%rbp)
Ltmp337:
	.loc	11 48 34 is_stmt 0
	movq	%rax, -288(%rbp)
Ltmp338:
	.loc	11 48 34
	movq	%rax, -280(%rbp)
	leaq	l___unnamed_14(%rip), %rax
	movq	%rax, -136(%rbp)
	movq	$5, -128(%rbp)
Ltmp339:
	.loc	1 54 36 is_stmt 1
	movb	$0, -153(%rbp)
	.loc	1 54 27 is_stmt 0
	movq	__ZN15objc_foundation6object9INSObject3new12register_sel3SEL17h48816e9b50f7c805E@GOTPCREL(%rip), %rdi
	movzbl	-153(%rbp), %esi
	callq	__ZN4core4sync6atomic11AtomicUsize4load17h443fe49fcf4c7482E
	movq	%rax, %rdi
	movq	%rdi, -480(%rbp)
	movq	%rdi, -120(%rbp)
Ltmp340:
	.loc	1 57 20 is_stmt 1
	callq	__ZN4core3ptr9const_ptr33_$LT$impl$u20$$BP$const$u20$T$GT$7is_null17ha546985450a90861E
	testb	$1, %al
	jne	LBB18_6
	.loc	1 0 20 is_stmt 0
	movq	-480(%rbp), %rdi
	.loc	1 62 21 is_stmt 1
	callq	__ZN4objc7runtime3Sel8from_ptr17h6cc59271a094997cE
	movq	%rax, -104(%rbp)
	movq	-104(%rbp), %rax
	movq	%rax, -168(%rbp)
	jmp	LBB18_7
LBB18_6:
	.loc	1 0 21 is_stmt 0
	leaq	l___unnamed_14(%rip), %rax
	movq	%rax, -96(%rbp)
	movq	$5, -88(%rbp)
	.loc	1 58 31 is_stmt 1
	leaq	l___unnamed_14(%rip), %rdi
	callq	_sel_registerName
	movq	%rax, -112(%rbp)
	movq	-112(%rbp), %rax
	movq	%rax, -152(%rbp)
Ltmp341:
	.loc	1 59 31
	leaq	-152(%rbp), %rdi
	callq	__ZN4objc7runtime3Sel6as_ptr17h04b387e578f26eafE
	movq	%rax, %rsi
	.loc	1 59 54 is_stmt 0
	movb	$0, -137(%rbp)
	.loc	1 59 21
	movq	__ZN15objc_foundation6object9INSObject3new12register_sel3SEL17h48816e9b50f7c805E@GOTPCREL(%rip), %rdi
	movzbl	-137(%rbp), %edx
	callq	__ZN4core4sync6atomic11AtomicUsize5store17h50b1fde0bd832e41E
	.loc	1 60 21 is_stmt 1
	movq	-152(%rbp), %rax
	movq	%rax, -168(%rbp)
Ltmp342:
LBB18_7:
	.loc	1 0 21 is_stmt 0
	movq	-488(%rbp), %rsi
	.loc	1 65 10 is_stmt 1
	movq	-168(%rbp), %rax
Ltmp343:
	.loc	11 49 34
	movq	%rax, -272(%rbp)
	movq	-272(%rbp), %rax
	movq	%rax, -392(%rbp)
Ltmp344:
	.loc	11 49 34 is_stmt 0
	movq	-392(%rbp), %rax
	movq	%rax, -360(%rbp)
	movq	-360(%rbp), %rax
	movq	%rax, -56(%rbp)
	movq	-56(%rbp), %rax
	movq	%rax, -64(%rbp)
	movq	%rsi, -40(%rbp)
Ltmp345:
	.loc	10 178 26 is_stmt 1
	movq	-64(%rbp), %rax
	movq	%rax, -48(%rbp)
	.loc	10 178 5 is_stmt 0
	movq	-48(%rbp), %rdx
	leaq	-384(%rbp), %rdi
	callq	__ZN4objc7message8platform15send_unverified17hce4d0546369784c5E
Ltmp346:
	.loc	11 49 34 is_stmt 1
	movq	-376(%rbp), %rdx
	movl	$1, %eax
	xorl	%ecx, %ecx
	cmpq	$0, %rdx
	cmoveq	%rcx, %rax
	cmpq	$0, %rax
	je	LBB18_14
	jmp	LBB18_15
Ltmp347:
LBB18_8:
	.loc	11 48 34
	movq	-432(%rbp), %rax
	movq	%rax, -400(%rbp)
	movq	-448(%rbp), %rax
	movq	-440(%rbp), %rcx
	movq	%rcx, -408(%rbp)
	movq	%rax, -416(%rbp)
Ltmp317:
Ltmp348:
	.loc	11 48 34 is_stmt 0
	leaq	l___unnamed_15(%rip), %rsi
	leaq	-416(%rbp), %rdi
	callq	__ZN4core9panicking13panic_display17h0e09fb0b7d155fc4E
Ltmp318:
	jmp	LBB18_11
Ltmp349:
LBB18_9:
Ltmp320:
	.loc	11 0 34
	leaq	-416(%rbp), %rdi
	.loc	11 48 34
	callq	__ZN4core3ptr48drop_in_place$LT$objc..message..MessageError$GT$17h5c4247deb9137b06E
Ltmp321:
	jmp	LBB18_13
Ltmp350:
LBB18_10:
Ltmp319:
	.loc	11 0 34
	movq	%rax, %rcx
	movl	%edx, %eax
	movq	%rcx, -312(%rbp)
	movl	%eax, -304(%rbp)
	jmp	LBB18_9
LBB18_11:
	ud2
LBB18_12:
Ltmp327:
	.loc	11 45 5 is_stmt 1
	callq	__ZN4core9panicking19panic_cannot_unwind17h1fbca7e1d7f56ae1E
LBB18_13:
	movq	-312(%rbp), %rdi
	callq	__Unwind_Resume
LBB18_14:
Ltmp351:
	.loc	11 49 34
	movq	-384(%rbp), %rdi
	movq	%rdi, -264(%rbp)
Ltmp352:
	.loc	11 49 34 is_stmt 0
	movq	%rdi, -256(%rbp)
Ltmp353:
	.loc	11 49 34
	movq	%rdi, -248(%rbp)
Ltmp354:
	.loc	11 50 13 is_stmt 1
	callq	__ZN7objc_id2id15Id$LT$T$C$O$GT$17from_retained_ptr17h39ddf22e5a3cbb51E
Ltmp355:
	.loc	11 52 6
	addq	$496, %rsp
	popq	%rbp
	retq
LBB18_15:
Ltmp356:
	.loc	11 49 34
	movq	-368(%rbp), %rax
	movq	%rax, -336(%rbp)
	movq	-384(%rbp), %rax
	movq	-376(%rbp), %rcx
	movq	%rcx, -344(%rbp)
	movq	%rax, -352(%rbp)
Ltmp322:
Ltmp357:
	.loc	11 49 34 is_stmt 0
	leaq	l___unnamed_16(%rip), %rsi
	leaq	-352(%rbp), %rdi
	callq	__ZN4core9panicking13panic_display17h0e09fb0b7d155fc4E
Ltmp323:
	jmp	LBB18_11
Ltmp358:
LBB18_16:
Ltmp325:
	.loc	11 0 34
	leaq	-352(%rbp), %rdi
	.loc	11 49 34
	callq	__ZN4core3ptr48drop_in_place$LT$objc..message..MessageError$GT$17h5c4247deb9137b06E
Ltmp326:
	jmp	LBB18_13
Ltmp359:
LBB18_17:
Ltmp324:
	.loc	11 0 34
	movq	%rax, %rcx
	movl	%edx, %eax
	movq	%rcx, -312(%rbp)
	movl	%eax, -304(%rbp)
	jmp	LBB18_16
Lfunc_end18:
	.cfi_endproc
	.section	__TEXT,__gcc_except_tab
	.p2align	2
GCC_except_table18:
Lexception10:
	.byte	255
	.byte	255
	.byte	1
	.uleb128 Lcst_end10-Lcst_begin10
Lcst_begin10:
	.uleb128 Lfunc_begin18-Lfunc_begin18
	.uleb128 Ltmp317-Lfunc_begin18
	.byte	0
	.byte	0
	.uleb128 Ltmp317-Lfunc_begin18
	.uleb128 Ltmp318-Ltmp317
	.uleb128 Ltmp319-Lfunc_begin18
	.byte	0
	.uleb128 Ltmp320-Lfunc_begin18
	.uleb128 Ltmp321-Ltmp320
	.uleb128 Ltmp327-Lfunc_begin18
	.byte	0
	.uleb128 Ltmp321-Lfunc_begin18
	.uleb128 Ltmp322-Ltmp321
	.byte	0
	.byte	0
	.uleb128 Ltmp322-Lfunc_begin18
	.uleb128 Ltmp323-Ltmp322
	.uleb128 Ltmp324-Lfunc_begin18
	.byte	0
	.uleb128 Ltmp325-Lfunc_begin18
	.uleb128 Ltmp326-Ltmp325
	.uleb128 Ltmp327-Lfunc_begin18
	.byte	0
Lcst_end10:
	.p2align	2

	.section	__TEXT,__text,regular,pure_instructions
	.globl	__ZN15objc_foundation6string9INSString8from_str17h7780ea8b349c094bE
	.p2align	4, 0x90
__ZN15objc_foundation6string9INSString8from_str17h7780ea8b349c094bE:
Lfunc_begin19:
	.file	12 "/Users/natalie/.cargo/registry/src/github.com-1ecc6299db9ec823/objc-foundation-0.1.1/src" "string.rs"
	.loc	12 52 0 is_stmt 1
	.cfi_startproc
	.cfi_personality 155, _rust_eh_personality
	.cfi_lsda 16, Lexception11
	pushq	%rbp
	.cfi_def_cfa_offset 16
	.cfi_offset %rbp, -16
	movq	%rsp, %rbp
	.cfi_def_cfa_register %rbp
	subq	$592, %rsp
	movq	%rdi, -568(%rbp)
	movq	%rsi, -560(%rbp)
	movq	%rdi, -384(%rbp)
	movq	%rsi, -376(%rbp)
Ltmp371:
	.loc	12 53 19 prologue_end
	callq	__ZN88_$LT$objc_foundation..string..NSString$u20$as$u20$objc_foundation..object..INSObject$GT$5class17h9089236a4e258ca5E
	movq	%rax, -552(%rbp)
	movq	%rax, -368(%rbp)
	leaq	l___unnamed_10(%rip), %rax
	movq	%rax, -176(%rbp)
	movq	$6, -168(%rbp)
Ltmp372:
	.loc	1 54 36
	movb	$0, -193(%rbp)
	.loc	1 54 27 is_stmt 0
	movq	__ZN15objc_foundation6string9INSString8from_str12register_sel3SEL17h308bf69fb39176bcE@GOTPCREL(%rip), %rdi
	movzbl	-193(%rbp), %esi
	callq	__ZN4core4sync6atomic11AtomicUsize4load17h443fe49fcf4c7482E
	movq	%rax, %rdi
	movq	%rdi, -544(%rbp)
	movq	%rdi, -160(%rbp)
Ltmp373:
	.loc	1 57 20 is_stmt 1
	callq	__ZN4core3ptr9const_ptr33_$LT$impl$u20$$BP$const$u20$T$GT$7is_null17ha546985450a90861E
	testb	$1, %al
	jne	LBB19_2
	.loc	1 0 20 is_stmt 0
	movq	-544(%rbp), %rdi
	.loc	1 62 21 is_stmt 1
	callq	__ZN4objc7runtime3Sel8from_ptr17h6cc59271a094997cE
	movq	%rax, -144(%rbp)
	movq	-144(%rbp), %rax
	movq	%rax, -208(%rbp)
	jmp	LBB19_3
LBB19_2:
	.loc	1 0 21 is_stmt 0
	leaq	l___unnamed_10(%rip), %rax
	movq	%rax, -136(%rbp)
	movq	$6, -128(%rbp)
	.loc	1 58 31 is_stmt 1
	leaq	l___unnamed_10(%rip), %rdi
	callq	_sel_registerName
	movq	%rax, -152(%rbp)
	movq	-152(%rbp), %rax
	movq	%rax, -192(%rbp)
Ltmp374:
	.loc	1 59 31
	leaq	-192(%rbp), %rdi
	callq	__ZN4objc7runtime3Sel6as_ptr17h04b387e578f26eafE
	movq	%rax, %rsi
	.loc	1 59 54 is_stmt 0
	movb	$0, -177(%rbp)
	.loc	1 59 21
	movq	__ZN15objc_foundation6string9INSString8from_str12register_sel3SEL17h308bf69fb39176bcE@GOTPCREL(%rip), %rdi
	movzbl	-177(%rbp), %edx
	callq	__ZN4core4sync6atomic11AtomicUsize5store17h50b1fde0bd832e41E
	.loc	1 60 21 is_stmt 1
	movq	-192(%rbp), %rax
	movq	%rax, -208(%rbp)
Ltmp375:
LBB19_3:
	.loc	1 0 21 is_stmt 0
	movq	-552(%rbp), %rsi
	.loc	1 65 10 is_stmt 1
	movq	-208(%rbp), %rax
Ltmp376:
	.loc	12 55 34
	movq	%rax, -360(%rbp)
	movq	-360(%rbp), %rax
	movq	%rax, -536(%rbp)
Ltmp377:
	.loc	12 55 34 is_stmt 0
	movq	-536(%rbp), %rax
	movq	%rax, -504(%rbp)
	movq	-504(%rbp), %rax
	movq	%rax, -24(%rbp)
	movq	-24(%rbp), %rax
	movq	%rax, -32(%rbp)
	movq	%rsi, -8(%rbp)
Ltmp378:
	.loc	10 178 26 is_stmt 1
	movq	-32(%rbp), %rax
	movq	%rax, -16(%rbp)
	.loc	10 178 5 is_stmt 0
	movq	-16(%rbp), %rdx
	leaq	-528(%rbp), %rdi
	callq	__ZN4objc7message8platform15send_unverified17hce159ea89d61568fE
Ltmp379:
	.loc	12 55 34 is_stmt 1
	movq	-520(%rbp), %rdx
	movl	$1, %eax
	xorl	%ecx, %ecx
	cmpq	$0, %rdx
	cmoveq	%rcx, %rax
	cmpq	$0, %rax
	jne	LBB19_8
	movq	-528(%rbp), %rax
	movq	%rax, -584(%rbp)
	movq	%rax, -336(%rbp)
Ltmp380:
	.loc	12 55 34 is_stmt 0
	movq	%rax, -328(%rbp)
Ltmp381:
	.loc	12 55 34
	movq	%rax, -320(%rbp)
	leaq	l___unnamed_17(%rip), %rax
	movq	%rax, -248(%rbp)
	movq	$31, -240(%rbp)
Ltmp382:
	.loc	1 54 36 is_stmt 1
	movb	$0, -265(%rbp)
	.loc	1 54 27 is_stmt 0
	movq	__ZN15objc_foundation6string9INSString8from_str12register_sel3SEL17hb01013495efe7115E@GOTPCREL(%rip), %rdi
	movzbl	-265(%rbp), %esi
	callq	__ZN4core4sync6atomic11AtomicUsize4load17h443fe49fcf4c7482E
	movq	%rax, %rdi
	movq	%rdi, -576(%rbp)
	movq	%rdi, -232(%rbp)
Ltmp383:
	.loc	1 57 20 is_stmt 1
	callq	__ZN4core3ptr9const_ptr33_$LT$impl$u20$$BP$const$u20$T$GT$7is_null17ha546985450a90861E
	testb	$1, %al
	jne	LBB19_6
	.loc	1 0 20 is_stmt 0
	movq	-576(%rbp), %rdi
	.loc	1 62 21 is_stmt 1
	callq	__ZN4objc7runtime3Sel8from_ptr17h6cc59271a094997cE
	movq	%rax, -216(%rbp)
	movq	-216(%rbp), %rax
	movq	%rax, -280(%rbp)
	jmp	LBB19_7
LBB19_6:
	.loc	1 0 21 is_stmt 0
	leaq	l___unnamed_17(%rip), %rax
	movq	%rax, -120(%rbp)
	movq	$31, -112(%rbp)
	.loc	1 58 31 is_stmt 1
	leaq	l___unnamed_17(%rip), %rdi
	callq	_sel_registerName
	movq	%rax, -224(%rbp)
	movq	-224(%rbp), %rax
	movq	%rax, -264(%rbp)
Ltmp384:
	.loc	1 59 31
	leaq	-264(%rbp), %rdi
	callq	__ZN4objc7runtime3Sel6as_ptr17h04b387e578f26eafE
	movq	%rax, %rsi
	.loc	1 59 54 is_stmt 0
	movb	$0, -249(%rbp)
	.loc	1 59 21
	movq	__ZN15objc_foundation6string9INSString8from_str12register_sel3SEL17hb01013495efe7115E@GOTPCREL(%rip), %rdi
	movzbl	-249(%rbp), %edx
	callq	__ZN4core4sync6atomic11AtomicUsize5store17h50b1fde0bd832e41E
	.loc	1 60 21 is_stmt 1
	movq	-264(%rbp), %rax
	movq	%rax, -280(%rbp)
Ltmp385:
LBB19_7:
	.loc	1 0 21 is_stmt 0
	movq	-568(%rbp), %rdi
	movq	-560(%rbp), %rsi
	.loc	1 65 10 is_stmt 1
	movq	-280(%rbp), %rax
Ltmp386:
	.loc	12 56 34
	movq	%rax, -312(%rbp)
	movq	-312(%rbp), %rax
	movq	%rax, -472(%rbp)
Ltmp387:
	.loc	12 56 34 is_stmt 0
	movq	-472(%rbp), %rax
	movq	%rax, -440(%rbp)
	movq	%rdi, -104(%rbp)
	movq	%rsi, -96(%rbp)
	.loc	12 57 63 is_stmt 1
	callq	__ZN4core3str21_$LT$impl$u20$str$GT$3len17h01f0923eaf8074abE
	movq	-568(%rbp), %rcx
	movq	-584(%rbp), %rsi
	.loc	12 56 34
	movq	%rcx, -432(%rbp)
	movq	%rax, -424(%rbp)
	movq	$4, -416(%rbp)
	movq	-440(%rbp), %rax
	movq	%rax, -80(%rbp)
	movq	-80(%rbp), %rax
	movq	%rax, -88(%rbp)
	movq	%rsi, -40(%rbp)
Ltmp388:
	.loc	10 178 26
	movq	-88(%rbp), %rax
	movq	%rax, -72(%rbp)
	.loc	10 178 31 is_stmt 0
	movq	-432(%rbp), %rax
	movq	%rax, -64(%rbp)
	movq	-424(%rbp), %rax
	movq	%rax, -56(%rbp)
	movq	-416(%rbp), %rax
	movq	%rax, -48(%rbp)
	.loc	10 178 5
	movq	-72(%rbp), %rdx
	leaq	-464(%rbp), %rdi
	leaq	-64(%rbp), %rcx
	callq	__ZN4objc7message8platform15send_unverified17h3348a144ce349a7eE
Ltmp389:
	.loc	12 56 34 is_stmt 1
	movq	-456(%rbp), %rdx
	movl	$1, %eax
	xorl	%ecx, %ecx
	cmpq	$0, %rdx
	cmoveq	%rcx, %rax
	cmpq	$0, %rax
	je	LBB19_14
	jmp	LBB19_15
Ltmp390:
LBB19_8:
	.loc	12 55 34
	movq	-512(%rbp), %rax
	movq	%rax, -480(%rbp)
	movq	-528(%rbp), %rax
	movq	-520(%rbp), %rcx
	movq	%rcx, -488(%rbp)
	movq	%rax, -496(%rbp)
Ltmp360:
Ltmp391:
	.loc	12 55 34 is_stmt 0
	leaq	l___unnamed_18(%rip), %rsi
	leaq	-496(%rbp), %rdi
	callq	__ZN4core9panicking13panic_display17h0e09fb0b7d155fc4E
Ltmp361:
	jmp	LBB19_11
Ltmp392:
LBB19_9:
Ltmp363:
	.loc	12 0 34
	leaq	-496(%rbp), %rdi
	.loc	12 55 34
	callq	__ZN4core3ptr48drop_in_place$LT$objc..message..MessageError$GT$17h5c4247deb9137b06E
Ltmp364:
	jmp	LBB19_13
Ltmp393:
LBB19_10:
Ltmp362:
	.loc	12 0 34
	movq	%rax, %rcx
	movl	%edx, %eax
	movq	%rcx, -352(%rbp)
	movl	%eax, -344(%rbp)
	jmp	LBB19_9
LBB19_11:
	ud2
LBB19_12:
Ltmp370:
	.loc	12 52 5 is_stmt 1
	callq	__ZN4core9panicking19panic_cannot_unwind17h1fbca7e1d7f56ae1E
LBB19_13:
	movq	-352(%rbp), %rdi
	callq	__Unwind_Resume
LBB19_14:
Ltmp394:
	.loc	12 56 34
	movq	-464(%rbp), %rdi
	movq	%rdi, -304(%rbp)
Ltmp395:
	.loc	12 56 34 is_stmt 0
	movq	%rdi, -296(%rbp)
Ltmp396:
	.loc	12 56 34
	movq	%rdi, -288(%rbp)
Ltmp397:
	.loc	12 59 13 is_stmt 1
	callq	__ZN7objc_id2id15Id$LT$T$C$O$GT$17from_retained_ptr17hffe8791a79168cd6E
Ltmp398:
	.loc	12 61 6
	addq	$592, %rsp
	popq	%rbp
	retq
LBB19_15:
Ltmp399:
	.loc	12 56 34
	movq	-448(%rbp), %rax
	movq	%rax, -392(%rbp)
	movq	-464(%rbp), %rax
	movq	-456(%rbp), %rcx
	movq	%rcx, -400(%rbp)
	movq	%rax, -408(%rbp)
Ltmp365:
Ltmp400:
	.loc	12 56 34 is_stmt 0
	leaq	l___unnamed_19(%rip), %rsi
	leaq	-408(%rbp), %rdi
	callq	__ZN4core9panicking13panic_display17h0e09fb0b7d155fc4E
Ltmp366:
	jmp	LBB19_11
Ltmp401:
LBB19_16:
Ltmp368:
	.loc	12 0 34
	leaq	-408(%rbp), %rdi
	.loc	12 56 34
	callq	__ZN4core3ptr48drop_in_place$LT$objc..message..MessageError$GT$17h5c4247deb9137b06E
Ltmp369:
	jmp	LBB19_13
Ltmp402:
LBB19_17:
Ltmp367:
	.loc	12 0 34
	movq	%rax, %rcx
	movl	%edx, %eax
	movq	%rcx, -352(%rbp)
	movl	%eax, -344(%rbp)
	jmp	LBB19_16
Lfunc_end19:
	.cfi_endproc
	.section	__TEXT,__gcc_except_tab
	.p2align	2
GCC_except_table19:
Lexception11:
	.byte	255
	.byte	255
	.byte	1
	.uleb128 Lcst_end11-Lcst_begin11
Lcst_begin11:
	.uleb128 Lfunc_begin19-Lfunc_begin19
	.uleb128 Ltmp360-Lfunc_begin19
	.byte	0
	.byte	0
	.uleb128 Ltmp360-Lfunc_begin19
	.uleb128 Ltmp361-Ltmp360
	.uleb128 Ltmp362-Lfunc_begin19
	.byte	0
	.uleb128 Ltmp363-Lfunc_begin19
	.uleb128 Ltmp364-Ltmp363
	.uleb128 Ltmp370-Lfunc_begin19
	.byte	0
	.uleb128 Ltmp364-Lfunc_begin19
	.uleb128 Ltmp365-Ltmp364
	.byte	0
	.byte	0
	.uleb128 Ltmp365-Lfunc_begin19
	.uleb128 Ltmp366-Ltmp365
	.uleb128 Ltmp367-Lfunc_begin19
	.byte	0
	.uleb128 Ltmp368-Lfunc_begin19
	.uleb128 Ltmp369-Ltmp368
	.uleb128 Ltmp370-Lfunc_begin19
	.byte	0
Lcst_end11:
	.p2align	2

	.section	__TEXT,__text,regular,pure_instructions
	.globl	__ZN44_$LT$$RF$T$u20$as$u20$core..fmt..Display$GT$3fmt17h5fd88cbc830cdc71E
	.p2align	4, 0x90
__ZN44_$LT$$RF$T$u20$as$u20$core..fmt..Display$GT$3fmt17h5fd88cbc830cdc71E:
Lfunc_begin20:
	.file	13 "/rustc/2c8cc343237b8f7d5a3c3703e3a87f2eb2c54a74/library/core/src/fmt" "mod.rs"
	.loc	13 2377 0 is_stmt 1
	.cfi_startproc
	pushq	%rbp
	.cfi_def_cfa_offset 16
	.cfi_offset %rbp, -16
	movq	%rsp, %rbp
	.cfi_def_cfa_register %rbp
	subq	$16, %rsp
	movq	%rdi, -16(%rbp)
	movq	%rsi, -8(%rbp)
Ltmp403:
	.loc	13 2377 71 prologue_end
	movq	(%rdi), %rdi
	.loc	13 2377 62 is_stmt 0
	callq	__ZN60_$LT$alloc..string..String$u20$as$u20$core..fmt..Display$GT$3fmt17hdb42f8ccca237410E
	.loc	13 2377 84
	andb	$1, %al
	movzbl	%al, %eax
	addq	$16, %rsp
	popq	%rbp
	retq
Ltmp404:
Lfunc_end20:
	.cfi_endproc

	.globl	__ZN44_$LT$$RF$T$u20$as$u20$core..fmt..Display$GT$3fmt17h8bc66915d5a6e08eE
	.p2align	4, 0x90
__ZN44_$LT$$RF$T$u20$as$u20$core..fmt..Display$GT$3fmt17h8bc66915d5a6e08eE:
Lfunc_begin21:
	.loc	13 2377 0 is_stmt 1
	.cfi_startproc
	pushq	%rbp
	.cfi_def_cfa_offset 16
	.cfi_offset %rbp, -16
	movq	%rsp, %rbp
	.cfi_def_cfa_register %rbp
	subq	$16, %rsp
	movq	%rdi, -16(%rbp)
	movq	%rsi, -8(%rbp)
Ltmp405:
	.loc	13 2377 71 prologue_end
	movq	(%rdi), %rdi
	.loc	13 2377 62 is_stmt 0
	callq	__ZN61_$LT$arboard..common..Error$u20$as$u20$core..fmt..Display$GT$3fmt17h7f40587f9a567995E
	.loc	13 2377 84
	andb	$1, %al
	movzbl	%al, %eax
	addq	$16, %rsp
	popq	%rbp
	retq
Ltmp406:
Lfunc_end21:
	.cfi_endproc

	.globl	__ZN4core3fmt10ArgumentV111new_display17h2dbe09d2d3728e51E
	.p2align	4, 0x90
__ZN4core3fmt10ArgumentV111new_display17h2dbe09d2d3728e51E:
Lfunc_begin22:
	.loc	13 327 0 is_stmt 1
	.cfi_startproc
	pushq	%rbp
	.cfi_def_cfa_offset 16
	.cfi_offset %rbp, -16
	movq	%rsp, %rbp
	.cfi_def_cfa_register %rbp
	subq	$56, %rsp
	movq	%rdi, -40(%rbp)
Ltmp407:
	.loc	13 328 23 prologue_end
	movq	%rdi, -32(%rbp)
	.loc	13 328 26 is_stmt 0
	leaq	__ZN44_$LT$$RF$T$u20$as$u20$core..fmt..Display$GT$3fmt17h5fd88cbc830cdc71E(%rip), %rax
	movq	%rax, -24(%rbp)
Ltmp408:
	.loc	13 347 42 is_stmt 1
	movq	%rax, -16(%rbp)
	movq	-16(%rbp), %rax
	.loc	13 347 68 is_stmt 0
	movq	%rdi, -8(%rbp)
	movq	-8(%rbp), %rcx
	.loc	13 347 18
	movq	%rcx, -56(%rbp)
	movq	%rax, -48(%rbp)
Ltmp409:
	.loc	13 329 10 is_stmt 1
	movq	-56(%rbp), %rax
	movq	-48(%rbp), %rdx
	addq	$56, %rsp
	popq	%rbp
	retq
Ltmp410:
Lfunc_end22:
	.cfi_endproc

	.globl	__ZN4core3fmt10ArgumentV111new_display17h929747971ff4b775E
	.p2align	4, 0x90
__ZN4core3fmt10ArgumentV111new_display17h929747971ff4b775E:
Lfunc_begin23:
	.loc	13 327 0
	.cfi_startproc
	pushq	%rbp
	.cfi_def_cfa_offset 16
	.cfi_offset %rbp, -16
	movq	%rsp, %rbp
	.cfi_def_cfa_register %rbp
	subq	$56, %rsp
	movq	%rdi, -40(%rbp)
Ltmp411:
	.loc	13 328 23 prologue_end
	movq	%rdi, -32(%rbp)
	.loc	13 328 26 is_stmt 0
	leaq	__ZN44_$LT$$RF$T$u20$as$u20$core..fmt..Display$GT$3fmt17h8bc66915d5a6e08eE(%rip), %rax
	movq	%rax, -24(%rbp)
Ltmp412:
	.loc	13 347 42 is_stmt 1
	movq	%rax, -16(%rbp)
	movq	-16(%rbp), %rax
	.loc	13 347 68 is_stmt 0
	movq	%rdi, -8(%rbp)
	movq	-8(%rbp), %rcx
	.loc	13 347 18
	movq	%rcx, -56(%rbp)
	movq	%rax, -48(%rbp)
Ltmp413:
	.loc	13 329 10 is_stmt 1
	movq	-56(%rbp), %rax
	movq	-48(%rbp), %rdx
	addq	$56, %rsp
	popq	%rbp
	retq
Ltmp414:
Lfunc_end23:
	.cfi_endproc

	.p2align	4, 0x90
__ZN4core3fmt9Arguments6new_v117hf41603d116161827E:
Lfunc_begin24:
	.loc	13 399 0
	.cfi_startproc
	pushq	%rbp
	.cfi_def_cfa_offset 16
	.cfi_offset %rbp, -16
	movq	%rsp, %rbp
	.cfi_def_cfa_register %rbp
	subq	$160, %rsp
	movq	%r8, -152(%rbp)
	movq	%rcx, -144(%rbp)
	movq	%rdx, -136(%rbp)
	movq	%rsi, -128(%rbp)
	movq	%rdi, -120(%rbp)
	movq	%rdi, -112(%rbp)
	movq	%rsi, -32(%rbp)
	movq	%rdx, -24(%rbp)
	movq	%rcx, -16(%rbp)
	movq	%r8, -8(%rbp)
Ltmp415:
	.loc	13 400 12 prologue_end
	cmpq	%r8, %rdx
	jb	LBB24_2
	.loc	13 0 12 is_stmt 0
	movq	-136(%rbp), %rax
	movq	-152(%rbp), %rcx
	.loc	13 400 56
	addq	$1, %rcx
	.loc	13 400 41
	cmpq	%rcx, %rax
	seta	%al
	.loc	13 400 12
	andb	$1, %al
	movb	%al, -97(%rbp)
	jmp	LBB24_3
LBB24_2:
	movb	$1, -97(%rbp)
LBB24_3:
	testb	$1, -97(%rbp)
	jne	LBB24_5
	.loc	13 0 12
	movq	-112(%rbp), %rax
	movq	-120(%rbp), %rcx
	movq	-152(%rbp), %rdx
	movq	-144(%rbp), %rsi
	movq	-136(%rbp), %rdi
	movq	-128(%rbp), %r8
	.loc	13 403 34 is_stmt 1
	movq	$0, -48(%rbp)
	.loc	13 403 9 is_stmt 0
	movq	%r8, 16(%rcx)
	movq	%rdi, 24(%rcx)
	movq	-48(%rbp), %r8
	movq	-40(%rbp), %rdi
	movq	%r8, (%rcx)
	movq	%rdi, 8(%rcx)
	movq	%rsi, 32(%rcx)
	movq	%rdx, 40(%rcx)
	.loc	13 404 6 is_stmt 1
	addq	$160, %rsp
	popq	%rbp
	retq
LBB24_5:
	.loc	13 401 13
	leaq	l___unnamed_20(%rip), %rsi
	leaq	l___unnamed_4(%rip), %rcx
	xorl	%eax, %eax
	movl	%eax, %r8d
	leaq	-96(%rbp), %rdi
	movq	%rdi, -160(%rbp)
	movl	$1, %edx
	callq	__ZN4core3fmt9Arguments6new_v117hf41603d116161827E
	movq	-160(%rbp), %rdi
	leaq	l___unnamed_21(%rip), %rsi
	callq	__ZN4core9panicking9panic_fmt17h9b5d807e24bcaaedE
Ltmp416:
Lfunc_end24:
	.cfi_endproc

	.p2align	4, 0x90
__ZN4core3num23_$LT$impl$u20$usize$GT$11checked_add17ha5dd7a9f766afd52E:
Lfunc_begin25:
	.file	14 "/rustc/2c8cc343237b8f7d5a3c3703e3a87f2eb2c54a74/library/core/src/num" "uint_macros.rs"
	.loc	14 442 0
	.cfi_startproc
	pushq	%rbp
	.cfi_def_cfa_offset 16
	.cfi_offset %rbp, -16
	movq	%rsp, %rbp
	.cfi_def_cfa_register %rbp
	subq	$120, %rsp
	movq	%rdi, -80(%rbp)
	movq	%rsi, -72(%rbp)
Ltmp417:
	.loc	14 443 26 prologue_end
	movq	%rdi, -64(%rbp)
	.loc	14 443 47 is_stmt 0
	movq	%rsi, -56(%rbp)
Ltmp418:
	.loc	14 1479 26 is_stmt 1
	addq	%rsi, %rdi
	setb	%al
	andb	$1, %al
	movq	%rdi, -48(%rbp)
	movb	%al, -40(%rbp)
	movq	-48(%rbp), %rcx
	movb	-40(%rbp), %al
	.loc	14 1479 18 is_stmt 0
	movq	%rcx, -32(%rbp)
	.loc	14 1479 21
	movb	%al, %dl
	andb	$1, %dl
	movb	%dl, -17(%rbp)
Ltmp419:
	.loc	14 1480 13 is_stmt 1
	movq	%rcx, -96(%rbp)
	andb	$1, %al
	movb	%al, -88(%rbp)
Ltmp420:
	.loc	14 443 18
	movq	-96(%rbp), %rax
	movq	%rax, -120(%rbp)
	movq	%rax, -16(%rbp)
	.loc	14 443 21 is_stmt 0
	movb	-88(%rbp), %al
	movb	%al, %cl
	andb	$1, %cl
	movb	%cl, -2(%rbp)
Ltmp421:
	.loc	14 444 16 is_stmt 1
	andb	$1, %al
	movb	%al, -1(%rbp)
	testb	$1, -1(%rbp)
	jne	LBB25_2
	.loc	14 0 16 is_stmt 0
	movq	-120(%rbp), %rax
	.loc	14 444 42
	movq	%rax, -104(%rbp)
	movq	$1, -112(%rbp)
	.loc	14 444 13
	jmp	LBB25_3
LBB25_2:
	.loc	14 444 30
	movq	$0, -112(%rbp)
Ltmp422:
LBB25_3:
	.loc	14 445 10 is_stmt 1
	movq	-112(%rbp), %rax
	movq	-104(%rbp), %rdx
	addq	$120, %rsp
	popq	%rbp
	retq
Ltmp423:
Lfunc_end25:
	.cfi_endproc

	.globl	__ZN4core3ptr100drop_in_place$LT$alloc..vec..Vec$LT$objc_id..id..Id$LT$objc_foundation..object..NSObject$GT$$GT$$GT$17h7f3bff9b081af700E
	.p2align	4, 0x90
__ZN4core3ptr100drop_in_place$LT$alloc..vec..Vec$LT$objc_id..id..Id$LT$objc_foundation..object..NSObject$GT$$GT$$GT$17h7f3bff9b081af700E:
Lfunc_begin26:
	.file	15 "/rustc/2c8cc343237b8f7d5a3c3703e3a87f2eb2c54a74/library/core/src/ptr" "mod.rs"
	.loc	15 490 0
	.cfi_startproc
	.cfi_personality 155, _rust_eh_personality
	.cfi_lsda 16, Lexception12
	pushq	%rbp
	.cfi_def_cfa_offset 16
	.cfi_offset %rbp, -16
	movq	%rsp, %rbp
	.cfi_def_cfa_register %rbp
	subq	$32, %rsp
	movq	%rdi, -32(%rbp)
	movq	%rdi, -24(%rbp)
Ltmp424:
Ltmp430:
	.loc	15 490 1 prologue_end
	callq	__ZN70_$LT$alloc..vec..Vec$LT$T$C$A$GT$$u20$as$u20$core..ops..drop..Drop$GT$4drop17h4d1b8ca2c20f78f8E
Ltmp425:
	jmp	LBB26_3
LBB26_1:
Ltmp427:
	.loc	15 0 1 is_stmt 0
	movq	-32(%rbp), %rdi
	.loc	15 490 1
	callq	__ZN4core3ptr107drop_in_place$LT$alloc..raw_vec..RawVec$LT$objc_id..id..Id$LT$objc_foundation..object..NSObject$GT$$GT$$GT$17h317f744c12d4facaE
Ltmp428:
	jmp	LBB26_5
LBB26_2:
Ltmp426:
	.loc	15 0 1
	movq	%rax, %rcx
	movl	%edx, %eax
	movq	%rcx, -16(%rbp)
	movl	%eax, -8(%rbp)
	jmp	LBB26_1
LBB26_3:
	movq	-32(%rbp), %rdi
	.loc	15 490 1
	callq	__ZN4core3ptr107drop_in_place$LT$alloc..raw_vec..RawVec$LT$objc_id..id..Id$LT$objc_foundation..object..NSObject$GT$$GT$$GT$17h317f744c12d4facaE
	addq	$32, %rsp
	popq	%rbp
	retq
LBB26_4:
Ltmp429:
	callq	__ZN4core9panicking19panic_cannot_unwind17h1fbca7e1d7f56ae1E
LBB26_5:
	movq	-16(%rbp), %rdi
	callq	__Unwind_Resume
Ltmp431:
Lfunc_end26:
	.cfi_endproc
	.section	__TEXT,__gcc_except_tab
	.p2align	2
GCC_except_table26:
Lexception12:
	.byte	255
	.byte	255
	.byte	1
	.uleb128 Lcst_end12-Lcst_begin12
Lcst_begin12:
	.uleb128 Ltmp424-Lfunc_begin26
	.uleb128 Ltmp425-Ltmp424
	.uleb128 Ltmp426-Lfunc_begin26
	.byte	0
	.uleb128 Ltmp427-Lfunc_begin26
	.uleb128 Ltmp428-Ltmp427
	.uleb128 Ltmp429-Lfunc_begin26
	.byte	0
	.uleb128 Ltmp428-Lfunc_begin26
	.uleb128 Lfunc_end26-Ltmp428
	.byte	0
	.byte	0
Lcst_end12:
	.p2align	2

	.section	__TEXT,__text,regular,pure_instructions
	.globl	__ZN4core3ptr100drop_in_place$LT$alloc..vec..Vec$LT$objc_id..id..Id$LT$objc_foundation..string..NSString$GT$$GT$$GT$17h03a4023f3c8cfcafE
	.p2align	4, 0x90
__ZN4core3ptr100drop_in_place$LT$alloc..vec..Vec$LT$objc_id..id..Id$LT$objc_foundation..string..NSString$GT$$GT$$GT$17h03a4023f3c8cfcafE:
Lfunc_begin27:
	.loc	15 490 0 is_stmt 1
	.cfi_startproc
	.cfi_personality 155, _rust_eh_personality
	.cfi_lsda 16, Lexception13
	pushq	%rbp
	.cfi_def_cfa_offset 16
	.cfi_offset %rbp, -16
	movq	%rsp, %rbp
	.cfi_def_cfa_register %rbp
	subq	$32, %rsp
	movq	%rdi, -32(%rbp)
	movq	%rdi, -24(%rbp)
Ltmp432:
Ltmp438:
	.loc	15 490 1 prologue_end
	callq	__ZN70_$LT$alloc..vec..Vec$LT$T$C$A$GT$$u20$as$u20$core..ops..drop..Drop$GT$4drop17h296b80ca53ef1237E
Ltmp433:
	jmp	LBB27_3
LBB27_1:
Ltmp435:
	.loc	15 0 1 is_stmt 0
	movq	-32(%rbp), %rdi
	.loc	15 490 1
	callq	__ZN4core3ptr107drop_in_place$LT$alloc..raw_vec..RawVec$LT$objc_id..id..Id$LT$objc_foundation..string..NSString$GT$$GT$$GT$17h84f5425c2a6ae5dcE
Ltmp436:
	jmp	LBB27_5
LBB27_2:
Ltmp434:
	.loc	15 0 1
	movq	%rax, %rcx
	movl	%edx, %eax
	movq	%rcx, -16(%rbp)
	movl	%eax, -8(%rbp)
	jmp	LBB27_1
LBB27_3:
	movq	-32(%rbp), %rdi
	.loc	15 490 1
	callq	__ZN4core3ptr107drop_in_place$LT$alloc..raw_vec..RawVec$LT$objc_id..id..Id$LT$objc_foundation..string..NSString$GT$$GT$$GT$17h84f5425c2a6ae5dcE
	addq	$32, %rsp
	popq	%rbp
	retq
LBB27_4:
Ltmp437:
	callq	__ZN4core9panicking19panic_cannot_unwind17h1fbca7e1d7f56ae1E
LBB27_5:
	movq	-16(%rbp), %rdi
	callq	__Unwind_Resume
Ltmp439:
Lfunc_end27:
	.cfi_endproc
	.section	__TEXT,__gcc_except_tab
	.p2align	2
GCC_except_table27:
Lexception13:
	.byte	255
	.byte	255
	.byte	1
	.uleb128 Lcst_end13-Lcst_begin13
Lcst_begin13:
	.uleb128 Ltmp432-Lfunc_begin27
	.uleb128 Ltmp433-Ltmp432
	.uleb128 Ltmp434-Lfunc_begin27
	.byte	0
	.uleb128 Ltmp435-Lfunc_begin27
	.uleb128 Ltmp436-Ltmp435
	.uleb128 Ltmp437-Lfunc_begin27
	.byte	0
	.uleb128 Ltmp436-Lfunc_begin27
	.uleb128 Lfunc_end27-Ltmp436
	.byte	0
	.byte	0
Lcst_end13:
	.p2align	2

	.section	__TEXT,__text,regular,pure_instructions
	.globl	__ZN4core3ptr107drop_in_place$LT$alloc..raw_vec..RawVec$LT$objc_id..id..Id$LT$objc_foundation..object..NSObject$GT$$GT$$GT$17h317f744c12d4facaE
	.p2align	4, 0x90
__ZN4core3ptr107drop_in_place$LT$alloc..raw_vec..RawVec$LT$objc_id..id..Id$LT$objc_foundation..object..NSObject$GT$$GT$$GT$17h317f744c12d4facaE:
Lfunc_begin28:
	.loc	15 490 0 is_stmt 1
	.cfi_startproc
	pushq	%rbp
	.cfi_def_cfa_offset 16
	.cfi_offset %rbp, -16
	movq	%rsp, %rbp
	.cfi_def_cfa_register %rbp
	subq	$16, %rsp
	movq	%rdi, -8(%rbp)
Ltmp440:
	.loc	15 490 1 prologue_end
	callq	__ZN77_$LT$alloc..raw_vec..RawVec$LT$T$C$A$GT$$u20$as$u20$core..ops..drop..Drop$GT$4drop17h430798290318847eE
	addq	$16, %rsp
	popq	%rbp
	retq
Ltmp441:
Lfunc_end28:
	.cfi_endproc

	.globl	__ZN4core3ptr107drop_in_place$LT$alloc..raw_vec..RawVec$LT$objc_id..id..Id$LT$objc_foundation..string..NSString$GT$$GT$$GT$17h84f5425c2a6ae5dcE
	.p2align	4, 0x90
__ZN4core3ptr107drop_in_place$LT$alloc..raw_vec..RawVec$LT$objc_id..id..Id$LT$objc_foundation..string..NSString$GT$$GT$$GT$17h84f5425c2a6ae5dcE:
Lfunc_begin29:
	.loc	15 490 0
	.cfi_startproc
	pushq	%rbp
	.cfi_def_cfa_offset 16
	.cfi_offset %rbp, -16
	movq	%rsp, %rbp
	.cfi_def_cfa_register %rbp
	subq	$16, %rsp
	movq	%rdi, -8(%rbp)
Ltmp442:
	.loc	15 490 1 prologue_end
	callq	__ZN77_$LT$alloc..raw_vec..RawVec$LT$T$C$A$GT$$u20$as$u20$core..ops..drop..Drop$GT$4drop17ha49d28e3c2393f12E
	addq	$16, %rsp
	popq	%rbp
	retq
Ltmp443:
Lfunc_end29:
	.cfi_endproc

	.globl	__ZN4core3ptr112drop_in_place$LT$alloc..boxed..Box$LT$$u5b$objc_id..id..Id$LT$objc_foundation..object..NSObject$GT$$u5d$$GT$$GT$17h69cdd995a5771a1eE
	.p2align	4, 0x90
__ZN4core3ptr112drop_in_place$LT$alloc..boxed..Box$LT$$u5b$objc_id..id..Id$LT$objc_foundation..object..NSObject$GT$$u5d$$GT$$GT$17h69cdd995a5771a1eE:
Lfunc_begin30:
	.loc	15 490 0
	.cfi_startproc
	.cfi_personality 155, _rust_eh_personality
	.cfi_lsda 16, Lexception14
	pushq	%rbp
	.cfi_def_cfa_offset 16
	.cfi_offset %rbp, -16
	movq	%rsp, %rbp
	.cfi_def_cfa_register %rbp
	subq	$32, %rsp
	movq	%rdi, %rax
	movq	%rax, -32(%rbp)
	movq	%rax, -24(%rbp)
Ltmp450:
	.loc	15 490 1 prologue_end
	movq	(%rax), %rdi
	movq	8(%rax), %rsi
Ltmp444:
	callq	__ZN4core3ptr87drop_in_place$LT$$u5b$objc_id..id..Id$LT$objc_foundation..object..NSObject$GT$$u5d$$GT$17h1abe73b4efcc3a7aE
Ltmp445:
	jmp	LBB30_3
LBB30_1:
	.loc	15 0 1 is_stmt 0
	movq	-32(%rbp), %rax
	.loc	15 490 1
	movq	(%rax), %rdi
	movq	8(%rax), %rsi
Ltmp447:
	callq	__ZN5alloc5alloc8box_free17hc1259dc8381b972eE
Ltmp448:
	jmp	LBB30_5
LBB30_2:
Ltmp446:
	.loc	15 0 1
	movq	%rax, %rcx
	movl	%edx, %eax
	movq	%rcx, -16(%rbp)
	movl	%eax, -8(%rbp)
	jmp	LBB30_1
LBB30_3:
	movq	-32(%rbp), %rax
	.loc	15 490 1
	movq	(%rax), %rdi
	movq	8(%rax), %rsi
	callq	__ZN5alloc5alloc8box_free17hc1259dc8381b972eE
	addq	$32, %rsp
	popq	%rbp
	retq
LBB30_4:
Ltmp449:
	callq	__ZN4core9panicking19panic_cannot_unwind17h1fbca7e1d7f56ae1E
LBB30_5:
	movq	-16(%rbp), %rdi
	callq	__Unwind_Resume
Ltmp451:
Lfunc_end30:
	.cfi_endproc
	.section	__TEXT,__gcc_except_tab
	.p2align	2
GCC_except_table30:
Lexception14:
	.byte	255
	.byte	255
	.byte	1
	.uleb128 Lcst_end14-Lcst_begin14
Lcst_begin14:
	.uleb128 Ltmp444-Lfunc_begin30
	.uleb128 Ltmp445-Ltmp444
	.uleb128 Ltmp446-Lfunc_begin30
	.byte	0
	.uleb128 Ltmp447-Lfunc_begin30
	.uleb128 Ltmp448-Ltmp447
	.uleb128 Ltmp449-Lfunc_begin30
	.byte	0
	.uleb128 Ltmp448-Lfunc_begin30
	.uleb128 Lfunc_end30-Ltmp448
	.byte	0
	.byte	0
Lcst_end14:
	.p2align	2

	.section	__TEXT,__text,regular,pure_instructions
	.globl	__ZN4core3ptr112drop_in_place$LT$alloc..boxed..Box$LT$$u5b$objc_id..id..Id$LT$objc_foundation..string..NSString$GT$$u5d$$GT$$GT$17h6511309d8c5281e9E
	.p2align	4, 0x90
__ZN4core3ptr112drop_in_place$LT$alloc..boxed..Box$LT$$u5b$objc_id..id..Id$LT$objc_foundation..string..NSString$GT$$u5d$$GT$$GT$17h6511309d8c5281e9E:
Lfunc_begin31:
	.loc	15 490 0 is_stmt 1
	.cfi_startproc
	.cfi_personality 155, _rust_eh_personality
	.cfi_lsda 16, Lexception15
	pushq	%rbp
	.cfi_def_cfa_offset 16
	.cfi_offset %rbp, -16
	movq	%rsp, %rbp
	.cfi_def_cfa_register %rbp
	subq	$32, %rsp
	movq	%rdi, %rax
	movq	%rax, -32(%rbp)
	movq	%rax, -24(%rbp)
Ltmp458:
	.loc	15 490 1 prologue_end
	movq	(%rax), %rdi
	movq	8(%rax), %rsi
Ltmp452:
	callq	__ZN4core3ptr87drop_in_place$LT$$u5b$objc_id..id..Id$LT$objc_foundation..string..NSString$GT$$u5d$$GT$17he5e89d23c4ff83dbE
Ltmp453:
	jmp	LBB31_3
LBB31_1:
	.loc	15 0 1 is_stmt 0
	movq	-32(%rbp), %rax
	.loc	15 490 1
	movq	(%rax), %rdi
	movq	8(%rax), %rsi
Ltmp455:
	callq	__ZN5alloc5alloc8box_free17h67dcf1728c323e05E
Ltmp456:
	jmp	LBB31_5
LBB31_2:
Ltmp454:
	.loc	15 0 1
	movq	%rax, %rcx
	movl	%edx, %eax
	movq	%rcx, -16(%rbp)
	movl	%eax, -8(%rbp)
	jmp	LBB31_1
LBB31_3:
	movq	-32(%rbp), %rax
	.loc	15 490 1
	movq	(%rax), %rdi
	movq	8(%rax), %rsi
	callq	__ZN5alloc5alloc8box_free17h67dcf1728c323e05E
	addq	$32, %rsp
	popq	%rbp
	retq
LBB31_4:
Ltmp457:
	callq	__ZN4core9panicking19panic_cannot_unwind17h1fbca7e1d7f56ae1E
LBB31_5:
	movq	-16(%rbp), %rdi
	callq	__Unwind_Resume
Ltmp459:
Lfunc_end31:
	.cfi_endproc
	.section	__TEXT,__gcc_except_tab
	.p2align	2
GCC_except_table31:
Lexception15:
	.byte	255
	.byte	255
	.byte	1
	.uleb128 Lcst_end15-Lcst_begin15
Lcst_begin15:
	.uleb128 Ltmp452-Lfunc_begin31
	.uleb128 Ltmp453-Ltmp452
	.uleb128 Ltmp454-Lfunc_begin31
	.byte	0
	.uleb128 Ltmp455-Lfunc_begin31
	.uleb128 Ltmp456-Ltmp455
	.uleb128 Ltmp457-Lfunc_begin31
	.byte	0
	.uleb128 Ltmp456-Lfunc_begin31
	.uleb128 Lfunc_end31-Ltmp456
	.byte	0
	.byte	0
Lcst_end15:
	.p2align	2

	.section	__TEXT,__text,regular,pure_instructions
	.globl	__ZN4core3ptr116drop_in_place$LT$objc_id..id..Id$LT$objc_foundation..array..NSArray$LT$objc_foundation..object..NSObject$GT$$GT$$GT$17h3e024550c59677bcE
	.p2align	4, 0x90
__ZN4core3ptr116drop_in_place$LT$objc_id..id..Id$LT$objc_foundation..array..NSArray$LT$objc_foundation..object..NSObject$GT$$GT$$GT$17h3e024550c59677bcE:
Lfunc_begin32:
	.loc	15 490 0 is_stmt 1
	.cfi_startproc
	pushq	%rbp
	.cfi_def_cfa_offset 16
	.cfi_offset %rbp, -16
	movq	%rsp, %rbp
	.cfi_def_cfa_register %rbp
	subq	$16, %rsp
	movq	%rdi, -8(%rbp)
Ltmp460:
	.loc	15 490 1 prologue_end
	callq	__ZN4core3ptr48drop_in_place$LT$objc..rc..strong..StrongPtr$GT$17hb33c59f6efb9efe4E
	addq	$16, %rsp
	popq	%rbp
	retq
Ltmp461:
Lfunc_end32:
	.cfi_endproc

	.globl	__ZN4core3ptr116drop_in_place$LT$objc_id..id..Id$LT$objc_foundation..array..NSArray$LT$objc_foundation..string..NSString$GT$$GT$$GT$17h26d4f8cc87fb7418E
	.p2align	4, 0x90
__ZN4core3ptr116drop_in_place$LT$objc_id..id..Id$LT$objc_foundation..array..NSArray$LT$objc_foundation..string..NSString$GT$$GT$$GT$17h26d4f8cc87fb7418E:
Lfunc_begin33:
	.loc	15 490 0
	.cfi_startproc
	pushq	%rbp
	.cfi_def_cfa_offset 16
	.cfi_offset %rbp, -16
	movq	%rsp, %rbp
	.cfi_def_cfa_register %rbp
	subq	$16, %rsp
	movq	%rdi, -8(%rbp)
Ltmp462:
	.loc	15 490 1 prologue_end
	callq	__ZN4core3ptr48drop_in_place$LT$objc..rc..strong..StrongPtr$GT$17hb33c59f6efb9efe4E
	addq	$16, %rsp
	popq	%rbp
	retq
Ltmp463:
Lfunc_end33:
	.cfi_endproc

	.globl	__ZN4core3ptr127drop_in_place$LT$$LP$objc_id..id..Id$LT$objc_foundation..array..NSArray$LT$objc_foundation..string..NSString$GT$$GT$$C$$RP$$GT$17hc7aee53574635007E
	.p2align	4, 0x90
__ZN4core3ptr127drop_in_place$LT$$LP$objc_id..id..Id$LT$objc_foundation..array..NSArray$LT$objc_foundation..string..NSString$GT$$GT$$C$$RP$$GT$17hc7aee53574635007E:
Lfunc_begin34:
	.loc	15 490 0
	.cfi_startproc
	pushq	%rbp
	.cfi_def_cfa_offset 16
	.cfi_offset %rbp, -16
	movq	%rsp, %rbp
	.cfi_def_cfa_register %rbp
	subq	$16, %rsp
	movq	%rdi, -8(%rbp)
Ltmp464:
	.loc	15 490 1 prologue_end
	callq	__ZN4core3ptr116drop_in_place$LT$objc_id..id..Id$LT$objc_foundation..array..NSArray$LT$objc_foundation..string..NSString$GT$$GT$$GT$17h26d4f8cc87fb7418E
	addq	$16, %rsp
	popq	%rbp
	retq
Ltmp465:
Lfunc_end34:
	.cfi_endproc

	.globl	__ZN4core3ptr162drop_in_place$LT$objc_id..id..Id$LT$objc_foundation..dictionary..NSDictionary$LT$objc_foundation..object..NSObject$C$objc_foundation..object..NSObject$GT$$GT$$GT$17h8c71d9f7e08dd1f3E
	.p2align	4, 0x90
__ZN4core3ptr162drop_in_place$LT$objc_id..id..Id$LT$objc_foundation..dictionary..NSDictionary$LT$objc_foundation..object..NSObject$C$objc_foundation..object..NSObject$GT$$GT$$GT$17h8c71d9f7e08dd1f3E:
Lfunc_begin35:
	.loc	15 490 0
	.cfi_startproc
	pushq	%rbp
	.cfi_def_cfa_offset 16
	.cfi_offset %rbp, -16
	movq	%rsp, %rbp
	.cfi_def_cfa_register %rbp
	subq	$16, %rsp
	movq	%rdi, -8(%rbp)
Ltmp466:
	.loc	15 490 1 prologue_end
	callq	__ZN4core3ptr48drop_in_place$LT$objc..rc..strong..StrongPtr$GT$17hb33c59f6efb9efe4E
	addq	$16, %rsp
	popq	%rbp
	retq
Ltmp467:
Lfunc_end35:
	.cfi_endproc

	.globl	__ZN4core3ptr425drop_in_place$LT$alloc..vec..Vec$LT$$RF$objc_foundation..object..NSObject$GT$..extend_trusted$LT$core..iter..adapters..map..Map$LT$core..slice..iter..Iter$LT$objc_id..id..Id$LT$objc_foundation..object..NSObject$GT$$GT$$C$$LT$objc_foundation..array..NSArray$LT$objc_foundation..object..NSObject$GT$$u20$as$u20$objc_foundation..array..INSArray$GT$..from_vec..$u7b$$u7b$closure$u7d$$u7d$$GT$$GT$..$u7b$$u7b$closure$u7d$$u7d$$GT$17h7b8317059dc6d11bE
	.p2align	4, 0x90
__ZN4core3ptr425drop_in_place$LT$alloc..vec..Vec$LT$$RF$objc_foundation..object..NSObject$GT$..extend_trusted$LT$core..iter..adapters..map..Map$LT$core..slice..iter..Iter$LT$objc_id..id..Id$LT$objc_foundation..object..NSObject$GT$$GT$$C$$LT$objc_foundation..array..NSArray$LT$objc_foundation..object..NSObject$GT$$u20$as$u20$objc_foundation..array..INSArray$GT$..from_vec..$u7b$$u7b$closure$u7d$$u7d$$GT$$GT$..$u7b$$u7b$closure$u7d$$u7d$$GT$17h7b8317059dc6d11bE:
Lfunc_begin36:
	.loc	15 490 0
	.cfi_startproc
	pushq	%rbp
	.cfi_def_cfa_offset 16
	.cfi_offset %rbp, -16
	movq	%rsp, %rbp
	.cfi_def_cfa_register %rbp
	subq	$16, %rsp
	movq	%rdi, -8(%rbp)
Ltmp468:
	.loc	15 490 1 prologue_end
	callq	__ZN4core3ptr62drop_in_place$LT$alloc..vec..set_len_on_drop..SetLenOnDrop$GT$17hd49b37b8f18fa9c7E
	addq	$16, %rsp
	popq	%rbp
	retq
Ltmp469:
Lfunc_end36:
	.cfi_endproc

	.globl	__ZN4core3ptr425drop_in_place$LT$alloc..vec..Vec$LT$$RF$objc_foundation..string..NSString$GT$..extend_trusted$LT$core..iter..adapters..map..Map$LT$core..slice..iter..Iter$LT$objc_id..id..Id$LT$objc_foundation..string..NSString$GT$$GT$$C$$LT$objc_foundation..array..NSArray$LT$objc_foundation..string..NSString$GT$$u20$as$u20$objc_foundation..array..INSArray$GT$..from_vec..$u7b$$u7b$closure$u7d$$u7d$$GT$$GT$..$u7b$$u7b$closure$u7d$$u7d$$GT$17hb7b564c7d903dd0cE
	.p2align	4, 0x90
__ZN4core3ptr425drop_in_place$LT$alloc..vec..Vec$LT$$RF$objc_foundation..string..NSString$GT$..extend_trusted$LT$core..iter..adapters..map..Map$LT$core..slice..iter..Iter$LT$objc_id..id..Id$LT$objc_foundation..string..NSString$GT$$GT$$C$$LT$objc_foundation..array..NSArray$LT$objc_foundation..string..NSString$GT$$u20$as$u20$objc_foundation..array..INSArray$GT$..from_vec..$u7b$$u7b$closure$u7d$$u7d$$GT$$GT$..$u7b$$u7b$closure$u7d$$u7d$$GT$17hb7b564c7d903dd0cE:
Lfunc_begin37:
	.loc	15 490 0
	.cfi_startproc
	pushq	%rbp
	.cfi_def_cfa_offset 16
	.cfi_offset %rbp, -16
	movq	%rsp, %rbp
	.cfi_def_cfa_register %rbp
	subq	$16, %rsp
	movq	%rdi, -8(%rbp)
Ltmp470:
	.loc	15 490 1 prologue_end
	callq	__ZN4core3ptr62drop_in_place$LT$alloc..vec..set_len_on_drop..SetLenOnDrop$GT$17hd49b37b8f18fa9c7E
	addq	$16, %rsp
	popq	%rbp
	retq
Ltmp471:
Lfunc_end37:
	.cfi_endproc

	.globl	__ZN4core3ptr43drop_in_place$LT$arboard..common..Error$GT$17hb90170ad3a11a3b0E
	.p2align	4, 0x90
__ZN4core3ptr43drop_in_place$LT$arboard..common..Error$GT$17hb90170ad3a11a3b0E:
Lfunc_begin38:
	.loc	15 490 0
	.cfi_startproc
	pushq	%rbp
	.cfi_def_cfa_offset 16
	.cfi_offset %rbp, -16
	movq	%rsp, %rbp
	.cfi_def_cfa_register %rbp
	subq	$16, %rsp
	movq	%rdi, -16(%rbp)
	movq	%rdi, -8(%rbp)
Ltmp472:
	.loc	15 490 1 prologue_end
	movl	(%rdi), %eax
	subl	$4, %eax
	jb	LBB38_2
	jmp	LBB38_1
LBB38_1:
	.loc	15 0 1 is_stmt 0
	movq	-16(%rbp), %rdi
	.loc	15 490 1
	addq	$8, %rdi
	callq	__ZN4core3ptr42drop_in_place$LT$alloc..string..String$GT$17hef0d0483296c488eE
LBB38_2:
	addq	$16, %rsp
	popq	%rbp
	retq
Ltmp473:
Lfunc_end38:
	.cfi_endproc

	.globl	__ZN4core3ptr556drop_in_place$LT$core..iter..traits..iterator..Iterator..for_each..call$LT$$RF$objc_foundation..object..NSObject$C$alloc..vec..Vec$LT$$RF$objc_foundation..object..NSObject$GT$..extend_trusted$LT$core..iter..adapters..map..Map$LT$core..slice..iter..Iter$LT$objc_id..id..Id$LT$objc_foundation..object..NSObject$GT$$GT$$C$$LT$objc_foundation..array..NSArray$LT$objc_foundation..object..NSObject$GT$$u20$as$u20$objc_foundation..array..INSArray$GT$..from_vec..$u7b$$u7b$closure$u7d$$u7d$$GT$$GT$..$u7b$$u7b$closure$u7d$$u7d$$GT$..$u7b$$u7b$closure$u7d$$u7d$$GT$17h10f9b402a41b9cfcE
	.p2align	4, 0x90
__ZN4core3ptr556drop_in_place$LT$core..iter..traits..iterator..Iterator..for_each..call$LT$$RF$objc_foundation..object..NSObject$C$alloc..vec..Vec$LT$$RF$objc_foundation..object..NSObject$GT$..extend_trusted$LT$core..iter..adapters..map..Map$LT$core..slice..iter..Iter$LT$objc_id..id..Id$LT$objc_foundation..object..NSObject$GT$$GT$$C$$LT$objc_foundation..array..NSArray$LT$objc_foundation..object..NSObject$GT$$u20$as$u20$objc_foundation..array..INSArray$GT$..from_vec..$u7b$$u7b$closure$u7d$$u7d$$GT$$GT$..$u7b$$u7b$closure$u7d$$u7d$$GT$..$u7b$$u7b$closure$u7d$$u7d$$GT$17h10f9b402a41b9cfcE:
Lfunc_begin39:
	.loc	15 490 0 is_stmt 1
	.cfi_startproc
	pushq	%rbp
	.cfi_def_cfa_offset 16
	.cfi_offset %rbp, -16
	movq	%rsp, %rbp
	.cfi_def_cfa_register %rbp
	subq	$16, %rsp
	movq	%rdi, -8(%rbp)
Ltmp474:
	.loc	15 490 1 prologue_end
	callq	__ZN4core3ptr425drop_in_place$LT$alloc..vec..Vec$LT$$RF$objc_foundation..object..NSObject$GT$..extend_trusted$LT$core..iter..adapters..map..Map$LT$core..slice..iter..Iter$LT$objc_id..id..Id$LT$objc_foundation..object..NSObject$GT$$GT$$C$$LT$objc_foundation..array..NSArray$LT$objc_foundation..object..NSObject$GT$$u20$as$u20$objc_foundation..array..INSArray$GT$..from_vec..$u7b$$u7b$closure$u7d$$u7d$$GT$$GT$..$u7b$$u7b$closure$u7d$$u7d$$GT$17h7b8317059dc6d11bE
	addq	$16, %rsp
	popq	%rbp
	retq
Ltmp475:
Lfunc_end39:
	.cfi_endproc

	.globl	__ZN4core3ptr556drop_in_place$LT$core..iter..traits..iterator..Iterator..for_each..call$LT$$RF$objc_foundation..string..NSString$C$alloc..vec..Vec$LT$$RF$objc_foundation..string..NSString$GT$..extend_trusted$LT$core..iter..adapters..map..Map$LT$core..slice..iter..Iter$LT$objc_id..id..Id$LT$objc_foundation..string..NSString$GT$$GT$$C$$LT$objc_foundation..array..NSArray$LT$objc_foundation..string..NSString$GT$$u20$as$u20$objc_foundation..array..INSArray$GT$..from_vec..$u7b$$u7b$closure$u7d$$u7d$$GT$$GT$..$u7b$$u7b$closure$u7d$$u7d$$GT$..$u7b$$u7b$closure$u7d$$u7d$$GT$17h9bfdfc3f49992b4dE
	.p2align	4, 0x90
__ZN4core3ptr556drop_in_place$LT$core..iter..traits..iterator..Iterator..for_each..call$LT$$RF$objc_foundation..string..NSString$C$alloc..vec..Vec$LT$$RF$objc_foundation..string..NSString$GT$..extend_trusted$LT$core..iter..adapters..map..Map$LT$core..slice..iter..Iter$LT$objc_id..id..Id$LT$objc_foundation..string..NSString$GT$$GT$$C$$LT$objc_foundation..array..NSArray$LT$objc_foundation..string..NSString$GT$$u20$as$u20$objc_foundation..array..INSArray$GT$..from_vec..$u7b$$u7b$closure$u7d$$u7d$$GT$$GT$..$u7b$$u7b$closure$u7d$$u7d$$GT$..$u7b$$u7b$closure$u7d$$u7d$$GT$17h9bfdfc3f49992b4dE:
Lfunc_begin40:
	.loc	15 490 0
	.cfi_startproc
	pushq	%rbp
	.cfi_def_cfa_offset 16
	.cfi_offset %rbp, -16
	movq	%rsp, %rbp
	.cfi_def_cfa_register %rbp
	subq	$16, %rsp
	movq	%rdi, -8(%rbp)
Ltmp476:
	.loc	15 490 1 prologue_end
	callq	__ZN4core3ptr425drop_in_place$LT$alloc..vec..Vec$LT$$RF$objc_foundation..string..NSString$GT$..extend_trusted$LT$core..iter..adapters..map..Map$LT$core..slice..iter..Iter$LT$objc_id..id..Id$LT$objc_foundation..string..NSString$GT$$GT$$C$$LT$objc_foundation..array..NSArray$LT$objc_foundation..string..NSString$GT$$u20$as$u20$objc_foundation..array..INSArray$GT$..from_vec..$u7b$$u7b$closure$u7d$$u7d$$GT$$GT$..$u7b$$u7b$closure$u7d$$u7d$$GT$17hb7b564c7d903dd0cE
	addq	$16, %rsp
	popq	%rbp
	retq
Ltmp477:
Lfunc_end40:
	.cfi_endproc

	.globl	__ZN4core3ptr62drop_in_place$LT$alloc..vec..set_len_on_drop..SetLenOnDrop$GT$17hd49b37b8f18fa9c7E
	.p2align	4, 0x90
__ZN4core3ptr62drop_in_place$LT$alloc..vec..set_len_on_drop..SetLenOnDrop$GT$17hd49b37b8f18fa9c7E:
Lfunc_begin41:
	.loc	15 490 0
	.cfi_startproc
	pushq	%rbp
	.cfi_def_cfa_offset 16
	.cfi_offset %rbp, -16
	movq	%rsp, %rbp
	.cfi_def_cfa_register %rbp
	subq	$16, %rsp
	movq	%rdi, -8(%rbp)
Ltmp478:
	.loc	15 490 1 prologue_end
	callq	__ZN83_$LT$alloc..vec..set_len_on_drop..SetLenOnDrop$u20$as$u20$core..ops..drop..Drop$GT$4drop17h8c6fbba438c704b8E
	addq	$16, %rsp
	popq	%rbp
	retq
Ltmp479:
Lfunc_end41:
	.cfi_endproc

	.globl	__ZN4core3ptr77drop_in_place$LT$objc_id..id..Id$LT$objc_foundation..object..NSObject$GT$$GT$17h8c40347be3b91769E
	.p2align	4, 0x90
__ZN4core3ptr77drop_in_place$LT$objc_id..id..Id$LT$objc_foundation..object..NSObject$GT$$GT$17h8c40347be3b91769E:
Lfunc_begin42:
	.loc	15 490 0
	.cfi_startproc
	pushq	%rbp
	.cfi_def_cfa_offset 16
	.cfi_offset %rbp, -16
	movq	%rsp, %rbp
	.cfi_def_cfa_register %rbp
	subq	$16, %rsp
	movq	%rdi, -8(%rbp)
Ltmp480:
	.loc	15 490 1 prologue_end
	callq	__ZN4core3ptr48drop_in_place$LT$objc..rc..strong..StrongPtr$GT$17hb33c59f6efb9efe4E
	addq	$16, %rsp
	popq	%rbp
	retq
Ltmp481:
Lfunc_end42:
	.cfi_endproc

	.globl	__ZN4core3ptr77drop_in_place$LT$objc_id..id..Id$LT$objc_foundation..string..NSString$GT$$GT$17hec36f7cb04bd01d4E
	.p2align	4, 0x90
__ZN4core3ptr77drop_in_place$LT$objc_id..id..Id$LT$objc_foundation..string..NSString$GT$$GT$17hec36f7cb04bd01d4E:
Lfunc_begin43:
	.loc	15 490 0
	.cfi_startproc
	pushq	%rbp
	.cfi_def_cfa_offset 16
	.cfi_offset %rbp, -16
	movq	%rsp, %rbp
	.cfi_def_cfa_register %rbp
	subq	$16, %rsp
	movq	%rdi, -8(%rbp)
Ltmp482:
	.loc	15 490 1 prologue_end
	callq	__ZN4core3ptr48drop_in_place$LT$objc..rc..strong..StrongPtr$GT$17hb33c59f6efb9efe4E
	addq	$16, %rsp
	popq	%rbp
	retq
Ltmp483:
Lfunc_end43:
	.cfi_endproc

	.globl	__ZN4core3ptr7mut_ptr31_$LT$impl$u20$$BP$mut$u20$T$GT$7is_null17h27d2d7ee98eadb11E
	.p2align	4, 0x90
__ZN4core3ptr7mut_ptr31_$LT$impl$u20$$BP$mut$u20$T$GT$7is_null17h27d2d7ee98eadb11E:
Lfunc_begin44:
	.file	16 "/rustc/2c8cc343237b8f7d5a3c3703e3a87f2eb2c54a74/library/core/src/ptr" "mut_ptr.rs"
	.loc	16 35 0
	.cfi_startproc
	pushq	%rbp
	.cfi_def_cfa_offset 16
	.cfi_offset %rbp, -16
	movq	%rsp, %rbp
	.cfi_def_cfa_register %rbp
	subq	$48, %rsp
	movq	%rdi, -40(%rbp)
Ltmp484:
	.loc	16 52 36 prologue_end
	movq	%rdi, -48(%rbp)
	.loc	16 52 18 is_stmt 0
	movq	-48(%rbp), %rax
	movq	%rax, -32(%rbp)
Ltmp485:
	.loc	16 38 13 is_stmt 1
	movq	%rax, -24(%rbp)
Ltmp486:
	.loc	16 215 33
	movq	%rax, -16(%rbp)
	.loc	16 215 18 is_stmt 0
	movq	%rax, -8(%rbp)
Ltmp487:
	.loc	16 38 13 is_stmt 1
	cmpq	$0, -8(%rbp)
	sete	%al
Ltmp488:
	.loc	16 53 6
	andb	$1, %al
	movzbl	%al, %eax
	addq	$48, %rsp
	popq	%rbp
	retq
Ltmp489:
Lfunc_end44:
	.cfi_endproc

	.globl	__ZN4core3ptr7mut_ptr31_$LT$impl$u20$$BP$mut$u20$T$GT$7is_null17h41def7831976e62dE
	.p2align	4, 0x90
__ZN4core3ptr7mut_ptr31_$LT$impl$u20$$BP$mut$u20$T$GT$7is_null17h41def7831976e62dE:
Lfunc_begin45:
	.loc	16 35 0
	.cfi_startproc
	pushq	%rbp
	.cfi_def_cfa_offset 16
	.cfi_offset %rbp, -16
	movq	%rsp, %rbp
	.cfi_def_cfa_register %rbp
	subq	$48, %rsp
	movq	%rdi, -40(%rbp)
Ltmp490:
	.loc	16 52 36 prologue_end
	movq	%rdi, -48(%rbp)
	.loc	16 52 18 is_stmt 0
	movq	-48(%rbp), %rax
	movq	%rax, -32(%rbp)
Ltmp491:
	.loc	16 38 13 is_stmt 1
	movq	%rax, -24(%rbp)
Ltmp492:
	.loc	16 215 33
	movq	%rax, -16(%rbp)
	.loc	16 215 18 is_stmt 0
	movq	%rax, -8(%rbp)
Ltmp493:
	.loc	16 38 13 is_stmt 1
	cmpq	$0, -8(%rbp)
	sete	%al
Ltmp494:
	.loc	16 53 6
	andb	$1, %al
	movzbl	%al, %eax
	addq	$48, %rsp
	popq	%rbp
	retq
Ltmp495:
Lfunc_end45:
	.cfi_endproc

	.globl	__ZN4core3ptr7mut_ptr31_$LT$impl$u20$$BP$mut$u20$T$GT$7is_null17h89b2732106f893a3E
	.p2align	4, 0x90
__ZN4core3ptr7mut_ptr31_$LT$impl$u20$$BP$mut$u20$T$GT$7is_null17h89b2732106f893a3E:
Lfunc_begin46:
	.loc	16 35 0
	.cfi_startproc
	pushq	%rbp
	.cfi_def_cfa_offset 16
	.cfi_offset %rbp, -16
	movq	%rsp, %rbp
	.cfi_def_cfa_register %rbp
	subq	$48, %rsp
	movq	%rdi, -40(%rbp)
Ltmp496:
	.loc	16 52 36 prologue_end
	movq	%rdi, -48(%rbp)
	.loc	16 52 18 is_stmt 0
	movq	-48(%rbp), %rax
	movq	%rax, -32(%rbp)
Ltmp497:
	.loc	16 38 13 is_stmt 1
	movq	%rax, -24(%rbp)
Ltmp498:
	.loc	16 215 33
	movq	%rax, -16(%rbp)
	.loc	16 215 18 is_stmt 0
	movq	%rax, -8(%rbp)
Ltmp499:
	.loc	16 38 13 is_stmt 1
	cmpq	$0, -8(%rbp)
	sete	%al
Ltmp500:
	.loc	16 53 6
	andb	$1, %al
	movzbl	%al, %eax
	addq	$48, %rsp
	popq	%rbp
	retq
Ltmp501:
Lfunc_end46:
	.cfi_endproc

	.globl	__ZN4core3ptr7mut_ptr31_$LT$impl$u20$$BP$mut$u20$T$GT$7is_null17hed6ada3687eb7870E
	.p2align	4, 0x90
__ZN4core3ptr7mut_ptr31_$LT$impl$u20$$BP$mut$u20$T$GT$7is_null17hed6ada3687eb7870E:
Lfunc_begin47:
	.loc	16 35 0
	.cfi_startproc
	pushq	%rbp
	.cfi_def_cfa_offset 16
	.cfi_offset %rbp, -16
	movq	%rsp, %rbp
	.cfi_def_cfa_register %rbp
	subq	$48, %rsp
	movq	%rdi, -40(%rbp)
Ltmp502:
	.loc	16 52 36 prologue_end
	movq	%rdi, -48(%rbp)
	.loc	16 52 18 is_stmt 0
	movq	-48(%rbp), %rax
	movq	%rax, -32(%rbp)
Ltmp503:
	.loc	16 38 13 is_stmt 1
	movq	%rax, -24(%rbp)
Ltmp504:
	.loc	16 215 33
	movq	%rax, -16(%rbp)
	.loc	16 215 18 is_stmt 0
	movq	%rax, -8(%rbp)
Ltmp505:
	.loc	16 38 13 is_stmt 1
	cmpq	$0, -8(%rbp)
	sete	%al
Ltmp506:
	.loc	16 53 6
	andb	$1, %al
	movzbl	%al, %eax
	addq	$48, %rsp
	popq	%rbp
	retq
Ltmp507:
Lfunc_end47:
	.cfi_endproc

	.globl	__ZN4core3ptr81drop_in_place$LT$alloc..vec..Vec$LT$$RF$objc_foundation..object..NSObject$GT$$GT$17h407f56fc980aa313E
	.p2align	4, 0x90
__ZN4core3ptr81drop_in_place$LT$alloc..vec..Vec$LT$$RF$objc_foundation..object..NSObject$GT$$GT$17h407f56fc980aa313E:
Lfunc_begin48:
	.loc	15 490 0
	.cfi_startproc
	.cfi_personality 155, _rust_eh_personality
	.cfi_lsda 16, Lexception16
	pushq	%rbp
	.cfi_def_cfa_offset 16
	.cfi_offset %rbp, -16
	movq	%rsp, %rbp
	.cfi_def_cfa_register %rbp
	subq	$32, %rsp
	movq	%rdi, -32(%rbp)
	movq	%rdi, -24(%rbp)
Ltmp508:
Ltmp514:
	.loc	15 490 1 prologue_end
	callq	__ZN70_$LT$alloc..vec..Vec$LT$T$C$A$GT$$u20$as$u20$core..ops..drop..Drop$GT$4drop17h0d32417791de3ea7E
Ltmp509:
	jmp	LBB48_3
LBB48_1:
Ltmp511:
	.loc	15 0 1 is_stmt 0
	movq	-32(%rbp), %rdi
	.loc	15 490 1
	callq	__ZN4core3ptr88drop_in_place$LT$alloc..raw_vec..RawVec$LT$$RF$objc_foundation..object..NSObject$GT$$GT$17h0669c054c6b27217E
Ltmp512:
	jmp	LBB48_5
LBB48_2:
Ltmp510:
	.loc	15 0 1
	movq	%rax, %rcx
	movl	%edx, %eax
	movq	%rcx, -16(%rbp)
	movl	%eax, -8(%rbp)
	jmp	LBB48_1
LBB48_3:
	movq	-32(%rbp), %rdi
	.loc	15 490 1
	callq	__ZN4core3ptr88drop_in_place$LT$alloc..raw_vec..RawVec$LT$$RF$objc_foundation..object..NSObject$GT$$GT$17h0669c054c6b27217E
	addq	$32, %rsp
	popq	%rbp
	retq
LBB48_4:
Ltmp513:
	callq	__ZN4core9panicking19panic_cannot_unwind17h1fbca7e1d7f56ae1E
LBB48_5:
	movq	-16(%rbp), %rdi
	callq	__Unwind_Resume
Ltmp515:
Lfunc_end48:
	.cfi_endproc
	.section	__TEXT,__gcc_except_tab
	.p2align	2
GCC_except_table48:
Lexception16:
	.byte	255
	.byte	255
	.byte	1
	.uleb128 Lcst_end16-Lcst_begin16
Lcst_begin16:
	.uleb128 Ltmp508-Lfunc_begin48
	.uleb128 Ltmp509-Ltmp508
	.uleb128 Ltmp510-Lfunc_begin48
	.byte	0
	.uleb128 Ltmp511-Lfunc_begin48
	.uleb128 Ltmp512-Ltmp511
	.uleb128 Ltmp513-Lfunc_begin48
	.byte	0
	.uleb128 Ltmp512-Lfunc_begin48
	.uleb128 Lfunc_end48-Ltmp512
	.byte	0
	.byte	0
Lcst_end16:
	.p2align	2

	.section	__TEXT,__text,regular,pure_instructions
	.globl	__ZN4core3ptr81drop_in_place$LT$alloc..vec..Vec$LT$$RF$objc_foundation..string..NSString$GT$$GT$17hc4315068ee46261eE
	.p2align	4, 0x90
__ZN4core3ptr81drop_in_place$LT$alloc..vec..Vec$LT$$RF$objc_foundation..string..NSString$GT$$GT$17hc4315068ee46261eE:
Lfunc_begin49:
	.loc	15 490 0 is_stmt 1
	.cfi_startproc
	.cfi_personality 155, _rust_eh_personality
	.cfi_lsda 16, Lexception17
	pushq	%rbp
	.cfi_def_cfa_offset 16
	.cfi_offset %rbp, -16
	movq	%rsp, %rbp
	.cfi_def_cfa_register %rbp
	subq	$32, %rsp
	movq	%rdi, -32(%rbp)
	movq	%rdi, -24(%rbp)
Ltmp516:
Ltmp522:
	.loc	15 490 1 prologue_end
	callq	__ZN70_$LT$alloc..vec..Vec$LT$T$C$A$GT$$u20$as$u20$core..ops..drop..Drop$GT$4drop17h564cdc1db96a2ca9E
Ltmp517:
	jmp	LBB49_3
LBB49_1:
Ltmp519:
	.loc	15 0 1 is_stmt 0
	movq	-32(%rbp), %rdi
	.loc	15 490 1
	callq	__ZN4core3ptr88drop_in_place$LT$alloc..raw_vec..RawVec$LT$$RF$objc_foundation..string..NSString$GT$$GT$17h9aed35eaa343ff1fE
Ltmp520:
	jmp	LBB49_5
LBB49_2:
Ltmp518:
	.loc	15 0 1
	movq	%rax, %rcx
	movl	%edx, %eax
	movq	%rcx, -16(%rbp)
	movl	%eax, -8(%rbp)
	jmp	LBB49_1
LBB49_3:
	movq	-32(%rbp), %rdi
	.loc	15 490 1
	callq	__ZN4core3ptr88drop_in_place$LT$alloc..raw_vec..RawVec$LT$$RF$objc_foundation..string..NSString$GT$$GT$17h9aed35eaa343ff1fE
	addq	$32, %rsp
	popq	%rbp
	retq
LBB49_4:
Ltmp521:
	callq	__ZN4core9panicking19panic_cannot_unwind17h1fbca7e1d7f56ae1E
LBB49_5:
	movq	-16(%rbp), %rdi
	callq	__Unwind_Resume
Ltmp523:
Lfunc_end49:
	.cfi_endproc
	.section	__TEXT,__gcc_except_tab
	.p2align	2
GCC_except_table49:
Lexception17:
	.byte	255
	.byte	255
	.byte	1
	.uleb128 Lcst_end17-Lcst_begin17
Lcst_begin17:
	.uleb128 Ltmp516-Lfunc_begin49
	.uleb128 Ltmp517-Ltmp516
	.uleb128 Ltmp518-Lfunc_begin49
	.byte	0
	.uleb128 Ltmp519-Lfunc_begin49
	.uleb128 Ltmp520-Ltmp519
	.uleb128 Ltmp521-Lfunc_begin49
	.byte	0
	.uleb128 Ltmp520-Lfunc_begin49
	.uleb128 Lfunc_end49-Ltmp520
	.byte	0
	.byte	0
Lcst_end17:
	.p2align	2

	.section	__TEXT,__text,regular,pure_instructions
	.globl	__ZN4core3ptr87drop_in_place$LT$$u5b$objc_id..id..Id$LT$objc_foundation..object..NSObject$GT$$u5d$$GT$17h1abe73b4efcc3a7aE
	.p2align	4, 0x90
__ZN4core3ptr87drop_in_place$LT$$u5b$objc_id..id..Id$LT$objc_foundation..object..NSObject$GT$$u5d$$GT$17h1abe73b4efcc3a7aE:
Lfunc_begin50:
	.loc	15 490 0 is_stmt 1
	.cfi_startproc
	.cfi_personality 155, _rust_eh_personality
	.cfi_lsda 16, Lexception18
	pushq	%rbp
	.cfi_def_cfa_offset 16
	.cfi_offset %rbp, -16
	movq	%rsp, %rbp
	.cfi_def_cfa_register %rbp
	subq	$80, %rsp
	movq	%rdi, -64(%rbp)
	movq	%rsi, -56(%rbp)
	movq	%rdi, -32(%rbp)
	movq	%rsi, -24(%rbp)
Ltmp535:
	.loc	15 490 1 prologue_end
	xorl	%eax, %eax
	testb	$1, %al
	jne	LBB50_1
	jmp	LBB50_2
LBB50_1:
	movq	$0, -48(%rbp)
	jmp	LBB50_11
LBB50_2:
	.loc	15 0 1 is_stmt 0
	movq	-56(%rbp), %rax
	movq	-64(%rbp), %rcx
	.loc	15 490 1
	movq	%rcx, -40(%rbp)
	shlq	$3, %rax
	addq	-40(%rbp), %rax
	movq	%rax, -72(%rbp)
LBB50_3:
	.loc	15 0 1
	movq	-72(%rbp), %rax
	.loc	15 490 1
	cmpq	%rax, -40(%rbp)
	je	LBB50_5
	movq	-40(%rbp), %rdi
	movq	%rdi, %rax
	addq	$8, %rax
	movq	%rax, -40(%rbp)
Ltmp524:
	callq	__ZN4core3ptr77drop_in_place$LT$objc_id..id..Id$LT$objc_foundation..object..NSObject$GT$$GT$17h8c40347be3b91769E
Ltmp525:
	jmp	LBB50_3
LBB50_5:
	addq	$80, %rsp
	popq	%rbp
	retq
LBB50_6:
	.loc	15 0 1
	movq	-72(%rbp), %rax
	.loc	15 490 1
	cmpq	%rax, -40(%rbp)
	je	LBB50_9
	jmp	LBB50_8
LBB50_7:
Ltmp526:
	.loc	15 0 1
	movq	%rax, %rcx
	movl	%edx, %eax
	movq	%rcx, -16(%rbp)
	movl	%eax, -8(%rbp)
	jmp	LBB50_6
LBB50_8:
	.loc	15 490 1
	movq	-40(%rbp), %rdi
	movq	%rdi, %rax
	addq	$8, %rax
	movq	%rax, -40(%rbp)
Ltmp527:
	callq	__ZN4core3ptr77drop_in_place$LT$objc_id..id..Id$LT$objc_foundation..object..NSObject$GT$$GT$17h8c40347be3b91769E
Ltmp528:
	jmp	LBB50_6
LBB50_9:
	movq	-16(%rbp), %rdi
	callq	__Unwind_Resume
LBB50_10:
Ltmp534:
	callq	__ZN4core9panicking19panic_cannot_unwind17h1fbca7e1d7f56ae1E
LBB50_11:
	.loc	15 0 1
	movq	-56(%rbp), %rax
	.loc	15 490 1
	cmpq	%rax, -48(%rbp)
	je	LBB50_5
	.loc	15 0 1
	movq	-64(%rbp), %rcx
	.loc	15 490 1
	movq	-48(%rbp), %rax
	leaq	(%rcx,%rax,8), %rdi
	incq	%rax
	movq	%rax, -48(%rbp)
Ltmp529:
	callq	__ZN4core3ptr77drop_in_place$LT$objc_id..id..Id$LT$objc_foundation..object..NSObject$GT$$GT$17h8c40347be3b91769E
Ltmp530:
	jmp	LBB50_11
LBB50_13:
	.loc	15 0 1
	movq	-56(%rbp), %rax
	.loc	15 490 1
	cmpq	%rax, -48(%rbp)
	je	LBB50_9
	jmp	LBB50_15
LBB50_14:
Ltmp531:
	.loc	15 0 1
	movq	%rax, %rcx
	movl	%edx, %eax
	movq	%rcx, -16(%rbp)
	movl	%eax, -8(%rbp)
	jmp	LBB50_13
LBB50_15:
	movq	-64(%rbp), %rcx
	.loc	15 490 1
	movq	-48(%rbp), %rax
	leaq	(%rcx,%rax,8), %rdi
	incq	%rax
	movq	%rax, -48(%rbp)
Ltmp532:
	callq	__ZN4core3ptr77drop_in_place$LT$objc_id..id..Id$LT$objc_foundation..object..NSObject$GT$$GT$17h8c40347be3b91769E
Ltmp533:
	jmp	LBB50_13
Ltmp536:
Lfunc_end50:
	.cfi_endproc
	.section	__TEXT,__gcc_except_tab
	.p2align	2
GCC_except_table50:
Lexception18:
	.byte	255
	.byte	255
	.byte	1
	.uleb128 Lcst_end18-Lcst_begin18
Lcst_begin18:
	.uleb128 Ltmp524-Lfunc_begin50
	.uleb128 Ltmp525-Ltmp524
	.uleb128 Ltmp526-Lfunc_begin50
	.byte	0
	.uleb128 Ltmp527-Lfunc_begin50
	.uleb128 Ltmp528-Ltmp527
	.uleb128 Ltmp534-Lfunc_begin50
	.byte	0
	.uleb128 Ltmp528-Lfunc_begin50
	.uleb128 Ltmp529-Ltmp528
	.byte	0
	.byte	0
	.uleb128 Ltmp529-Lfunc_begin50
	.uleb128 Ltmp530-Ltmp529
	.uleb128 Ltmp531-Lfunc_begin50
	.byte	0
	.uleb128 Ltmp532-Lfunc_begin50
	.uleb128 Ltmp533-Ltmp532
	.uleb128 Ltmp534-Lfunc_begin50
	.byte	0
Lcst_end18:
	.p2align	2

	.section	__TEXT,__text,regular,pure_instructions
	.globl	__ZN4core3ptr87drop_in_place$LT$$u5b$objc_id..id..Id$LT$objc_foundation..string..NSString$GT$$u5d$$GT$17he5e89d23c4ff83dbE
	.p2align	4, 0x90
__ZN4core3ptr87drop_in_place$LT$$u5b$objc_id..id..Id$LT$objc_foundation..string..NSString$GT$$u5d$$GT$17he5e89d23c4ff83dbE:
Lfunc_begin51:
	.loc	15 490 0 is_stmt 1
	.cfi_startproc
	.cfi_personality 155, _rust_eh_personality
	.cfi_lsda 16, Lexception19
	pushq	%rbp
	.cfi_def_cfa_offset 16
	.cfi_offset %rbp, -16
	movq	%rsp, %rbp
	.cfi_def_cfa_register %rbp
	subq	$80, %rsp
	movq	%rdi, -64(%rbp)
	movq	%rsi, -56(%rbp)
	movq	%rdi, -32(%rbp)
	movq	%rsi, -24(%rbp)
Ltmp548:
	.loc	15 490 1 prologue_end
	xorl	%eax, %eax
	testb	$1, %al
	jne	LBB51_1
	jmp	LBB51_2
LBB51_1:
	movq	$0, -48(%rbp)
	jmp	LBB51_11
LBB51_2:
	.loc	15 0 1 is_stmt 0
	movq	-56(%rbp), %rax
	movq	-64(%rbp), %rcx
	.loc	15 490 1
	movq	%rcx, -40(%rbp)
	shlq	$3, %rax
	addq	-40(%rbp), %rax
	movq	%rax, -72(%rbp)
LBB51_3:
	.loc	15 0 1
	movq	-72(%rbp), %rax
	.loc	15 490 1
	cmpq	%rax, -40(%rbp)
	je	LBB51_5
	movq	-40(%rbp), %rdi
	movq	%rdi, %rax
	addq	$8, %rax
	movq	%rax, -40(%rbp)
Ltmp537:
	callq	__ZN4core3ptr77drop_in_place$LT$objc_id..id..Id$LT$objc_foundation..string..NSString$GT$$GT$17hec36f7cb04bd01d4E
Ltmp538:
	jmp	LBB51_3
LBB51_5:
	addq	$80, %rsp
	popq	%rbp
	retq
LBB51_6:
	.loc	15 0 1
	movq	-72(%rbp), %rax
	.loc	15 490 1
	cmpq	%rax, -40(%rbp)
	je	LBB51_9
	jmp	LBB51_8
LBB51_7:
Ltmp539:
	.loc	15 0 1
	movq	%rax, %rcx
	movl	%edx, %eax
	movq	%rcx, -16(%rbp)
	movl	%eax, -8(%rbp)
	jmp	LBB51_6
LBB51_8:
	.loc	15 490 1
	movq	-40(%rbp), %rdi
	movq	%rdi, %rax
	addq	$8, %rax
	movq	%rax, -40(%rbp)
Ltmp540:
	callq	__ZN4core3ptr77drop_in_place$LT$objc_id..id..Id$LT$objc_foundation..string..NSString$GT$$GT$17hec36f7cb04bd01d4E
Ltmp541:
	jmp	LBB51_6
LBB51_9:
	movq	-16(%rbp), %rdi
	callq	__Unwind_Resume
LBB51_10:
Ltmp547:
	callq	__ZN4core9panicking19panic_cannot_unwind17h1fbca7e1d7f56ae1E
LBB51_11:
	.loc	15 0 1
	movq	-56(%rbp), %rax
	.loc	15 490 1
	cmpq	%rax, -48(%rbp)
	je	LBB51_5
	.loc	15 0 1
	movq	-64(%rbp), %rcx
	.loc	15 490 1
	movq	-48(%rbp), %rax
	leaq	(%rcx,%rax,8), %rdi
	incq	%rax
	movq	%rax, -48(%rbp)
Ltmp542:
	callq	__ZN4core3ptr77drop_in_place$LT$objc_id..id..Id$LT$objc_foundation..string..NSString$GT$$GT$17hec36f7cb04bd01d4E
Ltmp543:
	jmp	LBB51_11
LBB51_13:
	.loc	15 0 1
	movq	-56(%rbp), %rax
	.loc	15 490 1
	cmpq	%rax, -48(%rbp)
	je	LBB51_9
	jmp	LBB51_15
LBB51_14:
Ltmp544:
	.loc	15 0 1
	movq	%rax, %rcx
	movl	%edx, %eax
	movq	%rcx, -16(%rbp)
	movl	%eax, -8(%rbp)
	jmp	LBB51_13
LBB51_15:
	movq	-64(%rbp), %rcx
	.loc	15 490 1
	movq	-48(%rbp), %rax
	leaq	(%rcx,%rax,8), %rdi
	incq	%rax
	movq	%rax, -48(%rbp)
Ltmp545:
	callq	__ZN4core3ptr77drop_in_place$LT$objc_id..id..Id$LT$objc_foundation..string..NSString$GT$$GT$17hec36f7cb04bd01d4E
Ltmp546:
	jmp	LBB51_13
Ltmp549:
Lfunc_end51:
	.cfi_endproc
	.section	__TEXT,__gcc_except_tab
	.p2align	2
GCC_except_table51:
Lexception19:
	.byte	255
	.byte	255
	.byte	1
	.uleb128 Lcst_end19-Lcst_begin19
Lcst_begin19:
	.uleb128 Ltmp537-Lfunc_begin51
	.uleb128 Ltmp538-Ltmp537
	.uleb128 Ltmp539-Lfunc_begin51
	.byte	0
	.uleb128 Ltmp540-Lfunc_begin51
	.uleb128 Ltmp541-Ltmp540
	.uleb128 Ltmp547-Lfunc_begin51
	.byte	0
	.uleb128 Ltmp541-Lfunc_begin51
	.uleb128 Ltmp542-Ltmp541
	.byte	0
	.byte	0
	.uleb128 Ltmp542-Lfunc_begin51
	.uleb128 Ltmp543-Ltmp542
	.uleb128 Ltmp544-Lfunc_begin51
	.byte	0
	.uleb128 Ltmp545-Lfunc_begin51
	.uleb128 Ltmp546-Ltmp545
	.uleb128 Ltmp547-Lfunc_begin51
	.byte	0
Lcst_end19:
	.p2align	2

	.section	__TEXT,__text,regular,pure_instructions
	.globl	__ZN4core3ptr88drop_in_place$LT$alloc..raw_vec..RawVec$LT$$RF$objc_foundation..object..NSObject$GT$$GT$17h0669c054c6b27217E
	.p2align	4, 0x90
__ZN4core3ptr88drop_in_place$LT$alloc..raw_vec..RawVec$LT$$RF$objc_foundation..object..NSObject$GT$$GT$17h0669c054c6b27217E:
Lfunc_begin52:
	.loc	15 490 0 is_stmt 1
	.cfi_startproc
	pushq	%rbp
	.cfi_def_cfa_offset 16
	.cfi_offset %rbp, -16
	movq	%rsp, %rbp
	.cfi_def_cfa_register %rbp
	subq	$16, %rsp
	movq	%rdi, -8(%rbp)
Ltmp550:
	.loc	15 490 1 prologue_end
	callq	__ZN77_$LT$alloc..raw_vec..RawVec$LT$T$C$A$GT$$u20$as$u20$core..ops..drop..Drop$GT$4drop17h5dcf99e3dcd1f0f3E
	addq	$16, %rsp
	popq	%rbp
	retq
Ltmp551:
Lfunc_end52:
	.cfi_endproc

	.globl	__ZN4core3ptr88drop_in_place$LT$alloc..raw_vec..RawVec$LT$$RF$objc_foundation..string..NSString$GT$$GT$17h9aed35eaa343ff1fE
	.p2align	4, 0x90
__ZN4core3ptr88drop_in_place$LT$alloc..raw_vec..RawVec$LT$$RF$objc_foundation..string..NSString$GT$$GT$17h9aed35eaa343ff1fE:
Lfunc_begin53:
	.loc	15 490 0
	.cfi_startproc
	pushq	%rbp
	.cfi_def_cfa_offset 16
	.cfi_offset %rbp, -16
	movq	%rsp, %rbp
	.cfi_def_cfa_register %rbp
	subq	$16, %rsp
	movq	%rdi, -8(%rbp)
Ltmp552:
	.loc	15 490 1 prologue_end
	callq	__ZN77_$LT$alloc..raw_vec..RawVec$LT$T$C$A$GT$$u20$as$u20$core..ops..drop..Drop$GT$4drop17h7f6d221cc63fb0d0E
	addq	$16, %rsp
	popq	%rbp
	retq
Ltmp553:
Lfunc_end53:
	.cfi_endproc

	.globl	__ZN4core3ptr908drop_in_place$LT$core..iter..adapters..map..map_fold$LT$$RF$objc_id..id..Id$LT$objc_foundation..object..NSObject$GT$$C$$RF$objc_foundation..object..NSObject$C$$LP$$RP$$C$$LT$objc_foundation..array..NSArray$LT$objc_foundation..object..NSObject$GT$$u20$as$u20$objc_foundation..array..INSArray$GT$..from_vec..$u7b$$u7b$closure$u7d$$u7d$$C$core..iter..traits..iterator..Iterator..for_each..call$LT$$RF$objc_foundation..object..NSObject$C$alloc..vec..Vec$LT$$RF$objc_foundation..object..NSObject$GT$..extend_trusted$LT$core..iter..adapters..map..Map$LT$core..slice..iter..Iter$LT$objc_id..id..Id$LT$objc_foundation..object..NSObject$GT$$GT$$C$$LT$objc_foundation..array..NSArray$LT$objc_foundation..object..NSObject$GT$$u20$as$u20$objc_foundation..array..INSArray$GT$..from_vec..$u7b$$u7b$closure$u7d$$u7d$$GT$$GT$..$u7b$$u7b$closure$u7d$$u7d$$GT$..$u7b$$u7b$closure$u7d$$u7d$$GT$..$u7b$$u7b$closure$u7d$$u7d$$GT$17h1a85d4d7057e968bE
	.p2align	4, 0x90
__ZN4core3ptr908drop_in_place$LT$core..iter..adapters..map..map_fold$LT$$RF$objc_id..id..Id$LT$objc_foundation..object..NSObject$GT$$C$$RF$objc_foundation..object..NSObject$C$$LP$$RP$$C$$LT$objc_foundation..array..NSArray$LT$objc_foundation..object..NSObject$GT$$u20$as$u20$objc_foundation..array..INSArray$GT$..from_vec..$u7b$$u7b$closure$u7d$$u7d$$C$core..iter..traits..iterator..Iterator..for_each..call$LT$$RF$objc_foundation..object..NSObject$C$alloc..vec..Vec$LT$$RF$objc_foundation..object..NSObject$GT$..extend_trusted$LT$core..iter..adapters..map..Map$LT$core..slice..iter..Iter$LT$objc_id..id..Id$LT$objc_foundation..object..NSObject$GT$$GT$$C$$LT$objc_foundation..array..NSArray$LT$objc_foundation..object..NSObject$GT$$u20$as$u20$objc_foundation..array..INSArray$GT$..from_vec..$u7b$$u7b$closure$u7d$$u7d$$GT$$GT$..$u7b$$u7b$closure$u7d$$u7d$$GT$..$u7b$$u7b$closure$u7d$$u7d$$GT$..$u7b$$u7b$closure$u7d$$u7d$$GT$17h1a85d4d7057e968bE:
Lfunc_begin54:
	.loc	15 490 0
	.cfi_startproc
	pushq	%rbp
	.cfi_def_cfa_offset 16
	.cfi_offset %rbp, -16
	movq	%rsp, %rbp
	.cfi_def_cfa_register %rbp
	subq	$16, %rsp
	movq	%rdi, -8(%rbp)
Ltmp554:
	.loc	15 490 1 prologue_end
	callq	__ZN4core3ptr556drop_in_place$LT$core..iter..traits..iterator..Iterator..for_each..call$LT$$RF$objc_foundation..object..NSObject$C$alloc..vec..Vec$LT$$RF$objc_foundation..object..NSObject$GT$..extend_trusted$LT$core..iter..adapters..map..Map$LT$core..slice..iter..Iter$LT$objc_id..id..Id$LT$objc_foundation..object..NSObject$GT$$GT$$C$$LT$objc_foundation..array..NSArray$LT$objc_foundation..object..NSObject$GT$$u20$as$u20$objc_foundation..array..INSArray$GT$..from_vec..$u7b$$u7b$closure$u7d$$u7d$$GT$$GT$..$u7b$$u7b$closure$u7d$$u7d$$GT$..$u7b$$u7b$closure$u7d$$u7d$$GT$17h10f9b402a41b9cfcE
	addq	$16, %rsp
	popq	%rbp
	retq
Ltmp555:
Lfunc_end54:
	.cfi_endproc

	.globl	__ZN4core3ptr908drop_in_place$LT$core..iter..adapters..map..map_fold$LT$$RF$objc_id..id..Id$LT$objc_foundation..string..NSString$GT$$C$$RF$objc_foundation..string..NSString$C$$LP$$RP$$C$$LT$objc_foundation..array..NSArray$LT$objc_foundation..string..NSString$GT$$u20$as$u20$objc_foundation..array..INSArray$GT$..from_vec..$u7b$$u7b$closure$u7d$$u7d$$C$core..iter..traits..iterator..Iterator..for_each..call$LT$$RF$objc_foundation..string..NSString$C$alloc..vec..Vec$LT$$RF$objc_foundation..string..NSString$GT$..extend_trusted$LT$core..iter..adapters..map..Map$LT$core..slice..iter..Iter$LT$objc_id..id..Id$LT$objc_foundation..string..NSString$GT$$GT$$C$$LT$objc_foundation..array..NSArray$LT$objc_foundation..string..NSString$GT$$u20$as$u20$objc_foundation..array..INSArray$GT$..from_vec..$u7b$$u7b$closure$u7d$$u7d$$GT$$GT$..$u7b$$u7b$closure$u7d$$u7d$$GT$..$u7b$$u7b$closure$u7d$$u7d$$GT$..$u7b$$u7b$closure$u7d$$u7d$$GT$17h44c33e1d46a9031fE
	.p2align	4, 0x90
__ZN4core3ptr908drop_in_place$LT$core..iter..adapters..map..map_fold$LT$$RF$objc_id..id..Id$LT$objc_foundation..string..NSString$GT$$C$$RF$objc_foundation..string..NSString$C$$LP$$RP$$C$$LT$objc_foundation..array..NSArray$LT$objc_foundation..string..NSString$GT$$u20$as$u20$objc_foundation..array..INSArray$GT$..from_vec..$u7b$$u7b$closure$u7d$$u7d$$C$core..iter..traits..iterator..Iterator..for_each..call$LT$$RF$objc_foundation..string..NSString$C$alloc..vec..Vec$LT$$RF$objc_foundation..string..NSString$GT$..extend_trusted$LT$core..iter..adapters..map..Map$LT$core..slice..iter..Iter$LT$objc_id..id..Id$LT$objc_foundation..string..NSString$GT$$GT$$C$$LT$objc_foundation..array..NSArray$LT$objc_foundation..string..NSString$GT$$u20$as$u20$objc_foundation..array..INSArray$GT$..from_vec..$u7b$$u7b$closure$u7d$$u7d$$GT$$GT$..$u7b$$u7b$closure$u7d$$u7d$$GT$..$u7b$$u7b$closure$u7d$$u7d$$GT$..$u7b$$u7b$closure$u7d$$u7d$$GT$17h44c33e1d46a9031fE:
Lfunc_begin55:
	.loc	15 490 0
	.cfi_startproc
	pushq	%rbp
	.cfi_def_cfa_offset 16
	.cfi_offset %rbp, -16
	movq	%rsp, %rbp
	.cfi_def_cfa_register %rbp
	subq	$16, %rsp
	movq	%rdi, -8(%rbp)
Ltmp556:
	.loc	15 490 1 prologue_end
	callq	__ZN4core3ptr556drop_in_place$LT$core..iter..traits..iterator..Iterator..for_each..call$LT$$RF$objc_foundation..string..NSString$C$alloc..vec..Vec$LT$$RF$objc_foundation..string..NSString$GT$..extend_trusted$LT$core..iter..adapters..map..Map$LT$core..slice..iter..Iter$LT$objc_id..id..Id$LT$objc_foundation..string..NSString$GT$$GT$$C$$LT$objc_foundation..array..NSArray$LT$objc_foundation..string..NSString$GT$$u20$as$u20$objc_foundation..array..INSArray$GT$..from_vec..$u7b$$u7b$closure$u7d$$u7d$$GT$$GT$..$u7b$$u7b$closure$u7d$$u7d$$GT$..$u7b$$u7b$closure$u7d$$u7d$$GT$17h9bfdfc3f49992b4dE
	addq	$16, %rsp
	popq	%rbp
	retq
Ltmp557:
Lfunc_end55:
	.cfi_endproc

	.globl	__ZN4core3ptr9const_ptr33_$LT$impl$u20$$BP$const$u20$T$GT$7sub_ptr17h78c88affe777bddbE
	.p2align	4, 0x90
__ZN4core3ptr9const_ptr33_$LT$impl$u20$$BP$const$u20$T$GT$7sub_ptr17h78c88affe777bddbE:
Lfunc_begin56:
	.file	17 "/rustc/2c8cc343237b8f7d5a3c3703e3a87f2eb2c54a74/library/core/src/ptr" "const_ptr.rs"
	.loc	17 791 0
	.cfi_startproc
	pushq	%rbp
	.cfi_def_cfa_offset 16
	.cfi_offset %rbp, -16
	movq	%rsp, %rbp
	.cfi_def_cfa_register %rbp
	subq	$64, %rsp
	movq	%rdi, -56(%rbp)
	movq	%rsi, -48(%rbp)
	movq	%rdi, -32(%rbp)
	movq	%rsi, -24(%rbp)
Ltmp558:
	.file	18 "/rustc/2c8cc343237b8f7d5a3c3703e3a87f2eb2c54a74/library/core/src/mem" "mod.rs"
	.loc	18 309 5 prologue_end
	movq	$8, -16(%rbp)
Ltmp559:
	.loc	17 806 17
	movb	$1, %al
	testb	$1, %al
	jne	LBB56_2
	movb	$0, -33(%rbp)
	jmp	LBB56_3
LBB56_2:
	movb	$1, -33(%rbp)
LBB56_3:
	.loc	17 806 9 is_stmt 0
	movb	-33(%rbp), %al
	xorb	$-1, %al
	testb	$1, %al
	jne	LBB56_5
	.loc	17 0 9
	movq	-48(%rbp), %rcx
	movq	-56(%rbp), %rax
	.loc	17 808 18 is_stmt 1
	subq	%rcx, %rax
	shrq	$3, %rax
	movq	%rax, -8(%rbp)
	movq	-8(%rbp), %rax
Ltmp560:
	.loc	17 809 6
	addq	$64, %rsp
	popq	%rbp
	retq
LBB56_5:
Ltmp561:
	.loc	17 806 9
	leaq	l___unnamed_22(%rip), %rdi
	leaq	l___unnamed_23(%rip), %rdx
	movl	$73, %esi
	callq	__ZN4core9panicking5panic17hc1bc45270cf64b03E
Ltmp562:
Lfunc_end56:
	.cfi_endproc

	.globl	__ZN4core3ptr9const_ptr33_$LT$impl$u20$$BP$const$u20$T$GT$7sub_ptr17h8cca030382f902f2E
	.p2align	4, 0x90
__ZN4core3ptr9const_ptr33_$LT$impl$u20$$BP$const$u20$T$GT$7sub_ptr17h8cca030382f902f2E:
Lfunc_begin57:
	.loc	17 791 0
	.cfi_startproc
	pushq	%rbp
	.cfi_def_cfa_offset 16
	.cfi_offset %rbp, -16
	movq	%rsp, %rbp
	.cfi_def_cfa_register %rbp
	subq	$64, %rsp
	movq	%rdi, -56(%rbp)
	movq	%rsi, -48(%rbp)
	movq	%rdi, -32(%rbp)
	movq	%rsi, -24(%rbp)
Ltmp563:
	.loc	18 309 5 prologue_end
	movq	$8, -16(%rbp)
Ltmp564:
	.loc	17 806 17
	movb	$1, %al
	testb	$1, %al
	jne	LBB57_2
	movb	$0, -33(%rbp)
	jmp	LBB57_3
LBB57_2:
	movb	$1, -33(%rbp)
LBB57_3:
	.loc	17 806 9 is_stmt 0
	movb	-33(%rbp), %al
	xorb	$-1, %al
	testb	$1, %al
	jne	LBB57_5
	.loc	17 0 9
	movq	-48(%rbp), %rcx
	movq	-56(%rbp), %rax
	.loc	17 808 18 is_stmt 1
	subq	%rcx, %rax
	shrq	$3, %rax
	movq	%rax, -8(%rbp)
	movq	-8(%rbp), %rax
Ltmp565:
	.loc	17 809 6
	addq	$64, %rsp
	popq	%rbp
	retq
LBB57_5:
Ltmp566:
	.loc	17 806 9
	leaq	l___unnamed_22(%rip), %rdi
	leaq	l___unnamed_23(%rip), %rdx
	movl	$73, %esi
	callq	__ZN4core9panicking5panic17hc1bc45270cf64b03E
Ltmp567:
Lfunc_end57:
	.cfi_endproc

	.p2align	4, 0x90
__ZN4core3str21_$LT$impl$u20$str$GT$3len17h01f0923eaf8074abE:
Lfunc_begin58:
	.file	19 "/rustc/2c8cc343237b8f7d5a3c3703e3a87f2eb2c54a74/library/core/src/str" "mod.rs"
	.loc	19 159 0
	.cfi_startproc
	pushq	%rbp
	.cfi_def_cfa_offset 16
	.cfi_offset %rbp, -16
	movq	%rsp, %rbp
	.cfi_def_cfa_register %rbp
	subq	$48, %rsp
	movq	%rdi, -48(%rbp)
	movq	%rsi, -40(%rbp)
Ltmp568:
	.loc	19 160 9 prologue_end
	movq	%rdi, -32(%rbp)
	movq	%rsi, -24(%rbp)
Ltmp569:
	.loc	19 327 18
	movq	%rdi, -16(%rbp)
	movq	%rsi, -8(%rbp)
	movq	-8(%rbp), %rax
Ltmp570:
	.loc	19 161 6
	addq	$48, %rsp
	popq	%rbp
	retq
Ltmp571:
Lfunc_end58:
	.cfi_endproc

	.globl	__ZN4core4iter6traits8iterator8Iterator3map17h09749091769f080cE
	.p2align	4, 0x90
__ZN4core4iter6traits8iterator8Iterator3map17h09749091769f080cE:
Lfunc_begin59:
	.file	20 "/rustc/2c8cc343237b8f7d5a3c3703e3a87f2eb2c54a74/library/core/src/iter/traits" "iterator.rs"
	.loc	20 782 0
	.cfi_startproc
	pushq	%rbp
	.cfi_def_cfa_offset 16
	.cfi_offset %rbp, -16
	movq	%rsp, %rbp
	.cfi_def_cfa_register %rbp
	subq	$32, %rsp
	movq	%rdi, -24(%rbp)
	movq	%rsi, -16(%rbp)
Ltmp572:
	.loc	20 787 9 prologue_end
	callq	__ZN4core4iter8adapters3map16Map$LT$I$C$F$GT$3new17hf2147e07f841fdd0E
	.loc	20 788 6
	addq	$32, %rsp
	popq	%rbp
	retq
Ltmp573:
Lfunc_end59:
	.cfi_endproc

	.globl	__ZN4core4iter6traits8iterator8Iterator3map17h52a9df533b5759bdE
	.p2align	4, 0x90
__ZN4core4iter6traits8iterator8Iterator3map17h52a9df533b5759bdE:
Lfunc_begin60:
	.loc	20 782 0
	.cfi_startproc
	pushq	%rbp
	.cfi_def_cfa_offset 16
	.cfi_offset %rbp, -16
	movq	%rsp, %rbp
	.cfi_def_cfa_register %rbp
	subq	$32, %rsp
	movq	%rdi, -24(%rbp)
	movq	%rsi, -16(%rbp)
Ltmp574:
	.loc	20 787 9 prologue_end
	callq	__ZN4core4iter8adapters3map16Map$LT$I$C$F$GT$3new17hdf0934b77335ad0cE
	.loc	20 788 6
	addq	$32, %rsp
	popq	%rbp
	retq
Ltmp575:
Lfunc_end60:
	.cfi_endproc

	.globl	__ZN4core4iter6traits8iterator8Iterator4fold17h94990763e6208d69E
	.p2align	4, 0x90
__ZN4core4iter6traits8iterator8Iterator4fold17h94990763e6208d69E:
Lfunc_begin61:
	.loc	20 2431 0
	.cfi_startproc
	.cfi_personality 155, _rust_eh_personality
	.cfi_lsda 16, Lexception20
	pushq	%rbp
	.cfi_def_cfa_offset 16
	.cfi_offset %rbp, -16
	movq	%rsp, %rbp
	.cfi_def_cfa_register %rbp
	subq	$96, %rsp
	movq	%rdx, -88(%rbp)
Ltmp587:
	movq	%rdi, -80(%rbp)
	movq	%rsi, -72(%rbp)
Ltmp588:
	.loc	20 2436 25 prologue_end
	movb	$1, -41(%rbp)
Ltmp589:
LBB61_1:
Ltmp576:
	.loc	20 0 25 is_stmt 0
	leaq	-80(%rbp), %rdi
Ltmp590:
	.loc	20 2437 29 is_stmt 1
	callq	__ZN91_$LT$core..slice..iter..Iter$LT$T$GT$$u20$as$u20$core..iter..traits..iterator..Iterator$GT$4next17h917b9c5dbbd5fdeeE
Ltmp577:
	movq	%rax, -96(%rbp)
	jmp	LBB61_4
Ltmp591:
LBB61_2:
	.loc	20 2441 5
	testb	$1, -41(%rbp)
	jne	LBB61_13
	jmp	LBB61_12
Ltmp592:
LBB61_3:
Ltmp583:
	.loc	20 0 5 is_stmt 0
	movq	%rax, %rcx
	movl	%edx, %eax
	movq	%rcx, -24(%rbp)
	movl	%eax, -16(%rbp)
	jmp	LBB61_2
Ltmp593:
LBB61_4:
	movq	-96(%rbp), %rax
Ltmp594:
	.loc	20 2437 29 is_stmt 1
	movq	%rax, -64(%rbp)
	.loc	20 2437 19 is_stmt 0
	movq	-64(%rbp), %rdx
	movl	$1, %eax
	xorl	%ecx, %ecx
	cmpq	$0, %rdx
	cmoveq	%rcx, %rax
	cmpq	$1, %rax
	jne	LBB61_6
Ltmp595:
	.loc	20 0 19
	movq	-88(%rbp), %rdi
	.loc	20 2437 24
	movq	-64(%rbp), %rax
	movq	%rax, -8(%rbp)
	.loc	20 2438 23 is_stmt 1
	movb	$0, -41(%rbp)
	.loc	20 2438 21 is_stmt 0
	movq	%rax, -56(%rbp)
	movq	-56(%rbp), %rsi
Ltmp581:
	callq	__ZN4core4iter8adapters3map8map_fold28_$u7b$$u7b$closure$u7d$$u7d$17h8c9250f61c791dbeE
Ltmp582:
	jmp	LBB61_11
Ltmp596:
LBB61_6:
	.loc	20 2437 9 is_stmt 1
	jmp	LBB61_7
Ltmp597:
LBB61_7:
Ltmp578:
	.loc	20 0 9 is_stmt 0
	movq	-88(%rbp), %rdi
	.loc	20 2441 5 is_stmt 1
	callq	__ZN4core3ptr908drop_in_place$LT$core..iter..adapters..map..map_fold$LT$$RF$objc_id..id..Id$LT$objc_foundation..object..NSObject$GT$$C$$RF$objc_foundation..object..NSObject$C$$LP$$RP$$C$$LT$objc_foundation..array..NSArray$LT$objc_foundation..object..NSObject$GT$$u20$as$u20$objc_foundation..array..INSArray$GT$..from_vec..$u7b$$u7b$closure$u7d$$u7d$$C$core..iter..traits..iterator..Iterator..for_each..call$LT$$RF$objc_foundation..object..NSObject$C$alloc..vec..Vec$LT$$RF$objc_foundation..object..NSObject$GT$..extend_trusted$LT$core..iter..adapters..map..Map$LT$core..slice..iter..Iter$LT$objc_id..id..Id$LT$objc_foundation..object..NSObject$GT$$GT$$C$$LT$objc_foundation..array..NSArray$LT$objc_foundation..object..NSObject$GT$$u20$as$u20$objc_foundation..array..INSArray$GT$..from_vec..$u7b$$u7b$closure$u7d$$u7d$$GT$$GT$..$u7b$$u7b$closure$u7d$$u7d$$GT$..$u7b$$u7b$closure$u7d$$u7d$$GT$..$u7b$$u7b$closure$u7d$$u7d$$GT$17h1a85d4d7057e968bE
Ltmp579:
	jmp	LBB61_10
Ltmp598:
LBB61_8:
	.loc	20 2431 5
	movq	-24(%rbp), %rdi
	callq	__Unwind_Resume
Ltmp599:
LBB61_9:
Ltmp580:
	.loc	20 0 5 is_stmt 0
	movq	%rax, %rcx
	movl	%edx, %eax
	movq	%rcx, -24(%rbp)
	movl	%eax, -16(%rbp)
	jmp	LBB61_8
Ltmp600:
LBB61_10:
	.loc	20 2441 6 is_stmt 1
	addq	$96, %rsp
	popq	%rbp
	retq
Ltmp601:
LBB61_11:
	.loc	20 2438 13
	movb	$1, -41(%rbp)
Ltmp602:
	.loc	20 2437 9
	jmp	LBB61_1
Ltmp603:
LBB61_12:
Ltmp584:
	.loc	20 0 9 is_stmt 0
	movq	-88(%rbp), %rdi
	.loc	20 2441 5 is_stmt 1
	callq	__ZN4core3ptr908drop_in_place$LT$core..iter..adapters..map..map_fold$LT$$RF$objc_id..id..Id$LT$objc_foundation..object..NSObject$GT$$C$$RF$objc_foundation..object..NSObject$C$$LP$$RP$$C$$LT$objc_foundation..array..NSArray$LT$objc_foundation..object..NSObject$GT$$u20$as$u20$objc_foundation..array..INSArray$GT$..from_vec..$u7b$$u7b$closure$u7d$$u7d$$C$core..iter..traits..iterator..Iterator..for_each..call$LT$$RF$objc_foundation..object..NSObject$C$alloc..vec..Vec$LT$$RF$objc_foundation..object..NSObject$GT$..extend_trusted$LT$core..iter..adapters..map..Map$LT$core..slice..iter..Iter$LT$objc_id..id..Id$LT$objc_foundation..object..NSObject$GT$$GT$$C$$LT$objc_foundation..array..NSArray$LT$objc_foundation..object..NSObject$GT$$u20$as$u20$objc_foundation..array..INSArray$GT$..from_vec..$u7b$$u7b$closure$u7d$$u7d$$GT$$GT$..$u7b$$u7b$closure$u7d$$u7d$$GT$..$u7b$$u7b$closure$u7d$$u7d$$GT$..$u7b$$u7b$closure$u7d$$u7d$$GT$17h1a85d4d7057e968bE
Ltmp585:
	jmp	LBB61_8
Ltmp604:
LBB61_13:
	jmp	LBB61_12
Ltmp605:
LBB61_14:
Ltmp586:
	.loc	20 2431 5
	callq	__ZN4core9panicking19panic_cannot_unwind17h1fbca7e1d7f56ae1E
Ltmp606:
Lfunc_end61:
	.cfi_endproc
	.section	__TEXT,__gcc_except_tab
	.p2align	2
GCC_except_table61:
Lexception20:
	.byte	255
	.byte	255
	.byte	1
	.uleb128 Lcst_end20-Lcst_begin20
Lcst_begin20:
	.uleb128 Ltmp576-Lfunc_begin61
	.uleb128 Ltmp582-Ltmp576
	.uleb128 Ltmp583-Lfunc_begin61
	.byte	0
	.uleb128 Ltmp578-Lfunc_begin61
	.uleb128 Ltmp579-Ltmp578
	.uleb128 Ltmp580-Lfunc_begin61
	.byte	0
	.uleb128 Ltmp579-Lfunc_begin61
	.uleb128 Ltmp584-Ltmp579
	.byte	0
	.byte	0
	.uleb128 Ltmp584-Lfunc_begin61
	.uleb128 Ltmp585-Ltmp584
	.uleb128 Ltmp586-Lfunc_begin61
	.byte	0
Lcst_end20:
	.p2align	2

	.section	__TEXT,__text,regular,pure_instructions
	.globl	__ZN4core4iter6traits8iterator8Iterator4fold17ha99a1667ef020e28E
	.p2align	4, 0x90
__ZN4core4iter6traits8iterator8Iterator4fold17ha99a1667ef020e28E:
Lfunc_begin62:
	.loc	20 2431 0
	.cfi_startproc
	.cfi_personality 155, _rust_eh_personality
	.cfi_lsda 16, Lexception21
	pushq	%rbp
	.cfi_def_cfa_offset 16
	.cfi_offset %rbp, -16
	movq	%rsp, %rbp
	.cfi_def_cfa_register %rbp
	subq	$96, %rsp
	movq	%rdx, -88(%rbp)
Ltmp618:
	movq	%rdi, -80(%rbp)
	movq	%rsi, -72(%rbp)
Ltmp619:
	.loc	20 2436 25 prologue_end
	movb	$1, -41(%rbp)
Ltmp620:
LBB62_1:
Ltmp607:
	.loc	20 0 25 is_stmt 0
	leaq	-80(%rbp), %rdi
Ltmp621:
	.loc	20 2437 29 is_stmt 1
	callq	__ZN91_$LT$core..slice..iter..Iter$LT$T$GT$$u20$as$u20$core..iter..traits..iterator..Iterator$GT$4next17h5d84426bb3b1f5bdE
Ltmp608:
	movq	%rax, -96(%rbp)
	jmp	LBB62_4
Ltmp622:
LBB62_2:
	.loc	20 2441 5
	testb	$1, -41(%rbp)
	jne	LBB62_13
	jmp	LBB62_12
Ltmp623:
LBB62_3:
Ltmp614:
	.loc	20 0 5 is_stmt 0
	movq	%rax, %rcx
	movl	%edx, %eax
	movq	%rcx, -24(%rbp)
	movl	%eax, -16(%rbp)
	jmp	LBB62_2
Ltmp624:
LBB62_4:
	movq	-96(%rbp), %rax
Ltmp625:
	.loc	20 2437 29 is_stmt 1
	movq	%rax, -64(%rbp)
	.loc	20 2437 19 is_stmt 0
	movq	-64(%rbp), %rdx
	movl	$1, %eax
	xorl	%ecx, %ecx
	cmpq	$0, %rdx
	cmoveq	%rcx, %rax
	cmpq	$1, %rax
	jne	LBB62_6
Ltmp626:
	.loc	20 0 19
	movq	-88(%rbp), %rdi
	.loc	20 2437 24
	movq	-64(%rbp), %rax
	movq	%rax, -8(%rbp)
	.loc	20 2438 23 is_stmt 1
	movb	$0, -41(%rbp)
	.loc	20 2438 21 is_stmt 0
	movq	%rax, -56(%rbp)
	movq	-56(%rbp), %rsi
Ltmp612:
	callq	__ZN4core4iter8adapters3map8map_fold28_$u7b$$u7b$closure$u7d$$u7d$17hb0f5afd63457f789E
Ltmp613:
	jmp	LBB62_11
Ltmp627:
LBB62_6:
	.loc	20 2437 9 is_stmt 1
	jmp	LBB62_7
Ltmp628:
LBB62_7:
Ltmp609:
	.loc	20 0 9 is_stmt 0
	movq	-88(%rbp), %rdi
	.loc	20 2441 5 is_stmt 1
	callq	__ZN4core3ptr908drop_in_place$LT$core..iter..adapters..map..map_fold$LT$$RF$objc_id..id..Id$LT$objc_foundation..string..NSString$GT$$C$$RF$objc_foundation..string..NSString$C$$LP$$RP$$C$$LT$objc_foundation..array..NSArray$LT$objc_foundation..string..NSString$GT$$u20$as$u20$objc_foundation..array..INSArray$GT$..from_vec..$u7b$$u7b$closure$u7d$$u7d$$C$core..iter..traits..iterator..Iterator..for_each..call$LT$$RF$objc_foundation..string..NSString$C$alloc..vec..Vec$LT$$RF$objc_foundation..string..NSString$GT$..extend_trusted$LT$core..iter..adapters..map..Map$LT$core..slice..iter..Iter$LT$objc_id..id..Id$LT$objc_foundation..string..NSString$GT$$GT$$C$$LT$objc_foundation..array..NSArray$LT$objc_foundation..string..NSString$GT$$u20$as$u20$objc_foundation..array..INSArray$GT$..from_vec..$u7b$$u7b$closure$u7d$$u7d$$GT$$GT$..$u7b$$u7b$closure$u7d$$u7d$$GT$..$u7b$$u7b$closure$u7d$$u7d$$GT$..$u7b$$u7b$closure$u7d$$u7d$$GT$17h44c33e1d46a9031fE
Ltmp610:
	jmp	LBB62_10
Ltmp629:
LBB62_8:
	.loc	20 2431 5
	movq	-24(%rbp), %rdi
	callq	__Unwind_Resume
Ltmp630:
LBB62_9:
Ltmp611:
	.loc	20 0 5 is_stmt 0
	movq	%rax, %rcx
	movl	%edx, %eax
	movq	%rcx, -24(%rbp)
	movl	%eax, -16(%rbp)
	jmp	LBB62_8
Ltmp631:
LBB62_10:
	.loc	20 2441 6 is_stmt 1
	addq	$96, %rsp
	popq	%rbp
	retq
Ltmp632:
LBB62_11:
	.loc	20 2438 13
	movb	$1, -41(%rbp)
Ltmp633:
	.loc	20 2437 9
	jmp	LBB62_1
Ltmp634:
LBB62_12:
Ltmp615:
	.loc	20 0 9 is_stmt 0
	movq	-88(%rbp), %rdi
	.loc	20 2441 5 is_stmt 1
	callq	__ZN4core3ptr908drop_in_place$LT$core..iter..adapters..map..map_fold$LT$$RF$objc_id..id..Id$LT$objc_foundation..string..NSString$GT$$C$$RF$objc_foundation..string..NSString$C$$LP$$RP$$C$$LT$objc_foundation..array..NSArray$LT$objc_foundation..string..NSString$GT$$u20$as$u20$objc_foundation..array..INSArray$GT$..from_vec..$u7b$$u7b$closure$u7d$$u7d$$C$core..iter..traits..iterator..Iterator..for_each..call$LT$$RF$objc_foundation..string..NSString$C$alloc..vec..Vec$LT$$RF$objc_foundation..string..NSString$GT$..extend_trusted$LT$core..iter..adapters..map..Map$LT$core..slice..iter..Iter$LT$objc_id..id..Id$LT$objc_foundation..string..NSString$GT$$GT$$C$$LT$objc_foundation..array..NSArray$LT$objc_foundation..string..NSString$GT$$u20$as$u20$objc_foundation..array..INSArray$GT$..from_vec..$u7b$$u7b$closure$u7d$$u7d$$GT$$GT$..$u7b$$u7b$closure$u7d$$u7d$$GT$..$u7b$$u7b$closure$u7d$$u7d$$GT$..$u7b$$u7b$closure$u7d$$u7d$$GT$17h44c33e1d46a9031fE
Ltmp616:
	jmp	LBB62_8
Ltmp635:
LBB62_13:
	jmp	LBB62_12
Ltmp636:
LBB62_14:
Ltmp617:
	.loc	20 2431 5
	callq	__ZN4core9panicking19panic_cannot_unwind17h1fbca7e1d7f56ae1E
Ltmp637:
Lfunc_end62:
	.cfi_endproc
	.section	__TEXT,__gcc_except_tab
	.p2align	2
GCC_except_table62:
Lexception21:
	.byte	255
	.byte	255
	.byte	1
	.uleb128 Lcst_end21-Lcst_begin21
Lcst_begin21:
	.uleb128 Ltmp607-Lfunc_begin62
	.uleb128 Ltmp613-Ltmp607
	.uleb128 Ltmp614-Lfunc_begin62
	.byte	0
	.uleb128 Ltmp609-Lfunc_begin62
	.uleb128 Ltmp610-Ltmp609
	.uleb128 Ltmp611-Lfunc_begin62
	.byte	0
	.uleb128 Ltmp610-Lfunc_begin62
	.uleb128 Ltmp615-Ltmp610
	.byte	0
	.byte	0
	.uleb128 Ltmp615-Lfunc_begin62
	.uleb128 Ltmp616-Ltmp615
	.uleb128 Ltmp617-Lfunc_begin62
	.byte	0
Lcst_end21:
	.p2align	2

	.section	__TEXT,__text,regular,pure_instructions
	.globl	__ZN4core4iter6traits8iterator8Iterator7collect17h13e1c60eb08723acE
	.p2align	4, 0x90
__ZN4core4iter6traits8iterator8Iterator7collect17h13e1c60eb08723acE:
Lfunc_begin63:
	.loc	20 1856 0
	.cfi_startproc
	pushq	%rbp
	.cfi_def_cfa_offset 16
	.cfi_offset %rbp, -16
	movq	%rsp, %rbp
	.cfi_def_cfa_register %rbp
	subq	$32, %rsp
	movq	%rdi, %rax
	movq	%rax, -24(%rbp)
	movq	%rsi, -16(%rbp)
	movq	%rdx, -8(%rbp)
Ltmp638:
	.loc	20 1860 9 prologue_end
	callq	__ZN95_$LT$alloc..vec..Vec$LT$T$GT$$u20$as$u20$core..iter..traits..collect..FromIterator$LT$T$GT$$GT$9from_iter17ha15866f5036ec6c0E
	movq	-24(%rbp), %rax
	.loc	20 1861 6
	addq	$32, %rsp
	popq	%rbp
	retq
Ltmp639:
Lfunc_end63:
	.cfi_endproc

	.globl	__ZN4core4iter6traits8iterator8Iterator7collect17h217b705165f46da4E
	.p2align	4, 0x90
__ZN4core4iter6traits8iterator8Iterator7collect17h217b705165f46da4E:
Lfunc_begin64:
	.loc	20 1856 0
	.cfi_startproc
	pushq	%rbp
	.cfi_def_cfa_offset 16
	.cfi_offset %rbp, -16
	movq	%rsp, %rbp
	.cfi_def_cfa_register %rbp
	subq	$32, %rsp
	movq	%rdi, %rax
	movq	%rax, -24(%rbp)
	movq	%rsi, -16(%rbp)
	movq	%rdx, -8(%rbp)
Ltmp640:
	.loc	20 1860 9 prologue_end
	callq	__ZN95_$LT$alloc..vec..Vec$LT$T$GT$$u20$as$u20$core..iter..traits..collect..FromIterator$LT$T$GT$$GT$9from_iter17hcf60b2610387e843E
	movq	-24(%rbp), %rax
	.loc	20 1861 6
	addq	$32, %rsp
	popq	%rbp
	retq
Ltmp641:
Lfunc_end64:
	.cfi_endproc

	.globl	__ZN4core4iter6traits8iterator8Iterator8for_each17h07a93fa982234a5fE
	.p2align	4, 0x90
__ZN4core4iter6traits8iterator8Iterator8for_each17h07a93fa982234a5fE:
Lfunc_begin65:
	.loc	20 827 0
	.cfi_startproc
	.cfi_personality 155, _rust_eh_personality
	.cfi_lsda 16, Lexception22
	pushq	%rbp
	.cfi_def_cfa_offset 16
	.cfi_offset %rbp, -16
	movq	%rsp, %rbp
	.cfi_def_cfa_register %rbp
	subq	$80, %rsp
	movq	%rdi, -32(%rbp)
	movq	%rsi, -24(%rbp)
Ltmp645:
	.loc	20 837 28 prologue_end
	movq	16(%rdx), %rax
	movq	%rax, -40(%rbp)
	movq	(%rdx), %rax
	movq	8(%rdx), %rcx
	movq	%rcx, -48(%rbp)
	movq	%rax, -56(%rbp)
Ltmp646:
	.loc	20 834 13
	movq	-40(%rbp), %rax
	movq	%rax, -64(%rbp)
	movq	-56(%rbp), %rax
	movq	-48(%rbp), %rcx
	movq	%rcx, -72(%rbp)
	movq	%rax, -80(%rbp)
Ltmp642:
	leaq	-80(%rbp), %rdx
Ltmp647:
	.loc	20 837 9
	callq	__ZN102_$LT$core..iter..adapters..map..Map$LT$I$C$F$GT$$u20$as$u20$core..iter..traits..iterator..Iterator$GT$4fold17hb26ab701798e481dE
Ltmp643:
	jmp	LBB65_3
Ltmp648:
LBB65_1:
	.loc	20 837 30 is_stmt 0
	xorl	%eax, %eax
	testb	$1, %al
	jne	LBB65_5
	jmp	LBB65_4
Ltmp649:
LBB65_2:
Ltmp644:
	.loc	20 0 30
	movq	%rax, %rcx
	movl	%edx, %eax
	movq	%rcx, -16(%rbp)
	movl	%eax, -8(%rbp)
	jmp	LBB65_1
Ltmp650:
LBB65_3:
	.loc	20 838 6 is_stmt 1
	addq	$80, %rsp
	popq	%rbp
	retq
Ltmp651:
LBB65_4:
	.loc	20 827 5
	movq	-16(%rbp), %rdi
	callq	__Unwind_Resume
Ltmp652:
LBB65_5:
	.loc	20 837 30
	jmp	LBB65_4
Ltmp653:
Lfunc_end65:
	.cfi_endproc
	.section	__TEXT,__gcc_except_tab
	.p2align	2
GCC_except_table65:
Lexception22:
	.byte	255
	.byte	255
	.byte	1
	.uleb128 Lcst_end22-Lcst_begin22
Lcst_begin22:
	.uleb128 Ltmp642-Lfunc_begin65
	.uleb128 Ltmp643-Ltmp642
	.uleb128 Ltmp644-Lfunc_begin65
	.byte	0
	.uleb128 Ltmp643-Lfunc_begin65
	.uleb128 Lfunc_end65-Ltmp643
	.byte	0
	.byte	0
Lcst_end22:
	.p2align	2

	.section	__TEXT,__text,regular,pure_instructions
	.globl	__ZN4core4iter6traits8iterator8Iterator8for_each17h19807ae79cfaa04cE
	.p2align	4, 0x90
__ZN4core4iter6traits8iterator8Iterator8for_each17h19807ae79cfaa04cE:
Lfunc_begin66:
	.loc	20 827 0
	.cfi_startproc
	.cfi_personality 155, _rust_eh_personality
	.cfi_lsda 16, Lexception23
	pushq	%rbp
	.cfi_def_cfa_offset 16
	.cfi_offset %rbp, -16
	movq	%rsp, %rbp
	.cfi_def_cfa_register %rbp
	subq	$80, %rsp
	movq	%rdi, -32(%rbp)
	movq	%rsi, -24(%rbp)
Ltmp657:
	.loc	20 837 28 prologue_end
	movq	16(%rdx), %rax
	movq	%rax, -40(%rbp)
	movq	(%rdx), %rax
	movq	8(%rdx), %rcx
	movq	%rcx, -48(%rbp)
	movq	%rax, -56(%rbp)
Ltmp658:
	.loc	20 834 13
	movq	-40(%rbp), %rax
	movq	%rax, -64(%rbp)
	movq	-56(%rbp), %rax
	movq	-48(%rbp), %rcx
	movq	%rcx, -72(%rbp)
	movq	%rax, -80(%rbp)
Ltmp654:
	leaq	-80(%rbp), %rdx
Ltmp659:
	.loc	20 837 9
	callq	__ZN102_$LT$core..iter..adapters..map..Map$LT$I$C$F$GT$$u20$as$u20$core..iter..traits..iterator..Iterator$GT$4fold17h16a01008daca04a5E
Ltmp655:
	jmp	LBB66_3
Ltmp660:
LBB66_1:
	.loc	20 837 30 is_stmt 0
	xorl	%eax, %eax
	testb	$1, %al
	jne	LBB66_5
	jmp	LBB66_4
Ltmp661:
LBB66_2:
Ltmp656:
	.loc	20 0 30
	movq	%rax, %rcx
	movl	%edx, %eax
	movq	%rcx, -16(%rbp)
	movl	%eax, -8(%rbp)
	jmp	LBB66_1
Ltmp662:
LBB66_3:
	.loc	20 838 6 is_stmt 1
	addq	$80, %rsp
	popq	%rbp
	retq
Ltmp663:
LBB66_4:
	.loc	20 827 5
	movq	-16(%rbp), %rdi
	callq	__Unwind_Resume
Ltmp664:
LBB66_5:
	.loc	20 837 30
	jmp	LBB66_4
Ltmp665:
Lfunc_end66:
	.cfi_endproc
	.section	__TEXT,__gcc_except_tab
	.p2align	2
GCC_except_table66:
Lexception23:
	.byte	255
	.byte	255
	.byte	1
	.uleb128 Lcst_end23-Lcst_begin23
Lcst_begin23:
	.uleb128 Ltmp654-Lfunc_begin66
	.uleb128 Ltmp655-Ltmp654
	.uleb128 Ltmp656-Lfunc_begin66
	.byte	0
	.uleb128 Ltmp655-Lfunc_begin66
	.uleb128 Lfunc_end66-Ltmp655
	.byte	0
	.byte	0
Lcst_end23:
	.p2align	2

	.section	__TEXT,__text,regular,pure_instructions
	.globl	__ZN4core4iter6traits8iterator8Iterator8for_each4call28_$u7b$$u7b$closure$u7d$$u7d$17h11a6a396102edadaE
	.p2align	4, 0x90
__ZN4core4iter6traits8iterator8Iterator8for_each4call28_$u7b$$u7b$closure$u7d$$u7d$17h11a6a396102edadaE:
Lfunc_begin67:
	.loc	20 834 0
	.cfi_startproc
	pushq	%rbp
	.cfi_def_cfa_offset 16
	.cfi_offset %rbp, -16
	movq	%rsp, %rbp
	.cfi_def_cfa_register %rbp
	subq	$32, %rsp
	movq	%rdi, -24(%rbp)
	movq	%rsi, -8(%rbp)
Ltmp666:
	.loc	20 834 29 prologue_end
	movq	%rsi, -32(%rbp)
	movq	-32(%rbp), %rsi
	callq	__ZN5alloc3vec16Vec$LT$T$C$A$GT$14extend_trusted28_$u7b$$u7b$closure$u7d$$u7d$17h2fb0d9f2742398d0E
	.loc	20 834 36 is_stmt 0
	addq	$32, %rsp
	popq	%rbp
	retq
Ltmp667:
Lfunc_end67:
	.cfi_endproc

	.globl	__ZN4core4iter6traits8iterator8Iterator8for_each4call28_$u7b$$u7b$closure$u7d$$u7d$17h687e586e03f81d45E
	.p2align	4, 0x90
__ZN4core4iter6traits8iterator8Iterator8for_each4call28_$u7b$$u7b$closure$u7d$$u7d$17h687e586e03f81d45E:
Lfunc_begin68:
	.loc	20 834 0 is_stmt 1
	.cfi_startproc
	pushq	%rbp
	.cfi_def_cfa_offset 16
	.cfi_offset %rbp, -16
	movq	%rsp, %rbp
	.cfi_def_cfa_register %rbp
	subq	$32, %rsp
	movq	%rdi, -24(%rbp)
	movq	%rsi, -8(%rbp)
Ltmp668:
	.loc	20 834 29 prologue_end
	movq	%rsi, -32(%rbp)
	movq	-32(%rbp), %rsi
	callq	__ZN5alloc3vec16Vec$LT$T$C$A$GT$14extend_trusted28_$u7b$$u7b$closure$u7d$$u7d$17h53e502f56de72c3aE
	.loc	20 834 36 is_stmt 0
	addq	$32, %rsp
	popq	%rbp
	retq
Ltmp669:
Lfunc_end68:
	.cfi_endproc

	.globl	__ZN4core4iter8adapters3map16Map$LT$I$C$F$GT$3new17hdf0934b77335ad0cE
	.p2align	4, 0x90
__ZN4core4iter8adapters3map16Map$LT$I$C$F$GT$3new17hdf0934b77335ad0cE:
Lfunc_begin69:
	.loc	3 68 0 is_stmt 1
	.cfi_startproc
	pushq	%rbp
	.cfi_def_cfa_offset 16
	.cfi_offset %rbp, -16
	movq	%rsp, %rbp
	.cfi_def_cfa_register %rbp
	subq	$40, %rsp
	movq	%rdi, -24(%rbp)
	movq	%rsi, -16(%rbp)
Ltmp670:
	.loc	3 69 9 prologue_end
	movq	%rdi, -40(%rbp)
	movq	%rsi, -32(%rbp)
	.loc	3 70 6
	movq	-40(%rbp), %rax
	movq	-32(%rbp), %rdx
	addq	$40, %rsp
	popq	%rbp
	retq
Ltmp671:
Lfunc_end69:
	.cfi_endproc

	.globl	__ZN4core4iter8adapters3map16Map$LT$I$C$F$GT$3new17hf2147e07f841fdd0E
	.p2align	4, 0x90
__ZN4core4iter8adapters3map16Map$LT$I$C$F$GT$3new17hf2147e07f841fdd0E:
Lfunc_begin70:
	.loc	3 68 0
	.cfi_startproc
	pushq	%rbp
	.cfi_def_cfa_offset 16
	.cfi_offset %rbp, -16
	movq	%rsp, %rbp
	.cfi_def_cfa_register %rbp
	subq	$40, %rsp
	movq	%rdi, -24(%rbp)
	movq	%rsi, -16(%rbp)
Ltmp672:
	.loc	3 69 9 prologue_end
	movq	%rdi, -40(%rbp)
	movq	%rsi, -32(%rbp)
	.loc	3 70 6
	movq	-40(%rbp), %rax
	movq	-32(%rbp), %rdx
	addq	$40, %rsp
	popq	%rbp
	retq
Ltmp673:
Lfunc_end70:
	.cfi_endproc

	.globl	__ZN4core4iter8adapters3map8map_fold17h0b522cf5a8dbed02E
	.p2align	4, 0x90
__ZN4core4iter8adapters3map8map_fold17h0b522cf5a8dbed02E:
Lfunc_begin71:
	.loc	3 80 0
	.cfi_startproc
	pushq	%rbp
	.cfi_def_cfa_offset 16
	.cfi_offset %rbp, -16
	movq	%rsp, %rbp
	.cfi_def_cfa_register %rbp
	pushq	%rax
	movq	%rdi, %rax
Ltmp674:
	.loc	3 84 5 prologue_end
	movq	(%rsi), %rcx
	movq	%rcx, (%rdi)
	movq	8(%rsi), %rcx
	movq	%rcx, 8(%rdi)
	movq	16(%rsi), %rcx
	movq	%rcx, 16(%rdi)
	.loc	3 85 2
	addq	$8, %rsp
	popq	%rbp
	retq
Ltmp675:
Lfunc_end71:
	.cfi_endproc

	.globl	__ZN4core4iter8adapters3map8map_fold17hf779f9746dc4fb82E
	.p2align	4, 0x90
__ZN4core4iter8adapters3map8map_fold17hf779f9746dc4fb82E:
Lfunc_begin72:
	.loc	3 80 0
	.cfi_startproc
	pushq	%rbp
	.cfi_def_cfa_offset 16
	.cfi_offset %rbp, -16
	movq	%rsp, %rbp
	.cfi_def_cfa_register %rbp
	pushq	%rax
	movq	%rdi, %rax
Ltmp676:
	.loc	3 84 5 prologue_end
	movq	(%rsi), %rcx
	movq	%rcx, (%rdi)
	movq	8(%rsi), %rcx
	movq	%rcx, 8(%rdi)
	movq	16(%rsi), %rcx
	movq	%rcx, 16(%rdi)
	.loc	3 85 2
	addq	$8, %rsp
	popq	%rbp
	retq
Ltmp677:
Lfunc_end72:
	.cfi_endproc

	.globl	__ZN4core4iter8adapters3map8map_fold28_$u7b$$u7b$closure$u7d$$u7d$17h8c9250f61c791dbeE
	.p2align	4, 0x90
__ZN4core4iter8adapters3map8map_fold28_$u7b$$u7b$closure$u7d$$u7d$17h8c9250f61c791dbeE:
Lfunc_begin73:
	.loc	3 84 0
	.cfi_startproc
	.cfi_personality 155, _rust_eh_personality
	.cfi_lsda 16, Lexception24
	pushq	%rbp
	.cfi_def_cfa_offset 16
	.cfi_offset %rbp, -16
	movq	%rsp, %rbp
	.cfi_def_cfa_register %rbp
	subq	$80, %rsp
	movq	%rdi, -80(%rbp)
	movq	%rdi, -40(%rbp)
	movq	%rsi, -24(%rbp)
Ltmp683:
	.loc	3 84 23 prologue_end
	movb	$1, -41(%rbp)
	.loc	3 84 28 is_stmt 0
	movq	%rsi, -56(%rbp)
	movq	-56(%rbp), %rsi
Ltmp678:
	callq	__ZN15objc_foundation5array8INSArray8from_vec28_$u7b$$u7b$closure$u7d$$u7d$17hbcc029d55f7fa3c8E
Ltmp679:
	movq	%rax, -72(%rbp)
	jmp	LBB73_3
LBB73_1:
	.loc	3 84 34
	testb	$1, -41(%rbp)
	jne	LBB73_6
	jmp	LBB73_5
LBB73_2:
Ltmp682:
	.loc	3 0 34
	movq	%rax, %rcx
	movl	%edx, %eax
	movq	%rcx, -16(%rbp)
	movl	%eax, -8(%rbp)
	jmp	LBB73_1
LBB73_3:
	movq	-80(%rbp), %rdi
	movq	-72(%rbp), %rax
	.loc	3 84 21
	movb	$0, -41(%rbp)
	movq	%rax, -64(%rbp)
	movq	-64(%rbp), %rsi
Ltmp680:
	callq	__ZN4core4iter6traits8iterator8Iterator8for_each4call28_$u7b$$u7b$closure$u7d$$u7d$17h687e586e03f81d45E
Ltmp681:
	jmp	LBB73_4
LBB73_4:
	.loc	3 84 35
	addq	$80, %rsp
	popq	%rbp
	retq
LBB73_5:
	.loc	3 84 5
	movq	-16(%rbp), %rdi
	callq	__Unwind_Resume
LBB73_6:
	.loc	3 84 34
	jmp	LBB73_5
Ltmp684:
Lfunc_end73:
	.cfi_endproc
	.section	__TEXT,__gcc_except_tab
	.p2align	2
GCC_except_table73:
Lexception24:
	.byte	255
	.byte	255
	.byte	1
	.uleb128 Lcst_end24-Lcst_begin24
Lcst_begin24:
	.uleb128 Ltmp678-Lfunc_begin73
	.uleb128 Ltmp681-Ltmp678
	.uleb128 Ltmp682-Lfunc_begin73
	.byte	0
	.uleb128 Ltmp681-Lfunc_begin73
	.uleb128 Lfunc_end73-Ltmp681
	.byte	0
	.byte	0
Lcst_end24:
	.p2align	2

	.section	__TEXT,__text,regular,pure_instructions
	.globl	__ZN4core4iter8adapters3map8map_fold28_$u7b$$u7b$closure$u7d$$u7d$17hb0f5afd63457f789E
	.p2align	4, 0x90
__ZN4core4iter8adapters3map8map_fold28_$u7b$$u7b$closure$u7d$$u7d$17hb0f5afd63457f789E:
Lfunc_begin74:
	.loc	3 84 0 is_stmt 1
	.cfi_startproc
	.cfi_personality 155, _rust_eh_personality
	.cfi_lsda 16, Lexception25
	pushq	%rbp
	.cfi_def_cfa_offset 16
	.cfi_offset %rbp, -16
	movq	%rsp, %rbp
	.cfi_def_cfa_register %rbp
	subq	$80, %rsp
	movq	%rdi, -80(%rbp)
	movq	%rdi, -40(%rbp)
	movq	%rsi, -24(%rbp)
Ltmp690:
	.loc	3 84 23 prologue_end
	movb	$1, -41(%rbp)
	.loc	3 84 28 is_stmt 0
	movq	%rsi, -56(%rbp)
	movq	-56(%rbp), %rsi
Ltmp685:
	callq	__ZN15objc_foundation5array8INSArray8from_vec28_$u7b$$u7b$closure$u7d$$u7d$17haaadcc355a1bc8b0E
Ltmp686:
	movq	%rax, -72(%rbp)
	jmp	LBB74_3
LBB74_1:
	.loc	3 84 34
	testb	$1, -41(%rbp)
	jne	LBB74_6
	jmp	LBB74_5
LBB74_2:
Ltmp689:
	.loc	3 0 34
	movq	%rax, %rcx
	movl	%edx, %eax
	movq	%rcx, -16(%rbp)
	movl	%eax, -8(%rbp)
	jmp	LBB74_1
LBB74_3:
	movq	-80(%rbp), %rdi
	movq	-72(%rbp), %rax
	.loc	3 84 21
	movb	$0, -41(%rbp)
	movq	%rax, -64(%rbp)
	movq	-64(%rbp), %rsi
Ltmp687:
	callq	__ZN4core4iter6traits8iterator8Iterator8for_each4call28_$u7b$$u7b$closure$u7d$$u7d$17h11a6a396102edadaE
Ltmp688:
	jmp	LBB74_4
LBB74_4:
	.loc	3 84 35
	addq	$80, %rsp
	popq	%rbp
	retq
LBB74_5:
	.loc	3 84 5
	movq	-16(%rbp), %rdi
	callq	__Unwind_Resume
LBB74_6:
	.loc	3 84 34
	jmp	LBB74_5
Ltmp691:
Lfunc_end74:
	.cfi_endproc
	.section	__TEXT,__gcc_except_tab
	.p2align	2
GCC_except_table74:
Lexception25:
	.byte	255
	.byte	255
	.byte	1
	.uleb128 Lcst_end25-Lcst_begin25
Lcst_begin25:
	.uleb128 Ltmp685-Lfunc_begin74
	.uleb128 Ltmp688-Ltmp685
	.uleb128 Ltmp689-Lfunc_begin74
	.byte	0
	.uleb128 Ltmp688-Lfunc_begin74
	.uleb128 Lfunc_end74-Ltmp688
	.byte	0
	.byte	0
Lcst_end25:
	.p2align	2

	.section	__TEXT,__text,regular,pure_instructions
	.p2align	4, 0x90
__ZN4core4sync6atomic11AtomicUsize4load17h443fe49fcf4c7482E:
Lfunc_begin75:
	.file	21 "/rustc/2c8cc343237b8f7d5a3c3703e3a87f2eb2c54a74/library/core/src/sync" "atomic.rs"
	.loc	21 2125 0 is_stmt 1
	.cfi_startproc
	pushq	%rbp
	.cfi_def_cfa_offset 16
	.cfi_offset %rbp, -16
	movq	%rsp, %rbp
	.cfi_def_cfa_register %rbp
	subq	$32, %rsp
	movb	%sil, %al
	movq	%rdi, -24(%rbp)
	movb	%al, -9(%rbp)
Ltmp692:
	.loc	21 2127 38 prologue_end
	movq	%rdi, -8(%rbp)
	.loc	21 2127 26 is_stmt 0
	movzbl	%al, %esi
	callq	__ZN4core4sync6atomic11atomic_load17h38c27615fc794740E
	.loc	21 2128 14 is_stmt 1
	addq	$32, %rsp
	popq	%rbp
	retq
Ltmp693:
Lfunc_end75:
	.cfi_endproc

	.p2align	4, 0x90
__ZN4core4sync6atomic11AtomicUsize5store17h50b1fde0bd832e41E:
Lfunc_begin76:
	.loc	21 2152 0
	.cfi_startproc
	pushq	%rbp
	.cfi_def_cfa_offset 16
	.cfi_offset %rbp, -16
	movq	%rsp, %rbp
	.cfi_def_cfa_register %rbp
	subq	$32, %rsp
	movb	%dl, %al
	movq	%rdi, -32(%rbp)
	movq	%rsi, -24(%rbp)
	movb	%al, -9(%rbp)
Ltmp694:
	.loc	21 2154 39 prologue_end
	movq	%rdi, -8(%rbp)
	.loc	21 2154 26 is_stmt 0
	movzbl	%al, %edx
	callq	__ZN4core4sync6atomic12atomic_store17h96a39aea984d4a5dE
	.loc	21 2155 14 is_stmt 1
	addq	$32, %rsp
	popq	%rbp
	retq
Ltmp695:
Lfunc_end76:
	.cfi_endproc

	.p2align	4, 0x90
__ZN4core5alloc6layout6Layout5array5inner17hf975519bab33fdaeE:
Lfunc_begin77:
	.file	22 "/rustc/2c8cc343237b8f7d5a3c3703e3a87f2eb2c54a74/library/core/src/alloc" "layout.rs"
	.loc	22 441 0
	.cfi_startproc
	pushq	%rbp
	.cfi_def_cfa_offset 16
	.cfi_offset %rbp, -16
	movq	%rsp, %rbp
	.cfi_def_cfa_register %rbp
	subq	$176, %rsp
	movq	%rdi, -168(%rbp)
	movq	%rsi, -160(%rbp)
	movq	%rdx, -152(%rbp)
	movq	%rdi, -88(%rbp)
	movq	%rsi, -80(%rbp)
	movq	%rdx, -72(%rbp)
Ltmp696:
	.loc	22 452 16 prologue_end
	cmpq	$0, %rdi
	jne	LBB77_2
	movb	$0, -121(%rbp)
	jmp	LBB77_5
LBB77_2:
	.loc	22 0 16 is_stmt 0
	movq	-168(%rbp), %rax
	movq	-160(%rbp), %rcx
	.loc	22 452 68
	movq	%rcx, -64(%rbp)
Ltmp697:
	.loc	22 93 32 is_stmt 1
	movq	%rcx, -56(%rbp)
Ltmp698:
	.file	23 "/rustc/2c8cc343237b8f7d5a3c3703e3a87f2eb2c54a74/library/core/src/ptr" "alignment.rs"
	.loc	23 97 9
	movq	%rcx, -104(%rbp)
	movq	-104(%rbp), %rdx
Ltmp699:
	.loc	22 93 31
	subq	$1, %rdx
	.loc	22 93 9 is_stmt 0
	movabsq	$9223372036854775807, %rcx
	subq	%rdx, %rcx
	movq	%rcx, -176(%rbp)
Ltmp700:
	.loc	22 452 41 is_stmt 1
	cmpq	$0, %rax
	sete	%al
	testb	$1, %al
	jne	LBB77_4
	.loc	22 0 41 is_stmt 0
	movq	-168(%rbp), %rcx
	movq	-176(%rbp), %rax
	.loc	22 452 41
	xorl	%edx, %edx
	divq	%rcx
	movq	%rax, %rcx
	movq	-152(%rbp), %rax
	.loc	22 452 37
	cmpq	%rcx, %rax
	seta	%al
	.loc	22 452 16
	andb	$1, %al
	movb	%al, -121(%rbp)
	jmp	LBB77_5
LBB77_4:
	.loc	22 452 41
	leaq	_str.0(%rip), %rdi
	leaq	l___unnamed_24(%rip), %rdx
	movl	$25, %esi
	callq	__ZN4core9panicking5panic17hc1bc45270cf64b03E
LBB77_5:
	.loc	22 452 16
	testb	$1, -121(%rbp)
	jne	LBB77_7
	.loc	22 0 16
	movq	-160(%rbp), %rax
	movq	-152(%rbp), %rdx
	movq	-168(%rbp), %rcx
	.loc	22 456 30 is_stmt 1
	imulq	%rdx, %rcx
	movq	%rcx, -48(%rbp)
Ltmp701:
	.loc	22 461 59
	movq	%rcx, -40(%rbp)
	.loc	22 461 71 is_stmt 0
	movq	%rax, -32(%rbp)
Ltmp702:
	.loc	23 97 9 is_stmt 1
	movq	%rax, -96(%rbp)
	movq	-96(%rbp), %rax
	movq	%rax, -24(%rbp)
Ltmp703:
	.loc	22 120 65
	movq	%rax, -16(%rbp)
Ltmp704:
	.loc	23 89 18
	movq	%rax, -8(%rbp)
	movq	-8(%rbp), %rax
Ltmp705:
	.loc	22 120 18
	movq	%rcx, -120(%rbp)
	movq	%rax, -112(%rbp)
Ltmp706:
	.loc	22 461 22
	movq	-120(%rbp), %rcx
	movq	-112(%rbp), %rax
	movq	%rcx, -144(%rbp)
	movq	%rax, -136(%rbp)
Ltmp707:
	.loc	22 462 10
	jmp	LBB77_8
LBB77_7:
	.loc	22 453 24
	movq	$0, -136(%rbp)
LBB77_8:
	.loc	22 462 10
	movq	-144(%rbp), %rax
	movq	-136(%rbp), %rdx
	addq	$176, %rsp
	popq	%rbp
	retq
Ltmp708:
Lfunc_end77:
	.cfi_endproc

	.globl	__ZN4core5slice29_$LT$impl$u20$$u5b$T$u5d$$GT$4iter17h94770614890725e5E
	.p2align	4, 0x90
__ZN4core5slice29_$LT$impl$u20$$u5b$T$u5d$$GT$4iter17h94770614890725e5E:
Lfunc_begin78:
	.file	24 "/rustc/2c8cc343237b8f7d5a3c3703e3a87f2eb2c54a74/library/core/src/slice" "mod.rs"
	.loc	24 741 0
	.cfi_startproc
	pushq	%rbp
	.cfi_def_cfa_offset 16
	.cfi_offset %rbp, -16
	movq	%rsp, %rbp
	.cfi_def_cfa_register %rbp
	subq	$16, %rsp
	movq	%rdi, -16(%rbp)
	movq	%rsi, -8(%rbp)
Ltmp709:
	.loc	24 742 9 prologue_end
	callq	__ZN4core5slice4iter13Iter$LT$T$GT$3new17h7d5ad3addf887bb4E
	.loc	24 743 6
	addq	$16, %rsp
	popq	%rbp
	retq
Ltmp710:
Lfunc_end78:
	.cfi_endproc

	.globl	__ZN4core5slice29_$LT$impl$u20$$u5b$T$u5d$$GT$4iter17hc4ba56f7c86bb9fdE
	.p2align	4, 0x90
__ZN4core5slice29_$LT$impl$u20$$u5b$T$u5d$$GT$4iter17hc4ba56f7c86bb9fdE:
Lfunc_begin79:
	.loc	24 741 0
	.cfi_startproc
	pushq	%rbp
	.cfi_def_cfa_offset 16
	.cfi_offset %rbp, -16
	movq	%rsp, %rbp
	.cfi_def_cfa_register %rbp
	subq	$16, %rsp
	movq	%rdi, -16(%rbp)
	movq	%rsi, -8(%rbp)
Ltmp711:
	.loc	24 742 9 prologue_end
	callq	__ZN4core5slice4iter13Iter$LT$T$GT$3new17habafcc6c6af84928E
	.loc	24 743 6
	addq	$16, %rsp
	popq	%rbp
	retq
Ltmp712:
Lfunc_end79:
	.cfi_endproc

	.globl	__ZN4core5slice4iter13Iter$LT$T$GT$3new17h7d5ad3addf887bb4E
	.p2align	4, 0x90
__ZN4core5slice4iter13Iter$LT$T$GT$3new17h7d5ad3addf887bb4E:
Lfunc_begin80:
	.file	25 "/rustc/2c8cc343237b8f7d5a3c3703e3a87f2eb2c54a74/library/core/src/slice" "iter.rs"
	.loc	25 82 0
	.cfi_startproc
	pushq	%rbp
	.cfi_def_cfa_offset 16
	.cfi_offset %rbp, -16
	movq	%rsp, %rbp
	.cfi_def_cfa_register %rbp
	subq	$280, %rsp
	movq	%rdi, -280(%rbp)
	movq	%rsi, -272(%rbp)
	movq	%rdi, -208(%rbp)
	movq	%rsi, -200(%rbp)
Ltmp713:
	.loc	25 83 19 prologue_end
	movq	%rdi, -184(%rbp)
	movq	%rsi, -176(%rbp)
Ltmp714:
	.loc	24 477 9
	movq	%rdi, -168(%rbp)
Ltmp715:
	.loc	25 86 21
	movq	%rdi, -160(%rbp)
Ltmp716:
	.loc	17 53 36
	movq	%rdi, -232(%rbp)
	.loc	17 53 18 is_stmt 0
	movq	-232(%rbp), %rax
	movq	%rax, -152(%rbp)
Ltmp717:
	.loc	17 39 13 is_stmt 1
	movq	%rax, -144(%rbp)
Ltmp718:
	.loc	17 209 33
	movq	%rax, -136(%rbp)
	.loc	17 209 18 is_stmt 0
	movq	%rax, -128(%rbp)
Ltmp719:
	.loc	25 89 20 is_stmt 1
	xorl	%eax, %eax
	testb	$1, %al
	jne	LBB80_2
	.loc	25 0 20 is_stmt 0
	movq	-280(%rbp), %rax
	movq	-272(%rbp), %rcx
	.loc	25 89 76
	movq	%rax, -40(%rbp)
	.loc	25 89 84
	movq	%rcx, -32(%rbp)
Ltmp720:
	.loc	17 932 18 is_stmt 1
	movq	%rax, -24(%rbp)
	.loc	17 932 30 is_stmt 0
	movq	%rcx, -16(%rbp)
Ltmp721:
	.loc	17 473 18 is_stmt 1
	shlq	$3, %rcx
	addq	%rcx, %rax
	movq	%rax, -248(%rbp)
Ltmp722:
	.loc	25 89 17
	jmp	LBB80_3
LBB80_2:
	.loc	25 0 17 is_stmt 0
	movq	-272(%rbp), %rcx
	movq	-280(%rbp), %rax
	.loc	25 89 32
	movq	%rax, -120(%rbp)
	.loc	25 89 54
	movq	%rcx, -112(%rbp)
Ltmp723:
	.loc	17 1118 9 is_stmt 1
	movq	%rax, -104(%rbp)
Ltmp724:
	.loc	17 61 9
	movq	%rax, -96(%rbp)
Ltmp725:
	.loc	17 1118 40
	movq	%rcx, -88(%rbp)
Ltmp726:
	.loc	17 1100 9
	movq	%rax, -80(%rbp)
	.loc	17 1100 30 is_stmt 0
	movq	%rcx, -72(%rbp)
Ltmp727:
	.loc	17 555 18 is_stmt 1
	addq	%rcx, %rax
	movq	%rax, -64(%rbp)
	movq	-64(%rbp), %rax
	movq	%rax, -56(%rbp)
Ltmp728:
	.loc	17 100 29
	movq	%rax, -48(%rbp)
Ltmp729:
	.file	26 "/rustc/2c8cc343237b8f7d5a3c3703e3a87f2eb2c54a74/library/core/src/ptr" "metadata.rs"
	.loc	26 118 36
	movq	%rax, -216(%rbp)
	.loc	26 118 14 is_stmt 0
	movq	-216(%rbp), %rax
	movq	%rax, -224(%rbp)
	movq	-224(%rbp), %rax
	movq	%rax, -248(%rbp)
Ltmp730:
LBB80_3:
	.loc	26 0 14
	movq	-280(%rbp), %rax
Ltmp731:
	.loc	25 91 48 is_stmt 1
	movq	%rax, -8(%rbp)
Ltmp732:
	.file	27 "/rustc/2c8cc343237b8f7d5a3c3703e3a87f2eb2c54a74/library/core/src/ptr" "non_null.rs"
	.loc	27 201 13
	movq	%rax, -240(%rbp)
Ltmp733:
	.loc	25 91 64
	movq	-248(%rbp), %rax
	.loc	25 91 13 is_stmt 0
	movq	-240(%rbp), %rcx
	movq	%rcx, -256(%rbp)
	movq	%rax, -264(%rbp)
Ltmp734:
	.loc	25 93 6 is_stmt 1
	movq	-264(%rbp), %rax
	movq	-256(%rbp), %rdx
	addq	$280, %rsp
	popq	%rbp
	retq
Ltmp735:
Lfunc_end80:
	.cfi_endproc

	.globl	__ZN4core5slice4iter13Iter$LT$T$GT$3new17habafcc6c6af84928E
	.p2align	4, 0x90
__ZN4core5slice4iter13Iter$LT$T$GT$3new17habafcc6c6af84928E:
Lfunc_begin81:
	.loc	25 82 0
	.cfi_startproc
	pushq	%rbp
	.cfi_def_cfa_offset 16
	.cfi_offset %rbp, -16
	movq	%rsp, %rbp
	.cfi_def_cfa_register %rbp
	subq	$280, %rsp
	movq	%rdi, -280(%rbp)
	movq	%rsi, -272(%rbp)
	movq	%rdi, -208(%rbp)
	movq	%rsi, -200(%rbp)
Ltmp736:
	.loc	25 83 19 prologue_end
	movq	%rdi, -184(%rbp)
	movq	%rsi, -176(%rbp)
Ltmp737:
	.loc	24 477 9
	movq	%rdi, -168(%rbp)
Ltmp738:
	.loc	25 86 21
	movq	%rdi, -160(%rbp)
Ltmp739:
	.loc	17 53 36
	movq	%rdi, -232(%rbp)
	.loc	17 53 18 is_stmt 0
	movq	-232(%rbp), %rax
	movq	%rax, -152(%rbp)
Ltmp740:
	.loc	17 39 13 is_stmt 1
	movq	%rax, -144(%rbp)
Ltmp741:
	.loc	17 209 33
	movq	%rax, -136(%rbp)
	.loc	17 209 18 is_stmt 0
	movq	%rax, -128(%rbp)
Ltmp742:
	.loc	25 89 20 is_stmt 1
	xorl	%eax, %eax
	testb	$1, %al
	jne	LBB81_2
	.loc	25 0 20 is_stmt 0
	movq	-280(%rbp), %rax
	movq	-272(%rbp), %rcx
	.loc	25 89 76
	movq	%rax, -40(%rbp)
	.loc	25 89 84
	movq	%rcx, -32(%rbp)
Ltmp743:
	.loc	17 932 18 is_stmt 1
	movq	%rax, -24(%rbp)
	.loc	17 932 30 is_stmt 0
	movq	%rcx, -16(%rbp)
Ltmp744:
	.loc	17 473 18 is_stmt 1
	shlq	$3, %rcx
	addq	%rcx, %rax
	movq	%rax, -248(%rbp)
Ltmp745:
	.loc	25 89 17
	jmp	LBB81_3
LBB81_2:
	.loc	25 0 17 is_stmt 0
	movq	-272(%rbp), %rcx
	movq	-280(%rbp), %rax
	.loc	25 89 32
	movq	%rax, -120(%rbp)
	.loc	25 89 54
	movq	%rcx, -112(%rbp)
Ltmp746:
	.loc	17 1118 9 is_stmt 1
	movq	%rax, -104(%rbp)
Ltmp747:
	.loc	17 61 9
	movq	%rax, -96(%rbp)
Ltmp748:
	.loc	17 1118 40
	movq	%rcx, -88(%rbp)
Ltmp749:
	.loc	17 1100 9
	movq	%rax, -80(%rbp)
	.loc	17 1100 30 is_stmt 0
	movq	%rcx, -72(%rbp)
Ltmp750:
	.loc	17 555 18 is_stmt 1
	addq	%rcx, %rax
	movq	%rax, -64(%rbp)
	movq	-64(%rbp), %rax
	movq	%rax, -56(%rbp)
Ltmp751:
	.loc	17 100 29
	movq	%rax, -48(%rbp)
Ltmp752:
	.loc	26 118 36
	movq	%rax, -216(%rbp)
	.loc	26 118 14 is_stmt 0
	movq	-216(%rbp), %rax
	movq	%rax, -224(%rbp)
	movq	-224(%rbp), %rax
	movq	%rax, -248(%rbp)
Ltmp753:
LBB81_3:
	.loc	26 0 14
	movq	-280(%rbp), %rax
Ltmp754:
	.loc	25 91 48 is_stmt 1
	movq	%rax, -8(%rbp)
Ltmp755:
	.loc	27 201 13
	movq	%rax, -240(%rbp)
Ltmp756:
	.loc	25 91 64
	movq	-248(%rbp), %rax
	.loc	25 91 13 is_stmt 0
	movq	-240(%rbp), %rcx
	movq	%rcx, -256(%rbp)
	movq	%rax, -264(%rbp)
Ltmp757:
	.loc	25 93 6 is_stmt 1
	movq	-264(%rbp), %rax
	movq	-256(%rbp), %rdx
	addq	$280, %rsp
	popq	%rbp
	retq
Ltmp758:
Lfunc_end81:
	.cfi_endproc

	.globl	__ZN4core6option15Option$LT$T$GT$5ok_or17h4ffaad99f599bbadE
	.p2align	4, 0x90
__ZN4core6option15Option$LT$T$GT$5ok_or17h4ffaad99f599bbadE:
Lfunc_begin82:
	.file	28 "/rustc/2c8cc343237b8f7d5a3c3703e3a87f2eb2c54a74/library/core/src" "option.rs"
	.loc	28 1092 0
	.cfi_startproc
	pushq	%rbp
	.cfi_def_cfa_offset 16
	.cfi_offset %rbp, -16
	movq	%rsp, %rbp
	.cfi_def_cfa_register %rbp
	subq	$80, %rsp
	movq	%rdx, -80(%rbp)
Ltmp759:
	movq	%rdi, -72(%rbp)
	movq	%rdi, -64(%rbp)
	movq	%rsi, -56(%rbp)
Ltmp760:
	.loc	28 1096 15 prologue_end
	movb	$1, -9(%rbp)
	movq	-56(%rbp), %rdx
Ltmp761:
	movl	$1, %eax
	xorl	%ecx, %ecx
	cmpq	$0, %rdx
	cmoveq	%rcx, %rax
	.loc	28 1096 9 is_stmt 0
	cmpq	$0, %rax
Ltmp762:
	jne	LBB82_2
Ltmp763:
	.loc	28 0 9
	movq	-72(%rbp), %rax
	movq	-80(%rbp), %rcx
	.loc	28 1098 25 is_stmt 1
	movb	$0, -9(%rbp)
	movq	(%rcx), %rdx
	movq	%rdx, -48(%rbp)
	movq	8(%rcx), %rdx
	movq	%rdx, -40(%rbp)
	movq	16(%rcx), %rdx
	movq	%rdx, -32(%rbp)
	movq	24(%rcx), %rcx
	movq	%rcx, -24(%rbp)
	.loc	28 1098 21 is_stmt 0
	movq	-48(%rbp), %rcx
	movq	%rcx, (%rax)
	movq	-40(%rbp), %rcx
	movq	%rcx, 8(%rax)
	movq	-32(%rbp), %rcx
	movq	%rcx, 16(%rax)
	movq	-24(%rbp), %rcx
	movq	%rcx, 24(%rax)
	.loc	28 1098 28
	jmp	LBB82_3
Ltmp764:
LBB82_2:
	.loc	28 0 28
	movq	-72(%rbp), %rax
	.loc	28 1097 18 is_stmt 1
	movq	-56(%rbp), %rcx
	movq	%rcx, -8(%rbp)
Ltmp765:
	.loc	28 1097 24 is_stmt 0
	movq	%rcx, 8(%rax)
	movq	$5, (%rax)
Ltmp766:
LBB82_3:
	.loc	28 1100 5 is_stmt 1
	testb	$1, -9(%rbp)
	jne	LBB82_5
Ltmp767:
LBB82_4:
	.loc	28 0 5 is_stmt 0
	movq	-64(%rbp), %rax
	.loc	28 1100 6
	addq	$80, %rsp
	popq	%rbp
	retq
Ltmp768:
LBB82_5:
	.loc	28 0 6
	movq	-80(%rbp), %rdi
	.loc	28 1100 5
	callq	__ZN4core3ptr43drop_in_place$LT$arboard..common..Error$GT$17hb90170ad3a11a3b0E
	jmp	LBB82_4
Ltmp769:
Lfunc_end82:
	.cfi_endproc

	.globl	__ZN4core6option15Option$LT$T$GT$6unwrap17hedb164e9f8e5cfc6E
	.p2align	4, 0x90
__ZN4core6option15Option$LT$T$GT$6unwrap17hedb164e9f8e5cfc6E:
Lfunc_begin83:
	.loc	28 820 0 is_stmt 1
	.cfi_startproc
	pushq	%rbp
	.cfi_def_cfa_offset 16
	.cfi_offset %rbp, -16
	movq	%rsp, %rbp
	.cfi_def_cfa_register %rbp
	subq	$32, %rsp
	movq	%rsi, -24(%rbp)
	movq	%rdi, -16(%rbp)
Ltmp770:
	.loc	28 821 15 prologue_end
	movq	-16(%rbp), %rdx
	movl	$1, %eax
	xorl	%ecx, %ecx
	cmpq	$0, %rdx
	cmoveq	%rcx, %rax
	.loc	28 821 9 is_stmt 0
	cmpq	$0, %rax
	jne	LBB83_2
	.loc	28 0 9
	movq	-24(%rbp), %rdx
	.loc	28 823 21 is_stmt 1
	leaq	l___unnamed_25(%rip), %rdi
	movl	$43, %esi
	callq	__ZN4core9panicking5panic17hc1bc45270cf64b03E
LBB83_2:
	.loc	28 822 18
	movq	-16(%rbp), %rax
	movq	%rax, -8(%rbp)
	.loc	28 825 6
	addq	$32, %rsp
	popq	%rbp
	retq
Ltmp771:
Lfunc_end83:
	.cfi_endproc

	.globl	__ZN4objc7message8platform15send_unverified17h02d968f075b129e8E
	.p2align	4, 0x90
__ZN4objc7message8platform15send_unverified17h02d968f075b129e8E:
Lfunc_begin84:
	.file	29 "/Users/natalie/.cargo/registry/src/github.com-1ecc6299db9ec823/objc-0.2.7/src/message/apple" "mod.rs"
	.loc	29 21 0
	.cfi_startproc
	.cfi_personality 155, _rust_eh_personality
	.cfi_lsda 16, Lexception26
	pushq	%rbp
	.cfi_def_cfa_offset 16
	.cfi_offset %rbp, -16
	movq	%rsp, %rbp
	.cfi_def_cfa_register %rbp
	subq	$128, %rsp
	movq	%rsi, -112(%rbp)
	movq	%rdi, -104(%rbp)
	movq	%rdi, -96(%rbp)
	movq	%rdx, -72(%rbp)
	movq	-72(%rbp), %rax
	movq	%rax, -80(%rbp)
	movq	%rsi, -48(%rbp)
Ltmp777:
	.loc	29 24 9 prologue_end
	movb	$0, -49(%rbp)
	movb	$1, -49(%rbp)
	.loc	29 24 20 is_stmt 0
	movq	%rsi, -32(%rbp)
Ltmp772:
Ltmp778:
	.loc	29 25 23 is_stmt 1
	callq	__ZN4objc7message8platform4arch11msg_send_fn17h298419f8616f6cbbE
Ltmp773:
	movq	%rax, -88(%rbp)
	jmp	LBB84_3
Ltmp779:
LBB84_1:
	.loc	29 29 1
	testb	$1, -49(%rbp)
	jne	LBB84_6
	jmp	LBB84_5
LBB84_2:
Ltmp776:
	.loc	29 0 1 is_stmt 0
	movq	%rax, %rcx
	movl	%edx, %eax
	movq	%rcx, -24(%rbp)
	movl	%eax, -16(%rbp)
	jmp	LBB84_1
LBB84_3:
	movq	-112(%rbp), %rsi
	movq	-88(%rbp), %rdi
Ltmp780:
	.loc	29 25 23 is_stmt 1
	movq	%rdi, -8(%rbp)
Ltmp781:
	.loc	29 27 42
	movq	-80(%rbp), %rax
	movq	%rax, -64(%rbp)
	.loc	29 27 47 is_stmt 0
	movb	$0, -49(%rbp)
	.loc	29 27 9
	movq	-64(%rbp), %rdx
Ltmp774:
	callq	__ZN60_$LT$$LP$$RP$$u20$as$u20$objc..message..MessageArguments$GT$6invoke17he01805204a916904E
Ltmp775:
	movq	%rax, -120(%rbp)
	jmp	LBB84_4
LBB84_4:
	.loc	29 0 9
	movq	-96(%rbp), %rax
	movq	-104(%rbp), %rcx
	movq	-120(%rbp), %rdx
	.loc	29 26 5 is_stmt 1
	movq	%rdx, (%rcx)
	movq	$0, 8(%rcx)
Ltmp782:
	.loc	29 29 2
	addq	$128, %rsp
	popq	%rbp
	retq
LBB84_5:
	.loc	29 21 1
	movq	-24(%rbp), %rdi
	callq	__Unwind_Resume
LBB84_6:
	.loc	29 29 1
	jmp	LBB84_5
Ltmp783:
Lfunc_end84:
	.cfi_endproc
	.section	__TEXT,__gcc_except_tab
	.p2align	2
GCC_except_table84:
Lexception26:
	.byte	255
	.byte	255
	.byte	1
	.uleb128 Lcst_end26-Lcst_begin26
Lcst_begin26:
	.uleb128 Ltmp772-Lfunc_begin84
	.uleb128 Ltmp775-Ltmp772
	.uleb128 Ltmp776-Lfunc_begin84
	.byte	0
	.uleb128 Ltmp775-Lfunc_begin84
	.uleb128 Lfunc_end84-Ltmp775
	.byte	0
	.byte	0
Lcst_end26:
	.p2align	2

	.section	__TEXT,__text,regular,pure_instructions
	.globl	__ZN4objc7message8platform15send_unverified17h13b131836b41fd49E
	.p2align	4, 0x90
__ZN4objc7message8platform15send_unverified17h13b131836b41fd49E:
Lfunc_begin85:
	.loc	29 21 0
	.cfi_startproc
	.cfi_personality 155, _rust_eh_personality
	.cfi_lsda 16, Lexception27
	pushq	%rbp
	.cfi_def_cfa_offset 16
	.cfi_offset %rbp, -16
	movq	%rsp, %rbp
	.cfi_def_cfa_register %rbp
	subq	$144, %rsp
	movq	%r8, -136(%rbp)
	movq	%rcx, -128(%rbp)
	movq	%rsi, -120(%rbp)
	movq	%rdi, -112(%rbp)
	movq	%rdi, -104(%rbp)
	movq	%rdx, -80(%rbp)
	movq	-80(%rbp), %rax
	movq	%rax, -88(%rbp)
	movq	%rsi, -56(%rbp)
	movq	%rcx, -48(%rbp)
	movq	%r8, -40(%rbp)
Ltmp789:
	.loc	29 24 9 prologue_end
	movb	$0, -57(%rbp)
	movb	$1, -57(%rbp)
	.loc	29 24 20 is_stmt 0
	movq	%rsi, -32(%rbp)
Ltmp784:
Ltmp790:
	.loc	29 25 23 is_stmt 1
	callq	__ZN4objc7message8platform4arch11msg_send_fn17h298419f8616f6cbbE
Ltmp785:
	movq	%rax, -96(%rbp)
	jmp	LBB85_3
Ltmp791:
LBB85_1:
	.loc	29 29 1
	testb	$1, -57(%rbp)
	jne	LBB85_6
	jmp	LBB85_5
LBB85_2:
Ltmp788:
	.loc	29 0 1 is_stmt 0
	movq	%rax, %rcx
	movl	%edx, %eax
	movq	%rcx, -24(%rbp)
	movl	%eax, -16(%rbp)
	jmp	LBB85_1
LBB85_3:
	movq	-136(%rbp), %r8
	movq	-128(%rbp), %rcx
	movq	-120(%rbp), %rsi
	movq	-96(%rbp), %rdi
Ltmp792:
	.loc	29 25 23 is_stmt 1
	movq	%rdi, -8(%rbp)
Ltmp793:
	.loc	29 27 42
	movq	-88(%rbp), %rax
	movq	%rax, -72(%rbp)
	.loc	29 27 47 is_stmt 0
	movb	$0, -57(%rbp)
	.loc	29 27 9
	movq	-72(%rbp), %rdx
Ltmp786:
	callq	__ZN65_$LT$$LP$A$C$B$RP$$u20$as$u20$objc..message..MessageArguments$GT$6invoke17hc49865b2769a9e8eE
Ltmp787:
	movq	%rax, -144(%rbp)
	jmp	LBB85_4
LBB85_4:
	.loc	29 0 9
	movq	-104(%rbp), %rax
	movq	-112(%rbp), %rcx
	movq	-144(%rbp), %rdx
	.loc	29 26 5 is_stmt 1
	movq	%rdx, (%rcx)
	movq	$0, 8(%rcx)
Ltmp794:
	.loc	29 29 2
	addq	$144, %rsp
	popq	%rbp
	retq
LBB85_5:
	.loc	29 21 1
	movq	-24(%rbp), %rdi
	callq	__Unwind_Resume
LBB85_6:
	.loc	29 29 1
	jmp	LBB85_5
Ltmp795:
Lfunc_end85:
	.cfi_endproc
	.section	__TEXT,__gcc_except_tab
	.p2align	2
GCC_except_table85:
Lexception27:
	.byte	255
	.byte	255
	.byte	1
	.uleb128 Lcst_end27-Lcst_begin27
Lcst_begin27:
	.uleb128 Ltmp784-Lfunc_begin85
	.uleb128 Ltmp787-Ltmp784
	.uleb128 Ltmp788-Lfunc_begin85
	.byte	0
	.uleb128 Ltmp787-Lfunc_begin85
	.uleb128 Lfunc_end85-Ltmp787
	.byte	0
	.byte	0
Lcst_end27:
	.p2align	2

	.section	__TEXT,__text,regular,pure_instructions
	.globl	__ZN4objc7message8platform15send_unverified17h14e2d7d8ebf9387eE
	.p2align	4, 0x90
__ZN4objc7message8platform15send_unverified17h14e2d7d8ebf9387eE:
Lfunc_begin86:
	.loc	29 21 0
	.cfi_startproc
	.cfi_personality 155, _rust_eh_personality
	.cfi_lsda 16, Lexception28
	pushq	%rbp
	.cfi_def_cfa_offset 16
	.cfi_offset %rbp, -16
	movq	%rsp, %rbp
	.cfi_def_cfa_register %rbp
	subq	$128, %rsp
	movq	%rsi, -112(%rbp)
	movq	%rdi, -104(%rbp)
	movq	%rdi, -96(%rbp)
	movq	%rdx, -72(%rbp)
	movq	-72(%rbp), %rax
	movq	%rax, -80(%rbp)
	movq	%rsi, -48(%rbp)
Ltmp801:
	.loc	29 24 9 prologue_end
	movb	$0, -49(%rbp)
	movb	$1, -49(%rbp)
	.loc	29 24 20 is_stmt 0
	movq	%rsi, -32(%rbp)
Ltmp796:
Ltmp802:
	.loc	29 25 23 is_stmt 1
	callq	__ZN4objc7message8platform4arch11msg_send_fn17h4ec2c9f868ba02aeE
Ltmp797:
	movq	%rax, -88(%rbp)
	jmp	LBB86_3
Ltmp803:
LBB86_1:
	.loc	29 29 1
	testb	$1, -49(%rbp)
	jne	LBB86_6
	jmp	LBB86_5
LBB86_2:
Ltmp800:
	.loc	29 0 1 is_stmt 0
	movq	%rax, %rcx
	movl	%edx, %eax
	movq	%rcx, -24(%rbp)
	movl	%eax, -16(%rbp)
	jmp	LBB86_1
LBB86_3:
	movq	-112(%rbp), %rsi
	movq	-88(%rbp), %rdi
Ltmp804:
	.loc	29 25 23 is_stmt 1
	movq	%rdi, -8(%rbp)
Ltmp805:
	.loc	29 27 42
	movq	-80(%rbp), %rax
	movq	%rax, -64(%rbp)
	.loc	29 27 47 is_stmt 0
	movb	$0, -49(%rbp)
	.loc	29 27 9
	movq	-64(%rbp), %rdx
Ltmp798:
	callq	__ZN60_$LT$$LP$$RP$$u20$as$u20$objc..message..MessageArguments$GT$6invoke17h92c6fe4d086c6b35E
Ltmp799:
	movq	%rax, -120(%rbp)
	jmp	LBB86_4
LBB86_4:
	.loc	29 0 9
	movq	-96(%rbp), %rax
	movq	-104(%rbp), %rcx
	movq	-120(%rbp), %rdx
	.loc	29 26 5 is_stmt 1
	movq	%rdx, (%rcx)
	movq	$0, 8(%rcx)
Ltmp806:
	.loc	29 29 2
	addq	$128, %rsp
	popq	%rbp
	retq
LBB86_5:
	.loc	29 21 1
	movq	-24(%rbp), %rdi
	callq	__Unwind_Resume
LBB86_6:
	.loc	29 29 1
	jmp	LBB86_5
Ltmp807:
Lfunc_end86:
	.cfi_endproc
	.section	__TEXT,__gcc_except_tab
	.p2align	2
GCC_except_table86:
Lexception28:
	.byte	255
	.byte	255
	.byte	1
	.uleb128 Lcst_end28-Lcst_begin28
Lcst_begin28:
	.uleb128 Ltmp796-Lfunc_begin86
	.uleb128 Ltmp799-Ltmp796
	.uleb128 Ltmp800-Lfunc_begin86
	.byte	0
	.uleb128 Ltmp799-Lfunc_begin86
	.uleb128 Lfunc_end86-Ltmp799
	.byte	0
	.byte	0
Lcst_end28:
	.p2align	2

	.section	__TEXT,__text,regular,pure_instructions
	.globl	__ZN4objc7message8platform15send_unverified17h25be760b08862ccdE
	.p2align	4, 0x90
__ZN4objc7message8platform15send_unverified17h25be760b08862ccdE:
Lfunc_begin87:
	.loc	29 21 0
	.cfi_startproc
	.cfi_personality 155, _rust_eh_personality
	.cfi_lsda 16, Lexception29
	pushq	%rbp
	.cfi_def_cfa_offset 16
	.cfi_offset %rbp, -16
	movq	%rsp, %rbp
	.cfi_def_cfa_register %rbp
	subq	$128, %rsp
	movq	%rsi, -112(%rbp)
	movq	%rdi, -104(%rbp)
	movq	%rdi, -96(%rbp)
	movq	%rdx, -72(%rbp)
	movq	-72(%rbp), %rax
	movq	%rax, -80(%rbp)
	movq	%rsi, -48(%rbp)
Ltmp813:
	.loc	29 24 9 prologue_end
	movb	$0, -49(%rbp)
	movb	$1, -49(%rbp)
	.loc	29 24 20 is_stmt 0
	movq	%rsi, -32(%rbp)
Ltmp808:
Ltmp814:
	.loc	29 25 23 is_stmt 1
	callq	__ZN4objc7message8platform4arch11msg_send_fn17hb4963d9fc166d64cE
Ltmp809:
	movq	%rax, -88(%rbp)
	jmp	LBB87_3
Ltmp815:
LBB87_1:
	.loc	29 29 1
	testb	$1, -49(%rbp)
	jne	LBB87_6
	jmp	LBB87_5
LBB87_2:
Ltmp812:
	.loc	29 0 1 is_stmt 0
	movq	%rax, %rcx
	movl	%edx, %eax
	movq	%rcx, -24(%rbp)
	movl	%eax, -16(%rbp)
	jmp	LBB87_1
LBB87_3:
	movq	-112(%rbp), %rsi
	movq	-88(%rbp), %rdi
Ltmp816:
	.loc	29 25 23 is_stmt 1
	movq	%rdi, -8(%rbp)
Ltmp817:
	.loc	29 27 42
	movq	-80(%rbp), %rax
	movq	%rax, -64(%rbp)
	.loc	29 27 47 is_stmt 0
	movb	$0, -49(%rbp)
	.loc	29 27 9
	movq	-64(%rbp), %rdx
Ltmp810:
	callq	__ZN60_$LT$$LP$$RP$$u20$as$u20$objc..message..MessageArguments$GT$6invoke17h625cc9aff310fcd9E
Ltmp811:
	movq	%rax, -120(%rbp)
	jmp	LBB87_4
LBB87_4:
	.loc	29 0 9
	movq	-96(%rbp), %rax
	movq	-104(%rbp), %rcx
	movq	-120(%rbp), %rdx
	.loc	29 26 5 is_stmt 1
	movq	%rdx, (%rcx)
	movq	$0, 8(%rcx)
Ltmp818:
	.loc	29 29 2
	addq	$128, %rsp
	popq	%rbp
	retq
LBB87_5:
	.loc	29 21 1
	movq	-24(%rbp), %rdi
	callq	__Unwind_Resume
LBB87_6:
	.loc	29 29 1
	jmp	LBB87_5
Ltmp819:
Lfunc_end87:
	.cfi_endproc
	.section	__TEXT,__gcc_except_tab
	.p2align	2
GCC_except_table87:
Lexception29:
	.byte	255
	.byte	255
	.byte	1
	.uleb128 Lcst_end29-Lcst_begin29
Lcst_begin29:
	.uleb128 Ltmp808-Lfunc_begin87
	.uleb128 Ltmp811-Ltmp808
	.uleb128 Ltmp812-Lfunc_begin87
	.byte	0
	.uleb128 Ltmp811-Lfunc_begin87
	.uleb128 Lfunc_end87-Ltmp811
	.byte	0
	.byte	0
Lcst_end29:
	.p2align	2

	.section	__TEXT,__text,regular,pure_instructions
	.globl	__ZN4objc7message8platform15send_unverified17h3348a144ce349a7eE
	.p2align	4, 0x90
__ZN4objc7message8platform15send_unverified17h3348a144ce349a7eE:
Lfunc_begin88:
	.loc	29 21 0
	.cfi_startproc
	.cfi_personality 155, _rust_eh_personality
	.cfi_lsda 16, Lexception30
	pushq	%rbp
	.cfi_def_cfa_offset 16
	.cfi_offset %rbp, -16
	movq	%rsp, %rbp
	.cfi_def_cfa_register %rbp
	subq	$144, %rsp
	movq	%rcx, -136(%rbp)
Ltmp825:
	movq	%rsi, -128(%rbp)
	movq	%rdi, -120(%rbp)
	movq	%rdi, -112(%rbp)
	movq	%rdx, -88(%rbp)
	movq	-88(%rbp), %rax
	movq	%rax, -96(%rbp)
	movq	%rsi, -40(%rbp)
Ltmp826:
	.loc	29 24 9 prologue_end
	movb	$0, -41(%rbp)
	movb	$1, -41(%rbp)
	.loc	29 24 20 is_stmt 0
	movq	%rsi, -32(%rbp)
Ltmp820:
Ltmp827:
	.loc	29 25 23 is_stmt 1
	callq	__ZN4objc7message8platform4arch11msg_send_fn17h1492aa02ac940edeE
Ltmp828:
Ltmp821:
	.loc	29 0 23 is_stmt 0
	movq	%rax, -104(%rbp)
Ltmp829:
	.loc	29 25 23
	jmp	LBB88_3
Ltmp830:
LBB88_1:
	.loc	29 29 1 is_stmt 1
	testb	$1, -41(%rbp)
	jne	LBB88_6
	jmp	LBB88_5
Ltmp831:
LBB88_2:
Ltmp824:
	.loc	29 0 1 is_stmt 0
	movq	%rax, %rcx
	movl	%edx, %eax
	movq	%rcx, -24(%rbp)
	movl	%eax, -16(%rbp)
	jmp	LBB88_1
Ltmp832:
LBB88_3:
	movq	-128(%rbp), %rsi
	movq	-104(%rbp), %rdi
	movq	-136(%rbp), %rcx
Ltmp833:
	.loc	29 25 23 is_stmt 1
	movq	%rdi, -8(%rbp)
Ltmp834:
	.loc	29 27 42
	movq	-96(%rbp), %rax
	movq	%rax, -80(%rbp)
	.loc	29 27 47 is_stmt 0
	movb	$0, -41(%rbp)
	movq	16(%rcx), %rax
	movq	%rax, -56(%rbp)
	movq	(%rcx), %rax
	movq	8(%rcx), %rcx
	movq	%rcx, -64(%rbp)
	movq	%rax, -72(%rbp)
	.loc	29 27 9
	movq	-80(%rbp), %rdx
Ltmp822:
	leaq	-72(%rbp), %rcx
	callq	__ZN69_$LT$$LP$A$C$B$C$C$RP$$u20$as$u20$objc..message..MessageArguments$GT$6invoke17h3f0865249651202eE
Ltmp823:
	movq	%rax, -144(%rbp)
	jmp	LBB88_4
Ltmp835:
LBB88_4:
	.loc	29 0 9
	movq	-112(%rbp), %rax
	movq	-120(%rbp), %rcx
	movq	-144(%rbp), %rdx
	.loc	29 26 5 is_stmt 1
	movq	%rdx, (%rcx)
	movq	$0, 8(%rcx)
Ltmp836:
	.loc	29 29 2
	addq	$144, %rsp
	popq	%rbp
	retq
Ltmp837:
LBB88_5:
	.loc	29 21 1
	movq	-24(%rbp), %rdi
	callq	__Unwind_Resume
Ltmp838:
LBB88_6:
	.loc	29 29 1
	jmp	LBB88_5
Ltmp839:
Lfunc_end88:
	.cfi_endproc
	.section	__TEXT,__gcc_except_tab
	.p2align	2
GCC_except_table88:
Lexception30:
	.byte	255
	.byte	255
	.byte	1
	.uleb128 Lcst_end30-Lcst_begin30
Lcst_begin30:
	.uleb128 Ltmp820-Lfunc_begin88
	.uleb128 Ltmp823-Ltmp820
	.uleb128 Ltmp824-Lfunc_begin88
	.byte	0
	.uleb128 Ltmp823-Lfunc_begin88
	.uleb128 Lfunc_end88-Ltmp823
	.byte	0
	.byte	0
Lcst_end30:
	.p2align	2

	.section	__TEXT,__text,regular,pure_instructions
	.globl	__ZN4objc7message8platform15send_unverified17h3a0712faf1f2501fE
	.p2align	4, 0x90
__ZN4objc7message8platform15send_unverified17h3a0712faf1f2501fE:
Lfunc_begin89:
	.loc	29 21 0
	.cfi_startproc
	.cfi_personality 155, _rust_eh_personality
	.cfi_lsda 16, Lexception31
	pushq	%rbp
	.cfi_def_cfa_offset 16
	.cfi_offset %rbp, -16
	movq	%rsp, %rbp
	.cfi_def_cfa_register %rbp
	subq	$128, %rsp
	movq	%rsi, -112(%rbp)
	movq	%rdi, -104(%rbp)
	movq	%rdi, -96(%rbp)
	movq	%rdx, -72(%rbp)
	movq	-72(%rbp), %rax
	movq	%rax, -80(%rbp)
	movq	%rsi, -48(%rbp)
Ltmp845:
	.loc	29 24 9 prologue_end
	movb	$0, -49(%rbp)
	movb	$1, -49(%rbp)
	.loc	29 24 20 is_stmt 0
	movq	%rsi, -32(%rbp)
Ltmp840:
Ltmp846:
	.loc	29 25 23 is_stmt 1
	callq	__ZN4objc7message8platform4arch11msg_send_fn17hb4963d9fc166d64cE
Ltmp841:
	movq	%rax, -88(%rbp)
	jmp	LBB89_3
Ltmp847:
LBB89_1:
	.loc	29 29 1
	testb	$1, -49(%rbp)
	jne	LBB89_6
	jmp	LBB89_5
LBB89_2:
Ltmp844:
	.loc	29 0 1 is_stmt 0
	movq	%rax, %rcx
	movl	%edx, %eax
	movq	%rcx, -24(%rbp)
	movl	%eax, -16(%rbp)
	jmp	LBB89_1
LBB89_3:
	movq	-112(%rbp), %rsi
	movq	-88(%rbp), %rdi
Ltmp848:
	.loc	29 25 23 is_stmt 1
	movq	%rdi, -8(%rbp)
Ltmp849:
	.loc	29 27 42
	movq	-80(%rbp), %rax
	movq	%rax, -64(%rbp)
	.loc	29 27 47 is_stmt 0
	movb	$0, -49(%rbp)
	.loc	29 27 9
	movq	-64(%rbp), %rdx
Ltmp842:
	callq	__ZN60_$LT$$LP$$RP$$u20$as$u20$objc..message..MessageArguments$GT$6invoke17h625cc9aff310fcd9E
Ltmp843:
	movq	%rax, -120(%rbp)
	jmp	LBB89_4
LBB89_4:
	.loc	29 0 9
	movq	-96(%rbp), %rax
	movq	-104(%rbp), %rcx
	movq	-120(%rbp), %rdx
	.loc	29 26 5 is_stmt 1
	movq	%rdx, (%rcx)
	movq	$0, 8(%rcx)
Ltmp850:
	.loc	29 29 2
	addq	$128, %rsp
	popq	%rbp
	retq
LBB89_5:
	.loc	29 21 1
	movq	-24(%rbp), %rdi
	callq	__Unwind_Resume
LBB89_6:
	.loc	29 29 1
	jmp	LBB89_5
Ltmp851:
Lfunc_end89:
	.cfi_endproc
	.section	__TEXT,__gcc_except_tab
	.p2align	2
GCC_except_table89:
Lexception31:
	.byte	255
	.byte	255
	.byte	1
	.uleb128 Lcst_end31-Lcst_begin31
Lcst_begin31:
	.uleb128 Ltmp840-Lfunc_begin89
	.uleb128 Ltmp843-Ltmp840
	.uleb128 Ltmp844-Lfunc_begin89
	.byte	0
	.uleb128 Ltmp843-Lfunc_begin89
	.uleb128 Lfunc_end89-Ltmp843
	.byte	0
	.byte	0
Lcst_end31:
	.p2align	2

	.section	__TEXT,__text,regular,pure_instructions
	.globl	__ZN4objc7message8platform15send_unverified17h57fe90bf4cda5e5aE
	.p2align	4, 0x90
__ZN4objc7message8platform15send_unverified17h57fe90bf4cda5e5aE:
Lfunc_begin90:
	.loc	29 21 0
	.cfi_startproc
	.cfi_personality 155, _rust_eh_personality
	.cfi_lsda 16, Lexception32
	pushq	%rbp
	.cfi_def_cfa_offset 16
	.cfi_offset %rbp, -16
	movq	%rsp, %rbp
	.cfi_def_cfa_register %rbp
	subq	$144, %rsp
	movq	%r8, -136(%rbp)
	movq	%rcx, -128(%rbp)
	movq	%rsi, -120(%rbp)
	movq	%rdi, -112(%rbp)
	movq	%rdi, -104(%rbp)
	movq	%rdx, -80(%rbp)
	movq	-80(%rbp), %rax
	movq	%rax, -88(%rbp)
	movq	%rsi, -56(%rbp)
	movq	%rcx, -48(%rbp)
	movq	%r8, -40(%rbp)
Ltmp857:
	.loc	29 24 9 prologue_end
	movb	$0, -57(%rbp)
	movb	$1, -57(%rbp)
	.loc	29 24 20 is_stmt 0
	movq	%rsi, -32(%rbp)
Ltmp852:
Ltmp858:
	.loc	29 25 23 is_stmt 1
	callq	__ZN4objc7message8platform4arch11msg_send_fn17h0fd9c0f8216cf3b5E
Ltmp853:
	movq	%rax, -96(%rbp)
	jmp	LBB90_3
Ltmp859:
LBB90_1:
	.loc	29 29 1
	testb	$1, -57(%rbp)
	jne	LBB90_6
	jmp	LBB90_5
LBB90_2:
Ltmp856:
	.loc	29 0 1 is_stmt 0
	movq	%rax, %rcx
	movl	%edx, %eax
	movq	%rcx, -24(%rbp)
	movl	%eax, -16(%rbp)
	jmp	LBB90_1
LBB90_3:
	movq	-136(%rbp), %r8
	movq	-128(%rbp), %rcx
	movq	-120(%rbp), %rsi
	movq	-96(%rbp), %rdi
Ltmp860:
	.loc	29 25 23 is_stmt 1
	movq	%rdi, -8(%rbp)
Ltmp861:
	.loc	29 27 42
	movq	-88(%rbp), %rax
	movq	%rax, -72(%rbp)
	.loc	29 27 47 is_stmt 0
	movb	$0, -57(%rbp)
	.loc	29 27 9
	movq	-72(%rbp), %rdx
Ltmp854:
	callq	__ZN65_$LT$$LP$A$C$B$RP$$u20$as$u20$objc..message..MessageArguments$GT$6invoke17h7dcd249c73e9d72cE
Ltmp855:
	movq	%rax, -144(%rbp)
	jmp	LBB90_4
LBB90_4:
	.loc	29 0 9
	movq	-104(%rbp), %rax
	movq	-112(%rbp), %rcx
	movq	-144(%rbp), %rdx
	.loc	29 26 5 is_stmt 1
	movq	%rdx, (%rcx)
	movq	$0, 8(%rcx)
Ltmp862:
	.loc	29 29 2
	addq	$144, %rsp
	popq	%rbp
	retq
LBB90_5:
	.loc	29 21 1
	movq	-24(%rbp), %rdi
	callq	__Unwind_Resume
LBB90_6:
	.loc	29 29 1
	jmp	LBB90_5
Ltmp863:
Lfunc_end90:
	.cfi_endproc
	.section	__TEXT,__gcc_except_tab
	.p2align	2
GCC_except_table90:
Lexception32:
	.byte	255
	.byte	255
	.byte	1
	.uleb128 Lcst_end32-Lcst_begin32
Lcst_begin32:
	.uleb128 Ltmp852-Lfunc_begin90
	.uleb128 Ltmp855-Ltmp852
	.uleb128 Ltmp856-Lfunc_begin90
	.byte	0
	.uleb128 Ltmp855-Lfunc_begin90
	.uleb128 Lfunc_end90-Ltmp855
	.byte	0
	.byte	0
Lcst_end32:
	.p2align	2

	.section	__TEXT,__text,regular,pure_instructions
	.globl	__ZN4objc7message8platform15send_unverified17h9ae78848f5c826a5E
	.p2align	4, 0x90
__ZN4objc7message8platform15send_unverified17h9ae78848f5c826a5E:
Lfunc_begin91:
	.loc	29 21 0
	.cfi_startproc
	.cfi_personality 155, _rust_eh_personality
	.cfi_lsda 16, Lexception33
	pushq	%rbp
	.cfi_def_cfa_offset 16
	.cfi_offset %rbp, -16
	movq	%rsp, %rbp
	.cfi_def_cfa_register %rbp
	subq	$128, %rsp
	movq	%rcx, -120(%rbp)
	movq	%rsi, -112(%rbp)
	movq	%rdi, -104(%rbp)
	movq	%rdi, -96(%rbp)
	movq	%rdx, -72(%rbp)
	movq	-72(%rbp), %rax
	movq	%rax, -80(%rbp)
	movq	%rsi, -48(%rbp)
	movq	%rcx, -40(%rbp)
Ltmp869:
	.loc	29 24 9 prologue_end
	movb	$0, -49(%rbp)
	movb	$1, -49(%rbp)
	.loc	29 24 20 is_stmt 0
	movq	%rsi, -32(%rbp)
Ltmp864:
Ltmp870:
	.loc	29 25 23 is_stmt 1
	callq	__ZN4objc7message8platform4arch11msg_send_fn17hef8407810873cf45E
Ltmp865:
	movq	%rax, -88(%rbp)
	jmp	LBB91_3
Ltmp871:
LBB91_1:
	.loc	29 29 1
	testb	$1, -49(%rbp)
	jne	LBB91_6
	jmp	LBB91_5
LBB91_2:
Ltmp868:
	.loc	29 0 1 is_stmt 0
	movq	%rax, %rcx
	movl	%edx, %eax
	movq	%rcx, -24(%rbp)
	movl	%eax, -16(%rbp)
	jmp	LBB91_1
LBB91_3:
	movq	-120(%rbp), %rcx
	movq	-112(%rbp), %rsi
	movq	-88(%rbp), %rdi
Ltmp872:
	.loc	29 25 23 is_stmt 1
	movq	%rdi, -8(%rbp)
Ltmp873:
	.loc	29 27 42
	movq	-80(%rbp), %rax
	movq	%rax, -64(%rbp)
	.loc	29 27 47 is_stmt 0
	movb	$0, -49(%rbp)
	.loc	29 27 9
	movq	-64(%rbp), %rdx
Ltmp866:
	callq	__ZN64_$LT$$LP$A$C$$RP$$u20$as$u20$objc..message..MessageArguments$GT$6invoke17h1cbeaadf5f869307E
Ltmp867:
	movq	%rax, -128(%rbp)
	jmp	LBB91_4
LBB91_4:
	.loc	29 0 9
	movq	-96(%rbp), %rax
	movq	-104(%rbp), %rcx
	movq	-128(%rbp), %rdx
	.loc	29 26 5 is_stmt 1
	movq	%rdx, (%rcx)
	movq	$0, 8(%rcx)
Ltmp874:
	.loc	29 29 2
	addq	$128, %rsp
	popq	%rbp
	retq
LBB91_5:
	.loc	29 21 1
	movq	-24(%rbp), %rdi
	callq	__Unwind_Resume
LBB91_6:
	.loc	29 29 1
	jmp	LBB91_5
Ltmp875:
Lfunc_end91:
	.cfi_endproc
	.section	__TEXT,__gcc_except_tab
	.p2align	2
GCC_except_table91:
Lexception33:
	.byte	255
	.byte	255
	.byte	1
	.uleb128 Lcst_end33-Lcst_begin33
Lcst_begin33:
	.uleb128 Ltmp864-Lfunc_begin91
	.uleb128 Ltmp867-Ltmp864
	.uleb128 Ltmp868-Lfunc_begin91
	.byte	0
	.uleb128 Ltmp867-Lfunc_begin91
	.uleb128 Lfunc_end91-Ltmp867
	.byte	0
	.byte	0
Lcst_end33:
	.p2align	2

	.section	__TEXT,__text,regular,pure_instructions
	.globl	__ZN4objc7message8platform15send_unverified17hc7b5418425dc5732E
	.p2align	4, 0x90
__ZN4objc7message8platform15send_unverified17hc7b5418425dc5732E:
Lfunc_begin92:
	.loc	29 21 0
	.cfi_startproc
	.cfi_personality 155, _rust_eh_personality
	.cfi_lsda 16, Lexception34
	pushq	%rbp
	.cfi_def_cfa_offset 16
	.cfi_offset %rbp, -16
	movq	%rsp, %rbp
	.cfi_def_cfa_register %rbp
	subq	$144, %rsp
	movq	%r8, -136(%rbp)
	movq	%rcx, -128(%rbp)
	movq	%rsi, -120(%rbp)
	movq	%rdi, -112(%rbp)
	movq	%rdi, -104(%rbp)
	movq	%rdx, -80(%rbp)
	movq	-80(%rbp), %rax
	movq	%rax, -88(%rbp)
	movq	%rsi, -56(%rbp)
	movq	%rcx, -48(%rbp)
	movq	%r8, -40(%rbp)
Ltmp881:
	.loc	29 24 9 prologue_end
	movb	$0, -57(%rbp)
	movb	$1, -57(%rbp)
	.loc	29 24 20 is_stmt 0
	movq	%rsi, -32(%rbp)
Ltmp876:
Ltmp882:
	.loc	29 25 23 is_stmt 1
	callq	__ZN4objc7message8platform4arch11msg_send_fn17h0fd9c0f8216cf3b5E
Ltmp877:
	movq	%rax, -96(%rbp)
	jmp	LBB92_3
Ltmp883:
LBB92_1:
	.loc	29 29 1
	testb	$1, -57(%rbp)
	jne	LBB92_6
	jmp	LBB92_5
LBB92_2:
Ltmp880:
	.loc	29 0 1 is_stmt 0
	movq	%rax, %rcx
	movl	%edx, %eax
	movq	%rcx, -24(%rbp)
	movl	%eax, -16(%rbp)
	jmp	LBB92_1
LBB92_3:
	movq	-136(%rbp), %r8
	movq	-128(%rbp), %rcx
	movq	-120(%rbp), %rsi
	movq	-96(%rbp), %rdi
Ltmp884:
	.loc	29 25 23 is_stmt 1
	movq	%rdi, -8(%rbp)
Ltmp885:
	.loc	29 27 42
	movq	-88(%rbp), %rax
	movq	%rax, -72(%rbp)
	.loc	29 27 47 is_stmt 0
	movb	$0, -57(%rbp)
	.loc	29 27 9
	movq	-72(%rbp), %rdx
Ltmp878:
	callq	__ZN65_$LT$$LP$A$C$B$RP$$u20$as$u20$objc..message..MessageArguments$GT$6invoke17h7df96bcd200784e3E
Ltmp879:
	movq	%rax, -144(%rbp)
	jmp	LBB92_4
LBB92_4:
	.loc	29 0 9
	movq	-104(%rbp), %rax
	movq	-112(%rbp), %rcx
	movq	-144(%rbp), %rdx
	.loc	29 26 5 is_stmt 1
	movq	%rdx, (%rcx)
	movq	$0, 8(%rcx)
Ltmp886:
	.loc	29 29 2
	addq	$144, %rsp
	popq	%rbp
	retq
LBB92_5:
	.loc	29 21 1
	movq	-24(%rbp), %rdi
	callq	__Unwind_Resume
LBB92_6:
	.loc	29 29 1
	jmp	LBB92_5
Ltmp887:
Lfunc_end92:
	.cfi_endproc
	.section	__TEXT,__gcc_except_tab
	.p2align	2
GCC_except_table92:
Lexception34:
	.byte	255
	.byte	255
	.byte	1
	.uleb128 Lcst_end34-Lcst_begin34
Lcst_begin34:
	.uleb128 Ltmp876-Lfunc_begin92
	.uleb128 Ltmp879-Ltmp876
	.uleb128 Ltmp880-Lfunc_begin92
	.byte	0
	.uleb128 Ltmp879-Lfunc_begin92
	.uleb128 Lfunc_end92-Ltmp879
	.byte	0
	.byte	0
Lcst_end34:
	.p2align	2

	.section	__TEXT,__text,regular,pure_instructions
	.globl	__ZN4objc7message8platform15send_unverified17hce159ea89d61568fE
	.p2align	4, 0x90
__ZN4objc7message8platform15send_unverified17hce159ea89d61568fE:
Lfunc_begin93:
	.loc	29 21 0
	.cfi_startproc
	.cfi_personality 155, _rust_eh_personality
	.cfi_lsda 16, Lexception35
	pushq	%rbp
	.cfi_def_cfa_offset 16
	.cfi_offset %rbp, -16
	movq	%rsp, %rbp
	.cfi_def_cfa_register %rbp
	subq	$128, %rsp
	movq	%rsi, -112(%rbp)
	movq	%rdi, -104(%rbp)
	movq	%rdi, -96(%rbp)
	movq	%rdx, -72(%rbp)
	movq	-72(%rbp), %rax
	movq	%rax, -80(%rbp)
	movq	%rsi, -48(%rbp)
Ltmp893:
	.loc	29 24 9 prologue_end
	movb	$0, -49(%rbp)
	movb	$1, -49(%rbp)
	.loc	29 24 20 is_stmt 0
	movq	%rsi, -32(%rbp)
Ltmp888:
Ltmp894:
	.loc	29 25 23 is_stmt 1
	callq	__ZN4objc7message8platform4arch11msg_send_fn17h1492aa02ac940edeE
Ltmp889:
	movq	%rax, -88(%rbp)
	jmp	LBB93_3
Ltmp895:
LBB93_1:
	.loc	29 29 1
	testb	$1, -49(%rbp)
	jne	LBB93_6
	jmp	LBB93_5
LBB93_2:
Ltmp892:
	.loc	29 0 1 is_stmt 0
	movq	%rax, %rcx
	movl	%edx, %eax
	movq	%rcx, -24(%rbp)
	movl	%eax, -16(%rbp)
	jmp	LBB93_1
LBB93_3:
	movq	-112(%rbp), %rsi
	movq	-88(%rbp), %rdi
Ltmp896:
	.loc	29 25 23 is_stmt 1
	movq	%rdi, -8(%rbp)
Ltmp897:
	.loc	29 27 42
	movq	-80(%rbp), %rax
	movq	%rax, -64(%rbp)
	.loc	29 27 47 is_stmt 0
	movb	$0, -49(%rbp)
	.loc	29 27 9
	movq	-64(%rbp), %rdx
Ltmp890:
	callq	__ZN60_$LT$$LP$$RP$$u20$as$u20$objc..message..MessageArguments$GT$6invoke17h068eb4af7a73aff5E
Ltmp891:
	movq	%rax, -120(%rbp)
	jmp	LBB93_4
LBB93_4:
	.loc	29 0 9
	movq	-96(%rbp), %rax
	movq	-104(%rbp), %rcx
	movq	-120(%rbp), %rdx
	.loc	29 26 5 is_stmt 1
	movq	%rdx, (%rcx)
	movq	$0, 8(%rcx)
Ltmp898:
	.loc	29 29 2
	addq	$128, %rsp
	popq	%rbp
	retq
LBB93_5:
	.loc	29 21 1
	movq	-24(%rbp), %rdi
	callq	__Unwind_Resume
LBB93_6:
	.loc	29 29 1
	jmp	LBB93_5
Ltmp899:
Lfunc_end93:
	.cfi_endproc
	.section	__TEXT,__gcc_except_tab
	.p2align	2
GCC_except_table93:
Lexception35:
	.byte	255
	.byte	255
	.byte	1
	.uleb128 Lcst_end35-Lcst_begin35
Lcst_begin35:
	.uleb128 Ltmp888-Lfunc_begin93
	.uleb128 Ltmp891-Ltmp888
	.uleb128 Ltmp892-Lfunc_begin93
	.byte	0
	.uleb128 Ltmp891-Lfunc_begin93
	.uleb128 Lfunc_end93-Ltmp891
	.byte	0
	.byte	0
Lcst_end35:
	.p2align	2

	.section	__TEXT,__text,regular,pure_instructions
	.globl	__ZN4objc7message8platform15send_unverified17hce4d0546369784c5E
	.p2align	4, 0x90
__ZN4objc7message8platform15send_unverified17hce4d0546369784c5E:
Lfunc_begin94:
	.loc	29 21 0
	.cfi_startproc
	.cfi_personality 155, _rust_eh_personality
	.cfi_lsda 16, Lexception36
	pushq	%rbp
	.cfi_def_cfa_offset 16
	.cfi_offset %rbp, -16
	movq	%rsp, %rbp
	.cfi_def_cfa_register %rbp
	subq	$128, %rsp
	movq	%rsi, -112(%rbp)
	movq	%rdi, -104(%rbp)
	movq	%rdi, -96(%rbp)
	movq	%rdx, -72(%rbp)
	movq	-72(%rbp), %rax
	movq	%rax, -80(%rbp)
	movq	%rsi, -48(%rbp)
Ltmp905:
	.loc	29 24 9 prologue_end
	movb	$0, -49(%rbp)
	movb	$1, -49(%rbp)
	.loc	29 24 20 is_stmt 0
	movq	%rsi, -32(%rbp)
Ltmp900:
Ltmp906:
	.loc	29 25 23 is_stmt 1
	callq	__ZN4objc7message8platform4arch11msg_send_fn17h17029221937d3cc1E
Ltmp901:
	movq	%rax, -88(%rbp)
	jmp	LBB94_3
Ltmp907:
LBB94_1:
	.loc	29 29 1
	testb	$1, -49(%rbp)
	jne	LBB94_6
	jmp	LBB94_5
LBB94_2:
Ltmp904:
	.loc	29 0 1 is_stmt 0
	movq	%rax, %rcx
	movl	%edx, %eax
	movq	%rcx, -24(%rbp)
	movl	%eax, -16(%rbp)
	jmp	LBB94_1
LBB94_3:
	movq	-112(%rbp), %rsi
	movq	-88(%rbp), %rdi
Ltmp908:
	.loc	29 25 23 is_stmt 1
	movq	%rdi, -8(%rbp)
Ltmp909:
	.loc	29 27 42
	movq	-80(%rbp), %rax
	movq	%rax, -64(%rbp)
	.loc	29 27 47 is_stmt 0
	movb	$0, -49(%rbp)
	.loc	29 27 9
	movq	-64(%rbp), %rdx
Ltmp902:
	callq	__ZN60_$LT$$LP$$RP$$u20$as$u20$objc..message..MessageArguments$GT$6invoke17h3c0a4b49c11c8c4dE
Ltmp903:
	movq	%rax, -120(%rbp)
	jmp	LBB94_4
LBB94_4:
	.loc	29 0 9
	movq	-96(%rbp), %rax
	movq	-104(%rbp), %rcx
	movq	-120(%rbp), %rdx
	.loc	29 26 5 is_stmt 1
	movq	%rdx, (%rcx)
	movq	$0, 8(%rcx)
Ltmp910:
	.loc	29 29 2
	addq	$128, %rsp
	popq	%rbp
	retq
LBB94_5:
	.loc	29 21 1
	movq	-24(%rbp), %rdi
	callq	__Unwind_Resume
LBB94_6:
	.loc	29 29 1
	jmp	LBB94_5
Ltmp911:
Lfunc_end94:
	.cfi_endproc
	.section	__TEXT,__gcc_except_tab
	.p2align	2
GCC_except_table94:
Lexception36:
	.byte	255
	.byte	255
	.byte	1
	.uleb128 Lcst_end36-Lcst_begin36
Lcst_begin36:
	.uleb128 Ltmp900-Lfunc_begin94
	.uleb128 Ltmp903-Ltmp900
	.uleb128 Ltmp904-Lfunc_begin94
	.byte	0
	.uleb128 Ltmp903-Lfunc_begin94
	.uleb128 Lfunc_end94-Ltmp903
	.byte	0
	.byte	0
Lcst_end36:
	.p2align	2

	.section	__TEXT,__text,regular,pure_instructions
	.globl	__ZN4objc7message8platform15send_unverified17hd6149ab338b24e0aE
	.p2align	4, 0x90
__ZN4objc7message8platform15send_unverified17hd6149ab338b24e0aE:
Lfunc_begin95:
	.loc	29 21 0
	.cfi_startproc
	.cfi_personality 155, _rust_eh_personality
	.cfi_lsda 16, Lexception37
	pushq	%rbp
	.cfi_def_cfa_offset 16
	.cfi_offset %rbp, -16
	movq	%rsp, %rbp
	.cfi_def_cfa_register %rbp
	subq	$128, %rsp
	movq	%rsi, -112(%rbp)
	movq	%rdi, -104(%rbp)
	movq	%rdi, -96(%rbp)
	movq	%rdx, -72(%rbp)
	movq	-72(%rbp), %rax
	movq	%rax, -80(%rbp)
	movq	%rsi, -48(%rbp)
Ltmp917:
	.loc	29 24 9 prologue_end
	movb	$0, -49(%rbp)
	movb	$1, -49(%rbp)
	.loc	29 24 20 is_stmt 0
	movq	%rsi, -32(%rbp)
Ltmp912:
Ltmp918:
	.loc	29 25 23 is_stmt 1
	callq	__ZN4objc7message8platform4arch11msg_send_fn17h0fd9c0f8216cf3b5E
Ltmp913:
	movq	%rax, -88(%rbp)
	jmp	LBB95_3
Ltmp919:
LBB95_1:
	.loc	29 29 1
	testb	$1, -49(%rbp)
	jne	LBB95_6
	jmp	LBB95_5
LBB95_2:
Ltmp916:
	.loc	29 0 1 is_stmt 0
	movq	%rax, %rcx
	movl	%edx, %eax
	movq	%rcx, -24(%rbp)
	movl	%eax, -16(%rbp)
	jmp	LBB95_1
LBB95_3:
	movq	-112(%rbp), %rsi
	movq	-88(%rbp), %rdi
Ltmp920:
	.loc	29 25 23 is_stmt 1
	movq	%rdi, -8(%rbp)
Ltmp921:
	.loc	29 27 42
	movq	-80(%rbp), %rax
	movq	%rax, -64(%rbp)
	.loc	29 27 47 is_stmt 0
	movb	$0, -49(%rbp)
	.loc	29 27 9
	movq	-64(%rbp), %rdx
Ltmp914:
	callq	__ZN60_$LT$$LP$$RP$$u20$as$u20$objc..message..MessageArguments$GT$6invoke17h66cf96173be854a6E
Ltmp915:
	movq	%rax, -120(%rbp)
	jmp	LBB95_4
LBB95_4:
	.loc	29 0 9
	movq	-96(%rbp), %rax
	movq	-104(%rbp), %rcx
	movq	-120(%rbp), %rdx
	.loc	29 26 5 is_stmt 1
	movq	%rdx, (%rcx)
	movq	$0, 8(%rcx)
Ltmp922:
	.loc	29 29 2
	addq	$128, %rsp
	popq	%rbp
	retq
LBB95_5:
	.loc	29 21 1
	movq	-24(%rbp), %rdi
	callq	__Unwind_Resume
LBB95_6:
	.loc	29 29 1
	jmp	LBB95_5
Ltmp923:
Lfunc_end95:
	.cfi_endproc
	.section	__TEXT,__gcc_except_tab
	.p2align	2
GCC_except_table95:
Lexception37:
	.byte	255
	.byte	255
	.byte	1
	.uleb128 Lcst_end37-Lcst_begin37
Lcst_begin37:
	.uleb128 Ltmp912-Lfunc_begin95
	.uleb128 Ltmp915-Ltmp912
	.uleb128 Ltmp916-Lfunc_begin95
	.byte	0
	.uleb128 Ltmp915-Lfunc_begin95
	.uleb128 Lfunc_end95-Ltmp915
	.byte	0
	.byte	0
Lcst_end37:
	.p2align	2

	.section	__TEXT,__text,regular,pure_instructions
	.globl	__ZN4objc7message8platform15send_unverified17hd6c20830bb863746E
	.p2align	4, 0x90
__ZN4objc7message8platform15send_unverified17hd6c20830bb863746E:
Lfunc_begin96:
	.loc	29 21 0
	.cfi_startproc
	.cfi_personality 155, _rust_eh_personality
	.cfi_lsda 16, Lexception38
	pushq	%rbp
	.cfi_def_cfa_offset 16
	.cfi_offset %rbp, -16
	movq	%rsp, %rbp
	.cfi_def_cfa_register %rbp
	subq	$128, %rsp
	movq	%rsi, -112(%rbp)
	movq	%rdi, -104(%rbp)
	movq	%rdi, -96(%rbp)
	movq	%rdx, -72(%rbp)
	movq	-72(%rbp), %rax
	movq	%rax, -80(%rbp)
	movq	%rcx, -64(%rbp)
	movq	%rsi, -40(%rbp)
Ltmp932:
	.loc	29 24 9 prologue_end
	movb	$0, -41(%rbp)
	movb	$1, -41(%rbp)
	.loc	29 24 20 is_stmt 0
	movq	%rsi, -32(%rbp)
Ltmp924:
Ltmp933:
	.loc	29 25 23 is_stmt 1
	callq	__ZN4objc7message8platform4arch11msg_send_fn17h0492b5b3380a2558E
Ltmp925:
	movq	%rax, -88(%rbp)
	jmp	LBB96_3
Ltmp934:
LBB96_1:
	.loc	29 29 1
	testb	$1, -41(%rbp)
	jne	LBB96_6
	jmp	LBB96_5
LBB96_2:
Ltmp928:
	.loc	29 0 1 is_stmt 0
	movq	%rax, %rcx
	movl	%edx, %eax
	movq	%rcx, -24(%rbp)
	movl	%eax, -16(%rbp)
	jmp	LBB96_1
LBB96_3:
	movq	-112(%rbp), %rsi
	movq	-88(%rbp), %rdi
Ltmp935:
	.loc	29 25 23 is_stmt 1
	movq	%rdi, -8(%rbp)
Ltmp936:
	.loc	29 27 42
	movq	-80(%rbp), %rax
	movq	%rax, -56(%rbp)
	.loc	29 27 47 is_stmt 0
	movb	$0, -41(%rbp)
	movq	-64(%rbp), %rcx
	.loc	29 27 9
	movq	-56(%rbp), %rdx
Ltmp926:
	callq	__ZN64_$LT$$LP$A$C$$RP$$u20$as$u20$objc..message..MessageArguments$GT$6invoke17hb89fef8adcde322cE
Ltmp927:
	movb	%al, -113(%rbp)
	jmp	LBB96_4
LBB96_4:
	.loc	29 0 9
	movq	-96(%rbp), %rax
	movq	-104(%rbp), %rcx
	movb	-113(%rbp), %dl
	.loc	29 26 5 is_stmt 1
	andb	$1, %dl
	movb	%dl, (%rcx)
	movq	$0, 8(%rcx)
Ltmp937:
	.loc	29 29 2
	addq	$128, %rsp
	popq	%rbp
	retq
LBB96_5:
	.loc	29 21 1
	movq	-24(%rbp), %rdi
	callq	__Unwind_Resume
LBB96_6:
Ltmp929:
	.loc	29 0 1 is_stmt 0
	leaq	-64(%rbp), %rdi
	.loc	29 29 1 is_stmt 1
	callq	__ZN4core3ptr127drop_in_place$LT$$LP$objc_id..id..Id$LT$objc_foundation..array..NSArray$LT$objc_foundation..string..NSString$GT$$GT$$C$$RP$$GT$17hc7aee53574635007E
Ltmp930:
	jmp	LBB96_5
LBB96_7:
Ltmp931:
	.loc	29 21 1
	callq	__ZN4core9panicking19panic_cannot_unwind17h1fbca7e1d7f56ae1E
Ltmp938:
Lfunc_end96:
	.cfi_endproc
	.section	__TEXT,__gcc_except_tab
	.p2align	2
GCC_except_table96:
Lexception38:
	.byte	255
	.byte	255
	.byte	1
	.uleb128 Lcst_end38-Lcst_begin38
Lcst_begin38:
	.uleb128 Ltmp924-Lfunc_begin96
	.uleb128 Ltmp927-Ltmp924
	.uleb128 Ltmp928-Lfunc_begin96
	.byte	0
	.uleb128 Ltmp927-Lfunc_begin96
	.uleb128 Ltmp929-Ltmp927
	.byte	0
	.byte	0
	.uleb128 Ltmp929-Lfunc_begin96
	.uleb128 Ltmp930-Ltmp929
	.uleb128 Ltmp931-Lfunc_begin96
	.byte	0
Lcst_end38:
	.p2align	2

	.section	__TEXT,__text,regular,pure_instructions
	.globl	__ZN4objc7message8platform15send_unverified17hfa08ac49d0ecf637E
	.p2align	4, 0x90
__ZN4objc7message8platform15send_unverified17hfa08ac49d0ecf637E:
Lfunc_begin97:
	.loc	29 21 0
	.cfi_startproc
	.cfi_personality 155, _rust_eh_personality
	.cfi_lsda 16, Lexception39
	pushq	%rbp
	.cfi_def_cfa_offset 16
	.cfi_offset %rbp, -16
	movq	%rsp, %rbp
	.cfi_def_cfa_register %rbp
	subq	$128, %rsp
	movq	%rsi, -112(%rbp)
	movq	%rdi, -104(%rbp)
	movq	%rdi, -96(%rbp)
	movq	%rdx, -72(%rbp)
	movq	-72(%rbp), %rax
	movq	%rax, -80(%rbp)
	movq	%rsi, -48(%rbp)
Ltmp944:
	.loc	29 24 9 prologue_end
	movb	$0, -49(%rbp)
	movb	$1, -49(%rbp)
	.loc	29 24 20 is_stmt 0
	movq	%rsi, -32(%rbp)
Ltmp939:
Ltmp945:
	.loc	29 25 23 is_stmt 1
	callq	__ZN4objc7message8platform4arch11msg_send_fn17h17029221937d3cc1E
Ltmp940:
	movq	%rax, -88(%rbp)
	jmp	LBB97_3
Ltmp946:
LBB97_1:
	.loc	29 29 1
	testb	$1, -49(%rbp)
	jne	LBB97_6
	jmp	LBB97_5
LBB97_2:
Ltmp943:
	.loc	29 0 1 is_stmt 0
	movq	%rax, %rcx
	movl	%edx, %eax
	movq	%rcx, -24(%rbp)
	movl	%eax, -16(%rbp)
	jmp	LBB97_1
LBB97_3:
	movq	-112(%rbp), %rsi
	movq	-88(%rbp), %rdi
Ltmp947:
	.loc	29 25 23 is_stmt 1
	movq	%rdi, -8(%rbp)
Ltmp948:
	.loc	29 27 42
	movq	-80(%rbp), %rax
	movq	%rax, -64(%rbp)
	.loc	29 27 47 is_stmt 0
	movb	$0, -49(%rbp)
	.loc	29 27 9
	movq	-64(%rbp), %rdx
Ltmp941:
	callq	__ZN60_$LT$$LP$$RP$$u20$as$u20$objc..message..MessageArguments$GT$6invoke17h3c0a4b49c11c8c4dE
Ltmp942:
	movq	%rax, -120(%rbp)
	jmp	LBB97_4
LBB97_4:
	.loc	29 0 9
	movq	-96(%rbp), %rax
	movq	-104(%rbp), %rcx
	movq	-120(%rbp), %rdx
	.loc	29 26 5 is_stmt 1
	movq	%rdx, (%rcx)
	movq	$0, 8(%rcx)
Ltmp949:
	.loc	29 29 2
	addq	$128, %rsp
	popq	%rbp
	retq
LBB97_5:
	.loc	29 21 1
	movq	-24(%rbp), %rdi
	callq	__Unwind_Resume
LBB97_6:
	.loc	29 29 1
	jmp	LBB97_5
Ltmp950:
Lfunc_end97:
	.cfi_endproc
	.section	__TEXT,__gcc_except_tab
	.p2align	2
GCC_except_table97:
Lexception39:
	.byte	255
	.byte	255
	.byte	1
	.uleb128 Lcst_end39-Lcst_begin39
Lcst_begin39:
	.uleb128 Ltmp939-Lfunc_begin97
	.uleb128 Ltmp942-Ltmp939
	.uleb128 Ltmp943-Lfunc_begin97
	.byte	0
	.uleb128 Ltmp942-Lfunc_begin97
	.uleb128 Lfunc_end97-Ltmp942
	.byte	0
	.byte	0
Lcst_end39:
	.p2align	2

	.section	__TEXT,__text,regular,pure_instructions
	.globl	__ZN4objc7message8platform4arch11msg_send_fn17h0492b5b3380a2558E
	.p2align	4, 0x90
__ZN4objc7message8platform4arch11msg_send_fn17h0492b5b3380a2558E:
Lfunc_begin98:
	.file	30 "/Users/natalie/.cargo/registry/src/github.com-1ecc6299db9ec823/objc-0.2.7/src/message/apple" "x86_64.rs"
	.loc	30 13 0
	.cfi_startproc
	pushq	%rbp
	.cfi_def_cfa_offset 16
	.cfi_offset %rbp, -16
	movq	%rsp, %rbp
	.cfi_def_cfa_register %rbp
	pushq	%rax
Ltmp951:
	.loc	30 19 8 prologue_end
	movl	$1, %eax
	cmpq	$16, %rax
	jbe	LBB98_2
	.loc	30 22 9
	movq	_objc_msgSend_stret@GOTPCREL(%rip), %rax
	movq	%rax, -8(%rbp)
	.loc	30 19 5
	jmp	LBB98_3
LBB98_2:
	.loc	30 20 9
	movq	_objc_msgSend@GOTPCREL(%rip), %rax
	movq	%rax, -8(%rbp)
LBB98_3:
	.loc	30 24 2
	movq	-8(%rbp), %rax
	addq	$8, %rsp
	popq	%rbp
	retq
Ltmp952:
Lfunc_end98:
	.cfi_endproc

	.globl	__ZN4objc7message8platform4arch11msg_send_fn17h0fd9c0f8216cf3b5E
	.p2align	4, 0x90
__ZN4objc7message8platform4arch11msg_send_fn17h0fd9c0f8216cf3b5E:
Lfunc_begin99:
	.loc	30 13 0
	.cfi_startproc
	pushq	%rbp
	.cfi_def_cfa_offset 16
	.cfi_offset %rbp, -16
	movq	%rsp, %rbp
	.cfi_def_cfa_register %rbp
	pushq	%rax
Ltmp953:
	.loc	30 19 8 prologue_end
	movl	$8, %eax
	cmpq	$16, %rax
	jbe	LBB99_2
	.loc	30 22 9
	movq	_objc_msgSend_stret@GOTPCREL(%rip), %rax
	movq	%rax, -8(%rbp)
	.loc	30 19 5
	jmp	LBB99_3
LBB99_2:
	.loc	30 20 9
	movq	_objc_msgSend@GOTPCREL(%rip), %rax
	movq	%rax, -8(%rbp)
LBB99_3:
	.loc	30 24 2
	movq	-8(%rbp), %rax
	addq	$8, %rsp
	popq	%rbp
	retq
Ltmp954:
Lfunc_end99:
	.cfi_endproc

	.globl	__ZN4objc7message8platform4arch11msg_send_fn17h17029221937d3cc1E
	.p2align	4, 0x90
__ZN4objc7message8platform4arch11msg_send_fn17h17029221937d3cc1E:
Lfunc_begin100:
	.loc	30 13 0
	.cfi_startproc
	pushq	%rbp
	.cfi_def_cfa_offset 16
	.cfi_offset %rbp, -16
	movq	%rsp, %rbp
	.cfi_def_cfa_register %rbp
	pushq	%rax
Ltmp955:
	.loc	30 19 8 prologue_end
	movl	$8, %eax
	cmpq	$16, %rax
	jbe	LBB100_2
	.loc	30 22 9
	movq	_objc_msgSend_stret@GOTPCREL(%rip), %rax
	movq	%rax, -8(%rbp)
	.loc	30 19 5
	jmp	LBB100_3
LBB100_2:
	.loc	30 20 9
	movq	_objc_msgSend@GOTPCREL(%rip), %rax
	movq	%rax, -8(%rbp)
LBB100_3:
	.loc	30 24 2
	movq	-8(%rbp), %rax
	addq	$8, %rsp
	popq	%rbp
	retq
Ltmp956:
Lfunc_end100:
	.cfi_endproc

	.globl	__ZN4objc7message8platform4arch11msg_send_fn17h298419f8616f6cbbE
	.p2align	4, 0x90
__ZN4objc7message8platform4arch11msg_send_fn17h298419f8616f6cbbE:
Lfunc_begin101:
	.loc	30 13 0
	.cfi_startproc
	pushq	%rbp
	.cfi_def_cfa_offset 16
	.cfi_offset %rbp, -16
	movq	%rsp, %rbp
	.cfi_def_cfa_register %rbp
	pushq	%rax
Ltmp957:
	.loc	30 19 8 prologue_end
	movl	$8, %eax
	cmpq	$16, %rax
	jbe	LBB101_2
	.loc	30 22 9
	movq	_objc_msgSend_stret@GOTPCREL(%rip), %rax
	movq	%rax, -8(%rbp)
	.loc	30 19 5
	jmp	LBB101_3
LBB101_2:
	.loc	30 20 9
	movq	_objc_msgSend@GOTPCREL(%rip), %rax
	movq	%rax, -8(%rbp)
LBB101_3:
	.loc	30 24 2
	movq	-8(%rbp), %rax
	addq	$8, %rsp
	popq	%rbp
	retq
Ltmp958:
Lfunc_end101:
	.cfi_endproc

	.globl	__ZN4objc7message8platform4arch11msg_send_fn17h4ec2c9f868ba02aeE
	.p2align	4, 0x90
__ZN4objc7message8platform4arch11msg_send_fn17h4ec2c9f868ba02aeE:
Lfunc_begin102:
	.loc	30 13 0
	.cfi_startproc
	pushq	%rbp
	.cfi_def_cfa_offset 16
	.cfi_offset %rbp, -16
	movq	%rsp, %rbp
	.cfi_def_cfa_register %rbp
	pushq	%rax
Ltmp959:
	.loc	30 19 8 prologue_end
	movl	$8, %eax
	cmpq	$16, %rax
	jbe	LBB102_2
	.loc	30 22 9
	movq	_objc_msgSend_stret@GOTPCREL(%rip), %rax
	movq	%rax, -8(%rbp)
	.loc	30 19 5
	jmp	LBB102_3
LBB102_2:
	.loc	30 20 9
	movq	_objc_msgSend@GOTPCREL(%rip), %rax
	movq	%rax, -8(%rbp)
LBB102_3:
	.loc	30 24 2
	movq	-8(%rbp), %rax
	addq	$8, %rsp
	popq	%rbp
	retq
Ltmp960:
Lfunc_end102:
	.cfi_endproc

	.globl	__ZN4objc7message8platform4arch11msg_send_fn17hef8407810873cf45E
	.p2align	4, 0x90
__ZN4objc7message8platform4arch11msg_send_fn17hef8407810873cf45E:
Lfunc_begin103:
	.loc	30 13 0
	.cfi_startproc
	pushq	%rbp
	.cfi_def_cfa_offset 16
	.cfi_offset %rbp, -16
	movq	%rsp, %rbp
	.cfi_def_cfa_register %rbp
	pushq	%rax
Ltmp961:
	.loc	30 19 8 prologue_end
	movl	$8, %eax
	cmpq	$16, %rax
	jbe	LBB103_2
	.loc	30 22 9
	movq	_objc_msgSend_stret@GOTPCREL(%rip), %rax
	movq	%rax, -8(%rbp)
	.loc	30 19 5
	jmp	LBB103_3
LBB103_2:
	.loc	30 20 9
	movq	_objc_msgSend@GOTPCREL(%rip), %rax
	movq	%rax, -8(%rbp)
LBB103_3:
	.loc	30 24 2
	movq	-8(%rbp), %rax
	addq	$8, %rsp
	popq	%rbp
	retq
Ltmp962:
Lfunc_end103:
	.cfi_endproc

	.p2align	4, 0x90
__ZN4objc7runtime3Sel6as_ptr17h04b387e578f26eafE:
Lfunc_begin104:
	.file	31 "/Users/natalie/.cargo/registry/src/github.com-1ecc6299db9ec823/objc-0.2.7/src" "runtime.rs"
	.loc	31 175 0
	.cfi_startproc
	pushq	%rbp
	.cfi_def_cfa_offset 16
	.cfi_offset %rbp, -16
	movq	%rsp, %rbp
	.cfi_def_cfa_register %rbp
	pushq	%rax
	movq	%rdi, -8(%rbp)
Ltmp963:
	.loc	31 176 9 prologue_end
	movq	(%rdi), %rax
	.loc	31 177 6
	addq	$8, %rsp
	popq	%rbp
	retq
Ltmp964:
Lfunc_end104:
	.cfi_endproc

	.p2align	4, 0x90
__ZN4objc7runtime3Sel8from_ptr17h6cc59271a094997cE:
Lfunc_begin105:
	.loc	31 167 0
	.cfi_startproc
	pushq	%rbp
	.cfi_def_cfa_offset 16
	.cfi_offset %rbp, -16
	movq	%rsp, %rbp
	.cfi_def_cfa_register %rbp
	subq	$16, %rsp
	movq	%rdi, -8(%rbp)
Ltmp965:
	.loc	31 168 9 prologue_end
	movq	%rdi, -16(%rbp)
	.loc	31 171 6
	movq	-16(%rbp), %rax
	addq	$16, %rsp
	popq	%rbp
	retq
Ltmp966:
Lfunc_end105:
	.cfi_endproc

	.globl	__ZN50_$LT$T$u20$as$u20$core..convert..Into$LT$U$GT$$GT$4into17h0c90a7870e0c53dfE
	.p2align	4, 0x90
__ZN50_$LT$T$u20$as$u20$core..convert..Into$LT$U$GT$$GT$4into17h0c90a7870e0c53dfE:
Lfunc_begin106:
	.loc	9 725 0
	.cfi_startproc
	pushq	%rbp
	.cfi_def_cfa_offset 16
	.cfi_offset %rbp, -16
	movq	%rsp, %rbp
	.cfi_def_cfa_register %rbp
	subq	$32, %rsp
	movq	%rdi, %rax
	movq	%rax, -24(%rbp)
	movq	%rsi, -16(%rbp)
	movq	%rdx, -8(%rbp)
Ltmp967:
	.loc	9 726 9 prologue_end
	callq	__ZN76_$LT$alloc..string..String$u20$as$u20$core..convert..From$LT$$RF$str$GT$$GT$4from17hf2d448fe89231c2dE
	movq	-24(%rbp), %rax
	.loc	9 727 6
	addq	$32, %rsp
	popq	%rbp
	retq
Ltmp968:
Lfunc_end106:
	.cfi_endproc

	.p2align	4, 0x90
__ZN5alloc3str56_$LT$impl$u20$alloc..borrow..ToOwned$u20$for$u20$str$GT$8to_owned17hda72a212cf421064E:
Lfunc_begin107:
	.file	32 "/rustc/2c8cc343237b8f7d5a3c3703e3a87f2eb2c54a74/library/alloc/src" "str.rs"
	.loc	32 208 0
	.cfi_startproc
	pushq	%rbp
	.cfi_def_cfa_offset 16
	.cfi_offset %rbp, -16
	movq	%rsp, %rbp
	.cfi_def_cfa_register %rbp
	subq	$112, %rsp
	movq	%rdi, -112(%rbp)
	movq	%rdi, -104(%rbp)
	movq	%rsi, -48(%rbp)
	movq	%rdx, -40(%rbp)
Ltmp969:
	.loc	32 209 46 prologue_end
	movq	%rsi, -32(%rbp)
	movq	%rdx, -24(%rbp)
Ltmp970:
	.loc	19 327 18
	movq	%rsi, -16(%rbp)
	movq	%rdx, -8(%rbp)
	movq	-16(%rbp), %rsi
	movq	-8(%rbp), %rdx
Ltmp971:
	.loc	32 209 46
	leaq	-96(%rbp), %rdi
	callq	__ZN5alloc5slice64_$LT$impl$u20$alloc..borrow..ToOwned$u20$for$u20$$u5b$T$u5d$$GT$8to_owned17h5b80f0a7badca3f3E
	movq	-112(%rbp), %rdi
	movq	-104(%rbp), %rax
Ltmp972:
	.file	33 "/rustc/2c8cc343237b8f7d5a3c3703e3a87f2eb2c54a74/library/alloc/src" "string.rs"
	.loc	33 846 23
	movq	-96(%rbp), %rcx
	movq	%rcx, -72(%rbp)
	movq	-88(%rbp), %rcx
	movq	%rcx, -64(%rbp)
	movq	-80(%rbp), %rcx
	movq	%rcx, -56(%rbp)
	.loc	33 846 9 is_stmt 0
	movq	-72(%rbp), %rcx
	movq	%rcx, (%rdi)
	movq	-64(%rbp), %rcx
	movq	%rcx, 8(%rdi)
	movq	-56(%rbp), %rcx
	movq	%rcx, 16(%rdi)
Ltmp973:
	.loc	32 210 6 is_stmt 1
	addq	$112, %rsp
	popq	%rbp
	retq
Ltmp974:
Lfunc_end107:
	.cfi_endproc

	.globl	__ZN5alloc3vec16Vec$LT$T$C$A$GT$14extend_trusted17h06c1adb463da6109E
	.p2align	4, 0x90
__ZN5alloc3vec16Vec$LT$T$C$A$GT$14extend_trusted17h06c1adb463da6109E:
Lfunc_begin108:
	.loc	6 2872 0
	.cfi_startproc
	.cfi_personality 155, _rust_eh_personality
	.cfi_lsda 16, Lexception40
	pushq	%rbp
	.cfi_def_cfa_offset 16
	.cfi_offset %rbp, -16
	movq	%rsp, %rbp
	.cfi_def_cfa_register %rbp
	subq	$304, %rsp
	movq	%rdi, -296(%rbp)
	movq	%rsi, -288(%rbp)
	movq	%rdx, -280(%rbp)
	movq	%rdi, -128(%rbp)
Ltmp986:
	.loc	6 2873 27 prologue_end
	movb	$1, -137(%rbp)
Ltmp975:
	leaq	-256(%rbp), %rdi
	leaq	-288(%rbp), %rsi
	callq	__ZN102_$LT$core..iter..adapters..map..Map$LT$I$C$F$GT$$u20$as$u20$core..iter..traits..iterator..Iterator$GT$9size_hint17h1854c3216a31cce4E
Ltmp976:
	jmp	LBB108_3
LBB108_1:
	.loc	6 2901 5
	testb	$1, -137(%rbp)
	jne	LBB108_12
	jmp	LBB108_11
LBB108_2:
Ltmp985:
	.loc	6 0 5 is_stmt 0
	movq	%rax, %rcx
	movl	%edx, %eax
	movq	%rcx, -120(%rbp)
	movl	%eax, -112(%rbp)
	jmp	LBB108_1
LBB108_3:
	.loc	6 2873 14 is_stmt 1
	movq	-256(%rbp), %rax
	movq	%rax, -104(%rbp)
	.loc	6 2873 19 is_stmt 0
	movq	-248(%rbp), %rcx
	movq	-240(%rbp), %rax
	movq	%rcx, -272(%rbp)
	movq	%rax, -264(%rbp)
Ltmp987:
	.loc	6 2874 16 is_stmt 1
	cmpq	$1, -272(%rbp)
	jne	LBB108_5
	.loc	6 0 16 is_stmt 0
	movq	-296(%rbp), %rdi
	.loc	6 2874 21
	movq	-264(%rbp), %rsi
	movq	%rsi, -96(%rbp)
Ltmp981:
	.loc	6 2881 13 is_stmt 1
	callq	__ZN5alloc3vec16Vec$LT$T$C$A$GT$7reserve17heb72b08961aa4c40E
Ltmp982:
	jmp	LBB108_8
Ltmp988:
LBB108_5:
Ltmp977:
	.loc	6 2899 13
	leaq	l___unnamed_3(%rip), %rsi
	leaq	l___unnamed_4(%rip), %rcx
	xorl	%eax, %eax
	movl	%eax, %r8d
	leaq	-192(%rbp), %rdi
	movl	$1, %edx
	callq	__ZN4core3fmt9Arguments6new_v117hf41603d116161827E
Ltmp978:
	jmp	LBB108_6
LBB108_6:
Ltmp979:
	leaq	l___unnamed_26(%rip), %rsi
	leaq	-192(%rbp), %rdi
	callq	__ZN4core9panicking9panic_fmt17h9b5d807e24bcaaedE
Ltmp980:
	jmp	LBB108_7
LBB108_7:
	.loc	6 0 13 is_stmt 0
	ud2
LBB108_8:
	movq	-296(%rbp), %rax
Ltmp989:
	.loc	6 2883 27 is_stmt 1
	movq	%rax, -88(%rbp)
Ltmp990:
	.loc	6 1280 19
	movq	%rax, -80(%rbp)
Ltmp991:
	.loc	7 224 9
	movq	8(%rax), %rax
	movq	%rax, -304(%rbp)
	movq	%rax, -72(%rbp)
Ltmp992:
	.file	34 "/rustc/2c8cc343237b8f7d5a3c3703e3a87f2eb2c54a74/library/core/src/ptr" "unique.rs"
	.loc	34 104 9
	movq	%rax, -64(%rbp)
Ltmp993:
	.loc	27 326 9
	movq	%rax, -56(%rbp)
Ltmp994:
	.loc	6 1282 21
	movq	%rax, -48(%rbp)
Ltmp995:
	.loc	16 52 36
	movq	%rax, -136(%rbp)
	.loc	16 52 18 is_stmt 0
	movq	-136(%rbp), %rax
	movq	%rax, -40(%rbp)
Ltmp996:
	.loc	16 38 13 is_stmt 1
	movq	%rax, -32(%rbp)
Ltmp997:
	.loc	16 215 33
	movq	%rax, -24(%rbp)
	.loc	16 215 18 is_stmt 0
	movq	%rax, -16(%rbp)
	movq	-16(%rbp), %rax
Ltmp998:
	.loc	16 0 18
	movq	-304(%rbp), %rax
	movq	-296(%rbp), %rcx
Ltmp999:
	.loc	6 2884 55 is_stmt 1
	movq	%rcx, %rdx
	addq	$16, %rdx
	movq	%rdx, -8(%rbp)
Ltmp1000:
	.file	35 "/rustc/2c8cc343237b8f7d5a3c3703e3a87f2eb2c54a74/library/alloc/src/vec" "set_len_on_drop.rs"
	.loc	35 14 35
	movq	16(%rcx), %rcx
	.loc	35 14 9 is_stmt 0
	movq	%rdx, -224(%rbp)
	movq	%rcx, -232(%rbp)
Ltmp1001:
	.loc	6 2885 17 is_stmt 1
	movb	$0, -137(%rbp)
	movq	-288(%rbp), %rdi
	movq	-280(%rbp), %rsi
	.loc	6 2885 35 is_stmt 0
	movq	%rax, -200(%rbp)
	movq	-232(%rbp), %rcx
	movq	-224(%rbp), %rax
	movq	%rcx, -216(%rbp)
	movq	%rax, -208(%rbp)
Ltmp983:
	leaq	-216(%rbp), %rdx
	.loc	6 2885 17
	callq	__ZN4core4iter6traits8iterator8Iterator8for_each17h19807ae79cfaa04cE
Ltmp984:
	jmp	LBB108_10
Ltmp1002:
LBB108_10:
	.loc	6 2901 6 is_stmt 1
	addq	$304, %rsp
	popq	%rbp
	retq
LBB108_11:
	.loc	6 2872 5
	movq	-120(%rbp), %rdi
	callq	__Unwind_Resume
LBB108_12:
	.loc	6 2901 5
	jmp	LBB108_11
Ltmp1003:
Lfunc_end108:
	.cfi_endproc
	.section	__TEXT,__gcc_except_tab
	.p2align	2
GCC_except_table108:
Lexception40:
	.byte	255
	.byte	255
	.byte	1
	.uleb128 Lcst_end40-Lcst_begin40
Lcst_begin40:
	.uleb128 Ltmp975-Lfunc_begin108
	.uleb128 Ltmp984-Ltmp975
	.uleb128 Ltmp985-Lfunc_begin108
	.byte	0
	.uleb128 Ltmp984-Lfunc_begin108
	.uleb128 Lfunc_end108-Ltmp984
	.byte	0
	.byte	0
Lcst_end40:
	.p2align	2

	.section	__TEXT,__text,regular,pure_instructions
	.globl	__ZN5alloc3vec16Vec$LT$T$C$A$GT$14extend_trusted17ha3806ee0775ce1d7E
	.p2align	4, 0x90
__ZN5alloc3vec16Vec$LT$T$C$A$GT$14extend_trusted17ha3806ee0775ce1d7E:
Lfunc_begin109:
	.loc	6 2872 0
	.cfi_startproc
	.cfi_personality 155, _rust_eh_personality
	.cfi_lsda 16, Lexception41
	pushq	%rbp
	.cfi_def_cfa_offset 16
	.cfi_offset %rbp, -16
	movq	%rsp, %rbp
	.cfi_def_cfa_register %rbp
	subq	$304, %rsp
	movq	%rdi, -296(%rbp)
	movq	%rsi, -288(%rbp)
	movq	%rdx, -280(%rbp)
	movq	%rdi, -128(%rbp)
Ltmp1015:
	.loc	6 2873 27 prologue_end
	movb	$1, -137(%rbp)
Ltmp1004:
	leaq	-256(%rbp), %rdi
	leaq	-288(%rbp), %rsi
	callq	__ZN102_$LT$core..iter..adapters..map..Map$LT$I$C$F$GT$$u20$as$u20$core..iter..traits..iterator..Iterator$GT$9size_hint17h83e0d42392ba8a3dE
Ltmp1005:
	jmp	LBB109_3
LBB109_1:
	.loc	6 2901 5
	testb	$1, -137(%rbp)
	jne	LBB109_12
	jmp	LBB109_11
LBB109_2:
Ltmp1014:
	.loc	6 0 5 is_stmt 0
	movq	%rax, %rcx
	movl	%edx, %eax
	movq	%rcx, -120(%rbp)
	movl	%eax, -112(%rbp)
	jmp	LBB109_1
LBB109_3:
	.loc	6 2873 14 is_stmt 1
	movq	-256(%rbp), %rax
	movq	%rax, -104(%rbp)
	.loc	6 2873 19 is_stmt 0
	movq	-248(%rbp), %rcx
	movq	-240(%rbp), %rax
	movq	%rcx, -272(%rbp)
	movq	%rax, -264(%rbp)
Ltmp1016:
	.loc	6 2874 16 is_stmt 1
	cmpq	$1, -272(%rbp)
	jne	LBB109_5
	.loc	6 0 16 is_stmt 0
	movq	-296(%rbp), %rdi
	.loc	6 2874 21
	movq	-264(%rbp), %rsi
	movq	%rsi, -96(%rbp)
Ltmp1010:
	.loc	6 2881 13 is_stmt 1
	callq	__ZN5alloc3vec16Vec$LT$T$C$A$GT$7reserve17hec702fc39ecb2684E
Ltmp1011:
	jmp	LBB109_8
Ltmp1017:
LBB109_5:
Ltmp1006:
	.loc	6 2899 13
	leaq	l___unnamed_3(%rip), %rsi
	leaq	l___unnamed_4(%rip), %rcx
	xorl	%eax, %eax
	movl	%eax, %r8d
	leaq	-192(%rbp), %rdi
	movl	$1, %edx
	callq	__ZN4core3fmt9Arguments6new_v117hf41603d116161827E
Ltmp1007:
	jmp	LBB109_6
LBB109_6:
Ltmp1008:
	leaq	l___unnamed_26(%rip), %rsi
	leaq	-192(%rbp), %rdi
	callq	__ZN4core9panicking9panic_fmt17h9b5d807e24bcaaedE
Ltmp1009:
	jmp	LBB109_7
LBB109_7:
	.loc	6 0 13 is_stmt 0
	ud2
LBB109_8:
	movq	-296(%rbp), %rax
Ltmp1018:
	.loc	6 2883 27 is_stmt 1
	movq	%rax, -88(%rbp)
Ltmp1019:
	.loc	6 1280 19
	movq	%rax, -80(%rbp)
Ltmp1020:
	.loc	7 224 9
	movq	8(%rax), %rax
	movq	%rax, -304(%rbp)
	movq	%rax, -72(%rbp)
Ltmp1021:
	.loc	34 104 9
	movq	%rax, -64(%rbp)
Ltmp1022:
	.loc	27 326 9
	movq	%rax, -56(%rbp)
Ltmp1023:
	.loc	6 1282 21
	movq	%rax, -48(%rbp)
Ltmp1024:
	.loc	16 52 36
	movq	%rax, -136(%rbp)
	.loc	16 52 18 is_stmt 0
	movq	-136(%rbp), %rax
	movq	%rax, -40(%rbp)
Ltmp1025:
	.loc	16 38 13 is_stmt 1
	movq	%rax, -32(%rbp)
Ltmp1026:
	.loc	16 215 33
	movq	%rax, -24(%rbp)
	.loc	16 215 18 is_stmt 0
	movq	%rax, -16(%rbp)
	movq	-16(%rbp), %rax
Ltmp1027:
	.loc	16 0 18
	movq	-304(%rbp), %rax
	movq	-296(%rbp), %rcx
Ltmp1028:
	.loc	6 2884 55 is_stmt 1
	movq	%rcx, %rdx
	addq	$16, %rdx
	movq	%rdx, -8(%rbp)
Ltmp1029:
	.loc	35 14 35
	movq	16(%rcx), %rcx
	.loc	35 14 9 is_stmt 0
	movq	%rdx, -224(%rbp)
	movq	%rcx, -232(%rbp)
Ltmp1030:
	.loc	6 2885 17 is_stmt 1
	movb	$0, -137(%rbp)
	movq	-288(%rbp), %rdi
	movq	-280(%rbp), %rsi
	.loc	6 2885 35 is_stmt 0
	movq	%rax, -200(%rbp)
	movq	-232(%rbp), %rcx
	movq	-224(%rbp), %rax
	movq	%rcx, -216(%rbp)
	movq	%rax, -208(%rbp)
Ltmp1012:
	leaq	-216(%rbp), %rdx
	.loc	6 2885 17
	callq	__ZN4core4iter6traits8iterator8Iterator8for_each17h07a93fa982234a5fE
Ltmp1013:
	jmp	LBB109_10
Ltmp1031:
LBB109_10:
	.loc	6 2901 6 is_stmt 1
	addq	$304, %rsp
	popq	%rbp
	retq
LBB109_11:
	.loc	6 2872 5
	movq	-120(%rbp), %rdi
	callq	__Unwind_Resume
LBB109_12:
	.loc	6 2901 5
	jmp	LBB109_11
Ltmp1032:
Lfunc_end109:
	.cfi_endproc
	.section	__TEXT,__gcc_except_tab
	.p2align	2
GCC_except_table109:
Lexception41:
	.byte	255
	.byte	255
	.byte	1
	.uleb128 Lcst_end41-Lcst_begin41
Lcst_begin41:
	.uleb128 Ltmp1004-Lfunc_begin109
	.uleb128 Ltmp1013-Ltmp1004
	.uleb128 Ltmp1014-Lfunc_begin109
	.byte	0
	.uleb128 Ltmp1013-Lfunc_begin109
	.uleb128 Lfunc_end109-Ltmp1013
	.byte	0
	.byte	0
Lcst_end41:
	.p2align	2

	.section	__TEXT,__text,regular,pure_instructions
	.globl	__ZN5alloc3vec16Vec$LT$T$C$A$GT$14extend_trusted28_$u7b$$u7b$closure$u7d$$u7d$17h2fb0d9f2742398d0E
	.p2align	4, 0x90
__ZN5alloc3vec16Vec$LT$T$C$A$GT$14extend_trusted28_$u7b$$u7b$closure$u7d$$u7d$17h2fb0d9f2742398d0E:
Lfunc_begin110:
	.loc	6 2885 0
	.cfi_startproc
	pushq	%rbp
	.cfi_def_cfa_offset 16
	.cfi_offset %rbp, -16
	movq	%rsp, %rbp
	.cfi_def_cfa_register %rbp
	subq	$128, %rsp
	movq	%rdi, -128(%rbp)
	movq	%rsi, -120(%rbp)
	movq	%rdi, -96(%rbp)
	movq	%rsi, -88(%rbp)
Ltmp1033:
	.loc	6 2886 32 prologue_end
	movq	16(%rdi), %rax
	movq	%rax, -80(%rbp)
	.loc	6 2886 40 is_stmt 0
	movq	%rdi, -72(%rbp)
Ltmp1034:
	.loc	35 24 9 is_stmt 1
	movq	(%rdi), %rcx
	movq	%rcx, -64(%rbp)
Ltmp1035:
	.loc	16 1034 18
	movq	%rax, -56(%rbp)
	.loc	16 1034 30 is_stmt 0
	movq	%rcx, -48(%rbp)
Ltmp1036:
	.loc	16 487 18 is_stmt 1
	shlq	$3, %rcx
	addq	%rcx, %rax
	movq	%rax, -40(%rbp)
	movq	-40(%rbp), %rax
	movq	%rax, -112(%rbp)
	.loc	16 0 18 is_stmt 0
	movq	-128(%rbp), %rax
	movq	-112(%rbp), %rcx
	movq	-120(%rbp), %rdx
	.loc	16 487 18
	movq	%rcx, -16(%rbp)
Ltmp1037:
	.loc	6 2886 66 is_stmt 1
	movq	%rdx, -104(%rbp)
Ltmp1038:
	.loc	15 1354 9
	movq	-104(%rbp), %rdx
	movq	%rdx, (%rcx)
Ltmp1039:
	.loc	6 2890 21
	movq	%rax, -8(%rbp)
Ltmp1040:
	.loc	35 19 9
	movq	(%rax), %rcx
	addq	$1, %rcx
	movq	%rcx, (%rax)
Ltmp1041:
	.loc	6 2891 18
	addq	$128, %rsp
	popq	%rbp
	retq
Ltmp1042:
Lfunc_end110:
	.cfi_endproc

	.globl	__ZN5alloc3vec16Vec$LT$T$C$A$GT$14extend_trusted28_$u7b$$u7b$closure$u7d$$u7d$17h53e502f56de72c3aE
	.p2align	4, 0x90
__ZN5alloc3vec16Vec$LT$T$C$A$GT$14extend_trusted28_$u7b$$u7b$closure$u7d$$u7d$17h53e502f56de72c3aE:
Lfunc_begin111:
	.loc	6 2885 0
	.cfi_startproc
	pushq	%rbp
	.cfi_def_cfa_offset 16
	.cfi_offset %rbp, -16
	movq	%rsp, %rbp
	.cfi_def_cfa_register %rbp
	subq	$128, %rsp
	movq	%rdi, -128(%rbp)
	movq	%rsi, -120(%rbp)
	movq	%rdi, -96(%rbp)
	movq	%rsi, -88(%rbp)
Ltmp1043:
	.loc	6 2886 32 prologue_end
	movq	16(%rdi), %rax
	movq	%rax, -80(%rbp)
	.loc	6 2886 40 is_stmt 0
	movq	%rdi, -72(%rbp)
Ltmp1044:
	.loc	35 24 9 is_stmt 1
	movq	(%rdi), %rcx
	movq	%rcx, -64(%rbp)
Ltmp1045:
	.loc	16 1034 18
	movq	%rax, -56(%rbp)
	.loc	16 1034 30 is_stmt 0
	movq	%rcx, -48(%rbp)
Ltmp1046:
	.loc	16 487 18 is_stmt 1
	shlq	$3, %rcx
	addq	%rcx, %rax
	movq	%rax, -40(%rbp)
	movq	-40(%rbp), %rax
	movq	%rax, -112(%rbp)
	.loc	16 0 18 is_stmt 0
	movq	-128(%rbp), %rax
	movq	-112(%rbp), %rcx
	movq	-120(%rbp), %rdx
	.loc	16 487 18
	movq	%rcx, -16(%rbp)
Ltmp1047:
	.loc	6 2886 66 is_stmt 1
	movq	%rdx, -104(%rbp)
Ltmp1048:
	.loc	15 1354 9
	movq	-104(%rbp), %rdx
	movq	%rdx, (%rcx)
Ltmp1049:
	.loc	6 2890 21
	movq	%rax, -8(%rbp)
Ltmp1050:
	.loc	35 19 9
	movq	(%rax), %rcx
	addq	$1, %rcx
	movq	%rcx, (%rax)
Ltmp1051:
	.loc	6 2891 18
	addq	$128, %rsp
	popq	%rbp
	retq
Ltmp1052:
Lfunc_end111:
	.cfi_endproc

	.globl	__ZN5alloc3vec16Vec$LT$T$C$A$GT$17from_raw_parts_in17hb451312474c1bc85E
	.p2align	4, 0x90
__ZN5alloc3vec16Vec$LT$T$C$A$GT$17from_raw_parts_in17hb451312474c1bc85E:
Lfunc_begin112:
	.loc	6 786 0
	.cfi_startproc
	pushq	%rbp
	.cfi_def_cfa_offset 16
	.cfi_offset %rbp, -16
	movq	%rsp, %rbp
	.cfi_def_cfa_register %rbp
	subq	$104, %rsp
	movq	%rdi, %rax
	movq	%rsi, -72(%rbp)
	movq	%rdx, -64(%rbp)
	movq	%rcx, -56(%rbp)
Ltmp1053:
	.loc	6 787 55 prologue_end
	movq	%rsi, -32(%rbp)
	.loc	6 787 60 is_stmt 0
	movq	%rcx, -24(%rbp)
Ltmp1054:
	.loc	7 216 52 is_stmt 1
	movq	%rsi, -16(%rbp)
Ltmp1055:
	.loc	34 87 59
	movq	%rsi, -8(%rbp)
Ltmp1056:
	.loc	27 201 13
	movq	%rsi, -80(%rbp)
Ltmp1057:
	.loc	34 87 18
	movq	-80(%rbp), %rsi
	movq	%rsi, -88(%rbp)
Ltmp1058:
	.loc	7 216 9
	movq	-88(%rbp), %rsi
	movq	%rsi, -96(%rbp)
	movq	%rcx, -104(%rbp)
Ltmp1059:
	.loc	6 787 18
	movq	-104(%rbp), %rsi
	movq	-96(%rbp), %rcx
	movq	%rsi, (%rdi)
	movq	%rcx, 8(%rdi)
	movq	%rdx, 16(%rdi)
	.loc	6 788 6
	addq	$104, %rsp
	popq	%rbp
	retq
Ltmp1060:
Lfunc_end112:
	.cfi_endproc

	.globl	__ZN5alloc3vec16Vec$LT$T$C$A$GT$17from_raw_parts_in17hb6e3fd8be132d68bE
	.p2align	4, 0x90
__ZN5alloc3vec16Vec$LT$T$C$A$GT$17from_raw_parts_in17hb6e3fd8be132d68bE:
Lfunc_begin113:
	.loc	6 786 0
	.cfi_startproc
	pushq	%rbp
	.cfi_def_cfa_offset 16
	.cfi_offset %rbp, -16
	movq	%rsp, %rbp
	.cfi_def_cfa_register %rbp
	subq	$104, %rsp
	movq	%rdi, %rax
	movq	%rsi, -72(%rbp)
	movq	%rdx, -64(%rbp)
	movq	%rcx, -56(%rbp)
Ltmp1061:
	.loc	6 787 55 prologue_end
	movq	%rsi, -32(%rbp)
	.loc	6 787 60 is_stmt 0
	movq	%rcx, -24(%rbp)
Ltmp1062:
	.loc	7 216 52 is_stmt 1
	movq	%rsi, -16(%rbp)
Ltmp1063:
	.loc	34 87 59
	movq	%rsi, -8(%rbp)
Ltmp1064:
	.loc	27 201 13
	movq	%rsi, -80(%rbp)
Ltmp1065:
	.loc	34 87 18
	movq	-80(%rbp), %rsi
	movq	%rsi, -88(%rbp)
Ltmp1066:
	.loc	7 216 9
	movq	-88(%rbp), %rsi
	movq	%rsi, -96(%rbp)
	movq	%rcx, -104(%rbp)
Ltmp1067:
	.loc	6 787 18
	movq	-104(%rbp), %rsi
	movq	-96(%rbp), %rcx
	movq	%rsi, (%rdi)
	movq	%rcx, 8(%rdi)
	movq	%rdx, 16(%rdi)
	.loc	6 788 6
	addq	$104, %rsp
	popq	%rbp
	retq
Ltmp1068:
Lfunc_end113:
	.cfi_endproc

	.globl	__ZN5alloc3vec16Vec$LT$T$C$A$GT$7reserve17heb72b08961aa4c40E
	.p2align	4, 0x90
__ZN5alloc3vec16Vec$LT$T$C$A$GT$7reserve17heb72b08961aa4c40E:
Lfunc_begin114:
	.loc	6 911 0
	.cfi_startproc
	pushq	%rbp
	.cfi_def_cfa_offset 16
	.cfi_offset %rbp, -16
	movq	%rsp, %rbp
	.cfi_def_cfa_register %rbp
	subq	$16, %rsp
	movq	%rsi, %rdx
	movq	%rdi, -16(%rbp)
	movq	%rdx, -8(%rbp)
Ltmp1069:
	.loc	6 912 26 prologue_end
	movq	16(%rdi), %rsi
	.loc	6 912 9 is_stmt 0
	callq	__ZN5alloc7raw_vec19RawVec$LT$T$C$A$GT$7reserve17h5b65a657a0cad9a7E
	.loc	6 913 6 is_stmt 1
	addq	$16, %rsp
	popq	%rbp
	retq
Ltmp1070:
Lfunc_end114:
	.cfi_endproc

	.globl	__ZN5alloc3vec16Vec$LT$T$C$A$GT$7reserve17hec702fc39ecb2684E
	.p2align	4, 0x90
__ZN5alloc3vec16Vec$LT$T$C$A$GT$7reserve17hec702fc39ecb2684E:
Lfunc_begin115:
	.loc	6 911 0
	.cfi_startproc
	pushq	%rbp
	.cfi_def_cfa_offset 16
	.cfi_offset %rbp, -16
	movq	%rsp, %rbp
	.cfi_def_cfa_register %rbp
	subq	$16, %rsp
	movq	%rsi, %rdx
	movq	%rdi, -16(%rbp)
	movq	%rdx, -8(%rbp)
Ltmp1071:
	.loc	6 912 26 prologue_end
	movq	16(%rdi), %rsi
	.loc	6 912 9 is_stmt 0
	callq	__ZN5alloc7raw_vec19RawVec$LT$T$C$A$GT$7reserve17h2b3e29fdf67f9922E
	.loc	6 913 6 is_stmt 1
	addq	$16, %rsp
	popq	%rbp
	retq
Ltmp1072:
Lfunc_end115:
	.cfi_endproc

	.p2align	4, 0x90
__ZN5alloc5alloc15exchange_malloc17hc3aa3e24153b7389E:
Lfunc_begin116:
	.file	36 "/rustc/2c8cc343237b8f7d5a3c3703e3a87f2eb2c54a74/library/alloc/src" "alloc.rs"
	.loc	36 324 0
	.cfi_startproc
	pushq	%rbp
	.cfi_def_cfa_offset 16
	.cfi_offset %rbp, -16
	movq	%rsp, %rbp
	.cfi_def_cfa_register %rbp
	subq	$208, %rsp
	movq	%rdi, -160(%rbp)
	movq	%rsi, -152(%rbp)
Ltmp1073:
	.loc	36 325 61 prologue_end
	movq	%rdi, -144(%rbp)
	.loc	36 325 67 is_stmt 0
	movq	%rsi, -136(%rbp)
Ltmp1074:
	.loc	22 120 65 is_stmt 1
	movq	%rsi, -128(%rbp)
Ltmp1075:
	.loc	23 89 18
	movq	%rsi, -120(%rbp)
	movq	-120(%rbp), %rax
Ltmp1076:
	.loc	22 120 18
	movq	%rdi, -200(%rbp)
	movq	%rax, -192(%rbp)
Ltmp1077:
	.loc	36 326 11
	leaq	l___unnamed_4(%rip), %rdi
	movq	%rdi, -112(%rbp)
	.loc	36 326 27 is_stmt 0
	movq	-200(%rbp), %rsi
	movq	-192(%rbp), %rdx
	movq	%rsi, -104(%rbp)
	movq	%rdx, -96(%rbp)
	xorl	%ecx, %ecx
Ltmp1078:
	.loc	36 237 9 is_stmt 1
	callq	__ZN5alloc5alloc6Global10alloc_impl17h2dfd8b04a4ae4efbE
	movq	%rdx, -176(%rbp)
	movq	%rax, -184(%rbp)
Ltmp1079:
	.loc	36 326 11
	movq	-184(%rbp), %rdx
	xorl	%eax, %eax
	movl	$1, %ecx
	cmpq	$0, %rdx
	cmoveq	%rcx, %rax
	.loc	36 326 5 is_stmt 0
	cmpq	$0, %rax
	jne	LBB116_2
	.loc	36 327 12 is_stmt 1
	movq	-184(%rbp), %rax
	movq	-176(%rbp), %rcx
	movq	%rax, -88(%rbp)
	movq	%rcx, -80(%rbp)
Ltmp1080:
	.loc	36 327 20 is_stmt 0
	movq	%rax, -72(%rbp)
	movq	%rcx, -64(%rbp)
Ltmp1081:
	.loc	27 548 9 is_stmt 1
	movq	%rax, -56(%rbp)
	movq	%rcx, -48(%rbp)
Ltmp1082:
	.loc	27 529 41
	movq	%rax, -40(%rbp)
	movq	%rcx, -32(%rbp)
Ltmp1083:
	.loc	27 326 9
	movq	%rax, -24(%rbp)
	movq	%rcx, -16(%rbp)
Ltmp1084:
	.loc	16 2037 9
	movq	%rax, -8(%rbp)
Ltmp1085:
	.loc	27 201 13
	movq	%rax, -168(%rbp)
Ltmp1086:
	.loc	27 326 9
	movq	-168(%rbp), %rax
Ltmp1087:
	.loc	36 330 2
	addq	$208, %rsp
	popq	%rbp
	retq
LBB116_2:
Ltmp1088:
	.loc	36 328 38
	movq	-200(%rbp), %rdi
	movq	-192(%rbp), %rsi
	.loc	36 328 19 is_stmt 0
	callq	__ZN5alloc5alloc18handle_alloc_error17hb5f6ff255f23ea4dE
Ltmp1089:
Lfunc_end116:
	.cfi_endproc

	.p2align	4, 0x90
__ZN5alloc5alloc6Global10alloc_impl17h2dfd8b04a4ae4efbE:
Lfunc_begin117:
	.loc	36 172 0 is_stmt 1
	.cfi_startproc
	pushq	%rbp
	.cfi_def_cfa_offset 16
	.cfi_offset %rbp, -16
	movq	%rsp, %rbp
	.cfi_def_cfa_register %rbp
	subq	$352, %rsp
	movb	%cl, %al
	movb	%al, -345(%rbp)
	movq	%rsi, -336(%rbp)
	movq	%rdx, -328(%rbp)
	movq	%rdi, -208(%rbp)
	andb	$1, %al
	movb	%al, -193(%rbp)
Ltmp1090:
	.loc	36 173 15 prologue_end
	leaq	-336(%rbp), %rax
	movq	%rax, -144(%rbp)
Ltmp1091:
	.loc	22 129 9
	movq	-336(%rbp), %rax
	movq	%rax, -344(%rbp)
Ltmp1092:
	.loc	36 173 9
	cmpq	$0, %rax
	jne	LBB117_2
	.loc	36 174 51
	leaq	-336(%rbp), %rax
	movq	%rax, -48(%rbp)
Ltmp1093:
	.loc	22 216 71
	leaq	-336(%rbp), %rax
	movq	%rax, -40(%rbp)
Ltmp1094:
	.loc	22 140 9
	movq	-328(%rbp), %rax
	movq	%rax, -32(%rbp)
Ltmp1095:
	.loc	23 97 9
	movq	%rax, -232(%rbp)
	movq	-232(%rbp), %rax
	movq	%rax, -24(%rbp)
Ltmp1096:
	.loc	15 599 14
	movq	%rax, -16(%rbp)
	movq	-16(%rbp), %rax
	movq	%rax, -8(%rbp)
Ltmp1097:
	.loc	27 201 13
	movq	%rax, -304(%rbp)
Ltmp1098:
	.loc	36 174 21
	movq	-304(%rbp), %rdi
	xorl	%eax, %eax
	movl	%eax, %esi
	callq	__ZN4core3ptr8non_null26NonNull$LT$$u5b$T$u5d$$GT$20slice_from_raw_parts17ha7a2a17f681cd444E
	.loc	36 174 18 is_stmt 0
	movq	%rax, -320(%rbp)
	movq	%rdx, -312(%rbp)
	.loc	36 174 72
	jmp	LBB117_15
LBB117_2:
	.loc	36 0 72
	movb	-345(%rbp), %al
	movq	-344(%rbp), %rcx
	.loc	36 176 13 is_stmt 1
	movq	%rcx, -136(%rbp)
Ltmp1099:
	.loc	36 177 34
	testb	$1, %al
	jne	LBB117_4
	.loc	36 177 79 is_stmt 0
	movq	-336(%rbp), %rcx
	movq	-328(%rbp), %rax
	movq	%rcx, -272(%rbp)
	movq	%rax, -264(%rbp)
Ltmp1100:
	.loc	36 95 27 is_stmt 1
	leaq	-272(%rbp), %rax
	movq	%rax, -104(%rbp)
Ltmp1101:
	.loc	22 129 9
	movq	-272(%rbp), %rdi
Ltmp1102:
	.loc	36 95 42
	leaq	-272(%rbp), %rax
	movq	%rax, -96(%rbp)
Ltmp1103:
	.loc	22 140 9
	movq	-264(%rbp), %rax
	movq	%rax, -88(%rbp)
Ltmp1104:
	.loc	23 97 9
	movq	%rax, -216(%rbp)
	movq	-216(%rbp), %rsi
Ltmp1105:
	.loc	36 95 14
	callq	___rust_alloc
	movq	%rax, -296(%rbp)
Ltmp1106:
	.loc	36 177 31
	jmp	LBB117_5
LBB117_4:
	.loc	36 177 56 is_stmt 0
	movq	-336(%rbp), %rcx
	movq	-328(%rbp), %rax
	movq	%rcx, -288(%rbp)
	movq	%rax, -280(%rbp)
Ltmp1107:
	.loc	36 166 34 is_stmt 1
	leaq	-288(%rbp), %rax
	movq	%rax, -128(%rbp)
Ltmp1108:
	.loc	22 129 9
	movq	-288(%rbp), %rdi
Ltmp1109:
	.loc	36 166 49
	leaq	-288(%rbp), %rax
	movq	%rax, -120(%rbp)
Ltmp1110:
	.loc	22 140 9
	movq	-280(%rbp), %rax
	movq	%rax, -112(%rbp)
Ltmp1111:
	.loc	23 97 9
	movq	%rax, -224(%rbp)
	movq	-224(%rbp), %rsi
Ltmp1112:
	.loc	36 166 14
	callq	___rust_alloc_zeroed
	movq	%rax, -296(%rbp)
Ltmp1113:
LBB117_5:
	.loc	36 178 40
	movq	-296(%rbp), %rdi
	.loc	36 178 27 is_stmt 0
	callq	__ZN4core3ptr8non_null16NonNull$LT$T$GT$3new17hbe07f8c52c575838E
	movq	%rax, -240(%rbp)
Ltmp1114:
	.loc	28 1096 15 is_stmt 1
	movq	-240(%rbp), %rdx
	movl	$1, %eax
	xorl	%ecx, %ecx
	cmpq	$0, %rdx
	cmoveq	%rcx, %rax
	.loc	28 1096 9 is_stmt 0
	cmpq	$0, %rax
	jne	LBB117_7
	.loc	28 1098 21 is_stmt 1
	movq	$0, -248(%rbp)
	.loc	28 1098 28 is_stmt 0
	jmp	LBB117_8
LBB117_7:
	.loc	28 1097 18 is_stmt 1
	movq	-240(%rbp), %rax
	movq	%rax, -80(%rbp)
Ltmp1115:
	.loc	28 1097 24 is_stmt 0
	movq	%rax, -248(%rbp)
Ltmp1116:
LBB117_8:
	.loc	8 2091 15 is_stmt 1
	movq	-248(%rbp), %rdx
	xorl	%eax, %eax
	movl	$1, %ecx
	cmpq	$0, %rdx
	cmoveq	%rcx, %rax
	.loc	8 2091 9 is_stmt 0
	cmpq	$0, %rax
	jne	LBB117_10
	.loc	8 2092 16 is_stmt 1
	movq	-248(%rbp), %rax
	movq	%rax, -72(%rbp)
Ltmp1117:
	.loc	8 2092 22 is_stmt 0
	movq	%rax, -256(%rbp)
Ltmp1118:
	.loc	8 2092 45
	jmp	LBB117_11
LBB117_10:
Ltmp1119:
	.loc	8 2093 23 is_stmt 1
	movq	$0, -256(%rbp)
Ltmp1120:
LBB117_11:
	.loc	36 178 27
	movq	-256(%rbp), %rdx
	xorl	%eax, %eax
	movl	$1, %ecx
	cmpq	$0, %rdx
	cmoveq	%rcx, %rax
	cmpq	$0, %rax
	jne	LBB117_13
	.loc	36 0 27 is_stmt 0
	movq	-344(%rbp), %rsi
	.loc	36 178 27
	movq	-256(%rbp), %rdi
	movq	%rdi, -64(%rbp)
Ltmp1121:
	.loc	36 178 27
	movq	%rdi, -56(%rbp)
Ltmp1122:
	.loc	36 179 20 is_stmt 1
	callq	__ZN4core3ptr8non_null26NonNull$LT$$u5b$T$u5d$$GT$20slice_from_raw_parts17ha7a2a17f681cd444E
	.loc	36 179 17 is_stmt 0
	movq	%rax, -320(%rbp)
	movq	%rdx, -312(%rbp)
Ltmp1123:
	.loc	36 180 13 is_stmt 1
	jmp	LBB117_15
LBB117_13:
Ltmp1124:
	.loc	8 2107 23
	movq	$0, -320(%rbp)
Ltmp1125:
LBB117_14:
	.loc	36 182 6
	movq	-320(%rbp), %rax
	movq	-312(%rbp), %rdx
	addq	$352, %rsp
	popq	%rbp
	retq
LBB117_15:
	jmp	LBB117_14
Ltmp1126:
Lfunc_end117:
	.cfi_endproc

	.globl	__ZN5alloc5alloc8box_free17h51c12af97cb5cf27E
	.p2align	4, 0x90
__ZN5alloc5alloc8box_free17h51c12af97cb5cf27E:
Lfunc_begin118:
	.loc	36 340 0
	.cfi_startproc
	.cfi_personality 155, _rust_eh_personality
	.cfi_lsda 16, Lexception42
	pushq	%rbp
	.cfi_def_cfa_offset 16
	.cfi_offset %rbp, -16
	movq	%rsp, %rbp
	.cfi_def_cfa_register %rbp
	subq	$256, %rsp
	movq	%rdi, -240(%rbp)
Ltmp1130:
	.loc	36 345 32 prologue_end
	leaq	-240(%rbp), %rax
	movq	%rax, -184(%rbp)
Ltmp1131:
	.loc	34 117 18
	leaq	-240(%rbp), %rax
	movq	%rax, -176(%rbp)
Ltmp1132:
	.loc	27 376 20
	movq	-240(%rbp), %rax
	movq	%rax, -168(%rbp)
Ltmp1133:
	.loc	36 345 20
	movq	$8, -160(%rbp)
	movq	-160(%rbp), %rcx
	movq	%rcx, -256(%rbp)
	movq	%rcx, -152(%rbp)
Ltmp1134:
	.loc	36 346 38
	leaq	-240(%rbp), %rax
	movq	%rax, -144(%rbp)
Ltmp1135:
	.loc	34 117 18
	leaq	-240(%rbp), %rax
	movq	%rax, -136(%rbp)
Ltmp1136:
	.loc	27 376 20
	movq	-240(%rbp), %rax
	movq	%rax, -128(%rbp)
Ltmp1137:
	.loc	36 346 21
	movq	$8, -120(%rbp)
	movq	-120(%rbp), %rax
	movq	%rax, -112(%rbp)
Ltmp1138:
	.loc	36 347 56
	movq	%rcx, -104(%rbp)
	.loc	36 347 62 is_stmt 0
	movq	%rax, -96(%rbp)
Ltmp1139:
	.loc	22 120 65 is_stmt 1
	movq	%rax, -88(%rbp)
Ltmp1140:
	.loc	23 89 18
	movq	%rax, -80(%rbp)
	movq	-80(%rbp), %rax
	movq	%rax, -248(%rbp)
Ltmp1141:
	.loc	23 0 18 is_stmt 0
	movq	-248(%rbp), %rax
	movq	-256(%rbp), %rcx
	.loc	22 120 18 is_stmt 1
	movq	%rcx, -224(%rbp)
	movq	%rax, -216(%rbp)
Ltmp1142:
	.loc	36 348 37
	movq	-240(%rbp), %rax
	movq	%rax, -72(%rbp)
Ltmp1143:
	.loc	34 137 22
	movq	%rax, -64(%rbp)
Ltmp1144:
	.loc	27 450 41
	movq	%rax, -56(%rbp)
	movq	%rax, -48(%rbp)
Ltmp1145:
	.loc	27 201 13
	movq	%rax, -192(%rbp)
Ltmp1146:
	.loc	34 191 18
	movq	-192(%rbp), %rax
	.loc	34 191 9 is_stmt 0
	movq	%rax, -200(%rbp)
Ltmp1147:
	.loc	27 768 41 is_stmt 1
	movq	-200(%rbp), %rax
	movq	%rax, -40(%rbp)
Ltmp1148:
	.loc	34 104 9
	movq	%rax, -32(%rbp)
Ltmp1149:
	.loc	27 326 9
	movq	%rax, -24(%rbp)
Ltmp1150:
	.loc	27 201 13
	movq	%rax, -208(%rbp)
Ltmp1151:
	.loc	36 348 50
	movq	-224(%rbp), %rdx
	movq	-216(%rbp), %rcx
	.loc	36 348 9 is_stmt 0
	movq	-208(%rbp), %rsi
Ltmp1127:
	leaq	-232(%rbp), %rdi
	callq	__ZN63_$LT$alloc..alloc..Global$u20$as$u20$core..alloc..Allocator$GT$10deallocate17hc2c3b6716228870fE
Ltmp1128:
	jmp	LBB118_4
Ltmp1152:
LBB118_2:
	.loc	36 340 1 is_stmt 1
	movq	-16(%rbp), %rdi
	callq	__Unwind_Resume
LBB118_3:
Ltmp1129:
	.loc	36 0 1 is_stmt 0
	movq	%rax, %rcx
	movl	%edx, %eax
	movq	%rcx, -16(%rbp)
	movl	%eax, -8(%rbp)
	jmp	LBB118_2
LBB118_4:
	.loc	36 350 2 is_stmt 1
	addq	$256, %rsp
	popq	%rbp
	retq
Ltmp1153:
Lfunc_end118:
	.cfi_endproc
	.section	__TEXT,__gcc_except_tab
	.p2align	2
GCC_except_table118:
Lexception42:
	.byte	255
	.byte	255
	.byte	1
	.uleb128 Lcst_end42-Lcst_begin42
Lcst_begin42:
	.uleb128 Ltmp1127-Lfunc_begin118
	.uleb128 Ltmp1128-Ltmp1127
	.uleb128 Ltmp1129-Lfunc_begin118
	.byte	0
	.uleb128 Ltmp1128-Lfunc_begin118
	.uleb128 Lfunc_end118-Ltmp1128
	.byte	0
	.byte	0
Lcst_end42:
	.p2align	2

	.section	__TEXT,__text,regular,pure_instructions
	.globl	__ZN5alloc5alloc8box_free17h67dcf1728c323e05E
	.p2align	4, 0x90
__ZN5alloc5alloc8box_free17h67dcf1728c323e05E:
Lfunc_begin119:
	.loc	36 340 0
	.cfi_startproc
	.cfi_personality 155, _rust_eh_personality
	.cfi_lsda 16, Lexception43
	pushq	%rbp
	.cfi_def_cfa_offset 16
	.cfi_offset %rbp, -16
	movq	%rsp, %rbp
	.cfi_def_cfa_register %rbp
	subq	$304, %rsp
	movq	%rdi, -288(%rbp)
	movq	%rsi, -280(%rbp)
Ltmp1157:
	.loc	36 345 32 prologue_end
	leaq	-288(%rbp), %rax
	movq	%rax, -224(%rbp)
Ltmp1158:
	.loc	34 117 18
	leaq	-288(%rbp), %rax
	movq	%rax, -216(%rbp)
Ltmp1159:
	.loc	27 376 20
	movq	-288(%rbp), %rcx
	movq	-280(%rbp), %rax
	movq	%rcx, -208(%rbp)
	movq	%rax, -200(%rbp)
Ltmp1160:
	.loc	36 345 20
	shlq	$3, %rax
	movq	%rax, -192(%rbp)
	movq	-192(%rbp), %rcx
	movq	%rcx, -304(%rbp)
	movq	%rcx, -184(%rbp)
Ltmp1161:
	.loc	36 346 38
	leaq	-288(%rbp), %rax
	movq	%rax, -176(%rbp)
Ltmp1162:
	.loc	34 117 18
	leaq	-288(%rbp), %rax
	movq	%rax, -168(%rbp)
Ltmp1163:
	.loc	27 376 20
	movq	-288(%rbp), %rdx
	movq	-280(%rbp), %rax
	movq	%rdx, -160(%rbp)
	movq	%rax, -152(%rbp)
Ltmp1164:
	.loc	36 346 21
	movq	$8, -144(%rbp)
	movq	-144(%rbp), %rax
	movq	%rax, -136(%rbp)
Ltmp1165:
	.loc	36 347 56
	movq	%rcx, -128(%rbp)
	.loc	36 347 62 is_stmt 0
	movq	%rax, -120(%rbp)
Ltmp1166:
	.loc	22 120 65 is_stmt 1
	movq	%rax, -112(%rbp)
Ltmp1167:
	.loc	23 89 18
	movq	%rax, -104(%rbp)
	movq	-104(%rbp), %rax
	movq	%rax, -296(%rbp)
Ltmp1168:
	.loc	23 0 18 is_stmt 0
	movq	-296(%rbp), %rax
	movq	-304(%rbp), %rcx
	.loc	22 120 18 is_stmt 1
	movq	%rcx, -264(%rbp)
	movq	%rax, -256(%rbp)
Ltmp1169:
	.loc	36 348 37
	movq	-288(%rbp), %rax
	movq	-280(%rbp), %rcx
	movq	%rax, -96(%rbp)
	movq	%rcx, -88(%rbp)
Ltmp1170:
	.loc	34 137 22
	movq	%rax, -80(%rbp)
	movq	%rcx, -72(%rbp)
Ltmp1171:
	.loc	27 450 41
	movq	%rax, -64(%rbp)
	movq	%rcx, -56(%rbp)
	movq	%rax, -48(%rbp)
Ltmp1172:
	.loc	27 201 13
	movq	%rax, -232(%rbp)
Ltmp1173:
	.loc	34 191 18
	movq	-232(%rbp), %rax
	.loc	34 191 9 is_stmt 0
	movq	%rax, -240(%rbp)
Ltmp1174:
	.loc	27 768 41 is_stmt 1
	movq	-240(%rbp), %rax
	movq	%rax, -40(%rbp)
Ltmp1175:
	.loc	34 104 9
	movq	%rax, -32(%rbp)
Ltmp1176:
	.loc	27 326 9
	movq	%rax, -24(%rbp)
Ltmp1177:
	.loc	27 201 13
	movq	%rax, -248(%rbp)
Ltmp1178:
	.loc	36 348 50
	movq	-264(%rbp), %rdx
	movq	-256(%rbp), %rcx
	.loc	36 348 9 is_stmt 0
	movq	-248(%rbp), %rsi
Ltmp1154:
	leaq	-272(%rbp), %rdi
	callq	__ZN63_$LT$alloc..alloc..Global$u20$as$u20$core..alloc..Allocator$GT$10deallocate17hc2c3b6716228870fE
Ltmp1155:
	jmp	LBB119_4
Ltmp1179:
LBB119_2:
	.loc	36 340 1 is_stmt 1
	movq	-16(%rbp), %rdi
	callq	__Unwind_Resume
LBB119_3:
Ltmp1156:
	.loc	36 0 1 is_stmt 0
	movq	%rax, %rcx
	movl	%edx, %eax
	movq	%rcx, -16(%rbp)
	movl	%eax, -8(%rbp)
	jmp	LBB119_2
LBB119_4:
	.loc	36 350 2 is_stmt 1
	addq	$304, %rsp
	popq	%rbp
	retq
Ltmp1180:
Lfunc_end119:
	.cfi_endproc
	.section	__TEXT,__gcc_except_tab
	.p2align	2
GCC_except_table119:
Lexception43:
	.byte	255
	.byte	255
	.byte	1
	.uleb128 Lcst_end43-Lcst_begin43
Lcst_begin43:
	.uleb128 Ltmp1154-Lfunc_begin119
	.uleb128 Ltmp1155-Ltmp1154
	.uleb128 Ltmp1156-Lfunc_begin119
	.byte	0
	.uleb128 Ltmp1155-Lfunc_begin119
	.uleb128 Lfunc_end119-Ltmp1155
	.byte	0
	.byte	0
Lcst_end43:
	.p2align	2

	.section	__TEXT,__text,regular,pure_instructions
	.globl	__ZN5alloc5alloc8box_free17hc1259dc8381b972eE
	.p2align	4, 0x90
__ZN5alloc5alloc8box_free17hc1259dc8381b972eE:
Lfunc_begin120:
	.loc	36 340 0
	.cfi_startproc
	.cfi_personality 155, _rust_eh_personality
	.cfi_lsda 16, Lexception44
	pushq	%rbp
	.cfi_def_cfa_offset 16
	.cfi_offset %rbp, -16
	movq	%rsp, %rbp
	.cfi_def_cfa_register %rbp
	subq	$304, %rsp
	movq	%rdi, -288(%rbp)
	movq	%rsi, -280(%rbp)
Ltmp1184:
	.loc	36 345 32 prologue_end
	leaq	-288(%rbp), %rax
	movq	%rax, -224(%rbp)
Ltmp1185:
	.loc	34 117 18
	leaq	-288(%rbp), %rax
	movq	%rax, -216(%rbp)
Ltmp1186:
	.loc	27 376 20
	movq	-288(%rbp), %rcx
	movq	-280(%rbp), %rax
	movq	%rcx, -208(%rbp)
	movq	%rax, -200(%rbp)
Ltmp1187:
	.loc	36 345 20
	shlq	$3, %rax
	movq	%rax, -192(%rbp)
	movq	-192(%rbp), %rcx
	movq	%rcx, -304(%rbp)
	movq	%rcx, -184(%rbp)
Ltmp1188:
	.loc	36 346 38
	leaq	-288(%rbp), %rax
	movq	%rax, -176(%rbp)
Ltmp1189:
	.loc	34 117 18
	leaq	-288(%rbp), %rax
	movq	%rax, -168(%rbp)
Ltmp1190:
	.loc	27 376 20
	movq	-288(%rbp), %rdx
	movq	-280(%rbp), %rax
	movq	%rdx, -160(%rbp)
	movq	%rax, -152(%rbp)
Ltmp1191:
	.loc	36 346 21
	movq	$8, -144(%rbp)
	movq	-144(%rbp), %rax
	movq	%rax, -136(%rbp)
Ltmp1192:
	.loc	36 347 56
	movq	%rcx, -128(%rbp)
	.loc	36 347 62 is_stmt 0
	movq	%rax, -120(%rbp)
Ltmp1193:
	.loc	22 120 65 is_stmt 1
	movq	%rax, -112(%rbp)
Ltmp1194:
	.loc	23 89 18
	movq	%rax, -104(%rbp)
	movq	-104(%rbp), %rax
	movq	%rax, -296(%rbp)
Ltmp1195:
	.loc	23 0 18 is_stmt 0
	movq	-296(%rbp), %rax
	movq	-304(%rbp), %rcx
	.loc	22 120 18 is_stmt 1
	movq	%rcx, -264(%rbp)
	movq	%rax, -256(%rbp)
Ltmp1196:
	.loc	36 348 37
	movq	-288(%rbp), %rax
	movq	-280(%rbp), %rcx
	movq	%rax, -96(%rbp)
	movq	%rcx, -88(%rbp)
Ltmp1197:
	.loc	34 137 22
	movq	%rax, -80(%rbp)
	movq	%rcx, -72(%rbp)
Ltmp1198:
	.loc	27 450 41
	movq	%rax, -64(%rbp)
	movq	%rcx, -56(%rbp)
	movq	%rax, -48(%rbp)
Ltmp1199:
	.loc	27 201 13
	movq	%rax, -232(%rbp)
Ltmp1200:
	.loc	34 191 18
	movq	-232(%rbp), %rax
	.loc	34 191 9 is_stmt 0
	movq	%rax, -240(%rbp)
Ltmp1201:
	.loc	27 768 41 is_stmt 1
	movq	-240(%rbp), %rax
	movq	%rax, -40(%rbp)
Ltmp1202:
	.loc	34 104 9
	movq	%rax, -32(%rbp)
Ltmp1203:
	.loc	27 326 9
	movq	%rax, -24(%rbp)
Ltmp1204:
	.loc	27 201 13
	movq	%rax, -248(%rbp)
Ltmp1205:
	.loc	36 348 50
	movq	-264(%rbp), %rdx
	movq	-256(%rbp), %rcx
	.loc	36 348 9 is_stmt 0
	movq	-248(%rbp), %rsi
Ltmp1181:
	leaq	-272(%rbp), %rdi
	callq	__ZN63_$LT$alloc..alloc..Global$u20$as$u20$core..alloc..Allocator$GT$10deallocate17hc2c3b6716228870fE
Ltmp1182:
	jmp	LBB120_4
Ltmp1206:
LBB120_2:
	.loc	36 340 1 is_stmt 1
	movq	-16(%rbp), %rdi
	callq	__Unwind_Resume
LBB120_3:
Ltmp1183:
	.loc	36 0 1 is_stmt 0
	movq	%rax, %rcx
	movl	%edx, %eax
	movq	%rcx, -16(%rbp)
	movl	%eax, -8(%rbp)
	jmp	LBB120_2
LBB120_4:
	.loc	36 350 2 is_stmt 1
	addq	$304, %rsp
	popq	%rbp
	retq
Ltmp1207:
Lfunc_end120:
	.cfi_endproc
	.section	__TEXT,__gcc_except_tab
	.p2align	2
GCC_except_table120:
Lexception44:
	.byte	255
	.byte	255
	.byte	1
	.uleb128 Lcst_end44-Lcst_begin44
Lcst_begin44:
	.uleb128 Ltmp1181-Lfunc_begin120
	.uleb128 Ltmp1182-Ltmp1181
	.uleb128 Ltmp1183-Lfunc_begin120
	.byte	0
	.uleb128 Ltmp1182-Lfunc_begin120
	.uleb128 Lfunc_end120-Ltmp1182
	.byte	0
	.byte	0
Lcst_end44:
	.p2align	2

	.section	__TEXT,__text,regular,pure_instructions
	.globl	__ZN5alloc5boxed16Box$LT$T$C$A$GT$11into_unique17h138185e2d791a321E
	.p2align	4, 0x90
__ZN5alloc5boxed16Box$LT$T$C$A$GT$11into_unique17h138185e2d791a321E:
Lfunc_begin121:
	.file	37 "/rustc/2c8cc343237b8f7d5a3c3703e3a87f2eb2c54a74/library/alloc/src" "boxed.rs"
	.loc	37 1124 0
	.cfi_startproc
	.cfi_personality 155, _rust_eh_personality
	.cfi_lsda 16, Lexception45
	pushq	%rbp
	.cfi_def_cfa_offset 16
	.cfi_offset %rbp, -16
	movq	%rsp, %rbp
	.cfi_def_cfa_register %rbp
	subq	$192, %rsp
	movq	%rdi, -168(%rbp)
	movq	%rsi, -160(%rbp)
Ltmp1214:
	.loc	37 1130 13 prologue_end
	movb	$1, -113(%rbp)
	.loc	37 1130 40 is_stmt 0
	leaq	-168(%rbp), %rax
	movq	%rax, -64(%rbp)
Ltmp1215:
	.loc	15 1157 34 is_stmt 1
	leaq	-112(%rbp), %rax
	movq	%rax, -56(%rbp)
Ltmp1216:
	.loc	37 1131 33
	movb	$0, -113(%rbp)
	movq	-168(%rbp), %rdi
	movq	-160(%rbp), %rsi
Ltmp1208:
	.loc	37 1131 23 is_stmt 0
	callq	__ZN5alloc5boxed16Box$LT$T$C$A$GT$4leak17h02e16e8b60a05cafE
Ltmp1209:
	movq	%rdx, -184(%rbp)
	movq	%rax, -176(%rbp)
	jmp	LBB121_4
Ltmp1217:
LBB121_2:
	.loc	37 1132 5 is_stmt 1
	jmp	LBB121_5
LBB121_3:
Ltmp1210:
	.loc	37 0 5 is_stmt 0
	movq	%rax, %rcx
	movl	%edx, %eax
	movq	%rcx, -48(%rbp)
	movl	%eax, -40(%rbp)
	jmp	LBB121_2
LBB121_4:
	movq	-184(%rbp), %rax
	movq	-176(%rbp), %rcx
Ltmp1218:
	.loc	37 1131 23 is_stmt 1
	movq	%rcx, -32(%rbp)
	movq	%rax, -24(%rbp)
Ltmp1219:
	.loc	34 180 34
	movq	%rcx, -16(%rbp)
	movq	%rax, -8(%rbp)
Ltmp1220:
	.loc	27 781 18
	movq	%rcx, -104(%rbp)
	movq	%rax, -96(%rbp)
Ltmp1221:
	.loc	34 191 18
	movq	-104(%rbp), %rcx
	movq	-96(%rbp), %rax
	.loc	34 191 9 is_stmt 0
	movq	%rcx, -136(%rbp)
	movq	%rax, -128(%rbp)
Ltmp1222:
	.loc	37 1131 9 is_stmt 1
	movq	-136(%rbp), %rcx
	movq	-128(%rbp), %rax
	movq	%rcx, -152(%rbp)
	movq	%rax, -144(%rbp)
Ltmp1223:
	.loc	37 1132 6
	movq	-152(%rbp), %rax
	movq	-144(%rbp), %rdx
	addq	$192, %rsp
	popq	%rbp
	retq
LBB121_5:
	.loc	37 1132 5 is_stmt 0
	testb	$1, -113(%rbp)
	jne	LBB121_7
LBB121_6:
	.loc	37 1124 5 is_stmt 1
	movq	-48(%rbp), %rdi
	callq	__Unwind_Resume
LBB121_7:
Ltmp1211:
	.loc	37 0 5 is_stmt 0
	leaq	-168(%rbp), %rdi
	.loc	37 1132 5 is_stmt 1
	callq	__ZN4core3ptr112drop_in_place$LT$alloc..boxed..Box$LT$$u5b$objc_id..id..Id$LT$objc_foundation..string..NSString$GT$$u5d$$GT$$GT$17h6511309d8c5281e9E
Ltmp1212:
	jmp	LBB121_6
LBB121_8:
Ltmp1213:
	.loc	37 1124 5
	callq	__ZN4core9panicking19panic_cannot_unwind17h1fbca7e1d7f56ae1E
Ltmp1224:
Lfunc_end121:
	.cfi_endproc
	.section	__TEXT,__gcc_except_tab
	.p2align	2
GCC_except_table121:
Lexception45:
	.byte	255
	.byte	255
	.byte	1
	.uleb128 Lcst_end45-Lcst_begin45
Lcst_begin45:
	.uleb128 Ltmp1208-Lfunc_begin121
	.uleb128 Ltmp1209-Ltmp1208
	.uleb128 Ltmp1210-Lfunc_begin121
	.byte	0
	.uleb128 Ltmp1209-Lfunc_begin121
	.uleb128 Ltmp1211-Ltmp1209
	.byte	0
	.byte	0
	.uleb128 Ltmp1211-Lfunc_begin121
	.uleb128 Ltmp1212-Ltmp1211
	.uleb128 Ltmp1213-Lfunc_begin121
	.byte	0
Lcst_end45:
	.p2align	2

	.section	__TEXT,__text,regular,pure_instructions
	.globl	__ZN5alloc5boxed16Box$LT$T$C$A$GT$11into_unique17h4b41425a6ea98760E
	.p2align	4, 0x90
__ZN5alloc5boxed16Box$LT$T$C$A$GT$11into_unique17h4b41425a6ea98760E:
Lfunc_begin122:
	.loc	37 1124 0
	.cfi_startproc
	.cfi_personality 155, _rust_eh_personality
	.cfi_lsda 16, Lexception46
	pushq	%rbp
	.cfi_def_cfa_offset 16
	.cfi_offset %rbp, -16
	movq	%rsp, %rbp
	.cfi_def_cfa_register %rbp
	subq	$192, %rsp
	movq	%rdi, -168(%rbp)
	movq	%rsi, -160(%rbp)
Ltmp1231:
	.loc	37 1130 13 prologue_end
	movb	$1, -113(%rbp)
	.loc	37 1130 40 is_stmt 0
	leaq	-168(%rbp), %rax
	movq	%rax, -64(%rbp)
Ltmp1232:
	.loc	15 1157 34 is_stmt 1
	leaq	-112(%rbp), %rax
	movq	%rax, -56(%rbp)
Ltmp1233:
	.loc	37 1131 33
	movb	$0, -113(%rbp)
	movq	-168(%rbp), %rdi
	movq	-160(%rbp), %rsi
Ltmp1225:
	.loc	37 1131 23 is_stmt 0
	callq	__ZN5alloc5boxed16Box$LT$T$C$A$GT$4leak17ha0fc3e97f04c91e4E
Ltmp1226:
	movq	%rdx, -184(%rbp)
	movq	%rax, -176(%rbp)
	jmp	LBB122_4
Ltmp1234:
LBB122_2:
	.loc	37 1132 5 is_stmt 1
	jmp	LBB122_5
LBB122_3:
Ltmp1227:
	.loc	37 0 5 is_stmt 0
	movq	%rax, %rcx
	movl	%edx, %eax
	movq	%rcx, -48(%rbp)
	movl	%eax, -40(%rbp)
	jmp	LBB122_2
LBB122_4:
	movq	-184(%rbp), %rax
	movq	-176(%rbp), %rcx
Ltmp1235:
	.loc	37 1131 23 is_stmt 1
	movq	%rcx, -32(%rbp)
	movq	%rax, -24(%rbp)
Ltmp1236:
	.loc	34 180 34
	movq	%rcx, -16(%rbp)
	movq	%rax, -8(%rbp)
Ltmp1237:
	.loc	27 781 18
	movq	%rcx, -104(%rbp)
	movq	%rax, -96(%rbp)
Ltmp1238:
	.loc	34 191 18
	movq	-104(%rbp), %rcx
	movq	-96(%rbp), %rax
	.loc	34 191 9 is_stmt 0
	movq	%rcx, -136(%rbp)
	movq	%rax, -128(%rbp)
Ltmp1239:
	.loc	37 1131 9 is_stmt 1
	movq	-136(%rbp), %rcx
	movq	-128(%rbp), %rax
	movq	%rcx, -152(%rbp)
	movq	%rax, -144(%rbp)
Ltmp1240:
	.loc	37 1132 6
	movq	-152(%rbp), %rax
	movq	-144(%rbp), %rdx
	addq	$192, %rsp
	popq	%rbp
	retq
LBB122_5:
	.loc	37 1132 5 is_stmt 0
	testb	$1, -113(%rbp)
	jne	LBB122_7
LBB122_6:
	.loc	37 1124 5 is_stmt 1
	movq	-48(%rbp), %rdi
	callq	__Unwind_Resume
LBB122_7:
Ltmp1228:
	.loc	37 0 5 is_stmt 0
	leaq	-168(%rbp), %rdi
	.loc	37 1132 5 is_stmt 1
	callq	__ZN4core3ptr112drop_in_place$LT$alloc..boxed..Box$LT$$u5b$objc_id..id..Id$LT$objc_foundation..object..NSObject$GT$$u5d$$GT$$GT$17h69cdd995a5771a1eE
Ltmp1229:
	jmp	LBB122_6
LBB122_8:
Ltmp1230:
	.loc	37 1124 5
	callq	__ZN4core9panicking19panic_cannot_unwind17h1fbca7e1d7f56ae1E
Ltmp1241:
Lfunc_end122:
	.cfi_endproc
	.section	__TEXT,__gcc_except_tab
	.p2align	2
GCC_except_table122:
Lexception46:
	.byte	255
	.byte	255
	.byte	1
	.uleb128 Lcst_end46-Lcst_begin46
Lcst_begin46:
	.uleb128 Ltmp1225-Lfunc_begin122
	.uleb128 Ltmp1226-Ltmp1225
	.uleb128 Ltmp1227-Lfunc_begin122
	.byte	0
	.uleb128 Ltmp1226-Lfunc_begin122
	.uleb128 Ltmp1228-Ltmp1226
	.byte	0
	.byte	0
	.uleb128 Ltmp1228-Lfunc_begin122
	.uleb128 Ltmp1229-Ltmp1228
	.uleb128 Ltmp1230-Lfunc_begin122
	.byte	0
Lcst_end46:
	.p2align	2

	.section	__TEXT,__text,regular,pure_instructions
	.globl	__ZN5alloc5boxed16Box$LT$T$C$A$GT$23into_raw_with_allocator17h60ddd3799efe43f2E
	.p2align	4, 0x90
__ZN5alloc5boxed16Box$LT$T$C$A$GT$23into_raw_with_allocator17h60ddd3799efe43f2E:
Lfunc_begin123:
	.loc	37 1111 0
	.cfi_startproc
	pushq	%rbp
	.cfi_def_cfa_offset 16
	.cfi_offset %rbp, -16
	movq	%rsp, %rbp
	.cfi_def_cfa_register %rbp
	subq	$96, %rsp
	movq	%rdi, -72(%rbp)
	movq	%rsi, -64(%rbp)
Ltmp1242:
	.loc	37 1112 31 prologue_end
	callq	__ZN5alloc5boxed16Box$LT$T$C$A$GT$11into_unique17h4b41425a6ea98760E
	.loc	37 1112 14 is_stmt 0
	movq	%rax, -48(%rbp)
	movq	%rdx, -40(%rbp)
Ltmp1243:
	.loc	37 1113 10 is_stmt 1
	movq	%rax, -32(%rbp)
	movq	%rdx, -24(%rbp)
Ltmp1244:
	.loc	34 104 9
	movq	%rax, -16(%rbp)
	movq	%rdx, -8(%rbp)
Ltmp1245:
	.loc	37 1113 9
	movq	%rax, -88(%rbp)
	movq	%rdx, -80(%rbp)
Ltmp1246:
	.loc	37 1114 6
	movq	-88(%rbp), %rax
	movq	-80(%rbp), %rdx
	addq	$96, %rsp
	popq	%rbp
	retq
Ltmp1247:
Lfunc_end123:
	.cfi_endproc

	.globl	__ZN5alloc5boxed16Box$LT$T$C$A$GT$23into_raw_with_allocator17h67132efb43becea0E
	.p2align	4, 0x90
__ZN5alloc5boxed16Box$LT$T$C$A$GT$23into_raw_with_allocator17h67132efb43becea0E:
Lfunc_begin124:
	.loc	37 1111 0
	.cfi_startproc
	pushq	%rbp
	.cfi_def_cfa_offset 16
	.cfi_offset %rbp, -16
	movq	%rsp, %rbp
	.cfi_def_cfa_register %rbp
	subq	$96, %rsp
	movq	%rdi, -72(%rbp)
	movq	%rsi, -64(%rbp)
Ltmp1248:
	.loc	37 1112 31 prologue_end
	callq	__ZN5alloc5boxed16Box$LT$T$C$A$GT$11into_unique17h138185e2d791a321E
	.loc	37 1112 14 is_stmt 0
	movq	%rax, -48(%rbp)
	movq	%rdx, -40(%rbp)
Ltmp1249:
	.loc	37 1113 10 is_stmt 1
	movq	%rax, -32(%rbp)
	movq	%rdx, -24(%rbp)
Ltmp1250:
	.loc	34 104 9
	movq	%rax, -16(%rbp)
	movq	%rdx, -8(%rbp)
Ltmp1251:
	.loc	37 1113 9
	movq	%rax, -88(%rbp)
	movq	%rdx, -80(%rbp)
Ltmp1252:
	.loc	37 1114 6
	movq	-88(%rbp), %rax
	movq	-80(%rbp), %rdx
	addq	$96, %rsp
	popq	%rbp
	retq
Ltmp1253:
Lfunc_end124:
	.cfi_endproc

	.globl	__ZN5alloc5boxed16Box$LT$T$C$A$GT$4leak17h02e16e8b60a05cafE
	.p2align	4, 0x90
__ZN5alloc5boxed16Box$LT$T$C$A$GT$4leak17h02e16e8b60a05cafE:
Lfunc_begin125:
	.loc	37 1184 0
	.cfi_startproc
	pushq	%rbp
	.cfi_def_cfa_offset 16
	.cfi_offset %rbp, -16
	movq	%rsp, %rbp
	.cfi_def_cfa_register %rbp
	subq	$88, %rsp
	movq	%rdi, -72(%rbp)
	movq	%rsi, -64(%rbp)
Ltmp1254:
	.loc	37 1188 47 prologue_end
	movq	%rdi, -56(%rbp)
	movq	%rsi, -48(%rbp)
Ltmp1255:
	.file	38 "/rustc/2c8cc343237b8f7d5a3c3703e3a87f2eb2c54a74/library/core/src/mem" "manually_drop.rs"
	.loc	38 71 9
	movq	%rdi, -88(%rbp)
	movq	%rsi, -80(%rbp)
	leaq	-88(%rbp), %rax
Ltmp1256:
	.loc	37 1188 24
	movq	%rax, -40(%rbp)
	movq	-88(%rbp), %rax
	movq	-80(%rbp), %rdx
	movq	%rax, -32(%rbp)
	movq	%rdx, -24(%rbp)
Ltmp1257:
	.loc	34 104 9
	movq	%rax, -16(%rbp)
	movq	%rdx, -8(%rbp)
Ltmp1258:
	.loc	37 1189 6
	addq	$88, %rsp
	popq	%rbp
	retq
Ltmp1259:
Lfunc_end125:
	.cfi_endproc

	.globl	__ZN5alloc5boxed16Box$LT$T$C$A$GT$4leak17ha0fc3e97f04c91e4E
	.p2align	4, 0x90
__ZN5alloc5boxed16Box$LT$T$C$A$GT$4leak17ha0fc3e97f04c91e4E:
Lfunc_begin126:
	.loc	37 1184 0
	.cfi_startproc
	pushq	%rbp
	.cfi_def_cfa_offset 16
	.cfi_offset %rbp, -16
	movq	%rsp, %rbp
	.cfi_def_cfa_register %rbp
	subq	$88, %rsp
	movq	%rdi, -72(%rbp)
	movq	%rsi, -64(%rbp)
Ltmp1260:
	.loc	37 1188 47 prologue_end
	movq	%rdi, -56(%rbp)
	movq	%rsi, -48(%rbp)
Ltmp1261:
	.loc	38 71 9
	movq	%rdi, -88(%rbp)
	movq	%rsi, -80(%rbp)
	leaq	-88(%rbp), %rax
Ltmp1262:
	.loc	37 1188 24
	movq	%rax, -40(%rbp)
	movq	-88(%rbp), %rax
	movq	-80(%rbp), %rdx
	movq	%rax, -32(%rbp)
	movq	%rdx, -24(%rbp)
Ltmp1263:
	.loc	34 104 9
	movq	%rax, -16(%rbp)
	movq	%rdx, -8(%rbp)
Ltmp1264:
	.loc	37 1189 6
	addq	$88, %rsp
	popq	%rbp
	retq
Ltmp1265:
Lfunc_end126:
	.cfi_endproc

	.globl	__ZN5alloc5slice29_$LT$impl$u20$$u5b$T$u5d$$GT$8into_vec17h361f8a7387932d19E
	.p2align	4, 0x90
__ZN5alloc5slice29_$LT$impl$u20$$u5b$T$u5d$$GT$8into_vec17h361f8a7387932d19E:
Lfunc_begin127:
	.file	39 "/rustc/2c8cc343237b8f7d5a3c3703e3a87f2eb2c54a74/library/alloc/src" "slice.rs"
	.loc	39 461 0
	.cfi_startproc
	pushq	%rbp
	.cfi_def_cfa_offset 16
	.cfi_offset %rbp, -16
	movq	%rsp, %rbp
	.cfi_def_cfa_register %rbp
	subq	$32, %rsp
	movq	%rdi, %rax
	movq	%rax, -24(%rbp)
	movq	%rsi, -16(%rbp)
	movq	%rdx, -8(%rbp)
Ltmp1266:
	.loc	39 463 9 prologue_end
	callq	__ZN5alloc5slice4hack8into_vec17h3cd4db5eb71688b8E
	movq	-24(%rbp), %rax
	.loc	39 464 6
	addq	$32, %rsp
	popq	%rbp
	retq
Ltmp1267:
Lfunc_end127:
	.cfi_endproc

	.globl	__ZN5alloc5slice29_$LT$impl$u20$$u5b$T$u5d$$GT$8into_vec17h40904f52686f88b9E
	.p2align	4, 0x90
__ZN5alloc5slice29_$LT$impl$u20$$u5b$T$u5d$$GT$8into_vec17h40904f52686f88b9E:
Lfunc_begin128:
	.loc	39 461 0
	.cfi_startproc
	pushq	%rbp
	.cfi_def_cfa_offset 16
	.cfi_offset %rbp, -16
	movq	%rsp, %rbp
	.cfi_def_cfa_register %rbp
	subq	$32, %rsp
	movq	%rdi, %rax
	movq	%rax, -24(%rbp)
	movq	%rsi, -16(%rbp)
	movq	%rdx, -8(%rbp)
Ltmp1268:
	.loc	39 463 9 prologue_end
	callq	__ZN5alloc5slice4hack8into_vec17ha73d9ac977885a9bE
	movq	-24(%rbp), %rax
	.loc	39 464 6
	addq	$32, %rsp
	popq	%rbp
	retq
Ltmp1269:
Lfunc_end128:
	.cfi_endproc

	.globl	__ZN5alloc5slice4hack8into_vec17h3cd4db5eb71688b8E
	.p2align	4, 0x90
__ZN5alloc5slice4hack8into_vec17h3cd4db5eb71688b8E:
Lfunc_begin129:
	.loc	39 100 0
	.cfi_startproc
	.cfi_personality 155, _rust_eh_personality
	.cfi_lsda 16, Lexception47
	pushq	%rbp
	.cfi_def_cfa_offset 16
	.cfi_offset %rbp, -16
	movq	%rsp, %rbp
	.cfi_def_cfa_register %rbp
	subq	$160, %rsp
	movq	%rdi, -152(%rbp)
	movq	%rdi, -144(%rbp)
	movq	%rsi, -112(%rbp)
	movq	%rdx, -104(%rbp)
Ltmp1278:
	.loc	39 102 23 prologue_end
	movq	-112(%rbp), %rcx
	movq	-104(%rbp), %rax
	movq	%rcx, -72(%rbp)
	movq	%rax, -64(%rbp)
Ltmp1279:
	.loc	24 137 23
	movq	%rcx, -56(%rbp)
	movq	%rax, -48(%rbp)
Ltmp1280:
	.loc	26 98 14
	movq	%rcx, -96(%rbp)
	movq	%rax, -88(%rbp)
	movq	-88(%rbp), %rax
	movq	%rax, -136(%rbp)
	movq	%rax, -40(%rbp)
Ltmp1281:
	.loc	39 103 59
	movq	-112(%rbp), %rdi
	movq	-104(%rbp), %rsi
Ltmp1270:
	.loc	39 103 30 is_stmt 0
	callq	__ZN5alloc5boxed16Box$LT$T$C$A$GT$23into_raw_with_allocator17h60ddd3799efe43f2E
Ltmp1271:
	movq	%rdx, -128(%rbp)
	movq	%rax, -120(%rbp)
	jmp	LBB129_3
Ltmp1282:
LBB129_1:
	.loc	39 106 5 is_stmt 1
	xorl	%eax, %eax
	testb	$1, %al
	jne	LBB129_6
	jmp	LBB129_5
LBB129_2:
Ltmp1274:
	.loc	39 0 5 is_stmt 0
	movq	%rax, %rcx
	movl	%edx, %eax
	movq	%rcx, -32(%rbp)
	movl	%eax, -24(%rbp)
	jmp	LBB129_1
LBB129_3:
	movq	-136(%rbp), %rcx
	movq	-120(%rbp), %rsi
	movq	-152(%rbp), %rdi
	movq	-128(%rbp), %rax
Ltmp1283:
	.loc	39 103 18 is_stmt 1
	movq	%rsi, -16(%rbp)
	movq	%rax, -8(%rbp)
Ltmp1272:
Ltmp1284:
	.loc	39 104 13
	movq	%rcx, %rdx
	callq	__ZN5alloc3vec16Vec$LT$T$C$A$GT$17from_raw_parts_in17hb6e3fd8be132d68bE
Ltmp1273:
	jmp	LBB129_4
Ltmp1285:
LBB129_4:
	.loc	39 0 13 is_stmt 0
	movq	-144(%rbp), %rax
	.loc	39 106 6 is_stmt 1
	addq	$160, %rsp
	popq	%rbp
	retq
LBB129_5:
	.loc	39 100 5
	movq	-32(%rbp), %rdi
	callq	__Unwind_Resume
LBB129_6:
Ltmp1275:
	.loc	39 0 5 is_stmt 0
	leaq	-112(%rbp), %rdi
	.loc	39 106 5 is_stmt 1
	callq	__ZN4core3ptr112drop_in_place$LT$alloc..boxed..Box$LT$$u5b$objc_id..id..Id$LT$objc_foundation..object..NSObject$GT$$u5d$$GT$$GT$17h69cdd995a5771a1eE
Ltmp1276:
	jmp	LBB129_5
LBB129_7:
Ltmp1277:
	.loc	39 100 5
	callq	__ZN4core9panicking19panic_cannot_unwind17h1fbca7e1d7f56ae1E
Ltmp1286:
Lfunc_end129:
	.cfi_endproc
	.section	__TEXT,__gcc_except_tab
	.p2align	2
GCC_except_table129:
Lexception47:
	.byte	255
	.byte	255
	.byte	1
	.uleb128 Lcst_end47-Lcst_begin47
Lcst_begin47:
	.uleb128 Ltmp1270-Lfunc_begin129
	.uleb128 Ltmp1273-Ltmp1270
	.uleb128 Ltmp1274-Lfunc_begin129
	.byte	0
	.uleb128 Ltmp1273-Lfunc_begin129
	.uleb128 Ltmp1275-Ltmp1273
	.byte	0
	.byte	0
	.uleb128 Ltmp1275-Lfunc_begin129
	.uleb128 Ltmp1276-Ltmp1275
	.uleb128 Ltmp1277-Lfunc_begin129
	.byte	0
Lcst_end47:
	.p2align	2

	.section	__TEXT,__text,regular,pure_instructions
	.globl	__ZN5alloc5slice4hack8into_vec17ha73d9ac977885a9bE
	.p2align	4, 0x90
__ZN5alloc5slice4hack8into_vec17ha73d9ac977885a9bE:
Lfunc_begin130:
	.loc	39 100 0
	.cfi_startproc
	.cfi_personality 155, _rust_eh_personality
	.cfi_lsda 16, Lexception48
	pushq	%rbp
	.cfi_def_cfa_offset 16
	.cfi_offset %rbp, -16
	movq	%rsp, %rbp
	.cfi_def_cfa_register %rbp
	subq	$160, %rsp
	movq	%rdi, -152(%rbp)
	movq	%rdi, -144(%rbp)
	movq	%rsi, -112(%rbp)
	movq	%rdx, -104(%rbp)
Ltmp1295:
	.loc	39 102 23 prologue_end
	movq	-112(%rbp), %rcx
	movq	-104(%rbp), %rax
	movq	%rcx, -72(%rbp)
	movq	%rax, -64(%rbp)
Ltmp1296:
	.loc	24 137 23
	movq	%rcx, -56(%rbp)
	movq	%rax, -48(%rbp)
Ltmp1297:
	.loc	26 98 14
	movq	%rcx, -96(%rbp)
	movq	%rax, -88(%rbp)
	movq	-88(%rbp), %rax
	movq	%rax, -136(%rbp)
	movq	%rax, -40(%rbp)
Ltmp1298:
	.loc	39 103 59
	movq	-112(%rbp), %rdi
	movq	-104(%rbp), %rsi
Ltmp1287:
	.loc	39 103 30 is_stmt 0
	callq	__ZN5alloc5boxed16Box$LT$T$C$A$GT$23into_raw_with_allocator17h67132efb43becea0E
Ltmp1288:
	movq	%rdx, -128(%rbp)
	movq	%rax, -120(%rbp)
	jmp	LBB130_3
Ltmp1299:
LBB130_1:
	.loc	39 106 5 is_stmt 1
	xorl	%eax, %eax
	testb	$1, %al
	jne	LBB130_6
	jmp	LBB130_5
LBB130_2:
Ltmp1291:
	.loc	39 0 5 is_stmt 0
	movq	%rax, %rcx
	movl	%edx, %eax
	movq	%rcx, -32(%rbp)
	movl	%eax, -24(%rbp)
	jmp	LBB130_1
LBB130_3:
	movq	-136(%rbp), %rcx
	movq	-120(%rbp), %rsi
	movq	-152(%rbp), %rdi
	movq	-128(%rbp), %rax
Ltmp1300:
	.loc	39 103 18 is_stmt 1
	movq	%rsi, -16(%rbp)
	movq	%rax, -8(%rbp)
Ltmp1289:
Ltmp1301:
	.loc	39 104 13
	movq	%rcx, %rdx
	callq	__ZN5alloc3vec16Vec$LT$T$C$A$GT$17from_raw_parts_in17hb451312474c1bc85E
Ltmp1290:
	jmp	LBB130_4
Ltmp1302:
LBB130_4:
	.loc	39 0 13 is_stmt 0
	movq	-144(%rbp), %rax
	.loc	39 106 6 is_stmt 1
	addq	$160, %rsp
	popq	%rbp
	retq
LBB130_5:
	.loc	39 100 5
	movq	-32(%rbp), %rdi
	callq	__Unwind_Resume
LBB130_6:
Ltmp1292:
	.loc	39 0 5 is_stmt 0
	leaq	-112(%rbp), %rdi
	.loc	39 106 5 is_stmt 1
	callq	__ZN4core3ptr112drop_in_place$LT$alloc..boxed..Box$LT$$u5b$objc_id..id..Id$LT$objc_foundation..string..NSString$GT$$u5d$$GT$$GT$17h6511309d8c5281e9E
Ltmp1293:
	jmp	LBB130_5
LBB130_7:
Ltmp1294:
	.loc	39 100 5
	callq	__ZN4core9panicking19panic_cannot_unwind17h1fbca7e1d7f56ae1E
Ltmp1303:
Lfunc_end130:
	.cfi_endproc
	.section	__TEXT,__gcc_except_tab
	.p2align	2
GCC_except_table130:
Lexception48:
	.byte	255
	.byte	255
	.byte	1
	.uleb128 Lcst_end48-Lcst_begin48
Lcst_begin48:
	.uleb128 Ltmp1287-Lfunc_begin130
	.uleb128 Ltmp1290-Ltmp1287
	.uleb128 Ltmp1291-Lfunc_begin130
	.byte	0
	.uleb128 Ltmp1290-Lfunc_begin130
	.uleb128 Ltmp1292-Ltmp1290
	.byte	0
	.byte	0
	.uleb128 Ltmp1292-Lfunc_begin130
	.uleb128 Ltmp1293-Ltmp1292
	.uleb128 Ltmp1294-Lfunc_begin130
	.byte	0
Lcst_end48:
	.p2align	2

	.section	__TEXT,__text,regular,pure_instructions
	.p2align	4, 0x90
__ZN5alloc7raw_vec14handle_reserve17h2bfbc469d561f73dE:
Lfunc_begin131:
	.loc	7 487 0
	.cfi_startproc
	pushq	%rbp
	.cfi_def_cfa_offset 16
	.cfi_offset %rbp, -16
	movq	%rsp, %rbp
	.cfi_def_cfa_register %rbp
	subq	$48, %rsp
	movq	%rdi, -32(%rbp)
	movq	%rsi, -24(%rbp)
Ltmp1304:
	.loc	7 488 11 prologue_end
	callq	__ZN4core6result19Result$LT$T$C$E$GT$7map_err17h7bebee3f42ee7362E
	movq	%rdx, -40(%rbp)
	movq	%rax, -48(%rbp)
	movabsq	$-9223372036854775807, %rdx
	movl	$1, %eax
	xorl	%ecx, %ecx
	cmpq	%rdx, -40(%rbp)
	cmoveq	%rcx, %rax
	.loc	7 488 5 is_stmt 0
	cmpq	$0, %rax
	jne	LBB131_2
	.loc	7 493 2 is_stmt 1
	addq	$48, %rsp
	popq	%rbp
	retq
LBB131_2:
	.loc	7 488 11
	movl	$1, %eax
	xorl	%ecx, %ecx
	cmpq	$0, -40(%rbp)
	cmoveq	%rcx, %rax
	.loc	7 488 5 is_stmt 0
	cmpq	$0, %rax
	jne	LBB131_4
	.loc	7 489 34 is_stmt 1
	callq	__ZN5alloc7raw_vec17capacity_overflow17h082ee8492f253a0eE
LBB131_4:
	.loc	7 490 26
	movq	-48(%rbp), %rdi
	movq	-40(%rbp), %rsi
	movq	%rdi, -16(%rbp)
	movq	%rsi, -8(%rbp)
Ltmp1305:
	.loc	7 490 43 is_stmt 0
	callq	__ZN5alloc5alloc18handle_alloc_error17hb5f6ff255f23ea4dE
Ltmp1306:
Lfunc_end131:
	.cfi_endproc

	.globl	__ZN5alloc7raw_vec19RawVec$LT$T$C$A$GT$11allocate_in17h0987f78d380444a8E
	.p2align	4, 0x90
__ZN5alloc7raw_vec19RawVec$LT$T$C$A$GT$11allocate_in17h0987f78d380444a8E:
Lfunc_begin132:
	.loc	7 169 0 is_stmt 1
	.cfi_startproc
	.cfi_personality 155, _rust_eh_personality
	.cfi_lsda 16, Lexception49
	pushq	%rbp
	.cfi_def_cfa_offset 16
	.cfi_offset %rbp, -16
	movq	%rsp, %rbp
	.cfi_def_cfa_register %rbp
	subq	$384, %rsp
