	.section	__TEXT,__text,regular,pure_instructions
	.macosx_version_min 10, 7
	.file	1 "/Users/natalie/.cargo/registry/src/github.com-1ecc6299db9ec823/autocfg-1.1.0" "src/lib.rs"
	.globl	__ZN102_$LT$core..iter..adapters..map..Map$LT$I$C$F$GT$$u20$as$u20$core..iter..traits..iterator..Iterator$GT$4fold17h6e4fc41c7c793159E
	.p2align	4, 0x90
__ZN102_$LT$core..iter..adapters..map..Map$LT$I$C$F$GT$$u20$as$u20$core..iter..traits..iterator..Iterator$GT$4fold17h6e4fc41c7c793159E:
Lfunc_begin0:
	.file	2 "/rustc/2c8cc343237b8f7d5a3c3703e3a87f2eb2c54a74/library/core/src/iter/adapters" "map.rs"
	.loc	2 120 0
	.cfi_startproc
	.cfi_personality 155, _rust_eh_personality
	.cfi_lsda 16, Lexception0
	pushq	%rbp
	.cfi_def_cfa_offset 16
	.cfi_offset %rbp, -16
	movq	%rsp, %rbp
	.cfi_def_cfa_register %rbp
	subq	$96, %rsp
	movq	%rdx, -88(%rbp)
	movq	%rdi, %rax
	movq	-88(%rbp), %rdi
	movq	%rax, -80(%rbp)
	movq	%rsi, -72(%rbp)
	movq	%rax, -48(%rbp)
	movq	%rsi, -40(%rbp)
	movq	%rdi, -24(%rbp)
Ltmp5:
	.loc	2 124 9 prologue_end
	movb	$1, -49(%rbp)
	.loc	2 124 24 is_stmt 0
	movb	$1, -50(%rbp)
Ltmp0:
	.loc	2 124 30
	callq	__ZN4core4iter8adapters3map8map_fold17h5d966be761ce366cE
Ltmp1:
	movq	%rax, -64(%rbp)
	jmp	LBB0_3
LBB0_1:
	.loc	2 124 49
	testb	$1, -50(%rbp)
	jne	LBB0_6
	jmp	LBB0_5
LBB0_2:
Ltmp4:
	.loc	2 0 49
	movq	%rax, %rcx
	movl	%edx, %eax
	movq	%rcx, -16(%rbp)
	movl	%eax, -8(%rbp)
	jmp	LBB0_1
LBB0_3:
	movq	-64(%rbp), %rdx
	movq	-72(%rbp), %rsi
	movq	-80(%rbp), %rdi
	.loc	2 124 9
	movb	$0, -49(%rbp)
	movb	$0, -50(%rbp)
Ltmp2:
	callq	__ZN4core4iter6traits8iterator8Iterator4fold17h26c83097a1f97d6cE
Ltmp3:
	jmp	LBB0_4
LBB0_4:
	.loc	2 125 6 is_stmt 1
	addq	$96, %rsp
	popq	%rbp
	retq
LBB0_5:
	.loc	2 124 49
	testb	$1, -49(%rbp)
	jne	LBB0_8
	jmp	LBB0_7
LBB0_6:
	jmp	LBB0_5
LBB0_7:
	.loc	2 120 5
	movq	-16(%rbp), %rdi
	callq	__Unwind_Resume
LBB0_8:
	.loc	2 124 49
	jmp	LBB0_7
Ltmp6:
Lfunc_end0:
	.cfi_endproc
	.section	__TEXT,__gcc_except_tab
	.p2align	2
GCC_except_table0:
Lexception0:
	.byte	255
	.byte	255
	.byte	1
	.uleb128 Lcst_end0-Lcst_begin0
Lcst_begin0:
	.uleb128 Ltmp0-Lfunc_begin0
	.uleb128 Ltmp3-Ltmp0
	.uleb128 Ltmp4-Lfunc_begin0
	.byte	0
	.uleb128 Ltmp3-Lfunc_begin0
	.uleb128 Lfunc_end0-Ltmp3
	.byte	0
	.byte	0
Lcst_end0:
	.p2align	2

	.section	__TEXT,__text,regular,pure_instructions
	.globl	__ZN102_$LT$core..iter..adapters..map..Map$LT$I$C$F$GT$$u20$as$u20$core..iter..traits..iterator..Iterator$GT$4next17h55436cb0e5282f9eE
	.p2align	4, 0x90
__ZN102_$LT$core..iter..adapters..map..Map$LT$I$C$F$GT$$u20$as$u20$core..iter..traits..iterator..Iterator$GT$4next17h55436cb0e5282f9eE:
Lfunc_begin1:
	.loc	2 102 0
	.cfi_startproc
	pushq	%rbp
	.cfi_def_cfa_offset 16
	.cfi_offset %rbp, -16
	movq	%rsp, %rbp
	.cfi_def_cfa_register %rbp
	subq	$32, %rsp
	movq	%rsi, -24(%rbp)
	movq	%rdi, %rax
	movq	-24(%rbp), %rdi
	movq	%rax, -32(%rbp)
	movq	%rax, -16(%rbp)
	movq	%rdi, -8(%rbp)
Ltmp7:
	.loc	2 103 9 prologue_end
	callq	__ZN108_$LT$core..iter..adapters..filter..Filter$LT$I$C$P$GT$$u20$as$u20$core..iter..traits..iterator..Iterator$GT$4next17h9f6ba1e4717e7ec9E
	movq	-32(%rbp), %rdi
	movq	-24(%rbp), %rcx
	movq	%rax, %rsi
	callq	__ZN4core6option15Option$LT$T$GT$3map17h69c78b2595b8679dE
	movq	-16(%rbp), %rax
	.loc	2 104 6
	addq	$32, %rsp
	popq	%rbp
	retq
Ltmp8:
Lfunc_end1:
	.cfi_endproc

	.globl	__ZN102_$LT$core..iter..adapters..map..Map$LT$I$C$F$GT$$u20$as$u20$core..iter..traits..iterator..Iterator$GT$4next17hfe970d2abdf5afbcE
	.p2align	4, 0x90
__ZN102_$LT$core..iter..adapters..map..Map$LT$I$C$F$GT$$u20$as$u20$core..iter..traits..iterator..Iterator$GT$4next17hfe970d2abdf5afbcE:
Lfunc_begin2:
	.loc	2 102 0
	.cfi_startproc
	pushq	%rbp
	.cfi_def_cfa_offset 16
	.cfi_offset %rbp, -16
	movq	%rsp, %rbp
	.cfi_def_cfa_register %rbp
	subq	$32, %rsp
	movq	%rsi, -24(%rbp)
	movq	%rdi, %rax
	movq	-24(%rbp), %rdi
	movq	%rax, -32(%rbp)
	movq	%rax, -16(%rbp)
	movq	%rdi, -8(%rbp)
Ltmp9:
	.loc	2 103 9 prologue_end
	callq	__ZN90_$LT$core..str..iter..Split$LT$P$GT$$u20$as$u20$core..iter..traits..iterator..Iterator$GT$4next17h85962ae6a274630eE
	movq	-32(%rbp), %rdi
	movq	-24(%rbp), %rcx
	movq	%rax, %rsi
	callq	__ZN4core6option15Option$LT$T$GT$3map17h69c78b2595b8679dE
	movq	-16(%rbp), %rax
	.loc	2 104 6
	addq	$32, %rsp
	popq	%rbp
	retq
Ltmp10:
Lfunc_end2:
	.cfi_endproc

	.globl	__ZN102_$LT$core..iter..adapters..map..Map$LT$I$C$F$GT$$u20$as$u20$core..iter..traits..iterator..Iterator$GT$8try_fold17h9ee77d3716187f9eE
	.p2align	4, 0x90
__ZN102_$LT$core..iter..adapters..map..Map$LT$I$C$F$GT$$u20$as$u20$core..iter..traits..iterator..Iterator$GT$8try_fold17h9ee77d3716187f9eE:
Lfunc_begin3:
	.loc	2 111 0
	.cfi_startproc
	.cfi_personality 155, _rust_eh_personality
	.cfi_lsda 16, Lexception1
	pushq	%rbp
	.cfi_def_cfa_offset 16
	.cfi_offset %rbp, -16
	movq	%rsp, %rbp
	.cfi_def_cfa_register %rbp
	subq	$96, %rsp
	movq	%rdi, -72(%rbp)
	movq	%rdi, -40(%rbp)
	movq	%rsi, -24(%rbp)
Ltmp16:
	.loc	2 117 28 prologue_end
	movb	$1, -41(%rbp)
Ltmp11:
	.loc	2 117 34 is_stmt 0
	callq	__ZN4core4iter8adapters3map12map_try_fold17hb48b26357b366257E
Ltmp12:
	movq	%rdx, -64(%rbp)
	movq	%rax, -56(%rbp)
	jmp	LBB3_3
LBB3_1:
	.loc	2 117 62
	testb	$1, -41(%rbp)
	jne	LBB3_6
	jmp	LBB3_5
LBB3_2:
Ltmp15:
	.loc	2 0 62
	movq	%rax, %rcx
	movl	%edx, %eax
	movq	%rcx, -16(%rbp)
	movl	%eax, -8(%rbp)
	jmp	LBB3_1
LBB3_3:
	movq	-64(%rbp), %rdx
	movq	-56(%rbp), %rsi
	movq	-72(%rbp), %rdi
	.loc	2 117 9
	movb	$0, -41(%rbp)
Ltmp13:
	callq	__ZN4core4iter6traits8iterator8Iterator8try_fold17h6520eeb92c4a7c96E
Ltmp14:
	movq	%rdx, -88(%rbp)
	movq	%rax, -80(%rbp)
	jmp	LBB3_4
LBB3_4:
	.loc	2 0 9
	movq	-88(%rbp), %rdx
	movq	-80(%rbp), %rax
	.loc	2 118 6 is_stmt 1
	addq	$96, %rsp
	popq	%rbp
	retq
LBB3_5:
	.loc	2 111 5
	movq	-16(%rbp), %rdi
	callq	__Unwind_Resume
LBB3_6:
	.loc	2 117 62
	jmp	LBB3_5
Ltmp17:
Lfunc_end3:
	.cfi_endproc
	.section	__TEXT,__gcc_except_tab
	.p2align	2
GCC_except_table3:
Lexception1:
	.byte	255
	.byte	255
	.byte	1
	.uleb128 Lcst_end1-Lcst_begin1
Lcst_begin1:
	.uleb128 Ltmp11-Lfunc_begin3
	.uleb128 Ltmp14-Ltmp11
	.uleb128 Ltmp15-Lfunc_begin3
	.byte	0
	.uleb128 Ltmp14-Lfunc_begin3
	.uleb128 Lfunc_end3-Ltmp14
	.byte	0
	.byte	0
Lcst_end1:
	.p2align	2

	.section	__TEXT,__text,regular,pure_instructions
	.globl	__ZN102_$LT$core..iter..adapters..map..Map$LT$I$C$F$GT$$u20$as$u20$core..iter..traits..iterator..Iterator$GT$9size_hint17h7dde31c24ddd5f60E
	.p2align	4, 0x90
__ZN102_$LT$core..iter..adapters..map..Map$LT$I$C$F$GT$$u20$as$u20$core..iter..traits..iterator..Iterator$GT$9size_hint17h7dde31c24ddd5f60E:
Lfunc_begin4:
	.loc	2 107 0
	.cfi_startproc
	pushq	%rbp
	.cfi_def_cfa_offset 16
	.cfi_offset %rbp, -16
	movq	%rsp, %rbp
	.cfi_def_cfa_register %rbp
	subq	$16, %rsp
	movq	%rdi, %rax
	movq	%rax, -16(%rbp)
	movq	%rsi, -8(%rbp)
Ltmp18:
	.loc	2 108 9 prologue_end
	callq	__ZN81_$LT$core..str..iter..Chars$u20$as$u20$core..iter..traits..iterator..Iterator$GT$9size_hint17h4b1d9c2e3bac9cc8E
	movq	-16(%rbp), %rax
	.loc	2 109 6
	addq	$16, %rsp
	popq	%rbp
	retq
Ltmp19:
Lfunc_end4:
	.cfi_endproc

	.globl	__ZN102_$LT$core..iter..adapters..map..Map$LT$I$C$F$GT$$u20$as$u20$core..iter..traits..iterator..Iterator$GT$9size_hint17h884f427e57e12b48E
	.p2align	4, 0x90
__ZN102_$LT$core..iter..adapters..map..Map$LT$I$C$F$GT$$u20$as$u20$core..iter..traits..iterator..Iterator$GT$9size_hint17h884f427e57e12b48E:
Lfunc_begin5:
	.loc	2 107 0
	.cfi_startproc
	pushq	%rbp
	.cfi_def_cfa_offset 16
	.cfi_offset %rbp, -16
	movq	%rsp, %rbp
	.cfi_def_cfa_register %rbp
	subq	$16, %rsp
	movq	%rdi, %rax
	movq	%rax, -16(%rbp)
	movq	%rsi, -8(%rbp)
Ltmp20:
	.loc	2 108 9 prologue_end
	callq	__ZN108_$LT$core..iter..adapters..filter..Filter$LT$I$C$P$GT$$u20$as$u20$core..iter..traits..iterator..Iterator$GT$9size_hint17hc9bd49b0443a5f74E
	movq	-16(%rbp), %rax
	.loc	2 109 6
	addq	$16, %rsp
	popq	%rbp
	retq
Ltmp21:
Lfunc_end5:
	.cfi_endproc

	.globl	__ZN102_$LT$core..iter..adapters..map..Map$LT$I$C$F$GT$$u20$as$u20$core..iter..traits..iterator..Iterator$GT$9size_hint17hacad417752eb1386E
	.p2align	4, 0x90
__ZN102_$LT$core..iter..adapters..map..Map$LT$I$C$F$GT$$u20$as$u20$core..iter..traits..iterator..Iterator$GT$9size_hint17hacad417752eb1386E:
Lfunc_begin6:
	.loc	2 107 0
	.cfi_startproc
	pushq	%rbp
	.cfi_def_cfa_offset 16
	.cfi_offset %rbp, -16
	movq	%rsp, %rbp
	.cfi_def_cfa_register %rbp
	subq	$16, %rsp
	movq	%rdi, %rax
	movq	%rax, -16(%rbp)
	movq	%rsi, -8(%rbp)
Ltmp22:
	.loc	2 108 9 prologue_end
	callq	__ZN4core4iter6traits8iterator8Iterator9size_hint17h42aa5b5a9c864aaaE
	movq	-16(%rbp), %rax
	.loc	2 109 6
	addq	$16, %rsp
	popq	%rbp
	retq
Ltmp23:
Lfunc_end6:
	.cfi_endproc

	.globl	__ZN102_$LT$core..iter..adapters..map..Map$LT$I$C$F$GT$$u20$as$u20$core..iter..traits..iterator..Iterator$GT$9size_hint17hf2cb25369be3883cE
	.p2align	4, 0x90
__ZN102_$LT$core..iter..adapters..map..Map$LT$I$C$F$GT$$u20$as$u20$core..iter..traits..iterator..Iterator$GT$9size_hint17hf2cb25369be3883cE:
Lfunc_begin7:
	.loc	2 107 0
	.cfi_startproc
	pushq	%rbp
	.cfi_def_cfa_offset 16
	.cfi_offset %rbp, -16
	movq	%rsp, %rbp
	.cfi_def_cfa_register %rbp
	subq	$16, %rsp
	movq	%rdi, %rax
	movq	%rax, -16(%rbp)
	movq	%rsi, -8(%rbp)
Ltmp24:
	.loc	2 108 9 prologue_end
	callq	__ZN4core4iter6traits8iterator8Iterator9size_hint17h42aa5b5a9c864aaaE
	movq	-16(%rbp), %rax
	.loc	2 109 6
	addq	$16, %rsp
	popq	%rbp
	retq
Ltmp25:
Lfunc_end7:
	.cfi_endproc

	.p2align	4, 0x90
__ZN102_$LT$core..str..iter..CharIndices$u20$as$u20$core..iter..traits..double_ended..DoubleEndedIterator$GT$9next_back17hd6baf8e2e1be68f0E:
Lfunc_begin8:
	.file	3 "/rustc/2c8cc343237b8f7d5a3c3703e3a87f2eb2c54a74/library/core/src/str" "iter.rs"
	.loc	3 171 0
	.cfi_startproc
	pushq	%rbp
	.cfi_def_cfa_offset 16
	.cfi_offset %rbp, -16
	movq	%rsp, %rbp
	.cfi_def_cfa_register %rbp
	subq	$48, %rsp
	movq	%rdi, -40(%rbp)
	movq	%rdi, -16(%rbp)
Ltmp26:
	.loc	3 172 9 prologue_end
	movq	%rdi, -8(%rbp)
Ltmp27:
	.loc	3 84 18
	callq	__ZN4core3str11validations23next_code_point_reverse17h0a9eb2730d300e5eE
	movl	%eax, %edi
	movl	%edx, %esi
	callq	__ZN4core6option15Option$LT$T$GT$3map17hf92765f896b1bfdcE
	movl	%eax, %edi
	movq	-40(%rbp), %rax
Ltmp28:
	.loc	3 172 35
	movq	%rax, %rcx
	addq	$16, %rcx
	movq	%rcx, -32(%rbp)
	movq	%rax, -24(%rbp)
	.loc	3 172 9 is_stmt 0
	movq	-32(%rbp), %rsi
	movq	-24(%rbp), %rdx
	callq	__ZN4core6option15Option$LT$T$GT$3map17hd459447b8cad7573E
	.loc	3 176 6 is_stmt 1
	addq	$48, %rsp
	popq	%rbp
	retq
Ltmp29:
Lfunc_end8:
	.cfi_endproc

	.globl	__ZN102_$LT$core..str..iter..CharIndices$u20$as$u20$core..iter..traits..double_ended..DoubleEndedIterator$GT$9next_back28_$u7b$$u7b$closure$u7d$$u7d$17h603f811cbe9e2447E
	.p2align	4, 0x90
__ZN102_$LT$core..str..iter..CharIndices$u20$as$u20$core..iter..traits..double_ended..DoubleEndedIterator$GT$9next_back28_$u7b$$u7b$closure$u7d$$u7d$17h603f811cbe9e2447E:
Lfunc_begin9:
	.loc	3 172 0
	.cfi_startproc
	pushq	%rbp
	.cfi_def_cfa_offset 16
	.cfi_offset %rbp, -16
	movq	%rsp, %rbp
	.cfi_def_cfa_register %rbp
	subq	$96, %rsp
	movl	%edx, -84(%rbp)
	movq	%rdi, -72(%rbp)
	movq	%rsi, -64(%rbp)
	movl	%edx, -36(%rbp)
Ltmp30:
	.loc	3 173 25 prologue_end
	movq	-72(%rbp), %rcx
	.loc	3 173 45 is_stmt 0
	movq	-64(%rbp), %rax
	.loc	3 173 25
	movq	(%rcx), %rcx
	movq	%rcx, -80(%rbp)
	.loc	3 173 45
	movq	%rax, -32(%rbp)
Ltmp31:
	.file	4 "/rustc/2c8cc343237b8f7d5a3c3703e3a87f2eb2c54a74/library/core/src/slice/iter" "macros.rs"
	.loc	4 16 21 is_stmt 1
	movq	8(%rax), %rsi
	movq	%rsi, -24(%rbp)
Ltmp32:
	.loc	4 25 22
	movq	(%rax), %rdi
	.loc	4 25 40 is_stmt 0
	movq	%rsi, -16(%rbp)
	.loc	4 25 22
	callq	__ZN4core3ptr9const_ptr33_$LT$impl$u20$$BP$const$u20$T$GT$7sub_ptr17h0102315fd9aeb6cbE
	movl	-84(%rbp), %edx
	movq	%rax, %rcx
	movq	-80(%rbp), %rax
Ltmp33:
	.loc	3 173 25 is_stmt 1
	addq	%rcx, %rax
	movq	%rax, -8(%rbp)
Ltmp34:
	.loc	3 174 13
	movq	%rax, -56(%rbp)
	movl	%edx, -48(%rbp)
Ltmp35:
	.loc	3 175 10
	movq	-56(%rbp), %rax
	movl	-48(%rbp), %edx
	addq	$96, %rsp
	popq	%rbp
	retq
Ltmp36:
Lfunc_end9:
	.cfi_endproc

	.globl	__ZN104_$LT$core..ops..control_flow..ControlFlow$LT$B$C$C$GT$$u20$as$u20$core..ops..try_trait..FromResidual$GT$13from_residual17h407874ebb461c90dE
	.p2align	4, 0x90
__ZN104_$LT$core..ops..control_flow..ControlFlow$LT$B$C$C$GT$$u20$as$u20$core..ops..try_trait..FromResidual$GT$13from_residual17h407874ebb461c90dE:
Lfunc_begin10:
	.file	5 "/rustc/2c8cc343237b8f7d5a3c3703e3a87f2eb2c54a74/library/core/src/ops" "control_flow.rs"
	.loc	5 123 0
	.cfi_startproc
	pushq	%rbp
	.cfi_def_cfa_offset 16
	.cfi_offset %rbp, -16
	movq	%rsp, %rbp
	.cfi_def_cfa_register %rbp
	subq	$32, %rsp
	movq	%rdi, -32(%rbp)
Ltmp37:
	.loc	5 125 32 prologue_end
	movq	-32(%rbp), %rax
	movq	%rax, -8(%rbp)
Ltmp38:
	.loc	5 125 38 is_stmt 0
	movq	%rax, -16(%rbp)
	movq	$1, -24(%rbp)
Ltmp39:
	.loc	5 127 6 is_stmt 1
	movq	-24(%rbp), %rax
	movq	-16(%rbp), %rdx
	addq	$32, %rsp
	popq	%rbp
	retq
Ltmp40:
Lfunc_end10:
	.cfi_endproc

	.globl	__ZN104_$LT$core..ops..control_flow..ControlFlow$LT$B$C$C$GT$$u20$as$u20$core..ops..try_trait..FromResidual$GT$13from_residual17hd86240010cc3f0edE
	.p2align	4, 0x90
__ZN104_$LT$core..ops..control_flow..ControlFlow$LT$B$C$C$GT$$u20$as$u20$core..ops..try_trait..FromResidual$GT$13from_residual17hd86240010cc3f0edE:
Lfunc_begin11:
	.loc	5 123 0
	.cfi_startproc
	pushq	%rbp
	.cfi_def_cfa_offset 16
	.cfi_offset %rbp, -16
	movq	%rsp, %rbp
	.cfi_def_cfa_register %rbp
	subq	$48, %rsp
	movq	%rdi, -48(%rbp)
	movq	%rsi, -40(%rbp)
Ltmp41:
	.loc	5 125 32 prologue_end
	movq	-48(%rbp), %rcx
	movq	-40(%rbp), %rax
	movq	%rcx, -16(%rbp)
	movq	%rax, -8(%rbp)
Ltmp42:
	.loc	5 125 38 is_stmt 0
	movq	%rcx, -32(%rbp)
	movq	%rax, -24(%rbp)
Ltmp43:
	.loc	5 127 6 is_stmt 1
	movq	-32(%rbp), %rax
	movq	-24(%rbp), %rdx
	addq	$48, %rsp
	popq	%rbp
	retq
Ltmp44:
Lfunc_end11:
	.cfi_endproc

	.globl	__ZN104_$LT$core..ops..control_flow..ControlFlow$LT$B$C$C$GT$$u20$as$u20$core..ops..try_trait..FromResidual$GT$13from_residual17hf48834635c75df5bE
	.p2align	4, 0x90
__ZN104_$LT$core..ops..control_flow..ControlFlow$LT$B$C$C$GT$$u20$as$u20$core..ops..try_trait..FromResidual$GT$13from_residual17hf48834635c75df5bE:
Lfunc_begin12:
	.loc	5 123 0
	.cfi_startproc
	pushq	%rbp
	.cfi_def_cfa_offset 16
	.cfi_offset %rbp, -16
	movq	%rsp, %rbp
	.cfi_def_cfa_register %rbp
	subq	$24, %rsp
Ltmp45:
	.loc	5 125 38 prologue_end
	movb	$1, -17(%rbp)
Ltmp46:
	.loc	5 127 6
	movb	-17(%rbp), %al
	andb	$1, %al
	movzbl	%al, %eax
	addq	$24, %rsp
	popq	%rbp
	retq
Ltmp47:
Lfunc_end12:
	.cfi_endproc

	.globl	__ZN104_$LT$core..str..pattern..MultiCharEqSearcher$LT$C$GT$$u20$as$u20$core..str..pattern..ReverseSearcher$GT$9next_back17h4ec417d8818123ccE
	.p2align	4, 0x90
__ZN104_$LT$core..str..pattern..MultiCharEqSearcher$LT$C$GT$$u20$as$u20$core..str..pattern..ReverseSearcher$GT$9next_back17h4ec417d8818123ccE:
Lfunc_begin13:
	.file	6 "/rustc/2c8cc343237b8f7d5a3c3703e3a87f2eb2c54a74/library/core/src/str" "pattern.rs"
	.loc	6 678 0
	.cfi_startproc
	pushq	%rbp
	.cfi_def_cfa_offset 16
	.cfi_offset %rbp, -16
	movq	%rsp, %rbp
	.cfi_def_cfa_register %rbp
	subq	$192, %rsp
	movq	%rsi, %rax
	movq	%rax, -160(%rbp)
	movq	%rdi, -152(%rbp)
	movq	%rdi, -144(%rbp)
	movq	%rax, -104(%rbp)
Ltmp48:
	.loc	6 679 17 prologue_end
	movq	%rax, %rsi
	addq	$16, %rsi
	movq	%rsi, -136(%rbp)
	movq	%rsi, -96(%rbp)
Ltmp49:
	.loc	6 682 23
	movq	%rsi, -88(%rbp)
Ltmp50:
	.loc	4 16 21
	movq	24(%rax), %rsi
	movq	%rsi, -80(%rbp)
Ltmp51:
	.loc	4 25 22
	movq	16(%rax), %rdi
	.loc	4 25 40 is_stmt 0
	movq	%rsi, -72(%rbp)
	.loc	4 25 22
	callq	__ZN4core3ptr9const_ptr33_$LT$impl$u20$$BP$const$u20$T$GT$7sub_ptr17h0102315fd9aeb6cbE
	movq	-136(%rbp), %rdi
	movq	%rax, %rcx
	movq	%rcx, -128(%rbp)
	movq	%rax, -64(%rbp)
Ltmp52:
	.loc	6 683 31 is_stmt 1
	callq	__ZN102_$LT$core..str..iter..CharIndices$u20$as$u20$core..iter..traits..double_ended..DoubleEndedIterator$GT$9next_back17hd6baf8e2e1be68f0E
	movl	%edx, -112(%rbp)
	movq	%rax, -120(%rbp)
	.loc	6 683 16 is_stmt 0
	movl	$1, %eax
	xorl	%ecx, %ecx
	cmpl	$1114112, -112(%rbp)
	cmoveq	%rcx, %rax
	cmpq	$1, %rax
	jne	LBB13_2
	.loc	6 0 16
	movq	-136(%rbp), %rax
	.loc	6 683 22
	movq	-120(%rbp), %rcx
	movq	%rcx, -184(%rbp)
	movq	%rcx, -56(%rbp)
	.loc	6 683 25
	movl	-112(%rbp), %ecx
	movl	%ecx, -172(%rbp)
	movl	%ecx, -44(%rbp)
	.loc	6 684 23 is_stmt 1
	movq	%rax, -40(%rbp)
Ltmp53:
	.loc	4 16 21
	movq	8(%rax), %rsi
	movq	%rsi, -32(%rbp)
Ltmp54:
	.loc	4 25 22
	movq	(%rax), %rdi
	.loc	4 25 40 is_stmt 0
	movq	%rsi, -24(%rbp)
	.loc	4 25 22
	callq	__ZN4core3ptr9const_ptr33_$LT$impl$u20$$BP$const$u20$T$GT$7sub_ptr17h0102315fd9aeb6cbE
	movq	-160(%rbp), %rdi
	movl	-172(%rbp), %esi
	movq	%rax, %rcx
	movq	-128(%rbp), %rax
	movq	%rcx, -16(%rbp)
Ltmp55:
	.loc	6 685 28 is_stmt 1
	subq	%rcx, %rax
	movq	%rax, -168(%rbp)
	movq	%rax, -8(%rbp)
Ltmp56:
	.loc	6 686 16
	callq	__ZN53_$LT$F$u20$as$u20$core..str..pattern..MultiCharEq$GT$7matches17hb66ea7ec6f3e785eE
	testb	$1, %al
	jne	LBB13_5
	jmp	LBB13_4
Ltmp57:
LBB13_2:
	.loc	6 0 16 is_stmt 0
	movq	-152(%rbp), %rax
	.loc	6 692 9 is_stmt 1
	movq	$2, (%rax)
Ltmp58:
LBB13_3:
	.loc	6 0 9 is_stmt 0
	movq	-144(%rbp), %rax
	.loc	6 693 6 is_stmt 1
	addq	$192, %rsp
	popq	%rbp
	retq
LBB13_4:
	.loc	6 0 6 is_stmt 0
	movq	-152(%rbp), %rax
	movq	-184(%rbp), %rdx
	movq	-168(%rbp), %rsi
Ltmp59:
	.loc	6 689 46 is_stmt 1
	movq	%rdx, %rcx
	addq	%rsi, %rcx
	.loc	6 689 24 is_stmt 0
	movq	%rdx, 8(%rax)
	movq	%rcx, 16(%rax)
	movq	$1, (%rax)
	.loc	6 689 17
	jmp	LBB13_6
LBB13_5:
	.loc	6 0 17
	movq	-152(%rbp), %rax
	movq	-184(%rbp), %rdx
	movq	-168(%rbp), %rsi
	.loc	6 687 45 is_stmt 1
	movq	%rdx, %rcx
	addq	%rsi, %rcx
	.loc	6 687 24 is_stmt 0
	movq	%rdx, 8(%rax)
	movq	%rcx, 16(%rax)
	movq	$0, (%rax)
Ltmp60:
LBB13_6:
	.loc	6 693 6 is_stmt 1
	jmp	LBB13_3
Ltmp61:
Lfunc_end13:
	.cfi_endproc

	.globl	__ZN106_$LT$core..ops..range..Range$LT$usize$GT$$u20$as$u20$core..slice..index..SliceIndex$LT$$u5b$T$u5d$$GT$$GT$13get_unchecked17h8f5d02656fd4264fE
	.p2align	4, 0x90
__ZN106_$LT$core..ops..range..Range$LT$usize$GT$$u20$as$u20$core..slice..index..SliceIndex$LT$$u5b$T$u5d$$GT$$GT$13get_unchecked17h8f5d02656fd4264fE:
Lfunc_begin14:
	.file	7 "/rustc/2c8cc343237b8f7d5a3c3703e3a87f2eb2c54a74/library/core/src/slice" "index.rs"
	.loc	7 373 0
	.cfi_startproc
	pushq	%rbp
	.cfi_def_cfa_offset 16
	.cfi_offset %rbp, -16
	movq	%rsp, %rbp
	.cfi_def_cfa_register %rbp
	subq	$160, %rsp
	movq	%rdi, -128(%rbp)
	movq	%rsi, -120(%rbp)
	movq	%rdx, -112(%rbp)
	movq	%rcx, -104(%rbp)
Ltmp62:
	.loc	7 386 39 prologue_end
	movq	%rdx, -96(%rbp)
	movq	%rcx, -88(%rbp)
Ltmp63:
	.file	8 "/rustc/2c8cc343237b8f7d5a3c3703e3a87f2eb2c54a74/library/core/src/ptr" "const_ptr.rs"
	.loc	8 1650 9
	movq	%rdx, -80(%rbp)
Ltmp64:
	.loc	7 386 58
	movq	%rdi, -72(%rbp)
Ltmp65:
	.loc	8 932 18
	movq	%rdx, -64(%rbp)
	.loc	8 932 30 is_stmt 0
	movq	%rdi, -56(%rbp)
Ltmp66:
	.loc	8 473 18 is_stmt 1
	addq	%rdi, %rdx
	movq	%rdx, -48(%rbp)
	movq	-48(%rbp), %rax
	movq	%rax, -40(%rbp)
Ltmp67:
	.loc	7 386 71
	subq	%rdi, %rsi
	movq	%rsi, -32(%rbp)
Ltmp68:
	.file	9 "/rustc/2c8cc343237b8f7d5a3c3703e3a87f2eb2c54a74/library/core/src/ptr" "mod.rs"
	.loc	9 734 20
	movq	%rax, -24(%rbp)
Ltmp69:
	.loc	8 61 9
	movq	%rax, -16(%rbp)
Ltmp70:
	.loc	9 734 33
	movq	%rsi, -8(%rbp)
Ltmp71:
	.file	10 "/rustc/2c8cc343237b8f7d5a3c3703e3a87f2eb2c54a74/library/core/src/ptr" "metadata.rs"
	.loc	10 118 36
	movq	%rax, -144(%rbp)
	movq	%rsi, -136(%rbp)
	.loc	10 118 14 is_stmt 0
	movq	-144(%rbp), %rcx
	movq	-136(%rbp), %rax
	movq	%rcx, -160(%rbp)
	movq	%rax, -152(%rbp)
	movq	-160(%rbp), %rax
	movq	-152(%rbp), %rdx
Ltmp72:
	.loc	7 388 6 is_stmt 1
	addq	$160, %rsp
	popq	%rbp
	retq
Ltmp73:
Lfunc_end14:
	.cfi_endproc

	.globl	__ZN106_$LT$core..ops..range..Range$LT$usize$GT$$u20$as$u20$core..slice..index..SliceIndex$LT$$u5b$T$u5d$$GT$$GT$17get_unchecked_mut17h5b2e8cf0c8fefcd5E
	.p2align	4, 0x90
__ZN106_$LT$core..ops..range..Range$LT$usize$GT$$u20$as$u20$core..slice..index..SliceIndex$LT$$u5b$T$u5d$$GT$$GT$17get_unchecked_mut17h5b2e8cf0c8fefcd5E:
Lfunc_begin15:
	.loc	7 391 0
	.cfi_startproc
	pushq	%rbp
	.cfi_def_cfa_offset 16
	.cfi_offset %rbp, -16
	movq	%rsp, %rbp
	.cfi_def_cfa_register %rbp
	subq	$160, %rsp
	movq	%rdi, -128(%rbp)
	movq	%rsi, -120(%rbp)
	movq	%rdx, -112(%rbp)
	movq	%rcx, -104(%rbp)
Ltmp74:
	.loc	7 400 43 prologue_end
	movq	%rdx, -96(%rbp)
	movq	%rcx, -88(%rbp)
Ltmp75:
	.file	11 "/rustc/2c8cc343237b8f7d5a3c3703e3a87f2eb2c54a74/library/core/src/ptr" "mut_ptr.rs"
	.loc	11 2037 9
	movq	%rdx, -80(%rbp)
Ltmp76:
	.loc	7 400 66
	movq	%rdi, -72(%rbp)
Ltmp77:
	.loc	11 1034 18
	movq	%rdx, -64(%rbp)
	.loc	11 1034 30 is_stmt 0
	movq	%rdi, -56(%rbp)
Ltmp78:
	.loc	11 487 18 is_stmt 1
	addq	%rdi, %rdx
	movq	%rdx, -48(%rbp)
	movq	-48(%rbp), %rax
	movq	%rax, -40(%rbp)
Ltmp79:
	.loc	7 400 79
	subq	%rdi, %rsi
	movq	%rsi, -32(%rbp)
Ltmp80:
	.loc	9 766 24
	movq	%rax, -24(%rbp)
Ltmp81:
	.loc	11 60 9
	movq	%rax, -16(%rbp)
Ltmp82:
	.loc	9 766 37
	movq	%rsi, -8(%rbp)
Ltmp83:
	.loc	10 135 36
	movq	%rax, -144(%rbp)
	movq	%rsi, -136(%rbp)
	.loc	10 135 14 is_stmt 0
	movq	-144(%rbp), %rcx
	movq	-136(%rbp), %rax
	movq	%rcx, -160(%rbp)
	movq	%rax, -152(%rbp)
	movq	-160(%rbp), %rax
	movq	-152(%rbp), %rdx
Ltmp84:
	.loc	7 402 6 is_stmt 1
	addq	$160, %rsp
	popq	%rbp
	retq
Ltmp85:
Lfunc_end15:
	.cfi_endproc

	.globl	__ZN106_$LT$core..ops..range..Range$LT$usize$GT$$u20$as$u20$core..slice..index..SliceIndex$LT$$u5b$T$u5d$$GT$$GT$3get17hbc1b9c66f8927e93E
	.p2align	4, 0x90
__ZN106_$LT$core..ops..range..Range$LT$usize$GT$$u20$as$u20$core..slice..index..SliceIndex$LT$$u5b$T$u5d$$GT$$GT$3get17hbc1b9c66f8927e93E:
Lfunc_begin16:
	.loc	7 353 0
	.cfi_startproc
	pushq	%rbp
	.cfi_def_cfa_offset 16
	.cfi_offset %rbp, -16
	movq	%rsp, %rbp
	.cfi_def_cfa_register %rbp
	subq	$96, %rsp
	movq	%rdi, -88(%rbp)
	movq	%rsi, -80(%rbp)
	movq	%rdx, -72(%rbp)
	movq	%rcx, -64(%rbp)
	movq	%rdi, -32(%rbp)
	movq	%rsi, -24(%rbp)
	movq	%rdx, -16(%rbp)
	movq	%rcx, -8(%rbp)
Ltmp86:
	.loc	7 354 12 prologue_end
	cmpq	%rsi, %rdi
	ja	LBB16_2
	.loc	7 0 12 is_stmt 0
	movq	-80(%rbp), %rax
	movq	-64(%rbp), %rcx
	.loc	7 354 37
	cmpq	%rcx, %rax
	seta	%al
	.loc	7 354 12
	andb	$1, %al
	movb	%al, -33(%rbp)
	jmp	LBB16_3
LBB16_2:
	movb	$1, -33(%rbp)
LBB16_3:
	testb	$1, -33(%rbp)
	jne	LBB16_5
	.loc	7 0 12
	movq	-64(%rbp), %rcx
	movq	-72(%rbp), %rdx
	movq	-80(%rbp), %rsi
	movq	-88(%rbp), %rdi
	.loc	7 358 29 is_stmt 1
	callq	__ZN106_$LT$core..ops..range..Range$LT$usize$GT$$u20$as$u20$core..slice..index..SliceIndex$LT$$u5b$T$u5d$$GT$$GT$13get_unchecked17h8f5d02656fd4264fE
	.loc	7 358 22 is_stmt 0
	movq	%rax, -56(%rbp)
	movq	%rdx, -48(%rbp)
	.loc	7 354 9 is_stmt 1
	jmp	LBB16_6
LBB16_5:
	.loc	7 355 13
	movq	$0, -56(%rbp)
LBB16_6:
	.loc	7 360 6
	movq	-56(%rbp), %rax
	movq	-48(%rbp), %rdx
	addq	$96, %rsp
	popq	%rbp
	retq
Ltmp87:
Lfunc_end16:
	.cfi_endproc

	.globl	__ZN106_$LT$core..ops..range..Range$LT$usize$GT$$u20$as$u20$core..slice..index..SliceIndex$LT$$u5b$T$u5d$$GT$$GT$5index17h9aa3cceec941da78E
	.p2align	4, 0x90
__ZN106_$LT$core..ops..range..Range$LT$usize$GT$$u20$as$u20$core..slice..index..SliceIndex$LT$$u5b$T$u5d$$GT$$GT$5index17h9aa3cceec941da78E:
Lfunc_begin17:
	.loc	7 405 0
	.cfi_startproc
	pushq	%rbp
	.cfi_def_cfa_offset 16
	.cfi_offset %rbp, -16
	movq	%rsp, %rbp
	.cfi_def_cfa_register %rbp
	subq	$80, %rsp
	movq	%rdi, -72(%rbp)
	movq	%rsi, -64(%rbp)
	movq	%rdx, -56(%rbp)
	movq	%rcx, -48(%rbp)
	movq	%r8, -40(%rbp)
	movq	%rdi, -32(%rbp)
	movq	%rsi, -24(%rbp)
	movq	%rdx, -16(%rbp)
	movq	%rcx, -8(%rbp)
Ltmp88:
	.loc	7 406 12 prologue_end
	cmpq	%rsi, %rdi
	ja	LBB17_2
	.loc	7 0 12 is_stmt 0
	movq	-64(%rbp), %rax
	movq	-48(%rbp), %rcx
	.loc	7 408 19 is_stmt 1
	cmpq	%rcx, %rax
	ja	LBB17_4
	jmp	LBB17_3
LBB17_2:
	.loc	7 0 19 is_stmt 0
	movq	-40(%rbp), %rdx
	movq	-64(%rbp), %rsi
	movq	-72(%rbp), %rdi
	.loc	7 407 13 is_stmt 1
	callq	__ZN4core5slice5index22slice_index_order_fail17h0d8f800a07d5f26eE
LBB17_3:
	.loc	7 0 13 is_stmt 0
	movq	-48(%rbp), %rcx
	movq	-56(%rbp), %rdx
	movq	-64(%rbp), %rsi
	movq	-72(%rbp), %rdi
	.loc	7 412 20 is_stmt 1
	callq	__ZN106_$LT$core..ops..range..Range$LT$usize$GT$$u20$as$u20$core..slice..index..SliceIndex$LT$$u5b$T$u5d$$GT$$GT$13get_unchecked17h8f5d02656fd4264fE
	.loc	7 413 6
	addq	$80, %rsp
	popq	%rbp
	retq
LBB17_4:
	.loc	7 0 6 is_stmt 0
	movq	-40(%rbp), %rdx
	movq	-48(%rbp), %rsi
	movq	-64(%rbp), %rdi
	.loc	7 409 13 is_stmt 1
	callq	__ZN4core5slice5index24slice_end_index_len_fail17hc921cb2f1513645aE
Ltmp89:
Lfunc_end17:
	.cfi_endproc

	.globl	__ZN106_$LT$core..ops..range..Range$LT$usize$GT$$u20$as$u20$core..slice..index..SliceIndex$LT$$u5b$T$u5d$$GT$$GT$9index_mut17he3c01561ac4a9fbbE
	.p2align	4, 0x90
__ZN106_$LT$core..ops..range..Range$LT$usize$GT$$u20$as$u20$core..slice..index..SliceIndex$LT$$u5b$T$u5d$$GT$$GT$9index_mut17he3c01561ac4a9fbbE:
Lfunc_begin18:
	.loc	7 416 0
	.cfi_startproc
	pushq	%rbp
	.cfi_def_cfa_offset 16
	.cfi_offset %rbp, -16
	movq	%rsp, %rbp
	.cfi_def_cfa_register %rbp
	subq	$80, %rsp
	movq	%rdi, -72(%rbp)
	movq	%rsi, -64(%rbp)
	movq	%rdx, -56(%rbp)
	movq	%rcx, -48(%rbp)
	movq	%r8, -40(%rbp)
	movq	%rdi, -32(%rbp)
	movq	%rsi, -24(%rbp)
	movq	%rdx, -16(%rbp)
	movq	%rcx, -8(%rbp)
Ltmp90:
	.loc	7 417 12 prologue_end
	cmpq	%rsi, %rdi
	ja	LBB18_2
	.loc	7 0 12 is_stmt 0
	movq	-64(%rbp), %rax
	movq	-48(%rbp), %rcx
	.loc	7 419 19 is_stmt 1
	cmpq	%rcx, %rax
	ja	LBB18_4
	jmp	LBB18_3
LBB18_2:
	.loc	7 0 19 is_stmt 0
	movq	-40(%rbp), %rdx
	movq	-64(%rbp), %rsi
	movq	-72(%rbp), %rdi
	.loc	7 418 13 is_stmt 1
	callq	__ZN4core5slice5index22slice_index_order_fail17h0d8f800a07d5f26eE
LBB18_3:
	.loc	7 0 13 is_stmt 0
	movq	-48(%rbp), %rcx
	movq	-56(%rbp), %rdx
	movq	-64(%rbp), %rsi
	movq	-72(%rbp), %rdi
	.loc	7 423 24 is_stmt 1
	callq	__ZN106_$LT$core..ops..range..Range$LT$usize$GT$$u20$as$u20$core..slice..index..SliceIndex$LT$$u5b$T$u5d$$GT$$GT$17get_unchecked_mut17h5b2e8cf0c8fefcd5E
	.loc	7 424 6
	addq	$80, %rsp
	popq	%rbp
	retq
LBB18_4:
	.loc	7 0 6 is_stmt 0
	movq	-40(%rbp), %rdx
	movq	-48(%rbp), %rsi
	movq	-64(%rbp), %rdi
	.loc	7 420 13 is_stmt 1
	callq	__ZN4core5slice5index24slice_end_index_len_fail17hc921cb2f1513645aE
Ltmp91:
Lfunc_end18:
	.cfi_endproc

	.globl	__ZN106_$LT$core..slice..iter..Iter$LT$T$GT$$u20$as$u20$core..iter..traits..double_ended..DoubleEndedIterator$GT$9next_back17hdac69447e082c56aE
	.p2align	4, 0x90
__ZN106_$LT$core..slice..iter..Iter$LT$T$GT$$u20$as$u20$core..iter..traits..double_ended..DoubleEndedIterator$GT$9next_back17hdac69447e082c56aE:
Lfunc_begin19:
	.loc	4 339 0
	.cfi_startproc
	pushq	%rbp
	.cfi_def_cfa_offset 16
	.cfi_offset %rbp, -16
	movq	%rsp, %rbp
	.cfi_def_cfa_register %rbp
	subq	$264, %rsp
	movq	%rdi, -264(%rbp)
	movq	%rdi, -208(%rbp)
Ltmp92:
	.loc	4 347 29 prologue_end
	movq	8(%rdi), %rax
	movq	%rax, -192(%rbp)
Ltmp93:
	.file	12 "/rustc/2c8cc343237b8f7d5a3c3703e3a87f2eb2c54a74/library/core/src/ptr" "non_null.rs"
	.loc	12 326 9
	movq	%rax, -184(%rbp)
Ltmp94:
	.loc	11 52 36
	movq	%rax, -240(%rbp)
	.loc	11 52 18 is_stmt 0
	movq	-240(%rbp), %rax
	movq	%rax, -176(%rbp)
Ltmp95:
	.loc	11 38 13 is_stmt 1
	movq	%rax, -168(%rbp)
Ltmp96:
	.loc	11 215 33
	movq	%rax, -160(%rbp)
	.loc	11 215 18 is_stmt 0
	movq	%rax, -152(%rbp)
Ltmp97:
	.loc	4 348 24 is_stmt 1
	movb	$1, %al
	testb	$1, %al
	jne	LBB19_2
LBB19_1:
	.loc	4 0 24 is_stmt 0
	movq	-264(%rbp), %rcx
	.loc	4 351 24 is_stmt 1
	movq	8(%rcx), %rax
	movq	%rax, -104(%rbp)
	cmpq	(%rcx), %rax
	je	LBB19_4
	jmp	LBB19_3
LBB19_2:
	.loc	4 0 24 is_stmt 0
	movq	-264(%rbp), %rax
	.loc	4 349 33 is_stmt 1
	movq	(%rax), %rax
	movq	%rax, -144(%rbp)
Ltmp98:
	.loc	8 53 36
	movq	%rax, -232(%rbp)
	.loc	8 53 18 is_stmt 0
	movq	-232(%rbp), %rax
	movq	%rax, -136(%rbp)
Ltmp99:
	.loc	8 39 13 is_stmt 1
	movq	%rax, -128(%rbp)
Ltmp100:
	.loc	8 209 33
	movq	%rax, -120(%rbp)
	.loc	8 209 18 is_stmt 0
	movq	%rax, -112(%rbp)
Ltmp101:
	.loc	4 348 21 is_stmt 1
	jmp	LBB19_1
LBB19_3:
	.loc	4 0 21 is_stmt 0
	movq	-264(%rbp), %rax
	.loc	4 354 30 is_stmt 1
	movq	%rax, -96(%rbp)
Ltmp102:
	.loc	4 93 20
	xorl	%eax, %eax
	testb	$1, %al
	jne	LBB19_7
	jmp	LBB19_6
Ltmp103:
LBB19_4:
	.loc	4 352 25
	movq	$0, -256(%rbp)
LBB19_5:
	.loc	4 357 14
	movq	-256(%rbp), %rax
	addq	$264, %rsp
	popq	%rbp
	retq
LBB19_6:
	.loc	4 0 14 is_stmt 0
	movq	-264(%rbp), %rax
Ltmp104:
	.loc	4 100 41 is_stmt 1
	movq	(%rax), %rcx
	movq	%rcx, -24(%rbp)
Ltmp105:
	.loc	8 1017 18
	movq	%rcx, -16(%rbp)
Ltmp106:
	.loc	8 473 18
	addq	$-1, %rcx
	movq	%rcx, -8(%rbp)
	movq	-8(%rbp), %rcx
Ltmp107:
	.loc	4 100 21
	movq	%rcx, (%rax)
	.loc	4 101 21
	movq	(%rax), %rax
	movq	%rax, -248(%rbp)
	.loc	4 93 17
	jmp	LBB19_8
LBB19_7:
	.loc	4 0 17 is_stmt 0
	movq	-264(%rbp), %rax
	.loc	4 57 29 is_stmt 1
	movq	(%rax), %rcx
	movq	%rcx, -88(%rbp)
Ltmp108:
	.loc	8 1198 9
	movq	%rcx, -80(%rbp)
Ltmp109:
	.loc	8 61 9
	movq	%rcx, -72(%rbp)
Ltmp110:
	.loc	8 1180 9
	movq	%rcx, -64(%rbp)
Ltmp111:
	.loc	8 555 18
	addq	$-1, %rcx
	movq	%rcx, -56(%rbp)
	movq	-56(%rbp), %rcx
	movq	%rcx, -48(%rbp)
Ltmp112:
	.loc	8 100 29
	movq	%rcx, -40(%rbp)
Ltmp113:
	.loc	10 118 36
	movq	%rcx, -216(%rbp)
	.loc	10 118 14 is_stmt 0
	movq	-216(%rbp), %rcx
	movq	%rcx, -224(%rbp)
	movq	-224(%rbp), %rcx
Ltmp114:
	.loc	4 57 17 is_stmt 1
	movq	%rcx, (%rax)
	.loc	4 95 21
	movq	8(%rax), %rax
	movq	%rax, -32(%rbp)
	movq	%rax, -248(%rbp)
Ltmp115:
LBB19_8:
	.loc	4 354 30
	movq	-248(%rbp), %rax
	.loc	4 354 25 is_stmt 0
	movq	%rax, -256(%rbp)
	.loc	4 351 21 is_stmt 1
	jmp	LBB19_5
Ltmp116:
Lfunc_end19:
	.cfi_endproc

	.globl	__ZN106_$LT$core..str..pattern..CharPredicateSearcher$LT$F$GT$$u20$as$u20$core..str..pattern..ReverseSearcher$GT$16next_reject_back17h052778d2f7204928E
	.p2align	4, 0x90
__ZN106_$LT$core..str..pattern..CharPredicateSearcher$LT$F$GT$$u20$as$u20$core..str..pattern..ReverseSearcher$GT$16next_reject_back17h052778d2f7204928E:
Lfunc_begin20:
	.loc	6 771 0
	.cfi_startproc
	pushq	%rbp
	.cfi_def_cfa_offset 16
	.cfi_offset %rbp, -16
	movq	%rsp, %rbp
	.cfi_def_cfa_register %rbp
	subq	$16, %rsp
	movq	%rdi, %rax
	movq	%rax, -16(%rbp)
	movq	%rsi, -8(%rbp)
Ltmp117:
	.loc	6 772 13 prologue_end
	callq	__ZN4core3str7pattern15ReverseSearcher16next_reject_back17h3d116ffb7428afd9E
	movq	-16(%rbp), %rax
	.loc	6 773 10
	addq	$16, %rsp
	popq	%rbp
	retq
Ltmp118:
Lfunc_end20:
	.cfi_endproc

	.globl	__ZN108_$LT$core..iter..adapters..filter..Filter$LT$I$C$P$GT$$u20$as$u20$core..iter..traits..iterator..Iterator$GT$4next17h9f6ba1e4717e7ec9E
	.p2align	4, 0x90
__ZN108_$LT$core..iter..adapters..filter..Filter$LT$I$C$P$GT$$u20$as$u20$core..iter..traits..iterator..Iterator$GT$4next17h9f6ba1e4717e7ec9E:
Lfunc_begin21:
	.file	13 "/rustc/2c8cc343237b8f7d5a3c3703e3a87f2eb2c54a74/library/core/src/iter/adapters" "filter.rs"
	.loc	13 55 0
	.cfi_startproc
	pushq	%rbp
	.cfi_def_cfa_offset 16
	.cfi_offset %rbp, -16
	movq	%rsp, %rbp
	.cfi_def_cfa_register %rbp
	subq	$16, %rsp
	movq	%rdi, %rsi
	movq	%rsi, -8(%rbp)
Ltmp119:
	.loc	13 56 9 prologue_end
	movq	%rsi, %rdi
	callq	__ZN4core4iter6traits8iterator8Iterator4find17h42bb94fb48fcd4aaE
	.loc	13 57 6
	addq	$16, %rsp
	popq	%rbp
	retq
Ltmp120:
Lfunc_end21:
	.cfi_endproc

	.globl	__ZN108_$LT$core..iter..adapters..filter..Filter$LT$I$C$P$GT$$u20$as$u20$core..iter..traits..iterator..Iterator$GT$9size_hint17hc9bd49b0443a5f74E
	.p2align	4, 0x90
__ZN108_$LT$core..iter..adapters..filter..Filter$LT$I$C$P$GT$$u20$as$u20$core..iter..traits..iterator..Iterator$GT$9size_hint17hc9bd49b0443a5f74E:
Lfunc_begin22:
	.loc	13 60 0
	.cfi_startproc
	pushq	%rbp
	.cfi_def_cfa_offset 16
	.cfi_offset %rbp, -16
	movq	%rsp, %rbp
	.cfi_def_cfa_register %rbp
	subq	$64, %rsp
	movq	%rdi, -64(%rbp)
	movq	%rdi, -56(%rbp)
	movq	%rsi, -24(%rbp)
Ltmp121:
	.loc	13 61 26 prologue_end
	leaq	-48(%rbp), %rdi
	callq	__ZN102_$LT$core..iter..adapters..map..Map$LT$I$C$F$GT$$u20$as$u20$core..iter..traits..iterator..Iterator$GT$9size_hint17hacad417752eb1386E
	movq	-64(%rbp), %rdi
	movq	-56(%rbp), %rax
	.loc	13 61 17 is_stmt 0
	movq	-40(%rbp), %rdx
	movq	-32(%rbp), %rcx
	movq	%rdx, -16(%rbp)
	movq	%rcx, -8(%rbp)
Ltmp122:
	.loc	13 62 9 is_stmt 1
	movq	$0, (%rdi)
	movq	%rdx, 8(%rdi)
	movq	%rcx, 16(%rdi)
Ltmp123:
	.loc	13 63 6
	addq	$64, %rsp
	popq	%rbp
	retq
Ltmp124:
Lfunc_end22:
	.cfi_endproc

	.globl	__ZN110_$LT$core..ops..range..RangeFrom$LT$usize$GT$$u20$as$u20$core..slice..index..SliceIndex$LT$$u5b$T$u5d$$GT$$GT$5index17hfbdeb5d99ade3a35E
	.p2align	4, 0x90
__ZN110_$LT$core..ops..range..RangeFrom$LT$usize$GT$$u20$as$u20$core..slice..index..SliceIndex$LT$$u5b$T$u5d$$GT$$GT$5index17hfbdeb5d99ade3a35E:
Lfunc_begin23:
	.loc	7 493 0
	.cfi_startproc
	pushq	%rbp
	.cfi_def_cfa_offset 16
	.cfi_offset %rbp, -16
	movq	%rsp, %rbp
	.cfi_def_cfa_register %rbp
	subq	$144, %rsp
	movq	%rdi, -144(%rbp)
	movq	%rsi, -136(%rbp)
	movq	%rdx, -128(%rbp)
	movq	%rcx, -120(%rbp)
	movq	%rdi, -80(%rbp)
	movq	%rsi, -72(%rbp)
	movq	%rdx, -64(%rbp)
Ltmp125:
	.loc	7 494 12 prologue_end
	cmpq	%rdx, %rdi
	ja	LBB23_2
	.loc	7 0 12 is_stmt 0
	movq	-128(%rbp), %rcx
	movq	-136(%rbp), %rdx
	movq	-144(%rbp), %rsi
	.loc	7 498 20 is_stmt 1
	movq	%rsi, -56(%rbp)
	.loc	7 498 39 is_stmt 0
	movq	%rdx, -48(%rbp)
	movq	%rcx, -40(%rbp)
Ltmp126:
	.loc	7 483 31 is_stmt 1
	movq	%rdx, -32(%rbp)
	movq	%rcx, -24(%rbp)
Ltmp127:
	.loc	8 1630 18
	movq	%rdx, -16(%rbp)
	movq	%rcx, -8(%rbp)
Ltmp128:
	.loc	10 98 14
	movq	%rdx, -96(%rbp)
	movq	%rcx, -88(%rbp)
	movq	-88(%rbp), %rax
Ltmp129:
	.loc	7 483 18
	movq	%rsi, -112(%rbp)
	movq	%rax, -104(%rbp)
	movq	-112(%rbp), %rdi
	movq	-104(%rbp), %rsi
	callq	__ZN106_$LT$core..ops..range..Range$LT$usize$GT$$u20$as$u20$core..slice..index..SliceIndex$LT$$u5b$T$u5d$$GT$$GT$13get_unchecked17h8f5d02656fd4264fE
Ltmp130:
	.loc	7 499 6
	addq	$144, %rsp
	popq	%rbp
	retq
LBB23_2:
	.loc	7 0 6 is_stmt 0
	movq	-120(%rbp), %rdx
	movq	-128(%rbp), %rsi
	movq	-144(%rbp), %rdi
	.loc	7 495 13 is_stmt 1
	callq	__ZN4core5slice5index26slice_start_index_len_fail17h9d301bb51ec3e351E
Ltmp131:
Lfunc_end23:
	.cfi_endproc

	.globl	__ZN111_$LT$alloc..vec..Vec$LT$T$GT$$u20$as$u20$alloc..vec..spec_from_iter_nested..SpecFromIterNested$LT$T$C$I$GT$$GT$9from_iter17h55f1e4dc45eb68f9E
	.p2align	4, 0x90
__ZN111_$LT$alloc..vec..Vec$LT$T$GT$$u20$as$u20$alloc..vec..spec_from_iter_nested..SpecFromIterNested$LT$T$C$I$GT$$GT$9from_iter17h55f1e4dc45eb68f9E:
Lfunc_begin24:
	.file	14 "/rustc/2c8cc343237b8f7d5a3c3703e3a87f2eb2c54a74/library/alloc/src/vec" "spec_from_iter_nested.rs"
	.loc	14 20 0
	.cfi_startproc
	.cfi_personality 155, _rust_eh_personality
	.cfi_lsda 16, Lexception2
	pushq	%rbp
	.cfi_def_cfa_offset 16
	.cfi_offset %rbp, -16
	movq	%rsp, %rbp
	.cfi_def_cfa_register %rbp
	subq	$512, %rsp
	movq	%rsi, -464(%rbp)
Ltmp150:
	movq	%rdi, -456(%rbp)
	movq	%rdi, -448(%rbp)
Ltmp151:
	.loc	14 26 13 prologue_end
	movb	$1, -218(%rbp)
Ltmp132:
	leaq	-416(%rbp), %rdi
	.loc	14 26 32 is_stmt 0
	callq	__ZN102_$LT$core..iter..adapters..map..Map$LT$I$C$F$GT$$u20$as$u20$core..iter..traits..iterator..Iterator$GT$4next17h55436cb0e5282f9eE
Ltmp152:
Ltmp133:
	jmp	LBB24_3
Ltmp153:
LBB24_1:
	.loc	14 45 5 is_stmt 1
	testb	$1, -218(%rbp)
	jne	LBB24_19
	jmp	LBB24_18
Ltmp154:
LBB24_2:
Ltmp134:
	.loc	14 0 5 is_stmt 0
	movq	%rax, %rcx
	movl	%edx, %eax
	movq	%rcx, -192(%rbp)
	movl	%eax, -184(%rbp)
	jmp	LBB24_1
Ltmp155:
LBB24_3:
	.loc	14 26 32 is_stmt 1
	movq	-408(%rbp), %rdx
	movl	$1, %eax
	xorl	%ecx, %ecx
	cmpq	$0, %rdx
	cmoveq	%rcx, %rax
	.loc	14 26 26 is_stmt 0
	cmpq	$0, %rax
	jne	LBB24_5
Ltmp156:
	.loc	14 0 26
	movq	-456(%rbp), %rax
Ltmp157:
	.file	15 "/rustc/2c8cc343237b8f7d5a3c3703e3a87f2eb2c54a74/library/alloc/src/vec" "mod.rs"
	.loc	15 425 20 is_stmt 1
	movq	L___unnamed_18(%rip), %rdx
	movq	L___unnamed_18+8(%rip), %rcx
	.loc	15 425 9 is_stmt 0
	movq	%rdx, (%rax)
	movq	%rcx, 8(%rax)
	movq	$0, 16(%rax)
Ltmp158:
	.loc	14 45 5 is_stmt 1
	jmp	LBB24_20
Ltmp159:
LBB24_5:
	.loc	14 0 5 is_stmt 0
	movq	-464(%rbp), %rsi
	.loc	14 28 18 is_stmt 1
	movq	-400(%rbp), %rax
	movq	%rax, -376(%rbp)
	movq	-416(%rbp), %rax
	movq	-408(%rbp), %rcx
	movq	%rcx, -384(%rbp)
	movq	%rax, -392(%rbp)
Ltmp135:
	leaq	-368(%rbp), %rdi
Ltmp160:
	.loc	14 29 34
	callq	__ZN102_$LT$core..iter..adapters..map..Map$LT$I$C$F$GT$$u20$as$u20$core..iter..traits..iterator..Iterator$GT$9size_hint17h884f427e57e12b48E
Ltmp136:
	jmp	LBB24_8
Ltmp161:
LBB24_6:
	.loc	14 39 13
	movb	$1, %al
	testb	$1, %al
	jne	LBB24_14
	jmp	LBB24_1
Ltmp162:
LBB24_7:
Ltmp141:
	.loc	14 0 13 is_stmt 0
	movq	%rax, %rcx
	movl	%edx, %eax
	movq	%rcx, -192(%rbp)
	movl	%eax, -184(%rbp)
	jmp	LBB24_6
Ltmp163:
LBB24_8:
	.loc	14 29 22 is_stmt 1
	movq	-368(%rbp), %rax
	movq	%rax, -176(%rbp)
Ltmp164:
	.loc	14 31 61
	movq	%rax, -168(%rbp)
Ltmp165:
	.file	16 "/rustc/2c8cc343237b8f7d5a3c3703e3a87f2eb2c54a74/library/core/src/num" "uint_macros.rs"
	.loc	16 1022 13
	incq	%rax
	movq	$-1, %rcx
	cmoveq	%rcx, %rax
	movq	%rax, -160(%rbp)
	movq	-160(%rbp), %rax
	movq	%rax, -472(%rbp)
	movq	%rax, -152(%rbp)
Ltmp166:
	.loc	16 0 13 is_stmt 0
	movq	-472(%rbp), %rsi
	.loc	14 31 21 is_stmt 1
	movq	$4, -144(%rbp)
Ltmp167:
	.file	17 "/rustc/2c8cc343237b8f7d5a3c3703e3a87f2eb2c54a74/library/core/src" "cmp.rs"
	.loc	17 1276 5
	movq	$4, -136(%rbp)
	.loc	17 1276 12 is_stmt 0
	movq	%rsi, -128(%rbp)
Ltmp137:
	movl	$4, %edi
Ltmp168:
	.loc	17 803 13 is_stmt 1
	callq	__ZN4core3cmp6max_by17h13f7b8ee2fc50dc2E
Ltmp138:
	movq	%rax, -480(%rbp)
	jmp	LBB24_10
Ltmp169:
LBB24_10:
	.loc	17 0 13 is_stmt 0
	movq	-480(%rbp), %rdi
	.loc	17 803 13
	movq	%rdi, -120(%rbp)
Ltmp170:
	.loc	14 32 53 is_stmt 1
	movq	%rdi, -112(%rbp)
Ltmp171:
	.loc	15 483 32
	movq	%rdi, -104(%rbp)
Ltmp172:
	.loc	15 676 45
	movq	%rdi, -96(%rbp)
Ltmp173:
	.file	18 "/rustc/2c8cc343237b8f7d5a3c3703e3a87f2eb2c54a74/library/alloc/src" "raw_vec.rs"
	.loc	18 131 37
	movb	$0, -217(%rbp)
	.loc	18 131 9 is_stmt 0
	movzbl	-217(%rbp), %esi
Ltmp139:
	callq	__ZN5alloc7raw_vec19RawVec$LT$T$C$A$GT$11allocate_in17hfdea594fc9627235E
Ltmp140:
	movq	%rdx, -496(%rbp)
	movq	%rax, -488(%rbp)
	jmp	LBB24_11
Ltmp174:
LBB24_11:
	.loc	18 0 9
	movq	-496(%rbp), %rax
	movq	-488(%rbp), %rcx
	.loc	15 676 9 is_stmt 1
	movq	%rcx, -344(%rbp)
	movq	%rax, -336(%rbp)
	movq	$0, -328(%rbp)
Ltmp175:
	.loc	14 35 32
	leaq	-344(%rbp), %rax
	movq	%rax, -88(%rbp)
Ltmp176:
	.loc	15 1280 19
	leaq	-344(%rbp), %rax
	movq	%rax, -80(%rbp)
Ltmp177:
	.loc	18 224 9
	movq	-336(%rbp), %rax
	movq	%rax, -504(%rbp)
	movq	%rax, -72(%rbp)
Ltmp178:
	.file	19 "/rustc/2c8cc343237b8f7d5a3c3703e3a87f2eb2c54a74/library/core/src/ptr" "unique.rs"
	.loc	19 104 9
	movq	%rax, -64(%rbp)
Ltmp179:
	.loc	12 326 9
	movq	%rax, -56(%rbp)
Ltmp180:
	.loc	15 1282 21
	movq	%rax, -48(%rbp)
Ltmp181:
	.loc	11 52 36
	movq	%rax, -216(%rbp)
	.loc	11 52 18 is_stmt 0
	movq	-216(%rbp), %rax
	movq	%rax, -40(%rbp)
Ltmp182:
	.loc	11 38 13 is_stmt 1
	movq	%rax, -32(%rbp)
Ltmp183:
	.loc	11 215 33
	movq	%rax, -24(%rbp)
	.loc	11 215 18 is_stmt 0
	movq	%rax, -16(%rbp)
	movq	-16(%rbp), %rax
Ltmp184:
	.loc	11 0 18
	movq	-464(%rbp), %rsi
	movq	-504(%rbp), %rax
	.loc	14 35 53 is_stmt 1
	movq	-376(%rbp), %rcx
	movq	%rcx, -304(%rbp)
	movq	-392(%rbp), %rcx
	movq	-384(%rbp), %rdx
	movq	%rdx, -312(%rbp)
	movq	%rcx, -320(%rbp)
Ltmp185:
	.loc	9 1354 9
	movq	-304(%rbp), %rcx
	movq	%rcx, 16(%rax)
	movq	-320(%rbp), %rcx
	movq	-312(%rbp), %rdx
	movq	%rdx, 8(%rax)
	movq	%rcx, (%rax)
	leaq	-344(%rbp), %rax
Ltmp186:
	.loc	14 36 21
	movq	%rax, -8(%rbp)
Ltmp187:
	.loc	15 1377 9
	movq	$1, -328(%rbp)
Ltmp188:
	.loc	14 38 17
	movq	-328(%rbp), %rax
	movq	%rax, -424(%rbp)
	movq	-344(%rbp), %rax
	movq	-336(%rbp), %rcx
	movq	%rcx, -432(%rbp)
	movq	%rax, -440(%rbp)
Ltmp189:
	.loc	14 43 64
	movb	$0, -218(%rbp)
	movl	$9, %ecx
	leaq	-296(%rbp), %rdi
	movq	%rdi, -512(%rbp)
	rep;movsq (%rsi), %es:(%rdi)
	movq	-512(%rbp), %rsi
Ltmp144:
	leaq	-440(%rbp), %rdi
	.loc	14 43 9 is_stmt 0
	callq	__ZN97_$LT$alloc..vec..Vec$LT$T$C$A$GT$$u20$as$u20$alloc..vec..spec_extend..SpecExtend$LT$T$C$I$GT$$GT$11spec_extend17habd839e9c964d114E
Ltmp145:
	jmp	LBB24_17
Ltmp190:
LBB24_13:
Ltmp149:
	.loc	14 20 5 is_stmt 1
	callq	__ZN4core9panicking19panic_cannot_unwind17h1fbca7e1d7f56ae1E
Ltmp191:
LBB24_14:
Ltmp142:
	.loc	14 0 5 is_stmt 0
	leaq	-392(%rbp), %rdi
	.loc	14 39 13 is_stmt 1
	callq	__ZN4core3ptr42drop_in_place$LT$alloc..string..String$GT$17h3cc4b04911fd7e35E
Ltmp143:
	jmp	LBB24_1
Ltmp192:
LBB24_15:
Ltmp147:
	.loc	14 0 13 is_stmt 0
	leaq	-440(%rbp), %rdi
	.loc	14 45 5 is_stmt 1
	callq	__ZN4core3ptr65drop_in_place$LT$alloc..vec..Vec$LT$alloc..string..String$GT$$GT$17ha4c53d31de33447cE
Ltmp148:
	jmp	LBB24_1
Ltmp193:
LBB24_16:
Ltmp146:
	.loc	14 0 5 is_stmt 0
	movq	%rax, %rcx
	movl	%edx, %eax
	movq	%rcx, -192(%rbp)
	movl	%eax, -184(%rbp)
	jmp	LBB24_15
Ltmp194:
LBB24_17:
	movq	-456(%rbp), %rax
Ltmp195:
	.loc	14 44 9 is_stmt 1
	movq	-440(%rbp), %rcx
	movq	%rcx, (%rax)
	movq	-432(%rbp), %rcx
	movq	%rcx, 8(%rax)
	movq	-424(%rbp), %rcx
	movq	%rcx, 16(%rax)
Ltmp196:
	.loc	14 45 5
	jmp	LBB24_20
Ltmp197:
LBB24_18:
	.loc	14 20 5
	movq	-192(%rbp), %rdi
	callq	__Unwind_Resume
Ltmp198:
LBB24_19:
	.loc	14 45 5
	jmp	LBB24_18
Ltmp199:
LBB24_20:
	.loc	14 0 5 is_stmt 0
	movq	-448(%rbp), %rax
	.loc	14 45 6
	addq	$512, %rsp
	popq	%rbp
	retq
Ltmp200:
Lfunc_end24:
	.cfi_endproc
	.section	__TEXT,__gcc_except_tab
	.p2align	2
GCC_except_table24:
Lexception2:
	.byte	255
	.byte	255
	.byte	1
	.uleb128 Lcst_end2-Lcst_begin2
Lcst_begin2:
	.uleb128 Ltmp132-Lfunc_begin24
	.uleb128 Ltmp133-Ltmp132
	.uleb128 Ltmp134-Lfunc_begin24
	.byte	0
	.uleb128 Ltmp135-Lfunc_begin24
	.uleb128 Ltmp140-Ltmp135
	.uleb128 Ltmp141-Lfunc_begin24
	.byte	0
	.uleb128 Ltmp144-Lfunc_begin24
	.uleb128 Ltmp145-Ltmp144
	.uleb128 Ltmp146-Lfunc_begin24
	.byte	0
	.uleb128 Ltmp142-Lfunc_begin24
	.uleb128 Ltmp148-Ltmp142
	.uleb128 Ltmp149-Lfunc_begin24
	.byte	0
	.uleb128 Ltmp148-Lfunc_begin24
	.uleb128 Lfunc_end24-Ltmp148
	.byte	0
	.byte	0
Lcst_end2:
	.p2align	2

	.section	__TEXT,__text,regular,pure_instructions
	.globl	__ZN111_$LT$alloc..vec..Vec$LT$T$GT$$u20$as$u20$alloc..vec..spec_from_iter_nested..SpecFromIterNested$LT$T$C$I$GT$$GT$9from_iter17haba3de6f7cf6ea9dE
	.p2align	4, 0x90
__ZN111_$LT$alloc..vec..Vec$LT$T$GT$$u20$as$u20$alloc..vec..spec_from_iter_nested..SpecFromIterNested$LT$T$C$I$GT$$GT$9from_iter17haba3de6f7cf6ea9dE:
Lfunc_begin25:
	.loc	14 20 0 is_stmt 1
	.cfi_startproc
	.cfi_personality 155, _rust_eh_personality
	.cfi_lsda 16, Lexception3
	pushq	%rbp
	.cfi_def_cfa_offset 16
	.cfi_offset %rbp, -16
	movq	%rsp, %rbp
	.cfi_def_cfa_register %rbp
	subq	$512, %rsp
	movq	%rsi, -464(%rbp)
Ltmp219:
	movq	%rdi, -456(%rbp)
	movq	%rdi, -448(%rbp)
Ltmp220:
	.loc	14 26 13 prologue_end
	movb	$1, -218(%rbp)
Ltmp201:
	leaq	-416(%rbp), %rdi
	.loc	14 26 32 is_stmt 0
	callq	__ZN102_$LT$core..iter..adapters..map..Map$LT$I$C$F$GT$$u20$as$u20$core..iter..traits..iterator..Iterator$GT$4next17hfe970d2abdf5afbcE
Ltmp221:
Ltmp202:
	jmp	LBB25_3
Ltmp222:
LBB25_1:
	.loc	14 45 5 is_stmt 1
	testb	$1, -218(%rbp)
	jne	LBB25_19
	jmp	LBB25_18
Ltmp223:
LBB25_2:
Ltmp203:
	.loc	14 0 5 is_stmt 0
	movq	%rax, %rcx
	movl	%edx, %eax
	movq	%rcx, -192(%rbp)
	movl	%eax, -184(%rbp)
	jmp	LBB25_1
Ltmp224:
LBB25_3:
	.loc	14 26 32 is_stmt 1
	movq	-408(%rbp), %rdx
	movl	$1, %eax
	xorl	%ecx, %ecx
	cmpq	$0, %rdx
	cmoveq	%rcx, %rax
	.loc	14 26 26 is_stmt 0
	cmpq	$0, %rax
	jne	LBB25_5
Ltmp225:
	.loc	14 0 26
	movq	-456(%rbp), %rax
Ltmp226:
	.loc	15 425 20 is_stmt 1
	movq	L___unnamed_18(%rip), %rdx
	movq	L___unnamed_18+8(%rip), %rcx
	.loc	15 425 9 is_stmt 0
	movq	%rdx, (%rax)
	movq	%rcx, 8(%rax)
	movq	$0, 16(%rax)
Ltmp227:
	.loc	14 45 5 is_stmt 1
	jmp	LBB25_20
Ltmp228:
LBB25_5:
	.loc	14 0 5 is_stmt 0
	movq	-464(%rbp), %rsi
	.loc	14 28 18 is_stmt 1
	movq	-400(%rbp), %rax
	movq	%rax, -376(%rbp)
	movq	-416(%rbp), %rax
	movq	-408(%rbp), %rcx
	movq	%rcx, -384(%rbp)
	movq	%rax, -392(%rbp)
Ltmp204:
	leaq	-368(%rbp), %rdi
Ltmp229:
	.loc	14 29 34
	callq	__ZN102_$LT$core..iter..adapters..map..Map$LT$I$C$F$GT$$u20$as$u20$core..iter..traits..iterator..Iterator$GT$9size_hint17hf2cb25369be3883cE
Ltmp205:
	jmp	LBB25_8
Ltmp230:
LBB25_6:
	.loc	14 39 13
	movb	$1, %al
	testb	$1, %al
	jne	LBB25_14
	jmp	LBB25_1
Ltmp231:
LBB25_7:
Ltmp210:
	.loc	14 0 13 is_stmt 0
	movq	%rax, %rcx
	movl	%edx, %eax
	movq	%rcx, -192(%rbp)
	movl	%eax, -184(%rbp)
	jmp	LBB25_6
Ltmp232:
LBB25_8:
	.loc	14 29 22 is_stmt 1
	movq	-368(%rbp), %rax
	movq	%rax, -176(%rbp)
Ltmp233:
	.loc	14 31 61
	movq	%rax, -168(%rbp)
Ltmp234:
	.loc	16 1022 13
	incq	%rax
	movq	$-1, %rcx
	cmoveq	%rcx, %rax
	movq	%rax, -160(%rbp)
	movq	-160(%rbp), %rax
	movq	%rax, -472(%rbp)
	movq	%rax, -152(%rbp)
Ltmp235:
	.loc	16 0 13 is_stmt 0
	movq	-472(%rbp), %rsi
	.loc	14 31 21 is_stmt 1
	movq	$4, -144(%rbp)
Ltmp236:
	.loc	17 1276 5
	movq	$4, -136(%rbp)
	.loc	17 1276 12 is_stmt 0
	movq	%rsi, -128(%rbp)
Ltmp206:
	movl	$4, %edi
Ltmp237:
	.loc	17 803 13 is_stmt 1
	callq	__ZN4core3cmp6max_by17h13f7b8ee2fc50dc2E
Ltmp207:
	movq	%rax, -480(%rbp)
	jmp	LBB25_10
Ltmp238:
LBB25_10:
	.loc	17 0 13 is_stmt 0
	movq	-480(%rbp), %rdi
	.loc	17 803 13
	movq	%rdi, -120(%rbp)
Ltmp239:
	.loc	14 32 53 is_stmt 1
	movq	%rdi, -112(%rbp)
Ltmp240:
	.loc	15 483 32
	movq	%rdi, -104(%rbp)
Ltmp241:
	.loc	15 676 45
	movq	%rdi, -96(%rbp)
Ltmp242:
	.loc	18 131 37
	movb	$0, -217(%rbp)
	.loc	18 131 9 is_stmt 0
	movzbl	-217(%rbp), %esi
Ltmp208:
	callq	__ZN5alloc7raw_vec19RawVec$LT$T$C$A$GT$11allocate_in17hfdea594fc9627235E
Ltmp209:
	movq	%rdx, -496(%rbp)
	movq	%rax, -488(%rbp)
	jmp	LBB25_11
Ltmp243:
LBB25_11:
	.loc	18 0 9
	movq	-496(%rbp), %rax
	movq	-488(%rbp), %rcx
	.loc	15 676 9 is_stmt 1
	movq	%rcx, -344(%rbp)
	movq	%rax, -336(%rbp)
	movq	$0, -328(%rbp)
Ltmp244:
	.loc	14 35 32
	leaq	-344(%rbp), %rax
	movq	%rax, -88(%rbp)
Ltmp245:
	.loc	15 1280 19
	leaq	-344(%rbp), %rax
	movq	%rax, -80(%rbp)
Ltmp246:
	.loc	18 224 9
	movq	-336(%rbp), %rax
	movq	%rax, -504(%rbp)
	movq	%rax, -72(%rbp)
Ltmp247:
	.loc	19 104 9
	movq	%rax, -64(%rbp)
Ltmp248:
	.loc	12 326 9
	movq	%rax, -56(%rbp)
Ltmp249:
	.loc	15 1282 21
	movq	%rax, -48(%rbp)
Ltmp250:
	.loc	11 52 36
	movq	%rax, -216(%rbp)
	.loc	11 52 18 is_stmt 0
	movq	-216(%rbp), %rax
	movq	%rax, -40(%rbp)
Ltmp251:
	.loc	11 38 13 is_stmt 1
	movq	%rax, -32(%rbp)
Ltmp252:
	.loc	11 215 33
	movq	%rax, -24(%rbp)
	.loc	11 215 18 is_stmt 0
	movq	%rax, -16(%rbp)
	movq	-16(%rbp), %rax
Ltmp253:
	.loc	11 0 18
	movq	-464(%rbp), %rsi
	movq	-504(%rbp), %rax
	.loc	14 35 53 is_stmt 1
	movq	-376(%rbp), %rcx
	movq	%rcx, -304(%rbp)
	movq	-392(%rbp), %rcx
	movq	-384(%rbp), %rdx
	movq	%rdx, -312(%rbp)
	movq	%rcx, -320(%rbp)
Ltmp254:
	.loc	9 1354 9
	movq	-304(%rbp), %rcx
	movq	%rcx, 16(%rax)
	movq	-320(%rbp), %rcx
	movq	-312(%rbp), %rdx
	movq	%rdx, 8(%rax)
	movq	%rcx, (%rax)
	leaq	-344(%rbp), %rax
Ltmp255:
	.loc	14 36 21
	movq	%rax, -8(%rbp)
Ltmp256:
	.loc	15 1377 9
	movq	$1, -328(%rbp)
Ltmp257:
	.loc	14 38 17
	movq	-328(%rbp), %rax
	movq	%rax, -424(%rbp)
	movq	-344(%rbp), %rax
	movq	-336(%rbp), %rcx
	movq	%rcx, -432(%rbp)
	movq	%rax, -440(%rbp)
Ltmp258:
	.loc	14 43 64
	movb	$0, -218(%rbp)
	movl	$9, %ecx
	leaq	-296(%rbp), %rdi
	movq	%rdi, -512(%rbp)
	rep;movsq (%rsi), %es:(%rdi)
	movq	-512(%rbp), %rsi
Ltmp213:
	leaq	-440(%rbp), %rdi
	.loc	14 43 9 is_stmt 0
	callq	__ZN97_$LT$alloc..vec..Vec$LT$T$C$A$GT$$u20$as$u20$alloc..vec..spec_extend..SpecExtend$LT$T$C$I$GT$$GT$11spec_extend17h0cebeadcea6f3fc8E
Ltmp214:
	jmp	LBB25_17
Ltmp259:
LBB25_13:
Ltmp218:
	.loc	14 20 5 is_stmt 1
	callq	__ZN4core9panicking19panic_cannot_unwind17h1fbca7e1d7f56ae1E
Ltmp260:
LBB25_14:
Ltmp211:
	.loc	14 0 5 is_stmt 0
	leaq	-392(%rbp), %rdi
	.loc	14 39 13 is_stmt 1
	callq	__ZN4core3ptr42drop_in_place$LT$alloc..string..String$GT$17h3cc4b04911fd7e35E
Ltmp212:
	jmp	LBB25_1
Ltmp261:
LBB25_15:
Ltmp216:
	.loc	14 0 13 is_stmt 0
	leaq	-440(%rbp), %rdi
	.loc	14 45 5 is_stmt 1
	callq	__ZN4core3ptr65drop_in_place$LT$alloc..vec..Vec$LT$alloc..string..String$GT$$GT$17ha4c53d31de33447cE
Ltmp217:
	jmp	LBB25_1
Ltmp262:
LBB25_16:
Ltmp215:
	.loc	14 0 5 is_stmt 0
	movq	%rax, %rcx
	movl	%edx, %eax
	movq	%rcx, -192(%rbp)
	movl	%eax, -184(%rbp)
	jmp	LBB25_15
Ltmp263:
LBB25_17:
	movq	-456(%rbp), %rax
Ltmp264:
	.loc	14 44 9 is_stmt 1
	movq	-440(%rbp), %rcx
	movq	%rcx, (%rax)
	movq	-432(%rbp), %rcx
	movq	%rcx, 8(%rax)
	movq	-424(%rbp), %rcx
	movq	%rcx, 16(%rax)
Ltmp265:
	.loc	14 45 5
	jmp	LBB25_20
Ltmp266:
LBB25_18:
	.loc	14 20 5
	movq	-192(%rbp), %rdi
	callq	__Unwind_Resume
Ltmp267:
LBB25_19:
	.loc	14 45 5
	jmp	LBB25_18
Ltmp268:
LBB25_20:
	.loc	14 0 5 is_stmt 0
	movq	-448(%rbp), %rax
	.loc	14 45 6
	addq	$512, %rsp
	popq	%rbp
	retq
Ltmp269:
Lfunc_end25:
	.cfi_endproc
	.section	__TEXT,__gcc_except_tab
	.p2align	2
GCC_except_table25:
Lexception3:
	.byte	255
	.byte	255
	.byte	1
	.uleb128 Lcst_end3-Lcst_begin3
Lcst_begin3:
	.uleb128 Ltmp201-Lfunc_begin25
	.uleb128 Ltmp202-Ltmp201
	.uleb128 Ltmp203-Lfunc_begin25
	.byte	0
	.uleb128 Ltmp204-Lfunc_begin25
	.uleb128 Ltmp209-Ltmp204
	.uleb128 Ltmp210-Lfunc_begin25
	.byte	0
	.uleb128 Ltmp213-Lfunc_begin25
	.uleb128 Ltmp214-Ltmp213
	.uleb128 Ltmp215-Lfunc_begin25
	.byte	0
	.uleb128 Ltmp211-Lfunc_begin25
	.uleb128 Ltmp217-Ltmp211
	.uleb128 Ltmp218-Lfunc_begin25
	.byte	0
	.uleb128 Ltmp217-Lfunc_begin25
	.uleb128 Lfunc_end25-Ltmp217
	.byte	0
	.byte	0
Lcst_end3:
	.p2align	2

	.section	__TEXT,__text,regular,pure_instructions
	.globl	__ZN111_$LT$core..iter..adapters..zip..Zip$LT$A$C$B$GT$$u20$as$u20$core..iter..adapters..zip..ZipImpl$LT$A$C$B$GT$$GT$3new17ha88f422acb8d4487E
	.p2align	4, 0x90
__ZN111_$LT$core..iter..adapters..zip..Zip$LT$A$C$B$GT$$u20$as$u20$core..iter..adapters..zip..ZipImpl$LT$A$C$B$GT$$GT$3new17ha88f422acb8d4487E:
Lfunc_begin26:
	.file	20 "/rustc/2c8cc343237b8f7d5a3c3703e3a87f2eb2c54a74/library/core/src/iter/adapters" "zip.rs"
	.loc	20 262 0 is_stmt 1
	.cfi_startproc
	.cfi_personality 155, _rust_eh_personality
	.cfi_lsda 16, Lexception4
	pushq	%rbp
	.cfi_def_cfa_offset 16
	.cfi_offset %rbp, -16
	movq	%rsp, %rbp
	.cfi_def_cfa_register %rbp
	subq	$144, %rsp
	movq	%rdi, -120(%rbp)
	movq	%rdi, -112(%rbp)
	movq	%rsi, -96(%rbp)
	movq	%rdx, -88(%rbp)
	movq	%rcx, -80(%rbp)
	movq	%r8, -72(%rbp)
Ltmp270:
	leaq	-96(%rbp), %rdi
Ltmp277:
	.loc	20 263 21 prologue_end
	callq	__ZN4core4iter8adapters3zip27TrustedRandomAccessNoCoerce4size17h3f7911a78589d5a9E
Ltmp271:
	movq	%rax, -104(%rbp)
	jmp	LBB26_3
LBB26_1:
	.loc	20 262 5
	movq	-64(%rbp), %rdi
	callq	__Unwind_Resume
LBB26_2:
Ltmp276:
	.loc	20 0 5 is_stmt 0
	movq	%rax, %rcx
	movl	%edx, %eax
	movq	%rcx, -64(%rbp)
	movl	%eax, -56(%rbp)
	jmp	LBB26_1
LBB26_3:
	movq	-104(%rbp), %rax
	.loc	20 263 21 is_stmt 1
	movq	%rax, -48(%rbp)
Ltmp278:
	.loc	20 264 28
	movq	%rax, -40(%rbp)
Ltmp272:
	leaq	-80(%rbp), %rdi
	.loc	20 264 35 is_stmt 0
	callq	__ZN4core4iter8adapters3zip27TrustedRandomAccessNoCoerce4size17h3f7911a78589d5a9E
Ltmp273:
	movq	%rax, -128(%rbp)
	jmp	LBB26_4
LBB26_4:
	.loc	20 0 35
	movq	-128(%rbp), %rsi
	movq	-104(%rbp), %rdi
	.loc	20 264 35
	movq	%rsi, -32(%rbp)
Ltmp279:
	.loc	17 1185 5 is_stmt 1
	movq	%rdi, -24(%rbp)
	.loc	17 1185 12 is_stmt 0
	movq	%rsi, -16(%rbp)
Ltmp274:
Ltmp280:
	.loc	17 833 13 is_stmt 1
	callq	__ZN4core3cmp6min_by17h78251d846d82de32E
Ltmp275:
	movq	%rax, -136(%rbp)
	jmp	LBB26_5
LBB26_5:
	.loc	17 0 13 is_stmt 0
	movq	-112(%rbp), %rax
	movq	-120(%rbp), %rcx
	movq	-104(%rbp), %rdx
	movq	-136(%rbp), %rsi
	.loc	17 833 13
	movq	%rsi, -8(%rbp)
Ltmp281:
	.loc	20 265 15 is_stmt 1
	movq	-96(%rbp), %r10
	movq	-88(%rbp), %r9
	.loc	20 265 18 is_stmt 0
	movq	-80(%rbp), %r8
	movq	-72(%rbp), %rdi
	.loc	20 265 9
	movq	%r10, (%rcx)
	movq	%r9, 8(%rcx)
	movq	%r8, 16(%rcx)
	movq	%rdi, 24(%rcx)
	movq	$0, 32(%rcx)
	movq	%rsi, 40(%rcx)
	movq	%rdx, 48(%rcx)
Ltmp282:
	.loc	20 266 6 is_stmt 1
	addq	$144, %rsp
	popq	%rbp
	retq
Ltmp283:
Lfunc_end26:
	.cfi_endproc
	.section	__TEXT,__gcc_except_tab
	.p2align	2
GCC_except_table26:
Lexception4:
	.byte	255
	.byte	255
	.byte	1
	.uleb128 Lcst_end4-Lcst_begin4
Lcst_begin4:
	.uleb128 Ltmp270-Lfunc_begin26
	.uleb128 Ltmp271-Ltmp270
	.uleb128 Ltmp276-Lfunc_begin26
	.byte	0
	.uleb128 Ltmp271-Lfunc_begin26
	.uleb128 Ltmp272-Ltmp271
	.byte	0
	.byte	0
	.uleb128 Ltmp272-Lfunc_begin26
	.uleb128 Ltmp275-Ltmp272
	.uleb128 Ltmp276-Lfunc_begin26
	.byte	0
Lcst_end4:
	.p2align	2

	.section	__TEXT,__text,regular,pure_instructions
	.globl	__ZN111_$LT$core..iter..adapters..zip..Zip$LT$A$C$B$GT$$u20$as$u20$core..iter..adapters..zip..ZipImpl$LT$A$C$B$GT$$GT$4next17h25d305dc7042f1adE
	.p2align	4, 0x90
__ZN111_$LT$core..iter..adapters..zip..Zip$LT$A$C$B$GT$$u20$as$u20$core..iter..adapters..zip..ZipImpl$LT$A$C$B$GT$$GT$4next17h25d305dc7042f1adE:
Lfunc_begin27:
	.loc	20 269 0
	.cfi_startproc
	.cfi_personality 155, _rust_eh_personality
	.cfi_lsda 16, Lexception5
	pushq	%rbp
	.cfi_def_cfa_offset 16
	.cfi_offset %rbp, -16
	movq	%rsp, %rbp
	.cfi_def_cfa_register %rbp
	subq	$112, %rsp
	movq	%rdi, -88(%rbp)
	movq	%rdi, -40(%rbp)
Ltmp287:
	.loc	20 270 12 prologue_end
	movq	32(%rdi), %rax
	cmpq	40(%rdi), %rax
	jb	LBB27_2
	.loc	20 279 19
	xorl	%eax, %eax
	testb	$1, %al
	jne	LBB27_8
	jmp	LBB27_7
LBB27_2:
	.loc	20 0 19 is_stmt 0
	movq	-88(%rbp), %rdi
	.loc	20 271 21 is_stmt 1
	movq	32(%rdi), %rsi
	movq	%rsi, -112(%rbp)
	movq	%rsi, -32(%rbp)
Ltmp288:
	.loc	20 274 13
	movq	32(%rdi), %rax
	incq	%rax
	movq	%rax, 32(%rdi)
	.loc	20 277 23
	callq	__ZN91_$LT$core..slice..iter..Iter$LT$T$GT$$u20$as$u20$core..iter..traits..iterator..Iterator$GT$24__iterator_get_unchecked17h5ddbdb562aab387cE
	movq	-88(%rbp), %rdi
	movq	-112(%rbp), %rsi
	movq	%rax, -104(%rbp)
	.loc	20 277 59 is_stmt 0
	addq	$16, %rdi
Ltmp284:
	callq	__ZN91_$LT$core..slice..iter..Iter$LT$T$GT$$u20$as$u20$core..iter..traits..iterator..Iterator$GT$24__iterator_get_unchecked17h5ddbdb562aab387cE
Ltmp285:
	movq	%rax, -96(%rbp)
	jmp	LBB27_5
Ltmp289:
LBB27_3:
	.loc	20 269 5 is_stmt 1
	movq	-24(%rbp), %rdi
	callq	__Unwind_Resume
LBB27_4:
Ltmp286:
	.loc	20 0 5 is_stmt 0
	movq	%rax, %rcx
	movl	%edx, %eax
	movq	%rcx, -24(%rbp)
	movl	%eax, -16(%rbp)
	jmp	LBB27_3
LBB27_5:
	movq	-96(%rbp), %rax
	movq	-104(%rbp), %rcx
Ltmp290:
	.loc	20 277 22 is_stmt 1
	movq	%rcx, -64(%rbp)
	movq	%rax, -56(%rbp)
	.loc	20 277 17 is_stmt 0
	movq	-64(%rbp), %rcx
	movq	-56(%rbp), %rax
	movq	%rcx, -80(%rbp)
	movq	%rax, -72(%rbp)
Ltmp291:
LBB27_6:
	.loc	20 293 6 is_stmt 1
	movq	-80(%rbp), %rax
	movq	-72(%rbp), %rdx
	addq	$112, %rsp
	popq	%rbp
	retq
LBB27_7:
	.loc	20 279 19
	movb	$0, -41(%rbp)
	jmp	LBB27_9
LBB27_8:
	.loc	20 0 19 is_stmt 0
	movq	-88(%rbp), %rcx
	.loc	20 279 46
	movq	32(%rcx), %rax
	cmpq	48(%rcx), %rax
	setb	%al
	.loc	20 279 19
	andb	$1, %al
	movb	%al, -41(%rbp)
LBB27_9:
	testb	$1, -41(%rbp)
	jne	LBB27_11
	.loc	20 291 13 is_stmt 1
	movq	$0, -80(%rbp)
	.loc	20 279 16
	jmp	LBB27_12
LBB27_11:
	.loc	20 0 16 is_stmt 0
	movq	-88(%rbp), %rdi
	.loc	20 280 21 is_stmt 1
	movq	32(%rdi), %rsi
	movq	%rsi, -8(%rbp)
Ltmp292:
	.loc	20 282 13
	movq	32(%rdi), %rax
	addq	$1, %rax
	movq	%rax, 32(%rdi)
	.loc	20 283 13
	movq	40(%rdi), %rax
	addq	$1, %rax
	movq	%rax, 40(%rdi)
	.loc	20 287 17
	callq	__ZN91_$LT$core..slice..iter..Iter$LT$T$GT$$u20$as$u20$core..iter..traits..iterator..Iterator$GT$24__iterator_get_unchecked17h5ddbdb562aab387cE
	.loc	20 289 13
	movq	$0, -80(%rbp)
Ltmp293:
LBB27_12:
	.loc	20 270 9
	jmp	LBB27_6
Ltmp294:
Lfunc_end27:
	.cfi_endproc
	.section	__TEXT,__gcc_except_tab
	.p2align	2
GCC_except_table27:
Lexception5:
	.byte	255
	.byte	255
	.byte	1
	.uleb128 Lcst_end5-Lcst_begin5
Lcst_begin5:
	.uleb128 Lfunc_begin27-Lfunc_begin27
	.uleb128 Ltmp284-Lfunc_begin27
	.byte	0
	.byte	0
	.uleb128 Ltmp284-Lfunc_begin27
	.uleb128 Ltmp285-Ltmp284
	.uleb128 Ltmp286-Lfunc_begin27
	.byte	0
	.uleb128 Ltmp285-Lfunc_begin27
	.uleb128 Lfunc_end27-Ltmp285
	.byte	0
	.byte	0
Lcst_end5:
	.p2align	2

	.section	__TEXT,__text,regular,pure_instructions
	.globl	__ZN114_$LT$core..core_simd..masks..Mask$LT$T$C$16_usize$GT$$u20$as$u20$core..core_simd..masks..to_bitmask..ToBitMask$GT$10to_bitmask17hc369e35c0318aed1E
	.p2align	4, 0x90
__ZN114_$LT$core..core_simd..masks..Mask$LT$T$C$16_usize$GT$$u20$as$u20$core..core_simd..masks..to_bitmask..ToBitMask$GT$10to_bitmask17hc369e35c0318aed1E:
Lfunc_begin28:
	.file	21 "/rustc/2c8cc343237b8f7d5a3c3703e3a87f2eb2c54a74/library/core/src/../../portable-simd/crates/core_simd/src/masks" "to_bitmask.rs"
	.loc	21 51 0
	.cfi_startproc
	pushq	%rbp
	.cfi_def_cfa_offset 16
	.cfi_offset %rbp, -16
	movq	%rsp, %rbp
	.cfi_def_cfa_register %rbp
	subq	$32, %rsp
Ltmp295:
	.loc	21 52 17 prologue_end
	movaps	(%rdi), %xmm0
	movaps	%xmm0, -32(%rbp)
Ltmp296:
	.file	22 "/rustc/2c8cc343237b8f7d5a3c3703e3a87f2eb2c54a74/library/core/src/../../portable-simd/crates/core_simd/src/masks" "full_masks.rs"
	.loc	22 213 35
	pmovmskb	%xmm0, %eax
	movw	%ax, -2(%rbp)
	movw	-2(%rbp), %ax
Ltmp297:
	.loc	21 53 14
	addq	$32, %rsp
	popq	%rbp
	retq
Ltmp298:
Lfunc_end28:
	.cfi_endproc

	.globl	__ZN116_$LT$core..core_simd..vector..Simd$LT$T$C$_$GT$$u20$as$u20$core..convert..From$LT$$u5b$T$u3b$$u20$LANES$u5d$$GT$$GT$4from17h5ce18bceccf8c980E
	.p2align	4, 0x90
__ZN116_$LT$core..core_simd..vector..Simd$LT$T$C$_$GT$$u20$as$u20$core..convert..From$LT$$u5b$T$u3b$$u20$LANES$u5d$$GT$$GT$4from17h5ce18bceccf8c980E:
Lfunc_begin29:
	.file	23 "/rustc/2c8cc343237b8f7d5a3c3703e3a87f2eb2c54a74/library/core/src/../../portable-simd/crates/core_simd/src" "vector.rs"
	.loc	23 627 0
	.cfi_startproc
	pushq	%rbp
	.cfi_def_cfa_offset 16
	.cfi_offset %rbp, -16
	movq	%rsp, %rbp
	.cfi_def_cfa_register %rbp
	subq	$3, %rsp
	movb	%sil, %cl
	movq	%rdi, %rax
	movb	%cl, -2(%rbp)
	movb	-2(%rbp), %cl
	movb	%cl, -3(%rbp)
Ltmp299:
	.loc	23 628 14 prologue_end
	movb	-3(%rbp), %cl
	movb	%cl, -1(%rbp)
	.loc	23 628 9 is_stmt 0
	movb	-1(%rbp), %cl
	movb	%cl, (%rdi)
	.loc	23 629 6 is_stmt 1
	addq	$3, %rsp
	popq	%rbp
	retq
Ltmp300:
Lfunc_end29:
	.cfi_endproc

	.globl	__ZN119_$LT$alloc..collections..btree..map..BTreeMap$LT$K$C$V$C$A$GT$$u20$as$u20$core..iter..traits..collect..IntoIterator$GT$9into_iter17he045a33e853ed9abE
	.p2align	4, 0x90
__ZN119_$LT$alloc..collections..btree..map..BTreeMap$LT$K$C$V$C$A$GT$$u20$as$u20$core..iter..traits..collect..IntoIterator$GT$9into_iter17he045a33e853ed9abE:
Lfunc_begin30:
	.file	24 "/rustc/2c8cc343237b8f7d5a3c3703e3a87f2eb2c54a74/library/alloc/src/collections/btree" "map.rs"
	.loc	24 1615 0
	.cfi_startproc
	pushq	%rbp
	.cfi_def_cfa_offset 16
	.cfi_offset %rbp, -16
	movq	%rsp, %rbp
	.cfi_def_cfa_register %rbp
	subq	$480, %rsp
	movq	%rdi, -464(%rbp)
	movq	%rdi, -456(%rbp)
Ltmp301:
	.loc	24 1616 40 prologue_end
	movq	16(%rsi), %rax
	movq	%rax, -408(%rbp)
	movq	(%rsi), %rax
	movq	8(%rsi), %rcx
	movq	%rcx, -416(%rbp)
	movq	%rax, -424(%rbp)
Ltmp302:
	.file	25 "/rustc/2c8cc343237b8f7d5a3c3703e3a87f2eb2c54a74/library/core/src/mem" "manually_drop.rs"
	.loc	25 71 24
	movq	-408(%rbp), %rax
	movq	%rax, -176(%rbp)
	movq	-424(%rbp), %rax
	movq	-416(%rbp), %rcx
	movq	%rcx, -184(%rbp)
	movq	%rax, -192(%rbp)
	.loc	25 71 9 is_stmt 0
	movq	-176(%rbp), %rax
	movq	%rax, -432(%rbp)
	movq	-192(%rbp), %rax
	movq	-184(%rbp), %rcx
	movq	%rcx, -440(%rbp)
	movq	%rax, -448(%rbp)
	leaq	-448(%rbp), %rdi
Ltmp303:
	.loc	24 1617 29 is_stmt 1
	movq	%rdi, -104(%rbp)
	movq	%rdi, -96(%rbp)
Ltmp304:
	.file	26 "/rustc/2c8cc343237b8f7d5a3c3703e3a87f2eb2c54a74/library/core/src" "option.rs"
	.loc	26 1623 28
	movq	$0, -160(%rbp)
	.loc	26 1623 9 is_stmt 0
	movq	-168(%rbp), %rsi
Ltmp305:
	movq	-160(%rbp), %rdx
	callq	__ZN4core3mem7replace17hb6be0ed595a103baE
	movq	%rdx, -392(%rbp)
	movq	%rax, -400(%rbp)
Ltmp306:
	.loc	24 1617 16 is_stmt 1
	movq	-392(%rbp), %rdx
	movl	$1, %eax
	xorl	%ecx, %ecx
	cmpq	$0, %rdx
	cmoveq	%rcx, %rax
	cmpq	$1, %rax
	jne	LBB30_2
Ltmp307:
	.loc	24 1617 21 is_stmt 0
	movq	-400(%rbp), %rdi
	movq	-392(%rbp), %rsi
	movq	%rdi, -56(%rbp)
	movq	%rsi, -48(%rbp)
	.loc	24 1618 30 is_stmt 1
	callq	__ZN5alloc11collections5btree4node76NodeRef$LT$alloc..collections..btree..node..marker..Owned$C$K$C$V$C$Type$GT$10into_dying17hd78ff54e851b0721E
	movq	%rax, %rsi
	leaq	-384(%rbp), %rdi
	callq	__ZN5alloc11collections5btree8navigate178_$LT$impl$u20$alloc..collections..btree..node..NodeRef$LT$alloc..collections..btree..node..marker..Dying$C$K$C$V$C$alloc..collections..btree..node..marker..LeafOrInternal$GT$$GT$10full_range17h4bbb22aeee6664ccE
Ltmp308:
	.loc	24 1621 24
	leaq	-320(%rbp), %rdi
	leaq	-384(%rbp), %rsi
	movl	$64, %edx
	callq	_memcpy
	movq	-464(%rbp), %rdi
	.loc	24 1622 25
	leaq	-448(%rbp), %rax
	movq	%rax, -40(%rbp)
	movq	-432(%rbp), %rax
	movq	%rax, -472(%rbp)
	.loc	24 1623 57
	leaq	-448(%rbp), %rax
	movq	%rax, -32(%rbp)
	.loc	24 1623 52 is_stmt 0
	leaq	-448(%rbp), %rax
	movq	%rax, -24(%rbp)
Ltmp309:
	.loc	25 113 28 is_stmt 1
	leaq	-448(%rbp), %rax
	movq	%rax, -16(%rbp)
Ltmp310:
	.loc	9 1157 34
	leaq	-152(%rbp), %rax
	movq	%rax, -8(%rbp)
Ltmp311:
	.loc	24 1620 13
	leaq	-320(%rbp), %rsi
	movl	$64, %edx
	callq	_memcpy
	movq	-472(%rbp), %rcx
	movq	-464(%rbp), %rax
	movq	%rcx, 64(%rax)
Ltmp312:
	.loc	24 1617 9
	jmp	LBB30_3
Ltmp313:
LBB30_2:
	.loc	24 1627 24
	leaq	-256(%rbp), %rdi
	callq	__ZN5alloc11collections5btree8navigate39LazyLeafRange$LT$BorrowType$C$K$C$V$GT$4none17hb29373dffcfd02baE
	movq	-464(%rbp), %rdi
	.loc	24 1629 57
	leaq	-448(%rbp), %rax
	movq	%rax, -88(%rbp)
	.loc	24 1629 52 is_stmt 0
	leaq	-448(%rbp), %rax
	movq	%rax, -80(%rbp)
Ltmp314:
	.loc	25 113 28 is_stmt 1
	leaq	-448(%rbp), %rax
	movq	%rax, -72(%rbp)
Ltmp315:
	.loc	9 1157 34
	leaq	-144(%rbp), %rax
	movq	%rax, -64(%rbp)
Ltmp316:
	.loc	24 1626 13
	leaq	-256(%rbp), %rsi
	movl	$64, %edx
	callq	_memcpy
	movq	-464(%rbp), %rax
	movq	$0, 64(%rax)
Ltmp317:
LBB30_3:
	.loc	24 0 13 is_stmt 0
	movq	-456(%rbp), %rax
	.loc	24 1632 6 is_stmt 1
	addq	$480, %rsp
	popq	%rbp
	retq
Ltmp318:
Lfunc_end30:
	.cfi_endproc

	.globl	__ZN119_$LT$core..ptr..non_null..NonNull$LT$T$GT$$u20$as$u20$core..convert..From$LT$core..ptr..unique..Unique$LT$T$GT$$GT$$GT$4from17hb762362181264e80E
	.p2align	4, 0x90
__ZN119_$LT$core..ptr..non_null..NonNull$LT$T$GT$$u20$as$u20$core..convert..From$LT$core..ptr..unique..Unique$LT$T$GT$$GT$$GT$4from17hb762362181264e80E:
Lfunc_begin31:
	.loc	12 765 0
	.cfi_startproc
	pushq	%rbp
	.cfi_def_cfa_offset 16
	.cfi_offset %rbp, -16
	movq	%rsp, %rbp
	.cfi_def_cfa_register %rbp
	subq	$40, %rsp
	movq	%rdi, -32(%rbp)
Ltmp319:
	.loc	12 768 41 prologue_end
	movq	%rdi, -24(%rbp)
Ltmp320:
	.loc	19 104 9
	movq	%rdi, -16(%rbp)
Ltmp321:
	.loc	12 326 9
	movq	%rdi, -8(%rbp)
Ltmp322:
	.loc	12 201 13
	movq	%rdi, -40(%rbp)
Ltmp323:
	.loc	12 769 6
	movq	-40(%rbp), %rax
	addq	$40, %rsp
	popq	%rbp
	retq
Ltmp324:
Lfunc_end31:
	.cfi_endproc

	.p2align	4, 0x90
__ZN122_$LT$alloc..collections..TryReserveError$u20$as$u20$core..convert..From$LT$alloc..collections..TryReserveErrorKind$GT$$GT$4from17h59aae3e84e17e3ceE:
Lfunc_begin32:
	.file	27 "/rustc/2c8cc343237b8f7d5a3c3703e3a87f2eb2c54a74/library/alloc/src/collections" "mod.rs"
	.loc	27 116 0
	.cfi_startproc
	pushq	%rbp
	.cfi_def_cfa_offset 16
	.cfi_offset %rbp, -16
	movq	%rsp, %rbp
	.cfi_def_cfa_register %rbp
	subq	$32, %rsp
	movq	%rdi, -16(%rbp)
	movq	%rsi, -8(%rbp)
Ltmp325:
	.loc	27 117 9 prologue_end
	movq	%rdi, -32(%rbp)
	movq	%rsi, -24(%rbp)
	.loc	27 118 6
	movq	-32(%rbp), %rax
	movq	-24(%rbp), %rdx
	addq	$32, %rsp
	popq	%rbp
	retq
Ltmp326:
Lfunc_end32:
	.cfi_endproc

	.globl	__ZN132_$LT$alloc..vec..Vec$LT$T$C$A$GT$$u20$as$u20$alloc..vec..spec_extend..SpecExtend$LT$$RF$T$C$core..slice..iter..Iter$LT$T$GT$$GT$$GT$11spec_extend17ha0ccba91319007e0E
	.p2align	4, 0x90
__ZN132_$LT$alloc..vec..Vec$LT$T$C$A$GT$$u20$as$u20$alloc..vec..spec_extend..SpecExtend$LT$$RF$T$C$core..slice..iter..Iter$LT$T$GT$$GT$$GT$11spec_extend17ha0ccba91319007e0E:
Lfunc_begin33:
	.file	28 "/rustc/2c8cc343237b8f7d5a3c3703e3a87f2eb2c54a74/library/alloc/src/vec" "spec_extend.rs"
	.loc	28 53 0
	.cfi_startproc
	pushq	%rbp
	.cfi_def_cfa_offset 16
	.cfi_offset %rbp, -16
	movq	%rsp, %rbp
	.cfi_def_cfa_register %rbp
	subq	$48, %rsp
	movq	%rdi, -48(%rbp)
	movq	%rsi, -40(%rbp)
	movq	%rdx, -32(%rbp)
	movq	%rdi, -24(%rbp)
Ltmp327:
	.loc	28 54 21 prologue_end
	leaq	-40(%rbp), %rdi
	callq	__ZN4core5slice4iter13Iter$LT$T$GT$8as_slice17h1df566780ab75828E
	movq	-48(%rbp), %rdi
	movq	%rax, %rsi
	movq	%rsi, -16(%rbp)
	movq	%rdx, -8(%rbp)
Ltmp328:
	.loc	28 55 18
	callq	__ZN5alloc3vec16Vec$LT$T$C$A$GT$15append_elements17ha2eeed53a11208b3E
Ltmp329:
	.loc	28 56 6
	addq	$48, %rsp
	popq	%rbp
	retq
Ltmp330:
Lfunc_end33:
	.cfi_endproc

	.globl	__ZN174_$LT$$LT$alloc..collections..btree..map..IntoIter$LT$K$C$V$C$A$GT$$u20$as$u20$core..ops..drop..Drop$GT$..drop..DropGuard$LT$K$C$V$C$A$GT$$u20$as$u20$core..ops..drop..Drop$GT$4drop17h7fb0ddbf106a95afE
	.p2align	4, 0x90
__ZN174_$LT$$LT$alloc..collections..btree..map..IntoIter$LT$K$C$V$C$A$GT$$u20$as$u20$core..ops..drop..Drop$GT$..drop..DropGuard$LT$K$C$V$C$A$GT$$u20$as$u20$core..ops..drop..Drop$GT$4drop17h7fb0ddbf106a95afE:
Lfunc_begin34:
	.loc	24 1641 0
	.cfi_startproc
	pushq	%rbp
	.cfi_def_cfa_offset 16
	.cfi_offset %rbp, -16
	movq	%rsp, %rbp
	.cfi_def_cfa_register %rbp
	subq	$96, %rsp
	movq	%rdi, -88(%rbp)
	movq	%rdi, -8(%rbp)
LBB34_1:
	movq	-88(%rbp), %rax
Ltmp331:
	.loc	24 1644 38 prologue_end
	movq	(%rax), %rsi
	leaq	-80(%rbp), %rdi
	callq	__ZN5alloc11collections5btree3map25IntoIter$LT$K$C$V$C$A$GT$10dying_next17hb65b3bae72aa6cb8E
	.loc	24 1644 27 is_stmt 0
	movq	-72(%rbp), %rdx
	movl	$1, %eax
	xorl	%ecx, %ecx
	cmpq	$0, %rdx
	cmoveq	%rcx, %rax
	cmpq	$1, %rax
	jne	LBB34_3
	.loc	24 1644 32
	movq	-80(%rbp), %rax
	movq	%rax, -56(%rbp)
	movq	-72(%rbp), %rax
	movq	%rax, -48(%rbp)
	movq	-64(%rbp), %rax
	movq	%rax, -40(%rbp)
	.loc	24 1646 30 is_stmt 1
	movq	-56(%rbp), %rax
	movq	%rax, -32(%rbp)
	movq	-48(%rbp), %rax
	movq	%rax, -24(%rbp)
	movq	-40(%rbp), %rax
	movq	%rax, -16(%rbp)
	leaq	-32(%rbp), %rdi
	callq	__ZN5alloc11collections5btree4node173Handle$LT$alloc..collections..btree..node..NodeRef$LT$alloc..collections..btree..node..marker..Dying$C$K$C$V$C$NodeType$GT$$C$alloc..collections..btree..node..marker..KV$GT$12drop_key_val17hc51bf52064ca4dadE
Ltmp332:
	.loc	24 1644 17
	jmp	LBB34_1
LBB34_3:
	.loc	24 1648 14
	addq	$96, %rsp
	popq	%rbp
	retq
Ltmp333:
Lfunc_end34:
	.cfi_endproc

	.p2align	4, 0x90
__ZN3std2fs8Metadata17h080758fb10b1cf1eE:
Lfunc_begin35:
	.file	29 "/rustc/2c8cc343237b8f7d5a3c3703e3a87f2eb2c54a74/library/std/src" "fs.rs"
	.loc	29 110 0
	.cfi_startproc
	pushq	%rbp
	.cfi_def_cfa_offset 16
	.cfi_offset %rbp, -16
	movq	%rsp, %rbp
	.cfi_def_cfa_register %rbp
	subq	$16, %rsp
	movq	%rdi, %rax
	movq	%rax, -8(%rbp)
Ltmp334:
	.loc	29 110 1 prologue_end
	movl	$144, %edx
	callq	_memcpy
Ltmp335:
	.loc	29 0 1 is_stmt 0
	movq	-8(%rbp), %rax
	.loc	29 110 1
	addq	$16, %rsp
	popq	%rbp
	retq
Ltmp336:
Lfunc_end35:
	.cfi_endproc

	.globl	__ZN3std2fs8metadata17h1c980bad95e6bc48E
	.p2align	4, 0x90
__ZN3std2fs8metadata17h1c980bad95e6bc48E:
Lfunc_begin36:
	.loc	29 1828 0 is_stmt 1
	.cfi_startproc
	.cfi_personality 155, _rust_eh_personality
	.cfi_lsda 16, Lexception6
	pushq	%rbp
	.cfi_def_cfa_offset 16
	.cfi_offset %rbp, -16
	movq	%rsp, %rbp
	.cfi_def_cfa_register %rbp
	subq	$208, %rsp
	movq	%rdi, -208(%rbp)
	movq	%rdi, -200(%rbp)
	movq	%rsi, -176(%rbp)
Ltmp337:
	leaq	-176(%rbp), %rdi
Ltmp344:
	.loc	29 1829 18 prologue_end
	callq	__ZN55_$LT$$RF$T$u20$as$u20$core..convert..AsRef$LT$U$GT$$GT$6as_ref17hf65cb7a4ca58c152E
Ltmp338:
	movq	%rdx, -192(%rbp)
	movq	%rax, -184(%rbp)
	jmp	LBB36_3
LBB36_1:
	.loc	29 1828 1
	movq	-16(%rbp), %rdi
	callq	__Unwind_Resume
LBB36_2:
Ltmp343:
	.loc	29 0 1 is_stmt 0
	movq	%rax, %rcx
	movl	%edx, %eax
	movq	%rcx, -16(%rbp)
	movl	%eax, -8(%rbp)
	jmp	LBB36_1
LBB36_3:
Ltmp339:
	movq	-192(%rbp), %rdx
	movq	-184(%rbp), %rsi
	leaq	-168(%rbp), %rdi
	.loc	29 1829 5 is_stmt 1
	callq	__ZN3std3sys4unix2fs4stat17h9d8d62844b0f1aa1E
Ltmp340:
	jmp	LBB36_4
LBB36_4:
Ltmp341:
	.loc	29 0 5 is_stmt 0
	movq	-208(%rbp), %rdi
	leaq	-168(%rbp), %rsi
	.loc	29 1829 5
	callq	__ZN4core6result19Result$LT$T$C$E$GT$3map17h56c2e2e9fa3689f9E
Ltmp342:
	jmp	LBB36_5
LBB36_5:
	.loc	29 0 5
	movq	-200(%rbp), %rax
	.loc	29 1830 2 is_stmt 1
	addq	$208, %rsp
	popq	%rbp
	retq
Ltmp345:
Lfunc_end36:
	.cfi_endproc
	.section	__TEXT,__gcc_except_tab
	.p2align	2
GCC_except_table36:
Lexception6:
	.byte	255
	.byte	255
	.byte	1
	.uleb128 Lcst_end6-Lcst_begin6
Lcst_begin6:
	.uleb128 Ltmp337-Lfunc_begin36
	.uleb128 Ltmp338-Ltmp337
	.uleb128 Ltmp343-Lfunc_begin36
	.byte	0
	.uleb128 Ltmp338-Lfunc_begin36
	.uleb128 Ltmp339-Ltmp338
	.byte	0
	.byte	0
	.uleb128 Ltmp339-Lfunc_begin36
	.uleb128 Ltmp342-Ltmp339
	.uleb128 Ltmp343-Lfunc_begin36
	.byte	0
Lcst_end6:
	.p2align	2

	.section	__TEXT,__text,regular,pure_instructions
	.globl	__ZN3std2io5Write9write_all17h0cb074b31d8c8c5fE
	.p2align	4, 0x90
__ZN3std2io5Write9write_all17h0cb074b31d8c8c5fE:
Lfunc_begin37:
	.file	30 "/rustc/2c8cc343237b8f7d5a3c3703e3a87f2eb2c54a74/library/std/src/io" "mod.rs"
	.loc	30 1540 0
	.cfi_startproc
	.cfi_personality 155, _rust_eh_personality
	.cfi_lsda 16, Lexception7
	pushq	%rbp
	.cfi_def_cfa_offset 16
	.cfi_offset %rbp, -16
	movq	%rsp, %rbp
	.cfi_def_cfa_register %rbp
	subq	$256, %rsp
	movq	%rdi, -232(%rbp)
	movq	%rsi, -224(%rbp)
	movq	%rdx, -216(%rbp)
	movq	%rdi, -136(%rbp)
LBB37_1:
Ltmp354:
	.loc	30 1541 16 prologue_end
	movq	-224(%rbp), %rcx
	movq	-216(%rbp), %rax
	movq	%rcx, -128(%rbp)
	movq	%rax, -120(%rbp)
Ltmp355:
	.file	31 "/rustc/2c8cc343237b8f7d5a3c3703e3a87f2eb2c54a74/library/core/src/slice" "mod.rs"
	.loc	31 153 9
	cmpq	$0, %rax
	sete	%al
Ltmp356:
	.loc	30 1541 15
	xorb	$-1, %al
	testb	$1, %al
	jne	LBB37_3
	.loc	30 1554 9
	movq	$0, -208(%rbp)
	.loc	30 1555 6
	jmp	LBB37_23
LBB37_3:
	.loc	30 0 6 is_stmt 0
	movq	-232(%rbp), %rsi
	.loc	30 1542 30 is_stmt 1
	movq	-224(%rbp), %rdx
	movq	-216(%rbp), %rcx
	.loc	30 1542 19 is_stmt 0
	leaq	-200(%rbp), %rdi
	callq	__ZN59_$LT$std..process..ChildStdin$u20$as$u20$std..io..Write$GT$5write17h6063bf0a2f9a83b2E
	.loc	30 1542 13
	cmpq	$0, -200(%rbp)
	jne	LBB37_5
	cmpq	$0, -192(%rbp)
	je	LBB37_13
	jmp	LBB37_14
LBB37_5:
	.loc	30 1550 21 is_stmt 1
	leaq	-192(%rbp), %rax
	movq	%rax, -168(%rbp)
	leaq	-168(%rbp), %rax
	movq	%rax, -112(%rbp)
	.loc	30 1550 31 is_stmt 0
	movq	-168(%rbp), %rdi
Ltmp346:
	callq	__ZN3std2io5error5Error4kind17hb29d96871e3c06e6E
Ltmp347:
	movb	%al, -233(%rbp)
	jmp	LBB37_8
LBB37_6:
	.loc	30 1553 9 is_stmt 1
	cmpq	$1, -200(%rbp)
	je	LBB37_16
	jmp	LBB37_17
LBB37_7:
Ltmp350:
	.loc	30 0 9 is_stmt 0
	movq	%rax, %rcx
	movl	%edx, %eax
	movq	%rcx, -104(%rbp)
	movl	%eax, -96(%rbp)
	jmp	LBB37_6
LBB37_8:
	movb	-233(%rbp), %al
	.loc	30 1550 31 is_stmt 1
	movb	%al, -153(%rbp)
	leaq	-153(%rbp), %rax
	movq	%rax, -88(%rbp)
	.loc	30 1550 43 is_stmt 0
	leaq	l___unnamed_19(%rip), %rax
	movq	%rax, -80(%rbp)
Ltmp357:
	.file	32 "/rustc/2c8cc343237b8f7d5a3c3703e3a87f2eb2c54a74/library/std/src/io" "error.rs"
	.loc	32 165 45 is_stmt 1
	movzbl	-153(%rbp), %eax
	movq	%rax, -72(%rbp)
Ltmp358:
	.loc	32 165 45 is_stmt 0
	movzbl	l___unnamed_19(%rip), %ecx
	movq	%rcx, -64(%rbp)
Ltmp359:
	.loc	32 165 45
	cmpq	%rcx, %rax
Ltmp360:
	.loc	30 1550 31 is_stmt 1
	je	LBB37_10
	.loc	30 1551 21
	movq	-192(%rbp), %rax
	movq	%rax, -56(%rbp)
Ltmp361:
	.loc	30 1551 34 is_stmt 0
	movq	%rax, -208(%rbp)
Ltmp362:
	.loc	1 1 1 is_stmt 1
	jmp	LBB37_12
LBB37_10:
	.loc	30 1550 70
	jmp	LBB37_11
LBB37_11:
	.loc	30 1553 9
	cmpq	$1, -200(%rbp)
	je	LBB37_20
	jmp	LBB37_21
LBB37_12:
	.loc	30 1555 6
	jmp	LBB37_23
LBB37_13:
	.loc	30 1544 32
	leaq	l___unnamed_20(%rip), %rax
	movq	%rax, -24(%rbp)
Ltmp363:
	.loc	32 554 47
	leaq	l___unnamed_20(%rip), %rax
	movq	%rax, -16(%rbp)
Ltmp364:
	.file	33 "/rustc/2c8cc343237b8f7d5a3c3703e3a87f2eb2c54a74/library/std/src/io/error" "repr_bitpacked.rs"
	.loc	33 206 46
	leaq	l___unnamed_20(%rip), %rax
	movq	%rax, -8(%rbp)
Ltmp365:
	.loc	12 201 13
	leaq	l___unnamed_20(%rip), %rax
	movq	%rax, -144(%rbp)
Ltmp366:
	.loc	33 206 9
	movq	-144(%rbp), %rax
	movq	%rax, -152(%rbp)
Ltmp367:
	.loc	32 554 9
	movq	-152(%rbp), %rax
	movq	%rax, -184(%rbp)
Ltmp368:
	.loc	30 1544 28
	movq	-184(%rbp), %rax
	movq	%rax, -208(%rbp)
	.loc	1 1 1
	jmp	LBB37_12
LBB37_14:
	.loc	30 1549 20
	movq	-192(%rbp), %rax
	movq	%rax, -48(%rbp)
Ltmp369:
	.loc	30 1549 33 is_stmt 0
	movq	-224(%rbp), %rsi
	movq	-216(%rbp), %rdx
	movq	%rsi, -40(%rbp)
	movq	%rdx, -32(%rbp)
	.loc	30 1549 37
	movq	%rax, -176(%rbp)
Ltmp370:
	.loc	7 18 9 is_stmt 1
	movq	-176(%rbp), %rdi
Ltmp348:
	leaq	l___unnamed_21(%rip), %rcx
	callq	__ZN110_$LT$core..ops..range..RangeFrom$LT$usize$GT$$u20$as$u20$core..slice..index..SliceIndex$LT$$u5b$T$u5d$$GT$$GT$5index17hfbdeb5d99ade3a35E
Ltmp349:
	movq	%rdx, -256(%rbp)
	movq	%rax, -248(%rbp)
	jmp	LBB37_15
Ltmp371:
LBB37_15:
	.loc	7 0 9 is_stmt 0
	movq	-256(%rbp), %rax
	movq	-248(%rbp), %rcx
	.loc	30 1549 26 is_stmt 1
	movq	%rcx, -224(%rbp)
	movq	%rax, -216(%rbp)
Ltmp372:
	.loc	30 1549 40 is_stmt 0
	jmp	LBB37_11
LBB37_16:
	.loc	30 1553 9 is_stmt 1
	movb	$1, %al
	testb	$1, %al
	jne	LBB37_18
	jmp	LBB37_17
LBB37_17:
	.loc	30 1540 5
	movq	-104(%rbp), %rdi
	callq	__Unwind_Resume
LBB37_18:
	.loc	30 1553 9
	leaq	-192(%rbp), %rdi
Ltmp351:
	callq	__ZN4core3ptr42drop_in_place$LT$std..io..error..Error$GT$17h0936ab0439591bd9E
Ltmp352:
	jmp	LBB37_17
LBB37_19:
Ltmp353:
	.loc	30 1540 5
	callq	__ZN4core9panicking19panic_cannot_unwind17h1fbca7e1d7f56ae1E
LBB37_20:
	.loc	30 1553 9
	movb	$1, %al
	testb	$1, %al
	jne	LBB37_22
	jmp	LBB37_21
LBB37_21:
	.loc	30 1541 9
	jmp	LBB37_1
LBB37_22:
	.loc	30 1553 9
	leaq	-200(%rbp), %rdi
	addq	$8, %rdi
	callq	__ZN4core3ptr42drop_in_place$LT$std..io..error..Error$GT$17h0936ab0439591bd9E
	jmp	LBB37_21
LBB37_23:
	.loc	30 1555 6
	movq	-208(%rbp), %rax
	addq	$256, %rsp
	popq	%rbp
	retq
Ltmp373:
Lfunc_end37:
	.cfi_endproc
	.section	__TEXT,__gcc_except_tab
	.p2align	2
GCC_except_table37:
Lexception7:
	.byte	255
	.byte	255
	.byte	1
	.uleb128 Lcst_end7-Lcst_begin7
Lcst_begin7:
	.uleb128 Lfunc_begin37-Lfunc_begin37
	.uleb128 Ltmp346-Lfunc_begin37
	.byte	0
	.byte	0
	.uleb128 Ltmp346-Lfunc_begin37
	.uleb128 Ltmp349-Ltmp346
	.uleb128 Ltmp350-Lfunc_begin37
	.byte	0
	.uleb128 Ltmp349-Lfunc_begin37
	.uleb128 Ltmp351-Ltmp349
	.byte	0
	.byte	0
	.uleb128 Ltmp351-Lfunc_begin37
	.uleb128 Ltmp352-Ltmp351
	.uleb128 Ltmp353-Lfunc_begin37
	.byte	0
	.uleb128 Ltmp352-Lfunc_begin37
	.uleb128 Lfunc_end37-Ltmp352
	.byte	0
	.byte	0
Lcst_end7:
	.p2align	2

	.section	__TEXT,__text,regular,pure_instructions
	.globl	__ZN3std2io5error14repr_bitpacked11decode_repr17h48e9ca5c236e13f9E
	.p2align	4, 0x90
__ZN3std2io5error14repr_bitpacked11decode_repr17h48e9ca5c236e13f9E:
Lfunc_begin38:
	.loc	33 246 0
	.cfi_startproc
	.cfi_personality 155, _rust_eh_personality
	.cfi_lsda 16, Lexception8
	pushq	%rbp
	.cfi_def_cfa_offset 16
	.cfi_offset %rbp, -16
	movq	%rsp, %rbp
	.cfi_def_cfa_register %rbp
	subq	$320, %rsp
	movq	%rsi, -272(%rbp)
	movq	%rdi, -264(%rbp)
	movq	%rdi, -256(%rbp)
	movq	%rsi, -184(%rbp)
Ltmp383:
	.loc	33 250 9 prologue_end
	movb	$1, -201(%rbp)
	.loc	33 250 16 is_stmt 0
	movq	%rsi, -160(%rbp)
Ltmp384:
	.loc	12 326 9 is_stmt 1
	movq	%rsi, -152(%rbp)
Ltmp385:
	.loc	11 215 33
	movq	%rsi, -144(%rbp)
	.loc	11 215 18 is_stmt 0
	movq	%rsi, -248(%rbp)
Ltmp386:
	.loc	33 251 11 is_stmt 1
	movq	-248(%rbp), %rax
	andl	$3, %eax
	movq	%rax, -280(%rbp)
	.loc	33 251 5 is_stmt 0
	subq	$3, %rax
	ja	LBB38_2
	.loc	33 0 5
	movq	-280(%rbp), %rax
	leaq	LJTI38_0(%rip), %rcx
	movslq	(%rcx,%rax,4), %rax
	addq	%rcx, %rax
	jmpq	*%rax
LBB38_2:
Ltmp380:
	.loc	33 280 13 is_stmt 1
	leaq	l___unnamed_22(%rip), %rdi
	leaq	l___unnamed_23(%rip), %rdx
	movl	$40, %esi
	callq	__ZN4core9panicking5panic17hc1bc45270cf64b03E
Ltmp381:
	jmp	LBB38_9
LBB38_3:
	.loc	33 0 13 is_stmt 0
	movq	-264(%rbp), %rax
	.loc	33 253 26 is_stmt 1
	movq	-248(%rbp), %rcx
	.loc	33 253 24 is_stmt 0
	sarq	$32, %rcx
	movl	%ecx, -4(%rbp)
Ltmp387:
	.loc	33 254 13 is_stmt 1
	movl	%ecx, 4(%rax)
	movb	$0, (%rax)
Ltmp388:
	.loc	33 255 9
	jmp	LBB38_12
LBB38_4:
	.loc	33 257 30
	movl	-244(%rbp), %edi
	.loc	33 257 29 is_stmt 0
	movl	%edi, -12(%rbp)
Ltmp376:
Ltmp389:
	.loc	33 258 24 is_stmt 1
	callq	__ZN3std2io5error14repr_bitpacked14kind_from_prim17h9a6e8ba0f6be66d7E
Ltmp377:
	movb	%al, -281(%rbp)
	jmp	LBB38_13
Ltmp390:
LBB38_5:
	.loc	33 0 24 is_stmt 0
	movq	-264(%rbp), %rax
	movq	-272(%rbp), %rcx
	.loc	33 270 58 is_stmt 1
	movq	%rcx, -40(%rbp)
Ltmp391:
	.loc	12 450 41
	movq	%rcx, -32(%rbp)
	movq	%rcx, -24(%rbp)
Ltmp392:
	.loc	12 201 13
	movq	%rcx, -224(%rbp)
Ltmp393:
	.loc	12 326 9
	movq	-224(%rbp), %rcx
Ltmp394:
	.loc	33 270 31
	movq	%rcx, 8(%rax)
	movb	$2, (%rax)
	.loc	33 270 94 is_stmt 0
	jmp	LBB38_12
LBB38_6:
	.loc	33 0 94
	movq	-272(%rbp), %rax
	.loc	33 275 26 is_stmt 1
	movq	%rax, -120(%rbp)
Ltmp395:
	.loc	12 326 9
	movq	%rax, -112(%rbp)
Ltmp396:
	.loc	11 1300 9
	movq	%rax, -104(%rbp)
Ltmp397:
	.loc	11 60 9
	movq	%rax, -96(%rbp)
Ltmp398:
	.loc	11 1282 9
	movq	%rax, -88(%rbp)
Ltmp399:
	.loc	11 568 18
	addq	$-1, %rax
	movq	%rax, -80(%rbp)
	movq	-80(%rbp), %rax
	movq	%rax, -296(%rbp)
	jmp	LBB38_10
Ltmp400:
LBB38_7:
	.loc	33 283 1
	testb	$1, -201(%rbp)
	jne	LBB38_19
	jmp	LBB38_18
LBB38_8:
Ltmp382:
	.loc	33 0 1 is_stmt 0
	movq	%rax, %rcx
	movl	%edx, %eax
	movq	%rcx, -136(%rbp)
	movl	%eax, -128(%rbp)
	jmp	LBB38_7
LBB38_9:
	ud2
LBB38_10:
	movq	-296(%rbp), %rax
Ltmp401:
	.loc	11 568 18 is_stmt 1
	movq	%rax, -72(%rbp)
Ltmp402:
	.loc	11 99 33
	movq	%rax, -64(%rbp)
Ltmp403:
	.loc	10 135 36
	movq	%rax, -192(%rbp)
	.loc	10 135 14 is_stmt 0
	movq	-192(%rbp), %rax
	movq	%rax, -200(%rbp)
	movq	-200(%rbp), %rax
	movq	%rax, -56(%rbp)
Ltmp404:
	.loc	11 60 9 is_stmt 1
	movq	%rax, -48(%rbp)
Ltmp405:
	.loc	33 276 31
	movb	$0, -201(%rbp)
	movq	%rax, -216(%rbp)
	movq	-216(%rbp), %rdi
Ltmp374:
	callq	__ZN78_$LT$std..io..error..repr_bitpacked..Repr$u20$as$u20$core..ops..drop..Drop$GT$4drop28_$u7b$$u7b$closure$u7d$$u7d$17hbc55e092249ff163E
Ltmp375:
	movq	%rax, -304(%rbp)
	jmp	LBB38_11
LBB38_11:
	.loc	33 0 31 is_stmt 0
	movq	-264(%rbp), %rax
	movq	-304(%rbp), %rcx
	.loc	33 276 13
	movq	%rcx, 8(%rax)
	movb	$3, (%rax)
Ltmp406:
LBB38_12:
	.loc	33 283 1 is_stmt 1
	testb	$1, -201(%rbp)
	jne	LBB38_21
	jmp	LBB38_20
LBB38_13:
	.loc	33 0 1 is_stmt 0
	movb	-281(%rbp), %al
Ltmp407:
	.loc	33 258 24 is_stmt 1
	movb	%al, -233(%rbp)
	.loc	33 258 65 is_stmt 0
	leaq	-248(%rbp), %rax
	movq	%rax, -232(%rbp)
Ltmp408:
	.loc	26 871 15 is_stmt 1
	movl	$1, %eax
	xorl	%ecx, %ecx
	cmpb	$41, -233(%rbp)
	cmoveq	%rcx, %rax
	.loc	26 871 9 is_stmt 0
	cmpq	$0, %rax
	jne	LBB38_15
	.loc	26 873 21 is_stmt 1
	movq	-232(%rbp), %rdi
Ltmp378:
	callq	__ZN3std2io5error14repr_bitpacked11decode_repr28_$u7b$$u7b$closure$u7d$$u7d$17hbd1c46f325ab82d9E
Ltmp379:
	movb	%al, -305(%rbp)
	jmp	LBB38_17
LBB38_15:
	.loc	26 872 18
	movb	-233(%rbp), %al
	movb	%al, -5(%rbp)
Ltmp409:
	.loc	26 872 24 is_stmt 0
	movb	%al, -234(%rbp)
Ltmp410:
LBB38_16:
	.loc	26 0 24
	movq	-264(%rbp), %rax
Ltmp411:
	.loc	33 268 31 is_stmt 1
	movb	-234(%rbp), %cl
	.loc	33 268 13 is_stmt 0
	movb	%cl, 1(%rax)
	movb	$1, (%rax)
Ltmp412:
	.loc	33 269 9 is_stmt 1
	jmp	LBB38_12
LBB38_17:
	.loc	33 0 9 is_stmt 0
	movb	-305(%rbp), %al
Ltmp413:
	.loc	26 873 21 is_stmt 1
	movb	%al, -234(%rbp)
	.loc	26 873 23 is_stmt 0
	jmp	LBB38_16
Ltmp414:
LBB38_18:
	.loc	33 246 1 is_stmt 1
	movq	-136(%rbp), %rdi
	callq	__Unwind_Resume
LBB38_19:
	.loc	33 283 1
	jmp	LBB38_18
LBB38_20:
	.loc	33 0 1 is_stmt 0
	movq	-256(%rbp), %rax
	.loc	33 283 2
	addq	$320, %rsp
	popq	%rbp
	retq
LBB38_21:
	.loc	33 283 1
	jmp	LBB38_20
Ltmp415:
Lfunc_end38:
	.cfi_endproc
	.p2align	2, 0x90
	.data_region jt32
.set L38_0_set_5, LBB38_5-LJTI38_0
.set L38_0_set_6, LBB38_6-LJTI38_0
.set L38_0_set_3, LBB38_3-LJTI38_0
.set L38_0_set_4, LBB38_4-LJTI38_0
LJTI38_0:
	.long	L38_0_set_5
	.long	L38_0_set_6
	.long	L38_0_set_3
	.long	L38_0_set_4
	.end_data_region
	.section	__TEXT,__gcc_except_tab
	.p2align	2
GCC_except_table38:
Lexception8:
	.byte	255
	.byte	255
	.byte	1
	.uleb128 Lcst_end8-Lcst_begin8
Lcst_begin8:
	.uleb128 Ltmp380-Lfunc_begin38
	.uleb128 Ltmp379-Ltmp380
	.uleb128 Ltmp382-Lfunc_begin38
	.byte	0
	.uleb128 Ltmp379-Lfunc_begin38
	.uleb128 Lfunc_end38-Ltmp379
	.byte	0
	.byte	0
Lcst_end8:
	.p2align	2

	.section	__TEXT,__text,regular,pure_instructions
	.globl	__ZN3std2io5error14repr_bitpacked11decode_repr17hbd5d3614fad820c9E
	.p2align	4, 0x90
__ZN3std2io5error14repr_bitpacked11decode_repr17hbd5d3614fad820c9E:
Lfunc_begin39:
	.loc	33 246 0 is_stmt 1
	.cfi_startproc
	.cfi_personality 155, _rust_eh_personality
	.cfi_lsda 16, Lexception9
	pushq	%rbp
	.cfi_def_cfa_offset 16
	.cfi_offset %rbp, -16
	movq	%rsp, %rbp
	.cfi_def_cfa_register %rbp
	subq	$320, %rsp
	movq	%rsi, -272(%rbp)
	movq	%rdi, -264(%rbp)
	movq	%rdi, -256(%rbp)
	movq	%rsi, -184(%rbp)
Ltmp425:
	.loc	33 250 9 prologue_end
	movb	$1, -201(%rbp)
	.loc	33 250 16 is_stmt 0
	movq	%rsi, -160(%rbp)
Ltmp426:
	.loc	12 326 9 is_stmt 1
	movq	%rsi, -152(%rbp)
Ltmp427:
	.loc	11 215 33
	movq	%rsi, -144(%rbp)
	.loc	11 215 18 is_stmt 0
	movq	%rsi, -248(%rbp)
Ltmp428:
	.loc	33 251 11 is_stmt 1
	movq	-248(%rbp), %rax
	andl	$3, %eax
	movq	%rax, -280(%rbp)
	.loc	33 251 5 is_stmt 0
	subq	$3, %rax
	ja	LBB39_2
	.loc	33 0 5
	movq	-280(%rbp), %rax
	leaq	LJTI39_0(%rip), %rcx
	movslq	(%rcx,%rax,4), %rax
	addq	%rcx, %rax
	jmpq	*%rax
LBB39_2:
Ltmp422:
	.loc	33 280 13 is_stmt 1
	leaq	l___unnamed_22(%rip), %rdi
	leaq	l___unnamed_23(%rip), %rdx
	movl	$40, %esi
	callq	__ZN4core9panicking5panic17hc1bc45270cf64b03E
Ltmp423:
	jmp	LBB39_9
LBB39_3:
	.loc	33 0 13 is_stmt 0
	movq	-264(%rbp), %rax
	.loc	33 253 26 is_stmt 1
	movq	-248(%rbp), %rcx
	.loc	33 253 24 is_stmt 0
	sarq	$32, %rcx
	movl	%ecx, -4(%rbp)
Ltmp429:
	.loc	33 254 13 is_stmt 1
	movl	%ecx, 4(%rax)
	movb	$0, (%rax)
Ltmp430:
	.loc	33 255 9
	jmp	LBB39_12
LBB39_4:
	.loc	33 257 30
	movl	-244(%rbp), %edi
	.loc	33 257 29 is_stmt 0
	movl	%edi, -12(%rbp)
Ltmp418:
Ltmp431:
	.loc	33 258 24 is_stmt 1
	callq	__ZN3std2io5error14repr_bitpacked14kind_from_prim17h9a6e8ba0f6be66d7E
Ltmp419:
	movb	%al, -281(%rbp)
	jmp	LBB39_13
Ltmp432:
LBB39_5:
	.loc	33 0 24 is_stmt 0
	movq	-264(%rbp), %rax
	movq	-272(%rbp), %rcx
	.loc	33 270 58 is_stmt 1
	movq	%rcx, -40(%rbp)
Ltmp433:
	.loc	12 450 41
	movq	%rcx, -32(%rbp)
	movq	%rcx, -24(%rbp)
Ltmp434:
	.loc	12 201 13
	movq	%rcx, -224(%rbp)
Ltmp435:
	.loc	12 326 9
	movq	-224(%rbp), %rcx
Ltmp436:
	.loc	33 270 31
	movq	%rcx, 8(%rax)
	movb	$2, (%rax)
	.loc	33 270 94 is_stmt 0
	jmp	LBB39_12
LBB39_6:
	.loc	33 0 94
	movq	-272(%rbp), %rax
	.loc	33 275 26 is_stmt 1
	movq	%rax, -120(%rbp)
Ltmp437:
	.loc	12 326 9
	movq	%rax, -112(%rbp)
Ltmp438:
	.loc	11 1300 9
	movq	%rax, -104(%rbp)
Ltmp439:
	.loc	11 60 9
	movq	%rax, -96(%rbp)
Ltmp440:
	.loc	11 1282 9
	movq	%rax, -88(%rbp)
Ltmp441:
	.loc	11 568 18
	addq	$-1, %rax
	movq	%rax, -80(%rbp)
	movq	-80(%rbp), %rax
	movq	%rax, -296(%rbp)
	jmp	LBB39_10
Ltmp442:
LBB39_7:
	.loc	33 283 1
	testb	$1, -201(%rbp)
	jne	LBB39_19
	jmp	LBB39_18
LBB39_8:
Ltmp424:
	.loc	33 0 1 is_stmt 0
	movq	%rax, %rcx
	movl	%edx, %eax
	movq	%rcx, -136(%rbp)
	movl	%eax, -128(%rbp)
	jmp	LBB39_7
LBB39_9:
	ud2
LBB39_10:
	movq	-296(%rbp), %rax
Ltmp443:
	.loc	11 568 18 is_stmt 1
	movq	%rax, -72(%rbp)
Ltmp444:
	.loc	11 99 33
	movq	%rax, -64(%rbp)
Ltmp445:
	.loc	10 135 36
	movq	%rax, -192(%rbp)
	.loc	10 135 14 is_stmt 0
	movq	-192(%rbp), %rax
	movq	%rax, -200(%rbp)
	movq	-200(%rbp), %rax
	movq	%rax, -56(%rbp)
Ltmp446:
	.loc	11 60 9 is_stmt 1
	movq	%rax, -48(%rbp)
Ltmp447:
	.loc	33 276 31
	movb	$0, -201(%rbp)
	movq	%rax, -216(%rbp)
	movq	-216(%rbp), %rdi
Ltmp416:
	callq	__ZN3std2io5error14repr_bitpacked4Repr4data28_$u7b$$u7b$closure$u7d$$u7d$17h3e254040a441cacaE
Ltmp417:
	movq	%rax, -304(%rbp)
	jmp	LBB39_11
LBB39_11:
	.loc	33 0 31 is_stmt 0
	movq	-264(%rbp), %rax
	movq	-304(%rbp), %rcx
	.loc	33 276 13
	movq	%rcx, 8(%rax)
	movb	$3, (%rax)
Ltmp448:
LBB39_12:
	.loc	33 283 1 is_stmt 1
	testb	$1, -201(%rbp)
	jne	LBB39_21
	jmp	LBB39_20
LBB39_13:
	.loc	33 0 1 is_stmt 0
	movb	-281(%rbp), %al
Ltmp449:
	.loc	33 258 24 is_stmt 1
	movb	%al, -233(%rbp)
	.loc	33 258 65 is_stmt 0
	leaq	-248(%rbp), %rax
	movq	%rax, -232(%rbp)
Ltmp450:
	.loc	26 871 15 is_stmt 1
	movl	$1, %eax
	xorl	%ecx, %ecx
	cmpb	$41, -233(%rbp)
	cmoveq	%rcx, %rax
	.loc	26 871 9 is_stmt 0
	cmpq	$0, %rax
	jne	LBB39_15
	.loc	26 873 21 is_stmt 1
	movq	-232(%rbp), %rdi
Ltmp420:
	callq	__ZN3std2io5error14repr_bitpacked11decode_repr28_$u7b$$u7b$closure$u7d$$u7d$17h38eac80fe0779a79E
Ltmp421:
	movb	%al, -305(%rbp)
	jmp	LBB39_17
LBB39_15:
	.loc	26 872 18
	movb	-233(%rbp), %al
	movb	%al, -5(%rbp)
Ltmp451:
	.loc	26 872 24 is_stmt 0
	movb	%al, -234(%rbp)
Ltmp452:
LBB39_16:
	.loc	26 0 24
	movq	-264(%rbp), %rax
Ltmp453:
	.loc	33 268 31 is_stmt 1
	movb	-234(%rbp), %cl
	.loc	33 268 13 is_stmt 0
	movb	%cl, 1(%rax)
	movb	$1, (%rax)
Ltmp454:
	.loc	33 269 9 is_stmt 1
	jmp	LBB39_12
LBB39_17:
	.loc	33 0 9 is_stmt 0
	movb	-305(%rbp), %al
Ltmp455:
	.loc	26 873 21 is_stmt 1
	movb	%al, -234(%rbp)
	.loc	26 873 23 is_stmt 0
	jmp	LBB39_16
Ltmp456:
LBB39_18:
	.loc	33 246 1 is_stmt 1
	movq	-136(%rbp), %rdi
	callq	__Unwind_Resume
LBB39_19:
	.loc	33 283 1
	jmp	LBB39_18
LBB39_20:
	.loc	33 0 1 is_stmt 0
	movq	-256(%rbp), %rax
	.loc	33 283 2
	addq	$320, %rsp
	popq	%rbp
	retq
LBB39_21:
	.loc	33 283 1
	jmp	LBB39_20
Ltmp457:
Lfunc_end39:
	.cfi_endproc
	.p2align	2, 0x90
	.data_region jt32
.set L39_0_set_5, LBB39_5-LJTI39_0
.set L39_0_set_6, LBB39_6-LJTI39_0
.set L39_0_set_3, LBB39_3-LJTI39_0
.set L39_0_set_4, LBB39_4-LJTI39_0
LJTI39_0:
	.long	L39_0_set_5
	.long	L39_0_set_6
	.long	L39_0_set_3
	.long	L39_0_set_4
	.end_data_region
	.section	__TEXT,__gcc_except_tab
	.p2align	2
GCC_except_table39:
Lexception9:
	.byte	255
	.byte	255
	.byte	1
	.uleb128 Lcst_end9-Lcst_begin9
Lcst_begin9:
	.uleb128 Ltmp422-Lfunc_begin39
	.uleb128 Ltmp421-Ltmp422
	.uleb128 Ltmp424-Lfunc_begin39
	.byte	0
	.uleb128 Ltmp421-Lfunc_begin39
	.uleb128 Lfunc_end39-Ltmp421
	.byte	0
	.byte	0
Lcst_end9:
	.p2align	2

	.section	__TEXT,__text,regular,pure_instructions
	.globl	__ZN3std2io5error14repr_bitpacked11decode_repr28_$u7b$$u7b$closure$u7d$$u7d$17h38eac80fe0779a79E
	.p2align	4, 0x90
__ZN3std2io5error14repr_bitpacked11decode_repr28_$u7b$$u7b$closure$u7d$$u7d$17h38eac80fe0779a79E:
Lfunc_begin40:
	.loc	33 258 0 is_stmt 1
	.cfi_startproc
	pushq	%rbp
	.cfi_def_cfa_offset 16
	.cfi_offset %rbp, -16
	movq	%rsp, %rbp
	.cfi_def_cfa_register %rbp
	subq	$16, %rsp
	movq	%rdi, -16(%rbp)
Ltmp458:
	.loc	33 266 17 prologue_end
	callq	__ZN4core4hint21unreachable_unchecked17h7f924c963663d875E
Ltmp459:
Lfunc_end40:
	.cfi_endproc

	.globl	__ZN3std2io5error14repr_bitpacked11decode_repr28_$u7b$$u7b$closure$u7d$$u7d$17hbd1c46f325ab82d9E
	.p2align	4, 0x90
__ZN3std2io5error14repr_bitpacked11decode_repr28_$u7b$$u7b$closure$u7d$$u7d$17hbd1c46f325ab82d9E:
Lfunc_begin41:
	.loc	33 258 0
	.cfi_startproc
	pushq	%rbp
	.cfi_def_cfa_offset 16
	.cfi_offset %rbp, -16
	movq	%rsp, %rbp
	.cfi_def_cfa_register %rbp
	subq	$16, %rsp
	movq	%rdi, -16(%rbp)
Ltmp460:
	.loc	33 266 17 prologue_end
	callq	__ZN4core4hint21unreachable_unchecked17h7f924c963663d875E
Ltmp461:
Lfunc_end41:
	.cfi_endproc

	.p2align	4, 0x90
__ZN3std2io5error14repr_bitpacked14kind_from_prim17h9a6e8ba0f6be66d7E:
Lfunc_begin42:
	.loc	33 289 0
	.cfi_startproc
	pushq	%rbp
	.cfi_def_cfa_offset 16
	.cfi_offset %rbp, -16
	movq	%rsp, %rbp
	.cfi_def_cfa_register %rbp
	subq	$336, %rsp
	movl	%edi, -336(%rbp)
Ltmp462:
	.loc	33 302 5 prologue_end
	leaq	-336(%rbp), %rax
	movq	%rax, -328(%rbp)
	cmpl	$0, -336(%rbp)
	je	LBB42_2
	leaq	-336(%rbp), %rax
	movq	%rax, -320(%rbp)
	cmpl	$1, -336(%rbp)
	je	LBB42_5
	jmp	LBB42_4
LBB42_2:
Ltmp463:
	.loc	33 302 5 is_stmt 0
	movb	$0, -329(%rbp)
Ltmp464:
LBB42_3:
	.loc	33 345 2 is_stmt 1
	movb	-329(%rbp), %al
	addq	$336, %rsp
	popq	%rbp
	retq
LBB42_4:
	.loc	33 302 5
	leaq	-336(%rbp), %rax
	movq	%rax, -312(%rbp)
	cmpl	$2, -336(%rbp)
	je	LBB42_7
	jmp	LBB42_6
LBB42_5:
Ltmp465:
	.loc	33 302 5 is_stmt 0
	movb	$1, -329(%rbp)
Ltmp466:
	.loc	33 302 5
	jmp	LBB42_3
LBB42_6:
	leaq	-336(%rbp), %rax
	movq	%rax, -304(%rbp)
	cmpl	$3, -336(%rbp)
	je	LBB42_9
	jmp	LBB42_8
LBB42_7:
Ltmp467:
	.loc	33 302 5
	movb	$2, -329(%rbp)
Ltmp468:
	.loc	33 302 5
	jmp	LBB42_3
LBB42_8:
	leaq	-336(%rbp), %rax
	movq	%rax, -296(%rbp)
	cmpl	$4, -336(%rbp)
	je	LBB42_11
	jmp	LBB42_10
LBB42_9:
Ltmp469:
	.loc	33 302 5
	movb	$3, -329(%rbp)
Ltmp470:
	.loc	33 302 5
	jmp	LBB42_3
LBB42_10:
	leaq	-336(%rbp), %rax
	movq	%rax, -288(%rbp)
	cmpl	$5, -336(%rbp)
	je	LBB42_13
	jmp	LBB42_12
LBB42_11:
Ltmp471:
	.loc	33 302 5
	movb	$4, -329(%rbp)
Ltmp472:
	.loc	33 302 5
	jmp	LBB42_3
LBB42_12:
	leaq	-336(%rbp), %rax
	movq	%rax, -280(%rbp)
	cmpl	$6, -336(%rbp)
	je	LBB42_15
	jmp	LBB42_14
LBB42_13:
Ltmp473:
	.loc	33 302 5
	movb	$5, -329(%rbp)
Ltmp474:
	.loc	33 302 5
	jmp	LBB42_3
LBB42_14:
	leaq	-336(%rbp), %rax
	movq	%rax, -272(%rbp)
	cmpl	$7, -336(%rbp)
	je	LBB42_17
	jmp	LBB42_16
LBB42_15:
Ltmp475:
	.loc	33 302 5
	movb	$6, -329(%rbp)
Ltmp476:
	.loc	33 302 5
	jmp	LBB42_3
LBB42_16:
	leaq	-336(%rbp), %rax
	movq	%rax, -264(%rbp)
	cmpl	$8, -336(%rbp)
	je	LBB42_19
	jmp	LBB42_18
LBB42_17:
Ltmp477:
	.loc	33 302 5
	movb	$7, -329(%rbp)
Ltmp478:
	.loc	33 302 5
	jmp	LBB42_3
LBB42_18:
	leaq	-336(%rbp), %rax
	movq	%rax, -256(%rbp)
	cmpl	$9, -336(%rbp)
	je	LBB42_21
	jmp	LBB42_20
LBB42_19:
Ltmp479:
	.loc	33 302 5
	movb	$8, -329(%rbp)
Ltmp480:
	.loc	33 302 5
	jmp	LBB42_3
LBB42_20:
	leaq	-336(%rbp), %rax
	movq	%rax, -248(%rbp)
	cmpl	$10, -336(%rbp)
	je	LBB42_23
	jmp	LBB42_22
LBB42_21:
Ltmp481:
	.loc	33 302 5
	movb	$9, -329(%rbp)
Ltmp482:
	.loc	33 302 5
	jmp	LBB42_3
LBB42_22:
	leaq	-336(%rbp), %rax
	movq	%rax, -240(%rbp)
	cmpl	$11, -336(%rbp)
	je	LBB42_25
	jmp	LBB42_24
LBB42_23:
Ltmp483:
	.loc	33 302 5
	movb	$10, -329(%rbp)
Ltmp484:
	.loc	33 302 5
	jmp	LBB42_3
LBB42_24:
	leaq	-336(%rbp), %rax
	movq	%rax, -232(%rbp)
	cmpl	$12, -336(%rbp)
	je	LBB42_27
	jmp	LBB42_26
LBB42_25:
Ltmp485:
	.loc	33 302 5
	movb	$11, -329(%rbp)
Ltmp486:
	.loc	33 302 5
	jmp	LBB42_3
LBB42_26:
	leaq	-336(%rbp), %rax
	movq	%rax, -224(%rbp)
	cmpl	$13, -336(%rbp)
	je	LBB42_29
	jmp	LBB42_28
LBB42_27:
Ltmp487:
	.loc	33 302 5
	movb	$12, -329(%rbp)
Ltmp488:
	.loc	33 302 5
	jmp	LBB42_3
LBB42_28:
	leaq	-336(%rbp), %rax
	movq	%rax, -216(%rbp)
	cmpl	$14, -336(%rbp)
	je	LBB42_31
	jmp	LBB42_30
LBB42_29:
Ltmp489:
	.loc	33 302 5
	movb	$13, -329(%rbp)
Ltmp490:
	.loc	33 302 5
	jmp	LBB42_3
LBB42_30:
	leaq	-336(%rbp), %rax
	movq	%rax, -208(%rbp)
	cmpl	$15, -336(%rbp)
	je	LBB42_33
	jmp	LBB42_32
LBB42_31:
Ltmp491:
	.loc	33 302 5
	movb	$14, -329(%rbp)
Ltmp492:
	.loc	33 302 5
	jmp	LBB42_3
LBB42_32:
	leaq	-336(%rbp), %rax
	movq	%rax, -200(%rbp)
	cmpl	$16, -336(%rbp)
	je	LBB42_35
	jmp	LBB42_34
LBB42_33:
Ltmp493:
	.loc	33 302 5
	movb	$15, -329(%rbp)
Ltmp494:
	.loc	33 302 5
	jmp	LBB42_3
LBB42_34:
	leaq	-336(%rbp), %rax
	movq	%rax, -192(%rbp)
	cmpl	$17, -336(%rbp)
	je	LBB42_37
	jmp	LBB42_36
LBB42_35:
Ltmp495:
	.loc	33 302 5
	movb	$16, -329(%rbp)
Ltmp496:
	.loc	33 302 5
	jmp	LBB42_3
LBB42_36:
	leaq	-336(%rbp), %rax
	movq	%rax, -184(%rbp)
	cmpl	$18, -336(%rbp)
	je	LBB42_39
	jmp	LBB42_38
LBB42_37:
Ltmp497:
	.loc	33 302 5
	movb	$17, -329(%rbp)
Ltmp498:
	.loc	33 302 5
	jmp	LBB42_3
LBB42_38:
	leaq	-336(%rbp), %rax
	movq	%rax, -176(%rbp)
	cmpl	$19, -336(%rbp)
	je	LBB42_41
	jmp	LBB42_40
LBB42_39:
Ltmp499:
	.loc	33 302 5
	movb	$18, -329(%rbp)
Ltmp500:
	.loc	33 302 5
	jmp	LBB42_3
LBB42_40:
	leaq	-336(%rbp), %rax
	movq	%rax, -168(%rbp)
	cmpl	$20, -336(%rbp)
	je	LBB42_43
	jmp	LBB42_42
LBB42_41:
Ltmp501:
	.loc	33 302 5
	movb	$19, -329(%rbp)
Ltmp502:
	.loc	33 302 5
	jmp	LBB42_3
LBB42_42:
	leaq	-336(%rbp), %rax
	movq	%rax, -160(%rbp)
	cmpl	$21, -336(%rbp)
	je	LBB42_45
	jmp	LBB42_44
LBB42_43:
Ltmp503:
	.loc	33 302 5
	movb	$20, -329(%rbp)
Ltmp504:
	.loc	33 302 5
	jmp	LBB42_3
LBB42_44:
	leaq	-336(%rbp), %rax
	movq	%rax, -152(%rbp)
	cmpl	$22, -336(%rbp)
	je	LBB42_47
	jmp	LBB42_46
LBB42_45:
Ltmp505:
	.loc	33 302 5
	movb	$21, -329(%rbp)
Ltmp506:
	.loc	33 302 5
	jmp	LBB42_3
LBB42_46:
	leaq	-336(%rbp), %rax
	movq	%rax, -144(%rbp)
	cmpl	$23, -336(%rbp)
	je	LBB42_49
	jmp	LBB42_48
LBB42_47:
Ltmp507:
	.loc	33 302 5
	movb	$22, -329(%rbp)
Ltmp508:
	.loc	33 302 5
	jmp	LBB42_3
LBB42_48:
	leaq	-336(%rbp), %rax
	movq	%rax, -136(%rbp)
	cmpl	$24, -336(%rbp)
	je	LBB42_51
	jmp	LBB42_50
LBB42_49:
Ltmp509:
	.loc	33 302 5
	movb	$23, -329(%rbp)
Ltmp510:
	.loc	33 302 5
	jmp	LBB42_3
LBB42_50:
	leaq	-336(%rbp), %rax
	movq	%rax, -128(%rbp)
	cmpl	$25, -336(%rbp)
	je	LBB42_53
	jmp	LBB42_52
LBB42_51:
Ltmp511:
	.loc	33 302 5
	movb	$24, -329(%rbp)
Ltmp512:
	.loc	33 302 5
	jmp	LBB42_3
LBB42_52:
	leaq	-336(%rbp), %rax
	movq	%rax, -120(%rbp)
	cmpl	$26, -336(%rbp)
	je	LBB42_55
	jmp	LBB42_54
LBB42_53:
Ltmp513:
	.loc	33 302 5
	movb	$25, -329(%rbp)
Ltmp514:
	.loc	33 302 5
	jmp	LBB42_3
LBB42_54:
	leaq	-336(%rbp), %rax
	movq	%rax, -112(%rbp)
	cmpl	$27, -336(%rbp)
	je	LBB42_57
	jmp	LBB42_56
LBB42_55:
Ltmp515:
	.loc	33 302 5
	movb	$26, -329(%rbp)
Ltmp516:
	.loc	33 302 5
	jmp	LBB42_3
LBB42_56:
	leaq	-336(%rbp), %rax
	movq	%rax, -104(%rbp)
	cmpl	$28, -336(%rbp)
	je	LBB42_59
	jmp	LBB42_58
LBB42_57:
Ltmp517:
	.loc	33 302 5
	movb	$27, -329(%rbp)
Ltmp518:
	.loc	33 302 5
	jmp	LBB42_3
LBB42_58:
	leaq	-336(%rbp), %rax
	movq	%rax, -96(%rbp)
	cmpl	$29, -336(%rbp)
	je	LBB42_61
	jmp	LBB42_60
LBB42_59:
Ltmp519:
	.loc	33 302 5
	movb	$28, -329(%rbp)
Ltmp520:
	.loc	33 302 5
	jmp	LBB42_3
LBB42_60:
	leaq	-336(%rbp), %rax
	movq	%rax, -88(%rbp)
	cmpl	$30, -336(%rbp)
	je	LBB42_63
	jmp	LBB42_62
LBB42_61:
Ltmp521:
	.loc	33 302 5
	movb	$29, -329(%rbp)
Ltmp522:
	.loc	33 302 5
	jmp	LBB42_3
LBB42_62:
	leaq	-336(%rbp), %rax
	movq	%rax, -80(%rbp)
	cmpl	$31, -336(%rbp)
	je	LBB42_65
	jmp	LBB42_64
LBB42_63:
Ltmp523:
	.loc	33 302 5
	movb	$30, -329(%rbp)
Ltmp524:
	.loc	33 302 5
	jmp	LBB42_3
LBB42_64:
	leaq	-336(%rbp), %rax
	movq	%rax, -72(%rbp)
	cmpl	$32, -336(%rbp)
	je	LBB42_67
	jmp	LBB42_66
LBB42_65:
Ltmp525:
	.loc	33 302 5
	movb	$31, -329(%rbp)
Ltmp526:
	.loc	33 302 5
	jmp	LBB42_3
LBB42_66:
	leaq	-336(%rbp), %rax
	movq	%rax, -64(%rbp)
	cmpl	$33, -336(%rbp)
	je	LBB42_69
	jmp	LBB42_68
LBB42_67:
Ltmp527:
	.loc	33 302 5
	movb	$32, -329(%rbp)
Ltmp528:
	.loc	33 302 5
	jmp	LBB42_3
LBB42_68:
	leaq	-336(%rbp), %rax
	movq	%rax, -56(%rbp)
	cmpl	$34, -336(%rbp)
	je	LBB42_71
	jmp	LBB42_70
LBB42_69:
Ltmp529:
	.loc	33 302 5
	movb	$33, -329(%rbp)
Ltmp530:
	.loc	33 302 5
	jmp	LBB42_3
LBB42_70:
	leaq	-336(%rbp), %rax
	movq	%rax, -48(%rbp)
	cmpl	$35, -336(%rbp)
	je	LBB42_73
	jmp	LBB42_72
LBB42_71:
Ltmp531:
	.loc	33 302 5
	movb	$34, -329(%rbp)
Ltmp532:
	.loc	33 302 5
	jmp	LBB42_3
LBB42_72:
	leaq	-336(%rbp), %rax
	movq	%rax, -40(%rbp)
	cmpl	$39, -336(%rbp)
	je	LBB42_75
	jmp	LBB42_74
LBB42_73:
Ltmp533:
	.loc	33 302 5
	movb	$35, -329(%rbp)
Ltmp534:
	.loc	33 302 5
	jmp	LBB42_3
LBB42_74:
	leaq	-336(%rbp), %rax
	movq	%rax, -32(%rbp)
	cmpl	$37, -336(%rbp)
	je	LBB42_77
	jmp	LBB42_76
LBB42_75:
Ltmp535:
	.loc	33 302 5
	movb	$39, -329(%rbp)
Ltmp536:
	.loc	33 302 5
	jmp	LBB42_3
LBB42_76:
	leaq	-336(%rbp), %rax
	movq	%rax, -24(%rbp)
	cmpl	$36, -336(%rbp)
	je	LBB42_79
	jmp	LBB42_78
LBB42_77:
Ltmp537:
	.loc	33 302 5
	movb	$37, -329(%rbp)
Ltmp538:
	.loc	33 302 5
	jmp	LBB42_3
LBB42_78:
	leaq	-336(%rbp), %rax
	movq	%rax, -16(%rbp)
	cmpl	$38, -336(%rbp)
	je	LBB42_81
	jmp	LBB42_80
LBB42_79:
Ltmp539:
	.loc	33 302 5
	movb	$36, -329(%rbp)
Ltmp540:
	.loc	33 302 5
	jmp	LBB42_3
LBB42_80:
	leaq	-336(%rbp), %rax
	movq	%rax, -8(%rbp)
	cmpl	$40, -336(%rbp)
	je	LBB42_83
	jmp	LBB42_82
LBB42_81:
Ltmp541:
	.loc	33 302 5
	movb	$38, -329(%rbp)
Ltmp542:
	.loc	33 302 5
	jmp	LBB42_3
LBB42_82:
	movb	$41, -329(%rbp)
	jmp	LBB42_3
LBB42_83:
Ltmp543:
	.loc	33 302 5
	movb	$40, -329(%rbp)
Ltmp544:
	.loc	33 302 5
	jmp	LBB42_3
Ltmp545:
Lfunc_end42:
	.cfi_endproc

	.globl	__ZN3std2io5error14repr_bitpacked4Repr4data28_$u7b$$u7b$closure$u7d$$u7d$17h3e254040a441cacaE
	.p2align	4, 0x90
__ZN3std2io5error14repr_bitpacked4Repr4data28_$u7b$$u7b$closure$u7d$$u7d$17h3e254040a441cacaE:
Lfunc_begin43:
	.loc	33 212 0 is_stmt 1
	.cfi_startproc
	pushq	%rbp
	.cfi_def_cfa_offset 16
	.cfi_offset %rbp, -16
	movq	%rsp, %rbp
	.cfi_def_cfa_register %rbp
	subq	$16, %rsp
	movq	%rdi, %rax
	movq	%rax, -8(%rbp)
Ltmp546:
	.loc	33 212 45 prologue_end
	addq	$16, %rsp
	popq	%rbp
	retq
Ltmp547:
Lfunc_end43:
	.cfi_endproc

	.p2align	4, 0x90
__ZN3std2io5error5Error4kind17hb29d96871e3c06e6E:
Lfunc_begin44:
	.loc	32 893 0
	.cfi_startproc
	pushq	%rbp
	.cfi_def_cfa_offset 16
	.cfi_offset %rbp, -16
	movq	%rsp, %rbp
	.cfi_def_cfa_register %rbp
	subq	$80, %rsp
	movq	%rdi, -40(%rbp)
Ltmp548:
	.loc	32 894 15 prologue_end
	movq	%rdi, -32(%rbp)
Ltmp549:
	.loc	33 212 30
	movq	(%rdi), %rsi
	leaq	-56(%rbp), %rdi
	.loc	33 212 18 is_stmt 0
	callq	__ZN3std2io5error14repr_bitpacked11decode_repr17hbd5d3614fad820c9E
Ltmp550:
	.loc	32 894 15 is_stmt 1
	movzbl	-56(%rbp), %eax
	movq	%rax, -72(%rbp)
	.loc	32 0 15 is_stmt 0
	movq	-72(%rbp), %rax
	leaq	LJTI44_0(%rip), %rcx
	movslq	(%rcx,%rax,4), %rax
	addq	%rcx, %rax
	jmpq	*%rax
	.loc	32 894 15
	ud2
LBB44_2:
	.loc	32 895 27 is_stmt 1
	movl	-52(%rbp), %edi
	movl	%edi, -4(%rbp)
Ltmp551:
	.loc	32 895 36 is_stmt 0
	callq	__ZN3std3sys4unix17decode_error_kind17h50ab8511eed7ed72E
	movb	%al, -57(%rbp)
Ltmp552:
	.loc	32 895 63
	jmp	LBB44_6
LBB44_3:
	.loc	32 897 31 is_stmt 1
	movb	-55(%rbp), %al
	movb	%al, -5(%rbp)
Ltmp553:
	.loc	32 897 40 is_stmt 0
	movb	%al, -57(%rbp)
Ltmp554:
	.loc	32 897 43
	jmp	LBB44_6
LBB44_4:
	.loc	32 898 38 is_stmt 1
	movq	-48(%rbp), %rax
	movq	%rax, -16(%rbp)
Ltmp555:
	.loc	32 898 44 is_stmt 0
	movb	16(%rax), %al
	movb	%al, -57(%rbp)
Ltmp556:
	.loc	32 898 49
	jmp	LBB44_6
LBB44_5:
	.loc	32 896 31 is_stmt 1
	movq	-48(%rbp), %rax
	movq	%rax, -24(%rbp)
Ltmp557:
	.loc	32 896 37 is_stmt 0
	movb	16(%rax), %al
	movb	%al, -57(%rbp)
Ltmp558:
LBB44_6:
	.loc	32 900 6 is_stmt 1
	movb	-57(%rbp), %al
	addq	$80, %rsp
	popq	%rbp
	retq
Ltmp559:
Lfunc_end44:
	.cfi_endproc
	.p2align	2, 0x90
	.data_region jt32
.set L44_0_set_2, LBB44_2-LJTI44_0
.set L44_0_set_3, LBB44_3-LJTI44_0
.set L44_0_set_4, LBB44_4-LJTI44_0
.set L44_0_set_5, LBB44_5-LJTI44_0
LJTI44_0:
	.long	L44_0_set_2
	.long	L44_0_set_3
	.long	L44_0_set_4
	.long	L44_0_set_5
	.end_data_region

	.globl	__ZN3std3env3var17h1820b2dd0dabfed8E
	.p2align	4, 0x90
__ZN3std3env3var17h1820b2dd0dabfed8E:
Lfunc_begin45:
	.file	34 "/rustc/2c8cc343237b8f7d5a3c3703e3a87f2eb2c54a74/library/std/src" "env.rs"
	.loc	34 227 0
	.cfi_startproc
	.cfi_personality 155, _rust_eh_personality
	.cfi_lsda 16, Lexception10
	pushq	%rbp
	.cfi_def_cfa_offset 16
	.cfi_offset %rbp, -16
	movq	%rsp, %rbp
	.cfi_def_cfa_register %rbp
	subq	$64, %rsp
	movq	%rdi, -64(%rbp)
	movq	%rdi, -56(%rbp)
	movq	%rsi, -32(%rbp)
	movq	%rdx, -24(%rbp)
Ltmp560:
	leaq	-32(%rbp), %rdi
Ltmp565:
	.loc	34 228 10 prologue_end
	callq	__ZN55_$LT$$RF$T$u20$as$u20$core..convert..AsRef$LT$U$GT$$GT$6as_ref17h698d35b20c194d21E
Ltmp561:
	movq	%rdx, -48(%rbp)
	movq	%rax, -40(%rbp)
	jmp	LBB45_3
LBB45_1:
	.loc	34 227 1
	movq	-16(%rbp), %rdi
	callq	__Unwind_Resume
LBB45_2:
Ltmp564:
	.loc	34 0 1 is_stmt 0
	movq	%rax, %rcx
	movl	%edx, %eax
	movq	%rcx, -16(%rbp)
	movl	%eax, -8(%rbp)
	jmp	LBB45_1
LBB45_3:
Ltmp562:
	movq	-48(%rbp), %rdx
	movq	-40(%rbp), %rsi
	movq	-64(%rbp), %rdi
	.loc	34 228 5 is_stmt 1
	callq	__ZN3std3env4_var17h3981769605209d03E
Ltmp563:
	jmp	LBB45_4
LBB45_4:
	.loc	34 0 5 is_stmt 0
	movq	-56(%rbp), %rax
	.loc	34 229 2 is_stmt 1
	addq	$64, %rsp
	popq	%rbp
	retq
Ltmp566:
Lfunc_end45:
	.cfi_endproc
	.section	__TEXT,__gcc_except_tab
	.p2align	2
GCC_except_table45:
Lexception10:
	.byte	255
	.byte	255
	.byte	1
	.uleb128 Lcst_end10-Lcst_begin10
Lcst_begin10:
	.uleb128 Ltmp560-Lfunc_begin45
	.uleb128 Ltmp561-Ltmp560
	.uleb128 Ltmp564-Lfunc_begin45
	.byte	0
	.uleb128 Ltmp561-Lfunc_begin45
	.uleb128 Ltmp562-Ltmp561
	.byte	0
	.byte	0
	.uleb128 Ltmp562-Lfunc_begin45
	.uleb128 Ltmp563-Ltmp562
	.uleb128 Ltmp564-Lfunc_begin45
	.byte	0
Lcst_end10:
	.p2align	2

	.section	__TEXT,__text,regular,pure_instructions
	.globl	__ZN3std3env6var_os17h31cd1fd4037c58d8E
	.p2align	4, 0x90
__ZN3std3env6var_os17h31cd1fd4037c58d8E:
Lfunc_begin46:
	.loc	34 268 0
	.cfi_startproc
	.cfi_personality 155, _rust_eh_personality
	.cfi_lsda 16, Lexception11
	pushq	%rbp
	.cfi_def_cfa_offset 16
	.cfi_offset %rbp, -16
	movq	%rsp, %rbp
	.cfi_def_cfa_register %rbp
	subq	$64, %rsp
	movq	%rdi, -64(%rbp)
	movq	%rdi, -56(%rbp)
	movq	%rsi, -32(%rbp)
	movq	%rdx, -24(%rbp)
Ltmp567:
	leaq	-32(%rbp), %rdi
Ltmp572:
	.loc	34 269 13 prologue_end
	callq	__ZN55_$LT$$RF$T$u20$as$u20$core..convert..AsRef$LT$U$GT$$GT$6as_ref17h698d35b20c194d21E
Ltmp568:
	movq	%rdx, -48(%rbp)
	movq	%rax, -40(%rbp)
	jmp	LBB46_3
LBB46_1:
	.loc	34 268 1
	movq	-16(%rbp), %rdi
	callq	__Unwind_Resume
LBB46_2:
Ltmp571:
	.loc	34 0 1 is_stmt 0
	movq	%rax, %rcx
	movl	%edx, %eax
	movq	%rcx, -16(%rbp)
	movl	%eax, -8(%rbp)
	jmp	LBB46_1
LBB46_3:
Ltmp569:
	movq	-48(%rbp), %rdx
	movq	-40(%rbp), %rsi
	movq	-64(%rbp), %rdi
	.loc	34 269 5 is_stmt 1
	callq	__ZN3std3env7_var_os17h71e71f6d7accb7a3E
Ltmp570:
	jmp	LBB46_4
LBB46_4:
	.loc	34 0 5 is_stmt 0
	movq	-56(%rbp), %rax
	.loc	34 270 2 is_stmt 1
	addq	$64, %rsp
	popq	%rbp
	retq
Ltmp573:
Lfunc_end46:
	.cfi_endproc
	.section	__TEXT,__gcc_except_tab
	.p2align	2
GCC_except_table46:
Lexception11:
	.byte	255
	.byte	255
	.byte	1
	.uleb128 Lcst_end11-Lcst_begin11
Lcst_begin11:
	.uleb128 Ltmp567-Lfunc_begin46
	.uleb128 Ltmp568-Ltmp567
	.uleb128 Ltmp571-Lfunc_begin46
	.byte	0
	.uleb128 Ltmp568-Lfunc_begin46
	.uleb128 Ltmp569-Ltmp568
	.byte	0
	.byte	0
	.uleb128 Ltmp569-Lfunc_begin46
	.uleb128 Ltmp570-Ltmp569
	.uleb128 Ltmp571-Lfunc_begin46
	.byte	0
Lcst_end11:
	.p2align	2

	.section	__TEXT,__text,regular,pure_instructions
	.p2align	4, 0x90
__ZN3std3ffi6os_str103_$LT$impl$u20$core..convert..AsRef$LT$std..ffi..os_str..OsStr$GT$$u20$for$u20$alloc..string..String$GT$6as_ref17h5a60c95c64244a0eE:
Lfunc_begin47:
	.file	35 "/rustc/2c8cc343237b8f7d5a3c3703e3a87f2eb2c54a74/library/std/src/ffi" "os_str.rs"
	.loc	35 1329 0
	.cfi_startproc
	pushq	%rbp
	.cfi_def_cfa_offset 16
	.cfi_offset %rbp, -16
	movq	%rsp, %rbp
	.cfi_def_cfa_register %rbp
	subq	$160, %rsp
	movq	%rdi, -160(%rbp)
Ltmp574:
	.loc	35 1330 12 prologue_end
	movq	%rdi, -152(%rbp)
Ltmp575:
	.file	36 "/rustc/2c8cc343237b8f7d5a3c3703e3a87f2eb2c54a74/library/alloc/src" "string.rs"
	.loc	36 2460 43
	callq	__ZN72_$LT$alloc..vec..Vec$LT$T$C$A$GT$$u20$as$u20$core..ops..deref..Deref$GT$5deref17hfc60ab601cb9be5dE
	movq	%rax, -144(%rbp)
	movq	%rdx, -136(%rbp)
Ltmp576:
	.file	37 "/rustc/2c8cc343237b8f7d5a3c3703e3a87f2eb2c54a74/library/core/src/str" "converts.rs"
	.loc	37 173 14
	movq	%rax, -128(%rbp)
	movq	%rdx, -120(%rbp)
	movq	-128(%rbp), %rcx
	movq	-120(%rbp), %rax
Ltmp577:
	.loc	35 1330 9
	movq	%rcx, -112(%rbp)
	movq	%rax, -104(%rbp)
Ltmp578:
	.loc	35 1322 43
	movq	%rcx, -96(%rbp)
	movq	%rax, -88(%rbp)
Ltmp579:
	.file	38 "/rustc/2c8cc343237b8f7d5a3c3703e3a87f2eb2c54a74/library/std/src/sys/unix" "os_str.rs"
	.loc	38 201 30
	movq	%rcx, -80(%rbp)
	movq	%rax, -72(%rbp)
Ltmp580:
	.file	39 "/rustc/2c8cc343237b8f7d5a3c3703e3a87f2eb2c54a74/library/core/src/str" "mod.rs"
	.loc	39 327 18
	movq	%rcx, -64(%rbp)
	movq	%rax, -56(%rbp)
	movq	-64(%rbp), %rcx
	movq	-56(%rbp), %rax
Ltmp581:
	.loc	38 201 30
	movq	%rcx, -48(%rbp)
	movq	%rax, -40(%rbp)
Ltmp582:
	.loc	38 196 18
	movq	%rcx, -32(%rbp)
	movq	%rax, -24(%rbp)
	movq	-32(%rbp), %rax
	movq	-24(%rbp), %rdx
Ltmp583:
	.loc	35 1322 27
	movq	%rax, -16(%rbp)
	movq	%rdx, -8(%rbp)
Ltmp584:
	.loc	35 1331 6
	addq	$160, %rsp
	popq	%rbp
	retq
Ltmp585:
Lfunc_end47:
	.cfi_endproc

	.p2align	4, 0x90
__ZN3std3ffi6os_str85_$LT$impl$u20$core..convert..AsRef$LT$std..ffi..os_str..OsStr$GT$$u20$for$u20$str$GT$6as_ref17h4987aa6548f9f950E:
Lfunc_begin48:
	.loc	35 1321 0
	.cfi_startproc
	pushq	%rbp
	.cfi_def_cfa_offset 16
	.cfi_offset %rbp, -16
	movq	%rsp, %rbp
	.cfi_def_cfa_register %rbp
	subq	$112, %rsp
	movq	%rdi, -112(%rbp)
	movq	%rsi, -104(%rbp)
Ltmp586:
	.loc	35 1322 43 prologue_end
	movq	%rdi, -96(%rbp)
	movq	%rsi, -88(%rbp)
Ltmp587:
	.loc	38 201 30
	movq	%rdi, -80(%rbp)
	movq	%rsi, -72(%rbp)
Ltmp588:
	.loc	39 327 18
	movq	%rdi, -64(%rbp)
	movq	%rsi, -56(%rbp)
	movq	-64(%rbp), %rcx
	movq	-56(%rbp), %rax
Ltmp589:
	.loc	38 201 30
	movq	%rcx, -48(%rbp)
	movq	%rax, -40(%rbp)
Ltmp590:
	.loc	38 196 18
	movq	%rcx, -32(%rbp)
	movq	%rax, -24(%rbp)
	movq	-32(%rbp), %rax
	movq	-24(%rbp), %rdx
Ltmp591:
	.loc	35 1322 27
	movq	%rax, -16(%rbp)
	movq	%rdx, -8(%rbp)
	.loc	35 1323 6
	addq	$112, %rsp
	popq	%rbp
	retq
Ltmp592:
Lfunc_end48:
	.cfi_endproc

	.p2align	4, 0x90
__ZN3std4path100_$LT$impl$u20$core..convert..AsRef$LT$std..path..Path$GT$$u20$for$u20$std..ffi..os_str..OsString$GT$6as_ref17h3c3296ac43badf3bE:
Lfunc_begin49:
	.file	40 "/rustc/2c8cc343237b8f7d5a3c3703e3a87f2eb2c54a74/library/std/src" "path.rs"
	.loc	40 3130 0
	.cfi_startproc
	pushq	%rbp
	.cfi_def_cfa_offset 16
	.cfi_offset %rbp, -16
	movq	%rsp, %rbp
	.cfi_def_cfa_register %rbp
	subq	$16, %rsp
	movq	%rdi, -8(%rbp)
Ltmp593:
	.loc	40 3131 9 prologue_end
	callq	__ZN3std4path4Path3new17h7d11ffc2f079a32aE
	.loc	40 3132 6
	addq	$16, %rsp
	popq	%rbp
	retq
Ltmp594:
Lfunc_end49:
	.cfi_endproc

	.globl	__ZN3std4path4Path3new17h7d11ffc2f079a32aE
	.p2align	4, 0x90
__ZN3std4path4Path3new17h7d11ffc2f079a32aE:
Lfunc_begin50:
	.loc	40 2037 0
	.cfi_startproc
	pushq	%rbp
	.cfi_def_cfa_offset 16
	.cfi_offset %rbp, -16
	movq	%rsp, %rbp
	.cfi_def_cfa_register %rbp
	subq	$16, %rsp
	movq	%rdi, -8(%rbp)
Ltmp595:
	.loc	40 2038 21 prologue_end
	callq	__ZN98_$LT$std..ffi..os_str..OsString$u20$as$u20$core..convert..AsRef$LT$std..ffi..os_str..OsStr$GT$$GT$6as_ref17ha6297cdd4332f2d3E
	.loc	40 2039 6
	addq	$16, %rsp
	popq	%rbp
	retq
Ltmp596:
Lfunc_end50:
	.cfi_endproc

	.p2align	4, 0x90
__ZN3std4path4Path6to_str17h512cd5c07af2c1c7E:
Lfunc_begin51:
	.loc	40 2106 0
	.cfi_startproc
	pushq	%rbp
	.cfi_def_cfa_offset 16
	.cfi_offset %rbp, -16
	movq	%rsp, %rbp
	.cfi_def_cfa_register %rbp
	subq	$32, %rsp
	movq	%rdi, -32(%rbp)
	movq	%rsi, -24(%rbp)
Ltmp597:
	.loc	40 2107 9 prologue_end
	movq	%rdi, -16(%rbp)
	movq	%rsi, -8(%rbp)
Ltmp598:
	.loc	35 704 9
	callq	__ZN3std3sys4unix6os_str5Slice6to_str17h19373d45d7a45923E
Ltmp599:
	.loc	40 2108 6
	addq	$32, %rsp
	popq	%rbp
	retq
Ltmp600:
Lfunc_end51:
	.cfi_endproc

	.globl	__ZN3std4path7PathBuf4push17hb458b570ed33603dE
	.p2align	4, 0x90
__ZN3std4path7PathBuf4push17hb458b570ed33603dE:
Lfunc_begin52:
	.loc	40 1274 0
	.cfi_startproc
	.cfi_personality 155, _rust_eh_personality
	.cfi_lsda 16, Lexception12
	pushq	%rbp
	.cfi_def_cfa_offset 16
	.cfi_offset %rbp, -16
	movq	%rsp, %rbp
	.cfi_def_cfa_register %rbp
	subq	$64, %rsp
	movq	%rdi, -56(%rbp)
	movq	%rsi, -32(%rbp)
	movq	%rdi, -24(%rbp)
Ltmp601:
	leaq	-32(%rbp), %rdi
Ltmp606:
	.loc	40 1275 20 prologue_end
	callq	__ZN55_$LT$$RF$T$u20$as$u20$core..convert..AsRef$LT$U$GT$$GT$6as_ref17hd24491f1024c1048E
Ltmp602:
	movq	%rdx, -48(%rbp)
	movq	%rax, -40(%rbp)
	jmp	LBB52_3
LBB52_1:
	.loc	40 1274 5
	movq	-16(%rbp), %rdi
	callq	__Unwind_Resume
LBB52_2:
Ltmp605:
	.loc	40 0 5 is_stmt 0
	movq	%rax, %rcx
	movl	%edx, %eax
	movq	%rcx, -16(%rbp)
	movl	%eax, -8(%rbp)
	jmp	LBB52_1
LBB52_3:
Ltmp603:
	movq	-48(%rbp), %rdx
	movq	-40(%rbp), %rsi
	movq	-56(%rbp), %rdi
	.loc	40 1275 9 is_stmt 1
	callq	__ZN3std4path7PathBuf5_push17h40615dc440cec2acE
Ltmp604:
	jmp	LBB52_4
LBB52_4:
	.loc	40 1276 6
	addq	$64, %rsp
	popq	%rbp
	retq
Ltmp607:
Lfunc_end52:
	.cfi_endproc
	.section	__TEXT,__gcc_except_tab
	.p2align	2
GCC_except_table52:
Lexception12:
	.byte	255
	.byte	255
	.byte	1
	.uleb128 Lcst_end12-Lcst_begin12
Lcst_begin12:
	.uleb128 Ltmp601-Lfunc_begin52
	.uleb128 Ltmp602-Ltmp601
	.uleb128 Ltmp605-Lfunc_begin52
	.byte	0
	.uleb128 Ltmp602-Lfunc_begin52
	.uleb128 Ltmp603-Ltmp602
	.byte	0
	.byte	0
	.uleb128 Ltmp603-Lfunc_begin52
	.uleb128 Ltmp604-Ltmp603
	.uleb128 Ltmp605-Lfunc_begin52
	.byte	0
Lcst_end12:
	.p2align	2

	.section	__TEXT,__text,regular,pure_instructions
	.globl	__ZN3std7process7Command3arg17h399fc57bc10ebc78E
	.p2align	4, 0x90
__ZN3std7process7Command3arg17h399fc57bc10ebc78E:
Lfunc_begin53:
	.file	41 "/rustc/2c8cc343237b8f7d5a3c3703e3a87f2eb2c54a74/library/std/src" "process.rs"
	.loc	41 607 0
	.cfi_startproc
	.cfi_personality 155, _rust_eh_personality
	.cfi_lsda 16, Lexception13
	pushq	%rbp
	.cfi_def_cfa_offset 16
	.cfi_offset %rbp, -16
	movq	%rsp, %rbp
	.cfi_def_cfa_register %rbp
	subq	$64, %rsp
	movq	%rdi, -64(%rbp)
	movq	%rsi, -40(%rbp)
	movq	%rdx, -32(%rbp)
	movq	%rdi, -24(%rbp)
Ltmp608:
	leaq	-40(%rbp), %rdi
Ltmp613:
	.loc	41 608 24 prologue_end
	callq	__ZN55_$LT$$RF$T$u20$as$u20$core..convert..AsRef$LT$U$GT$$GT$6as_ref17hca29949757c36a02E
Ltmp609:
	movq	%rdx, -56(%rbp)
	movq	%rax, -48(%rbp)
	jmp	LBB53_3
LBB53_1:
	.loc	41 607 5
	movq	-16(%rbp), %rdi
	callq	__Unwind_Resume
LBB53_2:
Ltmp612:
	.loc	41 0 5 is_stmt 0
	movq	%rax, %rcx
	movl	%edx, %eax
	movq	%rcx, -16(%rbp)
	movl	%eax, -8(%rbp)
	jmp	LBB53_1
LBB53_3:
Ltmp610:
	movq	-56(%rbp), %rdx
	movq	-48(%rbp), %rsi
	movq	-64(%rbp), %rdi
	.loc	41 608 9 is_stmt 1
	callq	__ZN3std3sys4unix7process14process_common7Command3arg17hdfe06f44e19d0682E
Ltmp611:
	jmp	LBB53_4
LBB53_4:
	.loc	41 0 9 is_stmt 0
	movq	-64(%rbp), %rax
	.loc	41 610 6 is_stmt 1
	addq	$64, %rsp
	popq	%rbp
	retq
Ltmp614:
Lfunc_end53:
	.cfi_endproc
	.section	__TEXT,__gcc_except_tab
	.p2align	2
GCC_except_table53:
Lexception13:
	.byte	255
	.byte	255
	.byte	1
	.uleb128 Lcst_end13-Lcst_begin13
Lcst_begin13:
	.uleb128 Ltmp608-Lfunc_begin53
	.uleb128 Ltmp609-Ltmp608
	.uleb128 Ltmp612-Lfunc_begin53
	.byte	0
	.uleb128 Ltmp609-Lfunc_begin53
	.uleb128 Ltmp610-Ltmp609
	.byte	0
	.byte	0
	.uleb128 Ltmp610-Lfunc_begin53
	.uleb128 Ltmp611-Ltmp610
	.uleb128 Ltmp612-Lfunc_begin53
	.byte	0
Lcst_end13:
	.p2align	2

	.section	__TEXT,__text,regular,pure_instructions
	.globl	__ZN3std7process7Command3arg17h49346674721b6ebaE
	.p2align	4, 0x90
__ZN3std7process7Command3arg17h49346674721b6ebaE:
Lfunc_begin54:
	.loc	41 607 0
	.cfi_startproc
	.cfi_personality 155, _rust_eh_personality
	.cfi_lsda 16, Lexception14
	pushq	%rbp
	.cfi_def_cfa_offset 16
	.cfi_offset %rbp, -16
	movq	%rsp, %rbp
	.cfi_def_cfa_register %rbp
	subq	$64, %rsp
	movq	%rsi, -64(%rbp)
	movq	%rdi, %rax
	movq	-64(%rbp), %rdi
	movq	%rax, -56(%rbp)
	movq	%rdi, -48(%rbp)
Ltmp623:
	movq	%rax, -24(%rbp)
Ltmp615:
Ltmp624:
	.loc	41 608 24 prologue_end
	callq	__ZN3std3ffi6os_str103_$LT$impl$u20$core..convert..AsRef$LT$std..ffi..os_str..OsStr$GT$$u20$for$u20$alloc..string..String$GT$6as_ref17h5a60c95c64244a0eE
Ltmp625:
Ltmp616:
	.loc	41 0 24 is_stmt 0
	movq	%rdx, -40(%rbp)
	movq	%rax, -32(%rbp)
Ltmp626:
	.loc	41 608 24
	jmp	LBB54_3
Ltmp627:
LBB54_1:
Ltmp620:
	.loc	41 0 24
	movq	-48(%rbp), %rdi
	.loc	41 610 5 is_stmt 1
	callq	__ZN4core3ptr42drop_in_place$LT$alloc..string..String$GT$17h3cc4b04911fd7e35E
Ltmp621:
	jmp	LBB54_6
Ltmp628:
LBB54_2:
Ltmp619:
	.loc	41 0 5 is_stmt 0
	movq	%rax, %rcx
	movl	%edx, %eax
	movq	%rcx, -16(%rbp)
	movl	%eax, -8(%rbp)
	jmp	LBB54_1
Ltmp629:
LBB54_3:
Ltmp617:
	movq	-40(%rbp), %rdx
	movq	-32(%rbp), %rsi
	movq	-56(%rbp), %rdi
	.loc	41 608 9 is_stmt 1
	callq	__ZN3std3sys4unix7process14process_common7Command3arg17hdfe06f44e19d0682E
Ltmp618:
	jmp	LBB54_4
Ltmp630:
LBB54_4:
	.loc	41 0 9 is_stmt 0
	movq	-48(%rbp), %rdi
	.loc	41 610 5 is_stmt 1
	callq	__ZN4core3ptr42drop_in_place$LT$alloc..string..String$GT$17h3cc4b04911fd7e35E
	movq	-56(%rbp), %rax
	.loc	41 610 6 is_stmt 0
	addq	$64, %rsp
	popq	%rbp
	retq
Ltmp631:
LBB54_5:
Ltmp622:
	.loc	41 607 5 is_stmt 1
	callq	__ZN4core9panicking19panic_cannot_unwind17h1fbca7e1d7f56ae1E
Ltmp632:
LBB54_6:
	movq	-16(%rbp), %rdi
	callq	__Unwind_Resume
Ltmp633:
Lfunc_end54:
	.cfi_endproc
	.section	__TEXT,__gcc_except_tab
	.p2align	2
GCC_except_table54:
Lexception14:
	.byte	255
	.byte	255
	.byte	1
	.uleb128 Lcst_end14-Lcst_begin14
Lcst_begin14:
	.uleb128 Ltmp615-Lfunc_begin54
	.uleb128 Ltmp616-Ltmp615
	.uleb128 Ltmp619-Lfunc_begin54
	.byte	0
	.uleb128 Ltmp620-Lfunc_begin54
	.uleb128 Ltmp621-Ltmp620
	.uleb128 Ltmp622-Lfunc_begin54
	.byte	0
	.uleb128 Ltmp617-Lfunc_begin54
	.uleb128 Ltmp618-Ltmp617
	.uleb128 Ltmp619-Lfunc_begin54
	.byte	0
	.uleb128 Ltmp618-Lfunc_begin54
	.uleb128 Lfunc_end54-Ltmp618
	.byte	0
	.byte	0
Lcst_end14:
	.p2align	2

	.section	__TEXT,__text,regular,pure_instructions
	.globl	__ZN3std7process7Command3arg17h590e6417c9cb87eaE
	.p2align	4, 0x90
__ZN3std7process7Command3arg17h590e6417c9cb87eaE:
Lfunc_begin55:
	.loc	41 607 0
	.cfi_startproc
	.cfi_personality 155, _rust_eh_personality
	.cfi_lsda 16, Lexception15
	pushq	%rbp
	.cfi_def_cfa_offset 16
	.cfi_offset %rbp, -16
	movq	%rsp, %rbp
	.cfi_def_cfa_register %rbp
	subq	$64, %rsp
	movq	%rdi, -64(%rbp)
	movq	%rsi, -40(%rbp)
	movq	%rdx, -32(%rbp)
	movq	%rdi, -24(%rbp)
Ltmp634:
	leaq	-40(%rbp), %rdi
Ltmp639:
	.loc	41 608 24 prologue_end
	callq	__ZN55_$LT$$RF$T$u20$as$u20$core..convert..AsRef$LT$U$GT$$GT$6as_ref17h698d35b20c194d21E
Ltmp635:
	movq	%rdx, -56(%rbp)
	movq	%rax, -48(%rbp)
	jmp	LBB55_3
LBB55_1:
	.loc	41 607 5
	movq	-16(%rbp), %rdi
	callq	__Unwind_Resume
LBB55_2:
Ltmp638:
	.loc	41 0 5 is_stmt 0
	movq	%rax, %rcx
	movl	%edx, %eax
	movq	%rcx, -16(%rbp)
	movl	%eax, -8(%rbp)
	jmp	LBB55_1
LBB55_3:
Ltmp636:
	movq	-56(%rbp), %rdx
	movq	-48(%rbp), %rsi
	movq	-64(%rbp), %rdi
	.loc	41 608 9 is_stmt 1
	callq	__ZN3std3sys4unix7process14process_common7Command3arg17hdfe06f44e19d0682E
Ltmp637:
	jmp	LBB55_4
LBB55_4:
	.loc	41 0 9 is_stmt 0
	movq	-64(%rbp), %rax
	.loc	41 610 6 is_stmt 1
	addq	$64, %rsp
	popq	%rbp
	retq
Ltmp640:
Lfunc_end55:
	.cfi_endproc
	.section	__TEXT,__gcc_except_tab
	.p2align	2
GCC_except_table55:
Lexception15:
	.byte	255
	.byte	255
	.byte	1
	.uleb128 Lcst_end15-Lcst_begin15
Lcst_begin15:
	.uleb128 Ltmp634-Lfunc_begin55
	.uleb128 Ltmp635-Ltmp634
	.uleb128 Ltmp638-Lfunc_begin55
	.byte	0
	.uleb128 Ltmp635-Lfunc_begin55
	.uleb128 Ltmp636-Ltmp635
	.byte	0
	.byte	0
	.uleb128 Ltmp636-Lfunc_begin55
	.uleb128 Ltmp637-Ltmp636
	.uleb128 Ltmp638-Lfunc_begin55
	.byte	0
Lcst_end15:
	.p2align	2

	.section	__TEXT,__text,regular,pure_instructions
	.globl	__ZN3std7process7Command3arg17hb18cfcda85356df3E
	.p2align	4, 0x90
__ZN3std7process7Command3arg17hb18cfcda85356df3E:
Lfunc_begin56:
	.loc	41 607 0
	.cfi_startproc
	.cfi_personality 155, _rust_eh_personality
	.cfi_lsda 16, Lexception16
	pushq	%rbp
	.cfi_def_cfa_offset 16
	.cfi_offset %rbp, -16
	movq	%rsp, %rbp
	.cfi_def_cfa_register %rbp
	subq	$64, %rsp
	movq	%rdi, -56(%rbp)
	movq	%rsi, -32(%rbp)
	movq	%rdi, -24(%rbp)
Ltmp641:
	leaq	-32(%rbp), %rdi
Ltmp646:
	.loc	41 608 24 prologue_end
	callq	__ZN55_$LT$$RF$T$u20$as$u20$core..convert..AsRef$LT$U$GT$$GT$6as_ref17h1860bd52d3e8fe06E
Ltmp642:
	movq	%rdx, -48(%rbp)
	movq	%rax, -40(%rbp)
	jmp	LBB56_3
LBB56_1:
	.loc	41 607 5
	movq	-16(%rbp), %rdi
	callq	__Unwind_Resume
LBB56_2:
Ltmp645:
	.loc	41 0 5 is_stmt 0
	movq	%rax, %rcx
	movl	%edx, %eax
	movq	%rcx, -16(%rbp)
	movl	%eax, -8(%rbp)
	jmp	LBB56_1
LBB56_3:
Ltmp643:
	movq	-48(%rbp), %rdx
	movq	-40(%rbp), %rsi
	movq	-56(%rbp), %rdi
	.loc	41 608 9 is_stmt 1
	callq	__ZN3std3sys4unix7process14process_common7Command3arg17hdfe06f44e19d0682E
Ltmp644:
	jmp	LBB56_4
LBB56_4:
	.loc	41 0 9 is_stmt 0
	movq	-56(%rbp), %rax
	.loc	41 610 6 is_stmt 1
	addq	$64, %rsp
	popq	%rbp
	retq
Ltmp647:
Lfunc_end56:
	.cfi_endproc
	.section	__TEXT,__gcc_except_tab
	.p2align	2
GCC_except_table56:
Lexception16:
	.byte	255
	.byte	255
	.byte	1
	.uleb128 Lcst_end16-Lcst_begin16
Lcst_begin16:
	.uleb128 Ltmp641-Lfunc_begin56
	.uleb128 Ltmp642-Ltmp641
	.uleb128 Ltmp645-Lfunc_begin56
	.byte	0
	.uleb128 Ltmp642-Lfunc_begin56
	.uleb128 Ltmp643-Ltmp642
	.byte	0
	.byte	0
	.uleb128 Ltmp643-Lfunc_begin56
	.uleb128 Ltmp644-Ltmp643
	.uleb128 Ltmp645-Lfunc_begin56
	.byte	0
Lcst_end16:
	.p2align	2

	.section	__TEXT,__text,regular,pure_instructions
	.globl	__ZN3std7process7Command3arg17hb9b44e558c5c27cbE
	.p2align	4, 0x90
__ZN3std7process7Command3arg17hb9b44e558c5c27cbE:
Lfunc_begin57:
	.loc	41 607 0
	.cfi_startproc
	.cfi_personality 155, _rust_eh_personality
	.cfi_lsda 16, Lexception17
	pushq	%rbp
	.cfi_def_cfa_offset 16
	.cfi_offset %rbp, -16
	movq	%rsp, %rbp
	.cfi_def_cfa_register %rbp
	subq	$64, %rsp
	movq	%rdi, -56(%rbp)
	movq	%rsi, -32(%rbp)
	movq	%rdi, -24(%rbp)
Ltmp648:
	leaq	-32(%rbp), %rdi
Ltmp653:
	.loc	41 608 24 prologue_end
	callq	__ZN55_$LT$$RF$T$u20$as$u20$core..convert..AsRef$LT$U$GT$$GT$6as_ref17hea1548ccb591330bE
Ltmp649:
	movq	%rdx, -48(%rbp)
	movq	%rax, -40(%rbp)
	jmp	LBB57_3
LBB57_1:
	.loc	41 607 5
	movq	-16(%rbp), %rdi
	callq	__Unwind_Resume
LBB57_2:
Ltmp652:
	.loc	41 0 5 is_stmt 0
	movq	%rax, %rcx
	movl	%edx, %eax
	movq	%rcx, -16(%rbp)
	movl	%eax, -8(%rbp)
	jmp	LBB57_1
LBB57_3:
Ltmp650:
	movq	-48(%rbp), %rdx
	movq	-40(%rbp), %rsi
	movq	-56(%rbp), %rdi
	.loc	41 608 9 is_stmt 1
	callq	__ZN3std3sys4unix7process14process_common7Command3arg17hdfe06f44e19d0682E
Ltmp651:
	jmp	LBB57_4
LBB57_4:
	.loc	41 0 9 is_stmt 0
	movq	-56(%rbp), %rax
	.loc	41 610 6 is_stmt 1
	addq	$64, %rsp
	popq	%rbp
	retq
Ltmp654:
Lfunc_end57:
	.cfi_endproc
	.section	__TEXT,__gcc_except_tab
	.p2align	2
GCC_except_table57:
Lexception17:
	.byte	255
	.byte	255
	.byte	1
	.uleb128 Lcst_end17-Lcst_begin17
Lcst_begin17:
	.uleb128 Ltmp648-Lfunc_begin57
	.uleb128 Ltmp649-Ltmp648
	.uleb128 Ltmp652-Lfunc_begin57
	.byte	0
	.uleb128 Ltmp649-Lfunc_begin57
	.uleb128 Ltmp650-Ltmp649
	.byte	0
	.byte	0
	.uleb128 Ltmp650-Lfunc_begin57
	.uleb128 Ltmp651-Ltmp650
	.uleb128 Ltmp652-Lfunc_begin57
	.byte	0
Lcst_end17:
	.p2align	2

	.section	__TEXT,__text,regular,pure_instructions
	.globl	__ZN3std7process7Command3new17h9c77d01939fc1b84E
	.p2align	4, 0x90
__ZN3std7process7Command3new17h9c77d01939fc1b84E:
Lfunc_begin58:
	.loc	41 561 0
	.cfi_startproc
	.cfi_personality 155, _rust_eh_personality
	.cfi_lsda 16, Lexception18
	pushq	%rbp
	.cfi_def_cfa_offset 16
	.cfi_offset %rbp, -16
	movq	%rsp, %rbp
	.cfi_def_cfa_register %rbp
	subq	$272, %rsp
	movq	%rdi, -272(%rbp)
	movq	%rdi, -264(%rbp)
	movq	%rsi, -240(%rbp)
	movq	%rdx, -232(%rbp)
Ltmp655:
	leaq	-240(%rbp), %rdi
Ltmp660:
	.loc	41 562 44 prologue_end
	callq	__ZN55_$LT$$RF$T$u20$as$u20$core..convert..AsRef$LT$U$GT$$GT$6as_ref17h8de9d87845f88cc7E
Ltmp656:
	movq	%rdx, -256(%rbp)
	movq	%rax, -248(%rbp)
	jmp	LBB58_3
LBB58_1:
	.loc	41 561 5
	movq	-16(%rbp), %rdi
	callq	__Unwind_Resume
LBB58_2:
Ltmp659:
	.loc	41 0 5 is_stmt 0
	movq	%rax, %rcx
	movl	%edx, %eax
	movq	%rcx, -16(%rbp)
	movl	%eax, -8(%rbp)
	jmp	LBB58_1
LBB58_3:
Ltmp657:
	movq	-256(%rbp), %rdx
	movq	-248(%rbp), %rsi
	leaq	-224(%rbp), %rdi
	.loc	41 562 26 is_stmt 1
	callq	__ZN3std3sys4unix7process14process_common7Command3new17hbc75e5b02e009ba8E
Ltmp658:
	jmp	LBB58_4
LBB58_4:
	.loc	41 0 26 is_stmt 0
	movq	-272(%rbp), %rdi
	.loc	41 562 9
	leaq	-224(%rbp), %rsi
	movl	$208, %edx
	callq	_memcpy
	movq	-264(%rbp), %rax
	.loc	41 563 6 is_stmt 1
	addq	$272, %rsp
	popq	%rbp
	retq
Ltmp661:
Lfunc_end58:
	.cfi_endproc
	.section	__TEXT,__gcc_except_tab
	.p2align	2
GCC_except_table58:
Lexception18:
	.byte	255
	.byte	255
	.byte	1
	.uleb128 Lcst_end18-Lcst_begin18
Lcst_begin18:
	.uleb128 Ltmp655-Lfunc_begin58
	.uleb128 Ltmp656-Ltmp655
	.uleb128 Ltmp659-Lfunc_begin58
	.byte	0
	.uleb128 Ltmp656-Lfunc_begin58
	.uleb128 Ltmp657-Ltmp656
	.byte	0
	.byte	0
	.uleb128 Ltmp657-Lfunc_begin58
	.uleb128 Ltmp658-Ltmp657
	.uleb128 Ltmp659-Lfunc_begin58
	.byte	0
	.uleb128 Ltmp658-Lfunc_begin58
	.uleb128 Lfunc_end58-Ltmp658
	.byte	0
	.byte	0
Lcst_end18:
	.p2align	2

	.section	__TEXT,__text,regular,pure_instructions
	.globl	__ZN3std7process7Command3new17hc51de96975684ef4E
	.p2align	4, 0x90
__ZN3std7process7Command3new17hc51de96975684ef4E:
Lfunc_begin59:
	.loc	41 561 0
	.cfi_startproc
	.cfi_personality 155, _rust_eh_personality
	.cfi_lsda 16, Lexception19
	pushq	%rbp
	.cfi_def_cfa_offset 16
	.cfi_offset %rbp, -16
	movq	%rsp, %rbp
	.cfi_def_cfa_register %rbp
	subq	$272, %rsp
	movq	%rdi, -264(%rbp)
	movq	%rdi, -256(%rbp)
	movq	%rsi, -232(%rbp)
Ltmp662:
	leaq	-232(%rbp), %rdi
Ltmp667:
	.loc	41 562 44 prologue_end
	callq	__ZN55_$LT$$RF$T$u20$as$u20$core..convert..AsRef$LT$U$GT$$GT$6as_ref17hea1548ccb591330bE
Ltmp663:
	movq	%rdx, -248(%rbp)
	movq	%rax, -240(%rbp)
	jmp	LBB59_3
LBB59_1:
	.loc	41 561 5
	movq	-16(%rbp), %rdi
	callq	__Unwind_Resume
LBB59_2:
Ltmp666:
	.loc	41 0 5 is_stmt 0
	movq	%rax, %rcx
	movl	%edx, %eax
	movq	%rcx, -16(%rbp)
	movl	%eax, -8(%rbp)
	jmp	LBB59_1
LBB59_3:
Ltmp664:
	movq	-248(%rbp), %rdx
	movq	-240(%rbp), %rsi
	leaq	-224(%rbp), %rdi
	.loc	41 562 26 is_stmt 1
	callq	__ZN3std3sys4unix7process14process_common7Command3new17hbc75e5b02e009ba8E
Ltmp665:
	jmp	LBB59_4
LBB59_4:
	.loc	41 0 26 is_stmt 0
	movq	-264(%rbp), %rdi
	.loc	41 562 9
	leaq	-224(%rbp), %rsi
	movl	$208, %edx
	callq	_memcpy
	movq	-256(%rbp), %rax
	.loc	41 563 6 is_stmt 1
	addq	$272, %rsp
	popq	%rbp
	retq
Ltmp668:
Lfunc_end59:
	.cfi_endproc
	.section	__TEXT,__gcc_except_tab
	.p2align	2
GCC_except_table59:
Lexception19:
	.byte	255
	.byte	255
	.byte	1
	.uleb128 Lcst_end19-Lcst_begin19
Lcst_begin19:
	.uleb128 Ltmp662-Lfunc_begin59
	.uleb128 Ltmp663-Ltmp662
	.uleb128 Ltmp666-Lfunc_begin59
	.byte	0
	.uleb128 Ltmp663-Lfunc_begin59
	.uleb128 Ltmp664-Ltmp663
	.byte	0
	.byte	0
	.uleb128 Ltmp664-Lfunc_begin59
	.uleb128 Ltmp665-Ltmp664
	.uleb128 Ltmp666-Lfunc_begin59
	.byte	0
	.uleb128 Ltmp665-Lfunc_begin59
	.uleb128 Lfunc_end59-Ltmp665
	.byte	0
	.byte	0
Lcst_end19:
	.p2align	2

	.section	__TEXT,__text,regular,pure_instructions
	.globl	__ZN3std7process7Command4args17h8a4df9587b51cfc9E
	.p2align	4, 0x90
__ZN3std7process7Command4args17h8a4df9587b51cfc9E:
Lfunc_begin60:
	.loc	41 636 0
	.cfi_startproc
	.cfi_personality 155, _rust_eh_personality
	.cfi_lsda 16, Lexception20
	pushq	%rbp
	.cfi_def_cfa_offset 16
	.cfi_offset %rbp, -16
	movq	%rsp, %rbp
	.cfi_def_cfa_register %rbp
	subq	$112, %rsp
	movq	%rsi, -80(%rbp)
	movq	%rdi, %rax
	movq	-80(%rbp), %rdi
	movq	%rax, -72(%rbp)
	movq	%rax, -32(%rbp)
	movq	%rdi, -24(%rbp)
Ltmp677:
	.loc	41 641 20 prologue_end
	callq	__ZN94_$LT$$RF$alloc..vec..Vec$LT$T$C$A$GT$$u20$as$u20$core..iter..traits..collect..IntoIterator$GT$9into_iter17h26d58324c4bc8a03E
	movq	%rax, -64(%rbp)
	movq	%rdx, -56(%rbp)
LBB60_1:
Ltmp669:
	.loc	41 0 20 is_stmt 0
	leaq	-64(%rbp), %rdi
Ltmp678:
	.loc	41 641 20
	callq	__ZN91_$LT$core..slice..iter..Iter$LT$T$GT$$u20$as$u20$core..iter..traits..iterator..Iterator$GT$4next17h61dd0c05584b05d8E
Ltmp670:
	movq	%rax, -88(%rbp)
	jmp	LBB60_4
Ltmp679:
LBB60_2:
	.loc	41 636 5 is_stmt 1
	movq	-16(%rbp), %rdi
	callq	__Unwind_Resume
LBB60_3:
Ltmp671:
	.loc	41 0 5 is_stmt 0
	movq	%rax, %rcx
	movl	%edx, %eax
	movq	%rcx, -16(%rbp)
	movl	%eax, -8(%rbp)
	jmp	LBB60_2
LBB60_4:
	movq	-88(%rbp), %rax
Ltmp680:
	.loc	41 641 20 is_stmt 1
	movq	%rax, -48(%rbp)
	movq	-48(%rbp), %rdx
	movl	$1, %eax
	xorl	%ecx, %ecx
	cmpq	$0, %rdx
	cmoveq	%rcx, %rax
	cmpq	$0, %rax
	jne	LBB60_6
Ltmp681:
	.loc	41 0 20 is_stmt 0
	movq	-72(%rbp), %rax
	.loc	41 645 6 is_stmt 1
	addq	$112, %rsp
	popq	%rbp
	retq
LBB60_6:
Ltmp682:
	.loc	41 641 13
	movq	-48(%rbp), %rax
	movq	%rax, -40(%rbp)
Ltmp672:
	leaq	-40(%rbp), %rdi
Ltmp683:
	.loc	41 642 22
	callq	__ZN55_$LT$$RF$T$u20$as$u20$core..convert..AsRef$LT$U$GT$$GT$6as_ref17hdf624b126114ec13E
Ltmp673:
	movq	%rdx, -104(%rbp)
	movq	%rax, -96(%rbp)
	jmp	LBB60_9
Ltmp684:
LBB60_7:
	.loc	41 643 9
	jmp	LBB60_2
LBB60_8:
Ltmp676:
	.loc	41 0 9 is_stmt 0
	movq	%rax, %rcx
	movl	%edx, %eax
	movq	%rcx, -16(%rbp)
	movl	%eax, -8(%rbp)
	jmp	LBB60_7
LBB60_9:
Ltmp674:
	movq	-104(%rbp), %rdx
	movq	-96(%rbp), %rsi
	movq	-72(%rbp), %rdi
Ltmp685:
	.loc	41 642 13 is_stmt 1
	callq	__ZN3std7process7Command3arg17h399fc57bc10ebc78E
Ltmp675:
	jmp	LBB60_10
Ltmp686:
LBB60_10:
	.loc	41 643 9
	jmp	LBB60_11
LBB60_11:
	.loc	41 641 9
	jmp	LBB60_1
Ltmp687:
Lfunc_end60:
	.cfi_endproc
	.section	__TEXT,__gcc_except_tab
	.p2align	2
GCC_except_table60:
Lexception20:
	.byte	255
	.byte	255
	.byte	1
	.uleb128 Lcst_end20-Lcst_begin20
Lcst_begin20:
	.uleb128 Lfunc_begin60-Lfunc_begin60
	.uleb128 Ltmp669-Lfunc_begin60
	.byte	0
	.byte	0
	.uleb128 Ltmp669-Lfunc_begin60
	.uleb128 Ltmp670-Ltmp669
	.uleb128 Ltmp671-Lfunc_begin60
	.byte	0
	.uleb128 Ltmp670-Lfunc_begin60
	.uleb128 Ltmp672-Ltmp670
	.byte	0
	.byte	0
	.uleb128 Ltmp672-Lfunc_begin60
	.uleb128 Ltmp675-Ltmp672
	.uleb128 Ltmp676-Lfunc_begin60
	.byte	0
Lcst_end20:
	.p2align	2

	.section	__TEXT,__text,regular,pure_instructions
	.globl	__ZN3std7process7Command4args17hd009180a74bdeef6E
	.p2align	4, 0x90
__ZN3std7process7Command4args17hd009180a74bdeef6E:
Lfunc_begin61:
	.loc	41 636 0
	.cfi_startproc
	.cfi_personality 155, _rust_eh_personality
	.cfi_lsda 16, Lexception21
	pushq	%rbp
	.cfi_def_cfa_offset 16
	.cfi_offset %rbp, -16
	movq	%rsp, %rbp
	.cfi_def_cfa_register %rbp
	subq	$112, %rsp
	movq	%rsi, -80(%rbp)
	movq	%rdi, %rax
	movq	-80(%rbp), %rdi
	movq	%rax, -72(%rbp)
	movq	%rax, -32(%rbp)
	movq	%rdi, -24(%rbp)
Ltmp696:
	.loc	41 641 20 prologue_end
	callq	__ZN4core5array98_$LT$impl$u20$core..iter..traits..collect..IntoIterator$u20$for$u20$$RF$$u5b$T$u3b$$u20$N$u5d$$GT$9into_iter17h2f7ccdfca21a9b40E
	movq	%rax, -64(%rbp)
	movq	%rdx, -56(%rbp)
LBB61_1:
Ltmp688:
	.loc	41 0 20 is_stmt 0
	leaq	-64(%rbp), %rdi
Ltmp697:
	.loc	41 641 20
	callq	__ZN91_$LT$core..slice..iter..Iter$LT$T$GT$$u20$as$u20$core..iter..traits..iterator..Iterator$GT$4next17h33ad792353a4b4efE
Ltmp689:
	movq	%rax, -88(%rbp)
	jmp	LBB61_4
Ltmp698:
LBB61_2:
	.loc	41 636 5 is_stmt 1
	movq	-16(%rbp), %rdi
	callq	__Unwind_Resume
LBB61_3:
Ltmp690:
	.loc	41 0 5 is_stmt 0
	movq	%rax, %rcx
	movl	%edx, %eax
	movq	%rcx, -16(%rbp)
	movl	%eax, -8(%rbp)
	jmp	LBB61_2
LBB61_4:
	movq	-88(%rbp), %rax
Ltmp699:
	.loc	41 641 20 is_stmt 1
	movq	%rax, -48(%rbp)
	movq	-48(%rbp), %rdx
	movl	$1, %eax
	xorl	%ecx, %ecx
	cmpq	$0, %rdx
	cmoveq	%rcx, %rax
	cmpq	$0, %rax
	jne	LBB61_6
Ltmp700:
	.loc	41 0 20 is_stmt 0
	movq	-72(%rbp), %rax
	.loc	41 645 6 is_stmt 1
	addq	$112, %rsp
	popq	%rbp
	retq
LBB61_6:
Ltmp701:
	.loc	41 641 13
	movq	-48(%rbp), %rax
	movq	%rax, -40(%rbp)
Ltmp691:
	leaq	-40(%rbp), %rdi
Ltmp702:
	.loc	41 642 22
	callq	__ZN55_$LT$$RF$T$u20$as$u20$core..convert..AsRef$LT$U$GT$$GT$6as_ref17h9c739cbcc866ae42E
Ltmp692:
	movq	%rdx, -104(%rbp)
	movq	%rax, -96(%rbp)
	jmp	LBB61_9
Ltmp703:
LBB61_7:
	.loc	41 643 9
	jmp	LBB61_2
LBB61_8:
Ltmp695:
	.loc	41 0 9 is_stmt 0
	movq	%rax, %rcx
	movl	%edx, %eax
	movq	%rcx, -16(%rbp)
	movl	%eax, -8(%rbp)
	jmp	LBB61_7
LBB61_9:
Ltmp693:
	movq	-104(%rbp), %rdx
	movq	-96(%rbp), %rsi
	movq	-72(%rbp), %rdi
Ltmp704:
	.loc	41 642 13 is_stmt 1
	callq	__ZN3std7process7Command3arg17h399fc57bc10ebc78E
Ltmp694:
	jmp	LBB61_10
Ltmp705:
LBB61_10:
	.loc	41 643 9
	jmp	LBB61_11
LBB61_11:
	.loc	41 641 9
	jmp	LBB61_1
Ltmp706:
Lfunc_end61:
	.cfi_endproc
	.section	__TEXT,__gcc_except_tab
	.p2align	2
GCC_except_table61:
Lexception21:
	.byte	255
	.byte	255
	.byte	1
	.uleb128 Lcst_end21-Lcst_begin21
Lcst_begin21:
	.uleb128 Lfunc_begin61-Lfunc_begin61
	.uleb128 Ltmp688-Lfunc_begin61
	.byte	0
	.byte	0
	.uleb128 Ltmp688-Lfunc_begin61
	.uleb128 Ltmp689-Ltmp688
	.uleb128 Ltmp690-Lfunc_begin61
	.byte	0
	.uleb128 Ltmp689-Lfunc_begin61
	.uleb128 Ltmp691-Ltmp689
	.byte	0
	.byte	0
	.uleb128 Ltmp691-Lfunc_begin61
	.uleb128 Ltmp694-Ltmp691
	.uleb128 Ltmp695-Lfunc_begin61
	.byte	0
Lcst_end21:
	.p2align	2

	.section	__TEXT,__text,regular,pure_instructions
	.globl	__ZN3std7process7Command5stdin17hecf2ae221c2031f4E
	.p2align	4, 0x90
__ZN3std7process7Command5stdin17hecf2ae221c2031f4E:
Lfunc_begin62:
	.loc	41 805 0
	.cfi_startproc
	pushq	%rbp
	.cfi_def_cfa_offset 16
	.cfi_offset %rbp, -16
	movq	%rsp, %rbp
	.cfi_def_cfa_register %rbp
	subq	$32, %rsp
	movl	%edx, -32(%rbp)
	movl	%esi, %eax
	movl	-32(%rbp), %esi
	movl	%eax, -28(%rbp)
	movq	%rdi, %rax
	movl	-28(%rbp), %edi
	movq	%rax, -24(%rbp)
	movq	%rax, -16(%rbp)
	movl	%edi, -8(%rbp)
	movl	%esi, -4(%rbp)
Ltmp707:
	.loc	41 806 26 prologue_end
	callq	__ZN50_$LT$T$u20$as$u20$core..convert..Into$LT$U$GT$$GT$4into17h9fb0b242efd212dfE
	movq	-24(%rbp), %rdi
	movl	%eax, %esi
	.loc	41 806 9 is_stmt 0
	callq	__ZN3std3sys4unix7process14process_common7Command5stdin17h2a3f911348c045b4E
	movq	-24(%rbp), %rax
	.loc	41 808 6 is_stmt 1
	addq	$32, %rsp
	popq	%rbp
	retq
Ltmp708:
Lfunc_end62:
	.cfi_endproc

	.p2align	4, 0x90
__ZN41_$LT$bool$u20$as$u20$core..fmt..Debug$GT$3fmt17h689b227b6ba4456bE:
Lfunc_begin63:
	.file	42 "/rustc/2c8cc343237b8f7d5a3c3703e3a87f2eb2c54a74/library/core/src/fmt" "mod.rs"
	.loc	42 2406 0
	.cfi_startproc
	pushq	%rbp
	.cfi_def_cfa_offset 16
	.cfi_offset %rbp, -16
	movq	%rsp, %rbp
	.cfi_def_cfa_register %rbp
	subq	$16, %rsp
	movq	%rdi, -16(%rbp)
	movq	%rsi, -8(%rbp)
Ltmp709:
	.loc	42 2407 9 prologue_end
	callq	__ZN43_$LT$bool$u20$as$u20$core..fmt..Display$GT$3fmt17hcd777b7f8f92eb67E
	.loc	42 2408 6
	andb	$1, %al
	movzbl	%al, %eax
	addq	$16, %rsp
	popq	%rbp
	retq
Ltmp710:
Lfunc_end63:
	.cfi_endproc

	.globl	__ZN42_$LT$$RF$T$u20$as$u20$core..fmt..Debug$GT$3fmt17h0188d36c24d13d4eE
	.p2align	4, 0x90
__ZN42_$LT$$RF$T$u20$as$u20$core..fmt..Debug$GT$3fmt17h0188d36c24d13d4eE:
Lfunc_begin64:
	.loc	42 2377 0
	.cfi_startproc
	pushq	%rbp
	.cfi_def_cfa_offset 16
	.cfi_offset %rbp, -16
	movq	%rsp, %rbp
	.cfi_def_cfa_register %rbp
	subq	$16, %rsp
	movq	%rdi, -16(%rbp)
	movq	%rsi, -8(%rbp)
Ltmp711:
	.loc	42 2377 71 prologue_end
	movq	(%rdi), %rdi
	.loc	42 2377 62 is_stmt 0
	callq	__ZN55_$LT$std..path..PathBuf$u20$as$u20$core..fmt..Debug$GT$3fmt17h62cf8806274ce328E
	.loc	42 2377 84
	andb	$1, %al
	movzbl	%al, %eax
	addq	$16, %rsp
	popq	%rbp
	retq
Ltmp712:
Lfunc_end64:
	.cfi_endproc

	.globl	__ZN42_$LT$$RF$T$u20$as$u20$core..fmt..Debug$GT$3fmt17h095a13fc27d3bca2E
	.p2align	4, 0x90
__ZN42_$LT$$RF$T$u20$as$u20$core..fmt..Debug$GT$3fmt17h095a13fc27d3bca2E:
Lfunc_begin65:
	.loc	42 2377 0 is_stmt 1
	.cfi_startproc
	pushq	%rbp
	.cfi_def_cfa_offset 16
	.cfi_offset %rbp, -16
	movq	%rsp, %rbp
	.cfi_def_cfa_register %rbp
	subq	$16, %rsp
	movq	%rdi, -16(%rbp)
	movq	%rsi, -8(%rbp)
Ltmp713:
	.loc	42 2377 71 prologue_end
	movq	(%rdi), %rdi
	.loc	42 2377 62 is_stmt 0
	callq	__ZN63_$LT$std..ffi..os_str..OsString$u20$as$u20$core..fmt..Debug$GT$3fmt17hf73048602297f547E
	.loc	42 2377 84
	andb	$1, %al
	movzbl	%al, %eax
	addq	$16, %rsp
	popq	%rbp
	retq
Ltmp714:
Lfunc_end65:
	.cfi_endproc

	.globl	__ZN42_$LT$$RF$T$u20$as$u20$core..fmt..Debug$GT$3fmt17h106e3a2edb4a1105E
	.p2align	4, 0x90
__ZN42_$LT$$RF$T$u20$as$u20$core..fmt..Debug$GT$3fmt17h106e3a2edb4a1105E:
Lfunc_begin66:
	.loc	42 2377 0 is_stmt 1
	.cfi_startproc
	pushq	%rbp
	.cfi_def_cfa_offset 16
	.cfi_offset %rbp, -16
	movq	%rsp, %rbp
	.cfi_def_cfa_register %rbp
	subq	$16, %rsp
	movq	%rdi, -16(%rbp)
	movq	%rsi, -8(%rbp)
Ltmp715:
	.loc	42 2377 71 prologue_end
	movq	(%rdi), %rdi
	.loc	42 2377 62 is_stmt 0
	callq	__ZN66_$LT$core..option..Option$LT$T$GT$$u20$as$u20$core..fmt..Debug$GT$3fmt17haa33d35e22040b11E
	.loc	42 2377 84
	andb	$1, %al
	movzbl	%al, %eax
	addq	$16, %rsp
	popq	%rbp
	retq
Ltmp716:
Lfunc_end66:
	.cfi_endproc

	.globl	__ZN42_$LT$$RF$T$u20$as$u20$core..fmt..Debug$GT$3fmt17h1ba3de35e2347154E
	.p2align	4, 0x90
__ZN42_$LT$$RF$T$u20$as$u20$core..fmt..Debug$GT$3fmt17h1ba3de35e2347154E:
Lfunc_begin67:
	.loc	42 2377 0 is_stmt 1
	.cfi_startproc
	pushq	%rbp
	.cfi_def_cfa_offset 16
	.cfi_offset %rbp, -16
	movq	%rsp, %rbp
	.cfi_def_cfa_register %rbp
	subq	$16, %rsp
	movq	%rdi, -16(%rbp)
	movq	%rsi, -8(%rbp)
Ltmp717:
	.loc	42 2377 71 prologue_end
	movq	(%rdi), %rdi
	.loc	42 2377 62 is_stmt 0
	callq	__ZN62_$LT$autocfg..version..Version$u20$as$u20$core..fmt..Debug$GT$3fmt17hbf73c94ff38bf913E
	.loc	42 2377 84
	andb	$1, %al
	movzbl	%al, %eax
	addq	$16, %rsp
	popq	%rbp
	retq
Ltmp718:
Lfunc_end67:
	.cfi_endproc

	.globl	__ZN42_$LT$$RF$T$u20$as$u20$core..fmt..Debug$GT$3fmt17h22458f746a43d64fE
	.p2align	4, 0x90
__ZN42_$LT$$RF$T$u20$as$u20$core..fmt..Debug$GT$3fmt17h22458f746a43d64fE:
Lfunc_begin68:
	.loc	42 2377 0 is_stmt 1
	.cfi_startproc
	pushq	%rbp
	.cfi_def_cfa_offset 16
	.cfi_offset %rbp, -16
	movq	%rsp, %rbp
	.cfi_def_cfa_register %rbp
	subq	$16, %rsp
	movq	%rdi, -16(%rbp)
	movq	%rsi, -8(%rbp)
Ltmp719:
	.loc	42 2377 71 prologue_end
	movq	(%rdi), %rdi
	.loc	42 2377 62 is_stmt 0
	callq	__ZN58_$LT$alloc..string..String$u20$as$u20$core..fmt..Debug$GT$3fmt17h8bfebaa29f9e6f46E
	.loc	42 2377 84
	andb	$1, %al
	movzbl	%al, %eax
	addq	$16, %rsp
	popq	%rbp
	retq
Ltmp720:
Lfunc_end68:
	.cfi_endproc

	.globl	__ZN42_$LT$$RF$T$u20$as$u20$core..fmt..Debug$GT$3fmt17h390e33ad7968524dE
	.p2align	4, 0x90
__ZN42_$LT$$RF$T$u20$as$u20$core..fmt..Debug$GT$3fmt17h390e33ad7968524dE:
Lfunc_begin69:
	.loc	42 2377 0 is_stmt 1
	.cfi_startproc
	pushq	%rbp
	.cfi_def_cfa_offset 16
	.cfi_offset %rbp, -16
	movq	%rsp, %rbp
	.cfi_def_cfa_register %rbp
	subq	$16, %rsp
	movq	%rdi, -16(%rbp)
	movq	%rsi, -8(%rbp)
Ltmp721:
	.loc	42 2377 71 prologue_end
	movq	(%rdi), %rdi
	.loc	42 2377 62 is_stmt 0
	callq	__ZN65_$LT$alloc..vec..Vec$LT$T$C$A$GT$$u20$as$u20$core..fmt..Debug$GT$3fmt17he37af9e4e13954aaE
	.loc	42 2377 84
	andb	$1, %al
	movzbl	%al, %eax
	addq	$16, %rsp
	popq	%rbp
	retq
Ltmp722:
Lfunc_end69:
	.cfi_endproc

	.globl	__ZN42_$LT$$RF$T$u20$as$u20$core..fmt..Debug$GT$3fmt17h3bef218046b1b0f4E
	.p2align	4, 0x90
__ZN42_$LT$$RF$T$u20$as$u20$core..fmt..Debug$GT$3fmt17h3bef218046b1b0f4E:
Lfunc_begin70:
	.loc	42 2377 0 is_stmt 1
	.cfi_startproc
	pushq	%rbp
	.cfi_def_cfa_offset 16
	.cfi_offset %rbp, -16
	movq	%rsp, %rbp
	.cfi_def_cfa_register %rbp
	subq	$16, %rsp
	movq	%rdi, -16(%rbp)
	movq	%rsi, -8(%rbp)
Ltmp723:
	.loc	42 2377 71 prologue_end
	movq	(%rdi), %rdi
	.loc	42 2377 62 is_stmt 0
	callq	__ZN41_$LT$bool$u20$as$u20$core..fmt..Debug$GT$3fmt17h689b227b6ba4456bE
	.loc	42 2377 84
	andb	$1, %al
	movzbl	%al, %eax
	addq	$16, %rsp
	popq	%rbp
	retq
Ltmp724:
Lfunc_end70:
	.cfi_endproc

	.globl	__ZN42_$LT$$RF$T$u20$as$u20$core..fmt..Debug$GT$3fmt17h41c513cd5d98a842E
	.p2align	4, 0x90
__ZN42_$LT$$RF$T$u20$as$u20$core..fmt..Debug$GT$3fmt17h41c513cd5d98a842E:
Lfunc_begin71:
	.loc	42 2377 0 is_stmt 1
	.cfi_startproc
	pushq	%rbp
	.cfi_def_cfa_offset 16
	.cfi_offset %rbp, -16
	movq	%rsp, %rbp
	.cfi_def_cfa_register %rbp
	subq	$16, %rsp
	movq	%rdi, -16(%rbp)
	movq	%rsi, -8(%rbp)
Ltmp725:
	.loc	42 2377 71 prologue_end
	movq	(%rdi), %rdi
	.loc	42 2377 62 is_stmt 0
	callq	__ZN42_$LT$$RF$T$u20$as$u20$core..fmt..Debug$GT$3fmt17hc49cb83d688f72bfE
	.loc	42 2377 84
	andb	$1, %al
	movzbl	%al, %eax
	addq	$16, %rsp
	popq	%rbp
	retq
Ltmp726:
Lfunc_end71:
	.cfi_endproc

	.globl	__ZN42_$LT$$RF$T$u20$as$u20$core..fmt..Debug$GT$3fmt17h47b92ee345fad7afE
	.p2align	4, 0x90
__ZN42_$LT$$RF$T$u20$as$u20$core..fmt..Debug$GT$3fmt17h47b92ee345fad7afE:
Lfunc_begin72:
	.loc	42 2377 0 is_stmt 1
	.cfi_startproc
	pushq	%rbp
	.cfi_def_cfa_offset 16
	.cfi_offset %rbp, -16
	movq	%rsp, %rbp
	.cfi_def_cfa_register %rbp
	subq	$16, %rsp
	movq	%rdi, -16(%rbp)
	movq	%rsi, -8(%rbp)
Ltmp727:
	.loc	42 2377 71 prologue_end
	movq	(%rdi), %rdi
	.loc	42 2377 62 is_stmt 0
	callq	__ZN64_$LT$core..str..error..Utf8Error$u20$as$u20$core..fmt..Debug$GT$3fmt17h5dd48ce9be15bcc1E
	.loc	42 2377 84
	andb	$1, %al
	movzbl	%al, %eax
	addq	$16, %rsp
	popq	%rbp
	retq
Ltmp728:
Lfunc_end72:
	.cfi_endproc

	.globl	__ZN42_$LT$$RF$T$u20$as$u20$core..fmt..Debug$GT$3fmt17h948a1a0f51d21090E
	.p2align	4, 0x90
__ZN42_$LT$$RF$T$u20$as$u20$core..fmt..Debug$GT$3fmt17h948a1a0f51d21090E:
Lfunc_begin73:
	.loc	42 2377 0 is_stmt 1
	.cfi_startproc
	pushq	%rbp
	.cfi_def_cfa_offset 16
	.cfi_offset %rbp, -16
	movq	%rsp, %rbp
	.cfi_def_cfa_register %rbp
	subq	$16, %rsp
	movq	%rdi, -16(%rbp)
	movq	%rsi, -8(%rbp)
Ltmp729:
	.loc	42 2377 71 prologue_end
	movq	(%rdi), %rdi
	.loc	42 2377 62 is_stmt 0
	callq	__ZN62_$LT$autocfg..error..ErrorKind$u20$as$u20$core..fmt..Debug$GT$3fmt17ha321c9d6ce94a5ceE
	.loc	42 2377 84
	andb	$1, %al
	movzbl	%al, %eax
	addq	$16, %rsp
	popq	%rbp
	retq
Ltmp730:
Lfunc_end73:
	.cfi_endproc

	.globl	__ZN42_$LT$$RF$T$u20$as$u20$core..fmt..Debug$GT$3fmt17hbb236598174363f9E
	.p2align	4, 0x90
__ZN42_$LT$$RF$T$u20$as$u20$core..fmt..Debug$GT$3fmt17hbb236598174363f9E:
Lfunc_begin74:
	.loc	42 2377 0 is_stmt 1
	.cfi_startproc
	pushq	%rbp
	.cfi_def_cfa_offset 16
	.cfi_offset %rbp, -16
	movq	%rsp, %rbp
	.cfi_def_cfa_register %rbp
	subq	$16, %rsp
	movq	%rdi, -16(%rbp)
	movq	%rsi, -8(%rbp)
Ltmp731:
	.loc	42 2377 71 prologue_end
	movq	(%rdi), %rdi
	.loc	42 2377 62 is_stmt 0
	callq	__ZN4core3fmt3num52_$LT$impl$u20$core..fmt..Debug$u20$for$u20$usize$GT$3fmt17hef99f7af546b92ccE
	.loc	42 2377 84
	andb	$1, %al
	movzbl	%al, %eax
	addq	$16, %rsp
	popq	%rbp
	retq
Ltmp732:
Lfunc_end74:
	.cfi_endproc

	.globl	__ZN42_$LT$$RF$T$u20$as$u20$core..fmt..Debug$GT$3fmt17hc49cb83d688f72bfE
	.p2align	4, 0x90
__ZN42_$LT$$RF$T$u20$as$u20$core..fmt..Debug$GT$3fmt17hc49cb83d688f72bfE:
Lfunc_begin75:
	.loc	42 2377 0 is_stmt 1
	.cfi_startproc
	pushq	%rbp
	.cfi_def_cfa_offset 16
	.cfi_offset %rbp, -16
	movq	%rsp, %rbp
	.cfi_def_cfa_register %rbp
	subq	$16, %rsp
	movq	%rsi, %rdx
	movq	%rdi, %rax
	movq	%rax, -16(%rbp)
	movq	%rdx, -8(%rbp)
Ltmp733:
	.loc	42 2377 71 prologue_end
	movq	(%rax), %rdi
	movq	8(%rax), %rsi
	.loc	42 2377 62 is_stmt 0
	callq	__ZN40_$LT$str$u20$as$u20$core..fmt..Debug$GT$3fmt17h4564f13343f2ac60E
	.loc	42 2377 84
	andb	$1, %al
	movzbl	%al, %eax
	addq	$16, %rsp
	popq	%rbp
	retq
Ltmp734:
Lfunc_end75:
	.cfi_endproc

	.globl	__ZN42_$LT$$RF$T$u20$as$u20$core..fmt..Debug$GT$3fmt17he46903a078f9189aE
	.p2align	4, 0x90
__ZN42_$LT$$RF$T$u20$as$u20$core..fmt..Debug$GT$3fmt17he46903a078f9189aE:
Lfunc_begin76:
	.loc	42 2377 0 is_stmt 1
	.cfi_startproc
	pushq	%rbp
	.cfi_def_cfa_offset 16
	.cfi_offset %rbp, -16
	movq	%rsp, %rbp
	.cfi_def_cfa_register %rbp
	subq	$16, %rsp
	movq	%rdi, -16(%rbp)
	movq	%rsi, -8(%rbp)
Ltmp735:
	.loc	42 2377 71 prologue_end
	movq	(%rdi), %rdi
	.loc	42 2377 62 is_stmt 0
	callq	__ZN68_$LT$core..num..error..ParseIntError$u20$as$u20$core..fmt..Debug$GT$3fmt17h3cd882401c5cf29eE
	.loc	42 2377 84
	andb	$1, %al
	movzbl	%al, %eax
	addq	$16, %rsp
	popq	%rbp
	retq
Ltmp736:
Lfunc_end76:
	.cfi_endproc

	.globl	__ZN42_$LT$$RF$T$u20$as$u20$core..fmt..Debug$GT$3fmt17hf3af18ffe2225bc7E
	.p2align	4, 0x90
__ZN42_$LT$$RF$T$u20$as$u20$core..fmt..Debug$GT$3fmt17hf3af18ffe2225bc7E:
Lfunc_begin77:
	.loc	42 2377 0 is_stmt 1
	.cfi_startproc
	pushq	%rbp
	.cfi_def_cfa_offset 16
	.cfi_offset %rbp, -16
	movq	%rsp, %rbp
	.cfi_def_cfa_register %rbp
	subq	$16, %rsp
	movq	%rdi, -16(%rbp)
	movq	%rsi, -8(%rbp)
Ltmp737:
	.loc	42 2377 71 prologue_end
	movq	(%rdi), %rdi
	.loc	42 2377 62 is_stmt 0
	callq	__ZN58_$LT$std..io..error..Error$u20$as$u20$core..fmt..Debug$GT$3fmt17h0f690fff27c65905E
	.loc	42 2377 84
	andb	$1, %al
	movzbl	%al, %eax
	addq	$16, %rsp
	popq	%rbp
	retq
Ltmp738:
Lfunc_end77:
	.cfi_endproc

	.globl	__ZN44_$LT$$RF$T$u20$as$u20$core..fmt..Display$GT$3fmt17hd03bcdad655544a8E
	.p2align	4, 0x90
__ZN44_$LT$$RF$T$u20$as$u20$core..fmt..Display$GT$3fmt17hd03bcdad655544a8E:
Lfunc_begin78:
	.loc	42 2377 0 is_stmt 1
	.cfi_startproc
	pushq	%rbp
	.cfi_def_cfa_offset 16
	.cfi_offset %rbp, -16
	movq	%rsp, %rbp
	.cfi_def_cfa_register %rbp
	subq	$16, %rsp
	movq	%rsi, %rdx
	movq	%rdi, %rax
	movq	%rax, -16(%rbp)
	movq	%rdx, -8(%rbp)
Ltmp739:
	.loc	42 2377 71 prologue_end
	movq	(%rax), %rdi
	movq	8(%rax), %rsi
	.loc	42 2377 62 is_stmt 0
	callq	__ZN42_$LT$str$u20$as$u20$core..fmt..Display$GT$3fmt17hd1cabce055ea2fbdE
	.loc	42 2377 84
	andb	$1, %al
	movzbl	%al, %eax
	addq	$16, %rsp
	popq	%rbp
	retq
Ltmp740:
Lfunc_end78:
	.cfi_endproc

	.p2align	4, 0x90
__ZN47_$LT$str$u20$as$u20$alloc..string..ToString$GT$9to_string17he5acf2c86de8b800E:
Lfunc_begin79:
	.loc	36 2607 0 is_stmt 1
	.cfi_startproc
	pushq	%rbp
	.cfi_def_cfa_offset 16
	.cfi_offset %rbp, -16
	movq	%rsp, %rbp
	.cfi_def_cfa_register %rbp
	subq	$144, %rsp
	movq	%rdi, -144(%rbp)
	movq	%rdi, -136(%rbp)
	movq	%rsi, -80(%rbp)
	movq	%rdx, -72(%rbp)
Ltmp741:
	.loc	36 2608 22 prologue_end
	movq	%rsi, -64(%rbp)
	movq	%rdx, -56(%rbp)
Ltmp742:
	.loc	36 2662 9
	movq	%rsi, -48(%rbp)
	movq	%rdx, -40(%rbp)
Ltmp743:
	.file	43 "/rustc/2c8cc343237b8f7d5a3c3703e3a87f2eb2c54a74/library/alloc/src" "str.rs"
	.loc	43 209 46
	movq	%rsi, -32(%rbp)
	movq	%rdx, -24(%rbp)
Ltmp744:
	.loc	39 327 18
	movq	%rsi, -16(%rbp)
	movq	%rdx, -8(%rbp)
	movq	-16(%rbp), %rsi
	movq	-8(%rbp), %rdx
Ltmp745:
	.loc	43 209 46
	leaq	-128(%rbp), %rdi
	callq	__ZN5alloc5slice64_$LT$impl$u20$alloc..borrow..ToOwned$u20$for$u20$$u5b$T$u5d$$GT$8to_owned17hc252dacee1991998E
	movq	-144(%rbp), %rdi
	movq	-136(%rbp), %rax
Ltmp746:
	.loc	36 846 23
	movq	-128(%rbp), %rcx
	movq	%rcx, -104(%rbp)
	movq	-120(%rbp), %rcx
	movq	%rcx, -96(%rbp)
	movq	-112(%rbp), %rcx
	movq	%rcx, -88(%rbp)
	.loc	36 846 9 is_stmt 0
	movq	-104(%rbp), %rcx
	movq	%rcx, (%rdi)
	movq	-96(%rbp), %rcx
	movq	%rcx, 8(%rdi)
	movq	-88(%rbp), %rcx
	movq	%rcx, 16(%rdi)
Ltmp747:
	.loc	36 2609 6 is_stmt 1
	addq	$144, %rsp
	popq	%rbp
	retq
Ltmp748:
Lfunc_end79:
	.cfi_endproc

	.globl	__ZN48_$LT$$u5b$T$u5d$$u20$as$u20$core..fmt..Debug$GT$3fmt17h8abb3735c70368f0E
	.p2align	4, 0x90
__ZN48_$LT$$u5b$T$u5d$$u20$as$u20$core..fmt..Debug$GT$3fmt17h8abb3735c70368f0E:
Lfunc_begin80:
	.loc	42 2602 0
	.cfi_startproc
	pushq	%rbp
	.cfi_def_cfa_offset 16
	.cfi_offset %rbp, -16
	movq	%rsp, %rbp
	.cfi_def_cfa_register %rbp
	subq	$80, %rsp
	movq	%rdx, -80(%rbp)
	movq	%rsi, %rax
	movq	-80(%rbp), %rsi
	movq	%rdi, -72(%rbp)
	movq	%rax, -64(%rbp)
	movq	%rdi, -40(%rbp)
	movq	%rax, -32(%rbp)
	movq	%rsi, -24(%rbp)
Ltmp749:
	.loc	42 2603 9 prologue_end
	leaq	-56(%rbp), %rdi
	callq	__ZN4core3fmt9Formatter10debug_list17hc648f6f2ff865c45E
	movq	-72(%rbp), %rdi
	movq	-64(%rbp), %rsi
	.loc	42 2603 32 is_stmt 0
	movq	%rdi, -16(%rbp)
	movq	%rsi, -8(%rbp)
Ltmp750:
	.loc	31 742 9 is_stmt 1
	callq	__ZN4core5slice4iter13Iter$LT$T$GT$3new17h9031af9b9311bea9E
	movq	%rax, %rsi
Ltmp751:
	.loc	42 2603 9
	leaq	-56(%rbp), %rdi
	callq	__ZN4core3fmt8builders9DebugList7entries17hcf1c544e5af5c244E
	movq	%rax, %rdi
	callq	__ZN4core3fmt8builders9DebugList6finish17hed399f470c25b4b2E
	.loc	42 2604 6
	andb	$1, %al
	movzbl	%al, %eax
	addq	$80, %rsp
	popq	%rbp
	retq
Ltmp752:
Lfunc_end80:
	.cfi_endproc

	.globl	__ZN49_$LT$F$u20$as$u20$core..str..pattern..Pattern$GT$13into_searcher17h59de3e16f8d446d6E
	.p2align	4, 0x90
__ZN49_$LT$F$u20$as$u20$core..str..pattern..Pattern$GT$13into_searcher17h59de3e16f8d446d6E:
Lfunc_begin81:
	.loc	6 705 0
	.cfi_startproc
	pushq	%rbp
	.cfi_def_cfa_offset 16
	.cfi_offset %rbp, -16
	movq	%rsp, %rbp
	.cfi_def_cfa_register %rbp
	subq	$96, %rsp
	movq	%rdi, -88(%rbp)
	movq	%rdi, -80(%rbp)
	movq	%rsi, -16(%rbp)
	movq	%rdx, -8(%rbp)
Ltmp753:
	.loc	6 706 21 prologue_end
	leaq	-72(%rbp), %rdi
	callq	__ZN95_$LT$core..str..pattern..MultiCharEqPattern$LT$C$GT$$u20$as$u20$core..str..pattern..Pattern$GT$13into_searcher17h264de5e75fbe8a59E
	movq	-88(%rbp), %rdi
	.loc	6 706 13 is_stmt 0
	leaq	-72(%rbp), %rsi
	movl	$40, %edx
	callq	_memcpy
	movq	-80(%rbp), %rax
	.loc	6 707 10 is_stmt 1
	addq	$96, %rsp
	popq	%rbp
	retq
Ltmp754:
Lfunc_end81:
	.cfi_endproc

	.p2align	4, 0x90
__ZN49_$LT$usize$u20$as$u20$core..iter..range..Step$GT$17forward_unchecked17hcf259b07a7f9463aE:
Lfunc_begin82:
	.file	44 "/rustc/2c8cc343237b8f7d5a3c3703e3a87f2eb2c54a74/library/core/src/iter" "range.rs"
	.loc	44 189 0
	.cfi_startproc
	pushq	%rbp
	.cfi_def_cfa_offset 16
	.cfi_offset %rbp, -16
	movq	%rsp, %rbp
	.cfi_def_cfa_register %rbp
	subq	$40, %rsp
	movq	%rdi, -40(%rbp)
	movq	%rsi, -32(%rbp)
Ltmp755:
	.loc	44 191 22 prologue_end
	movq	%rdi, -24(%rbp)
	.loc	44 191 42 is_stmt 0
	movq	%rsi, -16(%rbp)
Ltmp756:
	.loc	16 470 22 is_stmt 1
	addq	%rsi, %rdi
	movq	%rdi, -8(%rbp)
	movq	-8(%rbp), %rax
Ltmp757:
	.loc	44 192 10
	addq	$40, %rsp
	popq	%rbp
	retq
Ltmp758:
Lfunc_end82:
	.cfi_endproc

	.p2align	4, 0x90
__ZN49_$LT$usize$u20$as$u20$core..iter..range..Step$GT$18backward_unchecked17hdfe3469290a25370E:
Lfunc_begin83:
	.loc	44 195 0
	.cfi_startproc
	pushq	%rbp
	.cfi_def_cfa_offset 16
	.cfi_offset %rbp, -16
	movq	%rsp, %rbp
	.cfi_def_cfa_register %rbp
	subq	$40, %rsp
	movq	%rdi, -40(%rbp)
	movq	%rsi, -32(%rbp)
Ltmp759:
	.loc	44 197 22 prologue_end
	movq	%rdi, -24(%rbp)
	.loc	44 197 42 is_stmt 0
	movq	%rsi, -16(%rbp)
Ltmp760:
	.loc	16 539 22 is_stmt 1
	subq	%rsi, %rdi
	movq	%rdi, -8(%rbp)
	movq	-8(%rbp), %rax
Ltmp761:
	.loc	44 198 10
	addq	$40, %rsp
	popq	%rbp
	retq
Ltmp762:
Lfunc_end83:
	.cfi_endproc

	.globl	__ZN4core3any6TypeId2of17h4854396af66cd906E
	.p2align	4, 0x90
__ZN4core3any6TypeId2of17h4854396af66cd906E:
Lfunc_begin84:
	.file	45 "/rustc/2c8cc343237b8f7d5a3c3703e3a87f2eb2c54a74/library/core/src" "any.rs"
	.loc	45 691 0
	.cfi_startproc
	pushq	%rbp
	.cfi_def_cfa_offset 16
	.cfi_offset %rbp, -16
	movq	%rsp, %rbp
	.cfi_def_cfa_register %rbp
	subq	$16, %rsp
Ltmp763:
	.loc	45 692 21 prologue_end
	movabsq	$-2692269018315227300, %rax
	movq	%rax, -8(%rbp)
	movq	-8(%rbp), %rax
	.loc	45 692 9 is_stmt 0
	movq	%rax, -16(%rbp)
	.loc	45 693 6 is_stmt 1
	movq	-16(%rbp), %rax
	addq	$16, %rsp
	popq	%rbp
	retq
Ltmp764:
Lfunc_end84:
	.cfi_endproc

	.globl	__ZN4core3any6TypeId2of17h8e4c8238504d19adE
	.p2align	4, 0x90
__ZN4core3any6TypeId2of17h8e4c8238504d19adE:
Lfunc_begin85:
	.loc	45 691 0
	.cfi_startproc
	pushq	%rbp
	.cfi_def_cfa_offset 16
	.cfi_offset %rbp, -16
	movq	%rsp, %rbp
	.cfi_def_cfa_register %rbp
	subq	$16, %rsp
Ltmp765:
	.loc	45 692 21 prologue_end
	movabsq	$6669380844384893527, %rax
	movq	%rax, -8(%rbp)
	movq	-8(%rbp), %rax
	.loc	45 692 9 is_stmt 0
	movq	%rax, -16(%rbp)
	.loc	45 693 6 is_stmt 1
	movq	-16(%rbp), %rax
	addq	$16, %rsp
	popq	%rbp
	retq
Ltmp766:
Lfunc_end85:
	.cfi_endproc

	.globl	__ZN4core3any6TypeId2of17hcc3a8b26e8b28c80E
	.p2align	4, 0x90
__ZN4core3any6TypeId2of17hcc3a8b26e8b28c80E:
Lfunc_begin86:
	.loc	45 691 0
	.cfi_startproc
	pushq	%rbp
	.cfi_def_cfa_offset 16
	.cfi_offset %rbp, -16
	movq	%rsp, %rbp
	.cfi_def_cfa_register %rbp
	subq	$16, %rsp
Ltmp767:
	.loc	45 692 21 prologue_end
	movabsq	$-6866953669277914073, %rax
	movq	%rax, -8(%rbp)
	movq	-8(%rbp), %rax
	.loc	45 692 9 is_stmt 0
	movq	%rax, -16(%rbp)
	.loc	45 693 6 is_stmt 1
	movq	-16(%rbp), %rax
	addq	$16, %rsp
	popq	%rbp
	retq
Ltmp768:
Lfunc_end86:
	.cfi_endproc

	.globl	__ZN4core3cmp10PartialOrd2ge17hf46047a28d7c6150E
	.p2align	4, 0x90
__ZN4core3cmp10PartialOrd2ge17hf46047a28d7c6150E:
Lfunc_begin87:
	.loc	17 1152 0
	.cfi_startproc
	pushq	%rbp
	.cfi_def_cfa_offset 16
	.cfi_offset %rbp, -16
	movq	%rsp, %rbp
	.cfi_def_cfa_register %rbp
	subq	$32, %rsp
	movq	%rdi, -16(%rbp)
	movq	%rsi, -8(%rbp)
Ltmp769:
	.loc	17 1153 18 prologue_end
	callq	__ZN67_$LT$autocfg..version..Version$u20$as$u20$core..cmp..PartialOrd$GT$11partial_cmp17h7d0b464d6ff91f13E
	movb	%al, -17(%rbp)
	movl	$1, %eax
	xorl	%ecx, %ecx
	cmpb	$2, -17(%rbp)
	cmoveq	%rcx, %rax
	.loc	17 1153 9 is_stmt 0
	cmpq	$1, %rax
	jne	LBB87_2
	.loc	17 1153 18
	movb	-17(%rbp), %al
	.loc	17 1153 9
	subb	$2, %al
	jb	LBB87_3
	jmp	LBB87_2
LBB87_2:
	movb	$0, -18(%rbp)
	jmp	LBB87_4
LBB87_3:
	movb	$1, -18(%rbp)
LBB87_4:
	.loc	17 1154 6 is_stmt 1
	movb	-18(%rbp), %al
	andb	$1, %al
	movzbl	%al, %eax
	addq	$32, %rsp
	popq	%rbp
	retq
Ltmp770:
Lfunc_end87:
	.cfi_endproc

	.p2align	4, 0x90
__ZN4core3cmp5impls50_$LT$impl$u20$core..cmp..Ord$u20$for$u20$usize$GT$3cmp17h41c7efa930060096E:
Lfunc_begin88:
	.loc	17 1454 0
	.cfi_startproc
	pushq	%rbp
	.cfi_def_cfa_offset 16
	.cfi_offset %rbp, -16
	movq	%rsp, %rbp
	.cfi_def_cfa_register %rbp
	subq	$40, %rsp
	movq	%rdi, -40(%rbp)
	movq	%rsi, -32(%rbp)
	movq	%rdi, -16(%rbp)
	movq	%rsi, -8(%rbp)
Ltmp771:
	.loc	17 1457 24 prologue_end
	movq	(%rdi), %rax
	cmpq	(%rsi), %rax
	jb	LBB88_2
	.loc	17 0 24 is_stmt 0
	movq	-32(%rbp), %rcx
	movq	-40(%rbp), %rax
	.loc	17 1458 29 is_stmt 1
	movq	(%rax), %rax
	cmpq	(%rcx), %rax
	je	LBB88_5
	jmp	LBB88_4
LBB88_2:
	.loc	17 1457 41
	movb	$-1, -17(%rbp)
LBB88_3:
	.loc	17 1460 18
	movb	-17(%rbp), %al
	addq	$40, %rsp
	popq	%rbp
	retq
LBB88_4:
	.loc	17 1459 28
	movb	$1, -17(%rbp)
	.loc	17 1458 26
	jmp	LBB88_6
LBB88_5:
	.loc	17 1458 47 is_stmt 0
	movb	$0, -17(%rbp)
LBB88_6:
	.loc	17 1457 21 is_stmt 1
	jmp	LBB88_3
Ltmp772:
Lfunc_end88:
	.cfi_endproc

	.p2align	4, 0x90
__ZN4core3cmp5impls57_$LT$impl$u20$core..cmp..PartialOrd$u20$for$u20$usize$GT$11partial_cmp17h377ccd779614a54fE:
Lfunc_begin89:
	.loc	17 1437 0
	.cfi_startproc
	pushq	%rbp
	.cfi_def_cfa_offset 16
	.cfi_offset %rbp, -16
	movq	%rsp, %rbp
	.cfi_def_cfa_register %rbp
	subq	$56, %rsp
	movq	%rdi, -56(%rbp)
	movq	%rsi, -48(%rbp)
	movq	%rdi, -32(%rbp)
	movq	%rsi, -24(%rbp)
Ltmp773:
	.loc	17 1438 26 prologue_end
	movq	%rdi, -16(%rbp)
	.loc	17 1438 35 is_stmt 0
	movq	%rsi, -8(%rbp)
Ltmp774:
	.loc	17 1457 24 is_stmt 1
	movq	(%rdi), %rax
	cmpq	(%rsi), %rax
	jb	LBB89_2
	.loc	17 0 24 is_stmt 0
	movq	-48(%rbp), %rcx
	movq	-56(%rbp), %rax
	.loc	17 1458 29 is_stmt 1
	movq	(%rax), %rax
	cmpq	(%rcx), %rax
	je	LBB89_5
	jmp	LBB89_4
LBB89_2:
	.loc	17 1457 41
	movb	$-1, -33(%rbp)
Ltmp775:
LBB89_3:
	.loc	17 1438 21
	movb	-33(%rbp), %al
	movb	%al, -34(%rbp)
	.loc	17 1439 18
	movb	-34(%rbp), %al
	addq	$56, %rsp
	popq	%rbp
	retq
LBB89_4:
Ltmp776:
	.loc	17 1459 28
	movb	$1, -33(%rbp)
	.loc	17 1458 26
	jmp	LBB89_6
LBB89_5:
	.loc	17 1458 47 is_stmt 0
	movb	$0, -33(%rbp)
LBB89_6:
	.loc	17 1457 21 is_stmt 1
	jmp	LBB89_3
Ltmp777:
Lfunc_end89:
	.cfi_endproc

	.p2align	4, 0x90
__ZN4core3cmp5impls57_$LT$impl$u20$core..cmp..PartialOrd$u20$for$u20$usize$GT$2lt17h11bee00a81f4045cE:
Lfunc_begin90:
	.loc	17 1441 0
	.cfi_startproc
	pushq	%rbp
	.cfi_def_cfa_offset 16
	.cfi_offset %rbp, -16
	movq	%rsp, %rbp
	.cfi_def_cfa_register %rbp
	subq	$16, %rsp
	movq	%rdi, -16(%rbp)
	movq	%rsi, -8(%rbp)
Ltmp778:
	.loc	17 1441 52 prologue_end
	movq	(%rdi), %rax
	cmpq	(%rsi), %rax
	setb	%al
	.loc	17 1441 72 is_stmt 0
	andb	$1, %al
	movzbl	%al, %eax
	addq	$16, %rsp
	popq	%rbp
	retq
Ltmp779:
Lfunc_end90:
	.cfi_endproc

	.p2align	4, 0x90
__ZN4core3cmp5impls59_$LT$impl$u20$core..cmp..PartialEq$u20$for$u20$$LP$$RP$$GT$2eq17h9e43cfed32702d57E:
Lfunc_begin91:
	.loc	17 1363 0 is_stmt 1
	.cfi_startproc
	pushq	%rbp
	.cfi_def_cfa_offset 16
	.cfi_offset %rbp, -16
	movq	%rsp, %rbp
	.cfi_def_cfa_register %rbp
	subq	$16, %rsp
	movq	%rdi, -16(%rbp)
	movq	%rsi, -8(%rbp)
Ltmp780:
	.loc	17 1365 10 prologue_end
	movb	$1, %al
	andb	$1, %al
	movzbl	%al, %eax
	addq	$16, %rsp
	popq	%rbp
	retq
Ltmp781:
Lfunc_end91:
	.cfi_endproc

	.globl	__ZN4core3cmp6max_by17h13f7b8ee2fc50dc2E
	.p2align	4, 0x90
__ZN4core3cmp6max_by17h13f7b8ee2fc50dc2E:
Lfunc_begin92:
	.loc	17 1295 0
	.cfi_startproc
	.cfi_personality 155, _rust_eh_personality
	.cfi_lsda 16, Lexception22
	pushq	%rbp
	.cfi_def_cfa_offset 16
	.cfi_offset %rbp, -16
	movq	%rsp, %rbp
	.cfi_def_cfa_register %rbp
	subq	$96, %rsp
	movq	%rdi, -80(%rbp)
	movq	%rsi, -72(%rbp)
Ltmp785:
	.loc	17 1300 11 prologue_end
	movb	$1, -25(%rbp)
	movb	$1, -26(%rbp)
	leaq	-80(%rbp), %rax
	movq	%rax, -48(%rbp)
	leaq	-72(%rbp), %rax
	movq	%rax, -40(%rbp)
	movq	-48(%rbp), %rdi
	movq	-40(%rbp), %rsi
Ltmp782:
	callq	__ZN4core3ops8function6FnOnce9call_once17hdfe3928986161f74E
Ltmp783:
	movb	%al, -81(%rbp)
	jmp	LBB92_3
LBB92_1:
	.loc	17 1304 1
	jmp	LBB92_4
LBB92_2:
Ltmp784:
	.loc	17 0 1 is_stmt 0
	movq	%rax, %rcx
	movl	%edx, %eax
	movq	%rcx, -16(%rbp)
	movl	%eax, -8(%rbp)
	jmp	LBB92_1
LBB92_3:
	movb	-81(%rbp), %al
	.loc	17 1300 11 is_stmt 1
	movb	%al, -49(%rbp)
	movb	-49(%rbp), %al
	.loc	17 1300 5 is_stmt 0
	incb	%al
	subb	$2, %al
	jb	LBB92_6
	jmp	LBB92_15
LBB92_15:
	jmp	LBB92_7
LBB92_4:
	.loc	17 1304 1 is_stmt 1
	testb	$1, -25(%rbp)
	jne	LBB92_12
	jmp	LBB92_11
	.loc	17 1300 11
	ud2
LBB92_6:
	.loc	17 1301 45
	movb	$0, -26(%rbp)
	movq	-72(%rbp), %rax
	movq	%rax, -64(%rbp)
	jmp	LBB92_8
LBB92_7:
	.loc	17 1302 30
	movb	$0, -25(%rbp)
	movq	-80(%rbp), %rax
	movq	%rax, -64(%rbp)
LBB92_8:
	.loc	17 1304 1
	testb	$1, -26(%rbp)
	jne	LBB92_10
LBB92_9:
	testb	$1, -25(%rbp)
	jne	LBB92_14
	jmp	LBB92_13
LBB92_10:
	jmp	LBB92_9
LBB92_11:
	.loc	17 1295 1
	movq	-16(%rbp), %rdi
	callq	__Unwind_Resume
LBB92_12:
	.loc	17 1304 1
	jmp	LBB92_11
LBB92_13:
	.loc	17 1304 2 is_stmt 0
	movq	-64(%rbp), %rax
	addq	$96, %rsp
	popq	%rbp
	retq
LBB92_14:
	.loc	17 1304 1
	jmp	LBB92_13
Ltmp786:
Lfunc_end92:
	.cfi_endproc
	.section	__TEXT,__gcc_except_tab
	.p2align	2
GCC_except_table92:
Lexception22:
	.byte	255
	.byte	255
	.byte	1
	.uleb128 Lcst_end22-Lcst_begin22
Lcst_begin22:
	.uleb128 Ltmp782-Lfunc_begin92
	.uleb128 Ltmp783-Ltmp782
	.uleb128 Ltmp784-Lfunc_begin92
	.byte	0
	.uleb128 Ltmp783-Lfunc_begin92
	.uleb128 Lfunc_end92-Ltmp783
	.byte	0
	.byte	0
Lcst_end22:
	.p2align	2

	.section	__TEXT,__text,regular,pure_instructions
	.globl	__ZN4core3cmp6min_by17h78251d846d82de32E
	.p2align	4, 0x90
__ZN4core3cmp6min_by17h78251d846d82de32E:
Lfunc_begin93:
	.loc	17 1204 0 is_stmt 1
	.cfi_startproc
	.cfi_personality 155, _rust_eh_personality
	.cfi_lsda 16, Lexception23
	pushq	%rbp
	.cfi_def_cfa_offset 16
	.cfi_offset %rbp, -16
	movq	%rsp, %rbp
	.cfi_def_cfa_register %rbp
	subq	$96, %rsp
	movq	%rdi, -80(%rbp)
	movq	%rsi, -72(%rbp)
Ltmp790:
	.loc	17 1209 11 prologue_end
	movb	$1, -25(%rbp)
	movb	$1, -26(%rbp)
	leaq	-80(%rbp), %rax
	movq	%rax, -48(%rbp)
	leaq	-72(%rbp), %rax
	movq	%rax, -40(%rbp)
	movq	-48(%rbp), %rdi
	movq	-40(%rbp), %rsi
Ltmp787:
	callq	__ZN4core3ops8function6FnOnce9call_once17hdfe3928986161f74E
Ltmp788:
	movb	%al, -81(%rbp)
	jmp	LBB93_3
LBB93_1:
	.loc	17 1213 1
	jmp	LBB93_4
LBB93_2:
Ltmp789:
	.loc	17 0 1 is_stmt 0
	movq	%rax, %rcx
	movl	%edx, %eax
	movq	%rcx, -16(%rbp)
	movl	%eax, -8(%rbp)
	jmp	LBB93_1
LBB93_3:
	movb	-81(%rbp), %al
	.loc	17 1209 11 is_stmt 1
	movb	%al, -49(%rbp)
	movb	-49(%rbp), %al
	.loc	17 1209 5 is_stmt 0
	incb	%al
	subb	$2, %al
	jb	LBB93_6
	jmp	LBB93_15
LBB93_15:
	jmp	LBB93_7
LBB93_4:
	.loc	17 1213 1 is_stmt 1
	testb	$1, -25(%rbp)
	jne	LBB93_12
	jmp	LBB93_11
	.loc	17 1209 11
	ud2
LBB93_6:
	.loc	17 1210 45
	movb	$0, -25(%rbp)
	movq	-80(%rbp), %rax
	movq	%rax, -64(%rbp)
	jmp	LBB93_8
LBB93_7:
	.loc	17 1211 30
	movb	$0, -26(%rbp)
	movq	-72(%rbp), %rax
	movq	%rax, -64(%rbp)
LBB93_8:
	.loc	17 1213 1
	testb	$1, -26(%rbp)
	jne	LBB93_10
LBB93_9:
	testb	$1, -25(%rbp)
	jne	LBB93_14
	jmp	LBB93_13
LBB93_10:
	jmp	LBB93_9
LBB93_11:
	.loc	17 1204 1
	movq	-16(%rbp), %rdi
	callq	__Unwind_Resume
LBB93_12:
	.loc	17 1213 1
	jmp	LBB93_11
LBB93_13:
	.loc	17 1213 2 is_stmt 0
	movq	-64(%rbp), %rax
	addq	$96, %rsp
	popq	%rbp
	retq
LBB93_14:
	.loc	17 1213 1
	jmp	LBB93_13
Ltmp791:
Lfunc_end93:
	.cfi_endproc
	.section	__TEXT,__gcc_except_tab
	.p2align	2
GCC_except_table93:
Lexception23:
	.byte	255
	.byte	255
	.byte	1
	.uleb128 Lcst_end23-Lcst_begin23
Lcst_begin23:
	.uleb128 Ltmp787-Lfunc_begin93
	.uleb128 Ltmp788-Ltmp787
	.uleb128 Ltmp789-Lfunc_begin93
	.byte	0
	.uleb128 Ltmp788-Lfunc_begin93
	.uleb128 Lfunc_end93-Ltmp788
	.byte	0
	.byte	0
Lcst_end23:
	.p2align	2

	.section	__TEXT,__text,regular,pure_instructions
	.globl	__ZN4core3cmp9PartialEq2ne17h77b563845d4d93afE
	.p2align	4, 0x90
__ZN4core3cmp9PartialEq2ne17h77b563845d4d93afE:
Lfunc_begin94:
	.loc	17 227 0 is_stmt 1
	.cfi_startproc
	pushq	%rbp
	.cfi_def_cfa_offset 16
	.cfi_offset %rbp, -16
	movq	%rsp, %rbp
	.cfi_def_cfa_register %rbp
	subq	$16, %rsp
	movq	%rdi, -16(%rbp)
	movq	%rsi, -8(%rbp)
Ltmp792:
	.loc	17 228 10 prologue_end
	callq	__ZN70_$LT$core..option..Option$LT$T$GT$$u20$as$u20$core..cmp..PartialEq$GT$2eq17h4ed1776b5bcec3f7E
	.loc	17 228 9 is_stmt 0
	xorb	$-1, %al
	.loc	17 229 6 is_stmt 1
	andb	$1, %al
	movzbl	%al, %eax
	addq	$16, %rsp
	popq	%rbp
	retq
Ltmp793:
Lfunc_end94:
	.cfi_endproc

	.globl	__ZN4core3fmt10ArgumentV111new_display17h47594c03ac0e80a5E
	.p2align	4, 0x90
__ZN4core3fmt10ArgumentV111new_display17h47594c03ac0e80a5E:
Lfunc_begin95:
	.loc	42 327 0
	.cfi_startproc
	pushq	%rbp
	.cfi_def_cfa_offset 16
	.cfi_offset %rbp, -16
	movq	%rsp, %rbp
	.cfi_def_cfa_register %rbp
	subq	$56, %rsp
	movq	%rdi, -40(%rbp)
Ltmp794:
	.loc	42 328 23 prologue_end
	movq	%rdi, -32(%rbp)
	.loc	42 328 26 is_stmt 0
	leaq	__ZN60_$LT$alloc..string..String$u20$as$u20$core..fmt..Display$GT$3fmt17he93f3f2ef4c1593aE(%rip), %rax
	movq	%rax, -24(%rbp)
Ltmp795:
	.loc	42 347 42 is_stmt 1
	movq	%rax, -16(%rbp)
	movq	-16(%rbp), %rax
	.loc	42 347 68 is_stmt 0
	movq	%rdi, -8(%rbp)
	movq	-8(%rbp), %rcx
	.loc	42 347 18
	movq	%rcx, -56(%rbp)
	movq	%rax, -48(%rbp)
Ltmp796:
	.loc	42 329 10 is_stmt 1
	movq	-56(%rbp), %rax
	movq	-48(%rbp), %rdx
	addq	$56, %rsp
	popq	%rbp
	retq
Ltmp797:
Lfunc_end95:
	.cfi_endproc

	.globl	__ZN4core3fmt10ArgumentV111new_display17h7c4f65ce98ef81e8E
	.p2align	4, 0x90
__ZN4core3fmt10ArgumentV111new_display17h7c4f65ce98ef81e8E:
Lfunc_begin96:
	.loc	42 327 0
	.cfi_startproc
	pushq	%rbp
	.cfi_def_cfa_offset 16
	.cfi_offset %rbp, -16
	movq	%rsp, %rbp
	.cfi_def_cfa_register %rbp
	subq	$56, %rsp
	movq	%rdi, -40(%rbp)
Ltmp798:
	.loc	42 328 23 prologue_end
	movq	%rdi, -32(%rbp)
	.loc	42 328 26 is_stmt 0
	leaq	__ZN44_$LT$$RF$T$u20$as$u20$core..fmt..Display$GT$3fmt17hd03bcdad655544a8E(%rip), %rax
	movq	%rax, -24(%rbp)
Ltmp799:
	.loc	42 347 42 is_stmt 1
	movq	%rax, -16(%rbp)
	movq	-16(%rbp), %rax
	.loc	42 347 68 is_stmt 0
	movq	%rdi, -8(%rbp)
	movq	-8(%rbp), %rcx
	.loc	42 347 18
	movq	%rcx, -56(%rbp)
	movq	%rax, -48(%rbp)
Ltmp800:
	.loc	42 329 10 is_stmt 1
	movq	-56(%rbp), %rax
	movq	-48(%rbp), %rdx
	addq	$56, %rsp
	popq	%rbp
	retq
Ltmp801:
Lfunc_end96:
	.cfi_endproc

	.globl	__ZN4core3fmt10ArgumentV111new_display17h8e6cbdabb211ab26E
	.p2align	4, 0x90
__ZN4core3fmt10ArgumentV111new_display17h8e6cbdabb211ab26E:
Lfunc_begin97:
	.loc	42 327 0
	.cfi_startproc
	pushq	%rbp
	.cfi_def_cfa_offset 16
	.cfi_offset %rbp, -16
	movq	%rsp, %rbp
	.cfi_def_cfa_register %rbp
	subq	$56, %rsp
	movq	%rdi, -40(%rbp)
Ltmp802:
	.loc	42 328 23 prologue_end
	movq	%rdi, -32(%rbp)
	.loc	42 328 26 is_stmt 0
	movq	__ZN4core3fmt3num3imp54_$LT$impl$u20$core..fmt..Display$u20$for$u20$usize$GT$3fmt17ha5c925fcd7ed33faE@GOTPCREL(%rip), %rax
	movq	%rax, -24(%rbp)
Ltmp803:
	.loc	42 347 42 is_stmt 1
	movq	%rax, -16(%rbp)
	movq	-16(%rbp), %rax
	.loc	42 347 68 is_stmt 0
	movq	%rdi, -8(%rbp)
	movq	-8(%rbp), %rcx
	.loc	42 347 18
	movq	%rcx, -56(%rbp)
	movq	%rax, -48(%rbp)
Ltmp804:
	.loc	42 329 10 is_stmt 1
	movq	-56(%rbp), %rax
	movq	-48(%rbp), %rdx
	addq	$56, %rsp
	popq	%rbp
	retq
Ltmp805:
Lfunc_end97:
	.cfi_endproc

	.p2align	4, 0x90
__ZN4core3fmt3num52_$LT$impl$u20$core..fmt..Debug$u20$for$u20$usize$GT$3fmt17hef99f7af546b92ccE:
Lfunc_begin98:
	.file	46 "/rustc/2c8cc343237b8f7d5a3c3703e3a87f2eb2c54a74/library/core/src/fmt" "num.rs"
	.loc	46 185 0
	.cfi_startproc
	pushq	%rbp
	.cfi_def_cfa_offset 16
	.cfi_offset %rbp, -16
	movq	%rsp, %rbp
	.cfi_def_cfa_register %rbp
	subq	$48, %rsp
	movq	%rsi, -48(%rbp)
	movq	%rdi, %rax
	movq	-48(%rbp), %rdi
	movq	%rax, -40(%rbp)
	movq	%rdi, -32(%rbp)
	movq	%rax, -16(%rbp)
	movq	%rdi, -8(%rbp)
Ltmp806:
	.loc	46 186 20 prologue_end
	callq	__ZN4core3fmt9Formatter15debug_lower_hex17h0921e6b9188d914eE
	testb	$1, %al
	jne	LBB98_2
	.loc	46 0 20 is_stmt 0
	movq	-32(%rbp), %rdi
	.loc	46 188 27 is_stmt 1
	callq	__ZN4core3fmt9Formatter15debug_upper_hex17h8ce487049a6cccf8E
	testb	$1, %al
	jne	LBB98_5
	jmp	LBB98_4
LBB98_2:
	.loc	46 0 27 is_stmt 0
	movq	-32(%rbp), %rsi
	movq	-40(%rbp), %rdi
	.loc	46 187 21 is_stmt 1
	callq	__ZN4core3fmt3num55_$LT$impl$u20$core..fmt..LowerHex$u20$for$u20$usize$GT$3fmt17h84f349805fe63f8dE
	andb	$1, %al
	movb	%al, -17(%rbp)
LBB98_3:
	.loc	46 193 14
	movb	-17(%rbp), %al
	andb	$1, %al
	movzbl	%al, %eax
	addq	$48, %rsp
	popq	%rbp
	retq
LBB98_4:
	.loc	46 0 14 is_stmt 0
	movq	-32(%rbp), %rsi
	movq	-40(%rbp), %rdi
	.loc	46 191 21 is_stmt 1
	callq	__ZN4core3fmt3num3imp54_$LT$impl$u20$core..fmt..Display$u20$for$u20$usize$GT$3fmt17ha5c925fcd7ed33faE
	andb	$1, %al
	movb	%al, -17(%rbp)
	.loc	46 188 24
	jmp	LBB98_6
LBB98_5:
	.loc	46 0 24 is_stmt 0
	movq	-32(%rbp), %rsi
	movq	-40(%rbp), %rdi
	.loc	46 189 21 is_stmt 1
	callq	__ZN4core3fmt3num55_$LT$impl$u20$core..fmt..UpperHex$u20$for$u20$usize$GT$3fmt17h49aa717311edc293E
	andb	$1, %al
	movb	%al, -17(%rbp)
LBB98_6:
	.loc	46 186 17
	jmp	LBB98_3
Ltmp807:
Lfunc_end98:
	.cfi_endproc

	.globl	__ZN4core3fmt8builders9DebugList7entries17hcf1c544e5af5c244E
	.p2align	4, 0x90
__ZN4core3fmt8builders9DebugList7entries17hcf1c544e5af5c244E:
Lfunc_begin99:
	.file	47 "/rustc/2c8cc343237b8f7d5a3c3703e3a87f2eb2c54a74/library/core/src/fmt" "builders.rs"
	.loc	47 627 0
	.cfi_startproc
	.cfi_personality 155, _rust_eh_personality
	.cfi_lsda 16, Lexception24
	pushq	%rbp
	.cfi_def_cfa_offset 16
	.cfi_offset %rbp, -16
	movq	%rsp, %rbp
	.cfi_def_cfa_register %rbp
	subq	$112, %rsp
	movq	%rdx, -96(%rbp)
	movq	%rsi, %rax
	movq	-96(%rbp), %rsi
	movq	%rax, -88(%rbp)
	movq	%rdi, %rax
	movq	-88(%rbp), %rdi
	movq	%rax, -80(%rbp)
	movq	%rax, -40(%rbp)
	movq	%rdi, -32(%rbp)
	movq	%rsi, -24(%rbp)
Ltmp814:
	.loc	47 632 22 prologue_end
	callq	__ZN63_$LT$I$u20$as$u20$core..iter..traits..collect..IntoIterator$GT$9into_iter17h623e62648cc2c696E
	movq	%rax, -72(%rbp)
	movq	%rdx, -64(%rbp)
LBB99_1:
Ltmp808:
	.loc	47 0 22 is_stmt 0
	leaq	-72(%rbp), %rdi
Ltmp815:
	.loc	47 632 22
	callq	__ZN91_$LT$core..slice..iter..Iter$LT$T$GT$$u20$as$u20$core..iter..traits..iterator..Iterator$GT$4next17h61dd0c05584b05d8E
Ltmp809:
	movq	%rax, -104(%rbp)
	jmp	LBB99_4
Ltmp816:
LBB99_2:
	.loc	47 627 5 is_stmt 1
	movq	-16(%rbp), %rdi
	callq	__Unwind_Resume
LBB99_3:
Ltmp810:
	.loc	47 0 5 is_stmt 0
	movq	%rax, %rcx
	movl	%edx, %eax
	movq	%rcx, -16(%rbp)
	movl	%eax, -8(%rbp)
	jmp	LBB99_2
LBB99_4:
	movq	-104(%rbp), %rax
Ltmp817:
	.loc	47 632 22 is_stmt 1
	movq	%rax, -56(%rbp)
	movq	-56(%rbp), %rdx
	movl	$1, %eax
	xorl	%ecx, %ecx
	cmpq	$0, %rdx
	cmoveq	%rcx, %rax
	cmpq	$0, %rax
	jne	LBB99_6
Ltmp818:
	.loc	47 0 22 is_stmt 0
	movq	-80(%rbp), %rax
	.loc	47 636 6 is_stmt 1
	addq	$112, %rsp
	popq	%rbp
	retq
LBB99_6:
	.loc	47 0 6 is_stmt 0
	movq	-80(%rbp), %rdi
Ltmp819:
	.loc	47 632 13 is_stmt 1
	movq	-56(%rbp), %rax
	movq	%rax, -48(%rbp)
Ltmp811:
Ltmp820:
	.loc	47 633 13
	leaq	l___unnamed_1(%rip), %rdx
	leaq	-48(%rbp), %rsi
	callq	__ZN4core3fmt8builders9DebugList5entry17h90e9fab3d6cede22E
Ltmp812:
	jmp	LBB99_9
Ltmp821:
LBB99_7:
	.loc	47 634 9
	jmp	LBB99_2
LBB99_8:
Ltmp813:
	.loc	47 0 9 is_stmt 0
	movq	%rax, %rcx
	movl	%edx, %eax
	movq	%rcx, -16(%rbp)
	movl	%eax, -8(%rbp)
	jmp	LBB99_7
LBB99_9:
	.loc	47 634 9
	jmp	LBB99_10
LBB99_10:
	.loc	47 632 9 is_stmt 1
	jmp	LBB99_1
Ltmp822:
Lfunc_end99:
	.cfi_endproc
	.section	__TEXT,__gcc_except_tab
	.p2align	2
GCC_except_table99:
Lexception24:
	.byte	255
	.byte	255
	.byte	1
	.uleb128 Lcst_end24-Lcst_begin24
Lcst_begin24:
	.uleb128 Lfunc_begin99-Lfunc_begin99
	.uleb128 Ltmp808-Lfunc_begin99
	.byte	0
	.byte	0
	.uleb128 Ltmp808-Lfunc_begin99
	.uleb128 Ltmp809-Ltmp808
	.uleb128 Ltmp810-Lfunc_begin99
	.byte	0
	.uleb128 Ltmp809-Lfunc_begin99
	.uleb128 Ltmp811-Ltmp809
	.byte	0
	.byte	0
	.uleb128 Ltmp811-Lfunc_begin99
	.uleb128 Ltmp812-Ltmp811
	.uleb128 Ltmp813-Lfunc_begin99
	.byte	0
Lcst_end24:
	.p2align	2

	.section	__TEXT,__text,regular,pure_instructions
	.p2align	4, 0x90
__ZN4core3fmt9Arguments6as_str17h4dfcec0a31ff56d7E:
Lfunc_begin100:
	.loc	42 521 0
	.cfi_startproc
	pushq	%rbp
	.cfi_def_cfa_offset 16
	.cfi_offset %rbp, -16
	movq	%rsp, %rbp
	.cfi_def_cfa_register %rbp
	subq	$64, %rsp
	movq	%rdi, -16(%rbp)
Ltmp823:
	.loc	42 522 16 prologue_end
	movq	16(%rdi), %rsi
	movq	24(%rdi), %rdx
	.loc	42 522 29 is_stmt 0
	movq	32(%rdi), %rcx
	movq	40(%rdi), %rax
	.loc	42 522 15
	movq	%rsi, -48(%rbp)
	movq	%rdx, -40(%rbp)
	movq	%rcx, -32(%rbp)
	movq	%rax, -24(%rbp)
	.loc	42 523 14 is_stmt 1
	cmpq	$0, -40(%rbp)
	je	LBB100_2
	.loc	42 524 14
	cmpq	$1, -40(%rbp)
	je	LBB100_6
	jmp	LBB100_3
LBB100_2:
	.loc	42 523 18
	cmpq	$0, -24(%rbp)
	je	LBB100_4
LBB100_3:
	.loc	42 525 18
	movq	$0, -64(%rbp)
	jmp	LBB100_5
LBB100_4:
	.loc	42 523 25
	leaq	l___unnamed_24(%rip), %rax
	movq	%rax, -64(%rbp)
	movq	$0, -56(%rbp)
LBB100_5:
	.loc	42 527 6
	movq	-64(%rbp), %rax
	movq	-56(%rbp), %rdx
	addq	$64, %rsp
	popq	%rbp
	retq
LBB100_6:
	.loc	42 524 19
	cmpq	$0, -24(%rbp)
	jne	LBB100_3
	.loc	42 524 15 is_stmt 0
	movq	-48(%rbp), %rax
	movq	%rax, -8(%rbp)
Ltmp824:
	.loc	42 524 31
	movq	(%rax), %rcx
	movq	8(%rax), %rax
	.loc	42 524 26
	movq	%rcx, -64(%rbp)
	movq	%rax, -56(%rbp)
Ltmp825:
	.loc	42 524 32
	jmp	LBB100_5
Ltmp826:
Lfunc_end100:
	.cfi_endproc

	.p2align	4, 0x90
__ZN4core3fmt9Arguments6new_v117h40483158e9235353E:
Lfunc_begin101:
	.loc	42 399 0 is_stmt 1
	.cfi_startproc
	pushq	%rbp
	.cfi_def_cfa_offset 16
	.cfi_offset %rbp, -16
	movq	%rsp, %rbp
	.cfi_def_cfa_register %rbp
	subq	$160, %rsp
	movq	%r8, -152(%rbp)
	movq	%rcx, -144(%rbp)
	movq	%rdx, -136(%rbp)
	movq	%rsi, -128(%rbp)
	movq	%rdi, -120(%rbp)
	movq	%rdi, -112(%rbp)
	movq	%rsi, -32(%rbp)
	movq	%rdx, -24(%rbp)
	movq	%rcx, -16(%rbp)
	movq	%r8, -8(%rbp)
Ltmp827:
	.loc	42 400 12 prologue_end
	cmpq	%r8, %rdx
	jb	LBB101_2
	.loc	42 0 12 is_stmt 0
	movq	-136(%rbp), %rax
	movq	-152(%rbp), %rcx
	.loc	42 400 56
	addq	$1, %rcx
	.loc	42 400 41
	cmpq	%rcx, %rax
	seta	%al
	.loc	42 400 12
	andb	$1, %al
	movb	%al, -97(%rbp)
	jmp	LBB101_3
LBB101_2:
	movb	$1, -97(%rbp)
LBB101_3:
	testb	$1, -97(%rbp)
	jne	LBB101_5
	.loc	42 0 12
	movq	-112(%rbp), %rax
	movq	-120(%rbp), %rcx
	movq	-152(%rbp), %rdx
	movq	-144(%rbp), %rsi
	movq	-136(%rbp), %rdi
	movq	-128(%rbp), %r8
	.loc	42 403 34 is_stmt 1
	movq	$0, -48(%rbp)
	.loc	42 403 9 is_stmt 0
	movq	%r8, 16(%rcx)
	movq	%rdi, 24(%rcx)
	movq	-48(%rbp), %r8
	movq	-40(%rbp), %rdi
	movq	%r8, (%rcx)
	movq	%rdi, 8(%rcx)
	movq	%rsi, 32(%rcx)
	movq	%rdx, 40(%rcx)
	.loc	42 404 6 is_stmt 1
	addq	$160, %rsp
	popq	%rbp
	retq
LBB101_5:
	.loc	42 401 13
	leaq	l___unnamed_25(%rip), %rsi
	leaq	l___unnamed_24(%rip), %rcx
	xorl	%eax, %eax
	movl	%eax, %r8d
	leaq	-96(%rbp), %rdi
	movq	%rdi, -160(%rbp)
	movl	$1, %edx
	callq	__ZN4core3fmt9Arguments6new_v117h40483158e9235353E
	movq	-160(%rbp), %rdi
	leaq	l___unnamed_26(%rip), %rsi
	callq	__ZN4core9panicking9panic_fmt17h9b5d807e24bcaaedE
Ltmp828:
Lfunc_end101:
	.cfi_endproc

	.globl	__ZN4core3mem12maybe_uninit20MaybeUninit$LT$T$GT$16assume_init_drop17h0b61c013cffca37aE
	.p2align	4, 0x90
__ZN4core3mem12maybe_uninit20MaybeUninit$LT$T$GT$16assume_init_drop17h0b61c013cffca37aE:
Lfunc_begin102:
	.file	48 "/rustc/2c8cc343237b8f7d5a3c3703e3a87f2eb2c54a74/library/core/src/mem" "maybe_uninit.rs"
	.loc	48 724 0
	.cfi_startproc
	pushq	%rbp
	.cfi_def_cfa_offset 16
	.cfi_offset %rbp, -16
	movq	%rsp, %rbp
	.cfi_def_cfa_register %rbp
	subq	$16, %rsp
	movq	%rdi, -16(%rbp)
Ltmp829:
	.loc	48 728 37 prologue_end
	movq	%rdi, -8(%rbp)
	.loc	48 728 18 is_stmt 0
	callq	__ZN4core3ptr47drop_in_place$LT$std..ffi..os_str..OsString$GT$17h15f830cd522ea1c4E
	.loc	48 729 6 is_stmt 1
	addq	$16, %rsp
	popq	%rbp
	retq
Ltmp830:
Lfunc_end102:
	.cfi_endproc

	.globl	__ZN4core3mem12maybe_uninit20MaybeUninit$LT$T$GT$16assume_init_drop17h5f3bdd01b87716abE
	.p2align	4, 0x90
__ZN4core3mem12maybe_uninit20MaybeUninit$LT$T$GT$16assume_init_drop17h5f3bdd01b87716abE:
Lfunc_begin103:
	.loc	48 724 0
	.cfi_startproc
	pushq	%rbp
	.cfi_def_cfa_offset 16
	.cfi_offset %rbp, -16
	movq	%rsp, %rbp
	.cfi_def_cfa_register %rbp
	subq	$16, %rsp
	movq	%rdi, -16(%rbp)
Ltmp831:
	.loc	48 728 37 prologue_end
	movq	%rdi, -8(%rbp)
	.loc	48 728 18 is_stmt 0
	callq	__ZN4core3ptr75drop_in_place$LT$core..option..Option$LT$std..ffi..os_str..OsString$GT$$GT$17hcf24ffb176e8ecaeE
	.loc	48 729 6 is_stmt 1
	addq	$16, %rsp
	popq	%rbp
	retq
Ltmp832:
Lfunc_end103:
	.cfi_endproc

	.globl	__ZN4core3mem4drop17hcda162cfedc65325E
	.p2align	4, 0x90
__ZN4core3mem4drop17hcda162cfedc65325E:
Lfunc_begin104:
	.file	49 "/rustc/2c8cc343237b8f7d5a3c3703e3a87f2eb2c54a74/library/core/src/mem" "mod.rs"
	.loc	49 980 0
	.cfi_startproc
	pushq	%rbp
	.cfi_def_cfa_offset 16
	.cfi_offset %rbp, -16
	movq	%rsp, %rbp
	.cfi_def_cfa_register %rbp
	subq	$16, %rsp
	movl	%edi, -4(%rbp)
Ltmp833:
	.loc	49 980 24 prologue_end
	leaq	-4(%rbp), %rdi
	callq	__ZN4core3ptr45drop_in_place$LT$std..process..ChildStdin$GT$17h5b472cdc69189b11E
	.loc	49 980 25 is_stmt 0
	addq	$16, %rsp
	popq	%rbp
	retq
Ltmp834:
Lfunc_end104:
	.cfi_endproc

	.globl	__ZN4core3mem7replace17h4caf13b64c9fdc09E
	.p2align	4, 0x90
__ZN4core3mem7replace17h4caf13b64c9fdc09E:
Lfunc_begin105:
	.loc	49 905 0 is_stmt 1
	.cfi_startproc
	pushq	%rbp
	.cfi_def_cfa_offset 16
	.cfi_offset %rbp, -16
	movq	%rsp, %rbp
	.cfi_def_cfa_register %rbp
	subq	$120, %rsp
	movq	%rdi, -120(%rbp)
	movq	%rsi, -112(%rbp)
	movq	%rdi, -80(%rbp)
	movq	%rsi, -72(%rbp)
Ltmp835:
	.loc	49 910 32 prologue_end
	movq	%rdi, -64(%rbp)
Ltmp836:
	.loc	9 1157 34
	leaq	-88(%rbp), %rax
	movq	%rax, -56(%rbp)
	.loc	9 1157 9 is_stmt 0
	movq	(%rdi), %rax
	movq	%rax, -88(%rbp)
	.loc	9 1158 9 is_stmt 1
	movq	-88(%rbp), %rax
	movq	%rax, -104(%rbp)
	movq	%rax, -48(%rbp)
	.loc	9 0 9 is_stmt 0
	movq	-104(%rbp), %rax
	movq	-120(%rbp), %rcx
	movq	-112(%rbp), %rdx
Ltmp837:
	.loc	48 627 38 is_stmt 1
	movq	%rax, -24(%rbp)
Ltmp838:
	.loc	25 89 9
	movq	%rax, -16(%rbp)
Ltmp839:
	.loc	49 911 20
	movq	%rcx, -8(%rbp)
	.loc	49 911 26 is_stmt 0
	movq	%rdx, -96(%rbp)
Ltmp840:
	.loc	9 1354 9 is_stmt 1
	movq	-96(%rbp), %rdx
	movq	%rdx, (%rcx)
Ltmp841:
	.loc	49 914 2
	addq	$120, %rsp
	popq	%rbp
	retq
Ltmp842:
Lfunc_end105:
	.cfi_endproc

	.globl	__ZN4core3mem7replace17h940387a9654d431dE
	.p2align	4, 0x90
__ZN4core3mem7replace17h940387a9654d431dE:
Lfunc_begin106:
	.loc	49 905 0
	.cfi_startproc
	pushq	%rbp
	.cfi_def_cfa_offset 16
	.cfi_offset %rbp, -16
	movq	%rsp, %rbp
	.cfi_def_cfa_register %rbp
	subq	$208, %rsp
	movq	%rdx, -208(%rbp)
Ltmp843:
	movq	%rsi, -200(%rbp)
	movq	%rdi, -192(%rbp)
	movq	%rdi, -184(%rbp)
	movq	%rsi, -48(%rbp)
Ltmp844:
	.loc	49 910 32 prologue_end
	movq	%rsi, -40(%rbp)
Ltmp845:
	.loc	9 1157 34
	leaq	-144(%rbp), %rax
	movq	%rax, -32(%rbp)
	.loc	9 1157 9 is_stmt 0
	movq	(%rsi), %rax
	movq	%rax, -144(%rbp)
	movq	8(%rsi), %rax
	movq	%rax, -136(%rbp)
	movq	16(%rsi), %rax
	movq	%rax, -128(%rbp)
	movq	24(%rsi), %rax
	movq	%rax, -120(%rbp)
	.loc	9 1158 9 is_stmt 1
	movq	-144(%rbp), %rax
	movq	%rax, -112(%rbp)
	movq	-136(%rbp), %rax
	movq	%rax, -104(%rbp)
	movq	-128(%rbp), %rax
	movq	%rax, -96(%rbp)
	movq	-120(%rbp), %rax
	movq	%rax, -88(%rbp)
Ltmp846:
	.loc	9 0 9 is_stmt 0
	movq	-184(%rbp), %rax
	movq	-200(%rbp), %rcx
	movq	-208(%rbp), %rdx
	movq	-192(%rbp), %rsi
Ltmp847:
	.loc	48 627 38 is_stmt 1
	movq	-112(%rbp), %rdi
	movq	%rdi, -80(%rbp)
	movq	-104(%rbp), %rdi
	movq	%rdi, -72(%rbp)
	movq	-96(%rbp), %rdi
	movq	%rdi, -64(%rbp)
	movq	-88(%rbp), %rdi
	movq	%rdi, -56(%rbp)
Ltmp848:
	.loc	25 89 9
	movq	-80(%rbp), %rdi
	movq	%rdi, (%rsi)
	movq	-72(%rbp), %rdi
	movq	%rdi, 8(%rsi)
	movq	-64(%rbp), %rdi
	movq	%rdi, 16(%rsi)
	movq	-56(%rbp), %rdi
	movq	%rdi, 24(%rsi)
Ltmp849:
	.loc	49 911 20
	movq	%rcx, -8(%rbp)
	.loc	49 911 26 is_stmt 0
	movq	(%rdx), %rsi
	movq	%rsi, -176(%rbp)
	movq	8(%rdx), %rsi
	movq	%rsi, -168(%rbp)
	movq	16(%rdx), %rsi
	movq	%rsi, -160(%rbp)
	movq	24(%rdx), %rdx
	movq	%rdx, -152(%rbp)
Ltmp850:
	.loc	9 1354 9 is_stmt 1
	movq	-176(%rbp), %rdx
	movq	%rdx, (%rcx)
	movq	-168(%rbp), %rdx
	movq	%rdx, 8(%rcx)
	movq	-160(%rbp), %rdx
	movq	%rdx, 16(%rcx)
	movq	-152(%rbp), %rdx
	movq	%rdx, 24(%rcx)
Ltmp851:
	.loc	49 914 2
	addq	$208, %rsp
	popq	%rbp
	retq
Ltmp852:
Lfunc_end106:
	.cfi_endproc

	.globl	__ZN4core3mem7replace17hb6be0ed595a103baE
	.p2align	4, 0x90
__ZN4core3mem7replace17hb6be0ed595a103baE:
Lfunc_begin107:
	.loc	49 905 0
	.cfi_startproc
	pushq	%rbp
	.cfi_def_cfa_offset 16
	.cfi_offset %rbp, -16
	movq	%rsp, %rbp
	.cfi_def_cfa_register %rbp
	subq	$184, %rsp
	movq	%rdi, -184(%rbp)
	movq	%rsi, -176(%rbp)
	movq	%rdx, -168(%rbp)
	movq	%rdi, -112(%rbp)
	movq	%rsi, -104(%rbp)
	movq	%rdx, -96(%rbp)
Ltmp853:
	.loc	49 910 32 prologue_end
	movq	%rdi, -88(%rbp)
Ltmp854:
	.loc	9 1157 34
	leaq	-128(%rbp), %rax
	movq	%rax, -80(%rbp)
	.loc	9 1157 9 is_stmt 0
	movq	(%rdi), %rax
	movq	%rax, -128(%rbp)
	movq	8(%rdi), %rax
	movq	%rax, -120(%rbp)
	.loc	9 1158 9 is_stmt 1
	movq	-128(%rbp), %rcx
	movq	%rcx, -160(%rbp)
	movq	-120(%rbp), %rax
	movq	%rax, -152(%rbp)
	movq	%rcx, -72(%rbp)
	movq	%rax, -64(%rbp)
	.loc	9 0 9 is_stmt 0
	movq	-152(%rbp), %rdx
	movq	-160(%rbp), %rax
	movq	-184(%rbp), %rcx
	movq	-168(%rbp), %rsi
	movq	-176(%rbp), %rdi
Ltmp855:
	.loc	48 627 38 is_stmt 1
	movq	%rax, -40(%rbp)
	movq	%rdx, -32(%rbp)
Ltmp856:
	.loc	25 89 9
	movq	%rax, -24(%rbp)
	movq	%rdx, -16(%rbp)
Ltmp857:
	.loc	49 911 20
	movq	%rcx, -8(%rbp)
	.loc	49 911 26 is_stmt 0
	movq	%rdi, -144(%rbp)
	movq	%rsi, -136(%rbp)
Ltmp858:
	.loc	9 1354 9 is_stmt 1
	movq	-144(%rbp), %rsi
	movq	-136(%rbp), %rdi
	movq	%rdi, 8(%rcx)
	movq	%rsi, (%rcx)
Ltmp859:
	.loc	49 914 2
	addq	$184, %rsp
	popq	%rbp
	retq
Ltmp860:
Lfunc_end107:
	.cfi_endproc

	.globl	__ZN4core3mem7replace17he80a43dda2400c5eE
	.p2align	4, 0x90
__ZN4core3mem7replace17he80a43dda2400c5eE:
Lfunc_begin108:
	.loc	49 905 0
	.cfi_startproc
	pushq	%rbp
	.cfi_def_cfa_offset 16
	.cfi_offset %rbp, -16
	movq	%rsp, %rbp
	.cfi_def_cfa_register %rbp
	subq	$88, %rsp
	movq	%rdi, -88(%rbp)
	movl	%esi, -76(%rbp)
	movq	%rdi, -64(%rbp)
Ltmp861:
	.loc	49 910 32 prologue_end
	movq	%rdi, -56(%rbp)
Ltmp862:
	.loc	9 1157 34
	leaq	-68(%rbp), %rax
	movq	%rax, -48(%rbp)
	.loc	9 1157 9 is_stmt 0
	movl	(%rdi), %eax
	movl	%eax, -68(%rbp)
	.loc	9 1158 9 is_stmt 1
	movl	-68(%rbp), %eax
	movl	%eax, -80(%rbp)
	movl	%eax, -36(%rbp)
	.loc	9 0 9 is_stmt 0
	movl	-80(%rbp), %eax
	movq	-88(%rbp), %rcx
Ltmp863:
	.loc	48 627 38 is_stmt 1
	movl	%eax, -16(%rbp)
Ltmp864:
	.loc	25 89 9
	movl	%eax, -12(%rbp)
Ltmp865:
	.loc	49 911 20
	movq	%rcx, -8(%rbp)
	.loc	49 911 26 is_stmt 0
	movl	-76(%rbp), %edx
	movl	%edx, -72(%rbp)
Ltmp866:
	.loc	9 1354 9 is_stmt 1
	movl	-72(%rbp), %edx
	movl	%edx, (%rcx)
Ltmp867:
	.loc	49 914 2
	addq	$88, %rsp
	popq	%rbp
	retq
Ltmp868:
Lfunc_end108:
	.cfi_endproc

	.p2align	4, 0x90
__ZN4core3num23_$LT$impl$u20$usize$GT$11checked_add17h8a79e7dd474b5b51E:
Lfunc_begin109:
	.loc	16 442 0
	.cfi_startproc
	pushq	%rbp
	.cfi_def_cfa_offset 16
	.cfi_offset %rbp, -16
	movq	%rsp, %rbp
	.cfi_def_cfa_register %rbp
	subq	$120, %rsp
	movq	%rdi, -80(%rbp)
	movq	%rsi, -72(%rbp)
Ltmp869:
	.loc	16 443 26 prologue_end
	movq	%rdi, -64(%rbp)
	.loc	16 443 47 is_stmt 0
	movq	%rsi, -56(%rbp)
Ltmp870:
	.loc	16 1479 26 is_stmt 1
	addq	%rsi, %rdi
	setb	%al
	andb	$1, %al
	movq	%rdi, -48(%rbp)
	movb	%al, -40(%rbp)
	movq	-48(%rbp), %rcx
	movb	-40(%rbp), %al
	.loc	16 1479 18 is_stmt 0
	movq	%rcx, -32(%rbp)
	.loc	16 1479 21
	movb	%al, %dl
	andb	$1, %dl
	movb	%dl, -17(%rbp)
Ltmp871:
	.loc	16 1480 13 is_stmt 1
	movq	%rcx, -96(%rbp)
	andb	$1, %al
	movb	%al, -88(%rbp)
Ltmp872:
	.loc	16 443 18
	movq	-96(%rbp), %rax
	movq	%rax, -120(%rbp)
	movq	%rax, -16(%rbp)
	.loc	16 443 21 is_stmt 0
	movb	-88(%rbp), %al
	movb	%al, %cl
	andb	$1, %cl
	movb	%cl, -2(%rbp)
Ltmp873:
	.loc	16 444 16 is_stmt 1
	andb	$1, %al
	movb	%al, -1(%rbp)
	testb	$1, -1(%rbp)
	jne	LBB109_2
	.loc	16 0 16 is_stmt 0
	movq	-120(%rbp), %rax
	.loc	16 444 42
	movq	%rax, -104(%rbp)
	movq	$1, -112(%rbp)
	.loc	16 444 13
	jmp	LBB109_3
LBB109_2:
	.loc	16 444 30
	movq	$0, -112(%rbp)
Ltmp874:
LBB109_3:
	.loc	16 445 10 is_stmt 1
	movq	-112(%rbp), %rax
	movq	-104(%rbp), %rdx
	addq	$120, %rsp
	popq	%rbp
	retq
Ltmp875:
Lfunc_end109:
	.cfi_endproc

	.globl	__ZN4core3ops12control_flow24ControlFlow$LT$B$C$C$GT$11break_value17hf29efa7c17463705E
	.p2align	4, 0x90
__ZN4core3ops12control_flow24ControlFlow$LT$B$C$C$GT$11break_value17hf29efa7c17463705E:
Lfunc_begin110:
	.loc	5 183 0
	.cfi_startproc
	pushq	%rbp
	.cfi_def_cfa_offset 16
	.cfi_offset %rbp, -16
	movq	%rsp, %rbp
	.cfi_def_cfa_register %rbp
	subq	$48, %rsp
	movq	%rdi, -48(%rbp)
	movq	%rsi, -40(%rbp)
Ltmp876:
	.loc	5 184 15 prologue_end
	movq	-48(%rbp), %rdx
	movl	$1, %eax
	xorl	%ecx, %ecx
	cmpq	$0, %rdx
	cmoveq	%rcx, %rax
	.loc	5 184 9 is_stmt 0
	cmpq	$0, %rax
	jne	LBB110_2
	.loc	5 185 42 is_stmt 1
	movq	$0, -32(%rbp)
	jmp	LBB110_3
LBB110_2:
	.loc	5 186 32
	movq	-48(%rbp), %rcx
	movq	-40(%rbp), %rax
	movq	%rcx, -16(%rbp)
	movq	%rax, -8(%rbp)
Ltmp877:
	.loc	5 186 38 is_stmt 0
	movq	%rcx, -32(%rbp)
	movq	%rax, -24(%rbp)
Ltmp878:
LBB110_3:
	.loc	5 188 5 is_stmt 1
	movq	-48(%rbp), %rdx
	movl	$1, %eax
	xorl	%ecx, %ecx
	cmpq	$0, %rdx
	cmoveq	%rcx, %rax
	cmpq	$1, %rax
	jne	LBB110_5
LBB110_4:
	.loc	5 188 6 is_stmt 0
	movq	-32(%rbp), %rax
	movq	-24(%rbp), %rdx
	addq	$48, %rsp
	popq	%rbp
	retq
LBB110_5:
	.loc	5 188 5
	jmp	LBB110_4
Ltmp879:
Lfunc_end110:
	.cfi_endproc

	.p2align	4, 0x90
__ZN4core3ops8function5FnMut8call_mut17h1d29d4406621d8cdE:
Lfunc_begin111:
	.file	50 "/rustc/2c8cc343237b8f7d5a3c3703e3a87f2eb2c54a74/library/core/src/ops" "function.rs"
	.loc	50 166 0 is_stmt 1
	.cfi_startproc
	pushq	%rbp
	.cfi_def_cfa_offset 16
	.cfi_offset %rbp, -16
	movq	%rsp, %rbp
	.cfi_def_cfa_register %rbp
	subq	$32, %rsp
	movq	%rsi, -24(%rbp)
	movq	%rdx, -16(%rbp)
	movq	%rdi, -8(%rbp)
Ltmp880:
	.loc	50 166 5 prologue_end
	movq	-24(%rbp), %rdi
	movq	-16(%rbp), %rsi
	callq	__ZN4core3str21_$LT$impl$u20$str$GT$4trim17ha13b66c1b1a91adbE
	addq	$32, %rsp
	popq	%rbp
	retq
Ltmp881:
Lfunc_end111:
	.cfi_endproc

	.p2align	4, 0x90
__ZN4core3ops8function5FnMut8call_mut17haeaa68750c855dceE:
Lfunc_begin112:
	.loc	50 166 0
	.cfi_startproc
	pushq	%rbp
	.cfi_def_cfa_offset 16
	.cfi_offset %rbp, -16
	movq	%rsp, %rbp
	.cfi_def_cfa_register %rbp
	subq	$32, %rsp
	movq	%rdi, %rax
	movq	%rax, -32(%rbp)
	movq	%rdx, -24(%rbp)
	movq	%rcx, -16(%rbp)
	movq	%rsi, -8(%rbp)
Ltmp882:
	.loc	50 166 5 prologue_end
	movq	-24(%rbp), %rsi
	movq	-16(%rbp), %rdx
	callq	__ZN47_$LT$str$u20$as$u20$alloc..string..ToString$GT$9to_string17he5acf2c86de8b800E
	movq	-32(%rbp), %rax
	addq	$32, %rsp
	popq	%rbp
	retq
Ltmp883:
Lfunc_end112:
	.cfi_endproc

	.globl	__ZN4core3ops8function5impls79_$LT$impl$u20$core..ops..function..FnMut$LT$A$GT$$u20$for$u20$$RF$mut$u20$F$GT$8call_mut17h4d0a25345bc5420eE
	.p2align	4, 0x90
__ZN4core3ops8function5impls79_$LT$impl$u20$core..ops..function..FnMut$LT$A$GT$$u20$for$u20$$RF$mut$u20$F$GT$8call_mut17h4d0a25345bc5420eE:
Lfunc_begin113:
	.loc	50 297 0
	.cfi_startproc
	pushq	%rbp
	.cfi_def_cfa_offset 16
	.cfi_offset %rbp, -16
	movq	%rsp, %rbp
	.cfi_def_cfa_register %rbp
	subq	$16, %rsp
	movq	%rsi, -16(%rbp)
	movq	%rdi, -8(%rbp)
Ltmp884:
	.loc	50 298 13 prologue_end
	movq	(%rdi), %rdi
	.loc	50 298 30 is_stmt 0
	movq	-16(%rbp), %rsi
	.loc	50 298 13
	callq	__ZN7autocfg9rustflags28_$u7b$$u7b$closure$u7d$$u7d$17hc154eed1d0c0fc34E
	.loc	50 299 10 is_stmt 1
	andb	$1, %al
	movzbl	%al, %eax
	addq	$16, %rsp
	popq	%rbp
	retq
Ltmp885:
Lfunc_end113:
	.cfi_endproc

	.globl	__ZN4core3ops8function5impls80_$LT$impl$u20$core..ops..function..FnOnce$LT$A$GT$$u20$for$u20$$RF$mut$u20$F$GT$9call_once17h10364fe5d60ca757E
	.p2align	4, 0x90
__ZN4core3ops8function5impls80_$LT$impl$u20$core..ops..function..FnOnce$LT$A$GT$$u20$for$u20$$RF$mut$u20$F$GT$9call_once17h10364fe5d60ca757E:
Lfunc_begin114:
	.loc	50 309 0
	.cfi_startproc
	pushq	%rbp
	.cfi_def_cfa_offset 16
	.cfi_offset %rbp, -16
	movq	%rsp, %rbp
	.cfi_def_cfa_register %rbp
	subq	$32, %rsp
	movq	%rsi, -24(%rbp)
	movq	%rdx, -16(%rbp)
	movq	%rdi, -8(%rbp)
Ltmp886:
	.loc	50 310 30 prologue_end
	movq	-24(%rbp), %rsi
	movq	-16(%rbp), %rdx
	.loc	50 310 13 is_stmt 0
	callq	__ZN95_$LT$core..str..LinesAnyMap$u20$as$u20$core..ops..function..FnMut$LT$$LP$$RF$str$C$$RP$$GT$$GT$8call_mut17hc9070c86e0cf031bE
	.loc	50 311 10 is_stmt 1
	addq	$32, %rsp
	popq	%rbp
	retq
Ltmp887:
Lfunc_end114:
	.cfi_endproc

	.globl	__ZN4core3ops8function5impls80_$LT$impl$u20$core..ops..function..FnOnce$LT$A$GT$$u20$for$u20$$RF$mut$u20$F$GT$9call_once17h827f70da0fc214b1E
	.p2align	4, 0x90
__ZN4core3ops8function5impls80_$LT$impl$u20$core..ops..function..FnOnce$LT$A$GT$$u20$for$u20$$RF$mut$u20$F$GT$9call_once17h827f70da0fc214b1E:
Lfunc_begin115:
	.loc	50 309 0
	.cfi_startproc
	pushq	%rbp
	.cfi_def_cfa_offset 16
	.cfi_offset %rbp, -16
	movq	%rsp, %rbp
	.cfi_def_cfa_register %rbp
	subq	$32, %rsp
	movq	%rdi, %rax
	movq	%rax, -32(%rbp)
	movq	%rdx, -24(%rbp)
	movq	%rcx, -16(%rbp)
	movq	%rsi, -8(%rbp)
Ltmp888:
	.loc	50 310 30 prologue_end
	movq	-24(%rbp), %rdx
	movq	-16(%rbp), %rcx
	.loc	50 310 13 is_stmt 0
	callq	__ZN4core3ops8function5FnMut8call_mut17haeaa68750c855dceE
	movq	-32(%rbp), %rax
	.loc	50 311 10 is_stmt 1
	addq	$32, %rsp
	popq	%rbp
	retq
Ltmp889:
Lfunc_end115:
	.cfi_endproc

	.p2align	4, 0x90
__ZN4core3ops8function6FnOnce9call_once17h4914d6bbcdd523f6E:
Lfunc_begin116:
	.loc	50 250 0
	.cfi_startproc
	pushq	%rbp
	.cfi_def_cfa_offset 16
	.cfi_offset %rbp, -16
	movq	%rsp, %rbp
	.cfi_def_cfa_register %rbp
	subq	$48, %rsp
	movq	%rdi, %rax
	movq	%rax, -40(%rbp)
	movq	(%rsi), %rax
	movq	%rax, -32(%rbp)
	movq	8(%rsi), %rax
	movq	%rax, -24(%rbp)
	movq	16(%rsi), %rax
	movq	%rax, -16(%rbp)
Ltmp890:
	.loc	50 250 5 prologue_end
	leaq	-32(%rbp), %rsi
	callq	__ZN92_$LT$std..path..PathBuf$u20$as$u20$core..convert..From$LT$std..ffi..os_str..OsString$GT$$GT$4from17hba1e3c51fb6c91bbE
	movq	-40(%rbp), %rax
	addq	$48, %rsp
	popq	%rbp
	retq
Ltmp891:
Lfunc_end116:
	.cfi_endproc

	.p2align	4, 0x90
__ZN4core3ops8function6FnOnce9call_once17h600444042af80e90E:
Lfunc_begin117:
	.loc	50 250 0
	.cfi_startproc
	pushq	%rbp
	.cfi_def_cfa_offset 16
	.cfi_offset %rbp, -16
	movq	%rsp, %rbp
	.cfi_def_cfa_register %rbp
	subq	$32, %rsp
	movb	%sil, %al
	movq	%rdi, %rcx
	movq	%rcx, -24(%rbp)
	movb	%al, -9(%rbp)
Ltmp892:
	.loc	50 250 5 prologue_end
	movzbl	-9(%rbp), %esi
	callq	__ZN7autocfg5error8from_num17h618123ec69d48873E
	movq	-24(%rbp), %rax
	addq	$32, %rsp
	popq	%rbp
	retq
Ltmp893:
Lfunc_end117:
	.cfi_endproc

	.p2align	4, 0x90
__ZN4core3ops8function6FnOnce9call_once17h71e96d2b392fa5edE:
Lfunc_begin118:
	.loc	50 250 0
	.cfi_startproc
	pushq	%rbp
	.cfi_def_cfa_offset 16
	.cfi_offset %rbp, -16
	movq	%rsp, %rbp
	.cfi_def_cfa_register %rbp
	subq	$176, %rsp
	movq	%rdi, -168(%rbp)
	movq	%rdi, -160(%rbp)
	leaq	-152(%rbp), %rdi
	movl	$144, %edx
	callq	_memcpy
	movq	-168(%rbp), %rdi
Ltmp894:
	.loc	50 250 5 prologue_end
	leaq	-152(%rbp), %rsi
	callq	__ZN3std2fs8Metadata17h080758fb10b1cf1eE
	movq	-160(%rbp), %rax
	addq	$176, %rsp
	popq	%rbp
	retq
Ltmp895:
Lfunc_end118:
	.cfi_endproc

	.p2align	4, 0x90
__ZN4core3ops8function6FnOnce9call_once17h86ee380390681305E:
Lfunc_begin119:
	.loc	50 250 0
	.cfi_startproc
	pushq	%rbp
	.cfi_def_cfa_offset 16
	.cfi_offset %rbp, -16
	movq	%rsp, %rbp
	.cfi_def_cfa_register %rbp
	subq	$32, %rsp
	movq	%rdi, %rax
	movq	%rax, -32(%rbp)
	movq	%rsi, -24(%rbp)
	movq	%rdx, -16(%rbp)
Ltmp896:
	.loc	50 250 5 prologue_end
	movq	-24(%rbp), %rsi
	movq	-16(%rbp), %rdx
	callq	__ZN5alloc3str56_$LT$impl$u20$alloc..borrow..ToOwned$u20$for$u20$str$GT$8to_owned17h58d71dd6d2d36c84E
	movq	-32(%rbp), %rax
	addq	$32, %rsp
	popq	%rbp
	retq
Ltmp897:
Lfunc_end119:
	.cfi_endproc

	.p2align	4, 0x90
__ZN4core3ops8function6FnOnce9call_once17hdfe3928986161f74E:
Lfunc_begin120:
	.loc	50 250 0
	.cfi_startproc
	pushq	%rbp
	.cfi_def_cfa_offset 16
	.cfi_offset %rbp, -16
	movq	%rsp, %rbp
	.cfi_def_cfa_register %rbp
	subq	$32, %rsp
	movq	%rdi, -24(%rbp)
	movq	%rsi, -16(%rbp)
Ltmp898:
	.loc	50 250 5 prologue_end
	movq	-24(%rbp), %rdi
	movq	-16(%rbp), %rsi
	callq	__ZN4core3cmp5impls50_$LT$impl$u20$core..cmp..Ord$u20$for$u20$usize$GT$3cmp17h41c7efa930060096E
	addq	$32, %rsp
	popq	%rbp
	retq
Ltmp899:
Lfunc_end120:
	.cfi_endproc

	.p2align	4, 0x90
__ZN4core3ops8function6FnOnce9call_once17he2148ed822b8476cE:
Lfunc_begin121:
	.loc	50 250 0
	.cfi_startproc
	pushq	%rbp
	.cfi_def_cfa_offset 16
	.cfi_offset %rbp, -16
	movq	%rsp, %rbp
	.cfi_def_cfa_register %rbp
	subq	$32, %rsp
	movq	%rdi, %rax
	movq	%rax, -32(%rbp)
	movq	(%rsi), %rax
	movq	%rax, -24(%rbp)
	movq	8(%rsi), %rax
	movq	%rax, -16(%rbp)
Ltmp900:
	.loc	50 250 5 prologue_end
	leaq	-24(%rbp), %rsi
	callq	__ZN7autocfg5error9from_utf817h3ba6c3f365dff642E
	movq	-32(%rbp), %rax
	addq	$32, %rsp
	popq	%rbp
	retq
Ltmp901:
Lfunc_end121:
	.cfi_endproc

	.p2align	4, 0x90
__ZN4core3ops8function6FnOnce9call_once17hf4e5326fa35796edE:
Lfunc_begin122:
	.loc	50 250 0
	.cfi_startproc
	pushq	%rbp
	.cfi_def_cfa_offset 16
	.cfi_offset %rbp, -16
	movq	%rsp, %rbp
	.cfi_def_cfa_register %rbp
	subq	$32, %rsp
	movq	%rdi, %rax
	movq	%rax, -24(%rbp)
	movq	%rsi, -16(%rbp)
Ltmp902:
	.loc	50 250 5 prologue_end
	movq	-16(%rbp), %rsi
	callq	__ZN7autocfg5error7from_io17h08f617dff3db02e1E
	movq	-24(%rbp), %rax
	addq	$32, %rsp
	popq	%rbp
	retq
Ltmp903:
Lfunc_end122:
	.cfi_endproc

	.globl	__ZN4core3ptr101drop_in_place$LT$std..io..error..ErrorData$LT$alloc..boxed..Box$LT$std..io..error..Custom$GT$$GT$$GT$17h5c0b9478f9cf7d34E
	.p2align	4, 0x90
__ZN4core3ptr101drop_in_place$LT$std..io..error..ErrorData$LT$alloc..boxed..Box$LT$std..io..error..Custom$GT$$GT$$GT$17h5c0b9478f9cf7d34E:
Lfunc_begin123:
	.loc	9 490 0
	.cfi_startproc
	pushq	%rbp
	.cfi_def_cfa_offset 16
	.cfi_offset %rbp, -16
	movq	%rsp, %rbp
	.cfi_def_cfa_register %rbp
	subq	$16, %rsp
	movq	%rdi, -16(%rbp)
	movq	%rdi, -8(%rbp)
Ltmp904:
	.loc	9 490 1 prologue_end
	movb	(%rdi), %al
	subb	$3, %al
	jb	LBB123_2
	jmp	LBB123_1
LBB123_1:
	.loc	9 0 1 is_stmt 0
	movq	-16(%rbp), %rdi
	.loc	9 490 1
	addq	$8, %rdi
	callq	__ZN4core3ptr68drop_in_place$LT$alloc..boxed..Box$LT$std..io..error..Custom$GT$$GT$17h076356bddb3eba6aE
LBB123_2:
	addq	$16, %rsp
	popq	%rbp
	retq
Ltmp905:
Lfunc_end123:
	.cfi_endproc

	.globl	__ZN4core3ptr107drop_in_place$LT$autocfg..dir_contains_target..$u7b$$u7b$closure$u7d$$u7d$..$u7b$$u7b$closure$u7d$$u7d$$GT$17h05950c8145468730E
	.p2align	4, 0x90
__ZN4core3ptr107drop_in_place$LT$autocfg..dir_contains_target..$u7b$$u7b$closure$u7d$$u7d$..$u7b$$u7b$closure$u7d$$u7d$$GT$17h05950c8145468730E:
Lfunc_begin124:
	.loc	9 490 0 is_stmt 1
	.cfi_startproc
	pushq	%rbp
	.cfi_def_cfa_offset 16
	.cfi_offset %rbp, -16
	movq	%rsp, %rbp
	.cfi_def_cfa_register %rbp
	subq	$16, %rsp
	movq	%rdi, -8(%rbp)
Ltmp906:
	.loc	9 490 1 prologue_end
	callq	__ZN4core3ptr75drop_in_place$LT$core..option..Option$LT$std..ffi..os_str..OsString$GT$$GT$17hcf24ffb176e8ecaeE
	addq	$16, %rsp
	popq	%rbp
	retq
Ltmp907:
Lfunc_end124:
	.cfi_endproc

	.globl	__ZN4core3ptr118drop_in_place$LT$alloc..boxed..Box$LT$dyn$u20$core..error..Error$u2b$core..marker..Send$u2b$core..marker..Sync$GT$$GT$17he0ccf5e9e02e5e32E
	.p2align	4, 0x90
__ZN4core3ptr118drop_in_place$LT$alloc..boxed..Box$LT$dyn$u20$core..error..Error$u2b$core..marker..Send$u2b$core..marker..Sync$GT$$GT$17he0ccf5e9e02e5e32E:
Lfunc_begin125:
	.loc	9 490 0
	.cfi_startproc
	.cfi_personality 155, _rust_eh_personality
	.cfi_lsda 16, Lexception25
	pushq	%rbp
	.cfi_def_cfa_offset 16
	.cfi_offset %rbp, -16
	movq	%rsp, %rbp
	.cfi_def_cfa_register %rbp
	subq	$32, %rsp
	movq	%rdi, %rax
	movq	%rax, -32(%rbp)
	movq	%rax, -24(%rbp)
Ltmp914:
	.loc	9 490 1 prologue_end
	movq	(%rax), %rdi
	movq	8(%rax), %rax
	movq	(%rax), %rax
Ltmp908:
	callq	*%rax
Ltmp909:
	jmp	LBB125_3
LBB125_1:
	.loc	9 0 1 is_stmt 0
	movq	-32(%rbp), %rax
	.loc	9 490 1
	movq	(%rax), %rdi
	movq	8(%rax), %rsi
Ltmp911:
	callq	__ZN5alloc5alloc8box_free17hba51db6561961b78E
Ltmp912:
	jmp	LBB125_5
LBB125_2:
Ltmp910:
	.loc	9 0 1
	movq	%rax, %rcx
	movl	%edx, %eax
	movq	%rcx, -16(%rbp)
	movl	%eax, -8(%rbp)
	jmp	LBB125_1
LBB125_3:
	movq	-32(%rbp), %rax
	.loc	9 490 1
	movq	(%rax), %rdi
	movq	8(%rax), %rsi
	callq	__ZN5alloc5alloc8box_free17hba51db6561961b78E
	addq	$32, %rsp
	popq	%rbp
	retq
LBB125_4:
Ltmp913:
	callq	__ZN4core9panicking19panic_cannot_unwind17h1fbca7e1d7f56ae1E
LBB125_5:
	movq	-16(%rbp), %rdi
	callq	__Unwind_Resume
Ltmp915:
Lfunc_end125:
	.cfi_endproc
	.section	__TEXT,__gcc_except_tab
	.p2align	2
GCC_except_table125:
Lexception25:
	.byte	255
	.byte	255
	.byte	1
	.uleb128 Lcst_end25-Lcst_begin25
Lcst_begin25:
	.uleb128 Ltmp908-Lfunc_begin125
	.uleb128 Ltmp909-Ltmp908
	.uleb128 Ltmp910-Lfunc_begin125
	.byte	0
	.uleb128 Ltmp911-Lfunc_begin125
	.uleb128 Ltmp912-Ltmp911
	.uleb128 Ltmp913-Lfunc_begin125
	.byte	0
	.uleb128 Ltmp912-Lfunc_begin125
	.uleb128 Lfunc_end125-Ltmp912
	.byte	0
	.byte	0
Lcst_end25:
	.p2align	2

	.section	__TEXT,__text,regular,pure_instructions
	.globl	__ZN4core3ptr152drop_in_place$LT$alloc..collections..btree..map..BTreeMap$LT$std..ffi..os_str..OsString$C$core..option..Option$LT$std..ffi..os_str..OsString$GT$$GT$$GT$17h00d70ea2242752bcE
	.p2align	4, 0x90
__ZN4core3ptr152drop_in_place$LT$alloc..collections..btree..map..BTreeMap$LT$std..ffi..os_str..OsString$C$core..option..Option$LT$std..ffi..os_str..OsString$GT$$GT$$GT$17h00d70ea2242752bcE:
Lfunc_begin126:
	.loc	9 490 0 is_stmt 1
	.cfi_startproc
	pushq	%rbp
	.cfi_def_cfa_offset 16
	.cfi_offset %rbp, -16
	movq	%rsp, %rbp
	.cfi_def_cfa_register %rbp
	subq	$16, %rsp
	movq	%rdi, -8(%rbp)
Ltmp916:
	.loc	9 490 1 prologue_end
	callq	__ZN99_$LT$alloc..collections..btree..map..BTreeMap$LT$K$C$V$C$A$GT$$u20$as$u20$core..ops..drop..Drop$GT$4drop17h4a12ea907d8362aeE
	addq	$16, %rsp
	popq	%rbp
	retq
Ltmp917:
Lfunc_end126:
	.cfi_endproc

	.globl	__ZN4core3ptr152drop_in_place$LT$alloc..collections..btree..map..IntoIter$LT$std..ffi..os_str..OsString$C$core..option..Option$LT$std..ffi..os_str..OsString$GT$$GT$$GT$17h296f00100bde7c9fE
	.p2align	4, 0x90
__ZN4core3ptr152drop_in_place$LT$alloc..collections..btree..map..IntoIter$LT$std..ffi..os_str..OsString$C$core..option..Option$LT$std..ffi..os_str..OsString$GT$$GT$$GT$17h296f00100bde7c9fE:
Lfunc_begin127:
	.loc	9 490 0
	.cfi_startproc
	pushq	%rbp
	.cfi_def_cfa_offset 16
	.cfi_offset %rbp, -16
	movq	%rsp, %rbp
	.cfi_def_cfa_register %rbp
	subq	$16, %rsp
	movq	%rdi, -8(%rbp)
Ltmp918:
	.loc	9 490 1 prologue_end
	callq	__ZN99_$LT$alloc..collections..btree..map..IntoIter$LT$K$C$V$C$A$GT$$u20$as$u20$core..ops..drop..Drop$GT$4drop17h3eedea8cae11f82bE
	addq	$16, %rsp
	popq	%rbp
	retq
Ltmp919:
Lfunc_end127:
	.cfi_endproc

	.globl	__ZN4core3ptr203drop_in_place$LT$dyn$u20$core..ops..function..FnMut$LT$$LP$$RP$$GT$$u2b$Output$u20$$u3d$$u20$core..result..Result$LT$$LP$$RP$$C$std..io..error..Error$GT$$u2b$core..marker..Send$u2b$core..marker..Sync$GT$17h4a64fccef8e7a81fE
	.p2align	4, 0x90
__ZN4core3ptr203drop_in_place$LT$dyn$u20$core..ops..function..FnMut$LT$$LP$$RP$$GT$$u2b$Output$u20$$u3d$$u20$core..result..Result$LT$$LP$$RP$$C$std..io..error..Error$GT$$u2b$core..marker..Send$u2b$core..marker..Sync$GT$17h4a64fccef8e7a81fE:
Lfunc_begin128:
	.loc	9 490 0
	.cfi_startproc
	pushq	%rbp
	.cfi_def_cfa_offset 16
	.cfi_offset %rbp, -16
	movq	%rsp, %rbp
	.cfi_def_cfa_register %rbp
	subq	$16, %rsp
	movq	%rdi, -16(%rbp)
	movq	%rsi, -8(%rbp)
Ltmp920:
	.loc	9 490 1 prologue_end
	callq	*(%rsi)
	addq	$16, %rsp
	popq	%rbp
	retq
Ltmp921:
Lfunc_end128:
	.cfi_endproc

	.globl	__ZN4core3ptr228drop_in_place$LT$alloc..boxed..Box$LT$dyn$u20$core..ops..function..FnMut$LT$$LP$$RP$$GT$$u2b$Output$u20$$u3d$$u20$core..result..Result$LT$$LP$$RP$$C$std..io..error..Error$GT$$u2b$core..marker..Send$u2b$core..marker..Sync$GT$$GT$17hf38c6ef950022ad8E
	.p2align	4, 0x90
__ZN4core3ptr228drop_in_place$LT$alloc..boxed..Box$LT$dyn$u20$core..ops..function..FnMut$LT$$LP$$RP$$GT$$u2b$Output$u20$$u3d$$u20$core..result..Result$LT$$LP$$RP$$C$std..io..error..Error$GT$$u2b$core..marker..Send$u2b$core..marker..Sync$GT$$GT$17hf38c6ef950022ad8E:
Lfunc_begin129:
	.loc	9 490 0
	.cfi_startproc
	.cfi_personality 155, _rust_eh_personality
	.cfi_lsda 16, Lexception26
	pushq	%rbp
	.cfi_def_cfa_offset 16
	.cfi_offset %rbp, -16
	movq	%rsp, %rbp
	.cfi_def_cfa_register %rbp
	subq	$32, %rsp
	movq	%rdi, %rax
	movq	%rax, -32(%rbp)
	movq	%rax, -24(%rbp)
Ltmp928:
	.loc	9 490 1 prologue_end
	movq	(%rax), %rdi
	movq	8(%rax), %rax
	movq	(%rax), %rax
Ltmp922:
	callq	*%rax
Ltmp923:
	jmp	LBB129_3
LBB129_1:
	.loc	9 0 1 is_stmt 0
	movq	-32(%rbp), %rax
	.loc	9 490 1
	movq	(%rax), %rdi
	movq	8(%rax), %rsi
Ltmp925:
	callq	__ZN5alloc5alloc8box_free17hd87c27d233319dc6E
Ltmp926:
	jmp	LBB129_5
LBB129_2:
Ltmp924:
	.loc	9 0 1
	movq	%rax, %rcx
	movl	%edx, %eax
	movq	%rcx, -16(%rbp)
	movl	%eax, -8(%rbp)
	jmp	LBB129_1
LBB129_3:
	movq	-32(%rbp), %rax
	.loc	9 490 1
	movq	(%rax), %rdi
	movq	8(%rax), %rsi
	callq	__ZN5alloc5alloc8box_free17hd87c27d233319dc6E
	addq	$32, %rsp
	popq	%rbp
	retq
LBB129_4:
Ltmp927:
	callq	__ZN4core9panicking19panic_cannot_unwind17h1fbca7e1d7f56ae1E
LBB129_5:
	movq	-16(%rbp), %rdi
	callq	__Unwind_Resume
Ltmp929:
Lfunc_end129:
	.cfi_endproc
	.section	__TEXT,__gcc_except_tab
	.p2align	2
GCC_except_table129:
Lexception26:
	.byte	255
	.byte	255
	.byte	1
	.uleb128 Lcst_end26-Lcst_begin26
Lcst_begin26:
	.uleb128 Ltmp922-Lfunc_begin129
	.uleb128 Ltmp923-Ltmp922
	.uleb128 Ltmp924-Lfunc_begin129
	.byte	0
	.uleb128 Ltmp925-Lfunc_begin129
	.uleb128 Ltmp926-Ltmp925
	.uleb128 Ltmp927-Lfunc_begin129
	.byte	0
	.uleb128 Ltmp926-Lfunc_begin129
	.uleb128 Lfunc_end129-Ltmp926
	.byte	0
	.byte	0
Lcst_end26:
	.p2align	2

	.section	__TEXT,__text,regular,pure_instructions
	.globl	__ZN4core3ptr238drop_in_place$LT$$u5b$alloc..boxed..Box$LT$dyn$u20$core..ops..function..FnMut$LT$$LP$$RP$$GT$$u2b$Output$u20$$u3d$$u20$core..result..Result$LT$$LP$$RP$$C$std..io..error..Error$GT$$u2b$core..marker..Send$u2b$core..marker..Sync$GT$$u5d$$GT$17h63a0d1507c400420E
	.p2align	4, 0x90
__ZN4core3ptr238drop_in_place$LT$$u5b$alloc..boxed..Box$LT$dyn$u20$core..ops..function..FnMut$LT$$LP$$RP$$GT$$u2b$Output$u20$$u3d$$u20$core..result..Result$LT$$LP$$RP$$C$std..io..error..Error$GT$$u2b$core..marker..Send$u2b$core..marker..Sync$GT$$u5d$$GT$17h63a0d1507c400420E:
Lfunc_begin130:
	.loc	9 490 0 is_stmt 1
	.cfi_startproc
	.cfi_personality 155, _rust_eh_personality
	.cfi_lsda 16, Lexception27
	pushq	%rbp
	.cfi_def_cfa_offset 16
	.cfi_offset %rbp, -16
	movq	%rsp, %rbp
	.cfi_def_cfa_register %rbp
	subq	$80, %rsp
	movq	%rdi, -64(%rbp)
	movq	%rsi, -56(%rbp)
	movq	%rdi, -32(%rbp)
	movq	%rsi, -24(%rbp)
Ltmp941:
	.loc	9 490 1 prologue_end
	xorl	%eax, %eax
	testb	$1, %al
	jne	LBB130_1
	jmp	LBB130_2
LBB130_1:
	movq	$0, -48(%rbp)
	jmp	LBB130_11
LBB130_2:
	.loc	9 0 1 is_stmt 0
	movq	-56(%rbp), %rax
	movq	-64(%rbp), %rcx
	.loc	9 490 1
	movq	%rcx, -40(%rbp)
	shlq	$4, %rax
	addq	-40(%rbp), %rax
	movq	%rax, -72(%rbp)
LBB130_3:
	.loc	9 0 1
	movq	-72(%rbp), %rax
	.loc	9 490 1
	cmpq	%rax, -40(%rbp)
	je	LBB130_5
	movq	-40(%rbp), %rdi
	movq	%rdi, %rax
	addq	$16, %rax
	movq	%rax, -40(%rbp)
Ltmp930:
	callq	__ZN4core3ptr228drop_in_place$LT$alloc..boxed..Box$LT$dyn$u20$core..ops..function..FnMut$LT$$LP$$RP$$GT$$u2b$Output$u20$$u3d$$u20$core..result..Result$LT$$LP$$RP$$C$std..io..error..Error$GT$$u2b$core..marker..Send$u2b$core..marker..Sync$GT$$GT$17hf38c6ef950022ad8E
Ltmp931:
	jmp	LBB130_3
LBB130_5:
	addq	$80, %rsp
	popq	%rbp
	retq
LBB130_6:
	.loc	9 0 1
	movq	-72(%rbp), %rax
	.loc	9 490 1
	cmpq	%rax, -40(%rbp)
	je	LBB130_9
	jmp	LBB130_8
LBB130_7:
Ltmp932:
	.loc	9 0 1
	movq	%rax, %rcx
	movl	%edx, %eax
	movq	%rcx, -16(%rbp)
	movl	%eax, -8(%rbp)
	jmp	LBB130_6
LBB130_8:
	.loc	9 490 1
	movq	-40(%rbp), %rdi
	movq	%rdi, %rax
	addq	$16, %rax
	movq	%rax, -40(%rbp)
Ltmp933:
	callq	__ZN4core3ptr228drop_in_place$LT$alloc..boxed..Box$LT$dyn$u20$core..ops..function..FnMut$LT$$LP$$RP$$GT$$u2b$Output$u20$$u3d$$u20$core..result..Result$LT$$LP$$RP$$C$std..io..error..Error$GT$$u2b$core..marker..Send$u2b$core..marker..Sync$GT$$GT$17hf38c6ef950022ad8E
Ltmp934:
	jmp	LBB130_6
LBB130_9:
	movq	-16(%rbp), %rdi
	callq	__Unwind_Resume
LBB130_10:
Ltmp940:
	callq	__ZN4core9panicking19panic_cannot_unwind17h1fbca7e1d7f56ae1E
LBB130_11:
	.loc	9 0 1
	movq	-56(%rbp), %rax
	.loc	9 490 1
	cmpq	%rax, -48(%rbp)
	je	LBB130_5
	.loc	9 0 1
	movq	-64(%rbp), %rdi
	.loc	9 490 1
	movq	-48(%rbp), %rax
	movq	%rax, %rcx
	shlq	$4, %rcx
	addq	%rcx, %rdi
	incq	%rax
	movq	%rax, -48(%rbp)
Ltmp935:
	callq	__ZN4core3ptr228drop_in_place$LT$alloc..boxed..Box$LT$dyn$u20$core..ops..function..FnMut$LT$$LP$$RP$$GT$$u2b$Output$u20$$u3d$$u20$core..result..Result$LT$$LP$$RP$$C$std..io..error..Error$GT$$u2b$core..marker..Send$u2b$core..marker..Sync$GT$$GT$17hf38c6ef950022ad8E
Ltmp936:
	jmp	LBB130_11
LBB130_13:
	.loc	9 0 1
	movq	-56(%rbp), %rax
	.loc	9 490 1
	cmpq	%rax, -48(%rbp)
	je	LBB130_9
	jmp	LBB130_15
LBB130_14:
Ltmp937:
	.loc	9 0 1
	movq	%rax, %rcx
	movl	%edx, %eax
	movq	%rcx, -16(%rbp)
	movl	%eax, -8(%rbp)
	jmp	LBB130_13
LBB130_15:
	movq	-64(%rbp), %rdi
	.loc	9 490 1
	movq	-48(%rbp), %rax
	movq	%rax, %rcx
	shlq	$4, %rcx
	addq	%rcx, %rdi
	incq	%rax
	movq	%rax, -48(%rbp)
Ltmp938:
	callq	__ZN4core3ptr228drop_in_place$LT$alloc..boxed..Box$LT$dyn$u20$core..ops..function..FnMut$LT$$LP$$RP$$GT$$u2b$Output$u20$$u3d$$u20$core..result..Result$LT$$LP$$RP$$C$std..io..error..Error$GT$$u2b$core..marker..Send$u2b$core..marker..Sync$GT$$GT$17hf38c6ef950022ad8E
Ltmp939:
	jmp	LBB130_13
Ltmp942:
Lfunc_end130:
	.cfi_endproc
	.section	__TEXT,__gcc_except_tab
	.p2align	2
GCC_except_table130:
Lexception27:
	.byte	255
	.byte	255
	.byte	1
	.uleb128 Lcst_end27-Lcst_begin27
Lcst_begin27:
	.uleb128 Ltmp930-Lfunc_begin130
	.uleb128 Ltmp931-Ltmp930
	.uleb128 Ltmp932-Lfunc_begin130
	.byte	0
	.uleb128 Ltmp933-Lfunc_begin130
	.uleb128 Ltmp934-Ltmp933
	.uleb128 Ltmp940-Lfunc_begin130
	.byte	0
	.uleb128 Ltmp934-Lfunc_begin130
	.uleb128 Ltmp935-Ltmp934
	.byte	0
	.byte	0
	.uleb128 Ltmp935-Lfunc_begin130
	.uleb128 Ltmp936-Ltmp935
	.uleb128 Ltmp937-Lfunc_begin130
	.byte	0
	.uleb128 Ltmp938-Lfunc_begin130
	.uleb128 Ltmp939-Ltmp938
	.uleb128 Ltmp940-Lfunc_begin130
	.byte	0
Lcst_end27:
	.p2align	2

	.section	__TEXT,__text,regular,pure_instructions
	.globl	__ZN4core3ptr250drop_in_place$LT$$LT$alloc..collections..btree..map..IntoIter$LT$K$C$V$C$A$GT$$u20$as$u20$core..ops..drop..Drop$GT$..drop..DropGuard$LT$std..ffi..os_str..OsString$C$core..option..Option$LT$std..ffi..os_str..OsString$GT$$C$alloc..alloc..Global$GT$$GT$17h089d6c92d2895ab9E
	.p2align	4, 0x90
__ZN4core3ptr250drop_in_place$LT$$LT$alloc..collections..btree..map..IntoIter$LT$K$C$V$C$A$GT$$u20$as$u20$core..ops..drop..Drop$GT$..drop..DropGuard$LT$std..ffi..os_str..OsString$C$core..option..Option$LT$std..ffi..os_str..OsString$GT$$C$alloc..alloc..Global$GT$$GT$17h089d6c92d2895ab9E:
Lfunc_begin131:
	.loc	9 490 0 is_stmt 1
	.cfi_startproc
	pushq	%rbp
	.cfi_def_cfa_offset 16
	.cfi_offset %rbp, -16
	movq	%rsp, %rbp
	.cfi_def_cfa_register %rbp
	subq	$16, %rsp
	movq	%rdi, -8(%rbp)
Ltmp943:
	.loc	9 490 1 prologue_end
	callq	__ZN174_$LT$$LT$alloc..collections..btree..map..IntoIter$LT$K$C$V$C$A$GT$$u20$as$u20$core..ops..drop..Drop$GT$..drop..DropGuard$LT$K$C$V$C$A$GT$$u20$as$u20$core..ops..drop..Drop$GT$4drop17h7fb0ddbf106a95afE
	addq	$16, %rsp
	popq	%rbp
	retq
Ltmp944:
Lfunc_end131:
	.cfi_endproc

	.globl	__ZN4core3ptr251drop_in_place$LT$alloc..vec..Vec$LT$alloc..boxed..Box$LT$dyn$u20$core..ops..function..FnMut$LT$$LP$$RP$$GT$$u2b$Output$u20$$u3d$$u20$core..result..Result$LT$$LP$$RP$$C$std..io..error..Error$GT$$u2b$core..marker..Send$u2b$core..marker..Sync$GT$$GT$$GT$17hb77b6418bafb8fc1E
	.p2align	4, 0x90
__ZN4core3ptr251drop_in_place$LT$alloc..vec..Vec$LT$alloc..boxed..Box$LT$dyn$u20$core..ops..function..FnMut$LT$$LP$$RP$$GT$$u2b$Output$u20$$u3d$$u20$core..result..Result$LT$$LP$$RP$$C$std..io..error..Error$GT$$u2b$core..marker..Send$u2b$core..marker..Sync$GT$$GT$$GT$17hb77b6418bafb8fc1E:
Lfunc_begin132:
	.loc	9 490 0
	.cfi_startproc
	.cfi_personality 155, _rust_eh_personality
	.cfi_lsda 16, Lexception28
	pushq	%rbp
	.cfi_def_cfa_offset 16
	.cfi_offset %rbp, -16
	movq	%rsp, %rbp
	.cfi_def_cfa_register %rbp
	subq	$32, %rsp
	movq	%rdi, -32(%rbp)
	movq	%rdi, -24(%rbp)
Ltmp945:
Ltmp951:
	.loc	9 490 1 prologue_end
	callq	__ZN70_$LT$alloc..vec..Vec$LT$T$C$A$GT$$u20$as$u20$core..ops..drop..Drop$GT$4drop17h6b7722eff48ad05bE
Ltmp946:
	jmp	LBB132_3
LBB132_1:
Ltmp948:
	.loc	9 0 1 is_stmt 0
	movq	-32(%rbp), %rdi
	.loc	9 490 1
	callq	__ZN4core3ptr258drop_in_place$LT$alloc..raw_vec..RawVec$LT$alloc..boxed..Box$LT$dyn$u20$core..ops..function..FnMut$LT$$LP$$RP$$GT$$u2b$Output$u20$$u3d$$u20$core..result..Result$LT$$LP$$RP$$C$std..io..error..Error$GT$$u2b$core..marker..Send$u2b$core..marker..Sync$GT$$GT$$GT$17h2e238716826ae8e1E
Ltmp949:
	jmp	LBB132_5
LBB132_2:
Ltmp947:
	.loc	9 0 1
	movq	%rax, %rcx
	movl	%edx, %eax
	movq	%rcx, -16(%rbp)
	movl	%eax, -8(%rbp)
	jmp	LBB132_1
LBB132_3:
	movq	-32(%rbp), %rdi
	.loc	9 490 1
	callq	__ZN4core3ptr258drop_in_place$LT$alloc..raw_vec..RawVec$LT$alloc..boxed..Box$LT$dyn$u20$core..ops..function..FnMut$LT$$LP$$RP$$GT$$u2b$Output$u20$$u3d$$u20$core..result..Result$LT$$LP$$RP$$C$std..io..error..Error$GT$$u2b$core..marker..Send$u2b$core..marker..Sync$GT$$GT$$GT$17h2e238716826ae8e1E
	addq	$32, %rsp
	popq	%rbp
	retq
LBB132_4:
Ltmp950:
	callq	__ZN4core9panicking19panic_cannot_unwind17h1fbca7e1d7f56ae1E
LBB132_5:
	movq	-16(%rbp), %rdi
	callq	__Unwind_Resume
Ltmp952:
Lfunc_end132:
	.cfi_endproc
	.section	__TEXT,__gcc_except_tab
	.p2align	2
GCC_except_table132:
Lexception28:
	.byte	255
	.byte	255
	.byte	1
	.uleb128 Lcst_end28-Lcst_begin28
Lcst_begin28:
	.uleb128 Ltmp945-Lfunc_begin132
	.uleb128 Ltmp946-Ltmp945
	.uleb128 Ltmp947-Lfunc_begin132
	.byte	0
	.uleb128 Ltmp948-Lfunc_begin132
	.uleb128 Ltmp949-Ltmp948
	.uleb128 Ltmp950-Lfunc_begin132
	.byte	0
	.uleb128 Ltmp949-Lfunc_begin132
	.uleb128 Lfunc_end132-Ltmp949
	.byte	0
	.byte	0
Lcst_end28:
	.p2align	2

	.section	__TEXT,__text,regular,pure_instructions
	.globl	__ZN4core3ptr258drop_in_place$LT$alloc..raw_vec..RawVec$LT$alloc..boxed..Box$LT$dyn$u20$core..ops..function..FnMut$LT$$LP$$RP$$GT$$u2b$Output$u20$$u3d$$u20$core..result..Result$LT$$LP$$RP$$C$std..io..error..Error$GT$$u2b$core..marker..Send$u2b$core..marker..Sync$GT$$GT$$GT$17h2e238716826ae8e1E
	.p2align	4, 0x90
__ZN4core3ptr258drop_in_place$LT$alloc..raw_vec..RawVec$LT$alloc..boxed..Box$LT$dyn$u20$core..ops..function..FnMut$LT$$LP$$RP$$GT$$u2b$Output$u20$$u3d$$u20$core..result..Result$LT$$LP$$RP$$C$std..io..error..Error$GT$$u2b$core..marker..Send$u2b$core..marker..Sync$GT$$GT$$GT$17h2e238716826ae8e1E:
Lfunc_begin133:
	.loc	9 490 0 is_stmt 1
	.cfi_startproc
	pushq	%rbp
	.cfi_def_cfa_offset 16
	.cfi_offset %rbp, -16
	movq	%rsp, %rbp
	.cfi_def_cfa_register %rbp
	subq	$16, %rsp
	movq	%rdi, -8(%rbp)
Ltmp953:
	.loc	9 490 1 prologue_end
	callq	__ZN77_$LT$alloc..raw_vec..RawVec$LT$T$C$A$GT$$u20$as$u20$core..ops..drop..Drop$GT$4drop17h8db846d11ea6cb38E
	addq	$16, %rsp
	popq	%rbp
	retq
Ltmp954:
Lfunc_end133:
	.cfi_endproc

	.p2align	4, 0x90
__ZN4core3ptr29drop_in_place$LT$$RF$bool$GT$17hcecdac26f106ba61E:
Lfunc_begin134:
	.loc	9 490 0
	.cfi_startproc
	pushq	%rbp
	.cfi_def_cfa_offset 16
	.cfi_offset %rbp, -16
	movq	%rsp, %rbp
	.cfi_def_cfa_register %rbp
	pushq	%rax
	movq	%rdi, -8(%rbp)
Ltmp955:
	.loc	9 490 1 prologue_end
	addq	$8, %rsp
	popq	%rbp
	retq
Ltmp956:
Lfunc_end134:
	.cfi_endproc

	.p2align	4, 0x90
__ZN4core3ptr30drop_in_place$LT$$RF$usize$GT$17hc058d217661a5145E:
Lfunc_begin135:
	.loc	9 490 0
	.cfi_startproc
	pushq	%rbp
	.cfi_def_cfa_offset 16
	.cfi_offset %rbp, -16
	movq	%rsp, %rbp
	.cfi_def_cfa_register %rbp
	pushq	%rax
	movq	%rdi, -8(%rbp)
Ltmp957:
	.loc	9 490 1 prologue_end
	addq	$8, %rsp
	popq	%rbp
	retq
Ltmp958:
Lfunc_end135:
	.cfi_endproc

	.p2align	4, 0x90
__ZN4core3ptr32drop_in_place$LT$$RF$$RF$str$GT$17hf86553e4933ebd01E:
Lfunc_begin136:
	.loc	9 490 0
	.cfi_startproc
	pushq	%rbp
	.cfi_def_cfa_offset 16
	.cfi_offset %rbp, -16
	movq	%rsp, %rbp
	.cfi_def_cfa_register %rbp
	pushq	%rax
	movq	%rdi, -8(%rbp)
Ltmp959:
	.loc	9 490 1 prologue_end
	addq	$8, %rsp
	popq	%rbp
	retq
Ltmp960:
Lfunc_end136:
	.cfi_endproc

	.globl	__ZN4core3ptr37drop_in_place$LT$autocfg..AutoCfg$GT$17h4840d40d68673402E
	.p2align	4, 0x90
__ZN4core3ptr37drop_in_place$LT$autocfg..AutoCfg$GT$17h4840d40d68673402E:
Lfunc_begin137:
	.loc	9 490 0
	.cfi_startproc
	.cfi_personality 155, _rust_eh_personality
	.cfi_lsda 16, Lexception29
	pushq	%rbp
	.cfi_def_cfa_offset 16
	.cfi_offset %rbp, -16
	movq	%rsp, %rbp
	.cfi_def_cfa_register %rbp
	subq	$32, %rsp
	movq	%rdi, -32(%rbp)
	movq	%rdi, -24(%rbp)
Ltmp977:
	.loc	9 490 1 prologue_end
	addq	$48, %rdi
Ltmp961:
	callq	__ZN4core3ptr39drop_in_place$LT$std..path..PathBuf$GT$17h7509febe977ce1cbE
Ltmp962:
	jmp	LBB137_3
LBB137_1:
	.loc	9 0 1 is_stmt 0
	movq	-32(%rbp), %rdi
	.loc	9 490 1
	addq	$72, %rdi
Ltmp964:
	callq	__ZN4core3ptr39drop_in_place$LT$std..path..PathBuf$GT$17h7509febe977ce1cbE
Ltmp965:
	jmp	LBB137_5
LBB137_2:
Ltmp963:
	.loc	9 0 1
	movq	%rax, %rcx
	movl	%edx, %eax
	movq	%rcx, -16(%rbp)
	movl	%eax, -8(%rbp)
	jmp	LBB137_1
LBB137_3:
	movq	-32(%rbp), %rdi
	.loc	9 490 1
	addq	$72, %rdi
Ltmp966:
	callq	__ZN4core3ptr39drop_in_place$LT$std..path..PathBuf$GT$17h7509febe977ce1cbE
Ltmp967:
	jmp	LBB137_7
LBB137_4:
Ltmp976:
	callq	__ZN4core9panicking19panic_cannot_unwind17h1fbca7e1d7f56ae1E
LBB137_5:
	.loc	9 0 1
	movq	-32(%rbp), %rdi
	.loc	9 490 1
	addq	$24, %rdi
Ltmp969:
	callq	__ZN4core3ptr75drop_in_place$LT$core..option..Option$LT$std..ffi..os_str..OsString$GT$$GT$17hcf24ffb176e8ecaeE
Ltmp970:
	jmp	LBB137_8
LBB137_6:
Ltmp968:
	.loc	9 0 1
	movq	%rax, %rcx
	movl	%edx, %eax
	movq	%rcx, -16(%rbp)
	movl	%eax, -8(%rbp)
	jmp	LBB137_5
LBB137_7:
	movq	-32(%rbp), %rdi
	.loc	9 490 1
	addq	$24, %rdi
Ltmp971:
	callq	__ZN4core3ptr75drop_in_place$LT$core..option..Option$LT$std..ffi..os_str..OsString$GT$$GT$17hcf24ffb176e8ecaeE
Ltmp972:
	jmp	LBB137_10
LBB137_8:
	.loc	9 0 1
	movq	-32(%rbp), %rdi
	.loc	9 490 1
	addq	$96, %rdi
Ltmp974:
	callq	__ZN4core3ptr65drop_in_place$LT$alloc..vec..Vec$LT$alloc..string..String$GT$$GT$17ha4c53d31de33447cE
Ltmp975:
	jmp	LBB137_11
LBB137_9:
Ltmp973:
	.loc	9 0 1
	movq	%rax, %rcx
	movl	%edx, %eax
	movq	%rcx, -16(%rbp)
	movl	%eax, -8(%rbp)
	jmp	LBB137_8
LBB137_10:
	movq	-32(%rbp), %rdi
	.loc	9 490 1
	addq	$96, %rdi
	callq	__ZN4core3ptr65drop_in_place$LT$alloc..vec..Vec$LT$alloc..string..String$GT$$GT$17ha4c53d31de33447cE
	addq	$32, %rsp
	popq	%rbp
	retq
LBB137_11:
	movq	-16(%rbp), %rdi
	callq	__Unwind_Resume
Ltmp978:
Lfunc_end137:
	.cfi_endproc
	.section	__TEXT,__gcc_except_tab
	.p2align	2
GCC_except_table137:
Lexception29:
	.byte	255
	.byte	255
	.byte	1
	.uleb128 Lcst_end29-Lcst_begin29
Lcst_begin29:
	.uleb128 Ltmp961-Lfunc_begin137
	.uleb128 Ltmp962-Ltmp961
	.uleb128 Ltmp963-Lfunc_begin137
	.byte	0
	.uleb128 Ltmp964-Lfunc_begin137
	.uleb128 Ltmp965-Ltmp964
	.uleb128 Ltmp976-Lfunc_begin137
	.byte	0
	.uleb128 Ltmp966-Lfunc_begin137
	.uleb128 Ltmp967-Ltmp966
	.uleb128 Ltmp968-Lfunc_begin137
	.byte	0
	.uleb128 Ltmp969-Lfunc_begin137
	.uleb128 Ltmp970-Ltmp969
	.uleb128 Ltmp976-Lfunc_begin137
	.byte	0
	.uleb128 Ltmp971-Lfunc_begin137
	.uleb128 Ltmp972-Ltmp971
	.uleb128 Ltmp973-Lfunc_begin137
	.byte	0
	.uleb128 Ltmp974-Lfunc_begin137
	.uleb128 Ltmp975-Ltmp974
	.uleb128 Ltmp976-Lfunc_begin137
	.byte	0
	.uleb128 Ltmp975-Lfunc_begin137
	.uleb128 Lfunc_end137-Ltmp975
	.byte	0
	.byte	0
Lcst_end29:
	.p2align	2

	.section	__TEXT,__text,regular,pure_instructions
	.globl	__ZN4core3ptr39drop_in_place$LT$std..env..VarError$GT$17h893f1f65fa36a0f7E
	.p2align	4, 0x90
__ZN4core3ptr39drop_in_place$LT$std..env..VarError$GT$17h893f1f65fa36a0f7E:
Lfunc_begin138:
	.loc	9 490 0 is_stmt 1
	.cfi_startproc
	pushq	%rbp
	.cfi_def_cfa_offset 16
	.cfi_offset %rbp, -16
	movq	%rsp, %rbp
	.cfi_def_cfa_register %rbp
	subq	$16, %rsp
	movq	%rdi, -16(%rbp)
	movq	%rdi, -8(%rbp)
Ltmp979:
	.loc	9 490 1 prologue_end
	movq	8(%rdi), %rdx
	movl	$1, %eax
	xorl	%ecx, %ecx
	cmpq	$0, %rdx
	cmoveq	%rcx, %rax
	cmpq	$0, %rax
	jne	LBB138_2
LBB138_1:
	addq	$16, %rsp
	popq	%rbp
	retq
LBB138_2:
	.loc	9 0 1 is_stmt 0
	movq	-16(%rbp), %rdi
	.loc	9 490 1
	callq	__ZN4core3ptr47drop_in_place$LT$std..ffi..os_str..OsString$GT$17h15f830cd522ea1c4E
	jmp	LBB138_1
Ltmp980:
Lfunc_end138:
	.cfi_endproc

	.globl	__ZN4core3ptr39drop_in_place$LT$std..path..PathBuf$GT$17h7509febe977ce1cbE
	.p2align	4, 0x90
__ZN4core3ptr39drop_in_place$LT$std..path..PathBuf$GT$17h7509febe977ce1cbE:
Lfunc_begin139:
	.loc	9 490 0 is_stmt 1
	.cfi_startproc
	pushq	%rbp
	.cfi_def_cfa_offset 16
	.cfi_offset %rbp, -16
	movq	%rsp, %rbp
	.cfi_def_cfa_register %rbp
	subq	$16, %rsp
	movq	%rdi, -8(%rbp)
Ltmp981:
	.loc	9 490 1 prologue_end
	callq	__ZN4core3ptr47drop_in_place$LT$std..ffi..os_str..OsString$GT$17h15f830cd522ea1c4E
	addq	$16, %rsp
	popq	%rbp
	retq
Ltmp982:
Lfunc_end139:
	.cfi_endproc

	.globl	__ZN4core3ptr40drop_in_place$LT$std..process..Child$GT$17h25741366355b614cE
	.p2align	4, 0x90
__ZN4core3ptr40drop_in_place$LT$std..process..Child$GT$17h25741366355b614cE:
Lfunc_begin140:
	.loc	9 490 0
	.cfi_startproc
	.cfi_personality 155, _rust_eh_personality
	.cfi_lsda 16, Lexception30
	pushq	%rbp
	.cfi_def_cfa_offset 16
	.cfi_offset %rbp, -16
	movq	%rsp, %rbp
	.cfi_def_cfa_register %rbp
	subq	$32, %rsp
	movq	%rdi, -32(%rbp)
	movq	%rdi, -24(%rbp)
Ltmp983:
Ltmp994:
	.loc	9 490 1 prologue_end
	callq	__ZN4core3ptr73drop_in_place$LT$core..option..Option$LT$std..process..ChildStdin$GT$$GT$17h795044d11a72c16cE
Ltmp984:
	jmp	LBB140_3
LBB140_1:
	.loc	9 0 1 is_stmt 0
	movq	-32(%rbp), %rdi
	.loc	9 490 1
	addq	$4, %rdi
Ltmp986:
	callq	__ZN4core3ptr74drop_in_place$LT$core..option..Option$LT$std..process..ChildStdout$GT$$GT$17hb25d56211fce5c2fE
Ltmp987:
	jmp	LBB140_5
LBB140_2:
Ltmp985:
	.loc	9 0 1
	movq	%rax, %rcx
	movl	%edx, %eax
	movq	%rcx, -16(%rbp)
	movl	%eax, -8(%rbp)
	jmp	LBB140_1
LBB140_3:
	movq	-32(%rbp), %rdi
	.loc	9 490 1
	addq	$4, %rdi
Ltmp988:
	callq	__ZN4core3ptr74drop_in_place$LT$core..option..Option$LT$std..process..ChildStdout$GT$$GT$17hb25d56211fce5c2fE
Ltmp989:
	jmp	LBB140_7
LBB140_4:
Ltmp993:
	callq	__ZN4core9panicking19panic_cannot_unwind17h1fbca7e1d7f56ae1E
LBB140_5:
	.loc	9 0 1
	movq	-32(%rbp), %rdi
	.loc	9 490 1
	addq	$8, %rdi
Ltmp991:
	callq	__ZN4core3ptr74drop_in_place$LT$core..option..Option$LT$std..process..ChildStderr$GT$$GT$17h76f1082a194cffa0E
Ltmp992:
	jmp	LBB140_8
LBB140_6:
Ltmp990:
	.loc	9 0 1
	movq	%rax, %rcx
	movl	%edx, %eax
	movq	%rcx, -16(%rbp)
	movl	%eax, -8(%rbp)
	jmp	LBB140_5
LBB140_7:
	movq	-32(%rbp), %rdi
	.loc	9 490 1
	addq	$8, %rdi
	callq	__ZN4core3ptr74drop_in_place$LT$core..option..Option$LT$std..process..ChildStderr$GT$$GT$17h76f1082a194cffa0E
	addq	$32, %rsp
	popq	%rbp
	retq
LBB140_8:
	movq	-16(%rbp), %rdi
	callq	__Unwind_Resume
Ltmp995:
Lfunc_end140:
	.cfi_endproc
	.section	__TEXT,__gcc_except_tab
	.p2align	2
GCC_except_table140:
Lexception30:
	.byte	255
	.byte	255
	.byte	1
	.uleb128 Lcst_end30-Lcst_begin30
Lcst_begin30:
	.uleb128 Ltmp983-Lfunc_begin140
	.uleb128 Ltmp984-Ltmp983
	.uleb128 Ltmp985-Lfunc_begin140
	.byte	0
	.uleb128 Ltmp986-Lfunc_begin140
	.uleb128 Ltmp987-Ltmp986
	.uleb128 Ltmp993-Lfunc_begin140
	.byte	0
	.uleb128 Ltmp988-Lfunc_begin140
	.uleb128 Ltmp989-Ltmp988
	.uleb128 Ltmp990-Lfunc_begin140
	.byte	0
	.uleb128 Ltmp991-Lfunc_begin140
	.uleb128 Ltmp992-Ltmp991
	.uleb128 Ltmp993-Lfunc_begin140
	.byte	0
	.uleb128 Ltmp992-Lfunc_begin140
	.uleb128 Lfunc_end140-Ltmp992
	.byte	0
	.byte	0
Lcst_end30:
	.p2align	2

	.section	__TEXT,__text,regular,pure_instructions
	.globl	__ZN4core3ptr41drop_in_place$LT$std..process..Output$GT$17he0023a271f8c8d20E
	.p2align	4, 0x90
__ZN4core3ptr41drop_in_place$LT$std..process..Output$GT$17he0023a271f8c8d20E:
Lfunc_begin141:
	.loc	9 490 0 is_stmt 1
	.cfi_startproc
	.cfi_personality 155, _rust_eh_personality
	.cfi_lsda 16, Lexception31
	pushq	%rbp
	.cfi_def_cfa_offset 16
	.cfi_offset %rbp, -16
	movq	%rsp, %rbp
	.cfi_def_cfa_register %rbp
	subq	$32, %rsp
	movq	%rdi, -32(%rbp)
	movq	%rdi, -24(%rbp)
Ltmp996:
Ltmp1002:
	.loc	9 490 1 prologue_end
	callq	__ZN4core3ptr46drop_in_place$LT$alloc..vec..Vec$LT$u8$GT$$GT$17h4f2044b0d8758f9cE
Ltmp997:
	jmp	LBB141_3
LBB141_1:
	.loc	9 0 1 is_stmt 0
	movq	-32(%rbp), %rdi
	.loc	9 490 1
	addq	$24, %rdi
Ltmp999:
	callq	__ZN4core3ptr46drop_in_place$LT$alloc..vec..Vec$LT$u8$GT$$GT$17h4f2044b0d8758f9cE
Ltmp1000:
	jmp	LBB141_5
LBB141_2:
Ltmp998:
	.loc	9 0 1
	movq	%rax, %rcx
	movl	%edx, %eax
	movq	%rcx, -16(%rbp)
	movl	%eax, -8(%rbp)
	jmp	LBB141_1
LBB141_3:
	movq	-32(%rbp), %rdi
	.loc	9 490 1
	addq	$24, %rdi
	callq	__ZN4core3ptr46drop_in_place$LT$alloc..vec..Vec$LT$u8$GT$$GT$17h4f2044b0d8758f9cE
	addq	$32, %rsp
	popq	%rbp
	retq
LBB141_4:
Ltmp1001:
	callq	__ZN4core9panicking19panic_cannot_unwind17h1fbca7e1d7f56ae1E
LBB141_5:
	movq	-16(%rbp), %rdi
	callq	__Unwind_Resume
Ltmp1003:
Lfunc_end141:
	.cfi_endproc
	.section	__TEXT,__gcc_except_tab
	.p2align	2
GCC_except_table141:
Lexception31:
	.byte	255
	.byte	255
	.byte	1
	.uleb128 Lcst_end31-Lcst_begin31
Lcst_begin31:
	.uleb128 Ltmp996-Lfunc_begin141
	.uleb128 Ltmp997-Ltmp996
	.uleb128 Ltmp998-Lfunc_begin141
	.byte	0
	.uleb128 Ltmp999-Lfunc_begin141
	.uleb128 Ltmp1000-Ltmp999
	.uleb128 Ltmp1001-Lfunc_begin141
	.byte	0
	.uleb128 Ltmp1000-Lfunc_begin141
	.uleb128 Lfunc_end141-Ltmp1000
	.byte	0
	.byte	0
Lcst_end31:
	.p2align	2

	.section	__TEXT,__text,regular,pure_instructions
	.globl	__ZN4core3ptr42drop_in_place$LT$alloc..string..String$GT$17h3cc4b04911fd7e35E
	.p2align	4, 0x90
__ZN4core3ptr42drop_in_place$LT$alloc..string..String$GT$17h3cc4b04911fd7e35E:
Lfunc_begin142:
	.loc	9 490 0 is_stmt 1
	.cfi_startproc
	pushq	%rbp
	.cfi_def_cfa_offset 16
	.cfi_offset %rbp, -16
	movq	%rsp, %rbp
	.cfi_def_cfa_register %rbp
	subq	$16, %rsp
	movq	%rdi, -8(%rbp)
Ltmp1004:
	.loc	9 490 1 prologue_end
	callq	__ZN4core3ptr46drop_in_place$LT$alloc..vec..Vec$LT$u8$GT$$GT$17h4f2044b0d8758f9cE
	addq	$16, %rsp
	popq	%rbp
	retq
Ltmp1005:
Lfunc_end142:
	.cfi_endproc

	.globl	__ZN4core3ptr42drop_in_place$LT$autocfg..error..Error$GT$17h2b62f65f0836e0a6E
	.p2align	4, 0x90
__ZN4core3ptr42drop_in_place$LT$autocfg..error..Error$GT$17h2b62f65f0836e0a6E:
Lfunc_begin143:
	.loc	9 490 0
	.cfi_startproc
	pushq	%rbp
	.cfi_def_cfa_offset 16
	.cfi_offset %rbp, -16
	movq	%rsp, %rbp
	.cfi_def_cfa_register %rbp
	subq	$16, %rsp
	movq	%rdi, -8(%rbp)
Ltmp1006:
	.loc	9 490 1 prologue_end
	callq	__ZN4core3ptr46drop_in_place$LT$autocfg..error..ErrorKind$GT$17h1b472f987d92afceE
	addq	$16, %rsp
	popq	%rbp
	retq
Ltmp1007:
Lfunc_end143:
	.cfi_endproc

	.globl	__ZN4core3ptr42drop_in_place$LT$std..io..error..Error$GT$17h0936ab0439591bd9E
	.p2align	4, 0x90
__ZN4core3ptr42drop_in_place$LT$std..io..error..Error$GT$17h0936ab0439591bd9E:
Lfunc_begin144:
	.loc	9 490 0
	.cfi_startproc
	pushq	%rbp
	.cfi_def_cfa_offset 16
	.cfi_offset %rbp, -16
	movq	%rsp, %rbp
	.cfi_def_cfa_register %rbp
	subq	$16, %rsp
	movq	%rdi, -8(%rbp)
Ltmp1008:
	.loc	9 490 1 prologue_end
	callq	__ZN4core3ptr57drop_in_place$LT$std..io..error..repr_bitpacked..Repr$GT$17hd828b9d63fdaa37aE
	addq	$16, %rsp
	popq	%rbp
	retq
Ltmp1009:
Lfunc_end144:
	.cfi_endproc

	.globl	__ZN4core3ptr42drop_in_place$LT$std..process..Command$GT$17h9c68d5e778165634E
	.p2align	4, 0x90
__ZN4core3ptr42drop_in_place$LT$std..process..Command$GT$17h9c68d5e778165634E:
Lfunc_begin145:
	.loc	9 490 0
	.cfi_startproc
	pushq	%rbp
	.cfi_def_cfa_offset 16
	.cfi_offset %rbp, -16
	movq	%rsp, %rbp
	.cfi_def_cfa_register %rbp
	subq	$16, %rsp
	movq	%rdi, -8(%rbp)
Ltmp1010:
	.loc	9 490 1 prologue_end
	callq	__ZN4core3ptr69drop_in_place$LT$std..sys..unix..process..process_common..Command$GT$17hfc03d906eb877fffE
	addq	$16, %rsp
	popq	%rbp
	retq
Ltmp1011:
Lfunc_end145:
	.cfi_endproc

	.p2align	4, 0x90
__ZN4core3ptr43drop_in_place$LT$$RF$std..path..PathBuf$GT$17h32258c0827b6e346E:
Lfunc_begin146:
	.loc	9 490 0
	.cfi_startproc
	pushq	%rbp
	.cfi_def_cfa_offset 16
	.cfi_offset %rbp, -16
	movq	%rsp, %rbp
	.cfi_def_cfa_register %rbp
	pushq	%rax
	movq	%rdi, -8(%rbp)
Ltmp1012:
	.loc	9 490 1 prologue_end
	addq	$8, %rsp
	popq	%rbp
	retq
Ltmp1013:
Lfunc_end146:
	.cfi_endproc

	.globl	__ZN4core3ptr43drop_in_place$LT$std..io..error..Custom$GT$17hc99842291610998cE
	.p2align	4, 0x90
__ZN4core3ptr43drop_in_place$LT$std..io..error..Custom$GT$17hc99842291610998cE:
Lfunc_begin147:
	.loc	9 490 0
	.cfi_startproc
	pushq	%rbp
	.cfi_def_cfa_offset 16
	.cfi_offset %rbp, -16
	movq	%rsp, %rbp
	.cfi_def_cfa_register %rbp
	subq	$16, %rsp
	movq	%rdi, -8(%rbp)
Ltmp1014:
	.loc	9 490 1 prologue_end
	callq	__ZN4core3ptr118drop_in_place$LT$alloc..boxed..Box$LT$dyn$u20$core..error..Error$u2b$core..marker..Send$u2b$core..marker..Sync$GT$$GT$17he0ccf5e9e02e5e32E
	addq	$16, %rsp
	popq	%rbp
	retq
Ltmp1015:
Lfunc_end147:
	.cfi_endproc

	.globl	__ZN4core3ptr45drop_in_place$LT$std..process..ChildStdin$GT$17h5b472cdc69189b11E
	.p2align	4, 0x90
__ZN4core3ptr45drop_in_place$LT$std..process..ChildStdin$GT$17h5b472cdc69189b11E:
Lfunc_begin148:
	.loc	9 490 0
	.cfi_startproc
	pushq	%rbp
	.cfi_def_cfa_offset 16
	.cfi_offset %rbp, -16
	movq	%rsp, %rbp
	.cfi_def_cfa_register %rbp
	subq	$16, %rsp
	movq	%rdi, -8(%rbp)
Ltmp1016:
	.loc	9 490 1 prologue_end
	callq	__ZN4core3ptr51drop_in_place$LT$std..sys..unix..pipe..AnonPipe$GT$17hec247c18e3ff8962E
	addq	$16, %rsp
	popq	%rbp
	retq
Ltmp1017:
Lfunc_end148:
	.cfi_endproc

	.p2align	4, 0x90
__ZN4core3ptr46drop_in_place$LT$$RF$alloc..string..String$GT$17h2c2ac1751d1506feE:
Lfunc_begin149:
	.loc	9 490 0
	.cfi_startproc
	pushq	%rbp
	.cfi_def_cfa_offset 16
	.cfi_offset %rbp, -16
	movq	%rsp, %rbp
	.cfi_def_cfa_register %rbp
	pushq	%rax
	movq	%rdi, -8(%rbp)
Ltmp1018:
	.loc	9 490 1 prologue_end
	addq	$8, %rsp
	popq	%rbp
	retq
Ltmp1019:
Lfunc_end149:
	.cfi_endproc

	.p2align	4, 0x90
__ZN4core3ptr46drop_in_place$LT$$RF$std..io..error..Error$GT$17h89eaa02689a76348E:
Lfunc_begin150:
	.loc	9 490 0
	.cfi_startproc
	pushq	%rbp
	.cfi_def_cfa_offset 16
	.cfi_offset %rbp, -16
	movq	%rsp, %rbp
	.cfi_def_cfa_register %rbp
	pushq	%rax
	movq	%rdi, -8(%rbp)
Ltmp1020:
	.loc	9 490 1 prologue_end
	addq	$8, %rsp
	popq	%rbp
	retq
Ltmp1021:
Lfunc_end150:
	.cfi_endproc

	.globl	__ZN4core3ptr46drop_in_place$LT$alloc..vec..Vec$LT$u8$GT$$GT$17h4f2044b0d8758f9cE
	.p2align	4, 0x90
__ZN4core3ptr46drop_in_place$LT$alloc..vec..Vec$LT$u8$GT$$GT$17h4f2044b0d8758f9cE:
Lfunc_begin151:
	.loc	9 490 0
	.cfi_startproc
	.cfi_personality 155, _rust_eh_personality
	.cfi_lsda 16, Lexception32
	pushq	%rbp
	.cfi_def_cfa_offset 16
	.cfi_offset %rbp, -16
	movq	%rsp, %rbp
	.cfi_def_cfa_register %rbp
	subq	$32, %rsp
	movq	%rdi, -32(%rbp)
	movq	%rdi, -24(%rbp)
Ltmp1022:
Ltmp1028:
	.loc	9 490 1 prologue_end
	callq	__ZN70_$LT$alloc..vec..Vec$LT$T$C$A$GT$$u20$as$u20$core..ops..drop..Drop$GT$4drop17h738444aec5c8f3d7E
Ltmp1023:
	jmp	LBB151_3
LBB151_1:
Ltmp1025:
	.loc	9 0 1 is_stmt 0
	movq	-32(%rbp), %rdi
	.loc	9 490 1
	callq	__ZN4core3ptr53drop_in_place$LT$alloc..raw_vec..RawVec$LT$u8$GT$$GT$17h8f0606feb0fc9e03E
Ltmp1026:
	jmp	LBB151_5
LBB151_2:
Ltmp1024:
	.loc	9 0 1
	movq	%rax, %rcx
	movl	%edx, %eax
	movq	%rcx, -16(%rbp)
	movl	%eax, -8(%rbp)
	jmp	LBB151_1
LBB151_3:
	movq	-32(%rbp), %rdi
	.loc	9 490 1
	callq	__ZN4core3ptr53drop_in_place$LT$alloc..raw_vec..RawVec$LT$u8$GT$$GT$17h8f0606feb0fc9e03E
	addq	$32, %rsp
	popq	%rbp
	retq
LBB151_4:
Ltmp1027:
	callq	__ZN4core9panicking19panic_cannot_unwind17h1fbca7e1d7f56ae1E
LBB151_5:
	movq	-16(%rbp), %rdi
	callq	__Unwind_Resume
Ltmp1029:
Lfunc_end151:
	.cfi_endproc
	.section	__TEXT,__gcc_except_tab
	.p2align	2
GCC_except_table151:
Lexception32:
	.byte	255
	.byte	255
	.byte	1
	.uleb128 Lcst_end32-Lcst_begin32
Lcst_begin32:
	.uleb128 Ltmp1022-Lfunc_begin151
	.uleb128 Ltmp1023-Ltmp1022
	.uleb128 Ltmp1024-Lfunc_begin151
	.byte	0
	.uleb128 Ltmp1025-Lfunc_begin151
	.uleb128 Ltmp1026-Ltmp1025
	.uleb128 Ltmp1027-Lfunc_begin151
	.byte	0
	.uleb128 Ltmp1026-Lfunc_begin151
	.uleb128 Lfunc_end151-Ltmp1026
	.byte	0
	.byte	0
Lcst_end32:
	.p2align	2

	.section	__TEXT,__text,regular,pure_instructions
	.globl	__ZN4core3ptr46drop_in_place$LT$autocfg..error..ErrorKind$GT$17h1b472f987d92afceE
	.p2align	4, 0x90
__ZN4core3ptr46drop_in_place$LT$autocfg..error..ErrorKind$GT$17h1b472f987d92afceE:
Lfunc_begin152:
	.loc	9 490 0 is_stmt 1
	.cfi_startproc
	pushq	%rbp
	.cfi_def_cfa_offset 16
	.cfi_offset %rbp, -16
	movq	%rsp, %rbp
	.cfi_def_cfa_register %rbp
	subq	$32, %rsp
	movq	%rdi, -24(%rbp)
	movq	%rdi, -8(%rbp)
Ltmp1030:
	.loc	9 490 1 prologue_end
	movzbl	(%rdi), %eax
	movq	%rax, -16(%rbp)
	testq	%rax, %rax
	je	LBB152_2
	jmp	LBB152_3
LBB152_3:
	.loc	9 0 1 is_stmt 0
	movq	-16(%rbp), %rax
	.loc	9 490 1
	decq	%rax
	subq	$1, %rax
	ja	LBB152_1
	jmp	LBB152_1
LBB152_1:
	addq	$32, %rsp
	popq	%rbp
	retq
LBB152_2:
	.loc	9 0 1
	movq	-24(%rbp), %rdi
	.loc	9 490 1
	addq	$8, %rdi
	callq	__ZN4core3ptr42drop_in_place$LT$std..io..error..Error$GT$17h0936ab0439591bd9E
	jmp	LBB152_1
Ltmp1031:
Lfunc_end152:
	.cfi_endproc

	.globl	__ZN4core3ptr46drop_in_place$LT$std..process..ChildStderr$GT$17hc89b11c1ed43ce11E
	.p2align	4, 0x90
__ZN4core3ptr46drop_in_place$LT$std..process..ChildStderr$GT$17hc89b11c1ed43ce11E:
Lfunc_begin153:
	.loc	9 490 0 is_stmt 1
	.cfi_startproc
	pushq	%rbp
	.cfi_def_cfa_offset 16
	.cfi_offset %rbp, -16
	movq	%rsp, %rbp
	.cfi_def_cfa_register %rbp
	subq	$16, %rsp
	movq	%rdi, -8(%rbp)
Ltmp1032:
	.loc	9 490 1 prologue_end
	callq	__ZN4core3ptr51drop_in_place$LT$std..sys..unix..pipe..AnonPipe$GT$17hec247c18e3ff8962E
	addq	$16, %rsp
	popq	%rbp
	retq
Ltmp1033:
Lfunc_end153:
	.cfi_endproc

	.globl	__ZN4core3ptr46drop_in_place$LT$std..process..ChildStdout$GT$17ha34da255868bedd0E
	.p2align	4, 0x90
__ZN4core3ptr46drop_in_place$LT$std..process..ChildStdout$GT$17ha34da255868bedd0E:
Lfunc_begin154:
	.loc	9 490 0
	.cfi_startproc
	pushq	%rbp
	.cfi_def_cfa_offset 16
	.cfi_offset %rbp, -16
	movq	%rsp, %rbp
	.cfi_def_cfa_register %rbp
	subq	$16, %rsp
	movq	%rdi, -8(%rbp)
Ltmp1034:
	.loc	9 490 1 prologue_end
	callq	__ZN4core3ptr51drop_in_place$LT$std..sys..unix..pipe..AnonPipe$GT$17hec247c18e3ff8962E
	addq	$16, %rsp
	popq	%rbp
	retq
Ltmp1035:
Lfunc_end154:
	.cfi_endproc

	.globl	__ZN4core3ptr47drop_in_place$LT$alloc..ffi..c_str..CString$GT$17hac85f53313a5f039E
	.p2align	4, 0x90
__ZN4core3ptr47drop_in_place$LT$alloc..ffi..c_str..CString$GT$17hac85f53313a5f039E:
Lfunc_begin155:
	.loc	9 490 0
	.cfi_startproc
	.cfi_personality 155, _rust_eh_personality
	.cfi_lsda 16, Lexception33
	pushq	%rbp
	.cfi_def_cfa_offset 16
	.cfi_offset %rbp, -16
	movq	%rsp, %rbp
	.cfi_def_cfa_register %rbp
	subq	$32, %rsp
	movq	%rdi, -32(%rbp)
	movq	%rdi, -24(%rbp)
Ltmp1036:
Ltmp1042:
	.loc	9 490 1 prologue_end
	callq	__ZN68_$LT$alloc..ffi..c_str..CString$u20$as$u20$core..ops..drop..Drop$GT$4drop17hba66168554928ba0E
Ltmp1037:
	jmp	LBB155_3
LBB155_1:
Ltmp1039:
	.loc	9 0 1 is_stmt 0
	movq	-32(%rbp), %rdi
	.loc	9 490 1
	callq	__ZN4core3ptr58drop_in_place$LT$alloc..boxed..Box$LT$$u5b$u8$u5d$$GT$$GT$17h21e3abafb021982eE
Ltmp1040:
	jmp	LBB155_5
LBB155_2:
Ltmp1038:
	.loc	9 0 1
	movq	%rax, %rcx
	movl	%edx, %eax
	movq	%rcx, -16(%rbp)
	movl	%eax, -8(%rbp)
	jmp	LBB155_1
LBB155_3:
	movq	-32(%rbp), %rdi
	.loc	9 490 1
	callq	__ZN4core3ptr58drop_in_place$LT$alloc..boxed..Box$LT$$u5b$u8$u5d$$GT$$GT$17h21e3abafb021982eE
	addq	$32, %rsp
	popq	%rbp
	retq
LBB155_4:
Ltmp1041:
	callq	__ZN4core9panicking19panic_cannot_unwind17h1fbca7e1d7f56ae1E
LBB155_5:
	movq	-16(%rbp), %rdi
	callq	__Unwind_Resume
Ltmp1043:
Lfunc_end155:
	.cfi_endproc
	.section	__TEXT,__gcc_except_tab
	.p2align	2
GCC_except_table155:
Lexception33:
	.byte	255
	.byte	255
	.byte	1
	.uleb128 Lcst_end33-Lcst_begin33
Lcst_begin33:
	.uleb128 Ltmp1036-Lfunc_begin155
	.uleb128 Ltmp1037-Ltmp1036
	.uleb128 Ltmp1038-Lfunc_begin155
	.byte	0
	.uleb128 Ltmp1039-Lfunc_begin155
	.uleb128 Ltmp1040-Ltmp1039
	.uleb128 Ltmp1041-Lfunc_begin155
	.byte	0
	.uleb128 Ltmp1040-Lfunc_begin155
	.uleb128 Lfunc_end155-Ltmp1040
	.byte	0
	.byte	0
Lcst_end33:
	.p2align	2

	.section	__TEXT,__text,regular,pure_instructions
	.globl	__ZN4core3ptr47drop_in_place$LT$std..ffi..os_str..OsString$GT$17h15f830cd522ea1c4E
	.p2align	4, 0x90
__ZN4core3ptr47drop_in_place$LT$std..ffi..os_str..OsString$GT$17h15f830cd522ea1c4E:
Lfunc_begin156:
	.loc	9 490 0 is_stmt 1
	.cfi_startproc
	pushq	%rbp
	.cfi_def_cfa_offset 16
	.cfi_offset %rbp, -16
	movq	%rsp, %rbp
	.cfi_def_cfa_register %rbp
	subq	$16, %rsp
	movq	%rdi, -8(%rbp)
Ltmp1044:
	.loc	9 490 1 prologue_end
	callq	__ZN4core3ptr48drop_in_place$LT$std..sys..unix..os_str..Buf$GT$17hab59f421b0bd2e1aE
	addq	$16, %rsp
	popq	%rbp
	retq
Ltmp1045:
Lfunc_end156:
	.cfi_endproc

	.p2align	4, 0x90
__ZN4core3ptr48drop_in_place$LT$core..str..error..Utf8Error$GT$17h4bb41dbb26a4fc0bE:
Lfunc_begin157:
	.loc	9 490 0
	.cfi_startproc
	pushq	%rbp
	.cfi_def_cfa_offset 16
	.cfi_offset %rbp, -16
	movq	%rsp, %rbp
	.cfi_def_cfa_register %rbp
	pushq	%rax
	movq	%rdi, -8(%rbp)
Ltmp1046:
	.loc	9 490 1 prologue_end
	addq	$8, %rsp
	popq	%rbp
	retq
Ltmp1047:
Lfunc_end157:
	.cfi_endproc

	.globl	__ZN4core3ptr48drop_in_place$LT$std..os..fd..owned..OwnedFd$GT$17h01e121e7e190fef3E
	.p2align	4, 0x90
__ZN4core3ptr48drop_in_place$LT$std..os..fd..owned..OwnedFd$GT$17h01e121e7e190fef3E:
Lfunc_begin158:
	.loc	9 490 0
	.cfi_startproc
	pushq	%rbp
	.cfi_def_cfa_offset 16
	.cfi_offset %rbp, -16
	movq	%rsp, %rbp
	.cfi_def_cfa_register %rbp
	subq	$16, %rsp
	movq	%rdi, -8(%rbp)
Ltmp1048:
	.loc	9 490 1 prologue_end
	callq	__ZN69_$LT$std..os..fd..owned..OwnedFd$u20$as$u20$core..ops..drop..Drop$GT$4drop17hde412a8019719966E
	addq	$16, %rsp
	popq	%rbp
	retq
Ltmp1049:
Lfunc_end158:
	.cfi_endproc

	.globl	__ZN4core3ptr48drop_in_place$LT$std..sys..unix..os_str..Buf$GT$17hab59f421b0bd2e1aE
	.p2align	4, 0x90
__ZN4core3ptr48drop_in_place$LT$std..sys..unix..os_str..Buf$GT$17hab59f421b0bd2e1aE:
Lfunc_begin159:
	.loc	9 490 0
	.cfi_startproc
	pushq	%rbp
	.cfi_def_cfa_offset 16
	.cfi_offset %rbp, -16
	movq	%rsp, %rbp
	.cfi_def_cfa_register %rbp
	subq	$16, %rsp
	movq	%rdi, -8(%rbp)
Ltmp1050:
	.loc	9 490 1 prologue_end
	callq	__ZN4core3ptr46drop_in_place$LT$alloc..vec..Vec$LT$u8$GT$$GT$17h4f2044b0d8758f9cE
	addq	$16, %rsp
	popq	%rbp
	retq
Ltmp1051:
Lfunc_end159:
	.cfi_endproc

	.globl	__ZN4core3ptr49drop_in_place$LT$std..sys..unix..fd..FileDesc$GT$17hb8b80a78364a5c37E
	.p2align	4, 0x90
__ZN4core3ptr49drop_in_place$LT$std..sys..unix..fd..FileDesc$GT$17hb8b80a78364a5c37E:
Lfunc_begin160:
	.loc	9 490 0
	.cfi_startproc
	pushq	%rbp
	.cfi_def_cfa_offset 16
	.cfi_offset %rbp, -16
	movq	%rsp, %rbp
	.cfi_def_cfa_register %rbp
	subq	$16, %rsp
	movq	%rdi, -8(%rbp)
Ltmp1052:
	.loc	9 490 1 prologue_end
	callq	__ZN4core3ptr48drop_in_place$LT$std..os..fd..owned..OwnedFd$GT$17h01e121e7e190fef3E
	addq	$16, %rsp
	popq	%rbp
	retq
Ltmp1053:
Lfunc_end160:
	.cfi_endproc

	.p2align	4, 0x90
__ZN4core3ptr50drop_in_place$LT$$RF$autocfg..error..ErrorKind$GT$17hcc6bdc97e3125f32E:
Lfunc_begin161:
	.loc	9 490 0
	.cfi_startproc
	pushq	%rbp
	.cfi_def_cfa_offset 16
	.cfi_offset %rbp, -16
	movq	%rsp, %rbp
	.cfi_def_cfa_register %rbp
	pushq	%rax
	movq	%rdi, -8(%rbp)
Ltmp1054:
	.loc	9 490 1 prologue_end
	addq	$8, %rsp
	popq	%rbp
	retq
Ltmp1055:
Lfunc_end161:
	.cfi_endproc

	.p2align	4, 0x90
__ZN4core3ptr50drop_in_place$LT$$RF$autocfg..version..Version$GT$17hd3efa40ec3981351E:
Lfunc_begin162:
	.loc	9 490 0
	.cfi_startproc
	pushq	%rbp
	.cfi_def_cfa_offset 16
	.cfi_offset %rbp, -16
	movq	%rsp, %rbp
	.cfi_def_cfa_register %rbp
	pushq	%rax
	movq	%rdi, -8(%rbp)
Ltmp1056:
	.loc	9 490 1 prologue_end
	addq	$8, %rsp
	popq	%rbp
	retq
Ltmp1057:
Lfunc_end162:
	.cfi_endproc

	.p2align	4, 0x90
__ZN4core3ptr51drop_in_place$LT$$RF$std..ffi..os_str..OsString$GT$17h614a3fab45df9fa2E:
Lfunc_begin163:
	.loc	9 490 0
	.cfi_startproc
	pushq	%rbp
	.cfi_def_cfa_offset 16
	.cfi_offset %rbp, -16
	movq	%rsp, %rbp
	.cfi_def_cfa_register %rbp
	pushq	%rax
	movq	%rdi, -8(%rbp)
Ltmp1058:
	.loc	9 490 1 prologue_end
	addq	$8, %rsp
	popq	%rbp
	retq
Ltmp1059:
Lfunc_end163:
	.cfi_endproc

	.globl	__ZN4core3ptr51drop_in_place$LT$std..sys..unix..pipe..AnonPipe$GT$17hec247c18e3ff8962E
	.p2align	4, 0x90
__ZN4core3ptr51drop_in_place$LT$std..sys..unix..pipe..AnonPipe$GT$17hec247c18e3ff8962E:
Lfunc_begin164:
	.loc	9 490 0
	.cfi_startproc
	pushq	%rbp
	.cfi_def_cfa_offset 16
	.cfi_offset %rbp, -16
	movq	%rsp, %rbp
	.cfi_def_cfa_register %rbp
	subq	$16, %rsp
	movq	%rdi, -8(%rbp)
Ltmp1060:
	.loc	9 490 1 prologue_end
	callq	__ZN4core3ptr49drop_in_place$LT$std..sys..unix..fd..FileDesc$GT$17hb8b80a78364a5c37E
	addq	$16, %rsp
	popq	%rbp
	retq
Ltmp1061:
Lfunc_end164:
	.cfi_endproc

	.p2align	4, 0x90
__ZN4core3ptr52drop_in_place$LT$$RF$core..str..error..Utf8Error$GT$17h24011f29907761bdE:
Lfunc_begin165:
	.loc	9 490 0
	.cfi_startproc
	pushq	%rbp
	.cfi_def_cfa_offset 16
	.cfi_offset %rbp, -16
	movq	%rsp, %rbp
	.cfi_def_cfa_register %rbp
	pushq	%rax
	movq	%rdi, -8(%rbp)
Ltmp1062:
	.loc	9 490 1 prologue_end
	addq	$8, %rsp
	popq	%rbp
	retq
Ltmp1063:
Lfunc_end165:
	.cfi_endproc

	.globl	__ZN4core3ptr52drop_in_place$LT$$u5b$alloc..string..String$u5d$$GT$17h516dcdd1cfa99245E
	.p2align	4, 0x90
__ZN4core3ptr52drop_in_place$LT$$u5b$alloc..string..String$u5d$$GT$17h516dcdd1cfa99245E:
Lfunc_begin166:
	.loc	9 490 0
	.cfi_startproc
	.cfi_personality 155, _rust_eh_personality
	.cfi_lsda 16, Lexception34
	pushq	%rbp
	.cfi_def_cfa_offset 16
	.cfi_offset %rbp, -16
	movq	%rsp, %rbp
	.cfi_def_cfa_register %rbp
	subq	$80, %rsp
	movq	%rdi, -64(%rbp)
	movq	%rsi, -56(%rbp)
	movq	%rdi, -32(%rbp)
	movq	%rsi, -24(%rbp)
Ltmp1075:
	.loc	9 490 1 prologue_end
	xorl	%eax, %eax
	testb	$1, %al
	jne	LBB166_1
	jmp	LBB166_2
LBB166_1:
	movq	$0, -48(%rbp)
	jmp	LBB166_11
LBB166_2:
	.loc	9 0 1 is_stmt 0
	movq	-56(%rbp), %rax
	movq	-64(%rbp), %rcx
	.loc	9 490 1
	movq	%rcx, -40(%rbp)
	imulq	$24, %rax, %rax
	addq	-40(%rbp), %rax
	movq	%rax, -72(%rbp)
LBB166_3:
	.loc	9 0 1
	movq	-72(%rbp), %rax
	.loc	9 490 1
	cmpq	%rax, -40(%rbp)
	je	LBB166_5
	movq	-40(%rbp), %rdi
	movq	%rdi, %rax
	addq	$24, %rax
	movq	%rax, -40(%rbp)
Ltmp1064:
	callq	__ZN4core3ptr42drop_in_place$LT$alloc..string..String$GT$17h3cc4b04911fd7e35E
Ltmp1065:
	jmp	LBB166_3
LBB166_5:
	addq	$80, %rsp
	popq	%rbp
	retq
LBB166_6:
	.loc	9 0 1
	movq	-72(%rbp), %rax
	.loc	9 490 1
	cmpq	%rax, -40(%rbp)
	je	LBB166_9
	jmp	LBB166_8
LBB166_7:
Ltmp1066:
	.loc	9 0 1
	movq	%rax, %rcx
	movl	%edx, %eax
	movq	%rcx, -16(%rbp)
	movl	%eax, -8(%rbp)
	jmp	LBB166_6
LBB166_8:
	.loc	9 490 1
	movq	-40(%rbp), %rdi
	movq	%rdi, %rax
	addq	$24, %rax
	movq	%rax, -40(%rbp)
Ltmp1067:
	callq	__ZN4core3ptr42drop_in_place$LT$alloc..string..String$GT$17h3cc4b04911fd7e35E
Ltmp1068:
	jmp	LBB166_6
LBB166_9:
	movq	-16(%rbp), %rdi
	callq	__Unwind_Resume
LBB166_10:
Ltmp1074:
	callq	__ZN4core9panicking19panic_cannot_unwind17h1fbca7e1d7f56ae1E
LBB166_11:
	.loc	9 0 1
	movq	-56(%rbp), %rax
	.loc	9 490 1
	cmpq	%rax, -48(%rbp)
	je	LBB166_5
	.loc	9 0 1
	movq	-64(%rbp), %rcx
	.loc	9 490 1
	movq	-48(%rbp), %rax
	leaq	(%rax,%rax,2), %rdx
	leaq	(%rcx,%rdx,8), %rdi
	incq	%rax
	movq	%rax, -48(%rbp)
Ltmp1069:
	callq	__ZN4core3ptr42drop_in_place$LT$alloc..string..String$GT$17h3cc4b04911fd7e35E
Ltmp1070:
	jmp	LBB166_11
LBB166_13:
	.loc	9 0 1
	movq	-56(%rbp), %rax
	.loc	9 490 1
	cmpq	%rax, -48(%rbp)
	je	LBB166_9
	jmp	LBB166_15
LBB166_14:
Ltmp1071:
	.loc	9 0 1
	movq	%rax, %rcx
	movl	%edx, %eax
	movq	%rcx, -16(%rbp)
	movl	%eax, -8(%rbp)
	jmp	LBB166_13
LBB166_15:
	movq	-64(%rbp), %rcx
	.loc	9 490 1
	movq	-48(%rbp), %rax
	leaq	(%rax,%rax,2), %rdx
	leaq	(%rcx,%rdx,8), %rdi
	incq	%rax
	movq	%rax, -48(%rbp)
Ltmp1072:
	callq	__ZN4core3ptr42drop_in_place$LT$alloc..string..String$GT$17h3cc4b04911fd7e35E
Ltmp1073:
	jmp	LBB166_13
Ltmp1076:
Lfunc_end166:
	.cfi_endproc
	.section	__TEXT,__gcc_except_tab
	.p2align	2
GCC_except_table166:
Lexception34:
	.byte	255
	.byte	255
	.byte	1
	.uleb128 Lcst_end34-Lcst_begin34
Lcst_begin34:
	.uleb128 Ltmp1064-Lfunc_begin166
	.uleb128 Ltmp1065-Ltmp1064
	.uleb128 Ltmp1066-Lfunc_begin166
	.byte	0
	.uleb128 Ltmp1067-Lfunc_begin166
	.uleb128 Ltmp1068-Ltmp1067
	.uleb128 Ltmp1074-Lfunc_begin166
	.byte	0
	.uleb128 Ltmp1068-Lfunc_begin166
	.uleb128 Ltmp1069-Ltmp1068
	.byte	0
	.byte	0
	.uleb128 Ltmp1069-Lfunc_begin166
	.uleb128 Ltmp1070-Ltmp1069
	.uleb128 Ltmp1071-Lfunc_begin166
	.byte	0
	.uleb128 Ltmp1072-Lfunc_begin166
	.uleb128 Ltmp1073-Ltmp1072
	.uleb128 Ltmp1074-Lfunc_begin166
	.byte	0
Lcst_end34:
	.p2align	2

	.section	__TEXT,__text,regular,pure_instructions
	.p2align	4, 0x90
__ZN4core3ptr52drop_in_place$LT$core..num..error..ParseIntError$GT$17h77e559bd0c9355daE:
Lfunc_begin167:
	.loc	9 490 0 is_stmt 1
	.cfi_startproc
	pushq	%rbp
	.cfi_def_cfa_offset 16
	.cfi_offset %rbp, -16
	movq	%rsp, %rbp
	.cfi_def_cfa_register %rbp
	pushq	%rax
	movq	%rdi, -8(%rbp)
Ltmp1077:
	.loc	9 490 1 prologue_end
	addq	$8, %rsp
	popq	%rbp
	retq
Ltmp1078:
Lfunc_end167:
	.cfi_endproc

	.globl	__ZN4core3ptr53drop_in_place$LT$alloc..raw_vec..RawVec$LT$u8$GT$$GT$17h8f0606feb0fc9e03E
	.p2align	4, 0x90
__ZN4core3ptr53drop_in_place$LT$alloc..raw_vec..RawVec$LT$u8$GT$$GT$17h8f0606feb0fc9e03E:
Lfunc_begin168:
	.loc	9 490 0
	.cfi_startproc
	pushq	%rbp
	.cfi_def_cfa_offset 16
	.cfi_offset %rbp, -16
	movq	%rsp, %rbp
	.cfi_def_cfa_register %rbp
	subq	$16, %rsp
	movq	%rdi, -8(%rbp)
Ltmp1079:
	.loc	9 490 1 prologue_end
	callq	__ZN77_$LT$alloc..raw_vec..RawVec$LT$T$C$A$GT$$u20$as$u20$core..ops..drop..Drop$GT$4drop17h1949c0f0d86789aeE
	addq	$16, %rsp
	popq	%rbp
	retq
Ltmp1080:
Lfunc_end168:
	.cfi_endproc

	.p2align	4, 0x90
__ZN4core3ptr56drop_in_place$LT$$RF$core..num..error..ParseIntError$GT$17he1ce6e9fefd40977E:
Lfunc_begin169:
	.loc	9 490 0
	.cfi_startproc
	pushq	%rbp
	.cfi_def_cfa_offset 16
	.cfi_offset %rbp, -16
	movq	%rsp, %rbp
	.cfi_def_cfa_register %rbp
	pushq	%rax
	movq	%rdi, -8(%rbp)
Ltmp1081:
	.loc	9 490 1 prologue_end
	addq	$8, %rsp
	popq	%rbp
	retq
Ltmp1082:
Lfunc_end169:
	.cfi_endproc

	.globl	__ZN4core3ptr57drop_in_place$LT$$u5b$alloc..ffi..c_str..CString$u5d$$GT$17h4f3bad597472cbdaE
	.p2align	4, 0x90
__ZN4core3ptr57drop_in_place$LT$$u5b$alloc..ffi..c_str..CString$u5d$$GT$17h4f3bad597472cbdaE:
Lfunc_begin170:
	.loc	9 490 0
	.cfi_startproc
	.cfi_personality 155, _rust_eh_personality
	.cfi_lsda 16, Lexception35
	pushq	%rbp
	.cfi_def_cfa_offset 16
	.cfi_offset %rbp, -16
	movq	%rsp, %rbp
	.cfi_def_cfa_register %rbp
	subq	$80, %rsp
	movq	%rdi, -64(%rbp)
	movq	%rsi, -56(%rbp)
	movq	%rdi, -32(%rbp)
	movq	%rsi, -24(%rbp)
Ltmp1094:
	.loc	9 490 1 prologue_end
	xorl	%eax, %eax
	testb	$1, %al
	jne	LBB170_1
	jmp	LBB170_2
LBB170_1:
	movq	$0, -48(%rbp)
	jmp	LBB170_11
LBB170_2:
	.loc	9 0 1 is_stmt 0
	movq	-56(%rbp), %rax
	movq	-64(%rbp), %rcx
	.loc	9 490 1
	movq	%rcx, -40(%rbp)
	shlq	$4, %rax
	addq	-40(%rbp), %rax
	movq	%rax, -72(%rbp)
LBB170_3:
	.loc	9 0 1
	movq	-72(%rbp), %rax
	.loc	9 490 1
	cmpq	%rax, -40(%rbp)
	je	LBB170_5
	movq	-40(%rbp), %rdi
	movq	%rdi, %rax
	addq	$16, %rax
	movq	%rax, -40(%rbp)
Ltmp1083:
	callq	__ZN4core3ptr47drop_in_place$LT$alloc..ffi..c_str..CString$GT$17hac85f53313a5f039E
Ltmp1084:
	jmp	LBB170_3
LBB170_5:
	addq	$80, %rsp
	popq	%rbp
	retq
LBB170_6:
	.loc	9 0 1
	movq	-72(%rbp), %rax
	.loc	9 490 1
	cmpq	%rax, -40(%rbp)
	je	LBB170_9
	jmp	LBB170_8
LBB170_7:
Ltmp1085:
	.loc	9 0 1
	movq	%rax, %rcx
	movl	%edx, %eax
	movq	%rcx, -16(%rbp)
	movl	%eax, -8(%rbp)
	jmp	LBB170_6
LBB170_8:
	.loc	9 490 1
	movq	-40(%rbp), %rdi
	movq	%rdi, %rax
	addq	$16, %rax
	movq	%rax, -40(%rbp)
Ltmp1086:
	callq	__ZN4core3ptr47drop_in_place$LT$alloc..ffi..c_str..CString$GT$17hac85f53313a5f039E
Ltmp1087:
	jmp	LBB170_6
LBB170_9:
	movq	-16(%rbp), %rdi
	callq	__Unwind_Resume
LBB170_10:
Ltmp1093:
	callq	__ZN4core9panicking19panic_cannot_unwind17h1fbca7e1d7f56ae1E
LBB170_11:
	.loc	9 0 1
	movq	-56(%rbp), %rax
	.loc	9 490 1
	cmpq	%rax, -48(%rbp)
	je	LBB170_5
	.loc	9 0 1
	movq	-64(%rbp), %rdi
	.loc	9 490 1
	movq	-48(%rbp), %rax
	movq	%rax, %rcx
	shlq	$4, %rcx
	addq	%rcx, %rdi
	incq	%rax
	movq	%rax, -48(%rbp)
Ltmp1088:
	callq	__ZN4core3ptr47drop_in_place$LT$alloc..ffi..c_str..CString$GT$17hac85f53313a5f039E
Ltmp1089:
	jmp	LBB170_11
LBB170_13:
	.loc	9 0 1
	movq	-56(%rbp), %rax
	.loc	9 490 1
	cmpq	%rax, -48(%rbp)
	je	LBB170_9
	jmp	LBB170_15
LBB170_14:
Ltmp1090:
	.loc	9 0 1
	movq	%rax, %rcx
	movl	%edx, %eax
	movq	%rcx, -16(%rbp)
	movl	%eax, -8(%rbp)
	jmp	LBB170_13
LBB170_15:
	movq	-64(%rbp), %rdi
	.loc	9 490 1
	movq	-48(%rbp), %rax
	movq	%rax, %rcx
	shlq	$4, %rcx
	addq	%rcx, %rdi
	incq	%rax
	movq	%rax, -48(%rbp)
Ltmp1091:
	callq	__ZN4core3ptr47drop_in_place$LT$alloc..ffi..c_str..CString$GT$17hac85f53313a5f039E
Ltmp1092:
	jmp	LBB170_13
Ltmp1095:
Lfunc_end170:
	.cfi_endproc
	.section	__TEXT,__gcc_except_tab
	.p2align	2
GCC_except_table170:
Lexception35:
	.byte	255
	.byte	255
	.byte	1
	.uleb128 Lcst_end35-Lcst_begin35
Lcst_begin35:
	.uleb128 Ltmp1083-Lfunc_begin170
	.uleb128 Ltmp1084-Ltmp1083
	.uleb128 Ltmp1085-Lfunc_begin170
	.byte	0
	.uleb128 Ltmp1086-Lfunc_begin170
	.uleb128 Ltmp1087-Ltmp1086
	.uleb128 Ltmp1093-Lfunc_begin170
	.byte	0
	.uleb128 Ltmp1087-Lfunc_begin170
	.uleb128 Ltmp1088-Ltmp1087
	.byte	0
	.byte	0
	.uleb128 Ltmp1088-Lfunc_begin170
	.uleb128 Ltmp1089-Ltmp1088
	.uleb128 Ltmp1090-Lfunc_begin170
	.byte	0
	.uleb128 Ltmp1091-Lfunc_begin170
	.uleb128 Ltmp1092-Ltmp1091
	.uleb128 Ltmp1093-Lfunc_begin170
	.byte	0
Lcst_end35:
	.p2align	2

	.section	__TEXT,__text,regular,pure_instructions
	.globl	__ZN4core3ptr57drop_in_place$LT$std..io..error..repr_bitpacked..Repr$GT$17hd828b9d63fdaa37aE
	.p2align	4, 0x90
__ZN4core3ptr57drop_in_place$LT$std..io..error..repr_bitpacked..Repr$GT$17hd828b9d63fdaa37aE:
Lfunc_begin171:
	.loc	9 490 0 is_stmt 1
	.cfi_startproc
	pushq	%rbp
	.cfi_def_cfa_offset 16
	.cfi_offset %rbp, -16
	movq	%rsp, %rbp
	.cfi_def_cfa_register %rbp
	subq	$16, %rsp
	movq	%rdi, -8(%rbp)
Ltmp1096:
	.loc	9 490 1 prologue_end
	callq	__ZN78_$LT$std..io..error..repr_bitpacked..Repr$u20$as$u20$core..ops..drop..Drop$GT$4drop17h48dfce94d93446d6E
	addq	$16, %rsp
	popq	%rbp
	retq
Ltmp1097:
Lfunc_end171:
	.cfi_endproc

	.globl	__ZN4core3ptr57drop_in_place$LT$std..sys_common..process..CommandEnv$GT$17hef63b1aeabfdd722E
	.p2align	4, 0x90
__ZN4core3ptr57drop_in_place$LT$std..sys_common..process..CommandEnv$GT$17hef63b1aeabfdd722E:
Lfunc_begin172:
	.loc	9 490 0
	.cfi_startproc
	pushq	%rbp
	.cfi_def_cfa_offset 16
	.cfi_offset %rbp, -16
	movq	%rsp, %rbp
	.cfi_def_cfa_register %rbp
	subq	$16, %rsp
	movq	%rdi, -8(%rbp)
Ltmp1098:
	.loc	9 490 1 prologue_end
	callq	__ZN4core3ptr152drop_in_place$LT$alloc..collections..btree..map..BTreeMap$LT$std..ffi..os_str..OsString$C$core..option..Option$LT$std..ffi..os_str..OsString$GT$$GT$$GT$17h00d70ea2242752bcE
	addq	$16, %rsp
	popq	%rbp
	retq
Ltmp1099:
Lfunc_end172:
	.cfi_endproc

	.globl	__ZN4core3ptr58drop_in_place$LT$alloc..boxed..Box$LT$$u5b$u8$u5d$$GT$$GT$17h21e3abafb021982eE
	.p2align	4, 0x90
__ZN4core3ptr58drop_in_place$LT$alloc..boxed..Box$LT$$u5b$u8$u5d$$GT$$GT$17h21e3abafb021982eE:
Lfunc_begin173:
	.loc	9 490 0
	.cfi_startproc
	pushq	%rbp
	.cfi_def_cfa_offset 16
	.cfi_offset %rbp, -16
	movq	%rsp, %rbp
	.cfi_def_cfa_register %rbp
	subq	$32, %rsp
	movq	%rdi, -32(%rbp)
	movq	%rdi, -24(%rbp)
	movq	-32(%rbp), %rax
Ltmp1100:
	.loc	9 490 1 prologue_end
	movq	(%rax), %rdi
	movq	8(%rax), %rsi
	callq	__ZN5alloc5alloc8box_free17he82ea6218600c76aE
	addq	$32, %rsp
	popq	%rbp
	retq
Ltmp1101:
Lfunc_end173:
	.cfi_endproc

	.globl	__ZN4core3ptr59drop_in_place$LT$alloc..boxed..Box$LT$$u5b$u32$u5d$$GT$$GT$17hc024b0f09ef03ad5E
	.p2align	4, 0x90
__ZN4core3ptr59drop_in_place$LT$alloc..boxed..Box$LT$$u5b$u32$u5d$$GT$$GT$17hc024b0f09ef03ad5E:
Lfunc_begin174:
	.loc	9 490 0
	.cfi_startproc
	pushq	%rbp
	.cfi_def_cfa_offset 16
	.cfi_offset %rbp, -16
	movq	%rsp, %rbp
	.cfi_def_cfa_register %rbp
	subq	$32, %rsp
	movq	%rdi, -32(%rbp)
	movq	%rdi, -24(%rbp)
	movq	-32(%rbp), %rax
Ltmp1102:
	.loc	9 490 1 prologue_end
	movq	(%rax), %rdi
	movq	8(%rax), %rsi
	callq	__ZN5alloc5alloc8box_free17h249c4a7ae1437c3eE
	addq	$32, %rsp
	popq	%rbp
	retq
Ltmp1103:
Lfunc_end174:
	.cfi_endproc

	.globl	__ZN4core3ptr60drop_in_place$LT$alloc..vec..Vec$LT$$BP$const$u20$i8$GT$$GT$17h59b1f408b74117f6E
	.p2align	4, 0x90
__ZN4core3ptr60drop_in_place$LT$alloc..vec..Vec$LT$$BP$const$u20$i8$GT$$GT$17h59b1f408b74117f6E:
Lfunc_begin175:
	.loc	9 490 0
	.cfi_startproc
	.cfi_personality 155, _rust_eh_personality
	.cfi_lsda 16, Lexception36
	pushq	%rbp
	.cfi_def_cfa_offset 16
	.cfi_offset %rbp, -16
	movq	%rsp, %rbp
	.cfi_def_cfa_register %rbp
	subq	$32, %rsp
	movq	%rdi, -32(%rbp)
	movq	%rdi, -24(%rbp)
Ltmp1104:
Ltmp1110:
	.loc	9 490 1 prologue_end
	callq	__ZN70_$LT$alloc..vec..Vec$LT$T$C$A$GT$$u20$as$u20$core..ops..drop..Drop$GT$4drop17hd753f709a26df256E
Ltmp1105:
	jmp	LBB175_3
LBB175_1:
Ltmp1107:
	.loc	9 0 1 is_stmt 0
	movq	-32(%rbp), %rdi
	.loc	9 490 1
	callq	__ZN4core3ptr67drop_in_place$LT$alloc..raw_vec..RawVec$LT$$BP$const$u20$i8$GT$$GT$17h74e82d1fe6195c31E
Ltmp1108:
	jmp	LBB175_5
LBB175_2:
Ltmp1106:
	.loc	9 0 1
	movq	%rax, %rcx
	movl	%edx, %eax
	movq	%rcx, -16(%rbp)
	movl	%eax, -8(%rbp)
	jmp	LBB175_1
LBB175_3:
	movq	-32(%rbp), %rdi
	.loc	9 490 1
	callq	__ZN4core3ptr67drop_in_place$LT$alloc..raw_vec..RawVec$LT$$BP$const$u20$i8$GT$$GT$17h74e82d1fe6195c31E
	addq	$32, %rsp
	popq	%rbp
	retq
LBB175_4:
Ltmp1109:
	callq	__ZN4core9panicking19panic_cannot_unwind17h1fbca7e1d7f56ae1E
LBB175_5:
	movq	-16(%rbp), %rdi
	callq	__Unwind_Resume
Ltmp1111:
Lfunc_end175:
	.cfi_endproc
	.section	__TEXT,__gcc_except_tab
	.p2align	2
GCC_except_table175:
Lexception36:
	.byte	255
	.byte	255
	.byte	1
	.uleb128 Lcst_end36-Lcst_begin36
Lcst_begin36:
	.uleb128 Ltmp1104-Lfunc_begin175
	.uleb128 Ltmp1105-Ltmp1104
	.uleb128 Ltmp1106-Lfunc_begin175
	.byte	0
	.uleb128 Ltmp1107-Lfunc_begin175
	.uleb128 Ltmp1108-Ltmp1107
	.uleb128 Ltmp1109-Lfunc_begin175
	.byte	0
	.uleb128 Ltmp1108-Lfunc_begin175
	.uleb128 Lfunc_end175-Ltmp1108
	.byte	0
	.byte	0
Lcst_end36:
	.p2align	2

	.section	__TEXT,__text,regular,pure_instructions
	.globl	__ZN4core3ptr65drop_in_place$LT$alloc..vec..Vec$LT$alloc..string..String$GT$$GT$17ha4c53d31de33447cE
	.p2align	4, 0x90
__ZN4core3ptr65drop_in_place$LT$alloc..vec..Vec$LT$alloc..string..String$GT$$GT$17ha4c53d31de33447cE:
Lfunc_begin176:
	.loc	9 490 0 is_stmt 1
	.cfi_startproc
	.cfi_personality 155, _rust_eh_personality
	.cfi_lsda 16, Lexception37
	pushq	%rbp
	.cfi_def_cfa_offset 16
	.cfi_offset %rbp, -16
	movq	%rsp, %rbp
	.cfi_def_cfa_register %rbp
	subq	$32, %rsp
	movq	%rdi, -32(%rbp)
	movq	%rdi, -24(%rbp)
Ltmp1112:
Ltmp1118:
	.loc	9 490 1 prologue_end
	callq	__ZN70_$LT$alloc..vec..Vec$LT$T$C$A$GT$$u20$as$u20$core..ops..drop..Drop$GT$4drop17h46f73406c760d82bE
Ltmp1113:
	jmp	LBB176_3
LBB176_1:
Ltmp1115:
	.loc	9 0 1 is_stmt 0
	movq	-32(%rbp), %rdi
	.loc	9 490 1
	callq	__ZN4core3ptr72drop_in_place$LT$alloc..raw_vec..RawVec$LT$alloc..string..String$GT$$GT$17h2539573727b45b4dE
Ltmp1116:
	jmp	LBB176_5
LBB176_2:
Ltmp1114:
	.loc	9 0 1
	movq	%rax, %rcx
	movl	%edx, %eax
	movq	%rcx, -16(%rbp)
	movl	%eax, -8(%rbp)
	jmp	LBB176_1
LBB176_3:
	movq	-32(%rbp), %rdi
	.loc	9 490 1
	callq	__ZN4core3ptr72drop_in_place$LT$alloc..raw_vec..RawVec$LT$alloc..string..String$GT$$GT$17h2539573727b45b4dE
	addq	$32, %rsp
	popq	%rbp
	retq
LBB176_4:
Ltmp1117:
	callq	__ZN4core9panicking19panic_cannot_unwind17h1fbca7e1d7f56ae1E
LBB176_5:
	movq	-16(%rbp), %rdi
	callq	__Unwind_Resume
Ltmp1119:
Lfunc_end176:
	.cfi_endproc
	.section	__TEXT,__gcc_except_tab
	.p2align	2
GCC_except_table176:
Lexception37:
	.byte	255
	.byte	255
	.byte	1
	.uleb128 Lcst_end37-Lcst_begin37
Lcst_begin37:
	.uleb128 Ltmp1112-Lfunc_begin176
	.uleb128 Ltmp1113-Ltmp1112
	.uleb128 Ltmp1114-Lfunc_begin176
	.byte	0
	.uleb128 Ltmp1115-Lfunc_begin176
	.uleb128 Ltmp1116-Ltmp1115
	.uleb128 Ltmp1117-Lfunc_begin176
	.byte	0
	.uleb128 Ltmp1116-Lfunc_begin176
	.uleb128 Lfunc_end176-Ltmp1116
	.byte	0
	.byte	0
Lcst_end37:
	.p2align	2

	.section	__TEXT,__text,regular,pure_instructions
	.globl	__ZN4core3ptr66drop_in_place$LT$std..sys..unix..process..process_common..Argv$GT$17h252166cf7c1cc77dE
	.p2align	4, 0x90
__ZN4core3ptr66drop_in_place$LT$std..sys..unix..process..process_common..Argv$GT$17h252166cf7c1cc77dE:
Lfunc_begin177:
	.loc	9 490 0 is_stmt 1
	.cfi_startproc
	pushq	%rbp
	.cfi_def_cfa_offset 16
	.cfi_offset %rbp, -16
	movq	%rsp, %rbp
	.cfi_def_cfa_register %rbp
	subq	$16, %rsp
	movq	%rdi, -8(%rbp)
Ltmp1120:
	.loc	9 490 1 prologue_end
	callq	__ZN4core3ptr60drop_in_place$LT$alloc..vec..Vec$LT$$BP$const$u20$i8$GT$$GT$17h59b1f408b74117f6E
	addq	$16, %rsp
	popq	%rbp
	retq
Ltmp1121:
Lfunc_end177:
	.cfi_endproc

	.globl	__ZN4core3ptr67drop_in_place$LT$alloc..raw_vec..RawVec$LT$$BP$const$u20$i8$GT$$GT$17h74e82d1fe6195c31E
	.p2align	4, 0x90
__ZN4core3ptr67drop_in_place$LT$alloc..raw_vec..RawVec$LT$$BP$const$u20$i8$GT$$GT$17h74e82d1fe6195c31E:
Lfunc_begin178:
	.loc	9 490 0
	.cfi_startproc
	pushq	%rbp
	.cfi_def_cfa_offset 16
	.cfi_offset %rbp, -16
	movq	%rsp, %rbp
	.cfi_def_cfa_register %rbp
	subq	$16, %rsp
	movq	%rdi, -8(%rbp)
Ltmp1122:
	.loc	9 490 1 prologue_end
	callq	__ZN77_$LT$alloc..raw_vec..RawVec$LT$T$C$A$GT$$u20$as$u20$core..ops..drop..Drop$GT$4drop17h265e6bf4a513c7f1E
	addq	$16, %rsp
	popq	%rbp
	retq
Ltmp1123:
Lfunc_end178:
	.cfi_endproc

	.globl	__ZN4core3ptr67drop_in_place$LT$std..sys..unix..process..process_common..Stdio$GT$17hdcd8e1498bef9719E
	.p2align	4, 0x90
__ZN4core3ptr67drop_in_place$LT$std..sys..unix..process..process_common..Stdio$GT$17hdcd8e1498bef9719E:
Lfunc_begin179:
	.loc	9 490 0
	.cfi_startproc
	pushq	%rbp
	.cfi_def_cfa_offset 16
	.cfi_offset %rbp, -16
	movq	%rsp, %rbp
	.cfi_def_cfa_register %rbp
	subq	$16, %rsp
	movq	%rdi, -16(%rbp)
	movq	%rdi, -8(%rbp)
Ltmp1124:
	.loc	9 490 1 prologue_end
	movl	(%rdi), %eax
	subl	$3, %eax
	jb	LBB179_2
	jmp	LBB179_1
LBB179_1:
	.loc	9 0 1 is_stmt 0
	movq	-16(%rbp), %rdi
	.loc	9 490 1
	addq	$4, %rdi
	callq	__ZN4core3ptr49drop_in_place$LT$std..sys..unix..fd..FileDesc$GT$17hb8b80a78364a5c37E
LBB179_2:
	addq	$16, %rsp
	popq	%rbp
	retq
Ltmp1125:
Lfunc_end179:
	.cfi_endproc

	.globl	__ZN4core3ptr68drop_in_place$LT$alloc..boxed..Box$LT$std..io..error..Custom$GT$$GT$17h076356bddb3eba6aE
	.p2align	4, 0x90
__ZN4core3ptr68drop_in_place$LT$alloc..boxed..Box$LT$std..io..error..Custom$GT$$GT$17h076356bddb3eba6aE:
Lfunc_begin180:
	.loc	9 490 0 is_stmt 1
	.cfi_startproc
	.cfi_personality 155, _rust_eh_personality
	.cfi_lsda 16, Lexception38
	pushq	%rbp
	.cfi_def_cfa_offset 16
	.cfi_offset %rbp, -16
	movq	%rsp, %rbp
	.cfi_def_cfa_register %rbp
	subq	$32, %rsp
	movq	%rdi, -32(%rbp)
	movq	%rdi, -24(%rbp)
Ltmp1132:
	.loc	9 490 1 prologue_end
	movq	(%rdi), %rdi
Ltmp1126:
	callq	__ZN4core3ptr43drop_in_place$LT$std..io..error..Custom$GT$17hc99842291610998cE
Ltmp1127:
	jmp	LBB180_3
LBB180_1:
	.loc	9 0 1 is_stmt 0
	movq	-32(%rbp), %rax
	.loc	9 490 1
	movq	(%rax), %rdi
Ltmp1129:
	callq	__ZN5alloc5alloc8box_free17h93391f510d95d848E
Ltmp1130:
	jmp	LBB180_5
LBB180_2:
Ltmp1128:
	.loc	9 0 1
	movq	%rax, %rcx
	movl	%edx, %eax
	movq	%rcx, -16(%rbp)
	movl	%eax, -8(%rbp)
	jmp	LBB180_1
LBB180_3:
	movq	-32(%rbp), %rax
	.loc	9 490 1
	movq	(%rax), %rdi
	callq	__ZN5alloc5alloc8box_free17h93391f510d95d848E
	addq	$32, %rsp
	popq	%rbp
	retq
LBB180_4:
Ltmp1131:
	callq	__ZN4core9panicking19panic_cannot_unwind17h1fbca7e1d7f56ae1E
LBB180_5:
	movq	-16(%rbp), %rdi
	callq	__Unwind_Resume
Ltmp1133:
Lfunc_end180:
	.cfi_endproc
	.section	__TEXT,__gcc_except_tab
	.p2align	2
GCC_except_table180:
Lexception38:
	.byte	255
	.byte	255
	.byte	1
	.uleb128 Lcst_end38-Lcst_begin38
Lcst_begin38:
	.uleb128 Ltmp1126-Lfunc_begin180
	.uleb128 Ltmp1127-Ltmp1126
	.uleb128 Ltmp1128-Lfunc_begin180
	.byte	0
	.uleb128 Ltmp1129-Lfunc_begin180
	.uleb128 Ltmp1130-Ltmp1129
	.uleb128 Ltmp1131-Lfunc_begin180
	.byte	0
	.uleb128 Ltmp1130-Lfunc_begin180
	.uleb128 Lfunc_end180-Ltmp1130
	.byte	0
	.byte	0
Lcst_end38:
	.p2align	2

	.section	__TEXT,__text,regular,pure_instructions
	.p2align	4, 0x90
__ZN4core3ptr69drop_in_place$LT$$RF$alloc..vec..Vec$LT$alloc..string..String$GT$$GT$17ha9aa630ed9f71bf7E:
Lfunc_begin181:
	.loc	9 490 0 is_stmt 1
	.cfi_startproc
	pushq	%rbp
	.cfi_def_cfa_offset 16
	.cfi_offset %rbp, -16
	movq	%rsp, %rbp
	.cfi_def_cfa_register %rbp
	pushq	%rax
	movq	%rdi, -8(%rbp)
Ltmp1134:
	.loc	9 490 1 prologue_end
	addq	$8, %rsp
	popq	%rbp
	retq
Ltmp1135:
Lfunc_end181:
	.cfi_endproc

	.globl	__ZN4core3ptr69drop_in_place$LT$std..sys..unix..process..process_common..Command$GT$17hfc03d906eb877fffE
	.p2align	4, 0x90
__ZN4core3ptr69drop_in_place$LT$std..sys..unix..process..process_common..Command$GT$17hfc03d906eb877fffE:
Lfunc_begin182:
	.loc	9 490 0
	.cfi_startproc
	.cfi_personality 155, _rust_eh_personality
	.cfi_lsda 16, Lexception39
	pushq	%rbp
	.cfi_def_cfa_offset 16
	.cfi_offset %rbp, -16
	movq	%rsp, %rbp
	.cfi_def_cfa_register %rbp
	subq	$32, %rsp
	movq	%rdi, -32(%rbp)
	movq	%rdi, -24(%rbp)
Ltmp1182:
	.loc	9 490 1 prologue_end
	addq	$64, %rdi
Ltmp1136:
	callq	__ZN4core3ptr47drop_in_place$LT$alloc..ffi..c_str..CString$GT$17hac85f53313a5f039E
Ltmp1137:
	jmp	LBB182_3
LBB182_1:
	.loc	9 0 1 is_stmt 0
	movq	-32(%rbp), %rdi
	.loc	9 490 1
	addq	$80, %rdi
Ltmp1139:
	callq	__ZN4core3ptr70drop_in_place$LT$alloc..vec..Vec$LT$alloc..ffi..c_str..CString$GT$$GT$17h27fc95673787aa8dE
Ltmp1140:
	jmp	LBB182_5
LBB182_2:
Ltmp1138:
	.loc	9 0 1
	movq	%rax, %rcx
	movl	%edx, %eax
	movq	%rcx, -16(%rbp)
	movl	%eax, -8(%rbp)
	jmp	LBB182_1
LBB182_3:
	movq	-32(%rbp), %rdi
	.loc	9 490 1
	addq	$80, %rdi
Ltmp1141:
	callq	__ZN4core3ptr70drop_in_place$LT$alloc..vec..Vec$LT$alloc..ffi..c_str..CString$GT$$GT$17h27fc95673787aa8dE
Ltmp1142:
	jmp	LBB182_7
LBB182_4:
Ltmp1181:
	callq	__ZN4core9panicking19panic_cannot_unwind17h1fbca7e1d7f56ae1E
LBB182_5:
	.loc	9 0 1
	movq	-32(%rbp), %rdi
	.loc	9 490 1
	addq	$104, %rdi
Ltmp1144:
	callq	__ZN4core3ptr66drop_in_place$LT$std..sys..unix..process..process_common..Argv$GT$17h252166cf7c1cc77dE
Ltmp1145:
	jmp	LBB182_8
LBB182_6:
Ltmp1143:
	.loc	9 0 1
	movq	%rax, %rcx
	movl	%edx, %eax
	movq	%rcx, -16(%rbp)
	movl	%eax, -8(%rbp)
	jmp	LBB182_5
LBB182_7:
	movq	-32(%rbp), %rdi
	.loc	9 490 1
	addq	$104, %rdi
Ltmp1146:
	callq	__ZN4core3ptr66drop_in_place$LT$std..sys..unix..process..process_common..Argv$GT$17h252166cf7c1cc77dE
Ltmp1147:
	jmp	LBB182_10
LBB182_8:
Ltmp1149:
	.loc	9 0 1
	movq	-32(%rbp), %rdi
	.loc	9 490 1
	callq	__ZN4core3ptr57drop_in_place$LT$std..sys_common..process..CommandEnv$GT$17hef63b1aeabfdd722E
Ltmp1150:
	jmp	LBB182_11
LBB182_9:
Ltmp1148:
	.loc	9 0 1
	movq	%rax, %rcx
	movl	%edx, %eax
	movq	%rcx, -16(%rbp)
	movl	%eax, -8(%rbp)
	jmp	LBB182_8
LBB182_10:
Ltmp1151:
	movq	-32(%rbp), %rdi
	.loc	9 490 1
	callq	__ZN4core3ptr57drop_in_place$LT$std..sys_common..process..CommandEnv$GT$17hef63b1aeabfdd722E
Ltmp1152:
	jmp	LBB182_13
LBB182_11:
	.loc	9 0 1
	movq	-32(%rbp), %rdi
	.loc	9 490 1
	addq	$32, %rdi
Ltmp1154:
	callq	__ZN4core3ptr75drop_in_place$LT$core..option..Option$LT$alloc..ffi..c_str..CString$GT$$GT$17hb4e2e6ccf848b24eE
Ltmp1155:
	jmp	LBB182_14
LBB182_12:
Ltmp1153:
	.loc	9 0 1
	movq	%rax, %rcx
	movl	%edx, %eax
	movq	%rcx, -16(%rbp)
	movl	%eax, -8(%rbp)
	jmp	LBB182_11
LBB182_13:
	movq	-32(%rbp), %rdi
	.loc	9 490 1
	addq	$32, %rdi
Ltmp1156:
	callq	__ZN4core3ptr75drop_in_place$LT$core..option..Option$LT$alloc..ffi..c_str..CString$GT$$GT$17hb4e2e6ccf848b24eE
Ltmp1157:
	jmp	LBB182_16
LBB182_14:
	.loc	9 0 1
	movq	-32(%rbp), %rdi
	.loc	9 490 1
	subq	$-128, %rdi
Ltmp1159:
	callq	__ZN4core3ptr251drop_in_place$LT$alloc..vec..Vec$LT$alloc..boxed..Box$LT$dyn$u20$core..ops..function..FnMut$LT$$LP$$RP$$GT$$u2b$Output$u20$$u3d$$u20$core..result..Result$LT$$LP$$RP$$C$std..io..error..Error$GT$$u2b$core..marker..Send$u2b$core..marker..Sync$GT$$GT$$GT$17hb77b6418bafb8fc1E
Ltmp1160:
	jmp	LBB182_17
LBB182_15:
Ltmp1158:
	.loc	9 0 1
	movq	%rax, %rcx
	movl	%edx, %eax
	movq	%rcx, -16(%rbp)
	movl	%eax, -8(%rbp)
	jmp	LBB182_14
LBB182_16:
	movq	-32(%rbp), %rdi
	.loc	9 490 1
	subq	$-128, %rdi
Ltmp1161:
	callq	__ZN4core3ptr251drop_in_place$LT$alloc..vec..Vec$LT$alloc..boxed..Box$LT$dyn$u20$core..ops..function..FnMut$LT$$LP$$RP$$GT$$u2b$Output$u20$$u3d$$u20$core..result..Result$LT$$LP$$RP$$C$std..io..error..Error$GT$$u2b$core..marker..Send$u2b$core..marker..Sync$GT$$GT$$GT$17hb77b6418bafb8fc1E
Ltmp1162:
	jmp	LBB182_19
LBB182_17:
	.loc	9 0 1
	movq	-32(%rbp), %rdi
	.loc	9 490 1
	addq	$48, %rdi
Ltmp1164:
	callq	__ZN4core3ptr87drop_in_place$LT$core..option..Option$LT$alloc..boxed..Box$LT$$u5b$u32$u5d$$GT$$GT$$GT$17h5d2769f3bba317bbE
Ltmp1165:
	jmp	LBB182_20
LBB182_18:
Ltmp1163:
	.loc	9 0 1
	movq	%rax, %rcx
	movl	%edx, %eax
	movq	%rcx, -16(%rbp)
	movl	%eax, -8(%rbp)
	jmp	LBB182_17
LBB182_19:
	movq	-32(%rbp), %rdi
	.loc	9 490 1
	addq	$48, %rdi
Ltmp1166:
	callq	__ZN4core3ptr87drop_in_place$LT$core..option..Option$LT$alloc..boxed..Box$LT$$u5b$u32$u5d$$GT$$GT$$GT$17h5d2769f3bba317bbE
Ltmp1167:
	jmp	LBB182_22
LBB182_20:
	.loc	9 0 1
	movq	-32(%rbp), %rdi
	.loc	9 490 1
	addq	$152, %rdi
Ltmp1169:
	callq	__ZN4core3ptr95drop_in_place$LT$core..option..Option$LT$std..sys..unix..process..process_common..Stdio$GT$$GT$17h0fe56964fc5f0af5E
Ltmp1170:
	jmp	LBB182_23
LBB182_21:
Ltmp1168:
	.loc	9 0 1
	movq	%rax, %rcx
	movl	%edx, %eax
	movq	%rcx, -16(%rbp)
	movl	%eax, -8(%rbp)
	jmp	LBB182_20
LBB182_22:
	movq	-32(%rbp), %rdi
	.loc	9 490 1
	addq	$152, %rdi
Ltmp1171:
	callq	__ZN4core3ptr95drop_in_place$LT$core..option..Option$LT$std..sys..unix..process..process_common..Stdio$GT$$GT$17h0fe56964fc5f0af5E
Ltmp1172:
	jmp	LBB182_25
LBB182_23:
	.loc	9 0 1
	movq	-32(%rbp), %rdi
	.loc	9 490 1
	addq	$160, %rdi
Ltmp1174:
