	.section	__TEXT,__text,regular,pure_instructions
	.macosx_version_min 10, 7
	.p2align	4, 0x90
__ZN4core3f3221_$LT$impl$u20$f32$GT$7to_bits17h6c91596835c80219E:
Lfunc_begin0:
	.file	1 "/rustc/2c8cc343237b8f7d5a3c3703e3a87f2eb2c54a74/library/core/src/num" "f32.rs"
	.loc	1 998 0
	.cfi_startproc
	pushq	%rbp
	.cfi_def_cfa_offset 16
	.cfi_offset %rbp, -16
	movq	%rsp, %rbp
	.cfi_def_cfa_register %rbp
	subq	$16, %rsp
	movss	%xmm0, -12(%rbp)
Ltmp0:
	.loc	1 1045 48 prologue_end
	movss	%xmm0, -16(%rbp)
	.loc	1 1045 18 is_stmt 0
	movss	-16(%rbp), %xmm0
	movss	%xmm0, -8(%rbp)
Ltmp1:
	.loc	1 1042 22 is_stmt 1
	movd	%xmm0, %eax
	movl	%eax, -4(%rbp)
	movl	-4(%rbp), %eax
Ltmp2:
	.loc	1 1046 6
	addq	$16, %rsp
	popq	%rbp
	retq
Ltmp3:
Lfunc_end0:
	.cfi_endproc

	.p2align	4, 0x90
__ZN4core3f6421_$LT$impl$u20$f64$GT$7to_bits17h57bda5eaa500e5d1E:
Lfunc_begin1:
	.file	2 "/rustc/2c8cc343237b8f7d5a3c3703e3a87f2eb2c54a74/library/core/src/num" "f64.rs"
	.loc	2 1009 0
	.cfi_startproc
	pushq	%rbp
	.cfi_def_cfa_offset 16
	.cfi_offset %rbp, -16
	movq	%rsp, %rbp
	.cfi_def_cfa_register %rbp
	subq	$32, %rsp
	movsd	%xmm0, -24(%rbp)
Ltmp4:
	.loc	2 1038 48 prologue_end
	movsd	%xmm0, -32(%rbp)
	.loc	2 1038 18 is_stmt 0
	movsd	-32(%rbp), %xmm0
	movsd	%xmm0, -16(%rbp)
Ltmp5:
	.loc	2 1035 22 is_stmt 1
	movq	%xmm0, %rax
	movq	%rax, -8(%rbp)
	movq	-8(%rbp), %rax
Ltmp6:
	.loc	2 1039 6
	addq	$32, %rsp
	popq	%rbp
	retq
Ltmp7:
Lfunc_end1:
	.cfi_endproc

	.globl	__ZN50_$LT$T$u20$as$u20$core..convert..Into$LT$U$GT$$GT$4into17h0ed07b85e979c5f2E
	.p2align	4, 0x90
__ZN50_$LT$T$u20$as$u20$core..convert..Into$LT$U$GT$$GT$4into17h0ed07b85e979c5f2E:
Lfunc_begin2:
	.file	3 "/rustc/2c8cc343237b8f7d5a3c3703e3a87f2eb2c54a74/library/core/src/convert" "mod.rs"
	.loc	3 725 0
	.cfi_startproc
	pushq	%rbp
	.cfi_def_cfa_offset 16
	.cfi_offset %rbp, -16
	movq	%rsp, %rbp
	.cfi_def_cfa_register %rbp
	subq	$16, %rsp
	movq	%rdi, %rax
	movq	%rax, -16(%rbp)
	movss	%xmm0, -4(%rbp)
Ltmp8:
	.loc	3 726 9 prologue_end
	callq	__ZN76_$LT$az..int..Float$LT$u32$GT$$u20$as$u20$core..convert..From$LT$f32$GT$$GT$4from17h9682087935452fa5E
	movq	-16(%rbp), %rax
	.loc	3 727 6
	addq	$16, %rsp
	popq	%rbp
	retq
Ltmp9:
Lfunc_end2:
	.cfi_endproc

	.globl	__ZN50_$LT$T$u20$as$u20$core..convert..Into$LT$U$GT$$GT$4into17h1219fc8394939a7eE
	.p2align	4, 0x90
__ZN50_$LT$T$u20$as$u20$core..convert..Into$LT$U$GT$$GT$4into17h1219fc8394939a7eE:
Lfunc_begin3:
	.loc	3 725 0
	.cfi_startproc
	pushq	%rbp
	.cfi_def_cfa_offset 16
	.cfi_offset %rbp, -16
	movq	%rsp, %rbp
	.cfi_def_cfa_register %rbp
	subq	$16, %rsp
	movq	%rdi, %rax
	movq	%rax, -16(%rbp)
	movss	%xmm0, -4(%rbp)
Ltmp10:
	.loc	3 726 9 prologue_end
	callq	__ZN94_$LT$az..int..Float$LT$u128$GT$$u20$as$u20$core..convert..From$LT$az..Round$LT$f32$GT$$GT$$GT$4from17h04785e493e7fd181E
	movq	-16(%rbp), %rax
	.loc	3 727 6
	addq	$16, %rsp
	popq	%rbp
	retq
Ltmp11:
Lfunc_end3:
	.cfi_endproc

	.globl	__ZN50_$LT$T$u20$as$u20$core..convert..Into$LT$U$GT$$GT$4into17h39a77a63859b0f45E
	.p2align	4, 0x90
__ZN50_$LT$T$u20$as$u20$core..convert..Into$LT$U$GT$$GT$4into17h39a77a63859b0f45E:
Lfunc_begin4:
	.loc	3 725 0
	.cfi_startproc
	pushq	%rbp
	.cfi_def_cfa_offset 16
	.cfi_offset %rbp, -16
	movq	%rsp, %rbp
	.cfi_def_cfa_register %rbp
	subq	$16, %rsp
	movq	%rdi, %rax
	movq	%rax, -16(%rbp)
	movq	%rax, -8(%rbp)
	xorl	%ecx, %ecx
	movl	%ecx, %edx
Ltmp12:
	.loc	3 727 6 prologue_end
	addq	$16, %rsp
	popq	%rbp
	retq
Ltmp13:
Lfunc_end4:
	.cfi_endproc

	.globl	__ZN50_$LT$T$u20$as$u20$core..convert..Into$LT$U$GT$$GT$4into17h4164bc3de6113974E
	.p2align	4, 0x90
__ZN50_$LT$T$u20$as$u20$core..convert..Into$LT$U$GT$$GT$4into17h4164bc3de6113974E:
Lfunc_begin5:
	.loc	3 725 0
	.cfi_startproc
	pushq	%rbp
	.cfi_def_cfa_offset 16
	.cfi_offset %rbp, -16
	movq	%rsp, %rbp
	.cfi_def_cfa_register %rbp
	subq	$16, %rsp
	movq	%rdi, %rax
	movq	%rax, -16(%rbp)
	movss	%xmm0, -4(%rbp)
Ltmp14:
	.loc	3 726 9 prologue_end
	callq	__ZN77_$LT$az..int..Float$LT$u128$GT$$u20$as$u20$core..convert..From$LT$f32$GT$$GT$4from17hd87ab4a0a7f4be57E
	movq	-16(%rbp), %rax
	.loc	3 727 6
	addq	$16, %rsp
	popq	%rbp
	retq
Ltmp15:
Lfunc_end5:
	.cfi_endproc

	.globl	__ZN50_$LT$T$u20$as$u20$core..convert..Into$LT$U$GT$$GT$4into17h4444b2754f25c659E
	.p2align	4, 0x90
__ZN50_$LT$T$u20$as$u20$core..convert..Into$LT$U$GT$$GT$4into17h4444b2754f25c659E:
Lfunc_begin6:
	.loc	3 725 0
	.cfi_startproc
	pushq	%rbp
	.cfi_def_cfa_offset 16
	.cfi_offset %rbp, -16
	movq	%rsp, %rbp
	.cfi_def_cfa_register %rbp
	pushq	%rax
	movl	%edi, %eax
	movl	%eax, -8(%rbp)
	movl	%eax, -4(%rbp)
Ltmp16:
	.loc	3 727 6 prologue_end
	addq	$8, %rsp
	popq	%rbp
	retq
Ltmp17:
Lfunc_end6:
	.cfi_endproc

	.globl	__ZN50_$LT$T$u20$as$u20$core..convert..Into$LT$U$GT$$GT$4into17h45c612c5df7b6a31E
	.p2align	4, 0x90
__ZN50_$LT$T$u20$as$u20$core..convert..Into$LT$U$GT$$GT$4into17h45c612c5df7b6a31E:
Lfunc_begin7:
	.loc	3 725 0
	.cfi_startproc
	pushq	%rbp
	.cfi_def_cfa_offset 16
	.cfi_offset %rbp, -16
	movq	%rsp, %rbp
	.cfi_def_cfa_register %rbp
	subq	$16, %rsp
	movq	%rdi, %rax
	movq	%rax, -16(%rbp)
	movsd	%xmm0, -8(%rbp)
Ltmp18:
	.loc	3 726 9 prologue_end
	callq	__ZN76_$LT$az..int..Float$LT$u64$GT$$u20$as$u20$core..convert..From$LT$f64$GT$$GT$4from17he2ffd895ebbf9344E
	movq	-16(%rbp), %rax
	.loc	3 727 6
	addq	$16, %rsp
	popq	%rbp
	retq
Ltmp19:
Lfunc_end7:
	.cfi_endproc

	.globl	__ZN50_$LT$T$u20$as$u20$core..convert..Into$LT$U$GT$$GT$4into17h66a50c277c53d40eE
	.p2align	4, 0x90
__ZN50_$LT$T$u20$as$u20$core..convert..Into$LT$U$GT$$GT$4into17h66a50c277c53d40eE:
Lfunc_begin8:
	.loc	3 725 0
	.cfi_startproc
	pushq	%rbp
	.cfi_def_cfa_offset 16
	.cfi_offset %rbp, -16
	movq	%rsp, %rbp
	.cfi_def_cfa_register %rbp
	subq	$16, %rsp
	movq	%rdi, %rax
	movq	%rax, -16(%rbp)
	movsd	%xmm0, -8(%rbp)
Ltmp20:
	.loc	3 726 9 prologue_end
	callq	__ZN94_$LT$az..int..Float$LT$u128$GT$$u20$as$u20$core..convert..From$LT$az..Round$LT$f64$GT$$GT$$GT$4from17hd0ab3c8b4283596dE
	movq	-16(%rbp), %rax
	.loc	3 727 6
	addq	$16, %rsp
	popq	%rbp
	retq
Ltmp21:
Lfunc_end8:
	.cfi_endproc

	.globl	__ZN50_$LT$T$u20$as$u20$core..convert..Into$LT$U$GT$$GT$4into17h66b01f40bff8d8efE
	.p2align	4, 0x90
__ZN50_$LT$T$u20$as$u20$core..convert..Into$LT$U$GT$$GT$4into17h66b01f40bff8d8efE:
Lfunc_begin9:
	.loc	3 725 0
	.cfi_startproc
	pushq	%rbp
	.cfi_def_cfa_offset 16
	.cfi_offset %rbp, -16
	movq	%rsp, %rbp
	.cfi_def_cfa_register %rbp
	subq	$16, %rsp
	movq	%rdi, %rax
	movq	%rax, -16(%rbp)
	movsd	%xmm0, -8(%rbp)
Ltmp22:
	.loc	3 726 9 prologue_end
	callq	__ZN77_$LT$az..int..Float$LT$u128$GT$$u20$as$u20$core..convert..From$LT$f64$GT$$GT$4from17he84b9d71cf7d1982E
	movq	-16(%rbp), %rax
	.loc	3 727 6
	addq	$16, %rsp
	popq	%rbp
	retq
Ltmp23:
Lfunc_end9:
	.cfi_endproc

	.globl	__ZN50_$LT$T$u20$as$u20$core..convert..Into$LT$U$GT$$GT$4into17h8359232b87696417E
	.p2align	4, 0x90
__ZN50_$LT$T$u20$as$u20$core..convert..Into$LT$U$GT$$GT$4into17h8359232b87696417E:
Lfunc_begin10:
	.loc	3 725 0
	.cfi_startproc
	pushq	%rbp
	.cfi_def_cfa_offset 16
	.cfi_offset %rbp, -16
	movq	%rsp, %rbp
	.cfi_def_cfa_register %rbp
	pushq	%rax
	movl	%edi, -8(%rbp)
	movl	%edi, -4(%rbp)
Ltmp24:
	.file	4 "/rustc/2c8cc343237b8f7d5a3c3703e3a87f2eb2c54a74/library/core/src/convert" "num.rs"
	.loc	4 54 17 prologue_end
	movl	%edi, %eax
Ltmp25:
	.loc	3 727 6
	addq	$8, %rsp
	popq	%rbp
	retq
Ltmp26:
Lfunc_end10:
	.cfi_endproc

	.globl	__ZN50_$LT$T$u20$as$u20$core..convert..Into$LT$U$GT$$GT$4into17ha10cd8c633a834b9E
	.p2align	4, 0x90
__ZN50_$LT$T$u20$as$u20$core..convert..Into$LT$U$GT$$GT$4into17ha10cd8c633a834b9E:
Lfunc_begin11:
	.loc	3 725 0
	.cfi_startproc
	pushq	%rbp
	.cfi_def_cfa_offset 16
	.cfi_offset %rbp, -16
	movq	%rsp, %rbp
	.cfi_def_cfa_register %rbp
	subq	$16, %rsp
	movq	%rdi, %rax
	movq	%rax, -16(%rbp)
	movss	%xmm0, -4(%rbp)
Ltmp27:
	.loc	3 726 9 prologue_end
	callq	__ZN93_$LT$az..int..Float$LT$u32$GT$$u20$as$u20$core..convert..From$LT$az..Round$LT$f32$GT$$GT$$GT$4from17h97b52246b3d8ee3aE
	movq	-16(%rbp), %rax
	.loc	3 727 6
	addq	$16, %rsp
	popq	%rbp
	retq
Ltmp28:
Lfunc_end11:
	.cfi_endproc

	.globl	__ZN50_$LT$T$u20$as$u20$core..convert..Into$LT$U$GT$$GT$4into17hc0373b80baab8e63E
	.p2align	4, 0x90
__ZN50_$LT$T$u20$as$u20$core..convert..Into$LT$U$GT$$GT$4into17hc0373b80baab8e63E:
Lfunc_begin12:
	.loc	3 725 0
	.cfi_startproc
	pushq	%rbp
	.cfi_def_cfa_offset 16
	.cfi_offset %rbp, -16
	movq	%rsp, %rbp
	.cfi_def_cfa_register %rbp
	subq	$16, %rsp
	movq	%rdi, %rax
	movq	%rax, -16(%rbp)
	movss	%xmm0, -4(%rbp)
Ltmp29:
	.loc	3 726 9 prologue_end
	callq	__ZN76_$LT$az..int..Float$LT$u64$GT$$u20$as$u20$core..convert..From$LT$f32$GT$$GT$4from17ha2557c27f779d08eE
	movq	-16(%rbp), %rax
	.loc	3 727 6
	addq	$16, %rsp
	popq	%rbp
	retq
Ltmp30:
Lfunc_end12:
	.cfi_endproc

	.globl	__ZN50_$LT$T$u20$as$u20$core..convert..Into$LT$U$GT$$GT$4into17hc85f68ab1358928bE
	.p2align	4, 0x90
__ZN50_$LT$T$u20$as$u20$core..convert..Into$LT$U$GT$$GT$4into17hc85f68ab1358928bE:
Lfunc_begin13:
	.loc	3 725 0
	.cfi_startproc
	pushq	%rbp
	.cfi_def_cfa_offset 16
	.cfi_offset %rbp, -16
	movq	%rsp, %rbp
	.cfi_def_cfa_register %rbp
	pushq	%rax
	movl	%edi, -8(%rbp)
	movl	%edi, -4(%rbp)
Ltmp31:
	.loc	4 54 17 prologue_end
	movl	%edi, %eax
	xorl	%ecx, %ecx
	movl	%ecx, %edx
Ltmp32:
	.loc	3 727 6
	addq	$8, %rsp
	popq	%rbp
	retq
Ltmp33:
Lfunc_end13:
	.cfi_endproc

	.globl	__ZN50_$LT$T$u20$as$u20$core..convert..Into$LT$U$GT$$GT$4into17hc9493ea0245e7a13E
	.p2align	4, 0x90
__ZN50_$LT$T$u20$as$u20$core..convert..Into$LT$U$GT$$GT$4into17hc9493ea0245e7a13E:
Lfunc_begin14:
	.loc	3 725 0
	.cfi_startproc
	pushq	%rbp
	.cfi_def_cfa_offset 16
	.cfi_offset %rbp, -16
	movq	%rsp, %rbp
	.cfi_def_cfa_register %rbp
	subq	$16, %rsp
	movq	%rdi, %rax
	movq	%rax, -16(%rbp)
	movss	%xmm0, -4(%rbp)
Ltmp34:
	.loc	3 726 9 prologue_end
	callq	__ZN93_$LT$az..int..Float$LT$u64$GT$$u20$as$u20$core..convert..From$LT$az..Round$LT$f32$GT$$GT$$GT$4from17hd70ce69aa1faad58E
	movq	-16(%rbp), %rax
	.loc	3 727 6
	addq	$16, %rsp
	popq	%rbp
	retq
Ltmp35:
Lfunc_end14:
	.cfi_endproc

	.globl	__ZN50_$LT$T$u20$as$u20$core..convert..Into$LT$U$GT$$GT$4into17hd329c09720bab36fE
	.p2align	4, 0x90
__ZN50_$LT$T$u20$as$u20$core..convert..Into$LT$U$GT$$GT$4into17hd329c09720bab36fE:
Lfunc_begin15:
	.loc	3 725 0
	.cfi_startproc
	pushq	%rbp
	.cfi_def_cfa_offset 16
	.cfi_offset %rbp, -16
	movq	%rsp, %rbp
	.cfi_def_cfa_register %rbp
	subq	$16, %rsp
	movq	%rdi, %rax
	movq	%rax, -16(%rbp)
	movsd	%xmm0, -8(%rbp)
Ltmp36:
	.loc	3 726 9 prologue_end
	callq	__ZN93_$LT$az..int..Float$LT$u64$GT$$u20$as$u20$core..convert..From$LT$az..Round$LT$f64$GT$$GT$$GT$4from17hab2017594fefe913E
	movq	-16(%rbp), %rax
	.loc	3 727 6
	addq	$16, %rsp
	popq	%rbp
	retq
Ltmp37:
Lfunc_end15:
	.cfi_endproc

	.globl	__ZN50_$LT$T$u20$as$u20$core..convert..Into$LT$U$GT$$GT$4into17hdce0dd4a0259ae96E
	.p2align	4, 0x90
__ZN50_$LT$T$u20$as$u20$core..convert..Into$LT$U$GT$$GT$4into17hdce0dd4a0259ae96E:
Lfunc_begin16:
	.loc	3 725 0
	.cfi_startproc
	pushq	%rbp
	.cfi_def_cfa_offset 16
	.cfi_offset %rbp, -16
	movq	%rsp, %rbp
	.cfi_def_cfa_register %rbp
	subq	$16, %rsp
	movq	%rdi, %rax
	movq	%rax, -16(%rbp)
	movq	%rax, -8(%rbp)
Ltmp38:
	.loc	3 727 6 prologue_end
	addq	$16, %rsp
	popq	%rbp
	retq
Ltmp39:
Lfunc_end16:
	.cfi_endproc

	.globl	__ZN2az12checked_cast17h030d9710bc104bb4E
	.p2align	4, 0x90
__ZN2az12checked_cast17h030d9710bc104bb4E:
Lfunc_begin17:
	.file	5 "/Users/natalie/.cargo/registry/src/github.com-1ecc6299db9ec823/az-1.2.1" "src/lib.rs"
	.loc	5 1027 0
	.cfi_startproc
	pushq	%rbp
	.cfi_def_cfa_offset 16
	.cfi_offset %rbp, -16
	movq	%rsp, %rbp
	.cfi_def_cfa_register %rbp
	subq	$16, %rsp
	movq	%rdi, -8(%rbp)
Ltmp40:
	.loc	5 1028 5 prologue_end
	callq	__ZN2az3int60_$LT$impl$u20$az..CheckedCast$LT$u64$GT$$u20$for$u20$i64$GT$12checked_cast17hade15a3a04f12b37E
	.loc	5 1029 2
	addq	$16, %rsp
	popq	%rbp
	retq
Ltmp41:
Lfunc_end17:
	.cfi_endproc

	.globl	__ZN2az12checked_cast17h145c055ef1ccf7e5E
	.p2align	4, 0x90
__ZN2az12checked_cast17h145c055ef1ccf7e5E:
Lfunc_begin18:
	.loc	5 1027 0
	.cfi_startproc
	pushq	%rbp
	.cfi_def_cfa_offset 16
	.cfi_offset %rbp, -16
	movq	%rsp, %rbp
	.cfi_def_cfa_register %rbp
	subq	$16, %rsp
	movq	%rdi, -16(%rbp)
	movq	%rsi, -8(%rbp)
Ltmp42:
	.loc	5 1028 5 prologue_end
	callq	__ZN2az3int62_$LT$impl$u20$az..CheckedCast$LT$i128$GT$$u20$for$u20$i128$GT$12checked_cast17hb906edb5166f0dd2E
	.loc	5 1029 2
	addq	$16, %rsp
	popq	%rbp
	retq
Ltmp43:
Lfunc_end18:
	.cfi_endproc

	.globl	__ZN2az12checked_cast17h168b4da23ec909a0E
	.p2align	4, 0x90
__ZN2az12checked_cast17h168b4da23ec909a0E:
Lfunc_begin19:
	.loc	5 1027 0
	.cfi_startproc
	pushq	%rbp
	.cfi_def_cfa_offset 16
	.cfi_offset %rbp, -16
	movq	%rsp, %rbp
	.cfi_def_cfa_register %rbp
	subq	$16, %rsp
	movl	%edi, -4(%rbp)
Ltmp44:
	.loc	5 1028 5 prologue_end
	callq	__ZN2az3int60_$LT$impl$u20$az..CheckedCast$LT$u16$GT$$u20$for$u20$u32$GT$12checked_cast17ha30fd933ebc7fd5fE
	.loc	5 1029 2
	addq	$16, %rsp
	popq	%rbp
	retq
Ltmp45:
Lfunc_end19:
	.cfi_endproc

	.globl	__ZN2az12checked_cast17h1befcaa3c93a2bd9E
	.p2align	4, 0x90
__ZN2az12checked_cast17h1befcaa3c93a2bd9E:
Lfunc_begin20:
	.loc	5 1027 0
	.cfi_startproc
	pushq	%rbp
	.cfi_def_cfa_offset 16
	.cfi_offset %rbp, -16
	movq	%rsp, %rbp
	.cfi_def_cfa_register %rbp
	subq	$16, %rsp
	movq	%rdi, -8(%rbp)
Ltmp46:
	.loc	5 1028 5 prologue_end
	callq	__ZN2az3int59_$LT$impl$u20$az..CheckedCast$LT$u8$GT$$u20$for$u20$u64$GT$12checked_cast17had9b32d532a1874fE
	.loc	5 1029 2
	andb	$1, %al
	addq	$16, %rsp
	popq	%rbp
	retq
Ltmp47:
Lfunc_end20:
	.cfi_endproc

	.globl	__ZN2az12checked_cast17h24739e3c6d82155aE
	.p2align	4, 0x90
__ZN2az12checked_cast17h24739e3c6d82155aE:
Lfunc_begin21:
	.loc	5 1027 0
	.cfi_startproc
	pushq	%rbp
	.cfi_def_cfa_offset 16
	.cfi_offset %rbp, -16
	movq	%rsp, %rbp
	.cfi_def_cfa_register %rbp
	subq	$16, %rsp
	movq	%rdi, -16(%rbp)
	movq	%rsi, -8(%rbp)
Ltmp48:
	.loc	5 1028 5 prologue_end
	callq	__ZN2az3int62_$LT$impl$u20$az..CheckedCast$LT$u128$GT$$u20$for$u20$u128$GT$12checked_cast17h12fe8ad76ef83f53E
	.loc	5 1029 2
	addq	$16, %rsp
	popq	%rbp
	retq
Ltmp49:
Lfunc_end21:
	.cfi_endproc

	.globl	__ZN2az12checked_cast17h285f57fdd4d33621E
	.p2align	4, 0x90
__ZN2az12checked_cast17h285f57fdd4d33621E:
Lfunc_begin22:
	.loc	5 1027 0
	.cfi_startproc
	pushq	%rbp
	.cfi_def_cfa_offset 16
	.cfi_offset %rbp, -16
	movq	%rsp, %rbp
	.cfi_def_cfa_register %rbp
	subq	$16, %rsp
	movq	%rdi, -8(%rbp)
Ltmp50:
	.loc	5 1028 5 prologue_end
	callq	__ZN2az3int60_$LT$impl$u20$az..CheckedCast$LT$i16$GT$$u20$for$u20$u64$GT$12checked_cast17h88ebc3823e503df2E
	.loc	5 1029 2
	addq	$16, %rsp
	popq	%rbp
	retq
Ltmp51:
Lfunc_end22:
	.cfi_endproc

	.globl	__ZN2az12checked_cast17h2c9d10420faed012E
	.p2align	4, 0x90
__ZN2az12checked_cast17h2c9d10420faed012E:
Lfunc_begin23:
	.loc	5 1027 0
	.cfi_startproc
	pushq	%rbp
	.cfi_def_cfa_offset 16
	.cfi_offset %rbp, -16
	movq	%rsp, %rbp
	.cfi_def_cfa_register %rbp
	subq	$16, %rsp
	movq	%rdi, -8(%rbp)
Ltmp52:
	.loc	5 1028 5 prologue_end
	callq	__ZN2az3int60_$LT$impl$u20$az..CheckedCast$LT$i32$GT$$u20$for$u20$u64$GT$12checked_cast17h69a74fb9b5e67102E
	.loc	5 1029 2
	addq	$16, %rsp
	popq	%rbp
	retq
Ltmp53:
Lfunc_end23:
	.cfi_endproc

	.globl	__ZN2az12checked_cast17h2dfdb037ef236cd8E
	.p2align	4, 0x90
__ZN2az12checked_cast17h2dfdb037ef236cd8E:
Lfunc_begin24:
	.loc	5 1027 0
	.cfi_startproc
	pushq	%rbp
	.cfi_def_cfa_offset 16
	.cfi_offset %rbp, -16
	movq	%rsp, %rbp
	.cfi_def_cfa_register %rbp
	subq	$16, %rsp
	movl	%edi, -4(%rbp)
Ltmp54:
	.loc	5 1028 5 prologue_end
	callq	__ZN2az3int59_$LT$impl$u20$az..CheckedCast$LT$u8$GT$$u20$for$u20$u32$GT$12checked_cast17hb01b221b180c8711E
	.loc	5 1029 2
	andb	$1, %al
	addq	$16, %rsp
	popq	%rbp
	retq
Ltmp55:
Lfunc_end24:
	.cfi_endproc

	.globl	__ZN2az12checked_cast17h414d0f587666721dE
	.p2align	4, 0x90
__ZN2az12checked_cast17h414d0f587666721dE:
Lfunc_begin25:
	.loc	5 1027 0
	.cfi_startproc
	pushq	%rbp
	.cfi_def_cfa_offset 16
	.cfi_offset %rbp, -16
	movq	%rsp, %rbp
	.cfi_def_cfa_register %rbp
	subq	$16, %rsp
	movq	%rdi, -8(%rbp)
Ltmp56:
	.loc	5 1028 5 prologue_end
	callq	__ZN2az3int59_$LT$impl$u20$az..CheckedCast$LT$i8$GT$$u20$for$u20$i64$GT$12checked_cast17h0743a393810fdbc1E
	.loc	5 1029 2
	andb	$1, %al
	addq	$16, %rsp
	popq	%rbp
	retq
Ltmp57:
Lfunc_end25:
	.cfi_endproc

	.globl	__ZN2az12checked_cast17h4168016283181965E
	.p2align	4, 0x90
__ZN2az12checked_cast17h4168016283181965E:
Lfunc_begin26:
	.loc	5 1027 0
	.cfi_startproc
	pushq	%rbp
	.cfi_def_cfa_offset 16
	.cfi_offset %rbp, -16
	movq	%rsp, %rbp
	.cfi_def_cfa_register %rbp
	subq	$16, %rsp
	movq	%rdi, -8(%rbp)
Ltmp58:
	.loc	5 1028 5 prologue_end
	callq	__ZN2az3int62_$LT$impl$u20$az..CheckedCast$LT$isize$GT$$u20$for$u20$i64$GT$12checked_cast17ha8c2c4ce5892afd6E
	.loc	5 1029 2
	addq	$16, %rsp
	popq	%rbp
	retq
Ltmp59:
Lfunc_end26:
	.cfi_endproc

	.globl	__ZN2az12checked_cast17h53bb088abc790a42E
	.p2align	4, 0x90
__ZN2az12checked_cast17h53bb088abc790a42E:
Lfunc_begin27:
	.loc	5 1027 0
	.cfi_startproc
	pushq	%rbp
	.cfi_def_cfa_offset 16
	.cfi_offset %rbp, -16
	movq	%rsp, %rbp
	.cfi_def_cfa_register %rbp
	subq	$16, %rsp
	movq	%rdi, -8(%rbp)
Ltmp60:
	.loc	5 1028 5 prologue_end
	callq	__ZN2az3int60_$LT$impl$u20$az..CheckedCast$LT$u64$GT$$u20$for$u20$u64$GT$12checked_cast17haadf5a8b0297328cE
	.loc	5 1029 2
	addq	$16, %rsp
	popq	%rbp
	retq
Ltmp61:
Lfunc_end27:
	.cfi_endproc

	.globl	__ZN2az12checked_cast17h54adfd2f4593f05aE
	.p2align	4, 0x90
__ZN2az12checked_cast17h54adfd2f4593f05aE:
Lfunc_begin28:
	.loc	5 1027 0
	.cfi_startproc
	pushq	%rbp
	.cfi_def_cfa_offset 16
	.cfi_offset %rbp, -16
	movq	%rsp, %rbp
	.cfi_def_cfa_register %rbp
	subq	$16, %rsp
	movq	%rdi, -8(%rbp)
Ltmp62:
	.loc	5 1028 5 prologue_end
	callq	__ZN2az3int60_$LT$impl$u20$az..CheckedCast$LT$u16$GT$$u20$for$u20$u64$GT$12checked_cast17h9551bc3be074906cE
	.loc	5 1029 2
	addq	$16, %rsp
	popq	%rbp
	retq
Ltmp63:
Lfunc_end28:
	.cfi_endproc

	.globl	__ZN2az12checked_cast17h6c5fe991a0c52690E
	.p2align	4, 0x90
__ZN2az12checked_cast17h6c5fe991a0c52690E:
Lfunc_begin29:
	.loc	5 1027 0
	.cfi_startproc
	pushq	%rbp
	.cfi_def_cfa_offset 16
	.cfi_offset %rbp, -16
	movq	%rsp, %rbp
	.cfi_def_cfa_register %rbp
	subq	$16, %rsp
	movq	%rdi, -8(%rbp)
Ltmp64:
	.loc	5 1028 5 prologue_end
	callq	__ZN2az3int60_$LT$impl$u20$az..CheckedCast$LT$u32$GT$$u20$for$u20$u64$GT$12checked_cast17h7174d257e4856852E
	.loc	5 1029 2
	addq	$16, %rsp
	popq	%rbp
	retq
Ltmp65:
Lfunc_end29:
	.cfi_endproc

	.globl	__ZN2az12checked_cast17h6e67fcc075d138a9E
	.p2align	4, 0x90
__ZN2az12checked_cast17h6e67fcc075d138a9E:
Lfunc_begin30:
	.loc	5 1027 0
	.cfi_startproc
	pushq	%rbp
	.cfi_def_cfa_offset 16
	.cfi_offset %rbp, -16
	movq	%rsp, %rbp
	.cfi_def_cfa_register %rbp
	subq	$16, %rsp
	movl	%edi, -4(%rbp)
Ltmp66:
	.loc	5 1028 5 prologue_end
	callq	__ZN2az3int60_$LT$impl$u20$az..CheckedCast$LT$u32$GT$$u20$for$u20$u32$GT$12checked_cast17hdb2de1471471baf6E
	.loc	5 1029 2
	addq	$16, %rsp
	popq	%rbp
	retq
Ltmp67:
Lfunc_end30:
	.cfi_endproc

	.globl	__ZN2az12checked_cast17h75df53a922250d83E
	.p2align	4, 0x90
__ZN2az12checked_cast17h75df53a922250d83E:
Lfunc_begin31:
	.loc	5 1027 0
	.cfi_startproc
	pushq	%rbp
	.cfi_def_cfa_offset 16
	.cfi_offset %rbp, -16
	movq	%rsp, %rbp
	.cfi_def_cfa_register %rbp
	subq	$16, %rsp
	movl	%edi, -4(%rbp)
Ltmp68:
	.loc	5 1028 5 prologue_end
	callq	__ZN2az3int60_$LT$impl$u20$az..CheckedCast$LT$u16$GT$$u20$for$u20$i32$GT$12checked_cast17h4088aa7fc8fc3217E
	.loc	5 1029 2
	addq	$16, %rsp
	popq	%rbp
	retq
Ltmp69:
Lfunc_end31:
	.cfi_endproc

	.globl	__ZN2az12checked_cast17h799dcdbe09ffe511E
	.p2align	4, 0x90
__ZN2az12checked_cast17h799dcdbe09ffe511E:
Lfunc_begin32:
	.loc	5 1027 0
	.cfi_startproc
	pushq	%rbp
	.cfi_def_cfa_offset 16
	.cfi_offset %rbp, -16
	movq	%rsp, %rbp
	.cfi_def_cfa_register %rbp
	subq	$16, %rsp
	movq	%rdi, -8(%rbp)
Ltmp70:
	.loc	5 1028 5 prologue_end
	callq	__ZN2az3int62_$LT$impl$u20$az..CheckedCast$LT$isize$GT$$u20$for$u20$u64$GT$12checked_cast17h5d2763b509083574E
	.loc	5 1029 2
	addq	$16, %rsp
	popq	%rbp
	retq
Ltmp71:
Lfunc_end32:
	.cfi_endproc

	.globl	__ZN2az12checked_cast17h7a2cbb3071efc4d9E
	.p2align	4, 0x90
__ZN2az12checked_cast17h7a2cbb3071efc4d9E:
Lfunc_begin33:
	.loc	5 1027 0
	.cfi_startproc
	pushq	%rbp
	.cfi_def_cfa_offset 16
	.cfi_offset %rbp, -16
	movq	%rsp, %rbp
	.cfi_def_cfa_register %rbp
	subq	$16, %rsp
	movl	%edi, -4(%rbp)
Ltmp72:
	.loc	5 1028 5 prologue_end
	callq	__ZN2az3int60_$LT$impl$u20$az..CheckedCast$LT$i16$GT$$u20$for$u20$i32$GT$12checked_cast17h8ab3551a77d95f9aE
	.loc	5 1029 2
	addq	$16, %rsp
	popq	%rbp
	retq
Ltmp73:
Lfunc_end33:
	.cfi_endproc

	.globl	__ZN2az12checked_cast17h7b2231722493b838E
	.p2align	4, 0x90
__ZN2az12checked_cast17h7b2231722493b838E:
Lfunc_begin34:
	.loc	5 1027 0
	.cfi_startproc
	pushq	%rbp
	.cfi_def_cfa_offset 16
	.cfi_offset %rbp, -16
	movq	%rsp, %rbp
	.cfi_def_cfa_register %rbp
	subq	$16, %rsp
	movq	%rdi, -8(%rbp)
Ltmp74:
	.loc	5 1028 5 prologue_end
	callq	__ZN2az3int62_$LT$impl$u20$az..CheckedCast$LT$usize$GT$$u20$for$u20$u64$GT$12checked_cast17hc5ae7325922503bbE
	.loc	5 1029 2
	addq	$16, %rsp
	popq	%rbp
	retq
Ltmp75:
Lfunc_end34:
	.cfi_endproc

	.globl	__ZN2az12checked_cast17h807f11ddb4e5335bE
	.p2align	4, 0x90
__ZN2az12checked_cast17h807f11ddb4e5335bE:
Lfunc_begin35:
	.loc	5 1027 0
	.cfi_startproc
	pushq	%rbp
	.cfi_def_cfa_offset 16
	.cfi_offset %rbp, -16
	movq	%rsp, %rbp
	.cfi_def_cfa_register %rbp
	subq	$16, %rsp
	movl	%edi, -4(%rbp)
Ltmp76:
	.loc	5 1028 5 prologue_end
	callq	__ZN2az3int60_$LT$impl$u20$az..CheckedCast$LT$i16$GT$$u20$for$u20$u32$GT$12checked_cast17h119935fc195ce35dE
	.loc	5 1029 2
	addq	$16, %rsp
	popq	%rbp
	retq
Ltmp77:
Lfunc_end35:
	.cfi_endproc

	.globl	__ZN2az12checked_cast17h85b9b0bf27dbb3f7E
	.p2align	4, 0x90
__ZN2az12checked_cast17h85b9b0bf27dbb3f7E:
Lfunc_begin36:
	.loc	5 1027 0
	.cfi_startproc
	pushq	%rbp
	.cfi_def_cfa_offset 16
	.cfi_offset %rbp, -16
	movq	%rsp, %rbp
	.cfi_def_cfa_register %rbp
	subq	$16, %rsp
	movq	%rdi, -8(%rbp)
Ltmp78:
	.loc	5 1028 5 prologue_end
	callq	__ZN2az3int60_$LT$impl$u20$az..CheckedCast$LT$i64$GT$$u20$for$u20$u64$GT$12checked_cast17h0ee267dcce2cac0cE
	.loc	5 1029 2
	addq	$16, %rsp
	popq	%rbp
	retq
Ltmp79:
Lfunc_end36:
	.cfi_endproc

	.globl	__ZN2az12checked_cast17h97757a96c2b265fcE
	.p2align	4, 0x90
__ZN2az12checked_cast17h97757a96c2b265fcE:
Lfunc_begin37:
	.loc	5 1027 0
	.cfi_startproc
	pushq	%rbp
	.cfi_def_cfa_offset 16
	.cfi_offset %rbp, -16
	movq	%rsp, %rbp
	.cfi_def_cfa_register %rbp
	subq	$16, %rsp
	movq	%rdi, -8(%rbp)
Ltmp80:
	.loc	5 1028 5 prologue_end
	callq	__ZN2az3int62_$LT$impl$u20$az..CheckedCast$LT$usize$GT$$u20$for$u20$i64$GT$12checked_cast17h6ab4cd9b3be8be54E
	.loc	5 1029 2
	addq	$16, %rsp
	popq	%rbp
	retq
Ltmp81:
Lfunc_end37:
	.cfi_endproc

	.globl	__ZN2az12checked_cast17ha0aaa37c2fd21176E
	.p2align	4, 0x90
__ZN2az12checked_cast17ha0aaa37c2fd21176E:
Lfunc_begin38:
	.loc	5 1027 0
	.cfi_startproc
	pushq	%rbp
	.cfi_def_cfa_offset 16
	.cfi_offset %rbp, -16
	movq	%rsp, %rbp
	.cfi_def_cfa_register %rbp
	subq	$16, %rsp
	movl	%edi, -4(%rbp)
Ltmp82:
	.loc	5 1028 5 prologue_end
	callq	__ZN2az3int59_$LT$impl$u20$az..CheckedCast$LT$i8$GT$$u20$for$u20$i32$GT$12checked_cast17hc76dec87375fa104E
	.loc	5 1029 2
	andb	$1, %al
	addq	$16, %rsp
	popq	%rbp
	retq
Ltmp83:
Lfunc_end38:
	.cfi_endproc

	.globl	__ZN2az12checked_cast17ha73c640cec654c25E
	.p2align	4, 0x90
__ZN2az12checked_cast17ha73c640cec654c25E:
Lfunc_begin39:
	.loc	5 1027 0
	.cfi_startproc
	pushq	%rbp
	.cfi_def_cfa_offset 16
	.cfi_offset %rbp, -16
	movq	%rsp, %rbp
	.cfi_def_cfa_register %rbp
	subq	$16, %rsp
	movq	%rdi, -8(%rbp)
Ltmp84:
	.loc	5 1028 5 prologue_end
	callq	__ZN2az3int59_$LT$impl$u20$az..CheckedCast$LT$u8$GT$$u20$for$u20$i64$GT$12checked_cast17hf5f9e57f7170fd51E
	.loc	5 1029 2
	andb	$1, %al
	addq	$16, %rsp
	popq	%rbp
	retq
Ltmp85:
Lfunc_end39:
	.cfi_endproc

	.globl	__ZN2az12checked_cast17hac0a3a0f82bddea2E
	.p2align	4, 0x90
__ZN2az12checked_cast17hac0a3a0f82bddea2E:
Lfunc_begin40:
	.loc	5 1027 0
	.cfi_startproc
	pushq	%rbp
	.cfi_def_cfa_offset 16
	.cfi_offset %rbp, -16
	movq	%rsp, %rbp
	.cfi_def_cfa_register %rbp
	subq	$16, %rsp
	movq	%rdi, -8(%rbp)
Ltmp86:
	.loc	5 1028 5 prologue_end
	callq	__ZN2az3int60_$LT$impl$u20$az..CheckedCast$LT$i16$GT$$u20$for$u20$i64$GT$12checked_cast17h66eb7934663e66d2E
	.loc	5 1029 2
	addq	$16, %rsp
	popq	%rbp
	retq
Ltmp87:
Lfunc_end40:
	.cfi_endproc

	.globl	__ZN2az12checked_cast17haefd6aba94aa19b9E
	.p2align	4, 0x90
__ZN2az12checked_cast17haefd6aba94aa19b9E:
Lfunc_begin41:
	.loc	5 1027 0
	.cfi_startproc
	pushq	%rbp
	.cfi_def_cfa_offset 16
	.cfi_offset %rbp, -16
	movq	%rsp, %rbp
	.cfi_def_cfa_register %rbp
	subq	$16, %rsp
	movl	%edi, -4(%rbp)
Ltmp88:
	.loc	5 1028 5 prologue_end
	callq	__ZN2az3int60_$LT$impl$u20$az..CheckedCast$LT$i32$GT$$u20$for$u20$i32$GT$12checked_cast17ha56a63df652812deE
	.loc	5 1029 2
	addq	$16, %rsp
	popq	%rbp
	retq
Ltmp89:
Lfunc_end41:
	.cfi_endproc

	.globl	__ZN2az12checked_cast17hbabcb4db91495df9E
	.p2align	4, 0x90
__ZN2az12checked_cast17hbabcb4db91495df9E:
Lfunc_begin42:
	.loc	5 1027 0
	.cfi_startproc
	pushq	%rbp
	.cfi_def_cfa_offset 16
	.cfi_offset %rbp, -16
	movq	%rsp, %rbp
	.cfi_def_cfa_register %rbp
	subq	$16, %rsp
	movq	%rdi, -16(%rbp)
	movq	%rsi, -8(%rbp)
Ltmp90:
	.loc	5 1028 5 prologue_end
	callq	__ZN2az3int62_$LT$impl$u20$az..CheckedCast$LT$u128$GT$$u20$for$u20$i128$GT$12checked_cast17h2b5696297e2aaab4E
	.loc	5 1029 2
	addq	$16, %rsp
	popq	%rbp
	retq
Ltmp91:
Lfunc_end42:
	.cfi_endproc

	.globl	__ZN2az12checked_cast17hc0418b63738dfb92E
	.p2align	4, 0x90
__ZN2az12checked_cast17hc0418b63738dfb92E:
Lfunc_begin43:
	.loc	5 1027 0
	.cfi_startproc
	pushq	%rbp
	.cfi_def_cfa_offset 16
	.cfi_offset %rbp, -16
	movq	%rsp, %rbp
	.cfi_def_cfa_register %rbp
	subq	$16, %rsp
	movl	%edi, -4(%rbp)
Ltmp92:
	.loc	5 1028 5 prologue_end
	callq	__ZN2az3int59_$LT$impl$u20$az..CheckedCast$LT$i8$GT$$u20$for$u20$u32$GT$12checked_cast17ha3c4506c5abf11e7E
	.loc	5 1029 2
	andb	$1, %al
	addq	$16, %rsp
	popq	%rbp
	retq
Ltmp93:
Lfunc_end43:
	.cfi_endproc

	.globl	__ZN2az12checked_cast17hc83d434345ac714bE
	.p2align	4, 0x90
__ZN2az12checked_cast17hc83d434345ac714bE:
Lfunc_begin44:
	.loc	5 1027 0
	.cfi_startproc
	pushq	%rbp
	.cfi_def_cfa_offset 16
	.cfi_offset %rbp, -16
	movq	%rsp, %rbp
	.cfi_def_cfa_register %rbp
	subq	$16, %rsp
	movl	%edi, -4(%rbp)
Ltmp94:
	.loc	5 1028 5 prologue_end
	callq	__ZN2az3int60_$LT$impl$u20$az..CheckedCast$LT$u32$GT$$u20$for$u20$i32$GT$12checked_cast17hd36266cac481d5b9E
	.loc	5 1029 2
	addq	$16, %rsp
	popq	%rbp
	retq
Ltmp95:
Lfunc_end44:
	.cfi_endproc

	.globl	__ZN2az12checked_cast17hda4683e3d88d229dE
	.p2align	4, 0x90
__ZN2az12checked_cast17hda4683e3d88d229dE:
Lfunc_begin45:
	.loc	5 1027 0
	.cfi_startproc
	pushq	%rbp
	.cfi_def_cfa_offset 16
	.cfi_offset %rbp, -16
	movq	%rsp, %rbp
	.cfi_def_cfa_register %rbp
	subq	$16, %rsp
	movq	%rdi, -8(%rbp)
Ltmp96:
	.loc	5 1028 5 prologue_end
	callq	__ZN2az3int60_$LT$impl$u20$az..CheckedCast$LT$i32$GT$$u20$for$u20$i64$GT$12checked_cast17h5936a8e6c6c1dfe7E
	.loc	5 1029 2
	addq	$16, %rsp
	popq	%rbp
	retq
Ltmp97:
Lfunc_end45:
	.cfi_endproc

	.globl	__ZN2az12checked_cast17he388122f83858f08E
	.p2align	4, 0x90
__ZN2az12checked_cast17he388122f83858f08E:
Lfunc_begin46:
	.loc	5 1027 0
	.cfi_startproc
	pushq	%rbp
	.cfi_def_cfa_offset 16
	.cfi_offset %rbp, -16
	movq	%rsp, %rbp
	.cfi_def_cfa_register %rbp
	subq	$16, %rsp
	movq	%rdi, -8(%rbp)
Ltmp98:
	.loc	5 1028 5 prologue_end
	callq	__ZN2az3int60_$LT$impl$u20$az..CheckedCast$LT$i64$GT$$u20$for$u20$i64$GT$12checked_cast17h7a4d058fc1206674E
	.loc	5 1029 2
	addq	$16, %rsp
	popq	%rbp
	retq
Ltmp99:
Lfunc_end46:
	.cfi_endproc

	.globl	__ZN2az12checked_cast17he3fa8a0fe01ab07aE
	.p2align	4, 0x90
__ZN2az12checked_cast17he3fa8a0fe01ab07aE:
Lfunc_begin47:
	.loc	5 1027 0
	.cfi_startproc
	pushq	%rbp
	.cfi_def_cfa_offset 16
	.cfi_offset %rbp, -16
	movq	%rsp, %rbp
	.cfi_def_cfa_register %rbp
	subq	$16, %rsp
	movq	%rdi, -16(%rbp)
	movq	%rsi, -8(%rbp)
Ltmp100:
	.loc	5 1028 5 prologue_end
	callq	__ZN2az3int62_$LT$impl$u20$az..CheckedCast$LT$i128$GT$$u20$for$u20$u128$GT$12checked_cast17h9b650534c862a655E
	.loc	5 1029 2
	addq	$16, %rsp
	popq	%rbp
	retq
Ltmp101:
Lfunc_end47:
	.cfi_endproc

	.globl	__ZN2az12checked_cast17hef297ba6635bc11eE
	.p2align	4, 0x90
__ZN2az12checked_cast17hef297ba6635bc11eE:
Lfunc_begin48:
	.loc	5 1027 0
	.cfi_startproc
	pushq	%rbp
	.cfi_def_cfa_offset 16
	.cfi_offset %rbp, -16
	movq	%rsp, %rbp
	.cfi_def_cfa_register %rbp
	subq	$16, %rsp
	movq	%rdi, -8(%rbp)
Ltmp102:
	.loc	5 1028 5 prologue_end
	callq	__ZN2az3int60_$LT$impl$u20$az..CheckedCast$LT$u32$GT$$u20$for$u20$i64$GT$12checked_cast17h4d454c2b4bb3bc54E
	.loc	5 1029 2
	addq	$16, %rsp
	popq	%rbp
	retq
Ltmp103:
Lfunc_end48:
	.cfi_endproc

	.globl	__ZN2az12checked_cast17hf129d03a2b3dc2c8E
	.p2align	4, 0x90
__ZN2az12checked_cast17hf129d03a2b3dc2c8E:
Lfunc_begin49:
	.loc	5 1027 0
	.cfi_startproc
	pushq	%rbp
	.cfi_def_cfa_offset 16
	.cfi_offset %rbp, -16
	movq	%rsp, %rbp
	.cfi_def_cfa_register %rbp
	subq	$16, %rsp
	movq	%rdi, -8(%rbp)
Ltmp104:
	.loc	5 1028 5 prologue_end
	callq	__ZN2az3int59_$LT$impl$u20$az..CheckedCast$LT$i8$GT$$u20$for$u20$u64$GT$12checked_cast17h44f0408822a1d8c9E
	.loc	5 1029 2
	andb	$1, %al
	addq	$16, %rsp
	popq	%rbp
	retq
Ltmp105:
Lfunc_end49:
	.cfi_endproc

	.globl	__ZN2az12checked_cast17hf1d9239f5abd5383E
	.p2align	4, 0x90
__ZN2az12checked_cast17hf1d9239f5abd5383E:
Lfunc_begin50:
	.loc	5 1027 0
	.cfi_startproc
	pushq	%rbp
	.cfi_def_cfa_offset 16
	.cfi_offset %rbp, -16
	movq	%rsp, %rbp
	.cfi_def_cfa_register %rbp
	subq	$16, %rsp
	movl	%edi, -4(%rbp)
Ltmp106:
	.loc	5 1028 5 prologue_end
	callq	__ZN2az3int60_$LT$impl$u20$az..CheckedCast$LT$i32$GT$$u20$for$u20$u32$GT$12checked_cast17h94bb6d3bd3cb39daE
	.loc	5 1029 2
	addq	$16, %rsp
	popq	%rbp
	retq
Ltmp107:
Lfunc_end50:
	.cfi_endproc

	.globl	__ZN2az12checked_cast17hf3c610f163f4e3feE
	.p2align	4, 0x90
__ZN2az12checked_cast17hf3c610f163f4e3feE:
Lfunc_begin51:
	.loc	5 1027 0
	.cfi_startproc
	pushq	%rbp
	.cfi_def_cfa_offset 16
	.cfi_offset %rbp, -16
	movq	%rsp, %rbp
	.cfi_def_cfa_register %rbp
	subq	$16, %rsp
	movq	%rdi, -8(%rbp)
Ltmp108:
	.loc	5 1028 5 prologue_end
	callq	__ZN2az3int60_$LT$impl$u20$az..CheckedCast$LT$u16$GT$$u20$for$u20$i64$GT$12checked_cast17hebe1aaef20c445b6E
	.loc	5 1029 2
	addq	$16, %rsp
	popq	%rbp
	retq
Ltmp109:
Lfunc_end51:
	.cfi_endproc

	.globl	__ZN2az12checked_cast17hfc615f7f9de4d5b8E
	.p2align	4, 0x90
__ZN2az12checked_cast17hfc615f7f9de4d5b8E:
Lfunc_begin52:
	.loc	5 1027 0
	.cfi_startproc
	pushq	%rbp
	.cfi_def_cfa_offset 16
	.cfi_offset %rbp, -16
	movq	%rsp, %rbp
	.cfi_def_cfa_register %rbp
	subq	$16, %rsp
	movl	%edi, -4(%rbp)
Ltmp110:
	.loc	5 1028 5 prologue_end
	callq	__ZN2az3int59_$LT$impl$u20$az..CheckedCast$LT$u8$GT$$u20$for$u20$i32$GT$12checked_cast17hb1b82e4a38e95cc9E
	.loc	5 1029 2
	andb	$1, %al
	addq	$16, %rsp
	popq	%rbp
	retq
Ltmp111:
Lfunc_end52:
	.cfi_endproc

	.globl	__ZN2az15saturating_cast17h12057b120c04f537E
	.p2align	4, 0x90
__ZN2az15saturating_cast17h12057b120c04f537E:
Lfunc_begin53:
	.loc	5 1047 0
	.cfi_startproc
	pushq	%rbp
	.cfi_def_cfa_offset 16
	.cfi_offset %rbp, -16
	movq	%rsp, %rbp
	.cfi_def_cfa_register %rbp
	subq	$16, %rsp
	movq	%rdi, -16(%rbp)
	movq	%rsi, -8(%rbp)
Ltmp112:
	.loc	5 1048 5 prologue_end
	callq	__ZN2az3int65_$LT$impl$u20$az..SaturatingCast$LT$i128$GT$$u20$for$u20$u128$GT$15saturating_cast17hf5ce103f7ecc81e3E
	.loc	5 1049 2
	addq	$16, %rsp
	popq	%rbp
	retq
Ltmp113:
Lfunc_end53:
	.cfi_endproc

	.globl	__ZN2az15saturating_cast17h1815f00d5e64f2d8E
	.p2align	4, 0x90
__ZN2az15saturating_cast17h1815f00d5e64f2d8E:
Lfunc_begin54:
	.loc	5 1047 0
	.cfi_startproc
	pushq	%rbp
	.cfi_def_cfa_offset 16
	.cfi_offset %rbp, -16
	movq	%rsp, %rbp
	.cfi_def_cfa_register %rbp
	subq	$16, %rsp
	movq	%rdi, -8(%rbp)
Ltmp114:
	.loc	5 1048 5 prologue_end
	callq	__ZN2az3int63_$LT$impl$u20$az..SaturatingCast$LT$u16$GT$$u20$for$u20$u64$GT$15saturating_cast17h106f17fcfaf42235E
	.loc	5 1049 2
	addq	$16, %rsp
	popq	%rbp
	retq
Ltmp115:
Lfunc_end54:
	.cfi_endproc

	.globl	__ZN2az15saturating_cast17h19002c1e0204ab27E
	.p2align	4, 0x90
__ZN2az15saturating_cast17h19002c1e0204ab27E:
Lfunc_begin55:
	.loc	5 1047 0
	.cfi_startproc
	pushq	%rbp
	.cfi_def_cfa_offset 16
	.cfi_offset %rbp, -16
	movq	%rsp, %rbp
	.cfi_def_cfa_register %rbp
	subq	$16, %rsp
	movq	%rdi, -8(%rbp)
Ltmp116:
	.loc	5 1048 5 prologue_end
	callq	__ZN2az3int63_$LT$impl$u20$az..SaturatingCast$LT$i32$GT$$u20$for$u20$i64$GT$15saturating_cast17h133920a2f7b18c66E
	.loc	5 1049 2
	addq	$16, %rsp
	popq	%rbp
	retq
Ltmp117:
Lfunc_end55:
	.cfi_endproc

	.globl	__ZN2az15saturating_cast17h1aad1d62412d8dcdE
	.p2align	4, 0x90
__ZN2az15saturating_cast17h1aad1d62412d8dcdE:
Lfunc_begin56:
	.loc	5 1047 0
	.cfi_startproc
	pushq	%rbp
	.cfi_def_cfa_offset 16
	.cfi_offset %rbp, -16
	movq	%rsp, %rbp
	.cfi_def_cfa_register %rbp
	subq	$16, %rsp
	movl	%edi, -4(%rbp)
Ltmp118:
	.loc	5 1048 5 prologue_end
	callq	__ZN2az3int62_$LT$impl$u20$az..SaturatingCast$LT$u8$GT$$u20$for$u20$i32$GT$15saturating_cast17h0f9da3d4e70ecc07E
	.loc	5 1049 2
	addq	$16, %rsp
	popq	%rbp
	retq
Ltmp119:
Lfunc_end56:
	.cfi_endproc

	.globl	__ZN2az15saturating_cast17h3c1378a96b9137acE
	.p2align	4, 0x90
__ZN2az15saturating_cast17h3c1378a96b9137acE:
Lfunc_begin57:
	.loc	5 1047 0
	.cfi_startproc
	pushq	%rbp
	.cfi_def_cfa_offset 16
	.cfi_offset %rbp, -16
	movq	%rsp, %rbp
	.cfi_def_cfa_register %rbp
	subq	$16, %rsp
	movq	%rdi, -8(%rbp)
Ltmp120:
	.loc	5 1048 5 prologue_end
	callq	__ZN2az3int62_$LT$impl$u20$az..SaturatingCast$LT$i8$GT$$u20$for$u20$u64$GT$15saturating_cast17h65b5332fece9e8fdE
	.loc	5 1049 2
	addq	$16, %rsp
	popq	%rbp
	retq
Ltmp121:
Lfunc_end57:
	.cfi_endproc

	.globl	__ZN2az15saturating_cast17h42440abaac13452eE
	.p2align	4, 0x90
__ZN2az15saturating_cast17h42440abaac13452eE:
Lfunc_begin58:
	.loc	5 1047 0
	.cfi_startproc
	pushq	%rbp
	.cfi_def_cfa_offset 16
	.cfi_offset %rbp, -16
	movq	%rsp, %rbp
	.cfi_def_cfa_register %rbp
	subq	$16, %rsp
	movq	%rdi, -8(%rbp)
Ltmp122:
	.loc	5 1048 5 prologue_end
	callq	__ZN2az3int63_$LT$impl$u20$az..SaturatingCast$LT$i64$GT$$u20$for$u20$u64$GT$15saturating_cast17h8abbf5462aeebcd9E
	.loc	5 1049 2
	addq	$16, %rsp
	popq	%rbp
	retq
Ltmp123:
Lfunc_end58:
	.cfi_endproc

	.globl	__ZN2az15saturating_cast17h4b320b1e267d56b4E
	.p2align	4, 0x90
__ZN2az15saturating_cast17h4b320b1e267d56b4E:
Lfunc_begin59:
	.loc	5 1047 0
	.cfi_startproc
	pushq	%rbp
	.cfi_def_cfa_offset 16
	.cfi_offset %rbp, -16
	movq	%rsp, %rbp
	.cfi_def_cfa_register %rbp
	subq	$16, %rsp
	movq	%rdi, -8(%rbp)
Ltmp124:
	.loc	5 1048 5 prologue_end
	callq	__ZN2az3int63_$LT$impl$u20$az..SaturatingCast$LT$i32$GT$$u20$for$u20$u64$GT$15saturating_cast17h804ab33a74c75684E
	.loc	5 1049 2
	addq	$16, %rsp
	popq	%rbp
	retq
Ltmp125:
Lfunc_end59:
	.cfi_endproc

	.globl	__ZN2az15saturating_cast17h4f63a352dd977569E
	.p2align	4, 0x90
__ZN2az15saturating_cast17h4f63a352dd977569E:
Lfunc_begin60:
	.loc	5 1047 0
	.cfi_startproc
	pushq	%rbp
	.cfi_def_cfa_offset 16
	.cfi_offset %rbp, -16
	movq	%rsp, %rbp
	.cfi_def_cfa_register %rbp
	subq	$16, %rsp
	movq	%rdi, -8(%rbp)
Ltmp126:
	.loc	5 1048 5 prologue_end
	callq	__ZN2az3int65_$LT$impl$u20$az..SaturatingCast$LT$usize$GT$$u20$for$u20$u64$GT$15saturating_cast17h1d6e84da43c8866cE
	.loc	5 1049 2
	addq	$16, %rsp
	popq	%rbp
	retq
Ltmp127:
Lfunc_end60:
	.cfi_endproc

	.globl	__ZN2az15saturating_cast17h52f140f7932041b8E
	.p2align	4, 0x90
__ZN2az15saturating_cast17h52f140f7932041b8E:
Lfunc_begin61:
	.loc	5 1047 0
	.cfi_startproc
	pushq	%rbp
	.cfi_def_cfa_offset 16
	.cfi_offset %rbp, -16
	movq	%rsp, %rbp
	.cfi_def_cfa_register %rbp
	subq	$16, %rsp
	movl	%edi, -4(%rbp)
Ltmp128:
	.loc	5 1048 5 prologue_end
	callq	__ZN2az3int63_$LT$impl$u20$az..SaturatingCast$LT$i32$GT$$u20$for$u20$i32$GT$15saturating_cast17h2a29683e18ac1783E
	.loc	5 1049 2
	addq	$16, %rsp
	popq	%rbp
	retq
Ltmp129:
Lfunc_end61:
	.cfi_endproc

	.globl	__ZN2az15saturating_cast17h53691d4b7239f8c9E
	.p2align	4, 0x90
__ZN2az15saturating_cast17h53691d4b7239f8c9E:
Lfunc_begin62:
	.loc	5 1047 0
	.cfi_startproc
	pushq	%rbp
	.cfi_def_cfa_offset 16
	.cfi_offset %rbp, -16
	movq	%rsp, %rbp
	.cfi_def_cfa_register %rbp
	subq	$16, %rsp
	movl	%edi, -4(%rbp)
Ltmp130:
	.loc	5 1048 5 prologue_end
	callq	__ZN2az3int63_$LT$impl$u20$az..SaturatingCast$LT$i16$GT$$u20$for$u20$i32$GT$15saturating_cast17h8f77c3be937aafc9E
	.loc	5 1049 2
	addq	$16, %rsp
	popq	%rbp
	retq
Ltmp131:
Lfunc_end62:
	.cfi_endproc

	.globl	__ZN2az15saturating_cast17h54f7b72d37facecdE
	.p2align	4, 0x90
__ZN2az15saturating_cast17h54f7b72d37facecdE:
Lfunc_begin63:
	.loc	5 1047 0
	.cfi_startproc
	pushq	%rbp
	.cfi_def_cfa_offset 16
	.cfi_offset %rbp, -16
	movq	%rsp, %rbp
	.cfi_def_cfa_register %rbp
	subq	$16, %rsp
	movl	%edi, -4(%rbp)
Ltmp132:
	.loc	5 1048 5 prologue_end
	callq	__ZN2az3int63_$LT$impl$u20$az..SaturatingCast$LT$i32$GT$$u20$for$u20$u32$GT$15saturating_cast17hd63256ed1fbc726bE
	.loc	5 1049 2
	addq	$16, %rsp
	popq	%rbp
	retq
Ltmp133:
Lfunc_end63:
	.cfi_endproc

	.globl	__ZN2az15saturating_cast17h5776a5d9d87831d4E
	.p2align	4, 0x90
__ZN2az15saturating_cast17h5776a5d9d87831d4E:
Lfunc_begin64:
	.loc	5 1047 0
	.cfi_startproc
	pushq	%rbp
	.cfi_def_cfa_offset 16
	.cfi_offset %rbp, -16
	movq	%rsp, %rbp
	.cfi_def_cfa_register %rbp
	subq	$16, %rsp
	movq	%rdi, -8(%rbp)
Ltmp134:
	.loc	5 1048 5 prologue_end
	callq	__ZN2az3int62_$LT$impl$u20$az..SaturatingCast$LT$u8$GT$$u20$for$u20$u64$GT$15saturating_cast17h4203a4de60fb25bfE
	.loc	5 1049 2
	addq	$16, %rsp
	popq	%rbp
	retq
Ltmp135:
Lfunc_end64:
	.cfi_endproc

	.globl	__ZN2az15saturating_cast17h589498f0757a507dE
	.p2align	4, 0x90
__ZN2az15saturating_cast17h589498f0757a507dE:
Lfunc_begin65:
	.loc	5 1047 0
	.cfi_startproc
	pushq	%rbp
	.cfi_def_cfa_offset 16
	.cfi_offset %rbp, -16
	movq	%rsp, %rbp
	.cfi_def_cfa_register %rbp
	subq	$16, %rsp
	movl	%edi, -4(%rbp)
Ltmp136:
	.loc	5 1048 5 prologue_end
	callq	__ZN2az3int63_$LT$impl$u20$az..SaturatingCast$LT$u16$GT$$u20$for$u20$i32$GT$15saturating_cast17hedea524c152fa979E
	.loc	5 1049 2
	addq	$16, %rsp
	popq	%rbp
	retq
Ltmp137:
Lfunc_end65:
	.cfi_endproc

	.globl	__ZN2az15saturating_cast17h6e25731722ff467dE
	.p2align	4, 0x90
__ZN2az15saturating_cast17h6e25731722ff467dE:
Lfunc_begin66:
	.loc	5 1047 0
	.cfi_startproc
	pushq	%rbp
	.cfi_def_cfa_offset 16
	.cfi_offset %rbp, -16
	movq	%rsp, %rbp
	.cfi_def_cfa_register %rbp
	subq	$16, %rsp
	movq	%rdi, -16(%rbp)
	movq	%rsi, -8(%rbp)
Ltmp138:
	.loc	5 1048 5 prologue_end
	callq	__ZN2az3int65_$LT$impl$u20$az..SaturatingCast$LT$u128$GT$$u20$for$u20$u128$GT$15saturating_cast17hb62639624fcb221bE
	.loc	5 1049 2
	addq	$16, %rsp
	popq	%rbp
	retq
Ltmp139:
Lfunc_end66:
	.cfi_endproc

	.globl	__ZN2az15saturating_cast17h7027405e0dcef73dE
	.p2align	4, 0x90
__ZN2az15saturating_cast17h7027405e0dcef73dE:
Lfunc_begin67:
	.loc	5 1047 0
	.cfi_startproc
	pushq	%rbp
	.cfi_def_cfa_offset 16
	.cfi_offset %rbp, -16
	movq	%rsp, %rbp
	.cfi_def_cfa_register %rbp
	subq	$16, %rsp
	movq	%rdi, -8(%rbp)
Ltmp140:
	.loc	5 1048 5 prologue_end
	callq	__ZN2az3int63_$LT$impl$u20$az..SaturatingCast$LT$u64$GT$$u20$for$u20$u64$GT$15saturating_cast17h0f299dff6a14cc25E
	.loc	5 1049 2
	addq	$16, %rsp
	popq	%rbp
	retq
Ltmp141:
Lfunc_end67:
	.cfi_endproc

	.globl	__ZN2az15saturating_cast17h8e8409424c312582E
	.p2align	4, 0x90
__ZN2az15saturating_cast17h8e8409424c312582E:
Lfunc_begin68:
	.loc	5 1047 0
	.cfi_startproc
	pushq	%rbp
	.cfi_def_cfa_offset 16
	.cfi_offset %rbp, -16
	movq	%rsp, %rbp
	.cfi_def_cfa_register %rbp
	subq	$16, %rsp
	movq	%rdi, -16(%rbp)
	movq	%rsi, -8(%rbp)
Ltmp142:
	.loc	5 1048 5 prologue_end
	callq	__ZN2az3int65_$LT$impl$u20$az..SaturatingCast$LT$u128$GT$$u20$for$u20$i128$GT$15saturating_cast17h4c7b552738d079c7E
	.loc	5 1049 2
	addq	$16, %rsp
	popq	%rbp
	retq
Ltmp143:
Lfunc_end68:
	.cfi_endproc

	.globl	__ZN2az15saturating_cast17h90f08c66ffead657E
	.p2align	4, 0x90
__ZN2az15saturating_cast17h90f08c66ffead657E:
Lfunc_begin69:
	.loc	5 1047 0
	.cfi_startproc
	pushq	%rbp
	.cfi_def_cfa_offset 16
	.cfi_offset %rbp, -16
	movq	%rsp, %rbp
	.cfi_def_cfa_register %rbp
	subq	$16, %rsp
	movq	%rdi, -8(%rbp)
Ltmp144:
	.loc	5 1048 5 prologue_end
	callq	__ZN2az3int63_$LT$impl$u20$az..SaturatingCast$LT$u16$GT$$u20$for$u20$i64$GT$15saturating_cast17hed549144c05c38faE
	.loc	5 1049 2
	addq	$16, %rsp
	popq	%rbp
	retq
Ltmp145:
Lfunc_end69:
	.cfi_endproc

	.globl	__ZN2az15saturating_cast17h94390e85b09cd6b7E
	.p2align	4, 0x90
__ZN2az15saturating_cast17h94390e85b09cd6b7E:
Lfunc_begin70:
	.loc	5 1047 0
	.cfi_startproc
	pushq	%rbp
	.cfi_def_cfa_offset 16
	.cfi_offset %rbp, -16
	movq	%rsp, %rbp
	.cfi_def_cfa_register %rbp
	subq	$16, %rsp
	movl	%edi, -4(%rbp)
Ltmp146:
	.loc	5 1048 5 prologue_end
	callq	__ZN2az3int62_$LT$impl$u20$az..SaturatingCast$LT$u8$GT$$u20$for$u20$u32$GT$15saturating_cast17h7eee9d5f71528b5aE
	.loc	5 1049 2
	addq	$16, %rsp
	popq	%rbp
	retq
Ltmp147:
Lfunc_end70:
	.cfi_endproc

	.globl	__ZN2az15saturating_cast17h9661205e746a9398E
	.p2align	4, 0x90
__ZN2az15saturating_cast17h9661205e746a9398E:
Lfunc_begin71:
	.loc	5 1047 0
	.cfi_startproc
	pushq	%rbp
	.cfi_def_cfa_offset 16
	.cfi_offset %rbp, -16
	movq	%rsp, %rbp
	.cfi_def_cfa_register %rbp
	subq	$16, %rsp
	movq	%rdi, -8(%rbp)
Ltmp148:
	.loc	5 1048 5 prologue_end
	callq	__ZN2az3int65_$LT$impl$u20$az..SaturatingCast$LT$usize$GT$$u20$for$u20$i64$GT$15saturating_cast17hb1589aef2a1ff608E
	.loc	5 1049 2
	addq	$16, %rsp
	popq	%rbp
	retq
Ltmp149:
Lfunc_end71:
	.cfi_endproc

	.globl	__ZN2az15saturating_cast17ha9dd2e575ab6e85cE
	.p2align	4, 0x90
__ZN2az15saturating_cast17ha9dd2e575ab6e85cE:
Lfunc_begin72:
	.loc	5 1047 0
	.cfi_startproc
	pushq	%rbp
	.cfi_def_cfa_offset 16
	.cfi_offset %rbp, -16
	movq	%rsp, %rbp
	.cfi_def_cfa_register %rbp
	subq	$16, %rsp
	movq	%rdi, -8(%rbp)
Ltmp150:
	.loc	5 1048 5 prologue_end
	callq	__ZN2az3int63_$LT$impl$u20$az..SaturatingCast$LT$i16$GT$$u20$for$u20$i64$GT$15saturating_cast17ha2e2e1d32847aa55E
	.loc	5 1049 2
	addq	$16, %rsp
	popq	%rbp
	retq
Ltmp151:
Lfunc_end72:
	.cfi_endproc

	.globl	__ZN2az15saturating_cast17hac788cf81231d64cE
	.p2align	4, 0x90
__ZN2az15saturating_cast17hac788cf81231d64cE:
Lfunc_begin73:
	.loc	5 1047 0
	.cfi_startproc
	pushq	%rbp
	.cfi_def_cfa_offset 16
	.cfi_offset %rbp, -16
	movq	%rsp, %rbp
	.cfi_def_cfa_register %rbp
	subq	$16, %rsp
	movq	%rdi, -16(%rbp)
	movq	%rsi, -8(%rbp)
Ltmp152:
	.loc	5 1048 5 prologue_end
	callq	__ZN2az3int65_$LT$impl$u20$az..SaturatingCast$LT$i128$GT$$u20$for$u20$i128$GT$15saturating_cast17h6973da3875240b6fE
	.loc	5 1049 2
	addq	$16, %rsp
	popq	%rbp
	retq
Ltmp153:
Lfunc_end73:
	.cfi_endproc

	.globl	__ZN2az15saturating_cast17hacda6900f18353ddE
	.p2align	4, 0x90
__ZN2az15saturating_cast17hacda6900f18353ddE:
Lfunc_begin74:
	.loc	5 1047 0
	.cfi_startproc
	pushq	%rbp
	.cfi_def_cfa_offset 16
	.cfi_offset %rbp, -16
	movq	%rsp, %rbp
	.cfi_def_cfa_register %rbp
	subq	$16, %rsp
	movq	%rdi, -8(%rbp)
Ltmp154:
	.loc	5 1048 5 prologue_end
	callq	__ZN2az3int63_$LT$impl$u20$az..SaturatingCast$LT$u32$GT$$u20$for$u20$u64$GT$15saturating_cast17hbc3fc3e2ab63c96dE
	.loc	5 1049 2
	addq	$16, %rsp
	popq	%rbp
	retq
Ltmp155:
Lfunc_end74:
	.cfi_endproc

	.globl	__ZN2az15saturating_cast17hb23e52c31a08f2daE
	.p2align	4, 0x90
__ZN2az15saturating_cast17hb23e52c31a08f2daE:
Lfunc_begin75:
	.loc	5 1047 0
	.cfi_startproc
	pushq	%rbp
	.cfi_def_cfa_offset 16
	.cfi_offset %rbp, -16
	movq	%rsp, %rbp
	.cfi_def_cfa_register %rbp
	subq	$16, %rsp
	movq	%rdi, -8(%rbp)
Ltmp156:
	.loc	5 1048 5 prologue_end
	callq	__ZN2az3int62_$LT$impl$u20$az..SaturatingCast$LT$i8$GT$$u20$for$u20$i64$GT$15saturating_cast17hf6779c3c228c1b19E
	.loc	5 1049 2
	addq	$16, %rsp
	popq	%rbp
	retq
Ltmp157:
Lfunc_end75:
	.cfi_endproc

	.globl	__ZN2az15saturating_cast17hb4b9b906f56a50dfE
	.p2align	4, 0x90
__ZN2az15saturating_cast17hb4b9b906f56a50dfE:
Lfunc_begin76:
	.loc	5 1047 0
	.cfi_startproc
	pushq	%rbp
	.cfi_def_cfa_offset 16
	.cfi_offset %rbp, -16
	movq	%rsp, %rbp
	.cfi_def_cfa_register %rbp
	subq	$16, %rsp
	movl	%edi, -4(%rbp)
Ltmp158:
	.loc	5 1048 5 prologue_end
	callq	__ZN2az3int63_$LT$impl$u20$az..SaturatingCast$LT$i16$GT$$u20$for$u20$u32$GT$15saturating_cast17h57a90ac5a0248e4dE
	.loc	5 1049 2
	addq	$16, %rsp
	popq	%rbp
	retq
Ltmp159:
Lfunc_end76:
	.cfi_endproc

	.globl	__ZN2az15saturating_cast17hba92607606fe668eE
	.p2align	4, 0x90
__ZN2az15saturating_cast17hba92607606fe668eE:
Lfunc_begin77:
	.loc	5 1047 0
	.cfi_startproc
	pushq	%rbp
	.cfi_def_cfa_offset 16
	.cfi_offset %rbp, -16
	movq	%rsp, %rbp
	.cfi_def_cfa_register %rbp
	subq	$16, %rsp
	movq	%rdi, -8(%rbp)
Ltmp160:
	.loc	5 1048 5 prologue_end
	callq	__ZN2az3int62_$LT$impl$u20$az..SaturatingCast$LT$u8$GT$$u20$for$u20$i64$GT$15saturating_cast17hf018a8fc4d9765baE
	.loc	5 1049 2
	addq	$16, %rsp
	popq	%rbp
	retq
Ltmp161:
Lfunc_end77:
	.cfi_endproc

	.globl	__ZN2az15saturating_cast17hbb66106a0ede03e8E
	.p2align	4, 0x90
__ZN2az15saturating_cast17hbb66106a0ede03e8E:
Lfunc_begin78:
	.loc	5 1047 0
	.cfi_startproc
	pushq	%rbp
	.cfi_def_cfa_offset 16
	.cfi_offset %rbp, -16
	movq	%rsp, %rbp
	.cfi_def_cfa_register %rbp
	subq	$16, %rsp
	movl	%edi, -4(%rbp)
Ltmp162:
	.loc	5 1048 5 prologue_end
	callq	__ZN2az3int63_$LT$impl$u20$az..SaturatingCast$LT$u32$GT$$u20$for$u20$u32$GT$15saturating_cast17h87cf6d5b87463d2dE
	.loc	5 1049 2
	addq	$16, %rsp
	popq	%rbp
	retq
Ltmp163:
Lfunc_end78:
	.cfi_endproc

	.globl	__ZN2az15saturating_cast17hbe758836f384fbe4E
	.p2align	4, 0x90
__ZN2az15saturating_cast17hbe758836f384fbe4E:
Lfunc_begin79:
	.loc	5 1047 0
	.cfi_startproc
	pushq	%rbp
	.cfi_def_cfa_offset 16
	.cfi_offset %rbp, -16
	movq	%rsp, %rbp
	.cfi_def_cfa_register %rbp
	subq	$16, %rsp
	movl	%edi, -4(%rbp)
Ltmp164:
	.loc	5 1048 5 prologue_end
	callq	__ZN2az3int63_$LT$impl$u20$az..SaturatingCast$LT$u16$GT$$u20$for$u20$u32$GT$15saturating_cast17h2d9868cbe31260e9E
	.loc	5 1049 2
	addq	$16, %rsp
	popq	%rbp
	retq
Ltmp165:
Lfunc_end79:
	.cfi_endproc

	.globl	__ZN2az15saturating_cast17hc64f93987e9c5e9bE
	.p2align	4, 0x90
__ZN2az15saturating_cast17hc64f93987e9c5e9bE:
Lfunc_begin80:
	.loc	5 1047 0
	.cfi_startproc
	pushq	%rbp
	.cfi_def_cfa_offset 16
	.cfi_offset %rbp, -16
	movq	%rsp, %rbp
	.cfi_def_cfa_register %rbp
	subq	$16, %rsp
	movl	%edi, -4(%rbp)
Ltmp166:
	.loc	5 1048 5 prologue_end
	callq	__ZN2az3int63_$LT$impl$u20$az..SaturatingCast$LT$u32$GT$$u20$for$u20$i32$GT$15saturating_cast17h4317915cddc4f3c0E
	.loc	5 1049 2
	addq	$16, %rsp
	popq	%rbp
	retq
Ltmp167:
Lfunc_end80:
	.cfi_endproc

	.globl	__ZN2az15saturating_cast17hde9dd6dbfbc9e736E
	.p2align	4, 0x90
__ZN2az15saturating_cast17hde9dd6dbfbc9e736E:
Lfunc_begin81:
	.loc	5 1047 0
	.cfi_startproc
	pushq	%rbp
	.cfi_def_cfa_offset 16
	.cfi_offset %rbp, -16
	movq	%rsp, %rbp
	.cfi_def_cfa_register %rbp
	subq	$16, %rsp
	movl	%edi, -4(%rbp)
Ltmp168:
	.loc	5 1048 5 prologue_end
	callq	__ZN2az3int62_$LT$impl$u20$az..SaturatingCast$LT$i8$GT$$u20$for$u20$u32$GT$15saturating_cast17hf309125f5b45062aE
	.loc	5 1049 2
	addq	$16, %rsp
	popq	%rbp
	retq
Ltmp169:
Lfunc_end81:
	.cfi_endproc

	.globl	__ZN2az15saturating_cast17he3860b087107b377E
	.p2align	4, 0x90
__ZN2az15saturating_cast17he3860b087107b377E:
Lfunc_begin82:
	.loc	5 1047 0
	.cfi_startproc
	pushq	%rbp
	.cfi_def_cfa_offset 16
	.cfi_offset %rbp, -16
	movq	%rsp, %rbp
	.cfi_def_cfa_register %rbp
	subq	$16, %rsp
	movq	%rdi, -8(%rbp)
Ltmp170:
	.loc	5 1048 5 prologue_end
	callq	__ZN2az3int63_$LT$impl$u20$az..SaturatingCast$LT$i64$GT$$u20$for$u20$i64$GT$15saturating_cast17h350e657d00d02d71E
	.loc	5 1049 2
	addq	$16, %rsp
	popq	%rbp
	retq
Ltmp171:
Lfunc_end82:
	.cfi_endproc

	.globl	__ZN2az15saturating_cast17he613313ca975e2c2E
	.p2align	4, 0x90
__ZN2az15saturating_cast17he613313ca975e2c2E:
Lfunc_begin83:
	.loc	5 1047 0
	.cfi_startproc
	pushq	%rbp
	.cfi_def_cfa_offset 16
	.cfi_offset %rbp, -16
	movq	%rsp, %rbp
	.cfi_def_cfa_register %rbp
	subq	$16, %rsp
	movq	%rdi, -8(%rbp)
Ltmp172:
	.loc	5 1048 5 prologue_end
	callq	__ZN2az3int65_$LT$impl$u20$az..SaturatingCast$LT$isize$GT$$u20$for$u20$u64$GT$15saturating_cast17h3ccbaf0f13dc9c0fE
	.loc	5 1049 2
	addq	$16, %rsp
	popq	%rbp
	retq
Ltmp173:
Lfunc_end83:
	.cfi_endproc

	.globl	__ZN2az15saturating_cast17heebb241776e9a58cE
	.p2align	4, 0x90
__ZN2az15saturating_cast17heebb241776e9a58cE:
Lfunc_begin84:
	.loc	5 1047 0
	.cfi_startproc
	pushq	%rbp
	.cfi_def_cfa_offset 16
	.cfi_offset %rbp, -16
	movq	%rsp, %rbp
	.cfi_def_cfa_register %rbp
	subq	$16, %rsp
	movq	%rdi, -8(%rbp)
Ltmp174:
	.loc	5 1048 5 prologue_end
	callq	__ZN2az3int63_$LT$impl$u20$az..SaturatingCast$LT$u32$GT$$u20$for$u20$i64$GT$15saturating_cast17h59e7edb9346e57a1E
	.loc	5 1049 2
	addq	$16, %rsp
	popq	%rbp
	retq
Ltmp175:
Lfunc_end84:
	.cfi_endproc

	.globl	__ZN2az15saturating_cast17hefcd5951a0b34585E
	.p2align	4, 0x90
__ZN2az15saturating_cast17hefcd5951a0b34585E:
Lfunc_begin85:
	.loc	5 1047 0
	.cfi_startproc
	pushq	%rbp
	.cfi_def_cfa_offset 16
	.cfi_offset %rbp, -16
	movq	%rsp, %rbp
	.cfi_def_cfa_register %rbp
	subq	$16, %rsp
	movq	%rdi, -8(%rbp)
Ltmp176:
	.loc	5 1048 5 prologue_end
	callq	__ZN2az3int63_$LT$impl$u20$az..SaturatingCast$LT$i16$GT$$u20$for$u20$u64$GT$15saturating_cast17h7a4f75a1f0922163E
	.loc	5 1049 2
	addq	$16, %rsp
	popq	%rbp
	retq
Ltmp177:
Lfunc_end85:
	.cfi_endproc

	.globl	__ZN2az15saturating_cast17hf01eda9f30180d68E
	.p2align	4, 0x90
__ZN2az15saturating_cast17hf01eda9f30180d68E:
Lfunc_begin86:
	.loc	5 1047 0
	.cfi_startproc
	pushq	%rbp
	.cfi_def_cfa_offset 16
	.cfi_offset %rbp, -16
	movq	%rsp, %rbp
	.cfi_def_cfa_register %rbp
	subq	$16, %rsp
	movl	%edi, -4(%rbp)
Ltmp178:
	.loc	5 1048 5 prologue_end
	callq	__ZN2az3int62_$LT$impl$u20$az..SaturatingCast$LT$i8$GT$$u20$for$u20$i32$GT$15saturating_cast17h9c29a46cd7b893edE
	.loc	5 1049 2
	addq	$16, %rsp
	popq	%rbp
	retq
Ltmp179:
Lfunc_end86:
	.cfi_endproc

	.globl	__ZN2az15saturating_cast17hfa481999843f6a1dE
	.p2align	4, 0x90
__ZN2az15saturating_cast17hfa481999843f6a1dE:
Lfunc_begin87:
	.loc	5 1047 0
	.cfi_startproc
	pushq	%rbp
	.cfi_def_cfa_offset 16
	.cfi_offset %rbp, -16
	movq	%rsp, %rbp
	.cfi_def_cfa_register %rbp
	subq	$16, %rsp
	movq	%rdi, -8(%rbp)
Ltmp180:
	.loc	5 1048 5 prologue_end
	callq	__ZN2az3int63_$LT$impl$u20$az..SaturatingCast$LT$u64$GT$$u20$for$u20$i64$GT$15saturating_cast17h5ebf92b8de0b6408E
	.loc	5 1049 2
	addq	$16, %rsp
	popq	%rbp
	retq
Ltmp181:
Lfunc_end87:
	.cfi_endproc

	.globl	__ZN2az15saturating_cast17hfd2bb97df75dfd7aE
	.p2align	4, 0x90
__ZN2az15saturating_cast17hfd2bb97df75dfd7aE:
Lfunc_begin88:
	.loc	5 1047 0
	.cfi_startproc
	pushq	%rbp
	.cfi_def_cfa_offset 16
	.cfi_offset %rbp, -16
	movq	%rsp, %rbp
	.cfi_def_cfa_register %rbp
	subq	$16, %rsp
	movq	%rdi, -8(%rbp)
Ltmp182:
	.loc	5 1048 5 prologue_end
	callq	__ZN2az3int65_$LT$impl$u20$az..SaturatingCast$LT$isize$GT$$u20$for$u20$i64$GT$15saturating_cast17h8919452800f41c05E
	.loc	5 1049 2
	addq	$16, %rsp
	popq	%rbp
	retq
Ltmp183:
Lfunc_end88:
	.cfi_endproc

	.globl	__ZN2az13wrapping_cast17h23ac14792028f9e2E
	.p2align	4, 0x90
__ZN2az13wrapping_cast17h23ac14792028f9e2E:
Lfunc_begin89:
	.loc	5 1066 0
	.cfi_startproc
	pushq	%rbp
	.cfi_def_cfa_offset 16
	.cfi_offset %rbp, -16
	movq	%rsp, %rbp
	.cfi_def_cfa_register %rbp
	subq	$16, %rsp
	movl	%edi, -4(%rbp)
Ltmp184:
	.loc	5 1067 5 prologue_end
	callq	__ZN2az3int60_$LT$impl$u20$az..WrappingCast$LT$i8$GT$$u20$for$u20$i32$GT$13wrapping_cast17h4b3ba1d59d65b200E
	.loc	5 1068 2
	addq	$16, %rsp
	popq	%rbp
	retq
Ltmp185:
Lfunc_end89:
	.cfi_endproc

	.globl	__ZN2az13wrapping_cast17h2b5c7c52a9bef7d4E
	.p2align	4, 0x90
__ZN2az13wrapping_cast17h2b5c7c52a9bef7d4E:
Lfunc_begin90:
	.loc	5 1066 0
	.cfi_startproc
	pushq	%rbp
	.cfi_def_cfa_offset 16
	.cfi_offset %rbp, -16
	movq	%rsp, %rbp
	.cfi_def_cfa_register %rbp
	subq	$16, %rsp
	movq	%rdi, -16(%rbp)
	movq	%rsi, -8(%rbp)
Ltmp186:
	.loc	5 1067 5 prologue_end
	callq	__ZN2az3int63_$LT$impl$u20$az..WrappingCast$LT$i128$GT$$u20$for$u20$i128$GT$13wrapping_cast17h549f3288ab24dd40E
	.loc	5 1068 2
	addq	$16, %rsp
	popq	%rbp
	retq
Ltmp187:
Lfunc_end90:
	.cfi_endproc

	.globl	__ZN2az13wrapping_cast17h2c86bc036696e6ebE
	.p2align	4, 0x90
__ZN2az13wrapping_cast17h2c86bc036696e6ebE:
Lfunc_begin91:
	.loc	5 1066 0
	.cfi_startproc
	pushq	%rbp
	.cfi_def_cfa_offset 16
	.cfi_offset %rbp, -16
	movq	%rsp, %rbp
	.cfi_def_cfa_register %rbp
	subq	$16, %rsp
	movq	%rdi, -8(%rbp)
Ltmp188:
	.loc	5 1067 5 prologue_end
	callq	__ZN2az3int61_$LT$impl$u20$az..WrappingCast$LT$u64$GT$$u20$for$u20$u64$GT$13wrapping_cast17h643ba111e81bea2dE
	.loc	5 1068 2
	addq	$16, %rsp
	popq	%rbp
	retq
Ltmp189:
Lfunc_end91:
	.cfi_endproc

	.globl	__ZN2az13wrapping_cast17h2f57a0e1574ec453E
	.p2align	4, 0x90
__ZN2az13wrapping_cast17h2f57a0e1574ec453E:
Lfunc_begin92:
	.loc	5 1066 0
	.cfi_startproc
	pushq	%rbp
	.cfi_def_cfa_offset 16
	.cfi_offset %rbp, -16
	movq	%rsp, %rbp
	.cfi_def_cfa_register %rbp
	subq	$16, %rsp
	movq	%rdi, -16(%rbp)
	movq	%rsi, -8(%rbp)
Ltmp190:
	.loc	5 1067 5 prologue_end
	callq	__ZN2az3int63_$LT$impl$u20$az..WrappingCast$LT$i128$GT$$u20$for$u20$u128$GT$13wrapping_cast17h72b2dbc651aaa702E
	.loc	5 1068 2
	addq	$16, %rsp
	popq	%rbp
	retq
Ltmp191:
Lfunc_end92:
	.cfi_endproc

	.globl	__ZN2az13wrapping_cast17h307cea49c2159912E
	.p2align	4, 0x90
__ZN2az13wrapping_cast17h307cea49c2159912E:
Lfunc_begin93:
	.loc	5 1066 0
	.cfi_startproc
	pushq	%rbp
	.cfi_def_cfa_offset 16
	.cfi_offset %rbp, -16
	movq	%rsp, %rbp
	.cfi_def_cfa_register %rbp
	subq	$16, %rsp
	movl	%edi, -4(%rbp)
Ltmp192:
	.loc	5 1067 5 prologue_end
	callq	__ZN2az3int60_$LT$impl$u20$az..WrappingCast$LT$i8$GT$$u20$for$u20$u32$GT$13wrapping_cast17hbfa639ffe5fc1fa2E
	.loc	5 1068 2
	addq	$16, %rsp
	popq	%rbp
	retq
Ltmp193:
Lfunc_end93:
	.cfi_endproc

	.globl	__ZN2az13wrapping_cast17h33b4999e9da60e1dE
	.p2align	4, 0x90
__ZN2az13wrapping_cast17h33b4999e9da60e1dE:
Lfunc_begin94:
	.loc	5 1066 0
	.cfi_startproc
	pushq	%rbp
	.cfi_def_cfa_offset 16
	.cfi_offset %rbp, -16
	movq	%rsp, %rbp
	.cfi_def_cfa_register %rbp
	subq	$16, %rsp
	movq	%rdi, -8(%rbp)
Ltmp194:
	.loc	5 1067 5 prologue_end
	callq	__ZN2az3int60_$LT$impl$u20$az..WrappingCast$LT$u8$GT$$u20$for$u20$u64$GT$13wrapping_cast17h6495b5e4e36181ccE
	.loc	5 1068 2
	addq	$16, %rsp
	popq	%rbp
	retq
Ltmp195:
Lfunc_end94:
	.cfi_endproc

	.globl	__ZN2az13wrapping_cast17h47d02b712e6c9d8eE
	.p2align	4, 0x90
__ZN2az13wrapping_cast17h47d02b712e6c9d8eE:
Lfunc_begin95:
	.loc	5 1066 0
	.cfi_startproc
	pushq	%rbp
	.cfi_def_cfa_offset 16
	.cfi_offset %rbp, -16
	movq	%rsp, %rbp
	.cfi_def_cfa_register %rbp
	subq	$16, %rsp
	movl	%edi, -4(%rbp)
Ltmp196:
	.loc	5 1067 5 prologue_end
	callq	__ZN2az3int61_$LT$impl$u20$az..WrappingCast$LT$u16$GT$$u20$for$u20$i32$GT$13wrapping_cast17h34555b6faeb8afd0E
	.loc	5 1068 2
	addq	$16, %rsp
	popq	%rbp
	retq
Ltmp197:
Lfunc_end95:
	.cfi_endproc

	.globl	__ZN2az13wrapping_cast17h4ed40f598b5cbc85E
	.p2align	4, 0x90
__ZN2az13wrapping_cast17h4ed40f598b5cbc85E:
Lfunc_begin96:
	.loc	5 1066 0
	.cfi_startproc
	pushq	%rbp
	.cfi_def_cfa_offset 16
	.cfi_offset %rbp, -16
	movq	%rsp, %rbp
	.cfi_def_cfa_register %rbp
	subq	$16, %rsp
	movq	%rdi, -8(%rbp)
Ltmp198:
	.loc	5 1067 5 prologue_end
	callq	__ZN2az3int61_$LT$impl$u20$az..WrappingCast$LT$u64$GT$$u20$for$u20$i64$GT$13wrapping_cast17hf46477108198b2eeE
	.loc	5 1068 2
	addq	$16, %rsp
	popq	%rbp
	retq
Ltmp199:
Lfunc_end96:
	.cfi_endproc

	.globl	__ZN2az13wrapping_cast17h5015c016999f0e60E
	.p2align	4, 0x90
__ZN2az13wrapping_cast17h5015c016999f0e60E:
Lfunc_begin97:
	.loc	5 1066 0
	.cfi_startproc
	pushq	%rbp
	.cfi_def_cfa_offset 16
	.cfi_offset %rbp, -16
	movq	%rsp, %rbp
	.cfi_def_cfa_register %rbp
	subq	$16, %rsp
	movq	%rdi, -8(%rbp)
Ltmp200:
	.loc	5 1067 5 prologue_end
	callq	__ZN2az3int61_$LT$impl$u20$az..WrappingCast$LT$i64$GT$$u20$for$u20$i64$GT$13wrapping_cast17h6def6e697f057797E
	.loc	5 1068 2
	addq	$16, %rsp
	popq	%rbp
	retq
Ltmp201:
Lfunc_end97:
	.cfi_endproc

	.globl	__ZN2az13wrapping_cast17h54cc6e2113e47441E
	.p2align	4, 0x90
__ZN2az13wrapping_cast17h54cc6e2113e47441E:
Lfunc_begin98:
	.loc	5 1066 0
	.cfi_startproc
	pushq	%rbp
	.cfi_def_cfa_offset 16
	.cfi_offset %rbp, -16
	movq	%rsp, %rbp
	.cfi_def_cfa_register %rbp
	subq	$16, %rsp
	movq	%rdi, -16(%rbp)
	movq	%rsi, -8(%rbp)
Ltmp202:
	.loc	5 1067 5 prologue_end
	callq	__ZN2az3int63_$LT$impl$u20$az..WrappingCast$LT$u128$GT$$u20$for$u20$i128$GT$13wrapping_cast17h5b3088240f6202ebE
	.loc	5 1068 2
	addq	$16, %rsp
	popq	%rbp
	retq
Ltmp203:
Lfunc_end98:
	.cfi_endproc

	.globl	__ZN2az13wrapping_cast17h55ae7cd1e6956b46E
	.p2align	4, 0x90
__ZN2az13wrapping_cast17h55ae7cd1e6956b46E:
Lfunc_begin99:
	.loc	5 1066 0
	.cfi_startproc
	pushq	%rbp
	.cfi_def_cfa_offset 16
	.cfi_offset %rbp, -16
	movq	%rsp, %rbp
	.cfi_def_cfa_register %rbp
	subq	$16, %rsp
	movq	%rdi, -8(%rbp)
Ltmp204:
	.loc	5 1067 5 prologue_end
	callq	__ZN2az3int60_$LT$impl$u20$az..WrappingCast$LT$u8$GT$$u20$for$u20$i64$GT$13wrapping_cast17hbb4a95210f5082e4E
	.loc	5 1068 2
	addq	$16, %rsp
	popq	%rbp
	retq
Ltmp205:
Lfunc_end99:
	.cfi_endproc

	.globl	__ZN2az13wrapping_cast17h586c0ae66cc85399E
	.p2align	4, 0x90
__ZN2az13wrapping_cast17h586c0ae66cc85399E:
Lfunc_begin100:
	.loc	5 1066 0
	.cfi_startproc
	pushq	%rbp
	.cfi_def_cfa_offset 16
	.cfi_offset %rbp, -16
	movq	%rsp, %rbp
	.cfi_def_cfa_register %rbp
	subq	$16, %rsp
	movq	%rdi, -16(%rbp)
	movq	%rsi, -8(%rbp)
Ltmp206:
	.loc	5 1067 5 prologue_end
	callq	__ZN2az3int63_$LT$impl$u20$az..WrappingCast$LT$u128$GT$$u20$for$u20$u128$GT$13wrapping_cast17h787c48932c1bbe20E
	.loc	5 1068 2
	addq	$16, %rsp
	popq	%rbp
	retq
Ltmp207:
Lfunc_end100:
	.cfi_endproc

	.globl	__ZN2az13wrapping_cast17h5b280195db8a15e9E
	.p2align	4, 0x90
__ZN2az13wrapping_cast17h5b280195db8a15e9E:
Lfunc_begin101:
	.loc	5 1066 0
	.cfi_startproc
	pushq	%rbp
	.cfi_def_cfa_offset 16
	.cfi_offset %rbp, -16
	movq	%rsp, %rbp
	.cfi_def_cfa_register %rbp
	subq	$16, %rsp
	movl	%edi, -4(%rbp)
Ltmp208:
	.loc	5 1067 5 prologue_end
	callq	__ZN2az3int61_$LT$impl$u20$az..WrappingCast$LT$u32$GT$$u20$for$u20$u32$GT$13wrapping_cast17h8d6913098e43bee7E
	.loc	5 1068 2
	addq	$16, %rsp
	popq	%rbp
	retq
Ltmp209:
Lfunc_end101:
	.cfi_endproc

	.globl	__ZN2az13wrapping_cast17h64b421b1a85a1323E
	.p2align	4, 0x90
__ZN2az13wrapping_cast17h64b421b1a85a1323E:
Lfunc_begin102:
	.loc	5 1066 0
	.cfi_startproc
	pushq	%rbp
	.cfi_def_cfa_offset 16
	.cfi_offset %rbp, -16
	movq	%rsp, %rbp
	.cfi_def_cfa_register %rbp
	subq	$16, %rsp
	movq	%rdi, -8(%rbp)
Ltmp210:
	.loc	5 1067 5 prologue_end
	callq	__ZN2az3int61_$LT$impl$u20$az..WrappingCast$LT$u32$GT$$u20$for$u20$u64$GT$13wrapping_cast17h4c94db1e95ba9167E
	.loc	5 1068 2
	addq	$16, %rsp
	popq	%rbp
	retq
Ltmp211:
Lfunc_end102:
	.cfi_endproc

	.globl	__ZN2az13wrapping_cast17h6e457c4ced4d7d27E
	.p2align	4, 0x90
__ZN2az13wrapping_cast17h6e457c4ced4d7d27E:
Lfunc_begin103:
	.loc	5 1066 0
	.cfi_startproc
	pushq	%rbp
	.cfi_def_cfa_offset 16
	.cfi_offset %rbp, -16
	movq	%rsp, %rbp
	.cfi_def_cfa_register %rbp
	subq	$16, %rsp
	movl	%edi, -4(%rbp)
Ltmp212:
	.loc	5 1067 5 prologue_end
	callq	__ZN2az3int61_$LT$impl$u20$az..WrappingCast$LT$i32$GT$$u20$for$u20$i32$GT$13wrapping_cast17hd8eed5fd37c5074cE
	.loc	5 1068 2
	addq	$16, %rsp
	popq	%rbp
	retq
Ltmp213:
Lfunc_end103:
	.cfi_endproc

	.globl	__ZN2az13wrapping_cast17h742caa3f6055369eE
	.p2align	4, 0x90
__ZN2az13wrapping_cast17h742caa3f6055369eE:
Lfunc_begin104:
	.loc	5 1066 0
	.cfi_startproc
	pushq	%rbp
	.cfi_def_cfa_offset 16
	.cfi_offset %rbp, -16
	movq	%rsp, %rbp
	.cfi_def_cfa_register %rbp
	subq	$16, %rsp
	movq	%rdi, -8(%rbp)
Ltmp214:
	.loc	5 1067 5 prologue_end
	callq	__ZN2az3int61_$LT$impl$u20$az..WrappingCast$LT$i16$GT$$u20$for$u20$i64$GT$13wrapping_cast17hd4893afc34f9e5d7E
	.loc	5 1068 2
	addq	$16, %rsp
	popq	%rbp
	retq
Ltmp215:
Lfunc_end104:
	.cfi_endproc

	.globl	__ZN2az13wrapping_cast17h787f0127bec49e14E
	.p2align	4, 0x90
__ZN2az13wrapping_cast17h787f0127bec49e14E:
Lfunc_begin105:
	.loc	5 1066 0
	.cfi_startproc
	pushq	%rbp
	.cfi_def_cfa_offset 16
	.cfi_offset %rbp, -16
	movq	%rsp, %rbp
	.cfi_def_cfa_register %rbp
	subq	$16, %rsp
	movq	%rdi, -8(%rbp)
Ltmp216:
	.loc	5 1067 5 prologue_end
	callq	__ZN2az3int61_$LT$impl$u20$az..WrappingCast$LT$i32$GT$$u20$for$u20$i64$GT$13wrapping_cast17hae0ea70cc3d2bc8dE
	.loc	5 1068 2
	addq	$16, %rsp
	popq	%rbp
	retq
Ltmp217:
Lfunc_end105:
	.cfi_endproc

	.globl	__ZN2az13wrapping_cast17h87fdaeda92925a71E
	.p2align	4, 0x90
__ZN2az13wrapping_cast17h87fdaeda92925a71E:
Lfunc_begin106:
	.loc	5 1066 0
	.cfi_startproc
	pushq	%rbp
	.cfi_def_cfa_offset 16
	.cfi_offset %rbp, -16
	movq	%rsp, %rbp
	.cfi_def_cfa_register %rbp
	subq	$16, %rsp
	movq	%rdi, -8(%rbp)
Ltmp218:
	.loc	5 1067 5 prologue_end
	callq	__ZN2az3int63_$LT$impl$u20$az..WrappingCast$LT$isize$GT$$u20$for$u20$u64$GT$13wrapping_cast17hdef4ff6dd76ec725E
	.loc	5 1068 2
	addq	$16, %rsp
	popq	%rbp
	retq
Ltmp219:
Lfunc_end106:
	.cfi_endproc

	.globl	__ZN2az13wrapping_cast17h8a4747334d716d12E
	.p2align	4, 0x90
__ZN2az13wrapping_cast17h8a4747334d716d12E:
Lfunc_begin107:
	.loc	5 1066 0
	.cfi_startproc
	pushq	%rbp
	.cfi_def_cfa_offset 16
	.cfi_offset %rbp, -16
	movq	%rsp, %rbp
	.cfi_def_cfa_register %rbp
	subq	$16, %rsp
	movq	%rdi, -8(%rbp)
Ltmp220:
	.loc	5 1067 5 prologue_end
	callq	__ZN2az3int63_$LT$impl$u20$az..WrappingCast$LT$isize$GT$$u20$for$u20$i64$GT$13wrapping_cast17hf9bec3d672f197cdE
	.loc	5 1068 2
	addq	$16, %rsp
	popq	%rbp
	retq
Ltmp221:
Lfunc_end107:
	.cfi_endproc

	.globl	__ZN2az13wrapping_cast17h95ce3db6fd240542E
	.p2align	4, 0x90
__ZN2az13wrapping_cast17h95ce3db6fd240542E:
Lfunc_begin108:
	.loc	5 1066 0
	.cfi_startproc
	pushq	%rbp
	.cfi_def_cfa_offset 16
	.cfi_offset %rbp, -16
	movq	%rsp, %rbp
	.cfi_def_cfa_register %rbp
	subq	$16, %rsp
	movl	%edi, -4(%rbp)
Ltmp222:
	.loc	5 1067 5 prologue_end
	callq	__ZN2az3int60_$LT$impl$u20$az..WrappingCast$LT$u8$GT$$u20$for$u20$u32$GT$13wrapping_cast17h370275abda874e2aE
	.loc	5 1068 2
	addq	$16, %rsp
	popq	%rbp
	retq
Ltmp223:
Lfunc_end108:
	.cfi_endproc

	.globl	__ZN2az13wrapping_cast17h984f710877da11e4E
	.p2align	4, 0x90
__ZN2az13wrapping_cast17h984f710877da11e4E:
Lfunc_begin109:
	.loc	5 1066 0
	.cfi_startproc
	pushq	%rbp
	.cfi_def_cfa_offset 16
	.cfi_offset %rbp, -16
	movq	%rsp, %rbp
	.cfi_def_cfa_register %rbp
	subq	$16, %rsp
	movq	%rdi, -8(%rbp)
Ltmp224:
	.loc	5 1067 5 prologue_end
	callq	__ZN2az3int63_$LT$impl$u20$az..WrappingCast$LT$usize$GT$$u20$for$u20$u64$GT$13wrapping_cast17h96943c91f8a32396E
	.loc	5 1068 2
	addq	$16, %rsp
	popq	%rbp
	retq
Ltmp225:
Lfunc_end109:
	.cfi_endproc

	.globl	__ZN2az13wrapping_cast17h9d604e59cdee2ea1E
	.p2align	4, 0x90
__ZN2az13wrapping_cast17h9d604e59cdee2ea1E:
Lfunc_begin110:
	.loc	5 1066 0
	.cfi_startproc
	pushq	%rbp
	.cfi_def_cfa_offset 16
	.cfi_offset %rbp, -16
	movq	%rsp, %rbp
	.cfi_def_cfa_register %rbp
	subq	$16, %rsp
	movq	%rdi, -8(%rbp)
Ltmp226:
	.loc	5 1067 5 prologue_end
	callq	__ZN2az3int61_$LT$impl$u20$az..WrappingCast$LT$u16$GT$$u20$for$u20$i64$GT$13wrapping_cast17h1d258f0a41e9533aE
	.loc	5 1068 2
	addq	$16, %rsp
	popq	%rbp
	retq
Ltmp227:
Lfunc_end110:
	.cfi_endproc

	.globl	__ZN2az13wrapping_cast17ha4b8e80bad1aad3bE
	.p2align	4, 0x90
__ZN2az13wrapping_cast17ha4b8e80bad1aad3bE:
Lfunc_begin111:
	.loc	5 1066 0
	.cfi_startproc
	pushq	%rbp
	.cfi_def_cfa_offset 16
	.cfi_offset %rbp, -16
	movq	%rsp, %rbp
	.cfi_def_cfa_register %rbp
	subq	$16, %rsp
	movq	%rdi, -8(%rbp)
Ltmp228:
	.loc	5 1067 5 prologue_end
	callq	__ZN2az3int61_$LT$impl$u20$az..WrappingCast$LT$i16$GT$$u20$for$u20$u64$GT$13wrapping_cast17h0d616f618f79c488E
	.loc	5 1068 2
	addq	$16, %rsp
	popq	%rbp
	retq
Ltmp229:
Lfunc_end111:
	.cfi_endproc

	.globl	__ZN2az13wrapping_cast17ha4e445ed65800ff9E
	.p2align	4, 0x90
__ZN2az13wrapping_cast17ha4e445ed65800ff9E:
Lfunc_begin112:
	.loc	5 1066 0
	.cfi_startproc
	pushq	%rbp
	.cfi_def_cfa_offset 16
	.cfi_offset %rbp, -16
	movq	%rsp, %rbp
	.cfi_def_cfa_register %rbp
	subq	$16, %rsp
	movl	%edi, -4(%rbp)
Ltmp230:
	.loc	5 1067 5 prologue_end
	callq	__ZN2az3int61_$LT$impl$u20$az..WrappingCast$LT$i16$GT$$u20$for$u20$i32$GT$13wrapping_cast17h783d645eca938aa8E
	.loc	5 1068 2
	addq	$16, %rsp
	popq	%rbp
	retq
Ltmp231:
Lfunc_end112:
	.cfi_endproc

	.globl	__ZN2az13wrapping_cast17ha7397efdc2431397E
	.p2align	4, 0x90
__ZN2az13wrapping_cast17ha7397efdc2431397E:
Lfunc_begin113:
	.loc	5 1066 0
	.cfi_startproc
	pushq	%rbp
	.cfi_def_cfa_offset 16
	.cfi_offset %rbp, -16
	movq	%rsp, %rbp
	.cfi_def_cfa_register %rbp
	subq	$16, %rsp
	movq	%rdi, -8(%rbp)
Ltmp232:
	.loc	5 1067 5 prologue_end
	callq	__ZN2az3int61_$LT$impl$u20$az..WrappingCast$LT$u32$GT$$u20$for$u20$i64$GT$13wrapping_cast17haf2a77e405ada809E
	.loc	5 1068 2
	addq	$16, %rsp
	popq	%rbp
	retq
Ltmp233:
Lfunc_end113:
	.cfi_endproc

	.globl	__ZN2az13wrapping_cast17ha8a69ac48b928211E
	.p2align	4, 0x90
__ZN2az13wrapping_cast17ha8a69ac48b928211E:
Lfunc_begin114:
	.loc	5 1066 0
	.cfi_startproc
	pushq	%rbp
	.cfi_def_cfa_offset 16
	.cfi_offset %rbp, -16
	movq	%rsp, %rbp
	.cfi_def_cfa_register %rbp
	subq	$16, %rsp
	movq	%rdi, -8(%rbp)
Ltmp234:
	.loc	5 1067 5 prologue_end
	callq	__ZN2az3int61_$LT$impl$u20$az..WrappingCast$LT$u16$GT$$u20$for$u20$u64$GT$13wrapping_cast17h4ff41ca35cfd5c35E
	.loc	5 1068 2
	addq	$16, %rsp
	popq	%rbp
	retq
Ltmp235:
Lfunc_end114:
	.cfi_endproc

	.globl	__ZN2az13wrapping_cast17ha93b981b9740f344E
	.p2align	4, 0x90
__ZN2az13wrapping_cast17ha93b981b9740f344E:
Lfunc_begin115:
	.loc	5 1066 0
	.cfi_startproc
	pushq	%rbp
	.cfi_def_cfa_offset 16
	.cfi_offset %rbp, -16
	movq	%rsp, %rbp
	.cfi_def_cfa_register %rbp
	subq	$16, %rsp
	movl	%edi, -4(%rbp)
Ltmp236:
	.loc	5 1067 5 prologue_end
	callq	__ZN2az3int61_$LT$impl$u20$az..WrappingCast$LT$i16$GT$$u20$for$u20$u32$GT$13wrapping_cast17h8761d8fdb826c229E
	.loc	5 1068 2
	addq	$16, %rsp
	popq	%rbp
	retq
Ltmp237:
Lfunc_end115:
	.cfi_endproc

	.globl	__ZN2az13wrapping_cast17haae97e4dc2219d50E
	.p2align	4, 0x90
__ZN2az13wrapping_cast17haae97e4dc2219d50E:
Lfunc_begin116:
	.loc	5 1066 0
	.cfi_startproc
	pushq	%rbp
	.cfi_def_cfa_offset 16
	.cfi_offset %rbp, -16
	movq	%rsp, %rbp
	.cfi_def_cfa_register %rbp
	subq	$16, %rsp
	movl	%edi, -4(%rbp)
Ltmp238:
	.loc	5 1067 5 prologue_end
	callq	__ZN2az3int60_$LT$impl$u20$az..WrappingCast$LT$u8$GT$$u20$for$u20$i32$GT$13wrapping_cast17h90b399f1f04697aeE
	.loc	5 1068 2
	addq	$16, %rsp
	popq	%rbp
	retq
Ltmp239:
Lfunc_end116:
	.cfi_endproc

	.globl	__ZN2az13wrapping_cast17hc65de5b57939d6feE
	.p2align	4, 0x90
__ZN2az13wrapping_cast17hc65de5b57939d6feE:
Lfunc_begin117:
	.loc	5 1066 0
	.cfi_startproc
	pushq	%rbp
	.cfi_def_cfa_offset 16
	.cfi_offset %rbp, -16
	movq	%rsp, %rbp
	.cfi_def_cfa_register %rbp
	subq	$16, %rsp
	movq	%rdi, -8(%rbp)
Ltmp240:
	.loc	5 1067 5 prologue_end
	callq	__ZN2az3int60_$LT$impl$u20$az..WrappingCast$LT$i8$GT$$u20$for$u20$u64$GT$13wrapping_cast17h2dd7609793c12894E
	.loc	5 1068 2
	addq	$16, %rsp
	popq	%rbp
	retq
Ltmp241:
Lfunc_end117:
	.cfi_endproc

	.globl	__ZN2az13wrapping_cast17hd0876f661e1d148bE
	.p2align	4, 0x90
__ZN2az13wrapping_cast17hd0876f661e1d148bE:
Lfunc_begin118:
	.loc	5 1066 0
	.cfi_startproc
	pushq	%rbp
	.cfi_def_cfa_offset 16
	.cfi_offset %rbp, -16
	movq	%rsp, %rbp
	.cfi_def_cfa_register %rbp
	subq	$16, %rsp
	movq	%rdi, -8(%rbp)
Ltmp242:
	.loc	5 1067 5 prologue_end
	callq	__ZN2az3int61_$LT$impl$u20$az..WrappingCast$LT$i64$GT$$u20$for$u20$u64$GT$13wrapping_cast17h5724e76aa5c27df4E
	.loc	5 1068 2
	addq	$16, %rsp
	popq	%rbp
	retq
Ltmp243:
Lfunc_end118:
	.cfi_endproc

	.globl	__ZN2az13wrapping_cast17hd92f306271b510eeE
	.p2align	4, 0x90
__ZN2az13wrapping_cast17hd92f306271b510eeE:
Lfunc_begin119:
	.loc	5 1066 0
	.cfi_startproc
	pushq	%rbp
	.cfi_def_cfa_offset 16
	.cfi_offset %rbp, -16
	movq	%rsp, %rbp
	.cfi_def_cfa_register %rbp
	subq	$16, %rsp
	movq	%rdi, -8(%rbp)
Ltmp244:
	.loc	5 1067 5 prologue_end
	callq	__ZN2az3int61_$LT$impl$u20$az..WrappingCast$LT$i32$GT$$u20$for$u20$u64$GT$13wrapping_cast17hc02ac7305579a8eaE
	.loc	5 1068 2
	addq	$16, %rsp
	popq	%rbp
	retq
Ltmp245:
Lfunc_end119:
	.cfi_endproc

	.globl	__ZN2az13wrapping_cast17he257649c4274617bE
	.p2align	4, 0x90
__ZN2az13wrapping_cast17he257649c4274617bE:
Lfunc_begin120:
	.loc	5 1066 0
	.cfi_startproc
	pushq	%rbp
	.cfi_def_cfa_offset 16
	.cfi_offset %rbp, -16
	movq	%rsp, %rbp
	.cfi_def_cfa_register %rbp
	subq	$16, %rsp
	movl	%edi, -4(%rbp)
Ltmp246:
	.loc	5 1067 5 prologue_end
	callq	__ZN2az3int61_$LT$impl$u20$az..WrappingCast$LT$u16$GT$$u20$for$u20$u32$GT$13wrapping_cast17hb139a5dafce84ea2E
	.loc	5 1068 2
	addq	$16, %rsp
	popq	%rbp
	retq
Ltmp247:
Lfunc_end120:
	.cfi_endproc

	.globl	__ZN2az13wrapping_cast17he30a95ff873656acE
	.p2align	4, 0x90
__ZN2az13wrapping_cast17he30a95ff873656acE:
Lfunc_begin121:
	.loc	5 1066 0
	.cfi_startproc
	pushq	%rbp
	.cfi_def_cfa_offset 16
	.cfi_offset %rbp, -16
	movq	%rsp, %rbp
	.cfi_def_cfa_register %rbp
	subq	$16, %rsp
	movq	%rdi, -8(%rbp)
Ltmp248:
	.loc	5 1067 5 prologue_end
	callq	__ZN2az3int60_$LT$impl$u20$az..WrappingCast$LT$i8$GT$$u20$for$u20$i64$GT$13wrapping_cast17hb973676869b10c10E
	.loc	5 1068 2
	addq	$16, %rsp
	popq	%rbp
	retq
Ltmp249:
Lfunc_end121:
	.cfi_endproc

	.globl	__ZN2az13wrapping_cast17hea0a8388a0580d82E
	.p2align	4, 0x90
__ZN2az13wrapping_cast17hea0a8388a0580d82E:
Lfunc_begin122:
	.loc	5 1066 0
	.cfi_startproc
	pushq	%rbp
	.cfi_def_cfa_offset 16
	.cfi_offset %rbp, -16
	movq	%rsp, %rbp
	.cfi_def_cfa_register %rbp
	subq	$16, %rsp
	movq	%rdi, -8(%rbp)
Ltmp250:
	.loc	5 1067 5 prologue_end
	callq	__ZN2az3int63_$LT$impl$u20$az..WrappingCast$LT$usize$GT$$u20$for$u20$i64$GT$13wrapping_cast17hdfefd4aa3fda4693E
	.loc	5 1068 2
	addq	$16, %rsp
	popq	%rbp
	retq
Ltmp251:
Lfunc_end122:
	.cfi_endproc

	.globl	__ZN2az13wrapping_cast17heecfe167f55214a1E
	.p2align	4, 0x90
__ZN2az13wrapping_cast17heecfe167f55214a1E:
Lfunc_begin123:
	.loc	5 1066 0
	.cfi_startproc
	pushq	%rbp
	.cfi_def_cfa_offset 16
	.cfi_offset %rbp, -16
	movq	%rsp, %rbp
	.cfi_def_cfa_register %rbp
	subq	$16, %rsp
	movl	%edi, -4(%rbp)
Ltmp252:
	.loc	5 1067 5 prologue_end
	callq	__ZN2az3int61_$LT$impl$u20$az..WrappingCast$LT$u32$GT$$u20$for$u20$i32$GT$13wrapping_cast17hc539b6b4b7e540eeE
	.loc	5 1068 2
	addq	$16, %rsp
	popq	%rbp
	retq
Ltmp253:
Lfunc_end123:
	.cfi_endproc

	.globl	__ZN2az13wrapping_cast17hfaa35c63f1ac6673E
	.p2align	4, 0x90
__ZN2az13wrapping_cast17hfaa35c63f1ac6673E:
Lfunc_begin124:
	.loc	5 1066 0
	.cfi_startproc
	pushq	%rbp
	.cfi_def_cfa_offset 16
	.cfi_offset %rbp, -16
	movq	%rsp, %rbp
	.cfi_def_cfa_register %rbp
	subq	$16, %rsp
	movl	%edi, -4(%rbp)
Ltmp254:
	.loc	5 1067 5 prologue_end
	callq	__ZN2az3int61_$LT$impl$u20$az..WrappingCast$LT$i32$GT$$u20$for$u20$u32$GT$13wrapping_cast17hdac3943f23437717E
	.loc	5 1068 2
	addq	$16, %rsp
	popq	%rbp
	retq
Ltmp255:
Lfunc_end124:
	.cfi_endproc

	.globl	__ZN2az16overflowing_cast17h06c6cc8547081f1fE
	.p2align	4, 0x90
__ZN2az16overflowing_cast17h06c6cc8547081f1fE:
Lfunc_begin125:
	.loc	5 1089 0
	.cfi_startproc
	pushq	%rbp
	.cfi_def_cfa_offset 16
	.cfi_offset %rbp, -16
	movq	%rsp, %rbp
	.cfi_def_cfa_register %rbp
	subq	$16, %rsp
	movl	%edi, -4(%rbp)
Ltmp256:
	.loc	5 1090 5 prologue_end
	callq	__ZN2az3int63_$LT$impl$u20$az..OverflowingCast$LT$u8$GT$$u20$for$u20$i32$GT$16overflowing_cast17h6c6036e2bf459125E
	.loc	5 1091 2
	andb	$1, %dl
	addq	$16, %rsp
	popq	%rbp
	retq
Ltmp257:
Lfunc_end125:
	.cfi_endproc

	.globl	__ZN2az16overflowing_cast17h087b99d61d7c6ee6E
	.p2align	4, 0x90
__ZN2az16overflowing_cast17h087b99d61d7c6ee6E:
Lfunc_begin126:
	.loc	5 1089 0
	.cfi_startproc
	pushq	%rbp
	.cfi_def_cfa_offset 16
	.cfi_offset %rbp, -16
	movq	%rsp, %rbp
	.cfi_def_cfa_register %rbp
	subq	$16, %rsp
	movq	%rdi, -8(%rbp)
Ltmp258:
	.loc	5 1090 5 prologue_end
	callq	__ZN2az3int64_$LT$impl$u20$az..OverflowingCast$LT$i32$GT$$u20$for$u20$u64$GT$16overflowing_cast17h226bec54370ee9c9E
	.loc	5 1091 2
	andb	$1, %dl
	addq	$16, %rsp
	popq	%rbp
	retq
Ltmp259:
Lfunc_end126:
	.cfi_endproc

	.globl	__ZN2az16overflowing_cast17h19a8ab4f8165c5e8E
	.p2align	4, 0x90
__ZN2az16overflowing_cast17h19a8ab4f8165c5e8E:
Lfunc_begin127:
	.loc	5 1089 0
	.cfi_startproc
	pushq	%rbp
	.cfi_def_cfa_offset 16
	.cfi_offset %rbp, -16
	movq	%rsp, %rbp
	.cfi_def_cfa_register %rbp
	subq	$16, %rsp
	movq	%rdi, -8(%rbp)
Ltmp260:
	.loc	5 1090 5 prologue_end
	callq	__ZN2az3int64_$LT$impl$u20$az..OverflowingCast$LT$u16$GT$$u20$for$u20$i64$GT$16overflowing_cast17hd5178cf2cb017572E
	.loc	5 1091 2
	andb	$1, %dl
	addq	$16, %rsp
	popq	%rbp
	retq
Ltmp261:
Lfunc_end127:
	.cfi_endproc

	.globl	__ZN2az16overflowing_cast17h1a49072bdcc2e4a9E
	.p2align	4, 0x90
__ZN2az16overflowing_cast17h1a49072bdcc2e4a9E:
Lfunc_begin128:
	.loc	5 1089 0
	.cfi_startproc
	pushq	%rbp
	.cfi_def_cfa_offset 16
	.cfi_offset %rbp, -16
	movq	%rsp, %rbp
	.cfi_def_cfa_register %rbp
	subq	$16, %rsp
	movl	%edi, -4(%rbp)
Ltmp262:
	.loc	5 1090 5 prologue_end
	callq	__ZN2az3int63_$LT$impl$u20$az..OverflowingCast$LT$i8$GT$$u20$for$u20$u32$GT$16overflowing_cast17hccad422ba9680d3bE
	.loc	5 1091 2
	andb	$1, %dl
	addq	$16, %rsp
	popq	%rbp
	retq
Ltmp263:
Lfunc_end128:
	.cfi_endproc

	.globl	__ZN2az16overflowing_cast17h2594f7ace9774bf4E
	.p2align	4, 0x90
__ZN2az16overflowing_cast17h2594f7ace9774bf4E:
Lfunc_begin129:
	.loc	5 1089 0
	.cfi_startproc
	pushq	%rbp
	.cfi_def_cfa_offset 16
	.cfi_offset %rbp, -16
	movq	%rsp, %rbp
	.cfi_def_cfa_register %rbp
	subq	$16, %rsp
	movl	%edi, -4(%rbp)
Ltmp264:
	.loc	5 1090 5 prologue_end
	callq	__ZN2az3int64_$LT$impl$u20$az..OverflowingCast$LT$u16$GT$$u20$for$u20$u32$GT$16overflowing_cast17h3aaf92e7359a2589E
	.loc	5 1091 2
	andb	$1, %dl
	addq	$16, %rsp
	popq	%rbp
	retq
Ltmp265:
Lfunc_end129:
	.cfi_endproc

	.globl	__ZN2az16overflowing_cast17h28ec18b2cded4e7fE
	.p2align	4, 0x90
__ZN2az16overflowing_cast17h28ec18b2cded4e7fE:
Lfunc_begin130:
	.loc	5 1089 0
	.cfi_startproc
	pushq	%rbp
	.cfi_def_cfa_offset 16
	.cfi_offset %rbp, -16
	movq	%rsp, %rbp
	.cfi_def_cfa_register %rbp
	subq	$16, %rsp
	movq	%rdi, -8(%rbp)
Ltmp266:
	.loc	5 1090 5 prologue_end
	callq	__ZN2az3int66_$LT$impl$u20$az..OverflowingCast$LT$isize$GT$$u20$for$u20$u64$GT$16overflowing_cast17h5a7fccfa9a47c77fE
	.loc	5 1091 2
	andb	$1, %dl
	addq	$16, %rsp
	popq	%rbp
	retq
Ltmp267:
Lfunc_end130:
	.cfi_endproc

	.globl	__ZN2az16overflowing_cast17h2d7d75d38fb00695E
	.p2align	4, 0x90
__ZN2az16overflowing_cast17h2d7d75d38fb00695E:
Lfunc_begin131:
	.loc	5 1089 0
	.cfi_startproc
	pushq	%rbp
	.cfi_def_cfa_offset 16
	.cfi_offset %rbp, -16
	movq	%rsp, %rbp
	.cfi_def_cfa_register %rbp
	subq	$16, %rsp
	movq	%rdi, -16(%rbp)
	movq	%rsi, -8(%rbp)
Ltmp268:
	.loc	5 1090 5 prologue_end
	callq	__ZN2az3int66_$LT$impl$u20$az..OverflowingCast$LT$u128$GT$$u20$for$u20$i128$GT$16overflowing_cast17h5c5848345d4ffa1cE
	.loc	5 1091 2
	andb	$1, %cl
	addq	$16, %rsp
	popq	%rbp
	retq
Ltmp269:
Lfunc_end131:
	.cfi_endproc

	.globl	__ZN2az16overflowing_cast17h2d97f7f375d96b69E
	.p2align	4, 0x90
__ZN2az16overflowing_cast17h2d97f7f375d96b69E:
Lfunc_begin132:
	.loc	5 1089 0
	.cfi_startproc
	pushq	%rbp
	.cfi_def_cfa_offset 16
	.cfi_offset %rbp, -16
	movq	%rsp, %rbp
	.cfi_def_cfa_register %rbp
	subq	$16, %rsp
	movq	%rdi, -16(%rbp)
	movq	%rsi, -8(%rbp)
Ltmp270:
	.loc	5 1090 5 prologue_end
	callq	__ZN2az3int66_$LT$impl$u20$az..OverflowingCast$LT$u128$GT$$u20$for$u20$u128$GT$16overflowing_cast17ha572a5cf7727a39fE
	.loc	5 1091 2
	andb	$1, %cl
	addq	$16, %rsp
	popq	%rbp
	retq
Ltmp271:
Lfunc_end132:
	.cfi_endproc

	.globl	__ZN2az16overflowing_cast17h484469a6a0593b57E
	.p2align	4, 0x90
__ZN2az16overflowing_cast17h484469a6a0593b57E:
Lfunc_begin133:
	.loc	5 1089 0
	.cfi_startproc
	pushq	%rbp
	.cfi_def_cfa_offset 16
	.cfi_offset %rbp, -16
	movq	%rsp, %rbp
	.cfi_def_cfa_register %rbp
	subq	$16, %rsp
	movq	%rdi, -16(%rbp)
	movq	%rsi, -8(%rbp)
Ltmp272:
	.loc	5 1090 5 prologue_end
	callq	__ZN2az3int66_$LT$impl$u20$az..OverflowingCast$LT$i128$GT$$u20$for$u20$u128$GT$16overflowing_cast17h6b836cc305182a86E
	.loc	5 1091 2
	andb	$1, %cl
	addq	$16, %rsp
	popq	%rbp
	retq
Ltmp273:
Lfunc_end133:
	.cfi_endproc

	.globl	__ZN2az16overflowing_cast17h490d72caf9a214a5E
	.p2align	4, 0x90
__ZN2az16overflowing_cast17h490d72caf9a214a5E:
Lfunc_begin134:
	.loc	5 1089 0
	.cfi_startproc
	pushq	%rbp
	.cfi_def_cfa_offset 16
	.cfi_offset %rbp, -16
	movq	%rsp, %rbp
	.cfi_def_cfa_register %rbp
	subq	$16, %rsp
	movq	%rdi, -8(%rbp)
Ltmp274:
	.loc	5 1090 5 prologue_end
	callq	__ZN2az3int64_$LT$impl$u20$az..OverflowingCast$LT$u32$GT$$u20$for$u20$u64$GT$16overflowing_cast17hc487cb01b6ad02c2E
	.loc	5 1091 2
	andb	$1, %dl
	addq	$16, %rsp
	popq	%rbp
	retq
Ltmp275:
Lfunc_end134:
	.cfi_endproc

	.globl	__ZN2az16overflowing_cast17h553e41088157498eE
	.p2align	4, 0x90
__ZN2az16overflowing_cast17h553e41088157498eE:
Lfunc_begin135:
	.loc	5 1089 0
	.cfi_startproc
	pushq	%rbp
	.cfi_def_cfa_offset 16
	.cfi_offset %rbp, -16
	movq	%rsp, %rbp
	.cfi_def_cfa_register %rbp
	subq	$16, %rsp
	movl	%edi, -4(%rbp)
Ltmp276:
	.loc	5 1090 5 prologue_end
	callq	__ZN2az3int64_$LT$impl$u20$az..OverflowingCast$LT$u32$GT$$u20$for$u20$i32$GT$16overflowing_cast17h6fa4302befed15e0E
	.loc	5 1091 2
	andb	$1, %dl
	addq	$16, %rsp
	popq	%rbp
	retq
Ltmp277:
Lfunc_end135:
	.cfi_endproc

	.globl	__ZN2az16overflowing_cast17h5cb2745b184b1064E
	.p2align	4, 0x90
__ZN2az16overflowing_cast17h5cb2745b184b1064E:
Lfunc_begin136:
	.loc	5 1089 0
	.cfi_startproc
	pushq	%rbp
	.cfi_def_cfa_offset 16
	.cfi_offset %rbp, -16
	movq	%rsp, %rbp
	.cfi_def_cfa_register %rbp
	subq	$16, %rsp
	movq	%rdi, -8(%rbp)
Ltmp278:
	.loc	5 1090 5 prologue_end
	callq	__ZN2az3int64_$LT$impl$u20$az..OverflowingCast$LT$u64$GT$$u20$for$u20$u64$GT$16overflowing_cast17h0bba544ae840b833E
	.loc	5 1091 2
	andb	$1, %dl
	addq	$16, %rsp
	popq	%rbp
	retq
Ltmp279:
Lfunc_end136:
	.cfi_endproc

	.globl	__ZN2az16overflowing_cast17h5e7c1ba6ffd65576E
	.p2align	4, 0x90
__ZN2az16overflowing_cast17h5e7c1ba6ffd65576E:
Lfunc_begin137:
	.loc	5 1089 0
	.cfi_startproc
	pushq	%rbp
	.cfi_def_cfa_offset 16
	.cfi_offset %rbp, -16
	movq	%rsp, %rbp
	.cfi_def_cfa_register %rbp
	subq	$16, %rsp
	movl	%edi, -4(%rbp)
Ltmp280:
	.loc	5 1090 5 prologue_end
	callq	__ZN2az3int64_$LT$impl$u20$az..OverflowingCast$LT$i32$GT$$u20$for$u20$u32$GT$16overflowing_cast17h40649c9bd5d7cf35E
	.loc	5 1091 2
	andb	$1, %dl
	addq	$16, %rsp
	popq	%rbp
	retq
Ltmp281:
Lfunc_end137:
	.cfi_endproc

	.globl	__ZN2az16overflowing_cast17h6200bfa938aa4b16E
	.p2align	4, 0x90
__ZN2az16overflowing_cast17h6200bfa938aa4b16E:
Lfunc_begin138:
	.loc	5 1089 0
	.cfi_startproc
	pushq	%rbp
	.cfi_def_cfa_offset 16
	.cfi_offset %rbp, -16
	movq	%rsp, %rbp
	.cfi_def_cfa_register %rbp
	subq	$16, %rsp
	movq	%rdi, -8(%rbp)
Ltmp282:
	.loc	5 1090 5 prologue_end
	callq	__ZN2az3int64_$LT$impl$u20$az..OverflowingCast$LT$i16$GT$$u20$for$u20$u64$GT$16overflowing_cast17h56d499946d047360E
	.loc	5 1091 2
	andb	$1, %dl
	addq	$16, %rsp
	popq	%rbp
	retq
Ltmp283:
Lfunc_end138:
	.cfi_endproc

	.globl	__ZN2az16overflowing_cast17h67f0d5ac970318f2E
	.p2align	4, 0x90
__ZN2az16overflowing_cast17h67f0d5ac970318f2E:
Lfunc_begin139:
	.loc	5 1089 0
	.cfi_startproc
	pushq	%rbp
	.cfi_def_cfa_offset 16
	.cfi_offset %rbp, -16
	movq	%rsp, %rbp
	.cfi_def_cfa_register %rbp
	subq	$16, %rsp
	movq	%rdi, -8(%rbp)
Ltmp284:
	.loc	5 1090 5 prologue_end
	callq	__ZN2az3int66_$LT$impl$u20$az..OverflowingCast$LT$usize$GT$$u20$for$u20$u64$GT$16overflowing_cast17h6e8813dc63c55e2bE
	.loc	5 1091 2
	andb	$1, %dl
	addq	$16, %rsp
	popq	%rbp
	retq
Ltmp285:
Lfunc_end139:
	.cfi_endproc

	.globl	__ZN2az16overflowing_cast17h6d81a761e2d3b018E
	.p2align	4, 0x90
__ZN2az16overflowing_cast17h6d81a761e2d3b018E:
Lfunc_begin140:
	.loc	5 1089 0
	.cfi_startproc
	pushq	%rbp
	.cfi_def_cfa_offset 16
	.cfi_offset %rbp, -16
	movq	%rsp, %rbp
	.cfi_def_cfa_register %rbp
	subq	$16, %rsp
	movl	%edi, -4(%rbp)
Ltmp286:
	.loc	5 1090 5 prologue_end
	callq	__ZN2az3int64_$LT$impl$u20$az..OverflowingCast$LT$i32$GT$$u20$for$u20$i32$GT$16overflowing_cast17hc5cee4c7e5e45f62E
	.loc	5 1091 2
	andb	$1, %dl
	addq	$16, %rsp
	popq	%rbp
	retq
Ltmp287:
Lfunc_end140:
	.cfi_endproc

	.globl	__ZN2az16overflowing_cast17h736706723fc04466E
	.p2align	4, 0x90
__ZN2az16overflowing_cast17h736706723fc04466E:
Lfunc_begin141:
	.loc	5 1089 0
	.cfi_startproc
	pushq	%rbp
	.cfi_def_cfa_offset 16
	.cfi_offset %rbp, -16
	movq	%rsp, %rbp
	.cfi_def_cfa_register %rbp
	subq	$16, %rsp
	movq	%rdi, -8(%rbp)
Ltmp288:
	.loc	5 1090 5 prologue_end
	callq	__ZN2az3int63_$LT$impl$u20$az..OverflowingCast$LT$u8$GT$$u20$for$u20$u64$GT$16overflowing_cast17heb4ea4a128896166E
	.loc	5 1091 2
	andb	$1, %dl
	addq	$16, %rsp
	popq	%rbp
	retq
Ltmp289:
Lfunc_end141:
	.cfi_endproc

	.globl	__ZN2az16overflowing_cast17h76b639efe45b69acE
	.p2align	4, 0x90
__ZN2az16overflowing_cast17h76b639efe45b69acE:
Lfunc_begin142:
	.loc	5 1089 0
	.cfi_startproc
	pushq	%rbp
	.cfi_def_cfa_offset 16
	.cfi_offset %rbp, -16
	movq	%rsp, %rbp
	.cfi_def_cfa_register %rbp
	subq	$16, %rsp
	movq	%rdi, -8(%rbp)
Ltmp290:
	.loc	5 1090 5 prologue_end
	callq	__ZN2az3int66_$LT$impl$u20$az..OverflowingCast$LT$usize$GT$$u20$for$u20$i64$GT$16overflowing_cast17hf88d6566bf6dba9dE
	.loc	5 1091 2
	andb	$1, %dl
	addq	$16, %rsp
	popq	%rbp
	retq
Ltmp291:
Lfunc_end142:
	.cfi_endproc

	.globl	__ZN2az16overflowing_cast17h7afc5f2676cf2cceE
	.p2align	4, 0x90
__ZN2az16overflowing_cast17h7afc5f2676cf2cceE:
Lfunc_begin143:
	.loc	5 1089 0
	.cfi_startproc
	pushq	%rbp
	.cfi_def_cfa_offset 16
	.cfi_offset %rbp, -16
	movq	%rsp, %rbp
	.cfi_def_cfa_register %rbp
	subq	$16, %rsp
	movq	%rdi, -8(%rbp)
Ltmp292:
	.loc	5 1090 5 prologue_end
	callq	__ZN2az3int64_$LT$impl$u20$az..OverflowingCast$LT$i64$GT$$u20$for$u20$u64$GT$16overflowing_cast17hec05477657e1d324E
	.loc	5 1091 2
	andb	$1, %dl
	addq	$16, %rsp
	popq	%rbp
	retq
Ltmp293:
Lfunc_end143:
	.cfi_endproc

	.globl	__ZN2az16overflowing_cast17h7cf2a5bcb387a68cE
	.p2align	4, 0x90
__ZN2az16overflowing_cast17h7cf2a5bcb387a68cE:
Lfunc_begin144:
	.loc	5 1089 0
	.cfi_startproc
	pushq	%rbp
	.cfi_def_cfa_offset 16
	.cfi_offset %rbp, -16
	movq	%rsp, %rbp
	.cfi_def_cfa_register %rbp
	subq	$16, %rsp
	movq	%rdi, -8(%rbp)
Ltmp294:
	.loc	5 1090 5 prologue_end
	callq	__ZN2az3int64_$LT$impl$u20$az..OverflowingCast$LT$u64$GT$$u20$for$u20$i64$GT$16overflowing_cast17h703584dea7bebe4bE
	.loc	5 1091 2
	andb	$1, %dl
	addq	$16, %rsp
	popq	%rbp
	retq
Ltmp295:
Lfunc_end144:
	.cfi_endproc

	.globl	__ZN2az16overflowing_cast17h8130d30010483db2E
	.p2align	4, 0x90
__ZN2az16overflowing_cast17h8130d30010483db2E:
Lfunc_begin145:
	.loc	5 1089 0
	.cfi_startproc
	pushq	%rbp
	.cfi_def_cfa_offset 16
	.cfi_offset %rbp, -16
	movq	%rsp, %rbp
	.cfi_def_cfa_register %rbp
	subq	$16, %rsp
	movq	%rdi, -8(%rbp)
Ltmp296:
	.loc	5 1090 5 prologue_end
	callq	__ZN2az3int66_$LT$impl$u20$az..OverflowingCast$LT$isize$GT$$u20$for$u20$i64$GT$16overflowing_cast17h3adb0fc3a8d2782cE
	.loc	5 1091 2
	andb	$1, %dl
	addq	$16, %rsp
	popq	%rbp
	retq
Ltmp297:
Lfunc_end145:
	.cfi_endproc

	.globl	__ZN2az16overflowing_cast17h90679e63640736efE
	.p2align	4, 0x90
__ZN2az16overflowing_cast17h90679e63640736efE:
Lfunc_begin146:
	.loc	5 1089 0
	.cfi_startproc
	pushq	%rbp
	.cfi_def_cfa_offset 16
	.cfi_offset %rbp, -16
	movq	%rsp, %rbp
	.cfi_def_cfa_register %rbp
	subq	$16, %rsp
	movl	%edi, -4(%rbp)
Ltmp298:
	.loc	5 1090 5 prologue_end
	callq	__ZN2az3int64_$LT$impl$u20$az..OverflowingCast$LT$i16$GT$$u20$for$u20$u32$GT$16overflowing_cast17h8d93d59a4acd82b0E
	.loc	5 1091 2
	andb	$1, %dl
	addq	$16, %rsp
	popq	%rbp
	retq
Ltmp299:
Lfunc_end146:
	.cfi_endproc

	.globl	__ZN2az16overflowing_cast17h92729a2985684397E
	.p2align	4, 0x90
__ZN2az16overflowing_cast17h92729a2985684397E:
Lfunc_begin147:
	.loc	5 1089 0
	.cfi_startproc
	pushq	%rbp
	.cfi_def_cfa_offset 16
	.cfi_offset %rbp, -16
	movq	%rsp, %rbp
	.cfi_def_cfa_register %rbp
	subq	$16, %rsp
	movl	%edi, -4(%rbp)
Ltmp300:
	.loc	5 1090 5 prologue_end
	callq	__ZN2az3int64_$LT$impl$u20$az..OverflowingCast$LT$u16$GT$$u20$for$u20$i32$GT$16overflowing_cast17h88774a98a27052aeE
	.loc	5 1091 2
	andb	$1, %dl
	addq	$16, %rsp
	popq	%rbp
	retq
Ltmp301:
Lfunc_end147:
	.cfi_endproc

	.globl	__ZN2az16overflowing_cast17h964e6d7c75466a1bE
	.p2align	4, 0x90
__ZN2az16overflowing_cast17h964e6d7c75466a1bE:
Lfunc_begin148:
	.loc	5 1089 0
	.cfi_startproc
	pushq	%rbp
	.cfi_def_cfa_offset 16
	.cfi_offset %rbp, -16
	movq	%rsp, %rbp
	.cfi_def_cfa_register %rbp
	subq	$16, %rsp
	movq	%rdi, -8(%rbp)
Ltmp302:
	.loc	5 1090 5 prologue_end
	callq	__ZN2az3int64_$LT$impl$u20$az..OverflowingCast$LT$u32$GT$$u20$for$u20$i64$GT$16overflowing_cast17hd976a3ed742d46d3E
	.loc	5 1091 2
	andb	$1, %dl
	addq	$16, %rsp
	popq	%rbp
	retq
Ltmp303:
Lfunc_end148:
	.cfi_endproc

	.globl	__ZN2az16overflowing_cast17ha26075904d4d1636E
	.p2align	4, 0x90
__ZN2az16overflowing_cast17ha26075904d4d1636E:
Lfunc_begin149:
	.loc	5 1089 0
	.cfi_startproc
	pushq	%rbp
	.cfi_def_cfa_offset 16
	.cfi_offset %rbp, -16
	movq	%rsp, %rbp
	.cfi_def_cfa_register %rbp
	subq	$16, %rsp
	movl	%edi, -4(%rbp)
Ltmp304:
	.loc	5 1090 5 prologue_end
	callq	__ZN2az3int63_$LT$impl$u20$az..OverflowingCast$LT$u8$GT$$u20$for$u20$u32$GT$16overflowing_cast17ha543f9d3802f3897E
	.loc	5 1091 2
	andb	$1, %dl
	addq	$16, %rsp
	popq	%rbp
	retq
Ltmp305:
Lfunc_end149:
	.cfi_endproc

	.globl	__ZN2az16overflowing_cast17ha9f1be27539c4e14E
	.p2align	4, 0x90
__ZN2az16overflowing_cast17ha9f1be27539c4e14E:
Lfunc_begin150:
	.loc	5 1089 0
	.cfi_startproc
	pushq	%rbp
	.cfi_def_cfa_offset 16
	.cfi_offset %rbp, -16
	movq	%rsp, %rbp
	.cfi_def_cfa_register %rbp
	subq	$16, %rsp
	movq	%rdi, -8(%rbp)
Ltmp306:
	.loc	5 1090 5 prologue_end
	callq	__ZN2az3int64_$LT$impl$u20$az..OverflowingCast$LT$i32$GT$$u20$for$u20$i64$GT$16overflowing_cast17h3d53fd468dd30777E
	.loc	5 1091 2
	andb	$1, %dl
	addq	$16, %rsp
	popq	%rbp
	retq
Ltmp307:
Lfunc_end150:
	.cfi_endproc

	.globl	__ZN2az16overflowing_cast17haec4ba4a03b0fdadE
	.p2align	4, 0x90
__ZN2az16overflowing_cast17haec4ba4a03b0fdadE:
Lfunc_begin151:
	.loc	5 1089 0
	.cfi_startproc
	pushq	%rbp
	.cfi_def_cfa_offset 16
	.cfi_offset %rbp, -16
	movq	%rsp, %rbp
	.cfi_def_cfa_register %rbp
	subq	$16, %rsp
	movq	%rdi, -8(%rbp)
Ltmp308:
	.loc	5 1090 5 prologue_end
	callq	__ZN2az3int63_$LT$impl$u20$az..OverflowingCast$LT$i8$GT$$u20$for$u20$i64$GT$16overflowing_cast17hb08a4b4cf0456f62E
	.loc	5 1091 2
	andb	$1, %dl
	addq	$16, %rsp
	popq	%rbp
	retq
Ltmp309:
Lfunc_end151:
	.cfi_endproc

	.globl	__ZN2az16overflowing_cast17hbaccfc7ce1c299bfE
	.p2align	4, 0x90
__ZN2az16overflowing_cast17hbaccfc7ce1c299bfE:
Lfunc_begin152:
	.loc	5 1089 0
	.cfi_startproc
	pushq	%rbp
	.cfi_def_cfa_offset 16
	.cfi_offset %rbp, -16
	movq	%rsp, %rbp
	.cfi_def_cfa_register %rbp
	subq	$16, %rsp
	movl	%edi, -4(%rbp)
Ltmp310:
	.loc	5 1090 5 prologue_end
	callq	__ZN2az3int64_$LT$impl$u20$az..OverflowingCast$LT$i16$GT$$u20$for$u20$i32$GT$16overflowing_cast17h95d3e7120b49fcdeE
	.loc	5 1091 2
	andb	$1, %dl
	addq	$16, %rsp
	popq	%rbp
	retq
Ltmp311:
Lfunc_end152:
	.cfi_endproc

	.globl	__ZN2az16overflowing_cast17hc3f16e9e48f3e7afE
	.p2align	4, 0x90
__ZN2az16overflowing_cast17hc3f16e9e48f3e7afE:
Lfunc_begin153:
	.loc	5 1089 0
	.cfi_startproc
	pushq	%rbp
	.cfi_def_cfa_offset 16
	.cfi_offset %rbp, -16
	movq	%rsp, %rbp
	.cfi_def_cfa_register %rbp
	subq	$16, %rsp
	movq	%rdi, -8(%rbp)
Ltmp312:
	.loc	5 1090 5 prologue_end
	callq	__ZN2az3int64_$LT$impl$u20$az..OverflowingCast$LT$i16$GT$$u20$for$u20$i64$GT$16overflowing_cast17h985cd9fb1a72d518E
	.loc	5 1091 2
	andb	$1, %dl
	addq	$16, %rsp
	popq	%rbp
	retq
Ltmp313:
Lfunc_end153:
	.cfi_endproc

	.globl	__ZN2az16overflowing_cast17hcb6515a8063f0dbeE
	.p2align	4, 0x90
__ZN2az16overflowing_cast17hcb6515a8063f0dbeE:
Lfunc_begin154:
	.loc	5 1089 0
	.cfi_startproc
	pushq	%rbp
	.cfi_def_cfa_offset 16
	.cfi_offset %rbp, -16
	movq	%rsp, %rbp
	.cfi_def_cfa_register %rbp
	subq	$16, %rsp
	movq	%rdi, -8(%rbp)
Ltmp314:
	.loc	5 1090 5 prologue_end
	callq	__ZN2az3int64_$LT$impl$u20$az..OverflowingCast$LT$i64$GT$$u20$for$u20$i64$GT$16overflowing_cast17h2d57807a1d642fc1E
	.loc	5 1091 2
	andb	$1, %dl
	addq	$16, %rsp
	popq	%rbp
	retq
Ltmp315:
Lfunc_end154:
	.cfi_endproc

	.globl	__ZN2az16overflowing_cast17hcc7ac5a6cef64dc5E
	.p2align	4, 0x90
__ZN2az16overflowing_cast17hcc7ac5a6cef64dc5E:
Lfunc_begin155:
	.loc	5 1089 0
	.cfi_startproc
	pushq	%rbp
	.cfi_def_cfa_offset 16
	.cfi_offset %rbp, -16
	movq	%rsp, %rbp
	.cfi_def_cfa_register %rbp
	subq	$16, %rsp
	movq	%rdi, -8(%rbp)
Ltmp316:
	.loc	5 1090 5 prologue_end
	callq	__ZN2az3int63_$LT$impl$u20$az..OverflowingCast$LT$u8$GT$$u20$for$u20$i64$GT$16overflowing_cast17haef198f04b10969bE
	.loc	5 1091 2
	andb	$1, %dl
	addq	$16, %rsp
	popq	%rbp
	retq
Ltmp317:
Lfunc_end155:
	.cfi_endproc

	.globl	__ZN2az16overflowing_cast17hcf784f24c97fe69dE
	.p2align	4, 0x90
__ZN2az16overflowing_cast17hcf784f24c97fe69dE:
Lfunc_begin156:
	.loc	5 1089 0
	.cfi_startproc
	pushq	%rbp
	.cfi_def_cfa_offset 16
	.cfi_offset %rbp, -16
	movq	%rsp, %rbp
	.cfi_def_cfa_register %rbp
	subq	$16, %rsp
	movl	%edi, -4(%rbp)
Ltmp318:
	.loc	5 1090 5 prologue_end
	callq	__ZN2az3int64_$LT$impl$u20$az..OverflowingCast$LT$u32$GT$$u20$for$u20$u32$GT$16overflowing_cast17h17f9f7c86531da98E
	.loc	5 1091 2
	andb	$1, %dl
	addq	$16, %rsp
	popq	%rbp
	retq
Ltmp319:
Lfunc_end156:
	.cfi_endproc

	.globl	__ZN2az16overflowing_cast17he047203815135d1fE
	.p2align	4, 0x90
__ZN2az16overflowing_cast17he047203815135d1fE:
Lfunc_begin157:
	.loc	5 1089 0
	.cfi_startproc
	pushq	%rbp
	.cfi_def_cfa_offset 16
	.cfi_offset %rbp, -16
	movq	%rsp, %rbp
	.cfi_def_cfa_register %rbp
	subq	$16, %rsp
	movq	%rdi, -8(%rbp)
Ltmp320:
	.loc	5 1090 5 prologue_end
	callq	__ZN2az3int63_$LT$impl$u20$az..OverflowingCast$LT$i8$GT$$u20$for$u20$u64$GT$16overflowing_cast17h16a8626004cf89f3E
	.loc	5 1091 2
	andb	$1, %dl
	addq	$16, %rsp
	popq	%rbp
	retq
Ltmp321:
Lfunc_end157:
	.cfi_endproc

	.globl	__ZN2az16overflowing_cast17he56eb232905d584aE
	.p2align	4, 0x90
__ZN2az16overflowing_cast17he56eb232905d584aE:
Lfunc_begin158:
	.loc	5 1089 0
	.cfi_startproc
	pushq	%rbp
	.cfi_def_cfa_offset 16
	.cfi_offset %rbp, -16
	movq	%rsp, %rbp
	.cfi_def_cfa_register %rbp
	subq	$16, %rsp
	movq	%rdi, -16(%rbp)
	movq	%rsi, -8(%rbp)
Ltmp322:
	.loc	5 1090 5 prologue_end
	callq	__ZN2az3int66_$LT$impl$u20$az..OverflowingCast$LT$i128$GT$$u20$for$u20$i128$GT$16overflowing_cast17hec53aeee99224580E
	.loc	5 1091 2
	andb	$1, %cl
	addq	$16, %rsp
	popq	%rbp
	retq
Ltmp323:
Lfunc_end158:
	.cfi_endproc

	.globl	__ZN2az16overflowing_cast17heea4ef814ada7679E
	.p2align	4, 0x90
__ZN2az16overflowing_cast17heea4ef814ada7679E:
Lfunc_begin159:
	.loc	5 1089 0
	.cfi_startproc
	pushq	%rbp
	.cfi_def_cfa_offset 16
	.cfi_offset %rbp, -16
	movq	%rsp, %rbp
	.cfi_def_cfa_register %rbp
	subq	$16, %rsp
	movl	%edi, -4(%rbp)
Ltmp324:
	.loc	5 1090 5 prologue_end
	callq	__ZN2az3int63_$LT$impl$u20$az..OverflowingCast$LT$i8$GT$$u20$for$u20$i32$GT$16overflowing_cast17h523add179b91a814E
	.loc	5 1091 2
	andb	$1, %dl
	addq	$16, %rsp
	popq	%rbp
	retq
Ltmp325:
Lfunc_end159:
	.cfi_endproc

	.globl	__ZN2az16overflowing_cast17hfe83279658e18931E
	.p2align	4, 0x90
__ZN2az16overflowing_cast17hfe83279658e18931E:
Lfunc_begin160:
	.loc	5 1089 0
	.cfi_startproc
	pushq	%rbp
	.cfi_def_cfa_offset 16
	.cfi_offset %rbp, -16
	movq	%rsp, %rbp
	.cfi_def_cfa_register %rbp
	subq	$16, %rsp
	movq	%rdi, -8(%rbp)
Ltmp326:
	.loc	5 1090 5 prologue_end
	callq	__ZN2az3int64_$LT$impl$u20$az..OverflowingCast$LT$u16$GT$$u20$for$u20$u64$GT$16overflowing_cast17h4bacb266255e0b0fE
	.loc	5 1091 2
	andb	$1, %dl
	addq	$16, %rsp
	popq	%rbp
	retq
Ltmp327:
Lfunc_end160:
	.cfi_endproc

	.globl	__ZN2az3int59_$LT$impl$u20$az..CheckedCast$LT$i8$GT$$u20$for$u20$f32$GT$12checked_cast17h47befbaa20cfbfc3E
	.p2align	4, 0x90
__ZN2az3int59_$LT$impl$u20$az..CheckedCast$LT$i8$GT$$u20$for$u20$f32$GT$12checked_cast17h47befbaa20cfbfc3E:
Lfunc_begin161:
	.file	6 "/Users/natalie/.cargo/registry/src/github.com-1ecc6299db9ec823/az-1.2.1" "src/int.rs"
	.loc	6 210 0
	.cfi_startproc
	pushq	%rbp
	.cfi_def_cfa_offset 16
	.cfi_offset %rbp, -16
	movq	%rsp, %rbp
	.cfi_def_cfa_register %rbp
	subq	$48, %rsp
	movss	%xmm0, -12(%rbp)
	leaq	-24(%rbp), %rdi
Ltmp328:
	.loc	6 211 39 prologue_end
	callq	__ZN50_$LT$T$u20$as$u20$core..convert..Into$LT$U$GT$$GT$4into17h0ed07b85e979c5f2E
Ltmp329:
	.loc	6 212 23
	movzbl	-24(%rbp), %eax
	subq	$2, %rax
	.loc	6 212 17 is_stmt 0
	jb	LBB161_2
	jmp	LBB161_14
LBB161_14:
	jmp	LBB161_3
	.loc	6 212 23
	ud2
LBB161_2:
	.loc	6 213 95 is_stmt 1
	movb	$0, -32(%rbp)
	jmp	LBB161_9
LBB161_3:
	.loc	6 212 17
	testb	$1, -23(%rbp)
	jne	LBB161_2
	.loc	6 214 44
	movl	-20(%rbp), %eax
	movl	%eax, -36(%rbp)
	movl	%eax, -8(%rbp)
Ltmp330:
	.loc	6 215 28
	testb	$1, -16(%rbp)
	jne	LBB161_6
	.loc	6 0 28 is_stmt 0
	movl	-36(%rbp), %edi
	.loc	6 225 29 is_stmt 1
	leaq	l___unnamed_1(%rip), %rsi
	callq	__ZN2az12checked_cast17hc0418b63738dfb92E
	movb	%dl, -31(%rbp)
	movb	%al, -32(%rbp)
	jmp	LBB161_9
LBB161_6:
	.loc	6 0 29 is_stmt 0
	movl	-36(%rbp), %eax
	.loc	6 216 37 is_stmt 1
	movl	%eax, -4(%rbp)
Ltmp331:
	.loc	6 217 32
	cmpl	$-2147483648, %eax
	je	LBB161_8
	.loc	6 0 32 is_stmt 0
	movl	-36(%rbp), %eax
	.loc	6 219 39 is_stmt 1
	cmpl	$0, %eax
	jl	LBB161_11
	jmp	LBB161_10
LBB161_8:
	.loc	6 0 39 is_stmt 0
	movl	-36(%rbp), %edi
	.loc	6 218 33 is_stmt 1
	leaq	l___unnamed_1(%rip), %rsi
	callq	__ZN2az12checked_cast17ha0aaa37c2fd21176E
	movb	%dl, -31(%rbp)
	movb	%al, -32(%rbp)
Ltmp332:
LBB161_9:
	.loc	6 229 14
	movb	-32(%rbp), %al
	movb	-31(%rbp), %dl
	addq	$48, %rsp
	popq	%rbp
	retq
LBB161_10:
	.loc	6 0 14 is_stmt 0
	movl	-36(%rbp), %eax
Ltmp333:
	.loc	6 222 46 is_stmt 1
	cmpl	$-2147483648, %eax
	sete	%al
	testb	$1, %al
	jne	LBB161_13
	jmp	LBB161_12
LBB161_11:
	.loc	6 220 33
	movb	$0, -32(%rbp)
	.loc	6 219 36
	jmp	LBB161_9
LBB161_12:
	.loc	6 0 36 is_stmt 0
	movl	-36(%rbp), %edi
	.loc	6 222 46 is_stmt 1
	negl	%edi
	.loc	6 222 33 is_stmt 0
	leaq	l___unnamed_1(%rip), %rsi
	callq	__ZN2az12checked_cast17ha0aaa37c2fd21176E
	movb	%dl, -31(%rbp)
	movb	%al, -32(%rbp)
	jmp	LBB161_9
LBB161_13:
	.loc	6 222 46
	leaq	_str.0(%rip), %rdi
	leaq	l___unnamed_1(%rip), %rdx
	movl	$31, %esi
	callq	__ZN4core9panicking5panic17hc1bc45270cf64b03E
Ltmp334:
Lfunc_end161:
	.cfi_endproc

	.globl	__ZN2az3int62_$LT$impl$u20$az..SaturatingCast$LT$i8$GT$$u20$for$u20$f32$GT$15saturating_cast17h670e7c35636e6f0dE
	.p2align	4, 0x90
__ZN2az3int62_$LT$impl$u20$az..SaturatingCast$LT$i8$GT$$u20$for$u20$f32$GT$15saturating_cast17h670e7c35636e6f0dE:
Lfunc_begin162:
	.loc	6 234 0 is_stmt 1
	.cfi_startproc
	pushq	%rbp
	.cfi_def_cfa_offset 16
	.cfi_offset %rbp, -16
	movq	%rsp, %rbp
	.cfi_def_cfa_register %rbp
	subq	$64, %rsp
	movq	%rdi, -48(%rbp)
	movss	%xmm0, -12(%rbp)
Ltmp335:
	.loc	6 235 39 prologue_end
	leaq	-32(%rbp), %rdi
	callq	__ZN50_$LT$T$u20$as$u20$core..convert..Into$LT$U$GT$$GT$4into17h0ed07b85e979c5f2E
Ltmp336:
	.loc	6 236 36
	testb	$1, -24(%rbp)
	jne	LBB162_2
	.loc	6 239 21
	movb	$127, -13(%rbp)
	jmp	LBB162_3
LBB162_2:
	.loc	6 237 21
	movb	$-128, -13(%rbp)
LBB162_3:
Ltmp337:
	.loc	6 241 23
	movzbl	-32(%rbp), %eax
	movq	%rax, -56(%rbp)
	testq	%rax, %rax
	.loc	6 241 17 is_stmt 0
	je	LBB162_5
	jmp	LBB162_18
LBB162_18:
	.loc	6 0 17
	movq	-56(%rbp), %rax
	.loc	6 241 17
	subq	$1, %rax
	je	LBB162_6
	jmp	LBB162_19
LBB162_19:
	jmp	LBB162_7
	.loc	6 241 23
	ud2
LBB162_5:
	.loc	6 0 23
	movq	-48(%rbp), %rdx
	.loc	6 242 39 is_stmt 1
	leaq	l___unnamed_2(%rip), %rdi
	movl	$3, %esi
	callq	__ZN4core9panicking5panic17hc1bc45270cf64b03E
LBB162_6:
	.loc	6 243 78
	movb	-13(%rbp), %al
	movb	%al, -33(%rbp)
	jmp	LBB162_13
LBB162_7:
	.loc	6 241 17
	testb	$1, -31(%rbp)
	jne	LBB162_6
	.loc	6 244 44
	movl	-28(%rbp), %eax
	movl	%eax, -60(%rbp)
	movl	%eax, -8(%rbp)
Ltmp338:
	.loc	6 245 28
	testb	$1, -24(%rbp)
	jne	LBB162_10
	.loc	6 0 28 is_stmt 0
	movq	-48(%rbp), %rsi
	movl	-60(%rbp), %edi
	.loc	6 255 29 is_stmt 1
	callq	__ZN2az15saturating_cast17hde9dd6dbfbc9e736E
	movb	%al, -33(%rbp)
	jmp	LBB162_13
LBB162_10:
	.loc	6 0 29 is_stmt 0
	movl	-60(%rbp), %eax
	.loc	6 246 37 is_stmt 1
	movl	%eax, -4(%rbp)
Ltmp339:
	.loc	6 247 32
	cmpl	$-2147483648, %eax
	je	LBB162_12
	.loc	6 0 32 is_stmt 0
	movl	-60(%rbp), %eax
	.loc	6 249 39 is_stmt 1
	cmpl	$0, %eax
	jl	LBB162_15
	jmp	LBB162_14
LBB162_12:
	.loc	6 0 39 is_stmt 0
	movq	-48(%rbp), %rsi
	movl	-60(%rbp), %edi
	.loc	6 248 33 is_stmt 1
	callq	__ZN2az15saturating_cast17hf01eda9f30180d68E
	movb	%al, -33(%rbp)
Ltmp340:
LBB162_13:
	.loc	6 259 14
	movb	-33(%rbp), %al
	addq	$64, %rsp
	popq	%rbp
	retq
LBB162_14:
	.loc	6 0 14 is_stmt 0
	movl	-60(%rbp), %eax
Ltmp341:
	.loc	6 252 49 is_stmt 1
	cmpl	$-2147483648, %eax
	sete	%al
	testb	$1, %al
	jne	LBB162_17
	jmp	LBB162_16
LBB162_15:
	.loc	6 250 33
	movb	-13(%rbp), %al
	movb	%al, -33(%rbp)
	.loc	6 249 36
	jmp	LBB162_13
LBB162_16:
	.loc	6 0 36 is_stmt 0
	movq	-48(%rbp), %rsi
	movl	-60(%rbp), %eax
	.loc	6 252 49 is_stmt 1
	xorl	%edi, %edi
	subl	%eax, %edi
	.loc	6 252 33 is_stmt 0
	callq	__ZN2az15saturating_cast17hf01eda9f30180d68E
	movb	%al, -33(%rbp)
	jmp	LBB162_13
LBB162_17:
	.loc	6 0 33
	movq	-48(%rbp), %rdx
	.loc	6 252 49
	leaq	_str.0(%rip), %rdi
	movl	$31, %esi
	callq	__ZN4core9panicking5panic17hc1bc45270cf64b03E
Ltmp342:
Lfunc_end162:
	.cfi_endproc

	.globl	__ZN2az3int63_$LT$impl$u20$az..OverflowingCast$LT$i8$GT$$u20$for$u20$f32$GT$16overflowing_cast17ha19f5a169d697304E
	.p2align	4, 0x90
__ZN2az3int63_$LT$impl$u20$az..OverflowingCast$LT$i8$GT$$u20$for$u20$f32$GT$16overflowing_cast17ha19f5a169d697304E:
Lfunc_begin163:
	.loc	6 272 0 is_stmt 1
	.cfi_startproc
	pushq	%rbp
	.cfi_def_cfa_offset 16
	.cfi_offset %rbp, -16
	movq	%rsp, %rbp
	.cfi_def_cfa_register %rbp
	subq	$80, %rsp
	movq	%rdi, -72(%rbp)
	movss	%xmm0, -24(%rbp)
	leaq	-48(%rbp), %rdi
Ltmp343:
	.loc	6 273 39 prologue_end
	callq	__ZN50_$LT$T$u20$as$u20$core..convert..Into$LT$U$GT$$GT$4into17h0ed07b85e979c5f2E
Ltmp344:
	.loc	6 274 23
	movzbl	-48(%rbp), %eax
	movq	%rax, -64(%rbp)
	testq	%rax, %rax
	.loc	6 274 17 is_stmt 0
	je	LBB163_2
	jmp	LBB163_15
LBB163_15:
	.loc	6 0 17
	movq	-64(%rbp), %rax
	.loc	6 274 17
	subq	$1, %rax
	je	LBB163_3
	jmp	LBB163_16
LBB163_16:
	jmp	LBB163_4
	.loc	6 274 23
	ud2
LBB163_2:
	.loc	6 0 23
	movq	-72(%rbp), %rdx
	.loc	6 275 39 is_stmt 1
	leaq	l___unnamed_2(%rip), %rdi
	movl	$3, %esi
	callq	__ZN4core9panicking5panic17hc1bc45270cf64b03E
LBB163_3:
	.loc	6 0 39 is_stmt 0
	movq	-72(%rbp), %rdx
	.loc	6 276 44 is_stmt 1
	leaq	L___unnamed_3(%rip), %rdi
	movl	$8, %esi
	callq	__ZN4core9panicking5panic17hc1bc45270cf64b03E
LBB163_4:
	.loc	6 277 44
	movl	-44(%rbp), %eax
	movl	%eax, -80(%rbp)
	movl	%eax, -20(%rbp)
	.loc	6 277 49 is_stmt 0
	movb	-47(%rbp), %al
	movb	%al, -73(%rbp)
	andb	$1, %al
	movb	%al, -13(%rbp)
Ltmp345:
	.loc	6 278 28 is_stmt 1
	testb	$1, -40(%rbp)
	jne	LBB163_6
	.loc	6 0 28 is_stmt 0
	movq	-72(%rbp), %rsi
	movl	-80(%rbp), %edi
	.loc	6 289 56 is_stmt 1
	callq	__ZN2az16overflowing_cast17h1a49072bdcc2e4a9E
	movb	%al, %cl
	movb	-73(%rbp), %al
	.loc	6 289 34 is_stmt 0
	movb	%cl, -4(%rbp)
	.loc	6 289 43
	movb	%dl, %sil
	andb	$1, %sil
	movb	%sil, -3(%rbp)
Ltmp346:
	.loc	6 290 39 is_stmt 1
	orb	%dl, %al
	.loc	6 290 29 is_stmt 0
	movb	%cl, -56(%rbp)
	andb	$1, %al
	movb	%al, -55(%rbp)
Ltmp347:
	.loc	6 278 25 is_stmt 1
	jmp	LBB163_14
LBB163_6:
	.loc	6 0 25 is_stmt 0
	movl	-80(%rbp), %eax
	.loc	6 279 37 is_stmt 1
	movl	%eax, -12(%rbp)
Ltmp348:
	.loc	6 280 59
	cmpl	$-2147483648, %eax
	je	LBB163_8
	.loc	6 0 59 is_stmt 0
	movl	-80(%rbp), %eax
	.loc	6 282 39 is_stmt 1
	cmpl	$0, %eax
	jl	LBB163_11
	jmp	LBB163_10
LBB163_8:
	.loc	6 0 39 is_stmt 0
	movq	-72(%rbp), %rsi
	movl	-80(%rbp), %edi
	.loc	6 281 33 is_stmt 1
	callq	__ZN2az16overflowing_cast17heea4ef814ada7679E
	movb	%dl, -31(%rbp)
	movb	%al, -32(%rbp)
LBB163_9:
	.loc	6 0 33 is_stmt 0
	movb	-73(%rbp), %al
	.loc	6 280 34 is_stmt 1
	movb	-32(%rbp), %cl
	movb	%cl, -6(%rbp)
	.loc	6 280 43 is_stmt 0
	movb	-31(%rbp), %dl
	movb	%dl, %sil
	andb	$1, %sil
	movb	%sil, -5(%rbp)
Ltmp349:
	.loc	6 287 39 is_stmt 1
	orb	%dl, %al
	.loc	6 287 29 is_stmt 0
	movb	%cl, -56(%rbp)
	andb	$1, %al
	movb	%al, -55(%rbp)
Ltmp350:
	.loc	6 278 25 is_stmt 1
	jmp	LBB163_14
LBB163_10:
	.loc	6 0 25 is_stmt 0
	movl	-80(%rbp), %eax
Ltmp351:
	.loc	6 285 50 is_stmt 1
	cmpl	$-2147483648, %eax
	sete	%al
	testb	$1, %al
	jne	LBB163_13
	jmp	LBB163_12
LBB163_11:
	.loc	6 0 50 is_stmt 0
	movq	-72(%rbp), %rsi
	movl	-80(%rbp), %edi
	.loc	6 283 34 is_stmt 1
	callq	__ZN2az13wrapping_cast17h307cea49c2159912E
	movb	%al, %cl
	movb	%cl, -2(%rbp)
Ltmp352:
	.file	7 "/rustc/2c8cc343237b8f7d5a3c3703e3a87f2eb2c54a74/library/core/src/num" "int_macros.rs"
	.loc	7 1339 40
	movb	%cl, -1(%rbp)
Ltmp353:
	.loc	7 1164 13
	xorl	%eax, %eax
	subb	%cl, %al
Ltmp354:
	.loc	6 283 33
	movb	%al, -32(%rbp)
	movb	$1, -31(%rbp)
	.loc	6 282 36
	jmp	LBB163_9
LBB163_12:
	.loc	6 0 36 is_stmt 0
	movq	-72(%rbp), %rsi
	movl	-80(%rbp), %edi
	.loc	6 285 50 is_stmt 1
	negl	%edi
	.loc	6 285 33 is_stmt 0
	callq	__ZN2az16overflowing_cast17heea4ef814ada7679E
	movb	%dl, -31(%rbp)
	movb	%al, -32(%rbp)
	jmp	LBB163_9
LBB163_13:
	.loc	6 0 33
	movq	-72(%rbp), %rdx
	.loc	6 285 50
	leaq	_str.0(%rip), %rdi
	movl	$31, %esi
	callq	__ZN4core9panicking5panic17hc1bc45270cf64b03E
Ltmp355:
LBB163_14:
	.loc	6 294 14 is_stmt 1
	movb	-56(%rbp), %al
	movb	-55(%rbp), %dl
	addq	$80, %rsp
	popq	%rbp
	retq
Ltmp356:
Lfunc_end163:
	.cfi_endproc

	.globl	__ZN2az3int96_$LT$impl$u20$az..CheckedCast$LT$core..num..wrapping..Wrapping$LT$i8$GT$$GT$$u20$for$u20$f32$GT$12checked_cast17h29f2ba63b65533a8E
	.p2align	4, 0x90
__ZN2az3int96_$LT$impl$u20$az..CheckedCast$LT$core..num..wrapping..Wrapping$LT$i8$GT$$GT$$u20$for$u20$f32$GT$12checked_cast17h29f2ba63b65533a8E:
Lfunc_begin164:
	.loc	6 316 0
	.cfi_startproc
	pushq	%rbp
	.cfi_def_cfa_offset 16
	.cfi_offset %rbp, -16
	movq	%rsp, %rbp
	.cfi_def_cfa_register %rbp
	subq	$48, %rsp
	movss	%xmm0, -16(%rbp)
	leaq	-32(%rbp), %rdi
Ltmp357:
	.loc	6 317 39 prologue_end
	callq	__ZN50_$LT$T$u20$as$u20$core..convert..Into$LT$U$GT$$GT$4into17h0ed07b85e979c5f2E
Ltmp358:
	.loc	6 318 23
	movzbl	-32(%rbp), %eax
	subq	$2, %rax
	.loc	6 318 17 is_stmt 0
	jb	LBB164_2
	jmp	LBB164_14
LBB164_14:
	jmp	LBB164_3
	.loc	6 318 23
	ud2
LBB164_2:
	.loc	6 319 61 is_stmt 1
	movb	$0, -40(%rbp)
	jmp	LBB164_13
LBB164_3:
	.loc	6 320 44
	movl	-28(%rbp), %eax
	movl	%eax, -44(%rbp)
	movl	%eax, -12(%rbp)
Ltmp359:
	.loc	6 321 42
	testb	$1, -24(%rbp)
	jne	LBB164_5
	.loc	6 0 42 is_stmt 0
	movl	-44(%rbp), %edi
	.loc	6 331 29 is_stmt 1
	leaq	l___unnamed_1(%rip), %rsi
	callq	__ZN2az13wrapping_cast17h307cea49c2159912E
	movb	%al, -18(%rbp)
	jmp	LBB164_8
LBB164_5:
	.loc	6 0 29 is_stmt 0
	movl	-44(%rbp), %eax
	.loc	6 322 37 is_stmt 1
	movl	%eax, -8(%rbp)
Ltmp360:
	.loc	6 323 32
	cmpl	$-2147483648, %eax
	je	LBB164_7
	.loc	6 0 32 is_stmt 0
	movl	-44(%rbp), %eax
	.loc	6 325 39 is_stmt 1
	cmpl	$0, %eax
	jl	LBB164_10
	jmp	LBB164_9
LBB164_7:
	.loc	6 0 39 is_stmt 0
	movl	-44(%rbp), %edi
	.loc	6 324 33 is_stmt 1
	leaq	l___unnamed_1(%rip), %rsi
	callq	__ZN2az13wrapping_cast17h23ac14792028f9e2E
	movb	%al, -18(%rbp)
Ltmp361:
LBB164_8:
	.loc	6 333 39
	movb	-18(%rbp), %al
	.loc	6 333 30 is_stmt 0
	movb	%al, -17(%rbp)
	.loc	6 333 25
	movb	-17(%rbp), %al
	movb	%al, -39(%rbp)
	movb	$1, -40(%rbp)
Ltmp362:
	.loc	6 334 21 is_stmt 1
	jmp	LBB164_13
LBB164_9:
	.loc	6 0 21 is_stmt 0
	movl	-44(%rbp), %eax
Ltmp363:
	.loc	6 328 47 is_stmt 1
	cmpl	$-2147483648, %eax
	sete	%al
	testb	$1, %al
	jne	LBB164_12
	jmp	LBB164_11
LBB164_10:
	.loc	6 0 47 is_stmt 0
	movl	-44(%rbp), %edi
	.loc	6 326 33 is_stmt 1
	leaq	l___unnamed_1(%rip), %rsi
	callq	__ZN2az13wrapping_cast17h307cea49c2159912E
	movb	%al, %cl
	movb	%cl, -2(%rbp)
Ltmp364:
	.loc	7 1339 40
	movb	%cl, -1(%rbp)
Ltmp365:
	.loc	7 1164 13
	xorl	%eax, %eax
	subb	%cl, %al
Ltmp366:
	.loc	6 326 33
	movb	%al, -18(%rbp)
	jmp	LBB164_8
LBB164_11:
	.loc	6 0 33 is_stmt 0
	movl	-44(%rbp), %eax
	.loc	6 328 47 is_stmt 1
	xorl	%edi, %edi
	subl	%eax, %edi
	.loc	6 328 33 is_stmt 0
	leaq	l___unnamed_1(%rip), %rsi
	callq	__ZN2az13wrapping_cast17h23ac14792028f9e2E
	movb	%al, -18(%rbp)
	jmp	LBB164_8
LBB164_12:
	.loc	6 328 47
	leaq	_str.0(%rip), %rdi
	leaq	l___unnamed_1(%rip), %rdx
	movl	$31, %esi
	callq	__ZN4core9panicking5panic17hc1bc45270cf64b03E
Ltmp367:
LBB164_13:
	.loc	6 336 14 is_stmt 1
	movb	-40(%rbp), %al
	movb	-39(%rbp), %dl
	addq	$48, %rsp
	popq	%rbp
	retq
Ltmp368:
Lfunc_end164:
	.cfi_endproc

	.globl	__ZN2az3int60_$LT$impl$u20$az..CheckedCast$LT$i16$GT$$u20$for$u20$f32$GT$12checked_cast17h7deab7e14137b16aE
	.p2align	4, 0x90
__ZN2az3int60_$LT$impl$u20$az..CheckedCast$LT$i16$GT$$u20$for$u20$f32$GT$12checked_cast17h7deab7e14137b16aE:
Lfunc_begin165:
	.loc	6 210 0
	.cfi_startproc
	pushq	%rbp
	.cfi_def_cfa_offset 16
	.cfi_offset %rbp, -16
	movq	%rsp, %rbp
	.cfi_def_cfa_register %rbp
	subq	$48, %rsp
	movss	%xmm0, -12(%rbp)
	leaq	-24(%rbp), %rdi
Ltmp369:
	.loc	6 211 39 prologue_end
	callq	__ZN50_$LT$T$u20$as$u20$core..convert..Into$LT$U$GT$$GT$4into17h0ed07b85e979c5f2E
Ltmp370:
	.loc	6 212 23
	movzbl	-24(%rbp), %eax
	subq	$2, %rax
	.loc	6 212 17 is_stmt 0
	jb	LBB165_2
	jmp	LBB165_14
LBB165_14:
	jmp	LBB165_3
	.loc	6 212 23
	ud2
LBB165_2:
	.loc	6 213 95 is_stmt 1
	movw	$0, -32(%rbp)
	jmp	LBB165_9
LBB165_3:
	.loc	6 212 17
	testb	$1, -23(%rbp)
	jne	LBB165_2
	.loc	6 214 44
	movl	-20(%rbp), %eax
	movl	%eax, -36(%rbp)
	movl	%eax, -8(%rbp)
Ltmp371:
	.loc	6 215 28
	testb	$1, -16(%rbp)
	jne	LBB165_6
	.loc	6 0 28 is_stmt 0
	movl	-36(%rbp), %edi
	.loc	6 225 29 is_stmt 1
	leaq	l___unnamed_1(%rip), %rsi
	callq	__ZN2az12checked_cast17h807f11ddb4e5335bE
	movw	%dx, -30(%rbp)
	movw	%ax, -32(%rbp)
	jmp	LBB165_9
LBB165_6:
	.loc	6 0 29 is_stmt 0
	movl	-36(%rbp), %eax
	.loc	6 216 37 is_stmt 1
	movl	%eax, -4(%rbp)
Ltmp372:
	.loc	6 217 32
	cmpl	$-2147483648, %eax
	je	LBB165_8
	.loc	6 0 32 is_stmt 0
	movl	-36(%rbp), %eax
	.loc	6 219 39 is_stmt 1
	cmpl	$0, %eax
	jl	LBB165_11
	jmp	LBB165_10
LBB165_8:
	.loc	6 0 39 is_stmt 0
	movl	-36(%rbp), %edi
	.loc	6 218 33 is_stmt 1
	leaq	l___unnamed_1(%rip), %rsi
	callq	__ZN2az12checked_cast17h7a2cbb3071efc4d9E
	movw	%dx, -30(%rbp)
	movw	%ax, -32(%rbp)
Ltmp373:
LBB165_9:
	.loc	6 229 14
	movw	-32(%rbp), %ax
	movw	-30(%rbp), %dx
	addq	$48, %rsp
	popq	%rbp
	retq
LBB165_10:
	.loc	6 0 14 is_stmt 0
	movl	-36(%rbp), %eax
Ltmp374:
	.loc	6 222 46 is_stmt 1
	cmpl	$-2147483648, %eax
	sete	%al
	testb	$1, %al
	jne	LBB165_13
	jmp	LBB165_12
LBB165_11:
	.loc	6 220 33
	movw	$0, -32(%rbp)
	.loc	6 219 36
	jmp	LBB165_9
LBB165_12:
	.loc	6 0 36 is_stmt 0
	movl	-36(%rbp), %edi
	.loc	6 222 46 is_stmt 1
	negl	%edi
	.loc	6 222 33 is_stmt 0
	leaq	l___unnamed_1(%rip), %rsi
	callq	__ZN2az12checked_cast17h7a2cbb3071efc4d9E
	movw	%dx, -30(%rbp)
	movw	%ax, -32(%rbp)
	jmp	LBB165_9
LBB165_13:
	.loc	6 222 46
	leaq	_str.0(%rip), %rdi
	leaq	l___unnamed_1(%rip), %rdx
	movl	$31, %esi
	callq	__ZN4core9panicking5panic17hc1bc45270cf64b03E
Ltmp375:
Lfunc_end165:
	.cfi_endproc

	.globl	__ZN2az3int63_$LT$impl$u20$az..SaturatingCast$LT$i16$GT$$u20$for$u20$f32$GT$15saturating_cast17h25f2fc3c13d72db0E
	.p2align	4, 0x90
__ZN2az3int63_$LT$impl$u20$az..SaturatingCast$LT$i16$GT$$u20$for$u20$f32$GT$15saturating_cast17h25f2fc3c13d72db0E:
Lfunc_begin166:
	.loc	6 234 0 is_stmt 1
	.cfi_startproc
	pushq	%rbp
	.cfi_def_cfa_offset 16
	.cfi_offset %rbp, -16
	movq	%rsp, %rbp
	.cfi_def_cfa_register %rbp
	subq	$64, %rsp
	movq	%rdi, -48(%rbp)
	movss	%xmm0, -12(%rbp)
Ltmp376:
	.loc	6 235 39 prologue_end
	leaq	-32(%rbp), %rdi
	callq	__ZN50_$LT$T$u20$as$u20$core..convert..Into$LT$U$GT$$GT$4into17h0ed07b85e979c5f2E
Ltmp377:
	.loc	6 236 36
	testb	$1, -24(%rbp)
	jne	LBB166_2
	.loc	6 239 21
	movw	$32767, -14(%rbp)
	jmp	LBB166_3
LBB166_2:
	.loc	6 237 21
	movw	$-32768, -14(%rbp)
LBB166_3:
Ltmp378:
	.loc	6 241 23
	movzbl	-32(%rbp), %eax
	movq	%rax, -56(%rbp)
	testq	%rax, %rax
	.loc	6 241 17 is_stmt 0
	je	LBB166_5
	jmp	LBB166_18
LBB166_18:
	.loc	6 0 17
	movq	-56(%rbp), %rax
	.loc	6 241 17
	subq	$1, %rax
	je	LBB166_6
	jmp	LBB166_19
LBB166_19:
	jmp	LBB166_7
	.loc	6 241 23
	ud2
LBB166_5:
	.loc	6 0 23
	movq	-48(%rbp), %rdx
	.loc	6 242 39 is_stmt 1
	leaq	l___unnamed_2(%rip), %rdi
	movl	$3, %esi
	callq	__ZN4core9panicking5panic17hc1bc45270cf64b03E
LBB166_6:
	.loc	6 243 78
	movw	-14(%rbp), %ax
	movw	%ax, -34(%rbp)
	jmp	LBB166_13
LBB166_7:
	.loc	6 241 17
	testb	$1, -31(%rbp)
	jne	LBB166_6
	.loc	6 244 44
	movl	-28(%rbp), %eax
	movl	%eax, -60(%rbp)
	movl	%eax, -8(%rbp)
Ltmp379:
	.loc	6 245 28
	testb	$1, -24(%rbp)
	jne	LBB166_10
	.loc	6 0 28 is_stmt 0
	movq	-48(%rbp), %rsi
	movl	-60(%rbp), %edi
	.loc	6 255 29 is_stmt 1
	callq	__ZN2az15saturating_cast17hb4b9b906f56a50dfE
	movw	%ax, -34(%rbp)
	jmp	LBB166_13
LBB166_10:
	.loc	6 0 29 is_stmt 0
	movl	-60(%rbp), %eax
	.loc	6 246 37 is_stmt 1
	movl	%eax, -4(%rbp)
Ltmp380:
	.loc	6 247 32
	cmpl	$-2147483648, %eax
	je	LBB166_12
	.loc	6 0 32 is_stmt 0
	movl	-60(%rbp), %eax
	.loc	6 249 39 is_stmt 1
	cmpl	$0, %eax
	jl	LBB166_15
	jmp	LBB166_14
LBB166_12:
	.loc	6 0 39 is_stmt 0
	movq	-48(%rbp), %rsi
	movl	-60(%rbp), %edi
	.loc	6 248 33 is_stmt 1
	callq	__ZN2az15saturating_cast17h53691d4b7239f8c9E
	movw	%ax, -34(%rbp)
Ltmp381:
LBB166_13:
	.loc	6 259 14
	movw	-34(%rbp), %ax
	addq	$64, %rsp
	popq	%rbp
	retq
LBB166_14:
	.loc	6 0 14 is_stmt 0
	movl	-60(%rbp), %eax
Ltmp382:
	.loc	6 252 49 is_stmt 1
	cmpl	$-2147483648, %eax
	sete	%al
	testb	$1, %al
	jne	LBB166_17
	jmp	LBB166_16
LBB166_15:
	.loc	6 250 33
	movw	-14(%rbp), %ax
	movw	%ax, -34(%rbp)
	.loc	6 249 36
	jmp	LBB166_13
LBB166_16:
	.loc	6 0 36 is_stmt 0
	movq	-48(%rbp), %rsi
	movl	-60(%rbp), %eax
	.loc	6 252 49 is_stmt 1
	xorl	%edi, %edi
	subl	%eax, %edi
	.loc	6 252 33 is_stmt 0
	callq	__ZN2az15saturating_cast17h53691d4b7239f8c9E
	movw	%ax, -34(%rbp)
	jmp	LBB166_13
LBB166_17:
	.loc	6 0 33
	movq	-48(%rbp), %rdx
	.loc	6 252 49
	leaq	_str.0(%rip), %rdi
	movl	$31, %esi
	callq	__ZN4core9panicking5panic17hc1bc45270cf64b03E
Ltmp383:
Lfunc_end166:
	.cfi_endproc

	.globl	__ZN2az3int64_$LT$impl$u20$az..OverflowingCast$LT$i16$GT$$u20$for$u20$f32$GT$16overflowing_cast17ha85953d214f78933E
	.p2align	4, 0x90
__ZN2az3int64_$LT$impl$u20$az..OverflowingCast$LT$i16$GT$$u20$for$u20$f32$GT$16overflowing_cast17ha85953d214f78933E:
Lfunc_begin167:
	.loc	6 272 0 is_stmt 1
	.cfi_startproc
	pushq	%rbp
	.cfi_def_cfa_offset 16
	.cfi_offset %rbp, -16
	movq	%rsp, %rbp
	.cfi_def_cfa_register %rbp
	subq	$80, %rsp
	movq	%rdi, -72(%rbp)
	movss	%xmm0, -28(%rbp)
	leaq	-48(%rbp), %rdi
Ltmp384:
	.loc	6 273 39 prologue_end
	callq	__ZN50_$LT$T$u20$as$u20$core..convert..Into$LT$U$GT$$GT$4into17h0ed07b85e979c5f2E
Ltmp385:
	.loc	6 274 23
	movzbl	-48(%rbp), %eax
	movq	%rax, -64(%rbp)
	testq	%rax, %rax
	.loc	6 274 17 is_stmt 0
	je	LBB167_2
	jmp	LBB167_15
LBB167_15:
	.loc	6 0 17
	movq	-64(%rbp), %rax
	.loc	6 274 17
	subq	$1, %rax
	je	LBB167_3
	jmp	LBB167_16
LBB167_16:
	jmp	LBB167_4
	.loc	6 274 23
	ud2
LBB167_2:
	.loc	6 0 23
	movq	-72(%rbp), %rdx
	.loc	6 275 39 is_stmt 1
	leaq	l___unnamed_2(%rip), %rdi
	movl	$3, %esi
	callq	__ZN4core9panicking5panic17hc1bc45270cf64b03E
LBB167_3:
	.loc	6 0 39 is_stmt 0
	movq	-72(%rbp), %rdx
	.loc	6 276 44 is_stmt 1
	leaq	L___unnamed_3(%rip), %rdi
	movl	$8, %esi
	callq	__ZN4core9panicking5panic17hc1bc45270cf64b03E
LBB167_4:
	.loc	6 277 44
	movl	-44(%rbp), %eax
	movl	%eax, -80(%rbp)
	movl	%eax, -24(%rbp)
	.loc	6 277 49 is_stmt 0
	movb	-47(%rbp), %al
	movb	%al, -73(%rbp)
	andb	$1, %al
	movb	%al, -17(%rbp)
Ltmp386:
	.loc	6 278 28 is_stmt 1
	testb	$1, -40(%rbp)
	jne	LBB167_6
	.loc	6 0 28 is_stmt 0
	movq	-72(%rbp), %rsi
	movl	-80(%rbp), %edi
	.loc	6 289 56 is_stmt 1
	callq	__ZN2az16overflowing_cast17h90679e63640736efE
	movw	%ax, %cx
	movb	-73(%rbp), %al
	.loc	6 289 34 is_stmt 0
	movw	%cx, -8(%rbp)
	.loc	6 289 43
	movb	%dl, %sil
	andb	$1, %sil
	movb	%sil, -5(%rbp)
Ltmp387:
	.loc	6 290 39 is_stmt 1
	orb	%dl, %al
	.loc	6 290 29 is_stmt 0
	movw	%cx, -56(%rbp)
	andb	$1, %al
	movb	%al, -54(%rbp)
Ltmp388:
	.loc	6 278 25 is_stmt 1
	jmp	LBB167_14
LBB167_6:
	.loc	6 0 25 is_stmt 0
	movl	-80(%rbp), %eax
	.loc	6 279 37 is_stmt 1
	movl	%eax, -16(%rbp)
Ltmp389:
	.loc	6 280 59
	cmpl	$-2147483648, %eax
	je	LBB167_8
	.loc	6 0 59 is_stmt 0
	movl	-80(%rbp), %eax
	.loc	6 282 39 is_stmt 1
	cmpl	$0, %eax
	jl	LBB167_11
	jmp	LBB167_10
LBB167_8:
	.loc	6 0 39 is_stmt 0
	movq	-72(%rbp), %rsi
	movl	-80(%rbp), %edi
	.loc	6 281 33 is_stmt 1
	callq	__ZN2az16overflowing_cast17hbaccfc7ce1c299bfE
	movb	%dl, -30(%rbp)
	movw	%ax, -32(%rbp)
LBB167_9:
	.loc	6 0 33 is_stmt 0
	movb	-73(%rbp), %al
	.loc	6 280 34 is_stmt 1
	movw	-32(%rbp), %cx
	movw	%cx, -12(%rbp)
	.loc	6 280 43 is_stmt 0
	movb	-30(%rbp), %dl
	movb	%dl, %sil
	andb	$1, %sil
	movb	%sil, -9(%rbp)
Ltmp390:
	.loc	6 287 39 is_stmt 1
	orb	%dl, %al
	.loc	6 287 29 is_stmt 0
	movw	%cx, -56(%rbp)
	andb	$1, %al
	movb	%al, -54(%rbp)
Ltmp391:
	.loc	6 278 25 is_stmt 1
	jmp	LBB167_14
LBB167_10:
	.loc	6 0 25 is_stmt 0
	movl	-80(%rbp), %eax
Ltmp392:
	.loc	6 285 50 is_stmt 1
	cmpl	$-2147483648, %eax
	sete	%al
	testb	$1, %al
	jne	LBB167_13
	jmp	LBB167_12
LBB167_11:
	.loc	6 0 50 is_stmt 0
	movq	-72(%rbp), %rsi
	movl	-80(%rbp), %edi
	.loc	6 283 34 is_stmt 1
	callq	__ZN2az13wrapping_cast17ha93b981b9740f344E
	movw	%ax, %cx
	movw	%cx, -4(%rbp)
Ltmp393:
	.loc	7 1339 40
	movw	%cx, -2(%rbp)
Ltmp394:
	.loc	7 1164 13
	xorl	%eax, %eax
	subw	%cx, %ax
Ltmp395:
	.loc	6 283 33
	movw	%ax, -32(%rbp)
	movb	$1, -30(%rbp)
	.loc	6 282 36
	jmp	LBB167_9
LBB167_12:
	.loc	6 0 36 is_stmt 0
	movq	-72(%rbp), %rsi
	movl	-80(%rbp), %edi
	.loc	6 285 50 is_stmt 1
	negl	%edi
	.loc	6 285 33 is_stmt 0
	callq	__ZN2az16overflowing_cast17hbaccfc7ce1c299bfE
	movb	%dl, -30(%rbp)
	movw	%ax, -32(%rbp)
	jmp	LBB167_9
LBB167_13:
	.loc	6 0 33
	movq	-72(%rbp), %rdx
	.loc	6 285 50
	leaq	_str.0(%rip), %rdi
	movl	$31, %esi
	callq	__ZN4core9panicking5panic17hc1bc45270cf64b03E
Ltmp396:
LBB167_14:
	.loc	6 294 14 is_stmt 1
	movw	-56(%rbp), %ax
	movb	-54(%rbp), %dl
	addq	$80, %rsp
	popq	%rbp
	retq
Ltmp397:
Lfunc_end167:
	.cfi_endproc

	.globl	__ZN2az3int97_$LT$impl$u20$az..CheckedCast$LT$core..num..wrapping..Wrapping$LT$i16$GT$$GT$$u20$for$u20$f32$GT$12checked_cast17h7ce9c2f73571e808E
	.p2align	4, 0x90
__ZN2az3int97_$LT$impl$u20$az..CheckedCast$LT$core..num..wrapping..Wrapping$LT$i16$GT$$GT$$u20$for$u20$f32$GT$12checked_cast17h7ce9c2f73571e808E:
Lfunc_begin168:
	.loc	6 316 0
	.cfi_startproc
	pushq	%rbp
	.cfi_def_cfa_offset 16
	.cfi_offset %rbp, -16
	movq	%rsp, %rbp
	.cfi_def_cfa_register %rbp
	subq	$48, %rsp
	movss	%xmm0, -16(%rbp)
	leaq	-32(%rbp), %rdi
Ltmp398:
	.loc	6 317 39 prologue_end
	callq	__ZN50_$LT$T$u20$as$u20$core..convert..Into$LT$U$GT$$GT$4into17h0ed07b85e979c5f2E
Ltmp399:
	.loc	6 318 23
	movzbl	-32(%rbp), %eax
	subq	$2, %rax
	.loc	6 318 17 is_stmt 0
	jb	LBB168_2
	jmp	LBB168_14
LBB168_14:
	jmp	LBB168_3
	.loc	6 318 23
	ud2
LBB168_2:
	.loc	6 319 61 is_stmt 1
	movw	$0, -40(%rbp)
	jmp	LBB168_13
LBB168_3:
	.loc	6 320 44
	movl	-28(%rbp), %eax
	movl	%eax, -44(%rbp)
	movl	%eax, -12(%rbp)
Ltmp400:
	.loc	6 321 42
	testb	$1, -24(%rbp)
	jne	LBB168_5
	.loc	6 0 42 is_stmt 0
	movl	-44(%rbp), %edi
	.loc	6 331 29 is_stmt 1
	leaq	l___unnamed_1(%rip), %rsi
	callq	__ZN2az13wrapping_cast17ha93b981b9740f344E
	movw	%ax, -20(%rbp)
	jmp	LBB168_8
LBB168_5:
	.loc	6 0 29 is_stmt 0
	movl	-44(%rbp), %eax
	.loc	6 322 37 is_stmt 1
	movl	%eax, -8(%rbp)
Ltmp401:
	.loc	6 323 32
	cmpl	$-2147483648, %eax
	je	LBB168_7
	.loc	6 0 32 is_stmt 0
	movl	-44(%rbp), %eax
	.loc	6 325 39 is_stmt 1
	cmpl	$0, %eax
	jl	LBB168_10
	jmp	LBB168_9
LBB168_7:
	.loc	6 0 39 is_stmt 0
	movl	-44(%rbp), %edi
	.loc	6 324 33 is_stmt 1
	leaq	l___unnamed_1(%rip), %rsi
	callq	__ZN2az13wrapping_cast17ha4e445ed65800ff9E
	movw	%ax, -20(%rbp)
Ltmp402:
LBB168_8:
	.loc	6 333 39
	movw	-20(%rbp), %ax
	.loc	6 333 30 is_stmt 0
	movw	%ax, -18(%rbp)
	.loc	6 333 25
	movw	-18(%rbp), %ax
	movw	%ax, -38(%rbp)
	movw	$1, -40(%rbp)
Ltmp403:
	.loc	6 334 21 is_stmt 1
	jmp	LBB168_13
LBB168_9:
	.loc	6 0 21 is_stmt 0
	movl	-44(%rbp), %eax
Ltmp404:
	.loc	6 328 47 is_stmt 1
	cmpl	$-2147483648, %eax
	sete	%al
	testb	$1, %al
	jne	LBB168_12
	jmp	LBB168_11
LBB168_10:
	.loc	6 0 47 is_stmt 0
	movl	-44(%rbp), %edi
	.loc	6 326 33 is_stmt 1
	leaq	l___unnamed_1(%rip), %rsi
	callq	__ZN2az13wrapping_cast17ha93b981b9740f344E
	movw	%ax, %cx
	movw	%cx, -4(%rbp)
Ltmp405:
	.loc	7 1339 40
	movw	%cx, -2(%rbp)
Ltmp406:
	.loc	7 1164 13
	xorl	%eax, %eax
	subw	%cx, %ax
Ltmp407:
	.loc	6 326 33
	movw	%ax, -20(%rbp)
	jmp	LBB168_8
LBB168_11:
	.loc	6 0 33 is_stmt 0
	movl	-44(%rbp), %eax
	.loc	6 328 47 is_stmt 1
	xorl	%edi, %edi
	subl	%eax, %edi
	.loc	6 328 33 is_stmt 0
	leaq	l___unnamed_1(%rip), %rsi
	callq	__ZN2az13wrapping_cast17ha4e445ed65800ff9E
	movw	%ax, -20(%rbp)
	jmp	LBB168_8
LBB168_12:
	.loc	6 328 47
	leaq	_str.0(%rip), %rdi
	leaq	l___unnamed_1(%rip), %rdx
	movl	$31, %esi
	callq	__ZN4core9panicking5panic17hc1bc45270cf64b03E
Ltmp408:
LBB168_13:
	.loc	6 336 14 is_stmt 1
	movw	-40(%rbp), %ax
	movw	-38(%rbp), %dx
	addq	$48, %rsp
	popq	%rbp
	retq
Ltmp409:
Lfunc_end168:
	.cfi_endproc

	.globl	__ZN2az3int60_$LT$impl$u20$az..CheckedCast$LT$i32$GT$$u20$for$u20$f32$GT$12checked_cast17haa03318cb99b8d2cE
	.p2align	4, 0x90
__ZN2az3int60_$LT$impl$u20$az..CheckedCast$LT$i32$GT$$u20$for$u20$f32$GT$12checked_cast17haa03318cb99b8d2cE:
Lfunc_begin169:
	.loc	6 210 0
	.cfi_startproc
	pushq	%rbp
	.cfi_def_cfa_offset 16
	.cfi_offset %rbp, -16
	movq	%rsp, %rbp
	.cfi_def_cfa_register %rbp
	subq	$48, %rsp
	movss	%xmm0, -12(%rbp)
	leaq	-24(%rbp), %rdi
Ltmp410:
	.loc	6 211 39 prologue_end
	callq	__ZN50_$LT$T$u20$as$u20$core..convert..Into$LT$U$GT$$GT$4into17h0ed07b85e979c5f2E
Ltmp411:
	.loc	6 212 23
	movzbl	-24(%rbp), %eax
	subq	$2, %rax
	.loc	6 212 17 is_stmt 0
	jb	LBB169_2
	jmp	LBB169_14
LBB169_14:
	jmp	LBB169_3
	.loc	6 212 23
	ud2
LBB169_2:
	.loc	6 213 95 is_stmt 1
	movl	$0, -32(%rbp)
	jmp	LBB169_9
LBB169_3:
	.loc	6 212 17
	testb	$1, -23(%rbp)
	jne	LBB169_2
	.loc	6 214 44
	movl	-20(%rbp), %eax
	movl	%eax, -36(%rbp)
	movl	%eax, -8(%rbp)
Ltmp412:
	.loc	6 215 28
	testb	$1, -16(%rbp)
	jne	LBB169_6
	.loc	6 0 28 is_stmt 0
	movl	-36(%rbp), %edi
	.loc	6 225 29 is_stmt 1
	leaq	l___unnamed_1(%rip), %rsi
	callq	__ZN2az12checked_cast17hf1d9239f5abd5383E
	movl	%edx, -28(%rbp)
	movl	%eax, -32(%rbp)
	jmp	LBB169_9
LBB169_6:
	.loc	6 0 29 is_stmt 0
	movl	-36(%rbp), %eax
	.loc	6 216 37 is_stmt 1
	movl	%eax, -4(%rbp)
Ltmp413:
	.loc	6 217 32
	cmpl	$-2147483648, %eax
	je	LBB169_8
	.loc	6 0 32 is_stmt 0
	movl	-36(%rbp), %eax
	.loc	6 219 39 is_stmt 1
	cmpl	$0, %eax
	jl	LBB169_11
	jmp	LBB169_10
LBB169_8:
	.loc	6 0 39 is_stmt 0
	movl	-36(%rbp), %edi
	.loc	6 218 33 is_stmt 1
	leaq	l___unnamed_1(%rip), %rsi
	callq	__ZN2az12checked_cast17haefd6aba94aa19b9E
	movl	%edx, -28(%rbp)
	movl	%eax, -32(%rbp)
Ltmp414:
LBB169_9:
	.loc	6 229 14
	movl	-32(%rbp), %eax
	movl	-28(%rbp), %edx
	addq	$48, %rsp
	popq	%rbp
	retq
LBB169_10:
	.loc	6 0 14 is_stmt 0
	movl	-36(%rbp), %eax
Ltmp415:
	.loc	6 222 46 is_stmt 1
	cmpl	$-2147483648, %eax
	sete	%al
	testb	$1, %al
	jne	LBB169_13
	jmp	LBB169_12
LBB169_11:
	.loc	6 220 33
	movl	$0, -32(%rbp)
	.loc	6 219 36
	jmp	LBB169_9
LBB169_12:
	.loc	6 0 36 is_stmt 0
	movl	-36(%rbp), %edi
	.loc	6 222 46 is_stmt 1
	negl	%edi
	.loc	6 222 33 is_stmt 0
	leaq	l___unnamed_1(%rip), %rsi
	callq	__ZN2az12checked_cast17haefd6aba94aa19b9E
	movl	%edx, -28(%rbp)
	movl	%eax, -32(%rbp)
	jmp	LBB169_9
LBB169_13:
	.loc	6 222 46
	leaq	_str.0(%rip), %rdi
	leaq	l___unnamed_1(%rip), %rdx
	movl	$31, %esi
	callq	__ZN4core9panicking5panic17hc1bc45270cf64b03E
Ltmp416:
Lfunc_end169:
	.cfi_endproc

	.globl	__ZN2az3int63_$LT$impl$u20$az..SaturatingCast$LT$i32$GT$$u20$for$u20$f32$GT$15saturating_cast17h926a637fd5cffbf8E
	.p2align	4, 0x90
__ZN2az3int63_$LT$impl$u20$az..SaturatingCast$LT$i32$GT$$u20$for$u20$f32$GT$15saturating_cast17h926a637fd5cffbf8E:
Lfunc_begin170:
	.loc	6 234 0 is_stmt 1
	.cfi_startproc
	pushq	%rbp
	.cfi_def_cfa_offset 16
	.cfi_offset %rbp, -16
	movq	%rsp, %rbp
	.cfi_def_cfa_register %rbp
	subq	$64, %rsp
	movq	%rdi, -48(%rbp)
	movss	%xmm0, -12(%rbp)
Ltmp417:
	.loc	6 235 39 prologue_end
	leaq	-32(%rbp), %rdi
	callq	__ZN50_$LT$T$u20$as$u20$core..convert..Into$LT$U$GT$$GT$4into17h0ed07b85e979c5f2E
Ltmp418:
	.loc	6 236 36
	testb	$1, -24(%rbp)
	jne	LBB170_2
	.loc	6 239 21
	movl	$2147483647, -16(%rbp)
	jmp	LBB170_3
LBB170_2:
	.loc	6 237 21
	movl	$-2147483648, -16(%rbp)
LBB170_3:
Ltmp419:
	.loc	6 241 23
	movzbl	-32(%rbp), %eax
	movq	%rax, -56(%rbp)
	testq	%rax, %rax
	.loc	6 241 17 is_stmt 0
	je	LBB170_5
	jmp	LBB170_18
LBB170_18:
	.loc	6 0 17
	movq	-56(%rbp), %rax
	.loc	6 241 17
	subq	$1, %rax
	je	LBB170_6
	jmp	LBB170_19
LBB170_19:
	jmp	LBB170_7
	.loc	6 241 23
	ud2
LBB170_5:
	.loc	6 0 23
	movq	-48(%rbp), %rdx
	.loc	6 242 39 is_stmt 1
	leaq	l___unnamed_2(%rip), %rdi
	movl	$3, %esi
	callq	__ZN4core9panicking5panic17hc1bc45270cf64b03E
LBB170_6:
	.loc	6 243 78
	movl	-16(%rbp), %eax
	movl	%eax, -36(%rbp)
	jmp	LBB170_13
LBB170_7:
	.loc	6 241 17
	testb	$1, -31(%rbp)
	jne	LBB170_6
	.loc	6 244 44
	movl	-28(%rbp), %eax
	movl	%eax, -60(%rbp)
	movl	%eax, -8(%rbp)
Ltmp420:
	.loc	6 245 28
	testb	$1, -24(%rbp)
	jne	LBB170_10
	.loc	6 0 28 is_stmt 0
	movq	-48(%rbp), %rsi
	movl	-60(%rbp), %edi
	.loc	6 255 29 is_stmt 1
	callq	__ZN2az15saturating_cast17h54f7b72d37facecdE
	movl	%eax, -36(%rbp)
	jmp	LBB170_13
LBB170_10:
	.loc	6 0 29 is_stmt 0
	movl	-60(%rbp), %eax
	.loc	6 246 37 is_stmt 1
	movl	%eax, -4(%rbp)
Ltmp421:
	.loc	6 247 32
	cmpl	$-2147483648, %eax
	je	LBB170_12
	.loc	6 0 32 is_stmt 0
	movl	-60(%rbp), %eax
	.loc	6 249 39 is_stmt 1
	cmpl	$0, %eax
	jl	LBB170_15
	jmp	LBB170_14
LBB170_12:
	.loc	6 0 39 is_stmt 0
	movq	-48(%rbp), %rsi
	movl	-60(%rbp), %edi
	.loc	6 248 33 is_stmt 1
	callq	__ZN2az15saturating_cast17h52f140f7932041b8E
	movl	%eax, -36(%rbp)
Ltmp422:
LBB170_13:
	.loc	6 259 14
	movl	-36(%rbp), %eax
	addq	$64, %rsp
	popq	%rbp
	retq
LBB170_14:
	.loc	6 0 14 is_stmt 0
	movl	-60(%rbp), %eax
Ltmp423:
	.loc	6 252 49 is_stmt 1
	cmpl	$-2147483648, %eax
	sete	%al
	testb	$1, %al
	jne	LBB170_17
	jmp	LBB170_16
LBB170_15:
	.loc	6 250 33
	movl	-16(%rbp), %eax
	movl	%eax, -36(%rbp)
	.loc	6 249 36
	jmp	LBB170_13
LBB170_16:
	.loc	6 0 36 is_stmt 0
	movq	-48(%rbp), %rsi
	movl	-60(%rbp), %eax
	.loc	6 252 49 is_stmt 1
	xorl	%edi, %edi
	subl	%eax, %edi
	.loc	6 252 33 is_stmt 0
	callq	__ZN2az15saturating_cast17h52f140f7932041b8E
	movl	%eax, -36(%rbp)
	jmp	LBB170_13
LBB170_17:
	.loc	6 0 33
	movq	-48(%rbp), %rdx
	.loc	6 252 49
	leaq	_str.0(%rip), %rdi
	movl	$31, %esi
	callq	__ZN4core9panicking5panic17hc1bc45270cf64b03E
Ltmp424:
Lfunc_end170:
	.cfi_endproc

	.globl	__ZN2az3int64_$LT$impl$u20$az..OverflowingCast$LT$i32$GT$$u20$for$u20$f32$GT$16overflowing_cast17ha3dda85525f020ccE
	.p2align	4, 0x90
__ZN2az3int64_$LT$impl$u20$az..OverflowingCast$LT$i32$GT$$u20$for$u20$f32$GT$16overflowing_cast17ha3dda85525f020ccE:
Lfunc_begin171:
	.loc	6 272 0 is_stmt 1
	.cfi_startproc
	pushq	%rbp
	.cfi_def_cfa_offset 16
	.cfi_offset %rbp, -16
	movq	%rsp, %rbp
	.cfi_def_cfa_register %rbp
	subq	$96, %rsp
	movq	%rdi, -88(%rbp)
	movss	%xmm0, -40(%rbp)
	leaq	-64(%rbp), %rdi
Ltmp425:
	.loc	6 273 39 prologue_end
	callq	__ZN50_$LT$T$u20$as$u20$core..convert..Into$LT$U$GT$$GT$4into17h0ed07b85e979c5f2E
Ltmp426:
	.loc	6 274 23
	movzbl	-64(%rbp), %eax
	movq	%rax, -80(%rbp)
	testq	%rax, %rax
	.loc	6 274 17 is_stmt 0
	je	LBB171_2
	jmp	LBB171_15
LBB171_15:
	.loc	6 0 17
	movq	-80(%rbp), %rax
	.loc	6 274 17
	subq	$1, %rax
	je	LBB171_3
	jmp	LBB171_16
LBB171_16:
	jmp	LBB171_4
	.loc	6 274 23
	ud2
LBB171_2:
	.loc	6 0 23
	movq	-88(%rbp), %rdx
	.loc	6 275 39 is_stmt 1
	leaq	l___unnamed_2(%rip), %rdi
	movl	$3, %esi
	callq	__ZN4core9panicking5panic17hc1bc45270cf64b03E
LBB171_3:
	.loc	6 0 39 is_stmt 0
	movq	-88(%rbp), %rdx
	.loc	6 276 44 is_stmt 1
	leaq	L___unnamed_3(%rip), %rdi
	movl	$8, %esi
	callq	__ZN4core9panicking5panic17hc1bc45270cf64b03E
LBB171_4:
	.loc	6 277 44
	movl	-60(%rbp), %eax
	movl	%eax, -96(%rbp)
	movl	%eax, -36(%rbp)
	.loc	6 277 49 is_stmt 0
	movb	-63(%rbp), %al
	movb	%al, -89(%rbp)
	andb	$1, %al
	movb	%al, -29(%rbp)
Ltmp427:
	.loc	6 278 28 is_stmt 1
	testb	$1, -56(%rbp)
	jne	LBB171_6
	.loc	6 0 28 is_stmt 0
	movq	-88(%rbp), %rsi
	movl	-96(%rbp), %edi
	.loc	6 289 56 is_stmt 1
	callq	__ZN2az16overflowing_cast17h5e7c1ba6ffd65576E
	movl	%eax, %ecx
	movb	-89(%rbp), %al
	.loc	6 289 34 is_stmt 0
	movl	%ecx, -16(%rbp)
	.loc	6 289 43
	movb	%dl, %sil
	andb	$1, %sil
	movb	%sil, -9(%rbp)
Ltmp428:
	.loc	6 290 39 is_stmt 1
	orb	%dl, %al
	.loc	6 290 29 is_stmt 0
	movl	%ecx, -72(%rbp)
	andb	$1, %al
	movb	%al, -68(%rbp)
Ltmp429:
	.loc	6 278 25 is_stmt 1
	jmp	LBB171_14
LBB171_6:
	.loc	6 0 25 is_stmt 0
	movl	-96(%rbp), %eax
	.loc	6 279 37 is_stmt 1
	movl	%eax, -28(%rbp)
Ltmp430:
	.loc	6 280 59
	cmpl	$-2147483648, %eax
	je	LBB171_8
	.loc	6 0 59 is_stmt 0
	movl	-96(%rbp), %eax
	.loc	6 282 39 is_stmt 1
	cmpl	$0, %eax
	jl	LBB171_11
	jmp	LBB171_10
LBB171_8:
	.loc	6 0 39 is_stmt 0
	movq	-88(%rbp), %rsi
	movl	-96(%rbp), %edi
	.loc	6 281 33 is_stmt 1
	callq	__ZN2az16overflowing_cast17h6d81a761e2d3b018E
	movb	%dl, -44(%rbp)
	movl	%eax, -48(%rbp)
LBB171_9:
	.loc	6 0 33 is_stmt 0
	movb	-89(%rbp), %al
	.loc	6 280 34 is_stmt 1
	movl	-48(%rbp), %ecx
	movl	%ecx, -24(%rbp)
	.loc	6 280 43 is_stmt 0
	movb	-44(%rbp), %dl
	movb	%dl, %sil
	andb	$1, %sil
	movb	%sil, -17(%rbp)
Ltmp431:
	.loc	6 287 39 is_stmt 1
	orb	%dl, %al
	.loc	6 287 29 is_stmt 0
	movl	%ecx, -72(%rbp)
	andb	$1, %al
	movb	%al, -68(%rbp)
Ltmp432:
	.loc	6 278 25 is_stmt 1
	jmp	LBB171_14
LBB171_10:
	.loc	6 0 25 is_stmt 0
	movl	-96(%rbp), %eax
Ltmp433:
	.loc	6 285 50 is_stmt 1
	cmpl	$-2147483648, %eax
	sete	%al
	testb	$1, %al
	jne	LBB171_13
	jmp	LBB171_12
LBB171_11:
	.loc	6 0 50 is_stmt 0
	movq	-88(%rbp), %rsi
	movl	-96(%rbp), %edi
	.loc	6 283 34 is_stmt 1
	callq	__ZN2az13wrapping_cast17hfaa35c63f1ac6673E
	movl	%eax, %ecx
	movl	%ecx, -8(%rbp)
Ltmp434:
	.loc	7 1339 40
	movl	%ecx, -4(%rbp)
Ltmp435:
	.loc	7 1164 13
	xorl	%eax, %eax
	subl	%ecx, %eax
Ltmp436:
	.loc	6 283 33
	movl	%eax, -48(%rbp)
	movb	$1, -44(%rbp)
	.loc	6 282 36
	jmp	LBB171_9
LBB171_12:
	.loc	6 0 36 is_stmt 0
	movq	-88(%rbp), %rsi
	movl	-96(%rbp), %edi
	.loc	6 285 50 is_stmt 1
	negl	%edi
	.loc	6 285 33 is_stmt 0
	callq	__ZN2az16overflowing_cast17h6d81a761e2d3b018E
	movb	%dl, -44(%rbp)
	movl	%eax, -48(%rbp)
	jmp	LBB171_9
LBB171_13:
	.loc	6 0 33
	movq	-88(%rbp), %rdx
	.loc	6 285 50
	leaq	_str.0(%rip), %rdi
	movl	$31, %esi
	callq	__ZN4core9panicking5panic17hc1bc45270cf64b03E
Ltmp437:
LBB171_14:
	.loc	6 294 14 is_stmt 1
	movl	-72(%rbp), %eax
	movb	-68(%rbp), %dl
	addq	$96, %rsp
	popq	%rbp
	retq
Ltmp438:
Lfunc_end171:
	.cfi_endproc

	.globl	__ZN2az3int97_$LT$impl$u20$az..CheckedCast$LT$core..num..wrapping..Wrapping$LT$i32$GT$$GT$$u20$for$u20$f32$GT$12checked_cast17h38eccc89556e1bbfE
	.p2align	4, 0x90
__ZN2az3int97_$LT$impl$u20$az..CheckedCast$LT$core..num..wrapping..Wrapping$LT$i32$GT$$GT$$u20$for$u20$f32$GT$12checked_cast17h38eccc89556e1bbfE:
Lfunc_begin172:
	.loc	6 316 0
	.cfi_startproc
	pushq	%rbp
	.cfi_def_cfa_offset 16
	.cfi_offset %rbp, -16
	movq	%rsp, %rbp
	.cfi_def_cfa_register %rbp
	subq	$64, %rsp
	movss	%xmm0, -20(%rbp)
	leaq	-40(%rbp), %rdi
Ltmp439:
	.loc	6 317 39 prologue_end
	callq	__ZN50_$LT$T$u20$as$u20$core..convert..Into$LT$U$GT$$GT$4into17h0ed07b85e979c5f2E
Ltmp440:
	.loc	6 318 23
	movzbl	-40(%rbp), %eax
	subq	$2, %rax
	.loc	6 318 17 is_stmt 0
	jb	LBB172_2
	jmp	LBB172_14
LBB172_14:
	jmp	LBB172_3
	.loc	6 318 23
	ud2
LBB172_2:
	.loc	6 319 61 is_stmt 1
	movl	$0, -48(%rbp)
	jmp	LBB172_13
LBB172_3:
	.loc	6 320 44
	movl	-36(%rbp), %eax
	movl	%eax, -52(%rbp)
	movl	%eax, -16(%rbp)
Ltmp441:
	.loc	6 321 42
	testb	$1, -32(%rbp)
	jne	LBB172_5
	.loc	6 0 42 is_stmt 0
	movl	-52(%rbp), %edi
	.loc	6 331 29 is_stmt 1
	leaq	l___unnamed_1(%rip), %rsi
	callq	__ZN2az13wrapping_cast17hfaa35c63f1ac6673E
	movl	%eax, -28(%rbp)
	jmp	LBB172_8
LBB172_5:
	.loc	6 0 29 is_stmt 0
	movl	-52(%rbp), %eax
	.loc	6 322 37 is_stmt 1
	movl	%eax, -12(%rbp)
Ltmp442:
	.loc	6 323 32
	cmpl	$-2147483648, %eax
	je	LBB172_7
	.loc	6 0 32 is_stmt 0
	movl	-52(%rbp), %eax
	.loc	6 325 39 is_stmt 1
	cmpl	$0, %eax
	jl	LBB172_10
	jmp	LBB172_9
LBB172_7:
	.loc	6 0 39 is_stmt 0
	movl	-52(%rbp), %edi
	.loc	6 324 33 is_stmt 1
	leaq	l___unnamed_1(%rip), %rsi
	callq	__ZN2az13wrapping_cast17h6e457c4ced4d7d27E
	movl	%eax, -28(%rbp)
Ltmp443:
LBB172_8:
	.loc	6 333 39
	movl	-28(%rbp), %eax
	.loc	6 333 30 is_stmt 0
	movl	%eax, -24(%rbp)
	.loc	6 333 25
	movl	-24(%rbp), %eax
	movl	%eax, -44(%rbp)
	movl	$1, -48(%rbp)
Ltmp444:
	.loc	6 334 21 is_stmt 1
	jmp	LBB172_13
LBB172_9:
	.loc	6 0 21 is_stmt 0
	movl	-52(%rbp), %eax
Ltmp445:
	.loc	6 328 47 is_stmt 1
	cmpl	$-2147483648, %eax
	sete	%al
	testb	$1, %al
	jne	LBB172_12
	jmp	LBB172_11
LBB172_10:
	.loc	6 0 47 is_stmt 0
	movl	-52(%rbp), %edi
	.loc	6 326 33 is_stmt 1
	leaq	l___unnamed_1(%rip), %rsi
	callq	__ZN2az13wrapping_cast17hfaa35c63f1ac6673E
	movl	%eax, %ecx
	movl	%ecx, -8(%rbp)
Ltmp446:
	.loc	7 1339 40
	movl	%ecx, -4(%rbp)
Ltmp447:
	.loc	7 1164 13
	xorl	%eax, %eax
	subl	%ecx, %eax
Ltmp448:
	.loc	6 326 33
	movl	%eax, -28(%rbp)
	jmp	LBB172_8
LBB172_11:
	.loc	6 0 33 is_stmt 0
	movl	-52(%rbp), %eax
	.loc	6 328 47 is_stmt 1
	xorl	%edi, %edi
	subl	%eax, %edi
	.loc	6 328 33 is_stmt 0
	leaq	l___unnamed_1(%rip), %rsi
	callq	__ZN2az13wrapping_cast17h6e457c4ced4d7d27E
	movl	%eax, -28(%rbp)
	jmp	LBB172_8
LBB172_12:
	.loc	6 328 47
	leaq	_str.0(%rip), %rdi
	leaq	l___unnamed_1(%rip), %rdx
	movl	$31, %esi
	callq	__ZN4core9panicking5panic17hc1bc45270cf64b03E
Ltmp449:
LBB172_13:
	.loc	6 336 14 is_stmt 1
	movl	-48(%rbp), %eax
	movl	-44(%rbp), %edx
	addq	$64, %rsp
	popq	%rbp
	retq
Ltmp450:
Lfunc_end172:
	.cfi_endproc

	.globl	__ZN2az3int60_$LT$impl$u20$az..CheckedCast$LT$i64$GT$$u20$for$u20$f32$GT$12checked_cast17hc8e7f146e9ba81e8E
	.p2align	4, 0x90
__ZN2az3int60_$LT$impl$u20$az..CheckedCast$LT$i64$GT$$u20$for$u20$f32$GT$12checked_cast17hc8e7f146e9ba81e8E:
Lfunc_begin173:
	.loc	6 210 0
	.cfi_startproc
	pushq	%rbp
	.cfi_def_cfa_offset 16
	.cfi_offset %rbp, -16
	movq	%rsp, %rbp
	.cfi_def_cfa_register %rbp
	subq	$80, %rsp
	movss	%xmm0, -20(%rbp)
	leaq	-48(%rbp), %rdi
Ltmp451:
	.loc	6 211 39 prologue_end
	callq	__ZN50_$LT$T$u20$as$u20$core..convert..Into$LT$U$GT$$GT$4into17hc0373b80baab8e63E
Ltmp452:
	.loc	6 212 23
	movzbl	-48(%rbp), %eax
	subq	$2, %rax
	.loc	6 212 17 is_stmt 0
	jb	LBB173_2
	jmp	LBB173_14
LBB173_14:
	jmp	LBB173_3
	.loc	6 212 23
	ud2
LBB173_2:
	.loc	6 213 95 is_stmt 1
	movq	$0, -64(%rbp)
	jmp	LBB173_9
LBB173_3:
	.loc	6 212 17
	testb	$1, -47(%rbp)
	jne	LBB173_2
	.loc	6 214 44
	movq	-40(%rbp), %rax
	movq	%rax, -72(%rbp)
	movq	%rax, -16(%rbp)
Ltmp453:
	.loc	6 215 28
	testb	$1, -32(%rbp)
	jne	LBB173_6
	.loc	6 0 28 is_stmt 0
	movq	-72(%rbp), %rdi
	.loc	6 225 29 is_stmt 1
	leaq	l___unnamed_4(%rip), %rsi
	callq	__ZN2az12checked_cast17h85b9b0bf27dbb3f7E
	movq	%rdx, -56(%rbp)
	movq	%rax, -64(%rbp)
	jmp	LBB173_9
LBB173_6:
	.loc	6 0 29 is_stmt 0
	movq	-72(%rbp), %rax
	.loc	6 216 37 is_stmt 1
	movq	%rax, -8(%rbp)
Ltmp454:
	.loc	6 217 32
	movabsq	$-9223372036854775808, %rcx
	cmpq	%rcx, %rax
	je	LBB173_8
	.loc	6 0 32 is_stmt 0
	movq	-72(%rbp), %rax
	.loc	6 219 39 is_stmt 1
	cmpq	$0, %rax
	jl	LBB173_11
	jmp	LBB173_10
LBB173_8:
	.loc	6 0 39 is_stmt 0
	movq	-72(%rbp), %rdi
	.loc	6 218 33 is_stmt 1
	leaq	l___unnamed_4(%rip), %rsi
	callq	__ZN2az12checked_cast17he388122f83858f08E
	movq	%rdx, -56(%rbp)
	movq	%rax, -64(%rbp)
Ltmp455:
LBB173_9:
	.loc	6 229 14
	movq	-64(%rbp), %rax
	movq	-56(%rbp), %rdx
	addq	$80, %rsp
	popq	%rbp
	retq
LBB173_10:
	.loc	6 0 14 is_stmt 0
	movq	-72(%rbp), %rax
Ltmp456:
	.loc	6 222 46 is_stmt 1
	movabsq	$-9223372036854775808, %rcx
	cmpq	%rcx, %rax
	sete	%al
	testb	$1, %al
	jne	LBB173_13
	jmp	LBB173_12
LBB173_11:
	.loc	6 220 33
	movq	$0, -64(%rbp)
	.loc	6 219 36
	jmp	LBB173_9
LBB173_12:
	.loc	6 0 36 is_stmt 0
	movq	-72(%rbp), %rdi
	.loc	6 222 46 is_stmt 1
	negq	%rdi
	.loc	6 222 33 is_stmt 0
	leaq	l___unnamed_4(%rip), %rsi
	callq	__ZN2az12checked_cast17he388122f83858f08E
	movq	%rdx, -56(%rbp)
	movq	%rax, -64(%rbp)
	jmp	LBB173_9
LBB173_13:
	.loc	6 222 46
	leaq	_str.0(%rip), %rdi
	leaq	l___unnamed_4(%rip), %rdx
	movl	$31, %esi
	callq	__ZN4core9panicking5panic17hc1bc45270cf64b03E
Ltmp457:
Lfunc_end173:
	.cfi_endproc

	.globl	__ZN2az3int63_$LT$impl$u20$az..SaturatingCast$LT$i64$GT$$u20$for$u20$f32$GT$15saturating_cast17hbd768a86286a8d92E
	.p2align	4, 0x90
__ZN2az3int63_$LT$impl$u20$az..SaturatingCast$LT$i64$GT$$u20$for$u20$f32$GT$15saturating_cast17hbd768a86286a8d92E:
Lfunc_begin174:
	.loc	6 234 0 is_stmt 1
	.cfi_startproc
	pushq	%rbp
	.cfi_def_cfa_offset 16
	.cfi_offset %rbp, -16
	movq	%rsp, %rbp
	.cfi_def_cfa_register %rbp
	subq	$96, %rsp
	movq	%rdi, -72(%rbp)
	movss	%xmm0, -20(%rbp)
Ltmp458:
	.loc	6 235 39 prologue_end
	leaq	-56(%rbp), %rdi
	callq	__ZN50_$LT$T$u20$as$u20$core..convert..Into$LT$U$GT$$GT$4into17hc0373b80baab8e63E
Ltmp459:
	.loc	6 236 36
	testb	$1, -40(%rbp)
	jne	LBB174_2
	.loc	6 239 21
	movabsq	$9223372036854775807, %rax
	movq	%rax, -32(%rbp)
	jmp	LBB174_3
LBB174_2:
	.loc	6 237 21
	movabsq	$-9223372036854775808, %rax
	movq	%rax, -32(%rbp)
LBB174_3:
Ltmp460:
	.loc	6 241 23
	movzbl	-56(%rbp), %eax
	movq	%rax, -80(%rbp)
	testq	%rax, %rax
	.loc	6 241 17 is_stmt 0
	je	LBB174_5
	jmp	LBB174_18
LBB174_18:
	.loc	6 0 17
	movq	-80(%rbp), %rax
	.loc	6 241 17
	subq	$1, %rax
	je	LBB174_6
	jmp	LBB174_19
LBB174_19:
	jmp	LBB174_7
	.loc	6 241 23
	ud2
LBB174_5:
	.loc	6 0 23
	movq	-72(%rbp), %rdx
	.loc	6 242 39 is_stmt 1
	leaq	l___unnamed_2(%rip), %rdi
	movl	$3, %esi
	callq	__ZN4core9panicking5panic17hc1bc45270cf64b03E
LBB174_6:
	.loc	6 243 78
	movq	-32(%rbp), %rax
	movq	%rax, -64(%rbp)
	jmp	LBB174_13
LBB174_7:
	.loc	6 241 17
	testb	$1, -55(%rbp)
	jne	LBB174_6
	.loc	6 244 44
	movq	-48(%rbp), %rax
	movq	%rax, -88(%rbp)
	movq	%rax, -16(%rbp)
Ltmp461:
	.loc	6 245 28
	testb	$1, -40(%rbp)
	jne	LBB174_10
	.loc	6 0 28 is_stmt 0
	movq	-72(%rbp), %rsi
	movq	-88(%rbp), %rdi
	.loc	6 255 29 is_stmt 1
	callq	__ZN2az15saturating_cast17h42440abaac13452eE
	movq	%rax, -64(%rbp)
	jmp	LBB174_13
LBB174_10:
	.loc	6 0 29 is_stmt 0
	movq	-88(%rbp), %rax
	.loc	6 246 37 is_stmt 1
	movq	%rax, -8(%rbp)
Ltmp462:
	.loc	6 247 32
	movabsq	$-9223372036854775808, %rcx
	cmpq	%rcx, %rax
	je	LBB174_12
	.loc	6 0 32 is_stmt 0
	movq	-88(%rbp), %rax
	.loc	6 249 39 is_stmt 1
	cmpq	$0, %rax
	jl	LBB174_15
	jmp	LBB174_14
LBB174_12:
	.loc	6 0 39 is_stmt 0
	movq	-72(%rbp), %rsi
	movq	-88(%rbp), %rdi
	.loc	6 248 33 is_stmt 1
	callq	__ZN2az15saturating_cast17he3860b087107b377E
	movq	%rax, -64(%rbp)
Ltmp463:
LBB174_13:
	.loc	6 259 14
	movq	-64(%rbp), %rax
	addq	$96, %rsp
	popq	%rbp
	retq
LBB174_14:
	.loc	6 0 14 is_stmt 0
	movq	-88(%rbp), %rax
Ltmp464:
	.loc	6 252 49 is_stmt 1
	movabsq	$-9223372036854775808, %rcx
	cmpq	%rcx, %rax
	sete	%al
	testb	$1, %al
	jne	LBB174_17
	jmp	LBB174_16
LBB174_15:
	.loc	6 250 33
	movq	-32(%rbp), %rax
	movq	%rax, -64(%rbp)
	.loc	6 249 36
	jmp	LBB174_13
LBB174_16:
	.loc	6 0 36 is_stmt 0
	movq	-72(%rbp), %rsi
	movq	-88(%rbp), %rax
	.loc	6 252 49 is_stmt 1
	xorl	%ecx, %ecx
	movl	%ecx, %edi
	subq	%rax, %rdi
	.loc	6 252 33 is_stmt 0
	callq	__ZN2az15saturating_cast17he3860b087107b377E
	movq	%rax, -64(%rbp)
	jmp	LBB174_13
LBB174_17:
	.loc	6 0 33
	movq	-72(%rbp), %rdx
	.loc	6 252 49
	leaq	_str.0(%rip), %rdi
	movl	$31, %esi
	callq	__ZN4core9panicking5panic17hc1bc45270cf64b03E
Ltmp465:
Lfunc_end174:
	.cfi_endproc

	.globl	__ZN2az3int64_$LT$impl$u20$az..OverflowingCast$LT$i64$GT$$u20$for$u20$f32$GT$16overflowing_cast17h3366304b5d79a1f6E
	.p2align	4, 0x90
__ZN2az3int64_$LT$impl$u20$az..OverflowingCast$LT$i64$GT$$u20$for$u20$f32$GT$16overflowing_cast17h3366304b5d79a1f6E:
Lfunc_begin175:
	.loc	6 272 0 is_stmt 1
	.cfi_startproc
	pushq	%rbp
	.cfi_def_cfa_offset 16
	.cfi_offset %rbp, -16
	movq	%rsp, %rbp
	.cfi_def_cfa_register %rbp
	subq	$176, %rsp
	movq	%rdi, -152(%rbp)
	movss	%xmm0, -76(%rbp)
	leaq	-120(%rbp), %rdi
Ltmp466:
	.loc	6 273 39 prologue_end
	callq	__ZN50_$LT$T$u20$as$u20$core..convert..Into$LT$U$GT$$GT$4into17hc0373b80baab8e63E
Ltmp467:
	.loc	6 274 23
	movzbl	-120(%rbp), %eax
	movq	%rax, -144(%rbp)
	testq	%rax, %rax
	.loc	6 274 17 is_stmt 0
	je	LBB175_2
	jmp	LBB175_15
LBB175_15:
	.loc	6 0 17
	movq	-144(%rbp), %rax
	.loc	6 274 17
	subq	$1, %rax
	je	LBB175_3
	jmp	LBB175_16
LBB175_16:
	jmp	LBB175_4
	.loc	6 274 23
	ud2
LBB175_2:
	.loc	6 0 23
	movq	-152(%rbp), %rdx
	.loc	6 275 39 is_stmt 1
	leaq	l___unnamed_2(%rip), %rdi
	movl	$3, %esi
	callq	__ZN4core9panicking5panic17hc1bc45270cf64b03E
LBB175_3:
	.loc	6 0 39 is_stmt 0
	movq	-152(%rbp), %rdx
	.loc	6 276 44 is_stmt 1
	leaq	L___unnamed_3(%rip), %rdi
	movl	$8, %esi
	callq	__ZN4core9panicking5panic17hc1bc45270cf64b03E
LBB175_4:
	.loc	6 277 44
	movq	-112(%rbp), %rax
	movq	%rax, -168(%rbp)
	movq	%rax, -72(%rbp)
	.loc	6 277 49 is_stmt 0
	movb	-119(%rbp), %al
	movb	%al, -153(%rbp)
	andb	$1, %al
	movb	%al, -57(%rbp)
Ltmp468:
	.loc	6 278 28 is_stmt 1
	testb	$1, -104(%rbp)
	jne	LBB175_6
	.loc	6 0 28 is_stmt 0
	movq	-152(%rbp), %rsi
	movq	-168(%rbp), %rdi
	.loc	6 289 56 is_stmt 1
	callq	__ZN2az16overflowing_cast17h7afc5f2676cf2cceE
	movq	%rax, %rcx
	movb	-153(%rbp), %al
	.loc	6 289 34 is_stmt 0
	movq	%rcx, -32(%rbp)
	.loc	6 289 43
	movb	%dl, %sil
	andb	$1, %sil
	movb	%sil, -17(%rbp)
Ltmp469:
	.loc	6 290 39 is_stmt 1
	orb	%dl, %al
	.loc	6 290 29 is_stmt 0
	movq	%rcx, -136(%rbp)
	andb	$1, %al
	movb	%al, -128(%rbp)
Ltmp470:
	.loc	6 278 25 is_stmt 1
	jmp	LBB175_14
LBB175_6:
	.loc	6 0 25 is_stmt 0
	movq	-168(%rbp), %rax
	.loc	6 279 37 is_stmt 1
	movq	%rax, -56(%rbp)
Ltmp471:
	.loc	6 280 59
	movabsq	$-9223372036854775808, %rcx
	cmpq	%rcx, %rax
	je	LBB175_8
	.loc	6 0 59 is_stmt 0
	movq	-168(%rbp), %rax
	.loc	6 282 39 is_stmt 1
	cmpq	$0, %rax
	jl	LBB175_11
	jmp	LBB175_10
LBB175_8:
	.loc	6 0 39 is_stmt 0
	movq	-152(%rbp), %rsi
	movq	-168(%rbp), %rdi
	.loc	6 281 33 is_stmt 1
	callq	__ZN2az16overflowing_cast17hcb6515a8063f0dbeE
	movb	%dl, -88(%rbp)
	movq	%rax, -96(%rbp)
LBB175_9:
	.loc	6 0 33 is_stmt 0
	movb	-153(%rbp), %al
	.loc	6 280 34 is_stmt 1
	movq	-96(%rbp), %rcx
	movq	%rcx, -48(%rbp)
	.loc	6 280 43 is_stmt 0
	movb	-88(%rbp), %dl
	movb	%dl, %sil
	andb	$1, %sil
	movb	%sil, -33(%rbp)
Ltmp472:
	.loc	6 287 39 is_stmt 1
	orb	%dl, %al
	.loc	6 287 29 is_stmt 0
	movq	%rcx, -136(%rbp)
	andb	$1, %al
	movb	%al, -128(%rbp)
Ltmp473:
	.loc	6 278 25 is_stmt 1
	jmp	LBB175_14
LBB175_10:
	.loc	6 0 25 is_stmt 0
	movq	-168(%rbp), %rax
Ltmp474:
	.loc	6 285 50 is_stmt 1
	movabsq	$-9223372036854775808, %rcx
	cmpq	%rcx, %rax
	sete	%al
	testb	$1, %al
	jne	LBB175_13
	jmp	LBB175_12
LBB175_11:
	.loc	6 0 50 is_stmt 0
	movq	-152(%rbp), %rsi
	movq	-168(%rbp), %rdi
	.loc	6 283 34 is_stmt 1
	callq	__ZN2az13wrapping_cast17hd0876f661e1d148bE
	movq	%rax, %rcx
	movq	%rcx, -16(%rbp)
Ltmp475:
	.loc	7 1339 40
	movq	%rcx, -8(%rbp)
Ltmp476:
	.loc	7 1164 13
	xorl	%eax, %eax
	subq	%rcx, %rax
Ltmp477:
	.loc	6 283 33
	movq	%rax, -96(%rbp)
	movb	$1, -88(%rbp)
	.loc	6 282 36
	jmp	LBB175_9
LBB175_12:
	.loc	6 0 36 is_stmt 0
	movq	-152(%rbp), %rsi
	movq	-168(%rbp), %rdi
	.loc	6 285 50 is_stmt 1
	negq	%rdi
	.loc	6 285 33 is_stmt 0
	callq	__ZN2az16overflowing_cast17hcb6515a8063f0dbeE
	movb	%dl, -88(%rbp)
	movq	%rax, -96(%rbp)
	jmp	LBB175_9
LBB175_13:
	.loc	6 0 33
	movq	-152(%rbp), %rdx
	.loc	6 285 50
	leaq	_str.0(%rip), %rdi
	movl	$31, %esi
	callq	__ZN4core9panicking5panic17hc1bc45270cf64b03E
Ltmp478:
LBB175_14:
	.loc	6 294 14 is_stmt 1
	movq	-136(%rbp), %rax
	movb	-128(%rbp), %dl
	addq	$176, %rsp
	popq	%rbp
	retq
Ltmp479:
Lfunc_end175:
	.cfi_endproc

	.globl	__ZN2az3int97_$LT$impl$u20$az..CheckedCast$LT$core..num..wrapping..Wrapping$LT$i64$GT$$GT$$u20$for$u20$f32$GT$12checked_cast17h6e96e41793c66942E
	.p2align	4, 0x90
__ZN2az3int97_$LT$impl$u20$az..CheckedCast$LT$core..num..wrapping..Wrapping$LT$i64$GT$$GT$$u20$for$u20$f32$GT$12checked_cast17h6e96e41793c66942E:
Lfunc_begin176:
	.loc	6 316 0
	.cfi_startproc
	pushq	%rbp
	.cfi_def_cfa_offset 16
	.cfi_offset %rbp, -16
	movq	%rsp, %rbp
	.cfi_def_cfa_register %rbp
	subq	$112, %rsp
	movss	%xmm0, -36(%rbp)
	leaq	-80(%rbp), %rdi
Ltmp480:
	.loc	6 317 39 prologue_end
	callq	__ZN50_$LT$T$u20$as$u20$core..convert..Into$LT$U$GT$$GT$4into17hc0373b80baab8e63E
Ltmp481:
	.loc	6 318 23
	movzbl	-80(%rbp), %eax
	subq	$2, %rax
	.loc	6 318 17 is_stmt 0
	jb	LBB176_2
	jmp	LBB176_14
LBB176_14:
	jmp	LBB176_3
	.loc	6 318 23
	ud2
LBB176_2:
	.loc	6 319 61 is_stmt 1
	movq	$0, -96(%rbp)
	jmp	LBB176_13
LBB176_3:
	.loc	6 320 44
	movq	-72(%rbp), %rax
	movq	%rax, -104(%rbp)
	movq	%rax, -32(%rbp)
Ltmp482:
	.loc	6 321 42
	testb	$1, -64(%rbp)
	jne	LBB176_5
	.loc	6 0 42 is_stmt 0
	movq	-104(%rbp), %rdi
	.loc	6 331 29 is_stmt 1
	leaq	l___unnamed_4(%rip), %rsi
	callq	__ZN2az13wrapping_cast17hd0876f661e1d148bE
	movq	%rax, -56(%rbp)
	jmp	LBB176_8
LBB176_5:
	.loc	6 0 29 is_stmt 0
	movq	-104(%rbp), %rax
	.loc	6 322 37 is_stmt 1
	movq	%rax, -24(%rbp)
Ltmp483:
	.loc	6 323 32
	movabsq	$-9223372036854775808, %rcx
	cmpq	%rcx, %rax
	je	LBB176_7
	.loc	6 0 32 is_stmt 0
	movq	-104(%rbp), %rax
	.loc	6 325 39 is_stmt 1
	cmpq	$0, %rax
	jl	LBB176_10
	jmp	LBB176_9
LBB176_7:
	.loc	6 0 39 is_stmt 0
	movq	-104(%rbp), %rdi
	.loc	6 324 33 is_stmt 1
	leaq	l___unnamed_4(%rip), %rsi
	callq	__ZN2az13wrapping_cast17h5015c016999f0e60E
	movq	%rax, -56(%rbp)
Ltmp484:
LBB176_8:
	.loc	6 333 39
	movq	-56(%rbp), %rax
	.loc	6 333 30 is_stmt 0
	movq	%rax, -48(%rbp)
	.loc	6 333 25
	movq	-48(%rbp), %rax
	movq	%rax, -88(%rbp)
	movq	$1, -96(%rbp)
Ltmp485:
	.loc	6 334 21 is_stmt 1
	jmp	LBB176_13
LBB176_9:
	.loc	6 0 21 is_stmt 0
	movq	-104(%rbp), %rax
Ltmp486:
	.loc	6 328 47 is_stmt 1
	movabsq	$-9223372036854775808, %rcx
	cmpq	%rcx, %rax
	sete	%al
	testb	$1, %al
	jne	LBB176_12
	jmp	LBB176_11
LBB176_10:
	.loc	6 0 47 is_stmt 0
	movq	-104(%rbp), %rdi
	.loc	6 326 33 is_stmt 1
	leaq	l___unnamed_4(%rip), %rsi
	callq	__ZN2az13wrapping_cast17hd0876f661e1d148bE
	movq	%rax, %rcx
	movq	%rcx, -16(%rbp)
Ltmp487:
	.loc	7 1339 40
	movq	%rcx, -8(%rbp)
Ltmp488:
	.loc	7 1164 13
	xorl	%eax, %eax
	subq	%rcx, %rax
Ltmp489:
	.loc	6 326 33
	movq	%rax, -56(%rbp)
	jmp	LBB176_8
LBB176_11:
	.loc	6 0 33 is_stmt 0
	movq	-104(%rbp), %rax
	.loc	6 328 47 is_stmt 1
	xorl	%ecx, %ecx
	movl	%ecx, %edi
	subq	%rax, %rdi
	.loc	6 328 33 is_stmt 0
	leaq	l___unnamed_4(%rip), %rsi
	callq	__ZN2az13wrapping_cast17h5015c016999f0e60E
	movq	%rax, -56(%rbp)
	jmp	LBB176_8
LBB176_12:
	.loc	6 328 47
	leaq	_str.0(%rip), %rdi
	leaq	l___unnamed_4(%rip), %rdx
	movl	$31, %esi
	callq	__ZN4core9panicking5panic17hc1bc45270cf64b03E
Ltmp490:
LBB176_13:
	.loc	6 336 14 is_stmt 1
	movq	-96(%rbp), %rax
	movq	-88(%rbp), %rdx
	addq	$112, %rsp
	popq	%rbp
	retq
Ltmp491:
Lfunc_end176:
	.cfi_endproc

	.globl	__ZN2az3int61_$LT$impl$u20$az..CheckedCast$LT$i128$GT$$u20$for$u20$f32$GT$12checked_cast17h97160be532d53d05E
	.p2align	4, 0x90
__ZN2az3int61_$LT$impl$u20$az..CheckedCast$LT$i128$GT$$u20$for$u20$f32$GT$12checked_cast17h97160be532d53d05E:
Lfunc_begin177:
	.loc	6 210 0
	.cfi_startproc
	pushq	%rbp
	.cfi_def_cfa_offset 16
	.cfi_offset %rbp, -16
	movq	%rsp, %rbp
	.cfi_def_cfa_register %rbp
	subq	$112, %rsp
	movss	%xmm0, -36(%rbp)
	leaq	-72(%rbp), %rdi
Ltmp492:
	.loc	6 211 39 prologue_end
	callq	__ZN50_$LT$T$u20$as$u20$core..convert..Into$LT$U$GT$$GT$4into17h4164bc3de6113974E
Ltmp493:
	.loc	6 212 23
	movzbl	-72(%rbp), %eax
	subq	$2, %rax
	.loc	6 212 17 is_stmt 0
	jb	LBB177_2
	jmp	LBB177_14
LBB177_14:
	jmp	LBB177_3
	.loc	6 212 23
	ud2
LBB177_2:
	.loc	6 213 95 is_stmt 1
	movq	$0, -96(%rbp)
	jmp	LBB177_9
LBB177_3:
	.loc	6 212 17
	testb	$1, -71(%rbp)
	jne	LBB177_2
	.loc	6 214 44
	movq	-64(%rbp), %rax
	movq	%rax, -112(%rbp)
	movq	-56(%rbp), %rcx
	movq	%rcx, -104(%rbp)
	movq	%rcx, -24(%rbp)
	movq	%rax, -32(%rbp)
Ltmp494:
	.loc	6 215 28
	testb	$1, -48(%rbp)
	jne	LBB177_6
	.loc	6 0 28 is_stmt 0
	movq	-104(%rbp), %rsi
	movq	-112(%rbp), %rdi
	.loc	6 225 29 is_stmt 1
	leaq	l___unnamed_5(%rip), %rdx
	callq	__ZN2az12checked_cast17he3fa8a0fe01ab07aE
	movq	%rcx, -80(%rbp)
	movq	%rdx, -88(%rbp)
	movq	%rax, -96(%rbp)
	jmp	LBB177_9
LBB177_6:
	.loc	6 0 29 is_stmt 0
	movq	-112(%rbp), %rax
	movq	-104(%rbp), %rcx
	.loc	6 216 37 is_stmt 1
	movq	%rax, -16(%rbp)
	movq	%rcx, -8(%rbp)
	movabsq	$-9223372036854775808, %rdx
Ltmp495:
	.loc	6 217 32
	xorq	%rdx, %rcx
	orq	%rcx, %rax
	je	LBB177_8
	jmp	LBB177_7
LBB177_7:
	.loc	6 0 32 is_stmt 0
	movq	-104(%rbp), %rax
	.loc	6 219 39 is_stmt 1
	testq	%rax, %rax
	js	LBB177_11
	jmp	LBB177_10
LBB177_8:
	.loc	6 0 39 is_stmt 0
	movq	-104(%rbp), %rsi
	movq	-112(%rbp), %rdi
	.loc	6 218 33 is_stmt 1
	leaq	l___unnamed_5(%rip), %rdx
	callq	__ZN2az12checked_cast17h145c055ef1ccf7e5E
	movq	%rcx, -80(%rbp)
	movq	%rdx, -88(%rbp)
	movq	%rax, -96(%rbp)
Ltmp496:
LBB177_9:
	.loc	6 229 14
	movq	-96(%rbp), %rax
	movq	-88(%rbp), %rdx
	movq	-80(%rbp), %rcx
	addq	$112, %rsp
	popq	%rbp
	retq
LBB177_10:
	.loc	6 0 14 is_stmt 0
	movq	-112(%rbp), %rax
	movq	-104(%rbp), %rcx
	movabsq	$-9223372036854775808, %rdx
Ltmp497:
	.loc	6 222 46 is_stmt 1
	xorq	%rdx, %rcx
	orq	%rcx, %rax
	sete	%al
	testb	$1, %al
	jne	LBB177_13
	jmp	LBB177_12
LBB177_11:
	.loc	6 220 33
	movq	$0, -96(%rbp)
	.loc	6 219 36
	jmp	LBB177_9
LBB177_12:
	.loc	6 0 36 is_stmt 0
	movq	-104(%rbp), %rax
	movq	-112(%rbp), %rdi
	xorl	%ecx, %ecx
	.loc	6 222 46 is_stmt 1
	negq	%rdi
	movl	%ecx, %esi
	sbbq	%rax, %rsi
	.loc	6 222 33 is_stmt 0
	leaq	l___unnamed_5(%rip), %rdx
	callq	__ZN2az12checked_cast17h145c055ef1ccf7e5E
	movq	%rcx, -80(%rbp)
	movq	%rdx, -88(%rbp)
	movq	%rax, -96(%rbp)
	jmp	LBB177_9
LBB177_13:
	.loc	6 222 46
	leaq	_str.0(%rip), %rdi
	leaq	l___unnamed_5(%rip), %rdx
	movl	$31, %esi
	callq	__ZN4core9panicking5panic17hc1bc45270cf64b03E
Ltmp498:
Lfunc_end177:
	.cfi_endproc

	.globl	__ZN2az3int64_$LT$impl$u20$az..SaturatingCast$LT$i128$GT$$u20$for$u20$f32$GT$15saturating_cast17hedb0606927e30d5aE
	.p2align	4, 0x90
__ZN2az3int64_$LT$impl$u20$az..SaturatingCast$LT$i128$GT$$u20$for$u20$f32$GT$15saturating_cast17hedb0606927e30d5aE:
Lfunc_begin178:
	.loc	6 234 0 is_stmt 1
	.cfi_startproc
	pushq	%rbp
	.cfi_def_cfa_offset 16
	.cfi_offset %rbp, -16
	movq	%rsp, %rbp
	.cfi_def_cfa_register %rbp
	subq	$144, %rsp
	movq	%rdi, -112(%rbp)
	movss	%xmm0, -36(%rbp)
Ltmp499:
	.loc	6 235 39 prologue_end
	leaq	-88(%rbp), %rdi
	callq	__ZN50_$LT$T$u20$as$u20$core..convert..Into$LT$U$GT$$GT$4into17h4164bc3de6113974E
Ltmp500:
	.loc	6 236 36
	testb	$1, -64(%rbp)
	jne	LBB178_2
	.loc	6 0 36 is_stmt 0
	movabsq	$9223372036854775807, %rax
	.loc	6 239 21 is_stmt 1
	movq	%rax, -48(%rbp)
	movq	$-1, -56(%rbp)
	jmp	LBB178_3
LBB178_2:
	.loc	6 0 21 is_stmt 0
	movabsq	$-9223372036854775808, %rax
	.loc	6 237 21 is_stmt 1
	movq	%rax, -48(%rbp)
	movq	$0, -56(%rbp)
LBB178_3:
Ltmp501:
	.loc	6 241 23
	movzbl	-88(%rbp), %eax
	movq	%rax, -120(%rbp)
	testq	%rax, %rax
	.loc	6 241 17 is_stmt 0
	je	LBB178_5
	jmp	LBB178_18
LBB178_18:
	.loc	6 0 17
	movq	-120(%rbp), %rax
	.loc	6 241 17
	subq	$1, %rax
	je	LBB178_6
	jmp	LBB178_19
LBB178_19:
	jmp	LBB178_7
	.loc	6 241 23
	ud2
LBB178_5:
	.loc	6 0 23
	movq	-112(%rbp), %rdx
	.loc	6 242 39 is_stmt 1
	leaq	l___unnamed_2(%rip), %rdi
	movl	$3, %esi
	callq	__ZN4core9panicking5panic17hc1bc45270cf64b03E
LBB178_6:
	.loc	6 243 78
	movq	-56(%rbp), %rax
	movq	-48(%rbp), %rcx
	movq	%rcx, -96(%rbp)
	movq	%rax, -104(%rbp)
	jmp	LBB178_13
LBB178_7:
	.loc	6 241 17
	testb	$1, -87(%rbp)
	jne	LBB178_6
	.loc	6 244 44
	movq	-80(%rbp), %rax
	movq	%rax, -136(%rbp)
	movq	-72(%rbp), %rcx
	movq	%rcx, -128(%rbp)
	movq	%rcx, -24(%rbp)
	movq	%rax, -32(%rbp)
Ltmp502:
	.loc	6 245 28
	testb	$1, -64(%rbp)
	jne	LBB178_10
	.loc	6 0 28 is_stmt 0
	movq	-112(%rbp), %rdx
	movq	-128(%rbp), %rsi
	movq	-136(%rbp), %rdi
	.loc	6 255 29 is_stmt 1
	callq	__ZN2az15saturating_cast17h12057b120c04f537E
	movq	%rdx, -96(%rbp)
	movq	%rax, -104(%rbp)
	jmp	LBB178_13
LBB178_10:
	.loc	6 0 29 is_stmt 0
	movq	-136(%rbp), %rax
	movq	-128(%rbp), %rcx
	.loc	6 246 37 is_stmt 1
	movq	%rax, -16(%rbp)
	movq	%rcx, -8(%rbp)
	movabsq	$-9223372036854775808, %rdx
Ltmp503:
	.loc	6 247 32
	xorq	%rdx, %rcx
	orq	%rcx, %rax
	je	LBB178_12
	jmp	LBB178_11
LBB178_11:
	.loc	6 0 32 is_stmt 0
	movq	-128(%rbp), %rax
	.loc	6 249 39 is_stmt 1
	testq	%rax, %rax
	js	LBB178_15
	jmp	LBB178_14
LBB178_12:
	.loc	6 0 39 is_stmt 0
	movq	-112(%rbp), %rdx
	movq	-128(%rbp), %rsi
	movq	-136(%rbp), %rdi
	.loc	6 248 33 is_stmt 1
	callq	__ZN2az15saturating_cast17hac788cf81231d64cE
	movq	%rdx, -96(%rbp)
	movq	%rax, -104(%rbp)
Ltmp504:
LBB178_13:
	.loc	6 259 14
	movq	-104(%rbp), %rax
	movq	-96(%rbp), %rdx
	addq	$144, %rsp
	popq	%rbp
	retq
LBB178_14:
	.loc	6 0 14 is_stmt 0
	movq	-136(%rbp), %rax
	movq	-128(%rbp), %rcx
	movabsq	$-9223372036854775808, %rdx
Ltmp505:
	.loc	6 252 49 is_stmt 1
	xorq	%rdx, %rcx
	orq	%rcx, %rax
	sete	%al
	testb	$1, %al
	jne	LBB178_17
	jmp	LBB178_16
LBB178_15:
	.loc	6 250 33
	movq	-56(%rbp), %rax
	movq	-48(%rbp), %rcx
	movq	%rcx, -96(%rbp)
	movq	%rax, -104(%rbp)
	.loc	6 249 36
	jmp	LBB178_13
LBB178_16:
	.loc	6 0 36 is_stmt 0
	movq	-112(%rbp), %rdx
	movq	-128(%rbp), %rax
	movq	-136(%rbp), %rdi
	xorl	%ecx, %ecx
	.loc	6 252 49 is_stmt 1
	negq	%rdi
	movl	%ecx, %esi
	sbbq	%rax, %rsi
	.loc	6 252 33 is_stmt 0
	callq	__ZN2az15saturating_cast17hac788cf81231d64cE
	movq	%rdx, -96(%rbp)
	movq	%rax, -104(%rbp)
	jmp	LBB178_13
LBB178_17:
	.loc	6 0 33
	movq	-112(%rbp), %rdx
	.loc	6 252 49
	leaq	_str.0(%rip), %rdi
	movl	$31, %esi
	callq	__ZN4core9panicking5panic17hc1bc45270cf64b03E
Ltmp506:
Lfunc_end178:
	.cfi_endproc

	.globl	__ZN2az3int65_$LT$impl$u20$az..OverflowingCast$LT$i128$GT$$u20$for$u20$f32$GT$16overflowing_cast17h7a4cf984ea3526b4E
	.p2align	4, 0x90
__ZN2az3int65_$LT$impl$u20$az..OverflowingCast$LT$i128$GT$$u20$for$u20$f32$GT$16overflowing_cast17h7a4cf984ea3526b4E:
Lfunc_begin179:
	.loc	6 272 0 is_stmt 1
	.cfi_startproc
	pushq	%rbp
	.cfi_def_cfa_offset 16
	.cfi_offset %rbp, -16
	movq	%rsp, %rbp
	.cfi_def_cfa_register %rbp
	subq	$256, %rsp
	movq	%rdi, -224(%rbp)
	movss	%xmm0, -124(%rbp)
	leaq	-184(%rbp), %rdi
Ltmp507:
	.loc	6 273 39 prologue_end
	callq	__ZN50_$LT$T$u20$as$u20$core..convert..Into$LT$U$GT$$GT$4into17h4164bc3de6113974E
Ltmp508:
	.loc	6 274 23
	movzbl	-184(%rbp), %eax
	movq	%rax, -216(%rbp)
	testq	%rax, %rax
	.loc	6 274 17 is_stmt 0
	je	LBB179_2
	jmp	LBB179_15
LBB179_15:
	.loc	6 0 17
	movq	-216(%rbp), %rax
	.loc	6 274 17
	subq	$1, %rax
	je	LBB179_3
	jmp	LBB179_16
LBB179_16:
	jmp	LBB179_4
	.loc	6 274 23
	ud2
LBB179_2:
	.loc	6 0 23
	movq	-224(%rbp), %rdx
	.loc	6 275 39 is_stmt 1
	leaq	l___unnamed_2(%rip), %rdi
	movl	$3, %esi
	callq	__ZN4core9panicking5panic17hc1bc45270cf64b03E
LBB179_3:
	.loc	6 0 39 is_stmt 0
	movq	-224(%rbp), %rdx
	.loc	6 276 44 is_stmt 1
	leaq	L___unnamed_3(%rip), %rdi
	movl	$8, %esi
	callq	__ZN4core9panicking5panic17hc1bc45270cf64b03E
LBB179_4:
	.loc	6 277 44
	movq	-176(%rbp), %rax
	movq	%rax, -248(%rbp)
	movq	-168(%rbp), %rcx
	movq	%rcx, -240(%rbp)
	movq	%rcx, -112(%rbp)
	movq	%rax, -120(%rbp)
	.loc	6 277 49 is_stmt 0
	movb	-183(%rbp), %al
	movb	%al, -225(%rbp)
	andb	$1, %al
	movb	%al, -97(%rbp)
Ltmp509:
	.loc	6 278 28 is_stmt 1
	testb	$1, -160(%rbp)
	jne	LBB179_6
	.loc	6 0 28 is_stmt 0
	movq	-224(%rbp), %rdx
	movq	-240(%rbp), %rsi
	movq	-248(%rbp), %rdi
	.loc	6 289 56 is_stmt 1
	callq	__ZN2az16overflowing_cast17h484469a6a0593b57E
	movq	%rax, %rsi
	movb	-225(%rbp), %al
	movq	%rsi, -256(%rbp)
	movb	%cl, %sil
	movq	-256(%rbp), %rcx
	.loc	6 289 34 is_stmt 0
	movq	%rdx, -48(%rbp)
	movq	%rcx, -56(%rbp)
	.loc	6 289 43
	movb	%sil, %dil
	andb	$1, %dil
	movb	%dil, -33(%rbp)
Ltmp510:
	.loc	6 290 39 is_stmt 1
	orb	%sil, %al
	.loc	6 290 29 is_stmt 0
	movq	%rdx, -200(%rbp)
	movq	%rcx, -208(%rbp)
	andb	$1, %al
	movb	%al, -192(%rbp)
Ltmp511:
	.loc	6 278 25 is_stmt 1
	jmp	LBB179_14
LBB179_6:
	.loc	6 0 25 is_stmt 0
	movq	-248(%rbp), %rax
	movq	-240(%rbp), %rcx
	.loc	6 279 37 is_stmt 1
	movq	%rax, -96(%rbp)
	movq	%rcx, -88(%rbp)
	movabsq	$-9223372036854775808, %rdx
Ltmp512:
	.loc	6 280 59
	xorq	%rdx, %rcx
	orq	%rcx, %rax
	je	LBB179_8
	jmp	LBB179_7
LBB179_7:
	.loc	6 0 59 is_stmt 0
	movq	-240(%rbp), %rax
	.loc	6 282 39 is_stmt 1
	testq	%rax, %rax
	js	LBB179_11
	jmp	LBB179_10
LBB179_8:
	.loc	6 0 39 is_stmt 0
	movq	-224(%rbp), %rdx
	movq	-240(%rbp), %rsi
	movq	-248(%rbp), %rdi
	.loc	6 281 33 is_stmt 1
	callq	__ZN2az16overflowing_cast17he56eb232905d584aE
	movq	%rdx, -144(%rbp)
	movq	%rax, -152(%rbp)
	movb	%cl, -136(%rbp)
LBB179_9:
	.loc	6 0 33 is_stmt 0
	movb	-225(%rbp), %al
	.loc	6 280 34 is_stmt 1
	movq	-152(%rbp), %rcx
	movq	-144(%rbp), %rdx
	movq	%rdx, -72(%rbp)
	movq	%rcx, -80(%rbp)
	.loc	6 280 43 is_stmt 0
	movb	-136(%rbp), %sil
	movb	%sil, -57(%rbp)
Ltmp513:
	.loc	6 287 39 is_stmt 1
	orb	%sil, %al
	.loc	6 287 29 is_stmt 0
	movq	%rdx, -200(%rbp)
	movq	%rcx, -208(%rbp)
	andb	$1, %al
	movb	%al, -192(%rbp)
Ltmp514:
	.loc	6 278 25 is_stmt 1
	jmp	LBB179_14
LBB179_10:
	.loc	6 0 25 is_stmt 0
	movq	-248(%rbp), %rax
	movq	-240(%rbp), %rcx
	movabsq	$-9223372036854775808, %rdx
Ltmp515:
	.loc	6 285 50 is_stmt 1
	xorq	%rdx, %rcx
	orq	%rcx, %rax
	sete	%al
	testb	$1, %al
	jne	LBB179_13
	jmp	LBB179_12
LBB179_11:
	.loc	6 0 50 is_stmt 0
	movq	-224(%rbp), %rdx
	movq	-240(%rbp), %rsi
	movq	-248(%rbp), %rdi
	.loc	6 283 34 is_stmt 1
	callq	__ZN2az13wrapping_cast17h2f57a0e1574ec453E
	movq	%rdx, -24(%rbp)
	movq	%rax, -32(%rbp)
Ltmp516:
	.loc	7 1339 40
	movq	%rdx, -8(%rbp)
	movq	%rax, -16(%rbp)
	xorl	%ecx, %ecx
Ltmp517:
	.loc	7 1164 13
	negq	%rax
	sbbq	%rdx, %rcx
Ltmp518:
	.loc	6 283 33
	movq	%rcx, -144(%rbp)
	movq	%rax, -152(%rbp)
	movb	$1, -136(%rbp)
	.loc	6 282 36
	jmp	LBB179_9
LBB179_12:
	.loc	6 0 36 is_stmt 0
	movq	-224(%rbp), %rdx
	movq	-240(%rbp), %rax
	movq	-248(%rbp), %rdi
	xorl	%ecx, %ecx
	.loc	6 285 50 is_stmt 1
	negq	%rdi
	movl	%ecx, %esi
	sbbq	%rax, %rsi
	.loc	6 285 33 is_stmt 0
	callq	__ZN2az16overflowing_cast17he56eb232905d584aE
	movq	%rdx, -144(%rbp)
	movq	%rax, -152(%rbp)
	movb	%cl, -136(%rbp)
	jmp	LBB179_9
LBB179_13:
	.loc	6 0 33
	movq	-224(%rbp), %rdx
	.loc	6 285 50
	leaq	_str.0(%rip), %rdi
	movl	$31, %esi
	callq	__ZN4core9panicking5panic17hc1bc45270cf64b03E
Ltmp519:
LBB179_14:
	.loc	6 294 14 is_stmt 1
	movq	-208(%rbp), %rax
	movq	-200(%rbp), %rdx
	movb	-192(%rbp), %cl
	addq	$256, %rsp
	popq	%rbp
	retq
Ltmp520:
Lfunc_end179:
	.cfi_endproc

	.globl	__ZN2az3int98_$LT$impl$u20$az..CheckedCast$LT$core..num..wrapping..Wrapping$LT$i128$GT$$GT$$u20$for$u20$f32$GT$12checked_cast17hafe8d97b6c3d8c26E
	.p2align	4, 0x90
__ZN2az3int98_$LT$impl$u20$az..CheckedCast$LT$core..num..wrapping..Wrapping$LT$i128$GT$$GT$$u20$for$u20$f32$GT$12checked_cast17hafe8d97b6c3d8c26E:
Lfunc_begin180:
	.loc	6 316 0
	.cfi_startproc
	pushq	%rbp
	.cfi_def_cfa_offset 16
	.cfi_offset %rbp, -16
	movq	%rsp, %rbp
	.cfi_def_cfa_register %rbp
	subq	$176, %rsp
	movss	%xmm0, -68(%rbp)
	leaq	-136(%rbp), %rdi
Ltmp521:
	.loc	6 317 39 prologue_end
	callq	__ZN50_$LT$T$u20$as$u20$core..convert..Into$LT$U$GT$$GT$4into17h4164bc3de6113974E
Ltmp522:
	.loc	6 318 23
	movzbl	-136(%rbp), %eax
	subq	$2, %rax
	.loc	6 318 17 is_stmt 0
	jb	LBB180_2
	jmp	LBB180_14
LBB180_14:
	jmp	LBB180_3
	.loc	6 318 23
	ud2
LBB180_2:
	.loc	6 319 61 is_stmt 1
	movq	$0, -160(%rbp)
	jmp	LBB180_13
LBB180_3:
	.loc	6 320 44
	movq	-128(%rbp), %rax
	movq	%rax, -176(%rbp)
	movq	-120(%rbp), %rcx
	movq	%rcx, -168(%rbp)
	movq	%rcx, -56(%rbp)
	movq	%rax, -64(%rbp)
Ltmp523:
	.loc	6 321 42
	testb	$1, -112(%rbp)
	jne	LBB180_5
	.loc	6 0 42 is_stmt 0
	movq	-168(%rbp), %rsi
	movq	-176(%rbp), %rdi
	.loc	6 331 29 is_stmt 1
	leaq	l___unnamed_5(%rip), %rdx
	callq	__ZN2az13wrapping_cast17h2f57a0e1574ec453E
	movq	%rdx, -96(%rbp)
	movq	%rax, -104(%rbp)
	jmp	LBB180_8
LBB180_5:
	.loc	6 0 29 is_stmt 0
	movq	-176(%rbp), %rax
	movq	-168(%rbp), %rcx
	.loc	6 322 37 is_stmt 1
	movq	%rax, -48(%rbp)
	movq	%rcx, -40(%rbp)
	movabsq	$-9223372036854775808, %rdx
Ltmp524:
	.loc	6 323 32
	xorq	%rdx, %rcx
	orq	%rcx, %rax
	je	LBB180_7
	jmp	LBB180_6
LBB180_6:
	.loc	6 0 32 is_stmt 0
	movq	-168(%rbp), %rax
	.loc	6 325 39 is_stmt 1
	testq	%rax, %rax
	js	LBB180_10
	jmp	LBB180_9
LBB180_7:
	.loc	6 0 39 is_stmt 0
	movq	-168(%rbp), %rsi
	movq	-176(%rbp), %rdi
	.loc	6 324 33 is_stmt 1
	leaq	l___unnamed_5(%rip), %rdx
	callq	__ZN2az13wrapping_cast17h2b5c7c52a9bef7d4E
	movq	%rdx, -96(%rbp)
	movq	%rax, -104(%rbp)
Ltmp525:
LBB180_8:
	.loc	6 333 39
	movq	-104(%rbp), %rax
	movq	-96(%rbp), %rcx
	.loc	6 333 30 is_stmt 0
	movq	%rcx, -80(%rbp)
	movq	%rax, -88(%rbp)
	.loc	6 333 25
	movq	-88(%rbp), %rax
	movq	-80(%rbp), %rcx
	movq	%rcx, -144(%rbp)
	movq	%rax, -152(%rbp)
	movq	$1, -160(%rbp)
Ltmp526:
	.loc	6 334 21 is_stmt 1
	jmp	LBB180_13
LBB180_9:
	.loc	6 0 21 is_stmt 0
	movq	-176(%rbp), %rax
	movq	-168(%rbp), %rcx
	movabsq	$-9223372036854775808, %rdx
Ltmp527:
	.loc	6 328 47 is_stmt 1
	xorq	%rdx, %rcx
	orq	%rcx, %rax
	sete	%al
	testb	$1, %al
	jne	LBB180_12
	jmp	LBB180_11
LBB180_10:
	.loc	6 0 47 is_stmt 0
	movq	-168(%rbp), %rsi
	movq	-176(%rbp), %rdi
	.loc	6 326 33 is_stmt 1
	leaq	l___unnamed_5(%rip), %rdx
	callq	__ZN2az13wrapping_cast17h2f57a0e1574ec453E
	movq	%rdx, -24(%rbp)
	movq	%rax, -32(%rbp)
Ltmp528:
	.loc	7 1339 40
	movq	%rdx, -8(%rbp)
	movq	%rax, -16(%rbp)
	xorl	%ecx, %ecx
Ltmp529:
	.loc	7 1164 13
	negq	%rax
	sbbq	%rdx, %rcx
Ltmp530:
	.loc	6 326 33
	movq	%rcx, -96(%rbp)
	movq	%rax, -104(%rbp)
	jmp	LBB180_8
LBB180_11:
	.loc	6 0 33 is_stmt 0
	movq	-168(%rbp), %rax
	movq	-176(%rbp), %rdi
	xorl	%ecx, %ecx
	.loc	6 328 47 is_stmt 1
	negq	%rdi
	movl	%ecx, %esi
	sbbq	%rax, %rsi
	.loc	6 328 33 is_stmt 0
	leaq	l___unnamed_5(%rip), %rdx
	callq	__ZN2az13wrapping_cast17h2b5c7c52a9bef7d4E
	movq	%rdx, -96(%rbp)
	movq	%rax, -104(%rbp)
	jmp	LBB180_8
LBB180_12:
	.loc	6 328 47
	leaq	_str.0(%rip), %rdi
	leaq	l___unnamed_5(%rip), %rdx
	movl	$31, %esi
	callq	__ZN4core9panicking5panic17hc1bc45270cf64b03E
Ltmp531:
LBB180_13:
	.loc	6 336 14 is_stmt 1
	movq	-160(%rbp), %rax
	movq	-152(%rbp), %rdx
	movq	-144(%rbp), %rcx
	addq	$176, %rsp
	popq	%rbp
	retq
Ltmp532:
Lfunc_end180:
	.cfi_endproc

	.globl	__ZN2az3int62_$LT$impl$u20$az..CheckedCast$LT$isize$GT$$u20$for$u20$f32$GT$12checked_cast17h1bffc36d16c46a44E
	.p2align	4, 0x90
__ZN2az3int62_$LT$impl$u20$az..CheckedCast$LT$isize$GT$$u20$for$u20$f32$GT$12checked_cast17h1bffc36d16c46a44E:
Lfunc_begin181:
	.loc	6 210 0
	.cfi_startproc
	pushq	%rbp
	.cfi_def_cfa_offset 16
	.cfi_offset %rbp, -16
	movq	%rsp, %rbp
	.cfi_def_cfa_register %rbp
	subq	$80, %rsp
	movss	%xmm0, -20(%rbp)
	leaq	-48(%rbp), %rdi
Ltmp533:
	.loc	6 211 39 prologue_end
	callq	__ZN50_$LT$T$u20$as$u20$core..convert..Into$LT$U$GT$$GT$4into17hc0373b80baab8e63E
Ltmp534:
	.loc	6 212 23
	movzbl	-48(%rbp), %eax
	subq	$2, %rax
	.loc	6 212 17 is_stmt 0
	jb	LBB181_2
	jmp	LBB181_14
LBB181_14:
	jmp	LBB181_3
	.loc	6 212 23
	ud2
LBB181_2:
	.loc	6 213 95 is_stmt 1
	movq	$0, -64(%rbp)
	jmp	LBB181_9
LBB181_3:
	.loc	6 212 17
	testb	$1, -47(%rbp)
	jne	LBB181_2
	.loc	6 214 44
	movq	-40(%rbp), %rax
	movq	%rax, -72(%rbp)
	movq	%rax, -16(%rbp)
Ltmp535:
	.loc	6 215 28
	testb	$1, -32(%rbp)
	jne	LBB181_6
	.loc	6 0 28 is_stmt 0
	movq	-72(%rbp), %rdi
	.loc	6 225 29 is_stmt 1
	leaq	l___unnamed_6(%rip), %rsi
	callq	__ZN2az12checked_cast17h799dcdbe09ffe511E
	movq	%rdx, -56(%rbp)
	movq	%rax, -64(%rbp)
	jmp	LBB181_9
LBB181_6:
	.loc	6 0 29 is_stmt 0
	movq	-72(%rbp), %rax
	.loc	6 216 37 is_stmt 1
	movq	%rax, -8(%rbp)
Ltmp536:
	.loc	6 217 32
	movabsq	$-9223372036854775808, %rcx
	cmpq	%rcx, %rax
	je	LBB181_8
	.loc	6 0 32 is_stmt 0
	movq	-72(%rbp), %rax
	.loc	6 219 39 is_stmt 1
	cmpq	$0, %rax
	jl	LBB181_11
	jmp	LBB181_10
LBB181_8:
	.loc	6 0 39 is_stmt 0
	movq	-72(%rbp), %rdi
	.loc	6 218 33 is_stmt 1
	leaq	l___unnamed_6(%rip), %rsi
	callq	__ZN2az12checked_cast17h4168016283181965E
	movq	%rdx, -56(%rbp)
	movq	%rax, -64(%rbp)
Ltmp537:
LBB181_9:
	.loc	6 229 14
	movq	-64(%rbp), %rax
	movq	-56(%rbp), %rdx
	addq	$80, %rsp
	popq	%rbp
	retq
LBB181_10:
	.loc	6 0 14 is_stmt 0
	movq	-72(%rbp), %rax
Ltmp538:
	.loc	6 222 46 is_stmt 1
	movabsq	$-9223372036854775808, %rcx
	cmpq	%rcx, %rax
	sete	%al
	testb	$1, %al
	jne	LBB181_13
	jmp	LBB181_12
LBB181_11:
	.loc	6 220 33
	movq	$0, -64(%rbp)
	.loc	6 219 36
	jmp	LBB181_9
LBB181_12:
	.loc	6 0 36 is_stmt 0
	movq	-72(%rbp), %rdi
	.loc	6 222 46 is_stmt 1
	negq	%rdi
	.loc	6 222 33 is_stmt 0
	leaq	l___unnamed_6(%rip), %rsi
	callq	__ZN2az12checked_cast17h4168016283181965E
	movq	%rdx, -56(%rbp)
	movq	%rax, -64(%rbp)
	jmp	LBB181_9
LBB181_13:
	.loc	6 222 46
	leaq	_str.0(%rip), %rdi
	leaq	l___unnamed_6(%rip), %rdx
	movl	$31, %esi
	callq	__ZN4core9panicking5panic17hc1bc45270cf64b03E
Ltmp539:
Lfunc_end181:
	.cfi_endproc

	.globl	__ZN2az3int65_$LT$impl$u20$az..SaturatingCast$LT$isize$GT$$u20$for$u20$f32$GT$15saturating_cast17h4997d67008e383ecE
	.p2align	4, 0x90
__ZN2az3int65_$LT$impl$u20$az..SaturatingCast$LT$isize$GT$$u20$for$u20$f32$GT$15saturating_cast17h4997d67008e383ecE:
Lfunc_begin182:
	.loc	6 234 0 is_stmt 1
	.cfi_startproc
	pushq	%rbp
	.cfi_def_cfa_offset 16
	.cfi_offset %rbp, -16
	movq	%rsp, %rbp
	.cfi_def_cfa_register %rbp
	subq	$96, %rsp
	movq	%rdi, -72(%rbp)
	movss	%xmm0, -20(%rbp)
Ltmp540:
	.loc	6 235 39 prologue_end
	leaq	-56(%rbp), %rdi
	callq	__ZN50_$LT$T$u20$as$u20$core..convert..Into$LT$U$GT$$GT$4into17hc0373b80baab8e63E
Ltmp541:
	.loc	6 236 36
	testb	$1, -40(%rbp)
	jne	LBB182_2
	.loc	6 239 21
	movabsq	$9223372036854775807, %rax
	movq	%rax, -32(%rbp)
	jmp	LBB182_3
LBB182_2:
	.loc	6 237 21
	movabsq	$-9223372036854775808, %rax
	movq	%rax, -32(%rbp)
LBB182_3:
Ltmp542:
	.loc	6 241 23
	movzbl	-56(%rbp), %eax
	movq	%rax, -80(%rbp)
	testq	%rax, %rax
	.loc	6 241 17 is_stmt 0
	je	LBB182_5
	jmp	LBB182_18
LBB182_18:
	.loc	6 0 17
	movq	-80(%rbp), %rax
	.loc	6 241 17
	subq	$1, %rax
	je	LBB182_6
	jmp	LBB182_19
LBB182_19:
	jmp	LBB182_7
	.loc	6 241 23
	ud2
LBB182_5:
	.loc	6 0 23
	movq	-72(%rbp), %rdx
	.loc	6 242 39 is_stmt 1
	leaq	l___unnamed_2(%rip), %rdi
	movl	$3, %esi
	callq	__ZN4core9panicking5panic17hc1bc45270cf64b03E
LBB182_6:
	.loc	6 243 78
	movq	-32(%rbp), %rax
	movq	%rax, -64(%rbp)
	jmp	LBB182_13
LBB182_7:
	.loc	6 241 17
	testb	$1, -55(%rbp)
	jne	LBB182_6
	.loc	6 244 44
	movq	-48(%rbp), %rax
	movq	%rax, -88(%rbp)
	movq	%rax, -16(%rbp)
Ltmp543:
	.loc	6 245 28
	testb	$1, -40(%rbp)
	jne	LBB182_10
	.loc	6 0 28 is_stmt 0
	movq	-72(%rbp), %rsi
	movq	-88(%rbp), %rdi
	.loc	6 255 29 is_stmt 1
	callq	__ZN2az15saturating_cast17he613313ca975e2c2E
	movq	%rax, -64(%rbp)
	jmp	LBB182_13
LBB182_10:
	.loc	6 0 29 is_stmt 0
	movq	-88(%rbp), %rax
	.loc	6 246 37 is_stmt 1
	movq	%rax, -8(%rbp)
Ltmp544:
	.loc	6 247 32
	movabsq	$-9223372036854775808, %rcx
	cmpq	%rcx, %rax
	je	LBB182_12
	.loc	6 0 32 is_stmt 0
	movq	-88(%rbp), %rax
	.loc	6 249 39 is_stmt 1
	cmpq	$0, %rax
	jl	LBB182_15
	jmp	LBB182_14
LBB182_12:
	.loc	6 0 39 is_stmt 0
	movq	-72(%rbp), %rsi
	movq	-88(%rbp), %rdi
	.loc	6 248 33 is_stmt 1
	callq	__ZN2az15saturating_cast17hfd2bb97df75dfd7aE
	movq	%rax, -64(%rbp)
Ltmp545:
LBB182_13:
	.loc	6 259 14
	movq	-64(%rbp), %rax
	addq	$96, %rsp
	popq	%rbp
	retq
LBB182_14:
	.loc	6 0 14 is_stmt 0
	movq	-88(%rbp), %rax
Ltmp546:
	.loc	6 252 49 is_stmt 1
	movabsq	$-9223372036854775808, %rcx
	cmpq	%rcx, %rax
	sete	%al
	testb	$1, %al
	jne	LBB182_17
	jmp	LBB182_16
LBB182_15:
	.loc	6 250 33
	movq	-32(%rbp), %rax
	movq	%rax, -64(%rbp)
	.loc	6 249 36
	jmp	LBB182_13
LBB182_16:
	.loc	6 0 36 is_stmt 0
	movq	-72(%rbp), %rsi
	movq	-88(%rbp), %rax
	.loc	6 252 49 is_stmt 1
	xorl	%ecx, %ecx
	movl	%ecx, %edi
	subq	%rax, %rdi
	.loc	6 252 33 is_stmt 0
	callq	__ZN2az15saturating_cast17hfd2bb97df75dfd7aE
	movq	%rax, -64(%rbp)
	jmp	LBB182_13
LBB182_17:
	.loc	6 0 33
	movq	-72(%rbp), %rdx
	.loc	6 252 49
	leaq	_str.0(%rip), %rdi
	movl	$31, %esi
	callq	__ZN4core9panicking5panic17hc1bc45270cf64b03E
Ltmp547:
Lfunc_end182:
	.cfi_endproc

	.globl	__ZN2az3int66_$LT$impl$u20$az..OverflowingCast$LT$isize$GT$$u20$for$u20$f32$GT$16overflowing_cast17haca3ab8d99607f22E
	.p2align	4, 0x90
__ZN2az3int66_$LT$impl$u20$az..OverflowingCast$LT$isize$GT$$u20$for$u20$f32$GT$16overflowing_cast17haca3ab8d99607f22E:
Lfunc_begin183:
	.loc	6 272 0 is_stmt 1
	.cfi_startproc
	pushq	%rbp
	.cfi_def_cfa_offset 16
	.cfi_offset %rbp, -16
	movq	%rsp, %rbp
	.cfi_def_cfa_register %rbp
	subq	$176, %rsp
	movq	%rdi, -152(%rbp)
	movss	%xmm0, -76(%rbp)
	leaq	-120(%rbp), %rdi
Ltmp548:
	.loc	6 273 39 prologue_end
	callq	__ZN50_$LT$T$u20$as$u20$core..convert..Into$LT$U$GT$$GT$4into17hc0373b80baab8e63E
Ltmp549:
	.loc	6 274 23
	movzbl	-120(%rbp), %eax
	movq	%rax, -144(%rbp)
	testq	%rax, %rax
	.loc	6 274 17 is_stmt 0
	je	LBB183_2
	jmp	LBB183_15
LBB183_15:
	.loc	6 0 17
	movq	-144(%rbp), %rax
	.loc	6 274 17
	subq	$1, %rax
	je	LBB183_3
	jmp	LBB183_16
LBB183_16:
	jmp	LBB183_4
	.loc	6 274 23
	ud2
LBB183_2:
	.loc	6 0 23
	movq	-152(%rbp), %rdx
	.loc	6 275 39 is_stmt 1
	leaq	l___unnamed_2(%rip), %rdi
	movl	$3, %esi
	callq	__ZN4core9panicking5panic17hc1bc45270cf64b03E
LBB183_3:
	.loc	6 0 39 is_stmt 0
	movq	-152(%rbp), %rdx
	.loc	6 276 44 is_stmt 1
	leaq	L___unnamed_3(%rip), %rdi
	movl	$8, %esi
	callq	__ZN4core9panicking5panic17hc1bc45270cf64b03E
LBB183_4:
	.loc	6 277 44
	movq	-112(%rbp), %rax
	movq	%rax, -168(%rbp)
	movq	%rax, -72(%rbp)
	.loc	6 277 49 is_stmt 0
	movb	-119(%rbp), %al
	movb	%al, -153(%rbp)
	andb	$1, %al
	movb	%al, -57(%rbp)
Ltmp550:
	.loc	6 278 28 is_stmt 1
	testb	$1, -104(%rbp)
	jne	LBB183_6
	.loc	6 0 28 is_stmt 0
	movq	-152(%rbp), %rsi
	movq	-168(%rbp), %rdi
	.loc	6 289 56 is_stmt 1
	callq	__ZN2az16overflowing_cast17h28ec18b2cded4e7fE
	movq	%rax, %rcx
	movb	-153(%rbp), %al
	.loc	6 289 34 is_stmt 0
	movq	%rcx, -32(%rbp)
	.loc	6 289 43
	movb	%dl, %sil
	andb	$1, %sil
	movb	%sil, -17(%rbp)
Ltmp551:
	.loc	6 290 39 is_stmt 1
	orb	%dl, %al
	.loc	6 290 29 is_stmt 0
	movq	%rcx, -136(%rbp)
	andb	$1, %al
	movb	%al, -128(%rbp)
Ltmp552:
	.loc	6 278 25 is_stmt 1
	jmp	LBB183_14
LBB183_6:
	.loc	6 0 25 is_stmt 0
	movq	-168(%rbp), %rax
	.loc	6 279 37 is_stmt 1
	movq	%rax, -56(%rbp)
Ltmp553:
	.loc	6 280 59
	movabsq	$-9223372036854775808, %rcx
	cmpq	%rcx, %rax
	je	LBB183_8
	.loc	6 0 59 is_stmt 0
	movq	-168(%rbp), %rax
	.loc	6 282 39 is_stmt 1
	cmpq	$0, %rax
	jl	LBB183_11
	jmp	LBB183_10
LBB183_8:
	.loc	6 0 39 is_stmt 0
	movq	-152(%rbp), %rsi
	movq	-168(%rbp), %rdi
	.loc	6 281 33 is_stmt 1
	callq	__ZN2az16overflowing_cast17h8130d30010483db2E
	movb	%dl, -88(%rbp)
	movq	%rax, -96(%rbp)
LBB183_9:
	.loc	6 0 33 is_stmt 0
	movb	-153(%rbp), %al
	.loc	6 280 34 is_stmt 1
	movq	-96(%rbp), %rcx
	movq	%rcx, -48(%rbp)
	.loc	6 280 43 is_stmt 0
	movb	-88(%rbp), %dl
	movb	%dl, %sil
	andb	$1, %sil
	movb	%sil, -33(%rbp)
Ltmp554:
	.loc	6 287 39 is_stmt 1
	orb	%dl, %al
	.loc	6 287 29 is_stmt 0
	movq	%rcx, -136(%rbp)
	andb	$1, %al
	movb	%al, -128(%rbp)
Ltmp555:
	.loc	6 278 25 is_stmt 1
	jmp	LBB183_14
LBB183_10:
	.loc	6 0 25 is_stmt 0
	movq	-168(%rbp), %rax
Ltmp556:
	.loc	6 285 50 is_stmt 1
	movabsq	$-9223372036854775808, %rcx
	cmpq	%rcx, %rax
	sete	%al
	testb	$1, %al
	jne	LBB183_13
	jmp	LBB183_12
LBB183_11:
	.loc	6 0 50 is_stmt 0
	movq	-152(%rbp), %rsi
	movq	-168(%rbp), %rdi
	.loc	6 283 34 is_stmt 1
	callq	__ZN2az13wrapping_cast17h87fdaeda92925a71E
	movq	%rax, %rcx
	movq	%rcx, -16(%rbp)
Ltmp557:
	.loc	7 1339 40
	movq	%rcx, -8(%rbp)
Ltmp558:
	.loc	7 1164 13
	xorl	%eax, %eax
	subq	%rcx, %rax
Ltmp559:
	.loc	6 283 33
	movq	%rax, -96(%rbp)
	movb	$1, -88(%rbp)
	.loc	6 282 36
	jmp	LBB183_9
LBB183_12:
	.loc	6 0 36 is_stmt 0
	movq	-152(%rbp), %rsi
	movq	-168(%rbp), %rdi
	.loc	6 285 50 is_stmt 1
	negq	%rdi
	.loc	6 285 33 is_stmt 0
	callq	__ZN2az16overflowing_cast17h8130d30010483db2E
	movb	%dl, -88(%rbp)
	movq	%rax, -96(%rbp)
	jmp	LBB183_9
LBB183_13:
	.loc	6 0 33
	movq	-152(%rbp), %rdx
	.loc	6 285 50
	leaq	_str.0(%rip), %rdi
	movl	$31, %esi
	callq	__ZN4core9panicking5panic17hc1bc45270cf64b03E
Ltmp560:
LBB183_14:
	.loc	6 294 14 is_stmt 1
	movq	-136(%rbp), %rax
	movb	-128(%rbp), %dl
	addq	$176, %rsp
	popq	%rbp
	retq
Ltmp561:
Lfunc_end183:
	.cfi_endproc

	.globl	__ZN2az3int99_$LT$impl$u20$az..CheckedCast$LT$core..num..wrapping..Wrapping$LT$isize$GT$$GT$$u20$for$u20$f32$GT$12checked_cast17h7d9e0aa25b7ca9c2E
	.p2align	4, 0x90
__ZN2az3int99_$LT$impl$u20$az..CheckedCast$LT$core..num..wrapping..Wrapping$LT$isize$GT$$GT$$u20$for$u20$f32$GT$12checked_cast17h7d9e0aa25b7ca9c2E:
Lfunc_begin184:
	.loc	6 316 0
	.cfi_startproc
	pushq	%rbp
	.cfi_def_cfa_offset 16
	.cfi_offset %rbp, -16
	movq	%rsp, %rbp
	.cfi_def_cfa_register %rbp
	subq	$112, %rsp
	movss	%xmm0, -36(%rbp)
	leaq	-80(%rbp), %rdi
Ltmp562:
	.loc	6 317 39 prologue_end
	callq	__ZN50_$LT$T$u20$as$u20$core..convert..Into$LT$U$GT$$GT$4into17hc0373b80baab8e63E
Ltmp563:
	.loc	6 318 23
	movzbl	-80(%rbp), %eax
	subq	$2, %rax
	.loc	6 318 17 is_stmt 0
	jb	LBB184_2
	jmp	LBB184_14
LBB184_14:
	jmp	LBB184_3
	.loc	6 318 23
	ud2
LBB184_2:
	.loc	6 319 61 is_stmt 1
	movq	$0, -96(%rbp)
	jmp	LBB184_13
LBB184_3:
	.loc	6 320 44
	movq	-72(%rbp), %rax
	movq	%rax, -104(%rbp)
	movq	%rax, -32(%rbp)
Ltmp564:
	.loc	6 321 42
	testb	$1, -64(%rbp)
	jne	LBB184_5
	.loc	6 0 42 is_stmt 0
	movq	-104(%rbp), %rdi
	.loc	6 331 29 is_stmt 1
	leaq	l___unnamed_6(%rip), %rsi
	callq	__ZN2az13wrapping_cast17h87fdaeda92925a71E
	movq	%rax, -56(%rbp)
	jmp	LBB184_8
LBB184_5:
	.loc	6 0 29 is_stmt 0
	movq	-104(%rbp), %rax
	.loc	6 322 37 is_stmt 1
	movq	%rax, -24(%rbp)
Ltmp565:
	.loc	6 323 32
	movabsq	$-9223372036854775808, %rcx
	cmpq	%rcx, %rax
	je	LBB184_7
	.loc	6 0 32 is_stmt 0
	movq	-104(%rbp), %rax
	.loc	6 325 39 is_stmt 1
	cmpq	$0, %rax
	jl	LBB184_10
	jmp	LBB184_9
LBB184_7:
	.loc	6 0 39 is_stmt 0
	movq	-104(%rbp), %rdi
	.loc	6 324 33 is_stmt 1
	leaq	l___unnamed_6(%rip), %rsi
	callq	__ZN2az13wrapping_cast17h8a4747334d716d12E
	movq	%rax, -56(%rbp)
Ltmp566:
LBB184_8:
	.loc	6 333 39
	movq	-56(%rbp), %rax
	.loc	6 333 30 is_stmt 0
	movq	%rax, -48(%rbp)
	.loc	6 333 25
	movq	-48(%rbp), %rax
	movq	%rax, -88(%rbp)
	movq	$1, -96(%rbp)
Ltmp567:
	.loc	6 334 21 is_stmt 1
	jmp	LBB184_13
LBB184_9:
	.loc	6 0 21 is_stmt 0
	movq	-104(%rbp), %rax
Ltmp568:
	.loc	6 328 47 is_stmt 1
	movabsq	$-9223372036854775808, %rcx
	cmpq	%rcx, %rax
	sete	%al
	testb	$1, %al
	jne	LBB184_12
	jmp	LBB184_11
LBB184_10:
	.loc	6 0 47 is_stmt 0
	movq	-104(%rbp), %rdi
	.loc	6 326 33 is_stmt 1
	leaq	l___unnamed_6(%rip), %rsi
	callq	__ZN2az13wrapping_cast17h87fdaeda92925a71E
	movq	%rax, %rcx
	movq	%rcx, -16(%rbp)
Ltmp569:
	.loc	7 1339 40
	movq	%rcx, -8(%rbp)
Ltmp570:
	.loc	7 1164 13
	xorl	%eax, %eax
	subq	%rcx, %rax
Ltmp571:
	.loc	6 326 33
	movq	%rax, -56(%rbp)
	jmp	LBB184_8
LBB184_11:
	.loc	6 0 33 is_stmt 0
	movq	-104(%rbp), %rax
	.loc	6 328 47 is_stmt 1
	xorl	%ecx, %ecx
	movl	%ecx, %edi
	subq	%rax, %rdi
	.loc	6 328 33 is_stmt 0
	leaq	l___unnamed_6(%rip), %rsi
	callq	__ZN2az13wrapping_cast17h8a4747334d716d12E
	movq	%rax, -56(%rbp)
	jmp	LBB184_8
LBB184_12:
	.loc	6 328 47
	leaq	_str.0(%rip), %rdi
	leaq	l___unnamed_6(%rip), %rdx
	movl	$31, %esi
	callq	__ZN4core9panicking5panic17hc1bc45270cf64b03E
Ltmp572:
LBB184_13:
	.loc	6 336 14 is_stmt 1
	movq	-96(%rbp), %rax
	movq	-88(%rbp), %rdx
	addq	$112, %rsp
	popq	%rbp
	retq
Ltmp573:
Lfunc_end184:
	.cfi_endproc

	.globl	__ZN2az3int59_$LT$impl$u20$az..CheckedCast$LT$u8$GT$$u20$for$u20$f32$GT$12checked_cast17hb7380fc5c70de37cE
	.p2align	4, 0x90
__ZN2az3int59_$LT$impl$u20$az..CheckedCast$LT$u8$GT$$u20$for$u20$f32$GT$12checked_cast17hb7380fc5c70de37cE:
Lfunc_begin185:
	.loc	6 210 0
	.cfi_startproc
	pushq	%rbp
	.cfi_def_cfa_offset 16
	.cfi_offset %rbp, -16
	movq	%rsp, %rbp
	.cfi_def_cfa_register %rbp
	subq	$48, %rsp
	movss	%xmm0, -12(%rbp)
	leaq	-24(%rbp), %rdi
Ltmp574:
	.loc	6 211 39 prologue_end
	callq	__ZN50_$LT$T$u20$as$u20$core..convert..Into$LT$U$GT$$GT$4into17h0ed07b85e979c5f2E
Ltmp575:
	.loc	6 212 23
	movzbl	-24(%rbp), %eax
	subq	$2, %rax
	.loc	6 212 17 is_stmt 0
	jb	LBB185_2
	jmp	LBB185_14
LBB185_14:
	jmp	LBB185_3
	.loc	6 212 23
	ud2
LBB185_2:
	.loc	6 213 95 is_stmt 1
	movb	$0, -32(%rbp)
	jmp	LBB185_9
LBB185_3:
	.loc	6 212 17
	testb	$1, -23(%rbp)
	jne	LBB185_2
	.loc	6 214 44
	movl	-20(%rbp), %eax
	movl	%eax, -36(%rbp)
	movl	%eax, -8(%rbp)
Ltmp576:
	.loc	6 215 28
	testb	$1, -16(%rbp)
	jne	LBB185_6
	.loc	6 0 28 is_stmt 0
	movl	-36(%rbp), %edi
	.loc	6 225 29 is_stmt 1
	leaq	l___unnamed_7(%rip), %rsi
	callq	__ZN2az12checked_cast17h2dfdb037ef236cd8E
	movb	%dl, -31(%rbp)
	movb	%al, -32(%rbp)
	jmp	LBB185_9
LBB185_6:
	.loc	6 0 29 is_stmt 0
	movl	-36(%rbp), %eax
	.loc	6 216 37 is_stmt 1
	movl	%eax, -4(%rbp)
Ltmp577:
	.loc	6 217 32
	cmpl	$-2147483648, %eax
	je	LBB185_8
	.loc	6 0 32 is_stmt 0
	movl	-36(%rbp), %eax
	.loc	6 219 39 is_stmt 1
	cmpl	$0, %eax
	jl	LBB185_11
	jmp	LBB185_10
LBB185_8:
	.loc	6 0 39 is_stmt 0
	movl	-36(%rbp), %edi
	.loc	6 218 33 is_stmt 1
	leaq	l___unnamed_7(%rip), %rsi
	callq	__ZN2az12checked_cast17hfc615f7f9de4d5b8E
	movb	%dl, -31(%rbp)
	movb	%al, -32(%rbp)
Ltmp578:
LBB185_9:
	.loc	6 229 14
	movb	-32(%rbp), %al
	movb	-31(%rbp), %dl
	addq	$48, %rsp
	popq	%rbp
	retq
LBB185_10:
	.loc	6 0 14 is_stmt 0
	movl	-36(%rbp), %eax
Ltmp579:
	.loc	6 222 46 is_stmt 1
	cmpl	$-2147483648, %eax
	sete	%al
	testb	$1, %al
	jne	LBB185_13
	jmp	LBB185_12
LBB185_11:
	.loc	6 220 33
	movb	$0, -32(%rbp)
	.loc	6 219 36
	jmp	LBB185_9
LBB185_12:
	.loc	6 0 36 is_stmt 0
	movl	-36(%rbp), %edi
	.loc	6 222 46 is_stmt 1
	negl	%edi
	.loc	6 222 33 is_stmt 0
	leaq	l___unnamed_7(%rip), %rsi
	callq	__ZN2az12checked_cast17hfc615f7f9de4d5b8E
	movb	%dl, -31(%rbp)
	movb	%al, -32(%rbp)
	jmp	LBB185_9
LBB185_13:
	.loc	6 222 46
	leaq	_str.0(%rip), %rdi
	leaq	l___unnamed_7(%rip), %rdx
	movl	$31, %esi
	callq	__ZN4core9panicking5panic17hc1bc45270cf64b03E
Ltmp580:
Lfunc_end185:
	.cfi_endproc

	.globl	__ZN2az3int62_$LT$impl$u20$az..SaturatingCast$LT$u8$GT$$u20$for$u20$f32$GT$15saturating_cast17h57a98210ef0898f6E
	.p2align	4, 0x90
__ZN2az3int62_$LT$impl$u20$az..SaturatingCast$LT$u8$GT$$u20$for$u20$f32$GT$15saturating_cast17h57a98210ef0898f6E:
Lfunc_begin186:
	.loc	6 234 0 is_stmt 1
	.cfi_startproc
	pushq	%rbp
	.cfi_def_cfa_offset 16
	.cfi_offset %rbp, -16
	movq	%rsp, %rbp
	.cfi_def_cfa_register %rbp
	subq	$64, %rsp
	movq	%rdi, -48(%rbp)
	movss	%xmm0, -12(%rbp)
Ltmp581:
	.loc	6 235 39 prologue_end
	leaq	-32(%rbp), %rdi
	callq	__ZN50_$LT$T$u20$as$u20$core..convert..Into$LT$U$GT$$GT$4into17h0ed07b85e979c5f2E
Ltmp582:
	.loc	6 236 36
	testb	$1, -24(%rbp)
	jne	LBB186_2
	.loc	6 239 21
	movb	$-1, -13(%rbp)
	jmp	LBB186_3
LBB186_2:
	.loc	6 237 21
	movb	$0, -13(%rbp)
LBB186_3:
Ltmp583:
	.loc	6 241 23
	movzbl	-32(%rbp), %eax
	movq	%rax, -56(%rbp)
	testq	%rax, %rax
	.loc	6 241 17 is_stmt 0
	je	LBB186_5
	jmp	LBB186_18
LBB186_18:
	.loc	6 0 17
	movq	-56(%rbp), %rax
	.loc	6 241 17
	subq	$1, %rax
	je	LBB186_6
	jmp	LBB186_19
LBB186_19:
	jmp	LBB186_7
	.loc	6 241 23
	ud2
LBB186_5:
	.loc	6 0 23
	movq	-48(%rbp), %rdx
	.loc	6 242 39 is_stmt 1
	leaq	l___unnamed_2(%rip), %rdi
	movl	$3, %esi
	callq	__ZN4core9panicking5panic17hc1bc45270cf64b03E
LBB186_6:
	.loc	6 243 78
	movb	-13(%rbp), %al
	movb	%al, -33(%rbp)
	jmp	LBB186_13
LBB186_7:
	.loc	6 241 17
	testb	$1, -31(%rbp)
	jne	LBB186_6
	.loc	6 244 44
	movl	-28(%rbp), %eax
	movl	%eax, -60(%rbp)
	movl	%eax, -8(%rbp)
Ltmp584:
	.loc	6 245 28
	testb	$1, -24(%rbp)
	jne	LBB186_10
	.loc	6 0 28 is_stmt 0
	movq	-48(%rbp), %rsi
	movl	-60(%rbp), %edi
	.loc	6 255 29 is_stmt 1
	callq	__ZN2az15saturating_cast17h94390e85b09cd6b7E
	movb	%al, -33(%rbp)
	jmp	LBB186_13
LBB186_10:
	.loc	6 0 29 is_stmt 0
	movl	-60(%rbp), %eax
	.loc	6 246 37 is_stmt 1
	movl	%eax, -4(%rbp)
Ltmp585:
	.loc	6 247 32
	cmpl	$-2147483648, %eax
	je	LBB186_12
	.loc	6 0 32 is_stmt 0
	movl	-60(%rbp), %eax
	.loc	6 249 39 is_stmt 1
	cmpl	$0, %eax
	jl	LBB186_15
	jmp	LBB186_14
LBB186_12:
	.loc	6 0 39 is_stmt 0
	movq	-48(%rbp), %rsi
	movl	-60(%rbp), %edi
	.loc	6 248 33 is_stmt 1
	callq	__ZN2az15saturating_cast17h1aad1d62412d8dcdE
	movb	%al, -33(%rbp)
Ltmp586:
LBB186_13:
	.loc	6 259 14
	movb	-33(%rbp), %al
	addq	$64, %rsp
	popq	%rbp
	retq
LBB186_14:
	.loc	6 0 14 is_stmt 0
	movl	-60(%rbp), %eax
Ltmp587:
	.loc	6 252 49 is_stmt 1
	cmpl	$-2147483648, %eax
	sete	%al
	testb	$1, %al
	jne	LBB186_17
	jmp	LBB186_16
LBB186_15:
	.loc	6 250 33
	movb	-13(%rbp), %al
	movb	%al, -33(%rbp)
	.loc	6 249 36
	jmp	LBB186_13
LBB186_16:
	.loc	6 0 36 is_stmt 0
	movq	-48(%rbp), %rsi
	movl	-60(%rbp), %eax
	.loc	6 252 49 is_stmt 1
	xorl	%edi, %edi
	subl	%eax, %edi
	.loc	6 252 33 is_stmt 0
	callq	__ZN2az15saturating_cast17h1aad1d62412d8dcdE
	movb	%al, -33(%rbp)
	jmp	LBB186_13
LBB186_17:
	.loc	6 0 33
	movq	-48(%rbp), %rdx
	.loc	6 252 49
	leaq	_str.0(%rip), %rdi
	movl	$31, %esi
	callq	__ZN4core9panicking5panic17hc1bc45270cf64b03E
Ltmp588:
Lfunc_end186:
	.cfi_endproc

	.globl	__ZN2az3int63_$LT$impl$u20$az..OverflowingCast$LT$u8$GT$$u20$for$u20$f32$GT$16overflowing_cast17hd3cd0c545ccf2e16E
	.p2align	4, 0x90
__ZN2az3int63_$LT$impl$u20$az..OverflowingCast$LT$u8$GT$$u20$for$u20$f32$GT$16overflowing_cast17hd3cd0c545ccf2e16E:
Lfunc_begin187:
	.loc	6 272 0 is_stmt 1
	.cfi_startproc
	pushq	%rbp
	.cfi_def_cfa_offset 16
	.cfi_offset %rbp, -16
	movq	%rsp, %rbp
	.cfi_def_cfa_register %rbp
	subq	$80, %rsp
	movq	%rdi, -72(%rbp)
	movss	%xmm0, -24(%rbp)
	leaq	-48(%rbp), %rdi
Ltmp589:
	.loc	6 273 39 prologue_end
	callq	__ZN50_$LT$T$u20$as$u20$core..convert..Into$LT$U$GT$$GT$4into17h0ed07b85e979c5f2E
Ltmp590:
	.loc	6 274 23
	movzbl	-48(%rbp), %eax
	movq	%rax, -64(%rbp)
	testq	%rax, %rax
	.loc	6 274 17 is_stmt 0
	je	LBB187_2
	jmp	LBB187_15
LBB187_15:
	.loc	6 0 17
	movq	-64(%rbp), %rax
	.loc	6 274 17
	subq	$1, %rax
	je	LBB187_3
	jmp	LBB187_16
LBB187_16:
	jmp	LBB187_4
	.loc	6 274 23
	ud2
LBB187_2:
	.loc	6 0 23
	movq	-72(%rbp), %rdx
	.loc	6 275 39 is_stmt 1
	leaq	l___unnamed_2(%rip), %rdi
	movl	$3, %esi
	callq	__ZN4core9panicking5panic17hc1bc45270cf64b03E
LBB187_3:
	.loc	6 0 39 is_stmt 0
	movq	-72(%rbp), %rdx
	.loc	6 276 44 is_stmt 1
	leaq	L___unnamed_3(%rip), %rdi
	movl	$8, %esi
	callq	__ZN4core9panicking5panic17hc1bc45270cf64b03E
LBB187_4:
	.loc	6 277 44
	movl	-44(%rbp), %eax
	movl	%eax, -80(%rbp)
	movl	%eax, -20(%rbp)
	.loc	6 277 49 is_stmt 0
	movb	-47(%rbp), %al
	movb	%al, -73(%rbp)
	andb	$1, %al
	movb	%al, -13(%rbp)
Ltmp591:
	.loc	6 278 28 is_stmt 1
	testb	$1, -40(%rbp)
	jne	LBB187_6
	.loc	6 0 28 is_stmt 0
	movq	-72(%rbp), %rsi
	movl	-80(%rbp), %edi
	.loc	6 289 56 is_stmt 1
	callq	__ZN2az16overflowing_cast17ha26075904d4d1636E
	movb	%al, %cl
	movb	-73(%rbp), %al
	.loc	6 289 34 is_stmt 0
	movb	%cl, -4(%rbp)
	.loc	6 289 43
	movb	%dl, %sil
	andb	$1, %sil
	movb	%sil, -3(%rbp)
Ltmp592:
	.loc	6 290 39 is_stmt 1
	orb	%dl, %al
	.loc	6 290 29 is_stmt 0
	movb	%cl, -56(%rbp)
	andb	$1, %al
	movb	%al, -55(%rbp)
Ltmp593:
	.loc	6 278 25 is_stmt 1
	jmp	LBB187_14
LBB187_6:
	.loc	6 0 25 is_stmt 0
	movl	-80(%rbp), %eax
	.loc	6 279 37 is_stmt 1
	movl	%eax, -12(%rbp)
Ltmp594:
	.loc	6 280 59
	cmpl	$-2147483648, %eax
	je	LBB187_8
	.loc	6 0 59 is_stmt 0
	movl	-80(%rbp), %eax
	.loc	6 282 39 is_stmt 1
	cmpl	$0, %eax
	jl	LBB187_11
	jmp	LBB187_10
LBB187_8:
	.loc	6 0 39 is_stmt 0
	movq	-72(%rbp), %rsi
	movl	-80(%rbp), %edi
	.loc	6 281 33 is_stmt 1
	callq	__ZN2az16overflowing_cast17h06c6cc8547081f1fE
	movb	%dl, -31(%rbp)
	movb	%al, -32(%rbp)
LBB187_9:
	.loc	6 0 33 is_stmt 0
	movb	-73(%rbp), %al
	.loc	6 280 34 is_stmt 1
	movb	-32(%rbp), %cl
	movb	%cl, -6(%rbp)
	.loc	6 280 43 is_stmt 0
	movb	-31(%rbp), %dl
	movb	%dl, %sil
	andb	$1, %sil
	movb	%sil, -5(%rbp)
Ltmp595:
	.loc	6 287 39 is_stmt 1
	orb	%dl, %al
	.loc	6 287 29 is_stmt 0
	movb	%cl, -56(%rbp)
	andb	$1, %al
	movb	%al, -55(%rbp)
Ltmp596:
	.loc	6 278 25 is_stmt 1
	jmp	LBB187_14
LBB187_10:
	.loc	6 0 25 is_stmt 0
	movl	-80(%rbp), %eax
Ltmp597:
	.loc	6 285 50 is_stmt 1
	cmpl	$-2147483648, %eax
	sete	%al
	testb	$1, %al
	jne	LBB187_13
	jmp	LBB187_12
LBB187_11:
	.loc	6 0 50 is_stmt 0
	movq	-72(%rbp), %rsi
	movl	-80(%rbp), %edi
	.loc	6 283 34 is_stmt 1
	callq	__ZN2az13wrapping_cast17h95ce3db6fd240542E
	movb	%al, %cl
	movb	%cl, -2(%rbp)
Ltmp598:
	.file	8 "/rustc/2c8cc343237b8f7d5a3c3703e3a87f2eb2c54a74/library/core/src/num" "uint_macros.rs"
	.loc	8 1352 40
	movb	%cl, -1(%rbp)
Ltmp599:
	.loc	8 1203 13
	xorl	%eax, %eax
	subb	%cl, %al
Ltmp600:
	.loc	6 283 33
	movb	%al, -32(%rbp)
	movb	$1, -31(%rbp)
	.loc	6 282 36
	jmp	LBB187_9
LBB187_12:
	.loc	6 0 36 is_stmt 0
	movq	-72(%rbp), %rsi
	movl	-80(%rbp), %edi
	.loc	6 285 50 is_stmt 1
	negl	%edi
	.loc	6 285 33 is_stmt 0
	callq	__ZN2az16overflowing_cast17h06c6cc8547081f1fE
	movb	%dl, -31(%rbp)
	movb	%al, -32(%rbp)
	jmp	LBB187_9
LBB187_13:
	.loc	6 0 33
	movq	-72(%rbp), %rdx
	.loc	6 285 50
	leaq	_str.0(%rip), %rdi
	movl	$31, %esi
	callq	__ZN4core9panicking5panic17hc1bc45270cf64b03E
Ltmp601:
LBB187_14:
	.loc	6 294 14 is_stmt 1
	movb	-56(%rbp), %al
	movb	-55(%rbp), %dl
	addq	$80, %rsp
	popq	%rbp
	retq
Ltmp602:
Lfunc_end187:
	.cfi_endproc

	.globl	__ZN2az3int96_$LT$impl$u20$az..CheckedCast$LT$core..num..wrapping..Wrapping$LT$u8$GT$$GT$$u20$for$u20$f32$GT$12checked_cast17ha567116f62aa1f9fE
	.p2align	4, 0x90
__ZN2az3int96_$LT$impl$u20$az..CheckedCast$LT$core..num..wrapping..Wrapping$LT$u8$GT$$GT$$u20$for$u20$f32$GT$12checked_cast17ha567116f62aa1f9fE:
Lfunc_begin188:
	.loc	6 316 0
	.cfi_startproc
	pushq	%rbp
	.cfi_def_cfa_offset 16
	.cfi_offset %rbp, -16
	movq	%rsp, %rbp
	.cfi_def_cfa_register %rbp
	subq	$48, %rsp
	movss	%xmm0, -16(%rbp)
	leaq	-32(%rbp), %rdi
Ltmp603:
	.loc	6 317 39 prologue_end
	callq	__ZN50_$LT$T$u20$as$u20$core..convert..Into$LT$U$GT$$GT$4into17h0ed07b85e979c5f2E
Ltmp604:
	.loc	6 318 23
	movzbl	-32(%rbp), %eax
	subq	$2, %rax
	.loc	6 318 17 is_stmt 0
	jb	LBB188_2
	jmp	LBB188_14
LBB188_14:
	jmp	LBB188_3
	.loc	6 318 23
	ud2
LBB188_2:
	.loc	6 319 61 is_stmt 1
	movb	$0, -40(%rbp)
	jmp	LBB188_13
LBB188_3:
	.loc	6 320 44
	movl	-28(%rbp), %eax
	movl	%eax, -44(%rbp)
	movl	%eax, -12(%rbp)
Ltmp605:
	.loc	6 321 42
	testb	$1, -24(%rbp)
	jne	LBB188_5
	.loc	6 0 42 is_stmt 0
	movl	-44(%rbp), %edi
	.loc	6 331 29 is_stmt 1
	leaq	l___unnamed_7(%rip), %rsi
	callq	__ZN2az13wrapping_cast17h95ce3db6fd240542E
	movb	%al, -18(%rbp)
	jmp	LBB188_8
LBB188_5:
	.loc	6 0 29 is_stmt 0
	movl	-44(%rbp), %eax
	.loc	6 322 37 is_stmt 1
	movl	%eax, -8(%rbp)
Ltmp606:
	.loc	6 323 32
	cmpl	$-2147483648, %eax
	je	LBB188_7
	.loc	6 0 32 is_stmt 0
	movl	-44(%rbp), %eax
	.loc	6 325 39 is_stmt 1
	cmpl	$0, %eax
	jl	LBB188_10
	jmp	LBB188_9
LBB188_7:
	.loc	6 0 39 is_stmt 0
	movl	-44(%rbp), %edi
	.loc	6 324 33 is_stmt 1
	leaq	l___unnamed_7(%rip), %rsi
	callq	__ZN2az13wrapping_cast17haae97e4dc2219d50E
	movb	%al, -18(%rbp)
Ltmp607:
LBB188_8:
	.loc	6 333 39
	movb	-18(%rbp), %al
	.loc	6 333 30 is_stmt 0
	movb	%al, -17(%rbp)
	.loc	6 333 25
	movb	-17(%rbp), %al
	movb	%al, -39(%rbp)
	movb	$1, -40(%rbp)
Ltmp608:
	.loc	6 334 21 is_stmt 1
	jmp	LBB188_13
LBB188_9:
	.loc	6 0 21 is_stmt 0
	movl	-44(%rbp), %eax
Ltmp609:
	.loc	6 328 47 is_stmt 1
	cmpl	$-2147483648, %eax
	sete	%al
	testb	$1, %al
	jne	LBB188_12
	jmp	LBB188_11
LBB188_10:
	.loc	6 0 47 is_stmt 0
	movl	-44(%rbp), %edi
	.loc	6 326 33 is_stmt 1
	leaq	l___unnamed_7(%rip), %rsi
	callq	__ZN2az13wrapping_cast17h95ce3db6fd240542E
	movb	%al, %cl
	movb	%cl, -2(%rbp)
Ltmp610:
	.loc	8 1352 40
	movb	%cl, -1(%rbp)
Ltmp611:
	.loc	8 1203 13
	xorl	%eax, %eax
	subb	%cl, %al
Ltmp612:
	.loc	6 326 33
	movb	%al, -18(%rbp)
	jmp	LBB188_8
LBB188_11:
	.loc	6 0 33 is_stmt 0
	movl	-44(%rbp), %eax
	.loc	6 328 47 is_stmt 1
	xorl	%edi, %edi
	subl	%eax, %edi
	.loc	6 328 33 is_stmt 0
	leaq	l___unnamed_7(%rip), %rsi
	callq	__ZN2az13wrapping_cast17haae97e4dc2219d50E
	movb	%al, -18(%rbp)
	jmp	LBB188_8
LBB188_12:
	.loc	6 328 47
	leaq	_str.0(%rip), %rdi
	leaq	l___unnamed_7(%rip), %rdx
	movl	$31, %esi
	callq	__ZN4core9panicking5panic17hc1bc45270cf64b03E
Ltmp613:
LBB188_13:
	.loc	6 336 14 is_stmt 1
	movb	-40(%rbp), %al
	movb	-39(%rbp), %dl
	addq	$48, %rsp
	popq	%rbp
	retq
Ltmp614:
Lfunc_end188:
	.cfi_endproc

	.globl	__ZN2az3int60_$LT$impl$u20$az..CheckedCast$LT$u16$GT$$u20$for$u20$f32$GT$12checked_cast17hb61034059fcdcb64E
	.p2align	4, 0x90
__ZN2az3int60_$LT$impl$u20$az..CheckedCast$LT$u16$GT$$u20$for$u20$f32$GT$12checked_cast17hb61034059fcdcb64E:
Lfunc_begin189:
	.loc	6 210 0
	.cfi_startproc
	pushq	%rbp
	.cfi_def_cfa_offset 16
	.cfi_offset %rbp, -16
	movq	%rsp, %rbp
	.cfi_def_cfa_register %rbp
	subq	$48, %rsp
	movss	%xmm0, -12(%rbp)
	leaq	-24(%rbp), %rdi
Ltmp615:
	.loc	6 211 39 prologue_end
	callq	__ZN50_$LT$T$u20$as$u20$core..convert..Into$LT$U$GT$$GT$4into17h0ed07b85e979c5f2E
Ltmp616:
	.loc	6 212 23
	movzbl	-24(%rbp), %eax
	subq	$2, %rax
	.loc	6 212 17 is_stmt 0
	jb	LBB189_2
	jmp	LBB189_14
LBB189_14:
	jmp	LBB189_3
	.loc	6 212 23
	ud2
LBB189_2:
	.loc	6 213 95 is_stmt 1
	movw	$0, -32(%rbp)
	jmp	LBB189_9
LBB189_3:
	.loc	6 212 17
	testb	$1, -23(%rbp)
	jne	LBB189_2
	.loc	6 214 44
	movl	-20(%rbp), %eax
	movl	%eax, -36(%rbp)
	movl	%eax, -8(%rbp)
Ltmp617:
	.loc	6 215 28
	testb	$1, -16(%rbp)
	jne	LBB189_6
	.loc	6 0 28 is_stmt 0
	movl	-36(%rbp), %edi
	.loc	6 225 29 is_stmt 1
	leaq	l___unnamed_7(%rip), %rsi
	callq	__ZN2az12checked_cast17h168b4da23ec909a0E
	movw	%dx, -30(%rbp)
	movw	%ax, -32(%rbp)
	jmp	LBB189_9
LBB189_6:
	.loc	6 0 29 is_stmt 0
	movl	-36(%rbp), %eax
	.loc	6 216 37 is_stmt 1
	movl	%eax, -4(%rbp)
Ltmp618:
	.loc	6 217 32
	cmpl	$-2147483648, %eax
	je	LBB189_8
	.loc	6 0 32 is_stmt 0
	movl	-36(%rbp), %eax
	.loc	6 219 39 is_stmt 1
	cmpl	$0, %eax
	jl	LBB189_11
	jmp	LBB189_10
LBB189_8:
	.loc	6 0 39 is_stmt 0
	movl	-36(%rbp), %edi
	.loc	6 218 33 is_stmt 1
	leaq	l___unnamed_7(%rip), %rsi
	callq	__ZN2az12checked_cast17h75df53a922250d83E
	movw	%dx, -30(%rbp)
	movw	%ax, -32(%rbp)
Ltmp619:
LBB189_9:
	.loc	6 229 14
	movw	-32(%rbp), %ax
	movw	-30(%rbp), %dx
	addq	$48, %rsp
	popq	%rbp
	retq
LBB189_10:
	.loc	6 0 14 is_stmt 0
	movl	-36(%rbp), %eax
Ltmp620:
	.loc	6 222 46 is_stmt 1
	cmpl	$-2147483648, %eax
	sete	%al
	testb	$1, %al
	jne	LBB189_13
	jmp	LBB189_12
LBB189_11:
	.loc	6 220 33
	movw	$0, -32(%rbp)
	.loc	6 219 36
	jmp	LBB189_9
LBB189_12:
	.loc	6 0 36 is_stmt 0
	movl	-36(%rbp), %edi
	.loc	6 222 46 is_stmt 1
	negl	%edi
	.loc	6 222 33 is_stmt 0
	leaq	l___unnamed_7(%rip), %rsi
	callq	__ZN2az12checked_cast17h75df53a922250d83E
	movw	%dx, -30(%rbp)
	movw	%ax, -32(%rbp)
	jmp	LBB189_9
LBB189_13:
	.loc	6 222 46
	leaq	_str.0(%rip), %rdi
	leaq	l___unnamed_7(%rip), %rdx
	movl	$31, %esi
	callq	__ZN4core9panicking5panic17hc1bc45270cf64b03E
Ltmp621:
Lfunc_end189:
	.cfi_endproc

	.globl	__ZN2az3int63_$LT$impl$u20$az..SaturatingCast$LT$u16$GT$$u20$for$u20$f32$GT$15saturating_cast17h46e426aa1008287fE
	.p2align	4, 0x90
__ZN2az3int63_$LT$impl$u20$az..SaturatingCast$LT$u16$GT$$u20$for$u20$f32$GT$15saturating_cast17h46e426aa1008287fE:
Lfunc_begin190:
	.loc	6 234 0 is_stmt 1
	.cfi_startproc
	pushq	%rbp
	.cfi_def_cfa_offset 16
	.cfi_offset %rbp, -16
	movq	%rsp, %rbp
	.cfi_def_cfa_register %rbp
	subq	$64, %rsp
	movq	%rdi, -48(%rbp)
	movss	%xmm0, -12(%rbp)
Ltmp622:
	.loc	6 235 39 prologue_end
	leaq	-32(%rbp), %rdi
	callq	__ZN50_$LT$T$u20$as$u20$core..convert..Into$LT$U$GT$$GT$4into17h0ed07b85e979c5f2E
Ltmp623:
	.loc	6 236 36
	testb	$1, -24(%rbp)
	jne	LBB190_2
	.loc	6 239 21
	movw	$-1, -14(%rbp)
	jmp	LBB190_3
LBB190_2:
	.loc	6 237 21
	movw	$0, -14(%rbp)
LBB190_3:
Ltmp624:
	.loc	6 241 23
	movzbl	-32(%rbp), %eax
	movq	%rax, -56(%rbp)
	testq	%rax, %rax
	.loc	6 241 17 is_stmt 0
	je	LBB190_5
	jmp	LBB190_18
LBB190_18:
	.loc	6 0 17
	movq	-56(%rbp), %rax
	.loc	6 241 17
	subq	$1, %rax
	je	LBB190_6
	jmp	LBB190_19
LBB190_19:
	jmp	LBB190_7
	.loc	6 241 23
	ud2
LBB190_5:
	.loc	6 0 23
	movq	-48(%rbp), %rdx
	.loc	6 242 39 is_stmt 1
	leaq	l___unnamed_2(%rip), %rdi
	movl	$3, %esi
	callq	__ZN4core9panicking5panic17hc1bc45270cf64b03E
LBB190_6:
	.loc	6 243 78
	movw	-14(%rbp), %ax
	movw	%ax, -34(%rbp)
	jmp	LBB190_13
LBB190_7:
	.loc	6 241 17
	testb	$1, -31(%rbp)
	jne	LBB190_6
	.loc	6 244 44
	movl	-28(%rbp), %eax
	movl	%eax, -60(%rbp)
	movl	%eax, -8(%rbp)
Ltmp625:
	.loc	6 245 28
	testb	$1, -24(%rbp)
	jne	LBB190_10
	.loc	6 0 28 is_stmt 0
	movq	-48(%rbp), %rsi
	movl	-60(%rbp), %edi
	.loc	6 255 29 is_stmt 1
	callq	__ZN2az15saturating_cast17hbe758836f384fbe4E
	movw	%ax, -34(%rbp)
	jmp	LBB190_13
LBB190_10:
	.loc	6 0 29 is_stmt 0
	movl	-60(%rbp), %eax
	.loc	6 246 37 is_stmt 1
	movl	%eax, -4(%rbp)
Ltmp626:
	.loc	6 247 32
	cmpl	$-2147483648, %eax
	je	LBB190_12
	.loc	6 0 32 is_stmt 0
	movl	-60(%rbp), %eax
	.loc	6 249 39 is_stmt 1
	cmpl	$0, %eax
	jl	LBB190_15
	jmp	LBB190_14
LBB190_12:
	.loc	6 0 39 is_stmt 0
	movq	-48(%rbp), %rsi
	movl	-60(%rbp), %edi
	.loc	6 248 33 is_stmt 1
	callq	__ZN2az15saturating_cast17h589498f0757a507dE
	movw	%ax, -34(%rbp)
Ltmp627:
LBB190_13:
	.loc	6 259 14
	movw	-34(%rbp), %ax
	addq	$64, %rsp
	popq	%rbp
	retq
LBB190_14:
	.loc	6 0 14 is_stmt 0
	movl	-60(%rbp), %eax
Ltmp628:
	.loc	6 252 49 is_stmt 1
	cmpl	$-2147483648, %eax
	sete	%al
	testb	$1, %al
	jne	LBB190_17
	jmp	LBB190_16
LBB190_15:
	.loc	6 250 33
	movw	-14(%rbp), %ax
	movw	%ax, -34(%rbp)
	.loc	6 249 36
	jmp	LBB190_13
LBB190_16:
	.loc	6 0 36 is_stmt 0
	movq	-48(%rbp), %rsi
	movl	-60(%rbp), %eax
	.loc	6 252 49 is_stmt 1
	xorl	%edi, %edi
	subl	%eax, %edi
	.loc	6 252 33 is_stmt 0
	callq	__ZN2az15saturating_cast17h589498f0757a507dE
	movw	%ax, -34(%rbp)
	jmp	LBB190_13
LBB190_17:
	.loc	6 0 33
	movq	-48(%rbp), %rdx
	.loc	6 252 49
	leaq	_str.0(%rip), %rdi
	movl	$31, %esi
	callq	__ZN4core9panicking5panic17hc1bc45270cf64b03E
Ltmp629:
Lfunc_end190:
	.cfi_endproc

	.globl	__ZN2az3int64_$LT$impl$u20$az..OverflowingCast$LT$u16$GT$$u20$for$u20$f32$GT$16overflowing_cast17h3c865728e25c1122E
	.p2align	4, 0x90
__ZN2az3int64_$LT$impl$u20$az..OverflowingCast$LT$u16$GT$$u20$for$u20$f32$GT$16overflowing_cast17h3c865728e25c1122E:
Lfunc_begin191:
	.loc	6 272 0 is_stmt 1
	.cfi_startproc
	pushq	%rbp
	.cfi_def_cfa_offset 16
	.cfi_offset %rbp, -16
	movq	%rsp, %rbp
	.cfi_def_cfa_register %rbp
	subq	$80, %rsp
	movq	%rdi, -72(%rbp)
	movss	%xmm0, -28(%rbp)
	leaq	-48(%rbp), %rdi
Ltmp630:
	.loc	6 273 39 prologue_end
	callq	__ZN50_$LT$T$u20$as$u20$core..convert..Into$LT$U$GT$$GT$4into17h0ed07b85e979c5f2E
Ltmp631:
	.loc	6 274 23
	movzbl	-48(%rbp), %eax
	movq	%rax, -64(%rbp)
	testq	%rax, %rax
	.loc	6 274 17 is_stmt 0
	je	LBB191_2
	jmp	LBB191_15
LBB191_15:
	.loc	6 0 17
	movq	-64(%rbp), %rax
	.loc	6 274 17
	subq	$1, %rax
	je	LBB191_3
	jmp	LBB191_16
LBB191_16:
	jmp	LBB191_4
	.loc	6 274 23
	ud2
LBB191_2:
	.loc	6 0 23
	movq	-72(%rbp), %rdx
	.loc	6 275 39 is_stmt 1
	leaq	l___unnamed_2(%rip), %rdi
	movl	$3, %esi
	callq	__ZN4core9panicking5panic17hc1bc45270cf64b03E
LBB191_3:
	.loc	6 0 39 is_stmt 0
	movq	-72(%rbp), %rdx
	.loc	6 276 44 is_stmt 1
	leaq	L___unnamed_3(%rip), %rdi
	movl	$8, %esi
	callq	__ZN4core9panicking5panic17hc1bc45270cf64b03E
LBB191_4:
	.loc	6 277 44
	movl	-44(%rbp), %eax
	movl	%eax, -80(%rbp)
	movl	%eax, -24(%rbp)
	.loc	6 277 49 is_stmt 0
	movb	-47(%rbp), %al
	movb	%al, -73(%rbp)
	andb	$1, %al
	movb	%al, -17(%rbp)
Ltmp632:
	.loc	6 278 28 is_stmt 1
	testb	$1, -40(%rbp)
	jne	LBB191_6
	.loc	6 0 28 is_stmt 0
	movq	-72(%rbp), %rsi
	movl	-80(%rbp), %edi
	.loc	6 289 56 is_stmt 1
	callq	__ZN2az16overflowing_cast17h2594f7ace9774bf4E
	movw	%ax, %cx
	movb	-73(%rbp), %al
	.loc	6 289 34 is_stmt 0
	movw	%cx, -8(%rbp)
	.loc	6 289 43
	movb	%dl, %sil
	andb	$1, %sil
	movb	%sil, -5(%rbp)
Ltmp633:
	.loc	6 290 39 is_stmt 1
	orb	%dl, %al
	.loc	6 290 29 is_stmt 0
	movw	%cx, -56(%rbp)
	andb	$1, %al
	movb	%al, -54(%rbp)
Ltmp634:
	.loc	6 278 25 is_stmt 1
	jmp	LBB191_14
LBB191_6:
	.loc	6 0 25 is_stmt 0
	movl	-80(%rbp), %eax
	.loc	6 279 37 is_stmt 1
	movl	%eax, -16(%rbp)
Ltmp635:
	.loc	6 280 59
	cmpl	$-2147483648, %eax
	je	LBB191_8
	.loc	6 0 59 is_stmt 0
	movl	-80(%rbp), %eax
	.loc	6 282 39 is_stmt 1
	cmpl	$0, %eax
	jl	LBB191_11
	jmp	LBB191_10
LBB191_8:
	.loc	6 0 39 is_stmt 0
	movq	-72(%rbp), %rsi
	movl	-80(%rbp), %edi
	.loc	6 281 33 is_stmt 1
	callq	__ZN2az16overflowing_cast17h92729a2985684397E
	movb	%dl, -30(%rbp)
	movw	%ax, -32(%rbp)
LBB191_9:
	.loc	6 0 33 is_stmt 0
	movb	-73(%rbp), %al
	.loc	6 280 34 is_stmt 1
	movw	-32(%rbp), %cx
	movw	%cx, -12(%rbp)
	.loc	6 280 43 is_stmt 0
	movb	-30(%rbp), %dl
	movb	%dl, %sil
	andb	$1, %sil
	movb	%sil, -9(%rbp)
Ltmp636:
	.loc	6 287 39 is_stmt 1
	orb	%dl, %al
	.loc	6 287 29 is_stmt 0
	movw	%cx, -56(%rbp)
	andb	$1, %al
	movb	%al, -54(%rbp)
Ltmp637:
	.loc	6 278 25 is_stmt 1
	jmp	LBB191_14
LBB191_10:
	.loc	6 0 25 is_stmt 0
	movl	-80(%rbp), %eax
Ltmp638:
	.loc	6 285 50 is_stmt 1
	cmpl	$-2147483648, %eax
	sete	%al
	testb	$1, %al
	jne	LBB191_13
	jmp	LBB191_12
LBB191_11:
	.loc	6 0 50 is_stmt 0
	movq	-72(%rbp), %rsi
	movl	-80(%rbp), %edi
	.loc	6 283 34 is_stmt 1
	callq	__ZN2az13wrapping_cast17he257649c4274617bE
	movw	%ax, %cx
	movw	%cx, -4(%rbp)
Ltmp639:
	.loc	8 1352 40
	movw	%cx, -2(%rbp)
Ltmp640:
	.loc	8 1203 13
	xorl	%eax, %eax
	subw	%cx, %ax
Ltmp641:
	.loc	6 283 33
	movw	%ax, -32(%rbp)
	movb	$1, -30(%rbp)
	.loc	6 282 36
	jmp	LBB191_9
LBB191_12:
	.loc	6 0 36 is_stmt 0
	movq	-72(%rbp), %rsi
	movl	-80(%rbp), %edi
	.loc	6 285 50 is_stmt 1
	negl	%edi
	.loc	6 285 33 is_stmt 0
	callq	__ZN2az16overflowing_cast17h92729a2985684397E
	movb	%dl, -30(%rbp)
	movw	%ax, -32(%rbp)
	jmp	LBB191_9
LBB191_13:
	.loc	6 0 33
	movq	-72(%rbp), %rdx
	.loc	6 285 50
	leaq	_str.0(%rip), %rdi
	movl	$31, %esi
	callq	__ZN4core9panicking5panic17hc1bc45270cf64b03E
Ltmp642:
LBB191_14:
	.loc	6 294 14 is_stmt 1
	movw	-56(%rbp), %ax
	movb	-54(%rbp), %dl
	addq	$80, %rsp
	popq	%rbp
	retq
Ltmp643:
Lfunc_end191:
	.cfi_endproc

	.globl	__ZN2az3int97_$LT$impl$u20$az..CheckedCast$LT$core..num..wrapping..Wrapping$LT$u16$GT$$GT$$u20$for$u20$f32$GT$12checked_cast17hb3e7dbe5342b1134E
	.p2align	4, 0x90
__ZN2az3int97_$LT$impl$u20$az..CheckedCast$LT$core..num..wrapping..Wrapping$LT$u16$GT$$GT$$u20$for$u20$f32$GT$12checked_cast17hb3e7dbe5342b1134E:
Lfunc_begin192:
	.loc	6 316 0
	.cfi_startproc
	pushq	%rbp
	.cfi_def_cfa_offset 16
	.cfi_offset %rbp, -16
	movq	%rsp, %rbp
	.cfi_def_cfa_register %rbp
	subq	$48, %rsp
	movss	%xmm0, -16(%rbp)
	leaq	-32(%rbp), %rdi
Ltmp644:
	.loc	6 317 39 prologue_end
	callq	__ZN50_$LT$T$u20$as$u20$core..convert..Into$LT$U$GT$$GT$4into17h0ed07b85e979c5f2E
Ltmp645:
	.loc	6 318 23
	movzbl	-32(%rbp), %eax
	subq	$2, %rax
	.loc	6 318 17 is_stmt 0
	jb	LBB192_2
	jmp	LBB192_14
LBB192_14:
	jmp	LBB192_3
	.loc	6 318 23
	ud2
LBB192_2:
	.loc	6 319 61 is_stmt 1
	movw	$0, -40(%rbp)
	jmp	LBB192_13
LBB192_3:
	.loc	6 320 44
	movl	-28(%rbp), %eax
	movl	%eax, -44(%rbp)
	movl	%eax, -12(%rbp)
Ltmp646:
	.loc	6 321 42
	testb	$1, -24(%rbp)
	jne	LBB192_5
	.loc	6 0 42 is_stmt 0
	movl	-44(%rbp), %edi
	.loc	6 331 29 is_stmt 1
	leaq	l___unnamed_7(%rip), %rsi
	callq	__ZN2az13wrapping_cast17he257649c4274617bE
	movw	%ax, -20(%rbp)
	jmp	LBB192_8
LBB192_5:
	.loc	6 0 29 is_stmt 0
	movl	-44(%rbp), %eax
	.loc	6 322 37 is_stmt 1
	movl	%eax, -8(%rbp)
Ltmp647:
	.loc	6 323 32
	cmpl	$-2147483648, %eax
	je	LBB192_7
	.loc	6 0 32 is_stmt 0
	movl	-44(%rbp), %eax
	.loc	6 325 39 is_stmt 1
	cmpl	$0, %eax
	jl	LBB192_10
	jmp	LBB192_9
LBB192_7:
	.loc	6 0 39 is_stmt 0
	movl	-44(%rbp), %edi
	.loc	6 324 33 is_stmt 1
	leaq	l___unnamed_7(%rip), %rsi
	callq	__ZN2az13wrapping_cast17h47d02b712e6c9d8eE
	movw	%ax, -20(%rbp)
Ltmp648:
LBB192_8:
	.loc	6 333 39
	movw	-20(%rbp), %ax
	.loc	6 333 30 is_stmt 0
	movw	%ax, -18(%rbp)
	.loc	6 333 25
	movw	-18(%rbp), %ax
	movw	%ax, -38(%rbp)
	movw	$1, -40(%rbp)
Ltmp649:
	.loc	6 334 21 is_stmt 1
	jmp	LBB192_13
LBB192_9:
	.loc	6 0 21 is_stmt 0
	movl	-44(%rbp), %eax
Ltmp650:
	.loc	6 328 47 is_stmt 1
	cmpl	$-2147483648, %eax
	sete	%al
	testb	$1, %al
	jne	LBB192_12
	jmp	LBB192_11
LBB192_10:
	.loc	6 0 47 is_stmt 0
	movl	-44(%rbp), %edi
	.loc	6 326 33 is_stmt 1
	leaq	l___unnamed_7(%rip), %rsi
	callq	__ZN2az13wrapping_cast17he257649c4274617bE
	movw	%ax, %cx
	movw	%cx, -4(%rbp)
Ltmp651:
	.loc	8 1352 40
	movw	%cx, -2(%rbp)
Ltmp652:
	.loc	8 1203 13
	xorl	%eax, %eax
	subw	%cx, %ax
Ltmp653:
	.loc	6 326 33
	movw	%ax, -20(%rbp)
	jmp	LBB192_8
LBB192_11:
	.loc	6 0 33 is_stmt 0
	movl	-44(%rbp), %eax
	.loc	6 328 47 is_stmt 1
	xorl	%edi, %edi
	subl	%eax, %edi
	.loc	6 328 33 is_stmt 0
	leaq	l___unnamed_7(%rip), %rsi
	callq	__ZN2az13wrapping_cast17h47d02b712e6c9d8eE
	movw	%ax, -20(%rbp)
	jmp	LBB192_8
LBB192_12:
	.loc	6 328 47
	leaq	_str.0(%rip), %rdi
	leaq	l___unnamed_7(%rip), %rdx
	movl	$31, %esi
	callq	__ZN4core9panicking5panic17hc1bc45270cf64b03E
Ltmp654:
LBB192_13:
	.loc	6 336 14 is_stmt 1
	movw	-40(%rbp), %ax
	movw	-38(%rbp), %dx
	addq	$48, %rsp
	popq	%rbp
	retq
Ltmp655:
Lfunc_end192:
	.cfi_endproc

	.globl	__ZN2az3int60_$LT$impl$u20$az..CheckedCast$LT$u32$GT$$u20$for$u20$f32$GT$12checked_cast17hf59b721925082514E
	.p2align	4, 0x90
__ZN2az3int60_$LT$impl$u20$az..CheckedCast$LT$u32$GT$$u20$for$u20$f32$GT$12checked_cast17hf59b721925082514E:
Lfunc_begin193:
	.loc	6 210 0
	.cfi_startproc
	pushq	%rbp
	.cfi_def_cfa_offset 16
	.cfi_offset %rbp, -16
	movq	%rsp, %rbp
	.cfi_def_cfa_register %rbp
	subq	$48, %rsp
	movss	%xmm0, -12(%rbp)
	leaq	-24(%rbp), %rdi
Ltmp656:
	.loc	6 211 39 prologue_end
	callq	__ZN50_$LT$T$u20$as$u20$core..convert..Into$LT$U$GT$$GT$4into17h0ed07b85e979c5f2E
Ltmp657:
	.loc	6 212 23
	movzbl	-24(%rbp), %eax
	subq	$2, %rax
	.loc	6 212 17 is_stmt 0
	jb	LBB193_2
	jmp	LBB193_14
LBB193_14:
	jmp	LBB193_3
	.loc	6 212 23
	ud2
LBB193_2:
	.loc	6 213 95 is_stmt 1
	movl	$0, -32(%rbp)
	jmp	LBB193_9
LBB193_3:
	.loc	6 212 17
	testb	$1, -23(%rbp)
	jne	LBB193_2
	.loc	6 214 44
	movl	-20(%rbp), %eax
	movl	%eax, -36(%rbp)
	movl	%eax, -8(%rbp)
Ltmp658:
	.loc	6 215 28
	testb	$1, -16(%rbp)
	jne	LBB193_6
	.loc	6 0 28 is_stmt 0
	movl	-36(%rbp), %edi
	.loc	6 225 29 is_stmt 1
	leaq	l___unnamed_7(%rip), %rsi
	callq	__ZN2az12checked_cast17h6e67fcc075d138a9E
	movl	%edx, -28(%rbp)
	movl	%eax, -32(%rbp)
	jmp	LBB193_9
LBB193_6:
	.loc	6 0 29 is_stmt 0
	movl	-36(%rbp), %eax
	.loc	6 216 37 is_stmt 1
	movl	%eax, -4(%rbp)
Ltmp659:
	.loc	6 217 32
	cmpl	$-2147483648, %eax
	je	LBB193_8
	.loc	6 0 32 is_stmt 0
	movl	-36(%rbp), %eax
	.loc	6 219 39 is_stmt 1
	cmpl	$0, %eax
	jl	LBB193_11
	jmp	LBB193_10
LBB193_8:
	.loc	6 0 39 is_stmt 0
	movl	-36(%rbp), %edi
	.loc	6 218 33 is_stmt 1
	leaq	l___unnamed_7(%rip), %rsi
	callq	__ZN2az12checked_cast17hc83d434345ac714bE
	movl	%edx, -28(%rbp)
	movl	%eax, -32(%rbp)
Ltmp660:
LBB193_9:
	.loc	6 229 14
	movl	-32(%rbp), %eax
	movl	-28(%rbp), %edx
	addq	$48, %rsp
	popq	%rbp
	retq
LBB193_10:
	.loc	6 0 14 is_stmt 0
	movl	-36(%rbp), %eax
Ltmp661:
	.loc	6 222 46 is_stmt 1
	cmpl	$-2147483648, %eax
	sete	%al
	testb	$1, %al
	jne	LBB193_13
	jmp	LBB193_12
LBB193_11:
	.loc	6 220 33
	movl	$0, -32(%rbp)
	.loc	6 219 36
	jmp	LBB193_9
LBB193_12:
	.loc	6 0 36 is_stmt 0
	movl	-36(%rbp), %edi
	.loc	6 222 46 is_stmt 1
	negl	%edi
	.loc	6 222 33 is_stmt 0
	leaq	l___unnamed_7(%rip), %rsi
	callq	__ZN2az12checked_cast17hc83d434345ac714bE
	movl	%edx, -28(%rbp)
	movl	%eax, -32(%rbp)
	jmp	LBB193_9
LBB193_13:
	.loc	6 222 46
	leaq	_str.0(%rip), %rdi
	leaq	l___unnamed_7(%rip), %rdx
	movl	$31, %esi
	callq	__ZN4core9panicking5panic17hc1bc45270cf64b03E
Ltmp662:
Lfunc_end193:
	.cfi_endproc

	.globl	__ZN2az3int63_$LT$impl$u20$az..SaturatingCast$LT$u32$GT$$u20$for$u20$f32$GT$15saturating_cast17h5978560f7ed9aa83E
	.p2align	4, 0x90
__ZN2az3int63_$LT$impl$u20$az..SaturatingCast$LT$u32$GT$$u20$for$u20$f32$GT$15saturating_cast17h5978560f7ed9aa83E:
Lfunc_begin194:
	.loc	6 234 0 is_stmt 1
	.cfi_startproc
	pushq	%rbp
	.cfi_def_cfa_offset 16
	.cfi_offset %rbp, -16
	movq	%rsp, %rbp
	.cfi_def_cfa_register %rbp
	subq	$64, %rsp
	movq	%rdi, -48(%rbp)
	movss	%xmm0, -12(%rbp)
Ltmp663:
	.loc	6 235 39 prologue_end
	leaq	-32(%rbp), %rdi
	callq	__ZN50_$LT$T$u20$as$u20$core..convert..Into$LT$U$GT$$GT$4into17h0ed07b85e979c5f2E
Ltmp664:
	.loc	6 236 36
	testb	$1, -24(%rbp)
	jne	LBB194_2
	.loc	6 239 21
	movl	$-1, -16(%rbp)
	jmp	LBB194_3
LBB194_2:
	.loc	6 237 21
	movl	$0, -16(%rbp)
LBB194_3:
Ltmp665:
	.loc	6 241 23
	movzbl	-32(%rbp), %eax
	movq	%rax, -56(%rbp)
	testq	%rax, %rax
	.loc	6 241 17 is_stmt 0
	je	LBB194_5
	jmp	LBB194_18
LBB194_18:
	.loc	6 0 17
	movq	-56(%rbp), %rax
	.loc	6 241 17
	subq	$1, %rax
	je	LBB194_6
	jmp	LBB194_19
LBB194_19:
	jmp	LBB194_7
	.loc	6 241 23
	ud2
LBB194_5:
	.loc	6 0 23
	movq	-48(%rbp), %rdx
	.loc	6 242 39 is_stmt 1
	leaq	l___unnamed_2(%rip), %rdi
	movl	$3, %esi
	callq	__ZN4core9panicking5panic17hc1bc45270cf64b03E
LBB194_6:
	.loc	6 243 78
	movl	-16(%rbp), %eax
	movl	%eax, -36(%rbp)
	jmp	LBB194_13
LBB194_7:
	.loc	6 241 17
	testb	$1, -31(%rbp)
	jne	LBB194_6
	.loc	6 244 44
	movl	-28(%rbp), %eax
	movl	%eax, -60(%rbp)
	movl	%eax, -8(%rbp)
Ltmp666:
	.loc	6 245 28
	testb	$1, -24(%rbp)
	jne	LBB194_10
	.loc	6 0 28 is_stmt 0
	movq	-48(%rbp), %rsi
	movl	-60(%rbp), %edi
	.loc	6 255 29 is_stmt 1
	callq	__ZN2az15saturating_cast17hbb66106a0ede03e8E
	movl	%eax, -36(%rbp)
	jmp	LBB194_13
LBB194_10:
	.loc	6 0 29 is_stmt 0
	movl	-60(%rbp), %eax
	.loc	6 246 37 is_stmt 1
	movl	%eax, -4(%rbp)
Ltmp667:
	.loc	6 247 32
	cmpl	$-2147483648, %eax
	je	LBB194_12
	.loc	6 0 32 is_stmt 0
	movl	-60(%rbp), %eax
	.loc	6 249 39 is_stmt 1
	cmpl	$0, %eax
	jl	LBB194_15
	jmp	LBB194_14
LBB194_12:
	.loc	6 0 39 is_stmt 0
	movq	-48(%rbp), %rsi
	movl	-60(%rbp), %edi
	.loc	6 248 33 is_stmt 1
	callq	__ZN2az15saturating_cast17hc64f93987e9c5e9bE
	movl	%eax, -36(%rbp)
Ltmp668:
LBB194_13:
	.loc	6 259 14
	movl	-36(%rbp), %eax
	addq	$64, %rsp
	popq	%rbp
	retq
LBB194_14:
	.loc	6 0 14 is_stmt 0
	movl	-60(%rbp), %eax
Ltmp669:
	.loc	6 252 49 is_stmt 1
	cmpl	$-2147483648, %eax
	sete	%al
	testb	$1, %al
	jne	LBB194_17
	jmp	LBB194_16
LBB194_15:
	.loc	6 250 33
	movl	-16(%rbp), %eax
	movl	%eax, -36(%rbp)
	.loc	6 249 36
	jmp	LBB194_13
LBB194_16:
	.loc	6 0 36 is_stmt 0
	movq	-48(%rbp), %rsi
	movl	-60(%rbp), %eax
	.loc	6 252 49 is_stmt 1
	xorl	%edi, %edi
	subl	%eax, %edi
	.loc	6 252 33 is_stmt 0
	callq	__ZN2az15saturating_cast17hc64f93987e9c5e9bE
	movl	%eax, -36(%rbp)
	jmp	LBB194_13
LBB194_17:
	.loc	6 0 33
	movq	-48(%rbp), %rdx
	.loc	6 252 49
	leaq	_str.0(%rip), %rdi
	movl	$31, %esi
	callq	__ZN4core9panicking5panic17hc1bc45270cf64b03E
Ltmp670:
Lfunc_end194:
	.cfi_endproc

	.globl	__ZN2az3int64_$LT$impl$u20$az..OverflowingCast$LT$u32$GT$$u20$for$u20$f32$GT$16overflowing_cast17h942b801bd35d9193E
	.p2align	4, 0x90
__ZN2az3int64_$LT$impl$u20$az..OverflowingCast$LT$u32$GT$$u20$for$u20$f32$GT$16overflowing_cast17h942b801bd35d9193E:
Lfunc_begin195:
	.loc	6 272 0 is_stmt 1
	.cfi_startproc
	pushq	%rbp
	.cfi_def_cfa_offset 16
	.cfi_offset %rbp, -16
	movq	%rsp, %rbp
	.cfi_def_cfa_register %rbp
	subq	$96, %rsp
	movq	%rdi, -88(%rbp)
	movss	%xmm0, -40(%rbp)
	leaq	-64(%rbp), %rdi
Ltmp671:
	.loc	6 273 39 prologue_end
	callq	__ZN50_$LT$T$u20$as$u20$core..convert..Into$LT$U$GT$$GT$4into17h0ed07b85e979c5f2E
Ltmp672:
	.loc	6 274 23
	movzbl	-64(%rbp), %eax
	movq	%rax, -80(%rbp)
	testq	%rax, %rax
	.loc	6 274 17 is_stmt 0
	je	LBB195_2
	jmp	LBB195_15
LBB195_15:
	.loc	6 0 17
	movq	-80(%rbp), %rax
	.loc	6 274 17
	subq	$1, %rax
	je	LBB195_3
	jmp	LBB195_16
LBB195_16:
	jmp	LBB195_4
	.loc	6 274 23
	ud2
LBB195_2:
	.loc	6 0 23
	movq	-88(%rbp), %rdx
	.loc	6 275 39 is_stmt 1
	leaq	l___unnamed_2(%rip), %rdi
	movl	$3, %esi
	callq	__ZN4core9panicking5panic17hc1bc45270cf64b03E
LBB195_3:
	.loc	6 0 39 is_stmt 0
	movq	-88(%rbp), %rdx
	.loc	6 276 44 is_stmt 1
	leaq	L___unnamed_3(%rip), %rdi
	movl	$8, %esi
	callq	__ZN4core9panicking5panic17hc1bc45270cf64b03E
LBB195_4:
	.loc	6 277 44
	movl	-60(%rbp), %eax
	movl	%eax, -96(%rbp)
	movl	%eax, -36(%rbp)
	.loc	6 277 49 is_stmt 0
	movb	-63(%rbp), %al
	movb	%al, -89(%rbp)
	andb	$1, %al
	movb	%al, -29(%rbp)
Ltmp673:
	.loc	6 278 28 is_stmt 1
	testb	$1, -56(%rbp)
	jne	LBB195_6
	.loc	6 0 28 is_stmt 0
	movq	-88(%rbp), %rsi
	movl	-96(%rbp), %edi
	.loc	6 289 56 is_stmt 1
	callq	__ZN2az16overflowing_cast17hcf784f24c97fe69dE
	movl	%eax, %ecx
	movb	-89(%rbp), %al
	.loc	6 289 34 is_stmt 0
	movl	%ecx, -16(%rbp)
	.loc	6 289 43
	movb	%dl, %sil
	andb	$1, %sil
	movb	%sil, -9(%rbp)
Ltmp674:
	.loc	6 290 39 is_stmt 1
	orb	%dl, %al
	.loc	6 290 29 is_stmt 0
	movl	%ecx, -72(%rbp)
	andb	$1, %al
	movb	%al, -68(%rbp)
Ltmp675:
	.loc	6 278 25 is_stmt 1
	jmp	LBB195_14
LBB195_6:
	.loc	6 0 25 is_stmt 0
	movl	-96(%rbp), %eax
	.loc	6 279 37 is_stmt 1
	movl	%eax, -28(%rbp)
Ltmp676:
	.loc	6 280 59
	cmpl	$-2147483648, %eax
	je	LBB195_8
	.loc	6 0 59 is_stmt 0
	movl	-96(%rbp), %eax
	.loc	6 282 39 is_stmt 1
	cmpl	$0, %eax
	jl	LBB195_11
	jmp	LBB195_10
LBB195_8:
	.loc	6 0 39 is_stmt 0
	movq	-88(%rbp), %rsi
	movl	-96(%rbp), %edi
	.loc	6 281 33 is_stmt 1
	callq	__ZN2az16overflowing_cast17h553e41088157498eE
	movb	%dl, -44(%rbp)
	movl	%eax, -48(%rbp)
LBB195_9:
	.loc	6 0 33 is_stmt 0
	movb	-89(%rbp), %al
	.loc	6 280 34 is_stmt 1
	movl	-48(%rbp), %ecx
	movl	%ecx, -24(%rbp)
	.loc	6 280 43 is_stmt 0
	movb	-44(%rbp), %dl
	movb	%dl, %sil
	andb	$1, %sil
	movb	%sil, -17(%rbp)
Ltmp677:
	.loc	6 287 39 is_stmt 1
	orb	%dl, %al
	.loc	6 287 29 is_stmt 0
	movl	%ecx, -72(%rbp)
	andb	$1, %al
	movb	%al, -68(%rbp)
Ltmp678:
	.loc	6 278 25 is_stmt 1
	jmp	LBB195_14
LBB195_10:
	.loc	6 0 25 is_stmt 0
	movl	-96(%rbp), %eax
Ltmp679:
	.loc	6 285 50 is_stmt 1
	cmpl	$-2147483648, %eax
	sete	%al
	testb	$1, %al
	jne	LBB195_13
	jmp	LBB195_12
LBB195_11:
	.loc	6 0 50 is_stmt 0
	movq	-88(%rbp), %rsi
	movl	-96(%rbp), %edi
	.loc	6 283 34 is_stmt 1
	callq	__ZN2az13wrapping_cast17h5b280195db8a15e9E
	movl	%eax, %ecx
	movl	%ecx, -8(%rbp)
Ltmp680:
	.loc	8 1352 40
	movl	%ecx, -4(%rbp)
Ltmp681:
	.loc	8 1203 13
	xorl	%eax, %eax
	subl	%ecx, %eax
Ltmp682:
	.loc	6 283 33
	movl	%eax, -48(%rbp)
	movb	$1, -44(%rbp)
	.loc	6 282 36
	jmp	LBB195_9
LBB195_12:
	.loc	6 0 36 is_stmt 0
	movq	-88(%rbp), %rsi
	movl	-96(%rbp), %edi
	.loc	6 285 50 is_stmt 1
	negl	%edi
	.loc	6 285 33 is_stmt 0
	callq	__ZN2az16overflowing_cast17h553e41088157498eE
	movb	%dl, -44(%rbp)
	movl	%eax, -48(%rbp)
	jmp	LBB195_9
LBB195_13:
	.loc	6 0 33
	movq	-88(%rbp), %rdx
	.loc	6 285 50
	leaq	_str.0(%rip), %rdi
	movl	$31, %esi
	callq	__ZN4core9panicking5panic17hc1bc45270cf64b03E
Ltmp683:
LBB195_14:
	.loc	6 294 14 is_stmt 1
	movl	-72(%rbp), %eax
	movb	-68(%rbp), %dl
	addq	$96, %rsp
	popq	%rbp
	retq
Ltmp684:
Lfunc_end195:
	.cfi_endproc

	.globl	__ZN2az3int97_$LT$impl$u20$az..CheckedCast$LT$core..num..wrapping..Wrapping$LT$u32$GT$$GT$$u20$for$u20$f32$GT$12checked_cast17h235ab6068bd0da03E
	.p2align	4, 0x90
__ZN2az3int97_$LT$impl$u20$az..CheckedCast$LT$core..num..wrapping..Wrapping$LT$u32$GT$$GT$$u20$for$u20$f32$GT$12checked_cast17h235ab6068bd0da03E:
Lfunc_begin196:
	.loc	6 316 0
	.cfi_startproc
	pushq	%rbp
	.cfi_def_cfa_offset 16
	.cfi_offset %rbp, -16
	movq	%rsp, %rbp
	.cfi_def_cfa_register %rbp
	subq	$64, %rsp
	movss	%xmm0, -20(%rbp)
	leaq	-40(%rbp), %rdi
Ltmp685:
	.loc	6 317 39 prologue_end
	callq	__ZN50_$LT$T$u20$as$u20$core..convert..Into$LT$U$GT$$GT$4into17h0ed07b85e979c5f2E
Ltmp686:
	.loc	6 318 23
	movzbl	-40(%rbp), %eax
	subq	$2, %rax
	.loc	6 318 17 is_stmt 0
	jb	LBB196_2
	jmp	LBB196_14
LBB196_14:
	jmp	LBB196_3
	.loc	6 318 23
	ud2
LBB196_2:
	.loc	6 319 61 is_stmt 1
	movl	$0, -48(%rbp)
	jmp	LBB196_13
LBB196_3:
	.loc	6 320 44
	movl	-36(%rbp), %eax
	movl	%eax, -52(%rbp)
	movl	%eax, -16(%rbp)
Ltmp687:
	.loc	6 321 42
	testb	$1, -32(%rbp)
	jne	LBB196_5
	.loc	6 0 42 is_stmt 0
	movl	-52(%rbp), %edi
	.loc	6 331 29 is_stmt 1
	leaq	l___unnamed_7(%rip), %rsi
	callq	__ZN2az13wrapping_cast17h5b280195db8a15e9E
	movl	%eax, -28(%rbp)
	jmp	LBB196_8
LBB196_5:
	.loc	6 0 29 is_stmt 0
	movl	-52(%rbp), %eax
	.loc	6 322 37 is_stmt 1
	movl	%eax, -12(%rbp)
Ltmp688:
	.loc	6 323 32
	cmpl	$-2147483648, %eax
	je	LBB196_7
	.loc	6 0 32 is_stmt 0
	movl	-52(%rbp), %eax
	.loc	6 325 39 is_stmt 1
	cmpl	$0, %eax
	jl	LBB196_10
	jmp	LBB196_9
LBB196_7:
	.loc	6 0 39 is_stmt 0
	movl	-52(%rbp), %edi
	.loc	6 324 33 is_stmt 1
	leaq	l___unnamed_7(%rip), %rsi
	callq	__ZN2az13wrapping_cast17heecfe167f55214a1E
	movl	%eax, -28(%rbp)
Ltmp689:
LBB196_8:
	.loc	6 333 39
	movl	-28(%rbp), %eax
	.loc	6 333 30 is_stmt 0
	movl	%eax, -24(%rbp)
	.loc	6 333 25
	movl	-24(%rbp), %eax
	movl	%eax, -44(%rbp)
	movl	$1, -48(%rbp)
Ltmp690:
	.loc	6 334 21 is_stmt 1
	jmp	LBB196_13
LBB196_9:
	.loc	6 0 21 is_stmt 0
	movl	-52(%rbp), %eax
Ltmp691:
	.loc	6 328 47 is_stmt 1
	cmpl	$-2147483648, %eax
	sete	%al
	testb	$1, %al
	jne	LBB196_12
	jmp	LBB196_11
LBB196_10:
	.loc	6 0 47 is_stmt 0
	movl	-52(%rbp), %edi
	.loc	6 326 33 is_stmt 1
	leaq	l___unnamed_7(%rip), %rsi
	callq	__ZN2az13wrapping_cast17h5b280195db8a15e9E
	movl	%eax, %ecx
	movl	%ecx, -8(%rbp)
Ltmp692:
	.loc	8 1352 40
	movl	%ecx, -4(%rbp)
Ltmp693:
	.loc	8 1203 13
	xorl	%eax, %eax
	subl	%ecx, %eax
Ltmp694:
	.loc	6 326 33
	movl	%eax, -28(%rbp)
	jmp	LBB196_8
LBB196_11:
	.loc	6 0 33 is_stmt 0
	movl	-52(%rbp), %eax
	.loc	6 328 47 is_stmt 1
	xorl	%edi, %edi
	subl	%eax, %edi
	.loc	6 328 33 is_stmt 0
	leaq	l___unnamed_7(%rip), %rsi
	callq	__ZN2az13wrapping_cast17heecfe167f55214a1E
	movl	%eax, -28(%rbp)
	jmp	LBB196_8
LBB196_12:
	.loc	6 328 47
	leaq	_str.0(%rip), %rdi
	leaq	l___unnamed_7(%rip), %rdx
	movl	$31, %esi
	callq	__ZN4core9panicking5panic17hc1bc45270cf64b03E
Ltmp695:
LBB196_13:
	.loc	6 336 14 is_stmt 1
	movl	-48(%rbp), %eax
	movl	-44(%rbp), %edx
	addq	$64, %rsp
	popq	%rbp
	retq
Ltmp696:
Lfunc_end196:
	.cfi_endproc

	.globl	__ZN2az3int60_$LT$impl$u20$az..CheckedCast$LT$u64$GT$$u20$for$u20$f32$GT$12checked_cast17h9dbc61d106563a4fE
	.p2align	4, 0x90
__ZN2az3int60_$LT$impl$u20$az..CheckedCast$LT$u64$GT$$u20$for$u20$f32$GT$12checked_cast17h9dbc61d106563a4fE:
Lfunc_begin197:
	.loc	6 210 0
	.cfi_startproc
	pushq	%rbp
	.cfi_def_cfa_offset 16
	.cfi_offset %rbp, -16
	movq	%rsp, %rbp
	.cfi_def_cfa_register %rbp
	subq	$80, %rsp
	movss	%xmm0, -20(%rbp)
	leaq	-48(%rbp), %rdi
Ltmp697:
	.loc	6 211 39 prologue_end
	callq	__ZN50_$LT$T$u20$as$u20$core..convert..Into$LT$U$GT$$GT$4into17hc0373b80baab8e63E
Ltmp698:
	.loc	6 212 23
	movzbl	-48(%rbp), %eax
	subq	$2, %rax
	.loc	6 212 17 is_stmt 0
	jb	LBB197_2
	jmp	LBB197_14
LBB197_14:
	jmp	LBB197_3
	.loc	6 212 23
	ud2
LBB197_2:
	.loc	6 213 95 is_stmt 1
	movq	$0, -64(%rbp)
	jmp	LBB197_9
LBB197_3:
	.loc	6 212 17
	testb	$1, -47(%rbp)
	jne	LBB197_2
	.loc	6 214 44
	movq	-40(%rbp), %rax
	movq	%rax, -72(%rbp)
	movq	%rax, -16(%rbp)
Ltmp699:
	.loc	6 215 28
	testb	$1, -32(%rbp)
	jne	LBB197_6
	.loc	6 0 28 is_stmt 0
	movq	-72(%rbp), %rdi
	.loc	6 225 29 is_stmt 1
	leaq	l___unnamed_8(%rip), %rsi
	callq	__ZN2az12checked_cast17h53bb088abc790a42E
	movq	%rdx, -56(%rbp)
	movq	%rax, -64(%rbp)
	jmp	LBB197_9
LBB197_6:
	.loc	6 0 29 is_stmt 0
	movq	-72(%rbp), %rax
	.loc	6 216 37 is_stmt 1
	movq	%rax, -8(%rbp)
Ltmp700:
	.loc	6 217 32
	movabsq	$-9223372036854775808, %rcx
	cmpq	%rcx, %rax
	je	LBB197_8
	.loc	6 0 32 is_stmt 0
	movq	-72(%rbp), %rax
	.loc	6 219 39 is_stmt 1
	cmpq	$0, %rax
	jl	LBB197_11
	jmp	LBB197_10
LBB197_8:
	.loc	6 0 39 is_stmt 0
	movq	-72(%rbp), %rdi
	.loc	6 218 33 is_stmt 1
	leaq	l___unnamed_8(%rip), %rsi
	callq	__ZN2az12checked_cast17h030d9710bc104bb4E
	movq	%rdx, -56(%rbp)
	movq	%rax, -64(%rbp)
Ltmp701:
LBB197_9:
	.loc	6 229 14
	movq	-64(%rbp), %rax
	movq	-56(%rbp), %rdx
	addq	$80, %rsp
	popq	%rbp
	retq
LBB197_10:
	.loc	6 0 14 is_stmt 0
	movq	-72(%rbp), %rax
Ltmp702:
	.loc	6 222 46 is_stmt 1
	movabsq	$-9223372036854775808, %rcx
	cmpq	%rcx, %rax
	sete	%al
	testb	$1, %al
	jne	LBB197_13
	jmp	LBB197_12
LBB197_11:
	.loc	6 220 33
	movq	$0, -64(%rbp)
	.loc	6 219 36
	jmp	LBB197_9
LBB197_12:
	.loc	6 0 36 is_stmt 0
	movq	-72(%rbp), %rdi
	.loc	6 222 46 is_stmt 1
	negq	%rdi
	.loc	6 222 33 is_stmt 0
	leaq	l___unnamed_8(%rip), %rsi
	callq	__ZN2az12checked_cast17h030d9710bc104bb4E
	movq	%rdx, -56(%rbp)
	movq	%rax, -64(%rbp)
	jmp	LBB197_9
LBB197_13:
	.loc	6 222 46
	leaq	_str.0(%rip), %rdi
	leaq	l___unnamed_8(%rip), %rdx
	movl	$31, %esi
	callq	__ZN4core9panicking5panic17hc1bc45270cf64b03E
Ltmp703:
Lfunc_end197:
	.cfi_endproc

	.globl	__ZN2az3int63_$LT$impl$u20$az..SaturatingCast$LT$u64$GT$$u20$for$u20$f32$GT$15saturating_cast17ha2b3ddd6ac0c2665E
	.p2align	4, 0x90
__ZN2az3int63_$LT$impl$u20$az..SaturatingCast$LT$u64$GT$$u20$for$u20$f32$GT$15saturating_cast17ha2b3ddd6ac0c2665E:
Lfunc_begin198:
	.loc	6 234 0 is_stmt 1
	.cfi_startproc
	pushq	%rbp
	.cfi_def_cfa_offset 16
	.cfi_offset %rbp, -16
	movq	%rsp, %rbp
	.cfi_def_cfa_register %rbp
	subq	$96, %rsp
	movq	%rdi, -72(%rbp)
	movss	%xmm0, -20(%rbp)
Ltmp704:
	.loc	6 235 39 prologue_end
	leaq	-56(%rbp), %rdi
	callq	__ZN50_$LT$T$u20$as$u20$core..convert..Into$LT$U$GT$$GT$4into17hc0373b80baab8e63E
Ltmp705:
	.loc	6 236 36
	testb	$1, -40(%rbp)
	jne	LBB198_2
	.loc	6 239 21
	movq	$-1, -32(%rbp)
	jmp	LBB198_3
LBB198_2:
	.loc	6 237 21
	movq	$0, -32(%rbp)
LBB198_3:
Ltmp706:
	.loc	6 241 23
	movzbl	-56(%rbp), %eax
	movq	%rax, -80(%rbp)
	testq	%rax, %rax
	.loc	6 241 17 is_stmt 0
	je	LBB198_5
	jmp	LBB198_18
LBB198_18:
	.loc	6 0 17
	movq	-80(%rbp), %rax
	.loc	6 241 17
	subq	$1, %rax
	je	LBB198_6
	jmp	LBB198_19
LBB198_19:
	jmp	LBB198_7
	.loc	6 241 23
	ud2
LBB198_5:
	.loc	6 0 23
	movq	-72(%rbp), %rdx
	.loc	6 242 39 is_stmt 1
	leaq	l___unnamed_2(%rip), %rdi
	movl	$3, %esi
	callq	__ZN4core9panicking5panic17hc1bc45270cf64b03E
LBB198_6:
	.loc	6 243 78
	movq	-32(%rbp), %rax
	movq	%rax, -64(%rbp)
	jmp	LBB198_13
LBB198_7:
	.loc	6 241 17
	testb	$1, -55(%rbp)
	jne	LBB198_6
	.loc	6 244 44
	movq	-48(%rbp), %rax
	movq	%rax, -88(%rbp)
	movq	%rax, -16(%rbp)
Ltmp707:
	.loc	6 245 28
	testb	$1, -40(%rbp)
	jne	LBB198_10
	.loc	6 0 28 is_stmt 0
	movq	-72(%rbp), %rsi
	movq	-88(%rbp), %rdi
	.loc	6 255 29 is_stmt 1
	callq	__ZN2az15saturating_cast17h7027405e0dcef73dE
	movq	%rax, -64(%rbp)
	jmp	LBB198_13
LBB198_10:
	.loc	6 0 29 is_stmt 0
	movq	-88(%rbp), %rax
	.loc	6 246 37 is_stmt 1
	movq	%rax, -8(%rbp)
Ltmp708:
	.loc	6 247 32
	movabsq	$-9223372036854775808, %rcx
	cmpq	%rcx, %rax
	je	LBB198_12
	.loc	6 0 32 is_stmt 0
	movq	-88(%rbp), %rax
	.loc	6 249 39 is_stmt 1
	cmpq	$0, %rax
	jl	LBB198_15
	jmp	LBB198_14
LBB198_12:
	.loc	6 0 39 is_stmt 0
	movq	-72(%rbp), %rsi
	movq	-88(%rbp), %rdi
	.loc	6 248 33 is_stmt 1
	callq	__ZN2az15saturating_cast17hfa481999843f6a1dE
	movq	%rax, -64(%rbp)
Ltmp709:
LBB198_13:
	.loc	6 259 14
	movq	-64(%rbp), %rax
	addq	$96, %rsp
	popq	%rbp
	retq
LBB198_14:
	.loc	6 0 14 is_stmt 0
	movq	-88(%rbp), %rax
Ltmp710:
	.loc	6 252 49 is_stmt 1
	movabsq	$-9223372036854775808, %rcx
	cmpq	%rcx, %rax
	sete	%al
	testb	$1, %al
	jne	LBB198_17
	jmp	LBB198_16
LBB198_15:
	.loc	6 250 33
	movq	-32(%rbp), %rax
	movq	%rax, -64(%rbp)
	.loc	6 249 36
	jmp	LBB198_13
LBB198_16:
	.loc	6 0 36 is_stmt 0
	movq	-72(%rbp), %rsi
	movq	-88(%rbp), %rax
	.loc	6 252 49 is_stmt 1
	xorl	%ecx, %ecx
	movl	%ecx, %edi
	subq	%rax, %rdi
	.loc	6 252 33 is_stmt 0
	callq	__ZN2az15saturating_cast17hfa481999843f6a1dE
	movq	%rax, -64(%rbp)
	jmp	LBB198_13
LBB198_17:
	.loc	6 0 33
	movq	-72(%rbp), %rdx
	.loc	6 252 49
	leaq	_str.0(%rip), %rdi
	movl	$31, %esi
	callq	__ZN4core9panicking5panic17hc1bc45270cf64b03E
Ltmp711:
Lfunc_end198:
	.cfi_endproc

	.globl	__ZN2az3int64_$LT$impl$u20$az..OverflowingCast$LT$u64$GT$$u20$for$u20$f32$GT$16overflowing_cast17hf69478db0ed70ce3E
	.p2align	4, 0x90
__ZN2az3int64_$LT$impl$u20$az..OverflowingCast$LT$u64$GT$$u20$for$u20$f32$GT$16overflowing_cast17hf69478db0ed70ce3E:
Lfunc_begin199:
	.loc	6 272 0 is_stmt 1
	.cfi_startproc
	pushq	%rbp
	.cfi_def_cfa_offset 16
	.cfi_offset %rbp, -16
	movq	%rsp, %rbp
	.cfi_def_cfa_register %rbp
	subq	$176, %rsp
	movq	%rdi, -152(%rbp)
	movss	%xmm0, -76(%rbp)
	leaq	-120(%rbp), %rdi
Ltmp712:
	.loc	6 273 39 prologue_end
	callq	__ZN50_$LT$T$u20$as$u20$core..convert..Into$LT$U$GT$$GT$4into17hc0373b80baab8e63E
Ltmp713:
	.loc	6 274 23
	movzbl	-120(%rbp), %eax
	movq	%rax, -144(%rbp)
	testq	%rax, %rax
	.loc	6 274 17 is_stmt 0
	je	LBB199_2
	jmp	LBB199_15
LBB199_15:
	.loc	6 0 17
	movq	-144(%rbp), %rax
	.loc	6 274 17
	subq	$1, %rax
	je	LBB199_3
	jmp	LBB199_16
LBB199_16:
	jmp	LBB199_4
	.loc	6 274 23
	ud2
LBB199_2:
	.loc	6 0 23
	movq	-152(%rbp), %rdx
	.loc	6 275 39 is_stmt 1
	leaq	l___unnamed_2(%rip), %rdi
	movl	$3, %esi
	callq	__ZN4core9panicking5panic17hc1bc45270cf64b03E
LBB199_3:
	.loc	6 0 39 is_stmt 0
	movq	-152(%rbp), %rdx
	.loc	6 276 44 is_stmt 1
	leaq	L___unnamed_3(%rip), %rdi
	movl	$8, %esi
	callq	__ZN4core9panicking5panic17hc1bc45270cf64b03E
LBB199_4:
	.loc	6 277 44
	movq	-112(%rbp), %rax
	movq	%rax, -168(%rbp)
	movq	%rax, -72(%rbp)
	.loc	6 277 49 is_stmt 0
	movb	-119(%rbp), %al
	movb	%al, -153(%rbp)
	andb	$1, %al
	movb	%al, -57(%rbp)
Ltmp714:
	.loc	6 278 28 is_stmt 1
	testb	$1, -104(%rbp)
	jne	LBB199_6
	.loc	6 0 28 is_stmt 0
	movq	-152(%rbp), %rsi
	movq	-168(%rbp), %rdi
	.loc	6 289 56 is_stmt 1
	callq	__ZN2az16overflowing_cast17h5cb2745b184b1064E
	movq	%rax, %rcx
	movb	-153(%rbp), %al
	.loc	6 289 34 is_stmt 0
	movq	%rcx, -32(%rbp)
	.loc	6 289 43
	movb	%dl, %sil
	andb	$1, %sil
	movb	%sil, -17(%rbp)
Ltmp715:
	.loc	6 290 39 is_stmt 1
	orb	%dl, %al
	.loc	6 290 29 is_stmt 0
	movq	%rcx, -136(%rbp)
	andb	$1, %al
	movb	%al, -128(%rbp)
Ltmp716:
	.loc	6 278 25 is_stmt 1
	jmp	LBB199_14
LBB199_6:
	.loc	6 0 25 is_stmt 0
	movq	-168(%rbp), %rax
	.loc	6 279 37 is_stmt 1
	movq	%rax, -56(%rbp)
Ltmp717:
	.loc	6 280 59
	movabsq	$-9223372036854775808, %rcx
	cmpq	%rcx, %rax
	je	LBB199_8
	.loc	6 0 59 is_stmt 0
	movq	-168(%rbp), %rax
	.loc	6 282 39 is_stmt 1
	cmpq	$0, %rax
	jl	LBB199_11
	jmp	LBB199_10
LBB199_8:
	.loc	6 0 39 is_stmt 0
	movq	-152(%rbp), %rsi
	movq	-168(%rbp), %rdi
	.loc	6 281 33 is_stmt 1
	callq	__ZN2az16overflowing_cast17h7cf2a5bcb387a68cE
	movb	%dl, -88(%rbp)
	movq	%rax, -96(%rbp)
LBB199_9:
	.loc	6 0 33 is_stmt 0
	movb	-153(%rbp), %al
	.loc	6 280 34 is_stmt 1
	movq	-96(%rbp), %rcx
	movq	%rcx, -48(%rbp)
	.loc	6 280 43 is_stmt 0
	movb	-88(%rbp), %dl
	movb	%dl, %sil
	andb	$1, %sil
	movb	%sil, -33(%rbp)
Ltmp718:
	.loc	6 287 39 is_stmt 1
	orb	%dl, %al
	.loc	6 287 29 is_stmt 0
	movq	%rcx, -136(%rbp)
	andb	$1, %al
	movb	%al, -128(%rbp)
Ltmp719:
	.loc	6 278 25 is_stmt 1
	jmp	LBB199_14
LBB199_10:
	.loc	6 0 25 is_stmt 0
	movq	-168(%rbp), %rax
Ltmp720:
	.loc	6 285 50 is_stmt 1
	movabsq	$-9223372036854775808, %rcx
	cmpq	%rcx, %rax
	sete	%al
	testb	$1, %al
	jne	LBB199_13
	jmp	LBB199_12
LBB199_11:
	.loc	6 0 50 is_stmt 0
	movq	-152(%rbp), %rsi
	movq	-168(%rbp), %rdi
	.loc	6 283 34 is_stmt 1
	callq	__ZN2az13wrapping_cast17h2c86bc036696e6ebE
	movq	%rax, %rcx
	movq	%rcx, -16(%rbp)
Ltmp721:
	.loc	8 1352 40
	movq	%rcx, -8(%rbp)
Ltmp722:
	.loc	8 1203 13
	xorl	%eax, %eax
	subq	%rcx, %rax
Ltmp723:
	.loc	6 283 33
	movq	%rax, -96(%rbp)
	movb	$1, -88(%rbp)
	.loc	6 282 36
	jmp	LBB199_9
LBB199_12:
	.loc	6 0 36 is_stmt 0
	movq	-152(%rbp), %rsi
	movq	-168(%rbp), %rdi
	.loc	6 285 50 is_stmt 1
	negq	%rdi
	.loc	6 285 33 is_stmt 0
	callq	__ZN2az16overflowing_cast17h7cf2a5bcb387a68cE
	movb	%dl, -88(%rbp)
	movq	%rax, -96(%rbp)
	jmp	LBB199_9
LBB199_13:
	.loc	6 0 33
	movq	-152(%rbp), %rdx
	.loc	6 285 50
	leaq	_str.0(%rip), %rdi
	movl	$31, %esi
	callq	__ZN4core9panicking5panic17hc1bc45270cf64b03E
Ltmp724:
LBB199_14:
	.loc	6 294 14 is_stmt 1
	movq	-136(%rbp), %rax
	movb	-128(%rbp), %dl
	addq	$176, %rsp
	popq	%rbp
	retq
Ltmp725:
Lfunc_end199:
	.cfi_endproc

	.globl	__ZN2az3int97_$LT$impl$u20$az..CheckedCast$LT$core..num..wrapping..Wrapping$LT$u64$GT$$GT$$u20$for$u20$f32$GT$12checked_cast17h3455cc3aafbe27ebE
	.p2align	4, 0x90
__ZN2az3int97_$LT$impl$u20$az..CheckedCast$LT$core..num..wrapping..Wrapping$LT$u64$GT$$GT$$u20$for$u20$f32$GT$12checked_cast17h3455cc3aafbe27ebE:
Lfunc_begin200:
	.loc	6 316 0
	.cfi_startproc
	pushq	%rbp
	.cfi_def_cfa_offset 16
	.cfi_offset %rbp, -16
	movq	%rsp, %rbp
	.cfi_def_cfa_register %rbp
	subq	$112, %rsp
	movss	%xmm0, -36(%rbp)
	leaq	-80(%rbp), %rdi
Ltmp726:
	.loc	6 317 39 prologue_end
	callq	__ZN50_$LT$T$u20$as$u20$core..convert..Into$LT$U$GT$$GT$4into17hc0373b80baab8e63E
Ltmp727:
	.loc	6 318 23
	movzbl	-80(%rbp), %eax
	subq	$2, %rax
	.loc	6 318 17 is_stmt 0
	jb	LBB200_2
	jmp	LBB200_14
LBB200_14:
	jmp	LBB200_3
	.loc	6 318 23
	ud2
LBB200_2:
	.loc	6 319 61 is_stmt 1
	movq	$0, -96(%rbp)
	jmp	LBB200_13
LBB200_3:
	.loc	6 320 44
	movq	-72(%rbp), %rax
	movq	%rax, -104(%rbp)
	movq	%rax, -32(%rbp)
Ltmp728:
	.loc	6 321 42
	testb	$1, -64(%rbp)
	jne	LBB200_5
	.loc	6 0 42 is_stmt 0
	movq	-104(%rbp), %rdi
	.loc	6 331 29 is_stmt 1
	leaq	l___unnamed_8(%rip), %rsi
	callq	__ZN2az13wrapping_cast17h2c86bc036696e6ebE
	movq	%rax, -56(%rbp)
	jmp	LBB200_8
LBB200_5:
	.loc	6 0 29 is_stmt 0
	movq	-104(%rbp), %rax
	.loc	6 322 37 is_stmt 1
	movq	%rax, -24(%rbp)
Ltmp729:
	.loc	6 323 32
	movabsq	$-9223372036854775808, %rcx
	cmpq	%rcx, %rax
	je	LBB200_7
	.loc	6 0 32 is_stmt 0
	movq	-104(%rbp), %rax
	.loc	6 325 39 is_stmt 1
	cmpq	$0, %rax
	jl	LBB200_10
	jmp	LBB200_9
LBB200_7:
	.loc	6 0 39 is_stmt 0
	movq	-104(%rbp), %rdi
	.loc	6 324 33 is_stmt 1
	leaq	l___unnamed_8(%rip), %rsi
	callq	__ZN2az13wrapping_cast17h4ed40f598b5cbc85E
	movq	%rax, -56(%rbp)
Ltmp730:
LBB200_8:
	.loc	6 333 39
	movq	-56(%rbp), %rax
	.loc	6 333 30 is_stmt 0
	movq	%rax, -48(%rbp)
	.loc	6 333 25
	movq	-48(%rbp), %rax
	movq	%rax, -88(%rbp)
	movq	$1, -96(%rbp)
Ltmp731:
	.loc	6 334 21 is_stmt 1
	jmp	LBB200_13
LBB200_9:
	.loc	6 0 21 is_stmt 0
	movq	-104(%rbp), %rax
Ltmp732:
	.loc	6 328 47 is_stmt 1
	movabsq	$-9223372036854775808, %rcx
	cmpq	%rcx, %rax
	sete	%al
	testb	$1, %al
	jne	LBB200_12
	jmp	LBB200_11
LBB200_10:
	.loc	6 0 47 is_stmt 0
	movq	-104(%rbp), %rdi
	.loc	6 326 33 is_stmt 1
	leaq	l___unnamed_8(%rip), %rsi
	callq	__ZN2az13wrapping_cast17h2c86bc036696e6ebE
	movq	%rax, %rcx
	movq	%rcx, -16(%rbp)
Ltmp733:
	.loc	8 1352 40
	movq	%rcx, -8(%rbp)
Ltmp734:
	.loc	8 1203 13
	xorl	%eax, %eax
	subq	%rcx, %rax
Ltmp735:
	.loc	6 326 33
	movq	%rax, -56(%rbp)
	jmp	LBB200_8
LBB200_11:
	.loc	6 0 33 is_stmt 0
	movq	-104(%rbp), %rax
	.loc	6 328 47 is_stmt 1
	xorl	%ecx, %ecx
	movl	%ecx, %edi
	subq	%rax, %rdi
	.loc	6 328 33 is_stmt 0
	leaq	l___unnamed_8(%rip), %rsi
	callq	__ZN2az13wrapping_cast17h4ed40f598b5cbc85E
	movq	%rax, -56(%rbp)
	jmp	LBB200_8
LBB200_12:
	.loc	6 328 47
	leaq	_str.0(%rip), %rdi
	leaq	l___unnamed_8(%rip), %rdx
	movl	$31, %esi
	callq	__ZN4core9panicking5panic17hc1bc45270cf64b03E
Ltmp736:
LBB200_13:
	.loc	6 336 14 is_stmt 1
	movq	-96(%rbp), %rax
	movq	-88(%rbp), %rdx
	addq	$112, %rsp
	popq	%rbp
	retq
Ltmp737:
Lfunc_end200:
	.cfi_endproc

	.globl	__ZN2az3int61_$LT$impl$u20$az..CheckedCast$LT$u128$GT$$u20$for$u20$f32$GT$12checked_cast17h5851d3923d48be1dE
	.p2align	4, 0x90
__ZN2az3int61_$LT$impl$u20$az..CheckedCast$LT$u128$GT$$u20$for$u20$f32$GT$12checked_cast17h5851d3923d48be1dE:
Lfunc_begin201:
	.loc	6 210 0
	.cfi_startproc
	pushq	%rbp
	.cfi_def_cfa_offset 16
	.cfi_offset %rbp, -16
	movq	%rsp, %rbp
	.cfi_def_cfa_register %rbp
	subq	$112, %rsp
	movss	%xmm0, -36(%rbp)
	leaq	-72(%rbp), %rdi
Ltmp738:
	.loc	6 211 39 prologue_end
	callq	__ZN50_$LT$T$u20$as$u20$core..convert..Into$LT$U$GT$$GT$4into17h4164bc3de6113974E
Ltmp739:
	.loc	6 212 23
	movzbl	-72(%rbp), %eax
	subq	$2, %rax
	.loc	6 212 17 is_stmt 0
	jb	LBB201_2
	jmp	LBB201_14
LBB201_14:
	jmp	LBB201_3
	.loc	6 212 23
	ud2
LBB201_2:
	.loc	6 213 95 is_stmt 1
	movq	$0, -96(%rbp)
	jmp	LBB201_9
LBB201_3:
	.loc	6 212 17
	testb	$1, -71(%rbp)
	jne	LBB201_2
	.loc	6 214 44
	movq	-64(%rbp), %rax
	movq	%rax, -112(%rbp)
	movq	-56(%rbp), %rcx
	movq	%rcx, -104(%rbp)
	movq	%rcx, -24(%rbp)
	movq	%rax, -32(%rbp)
Ltmp740:
	.loc	6 215 28
	testb	$1, -48(%rbp)
	jne	LBB201_6
	.loc	6 0 28 is_stmt 0
	movq	-104(%rbp), %rsi
	movq	-112(%rbp), %rdi
	.loc	6 225 29 is_stmt 1
	leaq	l___unnamed_9(%rip), %rdx
	callq	__ZN2az12checked_cast17h24739e3c6d82155aE
	movq	%rcx, -80(%rbp)
	movq	%rdx, -88(%rbp)
	movq	%rax, -96(%rbp)
	jmp	LBB201_9
LBB201_6:
	.loc	6 0 29 is_stmt 0
	movq	-112(%rbp), %rax
	movq	-104(%rbp), %rcx
	.loc	6 216 37 is_stmt 1
	movq	%rax, -16(%rbp)
	movq	%rcx, -8(%rbp)
	movabsq	$-9223372036854775808, %rdx
Ltmp741:
	.loc	6 217 32
	xorq	%rdx, %rcx
	orq	%rcx, %rax
	je	LBB201_8
	jmp	LBB201_7
LBB201_7:
	.loc	6 0 32 is_stmt 0
	movq	-104(%rbp), %rax
	.loc	6 219 39 is_stmt 1
	testq	%rax, %rax
	js	LBB201_11
	jmp	LBB201_10
LBB201_8:
	.loc	6 0 39 is_stmt 0
	movq	-104(%rbp), %rsi
	movq	-112(%rbp), %rdi
	.loc	6 218 33 is_stmt 1
	leaq	l___unnamed_9(%rip), %rdx
	callq	__ZN2az12checked_cast17hbabcb4db91495df9E
	movq	%rcx, -80(%rbp)
	movq	%rdx, -88(%rbp)
	movq	%rax, -96(%rbp)
Ltmp742:
LBB201_9:
	.loc	6 229 14
	movq	-96(%rbp), %rax
	movq	-88(%rbp), %rdx
	movq	-80(%rbp), %rcx
	addq	$112, %rsp
	popq	%rbp
	retq
LBB201_10:
	.loc	6 0 14 is_stmt 0
	movq	-112(%rbp), %rax
	movq	-104(%rbp), %rcx
	movabsq	$-9223372036854775808, %rdx
Ltmp743:
	.loc	6 222 46 is_stmt 1
	xorq	%rdx, %rcx
	orq	%rcx, %rax
	sete	%al
	testb	$1, %al
	jne	LBB201_13
	jmp	LBB201_12
LBB201_11:
	.loc	6 220 33
	movq	$0, -96(%rbp)
	.loc	6 219 36
	jmp	LBB201_9
LBB201_12:
	.loc	6 0 36 is_stmt 0
	movq	-104(%rbp), %rax
	movq	-112(%rbp), %rdi
	xorl	%ecx, %ecx
	.loc	6 222 46 is_stmt 1
	negq	%rdi
	movl	%ecx, %esi
	sbbq	%rax, %rsi
	.loc	6 222 33 is_stmt 0
	leaq	l___unnamed_9(%rip), %rdx
	callq	__ZN2az12checked_cast17hbabcb4db91495df9E
	movq	%rcx, -80(%rbp)
	movq	%rdx, -88(%rbp)
	movq	%rax, -96(%rbp)
	jmp	LBB201_9
LBB201_13:
	.loc	6 222 46
	leaq	_str.0(%rip), %rdi
	leaq	l___unnamed_9(%rip), %rdx
	movl	$31, %esi
	callq	__ZN4core9panicking5panic17hc1bc45270cf64b03E
Ltmp744:
Lfunc_end201:
	.cfi_endproc

	.globl	__ZN2az3int64_$LT$impl$u20$az..SaturatingCast$LT$u128$GT$$u20$for$u20$f32$GT$15saturating_cast17h72f44b69d0655affE
	.p2align	4, 0x90
__ZN2az3int64_$LT$impl$u20$az..SaturatingCast$LT$u128$GT$$u20$for$u20$f32$GT$15saturating_cast17h72f44b69d0655affE:
Lfunc_begin202:
	.loc	6 234 0 is_stmt 1
	.cfi_startproc
	pushq	%rbp
	.cfi_def_cfa_offset 16
	.cfi_offset %rbp, -16
	movq	%rsp, %rbp
	.cfi_def_cfa_register %rbp
	subq	$144, %rsp
	movq	%rdi, -112(%rbp)
	movss	%xmm0, -36(%rbp)
Ltmp745:
	.loc	6 235 39 prologue_end
	leaq	-88(%rbp), %rdi
	callq	__ZN50_$LT$T$u20$as$u20$core..convert..Into$LT$U$GT$$GT$4into17h4164bc3de6113974E
Ltmp746:
	.loc	6 236 36
	testb	$1, -64(%rbp)
	jne	LBB202_2
	.loc	6 239 21
	movq	$-1, -48(%rbp)
	movq	$-1, -56(%rbp)
	jmp	LBB202_3
LBB202_2:
	.loc	6 237 21
	movq	$0, -48(%rbp)
	movq	$0, -56(%rbp)
LBB202_3:
Ltmp747:
	.loc	6 241 23
	movzbl	-88(%rbp), %eax
	movq	%rax, -120(%rbp)
	testq	%rax, %rax
	.loc	6 241 17 is_stmt 0
	je	LBB202_5
	jmp	LBB202_18
LBB202_18:
	.loc	6 0 17
	movq	-120(%rbp), %rax
	.loc	6 241 17
	subq	$1, %rax
	je	LBB202_6
	jmp	LBB202_19
LBB202_19:
	jmp	LBB202_7
	.loc	6 241 23
	ud2
LBB202_5:
	.loc	6 0 23
	movq	-112(%rbp), %rdx
	.loc	6 242 39 is_stmt 1
	leaq	l___unnamed_2(%rip), %rdi
	movl	$3, %esi
	callq	__ZN4core9panicking5panic17hc1bc45270cf64b03E
LBB202_6:
	.loc	6 243 78
	movq	-56(%rbp), %rax
	movq	-48(%rbp), %rcx
	movq	%rcx, -96(%rbp)
	movq	%rax, -104(%rbp)
	jmp	LBB202_13
LBB202_7:
	.loc	6 241 17
	testb	$1, -87(%rbp)
	jne	LBB202_6
	.loc	6 244 44
	movq	-80(%rbp), %rax
	movq	%rax, -136(%rbp)
	movq	-72(%rbp), %rcx
	movq	%rcx, -128(%rbp)
	movq	%rcx, -24(%rbp)
	movq	%rax, -32(%rbp)
Ltmp748:
	.loc	6 245 28
	testb	$1, -64(%rbp)
	jne	LBB202_10
	.loc	6 0 28 is_stmt 0
	movq	-112(%rbp), %rdx
	movq	-128(%rbp), %rsi
	movq	-136(%rbp), %rdi
	.loc	6 255 29 is_stmt 1
	callq	__ZN2az15saturating_cast17h6e25731722ff467dE
	movq	%rdx, -96(%rbp)
	movq	%rax, -104(%rbp)
	jmp	LBB202_13
LBB202_10:
	.loc	6 0 29 is_stmt 0
	movq	-136(%rbp), %rax
	movq	-128(%rbp), %rcx
	.loc	6 246 37 is_stmt 1
	movq	%rax, -16(%rbp)
	movq	%rcx, -8(%rbp)
	movabsq	$-9223372036854775808, %rdx
Ltmp749:
	.loc	6 247 32
	xorq	%rdx, %rcx
	orq	%rcx, %rax
	je	LBB202_12
	jmp	LBB202_11
LBB202_11:
	.loc	6 0 32 is_stmt 0
	movq	-128(%rbp), %rax
	.loc	6 249 39 is_stmt 1
	testq	%rax, %rax
	js	LBB202_15
	jmp	LBB202_14
LBB202_12:
	.loc	6 0 39 is_stmt 0
	movq	-112(%rbp), %rdx
	movq	-128(%rbp), %rsi
	movq	-136(%rbp), %rdi
	.loc	6 248 33 is_stmt 1
	callq	__ZN2az15saturating_cast17h8e8409424c312582E
	movq	%rdx, -96(%rbp)
	movq	%rax, -104(%rbp)
Ltmp750:
LBB202_13:
	.loc	6 259 14
	movq	-104(%rbp), %rax
	movq	-96(%rbp), %rdx
	addq	$144, %rsp
	popq	%rbp
	retq
LBB202_14:
	.loc	6 0 14 is_stmt 0
	movq	-136(%rbp), %rax
	movq	-128(%rbp), %rcx
	movabsq	$-9223372036854775808, %rdx
Ltmp751:
	.loc	6 252 49 is_stmt 1
	xorq	%rdx, %rcx
	orq	%rcx, %rax
	sete	%al
	testb	$1, %al
	jne	LBB202_17
	jmp	LBB202_16
LBB202_15:
	.loc	6 250 33
	movq	-56(%rbp), %rax
	movq	-48(%rbp), %rcx
	movq	%rcx, -96(%rbp)
	movq	%rax, -104(%rbp)
	.loc	6 249 36
	jmp	LBB202_13
LBB202_16:
	.loc	6 0 36 is_stmt 0
	movq	-112(%rbp), %rdx
	movq	-128(%rbp), %rax
	movq	-136(%rbp), %rdi
	xorl	%ecx, %ecx
	.loc	6 252 49 is_stmt 1
	negq	%rdi
	movl	%ecx, %esi
	sbbq	%rax, %rsi
	.loc	6 252 33 is_stmt 0
	callq	__ZN2az15saturating_cast17h8e8409424c312582E
	movq	%rdx, -96(%rbp)
	movq	%rax, -104(%rbp)
	jmp	LBB202_13
LBB202_17:
	.loc	6 0 33
	movq	-112(%rbp), %rdx
	.loc	6 252 49
	leaq	_str.0(%rip), %rdi
	movl	$31, %esi
	callq	__ZN4core9panicking5panic17hc1bc45270cf64b03E
Ltmp752:
Lfunc_end202:
	.cfi_endproc

	.globl	__ZN2az3int65_$LT$impl$u20$az..OverflowingCast$LT$u128$GT$$u20$for$u20$f32$GT$16overflowing_cast17h5d0f717ec41a6da3E
	.p2align	4, 0x90
__ZN2az3int65_$LT$impl$u20$az..OverflowingCast$LT$u128$GT$$u20$for$u20$f32$GT$16overflowing_cast17h5d0f717ec41a6da3E:
Lfunc_begin203:
	.loc	6 272 0 is_stmt 1
	.cfi_startproc
	pushq	%rbp
	.cfi_def_cfa_offset 16
	.cfi_offset %rbp, -16
	movq	%rsp, %rbp
	.cfi_def_cfa_register %rbp
	subq	$256, %rsp
	movq	%rdi, -224(%rbp)
	movss	%xmm0, -124(%rbp)
	leaq	-184(%rbp), %rdi
Ltmp753:
	.loc	6 273 39 prologue_end
	callq	__ZN50_$LT$T$u20$as$u20$core..convert..Into$LT$U$GT$$GT$4into17h4164bc3de6113974E
Ltmp754:
	.loc	6 274 23
	movzbl	-184(%rbp), %eax
	movq	%rax, -216(%rbp)
	testq	%rax, %rax
	.loc	6 274 17 is_stmt 0
	je	LBB203_2
	jmp	LBB203_15
LBB203_15:
	.loc	6 0 17
	movq	-216(%rbp), %rax
	.loc	6 274 17
	subq	$1, %rax
	je	LBB203_3
	jmp	LBB203_16
LBB203_16:
	jmp	LBB203_4
	.loc	6 274 23
	ud2
LBB203_2:
	.loc	6 0 23
	movq	-224(%rbp), %rdx
	.loc	6 275 39 is_stmt 1
	leaq	l___unnamed_2(%rip), %rdi
	movl	$3, %esi
	callq	__ZN4core9panicking5panic17hc1bc45270cf64b03E
LBB203_3:
	.loc	6 0 39 is_stmt 0
	movq	-224(%rbp), %rdx
	.loc	6 276 44 is_stmt 1
	leaq	L___unnamed_3(%rip), %rdi
	movl	$8, %esi
	callq	__ZN4core9panicking5panic17hc1bc45270cf64b03E
LBB203_4:
	.loc	6 277 44
	movq	-176(%rbp), %rax
	movq	%rax, -248(%rbp)
	movq	-168(%rbp), %rcx
	movq	%rcx, -240(%rbp)
	movq	%rcx, -112(%rbp)
	movq	%rax, -120(%rbp)
	.loc	6 277 49 is_stmt 0
	movb	-183(%rbp), %al
	movb	%al, -225(%rbp)
	andb	$1, %al
	movb	%al, -97(%rbp)
Ltmp755:
	.loc	6 278 28 is_stmt 1
	testb	$1, -160(%rbp)
	jne	LBB203_6
	.loc	6 0 28 is_stmt 0
	movq	-224(%rbp), %rdx
	movq	-240(%rbp), %rsi
	movq	-248(%rbp), %rdi
	.loc	6 289 56 is_stmt 1
	callq	__ZN2az16overflowing_cast17h2d97f7f375d96b69E
	movq	%rax, %rsi
	movb	-225(%rbp), %al
	movq	%rsi, -256(%rbp)
	movb	%cl, %sil
	movq	-256(%rbp), %rcx
	.loc	6 289 34 is_stmt 0
	movq	%rdx, -48(%rbp)
	movq	%rcx, -56(%rbp)
	.loc	6 289 43
	movb	%sil, %dil
	andb	$1, %dil
	movb	%dil, -33(%rbp)
Ltmp756:
	.loc	6 290 39 is_stmt 1
	orb	%sil, %al
	.loc	6 290 29 is_stmt 0
	movq	%rdx, -200(%rbp)
	movq	%rcx, -208(%rbp)
	andb	$1, %al
	movb	%al, -192(%rbp)
Ltmp757:
	.loc	6 278 25 is_stmt 1
	jmp	LBB203_14
LBB203_6:
	.loc	6 0 25 is_stmt 0
	movq	-248(%rbp), %rax
	movq	-240(%rbp), %rcx
	.loc	6 279 37 is_stmt 1
	movq	%rax, -96(%rbp)
	movq	%rcx, -88(%rbp)
	movabsq	$-9223372036854775808, %rdx
Ltmp758:
	.loc	6 280 59
	xorq	%rdx, %rcx
	orq	%rcx, %rax
	je	LBB203_8
	jmp	LBB203_7
LBB203_7:
	.loc	6 0 59 is_stmt 0
	movq	-240(%rbp), %rax
	.loc	6 282 39 is_stmt 1
	testq	%rax, %rax
	js	LBB203_11
	jmp	LBB203_10
LBB203_8:
	.loc	6 0 39 is_stmt 0
	movq	-224(%rbp), %rdx
	movq	-240(%rbp), %rsi
	movq	-248(%rbp), %rdi
	.loc	6 281 33 is_stmt 1
	callq	__ZN2az16overflowing_cast17h2d7d75d38fb00695E
	movq	%rdx, -144(%rbp)
	movq	%rax, -152(%rbp)
	movb	%cl, -136(%rbp)
LBB203_9:
	.loc	6 0 33 is_stmt 0
	movb	-225(%rbp), %al
	.loc	6 280 34 is_stmt 1
	movq	-152(%rbp), %rcx
	movq	-144(%rbp), %rdx
	movq	%rdx, -72(%rbp)
	movq	%rcx, -80(%rbp)
	.loc	6 280 43 is_stmt 0
	movb	-136(%rbp), %sil
	movb	%sil, -57(%rbp)
Ltmp759:
	.loc	6 287 39 is_stmt 1
	orb	%sil, %al
	.loc	6 287 29 is_stmt 0
	movq	%rdx, -200(%rbp)
	movq	%rcx, -208(%rbp)
	andb	$1, %al
	movb	%al, -192(%rbp)
Ltmp760:
	.loc	6 278 25 is_stmt 1
	jmp	LBB203_14
LBB203_10:
	.loc	6 0 25 is_stmt 0
	movq	-248(%rbp), %rax
	movq	-240(%rbp), %rcx
	movabsq	$-9223372036854775808, %rdx
Ltmp761:
	.loc	6 285 50 is_stmt 1
	xorq	%rdx, %rcx
	orq	%rcx, %rax
	sete	%al
	testb	$1, %al
	jne	LBB203_13
	jmp	LBB203_12
LBB203_11:
	.loc	6 0 50 is_stmt 0
	movq	-224(%rbp), %rdx
	movq	-240(%rbp), %rsi
	movq	-248(%rbp), %rdi
	.loc	6 283 34 is_stmt 1
	callq	__ZN2az13wrapping_cast17h586c0ae66cc85399E
	movq	%rdx, -24(%rbp)
	movq	%rax, -32(%rbp)
Ltmp762:
	.loc	8 1352 40
	movq	%rdx, -8(%rbp)
	movq	%rax, -16(%rbp)
	xorl	%ecx, %ecx
Ltmp763:
	.loc	8 1203 13
	negq	%rax
	sbbq	%rdx, %rcx
Ltmp764:
	.loc	6 283 33
	movq	%rcx, -144(%rbp)
	movq	%rax, -152(%rbp)
	movb	$1, -136(%rbp)
	.loc	6 282 36
	jmp	LBB203_9
LBB203_12:
	.loc	6 0 36 is_stmt 0
	movq	-224(%rbp), %rdx
	movq	-240(%rbp), %rax
	movq	-248(%rbp), %rdi
	xorl	%ecx, %ecx
	.loc	6 285 50 is_stmt 1
	negq	%rdi
	movl	%ecx, %esi
	sbbq	%rax, %rsi
	.loc	6 285 33 is_stmt 0
	callq	__ZN2az16overflowing_cast17h2d7d75d38fb00695E
	movq	%rdx, -144(%rbp)
	movq	%rax, -152(%rbp)
	movb	%cl, -136(%rbp)
	jmp	LBB203_9
LBB203_13:
	.loc	6 0 33
	movq	-224(%rbp), %rdx
	.loc	6 285 50
	leaq	_str.0(%rip), %rdi
	movl	$31, %esi
	callq	__ZN4core9panicking5panic17hc1bc45270cf64b03E
Ltmp765:
LBB203_14:
	.loc	6 294 14 is_stmt 1
	movq	-208(%rbp), %rax
	movq	-200(%rbp), %rdx
	movb	-192(%rbp), %cl
	addq	$256, %rsp
	popq	%rbp
	retq
Ltmp766:
Lfunc_end203:
	.cfi_endproc

	.globl	__ZN2az3int98_$LT$impl$u20$az..CheckedCast$LT$core..num..wrapping..Wrapping$LT$u128$GT$$GT$$u20$for$u20$f32$GT$12checked_cast17he6acd777501887fdE
	.p2align	4, 0x90
__ZN2az3int98_$LT$impl$u20$az..CheckedCast$LT$core..num..wrapping..Wrapping$LT$u128$GT$$GT$$u20$for$u20$f32$GT$12checked_cast17he6acd777501887fdE:
Lfunc_begin204:
	.loc	6 316 0
	.cfi_startproc
	pushq	%rbp
	.cfi_def_cfa_offset 16
	.cfi_offset %rbp, -16
	movq	%rsp, %rbp
	.cfi_def_cfa_register %rbp
	subq	$176, %rsp
	movss	%xmm0, -68(%rbp)
	leaq	-136(%rbp), %rdi
Ltmp767:
	.loc	6 317 39 prologue_end
	callq	__ZN50_$LT$T$u20$as$u20$core..convert..Into$LT$U$GT$$GT$4into17h4164bc3de6113974E
Ltmp768:
	.loc	6 318 23
	movzbl	-136(%rbp), %eax
	subq	$2, %rax
	.loc	6 318 17 is_stmt 0
	jb	LBB204_2
	jmp	LBB204_14
LBB204_14:
	jmp	LBB204_3
	.loc	6 318 23
	ud2
LBB204_2:
	.loc	6 319 61 is_stmt 1
	movq	$0, -160(%rbp)
	jmp	LBB204_13
LBB204_3:
	.loc	6 320 44
	movq	-128(%rbp), %rax
	movq	%rax, -176(%rbp)
	movq	-120(%rbp), %rcx
	movq	%rcx, -168(%rbp)
	movq	%rcx, -56(%rbp)
	movq	%rax, -64(%rbp)
Ltmp769:
	.loc	6 321 42
	testb	$1, -112(%rbp)
	jne	LBB204_5
	.loc	6 0 42 is_stmt 0
	movq	-168(%rbp), %rsi
	movq	-176(%rbp), %rdi
	.loc	6 331 29 is_stmt 1
	leaq	l___unnamed_9(%rip), %rdx
	callq	__ZN2az13wrapping_cast17h586c0ae66cc85399E
	movq	%rdx, -96(%rbp)
	movq	%rax, -104(%rbp)
	jmp	LBB204_8
LBB204_5:
	.loc	6 0 29 is_stmt 0
	movq	-176(%rbp), %rax
	movq	-168(%rbp), %rcx
	.loc	6 322 37 is_stmt 1
	movq	%rax, -48(%rbp)
	movq	%rcx, -40(%rbp)
	movabsq	$-9223372036854775808, %rdx
Ltmp770:
	.loc	6 323 32
	xorq	%rdx, %rcx
	orq	%rcx, %rax
	je	LBB204_7
	jmp	LBB204_6
LBB204_6:
	.loc	6 0 32 is_stmt 0
	movq	-168(%rbp), %rax
	.loc	6 325 39 is_stmt 1
	testq	%rax, %rax
	js	LBB204_10
	jmp	LBB204_9
LBB204_7:
	.loc	6 0 39 is_stmt 0
	movq	-168(%rbp), %rsi
	movq	-176(%rbp), %rdi
	.loc	6 324 33 is_stmt 1
	leaq	l___unnamed_9(%rip), %rdx
	callq	__ZN2az13wrapping_cast17h54cc6e2113e47441E
	movq	%rdx, -96(%rbp)
	movq	%rax, -104(%rbp)
Ltmp771:
LBB204_8:
	.loc	6 333 39
	movq	-104(%rbp), %rax
	movq	-96(%rbp), %rcx
	.loc	6 333 30 is_stmt 0
	movq	%rcx, -80(%rbp)
	movq	%rax, -88(%rbp)
	.loc	6 333 25
	movq	-88(%rbp), %rax
	movq	-80(%rbp), %rcx
	movq	%rcx, -144(%rbp)
	movq	%rax, -152(%rbp)
	movq	$1, -160(%rbp)
Ltmp772:
	.loc	6 334 21 is_stmt 1
	jmp	LBB204_13
LBB204_9:
	.loc	6 0 21 is_stmt 0
	movq	-176(%rbp), %rax
	movq	-168(%rbp), %rcx
	movabsq	$-9223372036854775808, %rdx
Ltmp773:
	.loc	6 328 47 is_stmt 1
	xorq	%rdx, %rcx
	orq	%rcx, %rax
	sete	%al
	testb	$1, %al
	jne	LBB204_12
	jmp	LBB204_11
LBB204_10:
	.loc	6 0 47 is_stmt 0
	movq	-168(%rbp), %rsi
	movq	-176(%rbp), %rdi
	.loc	6 326 33 is_stmt 1
	leaq	l___unnamed_9(%rip), %rdx
	callq	__ZN2az13wrapping_cast17h586c0ae66cc85399E
	movq	%rdx, -24(%rbp)
	movq	%rax, -32(%rbp)
Ltmp774:
	.loc	8 1352 40
	movq	%rdx, -8(%rbp)
	movq	%rax, -16(%rbp)
	xorl	%ecx, %ecx
Ltmp775:
	.loc	8 1203 13
	negq	%rax
	sbbq	%rdx, %rcx
Ltmp776:
	.loc	6 326 33
	movq	%rcx, -96(%rbp)
	movq	%rax, -104(%rbp)
	jmp	LBB204_8
LBB204_11:
	.loc	6 0 33 is_stmt 0
	movq	-168(%rbp), %rax
	movq	-176(%rbp), %rdi
	xorl	%ecx, %ecx
	.loc	6 328 47 is_stmt 1
	negq	%rdi
	movl	%ecx, %esi
	sbbq	%rax, %rsi
	.loc	6 328 33 is_stmt 0
	leaq	l___unnamed_9(%rip), %rdx
	callq	__ZN2az13wrapping_cast17h54cc6e2113e47441E
	movq	%rdx, -96(%rbp)
	movq	%rax, -104(%rbp)
	jmp	LBB204_8
LBB204_12:
	.loc	6 328 47
	leaq	_str.0(%rip), %rdi
	leaq	l___unnamed_9(%rip), %rdx
	movl	$31, %esi
	callq	__ZN4core9panicking5panic17hc1bc45270cf64b03E
Ltmp777:
LBB204_13:
	.loc	6 336 14 is_stmt 1
	movq	-160(%rbp), %rax
	movq	-152(%rbp), %rdx
	movq	-144(%rbp), %rcx
	addq	$176, %rsp
	popq	%rbp
	retq
Ltmp778:
Lfunc_end204:
	.cfi_endproc

	.globl	__ZN2az3int62_$LT$impl$u20$az..CheckedCast$LT$usize$GT$$u20$for$u20$f32$GT$12checked_cast17h6a73f994d30a6c6cE
	.p2align	4, 0x90
__ZN2az3int62_$LT$impl$u20$az..CheckedCast$LT$usize$GT$$u20$for$u20$f32$GT$12checked_cast17h6a73f994d30a6c6cE:
Lfunc_begin205:
	.loc	6 210 0
	.cfi_startproc
	pushq	%rbp
	.cfi_def_cfa_offset 16
	.cfi_offset %rbp, -16
	movq	%rsp, %rbp
	.cfi_def_cfa_register %rbp
	subq	$80, %rsp
	movss	%xmm0, -20(%rbp)
	leaq	-48(%rbp), %rdi
Ltmp779:
	.loc	6 211 39 prologue_end
	callq	__ZN50_$LT$T$u20$as$u20$core..convert..Into$LT$U$GT$$GT$4into17hc0373b80baab8e63E
Ltmp780:
	.loc	6 212 23
	movzbl	-48(%rbp), %eax
	subq	$2, %rax
	.loc	6 212 17 is_stmt 0
	jb	LBB205_2
	jmp	LBB205_14
LBB205_14:
	jmp	LBB205_3
	.loc	6 212 23
	ud2
LBB205_2:
	.loc	6 213 95 is_stmt 1
	movq	$0, -64(%rbp)
	jmp	LBB205_9
LBB205_3:
	.loc	6 212 17
	testb	$1, -47(%rbp)
	jne	LBB205_2
	.loc	6 214 44
	movq	-40(%rbp), %rax
	movq	%rax, -72(%rbp)
	movq	%rax, -16(%rbp)
Ltmp781:
	.loc	6 215 28
	testb	$1, -32(%rbp)
	jne	LBB205_6
	.loc	6 0 28 is_stmt 0
	movq	-72(%rbp), %rdi
	.loc	6 225 29 is_stmt 1
	leaq	l___unnamed_10(%rip), %rsi
	callq	__ZN2az12checked_cast17h7b2231722493b838E
	movq	%rdx, -56(%rbp)
	movq	%rax, -64(%rbp)
	jmp	LBB205_9
LBB205_6:
	.loc	6 0 29 is_stmt 0
	movq	-72(%rbp), %rax
	.loc	6 216 37 is_stmt 1
	movq	%rax, -8(%rbp)
Ltmp782:
	.loc	6 217 32
	movabsq	$-9223372036854775808, %rcx
	cmpq	%rcx, %rax
	je	LBB205_8
	.loc	6 0 32 is_stmt 0
	movq	-72(%rbp), %rax
	.loc	6 219 39 is_stmt 1
	cmpq	$0, %rax
	jl	LBB205_11
	jmp	LBB205_10
LBB205_8:
	.loc	6 0 39 is_stmt 0
	movq	-72(%rbp), %rdi
	.loc	6 218 33 is_stmt 1
	leaq	l___unnamed_10(%rip), %rsi
	callq	__ZN2az12checked_cast17h97757a96c2b265fcE
	movq	%rdx, -56(%rbp)
	movq	%rax, -64(%rbp)
Ltmp783:
LBB205_9:
	.loc	6 229 14
	movq	-64(%rbp), %rax
	movq	-56(%rbp), %rdx
	addq	$80, %rsp
	popq	%rbp
	retq
LBB205_10:
	.loc	6 0 14 is_stmt 0
	movq	-72(%rbp), %rax
Ltmp784:
	.loc	6 222 46 is_stmt 1
	movabsq	$-9223372036854775808, %rcx
	cmpq	%rcx, %rax
	sete	%al
	testb	$1, %al
	jne	LBB205_13
	jmp	LBB205_12
LBB205_11:
	.loc	6 220 33
	movq	$0, -64(%rbp)
	.loc	6 219 36
	jmp	LBB205_9
LBB205_12:
	.loc	6 0 36 is_stmt 0
	movq	-72(%rbp), %rdi
	.loc	6 222 46 is_stmt 1
	negq	%rdi
	.loc	6 222 33 is_stmt 0
	leaq	l___unnamed_10(%rip), %rsi
	callq	__ZN2az12checked_cast17h97757a96c2b265fcE
	movq	%rdx, -56(%rbp)
	movq	%rax, -64(%rbp)
	jmp	LBB205_9
LBB205_13:
	.loc	6 222 46
	leaq	_str.0(%rip), %rdi
	leaq	l___unnamed_10(%rip), %rdx
	movl	$31, %esi
	callq	__ZN4core9panicking5panic17hc1bc45270cf64b03E
Ltmp785:
Lfunc_end205:
	.cfi_endproc

	.globl	__ZN2az3int65_$LT$impl$u20$az..SaturatingCast$LT$usize$GT$$u20$for$u20$f32$GT$15saturating_cast17hfede3c297fe224a9E
	.p2align	4, 0x90
__ZN2az3int65_$LT$impl$u20$az..SaturatingCast$LT$usize$GT$$u20$for$u20$f32$GT$15saturating_cast17hfede3c297fe224a9E:
Lfunc_begin206:
	.loc	6 234 0 is_stmt 1
	.cfi_startproc
	pushq	%rbp
	.cfi_def_cfa_offset 16
	.cfi_offset %rbp, -16
	movq	%rsp, %rbp
	.cfi_def_cfa_register %rbp
	subq	$96, %rsp
	movq	%rdi, -72(%rbp)
	movss	%xmm0, -20(%rbp)
Ltmp786:
	.loc	6 235 39 prologue_end
	leaq	-56(%rbp), %rdi
	callq	__ZN50_$LT$T$u20$as$u20$core..convert..Into$LT$U$GT$$GT$4into17hc0373b80baab8e63E
Ltmp787:
	.loc	6 236 36
	testb	$1, -40(%rbp)
	jne	LBB206_2
	.loc	6 239 21
	movq	$-1, -32(%rbp)
	jmp	LBB206_3
LBB206_2:
	.loc	6 237 21
	movq	$0, -32(%rbp)
LBB206_3:
Ltmp788:
	.loc	6 241 23
	movzbl	-56(%rbp), %eax
	movq	%rax, -80(%rbp)
	testq	%rax, %rax
	.loc	6 241 17 is_stmt 0
	je	LBB206_5
	jmp	LBB206_18
LBB206_18:
	.loc	6 0 17
	movq	-80(%rbp), %rax
	.loc	6 241 17
	subq	$1, %rax
	je	LBB206_6
	jmp	LBB206_19
LBB206_19:
	jmp	LBB206_7
	.loc	6 241 23
	ud2
LBB206_5:
	.loc	6 0 23
	movq	-72(%rbp), %rdx
	.loc	6 242 39 is_stmt 1
	leaq	l___unnamed_2(%rip), %rdi
	movl	$3, %esi
	callq	__ZN4core9panicking5panic17hc1bc45270cf64b03E
LBB206_6:
	.loc	6 243 78
	movq	-32(%rbp), %rax
	movq	%rax, -64(%rbp)
	jmp	LBB206_13
LBB206_7:
	.loc	6 241 17
	testb	$1, -55(%rbp)
	jne	LBB206_6
	.loc	6 244 44
	movq	-48(%rbp), %rax
	movq	%rax, -88(%rbp)
	movq	%rax, -16(%rbp)
Ltmp789:
	.loc	6 245 28
	testb	$1, -40(%rbp)
	jne	LBB206_10
	.loc	6 0 28 is_stmt 0
	movq	-72(%rbp), %rsi
	movq	-88(%rbp), %rdi
	.loc	6 255 29 is_stmt 1
	callq	__ZN2az15saturating_cast17h4f63a352dd977569E
	movq	%rax, -64(%rbp)
	jmp	LBB206_13
LBB206_10:
	.loc	6 0 29 is_stmt 0
	movq	-88(%rbp), %rax
	.loc	6 246 37 is_stmt 1
	movq	%rax, -8(%rbp)
Ltmp790:
	.loc	6 247 32
	movabsq	$-9223372036854775808, %rcx
	cmpq	%rcx, %rax
	je	LBB206_12
	.loc	6 0 32 is_stmt 0
	movq	-88(%rbp), %rax
	.loc	6 249 39 is_stmt 1
	cmpq	$0, %rax
	jl	LBB206_15
	jmp	LBB206_14
LBB206_12:
	.loc	6 0 39 is_stmt 0
	movq	-72(%rbp), %rsi
	movq	-88(%rbp), %rdi
	.loc	6 248 33 is_stmt 1
	callq	__ZN2az15saturating_cast17h9661205e746a9398E
	movq	%rax, -64(%rbp)
Ltmp791:
LBB206_13:
	.loc	6 259 14
	movq	-64(%rbp), %rax
	addq	$96, %rsp
	popq	%rbp
	retq
LBB206_14:
	.loc	6 0 14 is_stmt 0
	movq	-88(%rbp), %rax
Ltmp792:
	.loc	6 252 49 is_stmt 1
	movabsq	$-9223372036854775808, %rcx
	cmpq	%rcx, %rax
	sete	%al
	testb	$1, %al
	jne	LBB206_17
	jmp	LBB206_16
LBB206_15:
	.loc	6 250 33
	movq	-32(%rbp), %rax
	movq	%rax, -64(%rbp)
	.loc	6 249 36
	jmp	LBB206_13
LBB206_16:
	.loc	6 0 36 is_stmt 0
	movq	-72(%rbp), %rsi
	movq	-88(%rbp), %rax
	.loc	6 252 49 is_stmt 1
	xorl	%ecx, %ecx
	movl	%ecx, %edi
	subq	%rax, %rdi
	.loc	6 252 33 is_stmt 0
	callq	__ZN2az15saturating_cast17h9661205e746a9398E
	movq	%rax, -64(%rbp)
	jmp	LBB206_13
LBB206_17:
	.loc	6 0 33
	movq	-72(%rbp), %rdx
	.loc	6 252 49
	leaq	_str.0(%rip), %rdi
	movl	$31, %esi
	callq	__ZN4core9panicking5panic17hc1bc45270cf64b03E
Ltmp793:
Lfunc_end206:
	.cfi_endproc

	.globl	__ZN2az3int66_$LT$impl$u20$az..OverflowingCast$LT$usize$GT$$u20$for$u20$f32$GT$16overflowing_cast17hd920c2dcdce2b7f7E
	.p2align	4, 0x90
__ZN2az3int66_$LT$impl$u20$az..OverflowingCast$LT$usize$GT$$u20$for$u20$f32$GT$16overflowing_cast17hd920c2dcdce2b7f7E:
Lfunc_begin207:
	.loc	6 272 0 is_stmt 1
	.cfi_startproc
	pushq	%rbp
	.cfi_def_cfa_offset 16
	.cfi_offset %rbp, -16
	movq	%rsp, %rbp
	.cfi_def_cfa_register %rbp
	subq	$176, %rsp
	movq	%rdi, -152(%rbp)
	movss	%xmm0, -76(%rbp)
	leaq	-120(%rbp), %rdi
Ltmp794:
	.loc	6 273 39 prologue_end
	callq	__ZN50_$LT$T$u20$as$u20$core..convert..Into$LT$U$GT$$GT$4into17hc0373b80baab8e63E
Ltmp795:
	.loc	6 274 23
	movzbl	-120(%rbp), %eax
	movq	%rax, -144(%rbp)
	testq	%rax, %rax
	.loc	6 274 17 is_stmt 0
	je	LBB207_2
	jmp	LBB207_15
LBB207_15:
	.loc	6 0 17
	movq	-144(%rbp), %rax
	.loc	6 274 17
	subq	$1, %rax
	je	LBB207_3
	jmp	LBB207_16
LBB207_16:
	jmp	LBB207_4
	.loc	6 274 23
	ud2
LBB207_2:
	.loc	6 0 23
	movq	-152(%rbp), %rdx
	.loc	6 275 39 is_stmt 1
	leaq	l___unnamed_2(%rip), %rdi
	movl	$3, %esi
	callq	__ZN4core9panicking5panic17hc1bc45270cf64b03E
LBB207_3:
	.loc	6 0 39 is_stmt 0
	movq	-152(%rbp), %rdx
	.loc	6 276 44 is_stmt 1
	leaq	L___unnamed_3(%rip), %rdi
	movl	$8, %esi
	callq	__ZN4core9panicking5panic17hc1bc45270cf64b03E
LBB207_4:
	.loc	6 277 44
	movq	-112(%rbp), %rax
	movq	%rax, -168(%rbp)
	movq	%rax, -72(%rbp)
	.loc	6 277 49 is_stmt 0
	movb	-119(%rbp), %al
	movb	%al, -153(%rbp)
	andb	$1, %al
	movb	%al, -57(%rbp)
Ltmp796:
	.loc	6 278 28 is_stmt 1
	testb	$1, -104(%rbp)
	jne	LBB207_6
	.loc	6 0 28 is_stmt 0
	movq	-152(%rbp), %rsi
	movq	-168(%rbp), %rdi
	.loc	6 289 56 is_stmt 1
	callq	__ZN2az16overflowing_cast17h67f0d5ac970318f2E
	movq	%rax, %rcx
	movb	-153(%rbp), %al
	.loc	6 289 34 is_stmt 0
	movq	%rcx, -32(%rbp)
	.loc	6 289 43
	movb	%dl, %sil
	andb	$1, %sil
	movb	%sil, -17(%rbp)
Ltmp797:
	.loc	6 290 39 is_stmt 1
	orb	%dl, %al
	.loc	6 290 29 is_stmt 0
	movq	%rcx, -136(%rbp)
	andb	$1, %al
	movb	%al, -128(%rbp)
Ltmp798:
	.loc	6 278 25 is_stmt 1
	jmp	LBB207_14
LBB207_6:
	.loc	6 0 25 is_stmt 0
	movq	-168(%rbp), %rax
	.loc	6 279 37 is_stmt 1
	movq	%rax, -56(%rbp)
Ltmp799:
	.loc	6 280 59
	movabsq	$-9223372036854775808, %rcx
	cmpq	%rcx, %rax
	je	LBB207_8
	.loc	6 0 59 is_stmt 0
	movq	-168(%rbp), %rax
	.loc	6 282 39 is_stmt 1
	cmpq	$0, %rax
	jl	LBB207_11
	jmp	LBB207_10
LBB207_8:
	.loc	6 0 39 is_stmt 0
	movq	-152(%rbp), %rsi
	movq	-168(%rbp), %rdi
	.loc	6 281 33 is_stmt 1
	callq	__ZN2az16overflowing_cast17h76b639efe45b69acE
	movb	%dl, -88(%rbp)
	movq	%rax, -96(%rbp)
LBB207_9:
	.loc	6 0 33 is_stmt 0
	movb	-153(%rbp), %al
	.loc	6 280 34 is_stmt 1
	movq	-96(%rbp), %rcx
	movq	%rcx, -48(%rbp)
	.loc	6 280 43 is_stmt 0
	movb	-88(%rbp), %dl
	movb	%dl, %sil
	andb	$1, %sil
	movb	%sil, -33(%rbp)
Ltmp800:
	.loc	6 287 39 is_stmt 1
	orb	%dl, %al
	.loc	6 287 29 is_stmt 0
	movq	%rcx, -136(%rbp)
	andb	$1, %al
	movb	%al, -128(%rbp)
Ltmp801:
	.loc	6 278 25 is_stmt 1
	jmp	LBB207_14
LBB207_10:
	.loc	6 0 25 is_stmt 0
	movq	-168(%rbp), %rax
Ltmp802:
	.loc	6 285 50 is_stmt 1
	movabsq	$-9223372036854775808, %rcx
	cmpq	%rcx, %rax
	sete	%al
	testb	$1, %al
	jne	LBB207_13
	jmp	LBB207_12
LBB207_11:
	.loc	6 0 50 is_stmt 0
	movq	-152(%rbp), %rsi
	movq	-168(%rbp), %rdi
	.loc	6 283 34 is_stmt 1
	callq	__ZN2az13wrapping_cast17h984f710877da11e4E
	movq	%rax, %rcx
	movq	%rcx, -16(%rbp)
Ltmp803:
	.loc	8 1352 40
	movq	%rcx, -8(%rbp)
Ltmp804:
	.loc	8 1203 13
	xorl	%eax, %eax
	subq	%rcx, %rax
Ltmp805:
	.loc	6 283 33
	movq	%rax, -96(%rbp)
	movb	$1, -88(%rbp)
	.loc	6 282 36
	jmp	LBB207_9
LBB207_12:
	.loc	6 0 36 is_stmt 0
	movq	-152(%rbp), %rsi
	movq	-168(%rbp), %rdi
	.loc	6 285 50 is_stmt 1
	negq	%rdi
	.loc	6 285 33 is_stmt 0
	callq	__ZN2az16overflowing_cast17h76b639efe45b69acE
	movb	%dl, -88(%rbp)
	movq	%rax, -96(%rbp)
	jmp	LBB207_9
LBB207_13:
	.loc	6 0 33
	movq	-152(%rbp), %rdx
	.loc	6 285 50
	leaq	_str.0(%rip), %rdi
	movl	$31, %esi
	callq	__ZN4core9panicking5panic17hc1bc45270cf64b03E
Ltmp806:
LBB207_14:
	.loc	6 294 14 is_stmt 1
	movq	-136(%rbp), %rax
	movb	-128(%rbp), %dl
	addq	$176, %rsp
	popq	%rbp
	retq
Ltmp807:
Lfunc_end207:
	.cfi_endproc

	.globl	__ZN2az3int99_$LT$impl$u20$az..CheckedCast$LT$core..num..wrapping..Wrapping$LT$usize$GT$$GT$$u20$for$u20$f32$GT$12checked_cast17h7e05fc7b770b8a8aE
	.p2align	4, 0x90
__ZN2az3int99_$LT$impl$u20$az..CheckedCast$LT$core..num..wrapping..Wrapping$LT$usize$GT$$GT$$u20$for$u20$f32$GT$12checked_cast17h7e05fc7b770b8a8aE:
Lfunc_begin208:
	.loc	6 316 0
	.cfi_startproc
	pushq	%rbp
	.cfi_def_cfa_offset 16
	.cfi_offset %rbp, -16
	movq	%rsp, %rbp
	.cfi_def_cfa_register %rbp
	subq	$112, %rsp
	movss	%xmm0, -36(%rbp)
	leaq	-80(%rbp), %rdi
Ltmp808:
	.loc	6 317 39 prologue_end
	callq	__ZN50_$LT$T$u20$as$u20$core..convert..Into$LT$U$GT$$GT$4into17hc0373b80baab8e63E
Ltmp809:
	.loc	6 318 23
	movzbl	-80(%rbp), %eax
	subq	$2, %rax
	.loc	6 318 17 is_stmt 0
	jb	LBB208_2
	jmp	LBB208_14
LBB208_14:
	jmp	LBB208_3
	.loc	6 318 23
	ud2
LBB208_2:
	.loc	6 319 61 is_stmt 1
	movq	$0, -96(%rbp)
	jmp	LBB208_13
LBB208_3:
	.loc	6 320 44
	movq	-72(%rbp), %rax
	movq	%rax, -104(%rbp)
	movq	%rax, -32(%rbp)
Ltmp810:
	.loc	6 321 42
	testb	$1, -64(%rbp)
	jne	LBB208_5
	.loc	6 0 42 is_stmt 0
	movq	-104(%rbp), %rdi
	.loc	6 331 29 is_stmt 1
	leaq	l___unnamed_10(%rip), %rsi
	callq	__ZN2az13wrapping_cast17h984f710877da11e4E
	movq	%rax, -56(%rbp)
	jmp	LBB208_8
LBB208_5:
	.loc	6 0 29 is_stmt 0
	movq	-104(%rbp), %rax
	.loc	6 322 37 is_stmt 1
	movq	%rax, -24(%rbp)
Ltmp811:
	.loc	6 323 32
	movabsq	$-9223372036854775808, %rcx
	cmpq	%rcx, %rax
	je	LBB208_7
	.loc	6 0 32 is_stmt 0
	movq	-104(%rbp), %rax
	.loc	6 325 39 is_stmt 1
	cmpq	$0, %rax
	jl	LBB208_10
	jmp	LBB208_9
LBB208_7:
	.loc	6 0 39 is_stmt 0
	movq	-104(%rbp), %rdi
	.loc	6 324 33 is_stmt 1
	leaq	l___unnamed_10(%rip), %rsi
	callq	__ZN2az13wrapping_cast17hea0a8388a0580d82E
	movq	%rax, -56(%rbp)
Ltmp812:
LBB208_8:
	.loc	6 333 39
	movq	-56(%rbp), %rax
	.loc	6 333 30 is_stmt 0
	movq	%rax, -48(%rbp)
	.loc	6 333 25
	movq	-48(%rbp), %rax
	movq	%rax, -88(%rbp)
	movq	$1, -96(%rbp)
Ltmp813:
	.loc	6 334 21 is_stmt 1
	jmp	LBB208_13
LBB208_9:
	.loc	6 0 21 is_stmt 0
	movq	-104(%rbp), %rax
Ltmp814:
	.loc	6 328 47 is_stmt 1
	movabsq	$-9223372036854775808, %rcx
	cmpq	%rcx, %rax
	sete	%al
	testb	$1, %al
	jne	LBB208_12
	jmp	LBB208_11
LBB208_10:
	.loc	6 0 47 is_stmt 0
	movq	-104(%rbp), %rdi
	.loc	6 326 33 is_stmt 1
	leaq	l___unnamed_10(%rip), %rsi
	callq	__ZN2az13wrapping_cast17h984f710877da11e4E
	movq	%rax, %rcx
	movq	%rcx, -16(%rbp)
Ltmp815:
	.loc	8 1352 40
	movq	%rcx, -8(%rbp)
Ltmp816:
	.loc	8 1203 13
	xorl	%eax, %eax
	subq	%rcx, %rax
Ltmp817:
	.loc	6 326 33
	movq	%rax, -56(%rbp)
	jmp	LBB208_8
LBB208_11:
	.loc	6 0 33 is_stmt 0
	movq	-104(%rbp), %rax
	.loc	6 328 47 is_stmt 1
	xorl	%ecx, %ecx
	movl	%ecx, %edi
	subq	%rax, %rdi
	.loc	6 328 33 is_stmt 0
	leaq	l___unnamed_10(%rip), %rsi
	callq	__ZN2az13wrapping_cast17hea0a8388a0580d82E
	movq	%rax, -56(%rbp)
	jmp	LBB208_8
LBB208_12:
	.loc	6 328 47
	leaq	_str.0(%rip), %rdi
	leaq	l___unnamed_10(%rip), %rdx
	movl	$31, %esi
	callq	__ZN4core9panicking5panic17hc1bc45270cf64b03E
Ltmp818:
LBB208_13:
	.loc	6 336 14 is_stmt 1
	movq	-96(%rbp), %rax
	movq	-88(%rbp), %rdx
	addq	$112, %rsp
	popq	%rbp
	retq
Ltmp819:
Lfunc_end208:
	.cfi_endproc

	.globl	__ZN2az3int59_$LT$impl$u20$az..CheckedCast$LT$i8$GT$$u20$for$u20$f64$GT$12checked_cast17h334b09da533bb397E
	.p2align	4, 0x90
__ZN2az3int59_$LT$impl$u20$az..CheckedCast$LT$i8$GT$$u20$for$u20$f64$GT$12checked_cast17h334b09da533bb397E:
Lfunc_begin209:
	.loc	6 210 0
	.cfi_startproc
	pushq	%rbp
	.cfi_def_cfa_offset 16
	.cfi_offset %rbp, -16
	movq	%rsp, %rbp
	.cfi_def_cfa_register %rbp
	subq	$64, %rsp
	movsd	%xmm0, -24(%rbp)
	leaq	-48(%rbp), %rdi
Ltmp820:
	.loc	6 211 39 prologue_end
	callq	__ZN50_$LT$T$u20$as$u20$core..convert..Into$LT$U$GT$$GT$4into17h45c612c5df7b6a31E
Ltmp821:
	.loc	6 212 23
	movzbl	-48(%rbp), %eax
	subq	$2, %rax
	.loc	6 212 17 is_stmt 0
	jb	LBB209_2
	jmp	LBB209_14
LBB209_14:
	jmp	LBB209_3
	.loc	6 212 23
	ud2
LBB209_2:
	.loc	6 213 95 is_stmt 1
	movb	$0, -56(%rbp)
	jmp	LBB209_9
LBB209_3:
	.loc	6 212 17
	testb	$1, -47(%rbp)
	jne	LBB209_2
	.loc	6 214 44
	movq	-40(%rbp), %rax
	movq	%rax, -64(%rbp)
	movq	%rax, -16(%rbp)
Ltmp822:
	.loc	6 215 28
	testb	$1, -32(%rbp)
	jne	LBB209_6
	.loc	6 0 28 is_stmt 0
	movq	-64(%rbp), %rdi
	.loc	6 225 29 is_stmt 1
	leaq	l___unnamed_11(%rip), %rsi
	callq	__ZN2az12checked_cast17hf129d03a2b3dc2c8E
	movb	%dl, -55(%rbp)
	movb	%al, -56(%rbp)
	jmp	LBB209_9
LBB209_6:
	.loc	6 0 29 is_stmt 0
	movq	-64(%rbp), %rax
	.loc	6 216 37 is_stmt 1
	movq	%rax, -8(%rbp)
Ltmp823:
	.loc	6 217 32
	movabsq	$-9223372036854775808, %rcx
	cmpq	%rcx, %rax
	je	LBB209_8
	.loc	6 0 32 is_stmt 0
	movq	-64(%rbp), %rax
	.loc	6 219 39 is_stmt 1
	cmpq	$0, %rax
	jl	LBB209_11
	jmp	LBB209_10
LBB209_8:
	.loc	6 0 39 is_stmt 0
	movq	-64(%rbp), %rdi
	.loc	6 218 33 is_stmt 1
	leaq	l___unnamed_11(%rip), %rsi
	callq	__ZN2az12checked_cast17h414d0f587666721dE
	movb	%dl, -55(%rbp)
	movb	%al, -56(%rbp)
Ltmp824:
LBB209_9:
	.loc	6 229 14
	movb	-56(%rbp), %al
	movb	-55(%rbp), %dl
	addq	$64, %rsp
	popq	%rbp
	retq
LBB209_10:
	.loc	6 0 14 is_stmt 0
	movq	-64(%rbp), %rax
Ltmp825:
	.loc	6 222 46 is_stmt 1
	movabsq	$-9223372036854775808, %rcx
	cmpq	%rcx, %rax
	sete	%al
	testb	$1, %al
	jne	LBB209_13
	jmp	LBB209_12
LBB209_11:
	.loc	6 220 33
	movb	$0, -56(%rbp)
	.loc	6 219 36
	jmp	LBB209_9
LBB209_12:
	.loc	6 0 36 is_stmt 0
	movq	-64(%rbp), %rdi
	.loc	6 222 46 is_stmt 1
	negq	%rdi
	.loc	6 222 33 is_stmt 0
	leaq	l___unnamed_11(%rip), %rsi
	callq	__ZN2az12checked_cast17h414d0f587666721dE
	movb	%dl, -55(%rbp)
	movb	%al, -56(%rbp)
	jmp	LBB209_9
LBB209_13:
	.loc	6 222 46
	leaq	_str.0(%rip), %rdi
	leaq	l___unnamed_11(%rip), %rdx
	movl	$31, %esi
	callq	__ZN4core9panicking5panic17hc1bc45270cf64b03E
Ltmp826:
Lfunc_end209:
	.cfi_endproc

	.globl	__ZN2az3int62_$LT$impl$u20$az..SaturatingCast$LT$i8$GT$$u20$for$u20$f64$GT$15saturating_cast17h2a3e8fc10afb1a09E
	.p2align	4, 0x90
__ZN2az3int62_$LT$impl$u20$az..SaturatingCast$LT$i8$GT$$u20$for$u20$f64$GT$15saturating_cast17h2a3e8fc10afb1a09E:
Lfunc_begin210:
	.loc	6 234 0 is_stmt 1
	.cfi_startproc
	pushq	%rbp
	.cfi_def_cfa_offset 16
	.cfi_offset %rbp, -16
