	.section	__TEXT,__text,regular,pure_instructions
	.macosx_version_min 10, 7
	.globl	__ZN42_$LT$$RF$T$u20$as$u20$core..fmt..Debug$GT$3fmt17h240a182fd3d6ccffE
	.p2align	4, 0x90
__ZN42_$LT$$RF$T$u20$as$u20$core..fmt..Debug$GT$3fmt17h240a182fd3d6ccffE:
Lfunc_begin0:
	.file	1 "/rustc/2c8cc343237b8f7d5a3c3703e3a87f2eb2c54a74/library/core/src/fmt" "mod.rs"
	.loc	1 2377 0
	.cfi_startproc
	pushq	%rbp
	.cfi_def_cfa_offset 16
	.cfi_offset %rbp, -16
	movq	%rsp, %rbp
	.cfi_def_cfa_register %rbp
	subq	$16, %rsp
	movq	%rdi, -16(%rbp)
	movq	%rsi, -8(%rbp)
Ltmp0:
	.loc	1 2377 71 prologue_end
	movq	(%rdi), %rdi
	.loc	1 2377 62 is_stmt 0
	callq	__ZN72_$LT$bytemuck..checked..CheckedCastError$u20$as$u20$core..fmt..Debug$GT$3fmt17h3af65c5e8471e609E
	.loc	1 2377 84
	andb	$1, %al
	movzbl	%al, %eax
	addq	$16, %rsp
	popq	%rbp
	retq
Ltmp1:
Lfunc_end0:
	.cfi_endproc

	.globl	__ZN42_$LT$$RF$T$u20$as$u20$core..fmt..Debug$GT$3fmt17h387ee038d8b6ca61E
	.p2align	4, 0x90
__ZN42_$LT$$RF$T$u20$as$u20$core..fmt..Debug$GT$3fmt17h387ee038d8b6ca61E:
Lfunc_begin1:
	.loc	1 2377 0 is_stmt 1
	.cfi_startproc
	pushq	%rbp
	.cfi_def_cfa_offset 16
	.cfi_offset %rbp, -16
	movq	%rsp, %rbp
	.cfi_def_cfa_register %rbp
	subq	$16, %rsp
	movq	%rdi, -16(%rbp)
	movq	%rsi, -8(%rbp)
Ltmp2:
	.loc	1 2377 71 prologue_end
	movq	(%rdi), %rdi
	.loc	1 2377 62 is_stmt 0
	callq	__ZN59_$LT$bytemuck..PodCastError$u20$as$u20$core..fmt..Debug$GT$3fmt17hf7e407b643a39436E
	.loc	1 2377 84
	andb	$1, %al
	movzbl	%al, %eax
	addq	$16, %rsp
	popq	%rbp
	retq
Ltmp3:
Lfunc_end1:
	.cfi_endproc

	.globl	__ZN4core3fmt10ArgumentV19new_debug17h8dacf6a43fae07e8E
	.p2align	4, 0x90
__ZN4core3fmt10ArgumentV19new_debug17h8dacf6a43fae07e8E:
Lfunc_begin2:
	.loc	1 327 0 is_stmt 1
	.cfi_startproc
	pushq	%rbp
	.cfi_def_cfa_offset 16
	.cfi_offset %rbp, -16
	movq	%rsp, %rbp
	.cfi_def_cfa_register %rbp
	subq	$56, %rsp
	movq	%rdi, -40(%rbp)
Ltmp4:
	.loc	1 328 23 prologue_end
	movq	%rdi, -32(%rbp)
	.loc	1 328 26 is_stmt 0
	leaq	__ZN42_$LT$$RF$T$u20$as$u20$core..fmt..Debug$GT$3fmt17h387ee038d8b6ca61E(%rip), %rax
	movq	%rax, -24(%rbp)
Ltmp5:
	.loc	1 347 42 is_stmt 1
	movq	%rax, -16(%rbp)
	movq	-16(%rbp), %rax
	.loc	1 347 68 is_stmt 0
	movq	%rdi, -8(%rbp)
	movq	-8(%rbp), %rcx
	.loc	1 347 18
	movq	%rcx, -56(%rbp)
	movq	%rax, -48(%rbp)
Ltmp6:
	.loc	1 329 10 is_stmt 1
	movq	-56(%rbp), %rax
	movq	-48(%rbp), %rdx
	addq	$56, %rsp
	popq	%rbp
	retq
Ltmp7:
Lfunc_end2:
	.cfi_endproc

	.globl	__ZN4core3fmt10ArgumentV19new_debug17hb270101da2e3b7c3E
	.p2align	4, 0x90
__ZN4core3fmt10ArgumentV19new_debug17hb270101da2e3b7c3E:
Lfunc_begin3:
	.loc	1 327 0
	.cfi_startproc
	pushq	%rbp
	.cfi_def_cfa_offset 16
	.cfi_offset %rbp, -16
	movq	%rsp, %rbp
	.cfi_def_cfa_register %rbp
	subq	$56, %rsp
	movq	%rdi, -40(%rbp)
Ltmp8:
	.loc	1 328 23 prologue_end
	movq	%rdi, -32(%rbp)
	.loc	1 328 26 is_stmt 0
	leaq	__ZN42_$LT$$RF$T$u20$as$u20$core..fmt..Debug$GT$3fmt17h240a182fd3d6ccffE(%rip), %rax
	movq	%rax, -24(%rbp)
Ltmp9:
	.loc	1 347 42 is_stmt 1
	movq	%rax, -16(%rbp)
	movq	-16(%rbp), %rax
	.loc	1 347 68 is_stmt 0
	movq	%rdi, -8(%rbp)
	movq	-8(%rbp), %rcx
	.loc	1 347 18
	movq	%rcx, -56(%rbp)
	movq	%rax, -48(%rbp)
Ltmp10:
	.loc	1 329 10 is_stmt 1
	movq	-56(%rbp), %rax
	movq	-48(%rbp), %rdx
	addq	$56, %rsp
	popq	%rbp
	retq
Ltmp11:
Lfunc_end3:
	.cfi_endproc

	.p2align	4, 0x90
__ZN4core3fmt9Arguments6new_v117hcd90dc38350d896dE:
Lfunc_begin4:
	.loc	1 399 0
	.cfi_startproc
	pushq	%rbp
	.cfi_def_cfa_offset 16
	.cfi_offset %rbp, -16
	movq	%rsp, %rbp
	.cfi_def_cfa_register %rbp
	subq	$160, %rsp
	movq	%r8, -152(%rbp)
	movq	%rcx, -144(%rbp)
	movq	%rdx, -136(%rbp)
	movq	%rsi, -128(%rbp)
	movq	%rdi, -120(%rbp)
	movq	%rdi, -112(%rbp)
	movq	%rsi, -32(%rbp)
	movq	%rdx, -24(%rbp)
	movq	%rcx, -16(%rbp)
	movq	%r8, -8(%rbp)
Ltmp12:
	.loc	1 400 12 prologue_end
	cmpq	%r8, %rdx
	jb	LBB4_2
	.loc	1 0 12 is_stmt 0
	movq	-136(%rbp), %rax
	movq	-152(%rbp), %rcx
	.loc	1 400 56
	addq	$1, %rcx
	.loc	1 400 41
	cmpq	%rcx, %rax
	seta	%al
	.loc	1 400 12
	andb	$1, %al
	movb	%al, -97(%rbp)
	jmp	LBB4_3
LBB4_2:
	movb	$1, -97(%rbp)
LBB4_3:
	testb	$1, -97(%rbp)
	jne	LBB4_5
	.loc	1 0 12
	movq	-112(%rbp), %rax
	movq	-120(%rbp), %rcx
	movq	-152(%rbp), %rdx
	movq	-144(%rbp), %rsi
	movq	-136(%rbp), %rdi
	movq	-128(%rbp), %r8
	.loc	1 403 34 is_stmt 1
	movq	$0, -48(%rbp)
	.loc	1 403 9 is_stmt 0
	movq	%r8, 16(%rcx)
	movq	%rdi, 24(%rcx)
	movq	-48(%rbp), %r8
	movq	-40(%rbp), %rdi
	movq	%r8, (%rcx)
	movq	%rdi, 8(%rcx)
	movq	%rsi, 32(%rcx)
	movq	%rdx, 40(%rcx)
	.loc	1 404 6 is_stmt 1
	addq	$160, %rsp
	popq	%rbp
	retq
LBB4_5:
	.loc	1 401 13
	leaq	l___unnamed_2(%rip), %rsi
	leaq	l___unnamed_3(%rip), %rcx
	xorl	%eax, %eax
	movl	%eax, %r8d
	leaq	-96(%rbp), %rdi
	movq	%rdi, -160(%rbp)
	movl	$1, %edx
	callq	__ZN4core3fmt9Arguments6new_v117hcd90dc38350d896dE
	movq	-160(%rbp), %rdi
	leaq	l___unnamed_4(%rip), %rsi
	callq	__ZN4core9panicking9panic_fmt17h9b5d807e24bcaaedE
Ltmp13:
Lfunc_end4:
	.cfi_endproc

	.p2align	4, 0x90
__ZN4core3ptr47drop_in_place$LT$$RF$bytemuck..PodCastError$GT$17h725effe080979f70E:
Lfunc_begin5:
	.file	2 "/rustc/2c8cc343237b8f7d5a3c3703e3a87f2eb2c54a74/library/core/src/ptr" "mod.rs"
	.loc	2 490 0
	.cfi_startproc
	pushq	%rbp
	.cfi_def_cfa_offset 16
	.cfi_offset %rbp, -16
	movq	%rsp, %rbp
	.cfi_def_cfa_register %rbp
	pushq	%rax
	movq	%rdi, -8(%rbp)
Ltmp14:
	.loc	2 490 1 prologue_end
	addq	$8, %rsp
	popq	%rbp
	retq
Ltmp15:
Lfunc_end5:
	.cfi_endproc

	.globl	__ZN74_$LT$bytemuck..checked..CheckedCastError$u20$as$u20$core..fmt..Display$GT$3fmt17he4181308dad55b2cE
	.p2align	4, 0x90
__ZN74_$LT$bytemuck..checked..CheckedCastError$u20$as$u20$core..fmt..Display$GT$3fmt17he4181308dad55b2cE:
Lfunc_begin6:
	.file	3 "/Users/natalie/.cargo/registry/src/github.com-1ecc6299db9ec823/bytemuck-1.12.1" "src/checked.rs"
	.loc	3 188 0
	.cfi_startproc
	pushq	%rbp
	.cfi_def_cfa_offset 16
	.cfi_offset %rbp, -16
	movq	%rsp, %rbp
	.cfi_def_cfa_register %rbp
	subq	$96, %rsp
	movq	%rsi, -88(%rbp)
	movq	%rdi, -80(%rbp)
	movq	%rsi, -8(%rbp)
Ltmp16:
	.loc	3 189 5 prologue_end
	leaq	-80(%rbp), %rdi
	callq	__ZN4core3fmt10ArgumentV19new_debug17hb270101da2e3b7c3E
	movq	%rax, -24(%rbp)
	movq	%rdx, -16(%rbp)
	leaq	-72(%rbp), %rdi
	leaq	l___unnamed_5(%rip), %rsi
	movl	$1, %r8d
	leaq	-24(%rbp), %rcx
	movq	%r8, %rdx
	callq	__ZN4core3fmt9Arguments6new_v117hcd90dc38350d896dE
	movq	-88(%rbp), %rdi
	leaq	-72(%rbp), %rsi
	callq	__ZN4core3fmt9Formatter9write_fmt17h9bb7721c944aee26E
	.loc	3 190 4
	andb	$1, %al
	movzbl	%al, %eax
	addq	$96, %rsp
	popq	%rbp
	retq
Ltmp17:
Lfunc_end6:
	.cfi_endproc

	.globl	__ZN105_$LT$bytemuck..checked..CheckedCastError$u20$as$u20$core..convert..From$LT$bytemuck..PodCastError$GT$$GT$4from17haa0bece233033673E
	.p2align	4, 0x90
__ZN105_$LT$bytemuck..checked..CheckedCastError$u20$as$u20$core..convert..From$LT$bytemuck..PodCastError$GT$$GT$4from17haa0bece233033673E:
Lfunc_begin7:
	.loc	3 196 0
	.cfi_startproc
	pushq	%rbp
	.cfi_def_cfa_offset 16
	.cfi_offset %rbp, -16
	movq	%rsp, %rbp
	.cfi_def_cfa_register %rbp
	subq	$2, %rsp
	movb	%dil, %al
	movb	%al, -1(%rbp)
Ltmp18:
	.loc	3 197 5 prologue_end
	movb	%al, -2(%rbp)
	.loc	3 198 4
	movb	-2(%rbp), %al
	addq	$2, %rsp
	popq	%rbp
	retq
Ltmp19:
Lfunc_end7:
	.cfi_endproc

	.globl	__ZN61_$LT$bytemuck..PodCastError$u20$as$u20$core..fmt..Display$GT$3fmt17he8a013feeb816bb0E
	.p2align	4, 0x90
__ZN61_$LT$bytemuck..PodCastError$u20$as$u20$core..fmt..Display$GT$3fmt17he8a013feeb816bb0E:
Lfunc_begin8:
	.file	4 "/Users/natalie/.cargo/registry/src/github.com-1ecc6299db9ec823/bytemuck-1.12.1" "src/lib.rs"
	.loc	4 143 0
	.cfi_startproc
	pushq	%rbp
	.cfi_def_cfa_offset 16
	.cfi_offset %rbp, -16
	movq	%rsp, %rbp
	.cfi_def_cfa_register %rbp
	subq	$96, %rsp
	movq	%rsi, -88(%rbp)
	movq	%rdi, -80(%rbp)
	movq	%rsi, -8(%rbp)
Ltmp20:
	.loc	4 144 5 prologue_end
	leaq	-80(%rbp), %rdi
	callq	__ZN4core3fmt10ArgumentV19new_debug17h8dacf6a43fae07e8E
	movq	%rax, -24(%rbp)
	movq	%rdx, -16(%rbp)
	leaq	-72(%rbp), %rdi
	leaq	l___unnamed_5(%rip), %rsi
	movl	$1, %r8d
	leaq	-24(%rbp), %rcx
	movq	%r8, %rdx
	callq	__ZN4core3fmt9Arguments6new_v117hcd90dc38350d896dE
	movq	-88(%rbp), %rdi
	leaq	-72(%rbp), %rsi
	callq	__ZN4core3fmt9Formatter9write_fmt17h9bb7721c944aee26E
	.loc	4 145 4
	andb	$1, %al
	movzbl	%al, %eax
	addq	$96, %rsp
	popq	%rbp
	retq
Ltmp21:
Lfunc_end8:
	.cfi_endproc

	.globl	__ZN72_$LT$bytemuck..checked..CheckedCastError$u20$as$u20$core..fmt..Debug$GT$3fmt17h3af65c5e8471e609E
	.p2align	4, 0x90
__ZN72_$LT$bytemuck..checked..CheckedCastError$u20$as$u20$core..fmt..Debug$GT$3fmt17h3af65c5e8471e609E:
Lfunc_begin9:
	.loc	3 175 0
	.cfi_startproc
	pushq	%rbp
	.cfi_def_cfa_offset 16
	.cfi_offset %rbp, -16
	movq	%rsp, %rbp
	.cfi_def_cfa_register %rbp
	subq	$48, %rsp
	movq	%rdi, -48(%rbp)
	movq	%rsi, -40(%rbp)
	movq	%rdi, -16(%rbp)
	movq	%rsi, -8(%rbp)
Ltmp22:
	.loc	3 175 10 prologue_end
	xorl	%eax, %eax
	movl	$1, %ecx
	cmpb	$4, (%rdi)
	cmoveq	%rcx, %rax
	cmpq	$0, %rax
	jne	LBB9_2
	.loc	3 0 10 is_stmt 0
	movq	-40(%rbp), %rdi
	movq	-48(%rbp), %rax
	.loc	3 178 16 is_stmt 1
	movq	%rax, -24(%rbp)
Ltmp23:
	.loc	3 175 10
	leaq	l___unnamed_6(%rip), %rsi
	movl	$12, %edx
	leaq	-24(%rbp), %rcx
	leaq	l___unnamed_1(%rip), %r8
	callq	__ZN4core3fmt9Formatter25debug_tuple_field1_finish17h7c0e485bb1c7676eE
	andb	$1, %al
	movb	%al, -25(%rbp)
	jmp	LBB9_3
Ltmp24:
LBB9_2:
	.loc	3 0 10 is_stmt 0
	movq	-40(%rbp), %rdi
	.loc	3 175 10
	leaq	l___unnamed_7(%rip), %rsi
	movl	$17, %edx
	callq	__ZN4core3fmt9Formatter9write_str17hb029d9999327a35fE
	andb	$1, %al
	movb	%al, -25(%rbp)
LBB9_3:
	.loc	3 175 15
	movb	-25(%rbp), %al
	andb	$1, %al
	movzbl	%al, %eax
	addq	$48, %rsp
	popq	%rbp
	retq
Ltmp25:
Lfunc_end9:
	.cfi_endproc

	.globl	__ZN59_$LT$bytemuck..PodCastError$u20$as$u20$core..fmt..Debug$GT$3fmt17hf7e407b643a39436E
	.p2align	4, 0x90
__ZN59_$LT$bytemuck..PodCastError$u20$as$u20$core..fmt..Debug$GT$3fmt17hf7e407b643a39436E:
Lfunc_begin10:
	.loc	4 120 0 is_stmt 1
	.cfi_startproc
	pushq	%rbp
	.cfi_def_cfa_offset 16
	.cfi_offset %rbp, -16
	movq	%rsp, %rbp
	.cfi_def_cfa_register %rbp
	subq	$48, %rsp
	movq	%rsi, -48(%rbp)
	movq	%rdi, -16(%rbp)
	movq	%rsi, -8(%rbp)
Ltmp26:
	.loc	4 120 10 prologue_end
	movzbl	(%rdi), %eax
	movq	%rax, -40(%rbp)
	.loc	4 0 10 is_stmt 0
	movq	-40(%rbp), %rax
	leaq	LJTI10_0(%rip), %rcx
	movslq	(%rcx,%rax,4), %rax
	addq	%rcx, %rax
	jmpq	*%rax
	.loc	4 120 10
	ud2
LBB10_2:
	leaq	l___unnamed_8(%rip), %rax
	movq	%rax, -32(%rbp)
	movq	$40, -24(%rbp)
	.loc	4 120 14
	jmp	LBB10_6
LBB10_3:
	.loc	4 120 10
	leaq	l___unnamed_9(%rip), %rax
	movq	%rax, -32(%rbp)
	movq	$24, -24(%rbp)
	.loc	4 120 14
	jmp	LBB10_6
LBB10_4:
	.loc	4 120 10
	leaq	l___unnamed_10(%rip), %rax
	movq	%rax, -32(%rbp)
	movq	$12, -24(%rbp)
	.loc	4 120 14
	jmp	LBB10_6
LBB10_5:
	.loc	4 120 10
	leaq	l___unnamed_11(%rip), %rax
	movq	%rax, -32(%rbp)
	movq	$17, -24(%rbp)
LBB10_6:
	.loc	4 0 10
	movq	-48(%rbp), %rdi
	.loc	4 120 10
	movq	-32(%rbp), %rsi
	movq	-24(%rbp), %rdx
	callq	__ZN4core3fmt9Formatter9write_str17hb029d9999327a35fE
	.loc	4 120 15
	andb	$1, %al
	movzbl	%al, %eax
	addq	$48, %rsp
	popq	%rbp
	retq
Ltmp27:
Lfunc_end10:
	.cfi_endproc
	.p2align	2, 0x90
	.data_region jt32
.set L10_0_set_2, LBB10_2-LJTI10_0
.set L10_0_set_3, LBB10_3-LJTI10_0
.set L10_0_set_4, LBB10_4-LJTI10_0
.set L10_0_set_5, LBB10_5-LJTI10_0
LJTI10_0:
	.long	L10_0_set_2
	.long	L10_0_set_3
	.long	L10_0_set_4
	.long	L10_0_set_5
	.end_data_region

	.section	__TEXT,__const
l___unnamed_12:
	.ascii	"invalid args"

	.section	__DATA,__const
	.p2align	3
l___unnamed_2:
	.quad	l___unnamed_12
	.asciz	"\f\000\000\000\000\000\000"

	.section	__TEXT,__const
	.p2align	3
l___unnamed_3:
	.byte	0

l___unnamed_13:
	.ascii	"/rustc/2c8cc343237b8f7d5a3c3703e3a87f2eb2c54a74/library/core/src/fmt/mod.rs"

	.section	__DATA,__const
	.p2align	3
l___unnamed_4:
	.quad	l___unnamed_13
	.asciz	"K\000\000\000\000\000\000\000\221\001\000\000\r\000\000"

	.p2align	3
l___unnamed_5:
	.quad	l___unnamed_3
	.space	8

	.section	__TEXT,__const
l___unnamed_7:
	.ascii	"InvalidBitPattern"

l___unnamed_6:
	.ascii	"PodCastError"

	.section	__DATA,__const
	.p2align	3
l___unnamed_1:
	.quad	__ZN4core3ptr47drop_in_place$LT$$RF$bytemuck..PodCastError$GT$17h725effe080979f70E
	.asciz	"\b\000\000\000\000\000\000\000\b\000\000\000\000\000\000"
	.quad	__ZN42_$LT$$RF$T$u20$as$u20$core..fmt..Debug$GT$3fmt17h387ee038d8b6ca61E

	.section	__TEXT,__const
l___unnamed_11:
	.ascii	"AlignmentMismatch"

l___unnamed_10:
	.ascii	"SizeMismatch"

l___unnamed_9:
	.ascii	"OutputSliceWouldHaveSlop"

l___unnamed_8:
	.ascii	"TargetAlignmentGreaterAndInputNotAligned"

	.section	__DATA,__const
Lsec_end0:
	.section	__TEXT,__text,regular,pure_instructions
Lsec_end1: