	.section	__TEXT,__text,regular,pure_instructions
	.macosx_version_min 10, 7
	.globl	__ZN36_$LT$T$u20$as$u20$core..any..Any$GT$7type_id17ha8f167a2ce588ee2E
	.p2align	4, 0x90
__ZN36_$LT$T$u20$as$u20$core..any..Any$GT$7type_id17ha8f167a2ce588ee2E:
Lfunc_begin0:
	.file	1 "/rustc/2c8cc343237b8f7d5a3c3703e3a87f2eb2c54a74/library/core/src" "any.rs"
	.loc	1 201 0
	.cfi_startproc
	pushq	%rbp
	.cfi_def_cfa_offset 16
	.cfi_offset %rbp, -16
	movq	%rsp, %rbp
	.cfi_def_cfa_register %rbp
	subq	$16, %rsp
	movq	%rdi, -8(%rbp)
Ltmp0:
	.loc	1 202 9 prologue_end
	callq	__ZN4core3any6TypeId2of17hec2571457246051dE
	.loc	1 203 6
	addq	$16, %rsp
	popq	%rbp
	retq
Ltmp1:
Lfunc_end0:
	.cfi_endproc

	.globl	__ZN3std10sys_common9backtrace26__rust_end_short_backtrace17h232098584fec7a2bE
	.p2align	4, 0x90
__ZN3std10sys_common9backtrace26__rust_end_short_backtrace17h232098584fec7a2bE:
Lfunc_begin1:
	.file	2 "/rustc/2c8cc343237b8f7d5a3c3703e3a87f2eb2c54a74/library/std/src/sys_common" "backtrace.rs"
	.loc	2 133 0
	.cfi_startproc
	pushq	%rbp
	.cfi_def_cfa_offset 16
	.cfi_offset %rbp, -16
	movq	%rsp, %rbp
	.cfi_def_cfa_register %rbp
	subq	$64, %rsp
Ltmp2:
	.loc	2 137 18 prologue_end
	movq	(%rdi), %rax
	movq	%rax, -56(%rbp)
	movq	8(%rdi), %rax
	movq	%rax, -48(%rbp)
	movq	16(%rdi), %rax
	movq	%rax, -40(%rbp)
	leaq	-56(%rbp), %rdi
Ltmp3:
	callq	__ZN3std9panicking11begin_panic28_$u7b$$u7b$closure$u7d$$u7d$17hbb6acb41e96fb02dE
Ltmp4:
	.file	3 "/rustc/2c8cc343237b8f7d5a3c3703e3a87f2eb2c54a74/library/core/src" "hint.rs"
	.loc	3 295 5
	## InlineAsm Start
	## InlineAsm End
Ltmp5:
	.loc	2 143 2
	ud2
Ltmp6:
Lfunc_end1:
	.cfi_endproc

	.globl	__ZN3std9panicking11begin_panic17hc1e0e5ed2837c5bdE
	.p2align	4, 0x90
__ZN3std9panicking11begin_panic17hc1e0e5ed2837c5bdE:
Lfunc_begin2:
	.file	4 "/rustc/2c8cc343237b8f7d5a3c3703e3a87f2eb2c54a74/library/std/src" "panicking.rs"
	.loc	4 601 0
	.cfi_startproc
	.cfi_personality 155, _rust_eh_personality
	.cfi_lsda 16, Lexception0
	pushq	%rbp
	.cfi_def_cfa_offset 16
	.cfi_offset %rbp, -16
	movq	%rsp, %rbp
	.cfi_def_cfa_register %rbp
	subq	$112, %rsp
	movq	%rdi, -104(%rbp)
	movq	%rsi, -96(%rbp)
	movq	%rdi, -48(%rbp)
	movq	%rsi, -40(%rbp)
Ltmp10:
	.loc	4 602 5 prologue_end
	movb	$1, -49(%rbp)
Ltmp11:
	.file	5 "/rustc/2c8cc343237b8f7d5a3c3703e3a87f2eb2c54a74/library/core/src/panic" "location.rs"
	.loc	5 88 9
	movq	%rdx, -32(%rbp)
	movq	-32(%rbp), %rax
	movq	%rax, -88(%rbp)
	movq	%rax, -24(%rbp)
Ltmp12:
	.loc	5 0 9 is_stmt 0
	movq	-88(%rbp), %rax
	movq	-96(%rbp), %rcx
	movq	-104(%rbp), %rdx
Ltmp13:
	.loc	4 607 69 is_stmt 1
	movb	$0, -49(%rbp)
	movq	%rdx, -80(%rbp)
	movq	%rcx, -72(%rbp)
	movq	%rax, -64(%rbp)
Ltmp7:
	leaq	-80(%rbp), %rdi
	.loc	4 607 12 is_stmt 0
	callq	__ZN3std10sys_common9backtrace26__rust_end_short_backtrace17h232098584fec7a2bE
Ltmp8:
	jmp	LBB2_4
Ltmp14:
LBB2_2:
	.loc	4 642 1 is_stmt 1
	testb	$1, -49(%rbp)
	jne	LBB2_6
	jmp	LBB2_5
LBB2_3:
Ltmp9:
	.loc	4 0 1 is_stmt 0
	movq	%rax, %rcx
	movl	%edx, %eax
	movq	%rcx, -16(%rbp)
	movl	%eax, -8(%rbp)
	jmp	LBB2_2
LBB2_4:
	ud2
LBB2_5:
	.loc	4 601 1 is_stmt 1
	movq	-16(%rbp), %rdi
	callq	__Unwind_Resume
LBB2_6:
	.loc	4 642 1
	jmp	LBB2_5
Ltmp15:
Lfunc_end2:
	.cfi_endproc
	.section	__TEXT,__gcc_except_tab
	.p2align	2
GCC_except_table2:
Lexception0:
	.byte	255
	.byte	255
	.byte	1
	.uleb128 Lcst_end0-Lcst_begin0
Lcst_begin0:
	.uleb128 Ltmp7-Lfunc_begin2
	.uleb128 Ltmp8-Ltmp7
	.uleb128 Ltmp9-Lfunc_begin2
	.byte	0
	.uleb128 Ltmp8-Lfunc_begin2
	.uleb128 Lfunc_end2-Ltmp8
	.byte	0
	.byte	0
Lcst_end0:
	.p2align	2

	.section	__TEXT,__text,regular,pure_instructions
	.globl	__ZN3std9panicking11begin_panic21PanicPayload$LT$A$GT$3new17h415af0df82871f03E
	.p2align	4, 0x90
__ZN3std9panicking11begin_panic21PanicPayload$LT$A$GT$3new17h415af0df82871f03E:
Lfunc_begin3:
	.loc	4 616 0
	.cfi_startproc
	pushq	%rbp
	.cfi_def_cfa_offset 16
	.cfi_offset %rbp, -16
	movq	%rsp, %rbp
	.cfi_def_cfa_register %rbp
	subq	$48, %rsp
	movq	%rdi, -16(%rbp)
	movq	%rsi, -8(%rbp)
Ltmp16:
	.loc	4 617 35 prologue_end
	movq	%rdi, -32(%rbp)
	movq	%rsi, -24(%rbp)
	.loc	4 617 13 is_stmt 0
	movq	-32(%rbp), %rcx
	movq	-24(%rbp), %rax
	movq	%rcx, -48(%rbp)
	movq	%rax, -40(%rbp)
	.loc	4 618 10 is_stmt 1
	movq	-48(%rbp), %rax
	movq	-40(%rbp), %rdx
	addq	$48, %rsp
	popq	%rbp
	retq
Ltmp17:
Lfunc_end3:
	.cfi_endproc

	.globl	__ZN3std9panicking11begin_panic28_$u7b$$u7b$closure$u7d$$u7d$17hbb6acb41e96fb02dE
	.p2align	4, 0x90
__ZN3std9panicking11begin_panic28_$u7b$$u7b$closure$u7d$$u7d$17hbb6acb41e96fb02dE:
Lfunc_begin4:
	.loc	4 607 0
	.cfi_startproc
	.cfi_personality 155, _rust_eh_personality
	.cfi_lsda 16, Lexception1
	pushq	%rbp
	.cfi_def_cfa_offset 16
	.cfi_offset %rbp, -16
	movq	%rsp, %rbp
	.cfi_def_cfa_register %rbp
	subq	$48, %rsp
	movq	%rdi, %rax
	movq	%rax, -48(%rbp)
Ltmp21:
	.loc	4 608 53 prologue_end
	movq	(%rax), %rdi
	movq	8(%rax), %rsi
	.loc	4 608 35 is_stmt 0
	callq	__ZN3std9panicking11begin_panic21PanicPayload$LT$A$GT$3new17h415af0df82871f03E
	movq	-48(%rbp), %rdi
	movq	%rdx, -32(%rbp)
	movq	%rax, -40(%rbp)
	.loc	4 608 59
	movq	$0, -24(%rbp)
	.loc	4 608 65
	movq	16(%rdi), %rcx
	.loc	4 608 9
	movq	-24(%rbp), %rdx
Ltmp18:
	leaq	l___unnamed_1(%rip), %rsi
	leaq	-40(%rbp), %rdi
	movl	$1, %r8d
	callq	__ZN3std9panicking20rust_panic_with_hook17h479ead1480e59d8dE
Ltmp19:
	jmp	LBB4_3
Ltmp22:
LBB4_1:
	.loc	4 607 69 is_stmt 1
	movq	-16(%rbp), %rdi
	callq	__Unwind_Resume
Ltmp23:
LBB4_2:
Ltmp20:
	.loc	4 0 69 is_stmt 0
	movq	%rax, %rcx
	movl	%edx, %eax
	movq	%rcx, -16(%rbp)
	movl	%eax, -8(%rbp)
	jmp	LBB4_1
Ltmp24:
LBB4_3:
	ud2
Lfunc_end4:
	.cfi_endproc
	.section	__TEXT,__gcc_except_tab
	.p2align	2
GCC_except_table4:
Lexception1:
	.byte	255
	.byte	255
	.byte	1
	.uleb128 Lcst_end1-Lcst_begin1
Lcst_begin1:
	.uleb128 Lfunc_begin4-Lfunc_begin4
	.uleb128 Ltmp18-Lfunc_begin4
	.byte	0
	.byte	0
	.uleb128 Ltmp18-Lfunc_begin4
	.uleb128 Ltmp19-Ltmp18
	.uleb128 Ltmp20-Lfunc_begin4
	.byte	0
	.uleb128 Ltmp19-Lfunc_begin4
	.uleb128 Lfunc_end4-Ltmp19
	.byte	0
	.byte	0
Lcst_end1:
	.p2align	2

	.section	__TEXT,__text,regular,pure_instructions
	.globl	__ZN4core3any6TypeId2of17hec2571457246051dE
	.p2align	4, 0x90
__ZN4core3any6TypeId2of17hec2571457246051dE:
Lfunc_begin5:
	.loc	1 691 0 is_stmt 1
	.cfi_startproc
	pushq	%rbp
	.cfi_def_cfa_offset 16
	.cfi_offset %rbp, -16
	movq	%rsp, %rbp
	.cfi_def_cfa_register %rbp
	subq	$16, %rsp
Ltmp25:
	.loc	1 692 21 prologue_end
	movabsq	$-8527728395957036344, %rax
	movq	%rax, -8(%rbp)
	movq	-8(%rbp), %rax
	.loc	1 692 9 is_stmt 0
	movq	%rax, -16(%rbp)
	.loc	1 693 6 is_stmt 1
	movq	-16(%rbp), %rax
	addq	$16, %rsp
	popq	%rbp
	retq
Ltmp26:
Lfunc_end5:
	.cfi_endproc

	.globl	__ZN4core3mem7replace17hda73d3bde0a213d7E
	.p2align	4, 0x90
__ZN4core3mem7replace17hda73d3bde0a213d7E:
Lfunc_begin6:
	.file	6 "/rustc/2c8cc343237b8f7d5a3c3703e3a87f2eb2c54a74/library/core/src/mem" "mod.rs"
	.loc	6 905 0
	.cfi_startproc
	pushq	%rbp
	.cfi_def_cfa_offset 16
	.cfi_offset %rbp, -16
	movq	%rsp, %rbp
	.cfi_def_cfa_register %rbp
	subq	$184, %rsp
	movq	%rdi, -184(%rbp)
	movq	%rsi, -176(%rbp)
	movq	%rdx, -168(%rbp)
	movq	%rdi, -112(%rbp)
	movq	%rsi, -104(%rbp)
	movq	%rdx, -96(%rbp)
Ltmp27:
	.loc	6 910 32 prologue_end
	movq	%rdi, -88(%rbp)
Ltmp28:
	.file	7 "/rustc/2c8cc343237b8f7d5a3c3703e3a87f2eb2c54a74/library/core/src/ptr" "mod.rs"
	.loc	7 1157 34
	leaq	-128(%rbp), %rax
	movq	%rax, -80(%rbp)
	.loc	7 1157 9 is_stmt 0
	movq	(%rdi), %rax
	movq	%rax, -128(%rbp)
	movq	8(%rdi), %rax
	movq	%rax, -120(%rbp)
	.loc	7 1158 9 is_stmt 1
	movq	-128(%rbp), %rcx
	movq	%rcx, -160(%rbp)
	movq	-120(%rbp), %rax
	movq	%rax, -152(%rbp)
	movq	%rcx, -72(%rbp)
	movq	%rax, -64(%rbp)
	.loc	7 0 9 is_stmt 0
	movq	-152(%rbp), %rdx
	movq	-160(%rbp), %rax
	movq	-184(%rbp), %rcx
	movq	-168(%rbp), %rsi
	movq	-176(%rbp), %rdi
Ltmp29:
	.file	8 "/rustc/2c8cc343237b8f7d5a3c3703e3a87f2eb2c54a74/library/core/src/mem" "maybe_uninit.rs"
	.loc	8 627 38 is_stmt 1
	movq	%rax, -40(%rbp)
	movq	%rdx, -32(%rbp)
Ltmp30:
	.file	9 "/rustc/2c8cc343237b8f7d5a3c3703e3a87f2eb2c54a74/library/core/src/mem" "manually_drop.rs"
	.loc	9 89 9
	movq	%rax, -24(%rbp)
	movq	%rdx, -16(%rbp)
Ltmp31:
	.loc	6 911 20
	movq	%rcx, -8(%rbp)
	.loc	6 911 26 is_stmt 0
	movq	%rdi, -144(%rbp)
	movq	%rsi, -136(%rbp)
Ltmp32:
	.loc	7 1354 9 is_stmt 1
	movq	-144(%rbp), %rsi
	movq	-136(%rbp), %rdi
	movq	%rdi, 8(%rcx)
	movq	%rsi, (%rcx)
Ltmp33:
	.loc	6 914 2
	addq	$184, %rsp
	popq	%rbp
	retq
Ltmp34:
Lfunc_end6:
	.cfi_endproc

	.p2align	4, 0x90
__ZN4core3ptr28drop_in_place$LT$$RF$str$GT$17h152a13468513ab56E:
Lfunc_begin7:
	.loc	7 490 0
	.cfi_startproc
	pushq	%rbp
	.cfi_def_cfa_offset 16
	.cfi_offset %rbp, -16
	movq	%rsp, %rbp
	.cfi_def_cfa_register %rbp
	pushq	%rax
	movq	%rdi, -8(%rbp)
Ltmp35:
	.loc	7 490 1 prologue_end
	addq	$8, %rsp
	popq	%rbp
	retq
Ltmp36:
Lfunc_end7:
	.cfi_endproc

	.globl	__ZN4core3ptr66drop_in_place$LT$dyn$u20$core..any..Any$u2b$core..marker..Send$GT$17hc27c9705726a480bE
	.p2align	4, 0x90
__ZN4core3ptr66drop_in_place$LT$dyn$u20$core..any..Any$u2b$core..marker..Send$GT$17hc27c9705726a480bE:
Lfunc_begin8:
	.loc	7 490 0
	.cfi_startproc
	pushq	%rbp
	.cfi_def_cfa_offset 16
	.cfi_offset %rbp, -16
	movq	%rsp, %rbp
	.cfi_def_cfa_register %rbp
	subq	$16, %rsp
	movq	%rdi, -16(%rbp)
	movq	%rsi, -8(%rbp)
Ltmp37:
	.loc	7 490 1 prologue_end
	callq	*(%rsi)
	addq	$16, %rsp
	popq	%rbp
	retq
Ltmp38:
Lfunc_end8:
	.cfi_endproc

	.p2align	4, 0x90
__ZN4core3ptr77drop_in_place$LT$std..panicking..begin_panic..PanicPayload$LT$$RF$str$GT$$GT$17hc030fd37e398bfe4E:
Lfunc_begin9:
	.loc	7 490 0
	.cfi_startproc
	pushq	%rbp
	.cfi_def_cfa_offset 16
	.cfi_offset %rbp, -16
	movq	%rsp, %rbp
	.cfi_def_cfa_register %rbp
	pushq	%rax
	movq	%rdi, -8(%rbp)
Ltmp39:
	.loc	7 490 1 prologue_end
	addq	$8, %rsp
	popq	%rbp
	retq
Ltmp40:
Lfunc_end9:
	.cfi_endproc

	.globl	__ZN4core3ptr8non_null16NonNull$LT$T$GT$3new17ha253965883e28f4eE
	.p2align	4, 0x90
__ZN4core3ptr8non_null16NonNull$LT$T$GT$3new17ha253965883e28f4eE:
Lfunc_begin10:
	.file	10 "/rustc/2c8cc343237b8f7d5a3c3703e3a87f2eb2c54a74/library/core/src/ptr" "non_null.rs"
	.loc	10 222 0
	.cfi_startproc
	pushq	%rbp
	.cfi_def_cfa_offset 16
	.cfi_offset %rbp, -16
	movq	%rsp, %rbp
	.cfi_def_cfa_register %rbp
	subq	$88, %rsp
	movq	%rdi, -88(%rbp)
	movq	%rdi, -56(%rbp)
Ltmp41:
	.loc	10 223 13 prologue_end
	movq	%rdi, -48(%rbp)
Ltmp42:
	.file	11 "/rustc/2c8cc343237b8f7d5a3c3703e3a87f2eb2c54a74/library/core/src/ptr" "mut_ptr.rs"
	.loc	11 52 36
	movq	%rdi, -64(%rbp)
	.loc	11 52 18 is_stmt 0
	movq	-64(%rbp), %rax
	movq	%rax, -40(%rbp)
Ltmp43:
	.loc	11 38 13 is_stmt 1
	movq	%rax, -32(%rbp)
Ltmp44:
	.loc	11 215 33
	movq	%rax, -24(%rbp)
	.loc	11 215 18 is_stmt 0
	movq	%rax, -16(%rbp)
Ltmp45:
	.loc	11 38 13 is_stmt 1
	cmpq	$0, -16(%rbp)
	sete	%al
Ltmp46:
	.loc	10 223 12
	xorb	$-1, %al
	testb	$1, %al
	jne	LBB10_2
	.loc	10 227 13
	movq	$0, -80(%rbp)
	.loc	10 223 9
	jmp	LBB10_3
LBB10_2:
	.loc	10 0 9 is_stmt 0
	movq	-88(%rbp), %rax
	.loc	10 225 47 is_stmt 1
	movq	%rax, -8(%rbp)
Ltmp47:
	.loc	10 201 13
	movq	%rax, -72(%rbp)
Ltmp48:
	.loc	10 225 13
	movq	-72(%rbp), %rax
	movq	%rax, -80(%rbp)
LBB10_3:
	.loc	10 229 6
	movq	-80(%rbp), %rax
	addq	$88, %rsp
	popq	%rbp
	retq
Ltmp49:
Lfunc_end10:
	.cfi_endproc

	.globl	__ZN4core3ptr8non_null26NonNull$LT$$u5b$T$u5d$$GT$20slice_from_raw_parts17h03e699281e29f676E
	.p2align	4, 0x90
__ZN4core3ptr8non_null26NonNull$LT$$u5b$T$u5d$$GT$20slice_from_raw_parts17h03e699281e29f676E:
Lfunc_begin11:
	.loc	10 482 0
	.cfi_startproc
	pushq	%rbp
	.cfi_def_cfa_offset 16
	.cfi_offset %rbp, -16
	movq	%rsp, %rbp
	.cfi_def_cfa_register %rbp
	subq	$128, %rsp
	movq	%rdi, -80(%rbp)
	movq	%rsi, -72(%rbp)
Ltmp50:
	.loc	10 484 70 prologue_end
	movq	%rdi, -64(%rbp)
Ltmp51:
	.loc	10 326 9
	movq	%rdi, -56(%rbp)
Ltmp52:
	.loc	10 484 85
	movq	%rsi, -48(%rbp)
Ltmp53:
	.loc	7 766 24
	movq	%rdi, -40(%rbp)
Ltmp54:
	.loc	11 60 9
	movq	%rdi, -32(%rbp)
Ltmp55:
	.loc	7 766 37
	movq	%rsi, -24(%rbp)
Ltmp56:
	.file	12 "/rustc/2c8cc343237b8f7d5a3c3703e3a87f2eb2c54a74/library/core/src/ptr" "metadata.rs"
	.loc	12 135 36
	movq	%rdi, -96(%rbp)
	movq	%rsi, -88(%rbp)
	.loc	12 135 14 is_stmt 0
	movq	-96(%rbp), %rcx
	movq	-88(%rbp), %rax
	movq	%rcx, -112(%rbp)
	movq	%rax, -104(%rbp)
	movq	-112(%rbp), %rcx
	movq	-104(%rbp), %rax
	movq	%rcx, -16(%rbp)
	movq	%rax, -8(%rbp)
Ltmp57:
	.loc	10 201 13 is_stmt 1
	movq	%rcx, -128(%rbp)
	movq	%rax, -120(%rbp)
Ltmp58:
	.loc	10 485 6
	movq	-128(%rbp), %rax
	movq	-120(%rbp), %rdx
	addq	$128, %rsp
	popq	%rbp
	retq
Ltmp59:
Lfunc_end11:
	.cfi_endproc

	.globl	__ZN4core3ptr91drop_in_place$LT$alloc..boxed..Box$LT$dyn$u20$core..any..Any$u2b$core..marker..Send$GT$$GT$17h6c86ff993cb0e807E
	.p2align	4, 0x90
__ZN4core3ptr91drop_in_place$LT$alloc..boxed..Box$LT$dyn$u20$core..any..Any$u2b$core..marker..Send$GT$$GT$17h6c86ff993cb0e807E:
Lfunc_begin12:
	.loc	7 490 0
	.cfi_startproc
	.cfi_personality 155, _rust_eh_personality
	.cfi_lsda 16, Lexception2
	pushq	%rbp
	.cfi_def_cfa_offset 16
	.cfi_offset %rbp, -16
	movq	%rsp, %rbp
	.cfi_def_cfa_register %rbp
	subq	$32, %rsp
	movq	%rdi, %rax
	movq	%rax, -32(%rbp)
	movq	%rax, -24(%rbp)
Ltmp66:
	.loc	7 490 1 prologue_end
	movq	(%rax), %rdi
	movq	8(%rax), %rax
	movq	(%rax), %rax
Ltmp60:
	callq	*%rax
Ltmp61:
	jmp	LBB12_3
LBB12_1:
	.loc	7 0 1 is_stmt 0
	movq	-32(%rbp), %rax
	.loc	7 490 1
	movq	(%rax), %rdi
	movq	8(%rax), %rsi
Ltmp63:
	callq	__ZN5alloc5alloc8box_free17h19ffd347c6fbcd3cE
Ltmp64:
	jmp	LBB12_5
LBB12_2:
Ltmp62:
	.loc	7 0 1
	movq	%rax, %rcx
	movl	%edx, %eax
	movq	%rcx, -16(%rbp)
	movl	%eax, -8(%rbp)
	jmp	LBB12_1
LBB12_3:
	movq	-32(%rbp), %rax
	.loc	7 490 1
	movq	(%rax), %rdi
	movq	8(%rax), %rsi
	callq	__ZN5alloc5alloc8box_free17h19ffd347c6fbcd3cE
	addq	$32, %rsp
	popq	%rbp
	retq
LBB12_4:
Ltmp65:
	callq	__ZN4core9panicking19panic_cannot_unwind17h1fbca7e1d7f56ae1E
LBB12_5:
	movq	-16(%rbp), %rdi
	callq	__Unwind_Resume
Ltmp67:
Lfunc_end12:
	.cfi_endproc
	.section	__TEXT,__gcc_except_tab
	.p2align	2
GCC_except_table12:
Lexception2:
	.byte	255
	.byte	255
	.byte	1
	.uleb128 Lcst_end2-Lcst_begin2
Lcst_begin2:
	.uleb128 Ltmp60-Lfunc_begin12
	.uleb128 Ltmp61-Ltmp60
	.uleb128 Ltmp62-Lfunc_begin12
	.byte	0
	.uleb128 Ltmp63-Lfunc_begin12
	.uleb128 Ltmp64-Ltmp63
	.uleb128 Ltmp65-Lfunc_begin12
	.byte	0
	.uleb128 Ltmp64-Lfunc_begin12
	.uleb128 Lfunc_end12-Ltmp64
	.byte	0
	.byte	0
Lcst_end2:
	.p2align	2

	.section	__TEXT,__text,regular,pure_instructions
	.p2align	4, 0x90
__ZN5alloc5alloc15exchange_malloc17hc7ee8549f0fad853E:
Lfunc_begin13:
	.file	13 "/rustc/2c8cc343237b8f7d5a3c3703e3a87f2eb2c54a74/library/alloc/src" "alloc.rs"
	.loc	13 324 0 is_stmt 1
	.cfi_startproc
	pushq	%rbp
	.cfi_def_cfa_offset 16
	.cfi_offset %rbp, -16
	movq	%rsp, %rbp
	.cfi_def_cfa_register %rbp
	subq	$208, %rsp
	movq	%rdi, -160(%rbp)
	movq	%rsi, -152(%rbp)
Ltmp68:
	.loc	13 325 61 prologue_end
	movq	%rdi, -144(%rbp)
	.loc	13 325 67 is_stmt 0
	movq	%rsi, -136(%rbp)
Ltmp69:
	.file	14 "/rustc/2c8cc343237b8f7d5a3c3703e3a87f2eb2c54a74/library/core/src/alloc" "layout.rs"
	.loc	14 120 65 is_stmt 1
	movq	%rsi, -128(%rbp)
Ltmp70:
	.file	15 "/rustc/2c8cc343237b8f7d5a3c3703e3a87f2eb2c54a74/library/core/src/ptr" "alignment.rs"
	.loc	15 89 18
	movq	%rsi, -120(%rbp)
	movq	-120(%rbp), %rax
Ltmp71:
	.loc	14 120 18
	movq	%rdi, -200(%rbp)
	movq	%rax, -192(%rbp)
Ltmp72:
	.loc	13 326 11
	leaq	l___unnamed_3(%rip), %rdi
	movq	%rdi, -112(%rbp)
	.loc	13 326 27 is_stmt 0
	movq	-200(%rbp), %rsi
	movq	-192(%rbp), %rdx
	movq	%rsi, -104(%rbp)
	movq	%rdx, -96(%rbp)
	xorl	%ecx, %ecx
Ltmp73:
	.loc	13 237 9 is_stmt 1
	callq	__ZN5alloc5alloc6Global10alloc_impl17h4d3980f38f221abeE
	movq	%rdx, -176(%rbp)
	movq	%rax, -184(%rbp)
Ltmp74:
	.loc	13 326 11
	movq	-184(%rbp), %rdx
	xorl	%eax, %eax
	movl	$1, %ecx
	cmpq	$0, %rdx
	cmoveq	%rcx, %rax
	.loc	13 326 5 is_stmt 0
	cmpq	$0, %rax
	jne	LBB13_2
	.loc	13 327 12 is_stmt 1
	movq	-184(%rbp), %rax
	movq	-176(%rbp), %rcx
	movq	%rax, -88(%rbp)
	movq	%rcx, -80(%rbp)
Ltmp75:
	.loc	13 327 20 is_stmt 0
	movq	%rax, -72(%rbp)
	movq	%rcx, -64(%rbp)
Ltmp76:
	.loc	10 548 9 is_stmt 1
	movq	%rax, -56(%rbp)
	movq	%rcx, -48(%rbp)
Ltmp77:
	.loc	10 529 41
	movq	%rax, -40(%rbp)
	movq	%rcx, -32(%rbp)
Ltmp78:
	.loc	10 326 9
	movq	%rax, -24(%rbp)
	movq	%rcx, -16(%rbp)
Ltmp79:
	.loc	11 2037 9
	movq	%rax, -8(%rbp)
Ltmp80:
	.loc	10 201 13
	movq	%rax, -168(%rbp)
Ltmp81:
	.loc	10 326 9
	movq	-168(%rbp), %rax
Ltmp82:
	.loc	13 330 2
	addq	$208, %rsp
	popq	%rbp
	retq
LBB13_2:
Ltmp83:
	.loc	13 328 38
	movq	-200(%rbp), %rdi
	movq	-192(%rbp), %rsi
	.loc	13 328 19 is_stmt 0
	callq	__ZN5alloc5alloc18handle_alloc_error17hb5f6ff255f23ea4dE
Ltmp84:
Lfunc_end13:
	.cfi_endproc

	.p2align	4, 0x90
__ZN5alloc5alloc6Global10alloc_impl17h4d3980f38f221abeE:
Lfunc_begin14:
	.loc	13 172 0 is_stmt 1
	.cfi_startproc
	pushq	%rbp
	.cfi_def_cfa_offset 16
	.cfi_offset %rbp, -16
	movq	%rsp, %rbp
	.cfi_def_cfa_register %rbp
	subq	$352, %rsp
	movb	%cl, %al
	movb	%al, -345(%rbp)
	movq	%rsi, -336(%rbp)
	movq	%rdx, -328(%rbp)
	movq	%rdi, -208(%rbp)
	andb	$1, %al
	movb	%al, -193(%rbp)
Ltmp85:
	.loc	13 173 15 prologue_end
	leaq	-336(%rbp), %rax
	movq	%rax, -144(%rbp)
Ltmp86:
	.loc	14 129 9
	movq	-336(%rbp), %rax
	movq	%rax, -344(%rbp)
Ltmp87:
	.loc	13 173 9
	cmpq	$0, %rax
	jne	LBB14_2
	.loc	13 174 51
	leaq	-336(%rbp), %rax
	movq	%rax, -48(%rbp)
Ltmp88:
	.loc	14 216 71
	leaq	-336(%rbp), %rax
	movq	%rax, -40(%rbp)
Ltmp89:
	.loc	14 140 9
	movq	-328(%rbp), %rax
	movq	%rax, -32(%rbp)
Ltmp90:
	.loc	15 97 9
	movq	%rax, -232(%rbp)
	movq	-232(%rbp), %rax
	movq	%rax, -24(%rbp)
Ltmp91:
	.loc	7 599 14
	movq	%rax, -16(%rbp)
	movq	-16(%rbp), %rax
	movq	%rax, -8(%rbp)
Ltmp92:
	.loc	10 201 13
	movq	%rax, -304(%rbp)
Ltmp93:
	.loc	13 174 21
	movq	-304(%rbp), %rdi
	xorl	%eax, %eax
	movl	%eax, %esi
	callq	__ZN4core3ptr8non_null26NonNull$LT$$u5b$T$u5d$$GT$20slice_from_raw_parts17h03e699281e29f676E
	.loc	13 174 18 is_stmt 0
	movq	%rax, -320(%rbp)
	movq	%rdx, -312(%rbp)
	.loc	13 174 72
	jmp	LBB14_15
LBB14_2:
	.loc	13 0 72
	movb	-345(%rbp), %al
	movq	-344(%rbp), %rcx
	.loc	13 176 13 is_stmt 1
	movq	%rcx, -136(%rbp)
Ltmp94:
	.loc	13 177 34
	testb	$1, %al
	jne	LBB14_4
	.loc	13 177 79 is_stmt 0
	movq	-336(%rbp), %rcx
	movq	-328(%rbp), %rax
	movq	%rcx, -272(%rbp)
	movq	%rax, -264(%rbp)
Ltmp95:
	.loc	13 95 27 is_stmt 1
	leaq	-272(%rbp), %rax
	movq	%rax, -104(%rbp)
Ltmp96:
	.loc	14 129 9
	movq	-272(%rbp), %rdi
Ltmp97:
	.loc	13 95 42
	leaq	-272(%rbp), %rax
	movq	%rax, -96(%rbp)
Ltmp98:
	.loc	14 140 9
	movq	-264(%rbp), %rax
	movq	%rax, -88(%rbp)
Ltmp99:
	.loc	15 97 9
	movq	%rax, -216(%rbp)
	movq	-216(%rbp), %rsi
Ltmp100:
	.loc	13 95 14
	callq	___rust_alloc
	movq	%rax, -296(%rbp)
Ltmp101:
	.loc	13 177 31
	jmp	LBB14_5
LBB14_4:
	.loc	13 177 56 is_stmt 0
	movq	-336(%rbp), %rcx
	movq	-328(%rbp), %rax
	movq	%rcx, -288(%rbp)
	movq	%rax, -280(%rbp)
Ltmp102:
	.loc	13 166 34 is_stmt 1
	leaq	-288(%rbp), %rax
	movq	%rax, -128(%rbp)
Ltmp103:
	.loc	14 129 9
	movq	-288(%rbp), %rdi
Ltmp104:
	.loc	13 166 49
	leaq	-288(%rbp), %rax
	movq	%rax, -120(%rbp)
Ltmp105:
	.loc	14 140 9
	movq	-280(%rbp), %rax
	movq	%rax, -112(%rbp)
Ltmp106:
	.loc	15 97 9
	movq	%rax, -224(%rbp)
	movq	-224(%rbp), %rsi
Ltmp107:
	.loc	13 166 14
	callq	___rust_alloc_zeroed
	movq	%rax, -296(%rbp)
Ltmp108:
LBB14_5:
	.loc	13 178 40
	movq	-296(%rbp), %rdi
	.loc	13 178 27 is_stmt 0
	callq	__ZN4core3ptr8non_null16NonNull$LT$T$GT$3new17ha253965883e28f4eE
	movq	%rax, -240(%rbp)
Ltmp109:
	.file	16 "/rustc/2c8cc343237b8f7d5a3c3703e3a87f2eb2c54a74/library/core/src" "option.rs"
	.loc	16 1096 15 is_stmt 1
	movq	-240(%rbp), %rdx
	movl	$1, %eax
	xorl	%ecx, %ecx
	cmpq	$0, %rdx
	cmoveq	%rcx, %rax
	.loc	16 1096 9 is_stmt 0
	cmpq	$0, %rax
	jne	LBB14_7
	.loc	16 1098 21 is_stmt 1
	movq	$0, -248(%rbp)
	.loc	16 1098 28 is_stmt 0
	jmp	LBB14_8
LBB14_7:
	.loc	16 1097 18 is_stmt 1
	movq	-240(%rbp), %rax
	movq	%rax, -80(%rbp)
Ltmp110:
	.loc	16 1097 24 is_stmt 0
	movq	%rax, -248(%rbp)
Ltmp111:
LBB14_8:
	.file	17 "/rustc/2c8cc343237b8f7d5a3c3703e3a87f2eb2c54a74/library/core/src" "result.rs"
	.loc	17 2091 15 is_stmt 1
	movq	-248(%rbp), %rdx
	xorl	%eax, %eax
	movl	$1, %ecx
	cmpq	$0, %rdx
	cmoveq	%rcx, %rax
	.loc	17 2091 9 is_stmt 0
	cmpq	$0, %rax
	jne	LBB14_10
	.loc	17 2092 16 is_stmt 1
	movq	-248(%rbp), %rax
	movq	%rax, -72(%rbp)
Ltmp112:
	.loc	17 2092 22 is_stmt 0
	movq	%rax, -256(%rbp)
Ltmp113:
	.loc	17 2092 45
	jmp	LBB14_11
LBB14_10:
Ltmp114:
	.loc	17 2093 23 is_stmt 1
	movq	$0, -256(%rbp)
Ltmp115:
LBB14_11:
	.loc	13 178 27
	movq	-256(%rbp), %rdx
	xorl	%eax, %eax
	movl	$1, %ecx
	cmpq	$0, %rdx
	cmoveq	%rcx, %rax
	cmpq	$0, %rax
	jne	LBB14_13
	.loc	13 0 27 is_stmt 0
	movq	-344(%rbp), %rsi
	.loc	13 178 27
	movq	-256(%rbp), %rdi
	movq	%rdi, -64(%rbp)
Ltmp116:
	.loc	13 178 27
	movq	%rdi, -56(%rbp)
Ltmp117:
	.loc	13 179 20 is_stmt 1
	callq	__ZN4core3ptr8non_null26NonNull$LT$$u5b$T$u5d$$GT$20slice_from_raw_parts17h03e699281e29f676E
	.loc	13 179 17 is_stmt 0
	movq	%rax, -320(%rbp)
	movq	%rdx, -312(%rbp)
Ltmp118:
	.loc	13 180 13 is_stmt 1
	jmp	LBB14_15
LBB14_13:
Ltmp119:
	.loc	17 2107 23
	movq	$0, -320(%rbp)
Ltmp120:
LBB14_14:
	.loc	13 182 6
	movq	-320(%rbp), %rax
	movq	-312(%rbp), %rdx
	addq	$352, %rsp
	popq	%rbp
	retq
LBB14_15:
	jmp	LBB14_14
Ltmp121:
Lfunc_end14:
	.cfi_endproc

	.globl	__ZN5alloc5alloc8box_free17h19ffd347c6fbcd3cE
	.p2align	4, 0x90
__ZN5alloc5alloc8box_free17h19ffd347c6fbcd3cE:
Lfunc_begin15:
	.loc	13 340 0
	.cfi_startproc
	.cfi_personality 155, _rust_eh_personality
	.cfi_lsda 16, Lexception3
	pushq	%rbp
	.cfi_def_cfa_offset 16
	.cfi_offset %rbp, -16
	movq	%rsp, %rbp
	.cfi_def_cfa_register %rbp
	subq	$304, %rsp
	movq	%rdi, -288(%rbp)
	movq	%rsi, -280(%rbp)
Ltmp125:
	.loc	13 345 32 prologue_end
	leaq	-288(%rbp), %rax
	movq	%rax, -224(%rbp)
Ltmp126:
	.file	18 "/rustc/2c8cc343237b8f7d5a3c3703e3a87f2eb2c54a74/library/core/src/ptr" "unique.rs"
	.loc	18 117 18
	leaq	-288(%rbp), %rax
	movq	%rax, -216(%rbp)
Ltmp127:
	.loc	10 376 20
	movq	-288(%rbp), %rcx
	movq	-280(%rbp), %rax
	movq	%rcx, -208(%rbp)
	movq	%rax, -200(%rbp)
Ltmp128:
	.loc	13 345 20
	movq	8(%rax), %rax
	movq	%rax, -192(%rbp)
	movq	-192(%rbp), %rcx
	movq	%rcx, -304(%rbp)
	movq	%rcx, -184(%rbp)
Ltmp129:
	.loc	13 346 38
	leaq	-288(%rbp), %rax
	movq	%rax, -176(%rbp)
Ltmp130:
	.loc	18 117 18
	leaq	-288(%rbp), %rax
	movq	%rax, -168(%rbp)
Ltmp131:
	.loc	10 376 20
	movq	-288(%rbp), %rdx
	movq	-280(%rbp), %rax
	movq	%rdx, -160(%rbp)
	movq	%rax, -152(%rbp)
Ltmp132:
	.loc	13 346 21
	movq	16(%rax), %rax
	movq	%rax, -144(%rbp)
	movq	-144(%rbp), %rax
	movq	%rax, -136(%rbp)
Ltmp133:
	.loc	13 347 56
	movq	%rcx, -128(%rbp)
	.loc	13 347 62 is_stmt 0
	movq	%rax, -120(%rbp)
Ltmp134:
	.loc	14 120 65 is_stmt 1
	movq	%rax, -112(%rbp)
Ltmp135:
	.loc	15 89 18
	movq	%rax, -104(%rbp)
	movq	-104(%rbp), %rax
	movq	%rax, -296(%rbp)
Ltmp136:
	.loc	15 0 18 is_stmt 0
	movq	-296(%rbp), %rax
	movq	-304(%rbp), %rcx
	.loc	14 120 18 is_stmt 1
	movq	%rcx, -264(%rbp)
	movq	%rax, -256(%rbp)
Ltmp137:
	.loc	13 348 37
	movq	-288(%rbp), %rax
	movq	-280(%rbp), %rcx
	movq	%rax, -96(%rbp)
	movq	%rcx, -88(%rbp)
Ltmp138:
	.loc	18 137 22
	movq	%rax, -80(%rbp)
	movq	%rcx, -72(%rbp)
Ltmp139:
	.loc	10 450 41
	movq	%rax, -64(%rbp)
	movq	%rcx, -56(%rbp)
	movq	%rax, -48(%rbp)
Ltmp140:
	.loc	10 201 13
	movq	%rax, -232(%rbp)
Ltmp141:
	.loc	18 191 18
	movq	-232(%rbp), %rax
	.loc	18 191 9 is_stmt 0
	movq	%rax, -240(%rbp)
Ltmp142:
	.loc	10 768 41 is_stmt 1
	movq	-240(%rbp), %rax
	movq	%rax, -40(%rbp)
Ltmp143:
	.loc	18 104 9
	movq	%rax, -32(%rbp)
Ltmp144:
	.loc	10 326 9
	movq	%rax, -24(%rbp)
Ltmp145:
	.loc	10 201 13
	movq	%rax, -248(%rbp)
Ltmp146:
	.loc	13 348 50
	movq	-264(%rbp), %rdx
	movq	-256(%rbp), %rcx
	.loc	13 348 9 is_stmt 0
	movq	-248(%rbp), %rsi
Ltmp122:
	leaq	-272(%rbp), %rdi
	callq	__ZN63_$LT$alloc..alloc..Global$u20$as$u20$core..alloc..Allocator$GT$10deallocate17hea1728bbd82ea8b9E
Ltmp123:
	jmp	LBB15_4
Ltmp147:
LBB15_2:
	.loc	13 340 1 is_stmt 1
	movq	-16(%rbp), %rdi
	callq	__Unwind_Resume
LBB15_3:
Ltmp124:
	.loc	13 0 1 is_stmt 0
	movq	%rax, %rcx
	movl	%edx, %eax
	movq	%rcx, -16(%rbp)
	movl	%eax, -8(%rbp)
	jmp	LBB15_2
LBB15_4:
	.loc	13 350 2 is_stmt 1
	addq	$304, %rsp
	popq	%rbp
	retq
Ltmp148:
Lfunc_end15:
	.cfi_endproc
	.section	__TEXT,__gcc_except_tab
	.p2align	2
GCC_except_table15:
Lexception3:
	.byte	255
	.byte	255
	.byte	1
	.uleb128 Lcst_end3-Lcst_begin3
Lcst_begin3:
	.uleb128 Ltmp122-Lfunc_begin15
	.uleb128 Ltmp123-Ltmp122
	.uleb128 Ltmp124-Lfunc_begin15
	.byte	0
	.uleb128 Ltmp123-Lfunc_begin15
	.uleb128 Lfunc_end15-Ltmp123
	.byte	0
	.byte	0
Lcst_end3:
	.p2align	2

	.section	__TEXT,__text,regular,pure_instructions
	.globl	__ZN5alloc5boxed16Box$LT$T$C$A$GT$11into_unique17h9def3ad660dc2b1fE
	.p2align	4, 0x90
__ZN5alloc5boxed16Box$LT$T$C$A$GT$11into_unique17h9def3ad660dc2b1fE:
Lfunc_begin16:
	.file	19 "/rustc/2c8cc343237b8f7d5a3c3703e3a87f2eb2c54a74/library/alloc/src" "boxed.rs"
	.loc	19 1124 0
	.cfi_startproc
	.cfi_personality 155, _rust_eh_personality
	.cfi_lsda 16, Lexception4
	pushq	%rbp
	.cfi_def_cfa_offset 16
	.cfi_offset %rbp, -16
	movq	%rsp, %rbp
	.cfi_def_cfa_register %rbp
	subq	$192, %rsp
	movq	%rdi, -168(%rbp)
	movq	%rsi, -160(%rbp)
Ltmp155:
	.loc	19 1130 13 prologue_end
	movb	$1, -113(%rbp)
	.loc	19 1130 40 is_stmt 0
	leaq	-168(%rbp), %rax
	movq	%rax, -64(%rbp)
Ltmp156:
	.loc	7 1157 34 is_stmt 1
	leaq	-112(%rbp), %rax
	movq	%rax, -56(%rbp)
Ltmp157:
	.loc	19 1131 33
	movb	$0, -113(%rbp)
	movq	-168(%rbp), %rdi
	movq	-160(%rbp), %rsi
Ltmp149:
	.loc	19 1131 23 is_stmt 0
	callq	__ZN5alloc5boxed16Box$LT$T$C$A$GT$4leak17h9e75092e8197e540E
Ltmp150:
	movq	%rdx, -184(%rbp)
	movq	%rax, -176(%rbp)
	jmp	LBB16_4
Ltmp158:
LBB16_2:
	.loc	19 1132 5 is_stmt 1
	jmp	LBB16_5
LBB16_3:
Ltmp151:
	.loc	19 0 5 is_stmt 0
	movq	%rax, %rcx
	movl	%edx, %eax
	movq	%rcx, -48(%rbp)
	movl	%eax, -40(%rbp)
	jmp	LBB16_2
LBB16_4:
	movq	-184(%rbp), %rax
	movq	-176(%rbp), %rcx
Ltmp159:
	.loc	19 1131 23 is_stmt 1
	movq	%rcx, -32(%rbp)
	movq	%rax, -24(%rbp)
Ltmp160:
	.loc	18 180 34
	movq	%rcx, -16(%rbp)
	movq	%rax, -8(%rbp)
Ltmp161:
	.loc	10 781 18
	movq	%rcx, -104(%rbp)
	movq	%rax, -96(%rbp)
Ltmp162:
	.loc	18 191 18
	movq	-104(%rbp), %rcx
	movq	-96(%rbp), %rax
	.loc	18 191 9 is_stmt 0
	movq	%rcx, -136(%rbp)
	movq	%rax, -128(%rbp)
Ltmp163:
	.loc	19 1131 9 is_stmt 1
	movq	-136(%rbp), %rcx
	movq	-128(%rbp), %rax
	movq	%rcx, -152(%rbp)
	movq	%rax, -144(%rbp)
Ltmp164:
	.loc	19 1132 6
	movq	-152(%rbp), %rax
	movq	-144(%rbp), %rdx
	addq	$192, %rsp
	popq	%rbp
	retq
LBB16_5:
	.loc	19 1132 5 is_stmt 0
	testb	$1, -113(%rbp)
	jne	LBB16_7
LBB16_6:
	.loc	19 1124 5 is_stmt 1
	movq	-48(%rbp), %rdi
	callq	__Unwind_Resume
LBB16_7:
Ltmp152:
	.loc	19 0 5 is_stmt 0
	leaq	-168(%rbp), %rdi
	.loc	19 1132 5 is_stmt 1
	callq	__ZN4core3ptr91drop_in_place$LT$alloc..boxed..Box$LT$dyn$u20$core..any..Any$u2b$core..marker..Send$GT$$GT$17h6c86ff993cb0e807E
Ltmp153:
	jmp	LBB16_6
LBB16_8:
Ltmp154:
	.loc	19 1124 5
	callq	__ZN4core9panicking19panic_cannot_unwind17h1fbca7e1d7f56ae1E
Ltmp165:
Lfunc_end16:
	.cfi_endproc
	.section	__TEXT,__gcc_except_tab
	.p2align	2
GCC_except_table16:
Lexception4:
	.byte	255
	.byte	255
	.byte	1
	.uleb128 Lcst_end4-Lcst_begin4
Lcst_begin4:
	.uleb128 Ltmp149-Lfunc_begin16
	.uleb128 Ltmp150-Ltmp149
	.uleb128 Ltmp151-Lfunc_begin16
	.byte	0
	.uleb128 Ltmp150-Lfunc_begin16
	.uleb128 Ltmp152-Ltmp150
	.byte	0
	.byte	0
	.uleb128 Ltmp152-Lfunc_begin16
	.uleb128 Ltmp153-Ltmp152
	.uleb128 Ltmp154-Lfunc_begin16
	.byte	0
Lcst_end4:
	.p2align	2

	.section	__TEXT,__text,regular,pure_instructions
	.globl	__ZN5alloc5boxed16Box$LT$T$C$A$GT$4leak17h9e75092e8197e540E
	.p2align	4, 0x90
__ZN5alloc5boxed16Box$LT$T$C$A$GT$4leak17h9e75092e8197e540E:
Lfunc_begin17:
	.loc	19 1184 0
	.cfi_startproc
	pushq	%rbp
	.cfi_def_cfa_offset 16
	.cfi_offset %rbp, -16
	movq	%rsp, %rbp
	.cfi_def_cfa_register %rbp
	subq	$88, %rsp
	movq	%rdi, -72(%rbp)
	movq	%rsi, -64(%rbp)
Ltmp166:
	.loc	19 1188 47 prologue_end
	movq	%rdi, -56(%rbp)
	movq	%rsi, -48(%rbp)
Ltmp167:
	.loc	9 71 9
	movq	%rdi, -88(%rbp)
	movq	%rsi, -80(%rbp)
	leaq	-88(%rbp), %rax
Ltmp168:
	.loc	19 1188 24
	movq	%rax, -40(%rbp)
	movq	-88(%rbp), %rax
	movq	-80(%rbp), %rdx
	movq	%rax, -32(%rbp)
	movq	%rdx, -24(%rbp)
Ltmp169:
	.loc	18 104 9
	movq	%rax, -16(%rbp)
	movq	%rdx, -8(%rbp)
Ltmp170:
	.loc	19 1189 6
	addq	$88, %rsp
	popq	%rbp
	retq
Ltmp171:
Lfunc_end17:
	.cfi_endproc

	.p2align	4, 0x90
__ZN63_$LT$alloc..alloc..Global$u20$as$u20$core..alloc..Allocator$GT$10deallocate17hea1728bbd82ea8b9E:
Lfunc_begin18:
	.loc	13 246 0
	.cfi_startproc
	pushq	%rbp
	.cfi_def_cfa_offset 16
	.cfi_offset %rbp, -16
	movq	%rsp, %rbp
	.cfi_def_cfa_register %rbp
	subq	$112, %rsp
	movq	%rsi, -112(%rbp)
	movq	%rdx, -104(%rbp)
	movq	%rcx, -96(%rbp)
	movq	%rdi, -64(%rbp)
	movq	%rsi, -56(%rbp)
Ltmp172:
	.loc	13 247 12 prologue_end
	leaq	-104(%rbp), %rax
	movq	%rax, -48(%rbp)
	cmpq	$0, -104(%rbp)
	jne	LBB18_2
	.loc	13 247 9 is_stmt 0
	jmp	LBB18_3
LBB18_2:
	.loc	13 0 9
	movq	-112(%rbp), %rdi
	.loc	13 250 30 is_stmt 1
	movq	%rdi, -40(%rbp)
Ltmp173:
	.loc	10 326 9
	movq	%rdi, -32(%rbp)
Ltmp174:
	.loc	13 250 44
	movq	-104(%rbp), %rcx
	movq	-96(%rbp), %rax
	movq	%rcx, -88(%rbp)
	movq	%rax, -80(%rbp)
Ltmp175:
	.loc	13 113 34
	leaq	-88(%rbp), %rax
	movq	%rax, -24(%rbp)
Ltmp176:
	.loc	14 129 9
	movq	-88(%rbp), %rsi
Ltmp177:
	.loc	13 113 49
	leaq	-88(%rbp), %rax
	movq	%rax, -16(%rbp)
Ltmp178:
	.loc	14 140 9
	movq	-80(%rbp), %rax
	movq	%rax, -8(%rbp)
Ltmp179:
	.loc	15 97 9
	movq	%rax, -72(%rbp)
	movq	-72(%rbp), %rdx
Ltmp180:
	.loc	13 113 14
	callq	___rust_dealloc
Ltmp181:
LBB18_3:
	.loc	13 252 6
	addq	$112, %rsp
	popq	%rbp
	retq
Ltmp182:
Lfunc_end18:
	.cfi_endproc

	.globl	__ZN91_$LT$std..panicking..begin_panic..PanicPayload$LT$A$GT$$u20$as$u20$core..panic..BoxMeUp$GT$3get17hdc1495032a65aadcE
	.p2align	4, 0x90
__ZN91_$LT$std..panicking..begin_panic..PanicPayload$LT$A$GT$$u20$as$u20$core..panic..BoxMeUp$GT$3get17hdc1495032a65aadcE:
Lfunc_begin19:
	.loc	4 635 0
	.cfi_startproc
	pushq	%rbp
	.cfi_def_cfa_offset 16
	.cfi_offset %rbp, -16
	movq	%rsp, %rbp
	.cfi_def_cfa_register %rbp
	subq	$32, %rsp
	movq	%rdi, -24(%rbp)
	movq	%rdi, -16(%rbp)
Ltmp183:
	.loc	4 636 19 prologue_end
	movq	(%rdi), %rdx
	movl	$1, %eax
	xorl	%ecx, %ecx
	cmpq	$0, %rdx
	cmoveq	%rcx, %rax
	.loc	4 636 13 is_stmt 0
	cmpq	$0, %rax
	jne	LBB19_2
	.loc	4 638 25 is_stmt 1
	callq	__ZN3std7process5abort17hb525d9c740fe6234E
LBB19_2:
	.loc	4 0 25 is_stmt 0
	movq	-24(%rbp), %rax
	.loc	4 637 22 is_stmt 1
	movq	%rax, -8(%rbp)
	.loc	4 640 10
	leaq	l___unnamed_2(%rip), %rdx
	addq	$32, %rsp
	popq	%rbp
	retq
Ltmp184:
Lfunc_end19:
	.cfi_endproc

	.globl	__ZN91_$LT$std..panicking..begin_panic..PanicPayload$LT$A$GT$$u20$as$u20$core..panic..BoxMeUp$GT$8take_box17h7167b57f6b4399d2E
	.p2align	4, 0x90
__ZN91_$LT$std..panicking..begin_panic..PanicPayload$LT$A$GT$$u20$as$u20$core..panic..BoxMeUp$GT$8take_box17h7167b57f6b4399d2E:
Lfunc_begin20:
	.loc	4 622 0
	.cfi_startproc
	.cfi_personality 155, _rust_eh_personality
	.cfi_lsda 16, Lexception5
	pushq	%rbp
	.cfi_def_cfa_offset 16
	.cfi_offset %rbp, -16
	movq	%rsp, %rbp
	.cfi_def_cfa_register %rbp
	subq	$256, %rsp
	movq	%rdi, -152(%rbp)
Ltmp194:
	.loc	4 628 30 prologue_end
	movq	%rdi, -136(%rbp)
Ltmp195:
	.loc	16 1623 28
	movq	$0, -184(%rbp)
	.loc	16 1623 9 is_stmt 0
	movq	-184(%rbp), %rsi
	movq	-176(%rbp), %rdx
	callq	__ZN4core3mem7replace17hda73d3bde0a213d7E
	movq	%rdx, -192(%rbp)
	movq	%rax, -200(%rbp)
Ltmp196:
	.loc	4 628 30 is_stmt 1
	movq	-200(%rbp), %rdx
	movl	$1, %eax
	xorl	%ecx, %ecx
	cmpq	$0, %rdx
	cmoveq	%rcx, %rax
	.loc	4 628 24 is_stmt 0
	cmpq	$0, %rax
	jne	LBB20_2
	.loc	4 630 25 is_stmt 1
	callq	__ZN3std7process5abort17hb525d9c740fe6234E
LBB20_2:
	.loc	4 629 22
	movq	-200(%rbp), %rcx
	movq	%rcx, -240(%rbp)
	movq	-192(%rbp), %rax
	movq	%rax, -232(%rbp)
	movq	%rcx, -128(%rbp)
	movq	%rax, -120(%rbp)
Ltmp197:
	.loc	4 629 37 is_stmt 0
	movq	%rcx, -112(%rbp)
	movq	%rax, -104(%rbp)
Ltmp185:
	movl	$16, %edi
	movl	$8, %esi
Ltmp198:
	.loc	19 219 9 is_stmt 1
	callq	__ZN5alloc5alloc15exchange_malloc17hc7ee8549f0fad853E
Ltmp186:
	movq	%rax, -224(%rbp)
	jmp	LBB20_5
LBB20_3:
	.loc	19 220 5
	jmp	LBB20_6
LBB20_4:
Ltmp187:
	.loc	19 0 5 is_stmt 0
	movq	%rax, %rcx
	movl	%edx, %eax
	movq	%rcx, -96(%rbp)
	movl	%eax, -88(%rbp)
	jmp	LBB20_3
LBB20_5:
	movq	-224(%rbp), %rax
	movq	-232(%rbp), %rcx
	movq	-240(%rbp), %rdx
	.loc	19 219 18 is_stmt 1
	movq	%rdx, (%rax)
	movq	%rcx, 8(%rax)
Ltmp199:
	.loc	4 629 28
	movq	%rax, -216(%rbp)
	leaq	l___unnamed_2(%rip), %rax
	movq	%rax, -208(%rbp)
Ltmp200:
	.loc	4 632 27
	movq	-216(%rbp), %rdi
	movq	-208(%rbp), %rsi
	movq	%rdi, -80(%rbp)
	movq	%rsi, -72(%rbp)
Ltmp201:
	.loc	19 1059 39
	movq	%rdi, -64(%rbp)
	movq	%rsi, -56(%rbp)
Ltmp188:
Ltmp202:
	.loc	19 1112 31
	callq	__ZN5alloc5boxed16Box$LT$T$C$A$GT$11into_unique17h9def3ad660dc2b1fE
Ltmp189:
	movq	%rdx, -256(%rbp)
	movq	%rax, -248(%rbp)
	jmp	LBB20_9
Ltmp203:
LBB20_6:
	.loc	4 622 9
	movq	-96(%rbp), %rdi
	callq	__Unwind_Resume
LBB20_7:
	.loc	4 633 9
	xorl	%eax, %eax
	testb	$1, %al
	jne	LBB20_10
	jmp	LBB20_6
LBB20_8:
Ltmp190:
	.loc	4 0 9 is_stmt 0
	movq	%rax, %rcx
	movl	%edx, %eax
	movq	%rcx, -96(%rbp)
	movl	%eax, -88(%rbp)
	jmp	LBB20_7
LBB20_9:
	movq	-256(%rbp), %rax
	movq	-248(%rbp), %rcx
Ltmp204:
	.loc	19 1112 14 is_stmt 1
	movq	%rcx, -48(%rbp)
	movq	%rax, -40(%rbp)
Ltmp205:
	.loc	19 1113 10
	movq	%rcx, -32(%rbp)
	movq	%rax, -24(%rbp)
Ltmp206:
	.loc	18 104 9
	movq	%rcx, -16(%rbp)
	movq	%rax, -8(%rbp)
Ltmp207:
	.loc	19 1113 9
	movq	%rcx, -168(%rbp)
	movq	%rax, -160(%rbp)
Ltmp208:
	.loc	19 1059 9
	movq	-168(%rbp), %rax
	movq	-160(%rbp), %rdx
Ltmp209:
	.loc	4 633 10
	addq	$256, %rsp
	popq	%rbp
	retq
LBB20_10:
Ltmp191:
	.loc	4 0 10 is_stmt 0
	leaq	-216(%rbp), %rdi
	.loc	4 633 9
	callq	__ZN4core3ptr91drop_in_place$LT$alloc..boxed..Box$LT$dyn$u20$core..any..Any$u2b$core..marker..Send$GT$$GT$17h6c86ff993cb0e807E
Ltmp192:
	jmp	LBB20_6
LBB20_11:
Ltmp193:
	.loc	4 622 9 is_stmt 1
	callq	__ZN4core9panicking19panic_cannot_unwind17h1fbca7e1d7f56ae1E
Ltmp210:
Lfunc_end20:
	.cfi_endproc
	.section	__TEXT,__gcc_except_tab
	.p2align	2
GCC_except_table20:
Lexception5:
	.byte	255
	.byte	255
	.byte	1
	.uleb128 Lcst_end5-Lcst_begin5
Lcst_begin5:
	.uleb128 Lfunc_begin20-Lfunc_begin20
	.uleb128 Ltmp185-Lfunc_begin20
	.byte	0
	.byte	0
	.uleb128 Ltmp185-Lfunc_begin20
	.uleb128 Ltmp186-Ltmp185
	.uleb128 Ltmp187-Lfunc_begin20
	.byte	0
	.uleb128 Ltmp188-Lfunc_begin20
	.uleb128 Ltmp189-Ltmp188
	.uleb128 Ltmp190-Lfunc_begin20
	.byte	0
	.uleb128 Ltmp189-Lfunc_begin20
	.uleb128 Ltmp191-Ltmp189
	.byte	0
	.byte	0
	.uleb128 Ltmp191-Lfunc_begin20
	.uleb128 Ltmp192-Ltmp191
	.uleb128 Ltmp193-Lfunc_begin20
	.byte	0
Lcst_end5:
	.p2align	2

	.section	__TEXT,__text,regular,pure_instructions
	.globl	__ZN63_$LT$byteorder..BigEndian$u20$as$u20$core..default..Default$GT$7default17h223434dd2a4b3e8eE
	.p2align	4, 0x90
__ZN63_$LT$byteorder..BigEndian$u20$as$u20$core..default..Default$GT$7default17h223434dd2a4b3e8eE:
Lfunc_begin21:
	.file	20 "/Users/natalie/.cargo/registry/src/github.com-1ecc6299db9ec823/byteorder-1.4.3" "src/lib.rs"
	.loc	20 1810 0
	.cfi_startproc
	pushq	%rbp
	.cfi_def_cfa_offset 16
	.cfi_offset %rbp, -16
	movq	%rsp, %rbp
	.cfi_def_cfa_register %rbp
Ltmp211:
	.loc	20 1811 9 prologue_end
	leaq	l___unnamed_4(%rip), %rdi
	leaq	l___unnamed_5(%rip), %rdx
	movl	$17, %esi
	callq	__ZN3std9panicking11begin_panic17hc1e0e5ed2837c5bdE
Ltmp212:
Lfunc_end21:
	.cfi_endproc

	.globl	__ZN66_$LT$byteorder..LittleEndian$u20$as$u20$core..default..Default$GT$7default17h8f0427700e0f6b25E
	.p2align	4, 0x90
__ZN66_$LT$byteorder..LittleEndian$u20$as$u20$core..default..Default$GT$7default17h8f0427700e0f6b25E:
Lfunc_begin22:
	.loc	20 1840 0
	.cfi_startproc
	pushq	%rbp
	.cfi_def_cfa_offset 16
	.cfi_offset %rbp, -16
	movq	%rsp, %rbp
	.cfi_def_cfa_register %rbp
Ltmp213:
	.loc	20 1841 9 prologue_end
	leaq	l___unnamed_6(%rip), %rdi
	leaq	l___unnamed_7(%rip), %rdx
	movl	$20, %esi
	callq	__ZN3std9panicking11begin_panic17hc1e0e5ed2837c5bdE
Ltmp214:
Lfunc_end22:
	.cfi_endproc

	.globl	__ZN57_$LT$byteorder..BigEndian$u20$as$u20$core..fmt..Debug$GT$3fmt17h8a4eba1593f423feE
	.p2align	4, 0x90
__ZN57_$LT$byteorder..BigEndian$u20$as$u20$core..fmt..Debug$GT$3fmt17h8a4eba1593f423feE:
Lfunc_begin23:
	.loc	20 1806 0
	.cfi_startproc
	pushq	%rbp
	.cfi_def_cfa_offset 16
	.cfi_offset %rbp, -16
	movq	%rsp, %rbp
	.cfi_def_cfa_register %rbp
	subq	$16, %rsp
	movq	%rdi, -16(%rbp)
	movq	%rsi, -8(%rbp)
Ltmp215:
	.loc	20 1806 23 prologue_end
	ud2
Ltmp216:
Lfunc_end23:
	.cfi_endproc

	.globl	__ZN60_$LT$byteorder..LittleEndian$u20$as$u20$core..fmt..Debug$GT$3fmt17hd7f5e2b4d82c70f5E
	.p2align	4, 0x90
__ZN60_$LT$byteorder..LittleEndian$u20$as$u20$core..fmt..Debug$GT$3fmt17hd7f5e2b4d82c70f5E:
Lfunc_begin24:
	.loc	20 1836 0
	.cfi_startproc
	pushq	%rbp
	.cfi_def_cfa_offset 16
	.cfi_offset %rbp, -16
	movq	%rsp, %rbp
	.cfi_def_cfa_register %rbp
	subq	$16, %rsp
	movq	%rdi, -16(%rbp)
	movq	%rsi, -8(%rbp)
Ltmp217:
	.loc	20 1836 23 prologue_end
	ud2
Ltmp218:
Lfunc_end24:
	.cfi_endproc

	.section	__DATA,__const
	.p2align	3
l___unnamed_1:
	.quad	__ZN4core3ptr77drop_in_place$LT$std..panicking..begin_panic..PanicPayload$LT$$RF$str$GT$$GT$17hc030fd37e398bfe4E
	.asciz	"\020\000\000\000\000\000\000\000\b\000\000\000\000\000\000"
	.quad	__ZN91_$LT$std..panicking..begin_panic..PanicPayload$LT$A$GT$$u20$as$u20$core..panic..BoxMeUp$GT$8take_box17h7167b57f6b4399d2E
	.quad	__ZN91_$LT$std..panicking..begin_panic..PanicPayload$LT$A$GT$$u20$as$u20$core..panic..BoxMeUp$GT$3get17hdc1495032a65aadcE

	.section	__TEXT,__const
l___unnamed_3:
	.byte	0

	.section	__DATA,__const
	.p2align	3
l___unnamed_2:
	.quad	__ZN4core3ptr28drop_in_place$LT$$RF$str$GT$17h152a13468513ab56E
	.asciz	"\020\000\000\000\000\000\000\000\b\000\000\000\000\000\000"
	.quad	__ZN36_$LT$T$u20$as$u20$core..any..Any$GT$7type_id17ha8f167a2ce588ee2E

	.section	__TEXT,__const
l___unnamed_4:
	.ascii	"BigEndian default"

l___unnamed_8:
	.ascii	"/Users/natalie/.cargo/registry/src/github.com-1ecc6299db9ec823/byteorder-1.4.3/src/lib.rs"

	.section	__DATA,__const
	.p2align	3
l___unnamed_5:
	.quad	l___unnamed_8
	.asciz	"Y\000\000\000\000\000\000\000\023\007\000\000\t\000\000"

	.section	__TEXT,__const
l___unnamed_6:
	.ascii	"LittleEndian default"

	.section	__DATA,__const
	.p2align	3
l___unnamed_7:
	.quad	l___unnamed_8
	.asciz	"Y\000\000\000\000\000\000\0001\007\000\000\t\000\000"

	.section	__DATA,__const
Lsec_end0:
	.section	__TEXT,__text,regular,pure_instructions
Lsec_end1: