	.section	__TEXT,__text,regular,pure_instructions
	.macosx_version_min 10, 7
	.file	1 "/Users/natalie/.cargo/registry/src/github.com-1ecc6299db9ec823/objc-0.2.7/src" "macros.rs"
	.globl	__ZN153_$LT$core..result..Result$LT$T$C$F$GT$$u20$as$u20$core..ops..try_trait..FromResidual$LT$core..result..Result$LT$core..convert..Infallible$C$E$GT$$GT$$GT$13from_residual17h4bd2069de0b10f91E
	.p2align	4, 0x90
__ZN153_$LT$core..result..Result$LT$T$C$F$GT$$u20$as$u20$core..ops..try_trait..FromResidual$LT$core..result..Result$LT$core..convert..Infallible$C$E$GT$$GT$$GT$13from_residual17h4bd2069de0b10f91E:
Lfunc_begin0:
	.file	2 "/rustc/2c8cc343237b8f7d5a3c3703e3a87f2eb2c54a74/library/core/src" "result.rs"
	.loc	2 2105 0
	.cfi_startproc
	pushq	%rbp
	.cfi_def_cfa_offset 16
	.cfi_offset %rbp, -16
	movq	%rsp, %rbp
	.cfi_def_cfa_register %rbp
	subq	$24, %rsp
Ltmp0:
	.loc	2 2107 23 prologue_end
	movb	$1, -17(%rbp)
Ltmp1:
	.loc	2 2109 6
	movb	-17(%rbp), %al
	andb	$1, %al
	movzbl	%al, %eax
	addq	$24, %rsp
	popq	%rbp
	retq
Ltmp2:
Lfunc_end0:
	.cfi_endproc

	.p2align	4, 0x90
__ZN4core3fmt9Arguments6as_str17h964a075ad586e8aeE:
Lfunc_begin1:
	.file	3 "/rustc/2c8cc343237b8f7d5a3c3703e3a87f2eb2c54a74/library/core/src/fmt" "mod.rs"
	.loc	3 521 0
	.cfi_startproc
	pushq	%rbp
	.cfi_def_cfa_offset 16
	.cfi_offset %rbp, -16
	movq	%rsp, %rbp
	.cfi_def_cfa_register %rbp
	subq	$64, %rsp
	movq	%rdi, -16(%rbp)
Ltmp3:
	.loc	3 522 16 prologue_end
	movq	16(%rdi), %rsi
	movq	24(%rdi), %rdx
	.loc	3 522 29 is_stmt 0
	movq	32(%rdi), %rcx
	movq	40(%rdi), %rax
	.loc	3 522 15
	movq	%rsi, -48(%rbp)
	movq	%rdx, -40(%rbp)
	movq	%rcx, -32(%rbp)
	movq	%rax, -24(%rbp)
	.loc	3 523 14 is_stmt 1
	cmpq	$0, -40(%rbp)
	je	LBB1_2
	.loc	3 524 14
	cmpq	$1, -40(%rbp)
	je	LBB1_6
	jmp	LBB1_3
LBB1_2:
	.loc	3 523 18
	cmpq	$0, -24(%rbp)
	je	LBB1_4
LBB1_3:
	.loc	3 525 18
	movq	$0, -64(%rbp)
	jmp	LBB1_5
LBB1_4:
	.loc	3 523 25
	leaq	l___unnamed_1(%rip), %rax
	movq	%rax, -64(%rbp)
	movq	$0, -56(%rbp)
LBB1_5:
	.loc	3 527 6
	movq	-64(%rbp), %rax
	movq	-56(%rbp), %rdx
	addq	$64, %rsp
	popq	%rbp
	retq
LBB1_6:
	.loc	3 524 19
	cmpq	$0, -24(%rbp)
	jne	LBB1_3
	.loc	3 524 15 is_stmt 0
	movq	-48(%rbp), %rax
	movq	%rax, -8(%rbp)
Ltmp4:
	.loc	3 524 31
	movq	(%rax), %rcx
	movq	8(%rax), %rax
	.loc	3 524 26
	movq	%rcx, -64(%rbp)
	movq	%rax, -56(%rbp)
Ltmp5:
	.loc	3 524 32
	jmp	LBB1_5
Ltmp6:
Lfunc_end1:
	.cfi_endproc

	.p2align	4, 0x90
__ZN4core3fmt9Arguments6new_v117h8cbc9bbe8e287c80E:
Lfunc_begin2:
	.loc	3 399 0 is_stmt 1
	.cfi_startproc
	pushq	%rbp
	.cfi_def_cfa_offset 16
	.cfi_offset %rbp, -16
	movq	%rsp, %rbp
	.cfi_def_cfa_register %rbp
	subq	$160, %rsp
	movq	%r8, -152(%rbp)
	movq	%rcx, -144(%rbp)
	movq	%rdx, -136(%rbp)
	movq	%rsi, -128(%rbp)
	movq	%rdi, -120(%rbp)
	movq	%rdi, -112(%rbp)
	movq	%rsi, -32(%rbp)
	movq	%rdx, -24(%rbp)
	movq	%rcx, -16(%rbp)
	movq	%r8, -8(%rbp)
Ltmp7:
	.loc	3 400 12 prologue_end
	cmpq	%r8, %rdx
	jb	LBB2_2
	.loc	3 0 12 is_stmt 0
	movq	-136(%rbp), %rax
	movq	-152(%rbp), %rcx
	.loc	3 400 56
	addq	$1, %rcx
	.loc	3 400 41
	cmpq	%rcx, %rax
	seta	%al
	.loc	3 400 12
	andb	$1, %al
	movb	%al, -97(%rbp)
	jmp	LBB2_3
LBB2_2:
	movb	$1, -97(%rbp)
LBB2_3:
	testb	$1, -97(%rbp)
	jne	LBB2_5
	.loc	3 0 12
	movq	-112(%rbp), %rax
	movq	-120(%rbp), %rcx
	movq	-152(%rbp), %rdx
	movq	-144(%rbp), %rsi
	movq	-136(%rbp), %rdi
	movq	-128(%rbp), %r8
	.loc	3 403 34 is_stmt 1
	movq	$0, -48(%rbp)
	.loc	3 403 9 is_stmt 0
	movq	%r8, 16(%rcx)
	movq	%rdi, 24(%rcx)
	movq	-48(%rbp), %r8
	movq	-40(%rbp), %rdi
	movq	%r8, (%rcx)
	movq	%rdi, 8(%rcx)
	movq	%rsi, 32(%rcx)
	movq	%rdx, 40(%rcx)
	.loc	3 404 6 is_stmt 1
	addq	$160, %rsp
	popq	%rbp
	retq
LBB2_5:
	.loc	3 401 13
	leaq	l___unnamed_2(%rip), %rsi
	leaq	l___unnamed_1(%rip), %rcx
	xorl	%eax, %eax
	movl	%eax, %r8d
	leaq	-96(%rbp), %rdi
	movq	%rdi, -160(%rbp)
	movl	$1, %edx
	callq	__ZN4core3fmt9Arguments6new_v117h8cbc9bbe8e287c80E
	movq	-160(%rbp), %rdi
	leaq	l___unnamed_3(%rip), %rsi
	callq	__ZN4core9panicking9panic_fmt17h9b5d807e24bcaaedE
Ltmp8:
Lfunc_end2:
	.cfi_endproc

	.p2align	4, 0x90
__ZN4core3ops8function6FnOnce9call_once17h0005d98dc4181330E:
Lfunc_begin3:
	.file	4 "/rustc/2c8cc343237b8f7d5a3c3703e3a87f2eb2c54a74/library/core/src/ops" "function.rs"
	.loc	4 250 0
	.cfi_startproc
	pushq	%rbp
	.cfi_def_cfa_offset 16
	.cfi_offset %rbp, -16
	movq	%rsp, %rbp
	.cfi_def_cfa_register %rbp
	subq	$32, %rsp
	movq	%rdi, %rax
	movq	%rax, -32(%rbp)
	movq	%rsi, -24(%rbp)
	movq	%rdx, -16(%rbp)
Ltmp9:
	.loc	4 250 5 prologue_end
	movq	-24(%rbp), %rsi
	movq	-16(%rbp), %rdx
	callq	__ZN5alloc3str56_$LT$impl$u20$alloc..borrow..ToOwned$u20$for$u20$str$GT$8to_owned17hc37d78d2547a7da3E
	movq	-32(%rbp), %rax
	addq	$32, %rsp
	popq	%rbp
	retq
Ltmp10:
Lfunc_end3:
	.cfi_endproc

	.globl	__ZN4core3ptr48drop_in_place$LT$objc..message..MessageError$GT$17h117e28b25620062aE
	.p2align	4, 0x90
__ZN4core3ptr48drop_in_place$LT$objc..message..MessageError$GT$17h117e28b25620062aE:
Lfunc_begin4:
	.file	5 "/rustc/2c8cc343237b8f7d5a3c3703e3a87f2eb2c54a74/library/core/src/ptr" "mod.rs"
	.loc	5 490 0
	.cfi_startproc
	pushq	%rbp
	.cfi_def_cfa_offset 16
	.cfi_offset %rbp, -16
	movq	%rsp, %rbp
	.cfi_def_cfa_register %rbp
	subq	$16, %rsp
	movq	%rdi, -8(%rbp)
Ltmp11:
	.loc	5 490 1 prologue_end
	callq	__ZN4core3ptr42drop_in_place$LT$alloc..string..String$GT$17hef0d0483296c488eE
	addq	$16, %rsp
	popq	%rbp
	retq
Ltmp12:
Lfunc_end4:
	.cfi_endproc

	.p2align	4, 0x90
__ZN4core3str21_$LT$impl$u20$str$GT$3len17h62a43ee4b8f2e2d1E:
Lfunc_begin5:
	.file	6 "/rustc/2c8cc343237b8f7d5a3c3703e3a87f2eb2c54a74/library/core/src/str" "mod.rs"
	.loc	6 159 0
	.cfi_startproc
	pushq	%rbp
	.cfi_def_cfa_offset 16
	.cfi_offset %rbp, -16
	movq	%rsp, %rbp
	.cfi_def_cfa_register %rbp
	subq	$48, %rsp
	movq	%rdi, -48(%rbp)
	movq	%rsi, -40(%rbp)
Ltmp13:
	.loc	6 160 9 prologue_end
	movq	%rdi, -32(%rbp)
	movq	%rsi, -24(%rbp)
Ltmp14:
	.loc	6 327 18
	movq	%rdi, -16(%rbp)
	movq	%rsi, -8(%rbp)
	movq	-8(%rbp), %rax
Ltmp15:
	.loc	6 161 6
	addq	$48, %rsp
	popq	%rbp
	retq
Ltmp16:
Lfunc_end5:
	.cfi_endproc

	.p2align	4, 0x90
__ZN4core4sync6atomic11AtomicUsize4load17h165c113e23208c25E:
Lfunc_begin6:
	.file	7 "/rustc/2c8cc343237b8f7d5a3c3703e3a87f2eb2c54a74/library/core/src/sync" "atomic.rs"
	.loc	7 2125 0
	.cfi_startproc
	pushq	%rbp
	.cfi_def_cfa_offset 16
	.cfi_offset %rbp, -16
	movq	%rsp, %rbp
	.cfi_def_cfa_register %rbp
	subq	$32, %rsp
	movb	%sil, %al
	movq	%rdi, -24(%rbp)
	movb	%al, -9(%rbp)
Ltmp17:
	.loc	7 2127 38 prologue_end
	movq	%rdi, -8(%rbp)
	.loc	7 2127 26 is_stmt 0
	movzbl	%al, %esi
	callq	__ZN4core4sync6atomic11atomic_load17h38c27615fc794740E
	.loc	7 2128 14 is_stmt 1
	addq	$32, %rsp
	popq	%rbp
	retq
Ltmp18:
Lfunc_end6:
	.cfi_endproc

	.p2align	4, 0x90
__ZN4core4sync6atomic11AtomicUsize5store17h3be83bb461d9aa67E:
Lfunc_begin7:
	.loc	7 2152 0
	.cfi_startproc
	pushq	%rbp
	.cfi_def_cfa_offset 16
	.cfi_offset %rbp, -16
	movq	%rsp, %rbp
	.cfi_def_cfa_register %rbp
	subq	$32, %rsp
	movb	%dl, %al
	movq	%rdi, -32(%rbp)
	movq	%rsi, -24(%rbp)
	movb	%al, -9(%rbp)
Ltmp19:
	.loc	7 2154 39 prologue_end
	movq	%rdi, -8(%rbp)
	.loc	7 2154 26 is_stmt 0
	movzbl	%al, %edx
	callq	__ZN4core4sync6atomic12atomic_store17h96a39aea984d4a5dE
	.loc	7 2155 14 is_stmt 1
	addq	$32, %rsp
	popq	%rbp
	retq
Ltmp20:
Lfunc_end7:
	.cfi_endproc

	.globl	__ZN4core6option15Option$LT$T$GT$11map_or_else17hb407f5609b735f5dE
	.p2align	4, 0x90
__ZN4core6option15Option$LT$T$GT$11map_or_else17hb407f5609b735f5dE:
Lfunc_begin8:
	.file	8 "/rustc/2c8cc343237b8f7d5a3c3703e3a87f2eb2c54a74/library/core/src" "option.rs"
	.loc	8 1055 0
	.cfi_startproc
	.cfi_personality 155, _rust_eh_personality
	.cfi_lsda 16, Lexception0
	pushq	%rbp
	.cfi_def_cfa_offset 16
	.cfi_offset %rbp, -16
	movq	%rsp, %rbp
	.cfi_def_cfa_register %rbp
	subq	$112, %rsp
	movq	%rcx, -112(%rbp)
	movq	%rdi, -104(%rbp)
	movq	%rdi, -96(%rbp)
	movq	%rsi, -88(%rbp)
	movq	%rdx, -80(%rbp)
	movq	%rcx, -48(%rbp)
Ltmp26:
	.loc	8 1062 15 prologue_end
	movb	$1, -49(%rbp)
	movb	$1, -50(%rbp)
	movq	-88(%rbp), %rdx
	movl	$1, %eax
	xorl	%ecx, %ecx
	cmpq	$0, %rdx
	cmoveq	%rcx, %rax
	.loc	8 1062 9 is_stmt 0
	cmpq	$0, %rax
	jne	LBB8_2
	.loc	8 0 9
	movq	-112(%rbp), %rsi
	movq	-104(%rbp), %rdi
	.loc	8 1064 21 is_stmt 1
	movb	$0, -49(%rbp)
Ltmp23:
	callq	__ZN5alloc3fmt6format28_$u7b$$u7b$closure$u7d$$u7d$17h5f0da4ee2b9cec6bE
Ltmp24:
	jmp	LBB8_7
LBB8_2:
	.loc	8 0 21 is_stmt 0
	movq	-104(%rbp), %rdi
	.loc	8 1063 18 is_stmt 1
	movq	-88(%rbp), %rcx
	movq	-80(%rbp), %rax
	movq	%rcx, -32(%rbp)
	movq	%rax, -24(%rbp)
Ltmp27:
	.loc	8 1063 24 is_stmt 0
	movb	$0, -50(%rbp)
	movq	%rcx, -72(%rbp)
	movq	%rax, -64(%rbp)
	movq	-72(%rbp), %rsi
	movq	-64(%rbp), %rdx
Ltmp21:
	callq	__ZN4core3ops8function6FnOnce9call_once17h0005d98dc4181330E
Ltmp22:
	jmp	LBB8_5
Ltmp28:
LBB8_3:
	.loc	8 1066 5 is_stmt 1
	testb	$1, -50(%rbp)
	jne	LBB8_9
	jmp	LBB8_8
LBB8_4:
Ltmp25:
	.loc	8 0 5 is_stmt 0
	movq	%rax, %rcx
	movl	%edx, %eax
	movq	%rcx, -16(%rbp)
	movl	%eax, -8(%rbp)
	jmp	LBB8_3
LBB8_5:
	.loc	8 1063 27 is_stmt 1
	jmp	LBB8_6
LBB8_6:
	.loc	8 1066 5
	testb	$1, -50(%rbp)
	jne	LBB8_11
	jmp	LBB8_10
LBB8_7:
	.loc	8 1064 29
	jmp	LBB8_6
LBB8_8:
	.loc	8 1066 5
	testb	$1, -49(%rbp)
	jne	LBB8_13
	jmp	LBB8_12
LBB8_9:
	jmp	LBB8_8
LBB8_10:
	testb	$1, -49(%rbp)
	jne	LBB8_15
	jmp	LBB8_14
LBB8_11:
	jmp	LBB8_10
LBB8_12:
	.loc	8 1055 5
	movq	-16(%rbp), %rdi
	callq	__Unwind_Resume
LBB8_13:
	.loc	8 1066 5
	jmp	LBB8_12
LBB8_14:
	.loc	8 0 5 is_stmt 0
	movq	-96(%rbp), %rax
	.loc	8 1066 6
	addq	$112, %rsp
	popq	%rbp
	retq
LBB8_15:
	.loc	8 1066 5
	jmp	LBB8_14
Ltmp29:
Lfunc_end8:
	.cfi_endproc
	.section	__TEXT,__gcc_except_tab
	.p2align	2
GCC_except_table8:
Lexception0:
	.byte	255
	.byte	255
	.byte	1
	.uleb128 Lcst_end0-Lcst_begin0
Lcst_begin0:
	.uleb128 Ltmp23-Lfunc_begin8
	.uleb128 Ltmp22-Ltmp23
	.uleb128 Ltmp25-Lfunc_begin8
	.byte	0
	.uleb128 Ltmp22-Lfunc_begin8
	.uleb128 Lfunc_end8-Ltmp22
	.byte	0
	.byte	0
Lcst_end0:
	.p2align	2

	.section	__TEXT,__text,regular,pure_instructions
	.globl	__ZN4core9panicking13panic_display17h81363d7cbc62b9a7E
	.p2align	4, 0x90
__ZN4core9panicking13panic_display17h81363d7cbc62b9a7E:
Lfunc_begin9:
	.file	9 "/rustc/2c8cc343237b8f7d5a3c3703e3a87f2eb2c54a74/library/core/src" "panicking.rs"
	.loc	9 146 0 is_stmt 1
	.cfi_startproc
	pushq	%rbp
	.cfi_def_cfa_offset 16
	.cfi_offset %rbp, -16
	movq	%rsp, %rbp
	.cfi_def_cfa_register %rbp
	subq	$144, %rsp
	movq	%rsi, -136(%rbp)
	movq	%rdi, -48(%rbp)
Ltmp30:
	.loc	9 147 15 prologue_end
	movq	%rdi, -40(%rbp)
Ltmp31:
	.loc	3 328 23
	movq	%rdi, -32(%rbp)
	.loc	3 328 26 is_stmt 0
	movq	__ZN66_$LT$objc..message..MessageError$u20$as$u20$core..fmt..Display$GT$3fmt17h2969be6726a93804E@GOTPCREL(%rip), %rax
	movq	%rax, -24(%rbp)
Ltmp32:
	.loc	3 347 42 is_stmt 1
	movq	%rax, -16(%rbp)
	movq	-16(%rbp), %rax
	.loc	3 347 68 is_stmt 0
	movq	%rdi, -8(%rbp)
	movq	-8(%rbp), %rcx
	.loc	3 347 18
	movq	%rcx, -64(%rbp)
	movq	%rax, -56(%rbp)
Ltmp33:
	.loc	9 147 15 is_stmt 1
	movq	-64(%rbp), %rcx
	movq	-56(%rbp), %rax
	movq	%rcx, -80(%rbp)
	movq	%rax, -72(%rbp)
	leaq	l___unnamed_4(%rip), %rsi
	leaq	-128(%rbp), %rdi
	movq	%rdi, -144(%rbp)
	leaq	-80(%rbp), %rcx
	movl	$1, %r8d
	movq	%r8, %rdx
	callq	__ZN4core3fmt9Arguments6new_v117h8cbc9bbe8e287c80E
	movq	-144(%rbp), %rdi
	movq	-136(%rbp), %rsi
	.loc	9 147 5 is_stmt 0
	callq	__ZN4core9panicking9panic_fmt17h9b5d807e24bcaaedE
Ltmp34:
Lfunc_end9:
	.cfi_endproc

	.globl	__ZN4objc7message8platform15send_unverified17h0406d60febdbf3e5E
	.p2align	4, 0x90
__ZN4objc7message8platform15send_unverified17h0406d60febdbf3e5E:
Lfunc_begin10:
	.file	10 "/Users/natalie/.cargo/registry/src/github.com-1ecc6299db9ec823/objc-0.2.7/src/message/apple" "mod.rs"
	.loc	10 21 0 is_stmt 1
	.cfi_startproc
	.cfi_personality 155, _rust_eh_personality
	.cfi_lsda 16, Lexception1
	pushq	%rbp
	.cfi_def_cfa_offset 16
	.cfi_offset %rbp, -16
	movq	%rsp, %rbp
	.cfi_def_cfa_register %rbp
	subq	$144, %rsp
	movq	%rcx, -136(%rbp)
Ltmp40:
	movq	%rsi, -128(%rbp)
	movq	%rdi, -120(%rbp)
	movq	%rdi, -112(%rbp)
	movq	%rdx, -88(%rbp)
	movq	-88(%rbp), %rax
	movq	%rax, -96(%rbp)
	movq	%rsi, -40(%rbp)
Ltmp41:
	.loc	10 24 9 prologue_end
	movb	$0, -41(%rbp)
	movb	$1, -41(%rbp)
	.loc	10 24 20 is_stmt 0
	movq	%rsi, -32(%rbp)
Ltmp35:
Ltmp42:
	.loc	10 25 23 is_stmt 1
	callq	__ZN4objc7message8platform4arch11msg_send_fn17ha1cf503d7d22b32cE
Ltmp43:
Ltmp36:
	.loc	10 0 23 is_stmt 0
	movq	%rax, -104(%rbp)
Ltmp44:
	.loc	10 25 23
	jmp	LBB10_3
Ltmp45:
LBB10_1:
	.loc	10 29 1 is_stmt 1
	testb	$1, -41(%rbp)
	jne	LBB10_6
	jmp	LBB10_5
Ltmp46:
LBB10_2:
Ltmp39:
	.loc	10 0 1 is_stmt 0
	movq	%rax, %rcx
	movl	%edx, %eax
	movq	%rcx, -24(%rbp)
	movl	%eax, -16(%rbp)
	jmp	LBB10_1
Ltmp47:
LBB10_3:
	movq	-128(%rbp), %rsi
	movq	-104(%rbp), %rdi
	movq	-136(%rbp), %rcx
Ltmp48:
	.loc	10 25 23 is_stmt 1
	movq	%rdi, -8(%rbp)
Ltmp49:
	.loc	10 27 42
	movq	-96(%rbp), %rax
	movq	%rax, -80(%rbp)
	.loc	10 27 47 is_stmt 0
	movb	$0, -41(%rbp)
	movq	16(%rcx), %rax
	movq	%rax, -56(%rbp)
	movq	(%rcx), %rax
	movq	8(%rcx), %rcx
	movq	%rcx, -64(%rbp)
	movq	%rax, -72(%rbp)
	.loc	10 27 9
	movq	-80(%rbp), %rdx
Ltmp37:
	leaq	-72(%rbp), %rcx
	callq	__ZN69_$LT$$LP$A$C$B$C$C$RP$$u20$as$u20$objc..message..MessageArguments$GT$6invoke17h34250ef346e1b925E
Ltmp38:
	movb	%al, -137(%rbp)
	jmp	LBB10_4
Ltmp50:
LBB10_4:
	.loc	10 0 9
	movq	-112(%rbp), %rax
	movq	-120(%rbp), %rcx
	movb	-137(%rbp), %dl
	.loc	10 26 5 is_stmt 1
	movb	%dl, (%rcx)
	movq	$0, 8(%rcx)
Ltmp51:
	.loc	10 29 2
	addq	$144, %rsp
	popq	%rbp
	retq
Ltmp52:
LBB10_5:
	.loc	10 21 1
	movq	-24(%rbp), %rdi
	callq	__Unwind_Resume
Ltmp53:
LBB10_6:
	.loc	10 29 1
	jmp	LBB10_5
Ltmp54:
Lfunc_end10:
	.cfi_endproc
	.section	__TEXT,__gcc_except_tab
	.p2align	2
GCC_except_table10:
Lexception1:
	.byte	255
	.byte	255
	.byte	1
	.uleb128 Lcst_end1-Lcst_begin1
Lcst_begin1:
	.uleb128 Ltmp35-Lfunc_begin10
	.uleb128 Ltmp38-Ltmp35
	.uleb128 Ltmp39-Lfunc_begin10
	.byte	0
	.uleb128 Ltmp38-Lfunc_begin10
	.uleb128 Lfunc_end10-Ltmp38
	.byte	0
	.byte	0
Lcst_end1:
	.p2align	2

	.section	__TEXT,__text,regular,pure_instructions
	.globl	__ZN4objc7message8platform15send_unverified17h0494c9f2ae3b596aE
	.p2align	4, 0x90
__ZN4objc7message8platform15send_unverified17h0494c9f2ae3b596aE:
Lfunc_begin11:
	.loc	10 21 0
	.cfi_startproc
	.cfi_personality 155, _rust_eh_personality
	.cfi_lsda 16, Lexception2
	pushq	%rbp
	.cfi_def_cfa_offset 16
	.cfi_offset %rbp, -16
	movq	%rsp, %rbp
	.cfi_def_cfa_register %rbp
	subq	$144, %rsp
	movq	%r8, -136(%rbp)
	movq	%rcx, -128(%rbp)
	movq	%rsi, -120(%rbp)
	movq	%rdi, -112(%rbp)
	movq	%rdi, -104(%rbp)
	movq	%rdx, -80(%rbp)
	movq	-80(%rbp), %rax
	movq	%rax, -88(%rbp)
	movq	%rsi, -56(%rbp)
	movq	%rcx, -48(%rbp)
	movq	%r8, -40(%rbp)
Ltmp60:
	.loc	10 24 9 prologue_end
	movb	$0, -57(%rbp)
	movb	$1, -57(%rbp)
	.loc	10 24 20 is_stmt 0
	movq	%rsi, -32(%rbp)
Ltmp55:
Ltmp61:
	.loc	10 25 23 is_stmt 1
	callq	__ZN4objc7message8platform4arch11msg_send_fn17h9bdde5caabe62b5fE
Ltmp56:
	movq	%rax, -96(%rbp)
	jmp	LBB11_3
Ltmp62:
LBB11_1:
	.loc	10 29 1
	testb	$1, -57(%rbp)
	jne	LBB11_6
	jmp	LBB11_5
LBB11_2:
Ltmp59:
	.loc	10 0 1 is_stmt 0
	movq	%rax, %rcx
	movl	%edx, %eax
	movq	%rcx, -24(%rbp)
	movl	%eax, -16(%rbp)
	jmp	LBB11_1
LBB11_3:
	movq	-136(%rbp), %r8
	movq	-128(%rbp), %rcx
	movq	-120(%rbp), %rsi
	movq	-96(%rbp), %rdi
Ltmp63:
	.loc	10 25 23 is_stmt 1
	movq	%rdi, -8(%rbp)
Ltmp64:
	.loc	10 27 42
	movq	-88(%rbp), %rax
	movq	%rax, -72(%rbp)
	.loc	10 27 47 is_stmt 0
	movb	$0, -57(%rbp)
	.loc	10 27 9
	movq	-72(%rbp), %rdx
Ltmp57:
	callq	__ZN65_$LT$$LP$A$C$B$RP$$u20$as$u20$objc..message..MessageArguments$GT$6invoke17h8ec664cc1836f8aeE
Ltmp58:
	jmp	LBB11_4
LBB11_4:
	.loc	10 0 9
	movq	-104(%rbp), %rax
	movq	-112(%rbp), %rcx
	.loc	10 26 5 is_stmt 1
	movq	$0, 8(%rcx)
Ltmp65:
	.loc	10 29 2
	addq	$144, %rsp
	popq	%rbp
	retq
LBB11_5:
	.loc	10 21 1
	movq	-24(%rbp), %rdi
	callq	__Unwind_Resume
LBB11_6:
	.loc	10 29 1
	jmp	LBB11_5
Ltmp66:
Lfunc_end11:
	.cfi_endproc
	.section	__TEXT,__gcc_except_tab
	.p2align	2
GCC_except_table11:
Lexception2:
	.byte	255
	.byte	255
	.byte	1
	.uleb128 Lcst_end2-Lcst_begin2
Lcst_begin2:
	.uleb128 Ltmp55-Lfunc_begin11
	.uleb128 Ltmp58-Ltmp55
	.uleb128 Ltmp59-Lfunc_begin11
	.byte	0
	.uleb128 Ltmp58-Lfunc_begin11
	.uleb128 Lfunc_end11-Ltmp58
	.byte	0
	.byte	0
Lcst_end2:
	.p2align	2

	.section	__TEXT,__text,regular,pure_instructions
	.globl	__ZN4objc7message8platform15send_unverified17h07f46bd99e8e0dedE
	.p2align	4, 0x90
__ZN4objc7message8platform15send_unverified17h07f46bd99e8e0dedE:
Lfunc_begin12:
	.loc	10 21 0
	.cfi_startproc
	.cfi_personality 155, _rust_eh_personality
	.cfi_lsda 16, Lexception3
	pushq	%rbp
	.cfi_def_cfa_offset 16
	.cfi_offset %rbp, -16
	movq	%rsp, %rbp
	.cfi_def_cfa_register %rbp
	subq	$144, %rsp
	movq	%rcx, -136(%rbp)
Ltmp72:
	movq	%rsi, -128(%rbp)
	movq	%rdi, -120(%rbp)
	movq	%rdi, -112(%rbp)
	movq	%rdx, -88(%rbp)
	movq	-88(%rbp), %rax
	movq	%rax, -96(%rbp)
	movq	%rsi, -40(%rbp)
Ltmp73:
	.loc	10 24 9 prologue_end
	movb	$0, -41(%rbp)
	movb	$1, -41(%rbp)
	.loc	10 24 20 is_stmt 0
	movq	%rsi, -32(%rbp)
Ltmp67:
Ltmp74:
	.loc	10 25 23 is_stmt 1
	callq	__ZN4objc7message8platform4arch11msg_send_fn17h9b8132bcc5b7b9ffE
Ltmp75:
Ltmp68:
	.loc	10 0 23 is_stmt 0
	movq	%rax, -104(%rbp)
Ltmp76:
	.loc	10 25 23
	jmp	LBB12_3
Ltmp77:
LBB12_1:
	.loc	10 29 1 is_stmt 1
	testb	$1, -41(%rbp)
	jne	LBB12_6
	jmp	LBB12_5
Ltmp78:
LBB12_2:
Ltmp71:
	.loc	10 0 1 is_stmt 0
	movq	%rax, %rcx
	movl	%edx, %eax
	movq	%rcx, -24(%rbp)
	movl	%eax, -16(%rbp)
	jmp	LBB12_1
Ltmp79:
LBB12_3:
	movq	-128(%rbp), %rsi
	movq	-104(%rbp), %rdi
	movq	-136(%rbp), %rcx
Ltmp80:
	.loc	10 25 23 is_stmt 1
	movq	%rdi, -8(%rbp)
Ltmp81:
	.loc	10 27 42
	movq	-96(%rbp), %rax
	movq	%rax, -80(%rbp)
	.loc	10 27 47 is_stmt 0
	movb	$0, -41(%rbp)
	movq	16(%rcx), %rax
	movq	%rax, -56(%rbp)
	movq	(%rcx), %rax
	movq	8(%rcx), %rcx
	movq	%rcx, -64(%rbp)
	movq	%rax, -72(%rbp)
	.loc	10 27 9
	movq	-80(%rbp), %rdx
Ltmp69:
	leaq	-72(%rbp), %rcx
	callq	__ZN69_$LT$$LP$A$C$B$C$C$RP$$u20$as$u20$objc..message..MessageArguments$GT$6invoke17h8cc4901466be7f90E
Ltmp70:
	movq	%rax, -144(%rbp)
	jmp	LBB12_4
Ltmp82:
LBB12_4:
	.loc	10 0 9
	movq	-112(%rbp), %rax
	movq	-120(%rbp), %rcx
	movq	-144(%rbp), %rdx
	.loc	10 26 5 is_stmt 1
	movq	%rdx, (%rcx)
	movq	$0, 8(%rcx)
Ltmp83:
	.loc	10 29 2
	addq	$144, %rsp
	popq	%rbp
	retq
Ltmp84:
LBB12_5:
	.loc	10 21 1
	movq	-24(%rbp), %rdi
	callq	__Unwind_Resume
Ltmp85:
LBB12_6:
	.loc	10 29 1
	jmp	LBB12_5
Ltmp86:
Lfunc_end12:
	.cfi_endproc
	.section	__TEXT,__gcc_except_tab
	.p2align	2
GCC_except_table12:
Lexception3:
	.byte	255
	.byte	255
	.byte	1
	.uleb128 Lcst_end3-Lcst_begin3
Lcst_begin3:
	.uleb128 Ltmp67-Lfunc_begin12
	.uleb128 Ltmp70-Ltmp67
	.uleb128 Ltmp71-Lfunc_begin12
	.byte	0
	.uleb128 Ltmp70-Lfunc_begin12
	.uleb128 Lfunc_end12-Ltmp70
	.byte	0
	.byte	0
Lcst_end3:
	.p2align	2

	.section	__TEXT,__text,regular,pure_instructions
	.globl	__ZN4objc7message8platform15send_unverified17h145313ad2bd64216E
	.p2align	4, 0x90
__ZN4objc7message8platform15send_unverified17h145313ad2bd64216E:
Lfunc_begin13:
	.loc	10 21 0
	.cfi_startproc
	.cfi_personality 155, _rust_eh_personality
	.cfi_lsda 16, Lexception4
	pushq	%rbp
	.cfi_def_cfa_offset 16
	.cfi_offset %rbp, -16
	movq	%rsp, %rbp
	.cfi_def_cfa_register %rbp
	subq	$128, %rsp
	movq	%rsi, -112(%rbp)
	movq	%rdi, -104(%rbp)
	movq	%rdi, -96(%rbp)
	movq	%rdx, -72(%rbp)
	movq	-72(%rbp), %rax
	movq	%rax, -80(%rbp)
	movq	%rsi, -48(%rbp)
Ltmp92:
	.loc	10 24 9 prologue_end
	movb	$0, -49(%rbp)
	movb	$1, -49(%rbp)
	.loc	10 24 20 is_stmt 0
	movq	%rsi, -32(%rbp)
Ltmp87:
Ltmp93:
	.loc	10 25 23 is_stmt 1
	callq	__ZN4objc7message8platform4arch11msg_send_fn17h9b8132bcc5b7b9ffE
Ltmp88:
	movq	%rax, -88(%rbp)
	jmp	LBB13_3
Ltmp94:
LBB13_1:
	.loc	10 29 1
	testb	$1, -49(%rbp)
	jne	LBB13_6
	jmp	LBB13_5
LBB13_2:
Ltmp91:
	.loc	10 0 1 is_stmt 0
	movq	%rax, %rcx
	movl	%edx, %eax
	movq	%rcx, -24(%rbp)
	movl	%eax, -16(%rbp)
	jmp	LBB13_1
LBB13_3:
	movq	-112(%rbp), %rsi
	movq	-88(%rbp), %rdi
Ltmp95:
	.loc	10 25 23 is_stmt 1
	movq	%rdi, -8(%rbp)
Ltmp96:
	.loc	10 27 42
	movq	-80(%rbp), %rax
	movq	%rax, -64(%rbp)
	.loc	10 27 47 is_stmt 0
	movb	$0, -49(%rbp)
	.loc	10 27 9
	movq	-64(%rbp), %rdx
Ltmp89:
	callq	__ZN60_$LT$$LP$$RP$$u20$as$u20$objc..message..MessageArguments$GT$6invoke17h0b0762c722f444edE
Ltmp90:
	movq	%rax, -120(%rbp)
	jmp	LBB13_4
LBB13_4:
	.loc	10 0 9
	movq	-96(%rbp), %rax
	movq	-104(%rbp), %rcx
	movq	-120(%rbp), %rdx
	.loc	10 26 5 is_stmt 1
	movq	%rdx, (%rcx)
	movq	$0, 8(%rcx)
Ltmp97:
	.loc	10 29 2
	addq	$128, %rsp
	popq	%rbp
	retq
LBB13_5:
	.loc	10 21 1
	movq	-24(%rbp), %rdi
	callq	__Unwind_Resume
LBB13_6:
	.loc	10 29 1
	jmp	LBB13_5
Ltmp98:
Lfunc_end13:
	.cfi_endproc
	.section	__TEXT,__gcc_except_tab
	.p2align	2
GCC_except_table13:
Lexception4:
	.byte	255
	.byte	255
	.byte	1
	.uleb128 Lcst_end4-Lcst_begin4
Lcst_begin4:
	.uleb128 Ltmp87-Lfunc_begin13
	.uleb128 Ltmp90-Ltmp87
	.uleb128 Ltmp91-Lfunc_begin13
	.byte	0
	.uleb128 Ltmp90-Lfunc_begin13
	.uleb128 Lfunc_end13-Ltmp90
	.byte	0
	.byte	0
Lcst_end4:
	.p2align	2

	.section	__TEXT,__text,regular,pure_instructions
	.globl	__ZN4objc7message8platform15send_unverified17h15c0900946177d1eE
	.p2align	4, 0x90
__ZN4objc7message8platform15send_unverified17h15c0900946177d1eE:
Lfunc_begin14:
	.loc	10 21 0
	.cfi_startproc
	.cfi_personality 155, _rust_eh_personality
	.cfi_lsda 16, Lexception5
	pushq	%rbp
	.cfi_def_cfa_offset 16
	.cfi_offset %rbp, -16
	movq	%rsp, %rbp
	.cfi_def_cfa_register %rbp
	subq	$160, %rsp
	movq	%rcx, -152(%rbp)
Ltmp104:
	movq	%rsi, -144(%rbp)
	movq	%rdi, -136(%rbp)
	movq	%rdi, -128(%rbp)
	movq	%rdx, -104(%rbp)
	movq	-104(%rbp), %rax
	movq	%rax, -112(%rbp)
	movq	%rsi, -40(%rbp)
Ltmp105:
	.loc	10 24 9 prologue_end
	movb	$0, -41(%rbp)
	movb	$1, -41(%rbp)
	.loc	10 24 20 is_stmt 0
	movq	%rsi, -32(%rbp)
Ltmp99:
Ltmp106:
	.loc	10 25 23 is_stmt 1
	callq	__ZN4objc7message8platform4arch11msg_send_fn17h9bdde5caabe62b5fE
Ltmp107:
Ltmp100:
	.loc	10 0 23 is_stmt 0
	movq	%rax, -120(%rbp)
Ltmp108:
	.loc	10 25 23
	jmp	LBB14_3
Ltmp109:
LBB14_1:
	.loc	10 29 1 is_stmt 1
	testb	$1, -41(%rbp)
	jne	LBB14_6
	jmp	LBB14_5
Ltmp110:
LBB14_2:
Ltmp103:
	.loc	10 0 1 is_stmt 0
	movq	%rax, %rcx
	movl	%edx, %eax
	movq	%rcx, -24(%rbp)
	movl	%eax, -16(%rbp)
	jmp	LBB14_1
Ltmp111:
LBB14_3:
	movq	-144(%rbp), %rsi
	movq	-120(%rbp), %rdi
	movq	-152(%rbp), %rcx
Ltmp112:
	.loc	10 25 23 is_stmt 1
	movq	%rdi, -8(%rbp)
Ltmp113:
	.loc	10 27 42
	movq	-112(%rbp), %rax
	movq	%rax, -96(%rbp)
	.loc	10 27 47 is_stmt 0
	movb	$0, -41(%rbp)
	movq	32(%rcx), %rax
	movq	%rax, -56(%rbp)
	movq	24(%rcx), %rax
	movq	%rax, -64(%rbp)
	movq	16(%rcx), %rax
	movq	%rax, -72(%rbp)
	movq	(%rcx), %rax
	movq	8(%rcx), %rcx
	movq	%rcx, -80(%rbp)
	movq	%rax, -88(%rbp)
	.loc	10 27 9
	movq	-96(%rbp), %rdx
Ltmp101:
	leaq	-88(%rbp), %rcx
	callq	__ZN77_$LT$$LP$A$C$B$C$C$C$D$C$E$RP$$u20$as$u20$objc..message..MessageArguments$GT$6invoke17h6a2001559470d918E
Ltmp102:
	jmp	LBB14_4
Ltmp114:
LBB14_4:
	.loc	10 0 9
	movq	-128(%rbp), %rax
	movq	-136(%rbp), %rcx
	.loc	10 26 5 is_stmt 1
	movq	$0, 8(%rcx)
Ltmp115:
	.loc	10 29 2
	addq	$160, %rsp
	popq	%rbp
	retq
Ltmp116:
LBB14_5:
	.loc	10 21 1
	movq	-24(%rbp), %rdi
	callq	__Unwind_Resume
Ltmp117:
LBB14_6:
	.loc	10 29 1
	jmp	LBB14_5
Ltmp118:
Lfunc_end14:
	.cfi_endproc
	.section	__TEXT,__gcc_except_tab
	.p2align	2
GCC_except_table14:
Lexception5:
	.byte	255
	.byte	255
	.byte	1
	.uleb128 Lcst_end5-Lcst_begin5
Lcst_begin5:
	.uleb128 Ltmp99-Lfunc_begin14
	.uleb128 Ltmp102-Ltmp99
	.uleb128 Ltmp103-Lfunc_begin14
	.byte	0
	.uleb128 Ltmp102-Lfunc_begin14
	.uleb128 Lfunc_end14-Ltmp102
	.byte	0
	.byte	0
Lcst_end5:
	.p2align	2

	.section	__TEXT,__text,regular,pure_instructions
	.globl	__ZN4objc7message8platform15send_unverified17h15daf7274f7503fdE
	.p2align	4, 0x90
__ZN4objc7message8platform15send_unverified17h15daf7274f7503fdE:
Lfunc_begin15:
	.loc	10 21 0
	.cfi_startproc
	.cfi_personality 155, _rust_eh_personality
	.cfi_lsda 16, Lexception6
	pushq	%rbp
	.cfi_def_cfa_offset 16
	.cfi_offset %rbp, -16
	movq	%rsp, %rbp
	.cfi_def_cfa_register %rbp
	subq	$144, %rsp
	movq	%r8, -136(%rbp)
	movq	%rsi, -128(%rbp)
	movq	%rdi, -120(%rbp)
	movb	%cl, %al
	movb	%al, -105(%rbp)
	movq	%rdi, -104(%rbp)
	movq	%rdx, -80(%rbp)
	movq	-80(%rbp), %rcx
	movq	%rcx, -88(%rbp)
	movq	%rsi, -56(%rbp)
	movb	%al, -48(%rbp)
	movq	%r8, -40(%rbp)
Ltmp124:
	.loc	10 24 9 prologue_end
	movb	$0, -57(%rbp)
	movb	$1, -57(%rbp)
	.loc	10 24 20 is_stmt 0
	movq	%rsi, -32(%rbp)
Ltmp119:
Ltmp125:
	.loc	10 25 23 is_stmt 1
	callq	__ZN4objc7message8platform4arch11msg_send_fn17h9bdde5caabe62b5fE
Ltmp120:
	movq	%rax, -96(%rbp)
	jmp	LBB15_3
Ltmp126:
LBB15_1:
	.loc	10 29 1
	testb	$1, -57(%rbp)
	jne	LBB15_6
	jmp	LBB15_5
LBB15_2:
Ltmp123:
	.loc	10 0 1 is_stmt 0
	movq	%rax, %rcx
	movl	%edx, %eax
	movq	%rcx, -24(%rbp)
	movl	%eax, -16(%rbp)
	jmp	LBB15_1
LBB15_3:
	movq	-136(%rbp), %r8
	movq	-128(%rbp), %rsi
	movq	-96(%rbp), %rdi
	movb	-105(%rbp), %al
Ltmp127:
	.loc	10 25 23 is_stmt 1
	movq	%rdi, -8(%rbp)
Ltmp128:
	.loc	10 27 42
	movq	-88(%rbp), %rcx
	movq	%rcx, -72(%rbp)
	.loc	10 27 47 is_stmt 0
	movb	$0, -57(%rbp)
	.loc	10 27 9
	movq	-72(%rbp), %rdx
Ltmp121:
	movzbl	%al, %ecx
	callq	__ZN65_$LT$$LP$A$C$B$RP$$u20$as$u20$objc..message..MessageArguments$GT$6invoke17h8ed61df28731f036E
Ltmp122:
	jmp	LBB15_4
LBB15_4:
	.loc	10 0 9
	movq	-104(%rbp), %rax
	movq	-120(%rbp), %rcx
	.loc	10 26 5 is_stmt 1
	movq	$0, 8(%rcx)
Ltmp129:
	.loc	10 29 2
	addq	$144, %rsp
	popq	%rbp
	retq
LBB15_5:
	.loc	10 21 1
	movq	-24(%rbp), %rdi
	callq	__Unwind_Resume
LBB15_6:
	.loc	10 29 1
	jmp	LBB15_5
Ltmp130:
Lfunc_end15:
	.cfi_endproc
	.section	__TEXT,__gcc_except_tab
	.p2align	2
GCC_except_table15:
Lexception6:
	.byte	255
	.byte	255
	.byte	1
	.uleb128 Lcst_end6-Lcst_begin6
Lcst_begin6:
	.uleb128 Ltmp119-Lfunc_begin15
	.uleb128 Ltmp122-Ltmp119
	.uleb128 Ltmp123-Lfunc_begin15
	.byte	0
	.uleb128 Ltmp122-Lfunc_begin15
	.uleb128 Lfunc_end15-Ltmp122
	.byte	0
	.byte	0
Lcst_end6:
	.p2align	2

	.section	__TEXT,__text,regular,pure_instructions
	.globl	__ZN4objc7message8platform15send_unverified17h1882cdc4661ef828E
	.p2align	4, 0x90
__ZN4objc7message8platform15send_unverified17h1882cdc4661ef828E:
Lfunc_begin16:
	.loc	10 21 0
	.cfi_startproc
	.cfi_personality 155, _rust_eh_personality
	.cfi_lsda 16, Lexception7
	pushq	%rbp
	.cfi_def_cfa_offset 16
	.cfi_offset %rbp, -16
	movq	%rsp, %rbp
	.cfi_def_cfa_register %rbp
	subq	$128, %rsp
	movq	%rcx, -120(%rbp)
	movq	%rsi, -112(%rbp)
	movq	%rdi, -104(%rbp)
	movq	%rdi, -96(%rbp)
	movq	%rdx, -72(%rbp)
	movq	-72(%rbp), %rax
	movq	%rax, -80(%rbp)
	movq	%rsi, -48(%rbp)
	movq	%rcx, -40(%rbp)
Ltmp136:
	.loc	10 24 9 prologue_end
	movb	$0, -49(%rbp)
	movb	$1, -49(%rbp)
	.loc	10 24 20 is_stmt 0
	movq	%rsi, -32(%rbp)
Ltmp131:
Ltmp137:
	.loc	10 25 23 is_stmt 1
	callq	__ZN4objc7message8platform4arch11msg_send_fn17h9b8132bcc5b7b9ffE
Ltmp132:
	movq	%rax, -88(%rbp)
	jmp	LBB16_3
Ltmp138:
LBB16_1:
	.loc	10 29 1
	testb	$1, -49(%rbp)
	jne	LBB16_6
	jmp	LBB16_5
LBB16_2:
Ltmp135:
	.loc	10 0 1 is_stmt 0
	movq	%rax, %rcx
	movl	%edx, %eax
	movq	%rcx, -24(%rbp)
	movl	%eax, -16(%rbp)
	jmp	LBB16_1
LBB16_3:
	movq	-120(%rbp), %rcx
	movq	-112(%rbp), %rsi
	movq	-88(%rbp), %rdi
Ltmp139:
	.loc	10 25 23 is_stmt 1
	movq	%rdi, -8(%rbp)
Ltmp140:
	.loc	10 27 42
	movq	-80(%rbp), %rax
	movq	%rax, -64(%rbp)
	.loc	10 27 47 is_stmt 0
	movb	$0, -49(%rbp)
	.loc	10 27 9
	movq	-64(%rbp), %rdx
Ltmp133:
	callq	__ZN64_$LT$$LP$A$C$$RP$$u20$as$u20$objc..message..MessageArguments$GT$6invoke17hcac31fecdd20d669E
Ltmp134:
	movq	%rax, -128(%rbp)
	jmp	LBB16_4
LBB16_4:
	.loc	10 0 9
	movq	-96(%rbp), %rax
	movq	-104(%rbp), %rcx
	movq	-128(%rbp), %rdx
	.loc	10 26 5 is_stmt 1
	movq	%rdx, (%rcx)
	movq	$0, 8(%rcx)
Ltmp141:
	.loc	10 29 2
	addq	$128, %rsp
	popq	%rbp
	retq
LBB16_5:
	.loc	10 21 1
	movq	-24(%rbp), %rdi
	callq	__Unwind_Resume
LBB16_6:
	.loc	10 29 1
	jmp	LBB16_5
Ltmp142:
Lfunc_end16:
	.cfi_endproc
	.section	__TEXT,__gcc_except_tab
	.p2align	2
GCC_except_table16:
Lexception7:
	.byte	255
	.byte	255
	.byte	1
	.uleb128 Lcst_end7-Lcst_begin7
Lcst_begin7:
	.uleb128 Ltmp131-Lfunc_begin16
	.uleb128 Ltmp134-Ltmp131
	.uleb128 Ltmp135-Lfunc_begin16
	.byte	0
	.uleb128 Ltmp134-Lfunc_begin16
	.uleb128 Lfunc_end16-Ltmp134
	.byte	0
	.byte	0
Lcst_end7:
	.p2align	2

	.section	__TEXT,__text,regular,pure_instructions
	.globl	__ZN4objc7message8platform15send_unverified17h214f1640e8dd959fE
	.p2align	4, 0x90
__ZN4objc7message8platform15send_unverified17h214f1640e8dd959fE:
Lfunc_begin17:
	.loc	10 21 0
	.cfi_startproc
	.cfi_personality 155, _rust_eh_personality
	.cfi_lsda 16, Lexception8
	pushq	%rbp
	.cfi_def_cfa_offset 16
	.cfi_offset %rbp, -16
	movq	%rsp, %rbp
	.cfi_def_cfa_register %rbp
	subq	$144, %rsp
	movq	%r8, -136(%rbp)
	movq	%rcx, -128(%rbp)
	movq	%rsi, -120(%rbp)
	movq	%rdi, -112(%rbp)
	movq	%rdi, -104(%rbp)
	movq	%rdx, -80(%rbp)
	movq	-80(%rbp), %rax
	movq	%rax, -88(%rbp)
	movq	%rsi, -56(%rbp)
	movq	%rcx, -48(%rbp)
	movq	%r8, -40(%rbp)
Ltmp148:
	.loc	10 24 9 prologue_end
	movb	$0, -57(%rbp)
	movb	$1, -57(%rbp)
	.loc	10 24 20 is_stmt 0
	movq	%rsi, -32(%rbp)
Ltmp143:
Ltmp149:
	.loc	10 25 23 is_stmt 1
	callq	__ZN4objc7message8platform4arch11msg_send_fn17h9b8132bcc5b7b9ffE
Ltmp144:
	movq	%rax, -96(%rbp)
	jmp	LBB17_3
Ltmp150:
LBB17_1:
	.loc	10 29 1
	testb	$1, -57(%rbp)
	jne	LBB17_6
	jmp	LBB17_5
LBB17_2:
Ltmp147:
	.loc	10 0 1 is_stmt 0
	movq	%rax, %rcx
	movl	%edx, %eax
	movq	%rcx, -24(%rbp)
	movl	%eax, -16(%rbp)
	jmp	LBB17_1
LBB17_3:
	movq	-136(%rbp), %r8
	movq	-128(%rbp), %rcx
	movq	-120(%rbp), %rsi
	movq	-96(%rbp), %rdi
Ltmp151:
	.loc	10 25 23 is_stmt 1
	movq	%rdi, -8(%rbp)
Ltmp152:
	.loc	10 27 42
	movq	-88(%rbp), %rax
	movq	%rax, -72(%rbp)
	.loc	10 27 47 is_stmt 0
	movb	$0, -57(%rbp)
	.loc	10 27 9
	movq	-72(%rbp), %rdx
Ltmp145:
	callq	__ZN65_$LT$$LP$A$C$B$RP$$u20$as$u20$objc..message..MessageArguments$GT$6invoke17he90f9e8d536325d7E
Ltmp146:
	movq	%rax, -144(%rbp)
	jmp	LBB17_4
LBB17_4:
	.loc	10 0 9
	movq	-104(%rbp), %rax
	movq	-112(%rbp), %rcx
	movq	-144(%rbp), %rdx
	.loc	10 26 5 is_stmt 1
	movq	%rdx, (%rcx)
	movq	$0, 8(%rcx)
Ltmp153:
	.loc	10 29 2
	addq	$144, %rsp
	popq	%rbp
	retq
LBB17_5:
	.loc	10 21 1
	movq	-24(%rbp), %rdi
	callq	__Unwind_Resume
LBB17_6:
	.loc	10 29 1
	jmp	LBB17_5
Ltmp154:
Lfunc_end17:
	.cfi_endproc
	.section	__TEXT,__gcc_except_tab
	.p2align	2
GCC_except_table17:
Lexception8:
	.byte	255
	.byte	255
	.byte	1
	.uleb128 Lcst_end8-Lcst_begin8
Lcst_begin8:
	.uleb128 Ltmp143-Lfunc_begin17
	.uleb128 Ltmp146-Ltmp143
	.uleb128 Ltmp147-Lfunc_begin17
	.byte	0
	.uleb128 Ltmp146-Lfunc_begin17
	.uleb128 Lfunc_end17-Ltmp146
	.byte	0
	.byte	0
Lcst_end8:
	.p2align	2

	.section	__TEXT,__text,regular,pure_instructions
	.globl	__ZN4objc7message8platform15send_unverified17h24717b60de4ca6fbE
	.p2align	4, 0x90
__ZN4objc7message8platform15send_unverified17h24717b60de4ca6fbE:
Lfunc_begin18:
	.loc	10 21 0
	.cfi_startproc
	.cfi_personality 155, _rust_eh_personality
	.cfi_lsda 16, Lexception9
	pushq	%rbp
	.cfi_def_cfa_offset 16
	.cfi_offset %rbp, -16
	movq	%rsp, %rbp
	.cfi_def_cfa_register %rbp
	subq	$112, %rsp
	movq	%rsi, -112(%rbp)
	movq	%rdi, -104(%rbp)
	movq	%rdi, -96(%rbp)
	movq	%rdx, -72(%rbp)
	movq	-72(%rbp), %rax
	movq	%rax, -80(%rbp)
	movq	%rsi, -48(%rbp)
Ltmp160:
	.loc	10 24 9 prologue_end
	movb	$0, -49(%rbp)
	movb	$1, -49(%rbp)
	.loc	10 24 20 is_stmt 0
	movq	%rsi, -32(%rbp)
Ltmp155:
Ltmp161:
	.loc	10 25 23 is_stmt 1
	callq	__ZN4objc7message8platform4arch11msg_send_fn17h9bdde5caabe62b5fE
Ltmp156:
	movq	%rax, -88(%rbp)
	jmp	LBB18_3
Ltmp162:
LBB18_1:
	.loc	10 29 1
	testb	$1, -49(%rbp)
	jne	LBB18_6
	jmp	LBB18_5
LBB18_2:
Ltmp159:
	.loc	10 0 1 is_stmt 0
	movq	%rax, %rcx
	movl	%edx, %eax
	movq	%rcx, -24(%rbp)
	movl	%eax, -16(%rbp)
	jmp	LBB18_1
LBB18_3:
	movq	-112(%rbp), %rsi
	movq	-88(%rbp), %rdi
Ltmp163:
	.loc	10 25 23 is_stmt 1
	movq	%rdi, -8(%rbp)
Ltmp164:
	.loc	10 27 42
	movq	-80(%rbp), %rax
	movq	%rax, -64(%rbp)
	.loc	10 27 47 is_stmt 0
	movb	$0, -49(%rbp)
	.loc	10 27 9
	movq	-64(%rbp), %rdx
Ltmp157:
	callq	__ZN60_$LT$$LP$$RP$$u20$as$u20$objc..message..MessageArguments$GT$6invoke17h587067c6a85f847eE
Ltmp158:
	jmp	LBB18_4
LBB18_4:
	.loc	10 0 9
	movq	-96(%rbp), %rax
	movq	-104(%rbp), %rcx
	.loc	10 26 5 is_stmt 1
	movq	$0, 8(%rcx)
Ltmp165:
	.loc	10 29 2
	addq	$112, %rsp
	popq	%rbp
	retq
LBB18_5:
	.loc	10 21 1
	movq	-24(%rbp), %rdi
	callq	__Unwind_Resume
LBB18_6:
	.loc	10 29 1
	jmp	LBB18_5
Ltmp166:
Lfunc_end18:
	.cfi_endproc
	.section	__TEXT,__gcc_except_tab
	.p2align	2
GCC_except_table18:
Lexception9:
	.byte	255
	.byte	255
	.byte	1
	.uleb128 Lcst_end9-Lcst_begin9
Lcst_begin9:
	.uleb128 Ltmp155-Lfunc_begin18
	.uleb128 Ltmp158-Ltmp155
	.uleb128 Ltmp159-Lfunc_begin18
	.byte	0
	.uleb128 Ltmp158-Lfunc_begin18
	.uleb128 Lfunc_end18-Ltmp158
	.byte	0
	.byte	0
Lcst_end9:
	.p2align	2

	.section	__TEXT,__text,regular,pure_instructions
	.globl	__ZN4objc7message8platform15send_unverified17h256935af4afe6a14E
	.p2align	4, 0x90
__ZN4objc7message8platform15send_unverified17h256935af4afe6a14E:
Lfunc_begin19:
	.loc	10 21 0
	.cfi_startproc
	.cfi_personality 155, _rust_eh_personality
	.cfi_lsda 16, Lexception10
	pushq	%rbp
	.cfi_def_cfa_offset 16
	.cfi_offset %rbp, -16
	movq	%rsp, %rbp
	.cfi_def_cfa_register %rbp
	subq	$144, %rsp
	movq	%r8, -136(%rbp)
	movq	%rcx, -128(%rbp)
	movq	%rsi, -120(%rbp)
	movq	%rdi, -112(%rbp)
	movq	%rdi, -104(%rbp)
	movq	%rdx, -80(%rbp)
	movq	-80(%rbp), %rax
	movq	%rax, -88(%rbp)
	movq	%rsi, -56(%rbp)
	movq	%rcx, -48(%rbp)
	movq	%r8, -40(%rbp)
Ltmp172:
	.loc	10 24 9 prologue_end
	movb	$0, -57(%rbp)
	movb	$1, -57(%rbp)
	.loc	10 24 20 is_stmt 0
	movq	%rsi, -32(%rbp)
Ltmp167:
Ltmp173:
	.loc	10 25 23 is_stmt 1
	callq	__ZN4objc7message8platform4arch11msg_send_fn17h9b8132bcc5b7b9ffE
Ltmp168:
	movq	%rax, -96(%rbp)
	jmp	LBB19_3
Ltmp174:
LBB19_1:
	.loc	10 29 1
	testb	$1, -57(%rbp)
	jne	LBB19_6
	jmp	LBB19_5
LBB19_2:
Ltmp171:
	.loc	10 0 1 is_stmt 0
	movq	%rax, %rcx
	movl	%edx, %eax
	movq	%rcx, -24(%rbp)
	movl	%eax, -16(%rbp)
	jmp	LBB19_1
LBB19_3:
	movq	-136(%rbp), %r8
	movq	-128(%rbp), %rcx
	movq	-120(%rbp), %rsi
	movq	-96(%rbp), %rdi
Ltmp175:
	.loc	10 25 23 is_stmt 1
	movq	%rdi, -8(%rbp)
Ltmp176:
	.loc	10 27 42
	movq	-88(%rbp), %rax
	movq	%rax, -72(%rbp)
	.loc	10 27 47 is_stmt 0
	movb	$0, -57(%rbp)
	.loc	10 27 9
	movq	-72(%rbp), %rdx
Ltmp169:
	callq	__ZN65_$LT$$LP$A$C$B$RP$$u20$as$u20$objc..message..MessageArguments$GT$6invoke17h75e2dd3fc3a454a0E
Ltmp170:
	movq	%rax, -144(%rbp)
	jmp	LBB19_4
LBB19_4:
	.loc	10 0 9
	movq	-104(%rbp), %rax
	movq	-112(%rbp), %rcx
	movq	-144(%rbp), %rdx
	.loc	10 26 5 is_stmt 1
	movq	%rdx, (%rcx)
	movq	$0, 8(%rcx)
Ltmp177:
	.loc	10 29 2
	addq	$144, %rsp
	popq	%rbp
	retq
LBB19_5:
	.loc	10 21 1
	movq	-24(%rbp), %rdi
	callq	__Unwind_Resume
LBB19_6:
	.loc	10 29 1
	jmp	LBB19_5
Ltmp178:
Lfunc_end19:
	.cfi_endproc
	.section	__TEXT,__gcc_except_tab
	.p2align	2
GCC_except_table19:
Lexception10:
	.byte	255
	.byte	255
	.byte	1
	.uleb128 Lcst_end10-Lcst_begin10
Lcst_begin10:
	.uleb128 Ltmp167-Lfunc_begin19
	.uleb128 Ltmp170-Ltmp167
	.uleb128 Ltmp171-Lfunc_begin19
	.byte	0
	.uleb128 Ltmp170-Lfunc_begin19
	.uleb128 Lfunc_end19-Ltmp170
	.byte	0
	.byte	0
Lcst_end10:
	.p2align	2

	.section	__TEXT,__text,regular,pure_instructions
	.globl	__ZN4objc7message8platform15send_unverified17h25eb879e0efe9f28E
	.p2align	4, 0x90
__ZN4objc7message8platform15send_unverified17h25eb879e0efe9f28E:
Lfunc_begin20:
	.loc	10 21 0
	.cfi_startproc
	.cfi_personality 155, _rust_eh_personality
	.cfi_lsda 16, Lexception11
	pushq	%rbp
	.cfi_def_cfa_offset 16
	.cfi_offset %rbp, -16
	movq	%rsp, %rbp
	.cfi_def_cfa_register %rbp
	subq	$128, %rsp
	movq	%rcx, -120(%rbp)
	movq	%rsi, -112(%rbp)
	movq	%rdi, -104(%rbp)
	movq	%rdi, -96(%rbp)
	movq	%rdx, -72(%rbp)
	movq	-72(%rbp), %rax
	movq	%rax, -80(%rbp)
	movq	%rsi, -48(%rbp)
	movq	%rcx, -40(%rbp)
Ltmp184:
	.loc	10 24 9 prologue_end
	movb	$0, -49(%rbp)
	movb	$1, -49(%rbp)
	.loc	10 24 20 is_stmt 0
	movq	%rsi, -32(%rbp)
Ltmp179:
Ltmp185:
	.loc	10 25 23 is_stmt 1
	callq	__ZN4objc7message8platform4arch11msg_send_fn17h9bdde5caabe62b5fE
Ltmp180:
	movq	%rax, -88(%rbp)
	jmp	LBB20_3
Ltmp186:
LBB20_1:
	.loc	10 29 1
	testb	$1, -49(%rbp)
	jne	LBB20_6
	jmp	LBB20_5
LBB20_2:
Ltmp183:
	.loc	10 0 1 is_stmt 0
	movq	%rax, %rcx
	movl	%edx, %eax
	movq	%rcx, -24(%rbp)
	movl	%eax, -16(%rbp)
	jmp	LBB20_1
LBB20_3:
	movq	-120(%rbp), %rcx
	movq	-112(%rbp), %rsi
	movq	-88(%rbp), %rdi
Ltmp187:
	.loc	10 25 23 is_stmt 1
	movq	%rdi, -8(%rbp)
Ltmp188:
	.loc	10 27 42
	movq	-80(%rbp), %rax
	movq	%rax, -64(%rbp)
	.loc	10 27 47 is_stmt 0
	movb	$0, -49(%rbp)
	.loc	10 27 9
	movq	-64(%rbp), %rdx
Ltmp181:
	callq	__ZN64_$LT$$LP$A$C$$RP$$u20$as$u20$objc..message..MessageArguments$GT$6invoke17hcaba6ff24ccc2d7bE
Ltmp182:
	jmp	LBB20_4
LBB20_4:
	.loc	10 0 9
	movq	-96(%rbp), %rax
	movq	-104(%rbp), %rcx
	.loc	10 26 5 is_stmt 1
	movq	$0, 8(%rcx)
Ltmp189:
	.loc	10 29 2
	addq	$128, %rsp
	popq	%rbp
	retq
LBB20_5:
	.loc	10 21 1
	movq	-24(%rbp), %rdi
	callq	__Unwind_Resume
LBB20_6:
	.loc	10 29 1
	jmp	LBB20_5
Ltmp190:
Lfunc_end20:
	.cfi_endproc
	.section	__TEXT,__gcc_except_tab
	.p2align	2
GCC_except_table20:
Lexception11:
	.byte	255
	.byte	255
	.byte	1
	.uleb128 Lcst_end11-Lcst_begin11
Lcst_begin11:
	.uleb128 Ltmp179-Lfunc_begin20
	.uleb128 Ltmp182-Ltmp179
	.uleb128 Ltmp183-Lfunc_begin20
	.byte	0
	.uleb128 Ltmp182-Lfunc_begin20
	.uleb128 Lfunc_end20-Ltmp182
	.byte	0
	.byte	0
Lcst_end11:
	.p2align	2

	.section	__TEXT,__text,regular,pure_instructions
	.globl	__ZN4objc7message8platform15send_unverified17h2ae3abd08843e369E
	.p2align	4, 0x90
__ZN4objc7message8platform15send_unverified17h2ae3abd08843e369E:
Lfunc_begin21:
	.loc	10 21 0
	.cfi_startproc
	.cfi_personality 155, _rust_eh_personality
	.cfi_lsda 16, Lexception12
	pushq	%rbp
	.cfi_def_cfa_offset 16
	.cfi_offset %rbp, -16
	movq	%rsp, %rbp
	.cfi_def_cfa_register %rbp
	subq	$128, %rsp
	movq	%rcx, -120(%rbp)
	movq	%rsi, -112(%rbp)
	movq	%rdi, -104(%rbp)
	movq	%rdi, -96(%rbp)
	movq	%rdx, -72(%rbp)
	movq	-72(%rbp), %rax
	movq	%rax, -80(%rbp)
	movq	%rsi, -48(%rbp)
	movq	%rcx, -40(%rbp)
Ltmp196:
	.loc	10 24 9 prologue_end
	movb	$0, -49(%rbp)
	movb	$1, -49(%rbp)
	.loc	10 24 20 is_stmt 0
	movq	%rsi, -32(%rbp)
Ltmp191:
Ltmp197:
	.loc	10 25 23 is_stmt 1
	callq	__ZN4objc7message8platform4arch11msg_send_fn17h9b8132bcc5b7b9ffE
Ltmp192:
	movq	%rax, -88(%rbp)
	jmp	LBB21_3
Ltmp198:
LBB21_1:
	.loc	10 29 1
	testb	$1, -49(%rbp)
	jne	LBB21_6
	jmp	LBB21_5
LBB21_2:
Ltmp195:
	.loc	10 0 1 is_stmt 0
	movq	%rax, %rcx
	movl	%edx, %eax
	movq	%rcx, -24(%rbp)
	movl	%eax, -16(%rbp)
	jmp	LBB21_1
LBB21_3:
	movq	-120(%rbp), %rcx
	movq	-112(%rbp), %rsi
	movq	-88(%rbp), %rdi
Ltmp199:
	.loc	10 25 23 is_stmt 1
	movq	%rdi, -8(%rbp)
Ltmp200:
	.loc	10 27 42
	movq	-80(%rbp), %rax
	movq	%rax, -64(%rbp)
	.loc	10 27 47 is_stmt 0
	movb	$0, -49(%rbp)
	.loc	10 27 9
	movq	-64(%rbp), %rdx
Ltmp193:
	callq	__ZN64_$LT$$LP$A$C$$RP$$u20$as$u20$objc..message..MessageArguments$GT$6invoke17hbc7f404fa79d1cc5E
Ltmp194:
	movq	%rax, -128(%rbp)
	jmp	LBB21_4
LBB21_4:
	.loc	10 0 9
	movq	-96(%rbp), %rax
	movq	-104(%rbp), %rcx
	movq	-128(%rbp), %rdx
	.loc	10 26 5 is_stmt 1
	movq	%rdx, (%rcx)
	movq	$0, 8(%rcx)
Ltmp201:
	.loc	10 29 2
	addq	$128, %rsp
	popq	%rbp
	retq
LBB21_5:
	.loc	10 21 1
	movq	-24(%rbp), %rdi
	callq	__Unwind_Resume
LBB21_6:
	.loc	10 29 1
	jmp	LBB21_5
Ltmp202:
Lfunc_end21:
	.cfi_endproc
	.section	__TEXT,__gcc_except_tab
	.p2align	2
GCC_except_table21:
Lexception12:
	.byte	255
	.byte	255
	.byte	1
	.uleb128 Lcst_end12-Lcst_begin12
Lcst_begin12:
	.uleb128 Ltmp191-Lfunc_begin21
	.uleb128 Ltmp194-Ltmp191
	.uleb128 Ltmp195-Lfunc_begin21
	.byte	0
	.uleb128 Ltmp194-Lfunc_begin21
	.uleb128 Lfunc_end21-Ltmp194
	.byte	0
	.byte	0
Lcst_end12:
	.p2align	2

	.section	__TEXT,__text,regular,pure_instructions
	.globl	__ZN4objc7message8platform15send_unverified17h31fb4491313b9fcdE
	.p2align	4, 0x90
__ZN4objc7message8platform15send_unverified17h31fb4491313b9fcdE:
Lfunc_begin22:
	.loc	10 21 0
	.cfi_startproc
	.cfi_personality 155, _rust_eh_personality
	.cfi_lsda 16, Lexception13
	pushq	%rbp
	.cfi_def_cfa_offset 16
	.cfi_offset %rbp, -16
	movq	%rsp, %rbp
	.cfi_def_cfa_register %rbp
	subq	$144, %rsp
	movq	%rcx, -136(%rbp)
Ltmp208:
	movq	%rsi, -128(%rbp)
	movq	%rdi, -120(%rbp)
	movq	%rdi, -112(%rbp)
	movq	%rdx, -88(%rbp)
	movq	-88(%rbp), %rax
	movq	%rax, -96(%rbp)
	movq	%rsi, -40(%rbp)
Ltmp209:
	.loc	10 24 9 prologue_end
	movb	$0, -41(%rbp)
	movb	$1, -41(%rbp)
	.loc	10 24 20 is_stmt 0
	movq	%rsi, -32(%rbp)
Ltmp203:
Ltmp210:
	.loc	10 25 23 is_stmt 1
	callq	__ZN4objc7message8platform4arch11msg_send_fn17h9b8132bcc5b7b9ffE
Ltmp211:
Ltmp204:
	.loc	10 0 23 is_stmt 0
	movq	%rax, -104(%rbp)
Ltmp212:
	.loc	10 25 23
	jmp	LBB22_3
Ltmp213:
LBB22_1:
	.loc	10 29 1 is_stmt 1
	testb	$1, -41(%rbp)
	jne	LBB22_6
	jmp	LBB22_5
Ltmp214:
LBB22_2:
Ltmp207:
	.loc	10 0 1 is_stmt 0
	movq	%rax, %rcx
	movl	%edx, %eax
	movq	%rcx, -24(%rbp)
	movl	%eax, -16(%rbp)
	jmp	LBB22_1
Ltmp215:
LBB22_3:
	movq	-128(%rbp), %rsi
	movq	-104(%rbp), %rdi
	movq	-136(%rbp), %rcx
Ltmp216:
	.loc	10 25 23 is_stmt 1
	movq	%rdi, -8(%rbp)
Ltmp217:
	.loc	10 27 42
	movq	-96(%rbp), %rax
	movq	%rax, -80(%rbp)
	.loc	10 27 47 is_stmt 0
	movb	$0, -41(%rbp)
	movq	16(%rcx), %rax
	movq	%rax, -56(%rbp)
	movq	(%rcx), %rax
	movq	8(%rcx), %rcx
	movq	%rcx, -64(%rbp)
	movq	%rax, -72(%rbp)
	.loc	10 27 9
	movq	-80(%rbp), %rdx
Ltmp205:
	leaq	-72(%rbp), %rcx
	callq	__ZN69_$LT$$LP$A$C$B$C$C$RP$$u20$as$u20$objc..message..MessageArguments$GT$6invoke17hdf1367f024b6d31cE
Ltmp206:
	movq	%rax, -144(%rbp)
	jmp	LBB22_4
Ltmp218:
LBB22_4:
	.loc	10 0 9
	movq	-112(%rbp), %rax
	movq	-120(%rbp), %rcx
	movq	-144(%rbp), %rdx
	.loc	10 26 5 is_stmt 1
	movq	%rdx, (%rcx)
	movq	$0, 8(%rcx)
Ltmp219:
	.loc	10 29 2
	addq	$144, %rsp
	popq	%rbp
	retq
Ltmp220:
LBB22_5:
	.loc	10 21 1
	movq	-24(%rbp), %rdi
	callq	__Unwind_Resume
Ltmp221:
LBB22_6:
	.loc	10 29 1
	jmp	LBB22_5
Ltmp222:
Lfunc_end22:
	.cfi_endproc
	.section	__TEXT,__gcc_except_tab
	.p2align	2
GCC_except_table22:
Lexception13:
	.byte	255
	.byte	255
	.byte	1
	.uleb128 Lcst_end13-Lcst_begin13
Lcst_begin13:
	.uleb128 Ltmp203-Lfunc_begin22
	.uleb128 Ltmp206-Ltmp203
	.uleb128 Ltmp207-Lfunc_begin22
	.byte	0
	.uleb128 Ltmp206-Lfunc_begin22
	.uleb128 Lfunc_end22-Ltmp206
	.byte	0
	.byte	0
Lcst_end13:
	.p2align	2

	.section	__TEXT,__text,regular,pure_instructions
	.globl	__ZN4objc7message8platform15send_unverified17h36ba6781aaf5d5a1E
	.p2align	4, 0x90
__ZN4objc7message8platform15send_unverified17h36ba6781aaf5d5a1E:
Lfunc_begin23:
	.loc	10 21 0
	.cfi_startproc
	.cfi_personality 155, _rust_eh_personality
	.cfi_lsda 16, Lexception14
	pushq	%rbp
	.cfi_def_cfa_offset 16
	.cfi_offset %rbp, -16
	movq	%rsp, %rbp
	.cfi_def_cfa_register %rbp
	subq	$144, %rsp
	movq	%rsi, -136(%rbp)
	movq	%rdi, -128(%rbp)
	movq	%rdi, -120(%rbp)
	movq	%rdx, -96(%rbp)
	movq	-96(%rbp), %rax
	movq	%rax, -104(%rbp)
	movq	%rsi, -48(%rbp)
Ltmp228:
	.loc	10 24 9 prologue_end
	movb	$0, -49(%rbp)
	movb	$1, -49(%rbp)
	.loc	10 24 20 is_stmt 0
	movq	%rsi, -32(%rbp)
Ltmp223:
Ltmp229:
	.loc	10 25 23 is_stmt 1
	callq	__ZN4objc7message8platform4arch11msg_send_fn17h2c585c636ce508c8E
Ltmp224:
	movq	%rax, -112(%rbp)
	jmp	LBB23_3
Ltmp230:
LBB23_1:
	.loc	10 29 1
	testb	$1, -49(%rbp)
	jne	LBB23_6
	jmp	LBB23_5
LBB23_2:
Ltmp227:
	.loc	10 0 1 is_stmt 0
	movq	%rax, %rcx
	movl	%edx, %eax
	movq	%rcx, -24(%rbp)
	movl	%eax, -16(%rbp)
	jmp	LBB23_1
LBB23_3:
	movq	-136(%rbp), %rdx
	movq	-112(%rbp), %rsi
Ltmp231:
	.loc	10 25 23 is_stmt 1
	movq	%rsi, -8(%rbp)
Ltmp232:
	.loc	10 27 42
	movq	-104(%rbp), %rax
	movq	%rax, -64(%rbp)
	.loc	10 27 47 is_stmt 0
	movb	$0, -49(%rbp)
	.loc	10 27 9
	movq	-64(%rbp), %rcx
Ltmp225:
	leaq	-88(%rbp), %rdi
	callq	__ZN60_$LT$$LP$$RP$$u20$as$u20$objc..message..MessageArguments$GT$6invoke17ha2b3b542251d9ffeE
Ltmp226:
	jmp	LBB23_4
LBB23_4:
	.loc	10 0 9
	movq	-120(%rbp), %rax
	movq	-128(%rbp), %rcx
	.loc	10 26 5 is_stmt 1
	movq	-88(%rbp), %rdx
	movq	%rdx, 8(%rcx)
	movq	-80(%rbp), %rdx
	movq	%rdx, 16(%rcx)
	movq	-72(%rbp), %rdx
	movq	%rdx, 24(%rcx)
	movq	$0, (%rcx)
Ltmp233:
	.loc	10 29 2
	addq	$144, %rsp
	popq	%rbp
	retq
LBB23_5:
	.loc	10 21 1
	movq	-24(%rbp), %rdi
	callq	__Unwind_Resume
LBB23_6:
	.loc	10 29 1
	jmp	LBB23_5
Ltmp234:
Lfunc_end23:
	.cfi_endproc
	.section	__TEXT,__gcc_except_tab
	.p2align	2
GCC_except_table23:
Lexception14:
	.byte	255
	.byte	255
	.byte	1
	.uleb128 Lcst_end14-Lcst_begin14
Lcst_begin14:
	.uleb128 Ltmp223-Lfunc_begin23
	.uleb128 Ltmp226-Ltmp223
	.uleb128 Ltmp227-Lfunc_begin23
	.byte	0
	.uleb128 Ltmp226-Lfunc_begin23
	.uleb128 Lfunc_end23-Ltmp226
	.byte	0
	.byte	0
Lcst_end14:
	.p2align	2

	.section	__TEXT,__text,regular,pure_instructions
	.globl	__ZN4objc7message8platform15send_unverified17h3962f415df51e16fE
	.p2align	4, 0x90
__ZN4objc7message8platform15send_unverified17h3962f415df51e16fE:
Lfunc_begin24:
	.loc	10 21 0
	.cfi_startproc
	.cfi_personality 155, _rust_eh_personality
	.cfi_lsda 16, Lexception15
	pushq	%rbp
	.cfi_def_cfa_offset 16
	.cfi_offset %rbp, -16
	movq	%rsp, %rbp
	.cfi_def_cfa_register %rbp
	subq	$160, %rsp
	movq	%rcx, -144(%rbp)
Ltmp240:
	movq	%rsi, -136(%rbp)
	movq	%rdi, -128(%rbp)
	movq	%rdi, -120(%rbp)
	movq	%rdx, -96(%rbp)
	movq	-96(%rbp), %rax
	movq	%rax, -104(%rbp)
	movq	%rsi, -40(%rbp)
Ltmp241:
	.loc	10 24 9 prologue_end
	movb	$0, -41(%rbp)
	movb	$1, -41(%rbp)
	.loc	10 24 20 is_stmt 0
	movq	%rsi, -32(%rbp)
Ltmp235:
Ltmp242:
	.loc	10 25 23 is_stmt 1
	callq	__ZN4objc7message8platform4arch11msg_send_fn17h230861b441c19f6eE
Ltmp243:
Ltmp236:
	.loc	10 0 23 is_stmt 0
	movq	%rax, -112(%rbp)
Ltmp244:
	.loc	10 25 23
	jmp	LBB24_3
Ltmp245:
LBB24_1:
	.loc	10 29 1 is_stmt 1
	testb	$1, -41(%rbp)
	jne	LBB24_6
	jmp	LBB24_5
Ltmp246:
LBB24_2:
Ltmp239:
	.loc	10 0 1 is_stmt 0
	movq	%rax, %rcx
	movl	%edx, %eax
	movq	%rcx, -24(%rbp)
	movl	%eax, -16(%rbp)
	jmp	LBB24_1
Ltmp247:
LBB24_3:
	movq	-136(%rbp), %rsi
	movq	-112(%rbp), %rdi
	movq	-144(%rbp), %rcx
Ltmp248:
	.loc	10 25 23 is_stmt 1
	movq	%rdi, -8(%rbp)
Ltmp249:
	.loc	10 27 42
	movq	-104(%rbp), %rax
	movq	%rax, -88(%rbp)
	.loc	10 27 47 is_stmt 0
	movb	$0, -41(%rbp)
	movq	24(%rcx), %rax
	movq	%rax, -56(%rbp)
	movq	16(%rcx), %rax
	movq	%rax, -64(%rbp)
	movq	(%rcx), %rax
	movq	8(%rcx), %rcx
	movq	%rcx, -72(%rbp)
	movq	%rax, -80(%rbp)
	.loc	10 27 9
	movq	-88(%rbp), %rdx
Ltmp237:
	leaq	-80(%rbp), %rcx
	callq	__ZN69_$LT$$LP$A$C$B$C$C$RP$$u20$as$u20$objc..message..MessageArguments$GT$6invoke17ha3ca01802bc27ffbE
Ltmp238:
	movq	%rdx, -160(%rbp)
	movq	%rax, -152(%rbp)
	jmp	LBB24_4
Ltmp250:
LBB24_4:
	.loc	10 0 9
	movq	-120(%rbp), %rax
	movq	-128(%rbp), %rcx
	movq	-160(%rbp), %rdx
	movq	-152(%rbp), %rsi
	.loc	10 26 5 is_stmt 1
	movq	%rsi, 8(%rcx)
	movq	%rdx, 16(%rcx)
	movq	$0, (%rcx)
Ltmp251:
	.loc	10 29 2
	addq	$160, %rsp
	popq	%rbp
	retq
Ltmp252:
LBB24_5:
	.loc	10 21 1
	movq	-24(%rbp), %rdi
	callq	__Unwind_Resume
Ltmp253:
LBB24_6:
	.loc	10 29 1
	jmp	LBB24_5
Ltmp254:
Lfunc_end24:
	.cfi_endproc
	.section	__TEXT,__gcc_except_tab
	.p2align	2
GCC_except_table24:
Lexception15:
	.byte	255
	.byte	255
	.byte	1
	.uleb128 Lcst_end15-Lcst_begin15
Lcst_begin15:
	.uleb128 Ltmp235-Lfunc_begin24
	.uleb128 Ltmp238-Ltmp235
	.uleb128 Ltmp239-Lfunc_begin24
	.byte	0
	.uleb128 Ltmp238-Lfunc_begin24
	.uleb128 Lfunc_end24-Ltmp238
	.byte	0
	.byte	0
Lcst_end15:
	.p2align	2

	.section	__TEXT,__text,regular,pure_instructions
	.globl	__ZN4objc7message8platform15send_unverified17h3a8275ebdcd24935E
	.p2align	4, 0x90
__ZN4objc7message8platform15send_unverified17h3a8275ebdcd24935E:
Lfunc_begin25:
	.loc	10 21 0
	.cfi_startproc
	.cfi_personality 155, _rust_eh_personality
	.cfi_lsda 16, Lexception16
	pushq	%rbp
	.cfi_def_cfa_offset 16
	.cfi_offset %rbp, -16
	movq	%rsp, %rbp
	.cfi_def_cfa_register %rbp
	subq	$144, %rsp
	movq	%rcx, -136(%rbp)
Ltmp260:
	movq	%rsi, -128(%rbp)
	movq	%rdi, -120(%rbp)
	movq	%rdi, -112(%rbp)
	movq	%rdx, -88(%rbp)
	movq	-88(%rbp), %rax
	movq	%rax, -96(%rbp)
	movq	%rsi, -40(%rbp)
Ltmp261:
	.loc	10 24 9 prologue_end
	movb	$0, -41(%rbp)
	movb	$1, -41(%rbp)
	.loc	10 24 20 is_stmt 0
	movq	%rsi, -32(%rbp)
Ltmp255:
Ltmp262:
	.loc	10 25 23 is_stmt 1
	callq	__ZN4objc7message8platform4arch11msg_send_fn17h9b8132bcc5b7b9ffE
Ltmp263:
Ltmp256:
	.loc	10 0 23 is_stmt 0
	movq	%rax, -104(%rbp)
Ltmp264:
	.loc	10 25 23
	jmp	LBB25_3
Ltmp265:
LBB25_1:
	.loc	10 29 1 is_stmt 1
	testb	$1, -41(%rbp)
	jne	LBB25_6
	jmp	LBB25_5
Ltmp266:
LBB25_2:
Ltmp259:
	.loc	10 0 1 is_stmt 0
	movq	%rax, %rcx
	movl	%edx, %eax
	movq	%rcx, -24(%rbp)
	movl	%eax, -16(%rbp)
	jmp	LBB25_1
Ltmp267:
LBB25_3:
	movq	-128(%rbp), %rsi
	movq	-104(%rbp), %rdi
	movq	-136(%rbp), %rcx
Ltmp268:
	.loc	10 25 23 is_stmt 1
	movq	%rdi, -8(%rbp)
Ltmp269:
	.loc	10 27 42
	movq	-96(%rbp), %rax
	movq	%rax, -80(%rbp)
	.loc	10 27 47 is_stmt 0
	movb	$0, -41(%rbp)
	movq	16(%rcx), %rax
	movq	%rax, -56(%rbp)
	movq	(%rcx), %rax
	movq	8(%rcx), %rcx
	movq	%rcx, -64(%rbp)
	movq	%rax, -72(%rbp)
	.loc	10 27 9
	movq	-80(%rbp), %rdx
Ltmp257:
	leaq	-72(%rbp), %rcx
	callq	__ZN69_$LT$$LP$A$C$B$C$C$RP$$u20$as$u20$objc..message..MessageArguments$GT$6invoke17h93ac68123716c09dE
Ltmp258:
	movq	%rax, -144(%rbp)
	jmp	LBB25_4
Ltmp270:
LBB25_4:
	.loc	10 0 9
	movq	-112(%rbp), %rax
	movq	-120(%rbp), %rcx
	movq	-144(%rbp), %rdx
	.loc	10 26 5 is_stmt 1
	movq	%rdx, (%rcx)
	movq	$0, 8(%rcx)
Ltmp271:
	.loc	10 29 2
	addq	$144, %rsp
	popq	%rbp
	retq
Ltmp272:
LBB25_5:
	.loc	10 21 1
	movq	-24(%rbp), %rdi
	callq	__Unwind_Resume
Ltmp273:
LBB25_6:
	.loc	10 29 1
	jmp	LBB25_5
Ltmp274:
Lfunc_end25:
	.cfi_endproc
	.section	__TEXT,__gcc_except_tab
	.p2align	2
GCC_except_table25:
Lexception16:
	.byte	255
	.byte	255
	.byte	1
	.uleb128 Lcst_end16-Lcst_begin16
Lcst_begin16:
	.uleb128 Ltmp255-Lfunc_begin25
	.uleb128 Ltmp258-Ltmp255
	.uleb128 Ltmp259-Lfunc_begin25
	.byte	0
	.uleb128 Ltmp258-Lfunc_begin25
	.uleb128 Lfunc_end25-Ltmp258
	.byte	0
	.byte	0
Lcst_end16:
	.p2align	2

	.section	__TEXT,__text,regular,pure_instructions
	.globl	__ZN4objc7message8platform15send_unverified17h3d0f0faa6c128758E
	.p2align	4, 0x90
__ZN4objc7message8platform15send_unverified17h3d0f0faa6c128758E:
Lfunc_begin26:
	.loc	10 21 0
	.cfi_startproc
	.cfi_personality 155, _rust_eh_personality
	.cfi_lsda 16, Lexception17
	pushq	%rbp
	.cfi_def_cfa_offset 16
	.cfi_offset %rbp, -16
	movq	%rsp, %rbp
	.cfi_def_cfa_register %rbp
	subq	$144, %rsp
	movq	%rcx, -136(%rbp)
Ltmp280:
	movq	%rsi, -128(%rbp)
	movq	%rdi, -120(%rbp)
	movq	%rdi, -112(%rbp)
	movq	%rdx, -88(%rbp)
	movq	-88(%rbp), %rax
	movq	%rax, -96(%rbp)
	movq	%rsi, -40(%rbp)
Ltmp281:
	.loc	10 24 9 prologue_end
	movb	$0, -41(%rbp)
	movb	$1, -41(%rbp)
	.loc	10 24 20 is_stmt 0
	movq	%rsi, -32(%rbp)
Ltmp275:
Ltmp282:
	.loc	10 25 23 is_stmt 1
	callq	__ZN4objc7message8platform4arch11msg_send_fn17hcf748dde2ad075dcE
Ltmp283:
Ltmp276:
	.loc	10 0 23 is_stmt 0
	movq	%rax, -104(%rbp)
Ltmp284:
	.loc	10 25 23
	jmp	LBB26_3
Ltmp285:
LBB26_1:
	.loc	10 29 1 is_stmt 1
	testb	$1, -41(%rbp)
	jne	LBB26_6
	jmp	LBB26_5
Ltmp286:
LBB26_2:
Ltmp279:
	.loc	10 0 1 is_stmt 0
	movq	%rax, %rcx
	movl	%edx, %eax
	movq	%rcx, -24(%rbp)
	movl	%eax, -16(%rbp)
	jmp	LBB26_1
Ltmp287:
LBB26_3:
	movq	-128(%rbp), %rsi
	movq	-104(%rbp), %rdi
	movq	-136(%rbp), %rcx
Ltmp288:
	.loc	10 25 23 is_stmt 1
	movq	%rdi, -8(%rbp)
Ltmp289:
	.loc	10 27 42
	movq	-96(%rbp), %rax
	movq	%rax, -80(%rbp)
	.loc	10 27 47 is_stmt 0
	movb	$0, -41(%rbp)
	movq	16(%rcx), %rax
	movq	%rax, -56(%rbp)
	movq	(%rcx), %rax
	movq	8(%rcx), %rcx
	movq	%rcx, -64(%rbp)
	movq	%rax, -72(%rbp)
	.loc	10 27 9
	movq	-80(%rbp), %rdx
Ltmp277:
	leaq	-72(%rbp), %rcx
	callq	__ZN69_$LT$$LP$A$C$B$C$C$RP$$u20$as$u20$objc..message..MessageArguments$GT$6invoke17h68bbc3f70baada34E
Ltmp278:
	movq	%rax, -144(%rbp)
	jmp	LBB26_4
Ltmp290:
LBB26_4:
	.loc	10 0 9
	movq	-112(%rbp), %rax
	movq	-120(%rbp), %rcx
	movq	-144(%rbp), %rdx
	.loc	10 26 5 is_stmt 1
	movq	%rdx, (%rcx)
	movq	$0, 8(%rcx)
Ltmp291:
	.loc	10 29 2
	addq	$144, %rsp
	popq	%rbp
	retq
Ltmp292:
LBB26_5:
	.loc	10 21 1
	movq	-24(%rbp), %rdi
	callq	__Unwind_Resume
Ltmp293:
LBB26_6:
	.loc	10 29 1
	jmp	LBB26_5
Ltmp294:
Lfunc_end26:
	.cfi_endproc
	.section	__TEXT,__gcc_except_tab
	.p2align	2
GCC_except_table26:
Lexception17:
	.byte	255
	.byte	255
	.byte	1
	.uleb128 Lcst_end17-Lcst_begin17
Lcst_begin17:
	.uleb128 Ltmp275-Lfunc_begin26
	.uleb128 Ltmp278-Ltmp275
	.uleb128 Ltmp279-Lfunc_begin26
	.byte	0
	.uleb128 Ltmp278-Lfunc_begin26
	.uleb128 Lfunc_end26-Ltmp278
	.byte	0
	.byte	0
Lcst_end17:
	.p2align	2

	.section	__TEXT,__text,regular,pure_instructions
	.globl	__ZN4objc7message8platform15send_unverified17h3edbb15c547d168bE
	.p2align	4, 0x90
__ZN4objc7message8platform15send_unverified17h3edbb15c547d168bE:
Lfunc_begin27:
	.loc	10 21 0
	.cfi_startproc
	.cfi_personality 155, _rust_eh_personality
	.cfi_lsda 16, Lexception18
	pushq	%rbp
	.cfi_def_cfa_offset 16
	.cfi_offset %rbp, -16
	movq	%rsp, %rbp
	.cfi_def_cfa_register %rbp
	subq	$128, %rsp
	movq	%rcx, -120(%rbp)
	movq	%rsi, -112(%rbp)
	movq	%rdi, -104(%rbp)
	movq	%rdi, -96(%rbp)
	movq	%rdx, -72(%rbp)
	movq	-72(%rbp), %rax
	movq	%rax, -80(%rbp)
	movq	%rsi, -48(%rbp)
	movq	%rcx, -40(%rbp)
Ltmp300:
	.loc	10 24 9 prologue_end
	movb	$0, -49(%rbp)
	movb	$1, -49(%rbp)
	.loc	10 24 20 is_stmt 0
	movq	%rsi, -32(%rbp)
Ltmp295:
Ltmp301:
	.loc	10 25 23 is_stmt 1
	callq	__ZN4objc7message8platform4arch11msg_send_fn17h9b8132bcc5b7b9ffE
Ltmp296:
	movq	%rax, -88(%rbp)
	jmp	LBB27_3
Ltmp302:
LBB27_1:
	.loc	10 29 1
	testb	$1, -49(%rbp)
	jne	LBB27_6
	jmp	LBB27_5
LBB27_2:
Ltmp299:
	.loc	10 0 1 is_stmt 0
	movq	%rax, %rcx
	movl	%edx, %eax
	movq	%rcx, -24(%rbp)
	movl	%eax, -16(%rbp)
	jmp	LBB27_1
LBB27_3:
	movq	-120(%rbp), %rcx
	movq	-112(%rbp), %rsi
	movq	-88(%rbp), %rdi
Ltmp303:
	.loc	10 25 23 is_stmt 1
	movq	%rdi, -8(%rbp)
Ltmp304:
	.loc	10 27 42
	movq	-80(%rbp), %rax
	movq	%rax, -64(%rbp)
	.loc	10 27 47 is_stmt 0
	movb	$0, -49(%rbp)
	.loc	10 27 9
	movq	-64(%rbp), %rdx
Ltmp297:
	callq	__ZN64_$LT$$LP$A$C$$RP$$u20$as$u20$objc..message..MessageArguments$GT$6invoke17h4225b87657f3d34dE
Ltmp298:
	movq	%rax, -128(%rbp)
	jmp	LBB27_4
LBB27_4:
	.loc	10 0 9
	movq	-96(%rbp), %rax
	movq	-104(%rbp), %rcx
	movq	-128(%rbp), %rdx
	.loc	10 26 5 is_stmt 1
	movq	%rdx, (%rcx)
	movq	$0, 8(%rcx)
Ltmp305:
	.loc	10 29 2
	addq	$128, %rsp
	popq	%rbp
	retq
LBB27_5:
	.loc	10 21 1
	movq	-24(%rbp), %rdi
	callq	__Unwind_Resume
LBB27_6:
	.loc	10 29 1
	jmp	LBB27_5
Ltmp306:
Lfunc_end27:
	.cfi_endproc
	.section	__TEXT,__gcc_except_tab
	.p2align	2
GCC_except_table27:
Lexception18:
	.byte	255
	.byte	255
	.byte	1
	.uleb128 Lcst_end18-Lcst_begin18
Lcst_begin18:
	.uleb128 Ltmp295-Lfunc_begin27
	.uleb128 Ltmp298-Ltmp295
	.uleb128 Ltmp299-Lfunc_begin27
	.byte	0
	.uleb128 Ltmp298-Lfunc_begin27
	.uleb128 Lfunc_end27-Ltmp298
	.byte	0
	.byte	0
Lcst_end18:
	.p2align	2

	.section	__TEXT,__text,regular,pure_instructions
	.globl	__ZN4objc7message8platform15send_unverified17h4156669819fbc033E
	.p2align	4, 0x90
__ZN4objc7message8platform15send_unverified17h4156669819fbc033E:
Lfunc_begin28:
	.loc	10 21 0
	.cfi_startproc
	.cfi_personality 155, _rust_eh_personality
	.cfi_lsda 16, Lexception19
	pushq	%rbp
	.cfi_def_cfa_offset 16
	.cfi_offset %rbp, -16
	movq	%rsp, %rbp
	.cfi_def_cfa_register %rbp
	subq	$160, %rsp
	movq	%rcx, -152(%rbp)
Ltmp312:
	movq	%rsi, -144(%rbp)
	movq	%rdi, -136(%rbp)
	movq	%rdi, -128(%rbp)
	movq	%rdx, -104(%rbp)
	movq	-104(%rbp), %rax
	movq	%rax, -112(%rbp)
	movq	%rsi, -40(%rbp)
Ltmp313:
	.loc	10 24 9 prologue_end
	movb	$0, -41(%rbp)
	movb	$1, -41(%rbp)
	.loc	10 24 20 is_stmt 0
	movq	%rsi, -32(%rbp)
Ltmp307:
Ltmp314:
	.loc	10 25 23 is_stmt 1
	callq	__ZN4objc7message8platform4arch11msg_send_fn17h9b8132bcc5b7b9ffE
Ltmp315:
Ltmp308:
	.loc	10 0 23 is_stmt 0
	movq	%rax, -120(%rbp)
Ltmp316:
	.loc	10 25 23
	jmp	LBB28_3
Ltmp317:
LBB28_1:
	.loc	10 29 1 is_stmt 1
	testb	$1, -41(%rbp)
	jne	LBB28_6
	jmp	LBB28_5
Ltmp318:
LBB28_2:
Ltmp311:
	.loc	10 0 1 is_stmt 0
	movq	%rax, %rcx
	movl	%edx, %eax
	movq	%rcx, -24(%rbp)
	movl	%eax, -16(%rbp)
	jmp	LBB28_1
Ltmp319:
LBB28_3:
	movq	-144(%rbp), %rsi
	movq	-120(%rbp), %rdi
	movq	-152(%rbp), %rcx
Ltmp320:
	.loc	10 25 23 is_stmt 1
	movq	%rdi, -8(%rbp)
Ltmp321:
	.loc	10 27 42
	movq	-112(%rbp), %rax
	movq	%rax, -96(%rbp)
	.loc	10 27 47 is_stmt 0
	movb	$0, -41(%rbp)
	movq	32(%rcx), %rax
	movq	%rax, -56(%rbp)
	movq	24(%rcx), %rax
	movq	%rax, -64(%rbp)
	movq	16(%rcx), %rax
	movq	%rax, -72(%rbp)
	movq	(%rcx), %rax
	movq	8(%rcx), %rcx
	movq	%rcx, -80(%rbp)
	movq	%rax, -88(%rbp)
	.loc	10 27 9
	movq	-96(%rbp), %rdx
Ltmp309:
	leaq	-88(%rbp), %rcx
	callq	__ZN77_$LT$$LP$A$C$B$C$C$C$D$C$E$RP$$u20$as$u20$objc..message..MessageArguments$GT$6invoke17h17ec001a8967b4fbE
Ltmp310:
	movq	%rax, -160(%rbp)
	jmp	LBB28_4
Ltmp322:
LBB28_4:
	.loc	10 0 9
	movq	-128(%rbp), %rax
	movq	-136(%rbp), %rcx
	movq	-160(%rbp), %rdx
	.loc	10 26 5 is_stmt 1
	movq	%rdx, (%rcx)
	movq	$0, 8(%rcx)
Ltmp323:
	.loc	10 29 2
	addq	$160, %rsp
	popq	%rbp
	retq
Ltmp324:
LBB28_5:
	.loc	10 21 1
	movq	-24(%rbp), %rdi
	callq	__Unwind_Resume
Ltmp325:
LBB28_6:
	.loc	10 29 1
	jmp	LBB28_5
Ltmp326:
Lfunc_end28:
	.cfi_endproc
	.section	__TEXT,__gcc_except_tab
	.p2align	2
GCC_except_table28:
Lexception19:
	.byte	255
	.byte	255
	.byte	1
	.uleb128 Lcst_end19-Lcst_begin19
Lcst_begin19:
	.uleb128 Ltmp307-Lfunc_begin28
	.uleb128 Ltmp310-Ltmp307
	.uleb128 Ltmp311-Lfunc_begin28
	.byte	0
	.uleb128 Ltmp310-Lfunc_begin28
	.uleb128 Lfunc_end28-Ltmp310
	.byte	0
	.byte	0
Lcst_end19:
	.p2align	2

	.section	__TEXT,__text,regular,pure_instructions
	.globl	__ZN4objc7message8platform15send_unverified17h45d0a9ee0f4cc721E
	.p2align	4, 0x90
__ZN4objc7message8platform15send_unverified17h45d0a9ee0f4cc721E:
Lfunc_begin29:
	.loc	10 21 0
	.cfi_startproc
	.cfi_personality 155, _rust_eh_personality
	.cfi_lsda 16, Lexception20
	pushq	%rbp
	.cfi_def_cfa_offset 16
	.cfi_offset %rbp, -16
	movq	%rsp, %rbp
	.cfi_def_cfa_register %rbp
	subq	$128, %rsp
	movq	%rsi, -112(%rbp)
	movq	%rdi, -104(%rbp)
	movq	%rdi, -96(%rbp)
	movq	%rdx, -72(%rbp)
	movq	-72(%rbp), %rax
	movq	%rax, -80(%rbp)
	movq	%rsi, -48(%rbp)
Ltmp332:
	.loc	10 24 9 prologue_end
	movb	$0, -49(%rbp)
	movb	$1, -49(%rbp)
	.loc	10 24 20 is_stmt 0
	movq	%rsi, -32(%rbp)
Ltmp327:
Ltmp333:
	.loc	10 25 23 is_stmt 1
	callq	__ZN4objc7message8platform4arch11msg_send_fn17h6d96b833562465afE
Ltmp328:
	movq	%rax, -88(%rbp)
	jmp	LBB29_3
Ltmp334:
LBB29_1:
	.loc	10 29 1
	testb	$1, -49(%rbp)
	jne	LBB29_6
	jmp	LBB29_5
LBB29_2:
Ltmp331:
	.loc	10 0 1 is_stmt 0
	movq	%rax, %rcx
	movl	%edx, %eax
	movq	%rcx, -24(%rbp)
	movl	%eax, -16(%rbp)
	jmp	LBB29_1
LBB29_3:
	movq	-112(%rbp), %rsi
	movq	-88(%rbp), %rdi
Ltmp335:
	.loc	10 25 23 is_stmt 1
	movq	%rdi, -8(%rbp)
Ltmp336:
	.loc	10 27 42
	movq	-80(%rbp), %rax
	movq	%rax, -64(%rbp)
	.loc	10 27 47 is_stmt 0
	movb	$0, -49(%rbp)
	.loc	10 27 9
	movq	-64(%rbp), %rdx
Ltmp329:
	callq	__ZN60_$LT$$LP$$RP$$u20$as$u20$objc..message..MessageArguments$GT$6invoke17h11d33337ea349541E
Ltmp330:
	movq	%rax, -120(%rbp)
	jmp	LBB29_4
LBB29_4:
	.loc	10 0 9
	movq	-96(%rbp), %rax
	movq	-104(%rbp), %rcx
	movq	-120(%rbp), %rdx
	.loc	10 26 5 is_stmt 1
	movq	%rdx, (%rcx)
	movq	$0, 8(%rcx)
Ltmp337:
	.loc	10 29 2
	addq	$128, %rsp
	popq	%rbp
	retq
LBB29_5:
	.loc	10 21 1
	movq	-24(%rbp), %rdi
	callq	__Unwind_Resume
LBB29_6:
	.loc	10 29 1
	jmp	LBB29_5
Ltmp338:
Lfunc_end29:
	.cfi_endproc
	.section	__TEXT,__gcc_except_tab
	.p2align	2
GCC_except_table29:
Lexception20:
	.byte	255
	.byte	255
	.byte	1
	.uleb128 Lcst_end20-Lcst_begin20
Lcst_begin20:
	.uleb128 Ltmp327-Lfunc_begin29
	.uleb128 Ltmp330-Ltmp327
	.uleb128 Ltmp331-Lfunc_begin29
	.byte	0
	.uleb128 Ltmp330-Lfunc_begin29
	.uleb128 Lfunc_end29-Ltmp330
	.byte	0
	.byte	0
Lcst_end20:
	.p2align	2

	.section	__TEXT,__text,regular,pure_instructions
	.globl	__ZN4objc7message8platform15send_unverified17h48eed985a8362f77E
	.p2align	4, 0x90
__ZN4objc7message8platform15send_unverified17h48eed985a8362f77E:
Lfunc_begin30:
	.loc	10 21 0
	.cfi_startproc
	.cfi_personality 155, _rust_eh_personality
	.cfi_lsda 16, Lexception21
	pushq	%rbp
	.cfi_def_cfa_offset 16
	.cfi_offset %rbp, -16
	movq	%rsp, %rbp
	.cfi_def_cfa_register %rbp
	subq	$128, %rsp
	movq	%rcx, -120(%rbp)
	movq	%rsi, -112(%rbp)
	movq	%rdi, -104(%rbp)
	movq	%rdi, -96(%rbp)
	movq	%rdx, -72(%rbp)
	movq	-72(%rbp), %rax
	movq	%rax, -80(%rbp)
	movq	%rsi, -48(%rbp)
	movq	%rcx, -40(%rbp)
Ltmp344:
	.loc	10 24 9 prologue_end
	movb	$0, -49(%rbp)
	movb	$1, -49(%rbp)
	.loc	10 24 20 is_stmt 0
	movq	%rsi, -32(%rbp)
Ltmp339:
Ltmp345:
	.loc	10 25 23 is_stmt 1
	callq	__ZN4objc7message8platform4arch11msg_send_fn17h9b8132bcc5b7b9ffE
Ltmp340:
	movq	%rax, -88(%rbp)
	jmp	LBB30_3
Ltmp346:
LBB30_1:
	.loc	10 29 1
	testb	$1, -49(%rbp)
	jne	LBB30_6
	jmp	LBB30_5
LBB30_2:
Ltmp343:
	.loc	10 0 1 is_stmt 0
	movq	%rax, %rcx
	movl	%edx, %eax
	movq	%rcx, -24(%rbp)
	movl	%eax, -16(%rbp)
	jmp	LBB30_1
LBB30_3:
	movq	-120(%rbp), %rcx
	movq	-112(%rbp), %rsi
	movq	-88(%rbp), %rdi
Ltmp347:
	.loc	10 25 23 is_stmt 1
	movq	%rdi, -8(%rbp)
Ltmp348:
	.loc	10 27 42
	movq	-80(%rbp), %rax
	movq	%rax, -64(%rbp)
	.loc	10 27 47 is_stmt 0
	movb	$0, -49(%rbp)
	.loc	10 27 9
	movq	-64(%rbp), %rdx
Ltmp341:
	callq	__ZN64_$LT$$LP$A$C$$RP$$u20$as$u20$objc..message..MessageArguments$GT$6invoke17hafe6d9860340a1b5E
Ltmp342:
	movq	%rax, -128(%rbp)
	jmp	LBB30_4
LBB30_4:
	.loc	10 0 9
	movq	-96(%rbp), %rax
	movq	-104(%rbp), %rcx
	movq	-128(%rbp), %rdx
	.loc	10 26 5 is_stmt 1
	movq	%rdx, (%rcx)
	movq	$0, 8(%rcx)
Ltmp349:
	.loc	10 29 2
	addq	$128, %rsp
	popq	%rbp
	retq
LBB30_5:
	.loc	10 21 1
	movq	-24(%rbp), %rdi
	callq	__Unwind_Resume
LBB30_6:
	.loc	10 29 1
	jmp	LBB30_5
Ltmp350:
Lfunc_end30:
	.cfi_endproc
	.section	__TEXT,__gcc_except_tab
	.p2align	2
GCC_except_table30:
Lexception21:
	.byte	255
	.byte	255
	.byte	1
	.uleb128 Lcst_end21-Lcst_begin21
Lcst_begin21:
	.uleb128 Ltmp339-Lfunc_begin30
	.uleb128 Ltmp342-Ltmp339
	.uleb128 Ltmp343-Lfunc_begin30
	.byte	0
	.uleb128 Ltmp342-Lfunc_begin30
	.uleb128 Lfunc_end30-Ltmp342
	.byte	0
	.byte	0
Lcst_end21:
	.p2align	2

	.section	__TEXT,__text,regular,pure_instructions
	.globl	__ZN4objc7message8platform15send_unverified17h560f4f85b67f18b6E
	.p2align	4, 0x90
__ZN4objc7message8platform15send_unverified17h560f4f85b67f18b6E:
Lfunc_begin31:
	.loc	10 21 0
	.cfi_startproc
	.cfi_personality 155, _rust_eh_personality
	.cfi_lsda 16, Lexception22
	pushq	%rbp
	.cfi_def_cfa_offset 16
	.cfi_offset %rbp, -16
	movq	%rsp, %rbp
	.cfi_def_cfa_register %rbp
	subq	$144, %rsp
	movq	%rcx, -136(%rbp)
	movq	%rsi, -128(%rbp)
	movq	%rdi, -120(%rbp)
	movb	%r8b, %al
	movb	%al, -105(%rbp)
	movq	%rdi, -104(%rbp)
	movq	%rdx, -80(%rbp)
	movq	-80(%rbp), %rdx
	movq	%rdx, -88(%rbp)
	movq	%rsi, -56(%rbp)
	movq	%rcx, -48(%rbp)
	movb	%al, -40(%rbp)
Ltmp356:
	.loc	10 24 9 prologue_end
	movb	$0, -57(%rbp)
	movb	$1, -57(%rbp)
	.loc	10 24 20 is_stmt 0
	movq	%rsi, -32(%rbp)
Ltmp351:
Ltmp357:
	.loc	10 25 23 is_stmt 1
	callq	__ZN4objc7message8platform4arch11msg_send_fn17h9b8132bcc5b7b9ffE
Ltmp352:
	movq	%rax, -96(%rbp)
	jmp	LBB31_3
Ltmp358:
LBB31_1:
	.loc	10 29 1
	testb	$1, -57(%rbp)
	jne	LBB31_6
	jmp	LBB31_5
LBB31_2:
Ltmp355:
	.loc	10 0 1 is_stmt 0
	movq	%rax, %rcx
	movl	%edx, %eax
	movq	%rcx, -24(%rbp)
	movl	%eax, -16(%rbp)
	jmp	LBB31_1
LBB31_3:
	movq	-136(%rbp), %rcx
	movq	-128(%rbp), %rsi
	movq	-96(%rbp), %rdi
	movb	-105(%rbp), %al
Ltmp359:
	.loc	10 25 23 is_stmt 1
	movq	%rdi, -8(%rbp)
Ltmp360:
	.loc	10 27 42
	movq	-88(%rbp), %rdx
	movq	%rdx, -72(%rbp)
	.loc	10 27 47 is_stmt 0
	movb	$0, -57(%rbp)
	.loc	10 27 9
	movq	-72(%rbp), %rdx
Ltmp353:
	movzbl	%al, %r8d
	callq	__ZN65_$LT$$LP$A$C$B$RP$$u20$as$u20$objc..message..MessageArguments$GT$6invoke17h9e75655297f0ffdfE
Ltmp354:
	movq	%rax, -144(%rbp)
	jmp	LBB31_4
LBB31_4:
	.loc	10 0 9
	movq	-104(%rbp), %rax
	movq	-120(%rbp), %rcx
	movq	-144(%rbp), %rdx
	.loc	10 26 5 is_stmt 1
	movq	%rdx, (%rcx)
	movq	$0, 8(%rcx)
Ltmp361:
	.loc	10 29 2
	addq	$144, %rsp
	popq	%rbp
	retq
LBB31_5:
	.loc	10 21 1
	movq	-24(%rbp), %rdi
	callq	__Unwind_Resume
LBB31_6:
	.loc	10 29 1
	jmp	LBB31_5
Ltmp362:
Lfunc_end31:
	.cfi_endproc
	.section	__TEXT,__gcc_except_tab
	.p2align	2
GCC_except_table31:
Lexception22:
	.byte	255
	.byte	255
	.byte	1
	.uleb128 Lcst_end22-Lcst_begin22
Lcst_begin22:
	.uleb128 Ltmp351-Lfunc_begin31
	.uleb128 Ltmp354-Ltmp351
	.uleb128 Ltmp355-Lfunc_begin31
	.byte	0
	.uleb128 Ltmp354-Lfunc_begin31
	.uleb128 Lfunc_end31-Ltmp354
	.byte	0
	.byte	0
Lcst_end22:
	.p2align	2

	.section	__TEXT,__text,regular,pure_instructions
	.globl	__ZN4objc7message8platform15send_unverified17h5da2b952c5e2f624E
	.p2align	4, 0x90
__ZN4objc7message8platform15send_unverified17h5da2b952c5e2f624E:
Lfunc_begin32:
	.loc	10 21 0
	.cfi_startproc
	.cfi_personality 155, _rust_eh_personality
	.cfi_lsda 16, Lexception23
	pushq	%rbp
	.cfi_def_cfa_offset 16
	.cfi_offset %rbp, -16
	movq	%rsp, %rbp
	.cfi_def_cfa_register %rbp
	subq	$144, %rsp
	movq	%rcx, -136(%rbp)
Ltmp368:
	movq	%rsi, -128(%rbp)
	movq	%rdi, -120(%rbp)
	movq	%rdi, -112(%rbp)
	movq	%rdx, -88(%rbp)
	movq	-88(%rbp), %rax
	movq	%rax, -96(%rbp)
	movq	%rsi, -40(%rbp)
Ltmp369:
	.loc	10 24 9 prologue_end
	movb	$0, -41(%rbp)
	movb	$1, -41(%rbp)
	.loc	10 24 20 is_stmt 0
	movq	%rsi, -32(%rbp)
Ltmp363:
Ltmp370:
	.loc	10 25 23 is_stmt 1
	callq	__ZN4objc7message8platform4arch11msg_send_fn17h9b8132bcc5b7b9ffE
Ltmp371:
Ltmp364:
	.loc	10 0 23 is_stmt 0
	movq	%rax, -104(%rbp)
Ltmp372:
	.loc	10 25 23
	jmp	LBB32_3
Ltmp373:
LBB32_1:
	.loc	10 29 1 is_stmt 1
	testb	$1, -41(%rbp)
	jne	LBB32_6
	jmp	LBB32_5
Ltmp374:
LBB32_2:
Ltmp367:
	.loc	10 0 1 is_stmt 0
	movq	%rax, %rcx
	movl	%edx, %eax
	movq	%rcx, -24(%rbp)
	movl	%eax, -16(%rbp)
	jmp	LBB32_1
Ltmp375:
LBB32_3:
	movq	-128(%rbp), %rsi
	movq	-104(%rbp), %rdi
	movq	-136(%rbp), %rcx
Ltmp376:
	.loc	10 25 23 is_stmt 1
	movq	%rdi, -8(%rbp)
Ltmp377:
	.loc	10 27 42
	movq	-96(%rbp), %rax
	movq	%rax, -80(%rbp)
	.loc	10 27 47 is_stmt 0
	movb	$0, -41(%rbp)
	movq	16(%rcx), %rax
	movq	%rax, -56(%rbp)
	movq	(%rcx), %rax
	movq	8(%rcx), %rcx
	movq	%rcx, -64(%rbp)
	movq	%rax, -72(%rbp)
	.loc	10 27 9
	movq	-80(%rbp), %rdx
Ltmp365:
	leaq	-72(%rbp), %rcx
	callq	__ZN69_$LT$$LP$A$C$B$C$C$RP$$u20$as$u20$objc..message..MessageArguments$GT$6invoke17h60439b105122c615E
Ltmp366:
	movq	%rax, -144(%rbp)
	jmp	LBB32_4
Ltmp378:
LBB32_4:
	.loc	10 0 9
	movq	-112(%rbp), %rax
	movq	-120(%rbp), %rcx
	movq	-144(%rbp), %rdx
	.loc	10 26 5 is_stmt 1
	movq	%rdx, (%rcx)
	movq	$0, 8(%rcx)
Ltmp379:
	.loc	10 29 2
	addq	$144, %rsp
	popq	%rbp
	retq
Ltmp380:
LBB32_5:
	.loc	10 21 1
	movq	-24(%rbp), %rdi
	callq	__Unwind_Resume
Ltmp381:
LBB32_6:
	.loc	10 29 1
	jmp	LBB32_5
Ltmp382:
Lfunc_end32:
	.cfi_endproc
	.section	__TEXT,__gcc_except_tab
	.p2align	2
GCC_except_table32:
Lexception23:
	.byte	255
	.byte	255
	.byte	1
	.uleb128 Lcst_end23-Lcst_begin23
Lcst_begin23:
	.uleb128 Ltmp363-Lfunc_begin32
	.uleb128 Ltmp366-Ltmp363
	.uleb128 Ltmp367-Lfunc_begin32
	.byte	0
	.uleb128 Ltmp366-Lfunc_begin32
	.uleb128 Lfunc_end32-Ltmp366
	.byte	0
	.byte	0
Lcst_end23:
	.p2align	2

	.section	__TEXT,__text,regular,pure_instructions
	.globl	__ZN4objc7message8platform15send_unverified17h6031487df13153e8E
	.p2align	4, 0x90
__ZN4objc7message8platform15send_unverified17h6031487df13153e8E:
Lfunc_begin33:
	.loc	10 21 0
	.cfi_startproc
	.cfi_personality 155, _rust_eh_personality
	.cfi_lsda 16, Lexception24
	pushq	%rbp
	.cfi_def_cfa_offset 16
	.cfi_offset %rbp, -16
	movq	%rsp, %rbp
	.cfi_def_cfa_register %rbp
	subq	$128, %rsp
	movq	%rsi, -112(%rbp)
	movq	%rdi, -104(%rbp)
	movq	%rdi, -96(%rbp)
	movq	%rdx, -72(%rbp)
	movq	-72(%rbp), %rax
	movq	%rax, -80(%rbp)
	movq	%rsi, -48(%rbp)
Ltmp388:
	.loc	10 24 9 prologue_end
	movb	$0, -49(%rbp)
	movb	$1, -49(%rbp)
	.loc	10 24 20 is_stmt 0
	movq	%rsi, -32(%rbp)
Ltmp383:
Ltmp389:
	.loc	10 25 23 is_stmt 1
	callq	__ZN4objc7message8platform4arch11msg_send_fn17h96204f9b6b08690fE
Ltmp384:
	movq	%rax, -88(%rbp)
	jmp	LBB33_3
Ltmp390:
LBB33_1:
	.loc	10 29 1
	testb	$1, -49(%rbp)
	jne	LBB33_6
	jmp	LBB33_5
LBB33_2:
Ltmp387:
	.loc	10 0 1 is_stmt 0
	movq	%rax, %rcx
	movl	%edx, %eax
	movq	%rcx, -24(%rbp)
	movl	%eax, -16(%rbp)
	jmp	LBB33_1
LBB33_3:
	movq	-112(%rbp), %rsi
	movq	-88(%rbp), %rdi
Ltmp391:
	.loc	10 25 23 is_stmt 1
	movq	%rdi, -8(%rbp)
Ltmp392:
	.loc	10 27 42
	movq	-80(%rbp), %rax
	movq	%rax, -64(%rbp)
	.loc	10 27 47 is_stmt 0
	movb	$0, -49(%rbp)
	.loc	10 27 9
	movq	-64(%rbp), %rdx
Ltmp385:
	callq	__ZN60_$LT$$LP$$RP$$u20$as$u20$objc..message..MessageArguments$GT$6invoke17h9cd1b5a5e04a8e5cE
Ltmp386:
	movq	%rax, -120(%rbp)
	jmp	LBB33_4
LBB33_4:
	.loc	10 0 9
	movq	-96(%rbp), %rax
	movq	-104(%rbp), %rcx
	movq	-120(%rbp), %rdx
	.loc	10 26 5 is_stmt 1
	movq	%rdx, (%rcx)
	movq	$0, 8(%rcx)
Ltmp393:
	.loc	10 29 2
	addq	$128, %rsp
	popq	%rbp
	retq
LBB33_5:
	.loc	10 21 1
	movq	-24(%rbp), %rdi
	callq	__Unwind_Resume
LBB33_6:
	.loc	10 29 1
	jmp	LBB33_5
Ltmp394:
Lfunc_end33:
	.cfi_endproc
	.section	__TEXT,__gcc_except_tab
	.p2align	2
GCC_except_table33:
Lexception24:
	.byte	255
	.byte	255
	.byte	1
	.uleb128 Lcst_end24-Lcst_begin24
Lcst_begin24:
	.uleb128 Ltmp383-Lfunc_begin33
	.uleb128 Ltmp386-Ltmp383
	.uleb128 Ltmp387-Lfunc_begin33
	.byte	0
	.uleb128 Ltmp386-Lfunc_begin33
	.uleb128 Lfunc_end33-Ltmp386
	.byte	0
	.byte	0
Lcst_end24:
	.p2align	2

	.section	__TEXT,__text,regular,pure_instructions
	.globl	__ZN4objc7message8platform15send_unverified17h61d89a43b3677813E
	.p2align	4, 0x90
__ZN4objc7message8platform15send_unverified17h61d89a43b3677813E:
Lfunc_begin34:
	.loc	10 21 0
	.cfi_startproc
	.cfi_personality 155, _rust_eh_personality
	.cfi_lsda 16, Lexception25
	pushq	%rbp
	.cfi_def_cfa_offset 16
	.cfi_offset %rbp, -16
	movq	%rsp, %rbp
	.cfi_def_cfa_register %rbp
	subq	$160, %rsp
	movq	%rcx, -144(%rbp)
Ltmp400:
	movq	%rsi, -136(%rbp)
	movq	%rdi, -128(%rbp)
	movq	%rdi, -120(%rbp)
	movq	%rdx, -96(%rbp)
	movq	-96(%rbp), %rax
	movq	%rax, -104(%rbp)
	movq	%rsi, -40(%rbp)
Ltmp401:
	.loc	10 24 9 prologue_end
	movb	$0, -41(%rbp)
	movb	$1, -41(%rbp)
	.loc	10 24 20 is_stmt 0
	movq	%rsi, -32(%rbp)
Ltmp395:
Ltmp402:
	.loc	10 25 23 is_stmt 1
	callq	__ZN4objc7message8platform4arch11msg_send_fn17h9b8132bcc5b7b9ffE
Ltmp403:
Ltmp396:
	.loc	10 0 23 is_stmt 0
	movq	%rax, -112(%rbp)
Ltmp404:
	.loc	10 25 23
	jmp	LBB34_3
Ltmp405:
LBB34_1:
	.loc	10 29 1 is_stmt 1
	testb	$1, -41(%rbp)
	jne	LBB34_6
	jmp	LBB34_5
Ltmp406:
LBB34_2:
Ltmp399:
	.loc	10 0 1 is_stmt 0
	movq	%rax, %rcx
	movl	%edx, %eax
	movq	%rcx, -24(%rbp)
	movl	%eax, -16(%rbp)
	jmp	LBB34_1
Ltmp407:
LBB34_3:
	movq	-136(%rbp), %rsi
	movq	-112(%rbp), %rdi
	movq	-144(%rbp), %rcx
Ltmp408:
	.loc	10 25 23 is_stmt 1
	movq	%rdi, -8(%rbp)
Ltmp409:
	.loc	10 27 42
	movq	-104(%rbp), %rax
	movq	%rax, -88(%rbp)
	.loc	10 27 47 is_stmt 0
	movb	$0, -41(%rbp)
	movq	24(%rcx), %rax
	movq	%rax, -56(%rbp)
	movq	16(%rcx), %rax
	movq	%rax, -64(%rbp)
	movq	(%rcx), %rax
	movq	8(%rcx), %rcx
	movq	%rcx, -72(%rbp)
	movq	%rax, -80(%rbp)
	.loc	10 27 9
	movq	-88(%rbp), %rdx
Ltmp397:
	leaq	-80(%rbp), %rcx
	callq	__ZN73_$LT$$LP$A$C$B$C$C$C$D$RP$$u20$as$u20$objc..message..MessageArguments$GT$6invoke17h20f29c63abe69018E
Ltmp398:
	movq	%rax, -152(%rbp)
	jmp	LBB34_4
Ltmp410:
LBB34_4:
	.loc	10 0 9
	movq	-120(%rbp), %rax
	movq	-128(%rbp), %rcx
	movq	-152(%rbp), %rdx
	.loc	10 26 5 is_stmt 1
	movq	%rdx, (%rcx)
	movq	$0, 8(%rcx)
Ltmp411:
	.loc	10 29 2
	addq	$160, %rsp
	popq	%rbp
	retq
Ltmp412:
LBB34_5:
	.loc	10 21 1
	movq	-24(%rbp), %rdi
	callq	__Unwind_Resume
Ltmp413:
LBB34_6:
	.loc	10 29 1
	jmp	LBB34_5
Ltmp414:
Lfunc_end34:
	.cfi_endproc
	.section	__TEXT,__gcc_except_tab
	.p2align	2
GCC_except_table34:
Lexception25:
	.byte	255
	.byte	255
	.byte	1
	.uleb128 Lcst_end25-Lcst_begin25
Lcst_begin25:
	.uleb128 Ltmp395-Lfunc_begin34
	.uleb128 Ltmp398-Ltmp395
	.uleb128 Ltmp399-Lfunc_begin34
	.byte	0
	.uleb128 Ltmp398-Lfunc_begin34
	.uleb128 Lfunc_end34-Ltmp398
	.byte	0
	.byte	0
Lcst_end25:
	.p2align	2

	.section	__TEXT,__text,regular,pure_instructions
	.globl	__ZN4objc7message8platform15send_unverified17h62fa07ffbafb36dbE
	.p2align	4, 0x90
__ZN4objc7message8platform15send_unverified17h62fa07ffbafb36dbE:
Lfunc_begin35:
	.loc	10 21 0
	.cfi_startproc
	.cfi_personality 155, _rust_eh_personality
	.cfi_lsda 16, Lexception26
	pushq	%rbp
	.cfi_def_cfa_offset 16
	.cfi_offset %rbp, -16
	movq	%rsp, %rbp
	.cfi_def_cfa_register %rbp
	subq	$160, %rsp
	movq	%rcx, -144(%rbp)
Ltmp420:
	movq	%rsi, -136(%rbp)
	movq	%rdi, -128(%rbp)
	movq	%rdi, -120(%rbp)
	movq	%rdx, -96(%rbp)
	movq	-96(%rbp), %rax
	movq	%rax, -104(%rbp)
	movq	%rsi, -40(%rbp)
Ltmp421:
	.loc	10 24 9 prologue_end
	movb	$0, -41(%rbp)
	movb	$1, -41(%rbp)
	.loc	10 24 20 is_stmt 0
	movq	%rsi, -32(%rbp)
Ltmp415:
Ltmp422:
	.loc	10 25 23 is_stmt 1
	callq	__ZN4objc7message8platform4arch11msg_send_fn17h9b8132bcc5b7b9ffE
Ltmp423:
Ltmp416:
	.loc	10 0 23 is_stmt 0
	movq	%rax, -112(%rbp)
Ltmp424:
	.loc	10 25 23
	jmp	LBB35_3
Ltmp425:
LBB35_1:
	.loc	10 29 1 is_stmt 1
	testb	$1, -41(%rbp)
	jne	LBB35_6
	jmp	LBB35_5
Ltmp426:
LBB35_2:
Ltmp419:
	.loc	10 0 1 is_stmt 0
	movq	%rax, %rcx
	movl	%edx, %eax
	movq	%rcx, -24(%rbp)
	movl	%eax, -16(%rbp)
	jmp	LBB35_1
Ltmp427:
LBB35_3:
	movq	-136(%rbp), %rsi
	movq	-112(%rbp), %rdi
	movq	-144(%rbp), %rcx
Ltmp428:
	.loc	10 25 23 is_stmt 1
	movq	%rdi, -8(%rbp)
Ltmp429:
	.loc	10 27 42
	movq	-104(%rbp), %rax
	movq	%rax, -88(%rbp)
	.loc	10 27 47 is_stmt 0
	movb	$0, -41(%rbp)
	movq	24(%rcx), %rax
	movq	%rax, -56(%rbp)
	movq	16(%rcx), %rax
	movq	%rax, -64(%rbp)
	movq	(%rcx), %rax
	movq	8(%rcx), %rcx
	movq	%rcx, -72(%rbp)
	movq	%rax, -80(%rbp)
	.loc	10 27 9
	movq	-88(%rbp), %rdx
Ltmp417:
	leaq	-80(%rbp), %rcx
	callq	__ZN73_$LT$$LP$A$C$B$C$C$C$D$RP$$u20$as$u20$objc..message..MessageArguments$GT$6invoke17h99c35f60b9b00b04E
Ltmp418:
	movq	%rax, -152(%rbp)
	jmp	LBB35_4
Ltmp430:
LBB35_4:
	.loc	10 0 9
	movq	-120(%rbp), %rax
	movq	-128(%rbp), %rcx
	movq	-152(%rbp), %rdx
	.loc	10 26 5 is_stmt 1
	movq	%rdx, (%rcx)
	movq	$0, 8(%rcx)
Ltmp431:
	.loc	10 29 2
	addq	$160, %rsp
	popq	%rbp
	retq
Ltmp432:
LBB35_5:
	.loc	10 21 1
	movq	-24(%rbp), %rdi
	callq	__Unwind_Resume
Ltmp433:
LBB35_6:
	.loc	10 29 1
	jmp	LBB35_5
Ltmp434:
Lfunc_end35:
	.cfi_endproc
	.section	__TEXT,__gcc_except_tab
	.p2align	2
GCC_except_table35:
Lexception26:
	.byte	255
	.byte	255
	.byte	1
	.uleb128 Lcst_end26-Lcst_begin26
Lcst_begin26:
	.uleb128 Ltmp415-Lfunc_begin35
	.uleb128 Ltmp418-Ltmp415
	.uleb128 Ltmp419-Lfunc_begin35
	.byte	0
	.uleb128 Ltmp418-Lfunc_begin35
	.uleb128 Lfunc_end35-Ltmp418
	.byte	0
	.byte	0
Lcst_end26:
	.p2align	2

	.section	__TEXT,__text,regular,pure_instructions
	.globl	__ZN4objc7message8platform15send_unverified17h676254b293312d1bE
	.p2align	4, 0x90
__ZN4objc7message8platform15send_unverified17h676254b293312d1bE:
Lfunc_begin36:
	.loc	10 21 0
	.cfi_startproc
	.cfi_personality 155, _rust_eh_personality
	.cfi_lsda 16, Lexception27
	pushq	%rbp
	.cfi_def_cfa_offset 16
	.cfi_offset %rbp, -16
	movq	%rsp, %rbp
	.cfi_def_cfa_register %rbp
	subq	$128, %rsp
	movq	%rsi, -112(%rbp)
	movq	%rdi, -104(%rbp)
	movq	%rdi, -96(%rbp)
	movq	%rdx, -72(%rbp)
	movq	-72(%rbp), %rax
	movq	%rax, -80(%rbp)
	movq	%rsi, -48(%rbp)
Ltmp440:
	.loc	10 24 9 prologue_end
	movb	$0, -49(%rbp)
	movb	$1, -49(%rbp)
	.loc	10 24 20 is_stmt 0
	movq	%rsi, -32(%rbp)
Ltmp435:
Ltmp441:
	.loc	10 25 23 is_stmt 1
	callq	__ZN4objc7message8platform4arch11msg_send_fn17h602176705c0aee0cE
Ltmp436:
	movq	%rax, -88(%rbp)
	jmp	LBB36_3
Ltmp442:
LBB36_1:
	.loc	10 29 1
	testb	$1, -49(%rbp)
	jne	LBB36_6
	jmp	LBB36_5
LBB36_2:
Ltmp439:
	.loc	10 0 1 is_stmt 0
	movq	%rax, %rcx
	movl	%edx, %eax
	movq	%rcx, -24(%rbp)
	movl	%eax, -16(%rbp)
	jmp	LBB36_1
LBB36_3:
	movq	-112(%rbp), %rsi
	movq	-88(%rbp), %rdi
Ltmp443:
	.loc	10 25 23 is_stmt 1
	movq	%rdi, -8(%rbp)
Ltmp444:
	.loc	10 27 42
	movq	-80(%rbp), %rax
	movq	%rax, -64(%rbp)
	.loc	10 27 47 is_stmt 0
	movb	$0, -49(%rbp)
	.loc	10 27 9
	movq	-64(%rbp), %rdx
Ltmp437:
	callq	__ZN60_$LT$$LP$$RP$$u20$as$u20$objc..message..MessageArguments$GT$6invoke17ha8721d27a2106454E
Ltmp438:
	movq	%rax, -120(%rbp)
	jmp	LBB36_4
LBB36_4:
	.loc	10 0 9
	movq	-96(%rbp), %rax
	movq	-104(%rbp), %rcx
	movq	-120(%rbp), %rdx
	.loc	10 26 5 is_stmt 1
	movq	%rdx, (%rcx)
	movq	$0, 8(%rcx)
Ltmp445:
	.loc	10 29 2
	addq	$128, %rsp
	popq	%rbp
	retq
LBB36_5:
	.loc	10 21 1
	movq	-24(%rbp), %rdi
	callq	__Unwind_Resume
LBB36_6:
	.loc	10 29 1
	jmp	LBB36_5
Ltmp446:
Lfunc_end36:
	.cfi_endproc
	.section	__TEXT,__gcc_except_tab
	.p2align	2
GCC_except_table36:
Lexception27:
	.byte	255
	.byte	255
	.byte	1
	.uleb128 Lcst_end27-Lcst_begin27
Lcst_begin27:
	.uleb128 Ltmp435-Lfunc_begin36
	.uleb128 Ltmp438-Ltmp435
	.uleb128 Ltmp439-Lfunc_begin36
	.byte	0
	.uleb128 Ltmp438-Lfunc_begin36
	.uleb128 Lfunc_end36-Ltmp438
	.byte	0
	.byte	0
Lcst_end27:
	.p2align	2

	.section	__TEXT,__text,regular,pure_instructions
	.globl	__ZN4objc7message8platform15send_unverified17h67d8774f8c7a8671E
	.p2align	4, 0x90
__ZN4objc7message8platform15send_unverified17h67d8774f8c7a8671E:
Lfunc_begin37:
	.loc	10 21 0
	.cfi_startproc
	.cfi_personality 155, _rust_eh_personality
	.cfi_lsda 16, Lexception28
	pushq	%rbp
	.cfi_def_cfa_offset 16
	.cfi_offset %rbp, -16
	movq	%rsp, %rbp
	.cfi_def_cfa_register %rbp
	subq	$144, %rsp
	movq	%rcx, -136(%rbp)
Ltmp452:
	movq	%rsi, -128(%rbp)
	movq	%rdi, -120(%rbp)
	movq	%rdi, -112(%rbp)
	movq	%rdx, -88(%rbp)
	movq	-88(%rbp), %rax
	movq	%rax, -96(%rbp)
	movq	%rsi, -40(%rbp)
Ltmp453:
	.loc	10 24 9 prologue_end
	movb	$0, -41(%rbp)
	movb	$1, -41(%rbp)
	.loc	10 24 20 is_stmt 0
	movq	%rsi, -32(%rbp)
Ltmp447:
Ltmp454:
	.loc	10 25 23 is_stmt 1
	callq	__ZN4objc7message8platform4arch11msg_send_fn17h9b8132bcc5b7b9ffE
Ltmp455:
Ltmp448:
	.loc	10 0 23 is_stmt 0
	movq	%rax, -104(%rbp)
Ltmp456:
	.loc	10 25 23
	jmp	LBB37_3
Ltmp457:
LBB37_1:
	.loc	10 29 1 is_stmt 1
	testb	$1, -41(%rbp)
	jne	LBB37_6
	jmp	LBB37_5
Ltmp458:
LBB37_2:
Ltmp451:
	.loc	10 0 1 is_stmt 0
	movq	%rax, %rcx
	movl	%edx, %eax
	movq	%rcx, -24(%rbp)
	movl	%eax, -16(%rbp)
	jmp	LBB37_1
Ltmp459:
LBB37_3:
	movq	-128(%rbp), %rsi
	movq	-104(%rbp), %rdi
	movq	-136(%rbp), %rcx
Ltmp460:
	.loc	10 25 23 is_stmt 1
	movq	%rdi, -8(%rbp)
Ltmp461:
	.loc	10 27 42
	movq	-96(%rbp), %rax
	movq	%rax, -80(%rbp)
	.loc	10 27 47 is_stmt 0
	movb	$0, -41(%rbp)
	movq	16(%rcx), %rax
	movq	%rax, -56(%rbp)
	movq	(%rcx), %rax
	movq	8(%rcx), %rcx
	movq	%rcx, -64(%rbp)
	movq	%rax, -72(%rbp)
	.loc	10 27 9
	movq	-80(%rbp), %rdx
Ltmp449:
	leaq	-72(%rbp), %rcx
	callq	__ZN69_$LT$$LP$A$C$B$C$C$RP$$u20$as$u20$objc..message..MessageArguments$GT$6invoke17heea74f00f7ba3c16E
Ltmp450:
	movq	%rax, -144(%rbp)
	jmp	LBB37_4
Ltmp462:
LBB37_4:
	.loc	10 0 9
	movq	-112(%rbp), %rax
	movq	-120(%rbp), %rcx
	movq	-144(%rbp), %rdx
	.loc	10 26 5 is_stmt 1
	movq	%rdx, (%rcx)
	movq	$0, 8(%rcx)
Ltmp463:
	.loc	10 29 2
	addq	$144, %rsp
	popq	%rbp
	retq
Ltmp464:
LBB37_5:
	.loc	10 21 1
	movq	-24(%rbp), %rdi
	callq	__Unwind_Resume
Ltmp465:
LBB37_6:
	.loc	10 29 1
	jmp	LBB37_5
Ltmp466:
Lfunc_end37:
	.cfi_endproc
	.section	__TEXT,__gcc_except_tab
	.p2align	2
GCC_except_table37:
Lexception28:
	.byte	255
	.byte	255
	.byte	1
	.uleb128 Lcst_end28-Lcst_begin28
Lcst_begin28:
	.uleb128 Ltmp447-Lfunc_begin37
	.uleb128 Ltmp450-Ltmp447
	.uleb128 Ltmp451-Lfunc_begin37
	.byte	0
	.uleb128 Ltmp450-Lfunc_begin37
	.uleb128 Lfunc_end37-Ltmp450
	.byte	0
	.byte	0
Lcst_end28:
	.p2align	2

	.section	__TEXT,__text,regular,pure_instructions
	.globl	__ZN4objc7message8platform15send_unverified17h6a1472ed756c2812E
	.p2align	4, 0x90
__ZN4objc7message8platform15send_unverified17h6a1472ed756c2812E:
Lfunc_begin38:
	.loc	10 21 0
	.cfi_startproc
	.cfi_personality 155, _rust_eh_personality
	.cfi_lsda 16, Lexception29
	pushq	%rbp
	.cfi_def_cfa_offset 16
	.cfi_offset %rbp, -16
	movq	%rsp, %rbp
	.cfi_def_cfa_register %rbp
	subq	$144, %rsp
	movq	%rsi, -128(%rbp)
	movq	%rdi, -120(%rbp)
	movq	%rdi, -112(%rbp)
	movq	%rdx, -88(%rbp)
	movq	-88(%rbp), %rax
	movq	%rax, -96(%rbp)
	movq	%rcx, -72(%rbp)
	movq	-72(%rbp), %rax
	movq	%rax, -80(%rbp)
	movq	%rsi, -40(%rbp)
Ltmp472:
	.loc	10 24 9 prologue_end
	movb	$0, -41(%rbp)
	movb	$1, -41(%rbp)
	.loc	10 24 20 is_stmt 0
	movq	%rsi, -32(%rbp)
Ltmp467:
Ltmp473:
	.loc	10 25 23 is_stmt 1
	callq	__ZN4objc7message8platform4arch11msg_send_fn17h9b8132bcc5b7b9ffE
Ltmp468:
	movq	%rax, -104(%rbp)
	jmp	LBB38_3
Ltmp474:
LBB38_1:
	.loc	10 29 1
	testb	$1, -41(%rbp)
	jne	LBB38_6
	jmp	LBB38_5
LBB38_2:
Ltmp471:
	.loc	10 0 1 is_stmt 0
	movq	%rax, %rcx
	movl	%edx, %eax
	movq	%rcx, -24(%rbp)
	movl	%eax, -16(%rbp)
	jmp	LBB38_1
LBB38_3:
	movq	-128(%rbp), %rsi
	movq	-104(%rbp), %rdi
Ltmp475:
	.loc	10 25 23 is_stmt 1
	movq	%rdi, -8(%rbp)
Ltmp476:
	.loc	10 27 42
	movq	-96(%rbp), %rax
	movq	%rax, -64(%rbp)
	.loc	10 27 47 is_stmt 0
	movb	$0, -41(%rbp)
	movq	-80(%rbp), %rax
	movq	%rax, -56(%rbp)
	.loc	10 27 9
	movq	-64(%rbp), %rdx
	movq	-56(%rbp), %rcx
Ltmp469:
	callq	__ZN64_$LT$$LP$A$C$$RP$$u20$as$u20$objc..message..MessageArguments$GT$6invoke17hf94c56bc42adc5a0E
Ltmp470:
	movq	%rax, -136(%rbp)
	jmp	LBB38_4
LBB38_4:
	.loc	10 0 9
	movq	-112(%rbp), %rax
	movq	-120(%rbp), %rcx
	movq	-136(%rbp), %rdx
	.loc	10 26 5 is_stmt 1
	movq	%rdx, (%rcx)
	movq	$0, 8(%rcx)
Ltmp477:
	.loc	10 29 2
	addq	$144, %rsp
	popq	%rbp
	retq
LBB38_5:
	.loc	10 21 1
	movq	-24(%rbp), %rdi
	callq	__Unwind_Resume
LBB38_6:
	.loc	10 29 1
	jmp	LBB38_5
Ltmp478:
Lfunc_end38:
	.cfi_endproc
	.section	__TEXT,__gcc_except_tab
	.p2align	2
GCC_except_table38:
Lexception29:
	.byte	255
	.byte	255
	.byte	1
	.uleb128 Lcst_end29-Lcst_begin29
Lcst_begin29:
	.uleb128 Ltmp467-Lfunc_begin38
	.uleb128 Ltmp470-Ltmp467
	.uleb128 Ltmp471-Lfunc_begin38
	.byte	0
	.uleb128 Ltmp470-Lfunc_begin38
	.uleb128 Lfunc_end38-Ltmp470
	.byte	0
	.byte	0
Lcst_end29:
	.p2align	2

	.section	__TEXT,__text,regular,pure_instructions
	.globl	__ZN4objc7message8platform15send_unverified17h6dc14163524386f2E
	.p2align	4, 0x90
__ZN4objc7message8platform15send_unverified17h6dc14163524386f2E:
Lfunc_begin39:
	.loc	10 21 0
	.cfi_startproc
	.cfi_personality 155, _rust_eh_personality
	.cfi_lsda 16, Lexception30
	pushq	%rbp
	.cfi_def_cfa_offset 16
	.cfi_offset %rbp, -16
	movq	%rsp, %rbp
	.cfi_def_cfa_register %rbp
	subq	$144, %rsp
	movq	%rcx, -136(%rbp)
Ltmp484:
	movq	%rsi, -128(%rbp)
	movq	%rdi, -120(%rbp)
	movq	%rdi, -112(%rbp)
	movq	%rdx, -88(%rbp)
	movq	-88(%rbp), %rax
	movq	%rax, -96(%rbp)
	movq	%rsi, -40(%rbp)
Ltmp485:
	.loc	10 24 9 prologue_end
	movb	$0, -41(%rbp)
	movb	$1, -41(%rbp)
	.loc	10 24 20 is_stmt 0
	movq	%rsi, -32(%rbp)
Ltmp479:
Ltmp486:
	.loc	10 25 23 is_stmt 1
	callq	__ZN4objc7message8platform4arch11msg_send_fn17h9b8132bcc5b7b9ffE
Ltmp487:
Ltmp480:
	.loc	10 0 23 is_stmt 0
	movq	%rax, -104(%rbp)
Ltmp488:
	.loc	10 25 23
	jmp	LBB39_3
Ltmp489:
LBB39_1:
	.loc	10 29 1 is_stmt 1
	testb	$1, -41(%rbp)
	jne	LBB39_6
	jmp	LBB39_5
Ltmp490:
LBB39_2:
Ltmp483:
	.loc	10 0 1 is_stmt 0
	movq	%rax, %rcx
	movl	%edx, %eax
	movq	%rcx, -24(%rbp)
	movl	%eax, -16(%rbp)
	jmp	LBB39_1
Ltmp491:
LBB39_3:
	movq	-128(%rbp), %rsi
	movq	-104(%rbp), %rdi
	movq	-136(%rbp), %rcx
Ltmp492:
	.loc	10 25 23 is_stmt 1
	movq	%rdi, -8(%rbp)
Ltmp493:
	.loc	10 27 42
	movq	-96(%rbp), %rax
	movq	%rax, -80(%rbp)
	.loc	10 27 47 is_stmt 0
	movb	$0, -41(%rbp)
	movq	16(%rcx), %rax
	movq	%rax, -56(%rbp)
	movq	(%rcx), %rax
	movq	8(%rcx), %rcx
	movq	%rcx, -64(%rbp)
	movq	%rax, -72(%rbp)
	.loc	10 27 9
	movq	-80(%rbp), %rdx
Ltmp481:
	leaq	-72(%rbp), %rcx
	callq	__ZN69_$LT$$LP$A$C$B$C$C$RP$$u20$as$u20$objc..message..MessageArguments$GT$6invoke17h8cc4901466be7f90E
Ltmp482:
	movq	%rax, -144(%rbp)
	jmp	LBB39_4
Ltmp494:
LBB39_4:
	.loc	10 0 9
	movq	-112(%rbp), %rax
	movq	-120(%rbp), %rcx
	movq	-144(%rbp), %rdx
	.loc	10 26 5 is_stmt 1
	movq	%rdx, (%rcx)
	movq	$0, 8(%rcx)
Ltmp495:
	.loc	10 29 2
	addq	$144, %rsp
	popq	%rbp
	retq
Ltmp496:
LBB39_5:
	.loc	10 21 1
	movq	-24(%rbp), %rdi
	callq	__Unwind_Resume
Ltmp497:
LBB39_6:
	.loc	10 29 1
	jmp	LBB39_5
Ltmp498:
Lfunc_end39:
	.cfi_endproc
	.section	__TEXT,__gcc_except_tab
	.p2align	2
GCC_except_table39:
Lexception30:
	.byte	255
	.byte	255
	.byte	1
	.uleb128 Lcst_end30-Lcst_begin30
Lcst_begin30:
	.uleb128 Ltmp479-Lfunc_begin39
	.uleb128 Ltmp482-Ltmp479
	.uleb128 Ltmp483-Lfunc_begin39
	.byte	0
	.uleb128 Ltmp482-Lfunc_begin39
	.uleb128 Lfunc_end39-Ltmp482
	.byte	0
	.byte	0
Lcst_end30:
	.p2align	2

	.section	__TEXT,__text,regular,pure_instructions
	.globl	__ZN4objc7message8platform15send_unverified17h70d888f963a88f98E
	.p2align	4, 0x90
__ZN4objc7message8platform15send_unverified17h70d888f963a88f98E:
Lfunc_begin40:
	.loc	10 21 0
	.cfi_startproc
	.cfi_personality 155, _rust_eh_personality
	.cfi_lsda 16, Lexception31
	pushq	%rbp
	.cfi_def_cfa_offset 16
	.cfi_offset %rbp, -16
	movq	%rsp, %rbp
	.cfi_def_cfa_register %rbp
	subq	$160, %rsp
	movq	%rcx, -152(%rbp)
Ltmp504:
	movq	%rsi, -144(%rbp)
	movq	%rdi, -136(%rbp)
	movq	%rdi, -128(%rbp)
	movq	%rdx, -104(%rbp)
	movq	-104(%rbp), %rax
	movq	%rax, -112(%rbp)
	movq	%rsi, -40(%rbp)
Ltmp505:
	.loc	10 24 9 prologue_end
	movb	$0, -41(%rbp)
	movb	$1, -41(%rbp)
	.loc	10 24 20 is_stmt 0
	movq	%rsi, -32(%rbp)
Ltmp499:
Ltmp506:
	.loc	10 25 23 is_stmt 1
	callq	__ZN4objc7message8platform4arch11msg_send_fn17h9b8132bcc5b7b9ffE
Ltmp507:
Ltmp500:
	.loc	10 0 23 is_stmt 0
	movq	%rax, -120(%rbp)
Ltmp508:
	.loc	10 25 23
	jmp	LBB40_3
Ltmp509:
LBB40_1:
	.loc	10 29 1 is_stmt 1
	testb	$1, -41(%rbp)
	jne	LBB40_6
	jmp	LBB40_5
Ltmp510:
LBB40_2:
Ltmp503:
	.loc	10 0 1 is_stmt 0
	movq	%rax, %rcx
	movl	%edx, %eax
	movq	%rcx, -24(%rbp)
	movl	%eax, -16(%rbp)
	jmp	LBB40_1
Ltmp511:
LBB40_3:
	movq	-144(%rbp), %rsi
	movq	-120(%rbp), %rdi
	movq	-152(%rbp), %rcx
Ltmp512:
	.loc	10 25 23 is_stmt 1
	movq	%rdi, -8(%rbp)
Ltmp513:
	.loc	10 27 42
	movq	-112(%rbp), %rax
	movq	%rax, -96(%rbp)
	.loc	10 27 47 is_stmt 0
	movb	$0, -41(%rbp)
	movq	32(%rcx), %rax
	movq	%rax, -56(%rbp)
	movq	24(%rcx), %rax
	movq	%rax, -64(%rbp)
	movq	16(%rcx), %rax
	movq	%rax, -72(%rbp)
	movq	(%rcx), %rax
	movq	8(%rcx), %rcx
	movq	%rcx, -80(%rbp)
	movq	%rax, -88(%rbp)
	.loc	10 27 9
	movq	-96(%rbp), %rdx
Ltmp501:
	leaq	-88(%rbp), %rcx
	callq	__ZN77_$LT$$LP$A$C$B$C$C$C$D$C$E$RP$$u20$as$u20$objc..message..MessageArguments$GT$6invoke17h17ec001a8967b4fbE
Ltmp502:
	movq	%rax, -160(%rbp)
	jmp	LBB40_4
Ltmp514:
LBB40_4:
	.loc	10 0 9
	movq	-128(%rbp), %rax
	movq	-136(%rbp), %rcx
	movq	-160(%rbp), %rdx
	.loc	10 26 5 is_stmt 1
	movq	%rdx, (%rcx)
	movq	$0, 8(%rcx)
Ltmp515:
	.loc	10 29 2
	addq	$160, %rsp
	popq	%rbp
	retq
Ltmp516:
LBB40_5:
	.loc	10 21 1
	movq	-24(%rbp), %rdi
	callq	__Unwind_Resume
Ltmp517:
LBB40_6:
	.loc	10 29 1
	jmp	LBB40_5
Ltmp518:
Lfunc_end40:
	.cfi_endproc
	.section	__TEXT,__gcc_except_tab
	.p2align	2
GCC_except_table40:
Lexception31:
	.byte	255
	.byte	255
	.byte	1
	.uleb128 Lcst_end31-Lcst_begin31
Lcst_begin31:
	.uleb128 Ltmp499-Lfunc_begin40
	.uleb128 Ltmp502-Ltmp499
	.uleb128 Ltmp503-Lfunc_begin40
	.byte	0
	.uleb128 Ltmp502-Lfunc_begin40
	.uleb128 Lfunc_end40-Ltmp502
	.byte	0
	.byte	0
Lcst_end31:
	.p2align	2

	.section	__TEXT,__text,regular,pure_instructions
	.globl	__ZN4objc7message8platform15send_unverified17h7187945f68c21f10E
	.p2align	4, 0x90
__ZN4objc7message8platform15send_unverified17h7187945f68c21f10E:
Lfunc_begin41:
	.loc	10 21 0
	.cfi_startproc
	.cfi_personality 155, _rust_eh_personality
	.cfi_lsda 16, Lexception32
	pushq	%rbp
	.cfi_def_cfa_offset 16
	.cfi_offset %rbp, -16
	movq	%rsp, %rbp
	.cfi_def_cfa_register %rbp
	subq	$144, %rsp
	movq	%r8, -136(%rbp)
	movq	%rcx, -128(%rbp)
	movq	%rsi, -120(%rbp)
	movq	%rdi, -112(%rbp)
	movq	%rdi, -104(%rbp)
	movq	%rdx, -80(%rbp)
	movq	-80(%rbp), %rax
	movq	%rax, -88(%rbp)
	movq	%rsi, -56(%rbp)
	movq	%rcx, -48(%rbp)
	movq	%r8, -40(%rbp)
Ltmp524:
	.loc	10 24 9 prologue_end
	movb	$0, -57(%rbp)
	movb	$1, -57(%rbp)
	.loc	10 24 20 is_stmt 0
	movq	%rsi, -32(%rbp)
Ltmp519:
Ltmp525:
	.loc	10 25 23 is_stmt 1
	callq	__ZN4objc7message8platform4arch11msg_send_fn17h9b8132bcc5b7b9ffE
Ltmp520:
	movq	%rax, -96(%rbp)
	jmp	LBB41_3
Ltmp526:
LBB41_1:
	.loc	10 29 1
	testb	$1, -57(%rbp)
	jne	LBB41_6
	jmp	LBB41_5
LBB41_2:
Ltmp523:
	.loc	10 0 1 is_stmt 0
	movq	%rax, %rcx
	movl	%edx, %eax
	movq	%rcx, -24(%rbp)
	movl	%eax, -16(%rbp)
	jmp	LBB41_1
LBB41_3:
	movq	-136(%rbp), %r8
	movq	-128(%rbp), %rcx
	movq	-120(%rbp), %rsi
	movq	-96(%rbp), %rdi
Ltmp527:
	.loc	10 25 23 is_stmt 1
	movq	%rdi, -8(%rbp)
Ltmp528:
	.loc	10 27 42
	movq	-88(%rbp), %rax
	movq	%rax, -72(%rbp)
	.loc	10 27 47 is_stmt 0
	movb	$0, -57(%rbp)
	.loc	10 27 9
	movq	-72(%rbp), %rdx
Ltmp521:
	callq	__ZN65_$LT$$LP$A$C$B$RP$$u20$as$u20$objc..message..MessageArguments$GT$6invoke17ha27e8203c5850460E
Ltmp522:
	movq	%rax, -144(%rbp)
	jmp	LBB41_4
LBB41_4:
	.loc	10 0 9
	movq	-104(%rbp), %rax
	movq	-112(%rbp), %rcx
	movq	-144(%rbp), %rdx
	.loc	10 26 5 is_stmt 1
	movq	%rdx, (%rcx)
	movq	$0, 8(%rcx)
Ltmp529:
	.loc	10 29 2
	addq	$144, %rsp
	popq	%rbp
	retq
LBB41_5:
	.loc	10 21 1
	movq	-24(%rbp), %rdi
	callq	__Unwind_Resume
LBB41_6:
	.loc	10 29 1
	jmp	LBB41_5
Ltmp530:
Lfunc_end41:
	.cfi_endproc
	.section	__TEXT,__gcc_except_tab
	.p2align	2
GCC_except_table41:
Lexception32:
	.byte	255
	.byte	255
	.byte	1
	.uleb128 Lcst_end32-Lcst_begin32
Lcst_begin32:
	.uleb128 Ltmp519-Lfunc_begin41
	.uleb128 Ltmp522-Ltmp519
	.uleb128 Ltmp523-Lfunc_begin41
	.byte	0
	.uleb128 Ltmp522-Lfunc_begin41
	.uleb128 Lfunc_end41-Ltmp522
	.byte	0
	.byte	0
Lcst_end32:
	.p2align	2

	.section	__TEXT,__text,regular,pure_instructions
	.globl	__ZN4objc7message8platform15send_unverified17h720d441a17e5fd82E
	.p2align	4, 0x90
__ZN4objc7message8platform15send_unverified17h720d441a17e5fd82E:
Lfunc_begin42:
	.loc	10 21 0
	.cfi_startproc
	.cfi_personality 155, _rust_eh_personality
	.cfi_lsda 16, Lexception33
	pushq	%rbp
	.cfi_def_cfa_offset 16
	.cfi_offset %rbp, -16
	movq	%rsp, %rbp
	.cfi_def_cfa_register %rbp
	subq	$128, %rsp
	movq	%rcx, -120(%rbp)
	movq	%rsi, -112(%rbp)
	movq	%rdi, -104(%rbp)
	movq	%rdi, -96(%rbp)
	movq	%rdx, -72(%rbp)
	movq	-72(%rbp), %rax
	movq	%rax, -80(%rbp)
	movq	%rsi, -48(%rbp)
	movq	%rcx, -40(%rbp)
Ltmp536:
	.loc	10 24 9 prologue_end
	movb	$0, -49(%rbp)
	movb	$1, -49(%rbp)
	.loc	10 24 20 is_stmt 0
	movq	%rsi, -32(%rbp)
Ltmp531:
Ltmp537:
	.loc	10 25 23 is_stmt 1
	callq	__ZN4objc7message8platform4arch11msg_send_fn17h9bdde5caabe62b5fE
Ltmp532:
	movq	%rax, -88(%rbp)
	jmp	LBB42_3
Ltmp538:
LBB42_1:
	.loc	10 29 1
	testb	$1, -49(%rbp)
	jne	LBB42_6
	jmp	LBB42_5
LBB42_2:
Ltmp535:
	.loc	10 0 1 is_stmt 0
	movq	%rax, %rcx
	movl	%edx, %eax
	movq	%rcx, -24(%rbp)
	movl	%eax, -16(%rbp)
	jmp	LBB42_1
LBB42_3:
	movq	-120(%rbp), %rcx
	movq	-112(%rbp), %rsi
	movq	-88(%rbp), %rdi
Ltmp539:
	.loc	10 25 23 is_stmt 1
	movq	%rdi, -8(%rbp)
Ltmp540:
	.loc	10 27 42
	movq	-80(%rbp), %rax
	movq	%rax, -64(%rbp)
	.loc	10 27 47 is_stmt 0
	movb	$0, -49(%rbp)
	.loc	10 27 9
	movq	-64(%rbp), %rdx
Ltmp533:
	callq	__ZN64_$LT$$LP$A$C$$RP$$u20$as$u20$objc..message..MessageArguments$GT$6invoke17h1ea3053b2fe4f066E
Ltmp534:
	jmp	LBB42_4
LBB42_4:
	.loc	10 0 9
	movq	-96(%rbp), %rax
	movq	-104(%rbp), %rcx
	.loc	10 26 5 is_stmt 1
	movq	$0, 8(%rcx)
Ltmp541:
	.loc	10 29 2
	addq	$128, %rsp
	popq	%rbp
	retq
LBB42_5:
	.loc	10 21 1
	movq	-24(%rbp), %rdi
	callq	__Unwind_Resume
LBB42_6:
	.loc	10 29 1
	jmp	LBB42_5
Ltmp542:
Lfunc_end42:
	.cfi_endproc
	.section	__TEXT,__gcc_except_tab
	.p2align	2
GCC_except_table42:
Lexception33:
	.byte	255
	.byte	255
	.byte	1
	.uleb128 Lcst_end33-Lcst_begin33
Lcst_begin33:
	.uleb128 Ltmp531-Lfunc_begin42
	.uleb128 Ltmp534-Ltmp531
	.uleb128 Ltmp535-Lfunc_begin42
	.byte	0
	.uleb128 Ltmp534-Lfunc_begin42
	.uleb128 Lfunc_end42-Ltmp534
	.byte	0
	.byte	0
Lcst_end33:
	.p2align	2

	.section	__TEXT,__text,regular,pure_instructions
	.globl	__ZN4objc7message8platform15send_unverified17h73939bf1a24da4f1E
	.p2align	4, 0x90
__ZN4objc7message8platform15send_unverified17h73939bf1a24da4f1E:
Lfunc_begin43:
	.loc	10 21 0
	.cfi_startproc
	.cfi_personality 155, _rust_eh_personality
	.cfi_lsda 16, Lexception34
	pushq	%rbp
	.cfi_def_cfa_offset 16
	.cfi_offset %rbp, -16
	movq	%rsp, %rbp
	.cfi_def_cfa_register %rbp
	subq	$128, %rsp
	movq	%rsi, -112(%rbp)
	movq	%rdi, -104(%rbp)
	movq	%rdi, -96(%rbp)
	movq	%rdx, -72(%rbp)
	movq	-72(%rbp), %rax
	movq	%rax, -80(%rbp)
	movq	%rsi, -48(%rbp)
Ltmp548:
	.loc	10 24 9 prologue_end
	movb	$0, -49(%rbp)
	movb	$1, -49(%rbp)
	.loc	10 24 20 is_stmt 0
	movq	%rsi, -32(%rbp)
Ltmp543:
Ltmp549:
	.loc	10 25 23 is_stmt 1
	callq	__ZN4objc7message8platform4arch11msg_send_fn17h9b8132bcc5b7b9ffE
Ltmp544:
	movq	%rax, -88(%rbp)
	jmp	LBB43_3
Ltmp550:
LBB43_1:
	.loc	10 29 1
	testb	$1, -49(%rbp)
	jne	LBB43_6
	jmp	LBB43_5
LBB43_2:
Ltmp547:
	.loc	10 0 1 is_stmt 0
	movq	%rax, %rcx
	movl	%edx, %eax
	movq	%rcx, -24(%rbp)
	movl	%eax, -16(%rbp)
	jmp	LBB43_1
LBB43_3:
	movq	-112(%rbp), %rsi
	movq	-88(%rbp), %rdi
Ltmp551:
	.loc	10 25 23 is_stmt 1
	movq	%rdi, -8(%rbp)
Ltmp552:
	.loc	10 27 42
	movq	-80(%rbp), %rax
	movq	%rax, -64(%rbp)
	.loc	10 27 47 is_stmt 0
	movb	$0, -49(%rbp)
	.loc	10 27 9
	movq	-64(%rbp), %rdx
Ltmp545:
	callq	__ZN60_$LT$$LP$$RP$$u20$as$u20$objc..message..MessageArguments$GT$6invoke17h0b0762c722f444edE
Ltmp546:
	movq	%rax, -120(%rbp)
	jmp	LBB43_4
LBB43_4:
	.loc	10 0 9
	movq	-96(%rbp), %rax
	movq	-104(%rbp), %rcx
	movq	-120(%rbp), %rdx
	.loc	10 26 5 is_stmt 1
	movq	%rdx, (%rcx)
	movq	$0, 8(%rcx)
Ltmp553:
	.loc	10 29 2
	addq	$128, %rsp
	popq	%rbp
	retq
LBB43_5:
	.loc	10 21 1
	movq	-24(%rbp), %rdi
	callq	__Unwind_Resume
LBB43_6:
	.loc	10 29 1
	jmp	LBB43_5
Ltmp554:
Lfunc_end43:
	.cfi_endproc
	.section	__TEXT,__gcc_except_tab
	.p2align	2
GCC_except_table43:
Lexception34:
	.byte	255
	.byte	255
	.byte	1
	.uleb128 Lcst_end34-Lcst_begin34
Lcst_begin34:
	.uleb128 Ltmp543-Lfunc_begin43
	.uleb128 Ltmp546-Ltmp543
	.uleb128 Ltmp547-Lfunc_begin43
	.byte	0
	.uleb128 Ltmp546-Lfunc_begin43
	.uleb128 Lfunc_end43-Ltmp546
	.byte	0
	.byte	0
Lcst_end34:
	.p2align	2

	.section	__TEXT,__text,regular,pure_instructions
	.globl	__ZN4objc7message8platform15send_unverified17h772c4cd7d424c491E
	.p2align	4, 0x90
__ZN4objc7message8platform15send_unverified17h772c4cd7d424c491E:
Lfunc_begin44:
	.loc	10 21 0
	.cfi_startproc
	.cfi_personality 155, _rust_eh_personality
	.cfi_lsda 16, Lexception35
	pushq	%rbp
	.cfi_def_cfa_offset 16
	.cfi_offset %rbp, -16
	movq	%rsp, %rbp
	.cfi_def_cfa_register %rbp
	subq	$128, %rsp
	movq	%rcx, -120(%rbp)
	movq	%rsi, -112(%rbp)
	movq	%rdi, -104(%rbp)
	movq	%rdi, -96(%rbp)
	movq	%rdx, -72(%rbp)
	movq	-72(%rbp), %rax
	movq	%rax, -80(%rbp)
	movq	%rsi, -48(%rbp)
	movq	%rcx, -40(%rbp)
Ltmp560:
	.loc	10 24 9 prologue_end
	movb	$0, -49(%rbp)
	movb	$1, -49(%rbp)
	.loc	10 24 20 is_stmt 0
	movq	%rsi, -32(%rbp)
Ltmp555:
Ltmp561:
	.loc	10 25 23 is_stmt 1
	callq	__ZN4objc7message8platform4arch11msg_send_fn17h9b8132bcc5b7b9ffE
Ltmp556:
	movq	%rax, -88(%rbp)
	jmp	LBB44_3
Ltmp562:
LBB44_1:
	.loc	10 29 1
	testb	$1, -49(%rbp)
	jne	LBB44_6
	jmp	LBB44_5
LBB44_2:
Ltmp559:
	.loc	10 0 1 is_stmt 0
	movq	%rax, %rcx
	movl	%edx, %eax
	movq	%rcx, -24(%rbp)
	movl	%eax, -16(%rbp)
	jmp	LBB44_1
LBB44_3:
	movq	-120(%rbp), %rcx
	movq	-112(%rbp), %rsi
	movq	-88(%rbp), %rdi
Ltmp563:
	.loc	10 25 23 is_stmt 1
	movq	%rdi, -8(%rbp)
Ltmp564:
	.loc	10 27 42
	movq	-80(%rbp), %rax
	movq	%rax, -64(%rbp)
	.loc	10 27 47 is_stmt 0
	movb	$0, -49(%rbp)
	.loc	10 27 9
	movq	-64(%rbp), %rdx
Ltmp557:
	callq	__ZN64_$LT$$LP$A$C$$RP$$u20$as$u20$objc..message..MessageArguments$GT$6invoke17hca5b701b2e7827f7E
Ltmp558:
	movq	%rax, -128(%rbp)
	jmp	LBB44_4
LBB44_4:
	.loc	10 0 9
	movq	-96(%rbp), %rax
	movq	-104(%rbp), %rcx
	movq	-128(%rbp), %rdx
	.loc	10 26 5 is_stmt 1
	movq	%rdx, (%rcx)
	movq	$0, 8(%rcx)
Ltmp565:
	.loc	10 29 2
	addq	$128, %rsp
	popq	%rbp
	retq
LBB44_5:
	.loc	10 21 1
	movq	-24(%rbp), %rdi
	callq	__Unwind_Resume
LBB44_6:
	.loc	10 29 1
	jmp	LBB44_5
Ltmp566:
Lfunc_end44:
	.cfi_endproc
	.section	__TEXT,__gcc_except_tab
	.p2align	2
GCC_except_table44:
Lexception35:
	.byte	255
	.byte	255
	.byte	1
	.uleb128 Lcst_end35-Lcst_begin35
Lcst_begin35:
	.uleb128 Ltmp555-Lfunc_begin44
	.uleb128 Ltmp558-Ltmp555
	.uleb128 Ltmp559-Lfunc_begin44
	.byte	0
	.uleb128 Ltmp558-Lfunc_begin44
	.uleb128 Lfunc_end44-Ltmp558
	.byte	0
	.byte	0
Lcst_end35:
	.p2align	2

	.section	__TEXT,__text,regular,pure_instructions
	.globl	__ZN4objc7message8platform15send_unverified17h77e45b547025bfbaE
	.p2align	4, 0x90
__ZN4objc7message8platform15send_unverified17h77e45b547025bfbaE:
Lfunc_begin45:
	.loc	10 21 0
	.cfi_startproc
	.cfi_personality 155, _rust_eh_personality
	.cfi_lsda 16, Lexception36
	pushq	%rbp
	.cfi_def_cfa_offset 16
	.cfi_offset %rbp, -16
	movq	%rsp, %rbp
	.cfi_def_cfa_register %rbp
	subq	$128, %rsp
	movq	%rsi, -112(%rbp)
	movq	%rdi, -104(%rbp)
	movq	%rdi, -96(%rbp)
	movq	%rdx, -72(%rbp)
	movq	-72(%rbp), %rax
	movq	%rax, -80(%rbp)
	movq	%rsi, -48(%rbp)
Ltmp572:
	.loc	10 24 9 prologue_end
	movb	$0, -49(%rbp)
	movb	$1, -49(%rbp)
	.loc	10 24 20 is_stmt 0
	movq	%rsi, -32(%rbp)
Ltmp567:
Ltmp573:
	.loc	10 25 23 is_stmt 1
	callq	__ZN4objc7message8platform4arch11msg_send_fn17h0dc753895111e203E
Ltmp568:
	movq	%rax, -88(%rbp)
	jmp	LBB45_3
Ltmp574:
LBB45_1:
	.loc	10 29 1
	testb	$1, -49(%rbp)
	jne	LBB45_6
	jmp	LBB45_5
LBB45_2:
Ltmp571:
	.loc	10 0 1 is_stmt 0
	movq	%rax, %rcx
	movl	%edx, %eax
	movq	%rcx, -24(%rbp)
	movl	%eax, -16(%rbp)
	jmp	LBB45_1
LBB45_3:
	movq	-112(%rbp), %rsi
	movq	-88(%rbp), %rdi
Ltmp575:
	.loc	10 25 23 is_stmt 1
	movq	%rdi, -8(%rbp)
Ltmp576:
	.loc	10 27 42
	movq	-80(%rbp), %rax
	movq	%rax, -64(%rbp)
	.loc	10 27 47 is_stmt 0
	movb	$0, -49(%rbp)
	.loc	10 27 9
	movq	-64(%rbp), %rdx
Ltmp569:
	callq	__ZN60_$LT$$LP$$RP$$u20$as$u20$objc..message..MessageArguments$GT$6invoke17hb8a6f42a6bed9d08E
Ltmp570:
	movq	%rax, -120(%rbp)
	jmp	LBB45_4
LBB45_4:
	.loc	10 0 9
	movq	-96(%rbp), %rax
	movq	-104(%rbp), %rcx
	movq	-120(%rbp), %rdx
	.loc	10 26 5 is_stmt 1
	movq	%rdx, (%rcx)
	movq	$0, 8(%rcx)
Ltmp577:
	.loc	10 29 2
	addq	$128, %rsp
	popq	%rbp
	retq
LBB45_5:
	.loc	10 21 1
	movq	-24(%rbp), %rdi
	callq	__Unwind_Resume
LBB45_6:
	.loc	10 29 1
	jmp	LBB45_5
Ltmp578:
Lfunc_end45:
	.cfi_endproc
	.section	__TEXT,__gcc_except_tab
	.p2align	2
GCC_except_table45:
Lexception36:
	.byte	255
	.byte	255
	.byte	1
	.uleb128 Lcst_end36-Lcst_begin36
Lcst_begin36:
	.uleb128 Ltmp567-Lfunc_begin45
	.uleb128 Ltmp570-Ltmp567
	.uleb128 Ltmp571-Lfunc_begin45
	.byte	0
	.uleb128 Ltmp570-Lfunc_begin45
	.uleb128 Lfunc_end45-Ltmp570
	.byte	0
	.byte	0
Lcst_end36:
	.p2align	2

	.section	__TEXT,__text,regular,pure_instructions
	.globl	__ZN4objc7message8platform15send_unverified17h786dc2137f3dcc89E
	.p2align	4, 0x90
__ZN4objc7message8platform15send_unverified17h786dc2137f3dcc89E:
Lfunc_begin46:
	.loc	10 21 0
	.cfi_startproc
	.cfi_personality 155, _rust_eh_personality
	.cfi_lsda 16, Lexception37
	pushq	%rbp
	.cfi_def_cfa_offset 16
	.cfi_offset %rbp, -16
	movq	%rsp, %rbp
	.cfi_def_cfa_register %rbp
	subq	$128, %rsp
	movq	%rcx, -120(%rbp)
	movq	%rsi, -112(%rbp)
	movq	%rdi, -104(%rbp)
	movq	%rdi, -96(%rbp)
	movq	%rdx, -72(%rbp)
	movq	-72(%rbp), %rax
	movq	%rax, -80(%rbp)
	movq	%rsi, -48(%rbp)
	movq	%rcx, -40(%rbp)
Ltmp584:
	.loc	10 24 9 prologue_end
	movb	$0, -49(%rbp)
	movb	$1, -49(%rbp)
	.loc	10 24 20 is_stmt 0
	movq	%rsi, -32(%rbp)
Ltmp579:
Ltmp585:
	.loc	10 25 23 is_stmt 1
	callq	__ZN4objc7message8platform4arch11msg_send_fn17h9b8132bcc5b7b9ffE
Ltmp580:
	movq	%rax, -88(%rbp)
	jmp	LBB46_3
Ltmp586:
LBB46_1:
	.loc	10 29 1
	testb	$1, -49(%rbp)
	jne	LBB46_6
	jmp	LBB46_5
LBB46_2:
Ltmp583:
	.loc	10 0 1 is_stmt 0
	movq	%rax, %rcx
	movl	%edx, %eax
	movq	%rcx, -24(%rbp)
	movl	%eax, -16(%rbp)
	jmp	LBB46_1
LBB46_3:
	movq	-120(%rbp), %rcx
	movq	-112(%rbp), %rsi
	movq	-88(%rbp), %rdi
Ltmp587:
	.loc	10 25 23 is_stmt 1
	movq	%rdi, -8(%rbp)
Ltmp588:
	.loc	10 27 42
	movq	-80(%rbp), %rax
	movq	%rax, -64(%rbp)
	.loc	10 27 47 is_stmt 0
	movb	$0, -49(%rbp)
	.loc	10 27 9
	movq	-64(%rbp), %rdx
Ltmp581:
	callq	__ZN64_$LT$$LP$A$C$$RP$$u20$as$u20$objc..message..MessageArguments$GT$6invoke17hbc7f404fa79d1cc5E
Ltmp582:
	movq	%rax, -128(%rbp)
	jmp	LBB46_4
LBB46_4:
	.loc	10 0 9
	movq	-96(%rbp), %rax
	movq	-104(%rbp), %rcx
	movq	-128(%rbp), %rdx
	.loc	10 26 5 is_stmt 1
	movq	%rdx, (%rcx)
	movq	$0, 8(%rcx)
Ltmp589:
	.loc	10 29 2
	addq	$128, %rsp
	popq	%rbp
	retq
LBB46_5:
	.loc	10 21 1
	movq	-24(%rbp), %rdi
	callq	__Unwind_Resume
LBB46_6:
	.loc	10 29 1
	jmp	LBB46_5
Ltmp590:
Lfunc_end46:
	.cfi_endproc
	.section	__TEXT,__gcc_except_tab
	.p2align	2
GCC_except_table46:
Lexception37:
	.byte	255
	.byte	255
	.byte	1
	.uleb128 Lcst_end37-Lcst_begin37
Lcst_begin37:
	.uleb128 Ltmp579-Lfunc_begin46
	.uleb128 Ltmp582-Ltmp579
	.uleb128 Ltmp583-Lfunc_begin46
	.byte	0
	.uleb128 Ltmp582-Lfunc_begin46
	.uleb128 Lfunc_end46-Ltmp582
	.byte	0
	.byte	0
Lcst_end37:
	.p2align	2

	.section	__TEXT,__text,regular,pure_instructions
	.globl	__ZN4objc7message8platform15send_unverified17h81e6ccfa1b310ec9E
	.p2align	4, 0x90
__ZN4objc7message8platform15send_unverified17h81e6ccfa1b310ec9E:
Lfunc_begin47:
	.loc	10 21 0
	.cfi_startproc
	.cfi_personality 155, _rust_eh_personality
	.cfi_lsda 16, Lexception38
	pushq	%rbp
	.cfi_def_cfa_offset 16
	.cfi_offset %rbp, -16
	movq	%rsp, %rbp
	.cfi_def_cfa_register %rbp
	subq	$144, %rsp
	movq	%rcx, -136(%rbp)
Ltmp596:
	movq	%rsi, -128(%rbp)
	movq	%rdi, -120(%rbp)
	movq	%rdi, -112(%rbp)
	movq	%rdx, -88(%rbp)
	movq	-88(%rbp), %rax
	movq	%rax, -96(%rbp)
	movq	%rsi, -40(%rbp)
Ltmp597:
	.loc	10 24 9 prologue_end
	movb	$0, -41(%rbp)
	movb	$1, -41(%rbp)
	.loc	10 24 20 is_stmt 0
	movq	%rsi, -32(%rbp)
Ltmp591:
Ltmp598:
	.loc	10 25 23 is_stmt 1
	callq	__ZN4objc7message8platform4arch11msg_send_fn17hf91c86d4fee27166E
Ltmp599:
Ltmp592:
	.loc	10 0 23 is_stmt 0
	movq	%rax, -104(%rbp)
Ltmp600:
	.loc	10 25 23
	jmp	LBB47_3
Ltmp601:
LBB47_1:
	.loc	10 29 1 is_stmt 1
	testb	$1, -41(%rbp)
	jne	LBB47_6
	jmp	LBB47_5
Ltmp602:
LBB47_2:
Ltmp595:
	.loc	10 0 1 is_stmt 0
	movq	%rax, %rcx
	movl	%edx, %eax
	movq	%rcx, -24(%rbp)
	movl	%eax, -16(%rbp)
	jmp	LBB47_1
Ltmp603:
LBB47_3:
	movq	-128(%rbp), %rsi
	movq	-104(%rbp), %rdi
	movq	-136(%rbp), %rcx
Ltmp604:
	.loc	10 25 23 is_stmt 1
	movq	%rdi, -8(%rbp)
Ltmp605:
	.loc	10 27 42
	movq	-96(%rbp), %rax
	movq	%rax, -80(%rbp)
	.loc	10 27 47 is_stmt 0
	movb	$0, -41(%rbp)
	movq	16(%rcx), %rax
	movq	%rax, -56(%rbp)
	movq	(%rcx), %rax
	movq	8(%rcx), %rcx
	movq	%rcx, -64(%rbp)
	movq	%rax, -72(%rbp)
	.loc	10 27 9
	movq	-80(%rbp), %rdx
Ltmp593:
	leaq	-72(%rbp), %rcx
	callq	__ZN64_$LT$$LP$A$C$$RP$$u20$as$u20$objc..message..MessageArguments$GT$6invoke17h2b104c176e05126dE
Ltmp594:
	movb	%al, -137(%rbp)
	jmp	LBB47_4
Ltmp606:
LBB47_4:
	.loc	10 0 9
	movq	-112(%rbp), %rax
	movq	-120(%rbp), %rcx
	movb	-137(%rbp), %dl
	.loc	10 26 5 is_stmt 1
	andb	$1, %dl
	movb	%dl, (%rcx)
	movq	$0, 8(%rcx)
Ltmp607:
	.loc	10 29 2
	addq	$144, %rsp
	popq	%rbp
	retq
Ltmp608:
LBB47_5:
	.loc	10 21 1
	movq	-24(%rbp), %rdi
	callq	__Unwind_Resume
Ltmp609:
LBB47_6:
	.loc	10 29 1
	jmp	LBB47_5
Ltmp610:
Lfunc_end47:
	.cfi_endproc
	.section	__TEXT,__gcc_except_tab
	.p2align	2
GCC_except_table47:
Lexception38:
	.byte	255
	.byte	255
	.byte	1
	.uleb128 Lcst_end38-Lcst_begin38
Lcst_begin38:
	.uleb128 Ltmp591-Lfunc_begin47
	.uleb128 Ltmp594-Ltmp591
	.uleb128 Ltmp595-Lfunc_begin47
	.byte	0
	.uleb128 Ltmp594-Lfunc_begin47
	.uleb128 Lfunc_end47-Ltmp594
	.byte	0
	.byte	0
Lcst_end38:
	.p2align	2

	.section	__TEXT,__text,regular,pure_instructions
	.globl	__ZN4objc7message8platform15send_unverified17h831f33b9874476beE
	.p2align	4, 0x90
__ZN4objc7message8platform15send_unverified17h831f33b9874476beE:
Lfunc_begin48:
	.loc	10 21 0
	.cfi_startproc
	.cfi_personality 155, _rust_eh_personality
	.cfi_lsda 16, Lexception39
	pushq	%rbp
	.cfi_def_cfa_offset 16
	.cfi_offset %rbp, -16
	movq	%rsp, %rbp
	.cfi_def_cfa_register %rbp
	subq	$144, %rsp
	movq	%rcx, -136(%rbp)
Ltmp616:
	movq	%rsi, -128(%rbp)
	movq	%rdi, -120(%rbp)
	movq	%rdi, -112(%rbp)
	movq	%rdx, -88(%rbp)
	movq	-88(%rbp), %rax
	movq	%rax, -96(%rbp)
	movq	%rsi, -40(%rbp)
Ltmp617:
	.loc	10 24 9 prologue_end
	movb	$0, -41(%rbp)
	movb	$1, -41(%rbp)
	.loc	10 24 20 is_stmt 0
	movq	%rsi, -32(%rbp)
Ltmp611:
Ltmp618:
	.loc	10 25 23 is_stmt 1
	callq	__ZN4objc7message8platform4arch11msg_send_fn17h9b8132bcc5b7b9ffE
Ltmp619:
Ltmp612:
	.loc	10 0 23 is_stmt 0
	movq	%rax, -104(%rbp)
Ltmp620:
	.loc	10 25 23
	jmp	LBB48_3
Ltmp621:
LBB48_1:
	.loc	10 29 1 is_stmt 1
	testb	$1, -41(%rbp)
	jne	LBB48_6
	jmp	LBB48_5
Ltmp622:
LBB48_2:
Ltmp615:
	.loc	10 0 1 is_stmt 0
	movq	%rax, %rcx
	movl	%edx, %eax
	movq	%rcx, -24(%rbp)
	movl	%eax, -16(%rbp)
	jmp	LBB48_1
Ltmp623:
LBB48_3:
	movq	-128(%rbp), %rsi
	movq	-104(%rbp), %rdi
	movq	-136(%rbp), %rcx
Ltmp624:
	.loc	10 25 23 is_stmt 1
	movq	%rdi, -8(%rbp)
Ltmp625:
	.loc	10 27 42
	movq	-96(%rbp), %rax
	movq	%rax, -80(%rbp)
	.loc	10 27 47 is_stmt 0
	movb	$0, -41(%rbp)
	movq	16(%rcx), %rax
	movq	%rax, -56(%rbp)
	movq	(%rcx), %rax
	movq	8(%rcx), %rcx
	movq	%rcx, -64(%rbp)
	movq	%rax, -72(%rbp)
	.loc	10 27 9
	movq	-80(%rbp), %rdx
Ltmp613:
	leaq	-72(%rbp), %rcx
	callq	__ZN69_$LT$$LP$A$C$B$C$C$RP$$u20$as$u20$objc..message..MessageArguments$GT$6invoke17h48a14901fc970e27E
Ltmp614:
	movq	%rax, -144(%rbp)
	jmp	LBB48_4
Ltmp626:
LBB48_4:
	.loc	10 0 9
	movq	-112(%rbp), %rax
	movq	-120(%rbp), %rcx
	movq	-144(%rbp), %rdx
	.loc	10 26 5 is_stmt 1
	movq	%rdx, (%rcx)
	movq	$0, 8(%rcx)
Ltmp627:
	.loc	10 29 2
	addq	$144, %rsp
	popq	%rbp
	retq
Ltmp628:
LBB48_5:
	.loc	10 21 1
	movq	-24(%rbp), %rdi
	callq	__Unwind_Resume
Ltmp629:
LBB48_6:
	.loc	10 29 1
	jmp	LBB48_5
Ltmp630:
Lfunc_end48:
	.cfi_endproc
	.section	__TEXT,__gcc_except_tab
	.p2align	2
GCC_except_table48:
Lexception39:
	.byte	255
	.byte	255
	.byte	1
	.uleb128 Lcst_end39-Lcst_begin39
Lcst_begin39:
	.uleb128 Ltmp611-Lfunc_begin48
	.uleb128 Ltmp614-Ltmp611
	.uleb128 Ltmp615-Lfunc_begin48
	.byte	0
	.uleb128 Ltmp614-Lfunc_begin48
	.uleb128 Lfunc_end48-Ltmp614
	.byte	0
	.byte	0
Lcst_end39:
	.p2align	2

	.section	__TEXT,__text,regular,pure_instructions
	.globl	__ZN4objc7message8platform15send_unverified17h8a2c0a105abae8ecE
	.p2align	4, 0x90
__ZN4objc7message8platform15send_unverified17h8a2c0a105abae8ecE:
Lfunc_begin49:
	.loc	10 21 0
	.cfi_startproc
	.cfi_personality 155, _rust_eh_personality
	.cfi_lsda 16, Lexception40
	pushq	%rbp
	.cfi_def_cfa_offset 16
	.cfi_offset %rbp, -16
	movq	%rsp, %rbp
	.cfi_def_cfa_register %rbp
	subq	$144, %rsp
	movq	%r8, -136(%rbp)
	movq	%rcx, -128(%rbp)
	movq	%rsi, -120(%rbp)
	movq	%rdi, -112(%rbp)
	movq	%rdi, -104(%rbp)
	movq	%rdx, -80(%rbp)
	movq	-80(%rbp), %rax
	movq	%rax, -88(%rbp)
	movq	%rsi, -56(%rbp)
	movq	%rcx, -48(%rbp)
	movq	%r8, -40(%rbp)
Ltmp636:
	.loc	10 24 9 prologue_end
	movb	$0, -57(%rbp)
	movb	$1, -57(%rbp)
	.loc	10 24 20 is_stmt 0
	movq	%rsi, -32(%rbp)
Ltmp631:
Ltmp637:
	.loc	10 25 23 is_stmt 1
	callq	__ZN4objc7message8platform4arch11msg_send_fn17h9b8132bcc5b7b9ffE
Ltmp632:
	movq	%rax, -96(%rbp)
	jmp	LBB49_3
Ltmp638:
LBB49_1:
	.loc	10 29 1
	testb	$1, -57(%rbp)
	jne	LBB49_6
	jmp	LBB49_5
LBB49_2:
Ltmp635:
	.loc	10 0 1 is_stmt 0
	movq	%rax, %rcx
	movl	%edx, %eax
	movq	%rcx, -24(%rbp)
	movl	%eax, -16(%rbp)
	jmp	LBB49_1
LBB49_3:
	movq	-136(%rbp), %r8
	movq	-128(%rbp), %rcx
	movq	-120(%rbp), %rsi
	movq	-96(%rbp), %rdi
Ltmp639:
	.loc	10 25 23 is_stmt 1
	movq	%rdi, -8(%rbp)
Ltmp640:
	.loc	10 27 42
	movq	-88(%rbp), %rax
	movq	%rax, -72(%rbp)
	.loc	10 27 47 is_stmt 0
	movb	$0, -57(%rbp)
	.loc	10 27 9
	movq	-72(%rbp), %rdx
Ltmp633:
	callq	__ZN65_$LT$$LP$A$C$B$RP$$u20$as$u20$objc..message..MessageArguments$GT$6invoke17h82707e2f6979f259E
Ltmp634:
	movq	%rax, -144(%rbp)
	jmp	LBB49_4
LBB49_4:
	.loc	10 0 9
	movq	-104(%rbp), %rax
	movq	-112(%rbp), %rcx
	movq	-144(%rbp), %rdx
	.loc	10 26 5 is_stmt 1
	movq	%rdx, (%rcx)
	movq	$0, 8(%rcx)
Ltmp641:
	.loc	10 29 2
	addq	$144, %rsp
	popq	%rbp
	retq
LBB49_5:
	.loc	10 21 1
	movq	-24(%rbp), %rdi
	callq	__Unwind_Resume
LBB49_6:
	.loc	10 29 1
	jmp	LBB49_5
Ltmp642:
Lfunc_end49:
	.cfi_endproc
	.section	__TEXT,__gcc_except_tab
	.p2align	2
GCC_except_table49:
Lexception40:
	.byte	255
	.byte	255
	.byte	1
	.uleb128 Lcst_end40-Lcst_begin40
Lcst_begin40:
	.uleb128 Ltmp631-Lfunc_begin49
	.uleb128 Ltmp634-Ltmp631
	.uleb128 Ltmp635-Lfunc_begin49
	.byte	0
	.uleb128 Ltmp634-Lfunc_begin49
	.uleb128 Lfunc_end49-Ltmp634
	.byte	0
	.byte	0
Lcst_end40:
	.p2align	2

	.section	__TEXT,__text,regular,pure_instructions
	.globl	__ZN4objc7message8platform15send_unverified17h96121b7476f34f31E
	.p2align	4, 0x90
__ZN4objc7message8platform15send_unverified17h96121b7476f34f31E:
Lfunc_begin50:
	.loc	10 21 0
	.cfi_startproc
	.cfi_personality 155, _rust_eh_personality
	.cfi_lsda 16, Lexception41
	pushq	%rbp
	.cfi_def_cfa_offset 16
	.cfi_offset %rbp, -16
	movq	%rsp, %rbp
	.cfi_def_cfa_register %rbp
	subq	$144, %rsp
	movq	%rcx, -136(%rbp)
Ltmp648:
	movq	%rsi, -128(%rbp)
	movq	%rdi, -120(%rbp)
	movq	%rdi, -112(%rbp)
	movq	%rdx, -88(%rbp)
	movq	-88(%rbp), %rax
	movq	%rax, -96(%rbp)
	movq	%rsi, -40(%rbp)
Ltmp649:
	.loc	10 24 9 prologue_end
	movb	$0, -41(%rbp)
	movb	$1, -41(%rbp)
	.loc	10 24 20 is_stmt 0
	movq	%rsi, -32(%rbp)
Ltmp643:
Ltmp650:
	.loc	10 25 23 is_stmt 1
	callq	__ZN4objc7message8platform4arch11msg_send_fn17ha1cf503d7d22b32cE
Ltmp651:
Ltmp644:
	.loc	10 0 23 is_stmt 0
	movq	%rax, -104(%rbp)
Ltmp652:
	.loc	10 25 23
	jmp	LBB50_3
Ltmp653:
LBB50_1:
	.loc	10 29 1 is_stmt 1
	testb	$1, -41(%rbp)
	jne	LBB50_6
	jmp	LBB50_5
Ltmp654:
LBB50_2:
Ltmp647:
	.loc	10 0 1 is_stmt 0
	movq	%rax, %rcx
	movl	%edx, %eax
	movq	%rcx, -24(%rbp)
	movl	%eax, -16(%rbp)
	jmp	LBB50_1
Ltmp655:
LBB50_3:
	movq	-128(%rbp), %rsi
	movq	-104(%rbp), %rdi
	movq	-136(%rbp), %rcx
Ltmp656:
	.loc	10 25 23 is_stmt 1
	movq	%rdi, -8(%rbp)
Ltmp657:
	.loc	10 27 42
	movq	-96(%rbp), %rax
	movq	%rax, -80(%rbp)
	.loc	10 27 47 is_stmt 0
	movb	$0, -41(%rbp)
	movq	16(%rcx), %rax
	movq	%rax, -56(%rbp)
	movq	(%rcx), %rax
	movq	8(%rcx), %rcx
	movq	%rcx, -64(%rbp)
	movq	%rax, -72(%rbp)
	.loc	10 27 9
	movq	-80(%rbp), %rdx
Ltmp645:
	leaq	-72(%rbp), %rcx
	callq	__ZN69_$LT$$LP$A$C$B$C$C$RP$$u20$as$u20$objc..message..MessageArguments$GT$6invoke17h581cb64e7b09849dE
Ltmp646:
	movb	%al, -137(%rbp)
	jmp	LBB50_4
Ltmp658:
LBB50_4:
	.loc	10 0 9
	movq	-112(%rbp), %rax
	movq	-120(%rbp), %rcx
	movb	-137(%rbp), %dl
	.loc	10 26 5 is_stmt 1
	movb	%dl, (%rcx)
	movq	$0, 8(%rcx)
Ltmp659:
	.loc	10 29 2
	addq	$144, %rsp
	popq	%rbp
	retq
Ltmp660:
LBB50_5:
	.loc	10 21 1
	movq	-24(%rbp), %rdi
	callq	__Unwind_Resume
Ltmp661:
LBB50_6:
	.loc	10 29 1
	jmp	LBB50_5
Ltmp662:
Lfunc_end50:
	.cfi_endproc
	.section	__TEXT,__gcc_except_tab
	.p2align	2
GCC_except_table50:
Lexception41:
	.byte	255
	.byte	255
	.byte	1
	.uleb128 Lcst_end41-Lcst_begin41
Lcst_begin41:
	.uleb128 Ltmp643-Lfunc_begin50
	.uleb128 Ltmp646-Ltmp643
	.uleb128 Ltmp647-Lfunc_begin50
	.byte	0
	.uleb128 Ltmp646-Lfunc_begin50
	.uleb128 Lfunc_end50-Ltmp646
	.byte	0
	.byte	0
Lcst_end41:
	.p2align	2

	.section	__TEXT,__text,regular,pure_instructions
	.globl	__ZN4objc7message8platform15send_unverified17ha0ba2a3ac200baf9E
	.p2align	4, 0x90
__ZN4objc7message8platform15send_unverified17ha0ba2a3ac200baf9E:
Lfunc_begin51:
	.loc	10 21 0
	.cfi_startproc
	.cfi_personality 155, _rust_eh_personality
	.cfi_lsda 16, Lexception42
	pushq	%rbp
	.cfi_def_cfa_offset 16
	.cfi_offset %rbp, -16
	movq	%rsp, %rbp
	.cfi_def_cfa_register %rbp
	subq	$144, %rsp
	movq	%rcx, -136(%rbp)
	movq	%rsi, -128(%rbp)
	movq	%rdi, -120(%rbp)
	movb	%r8b, %al
	movb	%al, -105(%rbp)
	movq	%rdi, -104(%rbp)
	movq	%rdx, -80(%rbp)
	movq	-80(%rbp), %rdx
	movq	%rdx, -88(%rbp)
	movq	%rsi, -56(%rbp)
	movq	%rcx, -48(%rbp)
	movb	%al, -40(%rbp)
Ltmp668:
	.loc	10 24 9 prologue_end
	movb	$0, -57(%rbp)
	movb	$1, -57(%rbp)
	.loc	10 24 20 is_stmt 0
	movq	%rsi, -32(%rbp)
Ltmp663:
Ltmp669:
	.loc	10 25 23 is_stmt 1
	callq	__ZN4objc7message8platform4arch11msg_send_fn17h9b8132bcc5b7b9ffE
Ltmp664:
	movq	%rax, -96(%rbp)
	jmp	LBB51_3
Ltmp670:
LBB51_1:
	.loc	10 29 1
	testb	$1, -57(%rbp)
	jne	LBB51_6
	jmp	LBB51_5
LBB51_2:
Ltmp667:
	.loc	10 0 1 is_stmt 0
	movq	%rax, %rcx
	movl	%edx, %eax
	movq	%rcx, -24(%rbp)
	movl	%eax, -16(%rbp)
	jmp	LBB51_1
LBB51_3:
	movq	-136(%rbp), %rcx
	movq	-128(%rbp), %rsi
	movq	-96(%rbp), %rdi
	movb	-105(%rbp), %al
Ltmp671:
	.loc	10 25 23 is_stmt 1
	movq	%rdi, -8(%rbp)
Ltmp672:
	.loc	10 27 42
	movq	-88(%rbp), %rdx
	movq	%rdx, -72(%rbp)
	.loc	10 27 47 is_stmt 0
	movb	$0, -57(%rbp)
	.loc	10 27 9
	movq	-72(%rbp), %rdx
Ltmp665:
	movzbl	%al, %r8d
	callq	__ZN65_$LT$$LP$A$C$B$RP$$u20$as$u20$objc..message..MessageArguments$GT$6invoke17h9e75655297f0ffdfE
Ltmp666:
	movq	%rax, -144(%rbp)
	jmp	LBB51_4
LBB51_4:
	.loc	10 0 9
	movq	-104(%rbp), %rax
	movq	-120(%rbp), %rcx
	movq	-144(%rbp), %rdx
	.loc	10 26 5 is_stmt 1
	movq	%rdx, (%rcx)
	movq	$0, 8(%rcx)
Ltmp673:
	.loc	10 29 2
	addq	$144, %rsp
	popq	%rbp
	retq
LBB51_5:
	.loc	10 21 1
	movq	-24(%rbp), %rdi
	callq	__Unwind_Resume
LBB51_6:
	.loc	10 29 1
	jmp	LBB51_5
Ltmp674:
Lfunc_end51:
	.cfi_endproc
	.section	__TEXT,__gcc_except_tab
	.p2align	2
GCC_except_table51:
Lexception42:
	.byte	255
	.byte	255
	.byte	1
	.uleb128 Lcst_end42-Lcst_begin42
Lcst_begin42:
	.uleb128 Ltmp663-Lfunc_begin51
	.uleb128 Ltmp666-Ltmp663
	.uleb128 Ltmp667-Lfunc_begin51
	.byte	0
	.uleb128 Ltmp666-Lfunc_begin51
	.uleb128 Lfunc_end51-Ltmp666
	.byte	0
	.byte	0
Lcst_end42:
	.p2align	2

	.section	__TEXT,__text,regular,pure_instructions
	.globl	__ZN4objc7message8platform15send_unverified17ha12f5c8b9a4dd04fE
	.p2align	4, 0x90
__ZN4objc7message8platform15send_unverified17ha12f5c8b9a4dd04fE:
Lfunc_begin52:
	.loc	10 21 0
	.cfi_startproc
	.cfi_personality 155, _rust_eh_personality
	.cfi_lsda 16, Lexception43
	pushq	%rbp
	.cfi_def_cfa_offset 16
	.cfi_offset %rbp, -16
	movq	%rsp, %rbp
	.cfi_def_cfa_register %rbp
	subq	$128, %rsp
	movq	%rsi, -112(%rbp)
	movq	%rdi, -104(%rbp)
	movq	%rdi, -96(%rbp)
	movq	%rdx, -72(%rbp)
	movq	-72(%rbp), %rax
	movq	%rax, -80(%rbp)
	movq	%rsi, -48(%rbp)
Ltmp680:
	.loc	10 24 9 prologue_end
	movb	$0, -49(%rbp)
	movb	$1, -49(%rbp)
	.loc	10 24 20 is_stmt 0
	movq	%rsi, -32(%rbp)
Ltmp675:
Ltmp681:
	.loc	10 25 23 is_stmt 1
	callq	__ZN4objc7message8platform4arch11msg_send_fn17hfa20040a65532df1E
Ltmp676:
	movq	%rax, -88(%rbp)
	jmp	LBB52_3
Ltmp682:
LBB52_1:
	.loc	10 29 1
	testb	$1, -49(%rbp)
	jne	LBB52_6
	jmp	LBB52_5
LBB52_2:
Ltmp679:
	.loc	10 0 1 is_stmt 0
	movq	%rax, %rcx
	movl	%edx, %eax
	movq	%rcx, -24(%rbp)
	movl	%eax, -16(%rbp)
	jmp	LBB52_1
LBB52_3:
	movq	-112(%rbp), %rsi
	movq	-88(%rbp), %rdi
Ltmp683:
	.loc	10 25 23 is_stmt 1
	movq	%rdi, -8(%rbp)
Ltmp684:
	.loc	10 27 42
	movq	-80(%rbp), %rax
	movq	%rax, -64(%rbp)
	.loc	10 27 47 is_stmt 0
	movb	$0, -49(%rbp)
	.loc	10 27 9
	movq	-64(%rbp), %rdx
Ltmp677:
	callq	__ZN60_$LT$$LP$$RP$$u20$as$u20$objc..message..MessageArguments$GT$6invoke17h100a8dd477231297E
Ltmp678:
	movq	%rax, -120(%rbp)
	jmp	LBB52_4
LBB52_4:
	.loc	10 0 9
	movq	-96(%rbp), %rax
	movq	-104(%rbp), %rcx
	movq	-120(%rbp), %rdx
	.loc	10 26 5 is_stmt 1
	movq	%rdx, (%rcx)
	movq	$0, 8(%rcx)
Ltmp685:
	.loc	10 29 2
	addq	$128, %rsp
	popq	%rbp
	retq
LBB52_5:
	.loc	10 21 1
	movq	-24(%rbp), %rdi
	callq	__Unwind_Resume
LBB52_6:
	.loc	10 29 1
	jmp	LBB52_5
Ltmp686:
Lfunc_end52:
	.cfi_endproc
	.section	__TEXT,__gcc_except_tab
	.p2align	2
GCC_except_table52:
Lexception43:
	.byte	255
	.byte	255
	.byte	1
	.uleb128 Lcst_end43-Lcst_begin43
Lcst_begin43:
	.uleb128 Ltmp675-Lfunc_begin52
	.uleb128 Ltmp678-Ltmp675
	.uleb128 Ltmp679-Lfunc_begin52
	.byte	0
	.uleb128 Ltmp678-Lfunc_begin52
	.uleb128 Lfunc_end52-Ltmp678
	.byte	0
	.byte	0
Lcst_end43:
	.p2align	2

	.section	__TEXT,__text,regular,pure_instructions
	.globl	__ZN4objc7message8platform15send_unverified17ha399b01c1b1f0560E
	.p2align	4, 0x90
__ZN4objc7message8platform15send_unverified17ha399b01c1b1f0560E:
Lfunc_begin53:
	.loc	10 21 0
	.cfi_startproc
	.cfi_personality 155, _rust_eh_personality
	.cfi_lsda 16, Lexception44
	pushq	%rbp
	.cfi_def_cfa_offset 16
	.cfi_offset %rbp, -16
	movq	%rsp, %rbp
	.cfi_def_cfa_register %rbp
	subq	$144, %rsp
	movq	%r8, -136(%rbp)
	movq	%rcx, -128(%rbp)
	movq	%rsi, -120(%rbp)
	movq	%rdi, -112(%rbp)
	movq	%rdi, -104(%rbp)
	movq	%rdx, -80(%rbp)
	movq	-80(%rbp), %rax
	movq	%rax, -88(%rbp)
	movq	%rsi, -56(%rbp)
	movq	%rcx, -48(%rbp)
	movq	%r8, -40(%rbp)
Ltmp692:
	.loc	10 24 9 prologue_end
	movb	$0, -57(%rbp)
	movb	$1, -57(%rbp)
	.loc	10 24 20 is_stmt 0
	movq	%rsi, -32(%rbp)
Ltmp687:
Ltmp693:
	.loc	10 25 23 is_stmt 1
	callq	__ZN4objc7message8platform4arch11msg_send_fn17h9b8132bcc5b7b9ffE
Ltmp688:
	movq	%rax, -96(%rbp)
	jmp	LBB53_3
Ltmp694:
LBB53_1:
	.loc	10 29 1
	testb	$1, -57(%rbp)
	jne	LBB53_6
	jmp	LBB53_5
LBB53_2:
Ltmp691:
	.loc	10 0 1 is_stmt 0
	movq	%rax, %rcx
	movl	%edx, %eax
	movq	%rcx, -24(%rbp)
	movl	%eax, -16(%rbp)
	jmp	LBB53_1
LBB53_3:
	movq	-136(%rbp), %r8
	movq	-128(%rbp), %rcx
	movq	-120(%rbp), %rsi
	movq	-96(%rbp), %rdi
Ltmp695:
	.loc	10 25 23 is_stmt 1
	movq	%rdi, -8(%rbp)
Ltmp696:
	.loc	10 27 42
	movq	-88(%rbp), %rax
	movq	%rax, -72(%rbp)
	.loc	10 27 47 is_stmt 0
	movb	$0, -57(%rbp)
	.loc	10 27 9
	movq	-72(%rbp), %rdx
Ltmp689:
	callq	__ZN65_$LT$$LP$A$C$B$RP$$u20$as$u20$objc..message..MessageArguments$GT$6invoke17h48d68306ccc6f8a0E
Ltmp690:
	movq	%rax, -144(%rbp)
	jmp	LBB53_4
LBB53_4:
	.loc	10 0 9
	movq	-104(%rbp), %rax
	movq	-112(%rbp), %rcx
	movq	-144(%rbp), %rdx
	.loc	10 26 5 is_stmt 1
	movq	%rdx, (%rcx)
	movq	$0, 8(%rcx)
Ltmp697:
	.loc	10 29 2
	addq	$144, %rsp
	popq	%rbp
	retq
LBB53_5:
	.loc	10 21 1
	movq	-24(%rbp), %rdi
	callq	__Unwind_Resume
LBB53_6:
	.loc	10 29 1
	jmp	LBB53_5
Ltmp698:
Lfunc_end53:
	.cfi_endproc
	.section	__TEXT,__gcc_except_tab
	.p2align	2
GCC_except_table53:
Lexception44:
	.byte	255
	.byte	255
	.byte	1
	.uleb128 Lcst_end44-Lcst_begin44
Lcst_begin44:
	.uleb128 Ltmp687-Lfunc_begin53
	.uleb128 Ltmp690-Ltmp687
	.uleb128 Ltmp691-Lfunc_begin53
	.byte	0
	.uleb128 Ltmp690-Lfunc_begin53
	.uleb128 Lfunc_end53-Ltmp690
	.byte	0
	.byte	0
Lcst_end44:
	.p2align	2

	.section	__TEXT,__text,regular,pure_instructions
	.globl	__ZN4objc7message8platform15send_unverified17ha996c684905cd1a4E
	.p2align	4, 0x90
__ZN4objc7message8platform15send_unverified17ha996c684905cd1a4E:
Lfunc_begin54:
	.loc	10 21 0
	.cfi_startproc
	.cfi_personality 155, _rust_eh_personality
	.cfi_lsda 16, Lexception45
	pushq	%rbp
	.cfi_def_cfa_offset 16
	.cfi_offset %rbp, -16
	movq	%rsp, %rbp
	.cfi_def_cfa_register %rbp
	subq	$144, %rsp
	movq	%r8, -136(%rbp)
	movq	%rcx, -128(%rbp)
	movq	%rsi, -120(%rbp)
	movq	%rdi, -112(%rbp)
	movq	%rdi, -104(%rbp)
	movq	%rdx, -80(%rbp)
	movq	-80(%rbp), %rax
	movq	%rax, -88(%rbp)
	movq	%rsi, -56(%rbp)
	movq	%rcx, -48(%rbp)
	movq	%r8, -40(%rbp)
Ltmp704:
	.loc	10 24 9 prologue_end
	movb	$0, -57(%rbp)
	movb	$1, -57(%rbp)
	.loc	10 24 20 is_stmt 0
	movq	%rsi, -32(%rbp)
Ltmp699:
Ltmp705:
	.loc	10 25 23 is_stmt 1
	callq	__ZN4objc7message8platform4arch11msg_send_fn17h9b8132bcc5b7b9ffE
Ltmp700:
	movq	%rax, -96(%rbp)
	jmp	LBB54_3
Ltmp706:
LBB54_1:
	.loc	10 29 1
	testb	$1, -57(%rbp)
	jne	LBB54_6
	jmp	LBB54_5
LBB54_2:
Ltmp703:
	.loc	10 0 1 is_stmt 0
	movq	%rax, %rcx
	movl	%edx, %eax
	movq	%rcx, -24(%rbp)
	movl	%eax, -16(%rbp)
	jmp	LBB54_1
LBB54_3:
	movq	-136(%rbp), %r8
	movq	-128(%rbp), %rcx
	movq	-120(%rbp), %rsi
	movq	-96(%rbp), %rdi
Ltmp707:
	.loc	10 25 23 is_stmt 1
	movq	%rdi, -8(%rbp)
Ltmp708:
	.loc	10 27 42
	movq	-88(%rbp), %rax
	movq	%rax, -72(%rbp)
	.loc	10 27 47 is_stmt 0
	movb	$0, -57(%rbp)
	.loc	10 27 9
	movq	-72(%rbp), %rdx
Ltmp701:
	callq	__ZN65_$LT$$LP$A$C$B$RP$$u20$as$u20$objc..message..MessageArguments$GT$6invoke17hb2e33d03af70e80fE
Ltmp702:
	movq	%rax, -144(%rbp)
	jmp	LBB54_4
LBB54_4:
	.loc	10 0 9
	movq	-104(%rbp), %rax
	movq	-112(%rbp), %rcx
	movq	-144(%rbp), %rdx
	.loc	10 26 5 is_stmt 1
	movq	%rdx, (%rcx)
	movq	$0, 8(%rcx)
Ltmp709:
	.loc	10 29 2
	addq	$144, %rsp
	popq	%rbp
	retq
LBB54_5:
	.loc	10 21 1
	movq	-24(%rbp), %rdi
	callq	__Unwind_Resume
LBB54_6:
	.loc	10 29 1
	jmp	LBB54_5
Ltmp710:
Lfunc_end54:
	.cfi_endproc
	.section	__TEXT,__gcc_except_tab
	.p2align	2
GCC_except_table54:
Lexception45:
	.byte	255
	.byte	255
	.byte	1
	.uleb128 Lcst_end45-Lcst_begin45
Lcst_begin45:
	.uleb128 Ltmp699-Lfunc_begin54
	.uleb128 Ltmp702-Ltmp699
	.uleb128 Ltmp703-Lfunc_begin54
	.byte	0
	.uleb128 Ltmp702-Lfunc_begin54
	.uleb128 Lfunc_end54-Ltmp702
	.byte	0
	.byte	0
Lcst_end45:
	.p2align	2

	.section	__TEXT,__text,regular,pure_instructions
	.globl	__ZN4objc7message8platform15send_unverified17hc28cc6cd56f78421E
	.p2align	4, 0x90
__ZN4objc7message8platform15send_unverified17hc28cc6cd56f78421E:
Lfunc_begin55:
	.loc	10 21 0
	.cfi_startproc
	.cfi_personality 155, _rust_eh_personality
	.cfi_lsda 16, Lexception46
	pushq	%rbp
	.cfi_def_cfa_offset 16
	.cfi_offset %rbp, -16
	movq	%rsp, %rbp
	.cfi_def_cfa_register %rbp
	subq	$128, %rsp
	movq	%rsi, -112(%rbp)
	movq	%rdi, -104(%rbp)
	movq	%rdi, -96(%rbp)
	movq	%rdx, -72(%rbp)
	movq	-72(%rbp), %rax
	movq	%rax, -80(%rbp)
	movq	%rsi, -48(%rbp)
Ltmp716:
	.loc	10 24 9 prologue_end
	movb	$0, -49(%rbp)
	movb	$1, -49(%rbp)
	.loc	10 24 20 is_stmt 0
	movq	%rsi, -32(%rbp)
Ltmp711:
Ltmp717:
	.loc	10 25 23 is_stmt 1
	callq	__ZN4objc7message8platform4arch11msg_send_fn17ha1cf503d7d22b32cE
Ltmp712:
	movq	%rax, -88(%rbp)
	jmp	LBB55_3
Ltmp718:
LBB55_1:
	.loc	10 29 1
	testb	$1, -49(%rbp)
	jne	LBB55_6
	jmp	LBB55_5
LBB55_2:
Ltmp715:
	.loc	10 0 1 is_stmt 0
	movq	%rax, %rcx
	movl	%edx, %eax
	movq	%rcx, -24(%rbp)
	movl	%eax, -16(%rbp)
	jmp	LBB55_1
LBB55_3:
	movq	-112(%rbp), %rsi
	movq	-88(%rbp), %rdi
Ltmp719:
	.loc	10 25 23 is_stmt 1
	movq	%rdi, -8(%rbp)
Ltmp720:
	.loc	10 27 42
	movq	-80(%rbp), %rax
	movq	%rax, -64(%rbp)
	.loc	10 27 47 is_stmt 0
	movb	$0, -49(%rbp)
	.loc	10 27 9
	movq	-64(%rbp), %rdx
Ltmp713:
	callq	__ZN60_$LT$$LP$$RP$$u20$as$u20$objc..message..MessageArguments$GT$6invoke17hd9485861fc849f59E
Ltmp714:
	movb	%al, -113(%rbp)
	jmp	LBB55_4
LBB55_4:
	.loc	10 0 9
	movq	-96(%rbp), %rax
	movq	-104(%rbp), %rcx
	movb	-113(%rbp), %dl
	.loc	10 26 5 is_stmt 1
	movb	%dl, (%rcx)
	movq	$0, 8(%rcx)
Ltmp721:
	.loc	10 29 2
	addq	$128, %rsp
	popq	%rbp
	retq
LBB55_5:
	.loc	10 21 1
	movq	-24(%rbp), %rdi
	callq	__Unwind_Resume
LBB55_6:
	.loc	10 29 1
	jmp	LBB55_5
Ltmp722:
Lfunc_end55:
	.cfi_endproc
	.section	__TEXT,__gcc_except_tab
	.p2align	2
GCC_except_table55:
Lexception46:
	.byte	255
	.byte	255
	.byte	1
	.uleb128 Lcst_end46-Lcst_begin46
Lcst_begin46:
	.uleb128 Ltmp711-Lfunc_begin55
	.uleb128 Ltmp714-Ltmp711
	.uleb128 Ltmp715-Lfunc_begin55
	.byte	0
	.uleb128 Ltmp714-Lfunc_begin55
	.uleb128 Lfunc_end55-Ltmp714
	.byte	0
	.byte	0
Lcst_end46:
	.p2align	2

	.section	__TEXT,__text,regular,pure_instructions
	.globl	__ZN4objc7message8platform15send_unverified17hca32cfef3621b20fE
	.p2align	4, 0x90
__ZN4objc7message8platform15send_unverified17hca32cfef3621b20fE:
Lfunc_begin56:
	.loc	10 21 0
	.cfi_startproc
	.cfi_personality 155, _rust_eh_personality
	.cfi_lsda 16, Lexception47
	pushq	%rbp
	.cfi_def_cfa_offset 16
	.cfi_offset %rbp, -16
	movq	%rsp, %rbp
	.cfi_def_cfa_register %rbp
	subq	$144, %rsp
	movq	%rcx, -136(%rbp)
	movq	%rsi, -128(%rbp)
	movq	%rdi, -120(%rbp)
	movb	%r8b, %al
	movb	%al, -105(%rbp)
	movq	%rdi, -104(%rbp)
	movq	%rdx, -80(%rbp)
	movq	-80(%rbp), %rdx
	movq	%rdx, -88(%rbp)
	movq	%rsi, -56(%rbp)
	movq	%rcx, -48(%rbp)
	movb	%al, -40(%rbp)
Ltmp728:
	.loc	10 24 9 prologue_end
	movb	$0, -57(%rbp)
	movb	$1, -57(%rbp)
	.loc	10 24 20 is_stmt 0
	movq	%rsi, -32(%rbp)
Ltmp723:
Ltmp729:
	.loc	10 25 23 is_stmt 1
	callq	__ZN4objc7message8platform4arch11msg_send_fn17ha1cf503d7d22b32cE
Ltmp724:
	movq	%rax, -96(%rbp)
	jmp	LBB56_3
Ltmp730:
LBB56_1:
	.loc	10 29 1
	testb	$1, -57(%rbp)
	jne	LBB56_6
	jmp	LBB56_5
LBB56_2:
Ltmp727:
	.loc	10 0 1 is_stmt 0
	movq	%rax, %rcx
	movl	%edx, %eax
	movq	%rcx, -24(%rbp)
	movl	%eax, -16(%rbp)
	jmp	LBB56_1
LBB56_3:
	movq	-136(%rbp), %rcx
	movq	-128(%rbp), %rsi
	movq	-96(%rbp), %rdi
	movb	-105(%rbp), %al
Ltmp731:
	.loc	10 25 23 is_stmt 1
	movq	%rdi, -8(%rbp)
Ltmp732:
	.loc	10 27 42
	movq	-88(%rbp), %rdx
	movq	%rdx, -72(%rbp)
	.loc	10 27 47 is_stmt 0
	movb	$0, -57(%rbp)
	.loc	10 27 9
	movq	-72(%rbp), %rdx
Ltmp725:
	movzbl	%al, %r8d
	callq	__ZN65_$LT$$LP$A$C$B$RP$$u20$as$u20$objc..message..MessageArguments$GT$6invoke17hcf03c98f1a263c00E
Ltmp726:
	movb	%al, -137(%rbp)
	jmp	LBB56_4
LBB56_4:
	.loc	10 0 9
	movq	-104(%rbp), %rax
	movq	-120(%rbp), %rcx
	movb	-137(%rbp), %dl
	.loc	10 26 5 is_stmt 1
	movb	%dl, (%rcx)
	movq	$0, 8(%rcx)
Ltmp733:
	.loc	10 29 2
	addq	$144, %rsp
	popq	%rbp
	retq
LBB56_5:
	.loc	10 21 1
	movq	-24(%rbp), %rdi
	callq	__Unwind_Resume
LBB56_6:
	.loc	10 29 1
	jmp	LBB56_5
Ltmp734:
Lfunc_end56:
	.cfi_endproc
	.section	__TEXT,__gcc_except_tab
	.p2align	2
GCC_except_table56:
Lexception47:
	.byte	255
	.byte	255
	.byte	1
	.uleb128 Lcst_end47-Lcst_begin47
Lcst_begin47:
	.uleb128 Ltmp723-Lfunc_begin56
	.uleb128 Ltmp726-Ltmp723
	.uleb128 Ltmp727-Lfunc_begin56
	.byte	0
	.uleb128 Ltmp726-Lfunc_begin56
	.uleb128 Lfunc_end56-Ltmp726
	.byte	0
	.byte	0
Lcst_end47:
	.p2align	2

	.section	__TEXT,__text,regular,pure_instructions
	.globl	__ZN4objc7message8platform15send_unverified17hcd65da07b1f7f862E
	.p2align	4, 0x90
__ZN4objc7message8platform15send_unverified17hcd65da07b1f7f862E:
Lfunc_begin57:
	.loc	10 21 0
	.cfi_startproc
	.cfi_personality 155, _rust_eh_personality
	.cfi_lsda 16, Lexception48
	pushq	%rbp
	.cfi_def_cfa_offset 16
	.cfi_offset %rbp, -16
	movq	%rsp, %rbp
	.cfi_def_cfa_register %rbp
	subq	$128, %rsp
	movq	%rcx, -120(%rbp)
	movq	%rsi, -112(%rbp)
	movq	%rdi, -104(%rbp)
	movq	%rdi, -96(%rbp)
	movq	%rdx, -72(%rbp)
	movq	-72(%rbp), %rax
	movq	%rax, -80(%rbp)
	movq	%rsi, -48(%rbp)
	movq	%rcx, -40(%rbp)
Ltmp740:
	.loc	10 24 9 prologue_end
	movb	$0, -49(%rbp)
	movb	$1, -49(%rbp)
	.loc	10 24 20 is_stmt 0
	movq	%rsi, -32(%rbp)
Ltmp735:
Ltmp741:
	.loc	10 25 23 is_stmt 1
	callq	__ZN4objc7message8platform4arch11msg_send_fn17ha1cf503d7d22b32cE
Ltmp736:
	movq	%rax, -88(%rbp)
	jmp	LBB57_3
Ltmp742:
LBB57_1:
	.loc	10 29 1
	testb	$1, -49(%rbp)
	jne	LBB57_6
	jmp	LBB57_5
LBB57_2:
Ltmp739:
	.loc	10 0 1 is_stmt 0
	movq	%rax, %rcx
	movl	%edx, %eax
	movq	%rcx, -24(%rbp)
	movl	%eax, -16(%rbp)
	jmp	LBB57_1
LBB57_3:
	movq	-120(%rbp), %rcx
	movq	-112(%rbp), %rsi
	movq	-88(%rbp), %rdi
Ltmp743:
	.loc	10 25 23 is_stmt 1
	movq	%rdi, -8(%rbp)
Ltmp744:
	.loc	10 27 42
	movq	-80(%rbp), %rax
	movq	%rax, -64(%rbp)
	.loc	10 27 47 is_stmt 0
	movb	$0, -49(%rbp)
	.loc	10 27 9
	movq	-64(%rbp), %rdx
Ltmp737:
	callq	__ZN64_$LT$$LP$A$C$$RP$$u20$as$u20$objc..message..MessageArguments$GT$6invoke17hd370a7e30297c86eE
Ltmp738:
	movb	%al, -121(%rbp)
	jmp	LBB57_4
LBB57_4:
	.loc	10 0 9
	movq	-96(%rbp), %rax
	movq	-104(%rbp), %rcx
	movb	-121(%rbp), %dl
	.loc	10 26 5 is_stmt 1
	movb	%dl, (%rcx)
	movq	$0, 8(%rcx)
Ltmp745:
	.loc	10 29 2
	addq	$128, %rsp
	popq	%rbp
	retq
LBB57_5:
	.loc	10 21 1
	movq	-24(%rbp), %rdi
	callq	__Unwind_Resume
LBB57_6:
	.loc	10 29 1
	jmp	LBB57_5
Ltmp746:
Lfunc_end57:
	.cfi_endproc
	.section	__TEXT,__gcc_except_tab
	.p2align	2
GCC_except_table57:
Lexception48:
	.byte	255
	.byte	255
	.byte	1
	.uleb128 Lcst_end48-Lcst_begin48
Lcst_begin48:
	.uleb128 Ltmp735-Lfunc_begin57
	.uleb128 Ltmp738-Ltmp735
	.uleb128 Ltmp739-Lfunc_begin57
	.byte	0
	.uleb128 Ltmp738-Lfunc_begin57
	.uleb128 Lfunc_end57-Ltmp738
	.byte	0
	.byte	0
Lcst_end48:
	.p2align	2

	.section	__TEXT,__text,regular,pure_instructions
	.globl	__ZN4objc7message8platform15send_unverified17hcdf728796d933751E
	.p2align	4, 0x90
__ZN4objc7message8platform15send_unverified17hcdf728796d933751E:
Lfunc_begin58:
	.loc	10 21 0
	.cfi_startproc
	.cfi_personality 155, _rust_eh_personality
	.cfi_lsda 16, Lexception49
	pushq	%rbp
	.cfi_def_cfa_offset 16
	.cfi_offset %rbp, -16
	movq	%rsp, %rbp
	.cfi_def_cfa_register %rbp
	subq	$128, %rsp
	movq	%rcx, -120(%rbp)
	movq	%rsi, -112(%rbp)
	movq	%rdi, -104(%rbp)
	movq	%rdi, -96(%rbp)
	movq	%rdx, -72(%rbp)
	movq	-72(%rbp), %rax
	movq	%rax, -80(%rbp)
	movq	%rsi, -48(%rbp)
	movq	%rcx, -40(%rbp)
Ltmp752:
	.loc	10 24 9 prologue_end
	movb	$0, -49(%rbp)
	movb	$1, -49(%rbp)
	.loc	10 24 20 is_stmt 0
	movq	%rsi, -32(%rbp)
Ltmp747:
Ltmp753:
	.loc	10 25 23 is_stmt 1
	callq	__ZN4objc7message8platform4arch11msg_send_fn17hcf748dde2ad075dcE
Ltmp748:
	movq	%rax, -88(%rbp)
	jmp	LBB58_3
Ltmp754:
LBB58_1:
	.loc	10 29 1
	testb	$1, -49(%rbp)
	jne	LBB58_6
	jmp	LBB58_5
LBB58_2:
Ltmp751:
	.loc	10 0 1 is_stmt 0
	movq	%rax, %rcx
	movl	%edx, %eax
	movq	%rcx, -24(%rbp)
	movl	%eax, -16(%rbp)
	jmp	LBB58_1
LBB58_3:
	movq	-120(%rbp), %rcx
	movq	-112(%rbp), %rsi
	movq	-88(%rbp), %rdi
Ltmp755:
	.loc	10 25 23 is_stmt 1
	movq	%rdi, -8(%rbp)
Ltmp756:
	.loc	10 27 42
	movq	-80(%rbp), %rax
	movq	%rax, -64(%rbp)
	.loc	10 27 47 is_stmt 0
	movb	$0, -49(%rbp)
	.loc	10 27 9
	movq	-64(%rbp), %rdx
Ltmp749:
	callq	__ZN64_$LT$$LP$A$C$$RP$$u20$as$u20$objc..message..MessageArguments$GT$6invoke17h805f74a0e2b89c94E
Ltmp750:
	movq	%rax, -128(%rbp)
	jmp	LBB58_4
LBB58_4:
	.loc	10 0 9
	movq	-96(%rbp), %rax
	movq	-104(%rbp), %rcx
	movq	-128(%rbp), %rdx
	.loc	10 26 5 is_stmt 1
	movq	%rdx, (%rcx)
	movq	$0, 8(%rcx)
Ltmp757:
	.loc	10 29 2
	addq	$128, %rsp
	popq	%rbp
	retq
LBB58_5:
	.loc	10 21 1
	movq	-24(%rbp), %rdi
	callq	__Unwind_Resume
LBB58_6:
	.loc	10 29 1
	jmp	LBB58_5
Ltmp758:
Lfunc_end58:
	.cfi_endproc
	.section	__TEXT,__gcc_except_tab
	.p2align	2
GCC_except_table58:
Lexception49:
	.byte	255
	.byte	255
	.byte	1
	.uleb128 Lcst_end49-Lcst_begin49
Lcst_begin49:
	.uleb128 Ltmp747-Lfunc_begin58
	.uleb128 Ltmp750-Ltmp747
	.uleb128 Ltmp751-Lfunc_begin58
	.byte	0
	.uleb128 Ltmp750-Lfunc_begin58
	.uleb128 Lfunc_end58-Ltmp750
	.byte	0
	.byte	0
Lcst_end49:
	.p2align	2

	.section	__TEXT,__text,regular,pure_instructions
	.globl	__ZN4objc7message8platform15send_unverified17hd8e7e00963c9f5f8E
	.p2align	4, 0x90
__ZN4objc7message8platform15send_unverified17hd8e7e00963c9f5f8E:
Lfunc_begin59:
	.loc	10 21 0
	.cfi_startproc
	.cfi_personality 155, _rust_eh_personality
	.cfi_lsda 16, Lexception50
	pushq	%rbp
	.cfi_def_cfa_offset 16
	.cfi_offset %rbp, -16
	movq	%rsp, %rbp
	.cfi_def_cfa_register %rbp
	subq	$128, %rsp
	movq	%rsi, -112(%rbp)
	movq	%rdi, -104(%rbp)
	movq	%rdi, -96(%rbp)
	movq	%rdx, -72(%rbp)
	movq	-72(%rbp), %rax
	movq	%rax, -80(%rbp)
	movq	%rsi, -48(%rbp)
Ltmp764:
	.loc	10 24 9 prologue_end
	movb	$0, -49(%rbp)
	movb	$1, -49(%rbp)
	.loc	10 24 20 is_stmt 0
	movq	%rsi, -32(%rbp)
Ltmp759:
Ltmp765:
	.loc	10 25 23 is_stmt 1
	callq	__ZN4objc7message8platform4arch11msg_send_fn17ha532af17d13192deE
Ltmp760:
	movq	%rax, -88(%rbp)
	jmp	LBB59_3
Ltmp766:
LBB59_1:
	.loc	10 29 1
	testb	$1, -49(%rbp)
	jne	LBB59_6
	jmp	LBB59_5
LBB59_2:
Ltmp763:
	.loc	10 0 1 is_stmt 0
	movq	%rax, %rcx
	movl	%edx, %eax
	movq	%rcx, -24(%rbp)
	movl	%eax, -16(%rbp)
	jmp	LBB59_1
LBB59_3:
	movq	-112(%rbp), %rsi
	movq	-88(%rbp), %rdi
Ltmp767:
	.loc	10 25 23 is_stmt 1
	movq	%rdi, -8(%rbp)
Ltmp768:
	.loc	10 27 42
	movq	-80(%rbp), %rax
	movq	%rax, -64(%rbp)
	.loc	10 27 47 is_stmt 0
	movb	$0, -49(%rbp)
	.loc	10 27 9
	movq	-64(%rbp), %rdx
Ltmp761:
	callq	__ZN60_$LT$$LP$$RP$$u20$as$u20$objc..message..MessageArguments$GT$6invoke17h47384ab25eac492eE
Ltmp762:
	movq	%rax, -120(%rbp)
	jmp	LBB59_4
LBB59_4:
	.loc	10 0 9
	movq	-96(%rbp), %rax
	movq	-104(%rbp), %rcx
	movq	-120(%rbp), %rdx
	.loc	10 26 5 is_stmt 1
	movq	%rdx, (%rcx)
	movq	$0, 8(%rcx)
Ltmp769:
	.loc	10 29 2
	addq	$128, %rsp
	popq	%rbp
	retq
LBB59_5:
	.loc	10 21 1
	movq	-24(%rbp), %rdi
	callq	__Unwind_Resume
LBB59_6:
	.loc	10 29 1
	jmp	LBB59_5
Ltmp770:
Lfunc_end59:
	.cfi_endproc
	.section	__TEXT,__gcc_except_tab
	.p2align	2
GCC_except_table59:
Lexception50:
	.byte	255
	.byte	255
	.byte	1
	.uleb128 Lcst_end50-Lcst_begin50
Lcst_begin50:
	.uleb128 Ltmp759-Lfunc_begin59
	.uleb128 Ltmp762-Ltmp759
	.uleb128 Ltmp763-Lfunc_begin59
	.byte	0
	.uleb128 Ltmp762-Lfunc_begin59
	.uleb128 Lfunc_end59-Ltmp762
	.byte	0
	.byte	0
Lcst_end50:
	.p2align	2

	.section	__TEXT,__text,regular,pure_instructions
	.globl	__ZN4objc7message8platform15send_unverified17he96e393d05a93863E
	.p2align	4, 0x90
__ZN4objc7message8platform15send_unverified17he96e393d05a93863E:
Lfunc_begin60:
	.loc	10 21 0
	.cfi_startproc
	.cfi_personality 155, _rust_eh_personality
	.cfi_lsda 16, Lexception51
	pushq	%rbp
	.cfi_def_cfa_offset 16
	.cfi_offset %rbp, -16
	movq	%rsp, %rbp
	.cfi_def_cfa_register %rbp
	subq	$144, %rsp
	movq	%r8, -136(%rbp)
	movq	%rcx, -128(%rbp)
	movq	%rsi, -120(%rbp)
	movq	%rdi, -112(%rbp)
	movq	%rdi, -104(%rbp)
	movq	%rdx, -80(%rbp)
	movq	-80(%rbp), %rax
	movq	%rax, -88(%rbp)
	movq	%rsi, -56(%rbp)
	movq	%rcx, -48(%rbp)
	movq	%r8, -40(%rbp)
Ltmp776:
	.loc	10 24 9 prologue_end
	movb	$0, -57(%rbp)
	movb	$1, -57(%rbp)
	.loc	10 24 20 is_stmt 0
	movq	%rsi, -32(%rbp)
Ltmp771:
Ltmp777:
	.loc	10 25 23 is_stmt 1
	callq	__ZN4objc7message8platform4arch11msg_send_fn17h9b8132bcc5b7b9ffE
Ltmp772:
	movq	%rax, -96(%rbp)
	jmp	LBB60_3
Ltmp778:
LBB60_1:
	.loc	10 29 1
	testb	$1, -57(%rbp)
	jne	LBB60_6
	jmp	LBB60_5
LBB60_2:
Ltmp775:
	.loc	10 0 1 is_stmt 0
	movq	%rax, %rcx
	movl	%edx, %eax
	movq	%rcx, -24(%rbp)
	movl	%eax, -16(%rbp)
	jmp	LBB60_1
LBB60_3:
	movq	-136(%rbp), %r8
	movq	-128(%rbp), %rcx
	movq	-120(%rbp), %rsi
	movq	-96(%rbp), %rdi
Ltmp779:
	.loc	10 25 23 is_stmt 1
	movq	%rdi, -8(%rbp)
Ltmp780:
	.loc	10 27 42
	movq	-88(%rbp), %rax
	movq	%rax, -72(%rbp)
	.loc	10 27 47 is_stmt 0
	movb	$0, -57(%rbp)
	.loc	10 27 9
	movq	-72(%rbp), %rdx
Ltmp773:
	callq	__ZN64_$LT$$LP$A$C$$RP$$u20$as$u20$objc..message..MessageArguments$GT$6invoke17hb8440e4ce95fc7e2E
Ltmp774:
	movq	%rax, -144(%rbp)
	jmp	LBB60_4
LBB60_4:
	.loc	10 0 9
	movq	-104(%rbp), %rax
	movq	-112(%rbp), %rcx
	movq	-144(%rbp), %rdx
	.loc	10 26 5 is_stmt 1
	movq	%rdx, (%rcx)
	movq	$0, 8(%rcx)
Ltmp781:
	.loc	10 29 2
	addq	$144, %rsp
	popq	%rbp
	retq
LBB60_5:
	.loc	10 21 1
	movq	-24(%rbp), %rdi
	callq	__Unwind_Resume
LBB60_6:
	.loc	10 29 1
	jmp	LBB60_5
Ltmp782:
Lfunc_end60:
	.cfi_endproc
	.section	__TEXT,__gcc_except_tab
	.p2align	2
GCC_except_table60:
Lexception51:
	.byte	255
	.byte	255
	.byte	1
	.uleb128 Lcst_end51-Lcst_begin51
Lcst_begin51:
	.uleb128 Ltmp771-Lfunc_begin60
	.uleb128 Ltmp774-Ltmp771
	.uleb128 Ltmp775-Lfunc_begin60
	.byte	0
	.uleb128 Ltmp774-Lfunc_begin60
	.uleb128 Lfunc_end60-Ltmp774
	.byte	0
	.byte	0
Lcst_end51:
	.p2align	2

	.section	__TEXT,__text,regular,pure_instructions
	.globl	__ZN4objc7message8platform15send_unverified17hea3e949c94572a5eE
	.p2align	4, 0x90
__ZN4objc7message8platform15send_unverified17hea3e949c94572a5eE:
Lfunc_begin61:
	.loc	10 21 0
	.cfi_startproc
	.cfi_personality 155, _rust_eh_personality
	.cfi_lsda 16, Lexception52
	pushq	%rbp
	.cfi_def_cfa_offset 16
	.cfi_offset %rbp, -16
	movq	%rsp, %rbp
	.cfi_def_cfa_register %rbp
	subq	$128, %rsp
	movq	%rcx, -120(%rbp)
	movq	%rsi, -112(%rbp)
	movq	%rdi, -104(%rbp)
	movq	%rdi, -96(%rbp)
	movq	%rdx, -72(%rbp)
	movq	-72(%rbp), %rax
	movq	%rax, -80(%rbp)
	movq	%rsi, -48(%rbp)
	movq	%rcx, -40(%rbp)
Ltmp788:
	.loc	10 24 9 prologue_end
	movb	$0, -49(%rbp)
	movb	$1, -49(%rbp)
	.loc	10 24 20 is_stmt 0
	movq	%rsi, -32(%rbp)
Ltmp783:
Ltmp789:
	.loc	10 25 23 is_stmt 1
	callq	__ZN4objc7message8platform4arch11msg_send_fn17h9bdde5caabe62b5fE
Ltmp784:
	movq	%rax, -88(%rbp)
	jmp	LBB61_3
Ltmp790:
LBB61_1:
	.loc	10 29 1
	testb	$1, -49(%rbp)
	jne	LBB61_6
	jmp	LBB61_5
LBB61_2:
Ltmp787:
	.loc	10 0 1 is_stmt 0
	movq	%rax, %rcx
	movl	%edx, %eax
	movq	%rcx, -24(%rbp)
	movl	%eax, -16(%rbp)
	jmp	LBB61_1
LBB61_3:
	movq	-120(%rbp), %rcx
	movq	-112(%rbp), %rsi
	movq	-88(%rbp), %rdi
Ltmp791:
	.loc	10 25 23 is_stmt 1
	movq	%rdi, -8(%rbp)
Ltmp792:
	.loc	10 27 42
	movq	-80(%rbp), %rax
	movq	%rax, -64(%rbp)
	.loc	10 27 47 is_stmt 0
	movb	$0, -49(%rbp)
	.loc	10 27 9
	movq	-64(%rbp), %rdx
Ltmp785:
	callq	__ZN64_$LT$$LP$A$C$$RP$$u20$as$u20$objc..message..MessageArguments$GT$6invoke17h567f5a3cf5854d94E
Ltmp786:
	jmp	LBB61_4
LBB61_4:
	.loc	10 0 9
	movq	-96(%rbp), %rax
	movq	-104(%rbp), %rcx
	.loc	10 26 5 is_stmt 1
	movq	$0, 8(%rcx)
Ltmp793:
	.loc	10 29 2
	addq	$128, %rsp
	popq	%rbp
	retq
LBB61_5:
	.loc	10 21 1
	movq	-24(%rbp), %rdi
	callq	__Unwind_Resume
LBB61_6:
	.loc	10 29 1
	jmp	LBB61_5
Ltmp794:
Lfunc_end61:
	.cfi_endproc
	.section	__TEXT,__gcc_except_tab
	.p2align	2
GCC_except_table61:
Lexception52:
	.byte	255
	.byte	255
	.byte	1
	.uleb128 Lcst_end52-Lcst_begin52
Lcst_begin52:
	.uleb128 Ltmp783-Lfunc_begin61
	.uleb128 Ltmp786-Ltmp783
	.uleb128 Ltmp787-Lfunc_begin61
	.byte	0
	.uleb128 Ltmp786-Lfunc_begin61
	.uleb128 Lfunc_end61-Ltmp786
	.byte	0
	.byte	0
Lcst_end52:
	.p2align	2

	.section	__TEXT,__text,regular,pure_instructions
	.globl	__ZN4objc7message8platform15send_unverified17hf31434108191ca09E
	.p2align	4, 0x90
__ZN4objc7message8platform15send_unverified17hf31434108191ca09E:
Lfunc_begin62:
	.loc	10 21 0
	.cfi_startproc
	.cfi_personality 155, _rust_eh_personality
	.cfi_lsda 16, Lexception53
	pushq	%rbp
	.cfi_def_cfa_offset 16
	.cfi_offset %rbp, -16
	movq	%rsp, %rbp
	.cfi_def_cfa_register %rbp
	subq	$144, %rsp
	movq	%r8, -136(%rbp)
	movq	%rcx, -128(%rbp)
	movq	%rsi, -120(%rbp)
	movq	%rdi, -112(%rbp)
	movq	%rdi, -104(%rbp)
	movq	%rdx, -80(%rbp)
	movq	-80(%rbp), %rax
	movq	%rax, -88(%rbp)
	movq	%rsi, -56(%rbp)
	movq	%rcx, -48(%rbp)
	movq	%r8, -40(%rbp)
Ltmp800:
	.loc	10 24 9 prologue_end
	movb	$0, -57(%rbp)
	movb	$1, -57(%rbp)
	.loc	10 24 20 is_stmt 0
	movq	%rsi, -32(%rbp)
Ltmp795:
Ltmp801:
	.loc	10 25 23 is_stmt 1
	callq	__ZN4objc7message8platform4arch11msg_send_fn17h9bdde5caabe62b5fE
Ltmp796:
	movq	%rax, -96(%rbp)
	jmp	LBB62_3
Ltmp802:
LBB62_1:
	.loc	10 29 1
	testb	$1, -57(%rbp)
	jne	LBB62_6
	jmp	LBB62_5
LBB62_2:
Ltmp799:
	.loc	10 0 1 is_stmt 0
	movq	%rax, %rcx
	movl	%edx, %eax
	movq	%rcx, -24(%rbp)
	movl	%eax, -16(%rbp)
	jmp	LBB62_1
LBB62_3:
	movq	-136(%rbp), %r8
	movq	-128(%rbp), %rcx
	movq	-120(%rbp), %rsi
	movq	-96(%rbp), %rdi
Ltmp803:
	.loc	10 25 23 is_stmt 1
	movq	%rdi, -8(%rbp)
Ltmp804:
	.loc	10 27 42
	movq	-88(%rbp), %rax
	movq	%rax, -72(%rbp)
	.loc	10 27 47 is_stmt 0
	movb	$0, -57(%rbp)
	.loc	10 27 9
	movq	-72(%rbp), %rdx
Ltmp797:
	callq	__ZN65_$LT$$LP$A$C$B$RP$$u20$as$u20$objc..message..MessageArguments$GT$6invoke17h3f530b1873e11a4bE
Ltmp798:
	jmp	LBB62_4
LBB62_4:
	.loc	10 0 9
	movq	-104(%rbp), %rax
	movq	-112(%rbp), %rcx
	.loc	10 26 5 is_stmt 1
	movq	$0, 8(%rcx)
Ltmp805:
	.loc	10 29 2
	addq	$144, %rsp
	popq	%rbp
	retq
LBB62_5:
	.loc	10 21 1
	movq	-24(%rbp), %rdi
	callq	__Unwind_Resume
LBB62_6:
	.loc	10 29 1
	jmp	LBB62_5
Ltmp806:
Lfunc_end62:
	.cfi_endproc
	.section	__TEXT,__gcc_except_tab
	.p2align	2
GCC_except_table62:
Lexception53:
	.byte	255
	.byte	255
	.byte	1
	.uleb128 Lcst_end53-Lcst_begin53
Lcst_begin53:
	.uleb128 Ltmp795-Lfunc_begin62
	.uleb128 Ltmp798-Ltmp795
	.uleb128 Ltmp799-Lfunc_begin62
	.byte	0
	.uleb128 Ltmp798-Lfunc_begin62
	.uleb128 Lfunc_end62-Ltmp798
	.byte	0
	.byte	0
Lcst_end53:
	.p2align	2

	.section	__TEXT,__text,regular,pure_instructions
	.globl	__ZN4objc7message8platform15send_unverified17hf42b39c031472a7cE
	.p2align	4, 0x90
__ZN4objc7message8platform15send_unverified17hf42b39c031472a7cE:
Lfunc_begin63:
	.loc	10 21 0
	.cfi_startproc
	.cfi_personality 155, _rust_eh_personality
	.cfi_lsda 16, Lexception54
	pushq	%rbp
	.cfi_def_cfa_offset 16
	.cfi_offset %rbp, -16
	movq	%rsp, %rbp
	.cfi_def_cfa_register %rbp
	subq	$144, %rsp
	movq	%rcx, -136(%rbp)
Ltmp812:
	movq	%rsi, -128(%rbp)
	movq	%rdi, -120(%rbp)
	movq	%rdi, -112(%rbp)
	movq	%rdx, -88(%rbp)
	movq	-88(%rbp), %rax
	movq	%rax, -96(%rbp)
	movq	%rsi, -40(%rbp)
Ltmp813:
	.loc	10 24 9 prologue_end
	movb	$0, -41(%rbp)
	movb	$1, -41(%rbp)
	.loc	10 24 20 is_stmt 0
	movq	%rsi, -32(%rbp)
Ltmp807:
Ltmp814:
	.loc	10 25 23 is_stmt 1
	callq	__ZN4objc7message8platform4arch11msg_send_fn17h9b8132bcc5b7b9ffE
Ltmp815:
Ltmp808:
	.loc	10 0 23 is_stmt 0
	movq	%rax, -104(%rbp)
Ltmp816:
	.loc	10 25 23
	jmp	LBB63_3
Ltmp817:
LBB63_1:
	.loc	10 29 1 is_stmt 1
	testb	$1, -41(%rbp)
	jne	LBB63_6
	jmp	LBB63_5
Ltmp818:
LBB63_2:
Ltmp811:
	.loc	10 0 1 is_stmt 0
	movq	%rax, %rcx
	movl	%edx, %eax
	movq	%rcx, -24(%rbp)
	movl	%eax, -16(%rbp)
	jmp	LBB63_1
Ltmp819:
LBB63_3:
	movq	-128(%rbp), %rsi
	movq	-104(%rbp), %rdi
	movq	-136(%rbp), %rcx
Ltmp820:
	.loc	10 25 23 is_stmt 1
	movq	%rdi, -8(%rbp)
Ltmp821:
	.loc	10 27 42
	movq	-96(%rbp), %rax
	movq	%rax, -80(%rbp)
	.loc	10 27 47 is_stmt 0
	movb	$0, -41(%rbp)
	movq	16(%rcx), %rax
	movq	%rax, -56(%rbp)
	movq	(%rcx), %rax
	movq	8(%rcx), %rcx
	movq	%rcx, -64(%rbp)
	movq	%rax, -72(%rbp)
	.loc	10 27 9
	movq	-80(%rbp), %rdx
Ltmp809:
	leaq	-72(%rbp), %rcx
	callq	__ZN69_$LT$$LP$A$C$B$C$C$RP$$u20$as$u20$objc..message..MessageArguments$GT$6invoke17h483f42b77f5ff992E
Ltmp810:
	movq	%rax, -144(%rbp)
	jmp	LBB63_4
Ltmp822:
LBB63_4:
	.loc	10 0 9
	movq	-112(%rbp), %rax
	movq	-120(%rbp), %rcx
	movq	-144(%rbp), %rdx
	.loc	10 26 5 is_stmt 1
	movq	%rdx, (%rcx)
	movq	$0, 8(%rcx)
Ltmp823:
	.loc	10 29 2
	addq	$144, %rsp
	popq	%rbp
	retq
Ltmp824:
LBB63_5:
	.loc	10 21 1
	movq	-24(%rbp), %rdi
	callq	__Unwind_Resume
Ltmp825:
LBB63_6:
	.loc	10 29 1
	jmp	LBB63_5
Ltmp826:
Lfunc_end63:
	.cfi_endproc
	.section	__TEXT,__gcc_except_tab
	.p2align	2
GCC_except_table63:
Lexception54:
	.byte	255
	.byte	255
	.byte	1
	.uleb128 Lcst_end54-Lcst_begin54
Lcst_begin54:
	.uleb128 Ltmp807-Lfunc_begin63
	.uleb128 Ltmp810-Ltmp807
	.uleb128 Ltmp811-Lfunc_begin63
	.byte	0
	.uleb128 Ltmp810-Lfunc_begin63
	.uleb128 Lfunc_end63-Ltmp810
	.byte	0
	.byte	0
Lcst_end54:
	.p2align	2

	.section	__TEXT,__text,regular,pure_instructions
	.globl	__ZN4objc7message8platform15send_unverified17hf6ccac833fc165ceE
	.p2align	4, 0x90
__ZN4objc7message8platform15send_unverified17hf6ccac833fc165ceE:
Lfunc_begin64:
	.loc	10 21 0
	.cfi_startproc
	.cfi_personality 155, _rust_eh_personality
	.cfi_lsda 16, Lexception55
	pushq	%rbp
	.cfi_def_cfa_offset 16
	.cfi_offset %rbp, -16
	movq	%rsp, %rbp
	.cfi_def_cfa_register %rbp
	subq	$144, %rsp
	movq	%r8, -136(%rbp)
	movq	%rcx, -128(%rbp)
	movq	%rsi, -120(%rbp)
	movq	%rdi, -112(%rbp)
	movq	%rdi, -104(%rbp)
	movq	%rdx, -80(%rbp)
	movq	-80(%rbp), %rax
	movq	%rax, -88(%rbp)
	movq	%rsi, -56(%rbp)
	movq	%rcx, -48(%rbp)
	movq	%r8, -40(%rbp)
Ltmp832:
	.loc	10 24 9 prologue_end
	movb	$0, -57(%rbp)
	movb	$1, -57(%rbp)
	.loc	10 24 20 is_stmt 0
	movq	%rsi, -32(%rbp)
Ltmp827:
Ltmp833:
	.loc	10 25 23 is_stmt 1
	callq	__ZN4objc7message8platform4arch11msg_send_fn17h9b8132bcc5b7b9ffE
Ltmp828:
	movq	%rax, -96(%rbp)
	jmp	LBB64_3
Ltmp834:
LBB64_1:
	.loc	10 29 1
	testb	$1, -57(%rbp)
	jne	LBB64_6
	jmp	LBB64_5
LBB64_2:
Ltmp831:
	.loc	10 0 1 is_stmt 0
	movq	%rax, %rcx
	movl	%edx, %eax
	movq	%rcx, -24(%rbp)
	movl	%eax, -16(%rbp)
	jmp	LBB64_1
LBB64_3:
	movq	-136(%rbp), %r8
	movq	-128(%rbp), %rcx
	movq	-120(%rbp), %rsi
	movq	-96(%rbp), %rdi
Ltmp835:
	.loc	10 25 23 is_stmt 1
	movq	%rdi, -8(%rbp)
Ltmp836:
	.loc	10 27 42
	movq	-88(%rbp), %rax
	movq	%rax, -72(%rbp)
	.loc	10 27 47 is_stmt 0
	movb	$0, -57(%rbp)
	.loc	10 27 9
	movq	-72(%rbp), %rdx
Ltmp829:
	callq	__ZN65_$LT$$LP$A$C$B$RP$$u20$as$u20$objc..message..MessageArguments$GT$6invoke17ha27e8203c5850460E
Ltmp830:
	movq	%rax, -144(%rbp)
	jmp	LBB64_4
LBB64_4:
	.loc	10 0 9
	movq	-104(%rbp), %rax
	movq	-112(%rbp), %rcx
	movq	-144(%rbp), %rdx
	.loc	10 26 5 is_stmt 1
	movq	%rdx, (%rcx)
	movq	$0, 8(%rcx)
Ltmp837:
	.loc	10 29 2
	addq	$144, %rsp
	popq	%rbp
	retq
LBB64_5:
	.loc	10 21 1
	movq	-24(%rbp), %rdi
	callq	__Unwind_Resume
LBB64_6:
	.loc	10 29 1
	jmp	LBB64_5
Ltmp838:
Lfunc_end64:
	.cfi_endproc
	.section	__TEXT,__gcc_except_tab
	.p2align	2
GCC_except_table64:
Lexception55:
	.byte	255
	.byte	255
	.byte	1
	.uleb128 Lcst_end55-Lcst_begin55
Lcst_begin55:
	.uleb128 Ltmp827-Lfunc_begin64
	.uleb128 Ltmp830-Ltmp827
	.uleb128 Ltmp831-Lfunc_begin64
	.byte	0
	.uleb128 Ltmp830-Lfunc_begin64
	.uleb128 Lfunc_end64-Ltmp830
	.byte	0
	.byte	0
Lcst_end55:
	.p2align	2

	.section	__TEXT,__text,regular,pure_instructions
	.globl	__ZN4objc7message8platform15send_unverified17hf93aed970d04b947E
	.p2align	4, 0x90
__ZN4objc7message8platform15send_unverified17hf93aed970d04b947E:
Lfunc_begin65:
	.loc	10 21 0
	.cfi_startproc
	.cfi_personality 155, _rust_eh_personality
	.cfi_lsda 16, Lexception56
	pushq	%rbp
	.cfi_def_cfa_offset 16
	.cfi_offset %rbp, -16
	movq	%rsp, %rbp
	.cfi_def_cfa_register %rbp
	subq	$144, %rsp
	movq	%rcx, -136(%rbp)
Ltmp844:
	movq	%rsi, -128(%rbp)
	movq	%rdi, -120(%rbp)
	movq	%rdi, -112(%rbp)
	movq	%rdx, -88(%rbp)
	movq	-88(%rbp), %rax
	movq	%rax, -96(%rbp)
	movq	%rsi, -40(%rbp)
Ltmp845:
	.loc	10 24 9 prologue_end
	movb	$0, -41(%rbp)
	movb	$1, -41(%rbp)
	.loc	10 24 20 is_stmt 0
	movq	%rsi, -32(%rbp)
Ltmp839:
Ltmp846:
	.loc	10 25 23 is_stmt 1
	callq	__ZN4objc7message8platform4arch11msg_send_fn17h9bdde5caabe62b5fE
Ltmp847:
Ltmp840:
	.loc	10 0 23 is_stmt 0
	movq	%rax, -104(%rbp)
Ltmp848:
	.loc	10 25 23
	jmp	LBB65_3
Ltmp849:
LBB65_1:
	.loc	10 29 1 is_stmt 1
	testb	$1, -41(%rbp)
	jne	LBB65_6
	jmp	LBB65_5
Ltmp850:
LBB65_2:
Ltmp843:
	.loc	10 0 1 is_stmt 0
	movq	%rax, %rcx
	movl	%edx, %eax
	movq	%rcx, -24(%rbp)
	movl	%eax, -16(%rbp)
	jmp	LBB65_1
Ltmp851:
LBB65_3:
	movq	-128(%rbp), %rsi
	movq	-104(%rbp), %rdi
	movq	-136(%rbp), %rcx
Ltmp852:
	.loc	10 25 23 is_stmt 1
	movq	%rdi, -8(%rbp)
Ltmp853:
	.loc	10 27 42
	movq	-96(%rbp), %rax
	movq	%rax, -80(%rbp)
	.loc	10 27 47 is_stmt 0
	movb	$0, -41(%rbp)
	movq	16(%rcx), %rax
	movq	%rax, -56(%rbp)
	movq	(%rcx), %rax
	movq	8(%rcx), %rcx
	movq	%rcx, -64(%rbp)
	movq	%rax, -72(%rbp)
	.loc	10 27 9
	movq	-80(%rbp), %rdx
Ltmp841:
	leaq	-72(%rbp), %rcx
	callq	__ZN65_$LT$$LP$A$C$B$RP$$u20$as$u20$objc..message..MessageArguments$GT$6invoke17h714b6481f9cb3acfE
Ltmp842:
	jmp	LBB65_4
Ltmp854:
LBB65_4:
	.loc	10 0 9
	movq	-112(%rbp), %rax
	movq	-120(%rbp), %rcx
	.loc	10 26 5 is_stmt 1
	movq	$0, 8(%rcx)
Ltmp855:
	.loc	10 29 2
	addq	$144, %rsp
	popq	%rbp
	retq
Ltmp856:
LBB65_5:
	.loc	10 21 1
	movq	-24(%rbp), %rdi
	callq	__Unwind_Resume
Ltmp857:
LBB65_6:
	.loc	10 29 1
	jmp	LBB65_5
Ltmp858:
Lfunc_end65:
	.cfi_endproc
	.section	__TEXT,__gcc_except_tab
	.p2align	2
GCC_except_table65:
Lexception56:
	.byte	255
	.byte	255
	.byte	1
	.uleb128 Lcst_end56-Lcst_begin56
Lcst_begin56:
	.uleb128 Ltmp839-Lfunc_begin65
	.uleb128 Ltmp842-Ltmp839
	.uleb128 Ltmp843-Lfunc_begin65
	.byte	0
	.uleb128 Ltmp842-Lfunc_begin65
	.uleb128 Lfunc_end65-Ltmp842
	.byte	0
	.byte	0
Lcst_end56:
	.p2align	2

	.section	__TEXT,__text,regular,pure_instructions
	.globl	__ZN4objc7message8platform4arch11msg_send_fn17h0dc753895111e203E
	.p2align	4, 0x90
__ZN4objc7message8platform4arch11msg_send_fn17h0dc753895111e203E:
Lfunc_begin66:
	.file	11 "/Users/natalie/.cargo/registry/src/github.com-1ecc6299db9ec823/objc-0.2.7/src/message/apple" "x86_64.rs"
	.loc	11 13 0
	.cfi_startproc
	pushq	%rbp
	.cfi_def_cfa_offset 16
	.cfi_offset %rbp, -16
	movq	%rsp, %rbp
	.cfi_def_cfa_register %rbp
	pushq	%rax
Ltmp859:
	.loc	11 19 8 prologue_end
	movl	$8, %eax
	cmpq	$16, %rax
	jbe	LBB66_2
	.loc	11 22 9
	movq	_objc_msgSend_stret@GOTPCREL(%rip), %rax
	movq	%rax, -8(%rbp)
	.loc	11 19 5
	jmp	LBB66_3
LBB66_2:
	.loc	11 20 9
	movq	_objc_msgSend@GOTPCREL(%rip), %rax
	movq	%rax, -8(%rbp)
LBB66_3:
	.loc	11 24 2
	movq	-8(%rbp), %rax
	addq	$8, %rsp
	popq	%rbp
	retq
Ltmp860:
Lfunc_end66:
	.cfi_endproc

	.globl	__ZN4objc7message8platform4arch11msg_send_fn17h230861b441c19f6eE
	.p2align	4, 0x90
__ZN4objc7message8platform4arch11msg_send_fn17h230861b441c19f6eE:
Lfunc_begin67:
	.loc	11 13 0
	.cfi_startproc
	pushq	%rbp
	.cfi_def_cfa_offset 16
	.cfi_offset %rbp, -16
	movq	%rsp, %rbp
	.cfi_def_cfa_register %rbp
	pushq	%rax
Ltmp861:
	.loc	11 19 8 prologue_end
	jmp	LBB67_2
	.loc	11 22 9
	movq	_objc_msgSend_stret@GOTPCREL(%rip), %rax
	movq	%rax, -8(%rbp)
	.loc	11 19 5
	jmp	LBB67_3
LBB67_2:
	.loc	11 20 9
	movq	_objc_msgSend@GOTPCREL(%rip), %rax
	movq	%rax, -8(%rbp)
LBB67_3:
	.loc	11 24 2
	movq	-8(%rbp), %rax
	addq	$8, %rsp
	popq	%rbp
	retq
Ltmp862:
Lfunc_end67:
	.cfi_endproc

	.globl	__ZN4objc7message8platform4arch11msg_send_fn17h2c585c636ce508c8E
	.p2align	4, 0x90
__ZN4objc7message8platform4arch11msg_send_fn17h2c585c636ce508c8E:
Lfunc_begin68:
	.loc	11 13 0
	.cfi_startproc
	pushq	%rbp
	.cfi_def_cfa_offset 16
	.cfi_offset %rbp, -16
	movq	%rsp, %rbp
	.cfi_def_cfa_register %rbp
	pushq	%rax
Ltmp863:
	.loc	11 19 8 prologue_end
	movl	$24, %eax
	cmpq	$16, %rax
	jbe	LBB68_2
	.loc	11 22 9
	movq	_objc_msgSend_stret@GOTPCREL(%rip), %rax
	movq	%rax, -8(%rbp)
	.loc	11 19 5
	jmp	LBB68_3
LBB68_2:
	.loc	11 20 9
	movq	_objc_msgSend@GOTPCREL(%rip), %rax
	movq	%rax, -8(%rbp)
LBB68_3:
	.loc	11 24 2
	movq	-8(%rbp), %rax
	addq	$8, %rsp
	popq	%rbp
	retq
Ltmp864:
Lfunc_end68:
	.cfi_endproc

	.globl	__ZN4objc7message8platform4arch11msg_send_fn17h602176705c0aee0cE
	.p2align	4, 0x90
__ZN4objc7message8platform4arch11msg_send_fn17h602176705c0aee0cE:
Lfunc_begin69:
	.loc	11 13 0
	.cfi_startproc
	pushq	%rbp
	.cfi_def_cfa_offset 16
	.cfi_offset %rbp, -16
	movq	%rsp, %rbp
	.cfi_def_cfa_register %rbp
	pushq	%rax
Ltmp865:
	.loc	11 19 8 prologue_end
	movl	$8, %eax
	cmpq	$16, %rax
	jbe	LBB69_2
	.loc	11 22 9
	movq	_objc_msgSend_stret@GOTPCREL(%rip), %rax
	movq	%rax, -8(%rbp)
	.loc	11 19 5
	jmp	LBB69_3
LBB69_2:
	.loc	11 20 9
	movq	_objc_msgSend@GOTPCREL(%rip), %rax
	movq	%rax, -8(%rbp)
LBB69_3:
	.loc	11 24 2
	movq	-8(%rbp), %rax
	addq	$8, %rsp
	popq	%rbp
	retq
Ltmp866:
Lfunc_end69:
	.cfi_endproc

	.globl	__ZN4objc7message8platform4arch11msg_send_fn17h6d96b833562465afE
	.p2align	4, 0x90
__ZN4objc7message8platform4arch11msg_send_fn17h6d96b833562465afE:
Lfunc_begin70:
	.loc	11 13 0
	.cfi_startproc
	pushq	%rbp
	.cfi_def_cfa_offset 16
	.cfi_offset %rbp, -16
	movq	%rsp, %rbp
	.cfi_def_cfa_register %rbp
	pushq	%rax
Ltmp867:
	.loc	11 19 8 prologue_end
	movl	$8, %eax
	cmpq	$16, %rax
	jbe	LBB70_2
	.loc	11 22 9
	movq	_objc_msgSend_stret@GOTPCREL(%rip), %rax
	movq	%rax, -8(%rbp)
	.loc	11 19 5
	jmp	LBB70_3
LBB70_2:
	.loc	11 20 9
	movq	_objc_msgSend@GOTPCREL(%rip), %rax
	movq	%rax, -8(%rbp)
LBB70_3:
	.loc	11 24 2
	movq	-8(%rbp), %rax
	addq	$8, %rsp
	popq	%rbp
	retq
Ltmp868:
Lfunc_end70:
	.cfi_endproc

	.globl	__ZN4objc7message8platform4arch11msg_send_fn17h96204f9b6b08690fE
	.p2align	4, 0x90
__ZN4objc7message8platform4arch11msg_send_fn17h96204f9b6b08690fE:
Lfunc_begin71:
	.loc	11 13 0
	.cfi_startproc
	pushq	%rbp
	.cfi_def_cfa_offset 16
	.cfi_offset %rbp, -16
	movq	%rsp, %rbp
	.cfi_def_cfa_register %rbp
	pushq	%rax
Ltmp869:
	.loc	11 19 8 prologue_end
	movl	$8, %eax
	cmpq	$16, %rax
	jbe	LBB71_2
	.loc	11 22 9
	movq	_objc_msgSend_stret@GOTPCREL(%rip), %rax
	movq	%rax, -8(%rbp)
	.loc	11 19 5
	jmp	LBB71_3
LBB71_2:
	.loc	11 20 9
	movq	_objc_msgSend@GOTPCREL(%rip), %rax
	movq	%rax, -8(%rbp)
LBB71_3:
	.loc	11 24 2
	movq	-8(%rbp), %rax
	addq	$8, %rsp
	popq	%rbp
	retq
Ltmp870:
Lfunc_end71:
	.cfi_endproc

	.globl	__ZN4objc7message8platform4arch11msg_send_fn17h9b8132bcc5b7b9ffE
	.p2align	4, 0x90
__ZN4objc7message8platform4arch11msg_send_fn17h9b8132bcc5b7b9ffE:
Lfunc_begin72:
	.loc	11 13 0
	.cfi_startproc
	pushq	%rbp
	.cfi_def_cfa_offset 16
	.cfi_offset %rbp, -16
	movq	%rsp, %rbp
	.cfi_def_cfa_register %rbp
	pushq	%rax
Ltmp871:
	.loc	11 19 8 prologue_end
	movl	$8, %eax
	cmpq	$16, %rax
	jbe	LBB72_2
	.loc	11 22 9
	movq	_objc_msgSend_stret@GOTPCREL(%rip), %rax
	movq	%rax, -8(%rbp)
	.loc	11 19 5
	jmp	LBB72_3
LBB72_2:
	.loc	11 20 9
	movq	_objc_msgSend@GOTPCREL(%rip), %rax
	movq	%rax, -8(%rbp)
LBB72_3:
	.loc	11 24 2
	movq	-8(%rbp), %rax
	addq	$8, %rsp
	popq	%rbp
	retq
Ltmp872:
Lfunc_end72:
	.cfi_endproc

	.globl	__ZN4objc7message8platform4arch11msg_send_fn17h9bdde5caabe62b5fE
	.p2align	4, 0x90
__ZN4objc7message8platform4arch11msg_send_fn17h9bdde5caabe62b5fE:
Lfunc_begin73:
	.loc	11 13 0
	.cfi_startproc
	pushq	%rbp
	.cfi_def_cfa_offset 16
	.cfi_offset %rbp, -16
	movq	%rsp, %rbp
	.cfi_def_cfa_register %rbp
	pushq	%rax
Ltmp873:
	.loc	11 19 8 prologue_end
	xorl	%eax, %eax
	cmpq	$16, %rax
	jbe	LBB73_2
	.loc	11 22 9
	movq	_objc_msgSend_stret@GOTPCREL(%rip), %rax
	movq	%rax, -8(%rbp)
	.loc	11 19 5
	jmp	LBB73_3
LBB73_2:
	.loc	11 20 9
	movq	_objc_msgSend@GOTPCREL(%rip), %rax
	movq	%rax, -8(%rbp)
LBB73_3:
	.loc	11 24 2
	movq	-8(%rbp), %rax
	addq	$8, %rsp
	popq	%rbp
	retq
Ltmp874:
Lfunc_end73:
	.cfi_endproc

	.globl	__ZN4objc7message8platform4arch11msg_send_fn17ha1cf503d7d22b32cE
	.p2align	4, 0x90
__ZN4objc7message8platform4arch11msg_send_fn17ha1cf503d7d22b32cE:
Lfunc_begin74:
	.loc	11 13 0
	.cfi_startproc
	pushq	%rbp
	.cfi_def_cfa_offset 16
	.cfi_offset %rbp, -16
	movq	%rsp, %rbp
	.cfi_def_cfa_register %rbp
	pushq	%rax
Ltmp875:
	.loc	11 19 8 prologue_end
	movl	$1, %eax
	cmpq	$16, %rax
	jbe	LBB74_2
	.loc	11 22 9
	movq	_objc_msgSend_stret@GOTPCREL(%rip), %rax
	movq	%rax, -8(%rbp)
	.loc	11 19 5
	jmp	LBB74_3
LBB74_2:
	.loc	11 20 9
	movq	_objc_msgSend@GOTPCREL(%rip), %rax
	movq	%rax, -8(%rbp)
LBB74_3:
	.loc	11 24 2
	movq	-8(%rbp), %rax
	addq	$8, %rsp
	popq	%rbp
	retq
Ltmp876:
Lfunc_end74:
	.cfi_endproc

	.globl	__ZN4objc7message8platform4arch11msg_send_fn17ha532af17d13192deE
	.p2align	4, 0x90
__ZN4objc7message8platform4arch11msg_send_fn17ha532af17d13192deE:
Lfunc_begin75:
	.loc	11 13 0
	.cfi_startproc
	pushq	%rbp
	.cfi_def_cfa_offset 16
	.cfi_offset %rbp, -16
	movq	%rsp, %rbp
	.cfi_def_cfa_register %rbp
	pushq	%rax
Ltmp877:
	.loc	11 19 8 prologue_end
	movl	$8, %eax
	cmpq	$16, %rax
	jbe	LBB75_2
	.loc	11 22 9
	movq	_objc_msgSend_stret@GOTPCREL(%rip), %rax
	movq	%rax, -8(%rbp)
	.loc	11 19 5
	jmp	LBB75_3
LBB75_2:
	.loc	11 20 9
	movq	_objc_msgSend@GOTPCREL(%rip), %rax
	movq	%rax, -8(%rbp)
LBB75_3:
	.loc	11 24 2
	movq	-8(%rbp), %rax
	addq	$8, %rsp
	popq	%rbp
	retq
Ltmp878:
Lfunc_end75:
	.cfi_endproc

	.globl	__ZN4objc7message8platform4arch11msg_send_fn17hcf748dde2ad075dcE
	.p2align	4, 0x90
__ZN4objc7message8platform4arch11msg_send_fn17hcf748dde2ad075dcE:
Lfunc_begin76:
	.loc	11 13 0
	.cfi_startproc
	pushq	%rbp
	.cfi_def_cfa_offset 16
	.cfi_offset %rbp, -16
	movq	%rsp, %rbp
	.cfi_def_cfa_register %rbp
	pushq	%rax
Ltmp879:
	.loc	11 19 8 prologue_end
	movl	$8, %eax
	cmpq	$16, %rax
	jbe	LBB76_2
	.loc	11 22 9
	movq	_objc_msgSend_stret@GOTPCREL(%rip), %rax
	movq	%rax, -8(%rbp)
	.loc	11 19 5
	jmp	LBB76_3
LBB76_2:
	.loc	11 20 9
	movq	_objc_msgSend@GOTPCREL(%rip), %rax
	movq	%rax, -8(%rbp)
LBB76_3:
	.loc	11 24 2
	movq	-8(%rbp), %rax
	addq	$8, %rsp
	popq	%rbp
	retq
Ltmp880:
Lfunc_end76:
	.cfi_endproc

	.globl	__ZN4objc7message8platform4arch11msg_send_fn17hf91c86d4fee27166E
	.p2align	4, 0x90
__ZN4objc7message8platform4arch11msg_send_fn17hf91c86d4fee27166E:
Lfunc_begin77:
	.loc	11 13 0
	.cfi_startproc
	pushq	%rbp
	.cfi_def_cfa_offset 16
	.cfi_offset %rbp, -16
	movq	%rsp, %rbp
	.cfi_def_cfa_register %rbp
	pushq	%rax
Ltmp881:
	.loc	11 19 8 prologue_end
	movl	$1, %eax
	cmpq	$16, %rax
	jbe	LBB77_2
	.loc	11 22 9
	movq	_objc_msgSend_stret@GOTPCREL(%rip), %rax
	movq	%rax, -8(%rbp)
	.loc	11 19 5
	jmp	LBB77_3
LBB77_2:
	.loc	11 20 9
	movq	_objc_msgSend@GOTPCREL(%rip), %rax
	movq	%rax, -8(%rbp)
LBB77_3:
	.loc	11 24 2
	movq	-8(%rbp), %rax
	addq	$8, %rsp
	popq	%rbp
	retq
Ltmp882:
Lfunc_end77:
	.cfi_endproc

	.globl	__ZN4objc7message8platform4arch11msg_send_fn17hfa20040a65532df1E
	.p2align	4, 0x90
__ZN4objc7message8platform4arch11msg_send_fn17hfa20040a65532df1E:
Lfunc_begin78:
	.loc	11 13 0
	.cfi_startproc
	pushq	%rbp
	.cfi_def_cfa_offset 16
	.cfi_offset %rbp, -16
	movq	%rsp, %rbp
	.cfi_def_cfa_register %rbp
	pushq	%rax
Ltmp883:
	.loc	11 19 8 prologue_end
	movl	$8, %eax
	cmpq	$16, %rax
	jbe	LBB78_2
	.loc	11 22 9
	movq	_objc_msgSend_stret@GOTPCREL(%rip), %rax
	movq	%rax, -8(%rbp)
	.loc	11 19 5
	jmp	LBB78_3
LBB78_2:
	.loc	11 20 9
	movq	_objc_msgSend@GOTPCREL(%rip), %rax
	movq	%rax, -8(%rbp)
LBB78_3:
	.loc	11 24 2
	movq	-8(%rbp), %rax
	addq	$8, %rsp
	popq	%rbp
	retq
Ltmp884:
Lfunc_end78:
	.cfi_endproc

	.p2align	4, 0x90
__ZN4objc7runtime3Sel6as_ptr17h8212400c1497f825E:
Lfunc_begin79:
	.file	12 "/Users/natalie/.cargo/registry/src/github.com-1ecc6299db9ec823/objc-0.2.7/src" "runtime.rs"
	.loc	12 175 0
	.cfi_startproc
	pushq	%rbp
	.cfi_def_cfa_offset 16
	.cfi_offset %rbp, -16
	movq	%rsp, %rbp
	.cfi_def_cfa_register %rbp
	pushq	%rax
	movq	%rdi, -8(%rbp)
Ltmp885:
	.loc	12 176 9 prologue_end
	movq	(%rdi), %rax
	.loc	12 177 6
	addq	$8, %rsp
	popq	%rbp
	retq
Ltmp886:
Lfunc_end79:
	.cfi_endproc

	.p2align	4, 0x90
__ZN4objc7runtime3Sel8from_ptr17h99c8f81b58f154bfE:
Lfunc_begin80:
	.loc	12 167 0
	.cfi_startproc
	pushq	%rbp
	.cfi_def_cfa_offset 16
	.cfi_offset %rbp, -16
	movq	%rsp, %rbp
	.cfi_def_cfa_register %rbp
	subq	$16, %rsp
	movq	%rdi, -8(%rbp)
Ltmp887:
	.loc	12 168 9 prologue_end
	movq	%rdi, -16(%rbp)
	.loc	12 171 6
	movq	-16(%rbp), %rax
	addq	$16, %rsp
	popq	%rbp
	retq
Ltmp888:
Lfunc_end80:
	.cfi_endproc

	.p2align	4, 0x90
__ZN5alloc3fmt6format17hc8c20dbc85cc042fE:
Lfunc_begin81:
	.file	13 "/rustc/2c8cc343237b8f7d5a3c3703e3a87f2eb2c54a74/library/alloc/src" "fmt.rs"
	.loc	13 608 0
	.cfi_startproc
	pushq	%rbp
	.cfi_def_cfa_offset 16
	.cfi_offset %rbp, -16
	movq	%rsp, %rbp
	.cfi_def_cfa_register %rbp
	subq	$32, %rsp
	movq	%rsi, -24(%rbp)
	movq	%rdi, %rax
	movq	-24(%rbp), %rdi
	movq	%rax, -32(%rbp)
	movq	%rax, -16(%rbp)
Ltmp889:
	.loc	13 616 5 prologue_end
	callq	__ZN4core3fmt9Arguments6as_str17h964a075ad586e8aeE
	movq	-32(%rbp), %rdi
	movq	%rax, %rsi
	movq	-24(%rbp), %rax
	.loc	13 616 31 is_stmt 0
	movq	%rax, -8(%rbp)
	.loc	13 616 5
	movq	-8(%rbp), %rcx
	callq	__ZN4core6option15Option$LT$T$GT$11map_or_else17hb407f5609b735f5dE
	movq	-16(%rbp), %rax
	.loc	13 617 2 is_stmt 1
	addq	$32, %rsp
	popq	%rbp
	retq
Ltmp890:
Lfunc_end81:
	.cfi_endproc

	.globl	__ZN5alloc3fmt6format28_$u7b$$u7b$closure$u7d$$u7d$17h5f0da4ee2b9cec6bE
	.p2align	4, 0x90
__ZN5alloc3fmt6format28_$u7b$$u7b$closure$u7d$$u7d$17h5f0da4ee2b9cec6bE:
Lfunc_begin82:
	.loc	13 616 0
	.cfi_startproc
	pushq	%rbp
	.cfi_def_cfa_offset 16
	.cfi_offset %rbp, -16
	movq	%rsp, %rbp
	.cfi_def_cfa_register %rbp
	subq	$80, %rsp
	movq	%rdi, -72(%rbp)
	movq	%rdi, -64(%rbp)
	movq	%rsi, -56(%rbp)
Ltmp891:
	.loc	13 616 47 prologue_end
	movq	-56(%rbp), %rsi
	leaq	-48(%rbp), %rdi
	movl	$48, %edx
	callq	_memcpy
	movq	-72(%rbp), %rdi
	.loc	13 616 34 is_stmt 0
	leaq	-48(%rbp), %rsi
	callq	__ZN5alloc3fmt6format12format_inner17h5f9de3df5d2b13c6E
	movq	-64(%rbp), %rax
	.loc	13 616 52
	addq	$80, %rsp
	popq	%rbp
	retq
Ltmp892:
Lfunc_end82:
	.cfi_endproc

	.p2align	4, 0x90
__ZN5alloc3str56_$LT$impl$u20$alloc..borrow..ToOwned$u20$for$u20$str$GT$8to_owned17hc37d78d2547a7da3E:
Lfunc_begin83:
	.file	14 "/rustc/2c8cc343237b8f7d5a3c3703e3a87f2eb2c54a74/library/alloc/src" "str.rs"
	.loc	14 208 0 is_stmt 1
	.cfi_startproc
	pushq	%rbp
	.cfi_def_cfa_offset 16
	.cfi_offset %rbp, -16
	movq	%rsp, %rbp
	.cfi_def_cfa_register %rbp
	subq	$112, %rsp
	movq	%rdi, -112(%rbp)
	movq	%rdi, -104(%rbp)
	movq	%rsi, -48(%rbp)
	movq	%rdx, -40(%rbp)
Ltmp893:
	.loc	14 209 46 prologue_end
	movq	%rsi, -32(%rbp)
	movq	%rdx, -24(%rbp)
Ltmp894:
	.loc	6 327 18
	movq	%rsi, -16(%rbp)
	movq	%rdx, -8(%rbp)
	movq	-16(%rbp), %rsi
	movq	-8(%rbp), %rdx
Ltmp895:
	.loc	14 209 46
	leaq	-96(%rbp), %rdi
	callq	__ZN5alloc5slice64_$LT$impl$u20$alloc..borrow..ToOwned$u20$for$u20$$u5b$T$u5d$$GT$8to_owned17h5b80f0a7badca3f3E
	movq	-112(%rbp), %rdi
	movq	-104(%rbp), %rax
Ltmp896:
	.file	15 "/rustc/2c8cc343237b8f7d5a3c3703e3a87f2eb2c54a74/library/alloc/src" "string.rs"
	.loc	15 846 23
	movq	-96(%rbp), %rcx
	movq	%rcx, -72(%rbp)
	movq	-88(%rbp), %rcx
	movq	%rcx, -64(%rbp)
	movq	-80(%rbp), %rcx
	movq	%rcx, -56(%rbp)
	.loc	15 846 9 is_stmt 0
	movq	-72(%rbp), %rcx
	movq	%rcx, (%rdi)
	movq	-64(%rbp), %rcx
	movq	%rcx, 8(%rdi)
	movq	-56(%rbp), %rcx
	movq	%rcx, 16(%rdi)
Ltmp897:
	.loc	14 210 6 is_stmt 1
	addq	$112, %rsp
	popq	%rbp
	retq
Ltmp898:
Lfunc_end83:
	.cfi_endproc

	.globl	__ZN60_$LT$$LP$$RP$$u20$as$u20$objc..message..MessageArguments$GT$6invoke17h0b0762c722f444edE
	.p2align	4, 0x90
__ZN60_$LT$$LP$$RP$$u20$as$u20$objc..message..MessageArguments$GT$6invoke17h0b0762c722f444edE:
Lfunc_begin84:
	.file	16 "/Users/natalie/.cargo/registry/src/github.com-1ecc6299db9ec823/objc-0.2.7/src/message" "mod.rs"
	.loc	16 124 0
	.cfi_startproc
	pushq	%rbp
	.cfi_def_cfa_offset 16
	.cfi_offset %rbp, -16
	movq	%rsp, %rbp
	.cfi_def_cfa_register %rbp
	subq	$80, %rsp
	movq	%rsi, -72(%rbp)
	movq	%rdi, %rax
	movq	-72(%rbp), %rdi
	movq	%rdx, -56(%rbp)
	movq	-56(%rbp), %rcx
	movq	%rcx, -64(%rbp)
	movq	%rax, -40(%rbp)
	movq	%rdi, -32(%rbp)
Ltmp899:
	.loc	16 127 21 prologue_end
	movq	%rax, -16(%rbp)
	movq	-16(%rbp), %rax
	movq	%rax, -8(%rbp)
Ltmp900:
	.loc	16 128 26
	movq	-64(%rbp), %rcx
	movq	%rcx, -48(%rbp)
	.loc	16 128 17 is_stmt 0
	movq	-48(%rbp), %rsi
	callq	*%rax
Ltmp901:
	.loc	16 129 14 is_stmt 1
	addq	$80, %rsp
	popq	%rbp
	retq
Ltmp902:
Lfunc_end84:
	.cfi_endproc

	.globl	__ZN60_$LT$$LP$$RP$$u20$as$u20$objc..message..MessageArguments$GT$6invoke17h100a8dd477231297E
	.p2align	4, 0x90
__ZN60_$LT$$LP$$RP$$u20$as$u20$objc..message..MessageArguments$GT$6invoke17h100a8dd477231297E:
Lfunc_begin85:
	.loc	16 124 0
	.cfi_startproc
	pushq	%rbp
	.cfi_def_cfa_offset 16
	.cfi_offset %rbp, -16
	movq	%rsp, %rbp
	.cfi_def_cfa_register %rbp
	subq	$80, %rsp
	movq	%rsi, -72(%rbp)
	movq	%rdi, %rax
	movq	-72(%rbp), %rdi
	movq	%rdx, -56(%rbp)
	movq	-56(%rbp), %rcx
	movq	%rcx, -64(%rbp)
	movq	%rax, -40(%rbp)
	movq	%rdi, -32(%rbp)
Ltmp903:
	.loc	16 127 21 prologue_end
	movq	%rax, -16(%rbp)
	movq	-16(%rbp), %rax
	movq	%rax, -8(%rbp)
Ltmp904:
	.loc	16 128 26
	movq	-64(%rbp), %rcx
	movq	%rcx, -48(%rbp)
	.loc	16 128 17 is_stmt 0
	movq	-48(%rbp), %rsi
	callq	*%rax
Ltmp905:
	.loc	16 129 14 is_stmt 1
	addq	$80, %rsp
	popq	%rbp
	retq
Ltmp906:
Lfunc_end85:
	.cfi_endproc

	.globl	__ZN60_$LT$$LP$$RP$$u20$as$u20$objc..message..MessageArguments$GT$6invoke17h11d33337ea349541E
	.p2align	4, 0x90
__ZN60_$LT$$LP$$RP$$u20$as$u20$objc..message..MessageArguments$GT$6invoke17h11d33337ea349541E:
Lfunc_begin86:
	.loc	16 124 0
	.cfi_startproc
	pushq	%rbp
	.cfi_def_cfa_offset 16
	.cfi_offset %rbp, -16
	movq	%rsp, %rbp
	.cfi_def_cfa_register %rbp
	subq	$80, %rsp
	movq	%rsi, -72(%rbp)
	movq	%rdi, %rax
	movq	-72(%rbp), %rdi
	movq	%rdx, -56(%rbp)
	movq	-56(%rbp), %rcx
	movq	%rcx, -64(%rbp)
	movq	%rax, -40(%rbp)
	movq	%rdi, -32(%rbp)
Ltmp907:
	.loc	16 127 21 prologue_end
	movq	%rax, -16(%rbp)
	movq	-16(%rbp), %rax
	movq	%rax, -8(%rbp)
Ltmp908:
	.loc	16 128 26
	movq	-64(%rbp), %rcx
	movq	%rcx, -48(%rbp)
	.loc	16 128 17 is_stmt 0
	movq	-48(%rbp), %rsi
	callq	*%rax
Ltmp909:
	.loc	16 129 14 is_stmt 1
	addq	$80, %rsp
	popq	%rbp
	retq
Ltmp910:
Lfunc_end86:
	.cfi_endproc

	.globl	__ZN60_$LT$$LP$$RP$$u20$as$u20$objc..message..MessageArguments$GT$6invoke17h47384ab25eac492eE
	.p2align	4, 0x90
__ZN60_$LT$$LP$$RP$$u20$as$u20$objc..message..MessageArguments$GT$6invoke17h47384ab25eac492eE:
Lfunc_begin87:
	.loc	16 124 0
	.cfi_startproc
	pushq	%rbp
	.cfi_def_cfa_offset 16
	.cfi_offset %rbp, -16
	movq	%rsp, %rbp
	.cfi_def_cfa_register %rbp
	subq	$80, %rsp
	movq	%rsi, -72(%rbp)
	movq	%rdi, %rax
	movq	-72(%rbp), %rdi
	movq	%rdx, -56(%rbp)
	movq	-56(%rbp), %rcx
	movq	%rcx, -64(%rbp)
	movq	%rax, -40(%rbp)
	movq	%rdi, -32(%rbp)
Ltmp911:
	.loc	16 127 21 prologue_end
	movq	%rax, -16(%rbp)
	movq	-16(%rbp), %rax
	movq	%rax, -8(%rbp)
Ltmp912:
	.loc	16 128 26
	movq	-64(%rbp), %rcx
	movq	%rcx, -48(%rbp)
	.loc	16 128 17 is_stmt 0
	movq	-48(%rbp), %rsi
	callq	*%rax
Ltmp913:
	.loc	16 129 14 is_stmt 1
	addq	$80, %rsp
	popq	%rbp
	retq
Ltmp914:
Lfunc_end87:
	.cfi_endproc

	.globl	__ZN60_$LT$$LP$$RP$$u20$as$u20$objc..message..MessageArguments$GT$6invoke17h587067c6a85f847eE
	.p2align	4, 0x90
__ZN60_$LT$$LP$$RP$$u20$as$u20$objc..message..MessageArguments$GT$6invoke17h587067c6a85f847eE:
Lfunc_begin88:
	.loc	16 124 0
	.cfi_startproc
	pushq	%rbp
	.cfi_def_cfa_offset 16
	.cfi_offset %rbp, -16
	movq	%rsp, %rbp
	.cfi_def_cfa_register %rbp
	subq	$80, %rsp
	movq	%rsi, -72(%rbp)
	movq	%rdi, %rax
	movq	-72(%rbp), %rdi
	movq	%rdx, -56(%rbp)
	movq	-56(%rbp), %rcx
	movq	%rcx, -64(%rbp)
	movq	%rax, -40(%rbp)
	movq	%rdi, -32(%rbp)
Ltmp915:
	.loc	16 127 21 prologue_end
	movq	%rax, -16(%rbp)
	movq	-16(%rbp), %rax
	movq	%rax, -8(%rbp)
Ltmp916:
	.loc	16 128 26
	movq	-64(%rbp), %rcx
	movq	%rcx, -48(%rbp)
	.loc	16 128 17 is_stmt 0
	movq	-48(%rbp), %rsi
	callq	*%rax
Ltmp917:
	.loc	16 129 14 is_stmt 1
	addq	$80, %rsp
	popq	%rbp
	retq
Ltmp918:
Lfunc_end88:
	.cfi_endproc

	.globl	__ZN60_$LT$$LP$$RP$$u20$as$u20$objc..message..MessageArguments$GT$6invoke17h9cd1b5a5e04a8e5cE
	.p2align	4, 0x90
__ZN60_$LT$$LP$$RP$$u20$as$u20$objc..message..MessageArguments$GT$6invoke17h9cd1b5a5e04a8e5cE:
Lfunc_begin89:
	.loc	16 124 0
	.cfi_startproc
	pushq	%rbp
	.cfi_def_cfa_offset 16
	.cfi_offset %rbp, -16
	movq	%rsp, %rbp
	.cfi_def_cfa_register %rbp
	subq	$80, %rsp
	movq	%rsi, -72(%rbp)
	movq	%rdi, %rax
	movq	-72(%rbp), %rdi
	movq	%rdx, -56(%rbp)
	movq	-56(%rbp), %rcx
	movq	%rcx, -64(%rbp)
	movq	%rax, -40(%rbp)
	movq	%rdi, -32(%rbp)
Ltmp919:
	.loc	16 127 21 prologue_end
	movq	%rax, -16(%rbp)
	movq	-16(%rbp), %rax
	movq	%rax, -8(%rbp)
Ltmp920:
	.loc	16 128 26
	movq	-64(%rbp), %rcx
	movq	%rcx, -48(%rbp)
	.loc	16 128 17 is_stmt 0
	movq	-48(%rbp), %rsi
	callq	*%rax
Ltmp921:
	.loc	16 129 14 is_stmt 1
	addq	$80, %rsp
	popq	%rbp
	retq
Ltmp922:
Lfunc_end89:
	.cfi_endproc

	.globl	__ZN60_$LT$$LP$$RP$$u20$as$u20$objc..message..MessageArguments$GT$6invoke17ha2b3b542251d9ffeE
	.p2align	4, 0x90
__ZN60_$LT$$LP$$RP$$u20$as$u20$objc..message..MessageArguments$GT$6invoke17ha2b3b542251d9ffeE:
Lfunc_begin90:
	.loc	16 124 0
	.cfi_startproc
	pushq	%rbp
	.cfi_def_cfa_offset 16
	.cfi_offset %rbp, -16
	movq	%rsp, %rbp
	.cfi_def_cfa_register %rbp
	subq	$80, %rsp
	movq	%rdx, -80(%rbp)
	movq	%rsi, %rax
	movq	-80(%rbp), %rsi
	movq	%rdi, %rdx
	movq	%rdx, -72(%rbp)
	movq	%rcx, -56(%rbp)
	movq	-56(%rbp), %rcx
	movq	%rcx, -64(%rbp)
	movq	%rax, -40(%rbp)
	movq	%rsi, -32(%rbp)
Ltmp923:
	.loc	16 127 21 prologue_end
	movq	%rax, -16(%rbp)
	movq	-16(%rbp), %rax
	movq	%rax, -8(%rbp)
Ltmp924:
	.loc	16 128 26
	movq	-64(%rbp), %rcx
	movq	%rcx, -48(%rbp)
	.loc	16 128 17 is_stmt 0
	movq	-48(%rbp), %rdx
	callq	*%rax
	movq	-72(%rbp), %rax
Ltmp925:
	.loc	16 129 14 is_stmt 1
	addq	$80, %rsp
	popq	%rbp
	retq
Ltmp926:
Lfunc_end90:
	.cfi_endproc

	.globl	__ZN60_$LT$$LP$$RP$$u20$as$u20$objc..message..MessageArguments$GT$6invoke17ha8721d27a2106454E
	.p2align	4, 0x90
__ZN60_$LT$$LP$$RP$$u20$as$u20$objc..message..MessageArguments$GT$6invoke17ha8721d27a2106454E:
Lfunc_begin91:
	.loc	16 124 0
	.cfi_startproc
	pushq	%rbp
	.cfi_def_cfa_offset 16
	.cfi_offset %rbp, -16
	movq	%rsp, %rbp
	.cfi_def_cfa_register %rbp
	subq	$80, %rsp
	movq	%rsi, -72(%rbp)
	movq	%rdi, %rax
	movq	-72(%rbp), %rdi
	movq	%rdx, -56(%rbp)
	movq	-56(%rbp), %rcx
	movq	%rcx, -64(%rbp)
	movq	%rax, -40(%rbp)
	movq	%rdi, -32(%rbp)
Ltmp927:
	.loc	16 127 21 prologue_end
	movq	%rax, -16(%rbp)
	movq	-16(%rbp), %rax
	movq	%rax, -8(%rbp)
Ltmp928:
	.loc	16 128 26
	movq	-64(%rbp), %rcx
	movq	%rcx, -48(%rbp)
	.loc	16 128 17 is_stmt 0
	movq	-48(%rbp), %rsi
	callq	*%rax
Ltmp929:
	.loc	16 129 14 is_stmt 1
	addq	$80, %rsp
	popq	%rbp
	retq
Ltmp930:
Lfunc_end91:
	.cfi_endproc

	.globl	__ZN60_$LT$$LP$$RP$$u20$as$u20$objc..message..MessageArguments$GT$6invoke17hb8a6f42a6bed9d08E
	.p2align	4, 0x90
__ZN60_$LT$$LP$$RP$$u20$as$u20$objc..message..MessageArguments$GT$6invoke17hb8a6f42a6bed9d08E:
Lfunc_begin92:
	.loc	16 124 0
	.cfi_startproc
	pushq	%rbp
	.cfi_def_cfa_offset 16
	.cfi_offset %rbp, -16
	movq	%rsp, %rbp
	.cfi_def_cfa_register %rbp
	subq	$80, %rsp
	movq	%rsi, -72(%rbp)
	movq	%rdi, %rax
	movq	-72(%rbp), %rdi
	movq	%rdx, -56(%rbp)
	movq	-56(%rbp), %rcx
	movq	%rcx, -64(%rbp)
	movq	%rax, -40(%rbp)
	movq	%rdi, -32(%rbp)
Ltmp931:
	.loc	16 127 21 prologue_end
	movq	%rax, -16(%rbp)
	movq	-16(%rbp), %rax
	movq	%rax, -8(%rbp)
Ltmp932:
	.loc	16 128 26
	movq	-64(%rbp), %rcx
	movq	%rcx, -48(%rbp)
	.loc	16 128 17 is_stmt 0
	movq	-48(%rbp), %rsi
	callq	*%rax
Ltmp933:
	.loc	16 129 14 is_stmt 1
	addq	$80, %rsp
	popq	%rbp
	retq
Ltmp934:
Lfunc_end92:
	.cfi_endproc

	.globl	__ZN60_$LT$$LP$$RP$$u20$as$u20$objc..message..MessageArguments$GT$6invoke17hd9485861fc849f59E
	.p2align	4, 0x90
__ZN60_$LT$$LP$$RP$$u20$as$u20$objc..message..MessageArguments$GT$6invoke17hd9485861fc849f59E:
Lfunc_begin93:
	.loc	16 124 0
	.cfi_startproc
	pushq	%rbp
	.cfi_def_cfa_offset 16
	.cfi_offset %rbp, -16
	movq	%rsp, %rbp
	.cfi_def_cfa_register %rbp
	subq	$80, %rsp
	movq	%rsi, -72(%rbp)
	movq	%rdi, %rax
	movq	-72(%rbp), %rdi
	movq	%rdx, -56(%rbp)
	movq	-56(%rbp), %rcx
	movq	%rcx, -64(%rbp)
	movq	%rax, -40(%rbp)
	movq	%rdi, -32(%rbp)
Ltmp935:
	.loc	16 127 21 prologue_end
	movq	%rax, -16(%rbp)
	movq	-16(%rbp), %rax
	movq	%rax, -8(%rbp)
Ltmp936:
	.loc	16 128 26
	movq	-64(%rbp), %rcx
	movq	%rcx, -48(%rbp)
	.loc	16 128 17 is_stmt 0
	movq	-48(%rbp), %rsi
	callq	*%rax
Ltmp937:
	.loc	16 129 14 is_stmt 1
	addq	$80, %rsp
	popq	%rbp
	retq
Ltmp938:
Lfunc_end93:
	.cfi_endproc

	.globl	__ZN64_$LT$$LP$A$C$$RP$$u20$as$u20$objc..message..MessageArguments$GT$6invoke17h1ea3053b2fe4f066E
	.p2align	4, 0x90
__ZN64_$LT$$LP$A$C$$RP$$u20$as$u20$objc..message..MessageArguments$GT$6invoke17h1ea3053b2fe4f066E:
Lfunc_begin94:
	.loc	16 124 0
	.cfi_startproc
	.cfi_personality 155, _rust_eh_personality
	.cfi_lsda 16, Lexception57
	pushq	%rbp
	.cfi_def_cfa_offset 16
	.cfi_offset %rbp, -16
	movq	%rsp, %rbp
	.cfi_def_cfa_register %rbp
	subq	$112, %rsp
	movq	%rcx, -112(%rbp)
	movq	%rdx, %rcx
	movq	-112(%rbp), %rdx
	movq	%rsi, -104(%rbp)
	movq	%rdi, %rax
	movq	-104(%rbp), %rdi
	movq	%rcx, -88(%rbp)
	movq	-88(%rbp), %rcx
	movq	%rcx, -96(%rbp)
	movq	%rax, -64(%rbp)
	movq	%rdi, -56(%rbp)
	movq	%rdx, -48(%rbp)
Ltmp942:
	.loc	16 124 74 prologue_end
	movb	$0, -65(%rbp)
	movb	$1, -65(%rbp)
	movq	%rdx, -40(%rbp)
Ltmp943:
	.loc	16 127 21
	movq	%rax, -32(%rbp)
	movq	-32(%rbp), %rax
	movq	%rax, -24(%rbp)
Ltmp944:
	.loc	16 128 26
	movq	-96(%rbp), %rcx
	movq	%rcx, -80(%rbp)
	.loc	16 128 34 is_stmt 0
	movb	$0, -65(%rbp)
	.loc	16 128 17
	movq	-80(%rbp), %rsi
Ltmp939:
	callq	*%rax
Ltmp940:
	jmp	LBB94_3
Ltmp945:
LBB94_1:
	.loc	16 129 13 is_stmt 1
	testb	$1, -65(%rbp)
	jne	LBB94_5
	jmp	LBB94_4
LBB94_2:
Ltmp941:
	.loc	16 0 13 is_stmt 0
	movq	%rax, %rcx
	movl	%edx, %eax
	movq	%rcx, -16(%rbp)
	movl	%eax, -8(%rbp)
	jmp	LBB94_1
LBB94_3:
	.loc	16 129 13
	movb	$0, -65(%rbp)
	.loc	16 129 14
	addq	$112, %rsp
	popq	%rbp
	retq
LBB94_4:
	.loc	16 124 13 is_stmt 1
	movq	-16(%rbp), %rdi
	callq	__Unwind_Resume
LBB94_5:
	.loc	16 129 13
	jmp	LBB94_4
Ltmp946:
Lfunc_end94:
	.cfi_endproc
	.section	__TEXT,__gcc_except_tab
	.p2align	2
GCC_except_table94:
Lexception57:
	.byte	255
	.byte	255
	.byte	1
	.uleb128 Lcst_end57-Lcst_begin57
Lcst_begin57:
	.uleb128 Ltmp939-Lfunc_begin94
	.uleb128 Ltmp940-Ltmp939
	.uleb128 Ltmp941-Lfunc_begin94
	.byte	0
	.uleb128 Ltmp940-Lfunc_begin94
	.uleb128 Lfunc_end94-Ltmp940
	.byte	0
	.byte	0
Lcst_end57:
	.p2align	2

	.section	__TEXT,__text,regular,pure_instructions
	.globl	__ZN64_$LT$$LP$A$C$$RP$$u20$as$u20$objc..message..MessageArguments$GT$6invoke17h2b104c176e05126dE
	.p2align	4, 0x90
__ZN64_$LT$$LP$A$C$$RP$$u20$as$u20$objc..message..MessageArguments$GT$6invoke17h2b104c176e05126dE:
Lfunc_begin95:
	.loc	16 124 0
	.cfi_startproc
	.cfi_personality 155, _rust_eh_personality
	.cfi_lsda 16, Lexception58
	pushq	%rbp
	.cfi_def_cfa_offset 16
	.cfi_offset %rbp, -16
	movq	%rsp, %rbp
	.cfi_def_cfa_register %rbp
	subq	$176, %rsp
	movq	%rcx, -152(%rbp)
	movq	%rdx, %rcx
	movq	-152(%rbp), %rdx
	movq	%rsi, -144(%rbp)
	movq	%rdi, %rax
	movq	-144(%rbp), %rdi
Ltmp950:
	movq	%rcx, -120(%rbp)
	movq	-120(%rbp), %rcx
	movq	%rcx, -128(%rbp)
	movq	%rax, -48(%rbp)
	movq	%rdi, -40(%rbp)
Ltmp951:
	.loc	16 124 74 prologue_end
	movb	$0, -49(%rbp)
	movb	$1, -49(%rbp)
	movq	16(%rdx), %rcx
	movq	%rcx, -96(%rbp)
	movq	(%rdx), %rcx
	movq	8(%rdx), %rdx
Ltmp952:
	movq	%rdx, -104(%rbp)
	movq	%rcx, -112(%rbp)
Ltmp953:
	.loc	16 127 21
	movq	%rax, -32(%rbp)
	movq	-32(%rbp), %rax
	movq	%rax, -24(%rbp)
Ltmp954:
	.loc	16 128 26
	movq	-128(%rbp), %rcx
	movq	%rcx, -88(%rbp)
	.loc	16 128 34 is_stmt 0
	movb	$0, -49(%rbp)
	movq	-96(%rbp), %rcx
	movq	%rcx, -64(%rbp)
	movq	-112(%rbp), %rcx
	movq	-104(%rbp), %rdx
	movq	%rdx, -72(%rbp)
	movq	%rcx, -80(%rbp)
	.loc	16 128 17
	movq	-88(%rbp), %rsi
Ltmp947:
	movq	-64(%rbp), %rdx
	movq	%rsp, %rcx
	movq	%rdx, 16(%rcx)
	movq	-80(%rbp), %rdx
	movq	-72(%rbp), %r8
	movq	%r8, 8(%rcx)
	movq	%rdx, (%rcx)
	callq	*%rax
Ltmp948:
	movb	%al, -129(%rbp)
	jmp	LBB95_3
Ltmp955:
LBB95_1:
	.loc	16 129 13 is_stmt 1
	testb	$1, -49(%rbp)
	jne	LBB95_5
	jmp	LBB95_4
LBB95_2:
Ltmp949:
	.loc	16 0 13 is_stmt 0
	movq	%rax, %rcx
	movl	%edx, %eax
	movq	%rcx, -16(%rbp)
	movl	%eax, -8(%rbp)
	jmp	LBB95_1
LBB95_3:
	movb	-129(%rbp), %al
	.loc	16 129 13
	movb	$0, -49(%rbp)
	.loc	16 129 14
	andb	$1, %al
	movzbl	%al, %eax
	addq	$176, %rsp
	popq	%rbp
	retq
LBB95_4:
	.loc	16 124 13 is_stmt 1
	movq	-16(%rbp), %rdi
	callq	__Unwind_Resume
LBB95_5:
	.loc	16 129 13
	jmp	LBB95_4
Ltmp956:
Lfunc_end95:
	.cfi_endproc
	.section	__TEXT,__gcc_except_tab
	.p2align	2
GCC_except_table95:
Lexception58:
	.byte	255
	.byte	255
	.byte	1
	.uleb128 Lcst_end58-Lcst_begin58
Lcst_begin58:
	.uleb128 Ltmp947-Lfunc_begin95
	.uleb128 Ltmp948-Ltmp947
	.uleb128 Ltmp949-Lfunc_begin95
	.byte	0
	.uleb128 Ltmp948-Lfunc_begin95
	.uleb128 Lfunc_end95-Ltmp948
	.byte	0
	.byte	0
Lcst_end58:
	.p2align	2

	.section	__TEXT,__text,regular,pure_instructions
	.globl	__ZN64_$LT$$LP$A$C$$RP$$u20$as$u20$objc..message..MessageArguments$GT$6invoke17h4225b87657f3d34dE
	.p2align	4, 0x90
__ZN64_$LT$$LP$A$C$$RP$$u20$as$u20$objc..message..MessageArguments$GT$6invoke17h4225b87657f3d34dE:
Lfunc_begin96:
	.loc	16 124 0
	.cfi_startproc
	.cfi_personality 155, _rust_eh_personality
	.cfi_lsda 16, Lexception59
	pushq	%rbp
	.cfi_def_cfa_offset 16
	.cfi_offset %rbp, -16
	movq	%rsp, %rbp
	.cfi_def_cfa_register %rbp
	subq	$128, %rsp
	movq	%rcx, -120(%rbp)
	movq	%rdx, %rcx
	movq	-120(%rbp), %rdx
	movq	%rsi, -112(%rbp)
	movq	%rdi, %rax
	movq	-112(%rbp), %rdi
	movq	%rcx, -88(%rbp)
	movq	-88(%rbp), %rcx
	movq	%rcx, -96(%rbp)
	movq	%rax, -64(%rbp)
	movq	%rdi, -56(%rbp)
	movq	%rdx, -48(%rbp)
Ltmp960:
	.loc	16 124 74 prologue_end
	movb	$0, -65(%rbp)
	movb	$1, -65(%rbp)
	movq	%rdx, -40(%rbp)
Ltmp961:
	.loc	16 127 21
	movq	%rax, -32(%rbp)
	movq	-32(%rbp), %rax
	movq	%rax, -24(%rbp)
Ltmp962:
	.loc	16 128 26
	movq	-96(%rbp), %rcx
	movq	%rcx, -80(%rbp)
	.loc	16 128 34 is_stmt 0
	movb	$0, -65(%rbp)
	.loc	16 128 17
	movq	-80(%rbp), %rsi
Ltmp957:
	callq	*%rax
Ltmp958:
	movq	%rax, -104(%rbp)
	jmp	LBB96_3
Ltmp963:
LBB96_1:
	.loc	16 129 13 is_stmt 1
	testb	$1, -65(%rbp)
	jne	LBB96_5
	jmp	LBB96_4
LBB96_2:
Ltmp959:
	.loc	16 0 13 is_stmt 0
	movq	%rax, %rcx
	movl	%edx, %eax
	movq	%rcx, -16(%rbp)
	movl	%eax, -8(%rbp)
	jmp	LBB96_1
LBB96_3:
	movq	-104(%rbp), %rax
	.loc	16 129 13
	movb	$0, -65(%rbp)
	.loc	16 129 14
	addq	$128, %rsp
	popq	%rbp
	retq
LBB96_4:
	.loc	16 124 13 is_stmt 1
	movq	-16(%rbp), %rdi
	callq	__Unwind_Resume
LBB96_5:
	.loc	16 129 13
	jmp	LBB96_4
Ltmp964:
Lfunc_end96:
	.cfi_endproc
	.section	__TEXT,__gcc_except_tab
	.p2align	2
GCC_except_table96:
Lexception59:
	.byte	255
	.byte	255
	.byte	1
	.uleb128 Lcst_end59-Lcst_begin59
Lcst_begin59:
	.uleb128 Ltmp957-Lfunc_begin96
	.uleb128 Ltmp958-Ltmp957
	.uleb128 Ltmp959-Lfunc_begin96
	.byte	0
	.uleb128 Ltmp958-Lfunc_begin96
	.uleb128 Lfunc_end96-Ltmp958
	.byte	0
	.byte	0
Lcst_end59:
	.p2align	2

	.section	__TEXT,__text,regular,pure_instructions
	.globl	__ZN64_$LT$$LP$A$C$$RP$$u20$as$u20$objc..message..MessageArguments$GT$6invoke17h567f5a3cf5854d94E
	.p2align	4, 0x90
__ZN64_$LT$$LP$A$C$$RP$$u20$as$u20$objc..message..MessageArguments$GT$6invoke17h567f5a3cf5854d94E:
Lfunc_begin97:
	.loc	16 124 0
	.cfi_startproc
	.cfi_personality 155, _rust_eh_personality
	.cfi_lsda 16, Lexception60
	pushq	%rbp
	.cfi_def_cfa_offset 16
	.cfi_offset %rbp, -16
	movq	%rsp, %rbp
	.cfi_def_cfa_register %rbp
	subq	$112, %rsp
	movq	%rcx, -112(%rbp)
	movq	%rdx, %rcx
	movq	-112(%rbp), %rdx
	movq	%rsi, -104(%rbp)
	movq	%rdi, %rax
	movq	-104(%rbp), %rdi
	movq	%rcx, -88(%rbp)
	movq	-88(%rbp), %rcx
	movq	%rcx, -96(%rbp)
	movq	%rax, -64(%rbp)
	movq	%rdi, -56(%rbp)
	movq	%rdx, -48(%rbp)
Ltmp968:
	.loc	16 124 74 prologue_end
	movb	$0, -65(%rbp)
	movb	$1, -65(%rbp)
	movq	%rdx, -40(%rbp)
Ltmp969:
	.loc	16 127 21
	movq	%rax, -32(%rbp)
	movq	-32(%rbp), %rax
	movq	%rax, -24(%rbp)
Ltmp970:
	.loc	16 128 26
	movq	-96(%rbp), %rcx
	movq	%rcx, -80(%rbp)
	.loc	16 128 34 is_stmt 0
	movb	$0, -65(%rbp)
	.loc	16 128 17
	movq	-80(%rbp), %rsi
Ltmp965:
	callq	*%rax
Ltmp966:
	jmp	LBB97_3
Ltmp971:
LBB97_1:
	.loc	16 129 13 is_stmt 1
	testb	$1, -65(%rbp)
	jne	LBB97_5
	jmp	LBB97_4
LBB97_2:
Ltmp967:
	.loc	16 0 13 is_stmt 0
	movq	%rax, %rcx
	movl	%edx, %eax
	movq	%rcx, -16(%rbp)
	movl	%eax, -8(%rbp)
	jmp	LBB97_1
LBB97_3:
	.loc	16 129 13
	movb	$0, -65(%rbp)
	.loc	16 129 14
	addq	$112, %rsp
	popq	%rbp
	retq
LBB97_4:
	.loc	16 124 13 is_stmt 1
	movq	-16(%rbp), %rdi
	callq	__Unwind_Resume
LBB97_5:
	.loc	16 129 13
	jmp	LBB97_4
Ltmp972:
Lfunc_end97:
	.cfi_endproc
	.section	__TEXT,__gcc_except_tab
	.p2align	2
GCC_except_table97:
Lexception60:
	.byte	255
	.byte	255
	.byte	1
	.uleb128 Lcst_end60-Lcst_begin60
Lcst_begin60:
	.uleb128 Ltmp965-Lfunc_begin97
	.uleb128 Ltmp966-Ltmp965
	.uleb128 Ltmp967-Lfunc_begin97
	.byte	0
	.uleb128 Ltmp966-Lfunc_begin97
	.uleb128 Lfunc_end97-Ltmp966
	.byte	0
	.byte	0
Lcst_end60:
	.p2align	2

	.section	__TEXT,__text,regular,pure_instructions
	.globl	__ZN64_$LT$$LP$A$C$$RP$$u20$as$u20$objc..message..MessageArguments$GT$6invoke17h805f74a0e2b89c94E
	.p2align	4, 0x90
__ZN64_$LT$$LP$A$C$$RP$$u20$as$u20$objc..message..MessageArguments$GT$6invoke17h805f74a0e2b89c94E:
Lfunc_begin98:
	.loc	16 124 0
	.cfi_startproc
	.cfi_personality 155, _rust_eh_personality
	.cfi_lsda 16, Lexception61
	pushq	%rbp
	.cfi_def_cfa_offset 16
	.cfi_offset %rbp, -16
	movq	%rsp, %rbp
	.cfi_def_cfa_register %rbp
	subq	$128, %rsp
	movq	%rcx, -120(%rbp)
	movq	%rdx, %rcx
	movq	-120(%rbp), %rdx
	movq	%rsi, -112(%rbp)
	movq	%rdi, %rax
	movq	-112(%rbp), %rdi
	movq	%rcx, -88(%rbp)
	movq	-88(%rbp), %rcx
	movq	%rcx, -96(%rbp)
	movq	%rax, -64(%rbp)
	movq	%rdi, -56(%rbp)
	movq	%rdx, -48(%rbp)
Ltmp976:
	.loc	16 124 74 prologue_end
	movb	$0, -65(%rbp)
	movb	$1, -65(%rbp)
	movq	%rdx, -40(%rbp)
Ltmp977:
	.loc	16 127 21
	movq	%rax, -32(%rbp)
	movq	-32(%rbp), %rax
	movq	%rax, -24(%rbp)
Ltmp978:
	.loc	16 128 26
	movq	-96(%rbp), %rcx
	movq	%rcx, -80(%rbp)
	.loc	16 128 34 is_stmt 0
	movb	$0, -65(%rbp)
	.loc	16 128 17
	movq	-80(%rbp), %rsi
Ltmp973:
	callq	*%rax
Ltmp974:
	movq	%rax, -104(%rbp)
	jmp	LBB98_3
Ltmp979:
LBB98_1:
	.loc	16 129 13 is_stmt 1
	testb	$1, -65(%rbp)
	jne	LBB98_5
	jmp	LBB98_4
LBB98_2:
Ltmp975:
	.loc	16 0 13 is_stmt 0
	movq	%rax, %rcx
	movl	%edx, %eax
	movq	%rcx, -16(%rbp)
	movl	%eax, -8(%rbp)
	jmp	LBB98_1
LBB98_3:
	movq	-104(%rbp), %rax
	.loc	16 129 13
	movb	$0, -65(%rbp)
	.loc	16 129 14
	addq	$128, %rsp
	popq	%rbp
	retq
LBB98_4:
	.loc	16 124 13 is_stmt 1
	movq	-16(%rbp), %rdi
	callq	__Unwind_Resume
LBB98_5:
	.loc	16 129 13
	jmp	LBB98_4
Ltmp980:
Lfunc_end98:
	.cfi_endproc
	.section	__TEXT,__gcc_except_tab
	.p2align	2
GCC_except_table98:
Lexception61:
	.byte	255
	.byte	255
	.byte	1
	.uleb128 Lcst_end61-Lcst_begin61
Lcst_begin61:
	.uleb128 Ltmp973-Lfunc_begin98
	.uleb128 Ltmp974-Ltmp973
	.uleb128 Ltmp975-Lfunc_begin98
	.byte	0
	.uleb128 Ltmp974-Lfunc_begin98
	.uleb128 Lfunc_end98-Ltmp974
	.byte	0
	.byte	0
Lcst_end61:
	.p2align	2

	.section	__TEXT,__text,regular,pure_instructions
	.globl	__ZN64_$LT$$LP$A$C$$RP$$u20$as$u20$objc..message..MessageArguments$GT$6invoke17hafe6d9860340a1b5E
	.p2align	4, 0x90
__ZN64_$LT$$LP$A$C$$RP$$u20$as$u20$objc..message..MessageArguments$GT$6invoke17hafe6d9860340a1b5E:
Lfunc_begin99:
	.loc	16 124 0
	.cfi_startproc
	.cfi_personality 155, _rust_eh_personality
	.cfi_lsda 16, Lexception62
	pushq	%rbp
	.cfi_def_cfa_offset 16
	.cfi_offset %rbp, -16
	movq	%rsp, %rbp
	.cfi_def_cfa_register %rbp
	subq	$128, %rsp
	movq	%rcx, -120(%rbp)
	movq	%rdx, %rcx
	movq	-120(%rbp), %rdx
	movq	%rsi, -112(%rbp)
	movq	%rdi, %rax
	movq	-112(%rbp), %rdi
	movq	%rcx, -88(%rbp)
	movq	-88(%rbp), %rcx
	movq	%rcx, -96(%rbp)
	movq	%rax, -64(%rbp)
	movq	%rdi, -56(%rbp)
	movq	%rdx, -48(%rbp)
Ltmp984:
	.loc	16 124 74 prologue_end
	movb	$0, -65(%rbp)
	movb	$1, -65(%rbp)
	movq	%rdx, -40(%rbp)
Ltmp985:
	.loc	16 127 21
	movq	%rax, -32(%rbp)
	movq	-32(%rbp), %rax
	movq	%rax, -24(%rbp)
Ltmp986:
	.loc	16 128 26
	movq	-96(%rbp), %rcx
	movq	%rcx, -80(%rbp)
	.loc	16 128 34 is_stmt 0
	movb	$0, -65(%rbp)
	.loc	16 128 17
	movq	-80(%rbp), %rsi
Ltmp981:
	callq	*%rax
Ltmp982:
	movq	%rax, -104(%rbp)
	jmp	LBB99_3
Ltmp987:
LBB99_1:
	.loc	16 129 13 is_stmt 1
	testb	$1, -65(%rbp)
	jne	LBB99_5
	jmp	LBB99_4
LBB99_2:
Ltmp983:
	.loc	16 0 13 is_stmt 0
	movq	%rax, %rcx
	movl	%edx, %eax
	movq	%rcx, -16(%rbp)
	movl	%eax, -8(%rbp)
	jmp	LBB99_1
LBB99_3:
	movq	-104(%rbp), %rax
	.loc	16 129 13
	movb	$0, -65(%rbp)
	.loc	16 129 14
	addq	$128, %rsp
	popq	%rbp
	retq
LBB99_4:
	.loc	16 124 13 is_stmt 1
	movq	-16(%rbp), %rdi
	callq	__Unwind_Resume
LBB99_5:
	.loc	16 129 13
	jmp	LBB99_4
Ltmp988:
Lfunc_end99:
	.cfi_endproc
	.section	__TEXT,__gcc_except_tab
	.p2align	2
GCC_except_table99:
Lexception62:
	.byte	255
	.byte	255
	.byte	1
	.uleb128 Lcst_end62-Lcst_begin62
Lcst_begin62:
	.uleb128 Ltmp981-Lfunc_begin99
	.uleb128 Ltmp982-Ltmp981
	.uleb128 Ltmp983-Lfunc_begin99
	.byte	0
	.uleb128 Ltmp982-Lfunc_begin99
	.uleb128 Lfunc_end99-Ltmp982
	.byte	0
	.byte	0
Lcst_end62:
	.p2align	2

	.section	__TEXT,__text,regular,pure_instructions
	.globl	__ZN64_$LT$$LP$A$C$$RP$$u20$as$u20$objc..message..MessageArguments$GT$6invoke17hb8440e4ce95fc7e2E
	.p2align	4, 0x90
__ZN64_$LT$$LP$A$C$$RP$$u20$as$u20$objc..message..MessageArguments$GT$6invoke17hb8440e4ce95fc7e2E:
Lfunc_begin100:
	.loc	16 124 0
	.cfi_startproc
	.cfi_personality 155, _rust_eh_personality
	.cfi_lsda 16, Lexception63
	pushq	%rbp
	.cfi_def_cfa_offset 16
	.cfi_offset %rbp, -16
	movq	%rsp, %rbp
	.cfi_def_cfa_register %rbp
	subq	$144, %rsp
	movq	%rsi, -144(%rbp)
	movq	%rdi, %rax
	movq	-144(%rbp), %rdi
	movq	%rdx, -120(%rbp)
	movq	-120(%rbp), %rdx
	movq	%rdx, -128(%rbp)
	movq	%rax, -96(%rbp)
	movq	%rdi, -88(%rbp)
	movq	%rcx, -80(%rbp)
	movq	%r8, -72(%rbp)
Ltmp992:
	.loc	16 124 74 prologue_end
	movb	$0, -97(%rbp)
	movb	$1, -97(%rbp)
	movq	%rcx, -64(%rbp)
	movq	%r8, -56(%rbp)
Ltmp993:
	.loc	16 127 21
	movq	%rax, -48(%rbp)
	movq	-48(%rbp), %rax
	movq	%rax, -40(%rbp)
Ltmp994:
	.loc	16 128 26
	movq	-128(%rbp), %rdx
	movq	%rdx, -112(%rbp)
	.loc	16 128 34 is_stmt 0
	movb	$0, -97(%rbp)
	.loc	16 128 17
	movq	-112(%rbp), %rsi
	movq	%rcx, -32(%rbp)
	movq	%r8, -24(%rbp)
	movq	-32(%rbp), %rdx
	movq	-24(%rbp), %rcx
Ltmp989:
	callq	*%rax
Ltmp990:
	movq	%rax, -136(%rbp)
	jmp	LBB100_3
Ltmp995:
LBB100_1:
	.loc	16 129 13 is_stmt 1
	testb	$1, -97(%rbp)
	jne	LBB100_5
	jmp	LBB100_4
LBB100_2:
Ltmp991:
	.loc	16 0 13 is_stmt 0
	movq	%rax, %rcx
	movl	%edx, %eax
	movq	%rcx, -16(%rbp)
	movl	%eax, -8(%rbp)
	jmp	LBB100_1
LBB100_3:
	movq	-136(%rbp), %rax
	.loc	16 129 13
	movb	$0, -97(%rbp)
	.loc	16 129 14
	addq	$144, %rsp
	popq	%rbp
	retq
LBB100_4:
	.loc	16 124 13 is_stmt 1
	movq	-16(%rbp), %rdi
	callq	__Unwind_Resume
LBB100_5:
	.loc	16 129 13
	jmp	LBB100_4
Ltmp996:
Lfunc_end100:
	.cfi_endproc
	.section	__TEXT,__gcc_except_tab
	.p2align	2
GCC_except_table100:
Lexception63:
	.byte	255
	.byte	255
	.byte	1
	.uleb128 Lcst_end63-Lcst_begin63
Lcst_begin63:
	.uleb128 Ltmp989-Lfunc_begin100
	.uleb128 Ltmp990-Ltmp989
	.uleb128 Ltmp991-Lfunc_begin100
	.byte	0
	.uleb128 Ltmp990-Lfunc_begin100
	.uleb128 Lfunc_end100-Ltmp990
	.byte	0
	.byte	0
Lcst_end63:
	.p2align	2

	.section	__TEXT,__text,regular,pure_instructions
	.globl	__ZN64_$LT$$LP$A$C$$RP$$u20$as$u20$objc..message..MessageArguments$GT$6invoke17hbc7f404fa79d1cc5E
	.p2align	4, 0x90
__ZN64_$LT$$LP$A$C$$RP$$u20$as$u20$objc..message..MessageArguments$GT$6invoke17hbc7f404fa79d1cc5E:
Lfunc_begin101:
	.loc	16 124 0
	.cfi_startproc
	.cfi_personality 155, _rust_eh_personality
	.cfi_lsda 16, Lexception64
	pushq	%rbp
	.cfi_def_cfa_offset 16
	.cfi_offset %rbp, -16
	movq	%rsp, %rbp
	.cfi_def_cfa_register %rbp
	subq	$128, %rsp
	movq	%rcx, -120(%rbp)
	movq	%rdx, %rcx
	movq	-120(%rbp), %rdx
	movq	%rsi, -112(%rbp)
	movq	%rdi, %rax
	movq	-112(%rbp), %rdi
	movq	%rcx, -88(%rbp)
	movq	-88(%rbp), %rcx
	movq	%rcx, -96(%rbp)
	movq	%rax, -64(%rbp)
	movq	%rdi, -56(%rbp)
	movq	%rdx, -48(%rbp)
Ltmp1000:
	.loc	16 124 74 prologue_end
	movb	$0, -65(%rbp)
	movb	$1, -65(%rbp)
	movq	%rdx, -40(%rbp)
Ltmp1001:
	.loc	16 127 21
	movq	%rax, -32(%rbp)
	movq	-32(%rbp), %rax
	movq	%rax, -24(%rbp)
Ltmp1002:
	.loc	16 128 26
	movq	-96(%rbp), %rcx
	movq	%rcx, -80(%rbp)
	.loc	16 128 34 is_stmt 0
	movb	$0, -65(%rbp)
	.loc	16 128 17
	movq	-80(%rbp), %rsi
Ltmp997:
	callq	*%rax
Ltmp998:
	movq	%rax, -104(%rbp)
	jmp	LBB101_3
Ltmp1003:
LBB101_1:
	.loc	16 129 13 is_stmt 1
	testb	$1, -65(%rbp)
	jne	LBB101_5
	jmp	LBB101_4
LBB101_2:
Ltmp999:
	.loc	16 0 13 is_stmt 0
	movq	%rax, %rcx
	movl	%edx, %eax
	movq	%rcx, -16(%rbp)
	movl	%eax, -8(%rbp)
	jmp	LBB101_1
LBB101_3:
	movq	-104(%rbp), %rax
	.loc	16 129 13
	movb	$0, -65(%rbp)
	.loc	16 129 14
	addq	$128, %rsp
	popq	%rbp
	retq
LBB101_4:
	.loc	16 124 13 is_stmt 1
	movq	-16(%rbp), %rdi
	callq	__Unwind_Resume
LBB101_5:
	.loc	16 129 13
	jmp	LBB101_4
Ltmp1004:
Lfunc_end101:
	.cfi_endproc
	.section	__TEXT,__gcc_except_tab
	.p2align	2
GCC_except_table101:
Lexception64:
	.byte	255
	.byte	255
	.byte	1
	.uleb128 Lcst_end64-Lcst_begin64
Lcst_begin64:
	.uleb128 Ltmp997-Lfunc_begin101
	.uleb128 Ltmp998-Ltmp997
	.uleb128 Ltmp999-Lfunc_begin101
	.byte	0
	.uleb128 Ltmp998-Lfunc_begin101
	.uleb128 Lfunc_end101-Ltmp998
	.byte	0
	.byte	0
Lcst_end64:
	.p2align	2

	.section	__TEXT,__text,regular,pure_instructions
	.globl	__ZN64_$LT$$LP$A$C$$RP$$u20$as$u20$objc..message..MessageArguments$GT$6invoke17hca5b701b2e7827f7E
	.p2align	4, 0x90
__ZN64_$LT$$LP$A$C$$RP$$u20$as$u20$objc..message..MessageArguments$GT$6invoke17hca5b701b2e7827f7E:
Lfunc_begin102:
	.loc	16 124 0
	.cfi_startproc
	.cfi_personality 155, _rust_eh_personality
	.cfi_lsda 16, Lexception65
	pushq	%rbp
	.cfi_def_cfa_offset 16
	.cfi_offset %rbp, -16
	movq	%rsp, %rbp
	.cfi_def_cfa_register %rbp
	subq	$128, %rsp
	movq	%rcx, -120(%rbp)
	movq	%rdx, %rcx
	movq	-120(%rbp), %rdx
	movq	%rsi, -112(%rbp)
	movq	%rdi, %rax
	movq	-112(%rbp), %rdi
	movq	%rcx, -88(%rbp)
	movq	-88(%rbp), %rcx
	movq	%rcx, -96(%rbp)
	movq	%rax, -64(%rbp)
	movq	%rdi, -56(%rbp)
	movq	%rdx, -48(%rbp)
Ltmp1008:
	.loc	16 124 74 prologue_end
	movb	$0, -65(%rbp)
	movb	$1, -65(%rbp)
	movq	%rdx, -40(%rbp)
Ltmp1009:
	.loc	16 127 21
	movq	%rax, -32(%rbp)
	movq	-32(%rbp), %rax
	movq	%rax, -24(%rbp)
Ltmp1010:
	.loc	16 128 26
	movq	-96(%rbp), %rcx
	movq	%rcx, -80(%rbp)
	.loc	16 128 34 is_stmt 0
	movb	$0, -65(%rbp)
	.loc	16 128 17
	movq	-80(%rbp), %rsi
Ltmp1005:
	callq	*%rax
Ltmp1006:
	movq	%rax, -104(%rbp)
	jmp	LBB102_3
Ltmp1011:
LBB102_1:
	.loc	16 129 13 is_stmt 1
	testb	$1, -65(%rbp)
	jne	LBB102_5
	jmp	LBB102_4
LBB102_2:
Ltmp1007:
	.loc	16 0 13 is_stmt 0
	movq	%rax, %rcx
	movl	%edx, %eax
	movq	%rcx, -16(%rbp)
	movl	%eax, -8(%rbp)
	jmp	LBB102_1
LBB102_3:
	movq	-104(%rbp), %rax
	.loc	16 129 13
	movb	$0, -65(%rbp)
	.loc	16 129 14
	addq	$128, %rsp
	popq	%rbp
	retq
LBB102_4:
	.loc	16 124 13 is_stmt 1
	movq	-16(%rbp), %rdi
	callq	__Unwind_Resume
LBB102_5:
	.loc	16 129 13
	jmp	LBB102_4
Ltmp1012:
Lfunc_end102:
	.cfi_endproc
	.section	__TEXT,__gcc_except_tab
	.p2align	2
GCC_except_table102:
Lexception65:
	.byte	255
	.byte	255
	.byte	1
	.uleb128 Lcst_end65-Lcst_begin65
Lcst_begin65:
	.uleb128 Ltmp1005-Lfunc_begin102
	.uleb128 Ltmp1006-Ltmp1005
	.uleb128 Ltmp1007-Lfunc_begin102
	.byte	0
	.uleb128 Ltmp1006-Lfunc_begin102
	.uleb128 Lfunc_end102-Ltmp1006
	.byte	0
	.byte	0
Lcst_end65:
	.p2align	2

	.section	__TEXT,__text,regular,pure_instructions
	.globl	__ZN64_$LT$$LP$A$C$$RP$$u20$as$u20$objc..message..MessageArguments$GT$6invoke17hcaba6ff24ccc2d7bE
	.p2align	4, 0x90
__ZN64_$LT$$LP$A$C$$RP$$u20$as$u20$objc..message..MessageArguments$GT$6invoke17hcaba6ff24ccc2d7bE:
Lfunc_begin103:
	.loc	16 124 0
	.cfi_startproc
	.cfi_personality 155, _rust_eh_personality
	.cfi_lsda 16, Lexception66
	pushq	%rbp
	.cfi_def_cfa_offset 16
	.cfi_offset %rbp, -16
	movq	%rsp, %rbp
	.cfi_def_cfa_register %rbp
	subq	$112, %rsp
	movq	%rcx, -112(%rbp)
	movq	%rdx, %rcx
	movq	-112(%rbp), %rdx
	movq	%rsi, -104(%rbp)
	movq	%rdi, %rax
	movq	-104(%rbp), %rdi
	movq	%rcx, -88(%rbp)
	movq	-88(%rbp), %rcx
	movq	%rcx, -96(%rbp)
	movq	%rax, -64(%rbp)
	movq	%rdi, -56(%rbp)
	movq	%rdx, -48(%rbp)
Ltmp1016:
	.loc	16 124 74 prologue_end
	movb	$0, -65(%rbp)
	movb	$1, -65(%rbp)
	movq	%rdx, -40(%rbp)
Ltmp1017:
	.loc	16 127 21
	movq	%rax, -32(%rbp)
	movq	-32(%rbp), %rax
	movq	%rax, -24(%rbp)
Ltmp1018:
	.loc	16 128 26
	movq	-96(%rbp), %rcx
	movq	%rcx, -80(%rbp)
	.loc	16 128 34 is_stmt 0
	movb	$0, -65(%rbp)
	.loc	16 128 17
	movq	-80(%rbp), %rsi
Ltmp1013:
	callq	*%rax
Ltmp1014:
	jmp	LBB103_3
Ltmp1019:
LBB103_1:
	.loc	16 129 13 is_stmt 1
	testb	$1, -65(%rbp)
	jne	LBB103_5
	jmp	LBB103_4
LBB103_2:
Ltmp1015:
	.loc	16 0 13 is_stmt 0
	movq	%rax, %rcx
	movl	%edx, %eax
	movq	%rcx, -16(%rbp)
	movl	%eax, -8(%rbp)
	jmp	LBB103_1
LBB103_3:
	.loc	16 129 13
	movb	$0, -65(%rbp)
	.loc	16 129 14
	addq	$112, %rsp
	popq	%rbp
	retq
LBB103_4:
	.loc	16 124 13 is_stmt 1
	movq	-16(%rbp), %rdi
	callq	__Unwind_Resume
LBB103_5:
	.loc	16 129 13
	jmp	LBB103_4
Ltmp1020:
Lfunc_end103:
	.cfi_endproc
	.section	__TEXT,__gcc_except_tab
	.p2align	2
GCC_except_table103:
Lexception66:
	.byte	255
	.byte	255
	.byte	1
	.uleb128 Lcst_end66-Lcst_begin66
Lcst_begin66:
	.uleb128 Ltmp1013-Lfunc_begin103
	.uleb128 Ltmp1014-Ltmp1013
	.uleb128 Ltmp1015-Lfunc_begin103
	.byte	0
	.uleb128 Ltmp1014-Lfunc_begin103
	.uleb128 Lfunc_end103-Ltmp1014
	.byte	0
	.byte	0
Lcst_end66:
	.p2align	2

	.section	__TEXT,__text,regular,pure_instructions
	.globl	__ZN64_$LT$$LP$A$C$$RP$$u20$as$u20$objc..message..MessageArguments$GT$6invoke17hcac31fecdd20d669E
	.p2align	4, 0x90
__ZN64_$LT$$LP$A$C$$RP$$u20$as$u20$objc..message..MessageArguments$GT$6invoke17hcac31fecdd20d669E:
Lfunc_begin104:
	.loc	16 124 0
	.cfi_startproc
	.cfi_personality 155, _rust_eh_personality
	.cfi_lsda 16, Lexception67
	pushq	%rbp
	.cfi_def_cfa_offset 16
	.cfi_offset %rbp, -16
	movq	%rsp, %rbp
	.cfi_def_cfa_register %rbp
	subq	$128, %rsp
	movq	%rcx, -120(%rbp)
	movq	%rdx, %rcx
	movq	-120(%rbp), %rdx
	movq	%rsi, -112(%rbp)
	movq	%rdi, %rax
	movq	-112(%rbp), %rdi
	movq	%rcx, -88(%rbp)
	movq	-88(%rbp), %rcx
	movq	%rcx, -96(%rbp)
	movq	%rax, -64(%rbp)
	movq	%rdi, -56(%rbp)
	movq	%rdx, -48(%rbp)
Ltmp1024:
	.loc	16 124 74 prologue_end
	movb	$0, -65(%rbp)
	movb	$1, -65(%rbp)
	movq	%rdx, -40(%rbp)
Ltmp1025:
	.loc	16 127 21
	movq	%rax, -32(%rbp)
	movq	-32(%rbp), %rax
	movq	%rax, -24(%rbp)
Ltmp1026:
	.loc	16 128 26
	movq	-96(%rbp), %rcx
	movq	%rcx, -80(%rbp)
	.loc	16 128 34 is_stmt 0
	movb	$0, -65(%rbp)
	.loc	16 128 17
	movq	-80(%rbp), %rsi
Ltmp1021:
	callq	*%rax
Ltmp1022:
	movq	%rax, -104(%rbp)
	jmp	LBB104_3
Ltmp1027:
LBB104_1:
	.loc	16 129 13 is_stmt 1
	testb	$1, -65(%rbp)
	jne	LBB104_5
	jmp	LBB104_4
LBB104_2:
Ltmp1023:
	.loc	16 0 13 is_stmt 0
	movq	%rax, %rcx
	movl	%edx, %eax
	movq	%rcx, -16(%rbp)
	movl	%eax, -8(%rbp)
	jmp	LBB104_1
LBB104_3:
	movq	-104(%rbp), %rax
	.loc	16 129 13
	movb	$0, -65(%rbp)
	.loc	16 129 14
	addq	$128, %rsp
	popq	%rbp
	retq
LBB104_4:
	.loc	16 124 13 is_stmt 1
	movq	-16(%rbp), %rdi
	callq	__Unwind_Resume
LBB104_5:
	.loc	16 129 13
	jmp	LBB104_4
Ltmp1028:
Lfunc_end104:
	.cfi_endproc
	.section	__TEXT,__gcc_except_tab
	.p2align	2
GCC_except_table104:
Lexception67:
	.byte	255
	.byte	255
	.byte	1
	.uleb128 Lcst_end67-Lcst_begin67
Lcst_begin67:
	.uleb128 Ltmp1021-Lfunc_begin104
	.uleb128 Ltmp1022-Ltmp1021
	.uleb128 Ltmp1023-Lfunc_begin104
	.byte	0
	.uleb128 Ltmp1022-Lfunc_begin104
	.uleb128 Lfunc_end104-Ltmp1022
	.byte	0
	.byte	0
Lcst_end67:
	.p2align	2

	.section	__TEXT,__text,regular,pure_instructions
	.globl	__ZN64_$LT$$LP$A$C$$RP$$u20$as$u20$objc..message..MessageArguments$GT$6invoke17hd370a7e30297c86eE
	.p2align	4, 0x90
__ZN64_$LT$$LP$A$C$$RP$$u20$as$u20$objc..message..MessageArguments$GT$6invoke17hd370a7e30297c86eE:
Lfunc_begin105:
	.loc	16 124 0
	.cfi_startproc
	.cfi_personality 155, _rust_eh_personality
	.cfi_lsda 16, Lexception68
	pushq	%rbp
	.cfi_def_cfa_offset 16
	.cfi_offset %rbp, -16
	movq	%rsp, %rbp
	.cfi_def_cfa_register %rbp
	subq	$128, %rsp
	movq	%rcx, -120(%rbp)
	movq	%rdx, %rcx
	movq	-120(%rbp), %rdx
	movq	%rsi, -112(%rbp)
	movq	%rdi, %rax
	movq	-112(%rbp), %rdi
	movq	%rcx, -88(%rbp)
	movq	-88(%rbp), %rcx
	movq	%rcx, -96(%rbp)
	movq	%rax, -64(%rbp)
	movq	%rdi, -56(%rbp)
	movq	%rdx, -48(%rbp)
Ltmp1032:
	.loc	16 124 74 prologue_end
	movb	$0, -65(%rbp)
	movb	$1, -65(%rbp)
	movq	%rdx, -40(%rbp)
Ltmp1033:
	.loc	16 127 21
	movq	%rax, -32(%rbp)
	movq	-32(%rbp), %rax
	movq	%rax, -24(%rbp)
Ltmp1034:
	.loc	16 128 26
	movq	-96(%rbp), %rcx
	movq	%rcx, -80(%rbp)
	.loc	16 128 34 is_stmt 0
	movb	$0, -65(%rbp)
	.loc	16 128 17
	movq	-80(%rbp), %rsi
Ltmp1029:
	callq	*%rax
Ltmp1030:
	movb	%al, -97(%rbp)
	jmp	LBB105_3
Ltmp1035:
LBB105_1:
	.loc	16 129 13 is_stmt 1
	testb	$1, -65(%rbp)
	jne	LBB105_5
	jmp	LBB105_4
LBB105_2:
Ltmp1031:
	.loc	16 0 13 is_stmt 0
	movq	%rax, %rcx
	movl	%edx, %eax
	movq	%rcx, -16(%rbp)
	movl	%eax, -8(%rbp)
	jmp	LBB105_1
LBB105_3:
	movb	-97(%rbp), %al
	.loc	16 129 13
	movb	$0, -65(%rbp)
	.loc	16 129 14
	addq	$128, %rsp
	popq	%rbp
	retq
LBB105_4:
	.loc	16 124 13 is_stmt 1
	movq	-16(%rbp), %rdi
	callq	__Unwind_Resume
LBB105_5:
	.loc	16 129 13
	jmp	LBB105_4
Ltmp1036:
Lfunc_end105:
	.cfi_endproc
	.section	__TEXT,__gcc_except_tab
	.p2align	2
GCC_except_table105:
Lexception68:
	.byte	255
	.byte	255
	.byte	1
	.uleb128 Lcst_end68-Lcst_begin68
Lcst_begin68:
	.uleb128 Ltmp1029-Lfunc_begin105
	.uleb128 Ltmp1030-Ltmp1029
	.uleb128 Ltmp1031-Lfunc_begin105
	.byte	0
	.uleb128 Ltmp1030-Lfunc_begin105
	.uleb128 Lfunc_end105-Ltmp1030
	.byte	0
	.byte	0
Lcst_end68:
	.p2align	2

	.section	__TEXT,__text,regular,pure_instructions
	.globl	__ZN64_$LT$$LP$A$C$$RP$$u20$as$u20$objc..message..MessageArguments$GT$6invoke17hf94c56bc42adc5a0E
	.p2align	4, 0x90
__ZN64_$LT$$LP$A$C$$RP$$u20$as$u20$objc..message..MessageArguments$GT$6invoke17hf94c56bc42adc5a0E:
Lfunc_begin106:
	.loc	16 124 0
	.cfi_startproc
	.cfi_personality 155, _rust_eh_personality
	.cfi_lsda 16, Lexception69
	pushq	%rbp
	.cfi_def_cfa_offset 16
	.cfi_offset %rbp, -16
	movq	%rsp, %rbp
	.cfi_def_cfa_register %rbp
	subq	$128, %rsp
	movq	%rsi, -128(%rbp)
	movq	%rdi, %rax
	movq	-128(%rbp), %rdi
	movq	%rdx, -104(%rbp)
	movq	-104(%rbp), %rdx
	movq	%rdx, -112(%rbp)
	movq	%rcx, -88(%rbp)
	movq	-88(%rbp), %rcx
	movq	%rcx, -96(%rbp)
	movq	%rax, -48(%rbp)
	movq	%rdi, -40(%rbp)
Ltmp1040:
	.loc	16 124 74 prologue_end
	movb	$0, -49(%rbp)
	movb	$1, -49(%rbp)
	movq	-96(%rbp), %rcx
	movq	%rcx, -80(%rbp)
Ltmp1041:
	.loc	16 127 21
	movq	%rax, -32(%rbp)
	movq	-32(%rbp), %rax
	movq	%rax, -24(%rbp)
Ltmp1042:
	.loc	16 128 26
	movq	-112(%rbp), %rcx
	movq	%rcx, -72(%rbp)
	.loc	16 128 34 is_stmt 0
	movb	$0, -49(%rbp)
	movq	-80(%rbp), %rcx
	movq	%rcx, -64(%rbp)
	.loc	16 128 17
	movq	-72(%rbp), %rsi
	movq	-64(%rbp), %rdx
Ltmp1037:
	callq	*%rax
Ltmp1038:
	movq	%rax, -120(%rbp)
	jmp	LBB106_3
Ltmp1043:
LBB106_1:
	.loc	16 129 13 is_stmt 1
	testb	$1, -49(%rbp)
	jne	LBB106_5
	jmp	LBB106_4
LBB106_2:
Ltmp1039:
	.loc	16 0 13 is_stmt 0
	movq	%rax, %rcx
	movl	%edx, %eax
	movq	%rcx, -16(%rbp)
	movl	%eax, -8(%rbp)
	jmp	LBB106_1
LBB106_3:
	movq	-120(%rbp), %rax
	.loc	16 129 13
	movb	$0, -49(%rbp)
	.loc	16 129 14
	addq	$128, %rsp
	popq	%rbp
	retq
LBB106_4:
	.loc	16 124 13 is_stmt 1
	movq	-16(%rbp), %rdi
	callq	__Unwind_Resume
LBB106_5:
	.loc	16 129 13
	jmp	LBB106_4
Ltmp1044:
Lfunc_end106:
	.cfi_endproc
	.section	__TEXT,__gcc_except_tab
	.p2align	2
GCC_except_table106:
Lexception69:
	.byte	255
	.byte	255
	.byte	1
	.uleb128 Lcst_end69-Lcst_begin69
Lcst_begin69:
	.uleb128 Ltmp1037-Lfunc_begin106
	.uleb128 Ltmp1038-Ltmp1037
	.uleb128 Ltmp1039-Lfunc_begin106
	.byte	0
	.uleb128 Ltmp1038-Lfunc_begin106
	.uleb128 Lfunc_end106-Ltmp1038
	.byte	0
	.byte	0
Lcst_end69:
	.p2align	2

	.section	__TEXT,__text,regular,pure_instructions
	.globl	__ZN65_$LT$$LP$A$C$B$RP$$u20$as$u20$objc..message..MessageArguments$GT$6invoke17h3f530b1873e11a4bE
	.p2align	4, 0x90
__ZN65_$LT$$LP$A$C$B$RP$$u20$as$u20$objc..message..MessageArguments$GT$6invoke17h3f530b1873e11a4bE:
Lfunc_begin107:
	.loc	16 124 0
	.cfi_startproc
	.cfi_personality 155, _rust_eh_personality
	.cfi_lsda 16, Lexception70
	pushq	%rbp
	.cfi_def_cfa_offset 16
	.cfi_offset %rbp, -16
	movq	%rsp, %rbp
	.cfi_def_cfa_register %rbp
	subq	$144, %rsp
	movq	%r8, -144(%rbp)
	movq	%rcx, %rax
	movq	-144(%rbp), %rcx
	movq	%rax, -136(%rbp)
	movq	%rdx, %rax
	movq	-136(%rbp), %rdx
	movq	%rax, -128(%rbp)
	movq	%rsi, %rax
	movq	-128(%rbp), %rsi
	movq	%rax, -120(%rbp)
	movq	%rdi, %rax
	movq	-120(%rbp), %rdi
	movq	%rsi, -104(%rbp)
	movq	-104(%rbp), %rsi
	movq	%rsi, -112(%rbp)
	movq	%rax, -80(%rbp)
	movq	%rdi, -72(%rbp)
	movq	%rdx, -64(%rbp)
	movq	%rcx, -56(%rbp)
Ltmp1048:
	.loc	16 124 74 prologue_end
	movb	$0, -81(%rbp)
	movb	$0, -82(%rbp)
	movb	$1, -81(%rbp)
	movq	%rdx, -48(%rbp)
	movb	$1, -82(%rbp)
	movq	%rcx, -40(%rbp)
Ltmp1049:
	.loc	16 127 21
	movq	%rax, -32(%rbp)
	movq	-32(%rbp), %rax
	movq	%rax, -24(%rbp)
Ltmp1050:
	.loc	16 128 26
	movq	-112(%rbp), %rsi
	movq	%rsi, -96(%rbp)
	.loc	16 128 34 is_stmt 0
	movb	$0, -81(%rbp)
	movb	$0, -82(%rbp)
	.loc	16 128 17
	movq	-96(%rbp), %rsi
Ltmp1045:
	callq	*%rax
Ltmp1046:
	jmp	LBB107_3
Ltmp1051:
LBB107_1:
	.loc	16 129 13 is_stmt 1
	testb	$1, -82(%rbp)
	jne	LBB107_5
	jmp	LBB107_4
LBB107_2:
Ltmp1047:
	.loc	16 0 13 is_stmt 0
	movq	%rax, %rcx
	movl	%edx, %eax
	movq	%rcx, -16(%rbp)
	movl	%eax, -8(%rbp)
	jmp	LBB107_1
LBB107_3:
	.loc	16 129 13
	movb	$0, -82(%rbp)
	movb	$0, -81(%rbp)
	.loc	16 129 14
	addq	$144, %rsp
	popq	%rbp
	retq
LBB107_4:
	.loc	16 129 13
	testb	$1, -81(%rbp)
	jne	LBB107_7
	jmp	LBB107_6
LBB107_5:
	jmp	LBB107_4
LBB107_6:
	.loc	16 124 13 is_stmt 1
	movq	-16(%rbp), %rdi
	callq	__Unwind_Resume
LBB107_7:
	.loc	16 129 13
	jmp	LBB107_6
Ltmp1052:
Lfunc_end107:
	.cfi_endproc
	.section	__TEXT,__gcc_except_tab
	.p2align	2
GCC_except_table107:
Lexception70:
	.byte	255
	.byte	255
	.byte	1
	.uleb128 Lcst_end70-Lcst_begin70
Lcst_begin70:
	.uleb128 Ltmp1045-Lfunc_begin107
	.uleb128 Ltmp1046-Ltmp1045
	.uleb128 Ltmp1047-Lfunc_begin107
	.byte	0
	.uleb128 Ltmp1046-Lfunc_begin107
	.uleb128 Lfunc_end107-Ltmp1046
	.byte	0
	.byte	0
Lcst_end70:
	.p2align	2

	.section	__TEXT,__text,regular,pure_instructions
	.globl	__ZN65_$LT$$LP$A$C$B$RP$$u20$as$u20$objc..message..MessageArguments$GT$6invoke17h48d68306ccc6f8a0E
	.p2align	4, 0x90
__ZN65_$LT$$LP$A$C$B$RP$$u20$as$u20$objc..message..MessageArguments$GT$6invoke17h48d68306ccc6f8a0E:
Lfunc_begin108:
	.loc	16 124 0
	.cfi_startproc
	.cfi_personality 155, _rust_eh_personality
	.cfi_lsda 16, Lexception71
	pushq	%rbp
	.cfi_def_cfa_offset 16
	.cfi_offset %rbp, -16
	movq	%rsp, %rbp
	.cfi_def_cfa_register %rbp
	subq	$160, %rsp
	movq	%r8, -152(%rbp)
	movq	%rcx, %rax
	movq	-152(%rbp), %rcx
	movq	%rax, -144(%rbp)
	movq	%rdx, %rax
	movq	-144(%rbp), %rdx
	movq	%rax, -136(%rbp)
	movq	%rsi, %rax
	movq	-136(%rbp), %rsi
	movq	%rax, -128(%rbp)
	movq	%rdi, %rax
	movq	-128(%rbp), %rdi
	movq	%rsi, -104(%rbp)
	movq	-104(%rbp), %rsi
	movq	%rsi, -112(%rbp)
	movq	%rax, -80(%rbp)
	movq	%rdi, -72(%rbp)
	movq	%rdx, -64(%rbp)
	movq	%rcx, -56(%rbp)
Ltmp1056:
	.loc	16 124 74 prologue_end
	movb	$0, -81(%rbp)
	movb	$0, -82(%rbp)
	movb	$1, -81(%rbp)
	movq	%rdx, -48(%rbp)
	movb	$1, -82(%rbp)
	movq	%rcx, -40(%rbp)
Ltmp1057:
	.loc	16 127 21
	movq	%rax, -32(%rbp)
	movq	-32(%rbp), %rax
	movq	%rax, -24(%rbp)
Ltmp1058:
	.loc	16 128 26
	movq	-112(%rbp), %rsi
	movq	%rsi, -96(%rbp)
	.loc	16 128 34 is_stmt 0
	movb	$0, -81(%rbp)
	movb	$0, -82(%rbp)
	.loc	16 128 17
	movq	-96(%rbp), %rsi
Ltmp1053:
	callq	*%rax
Ltmp1054:
	movq	%rax, -120(%rbp)
	jmp	LBB108_3
Ltmp1059:
LBB108_1:
	.loc	16 129 13 is_stmt 1
	testb	$1, -82(%rbp)
	jne	LBB108_5
	jmp	LBB108_4
LBB108_2:
Ltmp1055:
	.loc	16 0 13 is_stmt 0
	movq	%rax, %rcx
	movl	%edx, %eax
	movq	%rcx, -16(%rbp)
	movl	%eax, -8(%rbp)
	jmp	LBB108_1
LBB108_3:
	movq	-120(%rbp), %rax
	.loc	16 129 13
	movb	$0, -82(%rbp)
	movb	$0, -81(%rbp)
	.loc	16 129 14
	addq	$160, %rsp
	popq	%rbp
	retq
LBB108_4:
	.loc	16 129 13
	testb	$1, -81(%rbp)
	jne	LBB108_7
	jmp	LBB108_6
LBB108_5:
	jmp	LBB108_4
LBB108_6:
	.loc	16 124 13 is_stmt 1
	movq	-16(%rbp), %rdi
	callq	__Unwind_Resume
LBB108_7:
	.loc	16 129 13
	jmp	LBB108_6
Ltmp1060:
Lfunc_end108:
	.cfi_endproc
	.section	__TEXT,__gcc_except_tab
	.p2align	2
GCC_except_table108:
Lexception71:
	.byte	255
	.byte	255
	.byte	1
	.uleb128 Lcst_end71-Lcst_begin71
Lcst_begin71:
	.uleb128 Ltmp1053-Lfunc_begin108
	.uleb128 Ltmp1054-Ltmp1053
	.uleb128 Ltmp1055-Lfunc_begin108
	.byte	0
	.uleb128 Ltmp1054-Lfunc_begin108
	.uleb128 Lfunc_end108-Ltmp1054
	.byte	0
	.byte	0
Lcst_end71:
	.p2align	2

	.section	__TEXT,__text,regular,pure_instructions
	.globl	__ZN65_$LT$$LP$A$C$B$RP$$u20$as$u20$objc..message..MessageArguments$GT$6invoke17h714b6481f9cb3acfE
	.p2align	4, 0x90
__ZN65_$LT$$LP$A$C$B$RP$$u20$as$u20$objc..message..MessageArguments$GT$6invoke17h714b6481f9cb3acfE:
Lfunc_begin109:
	.loc	16 124 0
	.cfi_startproc
	.cfi_personality 155, _rust_eh_personality
	.cfi_lsda 16, Lexception72
	pushq	%rbp
	.cfi_def_cfa_offset 16
	.cfi_offset %rbp, -16
	movq	%rsp, %rbp
	.cfi_def_cfa_register %rbp
	subq	$128, %rsp
	movq	%rsi, -128(%rbp)
	movq	%rdi, %rax
	movq	-128(%rbp), %rdi
Ltmp1064:
	movq	%rdx, -112(%rbp)
	movq	-112(%rbp), %rdx
	movq	%rdx, -120(%rbp)
	movq	%rax, -88(%rbp)
	movq	%rdi, -80(%rbp)
Ltmp1065:
	.loc	16 124 74 prologue_end
	movb	$0, -89(%rbp)
	movb	$0, -90(%rbp)
	movb	$1, -89(%rbp)
	movq	(%rcx), %rdx
	movq	%rdx, -72(%rbp)
	movb	$1, -90(%rbp)
	movq	8(%rcx), %r8
	movq	16(%rcx), %rcx
Ltmp1066:
	movq	%r8, -64(%rbp)
	movq	%rcx, -56(%rbp)
Ltmp1067:
	.loc	16 127 21
	movq	%rax, -48(%rbp)
	movq	-48(%rbp), %rax
	movq	%rax, -40(%rbp)
Ltmp1068:
	.loc	16 128 26
	movq	-120(%rbp), %rsi
	movq	%rsi, -104(%rbp)
	.loc	16 128 34 is_stmt 0
	movb	$0, -89(%rbp)
	movb	$0, -90(%rbp)
	.loc	16 128 17
	movq	-104(%rbp), %rsi
	movq	%r8, -32(%rbp)
	movq	%rcx, -24(%rbp)
	movq	-32(%rbp), %rcx
	movq	-24(%rbp), %r8
Ltmp1061:
	callq	*%rax
Ltmp1062:
	jmp	LBB109_3
Ltmp1069:
LBB109_1:
	.loc	16 129 13 is_stmt 1
	testb	$1, -90(%rbp)
	jne	LBB109_5
	jmp	LBB109_4
Ltmp1070:
LBB109_2:
Ltmp1063:
	.loc	16 0 13 is_stmt 0
	movq	%rax, %rcx
	movl	%edx, %eax
	movq	%rcx, -16(%rbp)
	movl	%eax, -8(%rbp)
	jmp	LBB109_1
Ltmp1071:
LBB109_3:
	.loc	16 129 13
	movb	$0, -90(%rbp)
	movb	$0, -89(%rbp)
	.loc	16 129 14
	addq	$128, %rsp
	popq	%rbp
	retq
Ltmp1072:
LBB109_4:
	.loc	16 129 13
	testb	$1, -89(%rbp)
	jne	LBB109_7
	jmp	LBB109_6
Ltmp1073:
LBB109_5:
	jmp	LBB109_4
Ltmp1074:
LBB109_6:
	.loc	16 124 13 is_stmt 1
	movq	-16(%rbp), %rdi
	callq	__Unwind_Resume
Ltmp1075:
LBB109_7:
	.loc	16 129 13
	jmp	LBB109_6
Ltmp1076:
Lfunc_end109:
	.cfi_endproc
	.section	__TEXT,__gcc_except_tab
	.p2align	2
GCC_except_table109:
Lexception72:
	.byte	255
	.byte	255
	.byte	1
	.uleb128 Lcst_end72-Lcst_begin72
Lcst_begin72:
	.uleb128 Ltmp1061-Lfunc_begin109
	.uleb128 Ltmp1062-Ltmp1061
	.uleb128 Ltmp1063-Lfunc_begin109
	.byte	0
	.uleb128 Ltmp1062-Lfunc_begin109
	.uleb128 Lfunc_end109-Ltmp1062
	.byte	0
	.byte	0
Lcst_end72:
	.p2align	2

	.section	__TEXT,__text,regular,pure_instructions
	.globl	__ZN65_$LT$$LP$A$C$B$RP$$u20$as$u20$objc..message..MessageArguments$GT$6invoke17h75e2dd3fc3a454a0E
	.p2align	4, 0x90
__ZN65_$LT$$LP$A$C$B$RP$$u20$as$u20$objc..message..MessageArguments$GT$6invoke17h75e2dd3fc3a454a0E:
Lfunc_begin110:
	.loc	16 124 0
	.cfi_startproc
	.cfi_personality 155, _rust_eh_personality
	.cfi_lsda 16, Lexception73
	pushq	%rbp
	.cfi_def_cfa_offset 16
	.cfi_offset %rbp, -16
	movq	%rsp, %rbp
	.cfi_def_cfa_register %rbp
	subq	$160, %rsp
	movq	%r8, -152(%rbp)
	movq	%rcx, %rax
	movq	-152(%rbp), %rcx
	movq	%rax, -144(%rbp)
	movq	%rdx, %rax
	movq	-144(%rbp), %rdx
	movq	%rax, -136(%rbp)
	movq	%rsi, %rax
	movq	-136(%rbp), %rsi
	movq	%rax, -128(%rbp)
	movq	%rdi, %rax
	movq	-128(%rbp), %rdi
	movq	%rsi, -104(%rbp)
	movq	-104(%rbp), %rsi
	movq	%rsi, -112(%rbp)
	movq	%rax, -80(%rbp)
	movq	%rdi, -72(%rbp)
	movq	%rdx, -64(%rbp)
	movq	%rcx, -56(%rbp)
Ltmp1080:
	.loc	16 124 74 prologue_end
	movb	$0, -81(%rbp)
	movb	$0, -82(%rbp)
	movb	$1, -81(%rbp)
	movq	%rdx, -48(%rbp)
	movb	$1, -82(%rbp)
	movq	%rcx, -40(%rbp)
Ltmp1081:
	.loc	16 127 21
	movq	%rax, -32(%rbp)
	movq	-32(%rbp), %rax
	movq	%rax, -24(%rbp)
Ltmp1082:
	.loc	16 128 26
	movq	-112(%rbp), %rsi
	movq	%rsi, -96(%rbp)
	.loc	16 128 34 is_stmt 0
	movb	$0, -81(%rbp)
	movb	$0, -82(%rbp)
	.loc	16 128 17
	movq	-96(%rbp), %rsi
Ltmp1077:
	callq	*%rax
Ltmp1078:
	movq	%rax, -120(%rbp)
	jmp	LBB110_3
Ltmp1083:
LBB110_1:
	.loc	16 129 13 is_stmt 1
	testb	$1, -82(%rbp)
	jne	LBB110_5
	jmp	LBB110_4
LBB110_2:
Ltmp1079:
	.loc	16 0 13 is_stmt 0
	movq	%rax, %rcx
	movl	%edx, %eax
	movq	%rcx, -16(%rbp)
	movl	%eax, -8(%rbp)
	jmp	LBB110_1
LBB110_3:
	movq	-120(%rbp), %rax
	.loc	16 129 13
	movb	$0, -82(%rbp)
	movb	$0, -81(%rbp)
	.loc	16 129 14
	addq	$160, %rsp
	popq	%rbp
	retq
LBB110_4:
	.loc	16 129 13
	testb	$1, -81(%rbp)
	jne	LBB110_7
	jmp	LBB110_6
LBB110_5:
	jmp	LBB110_4
LBB110_6:
	.loc	16 124 13 is_stmt 1
	movq	-16(%rbp), %rdi
	callq	__Unwind_Resume
LBB110_7:
	.loc	16 129 13
	jmp	LBB110_6
Ltmp1084:
Lfunc_end110:
	.cfi_endproc
	.section	__TEXT,__gcc_except_tab
	.p2align	2
GCC_except_table110:
Lexception73:
	.byte	255
	.byte	255
	.byte	1
	.uleb128 Lcst_end73-Lcst_begin73
Lcst_begin73:
	.uleb128 Ltmp1077-Lfunc_begin110
	.uleb128 Ltmp1078-Ltmp1077
	.uleb128 Ltmp1079-Lfunc_begin110
	.byte	0
	.uleb128 Ltmp1078-Lfunc_begin110
	.uleb128 Lfunc_end110-Ltmp1078
	.byte	0
	.byte	0
Lcst_end73:
	.p2align	2

	.section	__TEXT,__text,regular,pure_instructions
	.globl	__ZN65_$LT$$LP$A$C$B$RP$$u20$as$u20$objc..message..MessageArguments$GT$6invoke17h82707e2f6979f259E
	.p2align	4, 0x90
__ZN65_$LT$$LP$A$C$B$RP$$u20$as$u20$objc..message..MessageArguments$GT$6invoke17h82707e2f6979f259E:
Lfunc_begin111:
	.loc	16 124 0
	.cfi_startproc
	.cfi_personality 155, _rust_eh_personality
	.cfi_lsda 16, Lexception74
	pushq	%rbp
	.cfi_def_cfa_offset 16
	.cfi_offset %rbp, -16
	movq	%rsp, %rbp
	.cfi_def_cfa_register %rbp
	subq	$160, %rsp
	movq	%r8, -152(%rbp)
	movq	%rcx, %rax
	movq	-152(%rbp), %rcx
	movq	%rax, -144(%rbp)
	movq	%rdx, %rax
	movq	-144(%rbp), %rdx
	movq	%rax, -136(%rbp)
	movq	%rsi, %rax
	movq	-136(%rbp), %rsi
	movq	%rax, -128(%rbp)
	movq	%rdi, %rax
	movq	-128(%rbp), %rdi
	movq	%rsi, -104(%rbp)
	movq	-104(%rbp), %rsi
	movq	%rsi, -112(%rbp)
	movq	%rax, -80(%rbp)
	movq	%rdi, -72(%rbp)
	movq	%rdx, -64(%rbp)
	movq	%rcx, -56(%rbp)
Ltmp1088:
	.loc	16 124 74 prologue_end
	movb	$0, -81(%rbp)
	movb	$0, -82(%rbp)
	movb	$1, -81(%rbp)
	movq	%rdx, -48(%rbp)
	movb	$1, -82(%rbp)
	movq	%rcx, -40(%rbp)
Ltmp1089:
	.loc	16 127 21
	movq	%rax, -32(%rbp)
	movq	-32(%rbp), %rax
	movq	%rax, -24(%rbp)
Ltmp1090:
	.loc	16 128 26
	movq	-112(%rbp), %rsi
	movq	%rsi, -96(%rbp)
	.loc	16 128 34 is_stmt 0
	movb	$0, -81(%rbp)
	movb	$0, -82(%rbp)
	.loc	16 128 17
	movq	-96(%rbp), %rsi
Ltmp1085:
	callq	*%rax
Ltmp1086:
	movq	%rax, -120(%rbp)
	jmp	LBB111_3
Ltmp1091:
LBB111_1:
	.loc	16 129 13 is_stmt 1
	testb	$1, -82(%rbp)
	jne	LBB111_5
	jmp	LBB111_4
LBB111_2:
Ltmp1087:
	.loc	16 0 13 is_stmt 0
	movq	%rax, %rcx
	movl	%edx, %eax
	movq	%rcx, -16(%rbp)
	movl	%eax, -8(%rbp)
	jmp	LBB111_1
LBB111_3:
	movq	-120(%rbp), %rax
	.loc	16 129 13
	movb	$0, -82(%rbp)
	movb	$0, -81(%rbp)
	.loc	16 129 14
	addq	$160, %rsp
	popq	%rbp
	retq
LBB111_4:
	.loc	16 129 13
	testb	$1, -81(%rbp)
	jne	LBB111_7
	jmp	LBB111_6
LBB111_5:
	jmp	LBB111_4
LBB111_6:
	.loc	16 124 13 is_stmt 1
	movq	-16(%rbp), %rdi
	callq	__Unwind_Resume
LBB111_7:
	.loc	16 129 13
	jmp	LBB111_6
Ltmp1092:
Lfunc_end111:
	.cfi_endproc
	.section	__TEXT,__gcc_except_tab
	.p2align	2
GCC_except_table111:
Lexception74:
	.byte	255
	.byte	255
	.byte	1
	.uleb128 Lcst_end74-Lcst_begin74
Lcst_begin74:
	.uleb128 Ltmp1085-Lfunc_begin111
	.uleb128 Ltmp1086-Ltmp1085
	.uleb128 Ltmp1087-Lfunc_begin111
	.byte	0
	.uleb128 Ltmp1086-Lfunc_begin111
	.uleb128 Lfunc_end111-Ltmp1086
	.byte	0
	.byte	0
Lcst_end74:
	.p2align	2

	.section	__TEXT,__text,regular,pure_instructions
	.globl	__ZN65_$LT$$LP$A$C$B$RP$$u20$as$u20$objc..message..MessageArguments$GT$6invoke17h8ec664cc1836f8aeE
	.p2align	4, 0x90
__ZN65_$LT$$LP$A$C$B$RP$$u20$as$u20$objc..message..MessageArguments$GT$6invoke17h8ec664cc1836f8aeE:
Lfunc_begin112:
	.loc	16 124 0
	.cfi_startproc
	.cfi_personality 155, _rust_eh_personality
	.cfi_lsda 16, Lexception75
	pushq	%rbp
	.cfi_def_cfa_offset 16
	.cfi_offset %rbp, -16
	movq	%rsp, %rbp
	.cfi_def_cfa_register %rbp
	subq	$144, %rsp
	movq	%r8, -144(%rbp)
	movq	%rcx, %rax
	movq	-144(%rbp), %rcx
	movq	%rax, -136(%rbp)
	movq	%rdx, %rax
	movq	-136(%rbp), %rdx
	movq	%rax, -128(%rbp)
	movq	%rsi, %rax
	movq	-128(%rbp), %rsi
	movq	%rax, -120(%rbp)
	movq	%rdi, %rax
	movq	-120(%rbp), %rdi
	movq	%rsi, -104(%rbp)
	movq	-104(%rbp), %rsi
	movq	%rsi, -112(%rbp)
	movq	%rax, -80(%rbp)
	movq	%rdi, -72(%rbp)
	movq	%rdx, -64(%rbp)
	movq	%rcx, -56(%rbp)
Ltmp1096:
	.loc	16 124 74 prologue_end
	movb	$0, -81(%rbp)
	movb	$0, -82(%rbp)
	movb	$1, -81(%rbp)
	movq	%rdx, -48(%rbp)
	movb	$1, -82(%rbp)
	movq	%rcx, -40(%rbp)
Ltmp1097:
	.loc	16 127 21
	movq	%rax, -32(%rbp)
	movq	-32(%rbp), %rax
	movq	%rax, -24(%rbp)
Ltmp1098:
	.loc	16 128 26
	movq	-112(%rbp), %rsi
	movq	%rsi, -96(%rbp)
	.loc	16 128 34 is_stmt 0
	movb	$0, -81(%rbp)
	movb	$0, -82(%rbp)
	.loc	16 128 17
	movq	-96(%rbp), %rsi
Ltmp1093:
	callq	*%rax
Ltmp1094:
	jmp	LBB112_3
Ltmp1099:
LBB112_1:
	.loc	16 129 13 is_stmt 1
	testb	$1, -82(%rbp)
	jne	LBB112_5
	jmp	LBB112_4
LBB112_2:
Ltmp1095:
	.loc	16 0 13 is_stmt 0
	movq	%rax, %rcx
	movl	%edx, %eax
	movq	%rcx, -16(%rbp)
	movl	%eax, -8(%rbp)
	jmp	LBB112_1
LBB112_3:
	.loc	16 129 13
	movb	$0, -82(%rbp)
	movb	$0, -81(%rbp)
	.loc	16 129 14
	addq	$144, %rsp
	popq	%rbp
	retq
LBB112_4:
	.loc	16 129 13
	testb	$1, -81(%rbp)
	jne	LBB112_7
	jmp	LBB112_6
LBB112_5:
	jmp	LBB112_4
LBB112_6:
	.loc	16 124 13 is_stmt 1
	movq	-16(%rbp), %rdi
	callq	__Unwind_Resume
LBB112_7:
	.loc	16 129 13
	jmp	LBB112_6
Ltmp1100:
Lfunc_end112:
	.cfi_endproc
	.section	__TEXT,__gcc_except_tab
	.p2align	2
GCC_except_table112:
Lexception75:
	.byte	255
	.byte	255
	.byte	1
	.uleb128 Lcst_end75-Lcst_begin75
Lcst_begin75:
	.uleb128 Ltmp1093-Lfunc_begin112
	.uleb128 Ltmp1094-Ltmp1093
	.uleb128 Ltmp1095-Lfunc_begin112
	.byte	0
	.uleb128 Ltmp1094-Lfunc_begin112
	.uleb128 Lfunc_end112-Ltmp1094
	.byte	0
	.byte	0
Lcst_end75:
	.p2align	2

	.section	__TEXT,__text,regular,pure_instructions
	.globl	__ZN65_$LT$$LP$A$C$B$RP$$u20$as$u20$objc..message..MessageArguments$GT$6invoke17h8ed61df28731f036E
	.p2align	4, 0x90
__ZN65_$LT$$LP$A$C$B$RP$$u20$as$u20$objc..message..MessageArguments$GT$6invoke17h8ed61df28731f036E:
Lfunc_begin113:
	.loc	16 124 0
	.cfi_startproc
	.cfi_personality 155, _rust_eh_personality
	.cfi_lsda 16, Lexception76
	pushq	%rbp
	.cfi_def_cfa_offset 16
	.cfi_offset %rbp, -16
	movq	%rsp, %rbp
	.cfi_def_cfa_register %rbp
	subq	$144, %rsp
	movq	%r8, -144(%rbp)
	movl	%ecx, %eax
	movq	-144(%rbp), %rcx
	movl	%eax, -132(%rbp)
	movq	%rdx, %rax
	movl	-132(%rbp), %edx
	movq	%rax, -128(%rbp)
	movq	%rsi, %rax
	movq	-128(%rbp), %rsi
	movq	%rax, -120(%rbp)
	movq	%rdi, %rax
	movq	-120(%rbp), %rdi
	movq	%rsi, -104(%rbp)
	movq	-104(%rbp), %rsi
	movq	%rsi, -112(%rbp)
	movq	%rax, -80(%rbp)
	movq	%rdi, -72(%rbp)
	movb	%dl, -64(%rbp)
	movq	%rcx, -56(%rbp)
Ltmp1104:
	.loc	16 124 74 prologue_end
	movb	$0, -81(%rbp)
	movb	$0, -82(%rbp)
	movb	$1, -81(%rbp)
	movb	%dl, -41(%rbp)
	movb	$1, -82(%rbp)
	movq	%rcx, -40(%rbp)
Ltmp1105:
	.loc	16 127 21
	movq	%rax, -32(%rbp)
	movq	-32(%rbp), %rax
	movq	%rax, -24(%rbp)
Ltmp1106:
	.loc	16 128 26
	movq	-112(%rbp), %rsi
	movq	%rsi, -96(%rbp)
	.loc	16 128 34 is_stmt 0
	movb	$0, -81(%rbp)
	movb	$0, -82(%rbp)
	.loc	16 128 17
	movq	-96(%rbp), %rsi
Ltmp1101:
	movsbl	%dl, %edx
	callq	*%rax
Ltmp1102:
	jmp	LBB113_3
Ltmp1107:
LBB113_1:
	.loc	16 129 13 is_stmt 1
	testb	$1, -82(%rbp)
	jne	LBB113_5
	jmp	LBB113_4
LBB113_2:
Ltmp1103:
	.loc	16 0 13 is_stmt 0
	movq	%rax, %rcx
	movl	%edx, %eax
	movq	%rcx, -16(%rbp)
	movl	%eax, -8(%rbp)
	jmp	LBB113_1
LBB113_3:
	.loc	16 129 13
	movb	$0, -82(%rbp)
	movb	$0, -81(%rbp)
	.loc	16 129 14
	addq	$144, %rsp
	popq	%rbp
	retq
LBB113_4:
	.loc	16 129 13
	testb	$1, -81(%rbp)
	jne	LBB113_7
	jmp	LBB113_6
LBB113_5:
	jmp	LBB113_4
LBB113_6:
	.loc	16 124 13 is_stmt 1
	movq	-16(%rbp), %rdi
	callq	__Unwind_Resume
LBB113_7:
	.loc	16 129 13
	jmp	LBB113_6
Ltmp1108:
Lfunc_end113:
	.cfi_endproc
	.section	__TEXT,__gcc_except_tab
	.p2align	2
GCC_except_table113:
Lexception76:
	.byte	255
	.byte	255
	.byte	1
	.uleb128 Lcst_end76-Lcst_begin76
Lcst_begin76:
	.uleb128 Ltmp1101-Lfunc_begin113
	.uleb128 Ltmp1102-Ltmp1101
	.uleb128 Ltmp1103-Lfunc_begin113
	.byte	0
	.uleb128 Ltmp1102-Lfunc_begin113
	.uleb128 Lfunc_end113-Ltmp1102
	.byte	0
	.byte	0
Lcst_end76:
	.p2align	2

	.section	__TEXT,__text,regular,pure_instructions
	.globl	__ZN65_$LT$$LP$A$C$B$RP$$u20$as$u20$objc..message..MessageArguments$GT$6invoke17h9e75655297f0ffdfE
	.p2align	4, 0x90
__ZN65_$LT$$LP$A$C$B$RP$$u20$as$u20$objc..message..MessageArguments$GT$6invoke17h9e75655297f0ffdfE:
Lfunc_begin114:
	.loc	16 124 0
	.cfi_startproc
	.cfi_personality 155, _rust_eh_personality
	.cfi_lsda 16, Lexception77
	pushq	%rbp
	.cfi_def_cfa_offset 16
	.cfi_offset %rbp, -16
	movq	%rsp, %rbp
	.cfi_def_cfa_register %rbp
	subq	$144, %rsp
	movq	%rcx, -144(%rbp)
	movq	%rdx, %rax
	movq	-144(%rbp), %rdx
	movq	%rax, -136(%rbp)
	movq	%rsi, %rax
	movq	-136(%rbp), %rsi
	movq	%rax, -128(%rbp)
	movq	%rdi, %rax
	movq	-128(%rbp), %rdi
	movb	%r8b, %cl
	movq	%rsi, -104(%rbp)
	movq	-104(%rbp), %rsi
	movq	%rsi, -112(%rbp)
	movq	%rax, -80(%rbp)
	movq	%rdi, -72(%rbp)
	movq	%rdx, -64(%rbp)
	movb	%cl, -56(%rbp)
Ltmp1112:
	.loc	16 124 74 prologue_end
	movb	$0, -81(%rbp)
	movb	$0, -82(%rbp)
	movb	$1, -81(%rbp)
	movq	%rdx, -48(%rbp)
	movb	$1, -82(%rbp)
	movb	%cl, -33(%rbp)
Ltmp1113:
	.loc	16 127 21
	movq	%rax, -32(%rbp)
	movq	-32(%rbp), %rax
	movq	%rax, -24(%rbp)
Ltmp1114:
	.loc	16 128 26
	movq	-112(%rbp), %rsi
	movq	%rsi, -96(%rbp)
	.loc	16 128 34 is_stmt 0
	movb	$0, -81(%rbp)
	movb	$0, -82(%rbp)
	.loc	16 128 17
	movq	-96(%rbp), %rsi
Ltmp1109:
	movsbl	%cl, %ecx
	callq	*%rax
Ltmp1110:
	movq	%rax, -120(%rbp)
	jmp	LBB114_3
Ltmp1115:
LBB114_1:
	.loc	16 129 13 is_stmt 1
	testb	$1, -82(%rbp)
	jne	LBB114_5
	jmp	LBB114_4
LBB114_2:
Ltmp1111:
	.loc	16 0 13 is_stmt 0
	movq	%rax, %rcx
	movl	%edx, %eax
	movq	%rcx, -16(%rbp)
	movl	%eax, -8(%rbp)
	jmp	LBB114_1
LBB114_3:
	movq	-120(%rbp), %rax
	.loc	16 129 13
	movb	$0, -82(%rbp)
	movb	$0, -81(%rbp)
	.loc	16 129 14
	addq	$144, %rsp
	popq	%rbp
	retq
LBB114_4:
	.loc	16 129 13
	testb	$1, -81(%rbp)
	jne	LBB114_7
	jmp	LBB114_6
LBB114_5:
	jmp	LBB114_4
LBB114_6:
	.loc	16 124 13 is_stmt 1
	movq	-16(%rbp), %rdi
	callq	__Unwind_Resume
LBB114_7:
	.loc	16 129 13
	jmp	LBB114_6
Ltmp1116:
Lfunc_end114:
	.cfi_endproc
	.section	__TEXT,__gcc_except_tab
	.p2align	2
GCC_except_table114:
Lexception77:
	.byte	255
	.byte	255
	.byte	1
	.uleb128 Lcst_end77-Lcst_begin77
Lcst_begin77:
	.uleb128 Ltmp1109-Lfunc_begin114
	.uleb128 Ltmp1110-Ltmp1109
	.uleb128 Ltmp1111-Lfunc_begin114
	.byte	0
	.uleb128 Ltmp1110-Lfunc_begin114
	.uleb128 Lfunc_end114-Ltmp1110
	.byte	0
	.byte	0
Lcst_end77:
	.p2align	2

	.section	__TEXT,__text,regular,pure_instructions
	.globl	__ZN65_$LT$$LP$A$C$B$RP$$u20$as$u20$objc..message..MessageArguments$GT$6invoke17ha27e8203c5850460E
	.p2align	4, 0x90
__ZN65_$LT$$LP$A$C$B$RP$$u20$as$u20$objc..message..MessageArguments$GT$6invoke17ha27e8203c5850460E:
Lfunc_begin115:
	.loc	16 124 0
	.cfi_startproc
	.cfi_personality 155, _rust_eh_personality
	.cfi_lsda 16, Lexception78
	pushq	%rbp
	.cfi_def_cfa_offset 16
	.cfi_offset %rbp, -16
	movq	%rsp, %rbp
	.cfi_def_cfa_register %rbp
	subq	$160, %rsp
	movq	%r8, -152(%rbp)
	movq	%rcx, %rax
	movq	-152(%rbp), %rcx
	movq	%rax, -144(%rbp)
	movq	%rdx, %rax
	movq	-144(%rbp), %rdx
	movq	%rax, -136(%rbp)
	movq	%rsi, %rax
	movq	-136(%rbp), %rsi
	movq	%rax, -128(%rbp)
	movq	%rdi, %rax
	movq	-128(%rbp), %rdi
	movq	%rsi, -104(%rbp)
	movq	-104(%rbp), %rsi
	movq	%rsi, -112(%rbp)
	movq	%rax, -80(%rbp)
	movq	%rdi, -72(%rbp)
	movq	%rdx, -64(%rbp)
	movq	%rcx, -56(%rbp)
Ltmp1120:
	.loc	16 124 74 prologue_end
	movb	$0, -81(%rbp)
	movb	$0, -82(%rbp)
	movb	$1, -81(%rbp)
	movq	%rdx, -48(%rbp)
	movb	$1, -82(%rbp)
	movq	%rcx, -40(%rbp)
Ltmp1121:
	.loc	16 127 21
	movq	%rax, -32(%rbp)
	movq	-32(%rbp), %rax
	movq	%rax, -24(%rbp)
Ltmp1122:
	.loc	16 128 26
	movq	-112(%rbp), %rsi
	movq	%rsi, -96(%rbp)
	.loc	16 128 34 is_stmt 0
	movb	$0, -81(%rbp)
	movb	$0, -82(%rbp)
	.loc	16 128 17
	movq	-96(%rbp), %rsi
Ltmp1117:
	callq	*%rax
Ltmp1118:
	movq	%rax, -120(%rbp)
	jmp	LBB115_3
Ltmp1123:
LBB115_1:
	.loc	16 129 13 is_stmt 1
	testb	$1, -82(%rbp)
	jne	LBB115_5
	jmp	LBB115_4
LBB115_2:
Ltmp1119:
	.loc	16 0 13 is_stmt 0
	movq	%rax, %rcx
	movl	%edx, %eax
	movq	%rcx, -16(%rbp)
	movl	%eax, -8(%rbp)
	jmp	LBB115_1
LBB115_3:
	movq	-120(%rbp), %rax
	.loc	16 129 13
	movb	$0, -82(%rbp)
	movb	$0, -81(%rbp)
	.loc	16 129 14
	addq	$160, %rsp
	popq	%rbp
	retq
LBB115_4:
	.loc	16 129 13
	testb	$1, -81(%rbp)
	jne	LBB115_7
	jmp	LBB115_6
LBB115_5:
	jmp	LBB115_4
LBB115_6:
	.loc	16 124 13 is_stmt 1
	movq	-16(%rbp), %rdi
	callq	__Unwind_Resume
LBB115_7:
	.loc	16 129 13
	jmp	LBB115_6
Ltmp1124:
Lfunc_end115:
	.cfi_endproc
	.section	__TEXT,__gcc_except_tab
	.p2align	2
GCC_except_table115:
Lexception78:
	.byte	255
	.byte	255
	.byte	1
	.uleb128 Lcst_end78-Lcst_begin78
Lcst_begin78:
	.uleb128 Ltmp1117-Lfunc_begin115
	.uleb128 Ltmp1118-Ltmp1117
	.uleb128 Ltmp1119-Lfunc_begin115
	.byte	0
	.uleb128 Ltmp1118-Lfunc_begin115
	.uleb128 Lfunc_end115-Ltmp1118
	.byte	0
	.byte	0
Lcst_end78:
	.p2align	2

	.section	__TEXT,__text,regular,pure_instructions
	.globl	__ZN65_$LT$$LP$A$C$B$RP$$u20$as$u20$objc..message..MessageArguments$GT$6invoke17hb2e33d03af70e80fE
	.p2align	4, 0x90
__ZN65_$LT$$LP$A$C$B$RP$$u20$as$u20$objc..message..MessageArguments$GT$6invoke17hb2e33d03af70e80fE:
Lfunc_begin116:
	.loc	16 124 0
	.cfi_startproc
	.cfi_personality 155, _rust_eh_personality
	.cfi_lsda 16, Lexception79
	pushq	%rbp
	.cfi_def_cfa_offset 16
	.cfi_offset %rbp, -16
	movq	%rsp, %rbp
	.cfi_def_cfa_register %rbp
	subq	$160, %rsp
	movq	%r8, -152(%rbp)
	movq	%rcx, %rax
	movq	-152(%rbp), %rcx
	movq	%rax, -144(%rbp)
	movq	%rdx, %rax
	movq	-144(%rbp), %rdx
	movq	%rax, -136(%rbp)
	movq	%rsi, %rax
	movq	-136(%rbp), %rsi
	movq	%rax, -128(%rbp)
	movq	%rdi, %rax
	movq	-128(%rbp), %rdi
	movq	%rsi, -104(%rbp)
	movq	-104(%rbp), %rsi
	movq	%rsi, -112(%rbp)
	movq	%rax, -80(%rbp)
	movq	%rdi, -72(%rbp)
	movq	%rdx, -64(%rbp)
	movq	%rcx, -56(%rbp)
Ltmp1128:
	.loc	16 124 74 prologue_end
	movb	$0, -81(%rbp)
	movb	$0, -82(%rbp)
	movb	$1, -81(%rbp)
	movq	%rdx, -48(%rbp)
	movb	$1, -82(%rbp)
	movq	%rcx, -40(%rbp)
Ltmp1129:
	.loc	16 127 21
	movq	%rax, -32(%rbp)
	movq	-32(%rbp), %rax
	movq	%rax, -24(%rbp)
Ltmp1130:
	.loc	16 128 26
	movq	-112(%rbp), %rsi
	movq	%rsi, -96(%rbp)
	.loc	16 128 34 is_stmt 0
	movb	$0, -81(%rbp)
	movb	$0, -82(%rbp)
	.loc	16 128 17
	movq	-96(%rbp), %rsi
Ltmp1125:
	callq	*%rax
Ltmp1126:
	movq	%rax, -120(%rbp)
	jmp	LBB116_3
Ltmp1131:
LBB116_1:
	.loc	16 129 13 is_stmt 1
	testb	$1, -82(%rbp)
	jne	LBB116_5
	jmp	LBB116_4
LBB116_2:
Ltmp1127:
	.loc	16 0 13 is_stmt 0
	movq	%rax, %rcx
	movl	%edx, %eax
	movq	%rcx, -16(%rbp)
	movl	%eax, -8(%rbp)
	jmp	LBB116_1
LBB116_3:
	movq	-120(%rbp), %rax
	.loc	16 129 13
	movb	$0, -82(%rbp)
	movb	$0, -81(%rbp)
	.loc	16 129 14
	addq	$160, %rsp
	popq	%rbp
	retq
LBB116_4:
	.loc	16 129 13
	testb	$1, -81(%rbp)
	jne	LBB116_7
	jmp	LBB116_6
LBB116_5:
	jmp	LBB116_4
LBB116_6:
	.loc	16 124 13 is_stmt 1
	movq	-16(%rbp), %rdi
	callq	__Unwind_Resume
LBB116_7:
	.loc	16 129 13
	jmp	LBB116_6
Ltmp1132:
Lfunc_end116:
	.cfi_endproc
	.section	__TEXT,__gcc_except_tab
	.p2align	2
GCC_except_table116:
Lexception79:
	.byte	255
	.byte	255
	.byte	1
	.uleb128 Lcst_end79-Lcst_begin79
Lcst_begin79:
	.uleb128 Ltmp1125-Lfunc_begin116
	.uleb128 Ltmp1126-Ltmp1125
	.uleb128 Ltmp1127-Lfunc_begin116
	.byte	0
	.uleb128 Ltmp1126-Lfunc_begin116
	.uleb128 Lfunc_end116-Ltmp1126
	.byte	0
	.byte	0
Lcst_end79:
	.p2align	2

	.section	__TEXT,__text,regular,pure_instructions
	.globl	__ZN65_$LT$$LP$A$C$B$RP$$u20$as$u20$objc..message..MessageArguments$GT$6invoke17hcf03c98f1a263c00E
	.p2align	4, 0x90
__ZN65_$LT$$LP$A$C$B$RP$$u20$as$u20$objc..message..MessageArguments$GT$6invoke17hcf03c98f1a263c00E:
Lfunc_begin117:
	.loc	16 124 0
	.cfi_startproc
	.cfi_personality 155, _rust_eh_personality
	.cfi_lsda 16, Lexception80
	pushq	%rbp
	.cfi_def_cfa_offset 16
	.cfi_offset %rbp, -16
	movq	%rsp, %rbp
	.cfi_def_cfa_register %rbp
	subq	$144, %rsp
	movq	%rcx, -144(%rbp)
	movq	%rdx, %rax
	movq	-144(%rbp), %rdx
	movq	%rax, -136(%rbp)
	movq	%rsi, %rax
	movq	-136(%rbp), %rsi
	movq	%rax, -128(%rbp)
	movq	%rdi, %rax
	movq	-128(%rbp), %rdi
	movb	%r8b, %cl
	movq	%rsi, -104(%rbp)
	movq	-104(%rbp), %rsi
	movq	%rsi, -112(%rbp)
	movq	%rax, -80(%rbp)
	movq	%rdi, -72(%rbp)
	movq	%rdx, -64(%rbp)
	movb	%cl, -56(%rbp)
Ltmp1136:
	.loc	16 124 74 prologue_end
	movb	$0, -81(%rbp)
	movb	$0, -82(%rbp)
	movb	$1, -81(%rbp)
	movq	%rdx, -48(%rbp)
	movb	$1, -82(%rbp)
	movb	%cl, -33(%rbp)
Ltmp1137:
	.loc	16 127 21
	movq	%rax, -32(%rbp)
	movq	-32(%rbp), %rax
	movq	%rax, -24(%rbp)
Ltmp1138:
	.loc	16 128 26
	movq	-112(%rbp), %rsi
	movq	%rsi, -96(%rbp)
	.loc	16 128 34 is_stmt 0
	movb	$0, -81(%rbp)
	movb	$0, -82(%rbp)
	.loc	16 128 17
	movq	-96(%rbp), %rsi
Ltmp1133:
	movsbl	%cl, %ecx
	callq	*%rax
Ltmp1134:
	movb	%al, -113(%rbp)
	jmp	LBB117_3
Ltmp1139:
LBB117_1:
	.loc	16 129 13 is_stmt 1
	testb	$1, -82(%rbp)
	jne	LBB117_5
	jmp	LBB117_4
LBB117_2:
Ltmp1135:
	.loc	16 0 13 is_stmt 0
	movq	%rax, %rcx
	movl	%edx, %eax
	movq	%rcx, -16(%rbp)
	movl	%eax, -8(%rbp)
	jmp	LBB117_1
LBB117_3:
	movb	-113(%rbp), %al
	.loc	16 129 13
	movb	$0, -82(%rbp)
	movb	$0, -81(%rbp)
	.loc	16 129 14
	addq	$144, %rsp
	popq	%rbp
	retq
LBB117_4:
	.loc	16 129 13
	testb	$1, -81(%rbp)
	jne	LBB117_7
	jmp	LBB117_6
LBB117_5:
	jmp	LBB117_4
LBB117_6:
	.loc	16 124 13 is_stmt 1
	movq	-16(%rbp), %rdi
	callq	__Unwind_Resume
LBB117_7:
	.loc	16 129 13
	jmp	LBB117_6
Ltmp1140:
Lfunc_end117:
	.cfi_endproc
	.section	__TEXT,__gcc_except_tab
	.p2align	2
GCC_except_table117:
Lexception80:
	.byte	255
	.byte	255
	.byte	1
	.uleb128 Lcst_end80-Lcst_begin80
Lcst_begin80:
	.uleb128 Ltmp1133-Lfunc_begin117
	.uleb128 Ltmp1134-Ltmp1133
	.uleb128 Ltmp1135-Lfunc_begin117
	.byte	0
	.uleb128 Ltmp1134-Lfunc_begin117
	.uleb128 Lfunc_end117-Ltmp1134
	.byte	0
	.byte	0
Lcst_end80:
	.p2align	2

	.section	__TEXT,__text,regular,pure_instructions
	.globl	__ZN65_$LT$$LP$A$C$B$RP$$u20$as$u20$objc..message..MessageArguments$GT$6invoke17he90f9e8d536325d7E
	.p2align	4, 0x90
__ZN65_$LT$$LP$A$C$B$RP$$u20$as$u20$objc..message..MessageArguments$GT$6invoke17he90f9e8d536325d7E:
Lfunc_begin118:
	.loc	16 124 0
	.cfi_startproc
	.cfi_personality 155, _rust_eh_personality
	.cfi_lsda 16, Lexception81
	pushq	%rbp
	.cfi_def_cfa_offset 16
	.cfi_offset %rbp, -16
	movq	%rsp, %rbp
	.cfi_def_cfa_register %rbp
	subq	$160, %rsp
	movq	%r8, -152(%rbp)
	movq	%rcx, %rax
	movq	-152(%rbp), %rcx
	movq	%rax, -144(%rbp)
	movq	%rdx, %rax
	movq	-144(%rbp), %rdx
	movq	%rax, -136(%rbp)
	movq	%rsi, %rax
	movq	-136(%rbp), %rsi
	movq	%rax, -128(%rbp)
	movq	%rdi, %rax
	movq	-128(%rbp), %rdi
	movq	%rsi, -104(%rbp)
	movq	-104(%rbp), %rsi
	movq	%rsi, -112(%rbp)
	movq	%rax, -80(%rbp)
	movq	%rdi, -72(%rbp)
	movq	%rdx, -64(%rbp)
	movq	%rcx, -56(%rbp)
Ltmp1144:
	.loc	16 124 74 prologue_end
	movb	$0, -81(%rbp)
	movb	$0, -82(%rbp)
	movb	$1, -81(%rbp)
	movq	%rdx, -48(%rbp)
	movb	$1, -82(%rbp)
	movq	%rcx, -40(%rbp)
Ltmp1145:
	.loc	16 127 21
	movq	%rax, -32(%rbp)
	movq	-32(%rbp), %rax
	movq	%rax, -24(%rbp)
Ltmp1146:
	.loc	16 128 26
	movq	-112(%rbp), %rsi
	movq	%rsi, -96(%rbp)
	.loc	16 128 34 is_stmt 0
	movb	$0, -81(%rbp)
	movb	$0, -82(%rbp)
	.loc	16 128 17
	movq	-96(%rbp), %rsi
Ltmp1141:
	callq	*%rax
Ltmp1142:
	movq	%rax, -120(%rbp)
	jmp	LBB118_3
Ltmp1147:
LBB118_1:
	.loc	16 129 13 is_stmt 1
	testb	$1, -82(%rbp)
	jne	LBB118_5
	jmp	LBB118_4
LBB118_2:
Ltmp1143:
	.loc	16 0 13 is_stmt 0
	movq	%rax, %rcx
	movl	%edx, %eax
	movq	%rcx, -16(%rbp)
	movl	%eax, -8(%rbp)
	jmp	LBB118_1
LBB118_3:
	movq	-120(%rbp), %rax
	.loc	16 129 13
	movb	$0, -82(%rbp)
	movb	$0, -81(%rbp)
	.loc	16 129 14
	addq	$160, %rsp
	popq	%rbp
	retq
LBB118_4:
	.loc	16 129 13
	testb	$1, -81(%rbp)
	jne	LBB118_7
	jmp	LBB118_6
LBB118_5:
	jmp	LBB118_4
LBB118_6:
	.loc	16 124 13 is_stmt 1
	movq	-16(%rbp), %rdi
	callq	__Unwind_Resume
LBB118_7:
	.loc	16 129 13
	jmp	LBB118_6
Ltmp1148:
Lfunc_end118:
	.cfi_endproc
	.section	__TEXT,__gcc_except_tab
	.p2align	2
GCC_except_table118:
Lexception81:
	.byte	255
	.byte	255
	.byte	1
	.uleb128 Lcst_end81-Lcst_begin81
Lcst_begin81:
	.uleb128 Ltmp1141-Lfunc_begin118
	.uleb128 Ltmp1142-Ltmp1141
	.uleb128 Ltmp1143-Lfunc_begin118
	.byte	0
	.uleb128 Ltmp1142-Lfunc_begin118
	.uleb128 Lfunc_end118-Ltmp1142
	.byte	0
	.byte	0
Lcst_end81:
	.p2align	2

	.section	__TEXT,__text,regular,pure_instructions
	.p2align	4, 0x90
__ZN65_$LT$alloc..string..String$u20$as$u20$core..ops..deref..Deref$GT$5deref17hbd0e203360454d94E:
Lfunc_begin119:
	.loc	15 2459 0
	.cfi_startproc
	pushq	%rbp
	.cfi_def_cfa_offset 16
	.cfi_offset %rbp, -16
	movq	%rsp, %rbp
	.cfi_def_cfa_register %rbp
	subq	$48, %rsp
	movq	%rdi, -40(%rbp)
Ltmp1149:
	.loc	15 2460 43 prologue_end
	callq	__ZN72_$LT$alloc..vec..Vec$LT$T$C$A$GT$$u20$as$u20$core..ops..deref..Deref$GT$5deref17ha195b773218a2aacE
	movq	%rax, -32(%rbp)
	movq	%rdx, -24(%rbp)
Ltmp1150:
	.file	17 "/rustc/2c8cc343237b8f7d5a3c3703e3a87f2eb2c54a74/library/core/src/str" "converts.rs"
	.loc	17 173 14
	movq	%rax, -16(%rbp)
	movq	%rdx, -8(%rbp)
	movq	-16(%rbp), %rax
	movq	-8(%rbp), %rdx
Ltmp1151:
	.loc	15 2461 6
	addq	$48, %rsp
	popq	%rbp
	retq
Ltmp1152:
Lfunc_end119:
	.cfi_endproc

	.globl	__ZN69_$LT$$LP$A$C$B$C$C$RP$$u20$as$u20$objc..message..MessageArguments$GT$6invoke17h34250ef346e1b925E
	.p2align	4, 0x90
__ZN69_$LT$$LP$A$C$B$C$C$RP$$u20$as$u20$objc..message..MessageArguments$GT$6invoke17h34250ef346e1b925E:
Lfunc_begin120:
	.loc	16 124 0
	.cfi_startproc
	.cfi_personality 155, _rust_eh_personality
	.cfi_lsda 16, Lexception82
	pushq	%rbp
	.cfi_def_cfa_offset 16
	.cfi_offset %rbp, -16
	movq	%rsp, %rbp
	.cfi_def_cfa_register %rbp
	subq	$128, %rsp
	movq	%rcx, -128(%rbp)
	movq	%rsi, %rax
	movq	-128(%rbp), %rsi
	movq	%rax, -120(%rbp)
	movq	%rdi, %rax
	movq	-120(%rbp), %rdi
Ltmp1156:
	movq	%rdx, -96(%rbp)
	movq	-96(%rbp), %rcx
	movq	%rcx, -104(%rbp)
	movq	%rax, -72(%rbp)
	movq	%rdi, -64(%rbp)
Ltmp1157:
	.loc	16 124 74 prologue_end
	movb	$0, -73(%rbp)
	movb	$0, -74(%rbp)
	movb	$0, -75(%rbp)
	movb	$1, -73(%rbp)
	movq	(%rsi), %rdx
	movq	%rdx, -56(%rbp)
	movb	$1, -74(%rbp)
	movq	8(%rsi), %rcx
	movq	%rcx, -48(%rbp)
	movb	$1, -75(%rbp)
	movq	16(%rsi), %r8
	movq	%r8, -40(%rbp)
Ltmp1158:
	.loc	16 127 21
	movq	%rax, -32(%rbp)
	movq	-32(%rbp), %rax
	movq	%rax, -24(%rbp)
Ltmp1159:
	.loc	16 128 26
	movq	-104(%rbp), %rsi
Ltmp1160:
	movq	%rsi, -88(%rbp)
	.loc	16 128 34 is_stmt 0
	movb	$0, -73(%rbp)
	movb	$0, -74(%rbp)
	movb	$0, -75(%rbp)
	.loc	16 128 17
	movq	-88(%rbp), %rsi
Ltmp1153:
	callq	*%rax
Ltmp1154:
	movb	%al, -105(%rbp)
	jmp	LBB120_3
Ltmp1161:
LBB120_1:
	.loc	16 129 13 is_stmt 1
	testb	$1, -75(%rbp)
	jne	LBB120_5
	jmp	LBB120_4
LBB120_2:
Ltmp1155:
	.loc	16 0 13 is_stmt 0
	movq	%rax, %rcx
	movl	%edx, %eax
	movq	%rcx, -16(%rbp)
	movl	%eax, -8(%rbp)
	jmp	LBB120_1
LBB120_3:
	movb	-105(%rbp), %al
	.loc	16 129 13
	movb	$0, -75(%rbp)
	movb	$0, -74(%rbp)
	movb	$0, -73(%rbp)
	.loc	16 129 14
	addq	$128, %rsp
	popq	%rbp
	retq
LBB120_4:
	.loc	16 129 13
	testb	$1, -74(%rbp)
	jne	LBB120_7
	jmp	LBB120_6
LBB120_5:
	jmp	LBB120_4
LBB120_6:
	testb	$1, -73(%rbp)
	jne	LBB120_9
	jmp	LBB120_8
LBB120_7:
	jmp	LBB120_6
LBB120_8:
	.loc	16 124 13 is_stmt 1
	movq	-16(%rbp), %rdi
	callq	__Unwind_Resume
LBB120_9:
	.loc	16 129 13
	jmp	LBB120_8
Ltmp1162:
Lfunc_end120:
	.cfi_endproc
	.section	__TEXT,__gcc_except_tab
	.p2align	2
GCC_except_table120:
Lexception82:
	.byte	255
	.byte	255
	.byte	1
	.uleb128 Lcst_end82-Lcst_begin82
Lcst_begin82:
	.uleb128 Ltmp1153-Lfunc_begin120
	.uleb128 Ltmp1154-Ltmp1153
	.uleb128 Ltmp1155-Lfunc_begin120
	.byte	0
	.uleb128 Ltmp1154-Lfunc_begin120
	.uleb128 Lfunc_end120-Ltmp1154
	.byte	0
	.byte	0
Lcst_end82:
	.p2align	2

	.section	__TEXT,__text,regular,pure_instructions
	.globl	__ZN69_$LT$$LP$A$C$B$C$C$RP$$u20$as$u20$objc..message..MessageArguments$GT$6invoke17h483f42b77f5ff992E
	.p2align	4, 0x90
__ZN69_$LT$$LP$A$C$B$C$C$RP$$u20$as$u20$objc..message..MessageArguments$GT$6invoke17h483f42b77f5ff992E:
Lfunc_begin121:
	.loc	16 124 0
	.cfi_startproc
	.cfi_personality 155, _rust_eh_personality
	.cfi_lsda 16, Lexception83
	pushq	%rbp
	.cfi_def_cfa_offset 16
	.cfi_offset %rbp, -16
	movq	%rsp, %rbp
	.cfi_def_cfa_register %rbp
	subq	$128, %rsp
	movq	%rcx, -128(%rbp)
	movq	%rsi, %rax
	movq	-128(%rbp), %rsi
	movq	%rax, -120(%rbp)
	movq	%rdi, %rax
	movq	-120(%rbp), %rdi
Ltmp1166:
	movq	%rdx, -96(%rbp)
	movq	-96(%rbp), %rcx
	movq	%rcx, -104(%rbp)
	movq	%rax, -72(%rbp)
	movq	%rdi, -64(%rbp)
Ltmp1167:
	.loc	16 124 74 prologue_end
	movb	$0, -73(%rbp)
	movb	$0, -74(%rbp)
	movb	$0, -75(%rbp)
	movb	$1, -73(%rbp)
	movq	(%rsi), %rdx
	movq	%rdx, -56(%rbp)
	movb	$1, -74(%rbp)
	movq	8(%rsi), %rcx
	movq	%rcx, -48(%rbp)
	movb	$1, -75(%rbp)
	movsbl	16(%rsi), %r8d
	movb	%r8b, %sil
Ltmp1168:
	movb	%sil, -33(%rbp)
Ltmp1169:
	.loc	16 127 21
	movq	%rax, -32(%rbp)
	movq	-32(%rbp), %rax
	movq	%rax, -24(%rbp)
Ltmp1170:
	.loc	16 128 26
	movq	-104(%rbp), %rsi
	movq	%rsi, -88(%rbp)
	.loc	16 128 34 is_stmt 0
	movb	$0, -73(%rbp)
	movb	$0, -74(%rbp)
	movb	$0, -75(%rbp)
	.loc	16 128 17
	movq	-88(%rbp), %rsi
Ltmp1163:
	callq	*%rax
Ltmp1164:
	movq	%rax, -112(%rbp)
	jmp	LBB121_3
Ltmp1171:
LBB121_1:
	.loc	16 129 13 is_stmt 1
	testb	$1, -75(%rbp)
	jne	LBB121_5
	jmp	LBB121_4
LBB121_2:
Ltmp1165:
	.loc	16 0 13 is_stmt 0
	movq	%rax, %rcx
	movl	%edx, %eax
	movq	%rcx, -16(%rbp)
	movl	%eax, -8(%rbp)
	jmp	LBB121_1
LBB121_3:
	movq	-112(%rbp), %rax
	.loc	16 129 13
	movb	$0, -75(%rbp)
	movb	$0, -74(%rbp)
	movb	$0, -73(%rbp)
	.loc	16 129 14
	addq	$128, %rsp
	popq	%rbp
	retq
LBB121_4:
	.loc	16 129 13
	testb	$1, -74(%rbp)
	jne	LBB121_7
	jmp	LBB121_6
LBB121_5:
	jmp	LBB121_4
LBB121_6:
	testb	$1, -73(%rbp)
	jne	LBB121_9
	jmp	LBB121_8
LBB121_7:
	jmp	LBB121_6
LBB121_8:
	.loc	16 124 13 is_stmt 1
	movq	-16(%rbp), %rdi
	callq	__Unwind_Resume
LBB121_9:
	.loc	16 129 13
	jmp	LBB121_8
Ltmp1172:
Lfunc_end121:
	.cfi_endproc
	.section	__TEXT,__gcc_except_tab
	.p2align	2
GCC_except_table121:
Lexception83:
	.byte	255
	.byte	255
	.byte	1
	.uleb128 Lcst_end83-Lcst_begin83
Lcst_begin83:
	.uleb128 Ltmp1163-Lfunc_begin121
	.uleb128 Ltmp1164-Ltmp1163
	.uleb128 Ltmp1165-Lfunc_begin121
	.byte	0
	.uleb128 Ltmp1164-Lfunc_begin121
	.uleb128 Lfunc_end121-Ltmp1164
	.byte	0
	.byte	0
Lcst_end83:
	.p2align	2

	.section	__TEXT,__text,regular,pure_instructions
	.globl	__ZN69_$LT$$LP$A$C$B$C$C$RP$$u20$as$u20$objc..message..MessageArguments$GT$6invoke17h48a14901fc970e27E
	.p2align	4, 0x90
__ZN69_$LT$$LP$A$C$B$C$C$RP$$u20$as$u20$objc..message..MessageArguments$GT$6invoke17h48a14901fc970e27E:
Lfunc_begin122:
	.loc	16 124 0
	.cfi_startproc
	.cfi_personality 155, _rust_eh_personality
	.cfi_lsda 16, Lexception84
	pushq	%rbp
	.cfi_def_cfa_offset 16
	.cfi_offset %rbp, -16
	movq	%rsp, %rbp
	.cfi_def_cfa_register %rbp
	subq	$128, %rsp
	movq	%rcx, -128(%rbp)
	movq	%rsi, %rax
	movq	-128(%rbp), %rsi
	movq	%rax, -120(%rbp)
	movq	%rdi, %rax
	movq	-120(%rbp), %rdi
Ltmp1176:
	movq	%rdx, -96(%rbp)
	movq	-96(%rbp), %rcx
	movq	%rcx, -104(%rbp)
	movq	%rax, -72(%rbp)
	movq	%rdi, -64(%rbp)
Ltmp1177:
	.loc	16 124 74 prologue_end
	movb	$0, -73(%rbp)
	movb	$0, -74(%rbp)
	movb	$0, -75(%rbp)
	movb	$1, -73(%rbp)
	movq	(%rsi), %rdx
	movq	%rdx, -56(%rbp)
	movb	$1, -74(%rbp)
	movq	8(%rsi), %rcx
	movq	%rcx, -48(%rbp)
	movb	$1, -75(%rbp)
	movq	16(%rsi), %r8
	movq	%r8, -40(%rbp)
Ltmp1178:
	.loc	16 127 21
	movq	%rax, -32(%rbp)
	movq	-32(%rbp), %rax
	movq	%rax, -24(%rbp)
Ltmp1179:
	.loc	16 128 26
	movq	-104(%rbp), %rsi
Ltmp1180:
	movq	%rsi, -88(%rbp)
	.loc	16 128 34 is_stmt 0
	movb	$0, -73(%rbp)
	movb	$0, -74(%rbp)
	movb	$0, -75(%rbp)
	.loc	16 128 17
	movq	-88(%rbp), %rsi
Ltmp1173:
	callq	*%rax
Ltmp1174:
	movq	%rax, -112(%rbp)
	jmp	LBB122_3
Ltmp1181:
LBB122_1:
	.loc	16 129 13 is_stmt 1
	testb	$1, -75(%rbp)
	jne	LBB122_5
	jmp	LBB122_4
LBB122_2:
Ltmp1175:
	.loc	16 0 13 is_stmt 0
	movq	%rax, %rcx
	movl	%edx, %eax
	movq	%rcx, -16(%rbp)
	movl	%eax, -8(%rbp)
	jmp	LBB122_1
LBB122_3:
	movq	-112(%rbp), %rax
	.loc	16 129 13
	movb	$0, -75(%rbp)
	movb	$0, -74(%rbp)
	movb	$0, -73(%rbp)
	.loc	16 129 14
	addq	$128, %rsp
	popq	%rbp
	retq
LBB122_4:
	.loc	16 129 13
	testb	$1, -74(%rbp)
	jne	LBB122_7
	jmp	LBB122_6
LBB122_5:
	jmp	LBB122_4
LBB122_6:
	testb	$1, -73(%rbp)
	jne	LBB122_9
	jmp	LBB122_8
LBB122_7:
	jmp	LBB122_6
LBB122_8:
	.loc	16 124 13 is_stmt 1
	movq	-16(%rbp), %rdi
	callq	__Unwind_Resume
LBB122_9:
	.loc	16 129 13
	jmp	LBB122_8
Ltmp1182:
Lfunc_end122:
	.cfi_endproc
	.section	__TEXT,__gcc_except_tab
	.p2align	2
GCC_except_table122:
Lexception84:
	.byte	255
	.byte	255
	.byte	1
	.uleb128 Lcst_end84-Lcst_begin84
Lcst_begin84:
	.uleb128 Ltmp1173-Lfunc_begin122
	.uleb128 Ltmp1174-Ltmp1173
	.uleb128 Ltmp1175-Lfunc_begin122
	.byte	0
	.uleb128 Ltmp1174-Lfunc_begin122
	.uleb128 Lfunc_end122-Ltmp1174
	.byte	0
	.byte	0
Lcst_end84:
	.p2align	2

	.section	__TEXT,__text,regular,pure_instructions
	.globl	__ZN69_$LT$$LP$A$C$B$C$C$RP$$u20$as$u20$objc..message..MessageArguments$GT$6invoke17h581cb64e7b09849dE
	.p2align	4, 0x90
__ZN69_$LT$$LP$A$C$B$C$C$RP$$u20$as$u20$objc..message..MessageArguments$GT$6invoke17h581cb64e7b09849dE:
Lfunc_begin123:
	.loc	16 124 0
	.cfi_startproc
	.cfi_personality 155, _rust_eh_personality
	.cfi_lsda 16, Lexception85
	pushq	%rbp
	.cfi_def_cfa_offset 16
	.cfi_offset %rbp, -16
	movq	%rsp, %rbp
	.cfi_def_cfa_register %rbp
	subq	$128, %rsp
	movq	%rcx, -128(%rbp)
	movq	%rsi, %rax
	movq	-128(%rbp), %rsi
	movq	%rax, -120(%rbp)
	movq	%rdi, %rax
	movq	-120(%rbp), %rdi
Ltmp1186:
	movq	%rdx, -96(%rbp)
	movq	-96(%rbp), %rcx
	movq	%rcx, -104(%rbp)
	movq	%rax, -72(%rbp)
	movq	%rdi, -64(%rbp)
Ltmp1187:
	.loc	16 124 74 prologue_end
	movb	$0, -73(%rbp)
	movb	$0, -74(%rbp)
	movb	$0, -75(%rbp)
	movb	$1, -73(%rbp)
	movq	(%rsi), %rdx
	movq	%rdx, -56(%rbp)
	movb	$1, -74(%rbp)
	movq	8(%rsi), %rcx
	movq	%rcx, -48(%rbp)
	movb	$1, -75(%rbp)
	movq	16(%rsi), %r8
	movq	%r8, -40(%rbp)
Ltmp1188:
	.loc	16 127 21
	movq	%rax, -32(%rbp)
	movq	-32(%rbp), %rax
	movq	%rax, -24(%rbp)
Ltmp1189:
	.loc	16 128 26
	movq	-104(%rbp), %rsi
Ltmp1190:
	movq	%rsi, -88(%rbp)
	.loc	16 128 34 is_stmt 0
	movb	$0, -73(%rbp)
	movb	$0, -74(%rbp)
	movb	$0, -75(%rbp)
	.loc	16 128 17
	movq	-88(%rbp), %rsi
Ltmp1183:
	callq	*%rax
Ltmp1184:
	movb	%al, -105(%rbp)
	jmp	LBB123_3
Ltmp1191:
LBB123_1:
	.loc	16 129 13 is_stmt 1
	testb	$1, -75(%rbp)
	jne	LBB123_5
	jmp	LBB123_4
LBB123_2:
Ltmp1185:
	.loc	16 0 13 is_stmt 0
	movq	%rax, %rcx
	movl	%edx, %eax
	movq	%rcx, -16(%rbp)
	movl	%eax, -8(%rbp)
	jmp	LBB123_1
LBB123_3:
	movb	-105(%rbp), %al
	.loc	16 129 13
	movb	$0, -75(%rbp)
	movb	$0, -74(%rbp)
	movb	$0, -73(%rbp)
	.loc	16 129 14
	addq	$128, %rsp
	popq	%rbp
	retq
LBB123_4:
	.loc	16 129 13
	testb	$1, -74(%rbp)
	jne	LBB123_7
	jmp	LBB123_6
LBB123_5:
	jmp	LBB123_4
LBB123_6:
	testb	$1, -73(%rbp)
	jne	LBB123_9
	jmp	LBB123_8
LBB123_7:
	jmp	LBB123_6
LBB123_8:
	.loc	16 124 13 is_stmt 1
	movq	-16(%rbp), %rdi
	callq	__Unwind_Resume
LBB123_9:
	.loc	16 129 13
	jmp	LBB123_8
Ltmp1192:
Lfunc_end123:
	.cfi_endproc
	.section	__TEXT,__gcc_except_tab
	.p2align	2
GCC_except_table123:
Lexception85:
	.byte	255
	.byte	255
	.byte	1
	.uleb128 Lcst_end85-Lcst_begin85
Lcst_begin85:
	.uleb128 Ltmp1183-Lfunc_begin123
	.uleb128 Ltmp1184-Ltmp1183
	.uleb128 Ltmp1185-Lfunc_begin123
	.byte	0
	.uleb128 Ltmp1184-Lfunc_begin123
	.uleb128 Lfunc_end123-Ltmp1184
	.byte	0
	.byte	0
Lcst_end85:
	.p2align	2

	.section	__TEXT,__text,regular,pure_instructions
	.globl	__ZN69_$LT$$LP$A$C$B$C$C$RP$$u20$as$u20$objc..message..MessageArguments$GT$6invoke17h60439b105122c615E
	.p2align	4, 0x90
__ZN69_$LT$$LP$A$C$B$C$C$RP$$u20$as$u20$objc..message..MessageArguments$GT$6invoke17h60439b105122c615E:
Lfunc_begin124:
	.loc	16 124 0
	.cfi_startproc
	.cfi_personality 155, _rust_eh_personality
	.cfi_lsda 16, Lexception86
	pushq	%rbp
	.cfi_def_cfa_offset 16
	.cfi_offset %rbp, -16
	movq	%rsp, %rbp
	.cfi_def_cfa_register %rbp
	subq	$128, %rsp
	movq	%rcx, -128(%rbp)
	movq	%rsi, %rax
	movq	-128(%rbp), %rsi
	movq	%rax, -120(%rbp)
	movq	%rdi, %rax
	movq	-120(%rbp), %rdi
Ltmp1196:
	movq	%rdx, -96(%rbp)
	movq	-96(%rbp), %rcx
	movq	%rcx, -104(%rbp)
	movq	%rax, -72(%rbp)
	movq	%rdi, -64(%rbp)
Ltmp1197:
	.loc	16 124 74 prologue_end
	movb	$0, -73(%rbp)
	movb	$0, -74(%rbp)
	movb	$0, -75(%rbp)
	movb	$1, -73(%rbp)
	movq	(%rsi), %rdx
	movq	%rdx, -56(%rbp)
	movb	$1, -74(%rbp)
	movq	8(%rsi), %rcx
	movq	%rcx, -48(%rbp)
	movb	$1, -75(%rbp)
	movq	16(%rsi), %r8
	movq	%r8, -40(%rbp)
Ltmp1198:
	.loc	16 127 21
	movq	%rax, -32(%rbp)
	movq	-32(%rbp), %rax
	movq	%rax, -24(%rbp)
Ltmp1199:
	.loc	16 128 26
	movq	-104(%rbp), %rsi
Ltmp1200:
	movq	%rsi, -88(%rbp)
	.loc	16 128 34 is_stmt 0
	movb	$0, -73(%rbp)
	movb	$0, -74(%rbp)
	movb	$0, -75(%rbp)
	.loc	16 128 17
	movq	-88(%rbp), %rsi
Ltmp1193:
	callq	*%rax
Ltmp1194:
	movq	%rax, -112(%rbp)
	jmp	LBB124_3
Ltmp1201:
LBB124_1:
	.loc	16 129 13 is_stmt 1
	testb	$1, -75(%rbp)
	jne	LBB124_5
	jmp	LBB124_4
LBB124_2:
Ltmp1195:
	.loc	16 0 13 is_stmt 0
	movq	%rax, %rcx
	movl	%edx, %eax
	movq	%rcx, -16(%rbp)
	movl	%eax, -8(%rbp)
	jmp	LBB124_1
LBB124_3:
	movq	-112(%rbp), %rax
	.loc	16 129 13
	movb	$0, -75(%rbp)
	movb	$0, -74(%rbp)
	movb	$0, -73(%rbp)
	.loc	16 129 14
	addq	$128, %rsp
	popq	%rbp
	retq
LBB124_4:
	.loc	16 129 13
	testb	$1, -74(%rbp)
	jne	LBB124_7
	jmp	LBB124_6
LBB124_5:
	jmp	LBB124_4
LBB124_6:
	testb	$1, -73(%rbp)
	jne	LBB124_9
	jmp	LBB124_8
LBB124_7:
	jmp	LBB124_6
LBB124_8:
	.loc	16 124 13 is_stmt 1
	movq	-16(%rbp), %rdi
	callq	__Unwind_Resume
LBB124_9:
	.loc	16 129 13
	jmp	LBB124_8
Ltmp1202:
Lfunc_end124:
	.cfi_endproc
	.section	__TEXT,__gcc_except_tab
	.p2align	2
GCC_except_table124:
Lexception86:
	.byte	255
	.byte	255
	.byte	1
	.uleb128 Lcst_end86-Lcst_begin86
Lcst_begin86:
	.uleb128 Ltmp1193-Lfunc_begin124
	.uleb128 Ltmp1194-Ltmp1193
	.uleb128 Ltmp1195-Lfunc_begin124
	.byte	0
	.uleb128 Ltmp1194-Lfunc_begin124
	.uleb128 Lfunc_end124-Ltmp1194
	.byte	0
	.byte	0
Lcst_end86:
	.p2align	2

	.section	__TEXT,__text,regular,pure_instructions
	.globl	__ZN69_$LT$$LP$A$C$B$C$C$RP$$u20$as$u20$objc..message..MessageArguments$GT$6invoke17h68bbc3f70baada34E
	.p2align	4, 0x90
__ZN69_$LT$$LP$A$C$B$C$C$RP$$u20$as$u20$objc..message..MessageArguments$GT$6invoke17h68bbc3f70baada34E:
Lfunc_begin125:
	.loc	16 124 0
	.cfi_startproc
	.cfi_personality 155, _rust_eh_personality
	.cfi_lsda 16, Lexception87
	pushq	%rbp
	.cfi_def_cfa_offset 16
	.cfi_offset %rbp, -16
	movq	%rsp, %rbp
	.cfi_def_cfa_register %rbp
	subq	$128, %rsp
	movq	%rcx, -128(%rbp)
	movq	%rsi, %rax
	movq	-128(%rbp), %rsi
	movq	%rax, -120(%rbp)
	movq	%rdi, %rax
	movq	-120(%rbp), %rdi
Ltmp1206:
	movq	%rdx, -96(%rbp)
	movq	-96(%rbp), %rcx
	movq	%rcx, -104(%rbp)
	movq	%rax, -72(%rbp)
	movq	%rdi, -64(%rbp)
Ltmp1207:
	.loc	16 124 74 prologue_end
	movb	$0, -73(%rbp)
	movb	$0, -74(%rbp)
	movb	$0, -75(%rbp)
	movb	$1, -73(%rbp)
	movq	8(%rsi), %rdx
	movq	%rdx, -56(%rbp)
	movb	$1, -74(%rbp)
	movq	(%rsi), %rcx
	movq	%rcx, -48(%rbp)
	movb	$1, -75(%rbp)
	movq	16(%rsi), %r8
	movq	%r8, -40(%rbp)
Ltmp1208:
	.loc	16 127 21
	movq	%rax, -32(%rbp)
	movq	-32(%rbp), %rax
	movq	%rax, -24(%rbp)
Ltmp1209:
	.loc	16 128 26
	movq	-104(%rbp), %rsi
Ltmp1210:
	movq	%rsi, -88(%rbp)
	.loc	16 128 34 is_stmt 0
	movb	$0, -73(%rbp)
	movb	$0, -74(%rbp)
	movb	$0, -75(%rbp)
	.loc	16 128 17
	movq	-88(%rbp), %rsi
Ltmp1203:
	callq	*%rax
Ltmp1204:
	movq	%rax, -112(%rbp)
	jmp	LBB125_3
Ltmp1211:
LBB125_1:
	.loc	16 129 13 is_stmt 1
	testb	$1, -75(%rbp)
	jne	LBB125_5
	jmp	LBB125_4
LBB125_2:
Ltmp1205:
	.loc	16 0 13 is_stmt 0
	movq	%rax, %rcx
	movl	%edx, %eax
	movq	%rcx, -16(%rbp)
	movl	%eax, -8(%rbp)
	jmp	LBB125_1
LBB125_3:
	movq	-112(%rbp), %rax
	.loc	16 129 13
	movb	$0, -75(%rbp)
	movb	$0, -74(%rbp)
	movb	$0, -73(%rbp)
	.loc	16 129 14
	addq	$128, %rsp
	popq	%rbp
	retq
LBB125_4:
	.loc	16 129 13
	testb	$1, -74(%rbp)
	jne	LBB125_7
	jmp	LBB125_6
LBB125_5:
	jmp	LBB125_4
LBB125_6:
	testb	$1, -73(%rbp)
	jne	LBB125_9
	jmp	LBB125_8
LBB125_7:
	jmp	LBB125_6
LBB125_8:
	.loc	16 124 13 is_stmt 1
	movq	-16(%rbp), %rdi
	callq	__Unwind_Resume
LBB125_9:
	.loc	16 129 13
	jmp	LBB125_8
Ltmp1212:
Lfunc_end125:
	.cfi_endproc
	.section	__TEXT,__gcc_except_tab
	.p2align	2
GCC_except_table125:
Lexception87:
	.byte	255
	.byte	255
	.byte	1
	.uleb128 Lcst_end87-Lcst_begin87
Lcst_begin87:
	.uleb128 Ltmp1203-Lfunc_begin125
	.uleb128 Ltmp1204-Ltmp1203
	.uleb128 Ltmp1205-Lfunc_begin125
	.byte	0
	.uleb128 Ltmp1204-Lfunc_begin125
	.uleb128 Lfunc_end125-Ltmp1204
	.byte	0
	.byte	0
Lcst_end87:
	.p2align	2

	.section	__TEXT,__text,regular,pure_instructions
	.globl	__ZN69_$LT$$LP$A$C$B$C$C$RP$$u20$as$u20$objc..message..MessageArguments$GT$6invoke17h8cc4901466be7f90E
	.p2align	4, 0x90
__ZN69_$LT$$LP$A$C$B$C$C$RP$$u20$as$u20$objc..message..MessageArguments$GT$6invoke17h8cc4901466be7f90E:
Lfunc_begin126:
	.loc	16 124 0
	.cfi_startproc
	.cfi_personality 155, _rust_eh_personality
	.cfi_lsda 16, Lexception88
	pushq	%rbp
	.cfi_def_cfa_offset 16
	.cfi_offset %rbp, -16
	movq	%rsp, %rbp
	.cfi_def_cfa_register %rbp
	subq	$128, %rsp
	movq	%rcx, -128(%rbp)
	movq	%rsi, %rax
	movq	-128(%rbp), %rsi
	movq	%rax, -120(%rbp)
	movq	%rdi, %rax
	movq	-120(%rbp), %rdi
Ltmp1216:
	movq	%rdx, -96(%rbp)
	movq	-96(%rbp), %rcx
	movq	%rcx, -104(%rbp)
	movq	%rax, -72(%rbp)
	movq	%rdi, -64(%rbp)
Ltmp1217:
	.loc	16 124 74 prologue_end
	movb	$0, -73(%rbp)
	movb	$0, -74(%rbp)
	movb	$0, -75(%rbp)
	movb	$1, -73(%rbp)
	movq	(%rsi), %rdx
	movq	%rdx, -56(%rbp)
	movb	$1, -74(%rbp)
	movsbl	8(%rsi), %ecx
	movb	%cl, %r8b
	movb	%r8b, -41(%rbp)
	movb	$1, -75(%rbp)
	movq	16(%rsi), %r8
	movq	%r8, -40(%rbp)
Ltmp1218:
	.loc	16 127 21
	movq	%rax, -32(%rbp)
	movq	-32(%rbp), %rax
	movq	%rax, -24(%rbp)
Ltmp1219:
	.loc	16 128 26
	movq	-104(%rbp), %rsi
Ltmp1220:
	movq	%rsi, -88(%rbp)
	.loc	16 128 34 is_stmt 0
	movb	$0, -73(%rbp)
	movb	$0, -74(%rbp)
	movb	$0, -75(%rbp)
	.loc	16 128 17
	movq	-88(%rbp), %rsi
Ltmp1213:
	callq	*%rax
Ltmp1214:
	movq	%rax, -112(%rbp)
	jmp	LBB126_3
Ltmp1221:
LBB126_1:
	.loc	16 129 13 is_stmt 1
	testb	$1, -75(%rbp)
	jne	LBB126_5
	jmp	LBB126_4
LBB126_2:
Ltmp1215:
	.loc	16 0 13 is_stmt 0
	movq	%rax, %rcx
	movl	%edx, %eax
	movq	%rcx, -16(%rbp)
	movl	%eax, -8(%rbp)
	jmp	LBB126_1
LBB126_3:
	movq	-112(%rbp), %rax
	.loc	16 129 13
	movb	$0, -75(%rbp)
	movb	$0, -74(%rbp)
	movb	$0, -73(%rbp)
	.loc	16 129 14
	addq	$128, %rsp
	popq	%rbp
	retq
LBB126_4:
	.loc	16 129 13
	testb	$1, -74(%rbp)
	jne	LBB126_7
	jmp	LBB126_6
LBB126_5:
	jmp	LBB126_4
LBB126_6:
	testb	$1, -73(%rbp)
	jne	LBB126_9
	jmp	LBB126_8
LBB126_7:
	jmp	LBB126_6
LBB126_8:
	.loc	16 124 13 is_stmt 1
	movq	-16(%rbp), %rdi
	callq	__Unwind_Resume
LBB126_9:
	.loc	16 129 13
	jmp	LBB126_8
Ltmp1222:
Lfunc_end126:
	.cfi_endproc
	.section	__TEXT,__gcc_except_tab
	.p2align	2
GCC_except_table126:
Lexception88:
	.byte	255
	.byte	255
	.byte	1
	.uleb128 Lcst_end88-Lcst_begin88
Lcst_begin88:
	.uleb128 Ltmp1213-Lfunc_begin126
	.uleb128 Ltmp1214-Ltmp1213
	.uleb128 Ltmp1215-Lfunc_begin126
	.byte	0
	.uleb128 Ltmp1214-Lfunc_begin126
	.uleb128 Lfunc_end126-Ltmp1214
	.byte	0
	.byte	0
Lcst_end88:
	.p2align	2

	.section	__TEXT,__text,regular,pure_instructions
	.globl	__ZN69_$LT$$LP$A$C$B$C$C$RP$$u20$as$u20$objc..message..MessageArguments$GT$6invoke17h93ac68123716c09dE
	.p2align	4, 0x90
__ZN69_$LT$$LP$A$C$B$C$C$RP$$u20$as$u20$objc..message..MessageArguments$GT$6invoke17h93ac68123716c09dE:
Lfunc_begin127:
	.loc	16 124 0
	.cfi_startproc
	.cfi_personality 155, _rust_eh_personality
	.cfi_lsda 16, Lexception89
	pushq	%rbp
	.cfi_def_cfa_offset 16
	.cfi_offset %rbp, -16
	movq	%rsp, %rbp
	.cfi_def_cfa_register %rbp
	subq	$128, %rsp
	movq	%rcx, -128(%rbp)
	movq	%rsi, %rax
	movq	-128(%rbp), %rsi
	movq	%rax, -120(%rbp)
	movq	%rdi, %rax
	movq	-120(%rbp), %rdi
Ltmp1226:
	movq	%rdx, -96(%rbp)
	movq	-96(%rbp), %rcx
	movq	%rcx, -104(%rbp)
	movq	%rax, -72(%rbp)
	movq	%rdi, -64(%rbp)
Ltmp1227:
	.loc	16 124 74 prologue_end
	movb	$0, -73(%rbp)
	movb	$0, -74(%rbp)
	movb	$0, -75(%rbp)
	movb	$1, -73(%rbp)
	movq	(%rsi), %rdx
	movq	%rdx, -56(%rbp)
	movb	$1, -74(%rbp)
	movq	8(%rsi), %rcx
	movq	%rcx, -48(%rbp)
	movb	$1, -75(%rbp)
	movq	16(%rsi), %r8
	movq	%r8, -40(%rbp)
Ltmp1228:
	.loc	16 127 21
	movq	%rax, -32(%rbp)
	movq	-32(%rbp), %rax
	movq	%rax, -24(%rbp)
Ltmp1229:
	.loc	16 128 26
	movq	-104(%rbp), %rsi
Ltmp1230:
	movq	%rsi, -88(%rbp)
	.loc	16 128 34 is_stmt 0
	movb	$0, -73(%rbp)
	movb	$0, -74(%rbp)
	movb	$0, -75(%rbp)
	.loc	16 128 17
	movq	-88(%rbp), %rsi
Ltmp1223:
	callq	*%rax
Ltmp1224:
	movq	%rax, -112(%rbp)
	jmp	LBB127_3
Ltmp1231:
LBB127_1:
	.loc	16 129 13 is_stmt 1
	testb	$1, -75(%rbp)
	jne	LBB127_5
	jmp	LBB127_4
LBB127_2:
Ltmp1225:
	.loc	16 0 13 is_stmt 0
	movq	%rax, %rcx
	movl	%edx, %eax
	movq	%rcx, -16(%rbp)
	movl	%eax, -8(%rbp)
	jmp	LBB127_1
LBB127_3:
	movq	-112(%rbp), %rax
	.loc	16 129 13
	movb	$0, -75(%rbp)
	movb	$0, -74(%rbp)
	movb	$0, -73(%rbp)
	.loc	16 129 14
	addq	$128, %rsp
	popq	%rbp
	retq
LBB127_4:
	.loc	16 129 13
	testb	$1, -74(%rbp)
	jne	LBB127_7
	jmp	LBB127_6
LBB127_5:
	jmp	LBB127_4
LBB127_6:
	testb	$1, -73(%rbp)
	jne	LBB127_9
	jmp	LBB127_8
LBB127_7:
	jmp	LBB127_6
LBB127_8:
	.loc	16 124 13 is_stmt 1
	movq	-16(%rbp), %rdi
	callq	__Unwind_Resume
LBB127_9:
	.loc	16 129 13
	jmp	LBB127_8
Ltmp1232:
Lfunc_end127:
	.cfi_endproc
	.section	__TEXT,__gcc_except_tab
	.p2align	2
GCC_except_table127:
Lexception89:
	.byte	255
	.byte	255
	.byte	1
	.uleb128 Lcst_end89-Lcst_begin89
Lcst_begin89:
	.uleb128 Ltmp1223-Lfunc_begin127
	.uleb128 Ltmp1224-Ltmp1223
	.uleb128 Ltmp1225-Lfunc_begin127
	.byte	0
	.uleb128 Ltmp1224-Lfunc_begin127
	.uleb128 Lfunc_end127-Ltmp1224
	.byte	0
	.byte	0
Lcst_end89:
	.p2align	2

	.section	__TEXT,__text,regular,pure_instructions
	.globl	__ZN69_$LT$$LP$A$C$B$C$C$RP$$u20$as$u20$objc..message..MessageArguments$GT$6invoke17ha3ca01802bc27ffbE
	.p2align	4, 0x90
__ZN69_$LT$$LP$A$C$B$C$C$RP$$u20$as$u20$objc..message..MessageArguments$GT$6invoke17ha3ca01802bc27ffbE:
Lfunc_begin128:
	.loc	16 124 0
	.cfi_startproc
	.cfi_personality 155, _rust_eh_personality
	.cfi_lsda 16, Lexception90
	pushq	%rbp
	.cfi_def_cfa_offset 16
	.cfi_offset %rbp, -16
	movq	%rsp, %rbp
	.cfi_def_cfa_register %rbp
	subq	$192, %rsp
	movq	%rcx, -192(%rbp)
	movq	%rsi, %rax
	movq	-192(%rbp), %rsi
	movq	%rax, -184(%rbp)
	movq	%rdi, %rax
	movq	-184(%rbp), %rdi
Ltmp1236:
	movq	%rdx, -152(%rbp)
	movq	-152(%rbp), %rcx
	movq	%rcx, -160(%rbp)
	movq	%rax, -128(%rbp)
	movq	%rdi, -120(%rbp)
Ltmp1237:
	.loc	16 124 74 prologue_end
	movb	$0, -129(%rbp)
	movb	$0, -130(%rbp)
	movb	$0, -131(%rbp)
	movb	$1, -129(%rbp)
	movq	(%rsi), %rdx
	movq	%rdx, -112(%rbp)
	movb	$1, -130(%rbp)
	movq	8(%rsi), %rcx
	movq	%rcx, -104(%rbp)
	movb	$1, -131(%rbp)
	movq	16(%rsi), %r9
	movq	24(%rsi), %r8
	movq	%r9, -96(%rbp)
	movq	%r8, -88(%rbp)
Ltmp1238:
	.loc	16 127 21
	movq	%rax, -80(%rbp)
	movq	-80(%rbp), %rax
	movq	%rax, -72(%rbp)
Ltmp1239:
	.loc	16 128 26
	movq	-160(%rbp), %rsi
Ltmp1240:
	movq	%rsi, -144(%rbp)
	.loc	16 128 34 is_stmt 0
	movb	$0, -129(%rbp)
	movb	$0, -130(%rbp)
	movb	$0, -131(%rbp)
	.loc	16 128 17
	movq	-144(%rbp), %rsi
	movq	%r9, -64(%rbp)
	movq	%r8, -56(%rbp)
	movq	-64(%rbp), %r8
	movq	-56(%rbp), %r9
Ltmp1233:
	callq	*%rax
Ltmp1234:
	movq	%rdx, -176(%rbp)
	movq	%rax, -168(%rbp)
	jmp	LBB128_3
Ltmp1241:
LBB128_1:
	.loc	16 129 13 is_stmt 1
	testb	$1, -131(%rbp)
	jne	LBB128_5
	jmp	LBB128_4
LBB128_2:
Ltmp1235:
	.loc	16 0 13 is_stmt 0
	movq	%rax, %rcx
	movl	%edx, %eax
	movq	%rcx, -48(%rbp)
	movl	%eax, -40(%rbp)
	jmp	LBB128_1
LBB128_3:
	movq	-176(%rbp), %rax
	movq	-168(%rbp), %rcx
Ltmp1242:
	.loc	16 128 17 is_stmt 1
	movq	%rcx, -16(%rbp)
	movq	%rax, -8(%rbp)
	movq	-16(%rbp), %rax
	movq	-8(%rbp), %rcx
	movq	%rcx, -24(%rbp)
	movq	%rax, -32(%rbp)
	movq	-32(%rbp), %rax
	movq	-24(%rbp), %rdx
Ltmp1243:
	.loc	16 129 13
	movb	$0, -131(%rbp)
	movb	$0, -130(%rbp)
	movb	$0, -129(%rbp)
	.loc	16 129 14 is_stmt 0
	addq	$192, %rsp
	popq	%rbp
	retq
LBB128_4:
	.loc	16 129 13
	testb	$1, -130(%rbp)
	jne	LBB128_7
	jmp	LBB128_6
LBB128_5:
	jmp	LBB128_4
LBB128_6:
	testb	$1, -129(%rbp)
	jne	LBB128_9
	jmp	LBB128_8
LBB128_7:
	jmp	LBB128_6
LBB128_8:
	.loc	16 124 13 is_stmt 1
	movq	-48(%rbp), %rdi
	callq	__Unwind_Resume
LBB128_9:
	.loc	16 129 13
	jmp	LBB128_8
Ltmp1244:
Lfunc_end128:
	.cfi_endproc
	.section	__TEXT,__gcc_except_tab
	.p2align	2
GCC_except_table128:
Lexception90:
	.byte	255
	.byte	255
	.byte	1
	.uleb128 Lcst_end90-Lcst_begin90
Lcst_begin90:
	.uleb128 Ltmp1233-Lfunc_begin128
	.uleb128 Ltmp1234-Ltmp1233
	.uleb128 Ltmp1235-Lfunc_begin128
	.byte	0
	.uleb128 Ltmp1234-Lfunc_begin128
	.uleb128 Lfunc_end128-Ltmp1234
	.byte	0
	.byte	0
Lcst_end90:
	.p2align	2

	.section	__TEXT,__text,regular,pure_instructions
	.globl	__ZN69_$LT$$LP$A$C$B$C$C$RP$$u20$as$u20$objc..message..MessageArguments$GT$6invoke17hdf1367f024b6d31cE
	.p2align	4, 0x90
__ZN69_$LT$$LP$A$C$B$C$C$RP$$u20$as$u20$objc..message..MessageArguments$GT$6invoke17hdf1367f024b6d31cE:
Lfunc_begin129:
	.loc	16 124 0
	.cfi_startproc
	.cfi_personality 155, _rust_eh_personality
	.cfi_lsda 16, Lexception91
	pushq	%rbp
	.cfi_def_cfa_offset 16
	.cfi_offset %rbp, -16
	movq	%rsp, %rbp
	.cfi_def_cfa_register %rbp
	subq	$128, %rsp
	movq	%rcx, -128(%rbp)
	movq	%rsi, %rax
	movq	-128(%rbp), %rsi
	movq	%rax, -120(%rbp)
	movq	%rdi, %rax
	movq	-120(%rbp), %rdi
Ltmp1248:
	movq	%rdx, -96(%rbp)
	movq	-96(%rbp), %rcx
	movq	%rcx, -104(%rbp)
	movq	%rax, -72(%rbp)
	movq	%rdi, -64(%rbp)
Ltmp1249:
	.loc	16 124 74 prologue_end
	movb	$0, -73(%rbp)
	movb	$0, -74(%rbp)
	movb	$0, -75(%rbp)
	movb	$1, -73(%rbp)
	movq	(%rsi), %rdx
	movq	%rdx, -56(%rbp)
	movb	$1, -74(%rbp)
	movq	8(%rsi), %rcx
	movq	%rcx, -48(%rbp)
	movb	$1, -75(%rbp)
	movq	16(%rsi), %r8
	movq	%r8, -40(%rbp)
Ltmp1250:
	.loc	16 127 21
	movq	%rax, -32(%rbp)
	movq	-32(%rbp), %rax
	movq	%rax, -24(%rbp)
Ltmp1251:
	.loc	16 128 26
	movq	-104(%rbp), %rsi
Ltmp1252:
	movq	%rsi, -88(%rbp)
	.loc	16 128 34 is_stmt 0
	movb	$0, -73(%rbp)
	movb	$0, -74(%rbp)
	movb	$0, -75(%rbp)
	.loc	16 128 17
	movq	-88(%rbp), %rsi
Ltmp1245:
	callq	*%rax
Ltmp1246:
	movq	%rax, -112(%rbp)
	jmp	LBB129_3
Ltmp1253:
LBB129_1:
	.loc	16 129 13 is_stmt 1
	testb	$1, -75(%rbp)
	jne	LBB129_5
	jmp	LBB129_4
LBB129_2:
Ltmp1247:
	.loc	16 0 13 is_stmt 0
	movq	%rax, %rcx
	movl	%edx, %eax
	movq	%rcx, -16(%rbp)
	movl	%eax, -8(%rbp)
	jmp	LBB129_1
LBB129_3:
	movq	-112(%rbp), %rax
	.loc	16 129 13
	movb	$0, -75(%rbp)
	movb	$0, -74(%rbp)
	movb	$0, -73(%rbp)
	.loc	16 129 14
	addq	$128, %rsp
	popq	%rbp
	retq
LBB129_4:
	.loc	16 129 13
	testb	$1, -74(%rbp)
	jne	LBB129_7
	jmp	LBB129_6
LBB129_5:
	jmp	LBB129_4
LBB129_6:
	testb	$1, -73(%rbp)
	jne	LBB129_9
	jmp	LBB129_8
LBB129_7:
	jmp	LBB129_6
LBB129_8:
	.loc	16 124 13 is_stmt 1
	movq	-16(%rbp), %rdi
	callq	__Unwind_Resume
LBB129_9:
	.loc	16 129 13
	jmp	LBB129_8
Ltmp1254:
Lfunc_end129:
	.cfi_endproc
	.section	__TEXT,__gcc_except_tab
	.p2align	2
GCC_except_table129:
Lexception91:
	.byte	255
	.byte	255
	.byte	1
	.uleb128 Lcst_end91-Lcst_begin91
Lcst_begin91:
	.uleb128 Ltmp1245-Lfunc_begin129
	.uleb128 Ltmp1246-Ltmp1245
	.uleb128 Ltmp1247-Lfunc_begin129
	.byte	0
	.uleb128 Ltmp1246-Lfunc_begin129
	.uleb128 Lfunc_end129-Ltmp1246
	.byte	0
	.byte	0
Lcst_end91:
	.p2align	2

	.section	__TEXT,__text,regular,pure_instructions
	.globl	__ZN69_$LT$$LP$A$C$B$C$C$RP$$u20$as$u20$objc..message..MessageArguments$GT$6invoke17heea74f00f7ba3c16E
	.p2align	4, 0x90
__ZN69_$LT$$LP$A$C$B$C$C$RP$$u20$as$u20$objc..message..MessageArguments$GT$6invoke17heea74f00f7ba3c16E:
Lfunc_begin130:
	.loc	16 124 0
	.cfi_startproc
	.cfi_personality 155, _rust_eh_personality
	.cfi_lsda 16, Lexception92
	pushq	%rbp
	.cfi_def_cfa_offset 16
	.cfi_offset %rbp, -16
	movq	%rsp, %rbp
	.cfi_def_cfa_register %rbp
	subq	$128, %rsp
	movq	%rcx, -128(%rbp)
	movq	%rsi, %rax
	movq	-128(%rbp), %rsi
	movq	%rax, -120(%rbp)
	movq	%rdi, %rax
	movq	-120(%rbp), %rdi
Ltmp1258:
	movq	%rdx, -96(%rbp)
	movq	-96(%rbp), %rcx
