	.section	__TEXT,__text,regular,pure_instructions
	.macosx_version_min 10, 7
	.globl	__ZN106_$LT$core..ops..range..Range$LT$usize$GT$$u20$as$u20$core..slice..index..SliceIndex$LT$$u5b$T$u5d$$GT$$GT$13get_unchecked17he752ab072b15cd6aE
	.p2align	4, 0x90
__ZN106_$LT$core..ops..range..Range$LT$usize$GT$$u20$as$u20$core..slice..index..SliceIndex$LT$$u5b$T$u5d$$GT$$GT$13get_unchecked17he752ab072b15cd6aE:
Lfunc_begin0:
	.file	1 "/rustc/2c8cc343237b8f7d5a3c3703e3a87f2eb2c54a74/library/core/src/slice" "index.rs"
	.loc	1 373 0
	.cfi_startproc
	pushq	%rbp
	.cfi_def_cfa_offset 16
	.cfi_offset %rbp, -16
	movq	%rsp, %rbp
	.cfi_def_cfa_register %rbp
	subq	$160, %rsp
	movq	%rdi, -128(%rbp)
	movq	%rsi, -120(%rbp)
	movq	%rdx, -112(%rbp)
	movq	%rcx, -104(%rbp)
Ltmp0:
	.loc	1 386 39 prologue_end
	movq	%rdx, -96(%rbp)
	movq	%rcx, -88(%rbp)
Ltmp1:
	.file	2 "/rustc/2c8cc343237b8f7d5a3c3703e3a87f2eb2c54a74/library/core/src/ptr" "const_ptr.rs"
	.loc	2 1650 9
	movq	%rdx, -80(%rbp)
Ltmp2:
	.loc	1 386 58
	movq	%rdi, -72(%rbp)
Ltmp3:
	.loc	2 932 18
	movq	%rdx, -64(%rbp)
	.loc	2 932 30 is_stmt 0
	movq	%rdi, -56(%rbp)
Ltmp4:
	.loc	2 473 18 is_stmt 1
	addq	%rdi, %rdx
	movq	%rdx, -48(%rbp)
	movq	-48(%rbp), %rax
	movq	%rax, -40(%rbp)
Ltmp5:
	.loc	1 386 71
	subq	%rdi, %rsi
	movq	%rsi, -32(%rbp)
Ltmp6:
	.file	3 "/rustc/2c8cc343237b8f7d5a3c3703e3a87f2eb2c54a74/library/core/src/ptr" "mod.rs"
	.loc	3 734 20
	movq	%rax, -24(%rbp)
Ltmp7:
	.loc	2 61 9
	movq	%rax, -16(%rbp)
Ltmp8:
	.loc	3 734 33
	movq	%rsi, -8(%rbp)
Ltmp9:
	.file	4 "/rustc/2c8cc343237b8f7d5a3c3703e3a87f2eb2c54a74/library/core/src/ptr" "metadata.rs"
	.loc	4 118 36
	movq	%rax, -144(%rbp)
	movq	%rsi, -136(%rbp)
	.loc	4 118 14 is_stmt 0
	movq	-144(%rbp), %rcx
	movq	-136(%rbp), %rax
	movq	%rcx, -160(%rbp)
	movq	%rax, -152(%rbp)
	movq	-160(%rbp), %rax
	movq	-152(%rbp), %rdx
Ltmp10:
	.loc	1 388 6 is_stmt 1
	addq	$160, %rsp
	popq	%rbp
	retq
Ltmp11:
Lfunc_end0:
	.cfi_endproc

	.globl	__ZN106_$LT$core..ops..range..Range$LT$usize$GT$$u20$as$u20$core..slice..index..SliceIndex$LT$$u5b$T$u5d$$GT$$GT$5index17h86c6212156113279E
	.p2align	4, 0x90
__ZN106_$LT$core..ops..range..Range$LT$usize$GT$$u20$as$u20$core..slice..index..SliceIndex$LT$$u5b$T$u5d$$GT$$GT$5index17h86c6212156113279E:
Lfunc_begin1:
	.loc	1 405 0
	.cfi_startproc
	pushq	%rbp
	.cfi_def_cfa_offset 16
	.cfi_offset %rbp, -16
	movq	%rsp, %rbp
	.cfi_def_cfa_register %rbp
	subq	$80, %rsp
	movq	%rdi, -72(%rbp)
	movq	%rsi, -64(%rbp)
	movq	%rdx, -56(%rbp)
	movq	%rcx, -48(%rbp)
	movq	%r8, -40(%rbp)
	movq	%rdi, -32(%rbp)
	movq	%rsi, -24(%rbp)
	movq	%rdx, -16(%rbp)
	movq	%rcx, -8(%rbp)
Ltmp12:
	.loc	1 406 12 prologue_end
	cmpq	%rsi, %rdi
	ja	LBB1_2
	.loc	1 0 12 is_stmt 0
	movq	-64(%rbp), %rax
	movq	-48(%rbp), %rcx
	.loc	1 408 19 is_stmt 1
	cmpq	%rcx, %rax
	ja	LBB1_4
	jmp	LBB1_3
LBB1_2:
	.loc	1 0 19 is_stmt 0
	movq	-40(%rbp), %rdx
	movq	-64(%rbp), %rsi
	movq	-72(%rbp), %rdi
	.loc	1 407 13 is_stmt 1
	callq	__ZN4core5slice5index22slice_index_order_fail17h0d8f800a07d5f26eE
LBB1_3:
	.loc	1 0 13 is_stmt 0
	movq	-48(%rbp), %rcx
	movq	-56(%rbp), %rdx
	movq	-64(%rbp), %rsi
	movq	-72(%rbp), %rdi
	.loc	1 412 20 is_stmt 1
	callq	__ZN106_$LT$core..ops..range..Range$LT$usize$GT$$u20$as$u20$core..slice..index..SliceIndex$LT$$u5b$T$u5d$$GT$$GT$13get_unchecked17he752ab072b15cd6aE
	.loc	1 413 6
	addq	$80, %rsp
	popq	%rbp
	retq
LBB1_4:
	.loc	1 0 6 is_stmt 0
	movq	-40(%rbp), %rdx
	movq	-48(%rbp), %rsi
	movq	-64(%rbp), %rdi
	.loc	1 409 13 is_stmt 1
	callq	__ZN4core5slice5index24slice_end_index_len_fail17hc921cb2f1513645aE
Ltmp13:
Lfunc_end1:
	.cfi_endproc

	.globl	__ZN108_$LT$core..ops..range..RangeTo$LT$usize$GT$$u20$as$u20$core..slice..index..SliceIndex$LT$$u5b$T$u5d$$GT$$GT$5index17h9ce9aa79184eb04bE
	.p2align	4, 0x90
__ZN108_$LT$core..ops..range..RangeTo$LT$usize$GT$$u20$as$u20$core..slice..index..SliceIndex$LT$$u5b$T$u5d$$GT$$GT$5index17h9ce9aa79184eb04bE:
Lfunc_begin2:
	.loc	1 455 0
	.cfi_startproc
	pushq	%rbp
	.cfi_def_cfa_offset 16
	.cfi_offset %rbp, -16
	movq	%rsp, %rbp
	.cfi_def_cfa_register %rbp
	subq	$48, %rsp
	movq	%rcx, %r8
	movq	%rdx, %rcx
	movq	%rsi, %rdx
	movq	%rdi, -24(%rbp)
	movq	%rdx, -16(%rbp)
	movq	%rcx, -8(%rbp)
Ltmp14:
	.loc	1 456 9 prologue_end
	movq	$0, -40(%rbp)
	movq	%rdi, -32(%rbp)
	movq	-40(%rbp), %rdi
	movq	-32(%rbp), %rsi
	callq	__ZN106_$LT$core..ops..range..Range$LT$usize$GT$$u20$as$u20$core..slice..index..SliceIndex$LT$$u5b$T$u5d$$GT$$GT$5index17h86c6212156113279E
	.loc	1 457 6
	addq	$48, %rsp
	popq	%rbp
	retq
Ltmp15:
Lfunc_end2:
	.cfi_endproc

	.globl	__ZN110_$LT$core..ops..range..RangeFrom$LT$usize$GT$$u20$as$u20$core..slice..index..SliceIndex$LT$$u5b$T$u5d$$GT$$GT$5index17h3b5e8362b57bd90fE
	.p2align	4, 0x90
__ZN110_$LT$core..ops..range..RangeFrom$LT$usize$GT$$u20$as$u20$core..slice..index..SliceIndex$LT$$u5b$T$u5d$$GT$$GT$5index17h3b5e8362b57bd90fE:
Lfunc_begin3:
	.loc	1 493 0
	.cfi_startproc
	pushq	%rbp
	.cfi_def_cfa_offset 16
	.cfi_offset %rbp, -16
	movq	%rsp, %rbp
	.cfi_def_cfa_register %rbp
	subq	$144, %rsp
	movq	%rdi, -144(%rbp)
	movq	%rsi, -136(%rbp)
	movq	%rdx, -128(%rbp)
	movq	%rcx, -120(%rbp)
	movq	%rdi, -80(%rbp)
	movq	%rsi, -72(%rbp)
	movq	%rdx, -64(%rbp)
Ltmp16:
	.loc	1 494 12 prologue_end
	cmpq	%rdx, %rdi
	ja	LBB3_2
	.loc	1 0 12 is_stmt 0
	movq	-128(%rbp), %rcx
	movq	-136(%rbp), %rdx
	movq	-144(%rbp), %rsi
	.loc	1 498 20 is_stmt 1
	movq	%rsi, -56(%rbp)
	.loc	1 498 39 is_stmt 0
	movq	%rdx, -48(%rbp)
	movq	%rcx, -40(%rbp)
Ltmp17:
	.loc	1 483 31 is_stmt 1
	movq	%rdx, -32(%rbp)
	movq	%rcx, -24(%rbp)
Ltmp18:
	.loc	2 1630 18
	movq	%rdx, -16(%rbp)
	movq	%rcx, -8(%rbp)
Ltmp19:
	.loc	4 98 14
	movq	%rdx, -96(%rbp)
	movq	%rcx, -88(%rbp)
	movq	-88(%rbp), %rax
Ltmp20:
	.loc	1 483 18
	movq	%rsi, -112(%rbp)
	movq	%rax, -104(%rbp)
	movq	-112(%rbp), %rdi
	movq	-104(%rbp), %rsi
	callq	__ZN106_$LT$core..ops..range..Range$LT$usize$GT$$u20$as$u20$core..slice..index..SliceIndex$LT$$u5b$T$u5d$$GT$$GT$13get_unchecked17he752ab072b15cd6aE
Ltmp21:
	.loc	1 499 6
	addq	$144, %rsp
	popq	%rbp
	retq
LBB3_2:
	.loc	1 0 6 is_stmt 0
	movq	-120(%rbp), %rdx
	movq	-128(%rbp), %rsi
	movq	-144(%rbp), %rdi
	.loc	1 495 13 is_stmt 1
	callq	__ZN4core5slice5index26slice_start_index_len_fail17h9d301bb51ec3e351E
Ltmp22:
Lfunc_end3:
	.cfi_endproc

	.globl	__ZN119_$LT$core..ptr..non_null..NonNull$LT$T$GT$$u20$as$u20$core..convert..From$LT$core..ptr..unique..Unique$LT$T$GT$$GT$$GT$4from17h3ca58a2df5f087abE
	.p2align	4, 0x90
__ZN119_$LT$core..ptr..non_null..NonNull$LT$T$GT$$u20$as$u20$core..convert..From$LT$core..ptr..unique..Unique$LT$T$GT$$GT$$GT$4from17h3ca58a2df5f087abE:
Lfunc_begin4:
	.file	5 "/rustc/2c8cc343237b8f7d5a3c3703e3a87f2eb2c54a74/library/core/src/ptr" "non_null.rs"
	.loc	5 765 0
	.cfi_startproc
	pushq	%rbp
	.cfi_def_cfa_offset 16
	.cfi_offset %rbp, -16
	movq	%rsp, %rbp
	.cfi_def_cfa_register %rbp
	subq	$40, %rsp
	movq	%rdi, -32(%rbp)
Ltmp23:
	.loc	5 768 41 prologue_end
	movq	%rdi, -24(%rbp)
Ltmp24:
	.file	6 "/rustc/2c8cc343237b8f7d5a3c3703e3a87f2eb2c54a74/library/core/src/ptr" "unique.rs"
	.loc	6 104 9
	movq	%rdi, -16(%rbp)
Ltmp25:
	.loc	5 326 9
	movq	%rdi, -8(%rbp)
Ltmp26:
	.loc	5 201 13
	movq	%rdi, -40(%rbp)
Ltmp27:
	.loc	5 769 6
	movq	-40(%rbp), %rax
	addq	$40, %rsp
	popq	%rbp
	retq
Ltmp28:
Lfunc_end4:
	.cfi_endproc

	.p2align	4, 0x90
__ZN122_$LT$alloc..collections..TryReserveError$u20$as$u20$core..convert..From$LT$alloc..collections..TryReserveErrorKind$GT$$GT$4from17h2293372e4729f008E:
Lfunc_begin5:
	.file	7 "/rustc/2c8cc343237b8f7d5a3c3703e3a87f2eb2c54a74/library/alloc/src/collections" "mod.rs"
	.loc	7 116 0
	.cfi_startproc
	pushq	%rbp
	.cfi_def_cfa_offset 16
	.cfi_offset %rbp, -16
	movq	%rsp, %rbp
	.cfi_def_cfa_register %rbp
	subq	$32, %rsp
	movq	%rdi, -16(%rbp)
	movq	%rsi, -8(%rbp)
Ltmp29:
	.loc	7 117 9 prologue_end
	movq	%rdi, -32(%rbp)
	movq	%rsi, -24(%rbp)
	.loc	7 118 6
	movq	-32(%rbp), %rax
	movq	-24(%rbp), %rdx
	addq	$32, %rsp
	popq	%rbp
	retq
Ltmp30:
Lfunc_end5:
	.cfi_endproc

	.section	__TEXT,__literal16,16byte_literals
	.p2align	4
LCPI6_0:
	.quad	0x7fffffffffffffff
	.quad	0x7fffffffffffffff
	.section	__TEXT,__text,regular,pure_instructions
	.p2align	4, 0x90
__ZN3std3f6421_$LT$impl$u20$f64$GT$3abs17hf485e60f11a2c57dE:
Lfunc_begin6:
	.file	8 "/rustc/2c8cc343237b8f7d5a3c3703e3a87f2eb2c54a74/library/std/src" "f64.rs"
	.loc	8 157 0
	.cfi_startproc
	pushq	%rbp
	.cfi_def_cfa_offset 16
	.cfi_offset %rbp, -16
	movq	%rsp, %rbp
	.cfi_def_cfa_register %rbp
	subq	$16, %rsp
	movsd	%xmm0, -16(%rbp)
Ltmp31:
	.loc	8 158 18 prologue_end
	movaps	LCPI6_0(%rip), %xmm1
	pand	%xmm1, %xmm0
	movsd	%xmm0, -8(%rbp)
	movsd	-8(%rbp), %xmm0
	.loc	8 159 6
	addq	$16, %rsp
	popq	%rbp
	retq
Ltmp32:
Lfunc_end6:
	.cfi_endproc

	.p2align	4, 0x90
__ZN3std3f6421_$LT$impl$u20$f64$GT$5round17h20a048a74362046dE:
Lfunc_begin7:
	.loc	8 90 0
	.cfi_startproc
	pushq	%rbp
	.cfi_def_cfa_offset 16
	.cfi_offset %rbp, -16
	movq	%rsp, %rbp
	.cfi_def_cfa_register %rbp
	subq	$16, %rsp
	movsd	%xmm0, -16(%rbp)
Ltmp33:
	.loc	8 91 18 prologue_end
	callq	_round
	movsd	%xmm0, -8(%rbp)
	movsd	-8(%rbp), %xmm0
	.loc	8 92 6
	addq	$16, %rsp
	popq	%rbp
	retq
Ltmp34:
Lfunc_end7:
	.cfi_endproc

	.p2align	4, 0x90
__ZN49_$LT$usize$u20$as$u20$core..iter..range..Step$GT$17forward_unchecked17h3f74d528df71bb88E:
Lfunc_begin8:
	.file	9 "/rustc/2c8cc343237b8f7d5a3c3703e3a87f2eb2c54a74/library/core/src/iter" "range.rs"
	.loc	9 189 0
	.cfi_startproc
	pushq	%rbp
	.cfi_def_cfa_offset 16
	.cfi_offset %rbp, -16
	movq	%rsp, %rbp
	.cfi_def_cfa_register %rbp
	subq	$40, %rsp
	movq	%rdi, -40(%rbp)
	movq	%rsi, -32(%rbp)
Ltmp35:
	.loc	9 191 22 prologue_end
	movq	%rdi, -24(%rbp)
	.loc	9 191 42 is_stmt 0
	movq	%rsi, -16(%rbp)
Ltmp36:
	.file	10 "/rustc/2c8cc343237b8f7d5a3c3703e3a87f2eb2c54a74/library/core/src/num" "uint_macros.rs"
	.loc	10 470 22 is_stmt 1
	addq	%rsi, %rdi
	movq	%rdi, -8(%rbp)
	movq	-8(%rbp), %rax
Ltmp37:
	.loc	9 192 10
	addq	$40, %rsp
	popq	%rbp
	retq
Ltmp38:
Lfunc_end8:
	.cfi_endproc

	.globl	__ZN4core3cmp3Ord3max17h392fab3a584b4512E
	.p2align	4, 0x90
__ZN4core3cmp3Ord3max17h392fab3a584b4512E:
Lfunc_begin9:
	.file	11 "/rustc/2c8cc343237b8f7d5a3c3703e3a87f2eb2c54a74/library/core/src" "cmp.rs"
	.loc	11 796 0
	.cfi_startproc
	pushq	%rbp
	.cfi_def_cfa_offset 16
	.cfi_offset %rbp, -16
	movq	%rsp, %rbp
	.cfi_def_cfa_register %rbp
	subq	$16, %rsp
	movl	%edi, -8(%rbp)
	movl	%esi, -4(%rbp)
Ltmp39:
	.loc	11 803 13 prologue_end
	callq	__ZN4core3cmp6max_by17ha51d19ef92c10001E
	.loc	11 811 6
	addq	$16, %rsp
	popq	%rbp
	retq
Ltmp40:
Lfunc_end9:
	.cfi_endproc

	.globl	__ZN4core3cmp3Ord3min17h435f0c8a24c0a2a2E
	.p2align	4, 0x90
__ZN4core3cmp3Ord3min17h435f0c8a24c0a2a2E:
Lfunc_begin10:
	.loc	11 826 0
	.cfi_startproc
	pushq	%rbp
	.cfi_def_cfa_offset 16
	.cfi_offset %rbp, -16
	movq	%rsp, %rbp
	.cfi_def_cfa_register %rbp
	subq	$16, %rsp
	movl	%edi, -8(%rbp)
	movl	%esi, -4(%rbp)
Ltmp41:
	.loc	11 833 13 prologue_end
	callq	__ZN4core3cmp6min_by17h5485e9779768ab87E
	.loc	11 841 6
	addq	$16, %rsp
	popq	%rbp
	retq
Ltmp42:
Lfunc_end10:
	.cfi_endproc

	.globl	__ZN4core3cmp3max17h8c0aedef710adfeeE
	.p2align	4, 0x90
__ZN4core3cmp3max17h8c0aedef710adfeeE:
Lfunc_begin11:
	.loc	11 1275 0
	.cfi_startproc
	pushq	%rbp
	.cfi_def_cfa_offset 16
	.cfi_offset %rbp, -16
	movq	%rsp, %rbp
	.cfi_def_cfa_register %rbp
	subq	$16, %rsp
	movl	%edi, -8(%rbp)
	movl	%esi, -4(%rbp)
Ltmp43:
	.loc	11 1276 5 prologue_end
	callq	__ZN4core3cmp3Ord3max17h392fab3a584b4512E
	.loc	11 1277 2
	addq	$16, %rsp
	popq	%rbp
	retq
Ltmp44:
Lfunc_end11:
	.cfi_endproc

	.globl	__ZN4core3cmp3min17h5e51d6e8ae3026c4E
	.p2align	4, 0x90
__ZN4core3cmp3min17h5e51d6e8ae3026c4E:
Lfunc_begin12:
	.loc	11 1184 0
	.cfi_startproc
	pushq	%rbp
	.cfi_def_cfa_offset 16
	.cfi_offset %rbp, -16
	movq	%rsp, %rbp
	.cfi_def_cfa_register %rbp
	subq	$16, %rsp
	movl	%edi, -8(%rbp)
	movl	%esi, -4(%rbp)
Ltmp45:
	.loc	11 1185 5 prologue_end
	callq	__ZN4core3cmp3Ord3min17h435f0c8a24c0a2a2E
	.loc	11 1186 2
	addq	$16, %rsp
	popq	%rbp
	retq
Ltmp46:
Lfunc_end12:
	.cfi_endproc

	.p2align	4, 0x90
__ZN4core3cmp5impls48_$LT$impl$u20$core..cmp..Ord$u20$for$u20$i32$GT$3cmp17h56113e4e321a18f4E:
Lfunc_begin13:
	.loc	11 1454 0
	.cfi_startproc
	pushq	%rbp
	.cfi_def_cfa_offset 16
	.cfi_offset %rbp, -16
	movq	%rsp, %rbp
	.cfi_def_cfa_register %rbp
	subq	$40, %rsp
	movq	%rdi, -40(%rbp)
	movq	%rsi, -32(%rbp)
	movq	%rdi, -16(%rbp)
	movq	%rsi, -8(%rbp)
Ltmp47:
	.loc	11 1457 24 prologue_end
	movl	(%rdi), %eax
	cmpl	(%rsi), %eax
	jl	LBB13_2
	.loc	11 0 24 is_stmt 0
	movq	-32(%rbp), %rcx
	movq	-40(%rbp), %rax
	.loc	11 1458 29 is_stmt 1
	movl	(%rax), %eax
	cmpl	(%rcx), %eax
	je	LBB13_5
	jmp	LBB13_4
LBB13_2:
	.loc	11 1457 41
	movb	$-1, -17(%rbp)
LBB13_3:
	.loc	11 1460 18
	movb	-17(%rbp), %al
	addq	$40, %rsp
	popq	%rbp
	retq
LBB13_4:
	.loc	11 1459 28
	movb	$1, -17(%rbp)
	.loc	11 1458 26
	jmp	LBB13_6
LBB13_5:
	.loc	11 1458 47 is_stmt 0
	movb	$0, -17(%rbp)
LBB13_6:
	.loc	11 1457 21 is_stmt 1
	jmp	LBB13_3
Ltmp48:
Lfunc_end13:
	.cfi_endproc

	.p2align	4, 0x90
__ZN4core3cmp5impls50_$LT$impl$u20$core..cmp..Ord$u20$for$u20$usize$GT$3cmp17hab58d4cfda28f360E:
Lfunc_begin14:
	.loc	11 1454 0
	.cfi_startproc
	pushq	%rbp
	.cfi_def_cfa_offset 16
	.cfi_offset %rbp, -16
	movq	%rsp, %rbp
	.cfi_def_cfa_register %rbp
	subq	$40, %rsp
	movq	%rdi, -40(%rbp)
	movq	%rsi, -32(%rbp)
	movq	%rdi, -16(%rbp)
	movq	%rsi, -8(%rbp)
Ltmp49:
	.loc	11 1457 24 prologue_end
	movq	(%rdi), %rax
	cmpq	(%rsi), %rax
	jb	LBB14_2
	.loc	11 0 24 is_stmt 0
	movq	-32(%rbp), %rcx
	movq	-40(%rbp), %rax
	.loc	11 1458 29 is_stmt 1
	movq	(%rax), %rax
	cmpq	(%rcx), %rax
	je	LBB14_5
	jmp	LBB14_4
LBB14_2:
	.loc	11 1457 41
	movb	$-1, -17(%rbp)
LBB14_3:
	.loc	11 1460 18
	movb	-17(%rbp), %al
	addq	$40, %rsp
	popq	%rbp
	retq
LBB14_4:
	.loc	11 1459 28
	movb	$1, -17(%rbp)
	.loc	11 1458 26
	jmp	LBB14_6
LBB14_5:
	.loc	11 1458 47 is_stmt 0
	movb	$0, -17(%rbp)
LBB14_6:
	.loc	11 1457 21 is_stmt 1
	jmp	LBB14_3
Ltmp50:
Lfunc_end14:
	.cfi_endproc

	.p2align	4, 0x90
__ZN4core3cmp5impls57_$LT$impl$u20$core..cmp..PartialOrd$u20$for$u20$usize$GT$2lt17h1145d3591cbd7527E:
Lfunc_begin15:
	.loc	11 1441 0
	.cfi_startproc
	pushq	%rbp
	.cfi_def_cfa_offset 16
	.cfi_offset %rbp, -16
	movq	%rsp, %rbp
	.cfi_def_cfa_register %rbp
	subq	$16, %rsp
	movq	%rdi, -16(%rbp)
	movq	%rsi, -8(%rbp)
Ltmp51:
	.loc	11 1441 52 prologue_end
	movq	(%rdi), %rax
	cmpq	(%rsi), %rax
	setb	%al
	.loc	11 1441 72 is_stmt 0
	andb	$1, %al
	movzbl	%al, %eax
	addq	$16, %rsp
	popq	%rbp
	retq
Ltmp52:
Lfunc_end15:
	.cfi_endproc

	.globl	__ZN4core3cmp6max_by17ha51d19ef92c10001E
	.p2align	4, 0x90
__ZN4core3cmp6max_by17ha51d19ef92c10001E:
Lfunc_begin16:
	.loc	11 1295 0 is_stmt 1
	.cfi_startproc
	.cfi_personality 155, _rust_eh_personality
	.cfi_lsda 16, Lexception0
	pushq	%rbp
	.cfi_def_cfa_offset 16
	.cfi_offset %rbp, -16
	movq	%rsp, %rbp
	.cfi_def_cfa_register %rbp
	subq	$80, %rsp
	movl	%edi, -64(%rbp)
	movl	%esi, -60(%rbp)
Ltmp56:
	.loc	11 1300 11 prologue_end
	movb	$1, -25(%rbp)
	movb	$1, -26(%rbp)
	leaq	-64(%rbp), %rax
	movq	%rax, -48(%rbp)
	leaq	-60(%rbp), %rax
	movq	%rax, -40(%rbp)
	movq	-48(%rbp), %rdi
	movq	-40(%rbp), %rsi
Ltmp53:
	callq	__ZN4core3ops8function6FnOnce9call_once17h0ccdd3db859da777E
Ltmp54:
	movb	%al, -65(%rbp)
	jmp	LBB16_3
LBB16_1:
	.loc	11 1304 1
	jmp	LBB16_4
LBB16_2:
Ltmp55:
	.loc	11 0 1 is_stmt 0
	movq	%rax, %rcx
	movl	%edx, %eax
	movq	%rcx, -16(%rbp)
	movl	%eax, -8(%rbp)
	jmp	LBB16_1
LBB16_3:
	movb	-65(%rbp), %al
	.loc	11 1300 11 is_stmt 1
	movb	%al, -49(%rbp)
	movb	-49(%rbp), %al
	.loc	11 1300 5 is_stmt 0
	incb	%al
	subb	$2, %al
	jb	LBB16_6
	jmp	LBB16_15
LBB16_15:
	jmp	LBB16_7
LBB16_4:
	.loc	11 1304 1 is_stmt 1
	testb	$1, -25(%rbp)
	jne	LBB16_12
	jmp	LBB16_11
	.loc	11 1300 11
	ud2
LBB16_6:
	.loc	11 1301 45
	movb	$0, -26(%rbp)
	movl	-60(%rbp), %eax
	movl	%eax, -56(%rbp)
	jmp	LBB16_8
LBB16_7:
	.loc	11 1302 30
	movb	$0, -25(%rbp)
	movl	-64(%rbp), %eax
	movl	%eax, -56(%rbp)
LBB16_8:
	.loc	11 1304 1
	testb	$1, -26(%rbp)
	jne	LBB16_10
LBB16_9:
	testb	$1, -25(%rbp)
	jne	LBB16_14
	jmp	LBB16_13
LBB16_10:
	jmp	LBB16_9
LBB16_11:
	.loc	11 1295 1
	movq	-16(%rbp), %rdi
	callq	__Unwind_Resume
LBB16_12:
	.loc	11 1304 1
	jmp	LBB16_11
LBB16_13:
	.loc	11 1304 2 is_stmt 0
	movl	-56(%rbp), %eax
	addq	$80, %rsp
	popq	%rbp
	retq
LBB16_14:
	.loc	11 1304 1
	jmp	LBB16_13
Ltmp57:
Lfunc_end16:
	.cfi_endproc
	.section	__TEXT,__gcc_except_tab
	.p2align	2
GCC_except_table16:
Lexception0:
	.byte	255
	.byte	255
	.byte	1
	.uleb128 Lcst_end0-Lcst_begin0
Lcst_begin0:
	.uleb128 Ltmp53-Lfunc_begin16
	.uleb128 Ltmp54-Ltmp53
	.uleb128 Ltmp55-Lfunc_begin16
	.byte	0
	.uleb128 Ltmp54-Lfunc_begin16
	.uleb128 Lfunc_end16-Ltmp54
	.byte	0
	.byte	0
Lcst_end0:
	.p2align	2

	.section	__TEXT,__text,regular,pure_instructions
	.globl	__ZN4core3cmp6max_by17hffd83987ac06665fE
	.p2align	4, 0x90
__ZN4core3cmp6max_by17hffd83987ac06665fE:
Lfunc_begin17:
	.loc	11 1295 0 is_stmt 1
	.cfi_startproc
	.cfi_personality 155, _rust_eh_personality
	.cfi_lsda 16, Lexception1
	pushq	%rbp
	.cfi_def_cfa_offset 16
	.cfi_offset %rbp, -16
	movq	%rsp, %rbp
	.cfi_def_cfa_register %rbp
	subq	$96, %rsp
	movq	%rdi, -80(%rbp)
	movq	%rsi, -72(%rbp)
Ltmp61:
	.loc	11 1300 11 prologue_end
	movb	$1, -25(%rbp)
	movb	$1, -26(%rbp)
	leaq	-80(%rbp), %rax
	movq	%rax, -48(%rbp)
	leaq	-72(%rbp), %rax
	movq	%rax, -40(%rbp)
	movq	-48(%rbp), %rdi
	movq	-40(%rbp), %rsi
Ltmp58:
	callq	__ZN4core3ops8function6FnOnce9call_once17h7268ec27b603c102E
Ltmp59:
	movb	%al, -81(%rbp)
	jmp	LBB17_3
LBB17_1:
	.loc	11 1304 1
	jmp	LBB17_4
LBB17_2:
Ltmp60:
	.loc	11 0 1 is_stmt 0
	movq	%rax, %rcx
	movl	%edx, %eax
	movq	%rcx, -16(%rbp)
	movl	%eax, -8(%rbp)
	jmp	LBB17_1
LBB17_3:
	movb	-81(%rbp), %al
	.loc	11 1300 11 is_stmt 1
	movb	%al, -49(%rbp)
	movb	-49(%rbp), %al
	.loc	11 1300 5 is_stmt 0
	incb	%al
	subb	$2, %al
	jb	LBB17_6
	jmp	LBB17_15
LBB17_15:
	jmp	LBB17_7
LBB17_4:
	.loc	11 1304 1 is_stmt 1
	testb	$1, -25(%rbp)
	jne	LBB17_12
	jmp	LBB17_11
	.loc	11 1300 11
	ud2
LBB17_6:
	.loc	11 1301 45
	movb	$0, -26(%rbp)
	movq	-72(%rbp), %rax
	movq	%rax, -64(%rbp)
	jmp	LBB17_8
LBB17_7:
	.loc	11 1302 30
	movb	$0, -25(%rbp)
	movq	-80(%rbp), %rax
	movq	%rax, -64(%rbp)
LBB17_8:
	.loc	11 1304 1
	testb	$1, -26(%rbp)
	jne	LBB17_10
LBB17_9:
	testb	$1, -25(%rbp)
	jne	LBB17_14
	jmp	LBB17_13
LBB17_10:
	jmp	LBB17_9
LBB17_11:
	.loc	11 1295 1
	movq	-16(%rbp), %rdi
	callq	__Unwind_Resume
LBB17_12:
	.loc	11 1304 1
	jmp	LBB17_11
LBB17_13:
	.loc	11 1304 2 is_stmt 0
	movq	-64(%rbp), %rax
	addq	$96, %rsp
	popq	%rbp
	retq
LBB17_14:
	.loc	11 1304 1
	jmp	LBB17_13
Ltmp62:
Lfunc_end17:
	.cfi_endproc
	.section	__TEXT,__gcc_except_tab
	.p2align	2
GCC_except_table17:
Lexception1:
	.byte	255
	.byte	255
	.byte	1
	.uleb128 Lcst_end1-Lcst_begin1
Lcst_begin1:
	.uleb128 Ltmp58-Lfunc_begin17
	.uleb128 Ltmp59-Ltmp58
	.uleb128 Ltmp60-Lfunc_begin17
	.byte	0
	.uleb128 Ltmp59-Lfunc_begin17
	.uleb128 Lfunc_end17-Ltmp59
	.byte	0
	.byte	0
Lcst_end1:
	.p2align	2

	.section	__TEXT,__text,regular,pure_instructions
	.globl	__ZN4core3cmp6min_by17h5485e9779768ab87E
	.p2align	4, 0x90
__ZN4core3cmp6min_by17h5485e9779768ab87E:
Lfunc_begin18:
	.loc	11 1204 0 is_stmt 1
	.cfi_startproc
	.cfi_personality 155, _rust_eh_personality
	.cfi_lsda 16, Lexception2
	pushq	%rbp
	.cfi_def_cfa_offset 16
	.cfi_offset %rbp, -16
	movq	%rsp, %rbp
	.cfi_def_cfa_register %rbp
	subq	$80, %rsp
	movl	%edi, -64(%rbp)
	movl	%esi, -60(%rbp)
Ltmp66:
	.loc	11 1209 11 prologue_end
	movb	$1, -25(%rbp)
	movb	$1, -26(%rbp)
	leaq	-64(%rbp), %rax
	movq	%rax, -48(%rbp)
	leaq	-60(%rbp), %rax
	movq	%rax, -40(%rbp)
	movq	-48(%rbp), %rdi
	movq	-40(%rbp), %rsi
Ltmp63:
	callq	__ZN4core3ops8function6FnOnce9call_once17h0ccdd3db859da777E
Ltmp64:
	movb	%al, -65(%rbp)
	jmp	LBB18_3
LBB18_1:
	.loc	11 1213 1
	jmp	LBB18_4
LBB18_2:
Ltmp65:
	.loc	11 0 1 is_stmt 0
	movq	%rax, %rcx
	movl	%edx, %eax
	movq	%rcx, -16(%rbp)
	movl	%eax, -8(%rbp)
	jmp	LBB18_1
LBB18_3:
	movb	-65(%rbp), %al
	.loc	11 1209 11 is_stmt 1
	movb	%al, -49(%rbp)
	movb	-49(%rbp), %al
	.loc	11 1209 5 is_stmt 0
	incb	%al
	subb	$2, %al
	jb	LBB18_6
	jmp	LBB18_15
LBB18_15:
	jmp	LBB18_7
LBB18_4:
	.loc	11 1213 1 is_stmt 1
	testb	$1, -25(%rbp)
	jne	LBB18_12
	jmp	LBB18_11
	.loc	11 1209 11
	ud2
LBB18_6:
	.loc	11 1210 45
	movb	$0, -25(%rbp)
	movl	-64(%rbp), %eax
	movl	%eax, -56(%rbp)
	jmp	LBB18_8
LBB18_7:
	.loc	11 1211 30
	movb	$0, -26(%rbp)
	movl	-60(%rbp), %eax
	movl	%eax, -56(%rbp)
LBB18_8:
	.loc	11 1213 1
	testb	$1, -26(%rbp)
	jne	LBB18_10
LBB18_9:
	testb	$1, -25(%rbp)
	jne	LBB18_14
	jmp	LBB18_13
LBB18_10:
	jmp	LBB18_9
LBB18_11:
	.loc	11 1204 1
	movq	-16(%rbp), %rdi
	callq	__Unwind_Resume
LBB18_12:
	.loc	11 1213 1
	jmp	LBB18_11
LBB18_13:
	.loc	11 1213 2 is_stmt 0
	movl	-56(%rbp), %eax
	addq	$80, %rsp
	popq	%rbp
	retq
LBB18_14:
	.loc	11 1213 1
	jmp	LBB18_13
Ltmp67:
Lfunc_end18:
	.cfi_endproc
	.section	__TEXT,__gcc_except_tab
	.p2align	2
GCC_except_table18:
Lexception2:
	.byte	255
	.byte	255
	.byte	1
	.uleb128 Lcst_end2-Lcst_begin2
Lcst_begin2:
	.uleb128 Ltmp63-Lfunc_begin18
	.uleb128 Ltmp64-Ltmp63
	.uleb128 Ltmp65-Lfunc_begin18
	.byte	0
	.uleb128 Ltmp64-Lfunc_begin18
	.uleb128 Lfunc_end18-Ltmp64
	.byte	0
	.byte	0
Lcst_end2:
	.p2align	2

	.section	__TEXT,__literal8,8byte_literals
	.p2align	3
LCPI19_0:
	.quad	0x3ff0000000000000
	.section	__TEXT,__text,regular,pure_instructions
	.p2align	4, 0x90
__ZN4core3f6421_$LT$impl$u20$f64$GT$5recip17h5bc049b81181d99dE:
Lfunc_begin19:
	.file	12 "/rustc/2c8cc343237b8f7d5a3c3703e3a87f2eb2c54a74/library/core/src/num" "f64.rs"
	.loc	12 802 0 is_stmt 1
	.cfi_startproc
	pushq	%rbp
	.cfi_def_cfa_offset 16
	.cfi_offset %rbp, -16
	movq	%rsp, %rbp
	.cfi_def_cfa_register %rbp
	pushq	%rax
	movaps	%xmm0, %xmm1
	movsd	%xmm1, -8(%rbp)
Ltmp68:
	.loc	12 803 9 prologue_end
	movsd	LCPI19_0(%rip), %xmm0
	divsd	%xmm1, %xmm0
	.loc	12 804 6
	addq	$8, %rsp
	popq	%rbp
	retq
Ltmp69:
Lfunc_end19:
	.cfi_endproc

	.globl	__ZN4core3mem11swap_simple17h1f19939cdef0124aE
	.p2align	4, 0x90
__ZN4core3mem11swap_simple17h1f19939cdef0124aE:
Lfunc_begin20:
	.file	13 "/rustc/2c8cc343237b8f7d5a3c3703e3a87f2eb2c54a74/library/core/src/mem" "mod.rs"
	.loc	13 757 0
	.cfi_startproc
	pushq	%rbp
	.cfi_def_cfa_offset 16
	.cfi_offset %rbp, -16
	movq	%rsp, %rbp
	.cfi_def_cfa_register %rbp
	subq	$192, %rsp
	movq	%rdi, -192(%rbp)
	movq	%rsi, -184(%rbp)
	movq	%rdi, -128(%rbp)
	movq	%rsi, -120(%rbp)
Ltmp70:
	.loc	13 774 27 prologue_end
	movq	%rdi, -112(%rbp)
Ltmp71:
	.loc	3 1157 34
	leaq	-144(%rbp), %rax
	movq	%rax, -104(%rbp)
	.loc	3 1157 9 is_stmt 0
	movq	(%rdi), %rax
	movq	%rax, -144(%rbp)
	.loc	3 1158 9 is_stmt 1
	movq	-144(%rbp), %rax
	movq	%rax, -176(%rbp)
	movq	%rax, -96(%rbp)
Ltmp72:
	.file	14 "/rustc/2c8cc343237b8f7d5a3c3703e3a87f2eb2c54a74/library/core/src/mem" "maybe_uninit.rs"
	.loc	14 627 38
	movq	%rax, -88(%rbp)
Ltmp73:
	.file	15 "/rustc/2c8cc343237b8f7d5a3c3703e3a87f2eb2c54a74/library/core/src/mem" "manually_drop.rs"
	.loc	15 89 9
	movq	%rax, -80(%rbp)
Ltmp74:
	.loc	13 775 27
	movq	%rsi, -72(%rbp)
Ltmp75:
	.loc	3 1157 34
	leaq	-136(%rbp), %rax
	movq	%rax, -64(%rbp)
	.loc	3 1157 9 is_stmt 0
	movq	(%rsi), %rax
	movq	%rax, -136(%rbp)
	.loc	3 1158 9 is_stmt 1
	movq	-136(%rbp), %rax
	movq	%rax, -168(%rbp)
	movq	%rax, -56(%rbp)
	.loc	3 0 9 is_stmt 0
	movq	-184(%rbp), %rax
	movq	-176(%rbp), %rcx
	movq	-192(%rbp), %rdx
	movq	-168(%rbp), %rsi
Ltmp76:
	.loc	14 627 38 is_stmt 1
	movq	%rsi, -32(%rbp)
Ltmp77:
	.loc	15 89 9
	movq	%rsi, -24(%rbp)
Ltmp78:
	.loc	13 776 20
	movq	%rdx, -16(%rbp)
	.loc	13 776 23 is_stmt 0
	movq	%rsi, -160(%rbp)
Ltmp79:
	.loc	3 1354 9 is_stmt 1
	movq	-160(%rbp), %rsi
	movq	%rsi, (%rdx)
Ltmp80:
	.loc	13 777 20
	movq	%rax, -8(%rbp)
	.loc	13 777 23 is_stmt 0
	movq	%rcx, -152(%rbp)
Ltmp81:
	.loc	3 1354 9 is_stmt 1
	movq	-152(%rbp), %rcx
	movq	%rcx, (%rax)
Ltmp82:
	.loc	13 779 2
	addq	$192, %rsp
	popq	%rbp
	retq
Ltmp83:
Lfunc_end20:
	.cfi_endproc

	.globl	__ZN4core3mem11swap_simple17h987a493803316027E
	.p2align	4, 0x90
__ZN4core3mem11swap_simple17h987a493803316027E:
Lfunc_begin21:
	.loc	13 757 0
	.cfi_startproc
	pushq	%rbp
	.cfi_def_cfa_offset 16
	.cfi_offset %rbp, -16
	movq	%rsp, %rbp
	.cfi_def_cfa_register %rbp
	subq	$128, %rsp
	movq	%rdi, -128(%rbp)
	movq	%rsi, -120(%rbp)
	movq	%rdi, -104(%rbp)
	movq	%rsi, -96(%rbp)
Ltmp84:
	.loc	13 774 27 prologue_end
	movq	%rdi, -88(%rbp)
Ltmp85:
	.loc	3 1157 34
	leaq	-106(%rbp), %rax
	movq	%rax, -80(%rbp)
	.loc	3 1157 9 is_stmt 0
	movb	(%rdi), %al
	movb	%al, -106(%rbp)
	.loc	3 1158 9 is_stmt 1
	movb	-106(%rbp), %al
	movb	%al, -110(%rbp)
	movb	%al, -67(%rbp)
Ltmp86:
	.loc	14 627 38
	movb	%al, -66(%rbp)
Ltmp87:
	.loc	15 89 9
	movb	%al, -65(%rbp)
Ltmp88:
	.loc	13 775 27
	movq	%rsi, -64(%rbp)
Ltmp89:
	.loc	3 1157 34
	leaq	-105(%rbp), %rax
	movq	%rax, -56(%rbp)
	.loc	3 1157 9 is_stmt 0
	movb	(%rsi), %al
	movb	%al, -105(%rbp)
	.loc	3 1158 9 is_stmt 1
	movb	-105(%rbp), %al
	movb	%al, -109(%rbp)
	movb	%al, -41(%rbp)
	.loc	3 0 9 is_stmt 0
	movq	-120(%rbp), %rax
	movb	-110(%rbp), %cl
	movq	-128(%rbp), %rdx
	movb	-109(%rbp), %sil
Ltmp90:
	.loc	14 627 38 is_stmt 1
	movb	%sil, -18(%rbp)
Ltmp91:
	.loc	15 89 9
	movb	%sil, -17(%rbp)
Ltmp92:
	.loc	13 776 20
	movq	%rdx, -16(%rbp)
	.loc	13 776 23 is_stmt 0
	movb	%sil, -108(%rbp)
Ltmp93:
	.loc	3 1354 9 is_stmt 1
	movb	-108(%rbp), %sil
	movb	%sil, (%rdx)
Ltmp94:
	.loc	13 777 20
	movq	%rax, -8(%rbp)
	.loc	13 777 23 is_stmt 0
	movb	%cl, -107(%rbp)
Ltmp95:
	.loc	3 1354 9 is_stmt 1
	movb	-107(%rbp), %cl
	movb	%cl, (%rax)
Ltmp96:
	.loc	13 779 2
	addq	$128, %rsp
	popq	%rbp
	retq
Ltmp97:
Lfunc_end21:
	.cfi_endproc

	.globl	__ZN4core3mem11swap_simple17h9d91a0f3982d3230E
	.p2align	4, 0x90
__ZN4core3mem11swap_simple17h9d91a0f3982d3230E:
Lfunc_begin22:
	.loc	13 757 0
	.cfi_startproc
	pushq	%rbp
	.cfi_def_cfa_offset 16
	.cfi_offset %rbp, -16
	movq	%rsp, %rbp
	.cfi_def_cfa_register %rbp
	subq	$256, %rsp
	movq	%rdi, -256(%rbp)
	movq	%rsi, -248(%rbp)
	movq	%rdi, -80(%rbp)
	movq	%rsi, -72(%rbp)
Ltmp98:
	.loc	13 774 27 prologue_end
	movq	%rdi, -64(%rbp)
Ltmp99:
	.loc	3 1157 34
	leaq	-176(%rbp), %rax
	movq	%rax, -56(%rbp)
	.loc	3 1157 9 is_stmt 0
	movq	(%rdi), %rax
	movq	%rax, -176(%rbp)
	movq	8(%rdi), %rax
	movq	%rax, -168(%rbp)
	.loc	3 1158 9 is_stmt 1
	movq	-176(%rbp), %rax
	movq	%rax, -160(%rbp)
	movq	-168(%rbp), %rax
	movq	%rax, -152(%rbp)
Ltmp100:
	.loc	14 627 38
	movq	-160(%rbp), %rax
	movq	%rax, -144(%rbp)
	movq	-152(%rbp), %rax
	movq	%rax, -136(%rbp)
Ltmp101:
	.loc	15 89 9
	movq	-144(%rbp), %rax
	movq	%rax, -240(%rbp)
	movq	-136(%rbp), %rax
	movq	%rax, -232(%rbp)
Ltmp102:
	.loc	13 775 27
	movq	%rsi, -48(%rbp)
Ltmp103:
	.loc	3 1157 34
	leaq	-128(%rbp), %rax
	movq	%rax, -40(%rbp)
	.loc	3 1157 9 is_stmt 0
	movq	(%rsi), %rax
	movq	%rax, -128(%rbp)
	movq	8(%rsi), %rax
	movq	%rax, -120(%rbp)
	.loc	3 1158 9 is_stmt 1
	movq	-128(%rbp), %rax
	movq	%rax, -112(%rbp)
	movq	-120(%rbp), %rax
	movq	%rax, -104(%rbp)
	.loc	3 0 9 is_stmt 0
	movq	-248(%rbp), %rax
	movq	-256(%rbp), %rcx
Ltmp104:
	.loc	14 627 38 is_stmt 1
	movq	-112(%rbp), %rdx
	movq	%rdx, -96(%rbp)
	movq	-104(%rbp), %rdx
	movq	%rdx, -88(%rbp)
Ltmp105:
	.loc	15 89 9
	movq	-96(%rbp), %rdx
	movq	%rdx, -224(%rbp)
	movq	-88(%rbp), %rdx
	movq	%rdx, -216(%rbp)
Ltmp106:
	.loc	13 776 20
	movq	%rcx, -16(%rbp)
	.loc	13 776 23 is_stmt 0
	movq	-224(%rbp), %rdx
	movq	%rdx, -208(%rbp)
	movq	-216(%rbp), %rdx
	movq	%rdx, -200(%rbp)
Ltmp107:
	.loc	3 1354 9 is_stmt 1
	movq	-208(%rbp), %rdx
	movq	%rdx, (%rcx)
	movq	-200(%rbp), %rdx
	movq	%rdx, 8(%rcx)
Ltmp108:
	.loc	13 777 20
	movq	%rax, -8(%rbp)
	.loc	13 777 23 is_stmt 0
	movq	-240(%rbp), %rcx
	movq	%rcx, -192(%rbp)
	movq	-232(%rbp), %rcx
	movq	%rcx, -184(%rbp)
Ltmp109:
	.loc	3 1354 9 is_stmt 1
	movq	-192(%rbp), %rcx
	movq	%rcx, (%rax)
	movq	-184(%rbp), %rcx
	movq	%rcx, 8(%rax)
Ltmp110:
	.loc	13 779 2
	addq	$256, %rsp
	popq	%rbp
	retq
Ltmp111:
Lfunc_end22:
	.cfi_endproc

	.globl	__ZN4core3mem11swap_simple17hebc5d719a399d416E
	.p2align	4, 0x90
__ZN4core3mem11swap_simple17hebc5d719a399d416E:
Lfunc_begin23:
	.loc	13 757 0
	.cfi_startproc
	pushq	%rbp
	.cfi_def_cfa_offset 16
	.cfi_offset %rbp, -16
	movq	%rsp, %rbp
	.cfi_def_cfa_register %rbp
	subq	$256, %rsp
	movq	%rdi, -256(%rbp)
	movq	%rsi, -248(%rbp)
	movq	%rdi, -80(%rbp)
	movq	%rsi, -72(%rbp)
Ltmp112:
	.loc	13 774 27 prologue_end
	movq	%rdi, -64(%rbp)
Ltmp113:
	.loc	3 1157 34
	leaq	-176(%rbp), %rax
	movq	%rax, -56(%rbp)
	.loc	3 1157 9 is_stmt 0
	movq	(%rdi), %rax
	movq	%rax, -176(%rbp)
	movq	8(%rdi), %rax
	movq	%rax, -168(%rbp)
	.loc	3 1158 9 is_stmt 1
	movq	-176(%rbp), %rax
	movq	%rax, -160(%rbp)
	movq	-168(%rbp), %rax
	movq	%rax, -152(%rbp)
Ltmp114:
	.loc	14 627 38
	movq	-160(%rbp), %rax
	movq	%rax, -144(%rbp)
	movq	-152(%rbp), %rax
	movq	%rax, -136(%rbp)
Ltmp115:
	.loc	15 89 9
	movq	-144(%rbp), %rax
	movq	%rax, -240(%rbp)
	movq	-136(%rbp), %rax
	movq	%rax, -232(%rbp)
Ltmp116:
	.loc	13 775 27
	movq	%rsi, -48(%rbp)
Ltmp117:
	.loc	3 1157 34
	leaq	-128(%rbp), %rax
	movq	%rax, -40(%rbp)
	.loc	3 1157 9 is_stmt 0
	movq	(%rsi), %rax
	movq	%rax, -128(%rbp)
	movq	8(%rsi), %rax
	movq	%rax, -120(%rbp)
	.loc	3 1158 9 is_stmt 1
	movq	-128(%rbp), %rax
	movq	%rax, -112(%rbp)
	movq	-120(%rbp), %rax
	movq	%rax, -104(%rbp)
	.loc	3 0 9 is_stmt 0
	movq	-248(%rbp), %rax
	movq	-256(%rbp), %rcx
Ltmp118:
	.loc	14 627 38 is_stmt 1
	movq	-112(%rbp), %rdx
	movq	%rdx, -96(%rbp)
	movq	-104(%rbp), %rdx
	movq	%rdx, -88(%rbp)
Ltmp119:
	.loc	15 89 9
	movq	-96(%rbp), %rdx
	movq	%rdx, -224(%rbp)
	movq	-88(%rbp), %rdx
	movq	%rdx, -216(%rbp)
Ltmp120:
	.loc	13 776 20
	movq	%rcx, -16(%rbp)
	.loc	13 776 23 is_stmt 0
	movq	-224(%rbp), %rdx
	movq	%rdx, -208(%rbp)
	movq	-216(%rbp), %rdx
	movq	%rdx, -200(%rbp)
Ltmp121:
	.loc	3 1354 9 is_stmt 1
	movq	-208(%rbp), %rdx
	movq	%rdx, (%rcx)
	movq	-200(%rbp), %rdx
	movq	%rdx, 8(%rcx)
Ltmp122:
	.loc	13 777 20
	movq	%rax, -8(%rbp)
	.loc	13 777 23 is_stmt 0
	movq	-240(%rbp), %rcx
	movq	%rcx, -192(%rbp)
	movq	-232(%rbp), %rcx
	movq	%rcx, -184(%rbp)
Ltmp123:
	.loc	3 1354 9 is_stmt 1
	movq	-192(%rbp), %rcx
	movq	%rcx, (%rax)
	movq	-184(%rbp), %rcx
	movq	%rcx, 8(%rax)
Ltmp124:
	.loc	13 779 2
	addq	$256, %rsp
	popq	%rbp
	retq
Ltmp125:
Lfunc_end23:
	.cfi_endproc

	.globl	__ZN4core3mem4swap17hc1561b9392021d29E
	.p2align	4, 0x90
__ZN4core3mem4swap17hc1561b9392021d29E:
Lfunc_begin24:
	.loc	13 720 0
	.cfi_startproc
	pushq	%rbp
	.cfi_def_cfa_offset 16
	.cfi_offset %rbp, -16
	movq	%rsp, %rbp
	.cfi_def_cfa_register %rbp
	subq	$32, %rsp
	movq	%rdi, -32(%rbp)
	movq	%rsi, -24(%rbp)
	movq	%rdi, -16(%rbp)
	movq	%rsi, -8(%rbp)
Ltmp126:
	.loc	13 735 12 prologue_end
	xorl	%eax, %eax
	testb	$1, %al
	jne	LBB24_2
	.loc	13 0 12 is_stmt 0
	movq	-24(%rbp), %rsi
	movq	-32(%rbp), %rdi
	.loc	13 749 5 is_stmt 1
	callq	__ZN4core3mem11swap_simple17h9d91a0f3982d3230E
	.loc	13 750 2
	jmp	LBB24_3
LBB24_2:
	.loc	13 0 2 is_stmt 0
	movq	-24(%rbp), %rsi
	movq	-32(%rbp), %rdi
	.loc	13 738 29 is_stmt 1
	movl	$1, %edx
	callq	__ZN4core3ptr19swap_nonoverlapping17h30e17633cedd4d6dE
LBB24_3:
	.loc	13 750 2
	addq	$32, %rsp
	popq	%rbp
	retq
Ltmp127:
Lfunc_end24:
	.cfi_endproc

	.globl	__ZN4core3mem7replace17hc36b6b35a2df17a2E
	.p2align	4, 0x90
__ZN4core3mem7replace17hc36b6b35a2df17a2E:
Lfunc_begin25:
	.loc	13 905 0
	.cfi_startproc
	pushq	%rbp
	.cfi_def_cfa_offset 16
	.cfi_offset %rbp, -16
	movq	%rsp, %rbp
	.cfi_def_cfa_register %rbp
	subq	$120, %rsp
	movq	%rdi, -120(%rbp)
	movq	%rsi, -112(%rbp)
	movq	%rdi, -80(%rbp)
	movq	%rsi, -72(%rbp)
Ltmp128:
	.loc	13 910 32 prologue_end
	movq	%rdi, -64(%rbp)
Ltmp129:
	.loc	3 1157 34
	leaq	-88(%rbp), %rax
	movq	%rax, -56(%rbp)
	.loc	3 1157 9 is_stmt 0
	movq	(%rdi), %rax
	movq	%rax, -88(%rbp)
	.loc	3 1158 9 is_stmt 1
	movq	-88(%rbp), %rax
	movq	%rax, -104(%rbp)
	movq	%rax, -48(%rbp)
	.loc	3 0 9 is_stmt 0
	movq	-104(%rbp), %rax
	movq	-120(%rbp), %rcx
	movq	-112(%rbp), %rdx
Ltmp130:
	.loc	14 627 38 is_stmt 1
	movq	%rax, -24(%rbp)
Ltmp131:
	.loc	15 89 9
	movq	%rax, -16(%rbp)
Ltmp132:
	.loc	13 911 20
	movq	%rcx, -8(%rbp)
	.loc	13 911 26 is_stmt 0
	movq	%rdx, -96(%rbp)
Ltmp133:
	.loc	3 1354 9 is_stmt 1
	movq	-96(%rbp), %rdx
	movq	%rdx, (%rcx)
Ltmp134:
	.loc	13 914 2
	addq	$120, %rsp
	popq	%rbp
	retq
Ltmp135:
Lfunc_end25:
	.cfi_endproc

	.p2align	4, 0x90
__ZN4core3num23_$LT$impl$u20$usize$GT$11checked_add17hf5b42367cbf54898E:
Lfunc_begin26:
	.loc	10 442 0
	.cfi_startproc
	pushq	%rbp
	.cfi_def_cfa_offset 16
	.cfi_offset %rbp, -16
	movq	%rsp, %rbp
	.cfi_def_cfa_register %rbp
	subq	$120, %rsp
	movq	%rdi, -80(%rbp)
	movq	%rsi, -72(%rbp)
Ltmp136:
	.loc	10 443 26 prologue_end
	movq	%rdi, -64(%rbp)
	.loc	10 443 47 is_stmt 0
	movq	%rsi, -56(%rbp)
Ltmp137:
	.loc	10 1479 26 is_stmt 1
	addq	%rsi, %rdi
	setb	%al
	andb	$1, %al
	movq	%rdi, -48(%rbp)
	movb	%al, -40(%rbp)
	movq	-48(%rbp), %rcx
	movb	-40(%rbp), %al
	.loc	10 1479 18 is_stmt 0
	movq	%rcx, -32(%rbp)
	.loc	10 1479 21
	movb	%al, %dl
	andb	$1, %dl
	movb	%dl, -17(%rbp)
Ltmp138:
	.loc	10 1480 13 is_stmt 1
	movq	%rcx, -96(%rbp)
	andb	$1, %al
	movb	%al, -88(%rbp)
Ltmp139:
	.loc	10 443 18
	movq	-96(%rbp), %rax
	movq	%rax, -120(%rbp)
	movq	%rax, -16(%rbp)
	.loc	10 443 21 is_stmt 0
	movb	-88(%rbp), %al
	movb	%al, %cl
	andb	$1, %cl
	movb	%cl, -2(%rbp)
Ltmp140:
	.loc	10 444 16 is_stmt 1
	andb	$1, %al
	movb	%al, -1(%rbp)
	testb	$1, -1(%rbp)
	jne	LBB26_2
	.loc	10 0 16 is_stmt 0
	movq	-120(%rbp), %rax
	.loc	10 444 42
	movq	%rax, -104(%rbp)
	movq	$1, -112(%rbp)
	.loc	10 444 13
	jmp	LBB26_3
LBB26_2:
	.loc	10 444 30
	movq	$0, -112(%rbp)
Ltmp141:
LBB26_3:
	.loc	10 445 10 is_stmt 1
	movq	-112(%rbp), %rax
	movq	-104(%rbp), %rdx
	addq	$120, %rsp
	popq	%rbp
	retq
Ltmp142:
Lfunc_end26:
	.cfi_endproc

	.p2align	4, 0x90
__ZN4core3ops8function6FnOnce9call_once17h0ccdd3db859da777E:
Lfunc_begin27:
	.file	16 "/rustc/2c8cc343237b8f7d5a3c3703e3a87f2eb2c54a74/library/core/src/ops" "function.rs"
	.loc	16 250 0
	.cfi_startproc
	pushq	%rbp
	.cfi_def_cfa_offset 16
	.cfi_offset %rbp, -16
	movq	%rsp, %rbp
	.cfi_def_cfa_register %rbp
	subq	$32, %rsp
	movq	%rdi, -24(%rbp)
	movq	%rsi, -16(%rbp)
Ltmp143:
	.loc	16 250 5 prologue_end
	movq	-24(%rbp), %rdi
	movq	-16(%rbp), %rsi
	callq	__ZN4core3cmp5impls48_$LT$impl$u20$core..cmp..Ord$u20$for$u20$i32$GT$3cmp17h56113e4e321a18f4E
	addq	$32, %rsp
	popq	%rbp
	retq
Ltmp144:
Lfunc_end27:
	.cfi_endproc

	.p2align	4, 0x90
__ZN4core3ops8function6FnOnce9call_once17h7268ec27b603c102E:
Lfunc_begin28:
	.loc	16 250 0
	.cfi_startproc
	pushq	%rbp
	.cfi_def_cfa_offset 16
	.cfi_offset %rbp, -16
	movq	%rsp, %rbp
	.cfi_def_cfa_register %rbp
	subq	$32, %rsp
	movq	%rdi, -24(%rbp)
	movq	%rsi, -16(%rbp)
Ltmp145:
	.loc	16 250 5 prologue_end
	movq	-24(%rbp), %rdi
	movq	-16(%rbp), %rsi
	callq	__ZN4core3cmp5impls50_$LT$impl$u20$core..cmp..Ord$u20$for$u20$usize$GT$3cmp17hab58d4cfda28f360E
	addq	$32, %rsp
	popq	%rbp
	retq
Ltmp146:
Lfunc_end28:
	.cfi_endproc

	.globl	__ZN4core3ptr19swap_nonoverlapping17h30e17633cedd4d6dE
	.p2align	4, 0x90
__ZN4core3ptr19swap_nonoverlapping17h30e17633cedd4d6dE:
Lfunc_begin29:
	.loc	3 902 0
	.cfi_startproc
	pushq	%rbp
	.cfi_def_cfa_offset 16
	.cfi_offset %rbp, -16
	movq	%rsp, %rbp
	.cfi_def_cfa_register %rbp
	subq	$160, %rsp
	movq	%rdi, -160(%rbp)
	movq	%rsi, -152(%rbp)
	movq	%rdx, -144(%rbp)
	movq	%rdi, -128(%rbp)
	movq	%rsi, -120(%rbp)
	movq	%rdx, -112(%rbp)
Ltmp147:
	.loc	3 938 8 prologue_end
	movb	$1, %al
	testb	$1, %al
	jne	LBB29_2
	movb	$0, -132(%rbp)
	jmp	LBB29_6
LBB29_2:
Ltmp148:
	.loc	13 309 5
	movq	$16, -104(%rbp)
Ltmp149:
	.loc	10 2144 13
	movq	$16, -96(%rbp)
	movl	$1, %eax
Ltmp150:
	.loc	10 89 13
	movq	%rax, -88(%rbp)
	movq	-88(%rbp), %rax
Ltmp151:
	.loc	10 2144 13
	cmpl	$1, %eax
	sete	%al
Ltmp152:
	.loc	3 939 13
	xorb	$-1, %al
	.loc	3 939 12 is_stmt 0
	testb	$1, %al
	jne	LBB29_4
	movb	$0, -131(%rbp)
	jmp	LBB29_5
LBB29_4:
	movb	$1, -131(%rbp)
LBB29_5:
	.loc	3 938 8 is_stmt 1
	movb	-131(%rbp), %al
	andb	$1, %al
	movb	%al, -132(%rbp)
LBB29_6:
	testb	$1, -132(%rbp)
	jne	LBB29_8
LBB29_7:
	.loc	3 0 8 is_stmt 0
	movq	-144(%rbp), %rdx
	movq	-152(%rbp), %rsi
	movq	-160(%rbp), %rdi
	.loc	3 947 14 is_stmt 1
	callq	__ZN4core3ptr34swap_nonoverlapping_simple_untyped17h3ac6963750858d5bE
	.loc	3 948 2
	jmp	LBB29_20
LBB29_8:
	.loc	3 942 9
	xorl	%eax, %eax
	testb	$1, %al
	jne	LBB29_10
	jmp	LBB29_9
LBB29_9:
	movb	$0, -130(%rbp)
	jmp	LBB29_11
LBB29_10:
	movb	$1, -130(%rbp)
LBB29_11:
	testb	$1, -130(%rbp)
	jne	LBB29_13
	.loc	3 943 9
	movb	$1, %al
	testb	$1, %al
	jne	LBB29_16
	jmp	LBB29_15
LBB29_13:
	.loc	3 0 9 is_stmt 0
	movq	-152(%rbp), %rsi
	movq	-160(%rbp), %rdi
	movq	-144(%rbp), %rdx
	.loc	3 942 9 is_stmt 1
	movq	%rdi, -80(%rbp)
Ltmp153:
	.file	17 "/rustc/2c8cc343237b8f7d5a3c3703e3a87f2eb2c54a74/library/core/src/ptr" "mut_ptr.rs"
	.loc	17 60 9
	movq	%rdi, -72(%rbp)
Ltmp154:
	.loc	3 942 9
	movq	%rsi, -64(%rbp)
Ltmp155:
	.loc	17 60 9
	movq	%rsi, -56(%rbp)
Ltmp156:
	.loc	3 942 9
	shlq	$1, %rdx
	movq	%rdx, -48(%rbp)
Ltmp157:
	.loc	3 942 9 is_stmt 0
	callq	__ZN4core3ptr34swap_nonoverlapping_simple_untyped17h9a597e5667387463E
Ltmp158:
LBB29_14:
	.loc	3 948 2 is_stmt 1
	jmp	LBB29_20
LBB29_15:
	.loc	3 943 9
	movb	$0, -129(%rbp)
	jmp	LBB29_17
LBB29_16:
	movb	$1, -129(%rbp)
LBB29_17:
	testb	$1, -129(%rbp)
	jne	LBB29_19
	.loc	3 938 5
	jmp	LBB29_7
LBB29_19:
	.loc	3 0 5 is_stmt 0
	movq	-152(%rbp), %rsi
	movq	-160(%rbp), %rdi
	movq	-144(%rbp), %rdx
	.loc	3 943 9 is_stmt 1
	movq	%rdi, -40(%rbp)
Ltmp159:
	.loc	17 60 9
	movq	%rdi, -32(%rbp)
Ltmp160:
	.loc	3 943 9
	movq	%rsi, -24(%rbp)
Ltmp161:
	.loc	17 60 9
	movq	%rsi, -16(%rbp)
Ltmp162:
	.loc	3 943 9
	shlq	$4, %rdx
	movq	%rdx, -8(%rbp)
Ltmp163:
	.loc	3 943 9 is_stmt 0
	callq	__ZN4core3ptr34swap_nonoverlapping_simple_untyped17hb8c44db1d38c474dE
Ltmp164:
	.file	18 "/Users/natalie/.cargo/registry/src/github.com-1ecc6299db9ec823/color_quant-1.1.0" "src/lib.rs"
	.loc	18 1 1 is_stmt 1
	jmp	LBB29_14
LBB29_20:
	.loc	3 948 2
	addq	$160, %rsp
	popq	%rbp
	retq
Ltmp165:
Lfunc_end29:
	.cfi_endproc

	.globl	__ZN4core3ptr34swap_nonoverlapping_simple_untyped17h3ac6963750858d5bE
	.p2align	4, 0x90
__ZN4core3ptr34swap_nonoverlapping_simple_untyped17h3ac6963750858d5bE:
Lfunc_begin30:
	.loc	3 956 0
	.cfi_startproc
	pushq	%rbp
	.cfi_def_cfa_offset 16
	.cfi_offset %rbp, -16
	movq	%rsp, %rbp
	.cfi_def_cfa_register %rbp
	subq	$192, %rsp
	movq	%rdi, -184(%rbp)
	movq	%rsi, -176(%rbp)
	movq	%rdx, -168(%rbp)
	movq	%rdi, -152(%rbp)
	movq	%rsi, -144(%rbp)
	movq	%rdx, -136(%rbp)
Ltmp166:
	.loc	3 957 13 prologue_end
	movq	%rdi, -128(%rbp)
Ltmp167:
	.loc	17 60 9
	movq	%rdi, -120(%rbp)
Ltmp168:
	.loc	3 958 13
	movq	%rsi, -112(%rbp)
Ltmp169:
	.loc	17 60 9
	movq	%rsi, -104(%rbp)
Ltmp170:
	.loc	3 959 17
	movq	$0, -160(%rbp)
LBB30_1:
	.loc	3 0 17 is_stmt 0
	movq	-168(%rbp), %rax
Ltmp171:
	.loc	3 960 11 is_stmt 1
	cmpq	%rax, -160(%rbp)
	jb	LBB30_3
Ltmp172:
	.loc	3 970 2
	addq	$192, %rsp
	popq	%rbp
	retq
LBB30_3:
	.loc	3 0 2 is_stmt 0
	movq	-176(%rbp), %rax
	movq	-184(%rbp), %rcx
Ltmp173:
	.loc	3 962 32 is_stmt 1
	movq	%rcx, -96(%rbp)
	.loc	3 962 38 is_stmt 0
	movq	-160(%rbp), %rdx
	movq	%rdx, -88(%rbp)
Ltmp174:
	.loc	17 1034 18 is_stmt 1
	movq	%rcx, -80(%rbp)
	.loc	17 1034 30 is_stmt 0
	movq	%rdx, -72(%rbp)
Ltmp175:
	.loc	17 487 18 is_stmt 1
	shlq	$4, %rdx
	addq	%rdx, %rcx
	movq	%rcx, -64(%rbp)
	movq	-64(%rbp), %rdi
Ltmp176:
	.loc	3 962 26
	movq	%rdi, -56(%rbp)
Ltmp177:
	.loc	3 965 32
	movq	%rax, -48(%rbp)
	.loc	3 965 38 is_stmt 0
	movq	-160(%rbp), %rcx
	movq	%rcx, -40(%rbp)
Ltmp178:
	.loc	17 1034 18 is_stmt 1
	movq	%rax, -32(%rbp)
	.loc	17 1034 30 is_stmt 0
	movq	%rcx, -24(%rbp)
Ltmp179:
	.loc	17 487 18 is_stmt 1
	shlq	$4, %rcx
	addq	%rcx, %rax
	movq	%rax, -16(%rbp)
	movq	-16(%rbp), %rsi
Ltmp180:
	.loc	3 965 26
	movq	%rsi, -8(%rbp)
Ltmp181:
	.loc	3 966 9
	callq	__ZN4core3mem11swap_simple17hebc5d719a399d416E
	.loc	3 968 9
	movq	-160(%rbp), %rax
	addq	$1, %rax
	movq	%rax, -160(%rbp)
Ltmp182:
	.loc	3 960 5
	jmp	LBB30_1
Ltmp183:
Lfunc_end30:
	.cfi_endproc

	.globl	__ZN4core3ptr34swap_nonoverlapping_simple_untyped17h9a597e5667387463E
	.p2align	4, 0x90
__ZN4core3ptr34swap_nonoverlapping_simple_untyped17h9a597e5667387463E:
Lfunc_begin31:
	.loc	3 956 0
	.cfi_startproc
	pushq	%rbp
	.cfi_def_cfa_offset 16
	.cfi_offset %rbp, -16
	movq	%rsp, %rbp
	.cfi_def_cfa_register %rbp
	subq	$192, %rsp
	movq	%rdi, -184(%rbp)
	movq	%rsi, -176(%rbp)
	movq	%rdx, -168(%rbp)
	movq	%rdi, -152(%rbp)
	movq	%rsi, -144(%rbp)
	movq	%rdx, -136(%rbp)
Ltmp184:
	.loc	3 957 13 prologue_end
	movq	%rdi, -128(%rbp)
Ltmp185:
	.loc	17 60 9
	movq	%rdi, -120(%rbp)
Ltmp186:
	.loc	3 958 13
	movq	%rsi, -112(%rbp)
Ltmp187:
	.loc	17 60 9
	movq	%rsi, -104(%rbp)
Ltmp188:
	.loc	3 959 17
	movq	$0, -160(%rbp)
LBB31_1:
	.loc	3 0 17 is_stmt 0
	movq	-168(%rbp), %rax
Ltmp189:
	.loc	3 960 11 is_stmt 1
	cmpq	%rax, -160(%rbp)
	jb	LBB31_3
Ltmp190:
	.loc	3 970 2
	addq	$192, %rsp
	popq	%rbp
	retq
LBB31_3:
	.loc	3 0 2 is_stmt 0
	movq	-176(%rbp), %rax
	movq	-184(%rbp), %rcx
Ltmp191:
	.loc	3 962 32 is_stmt 1
	movq	%rcx, -96(%rbp)
	.loc	3 962 38 is_stmt 0
	movq	-160(%rbp), %rdx
	movq	%rdx, -88(%rbp)
Ltmp192:
	.loc	17 1034 18 is_stmt 1
	movq	%rcx, -80(%rbp)
	.loc	17 1034 30 is_stmt 0
	movq	%rdx, -72(%rbp)
Ltmp193:
	.loc	17 487 18 is_stmt 1
	shlq	$3, %rdx
	addq	%rdx, %rcx
	movq	%rcx, -64(%rbp)
	movq	-64(%rbp), %rdi
Ltmp194:
	.loc	3 962 26
	movq	%rdi, -56(%rbp)
Ltmp195:
	.loc	3 965 32
	movq	%rax, -48(%rbp)
	.loc	3 965 38 is_stmt 0
	movq	-160(%rbp), %rcx
	movq	%rcx, -40(%rbp)
Ltmp196:
	.loc	17 1034 18 is_stmt 1
	movq	%rax, -32(%rbp)
	.loc	17 1034 30 is_stmt 0
	movq	%rcx, -24(%rbp)
Ltmp197:
	.loc	17 487 18 is_stmt 1
	shlq	$3, %rcx
	addq	%rcx, %rax
	movq	%rax, -16(%rbp)
	movq	-16(%rbp), %rsi
Ltmp198:
	.loc	3 965 26
	movq	%rsi, -8(%rbp)
Ltmp199:
	.loc	3 966 9
	callq	__ZN4core3mem11swap_simple17h1f19939cdef0124aE
	.loc	3 968 9
	movq	-160(%rbp), %rax
	addq	$1, %rax
	movq	%rax, -160(%rbp)
Ltmp200:
	.loc	3 960 5
	jmp	LBB31_1
Ltmp201:
Lfunc_end31:
	.cfi_endproc

	.globl	__ZN4core3ptr34swap_nonoverlapping_simple_untyped17hb8c44db1d38c474dE
	.p2align	4, 0x90
__ZN4core3ptr34swap_nonoverlapping_simple_untyped17hb8c44db1d38c474dE:
Lfunc_begin32:
	.loc	3 956 0
	.cfi_startproc
	pushq	%rbp
	.cfi_def_cfa_offset 16
	.cfi_offset %rbp, -16
	movq	%rsp, %rbp
	.cfi_def_cfa_register %rbp
	subq	$192, %rsp
	movq	%rdi, -184(%rbp)
	movq	%rsi, -176(%rbp)
	movq	%rdx, -168(%rbp)
	movq	%rdi, -152(%rbp)
	movq	%rsi, -144(%rbp)
	movq	%rdx, -136(%rbp)
Ltmp202:
	.loc	3 957 13 prologue_end
	movq	%rdi, -128(%rbp)
Ltmp203:
	.loc	17 60 9
	movq	%rdi, -120(%rbp)
Ltmp204:
	.loc	3 958 13
	movq	%rsi, -112(%rbp)
Ltmp205:
	.loc	17 60 9
	movq	%rsi, -104(%rbp)
Ltmp206:
	.loc	3 959 17
	movq	$0, -160(%rbp)
LBB32_1:
	.loc	3 0 17 is_stmt 0
	movq	-168(%rbp), %rax
Ltmp207:
	.loc	3 960 11 is_stmt 1
	cmpq	%rax, -160(%rbp)
	jb	LBB32_3
Ltmp208:
	.loc	3 970 2
	addq	$192, %rsp
	popq	%rbp
	retq
LBB32_3:
	.loc	3 0 2 is_stmt 0
	movq	-176(%rbp), %rax
	movq	-184(%rbp), %rcx
Ltmp209:
	.loc	3 962 32 is_stmt 1
	movq	%rcx, -96(%rbp)
	.loc	3 962 38 is_stmt 0
	movq	-160(%rbp), %rdx
	movq	%rdx, -88(%rbp)
Ltmp210:
	.loc	17 1034 18 is_stmt 1
	movq	%rcx, -80(%rbp)
	.loc	17 1034 30 is_stmt 0
	movq	%rdx, -72(%rbp)
Ltmp211:
	.loc	17 487 18 is_stmt 1
	addq	%rdx, %rcx
	movq	%rcx, -64(%rbp)
	movq	-64(%rbp), %rdi
Ltmp212:
	.loc	3 962 26
	movq	%rdi, -56(%rbp)
Ltmp213:
	.loc	3 965 32
	movq	%rax, -48(%rbp)
	.loc	3 965 38 is_stmt 0
	movq	-160(%rbp), %rcx
	movq	%rcx, -40(%rbp)
Ltmp214:
	.loc	17 1034 18 is_stmt 1
	movq	%rax, -32(%rbp)
	.loc	17 1034 30 is_stmt 0
	movq	%rcx, -24(%rbp)
Ltmp215:
	.loc	17 487 18 is_stmt 1
	addq	%rcx, %rax
	movq	%rax, -16(%rbp)
	movq	-16(%rbp), %rsi
Ltmp216:
	.loc	3 965 26
	movq	%rsi, -8(%rbp)
Ltmp217:
	.loc	3 966 9
	callq	__ZN4core3mem11swap_simple17h987a493803316027E
	.loc	3 968 9
	movq	-160(%rbp), %rax
	addq	$1, %rax
	movq	%rax, -160(%rbp)
Ltmp218:
	.loc	3 960 5
	jmp	LBB32_1
Ltmp219:
Lfunc_end32:
	.cfi_endproc

	.globl	__ZN4core3ptr42drop_in_place$LT$color_quant..NeuQuant$GT$17hc74e65d1e659df05E
	.p2align	4, 0x90
__ZN4core3ptr42drop_in_place$LT$color_quant..NeuQuant$GT$17hc74e65d1e659df05E:
Lfunc_begin33:
	.loc	3 490 0
	.cfi_startproc
	.cfi_personality 155, _rust_eh_personality
	.cfi_lsda 16, Lexception3
	pushq	%rbp
	.cfi_def_cfa_offset 16
	.cfi_offset %rbp, -16
	movq	%rsp, %rbp
	.cfi_def_cfa_register %rbp
	subq	$32, %rsp
	movq	%rdi, -32(%rbp)
	movq	%rdi, -24(%rbp)
Ltmp241:
	.loc	3 490 1 prologue_end
	addq	$8, %rdi
Ltmp220:
	callq	__ZN4core3ptr72drop_in_place$LT$alloc..vec..Vec$LT$color_quant..Quad$LT$f64$GT$$GT$$GT$17hf538eda0e71ba0d2E
Ltmp221:
	jmp	LBB33_3
LBB33_1:
	.loc	3 0 1 is_stmt 0
	movq	-32(%rbp), %rdi
	.loc	3 490 1
	addq	$32, %rdi
Ltmp223:
	callq	__ZN4core3ptr72drop_in_place$LT$alloc..vec..Vec$LT$color_quant..Quad$LT$i32$GT$$GT$$GT$17hf493ef31347118c6E
Ltmp224:
	jmp	LBB33_5
LBB33_2:
Ltmp222:
	.loc	3 0 1
	movq	%rax, %rcx
	movl	%edx, %eax
	movq	%rcx, -16(%rbp)
	movl	%eax, -8(%rbp)
	jmp	LBB33_1
LBB33_3:
	movq	-32(%rbp), %rdi
	.loc	3 490 1
	addq	$32, %rdi
Ltmp225:
	callq	__ZN4core3ptr72drop_in_place$LT$alloc..vec..Vec$LT$color_quant..Quad$LT$i32$GT$$GT$$GT$17hf493ef31347118c6E
Ltmp226:
	jmp	LBB33_7
LBB33_4:
Ltmp240:
	callq	__ZN4core9panicking19panic_cannot_unwind17h1fbca7e1d7f56ae1E
LBB33_5:
	.loc	3 0 1
	movq	-32(%rbp), %rdi
	.loc	3 490 1
	addq	$56, %rdi
Ltmp228:
	callq	__ZN4core3ptr49drop_in_place$LT$alloc..vec..Vec$LT$usize$GT$$GT$17h8dff776cf3d2874aE
Ltmp229:
	jmp	LBB33_8
LBB33_6:
Ltmp227:
	.loc	3 0 1
	movq	%rax, %rcx
	movl	%edx, %eax
	movq	%rcx, -16(%rbp)
	movl	%eax, -8(%rbp)
	jmp	LBB33_5
LBB33_7:
	movq	-32(%rbp), %rdi
	.loc	3 490 1
	addq	$56, %rdi
Ltmp230:
	callq	__ZN4core3ptr49drop_in_place$LT$alloc..vec..Vec$LT$usize$GT$$GT$17h8dff776cf3d2874aE
Ltmp231:
	jmp	LBB33_10
LBB33_8:
	.loc	3 0 1
	movq	-32(%rbp), %rdi
	.loc	3 490 1
	addq	$80, %rdi
Ltmp233:
	callq	__ZN4core3ptr47drop_in_place$LT$alloc..vec..Vec$LT$f64$GT$$GT$17he50ad29313aac559E
Ltmp234:
	jmp	LBB33_11
LBB33_9:
Ltmp232:
	.loc	3 0 1
	movq	%rax, %rcx
	movl	%edx, %eax
	movq	%rcx, -16(%rbp)
	movl	%eax, -8(%rbp)
	jmp	LBB33_8
LBB33_10:
	movq	-32(%rbp), %rdi
	.loc	3 490 1
	addq	$80, %rdi
Ltmp235:
	callq	__ZN4core3ptr47drop_in_place$LT$alloc..vec..Vec$LT$f64$GT$$GT$17he50ad29313aac559E
Ltmp236:
	jmp	LBB33_13
LBB33_11:
	.loc	3 0 1
	movq	-32(%rbp), %rdi
	.loc	3 490 1
	addq	$104, %rdi
Ltmp238:
	callq	__ZN4core3ptr47drop_in_place$LT$alloc..vec..Vec$LT$f64$GT$$GT$17he50ad29313aac559E
Ltmp239:
	jmp	LBB33_14
LBB33_12:
Ltmp237:
	.loc	3 0 1
	movq	%rax, %rcx
	movl	%edx, %eax
	movq	%rcx, -16(%rbp)
	movl	%eax, -8(%rbp)
	jmp	LBB33_11
LBB33_13:
	movq	-32(%rbp), %rdi
	.loc	3 490 1
	addq	$104, %rdi
	callq	__ZN4core3ptr47drop_in_place$LT$alloc..vec..Vec$LT$f64$GT$$GT$17he50ad29313aac559E
	addq	$32, %rsp
	popq	%rbp
	retq
LBB33_14:
	movq	-16(%rbp), %rdi
	callq	__Unwind_Resume
Ltmp242:
Lfunc_end33:
	.cfi_endproc
	.section	__TEXT,__gcc_except_tab
	.p2align	2
GCC_except_table33:
Lexception3:
	.byte	255
	.byte	255
	.byte	1
	.uleb128 Lcst_end3-Lcst_begin3
Lcst_begin3:
	.uleb128 Ltmp220-Lfunc_begin33
	.uleb128 Ltmp221-Ltmp220
	.uleb128 Ltmp222-Lfunc_begin33
	.byte	0
	.uleb128 Ltmp223-Lfunc_begin33
	.uleb128 Ltmp224-Ltmp223
	.uleb128 Ltmp240-Lfunc_begin33
	.byte	0
	.uleb128 Ltmp225-Lfunc_begin33
	.uleb128 Ltmp226-Ltmp225
	.uleb128 Ltmp227-Lfunc_begin33
	.byte	0
	.uleb128 Ltmp228-Lfunc_begin33
	.uleb128 Ltmp229-Ltmp228
	.uleb128 Ltmp240-Lfunc_begin33
	.byte	0
	.uleb128 Ltmp230-Lfunc_begin33
	.uleb128 Ltmp231-Ltmp230
	.uleb128 Ltmp232-Lfunc_begin33
	.byte	0
	.uleb128 Ltmp233-Lfunc_begin33
	.uleb128 Ltmp234-Ltmp233
	.uleb128 Ltmp240-Lfunc_begin33
	.byte	0
	.uleb128 Ltmp235-Lfunc_begin33
	.uleb128 Ltmp236-Ltmp235
	.uleb128 Ltmp237-Lfunc_begin33
	.byte	0
	.uleb128 Ltmp238-Lfunc_begin33
	.uleb128 Ltmp239-Ltmp238
	.uleb128 Ltmp240-Lfunc_begin33
	.byte	0
	.uleb128 Ltmp239-Lfunc_begin33
	.uleb128 Lfunc_end33-Ltmp239
	.byte	0
	.byte	0
Lcst_end3:
	.p2align	2

	.section	__TEXT,__text,regular,pure_instructions
	.globl	__ZN4core3ptr46drop_in_place$LT$alloc..vec..Vec$LT$u8$GT$$GT$17h18fa5bafacf3a7d9E
	.p2align	4, 0x90
__ZN4core3ptr46drop_in_place$LT$alloc..vec..Vec$LT$u8$GT$$GT$17h18fa5bafacf3a7d9E:
Lfunc_begin34:
	.loc	3 490 0 is_stmt 1
	.cfi_startproc
	.cfi_personality 155, _rust_eh_personality
	.cfi_lsda 16, Lexception4
	pushq	%rbp
	.cfi_def_cfa_offset 16
	.cfi_offset %rbp, -16
	movq	%rsp, %rbp
	.cfi_def_cfa_register %rbp
	subq	$32, %rsp
	movq	%rdi, -32(%rbp)
	movq	%rdi, -24(%rbp)
Ltmp243:
Ltmp249:
	.loc	3 490 1 prologue_end
	callq	__ZN70_$LT$alloc..vec..Vec$LT$T$C$A$GT$$u20$as$u20$core..ops..drop..Drop$GT$4drop17h244af3bc58d56a7aE
Ltmp244:
	jmp	LBB34_3
LBB34_1:
Ltmp246:
	.loc	3 0 1 is_stmt 0
	movq	-32(%rbp), %rdi
	.loc	3 490 1
	callq	__ZN4core3ptr53drop_in_place$LT$alloc..raw_vec..RawVec$LT$u8$GT$$GT$17h77a143b8f19b2601E
Ltmp247:
	jmp	LBB34_5
LBB34_2:
Ltmp245:
	.loc	3 0 1
	movq	%rax, %rcx
	movl	%edx, %eax
	movq	%rcx, -16(%rbp)
	movl	%eax, -8(%rbp)
	jmp	LBB34_1
LBB34_3:
	movq	-32(%rbp), %rdi
	.loc	3 490 1
	callq	__ZN4core3ptr53drop_in_place$LT$alloc..raw_vec..RawVec$LT$u8$GT$$GT$17h77a143b8f19b2601E
	addq	$32, %rsp
	popq	%rbp
	retq
LBB34_4:
Ltmp248:
	callq	__ZN4core9panicking19panic_cannot_unwind17h1fbca7e1d7f56ae1E
LBB34_5:
	movq	-16(%rbp), %rdi
	callq	__Unwind_Resume
Ltmp250:
Lfunc_end34:
	.cfi_endproc
	.section	__TEXT,__gcc_except_tab
	.p2align	2
GCC_except_table34:
Lexception4:
	.byte	255
	.byte	255
	.byte	1
	.uleb128 Lcst_end4-Lcst_begin4
Lcst_begin4:
	.uleb128 Ltmp243-Lfunc_begin34
	.uleb128 Ltmp244-Ltmp243
	.uleb128 Ltmp245-Lfunc_begin34
	.byte	0
	.uleb128 Ltmp246-Lfunc_begin34
	.uleb128 Ltmp247-Ltmp246
	.uleb128 Ltmp248-Lfunc_begin34
	.byte	0
	.uleb128 Ltmp247-Lfunc_begin34
	.uleb128 Lfunc_end34-Ltmp247
	.byte	0
	.byte	0
Lcst_end4:
	.p2align	2

	.section	__TEXT,__text,regular,pure_instructions
	.globl	__ZN4core3ptr47drop_in_place$LT$alloc..vec..Vec$LT$f64$GT$$GT$17he50ad29313aac559E
	.p2align	4, 0x90
__ZN4core3ptr47drop_in_place$LT$alloc..vec..Vec$LT$f64$GT$$GT$17he50ad29313aac559E:
Lfunc_begin35:
	.loc	3 490 0 is_stmt 1
	.cfi_startproc
	.cfi_personality 155, _rust_eh_personality
	.cfi_lsda 16, Lexception5
	pushq	%rbp
	.cfi_def_cfa_offset 16
	.cfi_offset %rbp, -16
	movq	%rsp, %rbp
	.cfi_def_cfa_register %rbp
	subq	$32, %rsp
	movq	%rdi, -32(%rbp)
	movq	%rdi, -24(%rbp)
Ltmp251:
Ltmp257:
	.loc	3 490 1 prologue_end
	callq	__ZN70_$LT$alloc..vec..Vec$LT$T$C$A$GT$$u20$as$u20$core..ops..drop..Drop$GT$4drop17h6eb109f8ecc709b3E
Ltmp252:
	jmp	LBB35_3
LBB35_1:
Ltmp254:
	.loc	3 0 1 is_stmt 0
	movq	-32(%rbp), %rdi
	.loc	3 490 1
	callq	__ZN4core3ptr54drop_in_place$LT$alloc..raw_vec..RawVec$LT$f64$GT$$GT$17h048a887804ebcd51E
Ltmp255:
	jmp	LBB35_5
LBB35_2:
Ltmp253:
	.loc	3 0 1
	movq	%rax, %rcx
	movl	%edx, %eax
	movq	%rcx, -16(%rbp)
	movl	%eax, -8(%rbp)
	jmp	LBB35_1
LBB35_3:
	movq	-32(%rbp), %rdi
	.loc	3 490 1
	callq	__ZN4core3ptr54drop_in_place$LT$alloc..raw_vec..RawVec$LT$f64$GT$$GT$17h048a887804ebcd51E
	addq	$32, %rsp
	popq	%rbp
	retq
LBB35_4:
Ltmp256:
	callq	__ZN4core9panicking19panic_cannot_unwind17h1fbca7e1d7f56ae1E
LBB35_5:
	movq	-16(%rbp), %rdi
	callq	__Unwind_Resume
Ltmp258:
Lfunc_end35:
	.cfi_endproc
	.section	__TEXT,__gcc_except_tab
	.p2align	2
GCC_except_table35:
Lexception5:
	.byte	255
	.byte	255
	.byte	1
	.uleb128 Lcst_end5-Lcst_begin5
Lcst_begin5:
	.uleb128 Ltmp251-Lfunc_begin35
	.uleb128 Ltmp252-Ltmp251
	.uleb128 Ltmp253-Lfunc_begin35
	.byte	0
	.uleb128 Ltmp254-Lfunc_begin35
	.uleb128 Ltmp255-Ltmp254
	.uleb128 Ltmp256-Lfunc_begin35
	.byte	0
	.uleb128 Ltmp255-Lfunc_begin35
	.uleb128 Lfunc_end35-Ltmp255
	.byte	0
	.byte	0
Lcst_end5:
	.p2align	2

	.section	__TEXT,__text,regular,pure_instructions
	.globl	__ZN4core3ptr49drop_in_place$LT$alloc..vec..Vec$LT$usize$GT$$GT$17h8dff776cf3d2874aE
	.p2align	4, 0x90
__ZN4core3ptr49drop_in_place$LT$alloc..vec..Vec$LT$usize$GT$$GT$17h8dff776cf3d2874aE:
Lfunc_begin36:
	.loc	3 490 0 is_stmt 1
	.cfi_startproc
	.cfi_personality 155, _rust_eh_personality
	.cfi_lsda 16, Lexception6
	pushq	%rbp
	.cfi_def_cfa_offset 16
	.cfi_offset %rbp, -16
	movq	%rsp, %rbp
	.cfi_def_cfa_register %rbp
	subq	$32, %rsp
	movq	%rdi, -32(%rbp)
	movq	%rdi, -24(%rbp)
Ltmp259:
Ltmp265:
	.loc	3 490 1 prologue_end
	callq	__ZN70_$LT$alloc..vec..Vec$LT$T$C$A$GT$$u20$as$u20$core..ops..drop..Drop$GT$4drop17h2c64d079970be737E
Ltmp260:
	jmp	LBB36_3
LBB36_1:
Ltmp262:
	.loc	3 0 1 is_stmt 0
	movq	-32(%rbp), %rdi
	.loc	3 490 1
	callq	__ZN4core3ptr56drop_in_place$LT$alloc..raw_vec..RawVec$LT$usize$GT$$GT$17h3c977f6747c0bb13E
Ltmp263:
	jmp	LBB36_5
LBB36_2:
Ltmp261:
	.loc	3 0 1
	movq	%rax, %rcx
	movl	%edx, %eax
	movq	%rcx, -16(%rbp)
	movl	%eax, -8(%rbp)
	jmp	LBB36_1
LBB36_3:
	movq	-32(%rbp), %rdi
	.loc	3 490 1
	callq	__ZN4core3ptr56drop_in_place$LT$alloc..raw_vec..RawVec$LT$usize$GT$$GT$17h3c977f6747c0bb13E
	addq	$32, %rsp
	popq	%rbp
	retq
LBB36_4:
Ltmp264:
	callq	__ZN4core9panicking19panic_cannot_unwind17h1fbca7e1d7f56ae1E
LBB36_5:
	movq	-16(%rbp), %rdi
	callq	__Unwind_Resume
Ltmp266:
Lfunc_end36:
	.cfi_endproc
	.section	__TEXT,__gcc_except_tab
	.p2align	2
GCC_except_table36:
Lexception6:
	.byte	255
	.byte	255
	.byte	1
	.uleb128 Lcst_end6-Lcst_begin6
Lcst_begin6:
	.uleb128 Ltmp259-Lfunc_begin36
	.uleb128 Ltmp260-Ltmp259
	.uleb128 Ltmp261-Lfunc_begin36
	.byte	0
	.uleb128 Ltmp262-Lfunc_begin36
	.uleb128 Ltmp263-Ltmp262
	.uleb128 Ltmp264-Lfunc_begin36
	.byte	0
	.uleb128 Ltmp263-Lfunc_begin36
	.uleb128 Lfunc_end36-Ltmp263
	.byte	0
	.byte	0
Lcst_end6:
	.p2align	2

	.section	__TEXT,__text,regular,pure_instructions
	.globl	__ZN4core3ptr53drop_in_place$LT$alloc..raw_vec..RawVec$LT$u8$GT$$GT$17h77a143b8f19b2601E
	.p2align	4, 0x90
__ZN4core3ptr53drop_in_place$LT$alloc..raw_vec..RawVec$LT$u8$GT$$GT$17h77a143b8f19b2601E:
Lfunc_begin37:
	.loc	3 490 0 is_stmt 1
	.cfi_startproc
	pushq	%rbp
	.cfi_def_cfa_offset 16
	.cfi_offset %rbp, -16
	movq	%rsp, %rbp
	.cfi_def_cfa_register %rbp
	subq	$16, %rsp
	movq	%rdi, -8(%rbp)
Ltmp267:
	.loc	3 490 1 prologue_end
	callq	__ZN77_$LT$alloc..raw_vec..RawVec$LT$T$C$A$GT$$u20$as$u20$core..ops..drop..Drop$GT$4drop17hf15e94452e6e9562E
	addq	$16, %rsp
	popq	%rbp
	retq
Ltmp268:
Lfunc_end37:
	.cfi_endproc

	.globl	__ZN4core3ptr54drop_in_place$LT$alloc..raw_vec..RawVec$LT$f64$GT$$GT$17h048a887804ebcd51E
	.p2align	4, 0x90
__ZN4core3ptr54drop_in_place$LT$alloc..raw_vec..RawVec$LT$f64$GT$$GT$17h048a887804ebcd51E:
Lfunc_begin38:
	.loc	3 490 0
	.cfi_startproc
	pushq	%rbp
	.cfi_def_cfa_offset 16
	.cfi_offset %rbp, -16
	movq	%rsp, %rbp
	.cfi_def_cfa_register %rbp
	subq	$16, %rsp
	movq	%rdi, -8(%rbp)
Ltmp269:
	.loc	3 490 1 prologue_end
	callq	__ZN77_$LT$alloc..raw_vec..RawVec$LT$T$C$A$GT$$u20$as$u20$core..ops..drop..Drop$GT$4drop17h3a3064494007fe5fE
	addq	$16, %rsp
	popq	%rbp
	retq
Ltmp270:
Lfunc_end38:
	.cfi_endproc

	.globl	__ZN4core3ptr56drop_in_place$LT$alloc..raw_vec..RawVec$LT$usize$GT$$GT$17h3c977f6747c0bb13E
	.p2align	4, 0x90
__ZN4core3ptr56drop_in_place$LT$alloc..raw_vec..RawVec$LT$usize$GT$$GT$17h3c977f6747c0bb13E:
Lfunc_begin39:
	.loc	3 490 0
	.cfi_startproc
	pushq	%rbp
	.cfi_def_cfa_offset 16
	.cfi_offset %rbp, -16
	movq	%rsp, %rbp
	.cfi_def_cfa_register %rbp
	subq	$16, %rsp
	movq	%rdi, -8(%rbp)
Ltmp271:
	.loc	3 490 1 prologue_end
	callq	__ZN77_$LT$alloc..raw_vec..RawVec$LT$T$C$A$GT$$u20$as$u20$core..ops..drop..Drop$GT$4drop17h0ea2439e38670525E
	addq	$16, %rsp
	popq	%rbp
	retq
Ltmp272:
Lfunc_end39:
	.cfi_endproc

	.globl	__ZN4core3ptr62drop_in_place$LT$alloc..vec..set_len_on_drop..SetLenOnDrop$GT$17hd4c090331f4e6c99E
	.p2align	4, 0x90
__ZN4core3ptr62drop_in_place$LT$alloc..vec..set_len_on_drop..SetLenOnDrop$GT$17hd4c090331f4e6c99E:
Lfunc_begin40:
	.loc	3 490 0
	.cfi_startproc
	pushq	%rbp
	.cfi_def_cfa_offset 16
	.cfi_offset %rbp, -16
	movq	%rsp, %rbp
	.cfi_def_cfa_register %rbp
	subq	$16, %rsp
	movq	%rdi, -8(%rbp)
Ltmp273:
	.loc	3 490 1 prologue_end
	callq	__ZN83_$LT$alloc..vec..set_len_on_drop..SetLenOnDrop$u20$as$u20$core..ops..drop..Drop$GT$4drop17h58f318ba82047902E
	addq	$16, %rsp
	popq	%rbp
	retq
Ltmp274:
Lfunc_end40:
	.cfi_endproc

	.globl	__ZN4core3ptr72drop_in_place$LT$alloc..vec..Vec$LT$color_quant..Quad$LT$f64$GT$$GT$$GT$17hf538eda0e71ba0d2E
	.p2align	4, 0x90
__ZN4core3ptr72drop_in_place$LT$alloc..vec..Vec$LT$color_quant..Quad$LT$f64$GT$$GT$$GT$17hf538eda0e71ba0d2E:
Lfunc_begin41:
	.loc	3 490 0
	.cfi_startproc
	.cfi_personality 155, _rust_eh_personality
	.cfi_lsda 16, Lexception7
	pushq	%rbp
	.cfi_def_cfa_offset 16
	.cfi_offset %rbp, -16
	movq	%rsp, %rbp
	.cfi_def_cfa_register %rbp
	subq	$32, %rsp
	movq	%rdi, -32(%rbp)
	movq	%rdi, -24(%rbp)
Ltmp275:
Ltmp281:
	.loc	3 490 1 prologue_end
	callq	__ZN70_$LT$alloc..vec..Vec$LT$T$C$A$GT$$u20$as$u20$core..ops..drop..Drop$GT$4drop17hc6792277c8ac3437E
Ltmp276:
	jmp	LBB41_3
LBB41_1:
Ltmp278:
	.loc	3 0 1 is_stmt 0
	movq	-32(%rbp), %rdi
	.loc	3 490 1
	callq	__ZN4core3ptr79drop_in_place$LT$alloc..raw_vec..RawVec$LT$color_quant..Quad$LT$f64$GT$$GT$$GT$17h2f10ac6e089e62d6E
Ltmp279:
	jmp	LBB41_5
LBB41_2:
Ltmp277:
	.loc	3 0 1
	movq	%rax, %rcx
	movl	%edx, %eax
	movq	%rcx, -16(%rbp)
	movl	%eax, -8(%rbp)
	jmp	LBB41_1
LBB41_3:
	movq	-32(%rbp), %rdi
	.loc	3 490 1
	callq	__ZN4core3ptr79drop_in_place$LT$alloc..raw_vec..RawVec$LT$color_quant..Quad$LT$f64$GT$$GT$$GT$17h2f10ac6e089e62d6E
	addq	$32, %rsp
	popq	%rbp
	retq
LBB41_4:
Ltmp280:
	callq	__ZN4core9panicking19panic_cannot_unwind17h1fbca7e1d7f56ae1E
LBB41_5:
	movq	-16(%rbp), %rdi
	callq	__Unwind_Resume
Ltmp282:
Lfunc_end41:
	.cfi_endproc
	.section	__TEXT,__gcc_except_tab
	.p2align	2
GCC_except_table41:
Lexception7:
	.byte	255
	.byte	255
	.byte	1
	.uleb128 Lcst_end7-Lcst_begin7
Lcst_begin7:
	.uleb128 Ltmp275-Lfunc_begin41
	.uleb128 Ltmp276-Ltmp275
	.uleb128 Ltmp277-Lfunc_begin41
	.byte	0
	.uleb128 Ltmp278-Lfunc_begin41
	.uleb128 Ltmp279-Ltmp278
	.uleb128 Ltmp280-Lfunc_begin41
	.byte	0
	.uleb128 Ltmp279-Lfunc_begin41
	.uleb128 Lfunc_end41-Ltmp279
	.byte	0
	.byte	0
Lcst_end7:
	.p2align	2

	.section	__TEXT,__text,regular,pure_instructions
	.globl	__ZN4core3ptr72drop_in_place$LT$alloc..vec..Vec$LT$color_quant..Quad$LT$i32$GT$$GT$$GT$17hf493ef31347118c6E
	.p2align	4, 0x90
__ZN4core3ptr72drop_in_place$LT$alloc..vec..Vec$LT$color_quant..Quad$LT$i32$GT$$GT$$GT$17hf493ef31347118c6E:
Lfunc_begin42:
	.loc	3 490 0 is_stmt 1
	.cfi_startproc
	.cfi_personality 155, _rust_eh_personality
	.cfi_lsda 16, Lexception8
	pushq	%rbp
	.cfi_def_cfa_offset 16
	.cfi_offset %rbp, -16
	movq	%rsp, %rbp
	.cfi_def_cfa_register %rbp
	subq	$32, %rsp
	movq	%rdi, -32(%rbp)
	movq	%rdi, -24(%rbp)
Ltmp283:
Ltmp289:
	.loc	3 490 1 prologue_end
	callq	__ZN70_$LT$alloc..vec..Vec$LT$T$C$A$GT$$u20$as$u20$core..ops..drop..Drop$GT$4drop17h2573d599dd83a619E
Ltmp284:
	jmp	LBB42_3
LBB42_1:
Ltmp286:
	.loc	3 0 1 is_stmt 0
	movq	-32(%rbp), %rdi
	.loc	3 490 1
	callq	__ZN4core3ptr79drop_in_place$LT$alloc..raw_vec..RawVec$LT$color_quant..Quad$LT$i32$GT$$GT$$GT$17h451566aafbc959b6E
Ltmp287:
	jmp	LBB42_5
LBB42_2:
Ltmp285:
	.loc	3 0 1
	movq	%rax, %rcx
	movl	%edx, %eax
	movq	%rcx, -16(%rbp)
	movl	%eax, -8(%rbp)
	jmp	LBB42_1
LBB42_3:
	movq	-32(%rbp), %rdi
	.loc	3 490 1
	callq	__ZN4core3ptr79drop_in_place$LT$alloc..raw_vec..RawVec$LT$color_quant..Quad$LT$i32$GT$$GT$$GT$17h451566aafbc959b6E
	addq	$32, %rsp
	popq	%rbp
	retq
LBB42_4:
Ltmp288:
	callq	__ZN4core9panicking19panic_cannot_unwind17h1fbca7e1d7f56ae1E
LBB42_5:
	movq	-16(%rbp), %rdi
	callq	__Unwind_Resume
Ltmp290:
Lfunc_end42:
	.cfi_endproc
	.section	__TEXT,__gcc_except_tab
	.p2align	2
GCC_except_table42:
Lexception8:
	.byte	255
	.byte	255
	.byte	1
	.uleb128 Lcst_end8-Lcst_begin8
Lcst_begin8:
	.uleb128 Ltmp283-Lfunc_begin42
	.uleb128 Ltmp284-Ltmp283
	.uleb128 Ltmp285-Lfunc_begin42
	.byte	0
	.uleb128 Ltmp286-Lfunc_begin42
	.uleb128 Ltmp287-Ltmp286
	.uleb128 Ltmp288-Lfunc_begin42
	.byte	0
	.uleb128 Ltmp287-Lfunc_begin42
	.uleb128 Lfunc_end42-Ltmp287
	.byte	0
	.byte	0
Lcst_end8:
	.p2align	2

	.section	__TEXT,__text,regular,pure_instructions
	.globl	__ZN4core3ptr79drop_in_place$LT$alloc..raw_vec..RawVec$LT$color_quant..Quad$LT$f64$GT$$GT$$GT$17h2f10ac6e089e62d6E
	.p2align	4, 0x90
__ZN4core3ptr79drop_in_place$LT$alloc..raw_vec..RawVec$LT$color_quant..Quad$LT$f64$GT$$GT$$GT$17h2f10ac6e089e62d6E:
Lfunc_begin43:
	.loc	3 490 0 is_stmt 1
	.cfi_startproc
	pushq	%rbp
	.cfi_def_cfa_offset 16
	.cfi_offset %rbp, -16
	movq	%rsp, %rbp
	.cfi_def_cfa_register %rbp
	subq	$16, %rsp
	movq	%rdi, -8(%rbp)
Ltmp291:
	.loc	3 490 1 prologue_end
	callq	__ZN77_$LT$alloc..raw_vec..RawVec$LT$T$C$A$GT$$u20$as$u20$core..ops..drop..Drop$GT$4drop17hafb2ca4721203100E
	addq	$16, %rsp
	popq	%rbp
	retq
Ltmp292:
Lfunc_end43:
	.cfi_endproc

	.globl	__ZN4core3ptr79drop_in_place$LT$alloc..raw_vec..RawVec$LT$color_quant..Quad$LT$i32$GT$$GT$$GT$17h451566aafbc959b6E
	.p2align	4, 0x90
__ZN4core3ptr79drop_in_place$LT$alloc..raw_vec..RawVec$LT$color_quant..Quad$LT$i32$GT$$GT$$GT$17h451566aafbc959b6E:
Lfunc_begin44:
	.loc	3 490 0
	.cfi_startproc
	pushq	%rbp
	.cfi_def_cfa_offset 16
	.cfi_offset %rbp, -16
	movq	%rsp, %rbp
	.cfi_def_cfa_register %rbp
	subq	$16, %rsp
	movq	%rdi, -8(%rbp)
Ltmp293:
	.loc	3 490 1 prologue_end
	callq	__ZN77_$LT$alloc..raw_vec..RawVec$LT$T$C$A$GT$$u20$as$u20$core..ops..drop..Drop$GT$4drop17h3486d70a958e2b39E
	addq	$16, %rsp
	popq	%rbp
	retq
Ltmp294:
Lfunc_end44:
	.cfi_endproc

	.globl	__ZN4core3ptr8non_null16NonNull$LT$T$GT$3new17h1bd3a28d75198003E
	.p2align	4, 0x90
__ZN4core3ptr8non_null16NonNull$LT$T$GT$3new17h1bd3a28d75198003E:
Lfunc_begin45:
	.loc	5 222 0
	.cfi_startproc
	pushq	%rbp
	.cfi_def_cfa_offset 16
	.cfi_offset %rbp, -16
	movq	%rsp, %rbp
	.cfi_def_cfa_register %rbp
	subq	$88, %rsp
	movq	%rdi, -88(%rbp)
	movq	%rdi, -56(%rbp)
Ltmp295:
	.loc	5 223 13 prologue_end
	movq	%rdi, -48(%rbp)
Ltmp296:
	.loc	17 52 36
	movq	%rdi, -64(%rbp)
	.loc	17 52 18 is_stmt 0
	movq	-64(%rbp), %rax
	movq	%rax, -40(%rbp)
Ltmp297:
	.loc	17 38 13 is_stmt 1
	movq	%rax, -32(%rbp)
Ltmp298:
	.loc	17 215 33
	movq	%rax, -24(%rbp)
	.loc	17 215 18 is_stmt 0
	movq	%rax, -16(%rbp)
Ltmp299:
	.loc	17 38 13 is_stmt 1
	cmpq	$0, -16(%rbp)
	sete	%al
Ltmp300:
	.loc	5 223 12
	xorb	$-1, %al
	testb	$1, %al
	jne	LBB45_2
	.loc	5 227 13
	movq	$0, -80(%rbp)
	.loc	5 223 9
	jmp	LBB45_3
LBB45_2:
	.loc	5 0 9 is_stmt 0
	movq	-88(%rbp), %rax
	.loc	5 225 47 is_stmt 1
	movq	%rax, -8(%rbp)
Ltmp301:
	.loc	5 201 13
	movq	%rax, -72(%rbp)
Ltmp302:
	.loc	5 225 13
	movq	-72(%rbp), %rax
	movq	%rax, -80(%rbp)
LBB45_3:
	.loc	5 229 6
	movq	-80(%rbp), %rax
	addq	$88, %rsp
	popq	%rbp
	retq
Ltmp303:
Lfunc_end45:
	.cfi_endproc

	.globl	__ZN4core3ptr8non_null26NonNull$LT$$u5b$T$u5d$$GT$20slice_from_raw_parts17h6a8df541b1dc80cfE
	.p2align	4, 0x90
__ZN4core3ptr8non_null26NonNull$LT$$u5b$T$u5d$$GT$20slice_from_raw_parts17h6a8df541b1dc80cfE:
Lfunc_begin46:
	.loc	5 482 0
	.cfi_startproc
	pushq	%rbp
	.cfi_def_cfa_offset 16
	.cfi_offset %rbp, -16
	movq	%rsp, %rbp
	.cfi_def_cfa_register %rbp
	subq	$128, %rsp
	movq	%rdi, -80(%rbp)
	movq	%rsi, -72(%rbp)
Ltmp304:
	.loc	5 484 70 prologue_end
	movq	%rdi, -64(%rbp)
Ltmp305:
	.loc	5 326 9
	movq	%rdi, -56(%rbp)
Ltmp306:
	.loc	5 484 85
	movq	%rsi, -48(%rbp)
Ltmp307:
	.loc	3 766 24
	movq	%rdi, -40(%rbp)
Ltmp308:
	.loc	17 60 9
	movq	%rdi, -32(%rbp)
Ltmp309:
	.loc	3 766 37
	movq	%rsi, -24(%rbp)
Ltmp310:
	.loc	4 135 36
	movq	%rdi, -96(%rbp)
	movq	%rsi, -88(%rbp)
	.loc	4 135 14 is_stmt 0
	movq	-96(%rbp), %rcx
	movq	-88(%rbp), %rax
	movq	%rcx, -112(%rbp)
	movq	%rax, -104(%rbp)
	movq	-112(%rbp), %rcx
	movq	-104(%rbp), %rax
	movq	%rcx, -16(%rbp)
	movq	%rax, -8(%rbp)
Ltmp311:
	.loc	5 201 13 is_stmt 1
	movq	%rcx, -128(%rbp)
	movq	%rax, -120(%rbp)
Ltmp312:
	.loc	5 485 6
	movq	-128(%rbp), %rax
	movq	-120(%rbp), %rdx
	addq	$128, %rsp
	popq	%rbp
	retq
Ltmp313:
Lfunc_end46:
	.cfi_endproc

	.p2align	4, 0x90
__ZN4core4hint21unreachable_unchecked17he4788c0ecd494040E:
Lfunc_begin47:
	.file	19 "/rustc/2c8cc343237b8f7d5a3c3703e3a87f2eb2c54a74/library/core/src" "hint.rs"
	.loc	19 100 0
	.cfi_startproc
	pushq	%rbp
	.cfi_def_cfa_offset 16
	.cfi_offset %rbp, -16
	movq	%rsp, %rbp
	.cfi_def_cfa_register %rbp
Ltmp314:
	.loc	19 104 9 prologue_end
	ud2
Ltmp315:
Lfunc_end47:
	.cfi_endproc

	.globl	__ZN4core4iter5range101_$LT$impl$u20$core..iter..traits..iterator..Iterator$u20$for$u20$core..ops..range..Range$LT$A$GT$$GT$4next17h99bd02efe4e021d4E
	.p2align	4, 0x90
__ZN4core4iter5range101_$LT$impl$u20$core..iter..traits..iterator..Iterator$u20$for$u20$core..ops..range..Range$LT$A$GT$$GT$4next17h99bd02efe4e021d4E:
Lfunc_begin48:
	.loc	9 710 0
	.cfi_startproc
	pushq	%rbp
	.cfi_def_cfa_offset 16
	.cfi_offset %rbp, -16
	movq	%rsp, %rbp
	.cfi_def_cfa_register %rbp
	subq	$16, %rsp
	movq	%rdi, -8(%rbp)
Ltmp316:
	.loc	9 711 9 prologue_end
	callq	__ZN89_$LT$core..ops..range..Range$LT$T$GT$$u20$as$u20$core..iter..range..RangeIteratorImpl$GT$9spec_next17ha63932d7af2458c3E
	.loc	9 712 6
	addq	$16, %rsp
	popq	%rbp
	retq
Ltmp317:
Lfunc_end48:
	.cfi_endproc

	.p2align	4, 0x90
__ZN4core5alloc6layout6Layout5array5inner17hfcea5a438bd54a51E:
Lfunc_begin49:
	.file	20 "/rustc/2c8cc343237b8f7d5a3c3703e3a87f2eb2c54a74/library/core/src/alloc" "layout.rs"
	.loc	20 441 0
	.cfi_startproc
	pushq	%rbp
	.cfi_def_cfa_offset 16
	.cfi_offset %rbp, -16
	movq	%rsp, %rbp
	.cfi_def_cfa_register %rbp
	subq	$176, %rsp
	movq	%rdi, -168(%rbp)
	movq	%rsi, -160(%rbp)
	movq	%rdx, -152(%rbp)
	movq	%rdi, -88(%rbp)
	movq	%rsi, -80(%rbp)
	movq	%rdx, -72(%rbp)
Ltmp318:
	.loc	20 452 16 prologue_end
	cmpq	$0, %rdi
	jne	LBB49_2
	movb	$0, -121(%rbp)
	jmp	LBB49_5
LBB49_2:
	.loc	20 0 16 is_stmt 0
	movq	-168(%rbp), %rax
	movq	-160(%rbp), %rcx
	.loc	20 452 68
	movq	%rcx, -64(%rbp)
Ltmp319:
	.loc	20 93 32 is_stmt 1
	movq	%rcx, -56(%rbp)
Ltmp320:
	.file	21 "/rustc/2c8cc343237b8f7d5a3c3703e3a87f2eb2c54a74/library/core/src/ptr" "alignment.rs"
	.loc	21 97 9
	movq	%rcx, -104(%rbp)
	movq	-104(%rbp), %rdx
Ltmp321:
	.loc	20 93 31
	subq	$1, %rdx
	.loc	20 93 9 is_stmt 0
	movabsq	$9223372036854775807, %rcx
	subq	%rdx, %rcx
	movq	%rcx, -176(%rbp)
Ltmp322:
	.loc	20 452 41 is_stmt 1
	cmpq	$0, %rax
	sete	%al
	testb	$1, %al
	jne	LBB49_4
	.loc	20 0 41 is_stmt 0
	movq	-168(%rbp), %rcx
	movq	-176(%rbp), %rax
	.loc	20 452 41
	xorl	%edx, %edx
	divq	%rcx
	movq	%rax, %rcx
	movq	-152(%rbp), %rax
	.loc	20 452 37
	cmpq	%rcx, %rax
	seta	%al
	.loc	20 452 16
	andb	$1, %al
	movb	%al, -121(%rbp)
	jmp	LBB49_5
LBB49_4:
	.loc	20 452 41
	leaq	_str.0(%rip), %rdi
	leaq	l___unnamed_1(%rip), %rdx
	movl	$25, %esi
	callq	__ZN4core9panicking5panic17hc1bc45270cf64b03E
LBB49_5:
	.loc	20 452 16
	testb	$1, -121(%rbp)
	jne	LBB49_7
	.loc	20 0 16
	movq	-160(%rbp), %rax
	movq	-152(%rbp), %rdx
	movq	-168(%rbp), %rcx
	.loc	20 456 30 is_stmt 1
	imulq	%rdx, %rcx
	movq	%rcx, -48(%rbp)
Ltmp323:
	.loc	20 461 59
	movq	%rcx, -40(%rbp)
	.loc	20 461 71 is_stmt 0
	movq	%rax, -32(%rbp)
Ltmp324:
	.loc	21 97 9 is_stmt 1
	movq	%rax, -96(%rbp)
	movq	-96(%rbp), %rax
	movq	%rax, -24(%rbp)
Ltmp325:
	.loc	20 120 65
	movq	%rax, -16(%rbp)
Ltmp326:
	.loc	21 89 18
	movq	%rax, -8(%rbp)
	movq	-8(%rbp), %rax
Ltmp327:
	.loc	20 120 18
	movq	%rcx, -120(%rbp)
	movq	%rax, -112(%rbp)
Ltmp328:
	.loc	20 461 22
	movq	-120(%rbp), %rcx
	movq	-112(%rbp), %rax
	movq	%rcx, -144(%rbp)
	movq	%rax, -136(%rbp)
Ltmp329:
	.loc	20 462 10
	jmp	LBB49_8
LBB49_7:
	.loc	20 453 24
	movq	$0, -136(%rbp)
LBB49_8:
	.loc	20 462 10
	movq	-144(%rbp), %rax
	movq	-136(%rbp), %rdx
	addq	$176, %rsp
	popq	%rbp
	retq
Ltmp330:
Lfunc_end49:
	.cfi_endproc

	.globl	__ZN4core5slice29_$LT$impl$u20$$u5b$T$u5d$$GT$3get17h9eca05d6033f3090E
	.p2align	4, 0x90
__ZN4core5slice29_$LT$impl$u20$$u5b$T$u5d$$GT$3get17h9eca05d6033f3090E:
Lfunc_begin50:
	.file	22 "/rustc/2c8cc343237b8f7d5a3c3703e3a87f2eb2c54a74/library/core/src/slice" "mod.rs"
	.loc	22 339 0
	.cfi_startproc
	pushq	%rbp
	.cfi_def_cfa_offset 16
	.cfi_offset %rbp, -16
	movq	%rsp, %rbp
	.cfi_def_cfa_register %rbp
	subq	$32, %rsp
	movq	%rdx, -32(%rbp)
	movq	%rsi, %rdx
	movq	%rdi, %rsi
	movq	-32(%rbp), %rdi
	movq	%rsi, -24(%rbp)
	movq	%rdx, -16(%rbp)
	movq	%rdi, -8(%rbp)
Ltmp331:
	.loc	22 343 9 prologue_end
	callq	__ZN75_$LT$usize$u20$as$u20$core..slice..index..SliceIndex$LT$$u5b$T$u5d$$GT$$GT$3get17h36c97cb75b47082aE
	.loc	22 344 6
	addq	$32, %rsp
	popq	%rbp
	retq
Ltmp332:
Lfunc_end50:
	.cfi_endproc

	.globl	__ZN4core5slice29_$LT$impl$u20$$u5b$T$u5d$$GT$4iter17h2bf332aa5add6644E
	.p2align	4, 0x90
__ZN4core5slice29_$LT$impl$u20$$u5b$T$u5d$$GT$4iter17h2bf332aa5add6644E:
Lfunc_begin51:
	.loc	22 741 0
	.cfi_startproc
	pushq	%rbp
	.cfi_def_cfa_offset 16
	.cfi_offset %rbp, -16
	movq	%rsp, %rbp
	.cfi_def_cfa_register %rbp
	subq	$16, %rsp
	movq	%rdi, -16(%rbp)
	movq	%rsi, -8(%rbp)
Ltmp333:
	.loc	22 742 9 prologue_end
	callq	__ZN4core5slice4iter13Iter$LT$T$GT$3new17h6e1ea8e1ba66b4a6E
	.loc	22 743 6
	addq	$16, %rsp
	popq	%rbp
	retq
Ltmp334:
Lfunc_end51:
	.cfi_endproc

	.globl	__ZN4core5slice4iter13Iter$LT$T$GT$3new17h6e1ea8e1ba66b4a6E
	.p2align	4, 0x90
__ZN4core5slice4iter13Iter$LT$T$GT$3new17h6e1ea8e1ba66b4a6E:
Lfunc_begin52:
	.file	23 "/rustc/2c8cc343237b8f7d5a3c3703e3a87f2eb2c54a74/library/core/src/slice" "iter.rs"
	.loc	23 82 0
	.cfi_startproc
	pushq	%rbp
	.cfi_def_cfa_offset 16
	.cfi_offset %rbp, -16
	movq	%rsp, %rbp
	.cfi_def_cfa_register %rbp
	subq	$280, %rsp
	movq	%rdi, -280(%rbp)
	movq	%rsi, -272(%rbp)
	movq	%rdi, -208(%rbp)
	movq	%rsi, -200(%rbp)
Ltmp335:
	.loc	23 83 19 prologue_end
	movq	%rdi, -184(%rbp)
	movq	%rsi, -176(%rbp)
Ltmp336:
	.loc	22 477 9
	movq	%rdi, -168(%rbp)
Ltmp337:
	.loc	23 86 21
	movq	%rdi, -160(%rbp)
Ltmp338:
	.loc	2 53 36
	movq	%rdi, -232(%rbp)
	.loc	2 53 18 is_stmt 0
	movq	-232(%rbp), %rax
	movq	%rax, -152(%rbp)
Ltmp339:
	.loc	2 39 13 is_stmt 1
	movq	%rax, -144(%rbp)
Ltmp340:
	.loc	2 209 33
	movq	%rax, -136(%rbp)
	.loc	2 209 18 is_stmt 0
	movq	%rax, -128(%rbp)
Ltmp341:
	.loc	23 89 20 is_stmt 1
	xorl	%eax, %eax
	testb	$1, %al
	jne	LBB52_2
	.loc	23 0 20 is_stmt 0
	movq	-280(%rbp), %rax
	movq	-272(%rbp), %rcx
	.loc	23 89 76
	movq	%rax, -40(%rbp)
	.loc	23 89 84
	movq	%rcx, -32(%rbp)
Ltmp342:
	.loc	2 932 18 is_stmt 1
	movq	%rax, -24(%rbp)
	.loc	2 932 30 is_stmt 0
	movq	%rcx, -16(%rbp)
Ltmp343:
	.loc	2 473 18 is_stmt 1
	shlq	$3, %rcx
	addq	%rcx, %rax
	movq	%rax, -248(%rbp)
Ltmp344:
	.loc	23 89 17
	jmp	LBB52_3
LBB52_2:
	.loc	23 0 17 is_stmt 0
	movq	-272(%rbp), %rcx
	movq	-280(%rbp), %rax
	.loc	23 89 32
	movq	%rax, -120(%rbp)
	.loc	23 89 54
	movq	%rcx, -112(%rbp)
Ltmp345:
	.loc	2 1118 9 is_stmt 1
	movq	%rax, -104(%rbp)
Ltmp346:
	.loc	2 61 9
	movq	%rax, -96(%rbp)
Ltmp347:
	.loc	2 1118 40
	movq	%rcx, -88(%rbp)
Ltmp348:
	.loc	2 1100 9
	movq	%rax, -80(%rbp)
	.loc	2 1100 30 is_stmt 0
	movq	%rcx, -72(%rbp)
Ltmp349:
	.loc	2 555 18 is_stmt 1
	addq	%rcx, %rax
	movq	%rax, -64(%rbp)
	movq	-64(%rbp), %rax
	movq	%rax, -56(%rbp)
Ltmp350:
	.loc	2 100 29
	movq	%rax, -48(%rbp)
Ltmp351:
	.loc	4 118 36
	movq	%rax, -216(%rbp)
	.loc	4 118 14 is_stmt 0
	movq	-216(%rbp), %rax
	movq	%rax, -224(%rbp)
	movq	-224(%rbp), %rax
	movq	%rax, -248(%rbp)
Ltmp352:
LBB52_3:
	.loc	4 0 14
	movq	-280(%rbp), %rax
Ltmp353:
	.loc	23 91 48 is_stmt 1
	movq	%rax, -8(%rbp)
Ltmp354:
	.loc	5 201 13
	movq	%rax, -240(%rbp)
Ltmp355:
	.loc	23 91 64
	movq	-248(%rbp), %rax
	.loc	23 91 13 is_stmt 0
	movq	-240(%rbp), %rcx
	movq	%rcx, -256(%rbp)
	movq	%rax, -264(%rbp)
Ltmp356:
	.loc	23 93 6 is_stmt 1
	movq	-264(%rbp), %rax
	movq	-256(%rbp), %rdx
	addq	$280, %rsp
	popq	%rbp
	retq
Ltmp357:
Lfunc_end52:
	.cfi_endproc

	.globl	__ZN4core5slice4iter13Iter$LT$T$GT$3new17hb7f01f7c0c9097feE
	.p2align	4, 0x90
__ZN4core5slice4iter13Iter$LT$T$GT$3new17hb7f01f7c0c9097feE:
Lfunc_begin53:
	.loc	23 82 0
	.cfi_startproc
	pushq	%rbp
	.cfi_def_cfa_offset 16
	.cfi_offset %rbp, -16
	movq	%rsp, %rbp
	.cfi_def_cfa_register %rbp
	subq	$280, %rsp
	movq	%rdi, -280(%rbp)
	movq	%rsi, -272(%rbp)
	movq	%rdi, -208(%rbp)
	movq	%rsi, -200(%rbp)
Ltmp358:
	.loc	23 83 19 prologue_end
	movq	%rdi, -184(%rbp)
	movq	%rsi, -176(%rbp)
Ltmp359:
	.loc	22 477 9
	movq	%rdi, -168(%rbp)
Ltmp360:
	.loc	23 86 21
	movq	%rdi, -160(%rbp)
Ltmp361:
	.loc	2 53 36
	movq	%rdi, -232(%rbp)
	.loc	2 53 18 is_stmt 0
	movq	-232(%rbp), %rax
	movq	%rax, -152(%rbp)
Ltmp362:
	.loc	2 39 13 is_stmt 1
	movq	%rax, -144(%rbp)
Ltmp363:
	.loc	2 209 33
	movq	%rax, -136(%rbp)
	.loc	2 209 18 is_stmt 0
	movq	%rax, -128(%rbp)
Ltmp364:
	.loc	23 89 20 is_stmt 1
	xorl	%eax, %eax
	testb	$1, %al
	jne	LBB53_2
	.loc	23 0 20 is_stmt 0
	movq	-280(%rbp), %rax
	movq	-272(%rbp), %rcx
	.loc	23 89 76
	movq	%rax, -40(%rbp)
	.loc	23 89 84
	movq	%rcx, -32(%rbp)
Ltmp365:
	.loc	2 932 18 is_stmt 1
	movq	%rax, -24(%rbp)
	.loc	2 932 30 is_stmt 0
	movq	%rcx, -16(%rbp)
Ltmp366:
	.loc	2 473 18 is_stmt 1
	shlq	$4, %rcx
	addq	%rcx, %rax
	movq	%rax, -248(%rbp)
Ltmp367:
	.loc	23 89 17
	jmp	LBB53_3
LBB53_2:
	.loc	23 0 17 is_stmt 0
	movq	-272(%rbp), %rcx
	movq	-280(%rbp), %rax
	.loc	23 89 32
	movq	%rax, -120(%rbp)
	.loc	23 89 54
	movq	%rcx, -112(%rbp)
Ltmp368:
	.loc	2 1118 9 is_stmt 1
	movq	%rax, -104(%rbp)
Ltmp369:
	.loc	2 61 9
	movq	%rax, -96(%rbp)
Ltmp370:
	.loc	2 1118 40
	movq	%rcx, -88(%rbp)
Ltmp371:
	.loc	2 1100 9
	movq	%rax, -80(%rbp)
	.loc	2 1100 30 is_stmt 0
	movq	%rcx, -72(%rbp)
Ltmp372:
	.loc	2 555 18 is_stmt 1
	addq	%rcx, %rax
	movq	%rax, -64(%rbp)
	movq	-64(%rbp), %rax
	movq	%rax, -56(%rbp)
Ltmp373:
	.loc	2 100 29
	movq	%rax, -48(%rbp)
Ltmp374:
	.loc	4 118 36
	movq	%rax, -216(%rbp)
	.loc	4 118 14 is_stmt 0
	movq	-216(%rbp), %rax
	movq	%rax, -224(%rbp)
	movq	-224(%rbp), %rax
	movq	%rax, -248(%rbp)
Ltmp375:
LBB53_3:
	.loc	4 0 14
	movq	-280(%rbp), %rax
Ltmp376:
	.loc	23 91 48 is_stmt 1
	movq	%rax, -8(%rbp)
Ltmp377:
	.loc	5 201 13
	movq	%rax, -240(%rbp)
Ltmp378:
	.loc	23 91 64
	movq	-248(%rbp), %rax
	.loc	23 91 13 is_stmt 0
	movq	-240(%rbp), %rcx
	movq	%rcx, -256(%rbp)
	movq	%rax, -264(%rbp)
Ltmp379:
	.loc	23 93 6 is_stmt 1
	movq	-264(%rbp), %rax
	movq	-256(%rbp), %rdx
	addq	$280, %rsp
	popq	%rbp
	retq
Ltmp380:
Lfunc_end53:
	.cfi_endproc

	.globl	__ZN4core5slice5index74_$LT$impl$u20$core..ops..index..Index$LT$I$GT$$u20$for$u20$$u5b$T$u5d$$GT$5index17h2ae511b1f5d84c98E
	.p2align	4, 0x90
__ZN4core5slice5index74_$LT$impl$u20$core..ops..index..Index$LT$I$GT$$u20$for$u20$$u5b$T$u5d$$GT$5index17h2ae511b1f5d84c98E:
Lfunc_begin54:
	.loc	1 17 0
	.cfi_startproc
	pushq	%rbp
	.cfi_def_cfa_offset 16
	.cfi_offset %rbp, -16
	movq	%rsp, %rbp
	.cfi_def_cfa_register %rbp
	subq	$32, %rsp
	movq	%rdx, -32(%rbp)
	movq	%rsi, %rdx
	movq	%rdi, %rsi
	movq	-32(%rbp), %rdi
	movq	%rsi, -24(%rbp)
	movq	%rdx, -16(%rbp)
	movq	%rdi, -8(%rbp)
Ltmp381:
	.loc	1 18 9 prologue_end
	callq	__ZN110_$LT$core..ops..range..RangeFrom$LT$usize$GT$$u20$as$u20$core..slice..index..SliceIndex$LT$$u5b$T$u5d$$GT$$GT$5index17h3b5e8362b57bd90fE
	.loc	1 19 6
	addq	$32, %rsp
	popq	%rbp
	retq
Ltmp382:
Lfunc_end54:
	.cfi_endproc

	.globl	__ZN4core5slice5index74_$LT$impl$u20$core..ops..index..Index$LT$I$GT$$u20$for$u20$$u5b$T$u5d$$GT$5index17hc1e84437949b5cdaE
	.p2align	4, 0x90
__ZN4core5slice5index74_$LT$impl$u20$core..ops..index..Index$LT$I$GT$$u20$for$u20$$u5b$T$u5d$$GT$5index17hc1e84437949b5cdaE:
Lfunc_begin55:
	.loc	1 17 0
	.cfi_startproc
	pushq	%rbp
	.cfi_def_cfa_offset 16
	.cfi_offset %rbp, -16
	movq	%rsp, %rbp
	.cfi_def_cfa_register %rbp
	subq	$32, %rsp
	movq	%rdx, -32(%rbp)
	movq	%rsi, %rdx
	movq	%rdi, %rsi
	movq	-32(%rbp), %rdi
	movq	%rsi, -24(%rbp)
	movq	%rdx, -16(%rbp)
	movq	%rdi, -8(%rbp)
Ltmp383:
	.loc	1 18 9 prologue_end
	callq	__ZN108_$LT$core..ops..range..RangeTo$LT$usize$GT$$u20$as$u20$core..slice..index..SliceIndex$LT$$u5b$T$u5d$$GT$$GT$5index17h9ce9aa79184eb04bE
	.loc	1 19 6
	addq	$32, %rsp
	popq	%rbp
	retq
Ltmp384:
Lfunc_end55:
	.cfi_endproc

	.globl	__ZN4core6option15Option$LT$T$GT$3map17h6b81b137861f9c65E
	.p2align	4, 0x90
__ZN4core6option15Option$LT$T$GT$3map17h6b81b137861f9c65E:
Lfunc_begin56:
	.file	24 "/rustc/2c8cc343237b8f7d5a3c3703e3a87f2eb2c54a74/library/core/src" "option.rs"
	.loc	24 964 0
	.cfi_startproc
	pushq	%rbp
	.cfi_def_cfa_offset 16
	.cfi_offset %rbp, -16
	movq	%rsp, %rbp
	.cfi_def_cfa_register %rbp
	subq	$64, %rsp
	movq	%rdi, -64(%rbp)
Ltmp385:
	.loc	24 969 15 prologue_end
	movb	$1, -25(%rbp)
	movq	-64(%rbp), %rdx
	movl	$1, %eax
	xorl	%ecx, %ecx
	cmpq	$0, %rdx
	cmoveq	%rcx, %rax
	.loc	24 969 9 is_stmt 0
	cmpq	$0, %rax
	jne	LBB56_2
	.loc	24 971 21 is_stmt 1
	movb	$0, -56(%rbp)
	jmp	LBB56_3
LBB56_2:
	.loc	24 970 18
	movq	-64(%rbp), %rax
	movq	%rax, -16(%rbp)
Ltmp386:
	.loc	24 970 29 is_stmt 0
	movb	$0, -25(%rbp)
	movq	%rax, -40(%rbp)
	movq	-40(%rbp), %rdi
	callq	__ZN11color_quant8NeuQuant6lookup28_$u7b$$u7b$closure$u7d$$u7d$17h52afef2e5ac8ee47E
	movl	%eax, -4(%rbp)
	movl	-4(%rbp), %eax
	movl	%eax, -44(%rbp)
	.loc	24 970 24
	movl	-44(%rbp), %eax
	movl	%eax, -55(%rbp)
	movb	$1, -56(%rbp)
Ltmp387:
LBB56_3:
	.loc	24 973 5 is_stmt 1
	testb	$1, -25(%rbp)
	jne	LBB56_5
LBB56_4:
	.loc	24 973 6 is_stmt 0
	movl	-56(%rbp), %eax
	movzbl	-52(%rbp), %ecx
	shlq	$32, %rcx
	orq	%rcx, %rax
	addq	$64, %rsp
	popq	%rbp
	retq
LBB56_5:
	.loc	24 973 5
	jmp	LBB56_4
Ltmp388:
Lfunc_end56:
	.cfi_endproc

	.globl	__ZN4core6option15Option$LT$T$GT$9unwrap_or17ha4ef58f8a0e94f26E
	.p2align	4, 0x90
__ZN4core6option15Option$LT$T$GT$9unwrap_or17ha4ef58f8a0e94f26E:
Lfunc_begin57:
	.loc	24 844 0 is_stmt 1
	.cfi_startproc
	pushq	%rbp
	.cfi_def_cfa_offset 16
	.cfi_offset %rbp, -16
	movq	%rsp, %rbp
	.cfi_def_cfa_register %rbp
	subq	$48, %rsp
	movq	%rsi, -48(%rbp)
	movq	%rdi, -40(%rbp)
	movq	%rsi, -16(%rbp)
Ltmp389:
	.loc	24 848 15 prologue_end
	movb	$1, -17(%rbp)
	movq	-40(%rbp), %rdx
	movl	$1, %eax
	xorl	%ecx, %ecx
	cmpq	$0, %rdx
	cmoveq	%rcx, %rax
	.loc	24 848 9 is_stmt 0
	cmpq	$0, %rax
	jne	LBB57_2
	.loc	24 0 9
	movq	-48(%rbp), %rax
	.loc	24 850 21 is_stmt 1
	movb	$0, -17(%rbp)
	movq	%rax, -32(%rbp)
	jmp	LBB57_3
LBB57_2:
	.loc	24 849 18
	movq	-40(%rbp), %rax
	movq	%rax, -8(%rbp)
Ltmp390:
	.loc	24 849 24 is_stmt 0
	movq	%rax, -32(%rbp)
Ltmp391:
LBB57_3:
	.loc	24 852 5 is_stmt 1
	testb	$1, -17(%rbp)
	jne	LBB57_5
LBB57_4:
	.loc	24 852 6 is_stmt 0
	movq	-32(%rbp), %rax
	addq	$48, %rsp
	popq	%rbp
	retq
LBB57_5:
	.loc	24 852 5
	jmp	LBB57_4
Ltmp392:
Lfunc_end57:
	.cfi_endproc

	.globl	__ZN4core6result19Result$LT$T$C$E$GT$16unwrap_unchecked17h2aa96a907d27b753E
	.p2align	4, 0x90
__ZN4core6result19Result$LT$T$C$E$GT$16unwrap_unchecked17h2aa96a907d27b753E:
Lfunc_begin58:
	.file	25 "/rustc/2c8cc343237b8f7d5a3c3703e3a87f2eb2c54a74/library/core/src" "result.rs"
	.loc	25 1530 0 is_stmt 1
	.cfi_startproc
	.cfi_personality 155, _rust_eh_personality
	.cfi_lsda 16, Lexception9
	pushq	%rbp
	.cfi_def_cfa_offset 16
	.cfi_offset %rbp, -16
	movq	%rsp, %rbp
	.cfi_def_cfa_register %rbp
	subq	$64, %rsp
	movq	%rdi, -48(%rbp)
	movq	%rsi, -40(%rbp)
Ltmp396:
	.loc	25 1532 15 prologue_end
	xorl	%eax, %eax
	movl	$1, %ecx
	cmpq	$0, -40(%rbp)
	cmoveq	%rcx, %rax
	.loc	25 1532 9 is_stmt 0
	cmpq	$0, %rax
	jne	LBB58_2
	.loc	25 1533 16 is_stmt 1
	movq	-48(%rbp), %rcx
	movq	%rcx, -64(%rbp)
	movq	-40(%rbp), %rax
	movq	%rax, -56(%rbp)
	movq	%rcx, -16(%rbp)
	movq	%rax, -8(%rbp)
	.loc	25 1537 5
	xorl	%eax, %eax
	movl	$1, %ecx
	cmpq	$0, -40(%rbp)
	cmoveq	%rcx, %rax
	cmpq	$0, %rax
	je	LBB58_10
	jmp	LBB58_11
LBB58_2:
Ltmp393:
	.loc	25 1535 32
	callq	__ZN4core4hint21unreachable_unchecked17he4788c0ecd494040E
Ltmp394:
	jmp	LBB58_5
LBB58_3:
	.loc	25 1537 5
	xorl	%eax, %eax
	movl	$1, %ecx
	cmpq	$0, -40(%rbp)
	cmoveq	%rcx, %rax
	cmpq	$0, %rax
	je	LBB58_6
	jmp	LBB58_7
LBB58_4:
Ltmp395:
	.loc	25 0 5 is_stmt 0
	movq	%rax, %rcx
	movl	%edx, %eax
	movq	%rcx, -32(%rbp)
	movl	%eax, -24(%rbp)
	jmp	LBB58_3
LBB58_5:
	ud2
LBB58_6:
	.loc	25 1537 5
	movb	$1, %al
	testb	$1, %al
	jne	LBB58_9
	jmp	LBB58_8
LBB58_7:
	jmp	LBB58_8
LBB58_8:
	.loc	25 1530 5 is_stmt 1
	movq	-32(%rbp), %rdi
	callq	__Unwind_Resume
LBB58_9:
	.loc	25 1537 5
	jmp	LBB58_8
LBB58_10:
	.loc	25 0 5 is_stmt 0
	movq	-56(%rbp), %rdx
	movq	-64(%rbp), %rax
	.loc	25 1537 6
	addq	$64, %rsp
	popq	%rbp
	retq
LBB58_11:
	.loc	25 1537 5
	jmp	LBB58_10
Ltmp397:
Lfunc_end58:
	.cfi_endproc
	.section	__TEXT,__gcc_except_tab
	.p2align	2
GCC_except_table58:
Lexception9:
	.byte	255
	.byte	255
	.byte	1
	.uleb128 Lcst_end9-Lcst_begin9
Lcst_begin9:
	.uleb128 Ltmp393-Lfunc_begin58
	.uleb128 Ltmp394-Ltmp393
	.uleb128 Ltmp395-Lfunc_begin58
	.byte	0
	.uleb128 Ltmp394-Lfunc_begin58
	.uleb128 Lfunc_end58-Ltmp394
	.byte	0
	.byte	0
Lcst_end9:
	.p2align	2

	.section	__TEXT,__text,regular,pure_instructions
	.globl	__ZN4core6result19Result$LT$T$C$E$GT$7map_err17h212c64774437fd16E
	.p2align	4, 0x90
__ZN4core6result19Result$LT$T$C$E$GT$7map_err17h212c64774437fd16E:
Lfunc_begin59:
	.loc	25 857 0 is_stmt 1
	.cfi_startproc
	pushq	%rbp
	.cfi_def_cfa_offset 16
	.cfi_offset %rbp, -16
	movq	%rsp, %rbp
	.cfi_def_cfa_register %rbp
	subq	$96, %rsp
	movq	%rdi, -88(%rbp)
	movq	%rsi, -80(%rbp)
Ltmp398:
	.loc	25 858 15 prologue_end
	movb	$1, -33(%rbp)
	movabsq	$-9223372036854775807, %rdx
	movl	$1, %eax
	xorl	%ecx, %ecx
	cmpq	%rdx, -80(%rbp)
	cmoveq	%rcx, %rax
	.loc	25 858 9 is_stmt 0
	cmpq	$0, %rax
	jne	LBB59_2
Ltmp399:
	.loc	25 859 22 is_stmt 1
	movabsq	$-9223372036854775807, %rax
	movq	%rax, -64(%rbp)
Ltmp400:
	.loc	25 859 26 is_stmt 0
	jmp	LBB59_3
LBB59_2:
	.loc	25 860 17 is_stmt 1
	movq	-88(%rbp), %rcx
	movq	-80(%rbp), %rax
	movq	%rcx, -16(%rbp)
	movq	%rax, -8(%rbp)
Ltmp401:
	.loc	25 860 27 is_stmt 0
	movb	$0, -33(%rbp)
	movq	%rcx, -56(%rbp)
	movq	%rax, -48(%rbp)
	movq	-56(%rbp), %rdi
	movq	-48(%rbp), %rsi
	callq	__ZN5alloc7raw_vec14handle_reserve28_$u7b$$u7b$closure$u7d$$u7d$17h29c029dd929b4b28E
	.loc	25 860 23
	movq	%rax, -72(%rbp)
	movq	%rdx, -64(%rbp)
Ltmp402:
LBB59_3:
	.loc	25 862 5 is_stmt 1
	testb	$1, -33(%rbp)
	jne	LBB59_5
LBB59_4:
	.loc	25 862 6 is_stmt 0
	movq	-72(%rbp), %rax
	movq	-64(%rbp), %rdx
	addq	$96, %rsp
	popq	%rbp
	retq
LBB59_5:
	.loc	25 862 5
	jmp	LBB59_4
Ltmp403:
Lfunc_end59:
	.cfi_endproc

	.globl	__ZN4core6result19Result$LT$T$C$E$GT$7map_err17he49dfc2649235447E
	.p2align	4, 0x90
__ZN4core6result19Result$LT$T$C$E$GT$7map_err17he49dfc2649235447E:
Lfunc_begin60:
	.loc	25 857 0 is_stmt 1
	.cfi_startproc
	pushq	%rbp
	.cfi_def_cfa_offset 16
	.cfi_offset %rbp, -16
	movq	%rsp, %rbp
	.cfi_def_cfa_register %rbp
	subq	$80, %rsp
	movq	%rdi, -72(%rbp)
	movq	%rdi, -64(%rbp)
	movq	%rsi, -56(%rbp)
	movq	%rdx, -48(%rbp)
Ltmp404:
	.loc	25 858 15 prologue_end
	movb	$1, -33(%rbp)
	xorl	%eax, %eax
	movl	$1, %ecx
	cmpq	$0, -48(%rbp)
	cmoveq	%rcx, %rax
	.loc	25 858 9 is_stmt 0
	cmpq	$0, %rax
	jne	LBB60_2
	.loc	25 0 9
	movq	-72(%rbp), %rax
	.loc	25 859 16 is_stmt 1
	movq	-56(%rbp), %rdx
	movq	-48(%rbp), %rcx
	movq	%rdx, -16(%rbp)
	movq	%rcx, -8(%rbp)
Ltmp405:
	.loc	25 859 22 is_stmt 0
	movq	%rdx, 8(%rax)
	movq	%rcx, 16(%rax)
	movq	$0, (%rax)
Ltmp406:
	.loc	25 859 26
	jmp	LBB60_3
LBB60_2:
Ltmp407:
	.loc	25 860 27 is_stmt 1
	movb	$0, -33(%rbp)
	callq	__ZN5alloc7raw_vec11finish_grow28_$u7b$$u7b$closure$u7d$$u7d$17h5cc67495a829747fE
	movq	%rax, %rcx
	movq	-72(%rbp), %rax
	.loc	25 860 23 is_stmt 0
	movq	%rcx, 8(%rax)
	movq	%rdx, 16(%rax)
	movq	$1, (%rax)
Ltmp408:
LBB60_3:
	.loc	25 862 5 is_stmt 1
	testb	$1, -33(%rbp)
	jne	LBB60_5
LBB60_4:
	.loc	25 0 5 is_stmt 0
	movq	-64(%rbp), %rax
	.loc	25 862 6
	addq	$80, %rsp
	popq	%rbp
	retq
LBB60_5:
	.loc	25 862 5
	jmp	LBB60_4
Ltmp409:
Lfunc_end60:
	.cfi_endproc

	.globl	__ZN4core6result19Result$LT$T$C$E$GT$7map_err17hea52274580ffaa59E
	.p2align	4, 0x90
__ZN4core6result19Result$LT$T$C$E$GT$7map_err17hea52274580ffaa59E:
Lfunc_begin61:
	.loc	25 857 0 is_stmt 1
	.cfi_startproc
	pushq	%rbp
	.cfi_def_cfa_offset 16
	.cfi_offset %rbp, -16
	movq	%rsp, %rbp
	.cfi_def_cfa_register %rbp
	subq	$80, %rsp
	movq	%rcx, -80(%rbp)
	movq	%rdi, -72(%rbp)
	movq	%rdi, -64(%rbp)
	movq	%rsi, -56(%rbp)
	movq	%rdx, -48(%rbp)
	movq	%rcx, -32(%rbp)
Ltmp410:
	.loc	25 858 15 prologue_end
	movb	$1, -33(%rbp)
	movq	-56(%rbp), %rdx
	xorl	%eax, %eax
	movl	$1, %ecx
	cmpq	$0, %rdx
	cmoveq	%rcx, %rax
	.loc	25 858 9 is_stmt 0
	cmpq	$0, %rax
	jne	LBB61_2
	.loc	25 0 9
	movq	-72(%rbp), %rax
	.loc	25 859 16 is_stmt 1
	movq	-56(%rbp), %rdx
	movq	-48(%rbp), %rcx
	movq	%rdx, -16(%rbp)
	movq	%rcx, -8(%rbp)
Ltmp411:
	.loc	25 859 22 is_stmt 0
	movq	%rdx, 8(%rax)
	movq	%rcx, 16(%rax)
	movq	$0, (%rax)
Ltmp412:
	.loc	25 859 26
	jmp	LBB61_3
LBB61_2:
	.loc	25 0 26
	movq	-80(%rbp), %rdi
Ltmp413:
	.loc	25 860 27 is_stmt 1
	movb	$0, -33(%rbp)
	callq	__ZN5alloc7raw_vec11finish_grow28_$u7b$$u7b$closure$u7d$$u7d$17h6c6e7dbdf33c2fc2E
	movq	%rax, %rcx
	movq	-72(%rbp), %rax
	.loc	25 860 23 is_stmt 0
	movq	%rcx, 8(%rax)
	movq	%rdx, 16(%rax)
	movq	$1, (%rax)
Ltmp414:
LBB61_3:
	.loc	25 862 5 is_stmt 1
	testb	$1, -33(%rbp)
	jne	LBB61_5
LBB61_4:
	.loc	25 0 5 is_stmt 0
	movq	-64(%rbp), %rax
	.loc	25 862 6
	addq	$80, %rsp
	popq	%rbp
	retq
LBB61_5:
	.loc	25 862 5
	jmp	LBB61_4
Ltmp415:
Lfunc_end61:
	.cfi_endproc

	.globl	__ZN50_$LT$T$u20$as$u20$core..convert..Into$LT$U$GT$$GT$4into17h0d8af4e4027c736cE
	.p2align	4, 0x90
__ZN50_$LT$T$u20$as$u20$core..convert..Into$LT$U$GT$$GT$4into17h0d8af4e4027c736cE:
Lfunc_begin62:
	.file	26 "/rustc/2c8cc343237b8f7d5a3c3703e3a87f2eb2c54a74/library/core/src/convert" "mod.rs"
	.loc	26 725 0 is_stmt 1
	.cfi_startproc
	pushq	%rbp
	.cfi_def_cfa_offset 16
	.cfi_offset %rbp, -16
	movq	%rsp, %rbp
	.cfi_def_cfa_register %rbp
	subq	$16, %rsp
	movq	%rdi, -16(%rbp)
	movq	%rsi, -8(%rbp)
Ltmp416:
	.loc	26 726 9 prologue_end
	callq	__ZN122_$LT$alloc..collections..TryReserveError$u20$as$u20$core..convert..From$LT$alloc..collections..TryReserveErrorKind$GT$$GT$4from17h2293372e4729f008E
	.loc	26 727 6
	addq	$16, %rsp
	popq	%rbp
	retq
Ltmp417:
Lfunc_end62:
	.cfi_endproc

	.globl	__ZN50_$LT$T$u20$as$u20$core..convert..Into$LT$U$GT$$GT$4into17h96ce23c5a1a6b81eE
	.p2align	4, 0x90
__ZN50_$LT$T$u20$as$u20$core..convert..Into$LT$U$GT$$GT$4into17h96ce23c5a1a6b81eE:
Lfunc_begin63:
	.loc	26 725 0
	.cfi_startproc
	pushq	%rbp
	.cfi_def_cfa_offset 16
	.cfi_offset %rbp, -16
	movq	%rsp, %rbp
	.cfi_def_cfa_register %rbp
	subq	$16, %rsp
	movq	%rdi, -8(%rbp)
Ltmp418:
	.loc	26 726 9 prologue_end
	callq	__ZN119_$LT$core..ptr..non_null..NonNull$LT$T$GT$$u20$as$u20$core..convert..From$LT$core..ptr..unique..Unique$LT$T$GT$$GT$$GT$4from17h3ca58a2df5f087abE
	.loc	26 727 6
	addq	$16, %rsp
	popq	%rbp
	retq
Ltmp419:
Lfunc_end63:
	.cfi_endproc

	.p2align	4, 0x90
__ZN53_$LT$usize$u20$as$u20$alloc..vec..is_zero..IsZero$GT$7is_zero17h09ccb0c788f3ca2eE:
Lfunc_begin64:
	.file	27 "/rustc/2c8cc343237b8f7d5a3c3703e3a87f2eb2c54a74/library/alloc/src/vec" "is_zero.rs"
	.loc	27 16 0
	.cfi_startproc
	pushq	%rbp
	.cfi_def_cfa_offset 16
	.cfi_offset %rbp, -16
	movq	%rsp, %rbp
	.cfi_def_cfa_register %rbp
	subq	$16, %rsp
	movq	%rdi, -8(%rbp)
Ltmp420:
	.loc	27 17 26 prologue_end
	movq	(%rdi), %rax
	.loc	27 17 17 is_stmt 0
	movq	%rax, -16(%rbp)
	movq	-16(%rbp), %rsi
	leaq	l___unnamed_2(%rip), %rdi
	callq	__ZN53_$LT$usize$u20$as$u20$alloc..vec..is_zero..IsZero$GT$7is_zero28_$u7b$$u7b$closure$u7d$$u7d$17h4701346fa25936b9E
	.loc	27 18 14 is_stmt 1
	andb	$1, %al
	movzbl	%al, %eax
	addq	$16, %rsp
	popq	%rbp
	retq
Ltmp421:
Lfunc_end64:
	.cfi_endproc

	.globl	__ZN53_$LT$usize$u20$as$u20$alloc..vec..is_zero..IsZero$GT$7is_zero28_$u7b$$u7b$closure$u7d$$u7d$17h4701346fa25936b9E
	.p2align	4, 0x90
__ZN53_$LT$usize$u20$as$u20$alloc..vec..is_zero..IsZero$GT$7is_zero28_$u7b$$u7b$closure$u7d$$u7d$17h4701346fa25936b9E:
Lfunc_begin65:
	.loc	27 35 0
	.cfi_startproc
	pushq	%rbp
	.cfi_def_cfa_offset 16
	.cfi_offset %rbp, -16
	movq	%rsp, %rbp
	.cfi_def_cfa_register %rbp
	subq	$16, %rsp
	movq	%rdi, -16(%rbp)
	movq	%rsi, -8(%rbp)
Ltmp422:
	.loc	27 35 26 prologue_end
	cmpq	$0, %rsi
	sete	%al
	.loc	27 35 32 is_stmt 0
	andb	$1, %al
	movzbl	%al, %eax
	addq	$16, %rsp
	popq	%rbp
	retq
Ltmp423:
Lfunc_end65:
	.cfi_endproc

	.globl	__ZN5alloc3vec12Vec$LT$T$GT$13with_capacity17h6af9baf4e4f450d4E
	.p2align	4, 0x90
__ZN5alloc3vec12Vec$LT$T$GT$13with_capacity17h6af9baf4e4f450d4E:
Lfunc_begin66:
	.file	28 "/rustc/2c8cc343237b8f7d5a3c3703e3a87f2eb2c54a74/library/alloc/src/vec" "mod.rs"
	.loc	28 482 0 is_stmt 1
	.cfi_startproc
	pushq	%rbp
	.cfi_def_cfa_offset 16
	.cfi_offset %rbp, -16
	movq	%rsp, %rbp
	.cfi_def_cfa_register %rbp
	subq	$80, %rsp
	movq	%rsi, -72(%rbp)
	movq	%rdi, %rax
	movq	-72(%rbp), %rdi
	movq	%rax, -64(%rbp)
	movq	%rax, -56(%rbp)
	movq	%rdi, -40(%rbp)
Ltmp424:
	.loc	28 483 32 prologue_end
	movq	%rdi, -16(%rbp)
Ltmp425:
	.loc	28 676 45
	movq	%rdi, -8(%rbp)
Ltmp426:
	.file	29 "/rustc/2c8cc343237b8f7d5a3c3703e3a87f2eb2c54a74/library/alloc/src" "raw_vec.rs"
	.loc	29 131 37
	movb	$0, -41(%rbp)
	.loc	29 131 9 is_stmt 0
	movb	-41(%rbp), %al
	andb	$1, %al
	movzbl	%al, %esi
	callq	__ZN5alloc7raw_vec19RawVec$LT$T$C$A$GT$11allocate_in17h88122143146ce445E
	movq	-64(%rbp), %rdi
	movq	%rax, %rcx
	movq	-56(%rbp), %rax
Ltmp427:
	.loc	28 676 9 is_stmt 1
	movq	%rcx, (%rdi)
	movq	%rdx, 8(%rdi)
	movq	$0, 16(%rdi)
Ltmp428:
	.loc	28 484 6
	addq	$80, %rsp
	popq	%rbp
	retq
Ltmp429:
Lfunc_end66:
	.cfi_endproc

	.globl	__ZN5alloc3vec12Vec$LT$T$GT$13with_capacity17h8a70f114268a404eE
	.p2align	4, 0x90
__ZN5alloc3vec12Vec$LT$T$GT$13with_capacity17h8a70f114268a404eE:
Lfunc_begin67:
	.loc	28 482 0
	.cfi_startproc
	pushq	%rbp
	.cfi_def_cfa_offset 16
	.cfi_offset %rbp, -16
	movq	%rsp, %rbp
	.cfi_def_cfa_register %rbp
	subq	$80, %rsp
	movq	%rsi, -72(%rbp)
	movq	%rdi, %rax
	movq	-72(%rbp), %rdi
	movq	%rax, -64(%rbp)
	movq	%rax, -56(%rbp)
	movq	%rdi, -40(%rbp)
Ltmp430:
	.loc	28 483 32 prologue_end
	movq	%rdi, -16(%rbp)
Ltmp431:
	.loc	28 676 45
	movq	%rdi, -8(%rbp)
Ltmp432:
	.loc	29 131 37
	movb	$0, -41(%rbp)
	.loc	29 131 9 is_stmt 0
	movb	-41(%rbp), %al
	andb	$1, %al
	movzbl	%al, %esi
	callq	__ZN5alloc7raw_vec19RawVec$LT$T$C$A$GT$11allocate_in17hfa26cf5a98dedbb7E
	movq	-64(%rbp), %rdi
	movq	%rax, %rcx
	movq	-56(%rbp), %rax
Ltmp433:
	.loc	28 676 9 is_stmt 1
	movq	%rcx, (%rdi)
	movq	%rdx, 8(%rdi)
	movq	$0, 16(%rdi)
Ltmp434:
	.loc	28 484 6
	addq	$80, %rsp
	popq	%rbp
	retq
Ltmp435:
Lfunc_end67:
	.cfi_endproc

	.globl	__ZN5alloc3vec12Vec$LT$T$GT$13with_capacity17hc44d2678312c1320E
	.p2align	4, 0x90
__ZN5alloc3vec12Vec$LT$T$GT$13with_capacity17hc44d2678312c1320E:
Lfunc_begin68:
	.loc	28 482 0
	.cfi_startproc
	pushq	%rbp
	.cfi_def_cfa_offset 16
	.cfi_offset %rbp, -16
	movq	%rsp, %rbp
	.cfi_def_cfa_register %rbp
	subq	$80, %rsp
	movq	%rsi, -72(%rbp)
	movq	%rdi, %rax
	movq	-72(%rbp), %rdi
	movq	%rax, -64(%rbp)
	movq	%rax, -56(%rbp)
	movq	%rdi, -40(%rbp)
Ltmp436:
	.loc	28 483 32 prologue_end
	movq	%rdi, -16(%rbp)
Ltmp437:
	.loc	28 676 45
	movq	%rdi, -8(%rbp)
Ltmp438:
	.loc	29 131 37
	movb	$0, -41(%rbp)
	.loc	29 131 9 is_stmt 0
	movb	-41(%rbp), %al
	andb	$1, %al
	movzbl	%al, %esi
	callq	__ZN5alloc7raw_vec19RawVec$LT$T$C$A$GT$11allocate_in17hf4b9675758c31eabE
	movq	-64(%rbp), %rdi
	movq	%rax, %rcx
	movq	-56(%rbp), %rax
Ltmp439:
	.loc	28 676 9 is_stmt 1
	movq	%rcx, (%rdi)
	movq	%rdx, 8(%rdi)
	movq	$0, 16(%rdi)
Ltmp440:
	.loc	28 484 6
	addq	$80, %rsp
	popq	%rbp
	retq
Ltmp441:
Lfunc_end68:
	.cfi_endproc

	.globl	__ZN5alloc3vec12Vec$LT$T$GT$13with_capacity17he954954dbc5c4a71E
	.p2align	4, 0x90
__ZN5alloc3vec12Vec$LT$T$GT$13with_capacity17he954954dbc5c4a71E:
Lfunc_begin69:
	.loc	28 482 0
	.cfi_startproc
	pushq	%rbp
	.cfi_def_cfa_offset 16
	.cfi_offset %rbp, -16
	movq	%rsp, %rbp
	.cfi_def_cfa_register %rbp
	subq	$80, %rsp
	movq	%rsi, -72(%rbp)
	movq	%rdi, %rax
	movq	-72(%rbp), %rdi
	movq	%rax, -64(%rbp)
	movq	%rax, -56(%rbp)
	movq	%rdi, -40(%rbp)
Ltmp442:
	.loc	28 483 32 prologue_end
	movq	%rdi, -16(%rbp)
Ltmp443:
	.loc	28 676 45
	movq	%rdi, -8(%rbp)
Ltmp444:
	.loc	29 131 37
	movb	$0, -41(%rbp)
	.loc	29 131 9 is_stmt 0
	movb	-41(%rbp), %al
	andb	$1, %al
	movzbl	%al, %esi
	callq	__ZN5alloc7raw_vec19RawVec$LT$T$C$A$GT$11allocate_in17hbc80c25778cd0357E
	movq	-64(%rbp), %rdi
	movq	%rax, %rcx
	movq	-56(%rbp), %rax
Ltmp445:
	.loc	28 676 9 is_stmt 1
	movq	%rcx, (%rdi)
	movq	%rdx, 8(%rdi)
	movq	$0, 16(%rdi)
Ltmp446:
	.loc	28 484 6
	addq	$80, %rsp
	popq	%rbp
	retq
Ltmp447:
Lfunc_end69:
	.cfi_endproc

	.globl	__ZN5alloc3vec16Vec$LT$T$C$A$GT$11extend_with17ha821233bfd525323E
	.p2align	4, 0x90
__ZN5alloc3vec16Vec$LT$T$C$A$GT$11extend_with17ha821233bfd525323E:
Lfunc_begin70:
	.loc	28 2503 0
	.cfi_startproc
	.cfi_personality 155, _rust_eh_personality
	.cfi_lsda 16, Lexception10
	pushq	%rbp
	.cfi_def_cfa_offset 16
	.cfi_offset %rbp, -16
	movq	%rsp, %rbp
	.cfi_def_cfa_register %rbp
	subq	$432, %rsp
	movq	%rdi, -352(%rbp)
	movq	%rsi, -344(%rbp)
	movq	%rdx, -336(%rbp)
	movq	%rdi, -224(%rbp)
	movq	%rsi, -216(%rbp)
Ltmp463:
	.loc	28 2504 9 prologue_end
	movb	$1, -233(%rbp)
Ltmp448:
	callq	__ZN5alloc3vec16Vec$LT$T$C$A$GT$7reserve17h1f0ccec7ad91010cE
Ltmp449:
	jmp	LBB70_3
LBB70_1:
	.loc	28 2529 5
	testb	$1, -233(%rbp)
	jne	LBB70_20
	jmp	LBB70_19
LBB70_2:
Ltmp462:
	.loc	28 0 5 is_stmt 0
	movq	%rax, %rcx
	movl	%edx, %eax
	movq	%rcx, -208(%rbp)
	movl	%eax, -200(%rbp)
	jmp	LBB70_1
LBB70_3:
	movq	-352(%rbp), %rax
	.loc	28 2507 27 is_stmt 1
	movq	%rax, -192(%rbp)
Ltmp464:
	.loc	28 1280 19
	movq	%rax, -184(%rbp)
Ltmp465:
	.loc	29 224 9
	movq	8(%rax), %rax
	movq	%rax, -360(%rbp)
	movq	%rax, -176(%rbp)
Ltmp466:
	.loc	6 104 9
	movq	%rax, -168(%rbp)
Ltmp467:
	.loc	5 326 9
	movq	%rax, -160(%rbp)
Ltmp468:
	.loc	28 1282 21
	movq	%rax, -152(%rbp)
Ltmp469:
	.loc	17 52 36
	movq	%rax, -232(%rbp)
	.loc	17 52 18 is_stmt 0
	movq	-232(%rbp), %rax
	movq	%rax, -144(%rbp)
Ltmp470:
	.loc	17 38 13 is_stmt 1
	movq	%rax, -136(%rbp)
Ltmp471:
	.loc	17 215 33
	movq	%rax, -128(%rbp)
	.loc	17 215 18 is_stmt 0
	movq	%rax, -120(%rbp)
	movq	-120(%rbp), %rax
Ltmp472:
	.loc	17 0 18
	movq	-360(%rbp), %rax
	movq	-352(%rbp), %rcx
	.loc	28 2507 49 is_stmt 1
	movq	%rcx, -112(%rbp)
Ltmp473:
	.loc	28 2062 9
	movq	16(%rcx), %rcx
	movq	%rcx, -104(%rbp)
Ltmp474:
	.loc	17 1034 18
	movq	%rax, -96(%rbp)
	.loc	17 1034 30 is_stmt 0
	movq	%rcx, -88(%rbp)
Ltmp475:
	.loc	17 487 18 is_stmt 1
	shlq	$3, %rcx
	addq	%rcx, %rax
	movq	%rax, -80(%rbp)
	movq	-80(%rbp), %rax
	movq	%rax, -368(%rbp)
	.loc	17 0 18 is_stmt 0
	movq	-344(%rbp), %rax
	movq	-352(%rbp), %rcx
	movq	-368(%rbp), %rdx
	.loc	17 487 18
	movq	%rdx, -328(%rbp)
Ltmp476:
	.loc	28 2511 51 is_stmt 1
	movq	%rcx, %rdx
	addq	$16, %rdx
	movq	%rdx, -72(%rbp)
Ltmp477:
	.file	30 "/rustc/2c8cc343237b8f7d5a3c3703e3a87f2eb2c54a74/library/alloc/src/vec" "set_len_on_drop.rs"
	.loc	30 14 35
	movq	16(%rcx), %rcx
	.loc	30 14 9 is_stmt 0
	movq	%rdx, -312(%rbp)
	movq	%rcx, -320(%rbp)
Ltmp478:
	.loc	28 2514 22 is_stmt 1
	movq	$1, -304(%rbp)
	movq	%rax, -296(%rbp)
Ltmp479:
	.file	31 "/rustc/2c8cc343237b8f7d5a3c3703e3a87f2eb2c54a74/library/core/src/iter/traits" "collect.rs"
	.loc	31 273 9
	movq	-304(%rbp), %rcx
	movq	-296(%rbp), %rax
Ltmp480:
	.loc	28 2514 22
	movq	%rcx, -288(%rbp)
	movq	%rax, -280(%rbp)
LBB70_6:
	.loc	28 0 22 is_stmt 0
	leaq	-288(%rbp), %rdi
Ltmp481:
	.loc	28 2514 22
	movq	%rdi, -64(%rbp)
Ltmp450:
Ltmp482:
	.loc	9 711 9 is_stmt 1
	callq	__ZN89_$LT$core..ops..range..Range$LT$T$GT$$u20$as$u20$core..iter..range..RangeIteratorImpl$GT$9spec_next17ha63932d7af2458c3E
Ltmp451:
	movq	%rdx, -384(%rbp)
	movq	%rax, -376(%rbp)
	jmp	LBB70_9
Ltmp483:
LBB70_7:
Ltmp457:
	.loc	9 0 9 is_stmt 0
	leaq	-320(%rbp), %rdi
	.loc	28 2528 9 is_stmt 1
	callq	__ZN4core3ptr62drop_in_place$LT$alloc..vec..set_len_on_drop..SetLenOnDrop$GT$17hd4c090331f4e6c99E
Ltmp458:
	jmp	LBB70_1
LBB70_8:
Ltmp456:
	.loc	28 0 9 is_stmt 0
	movq	%rax, %rcx
	movl	%edx, %eax
	movq	%rcx, -208(%rbp)
	movl	%eax, -200(%rbp)
	jmp	LBB70_7
LBB70_9:
	movq	-384(%rbp), %rax
	movq	-376(%rbp), %rcx
Ltmp484:
	.loc	9 711 9 is_stmt 1
	movq	%rcx, -272(%rbp)
	movq	%rax, -264(%rbp)
Ltmp485:
	.loc	28 2514 22
	cmpq	$0, -272(%rbp)
	jne	LBB70_11
Ltmp486:
	.loc	28 0 22 is_stmt 0
	movq	-344(%rbp), %rax
	.loc	28 2521 16 is_stmt 1
	cmpq	$0, %rax
	ja	LBB70_15
	jmp	LBB70_14
LBB70_11:
Ltmp487:
	.loc	28 2515 28
	movq	-328(%rbp), %rax
	movq	%rax, -400(%rbp)
	movq	%rax, -56(%rbp)
Ltmp452:
	leaq	-336(%rbp), %rdi
	.loc	28 2515 33 is_stmt 0
	callq	__ZN86_$LT$alloc..vec..ExtendElement$LT$T$GT$$u20$as$u20$alloc..vec..ExtendWith$LT$T$GT$$GT$4next17h932e2e9978da1a5dE
Ltmp453:
	movq	%rax, -392(%rbp)
	jmp	LBB70_12
LBB70_12:
	.loc	28 0 33
	movq	-400(%rbp), %rax
	movq	-392(%rbp), %rcx
	.loc	28 2515 33
	movq	%rcx, -256(%rbp)
Ltmp488:
	.loc	3 1354 9 is_stmt 1
	movq	-256(%rbp), %rcx
	movq	%rcx, (%rax)
Ltmp489:
	.loc	28 2516 23
	movq	-328(%rbp), %rax
	movq	%rax, -48(%rbp)
Ltmp490:
	.loc	17 1034 18
	movq	%rax, -40(%rbp)
Ltmp491:
	.loc	17 487 18
	addq	$8, %rax
	movq	%rax, -32(%rbp)
	movq	-32(%rbp), %rax
	movq	%rax, -408(%rbp)
Ltmp492:
	.loc	17 0 18 is_stmt 0
	movq	-408(%rbp), %rax
	.loc	28 2516 17 is_stmt 1
	movq	%rax, -328(%rbp)
	.loc	28 2518 17
	leaq	-320(%rbp), %rax
	movq	%rax, -24(%rbp)
Ltmp493:
	.loc	30 19 9
	movq	-320(%rbp), %rax
	addq	$1, %rax
	movq	%rax, -320(%rbp)
Ltmp494:
	.loc	28 2514 13
	jmp	LBB70_6
Ltmp495:
LBB70_14:
Ltmp460:
	.loc	28 0 13 is_stmt 0
	leaq	-320(%rbp), %rdi
	.loc	28 2528 9 is_stmt 1
	callq	__ZN4core3ptr62drop_in_place$LT$alloc..vec..set_len_on_drop..SetLenOnDrop$GT$17hd4c090331f4e6c99E
Ltmp461:
	jmp	LBB70_18
LBB70_15:
Ltmp496:
	.loc	28 2523 28
	movq	-328(%rbp), %rax
	movq	%rax, -424(%rbp)
	movq	%rax, -16(%rbp)
	.loc	28 2523 33 is_stmt 0
	movb	$0, -233(%rbp)
	movq	-336(%rbp), %rdi
Ltmp454:
	callq	__ZN86_$LT$alloc..vec..ExtendElement$LT$T$GT$$u20$as$u20$alloc..vec..ExtendWith$LT$T$GT$$GT$4last17h8060e62a58d83ec2E
Ltmp455:
	movq	%rax, -416(%rbp)
	jmp	LBB70_16
LBB70_16:
	.loc	28 0 33
	movq	-424(%rbp), %rax
	movq	-416(%rbp), %rcx
	.loc	28 2523 33
	movq	%rcx, -248(%rbp)
Ltmp497:
	.loc	3 1354 9 is_stmt 1
	movq	-248(%rbp), %rcx
	movq	%rcx, (%rax)
Ltmp498:
	.loc	28 2524 17
	leaq	-320(%rbp), %rax
	movq	%rax, -8(%rbp)
Ltmp499:
	.loc	30 19 9
	movq	-320(%rbp), %rax
	addq	$1, %rax
	movq	%rax, -320(%rbp)
Ltmp500:
	.loc	28 2521 13
	jmp	LBB70_14
Ltmp501:
LBB70_17:
Ltmp459:
	.loc	28 2503 5
	callq	__ZN4core9panicking19panic_cannot_unwind17h1fbca7e1d7f56ae1E
LBB70_18:
	.loc	28 2529 5
	testb	$1, -233(%rbp)
	jne	LBB70_22
	jmp	LBB70_21
LBB70_19:
	.loc	28 2503 5
	movq	-208(%rbp), %rdi
	callq	__Unwind_Resume
LBB70_20:
	.loc	28 2529 5
	jmp	LBB70_19
LBB70_21:
	.loc	28 2529 6 is_stmt 0
	addq	$432, %rsp
	popq	%rbp
	retq
LBB70_22:
	.loc	28 2529 5
	jmp	LBB70_21
Ltmp502:
Lfunc_end70:
	.cfi_endproc
	.section	__TEXT,__gcc_except_tab
	.p2align	2
GCC_except_table70:
Lexception10:
	.byte	255
	.byte	255
	.byte	1
	.uleb128 Lcst_end10-Lcst_begin10
Lcst_begin10:
	.uleb128 Ltmp448-Lfunc_begin70
	.uleb128 Ltmp449-Ltmp448
	.uleb128 Ltmp462-Lfunc_begin70
	.byte	0
	.uleb128 Ltmp450-Lfunc_begin70
	.uleb128 Ltmp451-Ltmp450
	.uleb128 Ltmp456-Lfunc_begin70
	.byte	0
	.uleb128 Ltmp457-Lfunc_begin70
	.uleb128 Ltmp458-Ltmp457
	.uleb128 Ltmp459-Lfunc_begin70
	.byte	0
	.uleb128 Ltmp452-Lfunc_begin70
	.uleb128 Ltmp453-Ltmp452
	.uleb128 Ltmp456-Lfunc_begin70
	.byte	0
	.uleb128 Ltmp460-Lfunc_begin70
	.uleb128 Ltmp461-Ltmp460
	.uleb128 Ltmp462-Lfunc_begin70
	.byte	0
	.uleb128 Ltmp454-Lfunc_begin70
	.uleb128 Ltmp455-Ltmp454
	.uleb128 Ltmp456-Lfunc_begin70
	.byte	0
	.uleb128 Ltmp455-Lfunc_begin70
	.uleb128 Lfunc_end70-Ltmp455
	.byte	0
	.byte	0
Lcst_end10:
	.p2align	2

	.section	__TEXT,__text,regular,pure_instructions
	.globl	__ZN5alloc3vec16Vec$LT$T$C$A$GT$4push17h03415699256fc937E
	.p2align	4, 0x90
__ZN5alloc3vec16Vec$LT$T$C$A$GT$4push17h03415699256fc937E:
Lfunc_begin71:
	.loc	28 1836 0 is_stmt 1
	.cfi_startproc
	.cfi_personality 155, _rust_eh_personality
	.cfi_lsda 16, Lexception11
	pushq	%rbp
	.cfi_def_cfa_offset 16
	.cfi_offset %rbp, -16
	movq	%rsp, %rbp
	.cfi_def_cfa_register %rbp
	subq	$240, %rsp
	movq	%rdi, -216(%rbp)
	movb	%sil, %al
	movb	%al, -201(%rbp)
	movq	%rdi, -168(%rbp)
	movb	%al, -153(%rbp)
Ltmp506:
	.loc	28 1839 12 prologue_end
	movq	16(%rdi), %rax
	movq	%rax, -200(%rbp)
	.loc	28 1839 24 is_stmt 0
	movq	%rdi, -152(%rbp)
Ltmp507:
	.loc	29 232 12 is_stmt 1
	xorl	%eax, %eax
	testb	$1, %al
	jne	LBB71_2
	.loc	29 0 12 is_stmt 0
	movq	-216(%rbp), %rax
	.loc	29 232 44
	movq	(%rax), %rax
	movq	%rax, -192(%rbp)
	.loc	29 232 9
	jmp	LBB71_3
LBB71_2:
	.loc	29 232 24
	movq	$-1, -192(%rbp)
Ltmp508:
LBB71_3:
	.loc	29 0 24
	movq	-200(%rbp), %rax
	.loc	28 1839 12 is_stmt 1
	cmpq	-192(%rbp), %rax
	je	LBB71_5
LBB71_4:
	.loc	28 0 12 is_stmt 0
	movq	-216(%rbp), %rax
	.loc	28 1843 23 is_stmt 1
	movq	%rax, -128(%rbp)
Ltmp509:
	.loc	28 1280 19
	movq	%rax, -120(%rbp)
Ltmp510:
	.loc	29 224 9
	movq	8(%rax), %rax
	movq	%rax, -224(%rbp)
	movq	%rax, -112(%rbp)
Ltmp511:
	.loc	6 104 9
	movq	%rax, -104(%rbp)
Ltmp512:
	.loc	5 326 9
	movq	%rax, -96(%rbp)
Ltmp513:
	.loc	28 1282 21
	movq	%rax, -88(%rbp)
Ltmp514:
	.loc	17 52 36
	movq	%rax, -176(%rbp)
	.loc	17 52 18 is_stmt 0
	movq	-176(%rbp), %rax
	movq	%rax, -80(%rbp)
Ltmp515:
	.loc	17 38 13 is_stmt 1
	movq	%rax, -72(%rbp)
Ltmp516:
	.loc	17 215 33
	movq	%rax, -64(%rbp)
	.loc	17 215 18 is_stmt 0
	movq	%rax, -56(%rbp)
	movq	-56(%rbp), %rax
	jmp	LBB71_9
Ltmp517:
LBB71_5:
	.loc	17 0 18
	movq	-216(%rbp), %rdi
	.loc	28 1840 39 is_stmt 1
	movq	16(%rdi), %rsi
Ltmp503:
	.loc	28 1840 13 is_stmt 0
	callq	__ZN5alloc7raw_vec19RawVec$LT$T$C$A$GT$16reserve_for_push17h897a729034ac680eE
Ltmp504:
	jmp	LBB71_8
LBB71_6:
	.loc	28 1847 5 is_stmt 1
	movb	$1, %al
	testb	$1, %al
	jne	LBB71_12
	jmp	LBB71_11
LBB71_7:
Ltmp505:
	.loc	28 0 5 is_stmt 0
	movq	%rax, %rcx
	movl	%edx, %eax
	movq	%rcx, -144(%rbp)
	movl	%eax, -136(%rbp)
	jmp	LBB71_6
LBB71_8:
	.loc	28 1839 9 is_stmt 1
	jmp	LBB71_4
LBB71_9:
	.loc	28 0 9 is_stmt 0
	movq	-224(%rbp), %rax
	movq	-216(%rbp), %rcx
	.loc	28 1843 45 is_stmt 1
	movq	16(%rcx), %rcx
	movq	%rcx, -48(%rbp)
Ltmp518:
	.loc	17 1034 18
	movq	%rax, -40(%rbp)
	.loc	17 1034 30 is_stmt 0
	movq	%rcx, -32(%rbp)
Ltmp519:
	.loc	17 487 18 is_stmt 1
	addq	%rcx, %rax
	movq	%rax, -24(%rbp)
	movq	-24(%rbp), %rax
	movq	%rax, -232(%rbp)
	.loc	17 0 18 is_stmt 0
	movq	-216(%rbp), %rax
	movq	-232(%rbp), %rcx
	movb	-201(%rbp), %dl
	.loc	17 487 18
	movq	%rcx, -16(%rbp)
Ltmp520:
	.loc	28 1844 24 is_stmt 1
	movq	%rcx, -8(%rbp)
	.loc	28 1844 29 is_stmt 0
	movb	%dl, -177(%rbp)
Ltmp521:
	.loc	3 1354 9 is_stmt 1
	movb	-177(%rbp), %dl
	movb	%dl, (%rcx)
Ltmp522:
	.loc	28 1845 13
	movq	16(%rax), %rcx
	addq	$1, %rcx
	movq	%rcx, 16(%rax)
Ltmp523:
	.loc	28 1847 6
	addq	$240, %rsp
	popq	%rbp
	retq
LBB71_11:
	.loc	28 1836 5
	movq	-144(%rbp), %rdi
	callq	__Unwind_Resume
LBB71_12:
	.loc	28 1847 5
	jmp	LBB71_11
Ltmp524:
Lfunc_end71:
	.cfi_endproc
	.section	__TEXT,__gcc_except_tab
	.p2align	2
GCC_except_table71:
Lexception11:
	.byte	255
	.byte	255
	.byte	1
	.uleb128 Lcst_end11-Lcst_begin11
Lcst_begin11:
	.uleb128 Ltmp503-Lfunc_begin71
	.uleb128 Ltmp504-Ltmp503
	.uleb128 Ltmp505-Lfunc_begin71
	.byte	0
	.uleb128 Ltmp504-Lfunc_begin71
	.uleb128 Lfunc_end71-Ltmp504
	.byte	0
	.byte	0
Lcst_end11:
	.p2align	2

	.section	__TEXT,__text,regular,pure_instructions
	.globl	__ZN5alloc3vec16Vec$LT$T$C$A$GT$4push17h284aa7a0cd9d949bE
	.p2align	4, 0x90
__ZN5alloc3vec16Vec$LT$T$C$A$GT$4push17h284aa7a0cd9d949bE:
Lfunc_begin72:
	.loc	28 1836 0
	.cfi_startproc
	.cfi_personality 155, _rust_eh_personality
	.cfi_lsda 16, Lexception12
	pushq	%rbp
	.cfi_def_cfa_offset 16
	.cfi_offset %rbp, -16
	movq	%rsp, %rbp
	.cfi_def_cfa_register %rbp
	subq	$240, %rsp
	movq	%rdi, -216(%rbp)
	movq	%rsi, -208(%rbp)
Ltmp528:
	movq	%rdi, -160(%rbp)
Ltmp529:
	.loc	28 1839 12 prologue_end
	movq	16(%rdi), %rax
	movq	%rax, -200(%rbp)
	.loc	28 1839 24 is_stmt 0
	movq	%rdi, -152(%rbp)
Ltmp530:
	.loc	29 232 12 is_stmt 1
	xorl	%eax, %eax
	testb	$1, %al
Ltmp531:
	jne	LBB72_2
Ltmp532:
	.loc	29 0 12 is_stmt 0
	movq	-216(%rbp), %rax
	.loc	29 232 44
	movq	(%rax), %rax
	movq	%rax, -192(%rbp)
	.loc	29 232 9
	jmp	LBB72_3
Ltmp533:
LBB72_2:
	.loc	29 232 24
	movq	$-1, -192(%rbp)
Ltmp534:
LBB72_3:
	.loc	29 0 24
	movq	-200(%rbp), %rax
	.loc	28 1839 12 is_stmt 1
	cmpq	-192(%rbp), %rax
	je	LBB72_5
Ltmp535:
LBB72_4:
	.loc	28 0 12 is_stmt 0
	movq	-216(%rbp), %rax
	.loc	28 1843 23 is_stmt 1
	movq	%rax, -128(%rbp)
Ltmp536:
	.loc	28 1280 19
	movq	%rax, -120(%rbp)
Ltmp537:
	.loc	29 224 9
	movq	8(%rax), %rax
	movq	%rax, -224(%rbp)
	movq	%rax, -112(%rbp)
Ltmp538:
	.loc	6 104 9
	movq	%rax, -104(%rbp)
Ltmp539:
	.loc	5 326 9
	movq	%rax, -96(%rbp)
Ltmp540:
	.loc	28 1282 21
	movq	%rax, -88(%rbp)
Ltmp541:
	.loc	17 52 36
	movq	%rax, -168(%rbp)
	.loc	17 52 18 is_stmt 0
	movq	-168(%rbp), %rax
	movq	%rax, -80(%rbp)
Ltmp542:
	.loc	17 38 13 is_stmt 1
	movq	%rax, -72(%rbp)
Ltmp543:
	.loc	17 215 33
	movq	%rax, -64(%rbp)
	.loc	17 215 18 is_stmt 0
	movq	%rax, -56(%rbp)
	movq	-56(%rbp), %rax
	jmp	LBB72_9
Ltmp544:
LBB72_5:
	.loc	17 0 18
	movq	-216(%rbp), %rdi
	.loc	28 1840 39 is_stmt 1
	movq	16(%rdi), %rsi
Ltmp525:
	.loc	28 1840 13 is_stmt 0
	callq	__ZN5alloc7raw_vec19RawVec$LT$T$C$A$GT$16reserve_for_push17h905ec18a2c592a7fE
Ltmp526:
	jmp	LBB72_8
Ltmp545:
LBB72_6:
	.loc	28 1847 5 is_stmt 1
	movb	$1, %al
	testb	$1, %al
	jne	LBB72_12
	jmp	LBB72_11
Ltmp546:
LBB72_7:
Ltmp527:
	.loc	28 0 5 is_stmt 0
	movq	%rax, %rcx
	movl	%edx, %eax
	movq	%rcx, -144(%rbp)
	movl	%eax, -136(%rbp)
	jmp	LBB72_6
Ltmp547:
LBB72_8:
	.loc	28 1839 9 is_stmt 1
	jmp	LBB72_4
Ltmp548:
LBB72_9:
	.loc	28 0 9 is_stmt 0
	movq	-224(%rbp), %rax
	movq	-216(%rbp), %rcx
	.loc	28 1843 45 is_stmt 1
	movq	16(%rcx), %rcx
	movq	%rcx, -48(%rbp)
Ltmp549:
	.loc	17 1034 18
	movq	%rax, -40(%rbp)
	.loc	17 1034 30 is_stmt 0
	movq	%rcx, -32(%rbp)
Ltmp550:
	.loc	17 487 18 is_stmt 1
	shlq	$4, %rcx
	addq	%rcx, %rax
	movq	%rax, -24(%rbp)
	movq	-24(%rbp), %rax
	movq	%rax, -232(%rbp)
Ltmp551:
	.loc	17 0 18 is_stmt 0
	movq	-216(%rbp), %rax
	movq	-232(%rbp), %rcx
	movq	-208(%rbp), %rdx
	.loc	17 487 18
	movq	%rcx, -16(%rbp)
Ltmp552:
	.loc	28 1844 24 is_stmt 1
	movq	%rcx, -8(%rbp)
	.loc	28 1844 29 is_stmt 0
	movq	(%rdx), %rsi
	movq	%rsi, -184(%rbp)
	movq	8(%rdx), %rdx
	movq	%rdx, -176(%rbp)
Ltmp553:
	.loc	3 1354 9 is_stmt 1
	movq	-184(%rbp), %rdx
	movq	%rdx, (%rcx)
	movq	-176(%rbp), %rdx
	movq	%rdx, 8(%rcx)
Ltmp554:
	.loc	28 1845 13
	movq	16(%rax), %rcx
	addq	$1, %rcx
	movq	%rcx, 16(%rax)
Ltmp555:
	.loc	28 1847 6
	addq	$240, %rsp
	popq	%rbp
	retq
Ltmp556:
LBB72_11:
	.loc	28 1836 5
	movq	-144(%rbp), %rdi
	callq	__Unwind_Resume
Ltmp557:
LBB72_12:
	.loc	28 1847 5
	jmp	LBB72_11
Ltmp558:
Lfunc_end72:
	.cfi_endproc
	.section	__TEXT,__gcc_except_tab
	.p2align	2
GCC_except_table72:
Lexception12:
	.byte	255
	.byte	255
	.byte	1
	.uleb128 Lcst_end12-Lcst_begin12
Lcst_begin12:
	.uleb128 Ltmp525-Lfunc_begin72
	.uleb128 Ltmp526-Ltmp525
	.uleb128 Ltmp527-Lfunc_begin72
	.byte	0
	.uleb128 Ltmp526-Lfunc_begin72
	.uleb128 Lfunc_end72-Ltmp526
	.byte	0
	.byte	0
Lcst_end12:
	.p2align	2

	.section	__TEXT,__text,regular,pure_instructions
	.globl	__ZN5alloc3vec16Vec$LT$T$C$A$GT$4push17h3d71452d54d815acE
	.p2align	4, 0x90
__ZN5alloc3vec16Vec$LT$T$C$A$GT$4push17h3d71452d54d815acE:
Lfunc_begin73:
	.loc	28 1836 0
	.cfi_startproc
	.cfi_personality 155, _rust_eh_personality
	.cfi_lsda 16, Lexception13
	pushq	%rbp
	.cfi_def_cfa_offset 16
	.cfi_offset %rbp, -16
	movq	%rsp, %rbp
	.cfi_def_cfa_register %rbp
	subq	$240, %rsp
	movq	%rdi, -216(%rbp)
	movsd	%xmm0, -208(%rbp)
	movq	%rdi, -168(%rbp)
	movsd	%xmm0, -160(%rbp)
Ltmp562:
	.loc	28 1839 12 prologue_end
	movq	16(%rdi), %rax
	movq	%rax, -200(%rbp)
	.loc	28 1839 24 is_stmt 0
	movq	%rdi, -152(%rbp)
Ltmp563:
	.loc	29 232 12 is_stmt 1
	xorl	%eax, %eax
	testb	$1, %al
	jne	LBB73_2
	.loc	29 0 12 is_stmt 0
	movq	-216(%rbp), %rax
	.loc	29 232 44
	movq	(%rax), %rax
	movq	%rax, -192(%rbp)
	.loc	29 232 9
	jmp	LBB73_3
LBB73_2:
	.loc	29 232 24
	movq	$-1, -192(%rbp)
Ltmp564:
LBB73_3:
	.loc	29 0 24
	movq	-200(%rbp), %rax
	.loc	28 1839 12 is_stmt 1
	cmpq	-192(%rbp), %rax
	je	LBB73_5
LBB73_4:
	.loc	28 0 12 is_stmt 0
	movq	-216(%rbp), %rax
	.loc	28 1843 23 is_stmt 1
	movq	%rax, -128(%rbp)
Ltmp565:
	.loc	28 1280 19
	movq	%rax, -120(%rbp)
Ltmp566:
	.loc	29 224 9
	movq	8(%rax), %rax
	movq	%rax, -224(%rbp)
	movq	%rax, -112(%rbp)
Ltmp567:
	.loc	6 104 9
	movq	%rax, -104(%rbp)
Ltmp568:
	.loc	5 326 9
	movq	%rax, -96(%rbp)
Ltmp569:
	.loc	28 1282 21
	movq	%rax, -88(%rbp)
Ltmp570:
	.loc	17 52 36
	movq	%rax, -176(%rbp)
	.loc	17 52 18 is_stmt 0
	movq	-176(%rbp), %rax
	movq	%rax, -80(%rbp)
Ltmp571:
	.loc	17 38 13 is_stmt 1
	movq	%rax, -72(%rbp)
Ltmp572:
	.loc	17 215 33
	movq	%rax, -64(%rbp)
	.loc	17 215 18 is_stmt 0
	movq	%rax, -56(%rbp)
	movq	-56(%rbp), %rax
	jmp	LBB73_9
Ltmp573:
LBB73_5:
	.loc	17 0 18
	movq	-216(%rbp), %rdi
	.loc	28 1840 39 is_stmt 1
	movq	16(%rdi), %rsi
Ltmp559:
	.loc	28 1840 13 is_stmt 0
	callq	__ZN5alloc7raw_vec19RawVec$LT$T$C$A$GT$16reserve_for_push17h97b6daae138b0f82E
Ltmp560:
	jmp	LBB73_8
LBB73_6:
	.loc	28 1847 5 is_stmt 1
	movb	$1, %al
	testb	$1, %al
	jne	LBB73_12
	jmp	LBB73_11
LBB73_7:
Ltmp561:
	.loc	28 0 5 is_stmt 0
	movq	%rax, %rcx
	movl	%edx, %eax
	movq	%rcx, -144(%rbp)
	movl	%eax, -136(%rbp)
	jmp	LBB73_6
LBB73_8:
	.loc	28 1839 9 is_stmt 1
	jmp	LBB73_4
LBB73_9:
	.loc	28 0 9 is_stmt 0
	movq	-224(%rbp), %rax
	movq	-216(%rbp), %rcx
	.loc	28 1843 45 is_stmt 1
	movq	16(%rcx), %rcx
	movq	%rcx, -48(%rbp)
Ltmp574:
	.loc	17 1034 18
	movq	%rax, -40(%rbp)
	.loc	17 1034 30 is_stmt 0
	movq	%rcx, -32(%rbp)
Ltmp575:
	.loc	17 487 18 is_stmt 1
	shlq	$3, %rcx
	addq	%rcx, %rax
	movq	%rax, -24(%rbp)
	movq	-24(%rbp), %rax
	movq	%rax, -232(%rbp)
	.loc	17 0 18 is_stmt 0
	movq	-216(%rbp), %rax
	movq	-232(%rbp), %rcx
	movsd	-208(%rbp), %xmm0
	.loc	17 487 18
	movq	%rcx, -16(%rbp)
Ltmp576:
	.loc	28 1844 24 is_stmt 1
	movq	%rcx, -8(%rbp)
	.loc	28 1844 29 is_stmt 0
	movsd	%xmm0, -184(%rbp)
Ltmp577:
	.loc	3 1354 9 is_stmt 1
	movq	-184(%rbp), %rdx
	movq	%rdx, (%rcx)
Ltmp578:
	.loc	28 1845 13
	movq	16(%rax), %rcx
	addq	$1, %rcx
	movq	%rcx, 16(%rax)
Ltmp579:
	.loc	28 1847 6
	addq	$240, %rsp
	popq	%rbp
	retq
LBB73_11:
	.loc	28 1836 5
	movq	-144(%rbp), %rdi
	callq	__Unwind_Resume
LBB73_12:
	.loc	28 1847 5
	jmp	LBB73_11
Ltmp580:
Lfunc_end73:
	.cfi_endproc
	.section	__TEXT,__gcc_except_tab
	.p2align	2
GCC_except_table73:
Lexception13:
	.byte	255
	.byte	255
	.byte	1
	.uleb128 Lcst_end13-Lcst_begin13
Lcst_begin13:
	.uleb128 Ltmp559-Lfunc_begin73
	.uleb128 Ltmp560-Ltmp559
	.uleb128 Ltmp561-Lfunc_begin73
	.byte	0
	.uleb128 Ltmp560-Lfunc_begin73
	.uleb128 Lfunc_end73-Ltmp560
	.byte	0
	.byte	0
Lcst_end13:
	.p2align	2

	.section	__TEXT,__text,regular,pure_instructions
	.globl	__ZN5alloc3vec16Vec$LT$T$C$A$GT$4push17ha54964ee4df7ec94E
	.p2align	4, 0x90
__ZN5alloc3vec16Vec$LT$T$C$A$GT$4push17ha54964ee4df7ec94E:
Lfunc_begin74:
	.loc	28 1836 0
	.cfi_startproc
	.cfi_personality 155, _rust_eh_personality
	.cfi_lsda 16, Lexception14
	pushq	%rbp
	.cfi_def_cfa_offset 16
	.cfi_offset %rbp, -16
	movq	%rsp, %rbp
	.cfi_def_cfa_register %rbp
	subq	$256, %rsp
	movq	%rdi, -232(%rbp)
	movq	%rsi, -224(%rbp)
Ltmp584:
	movq	%rdi, -160(%rbp)
Ltmp585:
	.loc	28 1839 12 prologue_end
	movq	16(%rdi), %rax
	movq	%rax, -216(%rbp)
	.loc	28 1839 24 is_stmt 0
	movq	%rdi, -152(%rbp)
Ltmp586:
	.loc	29 232 12 is_stmt 1
	xorl	%eax, %eax
	testb	$1, %al
Ltmp587:
	jne	LBB74_2
Ltmp588:
	.loc	29 0 12 is_stmt 0
	movq	-232(%rbp), %rax
	.loc	29 232 44
	movq	(%rax), %rax
	movq	%rax, -208(%rbp)
	.loc	29 232 9
	jmp	LBB74_3
Ltmp589:
LBB74_2:
	.loc	29 232 24
	movq	$-1, -208(%rbp)
Ltmp590:
LBB74_3:
	.loc	29 0 24
	movq	-216(%rbp), %rax
	.loc	28 1839 12 is_stmt 1
	cmpq	-208(%rbp), %rax
	je	LBB74_5
Ltmp591:
LBB74_4:
	.loc	28 0 12 is_stmt 0
	movq	-232(%rbp), %rax
	.loc	28 1843 23 is_stmt 1
	movq	%rax, -128(%rbp)
Ltmp592:
	.loc	28 1280 19
	movq	%rax, -120(%rbp)
Ltmp593:
	.loc	29 224 9
	movq	8(%rax), %rax
	movq	%rax, -240(%rbp)
	movq	%rax, -112(%rbp)
Ltmp594:
	.loc	6 104 9
	movq	%rax, -104(%rbp)
Ltmp595:
	.loc	5 326 9
	movq	%rax, -96(%rbp)
Ltmp596:
	.loc	28 1282 21
	movq	%rax, -88(%rbp)
Ltmp597:
	.loc	17 52 36
	movq	%rax, -168(%rbp)
	.loc	17 52 18 is_stmt 0
	movq	-168(%rbp), %rax
	movq	%rax, -80(%rbp)
Ltmp598:
	.loc	17 38 13 is_stmt 1
	movq	%rax, -72(%rbp)
Ltmp599:
	.loc	17 215 33
	movq	%rax, -64(%rbp)
	.loc	17 215 18 is_stmt 0
	movq	%rax, -56(%rbp)
	movq	-56(%rbp), %rax
	jmp	LBB74_9
Ltmp600:
LBB74_5:
	.loc	17 0 18
	movq	-232(%rbp), %rdi
	.loc	28 1840 39 is_stmt 1
	movq	16(%rdi), %rsi
Ltmp581:
	.loc	28 1840 13 is_stmt 0
	callq	__ZN5alloc7raw_vec19RawVec$LT$T$C$A$GT$16reserve_for_push17h00e03c238d58ec38E
Ltmp582:
	jmp	LBB74_8
Ltmp601:
LBB74_6:
	.loc	28 1847 5 is_stmt 1
	movb	$1, %al
	testb	$1, %al
	jne	LBB74_12
	jmp	LBB74_11
Ltmp602:
LBB74_7:
Ltmp583:
	.loc	28 0 5 is_stmt 0
	movq	%rax, %rcx
	movl	%edx, %eax
	movq	%rcx, -144(%rbp)
	movl	%eax, -136(%rbp)
	jmp	LBB74_6
Ltmp603:
LBB74_8:
	.loc	28 1839 9 is_stmt 1
	jmp	LBB74_4
Ltmp604:
LBB74_9:
	.loc	28 0 9 is_stmt 0
	movq	-240(%rbp), %rax
	movq	-232(%rbp), %rcx
	.loc	28 1843 45 is_stmt 1
	movq	16(%rcx), %rcx
	movq	%rcx, -48(%rbp)
Ltmp605:
	.loc	17 1034 18
	movq	%rax, -40(%rbp)
	.loc	17 1034 30 is_stmt 0
	movq	%rcx, -32(%rbp)
Ltmp606:
	.loc	17 487 18 is_stmt 1
	shlq	$5, %rcx
	addq	%rcx, %rax
	movq	%rax, -24(%rbp)
	movq	-24(%rbp), %rax
	movq	%rax, -248(%rbp)
Ltmp607:
	.loc	17 0 18 is_stmt 0
	movq	-232(%rbp), %rax
	movq	-248(%rbp), %rcx
	movq	-224(%rbp), %rdx
	.loc	17 487 18
	movq	%rcx, -16(%rbp)
Ltmp608:
	.loc	28 1844 24 is_stmt 1
	movq	%rcx, -8(%rbp)
	.loc	28 1844 29 is_stmt 0
	movq	(%rdx), %rsi
	movq	%rsi, -200(%rbp)
	movq	8(%rdx), %rsi
	movq	%rsi, -192(%rbp)
	movq	16(%rdx), %rsi
	movq	%rsi, -184(%rbp)
	movq	24(%rdx), %rdx
	movq	%rdx, -176(%rbp)
Ltmp609:
	.loc	3 1354 9 is_stmt 1
	movq	-200(%rbp), %rdx
	movq	%rdx, (%rcx)
	movq	-192(%rbp), %rdx
	movq	%rdx, 8(%rcx)
	movq	-184(%rbp), %rdx
	movq	%rdx, 16(%rcx)
	movq	-176(%rbp), %rdx
	movq	%rdx, 24(%rcx)
Ltmp610:
	.loc	28 1845 13
	movq	16(%rax), %rcx
	addq	$1, %rcx
	movq	%rcx, 16(%rax)
Ltmp611:
	.loc	28 1847 6
	addq	$256, %rsp
	popq	%rbp
	retq
Ltmp612:
LBB74_11:
	.loc	28 1836 5
	movq	-144(%rbp), %rdi
	callq	__Unwind_Resume
Ltmp613:
LBB74_12:
	.loc	28 1847 5
	jmp	LBB74_11
Ltmp614:
Lfunc_end74:
	.cfi_endproc
	.section	__TEXT,__gcc_except_tab
	.p2align	2
GCC_except_table74:
Lexception14:
	.byte	255
	.byte	255
	.byte	1
	.uleb128 Lcst_end14-Lcst_begin14
Lcst_begin14:
	.uleb128 Ltmp581-Lfunc_begin74
	.uleb128 Ltmp582-Ltmp581
	.uleb128 Ltmp583-Lfunc_begin74
	.byte	0
	.uleb128 Ltmp582-Lfunc_begin74
	.uleb128 Lfunc_end74-Ltmp582
	.byte	0
	.byte	0
Lcst_end14:
	.p2align	2

	.section	__TEXT,__text,regular,pure_instructions
	.globl	__ZN5alloc3vec16Vec$LT$T$C$A$GT$5clear17h6c2603c271701cfaE
	.p2align	4, 0x90
__ZN5alloc3vec16Vec$LT$T$C$A$GT$5clear17h6c2603c271701cfaE:
Lfunc_begin75:
	.loc	28 2035 0
	.cfi_startproc
	pushq	%rbp
	.cfi_def_cfa_offset 16
	.cfi_offset %rbp, -16
	movq	%rsp, %rbp
	.cfi_def_cfa_register %rbp
	subq	$48, %rsp
	movq	%rdi, -40(%rbp)
	movq	%rdi, -32(%rbp)
Ltmp615:
	.loc	28 2036 31 prologue_end
	movq	%rdi, -24(%rbp)
Ltmp616:
	.loc	28 1209 9
	callq	__ZN75_$LT$alloc..vec..Vec$LT$T$C$A$GT$$u20$as$u20$core..ops..deref..DerefMut$GT$9deref_mut17h75eb5f6d112a172cE
	movq	-40(%rbp), %rdi
Ltmp617:
	.loc	28 2036 31
	movq	%rax, -16(%rbp)
	movq	%rdx, -8(%rbp)
Ltmp618:
	.loc	28 2045 13
	movq	$0, 16(%rdi)
Ltmp619:
	.loc	28 2048 6
	addq	$48, %rsp
	popq	%rbp
	retq
Ltmp620:
Lfunc_end75:
	.cfi_endproc

	.globl	__ZN5alloc3vec16Vec$LT$T$C$A$GT$5clear17h83536010ac10460fE
	.p2align	4, 0x90
__ZN5alloc3vec16Vec$LT$T$C$A$GT$5clear17h83536010ac10460fE:
Lfunc_begin76:
	.loc	28 2035 0
	.cfi_startproc
	pushq	%rbp
	.cfi_def_cfa_offset 16
	.cfi_offset %rbp, -16
	movq	%rsp, %rbp
	.cfi_def_cfa_register %rbp
	subq	$48, %rsp
	movq	%rdi, -40(%rbp)
	movq	%rdi, -32(%rbp)
Ltmp621:
	.loc	28 2036 31 prologue_end
	movq	%rdi, -24(%rbp)
Ltmp622:
	.loc	28 1209 9
	callq	__ZN75_$LT$alloc..vec..Vec$LT$T$C$A$GT$$u20$as$u20$core..ops..deref..DerefMut$GT$9deref_mut17hdd79587095aa8198E
	movq	-40(%rbp), %rdi
Ltmp623:
	.loc	28 2036 31
	movq	%rax, -16(%rbp)
	movq	%rdx, -8(%rbp)
Ltmp624:
	.loc	28 2045 13
	movq	$0, 16(%rdi)
Ltmp625:
	.loc	28 2048 6
	addq	$48, %rsp
	popq	%rbp
	retq
Ltmp626:
Lfunc_end76:
	.cfi_endproc

	.globl	__ZN5alloc3vec16Vec$LT$T$C$A$GT$5clear17ha2b8d054e0b3a2a1E
	.p2align	4, 0x90
__ZN5alloc3vec16Vec$LT$T$C$A$GT$5clear17ha2b8d054e0b3a2a1E:
Lfunc_begin77:
	.loc	28 2035 0
	.cfi_startproc
	pushq	%rbp
	.cfi_def_cfa_offset 16
	.cfi_offset %rbp, -16
	movq	%rsp, %rbp
	.cfi_def_cfa_register %rbp
	subq	$48, %rsp
	movq	%rdi, -40(%rbp)
	movq	%rdi, -32(%rbp)
Ltmp627:
	.loc	28 2036 31 prologue_end
	movq	%rdi, -24(%rbp)
Ltmp628:
	.loc	28 1209 9
	callq	__ZN75_$LT$alloc..vec..Vec$LT$T$C$A$GT$$u20$as$u20$core..ops..deref..DerefMut$GT$9deref_mut17h694b3a574b4539b4E
	movq	-40(%rbp), %rdi
Ltmp629:
	.loc	28 2036 31
	movq	%rax, -16(%rbp)
	movq	%rdx, -8(%rbp)
Ltmp630:
	.loc	28 2045 13
	movq	$0, 16(%rdi)
Ltmp631:
	.loc	28 2048 6
	addq	$48, %rsp
	popq	%rbp
	retq
Ltmp632:
Lfunc_end77:
	.cfi_endproc

	.globl	__ZN5alloc3vec16Vec$LT$T$C$A$GT$7reserve17h1f0ccec7ad91010cE
	.p2align	4, 0x90
__ZN5alloc3vec16Vec$LT$T$C$A$GT$7reserve17h1f0ccec7ad91010cE:
Lfunc_begin78:
	.loc	28 911 0
	.cfi_startproc
	pushq	%rbp
	.cfi_def_cfa_offset 16
	.cfi_offset %rbp, -16
	movq	%rsp, %rbp
	.cfi_def_cfa_register %rbp
	subq	$16, %rsp
	movq	%rsi, %rdx
	movq	%rdi, -16(%rbp)
	movq	%rdx, -8(%rbp)
Ltmp633:
	.loc	28 912 26 prologue_end
	movq	16(%rdi), %rsi
	.loc	28 912 9 is_stmt 0
	callq	__ZN5alloc7raw_vec19RawVec$LT$T$C$A$GT$7reserve17hedab44c07a739fdbE
	.loc	28 913 6 is_stmt 1
	addq	$16, %rsp
	popq	%rbp
	retq
Ltmp634:
Lfunc_end78:
	.cfi_endproc

	.globl	__ZN5alloc3vec9from_elem17hd1b3cb588b0f88caE
	.p2align	4, 0x90
__ZN5alloc3vec9from_elem17hd1b3cb588b0f88caE:
Lfunc_begin79:
	.loc	28 2561 0
	.cfi_startproc
	pushq	%rbp
	.cfi_def_cfa_offset 16
	.cfi_offset %rbp, -16
	movq	%rsp, %rbp
	.cfi_def_cfa_register %rbp
	subq	$32, %rsp
	movq	%rdi, %rax
	movq	%rax, -24(%rbp)
	movq	%rsi, -16(%rbp)
	movq	%rdx, -8(%rbp)
Ltmp635:
	.loc	28 2562 5 prologue_end
	callq	__ZN62_$LT$T$u20$as$u20$alloc..vec..spec_from_elem..SpecFromElem$GT$9from_elem17hae9805f37868951bE
	movq	-24(%rbp), %rax
	.loc	28 2563 2
	addq	$32, %rsp
	popq	%rbp
	retq
Ltmp636:
Lfunc_end79:
	.cfi_endproc

	.p2align	4, 0x90
__ZN5alloc5alloc6Global10alloc_impl17h899181fb82876007E:
Lfunc_begin80:
	.file	32 "/rustc/2c8cc343237b8f7d5a3c3703e3a87f2eb2c54a74/library/alloc/src" "alloc.rs"
	.loc	32 172 0
	.cfi_startproc
	pushq	%rbp
	.cfi_def_cfa_offset 16
	.cfi_offset %rbp, -16
	movq	%rsp, %rbp
	.cfi_def_cfa_register %rbp
	subq	$352, %rsp
	movb	%cl, %al
	movb	%al, -345(%rbp)
	movq	%rsi, -336(%rbp)
	movq	%rdx, -328(%rbp)
	movq	%rdi, -208(%rbp)
	andb	$1, %al
	movb	%al, -193(%rbp)
Ltmp637:
	.loc	32 173 15 prologue_end
	leaq	-336(%rbp), %rax
	movq	%rax, -144(%rbp)
Ltmp638:
	.loc	20 129 9
	movq	-336(%rbp), %rax
	movq	%rax, -344(%rbp)
Ltmp639:
	.loc	32 173 9
	cmpq	$0, %rax
	jne	LBB80_2
	.loc	32 174 51
	leaq	-336(%rbp), %rax
	movq	%rax, -48(%rbp)
Ltmp640:
	.loc	20 216 71
	leaq	-336(%rbp), %rax
	movq	%rax, -40(%rbp)
Ltmp641:
	.loc	20 140 9
	movq	-328(%rbp), %rax
	movq	%rax, -32(%rbp)
Ltmp642:
	.loc	21 97 9
	movq	%rax, -232(%rbp)
	movq	-232(%rbp), %rax
	movq	%rax, -24(%rbp)
Ltmp643:
	.loc	3 599 14
	movq	%rax, -16(%rbp)
	movq	-16(%rbp), %rax
	movq	%rax, -8(%rbp)
Ltmp644:
	.loc	5 201 13
	movq	%rax, -304(%rbp)
Ltmp645:
	.loc	32 174 21
	movq	-304(%rbp), %rdi
	xorl	%eax, %eax
	movl	%eax, %esi
	callq	__ZN4core3ptr8non_null26NonNull$LT$$u5b$T$u5d$$GT$20slice_from_raw_parts17h6a8df541b1dc80cfE
	.loc	32 174 18 is_stmt 0
	movq	%rax, -320(%rbp)
	movq	%rdx, -312(%rbp)
	.loc	32 174 72
	jmp	LBB80_15
LBB80_2:
	.loc	32 0 72
	movb	-345(%rbp), %al
	movq	-344(%rbp), %rcx
	.loc	32 176 13 is_stmt 1
	movq	%rcx, -136(%rbp)
Ltmp646:
	.loc	32 177 34
	testb	$1, %al
	jne	LBB80_4
	.loc	32 177 79 is_stmt 0
	movq	-336(%rbp), %rcx
	movq	-328(%rbp), %rax
	movq	%rcx, -272(%rbp)
	movq	%rax, -264(%rbp)
Ltmp647:
	.loc	32 95 27 is_stmt 1
	leaq	-272(%rbp), %rax
	movq	%rax, -104(%rbp)
Ltmp648:
	.loc	20 129 9
	movq	-272(%rbp), %rdi
Ltmp649:
	.loc	32 95 42
	leaq	-272(%rbp), %rax
	movq	%rax, -96(%rbp)
Ltmp650:
	.loc	20 140 9
	movq	-264(%rbp), %rax
	movq	%rax, -88(%rbp)
Ltmp651:
	.loc	21 97 9
	movq	%rax, -216(%rbp)
	movq	-216(%rbp), %rsi
Ltmp652:
	.loc	32 95 14
	callq	___rust_alloc
	movq	%rax, -296(%rbp)
Ltmp653:
	.loc	32 177 31
	jmp	LBB80_5
LBB80_4:
	.loc	32 177 56 is_stmt 0
	movq	-336(%rbp), %rcx
	movq	-328(%rbp), %rax
	movq	%rcx, -288(%rbp)
	movq	%rax, -280(%rbp)
Ltmp654:
	.loc	32 166 34 is_stmt 1
	leaq	-288(%rbp), %rax
	movq	%rax, -128(%rbp)
Ltmp655:
	.loc	20 129 9
	movq	-288(%rbp), %rdi
Ltmp656:
	.loc	32 166 49
	leaq	-288(%rbp), %rax
	movq	%rax, -120(%rbp)
Ltmp657:
	.loc	20 140 9
	movq	-280(%rbp), %rax
	movq	%rax, -112(%rbp)
Ltmp658:
	.loc	21 97 9
	movq	%rax, -224(%rbp)
	movq	-224(%rbp), %rsi
Ltmp659:
	.loc	32 166 14
	callq	___rust_alloc_zeroed
	movq	%rax, -296(%rbp)
Ltmp660:
LBB80_5:
	.loc	32 178 40
	movq	-296(%rbp), %rdi
	.loc	32 178 27 is_stmt 0
	callq	__ZN4core3ptr8non_null16NonNull$LT$T$GT$3new17h1bd3a28d75198003E
	movq	%rax, -240(%rbp)
Ltmp661:
	.loc	24 1096 15 is_stmt 1
	movq	-240(%rbp), %rdx
	movl	$1, %eax
	xorl	%ecx, %ecx
	cmpq	$0, %rdx
	cmoveq	%rcx, %rax
	.loc	24 1096 9 is_stmt 0
	cmpq	$0, %rax
	jne	LBB80_7
	.loc	24 1098 21 is_stmt 1
	movq	$0, -248(%rbp)
	.loc	24 1098 28 is_stmt 0
	jmp	LBB80_8
LBB80_7:
	.loc	24 1097 18 is_stmt 1
	movq	-240(%rbp), %rax
	movq	%rax, -80(%rbp)
Ltmp662:
	.loc	24 1097 24 is_stmt 0
	movq	%rax, -248(%rbp)
Ltmp663:
LBB80_8:
	.loc	25 2091 15 is_stmt 1
	movq	-248(%rbp), %rdx
	xorl	%eax, %eax
	movl	$1, %ecx
	cmpq	$0, %rdx
	cmoveq	%rcx, %rax
	.loc	25 2091 9 is_stmt 0
	cmpq	$0, %rax
	jne	LBB80_10
	.loc	25 2092 16 is_stmt 1
	movq	-248(%rbp), %rax
	movq	%rax, -72(%rbp)
Ltmp664:
	.loc	25 2092 22 is_stmt 0
	movq	%rax, -256(%rbp)
Ltmp665:
	.loc	25 2092 45
	jmp	LBB80_11
LBB80_10:
Ltmp666:
	.loc	25 2093 23 is_stmt 1
	movq	$0, -256(%rbp)
Ltmp667:
LBB80_11:
	.loc	32 178 27
	movq	-256(%rbp), %rdx
	xorl	%eax, %eax
	movl	$1, %ecx
	cmpq	$0, %rdx
	cmoveq	%rcx, %rax
	cmpq	$0, %rax
	jne	LBB80_13
	.loc	32 0 27 is_stmt 0
	movq	-344(%rbp), %rsi
	.loc	32 178 27
	movq	-256(%rbp), %rdi
	movq	%rdi, -64(%rbp)
Ltmp668:
	.loc	32 178 27
	movq	%rdi, -56(%rbp)
Ltmp669:
	.loc	32 179 20 is_stmt 1
	callq	__ZN4core3ptr8non_null26NonNull$LT$$u5b$T$u5d$$GT$20slice_from_raw_parts17h6a8df541b1dc80cfE
	.loc	32 179 17 is_stmt 0
	movq	%rax, -320(%rbp)
	movq	%rdx, -312(%rbp)
Ltmp670:
	.loc	32 180 13 is_stmt 1
	jmp	LBB80_15
LBB80_13:
Ltmp671:
	.loc	25 2107 23
	movq	$0, -320(%rbp)
Ltmp672:
LBB80_14:
	.loc	32 182 6
	movq	-320(%rbp), %rax
	movq	-312(%rbp), %rdx
	addq	$352, %rsp
	popq	%rbp
	retq
LBB80_15:
	jmp	LBB80_14
Ltmp673:
Lfunc_end80:
	.cfi_endproc

	.p2align	4, 0x90
__ZN5alloc5alloc6Global9grow_impl17hde7d74a11428694fE:
Lfunc_begin81:
	.loc	32 186 0
	.cfi_startproc
	pushq	%rbp
	.cfi_def_cfa_offset 16
	.cfi_offset %rbp, -16
	movq	%rsp, %rbp
	.cfi_def_cfa_register %rbp
	subq	$736, %rsp
	movq	%rsi, -688(%rbp)
	movq	%rdi, -680(%rbp)
	movb	16(%rbp), %al
	movb	%al, -665(%rbp)
	movq	%rdx, -656(%rbp)
	movq	%rcx, -648(%rbp)
	movq	%r8, -640(%rbp)
	movq	%r9, -632(%rbp)
	movq	%rdi, -504(%rbp)
	movq	%rsi, -496(%rbp)
	andb	$1, %al
	movb	%al, -481(%rbp)
Ltmp674:
	.loc	32 198 15 prologue_end
	leaq	-656(%rbp), %rax
	movq	%rax, -392(%rbp)
Ltmp675:
	.loc	20 129 9
	movq	-656(%rbp), %rax
	movq	%rax, -664(%rbp)
Ltmp676:
	.loc	32 198 9
	cmpq	$0, %rax
	jne	LBB81_2
	.loc	32 0 9 is_stmt 0
	movq	-680(%rbp), %rdi
	movb	-665(%rbp), %al
	.loc	32 199 34 is_stmt 1
	movq	-640(%rbp), %rsi
	movq	-632(%rbp), %rdx
	.loc	32 199 18 is_stmt 0
	movzbl	%al, %ecx
	andl	$1, %ecx
	callq	__ZN5alloc5alloc6Global10alloc_impl17h899181fb82876007E
	movq	%rdx, -616(%rbp)
	movq	%rax, -624(%rbp)
	.loc	32 199 52
	jmp	LBB81_16
LBB81_2:
	.loc	32 203 25 is_stmt 1
	leaq	-656(%rbp), %rax
	movq	%rax, -384(%rbp)
Ltmp677:
	.loc	20 140 9
	movq	-648(%rbp), %rax
	movq	%rax, -376(%rbp)
Ltmp678:
	.loc	21 97 9
	movq	%rax, -536(%rbp)
	movq	-536(%rbp), %rax
Ltmp679:
	.loc	32 203 47
	leaq	-640(%rbp), %rcx
	movq	%rcx, -368(%rbp)
Ltmp680:
	.loc	20 140 9
	movq	-632(%rbp), %rcx
	movq	%rcx, -360(%rbp)
Ltmp681:
	.loc	21 97 9
	movq	%rcx, -528(%rbp)
	movq	-528(%rbp), %rcx
Ltmp682:
	.loc	32 203 25
	cmpq	%rcx, %rax
	je	LBB81_4
	.loc	32 0 25 is_stmt 0
	movq	-680(%rbp), %rdi
	movb	-665(%rbp), %al
	movq	-664(%rbp), %rcx
	.loc	32 222 13 is_stmt 1
	movq	%rcx, -160(%rbp)
Ltmp683:
	.loc	32 223 47
	movq	-640(%rbp), %rsi
	movq	-632(%rbp), %rdx
	.loc	32 223 31 is_stmt 0
	movzbl	%al, %ecx
	andl	$1, %ecx
	callq	__ZN5alloc5alloc6Global10alloc_impl17h899181fb82876007E
	movq	%rdx, -544(%rbp)
	movq	%rax, -552(%rbp)
Ltmp684:
	.loc	25 2091 15 is_stmt 1
	movq	-552(%rbp), %rdx
	xorl	%eax, %eax
	movl	$1, %ecx
	cmpq	$0, %rdx
	cmoveq	%rcx, %rax
	.loc	25 2091 9 is_stmt 0
	cmpq	$0, %rax
	je	LBB81_17
	jmp	LBB81_18
Ltmp685:
LBB81_4:
	.loc	25 0 9
	movq	-688(%rbp), %rdi
	movq	-664(%rbp), %rax
	.loc	32 203 13 is_stmt 1
	movq	%rax, -352(%rbp)
Ltmp686:
	.loc	32 204 32
	leaq	-640(%rbp), %rax
	movq	%rax, -344(%rbp)
Ltmp687:
	.loc	20 129 9
	movq	-640(%rbp), %rcx
	movq	%rcx, -704(%rbp)
	movq	%rcx, -336(%rbp)
Ltmp688:
	.loc	32 207 48
	leaq	-656(%rbp), %rax
	movq	%rax, -328(%rbp)
	.loc	32 209 39
	movq	%rdi, -320(%rbp)
Ltmp689:
	.loc	5 326 9
	movq	%rdi, -312(%rbp)
Ltmp690:
	.loc	32 209 53
	movq	-656(%rbp), %rdx
	movq	-648(%rbp), %rax
	movq	%rdx, -608(%rbp)
	movq	%rax, -600(%rbp)
	.loc	32 209 65 is_stmt 0
	movq	%rcx, -304(%rbp)
Ltmp691:
	.loc	32 132 34 is_stmt 1
	leaq	-608(%rbp), %rax
	movq	%rax, -296(%rbp)
Ltmp692:
	.loc	20 129 9
	movq	-608(%rbp), %rsi
Ltmp693:
	.loc	32 132 49
	leaq	-608(%rbp), %rax
	movq	%rax, -288(%rbp)
Ltmp694:
	.loc	20 140 9
	movq	-600(%rbp), %rax
	movq	%rax, -280(%rbp)
Ltmp695:
	.loc	21 97 9
	movq	%rax, -520(%rbp)
	movq	-520(%rbp), %rdx
Ltmp696:
	.loc	32 132 14
	callq	___rust_realloc
	movq	%rax, %rdi
	movq	%rdi, -696(%rbp)
	movq	%rdi, -272(%rbp)
Ltmp697:
	.loc	32 210 27
	callq	__ZN4core3ptr8non_null16NonNull$LT$T$GT$3new17h1bd3a28d75198003E
	movq	%rax, -576(%rbp)
Ltmp698:
	.loc	24 1096 15
	movq	-576(%rbp), %rdx
	movl	$1, %eax
	xorl	%ecx, %ecx
	cmpq	$0, %rdx
	cmoveq	%rcx, %rax
	.loc	24 1096 9 is_stmt 0
	cmpq	$0, %rax
	jne	LBB81_6
	.loc	24 1098 21 is_stmt 1
	movq	$0, -584(%rbp)
	.loc	24 1098 28 is_stmt 0
	jmp	LBB81_7
LBB81_6:
	.loc	24 1097 18 is_stmt 1
	movq	-576(%rbp), %rax
	movq	%rax, -264(%rbp)
Ltmp699:
	.loc	24 1097 24 is_stmt 0
	movq	%rax, -584(%rbp)
Ltmp700:
LBB81_7:
	.loc	25 2091 15 is_stmt 1
	movq	-584(%rbp), %rdx
	xorl	%eax, %eax
	movl	$1, %ecx
	cmpq	$0, %rdx
	cmoveq	%rcx, %rax
	.loc	25 2091 9 is_stmt 0
	cmpq	$0, %rax
	jne	LBB81_9
	.loc	25 2092 16 is_stmt 1
	movq	-584(%rbp), %rax
	movq	%rax, -256(%rbp)
Ltmp701:
	.loc	25 2092 22 is_stmt 0
	movq	%rax, -592(%rbp)
Ltmp702:
	.loc	25 2092 45
	jmp	LBB81_10
LBB81_9:
Ltmp703:
	.loc	25 2093 23 is_stmt 1
	movq	$0, -592(%rbp)
Ltmp704:
LBB81_10:
	.loc	32 210 27
	movq	-592(%rbp), %rdx
	xorl	%eax, %eax
	movl	$1, %ecx
	cmpq	$0, %rdx
	cmoveq	%rcx, %rax
	cmpq	$0, %rax
	jne	LBB81_12
	.loc	32 0 27 is_stmt 0
	movb	-665(%rbp), %al
	.loc	32 210 27
	movq	-592(%rbp), %rcx
	movq	%rcx, -712(%rbp)
	movq	%rcx, -248(%rbp)
Ltmp705:
	.loc	32 210 27
	movq	%rcx, -240(%rbp)
Ltmp706:
	.loc	32 211 20 is_stmt 1
	testb	$1, %al
	jne	LBB81_15
	jmp	LBB81_14
Ltmp707:
LBB81_12:
	.loc	25 2107 23
	movq	$0, -624(%rbp)
Ltmp708:
LBB81_13:
	.loc	32 229 6
	jmp	LBB81_22
LBB81_14:
	.loc	32 0 6 is_stmt 0
	movq	-704(%rbp), %rsi
	movq	-712(%rbp), %rdi
Ltmp709:
	.loc	32 214 20 is_stmt 1
	callq	__ZN4core3ptr8non_null26NonNull$LT$$u5b$T$u5d$$GT$20slice_from_raw_parts17h6a8df541b1dc80cfE
	.loc	32 214 17 is_stmt 0
	movq	%rax, -624(%rbp)
	movq	%rdx, -616(%rbp)
Ltmp710:
	.loc	32 215 13 is_stmt 1
	jmp	LBB81_16
LBB81_15:
	.loc	32 0 13 is_stmt 0
	movq	-664(%rbp), %rax
	movq	-704(%rbp), %rdx
	movq	-696(%rbp), %rcx
Ltmp711:
	.loc	32 212 21 is_stmt 1
	movq	%rcx, -232(%rbp)
	.loc	32 212 33 is_stmt 0
	movq	%rax, -224(%rbp)
Ltmp712:
	.loc	17 1034 18 is_stmt 1
	movq	%rcx, -216(%rbp)
	.loc	17 1034 30 is_stmt 0
	movq	%rax, -208(%rbp)
Ltmp713:
	.loc	17 487 18 is_stmt 1
	addq	%rax, %rcx
	movq	%rcx, -200(%rbp)
	movq	-200(%rbp), %rdi
	movq	%rdi, -192(%rbp)
Ltmp714:
	.loc	32 212 58
	subq	%rax, %rdx
	movq	%rdx, -184(%rbp)
Ltmp715:
	.loc	17 1488 30
	movq	%rdi, -176(%rbp)
	.loc	17 1488 41 is_stmt 0
	movq	%rdx, -168(%rbp)
Ltmp716:
	.file	33 "/rustc/2c8cc343237b8f7d5a3c3703e3a87f2eb2c54a74/library/core/src" "intrinsics.rs"
	.loc	33 2529 9 is_stmt 1
	shlq	$0, %rdx
	xorl	%esi, %esi
	callq	_memset
Ltmp717:
	.loc	32 211 17
	jmp	LBB81_14
Ltmp718:
LBB81_16:
	.loc	32 229 6
	jmp	LBB81_22
LBB81_17:
Ltmp719:
	.loc	25 2092 16
	movq	-552(%rbp), %rcx
	movq	-544(%rbp), %rax
	movq	%rcx, -152(%rbp)
	movq	%rax, -144(%rbp)
Ltmp720:
	.loc	25 2092 22 is_stmt 0
	movq	%rcx, -568(%rbp)
	movq	%rax, -560(%rbp)
Ltmp721:
	.loc	25 2092 45
	jmp	LBB81_19
LBB81_18:
Ltmp722:
	.loc	25 2093 23 is_stmt 1
	movq	$0, -568(%rbp)
Ltmp723:
LBB81_19:
	.loc	32 223 31
	movq	-568(%rbp), %rdx
	xorl	%eax, %eax
	movl	$1, %ecx
	cmpq	$0, %rdx
	cmoveq	%rcx, %rax
	cmpq	$0, %rax
	jne	LBB81_21
	.loc	32 0 31 is_stmt 0
	movq	-688(%rbp), %rsi
	movq	-664(%rbp), %rdx
	.loc	32 223 31
	movq	-568(%rbp), %rax
	movq	%rax, -728(%rbp)
	movq	-560(%rbp), %rcx
	movq	%rcx, -720(%rbp)
	movq	%rax, -136(%rbp)
	movq	%rcx, -128(%rbp)
Ltmp724:
	.loc	32 223 31
	movq	%rax, -120(%rbp)
	movq	%rcx, -112(%rbp)
Ltmp725:
	.loc	32 224 42 is_stmt 1
	movq	%rsi, -104(%rbp)
	movq	%rsi, -96(%rbp)
	.loc	32 224 56 is_stmt 0
	movq	%rax, -88(%rbp)
	movq	%rcx, -80(%rbp)
Ltmp726:
	.loc	5 548 9 is_stmt 1
	movq	%rax, -72(%rbp)
	movq	%rcx, -64(%rbp)
Ltmp727:
	.loc	5 529 41
	movq	%rax, -56(%rbp)
	movq	%rcx, -48(%rbp)
Ltmp728:
	.loc	5 326 9
	movq	%rax, -40(%rbp)
	movq	%rcx, -32(%rbp)
Ltmp729:
	.loc	17 2037 9
	movq	%rax, -24(%rbp)
Ltmp730:
	.loc	5 201 13
	movq	%rax, -512(%rbp)
Ltmp731:
	.loc	5 326 9
	movq	-512(%rbp), %rdi
	movq	%rdi, -16(%rbp)
Ltmp732:
	.loc	32 224 78
	movq	%rdx, -8(%rbp)
Ltmp733:
	.loc	33 2372 9
	shlq	$0, %rdx
	callq	_memcpy
	movq	-680(%rbp), %rdi
	movq	-688(%rbp), %rsi
Ltmp734:
	.loc	32 225 38
	movq	-656(%rbp), %rdx
	movq	-648(%rbp), %rcx
	.loc	32 225 17 is_stmt 0
	callq	__ZN63_$LT$alloc..alloc..Global$u20$as$u20$core..alloc..Allocator$GT$10deallocate17h9448febf682b27aeE
	movq	-728(%rbp), %rcx
	movq	-720(%rbp), %rax
	.loc	32 226 17 is_stmt 1
	movq	%rcx, -624(%rbp)
	movq	%rax, -616(%rbp)
Ltmp735:
	.loc	32 227 13
	jmp	LBB81_16
LBB81_21:
Ltmp736:
	.loc	25 2107 23
	movq	$0, -624(%rbp)
Ltmp737:
	.loc	18 1 1
	jmp	LBB81_13
LBB81_22:
	.loc	32 229 6
	movq	-624(%rbp), %rax
	movq	-616(%rbp), %rdx
	addq	$736, %rsp
	popq	%rbp
	retq
Ltmp738:
Lfunc_end81:
	.cfi_endproc

	.globl	__ZN5alloc7raw_vec11finish_grow17hc334644a51487bd2E
	.p2align	4, 0x90
__ZN5alloc7raw_vec11finish_grow17hc334644a51487bd2E:
Lfunc_begin82:
	.loc	29 448 0
	.cfi_startproc
	pushq	%rbp
	.cfi_def_cfa_offset 16
	.cfi_offset %rbp, -16
	movq	%rsp, %rbp
	.cfi_def_cfa_register %rbp
	subq	$512, %rsp
	movq	%r8, -504(%rbp)
	movq	%rcx, -496(%rbp)
Ltmp739:
	movq	%rdi, -488(%rbp)
	movq	%rdi, -480(%rbp)
	movq	%rsi, -240(%rbp)
	movq	%rdx, -232(%rbp)
Ltmp740:
	movq	%r8, -224(%rbp)
Ltmp741:
	.loc	29 457 22 prologue_end
	leaq	-432(%rbp), %rdi
	callq	__ZN4core6result19Result$LT$T$C$E$GT$7map_err17he49dfc2649235447E
Ltmp742:
	.loc	25 2091 9
	cmpq	$0, -432(%rbp)
Ltmp743:
	jne	LBB82_2
Ltmp744:
	.loc	25 2092 16
	movq	-424(%rbp), %rcx
	movq	-416(%rbp), %rax
	movq	%rcx, -184(%rbp)
	movq	%rax, -176(%rbp)
Ltmp745:
	.loc	25 2092 22 is_stmt 0
	movq	%rcx, -448(%rbp)
	movq	%rax, -440(%rbp)
	movq	$0, -456(%rbp)
Ltmp746:
	.loc	25 2092 45
	jmp	LBB82_3
Ltmp747:
LBB82_2:
	.loc	25 2093 17 is_stmt 1
	movq	-424(%rbp), %rcx
	movq	-416(%rbp), %rax
	movq	%rcx, -200(%rbp)
	movq	%rax, -192(%rbp)
Ltmp748:
	.loc	25 2093 42 is_stmt 0
	movq	%rcx, -304(%rbp)
	movq	%rax, -296(%rbp)
	.loc	25 2093 23
	movq	-304(%rbp), %rcx
	movq	-296(%rbp), %rax
	movq	%rcx, -448(%rbp)
	movq	%rax, -440(%rbp)
	movq	$1, -456(%rbp)
Ltmp749:
LBB82_3:
	.loc	29 457 22 is_stmt 1
	cmpq	$0, -456(%rbp)
	jne	LBB82_5
Ltmp750:
	movq	-448(%rbp), %rcx
	movq	-440(%rbp), %rax
	movq	%rcx, -120(%rbp)
	movq	%rax, -112(%rbp)
Ltmp751:
	.loc	29 457 22 is_stmt 0
	movq	%rcx, -472(%rbp)
	movq	%rax, -464(%rbp)
Ltmp752:
	.loc	29 509 9 is_stmt 1
	movabsq	$-9223372036854775807, %rax
	movq	%rax, -368(%rbp)
Ltmp753:
	.loc	25 2091 15
	movabsq	$-9223372036854775807, %rdx
	movl	$1, %eax
	xorl	%ecx, %ecx
	cmpq	%rdx, -368(%rbp)
	cmoveq	%rcx, %rax
	.loc	25 2091 9 is_stmt 0
	cmpq	$0, %rax
	je	LBB82_7
	jmp	LBB82_8
Ltmp754:
LBB82_5:
	.loc	25 0 9
	movq	-488(%rbp), %rax
	.loc	29 457 62 is_stmt 1
	movq	-448(%rbp), %rdx
	movq	-440(%rbp), %rcx
	movq	%rdx, -168(%rbp)
	movq	%rcx, -160(%rbp)
Ltmp755:
	.loc	29 457 62 is_stmt 0
	movq	%rdx, -408(%rbp)
	movq	%rcx, -400(%rbp)
Ltmp756:
	.loc	25 2107 17 is_stmt 1
	movq	-408(%rbp), %rdx
	movq	-400(%rbp), %rcx
	movq	%rdx, -152(%rbp)
	movq	%rcx, -144(%rbp)
Ltmp757:
	.loc	25 2107 38 is_stmt 0
	movq	%rdx, -136(%rbp)
	movq	%rcx, -128(%rbp)
Ltmp758:
	.loc	7 117 9 is_stmt 1
	movq	%rdx, -288(%rbp)
	movq	%rcx, -280(%rbp)
Ltmp759:
	.loc	25 2107 23
	movq	-288(%rbp), %rdx
	movq	-280(%rbp), %rcx
	movq	%rdx, 8(%rax)
	movq	%rcx, 16(%rax)
	movq	$1, (%rax)
Ltmp760:
LBB82_6:
	.loc	29 473 2
	jmp	LBB82_12
Ltmp761:
LBB82_7:
	.loc	25 2092 22
	movabsq	$-9223372036854775807, %rax
	movq	%rax, -384(%rbp)
Ltmp762:
	.loc	25 2092 45 is_stmt 0
	jmp	LBB82_9
Ltmp763:
LBB82_8:
	.loc	25 2093 17 is_stmt 1
	movq	-376(%rbp), %rcx
	movq	-368(%rbp), %rax
	movq	%rcx, -104(%rbp)
	movq	%rax, -96(%rbp)
Ltmp764:
	.loc	25 2093 42 is_stmt 0
	movq	%rcx, -272(%rbp)
	movq	%rax, -264(%rbp)
	.loc	25 2093 23
	movq	-272(%rbp), %rcx
	movq	-264(%rbp), %rax
	movq	%rcx, -392(%rbp)
	movq	%rax, -384(%rbp)
Ltmp765:
LBB82_9:
	.loc	29 459 5 is_stmt 1
	movabsq	$-9223372036854775807, %rdx
	movl	$1, %eax
	xorl	%ecx, %ecx
	cmpq	%rdx, -384(%rbp)
	cmoveq	%rcx, %rax
	cmpq	$0, %rax
	jne	LBB82_11
Ltmp766:
	.loc	29 0 5 is_stmt 0
	movq	-496(%rbp), %rdx
Ltmp767:
	.loc	29 461 25 is_stmt 1
	movl	$1, %eax
	xorl	%ecx, %ecx
	cmpq	$0, 16(%rdx)
	cmoveq	%rcx, %rax
	cmpq	$1, %rax
	je	LBB82_13
	jmp	LBB82_14
Ltmp768:
LBB82_11:
	.loc	29 0 25 is_stmt 0
	movq	-488(%rbp), %rax
	.loc	29 459 35 is_stmt 1
	movq	-392(%rbp), %rdx
	movq	-384(%rbp), %rcx
	movq	%rdx, -88(%rbp)
	movq	%rcx, -80(%rbp)
Ltmp769:
	.loc	29 459 35 is_stmt 0
	movq	%rdx, -360(%rbp)
	movq	%rcx, -352(%rbp)
Ltmp770:
	.loc	25 2107 17 is_stmt 1
	movq	-360(%rbp), %rdx
	movq	-352(%rbp), %rcx
	movq	%rdx, -72(%rbp)
	movq	%rcx, -64(%rbp)
Ltmp771:
	.loc	25 2107 38 is_stmt 0
	movq	%rdx, -56(%rbp)
	movq	%rcx, -48(%rbp)
	.loc	25 2107 23
	movq	%rdx, 8(%rax)
	movq	%rcx, 16(%rax)
	movq	$1, (%rax)
Ltmp772:
	.loc	18 1 1 is_stmt 1
	jmp	LBB82_6
Ltmp773:
LBB82_12:
	.loc	18 0 1 is_stmt 0
	movq	-480(%rbp), %rax
	.loc	29 473 2 is_stmt 1
	addq	$512, %rsp
	popq	%rbp
	retq
Ltmp774:
LBB82_13:
	.loc	29 0 2 is_stmt 0
	movq	-504(%rbp), %rdi
	movq	-496(%rbp), %rax
Ltmp775:
	.loc	29 461 31 is_stmt 1
	movq	(%rax), %rsi
	movq	%rsi, -40(%rbp)
	.loc	29 461 36 is_stmt 0
	movq	8(%rax), %rcx
	movq	16(%rax), %rax
	movq	%rcx, -328(%rbp)
	movq	%rax, -320(%rbp)
	leaq	-328(%rbp), %rax
	.loc	29 465 32 is_stmt 1
	movq	%rax, -32(%rbp)
Ltmp776:
	.loc	20 140 9
	movq	-320(%rbp), %rax
	movq	%rax, -24(%rbp)
Ltmp777:
	.loc	21 97 9
	movq	%rax, -256(%rbp)
	leaq	-472(%rbp), %rax
Ltmp778:
	.loc	29 465 54
	movq	%rax, -16(%rbp)
Ltmp779:
	.loc	20 140 9
	movq	-464(%rbp), %rax
	movq	%rax, -8(%rbp)
Ltmp780:
	.loc	21 97 9
	movq	%rax, -248(%rbp)
Ltmp781:
	.loc	29 466 29
	movq	-328(%rbp), %rdx
	movq	-320(%rbp), %rcx
	.loc	29 466 41 is_stmt 0
	movq	-472(%rbp), %r8
	movq	-464(%rbp), %r9
	.loc	29 466 13
	callq	__ZN63_$LT$alloc..alloc..Global$u20$as$u20$core..alloc..Allocator$GT$4grow17hb4c6b8b3c994049cE
	movq	%rdx, -336(%rbp)
	movq	%rax, -344(%rbp)
Ltmp782:
	.loc	29 461 18 is_stmt 1
	jmp	LBB82_15
Ltmp783:
LBB82_14:
	.loc	29 0 18 is_stmt 0
	movq	-504(%rbp), %rdi
	.loc	29 469 24 is_stmt 1
	movq	-472(%rbp), %rsi
	movq	-464(%rbp), %rdx
	.loc	29 469 9 is_stmt 0
	callq	__ZN63_$LT$alloc..alloc..Global$u20$as$u20$core..alloc..Allocator$GT$8allocate17hb3efd705a93eaecbE
	movq	%rdx, -336(%rbp)
	movq	%rax, -344(%rbp)
Ltmp784:
LBB82_15:
	.loc	29 0 9
	movq	-488(%rbp), %rdi
Ltmp785:
	.loc	29 472 5 is_stmt 1
	movq	-344(%rbp), %rsi
	movq	-336(%rbp), %rdx
	.loc	29 472 20 is_stmt 0
	leaq	-472(%rbp), %rax
	movq	%rax, -312(%rbp)
	.loc	29 472 5
	movq	-312(%rbp), %rcx
	callq	__ZN4core6result19Result$LT$T$C$E$GT$7map_err17hea52274580ffaa59E
Ltmp786:
	.loc	29 473 2 is_stmt 1
	jmp	LBB82_12
Ltmp787:
Lfunc_end82:
	.cfi_endproc

	.globl	__ZN5alloc7raw_vec11finish_grow28_$u7b$$u7b$closure$u7d$$u7d$17h5cc67495a829747fE
	.p2align	4, 0x90
__ZN5alloc7raw_vec11finish_grow28_$u7b$$u7b$closure$u7d$$u7d$17h5cc67495a829747fE:
Lfunc_begin83:
	.loc	29 457 0
	.cfi_startproc
	pushq	%rbp
	.cfi_def_cfa_offset 16
	.cfi_offset %rbp, -16
	movq	%rsp, %rbp
	.cfi_def_cfa_register %rbp
	subq	$32, %rsp
Ltmp788:
	.loc	29 457 45 prologue_end
	movq	$0, -24(%rbp)
	.loc	29 457 61 is_stmt 0
	movq	-32(%rbp), %rax
	movq	-24(%rbp), %rdx
	addq	$32, %rsp
	popq	%rbp
	retq
Ltmp789:
Lfunc_end83:
	.cfi_endproc

	.globl	__ZN5alloc7raw_vec11finish_grow28_$u7b$$u7b$closure$u7d$$u7d$17h6c6e7dbdf33c2fc2E
	.p2align	4, 0x90
__ZN5alloc7raw_vec11finish_grow28_$u7b$$u7b$closure$u7d$$u7d$17h6c6e7dbdf33c2fc2E:
Lfunc_begin84:
	.loc	29 472 0 is_stmt 1
	.cfi_startproc
	pushq	%rbp
	.cfi_def_cfa_offset 16
	.cfi_offset %rbp, -16
	movq	%rsp, %rbp
	.cfi_def_cfa_register %rbp
	subq	$32, %rsp
	movq	%rdi, -32(%rbp)
Ltmp790:
	.loc	29 472 45 prologue_end
	movq	-32(%rbp), %rax
	movq	(%rax), %rcx
	movq	8(%rax), %rax
	.loc	29 472 24 is_stmt 0
	movq	%rcx, -24(%rbp)
	movq	%rax, -16(%rbp)
	movq	-24(%rbp), %rdi
	movq	-16(%rbp), %rsi
	callq	__ZN50_$LT$T$u20$as$u20$core..convert..Into$LT$U$GT$$GT$4into17h0d8af4e4027c736cE
	.loc	29 472 84
	addq	$32, %rsp
	popq	%rbp
	retq
Ltmp791:
Lfunc_end84:
	.cfi_endproc

	.p2align	4, 0x90
__ZN5alloc7raw_vec14handle_reserve17h455f83584fe64d38E:
Lfunc_begin85:
	.loc	29 487 0 is_stmt 1
	.cfi_startproc
	pushq	%rbp
	.cfi_def_cfa_offset 16
	.cfi_offset %rbp, -16
	movq	%rsp, %rbp
	.cfi_def_cfa_register %rbp
	subq	$48, %rsp
	movq	%rdi, -32(%rbp)
	movq	%rsi, -24(%rbp)
Ltmp792:
	.loc	29 488 11 prologue_end
	callq	__ZN4core6result19Result$LT$T$C$E$GT$7map_err17h212c64774437fd16E
	movq	%rdx, -40(%rbp)
	movq	%rax, -48(%rbp)
	movabsq	$-9223372036854775807, %rdx
	movl	$1, %eax
	xorl	%ecx, %ecx
	cmpq	%rdx, -40(%rbp)
	cmoveq	%rcx, %rax
	.loc	29 488 5 is_stmt 0
	cmpq	$0, %rax
	jne	LBB85_2
	.loc	29 493 2 is_stmt 1
	addq	$48, %rsp
	popq	%rbp
	retq
LBB85_2:
	.loc	29 488 11
	movl	$1, %eax
	xorl	%ecx, %ecx
	cmpq	$0, -40(%rbp)
	cmoveq	%rcx, %rax
	.loc	29 488 5 is_stmt 0
	cmpq	$0, %rax
	jne	LBB85_4
	.loc	29 489 34 is_stmt 1
	callq	__ZN5alloc7raw_vec17capacity_overflow17h082ee8492f253a0eE
LBB85_4:
	.loc	29 490 26
	movq	-48(%rbp), %rdi
	movq	-40(%rbp), %rsi
	movq	%rdi, -16(%rbp)
	movq	%rsi, -8(%rbp)
Ltmp793:
	.loc	29 490 43 is_stmt 0
	callq	__ZN5alloc5alloc18handle_alloc_error17hb5f6ff255f23ea4dE
Ltmp794:
Lfunc_end85:
	.cfi_endproc

	.globl	__ZN5alloc7raw_vec14handle_reserve28_$u7b$$u7b$closure$u7d$$u7d$17h29c029dd929b4b28E
	.p2align	4, 0x90
__ZN5alloc7raw_vec14handle_reserve28_$u7b$$u7b$closure$u7d$$u7d$17h29c029dd929b4b28E:
Lfunc_begin86:
	.loc	29 488 0 is_stmt 1
	.cfi_startproc
	pushq	%rbp
	.cfi_def_cfa_offset 16
	.cfi_offset %rbp, -16
	movq	%rsp, %rbp
	.cfi_def_cfa_register %rbp
	subq	$72, %rsp
	movq	%rdi, -72(%rbp)
	movq	%rsi, -64(%rbp)
Ltmp795:
	.loc	29 488 30 prologue_end
	leaq	-72(%rbp), %rax
	movq	%rax, -32(%rbp)
Ltmp796:
	.loc	7 75 9
	leaq	-72(%rbp), %rax
	movq	%rax, -24(%rbp)
Ltmp797:
	.loc	7 80 10
	movl	$1, %eax
	xorl	%ecx, %ecx
	cmpq	$0, -64(%rbp)
	cmoveq	%rcx, %rax
	cmpq	$0, %rax
	jne	LBB86_2
	movq	$0, -48(%rbp)
	jmp	LBB86_3
LBB86_2:
	.loc	7 94 9
	leaq	-72(%rbp), %rax
	movq	%rax, -16(%rbp)
Ltmp798:
	.loc	7 94 9 is_stmt 0
	leaq	-72(%rbp), %rax
	movq	%rax, -8(%rbp)
Ltmp799:
	.loc	20 36 16 is_stmt 1
	movq	-72(%rbp), %rcx
	movq	-64(%rbp), %rax
Ltmp800:
	.loc	7 80 10
	movq	%rcx, -56(%rbp)
	movq	%rax, -48(%rbp)
Ltmp801:
LBB86_3:
	.loc	29 488 38
	movq	-56(%rbp), %rax
	movq	-48(%rbp), %rdx
	addq	$72, %rsp
	popq	%rbp
	retq
Ltmp802:
Lfunc_end86:
	.cfi_endproc

	.globl	__ZN5alloc7raw_vec19RawVec$LT$T$C$A$GT$11allocate_in17h7955fe72007ca479E
	.p2align	4, 0x90
__ZN5alloc7raw_vec19RawVec$LT$T$C$A$GT$11allocate_in17h7955fe72007ca479E:
Lfunc_begin87:
	.loc	29 169 0
	.cfi_startproc
	.cfi_personality 155, _rust_eh_personality
	.cfi_lsda 16, Lexception15
	pushq	%rbp
	.cfi_def_cfa_offset 16
	.cfi_offset %rbp, -16
	movq	%rsp, %rbp
	.cfi_def_cfa_register %rbp
	subq	$384, %rsp
	movq	%rdi, -296(%rbp)
	movb	%sil, %al
	andb	$1, %al
	movb	%al, -281(%rbp)
	movq	%rdi, -168(%rbp)
Ltmp818:
	.loc	29 171 12 prologue_end
	movb	$1, -177(%rbp)
	xorl	%eax, %eax
	testb	$1, %al
	jne	LBB87_2
	.loc	29 0 12 is_stmt 0
	movq	-296(%rbp), %rax
	.loc	29 171 25
	cmpq	$0, %rax
	sete	%al
	.loc	29 171 12
	andb	$1, %al
	movb	%al, -249(%rbp)
	jmp	LBB87_3
LBB87_2:
	movb	$1, -249(%rbp)
LBB87_3:
	testb	$1, -249(%rbp)
	jne	LBB87_5
	.loc	29 0 12
	movq	-296(%rbp), %rax
	.loc	29 176 51 is_stmt 1
	movq	%rax, -144(%rbp)
Ltmp819:
	.loc	13 459 5
	movq	$8, -136(%rbp)
Ltmp820:
	.loc	21 89 18
	movq	$8, -128(%rbp)
	movq	-128(%rbp), %rax
	movq	%rax, -304(%rbp)
	jmp	LBB87_10
Ltmp821:
LBB87_5:
	.loc	29 172 26
	movb	$0, -177(%rbp)
Ltmp815:
	.loc	29 172 13 is_stmt 0
	callq	__ZN5alloc7raw_vec19RawVec$LT$T$C$A$GT$6new_in17h2196645adc033697E
Ltmp816:
	movq	%rdx, -320(%rbp)
	movq	%rax, -312(%rbp)
	jmp	LBB87_8
LBB87_6:
	.loc	29 202 5 is_stmt 1
	testb	$1, -177(%rbp)
	jne	LBB87_25
	jmp	LBB87_24
LBB87_7:
Ltmp817:
	.loc	29 0 5 is_stmt 0
	movq	%rax, %rcx
	movl	%edx, %eax
	movq	%rcx, -160(%rbp)
	movl	%eax, -152(%rbp)
	jmp	LBB87_6
LBB87_8:
	movq	-320(%rbp), %rax
	movq	-312(%rbp), %rcx
	.loc	29 172 13 is_stmt 1
	movq	%rcx, -272(%rbp)
	movq	%rax, -264(%rbp)
LBB87_9:
	.loc	29 202 6
	movq	-272(%rbp), %rax
	movq	-264(%rbp), %rdx
	addq	$384, %rsp
	popq	%rbp
	retq
LBB87_10:
Ltmp803:
	.loc	29 0 6 is_stmt 0
	movq	-296(%rbp), %rdx
	movq	-304(%rbp), %rsi
	movl	$8, %edi
Ltmp822:
	.loc	20 438 16 is_stmt 1
	callq	__ZN4core5alloc6layout6Layout5array5inner17hfcea5a438bd54a51E
Ltmp804:
	movq	%rdx, -336(%rbp)
	movq	%rax, -328(%rbp)
	jmp	LBB87_11
LBB87_11:
	.loc	20 0 16 is_stmt 0
	movq	-336(%rbp), %rax
	movq	-328(%rbp), %rcx
	.loc	20 438 16
	movq	%rcx, -248(%rbp)
	movq	%rax, -240(%rbp)
Ltmp823:
	.loc	29 176 32 is_stmt 1
	xorl	%eax, %eax
	movl	$1, %ecx
	cmpq	$0, -240(%rbp)
	cmoveq	%rcx, %rax
	.loc	29 176 26 is_stmt 0
	cmpq	$0, %rax
	jne	LBB87_13
	.loc	29 177 20 is_stmt 1
	movq	-248(%rbp), %rcx
	movq	%rcx, -352(%rbp)
	movq	-240(%rbp), %rax
	movq	%rax, -344(%rbp)
	movq	%rcx, -120(%rbp)
	movq	%rax, -112(%rbp)
Ltmp824:
	.loc	29 177 31 is_stmt 0
	movq	%rcx, -104(%rbp)
	movq	%rax, -96(%rbp)
Ltmp825:
	.loc	29 509 9 is_stmt 1
	movabsq	$-9223372036854775807, %rax
	movq	%rax, -224(%rbp)
Ltmp826:
	.loc	29 180 19
	movabsq	$-9223372036854775807, %rdx
	movl	$1, %eax
	xorl	%ecx, %ecx
	cmpq	%rdx, -224(%rbp)
	cmoveq	%rcx, %rax
	.loc	29 180 13 is_stmt 0
	cmpq	$0, %rax
	je	LBB87_15
	jmp	LBB87_16
Ltmp827:
LBB87_13:
Ltmp805:
	.loc	29 178 27 is_stmt 1
	callq	__ZN5alloc7raw_vec17capacity_overflow17h082ee8492f253a0eE
Ltmp806:
	jmp	LBB87_14
LBB87_14:
	.loc	29 0 27 is_stmt 0
	ud2
LBB87_15:
Ltmp828:
	.loc	29 184 32 is_stmt 1
	movb	-281(%rbp), %al
	andb	$1, %al
	movzbl	%al, %eax
	.loc	29 184 26 is_stmt 0
	cmpq	$0, %rax
	je	LBB87_17
	jmp	LBB87_18
LBB87_16:
Ltmp807:
	.loc	29 182 27 is_stmt 1
	callq	__ZN5alloc7raw_vec17capacity_overflow17h082ee8492f253a0eE
Ltmp808:
	jmp	LBB87_14
LBB87_17:
Ltmp811:
	.loc	29 0 27 is_stmt 0
	movq	-344(%rbp), %rdx
	movq	-352(%rbp), %rsi
	leaq	-280(%rbp), %rdi
	.loc	29 185 45 is_stmt 1
	callq	__ZN63_$LT$alloc..alloc..Global$u20$as$u20$core..alloc..Allocator$GT$8allocate17hb3efd705a93eaecbE
Ltmp812:
	movq	%rdx, -368(%rbp)
	movq	%rax, -360(%rbp)
	jmp	LBB87_21
LBB87_18:
Ltmp809:
	.loc	29 0 45 is_stmt 0
	movq	-344(%rbp), %rdx
	movq	-352(%rbp), %rsi
	leaq	-280(%rbp), %rdi
	.loc	29 186 38 is_stmt 1
	callq	__ZN63_$LT$alloc..alloc..Global$u20$as$u20$core..alloc..Allocator$GT$15allocate_zeroed17hc65364faf3a05a8eE
Ltmp810:
	movq	%rdx, -384(%rbp)
	movq	%rax, -376(%rbp)
	jmp	LBB87_19
LBB87_19:
	.loc	29 0 38 is_stmt 0
	movq	-384(%rbp), %rax
	movq	-376(%rbp), %rcx
	.loc	29 186 38
	movq	%rcx, -216(%rbp)
	movq	%rax, -208(%rbp)
LBB87_20:
Ltmp829:
	.loc	29 188 29 is_stmt 1
	movq	-216(%rbp), %rdx
	xorl	%eax, %eax
	movl	$1, %ecx
	cmpq	$0, %rdx
	cmoveq	%rcx, %rax
	.loc	29 188 23 is_stmt 0
	cmpq	$0, %rax
	je	LBB87_22
	jmp	LBB87_23
Ltmp830:
LBB87_21:
	.loc	29 0 23
	movq	-368(%rbp), %rax
	movq	-360(%rbp), %rcx
	.loc	29 185 45 is_stmt 1
	movq	%rcx, -216(%rbp)
	movq	%rax, -208(%rbp)
	.loc	29 185 66 is_stmt 0
	jmp	LBB87_20
LBB87_22:
	.loc	29 0 66
	movq	-296(%rbp), %rax
Ltmp831:
	.loc	29 189 20 is_stmt 1
	movq	-216(%rbp), %rcx
	movq	-208(%rbp), %rdx
	movq	%rcx, -88(%rbp)
	movq	%rdx, -80(%rbp)
Ltmp832:
	.loc	29 189 28 is_stmt 0
	movq	%rcx, -72(%rbp)
	movq	%rdx, -64(%rbp)
Ltmp833:
	.loc	29 197 53 is_stmt 1
	movq	%rcx, -56(%rbp)
	movq	%rdx, -48(%rbp)
Ltmp834:
	.loc	5 450 41
	movq	%rcx, -40(%rbp)
	movq	%rdx, -32(%rbp)
	movq	%rcx, -24(%rbp)
Ltmp835:
	.loc	5 201 13
	movq	%rcx, -192(%rbp)
Ltmp836:
	.loc	5 326 9
	movq	-192(%rbp), %rcx
	movq	%rcx, -16(%rbp)
Ltmp837:
	.loc	6 87 59
	movq	%rcx, -8(%rbp)
Ltmp838:
	.loc	5 201 13
	movq	%rcx, -176(%rbp)
Ltmp839:
	.loc	6 87 18
	movq	-176(%rbp), %rcx
	movq	%rcx, -200(%rbp)
Ltmp840:
	.loc	29 196 13
	movq	-200(%rbp), %rcx
	movq	%rcx, -264(%rbp)
	movq	%rax, -272(%rbp)
Ltmp841:
	.loc	29 171 9
	jmp	LBB87_9
LBB87_23:
Ltmp813:
	.loc	29 0 9 is_stmt 0
	movq	-344(%rbp), %rsi
	movq	-352(%rbp), %rdi
Ltmp842:
	.loc	29 190 27 is_stmt 1
	callq	__ZN5alloc5alloc18handle_alloc_error17hb5f6ff255f23ea4dE
Ltmp814:
	jmp	LBB87_14
Ltmp843:
LBB87_24:
	.loc	29 169 5
	movq	-160(%rbp), %rdi
	callq	__Unwind_Resume
LBB87_25:
	.loc	29 202 5
	jmp	LBB87_24
Ltmp844:
Lfunc_end87:
	.cfi_endproc
	.section	__TEXT,__gcc_except_tab
	.p2align	2
GCC_except_table87:
Lexception15:
	.byte	255
	.byte	255
	.byte	1
	.uleb128 Lcst_end15-Lcst_begin15
Lcst_begin15:
	.uleb128 Ltmp815-Lfunc_begin87
	.uleb128 Ltmp814-Ltmp815
	.uleb128 Ltmp817-Lfunc_begin87
	.byte	0
	.uleb128 Ltmp814-Lfunc_begin87
	.uleb128 Lfunc_end87-Ltmp814
	.byte	0
	.byte	0
Lcst_end15:
	.p2align	2

	.section	__TEXT,__text,regular,pure_instructions
	.globl	__ZN5alloc7raw_vec19RawVec$LT$T$C$A$GT$11allocate_in17h88122143146ce445E
	.p2align	4, 0x90
__ZN5alloc7raw_vec19RawVec$LT$T$C$A$GT$11allocate_in17h88122143146ce445E:
Lfunc_begin88:
	.loc	29 169 0
	.cfi_startproc
	.cfi_personality 155, _rust_eh_personality
	.cfi_lsda 16, Lexception16
	pushq	%rbp
	.cfi_def_cfa_offset 16
	.cfi_offset %rbp, -16
	movq	%rsp, %rbp
	.cfi_def_cfa_register %rbp
	subq	$384, %rsp
	movq	%rdi, -296(%rbp)
	movb	%sil, %al
	andb	$1, %al
	movb	%al, -281(%rbp)
	movq	%rdi, -168(%rbp)
Ltmp860:
	.loc	29 171 12 prologue_end
	movb	$1, -177(%rbp)
	xorl	%eax, %eax
	testb	$1, %al
	jne	LBB88_2
	.loc	29 0 12 is_stmt 0
	movq	-296(%rbp), %rax
	.loc	29 171 25
	cmpq	$0, %rax
	sete	%al
	.loc	29 171 12
	andb	$1, %al
	movb	%al, -249(%rbp)
	jmp	LBB88_3
LBB88_2:
	movb	$1, -249(%rbp)
LBB88_3:
	testb	$1, -249(%rbp)
	jne	LBB88_5
	.loc	29 0 12
	movq	-296(%rbp), %rax
	.loc	29 176 51 is_stmt 1
	movq	%rax, -144(%rbp)
Ltmp861:
	.loc	13 459 5
	movq	$1, -136(%rbp)
Ltmp862:
	.loc	21 89 18
	movq	$1, -128(%rbp)
	movq	-128(%rbp), %rax
	movq	%rax, -304(%rbp)
	jmp	LBB88_10
Ltmp863:
LBB88_5:
	.loc	29 172 26
	movb	$0, -177(%rbp)
Ltmp857:
	.loc	29 172 13 is_stmt 0
	callq	__ZN5alloc7raw_vec19RawVec$LT$T$C$A$GT$6new_in17ha88e89f32259f84fE
Ltmp858:
	movq	%rdx, -320(%rbp)
	movq	%rax, -312(%rbp)
	jmp	LBB88_8
LBB88_6:
	.loc	29 202 5 is_stmt 1
	testb	$1, -177(%rbp)
	jne	LBB88_25
	jmp	LBB88_24
LBB88_7:
Ltmp859:
	.loc	29 0 5 is_stmt 0
	movq	%rax, %rcx
	movl	%edx, %eax
	movq	%rcx, -160(%rbp)
	movl	%eax, -152(%rbp)
	jmp	LBB88_6
LBB88_8:
	movq	-320(%rbp), %rax
	movq	-312(%rbp), %rcx
	.loc	29 172 13 is_stmt 1
	movq	%rcx, -272(%rbp)
	movq	%rax, -264(%rbp)
LBB88_9:
	.loc	29 202 6
	movq	-272(%rbp), %rax
	movq	-264(%rbp), %rdx
	addq	$384, %rsp
	popq	%rbp
	retq
LBB88_10:
Ltmp845:
	.loc	29 0 6 is_stmt 0
	movq	-296(%rbp), %rdx
	movq	-304(%rbp), %rsi
	movl	$1, %edi
Ltmp864:
	.loc	20 438 16 is_stmt 1
	callq	__ZN4core5alloc6layout6Layout5array5inner17hfcea5a438bd54a51E
Ltmp846:
	movq	%rdx, -336(%rbp)
	movq	%rax, -328(%rbp)
	jmp	LBB88_11
LBB88_11:
	.loc	20 0 16 is_stmt 0
	movq	-336(%rbp), %rax
	movq	-328(%rbp), %rcx
	.loc	20 438 16
	movq	%rcx, -248(%rbp)
	movq	%rax, -240(%rbp)
Ltmp865:
	.loc	29 176 32 is_stmt 1
	xorl	%eax, %eax
	movl	$1, %ecx
	cmpq	$0, -240(%rbp)
	cmoveq	%rcx, %rax
	.loc	29 176 26 is_stmt 0
	cmpq	$0, %rax
	jne	LBB88_13
	.loc	29 177 20 is_stmt 1
	movq	-248(%rbp), %rcx
	movq	%rcx, -352(%rbp)
	movq	-240(%rbp), %rax
	movq	%rax, -344(%rbp)
	movq	%rcx, -120(%rbp)
	movq	%rax, -112(%rbp)
Ltmp866:
	.loc	29 177 31 is_stmt 0
	movq	%rcx, -104(%rbp)
	movq	%rax, -96(%rbp)
Ltmp867:
	.loc	29 509 9 is_stmt 1
	movabsq	$-9223372036854775807, %rax
	movq	%rax, -224(%rbp)
Ltmp868:
	.loc	29 180 19
	movabsq	$-9223372036854775807, %rdx
	movl	$1, %eax
	xorl	%ecx, %ecx
	cmpq	%rdx, -224(%rbp)
	cmoveq	%rcx, %rax
	.loc	29 180 13 is_stmt 0
	cmpq	$0, %rax
	je	LBB88_15
	jmp	LBB88_16
Ltmp869:
LBB88_13:
Ltmp847:
	.loc	29 178 27 is_stmt 1
	callq	__ZN5alloc7raw_vec17capacity_overflow17h082ee8492f253a0eE
Ltmp848:
	jmp	LBB88_14
LBB88_14:
	.loc	29 0 27 is_stmt 0
	ud2
LBB88_15:
Ltmp870:
	.loc	29 184 32 is_stmt 1
	movb	-281(%rbp), %al
	andb	$1, %al
	movzbl	%al, %eax
	.loc	29 184 26 is_stmt 0
	cmpq	$0, %rax
	je	LBB88_17
	jmp	LBB88_18
LBB88_16:
Ltmp849:
	.loc	29 182 27 is_stmt 1
	callq	__ZN5alloc7raw_vec17capacity_overflow17h082ee8492f253a0eE
Ltmp850:
	jmp	LBB88_14
LBB88_17:
Ltmp853:
	.loc	29 0 27 is_stmt 0
	movq	-344(%rbp), %rdx
	movq	-352(%rbp), %rsi
	leaq	-280(%rbp), %rdi
	.loc	29 185 45 is_stmt 1
	callq	__ZN63_$LT$alloc..alloc..Global$u20$as$u20$core..alloc..Allocator$GT$8allocate17hb3efd705a93eaecbE
Ltmp854:
	movq	%rdx, -368(%rbp)
	movq	%rax, -360(%rbp)
	jmp	LBB88_21
LBB88_18:
Ltmp851:
	.loc	29 0 45 is_stmt 0
	movq	-344(%rbp), %rdx
	movq	-352(%rbp), %rsi
	leaq	-280(%rbp), %rdi
	.loc	29 186 38 is_stmt 1
	callq	__ZN63_$LT$alloc..alloc..Global$u20$as$u20$core..alloc..Allocator$GT$15allocate_zeroed17hc65364faf3a05a8eE
Ltmp852:
	movq	%rdx, -384(%rbp)
	movq	%rax, -376(%rbp)
	jmp	LBB88_19
LBB88_19:
	.loc	29 0 38 is_stmt 0
	movq	-384(%rbp), %rax
	movq	-376(%rbp), %rcx
	.loc	29 186 38
	movq	%rcx, -216(%rbp)
	movq	%rax, -208(%rbp)
LBB88_20:
Ltmp871:
	.loc	29 188 29 is_stmt 1
	movq	-216(%rbp), %rdx
	xorl	%eax, %eax
	movl	$1, %ecx
	cmpq	$0, %rdx
	cmoveq	%rcx, %rax
	.loc	29 188 23 is_stmt 0
	cmpq	$0, %rax
	je	LBB88_22
	jmp	LBB88_23
Ltmp872:
LBB88_21:
	.loc	29 0 23
	movq	-368(%rbp), %rax
	movq	-360(%rbp), %rcx
	.loc	29 185 45 is_stmt 1
	movq	%rcx, -216(%rbp)
	movq	%rax, -208(%rbp)
	.loc	29 185 66 is_stmt 0
	jmp	LBB88_20
LBB88_22:
	.loc	29 0 66
	movq	-296(%rbp), %rax
Ltmp873:
	.loc	29 189 20 is_stmt 1
	movq	-216(%rbp), %rcx
	movq	-208(%rbp), %rdx
	movq	%rcx, -88(%rbp)
	movq	%rdx, -80(%rbp)
Ltmp874:
	.loc	29 189 28 is_stmt 0
	movq	%rcx, -72(%rbp)
	movq	%rdx, -64(%rbp)
Ltmp875:
	.loc	29 197 53 is_stmt 1
	movq	%rcx, -56(%rbp)
	movq	%rdx, -48(%rbp)
Ltmp876:
	.loc	5 450 41
	movq	%rcx, -40(%rbp)
	movq	%rdx, -32(%rbp)
	movq	%rcx, -24(%rbp)
Ltmp877:
	.loc	5 201 13
	movq	%rcx, -192(%rbp)
Ltmp878:
	.loc	5 326 9
	movq	-192(%rbp), %rcx
	movq	%rcx, -16(%rbp)
Ltmp879:
	.loc	6 87 59
	movq	%rcx, -8(%rbp)
Ltmp880:
	.loc	5 201 13
	movq	%rcx, -176(%rbp)
Ltmp881:
	.loc	6 87 18
	movq	-176(%rbp), %rcx
	movq	%rcx, -200(%rbp)
Ltmp882:
	.loc	29 196 13
	movq	-200(%rbp), %rcx
	movq	%rcx, -264(%rbp)
	movq	%rax, -272(%rbp)
Ltmp883:
	.loc	29 171 9
	jmp	LBB88_9
LBB88_23:
Ltmp855:
	.loc	29 0 9 is_stmt 0
	movq	-344(%rbp), %rsi
	movq	-352(%rbp), %rdi
Ltmp884:
	.loc	29 190 27 is_stmt 1
	callq	__ZN5alloc5alloc18handle_alloc_error17hb5f6ff255f23ea4dE
Ltmp856:
	jmp	LBB88_14
Ltmp885:
LBB88_24:
	.loc	29 169 5
	movq	-160(%rbp), %rdi
	callq	__Unwind_Resume
LBB88_25:
	.loc	29 202 5
	jmp	LBB88_24
Ltmp886:
Lfunc_end88:
	.cfi_endproc
	.section	__TEXT,__gcc_except_tab
	.p2align	2
GCC_except_table88:
Lexception16:
	.byte	255
	.byte	255
	.byte	1
	.uleb128 Lcst_end16-Lcst_begin16
Lcst_begin16:
	.uleb128 Ltmp857-Lfunc_begin88
	.uleb128 Ltmp856-Ltmp857
	.uleb128 Ltmp859-Lfunc_begin88
	.byte	0
	.uleb128 Ltmp856-Lfunc_begin88
	.uleb128 Lfunc_end88-Ltmp856
	.byte	0
	.byte	0
Lcst_end16:
	.p2align	2

	.section	__TEXT,__text,regular,pure_instructions
	.globl	__ZN5alloc7raw_vec19RawVec$LT$T$C$A$GT$11allocate_in17hbc80c25778cd0357E
	.p2align	4, 0x90
__ZN5alloc7raw_vec19RawVec$LT$T$C$A$GT$11allocate_in17hbc80c25778cd0357E:
Lfunc_begin89:
	.loc	29 169 0
	.cfi_startproc
	.cfi_personality 155, _rust_eh_personality
	.cfi_lsda 16, Lexception17
	pushq	%rbp
	.cfi_def_cfa_offset 16
	.cfi_offset %rbp, -16
	movq	%rsp, %rbp
	.cfi_def_cfa_register %rbp
	subq	$384, %rsp
	movq	%rdi, -296(%rbp)
	movb	%sil, %al
	andb	$1, %al
	movb	%al, -281(%rbp)
	movq	%rdi, -168(%rbp)
Ltmp902:
	.loc	29 171 12 prologue_end
	movb	$1, -177(%rbp)
	xorl	%eax, %eax
	testb	$1, %al
	jne	LBB89_2
	.loc	29 0 12 is_stmt 0
	movq	-296(%rbp), %rax
	.loc	29 171 25
	cmpq	$0, %rax
	sete	%al
	.loc	29 171 12
	andb	$1, %al
	movb	%al, -249(%rbp)
	jmp	LBB89_3
LBB89_2:
	movb	$1, -249(%rbp)
LBB89_3:
	testb	$1, -249(%rbp)
	jne	LBB89_5
	.loc	29 0 12
	movq	-296(%rbp), %rax
	.loc	29 176 51 is_stmt 1
	movq	%rax, -144(%rbp)
Ltmp903:
	.loc	13 459 5
	movq	$4, -136(%rbp)
Ltmp904:
	.loc	21 89 18
	movq	$4, -128(%rbp)
	movq	-128(%rbp), %rax
	movq	%rax, -304(%rbp)
	jmp	LBB89_10
Ltmp905:
LBB89_5:
	.loc	29 172 26
	movb	$0, -177(%rbp)
Ltmp899:
	.loc	29 172 13 is_stmt 0
	callq	__ZN5alloc7raw_vec19RawVec$LT$T$C$A$GT$6new_in17h5bb434ca033f707aE
Ltmp900:
	movq	%rdx, -320(%rbp)
	movq	%rax, -312(%rbp)
	jmp	LBB89_8
LBB89_6:
	.loc	29 202 5 is_stmt 1
	testb	$1, -177(%rbp)
	jne	LBB89_25
	jmp	LBB89_24
LBB89_7:
Ltmp901:
	.loc	29 0 5 is_stmt 0
	movq	%rax, %rcx
	movl	%edx, %eax
	movq	%rcx, -160(%rbp)
	movl	%eax, -152(%rbp)
	jmp	LBB89_6
LBB89_8:
	movq	-320(%rbp), %rax
	movq	-312(%rbp), %rcx
	.loc	29 172 13 is_stmt 1
	movq	%rcx, -272(%rbp)
	movq	%rax, -264(%rbp)
LBB89_9:
	.loc	29 202 6
	movq	-272(%rbp), %rax
	movq	-264(%rbp), %rdx
	addq	$384, %rsp
	popq	%rbp
	retq
LBB89_10:
Ltmp887:
	.loc	29 0 6 is_stmt 0
	movq	-296(%rbp), %rdx
	movq	-304(%rbp), %rsi
	movl	$16, %edi
Ltmp906:
	.loc	20 438 16 is_stmt 1
	callq	__ZN4core5alloc6layout6Layout5array5inner17hfcea5a438bd54a51E
Ltmp888:
	movq	%rdx, -336(%rbp)
	movq	%rax, -328(%rbp)
	jmp	LBB89_11
LBB89_11:
	.loc	20 0 16 is_stmt 0
	movq	-336(%rbp), %rax
	movq	-328(%rbp), %rcx
	.loc	20 438 16
	movq	%rcx, -248(%rbp)
	movq	%rax, -240(%rbp)
Ltmp907:
	.loc	29 176 32 is_stmt 1
	xorl	%eax, %eax
	movl	$1, %ecx
	cmpq	$0, -240(%rbp)
	cmoveq	%rcx, %rax
	.loc	29 176 26 is_stmt 0
	cmpq	$0, %rax
	jne	LBB89_13
	.loc	29 177 20 is_stmt 1
	movq	-248(%rbp), %rcx
	movq	%rcx, -352(%rbp)
	movq	-240(%rbp), %rax
	movq	%rax, -344(%rbp)
	movq	%rcx, -120(%rbp)
	movq	%rax, -112(%rbp)
Ltmp908:
	.loc	29 177 31 is_stmt 0
	movq	%rcx, -104(%rbp)
	movq	%rax, -96(%rbp)
Ltmp909:
	.loc	29 509 9 is_stmt 1
	movabsq	$-9223372036854775807, %rax
	movq	%rax, -224(%rbp)
Ltmp910:
	.loc	29 180 19
	movabsq	$-9223372036854775807, %rdx
	movl	$1, %eax
	xorl	%ecx, %ecx
	cmpq	%rdx, -224(%rbp)
	cmoveq	%rcx, %rax
	.loc	29 180 13 is_stmt 0
	cmpq	$0, %rax
	je	LBB89_15
	jmp	LBB89_16
Ltmp911:
LBB89_13:
Ltmp889:
	.loc	29 178 27 is_stmt 1
	callq	__ZN5alloc7raw_vec17capacity_overflow17h082ee8492f253a0eE
Ltmp890:
	jmp	LBB89_14
LBB89_14:
	.loc	29 0 27 is_stmt 0
	ud2
LBB89_15:
Ltmp912:
	.loc	29 184 32 is_stmt 1
	movb	-281(%rbp), %al
	andb	$1, %al
	movzbl	%al, %eax
	.loc	29 184 26 is_stmt 0
	cmpq	$0, %rax
	je	LBB89_17
	jmp	LBB89_18
LBB89_16:
Ltmp891:
	.loc	29 182 27 is_stmt 1
	callq	__ZN5alloc7raw_vec17capacity_overflow17h082ee8492f253a0eE
Ltmp892:
	jmp	LBB89_14
LBB89_17:
Ltmp895:
	.loc	29 0 27 is_stmt 0
	movq	-344(%rbp), %rdx
	movq	-352(%rbp), %rsi
	leaq	-280(%rbp), %rdi
	.loc	29 185 45 is_stmt 1
	callq	__ZN63_$LT$alloc..alloc..Global$u20$as$u20$core..alloc..Allocator$GT$8allocate17hb3efd705a93eaecbE
Ltmp896:
	movq	%rdx, -368(%rbp)
	movq	%rax, -360(%rbp)
	jmp	LBB89_21
LBB89_18:
Ltmp893:
	.loc	29 0 45 is_stmt 0
	movq	-344(%rbp), %rdx
	movq	-352(%rbp), %rsi
	leaq	-280(%rbp), %rdi
	.loc	29 186 38 is_stmt 1
	callq	__ZN63_$LT$alloc..alloc..Global$u20$as$u20$core..alloc..Allocator$GT$15allocate_zeroed17hc65364faf3a05a8eE
Ltmp894:
	movq	%rdx, -384(%rbp)
	movq	%rax, -376(%rbp)
	jmp	LBB89_19
LBB89_19:
	.loc	29 0 38 is_stmt 0
	movq	-384(%rbp), %rax
	movq	-376(%rbp), %rcx
	.loc	29 186 38
	movq	%rcx, -216(%rbp)
	movq	%rax, -208(%rbp)
LBB89_20:
Ltmp913:
	.loc	29 188 29 is_stmt 1
	movq	-216(%rbp), %rdx
	xorl	%eax, %eax
	movl	$1, %ecx
	cmpq	$0, %rdx
	cmoveq	%rcx, %rax
	.loc	29 188 23 is_stmt 0
	cmpq	$0, %rax
	je	LBB89_22
	jmp	LBB89_23
Ltmp914:
LBB89_21:
	.loc	29 0 23
	movq	-368(%rbp), %rax
	movq	-360(%rbp), %rcx
	.loc	29 185 45 is_stmt 1
	movq	%rcx, -216(%rbp)
	movq	%rax, -208(%rbp)
	.loc	29 185 66 is_stmt 0
	jmp	LBB89_20
LBB89_22:
	.loc	29 0 66
	movq	-296(%rbp), %rax
Ltmp915:
	.loc	29 189 20 is_stmt 1
	movq	-216(%rbp), %rcx
	movq	-208(%rbp), %rdx
	movq	%rcx, -88(%rbp)
	movq	%rdx, -80(%rbp)
Ltmp916:
	.loc	29 189 28 is_stmt 0
	movq	%rcx, -72(%rbp)
	movq	%rdx, -64(%rbp)
Ltmp917:
	.loc	29 197 53 is_stmt 1
	movq	%rcx, -56(%rbp)
	movq	%rdx, -48(%rbp)
Ltmp918:
	.loc	5 450 41
	movq	%rcx, -40(%rbp)
	movq	%rdx, -32(%rbp)
	movq	%rcx, -24(%rbp)
Ltmp919:
	.loc	5 201 13
	movq	%rcx, -192(%rbp)
Ltmp920:
	.loc	5 326 9
	movq	-192(%rbp), %rcx
	movq	%rcx, -16(%rbp)
Ltmp921:
	.loc	6 87 59
	movq	%rcx, -8(%rbp)
Ltmp922:
	.loc	5 201 13
	movq	%rcx, -176(%rbp)
Ltmp923:
	.loc	6 87 18
	movq	-176(%rbp), %rcx
	movq	%rcx, -200(%rbp)
Ltmp924:
	.loc	29 196 13
	movq	-200(%rbp), %rcx
	movq	%rcx, -264(%rbp)
	movq	%rax, -272(%rbp)
Ltmp925:
	.loc	29 171 9
	jmp	LBB89_9
LBB89_23:
Ltmp897:
	.loc	29 0 9 is_stmt 0
	movq	-344(%rbp), %rsi
	movq	-352(%rbp), %rdi
Ltmp926:
	.loc	29 190 27 is_stmt 1
	callq	__ZN5alloc5alloc18handle_alloc_error17hb5f6ff255f23ea4dE
Ltmp898:
	jmp	LBB89_14
Ltmp927:
LBB89_24:
	.loc	29 169 5
	movq	-160(%rbp), %rdi
	callq	__Unwind_Resume
LBB89_25:
	.loc	29 202 5
	jmp	LBB89_24
Ltmp928:
Lfunc_end89:
	.cfi_endproc
	.section	__TEXT,__gcc_except_tab
	.p2align	2
GCC_except_table89:
Lexception17:
	.byte	255
	.byte	255
	.byte	1
	.uleb128 Lcst_end17-Lcst_begin17
Lcst_begin17:
	.uleb128 Ltmp899-Lfunc_begin89
	.uleb128 Ltmp898-Ltmp899
	.uleb128 Ltmp901-Lfunc_begin89
	.byte	0
	.uleb128 Ltmp898-Lfunc_begin89
	.uleb128 Lfunc_end89-Ltmp898
	.byte	0
	.byte	0
Lcst_end17:
	.p2align	2

	.section	__TEXT,__text,regular,pure_instructions
	.globl	__ZN5alloc7raw_vec19RawVec$LT$T$C$A$GT$11allocate_in17hf4b9675758c31eabE
	.p2align	4, 0x90
__ZN5alloc7raw_vec19RawVec$LT$T$C$A$GT$11allocate_in17hf4b9675758c31eabE:
Lfunc_begin90:
	.loc	29 169 0
	.cfi_startproc
	.cfi_personality 155, _rust_eh_personality
	.cfi_lsda 16, Lexception18
	pushq	%rbp
	.cfi_def_cfa_offset 16
	.cfi_offset %rbp, -16
	movq	%rsp, %rbp
	.cfi_def_cfa_register %rbp
	subq	$384, %rsp
	movq	%rdi, -296(%rbp)
	movb	%sil, %al
	andb	$1, %al
	movb	%al, -281(%rbp)
	movq	%rdi, -168(%rbp)
Ltmp944:
	.loc	29 171 12 prologue_end
	movb	$1, -177(%rbp)
	xorl	%eax, %eax
	testb	$1, %al
	jne	LBB90_2
	.loc	29 0 12 is_stmt 0
	movq	-296(%rbp), %rax
	.loc	29 171 25
	cmpq	$0, %rax
	sete	%al
	.loc	29 171 12
	andb	$1, %al
	movb	%al, -249(%rbp)
	jmp	LBB90_3
LBB90_2:
	movb	$1, -249(%rbp)
LBB90_3:
	testb	$1, -249(%rbp)
	jne	LBB90_5
	.loc	29 0 12
	movq	-296(%rbp), %rax
	.loc	29 176 51 is_stmt 1
	movq	%rax, -144(%rbp)
Ltmp945:
	.loc	13 459 5
	movq	$8, -136(%rbp)
Ltmp946:
	.loc	21 89 18
	movq	$8, -128(%rbp)
	movq	-128(%rbp), %rax
	movq	%rax, -304(%rbp)
	jmp	LBB90_10
Ltmp947:
LBB90_5:
	.loc	29 172 26
	movb	$0, -177(%rbp)
Ltmp941:
	.loc	29 172 13 is_stmt 0
	callq	__ZN5alloc7raw_vec19RawVec$LT$T$C$A$GT$6new_in17h53bdded5831c143fE
Ltmp942:
	movq	%rdx, -320(%rbp)
	movq	%rax, -312(%rbp)
	jmp	LBB90_8
LBB90_6:
	.loc	29 202 5 is_stmt 1
	testb	$1, -177(%rbp)
	jne	LBB90_25
	jmp	LBB90_24
LBB90_7:
Ltmp943:
	.loc	29 0 5 is_stmt 0
	movq	%rax, %rcx
	movl	%edx, %eax
	movq	%rcx, -160(%rbp)
	movl	%eax, -152(%rbp)
	jmp	LBB90_6
LBB90_8:
	movq	-320(%rbp), %rax
	movq	-312(%rbp), %rcx
	.loc	29 172 13 is_stmt 1
	movq	%rcx, -272(%rbp)
	movq	%rax, -264(%rbp)
LBB90_9:
	.loc	29 202 6
	movq	-272(%rbp), %rax
	movq	-264(%rbp), %rdx
	addq	$384, %rsp
	popq	%rbp
	retq
LBB90_10:
Ltmp929:
	.loc	29 0 6 is_stmt 0
	movq	-296(%rbp), %rdx
	movq	-304(%rbp), %rsi
	movl	$8, %edi
Ltmp948:
	.loc	20 438 16 is_stmt 1
	callq	__ZN4core5alloc6layout6Layout5array5inner17hfcea5a438bd54a51E
Ltmp930:
	movq	%rdx, -336(%rbp)
	movq	%rax, -328(%rbp)
	jmp	LBB90_11
LBB90_11:
	.loc	20 0 16 is_stmt 0
	movq	-336(%rbp), %rax
	movq	-328(%rbp), %rcx
	.loc	20 438 16
	movq	%rcx, -248(%rbp)
	movq	%rax, -240(%rbp)
Ltmp949:
	.loc	29 176 32 is_stmt 1
	xorl	%eax, %eax
	movl	$1, %ecx
	cmpq	$0, -240(%rbp)
	cmoveq	%rcx, %rax
	.loc	29 176 26 is_stmt 0
	cmpq	$0, %rax
	jne	LBB90_13
	.loc	29 177 20 is_stmt 1
	movq	-248(%rbp), %rcx
	movq	%rcx, -352(%rbp)
	movq	-240(%rbp), %rax
	movq	%rax, -344(%rbp)
	movq	%rcx, -120(%rbp)
	movq	%rax, -112(%rbp)
Ltmp950:
	.loc	29 177 31 is_stmt 0
	movq	%rcx, -104(%rbp)
	movq	%rax, -96(%rbp)
Ltmp951:
	.loc	29 509 9 is_stmt 1
	movabsq	$-9223372036854775807, %rax
	movq	%rax, -224(%rbp)
Ltmp952:
	.loc	29 180 19
	movabsq	$-9223372036854775807, %rdx
	movl	$1, %eax
	xorl	%ecx, %ecx
	cmpq	%rdx, -224(%rbp)
	cmoveq	%rcx, %rax
	.loc	29 180 13 is_stmt 0
	cmpq	$0, %rax
	je	LBB90_15
	jmp	LBB90_16
Ltmp953:
LBB90_13:
Ltmp931:
	.loc	29 178 27 is_stmt 1
	callq	__ZN5alloc7raw_vec17capacity_overflow17h082ee8492f253a0eE
Ltmp932:
	jmp	LBB90_14
LBB90_14:
	.loc	29 0 27 is_stmt 0
	ud2
LBB90_15:
Ltmp954:
	.loc	29 184 32 is_stmt 1
	movb	-281(%rbp), %al
	andb	$1, %al
	movzbl	%al, %eax
	.loc	29 184 26 is_stmt 0
	cmpq	$0, %rax
	je	LBB90_17
	jmp	LBB90_18
LBB90_16:
Ltmp933:
	.loc	29 182 27 is_stmt 1
	callq	__ZN5alloc7raw_vec17capacity_overflow17h082ee8492f253a0eE
Ltmp934:
	jmp	LBB90_14
LBB90_17:
Ltmp937:
	.loc	29 0 27 is_stmt 0
	movq	-344(%rbp), %rdx
	movq	-352(%rbp), %rsi
	leaq	-280(%rbp), %rdi
	.loc	29 185 45 is_stmt 1
	callq	__ZN63_$LT$alloc..alloc..Global$u20$as$u20$core..alloc..Allocator$GT$8allocate17hb3efd705a93eaecbE
Ltmp938:
	movq	%rdx, -368(%rbp)
	movq	%rax, -360(%rbp)
	jmp	LBB90_21
LBB90_18:
Ltmp935:
	.loc	29 0 45 is_stmt 0
	movq	-344(%rbp), %rdx
	movq	-352(%rbp), %rsi
	leaq	-280(%rbp), %rdi
	.loc	29 186 38 is_stmt 1
	callq	__ZN63_$LT$alloc..alloc..Global$u20$as$u20$core..alloc..Allocator$GT$15allocate_zeroed17hc65364faf3a05a8eE
Ltmp936:
	movq	%rdx, -384(%rbp)
	movq	%rax, -376(%rbp)
	jmp	LBB90_19
LBB90_19:
	.loc	29 0 38 is_stmt 0
	movq	-384(%rbp), %rax
	movq	-376(%rbp), %rcx
	.loc	29 186 38
	movq	%rcx, -216(%rbp)
	movq	%rax, -208(%rbp)
LBB90_20:
Ltmp955:
	.loc	29 188 29 is_stmt 1
	movq	-216(%rbp), %rdx
	xorl	%eax, %eax
	movl	$1, %ecx
	cmpq	$0, %rdx
	cmoveq	%rcx, %rax
	.loc	29 188 23 is_stmt 0
	cmpq	$0, %rax
	je	LBB90_22
	jmp	LBB90_23
Ltmp956:
LBB90_21:
	.loc	29 0 23
	movq	-368(%rbp), %rax
	movq	-360(%rbp), %rcx
	.loc	29 185 45 is_stmt 1
	movq	%rcx, -216(%rbp)
	movq	%rax, -208(%rbp)
	.loc	29 185 66 is_stmt 0
	jmp	LBB90_20
LBB90_22:
	.loc	29 0 66
	movq	-296(%rbp), %rax
Ltmp957:
	.loc	29 189 20 is_stmt 1
	movq	-216(%rbp), %rcx
	movq	-208(%rbp), %rdx
	movq	%rcx, -88(%rbp)
	movq	%rdx, -80(%rbp)
Ltmp958:
	.loc	29 189 28 is_stmt 0
	movq	%rcx, -72(%rbp)
	movq	%rdx, -64(%rbp)
Ltmp959:
	.loc	29 197 53 is_stmt 1
	movq	%rcx, -56(%rbp)
	movq	%rdx, -48(%rbp)
Ltmp960:
	.loc	5 450 41
	movq	%rcx, -40(%rbp)
	movq	%rdx, -32(%rbp)
	movq	%rcx, -24(%rbp)
Ltmp961:
	.loc	5 201 13
	movq	%rcx, -192(%rbp)
Ltmp962:
	.loc	5 326 9
	movq	-192(%rbp), %rcx
	movq	%rcx, -16(%rbp)
Ltmp963:
	.loc	6 87 59
	movq	%rcx, -8(%rbp)
Ltmp964:
	.loc	5 201 13
	movq	%rcx, -176(%rbp)
Ltmp965:
	.loc	6 87 18
	movq	-176(%rbp), %rcx
	movq	%rcx, -200(%rbp)
Ltmp966:
	.loc	29 196 13
	movq	-200(%rbp), %rcx
	movq	%rcx, -264(%rbp)
	movq	%rax, -272(%rbp)
Ltmp967:
	.loc	29 171 9
	jmp	LBB90_9
LBB90_23:
Ltmp939:
	.loc	29 0 9 is_stmt 0
	movq	-344(%rbp), %rsi
	movq	-352(%rbp), %rdi
Ltmp968:
	.loc	29 190 27 is_stmt 1
	callq	__ZN5alloc5alloc18handle_alloc_error17hb5f6ff255f23ea4dE
Ltmp940:
	jmp	LBB90_14
Ltmp969:
LBB90_24:
	.loc	29 169 5
	movq	-160(%rbp), %rdi
	callq	__Unwind_Resume
LBB90_25:
	.loc	29 202 5
	jmp	LBB90_24
Ltmp970:
Lfunc_end90:
	.cfi_endproc
	.section	__TEXT,__gcc_except_tab
	.p2align	2
GCC_except_table90:
Lexception18:
	.byte	255
	.byte	255
	.byte	1
	.uleb128 Lcst_end18-Lcst_begin18
Lcst_begin18:
	.uleb128 Ltmp941-Lfunc_begin90
	.uleb128 Ltmp940-Ltmp941
	.uleb128 Ltmp943-Lfunc_begin90
	.byte	0
	.uleb128 Ltmp940-Lfunc_begin90
	.uleb128 Lfunc_end90-Ltmp940
	.byte	0
	.byte	0
Lcst_end18:
	.p2align	2

	.section	__TEXT,__text,regular,pure_instructions
	.globl	__ZN5alloc7raw_vec19RawVec$LT$T$C$A$GT$11allocate_in17hfa26cf5a98dedbb7E
	.p2align	4, 0x90
__ZN5alloc7raw_vec19RawVec$LT$T$C$A$GT$11allocate_in17hfa26cf5a98dedbb7E:
Lfunc_begin91:
	.loc	29 169 0
	.cfi_startproc
	.cfi_personality 155, _rust_eh_personality
	.cfi_lsda 16, Lexception19
	pushq	%rbp
	.cfi_def_cfa_offset 16
	.cfi_offset %rbp, -16
	movq	%rsp, %rbp
	.cfi_def_cfa_register %rbp
	subq	$384, %rsp
	movq	%rdi, -296(%rbp)
	movb	%sil, %al
	andb	$1, %al
	movb	%al, -281(%rbp)
	movq	%rdi, -168(%rbp)
Ltmp986:
	.loc	29 171 12 prologue_end
	movb	$1, -177(%rbp)
	xorl	%eax, %eax
	testb	$1, %al
	jne	LBB91_2
	.loc	29 0 12 is_stmt 0
	movq	-296(%rbp), %rax
	.loc	29 171 25
	cmpq	$0, %rax
	sete	%al
	.loc	29 171 12
	andb	$1, %al
	movb	%al, -249(%rbp)
	jmp	LBB91_3
LBB91_2:
	movb	$1, -249(%rbp)
LBB91_3:
	testb	$1, -249(%rbp)
	jne	LBB91_5
	.loc	29 0 12
	movq	-296(%rbp), %rax
	.loc	29 176 51 is_stmt 1
	movq	%rax, -144(%rbp)
Ltmp987:
	.loc	13 459 5
	movq	$8, -136(%rbp)
Ltmp988:
	.loc	21 89 18
	movq	$8, -128(%rbp)
	movq	-128(%rbp), %rax
	movq	%rax, -304(%rbp)
	jmp	LBB91_10
Ltmp989:
LBB91_5:
	.loc	29 172 26
	movb	$0, -177(%rbp)
Ltmp983:
	.loc	29 172 13 is_stmt 0
	callq	__ZN5alloc7raw_vec19RawVec$LT$T$C$A$GT$6new_in17h149712ff8bf9d820E
Ltmp984:
	movq	%rdx, -320(%rbp)
	movq	%rax, -312(%rbp)
	jmp	LBB91_8
LBB91_6:
	.loc	29 202 5 is_stmt 1
	testb	$1, -177(%rbp)
	jne	LBB91_25
	jmp	LBB91_24
LBB91_7:
Ltmp985:
	.loc	29 0 5 is_stmt 0
	movq	%rax, %rcx
	movl	%edx, %eax
	movq	%rcx, -160(%rbp)
	movl	%eax, -152(%rbp)
	jmp	LBB91_6
LBB91_8:
	movq	-320(%rbp), %rax
	movq	-312(%rbp), %rcx
	.loc	29 172 13 is_stmt 1
	movq	%rcx, -272(%rbp)
	movq	%rax, -264(%rbp)
LBB91_9:
	.loc	29 202 6
	movq	-272(%rbp), %rax
	movq	-264(%rbp), %rdx
	addq	$384, %rsp
	popq	%rbp
	retq
LBB91_10:
Ltmp971:
	.loc	29 0 6 is_stmt 0
	movq	-296(%rbp), %rdx
	movq	-304(%rbp), %rsi
	movl	$32, %edi
Ltmp990:
	.loc	20 438 16 is_stmt 1
	callq	__ZN4core5alloc6layout6Layout5array5inner17hfcea5a438bd54a51E
Ltmp972:
	movq	%rdx, -336(%rbp)
	movq	%rax, -328(%rbp)
	jmp	LBB91_11
LBB91_11:
	.loc	20 0 16 is_stmt 0
	movq	-336(%rbp), %rax
	movq	-328(%rbp), %rcx
	.loc	20 438 16
	movq	%rcx, -248(%rbp)
	movq	%rax, -240(%rbp)
Ltmp991:
	.loc	29 176 32 is_stmt 1
	xorl	%eax, %eax
	movl	$1, %ecx
	cmpq	$0, -240(%rbp)
	cmoveq	%rcx, %rax
	.loc	29 176 26 is_stmt 0
	cmpq	$0, %rax
	jne	LBB91_13
	.loc	29 177 20 is_stmt 1
	movq	-248(%rbp), %rcx
	movq	%rcx, -352(%rbp)
	movq	-240(%rbp), %rax
	movq	%rax, -344(%rbp)
	movq	%rcx, -120(%rbp)
	movq	%rax, -112(%rbp)
Ltmp992:
	.loc	29 177 31 is_stmt 0
	movq	%rcx, -104(%rbp)
	movq	%rax, -96(%rbp)
Ltmp993:
	.loc	29 509 9 is_stmt 1
	movabsq	$-9223372036854775807, %rax
	movq	%rax, -224(%rbp)
Ltmp994:
	.loc	29 180 19
	movabsq	$-9223372036854775807, %rdx
	movl	$1, %eax
	xorl	%ecx, %ecx
	cmpq	%rdx, -224(%rbp)
	cmoveq	%rcx, %rax
	.loc	29 180 13 is_stmt 0
	cmpq	$0, %rax
	je	LBB91_15
	jmp	LBB91_16
Ltmp995:
LBB91_13:
Ltmp973:
	.loc	29 178 27 is_stmt 1
	callq	__ZN5alloc7raw_vec17capacity_overflow17h082ee8492f253a0eE
Ltmp974:
	jmp	LBB91_14
LBB91_14:
	.loc	29 0 27 is_stmt 0
	ud2
LBB91_15:
Ltmp996:
	.loc	29 184 32 is_stmt 1
	movb	-281(%rbp), %al
	andb	$1, %al
	movzbl	%al, %eax
	.loc	29 184 26 is_stmt 0
	cmpq	$0, %rax
	je	LBB91_17
	jmp	LBB91_18
LBB91_16:
Ltmp975:
	.loc	29 182 27 is_stmt 1
	callq	__ZN5alloc7raw_vec17capacity_overflow17h082ee8492f253a0eE
Ltmp976:
	jmp	LBB91_14
LBB91_17:
Ltmp979:
	.loc	29 0 27 is_stmt 0
	movq	-344(%rbp), %rdx
	movq	-352(%rbp), %rsi
	leaq	-280(%rbp), %rdi
	.loc	29 185 45 is_stmt 1
	callq	__ZN63_$LT$alloc..alloc..Global$u20$as$u20$core..alloc..Allocator$GT$8allocate17hb3efd705a93eaecbE
Ltmp980:
	movq	%rdx, -368(%rbp)
	movq	%rax, -360(%rbp)
	jmp	LBB91_21
LBB91_18:
Ltmp977:
	.loc	29 0 45 is_stmt 0
	movq	-344(%rbp), %rdx
	movq	-352(%rbp), %rsi
	leaq	-280(%rbp), %rdi
	.loc	29 186 38 is_stmt 1
	callq	__ZN63_$LT$alloc..alloc..Global$u20$as$u20$core..alloc..Allocator$GT$15allocate_zeroed17hc65364faf3a05a8eE
Ltmp978:
	movq	%rdx, -384(%rbp)
	movq	%rax, -376(%rbp)
	jmp	LBB91_19
LBB91_19:
	.loc	29 0 38 is_stmt 0
	movq	-384(%rbp), %rax
	movq	-376(%rbp), %rcx
	.loc	29 186 38
	movq	%rcx, -216(%rbp)
	movq	%rax, -208(%rbp)
LBB91_20:
Ltmp997:
	.loc	29 188 29 is_stmt 1
	movq	-216(%rbp), %rdx
	xorl	%eax, %eax
	movl	$1, %ecx
	cmpq	$0, %rdx
	cmoveq	%rcx, %rax
	.loc	29 188 23 is_stmt 0
	cmpq	$0, %rax
	je	LBB91_22
	jmp	LBB91_23
Ltmp998:
LBB91_21:
	.loc	29 0 23
	movq	-368(%rbp), %rax
	movq	-360(%rbp), %rcx
	.loc	29 185 45 is_stmt 1
	movq	%rcx, -216(%rbp)
	movq	%rax, -208(%rbp)
	.loc	29 185 66 is_stmt 0
	jmp	LBB91_20
LBB91_22:
	.loc	29 0 66
	movq	-296(%rbp), %rax
Ltmp999:
	.loc	29 189 20 is_stmt 1
	movq	-216(%rbp), %rcx
	movq	-208(%rbp), %rdx
	movq	%rcx, -88(%rbp)
	movq	%rdx, -80(%rbp)
Ltmp1000:
	.loc	29 189 28 is_stmt 0
	movq	%rcx, -72(%rbp)
	movq	%rdx, -64(%rbp)
Ltmp1001:
	.loc	29 197 53 is_stmt 1
	movq	%rcx, -56(%rbp)
	movq	%rdx, -48(%rbp)
Ltmp1002:
	.loc	5 450 41
	movq	%rcx, -40(%rbp)
	movq	%rdx, -32(%rbp)
	movq	%rcx, -24(%rbp)
Ltmp1003:
	.loc	5 201 13
	movq	%rcx, -192(%rbp)
Ltmp1004:
	.loc	5 326 9
	movq	-192(%rbp), %rcx
	movq	%rcx, -16(%rbp)
Ltmp1005:
	.loc	6 87 59
	movq	%rcx, -8(%rbp)
Ltmp1006:
	.loc	5 201 13
	movq	%rcx, -176(%rbp)
Ltmp1007:
	.loc	6 87 18
	movq	-176(%rbp), %rcx
	movq	%rcx, -200(%rbp)
Ltmp1008:
	.loc	29 196 13
	movq	-200(%rbp), %rcx
	movq	%rcx, -264(%rbp)
	movq	%rax, -272(%rbp)
Ltmp1009:
	.loc	29 171 9
	jmp	LBB91_9
LBB91_23:
Ltmp981:
	.loc	29 0 9 is_stmt 0
	movq	-344(%rbp), %rsi
	movq	-352(%rbp), %rdi
Ltmp1010:
	.loc	29 190 27 is_stmt 1
	callq	__ZN5alloc5alloc18handle_alloc_error17hb5f6ff255f23ea4dE
Ltmp982:
	jmp	LBB91_14
Ltmp1011:
LBB91_24:
	.loc	29 169 5
	movq	-160(%rbp), %rdi
	callq	__Unwind_Resume
LBB91_25:
	.loc	29 202 5
	jmp	LBB91_24
Ltmp1012:
Lfunc_end91:
	.cfi_endproc
	.section	__TEXT,__gcc_except_tab
	.p2align	2
GCC_except_table91:
Lexception19:
	.byte	255
	.byte	255
	.byte	1
	.uleb128 Lcst_end19-Lcst_begin19
Lcst_begin19:
	.uleb128 Ltmp983-Lfunc_begin91
	.uleb128 Ltmp982-Ltmp983
	.uleb128 Ltmp985-Lfunc_begin91
	.byte	0
	.uleb128 Ltmp982-Lfunc_begin91
	.uleb128 Lfunc_end91-Ltmp982
	.byte	0
	.byte	0
Lcst_end19:
	.p2align	2

	.section	__TEXT,__text,regular,pure_instructions
	.globl	__ZN5alloc7raw_vec19RawVec$LT$T$C$A$GT$13needs_to_grow17h6f9b2da322801aacE
	.p2align	4, 0x90
__ZN5alloc7raw_vec19RawVec$LT$T$C$A$GT$13needs_to_grow17h6f9b2da322801aacE:
Lfunc_begin92:
	.loc	29 360 0
	.cfi_startproc
	pushq	%rbp
	.cfi_def_cfa_offset 16
	.cfi_offset %rbp, -16
	movq	%rsp, %rbp
	.cfi_def_cfa_register %rbp
	subq	$72, %rsp
	movq	%rdi, -72(%rbp)
	movq	%rsi, -64(%rbp)
	movq	%rdx, -56(%rbp)
	movq	%rdi, -40(%rbp)
	movq	%rsi, -32(%rbp)
	movq	%rdx, -24(%rbp)
Ltmp1013:
	.loc	29 361 22 prologue_end
	movq	%rdi, -16(%rbp)
Ltmp1014:
	.loc	29 232 12
	xorl	%eax, %eax
	testb	$1, %al
	jne	LBB92_2
	.loc	29 0 12 is_stmt 0
	movq	-72(%rbp), %rax
	.loc	29 232 44
	movq	(%rax), %rax
	movq	%rax, -48(%rbp)
	.loc	29 232 9
	jmp	LBB92_3
LBB92_2:
	.loc	29 232 24
	movq	$-1, -48(%rbp)
Ltmp1015:
LBB92_3:
	.loc	29 0 24
	movq	-56(%rbp), %rax
	movq	-64(%rbp), %rdx
	.loc	29 361 51 is_stmt 1
	movq	%rdx, -8(%rbp)
Ltmp1016:
	.loc	10 1203 38
	movq	-48(%rbp), %rcx
	.loc	10 1203 13 is_stmt 0
	subq	%rdx, %rcx
Ltmp1017:
	.loc	29 361 9 is_stmt 1
	cmpq	%rcx, %rax
	seta	%al
	.loc	29 362 6
	andb	$1, %al
	movzbl	%al, %eax
	addq	$72, %rsp
	popq	%rbp
	retq
Ltmp1018:
Lfunc_end92:
	.cfi_endproc

	.globl	__ZN5alloc7raw_vec19RawVec$LT$T$C$A$GT$14current_memory17h4c8828ea8b40012cE
	.p2align	4, 0x90
__ZN5alloc7raw_vec19RawVec$LT$T$C$A$GT$14current_memory17h4c8828ea8b40012cE:
Lfunc_begin93:
	.loc	29 240 0
	.cfi_startproc
	pushq	%rbp
	.cfi_def_cfa_offset 16
	.cfi_offset %rbp, -16
	movq	%rsp, %rbp
	.cfi_def_cfa_register %rbp
	subq	$176, %rsp
	movq	%rsi, -152(%rbp)
	movq	%rdi, -144(%rbp)
	movq	%rdi, -136(%rbp)
	movq	%rsi, -80(%rbp)
Ltmp1019:
	.loc	29 241 12 prologue_end
	xorl	%eax, %eax
	testb	$1, %al
	jne	LBB93_2
	.loc	29 0 12 is_stmt 0
	movq	-152(%rbp), %rax
	.loc	29 241 25
	cmpq	$0, (%rax)
	sete	%al
	.loc	29 241 12
	andb	$1, %al
	movb	%al, -121(%rbp)
	jmp	LBB93_3
LBB93_2:
	movb	$1, -121(%rbp)
LBB93_3:
	testb	$1, -121(%rbp)
	jne	LBB93_5
	.loc	29 0 12
	movq	-152(%rbp), %rax
	.loc	29 247 49 is_stmt 1
	movq	(%rax), %rdx
	movq	%rdx, -72(%rbp)
Ltmp1020:
	.loc	13 459 5
	movq	$1, -64(%rbp)
Ltmp1021:
	.loc	21 89 18
	movq	$1, -56(%rbp)
	movq	-56(%rbp), %rsi
Ltmp1022:
	.loc	20 438 16
	movl	$1, %edi
	callq	__ZN4core5alloc6layout6Layout5array5inner17hfcea5a438bd54a51E
	movq	%rax, %rdi
	movq	%rdx, %rsi
Ltmp1023:
	.loc	29 247 30
	leaq	l___unnamed_3(%rip), %rdx
	callq	__ZN4core6result19Result$LT$T$C$E$GT$16unwrap_unchecked17h2aa96a907d27b753E
	movq	%rax, %rcx
	movq	-152(%rbp), %rax
	movq	%rcx, -168(%rbp)
	movq	%rdx, -160(%rbp)
	movq	%rcx, -48(%rbp)
	movq	%rdx, -40(%rbp)
Ltmp1024:
	.loc	29 248 23
	movq	8(%rax), %rax
	movq	%rax, -32(%rbp)
Ltmp1025:
	.loc	6 137 22
	movq	%rax, -24(%rbp)
Ltmp1026:
	.loc	5 450 41
	movq	%rax, -16(%rbp)
	movq	%rax, -8(%rbp)
Ltmp1027:
	.loc	5 201 13
	movq	%rax, -88(%rbp)
Ltmp1028:
	.loc	6 191 18
	movq	-88(%rbp), %rax
	.loc	6 191 9 is_stmt 0
	movq	%rax, -96(%rbp)
Ltmp1029:
	.loc	29 248 23 is_stmt 1
	movq	-96(%rbp), %rdi
	callq	__ZN50_$LT$T$u20$as$u20$core..convert..Into$LT$U$GT$$GT$4into17h96ce23c5a1a6b81eE
	movq	-168(%rbp), %rcx
	movq	-160(%rbp), %rdx
	movq	%rax, %rsi
	movq	-144(%rbp), %rax
	.loc	29 248 22 is_stmt 0
	movq	%rsi, -120(%rbp)
	movq	%rcx, -112(%rbp)
	movq	%rdx, -104(%rbp)
	.loc	29 248 17
	movq	-120(%rbp), %rcx
	movq	%rcx, (%rax)
	movq	-112(%rbp), %rcx
	movq	%rcx, 8(%rax)
	movq	-104(%rbp), %rcx
	movq	%rcx, 16(%rax)
Ltmp1030:
	.loc	29 241 9 is_stmt 1
	jmp	LBB93_6
LBB93_5:
	.loc	29 0 9 is_stmt 0
	movq	-144(%rbp), %rax
	.loc	29 242 13 is_stmt 1
	movq	$0, 16(%rax)
LBB93_6:
	.loc	29 0 13 is_stmt 0
	movq	-136(%rbp), %rax
	.loc	29 251 6 is_stmt 1
	addq	$176, %rsp
	popq	%rbp
	retq
Ltmp1031:
Lfunc_end93:
	.cfi_endproc

	.globl	__ZN5alloc7raw_vec19RawVec$LT$T$C$A$GT$14current_memory17h610cef07f99adce3E
	.p2align	4, 0x90
__ZN5alloc7raw_vec19RawVec$LT$T$C$A$GT$14current_memory17h610cef07f99adce3E:
Lfunc_begin94:
	.loc	29 240 0
	.cfi_startproc
	pushq	%rbp
	.cfi_def_cfa_offset 16
	.cfi_offset %rbp, -16
	movq	%rsp, %rbp
	.cfi_def_cfa_register %rbp
	subq	$176, %rsp
	movq	%rsi, -152(%rbp)
	movq	%rdi, -144(%rbp)
	movq	%rdi, -136(%rbp)
	movq	%rsi, -80(%rbp)
Ltmp1032:
	.loc	29 241 12 prologue_end
	xorl	%eax, %eax
	testb	$1, %al
	jne	LBB94_2
	.loc	29 0 12 is_stmt 0
	movq	-152(%rbp), %rax
	.loc	29 241 25
	cmpq	$0, (%rax)
	sete	%al
	.loc	29 241 12
	andb	$1, %al
	movb	%al, -121(%rbp)
	jmp	LBB94_3
LBB94_2:
	movb	$1, -121(%rbp)
LBB94_3:
	testb	$1, -121(%rbp)
	jne	LBB94_5
	.loc	29 0 12
	movq	-152(%rbp), %rax
	.loc	29 247 49 is_stmt 1
	movq	(%rax), %rdx
	movq	%rdx, -72(%rbp)
Ltmp1033:
	.loc	13 459 5
	movq	$4, -64(%rbp)
Ltmp1034:
	.loc	21 89 18
	movq	$4, -56(%rbp)
	movq	-56(%rbp), %rsi
Ltmp1035:
	.loc	20 438 16
	movl	$16, %edi
	callq	__ZN4core5alloc6layout6Layout5array5inner17hfcea5a438bd54a51E
	movq	%rax, %rdi
	movq	%rdx, %rsi
Ltmp1036:
	.loc	29 247 30
	leaq	l___unnamed_3(%rip), %rdx
	callq	__ZN4core6result19Result$LT$T$C$E$GT$16unwrap_unchecked17h2aa96a907d27b753E
	movq	%rax, %rcx
	movq	-152(%rbp), %rax
	movq	%rcx, -168(%rbp)
	movq	%rdx, -160(%rbp)
	movq	%rcx, -48(%rbp)
	movq	%rdx, -40(%rbp)
Ltmp1037:
	.loc	29 248 23
	movq	8(%rax), %rax
	movq	%rax, -32(%rbp)
Ltmp1038:
	.loc	6 137 22
	movq	%rax, -24(%rbp)
Ltmp1039:
	.loc	5 450 41
	movq	%rax, -16(%rbp)
	movq	%rax, -8(%rbp)
Ltmp1040:
	.loc	5 201 13
	movq	%rax, -88(%rbp)
Ltmp1041:
	.loc	6 191 18
	movq	-88(%rbp), %rax
	.loc	6 191 9 is_stmt 0
	movq	%rax, -96(%rbp)
Ltmp1042:
	.loc	29 248 23 is_stmt 1
	movq	-96(%rbp), %rdi
	callq	__ZN50_$LT$T$u20$as$u20$core..convert..Into$LT$U$GT$$GT$4into17h96ce23c5a1a6b81eE
	movq	-168(%rbp), %rcx
	movq	-160(%rbp), %rdx
	movq	%rax, %rsi
	movq	-144(%rbp), %rax
	.loc	29 248 22 is_stmt 0
	movq	%rsi, -120(%rbp)
	movq	%rcx, -112(%rbp)
	movq	%rdx, -104(%rbp)
	.loc	29 248 17
	movq	-120(%rbp), %rcx
	movq	%rcx, (%rax)
	movq	-112(%rbp), %rcx
	movq	%rcx, 8(%rax)
	movq	-104(%rbp), %rcx
	movq	%rcx, 16(%rax)
Ltmp1043:
	.loc	29 241 9 is_stmt 1
	jmp	LBB94_6
LBB94_5:
	.loc	29 0 9 is_stmt 0
	movq	-144(%rbp), %rax
	.loc	29 242 13 is_stmt 1
	movq	$0, 16(%rax)
LBB94_6:
	.loc	29 0 13 is_stmt 0
	movq	-136(%rbp), %rax
	.loc	29 251 6 is_stmt 1
	addq	$176, %rsp
	popq	%rbp
	retq
Ltmp1044:
Lfunc_end94:
	.cfi_endproc

	.globl	__ZN5alloc7raw_vec19RawVec$LT$T$C$A$GT$14current_memory17h7a8b8de7d813fa88E
	.p2align	4, 0x90
__ZN5alloc7raw_vec19RawVec$LT$T$C$A$GT$14current_memory17h7a8b8de7d813fa88E:
Lfunc_begin95:
	.loc	29 240 0
	.cfi_startproc
	pushq	%rbp
	.cfi_def_cfa_offset 16
	.cfi_offset %rbp, -16
	movq	%rsp, %rbp
	.cfi_def_cfa_register %rbp
	subq	$176, %rsp
	movq	%rsi, -152(%rbp)
	movq	%rdi, -144(%rbp)
	movq	%rdi, -136(%rbp)
	movq	%rsi, -80(%rbp)
Ltmp1045:
	.loc	29 241 12 prologue_end
	xorl	%eax, %eax
	testb	$1, %al
	jne	LBB95_2
	.loc	29 0 12 is_stmt 0
	movq	-152(%rbp), %rax
	.loc	29 241 25
	cmpq	$0, (%rax)
	sete	%al
	.loc	29 241 12
	andb	$1, %al
	movb	%al, -121(%rbp)
	jmp	LBB95_3
LBB95_2:
	movb	$1, -121(%rbp)
LBB95_3:
	testb	$1, -121(%rbp)
	jne	LBB95_5
	.loc	29 0 12
	movq	-152(%rbp), %rax
	.loc	29 247 49 is_stmt 1
	movq	(%rax), %rdx
	movq	%rdx, -72(%rbp)
Ltmp1046:
	.loc	13 459 5
	movq	$8, -64(%rbp)
Ltmp1047:
	.loc	21 89 18
	movq	$8, -56(%rbp)
	movq	-56(%rbp), %rsi
Ltmp1048:
	.loc	20 438 16
	movl	$8, %edi
	callq	__ZN4core5alloc6layout6Layout5array5inner17hfcea5a438bd54a51E
	movq	%rax, %rdi
	movq	%rdx, %rsi
Ltmp1049:
	.loc	29 247 30
	leaq	l___unnamed_3(%rip), %rdx
	callq	__ZN4core6result19Result$LT$T$C$E$GT$16unwrap_unchecked17h2aa96a907d27b753E
	movq	%rax, %rcx
	movq	-152(%rbp), %rax
	movq	%rcx, -168(%rbp)
	movq	%rdx, -160(%rbp)
	movq	%rcx, -48(%rbp)
	movq	%rdx, -40(%rbp)
Ltmp1050:
	.loc	29 248 23
	movq	8(%rax), %rax
	movq	%rax, -32(%rbp)
Ltmp1051:
	.loc	6 137 22
	movq	%rax, -24(%rbp)
Ltmp1052:
	.loc	5 450 41
	movq	%rax, -16(%rbp)
	movq	%rax, -8(%rbp)
Ltmp1053:
	.loc	5 201 13
	movq	%rax, -88(%rbp)
Ltmp1054:
	.loc	6 191 18
	movq	-88(%rbp), %rax
	.loc	6 191 9 is_stmt 0
	movq	%rax, -96(%rbp)
Ltmp1055:
	.loc	29 248 23 is_stmt 1
	movq	-96(%rbp), %rdi
	callq	__ZN50_$LT$T$u20$as$u20$core..convert..Into$LT$U$GT$$GT$4into17h96ce23c5a1a6b81eE
	movq	-168(%rbp), %rcx
	movq	-160(%rbp), %rdx
	movq	%rax, %rsi
	movq	-144(%rbp), %rax
	.loc	29 248 22 is_stmt 0
	movq	%rsi, -120(%rbp)
	movq	%rcx, -112(%rbp)
	movq	%rdx, -104(%rbp)
	.loc	29 248 17
	movq	-120(%rbp), %rcx
	movq	%rcx, (%rax)
	movq	-112(%rbp), %rcx
	movq	%rcx, 8(%rax)
	movq	-104(%rbp), %rcx
	movq	%rcx, 16(%rax)
Ltmp1056:
	.loc	29 241 9 is_stmt 1
	jmp	LBB95_6
LBB95_5:
	.loc	29 0 9 is_stmt 0
	movq	-144(%rbp), %rax
	.loc	29 242 13 is_stmt 1
	movq	$0, 16(%rax)
LBB95_6:
	.loc	29 0 13 is_stmt 0
	movq	-136(%rbp), %rax
	.loc	29 251 6 is_stmt 1
	addq	$176, %rsp
	popq	%rbp
	retq
Ltmp1057:
Lfunc_end95:
	.cfi_endproc

	.globl	__ZN5alloc7raw_vec19RawVec$LT$T$C$A$GT$14current_memory17h8ea15762c7301383E
	.p2align	4, 0x90
__ZN5alloc7raw_vec19RawVec$LT$T$C$A$GT$14current_memory17h8ea15762c7301383E:
Lfunc_begin96:
	.loc	29 240 0
	.cfi_startproc
	pushq	%rbp
	.cfi_def_cfa_offset 16
	.cfi_offset %rbp, -16
	movq	%rsp, %rbp
	.cfi_def_cfa_register %rbp
	subq	$176, %rsp
	movq	%rsi, -152(%rbp)
	movq	%rdi, -144(%rbp)
	movq	%rdi, -136(%rbp)
	movq	%rsi, -80(%rbp)
Ltmp1058:
	.loc	29 241 12 prologue_end
	xorl	%eax, %eax
	testb	$1, %al
	jne	LBB96_2
	.loc	29 0 12 is_stmt 0
	movq	-152(%rbp), %rax
	.loc	29 241 25
	cmpq	$0, (%rax)
	sete	%al
	.loc	29 241 12
	andb	$1, %al
	movb	%al, -121(%rbp)
	jmp	LBB96_3
LBB96_2:
	movb	$1, -121(%rbp)
LBB96_3:
	testb	$1, -121(%rbp)
	jne	LBB96_5
	.loc	29 0 12
	movq	-152(%rbp), %rax
	.loc	29 247 49 is_stmt 1
	movq	(%rax), %rdx
	movq	%rdx, -72(%rbp)
Ltmp1059:
	.loc	13 459 5
	movq	$8, -64(%rbp)
Ltmp1060:
	.loc	21 89 18
	movq	$8, -56(%rbp)
	movq	-56(%rbp), %rsi
Ltmp1061:
	.loc	20 438 16
	movl	$32, %edi
	callq	__ZN4core5alloc6layout6Layout5array5inner17hfcea5a438bd54a51E
	movq	%rax, %rdi
	movq	%rdx, %rsi
Ltmp1062:
	.loc	29 247 30
	leaq	l___unnamed_3(%rip), %rdx
	callq	__ZN4core6result19Result$LT$T$C$E$GT$16unwrap_unchecked17h2aa96a907d27b753E
	movq	%rax, %rcx
	movq	-152(%rbp), %rax
	movq	%rcx, -168(%rbp)
	movq	%rdx, -160(%rbp)
	movq	%rcx, -48(%rbp)
	movq	%rdx, -40(%rbp)
Ltmp1063:
	.loc	29 248 23
	movq	8(%rax), %rax
	movq	%rax, -32(%rbp)
Ltmp1064:
	.loc	6 137 22
	movq	%rax, -24(%rbp)
Ltmp1065:
	.loc	5 450 41
	movq	%rax, -16(%rbp)
	movq	%rax, -8(%rbp)
Ltmp1066:
	.loc	5 201 13
	movq	%rax, -88(%rbp)
Ltmp1067:
	.loc	6 191 18
	movq	-88(%rbp), %rax
	.loc	6 191 9 is_stmt 0
	movq	%rax, -96(%rbp)
Ltmp1068:
	.loc	29 248 23 is_stmt 1
	movq	-96(%rbp), %rdi
	callq	__ZN50_$LT$T$u20$as$u20$core..convert..Into$LT$U$GT$$GT$4into17h96ce23c5a1a6b81eE
	movq	-168(%rbp), %rcx
	movq	-160(%rbp), %rdx
	movq	%rax, %rsi
	movq	-144(%rbp), %rax
	.loc	29 248 22 is_stmt 0
	movq	%rsi, -120(%rbp)
	movq	%rcx, -112(%rbp)
	movq	%rdx, -104(%rbp)
	.loc	29 248 17
	movq	-120(%rbp), %rcx
	movq	%rcx, (%rax)
	movq	-112(%rbp), %rcx
	movq	%rcx, 8(%rax)
	movq	-104(%rbp), %rcx
	movq	%rcx, 16(%rax)
Ltmp1069:
	.loc	29 241 9 is_stmt 1
	jmp	LBB96_6
LBB96_5:
	.loc	29 0 9 is_stmt 0
	movq	-144(%rbp), %rax
	.loc	29 242 13 is_stmt 1
	movq	$0, 16(%rax)
LBB96_6:
	.loc	29 0 13 is_stmt 0
	movq	-136(%rbp), %rax
	.loc	29 251 6 is_stmt 1
	addq	$176, %rsp
	popq	%rbp
	retq
Ltmp1070:
Lfunc_end96:
	.cfi_endproc

	.globl	__ZN5alloc7raw_vec19RawVec$LT$T$C$A$GT$14current_memory17hbe13b565437e65f7E
	.p2align	4, 0x90
__ZN5alloc7raw_vec19RawVec$LT$T$C$A$GT$14current_memory17hbe13b565437e65f7E:
Lfunc_begin97:
	.loc	29 240 0
	.cfi_startproc
	pushq	%rbp
	.cfi_def_cfa_offset 16
	.cfi_offset %rbp, -16
	movq	%rsp, %rbp
	.cfi_def_cfa_register %rbp
	subq	$176, %rsp
	movq	%rsi, -152(%rbp)
	movq	%rdi, -144(%rbp)
	movq	%rdi, -136(%rbp)
	movq	%rsi, -80(%rbp)
Ltmp1071:
	.loc	29 241 12 prologue_end
	xorl	%eax, %eax
	testb	$1, %al
	jne	LBB97_2
	.loc	29 0 12 is_stmt 0
	movq	-152(%rbp), %rax
	.loc	29 241 25
	cmpq	$0, (%rax)
	sete	%al
	.loc	29 241 12
	andb	$1, %al
	movb	%al, -121(%rbp)
	jmp	LBB97_3
LBB97_2:
	movb	$1, -121(%rbp)
LBB97_3:
	testb	$1, -121(%rbp)
	jne	LBB97_5
	.loc	29 0 12
	movq	-152(%rbp), %rax
	.loc	29 247 49 is_stmt 1
	movq	(%rax), %rdx
	movq	%rdx, -72(%rbp)
Ltmp1072:
	.loc	13 459 5
	movq	$8, -64(%rbp)
Ltmp1073:
	.loc	21 89 18
	movq	$8, -56(%rbp)
	movq	-56(%rbp), %rsi
Ltmp1074:
	.loc	20 438 16
	movl	$8, %edi
	callq	__ZN4core5alloc6layout6Layout5array5inner17hfcea5a438bd54a51E
	movq	%rax, %rdi
	movq	%rdx, %rsi
Ltmp1075:
	.loc	29 247 30
	leaq	l___unnamed_3(%rip), %rdx
	callq	__ZN4core6result19Result$LT$T$C$E$GT$16unwrap_unchecked17h2aa96a907d27b753E
	movq	%rax, %rcx
	movq	-152(%rbp), %rax
	movq	%rcx, -168(%rbp)
	movq	%rdx, -160(%rbp)
	movq	%rcx, -48(%rbp)
	movq	%rdx, -40(%rbp)
Ltmp1076:
	.loc	29 248 23
	movq	8(%rax), %rax
	movq	%rax, -32(%rbp)
Ltmp1077:
	.loc	6 137 22
	movq	%rax, -24(%rbp)
Ltmp1078:
	.loc	5 450 41
	movq	%rax, -16(%rbp)
	movq	%rax, -8(%rbp)
Ltmp1079:
	.loc	5 201 13
	movq	%rax, -88(%rbp)
Ltmp1080:
	.loc	6 191 18
	movq	-88(%rbp), %rax
	.loc	6 191 9 is_stmt 0
	movq	%rax, -96(%rbp)
Ltmp1081:
	.loc	29 248 23 is_stmt 1
	movq	-96(%rbp), %rdi
	callq	__ZN50_$LT$T$u20$as$u20$core..convert..Into$LT$U$GT$$GT$4into17h96ce23c5a1a6b81eE
	movq	-168(%rbp), %rcx
	movq	-160(%rbp), %rdx
	movq	%rax, %rsi
	movq	-144(%rbp), %rax
	.loc	29 248 22 is_stmt 0
	movq	%rsi, -120(%rbp)
	movq	%rcx, -112(%rbp)
	movq	%rdx, -104(%rbp)
	.loc	29 248 17
	movq	-120(%rbp), %rcx
	movq	%rcx, (%rax)
	movq	-112(%rbp), %rcx
	movq	%rcx, 8(%rax)
	movq	-104(%rbp), %rcx
	movq	%rcx, 16(%rax)
Ltmp1082:
	.loc	29 241 9 is_stmt 1
	jmp	LBB97_6
LBB97_5:
	.loc	29 0 9 is_stmt 0
	movq	-144(%rbp), %rax
	.loc	29 242 13 is_stmt 1
	movq	$0, 16(%rax)
LBB97_6:
	.loc	29 0 13 is_stmt 0
	movq	-136(%rbp), %rax
	.loc	29 251 6 is_stmt 1
	addq	$176, %rsp
	popq	%rbp
	retq
Ltmp1083:
Lfunc_end97:
	.cfi_endproc

	.globl	__ZN5alloc7raw_vec19RawVec$LT$T$C$A$GT$14grow_amortized17h24aa32e6760eb96bE
	.p2align	4, 0x90
__ZN5alloc7raw_vec19RawVec$LT$T$C$A$GT$14grow_amortized17h24aa32e6760eb96bE:
Lfunc_begin98:
	.loc	29 379 0
	.cfi_startproc
	pushq	%rbp
	.cfi_def_cfa_offset 16
	.cfi_offset %rbp, -16
	movq	%rsp, %rbp
	.cfi_def_cfa_register %rbp
	subq	$656, %rsp
	movq	%rdi, -624(%rbp)
	movq	%rsi, -616(%rbp)
	movq	%rdx, -608(%rbp)
	movq	%rdi, -352(%rbp)
	movq	%rsi, -344(%rbp)
	movq	%rdx, -336(%rbp)
Ltmp1084:
	.loc	29 383 12 prologue_end
	xorl	%eax, %eax
	testb	$1, %al
	jne	LBB98_2
	.loc	29 0 12 is_stmt 0
	movq	-608(%rbp), %rsi
	movq	-616(%rbp), %rdi
	.loc	29 390 28 is_stmt 1
	callq	__ZN4core3num23_$LT$impl$u20$usize$GT$11checked_add17hf5b42367cbf54898E
	movq	%rdx, -528(%rbp)
	movq	%rax, -536(%rbp)
	.loc	29 390 62 is_stmt 0
	movq	$0, -512(%rbp)
Ltmp1085:
	.loc	24 1096 9 is_stmt 1
	cmpq	$0, -536(%rbp)
	je	LBB98_4
	jmp	LBB98_5
Ltmp1086:
LBB98_2:
	.loc	29 386 24
	movq	$0, -576(%rbp)
	movq	-584(%rbp), %rdi
	movq	-576(%rbp), %rsi
	callq	__ZN50_$LT$T$u20$as$u20$core..convert..Into$LT$U$GT$$GT$4into17h0d8af4e4027c736cE
	.loc	29 386 20 is_stmt 0
	movq	%rax, -600(%rbp)
	movq	%rdx, -592(%rbp)
LBB98_3:
	.loc	29 403 6 is_stmt 1
	movq	-600(%rbp), %rax
	movq	-592(%rbp), %rdx
	addq	$656, %rsp
	popq	%rbp
	retq
LBB98_4:
Ltmp1087:
	.loc	24 1098 25
	movq	-520(%rbp), %rcx
	movq	-512(%rbp), %rax
	.loc	24 1098 21 is_stmt 0
	movq	%rcx, -552(%rbp)
	movq	%rax, -544(%rbp)
	.loc	24 1098 28
	jmp	LBB98_6
LBB98_5:
	.loc	24 1097 18 is_stmt 1
	movq	-528(%rbp), %rax
	movq	%rax, -328(%rbp)
Ltmp1088:
	.loc	24 1097 24 is_stmt 0
	movq	%rax, -552(%rbp)
	movabsq	$-9223372036854775807, %rax
	movq	%rax, -544(%rbp)
Ltmp1089:
LBB98_6:
	.loc	25 2091 15 is_stmt 1
	movabsq	$-9223372036854775807, %rdx
	movl	$1, %eax
	xorl	%ecx, %ecx
	cmpq	%rdx, -544(%rbp)
	cmoveq	%rcx, %rax
	.loc	25 2091 9 is_stmt 0
	cmpq	$0, %rax
	jne	LBB98_8
	.loc	25 2092 16 is_stmt 1
	movq	-552(%rbp), %rax
	movq	%rax, -304(%rbp)
Ltmp1090:
	.loc	25 2092 22 is_stmt 0
	movq	%rax, -568(%rbp)
	movabsq	$-9223372036854775807, %rax
	movq	%rax, -560(%rbp)
Ltmp1091:
	.loc	25 2092 45
	jmp	LBB98_9
LBB98_8:
	.loc	25 2093 17 is_stmt 1
	movq	-552(%rbp), %rcx
	movq	-544(%rbp), %rax
	movq	%rcx, -320(%rbp)
	movq	%rax, -312(%rbp)
Ltmp1092:
	.loc	25 2093 42 is_stmt 0
	movq	%rcx, -400(%rbp)
	movq	%rax, -392(%rbp)
	.loc	25 2093 23
	movq	-400(%rbp), %rcx
	movq	-392(%rbp), %rax
	movq	%rcx, -568(%rbp)
	movq	%rax, -560(%rbp)
Ltmp1093:
LBB98_9:
	.loc	29 390 28 is_stmt 1
	movabsq	$-9223372036854775807, %rdx
	movl	$1, %eax
	xorl	%ecx, %ecx
	cmpq	%rdx, -560(%rbp)
	cmoveq	%rcx, %rax
	cmpq	$0, %rax
	jne	LBB98_11
	.loc	29 0 28 is_stmt 0
	movq	-624(%rbp), %rax
	.loc	29 390 28
	movq	-568(%rbp), %rsi
	movq	%rsi, -248(%rbp)
Ltmp1094:
	.loc	29 390 28
	movq	%rsi, -240(%rbp)
Ltmp1095:
	.loc	29 394 28 is_stmt 1
	movq	(%rax), %rdi
	shlq	$1, %rdi
	movq	%rdi, -232(%rbp)
	.loc	29 394 42 is_stmt 0
	movq	%rsi, -224(%rbp)
Ltmp1096:
	.loc	11 1276 5 is_stmt 1
	movq	%rdi, -216(%rbp)
	.loc	11 1276 12 is_stmt 0
	movq	%rsi, -208(%rbp)
Ltmp1097:
	.loc	11 803 13 is_stmt 1
	callq	__ZN4core3cmp6max_by17hffd83987ac06665fE
	movq	%rax, %rsi
	movq	%rsi, -200(%rbp)
Ltmp1098:
	.loc	29 395 52
	movq	%rsi, -192(%rbp)
	.loc	29 395 19 is_stmt 0
	movq	$4, -184(%rbp)
Ltmp1099:
	.loc	11 1276 5 is_stmt 1
	movq	$4, -176(%rbp)
	.loc	11 1276 12 is_stmt 0
	movq	%rsi, -168(%rbp)
Ltmp1100:
	.loc	11 803 13 is_stmt 1
	movl	$4, %edi
	callq	__ZN4core3cmp6max_by17hffd83987ac06665fE
	movq	%rax, %rdx
	movq	%rdx, -648(%rbp)
	movq	%rdx, -160(%rbp)
Ltmp1101:
	.loc	29 397 45
	movq	%rdx, -152(%rbp)
Ltmp1102:
	.loc	13 459 5
	movq	$4, -144(%rbp)
Ltmp1103:
	.loc	21 89 18
	movq	$4, -136(%rbp)
	movq	-136(%rbp), %rsi
Ltmp1104:
	.loc	20 438 16
	movl	$16, %edi
	callq	__ZN4core5alloc6layout6Layout5array5inner17hfcea5a438bd54a51E
	movq	-624(%rbp), %rsi
	movq	%rax, -640(%rbp)
	movq	%rdx, -632(%rbp)
	movq	%rax, -128(%rbp)
	movq	%rdx, -120(%rbp)
Ltmp1105:
	.loc	29 400 43
	leaq	-440(%rbp), %rdi
	callq	__ZN5alloc7raw_vec19RawVec$LT$T$C$A$GT$14current_memory17h610cef07f99adce3E
	movq	-640(%rbp), %rsi
	movq	-632(%rbp), %rdx
	movq	-624(%rbp), %r8
	.loc	29 400 19 is_stmt 0
	leaq	-464(%rbp), %rdi
	leaq	-440(%rbp), %rcx
	callq	__ZN5alloc7raw_vec11finish_grow17hc334644a51487bd2E
Ltmp1106:
	.loc	25 2091 9 is_stmt 1
	cmpq	$0, -464(%rbp)
	je	LBB98_13
	jmp	LBB98_14
Ltmp1107:
LBB98_11:
	.loc	29 390 79
	movq	-568(%rbp), %rcx
	movq	-560(%rbp), %rax
	movq	%rcx, -296(%rbp)
	movq	%rax, -288(%rbp)
Ltmp1108:
	.loc	29 390 79 is_stmt 0
	movq	%rcx, -504(%rbp)
	movq	%rax, -496(%rbp)
Ltmp1109:
	.loc	25 2107 17 is_stmt 1
	movq	-504(%rbp), %rcx
	movq	-496(%rbp), %rax
	movq	%rcx, -280(%rbp)
	movq	%rax, -272(%rbp)
Ltmp1110:
	.loc	25 2107 38 is_stmt 0
	movq	%rcx, -264(%rbp)
	movq	%rax, -256(%rbp)
Ltmp1111:
	.loc	7 117 9 is_stmt 1
	movq	%rcx, -384(%rbp)
	movq	%rax, -376(%rbp)
Ltmp1112:
	.loc	25 2107 23
	movq	-384(%rbp), %rcx
	movq	-376(%rbp), %rax
	movq	%rcx, -600(%rbp)
	movq	%rax, -592(%rbp)
Ltmp1113:
LBB98_12:
	.loc	18 1 1
	jmp	LBB98_3
LBB98_13:
Ltmp1114:
	.loc	25 2092 16
	movq	-456(%rbp), %rcx
	movq	-448(%rbp), %rax
	movq	%rcx, -96(%rbp)
	movq	%rax, -88(%rbp)
Ltmp1115:
	.loc	25 2092 22 is_stmt 0
	movq	%rcx, -480(%rbp)
	movq	%rax, -472(%rbp)
	movq	$0, -488(%rbp)
Ltmp1116:
	.loc	25 2092 45
	jmp	LBB98_15
LBB98_14:
	.loc	25 2093 17 is_stmt 1
	movq	-456(%rbp), %rcx
	movq	-448(%rbp), %rax
	movq	%rcx, -112(%rbp)
	movq	%rax, -104(%rbp)
Ltmp1117:
	.loc	25 2093 42 is_stmt 0
	movq	%rcx, -368(%rbp)
	movq	%rax, -360(%rbp)
	.loc	25 2093 23
	movq	-368(%rbp), %rcx
	movq	-360(%rbp), %rax
	movq	%rcx, -480(%rbp)
	movq	%rax, -472(%rbp)
	movq	$1, -488(%rbp)
Ltmp1118:
LBB98_15:
	.loc	29 400 19 is_stmt 1
	cmpq	$0, -488(%rbp)
	jne	LBB98_17
	.loc	29 0 19 is_stmt 0
	movq	-648(%rbp), %rcx
	movq	-624(%rbp), %rdi
	.loc	29 400 19
	movq	-480(%rbp), %rsi
	movq	-472(%rbp), %rdx
	movq	%rsi, -32(%rbp)
	movq	%rdx, -24(%rbp)
Ltmp1119:
	.loc	29 400 19
	movq	%rsi, -16(%rbp)
	movq	%rdx, -8(%rbp)
Ltmp1120:
	.loc	29 401 9 is_stmt 1
	callq	__ZN5alloc7raw_vec19RawVec$LT$T$C$A$GT$15set_ptr_and_cap17h1eb39d0d7dcbb80fE
	.loc	29 402 9
	movabsq	$-9223372036854775807, %rax
	movq	%rax, -592(%rbp)
Ltmp1121:
	.loc	29 403 6
	jmp	LBB98_3
LBB98_17:
Ltmp1122:
	.loc	29 400 82
	movq	-480(%rbp), %rcx
	movq	-472(%rbp), %rax
	movq	%rcx, -80(%rbp)
	movq	%rax, -72(%rbp)
Ltmp1123:
	.loc	29 400 82 is_stmt 0
	movq	%rcx, -416(%rbp)
	movq	%rax, -408(%rbp)
Ltmp1124:
	.loc	25 2107 17 is_stmt 1
	movq	-416(%rbp), %rcx
	movq	-408(%rbp), %rax
	movq	%rcx, -64(%rbp)
	movq	%rax, -56(%rbp)
Ltmp1125:
	.loc	25 2107 38 is_stmt 0
	movq	%rcx, -48(%rbp)
	movq	%rax, -40(%rbp)
	.loc	25 2107 23
	movq	%rcx, -600(%rbp)
	movq	%rax, -592(%rbp)
Ltmp1126:
	.loc	18 1 1 is_stmt 1
	jmp	LBB98_12
Ltmp1127:
Lfunc_end98:
	.cfi_endproc

	.globl	__ZN5alloc7raw_vec19RawVec$LT$T$C$A$GT$14grow_amortized17h27d02754272fc2e3E
	.p2align	4, 0x90
__ZN5alloc7raw_vec19RawVec$LT$T$C$A$GT$14grow_amortized17h27d02754272fc2e3E:
Lfunc_begin99:
	.loc	29 379 0
	.cfi_startproc
	pushq	%rbp
	.cfi_def_cfa_offset 16
	.cfi_offset %rbp, -16
	movq	%rsp, %rbp
	.cfi_def_cfa_register %rbp
	subq	$656, %rsp
	movq	%rdi, -624(%rbp)
	movq	%rsi, -616(%rbp)
	movq	%rdx, -608(%rbp)
	movq	%rdi, -352(%rbp)
	movq	%rsi, -344(%rbp)
	movq	%rdx, -336(%rbp)
Ltmp1128:
	.loc	29 383 12 prologue_end
	xorl	%eax, %eax
	testb	$1, %al
	jne	LBB99_2
	.loc	29 0 12 is_stmt 0
	movq	-608(%rbp), %rsi
	movq	-616(%rbp), %rdi
	.loc	29 390 28 is_stmt 1
	callq	__ZN4core3num23_$LT$impl$u20$usize$GT$11checked_add17hf5b42367cbf54898E
	movq	%rdx, -528(%rbp)
	movq	%rax, -536(%rbp)
	.loc	29 390 62 is_stmt 0
	movq	$0, -512(%rbp)
Ltmp1129:
	.loc	24 1096 9 is_stmt 1
	cmpq	$0, -536(%rbp)
	je	LBB99_4
	jmp	LBB99_5
Ltmp1130:
LBB99_2:
	.loc	29 386 24
	movq	$0, -576(%rbp)
	movq	-584(%rbp), %rdi
	movq	-576(%rbp), %rsi
	callq	__ZN50_$LT$T$u20$as$u20$core..convert..Into$LT$U$GT$$GT$4into17h0d8af4e4027c736cE
	.loc	29 386 20 is_stmt 0
	movq	%rax, -600(%rbp)
	movq	%rdx, -592(%rbp)
LBB99_3:
	.loc	29 403 6 is_stmt 1
	movq	-600(%rbp), %rax
	movq	-592(%rbp), %rdx
	addq	$656, %rsp
	popq	%rbp
	retq
LBB99_4:
Ltmp1131:
	.loc	24 1098 25
	movq	-520(%rbp), %rcx
	movq	-512(%rbp), %rax
	.loc	24 1098 21 is_stmt 0
	movq	%rcx, -552(%rbp)
	movq	%rax, -544(%rbp)
	.loc	24 1098 28
	jmp	LBB99_6
LBB99_5:
	.loc	24 1097 18 is_stmt 1
	movq	-528(%rbp), %rax
	movq	%rax, -328(%rbp)
Ltmp1132:
	.loc	24 1097 24 is_stmt 0
	movq	%rax, -552(%rbp)
	movabsq	$-9223372036854775807, %rax
	movq	%rax, -544(%rbp)
Ltmp1133:
LBB99_6:
	.loc	25 2091 15 is_stmt 1
	movabsq	$-9223372036854775807, %rdx
	movl	$1, %eax
	xorl	%ecx, %ecx
	cmpq	%rdx, -544(%rbp)
	cmoveq	%rcx, %rax
	.loc	25 2091 9 is_stmt 0
	cmpq	$0, %rax
	jne	LBB99_8
	.loc	25 2092 16 is_stmt 1
	movq	-552(%rbp), %rax
	movq	%rax, -304(%rbp)
Ltmp1134:
	.loc	25 2092 22 is_stmt 0
	movq	%rax, -568(%rbp)
	movabsq	$-9223372036854775807, %rax
	movq	%rax, -560(%rbp)
Ltmp1135:
	.loc	25 2092 45
	jmp	LBB99_9
LBB99_8:
	.loc	25 2093 17 is_stmt 1
	movq	-552(%rbp), %rcx
	movq	-544(%rbp), %rax
	movq	%rcx, -320(%rbp)
	movq	%rax, -312(%rbp)
Ltmp1136:
	.loc	25 2093 42 is_stmt 0
	movq	%rcx, -400(%rbp)
	movq	%rax, -392(%rbp)
	.loc	25 2093 23
	movq	-400(%rbp), %rcx
	movq	-392(%rbp), %rax
	movq	%rcx, -568(%rbp)
	movq	%rax, -560(%rbp)
Ltmp1137:
LBB99_9:
	.loc	29 390 28 is_stmt 1
	movabsq	$-9223372036854775807, %rdx
	movl	$1, %eax
	xorl	%ecx, %ecx
	cmpq	%rdx, -560(%rbp)
	cmoveq	%rcx, %rax
	cmpq	$0, %rax
	jne	LBB99_11
	.loc	29 0 28 is_stmt 0
	movq	-624(%rbp), %rax
	.loc	29 390 28
	movq	-568(%rbp), %rsi
	movq	%rsi, -248(%rbp)
Ltmp1138:
	.loc	29 390 28
	movq	%rsi, -240(%rbp)
Ltmp1139:
	.loc	29 394 28 is_stmt 1
	movq	(%rax), %rdi
	shlq	$1, %rdi
	movq	%rdi, -232(%rbp)
	.loc	29 394 42 is_stmt 0
	movq	%rsi, -224(%rbp)
Ltmp1140:
	.loc	11 1276 5 is_stmt 1
	movq	%rdi, -216(%rbp)
	.loc	11 1276 12 is_stmt 0
	movq	%rsi, -208(%rbp)
Ltmp1141:
	.loc	11 803 13 is_stmt 1
	callq	__ZN4core3cmp6max_by17hffd83987ac06665fE
	movq	%rax, %rsi
	movq	%rsi, -200(%rbp)
Ltmp1142:
	.loc	29 395 52
	movq	%rsi, -192(%rbp)
	.loc	29 395 19 is_stmt 0
	movq	$4, -184(%rbp)
Ltmp1143:
	.loc	11 1276 5 is_stmt 1
	movq	$4, -176(%rbp)
	.loc	11 1276 12 is_stmt 0
	movq	%rsi, -168(%rbp)
Ltmp1144:
	.loc	11 803 13 is_stmt 1
	movl	$4, %edi
	callq	__ZN4core3cmp6max_by17hffd83987ac06665fE
	movq	%rax, %rdx
	movq	%rdx, -648(%rbp)
	movq	%rdx, -160(%rbp)
Ltmp1145:
	.loc	29 397 45
	movq	%rdx, -152(%rbp)
Ltmp1146:
	.loc	13 459 5
	movq	$8, -144(%rbp)
Ltmp1147:
	.loc	21 89 18
	movq	$8, -136(%rbp)
	movq	-136(%rbp), %rsi
Ltmp1148:
	.loc	20 438 16
	movl	$8, %edi
	callq	__ZN4core5alloc6layout6Layout5array5inner17hfcea5a438bd54a51E
	movq	-624(%rbp), %rsi
	movq	%rax, -640(%rbp)
	movq	%rdx, -632(%rbp)
	movq	%rax, -128(%rbp)
	movq	%rdx, -120(%rbp)
Ltmp1149:
	.loc	29 400 43
	leaq	-440(%rbp), %rdi
	callq	__ZN5alloc7raw_vec19RawVec$LT$T$C$A$GT$14current_memory17h7a8b8de7d813fa88E
	movq	-640(%rbp), %rsi
	movq	-632(%rbp), %rdx
	movq	-624(%rbp), %r8
	.loc	29 400 19 is_stmt 0
	leaq	-464(%rbp), %rdi
	leaq	-440(%rbp), %rcx
	callq	__ZN5alloc7raw_vec11finish_grow17hc334644a51487bd2E
Ltmp1150:
	.loc	25 2091 9 is_stmt 1
	cmpq	$0, -464(%rbp)
	je	LBB99_13
	jmp	LBB99_14
Ltmp1151:
LBB99_11:
	.loc	29 390 79
	movq	-568(%rbp), %rcx
	movq	-560(%rbp), %rax
	movq	%rcx, -296(%rbp)
	movq	%rax, -288(%rbp)
Ltmp1152:
	.loc	29 390 79 is_stmt 0
	movq	%rcx, -504(%rbp)
	movq	%rax, -496(%rbp)
Ltmp1153:
	.loc	25 2107 17 is_stmt 1
	movq	-504(%rbp), %rcx
	movq	-496(%rbp), %rax
	movq	%rcx, -280(%rbp)
	movq	%rax, -272(%rbp)
Ltmp1154:
	.loc	25 2107 38 is_stmt 0
	movq	%rcx, -264(%rbp)
	movq	%rax, -256(%rbp)
Ltmp1155:
	.loc	7 117 9 is_stmt 1
	movq	%rcx, -384(%rbp)
	movq	%rax, -376(%rbp)
Ltmp1156:
	.loc	25 2107 23
	movq	-384(%rbp), %rcx
	movq	-376(%rbp), %rax
	movq	%rcx, -600(%rbp)
	movq	%rax, -592(%rbp)
Ltmp1157:
LBB99_12:
	.loc	18 1 1
	jmp	LBB99_3
LBB99_13:
Ltmp1158:
	.loc	25 2092 16
	movq	-456(%rbp), %rcx
	movq	-448(%rbp), %rax
	movq	%rcx, -96(%rbp)
	movq	%rax, -88(%rbp)
Ltmp1159:
	.loc	25 2092 22 is_stmt 0
	movq	%rcx, -480(%rbp)
	movq	%rax, -472(%rbp)
	movq	$0, -488(%rbp)
Ltmp1160:
	.loc	25 2092 45
	jmp	LBB99_15
LBB99_14:
	.loc	25 2093 17 is_stmt 1
	movq	-456(%rbp), %rcx
	movq	-448(%rbp), %rax
	movq	%rcx, -112(%rbp)
	movq	%rax, -104(%rbp)
Ltmp1161:
	.loc	25 2093 42 is_stmt 0
	movq	%rcx, -368(%rbp)
	movq	%rax, -360(%rbp)
	.loc	25 2093 23
	movq	-368(%rbp), %rcx
	movq	-360(%rbp), %rax
	movq	%rcx, -480(%rbp)
	movq	%rax, -472(%rbp)
	movq	$1, -488(%rbp)
Ltmp1162:
LBB99_15:
	.loc	29 400 19 is_stmt 1
	cmpq	$0, -488(%rbp)
	jne	LBB99_17
	.loc	29 0 19 is_stmt 0
	movq	-648(%rbp), %rcx
	movq	-624(%rbp), %rdi
	.loc	29 400 19
	movq	-480(%rbp), %rsi
	movq	-472(%rbp), %rdx
	movq	%rsi, -32(%rbp)
	movq	%rdx, -24(%rbp)
Ltmp1163:
	.loc	29 400 19
	movq	%rsi, -16(%rbp)
	movq	%rdx, -8(%rbp)
Ltmp1164:
	.loc	29 401 9 is_stmt 1
	callq	__ZN5alloc7raw_vec19RawVec$LT$T$C$A$GT$15set_ptr_and_cap17ha61a0b43283c3f95E
	.loc	29 402 9
	movabsq	$-9223372036854775807, %rax
	movq	%rax, -592(%rbp)
Ltmp1165:
	.loc	29 403 6
	jmp	LBB99_3
LBB99_17:
Ltmp1166:
	.loc	29 400 82
	movq	-480(%rbp), %rcx
	movq	-472(%rbp), %rax
	movq	%rcx, -80(%rbp)
	movq	%rax, -72(%rbp)
Ltmp1167:
	.loc	29 400 82 is_stmt 0
	movq	%rcx, -416(%rbp)
	movq	%rax, -408(%rbp)
Ltmp1168:
	.loc	25 2107 17 is_stmt 1
	movq	-416(%rbp), %rcx
	movq	-408(%rbp), %rax
	movq	%rcx, -64(%rbp)
	movq	%rax, -56(%rbp)
Ltmp1169:
	.loc	25 2107 38 is_stmt 0
	movq	%rcx, -48(%rbp)
	movq	%rax, -40(%rbp)
	.loc	25 2107 23
	movq	%rcx, -600(%rbp)
	movq	%rax, -592(%rbp)
Ltmp1170:
	.loc	18 1 1 is_stmt 1
	jmp	LBB99_12
Ltmp1171:
Lfunc_end99:
	.cfi_endproc

	.globl	__ZN5alloc7raw_vec19RawVec$LT$T$C$A$GT$14grow_amortized17h4ad60132956c6d59E
	.p2align	4, 0x90
__ZN5alloc7raw_vec19RawVec$LT$T$C$A$GT$14grow_amortized17h4ad60132956c6d59E:
Lfunc_begin100:
	.loc	29 379 0
	.cfi_startproc
	pushq	%rbp
	.cfi_def_cfa_offset 16
	.cfi_offset %rbp, -16
	movq	%rsp, %rbp
	.cfi_def_cfa_register %rbp
	subq	$656, %rsp
	movq	%rdi, -624(%rbp)
	movq	%rsi, -616(%rbp)
	movq	%rdx, -608(%rbp)
	movq	%rdi, -352(%rbp)
	movq	%rsi, -344(%rbp)
	movq	%rdx, -336(%rbp)
Ltmp1172:
	.loc	29 383 12 prologue_end
	xorl	%eax, %eax
	testb	$1, %al
	jne	LBB100_2
	.loc	29 0 12 is_stmt 0
	movq	-608(%rbp), %rsi
	movq	-616(%rbp), %rdi
	.loc	29 390 28 is_stmt 1
	callq	__ZN4core3num23_$LT$impl$u20$usize$GT$11checked_add17hf5b42367cbf54898E
	movq	%rdx, -528(%rbp)
	movq	%rax, -536(%rbp)
	.loc	29 390 62 is_stmt 0
	movq	$0, -512(%rbp)
Ltmp1173:
	.loc	24 1096 9 is_stmt 1
	cmpq	$0, -536(%rbp)
	je	LBB100_4
	jmp	LBB100_5
Ltmp1174:
LBB100_2:
	.loc	29 386 24
	movq	$0, -576(%rbp)
	movq	-584(%rbp), %rdi
	movq	-576(%rbp), %rsi
	callq	__ZN50_$LT$T$u20$as$u20$core..convert..Into$LT$U$GT$$GT$4into17h0d8af4e4027c736cE
	.loc	29 386 20 is_stmt 0
	movq	%rax, -600(%rbp)
	movq	%rdx, -592(%rbp)
LBB100_3:
	.loc	29 403 6 is_stmt 1
	movq	-600(%rbp), %rax
	movq	-592(%rbp), %rdx
	addq	$656, %rsp
	popq	%rbp
	retq
LBB100_4:
Ltmp1175:
	.loc	24 1098 25
	movq	-520(%rbp), %rcx
	movq	-512(%rbp), %rax
	.loc	24 1098 21 is_stmt 0
	movq	%rcx, -552(%rbp)
	movq	%rax, -544(%rbp)
	.loc	24 1098 28
	jmp	LBB100_6
LBB100_5:
	.loc	24 1097 18 is_stmt 1
	movq	-528(%rbp), %rax
	movq	%rax, -328(%rbp)
Ltmp1176:
	.loc	24 1097 24 is_stmt 0
	movq	%rax, -552(%rbp)
	movabsq	$-9223372036854775807, %rax
	movq	%rax, -544(%rbp)
Ltmp1177:
LBB100_6:
	.loc	25 2091 15 is_stmt 1
	movabsq	$-9223372036854775807, %rdx
	movl	$1, %eax
	xorl	%ecx, %ecx
	cmpq	%rdx, -544(%rbp)
	cmoveq	%rcx, %rax
	.loc	25 2091 9 is_stmt 0
	cmpq	$0, %rax
	jne	LBB100_8
	.loc	25 2092 16 is_stmt 1
	movq	-552(%rbp), %rax
	movq	%rax, -304(%rbp)
Ltmp1178:
	.loc	25 2092 22 is_stmt 0
	movq	%rax, -568(%rbp)
	movabsq	$-9223372036854775807, %rax
	movq	%rax, -560(%rbp)
Ltmp1179:
	.loc	25 2092 45
	jmp	LBB100_9
LBB100_8:
	.loc	25 2093 17 is_stmt 1
	movq	-552(%rbp), %rcx
	movq	-544(%rbp), %rax
	movq	%rcx, -320(%rbp)
	movq	%rax, -312(%rbp)
Ltmp1180:
	.loc	25 2093 42 is_stmt 0
	movq	%rcx, -400(%rbp)
	movq	%rax, -392(%rbp)
	.loc	25 2093 23
	movq	-400(%rbp), %rcx
	movq	-392(%rbp), %rax
	movq	%rcx, -568(%rbp)
	movq	%rax, -560(%rbp)
Ltmp1181:
LBB100_9:
	.loc	29 390 28 is_stmt 1
	movabsq	$-9223372036854775807, %rdx
	movl	$1, %eax
	xorl	%ecx, %ecx
	cmpq	%rdx, -560(%rbp)
	cmoveq	%rcx, %rax
	cmpq	$0, %rax
	jne	LBB100_11
	.loc	29 0 28 is_stmt 0
	movq	-624(%rbp), %rax
	.loc	29 390 28
	movq	-568(%rbp), %rsi
	movq	%rsi, -248(%rbp)
Ltmp1182:
	.loc	29 390 28
	movq	%rsi, -240(%rbp)
Ltmp1183:
	.loc	29 394 28 is_stmt 1
	movq	(%rax), %rdi
	shlq	$1, %rdi
	movq	%rdi, -232(%rbp)
	.loc	29 394 42 is_stmt 0
	movq	%rsi, -224(%rbp)
Ltmp1184:
	.loc	11 1276 5 is_stmt 1
	movq	%rdi, -216(%rbp)
	.loc	11 1276 12 is_stmt 0
	movq	%rsi, -208(%rbp)
Ltmp1185:
	.loc	11 803 13 is_stmt 1
	callq	__ZN4core3cmp6max_by17hffd83987ac06665fE
	movq	%rax, %rsi
	movq	%rsi, -200(%rbp)
Ltmp1186:
	.loc	29 395 52
	movq	%rsi, -192(%rbp)
	.loc	29 395 19 is_stmt 0
	movq	$4, -184(%rbp)
Ltmp1187:
	.loc	11 1276 5 is_stmt 1
	movq	$4, -176(%rbp)
	.loc	11 1276 12 is_stmt 0
	movq	%rsi, -168(%rbp)
Ltmp1188:
	.loc	11 803 13 is_stmt 1
	movl	$4, %edi
	callq	__ZN4core3cmp6max_by17hffd83987ac06665fE
	movq	%rax, %rdx
	movq	%rdx, -648(%rbp)
	movq	%rdx, -160(%rbp)
Ltmp1189:
	.loc	29 397 45
	movq	%rdx, -152(%rbp)
Ltmp1190:
	.loc	13 459 5
	movq	$8, -144(%rbp)
Ltmp1191:
	.loc	21 89 18
	movq	$8, -136(%rbp)
	movq	-136(%rbp), %rsi
Ltmp1192:
	.loc	20 438 16
	movl	$8, %edi
	callq	__ZN4core5alloc6layout6Layout5array5inner17hfcea5a438bd54a51E
	movq	-624(%rbp), %rsi
	movq	%rax, -640(%rbp)
	movq	%rdx, -632(%rbp)
	movq	%rax, -128(%rbp)
	movq	%rdx, -120(%rbp)
Ltmp1193:
	.loc	29 400 43
	leaq	-440(%rbp), %rdi
	callq	__ZN5alloc7raw_vec19RawVec$LT$T$C$A$GT$14current_memory17hbe13b565437e65f7E
	movq	-640(%rbp), %rsi
	movq	-632(%rbp), %rdx
	movq	-624(%rbp), %r8
	.loc	29 400 19 is_stmt 0
	leaq	-464(%rbp), %rdi
	leaq	-440(%rbp), %rcx
	callq	__ZN5alloc7raw_vec11finish_grow17hc334644a51487bd2E
Ltmp1194:
	.loc	25 2091 9 is_stmt 1
	cmpq	$0, -464(%rbp)
	je	LBB100_13
	jmp	LBB100_14
Ltmp1195:
LBB100_11:
	.loc	29 390 79
	movq	-568(%rbp), %rcx
	movq	-560(%rbp), %rax
	movq	%rcx, -296(%rbp)
	movq	%rax, -288(%rbp)
Ltmp1196:
	.loc	29 390 79 is_stmt 0
	movq	%rcx, -504(%rbp)
	movq	%rax, -496(%rbp)
Ltmp1197:
	.loc	25 2107 17 is_stmt 1
	movq	-504(%rbp), %rcx
	movq	-496(%rbp), %rax
	movq	%rcx, -280(%rbp)
	movq	%rax, -272(%rbp)
Ltmp1198:
	.loc	25 2107 38 is_stmt 0
	movq	%rcx, -264(%rbp)
	movq	%rax, -256(%rbp)
Ltmp1199:
	.loc	7 117 9 is_stmt 1
	movq	%rcx, -384(%rbp)
	movq	%rax, -376(%rbp)
Ltmp1200:
	.loc	25 2107 23
	movq	-384(%rbp), %rcx
	movq	-376(%rbp), %rax
	movq	%rcx, -600(%rbp)
	movq	%rax, -592(%rbp)
Ltmp1201:
LBB100_12:
	.loc	18 1 1
	jmp	LBB100_3
LBB100_13:
Ltmp1202:
	.loc	25 2092 16
	movq	-456(%rbp), %rcx
	movq	-448(%rbp), %rax
	movq	%rcx, -96(%rbp)
	movq	%rax, -88(%rbp)
Ltmp1203:
	.loc	25 2092 22 is_stmt 0
	movq	%rcx, -480(%rbp)
	movq	%rax, -472(%rbp)
	movq	$0, -488(%rbp)
Ltmp1204:
	.loc	25 2092 45
	jmp	LBB100_15
LBB100_14:
	.loc	25 2093 17 is_stmt 1
	movq	-456(%rbp), %rcx
	movq	-448(%rbp), %rax
	movq	%rcx, -112(%rbp)
	movq	%rax, -104(%rbp)
Ltmp1205:
	.loc	25 2093 42 is_stmt 0
	movq	%rcx, -368(%rbp)
	movq	%rax, -360(%rbp)
	.loc	25 2093 23
	movq	-368(%rbp), %rcx
	movq	-360(%rbp), %rax
	movq	%rcx, -480(%rbp)
	movq	%rax, -472(%rbp)
	movq	$1, -488(%rbp)
Ltmp1206:
LBB100_15:
	.loc	29 400 19 is_stmt 1
	cmpq	$0, -488(%rbp)
	jne	LBB100_17
	.loc	29 0 19 is_stmt 0
	movq	-648(%rbp), %rcx
	movq	-624(%rbp), %rdi
	.loc	29 400 19
	movq	-480(%rbp), %rsi
	movq	-472(%rbp), %rdx
	movq	%rsi, -32(%rbp)
	movq	%rdx, -24(%rbp)
Ltmp1207:
	.loc	29 400 19
	movq	%rsi, -16(%rbp)
	movq	%rdx, -8(%rbp)
Ltmp1208:
	.loc	29 401 9 is_stmt 1
	callq	__ZN5alloc7raw_vec19RawVec$LT$T$C$A$GT$15set_ptr_and_cap17h0ac2b3412317a215E
	.loc	29 402 9
	movabsq	$-9223372036854775807, %rax
	movq	%rax, -592(%rbp)
Ltmp1209:
	.loc	29 403 6
	jmp	LBB100_3
LBB100_17:
Ltmp1210:
	.loc	29 400 82
	movq	-480(%rbp), %rcx
	movq	-472(%rbp), %rax
	movq	%rcx, -80(%rbp)
	movq	%rax, -72(%rbp)
Ltmp1211:
	.loc	29 400 82 is_stmt 0
	movq	%rcx, -416(%rbp)
	movq	%rax, -408(%rbp)
Ltmp1212:
	.loc	25 2107 17 is_stmt 1
	movq	-416(%rbp), %rcx
	movq	-408(%rbp), %rax
	movq	%rcx, -64(%rbp)
	movq	%rax, -56(%rbp)
Ltmp1213:
	.loc	25 2107 38 is_stmt 0
	movq	%rcx, -48(%rbp)
	movq	%rax, -40(%rbp)
	.loc	25 2107 23
	movq	%rcx, -600(%rbp)
	movq	%rax, -592(%rbp)
Ltmp1214:
	.loc	18 1 1 is_stmt 1
	jmp	LBB100_12
Ltmp1215:
Lfunc_end100:
	.cfi_endproc

	.globl	__ZN5alloc7raw_vec19RawVec$LT$T$C$A$GT$14grow_amortized17h5823a23b55686e6cE
	.p2align	4, 0x90
__ZN5alloc7raw_vec19RawVec$LT$T$C$A$GT$14grow_amortized17h5823a23b55686e6cE:
Lfunc_begin101:
	.loc	29 379 0
	.cfi_startproc
	pushq	%rbp
	.cfi_def_cfa_offset 16
	.cfi_offset %rbp, -16
	movq	%rsp, %rbp
	.cfi_def_cfa_register %rbp
	subq	$656, %rsp
	movq	%rdi, -624(%rbp)
	movq	%rsi, -616(%rbp)
	movq	%rdx, -608(%rbp)
	movq	%rdi, -352(%rbp)
	movq	%rsi, -344(%rbp)
	movq	%rdx, -336(%rbp)
Ltmp1216:
	.loc	29 383 12 prologue_end
	xorl	%eax, %eax
	testb	$1, %al
	jne	LBB101_2
	.loc	29 0 12 is_stmt 0
	movq	-608(%rbp), %rsi
	movq	-616(%rbp), %rdi
	.loc	29 390 28 is_stmt 1
	callq	__ZN4core3num23_$LT$impl$u20$usize$GT$11checked_add17hf5b42367cbf54898E
	movq	%rdx, -528(%rbp)
	movq	%rax, -536(%rbp)
	.loc	29 390 62 is_stmt 0
	movq	$0, -512(%rbp)
Ltmp1217:
	.loc	24 1096 9 is_stmt 1
	cmpq	$0, -536(%rbp)
	je	LBB101_4
	jmp	LBB101_5
Ltmp1218:
LBB101_2:
	.loc	29 386 24
	movq	$0, -576(%rbp)
	movq	-584(%rbp), %rdi
	movq	-576(%rbp), %rsi
	callq	__ZN50_$LT$T$u20$as$u20$core..convert..Into$LT$U$GT$$GT$4into17h0d8af4e4027c736cE
	.loc	29 386 20 is_stmt 0
	movq	%rax, -600(%rbp)
	movq	%rdx, -592(%rbp)
LBB101_3:
	.loc	29 403 6 is_stmt 1
	movq	-600(%rbp), %rax
	movq	-592(%rbp), %rdx
	addq	$656, %rsp
	popq	%rbp
	retq
LBB101_4:
Ltmp1219:
	.loc	24 1098 25
	movq	-520(%rbp), %rcx
	movq	-512(%rbp), %rax
	.loc	24 1098 21 is_stmt 0
	movq	%rcx, -552(%rbp)
	movq	%rax, -544(%rbp)
	.loc	24 1098 28
	jmp	LBB101_6
LBB101_5:
	.loc	24 1097 18 is_stmt 1
	movq	-528(%rbp), %rax
	movq	%rax, -328(%rbp)
Ltmp1220:
	.loc	24 1097 24 is_stmt 0
	movq	%rax, -552(%rbp)
	movabsq	$-9223372036854775807, %rax
	movq	%rax, -544(%rbp)
Ltmp1221:
LBB101_6:
	.loc	25 2091 15 is_stmt 1
	movabsq	$-9223372036854775807, %rdx
	movl	$1, %eax
	xorl	%ecx, %ecx
	cmpq	%rdx, -544(%rbp)
	cmoveq	%rcx, %rax
	.loc	25 2091 9 is_stmt 0
	cmpq	$0, %rax
	jne	LBB101_8
	.loc	25 2092 16 is_stmt 1
	movq	-552(%rbp), %rax
	movq	%rax, -304(%rbp)
Ltmp1222:
	.loc	25 2092 22 is_stmt 0
	movq	%rax, -568(%rbp)
	movabsq	$-9223372036854775807, %rax
	movq	%rax, -560(%rbp)
Ltmp1223:
	.loc	25 2092 45
	jmp	LBB101_9
LBB101_8:
	.loc	25 2093 17 is_stmt 1
	movq	-552(%rbp), %rcx
	movq	-544(%rbp), %rax
	movq	%rcx, -320(%rbp)
	movq	%rax, -312(%rbp)
Ltmp1224:
	.loc	25 2093 42 is_stmt 0
	movq	%rcx, -400(%rbp)
	movq	%rax, -392(%rbp)
	.loc	25 2093 23
	movq	-400(%rbp), %rcx
	movq	-392(%rbp), %rax
	movq	%rcx, -568(%rbp)
	movq	%rax, -560(%rbp)
Ltmp1225:
LBB101_9:
	.loc	29 390 28 is_stmt 1
	movabsq	$-9223372036854775807, %rdx
	movl	$1, %eax
	xorl	%ecx, %ecx
	cmpq	%rdx, -560(%rbp)
	cmoveq	%rcx, %rax
	cmpq	$0, %rax
	jne	LBB101_11
	.loc	29 0 28 is_stmt 0
	movq	-624(%rbp), %rax
	.loc	29 390 28
	movq	-568(%rbp), %rsi
	movq	%rsi, -248(%rbp)
Ltmp1226:
	.loc	29 390 28
	movq	%rsi, -240(%rbp)
Ltmp1227:
	.loc	29 394 28 is_stmt 1
	movq	(%rax), %rdi
	shlq	$1, %rdi
	movq	%rdi, -232(%rbp)
	.loc	29 394 42 is_stmt 0
	movq	%rsi, -224(%rbp)
Ltmp1228:
	.loc	11 1276 5 is_stmt 1
	movq	%rdi, -216(%rbp)
	.loc	11 1276 12 is_stmt 0
	movq	%rsi, -208(%rbp)
Ltmp1229:
	.loc	11 803 13 is_stmt 1
	callq	__ZN4core3cmp6max_by17hffd83987ac06665fE
	movq	%rax, %rsi
	movq	%rsi, -200(%rbp)
Ltmp1230:
	.loc	29 395 52
	movq	%rsi, -192(%rbp)
	.loc	29 395 19 is_stmt 0
	movq	$4, -184(%rbp)
Ltmp1231:
	.loc	11 1276 5 is_stmt 1
	movq	$4, -176(%rbp)
	.loc	11 1276 12 is_stmt 0
	movq	%rsi, -168(%rbp)
Ltmp1232:
	.loc	11 803 13 is_stmt 1
	movl	$4, %edi
	callq	__ZN4core3cmp6max_by17hffd83987ac06665fE
	movq	%rax, %rdx
	movq	%rdx, -648(%rbp)
	movq	%rdx, -160(%rbp)
Ltmp1233:
	.loc	29 397 45
	movq	%rdx, -152(%rbp)
Ltmp1234:
	.loc	13 459 5
	movq	$8, -144(%rbp)
Ltmp1235:
	.loc	21 89 18
	movq	$8, -136(%rbp)
	movq	-136(%rbp), %rsi
Ltmp1236:
	.loc	20 438 16
	movl	$32, %edi
	callq	__ZN4core5alloc6layout6Layout5array5inner17hfcea5a438bd54a51E
	movq	-624(%rbp), %rsi
	movq	%rax, -640(%rbp)
	movq	%rdx, -632(%rbp)
	movq	%rax, -128(%rbp)
	movq	%rdx, -120(%rbp)
Ltmp1237:
	.loc	29 400 43
	leaq	-440(%rbp), %rdi
	callq	__ZN5alloc7raw_vec19RawVec$LT$T$C$A$GT$14current_memory17h8ea15762c7301383E
	movq	-640(%rbp), %rsi
	movq	-632(%rbp), %rdx
	movq	-624(%rbp), %r8
	.loc	29 400 19 is_stmt 0
	leaq	-464(%rbp), %rdi
	leaq	-440(%rbp), %rcx
	callq	__ZN5alloc7raw_vec11finish_grow17hc334644a51487bd2E
Ltmp1238:
	.loc	25 2091 9 is_stmt 1
	cmpq	$0, -464(%rbp)
	je	LBB101_13
	jmp	LBB101_14
Ltmp1239:
LBB101_11:
	.loc	29 390 79
	movq	-568(%rbp), %rcx
	movq	-560(%rbp), %rax
	movq	%rcx, -296(%rbp)
	movq	%rax, -288(%rbp)
Ltmp1240:
	.loc	29 390 79 is_stmt 0
	movq	%rcx, -504(%rbp)
	movq	%rax, -496(%rbp)
Ltmp1241:
	.loc	25 2107 17 is_stmt 1
	movq	-504(%rbp), %rcx
	movq	-496(%rbp), %rax
	movq	%rcx, -280(%rbp)
	movq	%rax, -272(%rbp)
Ltmp1242:
	.loc	25 2107 38 is_stmt 0
	movq	%rcx, -264(%rbp)
	movq	%rax, -256(%rbp)
Ltmp1243:
	.loc	7 117 9 is_stmt 1
	movq	%rcx, -384(%rbp)
	movq	%rax, -376(%rbp)
Ltmp1244:
	.loc	25 2107 23
	movq	-384(%rbp), %rcx
	movq	-376(%rbp), %rax
	movq	%rcx, -600(%rbp)
	movq	%rax, -592(%rbp)
Ltmp1245:
LBB101_12:
	.loc	18 1 1
	jmp	LBB101_3
LBB101_13:
Ltmp1246:
	.loc	25 2092 16
	movq	-456(%rbp), %rcx
	movq	-448(%rbp), %rax
	movq	%rcx, -96(%rbp)
	movq	%rax, -88(%rbp)
Ltmp1247:
	.loc	25 2092 22 is_stmt 0
	movq	%rcx, -480(%rbp)
	movq	%rax, -472(%rbp)
	movq	$0, -488(%rbp)
Ltmp1248:
	.loc	25 2092 45
	jmp	LBB101_15
LBB101_14:
	.loc	25 2093 17 is_stmt 1
	movq	-456(%rbp), %rcx
	movq	-448(%rbp), %rax
	movq	%rcx, -112(%rbp)
	movq	%rax, -104(%rbp)
Ltmp1249:
	.loc	25 2093 42 is_stmt 0
	movq	%rcx, -368(%rbp)
	movq	%rax, -360(%rbp)
	.loc	25 2093 23
	movq	-368(%rbp), %rcx
	movq	-360(%rbp), %rax
	movq	%rcx, -480(%rbp)
	movq	%rax, -472(%rbp)
	movq	$1, -488(%rbp)
Ltmp1250:
LBB101_15:
	.loc	29 400 19 is_stmt 1
	cmpq	$0, -488(%rbp)
	jne	LBB101_17
	.loc	29 0 19 is_stmt 0
	movq	-648(%rbp), %rcx
	movq	-624(%rbp), %rdi
	.loc	29 400 19
	movq	-480(%rbp), %rsi
	movq	-472(%rbp), %rdx
	movq	%rsi, -32(%rbp)
	movq	%rdx, -24(%rbp)
Ltmp1251:
	.loc	29 400 19
	movq	%rsi, -16(%rbp)
	movq	%rdx, -8(%rbp)
Ltmp1252:
	.loc	29 401 9 is_stmt 1
	callq	__ZN5alloc7raw_vec19RawVec$LT$T$C$A$GT$15set_ptr_and_cap17h7882bca9ea10d1c9E
	.loc	29 402 9
	movabsq	$-9223372036854775807, %rax
	movq	%rax, -592(%rbp)
Ltmp1253:
	.loc	29 403 6
	jmp	LBB101_3
LBB101_17:
Ltmp1254:
	.loc	29 400 82
	movq	-480(%rbp), %rcx
	movq	-472(%rbp), %rax
	movq	%rcx, -80(%rbp)
	movq	%rax, -72(%rbp)
Ltmp1255:
	.loc	29 400 82 is_stmt 0
	movq	%rcx, -416(%rbp)
	movq	%rax, -408(%rbp)
Ltmp1256:
	.loc	25 2107 17 is_stmt 1
	movq	-416(%rbp), %rcx
	movq	-408(%rbp), %rax
	movq	%rcx, -64(%rbp)
	movq	%rax, -56(%rbp)
Ltmp1257:
	.loc	25 2107 38 is_stmt 0
	movq	%rcx, -48(%rbp)
	movq	%rax, -40(%rbp)
	.loc	25 2107 23
	movq	%rcx, -600(%rbp)
	movq	%rax, -592(%rbp)
Ltmp1258:
	.loc	18 1 1 is_stmt 1
	jmp	LBB101_12
Ltmp1259:
Lfunc_end101:
	.cfi_endproc

	.globl	__ZN5alloc7raw_vec19RawVec$LT$T$C$A$GT$14grow_amortized17hc9a1ebba982aab30E
	.p2align	4, 0x90
__ZN5alloc7raw_vec19RawVec$LT$T$C$A$GT$14grow_amortized17hc9a1ebba982aab30E:
Lfunc_begin102:
	.loc	29 379 0
	.cfi_startproc
	pushq	%rbp
	.cfi_def_cfa_offset 16
	.cfi_offset %rbp, -16
	movq	%rsp, %rbp
	.cfi_def_cfa_register %rbp
	subq	$656, %rsp
	movq	%rdi, -624(%rbp)
	movq	%rsi, -616(%rbp)
	movq	%rdx, -608(%rbp)
	movq	%rdi, -352(%rbp)
	movq	%rsi, -344(%rbp)
	movq	%rdx, -336(%rbp)
Ltmp1260:
	.loc	29 383 12 prologue_end
	xorl	%eax, %eax
	testb	$1, %al
	jne	LBB102_2
	.loc	29 0 12 is_stmt 0
	movq	-608(%rbp), %rsi
	movq	-616(%rbp), %rdi
	.loc	29 390 28 is_stmt 1
	callq	__ZN4core3num23_$LT$impl$u20$usize$GT$11checked_add17hf5b42367cbf54898E
	movq	%rdx, -528(%rbp)
	movq	%rax, -536(%rbp)
	.loc	29 390 62 is_stmt 0
	movq	$0, -512(%rbp)
Ltmp1261:
	.loc	24 1096 9 is_stmt 1
	cmpq	$0, -536(%rbp)
	je	LBB102_4
	jmp	LBB102_5
Ltmp1262:
LBB102_2:
	.loc	29 386 24
	movq	$0, -576(%rbp)
	movq	-584(%rbp), %rdi
	movq	-576(%rbp), %rsi
	callq	__ZN50_$LT$T$u20$as$u20$core..convert..Into$LT$U$GT$$GT$4into17h0d8af4e4027c736cE
	.loc	29 386 20 is_stmt 0
	movq	%rax, -600(%rbp)
	movq	%rdx, -592(%rbp)
LBB102_3:
	.loc	29 403 6 is_stmt 1
	movq	-600(%rbp), %rax
	movq	-592(%rbp), %rdx
	addq	$656, %rsp
	popq	%rbp
	retq
LBB102_4:
Ltmp1263:
	.loc	24 1098 25
	movq	-520(%rbp), %rcx
	movq	-512(%rbp), %rax
	.loc	24 1098 21 is_stmt 0
	movq	%rcx, -552(%rbp)
	movq	%rax, -544(%rbp)
	.loc	24 1098 28
	jmp	LBB102_6
LBB102_5:
	.loc	24 1097 18 is_stmt 1
	movq	-528(%rbp), %rax
	movq	%rax, -328(%rbp)
Ltmp1264:
	.loc	24 1097 24 is_stmt 0
	movq	%rax, -552(%rbp)
	movabsq	$-9223372036854775807, %rax
	movq	%rax, -544(%rbp)
Ltmp1265:
LBB102_6:
	.loc	25 2091 15 is_stmt 1
	movabsq	$-9223372036854775807, %rdx
	movl	$1, %eax
	xorl	%ecx, %ecx
	cmpq	%rdx, -544(%rbp)
	cmoveq	%rcx, %rax
	.loc	25 2091 9 is_stmt 0
	cmpq	$0, %rax
	jne	LBB102_8
	.loc	25 2092 16 is_stmt 1
	movq	-552(%rbp), %rax
	movq	%rax, -304(%rbp)
Ltmp1266:
	.loc	25 2092 22 is_stmt 0
	movq	%rax, -568(%rbp)
	movabsq	$-9223372036854775807, %rax
	movq	%rax, -560(%rbp)
Ltmp1267:
	.loc	25 2092 45
	jmp	LBB102_9
LBB102_8:
	.loc	25 2093 17 is_stmt 1
	movq	-552(%rbp), %rcx
	movq	-544(%rbp), %rax
	movq	%rcx, -320(%rbp)
	movq	%rax, -312(%rbp)
Ltmp1268:
	.loc	25 2093 42 is_stmt 0
	movq	%rcx, -400(%rbp)
	movq	%rax, -392(%rbp)
	.loc	25 2093 23
	movq	-400(%rbp), %rcx
	movq	-392(%rbp), %rax
	movq	%rcx, -568(%rbp)
	movq	%rax, -560(%rbp)
Ltmp1269:
LBB102_9:
	.loc	29 390 28 is_stmt 1
	movabsq	$-9223372036854775807, %rdx
	movl	$1, %eax
	xorl	%ecx, %ecx
	cmpq	%rdx, -560(%rbp)
	cmoveq	%rcx, %rax
	cmpq	$0, %rax
	jne	LBB102_11
	.loc	29 0 28 is_stmt 0
	movq	-624(%rbp), %rax
	.loc	29 390 28
	movq	-568(%rbp), %rsi
	movq	%rsi, -248(%rbp)
Ltmp1270:
	.loc	29 390 28
	movq	%rsi, -240(%rbp)
Ltmp1271:
	.loc	29 394 28 is_stmt 1
	movq	(%rax), %rdi
	shlq	$1, %rdi
	movq	%rdi, -232(%rbp)
	.loc	29 394 42 is_stmt 0
	movq	%rsi, -224(%rbp)
Ltmp1272:
	.loc	11 1276 5 is_stmt 1
	movq	%rdi, -216(%rbp)
	.loc	11 1276 12 is_stmt 0
	movq	%rsi, -208(%rbp)
Ltmp1273:
	.loc	11 803 13 is_stmt 1
	callq	__ZN4core3cmp6max_by17hffd83987ac06665fE
	movq	%rax, %rsi
	movq	%rsi, -200(%rbp)
Ltmp1274:
	.loc	29 395 52
	movq	%rsi, -192(%rbp)
	.loc	29 395 19 is_stmt 0
	movq	$8, -184(%rbp)
Ltmp1275:
	.loc	11 1276 5 is_stmt 1
	movq	$8, -176(%rbp)
	.loc	11 1276 12 is_stmt 0
	movq	%rsi, -168(%rbp)
Ltmp1276:
	.loc	11 803 13 is_stmt 1
	movl	$8, %edi
	callq	__ZN4core3cmp6max_by17hffd83987ac06665fE
	movq	%rax, %rdx
	movq	%rdx, -648(%rbp)
	movq	%rdx, -160(%rbp)
Ltmp1277:
	.loc	29 397 45
	movq	%rdx, -152(%rbp)
Ltmp1278:
	.loc	13 459 5
	movq	$1, -144(%rbp)
Ltmp1279:
	.loc	21 89 18
	movq	$1, -136(%rbp)
	movq	-136(%rbp), %rsi
Ltmp1280:
	.loc	20 438 16
	movl	$1, %edi
	callq	__ZN4core5alloc6layout6Layout5array5inner17hfcea5a438bd54a51E
	movq	-624(%rbp), %rsi
	movq	%rax, -640(%rbp)
	movq	%rdx, -632(%rbp)
	movq	%rax, -128(%rbp)
	movq	%rdx, -120(%rbp)
Ltmp1281:
	.loc	29 400 43
	leaq	-440(%rbp), %rdi
	callq	__ZN5alloc7raw_vec19RawVec$LT$T$C$A$GT$14current_memory17h4c8828ea8b40012cE
	movq	-640(%rbp), %rsi
	movq	-632(%rbp), %rdx
	movq	-624(%rbp), %r8
	.loc	29 400 19 is_stmt 0
	leaq	-464(%rbp), %rdi
	leaq	-440(%rbp), %rcx
	callq	__ZN5alloc7raw_vec11finish_grow17hc334644a51487bd2E
Ltmp1282:
	.loc	25 2091 9 is_stmt 1
	cmpq	$0, -464(%rbp)
	je	LBB102_13
	jmp	LBB102_14
Ltmp1283:
LBB102_11:
	.loc	29 390 79
	movq	-568(%rbp), %rcx
	movq	-560(%rbp), %rax
	movq	%rcx, -296(%rbp)
	movq	%rax, -288(%rbp)
Ltmp1284:
	.loc	29 390 79 is_stmt 0
	movq	%rcx, -504(%rbp)
	movq	%rax, -496(%rbp)
Ltmp1285:
	.loc	25 2107 17 is_stmt 1
	movq	-504(%rbp), %rcx
	movq	-496(%rbp), %rax
	movq	%rcx, -280(%rbp)
	movq	%rax, -272(%rbp)
Ltmp1286:
	.loc	25 2107 38 is_stmt 0
	movq	%rcx, -264(%rbp)
	movq	%rax, -256(%rbp)
Ltmp1287:
	.loc	7 117 9 is_stmt 1
	movq	%rcx, -384(%rbp)
	movq	%rax, -376(%rbp)
Ltmp1288:
	.loc	25 2107 23
	movq	-384(%rbp), %rcx
	movq	-376(%rbp), %rax
	movq	%rcx, -600(%rbp)
	movq	%rax, -592(%rbp)
Ltmp1289:
LBB102_12:
	.loc	18 1 1
	jmp	LBB102_3
LBB102_13:
Ltmp1290:
	.loc	25 2092 16
	movq	-456(%rbp), %rcx
	movq	-448(%rbp), %rax
	movq	%rcx, -96(%rbp)
	movq	%rax, -88(%rbp)
Ltmp1291:
	.loc	25 2092 22 is_stmt 0
	movq	%rcx, -480(%rbp)
	movq	%rax, -472(%rbp)
	movq	$0, -488(%rbp)
Ltmp1292:
	.loc	25 2092 45
	jmp	LBB102_15
LBB102_14:
	.loc	25 2093 17 is_stmt 1
	movq	-456(%rbp), %rcx
	movq	-448(%rbp), %rax
	movq	%rcx, -112(%rbp)
	movq	%rax, -104(%rbp)
Ltmp1293:
	.loc	25 2093 42 is_stmt 0
	movq	%rcx, -368(%rbp)
	movq	%rax, -360(%rbp)
	.loc	25 2093 23
	movq	-368(%rbp), %rcx
	movq	-360(%rbp), %rax
	movq	%rcx, -480(%rbp)
	movq	%rax, -472(%rbp)
	movq	$1, -488(%rbp)
Ltmp1294:
LBB102_15:
	.loc	29 400 19 is_stmt 1
	cmpq	$0, -488(%rbp)
	jne	LBB102_17
	.loc	29 0 19 is_stmt 0
	movq	-648(%rbp), %rcx
	movq	-624(%rbp), %rdi
	.loc	29 400 19
	movq	-480(%rbp), %rsi
	movq	-472(%rbp), %rdx
	movq	%rsi, -32(%rbp)
	movq	%rdx, -24(%rbp)
Ltmp1295:
	.loc	29 400 19
	movq	%rsi, -16(%rbp)
	movq	%rdx, -8(%rbp)
Ltmp1296:
	.loc	29 401 9 is_stmt 1
	callq	__ZN5alloc7raw_vec19RawVec$LT$T$C$A$GT$15set_ptr_and_cap17h1a8f66d4fdb4785eE
	.loc	29 402 9
	movabsq	$-9223372036854775807, %rax
	movq	%rax, -592(%rbp)
Ltmp1297:
	.loc	29 403 6
	jmp	LBB102_3
LBB102_17:
Ltmp1298:
	.loc	29 400 82
	movq	-480(%rbp), %rcx
	movq	-472(%rbp), %rax
	movq	%rcx, -80(%rbp)
	movq	%rax, -72(%rbp)
Ltmp1299:
	.loc	29 400 82 is_stmt 0
	movq	%rcx, -416(%rbp)
	movq	%rax, -408(%rbp)
Ltmp1300:
	.loc	25 2107 17 is_stmt 1
	movq	-416(%rbp), %rcx
	movq	-408(%rbp), %rax
	movq	%rcx, -64(%rbp)
	movq	%rax, -56(%rbp)
Ltmp1301:
	.loc	25 2107 38 is_stmt 0
	movq	%rcx, -48(%rbp)
	movq	%rax, -40(%rbp)
	.loc	25 2107 23
	movq	%rcx, -600(%rbp)
	movq	%rax, -592(%rbp)
Ltmp1302:
	.loc	18 1 1 is_stmt 1
	jmp	LBB102_12
Ltmp1303:
Lfunc_end102:
	.cfi_endproc

	.globl	__ZN5alloc7raw_vec19RawVec$LT$T$C$A$GT$15set_ptr_and_cap17h0ac2b3412317a215E
	.p2align	4, 0x90
__ZN5alloc7raw_vec19RawVec$LT$T$C$A$GT$15set_ptr_and_cap17h0ac2b3412317a215E:
Lfunc_begin103:
	.loc	29 364 0
	.cfi_startproc
	pushq	%rbp
	.cfi_def_cfa_offset 16
	.cfi_offset %rbp, -16
	movq	%rsp, %rbp
	.cfi_def_cfa_register %rbp
	subq	$112, %rsp
	movq	%rdi, -88(%rbp)
	movq	%rsi, -80(%rbp)
	movq	%rdx, -72(%rbp)
	movq	%rcx, -64(%rbp)
Ltmp1304:
	.loc	29 368 51 prologue_end
	movq	%rsi, -56(%rbp)
	movq	%rdx, -48(%rbp)
Ltmp1305:
	.loc	5 450 41
	movq	%rsi, -40(%rbp)
	movq	%rdx, -32(%rbp)
	movq	%rsi, -24(%rbp)
Ltmp1306:
	.loc	5 201 13
	movq	%rsi, -104(%rbp)
Ltmp1307:
	.loc	5 326 9
	movq	-104(%rbp), %rax
	movq	%rax, -16(%rbp)
Ltmp1308:
	.loc	6 87 59
	movq	%rax, -8(%rbp)
Ltmp1309:
	.loc	5 201 13
	movq	%rax, -96(%rbp)
Ltmp1310:
	.loc	6 87 18
	movq	-96(%rbp), %rax
	movq	%rax, -112(%rbp)
Ltmp1311:
	.loc	29 368 9
	movq	-112(%rbp), %rax
	movq	%rax, 8(%rdi)
	.loc	29 369 9
	movq	%rcx, (%rdi)
	.loc	29 370 6
	addq	$112, %rsp
	popq	%rbp
	retq
Ltmp1312:
Lfunc_end103:
	.cfi_endproc

	.globl	__ZN5alloc7raw_vec19RawVec$LT$T$C$A$GT$15set_ptr_and_cap17h1a8f66d4fdb4785eE
	.p2align	4, 0x90
__ZN5alloc7raw_vec19RawVec$LT$T$C$A$GT$15set_ptr_and_cap17h1a8f66d4fdb4785eE:
Lfunc_begin104:
	.loc	29 364 0
	.cfi_startproc
	pushq	%rbp
	.cfi_def_cfa_offset 16
	.cfi_offset %rbp, -16
	movq	%rsp, %rbp
	.cfi_def_cfa_register %rbp
	subq	$112, %rsp
	movq	%rdi, -88(%rbp)
	movq	%rsi, -80(%rbp)
	movq	%rdx, -72(%rbp)
	movq	%rcx, -64(%rbp)
Ltmp1313:
	.loc	29 368 51 prologue_end
	movq	%rsi, -56(%rbp)
	movq	%rdx, -48(%rbp)
Ltmp1314:
	.loc	5 450 41
	movq	%rsi, -40(%rbp)
	movq	%rdx, -32(%rbp)
	movq	%rsi, -24(%rbp)
Ltmp1315:
	.loc	5 201 13
	movq	%rsi, -104(%rbp)
Ltmp1316:
	.loc	5 326 9
	movq	-104(%rbp), %rax
	movq	%rax, -16(%rbp)
Ltmp1317:
	.loc	6 87 59
	movq	%rax, -8(%rbp)
Ltmp1318:
	.loc	5 201 13
	movq	%rax, -96(%rbp)
Ltmp1319:
	.loc	6 87 18
	movq	-96(%rbp), %rax
	movq	%rax, -112(%rbp)
Ltmp1320:
	.loc	29 368 9
	movq	-112(%rbp), %rax
	movq	%rax, 8(%rdi)
	.loc	29 369 9
	movq	%rcx, (%rdi)
	.loc	29 370 6
	addq	$112, %rsp
	popq	%rbp
	retq
Ltmp1321:
Lfunc_end104:
	.cfi_endproc

	.globl	__ZN5alloc7raw_vec19RawVec$LT$T$C$A$GT$15set_ptr_and_cap17h1eb39d0d7dcbb80fE
	.p2align	4, 0x90
__ZN5alloc7raw_vec19RawVec$LT$T$C$A$GT$15set_ptr_and_cap17h1eb39d0d7dcbb80fE:
Lfunc_begin105:
	.loc	29 364 0
	.cfi_startproc
	pushq	%rbp
	.cfi_def_cfa_offset 16
	.cfi_offset %rbp, -16
	movq	%rsp, %rbp
	.cfi_def_cfa_register %rbp
	subq	$112, %rsp
	movq	%rdi, -88(%rbp)
	movq	%rsi, -80(%rbp)
	movq	%rdx, -72(%rbp)
	movq	%rcx, -64(%rbp)
Ltmp1322:
	.loc	29 368 51 prologue_end
	movq	%rsi, -56(%rbp)
	movq	%rdx, -48(%rbp)
Ltmp1323:
	.loc	5 450 41
	movq	%rsi, -40(%rbp)
	movq	%rdx, -32(%rbp)
	movq	%rsi, -24(%rbp)
Ltmp1324:
	.loc	5 201 13
	movq	%rsi, -104(%rbp)
Ltmp1325:
	.loc	5 326 9
	movq	-104(%rbp), %rax
	movq	%rax, -16(%rbp)
Ltmp1326:
	.loc	6 87 59
	movq	%rax, -8(%rbp)
Ltmp1327:
	.loc	5 201 13
	movq	%rax, -96(%rbp)
Ltmp1328:
	.loc	6 87 18
	movq	-96(%rbp), %rax
	movq	%rax, -112(%rbp)
Ltmp1329:
	.loc	29 368 9
	movq	-112(%rbp), %rax
	movq	%rax, 8(%rdi)
	.loc	29 369 9
	movq	%rcx, (%rdi)
	.loc	29 370 6
	addq	$112, %rsp
	popq	%rbp
	retq
Ltmp1330:
Lfunc_end105:
	.cfi_endproc

	.globl	__ZN5alloc7raw_vec19RawVec$LT$T$C$A$GT$15set_ptr_and_cap17h7882bca9ea10d1c9E
	.p2align	4, 0x90
__ZN5alloc7raw_vec19RawVec$LT$T$C$A$GT$15set_ptr_and_cap17h7882bca9ea10d1c9E:
Lfunc_begin106:
	.loc	29 364 0
	.cfi_startproc
	pushq	%rbp
	.cfi_def_cfa_offset 16
	.cfi_offset %rbp, -16
	movq	%rsp, %rbp
	.cfi_def_cfa_register %rbp
	subq	$112, %rsp
	movq	%rdi, -88(%rbp)
	movq	%rsi, -80(%rbp)
	movq	%rdx, -72(%rbp)
	movq	%rcx, -64(%rbp)
Ltmp1331:
	.loc	29 368 51 prologue_end
	movq	%rsi, -56(%rbp)
	movq	%rdx, -48(%rbp)
Ltmp1332:
	.loc	5 450 41
	movq	%rsi, -40(%rbp)
	movq	%rdx, -32(%rbp)
	movq	%rsi, -24(%rbp)
Ltmp1333:
	.loc	5 201 13
	movq	%rsi, -104(%rbp)
Ltmp1334:
	.loc	5 326 9
	movq	-104(%rbp), %rax
	movq	%rax, -16(%rbp)
Ltmp1335:
	.loc	6 87 59
	movq	%rax, -8(%rbp)
Ltmp1336:
	.loc	5 201 13
	movq	%rax, -96(%rbp)
Ltmp1337:
	.loc	6 87 18
	movq	-96(%rbp), %rax
	movq	%rax, -112(%rbp)
Ltmp1338:
	.loc	29 368 9
	movq	-112(%rbp), %rax
	movq	%rax, 8(%rdi)
	.loc	29 369 9
	movq	%rcx, (%rdi)
	.loc	29 370 6
	addq	$112, %rsp
	popq	%rbp
	retq
Ltmp1339:
Lfunc_end106:
	.cfi_endproc

	.globl	__ZN5alloc7raw_vec19RawVec$LT$T$C$A$GT$15set_ptr_and_cap17ha61a0b43283c3f95E
	.p2align	4, 0x90
__ZN5alloc7raw_vec19RawVec$LT$T$C$A$GT$15set_ptr_and_cap17ha61a0b43283c3f95E:
Lfunc_begin107:
	.loc	29 364 0
	.cfi_startproc
	pushq	%rbp
	.cfi_def_cfa_offset 16
	.cfi_offset %rbp, -16
	movq	%rsp, %rbp
	.cfi_def_cfa_register %rbp
	subq	$112, %rsp
	movq	%rdi, -88(%rbp)
	movq	%rsi, -80(%rbp)
	movq	%rdx, -72(%rbp)
	movq	%rcx, -64(%rbp)
Ltmp1340:
	.loc	29 368 51 prologue_end
	movq	%rsi, -56(%rbp)
	movq	%rdx, -48(%rbp)
Ltmp1341:
	.loc	5 450 41
	movq	%rsi, -40(%rbp)
	movq	%rdx, -32(%rbp)
	movq	%rsi, -24(%rbp)
Ltmp1342:
	.loc	5 201 13
	movq	%rsi, -104(%rbp)
Ltmp1343:
	.loc	5 326 9
	movq	-104(%rbp), %rax
	movq	%rax, -16(%rbp)
Ltmp1344:
	.loc	6 87 59
	movq	%rax, -8(%rbp)
Ltmp1345:
	.loc	5 201 13
	movq	%rax, -96(%rbp)
Ltmp1346:
	.loc	6 87 18
	movq	-96(%rbp), %rax
	movq	%rax, -112(%rbp)
Ltmp1347:
	.loc	29 368 9
	movq	-112(%rbp), %rax
	movq	%rax, 8(%rdi)
	.loc	29 369 9
	movq	%rcx, (%rdi)
	.loc	29 370 6
	addq	$112, %rsp
	popq	%rbp
	retq
Ltmp1348:
Lfunc_end107:
	.cfi_endproc

	.globl	__ZN5alloc7raw_vec19RawVec$LT$T$C$A$GT$16reserve_for_push17h00e03c238d58ec38E
	.p2align	4, 0x90
__ZN5alloc7raw_vec19RawVec$LT$T$C$A$GT$16reserve_for_push17h00e03c238d58ec38E:
Lfunc_begin108:
	.loc	29 297 0
	.cfi_startproc
	pushq	%rbp
	.cfi_def_cfa_offset 16
	.cfi_offset %rbp, -16
	movq	%rsp, %rbp
	.cfi_def_cfa_register %rbp
	subq	$16, %rsp
	movq	%rdi, -16(%rbp)
	movq	%rsi, -8(%rbp)
Ltmp1349:
	.loc	29 298 24 prologue_end
	movl	$1, %edx
	callq	__ZN5alloc7raw_vec19RawVec$LT$T$C$A$GT$14grow_amortized17h5823a23b55686e6cE
	movq	%rax, %rdi
	movq	%rdx, %rsi
	.loc	29 298 9 is_stmt 0
	callq	__ZN5alloc7raw_vec14handle_reserve17h455f83584fe64d38E
	.loc	29 299 6 is_stmt 1
	addq	$16, %rsp
	popq	%rbp
	retq
Ltmp1350:
Lfunc_end108:
	.cfi_endproc

	.globl	__ZN5alloc7raw_vec19RawVec$LT$T$C$A$GT$16reserve_for_push17h897a729034ac680eE
	.p2align	4, 0x90
__ZN5alloc7raw_vec19RawVec$LT$T$C$A$GT$16reserve_for_push17h897a729034ac680eE:
Lfunc_begin109:
	.loc	29 297 0
	.cfi_startproc
	pushq	%rbp
	.cfi_def_cfa_offset 16
	.cfi_offset %rbp, -16
	movq	%rsp, %rbp
	.cfi_def_cfa_register %rbp
	subq	$16, %rsp
	movq	%rdi, -16(%rbp)
	movq	%rsi, -8(%rbp)
Ltmp1351:
	.loc	29 298 24 prologue_end
	movl	$1, %edx
	callq	__ZN5alloc7raw_vec19RawVec$LT$T$C$A$GT$14grow_amortized17hc9a1ebba982aab30E
	movq	%rax, %rdi
	movq	%rdx, %rsi
	.loc	29 298 9 is_stmt 0
	callq	__ZN5alloc7raw_vec14handle_reserve17h455f83584fe64d38E
	.loc	29 299 6 is_stmt 1
	addq	$16, %rsp
	popq	%rbp
	retq
Ltmp1352:
Lfunc_end109:
	.cfi_endproc

	.globl	__ZN5alloc7raw_vec19RawVec$LT$T$C$A$GT$16reserve_for_push17h905ec18a2c592a7fE
	.p2align	4, 0x90
__ZN5alloc7raw_vec19RawVec$LT$T$C$A$GT$16reserve_for_push17h905ec18a2c592a7fE:
Lfunc_begin110:
	.loc	29 297 0
	.cfi_startproc
	pushq	%rbp
	.cfi_def_cfa_offset 16
	.cfi_offset %rbp, -16
	movq	%rsp, %rbp
	.cfi_def_cfa_register %rbp
	subq	$16, %rsp
	movq	%rdi, -16(%rbp)
	movq	%rsi, -8(%rbp)
Ltmp1353:
	.loc	29 298 24 prologue_end
	movl	$1, %edx
	callq	__ZN5alloc7raw_vec19RawVec$LT$T$C$A$GT$14grow_amortized17h24aa32e6760eb96bE
	movq	%rax, %rdi
	movq	%rdx, %rsi
	.loc	29 298 9 is_stmt 0
	callq	__ZN5alloc7raw_vec14handle_reserve17h455f83584fe64d38E
	.loc	29 299 6 is_stmt 1
	addq	$16, %rsp
	popq	%rbp
	retq
Ltmp1354:
Lfunc_end110:
	.cfi_endproc

	.globl	__ZN5alloc7raw_vec19RawVec$LT$T$C$A$GT$16reserve_for_push17h97b6daae138b0f82E
	.p2align	4, 0x90
__ZN5alloc7raw_vec19RawVec$LT$T$C$A$GT$16reserve_for_push17h97b6daae138b0f82E:
Lfunc_begin111:
	.loc	29 297 0
	.cfi_startproc
	pushq	%rbp
	.cfi_def_cfa_offset 16
	.cfi_offset %rbp, -16
	movq	%rsp, %rbp
	.cfi_def_cfa_register %rbp
	subq	$16, %rsp
	movq	%rdi, -16(%rbp)
	movq	%rsi, -8(%rbp)
Ltmp1355:
	.loc	29 298 24 prologue_end
	movl	$1, %edx
	callq	__ZN5alloc7raw_vec19RawVec$LT$T$C$A$GT$14grow_amortized17h27d02754272fc2e3E
	movq	%rax, %rdi
	movq	%rdx, %rsi
	.loc	29 298 9 is_stmt 0
	callq	__ZN5alloc7raw_vec14handle_reserve17h455f83584fe64d38E
	.loc	29 299 6 is_stmt 1
	addq	$16, %rsp
	popq	%rbp
	retq
Ltmp1356:
Lfunc_end111:
	.cfi_endproc

	.globl	__ZN5alloc7raw_vec19RawVec$LT$T$C$A$GT$6new_in17h149712ff8bf9d820E
	.p2align	4, 0x90
__ZN5alloc7raw_vec19RawVec$LT$T$C$A$GT$6new_in17h149712ff8bf9d820E:
Lfunc_begin112:
	.loc	29 121 0
	.cfi_startproc
	pushq	%rbp
	.cfi_def_cfa_offset 16
	.cfi_offset %rbp, -16
	movq	%rsp, %rbp
	.cfi_def_cfa_register %rbp
	subq	$96, %rsp
Ltmp1357:
	.loc	13 459 5 prologue_end
	movq	$8, -48(%rbp)
Ltmp1358:
	.loc	3 599 14
	movq	$8, -40(%rbp)
	movq	-40(%rbp), %rax
	movq	%rax, -96(%rbp)
	movq	%rax, -32(%rbp)
Ltmp1359:
	.loc	3 0 14 is_stmt 0
	movq	-96(%rbp), %rax
Ltmp1360:
	.loc	5 97 36 is_stmt 1
	movq	%rax, -8(%rbp)
Ltmp1361:
	.loc	5 201 13
	movq	%rax, -64(%rbp)
Ltmp1362:
	.loc	6 191 18
	movq	-64(%rbp), %rax
	.loc	6 191 9 is_stmt 0
	movq	%rax, -72(%rbp)
Ltmp1363:
	.loc	29 123 9 is_stmt 1
	movq	-72(%rbp), %rax
	movq	%rax, -80(%rbp)
	movq	$0, -88(%rbp)
	.loc	29 124 6
	movq	-88(%rbp), %rax
	movq	-80(%rbp), %rdx
	addq	$96, %rsp
	popq	%rbp
	retq
Ltmp1364:
Lfunc_end112:
	.cfi_endproc

	.globl	__ZN5alloc7raw_vec19RawVec$LT$T$C$A$GT$6new_in17h2196645adc033697E
	.p2align	4, 0x90
__ZN5alloc7raw_vec19RawVec$LT$T$C$A$GT$6new_in17h2196645adc033697E:
Lfunc_begin113:
	.loc	29 121 0
	.cfi_startproc
	pushq	%rbp
	.cfi_def_cfa_offset 16
	.cfi_offset %rbp, -16
	movq	%rsp, %rbp
	.cfi_def_cfa_register %rbp
	subq	$96, %rsp
Ltmp1365:
	.loc	13 459 5 prologue_end
	movq	$8, -48(%rbp)
Ltmp1366:
	.loc	3 599 14
	movq	$8, -40(%rbp)
	movq	-40(%rbp), %rax
	movq	%rax, -96(%rbp)
	movq	%rax, -32(%rbp)
Ltmp1367:
	.loc	3 0 14 is_stmt 0
	movq	-96(%rbp), %rax
Ltmp1368:
	.loc	5 97 36 is_stmt 1
	movq	%rax, -8(%rbp)
Ltmp1369:
	.loc	5 201 13
	movq	%rax, -64(%rbp)
Ltmp1370:
	.loc	6 191 18
	movq	-64(%rbp), %rax
	.loc	6 191 9 is_stmt 0
	movq	%rax, -72(%rbp)
Ltmp1371:
	.loc	29 123 9 is_stmt 1
	movq	-72(%rbp), %rax
	movq	%rax, -80(%rbp)
	movq	$0, -88(%rbp)
	.loc	29 124 6
	movq	-88(%rbp), %rax
	movq	-80(%rbp), %rdx
	addq	$96, %rsp
	popq	%rbp
	retq
Ltmp1372:
Lfunc_end113:
	.cfi_endproc

	.globl	__ZN5alloc7raw_vec19RawVec$LT$T$C$A$GT$6new_in17h53bdded5831c143fE
	.p2align	4, 0x90
__ZN5alloc7raw_vec19RawVec$LT$T$C$A$GT$6new_in17h53bdded5831c143fE:
Lfunc_begin114:
	.loc	29 121 0
	.cfi_startproc
	pushq	%rbp
	.cfi_def_cfa_offset 16
	.cfi_offset %rbp, -16
	movq	%rsp, %rbp
	.cfi_def_cfa_register %rbp
	subq	$96, %rsp
Ltmp1373:
	.loc	13 459 5 prologue_end
	movq	$8, -48(%rbp)
Ltmp1374:
	.loc	3 599 14
	movq	$8, -40(%rbp)
	movq	-40(%rbp), %rax
	movq	%rax, -96(%rbp)
	movq	%rax, -32(%rbp)
Ltmp1375:
	.loc	3 0 14 is_stmt 0
	movq	-96(%rbp), %rax
Ltmp1376:
	.loc	5 97 36 is_stmt 1
	movq	%rax, -8(%rbp)
Ltmp1377:
	.loc	5 201 13
	movq	%rax, -64(%rbp)
Ltmp1378:
	.loc	6 191 18
	movq	-64(%rbp), %rax
	.loc	6 191 9 is_stmt 0
	movq	%rax, -72(%rbp)
Ltmp1379:
	.loc	29 123 9 is_stmt 1
	movq	-72(%rbp), %rax
	movq	%rax, -80(%rbp)
	movq	$0, -88(%rbp)
	.loc	29 124 6
	movq	-88(%rbp), %rax
	movq	-80(%rbp), %rdx
	addq	$96, %rsp
	popq	%rbp
	retq
Ltmp1380:
Lfunc_end114:
	.cfi_endproc

	.globl	__ZN5alloc7raw_vec19RawVec$LT$T$C$A$GT$6new_in17h5bb434ca033f707aE
	.p2align	4, 0x90
__ZN5alloc7raw_vec19RawVec$LT$T$C$A$GT$6new_in17h5bb434ca033f707aE:
Lfunc_begin115:
	.loc	29 121 0
	.cfi_startproc
	pushq	%rbp
	.cfi_def_cfa_offset 16
	.cfi_offset %rbp, -16
	movq	%rsp, %rbp
	.cfi_def_cfa_register %rbp
	subq	$96, %rsp
Ltmp1381:
	.loc	13 459 5 prologue_end
	movq	$4, -48(%rbp)
Ltmp1382:
	.loc	3 599 14
	movq	$4, -40(%rbp)
	movq	-40(%rbp), %rax
	movq	%rax, -96(%rbp)
	movq	%rax, -32(%rbp)
Ltmp1383:
	.loc	3 0 14 is_stmt 0
	movq	-96(%rbp), %rax
Ltmp1384:
	.loc	5 97 36 is_stmt 1
	movq	%rax, -8(%rbp)
Ltmp1385:
	.loc	5 201 13
	movq	%rax, -64(%rbp)
Ltmp1386:
	.loc	6 191 18
	movq	-64(%rbp), %rax
	.loc	6 191 9 is_stmt 0
	movq	%rax, -72(%rbp)
Ltmp1387:
	.loc	29 123 9 is_stmt 1
	movq	-72(%rbp), %rax
	movq	%rax, -80(%rbp)
	movq	$0, -88(%rbp)
	.loc	29 124 6
	movq	-88(%rbp), %rax
	movq	-80(%rbp), %rdx
	addq	$96, %rsp
	popq	%rbp
	retq
Ltmp1388:
Lfunc_end115:
	.cfi_endproc

	.globl	__ZN5alloc7raw_vec19RawVec$LT$T$C$A$GT$6new_in17ha88e89f32259f84fE
	.p2align	4, 0x90
__ZN5alloc7raw_vec19RawVec$LT$T$C$A$GT$6new_in17ha88e89f32259f84fE:
Lfunc_begin116:
	.loc	29 121 0
	.cfi_startproc
	pushq	%rbp
	.cfi_def_cfa_offset 16
	.cfi_offset %rbp, -16
	movq	%rsp, %rbp
	.cfi_def_cfa_register %rbp
	subq	$96, %rsp
Ltmp1389:
	.loc	13 459 5 prologue_end
	movq	$1, -48(%rbp)
Ltmp1390:
	.loc	3 599 14
	movq	$1, -40(%rbp)
	movq	-40(%rbp), %rax
	movq	%rax, -96(%rbp)
	movq	%rax, -32(%rbp)
Ltmp1391:
	.loc	3 0 14 is_stmt 0
	movq	-96(%rbp), %rax
Ltmp1392:
	.loc	5 97 36 is_stmt 1
	movq	%rax, -8(%rbp)
Ltmp1393:
	.loc	5 201 13
	movq	%rax, -64(%rbp)
Ltmp1394:
	.loc	6 191 18
	movq	-64(%rbp), %rax
	.loc	6 191 9 is_stmt 0
	movq	%rax, -72(%rbp)
Ltmp1395:
	.loc	29 123 9 is_stmt 1
	movq	-72(%rbp), %rax
	movq	%rax, -80(%rbp)
	movq	$0, -88(%rbp)
	.loc	29 124 6
	movq	-88(%rbp), %rax
	movq	-80(%rbp), %rdx
	addq	$96, %rsp
	popq	%rbp
	retq
Ltmp1396:
Lfunc_end116:
	.cfi_endproc

	.globl	__ZN5alloc7raw_vec19RawVec$LT$T$C$A$GT$7reserve17hedab44c07a739fdbE
	.p2align	4, 0x90
__ZN5alloc7raw_vec19RawVec$LT$T$C$A$GT$7reserve17hedab44c07a739fdbE:
Lfunc_begin117:
	.loc	29 274 0
	.cfi_startproc
	pushq	%rbp
	.cfi_def_cfa_offset 16
	.cfi_offset %rbp, -16
	movq	%rsp, %rbp
	.cfi_def_cfa_register %rbp
	subq	$48, %rsp
	movq	%rdi, -48(%rbp)
	movq	%rsi, -40(%rbp)
	movq	%rdx, -32(%rbp)
	movq	%rdi, -24(%rbp)
	movq	%rsi, -16(%rbp)
	movq	%rdx, -8(%rbp)
Ltmp1397:
	.loc	29 288 12 prologue_end
	callq	__ZN5alloc7raw_vec19RawVec$LT$T$C$A$GT$13needs_to_grow17h6f9b2da322801aacE
	testb	$1, %al
	jne	LBB117_2
LBB117_1:
	.loc	29 291 6
	addq	$48, %rsp
	popq	%rbp
	retq
LBB117_2:
	.loc	29 0 6 is_stmt 0
	movq	-32(%rbp), %rdx
	movq	-40(%rbp), %rsi
	movq	-48(%rbp), %rdi
	.loc	29 289 13 is_stmt 1
	callq	__ZN5alloc7raw_vec19RawVec$LT$T$C$A$GT$7reserve21do_reserve_and_handle17hedb9d1fbf11fb553E
	.loc	29 288 9
	jmp	LBB117_1
Ltmp1398:
Lfunc_end117:
	.cfi_endproc

	.globl	__ZN5alloc7raw_vec19RawVec$LT$T$C$A$GT$7reserve21do_reserve_and_handle17hedb9d1fbf11fb553E
	.p2align	4, 0x90
__ZN5alloc7raw_vec19RawVec$LT$T$C$A$GT$7reserve21do_reserve_and_handle17hedb9d1fbf11fb553E:
Lfunc_begin118:
	.loc	29 280 0
	.cfi_startproc
	pushq	%rbp
	.cfi_def_cfa_offset 16
	.cfi_offset %rbp, -16
	movq	%rsp, %rbp
	.cfi_def_cfa_register %rbp
	subq	$32, %rsp
	movq	%rdi, -24(%rbp)
	movq	%rsi, -16(%rbp)
	movq	%rdx, -8(%rbp)
Ltmp1399:
	.loc	29 285 28 prologue_end
	callq	__ZN5alloc7raw_vec19RawVec$LT$T$C$A$GT$14grow_amortized17h4ad60132956c6d59E
	movq	%rax, %rdi
	movq	%rdx, %rsi
	.loc	29 285 13 is_stmt 0
	callq	__ZN5alloc7raw_vec14handle_reserve17h455f83584fe64d38E
	.loc	29 286 10 is_stmt 1
	addq	$32, %rsp
	popq	%rbp
	retq
Ltmp1400:
Lfunc_end118:
	.cfi_endproc

	.globl	__ZN62_$LT$T$u20$as$u20$alloc..vec..spec_from_elem..SpecFromElem$GT$9from_elem17hae9805f37868951bE
	.p2align	4, 0x90
__ZN62_$LT$T$u20$as$u20$alloc..vec..spec_from_elem..SpecFromElem$GT$9from_elem17hae9805f37868951bE:
Lfunc_begin119:
	.file	34 "/rustc/2c8cc343237b8f7d5a3c3703e3a87f2eb2c54a74/library/alloc/src/vec" "spec_from_elem.rs"
	.loc	34 23 0
	.cfi_startproc
	.cfi_personality 155, _rust_eh_personality
	.cfi_lsda 16, Lexception20
	pushq	%rbp
	.cfi_def_cfa_offset 16
	.cfi_offset %rbp, -16
	movq	%rsp, %rbp
	.cfi_def_cfa_register %rbp
	subq	$192, %rsp
	movq	%rdx, -160(%rbp)
	movq	%rdi, -152(%rbp)
	movq	%rdi, -144(%rbp)
	movq	%rsi, -128(%rbp)
	movq	%rdx, -80(%rbp)
Ltmp1414:
	.loc	34 24 9 prologue_end
	movb	$1, -83(%rbp)
	movb	$1, -84(%rbp)
Ltmp1401:
	leaq	-128(%rbp), %rdi
	.loc	34 24 12 is_stmt 0
	callq	__ZN53_$LT$usize$u20$as$u20$alloc..vec..is_zero..IsZero$GT$7is_zero17h09ccb0c788f3ca2eE
Ltmp1402:
	movb	%al, -129(%rbp)
	jmp	LBB119_3
LBB119_1:
	.loc	34 30 5 is_stmt 1
	testb	$1, -84(%rbp)
	jne	LBB119_14
	jmp	LBB119_13
LBB119_2:
Ltmp1413:
	.loc	34 0 5 is_stmt 0
	movq	%rax, %rcx
	movl	%edx, %eax
	movq	%rcx, -40(%rbp)
	movl	%eax, -32(%rbp)
	jmp	LBB119_1
LBB119_3:
	movb	-129(%rbp), %al
	.loc	34 24 12 is_stmt 1
	testb	$1, %al
	jne	LBB119_5
	jmp	LBB119_4
LBB119_4:
	.loc	34 0 12 is_stmt 0
	movq	-160(%rbp), %rdi
	.loc	34 27 43 is_stmt 1
	movq	%rdi, -16(%rbp)
	.loc	34 27 46 is_stmt 0
	movb	$0, -84(%rbp)
Ltmp1415:
	.loc	28 676 45 is_stmt 1
	movq	%rdi, -8(%rbp)
Ltmp1416:
	.loc	29 131 37
	movb	$0, -81(%rbp)
	.loc	29 131 9 is_stmt 0
	movzbl	-81(%rbp), %esi
Ltmp1403:
	callq	__ZN5alloc7raw_vec19RawVec$LT$T$C$A$GT$11allocate_in17h7955fe72007ca479E
Ltmp1404:
	movq	%rdx, -176(%rbp)
	movq	%rax, -168(%rbp)
	jmp	LBB119_8
Ltmp1417:
LBB119_5:
	.loc	29 0 9
	movq	-160(%rbp), %rdi
	.loc	34 25 63 is_stmt 1
	movq	%rdi, -24(%rbp)
	.loc	34 25 66 is_stmt 0
	movb	$0, -84(%rbp)
Ltmp1418:
	.loc	29 139 37 is_stmt 1
	movb	$1, -82(%rbp)
	.loc	29 139 9 is_stmt 0
	movzbl	-82(%rbp), %esi
Ltmp1411:
	callq	__ZN5alloc7raw_vec19RawVec$LT$T$C$A$GT$11allocate_in17h7955fe72007ca479E
Ltmp1412:
	movq	%rdx, -192(%rbp)
	movq	%rax, -184(%rbp)
	jmp	LBB119_6
Ltmp1419:
LBB119_6:
	.loc	29 0 9
	movq	-152(%rbp), %rax
	movq	-160(%rbp), %rcx
	movq	-192(%rbp), %rdx
	movq	-184(%rbp), %rsi
	.loc	34 25 20 is_stmt 1
	movq	%rsi, (%rax)
	movq	%rdx, 8(%rax)
	movq	%rcx, 16(%rax)
LBB119_7:
	.loc	34 0 20 is_stmt 0
	movq	-144(%rbp), %rax
	.loc	34 30 6 is_stmt 1
	addq	$192, %rsp
	popq	%rbp
	retq
LBB119_8:
	.loc	34 0 6 is_stmt 0
	movq	-160(%rbp), %rsi
	movq	-176(%rbp), %rax
	movq	-168(%rbp), %rcx
Ltmp1420:
	.loc	28 676 9 is_stmt 1
	movq	%rcx, -120(%rbp)
	movq	%rax, -112(%rbp)
	movq	$0, -104(%rbp)
Ltmp1421:
	.loc	34 28 40
	movb	$0, -83(%rbp)
	movq	-128(%rbp), %rax
	.loc	34 28 26 is_stmt 0
	movq	%rax, -96(%rbp)
	.loc	34 28 9
	movq	-96(%rbp), %rdx
Ltmp1405:
	leaq	-120(%rbp), %rdi
	callq	__ZN5alloc3vec16Vec$LT$T$C$A$GT$11extend_with17ha821233bfd525323E
Ltmp1406:
	jmp	LBB119_11
Ltmp1422:
LBB119_9:
Ltmp1408:
	.loc	34 0 9
	leaq	-120(%rbp), %rdi
	.loc	34 30 5 is_stmt 1
	callq	__ZN4core3ptr49drop_in_place$LT$alloc..vec..Vec$LT$usize$GT$$GT$17h8dff776cf3d2874aE
Ltmp1409:
	jmp	LBB119_1
LBB119_10:
Ltmp1407:
	.loc	34 0 5 is_stmt 0
	movq	%rax, %rcx
	movl	%edx, %eax
	movq	%rcx, -40(%rbp)
	movl	%eax, -32(%rbp)
	jmp	LBB119_9
LBB119_11:
	movq	-152(%rbp), %rax
Ltmp1423:
	.loc	34 29 9 is_stmt 1
	movq	-120(%rbp), %rcx
	movq	%rcx, (%rax)
	movq	-112(%rbp), %rcx
	movq	%rcx, 8(%rax)
	movq	-104(%rbp), %rcx
	movq	%rcx, 16(%rax)
Ltmp1424:
	.loc	34 30 5
	jmp	LBB119_7
LBB119_12:
Ltmp1410:
	.loc	34 23 5
	callq	__ZN4core9panicking19panic_cannot_unwind17h1fbca7e1d7f56ae1E
LBB119_13:
	.loc	34 30 5
	testb	$1, -83(%rbp)
	jne	LBB119_16
	jmp	LBB119_15
LBB119_14:
	jmp	LBB119_13
LBB119_15:
	.loc	34 23 5
	movq	-40(%rbp), %rdi
	callq	__Unwind_Resume
LBB119_16:
	.loc	34 30 5
	jmp	LBB119_15
Ltmp1425:
Lfunc_end119:
	.cfi_endproc
	.section	__TEXT,__gcc_except_tab
	.p2align	2
GCC_except_table119:
Lexception20:
	.byte	255
	.byte	255
	.byte	1
	.uleb128 Lcst_end20-Lcst_begin20
Lcst_begin20:
	.uleb128 Ltmp1401-Lfunc_begin119
	.uleb128 Ltmp1412-Ltmp1401
	.uleb128 Ltmp1413-Lfunc_begin119
	.byte	0
	.uleb128 Ltmp1405-Lfunc_begin119
	.uleb128 Ltmp1406-Ltmp1405
	.uleb128 Ltmp1407-Lfunc_begin119
	.byte	0
	.uleb128 Ltmp1408-Lfunc_begin119
	.uleb128 Ltmp1409-Ltmp1408
	.uleb128 Ltmp1410-Lfunc_begin119
	.byte	0
	.uleb128 Ltmp1409-Lfunc_begin119
	.uleb128 Lfunc_end119-Ltmp1409
	.byte	0
	.byte	0
Lcst_end20:
	.p2align	2

	.section	__TEXT,__text,regular,pure_instructions
	.globl	__ZN63_$LT$I$u20$as$u20$core..iter..traits..collect..IntoIterator$GT$9into_iter17h635971cb90c4f450E
	.p2align	4, 0x90
__ZN63_$LT$I$u20$as$u20$core..iter..traits..collect..IntoIterator$GT$9into_iter17h635971cb90c4f450E:
Lfunc_begin120:
	.loc	31 272 0
	.cfi_startproc
	pushq	%rbp
	.cfi_def_cfa_offset 16
	.cfi_offset %rbp, -16
	movq	%rsp, %rbp
	.cfi_def_cfa_register %rbp
	subq	$16, %rsp
	movq	%rsi, %rdx
	movq	%rdi, %rax
	movq	%rax, -16(%rbp)
	movq	%rdx, -8(%rbp)
Ltmp1426:
	.loc	31 274 6 prologue_end
	addq	$16, %rsp
	popq	%rbp
	retq
Ltmp1427:
Lfunc_end120:
	.cfi_endproc

	.p2align	4, 0x90
__ZN63_$LT$alloc..alloc..Global$u20$as$u20$core..alloc..Allocator$GT$10deallocate17h9448febf682b27aeE:
Lfunc_begin121:
	.loc	32 246 0
	.cfi_startproc
	pushq	%rbp
	.cfi_def_cfa_offset 16
	.cfi_offset %rbp, -16
	movq	%rsp, %rbp
	.cfi_def_cfa_register %rbp
	subq	$112, %rsp
	movq	%rsi, -112(%rbp)
	movq	%rdx, -104(%rbp)
	movq	%rcx, -96(%rbp)
	movq	%rdi, -64(%rbp)
	movq	%rsi, -56(%rbp)
Ltmp1428:
	.loc	32 247 12 prologue_end
	leaq	-104(%rbp), %rax
	movq	%rax, -48(%rbp)
	cmpq	$0, -104(%rbp)
	jne	LBB121_2
	.loc	32 247 9 is_stmt 0
	jmp	LBB121_3
LBB121_2:
	.loc	32 0 9
	movq	-112(%rbp), %rdi
	.loc	32 250 30 is_stmt 1
	movq	%rdi, -40(%rbp)
Ltmp1429:
	.loc	5 326 9
	movq	%rdi, -32(%rbp)
Ltmp1430:
	.loc	32 250 44
	movq	-104(%rbp), %rcx
	movq	-96(%rbp), %rax
	movq	%rcx, -88(%rbp)
	movq	%rax, -80(%rbp)
Ltmp1431:
	.loc	32 113 34
	leaq	-88(%rbp), %rax
	movq	%rax, -24(%rbp)
Ltmp1432:
	.loc	20 129 9
	movq	-88(%rbp), %rsi
Ltmp1433:
	.loc	32 113 49
	leaq	-88(%rbp), %rax
	movq	%rax, -16(%rbp)
Ltmp1434:
	.loc	20 140 9
	movq	-80(%rbp), %rax
	movq	%rax, -8(%rbp)
Ltmp1435:
	.loc	21 97 9
	movq	%rax, -72(%rbp)
	movq	-72(%rbp), %rdx
Ltmp1436:
	.loc	32 113 14
	callq	___rust_dealloc
Ltmp1437:
LBB121_3:
	.loc	32 252 6
	addq	$112, %rsp
	popq	%rbp
	retq
Ltmp1438:
Lfunc_end121:
	.cfi_endproc

	.p2align	4, 0x90
__ZN63_$LT$alloc..alloc..Global$u20$as$u20$core..alloc..Allocator$GT$15allocate_zeroed17hc65364faf3a05a8eE:
Lfunc_begin122:
	.loc	32 241 0
	.cfi_startproc
	pushq	%rbp
	.cfi_def_cfa_offset 16
	.cfi_offset %rbp, -16
	movq	%rsp, %rbp
	.cfi_def_cfa_register %rbp
	subq	$32, %rsp
	movq	%rdi, -24(%rbp)
	movq	%rsi, -16(%rbp)
	movq	%rdx, -8(%rbp)
	movl	$1, %ecx
Ltmp1439:
	.loc	32 242 9 prologue_end
	callq	__ZN5alloc5alloc6Global10alloc_impl17h899181fb82876007E
	.loc	32 243 6
	addq	$32, %rsp
	popq	%rbp
	retq
Ltmp1440:
Lfunc_end122:
	.cfi_endproc

	.p2align	4, 0x90
__ZN63_$LT$alloc..alloc..Global$u20$as$u20$core..alloc..Allocator$GT$4grow17hb4c6b8b3c994049cE:
Lfunc_begin123:
	.loc	32 255 0
	.cfi_startproc
	pushq	%rbp
	.cfi_def_cfa_offset 16
	.cfi_offset %rbp, -16
	movq	%rsp, %rbp
	.cfi_def_cfa_register %rbp
	subq	$64, %rsp
	movq	%rdi, -48(%rbp)
	movq	%rsi, -40(%rbp)
	movq	%rdx, -32(%rbp)
	movq	%rcx, -24(%rbp)
	movq	%r8, -16(%rbp)
	movq	%r9, -8(%rbp)
Ltmp1441:
	.loc	32 262 18 prologue_end
	movq	%rsp, %rax
	movl	$0, (%rax)
	callq	__ZN5alloc5alloc6Global9grow_impl17hde7d74a11428694fE
	.loc	32 263 6
	addq	$64, %rsp
	popq	%rbp
	retq
Ltmp1442:
Lfunc_end123:
	.cfi_endproc

	.p2align	4, 0x90
__ZN63_$LT$alloc..alloc..Global$u20$as$u20$core..alloc..Allocator$GT$8allocate17hb3efd705a93eaecbE:
Lfunc_begin124:
	.loc	32 236 0
	.cfi_startproc
	pushq	%rbp
	.cfi_def_cfa_offset 16
	.cfi_offset %rbp, -16
	movq	%rsp, %rbp
	.cfi_def_cfa_register %rbp
	subq	$32, %rsp
	movq	%rdi, -24(%rbp)
	movq	%rsi, -16(%rbp)
	movq	%rdx, -8(%rbp)
	xorl	%ecx, %ecx
Ltmp1443:
	.loc	32 237 9 prologue_end
	callq	__ZN5alloc5alloc6Global10alloc_impl17h899181fb82876007E
	.loc	32 238 6
	addq	$32, %rsp
	popq	%rbp
	retq
Ltmp1444:
Lfunc_end124:
	.cfi_endproc

	.globl	__ZN70_$LT$alloc..vec..Vec$LT$T$C$A$GT$$u20$as$u20$core..ops..drop..Drop$GT$4drop17h244af3bc58d56a7aE
	.p2align	4, 0x90
__ZN70_$LT$alloc..vec..Vec$LT$T$C$A$GT$$u20$as$u20$core..ops..drop..Drop$GT$4drop17h244af3bc58d56a7aE:
Lfunc_begin125:
	.loc	28 3054 0
	.cfi_startproc
	pushq	%rbp
	.cfi_def_cfa_offset 16
	.cfi_offset %rbp, -16
	movq	%rsp, %rbp
	.cfi_def_cfa_register %rbp
	subq	$160, %rsp
	movq	%rdi, -120(%rbp)
Ltmp1445:
	.loc	28 3059 62 prologue_end
	movq	%rdi, -112(%rbp)
Ltmp1446:
	.loc	28 1280 19
	movq	%rdi, -104(%rbp)
Ltmp1447:
	.loc	29 224 9
	movq	8(%rdi), %rcx
	movq	%rcx, -96(%rbp)
Ltmp1448:
	.loc	6 104 9
	movq	%rcx, -88(%rbp)
Ltmp1449:
	.loc	5 326 9
	movq	%rcx, -80(%rbp)
Ltmp1450:
	.loc	28 1282 21
	movq	%rcx, -72(%rbp)
Ltmp1451:
	.loc	17 52 36
	movq	%rcx, -160(%rbp)
	.loc	17 52 18 is_stmt 0
	movq	-160(%rbp), %rax
	movq	%rax, -64(%rbp)
Ltmp1452:
	.loc	17 38 13 is_stmt 1
	movq	%rax, -56(%rbp)
Ltmp1453:
	.loc	17 215 33
	movq	%rax, -48(%rbp)
	.loc	17 215 18 is_stmt 0
	movq	%rax, -40(%rbp)
Ltmp1454:
	.loc	28 3059 81 is_stmt 1
	movq	16(%rdi), %rax
	movq	%rax, -32(%rbp)
Ltmp1455:
	.loc	3 766 24
	movq	%rcx, -24(%rbp)
Ltmp1456:
	.loc	17 60 9
	movq	%rcx, -16(%rbp)
Ltmp1457:
	.loc	3 766 37
	movq	%rax, -8(%rbp)
Ltmp1458:
	.loc	4 135 36
	movq	%rcx, -136(%rbp)
	movq	%rax, -128(%rbp)
	.loc	4 135 14 is_stmt 0
	movq	-136(%rbp), %rcx
	movq	-128(%rbp), %rax
	movq	%rcx, -152(%rbp)
	movq	%rax, -144(%rbp)
Ltmp1459:
	.loc	28 3062 6 is_stmt 1
	addq	$160, %rsp
	popq	%rbp
	retq
Ltmp1460:
Lfunc_end125:
	.cfi_endproc

	.globl	__ZN70_$LT$alloc..vec..Vec$LT$T$C$A$GT$$u20$as$u20$core..ops..drop..Drop$GT$4drop17h2573d599dd83a619E
	.p2align	4, 0x90
__ZN70_$LT$alloc..vec..Vec$LT$T$C$A$GT$$u20$as$u20$core..ops..drop..Drop$GT$4drop17h2573d599dd83a619E:
Lfunc_begin126:
	.loc	28 3054 0
	.cfi_startproc
	pushq	%rbp
	.cfi_def_cfa_offset 16
	.cfi_offset %rbp, -16
	movq	%rsp, %rbp
	.cfi_def_cfa_register %rbp
	subq	$160, %rsp
	movq	%rdi, -120(%rbp)
Ltmp1461:
	.loc	28 3059 62 prologue_end
	movq	%rdi, -112(%rbp)
Ltmp1462:
	.loc	28 1280 19
	movq	%rdi, -104(%rbp)
Ltmp1463:
	.loc	29 224 9
	movq	8(%rdi), %rcx
	movq	%rcx, -96(%rbp)
Ltmp1464:
	.loc	6 104 9
	movq	%rcx, -88(%rbp)
Ltmp1465:
	.loc	5 326 9
	movq	%rcx, -80(%rbp)
Ltmp1466:
	.loc	28 1282 21
	movq	%rcx, -72(%rbp)
Ltmp1467:
	.loc	17 52 36
	movq	%rcx, -160(%rbp)
	.loc	17 52 18 is_stmt 0
	movq	-160(%rbp), %rax
	movq	%rax, -64(%rbp)
Ltmp1468:
	.loc	17 38 13 is_stmt 1
	movq	%rax, -56(%rbp)
Ltmp1469:
	.loc	17 215 33
	movq	%rax, -48(%rbp)
	.loc	17 215 18 is_stmt 0
	movq	%rax, -40(%rbp)
Ltmp1470:
	.loc	28 3059 81 is_stmt 1
	movq	16(%rdi), %rax
	movq	%rax, -32(%rbp)
Ltmp1471:
	.loc	3 766 24
	movq	%rcx, -24(%rbp)
Ltmp1472:
	.loc	17 60 9
	movq	%rcx, -16(%rbp)
Ltmp1473:
	.loc	3 766 37
	movq	%rax, -8(%rbp)
Ltmp1474:
	.loc	4 135 36
	movq	%rcx, -136(%rbp)
	movq	%rax, -128(%rbp)
	.loc	4 135 14 is_stmt 0
	movq	-136(%rbp), %rcx
	movq	-128(%rbp), %rax
	movq	%rcx, -152(%rbp)
	movq	%rax, -144(%rbp)
Ltmp1475:
	.loc	28 3062 6 is_stmt 1
	addq	$160, %rsp
	popq	%rbp
	retq
Ltmp1476:
Lfunc_end126:
	.cfi_endproc

	.globl	__ZN70_$LT$alloc..vec..Vec$LT$T$C$A$GT$$u20$as$u20$core..ops..drop..Drop$GT$4drop17h2c64d079970be737E
	.p2align	4, 0x90
__ZN70_$LT$alloc..vec..Vec$LT$T$C$A$GT$$u20$as$u20$core..ops..drop..Drop$GT$4drop17h2c64d079970be737E:
Lfunc_begin127:
	.loc	28 3054 0
	.cfi_startproc
	pushq	%rbp
	.cfi_def_cfa_offset 16
	.cfi_offset %rbp, -16
	movq	%rsp, %rbp
	.cfi_def_cfa_register %rbp
	subq	$160, %rsp
	movq	%rdi, -120(%rbp)
Ltmp1477:
	.loc	28 3059 62 prologue_end
	movq	%rdi, -112(%rbp)
Ltmp1478:
	.loc	28 1280 19
	movq	%rdi, -104(%rbp)
Ltmp1479:
	.loc	29 224 9
	movq	8(%rdi), %rcx
	movq	%rcx, -96(%rbp)
Ltmp1480:
	.loc	6 104 9
	movq	%rcx, -88(%rbp)
Ltmp1481:
	.loc	5 326 9
	movq	%rcx, -80(%rbp)
Ltmp1482:
	.loc	28 1282 21
	movq	%rcx, -72(%rbp)
Ltmp1483:
	.loc	17 52 36
	movq	%rcx, -160(%rbp)
	.loc	17 52 18 is_stmt 0
	movq	-160(%rbp), %rax
	movq	%rax, -64(%rbp)
Ltmp1484:
	.loc	17 38 13 is_stmt 1
	movq	%rax, -56(%rbp)
Ltmp1485:
	.loc	17 215 33
	movq	%rax, -48(%rbp)
	.loc	17 215 18 is_stmt 0
	movq	%rax, -40(%rbp)
Ltmp1486:
	.loc	28 3059 81 is_stmt 1
	movq	16(%rdi), %rax
	movq	%rax, -32(%rbp)
Ltmp1487:
	.loc	3 766 24
	movq	%rcx, -24(%rbp)
Ltmp1488:
	.loc	17 60 9
	movq	%rcx, -16(%rbp)
Ltmp1489:
	.loc	3 766 37
	movq	%rax, -8(%rbp)
Ltmp1490:
	.loc	4 135 36
	movq	%rcx, -136(%rbp)
	movq	%rax, -128(%rbp)
	.loc	4 135 14 is_stmt 0
	movq	-136(%rbp), %rcx
	movq	-128(%rbp), %rax
	movq	%rcx, -152(%rbp)
	movq	%rax, -144(%rbp)
Ltmp1491:
	.loc	28 3062 6 is_stmt 1
	addq	$160, %rsp
	popq	%rbp
	retq
Ltmp1492:
Lfunc_end127:
	.cfi_endproc

	.globl	__ZN70_$LT$alloc..vec..Vec$LT$T$C$A$GT$$u20$as$u20$core..ops..drop..Drop$GT$4drop17h6eb109f8ecc709b3E
	.p2align	4, 0x90
__ZN70_$LT$alloc..vec..Vec$LT$T$C$A$GT$$u20$as$u20$core..ops..drop..Drop$GT$4drop17h6eb109f8ecc709b3E:
Lfunc_begin128:
	.loc	28 3054 0
	.cfi_startproc
	pushq	%rbp
	.cfi_def_cfa_offset 16
	.cfi_offset %rbp, -16
	movq	%rsp, %rbp
	.cfi_def_cfa_register %rbp
	subq	$160, %rsp
	movq	%rdi, -120(%rbp)
Ltmp1493:
	.loc	28 3059 62 prologue_end
	movq	%rdi, -112(%rbp)
Ltmp1494:
	.loc	28 1280 19
	movq	%rdi, -104(%rbp)
Ltmp1495:
	.loc	29 224 9
	movq	8(%rdi), %rcx
	movq	%rcx, -96(%rbp)
Ltmp1496:
	.loc	6 104 9
	movq	%rcx, -88(%rbp)
Ltmp1497:
	.loc	5 326 9
	movq	%rcx, -80(%rbp)
Ltmp1498:
	.loc	28 1282 21
	movq	%rcx, -72(%rbp)
Ltmp1499:
	.loc	17 52 36
	movq	%rcx, -160(%rbp)
	.loc	17 52 18 is_stmt 0
	movq	-160(%rbp), %rax
	movq	%rax, -64(%rbp)
Ltmp1500:
	.loc	17 38 13 is_stmt 1
	movq	%rax, -56(%rbp)
Ltmp1501:
	.loc	17 215 33
	movq	%rax, -48(%rbp)
	.loc	17 215 18 is_stmt 0
	movq	%rax, -40(%rbp)
Ltmp1502:
	.loc	28 3059 81 is_stmt 1
	movq	16(%rdi), %rax
	movq	%rax, -32(%rbp)
Ltmp1503:
	.loc	3 766 24
	movq	%rcx, -24(%rbp)
Ltmp1504:
	.loc	17 60 9
	movq	%rcx, -16(%rbp)
Ltmp1505:
	.loc	3 766 37
	movq	%rax, -8(%rbp)
Ltmp1506:
	.loc	4 135 36
	movq	%rcx, -136(%rbp)
	movq	%rax, -128(%rbp)
	.loc	4 135 14 is_stmt 0
	movq	-136(%rbp), %rcx
	movq	-128(%rbp), %rax
	movq	%rcx, -152(%rbp)
	movq	%rax, -144(%rbp)
Ltmp1507:
	.loc	28 3062 6 is_stmt 1
	addq	$160, %rsp
	popq	%rbp
	retq
Ltmp1508:
Lfunc_end128:
	.cfi_endproc

	.globl	__ZN70_$LT$alloc..vec..Vec$LT$T$C$A$GT$$u20$as$u20$core..ops..drop..Drop$GT$4drop17hc6792277c8ac3437E
	.p2align	4, 0x90
__ZN70_$LT$alloc..vec..Vec$LT$T$C$A$GT$$u20$as$u20$core..ops..drop..Drop$GT$4drop17hc6792277c8ac3437E:
Lfunc_begin129:
	.loc	28 3054 0
	.cfi_startproc
	pushq	%rbp
	.cfi_def_cfa_offset 16
	.cfi_offset %rbp, -16
	movq	%rsp, %rbp
	.cfi_def_cfa_register %rbp
	subq	$160, %rsp
	movq	%rdi, -120(%rbp)
Ltmp1509:
	.loc	28 3059 62 prologue_end
	movq	%rdi, -112(%rbp)
Ltmp1510:
	.loc	28 1280 19
	movq	%rdi, -104(%rbp)
Ltmp1511:
	.loc	29 224 9
	movq	8(%rdi), %rcx
	movq	%rcx, -96(%rbp)
Ltmp1512:
	.loc	6 104 9
	movq	%rcx, -88(%rbp)
Ltmp1513:
	.loc	5 326 9
	movq	%rcx, -80(%rbp)
Ltmp1514:
	.loc	28 1282 21
	movq	%rcx, -72(%rbp)
Ltmp1515:
	.loc	17 52 36
	movq	%rcx, -160(%rbp)
	.loc	17 52 18 is_stmt 0
	movq	-160(%rbp), %rax
	movq	%rax, -64(%rbp)
Ltmp1516:
	.loc	17 38 13 is_stmt 1
	movq	%rax, -56(%rbp)
Ltmp1517:
	.loc	17 215 33
	movq	%rax, -48(%rbp)
	.loc	17 215 18 is_stmt 0
	movq	%rax, -40(%rbp)
Ltmp1518:
	.loc	28 3059 81 is_stmt 1
	movq	16(%rdi), %rax
	movq	%rax, -32(%rbp)
Ltmp1519:
	.loc	3 766 24
	movq	%rcx, -24(%rbp)
Ltmp1520:
	.loc	17 60 9
	movq	%rcx, -16(%rbp)
Ltmp1521:
	.loc	3 766 37
	movq	%rax, -8(%rbp)
Ltmp1522:
	.loc	4 135 36
	movq	%rcx, -136(%rbp)
	movq	%rax, -128(%rbp)
	.loc	4 135 14 is_stmt 0
	movq	-136(%rbp), %rcx
	movq	-128(%rbp), %rax
	movq	%rcx, -152(%rbp)
	movq	%rax, -144(%rbp)
Ltmp1523:
	.loc	28 3062 6 is_stmt 1
	addq	$160, %rsp
	popq	%rbp
	retq
Ltmp1524:
Lfunc_end129:
	.cfi_endproc

	.globl	__ZN72_$LT$alloc..vec..Vec$LT$T$C$A$GT$$u20$as$u20$core..ops..deref..Deref$GT$5deref17h19d1b186e744daadE
	.p2align	4, 0x90
__ZN72_$LT$alloc..vec..Vec$LT$T$C$A$GT$$u20$as$u20$core..ops..deref..Deref$GT$5deref17h19d1b186e744daadE:
Lfunc_begin130:
	.loc	28 2636 0
	.cfi_startproc
	pushq	%rbp
	.cfi_def_cfa_offset 16
	.cfi_offset %rbp, -16
	movq	%rsp, %rbp
	.cfi_def_cfa_register %rbp
	subq	$184, %rsp
	movq	%rdi, -144(%rbp)
Ltmp1525:
	.loc	28 2637 40 prologue_end
	movq	%rdi, -136(%rbp)
Ltmp1526:
	.loc	28 1243 19
	movq	%rdi, -128(%rbp)
Ltmp1527:
	.loc	29 224 9
	movq	8(%rdi), %rcx
	movq	%rcx, -120(%rbp)
Ltmp1528:
	.loc	6 104 9
	movq	%rcx, -112(%rbp)
Ltmp1529:
	.loc	5 326 9
	movq	%rcx, -104(%rbp)
Ltmp1530:
	.loc	28 1245 21
	movq	%rcx, -96(%rbp)
Ltmp1531:
	.loc	17 52 36
	movq	%rcx, -184(%rbp)
	.loc	17 52 18 is_stmt 0
	movq	-184(%rbp), %rax
	movq	%rax, -88(%rbp)
Ltmp1532:
	.loc	17 38 13 is_stmt 1
	movq	%rax, -80(%rbp)
Ltmp1533:
	.loc	17 215 33
	movq	%rax, -72(%rbp)
	.loc	17 215 18 is_stmt 0
	movq	%rax, -64(%rbp)
Ltmp1534:
	.loc	28 1247 9 is_stmt 1
	movq	%rcx, -56(%rbp)
Ltmp1535:
	.loc	28 2637 55
	movq	16(%rdi), %rax
	movq	%rax, -48(%rbp)
Ltmp1536:
	.file	35 "/rustc/2c8cc343237b8f7d5a3c3703e3a87f2eb2c54a74/library/core/src/slice" "raw.rs"
	.loc	35 100 37
	movq	%rcx, -40(%rbp)
	.loc	35 100 43 is_stmt 0
	movq	%rax, -32(%rbp)
Ltmp1537:
	.loc	3 734 20 is_stmt 1
	movq	%rcx, -24(%rbp)
Ltmp1538:
	.loc	2 61 9
	movq	%rcx, -16(%rbp)
Ltmp1539:
	.loc	3 734 33
	movq	%rax, -8(%rbp)
Ltmp1540:
	.loc	4 118 36
	movq	%rcx, -160(%rbp)
	movq	%rax, -152(%rbp)
	.loc	4 118 14 is_stmt 0
	movq	-160(%rbp), %rcx
	movq	-152(%rbp), %rax
	movq	%rcx, -176(%rbp)
	movq	%rax, -168(%rbp)
	movq	-176(%rbp), %rax
	movq	-168(%rbp), %rdx
Ltmp1541:
	.loc	28 2638 6 is_stmt 1
	addq	$184, %rsp
	popq	%rbp
	retq
Ltmp1542:
Lfunc_end130:
	.cfi_endproc

	.globl	__ZN72_$LT$alloc..vec..Vec$LT$T$C$A$GT$$u20$as$u20$core..ops..deref..Deref$GT$5deref17h416955866e42fb8bE
	.p2align	4, 0x90
__ZN72_$LT$alloc..vec..Vec$LT$T$C$A$GT$$u20$as$u20$core..ops..deref..Deref$GT$5deref17h416955866e42fb8bE:
Lfunc_begin131:
	.loc	28 2636 0
	.cfi_startproc
	pushq	%rbp
	.cfi_def_cfa_offset 16
	.cfi_offset %rbp, -16
	movq	%rsp, %rbp
	.cfi_def_cfa_register %rbp
	subq	$184, %rsp
	movq	%rdi, -144(%rbp)
Ltmp1543:
	.loc	28 2637 40 prologue_end
	movq	%rdi, -136(%rbp)
Ltmp1544:
	.loc	28 1243 19
	movq	%rdi, -128(%rbp)
Ltmp1545:
	.loc	29 224 9
	movq	8(%rdi), %rcx
	movq	%rcx, -120(%rbp)
Ltmp1546:
	.loc	6 104 9
	movq	%rcx, -112(%rbp)
Ltmp1547:
	.loc	5 326 9
	movq	%rcx, -104(%rbp)
Ltmp1548:
	.loc	28 1245 21
	movq	%rcx, -96(%rbp)
Ltmp1549:
	.loc	17 52 36
	movq	%rcx, -184(%rbp)
	.loc	17 52 18 is_stmt 0
	movq	-184(%rbp), %rax
	movq	%rax, -88(%rbp)
Ltmp1550:
	.loc	17 38 13 is_stmt 1
	movq	%rax, -80(%rbp)
Ltmp1551:
	.loc	17 215 33
	movq	%rax, -72(%rbp)
	.loc	17 215 18 is_stmt 0
