	.section	__TEXT,__text,regular,pure_instructions
	.macosx_version_min 10, 7
	.globl	__ZN106_$LT$core..ops..range..Range$LT$usize$GT$$u20$as$u20$core..slice..index..SliceIndex$LT$$u5b$T$u5d$$GT$$GT$13get_unchecked17hc8d9969313215167E
	.p2align	4, 0x90
__ZN106_$LT$core..ops..range..Range$LT$usize$GT$$u20$as$u20$core..slice..index..SliceIndex$LT$$u5b$T$u5d$$GT$$GT$13get_unchecked17hc8d9969313215167E:
Lfunc_begin0:
	.file	1 "/rustc/2c8cc343237b8f7d5a3c3703e3a87f2eb2c54a74/library/core/src/slice" "index.rs"
	.loc	1 373 0
	.cfi_startproc
	pushq	%rbp
	.cfi_def_cfa_offset 16
	.cfi_offset %rbp, -16
	movq	%rsp, %rbp
	.cfi_def_cfa_register %rbp
	subq	$160, %rsp
	movq	%rdi, -128(%rbp)
	movq	%rsi, -120(%rbp)
	movq	%rdx, -112(%rbp)
	movq	%rcx, -104(%rbp)
Ltmp0:
	.loc	1 386 39 prologue_end
	movq	%rdx, -96(%rbp)
	movq	%rcx, -88(%rbp)
Ltmp1:
	.file	2 "/rustc/2c8cc343237b8f7d5a3c3703e3a87f2eb2c54a74/library/core/src/ptr" "const_ptr.rs"
	.loc	2 1650 9
	movq	%rdx, -80(%rbp)
Ltmp2:
	.loc	1 386 58
	movq	%rdi, -72(%rbp)
Ltmp3:
	.loc	2 932 18
	movq	%rdx, -64(%rbp)
	.loc	2 932 30 is_stmt 0
	movq	%rdi, -56(%rbp)
Ltmp4:
	.loc	2 473 18 is_stmt 1
	addq	%rdi, %rdx
	movq	%rdx, -48(%rbp)
	movq	-48(%rbp), %rax
	movq	%rax, -40(%rbp)
Ltmp5:
	.loc	1 386 71
	subq	%rdi, %rsi
	movq	%rsi, -32(%rbp)
Ltmp6:
	.file	3 "/rustc/2c8cc343237b8f7d5a3c3703e3a87f2eb2c54a74/library/core/src/ptr" "mod.rs"
	.loc	3 734 20
	movq	%rax, -24(%rbp)
Ltmp7:
	.loc	2 61 9
	movq	%rax, -16(%rbp)
Ltmp8:
	.loc	3 734 33
	movq	%rsi, -8(%rbp)
Ltmp9:
	.file	4 "/rustc/2c8cc343237b8f7d5a3c3703e3a87f2eb2c54a74/library/core/src/ptr" "metadata.rs"
	.loc	4 118 36
	movq	%rax, -144(%rbp)
	movq	%rsi, -136(%rbp)
	.loc	4 118 14 is_stmt 0
	movq	-144(%rbp), %rcx
	movq	-136(%rbp), %rax
	movq	%rcx, -160(%rbp)
	movq	%rax, -152(%rbp)
	movq	-160(%rbp), %rax
	movq	-152(%rbp), %rdx
Ltmp10:
	.loc	1 388 6 is_stmt 1
	addq	$160, %rsp
	popq	%rbp
	retq
Ltmp11:
Lfunc_end0:
	.cfi_endproc

	.globl	__ZN106_$LT$core..ops..range..Range$LT$usize$GT$$u20$as$u20$core..slice..index..SliceIndex$LT$$u5b$T$u5d$$GT$$GT$17get_unchecked_mut17hb2c184dbf69d04c0E
	.p2align	4, 0x90
__ZN106_$LT$core..ops..range..Range$LT$usize$GT$$u20$as$u20$core..slice..index..SliceIndex$LT$$u5b$T$u5d$$GT$$GT$17get_unchecked_mut17hb2c184dbf69d04c0E:
Lfunc_begin1:
	.loc	1 391 0
	.cfi_startproc
	pushq	%rbp
	.cfi_def_cfa_offset 16
	.cfi_offset %rbp, -16
	movq	%rsp, %rbp
	.cfi_def_cfa_register %rbp
	subq	$160, %rsp
	movq	%rdi, -128(%rbp)
	movq	%rsi, -120(%rbp)
	movq	%rdx, -112(%rbp)
	movq	%rcx, -104(%rbp)
Ltmp12:
	.loc	1 400 43 prologue_end
	movq	%rdx, -96(%rbp)
	movq	%rcx, -88(%rbp)
Ltmp13:
	.file	5 "/rustc/2c8cc343237b8f7d5a3c3703e3a87f2eb2c54a74/library/core/src/ptr" "mut_ptr.rs"
	.loc	5 2037 9
	movq	%rdx, -80(%rbp)
Ltmp14:
	.loc	1 400 66
	movq	%rdi, -72(%rbp)
Ltmp15:
	.loc	5 1034 18
	movq	%rdx, -64(%rbp)
	.loc	5 1034 30 is_stmt 0
	movq	%rdi, -56(%rbp)
Ltmp16:
	.loc	5 487 18 is_stmt 1
	addq	%rdi, %rdx
	movq	%rdx, -48(%rbp)
	movq	-48(%rbp), %rax
	movq	%rax, -40(%rbp)
Ltmp17:
	.loc	1 400 79
	subq	%rdi, %rsi
	movq	%rsi, -32(%rbp)
Ltmp18:
	.loc	3 766 24
	movq	%rax, -24(%rbp)
Ltmp19:
	.loc	5 60 9
	movq	%rax, -16(%rbp)
Ltmp20:
	.loc	3 766 37
	movq	%rsi, -8(%rbp)
Ltmp21:
	.loc	4 135 36
	movq	%rax, -144(%rbp)
	movq	%rsi, -136(%rbp)
	.loc	4 135 14 is_stmt 0
	movq	-144(%rbp), %rcx
	movq	-136(%rbp), %rax
	movq	%rcx, -160(%rbp)
	movq	%rax, -152(%rbp)
	movq	-160(%rbp), %rax
	movq	-152(%rbp), %rdx
Ltmp22:
	.loc	1 402 6 is_stmt 1
	addq	$160, %rsp
	popq	%rbp
	retq
Ltmp23:
Lfunc_end1:
	.cfi_endproc

	.globl	__ZN106_$LT$core..ops..range..Range$LT$usize$GT$$u20$as$u20$core..slice..index..SliceIndex$LT$$u5b$T$u5d$$GT$$GT$5index17hac88c3ea34dc788dE
	.p2align	4, 0x90
__ZN106_$LT$core..ops..range..Range$LT$usize$GT$$u20$as$u20$core..slice..index..SliceIndex$LT$$u5b$T$u5d$$GT$$GT$5index17hac88c3ea34dc788dE:
Lfunc_begin2:
	.loc	1 405 0
	.cfi_startproc
	pushq	%rbp
	.cfi_def_cfa_offset 16
	.cfi_offset %rbp, -16
	movq	%rsp, %rbp
	.cfi_def_cfa_register %rbp
	subq	$80, %rsp
	movq	%rdi, -72(%rbp)
	movq	%rsi, -64(%rbp)
	movq	%rdx, -56(%rbp)
	movq	%rcx, -48(%rbp)
	movq	%r8, -40(%rbp)
	movq	%rdi, -32(%rbp)
	movq	%rsi, -24(%rbp)
	movq	%rdx, -16(%rbp)
	movq	%rcx, -8(%rbp)
Ltmp24:
	.loc	1 406 12 prologue_end
	cmpq	%rsi, %rdi
	ja	LBB2_2
	.loc	1 0 12 is_stmt 0
	movq	-64(%rbp), %rax
	movq	-48(%rbp), %rcx
	.loc	1 408 19 is_stmt 1
	cmpq	%rcx, %rax
	ja	LBB2_4
	jmp	LBB2_3
LBB2_2:
	.loc	1 0 19 is_stmt 0
	movq	-40(%rbp), %rdx
	movq	-64(%rbp), %rsi
	movq	-72(%rbp), %rdi
	.loc	1 407 13 is_stmt 1
	callq	__ZN4core5slice5index22slice_index_order_fail17h0d8f800a07d5f26eE
LBB2_3:
	.loc	1 0 13 is_stmt 0
	movq	-48(%rbp), %rcx
	movq	-56(%rbp), %rdx
	movq	-64(%rbp), %rsi
	movq	-72(%rbp), %rdi
	.loc	1 412 20 is_stmt 1
	callq	__ZN106_$LT$core..ops..range..Range$LT$usize$GT$$u20$as$u20$core..slice..index..SliceIndex$LT$$u5b$T$u5d$$GT$$GT$13get_unchecked17hc8d9969313215167E
	.loc	1 413 6
	addq	$80, %rsp
	popq	%rbp
	retq
LBB2_4:
	.loc	1 0 6 is_stmt 0
	movq	-40(%rbp), %rdx
	movq	-48(%rbp), %rsi
	movq	-64(%rbp), %rdi
	.loc	1 409 13 is_stmt 1
	callq	__ZN4core5slice5index24slice_end_index_len_fail17hc921cb2f1513645aE
Ltmp25:
Lfunc_end2:
	.cfi_endproc

	.globl	__ZN106_$LT$core..ops..range..Range$LT$usize$GT$$u20$as$u20$core..slice..index..SliceIndex$LT$$u5b$T$u5d$$GT$$GT$9index_mut17h9d8cccfa385ef70bE
	.p2align	4, 0x90
__ZN106_$LT$core..ops..range..Range$LT$usize$GT$$u20$as$u20$core..slice..index..SliceIndex$LT$$u5b$T$u5d$$GT$$GT$9index_mut17h9d8cccfa385ef70bE:
Lfunc_begin3:
	.loc	1 416 0
	.cfi_startproc
	pushq	%rbp
	.cfi_def_cfa_offset 16
	.cfi_offset %rbp, -16
	movq	%rsp, %rbp
	.cfi_def_cfa_register %rbp
	subq	$80, %rsp
	movq	%rdi, -72(%rbp)
	movq	%rsi, -64(%rbp)
	movq	%rdx, -56(%rbp)
	movq	%rcx, -48(%rbp)
	movq	%r8, -40(%rbp)
	movq	%rdi, -32(%rbp)
	movq	%rsi, -24(%rbp)
	movq	%rdx, -16(%rbp)
	movq	%rcx, -8(%rbp)
Ltmp26:
	.loc	1 417 12 prologue_end
	cmpq	%rsi, %rdi
	ja	LBB3_2
	.loc	1 0 12 is_stmt 0
	movq	-64(%rbp), %rax
	movq	-48(%rbp), %rcx
	.loc	1 419 19 is_stmt 1
	cmpq	%rcx, %rax
	ja	LBB3_4
	jmp	LBB3_3
LBB3_2:
	.loc	1 0 19 is_stmt 0
	movq	-40(%rbp), %rdx
	movq	-64(%rbp), %rsi
	movq	-72(%rbp), %rdi
	.loc	1 418 13 is_stmt 1
	callq	__ZN4core5slice5index22slice_index_order_fail17h0d8f800a07d5f26eE
LBB3_3:
	.loc	1 0 13 is_stmt 0
	movq	-48(%rbp), %rcx
	movq	-56(%rbp), %rdx
	movq	-64(%rbp), %rsi
	movq	-72(%rbp), %rdi
	.loc	1 423 24 is_stmt 1
	callq	__ZN106_$LT$core..ops..range..Range$LT$usize$GT$$u20$as$u20$core..slice..index..SliceIndex$LT$$u5b$T$u5d$$GT$$GT$17get_unchecked_mut17hb2c184dbf69d04c0E
	.loc	1 424 6
	addq	$80, %rsp
	popq	%rbp
	retq
LBB3_4:
	.loc	1 0 6 is_stmt 0
	movq	-40(%rbp), %rdx
	movq	-48(%rbp), %rsi
	movq	-64(%rbp), %rdi
	.loc	1 420 13 is_stmt 1
	callq	__ZN4core5slice5index24slice_end_index_len_fail17hc921cb2f1513645aE
Ltmp27:
Lfunc_end3:
	.cfi_endproc

	.globl	__ZN119_$LT$core..ptr..non_null..NonNull$LT$T$GT$$u20$as$u20$core..convert..From$LT$core..ptr..unique..Unique$LT$T$GT$$GT$$GT$4from17ha3c11efe09de7ec7E
	.p2align	4, 0x90
__ZN119_$LT$core..ptr..non_null..NonNull$LT$T$GT$$u20$as$u20$core..convert..From$LT$core..ptr..unique..Unique$LT$T$GT$$GT$$GT$4from17ha3c11efe09de7ec7E:
Lfunc_begin4:
	.file	6 "/rustc/2c8cc343237b8f7d5a3c3703e3a87f2eb2c54a74/library/core/src/ptr" "non_null.rs"
	.loc	6 765 0
	.cfi_startproc
	pushq	%rbp
	.cfi_def_cfa_offset 16
	.cfi_offset %rbp, -16
	movq	%rsp, %rbp
	.cfi_def_cfa_register %rbp
	subq	$40, %rsp
	movq	%rdi, -32(%rbp)
Ltmp28:
	.loc	6 768 41 prologue_end
	movq	%rdi, -24(%rbp)
Ltmp29:
	.file	7 "/rustc/2c8cc343237b8f7d5a3c3703e3a87f2eb2c54a74/library/core/src/ptr" "unique.rs"
	.loc	7 104 9
	movq	%rdi, -16(%rbp)
Ltmp30:
	.loc	6 326 9
	movq	%rdi, -8(%rbp)
Ltmp31:
	.loc	6 201 13
	movq	%rdi, -40(%rbp)
Ltmp32:
	.loc	6 769 6
	movq	-40(%rbp), %rax
	addq	$40, %rsp
	popq	%rbp
	retq
Ltmp33:
Lfunc_end4:
	.cfi_endproc

	.p2align	4, 0x90
__ZN122_$LT$alloc..collections..TryReserveError$u20$as$u20$core..convert..From$LT$alloc..collections..TryReserveErrorKind$GT$$GT$4from17h3ed35de41742339eE:
Lfunc_begin5:
	.file	8 "/rustc/2c8cc343237b8f7d5a3c3703e3a87f2eb2c54a74/library/alloc/src/collections" "mod.rs"
	.loc	8 116 0
	.cfi_startproc
	pushq	%rbp
	.cfi_def_cfa_offset 16
	.cfi_offset %rbp, -16
	movq	%rsp, %rbp
	.cfi_def_cfa_register %rbp
	subq	$32, %rsp
	movq	%rdi, -16(%rbp)
	movq	%rsi, -8(%rbp)
Ltmp34:
	.loc	8 117 9 prologue_end
	movq	%rdi, -32(%rbp)
	movq	%rsi, -24(%rbp)
	.loc	8 118 6
	movq	-32(%rbp), %rax
	movq	-24(%rbp), %rdx
	addq	$32, %rsp
	popq	%rbp
	retq
Ltmp35:
Lfunc_end5:
	.cfi_endproc

	.globl	__ZN132_$LT$alloc..vec..Vec$LT$T$C$A$GT$$u20$as$u20$alloc..vec..spec_extend..SpecExtend$LT$$RF$T$C$core..slice..iter..Iter$LT$T$GT$$GT$$GT$11spec_extend17he9b68f47a80ad4dcE
	.p2align	4, 0x90
__ZN132_$LT$alloc..vec..Vec$LT$T$C$A$GT$$u20$as$u20$alloc..vec..spec_extend..SpecExtend$LT$$RF$T$C$core..slice..iter..Iter$LT$T$GT$$GT$$GT$11spec_extend17he9b68f47a80ad4dcE:
Lfunc_begin6:
	.file	9 "/rustc/2c8cc343237b8f7d5a3c3703e3a87f2eb2c54a74/library/alloc/src/vec" "spec_extend.rs"
	.loc	9 53 0
	.cfi_startproc
	pushq	%rbp
	.cfi_def_cfa_offset 16
	.cfi_offset %rbp, -16
	movq	%rsp, %rbp
	.cfi_def_cfa_register %rbp
	subq	$48, %rsp
	movq	%rdi, -48(%rbp)
	movq	%rsi, -40(%rbp)
	movq	%rdx, -32(%rbp)
	movq	%rdi, -24(%rbp)
Ltmp36:
	.loc	9 54 21 prologue_end
	leaq	-40(%rbp), %rdi
	callq	__ZN4core5slice4iter13Iter$LT$T$GT$8as_slice17ha056f3e03866ad64E
	movq	-48(%rbp), %rdi
	movq	%rax, %rsi
	movq	%rsi, -16(%rbp)
	movq	%rdx, -8(%rbp)
Ltmp37:
	.loc	9 55 18
	callq	__ZN5alloc3vec16Vec$LT$T$C$A$GT$15append_elements17h3cc48b5d4832a227E
Ltmp38:
	.loc	9 56 6
	addq	$48, %rsp
	popq	%rbp
	retq
Ltmp39:
Lfunc_end6:
	.cfi_endproc

	.globl	__ZN36_$LT$T$u20$as$u20$core..any..Any$GT$7type_id17h771da0d77f952fe8E
	.p2align	4, 0x90
__ZN36_$LT$T$u20$as$u20$core..any..Any$GT$7type_id17h771da0d77f952fe8E:
Lfunc_begin7:
	.file	10 "/rustc/2c8cc343237b8f7d5a3c3703e3a87f2eb2c54a74/library/core/src" "any.rs"
	.loc	10 201 0
	.cfi_startproc
	pushq	%rbp
	.cfi_def_cfa_offset 16
	.cfi_offset %rbp, -16
	movq	%rsp, %rbp
	.cfi_def_cfa_register %rbp
	subq	$16, %rsp
	movq	%rdi, -8(%rbp)
Ltmp40:
	.loc	10 202 9 prologue_end
	callq	__ZN4core3any6TypeId2of17hf4313e98997ac307E
	.loc	10 203 6
	addq	$16, %rsp
	popq	%rbp
	retq
Ltmp41:
Lfunc_end7:
	.cfi_endproc

	.globl	__ZN3std10sys_common9backtrace26__rust_end_short_backtrace17h8089d08c2d7571fcE
	.p2align	4, 0x90
__ZN3std10sys_common9backtrace26__rust_end_short_backtrace17h8089d08c2d7571fcE:
Lfunc_begin8:
	.file	11 "/rustc/2c8cc343237b8f7d5a3c3703e3a87f2eb2c54a74/library/std/src/sys_common" "backtrace.rs"
	.loc	11 133 0
	.cfi_startproc
	pushq	%rbp
	.cfi_def_cfa_offset 16
	.cfi_offset %rbp, -16
	movq	%rsp, %rbp
	.cfi_def_cfa_register %rbp
	subq	$64, %rsp
Ltmp42:
	.loc	11 137 18 prologue_end
	movq	(%rdi), %rax
	movq	%rax, -56(%rbp)
	movq	8(%rdi), %rax
	movq	%rax, -48(%rbp)
	movq	16(%rdi), %rax
	movq	%rax, -40(%rbp)
	leaq	-56(%rbp), %rdi
Ltmp43:
	callq	__ZN3std9panicking11begin_panic28_$u7b$$u7b$closure$u7d$$u7d$17hd6cd3e5b71b5045cE
Ltmp44:
	.file	12 "/rustc/2c8cc343237b8f7d5a3c3703e3a87f2eb2c54a74/library/core/src" "hint.rs"
	.loc	12 295 5
	## InlineAsm Start
	## InlineAsm End
Ltmp45:
	.loc	11 143 2
	ud2
Ltmp46:
Lfunc_end8:
	.cfi_endproc

	.globl	__ZN3std9panicking11begin_panic17hca1489fda4927541E
	.p2align	4, 0x90
__ZN3std9panicking11begin_panic17hca1489fda4927541E:
Lfunc_begin9:
	.file	13 "/rustc/2c8cc343237b8f7d5a3c3703e3a87f2eb2c54a74/library/std/src" "panicking.rs"
	.loc	13 601 0
	.cfi_startproc
	.cfi_personality 155, _rust_eh_personality
	.cfi_lsda 16, Lexception0
	pushq	%rbp
	.cfi_def_cfa_offset 16
	.cfi_offset %rbp, -16
	movq	%rsp, %rbp
	.cfi_def_cfa_register %rbp
	subq	$112, %rsp
	movq	%rdi, -104(%rbp)
	movq	%rsi, -96(%rbp)
	movq	%rdi, -48(%rbp)
	movq	%rsi, -40(%rbp)
Ltmp50:
	.loc	13 602 5 prologue_end
	movb	$1, -49(%rbp)
Ltmp51:
	.file	14 "/rustc/2c8cc343237b8f7d5a3c3703e3a87f2eb2c54a74/library/core/src/panic" "location.rs"
	.loc	14 88 9
	movq	%rdx, -32(%rbp)
	movq	-32(%rbp), %rax
	movq	%rax, -88(%rbp)
	movq	%rax, -24(%rbp)
Ltmp52:
	.loc	14 0 9 is_stmt 0
	movq	-88(%rbp), %rax
	movq	-96(%rbp), %rcx
	movq	-104(%rbp), %rdx
Ltmp53:
	.loc	13 607 69 is_stmt 1
	movb	$0, -49(%rbp)
	movq	%rdx, -80(%rbp)
	movq	%rcx, -72(%rbp)
	movq	%rax, -64(%rbp)
Ltmp47:
	leaq	-80(%rbp), %rdi
	.loc	13 607 12 is_stmt 0
	callq	__ZN3std10sys_common9backtrace26__rust_end_short_backtrace17h8089d08c2d7571fcE
Ltmp48:
	jmp	LBB9_4
Ltmp54:
LBB9_2:
	.loc	13 642 1 is_stmt 1
	testb	$1, -49(%rbp)
	jne	LBB9_6
	jmp	LBB9_5
LBB9_3:
Ltmp49:
	.loc	13 0 1 is_stmt 0
	movq	%rax, %rcx
	movl	%edx, %eax
	movq	%rcx, -16(%rbp)
	movl	%eax, -8(%rbp)
	jmp	LBB9_2
LBB9_4:
	ud2
LBB9_5:
	.loc	13 601 1 is_stmt 1
	movq	-16(%rbp), %rdi
	callq	__Unwind_Resume
LBB9_6:
	.loc	13 642 1
	jmp	LBB9_5
Ltmp55:
Lfunc_end9:
	.cfi_endproc
	.section	__TEXT,__gcc_except_tab
	.p2align	2
GCC_except_table9:
Lexception0:
	.byte	255
	.byte	255
	.byte	1
	.uleb128 Lcst_end0-Lcst_begin0
Lcst_begin0:
	.uleb128 Ltmp47-Lfunc_begin9
	.uleb128 Ltmp48-Ltmp47
	.uleb128 Ltmp49-Lfunc_begin9
	.byte	0
	.uleb128 Ltmp48-Lfunc_begin9
	.uleb128 Lfunc_end9-Ltmp48
	.byte	0
	.byte	0
Lcst_end0:
	.p2align	2

	.section	__TEXT,__text,regular,pure_instructions
	.globl	__ZN3std9panicking11begin_panic21PanicPayload$LT$A$GT$3new17hce6260a1bc45d7ecE
	.p2align	4, 0x90
__ZN3std9panicking11begin_panic21PanicPayload$LT$A$GT$3new17hce6260a1bc45d7ecE:
Lfunc_begin10:
	.loc	13 616 0
	.cfi_startproc
	pushq	%rbp
	.cfi_def_cfa_offset 16
	.cfi_offset %rbp, -16
	movq	%rsp, %rbp
	.cfi_def_cfa_register %rbp
	subq	$48, %rsp
	movq	%rdi, -16(%rbp)
	movq	%rsi, -8(%rbp)
Ltmp56:
	.loc	13 617 35 prologue_end
	movq	%rdi, -32(%rbp)
	movq	%rsi, -24(%rbp)
	.loc	13 617 13 is_stmt 0
	movq	-32(%rbp), %rcx
	movq	-24(%rbp), %rax
	movq	%rcx, -48(%rbp)
	movq	%rax, -40(%rbp)
	.loc	13 618 10 is_stmt 1
	movq	-48(%rbp), %rax
	movq	-40(%rbp), %rdx
	addq	$48, %rsp
	popq	%rbp
	retq
Ltmp57:
Lfunc_end10:
	.cfi_endproc

	.globl	__ZN3std9panicking11begin_panic28_$u7b$$u7b$closure$u7d$$u7d$17hd6cd3e5b71b5045cE
	.p2align	4, 0x90
__ZN3std9panicking11begin_panic28_$u7b$$u7b$closure$u7d$$u7d$17hd6cd3e5b71b5045cE:
Lfunc_begin11:
	.loc	13 607 0
	.cfi_startproc
	.cfi_personality 155, _rust_eh_personality
	.cfi_lsda 16, Lexception1
	pushq	%rbp
	.cfi_def_cfa_offset 16
	.cfi_offset %rbp, -16
	movq	%rsp, %rbp
	.cfi_def_cfa_register %rbp
	subq	$48, %rsp
	movq	%rdi, %rax
	movq	%rax, -48(%rbp)
Ltmp61:
	.loc	13 608 53 prologue_end
	movq	(%rax), %rdi
	movq	8(%rax), %rsi
	.loc	13 608 35 is_stmt 0
	callq	__ZN3std9panicking11begin_panic21PanicPayload$LT$A$GT$3new17hce6260a1bc45d7ecE
	movq	-48(%rbp), %rdi
	movq	%rdx, -32(%rbp)
	movq	%rax, -40(%rbp)
	.loc	13 608 59
	movq	$0, -24(%rbp)
	.loc	13 608 65
	movq	16(%rdi), %rcx
	.loc	13 608 9
	movq	-24(%rbp), %rdx
Ltmp58:
	leaq	l___unnamed_1(%rip), %rsi
	leaq	-40(%rbp), %rdi
	movl	$1, %r8d
	callq	__ZN3std9panicking20rust_panic_with_hook17h479ead1480e59d8dE
Ltmp59:
	jmp	LBB11_3
Ltmp62:
LBB11_1:
	.loc	13 607 69 is_stmt 1
	movq	-16(%rbp), %rdi
	callq	__Unwind_Resume
Ltmp63:
LBB11_2:
Ltmp60:
	.loc	13 0 69 is_stmt 0
	movq	%rax, %rcx
	movl	%edx, %eax
	movq	%rcx, -16(%rbp)
	movl	%eax, -8(%rbp)
	jmp	LBB11_1
Ltmp64:
LBB11_3:
	ud2
Lfunc_end11:
	.cfi_endproc
	.section	__TEXT,__gcc_except_tab
	.p2align	2
GCC_except_table11:
Lexception1:
	.byte	255
	.byte	255
	.byte	1
	.uleb128 Lcst_end1-Lcst_begin1
Lcst_begin1:
	.uleb128 Lfunc_begin11-Lfunc_begin11
	.uleb128 Ltmp58-Lfunc_begin11
	.byte	0
	.byte	0
	.uleb128 Ltmp58-Lfunc_begin11
	.uleb128 Ltmp59-Ltmp58
	.uleb128 Ltmp60-Lfunc_begin11
	.byte	0
	.uleb128 Ltmp59-Lfunc_begin11
	.uleb128 Lfunc_end11-Ltmp59
	.byte	0
	.byte	0
Lcst_end1:
	.p2align	2

	.section	__TEXT,__text,regular,pure_instructions
	.globl	__ZN44_$LT$$RF$T$u20$as$u20$core..fmt..Display$GT$3fmt17h3026246abe419088E
	.p2align	4, 0x90
__ZN44_$LT$$RF$T$u20$as$u20$core..fmt..Display$GT$3fmt17h3026246abe419088E:
Lfunc_begin12:
	.file	15 "/rustc/2c8cc343237b8f7d5a3c3703e3a87f2eb2c54a74/library/core/src/fmt" "mod.rs"
	.loc	15 2377 0 is_stmt 1
	.cfi_startproc
	pushq	%rbp
	.cfi_def_cfa_offset 16
	.cfi_offset %rbp, -16
	movq	%rsp, %rbp
	.cfi_def_cfa_register %rbp
	subq	$16, %rsp
	movq	%rdi, -16(%rbp)
	movq	%rsi, -8(%rbp)
Ltmp65:
	.loc	15 2377 71 prologue_end
	movq	(%rdi), %rdi
	.loc	15 2377 62 is_stmt 0
	callq	__ZN72_$LT$core_foundation..string..CFString$u20$as$u20$core..fmt..Display$GT$3fmt17h0e7fbdde34554e5bE
	.loc	15 2377 84
	andb	$1, %al
	movzbl	%al, %eax
	addq	$16, %rsp
	popq	%rbp
	retq
Ltmp66:
Lfunc_end12:
	.cfi_endproc

	.globl	__ZN45_$LT$T$u20$as$u20$alloc..string..ToString$GT$9to_string17h677fc0cad5597a70E
	.p2align	4, 0x90
__ZN45_$LT$T$u20$as$u20$alloc..string..ToString$GT$9to_string17h677fc0cad5597a70E:
Lfunc_begin13:
	.file	16 "/rustc/2c8cc343237b8f7d5a3c3703e3a87f2eb2c54a74/library/alloc/src" "string.rs"
	.loc	16 2532 0 is_stmt 1
	.cfi_startproc
	.cfi_personality 155, _rust_eh_personality
	.cfi_lsda 16, Lexception2
	pushq	%rbp
	.cfi_def_cfa_offset 16
	.cfi_offset %rbp, -16
	movq	%rsp, %rbp
	.cfi_def_cfa_register %rbp
	subq	$144, %rsp
	movq	%rsi, %rax
	movq	%rax, -136(%rbp)
	movq	%rdi, %rsi
	movq	%rsi, -128(%rbp)
Ltmp77:
	movq	%rsi, %rdi
	movq	%rdi, -120(%rbp)
	movq	%rax, -24(%rbp)
Ltmp78:
	.file	17 "/rustc/2c8cc343237b8f7d5a3c3703e3a87f2eb2c54a74/library/alloc/src/vec" "mod.rs"
	.loc	17 425 20 prologue_end
	movq	L___unnamed_9(%rip), %rcx
	movq	L___unnamed_9+8(%rip), %rax
	.loc	17 425 9 is_stmt 0
	movq	%rcx, -48(%rbp)
	movq	%rax, -40(%rbp)
	movq	$0, -32(%rbp)
Ltmp79:
	.loc	16 456 9 is_stmt 1
	movq	-32(%rbp), %rax
	movq	%rax, 16(%rsi)
	movq	-48(%rbp), %rax
	movq	-40(%rbp), %rcx
	movq	%rcx, 8(%rsi)
	movq	%rax, (%rsi)
Ltmp80:
Ltmp67:
	.loc	16 2534 29
	leaq	l___unnamed_2(%rip), %rdx
	leaq	-112(%rbp), %rdi
	callq	__ZN4core3fmt9Formatter3new17h7f05d885df8ba719E
Ltmp81:
Ltmp68:
	jmp	LBB13_3
Ltmp82:
LBB13_1:
Ltmp74:
	.loc	16 0 29 is_stmt 0
	movq	-128(%rbp), %rdi
	.loc	16 2539 5 is_stmt 1
	callq	__ZN4core3ptr42drop_in_place$LT$alloc..string..String$GT$17he18c230ae785fc31E
Ltmp75:
	jmp	LBB13_7
LBB13_2:
Ltmp73:
	.loc	16 0 5 is_stmt 0
	movq	%rax, %rcx
	movl	%edx, %eax
	movq	%rcx, -16(%rbp)
	movl	%eax, -8(%rbp)
	jmp	LBB13_1
LBB13_3:
Ltmp83:
Ltmp69:
	movq	-136(%rbp), %rdi
	leaq	-112(%rbp), %rsi
Ltmp84:
	.loc	16 2536 9 is_stmt 1
	callq	__ZN72_$LT$core_foundation..string..CFString$u20$as$u20$core..fmt..Display$GT$3fmt17h0e7fbdde34554e5bE
Ltmp70:
	movb	%al, -137(%rbp)
	jmp	LBB13_4
Ltmp85:
LBB13_4:
Ltmp71:
	.loc	16 0 9 is_stmt 0
	movb	-137(%rbp), %al
	.loc	16 2536 9
	movzbl	%al, %edi
	andl	$1, %edi
	leaq	l___unnamed_10(%rip), %rsi
	leaq	l___unnamed_11(%rip), %rcx
	movl	$55, %edx
	callq	__ZN4core6result19Result$LT$T$C$E$GT$6expect17h09c6e6e0299acd9bE
Ltmp72:
	jmp	LBB13_5
Ltmp86:
LBB13_5:
	.loc	16 0 9
	movq	-120(%rbp), %rax
	.loc	16 2539 6 is_stmt 1
	addq	$144, %rsp
	popq	%rbp
	retq
LBB13_6:
Ltmp76:
	.loc	16 2532 5
	callq	__ZN4core9panicking19panic_cannot_unwind17h1fbca7e1d7f56ae1E
LBB13_7:
	movq	-16(%rbp), %rdi
	callq	__Unwind_Resume
Ltmp87:
Lfunc_end13:
	.cfi_endproc
	.section	__TEXT,__gcc_except_tab
	.p2align	2
GCC_except_table13:
Lexception2:
	.byte	255
	.byte	255
	.byte	1
	.uleb128 Lcst_end2-Lcst_begin2
Lcst_begin2:
	.uleb128 Ltmp67-Lfunc_begin13
	.uleb128 Ltmp68-Ltmp67
	.uleb128 Ltmp73-Lfunc_begin13
	.byte	0
	.uleb128 Ltmp74-Lfunc_begin13
	.uleb128 Ltmp75-Ltmp74
	.uleb128 Ltmp76-Lfunc_begin13
	.byte	0
	.uleb128 Ltmp69-Lfunc_begin13
	.uleb128 Ltmp72-Ltmp69
	.uleb128 Ltmp73-Lfunc_begin13
	.byte	0
	.uleb128 Ltmp72-Lfunc_begin13
	.uleb128 Lfunc_end13-Ltmp72
	.byte	0
	.byte	0
Lcst_end2:
	.p2align	2

	.section	__TEXT,__text,regular,pure_instructions
	.globl	__ZN4core3any6TypeId2of17hf4313e98997ac307E
	.p2align	4, 0x90
__ZN4core3any6TypeId2of17hf4313e98997ac307E:
Lfunc_begin14:
	.loc	10 691 0
	.cfi_startproc
	pushq	%rbp
	.cfi_def_cfa_offset 16
	.cfi_offset %rbp, -16
	movq	%rsp, %rbp
	.cfi_def_cfa_register %rbp
	subq	$16, %rsp
Ltmp88:
	.loc	10 692 21 prologue_end
	movabsq	$-8527728395957036344, %rax
	movq	%rax, -8(%rbp)
	movq	-8(%rbp), %rax
	.loc	10 692 9 is_stmt 0
	movq	%rax, -16(%rbp)
	.loc	10 693 6 is_stmt 1
	movq	-16(%rbp), %rax
	addq	$16, %rsp
	popq	%rbp
	retq
Ltmp89:
Lfunc_end14:
	.cfi_endproc

	.p2align	4, 0x90
__ZN4core3cmp5impls50_$LT$impl$u20$core..cmp..Ord$u20$for$u20$usize$GT$3cmp17h475abb0c3077150aE:
Lfunc_begin15:
	.file	18 "/rustc/2c8cc343237b8f7d5a3c3703e3a87f2eb2c54a74/library/core/src" "cmp.rs"
	.loc	18 1454 0
	.cfi_startproc
	pushq	%rbp
	.cfi_def_cfa_offset 16
	.cfi_offset %rbp, -16
	movq	%rsp, %rbp
	.cfi_def_cfa_register %rbp
	subq	$40, %rsp
	movq	%rdi, -40(%rbp)
	movq	%rsi, -32(%rbp)
	movq	%rdi, -16(%rbp)
	movq	%rsi, -8(%rbp)
Ltmp90:
	.loc	18 1457 24 prologue_end
	movq	(%rdi), %rax
	cmpq	(%rsi), %rax
	jb	LBB15_2
	.loc	18 0 24 is_stmt 0
	movq	-32(%rbp), %rcx
	movq	-40(%rbp), %rax
	.loc	18 1458 29 is_stmt 1
	movq	(%rax), %rax
	cmpq	(%rcx), %rax
	je	LBB15_5
	jmp	LBB15_4
LBB15_2:
	.loc	18 1457 41
	movb	$-1, -17(%rbp)
LBB15_3:
	.loc	18 1460 18
	movb	-17(%rbp), %al
	addq	$40, %rsp
	popq	%rbp
	retq
LBB15_4:
	.loc	18 1459 28
	movb	$1, -17(%rbp)
	.loc	18 1458 26
	jmp	LBB15_6
LBB15_5:
	.loc	18 1458 47 is_stmt 0
	movb	$0, -17(%rbp)
LBB15_6:
	.loc	18 1457 21 is_stmt 1
	jmp	LBB15_3
Ltmp91:
Lfunc_end15:
	.cfi_endproc

	.globl	__ZN4core3cmp6max_by17h4c61f28a0041330aE
	.p2align	4, 0x90
__ZN4core3cmp6max_by17h4c61f28a0041330aE:
Lfunc_begin16:
	.loc	18 1295 0
	.cfi_startproc
	.cfi_personality 155, _rust_eh_personality
	.cfi_lsda 16, Lexception3
	pushq	%rbp
	.cfi_def_cfa_offset 16
	.cfi_offset %rbp, -16
	movq	%rsp, %rbp
	.cfi_def_cfa_register %rbp
	subq	$96, %rsp
	movq	%rdi, -80(%rbp)
	movq	%rsi, -72(%rbp)
Ltmp95:
	.loc	18 1300 11 prologue_end
	movb	$1, -25(%rbp)
	movb	$1, -26(%rbp)
	leaq	-80(%rbp), %rax
	movq	%rax, -48(%rbp)
	leaq	-72(%rbp), %rax
	movq	%rax, -40(%rbp)
	movq	-48(%rbp), %rdi
	movq	-40(%rbp), %rsi
Ltmp92:
	callq	__ZN4core3ops8function6FnOnce9call_once17h78ebf02ca41d67beE
Ltmp93:
	movb	%al, -81(%rbp)
	jmp	LBB16_3
LBB16_1:
	.loc	18 1304 1
	jmp	LBB16_4
LBB16_2:
Ltmp94:
	.loc	18 0 1 is_stmt 0
	movq	%rax, %rcx
	movl	%edx, %eax
	movq	%rcx, -16(%rbp)
	movl	%eax, -8(%rbp)
	jmp	LBB16_1
LBB16_3:
	movb	-81(%rbp), %al
	.loc	18 1300 11 is_stmt 1
	movb	%al, -49(%rbp)
	movb	-49(%rbp), %al
	.loc	18 1300 5 is_stmt 0
	incb	%al
	subb	$2, %al
	jb	LBB16_6
	jmp	LBB16_15
LBB16_15:
	jmp	LBB16_7
LBB16_4:
	.loc	18 1304 1 is_stmt 1
	testb	$1, -25(%rbp)
	jne	LBB16_12
	jmp	LBB16_11
	.loc	18 1300 11
	ud2
LBB16_6:
	.loc	18 1301 45
	movb	$0, -26(%rbp)
	movq	-72(%rbp), %rax
	movq	%rax, -64(%rbp)
	jmp	LBB16_8
LBB16_7:
	.loc	18 1302 30
	movb	$0, -25(%rbp)
	movq	-80(%rbp), %rax
	movq	%rax, -64(%rbp)
LBB16_8:
	.loc	18 1304 1
	testb	$1, -26(%rbp)
	jne	LBB16_10
LBB16_9:
	testb	$1, -25(%rbp)
	jne	LBB16_14
	jmp	LBB16_13
LBB16_10:
	jmp	LBB16_9
LBB16_11:
	.loc	18 1295 1
	movq	-16(%rbp), %rdi
	callq	__Unwind_Resume
LBB16_12:
	.loc	18 1304 1
	jmp	LBB16_11
LBB16_13:
	.loc	18 1304 2 is_stmt 0
	movq	-64(%rbp), %rax
	addq	$96, %rsp
	popq	%rbp
	retq
LBB16_14:
	.loc	18 1304 1
	jmp	LBB16_13
Ltmp96:
Lfunc_end16:
	.cfi_endproc
	.section	__TEXT,__gcc_except_tab
	.p2align	2
GCC_except_table16:
Lexception3:
	.byte	255
	.byte	255
	.byte	1
	.uleb128 Lcst_end3-Lcst_begin3
Lcst_begin3:
	.uleb128 Ltmp92-Lfunc_begin16
	.uleb128 Ltmp93-Ltmp92
	.uleb128 Ltmp94-Lfunc_begin16
	.byte	0
	.uleb128 Ltmp93-Lfunc_begin16
	.uleb128 Lfunc_end16-Ltmp93
	.byte	0
	.byte	0
Lcst_end3:
	.p2align	2

	.section	__TEXT,__text,regular,pure_instructions
	.p2align	4, 0x90
__ZN4core3ffi5c_str4CStr8from_ptr17hb2b9d5c68a28777dE:
Lfunc_begin17:
	.file	19 "/rustc/2c8cc343237b8f7d5a3c3703e3a87f2eb2c54a74/library/core/src/ffi" "c_str.rs"
	.loc	19 256 0 is_stmt 1
	.cfi_startproc
	pushq	%rbp
	.cfi_def_cfa_offset 16
	.cfi_offset %rbp, -16
	movq	%rsp, %rbp
	.cfi_def_cfa_register %rbp
	subq	$176, %rsp
	movq	%rdi, -176(%rbp)
	movq	%rdi, -112(%rbp)
Ltmp97:
	.loc	19 289 53 prologue_end
	movq	%rdi, -168(%rbp)
	.loc	19 289 23 is_stmt 0
	movq	-168(%rbp), %rdi
	callq	__ZN4core3ffi5c_str4CStr8from_ptr9strlen_rt17h166552da2f23bf2dE
	movq	-176(%rbp), %rdi
	movq	%rax, -104(%rbp)
Ltmp98:
	.loc	19 290 71 is_stmt 1
	movq	%rdi, -96(%rbp)
Ltmp99:
	.loc	2 61 9
	movq	%rdi, -88(%rbp)
Ltmp100:
	.loc	19 290 83
	incq	%rax
	movq	%rax, -80(%rbp)
Ltmp101:
	.file	20 "/rustc/2c8cc343237b8f7d5a3c3703e3a87f2eb2c54a74/library/core/src/slice" "raw.rs"
	.loc	20 100 37
	movq	%rdi, -72(%rbp)
	.loc	20 100 43 is_stmt 0
	movq	%rax, -64(%rbp)
Ltmp102:
	.loc	3 734 20 is_stmt 1
	movq	%rdi, -56(%rbp)
Ltmp103:
	.loc	2 61 9
	movq	%rdi, -48(%rbp)
Ltmp104:
	.loc	3 734 33
	movq	%rax, -40(%rbp)
Ltmp105:
	.loc	4 118 36
	movq	%rdi, -144(%rbp)
	movq	%rax, -136(%rbp)
	.loc	4 118 14 is_stmt 0
	movq	-144(%rbp), %rcx
	movq	-136(%rbp), %rax
	movq	%rcx, -160(%rbp)
	movq	%rax, -152(%rbp)
	movq	-160(%rbp), %rcx
	movq	-152(%rbp), %rax
Ltmp106:
	.loc	19 290 49 is_stmt 1
	movq	%rcx, -32(%rbp)
	movq	%rax, -24(%rbp)
Ltmp107:
	.loc	19 449 48
	movq	%rcx, -128(%rbp)
	movq	%rax, -120(%rbp)
	.loc	19 449 18 is_stmt 0
	movq	-128(%rbp), %rax
	movq	-120(%rbp), %rdx
	movq	%rax, -16(%rbp)
	movq	%rdx, -8(%rbp)
Ltmp108:
	.loc	19 292 6 is_stmt 1
	addq	$176, %rsp
	popq	%rbp
	retq
Ltmp109:
Lfunc_end17:
	.cfi_endproc

	.p2align	4, 0x90
__ZN4core3ffi5c_str4CStr8to_bytes17hde717f11f6a64678E:
Lfunc_begin18:
	.loc	19 556 0
	.cfi_startproc
	pushq	%rbp
	.cfi_def_cfa_offset 16
	.cfi_offset %rbp, -16
	movq	%rsp, %rbp
	.cfi_def_cfa_register %rbp
	subq	$112, %rsp
	movq	%rsi, %rcx
	movq	%rdi, %rdx
	movq	%rdx, -88(%rbp)
	movq	%rcx, -80(%rbp)
Ltmp110:
	.loc	19 557 21 prologue_end
	movq	%rdx, -72(%rbp)
	movq	%rcx, -64(%rbp)
Ltmp111:
	.loc	19 587 18
	movq	%rdx, -56(%rbp)
	movq	%rcx, -48(%rbp)
Ltmp112:
	.loc	19 559 18
	movq	%rdx, -40(%rbp)
	movq	%rcx, -32(%rbp)
	.loc	19 559 40 is_stmt 0
	movq	%rcx, %rsi
	decq	%rsi
	.loc	19 559 38
	movq	%rsi, -112(%rbp)
Ltmp113:
	.file	21 "/rustc/2c8cc343237b8f7d5a3c3703e3a87f2eb2c54a74/library/core/src/slice" "mod.rs"
	.loc	21 405 20 is_stmt 1
	movq	-112(%rbp), %rax
	movq	%rax, -24(%rbp)
	.loc	21 405 40 is_stmt 0
	movq	%rdx, -16(%rbp)
	movq	%rcx, -8(%rbp)
Ltmp114:
	.loc	1 445 18 is_stmt 1
	movq	$0, -104(%rbp)
	movq	%rax, -96(%rbp)
	movq	-104(%rbp), %rdi
	movq	-96(%rbp), %rsi
	callq	__ZN106_$LT$core..ops..range..Range$LT$usize$GT$$u20$as$u20$core..slice..index..SliceIndex$LT$$u5b$T$u5d$$GT$$GT$13get_unchecked17hc8d9969313215167E
Ltmp115:
	.loc	19 560 6
	addq	$112, %rsp
	popq	%rbp
	retq
Ltmp116:
Lfunc_end18:
	.cfi_endproc

	.globl	__ZN4core3fmt10ArgumentV111new_display17h643022101e0d02baE
	.p2align	4, 0x90
__ZN4core3fmt10ArgumentV111new_display17h643022101e0d02baE:
Lfunc_begin19:
	.loc	15 327 0
	.cfi_startproc
	pushq	%rbp
	.cfi_def_cfa_offset 16
	.cfi_offset %rbp, -16
	movq	%rsp, %rbp
	.cfi_def_cfa_register %rbp
	subq	$56, %rsp
	movq	%rdi, -40(%rbp)
Ltmp117:
	.loc	15 328 23 prologue_end
	movq	%rdi, -32(%rbp)
	.loc	15 328 26 is_stmt 0
	leaq	__ZN44_$LT$$RF$T$u20$as$u20$core..fmt..Display$GT$3fmt17h3026246abe419088E(%rip), %rax
	movq	%rax, -24(%rbp)
Ltmp118:
	.loc	15 347 42 is_stmt 1
	movq	%rax, -16(%rbp)
	movq	-16(%rbp), %rax
	.loc	15 347 68 is_stmt 0
	movq	%rdi, -8(%rbp)
	movq	-8(%rbp), %rcx
	.loc	15 347 18
	movq	%rcx, -56(%rbp)
	movq	%rax, -48(%rbp)
Ltmp119:
	.loc	15 329 10 is_stmt 1
	movq	-56(%rbp), %rax
	movq	-48(%rbp), %rdx
	addq	$56, %rsp
	popq	%rbp
	retq
Ltmp120:
Lfunc_end19:
	.cfi_endproc

	.globl	__ZN4core3fmt10ArgumentV111new_display17hfda82ddf087c6cc9E
	.p2align	4, 0x90
__ZN4core3fmt10ArgumentV111new_display17hfda82ddf087c6cc9E:
Lfunc_begin20:
	.loc	15 327 0
	.cfi_startproc
	pushq	%rbp
	.cfi_def_cfa_offset 16
	.cfi_offset %rbp, -16
	movq	%rsp, %rbp
	.cfi_def_cfa_register %rbp
	subq	$56, %rsp
	movq	%rdi, -40(%rbp)
Ltmp121:
	.loc	15 328 23 prologue_end
	movq	%rdi, -32(%rbp)
	.loc	15 328 26 is_stmt 0
	leaq	__ZN72_$LT$core_foundation..string..CFString$u20$as$u20$core..fmt..Display$GT$3fmt17h0e7fbdde34554e5bE(%rip), %rax
	movq	%rax, -24(%rbp)
Ltmp122:
	.loc	15 347 42 is_stmt 1
	movq	%rax, -16(%rbp)
	movq	-16(%rbp), %rax
	.loc	15 347 68 is_stmt 0
	movq	%rdi, -8(%rbp)
	movq	-8(%rbp), %rcx
	.loc	15 347 18
	movq	%rcx, -56(%rbp)
	movq	%rax, -48(%rbp)
Ltmp123:
	.loc	15 329 10 is_stmt 1
	movq	-56(%rbp), %rax
	movq	-48(%rbp), %rdx
	addq	$56, %rsp
	popq	%rbp
	retq
Ltmp124:
Lfunc_end20:
	.cfi_endproc

	.p2align	4, 0x90
__ZN4core3fmt3num52_$LT$impl$u20$core..fmt..Debug$u20$for$u20$isize$GT$3fmt17h796c2caca8f63c0eE:
Lfunc_begin21:
	.file	22 "/rustc/2c8cc343237b8f7d5a3c3703e3a87f2eb2c54a74/library/core/src/fmt" "num.rs"
	.loc	22 185 0
	.cfi_startproc
	pushq	%rbp
	.cfi_def_cfa_offset 16
	.cfi_offset %rbp, -16
	movq	%rsp, %rbp
	.cfi_def_cfa_register %rbp
	subq	$48, %rsp
	movq	%rsi, -48(%rbp)
	movq	%rdi, %rax
	movq	-48(%rbp), %rdi
	movq	%rax, -40(%rbp)
	movq	%rdi, -32(%rbp)
	movq	%rax, -16(%rbp)
	movq	%rdi, -8(%rbp)
Ltmp125:
	.loc	22 186 20 prologue_end
	callq	__ZN4core3fmt9Formatter15debug_lower_hex17h0921e6b9188d914eE
	testb	$1, %al
	jne	LBB21_2
	.loc	22 0 20 is_stmt 0
	movq	-32(%rbp), %rdi
	.loc	22 188 27 is_stmt 1
	callq	__ZN4core3fmt9Formatter15debug_upper_hex17h8ce487049a6cccf8E
	testb	$1, %al
	jne	LBB21_5
	jmp	LBB21_4
LBB21_2:
	.loc	22 0 27 is_stmt 0
	movq	-32(%rbp), %rsi
	movq	-40(%rbp), %rdi
	.loc	22 187 21 is_stmt 1
	callq	__ZN4core3fmt3num55_$LT$impl$u20$core..fmt..LowerHex$u20$for$u20$isize$GT$3fmt17h7d43ff87b6740d61E
	andb	$1, %al
	movb	%al, -17(%rbp)
LBB21_3:
	.loc	22 193 14
	movb	-17(%rbp), %al
	andb	$1, %al
	movzbl	%al, %eax
	addq	$48, %rsp
	popq	%rbp
	retq
LBB21_4:
	.loc	22 0 14 is_stmt 0
	movq	-32(%rbp), %rsi
	movq	-40(%rbp), %rdi
	.loc	22 191 21 is_stmt 1
	callq	__ZN4core3fmt3num3imp54_$LT$impl$u20$core..fmt..Display$u20$for$u20$isize$GT$3fmt17h52f1ff2aaed0cbadE
	andb	$1, %al
	movb	%al, -17(%rbp)
	.loc	22 188 24
	jmp	LBB21_6
LBB21_5:
	.loc	22 0 24 is_stmt 0
	movq	-32(%rbp), %rsi
	movq	-40(%rbp), %rdi
	.loc	22 189 21 is_stmt 1
	callq	__ZN4core3fmt3num55_$LT$impl$u20$core..fmt..UpperHex$u20$for$u20$isize$GT$3fmt17hcaadb3513c247053E
	andb	$1, %al
	movb	%al, -17(%rbp)
LBB21_6:
	.loc	22 186 17
	jmp	LBB21_3
Ltmp126:
Lfunc_end21:
	.cfi_endproc

	.globl	__ZN4core3fmt5Write9write_fmt17hed6d1ba19fcb32efE
	.p2align	4, 0x90
__ZN4core3fmt5Write9write_fmt17hed6d1ba19fcb32efE:
Lfunc_begin22:
	.loc	15 196 0
	.cfi_startproc
	pushq	%rbp
	.cfi_def_cfa_offset 16
	.cfi_offset %rbp, -16
	movq	%rsp, %rbp
	.cfi_def_cfa_register %rbp
	subq	$64, %rsp
	movq	%rdi, -56(%rbp)
Ltmp127:
	.loc	15 197 26 prologue_end
	leaq	-48(%rbp), %rdi
	movl	$48, %edx
	callq	_memcpy
Ltmp128:
	.loc	15 197 9 is_stmt 0
	leaq	-56(%rbp), %rdi
	leaq	l___unnamed_3(%rip), %rsi
	leaq	-48(%rbp), %rdx
	callq	__ZN4core3fmt5write17hfa389e524187f2c6E
	.loc	15 198 6 is_stmt 1
	andb	$1, %al
	movzbl	%al, %eax
	addq	$64, %rsp
	popq	%rbp
	retq
Ltmp129:
Lfunc_end22:
	.cfi_endproc

	.p2align	4, 0x90
__ZN4core3fmt9Arguments6new_v117h427983d98d5c8307E:
Lfunc_begin23:
	.loc	15 399 0
	.cfi_startproc
	pushq	%rbp
	.cfi_def_cfa_offset 16
	.cfi_offset %rbp, -16
	movq	%rsp, %rbp
	.cfi_def_cfa_register %rbp
	subq	$160, %rsp
	movq	%r8, -152(%rbp)
	movq	%rcx, -144(%rbp)
	movq	%rdx, -136(%rbp)
	movq	%rsi, -128(%rbp)
	movq	%rdi, -120(%rbp)
	movq	%rdi, -112(%rbp)
	movq	%rsi, -32(%rbp)
	movq	%rdx, -24(%rbp)
	movq	%rcx, -16(%rbp)
	movq	%r8, -8(%rbp)
Ltmp130:
	.loc	15 400 12 prologue_end
	cmpq	%r8, %rdx
	jb	LBB23_2
	.loc	15 0 12 is_stmt 0
	movq	-136(%rbp), %rax
	movq	-152(%rbp), %rcx
	.loc	15 400 56
	addq	$1, %rcx
	.loc	15 400 41
	cmpq	%rcx, %rax
	seta	%al
	.loc	15 400 12
	andb	$1, %al
	movb	%al, -97(%rbp)
	jmp	LBB23_3
LBB23_2:
	movb	$1, -97(%rbp)
LBB23_3:
	testb	$1, -97(%rbp)
	jne	LBB23_5
	.loc	15 0 12
	movq	-112(%rbp), %rax
	movq	-120(%rbp), %rcx
	movq	-152(%rbp), %rdx
	movq	-144(%rbp), %rsi
	movq	-136(%rbp), %rdi
	movq	-128(%rbp), %r8
	.loc	15 403 34 is_stmt 1
	movq	$0, -48(%rbp)
	.loc	15 403 9 is_stmt 0
	movq	%r8, 16(%rcx)
	movq	%rdi, 24(%rcx)
	movq	-48(%rbp), %r8
	movq	-40(%rbp), %rdi
	movq	%r8, (%rcx)
	movq	%rdi, 8(%rcx)
	movq	%rsi, 32(%rcx)
	movq	%rdx, 40(%rcx)
	.loc	15 404 6 is_stmt 1
	addq	$160, %rsp
	popq	%rbp
	retq
LBB23_5:
	.loc	15 401 13
	leaq	l___unnamed_12(%rip), %rsi
	leaq	l___unnamed_13(%rip), %rcx
	xorl	%eax, %eax
	movl	%eax, %r8d
	leaq	-96(%rbp), %rdi
	movq	%rdi, -160(%rbp)
	movl	$1, %edx
	callq	__ZN4core3fmt9Arguments6new_v117h427983d98d5c8307E
	movq	-160(%rbp), %rdi
	leaq	l___unnamed_14(%rip), %rsi
	callq	__ZN4core9panicking9panic_fmt17h9b5d807e24bcaaedE
Ltmp131:
Lfunc_end23:
	.cfi_endproc

	.globl	__ZN4core3mem7replace17hb22b29346faa13d3E
	.p2align	4, 0x90
__ZN4core3mem7replace17hb22b29346faa13d3E:
Lfunc_begin24:
	.file	23 "/rustc/2c8cc343237b8f7d5a3c3703e3a87f2eb2c54a74/library/core/src/mem" "mod.rs"
	.loc	23 905 0
	.cfi_startproc
	pushq	%rbp
	.cfi_def_cfa_offset 16
	.cfi_offset %rbp, -16
	movq	%rsp, %rbp
	.cfi_def_cfa_register %rbp
	subq	$184, %rsp
	movq	%rdi, -184(%rbp)
	movq	%rsi, -176(%rbp)
	movq	%rdx, -168(%rbp)
	movq	%rdi, -112(%rbp)
	movq	%rsi, -104(%rbp)
	movq	%rdx, -96(%rbp)
Ltmp132:
	.loc	23 910 32 prologue_end
	movq	%rdi, -88(%rbp)
Ltmp133:
	.loc	3 1157 34
	leaq	-128(%rbp), %rax
	movq	%rax, -80(%rbp)
	.loc	3 1157 9 is_stmt 0
	movq	(%rdi), %rax
	movq	%rax, -128(%rbp)
	movq	8(%rdi), %rax
	movq	%rax, -120(%rbp)
	.loc	3 1158 9 is_stmt 1
	movq	-128(%rbp), %rcx
	movq	%rcx, -160(%rbp)
	movq	-120(%rbp), %rax
	movq	%rax, -152(%rbp)
	movq	%rcx, -72(%rbp)
	movq	%rax, -64(%rbp)
	.loc	3 0 9 is_stmt 0
	movq	-152(%rbp), %rdx
	movq	-160(%rbp), %rax
	movq	-184(%rbp), %rcx
	movq	-168(%rbp), %rsi
	movq	-176(%rbp), %rdi
Ltmp134:
	.file	24 "/rustc/2c8cc343237b8f7d5a3c3703e3a87f2eb2c54a74/library/core/src/mem" "maybe_uninit.rs"
	.loc	24 627 38 is_stmt 1
	movq	%rax, -40(%rbp)
	movq	%rdx, -32(%rbp)
Ltmp135:
	.file	25 "/rustc/2c8cc343237b8f7d5a3c3703e3a87f2eb2c54a74/library/core/src/mem" "manually_drop.rs"
	.loc	25 89 9
	movq	%rax, -24(%rbp)
	movq	%rdx, -16(%rbp)
Ltmp136:
	.loc	23 911 20
	movq	%rcx, -8(%rbp)
	.loc	23 911 26 is_stmt 0
	movq	%rdi, -144(%rbp)
	movq	%rsi, -136(%rbp)
Ltmp137:
	.loc	3 1354 9 is_stmt 1
	movq	-144(%rbp), %rsi
	movq	-136(%rbp), %rdi
	movq	%rdi, 8(%rcx)
	movq	%rsi, (%rcx)
Ltmp138:
	.loc	23 914 2
	addq	$184, %rsp
	popq	%rbp
	retq
Ltmp139:
Lfunc_end24:
	.cfi_endproc

	.p2align	4, 0x90
__ZN4core3num23_$LT$impl$u20$usize$GT$11checked_add17h2fa0e6f8c0bd4ab8E:
Lfunc_begin25:
	.file	26 "/rustc/2c8cc343237b8f7d5a3c3703e3a87f2eb2c54a74/library/core/src/num" "uint_macros.rs"
	.loc	26 442 0
	.cfi_startproc
	pushq	%rbp
	.cfi_def_cfa_offset 16
	.cfi_offset %rbp, -16
	movq	%rsp, %rbp
	.cfi_def_cfa_register %rbp
	subq	$120, %rsp
	movq	%rdi, -80(%rbp)
	movq	%rsi, -72(%rbp)
Ltmp140:
	.loc	26 443 26 prologue_end
	movq	%rdi, -64(%rbp)
	.loc	26 443 47 is_stmt 0
	movq	%rsi, -56(%rbp)
Ltmp141:
	.loc	26 1479 26 is_stmt 1
	addq	%rsi, %rdi
	setb	%al
	andb	$1, %al
	movq	%rdi, -48(%rbp)
	movb	%al, -40(%rbp)
	movq	-48(%rbp), %rcx
	movb	-40(%rbp), %al
	.loc	26 1479 18 is_stmt 0
	movq	%rcx, -32(%rbp)
	.loc	26 1479 21
	movb	%al, %dl
	andb	$1, %dl
	movb	%dl, -17(%rbp)
Ltmp142:
	.loc	26 1480 13 is_stmt 1
	movq	%rcx, -96(%rbp)
	andb	$1, %al
	movb	%al, -88(%rbp)
Ltmp143:
	.loc	26 443 18
	movq	-96(%rbp), %rax
	movq	%rax, -120(%rbp)
	movq	%rax, -16(%rbp)
	.loc	26 443 21 is_stmt 0
	movb	-88(%rbp), %al
	movb	%al, %cl
	andb	$1, %cl
	movb	%cl, -2(%rbp)
Ltmp144:
	.loc	26 444 16 is_stmt 1
	andb	$1, %al
	movb	%al, -1(%rbp)
	testb	$1, -1(%rbp)
	jne	LBB25_2
	.loc	26 0 16 is_stmt 0
	movq	-120(%rbp), %rax
	.loc	26 444 42
	movq	%rax, -104(%rbp)
	movq	$1, -112(%rbp)
	.loc	26 444 13
	jmp	LBB25_3
LBB25_2:
	.loc	26 444 30
	movq	$0, -112(%rbp)
Ltmp145:
LBB25_3:
	.loc	26 445 10 is_stmt 1
	movq	-112(%rbp), %rax
	movq	-104(%rbp), %rdx
	addq	$120, %rsp
	popq	%rbp
	retq
Ltmp146:
Lfunc_end25:
	.cfi_endproc

	.p2align	4, 0x90
__ZN4core3ops8function6FnOnce9call_once17h78ebf02ca41d67beE:
Lfunc_begin26:
	.file	27 "/rustc/2c8cc343237b8f7d5a3c3703e3a87f2eb2c54a74/library/core/src/ops" "function.rs"
	.loc	27 250 0
	.cfi_startproc
	pushq	%rbp
	.cfi_def_cfa_offset 16
	.cfi_offset %rbp, -16
	movq	%rsp, %rbp
	.cfi_def_cfa_register %rbp
	subq	$32, %rsp
	movq	%rdi, -24(%rbp)
	movq	%rsi, -16(%rbp)
Ltmp147:
	.loc	27 250 5 prologue_end
	movq	-24(%rbp), %rdi
	movq	-16(%rbp), %rsi
	callq	__ZN4core3cmp5impls50_$LT$impl$u20$core..cmp..Ord$u20$for$u20$usize$GT$3cmp17h475abb0c3077150aE
	addq	$32, %rsp
	popq	%rbp
	retq
Ltmp148:
Lfunc_end26:
	.cfi_endproc

	.p2align	4, 0x90
__ZN4core3ptr26drop_in_place$LT$isize$GT$17h64961cd7cd51bf6fE:
Lfunc_begin27:
	.loc	3 490 0
	.cfi_startproc
	pushq	%rbp
	.cfi_def_cfa_offset 16
	.cfi_offset %rbp, -16
	movq	%rsp, %rbp
	.cfi_def_cfa_register %rbp
	pushq	%rax
	movq	%rdi, -8(%rbp)
Ltmp149:
	.loc	3 490 1 prologue_end
	addq	$8, %rsp
	popq	%rbp
	retq
Ltmp150:
Lfunc_end27:
	.cfi_endproc

	.p2align	4, 0x90
__ZN4core3ptr28drop_in_place$LT$$RF$str$GT$17h5843051ec6e632b7E:
Lfunc_begin28:
	.loc	3 490 0
	.cfi_startproc
	pushq	%rbp
	.cfi_def_cfa_offset 16
	.cfi_offset %rbp, -16
	movq	%rsp, %rbp
	.cfi_def_cfa_register %rbp
	pushq	%rax
	movq	%rdi, -8(%rbp)
Ltmp151:
	.loc	3 490 1 prologue_end
	addq	$8, %rsp
	popq	%rbp
	retq
Ltmp152:
Lfunc_end28:
	.cfi_endproc

	.p2align	4, 0x90
__ZN4core3ptr30drop_in_place$LT$$RF$isize$GT$17hbea77d94b16df136E:
Lfunc_begin29:
	.loc	3 490 0
	.cfi_startproc
	pushq	%rbp
	.cfi_def_cfa_offset 16
	.cfi_offset %rbp, -16
	movq	%rsp, %rbp
	.cfi_def_cfa_register %rbp
	pushq	%rax
	movq	%rdi, -8(%rbp)
Ltmp153:
	.loc	3 490 1 prologue_end
	addq	$8, %rsp
	popq	%rbp
	retq
Ltmp154:
Lfunc_end29:
	.cfi_endproc

	.p2align	4, 0x90
__ZN4core3ptr37drop_in_place$LT$core..fmt..Error$GT$17h98545cf6a2624b68E:
Lfunc_begin30:
	.loc	3 490 0
	.cfi_startproc
	pushq	%rbp
	.cfi_def_cfa_offset 16
	.cfi_offset %rbp, -16
	movq	%rsp, %rbp
	.cfi_def_cfa_register %rbp
	pushq	%rax
	movq	%rdi, -8(%rbp)
Ltmp155:
	.loc	3 490 1 prologue_end
	addq	$8, %rsp
	popq	%rbp
	retq
Ltmp156:
Lfunc_end30:
	.cfi_endproc

	.globl	__ZN4core3ptr42drop_in_place$LT$alloc..string..String$GT$17he18c230ae785fc31E
	.p2align	4, 0x90
__ZN4core3ptr42drop_in_place$LT$alloc..string..String$GT$17he18c230ae785fc31E:
Lfunc_begin31:
	.loc	3 490 0
	.cfi_startproc
	pushq	%rbp
	.cfi_def_cfa_offset 16
	.cfi_offset %rbp, -16
	movq	%rsp, %rbp
	.cfi_def_cfa_register %rbp
	subq	$16, %rsp
	movq	%rdi, -8(%rbp)
Ltmp157:
	.loc	3 490 1 prologue_end
	callq	__ZN4core3ptr46drop_in_place$LT$alloc..vec..Vec$LT$u8$GT$$GT$17h53213c11421da437E
	addq	$16, %rsp
	popq	%rbp
	retq
Ltmp158:
Lfunc_end31:
	.cfi_endproc

	.globl	__ZN4core3ptr46drop_in_place$LT$alloc..vec..Vec$LT$u8$GT$$GT$17h53213c11421da437E
	.p2align	4, 0x90
__ZN4core3ptr46drop_in_place$LT$alloc..vec..Vec$LT$u8$GT$$GT$17h53213c11421da437E:
Lfunc_begin32:
	.loc	3 490 0
	.cfi_startproc
	.cfi_personality 155, _rust_eh_personality
	.cfi_lsda 16, Lexception4
	pushq	%rbp
	.cfi_def_cfa_offset 16
	.cfi_offset %rbp, -16
	movq	%rsp, %rbp
	.cfi_def_cfa_register %rbp
	subq	$32, %rsp
	movq	%rdi, -32(%rbp)
	movq	%rdi, -24(%rbp)
Ltmp159:
Ltmp165:
	.loc	3 490 1 prologue_end
	callq	__ZN70_$LT$alloc..vec..Vec$LT$T$C$A$GT$$u20$as$u20$core..ops..drop..Drop$GT$4drop17h0ca31dbef4ebfa19E
Ltmp160:
	jmp	LBB32_3
LBB32_1:
Ltmp162:
	.loc	3 0 1 is_stmt 0
	movq	-32(%rbp), %rdi
	.loc	3 490 1
	callq	__ZN4core3ptr53drop_in_place$LT$alloc..raw_vec..RawVec$LT$u8$GT$$GT$17hb0dd56e2b5d55748E
Ltmp163:
	jmp	LBB32_5
LBB32_2:
Ltmp161:
	.loc	3 0 1
	movq	%rax, %rcx
	movl	%edx, %eax
	movq	%rcx, -16(%rbp)
	movl	%eax, -8(%rbp)
	jmp	LBB32_1
LBB32_3:
	movq	-32(%rbp), %rdi
	.loc	3 490 1
	callq	__ZN4core3ptr53drop_in_place$LT$alloc..raw_vec..RawVec$LT$u8$GT$$GT$17hb0dd56e2b5d55748E
	addq	$32, %rsp
	popq	%rbp
	retq
LBB32_4:
Ltmp164:
	callq	__ZN4core9panicking19panic_cannot_unwind17h1fbca7e1d7f56ae1E
LBB32_5:
	movq	-16(%rbp), %rdi
	callq	__Unwind_Resume
Ltmp166:
Lfunc_end32:
	.cfi_endproc
	.section	__TEXT,__gcc_except_tab
	.p2align	2
GCC_except_table32:
Lexception4:
	.byte	255
	.byte	255
	.byte	1
	.uleb128 Lcst_end4-Lcst_begin4
Lcst_begin4:
	.uleb128 Ltmp159-Lfunc_begin32
	.uleb128 Ltmp160-Ltmp159
	.uleb128 Ltmp161-Lfunc_begin32
	.byte	0
	.uleb128 Ltmp162-Lfunc_begin32
	.uleb128 Ltmp163-Ltmp162
	.uleb128 Ltmp164-Lfunc_begin32
	.byte	0
	.uleb128 Ltmp163-Lfunc_begin32
	.uleb128 Lfunc_end32-Ltmp163
	.byte	0
	.byte	0
Lcst_end4:
	.p2align	2

	.section	__TEXT,__text,regular,pure_instructions
	.globl	__ZN4core3ptr48drop_in_place$LT$core_foundation..url..CFURL$GT$17he6e5481f5e1c4f8cE
	.p2align	4, 0x90
__ZN4core3ptr48drop_in_place$LT$core_foundation..url..CFURL$GT$17he6e5481f5e1c4f8cE:
Lfunc_begin33:
	.loc	3 490 0 is_stmt 1
	.cfi_startproc
	pushq	%rbp
	.cfi_def_cfa_offset 16
	.cfi_offset %rbp, -16
	movq	%rsp, %rbp
	.cfi_def_cfa_register %rbp
	subq	$16, %rsp
	movq	%rdi, -8(%rbp)
Ltmp167:
	.loc	3 490 1 prologue_end
	callq	__ZN69_$LT$core_foundation..url..CFURL$u20$as$u20$core..ops..drop..Drop$GT$4drop17h041d6162e1330bfaE
	addq	$16, %rsp
	popq	%rbp
	retq
Ltmp168:
Lfunc_end33:
	.cfi_endproc

	.globl	__ZN4core3ptr50drop_in_place$LT$alloc..borrow..Cow$LT$str$GT$$GT$17hc4c6ca892cac17a4E
	.p2align	4, 0x90
__ZN4core3ptr50drop_in_place$LT$alloc..borrow..Cow$LT$str$GT$$GT$17hc4c6ca892cac17a4E:
Lfunc_begin34:
	.loc	3 490 0
	.cfi_startproc
	pushq	%rbp
	.cfi_def_cfa_offset 16
	.cfi_offset %rbp, -16
	movq	%rsp, %rbp
	.cfi_def_cfa_register %rbp
	subq	$16, %rsp
	movq	%rdi, -16(%rbp)
	movq	%rdi, -8(%rbp)
Ltmp169:
	.loc	3 490 1 prologue_end
	cmpq	$0, (%rdi)
	jne	LBB34_2
LBB34_1:
	addq	$16, %rsp
	popq	%rbp
	retq
LBB34_2:
	.loc	3 0 1 is_stmt 0
	movq	-16(%rbp), %rdi
	.loc	3 490 1
	addq	$8, %rdi
	callq	__ZN4core3ptr42drop_in_place$LT$alloc..string..String$GT$17he18c230ae785fc31E
	jmp	LBB34_1
Ltmp170:
Lfunc_end34:
	.cfi_endproc

	.globl	__ZN4core3ptr50drop_in_place$LT$core_foundation..base..CFType$GT$17ha5084d7489ee20b4E
	.p2align	4, 0x90
__ZN4core3ptr50drop_in_place$LT$core_foundation..base..CFType$GT$17ha5084d7489ee20b4E:
Lfunc_begin35:
	.loc	3 490 0 is_stmt 1
	.cfi_startproc
	pushq	%rbp
	.cfi_def_cfa_offset 16
	.cfi_offset %rbp, -16
	movq	%rsp, %rbp
	.cfi_def_cfa_register %rbp
	subq	$16, %rsp
	movq	%rdi, -8(%rbp)
Ltmp171:
	.loc	3 490 1 prologue_end
	callq	__ZN71_$LT$core_foundation..base..CFType$u20$as$u20$core..ops..drop..Drop$GT$4drop17haf9289ef92a644abE
	addq	$16, %rsp
	popq	%rbp
	retq
Ltmp172:
Lfunc_end35:
	.cfi_endproc

	.globl	__ZN4core3ptr50drop_in_place$LT$core_foundation..data..CFData$GT$17h81c005948458a943E
	.p2align	4, 0x90
__ZN4core3ptr50drop_in_place$LT$core_foundation..data..CFData$GT$17h81c005948458a943E:
Lfunc_begin36:
	.loc	3 490 0
	.cfi_startproc
	pushq	%rbp
	.cfi_def_cfa_offset 16
	.cfi_offset %rbp, -16
	movq	%rsp, %rbp
	.cfi_def_cfa_register %rbp
	subq	$16, %rsp
	movq	%rdi, -8(%rbp)
Ltmp173:
	.loc	3 490 1 prologue_end
	callq	__ZN71_$LT$core_foundation..data..CFData$u20$as$u20$core..ops..drop..Drop$GT$4drop17he0f044e0fb900e82E
	addq	$16, %rsp
	popq	%rbp
	retq
Ltmp174:
Lfunc_end36:
	.cfi_endproc

	.globl	__ZN4core3ptr50drop_in_place$LT$core_foundation..date..CFDate$GT$17hbd3e8a798bafc39cE
	.p2align	4, 0x90
__ZN4core3ptr50drop_in_place$LT$core_foundation..date..CFDate$GT$17hbd3e8a798bafc39cE:
Lfunc_begin37:
	.loc	3 490 0
	.cfi_startproc
	pushq	%rbp
	.cfi_def_cfa_offset 16
	.cfi_offset %rbp, -16
	movq	%rsp, %rbp
	.cfi_def_cfa_register %rbp
	subq	$16, %rsp
	movq	%rdi, -8(%rbp)
Ltmp175:
	.loc	3 490 1 prologue_end
	callq	__ZN71_$LT$core_foundation..date..CFDate$u20$as$u20$core..ops..drop..Drop$GT$4drop17he380c654db749e08E
	addq	$16, %rsp
	popq	%rbp
	retq
Ltmp176:
Lfunc_end37:
	.cfi_endproc

	.globl	__ZN4core3ptr53drop_in_place$LT$alloc..raw_vec..RawVec$LT$u8$GT$$GT$17hb0dd56e2b5d55748E
	.p2align	4, 0x90
__ZN4core3ptr53drop_in_place$LT$alloc..raw_vec..RawVec$LT$u8$GT$$GT$17hb0dd56e2b5d55748E:
Lfunc_begin38:
	.loc	3 490 0
	.cfi_startproc
	pushq	%rbp
	.cfi_def_cfa_offset 16
	.cfi_offset %rbp, -16
	movq	%rsp, %rbp
	.cfi_def_cfa_register %rbp
	subq	$16, %rsp
	movq	%rdi, -8(%rbp)
Ltmp177:
	.loc	3 490 1 prologue_end
	callq	__ZN77_$LT$alloc..raw_vec..RawVec$LT$T$C$A$GT$$u20$as$u20$core..ops..drop..Drop$GT$4drop17h299f2b8efa4fffdbE
	addq	$16, %rsp
	popq	%rbp
	retq
Ltmp178:
Lfunc_end38:
	.cfi_endproc

	.p2align	4, 0x90
__ZN4core3ptr54drop_in_place$LT$$RF$mut$u20$alloc..string..String$GT$17hd5aeebe93e5d9340E:
Lfunc_begin39:
	.loc	3 490 0
	.cfi_startproc
	pushq	%rbp
	.cfi_def_cfa_offset 16
	.cfi_offset %rbp, -16
	movq	%rsp, %rbp
	.cfi_def_cfa_register %rbp
	pushq	%rax
	movq	%rdi, -8(%rbp)
Ltmp179:
	.loc	3 490 1 prologue_end
	addq	$8, %rsp
	popq	%rbp
	retq
Ltmp180:
Lfunc_end39:
	.cfi_endproc

	.globl	__ZN4core3ptr54drop_in_place$LT$core_foundation..string..CFString$GT$17hb9a66b56a2e77954E
	.p2align	4, 0x90
__ZN4core3ptr54drop_in_place$LT$core_foundation..string..CFString$GT$17hb9a66b56a2e77954E:
Lfunc_begin40:
	.loc	3 490 0
	.cfi_startproc
	pushq	%rbp
	.cfi_def_cfa_offset 16
	.cfi_offset %rbp, -16
	movq	%rsp, %rbp
	.cfi_def_cfa_register %rbp
	subq	$16, %rsp
	movq	%rdi, -8(%rbp)
Ltmp181:
	.loc	3 490 1 prologue_end
	callq	__ZN75_$LT$core_foundation..string..CFString$u20$as$u20$core..ops..drop..Drop$GT$4drop17hc399743c8a08810aE
	addq	$16, %rsp
	popq	%rbp
	retq
Ltmp182:
Lfunc_end40:
	.cfi_endproc

	.globl	__ZN4core3ptr56drop_in_place$LT$core_foundation..boolean..CFBoolean$GT$17hc1fc02aa8af8d099E
	.p2align	4, 0x90
__ZN4core3ptr56drop_in_place$LT$core_foundation..boolean..CFBoolean$GT$17hc1fc02aa8af8d099E:
Lfunc_begin41:
	.loc	3 490 0
	.cfi_startproc
	pushq	%rbp
	.cfi_def_cfa_offset 16
	.cfi_offset %rbp, -16
	movq	%rsp, %rbp
	.cfi_def_cfa_register %rbp
	subq	$16, %rsp
	movq	%rdi, -8(%rbp)
Ltmp183:
	.loc	3 490 1 prologue_end
	callq	__ZN77_$LT$core_foundation..boolean..CFBoolean$u20$as$u20$core..ops..drop..Drop$GT$4drop17he229052bc42ce71fE
	addq	$16, %rsp
	popq	%rbp
	retq
Ltmp184:
Lfunc_end41:
	.cfi_endproc

	.globl	__ZN4core3ptr66drop_in_place$LT$dyn$u20$core..any..Any$u2b$core..marker..Send$GT$17h0668a78c2f18cf11E
	.p2align	4, 0x90
__ZN4core3ptr66drop_in_place$LT$dyn$u20$core..any..Any$u2b$core..marker..Send$GT$17h0668a78c2f18cf11E:
Lfunc_begin42:
	.loc	3 490 0
	.cfi_startproc
	pushq	%rbp
	.cfi_def_cfa_offset 16
	.cfi_offset %rbp, -16
	movq	%rsp, %rbp
	.cfi_def_cfa_register %rbp
	subq	$16, %rsp
	movq	%rdi, -16(%rbp)
	movq	%rsi, -8(%rbp)
Ltmp185:
	.loc	3 490 1 prologue_end
	callq	*(%rsi)
	addq	$16, %rsp
	popq	%rbp
	retq
Ltmp186:
Lfunc_end42:
	.cfi_endproc

	.p2align	4, 0x90
__ZN4core3ptr77drop_in_place$LT$std..panicking..begin_panic..PanicPayload$LT$$RF$str$GT$$GT$17heed1d064c71fef91E:
Lfunc_begin43:
	.loc	3 490 0
	.cfi_startproc
	pushq	%rbp
	.cfi_def_cfa_offset 16
	.cfi_offset %rbp, -16
	movq	%rsp, %rbp
	.cfi_def_cfa_register %rbp
	pushq	%rax
	movq	%rdi, -8(%rbp)
Ltmp187:
	.loc	3 490 1 prologue_end
	addq	$8, %rsp
	popq	%rbp
	retq
Ltmp188:
Lfunc_end43:
	.cfi_endproc

	.globl	__ZN4core3ptr7mut_ptr31_$LT$impl$u20$$BP$mut$u20$T$GT$7is_null17h56f6cb75cc2e5155E
	.p2align	4, 0x90
__ZN4core3ptr7mut_ptr31_$LT$impl$u20$$BP$mut$u20$T$GT$7is_null17h56f6cb75cc2e5155E:
Lfunc_begin44:
	.loc	5 35 0
	.cfi_startproc
	pushq	%rbp
	.cfi_def_cfa_offset 16
	.cfi_offset %rbp, -16
	movq	%rsp, %rbp
	.cfi_def_cfa_register %rbp
	subq	$48, %rsp
	movq	%rdi, -40(%rbp)
Ltmp189:
	.loc	5 52 36 prologue_end
	movq	%rdi, -48(%rbp)
	.loc	5 52 18 is_stmt 0
	movq	-48(%rbp), %rax
	movq	%rax, -32(%rbp)
Ltmp190:
	.loc	5 38 13 is_stmt 1
	movq	%rax, -24(%rbp)
Ltmp191:
	.loc	5 215 33
	movq	%rax, -16(%rbp)
	.loc	5 215 18 is_stmt 0
	movq	%rax, -8(%rbp)
Ltmp192:
	.loc	5 38 13 is_stmt 1
	cmpq	$0, -8(%rbp)
	sete	%al
Ltmp193:
	.loc	5 53 6
	andb	$1, %al
	movzbl	%al, %eax
	addq	$48, %rsp
	popq	%rbp
	retq
Ltmp194:
Lfunc_end44:
	.cfi_endproc

	.globl	__ZN4core3ptr7mut_ptr31_$LT$impl$u20$$BP$mut$u20$T$GT$7is_null17h6430ea612710453cE
	.p2align	4, 0x90
__ZN4core3ptr7mut_ptr31_$LT$impl$u20$$BP$mut$u20$T$GT$7is_null17h6430ea612710453cE:
Lfunc_begin45:
	.loc	5 35 0
	.cfi_startproc
	pushq	%rbp
	.cfi_def_cfa_offset 16
	.cfi_offset %rbp, -16
	movq	%rsp, %rbp
	.cfi_def_cfa_register %rbp
	subq	$48, %rsp
	movq	%rdi, -40(%rbp)
Ltmp195:
	.loc	5 52 36 prologue_end
	movq	%rdi, -48(%rbp)
	.loc	5 52 18 is_stmt 0
	movq	-48(%rbp), %rax
	movq	%rax, -32(%rbp)
Ltmp196:
	.loc	5 38 13 is_stmt 1
	movq	%rax, -24(%rbp)
Ltmp197:
	.loc	5 215 33
	movq	%rax, -16(%rbp)
	.loc	5 215 18 is_stmt 0
	movq	%rax, -8(%rbp)
Ltmp198:
	.loc	5 38 13 is_stmt 1
	cmpq	$0, -8(%rbp)
	sete	%al
Ltmp199:
	.loc	5 53 6
	andb	$1, %al
	movzbl	%al, %eax
	addq	$48, %rsp
	popq	%rbp
	retq
Ltmp200:
Lfunc_end45:
	.cfi_endproc

	.globl	__ZN4core3ptr7mut_ptr31_$LT$impl$u20$$BP$mut$u20$T$GT$7is_null17h701c6a4c97bb7732E
	.p2align	4, 0x90
__ZN4core3ptr7mut_ptr31_$LT$impl$u20$$BP$mut$u20$T$GT$7is_null17h701c6a4c97bb7732E:
Lfunc_begin46:
	.loc	5 35 0
	.cfi_startproc
	pushq	%rbp
	.cfi_def_cfa_offset 16
	.cfi_offset %rbp, -16
	movq	%rsp, %rbp
	.cfi_def_cfa_register %rbp
	subq	$48, %rsp
	movq	%rdi, -40(%rbp)
Ltmp201:
	.loc	5 52 36 prologue_end
	movq	%rdi, -48(%rbp)
	.loc	5 52 18 is_stmt 0
	movq	-48(%rbp), %rax
	movq	%rax, -32(%rbp)
Ltmp202:
	.loc	5 38 13 is_stmt 1
	movq	%rax, -24(%rbp)
Ltmp203:
	.loc	5 215 33
	movq	%rax, -16(%rbp)
	.loc	5 215 18 is_stmt 0
	movq	%rax, -8(%rbp)
Ltmp204:
	.loc	5 38 13 is_stmt 1
	cmpq	$0, -8(%rbp)
	sete	%al
Ltmp205:
	.loc	5 53 6
	andb	$1, %al
	movzbl	%al, %eax
	addq	$48, %rsp
	popq	%rbp
	retq
Ltmp206:
Lfunc_end46:
	.cfi_endproc

	.globl	__ZN4core3ptr7mut_ptr31_$LT$impl$u20$$BP$mut$u20$T$GT$7is_null17h99b41cd15cd70b7bE
	.p2align	4, 0x90
__ZN4core3ptr7mut_ptr31_$LT$impl$u20$$BP$mut$u20$T$GT$7is_null17h99b41cd15cd70b7bE:
Lfunc_begin47:
	.loc	5 35 0
	.cfi_startproc
	pushq	%rbp
	.cfi_def_cfa_offset 16
	.cfi_offset %rbp, -16
	movq	%rsp, %rbp
	.cfi_def_cfa_register %rbp
	subq	$48, %rsp
	movq	%rdi, -40(%rbp)
Ltmp207:
	.loc	5 52 36 prologue_end
	movq	%rdi, -48(%rbp)
	.loc	5 52 18 is_stmt 0
	movq	-48(%rbp), %rax
	movq	%rax, -32(%rbp)
Ltmp208:
	.loc	5 38 13 is_stmt 1
	movq	%rax, -24(%rbp)
Ltmp209:
	.loc	5 215 33
	movq	%rax, -16(%rbp)
	.loc	5 215 18 is_stmt 0
	movq	%rax, -8(%rbp)
Ltmp210:
	.loc	5 38 13 is_stmt 1
	cmpq	$0, -8(%rbp)
	sete	%al
Ltmp211:
	.loc	5 53 6
	andb	$1, %al
	movzbl	%al, %eax
	addq	$48, %rsp
	popq	%rbp
	retq
Ltmp212:
Lfunc_end47:
	.cfi_endproc

	.globl	__ZN4core3ptr7mut_ptr31_$LT$impl$u20$$BP$mut$u20$T$GT$7is_null17hafa6a61b4843cc3eE
	.p2align	4, 0x90
__ZN4core3ptr7mut_ptr31_$LT$impl$u20$$BP$mut$u20$T$GT$7is_null17hafa6a61b4843cc3eE:
Lfunc_begin48:
	.loc	5 35 0
	.cfi_startproc
	pushq	%rbp
	.cfi_def_cfa_offset 16
	.cfi_offset %rbp, -16
	movq	%rsp, %rbp
	.cfi_def_cfa_register %rbp
	subq	$48, %rsp
	movq	%rdi, -40(%rbp)
Ltmp213:
	.loc	5 52 36 prologue_end
	movq	%rdi, -48(%rbp)
	.loc	5 52 18 is_stmt 0
	movq	-48(%rbp), %rax
	movq	%rax, -32(%rbp)
Ltmp214:
	.loc	5 38 13 is_stmt 1
	movq	%rax, -24(%rbp)
Ltmp215:
	.loc	5 215 33
	movq	%rax, -16(%rbp)
	.loc	5 215 18 is_stmt 0
	movq	%rax, -8(%rbp)
Ltmp216:
	.loc	5 38 13 is_stmt 1
	cmpq	$0, -8(%rbp)
	sete	%al
Ltmp217:
	.loc	5 53 6
	andb	$1, %al
	movzbl	%al, %eax
	addq	$48, %rsp
	popq	%rbp
	retq
Ltmp218:
Lfunc_end48:
	.cfi_endproc

	.globl	__ZN4core3ptr7mut_ptr31_$LT$impl$u20$$BP$mut$u20$T$GT$7is_null17he3822abb8f4a3c27E
	.p2align	4, 0x90
__ZN4core3ptr7mut_ptr31_$LT$impl$u20$$BP$mut$u20$T$GT$7is_null17he3822abb8f4a3c27E:
Lfunc_begin49:
	.loc	5 35 0
	.cfi_startproc
	pushq	%rbp
	.cfi_def_cfa_offset 16
	.cfi_offset %rbp, -16
	movq	%rsp, %rbp
	.cfi_def_cfa_register %rbp
	subq	$48, %rsp
	movq	%rdi, -40(%rbp)
Ltmp219:
	.loc	5 52 36 prologue_end
	movq	%rdi, -48(%rbp)
	.loc	5 52 18 is_stmt 0
	movq	-48(%rbp), %rax
	movq	%rax, -32(%rbp)
Ltmp220:
	.loc	5 38 13 is_stmt 1
	movq	%rax, -24(%rbp)
Ltmp221:
	.loc	5 215 33
	movq	%rax, -16(%rbp)
	.loc	5 215 18 is_stmt 0
	movq	%rax, -8(%rbp)
Ltmp222:
	.loc	5 38 13 is_stmt 1
	cmpq	$0, -8(%rbp)
	sete	%al
Ltmp223:
	.loc	5 53 6
	andb	$1, %al
	movzbl	%al, %eax
	addq	$48, %rsp
	popq	%rbp
	retq
Ltmp224:
Lfunc_end49:
	.cfi_endproc

	.globl	__ZN4core3ptr8non_null16NonNull$LT$T$GT$3new17hb6d7c7d3f0b7bef6E
	.p2align	4, 0x90
__ZN4core3ptr8non_null16NonNull$LT$T$GT$3new17hb6d7c7d3f0b7bef6E:
Lfunc_begin50:
	.loc	6 222 0
	.cfi_startproc
	pushq	%rbp
	.cfi_def_cfa_offset 16
	.cfi_offset %rbp, -16
	movq	%rsp, %rbp
	.cfi_def_cfa_register %rbp
	subq	$88, %rsp
	movq	%rdi, -88(%rbp)
	movq	%rdi, -56(%rbp)
Ltmp225:
	.loc	6 223 13 prologue_end
	movq	%rdi, -48(%rbp)
Ltmp226:
	.loc	5 52 36
	movq	%rdi, -64(%rbp)
	.loc	5 52 18 is_stmt 0
	movq	-64(%rbp), %rax
	movq	%rax, -40(%rbp)
Ltmp227:
	.loc	5 38 13 is_stmt 1
	movq	%rax, -32(%rbp)
Ltmp228:
	.loc	5 215 33
	movq	%rax, -24(%rbp)
	.loc	5 215 18 is_stmt 0
	movq	%rax, -16(%rbp)
Ltmp229:
	.loc	5 38 13 is_stmt 1
	cmpq	$0, -16(%rbp)
	sete	%al
Ltmp230:
	.loc	6 223 12
	xorb	$-1, %al
	testb	$1, %al
	jne	LBB50_2
	.loc	6 227 13
	movq	$0, -80(%rbp)
	.loc	6 223 9
	jmp	LBB50_3
LBB50_2:
	.loc	6 0 9 is_stmt 0
	movq	-88(%rbp), %rax
	.loc	6 225 47 is_stmt 1
	movq	%rax, -8(%rbp)
Ltmp231:
	.loc	6 201 13
	movq	%rax, -72(%rbp)
Ltmp232:
	.loc	6 225 13
	movq	-72(%rbp), %rax
	movq	%rax, -80(%rbp)
LBB50_3:
	.loc	6 229 6
	movq	-80(%rbp), %rax
	addq	$88, %rsp
	popq	%rbp
	retq
Ltmp233:
Lfunc_end50:
	.cfi_endproc

	.globl	__ZN4core3ptr8non_null26NonNull$LT$$u5b$T$u5d$$GT$20slice_from_raw_parts17hcd1a097b3234d26eE
	.p2align	4, 0x90
__ZN4core3ptr8non_null26NonNull$LT$$u5b$T$u5d$$GT$20slice_from_raw_parts17hcd1a097b3234d26eE:
Lfunc_begin51:
	.loc	6 482 0
	.cfi_startproc
	pushq	%rbp
	.cfi_def_cfa_offset 16
	.cfi_offset %rbp, -16
	movq	%rsp, %rbp
	.cfi_def_cfa_register %rbp
	subq	$128, %rsp
	movq	%rdi, -80(%rbp)
	movq	%rsi, -72(%rbp)
Ltmp234:
	.loc	6 484 70 prologue_end
	movq	%rdi, -64(%rbp)
Ltmp235:
	.loc	6 326 9
	movq	%rdi, -56(%rbp)
Ltmp236:
	.loc	6 484 85
	movq	%rsi, -48(%rbp)
Ltmp237:
	.loc	3 766 24
	movq	%rdi, -40(%rbp)
Ltmp238:
	.loc	5 60 9
	movq	%rdi, -32(%rbp)
Ltmp239:
	.loc	3 766 37
	movq	%rsi, -24(%rbp)
Ltmp240:
	.loc	4 135 36
	movq	%rdi, -96(%rbp)
	movq	%rsi, -88(%rbp)
	.loc	4 135 14 is_stmt 0
	movq	-96(%rbp), %rcx
	movq	-88(%rbp), %rax
	movq	%rcx, -112(%rbp)
	movq	%rax, -104(%rbp)
	movq	-112(%rbp), %rcx
	movq	-104(%rbp), %rax
	movq	%rcx, -16(%rbp)
	movq	%rax, -8(%rbp)
Ltmp241:
	.loc	6 201 13 is_stmt 1
	movq	%rcx, -128(%rbp)
	movq	%rax, -120(%rbp)
Ltmp242:
	.loc	6 485 6
	movq	-128(%rbp), %rax
	movq	-120(%rbp), %rdx
	addq	$128, %rsp
	popq	%rbp
	retq
Ltmp243:
Lfunc_end51:
	.cfi_endproc

	.globl	__ZN4core3ptr91drop_in_place$LT$alloc..boxed..Box$LT$dyn$u20$core..any..Any$u2b$core..marker..Send$GT$$GT$17h23cefe420705babcE
	.p2align	4, 0x90
__ZN4core3ptr91drop_in_place$LT$alloc..boxed..Box$LT$dyn$u20$core..any..Any$u2b$core..marker..Send$GT$$GT$17h23cefe420705babcE:
Lfunc_begin52:
	.loc	3 490 0
	.cfi_startproc
	.cfi_personality 155, _rust_eh_personality
	.cfi_lsda 16, Lexception5
	pushq	%rbp
	.cfi_def_cfa_offset 16
	.cfi_offset %rbp, -16
	movq	%rsp, %rbp
	.cfi_def_cfa_register %rbp
	subq	$32, %rsp
	movq	%rdi, %rax
	movq	%rax, -32(%rbp)
	movq	%rax, -24(%rbp)
Ltmp250:
	.loc	3 490 1 prologue_end
	movq	(%rax), %rdi
	movq	8(%rax), %rax
	movq	(%rax), %rax
Ltmp244:
	callq	*%rax
Ltmp245:
	jmp	LBB52_3
LBB52_1:
	.loc	3 0 1 is_stmt 0
	movq	-32(%rbp), %rax
	.loc	3 490 1
	movq	(%rax), %rdi
	movq	8(%rax), %rsi
Ltmp247:
	callq	__ZN5alloc5alloc8box_free17h5959c9413450f08aE
Ltmp248:
	jmp	LBB52_5
LBB52_2:
Ltmp246:
	.loc	3 0 1
	movq	%rax, %rcx
	movl	%edx, %eax
	movq	%rcx, -16(%rbp)
	movl	%eax, -8(%rbp)
	jmp	LBB52_1
LBB52_3:
	movq	-32(%rbp), %rax
	.loc	3 490 1
	movq	(%rax), %rdi
	movq	8(%rax), %rsi
	callq	__ZN5alloc5alloc8box_free17h5959c9413450f08aE
	addq	$32, %rsp
	popq	%rbp
	retq
LBB52_4:
Ltmp249:
	callq	__ZN4core9panicking19panic_cannot_unwind17h1fbca7e1d7f56ae1E
LBB52_5:
	movq	-16(%rbp), %rdi
	callq	__Unwind_Resume
Ltmp251:
Lfunc_end52:
	.cfi_endproc
	.section	__TEXT,__gcc_except_tab
	.p2align	2
GCC_except_table52:
Lexception5:
	.byte	255
	.byte	255
	.byte	1
	.uleb128 Lcst_end5-Lcst_begin5
Lcst_begin5:
	.uleb128 Ltmp244-Lfunc_begin52
	.uleb128 Ltmp245-Ltmp244
	.uleb128 Ltmp246-Lfunc_begin52
	.byte	0
	.uleb128 Ltmp247-Lfunc_begin52
	.uleb128 Ltmp248-Ltmp247
	.uleb128 Ltmp249-Lfunc_begin52
	.byte	0
	.uleb128 Ltmp248-Lfunc_begin52
	.uleb128 Lfunc_end52-Ltmp248
	.byte	0
	.byte	0
Lcst_end5:
	.p2align	2

	.section	__TEXT,__text,regular,pure_instructions
	.globl	__ZN4core3ptr9const_ptr33_$LT$impl$u20$$BP$const$u20$T$GT$7is_null17h0e78d30ecd6ec005E
	.p2align	4, 0x90
__ZN4core3ptr9const_ptr33_$LT$impl$u20$$BP$const$u20$T$GT$7is_null17h0e78d30ecd6ec005E:
Lfunc_begin53:
	.loc	2 36 0 is_stmt 1
	.cfi_startproc
	pushq	%rbp
	.cfi_def_cfa_offset 16
	.cfi_offset %rbp, -16
	movq	%rsp, %rbp
	.cfi_def_cfa_register %rbp
	subq	$48, %rsp
	movq	%rdi, -40(%rbp)
Ltmp252:
	.loc	2 53 36 prologue_end
	movq	%rdi, -48(%rbp)
	.loc	2 53 18 is_stmt 0
	movq	-48(%rbp), %rax
	movq	%rax, -32(%rbp)
Ltmp253:
	.loc	2 39 13 is_stmt 1
	movq	%rax, -24(%rbp)
Ltmp254:
	.loc	2 209 33
	movq	%rax, -16(%rbp)
	.loc	2 209 18 is_stmt 0
	movq	%rax, -8(%rbp)
Ltmp255:
	.loc	2 39 13 is_stmt 1
	cmpq	$0, -8(%rbp)
	sete	%al
Ltmp256:
	.loc	2 54 6
	andb	$1, %al
	movzbl	%al, %eax
	addq	$48, %rsp
	popq	%rbp
	retq
Ltmp257:
Lfunc_end53:
	.cfi_endproc

	.globl	__ZN4core3ptr9const_ptr33_$LT$impl$u20$$BP$const$u20$T$GT$7is_null17h11ad62061e3e999aE
	.p2align	4, 0x90
__ZN4core3ptr9const_ptr33_$LT$impl$u20$$BP$const$u20$T$GT$7is_null17h11ad62061e3e999aE:
Lfunc_begin54:
	.loc	2 36 0
	.cfi_startproc
	pushq	%rbp
	.cfi_def_cfa_offset 16
	.cfi_offset %rbp, -16
	movq	%rsp, %rbp
	.cfi_def_cfa_register %rbp
	subq	$48, %rsp
	movq	%rdi, -40(%rbp)
Ltmp258:
	.loc	2 53 36 prologue_end
	movq	%rdi, -48(%rbp)
	.loc	2 53 18 is_stmt 0
	movq	-48(%rbp), %rax
	movq	%rax, -32(%rbp)
Ltmp259:
	.loc	2 39 13 is_stmt 1
	movq	%rax, -24(%rbp)
Ltmp260:
	.loc	2 209 33
	movq	%rax, -16(%rbp)
	.loc	2 209 18 is_stmt 0
	movq	%rax, -8(%rbp)
Ltmp261:
	.loc	2 39 13 is_stmt 1
	cmpq	$0, -8(%rbp)
	sete	%al
Ltmp262:
	.loc	2 54 6
	andb	$1, %al
	movzbl	%al, %eax
	addq	$48, %rsp
	popq	%rbp
	retq
Ltmp263:
Lfunc_end54:
	.cfi_endproc

	.globl	__ZN4core3ptr9const_ptr33_$LT$impl$u20$$BP$const$u20$T$GT$7is_null17h2df3bae159d78602E
	.p2align	4, 0x90
__ZN4core3ptr9const_ptr33_$LT$impl$u20$$BP$const$u20$T$GT$7is_null17h2df3bae159d78602E:
Lfunc_begin55:
	.loc	2 36 0
	.cfi_startproc
	pushq	%rbp
	.cfi_def_cfa_offset 16
	.cfi_offset %rbp, -16
	movq	%rsp, %rbp
	.cfi_def_cfa_register %rbp
	subq	$48, %rsp
	movq	%rdi, -40(%rbp)
Ltmp264:
	.loc	2 53 36 prologue_end
	movq	%rdi, -48(%rbp)
	.loc	2 53 18 is_stmt 0
	movq	-48(%rbp), %rax
	movq	%rax, -32(%rbp)
Ltmp265:
	.loc	2 39 13 is_stmt 1
	movq	%rax, -24(%rbp)
Ltmp266:
	.loc	2 209 33
	movq	%rax, -16(%rbp)
	.loc	2 209 18 is_stmt 0
	movq	%rax, -8(%rbp)
Ltmp267:
	.loc	2 39 13 is_stmt 1
	cmpq	$0, -8(%rbp)
	sete	%al
Ltmp268:
	.loc	2 54 6
	andb	$1, %al
	movzbl	%al, %eax
	addq	$48, %rsp
	popq	%rbp
	retq
Ltmp269:
Lfunc_end55:
	.cfi_endproc

	.globl	__ZN4core3ptr9const_ptr33_$LT$impl$u20$$BP$const$u20$T$GT$7is_null17h5db64acae0e0a9a5E
	.p2align	4, 0x90
__ZN4core3ptr9const_ptr33_$LT$impl$u20$$BP$const$u20$T$GT$7is_null17h5db64acae0e0a9a5E:
Lfunc_begin56:
	.loc	2 36 0
	.cfi_startproc
	pushq	%rbp
	.cfi_def_cfa_offset 16
	.cfi_offset %rbp, -16
	movq	%rsp, %rbp
	.cfi_def_cfa_register %rbp
	subq	$48, %rsp
	movq	%rdi, -40(%rbp)
Ltmp270:
	.loc	2 53 36 prologue_end
	movq	%rdi, -48(%rbp)
	.loc	2 53 18 is_stmt 0
	movq	-48(%rbp), %rax
	movq	%rax, -32(%rbp)
Ltmp271:
	.loc	2 39 13 is_stmt 1
	movq	%rax, -24(%rbp)
Ltmp272:
	.loc	2 209 33
	movq	%rax, -16(%rbp)
	.loc	2 209 18 is_stmt 0
	movq	%rax, -8(%rbp)
Ltmp273:
	.loc	2 39 13 is_stmt 1
	cmpq	$0, -8(%rbp)
	sete	%al
Ltmp274:
	.loc	2 54 6
	andb	$1, %al
	movzbl	%al, %eax
	addq	$48, %rsp
	popq	%rbp
	retq
Ltmp275:
Lfunc_end56:
	.cfi_endproc

	.globl	__ZN4core3ptr9const_ptr33_$LT$impl$u20$$BP$const$u20$T$GT$7is_null17h60e90f9fbae484b5E
	.p2align	4, 0x90
__ZN4core3ptr9const_ptr33_$LT$impl$u20$$BP$const$u20$T$GT$7is_null17h60e90f9fbae484b5E:
Lfunc_begin57:
	.loc	2 36 0
	.cfi_startproc
	pushq	%rbp
	.cfi_def_cfa_offset 16
	.cfi_offset %rbp, -16
	movq	%rsp, %rbp
	.cfi_def_cfa_register %rbp
	subq	$48, %rsp
	movq	%rdi, -40(%rbp)
Ltmp276:
	.loc	2 53 36 prologue_end
	movq	%rdi, -48(%rbp)
	.loc	2 53 18 is_stmt 0
	movq	-48(%rbp), %rax
	movq	%rax, -32(%rbp)
Ltmp277:
	.loc	2 39 13 is_stmt 1
	movq	%rax, -24(%rbp)
Ltmp278:
	.loc	2 209 33
	movq	%rax, -16(%rbp)
	.loc	2 209 18 is_stmt 0
	movq	%rax, -8(%rbp)
Ltmp279:
	.loc	2 39 13 is_stmt 1
	cmpq	$0, -8(%rbp)
	sete	%al
Ltmp280:
	.loc	2 54 6
	andb	$1, %al
	movzbl	%al, %eax
	addq	$48, %rsp
	popq	%rbp
	retq
Ltmp281:
Lfunc_end57:
	.cfi_endproc

	.globl	__ZN4core3ptr9const_ptr33_$LT$impl$u20$$BP$const$u20$T$GT$7is_null17h6cfa7c32a9e09f7bE
	.p2align	4, 0x90
__ZN4core3ptr9const_ptr33_$LT$impl$u20$$BP$const$u20$T$GT$7is_null17h6cfa7c32a9e09f7bE:
Lfunc_begin58:
	.loc	2 36 0
	.cfi_startproc
	pushq	%rbp
	.cfi_def_cfa_offset 16
	.cfi_offset %rbp, -16
	movq	%rsp, %rbp
	.cfi_def_cfa_register %rbp
	subq	$48, %rsp
	movq	%rdi, -40(%rbp)
Ltmp282:
	.loc	2 53 36 prologue_end
	movq	%rdi, -48(%rbp)
	.loc	2 53 18 is_stmt 0
	movq	-48(%rbp), %rax
	movq	%rax, -32(%rbp)
Ltmp283:
	.loc	2 39 13 is_stmt 1
	movq	%rax, -24(%rbp)
Ltmp284:
	.loc	2 209 33
	movq	%rax, -16(%rbp)
	.loc	2 209 18 is_stmt 0
	movq	%rax, -8(%rbp)
Ltmp285:
	.loc	2 39 13 is_stmt 1
	cmpq	$0, -8(%rbp)
	sete	%al
Ltmp286:
	.loc	2 54 6
	andb	$1, %al
	movzbl	%al, %eax
	addq	$48, %rsp
	popq	%rbp
	retq
Ltmp287:
Lfunc_end58:
	.cfi_endproc

	.globl	__ZN4core3ptr9const_ptr33_$LT$impl$u20$$BP$const$u20$T$GT$7is_null17h762b9c635c9c45faE
	.p2align	4, 0x90
__ZN4core3ptr9const_ptr33_$LT$impl$u20$$BP$const$u20$T$GT$7is_null17h762b9c635c9c45faE:
Lfunc_begin59:
	.loc	2 36 0
	.cfi_startproc
	pushq	%rbp
	.cfi_def_cfa_offset 16
	.cfi_offset %rbp, -16
	movq	%rsp, %rbp
	.cfi_def_cfa_register %rbp
	subq	$48, %rsp
	movq	%rdi, -40(%rbp)
Ltmp288:
	.loc	2 53 36 prologue_end
	movq	%rdi, -48(%rbp)
	.loc	2 53 18 is_stmt 0
	movq	-48(%rbp), %rax
	movq	%rax, -32(%rbp)
Ltmp289:
	.loc	2 39 13 is_stmt 1
	movq	%rax, -24(%rbp)
Ltmp290:
	.loc	2 209 33
	movq	%rax, -16(%rbp)
	.loc	2 209 18 is_stmt 0
	movq	%rax, -8(%rbp)
Ltmp291:
	.loc	2 39 13 is_stmt 1
	cmpq	$0, -8(%rbp)
	sete	%al
Ltmp292:
	.loc	2 54 6
	andb	$1, %al
	movzbl	%al, %eax
	addq	$48, %rsp
	popq	%rbp
	retq
Ltmp293:
Lfunc_end59:
	.cfi_endproc

	.globl	__ZN4core3ptr9const_ptr33_$LT$impl$u20$$BP$const$u20$T$GT$7is_null17h795c511f4d6180c6E
	.p2align	4, 0x90
__ZN4core3ptr9const_ptr33_$LT$impl$u20$$BP$const$u20$T$GT$7is_null17h795c511f4d6180c6E:
Lfunc_begin60:
	.loc	2 36 0
	.cfi_startproc
	pushq	%rbp
	.cfi_def_cfa_offset 16
	.cfi_offset %rbp, -16
	movq	%rsp, %rbp
	.cfi_def_cfa_register %rbp
	subq	$48, %rsp
	movq	%rdi, -40(%rbp)
Ltmp294:
	.loc	2 53 36 prologue_end
	movq	%rdi, -48(%rbp)
	.loc	2 53 18 is_stmt 0
	movq	-48(%rbp), %rax
	movq	%rax, -32(%rbp)
Ltmp295:
	.loc	2 39 13 is_stmt 1
	movq	%rax, -24(%rbp)
Ltmp296:
	.loc	2 209 33
	movq	%rax, -16(%rbp)
	.loc	2 209 18 is_stmt 0
	movq	%rax, -8(%rbp)
Ltmp297:
	.loc	2 39 13 is_stmt 1
	cmpq	$0, -8(%rbp)
	sete	%al
Ltmp298:
	.loc	2 54 6
	andb	$1, %al
	movzbl	%al, %eax
	addq	$48, %rsp
	popq	%rbp
	retq
Ltmp299:
Lfunc_end60:
	.cfi_endproc

	.globl	__ZN4core3ptr9const_ptr33_$LT$impl$u20$$BP$const$u20$T$GT$7is_null17h853bbfc9bcc1ab04E
	.p2align	4, 0x90
__ZN4core3ptr9const_ptr33_$LT$impl$u20$$BP$const$u20$T$GT$7is_null17h853bbfc9bcc1ab04E:
Lfunc_begin61:
	.loc	2 36 0
	.cfi_startproc
	pushq	%rbp
	.cfi_def_cfa_offset 16
	.cfi_offset %rbp, -16
	movq	%rsp, %rbp
	.cfi_def_cfa_register %rbp
	subq	$48, %rsp
	movq	%rdi, -40(%rbp)
Ltmp300:
	.loc	2 53 36 prologue_end
	movq	%rdi, -48(%rbp)
	.loc	2 53 18 is_stmt 0
	movq	-48(%rbp), %rax
	movq	%rax, -32(%rbp)
Ltmp301:
	.loc	2 39 13 is_stmt 1
	movq	%rax, -24(%rbp)
Ltmp302:
	.loc	2 209 33
	movq	%rax, -16(%rbp)
	.loc	2 209 18 is_stmt 0
	movq	%rax, -8(%rbp)
Ltmp303:
	.loc	2 39 13 is_stmt 1
	cmpq	$0, -8(%rbp)
	sete	%al
Ltmp304:
	.loc	2 54 6
	andb	$1, %al
	movzbl	%al, %eax
	addq	$48, %rsp
	popq	%rbp
	retq
Ltmp305:
Lfunc_end61:
	.cfi_endproc

	.globl	__ZN4core3ptr9const_ptr33_$LT$impl$u20$$BP$const$u20$T$GT$7is_null17h98defd3106e92803E
	.p2align	4, 0x90
__ZN4core3ptr9const_ptr33_$LT$impl$u20$$BP$const$u20$T$GT$7is_null17h98defd3106e92803E:
Lfunc_begin62:
	.loc	2 36 0
	.cfi_startproc
	pushq	%rbp
	.cfi_def_cfa_offset 16
	.cfi_offset %rbp, -16
	movq	%rsp, %rbp
	.cfi_def_cfa_register %rbp
	subq	$48, %rsp
	movq	%rdi, -40(%rbp)
Ltmp306:
	.loc	2 53 36 prologue_end
	movq	%rdi, -48(%rbp)
	.loc	2 53 18 is_stmt 0
	movq	-48(%rbp), %rax
	movq	%rax, -32(%rbp)
Ltmp307:
	.loc	2 39 13 is_stmt 1
	movq	%rax, -24(%rbp)
Ltmp308:
	.loc	2 209 33
	movq	%rax, -16(%rbp)
	.loc	2 209 18 is_stmt 0
	movq	%rax, -8(%rbp)
Ltmp309:
	.loc	2 39 13 is_stmt 1
	cmpq	$0, -8(%rbp)
	sete	%al
Ltmp310:
	.loc	2 54 6
	andb	$1, %al
	movzbl	%al, %eax
	addq	$48, %rsp
	popq	%rbp
	retq
Ltmp311:
Lfunc_end62:
	.cfi_endproc

	.globl	__ZN4core3ptr9const_ptr33_$LT$impl$u20$$BP$const$u20$T$GT$7sub_ptr17h4570e3dea0525e5bE
	.p2align	4, 0x90
__ZN4core3ptr9const_ptr33_$LT$impl$u20$$BP$const$u20$T$GT$7sub_ptr17h4570e3dea0525e5bE:
Lfunc_begin63:
	.loc	2 791 0
	.cfi_startproc
	pushq	%rbp
	.cfi_def_cfa_offset 16
	.cfi_offset %rbp, -16
	movq	%rsp, %rbp
	.cfi_def_cfa_register %rbp
	subq	$64, %rsp
	movq	%rdi, -56(%rbp)
	movq	%rsi, -48(%rbp)
	movq	%rdi, -32(%rbp)
	movq	%rsi, -24(%rbp)
Ltmp312:
	.loc	23 309 5 prologue_end
	movq	$1, -16(%rbp)
Ltmp313:
	.loc	2 806 17
	movb	$1, %al
	testb	$1, %al
	jne	LBB63_2
	movb	$0, -33(%rbp)
	jmp	LBB63_3
LBB63_2:
	movb	$1, -33(%rbp)
LBB63_3:
	.loc	2 806 9 is_stmt 0
	movb	-33(%rbp), %al
	xorb	$-1, %al
	testb	$1, %al
	jne	LBB63_5
	.loc	2 0 9
	movq	-48(%rbp), %rcx
	movq	-56(%rbp), %rax
	.loc	2 808 18 is_stmt 1
	subq	%rcx, %rax
	shrq	$0, %rax
	movq	%rax, -8(%rbp)
	movq	-8(%rbp), %rax
Ltmp314:
	.loc	2 809 6
	addq	$64, %rsp
	popq	%rbp
	retq
LBB63_5:
Ltmp315:
	.loc	2 806 9
	leaq	l___unnamed_15(%rip), %rdi
	leaq	l___unnamed_16(%rip), %rdx
	movl	$73, %esi
	callq	__ZN4core9panicking5panic17hc1bc45270cf64b03E
Ltmp316:
Lfunc_end63:
	.cfi_endproc

	.p2align	4, 0x90
__ZN4core3str21_$LT$impl$u20$str$GT$3len17h3f4680d22895271dE:
Lfunc_begin64:
	.file	28 "/rustc/2c8cc343237b8f7d5a3c3703e3a87f2eb2c54a74/library/core/src/str" "mod.rs"
	.loc	28 159 0
	.cfi_startproc
	pushq	%rbp
	.cfi_def_cfa_offset 16
	.cfi_offset %rbp, -16
	movq	%rsp, %rbp
	.cfi_def_cfa_register %rbp
	subq	$48, %rsp
	movq	%rdi, -48(%rbp)
	movq	%rsi, -40(%rbp)
Ltmp317:
	.loc	28 160 9 prologue_end
	movq	%rdi, -32(%rbp)
	movq	%rsi, -24(%rbp)
Ltmp318:
	.loc	28 327 18
	movq	%rdi, -16(%rbp)
	movq	%rsi, -8(%rbp)
	movq	-8(%rbp), %rax
Ltmp319:
	.loc	28 161 6
	addq	$48, %rsp
	popq	%rbp
	retq
Ltmp320:
Lfunc_end64:
	.cfi_endproc

	.p2align	4, 0x90
__ZN4core3str8converts19from_utf8_unchecked17h08e04a1757ac2e04E:
Lfunc_begin65:
	.file	29 "/rustc/2c8cc343237b8f7d5a3c3703e3a87f2eb2c54a74/library/core/src/str" "converts.rs"
	.loc	29 170 0
	.cfi_startproc
	pushq	%rbp
	.cfi_def_cfa_offset 16
	.cfi_offset %rbp, -16
	movq	%rsp, %rbp
	.cfi_def_cfa_register %rbp
	subq	$32, %rsp
	movq	%rdi, -32(%rbp)
	movq	%rsi, -24(%rbp)
Ltmp321:
	.loc	29 173 14 prologue_end
	movq	%rdi, -16(%rbp)
	movq	%rsi, -8(%rbp)
	movq	-16(%rbp), %rax
	movq	-8(%rbp), %rdx
	.loc	29 174 2
	addq	$32, %rsp
	popq	%rbp
	retq
Ltmp322:
Lfunc_end65:
	.cfi_endproc

	.p2align	4, 0x90
__ZN4core4char7methods15encode_utf8_raw17h03348cb5c4d0711cE:
Lfunc_begin66:
	.file	30 "/rustc/2c8cc343237b8f7d5a3c3703e3a87f2eb2c54a74/library/core/src/char" "methods.rs"
	.loc	30 1729 0
	.cfi_startproc
	pushq	%rbp
	.cfi_def_cfa_offset 16
	.cfi_offset %rbp, -16
	movq	%rsp, %rbp
	.cfi_def_cfa_register %rbp
	subq	$560, %rsp
	movq	%rsi, -544(%rbp)
	movq	%rdx, -536(%rbp)
	movl	%edi, -516(%rbp)
	movq	%rsi, -304(%rbp)
	movq	%rdx, -296(%rbp)
Ltmp323:
	.loc	30 1730 24 prologue_end
	movl	-516(%rbp), %edi
	.loc	30 1730 15 is_stmt 0
	callq	__ZN4core4char7methods8len_utf817h82d5d2258bddc75aE
	movq	-544(%rbp), %rsi
	movq	-536(%rbp), %rdx
	movq	%rax, -512(%rbp)
Ltmp324:
	.loc	30 1731 12 is_stmt 1
	movq	-512(%rbp), %rax
	.loc	30 1731 22 is_stmt 0
	movq	%rsi, -272(%rbp)
	movq	%rdx, -264(%rbp)
Ltmp325:
	.loc	1 30 25 is_stmt 1
	movq	%rsi, -256(%rbp)
	movq	%rdx, -248(%rbp)
Ltmp326:
	.loc	30 1731 11
	movq	%rax, -504(%rbp)
	movq	%rsi, -496(%rbp)
	movq	%rdx, -488(%rbp)
	.loc	30 1731 5 is_stmt 0
	movq	-504(%rbp), %rax
	decq	%rax
	movq	%rax, -528(%rbp)
	subq	$3, %rax
	ja	LBB66_1
	.loc	30 0 5
	movq	-528(%rbp), %rax
	leaq	LJTI66_0(%rip), %rcx
	movslq	(%rcx,%rax,4), %rax
	addq	%rcx, %rax
	jmpq	*%rax
LBB66_1:
	movq	-536(%rbp), %rcx
	leaq	-512(%rbp), %rsi
	.loc	30 1750 14 is_stmt 1
	movq	%rsi, -120(%rbp)
Ltmp327:
	.loc	15 328 23
	movq	%rsi, -112(%rbp)
	.loc	15 328 26 is_stmt 0
	movq	__ZN4core3fmt3num3imp54_$LT$impl$u20$core..fmt..Display$u20$for$u20$usize$GT$3fmt17ha5c925fcd7ed33faE@GOTPCREL(%rip), %rax
	movq	%rax, -104(%rbp)
Ltmp328:
	.loc	15 347 42 is_stmt 1
	movq	%rax, -96(%rbp)
	movq	-96(%rbp), %rdx
	.loc	15 347 68 is_stmt 0
	movq	%rsi, -88(%rbp)
	movq	-88(%rbp), %rsi
	.loc	15 347 18
	movq	%rsi, -384(%rbp)
	movq	%rdx, -376(%rbp)
	leaq	-516(%rbp), %rsi
Ltmp329:
	.loc	30 1750 14 is_stmt 1
	movq	%rsi, -80(%rbp)
Ltmp330:
	.loc	15 328 23
	movq	%rsi, -72(%rbp)
	.loc	15 328 26 is_stmt 0
	movq	__ZN4core3fmt3num53_$LT$impl$u20$core..fmt..UpperHex$u20$for$u20$u32$GT$3fmt17ha96bbefe8f663d11E@GOTPCREL(%rip), %rdx
	movq	%rdx, -64(%rbp)
Ltmp331:
	.loc	15 347 42 is_stmt 1
	movq	%rdx, -56(%rbp)
	movq	-56(%rbp), %rdx
	.loc	15 347 68 is_stmt 0
	movq	%rsi, -48(%rbp)
	movq	-48(%rbp), %rsi
	.loc	15 347 18
	movq	%rsi, -368(%rbp)
	movq	%rdx, -360(%rbp)
Ltmp332:
	.loc	30 1754 13 is_stmt 1
	movq	%rcx, -336(%rbp)
	leaq	-336(%rbp), %rcx
	.loc	30 1750 14
	movq	%rcx, -40(%rbp)
Ltmp333:
	.loc	15 328 23
	movq	%rcx, -32(%rbp)
	.loc	15 328 26 is_stmt 0
	movq	%rax, -24(%rbp)
Ltmp334:
	.loc	15 347 42 is_stmt 1
	movq	%rax, -16(%rbp)
	movq	-16(%rbp), %rax
	.loc	15 347 68 is_stmt 0
	movq	%rcx, -8(%rbp)
	movq	-8(%rbp), %rcx
	.loc	15 347 18
	movq	%rcx, -352(%rbp)
	movq	%rax, -344(%rbp)
Ltmp335:
	.loc	30 1750 14 is_stmt 1
	movq	-384(%rbp), %rcx
	movq	-376(%rbp), %rax
	movq	%rcx, -432(%rbp)
	movq	%rax, -424(%rbp)
	movq	-368(%rbp), %rcx
	movq	-360(%rbp), %rax
	movq	%rcx, -416(%rbp)
	movq	%rax, -408(%rbp)
	movq	-352(%rbp), %rcx
	movq	-344(%rbp), %rax
	movq	%rcx, -400(%rbp)
	movq	%rax, -392(%rbp)
	leaq	l___unnamed_17(%rip), %rsi
	leaq	-480(%rbp), %rdi
	movq	%rdi, -552(%rbp)
	leaq	-432(%rbp), %rcx
	movl	$3, %r8d
	movq	%r8, %rdx
	callq	__ZN4core3fmt9Arguments6new_v117h427983d98d5c8307E
	movq	-552(%rbp), %rdi
	leaq	l___unnamed_18(%rip), %rsi
	callq	__ZN4core9panicking9panic_fmt17h9b5d807e24bcaaedE
LBB66_2:
	.loc	30 1732 13
	cmpq	$1, -488(%rbp)
	jae	LBB66_10
	jmp	LBB66_1
LBB66_3:
	.loc	30 1735 13
	cmpq	$2, -488(%rbp)
	jae	LBB66_9
	jmp	LBB66_1
LBB66_4:
	.loc	30 1739 13
	cmpq	$3, -488(%rbp)
	jae	LBB66_8
	jmp	LBB66_1
LBB66_5:
	.loc	30 1744 13
	cmpq	$4, -488(%rbp)
	jb	LBB66_1
	.loc	30 1744 14 is_stmt 0
	movq	-496(%rbp), %rsi
	movq	%rsi, -240(%rbp)
	.loc	30 1744 17
	movq	-496(%rbp), %rdx
	movq	%rdx, %rax
	addq	$1, %rax
	movq	%rax, -232(%rbp)
	.loc	30 1744 20
	movq	-496(%rbp), %rcx
	movq	%rcx, %rax
	addq	$2, %rax
	movq	%rax, -224(%rbp)
	.loc	30 1744 23
	movq	-496(%rbp), %rax
	movq	%rax, %rdi
	addq	$3, %rdi
	movq	%rdi, -216(%rbp)
Ltmp336:
	.loc	30 1745 19 is_stmt 1
	movl	-516(%rbp), %edi
	shrl	$18, %edi
	.loc	30 1745 18 is_stmt 0
	andl	$7, %edi
	.loc	30 1745 13
	orb	$-16, %dil
	movb	%dil, (%rsi)
	.loc	30 1746 19 is_stmt 1
	movl	-516(%rbp), %esi
	shrl	$12, %esi
	.loc	30 1746 18 is_stmt 0
	andl	$63, %esi
	.loc	30 1746 13
	orb	$-128, %sil
	movb	%sil, 1(%rdx)
	.loc	30 1747 19 is_stmt 1
	movl	-516(%rbp), %edx
	shrl	$6, %edx
	.loc	30 1747 18 is_stmt 0
	andl	$63, %edx
	.loc	30 1747 13
	orb	$-128, %dl
	movb	%dl, 2(%rcx)
	.loc	30 1748 19 is_stmt 1
	movl	-516(%rbp), %ecx
	.loc	30 1748 18 is_stmt 0
	andl	$63, %ecx
	.loc	30 1748 13
	orb	$-128, %cl
	movb	%cl, 3(%rax)
Ltmp337:
LBB66_7:
	.loc	30 0 13
	movq	-536(%rbp), %rcx
	movq	-544(%rbp), %rdx
	.loc	30 1757 10 is_stmt 1
	movq	%rdx, -160(%rbp)
	movq	%rcx, -152(%rbp)
	.loc	30 1757 16 is_stmt 0
	movq	-512(%rbp), %rax
	.loc	30 1757 14
	movq	%rax, -328(%rbp)
Ltmp338:
	.loc	1 30 9 is_stmt 1
	movq	-328(%rbp), %rax
	movq	%rax, -144(%rbp)
	.loc	1 30 25 is_stmt 0
	movq	%rdx, -136(%rbp)
	movq	%rcx, -128(%rbp)
Ltmp339:
	.loc	1 461 9 is_stmt 1
	movq	$0, -320(%rbp)
	movq	%rax, -312(%rbp)
	movq	-320(%rbp), %rdi
	movq	-312(%rbp), %rsi
	leaq	l___unnamed_19(%rip), %r8
	callq	__ZN106_$LT$core..ops..range..Range$LT$usize$GT$$u20$as$u20$core..slice..index..SliceIndex$LT$$u5b$T$u5d$$GT$$GT$9index_mut17h9d8cccfa385ef70bE
Ltmp340:
	.loc	30 1758 2
	addq	$560, %rsp
	popq	%rbp
	retq
LBB66_8:
Ltmp341:
	.loc	30 1739 14
	movq	-496(%rbp), %rdx
	movq	%rdx, -208(%rbp)
	.loc	30 1739 17 is_stmt 0
	movq	-496(%rbp), %rcx
	movq	%rcx, %rax
	addq	$1, %rax
	movq	%rax, -200(%rbp)
	.loc	30 1739 20
	movq	-496(%rbp), %rax
	movq	%rax, %rsi
	addq	$2, %rsi
	movq	%rsi, -192(%rbp)
Ltmp342:
	.loc	30 1740 19 is_stmt 1
	movl	-516(%rbp), %esi
	shrl	$12, %esi
	.loc	30 1740 18 is_stmt 0
	andl	$15, %esi
	.loc	30 1740 13
	orb	$-32, %sil
	movb	%sil, (%rdx)
	.loc	30 1741 19 is_stmt 1
	movl	-516(%rbp), %edx
	shrl	$6, %edx
	.loc	30 1741 18 is_stmt 0
	andl	$63, %edx
	.loc	30 1741 13
	orb	$-128, %dl
	movb	%dl, 1(%rcx)
	.loc	30 1742 19 is_stmt 1
	movl	-516(%rbp), %ecx
	.loc	30 1742 18 is_stmt 0
	andl	$63, %ecx
	.loc	30 1742 13
	orb	$-128, %cl
	movb	%cl, 2(%rax)
Ltmp343:
	.loc	30 1743 9 is_stmt 1
	jmp	LBB66_7
LBB66_9:
	.loc	30 1735 14
	movq	-496(%rbp), %rcx
	movq	%rcx, -184(%rbp)
	.loc	30 1735 17 is_stmt 0
	movq	-496(%rbp), %rax
	movq	%rax, %rdx
	addq	$1, %rdx
	movq	%rdx, -176(%rbp)
Ltmp344:
	.loc	30 1736 19 is_stmt 1
	movl	-516(%rbp), %edx
	shrl	$6, %edx
	.loc	30 1736 18 is_stmt 0
	andl	$31, %edx
	.loc	30 1736 13
	orb	$-64, %dl
	movb	%dl, (%rcx)
	.loc	30 1737 19 is_stmt 1
	movl	-516(%rbp), %ecx
	.loc	30 1737 18 is_stmt 0
	andl	$63, %ecx
	.loc	30 1737 13
	orb	$-128, %cl
	movb	%cl, 1(%rax)
Ltmp345:
	.loc	30 1738 9 is_stmt 1
	jmp	LBB66_7
LBB66_10:
	.loc	30 1732 14
	movq	-496(%rbp), %rax
	movq	%rax, -168(%rbp)
Ltmp346:
	.loc	30 1733 18
	movl	-516(%rbp), %ecx
	.loc	30 1733 13 is_stmt 0
	movb	%cl, (%rax)
Ltmp347:
	.loc	30 1734 9 is_stmt 1
	jmp	LBB66_7
Ltmp348:
Lfunc_end66:
	.cfi_endproc
	.p2align	2, 0x90
	.data_region jt32
.set L66_0_set_2, LBB66_2-LJTI66_0
.set L66_0_set_3, LBB66_3-LJTI66_0
.set L66_0_set_4, LBB66_4-LJTI66_0
.set L66_0_set_5, LBB66_5-LJTI66_0
LJTI66_0:
	.long	L66_0_set_2
	.long	L66_0_set_3
	.long	L66_0_set_4
	.long	L66_0_set_5
	.end_data_region

	.p2align	4, 0x90
__ZN4core4char7methods8len_utf817h82d5d2258bddc75aE:
Lfunc_begin67:
	.loc	30 1701 0
	.cfi_startproc
	pushq	%rbp
	.cfi_def_cfa_offset 16
	.cfi_offset %rbp, -16
	movq	%rsp, %rbp
	.cfi_def_cfa_register %rbp
	subq	$24, %rsp
	movl	%edi, -20(%rbp)
	movl	%edi, -4(%rbp)
Ltmp349:
	.loc	30 1702 8 prologue_end
	cmpl	$128, %edi
	jb	LBB67_2
	.loc	30 0 8 is_stmt 0
	movl	-20(%rbp), %eax
	.loc	30 1704 15 is_stmt 1
	cmpl	$2048, %eax
	jb	LBB67_5
	jmp	LBB67_4
LBB67_2:
	.loc	30 1703 9
	movq	$1, -16(%rbp)
LBB67_3:
	.loc	30 1711 2
	movq	-16(%rbp), %rax
	addq	$24, %rsp
	popq	%rbp
	retq
LBB67_4:
	.loc	30 0 2 is_stmt 0
	movl	-20(%rbp), %eax
	.loc	30 1706 15 is_stmt 1
	cmpl	$65536, %eax
	jb	LBB67_8
	jmp	LBB67_7
LBB67_5:
	.loc	30 1705 9
	movq	$2, -16(%rbp)
LBB67_6:
	.loc	30 1702 5
	jmp	LBB67_3
LBB67_7:
	.loc	30 1709 9
	movq	$4, -16(%rbp)
	.loc	30 1706 12
	jmp	LBB67_9
LBB67_8:
	.loc	30 1707 9
	movq	$3, -16(%rbp)
LBB67_9:
	.loc	30 1704 12
	jmp	LBB67_6
Ltmp350:
Lfunc_end67:
	.cfi_endproc

	.p2align	4, 0x90
__ZN4core4hint21unreachable_unchecked17h905cd1085675740cE:
Lfunc_begin68:
	.loc	12 100 0
	.cfi_startproc
	pushq	%rbp
	.cfi_def_cfa_offset 16
	.cfi_offset %rbp, -16
	movq	%rsp, %rbp
	.cfi_def_cfa_register %rbp
Ltmp351:
	.loc	12 104 9 prologue_end
	ud2
Ltmp352:
Lfunc_end68:
	.cfi_endproc

	.section	__TEXT,__literal8,8byte_literals
	.p2align	3
LCPI69_0:
	.quad	0x41cdcd6500000000
	.section	__TEXT,__literal16,16byte_literals
	.p2align	4
LCPI69_1:
	.long	1127219200
	.long	1160773632
	.long	0
	.long	0
LCPI69_2:
	.quad	0x4330000000000000
	.quad	0x4530000000000000
	.section	__TEXT,__text,regular,pure_instructions
	.p2align	4, 0x90
__ZN4core4time8Duration11as_secs_f6417hf24d3deb8ca119c8E:
Lfunc_begin69:
	.file	31 "/rustc/2c8cc343237b8f7d5a3c3703e3a87f2eb2c54a74/library/core/src" "time.rs"
	.loc	31 685 0
	.cfi_startproc
	pushq	%rbp
	.cfi_def_cfa_offset 16
	.cfi_offset %rbp, -16
	movq	%rsp, %rbp
	.cfi_def_cfa_register %rbp
	pushq	%rax
	movq	%rdi, -8(%rbp)
Ltmp353:
	.loc	31 686 9 prologue_end
	movq	(%rdi), %xmm0
	movaps	LCPI69_1(%rip), %xmm1
	punpckldq	%xmm1, %xmm0
	movapd	LCPI69_2(%rip), %xmm1
	subpd	%xmm1, %xmm0
	movaps	%xmm0, %xmm1
	unpckhpd	%xmm0, %xmm0
	addsd	%xmm1, %xmm0
	.loc	31 686 31 is_stmt 0
	movl	8(%rdi), %eax
	.loc	31 686 30
	cvtsi2sd	%rax, %xmm1
	movsd	LCPI69_0(%rip), %xmm2
	divsd	%xmm2, %xmm1
	.loc	31 686 9
	addsd	%xmm1, %xmm0
	.loc	31 687 6 is_stmt 1
	addq	$8, %rsp
	popq	%rbp
	retq
Ltmp354:
Lfunc_end69:
	.cfi_endproc

	.p2align	4, 0x90
__ZN4core5alloc6layout6Layout5array5inner17h7a8ce0906b6bc105E:
Lfunc_begin70:
	.file	32 "/rustc/2c8cc343237b8f7d5a3c3703e3a87f2eb2c54a74/library/core/src/alloc" "layout.rs"
	.loc	32 441 0
	.cfi_startproc
	pushq	%rbp
	.cfi_def_cfa_offset 16
	.cfi_offset %rbp, -16
	movq	%rsp, %rbp
	.cfi_def_cfa_register %rbp
	subq	$176, %rsp
	movq	%rdi, -168(%rbp)
	movq	%rsi, -160(%rbp)
	movq	%rdx, -152(%rbp)
	movq	%rdi, -88(%rbp)
	movq	%rsi, -80(%rbp)
	movq	%rdx, -72(%rbp)
Ltmp355:
	.loc	32 452 16 prologue_end
	cmpq	$0, %rdi
	jne	LBB70_2
	movb	$0, -121(%rbp)
	jmp	LBB70_5
LBB70_2:
	.loc	32 0 16 is_stmt 0
	movq	-168(%rbp), %rax
	movq	-160(%rbp), %rcx
	.loc	32 452 68
	movq	%rcx, -64(%rbp)
Ltmp356:
	.loc	32 93 32 is_stmt 1
	movq	%rcx, -56(%rbp)
Ltmp357:
	.file	33 "/rustc/2c8cc343237b8f7d5a3c3703e3a87f2eb2c54a74/library/core/src/ptr" "alignment.rs"
	.loc	33 97 9
	movq	%rcx, -104(%rbp)
	movq	-104(%rbp), %rdx
Ltmp358:
	.loc	32 93 31
	subq	$1, %rdx
	.loc	32 93 9 is_stmt 0
	movabsq	$9223372036854775807, %rcx
	subq	%rdx, %rcx
	movq	%rcx, -176(%rbp)
Ltmp359:
	.loc	32 452 41 is_stmt 1
	cmpq	$0, %rax
	sete	%al
	testb	$1, %al
	jne	LBB70_4
	.loc	32 0 41 is_stmt 0
	movq	-168(%rbp), %rcx
	movq	-176(%rbp), %rax
	.loc	32 452 41
	xorl	%edx, %edx
	divq	%rcx
	movq	%rax, %rcx
	movq	-152(%rbp), %rax
	.loc	32 452 37
	cmpq	%rcx, %rax
	seta	%al
	.loc	32 452 16
	andb	$1, %al
	movb	%al, -121(%rbp)
	jmp	LBB70_5
LBB70_4:
	.loc	32 452 41
	leaq	_str.0(%rip), %rdi
	leaq	l___unnamed_20(%rip), %rdx
	movl	$25, %esi
	callq	__ZN4core9panicking5panic17hc1bc45270cf64b03E
LBB70_5:
	.loc	32 452 16
	testb	$1, -121(%rbp)
	jne	LBB70_7
	.loc	32 0 16
	movq	-160(%rbp), %rax
	movq	-152(%rbp), %rdx
	movq	-168(%rbp), %rcx
	.loc	32 456 30 is_stmt 1
	imulq	%rdx, %rcx
	movq	%rcx, -48(%rbp)
Ltmp360:
	.loc	32 461 59
	movq	%rcx, -40(%rbp)
	.loc	32 461 71 is_stmt 0
	movq	%rax, -32(%rbp)
Ltmp361:
	.loc	33 97 9 is_stmt 1
	movq	%rax, -96(%rbp)
	movq	-96(%rbp), %rax
	movq	%rax, -24(%rbp)
Ltmp362:
	.loc	32 120 65
	movq	%rax, -16(%rbp)
Ltmp363:
	.loc	33 89 18
	movq	%rax, -8(%rbp)
	movq	-8(%rbp), %rax
Ltmp364:
	.loc	32 120 18
	movq	%rcx, -120(%rbp)
	movq	%rax, -112(%rbp)
Ltmp365:
	.loc	32 461 22
	movq	-120(%rbp), %rcx
	movq	-112(%rbp), %rax
	movq	%rcx, -144(%rbp)
	movq	%rax, -136(%rbp)
Ltmp366:
	.loc	32 462 10
	jmp	LBB70_8
LBB70_7:
	.loc	32 453 24
	movq	$0, -136(%rbp)
LBB70_8:
	.loc	32 462 10
	movq	-144(%rbp), %rax
	movq	-136(%rbp), %rdx
	addq	$176, %rsp
	popq	%rbp
	retq
Ltmp367:
Lfunc_end70:
	.cfi_endproc

	.globl	__ZN4core5array85_$LT$impl$u20$core..ops..index..Index$LT$I$GT$$u20$for$u20$$u5b$T$u3b$$u20$N$u5d$$GT$5index17h244540b89c77c1b9E
	.p2align	4, 0x90
__ZN4core5array85_$LT$impl$u20$core..ops..index..Index$LT$I$GT$$u20$for$u20$$u5b$T$u3b$$u20$N$u5d$$GT$5index17h244540b89c77c1b9E:
Lfunc_begin71:
	.file	34 "/rustc/2c8cc343237b8f7d5a3c3703e3a87f2eb2c54a74/library/core/src/array" "mod.rs"
	.loc	34 357 0
	.cfi_startproc
	pushq	%rbp
	.cfi_def_cfa_offset 16
	.cfi_offset %rbp, -16
	movq	%rsp, %rbp
	.cfi_def_cfa_register %rbp
	subq	$32, %rsp
	movq	%rcx, %r8
	movq	%rdx, %rcx
	movq	%rsi, %rdx
	movq	%rdi, -24(%rbp)
	movq	%rdx, -16(%rbp)
	movq	%rcx, -8(%rbp)
	movl	$1024, %esi
Ltmp368:
	.loc	34 358 9 prologue_end
	callq	__ZN4core5slice5index74_$LT$impl$u20$core..ops..index..Index$LT$I$GT$$u20$for$u20$$u5b$T$u5d$$GT$5index17hb495e10b68a83b65E
	.loc	34 359 6
	addq	$32, %rsp
	popq	%rbp
	retq
Ltmp369:
Lfunc_end71:
	.cfi_endproc

	.globl	__ZN4core5slice4iter13Iter$LT$T$GT$3new17h2c6db06c608920e6E
	.p2align	4, 0x90
__ZN4core5slice4iter13Iter$LT$T$GT$3new17h2c6db06c608920e6E:
Lfunc_begin72:
	.file	35 "/rustc/2c8cc343237b8f7d5a3c3703e3a87f2eb2c54a74/library/core/src/slice" "iter.rs"
	.loc	35 82 0
	.cfi_startproc
	pushq	%rbp
	.cfi_def_cfa_offset 16
	.cfi_offset %rbp, -16
	movq	%rsp, %rbp
	.cfi_def_cfa_register %rbp
	subq	$280, %rsp
	movq	%rdi, -280(%rbp)
	movq	%rsi, -272(%rbp)
	movq	%rdi, -208(%rbp)
	movq	%rsi, -200(%rbp)
Ltmp370:
	.loc	35 83 19 prologue_end
	movq	%rdi, -184(%rbp)
	movq	%rsi, -176(%rbp)
Ltmp371:
	.loc	21 477 9
	movq	%rdi, -168(%rbp)
Ltmp372:
	.loc	35 86 21
	movq	%rdi, -160(%rbp)
Ltmp373:
	.loc	2 53 36
	movq	%rdi, -232(%rbp)
	.loc	2 53 18 is_stmt 0
	movq	-232(%rbp), %rax
	movq	%rax, -152(%rbp)
Ltmp374:
	.loc	2 39 13 is_stmt 1
	movq	%rax, -144(%rbp)
Ltmp375:
	.loc	2 209 33
	movq	%rax, -136(%rbp)
	.loc	2 209 18 is_stmt 0
	movq	%rax, -128(%rbp)
Ltmp376:
	.loc	35 89 20 is_stmt 1
	xorl	%eax, %eax
	testb	$1, %al
	jne	LBB72_2
	.loc	35 0 20 is_stmt 0
	movq	-272(%rbp), %rcx
	movq	-280(%rbp), %rax
	.loc	35 89 76
	movq	%rax, -40(%rbp)
	.loc	35 89 84
	movq	%rcx, -32(%rbp)
Ltmp377:
	.loc	2 932 18 is_stmt 1
	movq	%rax, -24(%rbp)
	.loc	2 932 30 is_stmt 0
	movq	%rcx, -16(%rbp)
Ltmp378:
	.loc	2 473 18 is_stmt 1
	addq	%rcx, %rax
	movq	%rax, -248(%rbp)
Ltmp379:
	.loc	35 89 17
	jmp	LBB72_3
LBB72_2:
	.loc	35 0 17 is_stmt 0
	movq	-272(%rbp), %rcx
	movq	-280(%rbp), %rax
	.loc	35 89 32
	movq	%rax, -120(%rbp)
	.loc	35 89 54
	movq	%rcx, -112(%rbp)
Ltmp380:
	.loc	2 1118 9 is_stmt 1
	movq	%rax, -104(%rbp)
Ltmp381:
	.loc	2 61 9
	movq	%rax, -96(%rbp)
Ltmp382:
	.loc	2 1118 40
	movq	%rcx, -88(%rbp)
Ltmp383:
	.loc	2 1100 9
	movq	%rax, -80(%rbp)
	.loc	2 1100 30 is_stmt 0
	movq	%rcx, -72(%rbp)
Ltmp384:
	.loc	2 555 18 is_stmt 1
	addq	%rcx, %rax
	movq	%rax, -64(%rbp)
	movq	-64(%rbp), %rax
	movq	%rax, -56(%rbp)
Ltmp385:
	.loc	2 100 29
	movq	%rax, -48(%rbp)
Ltmp386:
	.loc	4 118 36
	movq	%rax, -216(%rbp)
	.loc	4 118 14 is_stmt 0
	movq	-216(%rbp), %rax
	movq	%rax, -224(%rbp)
	movq	-224(%rbp), %rax
	movq	%rax, -248(%rbp)
Ltmp387:
LBB72_3:
	.loc	4 0 14
	movq	-280(%rbp), %rax
Ltmp388:
	.loc	35 91 48 is_stmt 1
	movq	%rax, -8(%rbp)
Ltmp389:
	.loc	6 201 13
	movq	%rax, -240(%rbp)
Ltmp390:
	.loc	35 91 64
	movq	-248(%rbp), %rax
	.loc	35 91 13 is_stmt 0
	movq	-240(%rbp), %rcx
	movq	%rcx, -256(%rbp)
	movq	%rax, -264(%rbp)
Ltmp391:
	.loc	35 93 6 is_stmt 1
	movq	-264(%rbp), %rax
	movq	-256(%rbp), %rdx
	addq	$280, %rsp
	popq	%rbp
	retq
Ltmp392:
Lfunc_end72:
	.cfi_endproc

	.globl	__ZN4core5slice4iter13Iter$LT$T$GT$8as_slice17ha056f3e03866ad64E
	.p2align	4, 0x90
__ZN4core5slice4iter13Iter$LT$T$GT$8as_slice17ha056f3e03866ad64E:
Lfunc_begin73:
	.loc	35 122 0
	.cfi_startproc
	pushq	%rbp
	.cfi_def_cfa_offset 16
	.cfi_offset %rbp, -16
	movq	%rsp, %rbp
	.cfi_def_cfa_register %rbp
	subq	$224, %rsp
	movq	%rdi, -224(%rbp)
	movq	%rdi, -160(%rbp)
Ltmp393:
	.loc	35 123 9 prologue_end
	movq	%rdi, -152(%rbp)
Ltmp394:
	.file	36 "/rustc/2c8cc343237b8f7d5a3c3703e3a87f2eb2c54a74/library/core/src/slice/iter" "macros.rs"
	.loc	36 68 41
	movq	8(%rdi), %rax
	movq	%rax, -216(%rbp)
	movq	%rax, -144(%rbp)
	movq	%rax, -136(%rbp)
	.loc	36 16 21
	movq	8(%rdi), %rax
	movq	%rax, -208(%rbp)
	movq	%rax, -128(%rbp)
Ltmp395:
	.loc	36 17 12
	xorl	%eax, %eax
	testb	$1, %al
	jne	LBB73_2
	.loc	36 0 12 is_stmt 0
	movq	-208(%rbp), %rsi
	movq	-224(%rbp), %rax
	.loc	36 25 22 is_stmt 1
	movq	(%rax), %rdi
	.loc	36 25 40 is_stmt 0
	movq	%rsi, -48(%rbp)
	.loc	36 25 22
	callq	__ZN4core3ptr9const_ptr33_$LT$impl$u20$$BP$const$u20$T$GT$7sub_ptr17h4570e3dea0525e5bE
	movq	%rax, -200(%rbp)
	.loc	36 17 9 is_stmt 1
	jmp	LBB73_3
LBB73_2:
	.loc	36 0 9 is_stmt 0
	movq	-208(%rbp), %rcx
	movq	-224(%rbp), %rax
	.loc	36 20 13 is_stmt 1
	movq	(%rax), %rax
	movq	%rax, -120(%rbp)
Ltmp396:
	.loc	2 209 33
	movq	%rax, -112(%rbp)
	.loc	2 209 18 is_stmt 0
	movq	%rax, -104(%rbp)
	movq	-104(%rbp), %rax
	movq	%rax, -96(%rbp)
Ltmp397:
	.loc	36 20 43 is_stmt 1
	movq	%rcx, -88(%rbp)
Ltmp398:
	.loc	6 326 9
	movq	%rcx, -80(%rbp)
Ltmp399:
	.loc	5 215 33
	movq	%rcx, -72(%rbp)
	.loc	5 215 18 is_stmt 0
	movq	%rcx, -64(%rbp)
	movq	-64(%rbp), %rcx
	movq	%rcx, -56(%rbp)
Ltmp400:
	.loc	26 1203 13 is_stmt 1
	subq	%rcx, %rax
	movq	%rax, -200(%rbp)
Ltmp401:
LBB73_3:
	.loc	26 0 13 is_stmt 0
	movq	-216(%rbp), %rcx
Ltmp402:
	.loc	20 100 37 is_stmt 1
	movq	%rcx, -40(%rbp)
	.loc	20 100 43 is_stmt 0
	movq	-200(%rbp), %rax
	movq	%rax, -32(%rbp)
Ltmp403:
	.loc	3 734 20 is_stmt 1
	movq	%rcx, -24(%rbp)
Ltmp404:
	.loc	2 61 9
	movq	%rcx, -16(%rbp)
Ltmp405:
	.loc	3 734 33
	movq	%rax, -8(%rbp)
Ltmp406:
	.loc	4 118 36
	movq	%rcx, -176(%rbp)
	movq	%rax, -168(%rbp)
	.loc	4 118 14 is_stmt 0
	movq	-176(%rbp), %rcx
	movq	-168(%rbp), %rax
	movq	%rcx, -192(%rbp)
	movq	%rax, -184(%rbp)
	movq	-192(%rbp), %rax
	movq	-184(%rbp), %rdx
Ltmp407:
	.loc	35 124 6 is_stmt 1
	addq	$224, %rsp
	popq	%rbp
	retq
Ltmp408:
Lfunc_end73:
	.cfi_endproc

	.globl	__ZN4core5slice5index74_$LT$impl$u20$core..ops..index..Index$LT$I$GT$$u20$for$u20$$u5b$T$u5d$$GT$5index17hb495e10b68a83b65E
	.p2align	4, 0x90
__ZN4core5slice5index74_$LT$impl$u20$core..ops..index..Index$LT$I$GT$$u20$for$u20$$u5b$T$u5d$$GT$5index17hb495e10b68a83b65E:
Lfunc_begin74:
	.loc	1 17 0
	.cfi_startproc
	pushq	%rbp
	.cfi_def_cfa_offset 16
	.cfi_offset %rbp, -16
	movq	%rsp, %rbp
	.cfi_def_cfa_register %rbp
	subq	$48, %rsp
	movq	%rcx, -48(%rbp)
	movq	%rdx, -40(%rbp)
	movq	%rsi, %rcx
	movq	-48(%rbp), %rsi
	movq	%rdi, %rdx
	movq	-40(%rbp), %rdi
	movq	%rdx, -32(%rbp)
	movq	%rcx, -24(%rbp)
	movq	%rdi, -16(%rbp)
	movq	%rsi, -8(%rbp)
Ltmp409:
	.loc	1 18 9 prologue_end
	callq	__ZN106_$LT$core..ops..range..Range$LT$usize$GT$$u20$as$u20$core..slice..index..SliceIndex$LT$$u5b$T$u5d$$GT$$GT$5index17hac88c3ea34dc788dE
	.loc	1 19 6
	addq	$48, %rsp
	popq	%rbp
	retq
Ltmp410:
Lfunc_end74:
	.cfi_endproc

	.globl	__ZN4core6option15Option$LT$T$GT$6map_or17h28601278e606f677E
	.p2align	4, 0x90
__ZN4core6option15Option$LT$T$GT$6map_or17h28601278e606f677E:
Lfunc_begin75:
	.file	37 "/rustc/2c8cc343237b8f7d5a3c3703e3a87f2eb2c54a74/library/core/src" "option.rs"
	.loc	37 1026 0
	.cfi_startproc
	.cfi_personality 155, _rust_eh_personality
	.cfi_lsda 16, Lexception6
	pushq	%rbp
	.cfi_def_cfa_offset 16
	.cfi_offset %rbp, -16
	movq	%rsp, %rbp
	.cfi_def_cfa_register %rbp
	subq	$96, %rsp
	movq	%rsi, -80(%rbp)
	movq	%rdi, -72(%rbp)
	movq	%rsi, -40(%rbp)
Ltmp414:
	.loc	37 1032 15 prologue_end
	movb	$1, -41(%rbp)
	movb	$1, -42(%rbp)
	movq	-72(%rbp), %rdx
	movl	$1, %eax
	xorl	%ecx, %ecx
	cmpq	$0, %rdx
	cmoveq	%rcx, %rax
	.loc	37 1032 9 is_stmt 0
	cmpq	$0, %rax
	jne	LBB75_2
	.loc	37 0 9
	movq	-80(%rbp), %rax
	.loc	37 1034 21 is_stmt 1
	movb	$0, -41(%rbp)
	movq	%rax, -64(%rbp)
	jmp	LBB75_6
LBB75_2:
	.loc	37 1033 18
	movq	-72(%rbp), %rax
	movq	%rax, -24(%rbp)
Ltmp415:
	.loc	37 1033 24 is_stmt 0
	movb	$0, -42(%rbp)
	movq	%rax, -56(%rbp)
	movq	-56(%rbp), %rdi
Ltmp411:
	callq	__ZN15core_foundation14filedescriptor16CFFileDescriptor3new28_$u7b$$u7b$closure$u7d$$u7d$17h4b85ca105ecabb4bE
Ltmp412:
	movq	%rax, -88(%rbp)
	jmp	LBB75_5
Ltmp416:
LBB75_3:
	.loc	37 1036 5 is_stmt 1
	testb	$1, -41(%rbp)
	jne	LBB75_10
	jmp	LBB75_9
LBB75_4:
Ltmp413:
	.loc	37 0 5 is_stmt 0
	movq	%rax, %rcx
	movl	%edx, %eax
	movq	%rcx, -16(%rbp)
	movl	%eax, -8(%rbp)
	jmp	LBB75_3
LBB75_5:
	movq	-88(%rbp), %rax
Ltmp417:
	.loc	37 1033 24 is_stmt 1
	movq	%rax, -64(%rbp)
Ltmp418:
LBB75_6:
	.loc	37 1036 5
	testb	$1, -42(%rbp)
	jne	LBB75_8
LBB75_7:
	testb	$1, -41(%rbp)
	jne	LBB75_12
	jmp	LBB75_11
LBB75_8:
	jmp	LBB75_7
LBB75_9:
	.loc	37 1026 5
	movq	-16(%rbp), %rdi
	callq	__Unwind_Resume
LBB75_10:
	.loc	37 1036 5
	jmp	LBB75_9
LBB75_11:
	.loc	37 1036 6 is_stmt 0
	movq	-64(%rbp), %rax
	addq	$96, %rsp
	popq	%rbp
	retq
LBB75_12:
	.loc	37 1036 5
	jmp	LBB75_11
Ltmp419:
Lfunc_end75:
	.cfi_endproc
	.section	__TEXT,__gcc_except_tab
	.p2align	2
GCC_except_table75:
Lexception6:
	.byte	255
	.byte	255
	.byte	1
	.uleb128 Lcst_end6-Lcst_begin6
Lcst_begin6:
	.uleb128 Ltmp411-Lfunc_begin75
	.uleb128 Ltmp412-Ltmp411
	.uleb128 Ltmp413-Lfunc_begin75
	.byte	0
	.uleb128 Ltmp412-Lfunc_begin75
	.uleb128 Lfunc_end75-Ltmp412
	.byte	0
	.byte	0
Lcst_end6:
	.p2align	2

	.section	__TEXT,__text,regular,pure_instructions
	.globl	__ZN4core6result19Result$LT$T$C$E$GT$16unwrap_unchecked17h299a5baaedc31e99E
	.p2align	4, 0x90
__ZN4core6result19Result$LT$T$C$E$GT$16unwrap_unchecked17h299a5baaedc31e99E:
Lfunc_begin76:
	.file	38 "/rustc/2c8cc343237b8f7d5a3c3703e3a87f2eb2c54a74/library/core/src" "result.rs"
	.loc	38 1530 0 is_stmt 1
	.cfi_startproc
	.cfi_personality 155, _rust_eh_personality
	.cfi_lsda 16, Lexception7
	pushq	%rbp
	.cfi_def_cfa_offset 16
	.cfi_offset %rbp, -16
	movq	%rsp, %rbp
	.cfi_def_cfa_register %rbp
	subq	$64, %rsp
	movq	%rdi, -48(%rbp)
	movq	%rsi, -40(%rbp)
Ltmp423:
	.loc	38 1532 15 prologue_end
	xorl	%eax, %eax
	movl	$1, %ecx
	cmpq	$0, -40(%rbp)
	cmoveq	%rcx, %rax
	.loc	38 1532 9 is_stmt 0
	cmpq	$0, %rax
	jne	LBB76_2
	.loc	38 1533 16 is_stmt 1
	movq	-48(%rbp), %rcx
	movq	%rcx, -64(%rbp)
	movq	-40(%rbp), %rax
	movq	%rax, -56(%rbp)
	movq	%rcx, -16(%rbp)
	movq	%rax, -8(%rbp)
	.loc	38 1537 5
	xorl	%eax, %eax
	movl	$1, %ecx
	cmpq	$0, -40(%rbp)
	cmoveq	%rcx, %rax
	cmpq	$0, %rax
	je	LBB76_10
	jmp	LBB76_11
LBB76_2:
Ltmp420:
	.loc	38 1535 32
	callq	__ZN4core4hint21unreachable_unchecked17h905cd1085675740cE
Ltmp421:
	jmp	LBB76_5
LBB76_3:
	.loc	38 1537 5
	xorl	%eax, %eax
	movl	$1, %ecx
	cmpq	$0, -40(%rbp)
	cmoveq	%rcx, %rax
	cmpq	$0, %rax
	je	LBB76_6
	jmp	LBB76_7
LBB76_4:
Ltmp422:
	.loc	38 0 5 is_stmt 0
	movq	%rax, %rcx
	movl	%edx, %eax
	movq	%rcx, -32(%rbp)
	movl	%eax, -24(%rbp)
	jmp	LBB76_3
LBB76_5:
	ud2
LBB76_6:
	.loc	38 1537 5
	movb	$1, %al
	testb	$1, %al
	jne	LBB76_9
	jmp	LBB76_8
LBB76_7:
	jmp	LBB76_8
LBB76_8:
	.loc	38 1530 5 is_stmt 1
	movq	-32(%rbp), %rdi
	callq	__Unwind_Resume
LBB76_9:
	.loc	38 1537 5
	jmp	LBB76_8
LBB76_10:
	.loc	38 0 5 is_stmt 0
	movq	-56(%rbp), %rdx
	movq	-64(%rbp), %rax
	.loc	38 1537 6
	addq	$64, %rsp
	popq	%rbp
	retq
LBB76_11:
	.loc	38 1537 5
	jmp	LBB76_10
Ltmp424:
Lfunc_end76:
	.cfi_endproc
	.section	__TEXT,__gcc_except_tab
	.p2align	2
GCC_except_table76:
Lexception7:
	.byte	255
	.byte	255
	.byte	1
	.uleb128 Lcst_end7-Lcst_begin7
Lcst_begin7:
	.uleb128 Ltmp420-Lfunc_begin76
	.uleb128 Ltmp421-Ltmp420
	.uleb128 Ltmp422-Lfunc_begin76
	.byte	0
	.uleb128 Ltmp421-Lfunc_begin76
	.uleb128 Lfunc_end76-Ltmp421
	.byte	0
	.byte	0
Lcst_end7:
	.p2align	2

	.section	__TEXT,__text,regular,pure_instructions
	.globl	__ZN4core6result19Result$LT$T$C$E$GT$6expect17h09c6e6e0299acd9bE
	.p2align	4, 0x90
__ZN4core6result19Result$LT$T$C$E$GT$6expect17h09c6e6e0299acd9bE:
Lfunc_begin77:
	.loc	38 1063 0 is_stmt 1
	.cfi_startproc
	.cfi_personality 155, _rust_eh_personality
	.cfi_lsda 16, Lexception8
	pushq	%rbp
	.cfi_def_cfa_offset 16
	.cfi_offset %rbp, -16
	movq	%rsp, %rbp
	.cfi_def_cfa_register %rbp
	subq	$80, %rsp
	movq	%rcx, -80(%rbp)
	movq	%rdx, -72(%rbp)
	movq	%rsi, -64(%rbp)
	movb	%dil, %al
	andb	$1, %al
	movb	%al, -49(%rbp)
	movq	%rsi, -32(%rbp)
	movq	%rdx, -24(%rbp)
Ltmp428:
	.loc	38 1067 15 prologue_end
	movb	-49(%rbp), %al
	andb	$1, %al
	movzbl	%al, %eax
	.loc	38 1067 9 is_stmt 0
	cmpq	$0, %rax
	jne	LBB77_2
	.loc	38 1071 6 is_stmt 1
	addq	$80, %rsp
	popq	%rbp
	retq
LBB77_2:
Ltmp425:
	.loc	38 0 6 is_stmt 0
	movq	-80(%rbp), %r8
	movq	-72(%rbp), %rsi
	movq	-64(%rbp), %rdi
Ltmp429:
	.loc	38 1069 23 is_stmt 1
	leaq	l___unnamed_4(%rip), %rcx
	leaq	-48(%rbp), %rdx
	callq	__ZN4core6result13unwrap_failed17h533573e6d3b6061cE
Ltmp426:
	jmp	LBB77_5
Ltmp430:
LBB77_3:
	.loc	38 1063 5
	movq	-16(%rbp), %rdi
	callq	__Unwind_Resume
Ltmp431:
LBB77_4:
Ltmp427:
	.loc	38 0 5 is_stmt 0
	movq	%rax, %rcx
	movl	%edx, %eax
	movq	%rcx, -16(%rbp)
	movl	%eax, -8(%rbp)
	jmp	LBB77_3
LBB77_5:
	ud2
Lfunc_end77:
	.cfi_endproc
	.section	__TEXT,__gcc_except_tab
	.p2align	2
GCC_except_table77:
Lexception8:
	.byte	255
	.byte	255
	.byte	1
	.uleb128 Lcst_end8-Lcst_begin8
Lcst_begin8:
	.uleb128 Ltmp425-Lfunc_begin77
	.uleb128 Ltmp426-Ltmp425
	.uleb128 Ltmp427-Lfunc_begin77
	.byte	0
	.uleb128 Ltmp426-Lfunc_begin77
	.uleb128 Lfunc_end77-Ltmp426
	.byte	0
	.byte	0
Lcst_end8:
	.p2align	2

	.section	__TEXT,__text,regular,pure_instructions
	.globl	__ZN4core6result19Result$LT$T$C$E$GT$7map_err17h5cf836d991c20951E
	.p2align	4, 0x90
__ZN4core6result19Result$LT$T$C$E$GT$7map_err17h5cf836d991c20951E:
Lfunc_begin78:
	.loc	38 857 0 is_stmt 1
	.cfi_startproc
	pushq	%rbp
	.cfi_def_cfa_offset 16
	.cfi_offset %rbp, -16
	movq	%rsp, %rbp
	.cfi_def_cfa_register %rbp
	subq	$80, %rsp
	movq	%rcx, -80(%rbp)
	movq	%rdi, -72(%rbp)
	movq	%rdi, -64(%rbp)
	movq	%rsi, -56(%rbp)
	movq	%rdx, -48(%rbp)
	movq	%rcx, -32(%rbp)
Ltmp432:
	.loc	38 858 15 prologue_end
	movb	$1, -33(%rbp)
	movq	-56(%rbp), %rdx
	xorl	%eax, %eax
	movl	$1, %ecx
	cmpq	$0, %rdx
	cmoveq	%rcx, %rax
	.loc	38 858 9 is_stmt 0
	cmpq	$0, %rax
	jne	LBB78_2
	.loc	38 0 9
	movq	-72(%rbp), %rax
	.loc	38 859 16 is_stmt 1
	movq	-56(%rbp), %rdx
	movq	-48(%rbp), %rcx
	movq	%rdx, -16(%rbp)
	movq	%rcx, -8(%rbp)
Ltmp433:
	.loc	38 859 22 is_stmt 0
	movq	%rdx, 8(%rax)
	movq	%rcx, 16(%rax)
	movq	$0, (%rax)
Ltmp434:
	.loc	38 859 26
	jmp	LBB78_3
LBB78_2:
	.loc	38 0 26
	movq	-80(%rbp), %rdi
Ltmp435:
	.loc	38 860 27 is_stmt 1
	movb	$0, -33(%rbp)
	callq	__ZN5alloc7raw_vec11finish_grow28_$u7b$$u7b$closure$u7d$$u7d$17hde4ff47f925364baE
	movq	%rax, %rcx
	movq	-72(%rbp), %rax
	.loc	38 860 23 is_stmt 0
	movq	%rcx, 8(%rax)
	movq	%rdx, 16(%rax)
	movq	$1, (%rax)
Ltmp436:
LBB78_3:
	.loc	38 862 5 is_stmt 1
	testb	$1, -33(%rbp)
	jne	LBB78_5
LBB78_4:
	.loc	38 0 5 is_stmt 0
	movq	-64(%rbp), %rax
	.loc	38 862 6
	addq	$80, %rsp
	popq	%rbp
	retq
LBB78_5:
	.loc	38 862 5
	jmp	LBB78_4
Ltmp437:
Lfunc_end78:
	.cfi_endproc

	.globl	__ZN4core6result19Result$LT$T$C$E$GT$7map_err17h8ecda7ecbf87ab6aE
	.p2align	4, 0x90
__ZN4core6result19Result$LT$T$C$E$GT$7map_err17h8ecda7ecbf87ab6aE:
Lfunc_begin79:
	.loc	38 857 0 is_stmt 1
	.cfi_startproc
	pushq	%rbp
	.cfi_def_cfa_offset 16
	.cfi_offset %rbp, -16
	movq	%rsp, %rbp
	.cfi_def_cfa_register %rbp
	subq	$80, %rsp
	movq	%rdi, -72(%rbp)
	movq	%rdi, -64(%rbp)
	movq	%rsi, -56(%rbp)
	movq	%rdx, -48(%rbp)
Ltmp438:
	.loc	38 858 15 prologue_end
	movb	$1, -33(%rbp)
	xorl	%eax, %eax
	movl	$1, %ecx
	cmpq	$0, -48(%rbp)
	cmoveq	%rcx, %rax
	.loc	38 858 9 is_stmt 0
	cmpq	$0, %rax
	jne	LBB79_2
	.loc	38 0 9
	movq	-72(%rbp), %rax
	.loc	38 859 16 is_stmt 1
	movq	-56(%rbp), %rdx
	movq	-48(%rbp), %rcx
	movq	%rdx, -16(%rbp)
	movq	%rcx, -8(%rbp)
Ltmp439:
	.loc	38 859 22 is_stmt 0
	movq	%rdx, 8(%rax)
	movq	%rcx, 16(%rax)
	movq	$0, (%rax)
Ltmp440:
	.loc	38 859 26
	jmp	LBB79_3
LBB79_2:
Ltmp441:
	.loc	38 860 27 is_stmt 1
	movb	$0, -33(%rbp)
	callq	__ZN5alloc7raw_vec11finish_grow28_$u7b$$u7b$closure$u7d$$u7d$17heb0b2c2244597123E
	movq	%rax, %rcx
	movq	-72(%rbp), %rax
	.loc	38 860 23 is_stmt 0
	movq	%rcx, 8(%rax)
	movq	%rdx, 16(%rax)
	movq	$1, (%rax)
Ltmp442:
LBB79_3:
	.loc	38 862 5 is_stmt 1
	testb	$1, -33(%rbp)
	jne	LBB79_5
LBB79_4:
	.loc	38 0 5 is_stmt 0
	movq	-64(%rbp), %rax
	.loc	38 862 6
	addq	$80, %rsp
	popq	%rbp
	retq
LBB79_5:
	.loc	38 862 5
	jmp	LBB79_4
Ltmp443:
Lfunc_end79:
	.cfi_endproc

	.globl	__ZN4core6result19Result$LT$T$C$E$GT$7map_err17heff9983211665083E
	.p2align	4, 0x90
__ZN4core6result19Result$LT$T$C$E$GT$7map_err17heff9983211665083E:
Lfunc_begin80:
	.loc	38 857 0 is_stmt 1
	.cfi_startproc
	pushq	%rbp
	.cfi_def_cfa_offset 16
	.cfi_offset %rbp, -16
	movq	%rsp, %rbp
	.cfi_def_cfa_register %rbp
	subq	$96, %rsp
	movq	%rdi, -88(%rbp)
	movq	%rsi, -80(%rbp)
Ltmp444:
	.loc	38 858 15 prologue_end
	movb	$1, -33(%rbp)
	movabsq	$-9223372036854775807, %rdx
	movl	$1, %eax
	xorl	%ecx, %ecx
	cmpq	%rdx, -80(%rbp)
	cmoveq	%rcx, %rax
	.loc	38 858 9 is_stmt 0
	cmpq	$0, %rax
	jne	LBB80_2
Ltmp445:
	.loc	38 859 22 is_stmt 1
	movabsq	$-9223372036854775807, %rax
	movq	%rax, -64(%rbp)
Ltmp446:
	.loc	38 859 26 is_stmt 0
	jmp	LBB80_3
LBB80_2:
	.loc	38 860 17 is_stmt 1
	movq	-88(%rbp), %rcx
	movq	-80(%rbp), %rax
	movq	%rcx, -16(%rbp)
	movq	%rax, -8(%rbp)
Ltmp447:
	.loc	38 860 27 is_stmt 0
	movb	$0, -33(%rbp)
	movq	%rcx, -56(%rbp)
	movq	%rax, -48(%rbp)
	movq	-56(%rbp), %rdi
	movq	-48(%rbp), %rsi
	callq	__ZN5alloc7raw_vec14handle_reserve28_$u7b$$u7b$closure$u7d$$u7d$17h58f0e805f3f71a71E
	.loc	38 860 23
	movq	%rax, -72(%rbp)
	movq	%rdx, -64(%rbp)
Ltmp448:
LBB80_3:
	.loc	38 862 5 is_stmt 1
	testb	$1, -33(%rbp)
	jne	LBB80_5
LBB80_4:
	.loc	38 862 6 is_stmt 0
	movq	-72(%rbp), %rax
	movq	-64(%rbp), %rdx
	addq	$96, %rsp
	popq	%rbp
	retq
LBB80_5:
	.loc	38 862 5
	jmp	LBB80_4
Ltmp449:
Lfunc_end80:
	.cfi_endproc

	.globl	__ZN4core9panicking13assert_failed17h9752aa3f91393e63E
	.p2align	4, 0x90
__ZN4core9panicking13assert_failed17h9752aa3f91393e63E:
Lfunc_begin81:
	.file	39 "/rustc/2c8cc343237b8f7d5a3c3703e3a87f2eb2c54a74/library/core/src" "panicking.rs"
	.loc	39 202 0 is_stmt 1
	.cfi_startproc
	pushq	%rbp
	.cfi_def_cfa_offset 16
	.cfi_offset %rbp, -16
	movq	%rsp, %rbp
	.cfi_def_cfa_register %rbp
	subq	$96, %rsp
	movq	%rcx, -80(%rbp)
Ltmp450:
	movq	%rdx, %rcx
	movq	-80(%rbp), %rdx
	movb	%dil, %al
	movq	%rsi, -72(%rbp)
	movq	%rcx, -64(%rbp)
	movb	%al, -1(%rbp)
Ltmp451:
	.loc	39 212 46 prologue_end
	movq	40(%rdx), %rcx
	movq	%rcx, -16(%rbp)
	movq	32(%rdx), %rcx
	movq	%rcx, -24(%rbp)
	movq	24(%rdx), %rcx
	movq	%rcx, -32(%rbp)
	movq	16(%rdx), %rcx
	movq	%rcx, -40(%rbp)
	movq	(%rdx), %rcx
	movq	8(%rdx), %rdx
	movq	%rdx, -48(%rbp)
	movq	%rcx, -56(%rbp)
	.loc	39 212 5 is_stmt 0
	movq	%rsp, %rcx
	movq	%r8, (%rcx)
	movzbl	%al, %edi
	leaq	l___unnamed_5(%rip), %r8
	leaq	-72(%rbp), %rsi
	leaq	-64(%rbp), %rcx
	leaq	-56(%rbp), %r9
	movq	%r8, %rdx
	callq	__ZN4core9panicking19assert_failed_inner17hccca5a268c0d7621E
Ltmp452:
Lfunc_end81:
	.cfi_endproc

	.globl	__ZN50_$LT$$RF$mut$u20$W$u20$as$u20$core..fmt..Write$GT$10write_char17h750323c0598773f6E
	.p2align	4, 0x90
__ZN50_$LT$$RF$mut$u20$W$u20$as$u20$core..fmt..Write$GT$10write_char17h750323c0598773f6E:
Lfunc_begin82:
	.loc	15 207 0 is_stmt 1
	.cfi_startproc
	pushq	%rbp
	.cfi_def_cfa_offset 16
	.cfi_offset %rbp, -16
	movq	%rsp, %rbp
	.cfi_def_cfa_register %rbp
	subq	$16, %rsp
	movq	%rdi, -16(%rbp)
	movl	%esi, -4(%rbp)
Ltmp453:
	.loc	15 208 9 prologue_end
	movq	(%rdi), %rdi
	callq	__ZN58_$LT$alloc..string..String$u20$as$u20$core..fmt..Write$GT$10write_char17h58278719592ce619E
	.loc	15 209 6
	andb	$1, %al
	movzbl	%al, %eax
	addq	$16, %rsp
	popq	%rbp
	retq
Ltmp454:
Lfunc_end82:
	.cfi_endproc

	.globl	__ZN50_$LT$$RF$mut$u20$W$u20$as$u20$core..fmt..Write$GT$9write_fmt17hb930581f7f09057eE
	.p2align	4, 0x90
__ZN50_$LT$$RF$mut$u20$W$u20$as$u20$core..fmt..Write$GT$9write_fmt17hb930581f7f09057eE:
Lfunc_begin83:
	.loc	15 211 0
	.cfi_startproc
	pushq	%rbp
	.cfi_def_cfa_offset 16
	.cfi_offset %rbp, -16
	movq	%rsp, %rbp
	.cfi_def_cfa_register %rbp
	subq	$64, %rsp
	movq	%rdi, -8(%rbp)
Ltmp455:
	.loc	15 212 9 prologue_end
	movq	(%rdi), %rax
	movq	%rax, -64(%rbp)
	.loc	15 212 28 is_stmt 0
	leaq	-56(%rbp), %rdi
	movl	$48, %edx
	callq	_memcpy
Ltmp456:
	.loc	15 0 28
	movq	-64(%rbp), %rdi
	.loc	15 212 9
	leaq	-56(%rbp), %rsi
	callq	__ZN4core3fmt5Write9write_fmt17hed6d1ba19fcb32efE
	.loc	15 213 6 is_stmt 1
	andb	$1, %al
	movzbl	%al, %eax
	addq	$64, %rsp
	popq	%rbp
	retq
Ltmp457:
Lfunc_end83:
	.cfi_endproc

	.globl	__ZN50_$LT$$RF$mut$u20$W$u20$as$u20$core..fmt..Write$GT$9write_str17h17050f5943b39231E
	.p2align	4, 0x90
__ZN50_$LT$$RF$mut$u20$W$u20$as$u20$core..fmt..Write$GT$9write_str17h17050f5943b39231E:
Lfunc_begin84:
	.loc	15 203 0
	.cfi_startproc
	pushq	%rbp
	.cfi_def_cfa_offset 16
	.cfi_offset %rbp, -16
	movq	%rsp, %rbp
	.cfi_def_cfa_register %rbp
	subq	$32, %rsp
	movq	%rdi, -24(%rbp)
	movq	%rsi, -16(%rbp)
	movq	%rdx, -8(%rbp)
Ltmp458:
	.loc	15 204 9 prologue_end
	movq	(%rdi), %rdi
	callq	__ZN58_$LT$alloc..string..String$u20$as$u20$core..fmt..Write$GT$9write_str17h36247a7458e13eccE
	.loc	15 205 6
	andb	$1, %al
	movzbl	%al, %eax
	addq	$32, %rsp
	popq	%rbp
	retq
Ltmp459:
Lfunc_end84:
	.cfi_endproc

	.globl	__ZN50_$LT$T$u20$as$u20$core..convert..Into$LT$U$GT$$GT$4into17hba30e3cf5030e1e5E
	.p2align	4, 0x90
__ZN50_$LT$T$u20$as$u20$core..convert..Into$LT$U$GT$$GT$4into17hba30e3cf5030e1e5E:
Lfunc_begin85:
	.file	40 "/rustc/2c8cc343237b8f7d5a3c3703e3a87f2eb2c54a74/library/core/src/convert" "mod.rs"
	.loc	40 725 0
	.cfi_startproc
	pushq	%rbp
	.cfi_def_cfa_offset 16
	.cfi_offset %rbp, -16
	movq	%rsp, %rbp
	.cfi_def_cfa_register %rbp
	subq	$16, %rsp
	movq	%rdi, -16(%rbp)
	movq	%rsi, -8(%rbp)
Ltmp460:
	.loc	40 726 9 prologue_end
	callq	__ZN122_$LT$alloc..collections..TryReserveError$u20$as$u20$core..convert..From$LT$alloc..collections..TryReserveErrorKind$GT$$GT$4from17h3ed35de41742339eE
	.loc	40 727 6
	addq	$16, %rsp
	popq	%rbp
	retq
Ltmp461:
Lfunc_end85:
	.cfi_endproc

	.globl	__ZN50_$LT$T$u20$as$u20$core..convert..Into$LT$U$GT$$GT$4into17hfeda1745c8b1ad4dE
	.p2align	4, 0x90
__ZN50_$LT$T$u20$as$u20$core..convert..Into$LT$U$GT$$GT$4into17hfeda1745c8b1ad4dE:
Lfunc_begin86:
	.loc	40 725 0
	.cfi_startproc
	pushq	%rbp
	.cfi_def_cfa_offset 16
	.cfi_offset %rbp, -16
	movq	%rsp, %rbp
	.cfi_def_cfa_register %rbp
	subq	$16, %rsp
	movq	%rdi, -8(%rbp)
Ltmp462:
	.loc	40 726 9 prologue_end
	callq	__ZN119_$LT$core..ptr..non_null..NonNull$LT$T$GT$$u20$as$u20$core..convert..From$LT$core..ptr..unique..Unique$LT$T$GT$$GT$$GT$4from17ha3c11efe09de7ec7E
	.loc	40 727 6
	addq	$16, %rsp
	popq	%rbp
	retq
Ltmp463:
Lfunc_end86:
	.cfi_endproc

	.p2align	4, 0x90
__ZN58_$LT$alloc..string..String$u20$as$u20$core..fmt..Write$GT$10write_char17h58278719592ce619E:
Lfunc_begin87:
	.loc	16 2879 0
	.cfi_startproc
	pushq	%rbp
	.cfi_def_cfa_offset 16
	.cfi_offset %rbp, -16
	movq	%rsp, %rbp
	.cfi_def_cfa_register %rbp
	subq	$32, %rsp
	movq	%rdi, -16(%rbp)
	movl	%esi, -4(%rbp)
Ltmp464:
	.loc	16 2880 9 prologue_end
	callq	__ZN5alloc6string6String4push17h0799d4bf86cabc9bE
	.loc	16 2881 9
	movb	$0, -17(%rbp)
	.loc	16 2882 6
	movb	-17(%rbp), %al
	andb	$1, %al
	movzbl	%al, %eax
	addq	$32, %rsp
	popq	%rbp
	retq
Ltmp465:
Lfunc_end87:
	.cfi_endproc

	.p2align	4, 0x90
__ZN58_$LT$alloc..string..String$u20$as$u20$core..fmt..Write$GT$9write_str17h36247a7458e13eccE:
Lfunc_begin88:
	.loc	16 2873 0
	.cfi_startproc
	pushq	%rbp
	.cfi_def_cfa_offset 16
	.cfi_offset %rbp, -16
	movq	%rsp, %rbp
	.cfi_def_cfa_register %rbp
	subq	$96, %rsp
	movq	%rdi, -80(%rbp)
	movq	%rsi, -72(%rbp)
	movq	%rdx, -64(%rbp)
Ltmp466:
	.loc	16 2874 9 prologue_end
	movq	%rdi, -56(%rbp)
	.loc	16 2874 23 is_stmt 0
	movq	%rsi, -48(%rbp)
	movq	%rdx, -40(%rbp)
Ltmp467:
	.loc	16 926 36 is_stmt 1
	movq	%rsi, -32(%rbp)
	movq	%rdx, -24(%rbp)
Ltmp468:
	.loc	28 327 18
	movq	%rsi, -16(%rbp)
	movq	%rdx, -8(%rbp)
	movq	-16(%rbp), %rsi
	movq	-8(%rbp), %rdx
Ltmp469:
	.loc	16 926 9
	callq	__ZN5alloc3vec16Vec$LT$T$C$A$GT$17extend_from_slice17h9d1ae5f867e01fcfE
Ltmp470:
	.loc	16 2875 9
	movb	$0, -81(%rbp)
	.loc	16 2876 6
	movb	-81(%rbp), %al
	andb	$1, %al
	movzbl	%al, %eax
	addq	$96, %rsp
	popq	%rbp
	retq
Ltmp471:
Lfunc_end88:
	.cfi_endproc

	.p2align	4, 0x90
__ZN5alloc3str83_$LT$impl$u20$core..borrow..Borrow$LT$str$GT$$u20$for$u20$alloc..string..String$GT$6borrow17h1d289481c987f932E:
Lfunc_begin89:
	.file	41 "/rustc/2c8cc343237b8f7d5a3c3703e3a87f2eb2c54a74/library/alloc/src" "str.rs"
	.loc	41 190 0
	.cfi_startproc
	pushq	%rbp
	.cfi_def_cfa_offset 16
	.cfi_offset %rbp, -16
	movq	%rsp, %rbp
	.cfi_def_cfa_register %rbp
	subq	$64, %rsp
	movq	%rdi, -56(%rbp)
Ltmp472:
	.loc	41 191 10 prologue_end
	movq	%rdi, -40(%rbp)
Ltmp473:
	.loc	16 2389 43
	callq	__ZN72_$LT$alloc..vec..Vec$LT$T$C$A$GT$$u20$as$u20$core..ops..deref..Deref$GT$5deref17h8d83a61ac2c71274E
	movq	%rax, -32(%rbp)
	movq	%rdx, -24(%rbp)
Ltmp474:
	.loc	29 173 14
	movq	%rax, -16(%rbp)
	movq	%rdx, -8(%rbp)
	movq	-16(%rbp), %rax
	movq	-8(%rbp), %rdx
Ltmp475:
	.loc	41 192 6
	addq	$64, %rsp
	popq	%rbp
	retq
Ltmp476:
Lfunc_end89:
	.cfi_endproc

	.globl	__ZN5alloc3vec16Vec$LT$T$C$A$GT$10as_mut_ptr17h70f1064c13c34813E
	.p2align	4, 0x90
__ZN5alloc3vec16Vec$LT$T$C$A$GT$10as_mut_ptr17h70f1064c13c34813E:
Lfunc_begin90:
	.loc	17 1277 0
	.cfi_startproc
	pushq	%rbp
	.cfi_def_cfa_offset 16
	.cfi_offset %rbp, -16
	movq	%rsp, %rbp
	.cfi_def_cfa_register %rbp
	subq	$88, %rsp
	movq	%rdi, -80(%rbp)
Ltmp477:
	.loc	17 1280 19 prologue_end
	movq	%rdi, -72(%rbp)
Ltmp478:
	.file	42 "/rustc/2c8cc343237b8f7d5a3c3703e3a87f2eb2c54a74/library/alloc/src" "raw_vec.rs"
	.loc	42 224 9
	movq	8(%rdi), %rax
	movq	%rax, -64(%rbp)
Ltmp479:
	.loc	7 104 9
	movq	%rax, -56(%rbp)
Ltmp480:
	.loc	6 326 9
	movq	%rax, -48(%rbp)
Ltmp481:
	.loc	17 1282 21
	movq	%rax, -40(%rbp)
Ltmp482:
	.loc	5 52 36
	movq	%rax, -88(%rbp)
	.loc	5 52 18 is_stmt 0
	movq	-88(%rbp), %rcx
	movq	%rcx, -32(%rbp)
Ltmp483:
	.loc	5 38 13 is_stmt 1
	movq	%rcx, -24(%rbp)
Ltmp484:
	.loc	5 215 33
	movq	%rcx, -16(%rbp)
	.loc	5 215 18 is_stmt 0
	movq	%rcx, -8(%rbp)
Ltmp485:
	.loc	17 1285 6 is_stmt 1
	addq	$88, %rsp
	popq	%rbp
	retq
Ltmp486:
Lfunc_end90:
	.cfi_endproc

	.globl	__ZN5alloc3vec16Vec$LT$T$C$A$GT$15append_elements17h3cc48b5d4832a227E
	.p2align	4, 0x90
__ZN5alloc3vec16Vec$LT$T$C$A$GT$15append_elements17h3cc48b5d4832a227E:
Lfunc_begin91:
	.loc	17 1950 0
	.cfi_startproc
	pushq	%rbp
	.cfi_def_cfa_offset 16
	.cfi_offset %rbp, -16
	movq	%rsp, %rbp
	.cfi_def_cfa_register %rbp
	subq	$224, %rsp
	movq	%rdx, -224(%rbp)
	movq	%rsi, %rax
	movq	-224(%rbp), %rsi
	movq	%rdi, -200(%rbp)
	movq	%rax, -216(%rbp)
	movq	%rsi, -208(%rbp)
	movq	%rdi, -184(%rbp)
	movq	%rax, -176(%rbp)
	movq	%rsi, -168(%rbp)
Ltmp487:
	.loc	17 1951 30 prologue_end
	movq	%rsi, -160(%rbp)
Ltmp488:
	.loc	17 1952 9
	callq	__ZN5alloc3vec16Vec$LT$T$C$A$GT$7reserve17h36f01ba44f2b0db0E
	movq	-216(%rbp), %rsi
	movq	-208(%rbp), %rdx
	movq	-200(%rbp), %rdi
	.loc	17 1953 19
	movq	%rdi, -152(%rbp)
Ltmp489:
	.loc	17 2062 9
	movq	16(%rdi), %rcx
	movq	%rcx, -144(%rbp)
Ltmp490:
	.loc	17 1954 43
	movq	%rsi, -136(%rbp)
	.loc	17 1954 62 is_stmt 0
	movq	%rdi, -128(%rbp)
Ltmp491:
	.loc	17 1280 19 is_stmt 1
	movq	%rdi, -120(%rbp)
Ltmp492:
	.loc	42 224 9
	movq	8(%rdi), %rax
	movq	%rax, -112(%rbp)
Ltmp493:
	.loc	7 104 9
	movq	%rax, -104(%rbp)
Ltmp494:
	.loc	6 326 9
	movq	%rax, -96(%rbp)
Ltmp495:
	.loc	17 1282 21
	movq	%rax, -88(%rbp)
Ltmp496:
	.loc	5 52 36
	movq	%rax, -192(%rbp)
	.loc	5 52 18 is_stmt 0
	movq	-192(%rbp), %rdi
	movq	%rdi, -80(%rbp)
Ltmp497:
	.loc	5 38 13 is_stmt 1
	movq	%rdi, -72(%rbp)
Ltmp498:
	.loc	5 215 33
	movq	%rdi, -64(%rbp)
	.loc	5 215 18 is_stmt 0
	movq	%rdi, -56(%rbp)
Ltmp499:
	.loc	17 1954 84 is_stmt 1
	movq	%rcx, -48(%rbp)
Ltmp500:
	.loc	5 1034 18
	movq	%rax, -40(%rbp)
	.loc	5 1034 30 is_stmt 0
	movq	%rcx, -32(%rbp)
Ltmp501:
	.loc	5 487 18 is_stmt 1
	addq	%rcx, %rax
	movq	%rax, -24(%rbp)
	movq	-24(%rbp), %rdi
	movq	%rdi, -16(%rbp)
Ltmp502:
	.loc	17 1954 90
	movq	%rdx, -8(%rbp)
Ltmp503:
	.file	43 "/rustc/2c8cc343237b8f7d5a3c3703e3a87f2eb2c54a74/library/core/src" "intrinsics.rs"
	.loc	43 2372 9
	shlq	$0, %rdx
	callq	_memcpy
	movq	-208(%rbp), %rdx
	movq	-200(%rbp), %rdi
Ltmp504:
	.loc	17 1955 9
	addq	16(%rdi), %rdx
	movq	%rdx, 16(%rdi)
Ltmp505:
	.loc	17 1956 6
	addq	$224, %rsp
	popq	%rbp
	retq
Ltmp506:
Lfunc_end91:
	.cfi_endproc

	.globl	__ZN5alloc3vec16Vec$LT$T$C$A$GT$17extend_from_slice17h9d1ae5f867e01fcfE
	.p2align	4, 0x90
__ZN5alloc3vec16Vec$LT$T$C$A$GT$17extend_from_slice17h9d1ae5f867e01fcfE:
Lfunc_begin92:
	.loc	17 2397 0
	.cfi_startproc
	pushq	%rbp
	.cfi_def_cfa_offset 16
	.cfi_offset %rbp, -16
	movq	%rsp, %rbp
	.cfi_def_cfa_register %rbp
	subq	$64, %rsp
	movq	%rdx, -64(%rbp)
	movq	%rsi, %rax
	movq	-64(%rbp), %rsi
	movq	%rax, -56(%rbp)
	movq	%rdi, %rax
	movq	-56(%rbp), %rdi
	movq	%rax, -48(%rbp)
	movq	%rax, -40(%rbp)
	movq	%rdi, -32(%rbp)
	movq	%rsi, -24(%rbp)
Ltmp507:
	.loc	17 2398 26 prologue_end
	movq	%rdi, -16(%rbp)
	movq	%rsi, -8(%rbp)
Ltmp508:
	.loc	21 742 9
	callq	__ZN4core5slice4iter13Iter$LT$T$GT$3new17h2c6db06c608920e6E
	movq	-48(%rbp), %rdi
	movq	%rax, %rsi
Ltmp509:
	.loc	17 2398 9
	callq	__ZN132_$LT$alloc..vec..Vec$LT$T$C$A$GT$$u20$as$u20$alloc..vec..spec_extend..SpecExtend$LT$$RF$T$C$core..slice..iter..Iter$LT$T$GT$$GT$$GT$11spec_extend17he9b68f47a80ad4dcE
	.loc	17 2399 6
	addq	$64, %rsp
	popq	%rbp
	retq
Ltmp510:
Lfunc_end92:
	.cfi_endproc

	.globl	__ZN5alloc3vec16Vec$LT$T$C$A$GT$3len17h21a749d2f0f22a64E
	.p2align	4, 0x90
__ZN5alloc3vec16Vec$LT$T$C$A$GT$3len17h21a749d2f0f22a64E:
Lfunc_begin93:
	.loc	17 2061 0
	.cfi_startproc
	pushq	%rbp
	.cfi_def_cfa_offset 16
	.cfi_offset %rbp, -16
	movq	%rsp, %rbp
	.cfi_def_cfa_register %rbp
	pushq	%rax
	movq	%rdi, -8(%rbp)
Ltmp511:
	.loc	17 2062 9 prologue_end
	movq	16(%rdi), %rax
	.loc	17 2063 6
	addq	$8, %rsp
	popq	%rbp
	retq
Ltmp512:
Lfunc_end93:
	.cfi_endproc

	.globl	__ZN5alloc3vec16Vec$LT$T$C$A$GT$4push17ha68ee67016c08a16E
	.p2align	4, 0x90
__ZN5alloc3vec16Vec$LT$T$C$A$GT$4push17ha68ee67016c08a16E:
Lfunc_begin94:
	.loc	17 1836 0
	.cfi_startproc
	.cfi_personality 155, _rust_eh_personality
	.cfi_lsda 16, Lexception9
	pushq	%rbp
	.cfi_def_cfa_offset 16
	.cfi_offset %rbp, -16
	movq	%rsp, %rbp
	.cfi_def_cfa_register %rbp
	subq	$240, %rsp
	movq	%rdi, -216(%rbp)
	movb	%sil, %al
	movb	%al, -201(%rbp)
	movq	%rdi, -168(%rbp)
	movb	%al, -153(%rbp)
Ltmp516:
	.loc	17 1839 12 prologue_end
	movq	16(%rdi), %rax
	movq	%rax, -200(%rbp)
	.loc	17 1839 24 is_stmt 0
	movq	%rdi, -152(%rbp)
Ltmp517:
	.loc	42 232 12 is_stmt 1
	xorl	%eax, %eax
	testb	$1, %al
	jne	LBB94_2
	.loc	42 0 12 is_stmt 0
	movq	-216(%rbp), %rax
	.loc	42 232 44
	movq	(%rax), %rax
	movq	%rax, -192(%rbp)
	.loc	42 232 9
	jmp	LBB94_3
LBB94_2:
	.loc	42 232 24
	movq	$-1, -192(%rbp)
Ltmp518:
LBB94_3:
	.loc	42 0 24
	movq	-200(%rbp), %rax
	.loc	17 1839 12 is_stmt 1
	cmpq	-192(%rbp), %rax
	je	LBB94_5
LBB94_4:
	.loc	17 0 12 is_stmt 0
	movq	-216(%rbp), %rax
	.loc	17 1843 23 is_stmt 1
	movq	%rax, -128(%rbp)
Ltmp519:
	.loc	17 1280 19
	movq	%rax, -120(%rbp)
Ltmp520:
	.loc	42 224 9
	movq	8(%rax), %rax
	movq	%rax, -224(%rbp)
	movq	%rax, -112(%rbp)
Ltmp521:
	.loc	7 104 9
	movq	%rax, -104(%rbp)
Ltmp522:
	.loc	6 326 9
	movq	%rax, -96(%rbp)
Ltmp523:
	.loc	17 1282 21
	movq	%rax, -88(%rbp)
Ltmp524:
	.loc	5 52 36
	movq	%rax, -176(%rbp)
	.loc	5 52 18 is_stmt 0
	movq	-176(%rbp), %rax
	movq	%rax, -80(%rbp)
Ltmp525:
	.loc	5 38 13 is_stmt 1
	movq	%rax, -72(%rbp)
Ltmp526:
	.loc	5 215 33
	movq	%rax, -64(%rbp)
	.loc	5 215 18 is_stmt 0
	movq	%rax, -56(%rbp)
	movq	-56(%rbp), %rax
	jmp	LBB94_9
Ltmp527:
LBB94_5:
	.loc	5 0 18
	movq	-216(%rbp), %rdi
	.loc	17 1840 39 is_stmt 1
	movq	16(%rdi), %rsi
Ltmp513:
	.loc	17 1840 13 is_stmt 0
	callq	__ZN5alloc7raw_vec19RawVec$LT$T$C$A$GT$16reserve_for_push17h812f7c70e3d5ccfeE
Ltmp514:
	jmp	LBB94_8
LBB94_6:
	.loc	17 1847 5 is_stmt 1
	movb	$1, %al
	testb	$1, %al
	jne	LBB94_12
	jmp	LBB94_11
LBB94_7:
Ltmp515:
	.loc	17 0 5 is_stmt 0
	movq	%rax, %rcx
	movl	%edx, %eax
	movq	%rcx, -144(%rbp)
	movl	%eax, -136(%rbp)
	jmp	LBB94_6
LBB94_8:
	.loc	17 1839 9 is_stmt 1
	jmp	LBB94_4
LBB94_9:
	.loc	17 0 9 is_stmt 0
	movq	-224(%rbp), %rax
	movq	-216(%rbp), %rcx
	.loc	17 1843 45 is_stmt 1
	movq	16(%rcx), %rcx
	movq	%rcx, -48(%rbp)
Ltmp528:
	.loc	5 1034 18
	movq	%rax, -40(%rbp)
	.loc	5 1034 30 is_stmt 0
	movq	%rcx, -32(%rbp)
Ltmp529:
	.loc	5 487 18 is_stmt 1
	addq	%rcx, %rax
	movq	%rax, -24(%rbp)
	movq	-24(%rbp), %rax
	movq	%rax, -232(%rbp)
	.loc	5 0 18 is_stmt 0
	movq	-216(%rbp), %rax
	movq	-232(%rbp), %rcx
	movb	-201(%rbp), %dl
	.loc	5 487 18
	movq	%rcx, -16(%rbp)
Ltmp530:
	.loc	17 1844 24 is_stmt 1
	movq	%rcx, -8(%rbp)
	.loc	17 1844 29 is_stmt 0
	movb	%dl, -177(%rbp)
Ltmp531:
	.loc	3 1354 9 is_stmt 1
	movb	-177(%rbp), %dl
	movb	%dl, (%rcx)
Ltmp532:
	.loc	17 1845 13
	movq	16(%rax), %rcx
	addq	$1, %rcx
	movq	%rcx, 16(%rax)
Ltmp533:
	.loc	17 1847 6
	addq	$240, %rsp
	popq	%rbp
	retq
LBB94_11:
	.loc	17 1836 5
	movq	-144(%rbp), %rdi
	callq	__Unwind_Resume
LBB94_12:
	.loc	17 1847 5
	jmp	LBB94_11
Ltmp534:
Lfunc_end94:
	.cfi_endproc
	.section	__TEXT,__gcc_except_tab
	.p2align	2
GCC_except_table94:
Lexception9:
	.byte	255
	.byte	255
	.byte	1
	.uleb128 Lcst_end9-Lcst_begin9
Lcst_begin9:
	.uleb128 Ltmp513-Lfunc_begin94
	.uleb128 Ltmp514-Ltmp513
	.uleb128 Ltmp515-Lfunc_begin94
	.byte	0
	.uleb128 Ltmp514-Lfunc_begin94
	.uleb128 Lfunc_end94-Ltmp514
	.byte	0
	.byte	0
Lcst_end9:
	.p2align	2

	.section	__TEXT,__text,regular,pure_instructions
	.globl	__ZN5alloc3vec16Vec$LT$T$C$A$GT$7reserve17h36f01ba44f2b0db0E
	.p2align	4, 0x90
__ZN5alloc3vec16Vec$LT$T$C$A$GT$7reserve17h36f01ba44f2b0db0E:
Lfunc_begin95:
	.loc	17 911 0
	.cfi_startproc
	pushq	%rbp
	.cfi_def_cfa_offset 16
	.cfi_offset %rbp, -16
	movq	%rsp, %rbp
	.cfi_def_cfa_register %rbp
	subq	$16, %rsp
	movq	%rsi, %rdx
	movq	%rdi, -16(%rbp)
	movq	%rdx, -8(%rbp)
Ltmp535:
	.loc	17 912 26 prologue_end
	movq	16(%rdi), %rsi
	.loc	17 912 9 is_stmt 0
	callq	__ZN5alloc7raw_vec19RawVec$LT$T$C$A$GT$7reserve17he511f650109ba5d5E
	.loc	17 913 6 is_stmt 1
	addq	$16, %rsp
	popq	%rbp
	retq
Ltmp536:
Lfunc_end95:
	.cfi_endproc

	.globl	__ZN5alloc3vec9from_elem17h2ec7d6f506b51764E
	.p2align	4, 0x90
__ZN5alloc3vec9from_elem17h2ec7d6f506b51764E:
Lfunc_begin96:
	.loc	17 2561 0
	.cfi_startproc
	pushq	%rbp
	.cfi_def_cfa_offset 16
	.cfi_offset %rbp, -16
	movq	%rsp, %rbp
	.cfi_def_cfa_register %rbp
	subq	$32, %rsp
	movb	%sil, %al
	movq	%rdi, %rcx
	movq	%rcx, -24(%rbp)
	movb	%al, -9(%rbp)
	movq	%rdx, -8(%rbp)
Ltmp537:
	.loc	17 2562 5 prologue_end
	movzbl	%al, %esi
	callq	__ZN63_$LT$u8$u20$as$u20$alloc..vec..spec_from_elem..SpecFromElem$GT$9from_elem17h7e592a5d4a7b333bE
	movq	-24(%rbp), %rax
	.loc	17 2563 2
	addq	$32, %rsp
	popq	%rbp
	retq
Ltmp538:
Lfunc_end96:
	.cfi_endproc

	.p2align	4, 0x90
__ZN5alloc5alloc15exchange_malloc17h0404a84fadf3053fE:
Lfunc_begin97:
	.file	44 "/rustc/2c8cc343237b8f7d5a3c3703e3a87f2eb2c54a74/library/alloc/src" "alloc.rs"
	.loc	44 324 0
	.cfi_startproc
	pushq	%rbp
	.cfi_def_cfa_offset 16
	.cfi_offset %rbp, -16
	movq	%rsp, %rbp
	.cfi_def_cfa_register %rbp
	subq	$208, %rsp
	movq	%rdi, -160(%rbp)
	movq	%rsi, -152(%rbp)
Ltmp539:
	.loc	44 325 61 prologue_end
	movq	%rdi, -144(%rbp)
	.loc	44 325 67 is_stmt 0
	movq	%rsi, -136(%rbp)
Ltmp540:
	.loc	32 120 65 is_stmt 1
	movq	%rsi, -128(%rbp)
Ltmp541:
	.loc	33 89 18
	movq	%rsi, -120(%rbp)
	movq	-120(%rbp), %rax
Ltmp542:
	.loc	32 120 18
	movq	%rdi, -200(%rbp)
	movq	%rax, -192(%rbp)
Ltmp543:
	.loc	44 326 11
	leaq	l___unnamed_13(%rip), %rdi
	movq	%rdi, -112(%rbp)
	.loc	44 326 27 is_stmt 0
	movq	-200(%rbp), %rsi
	movq	-192(%rbp), %rdx
	movq	%rsi, -104(%rbp)
	movq	%rdx, -96(%rbp)
	xorl	%ecx, %ecx
Ltmp544:
	.loc	44 237 9 is_stmt 1
	callq	__ZN5alloc5alloc6Global10alloc_impl17he57ade5ebae9ff88E
	movq	%rdx, -176(%rbp)
	movq	%rax, -184(%rbp)
Ltmp545:
	.loc	44 326 11
	movq	-184(%rbp), %rdx
	xorl	%eax, %eax
	movl	$1, %ecx
	cmpq	$0, %rdx
	cmoveq	%rcx, %rax
	.loc	44 326 5 is_stmt 0
	cmpq	$0, %rax
	jne	LBB97_2
	.loc	44 327 12 is_stmt 1
	movq	-184(%rbp), %rax
	movq	-176(%rbp), %rcx
	movq	%rax, -88(%rbp)
	movq	%rcx, -80(%rbp)
Ltmp546:
	.loc	44 327 20 is_stmt 0
	movq	%rax, -72(%rbp)
	movq	%rcx, -64(%rbp)
Ltmp547:
	.loc	6 548 9 is_stmt 1
	movq	%rax, -56(%rbp)
	movq	%rcx, -48(%rbp)
Ltmp548:
	.loc	6 529 41
	movq	%rax, -40(%rbp)
	movq	%rcx, -32(%rbp)
Ltmp549:
	.loc	6 326 9
	movq	%rax, -24(%rbp)
	movq	%rcx, -16(%rbp)
Ltmp550:
	.loc	5 2037 9
	movq	%rax, -8(%rbp)
Ltmp551:
	.loc	6 201 13
	movq	%rax, -168(%rbp)
Ltmp552:
	.loc	6 326 9
	movq	-168(%rbp), %rax
Ltmp553:
	.loc	44 330 2
	addq	$208, %rsp
	popq	%rbp
	retq
LBB97_2:
Ltmp554:
	.loc	44 328 38
	movq	-200(%rbp), %rdi
	movq	-192(%rbp), %rsi
	.loc	44 328 19 is_stmt 0
	callq	__ZN5alloc5alloc18handle_alloc_error17hb5f6ff255f23ea4dE
Ltmp555:
Lfunc_end97:
	.cfi_endproc

	.p2align	4, 0x90
__ZN5alloc5alloc6Global10alloc_impl17he57ade5ebae9ff88E:
Lfunc_begin98:
	.loc	44 172 0 is_stmt 1
	.cfi_startproc
	pushq	%rbp
	.cfi_def_cfa_offset 16
	.cfi_offset %rbp, -16
	movq	%rsp, %rbp
	.cfi_def_cfa_register %rbp
	subq	$352, %rsp
	movb	%cl, %al
	movb	%al, -345(%rbp)
	movq	%rsi, -336(%rbp)
	movq	%rdx, -328(%rbp)
	movq	%rdi, -208(%rbp)
	andb	$1, %al
	movb	%al, -193(%rbp)
Ltmp556:
	.loc	44 173 15 prologue_end
	leaq	-336(%rbp), %rax
	movq	%rax, -144(%rbp)
Ltmp557:
	.loc	32 129 9
	movq	-336(%rbp), %rax
	movq	%rax, -344(%rbp)
Ltmp558:
	.loc	44 173 9
	cmpq	$0, %rax
	jne	LBB98_2
	.loc	44 174 51
	leaq	-336(%rbp), %rax
	movq	%rax, -48(%rbp)
Ltmp559:
	.loc	32 216 71
	leaq	-336(%rbp), %rax
	movq	%rax, -40(%rbp)
Ltmp560:
	.loc	32 140 9
	movq	-328(%rbp), %rax
	movq	%rax, -32(%rbp)
Ltmp561:
	.loc	33 97 9
	movq	%rax, -232(%rbp)
	movq	-232(%rbp), %rax
	movq	%rax, -24(%rbp)
Ltmp562:
	.loc	3 599 14
	movq	%rax, -16(%rbp)
	movq	-16(%rbp), %rax
	movq	%rax, -8(%rbp)
Ltmp563:
	.loc	6 201 13
	movq	%rax, -304(%rbp)
Ltmp564:
	.loc	44 174 21
	movq	-304(%rbp), %rdi
	xorl	%eax, %eax
	movl	%eax, %esi
	callq	__ZN4core3ptr8non_null26NonNull$LT$$u5b$T$u5d$$GT$20slice_from_raw_parts17hcd1a097b3234d26eE
	.loc	44 174 18 is_stmt 0
	movq	%rax, -320(%rbp)
	movq	%rdx, -312(%rbp)
	.loc	44 174 72
	jmp	LBB98_15
LBB98_2:
	.loc	44 0 72
	movb	-345(%rbp), %al
	movq	-344(%rbp), %rcx
	.loc	44 176 13 is_stmt 1
	movq	%rcx, -136(%rbp)
Ltmp565:
	.loc	44 177 34
	testb	$1, %al
	jne	LBB98_4
	.loc	44 177 79 is_stmt 0
	movq	-336(%rbp), %rcx
	movq	-328(%rbp), %rax
	movq	%rcx, -272(%rbp)
	movq	%rax, -264(%rbp)
Ltmp566:
	.loc	44 95 27 is_stmt 1
	leaq	-272(%rbp), %rax
	movq	%rax, -104(%rbp)
Ltmp567:
	.loc	32 129 9
	movq	-272(%rbp), %rdi
Ltmp568:
	.loc	44 95 42
	leaq	-272(%rbp), %rax
	movq	%rax, -96(%rbp)
Ltmp569:
	.loc	32 140 9
	movq	-264(%rbp), %rax
	movq	%rax, -88(%rbp)
Ltmp570:
	.loc	33 97 9
	movq	%rax, -216(%rbp)
	movq	-216(%rbp), %rsi
Ltmp571:
	.loc	44 95 14
	callq	___rust_alloc
	movq	%rax, -296(%rbp)
Ltmp572:
	.loc	44 177 31
	jmp	LBB98_5
LBB98_4:
	.loc	44 177 56 is_stmt 0
	movq	-336(%rbp), %rcx
	movq	-328(%rbp), %rax
	movq	%rcx, -288(%rbp)
	movq	%rax, -280(%rbp)
Ltmp573:
	.loc	44 166 34 is_stmt 1
	leaq	-288(%rbp), %rax
	movq	%rax, -128(%rbp)
Ltmp574:
	.loc	32 129 9
	movq	-288(%rbp), %rdi
Ltmp575:
	.loc	44 166 49
	leaq	-288(%rbp), %rax
	movq	%rax, -120(%rbp)
Ltmp576:
	.loc	32 140 9
	movq	-280(%rbp), %rax
	movq	%rax, -112(%rbp)
Ltmp577:
	.loc	33 97 9
	movq	%rax, -224(%rbp)
	movq	-224(%rbp), %rsi
Ltmp578:
	.loc	44 166 14
	callq	___rust_alloc_zeroed
	movq	%rax, -296(%rbp)
Ltmp579:
LBB98_5:
	.loc	44 178 40
	movq	-296(%rbp), %rdi
	.loc	44 178 27 is_stmt 0
	callq	__ZN4core3ptr8non_null16NonNull$LT$T$GT$3new17hb6d7c7d3f0b7bef6E
	movq	%rax, -240(%rbp)
Ltmp580:
	.loc	37 1096 15 is_stmt 1
	movq	-240(%rbp), %rdx
	movl	$1, %eax
	xorl	%ecx, %ecx
	cmpq	$0, %rdx
	cmoveq	%rcx, %rax
	.loc	37 1096 9 is_stmt 0
	cmpq	$0, %rax
	jne	LBB98_7
	.loc	37 1098 21 is_stmt 1
	movq	$0, -248(%rbp)
	.loc	37 1098 28 is_stmt 0
	jmp	LBB98_8
LBB98_7:
	.loc	37 1097 18 is_stmt 1
	movq	-240(%rbp), %rax
	movq	%rax, -80(%rbp)
Ltmp581:
	.loc	37 1097 24 is_stmt 0
	movq	%rax, -248(%rbp)
Ltmp582:
LBB98_8:
	.loc	38 2091 15 is_stmt 1
	movq	-248(%rbp), %rdx
	xorl	%eax, %eax
	movl	$1, %ecx
	cmpq	$0, %rdx
	cmoveq	%rcx, %rax
	.loc	38 2091 9 is_stmt 0
	cmpq	$0, %rax
	jne	LBB98_10
	.loc	38 2092 16 is_stmt 1
	movq	-248(%rbp), %rax
	movq	%rax, -72(%rbp)
Ltmp583:
	.loc	38 2092 22 is_stmt 0
	movq	%rax, -256(%rbp)
Ltmp584:
	.loc	38 2092 45
	jmp	LBB98_11
LBB98_10:
Ltmp585:
	.loc	38 2093 23 is_stmt 1
	movq	$0, -256(%rbp)
Ltmp586:
LBB98_11:
	.loc	44 178 27
	movq	-256(%rbp), %rdx
	xorl	%eax, %eax
	movl	$1, %ecx
	cmpq	$0, %rdx
	cmoveq	%rcx, %rax
	cmpq	$0, %rax
	jne	LBB98_13
	.loc	44 0 27 is_stmt 0
	movq	-344(%rbp), %rsi
	.loc	44 178 27
	movq	-256(%rbp), %rdi
	movq	%rdi, -64(%rbp)
Ltmp587:
	.loc	44 178 27
	movq	%rdi, -56(%rbp)
Ltmp588:
	.loc	44 179 20 is_stmt 1
	callq	__ZN4core3ptr8non_null26NonNull$LT$$u5b$T$u5d$$GT$20slice_from_raw_parts17hcd1a097b3234d26eE
	.loc	44 179 17 is_stmt 0
	movq	%rax, -320(%rbp)
	movq	%rdx, -312(%rbp)
Ltmp589:
	.loc	44 180 13 is_stmt 1
	jmp	LBB98_15
LBB98_13:
Ltmp590:
	.loc	38 2107 23
	movq	$0, -320(%rbp)
Ltmp591:
LBB98_14:
	.loc	44 182 6
	movq	-320(%rbp), %rax
	movq	-312(%rbp), %rdx
	addq	$352, %rsp
	popq	%rbp
	retq
LBB98_15:
	jmp	LBB98_14
Ltmp592:
Lfunc_end98:
	.cfi_endproc

	.p2align	4, 0x90
__ZN5alloc5alloc6Global9grow_impl17ha8f7d5a6ec9d71dbE:
Lfunc_begin99:
	.loc	44 186 0
	.cfi_startproc
	pushq	%rbp
	.cfi_def_cfa_offset 16
	.cfi_offset %rbp, -16
	movq	%rsp, %rbp
	.cfi_def_cfa_register %rbp
	subq	$736, %rsp
	movq	%rsi, -688(%rbp)
	movq	%rdi, -680(%rbp)
	movb	16(%rbp), %al
	movb	%al, -665(%rbp)
	movq	%rdx, -656(%rbp)
	movq	%rcx, -648(%rbp)
	movq	%r8, -640(%rbp)
	movq	%r9, -632(%rbp)
	movq	%rdi, -504(%rbp)
	movq	%rsi, -496(%rbp)
	andb	$1, %al
	movb	%al, -481(%rbp)
Ltmp593:
	.loc	44 198 15 prologue_end
	leaq	-656(%rbp), %rax
	movq	%rax, -392(%rbp)
Ltmp594:
	.loc	32 129 9
	movq	-656(%rbp), %rax
	movq	%rax, -664(%rbp)
Ltmp595:
	.loc	44 198 9
	cmpq	$0, %rax
	jne	LBB99_2
	.loc	44 0 9 is_stmt 0
	movq	-680(%rbp), %rdi
	movb	-665(%rbp), %al
	.loc	44 199 34 is_stmt 1
	movq	-640(%rbp), %rsi
	movq	-632(%rbp), %rdx
	.loc	44 199 18 is_stmt 0
	movzbl	%al, %ecx
	andl	$1, %ecx
	callq	__ZN5alloc5alloc6Global10alloc_impl17he57ade5ebae9ff88E
	movq	%rdx, -616(%rbp)
	movq	%rax, -624(%rbp)
	.loc	44 199 52
	jmp	LBB99_16
LBB99_2:
	.loc	44 203 25 is_stmt 1
	leaq	-656(%rbp), %rax
	movq	%rax, -384(%rbp)
Ltmp596:
	.loc	32 140 9
	movq	-648(%rbp), %rax
	movq	%rax, -376(%rbp)
Ltmp597:
	.loc	33 97 9
	movq	%rax, -536(%rbp)
	movq	-536(%rbp), %rax
Ltmp598:
	.loc	44 203 47
	leaq	-640(%rbp), %rcx
	movq	%rcx, -368(%rbp)
Ltmp599:
	.loc	32 140 9
	movq	-632(%rbp), %rcx
	movq	%rcx, -360(%rbp)
Ltmp600:
	.loc	33 97 9
	movq	%rcx, -528(%rbp)
	movq	-528(%rbp), %rcx
Ltmp601:
	.loc	44 203 25
	cmpq	%rcx, %rax
	je	LBB99_4
	.loc	44 0 25 is_stmt 0
	movq	-680(%rbp), %rdi
	movb	-665(%rbp), %al
	movq	-664(%rbp), %rcx
	.loc	44 222 13 is_stmt 1
	movq	%rcx, -160(%rbp)
Ltmp602:
	.loc	44 223 47
	movq	-640(%rbp), %rsi
	movq	-632(%rbp), %rdx
	.loc	44 223 31 is_stmt 0
	movzbl	%al, %ecx
	andl	$1, %ecx
	callq	__ZN5alloc5alloc6Global10alloc_impl17he57ade5ebae9ff88E
	movq	%rdx, -544(%rbp)
	movq	%rax, -552(%rbp)
Ltmp603:
	.loc	38 2091 15 is_stmt 1
	movq	-552(%rbp), %rdx
	xorl	%eax, %eax
	movl	$1, %ecx
	cmpq	$0, %rdx
	cmoveq	%rcx, %rax
	.loc	38 2091 9 is_stmt 0
	cmpq	$0, %rax
	je	LBB99_17
	jmp	LBB99_18
Ltmp604:
LBB99_4:
	.loc	38 0 9
	movq	-688(%rbp), %rdi
	movq	-664(%rbp), %rax
	.loc	44 203 13 is_stmt 1
	movq	%rax, -352(%rbp)
Ltmp605:
	.loc	44 204 32
	leaq	-640(%rbp), %rax
	movq	%rax, -344(%rbp)
Ltmp606:
	.loc	32 129 9
	movq	-640(%rbp), %rcx
	movq	%rcx, -704(%rbp)
	movq	%rcx, -336(%rbp)
Ltmp607:
	.loc	44 207 48
	leaq	-656(%rbp), %rax
	movq	%rax, -328(%rbp)
	.loc	44 209 39
	movq	%rdi, -320(%rbp)
Ltmp608:
	.loc	6 326 9
	movq	%rdi, -312(%rbp)
Ltmp609:
	.loc	44 209 53
	movq	-656(%rbp), %rdx
	movq	-648(%rbp), %rax
	movq	%rdx, -608(%rbp)
	movq	%rax, -600(%rbp)
	.loc	44 209 65 is_stmt 0
	movq	%rcx, -304(%rbp)
Ltmp610:
	.loc	44 132 34 is_stmt 1
	leaq	-608(%rbp), %rax
	movq	%rax, -296(%rbp)
Ltmp611:
	.loc	32 129 9
	movq	-608(%rbp), %rsi
Ltmp612:
	.loc	44 132 49
	leaq	-608(%rbp), %rax
	movq	%rax, -288(%rbp)
Ltmp613:
	.loc	32 140 9
	movq	-600(%rbp), %rax
	movq	%rax, -280(%rbp)
Ltmp614:
	.loc	33 97 9
	movq	%rax, -520(%rbp)
	movq	-520(%rbp), %rdx
Ltmp615:
	.loc	44 132 14
	callq	___rust_realloc
	movq	%rax, %rdi
	movq	%rdi, -696(%rbp)
	movq	%rdi, -272(%rbp)
Ltmp616:
	.loc	44 210 27
	callq	__ZN4core3ptr8non_null16NonNull$LT$T$GT$3new17hb6d7c7d3f0b7bef6E
	movq	%rax, -576(%rbp)
Ltmp617:
	.loc	37 1096 15
	movq	-576(%rbp), %rdx
	movl	$1, %eax
	xorl	%ecx, %ecx
	cmpq	$0, %rdx
	cmoveq	%rcx, %rax
	.loc	37 1096 9 is_stmt 0
	cmpq	$0, %rax
	jne	LBB99_6
	.loc	37 1098 21 is_stmt 1
	movq	$0, -584(%rbp)
	.loc	37 1098 28 is_stmt 0
	jmp	LBB99_7
LBB99_6:
	.loc	37 1097 18 is_stmt 1
	movq	-576(%rbp), %rax
	movq	%rax, -264(%rbp)
Ltmp618:
	.loc	37 1097 24 is_stmt 0
	movq	%rax, -584(%rbp)
Ltmp619:
LBB99_7:
	.loc	38 2091 15 is_stmt 1
	movq	-584(%rbp), %rdx
	xorl	%eax, %eax
	movl	$1, %ecx
	cmpq	$0, %rdx
	cmoveq	%rcx, %rax
	.loc	38 2091 9 is_stmt 0
	cmpq	$0, %rax
	jne	LBB99_9
	.loc	38 2092 16 is_stmt 1
	movq	-584(%rbp), %rax
	movq	%rax, -256(%rbp)
Ltmp620:
	.loc	38 2092 22 is_stmt 0
	movq	%rax, -592(%rbp)
Ltmp621:
	.loc	38 2092 45
	jmp	LBB99_10
LBB99_9:
Ltmp622:
	.loc	38 2093 23 is_stmt 1
	movq	$0, -592(%rbp)
Ltmp623:
LBB99_10:
	.loc	44 210 27
	movq	-592(%rbp), %rdx
	xorl	%eax, %eax
	movl	$1, %ecx
	cmpq	$0, %rdx
	cmoveq	%rcx, %rax
	cmpq	$0, %rax
	jne	LBB99_12
	.loc	44 0 27 is_stmt 0
	movb	-665(%rbp), %al
	.loc	44 210 27
	movq	-592(%rbp), %rcx
	movq	%rcx, -712(%rbp)
	movq	%rcx, -248(%rbp)
Ltmp624:
	.loc	44 210 27
	movq	%rcx, -240(%rbp)
Ltmp625:
	.loc	44 211 20 is_stmt 1
	testb	$1, %al
	jne	LBB99_15
	jmp	LBB99_14
Ltmp626:
LBB99_12:
	.loc	38 2107 23
	movq	$0, -624(%rbp)
Ltmp627:
LBB99_13:
	.loc	44 229 6
	jmp	LBB99_22
LBB99_14:
	.loc	44 0 6 is_stmt 0
	movq	-704(%rbp), %rsi
	movq	-712(%rbp), %rdi
Ltmp628:
	.loc	44 214 20 is_stmt 1
	callq	__ZN4core3ptr8non_null26NonNull$LT$$u5b$T$u5d$$GT$20slice_from_raw_parts17hcd1a097b3234d26eE
	.loc	44 214 17 is_stmt 0
	movq	%rax, -624(%rbp)
	movq	%rdx, -616(%rbp)
Ltmp629:
	.loc	44 215 13 is_stmt 1
	jmp	LBB99_16
LBB99_15:
	.loc	44 0 13 is_stmt 0
	movq	-664(%rbp), %rax
	movq	-704(%rbp), %rdx
	movq	-696(%rbp), %rcx
Ltmp630:
	.loc	44 212 21 is_stmt 1
	movq	%rcx, -232(%rbp)
	.loc	44 212 33 is_stmt 0
	movq	%rax, -224(%rbp)
Ltmp631:
	.loc	5 1034 18 is_stmt 1
	movq	%rcx, -216(%rbp)
	.loc	5 1034 30 is_stmt 0
	movq	%rax, -208(%rbp)
Ltmp632:
	.loc	5 487 18 is_stmt 1
	addq	%rax, %rcx
	movq	%rcx, -200(%rbp)
	movq	-200(%rbp), %rdi
	movq	%rdi, -192(%rbp)
Ltmp633:
	.loc	44 212 58
	subq	%rax, %rdx
	movq	%rdx, -184(%rbp)
Ltmp634:
	.loc	5 1488 30
	movq	%rdi, -176(%rbp)
	.loc	5 1488 41 is_stmt 0
	movq	%rdx, -168(%rbp)
Ltmp635:
	.loc	43 2529 9 is_stmt 1
	shlq	$0, %rdx
	xorl	%esi, %esi
	callq	_memset
Ltmp636:
	.loc	44 211 17
	jmp	LBB99_14
Ltmp637:
LBB99_16:
	.loc	44 229 6
	jmp	LBB99_22
LBB99_17:
Ltmp638:
	.loc	38 2092 16
	movq	-552(%rbp), %rcx
	movq	-544(%rbp), %rax
	movq	%rcx, -152(%rbp)
	movq	%rax, -144(%rbp)
Ltmp639:
	.loc	38 2092 22 is_stmt 0
	movq	%rcx, -568(%rbp)
	movq	%rax, -560(%rbp)
Ltmp640:
	.loc	38 2092 45
	jmp	LBB99_19
LBB99_18:
Ltmp641:
	.loc	38 2093 23 is_stmt 1
	movq	$0, -568(%rbp)
Ltmp642:
LBB99_19:
	.loc	44 223 31
	movq	-568(%rbp), %rdx
	xorl	%eax, %eax
	movl	$1, %ecx
	cmpq	$0, %rdx
	cmoveq	%rcx, %rax
	cmpq	$0, %rax
	jne	LBB99_21
	.loc	44 0 31 is_stmt 0
	movq	-688(%rbp), %rsi
	movq	-664(%rbp), %rdx
	.loc	44 223 31
	movq	-568(%rbp), %rax
	movq	%rax, -728(%rbp)
	movq	-560(%rbp), %rcx
	movq	%rcx, -720(%rbp)
	movq	%rax, -136(%rbp)
	movq	%rcx, -128(%rbp)
Ltmp643:
	.loc	44 223 31
	movq	%rax, -120(%rbp)
	movq	%rcx, -112(%rbp)
Ltmp644:
	.loc	44 224 42 is_stmt 1
	movq	%rsi, -104(%rbp)
	movq	%rsi, -96(%rbp)
	.loc	44 224 56 is_stmt 0
	movq	%rax, -88(%rbp)
	movq	%rcx, -80(%rbp)
Ltmp645:
	.loc	6 548 9 is_stmt 1
	movq	%rax, -72(%rbp)
	movq	%rcx, -64(%rbp)
Ltmp646:
	.loc	6 529 41
	movq	%rax, -56(%rbp)
	movq	%rcx, -48(%rbp)
Ltmp647:
	.loc	6 326 9
	movq	%rax, -40(%rbp)
	movq	%rcx, -32(%rbp)
Ltmp648:
	.loc	5 2037 9
	movq	%rax, -24(%rbp)
Ltmp649:
	.loc	6 201 13
	movq	%rax, -512(%rbp)
Ltmp650:
	.loc	6 326 9
	movq	-512(%rbp), %rdi
	movq	%rdi, -16(%rbp)
Ltmp651:
	.loc	44 224 78
	movq	%rdx, -8(%rbp)
Ltmp652:
	.loc	43 2372 9
	shlq	$0, %rdx
	callq	_memcpy
	movq	-680(%rbp), %rdi
	movq	-688(%rbp), %rsi
Ltmp653:
	.loc	44 225 38
	movq	-656(%rbp), %rdx
	movq	-648(%rbp), %rcx
	.loc	44 225 17 is_stmt 0
	callq	__ZN63_$LT$alloc..alloc..Global$u20$as$u20$core..alloc..Allocator$GT$10deallocate17h6471a889babf9f10E
	movq	-728(%rbp), %rcx
	movq	-720(%rbp), %rax
	.loc	44 226 17 is_stmt 1
	movq	%rcx, -624(%rbp)
	movq	%rax, -616(%rbp)
Ltmp654:
	.loc	44 227 13
	jmp	LBB99_16
LBB99_21:
Ltmp655:
	.loc	38 2107 23
	movq	$0, -624(%rbp)
Ltmp656:
	.file	45 "/Users/natalie/.cargo/registry/src/github.com-1ecc6299db9ec823/core-foundation-0.9.3" "src/lib.rs"
	.loc	45 1 1
	jmp	LBB99_13
LBB99_22:
	.loc	44 229 6
	movq	-624(%rbp), %rax
	movq	-616(%rbp), %rdx
	addq	$736, %rsp
	popq	%rbp
	retq
Ltmp657:
Lfunc_end99:
	.cfi_endproc

	.globl	__ZN5alloc5alloc8box_free17h5959c9413450f08aE
	.p2align	4, 0x90
__ZN5alloc5alloc8box_free17h5959c9413450f08aE:
Lfunc_begin100:
	.loc	44 340 0
	.cfi_startproc
	.cfi_personality 155, _rust_eh_personality
	.cfi_lsda 16, Lexception10
	pushq	%rbp
	.cfi_def_cfa_offset 16
	.cfi_offset %rbp, -16
	movq	%rsp, %rbp
	.cfi_def_cfa_register %rbp
	subq	$304, %rsp
	movq	%rdi, -288(%rbp)
	movq	%rsi, -280(%rbp)
Ltmp661:
	.loc	44 345 32 prologue_end
	leaq	-288(%rbp), %rax
	movq	%rax, -224(%rbp)
Ltmp662:
	.loc	7 117 18
	leaq	-288(%rbp), %rax
	movq	%rax, -216(%rbp)
Ltmp663:
	.loc	6 376 20
	movq	-288(%rbp), %rcx
	movq	-280(%rbp), %rax
	movq	%rcx, -208(%rbp)
	movq	%rax, -200(%rbp)
Ltmp664:
	.loc	44 345 20
	movq	8(%rax), %rax
	movq	%rax, -192(%rbp)
	movq	-192(%rbp), %rcx
	movq	%rcx, -304(%rbp)
	movq	%rcx, -184(%rbp)
Ltmp665:
	.loc	44 346 38
	leaq	-288(%rbp), %rax
	movq	%rax, -176(%rbp)
Ltmp666:
	.loc	7 117 18
	leaq	-288(%rbp), %rax
	movq	%rax, -168(%rbp)
Ltmp667:
	.loc	6 376 20
	movq	-288(%rbp), %rdx
	movq	-280(%rbp), %rax
	movq	%rdx, -160(%rbp)
	movq	%rax, -152(%rbp)
Ltmp668:
	.loc	44 346 21
	movq	16(%rax), %rax
	movq	%rax, -144(%rbp)
	movq	-144(%rbp), %rax
	movq	%rax, -136(%rbp)
Ltmp669:
	.loc	44 347 56
	movq	%rcx, -128(%rbp)
	.loc	44 347 62 is_stmt 0
	movq	%rax, -120(%rbp)
Ltmp670:
	.loc	32 120 65 is_stmt 1
	movq	%rax, -112(%rbp)
Ltmp671:
	.loc	33 89 18
	movq	%rax, -104(%rbp)
	movq	-104(%rbp), %rax
	movq	%rax, -296(%rbp)
Ltmp672:
	.loc	33 0 18 is_stmt 0
	movq	-296(%rbp), %rax
	movq	-304(%rbp), %rcx
	.loc	32 120 18 is_stmt 1
	movq	%rcx, -264(%rbp)
	movq	%rax, -256(%rbp)
Ltmp673:
	.loc	44 348 37
	movq	-288(%rbp), %rax
	movq	-280(%rbp), %rcx
	movq	%rax, -96(%rbp)
	movq	%rcx, -88(%rbp)
Ltmp674:
	.loc	7 137 22
	movq	%rax, -80(%rbp)
	movq	%rcx, -72(%rbp)
Ltmp675:
	.loc	6 450 41
	movq	%rax, -64(%rbp)
	movq	%rcx, -56(%rbp)
	movq	%rax, -48(%rbp)
Ltmp676:
	.loc	6 201 13
	movq	%rax, -232(%rbp)
Ltmp677:
	.loc	7 191 18
	movq	-232(%rbp), %rax
	.loc	7 191 9 is_stmt 0
	movq	%rax, -240(%rbp)
Ltmp678:
	.loc	6 768 41 is_stmt 1
	movq	-240(%rbp), %rax
	movq	%rax, -40(%rbp)
Ltmp679:
	.loc	7 104 9
	movq	%rax, -32(%rbp)
Ltmp680:
	.loc	6 326 9
	movq	%rax, -24(%rbp)
Ltmp681:
	.loc	6 201 13
	movq	%rax, -248(%rbp)
Ltmp682:
	.loc	44 348 50
	movq	-264(%rbp), %rdx
	movq	-256(%rbp), %rcx
	.loc	44 348 9 is_stmt 0
	movq	-248(%rbp), %rsi
Ltmp658:
	leaq	-272(%rbp), %rdi
	callq	__ZN63_$LT$alloc..alloc..Global$u20$as$u20$core..alloc..Allocator$GT$10deallocate17h6471a889babf9f10E
Ltmp659:
	jmp	LBB100_4
Ltmp683:
LBB100_2:
	.loc	44 340 1 is_stmt 1
	movq	-16(%rbp), %rdi
	callq	__Unwind_Resume
LBB100_3:
Ltmp660:
	.loc	44 0 1 is_stmt 0
	movq	%rax, %rcx
	movl	%edx, %eax
	movq	%rcx, -16(%rbp)
	movl	%eax, -8(%rbp)
	jmp	LBB100_2
LBB100_4:
	.loc	44 350 2 is_stmt 1
	addq	$304, %rsp
	popq	%rbp
	retq
Ltmp684:
Lfunc_end100:
	.cfi_endproc
	.section	__TEXT,__gcc_except_tab
	.p2align	2
GCC_except_table100:
Lexception10:
	.byte	255
	.byte	255
	.byte	1
	.uleb128 Lcst_end10-Lcst_begin10
Lcst_begin10:
	.uleb128 Ltmp658-Lfunc_begin100
	.uleb128 Ltmp659-Ltmp658
	.uleb128 Ltmp660-Lfunc_begin100
	.byte	0
	.uleb128 Ltmp659-Lfunc_begin100
	.uleb128 Lfunc_end100-Ltmp659
	.byte	0
	.byte	0
Lcst_end10:
	.p2align	2

	.section	__TEXT,__text,regular,pure_instructions
	.globl	__ZN5alloc5boxed16Box$LT$T$C$A$GT$11into_unique17h727af5dda231b87fE
	.p2align	4, 0x90
__ZN5alloc5boxed16Box$LT$T$C$A$GT$11into_unique17h727af5dda231b87fE:
Lfunc_begin101:
	.file	46 "/rustc/2c8cc343237b8f7d5a3c3703e3a87f2eb2c54a74/library/alloc/src" "boxed.rs"
	.loc	46 1124 0
	.cfi_startproc
	.cfi_personality 155, _rust_eh_personality
	.cfi_lsda 16, Lexception11
	pushq	%rbp
	.cfi_def_cfa_offset 16
	.cfi_offset %rbp, -16
	movq	%rsp, %rbp
	.cfi_def_cfa_register %rbp
	subq	$192, %rsp
	movq	%rdi, -168(%rbp)
	movq	%rsi, -160(%rbp)
Ltmp691:
	.loc	46 1130 13 prologue_end
	movb	$1, -113(%rbp)
	.loc	46 1130 40 is_stmt 0
	leaq	-168(%rbp), %rax
	movq	%rax, -64(%rbp)
Ltmp692:
	.loc	3 1157 34 is_stmt 1
	leaq	-112(%rbp), %rax
	movq	%rax, -56(%rbp)
Ltmp693:
	.loc	46 1131 33
	movb	$0, -113(%rbp)
	movq	-168(%rbp), %rdi
	movq	-160(%rbp), %rsi
Ltmp685:
	.loc	46 1131 23 is_stmt 0
	callq	__ZN5alloc5boxed16Box$LT$T$C$A$GT$4leak17hcbe88665efc033f1E
Ltmp686:
	movq	%rdx, -184(%rbp)
	movq	%rax, -176(%rbp)
	jmp	LBB101_4
Ltmp694:
LBB101_2:
	.loc	46 1132 5 is_stmt 1
	jmp	LBB101_5
LBB101_3:
Ltmp687:
	.loc	46 0 5 is_stmt 0
	movq	%rax, %rcx
	movl	%edx, %eax
	movq	%rcx, -48(%rbp)
	movl	%eax, -40(%rbp)
	jmp	LBB101_2
LBB101_4:
	movq	-184(%rbp), %rax
	movq	-176(%rbp), %rcx
Ltmp695:
	.loc	46 1131 23 is_stmt 1
	movq	%rcx, -32(%rbp)
	movq	%rax, -24(%rbp)
Ltmp696:
	.loc	7 180 34
	movq	%rcx, -16(%rbp)
	movq	%rax, -8(%rbp)
Ltmp697:
	.loc	6 781 18
	movq	%rcx, -104(%rbp)
	movq	%rax, -96(%rbp)
Ltmp698:
	.loc	7 191 18
	movq	-104(%rbp), %rcx
	movq	-96(%rbp), %rax
	.loc	7 191 9 is_stmt 0
	movq	%rcx, -136(%rbp)
	movq	%rax, -128(%rbp)
Ltmp699:
	.loc	46 1131 9 is_stmt 1
	movq	-136(%rbp), %rcx
	movq	-128(%rbp), %rax
	movq	%rcx, -152(%rbp)
	movq	%rax, -144(%rbp)
Ltmp700:
	.loc	46 1132 6
	movq	-152(%rbp), %rax
	movq	-144(%rbp), %rdx
	addq	$192, %rsp
	popq	%rbp
	retq
LBB101_5:
	.loc	46 1132 5 is_stmt 0
	testb	$1, -113(%rbp)
	jne	LBB101_7
LBB101_6:
	.loc	46 1124 5 is_stmt 1
	movq	-48(%rbp), %rdi
	callq	__Unwind_Resume
LBB101_7:
Ltmp688:
	.loc	46 0 5 is_stmt 0
	leaq	-168(%rbp), %rdi
	.loc	46 1132 5 is_stmt 1
	callq	__ZN4core3ptr91drop_in_place$LT$alloc..boxed..Box$LT$dyn$u20$core..any..Any$u2b$core..marker..Send$GT$$GT$17h23cefe420705babcE
Ltmp689:
	jmp	LBB101_6
LBB101_8:
Ltmp690:
	.loc	46 1124 5
	callq	__ZN4core9panicking19panic_cannot_unwind17h1fbca7e1d7f56ae1E
Ltmp701:
Lfunc_end101:
	.cfi_endproc
	.section	__TEXT,__gcc_except_tab
	.p2align	2
GCC_except_table101:
Lexception11:
	.byte	255
	.byte	255
	.byte	1
	.uleb128 Lcst_end11-Lcst_begin11
Lcst_begin11:
	.uleb128 Ltmp685-Lfunc_begin101
	.uleb128 Ltmp686-Ltmp685
	.uleb128 Ltmp687-Lfunc_begin101
	.byte	0
	.uleb128 Ltmp686-Lfunc_begin101
	.uleb128 Ltmp688-Ltmp686
	.byte	0
	.byte	0
	.uleb128 Ltmp688-Lfunc_begin101
	.uleb128 Ltmp689-Ltmp688
	.uleb128 Ltmp690-Lfunc_begin101
	.byte	0
Lcst_end11:
	.p2align	2

	.section	__TEXT,__text,regular,pure_instructions
	.globl	__ZN5alloc5boxed16Box$LT$T$C$A$GT$4leak17hcbe88665efc033f1E
	.p2align	4, 0x90
__ZN5alloc5boxed16Box$LT$T$C$A$GT$4leak17hcbe88665efc033f1E:
Lfunc_begin102:
	.loc	46 1184 0
	.cfi_startproc
	pushq	%rbp
	.cfi_def_cfa_offset 16
	.cfi_offset %rbp, -16
	movq	%rsp, %rbp
	.cfi_def_cfa_register %rbp
	subq	$88, %rsp
	movq	%rdi, -72(%rbp)
	movq	%rsi, -64(%rbp)
Ltmp702:
	.loc	46 1188 47 prologue_end
	movq	%rdi, -56(%rbp)
	movq	%rsi, -48(%rbp)
Ltmp703:
	.loc	25 71 9
	movq	%rdi, -88(%rbp)
	movq	%rsi, -80(%rbp)
	leaq	-88(%rbp), %rax
Ltmp704:
	.loc	46 1188 24
	movq	%rax, -40(%rbp)
	movq	-88(%rbp), %rax
	movq	-80(%rbp), %rdx
	movq	%rax, -32(%rbp)
	movq	%rdx, -24(%rbp)
Ltmp705:
	.loc	7 104 9
	movq	%rax, -16(%rbp)
	movq	%rdx, -8(%rbp)
Ltmp706:
	.loc	46 1189 6
	addq	$88, %rsp
	popq	%rbp
	retq
Ltmp707:
Lfunc_end102:
	.cfi_endproc

	.p2align	4, 0x90
__ZN5alloc6string6String19from_utf8_unchecked17hf6bb468148151b0dE:
Lfunc_begin103:
	.loc	16 845 0
	.cfi_startproc
	pushq	%rbp
	.cfi_def_cfa_offset 16
	.cfi_offset %rbp, -16
	movq	%rsp, %rbp
	.cfi_def_cfa_register %rbp
	subq	$24, %rsp
	movq	%rdi, %rax
Ltmp708:
	.loc	16 846 23 prologue_end
	movq	(%rsi), %rcx
	movq	%rcx, -24(%rbp)
	movq	8(%rsi), %rcx
	movq	%rcx, -16(%rbp)
	movq	16(%rsi), %rcx
	movq	%rcx, -8(%rbp)
	.loc	16 846 9 is_stmt 0
	movq	-24(%rbp), %rcx
	movq	%rcx, (%rdi)
	movq	-16(%rbp), %rcx
	movq	%rcx, 8(%rdi)
	movq	-8(%rbp), %rcx
	movq	%rcx, 16(%rdi)
	.loc	16 847 6 is_stmt 1
	addq	$24, %rsp
	popq	%rbp
	retq
Ltmp709:
Lfunc_end103:
	.cfi_endproc

	.p2align	4, 0x90
__ZN5alloc6string6String4push17h0799d4bf86cabc9bE:
Lfunc_begin104:
	.loc	16 1223 0
	.cfi_startproc
	pushq	%rbp
	.cfi_def_cfa_offset 16
	.cfi_offset %rbp, -16
	movq	%rsp, %rbp
	.cfi_def_cfa_register %rbp
	subq	$112, %rsp
	movl	%esi, -108(%rbp)
	movq	%rdi, %rax
	movl	-108(%rbp), %edi
	movq	%rax, -104(%rbp)
	movl	%edi, -96(%rbp)
	movq	%rax, -88(%rbp)
	movl	%edi, -76(%rbp)
Ltmp710:
	.loc	16 1224 15 prologue_end
	movl	%edi, -72(%rbp)
Ltmp711:
	.loc	30 594 9
	callq	__ZN4core4char7methods8len_utf817h82d5d2258bddc75aE
Ltmp712:
	.loc	16 1224 9
	cmpq	$1, %rax
	jne	LBB104_2
	.loc	16 0 9 is_stmt 0
	movq	-104(%rbp), %rdi
	movl	-96(%rbp), %eax
	.loc	16 1225 18 is_stmt 1
	movzbl	%al, %esi
	callq	__ZN5alloc3vec16Vec$LT$T$C$A$GT$4push17ha68ee67016c08a16E
	.loc	16 1225 40 is_stmt 0
	jmp	LBB104_3
LBB104_2:
	.loc	16 0 40
	movl	-96(%rbp), %eax
	.loc	16 1226 45 is_stmt 1
	movl	%eax, -68(%rbp)
	.loc	16 1226 65 is_stmt 0
	leaq	-92(%rbp), %rdi
	xorl	%esi, %esi
	movl	$4, %edx
	callq	_memset
	movl	-96(%rbp), %edi
	.loc	16 1226 60
	leaq	-92(%rbp), %rax
	movq	%rax, -64(%rbp)
	movq	$4, -56(%rbp)
Ltmp713:
	.loc	30 663 42 is_stmt 1
	leaq	-92(%rbp), %rsi
	movl	$4, %edx
	callq	__ZN4core4char7methods15encode_utf8_raw17h03348cb5c4d0711cE
	movq	-104(%rbp), %rdi
	movq	%rax, -48(%rbp)
	movq	%rdx, -40(%rbp)
Ltmp714:
	.loc	16 1226 45
	movq	%rax, -32(%rbp)
	movq	%rdx, -24(%rbp)
Ltmp715:
	.loc	28 327 18
	movq	%rax, -16(%rbp)
	movq	%rdx, -8(%rbp)
	movq	-16(%rbp), %rsi
	movq	-8(%rbp), %rdx
Ltmp716:
	.loc	16 1226 18
	callq	__ZN5alloc3vec16Vec$LT$T$C$A$GT$17extend_from_slice17h9d1ae5f867e01fcfE
LBB104_3:
	.loc	16 1228 6
	addq	$112, %rsp
	popq	%rbp
	retq
Ltmp717:
Lfunc_end104:
	.cfi_endproc

	.globl	__ZN5alloc7raw_vec11finish_grow17haa2f6b1a8731324aE
	.p2align	4, 0x90
__ZN5alloc7raw_vec11finish_grow17haa2f6b1a8731324aE:
Lfunc_begin105:
	.loc	42 448 0
	.cfi_startproc
	pushq	%rbp
	.cfi_def_cfa_offset 16
	.cfi_offset %rbp, -16
	movq	%rsp, %rbp
	.cfi_def_cfa_register %rbp
	subq	$512, %rsp
	movq	%r8, -504(%rbp)
	movq	%rcx, -496(%rbp)
Ltmp718:
	movq	%rdi, -488(%rbp)
	movq	%rdi, -480(%rbp)
	movq	%rsi, -240(%rbp)
	movq	%rdx, -232(%rbp)
Ltmp719:
	movq	%r8, -224(%rbp)
Ltmp720:
	.loc	42 457 22 prologue_end
	leaq	-432(%rbp), %rdi
	callq	__ZN4core6result19Result$LT$T$C$E$GT$7map_err17h8ecda7ecbf87ab6aE
Ltmp721:
	.loc	38 2091 9
	cmpq	$0, -432(%rbp)
Ltmp722:
	jne	LBB105_2
Ltmp723:
	.loc	38 2092 16
	movq	-424(%rbp), %rcx
	movq	-416(%rbp), %rax
	movq	%rcx, -184(%rbp)
	movq	%rax, -176(%rbp)
Ltmp724:
	.loc	38 2092 22 is_stmt 0
	movq	%rcx, -448(%rbp)
	movq	%rax, -440(%rbp)
	movq	$0, -456(%rbp)
Ltmp725:
	.loc	38 2092 45
	jmp	LBB105_3
Ltmp726:
LBB105_2:
	.loc	38 2093 17 is_stmt 1
	movq	-424(%rbp), %rcx
	movq	-416(%rbp), %rax
	movq	%rcx, -200(%rbp)
	movq	%rax, -192(%rbp)
Ltmp727:
	.loc	38 2093 42 is_stmt 0
	movq	%rcx, -304(%rbp)
	movq	%rax, -296(%rbp)
	.loc	38 2093 23
	movq	-304(%rbp), %rcx
	movq	-296(%rbp), %rax
	movq	%rcx, -448(%rbp)
	movq	%rax, -440(%rbp)
	movq	$1, -456(%rbp)
Ltmp728:
LBB105_3:
	.loc	42 457 22 is_stmt 1
	cmpq	$0, -456(%rbp)
	jne	LBB105_5
Ltmp729:
	movq	-448(%rbp), %rcx
	movq	-440(%rbp), %rax
	movq	%rcx, -120(%rbp)
	movq	%rax, -112(%rbp)
Ltmp730:
	.loc	42 457 22 is_stmt 0
	movq	%rcx, -472(%rbp)
	movq	%rax, -464(%rbp)
Ltmp731:
	.loc	42 509 9 is_stmt 1
	movabsq	$-9223372036854775807, %rax
	movq	%rax, -368(%rbp)
Ltmp732:
	.loc	38 2091 15
	movabsq	$-9223372036854775807, %rdx
	movl	$1, %eax
	xorl	%ecx, %ecx
	cmpq	%rdx, -368(%rbp)
	cmoveq	%rcx, %rax
	.loc	38 2091 9 is_stmt 0
	cmpq	$0, %rax
	je	LBB105_7
	jmp	LBB105_8
Ltmp733:
LBB105_5:
	.loc	38 0 9
	movq	-488(%rbp), %rax
	.loc	42 457 62 is_stmt 1
	movq	-448(%rbp), %rdx
	movq	-440(%rbp), %rcx
	movq	%rdx, -168(%rbp)
	movq	%rcx, -160(%rbp)
Ltmp734:
	.loc	42 457 62 is_stmt 0
	movq	%rdx, -408(%rbp)
	movq	%rcx, -400(%rbp)
Ltmp735:
	.loc	38 2107 17 is_stmt 1
	movq	-408(%rbp), %rdx
	movq	-400(%rbp), %rcx
	movq	%rdx, -152(%rbp)
	movq	%rcx, -144(%rbp)
Ltmp736:
	.loc	38 2107 38 is_stmt 0
	movq	%rdx, -136(%rbp)
	movq	%rcx, -128(%rbp)
Ltmp737:
	.loc	8 117 9 is_stmt 1
	movq	%rdx, -288(%rbp)
	movq	%rcx, -280(%rbp)
Ltmp738:
	.loc	38 2107 23
	movq	-288(%rbp), %rdx
	movq	-280(%rbp), %rcx
	movq	%rdx, 8(%rax)
	movq	%rcx, 16(%rax)
	movq	$1, (%rax)
Ltmp739:
LBB105_6:
	.loc	42 473 2
	jmp	LBB105_12
Ltmp740:
LBB105_7:
	.loc	38 2092 22
	movabsq	$-9223372036854775807, %rax
	movq	%rax, -384(%rbp)
Ltmp741:
	.loc	38 2092 45 is_stmt 0
	jmp	LBB105_9
Ltmp742:
LBB105_8:
	.loc	38 2093 17 is_stmt 1
	movq	-376(%rbp), %rcx
	movq	-368(%rbp), %rax
	movq	%rcx, -104(%rbp)
	movq	%rax, -96(%rbp)
Ltmp743:
	.loc	38 2093 42 is_stmt 0
	movq	%rcx, -272(%rbp)
	movq	%rax, -264(%rbp)
	.loc	38 2093 23
	movq	-272(%rbp), %rcx
	movq	-264(%rbp), %rax
	movq	%rcx, -392(%rbp)
	movq	%rax, -384(%rbp)
Ltmp744:
LBB105_9:
	.loc	42 459 5 is_stmt 1
	movabsq	$-9223372036854775807, %rdx
	movl	$1, %eax
	xorl	%ecx, %ecx
	cmpq	%rdx, -384(%rbp)
	cmoveq	%rcx, %rax
	cmpq	$0, %rax
	jne	LBB105_11
Ltmp745:
	.loc	42 0 5 is_stmt 0
	movq	-496(%rbp), %rdx
Ltmp746:
	.loc	42 461 25 is_stmt 1
	movl	$1, %eax
	xorl	%ecx, %ecx
	cmpq	$0, 16(%rdx)
	cmoveq	%rcx, %rax
	cmpq	$1, %rax
	je	LBB105_13
	jmp	LBB105_14
Ltmp747:
LBB105_11:
	.loc	42 0 25 is_stmt 0
	movq	-488(%rbp), %rax
	.loc	42 459 35 is_stmt 1
	movq	-392(%rbp), %rdx
	movq	-384(%rbp), %rcx
	movq	%rdx, -88(%rbp)
	movq	%rcx, -80(%rbp)
Ltmp748:
	.loc	42 459 35 is_stmt 0
	movq	%rdx, -360(%rbp)
	movq	%rcx, -352(%rbp)
Ltmp749:
	.loc	38 2107 17 is_stmt 1
	movq	-360(%rbp), %rdx
	movq	-352(%rbp), %rcx
	movq	%rdx, -72(%rbp)
	movq	%rcx, -64(%rbp)
Ltmp750:
	.loc	38 2107 38 is_stmt 0
	movq	%rdx, -56(%rbp)
	movq	%rcx, -48(%rbp)
	.loc	38 2107 23
	movq	%rdx, 8(%rax)
	movq	%rcx, 16(%rax)
	movq	$1, (%rax)
Ltmp751:
	.loc	45 1 1 is_stmt 1
	jmp	LBB105_6
Ltmp752:
LBB105_12:
	.loc	45 0 1 is_stmt 0
	movq	-480(%rbp), %rax
	.loc	42 473 2 is_stmt 1
	addq	$512, %rsp
	popq	%rbp
	retq
Ltmp753:
LBB105_13:
	.loc	42 0 2 is_stmt 0
	movq	-504(%rbp), %rdi
	movq	-496(%rbp), %rax
Ltmp754:
	.loc	42 461 31 is_stmt 1
	movq	(%rax), %rsi
	movq	%rsi, -40(%rbp)
	.loc	42 461 36 is_stmt 0
	movq	8(%rax), %rcx
	movq	16(%rax), %rax
	movq	%rcx, -328(%rbp)
	movq	%rax, -320(%rbp)
	leaq	-328(%rbp), %rax
	.loc	42 465 32 is_stmt 1
	movq	%rax, -32(%rbp)
Ltmp755:
	.loc	32 140 9
	movq	-320(%rbp), %rax
	movq	%rax, -24(%rbp)
Ltmp756:
	.loc	33 97 9
	movq	%rax, -256(%rbp)
	leaq	-472(%rbp), %rax
Ltmp757:
	.loc	42 465 54
	movq	%rax, -16(%rbp)
Ltmp758:
	.loc	32 140 9
	movq	-464(%rbp), %rax
	movq	%rax, -8(%rbp)
Ltmp759:
	.loc	33 97 9
	movq	%rax, -248(%rbp)
Ltmp760:
	.loc	42 466 29
	movq	-328(%rbp), %rdx
	movq	-320(%rbp), %rcx
	.loc	42 466 41 is_stmt 0
	movq	-472(%rbp), %r8
	movq	-464(%rbp), %r9
	.loc	42 466 13
	callq	__ZN63_$LT$alloc..alloc..Global$u20$as$u20$core..alloc..Allocator$GT$4grow17hed4a59dc1d9899cfE
	movq	%rdx, -336(%rbp)
	movq	%rax, -344(%rbp)
Ltmp761:
	.loc	42 461 18 is_stmt 1
	jmp	LBB105_15
Ltmp762:
LBB105_14:
	.loc	42 0 18 is_stmt 0
	movq	-504(%rbp), %rdi
	.loc	42 469 24 is_stmt 1
	movq	-472(%rbp), %rsi
	movq	-464(%rbp), %rdx
	.loc	42 469 9 is_stmt 0
	callq	__ZN63_$LT$alloc..alloc..Global$u20$as$u20$core..alloc..Allocator$GT$8allocate17h6614b37f1802b2a2E
	movq	%rdx, -336(%rbp)
	movq	%rax, -344(%rbp)
Ltmp763:
LBB105_15:
	.loc	42 0 9
	movq	-488(%rbp), %rdi
Ltmp764:
	.loc	42 472 5 is_stmt 1
	movq	-344(%rbp), %rsi
	movq	-336(%rbp), %rdx
	.loc	42 472 20 is_stmt 0
	leaq	-472(%rbp), %rax
	movq	%rax, -312(%rbp)
	.loc	42 472 5
	movq	-312(%rbp), %rcx
	callq	__ZN4core6result19Result$LT$T$C$E$GT$7map_err17h5cf836d991c20951E
Ltmp765:
	.loc	42 473 2 is_stmt 1
	jmp	LBB105_12
Ltmp766:
Lfunc_end105:
	.cfi_endproc

	.globl	__ZN5alloc7raw_vec11finish_grow28_$u7b$$u7b$closure$u7d$$u7d$17hde4ff47f925364baE
	.p2align	4, 0x90
__ZN5alloc7raw_vec11finish_grow28_$u7b$$u7b$closure$u7d$$u7d$17hde4ff47f925364baE:
Lfunc_begin106:
	.loc	42 472 0
	.cfi_startproc
	pushq	%rbp
	.cfi_def_cfa_offset 16
	.cfi_offset %rbp, -16
	movq	%rsp, %rbp
	.cfi_def_cfa_register %rbp
	subq	$32, %rsp
	movq	%rdi, -32(%rbp)
Ltmp767:
	.loc	42 472 45 prologue_end
	movq	-32(%rbp), %rax
	movq	(%rax), %rcx
	movq	8(%rax), %rax
	.loc	42 472 24 is_stmt 0
	movq	%rcx, -24(%rbp)
	movq	%rax, -16(%rbp)
	movq	-24(%rbp), %rdi
	movq	-16(%rbp), %rsi
	callq	__ZN50_$LT$T$u20$as$u20$core..convert..Into$LT$U$GT$$GT$4into17hba30e3cf5030e1e5E
	.loc	42 472 84
	addq	$32, %rsp
	popq	%rbp
	retq
Ltmp768:
Lfunc_end106:
	.cfi_endproc

	.globl	__ZN5alloc7raw_vec11finish_grow28_$u7b$$u7b$closure$u7d$$u7d$17heb0b2c2244597123E
	.p2align	4, 0x90
__ZN5alloc7raw_vec11finish_grow28_$u7b$$u7b$closure$u7d$$u7d$17heb0b2c2244597123E:
Lfunc_begin107:
	.loc	42 457 0 is_stmt 1
	.cfi_startproc
	pushq	%rbp
	.cfi_def_cfa_offset 16
	.cfi_offset %rbp, -16
	movq	%rsp, %rbp
	.cfi_def_cfa_register %rbp
	subq	$32, %rsp
Ltmp769:
	.loc	42 457 45 prologue_end
	movq	$0, -24(%rbp)
	.loc	42 457 61 is_stmt 0
	movq	-32(%rbp), %rax
	movq	-24(%rbp), %rdx
	addq	$32, %rsp
	popq	%rbp
	retq
Ltmp770:
Lfunc_end107:
	.cfi_endproc

	.p2align	4, 0x90
__ZN5alloc7raw_vec14handle_reserve17h735ed70f53c16dfcE:
Lfunc_begin108:
	.loc	42 487 0 is_stmt 1
	.cfi_startproc
	pushq	%rbp
	.cfi_def_cfa_offset 16
	.cfi_offset %rbp, -16
	movq	%rsp, %rbp
	.cfi_def_cfa_register %rbp
	subq	$48, %rsp
	movq	%rdi, -32(%rbp)
	movq	%rsi, -24(%rbp)
Ltmp771:
	.loc	42 488 11 prologue_end
	callq	__ZN4core6result19Result$LT$T$C$E$GT$7map_err17heff9983211665083E
	movq	%rdx, -40(%rbp)
	movq	%rax, -48(%rbp)
	movabsq	$-9223372036854775807, %rdx
	movl	$1, %eax
	xorl	%ecx, %ecx
	cmpq	%rdx, -40(%rbp)
	cmoveq	%rcx, %rax
	.loc	42 488 5 is_stmt 0
	cmpq	$0, %rax
	jne	LBB108_2
	.loc	42 493 2 is_stmt 1
	addq	$48, %rsp
	popq	%rbp
	retq
LBB108_2:
	.loc	42 488 11
	movl	$1, %eax
	xorl	%ecx, %ecx
	cmpq	$0, -40(%rbp)
	cmoveq	%rcx, %rax
	.loc	42 488 5 is_stmt 0
	cmpq	$0, %rax
	jne	LBB108_4
	.loc	42 489 34 is_stmt 1
	callq	__ZN5alloc7raw_vec17capacity_overflow17h082ee8492f253a0eE
LBB108_4:
	.loc	42 490 26
	movq	-48(%rbp), %rdi
	movq	-40(%rbp), %rsi
	movq	%rdi, -16(%rbp)
	movq	%rsi, -8(%rbp)
Ltmp772:
	.loc	42 490 43 is_stmt 0
	callq	__ZN5alloc5alloc18handle_alloc_error17hb5f6ff255f23ea4dE
Ltmp773:
Lfunc_end108:
	.cfi_endproc

	.globl	__ZN5alloc7raw_vec14handle_reserve28_$u7b$$u7b$closure$u7d$$u7d$17h58f0e805f3f71a71E
	.p2align	4, 0x90
__ZN5alloc7raw_vec14handle_reserve28_$u7b$$u7b$closure$u7d$$u7d$17h58f0e805f3f71a71E:
Lfunc_begin109:
	.loc	42 488 0 is_stmt 1
	.cfi_startproc
	pushq	%rbp
	.cfi_def_cfa_offset 16
	.cfi_offset %rbp, -16
	movq	%rsp, %rbp
	.cfi_def_cfa_register %rbp
	subq	$72, %rsp
	movq	%rdi, -72(%rbp)
	movq	%rsi, -64(%rbp)
Ltmp774:
	.loc	42 488 30 prologue_end
	leaq	-72(%rbp), %rax
	movq	%rax, -32(%rbp)
Ltmp775:
	.loc	8 75 9
	leaq	-72(%rbp), %rax
	movq	%rax, -24(%rbp)
Ltmp776:
	.loc	8 80 10
	movl	$1, %eax
	xorl	%ecx, %ecx
	cmpq	$0, -64(%rbp)
	cmoveq	%rcx, %rax
	cmpq	$0, %rax
	jne	LBB109_2
	movq	$0, -48(%rbp)
	jmp	LBB109_3
LBB109_2:
	.loc	8 94 9
	leaq	-72(%rbp), %rax
	movq	%rax, -16(%rbp)
Ltmp777:
	.loc	8 94 9 is_stmt 0
	leaq	-72(%rbp), %rax
	movq	%rax, -8(%rbp)
Ltmp778:
	.loc	32 36 16 is_stmt 1
	movq	-72(%rbp), %rcx
	movq	-64(%rbp), %rax
Ltmp779:
	.loc	8 80 10
	movq	%rcx, -56(%rbp)
	movq	%rax, -48(%rbp)
Ltmp780:
LBB109_3:
	.loc	42 488 38
	movq	-56(%rbp), %rax
	movq	-48(%rbp), %rdx
	addq	$72, %rsp
	popq	%rbp
	retq
Ltmp781:
Lfunc_end109:
	.cfi_endproc

	.globl	__ZN5alloc7raw_vec19RawVec$LT$T$C$A$GT$11allocate_in17h3aa76b6bd8fe6198E
	.p2align	4, 0x90
__ZN5alloc7raw_vec19RawVec$LT$T$C$A$GT$11allocate_in17h3aa76b6bd8fe6198E:
Lfunc_begin110:
	.loc	42 169 0
	.cfi_startproc
	.cfi_personality 155, _rust_eh_personality
	.cfi_lsda 16, Lexception12
	pushq	%rbp
	.cfi_def_cfa_offset 16
	.cfi_offset %rbp, -16
	movq	%rsp, %rbp
	.cfi_def_cfa_register %rbp
	subq	$384, %rsp
	movq	%rdi, -296(%rbp)
	movb	%sil, %al
	andb	$1, %al
	movb	%al, -281(%rbp)
	movq	%rdi, -168(%rbp)
Ltmp797:
	.loc	42 171 12 prologue_end
	movb	$1, -177(%rbp)
	xorl	%eax, %eax
	testb	$1, %al
	jne	LBB110_2
	.loc	42 0 12 is_stmt 0
	movq	-296(%rbp), %rax
	.loc	42 171 25
	cmpq	$0, %rax
	sete	%al
	.loc	42 171 12
	andb	$1, %al
	movb	%al, -249(%rbp)
	jmp	LBB110_3
LBB110_2:
	movb	$1, -249(%rbp)
LBB110_3:
	testb	$1, -249(%rbp)
	jne	LBB110_5
	.loc	42 0 12
	movq	-296(%rbp), %rax
	.loc	42 176 51 is_stmt 1
	movq	%rax, -144(%rbp)
Ltmp798:
	.loc	23 459 5
	movq	$1, -136(%rbp)
Ltmp799:
	.loc	33 89 18
	movq	$1, -128(%rbp)
	movq	-128(%rbp), %rax
	movq	%rax, -304(%rbp)
	jmp	LBB110_10
Ltmp800:
LBB110_5:
	.loc	42 172 26
	movb	$0, -177(%rbp)
Ltmp794:
	.loc	42 172 13 is_stmt 0
	callq	__ZN5alloc7raw_vec19RawVec$LT$T$C$A$GT$6new_in17h1e72bbe95c043b53E
Ltmp795:
	movq	%rdx, -320(%rbp)
	movq	%rax, -312(%rbp)
	jmp	LBB110_8
LBB110_6:
	.loc	42 202 5 is_stmt 1
	testb	$1, -177(%rbp)
	jne	LBB110_25
	jmp	LBB110_24
LBB110_7:
Ltmp796:
	.loc	42 0 5 is_stmt 0
	movq	%rax, %rcx
	movl	%edx, %eax
	movq	%rcx, -160(%rbp)
	movl	%eax, -152(%rbp)
	jmp	LBB110_6
LBB110_8:
	movq	-320(%rbp), %rax
	movq	-312(%rbp), %rcx
	.loc	42 172 13 is_stmt 1
	movq	%rcx, -272(%rbp)
	movq	%rax, -264(%rbp)
LBB110_9:
	.loc	42 202 6
	movq	-272(%rbp), %rax
	movq	-264(%rbp), %rdx
	addq	$384, %rsp
	popq	%rbp
	retq
LBB110_10:
Ltmp782:
	.loc	42 0 6 is_stmt 0
	movq	-296(%rbp), %rdx
	movq	-304(%rbp), %rsi
	movl	$1, %edi
Ltmp801:
	.loc	32 438 16 is_stmt 1
	callq	__ZN4core5alloc6layout6Layout5array5inner17h7a8ce0906b6bc105E
Ltmp783:
	movq	%rdx, -336(%rbp)
	movq	%rax, -328(%rbp)
	jmp	LBB110_11
LBB110_11:
	.loc	32 0 16 is_stmt 0
	movq	-336(%rbp), %rax
	movq	-328(%rbp), %rcx
	.loc	32 438 16
	movq	%rcx, -248(%rbp)
	movq	%rax, -240(%rbp)
Ltmp802:
	.loc	42 176 32 is_stmt 1
	xorl	%eax, %eax
	movl	$1, %ecx
	cmpq	$0, -240(%rbp)
	cmoveq	%rcx, %rax
	.loc	42 176 26 is_stmt 0
	cmpq	$0, %rax
	jne	LBB110_13
	.loc	42 177 20 is_stmt 1
	movq	-248(%rbp), %rcx
	movq	%rcx, -352(%rbp)
	movq	-240(%rbp), %rax
	movq	%rax, -344(%rbp)
	movq	%rcx, -120(%rbp)
	movq	%rax, -112(%rbp)
Ltmp803:
	.loc	42 177 31 is_stmt 0
	movq	%rcx, -104(%rbp)
	movq	%rax, -96(%rbp)
Ltmp804:
	.loc	42 509 9 is_stmt 1
	movabsq	$-9223372036854775807, %rax
	movq	%rax, -224(%rbp)
Ltmp805:
	.loc	42 180 19
	movabsq	$-9223372036854775807, %rdx
	movl	$1, %eax
	xorl	%ecx, %ecx
	cmpq	%rdx, -224(%rbp)
	cmoveq	%rcx, %rax
	.loc	42 180 13 is_stmt 0
	cmpq	$0, %rax
	je	LBB110_15
	jmp	LBB110_16
Ltmp806:
LBB110_13:
Ltmp784:
	.loc	42 178 27 is_stmt 1
	callq	__ZN5alloc7raw_vec17capacity_overflow17h082ee8492f253a0eE
Ltmp785:
	jmp	LBB110_14
LBB110_14:
	.loc	42 0 27 is_stmt 0
	ud2
LBB110_15:
Ltmp807:
	.loc	42 184 32 is_stmt 1
	movb	-281(%rbp), %al
	andb	$1, %al
	movzbl	%al, %eax
	.loc	42 184 26 is_stmt 0
	cmpq	$0, %rax
	je	LBB110_17
	jmp	LBB110_18
LBB110_16:
Ltmp786:
	.loc	42 182 27 is_stmt 1
	callq	__ZN5alloc7raw_vec17capacity_overflow17h082ee8492f253a0eE
Ltmp787:
	jmp	LBB110_14
LBB110_17:
Ltmp790:
	.loc	42 0 27 is_stmt 0
	movq	-344(%rbp), %rdx
	movq	-352(%rbp), %rsi
	leaq	-280(%rbp), %rdi
	.loc	42 185 45 is_stmt 1
	callq	__ZN63_$LT$alloc..alloc..Global$u20$as$u20$core..alloc..Allocator$GT$8allocate17h6614b37f1802b2a2E
Ltmp791:
	movq	%rdx, -368(%rbp)
	movq	%rax, -360(%rbp)
	jmp	LBB110_21
LBB110_18:
Ltmp788:
	.loc	42 0 45 is_stmt 0
	movq	-344(%rbp), %rdx
	movq	-352(%rbp), %rsi
	leaq	-280(%rbp), %rdi
	.loc	42 186 38 is_stmt 1
	callq	__ZN63_$LT$alloc..alloc..Global$u20$as$u20$core..alloc..Allocator$GT$15allocate_zeroed17h1b44c67590925f70E
Ltmp789:
	movq	%rdx, -384(%rbp)
	movq	%rax, -376(%rbp)
	jmp	LBB110_19
LBB110_19:
	.loc	42 0 38 is_stmt 0
	movq	-384(%rbp), %rax
	movq	-376(%rbp), %rcx
	.loc	42 186 38
	movq	%rcx, -216(%rbp)
	movq	%rax, -208(%rbp)
LBB110_20:
Ltmp808:
	.loc	42 188 29 is_stmt 1
	movq	-216(%rbp), %rdx
	xorl	%eax, %eax
	movl	$1, %ecx
	cmpq	$0, %rdx
	cmoveq	%rcx, %rax
	.loc	42 188 23 is_stmt 0
	cmpq	$0, %rax
	je	LBB110_22
	jmp	LBB110_23
Ltmp809:
LBB110_21:
	.loc	42 0 23
	movq	-368(%rbp), %rax
	movq	-360(%rbp), %rcx
	.loc	42 185 45 is_stmt 1
	movq	%rcx, -216(%rbp)
	movq	%rax, -208(%rbp)
	.loc	42 185 66 is_stmt 0
	jmp	LBB110_20
LBB110_22:
	.loc	42 0 66
	movq	-296(%rbp), %rax
Ltmp810:
	.loc	42 189 20 is_stmt 1
	movq	-216(%rbp), %rcx
	movq	-208(%rbp), %rdx
	movq	%rcx, -88(%rbp)
	movq	%rdx, -80(%rbp)
Ltmp811:
	.loc	42 189 28 is_stmt 0
	movq	%rcx, -72(%rbp)
	movq	%rdx, -64(%rbp)
Ltmp812:
	.loc	42 197 53 is_stmt 1
	movq	%rcx, -56(%rbp)
	movq	%rdx, -48(%rbp)
Ltmp813:
	.loc	6 450 41
	movq	%rcx, -40(%rbp)
	movq	%rdx, -32(%rbp)
	movq	%rcx, -24(%rbp)
Ltmp814:
	.loc	6 201 13
	movq	%rcx, -192(%rbp)
Ltmp815:
	.loc	6 326 9
	movq	-192(%rbp), %rcx
	movq	%rcx, -16(%rbp)
Ltmp816:
	.loc	7 87 59
	movq	%rcx, -8(%rbp)
Ltmp817:
	.loc	6 201 13
	movq	%rcx, -176(%rbp)
Ltmp818:
	.loc	7 87 18
	movq	-176(%rbp), %rcx
	movq	%rcx, -200(%rbp)
Ltmp819:
	.loc	42 196 13
	movq	-200(%rbp), %rcx
	movq	%rcx, -264(%rbp)
	movq	%rax, -272(%rbp)
Ltmp820:
	.loc	42 171 9
	jmp	LBB110_9
LBB110_23:
Ltmp792:
	.loc	42 0 9 is_stmt 0
	movq	-344(%rbp), %rsi
	movq	-352(%rbp), %rdi
Ltmp821:
	.loc	42 190 27 is_stmt 1
	callq	__ZN5alloc5alloc18handle_alloc_error17hb5f6ff255f23ea4dE
Ltmp793:
	jmp	LBB110_14
Ltmp822:
LBB110_24:
	.loc	42 169 5
	movq	-160(%rbp), %rdi
	callq	__Unwind_Resume
LBB110_25:
	.loc	42 202 5
	jmp	LBB110_24
Ltmp823:
Lfunc_end110:
	.cfi_endproc
	.section	__TEXT,__gcc_except_tab
	.p2align	2
GCC_except_table110:
Lexception12:
	.byte	255
	.byte	255
	.byte	1
	.uleb128 Lcst_end12-Lcst_begin12
Lcst_begin12:
	.uleb128 Ltmp794-Lfunc_begin110
	.uleb128 Ltmp793-Ltmp794
	.uleb128 Ltmp796-Lfunc_begin110
	.byte	0
	.uleb128 Ltmp793-Lfunc_begin110
	.uleb128 Lfunc_end110-Ltmp793
	.byte	0
	.byte	0
Lcst_end12:
	.p2align	2

	.section	__TEXT,__text,regular,pure_instructions
	.globl	__ZN5alloc7raw_vec19RawVec$LT$T$C$A$GT$13needs_to_grow17hfda91fc3d3bb987aE
	.p2align	4, 0x90
__ZN5alloc7raw_vec19RawVec$LT$T$C$A$GT$13needs_to_grow17hfda91fc3d3bb987aE:
Lfunc_begin111:
	.loc	42 360 0
	.cfi_startproc
	pushq	%rbp
	.cfi_def_cfa_offset 16
	.cfi_offset %rbp, -16
	movq	%rsp, %rbp
	.cfi_def_cfa_register %rbp
	subq	$72, %rsp
	movq	%rdi, -72(%rbp)
	movq	%rsi, -64(%rbp)
	movq	%rdx, -56(%rbp)
	movq	%rdi, -40(%rbp)
	movq	%rsi, -32(%rbp)
	movq	%rdx, -24(%rbp)
Ltmp824:
	.loc	42 361 22 prologue_end
	movq	%rdi, -16(%rbp)
Ltmp825:
	.loc	42 232 12
	xorl	%eax, %eax
	testb	$1, %al
	jne	LBB111_2
	.loc	42 0 12 is_stmt 0
	movq	-72(%rbp), %rax
	.loc	42 232 44
	movq	(%rax), %rax
	movq	%rax, -48(%rbp)
	.loc	42 232 9
	jmp	LBB111_3
LBB111_2:
	.loc	42 232 24
	movq	$-1, -48(%rbp)
Ltmp826:
LBB111_3:
	.loc	42 0 24
	movq	-56(%rbp), %rax
	movq	-64(%rbp), %rdx
	.loc	42 361 51 is_stmt 1
	movq	%rdx, -8(%rbp)
Ltmp827:
	.loc	26 1203 38
	movq	-48(%rbp), %rcx
	.loc	26 1203 13 is_stmt 0
	subq	%rdx, %rcx
Ltmp828:
	.loc	42 361 9 is_stmt 1
	cmpq	%rcx, %rax
	seta	%al
	.loc	42 362 6
	andb	$1, %al
	movzbl	%al, %eax
	addq	$72, %rsp
	popq	%rbp
	retq
Ltmp829:
Lfunc_end111:
	.cfi_endproc

	.globl	__ZN5alloc7raw_vec19RawVec$LT$T$C$A$GT$14current_memory17h684fc83632e3ee9eE
	.p2align	4, 0x90
__ZN5alloc7raw_vec19RawVec$LT$T$C$A$GT$14current_memory17h684fc83632e3ee9eE:
Lfunc_begin112:
	.loc	42 240 0
	.cfi_startproc
	pushq	%rbp
	.cfi_def_cfa_offset 16
	.cfi_offset %rbp, -16
	movq	%rsp, %rbp
	.cfi_def_cfa_register %rbp
	subq	$176, %rsp
	movq	%rsi, -152(%rbp)
	movq	%rdi, -144(%rbp)
	movq	%rdi, -136(%rbp)
	movq	%rsi, -80(%rbp)
Ltmp830:
	.loc	42 241 12 prologue_end
	xorl	%eax, %eax
	testb	$1, %al
	jne	LBB112_2
	.loc	42 0 12 is_stmt 0
	movq	-152(%rbp), %rax
	.loc	42 241 25
	cmpq	$0, (%rax)
	sete	%al
	.loc	42 241 12
	andb	$1, %al
	movb	%al, -121(%rbp)
	jmp	LBB112_3
LBB112_2:
	movb	$1, -121(%rbp)
LBB112_3:
	testb	$1, -121(%rbp)
	jne	LBB112_5
	.loc	42 0 12
	movq	-152(%rbp), %rax
	.loc	42 247 49 is_stmt 1
	movq	(%rax), %rdx
	movq	%rdx, -72(%rbp)
Ltmp831:
	.loc	23 459 5
	movq	$1, -64(%rbp)
Ltmp832:
	.loc	33 89 18
	movq	$1, -56(%rbp)
	movq	-56(%rbp), %rsi
Ltmp833:
	.loc	32 438 16
	movl	$1, %edi
	callq	__ZN4core5alloc6layout6Layout5array5inner17h7a8ce0906b6bc105E
	movq	%rax, %rdi
	movq	%rdx, %rsi
Ltmp834:
	.loc	42 247 30
	leaq	l___unnamed_21(%rip), %rdx
	callq	__ZN4core6result19Result$LT$T$C$E$GT$16unwrap_unchecked17h299a5baaedc31e99E
	movq	%rax, %rcx
	movq	-152(%rbp), %rax
	movq	%rcx, -168(%rbp)
	movq	%rdx, -160(%rbp)
	movq	%rcx, -48(%rbp)
	movq	%rdx, -40(%rbp)
Ltmp835:
	.loc	42 248 23
	movq	8(%rax), %rax
	movq	%rax, -32(%rbp)
Ltmp836:
	.loc	7 137 22
	movq	%rax, -24(%rbp)
Ltmp837:
	.loc	6 450 41
	movq	%rax, -16(%rbp)
	movq	%rax, -8(%rbp)
Ltmp838:
	.loc	6 201 13
	movq	%rax, -88(%rbp)
Ltmp839:
	.loc	7 191 18
	movq	-88(%rbp), %rax
	.loc	7 191 9 is_stmt 0
	movq	%rax, -96(%rbp)
Ltmp840:
	.loc	42 248 23 is_stmt 1
	movq	-96(%rbp), %rdi
	callq	__ZN50_$LT$T$u20$as$u20$core..convert..Into$LT$U$GT$$GT$4into17hfeda1745c8b1ad4dE
	movq	-168(%rbp), %rcx
	movq	-160(%rbp), %rdx
	movq	%rax, %rsi
	movq	-144(%rbp), %rax
	.loc	42 248 22 is_stmt 0
	movq	%rsi, -120(%rbp)
	movq	%rcx, -112(%rbp)
	movq	%rdx, -104(%rbp)
	.loc	42 248 17
	movq	-120(%rbp), %rcx
	movq	%rcx, (%rax)
	movq	-112(%rbp), %rcx
	movq	%rcx, 8(%rax)
	movq	-104(%rbp), %rcx
	movq	%rcx, 16(%rax)
Ltmp841:
	.loc	42 241 9 is_stmt 1
	jmp	LBB112_6
LBB112_5:
	.loc	42 0 9 is_stmt 0
	movq	-144(%rbp), %rax
	.loc	42 242 13 is_stmt 1
	movq	$0, 16(%rax)
LBB112_6:
	.loc	42 0 13 is_stmt 0
	movq	-136(%rbp), %rax
	.loc	42 251 6 is_stmt 1
	addq	$176, %rsp
	popq	%rbp
	retq
Ltmp842:
Lfunc_end112:
	.cfi_endproc

	.globl	__ZN5alloc7raw_vec19RawVec$LT$T$C$A$GT$14grow_amortized17hcd5e84a27ddcf324E
	.p2align	4, 0x90
__ZN5alloc7raw_vec19RawVec$LT$T$C$A$GT$14grow_amortized17hcd5e84a27ddcf324E:
Lfunc_begin113:
	.loc	42 379 0
	.cfi_startproc
	pushq	%rbp
	.cfi_def_cfa_offset 16
	.cfi_offset %rbp, -16
	movq	%rsp, %rbp
	.cfi_def_cfa_register %rbp
	subq	$656, %rsp
	movq	%rdi, -624(%rbp)
	movq	%rsi, -616(%rbp)
	movq	%rdx, -608(%rbp)
	movq	%rdi, -352(%rbp)
	movq	%rsi, -344(%rbp)
	movq	%rdx, -336(%rbp)
Ltmp843:
	.loc	42 383 12 prologue_end
	xorl	%eax, %eax
	testb	$1, %al
	jne	LBB113_2
	.loc	42 0 12 is_stmt 0
	movq	-608(%rbp), %rsi
	movq	-616(%rbp), %rdi
	.loc	42 390 28 is_stmt 1
	callq	__ZN4core3num23_$LT$impl$u20$usize$GT$11checked_add17h2fa0e6f8c0bd4ab8E
	movq	%rdx, -528(%rbp)
	movq	%rax, -536(%rbp)
	.loc	42 390 62 is_stmt 0
	movq	$0, -512(%rbp)
Ltmp844:
	.loc	37 1096 9 is_stmt 1
	cmpq	$0, -536(%rbp)
	je	LBB113_4
	jmp	LBB113_5
Ltmp845:
LBB113_2:
	.loc	42 386 24
	movq	$0, -576(%rbp)
	movq	-584(%rbp), %rdi
	movq	-576(%rbp), %rsi
	callq	__ZN50_$LT$T$u20$as$u20$core..convert..Into$LT$U$GT$$GT$4into17hba30e3cf5030e1e5E
	.loc	42 386 20 is_stmt 0
	movq	%rax, -600(%rbp)
	movq	%rdx, -592(%rbp)
LBB113_3:
	.loc	42 403 6 is_stmt 1
	movq	-600(%rbp), %rax
	movq	-592(%rbp), %rdx
	addq	$656, %rsp
	popq	%rbp
	retq
LBB113_4:
Ltmp846:
	.loc	37 1098 25
	movq	-520(%rbp), %rcx
	movq	-512(%rbp), %rax
	.loc	37 1098 21 is_stmt 0
	movq	%rcx, -552(%rbp)
	movq	%rax, -544(%rbp)
	.loc	37 1098 28
	jmp	LBB113_6
LBB113_5:
	.loc	37 1097 18 is_stmt 1
	movq	-528(%rbp), %rax
	movq	%rax, -328(%rbp)
Ltmp847:
	.loc	37 1097 24 is_stmt 0
	movq	%rax, -552(%rbp)
	movabsq	$-9223372036854775807, %rax
	movq	%rax, -544(%rbp)
Ltmp848:
LBB113_6:
	.loc	38 2091 15 is_stmt 1
	movabsq	$-9223372036854775807, %rdx
	movl	$1, %eax
	xorl	%ecx, %ecx
	cmpq	%rdx, -544(%rbp)
	cmoveq	%rcx, %rax
	.loc	38 2091 9 is_stmt 0
	cmpq	$0, %rax
	jne	LBB113_8
	.loc	38 2092 16 is_stmt 1
	movq	-552(%rbp), %rax
	movq	%rax, -304(%rbp)
Ltmp849:
	.loc	38 2092 22 is_stmt 0
	movq	%rax, -568(%rbp)
	movabsq	$-9223372036854775807, %rax
	movq	%rax, -560(%rbp)
Ltmp850:
	.loc	38 2092 45
	jmp	LBB113_9
LBB113_8:
	.loc	38 2093 17 is_stmt 1
	movq	-552(%rbp), %rcx
	movq	-544(%rbp), %rax
	movq	%rcx, -320(%rbp)
	movq	%rax, -312(%rbp)
Ltmp851:
	.loc	38 2093 42 is_stmt 0
	movq	%rcx, -400(%rbp)
	movq	%rax, -392(%rbp)
	.loc	38 2093 23
	movq	-400(%rbp), %rcx
	movq	-392(%rbp), %rax
	movq	%rcx, -568(%rbp)
	movq	%rax, -560(%rbp)
Ltmp852:
LBB113_9:
	.loc	42 390 28 is_stmt 1
	movabsq	$-9223372036854775807, %rdx
	movl	$1, %eax
	xorl	%ecx, %ecx
	cmpq	%rdx, -560(%rbp)
	cmoveq	%rcx, %rax
	cmpq	$0, %rax
	jne	LBB113_11
	.loc	42 0 28 is_stmt 0
	movq	-624(%rbp), %rax
	.loc	42 390 28
	movq	-568(%rbp), %rsi
	movq	%rsi, -248(%rbp)
Ltmp853:
	.loc	42 390 28
	movq	%rsi, -240(%rbp)
Ltmp854:
	.loc	42 394 28 is_stmt 1
	movq	(%rax), %rdi
	shlq	$1, %rdi
	movq	%rdi, -232(%rbp)
	.loc	42 394 42 is_stmt 0
	movq	%rsi, -224(%rbp)
Ltmp855:
	.loc	18 1276 5 is_stmt 1
	movq	%rdi, -216(%rbp)
	.loc	18 1276 12 is_stmt 0
	movq	%rsi, -208(%rbp)
Ltmp856:
	.loc	18 803 13 is_stmt 1
	callq	__ZN4core3cmp6max_by17h4c61f28a0041330aE
	movq	%rax, %rsi
	movq	%rsi, -200(%rbp)
Ltmp857:
	.loc	42 395 52
	movq	%rsi, -192(%rbp)
	.loc	42 395 19 is_stmt 0
	movq	$8, -184(%rbp)
Ltmp858:
	.loc	18 1276 5 is_stmt 1
	movq	$8, -176(%rbp)
	.loc	18 1276 12 is_stmt 0
	movq	%rsi, -168(%rbp)
Ltmp859:
	.loc	18 803 13 is_stmt 1
	movl	$8, %edi
	callq	__ZN4core3cmp6max_by17h4c61f28a0041330aE
	movq	%rax, %rdx
	movq	%rdx, -648(%rbp)
	movq	%rdx, -160(%rbp)
Ltmp860:
	.loc	42 397 45
	movq	%rdx, -152(%rbp)
Ltmp861:
	.loc	23 459 5
	movq	$1, -144(%rbp)
Ltmp862:
	.loc	33 89 18
	movq	$1, -136(%rbp)
	movq	-136(%rbp), %rsi
Ltmp863:
	.loc	32 438 16
	movl	$1, %edi
	callq	__ZN4core5alloc6layout6Layout5array5inner17h7a8ce0906b6bc105E
	movq	-624(%rbp), %rsi
	movq	%rax, -640(%rbp)
	movq	%rdx, -632(%rbp)
	movq	%rax, -128(%rbp)
	movq	%rdx, -120(%rbp)
Ltmp864:
	.loc	42 400 43
	leaq	-440(%rbp), %rdi
	callq	__ZN5alloc7raw_vec19RawVec$LT$T$C$A$GT$14current_memory17h684fc83632e3ee9eE
	movq	-640(%rbp), %rsi
	movq	-632(%rbp), %rdx
	movq	-624(%rbp), %r8
	.loc	42 400 19 is_stmt 0
	leaq	-464(%rbp), %rdi
	leaq	-440(%rbp), %rcx
	callq	__ZN5alloc7raw_vec11finish_grow17haa2f6b1a8731324aE
Ltmp865:
	.loc	38 2091 9 is_stmt 1
	cmpq	$0, -464(%rbp)
	je	LBB113_13
	jmp	LBB113_14
Ltmp866:
LBB113_11:
	.loc	42 390 79
	movq	-568(%rbp), %rcx
	movq	-560(%rbp), %rax
	movq	%rcx, -296(%rbp)
	movq	%rax, -288(%rbp)
Ltmp867:
	.loc	42 390 79 is_stmt 0
	movq	%rcx, -504(%rbp)
	movq	%rax, -496(%rbp)
Ltmp868:
	.loc	38 2107 17 is_stmt 1
	movq	-504(%rbp), %rcx
	movq	-496(%rbp), %rax
	movq	%rcx, -280(%rbp)
	movq	%rax, -272(%rbp)
Ltmp869:
	.loc	38 2107 38 is_stmt 0
	movq	%rcx, -264(%rbp)
	movq	%rax, -256(%rbp)
Ltmp870:
	.loc	8 117 9 is_stmt 1
	movq	%rcx, -384(%rbp)
	movq	%rax, -376(%rbp)
Ltmp871:
	.loc	38 2107 23
	movq	-384(%rbp), %rcx
	movq	-376(%rbp), %rax
	movq	%rcx, -600(%rbp)
	movq	%rax, -592(%rbp)
Ltmp872:
LBB113_12:
	.loc	45 1 1
	jmp	LBB113_3
LBB113_13:
Ltmp873:
	.loc	38 2092 16
	movq	-456(%rbp), %rcx
	movq	-448(%rbp), %rax
	movq	%rcx, -96(%rbp)
	movq	%rax, -88(%rbp)
Ltmp874:
	.loc	38 2092 22 is_stmt 0
	movq	%rcx, -480(%rbp)
	movq	%rax, -472(%rbp)
	movq	$0, -488(%rbp)
Ltmp875:
	.loc	38 2092 45
	jmp	LBB113_15
LBB113_14:
	.loc	38 2093 17 is_stmt 1
	movq	-456(%rbp), %rcx
	movq	-448(%rbp), %rax
	movq	%rcx, -112(%rbp)
	movq	%rax, -104(%rbp)
Ltmp876:
	.loc	38 2093 42 is_stmt 0
	movq	%rcx, -368(%rbp)
	movq	%rax, -360(%rbp)
	.loc	38 2093 23
	movq	-368(%rbp), %rcx
	movq	-360(%rbp), %rax
	movq	%rcx, -480(%rbp)
	movq	%rax, -472(%rbp)
	movq	$1, -488(%rbp)
Ltmp877:
LBB113_15:
	.loc	42 400 19 is_stmt 1
	cmpq	$0, -488(%rbp)
	jne	LBB113_17
	.loc	42 0 19 is_stmt 0
	movq	-648(%rbp), %rcx
	movq	-624(%rbp), %rdi
	.loc	42 400 19
	movq	-480(%rbp), %rsi
	movq	-472(%rbp), %rdx
	movq	%rsi, -32(%rbp)
	movq	%rdx, -24(%rbp)
Ltmp878:
	.loc	42 400 19
	movq	%rsi, -16(%rbp)
	movq	%rdx, -8(%rbp)
Ltmp879:
	.loc	42 401 9 is_stmt 1
	callq	__ZN5alloc7raw_vec19RawVec$LT$T$C$A$GT$15set_ptr_and_cap17h9c01341538b2a73dE
	.loc	42 402 9
	movabsq	$-9223372036854775807, %rax
	movq	%rax, -592(%rbp)
Ltmp880:
	.loc	42 403 6
	jmp	LBB113_3
LBB113_17:
Ltmp881:
	.loc	42 400 82
	movq	-480(%rbp), %rcx
	movq	-472(%rbp), %rax
	movq	%rcx, -80(%rbp)
	movq	%rax, -72(%rbp)
Ltmp882:
	.loc	42 400 82 is_stmt 0
	movq	%rcx, -416(%rbp)
	movq	%rax, -408(%rbp)
Ltmp883:
	.loc	38 2107 17 is_stmt 1
	movq	-416(%rbp), %rcx
	movq	-408(%rbp), %rax
	movq	%rcx, -64(%rbp)
	movq	%rax, -56(%rbp)
Ltmp884:
	.loc	38 2107 38 is_stmt 0
	movq	%rcx, -48(%rbp)
	movq	%rax, -40(%rbp)
	.loc	38 2107 23
	movq	%rcx, -600(%rbp)
	movq	%rax, -592(%rbp)
Ltmp885:
	.loc	45 1 1 is_stmt 1
	jmp	LBB113_12
Ltmp886:
Lfunc_end113:
	.cfi_endproc

	.globl	__ZN5alloc7raw_vec19RawVec$LT$T$C$A$GT$15set_ptr_and_cap17h9c01341538b2a73dE
	.p2align	4, 0x90
__ZN5alloc7raw_vec19RawVec$LT$T$C$A$GT$15set_ptr_and_cap17h9c01341538b2a73dE:
Lfunc_begin114:
	.loc	42 364 0
	.cfi_startproc
	pushq	%rbp
	.cfi_def_cfa_offset 16
	.cfi_offset %rbp, -16
	movq	%rsp, %rbp
	.cfi_def_cfa_register %rbp
	subq	$112, %rsp
	movq	%rdi, -88(%rbp)
	movq	%rsi, -80(%rbp)
	movq	%rdx, -72(%rbp)
	movq	%rcx, -64(%rbp)
Ltmp887:
	.loc	42 368 51 prologue_end
	movq	%rsi, -56(%rbp)
	movq	%rdx, -48(%rbp)
Ltmp888:
	.loc	6 450 41
	movq	%rsi, -40(%rbp)
	movq	%rdx, -32(%rbp)
	movq	%rsi, -24(%rbp)
Ltmp889:
	.loc	6 201 13
	movq	%rsi, -104(%rbp)
Ltmp890:
	.loc	6 326 9
	movq	-104(%rbp), %rax
	movq	%rax, -16(%rbp)
Ltmp891:
	.loc	7 87 59
	movq	%rax, -8(%rbp)
Ltmp892:
	.loc	6 201 13
	movq	%rax, -96(%rbp)
Ltmp893:
	.loc	7 87 18
	movq	-96(%rbp), %rax
	movq	%rax, -112(%rbp)
Ltmp894:
	.loc	42 368 9
	movq	-112(%rbp), %rax
	movq	%rax, 8(%rdi)
	.loc	42 369 9
	movq	%rcx, (%rdi)
	.loc	42 370 6
	addq	$112, %rsp
	popq	%rbp
	retq
Ltmp895:
Lfunc_end114:
	.cfi_endproc

	.globl	__ZN5alloc7raw_vec19RawVec$LT$T$C$A$GT$16reserve_for_push17h812f7c70e3d5ccfeE
	.p2align	4, 0x90
__ZN5alloc7raw_vec19RawVec$LT$T$C$A$GT$16reserve_for_push17h812f7c70e3d5ccfeE:
Lfunc_begin115:
	.loc	42 297 0
	.cfi_startproc
	pushq	%rbp
	.cfi_def_cfa_offset 16
	.cfi_offset %rbp, -16
	movq	%rsp, %rbp
	.cfi_def_cfa_register %rbp
	subq	$16, %rsp
	movq	%rdi, -16(%rbp)
	movq	%rsi, -8(%rbp)
Ltmp896:
	.loc	42 298 24 prologue_end
	movl	$1, %edx
	callq	__ZN5alloc7raw_vec19RawVec$LT$T$C$A$GT$14grow_amortized17hcd5e84a27ddcf324E
	movq	%rax, %rdi
	movq	%rdx, %rsi
	.loc	42 298 9 is_stmt 0
	callq	__ZN5alloc7raw_vec14handle_reserve17h735ed70f53c16dfcE
	.loc	42 299 6 is_stmt 1
	addq	$16, %rsp
	popq	%rbp
	retq
Ltmp897:
Lfunc_end115:
	.cfi_endproc

	.globl	__ZN5alloc7raw_vec19RawVec$LT$T$C$A$GT$6new_in17h1e72bbe95c043b53E
	.p2align	4, 0x90
__ZN5alloc7raw_vec19RawVec$LT$T$C$A$GT$6new_in17h1e72bbe95c043b53E:
Lfunc_begin116:
	.loc	42 121 0
	.cfi_startproc
	pushq	%rbp
	.cfi_def_cfa_offset 16
	.cfi_offset %rbp, -16
	movq	%rsp, %rbp
	.cfi_def_cfa_register %rbp
	subq	$96, %rsp
Ltmp898:
	.loc	23 459 5 prologue_end
	movq	$1, -48(%rbp)
Ltmp899:
	.loc	3 599 14
	movq	$1, -40(%rbp)
	movq	-40(%rbp), %rax
	movq	%rax, -96(%rbp)
	movq	%rax, -32(%rbp)
Ltmp900:
	.loc	3 0 14 is_stmt 0
	movq	-96(%rbp), %rax
Ltmp901:
	.loc	6 97 36 is_stmt 1
	movq	%rax, -8(%rbp)
Ltmp902:
	.loc	6 201 13
	movq	%rax, -64(%rbp)
Ltmp903:
	.loc	7 191 18
	movq	-64(%rbp), %rax
	.loc	7 191 9 is_stmt 0
	movq	%rax, -72(%rbp)
Ltmp904:
	.loc	42 123 9 is_stmt 1
	movq	-72(%rbp), %rax
	movq	%rax, -80(%rbp)
	movq	$0, -88(%rbp)
	.loc	42 124 6
	movq	-88(%rbp), %rax
	movq	-80(%rbp), %rdx
	addq	$96, %rsp
	popq	%rbp
	retq
Ltmp905:
Lfunc_end116:
	.cfi_endproc

	.globl	__ZN5alloc7raw_vec19RawVec$LT$T$C$A$GT$7reserve17he511f650109ba5d5E
	.p2align	4, 0x90
__ZN5alloc7raw_vec19RawVec$LT$T$C$A$GT$7reserve17he511f650109ba5d5E:
Lfunc_begin117:
	.loc	42 274 0
	.cfi_startproc
	pushq	%rbp
	.cfi_def_cfa_offset 16
	.cfi_offset %rbp, -16
	movq	%rsp, %rbp
	.cfi_def_cfa_register %rbp
	subq	$48, %rsp
	movq	%rdi, -48(%rbp)
	movq	%rsi, -40(%rbp)
	movq	%rdx, -32(%rbp)
	movq	%rdi, -24(%rbp)
	movq	%rsi, -16(%rbp)
	movq	%rdx, -8(%rbp)
Ltmp906:
	.loc	42 288 12 prologue_end
	callq	__ZN5alloc7raw_vec19RawVec$LT$T$C$A$GT$13needs_to_grow17hfda91fc3d3bb987aE
	testb	$1, %al
	jne	LBB117_2
LBB117_1:
	.loc	42 291 6
	addq	$48, %rsp
	popq	%rbp
	retq
LBB117_2:
	.loc	42 0 6 is_stmt 0
	movq	-32(%rbp), %rdx
	movq	-40(%rbp), %rsi
	movq	-48(%rbp), %rdi
	.loc	42 289 13 is_stmt 1
	callq	__ZN5alloc7raw_vec19RawVec$LT$T$C$A$GT$7reserve21do_reserve_and_handle17h055d3f229c813c48E
	.loc	42 288 9
	jmp	LBB117_1
Ltmp907:
Lfunc_end117:
	.cfi_endproc

	.globl	__ZN5alloc7raw_vec19RawVec$LT$T$C$A$GT$7reserve21do_reserve_and_handle17h055d3f229c813c48E
	.p2align	4, 0x90
__ZN5alloc7raw_vec19RawVec$LT$T$C$A$GT$7reserve21do_reserve_and_handle17h055d3f229c813c48E:
Lfunc_begin118:
	.loc	42 280 0
	.cfi_startproc
	pushq	%rbp
	.cfi_def_cfa_offset 16
	.cfi_offset %rbp, -16
	movq	%rsp, %rbp
	.cfi_def_cfa_register %rbp
	subq	$32, %rsp
	movq	%rdi, -24(%rbp)
	movq	%rsi, -16(%rbp)
	movq	%rdx, -8(%rbp)
Ltmp908:
	.loc	42 285 28 prologue_end
	callq	__ZN5alloc7raw_vec19RawVec$LT$T$C$A$GT$14grow_amortized17hcd5e84a27ddcf324E
	movq	%rax, %rdi
	movq	%rdx, %rsi
	.loc	42 285 13 is_stmt 0
	callq	__ZN5alloc7raw_vec14handle_reserve17h735ed70f53c16dfcE
	.loc	42 286 10 is_stmt 1
	addq	$32, %rsp
	popq	%rbp
	retq
Ltmp909:
Lfunc_end118:
	.cfi_endproc

	.p2align	4, 0x90
__ZN63_$LT$alloc..alloc..Global$u20$as$u20$core..alloc..Allocator$GT$10deallocate17h6471a889babf9f10E:
Lfunc_begin119:
	.loc	44 246 0
	.cfi_startproc
	pushq	%rbp
	.cfi_def_cfa_offset 16
	.cfi_offset %rbp, -16
	movq	%rsp, %rbp
	.cfi_def_cfa_register %rbp
	subq	$112, %rsp
	movq	%rsi, -112(%rbp)
	movq	%rdx, -104(%rbp)
	movq	%rcx, -96(%rbp)
	movq	%rdi, -64(%rbp)
	movq	%rsi, -56(%rbp)
Ltmp910:
	.loc	44 247 12 prologue_end
	leaq	-104(%rbp), %rax
	movq	%rax, -48(%rbp)
	cmpq	$0, -104(%rbp)
	jne	LBB119_2
	.loc	44 247 9 is_stmt 0
	jmp	LBB119_3
LBB119_2:
	.loc	44 0 9
	movq	-112(%rbp), %rdi
	.loc	44 250 30 is_stmt 1
	movq	%rdi, -40(%rbp)
Ltmp911:
	.loc	6 326 9
	movq	%rdi, -32(%rbp)
Ltmp912:
	.loc	44 250 44
	movq	-104(%rbp), %rcx
	movq	-96(%rbp), %rax
	movq	%rcx, -88(%rbp)
	movq	%rax, -80(%rbp)
Ltmp913:
	.loc	44 113 34
	leaq	-88(%rbp), %rax
	movq	%rax, -24(%rbp)
Ltmp914:
	.loc	32 129 9
	movq	-88(%rbp), %rsi
Ltmp915:
	.loc	44 113 49
	leaq	-88(%rbp), %rax
	movq	%rax, -16(%rbp)
Ltmp916:
	.loc	32 140 9
	movq	-80(%rbp), %rax
	movq	%rax, -8(%rbp)
Ltmp917:
	.loc	33 97 9
	movq	%rax, -72(%rbp)
	movq	-72(%rbp), %rdx
Ltmp918:
	.loc	44 113 14
	callq	___rust_dealloc
Ltmp919:
LBB119_3:
	.loc	44 252 6
	addq	$112, %rsp
	popq	%rbp
	retq
Ltmp920:
Lfunc_end119:
	.cfi_endproc

	.p2align	4, 0x90
__ZN63_$LT$alloc..alloc..Global$u20$as$u20$core..alloc..Allocator$GT$15allocate_zeroed17h1b44c67590925f70E:
Lfunc_begin120:
	.loc	44 241 0
	.cfi_startproc
	pushq	%rbp
	.cfi_def_cfa_offset 16
	.cfi_offset %rbp, -16
	movq	%rsp, %rbp
	.cfi_def_cfa_register %rbp
	subq	$32, %rsp
	movq	%rdi, -24(%rbp)
	movq	%rsi, -16(%rbp)
	movq	%rdx, -8(%rbp)
	movl	$1, %ecx
Ltmp921:
	.loc	44 242 9 prologue_end
	callq	__ZN5alloc5alloc6Global10alloc_impl17he57ade5ebae9ff88E
	.loc	44 243 6
	addq	$32, %rsp
	popq	%rbp
	retq
Ltmp922:
Lfunc_end120:
	.cfi_endproc

	.p2align	4, 0x90
__ZN63_$LT$alloc..alloc..Global$u20$as$u20$core..alloc..Allocator$GT$4grow17hed4a59dc1d9899cfE:
Lfunc_begin121:
	.loc	44 255 0
	.cfi_startproc
	pushq	%rbp
	.cfi_def_cfa_offset 16
	.cfi_offset %rbp, -16
	movq	%rsp, %rbp
	.cfi_def_cfa_register %rbp
	subq	$64, %rsp
	movq	%rdi, -48(%rbp)
	movq	%rsi, -40(%rbp)
	movq	%rdx, -32(%rbp)
	movq	%rcx, -24(%rbp)
	movq	%r8, -16(%rbp)
	movq	%r9, -8(%rbp)
Ltmp923:
	.loc	44 262 18 prologue_end
	movq	%rsp, %rax
	movl	$0, (%rax)
	callq	__ZN5alloc5alloc6Global9grow_impl17ha8f7d5a6ec9d71dbE
	.loc	44 263 6
	addq	$64, %rsp
	popq	%rbp
	retq
Ltmp924:
Lfunc_end121:
	.cfi_endproc

	.p2align	4, 0x90
__ZN63_$LT$alloc..alloc..Global$u20$as$u20$core..alloc..Allocator$GT$8allocate17h6614b37f1802b2a2E:
Lfunc_begin122:
	.loc	44 236 0
	.cfi_startproc
	pushq	%rbp
	.cfi_def_cfa_offset 16
	.cfi_offset %rbp, -16
	movq	%rsp, %rbp
	.cfi_def_cfa_register %rbp
	subq	$32, %rsp
	movq	%rdi, -24(%rbp)
	movq	%rsi, -16(%rbp)
	movq	%rdx, -8(%rbp)
	xorl	%ecx, %ecx
Ltmp925:
	.loc	44 237 9 prologue_end
	callq	__ZN5alloc5alloc6Global10alloc_impl17he57ade5ebae9ff88E
	.loc	44 238 6
	addq	$32, %rsp
	popq	%rbp
	retq
Ltmp926:
Lfunc_end122:
	.cfi_endproc

	.globl	__ZN63_$LT$u8$u20$as$u20$alloc..vec..spec_from_elem..SpecFromElem$GT$9from_elem17h7e592a5d4a7b333bE
	.p2align	4, 0x90
__ZN63_$LT$u8$u20$as$u20$alloc..vec..spec_from_elem..SpecFromElem$GT$9from_elem17h7e592a5d4a7b333bE:
Lfunc_begin123:
	.file	47 "/rustc/2c8cc343237b8f7d5a3c3703e3a87f2eb2c54a74/library/alloc/src/vec" "spec_from_elem.rs"
	.loc	47 50 0
	.cfi_startproc
	pushq	%rbp
	.cfi_def_cfa_offset 16
	.cfi_offset %rbp, -16
	movq	%rsp, %rbp
	.cfi_def_cfa_register %rbp
	subq	$288, %rsp
	movq	%rdx, -272(%rbp)
	movq	%rdi, -264(%rbp)
	movb	%sil, %al
	movb	%al, -249(%rbp)
	movq	%rdi, -248(%rbp)
	movb	%al, -193(%rbp)
	movq	%rdx, -192(%rbp)
Ltmp927:
	.loc	47 51 12 prologue_end
	cmpb	$0, %al
	jne	LBB123_2
	.loc	47 0 12 is_stmt 0
	movq	-272(%rbp), %rdi
	.loc	47 52 63 is_stmt 1
	movq	%rdi, -8(%rbp)
Ltmp928:
	.loc	42 139 37
	movb	$1, -210(%rbp)
	.loc	42 139 9 is_stmt 0
	movb	-210(%rbp), %al
	andb	$1, %al
	movzbl	%al, %esi
	callq	__ZN5alloc7raw_vec19RawVec$LT$T$C$A$GT$11allocate_in17h3aa76b6bd8fe6198E
	movq	-272(%rbp), %rcx
	movq	%rax, %rsi
	movq	-264(%rbp), %rax
Ltmp929:
	.loc	47 52 20 is_stmt 1
	movq	%rsi, (%rax)
	movq	%rdx, 8(%rax)
	movq	%rcx, 16(%rax)
	.loc	47 60 5
	jmp	LBB123_5
LBB123_2:
	.loc	47 0 5 is_stmt 0
	movq	-272(%rbp), %rdi
	.loc	47 55 47 is_stmt 1
	movq	%rdi, -152(%rbp)
Ltmp930:
	.loc	17 676 45
	movq	%rdi, -144(%rbp)
Ltmp931:
	.loc	42 131 37
	movb	$0, -209(%rbp)
	.loc	42 131 9 is_stmt 0
	movb	-209(%rbp), %al
	andb	$1, %al
	movzbl	%al, %esi
	callq	__ZN5alloc7raw_vec19RawVec$LT$T$C$A$GT$11allocate_in17h3aa76b6bd8fe6198E
Ltmp932:
	.loc	17 676 9 is_stmt 1
	movq	%rax, -240(%rbp)
	movq	%rdx, -232(%rbp)
	movq	$0, -224(%rbp)
Ltmp933:
	.loc	47 56 30
	leaq	-240(%rbp), %rax
	movq	%rax, -136(%rbp)
Ltmp934:
	.loc	17 1280 19
	leaq	-240(%rbp), %rax
	movq	%rax, -128(%rbp)
Ltmp935:
	.loc	42 224 9
	movq	-232(%rbp), %rax
	movq	%rax, -280(%rbp)
	movq	%rax, -120(%rbp)
Ltmp936:
	.loc	7 104 9
	movq	%rax, -112(%rbp)
Ltmp937:
	.loc	6 326 9
	movq	%rax, -104(%rbp)
Ltmp938:
	.loc	17 1282 21
	movq	%rax, -96(%rbp)
Ltmp939:
	.loc	5 52 36
	movq	%rax, -208(%rbp)
	.loc	5 52 18 is_stmt 0
	movq	-208(%rbp), %rax
	movq	%rax, -88(%rbp)
Ltmp940:
	.loc	5 38 13 is_stmt 1
	movq	%rax, -80(%rbp)
Ltmp941:
	.loc	5 215 33
	movq	%rax, -72(%rbp)
	.loc	5 215 18 is_stmt 0
	movq	%rax, -64(%rbp)
	movq	-64(%rbp), %rax
Ltmp942:
	.loc	5 0 18
	movb	-249(%rbp), %al
	movq	-280(%rbp), %rdi
	movq	-272(%rbp), %rdx
	.loc	47 56 46 is_stmt 1
	movb	%al, -49(%rbp)
	.loc	47 56 52 is_stmt 0
	movq	%rdx, -48(%rbp)
Ltmp943:
	.loc	43 2529 9 is_stmt 1
	shlq	$0, %rdx
	movzbl	%al, %esi
	callq	_memset
Ltmp944:
	.loc	43 0 9 is_stmt 0
	movq	-264(%rbp), %rax
	movq	-272(%rbp), %rcx
	.loc	47 57 13 is_stmt 1
	leaq	-240(%rbp), %rdx
	movq	%rdx, -24(%rbp)
	.loc	47 57 23 is_stmt 0
	movq	%rcx, -16(%rbp)
Ltmp945:
	.loc	17 1377 9 is_stmt 1
	movq	%rcx, -224(%rbp)
Ltmp946:
	.loc	47 58 13
	movq	-240(%rbp), %rcx
	movq	%rcx, (%rax)
	movq	-232(%rbp), %rcx
	movq	%rcx, 8(%rax)
	movq	-224(%rbp), %rcx
	movq	%rcx, 16(%rax)
Ltmp947:
LBB123_5:
	.loc	47 0 13 is_stmt 0
	movq	-248(%rbp), %rax
	.loc	47 60 6 is_stmt 1
	addq	$288, %rsp
	popq	%rbp
	retq
Ltmp948:
Lfunc_end123:
	.cfi_endproc

	.globl	__ZN70_$LT$alloc..vec..Vec$LT$T$C$A$GT$$u20$as$u20$core..ops..drop..Drop$GT$4drop17h0ca31dbef4ebfa19E
	.p2align	4, 0x90
__ZN70_$LT$alloc..vec..Vec$LT$T$C$A$GT$$u20$as$u20$core..ops..drop..Drop$GT$4drop17h0ca31dbef4ebfa19E:
Lfunc_begin124:
	.loc	17 3054 0
	.cfi_startproc
	pushq	%rbp
	.cfi_def_cfa_offset 16
	.cfi_offset %rbp, -16
	movq	%rsp, %rbp
	.cfi_def_cfa_register %rbp
	subq	$160, %rsp
	movq	%rdi, -120(%rbp)
Ltmp949:
	.loc	17 3059 62 prologue_end
	movq	%rdi, -112(%rbp)
Ltmp950:
	.loc	17 1280 19
	movq	%rdi, -104(%rbp)
Ltmp951:
	.loc	42 224 9
	movq	8(%rdi), %rcx
	movq	%rcx, -96(%rbp)
Ltmp952:
	.loc	7 104 9
	movq	%rcx, -88(%rbp)
Ltmp953:
	.loc	6 326 9
	movq	%rcx, -80(%rbp)
Ltmp954:
	.loc	17 1282 21
	movq	%rcx, -72(%rbp)
Ltmp955:
	.loc	5 52 36
	movq	%rcx, -160(%rbp)
	.loc	5 52 18 is_stmt 0
	movq	-160(%rbp), %rax
	movq	%rax, -64(%rbp)
Ltmp956:
	.loc	5 38 13 is_stmt 1
	movq	%rax, -56(%rbp)
Ltmp957:
	.loc	5 215 33
	movq	%rax, -48(%rbp)
	.loc	5 215 18 is_stmt 0
	movq	%rax, -40(%rbp)
Ltmp958:
	.loc	17 3059 81 is_stmt 1
	movq	16(%rdi), %rax
	movq	%rax, -32(%rbp)
Ltmp959:
	.loc	3 766 24
	movq	%rcx, -24(%rbp)
Ltmp960:
	.loc	5 60 9
	movq	%rcx, -16(%rbp)
Ltmp961:
	.loc	3 766 37
	movq	%rax, -8(%rbp)
Ltmp962:
	.loc	4 135 36
	movq	%rcx, -136(%rbp)
	movq	%rax, -128(%rbp)
	.loc	4 135 14 is_stmt 0
	movq	-136(%rbp), %rcx
	movq	-128(%rbp), %rax
	movq	%rcx, -152(%rbp)
	movq	%rax, -144(%rbp)
Ltmp963:
	.loc	17 3062 6 is_stmt 1
	addq	$160, %rsp
	popq	%rbp
	retq
Ltmp964:
Lfunc_end124:
	.cfi_endproc

	.globl	__ZN71_$LT$$BP$mut$u20$T$u20$as$u20$core_foundation_sys..base..TCFTypeRef$GT$11as_void_ptr17h0a0a3b32e87d002cE
	.p2align	4, 0x90
__ZN71_$LT$$BP$mut$u20$T$u20$as$u20$core_foundation_sys..base..TCFTypeRef$GT$11as_void_ptr17h0a0a3b32e87d002cE:
Lfunc_begin125:
	.file	48 "/Users/natalie/.cargo/registry/src/github.com-1ecc6299db9ec823/core-foundation-sys-0.8.3/src" "base.rs"
	.loc	48 101 0
	.cfi_startproc
	pushq	%rbp
	.cfi_def_cfa_offset 16
	.cfi_offset %rbp, -16
	movq	%rsp, %rbp
	.cfi_def_cfa_register %rbp
	pushq	%rax
	movq	%rdi, -8(%rbp)
Ltmp965:
	.loc	48 102 9 prologue_end
	movq	(%rdi), %rax
	.loc	48 103 6
	addq	$8, %rsp
	popq	%rbp
	retq
Ltmp966:
Lfunc_end125:
	.cfi_endproc

	.globl	__ZN71_$LT$$BP$mut$u20$T$u20$as$u20$core_foundation_sys..base..TCFTypeRef$GT$11as_void_ptr17h3e69c09ac1a49363E
	.p2align	4, 0x90
__ZN71_$LT$$BP$mut$u20$T$u20$as$u20$core_foundation_sys..base..TCFTypeRef$GT$11as_void_ptr17h3e69c09ac1a49363E:
Lfunc_begin126:
	.loc	48 101 0
	.cfi_startproc
	pushq	%rbp
	.cfi_def_cfa_offset 16
	.cfi_offset %rbp, -16
	movq	%rsp, %rbp
	.cfi_def_cfa_register %rbp
	pushq	%rax
	movq	%rdi, -8(%rbp)
Ltmp967:
	.loc	48 102 9 prologue_end
	movq	(%rdi), %rax
	.loc	48 103 6
	addq	$8, %rsp
	popq	%rbp
	retq
Ltmp968:
Lfunc_end126:
	.cfi_endproc

	.globl	__ZN71_$LT$$BP$mut$u20$T$u20$as$u20$core_foundation_sys..base..TCFTypeRef$GT$11as_void_ptr17h8ae56d09f3886fb1E
	.p2align	4, 0x90
__ZN71_$LT$$BP$mut$u20$T$u20$as$u20$core_foundation_sys..base..TCFTypeRef$GT$11as_void_ptr17h8ae56d09f3886fb1E:
Lfunc_begin127:
	.loc	48 101 0
	.cfi_startproc
	pushq	%rbp
	.cfi_def_cfa_offset 16
	.cfi_offset %rbp, -16
	movq	%rsp, %rbp
	.cfi_def_cfa_register %rbp
	pushq	%rax
	movq	%rdi, -8(%rbp)
Ltmp969:
	.loc	48 102 9 prologue_end
	movq	(%rdi), %rax
	.loc	48 103 6
	addq	$8, %rsp
	popq	%rbp
	retq
Ltmp970:
Lfunc_end127:
	.cfi_endproc

	.globl	__ZN71_$LT$$BP$mut$u20$T$u20$as$u20$core_foundation_sys..base..TCFTypeRef$GT$11as_void_ptr17h8d90f0d704da9770E
	.p2align	4, 0x90
__ZN71_$LT$$BP$mut$u20$T$u20$as$u20$core_foundation_sys..base..TCFTypeRef$GT$11as_void_ptr17h8d90f0d704da9770E:
Lfunc_begin128:
	.loc	48 101 0
	.cfi_startproc
	pushq	%rbp
	.cfi_def_cfa_offset 16
	.cfi_offset %rbp, -16
	movq	%rsp, %rbp
	.cfi_def_cfa_register %rbp
	pushq	%rax
	movq	%rdi, -8(%rbp)
Ltmp971:
	.loc	48 102 9 prologue_end
	movq	(%rdi), %rax
	.loc	48 103 6
	addq	$8, %rsp
	popq	%rbp
	retq
Ltmp972:
Lfunc_end128:
	.cfi_endproc

	.globl	__ZN71_$LT$$BP$mut$u20$T$u20$as$u20$core_foundation_sys..base..TCFTypeRef$GT$11as_void_ptr17h97a02cdd5d2b5ed1E
	.p2align	4, 0x90
__ZN71_$LT$$BP$mut$u20$T$u20$as$u20$core_foundation_sys..base..TCFTypeRef$GT$11as_void_ptr17h97a02cdd5d2b5ed1E:
Lfunc_begin129:
	.loc	48 101 0
	.cfi_startproc
	pushq	%rbp
	.cfi_def_cfa_offset 16
	.cfi_offset %rbp, -16
	movq	%rsp, %rbp
	.cfi_def_cfa_register %rbp
	pushq	%rax
	movq	%rdi, -8(%rbp)
Ltmp973:
	.loc	48 102 9 prologue_end
	movq	(%rdi), %rax
	.loc	48 103 6
	addq	$8, %rsp
	popq	%rbp
	retq
Ltmp974:
Lfunc_end129:
	.cfi_endproc

	.globl	__ZN71_$LT$$BP$mut$u20$T$u20$as$u20$core_foundation_sys..base..TCFTypeRef$GT$11as_void_ptr17hf864bccedf9c915fE
	.p2align	4, 0x90
__ZN71_$LT$$BP$mut$u20$T$u20$as$u20$core_foundation_sys..base..TCFTypeRef$GT$11as_void_ptr17hf864bccedf9c915fE:
Lfunc_begin130:
	.loc	48 101 0
	.cfi_startproc
	pushq	%rbp
	.cfi_def_cfa_offset 16
	.cfi_offset %rbp, -16
	movq	%rsp, %rbp
	.cfi_def_cfa_register %rbp
	pushq	%rax
	movq	%rdi, -8(%rbp)
Ltmp975:
	.loc	48 102 9 prologue_end
	movq	(%rdi), %rax
	.loc	48 103 6
	addq	$8, %rsp
	popq	%rbp
	retq
Ltmp976:
Lfunc_end130:
	.cfi_endproc

	.globl	__ZN71_$LT$$BP$mut$u20$T$u20$as$u20$core_foundation_sys..base..TCFTypeRef$GT$11as_void_ptr17hf8d9c4b7a53f61bbE
	.p2align	4, 0x90
__ZN71_$LT$$BP$mut$u20$T$u20$as$u20$core_foundation_sys..base..TCFTypeRef$GT$11as_void_ptr17hf8d9c4b7a53f61bbE:
Lfunc_begin131:
	.loc	48 101 0
	.cfi_startproc
	pushq	%rbp
	.cfi_def_cfa_offset 16
	.cfi_offset %rbp, -16
	movq	%rsp, %rbp
	.cfi_def_cfa_register %rbp
	pushq	%rax
	movq	%rdi, -8(%rbp)
Ltmp977:
	.loc	48 102 9 prologue_end
	movq	(%rdi), %rax
	.loc	48 103 6
	addq	$8, %rsp
	popq	%rbp
	retq
Ltmp978:
Lfunc_end131:
	.cfi_endproc

	.globl	__ZN71_$LT$$BP$mut$u20$T$u20$as$u20$core_foundation_sys..base..TCFTypeRef$GT$11as_void_ptr17hfd16f0edcfc27428E
	.p2align	4, 0x90
__ZN71_$LT$$BP$mut$u20$T$u20$as$u20$core_foundation_sys..base..TCFTypeRef$GT$11as_void_ptr17hfd16f0edcfc27428E:
Lfunc_begin132:
	.loc	48 101 0
	.cfi_startproc
	pushq	%rbp
	.cfi_def_cfa_offset 16
	.cfi_offset %rbp, -16
	movq	%rsp, %rbp
	.cfi_def_cfa_register %rbp
	pushq	%rax
	movq	%rdi, -8(%rbp)
Ltmp979:
	.loc	48 102 9 prologue_end
	movq	(%rdi), %rax
	.loc	48 103 6
	addq	$8, %rsp
	popq	%rbp
	retq
Ltmp980:
Lfunc_end132:
	.cfi_endproc

	.globl	__ZN71_$LT$alloc..borrow..Cow$LT$B$GT$$u20$as$u20$core..ops..deref..Deref$GT$5deref17he48d6ab4b20700d2E
	.p2align	4, 0x90
__ZN71_$LT$alloc..borrow..Cow$LT$B$GT$$u20$as$u20$core..ops..deref..Deref$GT$5deref17he48d6ab4b20700d2E:
Lfunc_begin133:
	.file	49 "/rustc/2c8cc343237b8f7d5a3c3703e3a87f2eb2c54a74/library/alloc/src" "borrow.rs"
	.loc	49 338 0
	.cfi_startproc
	pushq	%rbp
	.cfi_def_cfa_offset 16
	.cfi_offset %rbp, -16
	movq	%rsp, %rbp
	.cfi_def_cfa_register %rbp
	subq	$64, %rsp
	movq	%rdi, -56(%rbp)
	movq	%rdi, -32(%rbp)
Ltmp981:
	.loc	49 339 9 prologue_end
	cmpq	$0, (%rdi)
	jne	LBB133_2
	.loc	49 0 9 is_stmt 0
	movq	-56(%rbp), %rax
	.loc	49 340 22 is_stmt 1
	movq	8(%rax), %rcx
	movq	16(%rax), %rax
	movq	%rcx, -16(%rbp)
	movq	%rax, -8(%rbp)
Ltmp982:
	.loc	49 340 35 is_stmt 0
	movq	%rcx, -48(%rbp)
	movq	%rax, -40(%rbp)
Ltmp983:
	.loc	49 340 42
	jmp	LBB133_3
LBB133_2:
	.loc	49 0 42
	movq	-56(%rbp), %rdi
	.loc	49 341 19 is_stmt 1
	addq	$8, %rdi
	movq	%rdi, -24(%rbp)
Ltmp984:
	.loc	49 341 33 is_stmt 0
	callq	__ZN5alloc3str83_$LT$impl$u20$core..borrow..Borrow$LT$str$GT$$u20$for$u20$alloc..string..String$GT$6borrow17h1d289481c987f932E
	movq	%rax, -48(%rbp)
	movq	%rdx, -40(%rbp)
Ltmp985:
LBB133_3:
	.loc	49 343 6 is_stmt 1
	movq	-48(%rbp), %rax
	movq	-40(%rbp), %rdx
	addq	$64, %rsp
	popq	%rbp
	retq
Ltmp986:
Lfunc_end133:
	.cfi_endproc

	.globl	__ZN71_$LT$std..path..PathBuf$u20$as$u20$core..convert..From$LT$$RF$T$GT$$GT$4from17h107e21d55d7e3d0fE
	.p2align	4, 0x90
__ZN71_$LT$std..path..PathBuf$u20$as$u20$core..convert..From$LT$$RF$T$GT$$GT$4from17h107e21d55d7e3d0fE:
Lfunc_begin134:
	.file	50 "/rustc/2c8cc343237b8f7d5a3c3703e3a87f2eb2c54a74/library/std/src" "path.rs"
	.loc	50 1696 0
	.cfi_startproc
	pushq	%rbp
	.cfi_def_cfa_offset 16
	.cfi_offset %rbp, -16
	movq	%rsp, %rbp
	.cfi_def_cfa_register %rbp
	subq	$144, %rsp
	movq	%rdx, -136(%rbp)
	movq	%rsi, %rax
	movq	-136(%rbp), %rsi
	movq	%rax, -128(%rbp)
	movq	%rdi, %rax
	movq	-128(%rbp), %rdi
	movq	%rax, -120(%rbp)
	movq	%rax, -112(%rbp)
	movq	%rdi, -32(%rbp)
	movq	%rsi, -24(%rbp)
Ltmp987:
	.loc	50 1697 23 prologue_end
	callq	__ZN95_$LT$std..ffi..os_str..OsStr$u20$as$u20$core..convert..AsRef$LT$std..ffi..os_str..OsStr$GT$$GT$6as_ref17h9e2d749e9d581052E
	movq	%rax, %rsi
	movq	%rsi, -16(%rbp)
	movq	%rdx, -8(%rbp)
Ltmp988:
	.file	51 "/rustc/2c8cc343237b8f7d5a3c3703e3a87f2eb2c54a74/library/std/src/ffi" "os_str.rs"
	.loc	51 776 27
	leaq	-80(%rbp), %rdi
	callq	__ZN3std3sys4unix6os_str5Slice8to_owned17h908ac49227952a53E
	movq	-120(%rbp), %rdi
	movq	-112(%rbp), %rax
	.loc	51 776 9 is_stmt 0
	movq	-80(%rbp), %rcx
	movq	%rcx, -104(%rbp)
	movq	-72(%rbp), %rcx
	movq	%rcx, -96(%rbp)
	movq	-64(%rbp), %rcx
	movq	%rcx, -88(%rbp)
Ltmp989:
	.loc	50 1708 26 is_stmt 1
	movq	-104(%rbp), %rcx
	movq	%rcx, -56(%rbp)
	movq	-96(%rbp), %rcx
	movq	%rcx, -48(%rbp)
	movq	-88(%rbp), %rcx
	movq	%rcx, -40(%rbp)
	.loc	50 1708 9 is_stmt 0
	movq	-56(%rbp), %rcx
	movq	%rcx, (%rdi)
	movq	-48(%rbp), %rcx
	movq	%rcx, 8(%rdi)
	movq	-40(%rbp), %rcx
	movq	%rcx, 16(%rdi)
Ltmp990:
	.loc	50 1698 6 is_stmt 1
	addq	$144, %rsp
	popq	%rbp
	retq
Ltmp991:
Lfunc_end134:
	.cfi_endproc

	.globl	__ZN72_$LT$alloc..vec..Vec$LT$T$C$A$GT$$u20$as$u20$core..ops..deref..Deref$GT$5deref17h8d83a61ac2c71274E
	.p2align	4, 0x90
__ZN72_$LT$alloc..vec..Vec$LT$T$C$A$GT$$u20$as$u20$core..ops..deref..Deref$GT$5deref17h8d83a61ac2c71274E:
Lfunc_begin135:
	.loc	17 2636 0
	.cfi_startproc
	pushq	%rbp
	.cfi_def_cfa_offset 16
	.cfi_offset %rbp, -16
	movq	%rsp, %rbp
	.cfi_def_cfa_register %rbp
	subq	$184, %rsp
	movq	%rdi, -144(%rbp)
Ltmp992:
	.loc	17 2637 40 prologue_end
	movq	%rdi, -136(%rbp)
Ltmp993:
	.loc	17 1243 19
	movq	%rdi, -128(%rbp)
Ltmp994:
	.loc	42 224 9
	movq	8(%rdi), %rcx
	movq	%rcx, -120(%rbp)
Ltmp995:
	.loc	7 104 9
	movq	%rcx, -112(%rbp)
Ltmp996:
	.loc	6 326 9
	movq	%rcx, -104(%rbp)
Ltmp997:
	.loc	17 1245 21
	movq	%rcx, -96(%rbp)
Ltmp998:
	.loc	5 52 36
	movq	%rcx, -184(%rbp)
	.loc	5 52 18 is_stmt 0
	movq	-184(%rbp), %rax
	movq	%rax, -88(%rbp)
Ltmp999:
	.loc	5 38 13 is_stmt 1
	movq	%rax, -80(%rbp)
Ltmp1000:
	.loc	5 215 33
	movq	%rax, -72(%rbp)
	.loc	5 215 18 is_stmt 0
	movq	%rax, -64(%rbp)
Ltmp1001:
	.loc	17 1247 9 is_stmt 1
	movq	%rcx, -56(%rbp)
Ltmp1002:
	.loc	17 2637 55
	movq	16(%rdi), %rax
	movq	%rax, -48(%rbp)
Ltmp1003:
	.loc	20 100 37
	movq	%rcx, -40(%rbp)
	.loc	20 100 43 is_stmt 0
	movq	%rax, -32(%rbp)
Ltmp1004:
	.loc	3 734 20 is_stmt 1
	movq	%rcx, -24(%rbp)
Ltmp1005:
	.loc	2 61 9
	movq	%rcx, -16(%rbp)
Ltmp1006:
	.loc	3 734 33
	movq	%rax, -8(%rbp)
Ltmp1007:
	.loc	4 118 36
	movq	%rcx, -160(%rbp)
	movq	%rax, -152(%rbp)
	.loc	4 118 14 is_stmt 0
	movq	-160(%rbp), %rcx
	movq	-152(%rbp), %rax
	movq	%rcx, -176(%rbp)
	movq	%rax, -168(%rbp)
	movq	-176(%rbp), %rax
	movq	-168(%rbp), %rdx
Ltmp1008:
	.loc	17 2638 6 is_stmt 1
	addq	$184, %rsp
	popq	%rbp
	retq
Ltmp1009:
Lfunc_end135:
	.cfi_endproc

	.globl	__ZN73_$LT$$BP$const$u20$T$u20$as$u20$core_foundation_sys..base..TCFTypeRef$GT$11as_void_ptr17h26afa658e54e130cE
	.p2align	4, 0x90
__ZN73_$LT$$BP$const$u20$T$u20$as$u20$core_foundation_sys..base..TCFTypeRef$GT$11as_void_ptr17h26afa658e54e130cE:
Lfunc_begin136:
	.loc	48 91 0
	.cfi_startproc
	pushq	%rbp
	.cfi_def_cfa_offset 16
	.cfi_offset %rbp, -16
	movq	%rsp, %rbp
	.cfi_def_cfa_register %rbp
	pushq	%rax
	movq	%rdi, -8(%rbp)
Ltmp1010:
	.loc	48 92 9 prologue_end
	movq	(%rdi), %rax
	.loc	48 93 6
	addq	$8, %rsp
	popq	%rbp
	retq
Ltmp1011:
Lfunc_end136:
	.cfi_endproc

	.globl	__ZN73_$LT$$BP$const$u20$T$u20$as$u20$core_foundation_sys..base..TCFTypeRef$GT$11as_void_ptr17h2c4eeed6ad3a0a72E
	.p2align	4, 0x90
__ZN73_$LT$$BP$const$u20$T$u20$as$u20$core_foundation_sys..base..TCFTypeRef$GT$11as_void_ptr17h2c4eeed6ad3a0a72E:
Lfunc_begin137:
	.loc	48 91 0
	.cfi_startproc
	pushq	%rbp
	.cfi_def_cfa_offset 16
	.cfi_offset %rbp, -16
	movq	%rsp, %rbp
	.cfi_def_cfa_register %rbp
	pushq	%rax
	movq	%rdi, -8(%rbp)
Ltmp1012:
	.loc	48 92 9 prologue_end
	movq	(%rdi), %rax
	.loc	48 93 6
	addq	$8, %rsp
	popq	%rbp
	retq
Ltmp1013:
Lfunc_end137:
	.cfi_endproc

	.globl	__ZN73_$LT$$BP$const$u20$T$u20$as$u20$core_foundation_sys..base..TCFTypeRef$GT$11as_void_ptr17h3da33d225f9ac32fE
	.p2align	4, 0x90
__ZN73_$LT$$BP$const$u20$T$u20$as$u20$core_foundation_sys..base..TCFTypeRef$GT$11as_void_ptr17h3da33d225f9ac32fE:
Lfunc_begin138:
	.loc	48 91 0
	.cfi_startproc
	pushq	%rbp
	.cfi_def_cfa_offset 16
	.cfi_offset %rbp, -16
	movq	%rsp, %rbp
	.cfi_def_cfa_register %rbp
	pushq	%rax
	movq	%rdi, -8(%rbp)
Ltmp1014:
	.loc	48 92 9 prologue_end
	movq	(%rdi), %rax
	.loc	48 93 6
	addq	$8, %rsp
	popq	%rbp
	retq
Ltmp1015:
Lfunc_end138:
	.cfi_endproc

	.globl	__ZN73_$LT$$BP$const$u20$T$u20$as$u20$core_foundation_sys..base..TCFTypeRef$GT$11as_void_ptr17h4460d174141645acE
	.p2align	4, 0x90
__ZN73_$LT$$BP$const$u20$T$u20$as$u20$core_foundation_sys..base..TCFTypeRef$GT$11as_void_ptr17h4460d174141645acE:
Lfunc_begin139:
	.loc	48 91 0
	.cfi_startproc
	pushq	%rbp
	.cfi_def_cfa_offset 16
	.cfi_offset %rbp, -16
	movq	%rsp, %rbp
	.cfi_def_cfa_register %rbp
	pushq	%rax
	movq	%rdi, -8(%rbp)
Ltmp1016:
	.loc	48 92 9 prologue_end
	movq	(%rdi), %rax
	.loc	48 93 6
	addq	$8, %rsp
	popq	%rbp
	retq
Ltmp1017:
Lfunc_end139:
	.cfi_endproc

	.globl	__ZN73_$LT$$BP$const$u20$T$u20$as$u20$core_foundation_sys..base..TCFTypeRef$GT$11as_void_ptr17h475b9025a2a61e0fE
	.p2align	4, 0x90
__ZN73_$LT$$BP$const$u20$T$u20$as$u20$core_foundation_sys..base..TCFTypeRef$GT$11as_void_ptr17h475b9025a2a61e0fE:
Lfunc_begin140:
	.loc	48 91 0
	.cfi_startproc
	pushq	%rbp
	.cfi_def_cfa_offset 16
	.cfi_offset %rbp, -16
	movq	%rsp, %rbp
	.cfi_def_cfa_register %rbp
	pushq	%rax
	movq	%rdi, -8(%rbp)
Ltmp1018:
	.loc	48 92 9 prologue_end
	movq	(%rdi), %rax
	.loc	48 93 6
	addq	$8, %rsp
	popq	%rbp
	retq
Ltmp1019:
Lfunc_end140:
	.cfi_endproc

	.globl	__ZN73_$LT$$BP$const$u20$T$u20$as$u20$core_foundation_sys..base..TCFTypeRef$GT$11as_void_ptr17h6cd555a4241e32b6E
	.p2align	4, 0x90
__ZN73_$LT$$BP$const$u20$T$u20$as$u20$core_foundation_sys..base..TCFTypeRef$GT$11as_void_ptr17h6cd555a4241e32b6E:
Lfunc_begin141:
	.loc	48 91 0
	.cfi_startproc
	pushq	%rbp
	.cfi_def_cfa_offset 16
	.cfi_offset %rbp, -16
	movq	%rsp, %rbp
	.cfi_def_cfa_register %rbp
	pushq	%rax
	movq	%rdi, -8(%rbp)
Ltmp1020:
	.loc	48 92 9 prologue_end
	movq	(%rdi), %rax
	.loc	48 93 6
	addq	$8, %rsp
	popq	%rbp
	retq
Ltmp1021:
Lfunc_end141:
	.cfi_endproc

	.globl	__ZN73_$LT$$BP$const$u20$T$u20$as$u20$core_foundation_sys..base..TCFTypeRef$GT$11as_void_ptr17h77474fb85bacdf36E
	.p2align	4, 0x90
__ZN73_$LT$$BP$const$u20$T$u20$as$u20$core_foundation_sys..base..TCFTypeRef$GT$11as_void_ptr17h77474fb85bacdf36E:
Lfunc_begin142:
	.loc	48 91 0
	.cfi_startproc
	pushq	%rbp
	.cfi_def_cfa_offset 16
	.cfi_offset %rbp, -16
	movq	%rsp, %rbp
	.cfi_def_cfa_register %rbp
	pushq	%rax
	movq	%rdi, -8(%rbp)
Ltmp1022:
	.loc	48 92 9 prologue_end
	movq	(%rdi), %rax
	.loc	48 93 6
	addq	$8, %rsp
	popq	%rbp
	retq
Ltmp1023:
Lfunc_end142:
	.cfi_endproc

	.globl	__ZN73_$LT$$BP$const$u20$T$u20$as$u20$core_foundation_sys..base..TCFTypeRef$GT$11as_void_ptr17h7a7b28cc53054127E
	.p2align	4, 0x90
__ZN73_$LT$$BP$const$u20$T$u20$as$u20$core_foundation_sys..base..TCFTypeRef$GT$11as_void_ptr17h7a7b28cc53054127E:
Lfunc_begin143:
	.loc	48 91 0
	.cfi_startproc
	pushq	%rbp
	.cfi_def_cfa_offset 16
	.cfi_offset %rbp, -16
	movq	%rsp, %rbp
	.cfi_def_cfa_register %rbp
	pushq	%rax
	movq	%rdi, -8(%rbp)
Ltmp1024:
	.loc	48 92 9 prologue_end
	movq	(%rdi), %rax
	.loc	48 93 6
	addq	$8, %rsp
	popq	%rbp
	retq
Ltmp1025:
Lfunc_end143:
	.cfi_endproc

	.globl	__ZN73_$LT$$BP$const$u20$T$u20$as$u20$core_foundation_sys..base..TCFTypeRef$GT$11as_void_ptr17h869365b1f06f55e9E
	.p2align	4, 0x90
__ZN73_$LT$$BP$const$u20$T$u20$as$u20$core_foundation_sys..base..TCFTypeRef$GT$11as_void_ptr17h869365b1f06f55e9E:
Lfunc_begin144:
	.loc	48 91 0
	.cfi_startproc
	pushq	%rbp
	.cfi_def_cfa_offset 16
	.cfi_offset %rbp, -16
	movq	%rsp, %rbp
	.cfi_def_cfa_register %rbp
	pushq	%rax
	movq	%rdi, -8(%rbp)
Ltmp1026:
	.loc	48 92 9 prologue_end
	movq	(%rdi), %rax
	.loc	48 93 6
	addq	$8, %rsp
	popq	%rbp
	retq
Ltmp1027:
Lfunc_end144:
	.cfi_endproc

	.globl	__ZN73_$LT$$BP$const$u20$T$u20$as$u20$core_foundation_sys..base..TCFTypeRef$GT$11as_void_ptr17hbe90ffd816d74824E
	.p2align	4, 0x90
__ZN73_$LT$$BP$const$u20$T$u20$as$u20$core_foundation_sys..base..TCFTypeRef$GT$11as_void_ptr17hbe90ffd816d74824E:
Lfunc_begin145:
	.loc	48 91 0
	.cfi_startproc
	pushq	%rbp
	.cfi_def_cfa_offset 16
	.cfi_offset %rbp, -16
	movq	%rsp, %rbp
	.cfi_def_cfa_register %rbp
	pushq	%rax
	movq	%rdi, -8(%rbp)
Ltmp1028:
	.loc	48 92 9 prologue_end
	movq	(%rdi), %rax
	.loc	48 93 6
	addq	$8, %rsp
	popq	%rbp
	retq
Ltmp1029:
Lfunc_end145:
	.cfi_endproc

	.globl	__ZN73_$LT$$BP$const$u20$T$u20$as$u20$core_foundation_sys..base..TCFTypeRef$GT$11as_void_ptr17hd7ed3746d80f1188E
	.p2align	4, 0x90
__ZN73_$LT$$BP$const$u20$T$u20$as$u20$core_foundation_sys..base..TCFTypeRef$GT$11as_void_ptr17hd7ed3746d80f1188E:
Lfunc_begin146:
	.loc	48 91 0
	.cfi_startproc
	pushq	%rbp
	.cfi_def_cfa_offset 16
	.cfi_offset %rbp, -16
	movq	%rsp, %rbp
	.cfi_def_cfa_register %rbp
	pushq	%rax
	movq	%rdi, -8(%rbp)
Ltmp1030:
	.loc	48 92 9 prologue_end
	movq	(%rdi), %rax
	.loc	48 93 6
	addq	$8, %rsp
	popq	%rbp
	retq
Ltmp1031:
Lfunc_end146:
	.cfi_endproc

	.globl	__ZN73_$LT$$BP$const$u20$T$u20$as$u20$core_foundation_sys..base..TCFTypeRef$GT$11as_void_ptr17he0d264e86aaedf31E
	.p2align	4, 0x90
__ZN73_$LT$$BP$const$u20$T$u20$as$u20$core_foundation_sys..base..TCFTypeRef$GT$11as_void_ptr17he0d264e86aaedf31E:
Lfunc_begin147:
	.loc	48 91 0
	.cfi_startproc
	pushq	%rbp
	.cfi_def_cfa_offset 16
	.cfi_offset %rbp, -16
	movq	%rsp, %rbp
	.cfi_def_cfa_register %rbp
	pushq	%rax
	movq	%rdi, -8(%rbp)
Ltmp1032:
	.loc	48 92 9 prologue_end
	movq	(%rdi), %rax
	.loc	48 93 6
	addq	$8, %rsp
	popq	%rbp
	retq
Ltmp1033:
Lfunc_end147:
	.cfi_endproc

	.globl	__ZN73_$LT$$BP$const$u20$T$u20$as$u20$core_foundation_sys..base..TCFTypeRef$GT$11as_void_ptr17he13c37016cc41d46E
	.p2align	4, 0x90
__ZN73_$LT$$BP$const$u20$T$u20$as$u20$core_foundation_sys..base..TCFTypeRef$GT$11as_void_ptr17he13c37016cc41d46E:
Lfunc_begin148:
	.loc	48 91 0
	.cfi_startproc
	pushq	%rbp
	.cfi_def_cfa_offset 16
	.cfi_offset %rbp, -16
	movq	%rsp, %rbp
	.cfi_def_cfa_register %rbp
	pushq	%rax
	movq	%rdi, -8(%rbp)
Ltmp1034:
	.loc	48 92 9 prologue_end
	movq	(%rdi), %rax
	.loc	48 93 6
	addq	$8, %rsp
	popq	%rbp
	retq
Ltmp1035:
Lfunc_end148:
	.cfi_endproc

	.globl	__ZN73_$LT$$BP$const$u20$T$u20$as$u20$core_foundation_sys..base..TCFTypeRef$GT$11as_void_ptr17he799574877d67d0cE
	.p2align	4, 0x90
__ZN73_$LT$$BP$const$u20$T$u20$as$u20$core_foundation_sys..base..TCFTypeRef$GT$11as_void_ptr17he799574877d67d0cE:
Lfunc_begin149:
	.loc	48 91 0
	.cfi_startproc
	pushq	%rbp
	.cfi_def_cfa_offset 16
	.cfi_offset %rbp, -16
	movq	%rsp, %rbp
	.cfi_def_cfa_register %rbp
	pushq	%rax
	movq	%rdi, -8(%rbp)
Ltmp1036:
	.loc	48 92 9 prologue_end
	movq	(%rdi), %rax
	.loc	48 93 6
	addq	$8, %rsp
	popq	%rbp
	retq
Ltmp1037:
Lfunc_end149:
	.cfi_endproc

	.globl	__ZN73_$LT$$BP$const$u20$T$u20$as$u20$core_foundation_sys..base..TCFTypeRef$GT$11as_void_ptr17hfee242bf66cd08deE
	.p2align	4, 0x90
__ZN73_$LT$$BP$const$u20$T$u20$as$u20$core_foundation_sys..base..TCFTypeRef$GT$11as_void_ptr17hfee242bf66cd08deE:
Lfunc_begin150:
	.loc	48 91 0
	.cfi_startproc
	pushq	%rbp
	.cfi_def_cfa_offset 16
	.cfi_offset %rbp, -16
	movq	%rsp, %rbp
	.cfi_def_cfa_register %rbp
	pushq	%rax
	movq	%rdi, -8(%rbp)
Ltmp1038:
	.loc	48 92 9 prologue_end
	movq	(%rdi), %rax
	.loc	48 93 6
	addq	$8, %rsp
	popq	%rbp
	retq
Ltmp1039:
Lfunc_end150:
	.cfi_endproc

	.globl	__ZN75_$LT$core..option..Option$LT$T$GT$$u20$as$u20$core..ops..try_trait..Try$GT$6branch17hd8f90c777b1fa62cE
	.p2align	4, 0x90
__ZN75_$LT$core..option..Option$LT$T$GT$$u20$as$u20$core..ops..try_trait..Try$GT$6branch17hd8f90c777b1fa62cE:
Lfunc_begin151:
	.loc	37 2406 0
	.cfi_startproc
	pushq	%rbp
	.cfi_def_cfa_offset 16
	.cfi_offset %rbp, -16
	movq	%rsp, %rbp
	.cfi_def_cfa_register %rbp
	subq	$40, %rsp
	movq	%rdi, -40(%rbp)
	movq	%rsi, -32(%rbp)
Ltmp1040:
	.loc	37 2407 9 prologue_end
	cmpq	$0, -40(%rbp)
	jne	LBB151_2
	.loc	37 2409 21
	movq	$1, -24(%rbp)
	.loc	37 2409 44 is_stmt 0
	jmp	LBB151_3
LBB151_2:
	.loc	37 2408 18 is_stmt 1
	movq	-32(%rbp), %rax
	movq	%rax, -8(%rbp)
Ltmp1041:
	.loc	37 2408 24 is_stmt 0
	movq	%rax, -16(%rbp)
	movq	$0, -24(%rbp)
Ltmp1042:
LBB151_3:
	.loc	37 2411 6 is_stmt 1
	movq	-24(%rbp), %rax
	movq	-16(%rbp), %rdx
	addq	$40, %rsp
	popq	%rbp
	retq
Ltmp1043:
Lfunc_end151:
	.cfi_endproc

	.globl	__ZN77_$LT$alloc..raw_vec..RawVec$LT$T$C$A$GT$$u20$as$u20$core..ops..drop..Drop$GT$4drop17h299f2b8efa4fffdbE
	.p2align	4, 0x90
__ZN77_$LT$alloc..raw_vec..RawVec$LT$T$C$A$GT$$u20$as$u20$core..ops..drop..Drop$GT$4drop17h299f2b8efa4fffdbE:
Lfunc_begin152:
	.loc	42 477 0
	.cfi_startproc
	pushq	%rbp
	.cfi_def_cfa_offset 16
	.cfi_offset %rbp, -16
	movq	%rsp, %rbp
	.cfi_def_cfa_register %rbp
	subq	$64, %rsp
	movq	%rdi, %rsi
	movq	%rsi, -64(%rbp)
	movq	%rsi, -32(%rbp)
Ltmp1044:
	.loc	42 478 38 prologue_end
	leaq	-56(%rbp), %rdi
	callq	__ZN5alloc7raw_vec19RawVec$LT$T$C$A$GT$14current_memory17h684fc83632e3ee9eE
	.loc	42 478 16 is_stmt 0
	movl	$1, %eax
	xorl	%ecx, %ecx
	cmpq	$0, -40(%rbp)
	cmoveq	%rcx, %rax
	cmpq	$1, %rax
	jne	LBB152_2
	.loc	42 0 16
	movq	-64(%rbp), %rdi
	.loc	42 478 22
	movq	-56(%rbp), %rsi
	movq	%rsi, -24(%rbp)
	.loc	42 478 27
	movq	-48(%rbp), %rdx
	movq	-40(%rbp), %rcx
	movq	%rdx, -16(%rbp)
	movq	%rcx, -8(%rbp)
	.loc	42 479 22 is_stmt 1
	callq	__ZN63_$LT$alloc..alloc..Global$u20$as$u20$core..alloc..Allocator$GT$10deallocate17h6471a889babf9f10E
Ltmp1045:
LBB152_2:
	.loc	42 481 6
	addq	$64, %rsp
	popq	%rbp
	retq
Ltmp1046:
Lfunc_end152:
	.cfi_endproc

	.p2align	4, 0x90
__ZN80_$LT$std..ffi..os_str..OsStr$u20$as$u20$std..os..unix..ffi..os_str..OsStrExt$GT$10from_bytes17h932a6855da447417E:
Lfunc_begin153:
	.file	52 "/rustc/2c8cc343237b8f7d5a3c3703e3a87f2eb2c54a74/library/std/src/os/unix/ffi" "os_str.rs"
	.loc	52 63 0
	.cfi_startproc
	pushq	%rbp
	.cfi_def_cfa_offset 16
	.cfi_offset %rbp, -16
	movq	%rsp, %rbp
	.cfi_def_cfa_register %rbp
	subq	$32, %rsp
	movq	%rdi, -32(%rbp)
	movq	%rsi, -24(%rbp)
Ltmp1047:
	.loc	52 64 18 prologue_end
	movq	%rdi, -16(%rbp)
	movq	%rsi, -8(%rbp)
	movq	-16(%rbp), %rax
	movq	-8(%rbp), %rdx
	.loc	52 65 6
	addq	$32, %rsp
	popq	%rbp
	retq
Ltmp1048:
Lfunc_end153:
	.cfi_endproc

	.globl	__ZN84_$LT$core..option..Option$LT$T$GT$$u20$as$u20$core..ops..try_trait..FromResidual$GT$13from_residual17h574ccad41b71e34dE
	.p2align	4, 0x90
__ZN84_$LT$core..option..Option$LT$T$GT$$u20$as$u20$core..ops..try_trait..FromResidual$GT$13from_residual17h574ccad41b71e34dE:
Lfunc_begin154:
	.loc	37 2418 0
	.cfi_startproc
	pushq	%rbp
	.cfi_def_cfa_offset 16
	.cfi_offset %rbp, -16
	movq	%rsp, %rbp
	.cfi_def_cfa_register %rbp
	pushq	%rax
	movq	%rdi, %rax
Ltmp1049:
	.loc	37 2420 21 prologue_end
	movq	$0, 8(%rdi)
	.loc	37 2422 6
	addq	$8, %rsp
	popq	%rbp
	retq
Ltmp1050:
Lfunc_end154:
	.cfi_endproc

	.p2align	4, 0x90
__ZN87_$LT$std..path..PathBuf$u20$as$u20$core..convert..From$LT$alloc..string..String$GT$$GT$4from17h2ac3e785fd96206bE:
Lfunc_begin155:
	.loc	50 1729 0
	.cfi_startproc
	pushq	%rbp
	.cfi_def_cfa_offset 16
	.cfi_offset %rbp, -16
	movq	%rsp, %rbp
	.cfi_def_cfa_register %rbp
	subq	$144, %rsp
	movq	%rdi, -136(%rbp)
	movq	%rdi, -128(%rbp)
Ltmp1051:
	.loc	50 1730 38 prologue_end
	movq	(%rsi), %rax
	movq	%rax, -96(%rbp)
	movq	8(%rsi), %rax
	movq	%rax, -88(%rbp)
	movq	16(%rsi), %rax
	movq	%rax, -80(%rbp)
Ltmp1052:
	.loc	51 478 44
	movq	-96(%rbp), %rax
	movq	%rax, -48(%rbp)
	movq	-88(%rbp), %rax
	movq	%rax, -40(%rbp)
	movq	-80(%rbp), %rax
	movq	%rax, -32(%rbp)
	.loc	51 478 27 is_stmt 0
	leaq	-72(%rbp), %rdi
	leaq	-48(%rbp), %rsi
Ltmp1053:
	callq	__ZN3std3sys4unix6os_str3Buf11from_string17hc1f32ff89da3894eE
	movq	-136(%rbp), %rdi
	movq	-128(%rbp), %rax
	.loc	51 478 9
	movq	-72(%rbp), %rcx
	movq	%rcx, -120(%rbp)
	movq	-64(%rbp), %rcx
	movq	%rcx, -112(%rbp)
	movq	-56(%rbp), %rcx
	movq	%rcx, -104(%rbp)
Ltmp1054:
	.loc	50 1708 26 is_stmt 1
	movq	-120(%rbp), %rcx
	movq	%rcx, -24(%rbp)
	movq	-112(%rbp), %rcx
	movq	%rcx, -16(%rbp)
	movq	-104(%rbp), %rcx
	movq	%rcx, -8(%rbp)
	.loc	50 1708 9 is_stmt 0
	movq	-24(%rbp), %rcx
	movq	%rcx, (%rdi)
	movq	-16(%rbp), %rcx
	movq	%rcx, 8(%rdi)
	movq	-8(%rbp), %rcx
	movq	%rcx, 16(%rdi)
Ltmp1055:
	.loc	50 1731 6 is_stmt 1
	addq	$144, %rsp
	popq	%rbp
	retq
Ltmp1056:
Lfunc_end155:
	.cfi_endproc

	.globl	__ZN91_$LT$std..panicking..begin_panic..PanicPayload$LT$A$GT$$u20$as$u20$core..panic..BoxMeUp$GT$3get17hd4ffd23deb379338E
	.p2align	4, 0x90
__ZN91_$LT$std..panicking..begin_panic..PanicPayload$LT$A$GT$$u20$as$u20$core..panic..BoxMeUp$GT$3get17hd4ffd23deb379338E:
Lfunc_begin156:
	.loc	13 635 0
	.cfi_startproc
	pushq	%rbp
	.cfi_def_cfa_offset 16
	.cfi_offset %rbp, -16
	movq	%rsp, %rbp
	.cfi_def_cfa_register %rbp
	subq	$32, %rsp
	movq	%rdi, -24(%rbp)
	movq	%rdi, -16(%rbp)
Ltmp1057:
	.loc	13 636 19 prologue_end
	movq	(%rdi), %rdx
	movl	$1, %eax
	xorl	%ecx, %ecx
	cmpq	$0, %rdx
	cmoveq	%rcx, %rax
	.loc	13 636 13 is_stmt 0
	cmpq	$0, %rax
	jne	LBB156_2
	.loc	13 638 25 is_stmt 1
	callq	__ZN3std7process5abort17hb525d9c740fe6234E
LBB156_2:
	.loc	13 0 25 is_stmt 0
	movq	-24(%rbp), %rax
	.loc	13 637 22 is_stmt 1
	movq	%rax, -8(%rbp)
	.loc	13 640 10
	leaq	l___unnamed_6(%rip), %rdx
	addq	$32, %rsp
	popq	%rbp
	retq
Ltmp1058:
Lfunc_end156:
	.cfi_endproc

	.globl	__ZN91_$LT$std..panicking..begin_panic..PanicPayload$LT$A$GT$$u20$as$u20$core..panic..BoxMeUp$GT$8take_box17h02381c6d71c6e382E
	.p2align	4, 0x90
__ZN91_$LT$std..panicking..begin_panic..PanicPayload$LT$A$GT$$u20$as$u20$core..panic..BoxMeUp$GT$8take_box17h02381c6d71c6e382E:
Lfunc_begin157:
	.loc	13 622 0
	.cfi_startproc
	.cfi_personality 155, _rust_eh_personality
	.cfi_lsda 16, Lexception13
	pushq	%rbp
	.cfi_def_cfa_offset 16
	.cfi_offset %rbp, -16
	movq	%rsp, %rbp
	.cfi_def_cfa_register %rbp
	subq	$256, %rsp
	movq	%rdi, -152(%rbp)
Ltmp1068:
	.loc	13 628 30 prologue_end
	movq	%rdi, -136(%rbp)
Ltmp1069:
	.loc	37 1623 28
	movq	$0, -184(%rbp)
	.loc	37 1623 9 is_stmt 0
	movq	-184(%rbp), %rsi
	movq	-176(%rbp), %rdx
	callq	__ZN4core3mem7replace17hb22b29346faa13d3E
	movq	%rdx, -192(%rbp)
	movq	%rax, -200(%rbp)
Ltmp1070:
	.loc	13 628 30 is_stmt 1
	movq	-200(%rbp), %rdx
	movl	$1, %eax
	xorl	%ecx, %ecx
	cmpq	$0, %rdx
	cmoveq	%rcx, %rax
	.loc	13 628 24 is_stmt 0
	cmpq	$0, %rax
	jne	LBB157_2
	.loc	13 630 25 is_stmt 1
	callq	__ZN3std7process5abort17hb525d9c740fe6234E
LBB157_2:
	.loc	13 629 22
	movq	-200(%rbp), %rcx
	movq	%rcx, -240(%rbp)
	movq	-192(%rbp), %rax
	movq	%rax, -232(%rbp)
	movq	%rcx, -128(%rbp)
	movq	%rax, -120(%rbp)
Ltmp1071:
	.loc	13 629 37 is_stmt 0
	movq	%rcx, -112(%rbp)
	movq	%rax, -104(%rbp)
Ltmp1059:
	movl	$16, %edi
	movl	$8, %esi
Ltmp1072:
	.loc	46 219 9 is_stmt 1
	callq	__ZN5alloc5alloc15exchange_malloc17h0404a84fadf3053fE
Ltmp1060:
	movq	%rax, -224(%rbp)
	jmp	LBB157_5
LBB157_3:
	.loc	46 220 5
	jmp	LBB157_6
LBB157_4:
Ltmp1061:
	.loc	46 0 5 is_stmt 0
	movq	%rax, %rcx
	movl	%edx, %eax
	movq	%rcx, -96(%rbp)
	movl	%eax, -88(%rbp)
	jmp	LBB157_3
LBB157_5:
	movq	-224(%rbp), %rax
	movq	-232(%rbp), %rcx
	movq	-240(%rbp), %rdx
	.loc	46 219 18 is_stmt 1
	movq	%rdx, (%rax)
	movq	%rcx, 8(%rax)
Ltmp1073:
	.loc	13 629 28
	movq	%rax, -216(%rbp)
	leaq	l___unnamed_6(%rip), %rax
	movq	%rax, -208(%rbp)
Ltmp1074:
	.loc	13 632 27
	movq	-216(%rbp), %rdi
	movq	-208(%rbp), %rsi
	movq	%rdi, -80(%rbp)
	movq	%rsi, -72(%rbp)
Ltmp1075:
	.loc	46 1059 39
	movq	%rdi, -64(%rbp)
	movq	%rsi, -56(%rbp)
Ltmp1062:
Ltmp1076:
	.loc	46 1112 31
	callq	__ZN5alloc5boxed16Box$LT$T$C$A$GT$11into_unique17h727af5dda231b87fE
Ltmp1063:
	movq	%rdx, -256(%rbp)
	movq	%rax, -248(%rbp)
	jmp	LBB157_9
Ltmp1077:
LBB157_6:
	.loc	13 622 9
	movq	-96(%rbp), %rdi
	callq	__Unwind_Resume
LBB157_7:
	.loc	13 633 9
	xorl	%eax, %eax
	testb	$1, %al
	jne	LBB157_10
	jmp	LBB157_6
LBB157_8:
Ltmp1064:
	.loc	13 0 9 is_stmt 0
	movq	%rax, %rcx
	movl	%edx, %eax
	movq	%rcx, -96(%rbp)
	movl	%eax, -88(%rbp)
	jmp	LBB157_7
LBB157_9:
	movq	-256(%rbp), %rax
	movq	-248(%rbp), %rcx
Ltmp1078:
	.loc	46 1112 14 is_stmt 1
	movq	%rcx, -48(%rbp)
	movq	%rax, -40(%rbp)
Ltmp1079:
	.loc	46 1113 10
	movq	%rcx, -32(%rbp)
	movq	%rax, -24(%rbp)
Ltmp1080:
	.loc	7 104 9
	movq	%rcx, -16(%rbp)
	movq	%rax, -8(%rbp)
Ltmp1081:
	.loc	46 1113 9
	movq	%rcx, -168(%rbp)
	movq	%rax, -160(%rbp)
Ltmp1082:
	.loc	46 1059 9
	movq	-168(%rbp), %rax
	movq	-160(%rbp), %rdx
Ltmp1083:
	.loc	13 633 10
	addq	$256, %rsp
	popq	%rbp
	retq
LBB157_10:
Ltmp1065:
	.loc	13 0 10 is_stmt 0
	leaq	-216(%rbp), %rdi
	.loc	13 633 9
	callq	__ZN4core3ptr91drop_in_place$LT$alloc..boxed..Box$LT$dyn$u20$core..any..Any$u2b$core..marker..Send$GT$$GT$17h23cefe420705babcE
Ltmp1066:
	jmp	LBB157_6
LBB157_11:
Ltmp1067:
	.loc	13 622 9 is_stmt 1
	callq	__ZN4core9panicking19panic_cannot_unwind17h1fbca7e1d7f56ae1E
Ltmp1084:
Lfunc_end157:
	.cfi_endproc
	.section	__TEXT,__gcc_except_tab
	.p2align	2
GCC_except_table157:
Lexception13:
	.byte	255
	.byte	255
	.byte	1
	.uleb128 Lcst_end13-Lcst_begin13
Lcst_begin13:
	.uleb128 Lfunc_begin157-Lfunc_begin157
	.uleb128 Ltmp1059-Lfunc_begin157
	.byte	0
	.byte	0
	.uleb128 Ltmp1059-Lfunc_begin157
	.uleb128 Ltmp1060-Ltmp1059
	.uleb128 Ltmp1061-Lfunc_begin157
	.byte	0
	.uleb128 Ltmp1062-Lfunc_begin157
	.uleb128 Ltmp1063-Ltmp1062
	.uleb128 Ltmp1064-Lfunc_begin157
	.byte	0
	.uleb128 Ltmp1063-Lfunc_begin157
	.uleb128 Ltmp1065-Ltmp1063
	.byte	0
	.byte	0
	.uleb128 Ltmp1065-Lfunc_begin157
	.uleb128 Ltmp1066-Ltmp1065
	.uleb128 Ltmp1067-Lfunc_begin157
	.byte	0
Lcst_end13:
	.p2align	2

	.section	__TEXT,__text,regular,pure_instructions
	.p2align	4, 0x90
__ZN95_$LT$std..ffi..os_str..OsStr$u20$as$u20$core..convert..AsRef$LT$std..ffi..os_str..OsStr$GT$$GT$6as_ref17h9e2d749e9d581052E:
Lfunc_begin158:
	.loc	51 1305 0
	.cfi_startproc
	pushq	%rbp
	.cfi_def_cfa_offset 16
	.cfi_offset %rbp, -16
	movq	%rsp, %rbp
	.cfi_def_cfa_register %rbp
	subq	$16, %rsp
	movq	%rsi, %rdx
	movq	%rdi, %rax
	movq	%rax, -16(%rbp)
	movq	%rdx, -8(%rbp)
Ltmp1085:
	.loc	51 1307 6 prologue_end
	addq	$16, %rsp
	popq	%rbp
	retq
Ltmp1086:
Lfunc_end158:
	.cfi_endproc

	.p2align	4, 0x90
__ZN15core_foundation17attributed_string25CFMutableAttributedString3new17hd4c56fbc189779d7E:
Lfunc_begin159:
	.file	53 "/Users/natalie/.cargo/registry/src/github.com-1ecc6299db9ec823/core-foundation-0.9.3" "src/attributed_string.rs"
	.loc	53 48 0
	.cfi_startproc
	pushq	%rbp
	.cfi_def_cfa_offset 16
	.cfi_offset %rbp, -16
	movq	%rsp, %rbp
	.cfi_def_cfa_register %rbp
	subq	$16, %rsp
Ltmp1087:
	.loc	53 51 17 prologue_end
	movq	_kCFAllocatorDefault@GOTPCREL(%rip), %rax
	movq	(%rax), %rdi
	.loc	53 50 28
	xorl	%eax, %eax
	movl	%eax, %esi
	callq	_CFAttributedStringCreateMutable
	movq	%rax, %rdi
	movq	%rdi, -8(%rbp)
Ltmp1088:
	.loc	53 53 13
	callq	__ZN112_$LT$core_foundation..attributed_string..CFMutableAttributedString$u20$as$u20$core_foundation..base..TCFType$GT$22wrap_under_create_rule17h3da2bc694c5d4536E
Ltmp1089:
	.loc	53 55 6
	addq	$16, %rsp
	popq	%rbp
	retq
Ltmp1090:
Lfunc_end159:
	.cfi_endproc

	.globl	__ZN104_$LT$core_foundation..attributed_string..CFMutableAttributedString$u20$as$u20$core..default..Default$GT$7default17h3be99c21f6b00a14E
	.p2align	4, 0x90
__ZN104_$LT$core_foundation..attributed_string..CFMutableAttributedString$u20$as$u20$core..default..Default$GT$7default17h3be99c21f6b00a14E:
Lfunc_begin160:
	.loc	53 82 0
	.cfi_startproc
	pushq	%rbp
	.cfi_def_cfa_offset 16
	.cfi_offset %rbp, -16
	movq	%rsp, %rbp
	.cfi_def_cfa_register %rbp
Ltmp1091:
	.loc	53 83 9 prologue_end
	callq	__ZN15core_foundation17attributed_string25CFMutableAttributedString3new17hd4c56fbc189779d7E
	.loc	53 84 6
	popq	%rbp
	retq
Ltmp1092:
Lfunc_end160:
	.cfi_endproc

	.p2align	4, 0x90
__ZN67_$LT$usize$u20$as$u20$core_foundation..base..CFIndexConvertible$GT$10to_CFIndex17hbb31a32fd096b46bE:
Lfunc_begin161:
	.file	54 "/Users/natalie/.cargo/registry/src/github.com-1ecc6299db9ec823/core-foundation-0.9.3" "src/base.rs"
	.loc	54 31 0
	.cfi_startproc
	pushq	%rbp
	.cfi_def_cfa_offset 16
	.cfi_offset %rbp, -16
	movq	%rsp, %rbp
	.cfi_def_cfa_register %rbp
	subq	$32, %rsp
	movq	%rdi, -24(%rbp)
	movq	%rdi, -16(%rbp)
Ltmp1093:
	.loc	54 32 27 prologue_end
	movabsq	$9223372036854775807, %rax
	movq	%rax, -8(%rbp)
Ltmp1094:
	.loc	54 33 12
	movabsq	$9223372036854775807, %rax
	cmpq	%rax, %rdi
	ja	LBB161_2
Ltmp1095:
	.loc	54 0 12 is_stmt 0
	movq	-24(%rbp), %rax
	.loc	54 37 6 is_stmt 1
	addq	$32, %rsp
	popq	%rbp
	retq
LBB161_2:
Ltmp1096:
	.loc	54 34 13
	leaq	l___unnamed_22(%rip), %rdi
	leaq	l___unnamed_23(%rip), %rdx
	movl	$18, %esi
	callq	__ZN3std9panicking11begin_panic17hca1489fda4927541E
Ltmp1097:
Lfunc_end161:
	.cfi_endproc

	.globl	__ZN66_$LT$core_foundation..base..CFType$u20$as$u20$core..fmt..Debug$GT$3fmt17h7bded89213b59217E
	.p2align	4, 0x90
__ZN66_$LT$core_foundation..base..CFType$u20$as$u20$core..fmt..Debug$GT$3fmt17h7bded89213b59217E:
Lfunc_begin162:
	.loc	54 117 0
	.cfi_startproc
	.cfi_personality 155, _rust_eh_personality
	.cfi_lsda 16, Lexception14
	pushq	%rbp
	.cfi_def_cfa_offset 16
	.cfi_offset %rbp, -16
	movq	%rsp, %rbp
	.cfi_def_cfa_register %rbp
	subq	$64, %rsp
	movq	%rsi, -56(%rbp)
	movq	%rdi, -32(%rbp)
	movq	%rsi, -24(%rbp)
Ltmp1104:
	.loc	54 119 64 prologue_end
	movq	(%rdi), %rdi
	.loc	54 119 46 is_stmt 0
	callq	_CFCopyDescription
	movq	%rax, %rdi
	.loc	54 119 13
	callq	__ZN84_$LT$core_foundation..string..CFString$u20$as$u20$core_foundation..base..TCFType$GT$22wrap_under_create_rule17h2b5c31a114da2395E
	movq	-56(%rbp), %rsi
	movq	%rax, -40(%rbp)
Ltmp1098:
	leaq	-40(%rbp), %rdi
Ltmp1105:
	.loc	54 121 9 is_stmt 1
	callq	__ZN70_$LT$core_foundation..string..CFString$u20$as$u20$core..fmt..Debug$GT$3fmt17h78c7f88a9755a008E
Ltmp1099:
	movb	%al, -41(%rbp)
	jmp	LBB162_3
Ltmp1106:
LBB162_1:
Ltmp1101:
	.loc	54 0 9 is_stmt 0
	leaq	-40(%rbp), %rdi
	.loc	54 122 5 is_stmt 1
	callq	__ZN4core3ptr54drop_in_place$LT$core_foundation..string..CFString$GT$17hb9a66b56a2e77954E
Ltmp1102:
	jmp	LBB162_5
LBB162_2:
Ltmp1100:
	.loc	54 0 5 is_stmt 0
	movq	%rax, %rcx
	movl	%edx, %eax
	movq	%rcx, -16(%rbp)
	movl	%eax, -8(%rbp)
	jmp	LBB162_1
LBB162_3:
	.loc	54 122 5
	leaq	-40(%rbp), %rdi
	callq	__ZN4core3ptr54drop_in_place$LT$core_foundation..string..CFString$GT$17hb9a66b56a2e77954E
	movb	-41(%rbp), %al
	.loc	54 122 6
	andb	$1, %al
	movzbl	%al, %eax
	addq	$64, %rsp
	popq	%rbp
	retq
LBB162_4:
Ltmp1103:
	.loc	54 117 5 is_stmt 1
	callq	__ZN4core9panicking19panic_cannot_unwind17h1fbca7e1d7f56ae1E
LBB162_5:
	movq	-16(%rbp), %rdi
	callq	__Unwind_Resume
Ltmp1107:
Lfunc_end162:
	.cfi_endproc
	.section	__TEXT,__gcc_except_tab
	.p2align	2
GCC_except_table162:
Lexception14:
	.byte	255
	.byte	255
	.byte	1
	.uleb128 Lcst_end14-Lcst_begin14
Lcst_begin14:
	.uleb128 Lfunc_begin162-Lfunc_begin162
	.uleb128 Ltmp1098-Lfunc_begin162
	.byte	0
	.byte	0
	.uleb128 Ltmp1098-Lfunc_begin162
	.uleb128 Ltmp1099-Ltmp1098
	.uleb128 Ltmp1100-Lfunc_begin162
	.byte	0
	.uleb128 Ltmp1101-Lfunc_begin162
	.uleb128 Ltmp1102-Ltmp1101
	.uleb128 Ltmp1103-Lfunc_begin162
	.byte	0
	.uleb128 Ltmp1102-Lfunc_begin162
	.uleb128 Lfunc_end162-Ltmp1102
	.byte	0
	.byte	0
Lcst_end14:
	.p2align	2

	.section	__TEXT,__text,regular,pure_instructions
	.p2align	4, 0x90
__ZN70_$LT$core_foundation..base..CFType$u20$as$u20$core..cmp..PartialEq$GT$2eq17h8eb06979f4c829cbE:
Lfunc_begin163:
	.loc	54 136 0
	.cfi_startproc
	pushq	%rbp
	.cfi_def_cfa_offset 16
	.cfi_offset %rbp, -16
	movq	%rsp, %rbp
	.cfi_def_cfa_register %rbp
	subq	$32, %rsp
	movq	%rsi, -32(%rbp)
	movq	%rdi, -16(%rbp)
	movq	%rsi, -8(%rbp)
Ltmp1108:
	.loc	54 138 21 prologue_end
	callq	__ZN80_$LT$core_foundation..base..CFType$u20$as$u20$core_foundation..base..TCFType$GT$12as_CFTypeRef17h1f7139d64a0fc0f7E
	movq	-32(%rbp), %rdi
	movq	%rax, -24(%rbp)
	.loc	54 138 42 is_stmt 0
	callq	__ZN80_$LT$core_foundation..base..CFType$u20$as$u20$core_foundation..base..TCFType$GT$12as_CFTypeRef17h1f7139d64a0fc0f7E
	movq	-24(%rbp), %rdi
	movq	%rax, %rsi
	.loc	54 138 13
	callq	_CFEqual
	cmpb	$0, %al
	setne	%al
	.loc	54 140 6 is_stmt 1
	andb	$1, %al
	movzbl	%al, %eax
	addq	$32, %rsp
	popq	%rbp
	retq
Ltmp1109:
Lfunc_end163:
	.cfi_endproc

	.globl	__ZN15core_foundation4base7TCFType9as_CFType17h03072059a9b17a6bE
	.p2align	4, 0x90
__ZN15core_foundation4base7TCFType9as_CFType17h03072059a9b17a6bE:
Lfunc_begin164:
	.loc	54 180 0
	.cfi_startproc
	pushq	%rbp
	.cfi_def_cfa_offset 16
	.cfi_offset %rbp, -16
	movq	%rsp, %rbp
	.cfi_def_cfa_register %rbp
	subq	$16, %rsp
	movq	%rdi, -8(%rbp)
Ltmp1110:
	.loc	54 182 42 prologue_end
	callq	__ZN80_$LT$core_foundation..date..CFDate$u20$as$u20$core_foundation..base..TCFType$GT$12as_CFTypeRef17h1005bff11cdc637bE
	movq	%rax, %rdi
	.loc	54 182 13 is_stmt 0
	callq	__ZN80_$LT$core_foundation..base..CFType$u20$as$u20$core_foundation..base..TCFType$GT$19wrap_under_get_rule17h49b90e611433dbe4E
	.loc	54 184 6 is_stmt 1
	addq	$16, %rsp
	popq	%rbp
	retq
Ltmp1111:
Lfunc_end164:
	.cfi_endproc

	.globl	__ZN15core_foundation4base7TCFType9as_CFType17h27e618c8c37d51d9E
	.p2align	4, 0x90
__ZN15core_foundation4base7TCFType9as_CFType17h27e618c8c37d51d9E:
Lfunc_begin165:
	.loc	54 180 0
	.cfi_startproc
	pushq	%rbp
	.cfi_def_cfa_offset 16
	.cfi_offset %rbp, -16
	movq	%rsp, %rbp
	.cfi_def_cfa_register %rbp
	subq	$16, %rsp
	movq	%rdi, -8(%rbp)
Ltmp1112:
	.loc	54 182 42 prologue_end
	callq	__ZN84_$LT$core_foundation..string..CFString$u20$as$u20$core_foundation..base..TCFType$GT$12as_CFTypeRef17h9944c129f989ccd4E
	movq	%rax, %rdi
	.loc	54 182 13 is_stmt 0
	callq	__ZN80_$LT$core_foundation..base..CFType$u20$as$u20$core_foundation..base..TCFType$GT$19wrap_under_get_rule17h49b90e611433dbe4E
	.loc	54 184 6 is_stmt 1
	addq	$16, %rsp
	popq	%rbp
	retq
Ltmp1113:
Lfunc_end165:
	.cfi_endproc

	.globl	__ZN15core_foundation4base7TCFType9as_CFType17h562aeec493ea3501E
	.p2align	4, 0x90
__ZN15core_foundation4base7TCFType9as_CFType17h562aeec493ea3501E:
Lfunc_begin166:
	.loc	54 180 0
	.cfi_startproc
	pushq	%rbp
	.cfi_def_cfa_offset 16
	.cfi_offset %rbp, -16
	movq	%rsp, %rbp
	.cfi_def_cfa_register %rbp
	subq	$16, %rsp
	movq	%rdi, -8(%rbp)
Ltmp1114:
	.loc	54 182 42 prologue_end
	callq	__ZN86_$LT$core_foundation..runloop..CFRunLoop$u20$as$u20$core_foundation..base..TCFType$GT$12as_CFTypeRef17h3979e03a5a85b351E
	movq	%rax, %rdi
	.loc	54 182 13 is_stmt 0
	callq	__ZN80_$LT$core_foundation..base..CFType$u20$as$u20$core_foundation..base..TCFType$GT$19wrap_under_get_rule17h49b90e611433dbe4E
	.loc	54 184 6 is_stmt 1
	addq	$16, %rsp
	popq	%rbp
	retq
Ltmp1115:
Lfunc_end166:
	.cfi_endproc

	.globl	__ZN15core_foundation4base7TCFType9as_CFType17h6e69953045f304e7E
	.p2align	4, 0x90
__ZN15core_foundation4base7TCFType9as_CFType17h6e69953045f304e7E:
Lfunc_begin167:
	.loc	54 180 0
	.cfi_startproc
	pushq	%rbp
	.cfi_def_cfa_offset 16
	.cfi_offset %rbp, -16
	movq	%rsp, %rbp
	.cfi_def_cfa_register %rbp
	subq	$16, %rsp
	movq	%rdi, -8(%rbp)
Ltmp1116:
	.loc	54 182 42 prologue_end
	callq	__ZN80_$LT$core_foundation..data..CFData$u20$as$u20$core_foundation..base..TCFType$GT$12as_CFTypeRef17h650859be0a633defE
	movq	%rax, %rdi
	.loc	54 182 13 is_stmt 0
	callq	__ZN80_$LT$core_foundation..base..CFType$u20$as$u20$core_foundation..base..TCFType$GT$19wrap_under_get_rule17h49b90e611433dbe4E
	.loc	54 184 6 is_stmt 1
	addq	$16, %rsp
	popq	%rbp
	retq
Ltmp1117:
Lfunc_end167:
	.cfi_endproc

	.globl	__ZN15core_foundation4base7TCFType9as_CFType17h71ef3bd90e815022E
	.p2align	4, 0x90
__ZN15core_foundation4base7TCFType9as_CFType17h71ef3bd90e815022E:
Lfunc_begin168:
	.loc	54 180 0
	.cfi_startproc
	pushq	%rbp
	.cfi_def_cfa_offset 16
	.cfi_offset %rbp, -16
	movq	%rsp, %rbp
	.cfi_def_cfa_register %rbp
	subq	$16, %rsp
	movq	%rdi, -8(%rbp)
Ltmp1118:
	.loc	54 182 42 prologue_end
	callq	__ZN88_$LT$core_foundation..timezone..CFTimeZone$u20$as$u20$core_foundation..base..TCFType$GT$12as_CFTypeRef17h261dea0884281cb2E
	movq	%rax, %rdi
	.loc	54 182 13 is_stmt 0
	callq	__ZN80_$LT$core_foundation..base..CFType$u20$as$u20$core_foundation..base..TCFType$GT$19wrap_under_get_rule17h49b90e611433dbe4E
	.loc	54 184 6 is_stmt 1
	addq	$16, %rsp
	popq	%rbp
	retq
Ltmp1119:
Lfunc_end168:
	.cfi_endproc

	.globl	__ZN15core_foundation4base7TCFType9as_CFType17h82fa61adb020fbf7E
	.p2align	4, 0x90
__ZN15core_foundation4base7TCFType9as_CFType17h82fa61adb020fbf7E:
Lfunc_begin169:
	.loc	54 180 0
	.cfi_startproc
	pushq	%rbp
	.cfi_def_cfa_offset 16
	.cfi_offset %rbp, -16
	movq	%rsp, %rbp
	.cfi_def_cfa_register %rbp
	subq	$16, %rsp
	movq	%rdi, -8(%rbp)
Ltmp1120:
	.loc	54 182 42 prologue_end
	callq	__ZN87_$LT$core_foundation..set..CFSet$LT$T$GT$$u20$as$u20$core_foundation..base..TCFType$GT$12as_CFTypeRef17h154acc067046cbbdE
	movq	%rax, %rdi
	.loc	54 182 13 is_stmt 0
	callq	__ZN80_$LT$core_foundation..base..CFType$u20$as$u20$core_foundation..base..TCFType$GT$19wrap_under_get_rule17h49b90e611433dbe4E
	.loc	54 184 6 is_stmt 1
	addq	$16, %rsp
	popq	%rbp
	retq
Ltmp1121:
Lfunc_end169:
	.cfi_endproc

	.globl	__ZN15core_foundation4base7TCFType9as_CFType17h952d72b103bc4621E
	.p2align	4, 0x90
__ZN15core_foundation4base7TCFType9as_CFType17h952d72b103bc4621E:
Lfunc_begin170:
	.loc	54 180 0
	.cfi_startproc
	pushq	%rbp
	.cfi_def_cfa_offset 16
	.cfi_offset %rbp, -16
	movq	%rsp, %rbp
	.cfi_def_cfa_register %rbp
	subq	$16, %rsp
	movq	%rdi, -8(%rbp)
Ltmp1122:
	.loc	54 182 42 prologue_end
	callq	__ZN96_$LT$core_foundation..characterset..CFCharacterSet$u20$as$u20$core_foundation..base..TCFType$GT$12as_CFTypeRef17h3ff4b83544f1472fE
	movq	%rax, %rdi
	.loc	54 182 13 is_stmt 0
	callq	__ZN80_$LT$core_foundation..base..CFType$u20$as$u20$core_foundation..base..TCFType$GT$19wrap_under_get_rule17h49b90e611433dbe4E
	.loc	54 184 6 is_stmt 1
	addq	$16, %rsp
	popq	%rbp
	retq
Ltmp1123:
Lfunc_end170:
	.cfi_endproc

	.globl	__ZN15core_foundation4base7TCFType9as_CFType17h982f284f061774edE
	.p2align	4, 0x90
__ZN15core_foundation4base7TCFType9as_CFType17h982f284f061774edE:
Lfunc_begin171:
	.loc	54 180 0
	.cfi_startproc
	pushq	%rbp
	.cfi_def_cfa_offset 16
	.cfi_offset %rbp, -16
	movq	%rsp, %rbp
	.cfi_def_cfa_register %rbp
	subq	$16, %rsp
	movq	%rdi, -8(%rbp)
Ltmp1124:
	.loc	54 182 42 prologue_end
	callq	__ZN89_$LT$core_foundation..mach_port..CFMachPort$u20$as$u20$core_foundation..base..TCFType$GT$12as_CFTypeRef17he2a56900401579f9E
	movq	%rax, %rdi
	.loc	54 182 13 is_stmt 0
	callq	__ZN80_$LT$core_foundation..base..CFType$u20$as$u20$core_foundation..base..TCFType$GT$19wrap_under_get_rule17h49b90e611433dbe4E
	.loc	54 184 6 is_stmt 1
	addq	$16, %rsp
	popq	%rbp
	retq
Ltmp1125:
Lfunc_end171:
	.cfi_endproc

	.globl	__ZN15core_foundation4base7TCFType9as_CFType17hae8e3a0d8944d7c7E
	.p2align	4, 0x90
__ZN15core_foundation4base7TCFType9as_CFType17hae8e3a0d8944d7c7E:
Lfunc_begin172:
	.loc	54 180 0
	.cfi_startproc
	pushq	%rbp
	.cfi_def_cfa_offset 16
	.cfi_offset %rbp, -16
	movq	%rsp, %rbp
	.cfi_def_cfa_register %rbp
	subq	$16, %rsp
	movq	%rdi, -8(%rbp)
Ltmp1126:
	.loc	54 182 42 prologue_end
	callq	__ZN112_$LT$core_foundation..dictionary..CFMutableDictionary$LT$K$C$V$GT$$u20$as$u20$core_foundation..base..TCFType$GT$12as_CFTypeRef17h84c87f78384089e8E
	movq	%rax, %rdi
	.loc	54 182 13 is_stmt 0
	callq	__ZN80_$LT$core_foundation..base..CFType$u20$as$u20$core_foundation..base..TCFType$GT$19wrap_under_get_rule17h49b90e611433dbe4E
	.loc	54 184 6 is_stmt 1
	addq	$16, %rsp
	popq	%rbp
	retq
Ltmp1127:
Lfunc_end172:
	.cfi_endproc

	.globl	__ZN15core_foundation4base7TCFType9as_CFType17hb76b073b57dcf9caE
	.p2align	4, 0x90
__ZN15core_foundation4base7TCFType9as_CFType17hb76b073b57dcf9caE:
Lfunc_begin173:
	.loc	54 180 0
	.cfi_startproc
	pushq	%rbp
	.cfi_def_cfa_offset 16
	.cfi_offset %rbp, -16
	movq	%rsp, %rbp
	.cfi_def_cfa_register %rbp
	subq	$16, %rsp
	movq	%rdi, -8(%rbp)
Ltmp1128:
	.loc	54 182 42 prologue_end
	callq	__ZN80_$LT$core_foundation..uuid..CFUUID$u20$as$u20$core_foundation..base..TCFType$GT$12as_CFTypeRef17h9c17dcbd107c66f7E
	movq	%rax, %rdi
	.loc	54 182 13 is_stmt 0
	callq	__ZN80_$LT$core_foundation..base..CFType$u20$as$u20$core_foundation..base..TCFType$GT$19wrap_under_get_rule17h49b90e611433dbe4E
	.loc	54 184 6 is_stmt 1
	addq	$16, %rsp
	popq	%rbp
	retq
Ltmp1129:
Lfunc_end173:
	.cfi_endproc

	.globl	__ZN15core_foundation4base7TCFType9as_CFType17hcaf798463ab453caE
	.p2align	4, 0x90
__ZN15core_foundation4base7TCFType9as_CFType17hcaf798463ab453caE:
Lfunc_begin174:
	.loc	54 180 0
	.cfi_startproc
	pushq	%rbp
	.cfi_def_cfa_offset 16
	.cfi_offset %rbp, -16
	movq	%rsp, %rbp
	.cfi_def_cfa_register %rbp
	subq	$16, %rsp
	movq	%rdi, -8(%rbp)
Ltmp1130:
	.loc	54 182 42 prologue_end
	callq	__ZN86_$LT$core_foundation..boolean..CFBoolean$u20$as$u20$core_foundation..base..TCFType$GT$12as_CFTypeRef17hf2bf449ad6e01356E
	movq	%rax, %rdi
	.loc	54 182 13 is_stmt 0
	callq	__ZN80_$LT$core_foundation..base..CFType$u20$as$u20$core_foundation..base..TCFType$GT$19wrap_under_get_rule17h49b90e611433dbe4E
	.loc	54 184 6 is_stmt 1
	addq	$16, %rsp
	popq	%rbp
	retq
Ltmp1131:
Lfunc_end174:
	.cfi_endproc

	.globl	__ZN15core_foundation4base7TCFType9as_CFType17hf757561a36da04d2E
	.p2align	4, 0x90
__ZN15core_foundation4base7TCFType9as_CFType17hf757561a36da04d2E:
Lfunc_begin175:
	.loc	54 180 0
	.cfi_startproc
	pushq	%rbp
	.cfi_def_cfa_offset 16
	.cfi_offset %rbp, -16
	movq	%rsp, %rbp
	.cfi_def_cfa_register %rbp
	subq	$16, %rsp
	movq	%rdi, -8(%rbp)
Ltmp1132:
	.loc	54 182 42 prologue_end
	callq	__ZN84_$LT$core_foundation..number..CFNumber$u20$as$u20$core_foundation..base..TCFType$GT$12as_CFTypeRef17hb5dfa51c78bd3bc7E
	movq	%rax, %rdi
	.loc	54 182 13 is_stmt 0
	callq	__ZN80_$LT$core_foundation..base..CFType$u20$as$u20$core_foundation..base..TCFType$GT$19wrap_under_get_rule17h49b90e611433dbe4E
	.loc	54 184 6 is_stmt 1
	addq	$16, %rsp
	popq	%rbp
	retq
Ltmp1133:
Lfunc_end175:
	.cfi_endproc

	.p2align	4, 0x90
__ZN80_$LT$core_foundation..base..CFType$u20$as$u20$core_foundation..base..TCFType$GT$19as_concrete_TypeRef17h83c24d5fa6f994f6E:
Lfunc_begin176:
	.loc	54 240 0
	.cfi_startproc
	pushq	%rbp
	.cfi_def_cfa_offset 16
	.cfi_offset %rbp, -16
	movq	%rsp, %rbp
	.cfi_def_cfa_register %rbp
	pushq	%rax
	movq	%rdi, -8(%rbp)
Ltmp1134:
	.loc	54 241 9 prologue_end
	movq	(%rdi), %rax
	.loc	54 242 6
	addq	$8, %rsp
	popq	%rbp
	retq
Ltmp1135:
Lfunc_end176:
	.cfi_endproc

	.p2align	4, 0x90
__ZN80_$LT$core_foundation..base..CFType$u20$as$u20$core_foundation..base..TCFType$GT$19wrap_under_get_rule17h49b90e611433dbe4E:
Lfunc_begin177:
	.loc	54 245 0
	.cfi_startproc
	pushq	%rbp
	.cfi_def_cfa_offset 16
	.cfi_offset %rbp, -16
	movq	%rsp, %rbp
	.cfi_def_cfa_register %rbp
	subq	$32, %rsp
	movq	%rdi, -24(%rbp)
	movq	%rdi, -16(%rbp)
Ltmp1136:
	.loc	54 246 18 prologue_end
	callq	__ZN4core3ptr9const_ptr33_$LT$impl$u20$$BP$const$u20$T$GT$7is_null17h762b9c635c9c45faE
	.loc	54 246 17 is_stmt 0
	xorb	$-1, %al
	.loc	54 246 9
	xorb	$-1, %al
	testb	$1, %al
	jne	LBB177_2
	.loc	54 0 9
	movq	-24(%rbp), %rdi
	.loc	54 247 36 is_stmt 1
	callq	_CFRetain
	movq	%rax, %rdi
	movq	%rdi, -8(%rbp)
Ltmp1137:
	.loc	54 248 9
	callq	__ZN80_$LT$core_foundation..base..CFType$u20$as$u20$core_foundation..base..TCFType$GT$22wrap_under_create_rule17h5da7c1618cf649ccE
Ltmp1138:
	.loc	54 249 6
	addq	$32, %rsp
	popq	%rbp
	retq
LBB177_2:
	.loc	54 246 9
	leaq	l___unnamed_24(%rip), %rdi
	leaq	l___unnamed_25(%rip), %rdx
	movl	$34, %esi
	callq	__ZN3std9panicking11begin_panic17hca1489fda4927541E
Ltmp1139:
Lfunc_end177:
	.cfi_endproc

	.p2align	4, 0x90
__ZN80_$LT$core_foundation..base..CFType$u20$as$u20$core_foundation..base..TCFType$GT$12as_CFTypeRef17h1f7139d64a0fc0f7E:
Lfunc_begin178:
	.loc	54 252 0
	.cfi_startproc
	pushq	%rbp
	.cfi_def_cfa_offset 16
	.cfi_offset %rbp, -16
	movq	%rsp, %rbp
	.cfi_def_cfa_register %rbp
	subq	$16, %rsp
	movq	%rdi, -8(%rbp)
Ltmp1140:
	.loc	54 253 9 prologue_end
	callq	__ZN80_$LT$core_foundation..base..CFType$u20$as$u20$core_foundation..base..TCFType$GT$19as_concrete_TypeRef17h83c24d5fa6f994f6E
	.loc	54 254 6
	addq	$16, %rsp
	popq	%rbp
	retq
Ltmp1141:
Lfunc_end178:
	.cfi_endproc

	.p2align	4, 0x90
__ZN80_$LT$core_foundation..base..CFType$u20$as$u20$core_foundation..base..TCFType$GT$22wrap_under_create_rule17h5da7c1618cf649ccE:
Lfunc_begin179:
	.loc	54 257 0
	.cfi_startproc
	pushq	%rbp
	.cfi_def_cfa_offset 16
	.cfi_offset %rbp, -16
	movq	%rsp, %rbp
	.cfi_def_cfa_register %rbp
	subq	$32, %rsp
	movq	%rdi, -24(%rbp)
	movq	%rdi, -8(%rbp)
Ltmp1142:
	.loc	54 258 18 prologue_end
	callq	__ZN4core3ptr9const_ptr33_$LT$impl$u20$$BP$const$u20$T$GT$7is_null17h762b9c635c9c45faE
	.loc	54 258 17 is_stmt 0
	xorb	$-1, %al
	.loc	54 258 9
	xorb	$-1, %al
	testb	$1, %al
	jne	LBB179_2
	.loc	54 0 9
	movq	-24(%rbp), %rax
	.loc	54 259 9 is_stmt 1
	movq	%rax, -16(%rbp)
	.loc	54 260 6
	movq	-16(%rbp), %rax
	addq	$32, %rsp
	popq	%rbp
	retq
LBB179_2:
	.loc	54 258 9
	leaq	l___unnamed_24(%rip), %rdi
	leaq	l___unnamed_26(%rip), %rdx
	movl	$34, %esi
	callq	__ZN3std9panicking11begin_panic17hca1489fda4927541E
Ltmp1143:
Lfunc_end179:
	.cfi_endproc

	.globl	__ZN58_$LT$u32$u20$as$u20$core_foundation..base..FromMutVoid$GT$13from_mut_void17h050e5839ef350f87E
	.p2align	4, 0x90
__ZN58_$LT$u32$u20$as$u20$core_foundation..base..FromMutVoid$GT$13from_mut_void17h050e5839ef350f87E:
Lfunc_begin180:
	.loc	54 327 0
	.cfi_startproc
	pushq	%rbp
	.cfi_def_cfa_offset 16
	.cfi_offset %rbp, -16
	movq	%rsp, %rbp
	.cfi_def_cfa_register %rbp
	subq	$24, %rsp
	movq	%rdi, -16(%rbp)
Ltmp1144:
	.loc	54 328 38 prologue_end
	movl	%edi, %eax
	movl	%eax, -4(%rbp)
Ltmp1145:
	.loc	25 71 9
	movl	%eax, -8(%rbp)
	.loc	25 72 6
	movl	-8(%rbp), %eax
Ltmp1146:
	.loc	54 328 9
	movl	%eax, -20(%rbp)
	.loc	54 329 6
	movl	-20(%rbp), %eax
	addq	$24, %rsp
	popq	%rbp
	retq
Ltmp1147:
Lfunc_end180:
	.cfi_endproc

	.globl	__ZN86_$LT$$BP$const$u20$core..ffi..c_void$u20$as$u20$core_foundation..base..FromMutVoid$GT$13from_mut_void17h00042c71366e1936E
	.p2align	4, 0x90
__ZN86_$LT$$BP$const$u20$core..ffi..c_void$u20$as$u20$core_foundation..base..FromMutVoid$GT$13from_mut_void17h00042c71366e1936E:
Lfunc_begin181:
	.loc	54 333 0
	.cfi_startproc
	pushq	%rbp
	.cfi_def_cfa_offset 16
	.cfi_offset %rbp, -16
	movq	%rsp, %rbp
	.cfi_def_cfa_register %rbp
	subq	$32, %rsp
	movq	%rdi, -24(%rbp)
	movq	%rdi, -8(%rbp)
Ltmp1148:
	.loc	25 71 9 prologue_end
	movq	%rdi, -16(%rbp)
	.loc	25 72 6
	movq	-16(%rbp), %rax
Ltmp1149:
	.loc	54 334 9
	movq	%rax, -32(%rbp)
	.loc	54 335 6
	movq	-32(%rbp), %rax
	addq	$32, %rsp
	popq	%rbp
	retq
Ltmp1150:
Lfunc_end181:
	.cfi_endproc

	.globl	__ZN55_$LT$u32$u20$as$u20$core_foundation..base..FromVoid$GT$9from_void17haf8c534bdf0a6bb9E
	.p2align	4, 0x90
__ZN55_$LT$u32$u20$as$u20$core_foundation..base..FromVoid$GT$9from_void17haf8c534bdf0a6bb9E:
Lfunc_begin182:
	.loc	54 350 0
	.cfi_startproc
	pushq	%rbp
	.cfi_def_cfa_offset 16
	.cfi_offset %rbp, -16
	movq	%rsp, %rbp
	.cfi_def_cfa_register %rbp
	subq	$24, %rsp
	movq	%rdi, -16(%rbp)
Ltmp1151:
	.loc	54 353 35 prologue_end
	movl	%edi, %eax
	movl	%eax, -4(%rbp)
Ltmp1152:
	.loc	25 71 9
	movl	%eax, -8(%rbp)
	.loc	25 72 6
	movl	-8(%rbp), %eax
Ltmp1153:
	.loc	54 353 9
	movl	%eax, -20(%rbp)
	.loc	54 354 6
	movl	-20(%rbp), %eax
	addq	$24, %rsp
	popq	%rbp
	retq
Ltmp1154:
Lfunc_end182:
	.cfi_endproc

	.globl	__ZN83_$LT$$BP$const$u20$core..ffi..c_void$u20$as$u20$core_foundation..base..FromVoid$GT$9from_void17h8dedd08d0a84e0c8E
	.p2align	4, 0x90
__ZN83_$LT$$BP$const$u20$core..ffi..c_void$u20$as$u20$core_foundation..base..FromVoid$GT$9from_void17h8dedd08d0a84e0c8E:
Lfunc_begin183:
	.loc	54 358 0
	.cfi_startproc
	pushq	%rbp
	.cfi_def_cfa_offset 16
	.cfi_offset %rbp, -16
	movq	%rsp, %rbp
	.cfi_def_cfa_register %rbp
	subq	$32, %rsp
	movq	%rdi, -24(%rbp)
	movq	%rdi, -8(%rbp)
Ltmp1155:
	.loc	25 71 9 prologue_end
	movq	%rdi, -16(%rbp)
	.loc	25 72 6
	movq	-16(%rbp), %rax
Ltmp1156:
	.loc	54 359 9
	movq	%rax, -32(%rbp)
	.loc	54 360 6
	movq	-32(%rbp), %rax
	addq	$32, %rsp
	popq	%rbp
	retq
Ltmp1157:
Lfunc_end183:
	.cfi_endproc

	.globl	__ZN120_$LT$$BP$const$u20$core..ffi..c_void$u20$as$u20$core_foundation..base..ToVoid$LT$$BP$const$u20$core..ffi..c_void$GT$$GT$7to_void17h9e6a2a857c2e735fE
	.p2align	4, 0x90
__ZN120_$LT$$BP$const$u20$core..ffi..c_void$u20$as$u20$core_foundation..base..ToVoid$LT$$BP$const$u20$core..ffi..c_void$GT$$GT$7to_void17h9e6a2a857c2e735fE:
Lfunc_begin184:
	.loc	54 375 0
	.cfi_startproc
	pushq	%rbp
	.cfi_def_cfa_offset 16
	.cfi_offset %rbp, -16
	movq	%rsp, %rbp
	.cfi_def_cfa_register %rbp
	pushq	%rax
	movq	%rdi, -8(%rbp)
Ltmp1158:
	.loc	54 376 9 prologue_end
	movq	(%rdi), %rax
	.loc	54 377 6
	addq	$8, %rsp
	popq	%rbp
	retq
Ltmp1159:
Lfunc_end184:
	.cfi_endproc

	.globl	__ZN120_$LT$$RF$core_foundation..base..CFType$u20$as$u20$core_foundation..base..ToVoid$LT$core_foundation..base..CFType$GT$$GT$7to_void17h165062e752afbc5eE
	.p2align	4, 0x90
__ZN120_$LT$$RF$core_foundation..base..CFType$u20$as$u20$core_foundation..base..ToVoid$LT$core_foundation..base..CFType$GT$$GT$7to_void17h165062e752afbc5eE:
Lfunc_begin185:
	.loc	54 381 0
	.cfi_startproc
	pushq	%rbp
	.cfi_def_cfa_offset 16
	.cfi_offset %rbp, -16
	movq	%rsp, %rbp
	.cfi_def_cfa_register %rbp
	subq	$16, %rsp
	movq	%rdi, -8(%rbp)
Ltmp1160:
	.loc	54 382 9 prologue_end
	movq	(%rdi), %rdi
	callq	__ZN80_$LT$core_foundation..base..CFType$u20$as$u20$core_foundation..base..TCFType$GT$19as_concrete_TypeRef17h83c24d5fa6f994f6E
	movq	%rax, -16(%rbp)
	leaq	-16(%rbp), %rdi
	callq	__ZN73_$LT$$BP$const$u20$T$u20$as$u20$core_foundation_sys..base..TCFTypeRef$GT$11as_void_ptr17he799574877d67d0cE
	.loc	54 383 6
	addq	$16, %rsp
	popq	%rbp
	retq
Ltmp1161:
Lfunc_end185:
	.cfi_endproc

	.globl	__ZN116_$LT$core_foundation..base..CFType$u20$as$u20$core_foundation..base..ToVoid$LT$core_foundation..base..CFType$GT$$GT$7to_void17h13890f73cbcb13a5E
	.p2align	4, 0x90
__ZN116_$LT$core_foundation..base..CFType$u20$as$u20$core_foundation..base..ToVoid$LT$core_foundation..base..CFType$GT$$GT$7to_void17h13890f73cbcb13a5E:
Lfunc_begin186:
	.loc	54 387 0
	.cfi_startproc
	pushq	%rbp
	.cfi_def_cfa_offset 16
	.cfi_offset %rbp, -16
	movq	%rsp, %rbp
	.cfi_def_cfa_register %rbp
	subq	$16, %rsp
	movq	%rdi, -8(%rbp)
Ltmp1162:
	.loc	54 388 9 prologue_end
	callq	__ZN80_$LT$core_foundation..base..CFType$u20$as$u20$core_foundation..base..TCFType$GT$19as_concrete_TypeRef17h83c24d5fa6f994f6E
	movq	%rax, -16(%rbp)
	leaq	-16(%rbp), %rdi
	callq	__ZN73_$LT$$BP$const$u20$T$u20$as$u20$core_foundation_sys..base..TCFTypeRef$GT$11as_void_ptr17he799574877d67d0cE
	.loc	54 389 6
	addq	$16, %rsp
	popq	%rbp
	retq
Ltmp1163:
Lfunc_end186:
	.cfi_endproc

	.globl	__ZN118_$LT$$BP$const$u20$core..ffi..c_void$u20$as$u20$core_foundation..base..ToVoid$LT$core_foundation..base..CFType$GT$$GT$7to_void17h70071c4137dde158E
	.p2align	4, 0x90
__ZN118_$LT$$BP$const$u20$core..ffi..c_void$u20$as$u20$core_foundation..base..ToVoid$LT$core_foundation..base..CFType$GT$$GT$7to_void17h70071c4137dde158E:
Lfunc_begin187:
	.loc	54 393 0
	.cfi_startproc
	pushq	%rbp
	.cfi_def_cfa_offset 16
	.cfi_offset %rbp, -16
	movq	%rsp, %rbp
	.cfi_def_cfa_register %rbp
	subq	$16, %rsp
	movq	%rdi, -8(%rbp)
Ltmp1164:
	.loc	54 394 9 prologue_end
	callq	__ZN73_$LT$$BP$const$u20$T$u20$as$u20$core_foundation_sys..base..TCFTypeRef$GT$11as_void_ptr17he799574877d67d0cE
	.loc	54 395 6
	addq	$16, %rsp
	popq	%rbp
	retq
Ltmp1165:
Lfunc_end187:
	.cfi_endproc

	.globl	__ZN15core_foundation7boolean9CFBoolean10true_value17h7d6867e1f7e4f302E
	.p2align	4, 0x90
__ZN15core_foundation7boolean9CFBoolean10true_value17h7d6867e1f7e4f302E:
Lfunc_begin188:
	.file	55 "/Users/natalie/.cargo/registry/src/github.com-1ecc6299db9ec823/core-foundation-0.9.3" "src/boolean.rs"
	.loc	55 27 0
	.cfi_startproc
	pushq	%rbp
	.cfi_def_cfa_offset 16
	.cfi_offset %rbp, -16
	movq	%rsp, %rbp
	.cfi_def_cfa_register %rbp
Ltmp1166:
	.loc	55 29 42 prologue_end
	movq	_kCFBooleanTrue@GOTPCREL(%rip), %rax
	movq	(%rax), %rdi
	.loc	55 29 13 is_stmt 0
	callq	__ZN86_$LT$core_foundation..boolean..CFBoolean$u20$as$u20$core_foundation..base..TCFType$GT$19wrap_under_get_rule17h3086643d0334effdE
	.loc	55 31 6 is_stmt 1
	popq	%rbp
	retq
Ltmp1167:
Lfunc_end188:
	.cfi_endproc

	.globl	__ZN15core_foundation7boolean9CFBoolean11false_value17h68fada0d3adf84b0E
	.p2align	4, 0x90
__ZN15core_foundation7boolean9CFBoolean11false_value17h68fada0d3adf84b0E:
Lfunc_begin189:
	.loc	55 33 0
	.cfi_startproc
	pushq	%rbp
	.cfi_def_cfa_offset 16
	.cfi_offset %rbp, -16
	movq	%rsp, %rbp
	.cfi_def_cfa_register %rbp
Ltmp1168:
	.loc	55 35 42 prologue_end
	movq	_kCFBooleanFalse@GOTPCREL(%rip), %rax
	movq	(%rax), %rdi
	.loc	55 35 13 is_stmt 0
	callq	__ZN86_$LT$core_foundation..boolean..CFBoolean$u20$as$u20$core_foundation..base..TCFType$GT$19wrap_under_get_rule17h3086643d0334effdE
	.loc	55 37 6 is_stmt 1
	popq	%rbp
	retq
Ltmp1169:
Lfunc_end189:
	.cfi_endproc

	.globl	__ZN87_$LT$core_foundation..boolean..CFBoolean$u20$as$u20$core..convert..From$LT$bool$GT$$GT$4from17h44c111f700e828f2E
	.p2align	4, 0x90
__ZN87_$LT$core_foundation..boolean..CFBoolean$u20$as$u20$core..convert..From$LT$bool$GT$$GT$4from17h44c111f700e828f2E:
Lfunc_begin190:
	.loc	55 41 0
	.cfi_startproc
	pushq	%rbp
	.cfi_def_cfa_offset 16
	.cfi_offset %rbp, -16
	movq	%rsp, %rbp
	.cfi_def_cfa_register %rbp
	subq	$16, %rsp
	movb	%dil, %al
	movb	%al, %cl
	andb	$1, %cl
	movb	%cl, -1(%rbp)
Ltmp1170:
	.loc	55 42 12 prologue_end
	testb	$1, %al
	jne	LBB190_2
	.loc	55 45 13
	callq	__ZN15core_foundation7boolean9CFBoolean11false_value17h68fada0d3adf84b0E
	movq	%rax, -16(%rbp)
	jmp	LBB190_3
LBB190_2:
	.loc	55 43 13
	callq	__ZN15core_foundation7boolean9CFBoolean10true_value17h7d6867e1f7e4f302E
	movq	%rax, -16(%rbp)
LBB190_3:
	.loc	55 47 6
	movq	-16(%rbp), %rax
	addq	$16, %rsp
	popq	%rbp
	retq
Ltmp1171:
Lfunc_end190:
	.cfi_endproc

	.globl	__ZN15core_foundation7boolean97_$LT$impl$u20$core..convert..From$LT$core_foundation..boolean..CFBoolean$GT$$u20$for$u20$bool$GT$4from17hc8c0105c5c591cc6E
	.p2align	4, 0x90
__ZN15core_foundation7boolean97_$LT$impl$u20$core..convert..From$LT$core_foundation..boolean..CFBoolean$GT$$u20$for$u20$bool$GT$4from17hc8c0105c5c591cc6E:
Lfunc_begin191:
	.loc	55 51 0
	.cfi_startproc
	pushq	%rbp
	.cfi_def_cfa_offset 16
	.cfi_offset %rbp, -16
	movq	%rsp, %rbp
	.cfi_def_cfa_register %rbp
	subq	$16, %rsp
	movq	%rdi, -8(%rbp)
Ltmp1172:
	.loc	55 52 9 prologue_end
	movq	-8(%rbp), %rax
	movq	_kCFBooleanTrue@GOTPCREL(%rip), %rcx
	cmpq	(%rcx), %rax
	sete	%al
	movb	%al, -9(%rbp)
	.loc	55 53 5
	leaq	-8(%rbp), %rdi
	callq	__ZN4core3ptr56drop_in_place$LT$core_foundation..boolean..CFBoolean$GT$17hc1fc02aa8af8d099E
	movb	-9(%rbp), %al
	.loc	55 53 6 is_stmt 0
	andb	$1, %al
	movzbl	%al, %eax
	addq	$16, %rsp
	popq	%rbp
	retq
Ltmp1173:
Lfunc_end191:
	.cfi_endproc

	.globl	__ZN15core_foundation4data6CFData11from_buffer17h10b44a3e99d91437E
	.p2align	4, 0x90
__ZN15core_foundation4data6CFData11from_buffer17h10b44a3e99d91437E:
Lfunc_begin192:
	.file	56 "/Users/natalie/.cargo/registry/src/github.com-1ecc6299db9ec823/core-foundation-0.9.3" "src/data.rs"
	.loc	56 32 0 is_stmt 1
	.cfi_startproc
	pushq	%rbp
	.cfi_def_cfa_offset 16
	.cfi_offset %rbp, -16
	movq	%rsp, %rbp
	.cfi_def_cfa_register %rbp
	subq	$64, %rsp
	movq	%rsi, -64(%rbp)
	movq	%rdi, %rax
	movq	-64(%rbp), %rdi
	movq	%rax, -48(%rbp)
	movq	%rax, -40(%rbp)
	movq	%rdi, -32(%rbp)
Ltmp1174:
	.loc	56 34 41 prologue_end
	movq	_kCFAllocatorDefault@GOTPCREL(%rip), %rcx
	movq	(%rcx), %rcx
	movq	%rcx, -56(%rbp)
	movq	%rax, -16(%rbp)
	movq	%rdi, -8(%rbp)
	.loc	56 36 41
	callq	__ZN67_$LT$usize$u20$as$u20$core_foundation..base..CFIndexConvertible$GT$10to_CFIndex17hbb31a32fd096b46bE
	movq	-56(%rbp), %rdi
	movq	-48(%rbp), %rsi
	movq	%rax, %rdx
	.loc	56 34 28
	callq	_CFDataCreate
	movq	%rax, %rdi
	movq	%rdi, -24(%rbp)
Ltmp1175:
	.loc	56 37 13
	callq	__ZN80_$LT$core_foundation..data..CFData$u20$as$u20$core_foundation..base..TCFType$GT$22wrap_under_create_rule17h207f9850a82803cbE
Ltmp1176:
	.loc	56 39 6
	addq	$64, %rsp
	popq	%rbp
	retq
Ltmp1177:
Lfunc_end192:
	.cfi_endproc

	.p2align	4, 0x90
__ZN15core_foundation4date6CFDate8abs_time17hb518c61454e149feE:
Lfunc_begin193:
	.file	57 "/Users/natalie/.cargo/registry/src/github.com-1ecc6299db9ec823/core-foundation-0.9.3" "src/date.rs"
	.loc	57 44 0
	.cfi_startproc
	pushq	%rbp
	.cfi_def_cfa_offset 16
	.cfi_offset %rbp, -16
	movq	%rsp, %rbp
	.cfi_def_cfa_register %rbp
	subq	$16, %rsp
	movq	%rdi, -8(%rbp)
Ltmp1178:
	.loc	57 46 35 prologue_end
	movq	(%rdi), %rdi
	.loc	57 46 13 is_stmt 0
	callq	_CFDateGetAbsoluteTime
	.loc	57 48 6 is_stmt 1
	addq	$16, %rsp
	popq	%rbp
	retq
Ltmp1179:
Lfunc_end193:
	.cfi_endproc

	.globl	__ZN68_$LT$core_foundation..error..CFError$u20$as$u20$core..fmt..Debug$GT$3fmt17hef9c1db4e7cdf0c0E
	.p2align	4, 0x90
__ZN68_$LT$core_foundation..error..CFError$u20$as$u20$core..fmt..Debug$GT$3fmt17hef9c1db4e7cdf0c0E:
Lfunc_begin194:
	.file	58 "/Users/natalie/.cargo/registry/src/github.com-1ecc6299db9ec823/core-foundation-0.9.3" "src/error.rs"
	.loc	58 28 0
	.cfi_startproc
	.cfi_personality 155, _rust_eh_personality
	.cfi_lsda 16, Lexception15
	pushq	%rbp
	.cfi_def_cfa_offset 16
	.cfi_offset %rbp, -16
	movq	%rsp, %rbp
	.cfi_def_cfa_register %rbp
	subq	$144, %rsp
	movq	%rdi, -96(%rbp)
	movq	%rdi, -32(%rbp)
	movq	%rsi, -24(%rbp)
Ltmp1201:
	.loc	58 29 9 prologue_end
	leaq	l___unnamed_27(%rip), %rdx
	leaq	-72(%rbp), %rdi
	movq	%rdi, -88(%rbp)
	movl	$7, %ecx
	callq	__ZN4core3fmt9Formatter12debug_struct17hb330e0caa577ed3dE
	movq	-96(%rbp), %rdi
	.loc	58 30 30
	callq	__ZN15core_foundation5error7CFError6domain17h366e5fa2fea7eaafE
	movq	-88(%rbp), %rdi
	movq	%rax, -56(%rbp)
Ltmp1180:
	.loc	58 29 9
	leaq	l___unnamed_28(%rip), %rsi
	leaq	l___unnamed_7(%rip), %r8
	movl	$6, %edx
	leaq	-56(%rbp), %rcx
	callq	__ZN4core3fmt8builders11DebugStruct5field17h2147d02d385887f6E
Ltmp1181:
	movq	%rax, -80(%rbp)
	jmp	LBB194_3
LBB194_1:
Ltmp1198:
	.loc	58 0 9 is_stmt 0
	leaq	-56(%rbp), %rdi
	.loc	58 34 5 is_stmt 1
	callq	__ZN4core3ptr54drop_in_place$LT$core_foundation..string..CFString$GT$17hb9a66b56a2e77954E
Ltmp1199:
	jmp	LBB194_13
LBB194_2:
Ltmp1197:
	.loc	58 0 5 is_stmt 0
	movq	%rax, %rcx
	movl	%edx, %eax
	movq	%rcx, -16(%rbp)
	movl	%eax, -8(%rbp)
	jmp	LBB194_1
LBB194_3:
Ltmp1182:
	movq	-96(%rbp), %rdi
	.loc	58 31 28 is_stmt 1
	callq	__ZN15core_foundation5error7CFError4code17h41039d03c92a9ef1E
Ltmp1183:
	movq	%rax, -104(%rbp)
	jmp	LBB194_4
LBB194_4:
	.loc	58 0 28 is_stmt 0
	movq	-80(%rbp), %rdi
	movq	-104(%rbp), %rax
	.loc	58 31 28
	movq	%rax, -48(%rbp)
Ltmp1184:
	.loc	58 29 9 is_stmt 1
	leaq	L___unnamed_29(%rip), %rsi
	leaq	l___unnamed_8(%rip), %r8
	movl	$4, %edx
	leaq	-48(%rbp), %rcx
	callq	__ZN4core3fmt8builders11DebugStruct5field17h2147d02d385887f6E
Ltmp1185:
	movq	%rax, -112(%rbp)
	jmp	LBB194_5
LBB194_5:
Ltmp1186:
	.loc	58 0 9 is_stmt 0
	movq	-96(%rbp), %rdi
	.loc	58 32 35 is_stmt 1
	callq	__ZN15core_foundation5error7CFError11description17h255498e3cd2797c9E
Ltmp1187:
	movq	%rax, -120(%rbp)
	jmp	LBB194_6
LBB194_6:
	.loc	58 0 35 is_stmt 0
	movq	-112(%rbp), %rdi
	movq	-120(%rbp), %rax
	.loc	58 32 35
	movq	%rax, -40(%rbp)
Ltmp1188:
	.loc	58 29 9 is_stmt 1
	leaq	l___unnamed_30(%rip), %rsi
	leaq	l___unnamed_7(%rip), %r8
	movl	$11, %edx
	leaq	-40(%rbp), %rcx
	callq	__ZN4core3fmt8builders11DebugStruct5field17h2147d02d385887f6E
Ltmp1189:
	movq	%rax, -128(%rbp)
	jmp	LBB194_9
LBB194_7:
Ltmp1193:
	.loc	58 0 9 is_stmt 0
	leaq	-40(%rbp), %rdi
	.loc	58 34 5 is_stmt 1
	callq	__ZN4core3ptr54drop_in_place$LT$core_foundation..string..CFString$GT$17hb9a66b56a2e77954E
Ltmp1194:
	jmp	LBB194_1
LBB194_8:
Ltmp1192:
	.loc	58 0 5 is_stmt 0
	movq	%rax, %rcx
	movl	%edx, %eax
	movq	%rcx, -16(%rbp)
	movl	%eax, -8(%rbp)
	jmp	LBB194_7
LBB194_9:
Ltmp1190:
	movq	-128(%rbp), %rdi
	.loc	58 29 9 is_stmt 1
	callq	__ZN4core3fmt8builders11DebugStruct6finish17h081d244274ea39b1E
Ltmp1191:
	movb	%al, -129(%rbp)
	jmp	LBB194_10
LBB194_10:
Ltmp1195:
	.loc	58 0 9 is_stmt 0
	leaq	-40(%rbp), %rdi
	.loc	58 34 5 is_stmt 1
	callq	__ZN4core3ptr54drop_in_place$LT$core_foundation..string..CFString$GT$17hb9a66b56a2e77954E
Ltmp1196:
	jmp	LBB194_12
LBB194_11:
Ltmp1200:
	.loc	58 28 5
	callq	__ZN4core9panicking19panic_cannot_unwind17h1fbca7e1d7f56ae1E
LBB194_12:
	.loc	58 34 5
	leaq	-56(%rbp), %rdi
	callq	__ZN4core3ptr54drop_in_place$LT$core_foundation..string..CFString$GT$17hb9a66b56a2e77954E
	movb	-129(%rbp), %al
	.loc	58 34 6 is_stmt 0
	andb	$1, %al
	movzbl	%al, %eax
	addq	$144, %rsp
	popq	%rbp
	retq
LBB194_13:
	.loc	58 28 5 is_stmt 1
	movq	-16(%rbp), %rdi
	callq	__Unwind_Resume
Ltmp1202:
Lfunc_end194:
	.cfi_endproc
	.section	__TEXT,__gcc_except_tab
	.p2align	2
GCC_except_table194:
Lexception15:
	.byte	255
	.byte	255
	.byte	1
	.uleb128 Lcst_end15-Lcst_begin15
Lcst_begin15:
	.uleb128 Lfunc_begin194-Lfunc_begin194
	.uleb128 Ltmp1180-Lfunc_begin194
	.byte	0
	.byte	0
	.uleb128 Ltmp1180-Lfunc_begin194
	.uleb128 Ltmp1181-Ltmp1180
	.uleb128 Ltmp1197-Lfunc_begin194
	.byte	0
	.uleb128 Ltmp1198-Lfunc_begin194
	.uleb128 Ltmp1199-Ltmp1198
	.uleb128 Ltmp1200-Lfunc_begin194
	.byte	0
	.uleb128 Ltmp1182-Lfunc_begin194
	.uleb128 Ltmp1187-Ltmp1182
	.uleb128 Ltmp1197-Lfunc_begin194
	.byte	0
	.uleb128 Ltmp1188-Lfunc_begin194
	.uleb128 Ltmp1189-Ltmp1188
	.uleb128 Ltmp1192-Lfunc_begin194
	.byte	0
	.uleb128 Ltmp1193-Lfunc_begin194
	.uleb128 Ltmp1194-Ltmp1193
	.uleb128 Ltmp1200-Lfunc_begin194
	.byte	0
	.uleb128 Ltmp1190-Lfunc_begin194
	.uleb128 Ltmp1191-Ltmp1190
	.uleb128 Ltmp1192-Lfunc_begin194
	.byte	0
	.uleb128 Ltmp1195-Lfunc_begin194
	.uleb128 Ltmp1196-Ltmp1195
	.uleb128 Ltmp1197-Lfunc_begin194
	.byte	0
	.uleb128 Ltmp1196-Lfunc_begin194
	.uleb128 Lfunc_end194-Ltmp1196
	.byte	0
	.byte	0
Lcst_end15:
	.p2align	2

	.section	__TEXT,__text,regular,pure_instructions
	.globl	__ZN70_$LT$core_foundation..error..CFError$u20$as$u20$core..fmt..Display$GT$3fmt17he8c1e96bc63d4cd2E
	.p2align	4, 0x90
__ZN70_$LT$core_foundation..error..CFError$u20$as$u20$core..fmt..Display$GT$3fmt17he8c1e96bc63d4cd2E:
Lfunc_begin195:
	.loc	58 38 0
	.cfi_startproc
	.cfi_personality 155, _rust_eh_personality
	.cfi_lsda 16, Lexception16
	pushq	%rbp
	.cfi_def_cfa_offset 16
	.cfi_offset %rbp, -16
	movq	%rsp, %rbp
	.cfi_def_cfa_register %rbp
	subq	$144, %rsp
	movq	%rsi, -128(%rbp)
	movq	%rdi, -32(%rbp)
	movq	%rsi, -24(%rbp)
Ltmp1213:
	.loc	58 39 27 prologue_end
	callq	__ZN15core_foundation5error7CFError11description17h255498e3cd2797c9E
	movq	%rax, -40(%rbp)
Ltmp1203:
	leaq	-40(%rbp), %rdi
	.loc	58 39 9 is_stmt 0
	callq	__ZN4core3fmt10ArgumentV111new_display17hfda82ddf087c6cc9E
Ltmp1204:
	movq	%rdx, -120(%rbp)
	movq	%rax, -112(%rbp)
	jmp	LBB195_3
LBB195_1:
Ltmp1210:
	.loc	58 0 9
	leaq	-40(%rbp), %rdi
	.loc	58 40 5 is_stmt 1
	callq	__ZN4core3ptr54drop_in_place$LT$core_foundation..string..CFString$GT$17hb9a66b56a2e77954E
Ltmp1211:
	jmp	LBB195_7
LBB195_2:
Ltmp1209:
	.loc	58 0 5 is_stmt 0
	movq	%rax, %rcx
	movl	%edx, %eax
	movq	%rcx, -16(%rbp)
	movl	%eax, -8(%rbp)
	jmp	LBB195_1
LBB195_3:
	movq	-120(%rbp), %rax
	movq	-112(%rbp), %rcx
	.loc	58 39 9 is_stmt 1
	movq	%rcx, -56(%rbp)
	movq	%rax, -48(%rbp)
Ltmp1205:
	leaq	l___unnamed_31(%rip), %rsi
	leaq	-104(%rbp), %rdi
	leaq	-56(%rbp), %rcx
	movl	$1, %r8d
	movq	%r8, %rdx
	callq	__ZN4core3fmt9Arguments6new_v117h427983d98d5c8307E
Ltmp1206:
	jmp	LBB195_4
LBB195_4:
Ltmp1207:
	.loc	58 0 9 is_stmt 0
	movq	-128(%rbp), %rdi
	leaq	-104(%rbp), %rsi
	.loc	58 39 9
	callq	__ZN4core3fmt9Formatter9write_fmt17h9bb7721c944aee26E
Ltmp1208:
	movb	%al, -129(%rbp)
	jmp	LBB195_5
LBB195_5:
	.loc	58 40 5 is_stmt 1
	leaq	-40(%rbp), %rdi
	callq	__ZN4core3ptr54drop_in_place$LT$core_foundation..string..CFString$GT$17hb9a66b56a2e77954E
	movb	-129(%rbp), %al
	.loc	58 40 6 is_stmt 0
	andb	$1, %al
	movzbl	%al, %eax
	addq	$144, %rsp
	popq	%rbp
	retq
LBB195_6:
Ltmp1212:
	.loc	58 38 5 is_stmt 1
	callq	__ZN4core9panicking19panic_cannot_unwind17h1fbca7e1d7f56ae1E
LBB195_7:
	movq	-16(%rbp), %rdi
	callq	__Unwind_Resume
Ltmp1214:
Lfunc_end195:
	.cfi_endproc
	.section	__TEXT,__gcc_except_tab
	.p2align	2
GCC_except_table195:
Lexception16:
	.byte	255
	.byte	255
	.byte	1
	.uleb128 Lcst_end16-Lcst_begin16
Lcst_begin16:
	.uleb128 Lfunc_begin195-Lfunc_begin195
	.uleb128 Ltmp1203-Lfunc_begin195
	.byte	0
	.byte	0
	.uleb128 Ltmp1203-Lfunc_begin195
	.uleb128 Ltmp1204-Ltmp1203
	.uleb128 Ltmp1209-Lfunc_begin195
	.byte	0
	.uleb128 Ltmp1210-Lfunc_begin195
	.uleb128 Ltmp1211-Ltmp1210
	.uleb128 Ltmp1212-Lfunc_begin195
	.byte	0
	.uleb128 Ltmp1205-Lfunc_begin195
	.uleb128 Ltmp1208-Ltmp1205
	.uleb128 Ltmp1209-Lfunc_begin195
	.byte	0
	.uleb128 Ltmp1208-Lfunc_begin195
	.uleb128 Lfunc_end195-Ltmp1208
	.byte	0
	.byte	0
Lcst_end16:
	.p2align	2

	.section	__TEXT,__text,regular,pure_instructions
	.globl	__ZN70_$LT$core_foundation..error..CFError$u20$as$u20$core..error..Error$GT$11description17hf1b8baa03b5c8f08E
	.p2align	4, 0x90
__ZN70_$LT$core_foundation..error..CFError$u20$as$u20$core..error..Error$GT$11description17hf1b8baa03b5c8f08E:
Lfunc_begin196:
	.loc	58 44 0
	.cfi_startproc
	pushq	%rbp
	.cfi_def_cfa_offset 16
	.cfi_offset %rbp, -16
	movq	%rsp, %rbp
	.cfi_def_cfa_register %rbp
	pushq	%rax
	movq	%rdi, -8(%rbp)
Ltmp1215:
	.loc	58 46 6 prologue_end
	leaq	l___unnamed_32(%rip), %rax
	movl	$23, %edx
	addq	$8, %rsp
	popq	%rbp
	retq
Ltmp1216:
Lfunc_end196:
	.cfi_endproc

	.globl	__ZN15core_foundation5error7CFError6domain17h366e5fa2fea7eaafE
	.p2align	4, 0x90
__ZN15core_foundation5error7CFError6domain17h366e5fa2fea7eaafE:
Lfunc_begin197:
	.loc	58 52 0
	.cfi_startproc
	pushq	%rbp
	.cfi_def_cfa_offset 16
	.cfi_offset %rbp, -16
	movq	%rsp, %rbp
	.cfi_def_cfa_register %rbp
	subq	$16, %rsp
	movq	%rdi, -16(%rbp)
Ltmp1217:
	.loc	58 54 38 prologue_end
	movq	(%rdi), %rdi
	.loc	58 54 21 is_stmt 0
	callq	_CFErrorGetDomain
	movq	%rax, %rdi
	movq	%rdi, -8(%rbp)
Ltmp1218:
	.loc	58 55 13 is_stmt 1
	callq	__ZN84_$LT$core_foundation..string..CFString$u20$as$u20$core_foundation..base..TCFType$GT$19wrap_under_get_rule17had4b6f752ca4ce67E
Ltmp1219:
	.loc	58 57 6
	addq	$16, %rsp
	popq	%rbp
	retq
Ltmp1220:
Lfunc_end197:
	.cfi_endproc

	.globl	__ZN15core_foundation5error7CFError4code17h41039d03c92a9ef1E
	.p2align	4, 0x90
__ZN15core_foundation5error7CFError4code17h41039d03c92a9ef1E:
Lfunc_begin198:
	.loc	58 60 0
	.cfi_startproc
	pushq	%rbp
	.cfi_def_cfa_offset 16
	.cfi_offset %rbp, -16
	movq	%rsp, %rbp
	.cfi_def_cfa_register %rbp
	subq	$16, %rsp
	movq	%rdi, -8(%rbp)
Ltmp1221:
	.loc	58 61 33 prologue_end
	movq	(%rdi), %rdi
	.loc	58 61 18 is_stmt 0
	callq	_CFErrorGetCode
	.loc	58 62 6 is_stmt 1
	addq	$16, %rsp
	popq	%rbp
	retq
Ltmp1222:
Lfunc_end198:
	.cfi_endproc

	.globl	__ZN15core_foundation5error7CFError11description17h255498e3cd2797c9E
	.p2align	4, 0x90
__ZN15core_foundation5error7CFError11description17h255498e3cd2797c9E:
Lfunc_begin199:
	.loc	58 65 0
	.cfi_startproc
	pushq	%rbp
	.cfi_def_cfa_offset 16
	.cfi_offset %rbp, -16
	movq	%rsp, %rbp
	.cfi_def_cfa_register %rbp
	subq	$16, %rsp
	movq	%rdi, -16(%rbp)
Ltmp1223:
	.loc	58 67 44 prologue_end
	movq	(%rdi), %rdi
	.loc	58 67 21 is_stmt 0
	callq	_CFErrorCopyDescription
	movq	%rax, %rdi
	movq	%rdi, -8(%rbp)
Ltmp1224:
	.loc	58 68 13 is_stmt 1
	callq	__ZN84_$LT$core_foundation..string..CFString$u20$as$u20$core_foundation..base..TCFType$GT$22wrap_under_create_rule17h2b5c31a114da2395E
Ltmp1225:
	.loc	58 70 6
	addq	$16, %rsp
	popq	%rbp
	retq
Ltmp1226:
Lfunc_end199:
	.cfi_endproc

	.globl	__ZN15core_foundation14filedescriptor16CFFileDescriptor3new17h28d2db9cfc1e4122E
	.p2align	4, 0x90
__ZN15core_foundation14filedescriptor16CFFileDescriptor3new17h28d2db9cfc1e4122E:
Lfunc_begin200:
	.file	59 "/Users/natalie/.cargo/registry/src/github.com-1ecc6299db9ec823/core-foundation-0.9.3" "src/filedescriptor.rs"
	.loc	59 28 0
	.cfi_startproc
	pushq	%rbp
	.cfi_def_cfa_offset 16
	.cfi_offset %rbp, -16
	movq	%rsp, %rbp
	.cfi_def_cfa_register %rbp
	subq	$128, %rsp
	movq	%rcx, -128(%rbp)
	movq	%rdx, -112(%rbp)
	movl	%edi, %ecx
	movq	-128(%rbp), %rdi
	movl	%ecx, -116(%rbp)
	movb	%sil, %al
	movb	%al, -97(%rbp)
	movl	%ecx, -72(%rbp)
	andb	$1, %al
	movb	%al, -65(%rbp)
	movq	%rdx, -64(%rbp)
	movq	%rdi, -56(%rbp)
Ltmp1227:
	.loc	3 568 14 prologue_end
	movq	$0, -16(%rbp)
	movq	-16(%rbp), %rax
	movq	%rax, -8(%rbp)
Ltmp1228:
	.loc	4 118 36
	movq	%rax, -24(%rbp)
	.loc	4 118 14 is_stmt 0
	movq	-24(%rbp), %rax
	movq	%rax, -32(%rbp)
	movq	-32(%rbp), %rsi
Ltmp1229:
	.loc	59 32 23 is_stmt 1
	callq	__ZN4core6option15Option$LT$T$GT$6map_or17h28601278e606f677E
	movl	-116(%rbp), %esi
	movq	-112(%rbp), %rcx
	movq	%rax, %r8
	movb	-97(%rbp), %al
	movq	%r8, -48(%rbp)
Ltmp1230:
	.loc	59 34 49
	movq	_kCFAllocatorDefault@GOTPCREL(%rip), %rdx
	movq	(%rdx), %rdi
	.loc	59 36 49
	andb	$1, %al
	.loc	59 34 26
	movzbl	%al, %edx
	callq	_CFFileDescriptorCreate
	movq	%rax, %rdi
	movq	%rdi, -96(%rbp)
	movq	%rdi, -40(%rbp)
Ltmp1231:
	.loc	59 39 16
	callq	__ZN4core3ptr7mut_ptr31_$LT$impl$u20$$BP$mut$u20$T$GT$7is_null17h6430ea612710453cE
	testb	$1, %al
	jne	LBB200_2
	.loc	59 0 16 is_stmt 0
	movq	-96(%rbp), %rdi
	.loc	59 42 22 is_stmt 1
	callq	__ZN100_$LT$core_foundation..filedescriptor..CFFileDescriptor$u20$as$u20$core_foundation..base..TCFType$GT$22wrap_under_create_rule17had3cc7e5fb0009baE
	.loc	59 42 17 is_stmt 0
	movq	%rax, -80(%rbp)
	movq	$1, -88(%rbp)
	.loc	59 39 13 is_stmt 1
	jmp	LBB200_3
LBB200_2:
	.loc	59 40 17
	movq	$0, -88(%rbp)
Ltmp1232:
LBB200_3:
	.loc	59 45 6
	movq	-88(%rbp), %rax
	movq	-80(%rbp), %rdx
	addq	$128, %rsp
	popq	%rbp
	retq
Ltmp1233:
Lfunc_end200:
	.cfi_endproc

	.p2align	4, 0x90
__ZN15core_foundation14filedescriptor16CFFileDescriptor3new28_$u7b$$u7b$closure$u7d$$u7d$17h4b85ca105ecabb4bE:
Lfunc_begin201:
	.loc	59 32 0
	.cfi_startproc
	pushq	%rbp
	.cfi_def_cfa_offset 16
	.cfi_offset %rbp, -16
	movq	%rsp, %rbp
	.cfi_def_cfa_register %rbp
	subq	$16, %rsp
	movq	%rdi, %rax
	movq	%rax, -8(%rbp)
Ltmp1234:
	.loc	59 32 68 prologue_end
	addq	$16, %rsp
	popq	%rbp
	retq
Ltmp1235:
Lfunc_end201:
	.cfi_endproc

	.globl	__ZN15core_foundation14filedescriptor16CFFileDescriptor7context17hbdaf105e5449a2eeE
	.p2align	4, 0x90
__ZN15core_foundation14filedescriptor16CFFileDescriptor7context17hbdaf105e5449a2eeE:
Lfunc_begin202:
	.loc	59 47 0
	.cfi_startproc
	pushq	%rbp
	.cfi_def_cfa_offset 16
	.cfi_offset %rbp, -16
	movq	%rsp, %rbp
	.cfi_def_cfa_register %rbp
	subq	$160, %rsp
	movq	%rdi, -152(%rbp)
	movq	%rdi, -144(%rbp)
	movq	%rsi, -56(%rbp)
Ltmp1236:
	.loc	59 50 40 prologue_end
	movq	(%rsi), %rdi
	leaq	-136(%rbp), %rax
	movq	%rax, -48(%rbp)
	.loc	59 50 13 is_stmt 0
	leaq	-136(%rbp), %rsi
	callq	_CFFileDescriptorGetContext
	.loc	59 51 13 is_stmt 1
	leaq	-96(%rbp), %rdi
	leaq	-136(%rbp), %rsi
	movl	$40, %edx
	callq	_memcpy
Ltmp1237:
	.loc	24 627 38
	leaq	-40(%rbp), %rdi
	leaq	-96(%rbp), %rsi
	movl	$40, %edx
	callq	_memcpy
	movq	-152(%rbp), %rdi
Ltmp1238:
	.loc	25 89 9
	leaq	-40(%rbp), %rsi
	movl	$40, %edx
	callq	_memcpy
	movq	-144(%rbp), %rax
Ltmp1239:
	.loc	59 53 6
	addq	$160, %rsp
	popq	%rbp
	retq
Ltmp1240:
Lfunc_end202:
	.cfi_endproc

	.globl	__ZN15core_foundation14filedescriptor16CFFileDescriptor16enable_callbacks17hb715774a6d50ccabE
	.p2align	4, 0x90
__ZN15core_foundation14filedescriptor16CFFileDescriptor16enable_callbacks17hb715774a6d50ccabE:
Lfunc_begin203:
	.loc	59 55 0
	.cfi_startproc
	pushq	%rbp
	.cfi_def_cfa_offset 16
	.cfi_offset %rbp, -16
	movq	%rsp, %rbp
	.cfi_def_cfa_register %rbp
	subq	$16, %rsp
	movq	%rdi, -16(%rbp)
	movq	%rsi, -8(%rbp)
Ltmp1241:
	.loc	59 57 45 prologue_end
	movq	(%rdi), %rdi
	.loc	59 57 13 is_stmt 0
	callq	_CFFileDescriptorEnableCallBacks
	.loc	59 59 6 is_stmt 1
	addq	$16, %rsp
	popq	%rbp
	retq
Ltmp1242:
Lfunc_end203:
	.cfi_endproc

	.globl	__ZN15core_foundation14filedescriptor16CFFileDescriptor17disable_callbacks17h68805db874fc4fcfE
	.p2align	4, 0x90
__ZN15core_foundation14filedescriptor16CFFileDescriptor17disable_callbacks17h68805db874fc4fcfE:
Lfunc_begin204:
	.loc	59 61 0
	.cfi_startproc
	pushq	%rbp
	.cfi_def_cfa_offset 16
	.cfi_offset %rbp, -16
	movq	%rsp, %rbp
	.cfi_def_cfa_register %rbp
	subq	$16, %rsp
	movq	%rdi, -16(%rbp)
	movq	%rsi, -8(%rbp)
Ltmp1243:
	.loc	59 63 46 prologue_end
	movq	(%rdi), %rdi
	.loc	59 63 13 is_stmt 0
	callq	_CFFileDescriptorDisableCallBacks
	.loc	59 65 6 is_stmt 1
	addq	$16, %rsp
	popq	%rbp
	retq
Ltmp1244:
Lfunc_end204:
	.cfi_endproc

	.globl	__ZN15core_foundation14filedescriptor16CFFileDescriptor5valid17hf865d101740ce2f5E
	.p2align	4, 0x90
__ZN15core_foundation14filedescriptor16CFFileDescriptor5valid17hf865d101740ce2f5E:
Lfunc_begin205:
	.loc	59 67 0
	.cfi_startproc
	pushq	%rbp
	.cfi_def_cfa_offset 16
	.cfi_offset %rbp, -16
	movq	%rsp, %rbp
	.cfi_def_cfa_register %rbp
	subq	$16, %rsp
	movq	%rdi, -8(%rbp)
Ltmp1245:
	.loc	59 69 37 prologue_end
	movq	(%rdi), %rdi
	.loc	59 69 13 is_stmt 0
	callq	_CFFileDescriptorIsValid
	cmpb	$0, %al
	setne	%al
	.loc	59 71 6 is_stmt 1
	andb	$1, %al
	movzbl	%al, %eax
	addq	$16, %rsp
	popq	%rbp
	retq
Ltmp1246:
Lfunc_end205:
	.cfi_endproc

	.globl	__ZN15core_foundation14filedescriptor16CFFileDescriptor10invalidate17hba6c7d2fce4fd39fE
	.p2align	4, 0x90
