	.section	__TEXT,__text,regular,pure_instructions
	.macosx_version_min 10, 7
	.globl	__ZN102_$LT$core..iter..adapters..map..Map$LT$I$C$F$GT$$u20$as$u20$core..iter..traits..iterator..Iterator$GT$4next17hca3cb2fb44a61348E
	.p2align	4, 0x90
__ZN102_$LT$core..iter..adapters..map..Map$LT$I$C$F$GT$$u20$as$u20$core..iter..traits..iterator..Iterator$GT$4next17hca3cb2fb44a61348E:
Lfunc_begin0:
	.file	1 "/rustc/2c8cc343237b8f7d5a3c3703e3a87f2eb2c54a74/library/core/src/iter/adapters" "map.rs"
	.loc	1 102 0
	.cfi_startproc
	pushq	%rbp
	.cfi_def_cfa_offset 16
	.cfi_offset %rbp, -16
	movq	%rsp, %rbp
	.cfi_def_cfa_register %rbp
	subq	$16, %rsp
	movq	%rdi, -16(%rbp)
	movq	%rdi, -8(%rbp)
Ltmp0:
	.loc	1 103 9 prologue_end
	callq	__ZN107_$LT$core_foundation..array..CFArrayIterator$LT$T$GT$$u20$as$u20$core..iter..traits..iterator..Iterator$GT$4next17h83d0b272c0919f2fE
	movq	%rax, %rdi
	movq	%rdx, %rsi
	movq	-16(%rbp), %rdx
	callq	__ZN4core6option15Option$LT$T$GT$3map17h6cd0eb391fa8ad96E
	.loc	1 104 6
	addq	$16, %rsp
	popq	%rbp
	retq
Ltmp1:
Lfunc_end0:
	.cfi_endproc

	.globl	__ZN102_$LT$core..iter..adapters..map..Map$LT$I$C$F$GT$$u20$as$u20$core..iter..traits..iterator..Iterator$GT$9size_hint17hbdcc4e7aacd54a23E
	.p2align	4, 0x90
__ZN102_$LT$core..iter..adapters..map..Map$LT$I$C$F$GT$$u20$as$u20$core..iter..traits..iterator..Iterator$GT$9size_hint17hbdcc4e7aacd54a23E:
Lfunc_begin1:
	.loc	1 107 0
	.cfi_startproc
	pushq	%rbp
	.cfi_def_cfa_offset 16
	.cfi_offset %rbp, -16
	movq	%rsp, %rbp
	.cfi_def_cfa_register %rbp
	subq	$16, %rsp
	movq	%rdi, %rax
	movq	%rax, -16(%rbp)
	movq	%rsi, -8(%rbp)
Ltmp2:
	.loc	1 108 9 prologue_end
	callq	__ZN4core4iter6traits8iterator8Iterator9size_hint17h87f333b3dff5635dE
	movq	-16(%rbp), %rax
	.loc	1 109 6
	addq	$16, %rsp
	popq	%rbp
	retq
Ltmp3:
Lfunc_end1:
	.cfi_endproc

	.globl	__ZN102_$LT$core..iter..adapters..zip..Zip$LT$A$C$B$GT$$u20$as$u20$core..iter..traits..iterator..Iterator$GT$4next17h89a4f73d922f25a7E
	.p2align	4, 0x90
__ZN102_$LT$core..iter..adapters..zip..Zip$LT$A$C$B$GT$$u20$as$u20$core..iter..traits..iterator..Iterator$GT$4next17h89a4f73d922f25a7E:
Lfunc_begin2:
	.file	2 "/rustc/2c8cc343237b8f7d5a3c3703e3a87f2eb2c54a74/library/core/src/iter/adapters" "zip.rs"
	.loc	2 83 0
	.cfi_startproc
	pushq	%rbp
	.cfi_def_cfa_offset 16
	.cfi_offset %rbp, -16
	movq	%rsp, %rbp
	.cfi_def_cfa_register %rbp
	subq	$16, %rsp
	movq	%rdi, -8(%rbp)
Ltmp4:
	.loc	2 84 9 prologue_end
	callq	__ZN111_$LT$core..iter..adapters..zip..Zip$LT$A$C$B$GT$$u20$as$u20$core..iter..adapters..zip..ZipImpl$LT$A$C$B$GT$$GT$4next17h15738fa5b49057fdE
	.loc	2 85 6
	addq	$16, %rsp
	popq	%rbp
	retq
Ltmp5:
Lfunc_end2:
	.cfi_endproc

	.globl	__ZN104_$LT$core..ops..control_flow..ControlFlow$LT$B$C$C$GT$$u20$as$u20$core..ops..try_trait..FromResidual$GT$13from_residual17h5e8c33ad58dde8d5E
	.p2align	4, 0x90
__ZN104_$LT$core..ops..control_flow..ControlFlow$LT$B$C$C$GT$$u20$as$u20$core..ops..try_trait..FromResidual$GT$13from_residual17h5e8c33ad58dde8d5E:
Lfunc_begin3:
	.file	3 "/rustc/2c8cc343237b8f7d5a3c3703e3a87f2eb2c54a74/library/core/src/ops" "control_flow.rs"
	.loc	3 123 0
	.cfi_startproc
	pushq	%rbp
	.cfi_def_cfa_offset 16
	.cfi_offset %rbp, -16
	movq	%rsp, %rbp
	.cfi_def_cfa_register %rbp
	subq	$24, %rsp
Ltmp6:
	.loc	3 125 38 prologue_end
	movb	$1, -17(%rbp)
Ltmp7:
	.loc	3 127 6
	movb	-17(%rbp), %al
	andb	$1, %al
	movzbl	%al, %eax
	addq	$24, %rsp
	popq	%rbp
	retq
Ltmp8:
Lfunc_end3:
	.cfi_endproc

	.globl	__ZN105_$LT$core_foundation..dictionary..CFDictionary$LT$K$C$V$GT$$u20$as$u20$core_foundation..base..TCFType$GT$19as_concrete_TypeRef17hf0dc928dc5e6fc4fE
	.p2align	4, 0x90
__ZN105_$LT$core_foundation..dictionary..CFDictionary$LT$K$C$V$GT$$u20$as$u20$core_foundation..base..TCFType$GT$19as_concrete_TypeRef17hf0dc928dc5e6fc4fE:
Lfunc_begin4:
	.file	4 "/Users/natalie/.cargo/registry/src/github.com-1ecc6299db9ec823/core-foundation-0.9.3/src" "lib.rs"
	.loc	4 92 0
	.cfi_startproc
	pushq	%rbp
	.cfi_def_cfa_offset 16
	.cfi_offset %rbp, -16
	movq	%rsp, %rbp
	.cfi_def_cfa_register %rbp
	pushq	%rax
	movq	%rdi, -8(%rbp)
Ltmp9:
	.loc	4 93 17 prologue_end
	movq	(%rdi), %rax
	.loc	4 94 14
	addq	$8, %rsp
	popq	%rbp
	retq
Ltmp10:
Lfunc_end4:
	.cfi_endproc

	.globl	__ZN105_$LT$core_foundation..dictionary..CFDictionary$LT$K$C$V$GT$$u20$as$u20$core_foundation..base..TCFType$GT$22wrap_under_create_rule17h2b1c2d7277126cd4E
	.p2align	4, 0x90
__ZN105_$LT$core_foundation..dictionary..CFDictionary$LT$K$C$V$GT$$u20$as$u20$core_foundation..base..TCFType$GT$22wrap_under_create_rule17h2b1c2d7277126cd4E:
Lfunc_begin5:
	.loc	4 109 0
	.cfi_startproc
	pushq	%rbp
	.cfi_def_cfa_offset 16
	.cfi_offset %rbp, -16
	movq	%rsp, %rbp
	.cfi_def_cfa_register %rbp
	subq	$32, %rsp
	movq	%rdi, -24(%rbp)
	movq	%rdi, -8(%rbp)
Ltmp11:
	.loc	4 110 26 prologue_end
	callq	__ZN4core3ptr9const_ptr33_$LT$impl$u20$$BP$const$u20$T$GT$7is_null17h2df3bae159d78602E
	.loc	4 110 25 is_stmt 0
	xorb	$-1, %al
	.loc	4 110 17
	xorb	$-1, %al
	testb	$1, %al
	jne	LBB5_2
	.loc	4 0 17
	movq	-24(%rbp), %rax
	.loc	4 113 17 is_stmt 1
	movq	%rax, -16(%rbp)
	.loc	4 114 14
	movq	-16(%rbp), %rax
	addq	$32, %rsp
	popq	%rbp
	retq
LBB5_2:
	.loc	4 110 17
	leaq	l___unnamed_3(%rip), %rdi
	leaq	l___unnamed_4(%rip), %rdx
	movl	$34, %esi
	callq	__ZN3std9panicking11begin_panic17hca1489fda4927541E
Ltmp12:
Lfunc_end5:
	.cfi_endproc

	.globl	__ZN106_$LT$$RF$core_foundation..array..CFArray$LT$T$GT$$u20$as$u20$core..iter..traits..collect..IntoIterator$GT$9into_iter17hbea88232026bcfeeE
	.p2align	4, 0x90
__ZN106_$LT$$RF$core_foundation..array..CFArray$LT$T$GT$$u20$as$u20$core..iter..traits..collect..IntoIterator$GT$9into_iter17hbea88232026bcfeeE:
Lfunc_begin6:
	.file	5 "/Users/natalie/.cargo/registry/src/github.com-1ecc6299db9ec823/core-foundation-0.9.3/src" "array.rs"
	.loc	5 158 0
	.cfi_startproc
	pushq	%rbp
	.cfi_def_cfa_offset 16
	.cfi_offset %rbp, -16
	movq	%rsp, %rbp
	.cfi_def_cfa_register %rbp
	subq	$16, %rsp
	movq	%rdi, %rax
	movq	%rax, -16(%rbp)
	movq	%rsi, -8(%rbp)
Ltmp13:
	.loc	5 159 9 prologue_end
	callq	__ZN15core_foundation5array16CFArray$LT$T$GT$4iter17h005d08cf1df3bf3dE
	movq	-16(%rbp), %rax
	.loc	5 160 6
	addq	$16, %rsp
	popq	%rbp
	retq
Ltmp14:
Lfunc_end6:
	.cfi_endproc

	.globl	__ZN107_$LT$core_foundation..array..CFArrayIterator$LT$T$GT$$u20$as$u20$core..iter..traits..iterator..Iterator$GT$4next17h83d0b272c0919f2fE
	.p2align	4, 0x90
__ZN107_$LT$core_foundation..array..CFArrayIterator$LT$T$GT$$u20$as$u20$core..iter..traits..iterator..Iterator$GT$4next17h83d0b272c0919f2fE:
Lfunc_begin7:
	.loc	5 42 0
	.cfi_startproc
	pushq	%rbp
	.cfi_def_cfa_offset 16
	.cfi_offset %rbp, -16
	movq	%rsp, %rbp
	.cfi_def_cfa_register %rbp
	subq	$64, %rsp
	movq	%rdi, -40(%rbp)
	movq	%rdi, -16(%rbp)
Ltmp15:
	.loc	5 43 12 prologue_end
	movq	(%rdi), %rax
	cmpq	8(%rdi), %rax
	jge	LBB7_2
	.loc	5 0 12 is_stmt 0
	movq	-40(%rbp), %rax
	.loc	5 46 34 is_stmt 1
	movq	16(%rax), %rdi
	.loc	5 46 59 is_stmt 0
	movq	(%rax), %rsi
	.loc	5 46 34
	callq	__ZN15core_foundation5array16CFArray$LT$T$GT$13get_unchecked17hc7640615ab0ce850E
	movq	%rax, %rcx
	movq	-40(%rbp), %rax
	movq	%rcx, -56(%rbp)
	movq	%rcx, -8(%rbp)
Ltmp16:
	.loc	5 47 13 is_stmt 1
	movq	(%rax), %rax
	incq	%rax
	movq	%rax, -48(%rbp)
	seto	%al
	testb	$1, %al
	jne	LBB7_5
	jmp	LBB7_4
Ltmp17:
LBB7_2:
	.loc	5 44 13
	movq	$0, -32(%rbp)
LBB7_3:
	.loc	5 50 6
	movq	-32(%rbp), %rax
	movq	-24(%rbp), %rdx
	addq	$64, %rsp
	popq	%rbp
	retq
LBB7_4:
	.loc	5 0 6 is_stmt 0
	movq	-56(%rbp), %rax
	movq	-40(%rbp), %rcx
	movq	-48(%rbp), %rdx
Ltmp18:
	.loc	5 47 13 is_stmt 1
	movq	%rdx, (%rcx)
	.loc	5 48 13
	movq	%rax, -24(%rbp)
	movq	$1, -32(%rbp)
Ltmp19:
	.loc	5 43 9
	jmp	LBB7_3
LBB7_5:
Ltmp20:
	.loc	5 47 13
	leaq	_str.0(%rip), %rdi
	leaq	l___unnamed_5(%rip), %rdx
	movl	$28, %esi
	callq	__ZN4core9panicking5panic17hc1bc45270cf64b03E
Ltmp21:
Lfunc_end7:
	.cfi_endproc

	.globl	__ZN111_$LT$alloc..vec..Vec$LT$T$GT$$u20$as$u20$alloc..vec..spec_from_iter_nested..SpecFromIterNested$LT$T$C$I$GT$$GT$9from_iter17h63d4f7a29ea2b483E
	.p2align	4, 0x90
__ZN111_$LT$alloc..vec..Vec$LT$T$GT$$u20$as$u20$alloc..vec..spec_from_iter_nested..SpecFromIterNested$LT$T$C$I$GT$$GT$9from_iter17h63d4f7a29ea2b483E:
Lfunc_begin8:
	.file	6 "/rustc/2c8cc343237b8f7d5a3c3703e3a87f2eb2c54a74/library/alloc/src/vec" "spec_from_iter_nested.rs"
	.loc	6 20 0
	.cfi_startproc
	.cfi_personality 155, _rust_eh_personality
	.cfi_lsda 16, Lexception0
	pushq	%rbp
	.cfi_def_cfa_offset 16
	.cfi_offset %rbp, -16
	movq	%rsp, %rbp
	.cfi_def_cfa_register %rbp
	subq	$432, %rsp
	movq	%rsi, -376(%rbp)
Ltmp38:
	movq	%rdi, %rax
	movq	-376(%rbp), %rdi
	movq	%rax, -368(%rbp)
	movq	%rax, -360(%rbp)
Ltmp39:
	.loc	6 26 13 prologue_end
	movb	$1, -226(%rbp)
Ltmp22:
	.loc	6 26 32 is_stmt 0
	callq	__ZN87_$LT$core..str..iter..EncodeUtf16$u20$as$u20$core..iter..traits..iterator..Iterator$GT$4next17hd3074c085780e426E
Ltmp23:
	movw	%dx, -348(%rbp)
	movw	%ax, -346(%rbp)
	jmp	LBB8_3
Ltmp40:
LBB8_1:
	.loc	6 45 5 is_stmt 1
	testb	$1, -226(%rbp)
	jne	LBB8_19
	jmp	LBB8_18
Ltmp41:
LBB8_2:
Ltmp24:
	.loc	6 0 5 is_stmt 0
	movq	%rax, %rcx
	movl	%edx, %eax
	movq	%rcx, -200(%rbp)
	movl	%eax, -192(%rbp)
	jmp	LBB8_1
Ltmp42:
LBB8_3:
	movw	-348(%rbp), %ax
	movw	-346(%rbp), %cx
	.loc	6 26 32 is_stmt 1
	movw	%cx, -320(%rbp)
	movw	%ax, -318(%rbp)
	movzwl	-320(%rbp), %eax
	.loc	6 26 26 is_stmt 0
	cmpq	$0, %rax
	jne	LBB8_5
Ltmp43:
	.loc	6 0 26
	movq	-368(%rbp), %rax
Ltmp44:
	.file	7 "/rustc/2c8cc343237b8f7d5a3c3703e3a87f2eb2c54a74/library/alloc/src/vec" "mod.rs"
	.loc	7 425 20 is_stmt 1
	movq	L___unnamed_6(%rip), %rdx
	movq	L___unnamed_6+8(%rip), %rcx
	.loc	7 425 9 is_stmt 0
	movq	%rdx, (%rax)
	movq	%rcx, 8(%rax)
	movq	$0, 16(%rax)
Ltmp45:
	.loc	6 45 5 is_stmt 1
	jmp	LBB8_20
Ltmp46:
LBB8_5:
	.loc	6 0 5 is_stmt 0
	movq	-376(%rbp), %rsi
	.loc	6 28 18 is_stmt 1
	movw	-318(%rbp), %ax
	movw	%ax, -378(%rbp)
	movw	%ax, -178(%rbp)
Ltmp25:
	leaq	-312(%rbp), %rdi
Ltmp47:
	.loc	6 29 34
	callq	__ZN87_$LT$core..str..iter..EncodeUtf16$u20$as$u20$core..iter..traits..iterator..Iterator$GT$9size_hint17hea5f05521c6e3af0E
Ltmp26:
	jmp	LBB8_8
Ltmp48:
LBB8_6:
	.loc	6 39 13
	movb	$1, %al
	testb	$1, %al
	jne	LBB8_14
	jmp	LBB8_1
Ltmp49:
LBB8_7:
Ltmp31:
	.loc	6 0 13 is_stmt 0
	movq	%rax, %rcx
	movl	%edx, %eax
	movq	%rcx, -200(%rbp)
	movl	%eax, -192(%rbp)
	jmp	LBB8_6
Ltmp50:
LBB8_8:
	.loc	6 29 22 is_stmt 1
	movq	-312(%rbp), %rax
	movq	%rax, -176(%rbp)
Ltmp51:
	.loc	6 31 61
	movq	%rax, -168(%rbp)
Ltmp52:
	.file	8 "/rustc/2c8cc343237b8f7d5a3c3703e3a87f2eb2c54a74/library/core/src/num" "uint_macros.rs"
	.loc	8 1022 13
	incq	%rax
	movq	$-1, %rcx
	cmoveq	%rcx, %rax
	movq	%rax, -160(%rbp)
	movq	-160(%rbp), %rax
	movq	%rax, -392(%rbp)
	movq	%rax, -152(%rbp)
Ltmp53:
	.loc	8 0 13 is_stmt 0
	movq	-392(%rbp), %rsi
	.loc	6 31 21 is_stmt 1
	movq	$4, -144(%rbp)
Ltmp54:
	.file	9 "/rustc/2c8cc343237b8f7d5a3c3703e3a87f2eb2c54a74/library/core/src" "cmp.rs"
	.loc	9 1276 5
	movq	$4, -136(%rbp)
	.loc	9 1276 12 is_stmt 0
	movq	%rsi, -128(%rbp)
Ltmp27:
	movl	$4, %edi
Ltmp55:
	.loc	9 803 13 is_stmt 1
	callq	__ZN4core3cmp6max_by17h4c61f28a0041330aE
Ltmp28:
	movq	%rax, -400(%rbp)
	jmp	LBB8_10
Ltmp56:
LBB8_10:
	.loc	9 0 13 is_stmt 0
	movq	-400(%rbp), %rdi
	.loc	9 803 13
	movq	%rdi, -120(%rbp)
Ltmp57:
	.loc	6 32 53 is_stmt 1
	movq	%rdi, -112(%rbp)
Ltmp58:
	.loc	7 483 32
	movq	%rdi, -104(%rbp)
Ltmp59:
	.loc	7 676 45
	movq	%rdi, -96(%rbp)
Ltmp60:
	.file	10 "/rustc/2c8cc343237b8f7d5a3c3703e3a87f2eb2c54a74/library/alloc/src" "raw_vec.rs"
	.loc	10 131 37
	movb	$0, -225(%rbp)
	.loc	10 131 9 is_stmt 0
	movzbl	-225(%rbp), %esi
Ltmp29:
	callq	__ZN5alloc7raw_vec19RawVec$LT$T$C$A$GT$11allocate_in17h9d752cad483a294eE
Ltmp30:
	movq	%rdx, -416(%rbp)
	movq	%rax, -408(%rbp)
	jmp	LBB8_11
Ltmp61:
LBB8_11:
	.loc	10 0 9
	movq	-416(%rbp), %rax
	movq	-408(%rbp), %rcx
	.loc	7 676 9 is_stmt 1
	movq	%rcx, -288(%rbp)
	movq	%rax, -280(%rbp)
	movq	$0, -272(%rbp)
Ltmp62:
	.loc	6 35 32
	leaq	-288(%rbp), %rax
	movq	%rax, -88(%rbp)
Ltmp63:
	.loc	7 1280 19
	leaq	-288(%rbp), %rax
	movq	%rax, -80(%rbp)
Ltmp64:
	.loc	10 224 9
	movq	-280(%rbp), %rax
	movq	%rax, -424(%rbp)
	movq	%rax, -72(%rbp)
Ltmp65:
	.file	11 "/rustc/2c8cc343237b8f7d5a3c3703e3a87f2eb2c54a74/library/core/src/ptr" "unique.rs"
	.loc	11 104 9
	movq	%rax, -64(%rbp)
Ltmp66:
	.file	12 "/rustc/2c8cc343237b8f7d5a3c3703e3a87f2eb2c54a74/library/core/src/ptr" "non_null.rs"
	.loc	12 326 9
	movq	%rax, -56(%rbp)
Ltmp67:
	.loc	7 1282 21
	movq	%rax, -48(%rbp)
Ltmp68:
	.file	13 "/rustc/2c8cc343237b8f7d5a3c3703e3a87f2eb2c54a74/library/core/src/ptr" "mut_ptr.rs"
	.loc	13 52 36
	movq	%rax, -224(%rbp)
	.loc	13 52 18 is_stmt 0
	movq	-224(%rbp), %rax
	movq	%rax, -40(%rbp)
Ltmp69:
	.loc	13 38 13 is_stmt 1
	movq	%rax, -32(%rbp)
Ltmp70:
	.loc	13 215 33
	movq	%rax, -24(%rbp)
	.loc	13 215 18 is_stmt 0
	movq	%rax, -16(%rbp)
	movq	-16(%rbp), %rax
Ltmp71:
	.loc	13 0 18
	movq	-376(%rbp), %rcx
	movq	-424(%rbp), %rax
	movw	-378(%rbp), %dx
	.loc	6 35 53 is_stmt 1
	movw	%dx, -258(%rbp)
Ltmp72:
	.file	14 "/rustc/2c8cc343237b8f7d5a3c3703e3a87f2eb2c54a74/library/core/src/ptr" "mod.rs"
	.loc	14 1354 9
	movw	-258(%rbp), %dx
	movw	%dx, (%rax)
	leaq	-288(%rbp), %rax
Ltmp73:
	.loc	6 36 21
	movq	%rax, -8(%rbp)
Ltmp74:
	.loc	7 1377 9
	movq	$1, -272(%rbp)
Ltmp75:
	.loc	6 38 17
	movq	-272(%rbp), %rax
	movq	%rax, -328(%rbp)
	movq	-288(%rbp), %rax
	movq	-280(%rbp), %rdx
	movq	%rdx, -336(%rbp)
	movq	%rax, -344(%rbp)
Ltmp76:
	.loc	6 43 64
	movb	$0, -226(%rbp)
	movq	16(%rcx), %rax
	movq	%rax, -240(%rbp)
	movq	(%rcx), %rax
	movq	8(%rcx), %rcx
	movq	%rcx, -248(%rbp)
	movq	%rax, -256(%rbp)
Ltmp32:
	leaq	-344(%rbp), %rdi
	leaq	-256(%rbp), %rsi
	.loc	6 43 9 is_stmt 0
	callq	__ZN97_$LT$alloc..vec..Vec$LT$T$C$A$GT$$u20$as$u20$alloc..vec..spec_extend..SpecExtend$LT$T$C$I$GT$$GT$11spec_extend17h004ad816b7bd7a35E
Ltmp33:
	jmp	LBB8_17
Ltmp77:
LBB8_13:
Ltmp37:
	.loc	6 20 5 is_stmt 1
	callq	__ZN4core9panicking19panic_cannot_unwind17h1fbca7e1d7f56ae1E
Ltmp78:
LBB8_14:
	.loc	6 39 13
	jmp	LBB8_1
Ltmp79:
LBB8_15:
Ltmp35:
	.loc	6 0 13 is_stmt 0
	leaq	-344(%rbp), %rdi
	.loc	6 45 5 is_stmt 1
	callq	__ZN4core3ptr47drop_in_place$LT$alloc..vec..Vec$LT$u16$GT$$GT$17h3a7a2b3c27178300E
Ltmp36:
	jmp	LBB8_1
Ltmp80:
LBB8_16:
Ltmp34:
	.loc	6 0 5 is_stmt 0
	movq	%rax, %rcx
	movl	%edx, %eax
	movq	%rcx, -200(%rbp)
	movl	%eax, -192(%rbp)
	jmp	LBB8_15
Ltmp81:
LBB8_17:
	movq	-368(%rbp), %rax
Ltmp82:
	.loc	6 44 9 is_stmt 1
	movq	-344(%rbp), %rcx
	movq	%rcx, (%rax)
	movq	-336(%rbp), %rcx
	movq	%rcx, 8(%rax)
	movq	-328(%rbp), %rcx
	movq	%rcx, 16(%rax)
Ltmp83:
	.loc	6 45 5
	jmp	LBB8_20
Ltmp84:
LBB8_18:
	.loc	6 20 5
	movq	-200(%rbp), %rdi
	callq	__Unwind_Resume
Ltmp85:
LBB8_19:
	.loc	6 45 5
	jmp	LBB8_18
Ltmp86:
LBB8_20:
	.loc	6 0 5 is_stmt 0
	movq	-360(%rbp), %rax
	.loc	6 45 6
	addq	$432, %rsp
	popq	%rbp
	retq
Ltmp87:
Lfunc_end8:
	.cfi_endproc
	.section	__TEXT,__gcc_except_tab
	.p2align	2
GCC_except_table8:
Lexception0:
	.byte	255
	.byte	255
	.byte	1
	.uleb128 Lcst_end0-Lcst_begin0
Lcst_begin0:
	.uleb128 Ltmp22-Lfunc_begin8
	.uleb128 Ltmp23-Ltmp22
	.uleb128 Ltmp24-Lfunc_begin8
	.byte	0
	.uleb128 Ltmp25-Lfunc_begin8
	.uleb128 Ltmp30-Ltmp25
	.uleb128 Ltmp31-Lfunc_begin8
	.byte	0
	.uleb128 Ltmp32-Lfunc_begin8
	.uleb128 Ltmp33-Ltmp32
	.uleb128 Ltmp34-Lfunc_begin8
	.byte	0
	.uleb128 Ltmp35-Lfunc_begin8
	.uleb128 Ltmp36-Ltmp35
	.uleb128 Ltmp37-Lfunc_begin8
	.byte	0
	.uleb128 Ltmp36-Lfunc_begin8
	.uleb128 Lfunc_end8-Ltmp36
	.byte	0
	.byte	0
Lcst_end0:
	.p2align	2

	.section	__TEXT,__text,regular,pure_instructions
	.globl	__ZN111_$LT$alloc..vec..Vec$LT$T$GT$$u20$as$u20$alloc..vec..spec_from_iter_nested..SpecFromIterNested$LT$T$C$I$GT$$GT$9from_iter17hd023b1b99fd3ad6aE
	.p2align	4, 0x90
__ZN111_$LT$alloc..vec..Vec$LT$T$GT$$u20$as$u20$alloc..vec..spec_from_iter_nested..SpecFromIterNested$LT$T$C$I$GT$$GT$9from_iter17hd023b1b99fd3ad6aE:
Lfunc_begin9:
	.loc	6 20 0 is_stmt 1
	.cfi_startproc
	.cfi_personality 155, _rust_eh_personality
	.cfi_lsda 16, Lexception1
	pushq	%rbp
	.cfi_def_cfa_offset 16
	.cfi_offset %rbp, -16
	movq	%rsp, %rbp
	.cfi_def_cfa_register %rbp
	subq	$432, %rsp
	movq	%rsi, -392(%rbp)
Ltmp106:
	movq	%rdi, %rax
	movq	-392(%rbp), %rdi
	movq	%rax, -384(%rbp)
	movq	%rax, -376(%rbp)
Ltmp107:
	.loc	6 26 13 prologue_end
	movb	$1, -218(%rbp)
Ltmp88:
	.loc	6 26 32 is_stmt 0
	callq	__ZN102_$LT$core..iter..adapters..map..Map$LT$I$C$F$GT$$u20$as$u20$core..iter..traits..iterator..Iterator$GT$4next17hca3cb2fb44a61348E
Ltmp89:
	movq	%rdx, -368(%rbp)
	movq	%rax, -360(%rbp)
	jmp	LBB9_3
Ltmp108:
LBB9_1:
	.loc	6 45 5 is_stmt 1
	testb	$1, -218(%rbp)
	jne	LBB9_19
	jmp	LBB9_18
Ltmp109:
LBB9_2:
Ltmp90:
	.loc	6 0 5 is_stmt 0
	movq	%rax, %rcx
	movl	%edx, %eax
	movq	%rcx, -192(%rbp)
	movl	%eax, -184(%rbp)
	jmp	LBB9_1
Ltmp110:
LBB9_3:
	movq	-368(%rbp), %rax
	movq	-360(%rbp), %rcx
	.loc	6 26 32 is_stmt 1
	movq	%rcx, -328(%rbp)
	movq	%rax, -320(%rbp)
	.loc	6 26 26 is_stmt 0
	cmpq	$0, -328(%rbp)
	jne	LBB9_5
Ltmp111:
	.loc	6 0 26
	movq	-384(%rbp), %rax
Ltmp112:
	.loc	7 425 20 is_stmt 1
	movq	L___unnamed_7(%rip), %rdx
	movq	L___unnamed_7+8(%rip), %rcx
	.loc	7 425 9 is_stmt 0
	movq	%rdx, (%rax)
	movq	%rcx, 8(%rax)
	movq	$0, 16(%rax)
Ltmp113:
	.loc	6 45 5 is_stmt 1
	jmp	LBB9_20
Ltmp114:
LBB9_5:
	.loc	6 0 5 is_stmt 0
	movq	-392(%rbp), %rsi
	.loc	6 28 18 is_stmt 1
	movq	-320(%rbp), %rax
	movq	%rax, -312(%rbp)
Ltmp91:
	leaq	-304(%rbp), %rdi
Ltmp115:
	.loc	6 29 34
	callq	__ZN102_$LT$core..iter..adapters..map..Map$LT$I$C$F$GT$$u20$as$u20$core..iter..traits..iterator..Iterator$GT$9size_hint17hbdcc4e7aacd54a23E
Ltmp92:
	jmp	LBB9_8
Ltmp116:
LBB9_6:
	.loc	6 39 13
	movb	$1, %al
	testb	$1, %al
	jne	LBB9_14
	jmp	LBB9_1
Ltmp117:
LBB9_7:
Ltmp97:
	.loc	6 0 13 is_stmt 0
	movq	%rax, %rcx
	movl	%edx, %eax
	movq	%rcx, -192(%rbp)
	movl	%eax, -184(%rbp)
	jmp	LBB9_6
Ltmp118:
LBB9_8:
	.loc	6 29 22 is_stmt 1
	movq	-304(%rbp), %rax
	movq	%rax, -176(%rbp)
Ltmp119:
	.loc	6 31 61
	movq	%rax, -168(%rbp)
Ltmp120:
	.loc	8 1022 13
	incq	%rax
	movq	$-1, %rcx
	cmoveq	%rcx, %rax
	movq	%rax, -160(%rbp)
	movq	-160(%rbp), %rax
	movq	%rax, -400(%rbp)
	movq	%rax, -152(%rbp)
Ltmp121:
	.loc	8 0 13 is_stmt 0
	movq	-400(%rbp), %rsi
	.loc	6 31 21 is_stmt 1
	movq	$4, -144(%rbp)
Ltmp122:
	.loc	9 1276 5
	movq	$4, -136(%rbp)
	.loc	9 1276 12 is_stmt 0
	movq	%rsi, -128(%rbp)
Ltmp93:
	movl	$4, %edi
Ltmp123:
	.loc	9 803 13 is_stmt 1
	callq	__ZN4core3cmp6max_by17h4c61f28a0041330aE
Ltmp94:
	movq	%rax, -408(%rbp)
	jmp	LBB9_10
Ltmp124:
LBB9_10:
	.loc	9 0 13 is_stmt 0
	movq	-408(%rbp), %rdi
	.loc	9 803 13
	movq	%rdi, -120(%rbp)
Ltmp125:
	.loc	6 32 53 is_stmt 1
	movq	%rdi, -112(%rbp)
Ltmp126:
	.loc	7 483 32
	movq	%rdi, -104(%rbp)
Ltmp127:
	.loc	7 676 45
	movq	%rdi, -96(%rbp)
Ltmp128:
	.loc	10 131 37
	movb	$0, -217(%rbp)
	.loc	10 131 9 is_stmt 0
	movzbl	-217(%rbp), %esi
Ltmp95:
	callq	__ZN5alloc7raw_vec19RawVec$LT$T$C$A$GT$11allocate_in17h3b1ede496b65ee6fE
Ltmp96:
	movq	%rdx, -424(%rbp)
	movq	%rax, -416(%rbp)
	jmp	LBB9_11
Ltmp129:
LBB9_11:
	.loc	10 0 9
	movq	-424(%rbp), %rax
	movq	-416(%rbp), %rcx
	.loc	7 676 9 is_stmt 1
	movq	%rcx, -280(%rbp)
	movq	%rax, -272(%rbp)
	movq	$0, -264(%rbp)
Ltmp130:
	.loc	6 35 32
	leaq	-280(%rbp), %rax
	movq	%rax, -88(%rbp)
Ltmp131:
	.loc	7 1280 19
	leaq	-280(%rbp), %rax
	movq	%rax, -80(%rbp)
Ltmp132:
	.loc	10 224 9
	movq	-272(%rbp), %rax
	movq	%rax, -432(%rbp)
	movq	%rax, -72(%rbp)
Ltmp133:
	.loc	11 104 9
	movq	%rax, -64(%rbp)
Ltmp134:
	.loc	12 326 9
	movq	%rax, -56(%rbp)
Ltmp135:
	.loc	7 1282 21
	movq	%rax, -48(%rbp)
Ltmp136:
	.loc	13 52 36
	movq	%rax, -216(%rbp)
	.loc	13 52 18 is_stmt 0
	movq	-216(%rbp), %rax
	movq	%rax, -40(%rbp)
Ltmp137:
	.loc	13 38 13 is_stmt 1
	movq	%rax, -32(%rbp)
Ltmp138:
	.loc	13 215 33
	movq	%rax, -24(%rbp)
	.loc	13 215 18 is_stmt 0
	movq	%rax, -16(%rbp)
	movq	-16(%rbp), %rax
Ltmp139:
	.loc	13 0 18
	movq	-392(%rbp), %rcx
	movq	-432(%rbp), %rax
	.loc	6 35 53 is_stmt 1
	movq	-312(%rbp), %rdx
	movq	%rdx, -256(%rbp)
Ltmp140:
	.loc	14 1354 9
	movq	-256(%rbp), %rdx
	movq	%rdx, (%rax)
	leaq	-280(%rbp), %rax
Ltmp141:
	.loc	6 36 21
	movq	%rax, -8(%rbp)
Ltmp142:
	.loc	7 1377 9
	movq	$1, -264(%rbp)
Ltmp143:
	.loc	6 38 17
	movq	-264(%rbp), %rax
	movq	%rax, -336(%rbp)
	movq	-280(%rbp), %rax
	movq	-272(%rbp), %rdx
	movq	%rdx, -344(%rbp)
	movq	%rax, -352(%rbp)
Ltmp144:
	.loc	6 43 64
	movb	$0, -218(%rbp)
	movq	16(%rcx), %rax
	movq	%rax, -232(%rbp)
	movq	(%rcx), %rax
	movq	8(%rcx), %rcx
	movq	%rcx, -240(%rbp)
	movq	%rax, -248(%rbp)
Ltmp100:
	leaq	-352(%rbp), %rdi
	leaq	-248(%rbp), %rsi
	.loc	6 43 9 is_stmt 0
	callq	__ZN97_$LT$alloc..vec..Vec$LT$T$C$A$GT$$u20$as$u20$alloc..vec..spec_extend..SpecExtend$LT$T$C$I$GT$$GT$11spec_extend17hcf6badb0137ddf34E
Ltmp101:
	jmp	LBB9_17
Ltmp145:
LBB9_13:
Ltmp105:
	.loc	6 20 5 is_stmt 1
	callq	__ZN4core9panicking19panic_cannot_unwind17h1fbca7e1d7f56ae1E
Ltmp146:
LBB9_14:
Ltmp98:
	.loc	6 0 5 is_stmt 0
	leaq	-312(%rbp), %rdi
	.loc	6 39 13 is_stmt 1
	callq	__ZN4core3ptr58drop_in_place$LT$core_graphics..display..CGDisplayMode$GT$17hc337b18e8e56c2f6E
Ltmp99:
	jmp	LBB9_1
Ltmp147:
LBB9_15:
Ltmp103:
	.loc	6 0 13 is_stmt 0
	leaq	-352(%rbp), %rdi
	.loc	6 45 5 is_stmt 1
	callq	__ZN4core3ptr81drop_in_place$LT$alloc..vec..Vec$LT$core_graphics..display..CGDisplayMode$GT$$GT$17h6fd5973a6d95b0daE
Ltmp104:
	jmp	LBB9_1
Ltmp148:
LBB9_16:
Ltmp102:
	.loc	6 0 5 is_stmt 0
	movq	%rax, %rcx
	movl	%edx, %eax
	movq	%rcx, -192(%rbp)
	movl	%eax, -184(%rbp)
	jmp	LBB9_15
Ltmp149:
LBB9_17:
	movq	-384(%rbp), %rax
Ltmp150:
	.loc	6 44 9 is_stmt 1
	movq	-352(%rbp), %rcx
	movq	%rcx, (%rax)
	movq	-344(%rbp), %rcx
	movq	%rcx, 8(%rax)
	movq	-336(%rbp), %rcx
	movq	%rcx, 16(%rax)
Ltmp151:
	.loc	6 45 5
	jmp	LBB9_20
Ltmp152:
LBB9_18:
	.loc	6 20 5
	movq	-192(%rbp), %rdi
	callq	__Unwind_Resume
Ltmp153:
LBB9_19:
	.loc	6 45 5
	jmp	LBB9_18
Ltmp154:
LBB9_20:
	.loc	6 0 5 is_stmt 0
	movq	-376(%rbp), %rax
	.loc	6 45 6
	addq	$432, %rsp
	popq	%rbp
	retq
Ltmp155:
Lfunc_end9:
	.cfi_endproc
	.section	__TEXT,__gcc_except_tab
	.p2align	2
GCC_except_table9:
Lexception1:
	.byte	255
	.byte	255
	.byte	1
	.uleb128 Lcst_end1-Lcst_begin1
Lcst_begin1:
	.uleb128 Ltmp88-Lfunc_begin9
	.uleb128 Ltmp89-Ltmp88
	.uleb128 Ltmp90-Lfunc_begin9
	.byte	0
	.uleb128 Ltmp91-Lfunc_begin9
	.uleb128 Ltmp96-Ltmp91
	.uleb128 Ltmp97-Lfunc_begin9
	.byte	0
	.uleb128 Ltmp100-Lfunc_begin9
	.uleb128 Ltmp101-Ltmp100
	.uleb128 Ltmp102-Lfunc_begin9
	.byte	0
	.uleb128 Ltmp98-Lfunc_begin9
	.uleb128 Ltmp104-Ltmp98
	.uleb128 Ltmp105-Lfunc_begin9
	.byte	0
	.uleb128 Ltmp104-Lfunc_begin9
	.uleb128 Lfunc_end9-Ltmp104
	.byte	0
	.byte	0
Lcst_end1:
	.p2align	2

	.section	__TEXT,__text,regular,pure_instructions
	.globl	__ZN111_$LT$core..iter..adapters..zip..Zip$LT$A$C$B$GT$$u20$as$u20$core..iter..adapters..zip..ZipImpl$LT$A$C$B$GT$$GT$3new17he3b20f9e4e25db7fE
	.p2align	4, 0x90
__ZN111_$LT$core..iter..adapters..zip..Zip$LT$A$C$B$GT$$u20$as$u20$core..iter..adapters..zip..ZipImpl$LT$A$C$B$GT$$GT$3new17he3b20f9e4e25db7fE:
Lfunc_begin10:
	.loc	2 262 0 is_stmt 1
	.cfi_startproc
	.cfi_personality 155, _rust_eh_personality
	.cfi_lsda 16, Lexception2
	pushq	%rbp
	.cfi_def_cfa_offset 16
	.cfi_offset %rbp, -16
	movq	%rsp, %rbp
	.cfi_def_cfa_register %rbp
	subq	$144, %rsp
	movq	%rdi, -120(%rbp)
	movq	%rdi, -112(%rbp)
	movq	%rsi, -96(%rbp)
	movq	%rdx, -88(%rbp)
	movq	%rcx, -80(%rbp)
	movq	%r8, -72(%rbp)
Ltmp156:
	leaq	-96(%rbp), %rdi
Ltmp163:
	.loc	2 263 21 prologue_end
	callq	__ZN4core4iter8adapters3zip27TrustedRandomAccessNoCoerce4size17h4bd4f08d7bacf972E
Ltmp157:
	movq	%rax, -104(%rbp)
	jmp	LBB10_3
LBB10_1:
	.loc	2 262 5
	movq	-64(%rbp), %rdi
	callq	__Unwind_Resume
LBB10_2:
Ltmp162:
	.loc	2 0 5 is_stmt 0
	movq	%rax, %rcx
	movl	%edx, %eax
	movq	%rcx, -64(%rbp)
	movl	%eax, -56(%rbp)
	jmp	LBB10_1
LBB10_3:
	movq	-104(%rbp), %rax
	.loc	2 263 21 is_stmt 1
	movq	%rax, -48(%rbp)
Ltmp164:
	.loc	2 264 28
	movq	%rax, -40(%rbp)
Ltmp158:
	leaq	-80(%rbp), %rdi
	.loc	2 264 35 is_stmt 0
	callq	__ZN4core4iter8adapters3zip27TrustedRandomAccessNoCoerce4size17h4bd4f08d7bacf972E
Ltmp159:
	movq	%rax, -128(%rbp)
	jmp	LBB10_4
LBB10_4:
	.loc	2 0 35
	movq	-128(%rbp), %rsi
	movq	-104(%rbp), %rdi
	.loc	2 264 35
	movq	%rsi, -32(%rbp)
Ltmp165:
	.loc	9 1185 5 is_stmt 1
	movq	%rdi, -24(%rbp)
	.loc	9 1185 12 is_stmt 0
	movq	%rsi, -16(%rbp)
Ltmp160:
Ltmp166:
	.loc	9 833 13 is_stmt 1
	callq	__ZN4core3cmp6min_by17hf3fed446fb04512cE
Ltmp161:
	movq	%rax, -136(%rbp)
	jmp	LBB10_5
LBB10_5:
	.loc	9 0 13 is_stmt 0
	movq	-112(%rbp), %rax
	movq	-120(%rbp), %rcx
	movq	-104(%rbp), %rdx
	movq	-136(%rbp), %rsi
	.loc	9 833 13
	movq	%rsi, -8(%rbp)
Ltmp167:
	.loc	2 265 15 is_stmt 1
	movq	-96(%rbp), %r10
	movq	-88(%rbp), %r9
	.loc	2 265 18 is_stmt 0
	movq	-80(%rbp), %r8
	movq	-72(%rbp), %rdi
	.loc	2 265 9
	movq	%r10, (%rcx)
	movq	%r9, 8(%rcx)
	movq	%r8, 16(%rcx)
	movq	%rdi, 24(%rcx)
	movq	$0, 32(%rcx)
	movq	%rsi, 40(%rcx)
	movq	%rdx, 48(%rcx)
Ltmp168:
	.loc	2 266 6 is_stmt 1
	addq	$144, %rsp
	popq	%rbp
	retq
Ltmp169:
Lfunc_end10:
	.cfi_endproc
	.section	__TEXT,__gcc_except_tab
	.p2align	2
GCC_except_table10:
Lexception2:
	.byte	255
	.byte	255
	.byte	1
	.uleb128 Lcst_end2-Lcst_begin2
Lcst_begin2:
	.uleb128 Ltmp156-Lfunc_begin10
	.uleb128 Ltmp157-Ltmp156
	.uleb128 Ltmp162-Lfunc_begin10
	.byte	0
	.uleb128 Ltmp157-Lfunc_begin10
	.uleb128 Ltmp158-Ltmp157
	.byte	0
	.byte	0
	.uleb128 Ltmp158-Lfunc_begin10
	.uleb128 Ltmp161-Ltmp158
	.uleb128 Ltmp162-Lfunc_begin10
	.byte	0
Lcst_end2:
	.p2align	2

	.section	__TEXT,__text,regular,pure_instructions
	.globl	__ZN111_$LT$core..iter..adapters..zip..Zip$LT$A$C$B$GT$$u20$as$u20$core..iter..adapters..zip..ZipImpl$LT$A$C$B$GT$$GT$4next17h15738fa5b49057fdE
	.p2align	4, 0x90
__ZN111_$LT$core..iter..adapters..zip..Zip$LT$A$C$B$GT$$u20$as$u20$core..iter..adapters..zip..ZipImpl$LT$A$C$B$GT$$GT$4next17h15738fa5b49057fdE:
Lfunc_begin11:
	.loc	2 269 0
	.cfi_startproc
	.cfi_personality 155, _rust_eh_personality
	.cfi_lsda 16, Lexception3
	pushq	%rbp
	.cfi_def_cfa_offset 16
	.cfi_offset %rbp, -16
	movq	%rsp, %rbp
	.cfi_def_cfa_register %rbp
	subq	$112, %rsp
	movq	%rdi, -88(%rbp)
	movq	%rdi, -40(%rbp)
Ltmp173:
	.loc	2 270 12 prologue_end
	movq	32(%rdi), %rax
	cmpq	40(%rdi), %rax
	jb	LBB11_2
	.loc	2 279 19
	xorl	%eax, %eax
	testb	$1, %al
	jne	LBB11_8
	jmp	LBB11_7
LBB11_2:
	.loc	2 0 19 is_stmt 0
	movq	-88(%rbp), %rdi
	.loc	2 271 21 is_stmt 1
	movq	32(%rdi), %rsi
	movq	%rsi, -112(%rbp)
	movq	%rsi, -32(%rbp)
Ltmp174:
	.loc	2 274 13
	movq	32(%rdi), %rax
	incq	%rax
	movq	%rax, 32(%rdi)
	.loc	2 277 23
	callq	__ZN91_$LT$core..slice..iter..Iter$LT$T$GT$$u20$as$u20$core..iter..traits..iterator..Iterator$GT$24__iterator_get_unchecked17hfa85c1fa951276edE
	movq	-88(%rbp), %rdi
	movq	-112(%rbp), %rsi
	movq	%rax, -104(%rbp)
	.loc	2 277 59 is_stmt 0
	addq	$16, %rdi
Ltmp170:
	callq	__ZN91_$LT$core..slice..iter..Iter$LT$T$GT$$u20$as$u20$core..iter..traits..iterator..Iterator$GT$24__iterator_get_unchecked17hfa85c1fa951276edE
Ltmp171:
	movq	%rax, -96(%rbp)
	jmp	LBB11_5
Ltmp175:
LBB11_3:
	.loc	2 269 5 is_stmt 1
	movq	-24(%rbp), %rdi
	callq	__Unwind_Resume
LBB11_4:
Ltmp172:
	.loc	2 0 5 is_stmt 0
	movq	%rax, %rcx
	movl	%edx, %eax
	movq	%rcx, -24(%rbp)
	movl	%eax, -16(%rbp)
	jmp	LBB11_3
LBB11_5:
	movq	-96(%rbp), %rax
	movq	-104(%rbp), %rcx
Ltmp176:
	.loc	2 277 22 is_stmt 1
	movq	%rcx, -64(%rbp)
	movq	%rax, -56(%rbp)
	.loc	2 277 17 is_stmt 0
	movq	-64(%rbp), %rcx
	movq	-56(%rbp), %rax
	movq	%rcx, -80(%rbp)
	movq	%rax, -72(%rbp)
Ltmp177:
LBB11_6:
	.loc	2 293 6 is_stmt 1
	movq	-80(%rbp), %rax
	movq	-72(%rbp), %rdx
	addq	$112, %rsp
	popq	%rbp
	retq
LBB11_7:
	.loc	2 279 19
	movb	$0, -41(%rbp)
	jmp	LBB11_9
LBB11_8:
	.loc	2 0 19 is_stmt 0
	movq	-88(%rbp), %rcx
	.loc	2 279 46
	movq	32(%rcx), %rax
	cmpq	48(%rcx), %rax
	setb	%al
	.loc	2 279 19
	andb	$1, %al
	movb	%al, -41(%rbp)
LBB11_9:
	testb	$1, -41(%rbp)
	jne	LBB11_11
	.loc	2 291 13 is_stmt 1
	movq	$0, -80(%rbp)
	.loc	2 279 16
	jmp	LBB11_12
LBB11_11:
	.loc	2 0 16 is_stmt 0
	movq	-88(%rbp), %rdi
	.loc	2 280 21 is_stmt 1
	movq	32(%rdi), %rsi
	movq	%rsi, -8(%rbp)
Ltmp178:
	.loc	2 282 13
	movq	32(%rdi), %rax
	addq	$1, %rax
	movq	%rax, 32(%rdi)
	.loc	2 283 13
	movq	40(%rdi), %rax
	addq	$1, %rax
	movq	%rax, 40(%rdi)
	.loc	2 287 17
	callq	__ZN91_$LT$core..slice..iter..Iter$LT$T$GT$$u20$as$u20$core..iter..traits..iterator..Iterator$GT$24__iterator_get_unchecked17hfa85c1fa951276edE
	.loc	2 289 13
	movq	$0, -80(%rbp)
Ltmp179:
LBB11_12:
	.loc	2 270 9
	jmp	LBB11_6
Ltmp180:
Lfunc_end11:
	.cfi_endproc
	.section	__TEXT,__gcc_except_tab
	.p2align	2
GCC_except_table11:
Lexception3:
	.byte	255
	.byte	255
	.byte	1
	.uleb128 Lcst_end3-Lcst_begin3
Lcst_begin3:
	.uleb128 Lfunc_begin11-Lfunc_begin11
	.uleb128 Ltmp170-Lfunc_begin11
	.byte	0
	.byte	0
	.uleb128 Ltmp170-Lfunc_begin11
	.uleb128 Ltmp171-Ltmp170
	.uleb128 Ltmp172-Lfunc_begin11
	.byte	0
	.uleb128 Ltmp171-Lfunc_begin11
	.uleb128 Lfunc_end11-Ltmp171
	.byte	0
	.byte	0
Lcst_end3:
	.p2align	2

	.section	__TEXT,__text,regular,pure_instructions
	.globl	__ZN153_$LT$core..result..Result$LT$T$C$F$GT$$u20$as$u20$core..ops..try_trait..FromResidual$LT$core..result..Result$LT$core..convert..Infallible$C$E$GT$$GT$$GT$13from_residual17h543b58e47ec540acE
	.p2align	4, 0x90
__ZN153_$LT$core..result..Result$LT$T$C$F$GT$$u20$as$u20$core..ops..try_trait..FromResidual$LT$core..result..Result$LT$core..convert..Infallible$C$E$GT$$GT$$GT$13from_residual17h543b58e47ec540acE:
Lfunc_begin12:
	.file	15 "/rustc/2c8cc343237b8f7d5a3c3703e3a87f2eb2c54a74/library/core/src" "result.rs"
	.loc	15 2105 0
	.cfi_startproc
	pushq	%rbp
	.cfi_def_cfa_offset 16
	.cfi_offset %rbp, -16
	movq	%rsp, %rbp
	.cfi_def_cfa_register %rbp
	subq	$24, %rsp
Ltmp181:
	.loc	15 2107 23 prologue_end
	movb	$1, -17(%rbp)
Ltmp182:
	.loc	15 2109 6
	movb	-17(%rbp), %al
	andb	$1, %al
	movzbl	%al, %eax
	addq	$24, %rsp
	popq	%rbp
	retq
Ltmp183:
Lfunc_end12:
	.cfi_endproc

	.globl	__ZN15core_foundation5array16CFArray$LT$T$GT$13get_unchecked17hc7640615ab0ce850E
	.p2align	4, 0x90
__ZN15core_foundation5array16CFArray$LT$T$GT$13get_unchecked17hc7640615ab0ce850E:
Lfunc_begin13:
	.loc	5 124 0
	.cfi_startproc
	pushq	%rbp
	.cfi_def_cfa_offset 16
	.cfi_offset %rbp, -16
	movq	%rsp, %rbp
	.cfi_def_cfa_register %rbp
	subq	$16, %rsp
	movq	%rdi, -16(%rbp)
	movq	%rsi, -8(%rbp)
Ltmp184:
	.loc	5 125 45 prologue_end
	movq	(%rdi), %rdi
	.loc	5 125 22 is_stmt 0
	callq	_CFArrayGetValueAtIndex
	movq	%rax, %rdi
	.loc	5 125 9
	callq	__ZN83_$LT$$BP$const$u20$core..ffi..c_void$u20$as$u20$core_foundation..base..FromVoid$GT$9from_void17h8dedd08d0a84e0c8E
	.loc	5 126 6 is_stmt 1
	addq	$16, %rsp
	popq	%rbp
	retq
Ltmp185:
Lfunc_end13:
	.cfi_endproc

	.globl	__ZN15core_foundation5array16CFArray$LT$T$GT$3len17h9413624b2fcb43aaE
	.p2align	4, 0x90
__ZN15core_foundation5array16CFArray$LT$T$GT$3len17h9413624b2fcb43aaE:
Lfunc_begin14:
	.loc	5 117 0
	.cfi_startproc
	pushq	%rbp
	.cfi_def_cfa_offset 16
	.cfi_offset %rbp, -16
	movq	%rsp, %rbp
	.cfi_def_cfa_register %rbp
	subq	$16, %rsp
	movq	%rdi, -8(%rbp)
Ltmp186:
	.loc	5 119 29 prologue_end
	movq	(%rdi), %rdi
	.loc	5 119 13 is_stmt 0
	callq	_CFArrayGetCount
	.loc	5 121 6 is_stmt 1
	addq	$16, %rsp
	popq	%rbp
	retq
Ltmp187:
Lfunc_end14:
	.cfi_endproc

	.globl	__ZN15core_foundation5array16CFArray$LT$T$GT$4iter17h005d08cf1df3bf3dE
	.p2align	4, 0x90
__ZN15core_foundation5array16CFArray$LT$T$GT$4iter17h005d08cf1df3bf3dE:
Lfunc_begin15:
	.loc	5 108 0
	.cfi_startproc
	pushq	%rbp
	.cfi_def_cfa_offset 16
	.cfi_offset %rbp, -16
	movq	%rsp, %rbp
	.cfi_def_cfa_register %rbp
	subq	$32, %rsp
	movq	%rsi, -32(%rbp)
	movq	%rdi, %rax
	movq	-32(%rbp), %rdi
	movq	%rax, -24(%rbp)
	movq	%rax, -16(%rbp)
	movq	%rdi, -8(%rbp)
Ltmp188:
	.loc	5 112 18 prologue_end
	callq	__ZN15core_foundation5array16CFArray$LT$T$GT$3len17h9413624b2fcb43aaE
	movq	-32(%rbp), %rsi
	movq	-24(%rbp), %rdi
	movq	%rax, %rcx
	movq	-16(%rbp), %rax
	.loc	5 109 9
	movq	%rsi, 16(%rdi)
	movq	$0, (%rdi)
	movq	%rcx, 8(%rdi)
	.loc	5 114 6
	addq	$32, %rsp
	popq	%rbp
	retq
Ltmp189:
Lfunc_end15:
	.cfi_endproc

	.globl	__ZN20foreign_types_shared14ForeignTypeRef6as_ptr17h42b32670a0e6e127E
	.p2align	4, 0x90
__ZN20foreign_types_shared14ForeignTypeRef6as_ptr17h42b32670a0e6e127E:
Lfunc_begin16:
	.file	16 "/Users/natalie/.cargo/registry/src/github.com-1ecc6299db9ec823/foreign-types-shared-0.1.1/src" "lib.rs"
	.loc	16 48 0
	.cfi_startproc
	pushq	%rbp
	.cfi_def_cfa_offset 16
	.cfi_offset %rbp, -16
	movq	%rsp, %rbp
	.cfi_def_cfa_register %rbp
	pushq	%rax
	movq	%rdi, %rax
	movq	%rax, -8(%rbp)
Ltmp190:
	.loc	16 50 6 prologue_end
	addq	$8, %rsp
	popq	%rbp
	retq
Ltmp191:
Lfunc_end16:
	.cfi_endproc

	.globl	__ZN20foreign_types_shared14ForeignTypeRef6as_ptr17h802a27de2430d6beE
	.p2align	4, 0x90
__ZN20foreign_types_shared14ForeignTypeRef6as_ptr17h802a27de2430d6beE:
Lfunc_begin17:
	.loc	16 48 0
	.cfi_startproc
	pushq	%rbp
	.cfi_def_cfa_offset 16
	.cfi_offset %rbp, -16
	movq	%rsp, %rbp
	.cfi_def_cfa_register %rbp
	pushq	%rax
	movq	%rdi, %rax
	movq	%rax, -8(%rbp)
Ltmp192:
	.loc	16 50 6 prologue_end
	addq	$8, %rsp
	popq	%rbp
	retq
Ltmp193:
Lfunc_end17:
	.cfi_endproc

	.globl	__ZN20foreign_types_shared14ForeignTypeRef6as_ptr17hd2fe3b524c58a1bcE
	.p2align	4, 0x90
__ZN20foreign_types_shared14ForeignTypeRef6as_ptr17hd2fe3b524c58a1bcE:
Lfunc_begin18:
	.loc	16 48 0
	.cfi_startproc
	pushq	%rbp
	.cfi_def_cfa_offset 16
	.cfi_offset %rbp, -16
	movq	%rsp, %rbp
	.cfi_def_cfa_register %rbp
	pushq	%rax
	movq	%rdi, %rax
	movq	%rax, -8(%rbp)
Ltmp194:
	.loc	16 50 6 prologue_end
	addq	$8, %rsp
	popq	%rbp
	retq
Ltmp195:
Lfunc_end18:
	.cfi_endproc

	.globl	__ZN20foreign_types_shared14ForeignTypeRef6as_ptr17hdf559e7a5f6738f5E
	.p2align	4, 0x90
__ZN20foreign_types_shared14ForeignTypeRef6as_ptr17hdf559e7a5f6738f5E:
Lfunc_begin19:
	.loc	16 48 0
	.cfi_startproc
	pushq	%rbp
	.cfi_def_cfa_offset 16
	.cfi_offset %rbp, -16
	movq	%rsp, %rbp
	.cfi_def_cfa_register %rbp
	pushq	%rax
	movq	%rdi, %rax
	movq	%rax, -8(%rbp)
Ltmp196:
	.loc	16 50 6 prologue_end
	addq	$8, %rsp
	popq	%rbp
	retq
Ltmp197:
Lfunc_end19:
	.cfi_endproc

	.globl	__ZN20foreign_types_shared14ForeignTypeRef8from_ptr17h0eb5099f43b05fd8E
	.p2align	4, 0x90
__ZN20foreign_types_shared14ForeignTypeRef8from_ptr17h0eb5099f43b05fd8E:
Lfunc_begin20:
	.loc	16 36 0
	.cfi_startproc
	pushq	%rbp
	.cfi_def_cfa_offset 16
	.cfi_offset %rbp, -16
	movq	%rsp, %rbp
	.cfi_def_cfa_register %rbp
	pushq	%rax
	movq	%rdi, %rax
	movq	%rax, -8(%rbp)
Ltmp198:
	.loc	16 38 6 prologue_end
	addq	$8, %rsp
	popq	%rbp
	retq
Ltmp199:
Lfunc_end20:
	.cfi_endproc

	.globl	__ZN20foreign_types_shared14ForeignTypeRef8from_ptr17h46dc22acf16b85a2E
	.p2align	4, 0x90
__ZN20foreign_types_shared14ForeignTypeRef8from_ptr17h46dc22acf16b85a2E:
Lfunc_begin21:
	.loc	16 36 0
	.cfi_startproc
	pushq	%rbp
	.cfi_def_cfa_offset 16
	.cfi_offset %rbp, -16
	movq	%rsp, %rbp
	.cfi_def_cfa_register %rbp
	pushq	%rax
	movq	%rdi, %rax
	movq	%rax, -8(%rbp)
Ltmp200:
	.loc	16 38 6 prologue_end
	addq	$8, %rsp
	popq	%rbp
	retq
Ltmp201:
Lfunc_end21:
	.cfi_endproc

	.globl	__ZN42_$LT$$RF$T$u20$as$u20$core..fmt..Debug$GT$3fmt17h7e3880e927e55855E
	.p2align	4, 0x90
__ZN42_$LT$$RF$T$u20$as$u20$core..fmt..Debug$GT$3fmt17h7e3880e927e55855E:
Lfunc_begin22:
	.file	17 "/rustc/2c8cc343237b8f7d5a3c3703e3a87f2eb2c54a74/library/core/src/fmt" "mod.rs"
	.loc	17 2377 0
	.cfi_startproc
	pushq	%rbp
	.cfi_def_cfa_offset 16
	.cfi_offset %rbp, -16
	movq	%rsp, %rbp
	.cfi_def_cfa_register %rbp
	subq	$16, %rsp
	movq	%rsi, %rdx
	movq	%rdi, %rax
	movq	%rax, -16(%rbp)
	movq	%rdx, -8(%rbp)
Ltmp202:
	.loc	17 2377 71 prologue_end
	movq	(%rax), %rdi
	movq	8(%rax), %rsi
	.loc	17 2377 62 is_stmt 0
	callq	__ZN48_$LT$$u5b$T$u5d$$u20$as$u20$core..fmt..Debug$GT$3fmt17ha9755f6d53fb49fcE
	.loc	17 2377 84
	andb	$1, %al
	movzbl	%al, %eax
	addq	$16, %rsp
	popq	%rbp
	retq
Ltmp203:
Lfunc_end22:
	.cfi_endproc

	.globl	__ZN42_$LT$$RF$T$u20$as$u20$core..fmt..Debug$GT$3fmt17hf3f9ae5ad72ab25eE
	.p2align	4, 0x90
__ZN42_$LT$$RF$T$u20$as$u20$core..fmt..Debug$GT$3fmt17hf3f9ae5ad72ab25eE:
Lfunc_begin23:
	.loc	17 2377 0 is_stmt 1
	.cfi_startproc
	pushq	%rbp
	.cfi_def_cfa_offset 16
	.cfi_offset %rbp, -16
	movq	%rsp, %rbp
	.cfi_def_cfa_register %rbp
	subq	$16, %rsp
	movq	%rdi, -16(%rbp)
	movq	%rsi, -8(%rbp)
Ltmp204:
	.loc	17 2377 71 prologue_end
	movq	(%rdi), %rdi
	.loc	17 2377 62 is_stmt 0
	callq	__ZN4core3fmt3num50_$LT$impl$u20$core..fmt..Debug$u20$for$u20$u32$GT$3fmt17hb89655bb37313349E
	.loc	17 2377 84
	andb	$1, %al
	movzbl	%al, %eax
	addq	$16, %rsp
	popq	%rbp
	retq
Ltmp205:
Lfunc_end23:
	.cfi_endproc

	.globl	__ZN48_$LT$$u5b$T$u5d$$u20$as$u20$core..fmt..Debug$GT$3fmt17ha9755f6d53fb49fcE
	.p2align	4, 0x90
__ZN48_$LT$$u5b$T$u5d$$u20$as$u20$core..fmt..Debug$GT$3fmt17ha9755f6d53fb49fcE:
Lfunc_begin24:
	.loc	17 2602 0 is_stmt 1
	.cfi_startproc
	pushq	%rbp
	.cfi_def_cfa_offset 16
	.cfi_offset %rbp, -16
	movq	%rsp, %rbp
	.cfi_def_cfa_register %rbp
	subq	$80, %rsp
	movq	%rdx, -80(%rbp)
	movq	%rsi, %rax
	movq	-80(%rbp), %rsi
	movq	%rdi, -72(%rbp)
	movq	%rax, -64(%rbp)
	movq	%rdi, -40(%rbp)
	movq	%rax, -32(%rbp)
	movq	%rsi, -24(%rbp)
Ltmp206:
	.loc	17 2603 9 prologue_end
	leaq	-56(%rbp), %rdi
	callq	__ZN4core3fmt9Formatter10debug_list17hc648f6f2ff865c45E
	movq	-72(%rbp), %rdi
	movq	-64(%rbp), %rsi
	.loc	17 2603 32 is_stmt 0
	movq	%rdi, -16(%rbp)
	movq	%rsi, -8(%rbp)
Ltmp207:
	.file	18 "/rustc/2c8cc343237b8f7d5a3c3703e3a87f2eb2c54a74/library/core/src/slice" "mod.rs"
	.loc	18 742 9 is_stmt 1
	callq	__ZN4core5slice4iter13Iter$LT$T$GT$3new17h26062b9cc666daffE
	movq	%rax, %rsi
Ltmp208:
	.loc	17 2603 9
	leaq	-56(%rbp), %rdi
	callq	__ZN4core3fmt8builders9DebugList7entries17h6cdb089699a076e5E
	movq	%rax, %rdi
	callq	__ZN4core3fmt8builders9DebugList6finish17hed399f470c25b4b2E
	.loc	17 2604 6
	andb	$1, %al
	movzbl	%al, %eax
	addq	$80, %rsp
	popq	%rbp
	retq
Ltmp209:
Lfunc_end24:
	.cfi_endproc

	.globl	__ZN4core3cmp3Ord3min17h486b5e43aa2483e7E
	.p2align	4, 0x90
__ZN4core3cmp3Ord3min17h486b5e43aa2483e7E:
Lfunc_begin25:
	.loc	9 826 0
	.cfi_startproc
	pushq	%rbp
	.cfi_def_cfa_offset 16
	.cfi_offset %rbp, -16
	movq	%rsp, %rbp
	.cfi_def_cfa_register %rbp
	subq	$16, %rsp
	movq	%rdi, -16(%rbp)
	movq	%rsi, -8(%rbp)
Ltmp210:
	.loc	9 833 13 prologue_end
	callq	__ZN4core3cmp6min_by17hf3fed446fb04512cE
	.loc	9 841 6
	addq	$16, %rsp
	popq	%rbp
	retq
Ltmp211:
Lfunc_end25:
	.cfi_endproc

	.globl	__ZN4core3cmp3min17h13362222adbe7f72E
	.p2align	4, 0x90
__ZN4core3cmp3min17h13362222adbe7f72E:
Lfunc_begin26:
	.loc	9 1184 0
	.cfi_startproc
	pushq	%rbp
	.cfi_def_cfa_offset 16
	.cfi_offset %rbp, -16
	movq	%rsp, %rbp
	.cfi_def_cfa_register %rbp
	subq	$16, %rsp
	movq	%rdi, -16(%rbp)
	movq	%rsi, -8(%rbp)
Ltmp212:
	.loc	9 1185 5 prologue_end
	callq	__ZN4core3cmp3Ord3min17h486b5e43aa2483e7E
	.loc	9 1186 2
	addq	$16, %rsp
	popq	%rbp
	retq
Ltmp213:
Lfunc_end26:
	.cfi_endproc

	.p2align	4, 0x90
__ZN4core3cmp5impls50_$LT$impl$u20$core..cmp..Ord$u20$for$u20$usize$GT$3cmp17h0fd44b15ec44d06bE:
Lfunc_begin27:
	.loc	9 1454 0
	.cfi_startproc
	pushq	%rbp
	.cfi_def_cfa_offset 16
	.cfi_offset %rbp, -16
	movq	%rsp, %rbp
	.cfi_def_cfa_register %rbp
	subq	$40, %rsp
	movq	%rdi, -40(%rbp)
	movq	%rsi, -32(%rbp)
	movq	%rdi, -16(%rbp)
	movq	%rsi, -8(%rbp)
Ltmp214:
	.loc	9 1457 24 prologue_end
	movq	(%rdi), %rax
	cmpq	(%rsi), %rax
	jb	LBB27_2
	.loc	9 0 24 is_stmt 0
	movq	-32(%rbp), %rcx
	movq	-40(%rbp), %rax
	.loc	9 1458 29 is_stmt 1
	movq	(%rax), %rax
	cmpq	(%rcx), %rax
	je	LBB27_5
	jmp	LBB27_4
LBB27_2:
	.loc	9 1457 41
	movb	$-1, -17(%rbp)
LBB27_3:
	.loc	9 1460 18
	movb	-17(%rbp), %al
	addq	$40, %rsp
	popq	%rbp
	retq
LBB27_4:
	.loc	9 1459 28
	movb	$1, -17(%rbp)
	.loc	9 1458 26
	jmp	LBB27_6
LBB27_5:
	.loc	9 1458 47 is_stmt 0
	movb	$0, -17(%rbp)
LBB27_6:
	.loc	9 1457 21 is_stmt 1
	jmp	LBB27_3
Ltmp215:
Lfunc_end27:
	.cfi_endproc

	.p2align	4, 0x90
__ZN4core3cmp5impls59_$LT$impl$u20$core..cmp..PartialEq$u20$for$u20$$LP$$RP$$GT$2eq17h6c90533e743acd44E:
Lfunc_begin28:
	.loc	9 1363 0
	.cfi_startproc
	pushq	%rbp
	.cfi_def_cfa_offset 16
	.cfi_offset %rbp, -16
	movq	%rsp, %rbp
	.cfi_def_cfa_register %rbp
	subq	$16, %rsp
	movq	%rdi, -16(%rbp)
	movq	%rsi, -8(%rbp)
Ltmp216:
	.loc	9 1365 10 prologue_end
	movb	$1, %al
	andb	$1, %al
	movzbl	%al, %eax
	addq	$16, %rsp
	popq	%rbp
	retq
Ltmp217:
Lfunc_end28:
	.cfi_endproc

	.globl	__ZN4core3cmp6min_by17hf3fed446fb04512cE
	.p2align	4, 0x90
__ZN4core3cmp6min_by17hf3fed446fb04512cE:
Lfunc_begin29:
	.loc	9 1204 0
	.cfi_startproc
	.cfi_personality 155, _rust_eh_personality
	.cfi_lsda 16, Lexception4
	pushq	%rbp
	.cfi_def_cfa_offset 16
	.cfi_offset %rbp, -16
	movq	%rsp, %rbp
	.cfi_def_cfa_register %rbp
	subq	$96, %rsp
	movq	%rdi, -80(%rbp)
	movq	%rsi, -72(%rbp)
Ltmp221:
	.loc	9 1209 11 prologue_end
	movb	$1, -25(%rbp)
	movb	$1, -26(%rbp)
	leaq	-80(%rbp), %rax
	movq	%rax, -48(%rbp)
	leaq	-72(%rbp), %rax
	movq	%rax, -40(%rbp)
	movq	-48(%rbp), %rdi
	movq	-40(%rbp), %rsi
Ltmp218:
	callq	__ZN4core3ops8function6FnOnce9call_once17h0e20cb12697d5726E
Ltmp219:
	movb	%al, -81(%rbp)
	jmp	LBB29_3
LBB29_1:
	.loc	9 1213 1
	jmp	LBB29_4
LBB29_2:
Ltmp220:
	.loc	9 0 1 is_stmt 0
	movq	%rax, %rcx
	movl	%edx, %eax
	movq	%rcx, -16(%rbp)
	movl	%eax, -8(%rbp)
	jmp	LBB29_1
LBB29_3:
	movb	-81(%rbp), %al
	.loc	9 1209 11 is_stmt 1
	movb	%al, -49(%rbp)
	movb	-49(%rbp), %al
	.loc	9 1209 5 is_stmt 0
	incb	%al
	subb	$2, %al
	jb	LBB29_6
	jmp	LBB29_15
LBB29_15:
	jmp	LBB29_7
LBB29_4:
	.loc	9 1213 1 is_stmt 1
	testb	$1, -25(%rbp)
	jne	LBB29_12
	jmp	LBB29_11
	.loc	9 1209 11
	ud2
LBB29_6:
	.loc	9 1210 45
	movb	$0, -25(%rbp)
	movq	-80(%rbp), %rax
	movq	%rax, -64(%rbp)
	jmp	LBB29_8
LBB29_7:
	.loc	9 1211 30
	movb	$0, -26(%rbp)
	movq	-72(%rbp), %rax
	movq	%rax, -64(%rbp)
LBB29_8:
	.loc	9 1213 1
	testb	$1, -26(%rbp)
	jne	LBB29_10
LBB29_9:
	testb	$1, -25(%rbp)
	jne	LBB29_14
	jmp	LBB29_13
LBB29_10:
	jmp	LBB29_9
LBB29_11:
	.loc	9 1204 1
	movq	-16(%rbp), %rdi
	callq	__Unwind_Resume
LBB29_12:
	.loc	9 1213 1
	jmp	LBB29_11
LBB29_13:
	.loc	9 1213 2 is_stmt 0
	movq	-64(%rbp), %rax
	addq	$96, %rsp
	popq	%rbp
	retq
LBB29_14:
	.loc	9 1213 1
	jmp	LBB29_13
Ltmp222:
Lfunc_end29:
	.cfi_endproc
	.section	__TEXT,__gcc_except_tab
	.p2align	2
GCC_except_table29:
Lexception4:
	.byte	255
	.byte	255
	.byte	1
	.uleb128 Lcst_end4-Lcst_begin4
Lcst_begin4:
	.uleb128 Ltmp218-Lfunc_begin29
	.uleb128 Ltmp219-Ltmp218
	.uleb128 Ltmp220-Lfunc_begin29
	.byte	0
	.uleb128 Ltmp219-Lfunc_begin29
	.uleb128 Lfunc_end29-Ltmp219
	.byte	0
	.byte	0
Lcst_end4:
	.p2align	2

	.section	__TEXT,__text,regular,pure_instructions
	.globl	__ZN4core3fmt10ArgumentV19new_debug17h06b680a0566466f6E
	.p2align	4, 0x90
__ZN4core3fmt10ArgumentV19new_debug17h06b680a0566466f6E:
Lfunc_begin30:
	.loc	17 327 0 is_stmt 1
	.cfi_startproc
	pushq	%rbp
	.cfi_def_cfa_offset 16
	.cfi_offset %rbp, -16
	movq	%rsp, %rbp
	.cfi_def_cfa_register %rbp
	subq	$56, %rsp
	movq	%rdi, -40(%rbp)
Ltmp223:
	.loc	17 328 23 prologue_end
	movq	%rdi, -32(%rbp)
	.loc	17 328 26 is_stmt 0
	leaq	__ZN75_$LT$core_graphics..path..CGPathElementType$u20$as$u20$core..fmt..Debug$GT$3fmt17h6f990b2391b94495E(%rip), %rax
	movq	%rax, -24(%rbp)
Ltmp224:
	.loc	17 347 42 is_stmt 1
	movq	%rax, -16(%rbp)
	movq	-16(%rbp), %rax
	.loc	17 347 68 is_stmt 0
	movq	%rdi, -8(%rbp)
	movq	-8(%rbp), %rcx
	.loc	17 347 18
	movq	%rcx, -56(%rbp)
	movq	%rax, -48(%rbp)
Ltmp225:
	.loc	17 329 10 is_stmt 1
	movq	-56(%rbp), %rax
	movq	-48(%rbp), %rdx
	addq	$56, %rsp
	popq	%rbp
	retq
Ltmp226:
Lfunc_end30:
	.cfi_endproc

	.globl	__ZN4core3fmt10ArgumentV19new_debug17h9cb3a150338cff8dE
	.p2align	4, 0x90
__ZN4core3fmt10ArgumentV19new_debug17h9cb3a150338cff8dE:
Lfunc_begin31:
	.loc	17 327 0
	.cfi_startproc
	pushq	%rbp
	.cfi_def_cfa_offset 16
	.cfi_offset %rbp, -16
	movq	%rsp, %rbp
	.cfi_def_cfa_register %rbp
	subq	$56, %rsp
	movq	%rdi, -40(%rbp)
Ltmp227:
	.loc	17 328 23 prologue_end
	movq	%rdi, -32(%rbp)
	.loc	17 328 26 is_stmt 0
	leaq	__ZN42_$LT$$RF$T$u20$as$u20$core..fmt..Debug$GT$3fmt17h7e3880e927e55855E(%rip), %rax
	movq	%rax, -24(%rbp)
Ltmp228:
	.loc	17 347 42 is_stmt 1
	movq	%rax, -16(%rbp)
	movq	-16(%rbp), %rax
	.loc	17 347 68 is_stmt 0
	movq	%rdi, -8(%rbp)
	movq	-8(%rbp), %rcx
	.loc	17 347 18
	movq	%rcx, -56(%rbp)
	movq	%rax, -48(%rbp)
Ltmp229:
	.loc	17 329 10 is_stmt 1
	movq	-56(%rbp), %rax
	movq	-48(%rbp), %rdx
	addq	$56, %rsp
	popq	%rbp
	retq
Ltmp230:
Lfunc_end31:
	.cfi_endproc

	.p2align	4, 0x90
__ZN4core3fmt3num50_$LT$impl$u20$core..fmt..Debug$u20$for$u20$u32$GT$3fmt17hb89655bb37313349E:
Lfunc_begin32:
	.file	19 "/rustc/2c8cc343237b8f7d5a3c3703e3a87f2eb2c54a74/library/core/src/fmt" "num.rs"
	.loc	19 185 0
	.cfi_startproc
	pushq	%rbp
	.cfi_def_cfa_offset 16
	.cfi_offset %rbp, -16
	movq	%rsp, %rbp
	.cfi_def_cfa_register %rbp
	subq	$48, %rsp
	movq	%rsi, -48(%rbp)
	movq	%rdi, %rax
	movq	-48(%rbp), %rdi
	movq	%rax, -40(%rbp)
	movq	%rdi, -32(%rbp)
	movq	%rax, -16(%rbp)
	movq	%rdi, -8(%rbp)
Ltmp231:
	.loc	19 186 20 prologue_end
	callq	__ZN4core3fmt9Formatter15debug_lower_hex17h0921e6b9188d914eE
	testb	$1, %al
	jne	LBB32_2
	.loc	19 0 20 is_stmt 0
	movq	-32(%rbp), %rdi
	.loc	19 188 27 is_stmt 1
	callq	__ZN4core3fmt9Formatter15debug_upper_hex17h8ce487049a6cccf8E
	testb	$1, %al
	jne	LBB32_5
	jmp	LBB32_4
LBB32_2:
	.loc	19 0 27 is_stmt 0
	movq	-32(%rbp), %rsi
	movq	-40(%rbp), %rdi
	.loc	19 187 21 is_stmt 1
	callq	__ZN4core3fmt3num53_$LT$impl$u20$core..fmt..LowerHex$u20$for$u20$u32$GT$3fmt17h794cf20b87700632E
	andb	$1, %al
	movb	%al, -17(%rbp)
LBB32_3:
	.loc	19 193 14
	movb	-17(%rbp), %al
	andb	$1, %al
	movzbl	%al, %eax
	addq	$48, %rsp
	popq	%rbp
	retq
LBB32_4:
	.loc	19 0 14 is_stmt 0
	movq	-32(%rbp), %rsi
	movq	-40(%rbp), %rdi
	.loc	19 191 21 is_stmt 1
	callq	__ZN4core3fmt3num3imp52_$LT$impl$u20$core..fmt..Display$u20$for$u20$u32$GT$3fmt17h081c917b2ee7d4e9E
	andb	$1, %al
	movb	%al, -17(%rbp)
	.loc	19 188 24
	jmp	LBB32_6
LBB32_5:
	.loc	19 0 24 is_stmt 0
	movq	-32(%rbp), %rsi
	movq	-40(%rbp), %rdi
	.loc	19 189 21 is_stmt 1
	callq	__ZN4core3fmt3num53_$LT$impl$u20$core..fmt..UpperHex$u20$for$u20$u32$GT$3fmt17ha96bbefe8f663d11E
	andb	$1, %al
	movb	%al, -17(%rbp)
LBB32_6:
	.loc	19 186 17
	jmp	LBB32_3
Ltmp232:
Lfunc_end32:
	.cfi_endproc

	.globl	__ZN4core3fmt8builders9DebugList7entries17h6cdb089699a076e5E
	.p2align	4, 0x90
__ZN4core3fmt8builders9DebugList7entries17h6cdb089699a076e5E:
Lfunc_begin33:
	.file	20 "/rustc/2c8cc343237b8f7d5a3c3703e3a87f2eb2c54a74/library/core/src/fmt" "builders.rs"
	.loc	20 627 0
	.cfi_startproc
	.cfi_personality 155, _rust_eh_personality
	.cfi_lsda 16, Lexception5
	pushq	%rbp
	.cfi_def_cfa_offset 16
	.cfi_offset %rbp, -16
	movq	%rsp, %rbp
	.cfi_def_cfa_register %rbp
	subq	$112, %rsp
	movq	%rdx, -96(%rbp)
	movq	%rsi, %rax
	movq	-96(%rbp), %rsi
	movq	%rax, -88(%rbp)
	movq	%rdi, %rax
	movq	-88(%rbp), %rdi
	movq	%rax, -80(%rbp)
	movq	%rax, -40(%rbp)
	movq	%rdi, -32(%rbp)
	movq	%rsi, -24(%rbp)
Ltmp239:
	.loc	20 632 22 prologue_end
	callq	__ZN63_$LT$I$u20$as$u20$core..iter..traits..collect..IntoIterator$GT$9into_iter17h5f0200964ff5671bE
	movq	%rax, -72(%rbp)
	movq	%rdx, -64(%rbp)
LBB33_1:
Ltmp233:
	.loc	20 0 22 is_stmt 0
	leaq	-72(%rbp), %rdi
Ltmp240:
	.loc	20 632 22
	callq	__ZN91_$LT$core..slice..iter..Iter$LT$T$GT$$u20$as$u20$core..iter..traits..iterator..Iterator$GT$4next17h1d941ba7d54c1910E
Ltmp234:
	movq	%rax, -104(%rbp)
	jmp	LBB33_4
Ltmp241:
LBB33_2:
	.loc	20 627 5 is_stmt 1
	movq	-16(%rbp), %rdi
	callq	__Unwind_Resume
LBB33_3:
Ltmp235:
	.loc	20 0 5 is_stmt 0
	movq	%rax, %rcx
	movl	%edx, %eax
	movq	%rcx, -16(%rbp)
	movl	%eax, -8(%rbp)
	jmp	LBB33_2
LBB33_4:
	movq	-104(%rbp), %rax
Ltmp242:
	.loc	20 632 22 is_stmt 1
	movq	%rax, -56(%rbp)
	movq	-56(%rbp), %rdx
	movl	$1, %eax
	xorl	%ecx, %ecx
	cmpq	$0, %rdx
	cmoveq	%rcx, %rax
	cmpq	$0, %rax
	jne	LBB33_6
Ltmp243:
	.loc	20 0 22 is_stmt 0
	movq	-80(%rbp), %rax
	.loc	20 636 6 is_stmt 1
	addq	$112, %rsp
	popq	%rbp
	retq
LBB33_6:
	.loc	20 0 6 is_stmt 0
	movq	-80(%rbp), %rdi
Ltmp244:
	.loc	20 632 13 is_stmt 1
	movq	-56(%rbp), %rax
	movq	%rax, -48(%rbp)
Ltmp236:
Ltmp245:
	.loc	20 633 13
	leaq	l___unnamed_1(%rip), %rdx
	leaq	-48(%rbp), %rsi
	callq	__ZN4core3fmt8builders9DebugList5entry17h90e9fab3d6cede22E
Ltmp237:
	jmp	LBB33_9
Ltmp246:
LBB33_7:
	.loc	20 634 9
	jmp	LBB33_2
LBB33_8:
Ltmp238:
	.loc	20 0 9 is_stmt 0
	movq	%rax, %rcx
	movl	%edx, %eax
	movq	%rcx, -16(%rbp)
	movl	%eax, -8(%rbp)
	jmp	LBB33_7
LBB33_9:
	.loc	20 634 9
	jmp	LBB33_10
LBB33_10:
	.loc	20 632 9 is_stmt 1
	jmp	LBB33_1
Ltmp247:
Lfunc_end33:
	.cfi_endproc
	.section	__TEXT,__gcc_except_tab
	.p2align	2
GCC_except_table33:
Lexception5:
	.byte	255
	.byte	255
	.byte	1
	.uleb128 Lcst_end5-Lcst_begin5
Lcst_begin5:
	.uleb128 Lfunc_begin33-Lfunc_begin33
	.uleb128 Ltmp233-Lfunc_begin33
	.byte	0
	.byte	0
	.uleb128 Ltmp233-Lfunc_begin33
	.uleb128 Ltmp234-Ltmp233
	.uleb128 Ltmp235-Lfunc_begin33
	.byte	0
	.uleb128 Ltmp234-Lfunc_begin33
	.uleb128 Ltmp236-Ltmp234
	.byte	0
	.byte	0
	.uleb128 Ltmp236-Lfunc_begin33
	.uleb128 Ltmp237-Ltmp236
	.uleb128 Ltmp238-Lfunc_begin33
	.byte	0
Lcst_end5:
	.p2align	2

	.section	__TEXT,__text,regular,pure_instructions
	.p2align	4, 0x90
__ZN4core3fmt9Arguments6new_v117h4ad6eb082ef9eaabE:
Lfunc_begin34:
	.loc	17 399 0
	.cfi_startproc
	pushq	%rbp
	.cfi_def_cfa_offset 16
	.cfi_offset %rbp, -16
	movq	%rsp, %rbp
	.cfi_def_cfa_register %rbp
	subq	$160, %rsp
	movq	%r8, -152(%rbp)
	movq	%rcx, -144(%rbp)
	movq	%rdx, -136(%rbp)
	movq	%rsi, -128(%rbp)
	movq	%rdi, -120(%rbp)
	movq	%rdi, -112(%rbp)
	movq	%rsi, -32(%rbp)
	movq	%rdx, -24(%rbp)
	movq	%rcx, -16(%rbp)
	movq	%r8, -8(%rbp)
Ltmp248:
	.loc	17 400 12 prologue_end
	cmpq	%r8, %rdx
	jb	LBB34_2
	.loc	17 0 12 is_stmt 0
	movq	-136(%rbp), %rax
	movq	-152(%rbp), %rcx
	.loc	17 400 56
	addq	$1, %rcx
	.loc	17 400 41
	cmpq	%rcx, %rax
	seta	%al
	.loc	17 400 12
	andb	$1, %al
	movb	%al, -97(%rbp)
	jmp	LBB34_3
LBB34_2:
	movb	$1, -97(%rbp)
LBB34_3:
	testb	$1, -97(%rbp)
	jne	LBB34_5
	.loc	17 0 12
	movq	-112(%rbp), %rax
	movq	-120(%rbp), %rcx
	movq	-152(%rbp), %rdx
	movq	-144(%rbp), %rsi
	movq	-136(%rbp), %rdi
	movq	-128(%rbp), %r8
	.loc	17 403 34 is_stmt 1
	movq	$0, -48(%rbp)
	.loc	17 403 9 is_stmt 0
	movq	%r8, 16(%rcx)
	movq	%rdi, 24(%rcx)
	movq	-48(%rbp), %r8
	movq	-40(%rbp), %rdi
	movq	%r8, (%rcx)
	movq	%rdi, 8(%rcx)
	movq	%rsi, 32(%rcx)
	movq	%rdx, 40(%rcx)
	.loc	17 404 6 is_stmt 1
	addq	$160, %rsp
	popq	%rbp
	retq
LBB34_5:
	.loc	17 401 13
	leaq	l___unnamed_8(%rip), %rsi
	leaq	l___unnamed_9(%rip), %rcx
	xorl	%eax, %eax
	movl	%eax, %r8d
	leaq	-96(%rbp), %rdi
	movq	%rdi, -160(%rbp)
	movl	$1, %edx
	callq	__ZN4core3fmt9Arguments6new_v117h4ad6eb082ef9eaabE
	movq	-160(%rbp), %rdi
	leaq	l___unnamed_10(%rip), %rsi
	callq	__ZN4core9panicking9panic_fmt17h9b5d807e24bcaaedE
Ltmp249:
Lfunc_end34:
	.cfi_endproc

	.globl	__ZN4core3mem4drop17h8fe4c42f8184b396E
	.p2align	4, 0x90
__ZN4core3mem4drop17h8fe4c42f8184b396E:
Lfunc_begin35:
	.file	21 "/rustc/2c8cc343237b8f7d5a3c3703e3a87f2eb2c54a74/library/core/src/mem" "mod.rs"
	.loc	21 980 0
	.cfi_startproc
	pushq	%rbp
	.cfi_def_cfa_offset 16
	.cfi_offset %rbp, -16
	movq	%rsp, %rbp
	.cfi_def_cfa_register %rbp
	subq	$16, %rsp
	movq	%rdi, -8(%rbp)
Ltmp250:
	.loc	21 980 24 prologue_end
	leaq	-8(%rbp), %rdi
	callq	__ZN4core3ptr119drop_in_place$LT$alloc..boxed..Box$LT$alloc..boxed..Box$LT$dyn$u20$core_graphics..data_provider..CustomData$GT$$GT$$GT$17h4e02d18ec87836d6E
	.loc	21 980 25 is_stmt 0
	addq	$16, %rsp
	popq	%rbp
	retq
Ltmp251:
Lfunc_end35:
	.cfi_endproc

	.p2align	4, 0x90
__ZN4core3num20_$LT$impl$u20$u8$GT$20eq_ignore_ascii_case17h8a4f613ae507fab4E:
Lfunc_begin36:
	.file	22 "/rustc/2c8cc343237b8f7d5a3c3703e3a87f2eb2c54a74/library/core/src/num" "mod.rs"
	.loc	22 399 0 is_stmt 1
	.cfi_startproc
	pushq	%rbp
	.cfi_def_cfa_offset 16
	.cfi_offset %rbp, -16
	movq	%rsp, %rbp
	.cfi_def_cfa_register %rbp
	subq	$80, %rsp
	movq	%rdi, -72(%rbp)
	movq	%rsi, -64(%rbp)
	movq	%rdi, -48(%rbp)
	movq	%rsi, -40(%rbp)
Ltmp252:
	.loc	22 400 9 prologue_end
	movq	%rdi, -32(%rbp)
Ltmp253:
	.loc	22 375 9
	movb	(%rdi), %al
	movb	%al, -51(%rbp)
	.loc	22 375 18 is_stmt 0
	movq	%rdi, -24(%rbp)
Ltmp254:
	.loc	22 520 25 is_stmt 1
	movb	$65, %al
	cmpb	(%rdi), %al
	jbe	LBB36_2
LBB36_1:
	.file	23 "/rustc/2c8cc343237b8f7d5a3c3703e3a87f2eb2c54a74/library/core/src/macros" "mod.rs"
	.loc	23 346 18
	movb	$0, -50(%rbp)
	jmp	LBB36_4
LBB36_2:
	.loc	23 0 18 is_stmt 0
	movq	-72(%rbp), %rax
	.loc	22 520 25 is_stmt 1
	cmpb	$90, (%rax)
	ja	LBB36_1
	.loc	23 345 48
	movb	$1, -50(%rbp)
Ltmp255:
LBB36_4:
	.loc	23 0 48 is_stmt 0
	movq	-64(%rbp), %rcx
	movb	-51(%rbp), %al
	.loc	22 375 18 is_stmt 1
	movb	-50(%rbp), %dl
	andb	$1, %dl
	.loc	22 375 17 is_stmt 0
	shlb	$5, %dl
	.loc	22 375 9
	orb	%dl, %al
	movb	%al, -74(%rbp)
Ltmp256:
	.loc	22 400 38 is_stmt 1
	movq	%rcx, -16(%rbp)
Ltmp257:
	.loc	22 375 9
	movb	(%rcx), %al
	movb	%al, -73(%rbp)
	.loc	22 375 18 is_stmt 0
	movq	%rcx, -8(%rbp)
Ltmp258:
	.loc	22 520 25 is_stmt 1
	movb	$65, %al
	cmpb	(%rcx), %al
	jbe	LBB36_6
LBB36_5:
	.loc	23 346 18
	movb	$0, -49(%rbp)
	jmp	LBB36_8
LBB36_6:
	.loc	23 0 18 is_stmt 0
	movq	-64(%rbp), %rax
	.loc	22 520 25 is_stmt 1
	cmpb	$90, (%rax)
	ja	LBB36_5
	.loc	23 345 48
	movb	$1, -49(%rbp)
Ltmp259:
LBB36_8:
	.loc	23 0 48 is_stmt 0
	movb	-74(%rbp), %al
	movb	-73(%rbp), %cl
	.loc	22 375 18 is_stmt 1
	movb	-49(%rbp), %dl
	andb	$1, %dl
	.loc	22 375 17 is_stmt 0
	shlb	$5, %dl
	.loc	22 375 9
	orb	%dl, %cl
Ltmp260:
	.loc	22 400 9 is_stmt 1
	cmpb	%cl, %al
	sete	%al
	.loc	22 401 6
	andb	$1, %al
	movzbl	%al, %eax
	addq	$80, %rsp
	popq	%rbp
	retq
Ltmp261:
Lfunc_end36:
	.cfi_endproc

	.p2align	4, 0x90
__ZN4core3num23_$LT$impl$u20$usize$GT$11checked_add17h917116482874df92E:
Lfunc_begin37:
	.loc	8 442 0
	.cfi_startproc
	pushq	%rbp
	.cfi_def_cfa_offset 16
	.cfi_offset %rbp, -16
	movq	%rsp, %rbp
	.cfi_def_cfa_register %rbp
	subq	$120, %rsp
	movq	%rdi, -80(%rbp)
	movq	%rsi, -72(%rbp)
Ltmp262:
	.loc	8 443 26 prologue_end
	movq	%rdi, -64(%rbp)
	.loc	8 443 47 is_stmt 0
	movq	%rsi, -56(%rbp)
Ltmp263:
	.loc	8 1479 26 is_stmt 1
	addq	%rsi, %rdi
	setb	%al
	andb	$1, %al
	movq	%rdi, -48(%rbp)
	movb	%al, -40(%rbp)
	movq	-48(%rbp), %rcx
	movb	-40(%rbp), %al
	.loc	8 1479 18 is_stmt 0
	movq	%rcx, -32(%rbp)
	.loc	8 1479 21
	movb	%al, %dl
	andb	$1, %dl
	movb	%dl, -17(%rbp)
Ltmp264:
	.loc	8 1480 13 is_stmt 1
	movq	%rcx, -96(%rbp)
	andb	$1, %al
	movb	%al, -88(%rbp)
Ltmp265:
	.loc	8 443 18
	movq	-96(%rbp), %rax
	movq	%rax, -120(%rbp)
	movq	%rax, -16(%rbp)
	.loc	8 443 21 is_stmt 0
	movb	-88(%rbp), %al
	movb	%al, %cl
	andb	$1, %cl
	movb	%cl, -2(%rbp)
Ltmp266:
	.loc	8 444 16 is_stmt 1
	andb	$1, %al
	movb	%al, -1(%rbp)
	testb	$1, -1(%rbp)
	jne	LBB37_2
	.loc	8 0 16 is_stmt 0
	movq	-120(%rbp), %rax
	.loc	8 444 42
	movq	%rax, -104(%rbp)
	movq	$1, -112(%rbp)
	.loc	8 444 13
	jmp	LBB37_3
LBB37_2:
	.loc	8 444 30
	movq	$0, -112(%rbp)
Ltmp267:
LBB37_3:
	.loc	8 445 10 is_stmt 1
	movq	-112(%rbp), %rax
	movq	-104(%rbp), %rdx
	addq	$120, %rsp
	popq	%rbp
	retq
Ltmp268:
Lfunc_end37:
	.cfi_endproc

	.p2align	4, 0x90
__ZN4core3num23_$LT$impl$u20$usize$GT$11checked_mul17h07d0d8d786f4e9b6E:
Lfunc_begin38:
	.loc	8 558 0
	.cfi_startproc
	pushq	%rbp
	.cfi_def_cfa_offset 16
	.cfi_offset %rbp, -16
	movq	%rsp, %rbp
	.cfi_def_cfa_register %rbp
	subq	$120, %rsp
	movq	%rdi, %rax
	movq	%rax, -80(%rbp)
	movq	%rsi, -72(%rbp)
Ltmp269:
	.loc	8 559 26 prologue_end
	movq	%rax, -64(%rbp)
	.loc	8 559 47 is_stmt 0
	movq	%rsi, -56(%rbp)
Ltmp270:
	.loc	8 1677 26 is_stmt 1
	mulq	%rsi
	movq	%rax, %rcx
	seto	%al
	andb	$1, %al
	movq	%rcx, -48(%rbp)
	movb	%al, -40(%rbp)
	movq	-48(%rbp), %rcx
	movb	-40(%rbp), %al
	.loc	8 1677 18 is_stmt 0
	movq	%rcx, -32(%rbp)
	.loc	8 1677 21
	movb	%al, %dl
	andb	$1, %dl
	movb	%dl, -17(%rbp)
Ltmp271:
	.loc	8 1678 13 is_stmt 1
	movq	%rcx, -96(%rbp)
	andb	$1, %al
	movb	%al, -88(%rbp)
Ltmp272:
	.loc	8 559 18
	movq	-96(%rbp), %rax
	movq	%rax, -120(%rbp)
	movq	%rax, -16(%rbp)
	.loc	8 559 21 is_stmt 0
	movb	-88(%rbp), %al
	movb	%al, %cl
	andb	$1, %cl
	movb	%cl, -2(%rbp)
Ltmp273:
	.loc	8 560 16 is_stmt 1
	andb	$1, %al
	movb	%al, -1(%rbp)
	testb	$1, -1(%rbp)
	jne	LBB38_2
	.loc	8 0 16 is_stmt 0
	movq	-120(%rbp), %rax
	.loc	8 560 42
	movq	%rax, -104(%rbp)
	movq	$1, -112(%rbp)
	.loc	8 560 13
	jmp	LBB38_3
LBB38_2:
	.loc	8 560 30
	movq	$0, -112(%rbp)
Ltmp274:
LBB38_3:
	.loc	8 561 10 is_stmt 1
	movq	-112(%rbp), %rax
	movq	-104(%rbp), %rdx
	addq	$120, %rsp
	popq	%rbp
	retq
Ltmp275:
Lfunc_end38:
	.cfi_endproc

	.globl	__ZN4core3ops8function5impls80_$LT$impl$u20$core..ops..function..FnOnce$LT$A$GT$$u20$for$u20$$RF$mut$u20$F$GT$9call_once17heb424337f2c905adE
	.p2align	4, 0x90
__ZN4core3ops8function5impls80_$LT$impl$u20$core..ops..function..FnOnce$LT$A$GT$$u20$for$u20$$RF$mut$u20$F$GT$9call_once17heb424337f2c905adE:
Lfunc_begin39:
	.file	24 "/rustc/2c8cc343237b8f7d5a3c3703e3a87f2eb2c54a74/library/core/src/ops" "function.rs"
	.loc	24 309 0
	.cfi_startproc
	pushq	%rbp
	.cfi_def_cfa_offset 16
	.cfi_offset %rbp, -16
	movq	%rsp, %rbp
	.cfi_def_cfa_register %rbp
	subq	$16, %rsp
	movq	%rsi, -16(%rbp)
	movq	%rdi, -8(%rbp)
Ltmp276:
	.loc	24 310 30 prologue_end
	movq	-16(%rbp), %rsi
	.loc	24 310 13 is_stmt 0
	callq	__ZN13core_graphics7display13CGDisplayMode17all_display_modes28_$u7b$$u7b$closure$u7d$$u7d$17hee84e09b7a2182ecE
	.loc	24 311 10 is_stmt 1
	addq	$16, %rsp
	popq	%rbp
	retq
Ltmp277:
Lfunc_end39:
	.cfi_endproc

	.p2align	4, 0x90
__ZN4core3ops8function6FnOnce9call_once17h0e20cb12697d5726E:
Lfunc_begin40:
	.loc	24 250 0
	.cfi_startproc
	pushq	%rbp
	.cfi_def_cfa_offset 16
	.cfi_offset %rbp, -16
	movq	%rsp, %rbp
	.cfi_def_cfa_register %rbp
	subq	$32, %rsp
	movq	%rdi, -24(%rbp)
	movq	%rsi, -16(%rbp)
Ltmp278:
	.loc	24 250 5 prologue_end
	movq	-24(%rbp), %rdi
	movq	-16(%rbp), %rsi
	callq	__ZN4core3cmp5impls50_$LT$impl$u20$core..cmp..Ord$u20$for$u20$usize$GT$3cmp17h0fd44b15ec44d06bE
	addq	$32, %rsp
	popq	%rbp
	retq
Ltmp279:
Lfunc_end40:
	.cfi_endproc

	.globl	__ZN4core3ptr119drop_in_place$LT$alloc..boxed..Box$LT$alloc..boxed..Box$LT$dyn$u20$core_graphics..data_provider..CustomData$GT$$GT$$GT$17h4e02d18ec87836d6E
	.p2align	4, 0x90
__ZN4core3ptr119drop_in_place$LT$alloc..boxed..Box$LT$alloc..boxed..Box$LT$dyn$u20$core_graphics..data_provider..CustomData$GT$$GT$$GT$17h4e02d18ec87836d6E:
Lfunc_begin41:
	.loc	14 490 0
	.cfi_startproc
	.cfi_personality 155, _rust_eh_personality
	.cfi_lsda 16, Lexception6
	pushq	%rbp
	.cfi_def_cfa_offset 16
	.cfi_offset %rbp, -16
	movq	%rsp, %rbp
	.cfi_def_cfa_register %rbp
	subq	$32, %rsp
	movq	%rdi, -32(%rbp)
	movq	%rdi, -24(%rbp)
Ltmp286:
	.loc	14 490 1 prologue_end
	movq	(%rdi), %rdi
Ltmp280:
	callq	__ZN4core3ptr94drop_in_place$LT$alloc..boxed..Box$LT$dyn$u20$core_graphics..data_provider..CustomData$GT$$GT$17h2f3adabb8408faabE
Ltmp281:
	jmp	LBB41_3
LBB41_1:
	.loc	14 0 1 is_stmt 0
	movq	-32(%rbp), %rax
	.loc	14 490 1
	movq	(%rax), %rdi
Ltmp283:
	callq	__ZN5alloc5alloc8box_free17h14964b25e5c88972E
Ltmp284:
	jmp	LBB41_5
LBB41_2:
Ltmp282:
	.loc	14 0 1
	movq	%rax, %rcx
	movl	%edx, %eax
	movq	%rcx, -16(%rbp)
	movl	%eax, -8(%rbp)
	jmp	LBB41_1
LBB41_3:
	movq	-32(%rbp), %rax
	.loc	14 490 1
	movq	(%rax), %rdi
	callq	__ZN5alloc5alloc8box_free17h14964b25e5c88972E
	addq	$32, %rsp
	popq	%rbp
	retq
LBB41_4:
Ltmp285:
	callq	__ZN4core9panicking19panic_cannot_unwind17h1fbca7e1d7f56ae1E
LBB41_5:
	movq	-16(%rbp), %rdi
	callq	__Unwind_Resume
Ltmp287:
Lfunc_end41:
	.cfi_endproc
	.section	__TEXT,__gcc_except_tab
	.p2align	2
GCC_except_table41:
Lexception6:
	.byte	255
	.byte	255
	.byte	1
	.uleb128 Lcst_end6-Lcst_begin6
Lcst_begin6:
	.uleb128 Ltmp280-Lfunc_begin41
	.uleb128 Ltmp281-Ltmp280
	.uleb128 Ltmp282-Lfunc_begin41
	.byte	0
	.uleb128 Ltmp283-Lfunc_begin41
	.uleb128 Ltmp284-Ltmp283
	.uleb128 Ltmp285-Lfunc_begin41
	.byte	0
	.uleb128 Ltmp284-Lfunc_begin41
	.uleb128 Lfunc_end41-Ltmp284
	.byte	0
	.byte	0
Lcst_end6:
	.p2align	2

	.section	__TEXT,__text,regular,pure_instructions
	.p2align	4, 0x90
__ZN4core3ptr28drop_in_place$LT$$RF$u32$GT$17h46843d6461903351E:
Lfunc_begin42:
	.loc	14 490 0 is_stmt 1
	.cfi_startproc
	pushq	%rbp
	.cfi_def_cfa_offset 16
	.cfi_offset %rbp, -16
	movq	%rsp, %rbp
	.cfi_def_cfa_register %rbp
	pushq	%rax
	movq	%rdi, -8(%rbp)
Ltmp288:
	.loc	14 490 1 prologue_end
	addq	$8, %rsp
	popq	%rbp
	retq
Ltmp289:
Lfunc_end42:
	.cfi_endproc

	.globl	__ZN4core3ptr47drop_in_place$LT$alloc..vec..Vec$LT$u16$GT$$GT$17h3a7a2b3c27178300E
	.p2align	4, 0x90
__ZN4core3ptr47drop_in_place$LT$alloc..vec..Vec$LT$u16$GT$$GT$17h3a7a2b3c27178300E:
Lfunc_begin43:
	.loc	14 490 0
	.cfi_startproc
	.cfi_personality 155, _rust_eh_personality
	.cfi_lsda 16, Lexception7
	pushq	%rbp
	.cfi_def_cfa_offset 16
	.cfi_offset %rbp, -16
	movq	%rsp, %rbp
	.cfi_def_cfa_register %rbp
	subq	$32, %rsp
	movq	%rdi, -32(%rbp)
	movq	%rdi, -24(%rbp)
Ltmp290:
Ltmp296:
	.loc	14 490 1 prologue_end
	callq	__ZN70_$LT$alloc..vec..Vec$LT$T$C$A$GT$$u20$as$u20$core..ops..drop..Drop$GT$4drop17h7d54d1177fc09c07E
Ltmp291:
	jmp	LBB43_3
LBB43_1:
Ltmp293:
	.loc	14 0 1 is_stmt 0
	movq	-32(%rbp), %rdi
	.loc	14 490 1
	callq	__ZN4core3ptr54drop_in_place$LT$alloc..raw_vec..RawVec$LT$u16$GT$$GT$17h8b8bb79800a5e7d3E
Ltmp294:
	jmp	LBB43_5
LBB43_2:
Ltmp292:
	.loc	14 0 1
	movq	%rax, %rcx
	movl	%edx, %eax
	movq	%rcx, -16(%rbp)
	movl	%eax, -8(%rbp)
	jmp	LBB43_1
LBB43_3:
	movq	-32(%rbp), %rdi
	.loc	14 490 1
	callq	__ZN4core3ptr54drop_in_place$LT$alloc..raw_vec..RawVec$LT$u16$GT$$GT$17h8b8bb79800a5e7d3E
	addq	$32, %rsp
	popq	%rbp
	retq
LBB43_4:
Ltmp295:
	callq	__ZN4core9panicking19panic_cannot_unwind17h1fbca7e1d7f56ae1E
LBB43_5:
	movq	-16(%rbp), %rdi
	callq	__Unwind_Resume
Ltmp297:
Lfunc_end43:
	.cfi_endproc
	.section	__TEXT,__gcc_except_tab
	.p2align	2
GCC_except_table43:
Lexception7:
	.byte	255
	.byte	255
	.byte	1
	.uleb128 Lcst_end7-Lcst_begin7
Lcst_begin7:
	.uleb128 Ltmp290-Lfunc_begin43
	.uleb128 Ltmp291-Ltmp290
	.uleb128 Ltmp292-Lfunc_begin43
	.byte	0
	.uleb128 Ltmp293-Lfunc_begin43
	.uleb128 Ltmp294-Ltmp293
	.uleb128 Ltmp295-Lfunc_begin43
	.byte	0
	.uleb128 Ltmp294-Lfunc_begin43
	.uleb128 Lfunc_end43-Ltmp294
	.byte	0
	.byte	0
Lcst_end7:
	.p2align	2

	.section	__TEXT,__text,regular,pure_instructions
	.globl	__ZN4core3ptr50drop_in_place$LT$core_graphics..event..CGEvent$GT$17h53b92148ce46356eE
	.p2align	4, 0x90
__ZN4core3ptr50drop_in_place$LT$core_graphics..event..CGEvent$GT$17h53b92148ce46356eE:
Lfunc_begin44:
	.loc	14 490 0 is_stmt 1
	.cfi_startproc
	pushq	%rbp
	.cfi_def_cfa_offset 16
	.cfi_offset %rbp, -16
	movq	%rsp, %rbp
	.cfi_def_cfa_register %rbp
	subq	$16, %rsp
	movq	%rdi, -8(%rbp)
Ltmp298:
	.loc	14 490 1 prologue_end
	callq	__ZN71_$LT$core_graphics..event..CGEvent$u20$as$u20$core..ops..drop..Drop$GT$4drop17ha6737aa24dd27b54E
	addq	$16, %rsp
	popq	%rbp
	retq
Ltmp299:
Lfunc_end44:
	.cfi_endproc

	.globl	__ZN4core3ptr52drop_in_place$LT$core_foundation..array..CFArray$GT$17h845daec6965d5398E
	.p2align	4, 0x90
__ZN4core3ptr52drop_in_place$LT$core_foundation..array..CFArray$GT$17h845daec6965d5398E:
Lfunc_begin45:
	.loc	14 490 0
	.cfi_startproc
	pushq	%rbp
	.cfi_def_cfa_offset 16
	.cfi_offset %rbp, -16
	movq	%rsp, %rbp
	.cfi_def_cfa_register %rbp
	subq	$16, %rsp
	movq	%rdi, -8(%rbp)
Ltmp300:
	.loc	14 490 1 prologue_end
	callq	__ZN82_$LT$core_foundation..array..CFArray$LT$T$GT$$u20$as$u20$core..ops..drop..Drop$GT$4drop17hd6ec53e66b0e9aa6E
	addq	$16, %rsp
	popq	%rbp
	retq
Ltmp301:
Lfunc_end45:
	.cfi_endproc

	.globl	__ZN4core3ptr54drop_in_place$LT$alloc..raw_vec..RawVec$LT$u16$GT$$GT$17h8b8bb79800a5e7d3E
	.p2align	4, 0x90
__ZN4core3ptr54drop_in_place$LT$alloc..raw_vec..RawVec$LT$u16$GT$$GT$17h8b8bb79800a5e7d3E:
Lfunc_begin46:
	.loc	14 490 0
	.cfi_startproc
	pushq	%rbp
	.cfi_def_cfa_offset 16
	.cfi_offset %rbp, -16
	movq	%rsp, %rbp
	.cfi_def_cfa_register %rbp
	subq	$16, %rsp
	movq	%rdi, -8(%rbp)
Ltmp302:
	.loc	14 490 1 prologue_end
	callq	__ZN77_$LT$alloc..raw_vec..RawVec$LT$T$C$A$GT$$u20$as$u20$core..ops..drop..Drop$GT$4drop17h77e8ada5c71d9723E
	addq	$16, %rsp
	popq	%rbp
	retq
Ltmp303:
Lfunc_end46:
	.cfi_endproc

	.globl	__ZN4core3ptr58drop_in_place$LT$core_graphics..display..CGDisplayMode$GT$17hc337b18e8e56c2f6E
	.p2align	4, 0x90
__ZN4core3ptr58drop_in_place$LT$core_graphics..display..CGDisplayMode$GT$17hc337b18e8e56c2f6E:
Lfunc_begin47:
	.loc	14 490 0
	.cfi_startproc
	pushq	%rbp
	.cfi_def_cfa_offset 16
	.cfi_offset %rbp, -16
	movq	%rsp, %rbp
	.cfi_def_cfa_register %rbp
	subq	$16, %rsp
	movq	%rdi, -8(%rbp)
Ltmp304:
	.loc	14 490 1 prologue_end
	callq	__ZN79_$LT$core_graphics..display..CGDisplayMode$u20$as$u20$core..ops..drop..Drop$GT$4drop17hcd1b592be0f7048dE
	addq	$16, %rsp
	popq	%rbp
	retq
Ltmp305:
Lfunc_end47:
	.cfi_endproc

	.p2align	4, 0x90
__ZN4core3ptr63drop_in_place$LT$$RF$core_graphics_types..geometry..CGPoint$GT$17hfb0890abd97c5157E:
Lfunc_begin48:
	.loc	14 490 0
	.cfi_startproc
	pushq	%rbp
	.cfi_def_cfa_offset 16
	.cfi_offset %rbp, -16
	movq	%rsp, %rbp
	.cfi_def_cfa_register %rbp
	pushq	%rax
	movq	%rdi, -8(%rbp)
Ltmp306:
	.loc	14 490 1 prologue_end
	addq	$8, %rsp
	popq	%rbp
	retq
Ltmp307:
Lfunc_end48:
	.cfi_endproc

	.globl	__ZN4core3ptr63drop_in_place$LT$core_foundation..array..CFArray$LT$u32$GT$$GT$17ha15a2be5db7d5f84E
	.p2align	4, 0x90
__ZN4core3ptr63drop_in_place$LT$core_foundation..array..CFArray$LT$u32$GT$$GT$17ha15a2be5db7d5f84E:
Lfunc_begin49:
	.loc	14 490 0
	.cfi_startproc
	pushq	%rbp
	.cfi_def_cfa_offset 16
	.cfi_offset %rbp, -16
	movq	%rsp, %rbp
	.cfi_def_cfa_register %rbp
	subq	$16, %rsp
	movq	%rdi, -8(%rbp)
Ltmp308:
	.loc	14 490 1 prologue_end
	callq	__ZN82_$LT$core_foundation..array..CFArray$LT$T$GT$$u20$as$u20$core..ops..drop..Drop$GT$4drop17hb045541f94d72afeE
	addq	$16, %rsp
	popq	%rbp
	retq
Ltmp309:
Lfunc_end49:
	.cfi_endproc

	.globl	__ZN4core3ptr63drop_in_place$LT$core_graphics..event_source..CGEventSource$GT$17h6c60fa806ab3de51E
	.p2align	4, 0x90
__ZN4core3ptr63drop_in_place$LT$core_graphics..event_source..CGEventSource$GT$17h6c60fa806ab3de51E:
Lfunc_begin50:
	.loc	14 490 0
	.cfi_startproc
	pushq	%rbp
	.cfi_def_cfa_offset 16
	.cfi_offset %rbp, -16
	movq	%rsp, %rbp
	.cfi_def_cfa_register %rbp
	subq	$16, %rsp
	movq	%rdi, -8(%rbp)
Ltmp310:
	.loc	14 490 1 prologue_end
	callq	__ZN84_$LT$core_graphics..event_source..CGEventSource$u20$as$u20$core..ops..drop..Drop$GT$4drop17hf11c20dffdd6a47dE
	addq	$16, %rsp
	popq	%rbp
	retq
Ltmp311:
Lfunc_end50:
	.cfi_endproc

	.globl	__ZN4core3ptr65drop_in_place$LT$core_graphics..data_provider..CGDataProvider$GT$17hf235115c9ae8afd7E
	.p2align	4, 0x90
__ZN4core3ptr65drop_in_place$LT$core_graphics..data_provider..CGDataProvider$GT$17hf235115c9ae8afd7E:
Lfunc_begin51:
	.loc	14 490 0
	.cfi_startproc
	pushq	%rbp
	.cfi_def_cfa_offset 16
	.cfi_offset %rbp, -16
	movq	%rsp, %rbp
	.cfi_def_cfa_register %rbp
	subq	$16, %rsp
	movq	%rdi, -8(%rbp)
Ltmp312:
	.loc	14 490 1 prologue_end
	callq	__ZN86_$LT$core_graphics..data_provider..CGDataProvider$u20$as$u20$core..ops..drop..Drop$GT$4drop17hcd55c3139c7a8307E
	addq	$16, %rsp
	popq	%rbp
	retq
Ltmp313:
Lfunc_end51:
	.cfi_endproc

	.globl	__ZN4core3ptr68drop_in_place$LT$$u5b$core_graphics..display..CGDisplayMode$u5d$$GT$17h7802a98b49603fe9E
	.p2align	4, 0x90
__ZN4core3ptr68drop_in_place$LT$$u5b$core_graphics..display..CGDisplayMode$u5d$$GT$17h7802a98b49603fe9E:
Lfunc_begin52:
	.loc	14 490 0
	.cfi_startproc
	.cfi_personality 155, _rust_eh_personality
	.cfi_lsda 16, Lexception8
	pushq	%rbp
	.cfi_def_cfa_offset 16
	.cfi_offset %rbp, -16
	movq	%rsp, %rbp
	.cfi_def_cfa_register %rbp
	subq	$80, %rsp
	movq	%rdi, -64(%rbp)
	movq	%rsi, -56(%rbp)
	movq	%rdi, -32(%rbp)
	movq	%rsi, -24(%rbp)
Ltmp325:
	.loc	14 490 1 prologue_end
	xorl	%eax, %eax
	testb	$1, %al
	jne	LBB52_1
	jmp	LBB52_2
LBB52_1:
	movq	$0, -48(%rbp)
	jmp	LBB52_11
LBB52_2:
	.loc	14 0 1 is_stmt 0
	movq	-56(%rbp), %rax
	movq	-64(%rbp), %rcx
	.loc	14 490 1
	movq	%rcx, -40(%rbp)
	shlq	$3, %rax
	addq	-40(%rbp), %rax
	movq	%rax, -72(%rbp)
LBB52_3:
	.loc	14 0 1
	movq	-72(%rbp), %rax
	.loc	14 490 1
	cmpq	%rax, -40(%rbp)
	je	LBB52_5
	movq	-40(%rbp), %rdi
	movq	%rdi, %rax
	addq	$8, %rax
	movq	%rax, -40(%rbp)
Ltmp314:
	callq	__ZN4core3ptr58drop_in_place$LT$core_graphics..display..CGDisplayMode$GT$17hc337b18e8e56c2f6E
Ltmp315:
	jmp	LBB52_3
LBB52_5:
	addq	$80, %rsp
	popq	%rbp
	retq
LBB52_6:
	.loc	14 0 1
	movq	-72(%rbp), %rax
	.loc	14 490 1
	cmpq	%rax, -40(%rbp)
	je	LBB52_9
	jmp	LBB52_8
LBB52_7:
Ltmp316:
	.loc	14 0 1
	movq	%rax, %rcx
	movl	%edx, %eax
	movq	%rcx, -16(%rbp)
	movl	%eax, -8(%rbp)
	jmp	LBB52_6
LBB52_8:
	.loc	14 490 1
	movq	-40(%rbp), %rdi
	movq	%rdi, %rax
	addq	$8, %rax
	movq	%rax, -40(%rbp)
Ltmp317:
	callq	__ZN4core3ptr58drop_in_place$LT$core_graphics..display..CGDisplayMode$GT$17hc337b18e8e56c2f6E
Ltmp318:
	jmp	LBB52_6
LBB52_9:
	movq	-16(%rbp), %rdi
	callq	__Unwind_Resume
LBB52_10:
Ltmp324:
	callq	__ZN4core9panicking19panic_cannot_unwind17h1fbca7e1d7f56ae1E
LBB52_11:
	.loc	14 0 1
	movq	-56(%rbp), %rax
	.loc	14 490 1
	cmpq	%rax, -48(%rbp)
	je	LBB52_5
	.loc	14 0 1
	movq	-64(%rbp), %rcx
	.loc	14 490 1
	movq	-48(%rbp), %rax
	leaq	(%rcx,%rax,8), %rdi
	incq	%rax
	movq	%rax, -48(%rbp)
Ltmp319:
	callq	__ZN4core3ptr58drop_in_place$LT$core_graphics..display..CGDisplayMode$GT$17hc337b18e8e56c2f6E
Ltmp320:
	jmp	LBB52_11
LBB52_13:
	.loc	14 0 1
	movq	-56(%rbp), %rax
	.loc	14 490 1
	cmpq	%rax, -48(%rbp)
	je	LBB52_9
	jmp	LBB52_15
LBB52_14:
Ltmp321:
	.loc	14 0 1
	movq	%rax, %rcx
	movl	%edx, %eax
	movq	%rcx, -16(%rbp)
	movl	%eax, -8(%rbp)
	jmp	LBB52_13
LBB52_15:
	movq	-64(%rbp), %rcx
	.loc	14 490 1
	movq	-48(%rbp), %rax
	leaq	(%rcx,%rax,8), %rdi
	incq	%rax
	movq	%rax, -48(%rbp)
Ltmp322:
	callq	__ZN4core3ptr58drop_in_place$LT$core_graphics..display..CGDisplayMode$GT$17hc337b18e8e56c2f6E
Ltmp323:
	jmp	LBB52_13
Ltmp326:
Lfunc_end52:
	.cfi_endproc
	.section	__TEXT,__gcc_except_tab
	.p2align	2
GCC_except_table52:
Lexception8:
	.byte	255
	.byte	255
	.byte	1
	.uleb128 Lcst_end8-Lcst_begin8
Lcst_begin8:
	.uleb128 Ltmp314-Lfunc_begin52
	.uleb128 Ltmp315-Ltmp314
	.uleb128 Ltmp316-Lfunc_begin52
	.byte	0
	.uleb128 Ltmp317-Lfunc_begin52
	.uleb128 Ltmp318-Ltmp317
	.uleb128 Ltmp324-Lfunc_begin52
	.byte	0
	.uleb128 Ltmp318-Lfunc_begin52
	.uleb128 Ltmp319-Ltmp318
	.byte	0
	.byte	0
	.uleb128 Ltmp319-Lfunc_begin52
	.uleb128 Ltmp320-Ltmp319
	.uleb128 Ltmp321-Lfunc_begin52
	.byte	0
	.uleb128 Ltmp322-Lfunc_begin52
	.uleb128 Ltmp323-Ltmp322
	.uleb128 Ltmp324-Lfunc_begin52
	.byte	0
Lcst_end8:
	.p2align	2

	.section	__TEXT,__text,regular,pure_instructions
	.globl	__ZN4core3ptr69drop_in_place$LT$dyn$u20$core_graphics..data_provider..CustomData$GT$17h862df4d042f77dbfE
	.p2align	4, 0x90
__ZN4core3ptr69drop_in_place$LT$dyn$u20$core_graphics..data_provider..CustomData$GT$17h862df4d042f77dbfE:
Lfunc_begin53:
	.loc	14 490 0 is_stmt 1
	.cfi_startproc
	pushq	%rbp
	.cfi_def_cfa_offset 16
	.cfi_offset %rbp, -16
	movq	%rsp, %rbp
	.cfi_def_cfa_register %rbp
	subq	$16, %rsp
	movq	%rdi, -16(%rbp)
	movq	%rsi, -8(%rbp)
Ltmp327:
	.loc	14 490 1 prologue_end
	callq	*(%rsi)
	addq	$16, %rsp
	popq	%rbp
	retq
Ltmp328:
Lfunc_end53:
	.cfi_endproc

	.globl	__ZN4core3ptr7mut_ptr31_$LT$impl$u20$$BP$mut$u20$T$GT$7is_null17h1c7f14a21c757e5aE
	.p2align	4, 0x90
__ZN4core3ptr7mut_ptr31_$LT$impl$u20$$BP$mut$u20$T$GT$7is_null17h1c7f14a21c757e5aE:
Lfunc_begin54:
	.loc	13 35 0
	.cfi_startproc
	pushq	%rbp
	.cfi_def_cfa_offset 16
	.cfi_offset %rbp, -16
	movq	%rsp, %rbp
	.cfi_def_cfa_register %rbp
	subq	$48, %rsp
	movq	%rdi, -40(%rbp)
Ltmp329:
	.loc	13 52 36 prologue_end
	movq	%rdi, -48(%rbp)
	.loc	13 52 18 is_stmt 0
	movq	-48(%rbp), %rax
	movq	%rax, -32(%rbp)
Ltmp330:
	.loc	13 38 13 is_stmt 1
	movq	%rax, -24(%rbp)
Ltmp331:
	.loc	13 215 33
	movq	%rax, -16(%rbp)
	.loc	13 215 18 is_stmt 0
	movq	%rax, -8(%rbp)
Ltmp332:
	.loc	13 38 13 is_stmt 1
	cmpq	$0, -8(%rbp)
	sete	%al
Ltmp333:
	.loc	13 53 6
	andb	$1, %al
	movzbl	%al, %eax
	addq	$48, %rsp
	popq	%rbp
	retq
Ltmp334:
Lfunc_end54:
	.cfi_endproc

	.globl	__ZN4core3ptr7mut_ptr31_$LT$impl$u20$$BP$mut$u20$T$GT$7is_null17h3b43c6bb322a250fE
	.p2align	4, 0x90
__ZN4core3ptr7mut_ptr31_$LT$impl$u20$$BP$mut$u20$T$GT$7is_null17h3b43c6bb322a250fE:
Lfunc_begin55:
	.loc	13 35 0
	.cfi_startproc
	pushq	%rbp
	.cfi_def_cfa_offset 16
	.cfi_offset %rbp, -16
	movq	%rsp, %rbp
	.cfi_def_cfa_register %rbp
	subq	$48, %rsp
	movq	%rdi, -40(%rbp)
Ltmp335:
	.loc	13 52 36 prologue_end
	movq	%rdi, -48(%rbp)
	.loc	13 52 18 is_stmt 0
	movq	-48(%rbp), %rax
	movq	%rax, -32(%rbp)
Ltmp336:
	.loc	13 38 13 is_stmt 1
	movq	%rax, -24(%rbp)
Ltmp337:
	.loc	13 215 33
	movq	%rax, -16(%rbp)
	.loc	13 215 18 is_stmt 0
	movq	%rax, -8(%rbp)
Ltmp338:
	.loc	13 38 13 is_stmt 1
	cmpq	$0, -8(%rbp)
	sete	%al
Ltmp339:
	.loc	13 53 6
	andb	$1, %al
	movzbl	%al, %eax
	addq	$48, %rsp
	popq	%rbp
	retq
Ltmp340:
Lfunc_end55:
	.cfi_endproc

	.globl	__ZN4core3ptr7mut_ptr31_$LT$impl$u20$$BP$mut$u20$T$GT$7is_null17h515cef8c9c626fe3E
	.p2align	4, 0x90
__ZN4core3ptr7mut_ptr31_$LT$impl$u20$$BP$mut$u20$T$GT$7is_null17h515cef8c9c626fe3E:
Lfunc_begin56:
	.loc	13 35 0
	.cfi_startproc
	pushq	%rbp
	.cfi_def_cfa_offset 16
	.cfi_offset %rbp, -16
	movq	%rsp, %rbp
	.cfi_def_cfa_register %rbp
	subq	$48, %rsp
	movq	%rdi, -40(%rbp)
Ltmp341:
	.loc	13 52 36 prologue_end
	movq	%rdi, -48(%rbp)
	.loc	13 52 18 is_stmt 0
	movq	-48(%rbp), %rax
	movq	%rax, -32(%rbp)
Ltmp342:
	.loc	13 38 13 is_stmt 1
	movq	%rax, -24(%rbp)
Ltmp343:
	.loc	13 215 33
	movq	%rax, -16(%rbp)
	.loc	13 215 18 is_stmt 0
	movq	%rax, -8(%rbp)
Ltmp344:
	.loc	13 38 13 is_stmt 1
	cmpq	$0, -8(%rbp)
	sete	%al
Ltmp345:
	.loc	13 53 6
	andb	$1, %al
	movzbl	%al, %eax
	addq	$48, %rsp
	popq	%rbp
	retq
Ltmp346:
Lfunc_end56:
	.cfi_endproc

	.globl	__ZN4core3ptr7mut_ptr31_$LT$impl$u20$$BP$mut$u20$T$GT$7is_null17h5e2fb6919ea1e6cdE
	.p2align	4, 0x90
__ZN4core3ptr7mut_ptr31_$LT$impl$u20$$BP$mut$u20$T$GT$7is_null17h5e2fb6919ea1e6cdE:
Lfunc_begin57:
	.loc	13 35 0
	.cfi_startproc
	pushq	%rbp
	.cfi_def_cfa_offset 16
	.cfi_offset %rbp, -16
	movq	%rsp, %rbp
	.cfi_def_cfa_register %rbp
	subq	$48, %rsp
	movq	%rdi, -40(%rbp)
Ltmp347:
	.loc	13 52 36 prologue_end
	movq	%rdi, -48(%rbp)
	.loc	13 52 18 is_stmt 0
	movq	-48(%rbp), %rax
	movq	%rax, -32(%rbp)
Ltmp348:
	.loc	13 38 13 is_stmt 1
	movq	%rax, -24(%rbp)
Ltmp349:
	.loc	13 215 33
	movq	%rax, -16(%rbp)
	.loc	13 215 18 is_stmt 0
	movq	%rax, -8(%rbp)
Ltmp350:
	.loc	13 38 13 is_stmt 1
	cmpq	$0, -8(%rbp)
	sete	%al
Ltmp351:
	.loc	13 53 6
	andb	$1, %al
	movzbl	%al, %eax
	addq	$48, %rsp
	popq	%rbp
	retq
Ltmp352:
Lfunc_end57:
	.cfi_endproc

	.globl	__ZN4core3ptr7mut_ptr31_$LT$impl$u20$$BP$mut$u20$T$GT$7is_null17h6b8d582b79650275E
	.p2align	4, 0x90
__ZN4core3ptr7mut_ptr31_$LT$impl$u20$$BP$mut$u20$T$GT$7is_null17h6b8d582b79650275E:
Lfunc_begin58:
	.loc	13 35 0
	.cfi_startproc
	pushq	%rbp
	.cfi_def_cfa_offset 16
	.cfi_offset %rbp, -16
	movq	%rsp, %rbp
	.cfi_def_cfa_register %rbp
	subq	$48, %rsp
	movq	%rdi, -40(%rbp)
Ltmp353:
	.loc	13 52 36 prologue_end
	movq	%rdi, -48(%rbp)
	.loc	13 52 18 is_stmt 0
	movq	-48(%rbp), %rax
	movq	%rax, -32(%rbp)
Ltmp354:
	.loc	13 38 13 is_stmt 1
	movq	%rax, -24(%rbp)
Ltmp355:
	.loc	13 215 33
	movq	%rax, -16(%rbp)
	.loc	13 215 18 is_stmt 0
	movq	%rax, -8(%rbp)
Ltmp356:
	.loc	13 38 13 is_stmt 1
	cmpq	$0, -8(%rbp)
	sete	%al
Ltmp357:
	.loc	13 53 6
	andb	$1, %al
	movzbl	%al, %eax
	addq	$48, %rsp
	popq	%rbp
	retq
Ltmp358:
Lfunc_end58:
	.cfi_endproc

	.globl	__ZN4core3ptr7mut_ptr31_$LT$impl$u20$$BP$mut$u20$T$GT$7is_null17h971867dbaf777fe5E
	.p2align	4, 0x90
__ZN4core3ptr7mut_ptr31_$LT$impl$u20$$BP$mut$u20$T$GT$7is_null17h971867dbaf777fe5E:
Lfunc_begin59:
	.loc	13 35 0
	.cfi_startproc
	pushq	%rbp
	.cfi_def_cfa_offset 16
	.cfi_offset %rbp, -16
	movq	%rsp, %rbp
	.cfi_def_cfa_register %rbp
	subq	$48, %rsp
	movq	%rdi, -40(%rbp)
Ltmp359:
	.loc	13 52 36 prologue_end
	movq	%rdi, -48(%rbp)
	.loc	13 52 18 is_stmt 0
	movq	-48(%rbp), %rax
	movq	%rax, -32(%rbp)
Ltmp360:
	.loc	13 38 13 is_stmt 1
	movq	%rax, -24(%rbp)
Ltmp361:
	.loc	13 215 33
	movq	%rax, -16(%rbp)
	.loc	13 215 18 is_stmt 0
	movq	%rax, -8(%rbp)
Ltmp362:
	.loc	13 38 13 is_stmt 1
	cmpq	$0, -8(%rbp)
	sete	%al
Ltmp363:
	.loc	13 53 6
	andb	$1, %al
	movzbl	%al, %eax
	addq	$48, %rsp
	popq	%rbp
	retq
Ltmp364:
Lfunc_end59:
	.cfi_endproc

	.globl	__ZN4core3ptr7mut_ptr31_$LT$impl$u20$$BP$mut$u20$T$GT$7is_null17he23475ffe322f1deE
	.p2align	4, 0x90
__ZN4core3ptr7mut_ptr31_$LT$impl$u20$$BP$mut$u20$T$GT$7is_null17he23475ffe322f1deE:
Lfunc_begin60:
	.loc	13 35 0
	.cfi_startproc
	pushq	%rbp
	.cfi_def_cfa_offset 16
	.cfi_offset %rbp, -16
	movq	%rsp, %rbp
	.cfi_def_cfa_register %rbp
	subq	$48, %rsp
	movq	%rdi, -40(%rbp)
Ltmp365:
	.loc	13 52 36 prologue_end
	movq	%rdi, -48(%rbp)
	.loc	13 52 18 is_stmt 0
	movq	-48(%rbp), %rax
	movq	%rax, -32(%rbp)
Ltmp366:
	.loc	13 38 13 is_stmt 1
	movq	%rax, -24(%rbp)
Ltmp367:
	.loc	13 215 33
	movq	%rax, -16(%rbp)
	.loc	13 215 18 is_stmt 0
	movq	%rax, -8(%rbp)
Ltmp368:
	.loc	13 38 13 is_stmt 1
	cmpq	$0, -8(%rbp)
	sete	%al
Ltmp369:
	.loc	13 53 6
	andb	$1, %al
	movzbl	%al, %eax
	addq	$48, %rsp
	popq	%rbp
	retq
Ltmp370:
Lfunc_end60:
	.cfi_endproc

	.globl	__ZN4core3ptr81drop_in_place$LT$alloc..vec..Vec$LT$core_graphics..display..CGDisplayMode$GT$$GT$17h6fd5973a6d95b0daE
	.p2align	4, 0x90
__ZN4core3ptr81drop_in_place$LT$alloc..vec..Vec$LT$core_graphics..display..CGDisplayMode$GT$$GT$17h6fd5973a6d95b0daE:
Lfunc_begin61:
	.loc	14 490 0
	.cfi_startproc
	.cfi_personality 155, _rust_eh_personality
	.cfi_lsda 16, Lexception9
	pushq	%rbp
	.cfi_def_cfa_offset 16
	.cfi_offset %rbp, -16
	movq	%rsp, %rbp
	.cfi_def_cfa_register %rbp
	subq	$32, %rsp
	movq	%rdi, -32(%rbp)
	movq	%rdi, -24(%rbp)
Ltmp371:
Ltmp377:
	.loc	14 490 1 prologue_end
	callq	__ZN70_$LT$alloc..vec..Vec$LT$T$C$A$GT$$u20$as$u20$core..ops..drop..Drop$GT$4drop17h6f3adf699df11171E
Ltmp372:
	jmp	LBB61_3
LBB61_1:
Ltmp374:
	.loc	14 0 1 is_stmt 0
	movq	-32(%rbp), %rdi
	.loc	14 490 1
	callq	__ZN4core3ptr88drop_in_place$LT$alloc..raw_vec..RawVec$LT$core_graphics..display..CGDisplayMode$GT$$GT$17h9c044d40884f00f7E
Ltmp375:
	jmp	LBB61_5
LBB61_2:
Ltmp373:
	.loc	14 0 1
	movq	%rax, %rcx
	movl	%edx, %eax
	movq	%rcx, -16(%rbp)
	movl	%eax, -8(%rbp)
	jmp	LBB61_1
LBB61_3:
	movq	-32(%rbp), %rdi
	.loc	14 490 1
	callq	__ZN4core3ptr88drop_in_place$LT$alloc..raw_vec..RawVec$LT$core_graphics..display..CGDisplayMode$GT$$GT$17h9c044d40884f00f7E
	addq	$32, %rsp
	popq	%rbp
	retq
LBB61_4:
Ltmp376:
	callq	__ZN4core9panicking19panic_cannot_unwind17h1fbca7e1d7f56ae1E
LBB61_5:
	movq	-16(%rbp), %rdi
	callq	__Unwind_Resume
Ltmp378:
Lfunc_end61:
	.cfi_endproc
	.section	__TEXT,__gcc_except_tab
	.p2align	2
GCC_except_table61:
Lexception9:
	.byte	255
	.byte	255
	.byte	1
	.uleb128 Lcst_end9-Lcst_begin9
Lcst_begin9:
	.uleb128 Ltmp371-Lfunc_begin61
	.uleb128 Ltmp372-Ltmp371
	.uleb128 Ltmp373-Lfunc_begin61
	.byte	0
	.uleb128 Ltmp374-Lfunc_begin61
	.uleb128 Ltmp375-Ltmp374
	.uleb128 Ltmp376-Lfunc_begin61
	.byte	0
	.uleb128 Ltmp375-Lfunc_begin61
	.uleb128 Lfunc_end61-Ltmp375
	.byte	0
	.byte	0
Lcst_end9:
	.p2align	2

	.section	__TEXT,__text,regular,pure_instructions
	.globl	__ZN4core3ptr86drop_in_place$LT$core..option..Option$LT$core_graphics..display..CGDisplayMode$GT$$GT$17hd911b34b12688fb5E
	.p2align	4, 0x90
__ZN4core3ptr86drop_in_place$LT$core..option..Option$LT$core_graphics..display..CGDisplayMode$GT$$GT$17hd911b34b12688fb5E:
Lfunc_begin62:
	.loc	14 490 0 is_stmt 1
	.cfi_startproc
	pushq	%rbp
	.cfi_def_cfa_offset 16
	.cfi_offset %rbp, -16
	movq	%rsp, %rbp
	.cfi_def_cfa_register %rbp
	subq	$16, %rsp
	movq	%rdi, -16(%rbp)
	movq	%rdi, -8(%rbp)
Ltmp379:
	.loc	14 490 1 prologue_end
	cmpq	$0, (%rdi)
	jne	LBB62_2
LBB62_1:
	addq	$16, %rsp
	popq	%rbp
	retq
LBB62_2:
	.loc	14 0 1 is_stmt 0
	movq	-16(%rbp), %rdi
	.loc	14 490 1
	addq	$8, %rdi
	callq	__ZN4core3ptr58drop_in_place$LT$core_graphics..display..CGDisplayMode$GT$17hc337b18e8e56c2f6E
	jmp	LBB62_1
Ltmp380:
Lfunc_end62:
	.cfi_endproc

	.globl	__ZN4core3ptr88drop_in_place$LT$alloc..raw_vec..RawVec$LT$core_graphics..display..CGDisplayMode$GT$$GT$17h9c044d40884f00f7E
	.p2align	4, 0x90
__ZN4core3ptr88drop_in_place$LT$alloc..raw_vec..RawVec$LT$core_graphics..display..CGDisplayMode$GT$$GT$17h9c044d40884f00f7E:
Lfunc_begin63:
	.loc	14 490 0 is_stmt 1
	.cfi_startproc
	pushq	%rbp
	.cfi_def_cfa_offset 16
	.cfi_offset %rbp, -16
	movq	%rsp, %rbp
	.cfi_def_cfa_register %rbp
	subq	$16, %rsp
	movq	%rdi, -8(%rbp)
Ltmp381:
	.loc	14 490 1 prologue_end
	callq	__ZN77_$LT$alloc..raw_vec..RawVec$LT$T$C$A$GT$$u20$as$u20$core..ops..drop..Drop$GT$4drop17h270e9abb4b55f2f7E
	addq	$16, %rsp
	popq	%rbp
	retq
Ltmp382:
Lfunc_end63:
	.cfi_endproc

	.globl	__ZN4core3ptr94drop_in_place$LT$alloc..boxed..Box$LT$dyn$u20$core_graphics..data_provider..CustomData$GT$$GT$17h2f3adabb8408faabE
	.p2align	4, 0x90
__ZN4core3ptr94drop_in_place$LT$alloc..boxed..Box$LT$dyn$u20$core_graphics..data_provider..CustomData$GT$$GT$17h2f3adabb8408faabE:
Lfunc_begin64:
	.loc	14 490 0
	.cfi_startproc
	.cfi_personality 155, _rust_eh_personality
	.cfi_lsda 16, Lexception10
	pushq	%rbp
	.cfi_def_cfa_offset 16
	.cfi_offset %rbp, -16
	movq	%rsp, %rbp
	.cfi_def_cfa_register %rbp
	subq	$32, %rsp
	movq	%rdi, %rax
	movq	%rax, -32(%rbp)
	movq	%rax, -24(%rbp)
Ltmp389:
	.loc	14 490 1 prologue_end
	movq	(%rax), %rdi
	movq	8(%rax), %rax
	movq	(%rax), %rax
Ltmp383:
	callq	*%rax
Ltmp384:
	jmp	LBB64_3
LBB64_1:
	.loc	14 0 1 is_stmt 0
	movq	-32(%rbp), %rax
	.loc	14 490 1
	movq	(%rax), %rdi
	movq	8(%rax), %rsi
Ltmp386:
	callq	__ZN5alloc5alloc8box_free17hdbcd0dae99485f70E
Ltmp387:
	jmp	LBB64_5
LBB64_2:
Ltmp385:
	.loc	14 0 1
	movq	%rax, %rcx
	movl	%edx, %eax
	movq	%rcx, -16(%rbp)
	movl	%eax, -8(%rbp)
	jmp	LBB64_1
LBB64_3:
	movq	-32(%rbp), %rax
	.loc	14 490 1
	movq	(%rax), %rdi
	movq	8(%rax), %rsi
	callq	__ZN5alloc5alloc8box_free17hdbcd0dae99485f70E
	addq	$32, %rsp
	popq	%rbp
	retq
LBB64_4:
Ltmp388:
	callq	__ZN4core9panicking19panic_cannot_unwind17h1fbca7e1d7f56ae1E
LBB64_5:
	movq	-16(%rbp), %rdi
	callq	__Unwind_Resume
Ltmp390:
Lfunc_end64:
	.cfi_endproc
	.section	__TEXT,__gcc_except_tab
	.p2align	2
GCC_except_table64:
Lexception10:
	.byte	255
	.byte	255
	.byte	1
	.uleb128 Lcst_end10-Lcst_begin10
Lcst_begin10:
	.uleb128 Ltmp383-Lfunc_begin64
	.uleb128 Ltmp384-Ltmp383
	.uleb128 Ltmp385-Lfunc_begin64
	.byte	0
	.uleb128 Ltmp386-Lfunc_begin64
	.uleb128 Ltmp387-Ltmp386
	.uleb128 Ltmp388-Lfunc_begin64
	.byte	0
	.uleb128 Ltmp387-Lfunc_begin64
	.uleb128 Lfunc_end64-Ltmp387
	.byte	0
	.byte	0
Lcst_end10:
	.p2align	2

	.section	__TEXT,__text,regular,pure_instructions
	.globl	__ZN4core3ptr9const_ptr33_$LT$impl$u20$$BP$const$u20$T$GT$7is_null17h2bd1d8fa2f60932dE
	.p2align	4, 0x90
__ZN4core3ptr9const_ptr33_$LT$impl$u20$$BP$const$u20$T$GT$7is_null17h2bd1d8fa2f60932dE:
Lfunc_begin65:
	.file	25 "/rustc/2c8cc343237b8f7d5a3c3703e3a87f2eb2c54a74/library/core/src/ptr" "const_ptr.rs"
	.loc	25 36 0 is_stmt 1
	.cfi_startproc
	pushq	%rbp
	.cfi_def_cfa_offset 16
	.cfi_offset %rbp, -16
	movq	%rsp, %rbp
	.cfi_def_cfa_register %rbp
	subq	$48, %rsp
	movq	%rdi, -40(%rbp)
Ltmp391:
	.loc	25 53 36 prologue_end
	movq	%rdi, -48(%rbp)
	.loc	25 53 18 is_stmt 0
	movq	-48(%rbp), %rax
	movq	%rax, -32(%rbp)
Ltmp392:
	.loc	25 39 13 is_stmt 1
	movq	%rax, -24(%rbp)
Ltmp393:
	.loc	25 209 33
	movq	%rax, -16(%rbp)
	.loc	25 209 18 is_stmt 0
	movq	%rax, -8(%rbp)
Ltmp394:
	.loc	25 39 13 is_stmt 1
	cmpq	$0, -8(%rbp)
	sete	%al
Ltmp395:
	.loc	25 54 6
	andb	$1, %al
	movzbl	%al, %eax
	addq	$48, %rsp
	popq	%rbp
	retq
Ltmp396:
Lfunc_end65:
	.cfi_endproc

	.globl	__ZN4core3ptr9const_ptr33_$LT$impl$u20$$BP$const$u20$T$GT$7is_null17hc253f794d316d287E
	.p2align	4, 0x90
__ZN4core3ptr9const_ptr33_$LT$impl$u20$$BP$const$u20$T$GT$7is_null17hc253f794d316d287E:
Lfunc_begin66:
	.loc	25 36 0
	.cfi_startproc
	pushq	%rbp
	.cfi_def_cfa_offset 16
	.cfi_offset %rbp, -16
	movq	%rsp, %rbp
	.cfi_def_cfa_register %rbp
	subq	$48, %rsp
	movq	%rdi, -40(%rbp)
Ltmp397:
	.loc	25 53 36 prologue_end
	movq	%rdi, -48(%rbp)
	.loc	25 53 18 is_stmt 0
	movq	-48(%rbp), %rax
	movq	%rax, -32(%rbp)
Ltmp398:
	.loc	25 39 13 is_stmt 1
	movq	%rax, -24(%rbp)
Ltmp399:
	.loc	25 209 33
	movq	%rax, -16(%rbp)
	.loc	25 209 18 is_stmt 0
	movq	%rax, -8(%rbp)
Ltmp400:
	.loc	25 39 13 is_stmt 1
	cmpq	$0, -8(%rbp)
	sete	%al
Ltmp401:
	.loc	25 54 6
	andb	$1, %al
	movzbl	%al, %eax
	addq	$48, %rsp
	popq	%rbp
	retq
Ltmp402:
Lfunc_end66:
	.cfi_endproc

	.globl	__ZN4core3str11validations15next_code_point17h1cf894e988fb5763E
	.p2align	4, 0x90
__ZN4core3str11validations15next_code_point17h1cf894e988fb5763E:
Lfunc_begin67:
	.file	26 "/rustc/2c8cc343237b8f7d5a3c3703e3a87f2eb2c54a74/library/core/src/str" "validations.rs"
	.loc	26 36 0
	.cfi_startproc
	pushq	%rbp
	.cfi_def_cfa_offset 16
	.cfi_offset %rbp, -16
	movq	%rsp, %rbp
	.cfi_def_cfa_register %rbp
	subq	$144, %rsp
	movq	%rdi, -128(%rbp)
	movq	%rdi, -88(%rbp)
Ltmp403:
	.loc	26 38 14 prologue_end
	callq	__ZN91_$LT$core..slice..iter..Iter$LT$T$GT$$u20$as$u20$core..iter..traits..iterator..Iterator$GT$4next17h574e630ea139dd8eE
	movq	%rax, -104(%rbp)
Ltmp404:
	.file	27 "/rustc/2c8cc343237b8f7d5a3c3703e3a87f2eb2c54a74/library/core/src" "option.rs"
	.loc	27 2407 15
	movq	-104(%rbp), %rdx
	movl	$1, %eax
	xorl	%ecx, %ecx
	cmpq	$0, %rdx
	cmoveq	%rcx, %rax
	.loc	27 2407 9 is_stmt 0
	cmpq	$0, %rax
	jne	LBB67_2
	.loc	27 2409 21 is_stmt 1
	movq	$0, -112(%rbp)
	.loc	27 2409 44 is_stmt 0
	jmp	LBB67_3
LBB67_2:
	.loc	27 2408 18 is_stmt 1
	movq	-104(%rbp), %rax
	movq	%rax, -64(%rbp)
Ltmp405:
	.loc	27 2408 24 is_stmt 0
	movq	%rax, -112(%rbp)
Ltmp406:
LBB67_3:
	.loc	26 38 14 is_stmt 1
	movq	-112(%rbp), %rdx
	xorl	%eax, %eax
	movl	$1, %ecx
	cmpq	$0, %rdx
	cmoveq	%rcx, %rax
	cmpq	$0, %rax
	jne	LBB67_5
	movq	-112(%rbp), %rax
	movq	%rax, -56(%rbp)
	.loc	26 38 13 is_stmt 0
	movb	(%rax), %al
	movb	%al, -129(%rbp)
	movb	%al, -42(%rbp)
Ltmp407:
	.loc	26 39 8 is_stmt 1
	cmpb	$-128, %al
	jb	LBB67_8
	jmp	LBB67_7
Ltmp408:
LBB67_5:
	.loc	27 2420 21
	movl	$0, -120(%rbp)
Ltmp409:
LBB67_6:
	.loc	26 70 2
	jmp	LBB67_9
LBB67_7:
	.loc	26 0 2 is_stmt 0
	movb	-129(%rbp), %al
	movq	-128(%rbp), %rdi
Ltmp410:
	.loc	26 46 32 is_stmt 1
	movb	%al, -41(%rbp)
Ltmp411:
	.loc	26 12 5
	andb	$31, %al
	movzbl	%al, %eax
	movl	%eax, -136(%rbp)
	movl	%eax, -40(%rbp)
Ltmp412:
	.loc	26 49 23
	callq	__ZN91_$LT$core..slice..iter..Iter$LT$T$GT$$u20$as$u20$core..iter..traits..iterator..Iterator$GT$4next17h574e630ea139dd8eE
	movq	%rax, %rdi
	leaq	l___unnamed_11(%rip), %rsi
	callq	__ZN4core6option15Option$LT$T$GT$16unwrap_unchecked17h3cd1ce7b0c7482bbE
	movl	-136(%rbp), %ecx
	movq	%rax, %rdx
	movb	-129(%rbp), %al
	.loc	26 49 22 is_stmt 0
	movb	(%rdx), %dl
	movb	%dl, -130(%rbp)
	movb	%dl, -33(%rbp)
Ltmp413:
	.loc	26 50 37 is_stmt 1
	movl	%ecx, -32(%rbp)
	.loc	26 50 43 is_stmt 0
	movb	%dl, -26(%rbp)
Ltmp414:
	.loc	26 18 5 is_stmt 1
	shll	$6, %ecx
	.loc	26 18 17 is_stmt 0
	andb	$63, %dl
	movzbl	%dl, %edx
	.loc	26 18 5
	orl	%edx, %ecx
	movl	%ecx, -92(%rbp)
Ltmp415:
	.loc	26 51 8 is_stmt 1
	cmpb	$-32, %al
	jae	LBB67_11
	jmp	LBB67_10
Ltmp416:
LBB67_8:
	.loc	26 0 8 is_stmt 0
	movb	-129(%rbp), %al
	.loc	26 40 21 is_stmt 1
	movzbl	%al, %eax
	.loc	26 40 16 is_stmt 0
	movl	%eax, -116(%rbp)
	movl	$1, -120(%rbp)
	.file	28 "/Users/natalie/.cargo/registry/src/github.com-1ecc6299db9ec823/core-graphics-0.22.3" "src/lib.rs"
	.loc	28 1 1 is_stmt 1
	jmp	LBB67_6
Ltmp417:
LBB67_9:
	.loc	26 70 2
	movl	-120(%rbp), %eax
	movl	-116(%rbp), %edx
	addq	$144, %rsp
	popq	%rbp
	retq
LBB67_10:
Ltmp418:
	.loc	26 69 10
	movl	-92(%rbp), %eax
	.loc	26 69 5 is_stmt 0
	movl	%eax, -116(%rbp)
	movl	$1, -120(%rbp)
Ltmp419:
	.loc	26 70 2 is_stmt 1
	jmp	LBB67_9
LBB67_11:
	.loc	26 0 2 is_stmt 0
	movq	-128(%rbp), %rdi
Ltmp420:
	.loc	26 56 27 is_stmt 1
	callq	__ZN91_$LT$core..slice..iter..Iter$LT$T$GT$$u20$as$u20$core..iter..traits..iterator..Iterator$GT$4next17h574e630ea139dd8eE
	movq	%rax, %rdi
	leaq	l___unnamed_12(%rip), %rsi
	callq	__ZN4core6option15Option$LT$T$GT$16unwrap_unchecked17h3cd1ce7b0c7482bbE
	movb	-130(%rbp), %dl
	movl	-136(%rbp), %ecx
	movq	%rax, %rsi
	movb	-129(%rbp), %al
	.loc	26 56 26 is_stmt 0
	movb	(%rsi), %sil
	movb	%sil, -25(%rbp)
Ltmp421:
	.loc	26 57 38 is_stmt 1
	andb	$63, %dl
	movzbl	%dl, %edx
	movl	%edx, -24(%rbp)
	.loc	26 57 62 is_stmt 0
	movb	%sil, -17(%rbp)
Ltmp422:
	.loc	26 18 5 is_stmt 1
	shll	$6, %edx
	.loc	26 18 17 is_stmt 0
	andb	$63, %sil
	movzbl	%sil, %esi
	.loc	26 18 5
	orl	%esi, %edx
	movl	%edx, -140(%rbp)
	movl	%edx, -16(%rbp)
Ltmp423:
	.loc	26 58 14 is_stmt 1
	shll	$12, %ecx
	.loc	26 58 9 is_stmt 0
	orl	%edx, %ecx
	movl	%ecx, -92(%rbp)
	.loc	26 59 12 is_stmt 1
	cmpb	$-16, %al
	jae	LBB67_13
Ltmp424:
LBB67_12:
	.loc	26 51 5
	jmp	LBB67_10
LBB67_13:
	.loc	26 0 5 is_stmt 0
	movq	-128(%rbp), %rdi
Ltmp425:
	.loc	26 64 31 is_stmt 1
	callq	__ZN91_$LT$core..slice..iter..Iter$LT$T$GT$$u20$as$u20$core..iter..traits..iterator..Iterator$GT$4next17h574e630ea139dd8eE
	movq	%rax, %rdi
	leaq	l___unnamed_13(%rip), %rsi
	callq	__ZN4core6option15Option$LT$T$GT$16unwrap_unchecked17h3cd1ce7b0c7482bbE
	movl	-140(%rbp), %ecx
	movq	%rax, %rdx
	movl	-136(%rbp), %eax
	.loc	26 64 30 is_stmt 0
	movb	(%rdx), %dl
	movb	%dl, -9(%rbp)
Ltmp426:
	.loc	26 65 18 is_stmt 1
	andl	$7, %eax
	shll	$18, %eax
	.loc	26 65 56 is_stmt 0
	movl	%ecx, -8(%rbp)
	.loc	26 65 61
	movb	%dl, -1(%rbp)
Ltmp427:
	.loc	26 18 5 is_stmt 1
	shll	$6, %ecx
	.loc	26 18 17 is_stmt 0
	andb	$63, %dl
	movzbl	%dl, %edx
	.loc	26 18 5
	orl	%edx, %ecx
Ltmp428:
	.loc	26 65 13 is_stmt 1
	orl	%ecx, %eax
	movl	%eax, -92(%rbp)
Ltmp429:
	.loc	26 59 9
	jmp	LBB67_12
Ltmp430:
Lfunc_end67:
	.cfi_endproc

	.p2align	4, 0x90
__ZN4core3str21_$LT$impl$u20$str$GT$20eq_ignore_ascii_case17h01b84824716bd373E:
Lfunc_begin68:
	.file	29 "/rustc/2c8cc343237b8f7d5a3c3703e3a87f2eb2c54a74/library/core/src/str" "mod.rs"
	.loc	29 2392 0
	.cfi_startproc
	pushq	%rbp
	.cfi_def_cfa_offset 16
	.cfi_offset %rbp, -16
	movq	%rsp, %rbp
	.cfi_def_cfa_register %rbp
	subq	$96, %rsp
	movq	%rdi, -96(%rbp)
	movq	%rsi, -88(%rbp)
	movq	%rdx, -80(%rbp)
	movq	%rcx, -72(%rbp)
Ltmp431:
	.loc	29 2393 9 prologue_end
	movq	%rdi, -64(%rbp)
	movq	%rsi, -56(%rbp)
Ltmp432:
	.loc	29 327 18
	movq	%rdi, -48(%rbp)
	movq	%rsi, -40(%rbp)
	movq	-48(%rbp), %rdi
	movq	-40(%rbp), %rsi
Ltmp433:
	.loc	29 2393 46
	movq	%rdx, -32(%rbp)
	movq	%rcx, -24(%rbp)
Ltmp434:
	.loc	29 327 18
	movq	%rdx, -16(%rbp)
	movq	%rcx, -8(%rbp)
	movq	-16(%rbp), %rdx
	movq	-8(%rbp), %rcx
Ltmp435:
	.loc	29 2393 9
	callq	__ZN4core5slice5ascii30_$LT$impl$u20$$u5b$u8$u5d$$GT$20eq_ignore_ascii_case17h2e67bbe94ddb9be9E
	.loc	29 2394 6
	andb	$1, %al
	movzbl	%al, %eax
	addq	$96, %rsp
	popq	%rbp
	retq
Ltmp436:
Lfunc_end68:
	.cfi_endproc

	.p2align	4, 0x90
__ZN4core4char7methods16encode_utf16_raw17h676699a3c45cbb8dE:
Lfunc_begin69:
	.file	30 "/rustc/2c8cc343237b8f7d5a3c3703e3a87f2eb2c54a74/library/core/src/char" "methods.rs"
	.loc	30 1773 0
	.cfi_startproc
	pushq	%rbp
	.cfi_def_cfa_offset 16
	.cfi_offset %rbp, -16
	movq	%rsp, %rbp
	.cfi_def_cfa_register %rbp
	subq	$768, %rsp
	movq	%rsi, -760(%rbp)
	movq	%rdx, -752(%rbp)
	movl	%edi, -740(%rbp)
	movq	%rsi, -488(%rbp)
	movq	%rdx, -480(%rbp)
Ltmp437:
	.loc	30 1776 13 prologue_end
	movl	-740(%rbp), %eax
	.loc	30 1776 12 is_stmt 0
	andl	$65535, %eax
	cmpl	-740(%rbp), %eax
	je	LBB69_2
	movb	$0, -713(%rbp)
	jmp	LBB69_3
LBB69_2:
	.loc	30 0 12
	movq	-752(%rbp), %rax
	movq	-760(%rbp), %rcx
	.loc	30 1776 40
	movq	%rcx, -472(%rbp)
	movq	%rax, -464(%rbp)
Ltmp438:
	.loc	18 153 9 is_stmt 1
	cmpq	$0, %rax
	sete	%al
Ltmp439:
	.loc	30 1776 39
	xorb	$-1, %al
	.loc	30 1776 12 is_stmt 0
	andb	$1, %al
	movb	%al, -713(%rbp)
LBB69_3:
	testb	$1, -713(%rbp)
	jne	LBB69_5
	.loc	30 0 12
	movq	-752(%rbp), %rax
	.loc	30 1780 19 is_stmt 1
	cmpq	$2, %rax
	jae	LBB69_8
	jmp	LBB69_7
LBB69_5:
	.loc	30 0 19 is_stmt 0
	movq	-760(%rbp), %rax
	movq	-752(%rbp), %rcx
	.loc	30 1778 41 is_stmt 1
	movl	-740(%rbp), %esi
	.loc	30 1778 14 is_stmt 0
	movq	%rax, -456(%rbp)
	movq	%rcx, -448(%rbp)
Ltmp440:
	.loc	18 443 48 is_stmt 1
	movq	%rax, -440(%rbp)
	movq	%rcx, -432(%rbp)
Ltmp441:
	.file	31 "/rustc/2c8cc343237b8f7d5a3c3703e3a87f2eb2c54a74/library/core/src/slice" "index.rs"
	.loc	31 253 13
	movq	%rax, -424(%rbp)
	movq	%rcx, -416(%rbp)
Ltmp442:
	.loc	13 2037 9
	movq	%rax, -408(%rbp)
Ltmp443:
	.loc	13 1034 18
	movq	%rax, -400(%rbp)
Ltmp444:
	.loc	13 487 18
	movq	%rax, -392(%rbp)
	movq	-392(%rbp), %rdx
Ltmp445:
	.loc	30 1778 13
	movw	%si, (%rdx)
	.loc	30 1779 39
	movq	%rax, -384(%rbp)
	movq	%rcx, -376(%rbp)
Ltmp446:
	.loc	18 507 9
	movq	%rax, -368(%rbp)
Ltmp447:
	.file	32 "/rustc/2c8cc343237b8f7d5a3c3703e3a87f2eb2c54a74/library/core/src/slice" "raw.rs"
	.loc	32 145 45
	movq	%rax, -360(%rbp)
Ltmp448:
	.loc	14 766 24
	movq	%rax, -352(%rbp)
Ltmp449:
	.loc	13 60 9
	movq	%rax, -344(%rbp)
Ltmp450:
	.file	33 "/rustc/2c8cc343237b8f7d5a3c3703e3a87f2eb2c54a74/library/core/src/ptr" "metadata.rs"
	.loc	33 135 36
	movq	%rax, -536(%rbp)
	movq	$1, -528(%rbp)
	.loc	33 135 14 is_stmt 0
	movq	-536(%rbp), %rcx
	movq	-528(%rbp), %rax
	movq	%rcx, -552(%rbp)
	movq	%rax, -544(%rbp)
	movq	-552(%rbp), %rcx
	movq	-544(%rbp), %rax
Ltmp451:
	.loc	30 1779 13 is_stmt 1
	movq	%rcx, -736(%rbp)
	movq	%rax, -728(%rbp)
LBB69_6:
	.loc	30 1776 9
	movq	-736(%rbp), %rax
	movq	-728(%rbp), %rdx
	.loc	30 1795 2
	addq	$768, %rsp
	popq	%rbp
	retq
LBB69_7:
	.loc	30 1789 36
	movl	-740(%rbp), %eax
	movl	%eax, -140(%rbp)
Ltmp452:
	.file	34 "/rustc/2c8cc343237b8f7d5a3c3703e3a87f2eb2c54a74/library/core/src/char" "mod.rs"
	.loc	34 128 48
	movl	%eax, -136(%rbp)
Ltmp453:
	.file	35 "/rustc/2c8cc343237b8f7d5a3c3703e3a87f2eb2c54a74/library/core/src/char" "convert.rs"
	.loc	35 25 78
	movl	%eax, -132(%rbp)
	movl	-132(%rbp), %ecx
	movl	%ecx, -128(%rbp)
Ltmp454:
	.loc	30 625 18
	movl	%ecx, -124(%rbp)
Ltmp455:
	.loc	30 626 12
	movl	%ecx, %eax
	andl	$65535, %eax
	cmpl	%ecx, %eax
	je	LBB69_10
	jmp	LBB69_9
Ltmp456:
LBB69_8:
	.loc	30 0 12 is_stmt 0
	movq	-760(%rbp), %rax
	movq	-752(%rbp), %rcx
	.loc	30 1782 13 is_stmt 1
	movl	-740(%rbp), %edx
	subl	$65536, %edx
	movl	%edx, -740(%rbp)
	.loc	30 1783 52
	movl	-740(%rbp), %edx
	.loc	30 1783 51 is_stmt 0
	shrl	$10, %edx
	.loc	30 1783 50
	movw	%dx, %si
	.loc	30 1783 14
	movq	%rax, -336(%rbp)
	movq	%rcx, -328(%rbp)
Ltmp457:
	.loc	18 443 48 is_stmt 1
	movq	%rax, -320(%rbp)
	movq	%rcx, -312(%rbp)
Ltmp458:
	.loc	31 253 13
	movq	%rax, -304(%rbp)
	movq	%rcx, -296(%rbp)
Ltmp459:
	.loc	13 2037 9
	movq	%rax, -288(%rbp)
Ltmp460:
	.loc	13 1034 18
	movq	%rax, -280(%rbp)
Ltmp461:
	.loc	13 487 18
	movq	%rax, -272(%rbp)
	movq	-272(%rbp), %rdx
Ltmp462:
	.loc	30 1783 13
	orw	$55296, %si
	movw	%si, (%rdx)
	.loc	30 1784 52
	movl	-740(%rbp), %edx
	.loc	30 1784 51 is_stmt 0
	movw	%dx, %si
	.loc	30 1784 50
	andw	$1023, %si
	.loc	30 1784 14
	movq	%rax, -264(%rbp)
	movq	%rcx, -256(%rbp)
Ltmp463:
	.loc	18 443 48 is_stmt 1
	movq	%rax, -248(%rbp)
	movq	%rcx, -240(%rbp)
Ltmp464:
	.loc	31 253 13
	movq	%rax, -232(%rbp)
	movq	%rcx, -224(%rbp)
Ltmp465:
	.loc	13 2037 9
	movq	%rax, -216(%rbp)
Ltmp466:
	.loc	13 1034 18
	movq	%rax, -208(%rbp)
Ltmp467:
	.loc	13 487 18
	movq	%rax, %rdx
	addq	$2, %rdx
	movq	%rdx, -200(%rbp)
	movq	-200(%rbp), %rdx
Ltmp468:
	.loc	30 1784 13
	orw	$56320, %si
	movw	%si, (%rdx)
	.loc	30 1785 39
	movq	%rax, -192(%rbp)
	movq	%rcx, -184(%rbp)
Ltmp469:
	.loc	18 507 9
	movq	%rax, -176(%rbp)
Ltmp470:
	.loc	32 145 45
	movq	%rax, -168(%rbp)
Ltmp471:
	.loc	14 766 24
	movq	%rax, -160(%rbp)
Ltmp472:
	.loc	13 60 9
	movq	%rax, -152(%rbp)
Ltmp473:
	.loc	33 135 36
	movq	%rax, -504(%rbp)
	movq	$2, -496(%rbp)
	.loc	33 135 14 is_stmt 0
	movq	-504(%rbp), %rcx
	movq	-496(%rbp), %rax
	movq	%rcx, -520(%rbp)
	movq	%rax, -512(%rbp)
	movq	-520(%rbp), %rcx
	movq	-512(%rbp), %rax
Ltmp474:
	.loc	30 1785 13 is_stmt 1
	movq	%rcx, -736(%rbp)
	movq	%rax, -728(%rbp)
	.loc	30 1776 9
	jmp	LBB69_6
LBB69_9:
Ltmp475:
	.loc	30 626 45
	movq	$2, -600(%rbp)
	.loc	30 626 9 is_stmt 0
	jmp	LBB69_11
LBB69_10:
	.loc	30 626 34
	movq	$1, -600(%rbp)
Ltmp476:
LBB69_11:
	.loc	30 0 34
	movq	-752(%rbp), %rcx
	leaq	-600(%rbp), %rsi
	.loc	30 1787 13 is_stmt 1
	movq	%rsi, -120(%rbp)
Ltmp477:
	.loc	17 328 23
	movq	%rsi, -112(%rbp)
	.loc	17 328 26 is_stmt 0
	movq	__ZN4core3fmt3num3imp54_$LT$impl$u20$core..fmt..Display$u20$for$u20$usize$GT$3fmt17ha5c925fcd7ed33faE@GOTPCREL(%rip), %rax
	movq	%rax, -104(%rbp)
Ltmp478:
	.loc	17 347 42 is_stmt 1
	movq	%rax, -96(%rbp)
	movq	-96(%rbp), %rdx
	.loc	17 347 68 is_stmt 0
	movq	%rsi, -88(%rbp)
	movq	-88(%rbp), %rsi
	.loc	17 347 18
	movq	%rsi, -616(%rbp)
	movq	%rdx, -608(%rbp)
	leaq	-740(%rbp), %rsi
Ltmp479:
	.loc	30 1787 13 is_stmt 1
	movq	%rsi, -80(%rbp)
Ltmp480:
	.loc	17 328 23
	movq	%rsi, -72(%rbp)
	.loc	17 328 26 is_stmt 0
	movq	__ZN4core3fmt3num53_$LT$impl$u20$core..fmt..UpperHex$u20$for$u20$u32$GT$3fmt17ha96bbefe8f663d11E@GOTPCREL(%rip), %rdx
	movq	%rdx, -64(%rbp)
Ltmp481:
	.loc	17 347 42 is_stmt 1
	movq	%rdx, -56(%rbp)
	movq	-56(%rbp), %rdx
	.loc	17 347 68 is_stmt 0
	movq	%rsi, -48(%rbp)
	movq	-48(%rbp), %rsi
	.loc	17 347 18
	movq	%rsi, -592(%rbp)
	movq	%rdx, -584(%rbp)
Ltmp482:
	.loc	30 1791 17 is_stmt 1
	movq	%rcx, -560(%rbp)
	leaq	-560(%rbp), %rcx
	.loc	30 1787 13
	movq	%rcx, -40(%rbp)
Ltmp483:
	.loc	17 328 23
	movq	%rcx, -32(%rbp)
	.loc	17 328 26 is_stmt 0
	movq	%rax, -24(%rbp)
Ltmp484:
	.loc	17 347 42 is_stmt 1
	movq	%rax, -16(%rbp)
	movq	-16(%rbp), %rax
	.loc	17 347 68 is_stmt 0
	movq	%rcx, -8(%rbp)
	movq	-8(%rbp), %rcx
	.loc	17 347 18
	movq	%rcx, -576(%rbp)
	movq	%rax, -568(%rbp)
Ltmp485:
	.loc	30 1787 13 is_stmt 1
	movq	-616(%rbp), %rcx
	movq	-608(%rbp), %rax
	movq	%rcx, -664(%rbp)
	movq	%rax, -656(%rbp)
	movq	-592(%rbp), %rcx
	movq	-584(%rbp), %rax
	movq	%rcx, -648(%rbp)
	movq	%rax, -640(%rbp)
	movq	-576(%rbp), %rcx
	movq	-568(%rbp), %rax
	movq	%rcx, -632(%rbp)
	movq	%rax, -624(%rbp)
	leaq	l___unnamed_14(%rip), %rsi
	leaq	-712(%rbp), %rdi
	movq	%rdi, -768(%rbp)
	leaq	-664(%rbp), %rcx
	movl	$3, %r8d
	movq	%r8, %rdx
	callq	__ZN4core3fmt9Arguments6new_v117h4ad6eb082ef9eaabE
	movq	-768(%rbp), %rdi
	leaq	l___unnamed_15(%rip), %rsi
	callq	__ZN4core9panicking9panic_fmt17h9b5d807e24bcaaedE
Ltmp486:
Lfunc_end69:
	.cfi_endproc

	.p2align	4, 0x90
__ZN4core4hint21unreachable_unchecked17h55636c216624031aE:
Lfunc_begin70:
	.file	36 "/rustc/2c8cc343237b8f7d5a3c3703e3a87f2eb2c54a74/library/core/src" "hint.rs"
	.loc	36 100 0
	.cfi_startproc
	pushq	%rbp
	.cfi_def_cfa_offset 16
	.cfi_offset %rbp, -16
	movq	%rsp, %rbp
	.cfi_def_cfa_register %rbp
Ltmp487:
	.loc	36 104 9 prologue_end
	ud2
Ltmp488:
Lfunc_end70:
	.cfi_endproc

	.globl	__ZN4core4iter6traits8iterator8Iterator3all5check28_$u7b$$u7b$closure$u7d$$u7d$17h085aedbe68bed6a7E
	.p2align	4, 0x90
__ZN4core4iter6traits8iterator8Iterator3all5check28_$u7b$$u7b$closure$u7d$$u7d$17h085aedbe68bed6a7E:
Lfunc_begin71:
	.file	37 "/rustc/2c8cc343237b8f7d5a3c3703e3a87f2eb2c54a74/library/core/src/iter/traits" "iterator.rs"
	.loc	37 2603 0
	.cfi_startproc
	pushq	%rbp
	.cfi_def_cfa_offset 16
	.cfi_offset %rbp, -16
	movq	%rsp, %rbp
	.cfi_def_cfa_register %rbp
	subq	$64, %rsp
	movq	%rdi, -32(%rbp)
	movq	%rsi, -16(%rbp)
	movq	%rdx, -8(%rbp)
Ltmp489:
	.loc	37 2604 20 prologue_end
	movq	%rsi, -48(%rbp)
	movq	%rdx, -40(%rbp)
	movq	-48(%rbp), %rsi
	movq	-40(%rbp), %rdx
	callq	__ZN4core5slice5ascii30_$LT$impl$u20$$u5b$u8$u5d$$GT$20eq_ignore_ascii_case28_$u7b$$u7b$closure$u7d$$u7d$17he12d02ae75e722ccE
	testb	$1, %al
	jne	LBB71_2
	.loc	37 2604 58 is_stmt 0
	movb	$1, -49(%rbp)
	.loc	37 2604 17
	jmp	LBB71_3
LBB71_2:
	.loc	37 2604 27
	movb	$0, -49(%rbp)
LBB71_3:
	.loc	37 2605 14 is_stmt 1
	movb	-49(%rbp), %al
	andb	$1, %al
	movzbl	%al, %eax
	addq	$64, %rsp
	popq	%rbp
	retq
Ltmp490:
Lfunc_end71:
	.cfi_endproc

	.globl	__ZN4core4iter6traits8iterator8Iterator3map17h0fe4f6d39d9b4195E
	.p2align	4, 0x90
__ZN4core4iter6traits8iterator8Iterator3map17h0fe4f6d39d9b4195E:
Lfunc_begin72:
	.loc	37 782 0
	.cfi_startproc
	pushq	%rbp
	.cfi_def_cfa_offset 16
	.cfi_offset %rbp, -16
	movq	%rsp, %rbp
	.cfi_def_cfa_register %rbp
	subq	$48, %rsp
	movq	%rdi, %rax
	movq	%rax, -40(%rbp)
Ltmp491:
	.loc	37 787 18 prologue_end
	movq	(%rsi), %rax
	movq	%rax, -32(%rbp)
	movq	8(%rsi), %rax
	movq	%rax, -24(%rbp)
	movq	16(%rsi), %rax
	movq	%rax, -16(%rbp)
	.loc	37 787 9 is_stmt 0
	leaq	-32(%rbp), %rsi
Ltmp492:
	callq	__ZN4core4iter8adapters3map16Map$LT$I$C$F$GT$3new17h0540c06d30889b26E
	movq	-40(%rbp), %rax
	.loc	37 788 6 is_stmt 1
	addq	$48, %rsp
	popq	%rbp
	retq
Ltmp493:
Lfunc_end72:
	.cfi_endproc

	.globl	__ZN4core4iter6traits8iterator8Iterator7collect17h44c97621e684da1bE
	.p2align	4, 0x90
__ZN4core4iter6traits8iterator8Iterator7collect17h44c97621e684da1bE:
Lfunc_begin73:
	.loc	37 1856 0
	.cfi_startproc
	pushq	%rbp
	.cfi_def_cfa_offset 16
	.cfi_offset %rbp, -16
	movq	%rsp, %rbp
	.cfi_def_cfa_register %rbp
	subq	$32, %rsp
	movq	%rdi, %rax
	movq	%rax, -32(%rbp)
Ltmp494:
	.loc	37 1860 33 prologue_end
	movq	(%rsi), %rax
	movq	%rax, -24(%rbp)
	movq	8(%rsi), %rax
	movq	%rax, -16(%rbp)
	movq	16(%rsi), %rax
	movq	%rax, -8(%rbp)
	.loc	37 1860 9 is_stmt 0
	leaq	-24(%rbp), %rsi
Ltmp495:
	callq	__ZN95_$LT$alloc..vec..Vec$LT$T$GT$$u20$as$u20$core..iter..traits..collect..FromIterator$LT$T$GT$$GT$9from_iter17ha2d8b2adbf17f589E
	movq	-32(%rbp), %rax
	.loc	37 1861 6 is_stmt 1
	addq	$32, %rsp
	popq	%rbp
	retq
Ltmp496:
Lfunc_end73:
	.cfi_endproc

	.globl	__ZN4core4iter6traits8iterator8Iterator7collect17h8d90534249733b52E
	.p2align	4, 0x90
__ZN4core4iter6traits8iterator8Iterator7collect17h8d90534249733b52E:
Lfunc_begin74:
	.loc	37 1856 0
	.cfi_startproc
	pushq	%rbp
	.cfi_def_cfa_offset 16
	.cfi_offset %rbp, -16
	movq	%rsp, %rbp
	.cfi_def_cfa_register %rbp
	subq	$32, %rsp
	movq	%rdi, %rax
	movq	%rax, -32(%rbp)
Ltmp497:
	.loc	37 1860 33 prologue_end
	movq	(%rsi), %rax
	movq	%rax, -24(%rbp)
	movq	8(%rsi), %rax
	movq	%rax, -16(%rbp)
	movq	16(%rsi), %rax
	movq	%rax, -8(%rbp)
	.loc	37 1860 9 is_stmt 0
	leaq	-24(%rbp), %rsi
Ltmp498:
	callq	__ZN95_$LT$alloc..vec..Vec$LT$T$GT$$u20$as$u20$core..iter..traits..collect..FromIterator$LT$T$GT$$GT$9from_iter17hb68182dcc2285b5cE
	movq	-32(%rbp), %rax
	.loc	37 1861 6 is_stmt 1
	addq	$32, %rsp
	popq	%rbp
	retq
Ltmp499:
Lfunc_end74:
	.cfi_endproc

	.globl	__ZN4core4iter6traits8iterator8Iterator8try_fold17h8ce9d0c23ef42124E
	.p2align	4, 0x90
__ZN4core4iter6traits8iterator8Iterator8try_fold17h8ce9d0c23ef42124E:
Lfunc_begin75:
	.loc	37 2254 0
	.cfi_startproc
	.cfi_personality 155, _rust_eh_personality
	.cfi_lsda 16, Lexception11
	pushq	%rbp
	.cfi_def_cfa_offset 16
	.cfi_offset %rbp, -16
	movq	%rsp, %rbp
	.cfi_def_cfa_register %rbp
	subq	$160, %rsp
	movq	%rdi, -136(%rbp)
	movq	%rdi, -72(%rbp)
Ltmp511:
	.loc	37 2260 25 prologue_end
	movb	$1, -73(%rbp)
LBB75_1:
Ltmp500:
	.loc	37 0 25 is_stmt 0
	movq	-136(%rbp), %rdi
Ltmp512:
	.loc	37 2261 29 is_stmt 1
	callq	__ZN102_$LT$core..iter..adapters..zip..Zip$LT$A$C$B$GT$$u20$as$u20$core..iter..traits..iterator..Iterator$GT$4next17h89a4f73d922f25a7E
Ltmp501:
	movq	%rdx, -152(%rbp)
	movq	%rax, -144(%rbp)
	jmp	LBB75_4
Ltmp513:
LBB75_2:
	.loc	37 2265 5
	testb	$1, -73(%rbp)
	jne	LBB75_16
	jmp	LBB75_15
LBB75_3:
Ltmp510:
	.loc	37 0 5 is_stmt 0
	movq	%rax, %rcx
	movl	%edx, %eax
	movq	%rcx, -32(%rbp)
	movl	%eax, -24(%rbp)
	jmp	LBB75_2
LBB75_4:
	movq	-152(%rbp), %rax
	movq	-144(%rbp), %rcx
Ltmp514:
	.loc	37 2261 29 is_stmt 1
	movq	%rcx, -120(%rbp)
	movq	%rax, -112(%rbp)
	.loc	37 2261 19 is_stmt 0
	movq	-120(%rbp), %rdx
	movl	$1, %eax
	xorl	%ecx, %ecx
	cmpq	$0, %rdx
	cmoveq	%rcx, %rax
	cmpq	$1, %rax
	jne	LBB75_6
	.loc	37 2261 24
	movq	-120(%rbp), %rcx
	movq	-112(%rbp), %rax
	movq	%rcx, -16(%rbp)
	movq	%rax, -8(%rbp)
	.loc	37 2262 23 is_stmt 1
	movb	$0, -73(%rbp)
	.loc	37 2262 21 is_stmt 0
	movq	%rcx, -96(%rbp)
	movq	%rax, -88(%rbp)
	movq	-96(%rbp), %rsi
	movq	-88(%rbp), %rdx
Ltmp504:
	leaq	-128(%rbp), %rdi
	callq	__ZN4core4iter6traits8iterator8Iterator3all5check28_$u7b$$u7b$closure$u7d$$u7d$17h085aedbe68bed6a7E
Ltmp505:
	movb	%al, -153(%rbp)
	jmp	LBB75_10
Ltmp515:
LBB75_6:
	.loc	37 2261 9 is_stmt 1
	jmp	LBB75_7
LBB75_7:
	.loc	37 2264 15
	movb	$0, -73(%rbp)
Ltmp502:
	callq	__ZN95_$LT$core..ops..control_flow..ControlFlow$LT$B$C$C$GT$$u20$as$u20$core..ops..try_trait..Try$GT$11from_output17h11a3af79438c3220E
Ltmp503:
	movb	%al, -154(%rbp)
	jmp	LBB75_8
LBB75_8:
	.loc	37 0 15 is_stmt 0
	movb	-154(%rbp), %al
	.loc	37 2264 15
	andb	$1, %al
	movb	%al, -121(%rbp)
Ltmp516:
LBB75_9:
	.loc	37 2265 6 is_stmt 1
	movb	-121(%rbp), %al
	andb	$1, %al
	movzbl	%al, %eax
	addq	$160, %rsp
	popq	%rbp
	retq
LBB75_10:
Ltmp506:
	.loc	37 0 6 is_stmt 0
	movb	-153(%rbp), %al
Ltmp517:
	.loc	37 2262 21 is_stmt 1
	movzbl	%al, %edi
	andl	$1, %edi
	callq	__ZN95_$LT$core..ops..control_flow..ControlFlow$LT$B$C$C$GT$$u20$as$u20$core..ops..try_trait..Try$GT$6branch17hc5b906c09930f346E
Ltmp507:
	movb	%al, -155(%rbp)
	jmp	LBB75_11
LBB75_11:
	.loc	37 0 21 is_stmt 0
	movb	-155(%rbp), %al
	.loc	37 2262 21
	andb	$1, %al
	movb	%al, -97(%rbp)
	movb	-97(%rbp), %al
	andb	$1, %al
	movzbl	%al, %eax
	cmpq	$0, %rax
	jne	LBB75_13
	.loc	37 2262 13
	movb	$1, -73(%rbp)
Ltmp518:
	.loc	37 2261 9 is_stmt 1
	jmp	LBB75_1
LBB75_13:
Ltmp508:
Ltmp519:
	.loc	37 2262 21
	callq	__ZN104_$LT$core..ops..control_flow..ControlFlow$LT$B$C$C$GT$$u20$as$u20$core..ops..try_trait..FromResidual$GT$13from_residual17h5e8c33ad58dde8d5E
Ltmp509:
	movb	%al, -156(%rbp)
	jmp	LBB75_14
LBB75_14:
	.loc	37 0 21 is_stmt 0
	movb	-156(%rbp), %al
	.loc	37 2262 21
	andb	$1, %al
	movb	%al, -121(%rbp)
Ltmp520:
	.loc	37 2265 5 is_stmt 1
	jmp	LBB75_9
LBB75_15:
	.loc	37 2254 5
	movq	-32(%rbp), %rdi
	callq	__Unwind_Resume
LBB75_16:
	.loc	37 2265 5
	jmp	LBB75_15
Ltmp521:
Lfunc_end75:
	.cfi_endproc
	.section	__TEXT,__gcc_except_tab
	.p2align	2
GCC_except_table75:
Lexception11:
	.byte	255
	.byte	255
	.byte	1
	.uleb128 Lcst_end11-Lcst_begin11
Lcst_begin11:
	.uleb128 Ltmp500-Lfunc_begin75
	.uleb128 Ltmp509-Ltmp500
	.uleb128 Ltmp510-Lfunc_begin75
	.byte	0
	.uleb128 Ltmp509-Lfunc_begin75
	.uleb128 Lfunc_end75-Ltmp509
	.byte	0
	.byte	0
Lcst_end11:
	.p2align	2

	.section	__TEXT,__text,regular,pure_instructions
	.globl	__ZN4core4iter6traits8iterator8Iterator9size_hint17h87f333b3dff5635dE
	.p2align	4, 0x90
__ZN4core4iter6traits8iterator8Iterator9size_hint17h87f333b3dff5635dE:
Lfunc_begin76:
	.loc	37 221 0
	.cfi_startproc
	pushq	%rbp
	.cfi_def_cfa_offset 16
	.cfi_offset %rbp, -16
	movq	%rsp, %rbp
	.cfi_def_cfa_register %rbp
	subq	$24, %rsp
	movq	%rdi, %rax
	movq	%rsi, -8(%rbp)
Ltmp522:
	.loc	37 222 13 prologue_end
	movq	$0, -24(%rbp)
	.loc	37 222 9 is_stmt 0
	movq	$0, (%rdi)
	movq	-24(%rbp), %rdx
	movq	-16(%rbp), %rcx
	movq	%rdx, 8(%rdi)
	movq	%rcx, 16(%rdi)
	.loc	37 223 6 is_stmt 1
	addq	$24, %rsp
	popq	%rbp
	retq
Ltmp523:
Lfunc_end76:
	.cfi_endproc

	.globl	__ZN4core4iter8adapters3map16Map$LT$I$C$F$GT$3new17h0540c06d30889b26E
	.p2align	4, 0x90
__ZN4core4iter8adapters3map16Map$LT$I$C$F$GT$3new17h0540c06d30889b26E:
Lfunc_begin77:
	.loc	1 68 0
	.cfi_startproc
	pushq	%rbp
	.cfi_def_cfa_offset 16
	.cfi_offset %rbp, -16
	movq	%rsp, %rbp
	.cfi_def_cfa_register %rbp
	subq	$32, %rsp
	movq	%rdi, %rax
Ltmp524:
	.loc	1 69 15 prologue_end
	movq	(%rsi), %rcx
	movq	%rcx, -32(%rbp)
	movq	8(%rsi), %rcx
	movq	%rcx, -24(%rbp)
	movq	16(%rsi), %rcx
	movq	%rcx, -16(%rbp)
	.loc	1 69 9 is_stmt 0
	movq	-32(%rbp), %rcx
	movq	%rcx, (%rdi)
	movq	-24(%rbp), %rcx
	movq	%rcx, 8(%rdi)
	movq	-16(%rbp), %rcx
	movq	%rcx, 16(%rdi)
	.loc	1 70 6 is_stmt 1
	addq	$32, %rsp
	popq	%rbp
	retq
Ltmp525:
Lfunc_end77:
	.cfi_endproc

	.globl	__ZN4core4iter8adapters3zip27TrustedRandomAccessNoCoerce4size17h4bd4f08d7bacf972E
	.p2align	4, 0x90
__ZN4core4iter8adapters3zip27TrustedRandomAccessNoCoerce4size17h4bd4f08d7bacf972E:
Lfunc_begin78:
	.loc	2 538 0
	.cfi_startproc
	pushq	%rbp
	.cfi_def_cfa_offset 16
	.cfi_offset %rbp, -16
	movq	%rsp, %rbp
	.cfi_def_cfa_register %rbp
	subq	$32, %rsp
	movq	%rdi, %rsi
	movq	%rsi, -8(%rbp)
Ltmp526:
	.loc	2 542 9 prologue_end
	leaq	-32(%rbp), %rdi
	callq	__ZN91_$LT$core..slice..iter..Iter$LT$T$GT$$u20$as$u20$core..iter..traits..iterator..Iterator$GT$9size_hint17ha53c6ddd60abfbf0E
	movq	-32(%rbp), %rax
	.loc	2 543 6
	addq	$32, %rsp
	popq	%rbp
	retq
Ltmp527:
Lfunc_end78:
	.cfi_endproc

	.globl	__ZN4core4iter8adapters3zip3zip17h75251dea903521d9E
	.p2align	4, 0x90
__ZN4core4iter8adapters3zip3zip17h75251dea903521d9E:
Lfunc_begin79:
	.loc	2 66 0
	.cfi_startproc
	.cfi_personality 155, _rust_eh_personality
	.cfi_lsda 16, Lexception12
	pushq	%rbp
	.cfi_def_cfa_offset 16
	.cfi_offset %rbp, -16
	movq	%rsp, %rbp
	.cfi_def_cfa_register %rbp
	subq	$160, %rsp
	movq	%r8, -120(%rbp)
	movq	%rcx, -112(%rbp)
	movq	%rdx, -104(%rbp)
	movq	%rsi, %rax
	movq	-104(%rbp), %rsi
	movq	%rax, -96(%rbp)
	movq	%rdi, %rax
	movq	-96(%rbp), %rdi
	movq	%rax, -88(%rbp)
	movq	%rax, -80(%rbp)
	movq	%rdi, -48(%rbp)
	movq	%rsi, -40(%rbp)
	movq	%rcx, -32(%rbp)
	movq	%r8, -24(%rbp)
Ltmp536:
	.loc	2 71 18 prologue_end
	movb	$1, -49(%rbp)
Ltmp528:
	callq	__ZN4core5slice4iter87_$LT$impl$u20$core..iter..traits..collect..IntoIterator$u20$for$u20$$RF$$u5b$T$u5d$$GT$9into_iter17hb5eace6956c54a3cE
Ltmp529:
	movq	%rdx, -72(%rbp)
	movq	%rax, -64(%rbp)
	jmp	LBB79_3
LBB79_1:
	.loc	2 72 1
	testb	$1, -49(%rbp)
	jne	LBB79_10
	jmp	LBB79_9
LBB79_2:
Ltmp530:
	.loc	2 0 1 is_stmt 0
	movq	%rax, %rcx
	movl	%edx, %eax
	movq	%rcx, -16(%rbp)
	movl	%eax, -8(%rbp)
	jmp	LBB79_1
LBB79_3:
	movq	-120(%rbp), %rsi
	movq	-112(%rbp), %rdi
	movq	-72(%rbp), %rax
	movq	-64(%rbp), %rcx
	movq	%rcx, -152(%rbp)
	movq	%rax, -144(%rbp)
	.loc	2 71 30 is_stmt 1
	movb	$1, -50(%rbp)
	.loc	2 71 33 is_stmt 0
	movb	$0, -49(%rbp)
Ltmp531:
	callq	__ZN4core5slice4iter87_$LT$impl$u20$core..iter..traits..collect..IntoIterator$u20$for$u20$$RF$$u5b$T$u5d$$GT$9into_iter17hb5eace6956c54a3cE
Ltmp532:
	movq	%rdx, -136(%rbp)
	movq	%rax, -128(%rbp)
	jmp	LBB79_6
LBB79_4:
	.loc	2 71 46
	testb	$1, -50(%rbp)
	jne	LBB79_8
	jmp	LBB79_1
LBB79_5:
Ltmp535:
	.loc	2 0 46
	movq	%rax, %rcx
	movl	%edx, %eax
	movq	%rcx, -16(%rbp)
	movl	%eax, -8(%rbp)
	jmp	LBB79_4
LBB79_6:
	movq	-136(%rbp), %r8
	movq	-128(%rbp), %rcx
	movq	-144(%rbp), %rdx
	movq	-152(%rbp), %rsi
	movq	-88(%rbp), %rdi
	.loc	2 71 5
	movb	$0, -50(%rbp)
Ltmp533:
	callq	__ZN111_$LT$core..iter..adapters..zip..Zip$LT$A$C$B$GT$$u20$as$u20$core..iter..adapters..zip..ZipImpl$LT$A$C$B$GT$$GT$3new17he3b20f9e4e25db7fE
Ltmp534:
	jmp	LBB79_7
LBB79_7:
	.loc	2 0 5
	movq	-80(%rbp), %rax
	.loc	2 72 2 is_stmt 1
	addq	$160, %rsp
	popq	%rbp
	retq
LBB79_8:
	.loc	2 71 46
	jmp	LBB79_1
LBB79_9:
	.loc	2 66 1
	movq	-16(%rbp), %rdi
	callq	__Unwind_Resume
LBB79_10:
	.loc	2 72 1
	jmp	LBB79_9
Ltmp537:
Lfunc_end79:
	.cfi_endproc
	.section	__TEXT,__gcc_except_tab
	.p2align	2
GCC_except_table79:
Lexception12:
	.byte	255
	.byte	255
	.byte	1
	.uleb128 Lcst_end12-Lcst_begin12
Lcst_begin12:
	.uleb128 Ltmp528-Lfunc_begin79
	.uleb128 Ltmp529-Ltmp528
	.uleb128 Ltmp530-Lfunc_begin79
	.byte	0
	.uleb128 Ltmp531-Lfunc_begin79
	.uleb128 Ltmp534-Ltmp531
	.uleb128 Ltmp535-Lfunc_begin79
	.byte	0
	.uleb128 Ltmp534-Lfunc_begin79
	.uleb128 Lfunc_end79-Ltmp534
	.byte	0
	.byte	0
Lcst_end12:
	.p2align	2

	.section	__TEXT,__text,regular,pure_instructions
	.p2align	4, 0x90
__ZN4core5alloc6layout6Layout5array5inner17h49faefc01867d4e4E:
Lfunc_begin80:
	.file	38 "/rustc/2c8cc343237b8f7d5a3c3703e3a87f2eb2c54a74/library/core/src/alloc" "layout.rs"
	.loc	38 441 0
	.cfi_startproc
	pushq	%rbp
	.cfi_def_cfa_offset 16
	.cfi_offset %rbp, -16
	movq	%rsp, %rbp
	.cfi_def_cfa_register %rbp
	subq	$176, %rsp
	movq	%rdi, -168(%rbp)
	movq	%rsi, -160(%rbp)
	movq	%rdx, -152(%rbp)
	movq	%rdi, -88(%rbp)
	movq	%rsi, -80(%rbp)
	movq	%rdx, -72(%rbp)
Ltmp538:
	.loc	38 452 16 prologue_end
	cmpq	$0, %rdi
	jne	LBB80_2
	movb	$0, -121(%rbp)
	jmp	LBB80_5
LBB80_2:
	.loc	38 0 16 is_stmt 0
	movq	-168(%rbp), %rax
	movq	-160(%rbp), %rcx
	.loc	38 452 68
	movq	%rcx, -64(%rbp)
Ltmp539:
	.loc	38 93 32 is_stmt 1
	movq	%rcx, -56(%rbp)
Ltmp540:
	.file	39 "/rustc/2c8cc343237b8f7d5a3c3703e3a87f2eb2c54a74/library/core/src/ptr" "alignment.rs"
	.loc	39 97 9
	movq	%rcx, -104(%rbp)
	movq	-104(%rbp), %rdx
Ltmp541:
	.loc	38 93 31
	subq	$1, %rdx
	.loc	38 93 9 is_stmt 0
	movabsq	$9223372036854775807, %rcx
	subq	%rdx, %rcx
	movq	%rcx, -176(%rbp)
Ltmp542:
	.loc	38 452 41 is_stmt 1
	cmpq	$0, %rax
	sete	%al
	testb	$1, %al
	jne	LBB80_4
	.loc	38 0 41 is_stmt 0
	movq	-168(%rbp), %rcx
	movq	-176(%rbp), %rax
	.loc	38 452 41
	xorl	%edx, %edx
	divq	%rcx
	movq	%rax, %rcx
	movq	-152(%rbp), %rax
	.loc	38 452 37
	cmpq	%rcx, %rax
	seta	%al
	.loc	38 452 16
	andb	$1, %al
	movb	%al, -121(%rbp)
	jmp	LBB80_5
LBB80_4:
	.loc	38 452 41
	leaq	_str.1(%rip), %rdi
	leaq	l___unnamed_16(%rip), %rdx
	movl	$25, %esi
	callq	__ZN4core9panicking5panic17hc1bc45270cf64b03E
LBB80_5:
	.loc	38 452 16
	testb	$1, -121(%rbp)
	jne	LBB80_7
	.loc	38 0 16
	movq	-160(%rbp), %rax
	movq	-152(%rbp), %rdx
	movq	-168(%rbp), %rcx
	.loc	38 456 30 is_stmt 1
	imulq	%rdx, %rcx
	movq	%rcx, -48(%rbp)
Ltmp543:
	.loc	38 461 59
	movq	%rcx, -40(%rbp)
	.loc	38 461 71 is_stmt 0
	movq	%rax, -32(%rbp)
Ltmp544:
	.loc	39 97 9 is_stmt 1
	movq	%rax, -96(%rbp)
	movq	-96(%rbp), %rax
	movq	%rax, -24(%rbp)
Ltmp545:
	.loc	38 120 65
	movq	%rax, -16(%rbp)
Ltmp546:
	.loc	39 89 18
	movq	%rax, -8(%rbp)
	movq	-8(%rbp), %rax
Ltmp547:
	.loc	38 120 18
	movq	%rcx, -120(%rbp)
	movq	%rax, -112(%rbp)
Ltmp548:
	.loc	38 461 22
	movq	-120(%rbp), %rcx
	movq	-112(%rbp), %rax
	movq	%rcx, -144(%rbp)
	movq	%rax, -136(%rbp)
Ltmp549:
	.loc	38 462 10
	jmp	LBB80_8
LBB80_7:
	.loc	38 453 24
	movq	$0, -136(%rbp)
LBB80_8:
	.loc	38 462 10
	movq	-144(%rbp), %rax
	movq	-136(%rbp), %rdx
	addq	$176, %rsp
	popq	%rbp
	retq
Ltmp550:
Lfunc_end80:
	.cfi_endproc

	.globl	__ZN4core5slice3raw14from_raw_parts17hfc5509521f3b2f03E
	.p2align	4, 0x90
__ZN4core5slice3raw14from_raw_parts17hfc5509521f3b2f03E:
Lfunc_begin81:
	.loc	32 92 0
	.cfi_startproc
	pushq	%rbp
	.cfi_def_cfa_offset 16
	.cfi_offset %rbp, -16
	movq	%rsp, %rbp
	.cfi_def_cfa_register %rbp
	subq	$88, %rsp
	movq	%rdi, -56(%rbp)
	movq	%rsi, -48(%rbp)
Ltmp551:
	.loc	32 100 37 prologue_end
	movq	%rdi, -40(%rbp)
	.loc	32 100 43 is_stmt 0
	movq	%rsi, -32(%rbp)
Ltmp552:
	.loc	14 734 20 is_stmt 1
	movq	%rdi, -24(%rbp)
Ltmp553:
	.loc	25 61 9
	movq	%rdi, -16(%rbp)
Ltmp554:
	.loc	14 734 33
	movq	%rsi, -8(%rbp)
Ltmp555:
	.loc	33 118 36
	movq	%rdi, -72(%rbp)
	movq	%rsi, -64(%rbp)
	.loc	33 118 14 is_stmt 0
	movq	-72(%rbp), %rcx
	movq	-64(%rbp), %rax
	movq	%rcx, -88(%rbp)
	movq	%rax, -80(%rbp)
	movq	-88(%rbp), %rax
	movq	-80(%rbp), %rdx
Ltmp556:
	.loc	32 102 2 is_stmt 1
	addq	$88, %rsp
	popq	%rbp
	retq
Ltmp557:
Lfunc_end81:
	.cfi_endproc

	.globl	__ZN4core5slice3raw18from_raw_parts_mut17h5bb8df976ee9facdE
	.p2align	4, 0x90
__ZN4core5slice3raw18from_raw_parts_mut17h5bb8df976ee9facdE:
Lfunc_begin82:
	.loc	32 137 0
	.cfi_startproc
	pushq	%rbp
	.cfi_def_cfa_offset 16
	.cfi_offset %rbp, -16
	movq	%rsp, %rbp
	.cfi_def_cfa_register %rbp
	subq	$88, %rsp
	movq	%rdi, -56(%rbp)
	movq	%rsi, -48(%rbp)
Ltmp558:
	.loc	32 145 45 prologue_end
	movq	%rdi, -40(%rbp)
	.loc	32 145 51 is_stmt 0
	movq	%rsi, -32(%rbp)
Ltmp559:
	.loc	14 766 24 is_stmt 1
	movq	%rdi, -24(%rbp)
Ltmp560:
	.loc	13 60 9
	movq	%rdi, -16(%rbp)
Ltmp561:
	.loc	14 766 37
	movq	%rsi, -8(%rbp)
Ltmp562:
	.loc	33 135 36
	movq	%rdi, -72(%rbp)
	movq	%rsi, -64(%rbp)
	.loc	33 135 14 is_stmt 0
	movq	-72(%rbp), %rcx
	movq	-64(%rbp), %rax
	movq	%rcx, -88(%rbp)
	movq	%rax, -80(%rbp)
	movq	-88(%rbp), %rax
	movq	-80(%rbp), %rdx
Ltmp563:
	.loc	32 147 2 is_stmt 1
	addq	$88, %rsp
	popq	%rbp
	retq
Ltmp564:
Lfunc_end82:
	.cfi_endproc

	.globl	__ZN4core5slice4iter13Iter$LT$T$GT$3new17h26062b9cc666daffE
	.p2align	4, 0x90
__ZN4core5slice4iter13Iter$LT$T$GT$3new17h26062b9cc666daffE:
Lfunc_begin83:
	.file	40 "/rustc/2c8cc343237b8f7d5a3c3703e3a87f2eb2c54a74/library/core/src/slice" "iter.rs"
	.loc	40 82 0
	.cfi_startproc
	pushq	%rbp
	.cfi_def_cfa_offset 16
	.cfi_offset %rbp, -16
	movq	%rsp, %rbp
	.cfi_def_cfa_register %rbp
	subq	$280, %rsp
	movq	%rdi, -280(%rbp)
	movq	%rsi, -272(%rbp)
	movq	%rdi, -208(%rbp)
	movq	%rsi, -200(%rbp)
Ltmp565:
	.loc	40 83 19 prologue_end
	movq	%rdi, -184(%rbp)
	movq	%rsi, -176(%rbp)
Ltmp566:
	.loc	18 477 9
	movq	%rdi, -168(%rbp)
Ltmp567:
	.loc	40 86 21
	movq	%rdi, -160(%rbp)
Ltmp568:
	.loc	25 53 36
	movq	%rdi, -232(%rbp)
	.loc	25 53 18 is_stmt 0
	movq	-232(%rbp), %rax
	movq	%rax, -152(%rbp)
Ltmp569:
	.loc	25 39 13 is_stmt 1
	movq	%rax, -144(%rbp)
Ltmp570:
	.loc	25 209 33
	movq	%rax, -136(%rbp)
	.loc	25 209 18 is_stmt 0
	movq	%rax, -128(%rbp)
Ltmp571:
	.loc	40 89 20 is_stmt 1
	xorl	%eax, %eax
	testb	$1, %al
	jne	LBB83_2
	.loc	40 0 20 is_stmt 0
	movq	-280(%rbp), %rax
	movq	-272(%rbp), %rcx
	.loc	40 89 76
	movq	%rax, -40(%rbp)
	.loc	40 89 84
	movq	%rcx, -32(%rbp)
Ltmp572:
	.loc	25 932 18 is_stmt 1
	movq	%rax, -24(%rbp)
	.loc	25 932 30 is_stmt 0
	movq	%rcx, -16(%rbp)
Ltmp573:
	.loc	25 473 18 is_stmt 1
	shlq	$4, %rcx
	addq	%rcx, %rax
	movq	%rax, -248(%rbp)
Ltmp574:
	.loc	40 89 17
	jmp	LBB83_3
LBB83_2:
	.loc	40 0 17 is_stmt 0
	movq	-272(%rbp), %rcx
	movq	-280(%rbp), %rax
	.loc	40 89 32
	movq	%rax, -120(%rbp)
	.loc	40 89 54
	movq	%rcx, -112(%rbp)
Ltmp575:
	.loc	25 1118 9 is_stmt 1
	movq	%rax, -104(%rbp)
Ltmp576:
	.loc	25 61 9
	movq	%rax, -96(%rbp)
Ltmp577:
	.loc	25 1118 40
	movq	%rcx, -88(%rbp)
Ltmp578:
	.loc	25 1100 9
	movq	%rax, -80(%rbp)
	.loc	25 1100 30 is_stmt 0
	movq	%rcx, -72(%rbp)
Ltmp579:
	.loc	25 555 18 is_stmt 1
	addq	%rcx, %rax
	movq	%rax, -64(%rbp)
	movq	-64(%rbp), %rax
	movq	%rax, -56(%rbp)
Ltmp580:
	.loc	25 100 29
	movq	%rax, -48(%rbp)
Ltmp581:
	.loc	33 118 36
	movq	%rax, -216(%rbp)
	.loc	33 118 14 is_stmt 0
	movq	-216(%rbp), %rax
	movq	%rax, -224(%rbp)
	movq	-224(%rbp), %rax
	movq	%rax, -248(%rbp)
Ltmp582:
LBB83_3:
	.loc	33 0 14
	movq	-280(%rbp), %rax
Ltmp583:
	.loc	40 91 48 is_stmt 1
	movq	%rax, -8(%rbp)
Ltmp584:
	.loc	12 201 13
	movq	%rax, -240(%rbp)
Ltmp585:
	.loc	40 91 64
	movq	-248(%rbp), %rax
	.loc	40 91 13 is_stmt 0
	movq	-240(%rbp), %rcx
	movq	%rcx, -256(%rbp)
	movq	%rax, -264(%rbp)
Ltmp586:
	.loc	40 93 6 is_stmt 1
	movq	-264(%rbp), %rax
	movq	-256(%rbp), %rdx
	addq	$280, %rsp
	popq	%rbp
	retq
Ltmp587:
Lfunc_end83:
	.cfi_endproc

	.globl	__ZN4core5slice4iter87_$LT$impl$u20$core..iter..traits..collect..IntoIterator$u20$for$u20$$RF$$u5b$T$u5d$$GT$9into_iter17hb5eace6956c54a3cE
	.p2align	4, 0x90
__ZN4core5slice4iter87_$LT$impl$u20$core..iter..traits..collect..IntoIterator$u20$for$u20$$RF$$u5b$T$u5d$$GT$9into_iter17hb5eace6956c54a3cE:
Lfunc_begin84:
	.loc	40 23 0
	.cfi_startproc
	pushq	%rbp
	.cfi_def_cfa_offset 16
	.cfi_offset %rbp, -16
	movq	%rsp, %rbp
	.cfi_def_cfa_register %rbp
	subq	$32, %rsp
	movq	%rdi, -32(%rbp)
	movq	%rsi, -24(%rbp)
Ltmp588:
	.loc	40 24 9 prologue_end
	movq	%rdi, -16(%rbp)
	movq	%rsi, -8(%rbp)
Ltmp589:
	.loc	18 742 9
	callq	__ZN4core5slice4iter13Iter$LT$T$GT$3new17h2c6db06c608920e6E
Ltmp590:
	.loc	40 25 6
	addq	$32, %rsp
	popq	%rbp
	retq
Ltmp591:
Lfunc_end84:
	.cfi_endproc

	.p2align	4, 0x90
__ZN4core5slice5ascii30_$LT$impl$u20$$u5b$u8$u5d$$GT$20eq_ignore_ascii_case17h2e67bbe94ddb9be9E:
Lfunc_begin85:
	.file	41 "/rustc/2c8cc343237b8f7d5a3c3703e3a87f2eb2c54a74/library/core/src/slice" "ascii.rs"
	.loc	41 26 0
	.cfi_startproc
	pushq	%rbp
	.cfi_def_cfa_offset 16
	.cfi_offset %rbp, -16
	movq	%rsp, %rbp
	.cfi_def_cfa_register %rbp
	subq	$160, %rsp
	movq	%rdi, -160(%rbp)
	movq	%rsi, -152(%rbp)
	movq	%rdx, -144(%rbp)
	movq	%rcx, -136(%rbp)
	movq	%rdi, -56(%rbp)
	movq	%rsi, -48(%rbp)
	movq	%rdx, -40(%rbp)
	movq	%rcx, -32(%rbp)
Ltmp592:
	.loc	41 27 9 prologue_end
	cmpq	%rcx, %rsi
	je	LBB85_2
	movb	$0, -121(%rbp)
	jmp	LBB85_3
LBB85_2:
	.loc	41 0 9 is_stmt 0
	movq	-136(%rbp), %r8
	movq	-144(%rbp), %rcx
	movq	-152(%rbp), %rdx
	movq	-160(%rbp), %rsi
	.loc	41 27 38
	leaq	-120(%rbp), %rdi
	callq	__ZN4core4iter8adapters3zip3zip17h75251dea903521d9E
	leaq	-120(%rbp), %rax
	movq	%rax, -8(%rbp)
Ltmp593:
	.loc	37 2607 9 is_stmt 1
	leaq	-120(%rbp), %rdi
	callq	__ZN4core4iter6traits8iterator8Iterator8try_fold17h8ce9d0c23ef42124E
	andb	$1, %al
	movb	%al, -57(%rbp)
	leaq	-57(%rbp), %rdi
	leaq	l___unnamed_17(%rip), %rsi
	callq	__ZN90_$LT$core..ops..control_flow..ControlFlow$LT$B$C$C$GT$$u20$as$u20$core..cmp..PartialEq$GT$2eq17hd8f6b9e8813eda79E
Ltmp594:
	.loc	41 27 9
	andb	$1, %al
	movb	%al, -121(%rbp)
LBB85_3:
	.loc	41 28 6
	movb	-121(%rbp), %al
	andb	$1, %al
	movzbl	%al, %eax
	addq	$160, %rsp
	popq	%rbp
	retq
Ltmp595:
Lfunc_end85:
	.cfi_endproc

	.globl	__ZN4core5slice5ascii30_$LT$impl$u20$$u5b$u8$u5d$$GT$20eq_ignore_ascii_case28_$u7b$$u7b$closure$u7d$$u7d$17he12d02ae75e722ccE
	.p2align	4, 0x90
__ZN4core5slice5ascii30_$LT$impl$u20$$u5b$u8$u5d$$GT$20eq_ignore_ascii_case28_$u7b$$u7b$closure$u7d$$u7d$17he12d02ae75e722ccE:
Lfunc_begin86:
	.loc	41 27 0
	.cfi_startproc
	pushq	%rbp
	.cfi_def_cfa_offset 16
	.cfi_offset %rbp, -16
	movq	%rsp, %rbp
	.cfi_def_cfa_register %rbp
	subq	$64, %rsp
	movq	%rdx, -56(%rbp)
	movq	%rsi, %rax
	movq	-56(%rbp), %rsi
	movq	%rax, -48(%rbp)
	movq	%rdi, %rax
	movq	-48(%rbp), %rdi
	movq	%rax, -40(%rbp)
	movq	%rdi, -32(%rbp)
	movq	%rsi, -24(%rbp)
Ltmp596:
	.loc	41 27 67 prologue_end
	movq	%rdi, -16(%rbp)
	.loc	41 27 70 is_stmt 0
	movq	%rsi, -8(%rbp)
Ltmp597:
	.loc	41 27 74
	callq	__ZN4core3num20_$LT$impl$u20$u8$GT$20eq_ignore_ascii_case17h8a4f613ae507fab4E
Ltmp598:
	.loc	41 27 99
	andb	$1, %al
	movzbl	%al, %eax
	addq	$64, %rsp
	popq	%rbp
	retq
Ltmp599:
Lfunc_end86:
	.cfi_endproc

	.globl	__ZN4core6option15Option$LT$T$GT$16unwrap_unchecked17h3cd1ce7b0c7482bbE
	.p2align	4, 0x90
__ZN4core6option15Option$LT$T$GT$16unwrap_unchecked17h3cd1ce7b0c7482bbE:
Lfunc_begin87:
	.loc	27 933 0 is_stmt 1
	.cfi_startproc
	.cfi_personality 155, _rust_eh_personality
	.cfi_lsda 16, Lexception13
	pushq	%rbp
	.cfi_def_cfa_offset 16
	.cfi_offset %rbp, -16
	movq	%rsp, %rbp
	.cfi_def_cfa_register %rbp
	subq	$32, %rsp
	movq	%rdi, -32(%rbp)
Ltmp603:
	.loc	27 935 15 prologue_end
	movq	-32(%rbp), %rdx
	movl	$1, %eax
	xorl	%ecx, %ecx
	cmpq	$0, %rdx
	cmoveq	%rcx, %rax
	.loc	27 935 9 is_stmt 0
	cmpq	$0, %rax
	jne	LBB87_2
Ltmp600:
	.loc	27 938 30 is_stmt 1
	callq	__ZN4core4hint21unreachable_unchecked17h55636c216624031aE
Ltmp601:
	jmp	LBB87_5
LBB87_2:
	.loc	27 936 18
	movq	-32(%rbp), %rax
	movq	%rax, -24(%rbp)
	.loc	27 940 6
	addq	$32, %rsp
	popq	%rbp
	retq
LBB87_3:
	.loc	27 940 5 is_stmt 0
	movq	-32(%rbp), %rdx
	movl	$1, %eax
	xorl	%ecx, %ecx
	cmpq	$0, %rdx
	cmoveq	%rcx, %rax
	cmpq	$1, %rax
	je	LBB87_6
	jmp	LBB87_7
LBB87_4:
Ltmp602:
	.loc	27 0 5
	movq	%rax, %rcx
	movl	%edx, %eax
	movq	%rcx, -16(%rbp)
	movl	%eax, -8(%rbp)
	jmp	LBB87_3
LBB87_5:
	ud2
LBB87_6:
	.loc	27 940 5
	movb	$1, %al
	testb	$1, %al
	jne	LBB87_8
	jmp	LBB87_7
LBB87_7:
	.loc	27 933 5 is_stmt 1
	movq	-16(%rbp), %rdi
	callq	__Unwind_Resume
LBB87_8:
	.loc	27 940 5
	jmp	LBB87_7
Ltmp604:
Lfunc_end87:
	.cfi_endproc
	.section	__TEXT,__gcc_except_tab
	.p2align	2
GCC_except_table87:
Lexception13:
	.byte	255
	.byte	255
	.byte	1
	.uleb128 Lcst_end13-Lcst_begin13
Lcst_begin13:
	.uleb128 Ltmp600-Lfunc_begin87
	.uleb128 Ltmp601-Ltmp600
	.uleb128 Ltmp602-Lfunc_begin87
	.byte	0
	.uleb128 Ltmp601-Lfunc_begin87
	.uleb128 Lfunc_end87-Ltmp601
	.byte	0
	.byte	0
Lcst_end13:
	.p2align	2

	.section	__TEXT,__text,regular,pure_instructions
	.globl	__ZN4core6option15Option$LT$T$GT$3map17h4d0410422c7c77dbE
	.p2align	4, 0x90
__ZN4core6option15Option$LT$T$GT$3map17h4d0410422c7c77dbE:
Lfunc_begin88:
	.loc	27 964 0
	.cfi_startproc
	pushq	%rbp
	.cfi_def_cfa_offset 16
	.cfi_offset %rbp, -16
	movq	%rsp, %rbp
	.cfi_def_cfa_register %rbp
	subq	$32, %rsp
	movl	%edi, -32(%rbp)
	movl	%esi, -28(%rbp)
Ltmp605:
	.loc	27 969 15 prologue_end
	movb	$1, -9(%rbp)
	movl	-32(%rbp), %eax
	.loc	27 969 9 is_stmt 0
	cmpq	$0, %rax
	jne	LBB88_2
	.loc	27 971 21 is_stmt 1
	movl	$1114112, -20(%rbp)
	jmp	LBB88_3
LBB88_2:
	.loc	27 970 18
	movl	-28(%rbp), %eax
	movl	%eax, -4(%rbp)
Ltmp606:
	.loc	27 970 29 is_stmt 0
	movb	$0, -9(%rbp)
	movl	%eax, -16(%rbp)
	movl	-16(%rbp), %edi
	callq	__ZN81_$LT$core..str..iter..Chars$u20$as$u20$core..iter..traits..iterator..Iterator$GT$4next28_$u7b$$u7b$closure$u7d$$u7d$17h8054d34c3c2668a5E
	.loc	27 970 24
	movl	%eax, -20(%rbp)
Ltmp607:
LBB88_3:
	.loc	27 973 5 is_stmt 1
	testb	$1, -9(%rbp)
	jne	LBB88_5
LBB88_4:
	.loc	27 973 6 is_stmt 0
	movl	-20(%rbp), %eax
	addq	$32, %rsp
	popq	%rbp
	retq
LBB88_5:
	.loc	27 973 5
	jmp	LBB88_4
Ltmp608:
Lfunc_end88:
	.cfi_endproc

	.globl	__ZN4core6option15Option$LT$T$GT$3map17h6cd0eb391fa8ad96E
	.p2align	4, 0x90
__ZN4core6option15Option$LT$T$GT$3map17h6cd0eb391fa8ad96E:
Lfunc_begin89:
	.loc	27 964 0 is_stmt 1
	.cfi_startproc
	pushq	%rbp
	.cfi_def_cfa_offset 16
	.cfi_offset %rbp, -16
	movq	%rsp, %rbp
	.cfi_def_cfa_register %rbp
	subq	$80, %rsp
	movq	%rdx, -72(%rbp)
	movq	%rdi, -64(%rbp)
	movq	%rsi, -56(%rbp)
	movq	%rdx, -16(%rbp)
Ltmp609:
	.loc	27 969 15 prologue_end
	movb	$1, -17(%rbp)
	.loc	27 969 9 is_stmt 0
	cmpq	$0, -64(%rbp)
	jne	LBB89_2
	.loc	27 971 21 is_stmt 1
	movq	$0, -48(%rbp)
	jmp	LBB89_3
LBB89_2:
	.loc	27 0 21 is_stmt 0
	movq	-72(%rbp), %rdi
	.loc	27 970 18 is_stmt 1
	movq	-56(%rbp), %rax
	movq	%rax, -8(%rbp)
Ltmp610:
	.loc	27 970 29 is_stmt 0
	movb	$0, -17(%rbp)
	movq	%rax, -32(%rbp)
	movq	-32(%rbp), %rsi
	callq	__ZN4core3ops8function5impls80_$LT$impl$u20$core..ops..function..FnOnce$LT$A$GT$$u20$for$u20$$RF$mut$u20$F$GT$9call_once17heb424337f2c905adE
	.loc	27 970 24
	movq	%rax, -40(%rbp)
	movq	$1, -48(%rbp)
Ltmp611:
LBB89_3:
	.loc	27 973 5 is_stmt 1
	testb	$1, -17(%rbp)
	jne	LBB89_5
LBB89_4:
	.loc	27 973 6 is_stmt 0
	movq	-48(%rbp), %rax
	movq	-40(%rbp), %rdx
	addq	$80, %rsp
	popq	%rbp
	retq
LBB89_5:
	.loc	27 973 5
	jmp	LBB89_4
Ltmp612:
Lfunc_end89:
	.cfi_endproc

	.globl	__ZN4core6option15Option$LT$T$GT$3map17h77d962c0d0d58a64E
	.p2align	4, 0x90
__ZN4core6option15Option$LT$T$GT$3map17h77d962c0d0d58a64E:
Lfunc_begin90:
	.loc	27 964 0 is_stmt 1
	.cfi_startproc
	pushq	%rbp
	.cfi_def_cfa_offset 16
	.cfi_offset %rbp, -16
	movq	%rsp, %rbp
	.cfi_def_cfa_register %rbp
	subq	$64, %rsp
	movq	%rsi, -64(%rbp)
	movq	%rdx, -56(%rbp)
	movl	%edi, -44(%rbp)
	movq	%rsi, -24(%rbp)
	movq	%rdx, -16(%rbp)
Ltmp613:
	.loc	27 969 15 prologue_end
	movb	$1, -25(%rbp)
	movl	$1, %eax
	xorl	%ecx, %ecx
	cmpl	$1114112, -44(%rbp)
	cmoveq	%rcx, %rax
	.loc	27 969 9 is_stmt 0
	cmpq	$0, %rax
	jne	LBB90_2
	.loc	27 971 21 is_stmt 1
	movw	$0, -40(%rbp)
	jmp	LBB90_3
LBB90_2:
	.loc	27 0 21 is_stmt 0
	movq	-56(%rbp), %rsi
	movq	-64(%rbp), %rdi
	.loc	27 970 18 is_stmt 1
	movl	-44(%rbp), %eax
	movl	%eax, -4(%rbp)
Ltmp614:
	.loc	27 970 29 is_stmt 0
	movb	$0, -25(%rbp)
	movl	%eax, -32(%rbp)
	movl	-32(%rbp), %edx
	callq	__ZN87_$LT$core..str..iter..EncodeUtf16$u20$as$u20$core..iter..traits..iterator..Iterator$GT$4next28_$u7b$$u7b$closure$u7d$$u7d$17he69a322db5c48c1cE
	.loc	27 970 24
	movw	%ax, -38(%rbp)
	movw	$1, -40(%rbp)
Ltmp615:
LBB90_3:
	.loc	27 973 5 is_stmt 1
	testb	$1, -25(%rbp)
	jne	LBB90_5
LBB90_4:
	.loc	27 973 6 is_stmt 0
	movw	-40(%rbp), %ax
	movw	-38(%rbp), %dx
	addq	$64, %rsp
	popq	%rbp
	retq
LBB90_5:
	.loc	27 973 5
	jmp	LBB90_4
Ltmp616:
Lfunc_end90:
	.cfi_endproc

	.globl	__ZN4core6option15Option$LT$T$GT$8and_then17hd09ea49ed102c0aaE
	.p2align	4, 0x90
__ZN4core6option15Option$LT$T$GT$8and_then17hd09ea49ed102c0aaE:
Lfunc_begin91:
	.loc	27 1303 0 is_stmt 1
	.cfi_startproc
	pushq	%rbp
	.cfi_def_cfa_offset 16
	.cfi_offset %rbp, -16
	movq	%rsp, %rbp
	.cfi_def_cfa_register %rbp
	subq	$64, %rsp
	movq	%rdi, -64(%rbp)
	movq	%rsi, -56(%rbp)
Ltmp617:
	.loc	27 1308 15 prologue_end
	movb	$1, -17(%rbp)
	.loc	27 1308 9 is_stmt 0
	cmpq	$0, -64(%rbp)
	jne	LBB91_2
	.loc	27 1310 21 is_stmt 1
	movq	$0, -48(%rbp)
	jmp	LBB91_3
LBB91_2:
	.loc	27 1309 18
	movq	-56(%rbp), %rax
	movq	%rax, -8(%rbp)
Ltmp618:
	.loc	27 1309 24 is_stmt 0
	movb	$0, -17(%rbp)
	movq	%rax, -32(%rbp)
	movq	-32(%rbp), %rdi
	callq	__ZN87_$LT$core..str..iter..EncodeUtf16$u20$as$u20$core..iter..traits..iterator..Iterator$GT$9size_hint28_$u7b$$u7b$closure$u7d$$u7d$17hbf27009b222a66d5E
	movq	%rdx, -40(%rbp)
	movq	%rax, -48(%rbp)
Ltmp619:
LBB91_3:
	.loc	27 1312 5 is_stmt 1
	testb	$1, -17(%rbp)
	jne	LBB91_5
LBB91_4:
	.loc	27 1312 6 is_stmt 0
	movq	-48(%rbp), %rax
	movq	-40(%rbp), %rdx
	addq	$64, %rsp
	popq	%rbp
	retq
LBB91_5:
	.loc	27 1312 5
	jmp	LBB91_4
Ltmp620:
Lfunc_end91:
	.cfi_endproc

	.globl	__ZN4core6option15Option$LT$T$GT$9unwrap_or17hc46e9a7b89a0d35fE
	.p2align	4, 0x90
__ZN4core6option15Option$LT$T$GT$9unwrap_or17hc46e9a7b89a0d35fE:
Lfunc_begin92:
	.loc	27 844 0 is_stmt 1
	.cfi_startproc
	pushq	%rbp
	.cfi_def_cfa_offset 16
	.cfi_offset %rbp, -16
	movq	%rsp, %rbp
	.cfi_def_cfa_register %rbp
	subq	$56, %rsp
	movq	%rdx, -56(%rbp)
	movq	%rdi, -48(%rbp)
	movq	%rsi, -40(%rbp)
	movq	%rdx, -16(%rbp)
Ltmp621:
	.loc	27 848 15 prologue_end
	movb	$1, -17(%rbp)
	.loc	27 848 9 is_stmt 0
	cmpq	$0, -48(%rbp)
	jne	LBB92_2
	.loc	27 0 9
	movq	-56(%rbp), %rax
	.loc	27 850 21 is_stmt 1
	movb	$0, -17(%rbp)
	movq	%rax, -32(%rbp)
	jmp	LBB92_3
LBB92_2:
	.loc	27 849 18
	movq	-40(%rbp), %rax
	movq	%rax, -8(%rbp)
Ltmp622:
	.loc	27 849 24 is_stmt 0
	movq	%rax, -32(%rbp)
Ltmp623:
LBB92_3:
	.loc	27 852 5 is_stmt 1
	testb	$1, -17(%rbp)
	jne	LBB92_5
LBB92_4:
	.loc	27 852 6 is_stmt 0
	movq	-32(%rbp), %rax
	addq	$56, %rsp
	popq	%rbp
	retq
LBB92_5:
	.loc	27 852 5
	jmp	LBB92_4
Ltmp624:
Lfunc_end92:
	.cfi_endproc

	.globl	__ZN4core6option15Option$LT$T$GT$9unwrap_or17hde58f476c01f56a1E
	.p2align	4, 0x90
__ZN4core6option15Option$LT$T$GT$9unwrap_or17hde58f476c01f56a1E:
Lfunc_begin93:
	.loc	27 844 0 is_stmt 1
	.cfi_startproc
	pushq	%rbp
	.cfi_def_cfa_offset 16
	.cfi_offset %rbp, -16
	movq	%rsp, %rbp
	.cfi_def_cfa_register %rbp
	subq	$32, %rsp
	movl	%edx, -28(%rbp)
	movl	%edi, -24(%rbp)
	movl	%esi, -20(%rbp)
	movl	%edx, -8(%rbp)
Ltmp625:
	.loc	27 848 15 prologue_end
	movb	$1, -9(%rbp)
	movl	-24(%rbp), %eax
	.loc	27 848 9 is_stmt 0
	cmpq	$0, %rax
	jne	LBB93_2
	.loc	27 0 9
	movl	-28(%rbp), %eax
	.loc	27 850 21 is_stmt 1
	movb	$0, -9(%rbp)
	movl	%eax, -16(%rbp)
	jmp	LBB93_3
LBB93_2:
	.loc	27 849 18
	movl	-20(%rbp), %eax
	movl	%eax, -4(%rbp)
Ltmp626:
	.loc	27 849 24 is_stmt 0
	movl	%eax, -16(%rbp)
Ltmp627:
LBB93_3:
	.loc	27 852 5 is_stmt 1
	testb	$1, -9(%rbp)
	jne	LBB93_5
LBB93_4:
	.loc	27 852 6 is_stmt 0
	movl	-16(%rbp), %eax
	addq	$32, %rsp
	popq	%rbp
	retq
LBB93_5:
	.loc	27 852 5
	jmp	LBB93_4
Ltmp628:
Lfunc_end93:
	.cfi_endproc

	.globl	__ZN5alloc3vec16Vec$LT$T$C$A$GT$16extend_desugared17h02fd99c75ac2c944E
	.p2align	4, 0x90
__ZN5alloc3vec16Vec$LT$T$C$A$GT$16extend_desugared17h02fd99c75ac2c944E:
Lfunc_begin94:
	.loc	7 2845 0 is_stmt 1
	.cfi_startproc
	.cfi_personality 155, _rust_eh_personality
	.cfi_lsda 16, Lexception14
	pushq	%rbp
	.cfi_def_cfa_offset 16
	.cfi_offset %rbp, -16
	movq	%rsp, %rbp
	.cfi_def_cfa_register %rbp
	subq	$352, %rsp
	movq	%rdi, -296(%rbp)
	movq	%rsi, -288(%rbp)
Ltmp637:
	movq	%rdi, -224(%rbp)
Ltmp638:
LBB94_1:
Ltmp629:
	movq	-288(%rbp), %rdi
Ltmp639:
	.loc	7 2853 35 prologue_end
	callq	__ZN87_$LT$core..str..iter..EncodeUtf16$u20$as$u20$core..iter..traits..iterator..Iterator$GT$4next17hd3074c085780e426E
Ltmp630:
	movw	%dx, -300(%rbp)
	movw	%ax, -298(%rbp)
	jmp	LBB94_4
Ltmp640:
LBB94_2:
	.loc	7 2845 5
	movq	-216(%rbp), %rdi
	callq	__Unwind_Resume
Ltmp641:
LBB94_3:
Ltmp631:
	.loc	7 0 5 is_stmt 0
	movq	%rax, %rcx
	movl	%edx, %eax
	movq	%rcx, -216(%rbp)
	movl	%eax, -208(%rbp)
	jmp	LBB94_2
Ltmp642:
LBB94_4:
	movw	-300(%rbp), %ax
	movw	-298(%rbp), %cx
Ltmp643:
	.loc	7 2853 35 is_stmt 1
	movw	%cx, -280(%rbp)
	movw	%ax, -278(%rbp)
	.loc	7 2853 19 is_stmt 0
	movzwl	-280(%rbp), %eax
	cmpq	$1, %rax
	jne	LBB94_6
Ltmp644:
	.loc	7 0 19
	movq	-296(%rbp), %rax
	.loc	7 2853 24
	movw	-278(%rbp), %cx
	movw	%cx, -314(%rbp)
	movw	%cx, -194(%rbp)
	.loc	7 2854 23 is_stmt 1
	movq	%rax, -192(%rbp)
Ltmp645:
	.loc	7 2062 9
	movq	16(%rax), %rcx
	movq	%rcx, -312(%rbp)
	movq	%rcx, -184(%rbp)
Ltmp646:
	.loc	7 2855 23
	movq	%rax, -176(%rbp)
Ltmp647:
	.loc	7 889 9
	movq	%rax, -168(%rbp)
Ltmp648:
	.loc	10 232 12
	xorl	%eax, %eax
	testb	$1, %al
	jne	LBB94_9
	jmp	LBB94_8
Ltmp649:
LBB94_6:
	.loc	7 2853 9
	jmp	LBB94_7
Ltmp650:
LBB94_7:
	.loc	7 2867 6
	addq	$352, %rsp
	popq	%rbp
	retq
Ltmp651:
LBB94_8:
	.loc	7 0 6 is_stmt 0
	movq	-296(%rbp), %rax
Ltmp652:
	.loc	10 232 44 is_stmt 1
	movq	(%rax), %rax
	movq	%rax, -272(%rbp)
	.loc	10 232 9 is_stmt 0
	jmp	LBB94_10
Ltmp653:
LBB94_9:
	.loc	10 232 24
	movq	$-1, -272(%rbp)
Ltmp654:
LBB94_10:
	.loc	10 0 24
	movq	-312(%rbp), %rax
	.loc	7 2855 16 is_stmt 1
	cmpq	-272(%rbp), %rax
	je	LBB94_12
Ltmp655:
LBB94_11:
	.loc	7 0 16 is_stmt 0
	movq	-296(%rbp), %rax
	.loc	7 2860 28 is_stmt 1
	movq	%rax, -136(%rbp)
Ltmp656:
	.loc	7 1280 19
	movq	%rax, -128(%rbp)
Ltmp657:
	.loc	10 224 9
	movq	8(%rax), %rax
	movq	%rax, -328(%rbp)
	movq	%rax, -120(%rbp)
Ltmp658:
	.loc	11 104 9
	movq	%rax, -112(%rbp)
Ltmp659:
	.loc	12 326 9
	movq	%rax, -104(%rbp)
Ltmp660:
	.loc	7 1282 21
	movq	%rax, -96(%rbp)
Ltmp661:
	.loc	13 52 36
	movq	%rax, -232(%rbp)
	.loc	13 52 18 is_stmt 0
	movq	-232(%rbp), %rax
	movq	%rax, -88(%rbp)
Ltmp662:
	.loc	13 38 13 is_stmt 1
	movq	%rax, -80(%rbp)
Ltmp663:
	.loc	13 215 33
	movq	%rax, -72(%rbp)
	.loc	13 215 18 is_stmt 0
	movq	%rax, -64(%rbp)
	movq	-64(%rbp), %rax
	jmp	LBB94_18
Ltmp664:
LBB94_12:
Ltmp632:
	.loc	13 0 18
	movq	-288(%rbp), %rsi
	leaq	-264(%rbp), %rdi
	.loc	7 2856 34 is_stmt 1
	callq	__ZN87_$LT$core..str..iter..EncodeUtf16$u20$as$u20$core..iter..traits..iterator..Iterator$GT$9size_hint17hea5f05521c6e3af0E
Ltmp633:
	jmp	LBB94_15
Ltmp665:
LBB94_13:
	.loc	7 2866 9
	movb	$1, %al
	testb	$1, %al
	jne	LBB94_20
	jmp	LBB94_2
Ltmp666:
LBB94_14:
Ltmp636:
	.loc	7 0 9 is_stmt 0
	movq	%rax, %rcx
	movl	%edx, %eax
	movq	%rcx, -216(%rbp)
	movl	%eax, -208(%rbp)
	jmp	LBB94_13
Ltmp667:
LBB94_15:
	.loc	7 2856 22 is_stmt 1
	movq	-264(%rbp), %rax
	movq	%rax, -160(%rbp)
Ltmp668:
	.loc	7 2857 30
	movq	%rax, -152(%rbp)
Ltmp669:
	.loc	8 1022 13
	incq	%rax
	movq	$-1, %rcx
	cmoveq	%rcx, %rax
	movq	%rax, -144(%rbp)
	movq	-144(%rbp), %rax
	movq	%rax, -336(%rbp)
Ltmp670:
Ltmp634:
	.loc	8 0 13 is_stmt 0
	movq	-336(%rbp), %rsi
	movq	-296(%rbp), %rdi
	.loc	7 2857 17 is_stmt 1
	callq	__ZN5alloc3vec16Vec$LT$T$C$A$GT$7reserve17h9c1644b65d8d1b90E
Ltmp635:
	jmp	LBB94_17
Ltmp671:
LBB94_17:
	.loc	7 2855 13
	jmp	LBB94_11
Ltmp672:
LBB94_18:
	.loc	7 0 13 is_stmt 0
	movq	-328(%rbp), %rax
	movq	-312(%rbp), %rcx
	.loc	7 2860 50 is_stmt 1
	movq	%rcx, -56(%rbp)
Ltmp673:
	.loc	13 1034 18
	movq	%rax, -48(%rbp)
	.loc	13 1034 30 is_stmt 0
	movq	%rcx, -40(%rbp)
Ltmp674:
	.loc	13 487 18 is_stmt 1
	shlq	$1, %rcx
	addq	%rcx, %rax
	movq	%rax, -32(%rbp)
	movq	-32(%rbp), %rax
	movq	%rax, -344(%rbp)
Ltmp675:
	.loc	13 0 18 is_stmt 0
	movq	-296(%rbp), %rax
	movq	-312(%rbp), %rcx
	movq	-344(%rbp), %rdx
	movw	-314(%rbp), %si
	.loc	13 487 18
	movq	%rdx, -24(%rbp)
Ltmp676:
	.loc	7 2860 56 is_stmt 1
	movw	%si, -234(%rbp)
Ltmp677:
	.loc	14 1354 9
	movw	-234(%rbp), %si
	movw	%si, (%rdx)
Ltmp678:
	.loc	7 2864 17
	movq	%rax, -16(%rbp)
	.loc	7 2864 30 is_stmt 0
	addq	$1, %rcx
	movq	%rcx, -8(%rbp)
Ltmp679:
	.loc	7 1377 9 is_stmt 1
	movq	%rcx, 16(%rax)
Ltmp680:
	.loc	7 2853 9
	jmp	LBB94_1
Ltmp681:
LBB94_20:
	.loc	7 2866 9
	jmp	LBB94_2
Ltmp682:
Lfunc_end94:
	.cfi_endproc
	.section	__TEXT,__gcc_except_tab
	.p2align	2
GCC_except_table94:
Lexception14:
	.byte	255
	.byte	255
	.byte	1
	.uleb128 Lcst_end14-Lcst_begin14
Lcst_begin14:
	.uleb128 Ltmp629-Lfunc_begin94
	.uleb128 Ltmp630-Ltmp629
	.uleb128 Ltmp631-Lfunc_begin94
	.byte	0
	.uleb128 Ltmp630-Lfunc_begin94
	.uleb128 Ltmp632-Ltmp630
	.byte	0
	.byte	0
	.uleb128 Ltmp632-Lfunc_begin94
	.uleb128 Ltmp635-Ltmp632
	.uleb128 Ltmp636-Lfunc_begin94
	.byte	0
Lcst_end14:
	.p2align	2

	.section	__TEXT,__text,regular,pure_instructions
	.globl	__ZN5alloc3vec16Vec$LT$T$C$A$GT$16extend_desugared17hb9a23f36ae18b1e9E
	.p2align	4, 0x90
__ZN5alloc3vec16Vec$LT$T$C$A$GT$16extend_desugared17hb9a23f36ae18b1e9E:
Lfunc_begin95:
	.loc	7 2845 0
	.cfi_startproc
	.cfi_personality 155, _rust_eh_personality
	.cfi_lsda 16, Lexception15
	pushq	%rbp
	.cfi_def_cfa_offset 16
	.cfi_offset %rbp, -16
	movq	%rsp, %rbp
	.cfi_def_cfa_register %rbp
	subq	$352, %rsp
	movq	%rdi, -304(%rbp)
	movq	%rsi, -296(%rbp)
Ltmp696:
	movq	%rdi, -216(%rbp)
Ltmp697:
LBB95_1:
Ltmp683:
	movq	-296(%rbp), %rdi
Ltmp698:
	.loc	7 2853 35 prologue_end
	callq	__ZN102_$LT$core..iter..adapters..map..Map$LT$I$C$F$GT$$u20$as$u20$core..iter..traits..iterator..Iterator$GT$4next17hca3cb2fb44a61348E
Ltmp684:
	movq	%rdx, -320(%rbp)
	movq	%rax, -312(%rbp)
	jmp	LBB95_4
Ltmp699:
LBB95_2:
	.loc	7 2845 5
	movq	-208(%rbp), %rdi
	callq	__Unwind_Resume
Ltmp700:
LBB95_3:
Ltmp687:
	.loc	7 0 5 is_stmt 0
	movq	%rax, %rcx
	movl	%edx, %eax
	movq	%rcx, -208(%rbp)
	movl	%eax, -200(%rbp)
	jmp	LBB95_2
Ltmp701:
LBB95_4:
	movq	-320(%rbp), %rax
	movq	-312(%rbp), %rcx
Ltmp702:
	.loc	7 2853 35 is_stmt 1
	movq	%rcx, -288(%rbp)
	movq	%rax, -280(%rbp)
	.loc	7 2853 19 is_stmt 0
	cmpq	$1, -288(%rbp)
	jne	LBB95_6
Ltmp703:
	.loc	7 0 19
	movq	-304(%rbp), %rax
	.loc	7 2853 24
	movq	-280(%rbp), %rcx
	movq	%rcx, -272(%rbp)
	.loc	7 2854 23 is_stmt 1
	movq	%rax, -192(%rbp)
Ltmp704:
	.loc	7 2062 9
	movq	16(%rax), %rcx
	movq	%rcx, -328(%rbp)
	movq	%rcx, -184(%rbp)
Ltmp705:
	.loc	7 2855 23
	movq	%rax, -176(%rbp)
Ltmp706:
	.loc	7 889 9
	movq	%rax, -168(%rbp)
Ltmp707:
	.loc	10 232 12
	xorl	%eax, %eax
	testb	$1, %al
	jne	LBB95_9
	jmp	LBB95_8
Ltmp708:
LBB95_6:
Ltmp685:
	.loc	10 0 12 is_stmt 0
	leaq	-288(%rbp), %rdi
	.loc	7 2853 9 is_stmt 1
	callq	__ZN4core3ptr86drop_in_place$LT$core..option..Option$LT$core_graphics..display..CGDisplayMode$GT$$GT$17hd911b34b12688fb5E
Ltmp686:
	jmp	LBB95_7
Ltmp709:
LBB95_7:
	.loc	7 2867 6
	addq	$352, %rsp
	popq	%rbp
	retq
Ltmp710:
LBB95_8:
	.loc	7 0 6 is_stmt 0
	movq	-304(%rbp), %rax
Ltmp711:
	.loc	10 232 44 is_stmt 1
	movq	(%rax), %rax
	movq	%rax, -264(%rbp)
	.loc	10 232 9 is_stmt 0
	jmp	LBB95_10
Ltmp712:
LBB95_9:
	.loc	10 232 24
	movq	$-1, -264(%rbp)
Ltmp713:
LBB95_10:
	.loc	10 0 24
	movq	-328(%rbp), %rax
	.loc	7 2855 16 is_stmt 1
	cmpq	-264(%rbp), %rax
	je	LBB95_12
Ltmp714:
LBB95_11:
	.loc	7 0 16 is_stmt 0
	movq	-304(%rbp), %rax
	.loc	7 2860 28 is_stmt 1
	movq	%rax, -136(%rbp)
Ltmp715:
	.loc	7 1280 19
	movq	%rax, -128(%rbp)
Ltmp716:
	.loc	10 224 9
	movq	8(%rax), %rax
	movq	%rax, -336(%rbp)
	movq	%rax, -120(%rbp)
Ltmp717:
	.loc	11 104 9
	movq	%rax, -112(%rbp)
Ltmp718:
	.loc	12 326 9
	movq	%rax, -104(%rbp)
Ltmp719:
	.loc	7 1282 21
	movq	%rax, -96(%rbp)
Ltmp720:
	.loc	13 52 36
	movq	%rax, -224(%rbp)
	.loc	13 52 18 is_stmt 0
	movq	-224(%rbp), %rax
	movq	%rax, -88(%rbp)
Ltmp721:
	.loc	13 38 13 is_stmt 1
	movq	%rax, -80(%rbp)
Ltmp722:
	.loc	13 215 33
	movq	%rax, -72(%rbp)
	.loc	13 215 18 is_stmt 0
	movq	%rax, -64(%rbp)
	movq	-64(%rbp), %rax
	jmp	LBB95_18
Ltmp723:
LBB95_12:
Ltmp688:
	.loc	13 0 18
	movq	-296(%rbp), %rsi
	leaq	-256(%rbp), %rdi
	.loc	7 2856 34 is_stmt 1
	callq	__ZN102_$LT$core..iter..adapters..map..Map$LT$I$C$F$GT$$u20$as$u20$core..iter..traits..iterator..Iterator$GT$9size_hint17hbdcc4e7aacd54a23E
Ltmp689:
	jmp	LBB95_15
Ltmp724:
LBB95_13:
	.loc	7 2866 9
	movb	$1, %al
	testb	$1, %al
	jne	LBB95_20
	jmp	LBB95_2
Ltmp725:
LBB95_14:
Ltmp692:
	.loc	7 0 9 is_stmt 0
	movq	%rax, %rcx
	movl	%edx, %eax
	movq	%rcx, -208(%rbp)
	movl	%eax, -200(%rbp)
	jmp	LBB95_13
Ltmp726:
LBB95_15:
	.loc	7 2856 22 is_stmt 1
	movq	-256(%rbp), %rax
	movq	%rax, -160(%rbp)
Ltmp727:
	.loc	7 2857 30
	movq	%rax, -152(%rbp)
Ltmp728:
	.loc	8 1022 13
	incq	%rax
	movq	$-1, %rcx
	cmoveq	%rcx, %rax
	movq	%rax, -144(%rbp)
	movq	-144(%rbp), %rax
	movq	%rax, -344(%rbp)
Ltmp729:
Ltmp690:
	.loc	8 0 13 is_stmt 0
	movq	-344(%rbp), %rsi
	movq	-304(%rbp), %rdi
	.loc	7 2857 17 is_stmt 1
	callq	__ZN5alloc3vec16Vec$LT$T$C$A$GT$7reserve17h743e9a417dbb20eeE
Ltmp691:
	jmp	LBB95_17
Ltmp730:
LBB95_17:
	.loc	7 2855 13
	jmp	LBB95_11
Ltmp731:
LBB95_18:
	.loc	7 0 13 is_stmt 0
	movq	-336(%rbp), %rax
	movq	-328(%rbp), %rcx
	.loc	7 2860 50 is_stmt 1
	movq	%rcx, -56(%rbp)
Ltmp732:
	.loc	13 1034 18
	movq	%rax, -48(%rbp)
	.loc	13 1034 30 is_stmt 0
	movq	%rcx, -40(%rbp)
Ltmp733:
	.loc	13 487 18 is_stmt 1
	shlq	$3, %rcx
	addq	%rcx, %rax
	movq	%rax, -32(%rbp)
	movq	-32(%rbp), %rax
	movq	%rax, -352(%rbp)
Ltmp734:
	.loc	13 0 18 is_stmt 0
	movq	-304(%rbp), %rax
	movq	-328(%rbp), %rcx
	movq	-352(%rbp), %rdx
	.loc	13 487 18
	movq	%rdx, -24(%rbp)
Ltmp735:
	.loc	7 2860 56 is_stmt 1
	movq	-272(%rbp), %rsi
	movq	%rsi, -232(%rbp)
Ltmp736:
	.loc	14 1354 9
	movq	-232(%rbp), %rsi
	movq	%rsi, (%rdx)
Ltmp737:
	.loc	7 2864 17
	movq	%rax, -16(%rbp)
	.loc	7 2864 30 is_stmt 0
	addq	$1, %rcx
	movq	%rcx, -8(%rbp)
Ltmp738:
	.loc	7 1377 9 is_stmt 1
	movq	%rcx, 16(%rax)
Ltmp739:
	.loc	7 2853 9
	jmp	LBB95_1
Ltmp740:
LBB95_20:
Ltmp693:
	.loc	7 0 9 is_stmt 0
	leaq	-272(%rbp), %rdi
	.loc	7 2866 9 is_stmt 1
	callq	__ZN4core3ptr58drop_in_place$LT$core_graphics..display..CGDisplayMode$GT$17hc337b18e8e56c2f6E
Ltmp694:
	jmp	LBB95_2
Ltmp741:
LBB95_21:
Ltmp695:
	.loc	7 2845 5
	callq	__ZN4core9panicking19panic_cannot_unwind17h1fbca7e1d7f56ae1E
Ltmp742:
Lfunc_end95:
	.cfi_endproc
	.section	__TEXT,__gcc_except_tab
	.p2align	2
GCC_except_table95:
Lexception15:
	.byte	255
	.byte	255
	.byte	1
	.uleb128 Lcst_end15-Lcst_begin15
Lcst_begin15:
	.uleb128 Ltmp683-Lfunc_begin95
	.uleb128 Ltmp684-Ltmp683
	.uleb128 Ltmp687-Lfunc_begin95
	.byte	0
	.uleb128 Ltmp684-Lfunc_begin95
	.uleb128 Ltmp685-Ltmp684
	.byte	0
	.byte	0
	.uleb128 Ltmp685-Lfunc_begin95
	.uleb128 Ltmp686-Ltmp685
	.uleb128 Ltmp687-Lfunc_begin95
	.byte	0
	.uleb128 Ltmp688-Lfunc_begin95
	.uleb128 Ltmp691-Ltmp688
	.uleb128 Ltmp692-Lfunc_begin95
	.byte	0
	.uleb128 Ltmp693-Lfunc_begin95
	.uleb128 Ltmp694-Ltmp693
	.uleb128 Ltmp695-Lfunc_begin95
	.byte	0
Lcst_end15:
	.p2align	2

	.section	__TEXT,__text,regular,pure_instructions
	.globl	__ZN5alloc3vec16Vec$LT$T$C$A$GT$7reserve17h743e9a417dbb20eeE
	.p2align	4, 0x90
__ZN5alloc3vec16Vec$LT$T$C$A$GT$7reserve17h743e9a417dbb20eeE:
Lfunc_begin96:
	.loc	7 911 0
	.cfi_startproc
	pushq	%rbp
	.cfi_def_cfa_offset 16
	.cfi_offset %rbp, -16
	movq	%rsp, %rbp
	.cfi_def_cfa_register %rbp
	subq	$16, %rsp
	movq	%rsi, %rdx
	movq	%rdi, -16(%rbp)
	movq	%rdx, -8(%rbp)
Ltmp743:
	.loc	7 912 26 prologue_end
	movq	16(%rdi), %rsi
	.loc	7 912 9 is_stmt 0
	callq	__ZN5alloc7raw_vec19RawVec$LT$T$C$A$GT$7reserve17h398e3aa36b57e8b8E
	.loc	7 913 6 is_stmt 1
	addq	$16, %rsp
	popq	%rbp
	retq
Ltmp744:
Lfunc_end96:
	.cfi_endproc

	.globl	__ZN5alloc3vec16Vec$LT$T$C$A$GT$7reserve17h9c1644b65d8d1b90E
	.p2align	4, 0x90
__ZN5alloc3vec16Vec$LT$T$C$A$GT$7reserve17h9c1644b65d8d1b90E:
Lfunc_begin97:
	.loc	7 911 0
	.cfi_startproc
	pushq	%rbp
	.cfi_def_cfa_offset 16
	.cfi_offset %rbp, -16
	movq	%rsp, %rbp
	.cfi_def_cfa_register %rbp
	subq	$16, %rsp
	movq	%rsi, %rdx
	movq	%rdi, -16(%rbp)
	movq	%rdx, -8(%rbp)
Ltmp745:
	.loc	7 912 26 prologue_end
	movq	16(%rdi), %rsi
	.loc	7 912 9 is_stmt 0
	callq	__ZN5alloc7raw_vec19RawVec$LT$T$C$A$GT$7reserve17h26d871d5f87f13a0E
	.loc	7 913 6 is_stmt 1
	addq	$16, %rsp
	popq	%rbp
	retq
Ltmp746:
Lfunc_end97:
	.cfi_endproc

	.p2align	4, 0x90
__ZN5alloc5alloc6Global10alloc_impl17ha2b0afca07d2c95dE:
Lfunc_begin98:
	.file	42 "/rustc/2c8cc343237b8f7d5a3c3703e3a87f2eb2c54a74/library/alloc/src" "alloc.rs"
	.loc	42 172 0
	.cfi_startproc
	pushq	%rbp
	.cfi_def_cfa_offset 16
	.cfi_offset %rbp, -16
	movq	%rsp, %rbp
	.cfi_def_cfa_register %rbp
	subq	$352, %rsp
	movb	%cl, %al
	movb	%al, -345(%rbp)
	movq	%rsi, -336(%rbp)
	movq	%rdx, -328(%rbp)
	movq	%rdi, -208(%rbp)
	andb	$1, %al
	movb	%al, -193(%rbp)
Ltmp747:
	.loc	42 173 15 prologue_end
	leaq	-336(%rbp), %rax
	movq	%rax, -144(%rbp)
Ltmp748:
	.loc	38 129 9
	movq	-336(%rbp), %rax
	movq	%rax, -344(%rbp)
Ltmp749:
	.loc	42 173 9
	cmpq	$0, %rax
	jne	LBB98_2
	.loc	42 174 51
	leaq	-336(%rbp), %rax
	movq	%rax, -48(%rbp)
Ltmp750:
	.loc	38 216 71
	leaq	-336(%rbp), %rax
	movq	%rax, -40(%rbp)
Ltmp751:
	.loc	38 140 9
	movq	-328(%rbp), %rax
	movq	%rax, -32(%rbp)
Ltmp752:
	.loc	39 97 9
	movq	%rax, -232(%rbp)
	movq	-232(%rbp), %rax
	movq	%rax, -24(%rbp)
Ltmp753:
	.loc	14 599 14
	movq	%rax, -16(%rbp)
	movq	-16(%rbp), %rax
	movq	%rax, -8(%rbp)
Ltmp754:
	.loc	12 201 13
	movq	%rax, -304(%rbp)
Ltmp755:
	.loc	42 174 21
	movq	-304(%rbp), %rdi
	xorl	%eax, %eax
	movl	%eax, %esi
	callq	__ZN4core3ptr8non_null26NonNull$LT$$u5b$T$u5d$$GT$20slice_from_raw_parts17hcd1a097b3234d26eE
	.loc	42 174 18 is_stmt 0
	movq	%rax, -320(%rbp)
	movq	%rdx, -312(%rbp)
	.loc	42 174 72
	jmp	LBB98_15
LBB98_2:
	.loc	42 0 72
	movb	-345(%rbp), %al
	movq	-344(%rbp), %rcx
	.loc	42 176 13 is_stmt 1
	movq	%rcx, -136(%rbp)
Ltmp756:
	.loc	42 177 34
	testb	$1, %al
	jne	LBB98_4
	.loc	42 177 79 is_stmt 0
	movq	-336(%rbp), %rcx
	movq	-328(%rbp), %rax
	movq	%rcx, -272(%rbp)
	movq	%rax, -264(%rbp)
Ltmp757:
	.loc	42 95 27 is_stmt 1
	leaq	-272(%rbp), %rax
	movq	%rax, -104(%rbp)
Ltmp758:
	.loc	38 129 9
	movq	-272(%rbp), %rdi
Ltmp759:
	.loc	42 95 42
	leaq	-272(%rbp), %rax
	movq	%rax, -96(%rbp)
Ltmp760:
	.loc	38 140 9
	movq	-264(%rbp), %rax
	movq	%rax, -88(%rbp)
Ltmp761:
	.loc	39 97 9
	movq	%rax, -216(%rbp)
	movq	-216(%rbp), %rsi
Ltmp762:
	.loc	42 95 14
	callq	___rust_alloc
	movq	%rax, -296(%rbp)
Ltmp763:
	.loc	42 177 31
	jmp	LBB98_5
LBB98_4:
	.loc	42 177 56 is_stmt 0
	movq	-336(%rbp), %rcx
	movq	-328(%rbp), %rax
	movq	%rcx, -288(%rbp)
	movq	%rax, -280(%rbp)
Ltmp764:
	.loc	42 166 34 is_stmt 1
	leaq	-288(%rbp), %rax
	movq	%rax, -128(%rbp)
Ltmp765:
	.loc	38 129 9
	movq	-288(%rbp), %rdi
Ltmp766:
	.loc	42 166 49
	leaq	-288(%rbp), %rax
	movq	%rax, -120(%rbp)
Ltmp767:
	.loc	38 140 9
	movq	-280(%rbp), %rax
	movq	%rax, -112(%rbp)
Ltmp768:
	.loc	39 97 9
	movq	%rax, -224(%rbp)
	movq	-224(%rbp), %rsi
Ltmp769:
	.loc	42 166 14
	callq	___rust_alloc_zeroed
	movq	%rax, -296(%rbp)
Ltmp770:
LBB98_5:
	.loc	42 178 40
	movq	-296(%rbp), %rdi
	.loc	42 178 27 is_stmt 0
	callq	__ZN4core3ptr8non_null16NonNull$LT$T$GT$3new17hb6d7c7d3f0b7bef6E
	movq	%rax, -240(%rbp)
Ltmp771:
	.loc	27 1096 15 is_stmt 1
	movq	-240(%rbp), %rdx
	movl	$1, %eax
	xorl	%ecx, %ecx
	cmpq	$0, %rdx
	cmoveq	%rcx, %rax
	.loc	27 1096 9 is_stmt 0
	cmpq	$0, %rax
	jne	LBB98_7
	.loc	27 1098 21 is_stmt 1
	movq	$0, -248(%rbp)
	.loc	27 1098 28 is_stmt 0
	jmp	LBB98_8
LBB98_7:
	.loc	27 1097 18 is_stmt 1
	movq	-240(%rbp), %rax
	movq	%rax, -80(%rbp)
Ltmp772:
	.loc	27 1097 24 is_stmt 0
	movq	%rax, -248(%rbp)
Ltmp773:
LBB98_8:
	.loc	15 2091 15 is_stmt 1
	movq	-248(%rbp), %rdx
	xorl	%eax, %eax
	movl	$1, %ecx
	cmpq	$0, %rdx
	cmoveq	%rcx, %rax
	.loc	15 2091 9 is_stmt 0
	cmpq	$0, %rax
	jne	LBB98_10
	.loc	15 2092 16 is_stmt 1
	movq	-248(%rbp), %rax
	movq	%rax, -72(%rbp)
Ltmp774:
	.loc	15 2092 22 is_stmt 0
	movq	%rax, -256(%rbp)
Ltmp775:
	.loc	15 2092 45
	jmp	LBB98_11
LBB98_10:
Ltmp776:
	.loc	15 2093 23 is_stmt 1
	movq	$0, -256(%rbp)
Ltmp777:
LBB98_11:
	.loc	42 178 27
	movq	-256(%rbp), %rdx
	xorl	%eax, %eax
	movl	$1, %ecx
	cmpq	$0, %rdx
	cmoveq	%rcx, %rax
	cmpq	$0, %rax
	jne	LBB98_13
	.loc	42 0 27 is_stmt 0
	movq	-344(%rbp), %rsi
	.loc	42 178 27
	movq	-256(%rbp), %rdi
	movq	%rdi, -64(%rbp)
Ltmp778:
	.loc	42 178 27
	movq	%rdi, -56(%rbp)
Ltmp779:
	.loc	42 179 20 is_stmt 1
	callq	__ZN4core3ptr8non_null26NonNull$LT$$u5b$T$u5d$$GT$20slice_from_raw_parts17hcd1a097b3234d26eE
	.loc	42 179 17 is_stmt 0
	movq	%rax, -320(%rbp)
	movq	%rdx, -312(%rbp)
Ltmp780:
	.loc	42 180 13 is_stmt 1
	jmp	LBB98_15
LBB98_13:
Ltmp781:
	.loc	15 2107 23
	movq	$0, -320(%rbp)
Ltmp782:
LBB98_14:
	.loc	42 182 6
	movq	-320(%rbp), %rax
	movq	-312(%rbp), %rdx
	addq	$352, %rsp
	popq	%rbp
	retq
LBB98_15:
	jmp	LBB98_14
Ltmp783:
Lfunc_end98:
	.cfi_endproc

	.globl	__ZN5alloc5alloc8box_free17h14964b25e5c88972E
	.p2align	4, 0x90
__ZN5alloc5alloc8box_free17h14964b25e5c88972E:
Lfunc_begin99:
	.loc	42 340 0
	.cfi_startproc
	.cfi_personality 155, _rust_eh_personality
	.cfi_lsda 16, Lexception16
	pushq	%rbp
	.cfi_def_cfa_offset 16
	.cfi_offset %rbp, -16
	movq	%rsp, %rbp
	.cfi_def_cfa_register %rbp
	subq	$256, %rsp
	movq	%rdi, -240(%rbp)
Ltmp787:
	.loc	42 345 32 prologue_end
	leaq	-240(%rbp), %rax
	movq	%rax, -184(%rbp)
Ltmp788:
	.loc	11 117 18
	leaq	-240(%rbp), %rax
	movq	%rax, -176(%rbp)
Ltmp789:
	.loc	12 376 20
	movq	-240(%rbp), %rax
	movq	%rax, -168(%rbp)
Ltmp790:
	.loc	42 345 20
	movq	$16, -160(%rbp)
	movq	-160(%rbp), %rcx
	movq	%rcx, -256(%rbp)
	movq	%rcx, -152(%rbp)
Ltmp791:
	.loc	42 346 38
	leaq	-240(%rbp), %rax
	movq	%rax, -144(%rbp)
Ltmp792:
	.loc	11 117 18
	leaq	-240(%rbp), %rax
	movq	%rax, -136(%rbp)
Ltmp793:
	.loc	12 376 20
	movq	-240(%rbp), %rax
	movq	%rax, -128(%rbp)
Ltmp794:
	.loc	42 346 21
	movq	$8, -120(%rbp)
	movq	-120(%rbp), %rax
	movq	%rax, -112(%rbp)
Ltmp795:
	.loc	42 347 56
	movq	%rcx, -104(%rbp)
	.loc	42 347 62 is_stmt 0
	movq	%rax, -96(%rbp)
Ltmp796:
	.loc	38 120 65 is_stmt 1
	movq	%rax, -88(%rbp)
Ltmp797:
	.loc	39 89 18
	movq	%rax, -80(%rbp)
	movq	-80(%rbp), %rax
	movq	%rax, -248(%rbp)
Ltmp798:
	.loc	39 0 18 is_stmt 0
	movq	-248(%rbp), %rax
	movq	-256(%rbp), %rcx
	.loc	38 120 18 is_stmt 1
	movq	%rcx, -224(%rbp)
	movq	%rax, -216(%rbp)
Ltmp799:
	.loc	42 348 37
	movq	-240(%rbp), %rax
	movq	%rax, -72(%rbp)
Ltmp800:
	.loc	11 137 22
	movq	%rax, -64(%rbp)
Ltmp801:
	.loc	12 450 41
	movq	%rax, -56(%rbp)
	movq	%rax, -48(%rbp)
Ltmp802:
	.loc	12 201 13
	movq	%rax, -192(%rbp)
Ltmp803:
	.loc	11 191 18
	movq	-192(%rbp), %rax
	.loc	11 191 9 is_stmt 0
	movq	%rax, -200(%rbp)
Ltmp804:
	.loc	12 768 41 is_stmt 1
	movq	-200(%rbp), %rax
	movq	%rax, -40(%rbp)
Ltmp805:
	.loc	11 104 9
	movq	%rax, -32(%rbp)
Ltmp806:
	.loc	12 326 9
	movq	%rax, -24(%rbp)
Ltmp807:
	.loc	12 201 13
	movq	%rax, -208(%rbp)
Ltmp808:
	.loc	42 348 50
	movq	-224(%rbp), %rdx
	movq	-216(%rbp), %rcx
	.loc	42 348 9 is_stmt 0
	movq	-208(%rbp), %rsi
Ltmp784:
	leaq	-232(%rbp), %rdi
	callq	__ZN63_$LT$alloc..alloc..Global$u20$as$u20$core..alloc..Allocator$GT$10deallocate17h389505a430384a30E
Ltmp785:
	jmp	LBB99_4
Ltmp809:
LBB99_2:
	.loc	42 340 1 is_stmt 1
	movq	-16(%rbp), %rdi
	callq	__Unwind_Resume
LBB99_3:
Ltmp786:
	.loc	42 0 1 is_stmt 0
	movq	%rax, %rcx
	movl	%edx, %eax
	movq	%rcx, -16(%rbp)
	movl	%eax, -8(%rbp)
	jmp	LBB99_2
LBB99_4:
	.loc	42 350 2 is_stmt 1
	addq	$256, %rsp
	popq	%rbp
	retq
Ltmp810:
Lfunc_end99:
	.cfi_endproc
	.section	__TEXT,__gcc_except_tab
	.p2align	2
GCC_except_table99:
Lexception16:
	.byte	255
	.byte	255
	.byte	1
	.uleb128 Lcst_end16-Lcst_begin16
Lcst_begin16:
	.uleb128 Ltmp784-Lfunc_begin99
	.uleb128 Ltmp785-Ltmp784
	.uleb128 Ltmp786-Lfunc_begin99
	.byte	0
	.uleb128 Ltmp785-Lfunc_begin99
	.uleb128 Lfunc_end99-Ltmp785
	.byte	0
	.byte	0
Lcst_end16:
	.p2align	2

	.section	__TEXT,__text,regular,pure_instructions
	.globl	__ZN5alloc5alloc8box_free17hdbcd0dae99485f70E
	.p2align	4, 0x90
__ZN5alloc5alloc8box_free17hdbcd0dae99485f70E:
Lfunc_begin100:
	.loc	42 340 0
	.cfi_startproc
	.cfi_personality 155, _rust_eh_personality
	.cfi_lsda 16, Lexception17
	pushq	%rbp
	.cfi_def_cfa_offset 16
	.cfi_offset %rbp, -16
	movq	%rsp, %rbp
	.cfi_def_cfa_register %rbp
	subq	$304, %rsp
	movq	%rdi, -288(%rbp)
	movq	%rsi, -280(%rbp)
Ltmp814:
	.loc	42 345 32 prologue_end
	leaq	-288(%rbp), %rax
	movq	%rax, -224(%rbp)
Ltmp815:
	.loc	11 117 18
	leaq	-288(%rbp), %rax
	movq	%rax, -216(%rbp)
Ltmp816:
	.loc	12 376 20
	movq	-288(%rbp), %rcx
	movq	-280(%rbp), %rax
	movq	%rcx, -208(%rbp)
	movq	%rax, -200(%rbp)
Ltmp817:
	.loc	42 345 20
	movq	8(%rax), %rax
	movq	%rax, -192(%rbp)
	movq	-192(%rbp), %rcx
	movq	%rcx, -304(%rbp)
	movq	%rcx, -184(%rbp)
Ltmp818:
	.loc	42 346 38
	leaq	-288(%rbp), %rax
	movq	%rax, -176(%rbp)
Ltmp819:
	.loc	11 117 18
	leaq	-288(%rbp), %rax
	movq	%rax, -168(%rbp)
Ltmp820:
	.loc	12 376 20
	movq	-288(%rbp), %rdx
	movq	-280(%rbp), %rax
	movq	%rdx, -160(%rbp)
	movq	%rax, -152(%rbp)
Ltmp821:
	.loc	42 346 21
	movq	16(%rax), %rax
	movq	%rax, -144(%rbp)
	movq	-144(%rbp), %rax
	movq	%rax, -136(%rbp)
Ltmp822:
	.loc	42 347 56
	movq	%rcx, -128(%rbp)
	.loc	42 347 62 is_stmt 0
	movq	%rax, -120(%rbp)
Ltmp823:
	.loc	38 120 65 is_stmt 1
	movq	%rax, -112(%rbp)
Ltmp824:
	.loc	39 89 18
	movq	%rax, -104(%rbp)
	movq	-104(%rbp), %rax
	movq	%rax, -296(%rbp)
Ltmp825:
	.loc	39 0 18 is_stmt 0
	movq	-296(%rbp), %rax
	movq	-304(%rbp), %rcx
	.loc	38 120 18 is_stmt 1
	movq	%rcx, -264(%rbp)
	movq	%rax, -256(%rbp)
Ltmp826:
	.loc	42 348 37
	movq	-288(%rbp), %rax
	movq	-280(%rbp), %rcx
	movq	%rax, -96(%rbp)
	movq	%rcx, -88(%rbp)
Ltmp827:
	.loc	11 137 22
	movq	%rax, -80(%rbp)
	movq	%rcx, -72(%rbp)
Ltmp828:
	.loc	12 450 41
	movq	%rax, -64(%rbp)
	movq	%rcx, -56(%rbp)
	movq	%rax, -48(%rbp)
Ltmp829:
	.loc	12 201 13
	movq	%rax, -232(%rbp)
Ltmp830:
	.loc	11 191 18
	movq	-232(%rbp), %rax
	.loc	11 191 9 is_stmt 0
	movq	%rax, -240(%rbp)
Ltmp831:
	.loc	12 768 41 is_stmt 1
	movq	-240(%rbp), %rax
	movq	%rax, -40(%rbp)
Ltmp832:
	.loc	11 104 9
	movq	%rax, -32(%rbp)
Ltmp833:
	.loc	12 326 9
	movq	%rax, -24(%rbp)
Ltmp834:
	.loc	12 201 13
	movq	%rax, -248(%rbp)
Ltmp835:
	.loc	42 348 50
	movq	-264(%rbp), %rdx
	movq	-256(%rbp), %rcx
	.loc	42 348 9 is_stmt 0
	movq	-248(%rbp), %rsi
Ltmp811:
	leaq	-272(%rbp), %rdi
	callq	__ZN63_$LT$alloc..alloc..Global$u20$as$u20$core..alloc..Allocator$GT$10deallocate17h389505a430384a30E
Ltmp812:
	jmp	LBB100_4
Ltmp836:
LBB100_2:
	.loc	42 340 1 is_stmt 1
	movq	-16(%rbp), %rdi
	callq	__Unwind_Resume
LBB100_3:
Ltmp813:
	.loc	42 0 1 is_stmt 0
	movq	%rax, %rcx
	movl	%edx, %eax
	movq	%rcx, -16(%rbp)
	movl	%eax, -8(%rbp)
	jmp	LBB100_2
LBB100_4:
	.loc	42 350 2 is_stmt 1
	addq	$304, %rsp
	popq	%rbp
	retq
Ltmp837:
Lfunc_end100:
	.cfi_endproc
	.section	__TEXT,__gcc_except_tab
	.p2align	2
GCC_except_table100:
Lexception17:
	.byte	255
	.byte	255
	.byte	1
	.uleb128 Lcst_end17-Lcst_begin17
Lcst_begin17:
	.uleb128 Ltmp811-Lfunc_begin100
	.uleb128 Ltmp812-Ltmp811
	.uleb128 Ltmp813-Lfunc_begin100
	.byte	0
	.uleb128 Ltmp812-Lfunc_begin100
	.uleb128 Lfunc_end100-Ltmp812
	.byte	0
	.byte	0
Lcst_end17:
	.p2align	2

	.section	__TEXT,__text,regular,pure_instructions
	.p2align	4, 0x90
__ZN5alloc7raw_vec14handle_reserve17h889a852ea37d71d3E:
Lfunc_begin101:
	.loc	10 487 0
	.cfi_startproc
	pushq	%rbp
	.cfi_def_cfa_offset 16
	.cfi_offset %rbp, -16
	movq	%rsp, %rbp
	.cfi_def_cfa_register %rbp
	subq	$48, %rsp
	movq	%rdi, -32(%rbp)
	movq	%rsi, -24(%rbp)
Ltmp838:
	.loc	10 488 11 prologue_end
	callq	__ZN4core6result19Result$LT$T$C$E$GT$7map_err17heff9983211665083E
	movq	%rdx, -40(%rbp)
	movq	%rax, -48(%rbp)
	movabsq	$-9223372036854775807, %rdx
	movl	$1, %eax
	xorl	%ecx, %ecx
	cmpq	%rdx, -40(%rbp)
	cmoveq	%rcx, %rax
	.loc	10 488 5 is_stmt 0
	cmpq	$0, %rax
	jne	LBB101_2
	.loc	10 493 2 is_stmt 1
	addq	$48, %rsp
	popq	%rbp
	retq
LBB101_2:
	.loc	10 488 11
	movl	$1, %eax
	xorl	%ecx, %ecx
	cmpq	$0, -40(%rbp)
	cmoveq	%rcx, %rax
	.loc	10 488 5 is_stmt 0
	cmpq	$0, %rax
	jne	LBB101_4
	.loc	10 489 34 is_stmt 1
	callq	__ZN5alloc7raw_vec17capacity_overflow17h082ee8492f253a0eE
LBB101_4:
	.loc	10 490 26
	movq	-48(%rbp), %rdi
	movq	-40(%rbp), %rsi
	movq	%rdi, -16(%rbp)
	movq	%rsi, -8(%rbp)
Ltmp839:
	.loc	10 490 43 is_stmt 0
	callq	__ZN5alloc5alloc18handle_alloc_error17hb5f6ff255f23ea4dE
Ltmp840:
Lfunc_end101:
	.cfi_endproc

	.globl	__ZN5alloc7raw_vec19RawVec$LT$T$C$A$GT$11allocate_in17h3b1ede496b65ee6fE
	.p2align	4, 0x90
__ZN5alloc7raw_vec19RawVec$LT$T$C$A$GT$11allocate_in17h3b1ede496b65ee6fE:
Lfunc_begin102:
	.loc	10 169 0 is_stmt 1
	.cfi_startproc
	.cfi_personality 155, _rust_eh_personality
	.cfi_lsda 16, Lexception18
	pushq	%rbp
	.cfi_def_cfa_offset 16
	.cfi_offset %rbp, -16
	movq	%rsp, %rbp
	.cfi_def_cfa_register %rbp
	subq	$384, %rsp
	movq	%rdi, -296(%rbp)
	movb	%sil, %al
	andb	$1, %al
	movb	%al, -281(%rbp)
	movq	%rdi, -168(%rbp)
Ltmp856:
	.loc	10 171 12 prologue_end
	movb	$1, -177(%rbp)
	xorl	%eax, %eax
	testb	$1, %al
	jne	LBB102_2
	.loc	10 0 12 is_stmt 0
	movq	-296(%rbp), %rax
	.loc	10 171 25
	cmpq	$0, %rax
	sete	%al
	.loc	10 171 12
	andb	$1, %al
	movb	%al, -249(%rbp)
	jmp	LBB102_3
LBB102_2:
	movb	$1, -249(%rbp)
LBB102_3:
	testb	$1, -249(%rbp)
	jne	LBB102_5
	.loc	10 0 12
	movq	-296(%rbp), %rax
	.loc	10 176 51 is_stmt 1
	movq	%rax, -144(%rbp)
Ltmp857:
	.loc	21 459 5
	movq	$8, -136(%rbp)
Ltmp858:
	.loc	39 89 18
	movq	$8, -128(%rbp)
	movq	-128(%rbp), %rax
	movq	%rax, -304(%rbp)
	jmp	LBB102_10
Ltmp859:
LBB102_5:
	.loc	10 172 26
	movb	$0, -177(%rbp)
Ltmp853:
	.loc	10 172 13 is_stmt 0
	callq	__ZN5alloc7raw_vec19RawVec$LT$T$C$A$GT$6new_in17hc0d3965d0193f58eE
Ltmp854:
	movq	%rdx, -320(%rbp)
	movq	%rax, -312(%rbp)
	jmp	LBB102_8
LBB102_6:
	.loc	10 202 5 is_stmt 1
	testb	$1, -177(%rbp)
	jne	LBB102_25
	jmp	LBB102_24
LBB102_7:
Ltmp855:
	.loc	10 0 5 is_stmt 0
	movq	%rax, %rcx
	movl	%edx, %eax
	movq	%rcx, -160(%rbp)
	movl	%eax, -152(%rbp)
	jmp	LBB102_6
LBB102_8:
	movq	-320(%rbp), %rax
	movq	-312(%rbp), %rcx
	.loc	10 172 13 is_stmt 1
	movq	%rcx, -272(%rbp)
	movq	%rax, -264(%rbp)
LBB102_9:
	.loc	10 202 6
	movq	-272(%rbp), %rax
	movq	-264(%rbp), %rdx
	addq	$384, %rsp
	popq	%rbp
	retq
LBB102_10:
Ltmp841:
	.loc	10 0 6 is_stmt 0
	movq	-296(%rbp), %rdx
	movq	-304(%rbp), %rsi
	movl	$8, %edi
Ltmp860:
	.loc	38 438 16 is_stmt 1
	callq	__ZN4core5alloc6layout6Layout5array5inner17h49faefc01867d4e4E
Ltmp842:
	movq	%rdx, -336(%rbp)
	movq	%rax, -328(%rbp)
	jmp	LBB102_11
LBB102_11:
	.loc	38 0 16 is_stmt 0
	movq	-336(%rbp), %rax
	movq	-328(%rbp), %rcx
	.loc	38 438 16
	movq	%rcx, -248(%rbp)
	movq	%rax, -240(%rbp)
Ltmp861:
	.loc	10 176 32 is_stmt 1
	xorl	%eax, %eax
	movl	$1, %ecx
	cmpq	$0, -240(%rbp)
	cmoveq	%rcx, %rax
	.loc	10 176 26 is_stmt 0
	cmpq	$0, %rax
	jne	LBB102_13
	.loc	10 177 20 is_stmt 1
	movq	-248(%rbp), %rcx
	movq	%rcx, -352(%rbp)
	movq	-240(%rbp), %rax
	movq	%rax, -344(%rbp)
	movq	%rcx, -120(%rbp)
	movq	%rax, -112(%rbp)
Ltmp862:
	.loc	10 177 31 is_stmt 0
	movq	%rcx, -104(%rbp)
	movq	%rax, -96(%rbp)
Ltmp863:
	.loc	10 509 9 is_stmt 1
	movabsq	$-9223372036854775807, %rax
	movq	%rax, -224(%rbp)
Ltmp864:
	.loc	10 180 19
	movabsq	$-9223372036854775807, %rdx
	movl	$1, %eax
	xorl	%ecx, %ecx
	cmpq	%rdx, -224(%rbp)
	cmoveq	%rcx, %rax
	.loc	10 180 13 is_stmt 0
	cmpq	$0, %rax
	je	LBB102_15
	jmp	LBB102_16
Ltmp865:
LBB102_13:
Ltmp843:
	.loc	10 178 27 is_stmt 1
	callq	__ZN5alloc7raw_vec17capacity_overflow17h082ee8492f253a0eE
Ltmp844:
	jmp	LBB102_14
LBB102_14:
	.loc	10 0 27 is_stmt 0
	ud2
LBB102_15:
Ltmp866:
	.loc	10 184 32 is_stmt 1
	movb	-281(%rbp), %al
	andb	$1, %al
	movzbl	%al, %eax
	.loc	10 184 26 is_stmt 0
	cmpq	$0, %rax
	je	LBB102_17
	jmp	LBB102_18
LBB102_16:
Ltmp845:
	.loc	10 182 27 is_stmt 1
	callq	__ZN5alloc7raw_vec17capacity_overflow17h082ee8492f253a0eE
Ltmp846:
	jmp	LBB102_14
LBB102_17:
Ltmp849:
	.loc	10 0 27 is_stmt 0
	movq	-344(%rbp), %rdx
	movq	-352(%rbp), %rsi
	leaq	-280(%rbp), %rdi
	.loc	10 185 45 is_stmt 1
	callq	__ZN63_$LT$alloc..alloc..Global$u20$as$u20$core..alloc..Allocator$GT$8allocate17h0a8dbdde1cafcaaeE
Ltmp850:
	movq	%rdx, -368(%rbp)
	movq	%rax, -360(%rbp)
	jmp	LBB102_21
LBB102_18:
Ltmp847:
	.loc	10 0 45 is_stmt 0
	movq	-344(%rbp), %rdx
	movq	-352(%rbp), %rsi
	leaq	-280(%rbp), %rdi
	.loc	10 186 38 is_stmt 1
	callq	__ZN63_$LT$alloc..alloc..Global$u20$as$u20$core..alloc..Allocator$GT$15allocate_zeroed17hecad968cb85062f4E
Ltmp848:
	movq	%rdx, -384(%rbp)
	movq	%rax, -376(%rbp)
	jmp	LBB102_19
LBB102_19:
	.loc	10 0 38 is_stmt 0
	movq	-384(%rbp), %rax
	movq	-376(%rbp), %rcx
	.loc	10 186 38
	movq	%rcx, -216(%rbp)
	movq	%rax, -208(%rbp)
LBB102_20:
Ltmp867:
	.loc	10 188 29 is_stmt 1
	movq	-216(%rbp), %rdx
	xorl	%eax, %eax
	movl	$1, %ecx
	cmpq	$0, %rdx
	cmoveq	%rcx, %rax
	.loc	10 188 23 is_stmt 0
	cmpq	$0, %rax
	je	LBB102_22
	jmp	LBB102_23
Ltmp868:
LBB102_21:
	.loc	10 0 23
	movq	-368(%rbp), %rax
	movq	-360(%rbp), %rcx
	.loc	10 185 45 is_stmt 1
	movq	%rcx, -216(%rbp)
	movq	%rax, -208(%rbp)
	.loc	10 185 66 is_stmt 0
	jmp	LBB102_20
LBB102_22:
	.loc	10 0 66
	movq	-296(%rbp), %rax
Ltmp869:
	.loc	10 189 20 is_stmt 1
	movq	-216(%rbp), %rcx
	movq	-208(%rbp), %rdx
	movq	%rcx, -88(%rbp)
	movq	%rdx, -80(%rbp)
Ltmp870:
	.loc	10 189 28 is_stmt 0
	movq	%rcx, -72(%rbp)
	movq	%rdx, -64(%rbp)
Ltmp871:
	.loc	10 197 53 is_stmt 1
	movq	%rcx, -56(%rbp)
	movq	%rdx, -48(%rbp)
Ltmp872:
	.loc	12 450 41
	movq	%rcx, -40(%rbp)
	movq	%rdx, -32(%rbp)
	movq	%rcx, -24(%rbp)
Ltmp873:
	.loc	12 201 13
	movq	%rcx, -192(%rbp)
Ltmp874:
	.loc	12 326 9
	movq	-192(%rbp), %rcx
	movq	%rcx, -16(%rbp)
Ltmp875:
	.loc	11 87 59
	movq	%rcx, -8(%rbp)
Ltmp876:
	.loc	12 201 13
	movq	%rcx, -176(%rbp)
Ltmp877:
	.loc	11 87 18
	movq	-176(%rbp), %rcx
	movq	%rcx, -200(%rbp)
Ltmp878:
	.loc	10 196 13
	movq	-200(%rbp), %rcx
	movq	%rcx, -264(%rbp)
	movq	%rax, -272(%rbp)
Ltmp879:
	.loc	10 171 9
	jmp	LBB102_9
LBB102_23:
Ltmp851:
	.loc	10 0 9 is_stmt 0
	movq	-344(%rbp), %rsi
	movq	-352(%rbp), %rdi
Ltmp880:
	.loc	10 190 27 is_stmt 1
	callq	__ZN5alloc5alloc18handle_alloc_error17hb5f6ff255f23ea4dE
Ltmp852:
	jmp	LBB102_14
Ltmp881:
LBB102_24:
	.loc	10 169 5
	movq	-160(%rbp), %rdi
	callq	__Unwind_Resume
LBB102_25:
	.loc	10 202 5
	jmp	LBB102_24
Ltmp882:
Lfunc_end102:
	.cfi_endproc
	.section	__TEXT,__gcc_except_tab
	.p2align	2
GCC_except_table102:
Lexception18:
	.byte	255
	.byte	255
	.byte	1
	.uleb128 Lcst_end18-Lcst_begin18
Lcst_begin18:
	.uleb128 Ltmp853-Lfunc_begin102
	.uleb128 Ltmp852-Ltmp853
	.uleb128 Ltmp855-Lfunc_begin102
	.byte	0
	.uleb128 Ltmp852-Lfunc_begin102
	.uleb128 Lfunc_end102-Ltmp852
	.byte	0
	.byte	0
Lcst_end18:
	.p2align	2

	.section	__TEXT,__text,regular,pure_instructions
	.globl	__ZN5alloc7raw_vec19RawVec$LT$T$C$A$GT$11allocate_in17h9d752cad483a294eE
	.p2align	4, 0x90
__ZN5alloc7raw_vec19RawVec$LT$T$C$A$GT$11allocate_in17h9d752cad483a294eE:
Lfunc_begin103:
	.loc	10 169 0
	.cfi_startproc
	.cfi_personality 155, _rust_eh_personality
	.cfi_lsda 16, Lexception19
	pushq	%rbp
	.cfi_def_cfa_offset 16
	.cfi_offset %rbp, -16
	movq	%rsp, %rbp
	.cfi_def_cfa_register %rbp
	subq	$384, %rsp
	movq	%rdi, -296(%rbp)
	movb	%sil, %al
	andb	$1, %al
	movb	%al, -281(%rbp)
	movq	%rdi, -168(%rbp)
Ltmp898:
	.loc	10 171 12 prologue_end
	movb	$1, -177(%rbp)
	xorl	%eax, %eax
	testb	$1, %al
	jne	LBB103_2
	.loc	10 0 12 is_stmt 0
	movq	-296(%rbp), %rax
	.loc	10 171 25
	cmpq	$0, %rax
	sete	%al
	.loc	10 171 12
	andb	$1, %al
	movb	%al, -249(%rbp)
	jmp	LBB103_3
LBB103_2:
	movb	$1, -249(%rbp)
LBB103_3:
	testb	$1, -249(%rbp)
	jne	LBB103_5
	.loc	10 0 12
	movq	-296(%rbp), %rax
	.loc	10 176 51 is_stmt 1
	movq	%rax, -144(%rbp)
Ltmp899:
	.loc	21 459 5
	movq	$2, -136(%rbp)
Ltmp900:
	.loc	39 89 18
	movq	$2, -128(%rbp)
	movq	-128(%rbp), %rax
	movq	%rax, -304(%rbp)
	jmp	LBB103_10
Ltmp901:
LBB103_5:
	.loc	10 172 26
	movb	$0, -177(%rbp)
Ltmp895:
	.loc	10 172 13 is_stmt 0
	callq	__ZN5alloc7raw_vec19RawVec$LT$T$C$A$GT$6new_in17h1f5dba48e57f4ee5E
Ltmp896:
	movq	%rdx, -320(%rbp)
	movq	%rax, -312(%rbp)
	jmp	LBB103_8
LBB103_6:
	.loc	10 202 5 is_stmt 1
	testb	$1, -177(%rbp)
	jne	LBB103_25
	jmp	LBB103_24
LBB103_7:
Ltmp897:
	.loc	10 0 5 is_stmt 0
	movq	%rax, %rcx
	movl	%edx, %eax
	movq	%rcx, -160(%rbp)
	movl	%eax, -152(%rbp)
	jmp	LBB103_6
LBB103_8:
	movq	-320(%rbp), %rax
	movq	-312(%rbp), %rcx
	.loc	10 172 13 is_stmt 1
	movq	%rcx, -272(%rbp)
	movq	%rax, -264(%rbp)
LBB103_9:
	.loc	10 202 6
	movq	-272(%rbp), %rax
	movq	-264(%rbp), %rdx
	addq	$384, %rsp
	popq	%rbp
	retq
LBB103_10:
Ltmp883:
	.loc	10 0 6 is_stmt 0
	movq	-296(%rbp), %rdx
	movq	-304(%rbp), %rsi
	movl	$2, %edi
Ltmp902:
	.loc	38 438 16 is_stmt 1
	callq	__ZN4core5alloc6layout6Layout5array5inner17h49faefc01867d4e4E
Ltmp884:
	movq	%rdx, -336(%rbp)
	movq	%rax, -328(%rbp)
	jmp	LBB103_11
LBB103_11:
	.loc	38 0 16 is_stmt 0
	movq	-336(%rbp), %rax
	movq	-328(%rbp), %rcx
	.loc	38 438 16
	movq	%rcx, -248(%rbp)
	movq	%rax, -240(%rbp)
Ltmp903:
	.loc	10 176 32 is_stmt 1
	xorl	%eax, %eax
	movl	$1, %ecx
	cmpq	$0, -240(%rbp)
	cmoveq	%rcx, %rax
	.loc	10 176 26 is_stmt 0
	cmpq	$0, %rax
	jne	LBB103_13
	.loc	10 177 20 is_stmt 1
	movq	-248(%rbp), %rcx
	movq	%rcx, -352(%rbp)
	movq	-240(%rbp), %rax
	movq	%rax, -344(%rbp)
	movq	%rcx, -120(%rbp)
	movq	%rax, -112(%rbp)
Ltmp904:
	.loc	10 177 31 is_stmt 0
	movq	%rcx, -104(%rbp)
	movq	%rax, -96(%rbp)
Ltmp905:
	.loc	10 509 9 is_stmt 1
	movabsq	$-9223372036854775807, %rax
	movq	%rax, -224(%rbp)
Ltmp906:
	.loc	10 180 19
	movabsq	$-9223372036854775807, %rdx
	movl	$1, %eax
	xorl	%ecx, %ecx
	cmpq	%rdx, -224(%rbp)
	cmoveq	%rcx, %rax
	.loc	10 180 13 is_stmt 0
	cmpq	$0, %rax
	je	LBB103_15
	jmp	LBB103_16
Ltmp907:
LBB103_13:
Ltmp885:
	.loc	10 178 27 is_stmt 1
	callq	__ZN5alloc7raw_vec17capacity_overflow17h082ee8492f253a0eE
Ltmp886:
	jmp	LBB103_14
LBB103_14:
	.loc	10 0 27 is_stmt 0
	ud2
LBB103_15:
Ltmp908:
	.loc	10 184 32 is_stmt 1
	movb	-281(%rbp), %al
	andb	$1, %al
	movzbl	%al, %eax
	.loc	10 184 26 is_stmt 0
	cmpq	$0, %rax
	je	LBB103_17
	jmp	LBB103_18
LBB103_16:
Ltmp887:
	.loc	10 182 27 is_stmt 1
	callq	__ZN5alloc7raw_vec17capacity_overflow17h082ee8492f253a0eE
Ltmp888:
	jmp	LBB103_14
LBB103_17:
Ltmp891:
	.loc	10 0 27 is_stmt 0
	movq	-344(%rbp), %rdx
	movq	-352(%rbp), %rsi
	leaq	-280(%rbp), %rdi
	.loc	10 185 45 is_stmt 1
	callq	__ZN63_$LT$alloc..alloc..Global$u20$as$u20$core..alloc..Allocator$GT$8allocate17h0a8dbdde1cafcaaeE
Ltmp892:
	movq	%rdx, -368(%rbp)
	movq	%rax, -360(%rbp)
	jmp	LBB103_21
LBB103_18:
Ltmp889:
	.loc	10 0 45 is_stmt 0
	movq	-344(%rbp), %rdx
	movq	-352(%rbp), %rsi
	leaq	-280(%rbp), %rdi
	.loc	10 186 38 is_stmt 1
	callq	__ZN63_$LT$alloc..alloc..Global$u20$as$u20$core..alloc..Allocator$GT$15allocate_zeroed17hecad968cb85062f4E
Ltmp890:
	movq	%rdx, -384(%rbp)
	movq	%rax, -376(%rbp)
	jmp	LBB103_19
LBB103_19:
	.loc	10 0 38 is_stmt 0
	movq	-384(%rbp), %rax
	movq	-376(%rbp), %rcx
	.loc	10 186 38
	movq	%rcx, -216(%rbp)
	movq	%rax, -208(%rbp)
LBB103_20:
Ltmp909:
	.loc	10 188 29 is_stmt 1
	movq	-216(%rbp), %rdx
	xorl	%eax, %eax
	movl	$1, %ecx
	cmpq	$0, %rdx
	cmoveq	%rcx, %rax
	.loc	10 188 23 is_stmt 0
	cmpq	$0, %rax
	je	LBB103_22
	jmp	LBB103_23
Ltmp910:
LBB103_21:
	.loc	10 0 23
	movq	-368(%rbp), %rax
	movq	-360(%rbp), %rcx
	.loc	10 185 45 is_stmt 1
	movq	%rcx, -216(%rbp)
	movq	%rax, -208(%rbp)
	.loc	10 185 66 is_stmt 0
	jmp	LBB103_20
LBB103_22:
	.loc	10 0 66
	movq	-296(%rbp), %rax
Ltmp911:
	.loc	10 189 20 is_stmt 1
	movq	-216(%rbp), %rcx
	movq	-208(%rbp), %rdx
	movq	%rcx, -88(%rbp)
	movq	%rdx, -80(%rbp)
Ltmp912:
	.loc	10 189 28 is_stmt 0
	movq	%rcx, -72(%rbp)
	movq	%rdx, -64(%rbp)
Ltmp913:
	.loc	10 197 53 is_stmt 1
	movq	%rcx, -56(%rbp)
	movq	%rdx, -48(%rbp)
Ltmp914:
	.loc	12 450 41
	movq	%rcx, -40(%rbp)
	movq	%rdx, -32(%rbp)
	movq	%rcx, -24(%rbp)
Ltmp915:
	.loc	12 201 13
	movq	%rcx, -192(%rbp)
Ltmp916:
	.loc	12 326 9
	movq	-192(%rbp), %rcx
	movq	%rcx, -16(%rbp)
Ltmp917:
	.loc	11 87 59
	movq	%rcx, -8(%rbp)
Ltmp918:
	.loc	12 201 13
	movq	%rcx, -176(%rbp)
Ltmp919:
	.loc	11 87 18
	movq	-176(%rbp), %rcx
	movq	%rcx, -200(%rbp)
Ltmp920:
	.loc	10 196 13
	movq	-200(%rbp), %rcx
	movq	%rcx, -264(%rbp)
	movq	%rax, -272(%rbp)
Ltmp921:
	.loc	10 171 9
	jmp	LBB103_9
LBB103_23:
Ltmp893:
	.loc	10 0 9 is_stmt 0
	movq	-344(%rbp), %rsi
	movq	-352(%rbp), %rdi
Ltmp922:
	.loc	10 190 27 is_stmt 1
	callq	__ZN5alloc5alloc18handle_alloc_error17hb5f6ff255f23ea4dE
Ltmp894:
	jmp	LBB103_14
Ltmp923:
LBB103_24:
	.loc	10 169 5
	movq	-160(%rbp), %rdi
	callq	__Unwind_Resume
LBB103_25:
	.loc	10 202 5
	jmp	LBB103_24
Ltmp924:
Lfunc_end103:
	.cfi_endproc
	.section	__TEXT,__gcc_except_tab
	.p2align	2
GCC_except_table103:
Lexception19:
	.byte	255
	.byte	255
	.byte	1
	.uleb128 Lcst_end19-Lcst_begin19
Lcst_begin19:
	.uleb128 Ltmp895-Lfunc_begin103
	.uleb128 Ltmp894-Ltmp895
	.uleb128 Ltmp897-Lfunc_begin103
	.byte	0
	.uleb128 Ltmp894-Lfunc_begin103
	.uleb128 Lfunc_end103-Ltmp894
	.byte	0
	.byte	0
Lcst_end19:
	.p2align	2

	.section	__TEXT,__text,regular,pure_instructions
	.globl	__ZN5alloc7raw_vec19RawVec$LT$T$C$A$GT$13needs_to_grow17h666b9f7eda2d9e5aE
	.p2align	4, 0x90
__ZN5alloc7raw_vec19RawVec$LT$T$C$A$GT$13needs_to_grow17h666b9f7eda2d9e5aE:
Lfunc_begin104:
	.loc	10 360 0
	.cfi_startproc
	pushq	%rbp
	.cfi_def_cfa_offset 16
	.cfi_offset %rbp, -16
	movq	%rsp, %rbp
	.cfi_def_cfa_register %rbp
	subq	$72, %rsp
	movq	%rdi, -72(%rbp)
	movq	%rsi, -64(%rbp)
	movq	%rdx, -56(%rbp)
	movq	%rdi, -40(%rbp)
	movq	%rsi, -32(%rbp)
	movq	%rdx, -24(%rbp)
Ltmp925:
	.loc	10 361 22 prologue_end
	movq	%rdi, -16(%rbp)
Ltmp926:
	.loc	10 232 12
	xorl	%eax, %eax
	testb	$1, %al
	jne	LBB104_2
	.loc	10 0 12 is_stmt 0
	movq	-72(%rbp), %rax
	.loc	10 232 44
	movq	(%rax), %rax
	movq	%rax, -48(%rbp)
	.loc	10 232 9
	jmp	LBB104_3
LBB104_2:
	.loc	10 232 24
	movq	$-1, -48(%rbp)
Ltmp927:
LBB104_3:
	.loc	10 0 24
	movq	-56(%rbp), %rax
	movq	-64(%rbp), %rdx
	.loc	10 361 51 is_stmt 1
	movq	%rdx, -8(%rbp)
Ltmp928:
	.loc	8 1203 38
	movq	-48(%rbp), %rcx
	.loc	8 1203 13 is_stmt 0
	subq	%rdx, %rcx
Ltmp929:
	.loc	10 361 9 is_stmt 1
	cmpq	%rcx, %rax
	seta	%al
	.loc	10 362 6
	andb	$1, %al
	movzbl	%al, %eax
	addq	$72, %rsp
	popq	%rbp
	retq
Ltmp930:
Lfunc_end104:
	.cfi_endproc

	.globl	__ZN5alloc7raw_vec19RawVec$LT$T$C$A$GT$13needs_to_grow17h6f0d474cfd5326f2E
	.p2align	4, 0x90
__ZN5alloc7raw_vec19RawVec$LT$T$C$A$GT$13needs_to_grow17h6f0d474cfd5326f2E:
Lfunc_begin105:
	.loc	10 360 0
	.cfi_startproc
	pushq	%rbp
	.cfi_def_cfa_offset 16
	.cfi_offset %rbp, -16
	movq	%rsp, %rbp
	.cfi_def_cfa_register %rbp
	subq	$72, %rsp
	movq	%rdi, -72(%rbp)
	movq	%rsi, -64(%rbp)
	movq	%rdx, -56(%rbp)
	movq	%rdi, -40(%rbp)
	movq	%rsi, -32(%rbp)
	movq	%rdx, -24(%rbp)
Ltmp931:
	.loc	10 361 22 prologue_end
	movq	%rdi, -16(%rbp)
Ltmp932:
	.loc	10 232 12
	xorl	%eax, %eax
	testb	$1, %al
	jne	LBB105_2
	.loc	10 0 12 is_stmt 0
	movq	-72(%rbp), %rax
	.loc	10 232 44
	movq	(%rax), %rax
	movq	%rax, -48(%rbp)
	.loc	10 232 9
	jmp	LBB105_3
LBB105_2:
	.loc	10 232 24
	movq	$-1, -48(%rbp)
Ltmp933:
LBB105_3:
	.loc	10 0 24
	movq	-56(%rbp), %rax
	movq	-64(%rbp), %rdx
	.loc	10 361 51 is_stmt 1
	movq	%rdx, -8(%rbp)
Ltmp934:
	.loc	8 1203 38
	movq	-48(%rbp), %rcx
	.loc	8 1203 13 is_stmt 0
	subq	%rdx, %rcx
Ltmp935:
	.loc	10 361 9 is_stmt 1
	cmpq	%rcx, %rax
	seta	%al
	.loc	10 362 6
	andb	$1, %al
	movzbl	%al, %eax
	addq	$72, %rsp
	popq	%rbp
	retq
Ltmp936:
Lfunc_end105:
	.cfi_endproc

	.globl	__ZN5alloc7raw_vec19RawVec$LT$T$C$A$GT$14current_memory17h4f3432f8942b9465E
	.p2align	4, 0x90
__ZN5alloc7raw_vec19RawVec$LT$T$C$A$GT$14current_memory17h4f3432f8942b9465E:
Lfunc_begin106:
	.loc	10 240 0
	.cfi_startproc
	pushq	%rbp
	.cfi_def_cfa_offset 16
	.cfi_offset %rbp, -16
	movq	%rsp, %rbp
	.cfi_def_cfa_register %rbp
	subq	$176, %rsp
	movq	%rsi, -152(%rbp)
	movq	%rdi, -144(%rbp)
	movq	%rdi, -136(%rbp)
	movq	%rsi, -80(%rbp)
Ltmp937:
	.loc	10 241 12 prologue_end
	xorl	%eax, %eax
	testb	$1, %al
	jne	LBB106_2
	.loc	10 0 12 is_stmt 0
	movq	-152(%rbp), %rax
	.loc	10 241 25
	cmpq	$0, (%rax)
	sete	%al
	.loc	10 241 12
	andb	$1, %al
	movb	%al, -121(%rbp)
	jmp	LBB106_3
LBB106_2:
	movb	$1, -121(%rbp)
LBB106_3:
	testb	$1, -121(%rbp)
	jne	LBB106_5
	.loc	10 0 12
	movq	-152(%rbp), %rax
	.loc	10 247 49 is_stmt 1
	movq	(%rax), %rdx
	movq	%rdx, -72(%rbp)
Ltmp938:
	.loc	21 459 5
	movq	$2, -64(%rbp)
Ltmp939:
	.loc	39 89 18
	movq	$2, -56(%rbp)
	movq	-56(%rbp), %rsi
Ltmp940:
	.loc	38 438 16
	movl	$2, %edi
	callq	__ZN4core5alloc6layout6Layout5array5inner17h49faefc01867d4e4E
	movq	%rax, %rdi
	movq	%rdx, %rsi
Ltmp941:
	.loc	10 247 30
	leaq	l___unnamed_18(%rip), %rdx
	callq	__ZN4core6result19Result$LT$T$C$E$GT$16unwrap_unchecked17h299a5baaedc31e99E
	movq	%rax, %rcx
	movq	-152(%rbp), %rax
	movq	%rcx, -168(%rbp)
	movq	%rdx, -160(%rbp)
	movq	%rcx, -48(%rbp)
	movq	%rdx, -40(%rbp)
Ltmp942:
	.loc	10 248 23
	movq	8(%rax), %rax
	movq	%rax, -32(%rbp)
Ltmp943:
	.loc	11 137 22
	movq	%rax, -24(%rbp)
Ltmp944:
	.loc	12 450 41
	movq	%rax, -16(%rbp)
	movq	%rax, -8(%rbp)
Ltmp945:
	.loc	12 201 13
	movq	%rax, -88(%rbp)
Ltmp946:
	.loc	11 191 18
	movq	-88(%rbp), %rax
	.loc	11 191 9 is_stmt 0
	movq	%rax, -96(%rbp)
Ltmp947:
	.loc	10 248 23 is_stmt 1
	movq	-96(%rbp), %rdi
	callq	__ZN50_$LT$T$u20$as$u20$core..convert..Into$LT$U$GT$$GT$4into17hfeda1745c8b1ad4dE
	movq	-168(%rbp), %rcx
	movq	-160(%rbp), %rdx
	movq	%rax, %rsi
	movq	-144(%rbp), %rax
	.loc	10 248 22 is_stmt 0
	movq	%rsi, -120(%rbp)
	movq	%rcx, -112(%rbp)
	movq	%rdx, -104(%rbp)
	.loc	10 248 17
	movq	-120(%rbp), %rcx
	movq	%rcx, (%rax)
	movq	-112(%rbp), %rcx
	movq	%rcx, 8(%rax)
	movq	-104(%rbp), %rcx
	movq	%rcx, 16(%rax)
Ltmp948:
	.loc	10 241 9 is_stmt 1
	jmp	LBB106_6
LBB106_5:
	.loc	10 0 9 is_stmt 0
	movq	-144(%rbp), %rax
	.loc	10 242 13 is_stmt 1
	movq	$0, 16(%rax)
LBB106_6:
	.loc	10 0 13 is_stmt 0
	movq	-136(%rbp), %rax
	.loc	10 251 6 is_stmt 1
	addq	$176, %rsp
	popq	%rbp
	retq
Ltmp949:
Lfunc_end106:
	.cfi_endproc

	.globl	__ZN5alloc7raw_vec19RawVec$LT$T$C$A$GT$14current_memory17hcdacee9cbf6175b0E
	.p2align	4, 0x90
__ZN5alloc7raw_vec19RawVec$LT$T$C$A$GT$14current_memory17hcdacee9cbf6175b0E:
Lfunc_begin107:
	.loc	10 240 0
	.cfi_startproc
	pushq	%rbp
	.cfi_def_cfa_offset 16
	.cfi_offset %rbp, -16
	movq	%rsp, %rbp
	.cfi_def_cfa_register %rbp
	subq	$176, %rsp
	movq	%rsi, -152(%rbp)
	movq	%rdi, -144(%rbp)
	movq	%rdi, -136(%rbp)
	movq	%rsi, -80(%rbp)
Ltmp950:
	.loc	10 241 12 prologue_end
	xorl	%eax, %eax
	testb	$1, %al
	jne	LBB107_2
	.loc	10 0 12 is_stmt 0
	movq	-152(%rbp), %rax
	.loc	10 241 25
	cmpq	$0, (%rax)
	sete	%al
	.loc	10 241 12
	andb	$1, %al
	movb	%al, -121(%rbp)
	jmp	LBB107_3
LBB107_2:
	movb	$1, -121(%rbp)
LBB107_3:
	testb	$1, -121(%rbp)
	jne	LBB107_5
	.loc	10 0 12
	movq	-152(%rbp), %rax
	.loc	10 247 49 is_stmt 1
	movq	(%rax), %rdx
	movq	%rdx, -72(%rbp)
Ltmp951:
	.loc	21 459 5
	movq	$8, -64(%rbp)
Ltmp952:
	.loc	39 89 18
	movq	$8, -56(%rbp)
	movq	-56(%rbp), %rsi
Ltmp953:
	.loc	38 438 16
	movl	$8, %edi
	callq	__ZN4core5alloc6layout6Layout5array5inner17h49faefc01867d4e4E
	movq	%rax, %rdi
	movq	%rdx, %rsi
Ltmp954:
	.loc	10 247 30
	leaq	l___unnamed_18(%rip), %rdx
	callq	__ZN4core6result19Result$LT$T$C$E$GT$16unwrap_unchecked17h299a5baaedc31e99E
	movq	%rax, %rcx
	movq	-152(%rbp), %rax
	movq	%rcx, -168(%rbp)
	movq	%rdx, -160(%rbp)
	movq	%rcx, -48(%rbp)
	movq	%rdx, -40(%rbp)
Ltmp955:
	.loc	10 248 23
	movq	8(%rax), %rax
	movq	%rax, -32(%rbp)
Ltmp956:
	.loc	11 137 22
	movq	%rax, -24(%rbp)
Ltmp957:
	.loc	12 450 41
	movq	%rax, -16(%rbp)
	movq	%rax, -8(%rbp)
Ltmp958:
	.loc	12 201 13
	movq	%rax, -88(%rbp)
Ltmp959:
	.loc	11 191 18
	movq	-88(%rbp), %rax
	.loc	11 191 9 is_stmt 0
	movq	%rax, -96(%rbp)
Ltmp960:
	.loc	10 248 23 is_stmt 1
	movq	-96(%rbp), %rdi
	callq	__ZN50_$LT$T$u20$as$u20$core..convert..Into$LT$U$GT$$GT$4into17hfeda1745c8b1ad4dE
	movq	-168(%rbp), %rcx
	movq	-160(%rbp), %rdx
	movq	%rax, %rsi
	movq	-144(%rbp), %rax
	.loc	10 248 22 is_stmt 0
	movq	%rsi, -120(%rbp)
	movq	%rcx, -112(%rbp)
	movq	%rdx, -104(%rbp)
	.loc	10 248 17
	movq	-120(%rbp), %rcx
	movq	%rcx, (%rax)
	movq	-112(%rbp), %rcx
	movq	%rcx, 8(%rax)
	movq	-104(%rbp), %rcx
	movq	%rcx, 16(%rax)
Ltmp961:
	.loc	10 241 9 is_stmt 1
	jmp	LBB107_6
LBB107_5:
	.loc	10 0 9 is_stmt 0
	movq	-144(%rbp), %rax
	.loc	10 242 13 is_stmt 1
	movq	$0, 16(%rax)
LBB107_6:
	.loc	10 0 13 is_stmt 0
	movq	-136(%rbp), %rax
	.loc	10 251 6 is_stmt 1
	addq	$176, %rsp
	popq	%rbp
	retq
Ltmp962:
Lfunc_end107:
	.cfi_endproc

	.globl	__ZN5alloc7raw_vec19RawVec$LT$T$C$A$GT$14grow_amortized17h6a658504c66cc5a8E
	.p2align	4, 0x90
__ZN5alloc7raw_vec19RawVec$LT$T$C$A$GT$14grow_amortized17h6a658504c66cc5a8E:
Lfunc_begin108:
	.loc	10 379 0
	.cfi_startproc
	pushq	%rbp
	.cfi_def_cfa_offset 16
	.cfi_offset %rbp, -16
	movq	%rsp, %rbp
	.cfi_def_cfa_register %rbp
	subq	$656, %rsp
	movq	%rdi, -624(%rbp)
	movq	%rsi, -616(%rbp)
	movq	%rdx, -608(%rbp)
	movq	%rdi, -352(%rbp)
	movq	%rsi, -344(%rbp)
	movq	%rdx, -336(%rbp)
Ltmp963:
	.loc	10 383 12 prologue_end
	xorl	%eax, %eax
	testb	$1, %al
	jne	LBB108_2
	.loc	10 0 12 is_stmt 0
	movq	-608(%rbp), %rsi
	movq	-616(%rbp), %rdi
	.loc	10 390 28 is_stmt 1
	callq	__ZN4core3num23_$LT$impl$u20$usize$GT$11checked_add17h917116482874df92E
	movq	%rdx, -528(%rbp)
	movq	%rax, -536(%rbp)
	.loc	10 390 62 is_stmt 0
	movq	$0, -512(%rbp)
Ltmp964:
	.loc	27 1096 9 is_stmt 1
	cmpq	$0, -536(%rbp)
	je	LBB108_4
	jmp	LBB108_5
Ltmp965:
LBB108_2:
	.loc	10 386 24
	movq	$0, -576(%rbp)
	movq	-584(%rbp), %rdi
	movq	-576(%rbp), %rsi
	callq	__ZN50_$LT$T$u20$as$u20$core..convert..Into$LT$U$GT$$GT$4into17hba30e3cf5030e1e5E
	.loc	10 386 20 is_stmt 0
	movq	%rax, -600(%rbp)
	movq	%rdx, -592(%rbp)
LBB108_3:
	.loc	10 403 6 is_stmt 1
	movq	-600(%rbp), %rax
	movq	-592(%rbp), %rdx
	addq	$656, %rsp
	popq	%rbp
	retq
LBB108_4:
Ltmp966:
	.loc	27 1098 25
	movq	-520(%rbp), %rcx
	movq	-512(%rbp), %rax
	.loc	27 1098 21 is_stmt 0
	movq	%rcx, -552(%rbp)
	movq	%rax, -544(%rbp)
	.loc	27 1098 28
	jmp	LBB108_6
LBB108_5:
	.loc	27 1097 18 is_stmt 1
	movq	-528(%rbp), %rax
	movq	%rax, -328(%rbp)
Ltmp967:
	.loc	27 1097 24 is_stmt 0
	movq	%rax, -552(%rbp)
	movabsq	$-9223372036854775807, %rax
	movq	%rax, -544(%rbp)
Ltmp968:
LBB108_6:
	.loc	15 2091 15 is_stmt 1
	movabsq	$-9223372036854775807, %rdx
	movl	$1, %eax
	xorl	%ecx, %ecx
	cmpq	%rdx, -544(%rbp)
	cmoveq	%rcx, %rax
	.loc	15 2091 9 is_stmt 0
	cmpq	$0, %rax
	jne	LBB108_8
	.loc	15 2092 16 is_stmt 1
	movq	-552(%rbp), %rax
	movq	%rax, -304(%rbp)
Ltmp969:
	.loc	15 2092 22 is_stmt 0
	movq	%rax, -568(%rbp)
	movabsq	$-9223372036854775807, %rax
	movq	%rax, -560(%rbp)
Ltmp970:
	.loc	15 2092 45
	jmp	LBB108_9
LBB108_8:
	.loc	15 2093 17 is_stmt 1
	movq	-552(%rbp), %rcx
	movq	-544(%rbp), %rax
	movq	%rcx, -320(%rbp)
	movq	%rax, -312(%rbp)
Ltmp971:
	.loc	15 2093 42 is_stmt 0
	movq	%rcx, -400(%rbp)
	movq	%rax, -392(%rbp)
	.loc	15 2093 23
	movq	-400(%rbp), %rcx
	movq	-392(%rbp), %rax
	movq	%rcx, -568(%rbp)
	movq	%rax, -560(%rbp)
Ltmp972:
LBB108_9:
	.loc	10 390 28 is_stmt 1
	movabsq	$-9223372036854775807, %rdx
	movl	$1, %eax
	xorl	%ecx, %ecx
	cmpq	%rdx, -560(%rbp)
	cmoveq	%rcx, %rax
	cmpq	$0, %rax
	jne	LBB108_11
	.loc	10 0 28 is_stmt 0
	movq	-624(%rbp), %rax
	.loc	10 390 28
	movq	-568(%rbp), %rsi
	movq	%rsi, -248(%rbp)
Ltmp973:
	.loc	10 390 28
	movq	%rsi, -240(%rbp)
Ltmp974:
	.loc	10 394 28 is_stmt 1
	movq	(%rax), %rdi
	shlq	$1, %rdi
	movq	%rdi, -232(%rbp)
	.loc	10 394 42 is_stmt 0
	movq	%rsi, -224(%rbp)
Ltmp975:
	.loc	9 1276 5 is_stmt 1
	movq	%rdi, -216(%rbp)
	.loc	9 1276 12 is_stmt 0
	movq	%rsi, -208(%rbp)
Ltmp976:
	.loc	9 803 13 is_stmt 1
	callq	__ZN4core3cmp6max_by17h4c61f28a0041330aE
	movq	%rax, %rsi
	movq	%rsi, -200(%rbp)
Ltmp977:
	.loc	10 395 52
	movq	%rsi, -192(%rbp)
	.loc	10 395 19 is_stmt 0
	movq	$4, -184(%rbp)
Ltmp978:
	.loc	9 1276 5 is_stmt 1
	movq	$4, -176(%rbp)
	.loc	9 1276 12 is_stmt 0
	movq	%rsi, -168(%rbp)
Ltmp979:
	.loc	9 803 13 is_stmt 1
	movl	$4, %edi
	callq	__ZN4core3cmp6max_by17h4c61f28a0041330aE
	movq	%rax, %rdx
	movq	%rdx, -648(%rbp)
	movq	%rdx, -160(%rbp)
Ltmp980:
	.loc	10 397 45
	movq	%rdx, -152(%rbp)
Ltmp981:
	.loc	21 459 5
	movq	$8, -144(%rbp)
Ltmp982:
	.loc	39 89 18
	movq	$8, -136(%rbp)
	movq	-136(%rbp), %rsi
Ltmp983:
	.loc	38 438 16
	movl	$8, %edi
	callq	__ZN4core5alloc6layout6Layout5array5inner17h49faefc01867d4e4E
	movq	-624(%rbp), %rsi
	movq	%rax, -640(%rbp)
	movq	%rdx, -632(%rbp)
	movq	%rax, -128(%rbp)
	movq	%rdx, -120(%rbp)
Ltmp984:
	.loc	10 400 43
	leaq	-440(%rbp), %rdi
	callq	__ZN5alloc7raw_vec19RawVec$LT$T$C$A$GT$14current_memory17hcdacee9cbf6175b0E
	movq	-640(%rbp), %rsi
	movq	-632(%rbp), %rdx
	movq	-624(%rbp), %r8
	.loc	10 400 19 is_stmt 0
	leaq	-464(%rbp), %rdi
	leaq	-440(%rbp), %rcx
	callq	__ZN5alloc7raw_vec11finish_grow17haa2f6b1a8731324aE
Ltmp985:
	.loc	15 2091 9 is_stmt 1
	cmpq	$0, -464(%rbp)
	je	LBB108_13
	jmp	LBB108_14
Ltmp986:
LBB108_11:
	.loc	10 390 79
	movq	-568(%rbp), %rcx
	movq	-560(%rbp), %rax
	movq	%rcx, -296(%rbp)
	movq	%rax, -288(%rbp)
Ltmp987:
	.loc	10 390 79 is_stmt 0
	movq	%rcx, -504(%rbp)
	movq	%rax, -496(%rbp)
Ltmp988:
	.loc	15 2107 17 is_stmt 1
	movq	-504(%rbp), %rcx
	movq	-496(%rbp), %rax
	movq	%rcx, -280(%rbp)
	movq	%rax, -272(%rbp)
Ltmp989:
	.loc	15 2107 38 is_stmt 0
	movq	%rcx, -264(%rbp)
	movq	%rax, -256(%rbp)
Ltmp990:
	.file	43 "/rustc/2c8cc343237b8f7d5a3c3703e3a87f2eb2c54a74/library/alloc/src/collections" "mod.rs"
	.loc	43 117 9 is_stmt 1
	movq	%rcx, -384(%rbp)
	movq	%rax, -376(%rbp)
Ltmp991:
	.loc	15 2107 23
	movq	-384(%rbp), %rcx
	movq	-376(%rbp), %rax
	movq	%rcx, -600(%rbp)
	movq	%rax, -592(%rbp)
Ltmp992:
LBB108_12:
	.loc	28 1 1
	jmp	LBB108_3
LBB108_13:
Ltmp993:
	.loc	15 2092 16
	movq	-456(%rbp), %rcx
	movq	-448(%rbp), %rax
	movq	%rcx, -96(%rbp)
	movq	%rax, -88(%rbp)
Ltmp994:
	.loc	15 2092 22 is_stmt 0
	movq	%rcx, -480(%rbp)
	movq	%rax, -472(%rbp)
	movq	$0, -488(%rbp)
Ltmp995:
	.loc	15 2092 45
	jmp	LBB108_15
LBB108_14:
	.loc	15 2093 17 is_stmt 1
	movq	-456(%rbp), %rcx
	movq	-448(%rbp), %rax
	movq	%rcx, -112(%rbp)
	movq	%rax, -104(%rbp)
Ltmp996:
	.loc	15 2093 42 is_stmt 0
	movq	%rcx, -368(%rbp)
	movq	%rax, -360(%rbp)
	.loc	15 2093 23
	movq	-368(%rbp), %rcx
	movq	-360(%rbp), %rax
	movq	%rcx, -480(%rbp)
	movq	%rax, -472(%rbp)
	movq	$1, -488(%rbp)
Ltmp997:
LBB108_15:
	.loc	10 400 19 is_stmt 1
	cmpq	$0, -488(%rbp)
	jne	LBB108_17
	.loc	10 0 19 is_stmt 0
	movq	-648(%rbp), %rcx
	movq	-624(%rbp), %rdi
	.loc	10 400 19
	movq	-480(%rbp), %rsi
	movq	-472(%rbp), %rdx
	movq	%rsi, -32(%rbp)
	movq	%rdx, -24(%rbp)
Ltmp998:
	.loc	10 400 19
	movq	%rsi, -16(%rbp)
	movq	%rdx, -8(%rbp)
Ltmp999:
	.loc	10 401 9 is_stmt 1
	callq	__ZN5alloc7raw_vec19RawVec$LT$T$C$A$GT$15set_ptr_and_cap17hf40a1e7260c79f28E
	.loc	10 402 9
	movabsq	$-9223372036854775807, %rax
	movq	%rax, -592(%rbp)
Ltmp1000:
	.loc	10 403 6
	jmp	LBB108_3
LBB108_17:
Ltmp1001:
	.loc	10 400 82
	movq	-480(%rbp), %rcx
	movq	-472(%rbp), %rax
	movq	%rcx, -80(%rbp)
	movq	%rax, -72(%rbp)
Ltmp1002:
	.loc	10 400 82 is_stmt 0
	movq	%rcx, -416(%rbp)
	movq	%rax, -408(%rbp)
Ltmp1003:
	.loc	15 2107 17 is_stmt 1
	movq	-416(%rbp), %rcx
	movq	-408(%rbp), %rax
	movq	%rcx, -64(%rbp)
	movq	%rax, -56(%rbp)
Ltmp1004:
	.loc	15 2107 38 is_stmt 0
	movq	%rcx, -48(%rbp)
	movq	%rax, -40(%rbp)
	.loc	15 2107 23
	movq	%rcx, -600(%rbp)
	movq	%rax, -592(%rbp)
Ltmp1005:
	.loc	28 1 1 is_stmt 1
	jmp	LBB108_12
Ltmp1006:
Lfunc_end108:
	.cfi_endproc

	.globl	__ZN5alloc7raw_vec19RawVec$LT$T$C$A$GT$14grow_amortized17h7e58b6aa51fc0d0aE
	.p2align	4, 0x90
__ZN5alloc7raw_vec19RawVec$LT$T$C$A$GT$14grow_amortized17h7e58b6aa51fc0d0aE:
Lfunc_begin109:
	.loc	10 379 0
	.cfi_startproc
	pushq	%rbp
	.cfi_def_cfa_offset 16
	.cfi_offset %rbp, -16
	movq	%rsp, %rbp
	.cfi_def_cfa_register %rbp
	subq	$656, %rsp
	movq	%rdi, -624(%rbp)
	movq	%rsi, -616(%rbp)
	movq	%rdx, -608(%rbp)
	movq	%rdi, -352(%rbp)
	movq	%rsi, -344(%rbp)
	movq	%rdx, -336(%rbp)
Ltmp1007:
	.loc	10 383 12 prologue_end
	xorl	%eax, %eax
	testb	$1, %al
	jne	LBB109_2
	.loc	10 0 12 is_stmt 0
	movq	-608(%rbp), %rsi
	movq	-616(%rbp), %rdi
	.loc	10 390 28 is_stmt 1
	callq	__ZN4core3num23_$LT$impl$u20$usize$GT$11checked_add17h917116482874df92E
	movq	%rdx, -528(%rbp)
	movq	%rax, -536(%rbp)
	.loc	10 390 62 is_stmt 0
	movq	$0, -512(%rbp)
Ltmp1008:
	.loc	27 1096 9 is_stmt 1
	cmpq	$0, -536(%rbp)
	je	LBB109_4
	jmp	LBB109_5
Ltmp1009:
LBB109_2:
	.loc	10 386 24
	movq	$0, -576(%rbp)
	movq	-584(%rbp), %rdi
	movq	-576(%rbp), %rsi
	callq	__ZN50_$LT$T$u20$as$u20$core..convert..Into$LT$U$GT$$GT$4into17hba30e3cf5030e1e5E
	.loc	10 386 20 is_stmt 0
	movq	%rax, -600(%rbp)
	movq	%rdx, -592(%rbp)
LBB109_3:
	.loc	10 403 6 is_stmt 1
	movq	-600(%rbp), %rax
	movq	-592(%rbp), %rdx
	addq	$656, %rsp
	popq	%rbp
	retq
LBB109_4:
Ltmp1010:
	.loc	27 1098 25
	movq	-520(%rbp), %rcx
	movq	-512(%rbp), %rax
	.loc	27 1098 21 is_stmt 0
	movq	%rcx, -552(%rbp)
	movq	%rax, -544(%rbp)
	.loc	27 1098 28
	jmp	LBB109_6
LBB109_5:
	.loc	27 1097 18 is_stmt 1
	movq	-528(%rbp), %rax
	movq	%rax, -328(%rbp)
Ltmp1011:
	.loc	27 1097 24 is_stmt 0
	movq	%rax, -552(%rbp)
	movabsq	$-9223372036854775807, %rax
	movq	%rax, -544(%rbp)
Ltmp1012:
LBB109_6:
	.loc	15 2091 15 is_stmt 1
	movabsq	$-9223372036854775807, %rdx
	movl	$1, %eax
	xorl	%ecx, %ecx
	cmpq	%rdx, -544(%rbp)
	cmoveq	%rcx, %rax
	.loc	15 2091 9 is_stmt 0
	cmpq	$0, %rax
	jne	LBB109_8
	.loc	15 2092 16 is_stmt 1
	movq	-552(%rbp), %rax
	movq	%rax, -304(%rbp)
Ltmp1013:
	.loc	15 2092 22 is_stmt 0
	movq	%rax, -568(%rbp)
	movabsq	$-9223372036854775807, %rax
	movq	%rax, -560(%rbp)
Ltmp1014:
	.loc	15 2092 45
	jmp	LBB109_9
LBB109_8:
	.loc	15 2093 17 is_stmt 1
	movq	-552(%rbp), %rcx
	movq	-544(%rbp), %rax
	movq	%rcx, -320(%rbp)
	movq	%rax, -312(%rbp)
Ltmp1015:
	.loc	15 2093 42 is_stmt 0
	movq	%rcx, -400(%rbp)
	movq	%rax, -392(%rbp)
	.loc	15 2093 23
	movq	-400(%rbp), %rcx
	movq	-392(%rbp), %rax
	movq	%rcx, -568(%rbp)
	movq	%rax, -560(%rbp)
Ltmp1016:
LBB109_9:
	.loc	10 390 28 is_stmt 1
	movabsq	$-9223372036854775807, %rdx
	movl	$1, %eax
	xorl	%ecx, %ecx
	cmpq	%rdx, -560(%rbp)
	cmoveq	%rcx, %rax
	cmpq	$0, %rax
	jne	LBB109_11
	.loc	10 0 28 is_stmt 0
	movq	-624(%rbp), %rax
	.loc	10 390 28
	movq	-568(%rbp), %rsi
	movq	%rsi, -248(%rbp)
Ltmp1017:
	.loc	10 390 28
	movq	%rsi, -240(%rbp)
Ltmp1018:
	.loc	10 394 28 is_stmt 1
	movq	(%rax), %rdi
	shlq	$1, %rdi
	movq	%rdi, -232(%rbp)
	.loc	10 394 42 is_stmt 0
	movq	%rsi, -224(%rbp)
Ltmp1019:
	.loc	9 1276 5 is_stmt 1
	movq	%rdi, -216(%rbp)
	.loc	9 1276 12 is_stmt 0
	movq	%rsi, -208(%rbp)
Ltmp1020:
	.loc	9 803 13 is_stmt 1
	callq	__ZN4core3cmp6max_by17h4c61f28a0041330aE
	movq	%rax, %rsi
	movq	%rsi, -200(%rbp)
Ltmp1021:
	.loc	10 395 52
	movq	%rsi, -192(%rbp)
	.loc	10 395 19 is_stmt 0
	movq	$4, -184(%rbp)
Ltmp1022:
	.loc	9 1276 5 is_stmt 1
	movq	$4, -176(%rbp)
	.loc	9 1276 12 is_stmt 0
	movq	%rsi, -168(%rbp)
Ltmp1023:
	.loc	9 803 13 is_stmt 1
	movl	$4, %edi
	callq	__ZN4core3cmp6max_by17h4c61f28a0041330aE
	movq	%rax, %rdx
	movq	%rdx, -648(%rbp)
	movq	%rdx, -160(%rbp)
Ltmp1024:
	.loc	10 397 45
	movq	%rdx, -152(%rbp)
Ltmp1025:
	.loc	21 459 5
	movq	$2, -144(%rbp)
Ltmp1026:
	.loc	39 89 18
	movq	$2, -136(%rbp)
	movq	-136(%rbp), %rsi
Ltmp1027:
	.loc	38 438 16
	movl	$2, %edi
	callq	__ZN4core5alloc6layout6Layout5array5inner17h49faefc01867d4e4E
	movq	-624(%rbp), %rsi
	movq	%rax, -640(%rbp)
	movq	%rdx, -632(%rbp)
	movq	%rax, -128(%rbp)
	movq	%rdx, -120(%rbp)
Ltmp1028:
	.loc	10 400 43
	leaq	-440(%rbp), %rdi
	callq	__ZN5alloc7raw_vec19RawVec$LT$T$C$A$GT$14current_memory17h4f3432f8942b9465E
	movq	-640(%rbp), %rsi
	movq	-632(%rbp), %rdx
	movq	-624(%rbp), %r8
	.loc	10 400 19 is_stmt 0
	leaq	-464(%rbp), %rdi
	leaq	-440(%rbp), %rcx
	callq	__ZN5alloc7raw_vec11finish_grow17haa2f6b1a8731324aE
Ltmp1029:
	.loc	15 2091 9 is_stmt 1
	cmpq	$0, -464(%rbp)
	je	LBB109_13
	jmp	LBB109_14
Ltmp1030:
LBB109_11:
	.loc	10 390 79
	movq	-568(%rbp), %rcx
	movq	-560(%rbp), %rax
	movq	%rcx, -296(%rbp)
	movq	%rax, -288(%rbp)
Ltmp1031:
	.loc	10 390 79 is_stmt 0
	movq	%rcx, -504(%rbp)
	movq	%rax, -496(%rbp)
Ltmp1032:
	.loc	15 2107 17 is_stmt 1
	movq	-504(%rbp), %rcx
	movq	-496(%rbp), %rax
	movq	%rcx, -280(%rbp)
	movq	%rax, -272(%rbp)
Ltmp1033:
	.loc	15 2107 38 is_stmt 0
	movq	%rcx, -264(%rbp)
	movq	%rax, -256(%rbp)
Ltmp1034:
	.loc	43 117 9 is_stmt 1
	movq	%rcx, -384(%rbp)
	movq	%rax, -376(%rbp)
Ltmp1035:
	.loc	15 2107 23
	movq	-384(%rbp), %rcx
	movq	-376(%rbp), %rax
	movq	%rcx, -600(%rbp)
	movq	%rax, -592(%rbp)
Ltmp1036:
LBB109_12:
	.loc	28 1 1
	jmp	LBB109_3
LBB109_13:
Ltmp1037:
	.loc	15 2092 16
	movq	-456(%rbp), %rcx
	movq	-448(%rbp), %rax
	movq	%rcx, -96(%rbp)
	movq	%rax, -88(%rbp)
Ltmp1038:
	.loc	15 2092 22 is_stmt 0
	movq	%rcx, -480(%rbp)
	movq	%rax, -472(%rbp)
	movq	$0, -488(%rbp)
Ltmp1039:
	.loc	15 2092 45
	jmp	LBB109_15
LBB109_14:
	.loc	15 2093 17 is_stmt 1
	movq	-456(%rbp), %rcx
	movq	-448(%rbp), %rax
	movq	%rcx, -112(%rbp)
	movq	%rax, -104(%rbp)
Ltmp1040:
	.loc	15 2093 42 is_stmt 0
	movq	%rcx, -368(%rbp)
	movq	%rax, -360(%rbp)
	.loc	15 2093 23
	movq	-368(%rbp), %rcx
	movq	-360(%rbp), %rax
	movq	%rcx, -480(%rbp)
	movq	%rax, -472(%rbp)
	movq	$1, -488(%rbp)
Ltmp1041:
LBB109_15:
	.loc	10 400 19 is_stmt 1
	cmpq	$0, -488(%rbp)
	jne	LBB109_17
	.loc	10 0 19 is_stmt 0
	movq	-648(%rbp), %rcx
	movq	-624(%rbp), %rdi
	.loc	10 400 19
	movq	-480(%rbp), %rsi
	movq	-472(%rbp), %rdx
	movq	%rsi, -32(%rbp)
	movq	%rdx, -24(%rbp)
Ltmp1042:
	.loc	10 400 19
	movq	%rsi, -16(%rbp)
	movq	%rdx, -8(%rbp)
Ltmp1043:
	.loc	10 401 9 is_stmt 1
	callq	__ZN5alloc7raw_vec19RawVec$LT$T$C$A$GT$15set_ptr_and_cap17ha4ec3bed43bc09deE
	.loc	10 402 9
	movabsq	$-9223372036854775807, %rax
	movq	%rax, -592(%rbp)
Ltmp1044:
	.loc	10 403 6
	jmp	LBB109_3
LBB109_17:
Ltmp1045:
	.loc	10 400 82
	movq	-480(%rbp), %rcx
	movq	-472(%rbp), %rax
	movq	%rcx, -80(%rbp)
	movq	%rax, -72(%rbp)
Ltmp1046:
	.loc	10 400 82 is_stmt 0
	movq	%rcx, -416(%rbp)
	movq	%rax, -408(%rbp)
Ltmp1047:
	.loc	15 2107 17 is_stmt 1
	movq	-416(%rbp), %rcx
	movq	-408(%rbp), %rax
	movq	%rcx, -64(%rbp)
	movq	%rax, -56(%rbp)
Ltmp1048:
	.loc	15 2107 38 is_stmt 0
	movq	%rcx, -48(%rbp)
	movq	%rax, -40(%rbp)
	.loc	15 2107 23
	movq	%rcx, -600(%rbp)
	movq	%rax, -592(%rbp)
Ltmp1049:
	.loc	28 1 1 is_stmt 1
	jmp	LBB109_12
Ltmp1050:
Lfunc_end109:
	.cfi_endproc

	.globl	__ZN5alloc7raw_vec19RawVec$LT$T$C$A$GT$15set_ptr_and_cap17ha4ec3bed43bc09deE
	.p2align	4, 0x90
__ZN5alloc7raw_vec19RawVec$LT$T$C$A$GT$15set_ptr_and_cap17ha4ec3bed43bc09deE:
Lfunc_begin110:
	.loc	10 364 0
	.cfi_startproc
	pushq	%rbp
	.cfi_def_cfa_offset 16
	.cfi_offset %rbp, -16
	movq	%rsp, %rbp
	.cfi_def_cfa_register %rbp
	subq	$112, %rsp
	movq	%rdi, -88(%rbp)
	movq	%rsi, -80(%rbp)
	movq	%rdx, -72(%rbp)
	movq	%rcx, -64(%rbp)
Ltmp1051:
	.loc	10 368 51 prologue_end
	movq	%rsi, -56(%rbp)
	movq	%rdx, -48(%rbp)
Ltmp1052:
	.loc	12 450 41
	movq	%rsi, -40(%rbp)
	movq	%rdx, -32(%rbp)
	movq	%rsi, -24(%rbp)
Ltmp1053:
	.loc	12 201 13
	movq	%rsi, -104(%rbp)
Ltmp1054:
	.loc	12 326 9
	movq	-104(%rbp), %rax
	movq	%rax, -16(%rbp)
Ltmp1055:
	.loc	11 87 59
	movq	%rax, -8(%rbp)
Ltmp1056:
	.loc	12 201 13
	movq	%rax, -96(%rbp)
Ltmp1057:
	.loc	11 87 18
	movq	-96(%rbp), %rax
	movq	%rax, -112(%rbp)
Ltmp1058:
	.loc	10 368 9
	movq	-112(%rbp), %rax
	movq	%rax, 8(%rdi)
	.loc	10 369 9
	movq	%rcx, (%rdi)
	.loc	10 370 6
	addq	$112, %rsp
	popq	%rbp
	retq
Ltmp1059:
Lfunc_end110:
	.cfi_endproc

	.globl	__ZN5alloc7raw_vec19RawVec$LT$T$C$A$GT$15set_ptr_and_cap17hf40a1e7260c79f28E
	.p2align	4, 0x90
__ZN5alloc7raw_vec19RawVec$LT$T$C$A$GT$15set_ptr_and_cap17hf40a1e7260c79f28E:
Lfunc_begin111:
	.loc	10 364 0
	.cfi_startproc
	pushq	%rbp
	.cfi_def_cfa_offset 16
	.cfi_offset %rbp, -16
	movq	%rsp, %rbp
	.cfi_def_cfa_register %rbp
	subq	$112, %rsp
	movq	%rdi, -88(%rbp)
	movq	%rsi, -80(%rbp)
	movq	%rdx, -72(%rbp)
	movq	%rcx, -64(%rbp)
Ltmp1060:
	.loc	10 368 51 prologue_end
	movq	%rsi, -56(%rbp)
	movq	%rdx, -48(%rbp)
Ltmp1061:
	.loc	12 450 41
	movq	%rsi, -40(%rbp)
	movq	%rdx, -32(%rbp)
	movq	%rsi, -24(%rbp)
Ltmp1062:
	.loc	12 201 13
	movq	%rsi, -104(%rbp)
Ltmp1063:
	.loc	12 326 9
	movq	-104(%rbp), %rax
	movq	%rax, -16(%rbp)
Ltmp1064:
	.loc	11 87 59
	movq	%rax, -8(%rbp)
Ltmp1065:
	.loc	12 201 13
	movq	%rax, -96(%rbp)
Ltmp1066:
	.loc	11 87 18
	movq	-96(%rbp), %rax
	movq	%rax, -112(%rbp)
Ltmp1067:
	.loc	10 368 9
	movq	-112(%rbp), %rax
	movq	%rax, 8(%rdi)
	.loc	10 369 9
	movq	%rcx, (%rdi)
	.loc	10 370 6
	addq	$112, %rsp
	popq	%rbp
	retq
Ltmp1068:
Lfunc_end111:
	.cfi_endproc

	.globl	__ZN5alloc7raw_vec19RawVec$LT$T$C$A$GT$6new_in17h1f5dba48e57f4ee5E
	.p2align	4, 0x90
__ZN5alloc7raw_vec19RawVec$LT$T$C$A$GT$6new_in17h1f5dba48e57f4ee5E:
Lfunc_begin112:
	.loc	10 121 0
	.cfi_startproc
	pushq	%rbp
	.cfi_def_cfa_offset 16
	.cfi_offset %rbp, -16
	movq	%rsp, %rbp
	.cfi_def_cfa_register %rbp
	subq	$96, %rsp
Ltmp1069:
	.loc	21 459 5 prologue_end
	movq	$2, -48(%rbp)
Ltmp1070:
	.loc	14 599 14
	movq	$2, -40(%rbp)
	movq	-40(%rbp), %rax
	movq	%rax, -96(%rbp)
	movq	%rax, -32(%rbp)
Ltmp1071:
	.loc	14 0 14 is_stmt 0
	movq	-96(%rbp), %rax
Ltmp1072:
	.loc	12 97 36 is_stmt 1
	movq	%rax, -8(%rbp)
Ltmp1073:
	.loc	12 201 13
	movq	%rax, -64(%rbp)
Ltmp1074:
	.loc	11 191 18
	movq	-64(%rbp), %rax
	.loc	11 191 9 is_stmt 0
	movq	%rax, -72(%rbp)
Ltmp1075:
	.loc	10 123 9 is_stmt 1
	movq	-72(%rbp), %rax
	movq	%rax, -80(%rbp)
	movq	$0, -88(%rbp)
	.loc	10 124 6
	movq	-88(%rbp), %rax
	movq	-80(%rbp), %rdx
	addq	$96, %rsp
	popq	%rbp
	retq
Ltmp1076:
Lfunc_end112:
	.cfi_endproc

	.globl	__ZN5alloc7raw_vec19RawVec$LT$T$C$A$GT$6new_in17hc0d3965d0193f58eE
	.p2align	4, 0x90
__ZN5alloc7raw_vec19RawVec$LT$T$C$A$GT$6new_in17hc0d3965d0193f58eE:
Lfunc_begin113:
	.loc	10 121 0
	.cfi_startproc
	pushq	%rbp
	.cfi_def_cfa_offset 16
	.cfi_offset %rbp, -16
	movq	%rsp, %rbp
	.cfi_def_cfa_register %rbp
	subq	$96, %rsp
Ltmp1077:
	.loc	21 459 5 prologue_end
	movq	$8, -48(%rbp)
Ltmp1078:
	.loc	14 599 14
	movq	$8, -40(%rbp)
	movq	-40(%rbp), %rax
	movq	%rax, -96(%rbp)
	movq	%rax, -32(%rbp)
Ltmp1079:
	.loc	14 0 14 is_stmt 0
	movq	-96(%rbp), %rax
Ltmp1080:
	.loc	12 97 36 is_stmt 1
	movq	%rax, -8(%rbp)
Ltmp1081:
	.loc	12 201 13
	movq	%rax, -64(%rbp)
Ltmp1082:
	.loc	11 191 18
	movq	-64(%rbp), %rax
	.loc	11 191 9 is_stmt 0
	movq	%rax, -72(%rbp)
Ltmp1083:
	.loc	10 123 9 is_stmt 1
	movq	-72(%rbp), %rax
	movq	%rax, -80(%rbp)
	movq	$0, -88(%rbp)
	.loc	10 124 6
	movq	-88(%rbp), %rax
	movq	-80(%rbp), %rdx
	addq	$96, %rsp
	popq	%rbp
	retq
Ltmp1084:
Lfunc_end113:
	.cfi_endproc

	.globl	__ZN5alloc7raw_vec19RawVec$LT$T$C$A$GT$7reserve17h26d871d5f87f13a0E
	.p2align	4, 0x90
__ZN5alloc7raw_vec19RawVec$LT$T$C$A$GT$7reserve17h26d871d5f87f13a0E:
Lfunc_begin114:
	.loc	10 274 0
	.cfi_startproc
	pushq	%rbp
	.cfi_def_cfa_offset 16
	.cfi_offset %rbp, -16
	movq	%rsp, %rbp
	.cfi_def_cfa_register %rbp
	subq	$48, %rsp
	movq	%rdi, -48(%rbp)
	movq	%rsi, -40(%rbp)
	movq	%rdx, -32(%rbp)
	movq	%rdi, -24(%rbp)
	movq	%rsi, -16(%rbp)
	movq	%rdx, -8(%rbp)
Ltmp1085:
	.loc	10 288 12 prologue_end
	callq	__ZN5alloc7raw_vec19RawVec$LT$T$C$A$GT$13needs_to_grow17h666b9f7eda2d9e5aE
	testb	$1, %al
	jne	LBB114_2
LBB114_1:
	.loc	10 291 6
	addq	$48, %rsp
	popq	%rbp
	retq
LBB114_2:
	.loc	10 0 6 is_stmt 0
	movq	-32(%rbp), %rdx
	movq	-40(%rbp), %rsi
	movq	-48(%rbp), %rdi
	.loc	10 289 13 is_stmt 1
	callq	__ZN5alloc7raw_vec19RawVec$LT$T$C$A$GT$7reserve21do_reserve_and_handle17h54d28f298a9869c8E
	.loc	10 288 9
	jmp	LBB114_1
Ltmp1086:
Lfunc_end114:
	.cfi_endproc

	.globl	__ZN5alloc7raw_vec19RawVec$LT$T$C$A$GT$7reserve17h398e3aa36b57e8b8E
	.p2align	4, 0x90
__ZN5alloc7raw_vec19RawVec$LT$T$C$A$GT$7reserve17h398e3aa36b57e8b8E:
Lfunc_begin115:
	.loc	10 274 0
	.cfi_startproc
	pushq	%rbp
	.cfi_def_cfa_offset 16
	.cfi_offset %rbp, -16
	movq	%rsp, %rbp
	.cfi_def_cfa_register %rbp
	subq	$48, %rsp
	movq	%rdi, -48(%rbp)
	movq	%rsi, -40(%rbp)
	movq	%rdx, -32(%rbp)
	movq	%rdi, -24(%rbp)
	movq	%rsi, -16(%rbp)
	movq	%rdx, -8(%rbp)
Ltmp1087:
	.loc	10 288 12 prologue_end
	callq	__ZN5alloc7raw_vec19RawVec$LT$T$C$A$GT$13needs_to_grow17h6f0d474cfd5326f2E
	testb	$1, %al
	jne	LBB115_2
LBB115_1:
	.loc	10 291 6
	addq	$48, %rsp
	popq	%rbp
	retq
LBB115_2:
	.loc	10 0 6 is_stmt 0
	movq	-32(%rbp), %rdx
	movq	-40(%rbp), %rsi
	movq	-48(%rbp), %rdi
	.loc	10 289 13 is_stmt 1
	callq	__ZN5alloc7raw_vec19RawVec$LT$T$C$A$GT$7reserve21do_reserve_and_handle17h7265f6195753d4deE
	.loc	10 288 9
	jmp	LBB115_1
Ltmp1088:
Lfunc_end115:
	.cfi_endproc

	.globl	__ZN5alloc7raw_vec19RawVec$LT$T$C$A$GT$7reserve21do_reserve_and_handle17h54d28f298a9869c8E
	.p2align	4, 0x90
__ZN5alloc7raw_vec19RawVec$LT$T$C$A$GT$7reserve21do_reserve_and_handle17h54d28f298a9869c8E:
Lfunc_begin116:
	.loc	10 280 0
	.cfi_startproc
	pushq	%rbp
	.cfi_def_cfa_offset 16
	.cfi_offset %rbp, -16
	movq	%rsp, %rbp
	.cfi_def_cfa_register %rbp
	subq	$32, %rsp
	movq	%rdi, -24(%rbp)
	movq	%rsi, -16(%rbp)
	movq	%rdx, -8(%rbp)
Ltmp1089:
	.loc	10 285 28 prologue_end
	callq	__ZN5alloc7raw_vec19RawVec$LT$T$C$A$GT$14grow_amortized17h7e58b6aa51fc0d0aE
	movq	%rax, %rdi
	movq	%rdx, %rsi
	.loc	10 285 13 is_stmt 0
	callq	__ZN5alloc7raw_vec14handle_reserve17h889a852ea37d71d3E
	.loc	10 286 10 is_stmt 1
	addq	$32, %rsp
	popq	%rbp
	retq
Ltmp1090:
Lfunc_end116:
	.cfi_endproc

	.globl	__ZN5alloc7raw_vec19RawVec$LT$T$C$A$GT$7reserve21do_reserve_and_handle17h7265f6195753d4deE
	.p2align	4, 0x90
__ZN5alloc7raw_vec19RawVec$LT$T$C$A$GT$7reserve21do_reserve_and_handle17h7265f6195753d4deE:
Lfunc_begin117:
	.loc	10 280 0
	.cfi_startproc
	pushq	%rbp
	.cfi_def_cfa_offset 16
	.cfi_offset %rbp, -16
	movq	%rsp, %rbp
	.cfi_def_cfa_register %rbp
	subq	$32, %rsp
	movq	%rdi, -24(%rbp)
	movq	%rsi, -16(%rbp)
	movq	%rdx, -8(%rbp)
Ltmp1091:
	.loc	10 285 28 prologue_end
	callq	__ZN5alloc7raw_vec19RawVec$LT$T$C$A$GT$14grow_amortized17h6a658504c66cc5a8E
	movq	%rax, %rdi
	movq	%rdx, %rsi
	.loc	10 285 13 is_stmt 0
	callq	__ZN5alloc7raw_vec14handle_reserve17h889a852ea37d71d3E
	.loc	10 286 10 is_stmt 1
	addq	$32, %rsp
	popq	%rbp
	retq
Ltmp1092:
Lfunc_end117:
	.cfi_endproc

	.globl	__ZN63_$LT$I$u20$as$u20$core..iter..traits..collect..IntoIterator$GT$9into_iter17h5f0200964ff5671bE
	.p2align	4, 0x90
__ZN63_$LT$I$u20$as$u20$core..iter..traits..collect..IntoIterator$GT$9into_iter17h5f0200964ff5671bE:
Lfunc_begin118:
	.file	44 "/rustc/2c8cc343237b8f7d5a3c3703e3a87f2eb2c54a74/library/core/src/iter/traits" "collect.rs"
	.loc	44 272 0
	.cfi_startproc
	pushq	%rbp
	.cfi_def_cfa_offset 16
	.cfi_offset %rbp, -16
	movq	%rsp, %rbp
	.cfi_def_cfa_register %rbp
	subq	$16, %rsp
	movq	%rsi, %rdx
	movq	%rdi, %rax
	movq	%rax, -16(%rbp)
	movq	%rdx, -8(%rbp)
Ltmp1093:
	.loc	44 274 6 prologue_end
	addq	$16, %rsp
	popq	%rbp
	retq
Ltmp1094:
Lfunc_end118:
	.cfi_endproc

	.globl	__ZN63_$LT$I$u20$as$u20$core..iter..traits..collect..IntoIterator$GT$9into_iter17hc3e30c62933727a2E
	.p2align	4, 0x90
__ZN63_$LT$I$u20$as$u20$core..iter..traits..collect..IntoIterator$GT$9into_iter17hc3e30c62933727a2E:
Lfunc_begin119:
	.loc	44 272 0
	.cfi_startproc
	pushq	%rbp
	.cfi_def_cfa_offset 16
	.cfi_offset %rbp, -16
	movq	%rsp, %rbp
	.cfi_def_cfa_register %rbp
	movq	%rdi, %rax
Ltmp1095:
	.loc	44 273 9 prologue_end
	movq	(%rsi), %rcx
	movq	%rcx, (%rdi)
	movq	8(%rsi), %rcx
	movq	%rcx, 8(%rdi)
	movq	16(%rsi), %rcx
	movq	%rcx, 16(%rdi)
	.loc	44 274 6
	popq	%rbp
	retq
Ltmp1096:
Lfunc_end119:
	.cfi_endproc

	.globl	__ZN63_$LT$I$u20$as$u20$core..iter..traits..collect..IntoIterator$GT$9into_iter17he40f2fae0a13530aE
	.p2align	4, 0x90
__ZN63_$LT$I$u20$as$u20$core..iter..traits..collect..IntoIterator$GT$9into_iter17he40f2fae0a13530aE:
Lfunc_begin120:
	.loc	44 272 0
	.cfi_startproc
	pushq	%rbp
	.cfi_def_cfa_offset 16
	.cfi_offset %rbp, -16
	movq	%rsp, %rbp
	.cfi_def_cfa_register %rbp
	movq	%rdi, %rax
Ltmp1097:
	.loc	44 273 9 prologue_end
	movq	(%rsi), %rcx
	movq	%rcx, (%rdi)
	movq	8(%rsi), %rcx
	movq	%rcx, 8(%rdi)
	movq	16(%rsi), %rcx
	movq	%rcx, 16(%rdi)
	.loc	44 274 6
	popq	%rbp
	retq
Ltmp1098:
Lfunc_end120:
	.cfi_endproc

	.p2align	4, 0x90
__ZN63_$LT$alloc..alloc..Global$u20$as$u20$core..alloc..Allocator$GT$10deallocate17h389505a430384a30E:
Lfunc_begin121:
	.loc	42 246 0
	.cfi_startproc
	pushq	%rbp
	.cfi_def_cfa_offset 16
	.cfi_offset %rbp, -16
	movq	%rsp, %rbp
	.cfi_def_cfa_register %rbp
	subq	$112, %rsp
	movq	%rsi, -112(%rbp)
	movq	%rdx, -104(%rbp)
	movq	%rcx, -96(%rbp)
	movq	%rdi, -64(%rbp)
	movq	%rsi, -56(%rbp)
Ltmp1099:
	.loc	42 247 12 prologue_end
	leaq	-104(%rbp), %rax
	movq	%rax, -48(%rbp)
	cmpq	$0, -104(%rbp)
	jne	LBB121_2
	.loc	42 247 9 is_stmt 0
	jmp	LBB121_3
LBB121_2:
	.loc	42 0 9
	movq	-112(%rbp), %rdi
	.loc	42 250 30 is_stmt 1
	movq	%rdi, -40(%rbp)
Ltmp1100:
	.loc	12 326 9
	movq	%rdi, -32(%rbp)
Ltmp1101:
	.loc	42 250 44
	movq	-104(%rbp), %rcx
	movq	-96(%rbp), %rax
	movq	%rcx, -88(%rbp)
	movq	%rax, -80(%rbp)
Ltmp1102:
	.loc	42 113 34
	leaq	-88(%rbp), %rax
	movq	%rax, -24(%rbp)
Ltmp1103:
	.loc	38 129 9
	movq	-88(%rbp), %rsi
Ltmp1104:
	.loc	42 113 49
	leaq	-88(%rbp), %rax
	movq	%rax, -16(%rbp)
Ltmp1105:
	.loc	38 140 9
	movq	-80(%rbp), %rax
	movq	%rax, -8(%rbp)
Ltmp1106:
	.loc	39 97 9
	movq	%rax, -72(%rbp)
	movq	-72(%rbp), %rdx
Ltmp1107:
	.loc	42 113 14
	callq	___rust_dealloc
Ltmp1108:
LBB121_3:
	.loc	42 252 6
	addq	$112, %rsp
	popq	%rbp
	retq
Ltmp1109:
Lfunc_end121:
	.cfi_endproc

	.p2align	4, 0x90
__ZN63_$LT$alloc..alloc..Global$u20$as$u20$core..alloc..Allocator$GT$15allocate_zeroed17hecad968cb85062f4E:
Lfunc_begin122:
	.loc	42 241 0
	.cfi_startproc
	pushq	%rbp
	.cfi_def_cfa_offset 16
	.cfi_offset %rbp, -16
	movq	%rsp, %rbp
	.cfi_def_cfa_register %rbp
	subq	$32, %rsp
	movq	%rdi, -24(%rbp)
	movq	%rsi, -16(%rbp)
	movq	%rdx, -8(%rbp)
	movl	$1, %ecx
Ltmp1110:
	.loc	42 242 9 prologue_end
	callq	__ZN5alloc5alloc6Global10alloc_impl17ha2b0afca07d2c95dE
	.loc	42 243 6
	addq	$32, %rsp
	popq	%rbp
	retq
Ltmp1111:
Lfunc_end122:
	.cfi_endproc

	.p2align	4, 0x90
__ZN63_$LT$alloc..alloc..Global$u20$as$u20$core..alloc..Allocator$GT$8allocate17h0a8dbdde1cafcaaeE:
Lfunc_begin123:
	.loc	42 236 0
	.cfi_startproc
	pushq	%rbp
	.cfi_def_cfa_offset 16
	.cfi_offset %rbp, -16
	movq	%rsp, %rbp
	.cfi_def_cfa_register %rbp
	subq	$32, %rsp
	movq	%rdi, -24(%rbp)
	movq	%rsi, -16(%rbp)
	movq	%rdx, -8(%rbp)
	xorl	%ecx, %ecx
Ltmp1112:
	.loc	42 237 9 prologue_end
	callq	__ZN5alloc5alloc6Global10alloc_impl17ha2b0afca07d2c95dE
	.loc	42 238 6
	addq	$32, %rsp
	popq	%rbp
	retq
Ltmp1113:
Lfunc_end123:
	.cfi_endproc

	.p2align	4, 0x90
__ZN65_$LT$alloc..string..String$u20$as$u20$core..ops..deref..Deref$GT$5deref17h458fab6ccc1e6a78E:
Lfunc_begin124:
	.file	45 "/rustc/2c8cc343237b8f7d5a3c3703e3a87f2eb2c54a74/library/alloc/src" "string.rs"
	.loc	45 2459 0
	.cfi_startproc
	pushq	%rbp
	.cfi_def_cfa_offset 16
	.cfi_offset %rbp, -16
	movq	%rsp, %rbp
	.cfi_def_cfa_register %rbp
	subq	$48, %rsp
	movq	%rdi, -40(%rbp)
Ltmp1114:
	.loc	45 2460 43 prologue_end
	callq	__ZN72_$LT$alloc..vec..Vec$LT$T$C$A$GT$$u20$as$u20$core..ops..deref..Deref$GT$5deref17h8d83a61ac2c71274E
	movq	%rax, -32(%rbp)
	movq	%rdx, -24(%rbp)
Ltmp1115:
	.file	46 "/rustc/2c8cc343237b8f7d5a3c3703e3a87f2eb2c54a74/library/core/src/str" "converts.rs"
	.loc	46 173 14
	movq	%rax, -16(%rbp)
	movq	%rdx, -8(%rbp)
	movq	-16(%rbp), %rax
	movq	-8(%rbp), %rdx
Ltmp1116:
	.loc	45 2461 6
	addq	$48, %rsp
	popq	%rbp
	retq
Ltmp1117:
Lfunc_end124:
	.cfi_endproc

	.globl	__ZN70_$LT$alloc..vec..Vec$LT$T$C$A$GT$$u20$as$u20$core..ops..drop..Drop$GT$4drop17h6f3adf699df11171E
	.p2align	4, 0x90
__ZN70_$LT$alloc..vec..Vec$LT$T$C$A$GT$$u20$as$u20$core..ops..drop..Drop$GT$4drop17h6f3adf699df11171E:
Lfunc_begin125:
	.loc	7 3054 0
	.cfi_startproc
	pushq	%rbp
	.cfi_def_cfa_offset 16
	.cfi_offset %rbp, -16
	movq	%rsp, %rbp
	.cfi_def_cfa_register %rbp
	subq	$160, %rsp
	movq	%rdi, -120(%rbp)
Ltmp1118:
	.loc	7 3059 62 prologue_end
	movq	%rdi, -112(%rbp)
Ltmp1119:
	.loc	7 1280 19
	movq	%rdi, -104(%rbp)
Ltmp1120:
	.loc	10 224 9
	movq	8(%rdi), %rcx
	movq	%rcx, -96(%rbp)
Ltmp1121:
	.loc	11 104 9
	movq	%rcx, -88(%rbp)
Ltmp1122:
	.loc	12 326 9
	movq	%rcx, -80(%rbp)
Ltmp1123:
	.loc	7 1282 21
	movq	%rcx, -72(%rbp)
Ltmp1124:
	.loc	13 52 36
	movq	%rcx, -160(%rbp)
	.loc	13 52 18 is_stmt 0
	movq	-160(%rbp), %rax
	movq	%rax, -64(%rbp)
Ltmp1125:
	.loc	13 38 13 is_stmt 1
	movq	%rax, -56(%rbp)
Ltmp1126:
	.loc	13 215 33
	movq	%rax, -48(%rbp)
	.loc	13 215 18 is_stmt 0
	movq	%rax, -40(%rbp)
Ltmp1127:
	.loc	7 3059 81 is_stmt 1
	movq	16(%rdi), %rax
	movq	%rax, -32(%rbp)
Ltmp1128:
	.loc	14 766 24
	movq	%rcx, -24(%rbp)
Ltmp1129:
	.loc	13 60 9
	movq	%rcx, -16(%rbp)
Ltmp1130:
	.loc	14 766 37
	movq	%rax, -8(%rbp)
Ltmp1131:
	.loc	33 135 36
	movq	%rcx, -136(%rbp)
	movq	%rax, -128(%rbp)
	.loc	33 135 14 is_stmt 0
	movq	-136(%rbp), %rcx
	movq	-128(%rbp), %rax
	movq	%rcx, -152(%rbp)
	movq	%rax, -144(%rbp)
	movq	-152(%rbp), %rdi
	movq	-144(%rbp), %rsi
Ltmp1132:
	.loc	7 3059 13 is_stmt 1
	callq	__ZN4core3ptr68drop_in_place$LT$$u5b$core_graphics..display..CGDisplayMode$u5d$$GT$17h7802a98b49603fe9E
	.loc	7 3062 6
	addq	$160, %rsp
	popq	%rbp
	retq
Ltmp1133:
Lfunc_end125:
	.cfi_endproc

	.globl	__ZN70_$LT$alloc..vec..Vec$LT$T$C$A$GT$$u20$as$u20$core..ops..drop..Drop$GT$4drop17h7d54d1177fc09c07E
	.p2align	4, 0x90
__ZN70_$LT$alloc..vec..Vec$LT$T$C$A$GT$$u20$as$u20$core..ops..drop..Drop$GT$4drop17h7d54d1177fc09c07E:
Lfunc_begin126:
	.loc	7 3054 0
	.cfi_startproc
	pushq	%rbp
	.cfi_def_cfa_offset 16
	.cfi_offset %rbp, -16
	movq	%rsp, %rbp
	.cfi_def_cfa_register %rbp
	subq	$160, %rsp
	movq	%rdi, -120(%rbp)
Ltmp1134:
	.loc	7 3059 62 prologue_end
	movq	%rdi, -112(%rbp)
Ltmp1135:
	.loc	7 1280 19
	movq	%rdi, -104(%rbp)
Ltmp1136:
	.loc	10 224 9
	movq	8(%rdi), %rcx
	movq	%rcx, -96(%rbp)
Ltmp1137:
	.loc	11 104 9
	movq	%rcx, -88(%rbp)
Ltmp1138:
	.loc	12 326 9
	movq	%rcx, -80(%rbp)
Ltmp1139:
	.loc	7 1282 21
	movq	%rcx, -72(%rbp)
Ltmp1140:
	.loc	13 52 36
	movq	%rcx, -160(%rbp)
	.loc	13 52 18 is_stmt 0
	movq	-160(%rbp), %rax
	movq	%rax, -64(%rbp)
Ltmp1141:
	.loc	13 38 13 is_stmt 1
	movq	%rax, -56(%rbp)
Ltmp1142:
	.loc	13 215 33
	movq	%rax, -48(%rbp)
	.loc	13 215 18 is_stmt 0
	movq	%rax, -40(%rbp)
Ltmp1143:
	.loc	7 3059 81 is_stmt 1
	movq	16(%rdi), %rax
	movq	%rax, -32(%rbp)
Ltmp1144:
	.loc	14 766 24
	movq	%rcx, -24(%rbp)
Ltmp1145:
	.loc	13 60 9
	movq	%rcx, -16(%rbp)
Ltmp1146:
	.loc	14 766 37
	movq	%rax, -8(%rbp)
Ltmp1147:
	.loc	33 135 36
	movq	%rcx, -136(%rbp)
	movq	%rax, -128(%rbp)
	.loc	33 135 14 is_stmt 0
	movq	-136(%rbp), %rcx
	movq	-128(%rbp), %rax
	movq	%rcx, -152(%rbp)
	movq	%rax, -144(%rbp)
Ltmp1148:
	.loc	7 3062 6 is_stmt 1
	addq	$160, %rsp
	popq	%rbp
	retq
Ltmp1149:
Lfunc_end126:
	.cfi_endproc

	.globl	__ZN72_$LT$alloc..vec..Vec$LT$T$C$A$GT$$u20$as$u20$core..ops..deref..Deref$GT$5deref17h9020114e2053a711E
	.p2align	4, 0x90
__ZN72_$LT$alloc..vec..Vec$LT$T$C$A$GT$$u20$as$u20$core..ops..deref..Deref$GT$5deref17h9020114e2053a711E:
Lfunc_begin127:
	.loc	7 2636 0
	.cfi_startproc
	pushq	%rbp
	.cfi_def_cfa_offset 16
	.cfi_offset %rbp, -16
	movq	%rsp, %rbp
	.cfi_def_cfa_register %rbp
	subq	$184, %rsp
	movq	%rdi, -144(%rbp)
Ltmp1150:
	.loc	7 2637 40 prologue_end
	movq	%rdi, -136(%rbp)
Ltmp1151:
	.loc	7 1243 19
	movq	%rdi, -128(%rbp)
Ltmp1152:
	.loc	10 224 9
	movq	8(%rdi), %rcx
	movq	%rcx, -120(%rbp)
Ltmp1153:
	.loc	11 104 9
	movq	%rcx, -112(%rbp)
Ltmp1154:
	.loc	12 326 9
	movq	%rcx, -104(%rbp)
Ltmp1155:
	.loc	7 1245 21
	movq	%rcx, -96(%rbp)
Ltmp1156:
	.loc	13 52 36
	movq	%rcx, -184(%rbp)
	.loc	13 52 18 is_stmt 0
	movq	-184(%rbp), %rax
	movq	%rax, -88(%rbp)
Ltmp1157:
	.loc	13 38 13 is_stmt 1
	movq	%rax, -80(%rbp)
Ltmp1158:
	.loc	13 215 33
	movq	%rax, -72(%rbp)
	.loc	13 215 18 is_stmt 0
	movq	%rax, -64(%rbp)
Ltmp1159:
	.loc	7 1247 9 is_stmt 1
	movq	%rcx, -56(%rbp)
Ltmp1160:
	.loc	7 2637 55
	movq	16(%rdi), %rax
	movq	%rax, -48(%rbp)
Ltmp1161:
	.loc	32 100 37
	movq	%rcx, -40(%rbp)
	.loc	32 100 43 is_stmt 0
	movq	%rax, -32(%rbp)
Ltmp1162:
	.loc	14 734 20 is_stmt 1
	movq	%rcx, -24(%rbp)
Ltmp1163:
	.loc	25 61 9
	movq	%rcx, -16(%rbp)
Ltmp1164:
	.loc	14 734 33
	movq	%rax, -8(%rbp)
Ltmp1165:
	.loc	33 118 36
	movq	%rcx, -160(%rbp)
	movq	%rax, -152(%rbp)
	.loc	33 118 14 is_stmt 0
	movq	-160(%rbp), %rcx
	movq	-152(%rbp), %rax
	movq	%rcx, -176(%rbp)
	movq	%rax, -168(%rbp)
	movq	-176(%rbp), %rax
	movq	-168(%rbp), %rdx
Ltmp1166:
	.loc	7 2638 6 is_stmt 1
	addq	$184, %rsp
	popq	%rbp
	retq
Ltmp1167:
Lfunc_end127:
	.cfi_endproc

	.globl	__ZN73_$LT$$BP$const$u20$T$u20$as$u20$core_foundation_sys..base..TCFTypeRef$GT$11as_void_ptr17h6622bcc2720917d3E
	.p2align	4, 0x90
__ZN73_$LT$$BP$const$u20$T$u20$as$u20$core_foundation_sys..base..TCFTypeRef$GT$11as_void_ptr17h6622bcc2720917d3E:
Lfunc_begin128:
	.file	47 "/Users/natalie/.cargo/registry/src/github.com-1ecc6299db9ec823/core-foundation-sys-0.8.3/src" "base.rs"
	.loc	47 91 0
	.cfi_startproc
	pushq	%rbp
	.cfi_def_cfa_offset 16
	.cfi_offset %rbp, -16
	movq	%rsp, %rbp
	.cfi_def_cfa_register %rbp
	pushq	%rax
	movq	%rdi, -8(%rbp)
Ltmp1168:
	.loc	47 92 9 prologue_end
	movq	(%rdi), %rax
	.loc	47 93 6
	addq	$8, %rsp
	popq	%rbp
	retq
Ltmp1169:
Lfunc_end128:
	.cfi_endproc

	.globl	__ZN77_$LT$alloc..raw_vec..RawVec$LT$T$C$A$GT$$u20$as$u20$core..ops..drop..Drop$GT$4drop17h270e9abb4b55f2f7E
	.p2align	4, 0x90
__ZN77_$LT$alloc..raw_vec..RawVec$LT$T$C$A$GT$$u20$as$u20$core..ops..drop..Drop$GT$4drop17h270e9abb4b55f2f7E:
Lfunc_begin129:
	.loc	10 477 0
	.cfi_startproc
	pushq	%rbp
	.cfi_def_cfa_offset 16
	.cfi_offset %rbp, -16
	movq	%rsp, %rbp
	.cfi_def_cfa_register %rbp
	subq	$64, %rsp
	movq	%rdi, %rsi
	movq	%rsi, -64(%rbp)
	movq	%rsi, -32(%rbp)
Ltmp1170:
	.loc	10 478 38 prologue_end
	leaq	-56(%rbp), %rdi
	callq	__ZN5alloc7raw_vec19RawVec$LT$T$C$A$GT$14current_memory17hcdacee9cbf6175b0E
	.loc	10 478 16 is_stmt 0
	movl	$1, %eax
	xorl	%ecx, %ecx
	cmpq	$0, -40(%rbp)
	cmoveq	%rcx, %rax
	cmpq	$1, %rax
	jne	LBB129_2
	.loc	10 0 16
	movq	-64(%rbp), %rdi
	.loc	10 478 22
	movq	-56(%rbp), %rsi
	movq	%rsi, -24(%rbp)
	.loc	10 478 27
	movq	-48(%rbp), %rdx
	movq	-40(%rbp), %rcx
	movq	%rdx, -16(%rbp)
	movq	%rcx, -8(%rbp)
	.loc	10 479 22 is_stmt 1
	callq	__ZN63_$LT$alloc..alloc..Global$u20$as$u20$core..alloc..Allocator$GT$10deallocate17h389505a430384a30E
Ltmp1171:
LBB129_2:
	.loc	10 481 6
	addq	$64, %rsp
	popq	%rbp
	retq
Ltmp1172:
Lfunc_end129:
	.cfi_endproc

	.globl	__ZN77_$LT$alloc..raw_vec..RawVec$LT$T$C$A$GT$$u20$as$u20$core..ops..drop..Drop$GT$4drop17h77e8ada5c71d9723E
	.p2align	4, 0x90
__ZN77_$LT$alloc..raw_vec..RawVec$LT$T$C$A$GT$$u20$as$u20$core..ops..drop..Drop$GT$4drop17h77e8ada5c71d9723E:
Lfunc_begin130:
	.loc	10 477 0
	.cfi_startproc
	pushq	%rbp
	.cfi_def_cfa_offset 16
	.cfi_offset %rbp, -16
	movq	%rsp, %rbp
	.cfi_def_cfa_register %rbp
	subq	$64, %rsp
	movq	%rdi, %rsi
	movq	%rsi, -64(%rbp)
	movq	%rsi, -32(%rbp)
Ltmp1173:
	.loc	10 478 38 prologue_end
	leaq	-56(%rbp), %rdi
	callq	__ZN5alloc7raw_vec19RawVec$LT$T$C$A$GT$14current_memory17h4f3432f8942b9465E
	.loc	10 478 16 is_stmt 0
	movl	$1, %eax
	xorl	%ecx, %ecx
	cmpq	$0, -40(%rbp)
	cmoveq	%rcx, %rax
	cmpq	$1, %rax
	jne	LBB130_2
	.loc	10 0 16
	movq	-64(%rbp), %rdi
	.loc	10 478 22
	movq	-56(%rbp), %rsi
	movq	%rsi, -24(%rbp)
	.loc	10 478 27
	movq	-48(%rbp), %rdx
	movq	-40(%rbp), %rcx
	movq	%rdx, -16(%rbp)
	movq	%rcx, -8(%rbp)
	.loc	10 479 22 is_stmt 1
	callq	__ZN63_$LT$alloc..alloc..Global$u20$as$u20$core..alloc..Allocator$GT$10deallocate17h389505a430384a30E
Ltmp1174:
LBB130_2:
	.loc	10 481 6
	addq	$64, %rsp
	popq	%rbp
	retq
Ltmp1175:
Lfunc_end130:
	.cfi_endproc

	.globl	__ZN79_$LT$core..result..Result$LT$T$C$E$GT$$u20$as$u20$core..ops..try_trait..Try$GT$6branch17h0250aec32b22ac4eE
	.p2align	4, 0x90
__ZN79_$LT$core..result..Result$LT$T$C$E$GT$$u20$as$u20$core..ops..try_trait..Try$GT$6branch17h0250aec32b22ac4eE:
Lfunc_begin131:
	.loc	15 2090 0
	.cfi_startproc
	pushq	%rbp
	.cfi_def_cfa_offset 16
	.cfi_offset %rbp, -16
	movq	%rsp, %rbp
	.cfi_def_cfa_register %rbp
	subq	$32, %rsp
	movb	%dil, %al
	andb	$1, %al
	movb	%al, -26(%rbp)
Ltmp1176:
	.loc	15 2091 15 prologue_end
	movb	-26(%rbp), %al
	andb	$1, %al
	movzbl	%al, %eax
	.loc	15 2091 9 is_stmt 0
	cmpq	$0, %rax
	jne	LBB131_2
Ltmp1177:
	.loc	15 2092 22 is_stmt 1
	movb	$0, -25(%rbp)
Ltmp1178:
	.loc	15 2092 45 is_stmt 0
	jmp	LBB131_3
LBB131_2:
Ltmp1179:
	.loc	15 2093 23 is_stmt 1
	movb	$1, -25(%rbp)
Ltmp1180:
LBB131_3:
	.loc	15 2095 6
	movb	-25(%rbp), %al
	andb	$1, %al
	movzbl	%al, %eax
	addq	$32, %rsp
	popq	%rbp
	retq
Ltmp1181:
Lfunc_end131:
	.cfi_endproc

	.p2align	4, 0x90
__ZN80_$LT$core_foundation..data..CFData$u20$as$u20$core_foundation..base..TCFType$GT$22wrap_under_create_rule17h07496044949b0dbdE:
Lfunc_begin132:
	.loc	4 109 0
	.cfi_startproc
	pushq	%rbp
	.cfi_def_cfa_offset 16
	.cfi_offset %rbp, -16
	movq	%rsp, %rbp
	.cfi_def_cfa_register %rbp
	subq	$32, %rsp
	movq	%rdi, -24(%rbp)
	movq	%rdi, -8(%rbp)
Ltmp1182:
	.loc	4 110 26 prologue_end
	callq	__ZN4core3ptr9const_ptr33_$LT$impl$u20$$BP$const$u20$T$GT$7is_null17h0e78d30ecd6ec005E
	.loc	4 110 25 is_stmt 0
	xorb	$-1, %al
	.loc	4 110 17
	xorb	$-1, %al
	testb	$1, %al
	jne	LBB132_2
	.loc	4 0 17
	movq	-24(%rbp), %rax
	.loc	4 113 17 is_stmt 1
	movq	%rax, -16(%rbp)
	.loc	4 114 14
	movq	-16(%rbp), %rax
	addq	$32, %rsp
	popq	%rbp
	retq
LBB132_2:
	.loc	4 110 17
	leaq	l___unnamed_3(%rip), %rdi
	leaq	l___unnamed_19(%rip), %rdx
	movl	$34, %esi
	callq	__ZN3std9panicking11begin_panic17hca1489fda4927541E
Ltmp1183:
Lfunc_end132:
	.cfi_endproc

	.globl	__ZN81_$LT$core..str..iter..Chars$u20$as$u20$core..iter..traits..iterator..Iterator$GT$4next28_$u7b$$u7b$closure$u7d$$u7d$17h8054d34c3c2668a5E
	.p2align	4, 0x90
__ZN81_$LT$core..str..iter..Chars$u20$as$u20$core..iter..traits..iterator..Iterator$GT$4next28_$u7b$$u7b$closure$u7d$$u7d$17h8054d34c3c2668a5E:
Lfunc_begin133:
	.file	48 "/rustc/2c8cc343237b8f7d5a3c3703e3a87f2eb2c54a74/library/core/src/str" "iter.rs"
	.loc	48 44 0
	.cfi_startproc
	pushq	%rbp
	.cfi_def_cfa_offset 16
	.cfi_offset %rbp, -16
	movq	%rsp, %rbp
	.cfi_def_cfa_register %rbp
	subq	$24, %rsp
	movl	%edi, -16(%rbp)
Ltmp1184:
	.loc	48 44 84 prologue_end
	movl	%edi, -12(%rbp)
Ltmp1185:
	.loc	34 128 48
	movl	%edi, -8(%rbp)
Ltmp1186:
	.loc	35 25 78
	movl	%edi, -4(%rbp)
	movl	-4(%rbp), %eax
Ltmp1187:
	.loc	48 44 87
	addq	$24, %rsp
	popq	%rbp
	retq
Ltmp1188:
Lfunc_end133:
	.cfi_endproc

	.p2align	4, 0x90
__ZN81_$LT$core..str..iter..Chars$u20$as$u20$core..iter..traits..iterator..Iterator$GT$9size_hint17h02f4e8c8d0448fd1E:
Lfunc_begin134:
	.loc	48 53 0
	.cfi_startproc
	pushq	%rbp
	.cfi_def_cfa_offset 16
	.cfi_offset %rbp, -16
	movq	%rsp, %rbp
	.cfi_def_cfa_register %rbp
	subq	$80, %rsp
	movq	%rsi, %rax
	movq	%rdi, -72(%rbp)
	movq	%rdi, -64(%rbp)
	movq	%rax, -40(%rbp)
Ltmp1189:
	.loc	48 54 19 prologue_end
	movq	%rax, -32(%rbp)
Ltmp1190:
	.file	49 "/rustc/2c8cc343237b8f7d5a3c3703e3a87f2eb2c54a74/library/core/src/slice/iter" "macros.rs"
	.loc	49 16 21
	movq	8(%rax), %rsi
	movq	%rsi, -24(%rbp)
Ltmp1191:
	.loc	49 25 22
	movq	(%rax), %rdi
	.loc	49 25 40 is_stmt 0
	movq	%rsi, -16(%rbp)
	.loc	49 25 22
	callq	__ZN4core3ptr9const_ptr33_$LT$impl$u20$$BP$const$u20$T$GT$7sub_ptr17h4570e3dea0525e5bE
	movq	-72(%rbp), %rdi
	movq	%rax, %rdx
	movq	-64(%rbp), %rax
	movq	%rdx, -8(%rbp)
Ltmp1192:
	.loc	48 58 10 is_stmt 1
	movq	%rdx, %rcx
	addq	$3, %rcx
	shrq	$2, %rcx
	.loc	48 58 25 is_stmt 0
	movq	%rdx, -48(%rbp)
	movq	$1, -56(%rbp)
	.loc	48 58 9
	movq	%rcx, (%rdi)
	movq	-56(%rbp), %rdx
	movq	-48(%rbp), %rcx
	movq	%rdx, 8(%rdi)
	movq	%rcx, 16(%rdi)
Ltmp1193:
	.loc	48 59 6 is_stmt 1
	addq	$80, %rsp
	popq	%rbp
	retq
Ltmp1194:
Lfunc_end134:
	.cfi_endproc

	.globl	__ZN82_$LT$core_foundation..array..CFArray$LT$T$GT$$u20$as$u20$core..ops..drop..Drop$GT$4drop17hb045541f94d72afeE
	.p2align	4, 0x90
__ZN82_$LT$core_foundation..array..CFArray$LT$T$GT$$u20$as$u20$core..ops..drop..Drop$GT$4drop17hb045541f94d72afeE:
Lfunc_begin135:
	.loc	5 28 0
	.cfi_startproc
	pushq	%rbp
	.cfi_def_cfa_offset 16
	.cfi_offset %rbp, -16
	movq	%rsp, %rbp
	.cfi_def_cfa_register %rbp
	subq	$16, %rsp
	movq	%rdi, -8(%rbp)
Ltmp1195:
	.loc	5 29 28 prologue_end
	callq	__ZN91_$LT$core_foundation..array..CFArray$LT$T$GT$$u20$as$u20$core_foundation..base..TCFType$GT$12as_CFTypeRef17h21e92437dd69f478E
	movq	%rax, %rdi
	.loc	5 29 18 is_stmt 0
	callq	_CFRelease
	.loc	5 30 6 is_stmt 1
	addq	$16, %rsp
	popq	%rbp
	retq
Ltmp1196:
Lfunc_end135:
	.cfi_endproc

	.globl	__ZN82_$LT$core_foundation..array..CFArray$LT$T$GT$$u20$as$u20$core..ops..drop..Drop$GT$4drop17hd6ec53e66b0e9aa6E
	.p2align	4, 0x90
__ZN82_$LT$core_foundation..array..CFArray$LT$T$GT$$u20$as$u20$core..ops..drop..Drop$GT$4drop17hd6ec53e66b0e9aa6E:
Lfunc_begin136:
	.loc	5 28 0
	.cfi_startproc
	pushq	%rbp
	.cfi_def_cfa_offset 16
	.cfi_offset %rbp, -16
	movq	%rsp, %rbp
	.cfi_def_cfa_register %rbp
	subq	$16, %rsp
	movq	%rdi, -8(%rbp)
Ltmp1197:
	.loc	5 29 28 prologue_end
	callq	__ZN91_$LT$core_foundation..array..CFArray$LT$T$GT$$u20$as$u20$core_foundation..base..TCFType$GT$12as_CFTypeRef17h88eb52acc2dce72dE
	movq	%rax, %rdi
	.loc	5 29 18 is_stmt 0
	callq	_CFRelease
	.loc	5 30 6 is_stmt 1
	addq	$16, %rsp
	popq	%rbp
	retq
Ltmp1198:
Lfunc_end136:
	.cfi_endproc

	.globl	__ZN83_$LT$core_foundation..base..ItemRef$LT$T$GT$$u20$as$u20$core..ops..deref..Deref$GT$5deref17h22d18f462f469935E
	.p2align	4, 0x90
__ZN83_$LT$core_foundation..base..ItemRef$LT$T$GT$$u20$as$u20$core..ops..deref..Deref$GT$5deref17h22d18f462f469935E:
Lfunc_begin137:
	.file	50 "/Users/natalie/.cargo/registry/src/github.com-1ecc6299db9ec823/core-foundation-0.9.3/src" "base.rs"
	.loc	50 275 0
	.cfi_startproc
	pushq	%rbp
	.cfi_def_cfa_offset 16
	.cfi_offset %rbp, -16
	movq	%rsp, %rbp
	.cfi_def_cfa_register %rbp
	subq	$16, %rsp
	movq	%rdi, %rax
	movq	%rax, -16(%rbp)
	movq	%rax, -8(%rbp)
Ltmp1199:
	.loc	50 277 6 prologue_end
	addq	$16, %rsp
	popq	%rbp
	retq
Ltmp1200:
Lfunc_end137:
	.cfi_endproc

	.p2align	4, 0x90
__ZN84_$LT$core_foundation..string..CFString$u20$as$u20$core_foundation..base..TCFType$GT$19as_concrete_TypeRef17h506312731dd555d0E:
Lfunc_begin138:
	.loc	4 92 0
	.cfi_startproc
	pushq	%rbp
	.cfi_def_cfa_offset 16
	.cfi_offset %rbp, -16
	movq	%rsp, %rbp
	.cfi_def_cfa_register %rbp
	pushq	%rax
	movq	%rdi, -8(%rbp)
Ltmp1201:
	.loc	4 93 17 prologue_end
	movq	(%rdi), %rax
	.loc	4 94 14
	addq	$8, %rsp
	popq	%rbp
	retq
Ltmp1202:
Lfunc_end138:
	.cfi_endproc

	.p2align	4, 0x90
__ZN84_$LT$core_foundation..string..CFString$u20$as$u20$core_foundation..base..TCFType$GT$22wrap_under_create_rule17hc63f0ed968819e72E:
Lfunc_begin139:
	.loc	4 109 0
	.cfi_startproc
	pushq	%rbp
	.cfi_def_cfa_offset 16
	.cfi_offset %rbp, -16
	movq	%rsp, %rbp
	.cfi_def_cfa_register %rbp
	subq	$32, %rsp
	movq	%rdi, -24(%rbp)
	movq	%rdi, -8(%rbp)
Ltmp1203:
	.loc	4 110 26 prologue_end
	callq	__ZN4core3ptr9const_ptr33_$LT$impl$u20$$BP$const$u20$T$GT$7is_null17h98defd3106e92803E
	.loc	4 110 25 is_stmt 0
	xorb	$-1, %al
	.loc	4 110 17
	xorb	$-1, %al
	testb	$1, %al
	jne	LBB139_2
	.loc	4 0 17
	movq	-24(%rbp), %rax
	.loc	4 113 17 is_stmt 1
	movq	%rax, -16(%rbp)
	.loc	4 114 14
	movq	-16(%rbp), %rax
	addq	$32, %rsp
	popq	%rbp
	retq
LBB139_2:
	.loc	4 110 17
	leaq	l___unnamed_3(%rip), %rdi
	leaq	l___unnamed_20(%rip), %rdx
	movl	$34, %esi
	callq	__ZN3std9panicking11begin_panic17hca1489fda4927541E
Ltmp1204:
Lfunc_end139:
	.cfi_endproc

	.globl	__ZN86_$LT$alloc..boxed..Box$LT$F$C$A$GT$$u20$as$u20$core..ops..function..Fn$LT$Args$GT$$GT$4call17h19805719c29cc01eE
	.p2align	4, 0x90
__ZN86_$LT$alloc..boxed..Box$LT$F$C$A$GT$$u20$as$u20$core..ops..function..Fn$LT$Args$GT$$GT$4call17h19805719c29cc01eE:
Lfunc_begin140:
	.file	51 "/rustc/2c8cc343237b8f7d5a3c3703e3a87f2eb2c54a74/library/alloc/src" "boxed.rs"
	.loc	51 2001 0
	.cfi_startproc
	pushq	%rbp
	.cfi_def_cfa_offset 16
	.cfi_offset %rbp, -16
	movq	%rsp, %rbp
	.cfi_def_cfa_register %rbp
	subq	$64, %rsp
	movq	%rdi, %rax
	movq	%rsi, -56(%rbp)
	movl	%edx, -48(%rbp)
	movq	%rcx, -40(%rbp)
	movq	%rax, -8(%rbp)
Ltmp1205:
	.loc	51 2002 31 prologue_end
	movq	(%rax), %rdi
	movq	8(%rax), %rax
	.loc	51 2002 37 is_stmt 0
	movq	-40(%rbp), %rcx
	movq	%rcx, -16(%rbp)
	movq	-56(%rbp), %rcx
	movq	-48(%rbp), %rdx
	movq	%rdx, -24(%rbp)
	movq	%rcx, -32(%rbp)
	.loc	51 2002 9
	movq	40(%rax), %rax
	movq	-32(%rbp), %rsi
	movl	-24(%rbp), %edx
	movq	-16(%rbp), %rcx
	callq	*%rax
	.loc	51 2003 6 is_stmt 1
	addq	$64, %rsp
	popq	%rbp
	retq
Ltmp1206:
Lfunc_end140:
	.cfi_endproc

	.p2align	4, 0x90
__ZN87_$LT$core..str..iter..EncodeUtf16$u20$as$u20$core..iter..traits..iterator..Iterator$GT$4next17hd3074c085780e426E:
Lfunc_begin141:
	.loc	48 1423 0
	.cfi_startproc
	pushq	%rbp
	.cfi_def_cfa_offset 16
	.cfi_offset %rbp, -16
	movq	%rsp, %rbp
	.cfi_def_cfa_register %rbp
	subq	$64, %rsp
	movq	%rdi, -56(%rbp)
	movq	%rdi, -24(%rbp)
Ltmp1207:
	.loc	48 1424 12 prologue_end
	cmpw	$0, 16(%rdi)
	jne	LBB141_2
	.loc	48 0 12 is_stmt 0
	movq	-56(%rbp), %rdi
	.loc	48 1430 23 is_stmt 1
	movl	$0, -44(%rbp)
Ltmp1208:
	.loc	48 1431 9
	movq	%rdi, -8(%rbp)
Ltmp1209:
	.loc	48 44 18
	callq	__ZN4core3str11validations15next_code_point17h1cf894e988fb5763E
	movl	%eax, %edi
	movl	%edx, %esi
	callq	__ZN4core6option15Option$LT$T$GT$3map17h4d0410422c7c77dbE
	movl	%eax, %edi
	movq	-56(%rbp), %rax
Ltmp1210:
	.loc	48 1431 31
	addq	$16, %rax
	leaq	-44(%rbp), %rcx
	movq	%rcx, -40(%rbp)
	movq	%rax, -32(%rbp)
	.loc	48 1431 9 is_stmt 0
	movq	-40(%rbp), %rsi
	movq	-32(%rbp), %rdx
	callq	__ZN4core6option15Option$LT$T$GT$3map17h77d962c0d0d58a64E
	movw	%dx, -46(%rbp)
	movw	%ax, -48(%rbp)
Ltmp1211:
	.loc	48 1438 6 is_stmt 1
	jmp	LBB141_3
LBB141_2:
	.loc	48 0 6 is_stmt 0
	movq	-56(%rbp), %rcx
	.loc	48 1425 23 is_stmt 1
	movw	16(%rcx), %ax
	movw	%ax, -10(%rbp)
Ltmp1212:
	.loc	48 1426 13
	movw	$0, 16(%rcx)
	.loc	48 1427 20
	movw	%ax, -46(%rbp)
	movw	$1, -48(%rbp)
Ltmp1213:
LBB141_3:
	.loc	48 1438 6
	movw	-48(%rbp), %ax
	movw	-46(%rbp), %dx
	addq	$64, %rsp
	popq	%rbp
	retq
Ltmp1214:
Lfunc_end141:
	.cfi_endproc

	.globl	__ZN87_$LT$core..str..iter..EncodeUtf16$u20$as$u20$core..iter..traits..iterator..Iterator$GT$4next28_$u7b$$u7b$closure$u7d$$u7d$17he69a322db5c48c1cE
	.p2align	4, 0x90
__ZN87_$LT$core..str..iter..EncodeUtf16$u20$as$u20$core..iter..traits..iterator..Iterator$GT$4next28_$u7b$$u7b$closure$u7d$$u7d$17he69a322db5c48c1cE:
Lfunc_begin142:
	.loc	48 1431 0
	.cfi_startproc
	pushq	%rbp
	.cfi_def_cfa_offset 16
	.cfi_offset %rbp, -16
	movq	%rsp, %rbp
	.cfi_def_cfa_register %rbp
	subq	$64, %rsp
	movl	%edx, -52(%rbp)
	movq	%rdi, %rax
	movl	-52(%rbp), %edi
	movq	%rax, -48(%rbp)
	movq	%rsi, -40(%rbp)
	movl	%edi, -32(%rbp)
Ltmp1215:
	.loc	48 1432 21 prologue_end
	movl	%edi, -28(%rbp)
	.loc	48 1432 37 is_stmt 0
	movq	-48(%rbp), %rsi
	movq	%rsi, -24(%rbp)
	movq	$2, -16(%rbp)
Ltmp1216:
	.loc	30 697 9 is_stmt 1
	movl	$2, %edx
	callq	__ZN4core4char7methods16encode_utf16_raw17h676699a3c45cbb8dE
Ltmp1217:
	.loc	48 1432 21
	movq	%rdx, -8(%rbp)
Ltmp1218:
	.loc	48 1433 16
	cmpq	$2, %rdx
	jne	LBB142_2
	.loc	48 1434 30
	movq	-48(%rbp), %rax
	movw	2(%rax), %cx
	.loc	48 1434 17 is_stmt 0
	movq	-40(%rbp), %rax
	movw	%cx, (%rax)
	.loc	48 1433 13 is_stmt 1
	jmp	LBB142_3
LBB142_2:
	jmp	LBB142_3
LBB142_3:
	.loc	48 1436 13
	movq	-48(%rbp), %rax
	movw	(%rax), %ax
Ltmp1219:
	.loc	48 1437 10
	addq	$64, %rsp
	popq	%rbp
	retq
Ltmp1220:
Lfunc_end142:
	.cfi_endproc

	.p2align	4, 0x90
__ZN87_$LT$core..str..iter..EncodeUtf16$u20$as$u20$core..iter..traits..iterator..Iterator$GT$9size_hint17hea5f05521c6e3af0E:
Lfunc_begin143:
	.loc	48 1441 0
	.cfi_startproc
	pushq	%rbp
	.cfi_def_cfa_offset 16
	.cfi_offset %rbp, -16
	movq	%rsp, %rbp
	.cfi_def_cfa_register %rbp
	subq	$80, %rsp
	movq	%rdi, -72(%rbp)
	movq	%rdi, -64(%rbp)
	movq	%rsi, -32(%rbp)
Ltmp1221:
	.loc	48 1442 27 prologue_end
	leaq	-56(%rbp), %rdi
	callq	__ZN81_$LT$core..str..iter..Chars$u20$as$u20$core..iter..traits..iterator..Iterator$GT$9size_hint17h02f4e8c8d0448fd1E
	.loc	48 1442 14 is_stmt 0
	movq	-56(%rbp), %rax
	movq	%rax, -80(%rbp)
	movq	%rax, -24(%rbp)
	.loc	48 1442 19
	movq	-48(%rbp), %rdi
	movq	-40(%rbp), %rsi
	movq	%rdi, -16(%rbp)
	movq	%rsi, -8(%rbp)
Ltmp1222:
	.loc	48 1446 15 is_stmt 1
	callq	__ZN4core6option15Option$LT$T$GT$8and_then17hd09ea49ed102c0aaE
	movq	-80(%rbp), %rsi
	movq	-72(%rbp), %rdi
	movq	%rax, %rcx
	movq	-64(%rbp), %rax
	.loc	48 1446 9 is_stmt 0
	movq	%rsi, (%rdi)
	movq	%rcx, 8(%rdi)
	movq	%rdx, 16(%rdi)
Ltmp1223:
	.loc	48 1447 6 is_stmt 1
	addq	$80, %rsp
	popq	%rbp
	retq
Ltmp1224:
Lfunc_end143:
	.cfi_endproc

	.globl	__ZN87_$LT$core..str..iter..EncodeUtf16$u20$as$u20$core..iter..traits..iterator..Iterator$GT$9size_hint28_$u7b$$u7b$closure$u7d$$u7d$17hbf27009b222a66d5E
	.p2align	4, 0x90
__ZN87_$LT$core..str..iter..EncodeUtf16$u20$as$u20$core..iter..traits..iterator..Iterator$GT$9size_hint28_$u7b$$u7b$closure$u7d$$u7d$17hbf27009b222a66d5E:
Lfunc_begin144:
	.loc	48 1446 0
	.cfi_startproc
	pushq	%rbp
	.cfi_def_cfa_offset 16
	.cfi_offset %rbp, -16
	movq	%rsp, %rbp
	.cfi_def_cfa_register %rbp
	subq	$16, %rsp
	movq	%rdi, -8(%rbp)
	movl	$2, %esi
Ltmp1225:
	.loc	48 1446 33 prologue_end
	callq	__ZN4core3num23_$LT$impl$u20$usize$GT$11checked_mul17h07d0d8d786f4e9b6E
	.loc	48 1446 49 is_stmt 0
	addq	$16, %rsp
	popq	%rbp
	retq
Ltmp1226:
Lfunc_end144:
	.cfi_endproc

	.p2align	4, 0x90
__ZN89_$LT$core_foundation..mach_port..CFMachPort$u20$as$u20$core_foundation..base..TCFType$GT$19as_concrete_TypeRef17h7a5094a785b69241E:
Lfunc_begin145:
	.loc	4 92 0 is_stmt 1
	.cfi_startproc
	pushq	%rbp
	.cfi_def_cfa_offset 16
	.cfi_offset %rbp, -16
	movq	%rsp, %rbp
	.cfi_def_cfa_register %rbp
	pushq	%rax
	movq	%rdi, -8(%rbp)
Ltmp1227:
	.loc	4 93 17 prologue_end
	movq	(%rdi), %rax
	.loc	4 94 14
	addq	$8, %rsp
	popq	%rbp
	retq
Ltmp1228:
Lfunc_end145:
	.cfi_endproc

	.globl	__ZN90_$LT$core..ops..control_flow..ControlFlow$LT$B$C$C$GT$$u20$as$u20$core..cmp..PartialEq$GT$2eq17hd8f6b9e8813eda79E
	.p2align	4, 0x90
__ZN90_$LT$core..ops..control_flow..ControlFlow$LT$B$C$C$GT$$u20$as$u20$core..cmp..PartialEq$GT$2eq17hd8f6b9e8813eda79E:
Lfunc_begin146:
	.loc	3 84 0
	.cfi_startproc
	pushq	%rbp
	.cfi_def_cfa_offset 16
	.cfi_offset %rbp, -16
	movq	%rsp, %rbp
	.cfi_def_cfa_register %rbp
	subq	$112, %rsp
	movq	%rdi, -104(%rbp)
	movq	%rsi, -96(%rbp)
	movq	%rdi, -64(%rbp)
	movq	%rsi, -56(%rbp)
Ltmp1229:
	.loc	3 84 30 prologue_end
	movb	(%rdi), %al
	andb	$1, %al
	movzbl	%al, %eax
	movq	%rax, -48(%rbp)
Ltmp1230:
	.loc	3 84 30 is_stmt 0
	movb	(%rsi), %cl
	andb	$1, %cl
	movzbl	%cl, %ecx
	movq	%rcx, -40(%rbp)
Ltmp1231:
	.loc	3 84 30
	cmpq	%rcx, %rax
	je	LBB146_2
	movb	$0, -82(%rbp)
	jmp	LBB146_9
LBB146_2:
	.loc	3 0 30
	movq	-96(%rbp), %rax
	movq	-104(%rbp), %rcx
	.loc	3 84 30
	movq	%rcx, -80(%rbp)
	movq	%rax, -72(%rbp)
	movq	-80(%rbp), %rax
	movb	(%rax), %al
	andb	$1, %al
	movzbl	%al, %eax
	cmpq	$0, %rax
	jne	LBB146_4
	movq	-72(%rbp), %rax
	movb	(%rax), %al
	andb	$1, %al
	movzbl	%al, %eax
	cmpq	$0, %rax
	je	LBB146_8
	jmp	LBB146_6
LBB146_4:
	movq	-72(%rbp), %rax
	movb	(%rax), %al
	andb	$1, %al
	movzbl	%al, %eax
	cmpq	$1, %rax
	jne	LBB146_6
	.loc	3 93 11 is_stmt 1
	movq	-80(%rbp), %rdi
	addq	$1, %rdi
	movq	%rdi, -32(%rbp)
	movq	-72(%rbp), %rsi
	addq	$1, %rsi
	movq	%rsi, -24(%rbp)
Ltmp1232:
	.loc	3 93 11 is_stmt 0
	callq	__ZN4core3cmp5impls59_$LT$impl$u20$core..cmp..PartialEq$u20$for$u20$$LP$$RP$$GT$2eq17h6c90533e743acd44E
	andb	$1, %al
	movb	%al, -81(%rbp)
Ltmp1233:
	.loc	3 84 38 is_stmt 1
	jmp	LBB146_7
LBB146_6:
	.loc	3 84 30 is_stmt 0
	ud2
LBB146_7:
	movb	-81(%rbp), %al
	andb	$1, %al
	movb	%al, -82(%rbp)
	jmp	LBB146_9
LBB146_8:
	.loc	3 89 14 is_stmt 1
	movq	-80(%rbp), %rdi
	addq	$1, %rdi
	movq	%rdi, -16(%rbp)
	movq	-72(%rbp), %rsi
	addq	$1, %rsi
	movq	%rsi, -8(%rbp)
Ltmp1234:
	.loc	3 89 14 is_stmt 0
	callq	__ZN4core3cmp5impls59_$LT$impl$u20$core..cmp..PartialEq$u20$for$u20$$LP$$RP$$GT$2eq17h6c90533e743acd44E
	andb	$1, %al
	movb	%al, -81(%rbp)
Ltmp1235:
	.loc	3 84 38 is_stmt 1
	jmp	LBB146_7
Ltmp1236:
LBB146_9:
	.loc	3 84 39 is_stmt 0
	movb	-82(%rbp), %al
	andb	$1, %al
	movzbl	%al, %eax
	addq	$112, %rsp
	popq	%rbp
	retq
Ltmp1237:
Lfunc_end146:
	.cfi_endproc

	.globl	__ZN91_$LT$core..slice..iter..Iter$LT$T$GT$$u20$as$u20$core..iter..traits..iterator..Iterator$GT$24__iterator_get_unchecked17hfa85c1fa951276edE
	.p2align	4, 0x90
__ZN91_$LT$core..slice..iter..Iter$LT$T$GT$$u20$as$u20$core..iter..traits..iterator..Iterator$GT$24__iterator_get_unchecked17hfa85c1fa951276edE:
Lfunc_begin147:
	.loc	49 319 0 is_stmt 1
	.cfi_startproc
	pushq	%rbp
	.cfi_def_cfa_offset 16
	.cfi_offset %rbp, -16
	movq	%rsp, %rbp
	.cfi_def_cfa_register %rbp
	subq	$64, %rsp
	movq	%rdi, -64(%rbp)
	movq	%rsi, -56(%rbp)
Ltmp1238:
	.loc	49 330 42 prologue_end
	movq	8(%rdi), %rax
	movq	%rax, -48(%rbp)
Ltmp1239:
	.loc	12 326 9
	movq	%rax, -40(%rbp)
Ltmp1240:
	.loc	49 330 64
	movq	%rsi, -32(%rbp)
Ltmp1241:
	.loc	13 1034 18
	movq	%rax, -24(%rbp)
	.loc	13 1034 30 is_stmt 0
	movq	%rsi, -16(%rbp)
Ltmp1242:
	.loc	13 487 18 is_stmt 1
	addq	%rsi, %rax
	movq	%rax, -8(%rbp)
	movq	-8(%rbp), %rax
Ltmp1243:
	.loc	49 331 14
	addq	$64, %rsp
	popq	%rbp
	retq
Ltmp1244:
Lfunc_end147:
	.cfi_endproc

	.globl	__ZN91_$LT$core..slice..iter..Iter$LT$T$GT$$u20$as$u20$core..iter..traits..iterator..Iterator$GT$4next17h1d941ba7d54c1910E
	.p2align	4, 0x90
__ZN91_$LT$core..slice..iter..Iter$LT$T$GT$$u20$as$u20$core..iter..traits..iterator..Iterator$GT$4next17h1d941ba7d54c1910E:
Lfunc_begin148:
	.loc	49 124 0
	.cfi_startproc
	pushq	%rbp
	.cfi_def_cfa_offset 16
	.cfi_offset %rbp, -16
	movq	%rsp, %rbp
	.cfi_def_cfa_register %rbp
	subq	$304, %rsp
	movq	%rdi, -304(%rbp)
	movq	%rdi, -240(%rbp)
Ltmp1245:
	.loc	49 132 29 prologue_end
	movq	8(%rdi), %rax
	movq	%rax, -224(%rbp)
Ltmp1246:
	.loc	12 326 9
	movq	%rax, -216(%rbp)
Ltmp1247:
	.loc	13 52 36
	movq	%rax, -280(%rbp)
	.loc	13 52 18 is_stmt 0
	movq	-280(%rbp), %rax
	movq	%rax, -208(%rbp)
Ltmp1248:
	.loc	13 38 13 is_stmt 1
	movq	%rax, -200(%rbp)
Ltmp1249:
	.loc	13 215 33
	movq	%rax, -192(%rbp)
	.loc	13 215 18 is_stmt 0
	movq	%rax, -184(%rbp)
Ltmp1250:
	.loc	49 133 24 is_stmt 1
	movb	$1, %al
	testb	$1, %al
	jne	LBB148_2
LBB148_1:
	.loc	49 0 24 is_stmt 0
	movq	-304(%rbp), %rcx
	.loc	49 136 24 is_stmt 1
	movq	8(%rcx), %rax
	movq	%rax, -136(%rbp)
	cmpq	(%rcx), %rax
	je	LBB148_4
	jmp	LBB148_3
LBB148_2:
	.loc	49 0 24 is_stmt 0
	movq	-304(%rbp), %rax
	.loc	49 134 33 is_stmt 1
	movq	(%rax), %rax
	movq	%rax, -176(%rbp)
Ltmp1251:
	.loc	25 53 36
	movq	%rax, -272(%rbp)
	.loc	25 53 18 is_stmt 0
	movq	-272(%rbp), %rax
	movq	%rax, -168(%rbp)
Ltmp1252:
	.loc	25 39 13 is_stmt 1
	movq	%rax, -160(%rbp)
Ltmp1253:
	.loc	25 209 33
	movq	%rax, -152(%rbp)
	.loc	25 209 18 is_stmt 0
	movq	%rax, -144(%rbp)
Ltmp1254:
	.loc	49 133 21 is_stmt 1
	jmp	LBB148_1
LBB148_3:
	.loc	49 0 21 is_stmt 0
	movq	-304(%rbp), %rax
	.loc	49 139 30 is_stmt 1
	movq	%rax, -128(%rbp)
Ltmp1255:
	.loc	49 76 20
	xorl	%eax, %eax
	testb	$1, %al
	jne	LBB148_6
	jmp	LBB148_7
Ltmp1256:
LBB148_4:
	.loc	49 137 25
	movq	$0, -296(%rbp)
LBB148_5:
	.loc	49 142 14
	movq	-296(%rbp), %rax
	addq	$304, %rsp
	popq	%rbp
	retq
LBB148_6:
	.loc	49 0 14 is_stmt 0
	movq	-304(%rbp), %rax
Ltmp1257:
	.loc	49 57 29 is_stmt 1
	movq	(%rax), %rcx
	movq	%rcx, -64(%rbp)
Ltmp1258:
	.loc	25 1198 9
	movq	%rcx, -56(%rbp)
Ltmp1259:
	.loc	25 61 9
	movq	%rcx, -48(%rbp)
Ltmp1260:
	.loc	25 1180 9
	movq	%rcx, -40(%rbp)
Ltmp1261:
	.loc	25 555 18
	addq	$-1, %rcx
	movq	%rcx, -32(%rbp)
	movq	-32(%rbp), %rcx
	movq	%rcx, -24(%rbp)
Ltmp1262:
	.loc	25 100 29
	movq	%rcx, -16(%rbp)
Ltmp1263:
	.loc	33 118 36
	movq	%rcx, -248(%rbp)
	.loc	33 118 14 is_stmt 0
	movq	-248(%rbp), %rcx
	movq	%rcx, -256(%rbp)
	movq	-256(%rbp), %rcx
Ltmp1264:
	.loc	49 57 17 is_stmt 1
	movq	%rcx, (%rax)
	.loc	49 78 21
	movq	8(%rax), %rax
	movq	%rax, -8(%rbp)
	movq	%rax, -288(%rbp)
	.loc	49 76 17
	jmp	LBB148_8
LBB148_7:
	.loc	49 0 17 is_stmt 0
	movq	-304(%rbp), %rcx
	.loc	49 80 31 is_stmt 1
	movq	8(%rcx), %rax
	movq	%rax, -120(%rbp)
Ltmp1265:
	.loc	12 326 9
	movq	%rax, -112(%rbp)
Ltmp1266:
	.loc	49 83 64
	movq	8(%rcx), %rdx
	movq	%rdx, -104(%rbp)
Ltmp1267:
	.loc	12 326 9
	movq	%rdx, -96(%rbp)
Ltmp1268:
	.loc	13 1034 18
	movq	%rdx, -88(%rbp)
Ltmp1269:
	.loc	13 487 18
	addq	$16, %rdx
	movq	%rdx, -80(%rbp)
	movq	-80(%rbp), %rdx
	movq	%rdx, -72(%rbp)
Ltmp1270:
	.loc	12 201 13
	movq	%rdx, -264(%rbp)
Ltmp1271:
	.loc	49 83 21
	movq	-264(%rbp), %rdx
	movq	%rdx, 8(%rcx)
	.loc	49 84 21
	movq	%rax, -288(%rbp)
Ltmp1272:
LBB148_8:
	.loc	49 139 30
	movq	-288(%rbp), %rax
	.loc	49 139 25 is_stmt 0
	movq	%rax, -296(%rbp)
	.loc	49 136 21 is_stmt 1
	jmp	LBB148_5
Ltmp1273:
Lfunc_end148:
	.cfi_endproc

	.globl	__ZN91_$LT$core..slice..iter..Iter$LT$T$GT$$u20$as$u20$core..iter..traits..iterator..Iterator$GT$4next17h574e630ea139dd8eE
	.p2align	4, 0x90
__ZN91_$LT$core..slice..iter..Iter$LT$T$GT$$u20$as$u20$core..iter..traits..iterator..Iterator$GT$4next17h574e630ea139dd8eE:
Lfunc_begin149:
	.loc	49 124 0
	.cfi_startproc
	pushq	%rbp
	.cfi_def_cfa_offset 16
	.cfi_offset %rbp, -16
	movq	%rsp, %rbp
	.cfi_def_cfa_register %rbp
	subq	$304, %rsp
	movq	%rdi, -304(%rbp)
	movq	%rdi, -240(%rbp)
Ltmp1274:
	.loc	49 132 29 prologue_end
	movq	8(%rdi), %rax
	movq	%rax, -224(%rbp)
Ltmp1275:
	.loc	12 326 9
	movq	%rax, -216(%rbp)
Ltmp1276:
	.loc	13 52 36
	movq	%rax, -280(%rbp)
	.loc	13 52 18 is_stmt 0
	movq	-280(%rbp), %rax
	movq	%rax, -208(%rbp)
Ltmp1277:
	.loc	13 38 13 is_stmt 1
	movq	%rax, -200(%rbp)
Ltmp1278:
	.loc	13 215 33
	movq	%rax, -192(%rbp)
	.loc	13 215 18 is_stmt 0
	movq	%rax, -184(%rbp)
Ltmp1279:
	.loc	49 133 24 is_stmt 1
	movb	$1, %al
	testb	$1, %al
	jne	LBB149_2
LBB149_1:
	.loc	49 0 24 is_stmt 0
	movq	-304(%rbp), %rcx
	.loc	49 136 24 is_stmt 1
	movq	8(%rcx), %rax
	movq	%rax, -136(%rbp)
	cmpq	(%rcx), %rax
	je	LBB149_4
	jmp	LBB149_3
LBB149_2:
	.loc	49 0 24 is_stmt 0
	movq	-304(%rbp), %rax
	.loc	49 134 33 is_stmt 1
	movq	(%rax), %rax
	movq	%rax, -176(%rbp)
Ltmp1280:
	.loc	25 53 36
	movq	%rax, -272(%rbp)
	.loc	25 53 18 is_stmt 0
	movq	-272(%rbp), %rax
	movq	%rax, -168(%rbp)
Ltmp1281:
	.loc	25 39 13 is_stmt 1
	movq	%rax, -160(%rbp)
Ltmp1282:
	.loc	25 209 33
	movq	%rax, -152(%rbp)
	.loc	25 209 18 is_stmt 0
	movq	%rax, -144(%rbp)
Ltmp1283:
	.loc	49 133 21 is_stmt 1
	jmp	LBB149_1
LBB149_3:
	.loc	49 0 21 is_stmt 0
	movq	-304(%rbp), %rax
	.loc	49 139 30 is_stmt 1
	movq	%rax, -128(%rbp)
Ltmp1284:
	.loc	49 76 20
	xorl	%eax, %eax
	testb	$1, %al
	jne	LBB149_6
	jmp	LBB149_7
Ltmp1285:
LBB149_4:
	.loc	49 137 25
	movq	$0, -296(%rbp)
LBB149_5:
	.loc	49 142 14
	movq	-296(%rbp), %rax
	addq	$304, %rsp
	popq	%rbp
	retq
LBB149_6:
	.loc	49 0 14 is_stmt 0
	movq	-304(%rbp), %rax
Ltmp1286:
	.loc	49 57 29 is_stmt 1
	movq	(%rax), %rcx
	movq	%rcx, -64(%rbp)
Ltmp1287:
	.loc	25 1198 9
	movq	%rcx, -56(%rbp)
Ltmp1288:
	.loc	25 61 9
	movq	%rcx, -48(%rbp)
Ltmp1289:
	.loc	25 1180 9
	movq	%rcx, -40(%rbp)
Ltmp1290:
	.loc	25 555 18
	addq	$-1, %rcx
	movq	%rcx, -32(%rbp)
	movq	-32(%rbp), %rcx
	movq	%rcx, -24(%rbp)
Ltmp1291:
	.loc	25 100 29
	movq	%rcx, -16(%rbp)
Ltmp1292:
	.loc	33 118 36
	movq	%rcx, -248(%rbp)
	.loc	33 118 14 is_stmt 0
	movq	-248(%rbp), %rcx
	movq	%rcx, -256(%rbp)
	movq	-256(%rbp), %rcx
Ltmp1293:
	.loc	49 57 17 is_stmt 1
	movq	%rcx, (%rax)
	.loc	49 78 21
	movq	8(%rax), %rax
	movq	%rax, -8(%rbp)
	movq	%rax, -288(%rbp)
	.loc	49 76 17
	jmp	LBB149_8
LBB149_7:
	.loc	49 0 17 is_stmt 0
	movq	-304(%rbp), %rcx
	.loc	49 80 31 is_stmt 1
	movq	8(%rcx), %rax
	movq	%rax, -120(%rbp)
Ltmp1294:
	.loc	12 326 9
	movq	%rax, -112(%rbp)
Ltmp1295:
	.loc	49 83 64
	movq	8(%rcx), %rdx
	movq	%rdx, -104(%rbp)
Ltmp1296:
	.loc	12 326 9
	movq	%rdx, -96(%rbp)
Ltmp1297:
	.loc	13 1034 18
	movq	%rdx, -88(%rbp)
Ltmp1298:
	.loc	13 487 18
	addq	$1, %rdx
	movq	%rdx, -80(%rbp)
	movq	-80(%rbp), %rdx
	movq	%rdx, -72(%rbp)
Ltmp1299:
	.loc	12 201 13
	movq	%rdx, -264(%rbp)
Ltmp1300:
	.loc	49 83 21
	movq	-264(%rbp), %rdx
	movq	%rdx, 8(%rcx)
	.loc	49 84 21
	movq	%rax, -288(%rbp)
Ltmp1301:
LBB149_8:
	.loc	49 139 30
	movq	-288(%rbp), %rax
	.loc	49 139 25 is_stmt 0
	movq	%rax, -296(%rbp)
	.loc	49 136 21 is_stmt 1
	jmp	LBB149_5
Ltmp1302:
Lfunc_end149:
	.cfi_endproc

	.globl	__ZN91_$LT$core..slice..iter..Iter$LT$T$GT$$u20$as$u20$core..iter..traits..iterator..Iterator$GT$9size_hint17ha53c6ddd60abfbf0E
	.p2align	4, 0x90
__ZN91_$LT$core..slice..iter..Iter$LT$T$GT$$u20$as$u20$core..iter..traits..iterator..Iterator$GT$9size_hint17ha53c6ddd60abfbf0E:
Lfunc_begin150:
	.loc	49 145 0
	.cfi_startproc
	pushq	%rbp
	.cfi_def_cfa_offset 16
	.cfi_offset %rbp, -16
	movq	%rsp, %rbp
	.cfi_def_cfa_register %rbp
	subq	$160, %rsp
	movq	%rsi, -152(%rbp)
	movq	%rdi, -144(%rbp)
	movq	%rdi, -136(%rbp)
	movq	%rsi, -96(%rbp)
Ltmp1303:
	.loc	49 146 29 prologue_end
	movq	8(%rsi), %rax
	movq	%rax, -128(%rbp)
	movq	%rax, -88(%rbp)
Ltmp1304:
	.loc	49 146 29 is_stmt 0
	xorl	%eax, %eax
	testb	$1, %al
	jne	LBB150_2
	.loc	49 0 29
	movq	-128(%rbp), %rsi
	movq	-152(%rbp), %rax
	.loc	49 146 29
	movq	(%rax), %rdi
	movq	%rsi, -8(%rbp)
	callq	__ZN4core3ptr9const_ptr33_$LT$impl$u20$$BP$const$u20$T$GT$7sub_ptr17h4570e3dea0525e5bE
	movq	%rax, -120(%rbp)
	jmp	LBB150_3
LBB150_2:
	.loc	49 0 29
	movq	-128(%rbp), %rcx
	movq	-152(%rbp), %rax
	.loc	49 146 29
	movq	(%rax), %rax
	movq	%rax, -80(%rbp)
Ltmp1305:
	.loc	25 209 33 is_stmt 1
	movq	%rax, -72(%rbp)
	.loc	25 209 18 is_stmt 0
	movq	%rax, -64(%rbp)
	movq	-64(%rbp), %rax
	movq	%rax, -56(%rbp)
Ltmp1306:
	.loc	49 146 29 is_stmt 1
	movq	%rcx, -48(%rbp)
Ltmp1307:
	.loc	12 326 9
	movq	%rcx, -40(%rbp)
Ltmp1308:
	.loc	13 215 33
	movq	%rcx, -32(%rbp)
	.loc	13 215 18 is_stmt 0
	movq	%rcx, -24(%rbp)
	movq	-24(%rbp), %rcx
	movq	%rcx, -16(%rbp)
Ltmp1309:
	.loc	8 1203 13 is_stmt 1
	subq	%rcx, %rax
	movq	%rax, -120(%rbp)
Ltmp1310:
LBB150_3:
	.loc	8 0 13 is_stmt 0
	movq	-136(%rbp), %rax
	movq	-144(%rbp), %rcx
Ltmp1311:
	.loc	49 147 18 is_stmt 1
	movq	-120(%rbp), %rdx
	.loc	49 147 30 is_stmt 0
	movq	-120(%rbp), %rsi
	.loc	49 147 25
	movq	%rsi, -104(%rbp)
	movq	$1, -112(%rbp)
	.loc	49 147 17
	movq	%rdx, (%rcx)
	movq	-112(%rbp), %rsi
	movq	-104(%rbp), %rdx
	movq	%rsi, 8(%rcx)
	movq	%rdx, 16(%rcx)
Ltmp1312:
	.loc	49 148 14 is_stmt 1
	addq	$160, %rsp
	popq	%rbp
	retq
Ltmp1313:
Lfunc_end150:
	.cfi_endproc

	.globl	__ZN91_$LT$core_foundation..array..CFArray$LT$T$GT$$u20$as$u20$core_foundation..base..TCFType$GT$12as_CFTypeRef17h21e92437dd69f478E
	.p2align	4, 0x90
__ZN91_$LT$core_foundation..array..CFArray$LT$T$GT$$u20$as$u20$core_foundation..base..TCFType$GT$12as_CFTypeRef17h21e92437dd69f478E:
Lfunc_begin151:
	.loc	4 104 0
	.cfi_startproc
	pushq	%rbp
	.cfi_def_cfa_offset 16
	.cfi_offset %rbp, -16
	movq	%rsp, %rbp
	.cfi_def_cfa_register %rbp
	subq	$16, %rsp
	movq	%rdi, -8(%rbp)
Ltmp1314:
	.loc	4 105 17 prologue_end
	callq	__ZN91_$LT$core_foundation..array..CFArray$LT$T$GT$$u20$as$u20$core_foundation..base..TCFType$GT$19as_concrete_TypeRef17h2afd93907d6a2d65E
	.loc	4 106 14
	addq	$16, %rsp
	popq	%rbp
	retq
Ltmp1315:
Lfunc_end151:
	.cfi_endproc

	.globl	__ZN91_$LT$core_foundation..array..CFArray$LT$T$GT$$u20$as$u20$core_foundation..base..TCFType$GT$12as_CFTypeRef17h88eb52acc2dce72dE
	.p2align	4, 0x90
__ZN91_$LT$core_foundation..array..CFArray$LT$T$GT$$u20$as$u20$core_foundation..base..TCFType$GT$12as_CFTypeRef17h88eb52acc2dce72dE:
Lfunc_begin152:
	.loc	4 104 0
	.cfi_startproc
	pushq	%rbp
	.cfi_def_cfa_offset 16
	.cfi_offset %rbp, -16
	movq	%rsp, %rbp
	.cfi_def_cfa_register %rbp
	subq	$16, %rsp
	movq	%rdi, -8(%rbp)
Ltmp1316:
	.loc	4 105 17 prologue_end
	callq	__ZN91_$LT$core_foundation..array..CFArray$LT$T$GT$$u20$as$u20$core_foundation..base..TCFType$GT$19as_concrete_TypeRef17haeb60589962a6be6E
	.loc	4 106 14
	addq	$16, %rsp
	popq	%rbp
	retq
Ltmp1317:
Lfunc_end152:
	.cfi_endproc

	.globl	__ZN91_$LT$core_foundation..array..CFArray$LT$T$GT$$u20$as$u20$core_foundation..base..TCFType$GT$19as_concrete_TypeRef17h2afd93907d6a2d65E
	.p2align	4, 0x90
__ZN91_$LT$core_foundation..array..CFArray$LT$T$GT$$u20$as$u20$core_foundation..base..TCFType$GT$19as_concrete_TypeRef17h2afd93907d6a2d65E:
Lfunc_begin153:
	.loc	4 92 0
	.cfi_startproc
	pushq	%rbp
	.cfi_def_cfa_offset 16
	.cfi_offset %rbp, -16
	movq	%rsp, %rbp
	.cfi_def_cfa_register %rbp
	pushq	%rax
	movq	%rdi, -8(%rbp)
Ltmp1318:
	.loc	4 93 17 prologue_end
	movq	(%rdi), %rax
	.loc	4 94 14
	addq	$8, %rsp
	popq	%rbp
	retq
Ltmp1319:
Lfunc_end153:
	.cfi_endproc

	.globl	__ZN91_$LT$core_foundation..array..CFArray$LT$T$GT$$u20$as$u20$core_foundation..base..TCFType$GT$19as_concrete_TypeRef17h6fe9c0e206c02387E
	.p2align	4, 0x90
__ZN91_$LT$core_foundation..array..CFArray$LT$T$GT$$u20$as$u20$core_foundation..base..TCFType$GT$19as_concrete_TypeRef17h6fe9c0e206c02387E:
Lfunc_begin154:
	.loc	4 92 0
	.cfi_startproc
	pushq	%rbp
	.cfi_def_cfa_offset 16
	.cfi_offset %rbp, -16
	movq	%rsp, %rbp
	.cfi_def_cfa_register %rbp
	pushq	%rax
	movq	%rdi, -8(%rbp)
Ltmp1320:
	.loc	4 93 17 prologue_end
	movq	(%rdi), %rax
	.loc	4 94 14
	addq	$8, %rsp
	popq	%rbp
	retq
Ltmp1321:
Lfunc_end154:
	.cfi_endproc

	.globl	__ZN91_$LT$core_foundation..array..CFArray$LT$T$GT$$u20$as$u20$core_foundation..base..TCFType$GT$22wrap_under_create_rule17h37721f527f9ac717E
	.p2align	4, 0x90
__ZN91_$LT$core_foundation..array..CFArray$LT$T$GT$$u20$as$u20$core_foundation..base..TCFType$GT$22wrap_under_create_rule17h37721f527f9ac717E:
Lfunc_begin155:
	.loc	4 109 0
	.cfi_startproc
	pushq	%rbp
	.cfi_def_cfa_offset 16
	.cfi_offset %rbp, -16
	movq	%rsp, %rbp
	.cfi_def_cfa_register %rbp
	subq	$32, %rsp
	movq	%rdi, -24(%rbp)
	movq	%rdi, -8(%rbp)
Ltmp1322:
	.loc	4 110 26 prologue_end
	callq	__ZN4core3ptr9const_ptr33_$LT$impl$u20$$BP$const$u20$T$GT$7is_null17hc253f794d316d287E
	.loc	4 110 25 is_stmt 0
	xorb	$-1, %al
	.loc	4 110 17
	xorb	$-1, %al
	testb	$1, %al
	jne	LBB155_2
	.loc	4 0 17
	movq	-24(%rbp), %rax
	.loc	4 113 17 is_stmt 1
	movq	%rax, -16(%rbp)
	.loc	4 114 14
	movq	-16(%rbp), %rax
	addq	$32, %rsp
	popq	%rbp
	retq
LBB155_2:
	.loc	4 110 17
	leaq	l___unnamed_3(%rip), %rdi
	leaq	l___unnamed_21(%rip), %rdx
	movl	$34, %esi
	callq	__ZN3std9panicking11begin_panic17hca1489fda4927541E
Ltmp1323:
Lfunc_end155:
	.cfi_endproc

	.globl	__ZN91_$LT$core_foundation..array..CFArray$LT$T$GT$$u20$as$u20$core_foundation..base..TCFType$GT$22wrap_under_create_rule17h3d09c18a834c1723E
	.p2align	4, 0x90
__ZN91_$LT$core_foundation..array..CFArray$LT$T$GT$$u20$as$u20$core_foundation..base..TCFType$GT$22wrap_under_create_rule17h3d09c18a834c1723E:
Lfunc_begin156:
	.loc	4 109 0
	.cfi_startproc
	pushq	%rbp
	.cfi_def_cfa_offset 16
	.cfi_offset %rbp, -16
	movq	%rsp, %rbp
	.cfi_def_cfa_register %rbp
	subq	$32, %rsp
	movq	%rdi, -24(%rbp)
	movq	%rdi, -8(%rbp)
Ltmp1324:
	.loc	4 110 26 prologue_end
	callq	__ZN4core3ptr9const_ptr33_$LT$impl$u20$$BP$const$u20$T$GT$7is_null17hc253f794d316d287E
	.loc	4 110 25 is_stmt 0
	xorb	$-1, %al
	.loc	4 110 17
	xorb	$-1, %al
	testb	$1, %al
	jne	LBB156_2
	.loc	4 0 17
	movq	-24(%rbp), %rax
	.loc	4 113 17 is_stmt 1
	movq	%rax, -16(%rbp)
	.loc	4 114 14
	movq	-16(%rbp), %rax
	addq	$32, %rsp
	popq	%rbp
	retq
LBB156_2:
	.loc	4 110 17
	leaq	l___unnamed_3(%rip), %rdi
	leaq	l___unnamed_21(%rip), %rdx
	movl	$34, %esi
	callq	__ZN3std9panicking11begin_panic17hca1489fda4927541E
Ltmp1325:
Lfunc_end156:
	.cfi_endproc

	.globl	__ZN91_$LT$core_foundation..array..CFArray$LT$T$GT$$u20$as$u20$core_foundation..base..TCFType$GT$22wrap_under_create_rule17ha38da73c0fdf0512E
	.p2align	4, 0x90
__ZN91_$LT$core_foundation..array..CFArray$LT$T$GT$$u20$as$u20$core_foundation..base..TCFType$GT$22wrap_under_create_rule17ha38da73c0fdf0512E:
Lfunc_begin157:
	.loc	4 109 0
	.cfi_startproc
	pushq	%rbp
	.cfi_def_cfa_offset 16
	.cfi_offset %rbp, -16
	movq	%rsp, %rbp
	.cfi_def_cfa_register %rbp
	subq	$32, %rsp
	movq	%rdi, -24(%rbp)
	movq	%rdi, -8(%rbp)
Ltmp1326:
	.loc	4 110 26 prologue_end
	callq	__ZN4core3ptr9const_ptr33_$LT$impl$u20$$BP$const$u20$T$GT$7is_null17hc253f794d316d287E
	.loc	4 110 25 is_stmt 0
	xorb	$-1, %al
	.loc	4 110 17
	xorb	$-1, %al
	testb	$1, %al
	jne	LBB157_2
	.loc	4 0 17
	movq	-24(%rbp), %rax
	.loc	4 113 17 is_stmt 1
	movq	%rax, -16(%rbp)
	.loc	4 114 14
	movq	-16(%rbp), %rax
	addq	$32, %rsp
	popq	%rbp
	retq
LBB157_2:
	.loc	4 110 17
	leaq	l___unnamed_3(%rip), %rdi
	leaq	l___unnamed_21(%rip), %rdx
	movl	$34, %esi
	callq	__ZN3std9panicking11begin_panic17hca1489fda4927541E
Ltmp1327:
Lfunc_end157:
	.cfi_endproc

	.globl	__ZN95_$LT$alloc..vec..Vec$LT$T$GT$$u20$as$u20$core..iter..traits..collect..FromIterator$LT$T$GT$$GT$9from_iter17ha2d8b2adbf17f589E
	.p2align	4, 0x90
__ZN95_$LT$alloc..vec..Vec$LT$T$GT$$u20$as$u20$core..iter..traits..collect..FromIterator$LT$T$GT$$GT$9from_iter17ha2d8b2adbf17f589E:
Lfunc_begin158:
	.loc	7 2752 0
	.cfi_startproc
	pushq	%rbp
	.cfi_def_cfa_offset 16
	.cfi_offset %rbp, -16
	movq	%rsp, %rbp
	.cfi_def_cfa_register %rbp
	subq	$64, %rsp
	movq	%rdi, -64(%rbp)
	movq	%rdi, -56(%rbp)
Ltmp1328:
	.loc	7 2753 59 prologue_end
	movq	(%rsi), %rax
	movq	%rax, -24(%rbp)
	movq	8(%rsi), %rax
	movq	%rax, -16(%rbp)
	movq	16(%rsi), %rax
	movq	%rax, -8(%rbp)
	leaq	-48(%rbp), %rdi
	leaq	-24(%rbp), %rsi
Ltmp1329:
	callq	__ZN63_$LT$I$u20$as$u20$core..iter..traits..collect..IntoIterator$GT$9into_iter17he40f2fae0a13530aE
	movq	-64(%rbp), %rdi
	.loc	7 2753 9 is_stmt 0
	leaq	-48(%rbp), %rsi
	callq	__ZN98_$LT$alloc..vec..Vec$LT$T$GT$$u20$as$u20$alloc..vec..spec_from_iter..SpecFromIter$LT$T$C$I$GT$$GT$9from_iter17hc7099c7603005aa4E
	movq	-56(%rbp), %rax
	.loc	7 2754 6 is_stmt 1
	addq	$64, %rsp
	popq	%rbp
	retq
Ltmp1330:
Lfunc_end158:
	.cfi_endproc

	.globl	__ZN95_$LT$alloc..vec..Vec$LT$T$GT$$u20$as$u20$core..iter..traits..collect..FromIterator$LT$T$GT$$GT$9from_iter17hb68182dcc2285b5cE
	.p2align	4, 0x90
__ZN95_$LT$alloc..vec..Vec$LT$T$GT$$u20$as$u20$core..iter..traits..collect..FromIterator$LT$T$GT$$GT$9from_iter17hb68182dcc2285b5cE:
Lfunc_begin159:
	.loc	7 2752 0
	.cfi_startproc
	pushq	%rbp
	.cfi_def_cfa_offset 16
	.cfi_offset %rbp, -16
	movq	%rsp, %rbp
	.cfi_def_cfa_register %rbp
	subq	$64, %rsp
	movq	%rdi, -64(%rbp)
	movq	%rdi, -56(%rbp)
Ltmp1331:
	.loc	7 2753 59 prologue_end
	movq	(%rsi), %rax
	movq	%rax, -24(%rbp)
	movq	8(%rsi), %rax
	movq	%rax, -16(%rbp)
	movq	16(%rsi), %rax
	movq	%rax, -8(%rbp)
	leaq	-48(%rbp), %rdi
	leaq	-24(%rbp), %rsi
Ltmp1332:
	callq	__ZN63_$LT$I$u20$as$u20$core..iter..traits..collect..IntoIterator$GT$9into_iter17hc3e30c62933727a2E
	movq	-64(%rbp), %rdi
	.loc	7 2753 9 is_stmt 0
	leaq	-48(%rbp), %rsi
	callq	__ZN98_$LT$alloc..vec..Vec$LT$T$GT$$u20$as$u20$alloc..vec..spec_from_iter..SpecFromIter$LT$T$C$I$GT$$GT$9from_iter17h8a643dabf65a815eE
	movq	-56(%rbp), %rax
	.loc	7 2754 6 is_stmt 1
	addq	$64, %rsp
	popq	%rbp
	retq
Ltmp1333:
Lfunc_end159:
	.cfi_endproc

	.globl	__ZN95_$LT$core..ops..control_flow..ControlFlow$LT$B$C$C$GT$$u20$as$u20$core..ops..try_trait..Try$GT$11from_output17h11a3af79438c3220E
	.p2align	4, 0x90
__ZN95_$LT$core..ops..control_flow..ControlFlow$LT$B$C$C$GT$$u20$as$u20$core..ops..try_trait..Try$GT$11from_output17h11a3af79438c3220E:
Lfunc_begin160:
	.loc	3 106 0
	.cfi_startproc
	pushq	%rbp
	.cfi_def_cfa_offset 16
	.cfi_offset %rbp, -16
	movq	%rsp, %rbp
	.cfi_def_cfa_register %rbp
	subq	$16, %rsp
Ltmp1334:
	.loc	3 107 9 prologue_end
	movb	$0, -9(%rbp)
	.loc	3 108 6
	movb	-9(%rbp), %al
	andb	$1, %al
	movzbl	%al, %eax
	addq	$16, %rsp
	popq	%rbp
	retq
Ltmp1335:
Lfunc_end160:
	.cfi_endproc

	.globl	__ZN95_$LT$core..ops..control_flow..ControlFlow$LT$B$C$C$GT$$u20$as$u20$core..ops..try_trait..Try$GT$6branch17hc5b906c09930f346E
	.p2align	4, 0x90
__ZN95_$LT$core..ops..control_flow..ControlFlow$LT$B$C$C$GT$$u20$as$u20$core..ops..try_trait..Try$GT$6branch17hc5b906c09930f346E:
Lfunc_begin161:
	.loc	3 111 0
	.cfi_startproc
	pushq	%rbp
	.cfi_def_cfa_offset 16
	.cfi_offset %rbp, -16
	movq	%rsp, %rbp
	.cfi_def_cfa_register %rbp
	subq	$32, %rsp
	movb	%dil, %al
	andb	$1, %al
	movb	%al, -26(%rbp)
Ltmp1336:
	.loc	3 112 15 prologue_end
	movb	-26(%rbp), %al
	andb	$1, %al
	movzbl	%al, %eax
	.loc	3 112 9 is_stmt 0
	cmpq	$0, %rax
	jne	LBB161_2
Ltmp1337:
	.loc	3 113 41 is_stmt 1
	movb	$0, -25(%rbp)
Ltmp1338:
	.loc	3 113 64 is_stmt 0
	jmp	LBB161_3
LBB161_2:
Ltmp1339:
	.loc	3 114 38 is_stmt 1
	movb	$1, -25(%rbp)
Ltmp1340:
LBB161_3:
	.loc	3 116 6
	movb	-25(%rbp), %al
	andb	$1, %al
	movzbl	%al, %eax
	addq	$32, %rsp
	popq	%rbp
	retq
Ltmp1341:
Lfunc_end161:
	.cfi_endproc

	.globl	__ZN97_$LT$alloc..vec..Vec$LT$T$C$A$GT$$u20$as$u20$alloc..vec..spec_extend..SpecExtend$LT$T$C$I$GT$$GT$11spec_extend17h004ad816b7bd7a35E
	.p2align	4, 0x90
__ZN97_$LT$alloc..vec..Vec$LT$T$C$A$GT$$u20$as$u20$alloc..vec..spec_extend..SpecExtend$LT$T$C$I$GT$$GT$11spec_extend17h004ad816b7bd7a35E:
Lfunc_begin162:
	.file	52 "/rustc/2c8cc343237b8f7d5a3c3703e3a87f2eb2c54a74/library/alloc/src/vec" "spec_extend.rs"
	.loc	52 16 0
	.cfi_startproc
	pushq	%rbp
	.cfi_def_cfa_offset 16
	.cfi_offset %rbp, -16
	movq	%rsp, %rbp
	.cfi_def_cfa_register %rbp
	subq	$32, %rsp
	movq	%rdi, -8(%rbp)
Ltmp1342:
	.loc	52 17 31 prologue_end
	movq	(%rsi), %rax
	movq	%rax, -32(%rbp)
	movq	8(%rsi), %rax
	movq	%rax, -24(%rbp)
	movq	16(%rsi), %rax
	movq	%rax, -16(%rbp)
	.loc	52 17 9 is_stmt 0
	leaq	-32(%rbp), %rsi
Ltmp1343:
	callq	__ZN5alloc3vec16Vec$LT$T$C$A$GT$16extend_desugared17h02fd99c75ac2c944E
	.loc	52 18 6 is_stmt 1
	addq	$32, %rsp
	popq	%rbp
	retq
Ltmp1344:
Lfunc_end162:
	.cfi_endproc

	.globl	__ZN97_$LT$alloc..vec..Vec$LT$T$C$A$GT$$u20$as$u20$alloc..vec..spec_extend..SpecExtend$LT$T$C$I$GT$$GT$11spec_extend17hcf6badb0137ddf34E
	.p2align	4, 0x90
__ZN97_$LT$alloc..vec..Vec$LT$T$C$A$GT$$u20$as$u20$alloc..vec..spec_extend..SpecExtend$LT$T$C$I$GT$$GT$11spec_extend17hcf6badb0137ddf34E:
Lfunc_begin163:
	.loc	52 16 0
	.cfi_startproc
	pushq	%rbp
	.cfi_def_cfa_offset 16
	.cfi_offset %rbp, -16
	movq	%rsp, %rbp
	.cfi_def_cfa_register %rbp
	subq	$32, %rsp
	movq	%rdi, -8(%rbp)
Ltmp1345:
	.loc	52 17 31 prologue_end
	movq	(%rsi), %rax
	movq	%rax, -32(%rbp)
	movq	8(%rsi), %rax
	movq	%rax, -24(%rbp)
	movq	16(%rsi), %rax
	movq	%rax, -16(%rbp)
	.loc	52 17 9 is_stmt 0
	leaq	-32(%rbp), %rsi
Ltmp1346:
	callq	__ZN5alloc3vec16Vec$LT$T$C$A$GT$16extend_desugared17hb9a23f36ae18b1e9E
	.loc	52 18 6 is_stmt 1
	addq	$32, %rsp
	popq	%rbp
	retq
Ltmp1347:
Lfunc_end163:
	.cfi_endproc

	.globl	__ZN98_$LT$alloc..vec..Vec$LT$T$GT$$u20$as$u20$alloc..vec..spec_from_iter..SpecFromIter$LT$T$C$I$GT$$GT$9from_iter17h8a643dabf65a815eE
	.p2align	4, 0x90
__ZN98_$LT$alloc..vec..Vec$LT$T$GT$$u20$as$u20$alloc..vec..spec_from_iter..SpecFromIter$LT$T$C$I$GT$$GT$9from_iter17h8a643dabf65a815eE:
Lfunc_begin164:
	.file	53 "/rustc/2c8cc343237b8f7d5a3c3703e3a87f2eb2c54a74/library/alloc/src/vec" "spec_from_iter.rs"
	.loc	53 32 0
	.cfi_startproc
	pushq	%rbp
	.cfi_def_cfa_offset 16
	.cfi_offset %rbp, -16
	movq	%rsp, %rbp
	.cfi_def_cfa_register %rbp
	subq	$32, %rsp
	movq	%rdi, %rax
	movq	%rax, -32(%rbp)
Ltmp1348:
	.loc	53 33 39 prologue_end
	movq	(%rsi), %rax
	movq	%rax, -24(%rbp)
	movq	8(%rsi), %rax
	movq	%rax, -16(%rbp)
	movq	16(%rsi), %rax
	movq	%rax, -8(%rbp)
	.loc	53 33 9 is_stmt 0
	leaq	-24(%rbp), %rsi
Ltmp1349:
	callq	__ZN111_$LT$alloc..vec..Vec$LT$T$GT$$u20$as$u20$alloc..vec..spec_from_iter_nested..SpecFromIterNested$LT$T$C$I$GT$$GT$9from_iter17hd023b1b99fd3ad6aE
	movq	-32(%rbp), %rax
	.loc	53 34 6 is_stmt 1
	addq	$32, %rsp
	popq	%rbp
	retq
Ltmp1350:
Lfunc_end164:
	.cfi_endproc

	.globl	__ZN98_$LT$alloc..vec..Vec$LT$T$GT$$u20$as$u20$alloc..vec..spec_from_iter..SpecFromIter$LT$T$C$I$GT$$GT$9from_iter17hc7099c7603005aa4E
	.p2align	4, 0x90
__ZN98_$LT$alloc..vec..Vec$LT$T$GT$$u20$as$u20$alloc..vec..spec_from_iter..SpecFromIter$LT$T$C$I$GT$$GT$9from_iter17hc7099c7603005aa4E:
Lfunc_begin165:
	.loc	53 32 0
	.cfi_startproc
	pushq	%rbp
	.cfi_def_cfa_offset 16
	.cfi_offset %rbp, -16
	movq	%rsp, %rbp
	.cfi_def_cfa_register %rbp
	subq	$32, %rsp
	movq	%rdi, %rax
	movq	%rax, -32(%rbp)
Ltmp1351:
	.loc	53 33 39 prologue_end
	movq	(%rsi), %rax
	movq	%rax, -24(%rbp)
	movq	8(%rsi), %rax
	movq	%rax, -16(%rbp)
	movq	16(%rsi), %rax
	movq	%rax, -8(%rbp)
	.loc	53 33 9 is_stmt 0
	leaq	-24(%rbp), %rsi
Ltmp1352:
	callq	__ZN111_$LT$alloc..vec..Vec$LT$T$GT$$u20$as$u20$alloc..vec..spec_from_iter_nested..SpecFromIterNested$LT$T$C$I$GT$$GT$9from_iter17h63d4f7a29ea2b483E
	movq	-32(%rbp), %rax
	.loc	53 34 6 is_stmt 1
	addq	$32, %rsp
	popq	%rbp
	retq
Ltmp1353:
Lfunc_end165:
	.cfi_endproc

	.globl	__ZN13core_graphics5color7CGColor3rgb17hfb713ed84946db3aE
	.p2align	4, 0x90
__ZN13core_graphics5color7CGColor3rgb17hfb713ed84946db3aE:
Lfunc_begin166:
	.file	54 "/Users/natalie/.cargo/registry/src/github.com-1ecc6299db9ec823/core-graphics-0.22.3" "src/color.rs"
	.loc	54 23 0
	.cfi_startproc
	pushq	%rbp
	.cfi_def_cfa_offset 16
	.cfi_offset %rbp, -16
	movq	%rsp, %rbp
	.cfi_def_cfa_register %rbp
	subq	$48, %rsp
	movsd	%xmm0, -40(%rbp)
	movsd	%xmm1, -32(%rbp)
	movsd	%xmm2, -24(%rbp)
	movsd	%xmm3, -16(%rbp)
Ltmp1354:
	.loc	54 25 23 prologue_end
	callq	_CGColorCreateGenericRGB
	movq	%rax, %rdi
	movq	%rdi, -8(%rbp)
Ltmp1355:
	.loc	54 26 13
	callq	__ZN80_$LT$core_graphics..color..CGColor$u20$as$u20$core_foundation..base..TCFType$GT$22wrap_under_create_rule17h8655d688265745efE
Ltmp1356:
	.loc	54 28 6
	addq	$48, %rsp
	popq	%rbp
	retq
Ltmp1357:
Lfunc_end166:
	.cfi_endproc

	.globl	__ZN13core_graphics11color_space12CGColorSpace7type_id17h1d821b9e68889ab2E
	.p2align	4, 0x90
__ZN13core_graphics11color_space12CGColorSpace7type_id17h1d821b9e68889ab2E:
Lfunc_begin167:
	.file	55 "/Users/natalie/.cargo/registry/src/github.com-1ecc6299db9ec823/core-graphics-0.22.3" "src/color_space.rs"
	.loc	55 24 0
	.cfi_startproc
	pushq	%rbp
	.cfi_def_cfa_offset 16
	.cfi_offset %rbp, -16
	movq	%rsp, %rbp
	.cfi_def_cfa_register %rbp
Ltmp1358:
	.loc	55 26 13 prologue_end
	callq	_CGColorSpaceGetTypeID
	.loc	55 28 6
	popq	%rbp
	retq
Ltmp1359:
Lfunc_end167:
	.cfi_endproc

	.globl	__ZN13core_graphics11color_space12CGColorSpace16create_with_name17he159090f6628723cE
	.p2align	4, 0x90
__ZN13core_graphics11color_space12CGColorSpace16create_with_name17he159090f6628723cE:
Lfunc_begin168:
	.loc	55 30 0
	.cfi_startproc
	pushq	%rbp
	.cfi_def_cfa_offset 16
	.cfi_offset %rbp, -16
	movq	%rsp, %rbp
	.cfi_def_cfa_register %rbp
	subq	$48, %rsp
	movq	%rdi, -16(%rbp)
Ltmp1360:
	.loc	55 32 21 prologue_end
	callq	_CGColorSpaceCreateWithName
	movq	%rax, %rdi
	movq	%rdi, -40(%rbp)
	movq	%rdi, -8(%rbp)
Ltmp1361:
	.loc	55 33 17
	callq	__ZN4core3ptr7mut_ptr31_$LT$impl$u20$$BP$mut$u20$T$GT$7is_null17h515cef8c9c626fe3E
	.loc	55 33 16 is_stmt 0
	xorb	$-1, %al
	testb	$1, %al
	jne	LBB168_2
	.loc	55 33 69
	movq	$0, -32(%rbp)
	.loc	55 33 13
	jmp	LBB168_3
LBB168_2:
	.loc	55 0 13
	movq	-40(%rbp), %rdi
	.loc	55 33 35
