	.section	__TEXT,__text,regular,pure_instructions
	.macosx_version_min 10, 7
	.file	1 "/Users/natalie/.cargo/registry/src/github.com-1ecc6299db9ec823/core-foundation-sys-0.8.3" "src/base.rs"
	.file	2 "/Users/natalie/.cargo/registry/src/github.com-1ecc6299db9ec823/core-foundation-sys-0.8.3" "src/characterset.rs"
	.file	3 "/Users/natalie/.cargo/registry/src/github.com-1ecc6299db9ec823/core-foundation-sys-0.8.3" "src/string.rs"
	.file	4 "/Users/natalie/.cargo/registry/src/github.com-1ecc6299db9ec823/core-foundation-sys-0.8.3" "src/url.rs"
	.globl	__ZN42_$LT$$RF$T$u20$as$u20$core..fmt..Debug$GT$3fmt17h25ad68448dfc48afE
	.p2align	4, 0x90
__ZN42_$LT$$RF$T$u20$as$u20$core..fmt..Debug$GT$3fmt17h25ad68448dfc48afE:
Lfunc_begin0:
	.file	5 "/rustc/2c8cc343237b8f7d5a3c3703e3a87f2eb2c54a74/library/core/src/fmt" "mod.rs"
	.loc	5 2377 0
	.cfi_startproc
	pushq	%rbp
	.cfi_def_cfa_offset 16
	.cfi_offset %rbp, -16
	movq	%rsp, %rbp
	.cfi_def_cfa_register %rbp
	subq	$16, %rsp
	movq	%rdi, -16(%rbp)
	movq	%rsi, -8(%rbp)
Ltmp0:
	.loc	5 2377 71 prologue_end
	movq	(%rdi), %rdi
	.loc	5 2377 62 is_stmt 0
	callq	__ZN66_$LT$core..option..Option$LT$T$GT$$u20$as$u20$core..fmt..Debug$GT$3fmt17hd0a21b67a0e7fb4fE
	.loc	5 2377 84
	andb	$1, %al
	movzbl	%al, %eax
	addq	$16, %rsp
	popq	%rbp
	retq
Ltmp1:
Lfunc_end0:
	.cfi_endproc

	.globl	__ZN42_$LT$$RF$T$u20$as$u20$core..fmt..Debug$GT$3fmt17h4942706167216593E
	.p2align	4, 0x90
__ZN42_$LT$$RF$T$u20$as$u20$core..fmt..Debug$GT$3fmt17h4942706167216593E:
Lfunc_begin1:
	.loc	5 2377 0 is_stmt 1
	.cfi_startproc
	pushq	%rbp
	.cfi_def_cfa_offset 16
	.cfi_offset %rbp, -16
	movq	%rsp, %rbp
	.cfi_def_cfa_register %rbp
	subq	$16, %rsp
	movq	%rdi, -16(%rbp)
	movq	%rsi, -8(%rbp)
Ltmp2:
	.loc	5 2377 71 prologue_end
	movq	(%rdi), %rdi
	.loc	5 2377 62 is_stmt 0
	callq	__ZN4core3ptr114_$LT$impl$u20$core..fmt..Debug$u20$for$u20$unsafe$u20$extern$u20$$u22$C$u22$$u20$fn$LP$T$RP$$u20$.$GT$$u20$Ret$GT$3fmt17hde702b061081845dE
	.loc	5 2377 84
	andb	$1, %al
	movzbl	%al, %eax
	addq	$16, %rsp
	popq	%rbp
	retq
Ltmp3:
Lfunc_end1:
	.cfi_endproc

	.globl	__ZN42_$LT$$RF$T$u20$as$u20$core..fmt..Debug$GT$3fmt17h4cc371aad1a33645E
	.p2align	4, 0x90
__ZN42_$LT$$RF$T$u20$as$u20$core..fmt..Debug$GT$3fmt17h4cc371aad1a33645E:
Lfunc_begin2:
	.loc	5 2377 0 is_stmt 1
	.cfi_startproc
	pushq	%rbp
	.cfi_def_cfa_offset 16
	.cfi_offset %rbp, -16
	movq	%rsp, %rbp
	.cfi_def_cfa_register %rbp
	subq	$16, %rsp
	movq	%rdi, -16(%rbp)
	movq	%rsi, -8(%rbp)
Ltmp4:
	.loc	5 2377 71 prologue_end
	movq	(%rdi), %rdi
	.loc	5 2377 62 is_stmt 0
	callq	__ZN50_$LT$$BP$mut$u20$T$u20$as$u20$core..fmt..Debug$GT$3fmt17h261e4ebbc64f8898E
	.loc	5 2377 84
	andb	$1, %al
	movzbl	%al, %eax
	addq	$16, %rsp
	popq	%rbp
	retq
Ltmp5:
Lfunc_end2:
	.cfi_endproc

	.globl	__ZN42_$LT$$RF$T$u20$as$u20$core..fmt..Debug$GT$3fmt17h51dc709586feb7e2E
	.p2align	4, 0x90
__ZN42_$LT$$RF$T$u20$as$u20$core..fmt..Debug$GT$3fmt17h51dc709586feb7e2E:
Lfunc_begin3:
	.loc	5 2377 0 is_stmt 1
	.cfi_startproc
	pushq	%rbp
	.cfi_def_cfa_offset 16
	.cfi_offset %rbp, -16
	movq	%rsp, %rbp
	.cfi_def_cfa_register %rbp
	subq	$16, %rsp
	movq	%rdi, -16(%rbp)
	movq	%rsi, -8(%rbp)
Ltmp6:
	.loc	5 2377 71 prologue_end
	movq	(%rdi), %rdi
	.loc	5 2377 62 is_stmt 0
	callq	__ZN66_$LT$core..option..Option$LT$T$GT$$u20$as$u20$core..fmt..Debug$GT$3fmt17hafc2be6d37f5ea17E
	.loc	5 2377 84
	andb	$1, %al
	movzbl	%al, %eax
	addq	$16, %rsp
	popq	%rbp
	retq
Ltmp7:
Lfunc_end3:
	.cfi_endproc

	.globl	__ZN42_$LT$$RF$T$u20$as$u20$core..fmt..Debug$GT$3fmt17h5eb9951eea62b646E
	.p2align	4, 0x90
__ZN42_$LT$$RF$T$u20$as$u20$core..fmt..Debug$GT$3fmt17h5eb9951eea62b646E:
Lfunc_begin4:
	.loc	5 2377 0 is_stmt 1
	.cfi_startproc
	pushq	%rbp
	.cfi_def_cfa_offset 16
	.cfi_offset %rbp, -16
	movq	%rsp, %rbp
	.cfi_def_cfa_register %rbp
	subq	$16, %rsp
	movq	%rdi, -16(%rbp)
	movq	%rsi, -8(%rbp)
Ltmp8:
	.loc	5 2377 71 prologue_end
	movq	(%rdi), %rdi
	.loc	5 2377 62 is_stmt 0
	callq	__ZN4core3fmt3num52_$LT$impl$u20$core..fmt..Debug$u20$for$u20$isize$GT$3fmt17h0e90a0c2f41cacf6E
	.loc	5 2377 84
	andb	$1, %al
	movzbl	%al, %eax
	addq	$16, %rsp
	popq	%rbp
	retq
Ltmp9:
Lfunc_end4:
	.cfi_endproc

	.globl	__ZN42_$LT$$RF$T$u20$as$u20$core..fmt..Debug$GT$3fmt17h9fbf760ab666ac21E
	.p2align	4, 0x90
__ZN42_$LT$$RF$T$u20$as$u20$core..fmt..Debug$GT$3fmt17h9fbf760ab666ac21E:
Lfunc_begin5:
	.loc	5 2377 0 is_stmt 1
	.cfi_startproc
	pushq	%rbp
	.cfi_def_cfa_offset 16
	.cfi_offset %rbp, -16
	movq	%rsp, %rbp
	.cfi_def_cfa_register %rbp
	subq	$16, %rsp
	movq	%rdi, -16(%rbp)
	movq	%rsi, -8(%rbp)
Ltmp10:
	.loc	5 2377 71 prologue_end
	movq	(%rdi), %rdi
	.loc	5 2377 62 is_stmt 0
	callq	__ZN66_$LT$core..option..Option$LT$T$GT$$u20$as$u20$core..fmt..Debug$GT$3fmt17h5898e72da97745f3E
	.loc	5 2377 84
	andb	$1, %al
	movzbl	%al, %eax
	addq	$16, %rsp
	popq	%rbp
	retq
Ltmp11:
Lfunc_end5:
	.cfi_endproc

	.globl	__ZN42_$LT$$RF$T$u20$as$u20$core..fmt..Debug$GT$3fmt17haa6c348a0ec85c5eE
	.p2align	4, 0x90
__ZN42_$LT$$RF$T$u20$as$u20$core..fmt..Debug$GT$3fmt17haa6c348a0ec85c5eE:
Lfunc_begin6:
	.loc	5 2377 0 is_stmt 1
	.cfi_startproc
	pushq	%rbp
	.cfi_def_cfa_offset 16
	.cfi_offset %rbp, -16
	movq	%rsp, %rbp
	.cfi_def_cfa_register %rbp
	subq	$16, %rsp
	movq	%rdi, -16(%rbp)
	movq	%rsi, -8(%rbp)
Ltmp12:
	.loc	5 2377 71 prologue_end
	movq	(%rdi), %rdi
	.loc	5 2377 62 is_stmt 0
	callq	__ZN4core3ptr114_$LT$impl$u20$core..fmt..Debug$u20$for$u20$unsafe$u20$extern$u20$$u22$C$u22$$u20$fn$LP$T$RP$$u20$.$GT$$u20$Ret$GT$3fmt17h75e3ab95affd178bE
	.loc	5 2377 84
	andb	$1, %al
	movzbl	%al, %eax
	addq	$16, %rsp
	popq	%rbp
	retq
Ltmp13:
Lfunc_end6:
	.cfi_endproc

	.globl	__ZN42_$LT$$RF$T$u20$as$u20$core..fmt..Debug$GT$3fmt17he89d6a8a27239815E
	.p2align	4, 0x90
__ZN42_$LT$$RF$T$u20$as$u20$core..fmt..Debug$GT$3fmt17he89d6a8a27239815E:
Lfunc_begin7:
	.loc	5 2377 0 is_stmt 1
	.cfi_startproc
	pushq	%rbp
	.cfi_def_cfa_offset 16
	.cfi_offset %rbp, -16
	movq	%rsp, %rbp
	.cfi_def_cfa_register %rbp
	subq	$16, %rsp
	movq	%rdi, -16(%rbp)
	movq	%rsi, -8(%rbp)
Ltmp14:
	.loc	5 2377 71 prologue_end
	movq	(%rdi), %rdi
	.loc	5 2377 62 is_stmt 0
	callq	__ZN4core3ptr114_$LT$impl$u20$core..fmt..Debug$u20$for$u20$unsafe$u20$extern$u20$$u22$C$u22$$u20$fn$LP$T$RP$$u20$.$GT$$u20$Ret$GT$3fmt17h965ea99e74e184c7E
	.loc	5 2377 84
	andb	$1, %al
	movzbl	%al, %eax
	addq	$16, %rsp
	popq	%rbp
	retq
Ltmp15:
Lfunc_end7:
	.cfi_endproc

	.p2align	4, 0x90
__ZN4core3fmt3num52_$LT$impl$u20$core..fmt..Debug$u20$for$u20$isize$GT$3fmt17h0e90a0c2f41cacf6E:
Lfunc_begin8:
	.file	6 "/rustc/2c8cc343237b8f7d5a3c3703e3a87f2eb2c54a74/library/core/src/fmt" "num.rs"
	.loc	6 185 0 is_stmt 1
	.cfi_startproc
	pushq	%rbp
	.cfi_def_cfa_offset 16
	.cfi_offset %rbp, -16
	movq	%rsp, %rbp
	.cfi_def_cfa_register %rbp
	subq	$48, %rsp
	movq	%rsi, -48(%rbp)
	movq	%rdi, %rax
	movq	-48(%rbp), %rdi
	movq	%rax, -40(%rbp)
	movq	%rdi, -32(%rbp)
	movq	%rax, -16(%rbp)
	movq	%rdi, -8(%rbp)
Ltmp16:
	.loc	6 186 20 prologue_end
	callq	__ZN4core3fmt9Formatter15debug_lower_hex17h0921e6b9188d914eE
	testb	$1, %al
	jne	LBB8_2
	.loc	6 0 20 is_stmt 0
	movq	-32(%rbp), %rdi
	.loc	6 188 27 is_stmt 1
	callq	__ZN4core3fmt9Formatter15debug_upper_hex17h8ce487049a6cccf8E
	testb	$1, %al
	jne	LBB8_5
	jmp	LBB8_4
LBB8_2:
	.loc	6 0 27 is_stmt 0
	movq	-32(%rbp), %rsi
	movq	-40(%rbp), %rdi
	.loc	6 187 21 is_stmt 1
	callq	__ZN4core3fmt3num55_$LT$impl$u20$core..fmt..LowerHex$u20$for$u20$isize$GT$3fmt17h7d43ff87b6740d61E
	andb	$1, %al
	movb	%al, -17(%rbp)
LBB8_3:
	.loc	6 193 14
	movb	-17(%rbp), %al
	andb	$1, %al
	movzbl	%al, %eax
	addq	$48, %rsp
	popq	%rbp
	retq
LBB8_4:
	.loc	6 0 14 is_stmt 0
	movq	-32(%rbp), %rsi
	movq	-40(%rbp), %rdi
	.loc	6 191 21 is_stmt 1
	callq	__ZN4core3fmt3num3imp54_$LT$impl$u20$core..fmt..Display$u20$for$u20$isize$GT$3fmt17h52f1ff2aaed0cbadE
	andb	$1, %al
	movb	%al, -17(%rbp)
	.loc	6 188 24
	jmp	LBB8_6
LBB8_5:
	.loc	6 0 24 is_stmt 0
	movq	-32(%rbp), %rsi
	movq	-40(%rbp), %rdi
	.loc	6 189 21 is_stmt 1
	callq	__ZN4core3fmt3num55_$LT$impl$u20$core..fmt..UpperHex$u20$for$u20$isize$GT$3fmt17hcaadb3513c247053E
	andb	$1, %al
	movb	%al, -17(%rbp)
LBB8_6:
	.loc	6 186 17
	jmp	LBB8_3
Ltmp17:
Lfunc_end8:
	.cfi_endproc

	.p2align	4, 0x90
__ZN4core3ptr104drop_in_place$LT$$RF$unsafe$u20$extern$u20$$u22$C$u22$$u20$fn$LP$$BP$const$u20$core..ffi..c_void$RP$$GT$17he0dd384dd97b8711E:
Lfunc_begin9:
	.file	7 "/rustc/2c8cc343237b8f7d5a3c3703e3a87f2eb2c54a74/library/core/src/ptr" "mod.rs"
	.loc	7 490 0
	.cfi_startproc
	pushq	%rbp
	.cfi_def_cfa_offset 16
	.cfi_offset %rbp, -16
	movq	%rsp, %rbp
	.cfi_def_cfa_register %rbp
	pushq	%rax
	movq	%rdi, -8(%rbp)
Ltmp18:
	.loc	7 490 1 prologue_end
	addq	$8, %rsp
	popq	%rbp
	retq
Ltmp19:
Lfunc_end9:
	.cfi_endproc

	.globl	__ZN4core3ptr114_$LT$impl$u20$core..fmt..Debug$u20$for$u20$unsafe$u20$extern$u20$$u22$C$u22$$u20$fn$LP$T$RP$$u20$.$GT$$u20$Ret$GT$3fmt17h75e3ab95affd178bE
	.p2align	4, 0x90
__ZN4core3ptr114_$LT$impl$u20$core..fmt..Debug$u20$for$u20$unsafe$u20$extern$u20$$u22$C$u22$$u20$fn$LP$T$RP$$u20$.$GT$$u20$Ret$GT$3fmt17h75e3ab95affd178bE:
Lfunc_begin10:
	.loc	7 1961 0
	.cfi_startproc
	pushq	%rbp
	.cfi_def_cfa_offset 16
	.cfi_offset %rbp, -16
	movq	%rsp, %rbp
	.cfi_def_cfa_register %rbp
	subq	$16, %rsp
	movq	%rdi, -16(%rbp)
	movq	%rsi, -8(%rbp)
Ltmp20:
	.loc	7 1962 44 prologue_end
	movq	(%rdi), %rdi
	.loc	7 1962 21 is_stmt 0
	callq	__ZN4core3fmt17pointer_fmt_inner17hfee30366ae14be28E
	.loc	7 1963 18 is_stmt 1
	andb	$1, %al
	movzbl	%al, %eax
	addq	$16, %rsp
	popq	%rbp
	retq
Ltmp21:
Lfunc_end10:
	.cfi_endproc

	.globl	__ZN4core3ptr114_$LT$impl$u20$core..fmt..Debug$u20$for$u20$unsafe$u20$extern$u20$$u22$C$u22$$u20$fn$LP$T$RP$$u20$.$GT$$u20$Ret$GT$3fmt17h965ea99e74e184c7E
	.p2align	4, 0x90
__ZN4core3ptr114_$LT$impl$u20$core..fmt..Debug$u20$for$u20$unsafe$u20$extern$u20$$u22$C$u22$$u20$fn$LP$T$RP$$u20$.$GT$$u20$Ret$GT$3fmt17h965ea99e74e184c7E:
Lfunc_begin11:
	.loc	7 1961 0
	.cfi_startproc
	pushq	%rbp
	.cfi_def_cfa_offset 16
	.cfi_offset %rbp, -16
	movq	%rsp, %rbp
	.cfi_def_cfa_register %rbp
	subq	$16, %rsp
	movq	%rdi, -16(%rbp)
	movq	%rsi, -8(%rbp)
Ltmp22:
	.loc	7 1962 44 prologue_end
	movq	(%rdi), %rdi
	.loc	7 1962 21 is_stmt 0
	callq	__ZN4core3fmt17pointer_fmt_inner17hfee30366ae14be28E
	.loc	7 1963 18 is_stmt 1
	andb	$1, %al
	movzbl	%al, %eax
	addq	$16, %rsp
	popq	%rbp
	retq
Ltmp23:
Lfunc_end11:
	.cfi_endproc

	.globl	__ZN4core3ptr114_$LT$impl$u20$core..fmt..Debug$u20$for$u20$unsafe$u20$extern$u20$$u22$C$u22$$u20$fn$LP$T$RP$$u20$.$GT$$u20$Ret$GT$3fmt17hde702b061081845dE
	.p2align	4, 0x90
__ZN4core3ptr114_$LT$impl$u20$core..fmt..Debug$u20$for$u20$unsafe$u20$extern$u20$$u22$C$u22$$u20$fn$LP$T$RP$$u20$.$GT$$u20$Ret$GT$3fmt17hde702b061081845dE:
Lfunc_begin12:
	.loc	7 1961 0
	.cfi_startproc
	pushq	%rbp
	.cfi_def_cfa_offset 16
	.cfi_offset %rbp, -16
	movq	%rsp, %rbp
	.cfi_def_cfa_register %rbp
	subq	$16, %rsp
	movq	%rdi, -16(%rbp)
	movq	%rsi, -8(%rbp)
Ltmp24:
	.loc	7 1962 44 prologue_end
	movq	(%rdi), %rdi
	.loc	7 1962 21 is_stmt 0
	callq	__ZN4core3fmt17pointer_fmt_inner17hfee30366ae14be28E
	.loc	7 1963 18 is_stmt 1
	andb	$1, %al
	movzbl	%al, %eax
	addq	$16, %rsp
	popq	%rbp
	retq
Ltmp25:
Lfunc_end12:
	.cfi_endproc

	.p2align	4, 0x90
__ZN4core3ptr132drop_in_place$LT$$RF$core..option..Option$LT$unsafe$u20$extern$u20$$u22$C$u22$$u20$fn$LP$$BP$const$u20$core..ffi..c_void$RP$$GT$$GT$17hc0f866efccf26042E:
Lfunc_begin13:
	.loc	7 490 0
	.cfi_startproc
	pushq	%rbp
	.cfi_def_cfa_offset 16
	.cfi_offset %rbp, -16
	movq	%rsp, %rbp
	.cfi_def_cfa_register %rbp
	pushq	%rax
	movq	%rdi, -8(%rbp)
Ltmp26:
	.loc	7 490 1 prologue_end
	addq	$8, %rsp
	popq	%rbp
	retq
Ltmp27:
Lfunc_end13:
	.cfi_endproc

	.p2align	4, 0x90
__ZN4core3ptr150drop_in_place$LT$$RF$unsafe$u20$extern$u20$$u22$C$u22$$u20$fn$LP$$BP$const$u20$core..ffi..c_void$RP$$u20$.$GT$$u20$$BP$const$u20$core..ffi..c_void$GT$17ha740f5e109d14b04E:
Lfunc_begin14:
	.loc	7 490 0
	.cfi_startproc
	pushq	%rbp
	.cfi_def_cfa_offset 16
	.cfi_offset %rbp, -16
	movq	%rsp, %rbp
	.cfi_def_cfa_register %rbp
	pushq	%rax
	movq	%rdi, -8(%rbp)
Ltmp28:
	.loc	7 490 1 prologue_end
	addq	$8, %rsp
	popq	%rbp
	retq
Ltmp29:
Lfunc_end14:
	.cfi_endproc

	.p2align	4, 0x90
__ZN4core3ptr172drop_in_place$LT$$RF$unsafe$u20$extern$u20$$u22$C$u22$$u20$fn$LP$$BP$const$u20$core..ffi..c_void$RP$$u20$.$GT$$u20$$BP$const$u20$core_foundation_sys..string..__CFString$GT$17hb788d9fd5c466abbE:
Lfunc_begin15:
	.loc	7 490 0
	.cfi_startproc
	pushq	%rbp
	.cfi_def_cfa_offset 16
	.cfi_offset %rbp, -16
	movq	%rsp, %rbp
	.cfi_def_cfa_register %rbp
	pushq	%rax
	movq	%rdi, -8(%rbp)
Ltmp30:
	.loc	7 490 1 prologue_end
	addq	$8, %rsp
	popq	%rbp
	retq
Ltmp31:
Lfunc_end15:
	.cfi_endproc

	.p2align	4, 0x90
__ZN4core3ptr178drop_in_place$LT$$RF$core..option..Option$LT$unsafe$u20$extern$u20$$u22$C$u22$$u20$fn$LP$$BP$const$u20$core..ffi..c_void$RP$$u20$.$GT$$u20$$BP$const$u20$core..ffi..c_void$GT$$GT$17ha4262d2610c5ad31E:
Lfunc_begin16:
	.loc	7 490 0
	.cfi_startproc
	pushq	%rbp
	.cfi_def_cfa_offset 16
	.cfi_offset %rbp, -16
	movq	%rsp, %rbp
	.cfi_def_cfa_register %rbp
	pushq	%rax
	movq	%rdi, -8(%rbp)
Ltmp32:
	.loc	7 490 1 prologue_end
	addq	$8, %rsp
	popq	%rbp
	retq
Ltmp33:
Lfunc_end16:
	.cfi_endproc

	.p2align	4, 0x90
__ZN4core3ptr200drop_in_place$LT$$RF$core..option..Option$LT$unsafe$u20$extern$u20$$u22$C$u22$$u20$fn$LP$$BP$const$u20$core..ffi..c_void$RP$$u20$.$GT$$u20$$BP$const$u20$core_foundation_sys..string..__CFString$GT$$GT$17h723ab894149be64eE:
Lfunc_begin17:
	.loc	7 490 0
	.cfi_startproc
	pushq	%rbp
	.cfi_def_cfa_offset 16
	.cfi_offset %rbp, -16
	movq	%rsp, %rbp
	.cfi_def_cfa_register %rbp
	pushq	%rax
	movq	%rdi, -8(%rbp)
Ltmp34:
	.loc	7 490 1 prologue_end
	addq	$8, %rsp
	popq	%rbp
	retq
Ltmp35:
Lfunc_end17:
	.cfi_endproc

	.p2align	4, 0x90
__ZN4core3ptr30drop_in_place$LT$$RF$isize$GT$17hf3588fcb4388119bE:
Lfunc_begin18:
	.loc	7 490 0
	.cfi_startproc
	pushq	%rbp
	.cfi_def_cfa_offset 16
	.cfi_offset %rbp, -16
	movq	%rsp, %rbp
	.cfi_def_cfa_register %rbp
	pushq	%rax
	movq	%rdi, -8(%rbp)
Ltmp36:
	.loc	7 490 1 prologue_end
	addq	$8, %rsp
	popq	%rbp
	retq
Ltmp37:
Lfunc_end18:
	.cfi_endproc

	.p2align	4, 0x90
__ZN4core3ptr54drop_in_place$LT$$RF$$BP$mut$u20$core..ffi..c_void$GT$17h9f38e22c7a9cfd59E:
Lfunc_begin19:
	.loc	7 490 0
	.cfi_startproc
	pushq	%rbp
	.cfi_def_cfa_offset 16
	.cfi_offset %rbp, -16
	movq	%rsp, %rbp
	.cfi_def_cfa_register %rbp
	pushq	%rax
	movq	%rdi, -8(%rbp)
Ltmp38:
	.loc	7 490 1 prologue_end
	addq	$8, %rsp
	popq	%rbp
	retq
Ltmp39:
Lfunc_end19:
	.cfi_endproc

	.globl	__ZN50_$LT$$BP$mut$u20$T$u20$as$u20$core..fmt..Debug$GT$3fmt17h261e4ebbc64f8898E
	.p2align	4, 0x90
__ZN50_$LT$$BP$mut$u20$T$u20$as$u20$core..fmt..Debug$GT$3fmt17h261e4ebbc64f8898E:
Lfunc_begin20:
	.loc	5 2547 0
	.cfi_startproc
	pushq	%rbp
	.cfi_def_cfa_offset 16
	.cfi_offset %rbp, -16
	movq	%rsp, %rbp
	.cfi_def_cfa_register %rbp
	subq	$16, %rsp
	movq	%rdi, -16(%rbp)
	movq	%rsi, -8(%rbp)
Ltmp40:
	.loc	5 2548 9 prologue_end
	callq	__ZN52_$LT$$BP$mut$u20$T$u20$as$u20$core..fmt..Pointer$GT$3fmt17h2b03adadfd1cf1ceE
	.loc	5 2549 6
	andb	$1, %al
	movzbl	%al, %eax
	addq	$16, %rsp
	popq	%rbp
	retq
Ltmp41:
Lfunc_end20:
	.cfi_endproc

	.globl	__ZN52_$LT$$BP$mut$u20$T$u20$as$u20$core..fmt..Pointer$GT$3fmt17h2b03adadfd1cf1ceE
	.p2align	4, 0x90
__ZN52_$LT$$BP$mut$u20$T$u20$as$u20$core..fmt..Pointer$GT$3fmt17h2b03adadfd1cf1ceE:
Lfunc_begin21:
	.loc	5 2518 0
	.cfi_startproc
	pushq	%rbp
	.cfi_def_cfa_offset 16
	.cfi_offset %rbp, -16
	movq	%rsp, %rbp
	.cfi_def_cfa_register %rbp
	subq	$32, %rsp
	movq	%rdi, -16(%rbp)
	movq	%rsi, -8(%rbp)
Ltmp42:
	.loc	5 2519 24 prologue_end
	movq	(%rdi), %rax
	movq	%rax, -24(%rbp)
	.loc	5 2519 9 is_stmt 0
	leaq	-24(%rbp), %rdi
	callq	__ZN54_$LT$$BP$const$u20$T$u20$as$u20$core..fmt..Pointer$GT$3fmt17hbd4ae16db0726adcE
	.loc	5 2520 6 is_stmt 1
	andb	$1, %al
	movzbl	%al, %eax
	addq	$32, %rsp
	popq	%rbp
	retq
Ltmp43:
Lfunc_end21:
	.cfi_endproc

	.globl	__ZN54_$LT$$BP$const$u20$T$u20$as$u20$core..fmt..Pointer$GT$3fmt17hbd4ae16db0726adcE
	.p2align	4, 0x90
__ZN54_$LT$$BP$const$u20$T$u20$as$u20$core..fmt..Pointer$GT$3fmt17hbd4ae16db0726adcE:
Lfunc_begin22:
	.loc	5 2478 0
	.cfi_startproc
	pushq	%rbp
	.cfi_def_cfa_offset 16
	.cfi_offset %rbp, -16
	movq	%rsp, %rbp
	.cfi_def_cfa_register %rbp
	subq	$32, %rsp
	movq	%rdi, -32(%rbp)
	movq	%rsi, -24(%rbp)
Ltmp44:
	.loc	5 2480 28 prologue_end
	movq	(%rdi), %rdi
	.loc	5 2480 27 is_stmt 0
	movq	%rdi, -16(%rbp)
Ltmp45:
	.file	8 "/rustc/2c8cc343237b8f7d5a3c3703e3a87f2eb2c54a74/library/core/src/ptr" "const_ptr.rs"
	.loc	8 241 9 is_stmt 1
	movq	%rdi, -8(%rbp)
Ltmp46:
	.loc	5 2480 9
	callq	__ZN4core3fmt17pointer_fmt_inner17hfee30366ae14be28E
	.loc	5 2481 6
	andb	$1, %al
	movzbl	%al, %eax
	addq	$32, %rsp
	popq	%rbp
	retq
Ltmp47:
Lfunc_end22:
	.cfi_endproc

	.globl	__ZN66_$LT$core..option..Option$LT$T$GT$$u20$as$u20$core..fmt..Debug$GT$3fmt17h5898e72da97745f3E
	.p2align	4, 0x90
__ZN66_$LT$core..option..Option$LT$T$GT$$u20$as$u20$core..fmt..Debug$GT$3fmt17h5898e72da97745f3E:
Lfunc_begin23:
	.file	9 "/rustc/2c8cc343237b8f7d5a3c3703e3a87f2eb2c54a74/library/core/src" "option.rs"
	.loc	9 559 0
	.cfi_startproc
	pushq	%rbp
	.cfi_def_cfa_offset 16
	.cfi_offset %rbp, -16
	movq	%rsp, %rbp
	.cfi_def_cfa_register %rbp
	subq	$48, %rsp
	movq	%rdi, -48(%rbp)
	movq	%rsi, -40(%rbp)
	movq	%rdi, -16(%rbp)
	movq	%rsi, -8(%rbp)
Ltmp48:
	.loc	9 559 37 prologue_end
	movq	(%rdi), %rdx
	movl	$1, %eax
	xorl	%ecx, %ecx
	cmpq	$0, %rdx
	cmoveq	%rcx, %rax
	cmpq	$0, %rax
	jne	LBB23_2
	.loc	9 0 37 is_stmt 0
	movq	-40(%rbp), %rdi
	.loc	9 559 37
	leaq	L___unnamed_9(%rip), %rsi
	movl	$4, %edx
	callq	__ZN4core3fmt9Formatter9write_str17hb029d9999327a35fE
	andb	$1, %al
	movb	%al, -25(%rbp)
	.loc	9 559 41
	jmp	LBB23_3
LBB23_2:
	.loc	9 0 41
	movq	-40(%rbp), %rdi
	movq	-48(%rbp), %rax
	.loc	9 570 56 is_stmt 1
	movq	%rax, -24(%rbp)
Ltmp49:
	.loc	9 559 37
	leaq	L___unnamed_10(%rip), %rsi
	movl	$4, %edx
	leaq	-24(%rbp), %rcx
	leaq	l___unnamed_1(%rip), %r8
	callq	__ZN4core3fmt9Formatter25debug_tuple_field1_finish17h7c0e485bb1c7676eE
	andb	$1, %al
	movb	%al, -25(%rbp)
Ltmp50:
LBB23_3:
	.loc	9 559 42 is_stmt 0
	movb	-25(%rbp), %al
	andb	$1, %al
	movzbl	%al, %eax
	addq	$48, %rsp
	popq	%rbp
	retq
Ltmp51:
Lfunc_end23:
	.cfi_endproc

	.globl	__ZN66_$LT$core..option..Option$LT$T$GT$$u20$as$u20$core..fmt..Debug$GT$3fmt17hafc2be6d37f5ea17E
	.p2align	4, 0x90
__ZN66_$LT$core..option..Option$LT$T$GT$$u20$as$u20$core..fmt..Debug$GT$3fmt17hafc2be6d37f5ea17E:
Lfunc_begin24:
	.loc	9 559 0 is_stmt 1
	.cfi_startproc
	pushq	%rbp
	.cfi_def_cfa_offset 16
	.cfi_offset %rbp, -16
	movq	%rsp, %rbp
	.cfi_def_cfa_register %rbp
	subq	$48, %rsp
	movq	%rdi, -48(%rbp)
	movq	%rsi, -40(%rbp)
	movq	%rdi, -16(%rbp)
	movq	%rsi, -8(%rbp)
Ltmp52:
	.loc	9 559 37 prologue_end
	movq	(%rdi), %rdx
	movl	$1, %eax
	xorl	%ecx, %ecx
	cmpq	$0, %rdx
	cmoveq	%rcx, %rax
	cmpq	$0, %rax
	jne	LBB24_2
	.loc	9 0 37 is_stmt 0
	movq	-40(%rbp), %rdi
	.loc	9 559 37
	leaq	L___unnamed_9(%rip), %rsi
	movl	$4, %edx
	callq	__ZN4core3fmt9Formatter9write_str17hb029d9999327a35fE
	andb	$1, %al
	movb	%al, -25(%rbp)
	.loc	9 559 41
	jmp	LBB24_3
LBB24_2:
	.loc	9 0 41
	movq	-40(%rbp), %rdi
	movq	-48(%rbp), %rax
	.loc	9 570 56 is_stmt 1
	movq	%rax, -24(%rbp)
Ltmp53:
	.loc	9 559 37
	leaq	L___unnamed_10(%rip), %rsi
	movl	$4, %edx
	leaq	-24(%rbp), %rcx
	leaq	l___unnamed_2(%rip), %r8
	callq	__ZN4core3fmt9Formatter25debug_tuple_field1_finish17h7c0e485bb1c7676eE
	andb	$1, %al
	movb	%al, -25(%rbp)
Ltmp54:
LBB24_3:
	.loc	9 559 42 is_stmt 0
	movb	-25(%rbp), %al
	andb	$1, %al
	movzbl	%al, %eax
	addq	$48, %rsp
	popq	%rbp
	retq
Ltmp55:
Lfunc_end24:
	.cfi_endproc

	.globl	__ZN66_$LT$core..option..Option$LT$T$GT$$u20$as$u20$core..fmt..Debug$GT$3fmt17hd0a21b67a0e7fb4fE
	.p2align	4, 0x90
__ZN66_$LT$core..option..Option$LT$T$GT$$u20$as$u20$core..fmt..Debug$GT$3fmt17hd0a21b67a0e7fb4fE:
Lfunc_begin25:
	.loc	9 559 0 is_stmt 1
	.cfi_startproc
	pushq	%rbp
	.cfi_def_cfa_offset 16
	.cfi_offset %rbp, -16
	movq	%rsp, %rbp
	.cfi_def_cfa_register %rbp
	subq	$48, %rsp
	movq	%rdi, -48(%rbp)
	movq	%rsi, -40(%rbp)
	movq	%rdi, -16(%rbp)
	movq	%rsi, -8(%rbp)
Ltmp56:
	.loc	9 559 37 prologue_end
	movq	(%rdi), %rdx
	movl	$1, %eax
	xorl	%ecx, %ecx
	cmpq	$0, %rdx
	cmoveq	%rcx, %rax
	cmpq	$0, %rax
	jne	LBB25_2
	.loc	9 0 37 is_stmt 0
	movq	-40(%rbp), %rdi
	.loc	9 559 37
	leaq	L___unnamed_9(%rip), %rsi
	movl	$4, %edx
	callq	__ZN4core3fmt9Formatter9write_str17hb029d9999327a35fE
	andb	$1, %al
	movb	%al, -25(%rbp)
	.loc	9 559 41
	jmp	LBB25_3
LBB25_2:
	.loc	9 0 41
	movq	-40(%rbp), %rdi
	movq	-48(%rbp), %rax
	.loc	9 570 56 is_stmt 1
	movq	%rax, -24(%rbp)
Ltmp57:
	.loc	9 559 37
	leaq	L___unnamed_10(%rip), %rsi
	movl	$4, %edx
	leaq	-24(%rbp), %rcx
	leaq	l___unnamed_3(%rip), %r8
	callq	__ZN4core3fmt9Formatter25debug_tuple_field1_finish17h7c0e485bb1c7676eE
	andb	$1, %al
	movb	%al, -25(%rbp)
Ltmp58:
LBB25_3:
	.loc	9 559 42 is_stmt 0
	movb	-25(%rbp), %al
	andb	$1, %al
	movzbl	%al, %eax
	addq	$48, %rsp
	popq	%rbp
	retq
Ltmp59:
Lfunc_end25:
	.cfi_endproc

	.globl	__ZN112_$LT$core_foundation_sys..base..CFComparisonResult$u20$as$u20$core..convert..Into$LT$core..cmp..Ordering$GT$$GT$4into17h30e4297bf3bb6882E
	.p2align	4, 0x90
__ZN112_$LT$core_foundation_sys..base..CFComparisonResult$u20$as$u20$core..convert..Into$LT$core..cmp..Ordering$GT$$GT$4into17h30e4297bf3bb6882E:
Lfunc_begin26:
	.loc	1 35 0 is_stmt 1
	.cfi_startproc
	pushq	%rbp
	.cfi_def_cfa_offset 16
	.cfi_offset %rbp, -16
	movq	%rsp, %rbp
	.cfi_def_cfa_register %rbp
	subq	$24, %rsp
	movq	%rdi, -16(%rbp)
Ltmp60:
	.loc	1 36 15 prologue_end
	movq	-16(%rbp), %rax
	movq	%rax, -24(%rbp)
	.loc	1 36 9 is_stmt 0
	subq	$-1, %rax
	je	LBB26_2
	jmp	LBB26_6
LBB26_6:
	.loc	1 0 9
	movq	-24(%rbp), %rax
	.loc	1 36 9
	testq	%rax, %rax
	je	LBB26_3
	jmp	LBB26_7
LBB26_7:
	jmp	LBB26_4
	.loc	1 36 15
	ud2
LBB26_2:
	.loc	1 37 45 is_stmt 1
	movb	$-1, -1(%rbp)
	jmp	LBB26_5
LBB26_3:
	.loc	1 38 44
	movb	$0, -1(%rbp)
	jmp	LBB26_5
LBB26_4:
	.loc	1 39 48
	movb	$1, -1(%rbp)
LBB26_5:
	.loc	1 41 6
	movb	-1(%rbp), %al
	addq	$24, %rsp
	popq	%rbp
	retq
Ltmp61:
Lfunc_end26:
	.cfi_endproc

	.globl	__ZN19core_foundation_sys4base7CFRange4init17h7b4b9639e9e8f595E
	.p2align	4, 0x90
__ZN19core_foundation_sys4base7CFRange4init17h7b4b9639e9e8f595E:
Lfunc_begin27:
	.loc	1 53 0
	.cfi_startproc
	pushq	%rbp
	.cfi_def_cfa_offset 16
	.cfi_offset %rbp, -16
	movq	%rsp, %rbp
	.cfi_def_cfa_register %rbp
	subq	$32, %rsp
	movq	%rdi, -16(%rbp)
	movq	%rsi, -8(%rbp)
Ltmp62:
	.loc	1 54 9 prologue_end
	movq	%rdi, -32(%rbp)
	movq	%rsi, -24(%rbp)
	.loc	1 58 6
	movq	-32(%rbp), %rax
	movq	-24(%rbp), %rdx
	addq	$32, %rsp
	popq	%rbp
	retq
Ltmp63:
Lfunc_end27:
	.cfi_endproc

	.globl	__ZN82_$LT$core_foundation_sys..base..CFComparisonResult$u20$as$u20$core..fmt..Debug$GT$3fmt17h6c9dbb701fb3f93fE
	.p2align	4, 0x90
__ZN82_$LT$core_foundation_sys..base..CFComparisonResult$u20$as$u20$core..fmt..Debug$GT$3fmt17h6c9dbb701fb3f93fE:
Lfunc_begin28:
	.loc	1 27 0
	.cfi_startproc
	pushq	%rbp
	.cfi_def_cfa_offset 16
	.cfi_offset %rbp, -16
	movq	%rsp, %rbp
	.cfi_def_cfa_register %rbp
	subq	$48, %rsp
	movq	%rsi, -48(%rbp)
	movq	%rdi, -16(%rbp)
	movq	%rsi, -8(%rbp)
Ltmp64:
	.loc	1 27 23 prologue_end
	movq	(%rdi), %rax
	movq	%rax, -40(%rbp)
	subq	$-1, %rax
	je	LBB28_2
	jmp	LBB28_6
LBB28_6:
	.loc	1 0 23 is_stmt 0
	movq	-40(%rbp), %rax
	.loc	1 27 23
	testq	%rax, %rax
	je	LBB28_3
	jmp	LBB28_7
LBB28_7:
	jmp	LBB28_4
	ud2
LBB28_2:
	leaq	L___unnamed_11(%rip), %rax
	movq	%rax, -32(%rbp)
	movq	$8, -24(%rbp)
	.loc	1 27 27
	jmp	LBB28_5
LBB28_3:
	.loc	1 27 23
	leaq	l___unnamed_12(%rip), %rax
	movq	%rax, -32(%rbp)
	movq	$7, -24(%rbp)
	.loc	1 27 27
	jmp	LBB28_5
LBB28_4:
	.loc	1 27 23
	leaq	l___unnamed_13(%rip), %rax
	movq	%rax, -32(%rbp)
	movq	$11, -24(%rbp)
LBB28_5:
	.loc	1 0 23
	movq	-48(%rbp), %rdi
	.loc	1 27 23
	movq	-32(%rbp), %rsi
	movq	-24(%rbp), %rdx
	callq	__ZN4core3fmt9Formatter9write_str17hb029d9999327a35fE
	.loc	1 27 28
	andb	$1, %al
	movzbl	%al, %eax
	addq	$48, %rsp
	popq	%rbp
	retq
Ltmp65:
Lfunc_end28:
	.cfi_endproc

	.globl	__ZN91_$LT$core_foundation_sys..messageport..CFMessagePortContext$u20$as$u20$core..fmt..Debug$GT$3fmt17h0c33b37e1f4c3bbcE
	.p2align	4, 0x90
__ZN91_$LT$core_foundation_sys..messageport..CFMessagePortContext$u20$as$u20$core..fmt..Debug$GT$3fmt17h0c33b37e1f4c3bbcE:
Lfunc_begin29:
	.file	10 "/Users/natalie/.cargo/registry/src/github.com-1ecc6299db9ec823/core-foundation-sys-0.8.3" "src/messageport.rs"
	.loc	10 20 0 is_stmt 1
	.cfi_startproc
	pushq	%rbp
	.cfi_def_cfa_offset 16
	.cfi_offset %rbp, -16
	movq	%rsp, %rbp
	.cfi_def_cfa_register %rbp
	pushq	%r15
	pushq	%r14
	pushq	%r13
	pushq	%r12
	pushq	%rbx
	subq	$248, %rsp
	.cfi_offset %rbx, -56
	.cfi_offset %r12, -48
	.cfi_offset %r13, -40
	.cfi_offset %r14, -32
	.cfi_offset %r15, -24
	movq	%rsi, -152(%rbp)
	movq	%rdi, %rax
	movq	-152(%rbp), %rdi
	movq	%rax, -56(%rbp)
	movq	%rdi, -48(%rbp)
Ltmp66:
	.loc	10 22 5 prologue_end
	movq	%rax, -96(%rbp)
	.loc	10 23 5
	movq	%rax, %rcx
	addq	$8, %rcx
	movq	%rcx, -88(%rbp)
	.loc	10 24 5
	movq	%rax, %rcx
	addq	$16, %rcx
	movq	%rcx, -80(%rbp)
	.loc	10 25 5
	movq	%rax, %rcx
	addq	$24, %rcx
	movq	%rcx, -72(%rbp)
	.loc	10 26 5
	addq	$32, %rax
	movq	%rax, -64(%rbp)
	.loc	10 20 10
	leaq	l___unnamed_14(%rip), %rsi
	movl	$20, %edx
	leaq	l___unnamed_15(%rip), %rcx
	movl	$7, %r8d
	leaq	-96(%rbp), %r9
	leaq	l___unnamed_4(%rip), %rax
	movq	%rax, -144(%rbp)
	leaq	L___unnamed_16(%rip), %rax
	movq	%rax, -136(%rbp)
	leaq	-88(%rbp), %rax
	movq	%rax, -128(%rbp)
	leaq	l___unnamed_5(%rip), %rax
	movq	%rax, -120(%rbp)
	leaq	l___unnamed_17(%rip), %rax
	movq	%rax, -112(%rbp)
	leaq	-80(%rbp), %r13
	leaq	l___unnamed_6(%rip), %r12
	leaq	l___unnamed_18(%rip), %r15
	leaq	-72(%rbp), %r14
	leaq	l___unnamed_7(%rip), %rbx
	leaq	l___unnamed_19(%rip), %r11
	leaq	-64(%rbp), %r10
	leaq	l___unnamed_8(%rip), %rax
	movq	%rax, -104(%rbp)
	movq	-144(%rbp), %rax
	movq	%rax, (%rsp)
	movq	-136(%rbp), %rax
	movq	%rax, 8(%rsp)
	movq	-128(%rbp), %rax
	movq	$4, 16(%rsp)
	movq	%rax, 24(%rsp)
	movq	-120(%rbp), %rax
	movq	%rax, 32(%rsp)
	movq	-112(%rbp), %rax
	movq	%rax, 40(%rsp)
	movq	-104(%rbp), %rax
	movq	$6, 48(%rsp)
	movq	%r13, 56(%rsp)
	movq	%r12, 64(%rsp)
	movq	%r15, 72(%rsp)
	movq	$7, 80(%rsp)
	movq	%r14, 88(%rsp)
	movq	%rbx, 96(%rsp)
	movq	%r11, 104(%rsp)
	movq	$15, 112(%rsp)
	movq	%r10, 120(%rsp)
	movq	%rax, 128(%rsp)
	callq	__ZN4core3fmt9Formatter26debug_struct_field5_finish17h9200510306f207c6E
	.loc	10 20 15 is_stmt 0
	andb	$1, %al
	movzbl	%al, %eax
	addq	$248, %rsp
	popq	%rbx
	popq	%r12
	popq	%r13
	popq	%r14
	popq	%r15
	popq	%rbp
	retq
Ltmp67:
Lfunc_end29:
	.cfi_endproc

	.section	__TEXT,__literal4,4byte_literals
L___unnamed_10:
	.ascii	"Some"

	.section	__DATA,__const
	.p2align	3
l___unnamed_1:
	.quad	__ZN4core3ptr104drop_in_place$LT$$RF$unsafe$u20$extern$u20$$u22$C$u22$$u20$fn$LP$$BP$const$u20$core..ffi..c_void$RP$$GT$17he0dd384dd97b8711E
	.asciz	"\b\000\000\000\000\000\000\000\b\000\000\000\000\000\000"
	.quad	__ZN42_$LT$$RF$T$u20$as$u20$core..fmt..Debug$GT$3fmt17he89d6a8a27239815E

	.section	__TEXT,__literal4,4byte_literals
L___unnamed_9:
	.ascii	"None"

	.section	__DATA,__const
	.p2align	3
l___unnamed_2:
	.quad	__ZN4core3ptr150drop_in_place$LT$$RF$unsafe$u20$extern$u20$$u22$C$u22$$u20$fn$LP$$BP$const$u20$core..ffi..c_void$RP$$u20$.$GT$$u20$$BP$const$u20$core..ffi..c_void$GT$17ha740f5e109d14b04E
	.asciz	"\b\000\000\000\000\000\000\000\b\000\000\000\000\000\000"
	.quad	__ZN42_$LT$$RF$T$u20$as$u20$core..fmt..Debug$GT$3fmt17h4942706167216593E

	.p2align	3
l___unnamed_3:
	.quad	__ZN4core3ptr172drop_in_place$LT$$RF$unsafe$u20$extern$u20$$u22$C$u22$$u20$fn$LP$$BP$const$u20$core..ffi..c_void$RP$$u20$.$GT$$u20$$BP$const$u20$core_foundation_sys..string..__CFString$GT$17hb788d9fd5c466abbE
	.asciz	"\b\000\000\000\000\000\000\000\b\000\000\000\000\000\000"
	.quad	__ZN42_$LT$$RF$T$u20$as$u20$core..fmt..Debug$GT$3fmt17haa6c348a0ec85c5eE

	.section	__TEXT,__const
	.globl	__ZN19core_foundation_sys4base11kCFNotFound17haea75f06f9831e16E
	.p2align	3
__ZN19core_foundation_sys4base11kCFNotFound17haea75f06f9831e16E:
	.space	8,255

	.globl	__ZN19core_foundation_sys12characterset22kCFCharacterSetControl17h9302e0e20785f057E
	.p2align	3
__ZN19core_foundation_sys12characterset22kCFCharacterSetControl17h9302e0e20785f057E:
	.asciz	"\001\000\000\000\000\000\000"

	.globl	__ZN19core_foundation_sys12characterset25kCFCharacterSetWhitespace17h79cc0a73fe393b81E
	.p2align	3
__ZN19core_foundation_sys12characterset25kCFCharacterSetWhitespace17h79cc0a73fe393b81E:
	.asciz	"\002\000\000\000\000\000\000"

	.globl	__ZN19core_foundation_sys12characterset35kCFCharacterSetWhitespaceAndNewline17h9c97690515979163E
	.p2align	3
__ZN19core_foundation_sys12characterset35kCFCharacterSetWhitespaceAndNewline17h9c97690515979163E:
	.asciz	"\003\000\000\000\000\000\000"

	.globl	__ZN19core_foundation_sys12characterset27kCFCharacterSetDecimalDigit17h0f51ac35e7b036efE
	.p2align	3
__ZN19core_foundation_sys12characterset27kCFCharacterSetDecimalDigit17h0f51ac35e7b036efE:
	.asciz	"\004\000\000\000\000\000\000"

	.globl	__ZN19core_foundation_sys12characterset21kCFCharacterSetLetter17h68c8989fe6a85affE
	.p2align	3
__ZN19core_foundation_sys12characterset21kCFCharacterSetLetter17h68c8989fe6a85affE:
	.asciz	"\005\000\000\000\000\000\000"

	.globl	__ZN19core_foundation_sys12characterset30kCFCharacterSetLowercaseLetter17h8b22465ff6766e74E
	.p2align	3
__ZN19core_foundation_sys12characterset30kCFCharacterSetLowercaseLetter17h8b22465ff6766e74E:
	.asciz	"\006\000\000\000\000\000\000"

	.globl	__ZN19core_foundation_sys12characterset30kCFCharacterSetUppercaseLetter17h6a7b21b722577363E
	.p2align	3
__ZN19core_foundation_sys12characterset30kCFCharacterSetUppercaseLetter17h6a7b21b722577363E:
	.asciz	"\007\000\000\000\000\000\000"

	.globl	__ZN19core_foundation_sys12characterset22kCFCharacterSetNonBase17ha6a3b56de6870caeE
	.p2align	3
__ZN19core_foundation_sys12characterset22kCFCharacterSetNonBase17ha6a3b56de6870caeE:
	.asciz	"\b\000\000\000\000\000\000"

	.globl	__ZN19core_foundation_sys12characterset27kCFCharacterSetDecomposable17h65b0b20cb70907f8E
	.p2align	3
__ZN19core_foundation_sys12characterset27kCFCharacterSetDecomposable17h65b0b20cb70907f8E:
	.asciz	"\t\000\000\000\000\000\000"

	.globl	__ZN19core_foundation_sys12characterset27kCFCharacterSetAlphaNumeric17hbcd410153e006f9eE
	.p2align	3
__ZN19core_foundation_sys12characterset27kCFCharacterSetAlphaNumeric17hbcd410153e006f9eE:
	.asciz	"\n\000\000\000\000\000\000"

	.globl	__ZN19core_foundation_sys12characterset26kCFCharacterSetPunctuation17h3f7245e9a46dd6aaE
	.p2align	3
__ZN19core_foundation_sys12characterset26kCFCharacterSetPunctuation17h3f7245e9a46dd6aaE:
	.asciz	"\013\000\000\000\000\000\000"

	.globl	__ZN19core_foundation_sys12characterset22kCFCharacterSetIllegal17h1edb279e6bf8df26E
	.p2align	3
__ZN19core_foundation_sys12characterset22kCFCharacterSetIllegal17h1edb279e6bf8df26E:
	.asciz	"\f\000\000\000\000\000\000"

	.globl	__ZN19core_foundation_sys12characterset32kCFCharacterSetCapitalizedLetter17hefbddd88a05190d3E
	.p2align	3
__ZN19core_foundation_sys12characterset32kCFCharacterSetCapitalizedLetter17hefbddd88a05190d3E:
	.asciz	"\r\000\000\000\000\000\000"

	.globl	__ZN19core_foundation_sys12characterset21kCFCharacterSetSymbol17h56b0e4b4847db544E
	.p2align	3
__ZN19core_foundation_sys12characterset21kCFCharacterSetSymbol17h56b0e4b4847db544E:
	.asciz	"\016\000\000\000\000\000\000"

	.globl	__ZN19core_foundation_sys12characterset22kCFCharacterSetNewline17hbe1c45c0dfd063f9E
	.p2align	3
__ZN19core_foundation_sys12characterset22kCFCharacterSetNewline17hbe1c45c0dfd063f9E:
	.asciz	"\017\000\000\000\000\000\000"

	.globl	__ZN19core_foundation_sys6string21kCFStringEncodingUTF817hc957b35a3086b910E
	.p2align	2
__ZN19core_foundation_sys6string21kCFStringEncodingUTF817hc957b35a3086b910E:
	.ascii	"\000\001\000\b"

	.globl	__ZN19core_foundation_sys3url48kCFURLBookmarkCreationPreferFileIDResolutionMask17ha1d22ad9f0c75045E
	.p2align	3
__ZN19core_foundation_sys3url48kCFURLBookmarkCreationPreferFileIDResolutionMask17ha1d22ad9f0c75045E:
	.asciz	"\000\001\000\000\000\000\000"

	.globl	__ZN19core_foundation_sys3url41kCFURLBookmarkCreationMinimalBookmarkMask17h059dc0352ed74ad5E
	.p2align	3
__ZN19core_foundation_sys3url41kCFURLBookmarkCreationMinimalBookmarkMask17h059dc0352ed74ad5E:
	.asciz	"\000\002\000\000\000\000\000"

	.globl	__ZN19core_foundation_sys3url45kCFURLBookmarkCreationSuitableForBookmarkFile17haadab37df6f4d29eE
	.p2align	3
__ZN19core_foundation_sys3url45kCFURLBookmarkCreationSuitableForBookmarkFile17haadab37df6f4d29eE:
	.asciz	"\000\004\000\000\000\000\000"

	.globl	__ZN19core_foundation_sys3url39kCFURLBookmarkCreationWithSecurityScope17he29b7e7766fbc597E
	.p2align	3
__ZN19core_foundation_sys3url39kCFURLBookmarkCreationWithSecurityScope17he29b7e7766fbc597E:
	.asciz	"\000\b\000\000\000\000\000"

	.globl	__ZN19core_foundation_sys3url54kCFURLBookmarkCreationSecurityScopeAllowOnlyReadAccess17h8e229c74b25f3dd9E
	.p2align	3
__ZN19core_foundation_sys3url54kCFURLBookmarkCreationSecurityScopeAllowOnlyReadAccess17h8e229c74b25f3dd9E:
	.asciz	"\000\020\000\000\000\000\000"

l___unnamed_13:
	.ascii	"GreaterThan"

l___unnamed_12:
	.ascii	"EqualTo"

	.section	__TEXT,__literal8,8byte_literals
L___unnamed_11:
	.ascii	"LessThan"

	.section	__TEXT,__const
l___unnamed_14:
	.ascii	"CFMessagePortContext"

l___unnamed_15:
	.ascii	"version"

	.section	__DATA,__const
	.p2align	3
l___unnamed_4:
	.quad	__ZN4core3ptr30drop_in_place$LT$$RF$isize$GT$17hf3588fcb4388119bE
	.asciz	"\b\000\000\000\000\000\000\000\b\000\000\000\000\000\000"
	.quad	__ZN42_$LT$$RF$T$u20$as$u20$core..fmt..Debug$GT$3fmt17h5eb9951eea62b646E

	.section	__TEXT,__literal4,4byte_literals
L___unnamed_16:
	.ascii	"info"

	.section	__DATA,__const
	.p2align	3
l___unnamed_5:
	.quad	__ZN4core3ptr54drop_in_place$LT$$RF$$BP$mut$u20$core..ffi..c_void$GT$17h9f38e22c7a9cfd59E
	.asciz	"\b\000\000\000\000\000\000\000\b\000\000\000\000\000\000"
	.quad	__ZN42_$LT$$RF$T$u20$as$u20$core..fmt..Debug$GT$3fmt17h4cc371aad1a33645E

	.section	__TEXT,__const
l___unnamed_17:
	.ascii	"retain"

	.section	__DATA,__const
	.p2align	3
l___unnamed_6:
	.quad	__ZN4core3ptr178drop_in_place$LT$$RF$core..option..Option$LT$unsafe$u20$extern$u20$$u22$C$u22$$u20$fn$LP$$BP$const$u20$core..ffi..c_void$RP$$u20$.$GT$$u20$$BP$const$u20$core..ffi..c_void$GT$$GT$17ha4262d2610c5ad31E
	.asciz	"\b\000\000\000\000\000\000\000\b\000\000\000\000\000\000"
	.quad	__ZN42_$LT$$RF$T$u20$as$u20$core..fmt..Debug$GT$3fmt17h51dc709586feb7e2E

	.section	__TEXT,__const
l___unnamed_18:
	.ascii	"release"

	.section	__DATA,__const
	.p2align	3
l___unnamed_7:
	.quad	__ZN4core3ptr132drop_in_place$LT$$RF$core..option..Option$LT$unsafe$u20$extern$u20$$u22$C$u22$$u20$fn$LP$$BP$const$u20$core..ffi..c_void$RP$$GT$$GT$17hc0f866efccf26042E
	.asciz	"\b\000\000\000\000\000\000\000\b\000\000\000\000\000\000"
	.quad	__ZN42_$LT$$RF$T$u20$as$u20$core..fmt..Debug$GT$3fmt17h9fbf760ab666ac21E

	.section	__TEXT,__const
l___unnamed_19:
	.ascii	"copyDescription"

	.section	__DATA,__const
	.p2align	3
l___unnamed_8:
	.quad	__ZN4core3ptr200drop_in_place$LT$$RF$core..option..Option$LT$unsafe$u20$extern$u20$$u22$C$u22$$u20$fn$LP$$BP$const$u20$core..ffi..c_void$RP$$u20$.$GT$$u20$$BP$const$u20$core_foundation_sys..string..__CFString$GT$$GT$17h723ab894149be64eE
	.asciz	"\b\000\000\000\000\000\000\000\b\000\000\000\000\000\000"
	.quad	__ZN42_$LT$$RF$T$u20$as$u20$core..fmt..Debug$GT$3fmt17h25ad68448dfc48afE

	.section	__DATA,__const
Lsec_end0:
	.section	__TEXT,__const
Lsec_end1:
	.section	__TEXT,__text,regular,pure_instructions
Lsec_end2: