	.section	__TEXT,__text,regular,pure_instructions
	.macosx_version_min 10, 7
	.globl	__ZN42_$LT$$RF$T$u20$as$u20$core..fmt..Debug$GT$3fmt17h1f77ae4802b4dbcdE
	.p2align	4, 0x90
__ZN42_$LT$$RF$T$u20$as$u20$core..fmt..Debug$GT$3fmt17h1f77ae4802b4dbcdE:
Lfunc_begin0:
	.file	1 "/rustc/2c8cc343237b8f7d5a3c3703e3a87f2eb2c54a74/library/core/src/fmt" "mod.rs"
	.loc	1 2377 0
	.cfi_startproc
	pushq	%rbp
	.cfi_def_cfa_offset 16
	.cfi_offset %rbp, -16
	movq	%rsp, %rbp
	.cfi_def_cfa_register %rbp
	subq	$16, %rsp
	movq	%rdi, -16(%rbp)
	movq	%rsi, -8(%rbp)
Ltmp0:
	.loc	1 2377 71 prologue_end
	movq	(%rdi), %rdi
	.loc	1 2377 62 is_stmt 0
	callq	__ZN4core3fmt5float50_$LT$impl$u20$core..fmt..Debug$u20$for$u20$f64$GT$3fmt17h0265200b32b564b0E
	.loc	1 2377 84
	andb	$1, %al
	movzbl	%al, %eax
	addq	$16, %rsp
	popq	%rbp
	retq
Ltmp1:
Lfunc_end0:
	.cfi_endproc

	.globl	__ZN42_$LT$$RF$T$u20$as$u20$core..fmt..Debug$GT$3fmt17h93077bf04ceded16E
	.p2align	4, 0x90
__ZN42_$LT$$RF$T$u20$as$u20$core..fmt..Debug$GT$3fmt17h93077bf04ceded16E:
Lfunc_begin1:
	.loc	1 2377 0 is_stmt 1
	.cfi_startproc
	pushq	%rbp
	.cfi_def_cfa_offset 16
	.cfi_offset %rbp, -16
	movq	%rsp, %rbp
	.cfi_def_cfa_register %rbp
	subq	$16, %rsp
	movq	%rdi, -16(%rbp)
	movq	%rsi, -8(%rbp)
Ltmp2:
	.loc	1 2377 71 prologue_end
	movq	(%rdi), %rdi
	.loc	1 2377 62 is_stmt 0
	callq	__ZN75_$LT$core_graphics_types..geometry..CGPoint$u20$as$u20$core..fmt..Debug$GT$3fmt17h299694c102edec53E
	.loc	1 2377 84
	andb	$1, %al
	movzbl	%al, %eax
	addq	$16, %rsp
	popq	%rbp
	retq
Ltmp3:
Lfunc_end1:
	.cfi_endproc

	.globl	__ZN42_$LT$$RF$T$u20$as$u20$core..fmt..Debug$GT$3fmt17h96446cfc07fcf9e4E
	.p2align	4, 0x90
__ZN42_$LT$$RF$T$u20$as$u20$core..fmt..Debug$GT$3fmt17h96446cfc07fcf9e4E:
Lfunc_begin2:
	.loc	1 2377 0 is_stmt 1
	.cfi_startproc
	pushq	%rbp
	.cfi_def_cfa_offset 16
	.cfi_offset %rbp, -16
	movq	%rsp, %rbp
	.cfi_def_cfa_register %rbp
	subq	$16, %rsp
	movq	%rdi, -16(%rbp)
	movq	%rsi, -8(%rbp)
Ltmp4:
	.loc	1 2377 71 prologue_end
	movq	(%rdi), %rdi
	.loc	1 2377 62 is_stmt 0
	callq	__ZN74_$LT$core_graphics_types..geometry..CGSize$u20$as$u20$core..fmt..Debug$GT$3fmt17h0238bd83555b01a9E
	.loc	1 2377 84
	andb	$1, %al
	movzbl	%al, %eax
	addq	$16, %rsp
	popq	%rbp
	retq
Ltmp5:
Lfunc_end2:
	.cfi_endproc

	.p2align	4, 0x90
__ZN4core3ptr28drop_in_place$LT$$RF$f64$GT$17h8a8a548c7cab0731E:
Lfunc_begin3:
	.file	2 "/rustc/2c8cc343237b8f7d5a3c3703e3a87f2eb2c54a74/library/core/src/ptr" "mod.rs"
	.loc	2 490 0 is_stmt 1
	.cfi_startproc
	pushq	%rbp
	.cfi_def_cfa_offset 16
	.cfi_offset %rbp, -16
	movq	%rsp, %rbp
	.cfi_def_cfa_register %rbp
	pushq	%rax
	movq	%rdi, -8(%rbp)
Ltmp6:
	.loc	2 490 1 prologue_end
	addq	$8, %rsp
	popq	%rbp
	retq
Ltmp7:
Lfunc_end3:
	.cfi_endproc

	.p2align	4, 0x90
__ZN4core3ptr62drop_in_place$LT$$RF$core_graphics_types..geometry..CGSize$GT$17h8331a4577b054468E:
Lfunc_begin4:
	.loc	2 490 0
	.cfi_startproc
	pushq	%rbp
	.cfi_def_cfa_offset 16
	.cfi_offset %rbp, -16
	movq	%rsp, %rbp
	.cfi_def_cfa_register %rbp
	pushq	%rax
	movq	%rdi, -8(%rbp)
Ltmp8:
	.loc	2 490 1 prologue_end
	addq	$8, %rsp
	popq	%rbp
	retq
Ltmp9:
Lfunc_end4:
	.cfi_endproc

	.p2align	4, 0x90
__ZN4core3ptr63drop_in_place$LT$$RF$core_graphics_types..geometry..CGPoint$GT$17h50297e9c14537d4cE:
Lfunc_begin5:
	.loc	2 490 0
	.cfi_startproc
	pushq	%rbp
	.cfi_def_cfa_offset 16
	.cfi_offset %rbp, -16
	movq	%rsp, %rbp
	.cfi_def_cfa_register %rbp
	pushq	%rax
	movq	%rdi, -8(%rbp)
Ltmp10:
	.loc	2 490 1 prologue_end
	addq	$8, %rsp
	popq	%rbp
	retq
Ltmp11:
Lfunc_end5:
	.cfi_endproc

	.globl	__ZN74_$LT$core_graphics_types..geometry..CGSize$u20$as$u20$core..fmt..Debug$GT$3fmt17h0238bd83555b01a9E
	.p2align	4, 0x90
__ZN74_$LT$core_graphics_types..geometry..CGSize$u20$as$u20$core..fmt..Debug$GT$3fmt17h0238bd83555b01a9E:
Lfunc_begin6:
	.file	3 "/Users/natalie/.cargo/registry/src/github.com-1ecc6299db9ec823/core-graphics-types-0.1.1" "src/geometry.rs"
	.loc	3 36 0
	.cfi_startproc
	pushq	%rbp
	.cfi_def_cfa_offset 16
	.cfi_offset %rbp, -16
	movq	%rsp, %rbp
	.cfi_def_cfa_register %rbp
	subq	$80, %rsp
	movq	%rsi, -40(%rbp)
	movq	%rdi, %rax
	movq	-40(%rbp), %rdi
	movq	%rax, -16(%rbp)
	movq	%rdi, -8(%rbp)
Ltmp12:
	.loc	3 38 5 prologue_end
	movq	%rax, -32(%rbp)
	.loc	3 39 5
	addq	$8, %rax
	movq	%rax, -24(%rbp)
	.loc	3 36 23
	leaq	l___unnamed_4(%rip), %rsi
	movl	$6, %edx
	leaq	l___unnamed_5(%rip), %rcx
	movl	$5, %r8d
	leaq	-32(%rbp), %r9
	leaq	l___unnamed_1(%rip), %rax
	leaq	l___unnamed_6(%rip), %r11
	leaq	-24(%rbp), %r10
	movq	%rax, (%rsp)
	movq	%r11, 8(%rsp)
	movq	$6, 16(%rsp)
	movq	%r10, 24(%rsp)
	movq	%rax, 32(%rsp)
	callq	__ZN4core3fmt9Formatter26debug_struct_field2_finish17h6d8f05a66ed84642E
	.loc	3 36 28 is_stmt 0
	andb	$1, %al
	movzbl	%al, %eax
	addq	$80, %rsp
	popq	%rbp
	retq
Ltmp13:
Lfunc_end6:
	.cfi_endproc

	.globl	__ZN75_$LT$core_graphics_types..geometry..CGPoint$u20$as$u20$core..fmt..Debug$GT$3fmt17h299694c102edec53E
	.p2align	4, 0x90
__ZN75_$LT$core_graphics_types..geometry..CGPoint$u20$as$u20$core..fmt..Debug$GT$3fmt17h299694c102edec53E:
Lfunc_begin7:
	.loc	3 60 0 is_stmt 1
	.cfi_startproc
	pushq	%rbp
	.cfi_def_cfa_offset 16
	.cfi_offset %rbp, -16
	movq	%rsp, %rbp
	.cfi_def_cfa_register %rbp
	subq	$80, %rsp
	movq	%rsi, -40(%rbp)
	movq	%rdi, %rax
	movq	-40(%rbp), %rdi
	movq	%rax, -16(%rbp)
	movq	%rdi, -8(%rbp)
Ltmp14:
	.loc	3 62 5 prologue_end
	movq	%rax, -32(%rbp)
	.loc	3 63 5
	addq	$8, %rax
	movq	%rax, -24(%rbp)
	.loc	3 60 23
	leaq	l___unnamed_7(%rip), %rsi
	movl	$7, %edx
	leaq	l___unnamed_8(%rip), %rcx
	movl	$1, %r8d
	leaq	-32(%rbp), %r9
	leaq	l___unnamed_1(%rip), %rax
	leaq	l___unnamed_9(%rip), %r11
	leaq	-24(%rbp), %r10
	movq	%rax, (%rsp)
	movq	%r11, 8(%rsp)
	movq	$1, 16(%rsp)
	movq	%r10, 24(%rsp)
	movq	%rax, 32(%rsp)
	callq	__ZN4core3fmt9Formatter26debug_struct_field2_finish17h6d8f05a66ed84642E
	.loc	3 60 28 is_stmt 0
	andb	$1, %al
	movzbl	%al, %eax
	addq	$80, %rsp
	popq	%rbp
	retq
Ltmp15:
Lfunc_end7:
	.cfi_endproc

	.globl	__ZN74_$LT$core_graphics_types..geometry..CGRect$u20$as$u20$core..fmt..Debug$GT$3fmt17h7e55b3feb743e3e8E
	.p2align	4, 0x90
__ZN74_$LT$core_graphics_types..geometry..CGRect$u20$as$u20$core..fmt..Debug$GT$3fmt17h7e55b3feb743e3e8E:
Lfunc_begin8:
	.loc	3 84 0 is_stmt 1
	.cfi_startproc
	pushq	%rbp
	.cfi_def_cfa_offset 16
	.cfi_offset %rbp, -16
	movq	%rsp, %rbp
	.cfi_def_cfa_register %rbp
	pushq	%rbx
	subq	$88, %rsp
	.cfi_offset %rbx, -24
	movq	%rsi, -48(%rbp)
	movq	%rdi, %rax
	movq	-48(%rbp), %rdi
	movq	%rax, -24(%rbp)
	movq	%rdi, -16(%rbp)
Ltmp16:
	.loc	3 86 5 prologue_end
	movq	%rax, -40(%rbp)
	.loc	3 87 5
	addq	$16, %rax
	movq	%rax, -32(%rbp)
	.loc	3 84 23
	leaq	l___unnamed_10(%rip), %rsi
	movl	$6, %r8d
	leaq	l___unnamed_11(%rip), %rcx
	leaq	-40(%rbp), %r9
	leaq	l___unnamed_2(%rip), %rbx
	leaq	L___unnamed_12(%rip), %r11
	leaq	-32(%rbp), %r10
	leaq	l___unnamed_3(%rip), %rax
	movq	%r8, %rdx
	movq	%rbx, (%rsp)
	movq	%r11, 8(%rsp)
	movq	$4, 16(%rsp)
	movq	%r10, 24(%rsp)
	movq	%rax, 32(%rsp)
	callq	__ZN4core3fmt9Formatter26debug_struct_field2_finish17h6d8f05a66ed84642E
	.loc	3 84 28 is_stmt 0
	andb	$1, %al
	movzbl	%al, %eax
	addq	$88, %rsp
	popq	%rbx
	popq	%rbp
	retq
Ltmp17:
Lfunc_end8:
	.cfi_endproc

	.globl	__ZN85_$LT$core_graphics_types..geometry..CGAffineTransform$u20$as$u20$core..fmt..Debug$GT$3fmt17hd79b9d698e607250E
	.p2align	4, 0x90
__ZN85_$LT$core_graphics_types..geometry..CGAffineTransform$u20$as$u20$core..fmt..Debug$GT$3fmt17hd79b9d698e607250E:
Lfunc_begin9:
	.loc	3 144 0 is_stmt 1
	.cfi_startproc
	pushq	%rbp
	.cfi_def_cfa_offset 16
	.cfi_offset %rbp, -16
	movq	%rsp, %rbp
	.cfi_def_cfa_register %rbp
	subq	$208, %rsp
	movq	%rsi, -192(%rbp)
	movq	%rdi, %rax
	movq	-192(%rbp), %rdi
	movq	%rax, -40(%rbp)
	movq	%rdi, -32(%rbp)
Ltmp18:
	.loc	3 144 23 prologue_end
	leaq	l___unnamed_13(%rip), %rcx
	movq	%rcx, -24(%rbp)
Ltmp19:
	.loc	3 146 5
	movq	%rax, -88(%rbp)
	.loc	3 147 5
	movq	%rax, %rcx
	addq	$8, %rcx
	movq	%rcx, -80(%rbp)
	.loc	3 148 5
	movq	%rax, %rcx
	addq	$16, %rcx
	movq	%rcx, -72(%rbp)
	.loc	3 149 5
	movq	%rax, %rcx
	addq	$24, %rcx
	movq	%rcx, -64(%rbp)
	.loc	3 150 5
	movq	%rax, %rcx
	addq	$32, %rcx
	movq	%rcx, -56(%rbp)
	.loc	3 151 5
	addq	$40, %rax
	movq	%rax, -48(%rbp)
	.loc	3 144 23
	leaq	-88(%rbp), %rax
	movq	%rax, -184(%rbp)
	leaq	l___unnamed_1(%rip), %rax
	movq	%rax, -176(%rbp)
	leaq	-80(%rbp), %rax
	movq	%rax, -168(%rbp)
	leaq	l___unnamed_1(%rip), %rax
	movq	%rax, -160(%rbp)
	leaq	-72(%rbp), %rax
	movq	%rax, -152(%rbp)
	leaq	l___unnamed_1(%rip), %rax
	movq	%rax, -144(%rbp)
	leaq	-64(%rbp), %rax
	movq	%rax, -136(%rbp)
	leaq	l___unnamed_1(%rip), %rax
	movq	%rax, -128(%rbp)
	leaq	-56(%rbp), %rax
	movq	%rax, -120(%rbp)
	leaq	l___unnamed_1(%rip), %rax
	movq	%rax, -112(%rbp)
	leaq	-48(%rbp), %rax
	movq	%rax, -104(%rbp)
	leaq	l___unnamed_1(%rip), %rax
	movq	%rax, -96(%rbp)
	leaq	-184(%rbp), %rax
	movq	%rax, -16(%rbp)
	movq	$6, -8(%rbp)
Ltmp20:
	.loc	3 144 23 is_stmt 0
	leaq	l___unnamed_14(%rip), %rsi
	movl	$17, %edx
	leaq	l___unnamed_13(%rip), %rcx
	movl	$6, %r8d
	leaq	-184(%rbp), %r9
	movq	$6, (%rsp)
	callq	__ZN4core3fmt9Formatter26debug_struct_fields_finish17h38686f605fad985dE
Ltmp21:
	.loc	3 144 28
	andb	$1, %al
	movzbl	%al, %eax
	addq	$208, %rsp
	popq	%rbp
	retq
Ltmp22:
Lfunc_end9:
	.cfi_endproc

	.section	__TEXT,__const
l___unnamed_4:
	.ascii	"CGSize"

l___unnamed_5:
	.ascii	"width"

	.section	__DATA,__const
	.p2align	3
l___unnamed_1:
	.quad	__ZN4core3ptr28drop_in_place$LT$$RF$f64$GT$17h8a8a548c7cab0731E
	.asciz	"\b\000\000\000\000\000\000\000\b\000\000\000\000\000\000"
	.quad	__ZN42_$LT$$RF$T$u20$as$u20$core..fmt..Debug$GT$3fmt17h1f77ae4802b4dbcdE

	.section	__TEXT,__const
l___unnamed_6:
	.ascii	"height"

l___unnamed_7:
	.ascii	"CGPoint"

l___unnamed_8:
	.byte	120

l___unnamed_9:
	.byte	121

l___unnamed_10:
	.ascii	"CGRect"

l___unnamed_11:
	.ascii	"origin"

	.section	__DATA,__const
	.p2align	3
l___unnamed_2:
	.quad	__ZN4core3ptr63drop_in_place$LT$$RF$core_graphics_types..geometry..CGPoint$GT$17h50297e9c14537d4cE
	.asciz	"\b\000\000\000\000\000\000\000\b\000\000\000\000\000\000"
	.quad	__ZN42_$LT$$RF$T$u20$as$u20$core..fmt..Debug$GT$3fmt17h93077bf04ceded16E

	.section	__TEXT,__literal4,4byte_literals
L___unnamed_12:
	.ascii	"size"

	.section	__DATA,__const
	.p2align	3
l___unnamed_3:
	.quad	__ZN4core3ptr62drop_in_place$LT$$RF$core_graphics_types..geometry..CGSize$GT$17h8331a4577b054468E
	.asciz	"\b\000\000\000\000\000\000\000\b\000\000\000\000\000\000"
	.quad	__ZN42_$LT$$RF$T$u20$as$u20$core..fmt..Debug$GT$3fmt17h96446cfc07fcf9e4E

	.section	__TEXT,__const
l___unnamed_15:
	.byte	97

l___unnamed_16:
	.byte	98

l___unnamed_17:
	.byte	99

l___unnamed_18:
	.byte	100

l___unnamed_19:
	.ascii	"tx"

l___unnamed_20:
	.ascii	"ty"

	.section	__DATA,__const
	.p2align	3
l___unnamed_13:
	.quad	l___unnamed_15
	.asciz	"\001\000\000\000\000\000\000"
	.quad	l___unnamed_16
	.asciz	"\001\000\000\000\000\000\000"
	.quad	l___unnamed_17
	.asciz	"\001\000\000\000\000\000\000"
	.quad	l___unnamed_18
	.asciz	"\001\000\000\000\000\000\000"
	.quad	l___unnamed_19
	.asciz	"\002\000\000\000\000\000\000"
	.quad	l___unnamed_20
	.asciz	"\002\000\000\000\000\000\000"

	.section	__TEXT,__const
l___unnamed_14:
	.ascii	"CGAffineTransform"

	.section	__DATA,__const
Lsec_end0:
	.section	__TEXT,__text,regular,pure_instructions
Lsec_end1: