	.section	__TEXT,__text,regular,pure_instructions
	.macosx_version_min 10, 7
	.file	1 "/Users/natalie/.cargo/registry/src/github.com-1ecc6299db9ec823/crc32fast-1.3.2" "src/table.rs"
	.globl	__ZN106_$LT$core..ops..range..Range$LT$usize$GT$$u20$as$u20$core..slice..index..SliceIndex$LT$$u5b$T$u5d$$GT$$GT$13get_unchecked17he02880d4d7eadec9E
	.p2align	4, 0x90
__ZN106_$LT$core..ops..range..Range$LT$usize$GT$$u20$as$u20$core..slice..index..SliceIndex$LT$$u5b$T$u5d$$GT$$GT$13get_unchecked17he02880d4d7eadec9E:
Lfunc_begin0:
	.file	2 "/rustc/2c8cc343237b8f7d5a3c3703e3a87f2eb2c54a74/library/core/src/slice" "index.rs"
	.loc	2 373 0
	.cfi_startproc
	pushq	%rbp
	.cfi_def_cfa_offset 16
	.cfi_offset %rbp, -16
	movq	%rsp, %rbp
	.cfi_def_cfa_register %rbp
	subq	$160, %rsp
	movq	%rdi, -128(%rbp)
	movq	%rsi, -120(%rbp)
	movq	%rdx, -112(%rbp)
	movq	%rcx, -104(%rbp)
Ltmp0:
	.loc	2 386 39 prologue_end
	movq	%rdx, -96(%rbp)
	movq	%rcx, -88(%rbp)
Ltmp1:
	.file	3 "/rustc/2c8cc343237b8f7d5a3c3703e3a87f2eb2c54a74/library/core/src/ptr" "const_ptr.rs"
	.loc	3 1650 9
	movq	%rdx, -80(%rbp)
Ltmp2:
	.loc	2 386 58
	movq	%rdi, -72(%rbp)
Ltmp3:
	.loc	3 932 18
	movq	%rdx, -64(%rbp)
	.loc	3 932 30 is_stmt 0
	movq	%rdi, -56(%rbp)
Ltmp4:
	.loc	3 473 18 is_stmt 1
	addq	%rdi, %rdx
	movq	%rdx, -48(%rbp)
	movq	-48(%rbp), %rax
	movq	%rax, -40(%rbp)
Ltmp5:
	.loc	2 386 71
	subq	%rdi, %rsi
	movq	%rsi, -32(%rbp)
Ltmp6:
	.file	4 "/rustc/2c8cc343237b8f7d5a3c3703e3a87f2eb2c54a74/library/core/src/ptr" "mod.rs"
	.loc	4 734 20
	movq	%rax, -24(%rbp)
Ltmp7:
	.loc	3 61 9
	movq	%rax, -16(%rbp)
Ltmp8:
	.loc	4 734 33
	movq	%rsi, -8(%rbp)
Ltmp9:
	.file	5 "/rustc/2c8cc343237b8f7d5a3c3703e3a87f2eb2c54a74/library/core/src/ptr" "metadata.rs"
	.loc	5 118 36
	movq	%rax, -144(%rbp)
	movq	%rsi, -136(%rbp)
	.loc	5 118 14 is_stmt 0
	movq	-144(%rbp), %rcx
	movq	-136(%rbp), %rax
	movq	%rcx, -160(%rbp)
	movq	%rax, -152(%rbp)
	movq	-160(%rbp), %rax
	movq	-152(%rbp), %rdx
Ltmp10:
	.loc	2 388 6 is_stmt 1
	addq	$160, %rsp
	popq	%rbp
	retq
Ltmp11:
Lfunc_end0:
	.cfi_endproc

	.p2align	4, 0x90
__ZN10std_detect6detect4arch3x8621__is_feature_detected6sse4_117hbb659153b2bb004eE:
Lfunc_begin1:
	.file	6 "/rustc/2c8cc343237b8f7d5a3c3703e3a87f2eb2c54a74/library/stdarch/crates/std_detect/src/detect" "macros.rs"
	.loc	6 160 0
	.cfi_startproc
	pushq	%rbp
	.cfi_def_cfa_offset 16
	.cfi_offset %rbp, -16
	movq	%rsp, %rbp
	.cfi_def_cfa_register %rbp
Ltmp12:
	.file	7 "/rustc/2c8cc343237b8f7d5a3c3703e3a87f2eb2c54a74/library/stdarch/crates/std_detect/src/detect" "mod.rs"
	.loc	7 72 5 prologue_end
	movl	$10, %edi
	callq	__ZN10std_detect6detect5cache4test17hebac06ccad1121baE
Ltmp13:
	.loc	6 162 18
	andb	$1, %al
	movzbl	%al, %eax
	popq	%rbp
	retq
Ltmp14:
Lfunc_end1:
	.cfi_endproc

	.p2align	4, 0x90
__ZN10std_detect6detect4arch3x8621__is_feature_detected9pclmulqdq17h279d801b59d2be4cE:
Lfunc_begin2:
	.loc	6 160 0
	.cfi_startproc
	pushq	%rbp
	.cfi_def_cfa_offset 16
	.cfi_offset %rbp, -16
	movq	%rsp, %rbp
	.cfi_def_cfa_register %rbp
Ltmp15:
	.loc	7 72 5 prologue_end
	movl	$1, %edi
	callq	__ZN10std_detect6detect5cache4test17hebac06ccad1121baE
Ltmp16:
	.loc	6 162 18
	andb	$1, %al
	movzbl	%al, %eax
	popq	%rbp
	retq
Ltmp17:
Lfunc_end2:
	.cfi_endproc

	.p2align	4, 0x90
__ZN10std_detect6detect5cache4test17hebac06ccad1121baE:
Lfunc_begin3:
	.file	8 "/rustc/2c8cc343237b8f7d5a3c3703e3a87f2eb2c54a74/library/stdarch/crates/std_detect/src/detect" "cache.rs"
	.loc	8 185 0
	.cfi_startproc
	pushq	%rbp
	.cfi_def_cfa_offset 16
	.cfi_offset %rbp, -16
	movq	%rsp, %rbp
	.cfi_def_cfa_register %rbp
	subq	$80, %rsp
	movl	%edi, -64(%rbp)
Ltmp18:
	.loc	8 186 34 prologue_end
	cmpl	$63, -64(%rbp)
	jb	LBB3_2
	.loc	8 189 10
	movl	-64(%rbp), %eax
	subl	$63, %eax
	.loc	8 189 9 is_stmt 0
	movl	%eax, -56(%rbp)
	movq	$1, -48(%rbp)
	.loc	8 186 31 is_stmt 1
	jmp	LBB3_3
LBB3_2:
	.loc	8 187 10
	movl	-64(%rbp), %eax
	.loc	8 187 9 is_stmt 0
	movl	%eax, -56(%rbp)
	movq	$0, -48(%rbp)
LBB3_3:
	.loc	8 186 10 is_stmt 1
	movl	-56(%rbp), %eax
	movl	%eax, -76(%rbp)
	movl	%eax, -20(%rbp)
	.loc	8 186 24 is_stmt 0
	movq	-48(%rbp), %rax
	movq	%rax, -72(%rbp)
	movq	%rax, -16(%rbp)
Ltmp19:
	.loc	8 191 5 is_stmt 1
	cmpq	$2, %rax
	setb	%al
	testb	$1, %al
	jne	LBB3_4
	jmp	LBB3_5
LBB3_4:
	.loc	8 0 5 is_stmt 0
	movl	-76(%rbp), %esi
	movq	-72(%rbp), %rax
	.loc	8 191 5
	movq	__ZN10std_detect6detect5cache5CACHE17hcb98cfd93341c8d6E@GOTPCREL(%rip), %rdi
	shlq	$3, %rax
	addq	%rax, %rdi
	callq	__ZN10std_detect6detect5cache5Cache4test17h107787ee725bd2a6E
	movb	%al, -33(%rbp)
	.loc	8 193 25 is_stmt 1
	leaq	-64(%rbp), %rax
	movq	%rax, -32(%rbp)
Ltmp20:
	.file	9 "/rustc/2c8cc343237b8f7d5a3c3703e3a87f2eb2c54a74/library/core/src" "option.rs"
	.loc	9 871 15
	movl	$1, %eax
	xorl	%ecx, %ecx
	cmpb	$2, -33(%rbp)
	cmoveq	%rcx, %rax
	.loc	9 871 9 is_stmt 0
	cmpq	$0, %rax
	je	LBB3_6
	jmp	LBB3_7
Ltmp21:
LBB3_5:
	.loc	9 0 9
	movq	-72(%rbp), %rdi
	.loc	8 191 5 is_stmt 1
	leaq	l___unnamed_1(%rip), %rdx
	movl	$2, %esi
	callq	__ZN4core9panicking18panic_bounds_check17hacb8a94866cda541E
LBB3_6:
Ltmp22:
	.loc	9 873 21
	movq	-32(%rbp), %rdi
	callq	__ZN10std_detect6detect5cache4test28_$u7b$$u7b$closure$u7d$$u7d$17hacfa27032596b2b3E
	andb	$1, %al
	movb	%al, -57(%rbp)
	.loc	9 873 23 is_stmt 0
	jmp	LBB3_8
LBB3_7:
	.loc	9 872 18 is_stmt 1
	movb	-33(%rbp), %al
	movb	%al, %cl
	andb	$1, %cl
	movb	%cl, -1(%rbp)
Ltmp23:
	.loc	9 872 24 is_stmt 0
	andb	$1, %al
	movb	%al, -57(%rbp)
Ltmp24:
LBB3_8:
	.loc	8 194 2 is_stmt 1
	movb	-57(%rbp), %al
	andb	$1, %al
	movzbl	%al, %eax
	addq	$80, %rsp
	popq	%rbp
	retq
Ltmp25:
Lfunc_end3:
	.cfi_endproc

	.globl	__ZN10std_detect6detect5cache4test28_$u7b$$u7b$closure$u7d$$u7d$17hacfa27032596b2b3E
	.p2align	4, 0x90
__ZN10std_detect6detect5cache4test28_$u7b$$u7b$closure$u7d$$u7d$17hacfa27032596b2b3E:
Lfunc_begin4:
	.loc	8 193 0
	.cfi_startproc
	pushq	%rbp
	.cfi_def_cfa_offset 16
	.cfi_offset %rbp, -16
	movq	%rsp, %rbp
	.cfi_def_cfa_register %rbp
	subq	$48, %rsp
	movq	%rdi, -40(%rbp)
Ltmp26:
	.loc	8 193 28 prologue_end
	callq	__ZN10std_detect6detect5cache21detect_and_initialize17h34e30b6315ee6942E
	movq	%rax, -32(%rbp)
	.loc	8 193 57 is_stmt 0
	movq	-40(%rbp), %rcx
	movl	(%rcx), %ecx
	movl	%ecx, -20(%rbp)
Ltmp27:
	.loc	8 52 18 is_stmt 1
	movq	%rax, -16(%rbp)
	.loc	8 52 26 is_stmt 0
	movl	%ecx, -4(%rbp)
Ltmp28:
	.loc	8 19 9 is_stmt 1
	movl	%ecx, %ecx
	andq	$63, %rcx
	movl	$1, %edx
	shlq	%cl, %rdx
	movq	%rdx, %rcx
	.loc	8 19 5 is_stmt 0
	andq	%rcx, %rax
	cmpq	$0, %rax
	setne	%al
Ltmp29:
	.loc	8 193 61 is_stmt 1
	andb	$1, %al
	movzbl	%al, %eax
	addq	$48, %rsp
	popq	%rbp
	retq
Ltmp30:
Lfunc_end4:
	.cfi_endproc

	.p2align	4, 0x90
__ZN10std_detect6detect5cache5Cache4test17h107787ee725bd2a6E:
Lfunc_begin5:
	.loc	8 105 0
	.cfi_startproc
	pushq	%rbp
	.cfi_def_cfa_offset 16
	.cfi_offset %rbp, -16
	movq	%rsp, %rbp
	.cfi_def_cfa_register %rbp
	subq	$80, %rsp
	movl	%esi, -76(%rbp)
	movq	%rdi, -56(%rbp)
	movl	%esi, -44(%rbp)
Ltmp31:
	.loc	8 106 22 prologue_end
	movq	%rdi, -40(%rbp)
Ltmp32:
	.file	10 "/rustc/2c8cc343237b8f7d5a3c3703e3a87f2eb2c54a74/library/core/src/sync" "atomic.rs"
	.loc	10 2127 38
	movq	%rdi, -32(%rbp)
	.loc	10 2127 26 is_stmt 0
	xorl	%esi, %esi
	callq	__ZN4core4sync6atomic11atomic_load17hb072e90d72164267E
	movq	%rax, -72(%rbp)
	movq	%rax, -24(%rbp)
Ltmp33:
	.loc	8 107 12 is_stmt 1
	cmpq	$0, %rax
	jne	LBB5_2
	.loc	8 108 13
	movb	$2, -57(%rbp)
	.loc	8 107 9
	jmp	LBB5_3
LBB5_2:
	.loc	8 0 9 is_stmt 0
	movq	-72(%rbp), %rax
	movl	-76(%rbp), %ecx
	.loc	8 110 27 is_stmt 1
	movq	%rax, -16(%rbp)
	.loc	8 110 42 is_stmt 0
	movl	%ecx, -4(%rbp)
Ltmp34:
	.loc	8 19 9 is_stmt 1
	movl	%ecx, %ecx
	andq	$63, %rcx
	movl	$1, %edx
	shlq	%cl, %rdx
	movq	%rdx, %rcx
	.loc	8 19 5 is_stmt 0
	andq	%rcx, %rax
	cmpq	$0, %rax
	setne	%al
Ltmp35:
	.loc	8 110 13 is_stmt 1
	andb	$1, %al
	movb	%al, -57(%rbp)
Ltmp36:
LBB5_3:
	.loc	8 112 6
	movb	-57(%rbp), %al
	addq	$80, %rsp
	popq	%rbp
	retq
Ltmp37:
Lfunc_end5:
	.cfi_endproc

	.globl	__ZN110_$LT$core..ops..range..RangeFrom$LT$usize$GT$$u20$as$u20$core..slice..index..SliceIndex$LT$$u5b$T$u5d$$GT$$GT$5index17hd53d4cf4efc716c4E
	.p2align	4, 0x90
__ZN110_$LT$core..ops..range..RangeFrom$LT$usize$GT$$u20$as$u20$core..slice..index..SliceIndex$LT$$u5b$T$u5d$$GT$$GT$5index17hd53d4cf4efc716c4E:
Lfunc_begin6:
	.loc	2 493 0
	.cfi_startproc
	pushq	%rbp
	.cfi_def_cfa_offset 16
	.cfi_offset %rbp, -16
	movq	%rsp, %rbp
	.cfi_def_cfa_register %rbp
	subq	$144, %rsp
	movq	%rdi, -144(%rbp)
	movq	%rsi, -136(%rbp)
	movq	%rdx, -128(%rbp)
	movq	%rcx, -120(%rbp)
	movq	%rdi, -80(%rbp)
	movq	%rsi, -72(%rbp)
	movq	%rdx, -64(%rbp)
Ltmp38:
	.loc	2 494 12 prologue_end
	cmpq	%rdx, %rdi
	ja	LBB6_2
	.loc	2 0 12 is_stmt 0
	movq	-128(%rbp), %rcx
	movq	-136(%rbp), %rdx
	movq	-144(%rbp), %rsi
	.loc	2 498 20 is_stmt 1
	movq	%rsi, -56(%rbp)
	.loc	2 498 39 is_stmt 0
	movq	%rdx, -48(%rbp)
	movq	%rcx, -40(%rbp)
Ltmp39:
	.loc	2 483 31 is_stmt 1
	movq	%rdx, -32(%rbp)
	movq	%rcx, -24(%rbp)
Ltmp40:
	.loc	3 1630 18
	movq	%rdx, -16(%rbp)
	movq	%rcx, -8(%rbp)
Ltmp41:
	.loc	5 98 14
	movq	%rdx, -96(%rbp)
	movq	%rcx, -88(%rbp)
	movq	-88(%rbp), %rax
Ltmp42:
	.loc	2 483 18
	movq	%rsi, -112(%rbp)
	movq	%rax, -104(%rbp)
	movq	-112(%rbp), %rdi
	movq	-104(%rbp), %rsi
	callq	__ZN106_$LT$core..ops..range..Range$LT$usize$GT$$u20$as$u20$core..slice..index..SliceIndex$LT$$u5b$T$u5d$$GT$$GT$13get_unchecked17he02880d4d7eadec9E
Ltmp43:
	.loc	2 499 6
	addq	$144, %rsp
	popq	%rbp
	retq
LBB6_2:
	.loc	2 0 6 is_stmt 0
	movq	-120(%rbp), %rdx
	movq	-128(%rbp), %rsi
	movq	-144(%rbp), %rdi
	.loc	2 495 13 is_stmt 1
	callq	__ZN4core5slice5index26slice_start_index_len_fail17h9d301bb51ec3e351E
Ltmp44:
Lfunc_end6:
	.cfi_endproc

	.p2align	4, 0x90
__ZN49_$LT$usize$u20$as$u20$core..iter..range..Step$GT$17forward_unchecked17h8f0649c36fa0ad51E:
Lfunc_begin7:
	.file	11 "/rustc/2c8cc343237b8f7d5a3c3703e3a87f2eb2c54a74/library/core/src/iter" "range.rs"
	.loc	11 189 0
	.cfi_startproc
	pushq	%rbp
	.cfi_def_cfa_offset 16
	.cfi_offset %rbp, -16
	movq	%rsp, %rbp
	.cfi_def_cfa_register %rbp
	subq	$40, %rsp
	movq	%rdi, -40(%rbp)
	movq	%rsi, -32(%rbp)
Ltmp45:
	.loc	11 191 22 prologue_end
	movq	%rdi, -24(%rbp)
	.loc	11 191 42 is_stmt 0
	movq	%rsi, -16(%rbp)
Ltmp46:
	.file	12 "/rustc/2c8cc343237b8f7d5a3c3703e3a87f2eb2c54a74/library/core/src/num" "uint_macros.rs"
	.loc	12 470 22 is_stmt 1
	addq	%rsi, %rdi
	movq	%rdi, -8(%rbp)
	movq	-8(%rbp), %rax
Ltmp47:
	.loc	11 192 10
	addq	$40, %rsp
	popq	%rbp
	retq
Ltmp48:
Lfunc_end7:
	.cfi_endproc

	.p2align	4, 0x90
__ZN4core3cmp5impls57_$LT$impl$u20$core..cmp..PartialOrd$u20$for$u20$usize$GT$2lt17he02ffb5bf3f32894E:
Lfunc_begin8:
	.file	13 "/rustc/2c8cc343237b8f7d5a3c3703e3a87f2eb2c54a74/library/core/src" "cmp.rs"
	.loc	13 1441 0
	.cfi_startproc
	pushq	%rbp
	.cfi_def_cfa_offset 16
	.cfi_offset %rbp, -16
	movq	%rsp, %rbp
	.cfi_def_cfa_register %rbp
	subq	$16, %rsp
	movq	%rdi, -16(%rbp)
	movq	%rsi, -8(%rbp)
Ltmp49:
	.loc	13 1441 52 prologue_end
	movq	(%rdi), %rax
	cmpq	(%rsi), %rax
	setb	%al
	.loc	13 1441 72 is_stmt 0
	andb	$1, %al
	movzbl	%al, %eax
	addq	$16, %rsp
	popq	%rbp
	retq
Ltmp50:
Lfunc_end8:
	.cfi_endproc

	.p2align	4, 0x90
__ZN4core3fmt9Arguments6new_v117h0496b4490d64d437E:
Lfunc_begin9:
	.file	14 "/rustc/2c8cc343237b8f7d5a3c3703e3a87f2eb2c54a74/library/core/src/fmt" "mod.rs"
	.loc	14 399 0 is_stmt 1
	.cfi_startproc
	pushq	%rbp
	.cfi_def_cfa_offset 16
	.cfi_offset %rbp, -16
	movq	%rsp, %rbp
	.cfi_def_cfa_register %rbp
	subq	$160, %rsp
	movq	%r8, -152(%rbp)
	movq	%rcx, -144(%rbp)
	movq	%rdx, -136(%rbp)
	movq	%rsi, -128(%rbp)
	movq	%rdi, -120(%rbp)
	movq	%rdi, -112(%rbp)
	movq	%rsi, -32(%rbp)
	movq	%rdx, -24(%rbp)
	movq	%rcx, -16(%rbp)
	movq	%r8, -8(%rbp)
Ltmp51:
	.loc	14 400 12 prologue_end
	cmpq	%r8, %rdx
	jb	LBB9_2
	.loc	14 0 12 is_stmt 0
	movq	-136(%rbp), %rax
	movq	-152(%rbp), %rcx
	.loc	14 400 56
	addq	$1, %rcx
	.loc	14 400 41
	cmpq	%rcx, %rax
	seta	%al
	.loc	14 400 12
	andb	$1, %al
	movb	%al, -97(%rbp)
	jmp	LBB9_3
LBB9_2:
	movb	$1, -97(%rbp)
LBB9_3:
	testb	$1, -97(%rbp)
	jne	LBB9_5
	.loc	14 0 12
	movq	-112(%rbp), %rax
	movq	-120(%rbp), %rcx
	movq	-152(%rbp), %rdx
	movq	-144(%rbp), %rsi
	movq	-136(%rbp), %rdi
	movq	-128(%rbp), %r8
	.loc	14 403 34 is_stmt 1
	movq	$0, -48(%rbp)
	.loc	14 403 9 is_stmt 0
	movq	%r8, 16(%rcx)
	movq	%rdi, 24(%rcx)
	movq	-48(%rbp), %r8
	movq	-40(%rbp), %rdi
	movq	%r8, (%rcx)
	movq	%rdi, 8(%rcx)
	movq	%rsi, 32(%rcx)
	movq	%rdx, 40(%rcx)
	.loc	14 404 6 is_stmt 1
	addq	$160, %rsp
	popq	%rbp
	retq
LBB9_5:
	.loc	14 401 13
	leaq	l___unnamed_2(%rip), %rsi
	leaq	l___unnamed_3(%rip), %rcx
	xorl	%eax, %eax
	movl	%eax, %r8d
	leaq	-96(%rbp), %rdi
	movq	%rdi, -160(%rbp)
	movl	$1, %edx
	callq	__ZN4core3fmt9Arguments6new_v117h0496b4490d64d437E
	movq	-160(%rbp), %rdi
	leaq	l___unnamed_4(%rip), %rsi
	callq	__ZN4core9panicking9panic_fmt17h9b5d807e24bcaaedE
Ltmp52:
Lfunc_end9:
	.cfi_endproc

	.globl	__ZN4core3mem4drop17h0b24bd9f2198f356E
	.p2align	4, 0x90
__ZN4core3mem4drop17h0b24bd9f2198f356E:
Lfunc_begin10:
	.file	15 "/rustc/2c8cc343237b8f7d5a3c3703e3a87f2eb2c54a74/library/core/src/mem" "mod.rs"
	.loc	15 980 0
	.cfi_startproc
	pushq	%rbp
	.cfi_def_cfa_offset 16
	.cfi_offset %rbp, -16
	movq	%rsp, %rbp
	.cfi_def_cfa_register %rbp
	pushq	%rax
	movq	%rdi, -8(%rbp)
Ltmp53:
	.loc	15 980 25 prologue_end
	addq	$8, %rsp
	popq	%rbp
	retq
Ltmp54:
Lfunc_end10:
	.cfi_endproc

	.globl	__ZN4core3mem7replace17heb16360956a227dfE
	.p2align	4, 0x90
__ZN4core3mem7replace17heb16360956a227dfE:
Lfunc_begin11:
	.loc	15 905 0
	.cfi_startproc
	pushq	%rbp
	.cfi_def_cfa_offset 16
	.cfi_offset %rbp, -16
	movq	%rsp, %rbp
	.cfi_def_cfa_register %rbp
	subq	$120, %rsp
	movq	%rdi, -120(%rbp)
	movq	%rsi, -112(%rbp)
	movq	%rdi, -80(%rbp)
	movq	%rsi, -72(%rbp)
Ltmp55:
	.loc	15 910 32 prologue_end
	movq	%rdi, -64(%rbp)
Ltmp56:
	.loc	4 1157 34
	leaq	-88(%rbp), %rax
	movq	%rax, -56(%rbp)
	.loc	4 1157 9 is_stmt 0
	movq	(%rdi), %rax
	movq	%rax, -88(%rbp)
	.loc	4 1158 9 is_stmt 1
	movq	-88(%rbp), %rax
	movq	%rax, -104(%rbp)
	movq	%rax, -48(%rbp)
	.loc	4 0 9 is_stmt 0
	movq	-104(%rbp), %rax
	movq	-120(%rbp), %rcx
	movq	-112(%rbp), %rdx
Ltmp57:
	.file	16 "/rustc/2c8cc343237b8f7d5a3c3703e3a87f2eb2c54a74/library/core/src/mem" "maybe_uninit.rs"
	.loc	16 627 38 is_stmt 1
	movq	%rax, -24(%rbp)
Ltmp58:
	.file	17 "/rustc/2c8cc343237b8f7d5a3c3703e3a87f2eb2c54a74/library/core/src/mem" "manually_drop.rs"
	.loc	17 89 9
	movq	%rax, -16(%rbp)
Ltmp59:
	.loc	15 911 20
	movq	%rcx, -8(%rbp)
	.loc	15 911 26 is_stmt 0
	movq	%rdx, -96(%rbp)
Ltmp60:
	.loc	4 1354 9 is_stmt 1
	movq	-96(%rbp), %rdx
	movq	%rdx, (%rcx)
Ltmp61:
	.loc	15 914 2
	addq	$120, %rsp
	popq	%rbp
	retq
Ltmp62:
Lfunc_end11:
	.cfi_endproc

	.globl	__ZN4core4iter5range101_$LT$impl$u20$core..iter..traits..iterator..Iterator$u20$for$u20$core..ops..range..Range$LT$A$GT$$GT$4next17hf4647cc5a90dc494E
	.p2align	4, 0x90
__ZN4core4iter5range101_$LT$impl$u20$core..iter..traits..iterator..Iterator$u20$for$u20$core..ops..range..Range$LT$A$GT$$GT$4next17hf4647cc5a90dc494E:
Lfunc_begin12:
	.loc	11 710 0
	.cfi_startproc
	pushq	%rbp
	.cfi_def_cfa_offset 16
	.cfi_offset %rbp, -16
	movq	%rsp, %rbp
	.cfi_def_cfa_register %rbp
	subq	$16, %rsp
	movq	%rdi, -8(%rbp)
Ltmp63:
	.loc	11 711 9 prologue_end
	callq	__ZN89_$LT$core..ops..range..Range$LT$T$GT$$u20$as$u20$core..iter..range..RangeIteratorImpl$GT$9spec_next17ha5b3399147166f99E
	.loc	11 712 6
	addq	$16, %rsp
	popq	%rbp
	retq
Ltmp64:
Lfunc_end12:
	.cfi_endproc

	.globl	__ZN4core4sync6atomic11atomic_load17hb072e90d72164267E
	.p2align	4, 0x90
__ZN4core4sync6atomic11atomic_load17hb072e90d72164267E:
Lfunc_begin13:
	.loc	10 3019 0
	.cfi_startproc
	pushq	%rbp
	.cfi_def_cfa_offset 16
	.cfi_offset %rbp, -16
	movq	%rsp, %rbp
	.cfi_def_cfa_register %rbp
	subq	$160, %rsp
	movq	%rdi, -136(%rbp)
	movb	%sil, %al
	movb	%al, -113(%rbp)
	movq	%rdi, -8(%rbp)
Ltmp65:
	.loc	10 3022 15 prologue_end
	movzbl	-113(%rbp), %eax
	movq	%rax, -128(%rbp)
	.loc	10 0 15 is_stmt 0
	movq	-128(%rbp), %rax
	leaq	LJTI13_0(%rip), %rcx
	movslq	(%rcx,%rax,4), %rax
	addq	%rcx, %rax
	jmpq	*%rax
	.loc	10 3022 15
	ud2
LBB13_2:
	.loc	10 0 15
	movq	-136(%rbp), %rax
	.loc	10 3023 24 is_stmt 1
	movq	(%rax), %rax
	movq	%rax, -112(%rbp)
	.loc	10 3023 59 is_stmt 0
	jmp	LBB13_7
LBB13_3:
	.loc	10 3026 24 is_stmt 1
	leaq	l___unnamed_5(%rip), %rsi
	leaq	l___unnamed_3(%rip), %rcx
	xorl	%eax, %eax
	movl	%eax, %r8d
	leaq	-104(%rbp), %rdi
	movq	%rdi, -144(%rbp)
	movl	$1, %edx
	callq	__ZN4core3fmt9Arguments6new_v117h0496b4490d64d437E
	movq	-144(%rbp), %rdi
	leaq	l___unnamed_6(%rip), %rsi
	callq	__ZN4core9panicking9panic_fmt17h9b5d807e24bcaaedE
LBB13_4:
	.loc	10 0 24 is_stmt 0
	movq	-136(%rbp), %rax
	.loc	10 3024 24 is_stmt 1
	movq	(%rax), %rax
	movq	%rax, -112(%rbp)
	.loc	10 3024 59 is_stmt 0
	jmp	LBB13_7
LBB13_5:
	.loc	10 3027 23 is_stmt 1
	leaq	l___unnamed_7(%rip), %rsi
	leaq	l___unnamed_3(%rip), %rcx
	xorl	%eax, %eax
	movl	%eax, %r8d
	leaq	-56(%rbp), %rdi
	movq	%rdi, -152(%rbp)
	movl	$1, %edx
	callq	__ZN4core3fmt9Arguments6new_v117h0496b4490d64d437E
	movq	-152(%rbp), %rdi
	leaq	l___unnamed_8(%rip), %rsi
	callq	__ZN4core9panicking9panic_fmt17h9b5d807e24bcaaedE
LBB13_6:
	.loc	10 0 23 is_stmt 0
	movq	-136(%rbp), %rax
	.loc	10 3025 23 is_stmt 1
	movq	(%rax), %rax
	movq	%rax, -112(%rbp)
LBB13_7:
	.loc	10 3030 2
	movq	-112(%rbp), %rax
	addq	$160, %rsp
	popq	%rbp
	retq
Ltmp66:
Lfunc_end13:
	.cfi_endproc
	.p2align	2, 0x90
	.data_region jt32
.set L13_0_set_2, LBB13_2-LJTI13_0
.set L13_0_set_3, LBB13_3-LJTI13_0
.set L13_0_set_4, LBB13_4-LJTI13_0
.set L13_0_set_5, LBB13_5-LJTI13_0
.set L13_0_set_6, LBB13_6-LJTI13_0
LJTI13_0:
	.long	L13_0_set_2
	.long	L13_0_set_3
	.long	L13_0_set_4
	.long	L13_0_set_5
	.long	L13_0_set_6
	.end_data_region

	.globl	__ZN4core5slice29_$LT$impl$u20$$u5b$T$u5d$$GT$4iter17h58c0bdc39c436fc8E
	.p2align	4, 0x90
__ZN4core5slice29_$LT$impl$u20$$u5b$T$u5d$$GT$4iter17h58c0bdc39c436fc8E:
Lfunc_begin14:
	.file	18 "/rustc/2c8cc343237b8f7d5a3c3703e3a87f2eb2c54a74/library/core/src/slice" "mod.rs"
	.loc	18 741 0
	.cfi_startproc
	pushq	%rbp
	.cfi_def_cfa_offset 16
	.cfi_offset %rbp, -16
	movq	%rsp, %rbp
	.cfi_def_cfa_register %rbp
	subq	$16, %rsp
	movq	%rdi, -16(%rbp)
	movq	%rsi, -8(%rbp)
Ltmp67:
	.loc	18 742 9 prologue_end
	callq	__ZN4core5slice4iter13Iter$LT$T$GT$3new17hc24c8c31b63a12a1E
	.loc	18 743 6
	addq	$16, %rsp
	popq	%rbp
	retq
Ltmp68:
Lfunc_end14:
	.cfi_endproc

	.globl	__ZN4core5slice29_$LT$impl$u20$$u5b$T$u5d$$GT$8is_empty17h4b58eaf5a8c0c673E
	.p2align	4, 0x90
__ZN4core5slice29_$LT$impl$u20$$u5b$T$u5d$$GT$8is_empty17h4b58eaf5a8c0c673E:
Lfunc_begin15:
	.loc	18 152 0
	.cfi_startproc
	pushq	%rbp
	.cfi_def_cfa_offset 16
	.cfi_offset %rbp, -16
	movq	%rsp, %rbp
	.cfi_def_cfa_register %rbp
	subq	$16, %rsp
	movq	%rdi, -16(%rbp)
	movq	%rsi, -8(%rbp)
Ltmp69:
	.loc	18 153 9 prologue_end
	cmpq	$0, %rsi
	sete	%al
	.loc	18 154 6
	andb	$1, %al
	movzbl	%al, %eax
	addq	$16, %rsp
	popq	%rbp
	retq
Ltmp70:
Lfunc_end15:
	.cfi_endproc

	.globl	__ZN4core5slice4iter13Iter$LT$T$GT$3new17hc24c8c31b63a12a1E
	.p2align	4, 0x90
__ZN4core5slice4iter13Iter$LT$T$GT$3new17hc24c8c31b63a12a1E:
Lfunc_begin16:
	.file	19 "/rustc/2c8cc343237b8f7d5a3c3703e3a87f2eb2c54a74/library/core/src/slice" "iter.rs"
	.loc	19 82 0
	.cfi_startproc
	pushq	%rbp
	.cfi_def_cfa_offset 16
	.cfi_offset %rbp, -16
	movq	%rsp, %rbp
	.cfi_def_cfa_register %rbp
	subq	$280, %rsp
	movq	%rdi, -280(%rbp)
	movq	%rsi, -272(%rbp)
	movq	%rdi, -208(%rbp)
	movq	%rsi, -200(%rbp)
Ltmp71:
	.loc	19 83 19 prologue_end
	movq	%rdi, -184(%rbp)
	movq	%rsi, -176(%rbp)
Ltmp72:
	.loc	18 477 9
	movq	%rdi, -168(%rbp)
Ltmp73:
	.loc	19 86 21
	movq	%rdi, -160(%rbp)
Ltmp74:
	.loc	3 53 36
	movq	%rdi, -232(%rbp)
	.loc	3 53 18 is_stmt 0
	movq	-232(%rbp), %rax
	movq	%rax, -152(%rbp)
Ltmp75:
	.loc	3 39 13 is_stmt 1
	movq	%rax, -144(%rbp)
Ltmp76:
	.loc	3 209 33
	movq	%rax, -136(%rbp)
	.loc	3 209 18 is_stmt 0
	movq	%rax, -128(%rbp)
Ltmp77:
	.loc	19 89 20 is_stmt 1
	xorl	%eax, %eax
	testb	$1, %al
	jne	LBB16_2
	.loc	19 0 20 is_stmt 0
	movq	-272(%rbp), %rcx
	movq	-280(%rbp), %rax
	.loc	19 89 76
	movq	%rax, -40(%rbp)
	.loc	19 89 84
	movq	%rcx, -32(%rbp)
Ltmp78:
	.loc	3 932 18 is_stmt 1
	movq	%rax, -24(%rbp)
	.loc	3 932 30 is_stmt 0
	movq	%rcx, -16(%rbp)
Ltmp79:
	.loc	3 473 18 is_stmt 1
	addq	%rcx, %rax
	movq	%rax, -248(%rbp)
Ltmp80:
	.loc	19 89 17
	jmp	LBB16_3
LBB16_2:
	.loc	19 0 17 is_stmt 0
	movq	-272(%rbp), %rcx
	movq	-280(%rbp), %rax
	.loc	19 89 32
	movq	%rax, -120(%rbp)
	.loc	19 89 54
	movq	%rcx, -112(%rbp)
Ltmp81:
	.loc	3 1118 9 is_stmt 1
	movq	%rax, -104(%rbp)
Ltmp82:
	.loc	3 61 9
	movq	%rax, -96(%rbp)
Ltmp83:
	.loc	3 1118 40
	movq	%rcx, -88(%rbp)
Ltmp84:
	.loc	3 1100 9
	movq	%rax, -80(%rbp)
	.loc	3 1100 30 is_stmt 0
	movq	%rcx, -72(%rbp)
Ltmp85:
	.loc	3 555 18 is_stmt 1
	addq	%rcx, %rax
	movq	%rax, -64(%rbp)
	movq	-64(%rbp), %rax
	movq	%rax, -56(%rbp)
Ltmp86:
	.loc	3 100 29
	movq	%rax, -48(%rbp)
Ltmp87:
	.loc	5 118 36
	movq	%rax, -216(%rbp)
	.loc	5 118 14 is_stmt 0
	movq	-216(%rbp), %rax
	movq	%rax, -224(%rbp)
	movq	-224(%rbp), %rax
	movq	%rax, -248(%rbp)
Ltmp88:
LBB16_3:
	.loc	5 0 14
	movq	-280(%rbp), %rax
Ltmp89:
	.loc	19 91 48 is_stmt 1
	movq	%rax, -8(%rbp)
Ltmp90:
	.file	20 "/rustc/2c8cc343237b8f7d5a3c3703e3a87f2eb2c54a74/library/core/src/ptr" "non_null.rs"
	.loc	20 201 13
	movq	%rax, -240(%rbp)
Ltmp91:
	.loc	19 91 64
	movq	-248(%rbp), %rax
	.loc	19 91 13 is_stmt 0
	movq	-240(%rbp), %rcx
	movq	%rcx, -256(%rbp)
	movq	%rax, -264(%rbp)
Ltmp92:
	.loc	19 93 6 is_stmt 1
	movq	-264(%rbp), %rax
	movq	-256(%rbp), %rdx
	addq	$280, %rsp
	popq	%rbp
	retq
Ltmp93:
Lfunc_end16:
	.cfi_endproc

	.globl	__ZN4core5slice5index74_$LT$impl$u20$core..ops..index..Index$LT$I$GT$$u20$for$u20$$u5b$T$u5d$$GT$5index17h5dfc98d9fdc438c7E
	.p2align	4, 0x90
__ZN4core5slice5index74_$LT$impl$u20$core..ops..index..Index$LT$I$GT$$u20$for$u20$$u5b$T$u5d$$GT$5index17h5dfc98d9fdc438c7E:
Lfunc_begin17:
	.loc	2 17 0
	.cfi_startproc
	pushq	%rbp
	.cfi_def_cfa_offset 16
	.cfi_offset %rbp, -16
	movq	%rsp, %rbp
	.cfi_def_cfa_register %rbp
	subq	$32, %rsp
	movq	%rdx, -32(%rbp)
	movq	%rsi, %rdx
	movq	%rdi, %rsi
	movq	-32(%rbp), %rdi
	movq	%rsi, -24(%rbp)
	movq	%rdx, -16(%rbp)
	movq	%rdi, -8(%rbp)
Ltmp94:
	.loc	2 18 9 prologue_end
	callq	__ZN110_$LT$core..ops..range..RangeFrom$LT$usize$GT$$u20$as$u20$core..slice..index..SliceIndex$LT$$u5b$T$u5d$$GT$$GT$5index17hd53d4cf4efc716c4E
	.loc	2 19 6
	addq	$32, %rsp
	popq	%rbp
	retq
Ltmp95:
Lfunc_end17:
	.cfi_endproc

	.globl	__ZN4core6option15Option$LT$T$GT$14unwrap_or_else17heefb3e387502d070E
	.p2align	4, 0x90
__ZN4core6option15Option$LT$T$GT$14unwrap_or_else17heefb3e387502d070E:
Lfunc_begin18:
	.loc	9 866 0
	.cfi_startproc
	pushq	%rbp
	.cfi_def_cfa_offset 16
	.cfi_offset %rbp, -16
	movq	%rsp, %rbp
	.cfi_def_cfa_register %rbp
	subq	$80, %rsp
	movq	%rcx, -80(%rbp)
	movq	%rdx, -72(%rbp)
	movq	%rsi, -64(%rbp)
Ltmp96:
	movq	%rdi, -56(%rbp)
	movq	%rdi, -48(%rbp)
Ltmp97:
	movq	%rdx, -16(%rbp)
	movq	%rcx, -8(%rbp)
Ltmp98:
	.loc	9 871 15 prologue_end
	movb	$1, -17(%rbp)
	movl	$1, %eax
	xorl	%ecx, %ecx
	cmpl	$2, 8(%rsi)
	cmoveq	%rcx, %rax
	.loc	9 871 9 is_stmt 0
	cmpq	$0, %rax
Ltmp99:
	jne	LBB18_2
Ltmp100:
	.loc	9 0 9
	movq	-80(%rbp), %rdx
	movq	-72(%rbp), %rsi
	movq	-56(%rbp), %rdi
	.loc	9 873 21 is_stmt 1
	movb	$0, -17(%rbp)
	callq	__ZN9crc32fast6Hasher20new_with_initial_len28_$u7b$$u7b$closure$u7d$$u7d$17hfc87f46d15bb5f73E
	.loc	9 873 23 is_stmt 0
	jmp	LBB18_3
Ltmp101:
LBB18_2:
	.loc	9 0 23
	movq	-56(%rbp), %rax
	movq	-64(%rbp), %rcx
	.loc	9 872 18 is_stmt 1
	movq	(%rcx), %rdx
	movq	%rdx, -40(%rbp)
	movq	8(%rcx), %rcx
	movq	%rcx, -32(%rbp)
Ltmp102:
	.loc	9 872 24 is_stmt 0
	movq	-40(%rbp), %rcx
	movq	%rcx, (%rax)
	movq	-32(%rbp), %rcx
	movq	%rcx, 8(%rax)
Ltmp103:
LBB18_3:
	.loc	9 875 5 is_stmt 1
	testb	$1, -17(%rbp)
	jne	LBB18_5
Ltmp104:
LBB18_4:
	.loc	9 0 5 is_stmt 0
	movq	-48(%rbp), %rax
	.loc	9 875 6
	addq	$80, %rsp
	popq	%rbp
	retq
Ltmp105:
LBB18_5:
	.loc	9 875 5
	jmp	LBB18_4
Ltmp106:
Lfunc_end18:
	.cfi_endproc

	.p2align	4, 0x90
__ZN4core9core_arch3x864sse212_mm_set_epi817haea09846de74ebefE:
Lfunc_begin19:
	.file	21 "/rustc/2c8cc343237b8f7d5a3c3703e3a87f2eb2c54a74/library/core/src/../../stdarch/crates/core_arch/src/x86" "sse2.rs"
	.loc	21 1011 0 is_stmt 1
	.cfi_startproc
	pushq	%rbp
	.cfi_def_cfa_offset 16
	.cfi_offset %rbp, -16
	movq	%rsp, %rbp
	.cfi_def_cfa_register %rbp
	pushq	%r15
	pushq	%r14
	pushq	%r13
	pushq	%r12
	pushq	%rbx
	subq	$56, %rsp
	.cfi_offset %rbx, -56
	.cfi_offset %r12, -48
	.cfi_offset %r13, -40
	.cfi_offset %r14, -32
	.cfi_offset %r15, -24
	movl	%esi, %eax
	movb	%cl, %sil
	movb	%al, %cl
	movq	%rdi, %rax
	movq	%rax, -88(%rbp)
	movb	96(%rbp), %al
	movb	%al, -92(%rbp)
	movb	88(%rbp), %r10b
	movb	%r10b, -91(%rbp)
	movb	80(%rbp), %r10b
	movb	%r10b, -90(%rbp)
	movb	72(%rbp), %r10b
	movb	%r10b, -89(%rbp)
	movb	64(%rbp), %r13b
	movb	56(%rbp), %r12b
	movb	48(%rbp), %r15b
	movb	40(%rbp), %r14b
	movb	32(%rbp), %bl
	movb	24(%rbp), %r11b
	movb	16(%rbp), %r10b
	movb	%cl, -61(%rbp)
	movb	%dl, -60(%rbp)
	movb	%sil, -59(%rbp)
	movb	%r8b, -58(%rbp)
	movb	%r9b, -57(%rbp)
Ltmp107:
	.loc	21 1031 9 prologue_end
	movb	%al, -56(%rbp)
	movb	-91(%rbp), %al
	.loc	21 1031 13 is_stmt 0
	movb	%al, -55(%rbp)
	movb	-90(%rbp), %al
	.loc	21 1031 17
	movb	%al, -54(%rbp)
	movb	-89(%rbp), %al
	.loc	21 1031 21
	movb	%al, -53(%rbp)
	movb	-92(%rbp), %al
	.loc	21 1031 25
	movb	%r13b, -52(%rbp)
	.loc	21 1031 29
	movb	%r12b, -51(%rbp)
	.loc	21 1031 33
	movb	%r15b, -50(%rbp)
	.loc	21 1031 37
	movb	%r14b, -49(%rbp)
	.loc	21 1031 41
	movb	%bl, -48(%rbp)
	.loc	21 1031 45
	movb	%r11b, -47(%rbp)
	.loc	21 1031 49
	movb	%r10b, -46(%rbp)
	.loc	21 1031 54
	movb	%r9b, -45(%rbp)
	.loc	21 1031 59
	movb	%r8b, -44(%rbp)
	.loc	21 1031 64
	movb	%sil, -43(%rbp)
	.loc	21 1031 69
	movb	%dl, -42(%rbp)
	.loc	21 1031 74
	movb	%cl, -41(%rbp)
Ltmp108:
	.file	22 "/rustc/2c8cc343237b8f7d5a3c3703e3a87f2eb2c54a74/library/core/src/../../stdarch/crates/core_arch/src" "simd.rs"
	.loc	22 15 17 is_stmt 1
	movb	%al, -80(%rbp)
	movb	-91(%rbp), %al
	movb	%al, -79(%rbp)
	movb	-90(%rbp), %al
	movb	%al, -78(%rbp)
	movb	-89(%rbp), %al
	movb	%al, -77(%rbp)
	movq	-88(%rbp), %rax
	movb	%r13b, -76(%rbp)
	movb	%r12b, -75(%rbp)
	movb	%r15b, -74(%rbp)
	movb	%r14b, -73(%rbp)
	movb	%bl, -72(%rbp)
	movb	%r11b, -71(%rbp)
	movb	%r10b, -70(%rbp)
	movb	%r9b, -69(%rbp)
	movb	%r8b, -68(%rbp)
	movb	%sil, -67(%rbp)
	movb	%dl, -66(%rbp)
	movb	%cl, -65(%rbp)
Ltmp109:
	.loc	21 1030 5
	movdqa	-80(%rbp), %xmm0
	movdqa	%xmm0, (%rdi)
	.loc	21 1033 2
	addq	$56, %rsp
	popq	%rbx
	popq	%r12
	popq	%r13
	popq	%r14
	popq	%r15
	popq	%rbp
	retq
Ltmp110:
Lfunc_end19:
	.cfi_endproc

	.p2align	4, 0x90
__ZN4core9core_arch3x864sse213_mm_and_si12817h3b302846b6f689b9E:
Lfunc_begin20:
	.loc	21 750 0
	.cfi_startproc
	pushq	%rbp
	.cfi_def_cfa_offset 16
	.cfi_offset %rbp, -16
	movq	%rsp, %rbp
	.cfi_def_cfa_register %rbp
	movq	%rdi, %rax
Ltmp111:
	.loc	21 751 14 prologue_end
	movdqa	(%rsi), %xmm0
	.loc	21 751 5 is_stmt 0
	pand	(%rdx), %xmm0
	movdqa	%xmm0, (%rdi)
	.loc	21 752 2 is_stmt 1
	popq	%rbp
	retq
Ltmp112:
Lfunc_end20:
	.cfi_endproc

	.p2align	4, 0x90
__ZN4core9core_arch3x864sse213_mm_set1_epi817ha9ffa6108e95c93cE:
Lfunc_begin21:
	.loc	21 1075 0
	.cfi_startproc
	pushq	%rbp
	.cfi_def_cfa_offset 16
	.cfi_offset %rbp, -16
	movq	%rsp, %rbp
	.cfi_def_cfa_register %rbp
	subq	$112, %rsp
	movb	%sil, %al
	movq	%rdi, %rcx
	movq	%rcx, -16(%rbp)
	movb	%al, -1(%rbp)
Ltmp113:
	.loc	21 1076 5 prologue_end
	movzbl	%al, %esi
	movzbl	%al, %edx
	movzbl	%al, %ecx
	movzbl	%al, %r8d
	movzbl	%al, %r9d
	movzbl	%al, %r10d
	movl	%r10d, (%rsp)
	movzbl	%al, %r10d
	movl	%r10d, 8(%rsp)
	movzbl	%al, %r10d
	movl	%r10d, 16(%rsp)
	movzbl	%al, %r10d
	movl	%r10d, 24(%rsp)
	movzbl	%al, %r10d
	movl	%r10d, 32(%rsp)
	movzbl	%al, %r10d
	movl	%r10d, 40(%rsp)
	movzbl	%al, %r10d
	movl	%r10d, 48(%rsp)
	movzbl	%al, %r10d
	movl	%r10d, 56(%rsp)
	movzbl	%al, %r10d
	movl	%r10d, 64(%rsp)
	movzbl	%al, %r10d
	movl	%r10d, 72(%rsp)
	movzbl	%al, %eax
	movl	%eax, 80(%rsp)
	callq	__ZN4core9core_arch3x864sse212_mm_set_epi817haea09846de74ebefE
	movq	-16(%rbp), %rax
	.loc	21 1077 2
	addq	$112, %rsp
	popq	%rbp
	retq
Ltmp114:
Lfunc_end21:
	.cfi_endproc

	.p2align	4, 0x90
__ZN4core9core_arch3x864sse213_mm_set_epi3217hbd5d9de2465d4c1bE:
Lfunc_begin22:
	.loc	21 980 0
	.cfi_startproc
	pushq	%rbp
	.cfi_def_cfa_offset 16
	.cfi_offset %rbp, -16
	movq	%rsp, %rbp
	.cfi_def_cfa_register %rbp
	subq	$48, %rsp
	movq	%rdi, %rax
	movl	%esi, -32(%rbp)
	movl	%edx, -28(%rbp)
	movl	%ecx, -24(%rbp)
	movl	%r8d, -20(%rbp)
Ltmp115:
	.loc	21 981 26 prologue_end
	movl	%r8d, -16(%rbp)
	.loc	21 981 30 is_stmt 0
	movl	%ecx, -12(%rbp)
	.loc	21 981 34
	movl	%edx, -8(%rbp)
	.loc	21 981 38
	movl	%esi, -4(%rbp)
Ltmp116:
	.loc	22 15 17 is_stmt 1
	movl	%r8d, -48(%rbp)
	movl	%ecx, -44(%rbp)
	movl	%edx, -40(%rbp)
	movl	%esi, -36(%rbp)
Ltmp117:
	.loc	21 981 5
	movdqa	-48(%rbp), %xmm0
	movdqa	%xmm0, (%rdi)
	.loc	21 982 2
	addq	$48, %rsp
	popq	%rbp
	retq
Ltmp118:
Lfunc_end22:
	.cfi_endproc

	.p2align	4, 0x90
__ZN4core9core_arch3x864sse213_mm_xor_si12817hdd59fc355e961b66E:
Lfunc_begin23:
	.loc	21 786 0
	.cfi_startproc
	pushq	%rbp
	.cfi_def_cfa_offset 16
	.cfi_offset %rbp, -16
	movq	%rsp, %rbp
	.cfi_def_cfa_register %rbp
	movq	%rdi, %rax
Ltmp119:
	.loc	21 787 14 prologue_end
	movdqa	(%rsi), %xmm0
	.loc	21 787 5 is_stmt 0
	pxor	(%rdx), %xmm0
	movdqa	%xmm0, (%rdi)
	.loc	21 788 2 is_stmt 1
	popq	%rbp
	retq
Ltmp120:
Lfunc_end23:
	.cfi_endproc

	.p2align	4, 0x90
__ZN4core9core_arch3x864sse214_mm_set_epi64x17h7f6654eebcc18d30E:
Lfunc_begin24:
	.loc	21 969 0
	.cfi_startproc
	pushq	%rbp
	.cfi_def_cfa_offset 16
	.cfi_offset %rbp, -16
	movq	%rsp, %rbp
	.cfi_def_cfa_register %rbp
	subq	$48, %rsp
	movq	%rdi, %rax
	movq	%rsi, -32(%rbp)
	movq	%rdx, -24(%rbp)
Ltmp121:
	.loc	21 970 26 prologue_end
	movq	%rdx, -16(%rbp)
	.loc	21 970 30 is_stmt 0
	movq	%rsi, -8(%rbp)
Ltmp122:
	.loc	22 15 17 is_stmt 1
	movq	%rdx, -48(%rbp)
	movq	%rsi, -40(%rbp)
Ltmp123:
	.loc	21 970 5
	movdqa	-48(%rbp), %xmm0
	movdqa	%xmm0, (%rdi)
	.loc	21 971 2
	addq	$48, %rsp
	popq	%rbp
	retq
Ltmp124:
Lfunc_end24:
	.cfi_endproc

	.globl	__ZN4core9core_arch3x864sse214_mm_srli_si12817h42101d6de3958499E
	.p2align	4, 0x90
__ZN4core9core_arch3x864sse214_mm_srli_si12817h42101d6de3958499E:
Lfunc_begin25:
	.loc	21 621 0
	.cfi_startproc
	pushq	%rbp
	.cfi_def_cfa_offset 16
	.cfi_offset %rbp, -16
	movq	%rsp, %rbp
	.cfi_def_cfa_register %rbp
	subq	$32, %rsp
	movq	%rdi, %rax
	movq	%rax, -24(%rbp)
Ltmp125:
	.loc	21 623 33 prologue_end
	movdqa	(%rsi), %xmm0
	.loc	21 623 5 is_stmt 0
	movdqa	%xmm0, -16(%rbp)
	leaq	-16(%rbp), %rsi
Ltmp126:
	callq	__ZN4core9core_arch3x864sse219_mm_srli_si128_impl17h5540829c4bbd833aE
	movq	-24(%rbp), %rax
	.loc	21 624 2 is_stmt 1
	addq	$32, %rsp
	popq	%rbp
	retq
Ltmp127:
Lfunc_end25:
	.cfi_endproc

	.globl	__ZN4core9core_arch3x864sse214_mm_srli_si12817hd18d49d4e526942bE
	.p2align	4, 0x90
__ZN4core9core_arch3x864sse214_mm_srli_si12817hd18d49d4e526942bE:
Lfunc_begin26:
	.loc	21 621 0
	.cfi_startproc
	pushq	%rbp
	.cfi_def_cfa_offset 16
	.cfi_offset %rbp, -16
	movq	%rsp, %rbp
	.cfi_def_cfa_register %rbp
	subq	$32, %rsp
	movq	%rdi, %rax
	movq	%rax, -24(%rbp)
Ltmp128:
	.loc	21 623 33 prologue_end
	movdqa	(%rsi), %xmm0
	.loc	21 623 5 is_stmt 0
	movdqa	%xmm0, -16(%rbp)
	leaq	-16(%rbp), %rsi
Ltmp129:
	callq	__ZN4core9core_arch3x864sse219_mm_srli_si128_impl17h96a8d14d4dfe3488E
	movq	-24(%rbp), %rax
	.loc	21 624 2 is_stmt 1
	addq	$32, %rsp
	popq	%rbp
	retq
Ltmp130:
Lfunc_end26:
	.cfi_endproc

	.p2align	4, 0x90
__ZN4core9core_arch3x864sse215_mm_loadu_si12817h5dd5b30ea40fba87E:
Lfunc_begin27:
	.loc	21 1194 0
	.cfi_startproc
	pushq	%rbp
	.cfi_def_cfa_offset 16
	.cfi_offset %rbp, -16
	movq	%rsp, %rbp
	.cfi_def_cfa_register %rbp
	subq	$24, %rsp
	movq	%rdi, %rax
Ltmp131:
	movq	%rsi, -24(%rbp)
Ltmp132:
	.loc	21 2749 5 prologue_end
	movq	$0, (%rdi)
	movq	$0, 8(%rdi)
Ltmp133:
	.loc	21 1197 9
	movq	%rsi, -16(%rbp)
	.loc	21 1198 9
	movq	%rdi, -8(%rbp)
Ltmp134:
	.file	23 "/rustc/2c8cc343237b8f7d5a3c3703e3a87f2eb2c54a74/library/core/src" "intrinsics.rs"
	.loc	23 2372 9
	movq	(%rsi), %rcx
	movq	%rcx, (%rdi)
	movq	8(%rsi), %rcx
	movq	%rcx, 8(%rdi)
Ltmp135:
	.loc	21 1202 2
	addq	$24, %rsp
	popq	%rbp
	retq
Ltmp136:
Lfunc_end27:
	.cfi_endproc

	.p2align	4, 0x90
__ZN4core9core_arch3x864sse217_mm_cvtsi32_si12817h3b5b7f0a6788c9c7E:
Lfunc_begin28:
	.loc	21 946 0
	.cfi_startproc
	pushq	%rbp
	.cfi_def_cfa_offset 16
	.cfi_offset %rbp, -16
	movq	%rsp, %rbp
	.cfi_def_cfa_register %rbp
	subq	$32, %rsp
	movq	%rdi, %rax
	movl	%esi, -8(%rbp)
Ltmp137:
	.loc	21 947 26 prologue_end
	movl	%esi, -4(%rbp)
Ltmp138:
	.loc	22 15 17
	movl	%esi, -32(%rbp)
	movl	$0, -28(%rbp)
	movl	$0, -24(%rbp)
	movl	$0, -20(%rbp)
Ltmp139:
	.loc	21 947 5
	movdqa	-32(%rbp), %xmm0
	movdqa	%xmm0, (%rdi)
	.loc	21 948 2
	addq	$32, %rsp
	popq	%rbp
	retq
Ltmp140:
Lfunc_end28:
	.cfi_endproc

	.globl	__ZN4core9core_arch3x864sse219_mm_srli_si128_impl17h5540829c4bbd833aE
	.p2align	4, 0x90
__ZN4core9core_arch3x864sse219_mm_srli_si128_impl17h5540829c4bbd833aE:
Lfunc_begin29:
	.loc	21 630 0
	.cfi_startproc
	pushq	%rbp
	.cfi_def_cfa_offset 16
	.cfi_offset %rbp, -16
	movq	%rsp, %rbp
	.cfi_def_cfa_register %rbp
	subq	$192, %rsp
	movq	%rsi, -184(%rbp)
Ltmp141:
	movq	%rdi, -176(%rbp)
	movq	%rdi, -168(%rbp)
	leaq	-160(%rbp), %rdi
	xorl	%esi, %esi
Ltmp142:
	.loc	21 638 16 prologue_end
	callq	__ZN4core9core_arch3x864sse213_mm_set1_epi817ha9ffa6108e95c93cE
	movq	-184(%rbp), %rsi
	movq	-176(%rbp), %rdi
	movq	-168(%rbp), %rax
	movaps	-160(%rbp), %xmm0
	movaps	%xmm0, -144(%rbp)
Ltmp143:
	.file	24 "/rustc/2c8cc343237b8f7d5a3c3703e3a87f2eb2c54a74/library/core/src/../../stdarch/crates/core_arch/src/x86" "mod.rs"
	.loc	24 396 28
	movaps	%xmm0, -128(%rbp)
	.loc	24 396 18 is_stmt 0
	movaps	%xmm0, -112(%rbp)
	movaps	-112(%rbp), %xmm0
	movaps	%xmm0, -96(%rbp)
Ltmp144:
	.loc	21 640 9 is_stmt 1
	movaps	(%rsi), %xmm1
	movaps	%xmm1, -80(%rbp)
Ltmp145:
	.loc	24 396 28
	movaps	%xmm1, -64(%rbp)
	.loc	24 396 18 is_stmt 0
	movaps	%xmm1, -48(%rbp)
	movaps	-48(%rbp), %xmm1
Ltmp146:
	.loc	21 639 20 is_stmt 1
	palignr	$8, %xmm1, %xmm0
	movdqa	%xmm0, -32(%rbp)
	movdqa	-32(%rbp), %xmm0
	movdqa	%xmm0, -16(%rbp)
Ltmp147:
	.loc	21 661 5
	movdqa	%xmm0, (%rdi)
Ltmp148:
	.loc	21 662 2
	addq	$192, %rsp
	popq	%rbp
	retq
Ltmp149:
Lfunc_end29:
	.cfi_endproc

	.globl	__ZN4core9core_arch3x864sse219_mm_srli_si128_impl17h96a8d14d4dfe3488E
	.p2align	4, 0x90
__ZN4core9core_arch3x864sse219_mm_srli_si128_impl17h96a8d14d4dfe3488E:
Lfunc_begin30:
	.loc	21 630 0
	.cfi_startproc
	pushq	%rbp
	.cfi_def_cfa_offset 16
	.cfi_offset %rbp, -16
	movq	%rsp, %rbp
	.cfi_def_cfa_register %rbp
	subq	$192, %rsp
	movq	%rsi, -184(%rbp)
Ltmp150:
	movq	%rdi, -176(%rbp)
	movq	%rdi, -168(%rbp)
	leaq	-160(%rbp), %rdi
	xorl	%esi, %esi
Ltmp151:
	.loc	21 638 16 prologue_end
	callq	__ZN4core9core_arch3x864sse213_mm_set1_epi817ha9ffa6108e95c93cE
	movq	-184(%rbp), %rsi
	movq	-176(%rbp), %rdi
	movq	-168(%rbp), %rax
	movaps	-160(%rbp), %xmm0
	movaps	%xmm0, -144(%rbp)
Ltmp152:
	.loc	24 396 28
	movaps	%xmm0, -128(%rbp)
	.loc	24 396 18 is_stmt 0
	movaps	%xmm0, -112(%rbp)
	movaps	-112(%rbp), %xmm0
	movaps	%xmm0, -96(%rbp)
Ltmp153:
	.loc	21 640 9 is_stmt 1
	movaps	(%rsi), %xmm1
	movaps	%xmm1, -80(%rbp)
Ltmp154:
	.loc	24 396 28
	movaps	%xmm1, -64(%rbp)
	.loc	24 396 18 is_stmt 0
	movaps	%xmm1, -48(%rbp)
	movaps	-48(%rbp), %xmm1
Ltmp155:
	.loc	21 639 20 is_stmt 1
	palignr	$4, %xmm1, %xmm0
	movdqa	%xmm0, -32(%rbp)
	movdqa	-32(%rbp), %xmm0
	movdqa	%xmm0, -16(%rbp)
Ltmp156:
	.loc	21 661 5
	movdqa	%xmm0, (%rdi)
Ltmp157:
	.loc	21 662 2
	addq	$192, %rsp
	popq	%rbp
	retq
Ltmp158:
Lfunc_end30:
	.cfi_endproc

	.globl	__ZN4core9core_arch3x865sse4117_mm_extract_epi3217hdb6ffa1f952ab99bE
	.p2align	4, 0x90
__ZN4core9core_arch3x865sse4117_mm_extract_epi3217hdb6ffa1f952ab99bE:
Lfunc_begin31:
	.file	25 "/rustc/2c8cc343237b8f7d5a3c3703e3a87f2eb2c54a74/library/core/src/../../stdarch/crates/core_arch/src/x86" "sse41.rs"
	.loc	25 208 0
	.cfi_startproc
	pushq	%rbp
	.cfi_def_cfa_offset 16
	.cfi_offset %rbp, -16
	movq	%rsp, %rbp
	.cfi_def_cfa_register %rbp
	subq	$64, %rsp
Ltmp159:
	.loc	25 210 28 prologue_end
	movaps	(%rdi), %xmm0
	movaps	%xmm0, -64(%rbp)
Ltmp160:
	.loc	24 406 28
	movaps	%xmm0, -48(%rbp)
	.loc	24 406 18 is_stmt 0
	movaps	%xmm0, -32(%rbp)
Ltmp161:
	.loc	25 210 5 is_stmt 1
	movl	-28(%rbp), %eax
	movl	%eax, -4(%rbp)
	movl	-4(%rbp), %eax
	.loc	25 211 2
	addq	$64, %rsp
	popq	%rbp
	retq
Ltmp162:
Lfunc_end31:
	.cfi_endproc

	.globl	__ZN4core9core_arch3x869pclmulqdq20_mm_clmulepi64_si12817h90e2e0b2bc7f3554E
	.p2align	4, 0x90
__ZN4core9core_arch3x869pclmulqdq20_mm_clmulepi64_si12817h90e2e0b2bc7f3554E:
Lfunc_begin32:
	.file	26 "/rustc/2c8cc343237b8f7d5a3c3703e3a87f2eb2c54a74/library/core/src/../../stdarch/crates/core_arch/src/x86" "pclmulqdq.rs"
	.loc	26 35 0
	.cfi_startproc
	pushq	%rbp
	.cfi_def_cfa_offset 16
	.cfi_offset %rbp, -16
	movq	%rsp, %rbp
	.cfi_def_cfa_register %rbp
	movq	%rdi, %rax
Ltmp163:
	.loc	26 37 15 prologue_end
	movdqa	(%rsi), %xmm0
	.loc	26 37 18 is_stmt 0
	movdqa	(%rdx), %xmm1
	.loc	26 37 5
	pclmulqdq	$16, %xmm1, %xmm0
	movdqa	%xmm0, (%rdi)
	.loc	26 38 2 is_stmt 1
	popq	%rbp
	retq
Ltmp164:
Lfunc_end32:
	.cfi_endproc

	.globl	__ZN4core9core_arch3x869pclmulqdq20_mm_clmulepi64_si12817hd725afd9b0c77aabE
	.p2align	4, 0x90
__ZN4core9core_arch3x869pclmulqdq20_mm_clmulepi64_si12817hd725afd9b0c77aabE:
Lfunc_begin33:
	.loc	26 35 0
	.cfi_startproc
	pushq	%rbp
	.cfi_def_cfa_offset 16
	.cfi_offset %rbp, -16
	movq	%rsp, %rbp
	.cfi_def_cfa_register %rbp
	movq	%rdi, %rax
Ltmp165:
	.loc	26 37 15 prologue_end
	movdqa	(%rsi), %xmm0
	.loc	26 37 18 is_stmt 0
	movdqa	(%rdx), %xmm1
	.loc	26 37 5
	pclmulqdq	$17, %xmm1, %xmm0
	movdqa	%xmm0, (%rdi)
	.loc	26 38 2 is_stmt 1
	popq	%rbp
	retq
Ltmp166:
Lfunc_end33:
	.cfi_endproc

	.globl	__ZN4core9core_arch3x869pclmulqdq20_mm_clmulepi64_si12817heb50b0aa260a688cE
	.p2align	4, 0x90
__ZN4core9core_arch3x869pclmulqdq20_mm_clmulepi64_si12817heb50b0aa260a688cE:
Lfunc_begin34:
	.loc	26 35 0
	.cfi_startproc
	pushq	%rbp
	.cfi_def_cfa_offset 16
	.cfi_offset %rbp, -16
	movq	%rsp, %rbp
	.cfi_def_cfa_register %rbp
	movq	%rdi, %rax
Ltmp167:
	.loc	26 37 15 prologue_end
	movdqa	(%rsi), %xmm0
	.loc	26 37 18 is_stmt 0
	movdqa	(%rdx), %xmm1
	.loc	26 37 5
	pclmulqdq	$0, %xmm1, %xmm0
	movdqa	%xmm0, (%rdi)
	.loc	26 38 2 is_stmt 1
	popq	%rbp
	retq
Ltmp168:
Lfunc_end34:
	.cfi_endproc

	.globl	__ZN63_$LT$I$u20$as$u20$core..iter..traits..collect..IntoIterator$GT$9into_iter17h2e17689b8522dee3E
	.p2align	4, 0x90
__ZN63_$LT$I$u20$as$u20$core..iter..traits..collect..IntoIterator$GT$9into_iter17h2e17689b8522dee3E:
Lfunc_begin35:
	.file	27 "/rustc/2c8cc343237b8f7d5a3c3703e3a87f2eb2c54a74/library/core/src/iter/traits" "collect.rs"
	.loc	27 272 0
	.cfi_startproc
	pushq	%rbp
	.cfi_def_cfa_offset 16
	.cfi_offset %rbp, -16
	movq	%rsp, %rbp
	.cfi_def_cfa_register %rbp
	subq	$16, %rsp
	movq	%rsi, %rdx
	movq	%rdi, %rax
	movq	%rax, -16(%rbp)
	movq	%rdx, -8(%rbp)
Ltmp169:
	.loc	27 274 6 prologue_end
	addq	$16, %rsp
	popq	%rbp
	retq
Ltmp170:
Lfunc_end35:
	.cfi_endproc

	.globl	__ZN63_$LT$I$u20$as$u20$core..iter..traits..collect..IntoIterator$GT$9into_iter17hbf9bce8bee69b247E
	.p2align	4, 0x90
__ZN63_$LT$I$u20$as$u20$core..iter..traits..collect..IntoIterator$GT$9into_iter17hbf9bce8bee69b247E:
Lfunc_begin36:
	.loc	27 272 0
	.cfi_startproc
	pushq	%rbp
	.cfi_def_cfa_offset 16
	.cfi_offset %rbp, -16
	movq	%rsp, %rbp
	.cfi_def_cfa_register %rbp
	subq	$16, %rsp
	movq	%rsi, %rdx
	movq	%rdi, %rax
	movq	%rax, -16(%rbp)
	movq	%rdx, -8(%rbp)
Ltmp171:
	.loc	27 274 6 prologue_end
	addq	$16, %rsp
	popq	%rbp
	retq
Ltmp172:
Lfunc_end36:
	.cfi_endproc

	.globl	__ZN89_$LT$core..ops..range..Range$LT$T$GT$$u20$as$u20$core..iter..range..RangeIteratorImpl$GT$9spec_next17ha5b3399147166f99E
	.p2align	4, 0x90
__ZN89_$LT$core..ops..range..Range$LT$T$GT$$u20$as$u20$core..iter..range..RangeIteratorImpl$GT$9spec_next17ha5b3399147166f99E:
Lfunc_begin37:
	.loc	11 620 0
	.cfi_startproc
	pushq	%rbp
	.cfi_def_cfa_offset 16
	.cfi_offset %rbp, -16
	movq	%rsp, %rbp
	.cfi_def_cfa_register %rbp
	subq	$48, %rsp
	movq	%rdi, -48(%rbp)
	movq	%rdi, -24(%rbp)
Ltmp173:
	.loc	11 621 25 prologue_end
	movq	%rdi, %rsi
	addq	$8, %rsi
	.loc	11 621 12 is_stmt 0
	callq	__ZN4core3cmp5impls57_$LT$impl$u20$core..cmp..PartialOrd$u20$for$u20$usize$GT$2lt17he02ffb5bf3f32894E
	testb	$1, %al
	jne	LBB37_2
	.loc	11 626 13 is_stmt 1
	movq	$0, -40(%rbp)
	.loc	11 621 9
	jmp	LBB37_3
LBB37_2:
	.loc	11 0 9 is_stmt 0
	movq	-48(%rbp), %rax
	movq	%rax, -8(%rbp)
Ltmp174:
	.file	28 "/rustc/2c8cc343237b8f7d5a3c3703e3a87f2eb2c54a74/library/core/src" "clone.rs"
	.loc	28 189 25 is_stmt 1
	movq	(%rax), %rdi
Ltmp175:
	.loc	11 623 30
	movl	$1, %esi
	callq	__ZN49_$LT$usize$u20$as$u20$core..iter..range..Step$GT$17forward_unchecked17h8f0649c36fa0ad51E
	movq	-48(%rbp), %rdi
	movq	%rax, %rsi
	movq	%rsi, -16(%rbp)
Ltmp176:
	.loc	11 624 18
	callq	__ZN4core3mem7replace17heb16360956a227dfE
	.loc	11 624 13 is_stmt 0
	movq	%rax, -32(%rbp)
	movq	$1, -40(%rbp)
Ltmp177:
LBB37_3:
	.loc	11 628 6 is_stmt 1
	movq	-40(%rbp), %rax
	movq	-32(%rbp), %rdx
	addq	$48, %rsp
	popq	%rbp
	retq
Ltmp178:
Lfunc_end37:
	.cfi_endproc

	.globl	__ZN91_$LT$core..slice..iter..Iter$LT$T$GT$$u20$as$u20$core..iter..traits..iterator..Iterator$GT$4next17hfb0032ca039d4398E
	.p2align	4, 0x90
__ZN91_$LT$core..slice..iter..Iter$LT$T$GT$$u20$as$u20$core..iter..traits..iterator..Iterator$GT$4next17hfb0032ca039d4398E:
Lfunc_begin38:
	.file	29 "/rustc/2c8cc343237b8f7d5a3c3703e3a87f2eb2c54a74/library/core/src/slice/iter" "macros.rs"
	.loc	29 124 0
	.cfi_startproc
	pushq	%rbp
	.cfi_def_cfa_offset 16
	.cfi_offset %rbp, -16
	movq	%rsp, %rbp
	.cfi_def_cfa_register %rbp
	subq	$304, %rsp
	movq	%rdi, -304(%rbp)
	movq	%rdi, -240(%rbp)
Ltmp179:
	.loc	29 132 29 prologue_end
	movq	8(%rdi), %rax
	movq	%rax, -224(%rbp)
Ltmp180:
	.loc	20 326 9
	movq	%rax, -216(%rbp)
Ltmp181:
	.file	30 "/rustc/2c8cc343237b8f7d5a3c3703e3a87f2eb2c54a74/library/core/src/ptr" "mut_ptr.rs"
	.loc	30 52 36
	movq	%rax, -280(%rbp)
	.loc	30 52 18 is_stmt 0
	movq	-280(%rbp), %rax
	movq	%rax, -208(%rbp)
Ltmp182:
	.loc	30 38 13 is_stmt 1
	movq	%rax, -200(%rbp)
Ltmp183:
	.loc	30 215 33
	movq	%rax, -192(%rbp)
	.loc	30 215 18 is_stmt 0
	movq	%rax, -184(%rbp)
Ltmp184:
	.loc	29 133 24 is_stmt 1
	movb	$1, %al
	testb	$1, %al
	jne	LBB38_2
LBB38_1:
	.loc	29 0 24 is_stmt 0
	movq	-304(%rbp), %rcx
	.loc	29 136 24 is_stmt 1
	movq	8(%rcx), %rax
	movq	%rax, -136(%rbp)
	cmpq	(%rcx), %rax
	je	LBB38_4
	jmp	LBB38_3
LBB38_2:
	.loc	29 0 24 is_stmt 0
	movq	-304(%rbp), %rax
	.loc	29 134 33 is_stmt 1
	movq	(%rax), %rax
	movq	%rax, -176(%rbp)
Ltmp185:
	.loc	3 53 36
	movq	%rax, -272(%rbp)
	.loc	3 53 18 is_stmt 0
	movq	-272(%rbp), %rax
	movq	%rax, -168(%rbp)
Ltmp186:
	.loc	3 39 13 is_stmt 1
	movq	%rax, -160(%rbp)
Ltmp187:
	.loc	3 209 33
	movq	%rax, -152(%rbp)
	.loc	3 209 18 is_stmt 0
	movq	%rax, -144(%rbp)
Ltmp188:
	.loc	29 133 21 is_stmt 1
	jmp	LBB38_1
LBB38_3:
	.loc	29 0 21 is_stmt 0
	movq	-304(%rbp), %rax
	.loc	29 139 30 is_stmt 1
	movq	%rax, -128(%rbp)
Ltmp189:
	.loc	29 76 20
	xorl	%eax, %eax
	testb	$1, %al
	jne	LBB38_6
	jmp	LBB38_7
Ltmp190:
LBB38_4:
	.loc	29 137 25
	movq	$0, -296(%rbp)
LBB38_5:
	.loc	29 142 14
	movq	-296(%rbp), %rax
	addq	$304, %rsp
	popq	%rbp
	retq
LBB38_6:
	.loc	29 0 14 is_stmt 0
	movq	-304(%rbp), %rax
Ltmp191:
	.loc	29 57 29 is_stmt 1
	movq	(%rax), %rcx
	movq	%rcx, -64(%rbp)
Ltmp192:
	.loc	3 1198 9
	movq	%rcx, -56(%rbp)
Ltmp193:
	.loc	3 61 9
	movq	%rcx, -48(%rbp)
Ltmp194:
	.loc	3 1180 9
	movq	%rcx, -40(%rbp)
Ltmp195:
	.loc	3 555 18
	addq	$-1, %rcx
	movq	%rcx, -32(%rbp)
	movq	-32(%rbp), %rcx
	movq	%rcx, -24(%rbp)
Ltmp196:
	.loc	3 100 29
	movq	%rcx, -16(%rbp)
Ltmp197:
	.loc	5 118 36
	movq	%rcx, -248(%rbp)
	.loc	5 118 14 is_stmt 0
	movq	-248(%rbp), %rcx
	movq	%rcx, -256(%rbp)
	movq	-256(%rbp), %rcx
Ltmp198:
	.loc	29 57 17 is_stmt 1
	movq	%rcx, (%rax)
	.loc	29 78 21
	movq	8(%rax), %rax
	movq	%rax, -8(%rbp)
	movq	%rax, -288(%rbp)
	.loc	29 76 17
	jmp	LBB38_8
LBB38_7:
	.loc	29 0 17 is_stmt 0
	movq	-304(%rbp), %rcx
	.loc	29 80 31 is_stmt 1
	movq	8(%rcx), %rax
	movq	%rax, -120(%rbp)
Ltmp199:
	.loc	20 326 9
	movq	%rax, -112(%rbp)
Ltmp200:
	.loc	29 83 64
	movq	8(%rcx), %rdx
	movq	%rdx, -104(%rbp)
Ltmp201:
	.loc	20 326 9
	movq	%rdx, -96(%rbp)
Ltmp202:
	.loc	30 1034 18
	movq	%rdx, -88(%rbp)
Ltmp203:
	.loc	30 487 18
	addq	$1, %rdx
	movq	%rdx, -80(%rbp)
	movq	-80(%rbp), %rdx
	movq	%rdx, -72(%rbp)
Ltmp204:
	.loc	20 201 13
	movq	%rdx, -264(%rbp)
Ltmp205:
	.loc	29 83 21
	movq	-264(%rbp), %rdx
	movq	%rdx, 8(%rcx)
	.loc	29 84 21
	movq	%rax, -288(%rbp)
Ltmp206:
LBB38_8:
	.loc	29 139 30
	movq	-288(%rbp), %rax
	.loc	29 139 25 is_stmt 0
	movq	%rax, -296(%rbp)
	.loc	29 136 21 is_stmt 1
	jmp	LBB38_5
Ltmp207:
Lfunc_end38:
	.cfi_endproc

	.p2align	4, 0x90
__ZN9crc32fast8baseline5State3new17hdab539bbba318bf6E:
Lfunc_begin39:
	.file	31 "/Users/natalie/.cargo/registry/src/github.com-1ecc6299db9ec823/crc32fast-1.3.2" "src/baseline.rs"
	.loc	31 9 0
	.cfi_startproc
	pushq	%rbp
	.cfi_def_cfa_offset 16
	.cfi_offset %rbp, -16
	movq	%rsp, %rbp
	.cfi_def_cfa_register %rbp
	pushq	%rax
	movl	%edi, -4(%rbp)
Ltmp208:
	.loc	31 10 9 prologue_end
	movl	%edi, -8(%rbp)
	.loc	31 11 6
	movl	-8(%rbp), %eax
	addq	$8, %rsp
	popq	%rbp
	retq
Ltmp209:
Lfunc_end39:
	.cfi_endproc

	.p2align	4, 0x90
__ZN9crc32fast8baseline5State6update17h8f343d96170b3c18E:
Lfunc_begin40:
	.loc	31 13 0
	.cfi_startproc
	pushq	%rbp
	.cfi_def_cfa_offset 16
	.cfi_offset %rbp, -16
	movq	%rsp, %rbp
	.cfi_def_cfa_register %rbp
	subq	$32, %rsp
	movq	%rdi, -32(%rbp)
	movq	%rdi, -24(%rbp)
	movq	%rsi, -16(%rbp)
	movq	%rdx, -8(%rbp)
Ltmp210:
	.loc	31 14 37 prologue_end
	movl	(%rdi), %edi
	.loc	31 14 22 is_stmt 0
	callq	__ZN9crc32fast8baseline14update_fast_1617hd065e76adfcb94fbE
	movq	-32(%rbp), %rdi
	.loc	31 14 9
	movl	%eax, (%rdi)
	.loc	31 15 6 is_stmt 1
	addq	$32, %rsp
	popq	%rbp
	retq
Ltmp211:
Lfunc_end40:
	.cfi_endproc

	.p2align	4, 0x90
__ZN9crc32fast8baseline5State8finalize17hb5e716890ca98384E:
Lfunc_begin41:
	.loc	31 17 0
	.cfi_startproc
	pushq	%rbp
	.cfi_def_cfa_offset 16
	.cfi_offset %rbp, -16
	movq	%rsp, %rbp
	.cfi_def_cfa_register %rbp
	subq	$4, %rsp
	movl	%edi, %eax
	movl	%eax, -4(%rbp)
Ltmp212:
	.loc	31 19 6 prologue_end
	addq	$4, %rsp
	popq	%rbp
	retq
Ltmp213:
Lfunc_end41:
	.cfi_endproc

	.p2align	4, 0x90
__ZN9crc32fast8baseline5State5reset17h6036dc3384d2156dE:
Lfunc_begin42:
	.loc	31 21 0
	.cfi_startproc
	pushq	%rbp
	.cfi_def_cfa_offset 16
	.cfi_offset %rbp, -16
	movq	%rsp, %rbp
	.cfi_def_cfa_register %rbp
	pushq	%rax
	movq	%rdi, -8(%rbp)
Ltmp214:
	.loc	31 22 9 prologue_end
	movl	$0, (%rdi)
	.loc	31 23 6
	addq	$8, %rsp
	popq	%rbp
	retq
Ltmp215:
Lfunc_end42:
	.cfi_endproc

	.p2align	4, 0x90
__ZN9crc32fast8baseline5State7combine17hc18f307da5b6fb0eE:
Lfunc_begin43:
	.loc	31 25 0
	.cfi_startproc
	pushq	%rbp
	.cfi_def_cfa_offset 16
	.cfi_offset %rbp, -16
	movq	%rsp, %rbp
	.cfi_def_cfa_register %rbp
	subq	$32, %rsp
	movq	%rdi, -32(%rbp)
	movq	%rdi, -24(%rbp)
	movl	%esi, -12(%rbp)
	movq	%rdx, -8(%rbp)
Ltmp216:
	.loc	31 26 41 prologue_end
	movl	(%rdi), %edi
	.loc	31 26 22 is_stmt 0
	callq	__ZN9crc32fast7combine7combine17hea13762fb068adb1E
	movq	-32(%rbp), %rdi
	.loc	31 26 9
	movl	%eax, (%rdi)
	.loc	31 27 6 is_stmt 1
	addq	$32, %rsp
	popq	%rbp
	retq
Ltmp217:
Lfunc_end43:
	.cfi_endproc

	.p2align	4, 0x90
__ZN9crc32fast8baseline14update_fast_1617hd065e76adfcb94fbE:
Lfunc_begin44:
	.loc	31 30 0
	.cfi_startproc
	pushq	%rbp
	.cfi_def_cfa_offset 16
	.cfi_offset %rbp, -16
	movq	%rsp, %rbp
	.cfi_def_cfa_register %rbp
	subq	$464, %rsp
	movq	%rsi, -88(%rbp)
	movq	%rdx, -80(%rbp)
	movl	%edi, -4(%rbp)
Ltmp218:
	.loc	31 34 19 prologue_end
	xorl	$-1, %edi
	movl	%edi, -68(%rbp)
LBB44_1:
Ltmp219:
	.loc	31 36 11
	cmpq	$64, -80(%rbp)
	jae	LBB44_3
	.loc	31 58 18
	movl	-68(%rbp), %edi
	.loc	31 58 17 is_stmt 0
	xorl	$-1, %edi
	.loc	31 58 23
	movq	-88(%rbp), %rsi
	movq	-80(%rbp), %rdx
	.loc	31 58 5
	callq	__ZN9crc32fast8baseline11update_slow17h339c0af6a23591b0E
Ltmp220:
	.loc	31 59 2 is_stmt 1
	addq	$464, %rsp
	popq	%rbp
	retq
LBB44_3:
Ltmp221:
	.loc	31 37 18
	movq	$0, -64(%rbp)
	movq	$4, -56(%rbp)
	movq	-64(%rbp), %rdi
	movq	-56(%rbp), %rsi
	callq	__ZN63_$LT$I$u20$as$u20$core..iter..traits..collect..IntoIterator$GT$9into_iter17hbf9bce8bee69b247E
	movq	%rax, -48(%rbp)
	movq	%rdx, -40(%rbp)
LBB44_4:
	.loc	31 0 18 is_stmt 0
	leaq	-48(%rbp), %rdi
Ltmp222:
	.loc	31 37 18
	callq	__ZN4core4iter5range101_$LT$impl$u20$core..iter..traits..iterator..Iterator$u20$for$u20$core..ops..range..Range$LT$A$GT$$GT$4next17hf4647cc5a90dc494E
	movq	%rdx, -24(%rbp)
	movq	%rax, -32(%rbp)
	cmpq	$0, -32(%rbp)
	je	LBB44_1
	.loc	31 38 36 is_stmt 1
	movq	-80(%rbp), %rcx
	movq	%rcx, -96(%rbp)
	movl	$15, %eax
	cmpq	%rcx, %rax
	setb	%al
	testb	$1, %al
	jne	LBB44_6
	jmp	LBB44_7
LBB44_6:
	movq	-88(%rbp), %rax
	movzbl	15(%rax), %eax
	movq	%rax, -104(%rbp)
	.loc	31 38 19 is_stmt 0
	cmpq	$256, %rax
	setb	%al
	testb	$1, %al
	jne	LBB44_8
	jmp	LBB44_9
LBB44_7:
	.loc	31 0 19
	movq	-96(%rbp), %rsi
	.loc	31 38 36
	leaq	l___unnamed_9(%rip), %rdx
	movl	$15, %edi
	callq	__ZN4core9panicking18panic_bounds_check17hacb8a94866cda541E
LBB44_8:
	.loc	31 0 36
	movq	-104(%rbp), %rcx
	.loc	31 38 19
	leaq	__ZN9crc32fast5table11CRC32_TABLE17h2555912cf3d6bd3cE(%rip), %rax
	movl	(%rax,%rcx,4), %eax
	movl	%eax, -116(%rbp)
	.loc	31 39 36 is_stmt 1
	movq	-80(%rbp), %rcx
	movq	%rcx, -112(%rbp)
	movl	$14, %eax
	cmpq	%rcx, %rax
	setb	%al
	testb	$1, %al
	jne	LBB44_10
	jmp	LBB44_11
LBB44_9:
	.loc	31 0 36 is_stmt 0
	movq	-104(%rbp), %rdi
	.loc	31 38 19 is_stmt 1
	leaq	l___unnamed_10(%rip), %rdx
	movl	$256, %esi
	callq	__ZN4core9panicking18panic_bounds_check17hacb8a94866cda541E
LBB44_10:
	.loc	31 39 36
	movq	-88(%rbp), %rax
	movzbl	14(%rax), %eax
	movq	%rax, -128(%rbp)
	.loc	31 39 19 is_stmt 0
	cmpq	$256, %rax
	setb	%al
	testb	$1, %al
	jne	LBB44_12
	jmp	LBB44_13
LBB44_11:
	.loc	31 0 19
	movq	-112(%rbp), %rsi
	.loc	31 39 36
	leaq	l___unnamed_11(%rip), %rdx
	movl	$14, %edi
	callq	__ZN4core9panicking18panic_bounds_check17hacb8a94866cda541E
LBB44_12:
	.loc	31 0 36
	movq	-128(%rbp), %rdx
	movl	-116(%rbp), %eax
	.loc	31 38 19 is_stmt 1
	leaq	__ZN9crc32fast5table11CRC32_TABLE17h2555912cf3d6bd3cE(%rip), %rcx
	xorl	1024(%rcx,%rdx,4), %eax
	movl	%eax, -140(%rbp)
	.loc	31 40 36
	movq	-80(%rbp), %rcx
	movq	%rcx, -136(%rbp)
	movl	$13, %eax
	cmpq	%rcx, %rax
	setb	%al
	testb	$1, %al
	jne	LBB44_14
	jmp	LBB44_15
LBB44_13:
	.loc	31 0 36 is_stmt 0
	movq	-128(%rbp), %rdi
	.loc	31 39 19 is_stmt 1
	leaq	l___unnamed_12(%rip), %rdx
	movl	$256, %esi
	callq	__ZN4core9panicking18panic_bounds_check17hacb8a94866cda541E
LBB44_14:
	.loc	31 40 36
	movq	-88(%rbp), %rax
	movzbl	13(%rax), %eax
	movq	%rax, -152(%rbp)
	.loc	31 40 19 is_stmt 0
	cmpq	$256, %rax
	setb	%al
	testb	$1, %al
	jne	LBB44_16
	jmp	LBB44_17
LBB44_15:
	.loc	31 0 19
	movq	-136(%rbp), %rsi
	.loc	31 40 36
	leaq	l___unnamed_13(%rip), %rdx
	movl	$13, %edi
	callq	__ZN4core9panicking18panic_bounds_check17hacb8a94866cda541E
LBB44_16:
	.loc	31 0 36
	movq	-152(%rbp), %rdx
	movl	-140(%rbp), %eax
	.loc	31 38 19 is_stmt 1
	leaq	__ZN9crc32fast5table11CRC32_TABLE17h2555912cf3d6bd3cE(%rip), %rcx
	xorl	2048(%rcx,%rdx,4), %eax
	movl	%eax, -164(%rbp)
	.loc	31 41 36
	movq	-80(%rbp), %rcx
	movq	%rcx, -160(%rbp)
	movl	$12, %eax
	cmpq	%rcx, %rax
	setb	%al
	testb	$1, %al
	jne	LBB44_18
	jmp	LBB44_19
LBB44_17:
	.loc	31 0 36 is_stmt 0
	movq	-152(%rbp), %rdi
	.loc	31 40 19 is_stmt 1
	leaq	l___unnamed_14(%rip), %rdx
	movl	$256, %esi
	callq	__ZN4core9panicking18panic_bounds_check17hacb8a94866cda541E
LBB44_18:
	.loc	31 41 36
	movq	-88(%rbp), %rax
	movzbl	12(%rax), %eax
	movq	%rax, -176(%rbp)
	.loc	31 41 19 is_stmt 0
	cmpq	$256, %rax
	setb	%al
	testb	$1, %al
	jne	LBB44_20
	jmp	LBB44_21
LBB44_19:
	.loc	31 0 19
	movq	-160(%rbp), %rsi
	.loc	31 41 36
	leaq	l___unnamed_15(%rip), %rdx
	movl	$12, %edi
	callq	__ZN4core9panicking18panic_bounds_check17hacb8a94866cda541E
LBB44_20:
	.loc	31 0 36
	movq	-176(%rbp), %rdx
	movl	-164(%rbp), %eax
	.loc	31 38 19 is_stmt 1
	leaq	__ZN9crc32fast5table11CRC32_TABLE17h2555912cf3d6bd3cE(%rip), %rcx
	xorl	3072(%rcx,%rdx,4), %eax
	movl	%eax, -188(%rbp)
	.loc	31 42 36
	movq	-80(%rbp), %rcx
	movq	%rcx, -184(%rbp)
	movl	$11, %eax
	cmpq	%rcx, %rax
	setb	%al
	testb	$1, %al
	jne	LBB44_22
	jmp	LBB44_23
LBB44_21:
	.loc	31 0 36 is_stmt 0
	movq	-176(%rbp), %rdi
	.loc	31 41 19 is_stmt 1
	leaq	l___unnamed_16(%rip), %rdx
	movl	$256, %esi
	callq	__ZN4core9panicking18panic_bounds_check17hacb8a94866cda541E
LBB44_22:
	.loc	31 42 36
	movq	-88(%rbp), %rax
	movzbl	11(%rax), %eax
	movq	%rax, -200(%rbp)
	.loc	31 42 19 is_stmt 0
	cmpq	$256, %rax
	setb	%al
	testb	$1, %al
	jne	LBB44_24
	jmp	LBB44_25
LBB44_23:
	.loc	31 0 19
	movq	-184(%rbp), %rsi
	.loc	31 42 36
	leaq	l___unnamed_17(%rip), %rdx
	movl	$11, %edi
	callq	__ZN4core9panicking18panic_bounds_check17hacb8a94866cda541E
LBB44_24:
	.loc	31 0 36
	movq	-200(%rbp), %rdx
	movl	-188(%rbp), %eax
	.loc	31 38 19 is_stmt 1
	leaq	__ZN9crc32fast5table11CRC32_TABLE17h2555912cf3d6bd3cE(%rip), %rcx
	xorl	4096(%rcx,%rdx,4), %eax
	movl	%eax, -212(%rbp)
	.loc	31 43 36
	movq	-80(%rbp), %rcx
	movq	%rcx, -208(%rbp)
	movl	$10, %eax
	cmpq	%rcx, %rax
	setb	%al
	testb	$1, %al
	jne	LBB44_26
	jmp	LBB44_27
LBB44_25:
	.loc	31 0 36 is_stmt 0
	movq	-200(%rbp), %rdi
	.loc	31 42 19 is_stmt 1
	leaq	l___unnamed_18(%rip), %rdx
	movl	$256, %esi
	callq	__ZN4core9panicking18panic_bounds_check17hacb8a94866cda541E
LBB44_26:
	.loc	31 43 36
	movq	-88(%rbp), %rax
	movzbl	10(%rax), %eax
	movq	%rax, -224(%rbp)
	.loc	31 43 19 is_stmt 0
	cmpq	$256, %rax
	setb	%al
	testb	$1, %al
	jne	LBB44_28
	jmp	LBB44_29
LBB44_27:
	.loc	31 0 19
	movq	-208(%rbp), %rsi
	.loc	31 43 36
	leaq	l___unnamed_19(%rip), %rdx
	movl	$10, %edi
	callq	__ZN4core9panicking18panic_bounds_check17hacb8a94866cda541E
LBB44_28:
	.loc	31 0 36
	movq	-224(%rbp), %rdx
	movl	-212(%rbp), %eax
	.loc	31 38 19 is_stmt 1
	leaq	__ZN9crc32fast5table11CRC32_TABLE17h2555912cf3d6bd3cE(%rip), %rcx
	xorl	5120(%rcx,%rdx,4), %eax
	movl	%eax, -236(%rbp)
	.loc	31 44 36
	movq	-80(%rbp), %rcx
	movq	%rcx, -232(%rbp)
	movl	$9, %eax
	cmpq	%rcx, %rax
	setb	%al
	testb	$1, %al
	jne	LBB44_30
	jmp	LBB44_31
LBB44_29:
	.loc	31 0 36 is_stmt 0
	movq	-224(%rbp), %rdi
	.loc	31 43 19 is_stmt 1
	leaq	l___unnamed_20(%rip), %rdx
	movl	$256, %esi
	callq	__ZN4core9panicking18panic_bounds_check17hacb8a94866cda541E
LBB44_30:
	.loc	31 44 36
	movq	-88(%rbp), %rax
	movzbl	9(%rax), %eax
	movq	%rax, -248(%rbp)
	.loc	31 44 19 is_stmt 0
	cmpq	$256, %rax
	setb	%al
	testb	$1, %al
	jne	LBB44_32
	jmp	LBB44_33
LBB44_31:
	.loc	31 0 19
	movq	-232(%rbp), %rsi
	.loc	31 44 36
	leaq	l___unnamed_21(%rip), %rdx
	movl	$9, %edi
	callq	__ZN4core9panicking18panic_bounds_check17hacb8a94866cda541E
LBB44_32:
	.loc	31 0 36
	movq	-248(%rbp), %rdx
	movl	-236(%rbp), %eax
	.loc	31 38 19 is_stmt 1
	leaq	__ZN9crc32fast5table11CRC32_TABLE17h2555912cf3d6bd3cE(%rip), %rcx
	xorl	6144(%rcx,%rdx,4), %eax
	movl	%eax, -260(%rbp)
	.loc	31 45 36
	movq	-80(%rbp), %rcx
	movq	%rcx, -256(%rbp)
	movl	$8, %eax
	cmpq	%rcx, %rax
	setb	%al
	testb	$1, %al
	jne	LBB44_34
	jmp	LBB44_35
LBB44_33:
	.loc	31 0 36 is_stmt 0
	movq	-248(%rbp), %rdi
	.loc	31 44 19 is_stmt 1
	leaq	l___unnamed_22(%rip), %rdx
	movl	$256, %esi
	callq	__ZN4core9panicking18panic_bounds_check17hacb8a94866cda541E
LBB44_34:
	.loc	31 45 36
	movq	-88(%rbp), %rax
	movzbl	8(%rax), %eax
	movq	%rax, -272(%rbp)
	.loc	31 45 19 is_stmt 0
	cmpq	$256, %rax
	setb	%al
	testb	$1, %al
	jne	LBB44_36
	jmp	LBB44_37
LBB44_35:
	.loc	31 0 19
	movq	-256(%rbp), %rsi
	.loc	31 45 36
	leaq	l___unnamed_23(%rip), %rdx
	movl	$8, %edi
	callq	__ZN4core9panicking18panic_bounds_check17hacb8a94866cda541E
LBB44_36:
	.loc	31 0 36
	movq	-272(%rbp), %rdx
	movl	-260(%rbp), %eax
	.loc	31 38 19 is_stmt 1
	leaq	__ZN9crc32fast5table11CRC32_TABLE17h2555912cf3d6bd3cE(%rip), %rcx
	xorl	7168(%rcx,%rdx,4), %eax
	movl	%eax, -284(%rbp)
	.loc	31 46 36
	movq	-80(%rbp), %rcx
	movq	%rcx, -280(%rbp)
	movl	$7, %eax
	cmpq	%rcx, %rax
	setb	%al
	testb	$1, %al
	jne	LBB44_38
	jmp	LBB44_39
LBB44_37:
	.loc	31 0 36 is_stmt 0
	movq	-272(%rbp), %rdi
	.loc	31 45 19 is_stmt 1
	leaq	l___unnamed_24(%rip), %rdx
	movl	$256, %esi
	callq	__ZN4core9panicking18panic_bounds_check17hacb8a94866cda541E
LBB44_38:
	.loc	31 46 36
	movq	-88(%rbp), %rax
	movzbl	7(%rax), %eax
	movq	%rax, -296(%rbp)
	.loc	31 46 19 is_stmt 0
	cmpq	$256, %rax
	setb	%al
	testb	$1, %al
	jne	LBB44_40
	jmp	LBB44_41
LBB44_39:
	.loc	31 0 19
	movq	-280(%rbp), %rsi
	.loc	31 46 36
	leaq	l___unnamed_25(%rip), %rdx
	movl	$7, %edi
	callq	__ZN4core9panicking18panic_bounds_check17hacb8a94866cda541E
LBB44_40:
	.loc	31 0 36
	movq	-296(%rbp), %rdx
	movl	-284(%rbp), %eax
	.loc	31 38 19 is_stmt 1
	leaq	__ZN9crc32fast5table11CRC32_TABLE17h2555912cf3d6bd3cE(%rip), %rcx
	xorl	8192(%rcx,%rdx,4), %eax
	movl	%eax, -308(%rbp)
	.loc	31 47 36
	movq	-80(%rbp), %rcx
	movq	%rcx, -304(%rbp)
	movl	$6, %eax
	cmpq	%rcx, %rax
	setb	%al
	testb	$1, %al
	jne	LBB44_42
	jmp	LBB44_43
LBB44_41:
	.loc	31 0 36 is_stmt 0
	movq	-296(%rbp), %rdi
	.loc	31 46 19 is_stmt 1
	leaq	l___unnamed_26(%rip), %rdx
	movl	$256, %esi
	callq	__ZN4core9panicking18panic_bounds_check17hacb8a94866cda541E
LBB44_42:
	.loc	31 47 36
	movq	-88(%rbp), %rax
	movzbl	6(%rax), %eax
	movq	%rax, -320(%rbp)
	.loc	31 47 19 is_stmt 0
	cmpq	$256, %rax
	setb	%al
	testb	$1, %al
	jne	LBB44_44
	jmp	LBB44_45
LBB44_43:
	.loc	31 0 19
	movq	-304(%rbp), %rsi
	.loc	31 47 36
	leaq	l___unnamed_27(%rip), %rdx
	movl	$6, %edi
	callq	__ZN4core9panicking18panic_bounds_check17hacb8a94866cda541E
LBB44_44:
	.loc	31 0 36
	movq	-320(%rbp), %rdx
	movl	-308(%rbp), %eax
	.loc	31 38 19 is_stmt 1
	leaq	__ZN9crc32fast5table11CRC32_TABLE17h2555912cf3d6bd3cE(%rip), %rcx
	xorl	9216(%rcx,%rdx,4), %eax
	movl	%eax, -332(%rbp)
	.loc	31 48 36
	movq	-80(%rbp), %rcx
	movq	%rcx, -328(%rbp)
	movl	$5, %eax
	cmpq	%rcx, %rax
	setb	%al
	testb	$1, %al
	jne	LBB44_46
	jmp	LBB44_47
LBB44_45:
	.loc	31 0 36 is_stmt 0
	movq	-320(%rbp), %rdi
	.loc	31 47 19 is_stmt 1
	leaq	l___unnamed_28(%rip), %rdx
	movl	$256, %esi
	callq	__ZN4core9panicking18panic_bounds_check17hacb8a94866cda541E
LBB44_46:
	.loc	31 48 36
	movq	-88(%rbp), %rax
	movzbl	5(%rax), %eax
	movq	%rax, -344(%rbp)
	.loc	31 48 19 is_stmt 0
	cmpq	$256, %rax
	setb	%al
	testb	$1, %al
	jne	LBB44_48
	jmp	LBB44_49
LBB44_47:
	.loc	31 0 19
	movq	-328(%rbp), %rsi
	.loc	31 48 36
	leaq	l___unnamed_29(%rip), %rdx
	movl	$5, %edi
	callq	__ZN4core9panicking18panic_bounds_check17hacb8a94866cda541E
LBB44_48:
	.loc	31 0 36
	movq	-344(%rbp), %rdx
	movl	-332(%rbp), %eax
	.loc	31 38 19 is_stmt 1
	leaq	__ZN9crc32fast5table11CRC32_TABLE17h2555912cf3d6bd3cE(%rip), %rcx
	xorl	10240(%rcx,%rdx,4), %eax
	movl	%eax, -356(%rbp)
	.loc	31 49 36
	movq	-80(%rbp), %rcx
	movq	%rcx, -352(%rbp)
	movl	$4, %eax
	cmpq	%rcx, %rax
	setb	%al
	testb	$1, %al
	jne	LBB44_50
	jmp	LBB44_51
LBB44_49:
	.loc	31 0 36 is_stmt 0
	movq	-344(%rbp), %rdi
	.loc	31 48 19 is_stmt 1
	leaq	l___unnamed_30(%rip), %rdx
	movl	$256, %esi
	callq	__ZN4core9panicking18panic_bounds_check17hacb8a94866cda541E
LBB44_50:
	.loc	31 49 36
	movq	-88(%rbp), %rax
	movzbl	4(%rax), %eax
	movq	%rax, -368(%rbp)
	.loc	31 49 19 is_stmt 0
	cmpq	$256, %rax
	setb	%al
	testb	$1, %al
	jne	LBB44_52
	jmp	LBB44_53
LBB44_51:
	.loc	31 0 19
	movq	-352(%rbp), %rsi
	.loc	31 49 36
	leaq	l___unnamed_31(%rip), %rdx
	movl	$4, %edi
	callq	__ZN4core9panicking18panic_bounds_check17hacb8a94866cda541E
LBB44_52:
	.loc	31 0 36
	movq	-368(%rbp), %rdx
	movl	-356(%rbp), %eax
	.loc	31 38 19 is_stmt 1
	leaq	__ZN9crc32fast5table11CRC32_TABLE17h2555912cf3d6bd3cE(%rip), %rcx
	xorl	11264(%rcx,%rdx,4), %eax
	movl	%eax, -380(%rbp)
	.loc	31 50 36
	movq	-80(%rbp), %rcx
	movq	%rcx, -376(%rbp)
	movl	$3, %eax
	cmpq	%rcx, %rax
	setb	%al
	testb	$1, %al
	jne	LBB44_54
	jmp	LBB44_55
LBB44_53:
	.loc	31 0 36 is_stmt 0
	movq	-368(%rbp), %rdi
	.loc	31 49 19 is_stmt 1
	leaq	l___unnamed_32(%rip), %rdx
	movl	$256, %esi
	callq	__ZN4core9panicking18panic_bounds_check17hacb8a94866cda541E
LBB44_54:
	.loc	31 50 36
	movq	-88(%rbp), %rax
	movzbl	3(%rax), %eax
	.loc	31 50 58 is_stmt 0
	movl	-68(%rbp), %ecx
	.loc	31 50 57
	shrl	$24, %ecx
	.loc	31 50 56
	andl	$255, %ecx
	movl	%ecx, %ecx
	.loc	31 50 36
	xorq	%rcx, %rax
	movq	%rax, -392(%rbp)
	.loc	31 50 19
	cmpq	$256, %rax
	setb	%al
	testb	$1, %al
	jne	LBB44_56
	jmp	LBB44_57
LBB44_55:
	.loc	31 0 19
	movq	-376(%rbp), %rsi
	.loc	31 50 36
	leaq	l___unnamed_33(%rip), %rdx
	movl	$3, %edi
	callq	__ZN4core9panicking18panic_bounds_check17hacb8a94866cda541E
LBB44_56:
	.loc	31 0 36
	movq	-392(%rbp), %rdx
	movl	-380(%rbp), %eax
	.loc	31 38 19 is_stmt 1
	leaq	__ZN9crc32fast5table11CRC32_TABLE17h2555912cf3d6bd3cE(%rip), %rcx
	xorl	12288(%rcx,%rdx,4), %eax
	movl	%eax, -404(%rbp)
	.loc	31 51 36
	movq	-80(%rbp), %rcx
	movq	%rcx, -400(%rbp)
	movl	$2, %eax
	cmpq	%rcx, %rax
	setb	%al
	testb	$1, %al
	jne	LBB44_58
	jmp	LBB44_59
LBB44_57:
	.loc	31 0 36 is_stmt 0
	movq	-392(%rbp), %rdi
	.loc	31 50 19 is_stmt 1
	leaq	l___unnamed_34(%rip), %rdx
	movl	$256, %esi
	callq	__ZN4core9panicking18panic_bounds_check17hacb8a94866cda541E
LBB44_58:
	.loc	31 51 36
	movq	-88(%rbp), %rax
	movzbl	2(%rax), %eax
	.loc	31 51 58 is_stmt 0
	movl	-68(%rbp), %ecx
	.loc	31 51 57
	shrl	$16, %ecx
	.loc	31 51 56
	andl	$255, %ecx
	movl	%ecx, %ecx
	.loc	31 51 36
	xorq	%rcx, %rax
	movq	%rax, -416(%rbp)
	.loc	31 51 19
	cmpq	$256, %rax
	setb	%al
	testb	$1, %al
	jne	LBB44_60
	jmp	LBB44_61
LBB44_59:
	.loc	31 0 19
	movq	-400(%rbp), %rsi
	.loc	31 51 36
	leaq	l___unnamed_35(%rip), %rdx
	movl	$2, %edi
	callq	__ZN4core9panicking18panic_bounds_check17hacb8a94866cda541E
LBB44_60:
	.loc	31 0 36
	movq	-416(%rbp), %rdx
	movl	-404(%rbp), %eax
	.loc	31 38 19 is_stmt 1
	leaq	__ZN9crc32fast5table11CRC32_TABLE17h2555912cf3d6bd3cE(%rip), %rcx
	xorl	13312(%rcx,%rdx,4), %eax
	movl	%eax, -428(%rbp)
	.loc	31 52 36
	movq	-80(%rbp), %rcx
	movq	%rcx, -424(%rbp)
	movl	$1, %eax
	cmpq	%rcx, %rax
	setb	%al
	testb	$1, %al
	jne	LBB44_62
	jmp	LBB44_63
LBB44_61:
	.loc	31 0 36 is_stmt 0
	movq	-416(%rbp), %rdi
	.loc	31 51 19 is_stmt 1
	leaq	l___unnamed_36(%rip), %rdx
	movl	$256, %esi
	callq	__ZN4core9panicking18panic_bounds_check17hacb8a94866cda541E
LBB44_62:
	.loc	31 52 36
	movq	-88(%rbp), %rax
	movzbl	1(%rax), %eax
	.loc	31 52 58 is_stmt 0
	movl	-68(%rbp), %ecx
	.loc	31 52 57
	shrl	$8, %ecx
	.loc	31 52 56
	andl	$255, %ecx
	movl	%ecx, %ecx
	.loc	31 52 36
	xorq	%rcx, %rax
	movq	%rax, -440(%rbp)
	.loc	31 52 19
	cmpq	$256, %rax
	setb	%al
	testb	$1, %al
	jne	LBB44_64
	jmp	LBB44_65
LBB44_63:
	.loc	31 0 19
	movq	-424(%rbp), %rsi
	.loc	31 52 36
	leaq	l___unnamed_37(%rip), %rdx
	movl	$1, %edi
	callq	__ZN4core9panicking18panic_bounds_check17hacb8a94866cda541E
LBB44_64:
	.loc	31 0 36
	movq	-440(%rbp), %rdx
	movl	-428(%rbp), %eax
	.loc	31 38 19 is_stmt 1
	leaq	__ZN9crc32fast5table11CRC32_TABLE17h2555912cf3d6bd3cE(%rip), %rcx
	xorl	14336(%rcx,%rdx,4), %eax
	movl	%eax, -452(%rbp)
	.loc	31 53 36
	movq	-80(%rbp), %rcx
	movq	%rcx, -448(%rbp)
	xorl	%eax, %eax
	cmpq	%rcx, %rax
	setb	%al
	testb	$1, %al
	jne	LBB44_66
	jmp	LBB44_67
LBB44_65:
	.loc	31 0 36 is_stmt 0
	movq	-440(%rbp), %rdi
	.loc	31 52 19 is_stmt 1
	leaq	l___unnamed_38(%rip), %rdx
	movl	$256, %esi
	callq	__ZN4core9panicking18panic_bounds_check17hacb8a94866cda541E
LBB44_66:
	.loc	31 53 36
	movq	-88(%rbp), %rax
	movzbl	(%rax), %eax
	.loc	31 53 58 is_stmt 0
	movl	-68(%rbp), %ecx
	.loc	31 53 57
	shrl	$0, %ecx
	.loc	31 53 56
	andl	$255, %ecx
	movl	%ecx, %ecx
	.loc	31 53 36
	xorq	%rcx, %rax
	movq	%rax, -464(%rbp)
	.loc	31 53 19
	cmpq	$256, %rax
	setb	%al
	testb	$1, %al
	jne	LBB44_68
	jmp	LBB44_69
LBB44_67:
	.loc	31 0 19
	movq	-448(%rbp), %rsi
	.loc	31 53 36
	leaq	l___unnamed_39(%rip), %rdx
	xorl	%eax, %eax
	movl	%eax, %edi
	callq	__ZN4core9panicking18panic_bounds_check17hacb8a94866cda541E
LBB44_68:
	.loc	31 0 36
	movq	-464(%rbp), %rdx
	movl	-452(%rbp), %eax
	.loc	31 38 13 is_stmt 1
	leaq	__ZN9crc32fast5table11CRC32_TABLE17h2555912cf3d6bd3cE(%rip), %rcx
	xorl	15360(%rcx,%rdx,4), %eax
	movl	%eax, -68(%rbp)
	.loc	31 54 20
	movq	-88(%rbp), %rdi
	movq	-80(%rbp), %rsi
	.loc	31 54 24 is_stmt 0
	movq	$16, -16(%rbp)
	.loc	31 54 20
	movq	-16(%rbp), %rdx
	leaq	l___unnamed_40(%rip), %rcx
	callq	__ZN4core5slice5index74_$LT$impl$u20$core..ops..index..Index$LT$I$GT$$u20$for$u20$$u5b$T$u5d$$GT$5index17h5dfc98d9fdc438c7E
	.loc	31 54 13
	movq	%rax, -88(%rbp)
	movq	%rdx, -80(%rbp)
	.loc	31 37 9 is_stmt 1
	jmp	LBB44_4
LBB44_69:
	.loc	31 0 9 is_stmt 0
	movq	-464(%rbp), %rdi
	.loc	31 53 19 is_stmt 1
	leaq	l___unnamed_41(%rip), %rdx
	movl	$256, %esi
	callq	__ZN4core9panicking18panic_bounds_check17hacb8a94866cda541E
Ltmp223:
Lfunc_end44:
	.cfi_endproc

	.p2align	4, 0x90
__ZN9crc32fast8baseline11update_slow17h339c0af6a23591b0E:
Lfunc_begin45:
	.loc	31 61 0
	.cfi_startproc
	pushq	%rbp
	.cfi_def_cfa_offset 16
	.cfi_offset %rbp, -16
	movq	%rsp, %rbp
	.cfi_def_cfa_register %rbp
	subq	$96, %rsp
	movq	%rdx, -80(%rbp)
	movq	%rsi, %rax
	movq	-80(%rbp), %rsi
	movq	%rax, -72(%rbp)
	movl	%edi, %eax
	movq	-72(%rbp), %rdi
	movl	%eax, -28(%rbp)
	movq	%rdi, -24(%rbp)
	movq	%rsi, -16(%rbp)
Ltmp224:
	.loc	31 62 19 prologue_end
	xorl	$-1, %eax
	movl	%eax, -60(%rbp)
Ltmp225:
	.loc	31 64 18
	callq	__ZN4core5slice29_$LT$impl$u20$$u5b$T$u5d$$GT$4iter17h58c0bdc39c436fc8E
	movq	%rax, %rdi
	movq	%rdx, %rsi
	callq	__ZN63_$LT$I$u20$as$u20$core..iter..traits..collect..IntoIterator$GT$9into_iter17h2e17689b8522dee3E
	movq	%rax, -56(%rbp)
	movq	%rdx, -48(%rbp)
LBB45_1:
Ltmp226:
	.loc	31 64 18 is_stmt 0
	leaq	-56(%rbp), %rdi
	callq	__ZN91_$LT$core..slice..iter..Iter$LT$T$GT$$u20$as$u20$core..iter..traits..iterator..Iterator$GT$4next17hfb0032ca039d4398E
	movq	%rax, -40(%rbp)
	movq	-40(%rbp), %rdx
	movl	$1, %eax
	xorl	%ecx, %ecx
	cmpq	$0, %rdx
	cmoveq	%rcx, %rax
	cmpq	$0, %rax
	jne	LBB45_3
Ltmp227:
	.loc	31 68 6 is_stmt 1
	movl	-60(%rbp), %eax
	.loc	31 68 5 is_stmt 0
	xorl	$-1, %eax
Ltmp228:
	.loc	31 69 2 is_stmt 1
	addq	$96, %rsp
	popq	%rbp
	retq
LBB45_3:
Ltmp229:
	.loc	31 64 10
	movq	-40(%rbp), %rax
	movb	(%rax), %cl
	movb	%cl, -1(%rbp)
Ltmp230:
	.loc	31 65 32
	movl	-60(%rbp), %eax
	.loc	31 65 30 is_stmt 0
	xorb	%cl, %al
	movzbl	%al, %eax
	movq	%rax, -88(%rbp)
	.loc	31 65 15
	cmpq	$256, %rax
	setb	%al
	testb	$1, %al
	jne	LBB45_4
	jmp	LBB45_5
LBB45_4:
	.loc	31 0 15
	movq	-88(%rbp), %rcx
	.loc	31 65 15
	leaq	__ZN9crc32fast5table11CRC32_TABLE17h2555912cf3d6bd3cE(%rip), %rax
	movl	(%rax,%rcx,4), %eax
	.loc	31 65 64
	movl	-60(%rbp), %ecx
	.loc	31 65 63
	shrl	$8, %ecx
	.loc	31 65 9
	xorl	%ecx, %eax
	movl	%eax, -60(%rbp)
Ltmp231:
	.loc	31 64 5 is_stmt 1
	jmp	LBB45_1
LBB45_5:
	.loc	31 0 5 is_stmt 0
	movq	-88(%rbp), %rdi
Ltmp232:
	.loc	31 65 15 is_stmt 1
	leaq	l___unnamed_42(%rip), %rdx
	movl	$256, %esi
	callq	__ZN4core9panicking18panic_bounds_check17hacb8a94866cda541E
Ltmp233:
Lfunc_end45:
	.cfi_endproc

	.p2align	4, 0x90
__ZN9crc32fast7combine16gf2_matrix_times17hc4bcf546ccc71e47E:
Lfunc_begin46:
	.file	32 "/Users/natalie/.cargo/registry/src/github.com-1ecc6299db9ec823/crc32fast-1.3.2" "src/combine.rs"
	.loc	32 3 0
	.cfi_startproc
	pushq	%rbp
	.cfi_def_cfa_offset 16
	.cfi_offset %rbp, -16
	movq	%rsp, %rbp
	.cfi_def_cfa_register %rbp
	subq	$48, %rsp
	movq	%rdi, -32(%rbp)
	movl	%esi, -24(%rbp)
	movq	%rdi, -8(%rbp)
Ltmp234:
	.loc	32 4 19 prologue_end
	movl	$0, -20(%rbp)
Ltmp235:
	.loc	32 5 19
	movq	$0, -16(%rbp)
LBB46_1:
Ltmp236:
	.loc	32 6 11
	cmpl	$0, -24(%rbp)
	ja	LBB46_3
Ltmp237:
	.loc	32 14 2
	movl	-20(%rbp), %eax
	addq	$48, %rsp
	popq	%rbp
	retq
LBB46_3:
Ltmp238:
	.loc	32 7 12
	movl	-24(%rbp), %eax
	andl	$1, %eax
	cmpl	$1, %eax
	jne	LBB46_5
	.loc	32 8 24
	movq	-16(%rbp), %rax
	movq	%rax, -40(%rbp)
	.loc	32 8 20 is_stmt 0
	cmpq	$32, %rax
	setb	%al
	testb	$1, %al
	jne	LBB46_6
	jmp	LBB46_7
LBB46_5:
	.loc	32 10 9 is_stmt 1
	movl	-24(%rbp), %eax
	shrl	$1, %eax
	movl	%eax, -24(%rbp)
	.loc	32 11 9
	movq	-16(%rbp), %rax
	addq	$1, %rax
	movq	%rax, -48(%rbp)
	setb	%al
	testb	$1, %al
	jne	LBB46_9
	jmp	LBB46_8
LBB46_6:
	.loc	32 0 9 is_stmt 0
	movq	-32(%rbp), %rax
	movq	-40(%rbp), %rcx
	.loc	32 8 20 is_stmt 1
	movl	(%rax,%rcx,4), %eax
	.loc	32 8 13 is_stmt 0
	xorl	-20(%rbp), %eax
	movl	%eax, -20(%rbp)
	.loc	32 7 9 is_stmt 1
	jmp	LBB46_5
LBB46_7:
	.loc	32 0 9 is_stmt 0
	movq	-40(%rbp), %rdi
	.loc	32 8 20 is_stmt 1
	leaq	l___unnamed_43(%rip), %rdx
	movl	$32, %esi
	callq	__ZN4core9panicking18panic_bounds_check17hacb8a94866cda541E
LBB46_8:
	.loc	32 0 20 is_stmt 0
	movq	-48(%rbp), %rax
	.loc	32 11 9 is_stmt 1
	movq	%rax, -16(%rbp)
	.loc	32 6 5
	jmp	LBB46_1
LBB46_9:
	.loc	32 11 9
	leaq	_str.0(%rip), %rdi
	leaq	l___unnamed_44(%rip), %rdx
	movl	$28, %esi
	callq	__ZN4core9panicking5panic17hc1bc45270cf64b03E
Ltmp239:
Lfunc_end46:
	.cfi_endproc

	.p2align	4, 0x90
__ZN9crc32fast7combine17gf2_matrix_square17h22b51687f0770597E:
Lfunc_begin47:
	.loc	32 16 0
	.cfi_startproc
	pushq	%rbp
	.cfi_def_cfa_offset 16
	.cfi_offset %rbp, -16
	movq	%rsp, %rbp
	.cfi_def_cfa_register %rbp
	subq	$112, %rsp
	movq	%rdi, -88(%rbp)
	movq	%rsi, -80(%rbp)
	movq	%rdi, -24(%rbp)
	movq	%rsi, -16(%rbp)
Ltmp240:
	.loc	32 17 14 prologue_end
	movq	$0, -72(%rbp)
	movq	$32, -64(%rbp)
	movq	-72(%rbp), %rdi
	movq	-64(%rbp), %rsi
	callq	__ZN63_$LT$I$u20$as$u20$core..iter..traits..collect..IntoIterator$GT$9into_iter17hbf9bce8bee69b247E
	movq	%rax, -56(%rbp)
	movq	%rdx, -48(%rbp)
LBB47_1:
	.loc	32 0 14 is_stmt 0
	leaq	-56(%rbp), %rdi
Ltmp241:
	.loc	32 17 14
	callq	__ZN4core4iter5range101_$LT$impl$u20$core..iter..traits..iterator..Iterator$u20$for$u20$core..ops..range..Range$LT$A$GT$$GT$4next17hf4647cc5a90dc494E
	movq	%rdx, -32(%rbp)
	movq	%rax, -40(%rbp)
	cmpq	$0, -40(%rbp)
	jne	LBB47_3
Ltmp242:
	.loc	32 20 2 is_stmt 1
	addq	$112, %rsp
	popq	%rbp
	retq
LBB47_3:
Ltmp243:
	.loc	32 17 9
	movq	-32(%rbp), %rax
	movq	%rax, -96(%rbp)
	movq	%rax, -8(%rbp)
Ltmp244:
	.loc	32 18 43
	cmpq	$32, %rax
	setb	%al
	testb	$1, %al
	jne	LBB47_4
	jmp	LBB47_5
LBB47_4:
	.loc	32 0 43 is_stmt 0
	movq	-96(%rbp), %rax
	movq	-80(%rbp), %rdi
	.loc	32 18 43
	movl	(%rdi,%rax,4), %esi
	.loc	32 18 21
	callq	__ZN9crc32fast7combine16gf2_matrix_times17hc4bcf546ccc71e47E
	movl	%eax, %ecx
	movq	-96(%rbp), %rax
	movl	%ecx, -100(%rbp)
	.loc	32 18 9
	cmpq	$32, %rax
	setb	%al
	testb	$1, %al
	jne	LBB47_6
	jmp	LBB47_7
LBB47_5:
	.loc	32 0 9
	movq	-96(%rbp), %rdi
	.loc	32 18 43
	leaq	l___unnamed_45(%rip), %rdx
	movl	$32, %esi
	callq	__ZN4core9panicking18panic_bounds_check17hacb8a94866cda541E
LBB47_6:
	.loc	32 0 43
	movq	-88(%rbp), %rax
	movq	-96(%rbp), %rcx
	movl	-100(%rbp), %edx
	.loc	32 18 9
	movl	%edx, (%rax,%rcx,4)
Ltmp245:
	.loc	32 17 5 is_stmt 1
	jmp	LBB47_1
LBB47_7:
	.loc	32 0 5 is_stmt 0
	movq	-96(%rbp), %rdi
Ltmp246:
	.loc	32 18 9 is_stmt 1
	leaq	l___unnamed_46(%rip), %rdx
	movl	$32, %esi
	callq	__ZN4core9panicking18panic_bounds_check17hacb8a94866cda541E
Ltmp247:
Lfunc_end47:
	.cfi_endproc

	.p2align	4, 0x90
__ZN9crc32fast7combine7combine17hea13762fb068adb1E:
Lfunc_begin48:
	.loc	32 22 0
	.cfi_startproc
	pushq	%rbp
	.cfi_def_cfa_offset 16
	.cfi_offset %rbp, -16
	movq	%rsp, %rbp
	.cfi_def_cfa_register %rbp
	subq	$368, %rsp
	movl	%esi, -344(%rbp)
	movl	%edi, -340(%rbp)
	movq	%rdx, -336(%rbp)
	movl	%esi, -12(%rbp)
Ltmp248:
	.loc	32 24 20 prologue_end
	leaq	-320(%rbp), %rdi
	xorl	%esi, %esi
	movl	$128, %edx
	callq	_memset
Ltmp249:
	.loc	32 25 19
	leaq	-192(%rbp), %rdi
	xorl	%esi, %esi
	movl	$128, %edx
	callq	_memset
Ltmp250:
	.loc	32 28 8
	cmpq	$0, -336(%rbp)
	jbe	LBB48_2
	.loc	32 33 5
	movl	$-306674912, -192(%rbp)
	.loc	32 34 5
	movl	$1, -324(%rbp)
	.loc	32 35 14
	movq	$1, -64(%rbp)
	movq	$32, -56(%rbp)
	movq	-64(%rbp), %rdi
	movq	-56(%rbp), %rsi
	callq	__ZN63_$LT$I$u20$as$u20$core..iter..traits..collect..IntoIterator$GT$9into_iter17hbf9bce8bee69b247E
	movq	%rax, -48(%rbp)
	movq	%rdx, -40(%rbp)
Ltmp251:
	.loc	32 35 5 is_stmt 0
	jmp	LBB48_4
Ltmp252:
LBB48_2:
	.loc	32 29 16 is_stmt 1
	movl	-340(%rbp), %eax
	movl	%eax, -328(%rbp)
Ltmp253:
LBB48_3:
	.loc	32 77 2
	movl	-328(%rbp), %eax
	addq	$368, %rsp
	popq	%rbp
	retq
LBB48_4:
	.loc	32 0 2 is_stmt 0
	leaq	-48(%rbp), %rdi
Ltmp254:
	.loc	32 35 14 is_stmt 1
	callq	__ZN4core4iter5range101_$LT$impl$u20$core..iter..traits..iterator..Iterator$u20$for$u20$core..ops..range..Range$LT$A$GT$$GT$4next17hf4647cc5a90dc494E
	movq	%rdx, -24(%rbp)
	movq	%rax, -32(%rbp)
	cmpq	$0, -32(%rbp)
	jne	LBB48_6
Ltmp255:
	.loc	32 41 5
	leaq	-320(%rbp), %rdi
	leaq	-192(%rbp), %rsi
	callq	__ZN9crc32fast7combine17gf2_matrix_square17h22b51687f0770597E
	.loc	32 44 5
	leaq	-192(%rbp), %rdi
	leaq	-320(%rbp), %rsi
	callq	__ZN9crc32fast7combine17gf2_matrix_square17h22b51687f0770597E
	jmp	LBB48_9
LBB48_6:
Ltmp256:
	.loc	32 35 9
	movq	-24(%rbp), %rax
	movq	%rax, -360(%rbp)
	movq	%rax, -8(%rbp)
Ltmp257:
	.loc	32 36 18
	movl	-324(%rbp), %ecx
	movl	%ecx, -348(%rbp)
	.loc	32 36 9 is_stmt 0
	cmpq	$32, %rax
	setb	%al
	testb	$1, %al
	jne	LBB48_7
	jmp	LBB48_8
LBB48_7:
	.loc	32 0 9
	movq	-360(%rbp), %rax
	movl	-348(%rbp), %ecx
	.loc	32 36 9
	movl	%ecx, -192(%rbp,%rax,4)
	.loc	32 37 9 is_stmt 1
	movl	-324(%rbp), %eax
	shll	$1, %eax
	movl	%eax, -324(%rbp)
Ltmp258:
	.loc	32 35 5
	jmp	LBB48_4
LBB48_8:
	.loc	32 0 5 is_stmt 0
	movq	-360(%rbp), %rdi
Ltmp259:
	.loc	32 36 9 is_stmt 1
	leaq	l___unnamed_47(%rip), %rdx
	movl	$32, %esi
	callq	__ZN4core9panicking18panic_bounds_check17hacb8a94866cda541E
Ltmp260:
LBB48_9:
	.loc	32 50 9
	leaq	-320(%rbp), %rdi
	leaq	-192(%rbp), %rsi
	callq	__ZN9crc32fast7combine17gf2_matrix_square17h22b51687f0770597E
	.loc	32 51 12
	movq	-336(%rbp), %rax
	andq	$1, %rax
	cmpq	$1, %rax
	jne	LBB48_11
	.loc	32 52 44
	movl	-340(%rbp), %esi
	.loc	32 52 20 is_stmt 0
	leaq	-320(%rbp), %rdi
	callq	__ZN9crc32fast7combine16gf2_matrix_times17hc4bcf546ccc71e47E
	.loc	32 52 13
	movl	%eax, -340(%rbp)
LBB48_11:
	.loc	32 54 9 is_stmt 1
	movq	-336(%rbp), %rax
	shrq	$1, %rax
	movq	%rax, -336(%rbp)
	.loc	32 57 12
	cmpq	$0, -336(%rbp)
	jne	LBB48_13
LBB48_12:
	.loc	32 0 12 is_stmt 0
	movl	-344(%rbp), %eax
	.loc	32 75 5 is_stmt 1
	xorl	-340(%rbp), %eax
	movl	%eax, -340(%rbp)
	.loc	32 76 12
	movl	-340(%rbp), %eax
	movl	%eax, -328(%rbp)
	.loc	32 76 5 is_stmt 0
	jmp	LBB48_3
LBB48_13:
	.loc	32 62 9 is_stmt 1
	leaq	-192(%rbp), %rdi
	leaq	-320(%rbp), %rsi
	callq	__ZN9crc32fast7combine17gf2_matrix_square17h22b51687f0770597E
	.loc	32 63 12
	movq	-336(%rbp), %rax
	andq	$1, %rax
	cmpq	$1, %rax
	jne	LBB48_15
	.loc	32 64 43
	movl	-340(%rbp), %esi
	.loc	32 64 20 is_stmt 0
	leaq	-192(%rbp), %rdi
	callq	__ZN9crc32fast7combine16gf2_matrix_times17hc4bcf546ccc71e47E
	.loc	32 64 13
	movl	%eax, -340(%rbp)
LBB48_15:
	.loc	32 66 9 is_stmt 1
	movq	-336(%rbp), %rax
	shrq	$1, %rax
	movq	%rax, -336(%rbp)
	.loc	32 69 12
	cmpq	$0, -336(%rbp)
	je	LBB48_12
	jmp	LBB48_9
Ltmp261:
Lfunc_end48:
	.cfi_endproc

	.globl	__ZN9crc32fast4hash17hfd1db6364e2ef03aE
	.p2align	4, 0x90
__ZN9crc32fast4hash17hfd1db6364e2ef03aE:
Lfunc_begin49:
	.file	33 "/Users/natalie/.cargo/registry/src/github.com-1ecc6299db9ec823/crc32fast-1.3.2" "src/lib.rs"
	.loc	33 65 0
	.cfi_startproc
	pushq	%rbp
	.cfi_def_cfa_offset 16
	.cfi_offset %rbp, -16
	movq	%rsp, %rbp
	.cfi_def_cfa_register %rbp
	subq	$64, %rsp
	movq	%rdi, -64(%rbp)
	movq	%rsi, -56(%rbp)
	movq	%rdi, -16(%rbp)
	movq	%rsi, -8(%rbp)
Ltmp262:
	.loc	33 66 17 prologue_end
	leaq	-48(%rbp), %rdi
	callq	__ZN9crc32fast6Hasher3new17hb7754383210b257aE
	movq	-64(%rbp), %rsi
	movq	-56(%rbp), %rdx
Ltmp263:
	.loc	33 67 5
	leaq	-48(%rbp), %rdi
	callq	__ZN9crc32fast6Hasher6update17h54ed0e5ca59770d3E
	.loc	33 68 5
	movq	-48(%rbp), %rax
	movq	%rax, -32(%rbp)
	movq	-40(%rbp), %rax
	movq	%rax, -24(%rbp)
	leaq	-32(%rbp), %rdi
	callq	__ZN9crc32fast6Hasher8finalize17hb8154d50c7a38a99E
Ltmp264:
	.loc	33 69 2
	addq	$64, %rsp
	popq	%rbp
	retq
Ltmp265:
Lfunc_end49:
	.cfi_endproc

	.globl	__ZN9crc32fast6Hasher3new17hb7754383210b257aE
	.p2align	4, 0x90
__ZN9crc32fast6Hasher3new17hb7754383210b257aE:
Lfunc_begin50:
	.loc	33 91 0
	.cfi_startproc
	pushq	%rbp
	.cfi_def_cfa_offset 16
	.cfi_offset %rbp, -16
	movq	%rsp, %rbp
	.cfi_def_cfa_register %rbp
	subq	$16, %rsp
	movq	%rdi, %rax
	movq	%rax, -8(%rbp)
Ltmp266:
	.loc	33 92 9 prologue_end
	xorl	%esi, %esi
	callq	__ZN9crc32fast6Hasher16new_with_initial17h5f4529a12d633caeE
	movq	-8(%rbp), %rax
	.loc	33 93 6
	addq	$16, %rsp
	popq	%rbp
	retq
Ltmp267:
Lfunc_end50:
	.cfi_endproc

	.globl	__ZN9crc32fast6Hasher16new_with_initial17h5f4529a12d633caeE
	.p2align	4, 0x90
__ZN9crc32fast6Hasher16new_with_initial17h5f4529a12d633caeE:
Lfunc_begin51:
	.loc	33 99 0
	.cfi_startproc
	pushq	%rbp
	.cfi_def_cfa_offset 16
	.cfi_offset %rbp, -16
	movq	%rsp, %rbp
	.cfi_def_cfa_register %rbp
	subq	$16, %rsp
	movq	%rdi, %rax
	movq	%rax, -16(%rbp)
	movl	%esi, -4(%rbp)
Ltmp268:
	.loc	33 100 9 prologue_end
	xorl	%eax, %eax
	movl	%eax, %edx
	callq	__ZN9crc32fast6Hasher20new_with_initial_len17h8464a91d55fdc374E
	movq	-16(%rbp), %rax
	.loc	33 101 6
	addq	$16, %rsp
	popq	%rbp
	retq
Ltmp269:
Lfunc_end51:
	.cfi_endproc

	.globl	__ZN9crc32fast6Hasher20new_with_initial_len17h8464a91d55fdc374E
	.p2align	4, 0x90
__ZN9crc32fast6Hasher20new_with_initial_len17h8464a91d55fdc374E:
Lfunc_begin52:
	.loc	33 108 0
	.cfi_startproc
	pushq	%rbp
	.cfi_def_cfa_offset 16
	.cfi_offset %rbp, -16
	movq	%rsp, %rbp
	.cfi_def_cfa_register %rbp
	subq	$64, %rsp
	movq	%rdi, -64(%rbp)
	movq	%rdi, -56(%rbp)
	movl	%esi, -44(%rbp)
	movq	%rdx, -40(%rbp)
Ltmp270:
	.loc	33 109 40 prologue_end
	movl	-44(%rbp), %esi
	.loc	33 109 46 is_stmt 0
	movq	-40(%rbp), %rdx
	.loc	33 109 9
	leaq	-32(%rbp), %rdi
	callq	__ZN9crc32fast6Hasher24internal_new_specialized17h42128750147a190dE
	movq	-64(%rbp), %rdi
	.loc	33 110 29 is_stmt 1
	leaq	-44(%rbp), %rax
	movq	%rax, -16(%rbp)
	leaq	-40(%rbp), %rax
	movq	%rax, -8(%rbp)
	.loc	33 109 9
	movq	-16(%rbp), %rdx
	movq	-8(%rbp), %rcx
	leaq	-32(%rbp), %rsi
	callq	__ZN4core6option15Option$LT$T$GT$14unwrap_or_else17heefb3e387502d070E
	movq	-56(%rbp), %rax
	.loc	33 111 6
	addq	$64, %rsp
	popq	%rbp
	retq
Ltmp271:
Lfunc_end52:
	.cfi_endproc

	.p2align	4, 0x90
__ZN9crc32fast6Hasher20new_with_initial_len28_$u7b$$u7b$closure$u7d$$u7d$17hfc87f46d15bb5f73E:
Lfunc_begin53:
	.loc	33 110 0
	.cfi_startproc
	pushq	%rbp
	.cfi_def_cfa_offset 16
	.cfi_offset %rbp, -16
	movq	%rsp, %rbp
	.cfi_def_cfa_register %rbp
	subq	$32, %rsp
	movq	%rdi, %rax
	movq	%rax, -24(%rbp)
	movq	%rsi, -16(%rbp)
	movq	%rdx, -8(%rbp)
Ltmp272:
	.loc	33 110 60 prologue_end
	movq	-16(%rbp), %rax
	movl	(%rax), %esi
	.loc	33 110 66 is_stmt 0
	movq	-8(%rbp), %rax
	movq	(%rax), %rdx
	.loc	33 110 32
	callq	__ZN9crc32fast6Hasher21internal_new_baseline17h8dd5f093e35738cdE
	movq	-24(%rbp), %rax
	.loc	33 110 73
	addq	$32, %rsp
	popq	%rbp
	retq
Ltmp273:
Lfunc_end53:
	.cfi_endproc

	.globl	__ZN9crc32fast6Hasher21internal_new_baseline17h8dd5f093e35738cdE
	.p2align	4, 0x90
__ZN9crc32fast6Hasher21internal_new_baseline17h8dd5f093e35738cdE:
Lfunc_begin54:
	.loc	33 115 0 is_stmt 1
	.cfi_startproc
	pushq	%rbp
	.cfi_def_cfa_offset 16
	.cfi_offset %rbp, -16
	movq	%rsp, %rbp
	.cfi_def_cfa_register %rbp
	subq	$64, %rsp
	movq	%rdx, -48(%rbp)
	movl	%esi, -52(%rbp)
	movq	%rdi, %rax
	movl	-52(%rbp), %edi
	movq	%rax, -40(%rbp)
	movq	%rax, -32(%rbp)
	movl	%edi, -12(%rbp)
	movq	%rdx, -8(%rbp)
Ltmp274:
	.loc	33 118 36 prologue_end
	callq	__ZN9crc32fast8baseline5State3new17hdab539bbba318bf6E
	movq	-48(%rbp), %rdx
	movq	-40(%rbp), %rdi
	movl	%eax, %ecx
	movq	-32(%rbp), %rax
	.loc	33 118 20 is_stmt 0
	movl	%ecx, -20(%rbp)
	movl	$0, -24(%rbp)
	.loc	33 116 9 is_stmt 1
	movq	%rdx, (%rdi)
	movl	-24(%rbp), %edx
	movl	-20(%rbp), %ecx
	movl	%edx, 8(%rdi)
	movl	%ecx, 12(%rdi)
	.loc	33 120 6
	addq	$64, %rsp
	popq	%rbp
	retq
Ltmp275:
Lfunc_end54:
	.cfi_endproc

	.globl	__ZN9crc32fast6Hasher24internal_new_specialized17h42128750147a190dE
	.p2align	4, 0x90
__ZN9crc32fast6Hasher24internal_new_specialized17h42128750147a190dE:
Lfunc_begin55:
	.loc	33 124 0
	.cfi_startproc
	pushq	%rbp
	.cfi_def_cfa_offset 16
	.cfi_offset %rbp, -16
	movq	%rsp, %rbp
	.cfi_def_cfa_register %rbp
	subq	$96, %rsp
	movq	%rdx, -88(%rbp)
	movl	%esi, -76(%rbp)
	movq	%rdi, %rax
	movl	-76(%rbp), %edi
	movq	%rax, -72(%rbp)
	movq	%rax, -64(%rbp)
	movl	%edi, -20(%rbp)
	movq	%rdx, -16(%rbp)
Ltmp276:
	.loc	33 126 34 prologue_end
	callq	__ZN9crc32fast11specialized9pclmulqdq5State3new17he5852911921242ccE
	movl	%edx, -52(%rbp)
	movl	%eax, -56(%rbp)
	.loc	33 126 20 is_stmt 0
	movl	-56(%rbp), %eax
	cmpq	$1, %rax
	jne	LBB55_2
	.loc	33 0 20
	movq	-72(%rbp), %rax
	movq	-88(%rbp), %rcx
	.loc	33 126 25
	movl	-52(%rbp), %edx
	movl	%edx, -4(%rbp)
	.loc	33 129 28 is_stmt 1
	movl	%edx, -28(%rbp)
	movl	$1, -32(%rbp)
	.loc	33 127 29
	movq	%rcx, -48(%rbp)
	movl	-32(%rbp), %edx
	movl	-28(%rbp), %ecx
	movl	%edx, -40(%rbp)
	movl	%ecx, -36(%rbp)
	.loc	33 127 24 is_stmt 0
	movq	-48(%rbp), %rcx
	movq	%rcx, (%rax)
	movq	-40(%rbp), %rcx
	movq	%rcx, 8(%rax)
Ltmp277:
	.loc	33 134 6 is_stmt 1
	jmp	LBB55_3
LBB55_2:
	.loc	33 0 6 is_stmt 0
	movq	-72(%rbp), %rax
	.loc	33 133 9 is_stmt 1
	movl	$2, 8(%rax)
LBB55_3:
	.loc	33 0 9 is_stmt 0
	movq	-64(%rbp), %rax
	.loc	33 134 6 is_stmt 1
	addq	$96, %rsp
	popq	%rbp
	retq
Ltmp278:
Lfunc_end55:
	.cfi_endproc

	.globl	__ZN9crc32fast6Hasher6update17h54ed0e5ca59770d3E
	.p2align	4, 0x90
__ZN9crc32fast6Hasher6update17h54ed0e5ca59770d3E:
Lfunc_begin56:
	.loc	33 137 0
	.cfi_startproc
	pushq	%rbp
	.cfi_def_cfa_offset 16
	.cfi_offset %rbp, -16
	movq	%rsp, %rbp
	.cfi_def_cfa_register %rbp
	subq	$80, %rsp
	movq	%rdi, -72(%rbp)
	movq	%rsi, -64(%rbp)
	movq	%rdx, -56(%rbp)
	movq	%rdi, -40(%rbp)
	movq	%rsi, -32(%rbp)
	movq	%rdx, -24(%rbp)
Ltmp279:
	.loc	33 138 9 prologue_end
	addq	(%rdi), %rdx
	movq	%rdx, -48(%rbp)
	setb	%al
	testb	$1, %al
	jne	LBB56_2
	.loc	33 0 9 is_stmt 0
	movq	-72(%rbp), %rax
	movq	-48(%rbp), %rcx
	.loc	33 138 9
	movq	%rcx, (%rax)
	.loc	33 139 15 is_stmt 1
	movl	8(%rax), %eax
	.loc	33 139 9 is_stmt 0
	cmpq	$0, %rax
	je	LBB56_3
	jmp	LBB56_4
LBB56_2:
	.loc	33 138 9 is_stmt 1
	leaq	_str.0(%rip), %rdi
	leaq	l___unnamed_48(%rip), %rdx
	movl	$28, %esi
	callq	__ZN4core9panicking5panic17hc1bc45270cf64b03E
LBB56_3:
	.loc	33 0 9 is_stmt 0
	movq	-56(%rbp), %rdx
	movq	-64(%rbp), %rsi
	movq	-72(%rbp), %rdi
	.loc	33 140 29 is_stmt 1
	addq	$8, %rdi
	addq	$4, %rdi
	movq	%rdi, -8(%rbp)
Ltmp280:
	.loc	33 140 47 is_stmt 0
	callq	__ZN9crc32fast8baseline5State6update17h8f343d96170b3c18E
	jmp	LBB56_5
Ltmp281:
LBB56_4:
	.loc	33 0 47
	movq	-56(%rbp), %rdx
	movq	-64(%rbp), %rsi
	movq	-72(%rbp), %rdi
	.loc	33 141 32 is_stmt 1
	addq	$8, %rdi
	addq	$4, %rdi
	movq	%rdi, -16(%rbp)
Ltmp282:
	.loc	33 141 50 is_stmt 0
	callq	__ZN9crc32fast11specialized9pclmulqdq5State6update17ha1d0dbee126c5968E
Ltmp283:
LBB56_5:
	.loc	33 143 6 is_stmt 1
	addq	$80, %rsp
	popq	%rbp
	retq
Ltmp284:
Lfunc_end56:
	.cfi_endproc

	.globl	__ZN9crc32fast6Hasher8finalize17hb8154d50c7a38a99E
	.p2align	4, 0x90
__ZN9crc32fast6Hasher8finalize17hb8154d50c7a38a99E:
Lfunc_begin57:
	.loc	33 146 0
	.cfi_startproc
	pushq	%rbp
	.cfi_def_cfa_offset 16
	.cfi_offset %rbp, -16
	movq	%rsp, %rbp
	.cfi_def_cfa_register %rbp
	subq	$32, %rsp
	movq	%rdi, -24(%rbp)
Ltmp285:
	.loc	33 147 15 prologue_end
	movl	8(%rdi), %eax
	.loc	33 147 9 is_stmt 0
	cmpq	$0, %rax
Ltmp286:
	jne	LBB57_2
Ltmp287:
	.loc	33 0 9
	movq	-24(%rbp), %rax
	.loc	33 148 29 is_stmt 1
	movl	12(%rax), %edi
	movl	%edi, -4(%rbp)
Ltmp288:
	.loc	33 148 39 is_stmt 0
	callq	__ZN9crc32fast8baseline5State8finalize17hb5e716890ca98384E
	movl	%eax, -12(%rbp)
	jmp	LBB57_3
Ltmp289:
LBB57_2:
	.loc	33 0 39
	movq	-24(%rbp), %rax
	.loc	33 149 32 is_stmt 1
	movl	12(%rax), %edi
	movl	%edi, -8(%rbp)
Ltmp290:
	.loc	33 149 42 is_stmt 0
	callq	__ZN9crc32fast11specialized9pclmulqdq5State8finalize17hf721ff908111abb7E
	movl	%eax, -12(%rbp)
Ltmp291:
LBB57_3:
	.loc	33 151 6 is_stmt 1
	movl	-12(%rbp), %eax
	addq	$32, %rsp
	popq	%rbp
	retq
Ltmp292:
Lfunc_end57:
	.cfi_endproc

	.globl	__ZN9crc32fast6Hasher5reset17h720918fc631464d5E
	.p2align	4, 0x90
__ZN9crc32fast6Hasher5reset17h720918fc631464d5E:
Lfunc_begin58:
	.loc	33 154 0
	.cfi_startproc
	pushq	%rbp
	.cfi_def_cfa_offset 16
	.cfi_offset %rbp, -16
	movq	%rsp, %rbp
	.cfi_def_cfa_register %rbp
	subq	$32, %rsp
	movq	%rdi, -32(%rbp)
	movq	%rdi, -24(%rbp)
Ltmp293:
	.loc	33 155 9 prologue_end
	movq	$0, (%rdi)
	.loc	33 156 15
	movl	8(%rdi), %eax
	.loc	33 156 9 is_stmt 0
	cmpq	$0, %rax
	jne	LBB58_2
	.loc	33 0 9
	movq	-32(%rbp), %rdi
	.loc	33 157 29 is_stmt 1
	addq	$8, %rdi
	addq	$4, %rdi
	movq	%rdi, -8(%rbp)
Ltmp294:
	.loc	33 157 47 is_stmt 0
	callq	__ZN9crc32fast8baseline5State5reset17h6036dc3384d2156dE
	jmp	LBB58_3
Ltmp295:
LBB58_2:
	.loc	33 0 47
	movq	-32(%rbp), %rdi
	.loc	33 158 32 is_stmt 1
	addq	$8, %rdi
	addq	$4, %rdi
	movq	%rdi, -16(%rbp)
Ltmp296:
	.loc	33 158 50 is_stmt 0
	callq	__ZN9crc32fast11specialized9pclmulqdq5State5reset17h484d181f2e8d75d9E
Ltmp297:
LBB58_3:
	.loc	33 160 6 is_stmt 1
	addq	$32, %rsp
	popq	%rbp
	retq
Ltmp298:
Lfunc_end58:
	.cfi_endproc

	.globl	__ZN9crc32fast6Hasher7combine17h39c1850ac89d0d39E
	.p2align	4, 0x90
__ZN9crc32fast6Hasher7combine17h39c1850ac89d0d39E:
Lfunc_begin59:
	.loc	33 163 0
	.cfi_startproc
	pushq	%rbp
	.cfi_def_cfa_offset 16
	.cfi_offset %rbp, -16
	movq	%rsp, %rbp
	.cfi_def_cfa_register %rbp
	subq	$96, %rsp
	movq	%rdi, -80(%rbp)
	movq	%rsi, -72(%rbp)
	movq	%rdi, -40(%rbp)
	movq	%rsi, -32(%rbp)
Ltmp299:
	.loc	33 164 24 prologue_end
	movq	(%rsi), %rax
	.loc	33 164 9 is_stmt 0
	addq	(%rdi), %rax
	movq	%rax, -64(%rbp)
	setb	%al
	testb	$1, %al
	jne	LBB59_2
	.loc	33 0 9
	movq	-80(%rbp), %rax
	movq	-72(%rbp), %rsi
	movq	-64(%rbp), %rcx
	.loc	33 164 9
	movq	%rcx, (%rax)
	.loc	33 165 25 is_stmt 1
	leaq	-56(%rbp), %rdi
	callq	__ZN56_$LT$crc32fast..Hasher$u20$as$u20$core..clone..Clone$GT$5clone17h99e5b9319c82db46E
	leaq	-56(%rbp), %rdi
	callq	__ZN9crc32fast6Hasher8finalize17hb8154d50c7a38a99E
	movl	%eax, %ecx
	movq	-80(%rbp), %rax
	movl	%ecx, -84(%rbp)
	movl	%ecx, -20(%rbp)
Ltmp300:
	.loc	33 166 15
	movl	8(%rax), %eax
	.loc	33 166 9 is_stmt 0
	cmpq	$0, %rax
	je	LBB59_3
	jmp	LBB59_4
Ltmp301:
LBB59_2:
	.loc	33 164 9 is_stmt 1
	leaq	_str.0(%rip), %rdi
	leaq	l___unnamed_49(%rip), %rdx
	movl	$28, %esi
	callq	__ZN4core9panicking5panic17hc1bc45270cf64b03E
LBB59_3:
	.loc	33 0 9 is_stmt 0
	movl	-84(%rbp), %esi
	movq	-72(%rbp), %rax
	movq	-80(%rbp), %rdi
Ltmp302:
	.loc	33 167 29 is_stmt 1
	addq	$8, %rdi
	addq	$4, %rdi
	movq	%rdi, -8(%rbp)
Ltmp303:
	.loc	33 167 72 is_stmt 0
	movq	(%rax), %rdx
	.loc	33 167 47
	callq	__ZN9crc32fast8baseline5State7combine17hc18f307da5b6fb0eE
	jmp	LBB59_5
Ltmp304:
LBB59_4:
	.loc	33 0 47
	movl	-84(%rbp), %esi
	movq	-72(%rbp), %rax
	movq	-80(%rbp), %rdi
	.loc	33 168 32 is_stmt 1
	addq	$8, %rdi
	addq	$4, %rdi
	movq	%rdi, -16(%rbp)
Ltmp305:
	.loc	33 168 75 is_stmt 0
	movq	(%rax), %rdx
	.loc	33 168 50
	callq	__ZN9crc32fast11specialized9pclmulqdq5State7combine17haff7e9671bd1c3cdE
Ltmp306:
LBB59_5:
	.loc	33 170 6 is_stmt 1
	addq	$96, %rsp
	popq	%rbp
	retq
Ltmp307:
Lfunc_end59:
	.cfi_endproc

	.globl	__ZN54_$LT$crc32fast..Hasher$u20$as$u20$core..fmt..Debug$GT$3fmt17h1b7c7ea8d87fb50eE
	.p2align	4, 0x90
__ZN54_$LT$crc32fast..Hasher$u20$as$u20$core..fmt..Debug$GT$3fmt17h1b7c7ea8d87fb50eE:
Lfunc_begin60:
	.loc	33 174 0
	.cfi_startproc
	pushq	%rbp
	.cfi_def_cfa_offset 16
	.cfi_offset %rbp, -16
	movq	%rsp, %rbp
	.cfi_def_cfa_register %rbp
	subq	$32, %rsp
	movq	%rdi, -16(%rbp)
	movq	%rsi, -8(%rbp)
Ltmp308:
	.loc	33 175 9 prologue_end
	leaq	-32(%rbp), %rdi
	leaq	l___unnamed_50(%rip), %rdx
	movl	$17, %ecx
	callq	__ZN4core3fmt9Formatter12debug_struct17hb330e0caa577ed3dE
	leaq	-32(%rbp), %rdi
	callq	__ZN4core3fmt8builders11DebugStruct6finish17h081d244274ea39b1E
	.loc	33 176 6
	andb	$1, %al
	movzbl	%al, %eax
	addq	$32, %rsp
	popq	%rbp
	retq
Ltmp309:
Lfunc_end60:
	.cfi_endproc

	.globl	__ZN60_$LT$crc32fast..Hasher$u20$as$u20$core..default..Default$GT$7default17h9e4762d34c642c05E
	.p2align	4, 0x90
__ZN60_$LT$crc32fast..Hasher$u20$as$u20$core..default..Default$GT$7default17h9e4762d34c642c05E:
Lfunc_begin61:
	.loc	33 180 0
	.cfi_startproc
	pushq	%rbp
	.cfi_def_cfa_offset 16
	.cfi_offset %rbp, -16
	movq	%rsp, %rbp
	.cfi_def_cfa_register %rbp
	subq	$16, %rsp
	movq	%rdi, %rax
	movq	%rax, -8(%rbp)
Ltmp310:
	.loc	33 181 9 prologue_end
	callq	__ZN9crc32fast6Hasher3new17hb7754383210b257aE
	movq	-8(%rbp), %rax
	.loc	33 182 6
	addq	$16, %rsp
	popq	%rbp
	retq
Ltmp311:
Lfunc_end61:
	.cfi_endproc

	.globl	__ZN56_$LT$crc32fast..Hasher$u20$as$u20$core..hash..Hasher$GT$5write17h31ef89f361cc548aE
	.p2align	4, 0x90
__ZN56_$LT$crc32fast..Hasher$u20$as$u20$core..hash..Hasher$GT$5write17h31ef89f361cc548aE:
Lfunc_begin62:
	.loc	33 186 0
	.cfi_startproc
	pushq	%rbp
	.cfi_def_cfa_offset 16
	.cfi_offset %rbp, -16
	movq	%rsp, %rbp
	.cfi_def_cfa_register %rbp
	subq	$32, %rsp
	movq	%rdi, -24(%rbp)
	movq	%rsi, -16(%rbp)
	movq	%rdx, -8(%rbp)
Ltmp312:
	.loc	33 187 9 prologue_end
	callq	__ZN9crc32fast6Hasher6update17h54ed0e5ca59770d3E
	.loc	33 188 6
	addq	$32, %rsp
	popq	%rbp
	retq
Ltmp313:
Lfunc_end62:
	.cfi_endproc

	.globl	__ZN56_$LT$crc32fast..Hasher$u20$as$u20$core..hash..Hasher$GT$6finish17h9190a05fd481bbfaE
	.p2align	4, 0x90
__ZN56_$LT$crc32fast..Hasher$u20$as$u20$core..hash..Hasher$GT$6finish17h9190a05fd481bbfaE:
Lfunc_begin63:
	.loc	33 190 0
	.cfi_startproc
	pushq	%rbp
	.cfi_def_cfa_offset 16
	.cfi_offset %rbp, -16
	movq	%rsp, %rbp
	.cfi_def_cfa_register %rbp
	subq	$32, %rsp
	movq	%rdi, %rsi
	movq	%rsi, -16(%rbp)
Ltmp314:
	.loc	33 191 19 prologue_end
	leaq	-32(%rbp), %rdi
	callq	__ZN56_$LT$crc32fast..Hasher$u20$as$u20$core..clone..Clone$GT$5clone17h99e5b9319c82db46E
	leaq	-32(%rbp), %rdi
	callq	__ZN9crc32fast6Hasher8finalize17hb8154d50c7a38a99E
	movl	%eax, -4(%rbp)
Ltmp315:
	.file	34 "/rustc/2c8cc343237b8f7d5a3c3703e3a87f2eb2c54a74/library/core/src/convert" "num.rs"
	.loc	34 54 17
	movl	%eax, %eax
Ltmp316:
	.loc	33 192 6
	addq	$32, %rsp
	popq	%rbp
	retq
Ltmp317:
Lfunc_end63:
	.cfi_endproc

	.p2align	4, 0x90
__ZN65_$LT$crc32fast..baseline..State$u20$as$u20$core..clone..Clone$GT$5clone17hf95e81f9c0caba23E:
Lfunc_begin64:
	.loc	31 3 0
	.cfi_startproc
	pushq	%rbp
	.cfi_def_cfa_offset 16
	.cfi_offset %rbp, -16
	movq	%rsp, %rbp
	.cfi_def_cfa_register %rbp
	subq	$16, %rsp
	movq	%rdi, -8(%rbp)
Ltmp318:
	.loc	31 5 5 prologue_end
	movl	(%rdi), %eax
	.loc	31 3 10
	movl	%eax, -12(%rbp)
	.loc	31 3 15 is_stmt 0
	movl	-12(%rbp), %eax
	addq	$16, %rsp
	popq	%rbp
	retq
Ltmp319:
Lfunc_end64:
	.cfi_endproc

	.p2align	4, 0x90
__ZN9crc32fast11specialized9pclmulqdq5State3new17he5852911921242ccE:
Lfunc_begin65:
	.file	35 "/Users/natalie/.cargo/registry/src/github.com-1ecc6299db9ec823/crc32fast-1.3.2" "src/specialized/pclmulqdq.rs"
	.loc	35 27 0 is_stmt 1
	.cfi_startproc
	pushq	%rbp
	.cfi_def_cfa_offset 16
	.cfi_offset %rbp, -16
	movq	%rsp, %rbp
	.cfi_def_cfa_register %rbp
	subq	$32, %rsp
	movl	%edi, -28(%rbp)
	movl	%edi, -4(%rbp)
Ltmp320:
	.loc	35 28 12 prologue_end
	callq	__ZN10std_detect6detect4arch3x8621__is_feature_detected9pclmulqdq17h279d801b59d2be4cE
	testb	$1, %al
	jne	LBB65_2
	movb	$0, -9(%rbp)
	jmp	LBB65_3
LBB65_2:
	movb	$1, -9(%rbp)
LBB65_3:
	testb	$1, -9(%rbp)
	jne	LBB65_5
	movb	$0, -10(%rbp)
	jmp	LBB65_6
LBB65_5:
	.loc	35 30 16
	callq	__ZN10std_detect6detect4arch3x8621__is_feature_detected6sse4_117hbb659153b2bb004eE
	.loc	35 28 12
	andb	$1, %al
	movb	%al, -10(%rbp)
LBB65_6:
	testb	$1, -10(%rbp)
	jne	LBB65_8
	.loc	35 36 13
	movl	$0, -24(%rbp)
	.loc	35 28 9
	jmp	LBB65_9
LBB65_8:
	.loc	35 0 9 is_stmt 0
	movl	-28(%rbp), %eax
	.loc	35 34 18 is_stmt 1
	movl	%eax, -8(%rbp)
	.loc	35 34 13 is_stmt 0
	movl	-8(%rbp), %eax
	movl	%eax, -20(%rbp)
	movl	$1, -24(%rbp)
LBB65_9:
	.loc	35 38 6 is_stmt 1
	movl	-24(%rbp), %eax
	movl	-20(%rbp), %edx
	addq	$32, %rsp
	popq	%rbp
	retq
Ltmp321:
Lfunc_end65:
	.cfi_endproc

	.p2align	4, 0x90
__ZN9crc32fast11specialized9pclmulqdq5State6update17ha1d0dbee126c5968E:
Lfunc_begin66:
	.loc	35 40 0
	.cfi_startproc
	pushq	%rbp
	.cfi_def_cfa_offset 16
	.cfi_offset %rbp, -16
	movq	%rsp, %rbp
	.cfi_def_cfa_register %rbp
	subq	$32, %rsp
	movq	%rdi, -32(%rbp)
	movq	%rdi, -24(%rbp)
	movq	%rsi, -16(%rbp)
	movq	%rdx, -8(%rbp)
Ltmp322:
	.loc	35 43 41 prologue_end
	movl	(%rdi), %edi
	.loc	35 43 31 is_stmt 0
	callq	__ZN9crc32fast11specialized9pclmulqdq9calculate17h41cc3ceb519f5cabE
	movq	-32(%rbp), %rdi
	.loc	35 43 9
	movl	%eax, (%rdi)
	.loc	35 44 6 is_stmt 1
	addq	$32, %rsp
	popq	%rbp
	retq
Ltmp323:
Lfunc_end66:
	.cfi_endproc

	.p2align	4, 0x90
__ZN9crc32fast11specialized9pclmulqdq5State8finalize17hf721ff908111abb7E:
Lfunc_begin67:
	.loc	35 46 0
	.cfi_startproc
	pushq	%rbp
	.cfi_def_cfa_offset 16
	.cfi_offset %rbp, -16
	movq	%rsp, %rbp
	.cfi_def_cfa_register %rbp
	subq	$4, %rsp
	movl	%edi, %eax
	movl	%eax, -4(%rbp)
Ltmp324:
	.loc	35 48 6 prologue_end
	addq	$4, %rsp
	popq	%rbp
	retq
Ltmp325:
Lfunc_end67:
	.cfi_endproc

	.p2align	4, 0x90
__ZN9crc32fast11specialized9pclmulqdq5State5reset17h484d181f2e8d75d9E:
Lfunc_begin68:
	.loc	35 50 0
	.cfi_startproc
	pushq	%rbp
	.cfi_def_cfa_offset 16
	.cfi_offset %rbp, -16
	movq	%rsp, %rbp
	.cfi_def_cfa_register %rbp
	pushq	%rax
	movq	%rdi, -8(%rbp)
Ltmp326:
	.loc	35 51 9 prologue_end
	movl	$0, (%rdi)
	.loc	35 52 6
	addq	$8, %rsp
	popq	%rbp
	retq
Ltmp327:
Lfunc_end68:
	.cfi_endproc

	.p2align	4, 0x90
__ZN9crc32fast11specialized9pclmulqdq5State7combine17haff7e9671bd1c3cdE:
Lfunc_begin69:
	.loc	35 54 0
	.cfi_startproc
	pushq	%rbp
	.cfi_def_cfa_offset 16
	.cfi_offset %rbp, -16
	movq	%rsp, %rbp
	.cfi_def_cfa_register %rbp
	subq	$32, %rsp
	movq	%rdi, -32(%rbp)
	movq	%rdi, -24(%rbp)
	movl	%esi, -12(%rbp)
	movq	%rdx, -8(%rbp)
Ltmp328:
	.loc	35 55 41 prologue_end
	movl	(%rdi), %edi
	.loc	35 55 22 is_stmt 0
	callq	__ZN9crc32fast7combine7combine17hea13762fb068adb1E
	movq	-32(%rbp), %rdi
	.loc	35 55 9
	movl	%eax, (%rdi)
	.loc	35 56 6 is_stmt 1
	addq	$32, %rsp
	popq	%rbp
	retq
Ltmp329:
Lfunc_end69:
	.cfi_endproc

	.p2align	4, 0x90
__ZN9crc32fast11specialized9pclmulqdq5debug17h2cfd1924ca5d854dE:
Lfunc_begin70:
	.loc	35 70 0
	.cfi_startproc
	pushq	%rbp
	.cfi_def_cfa_offset 16
	.cfi_offset %rbp, -16
	movq	%rsp, %rbp
	.cfi_def_cfa_register %rbp
	subq	$32, %rsp
	movq	%rdi, %rax
	movq	%rsi, -16(%rbp)
	movq	%rdx, -8(%rbp)
Ltmp330:
	.loc	35 83 12 prologue_end
	movdqa	(%rcx), %xmm0
	movdqa	%xmm0, (%rdi)
	.loc	35 84 2
	addq	$32, %rsp
	popq	%rbp
	retq
Ltmp331:
Lfunc_end70:
	.cfi_endproc

	.p2align	4, 0x90
__ZN9crc32fast11specialized9pclmulqdq9calculate17h41cc3ceb519f5cabE:
Lfunc_begin71:
	.loc	35 92 0
	.cfi_startproc
	pushq	%rbp
	.cfi_def_cfa_offset 16
	.cfi_offset %rbp, -16
	movq	%rsp, %rbp
	.cfi_def_cfa_register %rbp
	subq	$1888, %rsp
	movl	%edi, -1628(%rbp)
	movq	%rsi, -1624(%rbp)
	movq	%rdx, -1616(%rbp)
	movl	%edi, -1508(%rbp)
Ltmp332:
	.loc	35 96 8 prologue_end
	cmpq	$128, -1616(%rbp)
	jb	LBB71_2
	.loc	35 101 18
	leaq	-1600(%rbp), %rdi
	leaq	-1624(%rbp), %rsi
	callq	__ZN9crc32fast11specialized9pclmulqdq3get17h3ce263c814f85f7bE
Ltmp333:
	.loc	35 102 18
	leaq	-1584(%rbp), %rdi
	leaq	-1624(%rbp), %rsi
	callq	__ZN9crc32fast11specialized9pclmulqdq3get17h3ce263c814f85f7bE
Ltmp334:
	.loc	35 103 18
	leaq	-1568(%rbp), %rdi
	leaq	-1624(%rbp), %rsi
	callq	__ZN9crc32fast11specialized9pclmulqdq3get17h3ce263c814f85f7bE
Ltmp335:
	.loc	35 104 18
	leaq	-1552(%rbp), %rdi
	leaq	-1624(%rbp), %rsi
	callq	__ZN9crc32fast11specialized9pclmulqdq3get17h3ce263c814f85f7bE
	movl	-1628(%rbp), %esi
Ltmp336:
	.loc	35 107 30
	movdqa	-1600(%rbp), %xmm0
	movaps	%xmm0, -1664(%rbp)
	.loc	35 107 58 is_stmt 0
	xorl	$-1, %esi
	.loc	35 107 34
	leaq	-1504(%rbp), %rdi
	callq	__ZN4core9core_arch3x864sse217_mm_cvtsi32_si12817h3b5b7f0a6788c9c7E
	movaps	-1664(%rbp), %xmm1
	movdqa	-1504(%rbp), %xmm0
	.loc	35 107 10
	movdqa	%xmm1, -1472(%rbp)
	movdqa	%xmm0, -1456(%rbp)
	leaq	-1488(%rbp), %rdi
	leaq	-1472(%rbp), %rsi
	leaq	-1456(%rbp), %rdx
	callq	__ZN4core9core_arch3x864sse213_mm_xor_si12817hdd59fc355e961b66E
	movdqa	-1488(%rbp), %xmm0
	.loc	35 107 5
	movdqa	%xmm0, -1600(%rbp)
	.loc	35 109 16 is_stmt 1
	leaq	-1440(%rbp), %rdi
	movabsq	$7631803798, %rsi
	movabsq	$5708721108, %rdx
	callq	__ZN4core9core_arch3x864sse214_mm_set_epi64x17h7f6654eebcc18d30E
	movdqa	-1440(%rbp), %xmm0
	movaps	%xmm0, -1648(%rbp)
	movdqa	%xmm0, -1424(%rbp)
	jmp	LBB71_4
Ltmp337:
LBB71_2:
	.loc	35 0 16 is_stmt 0
	movl	-1628(%rbp), %edi
	.loc	35 97 48 is_stmt 1
	movq	-1624(%rbp), %rsi
	movq	-1616(%rbp), %rdx
	.loc	35 97 16 is_stmt 0
	callq	__ZN9crc32fast8baseline14update_fast_1617hd065e76adfcb94fbE
	movl	%eax, -1604(%rbp)
LBB71_3:
	.loc	35 190 2 is_stmt 1
	movl	-1604(%rbp), %eax
	addq	$1888, %rsp
	popq	%rbp
	retq
LBB71_4:
Ltmp338:
	.loc	35 110 11
	cmpq	$64, -1616(%rbp)
	jae	LBB71_6
	.loc	35 117 16
	leaq	-1088(%rbp), %rdi
	movl	$3433693342, %esi
	movabsq	$6259578832, %rdx
	callq	__ZN4core9core_arch3x864sse214_mm_set_epi64x17h7f6654eebcc18d30E
	movdqa	-1088(%rbp), %xmm0
	movaps	%xmm0, -1680(%rbp)
	movdqa	%xmm0, -1072(%rbp)
Ltmp339:
	.loc	35 118 27
	movdqa	-1600(%rbp), %xmm2
	.loc	35 118 31 is_stmt 0
	movdqa	-1584(%rbp), %xmm1
	.loc	35 118 17
	movdqa	%xmm2, -1056(%rbp)
	movdqa	%xmm1, -1040(%rbp)
	movdqa	%xmm0, -1024(%rbp)
	leaq	-1536(%rbp), %rdi
	leaq	-1056(%rbp), %rsi
	leaq	-1040(%rbp), %rdx
	leaq	-1024(%rbp), %rcx
	callq	__ZN9crc32fast11specialized9pclmulqdq9reduce12817h78b29036e2700061E
	movaps	-1680(%rbp), %xmm0
Ltmp340:
	.loc	35 119 19 is_stmt 1
	movdqa	-1536(%rbp), %xmm2
	.loc	35 119 22 is_stmt 0
	movdqa	-1568(%rbp), %xmm1
	.loc	35 119 9
	movdqa	%xmm2, -992(%rbp)
	movdqa	%xmm1, -976(%rbp)
	movdqa	%xmm0, -960(%rbp)
	leaq	-1008(%rbp), %rdi
	leaq	-992(%rbp), %rsi
	leaq	-976(%rbp), %rdx
	leaq	-960(%rbp), %rcx
	callq	__ZN9crc32fast11specialized9pclmulqdq9reduce12817h78b29036e2700061E
	movaps	-1680(%rbp), %xmm0
	movdqa	-1008(%rbp), %xmm1
	.loc	35 119 5
	movdqa	%xmm1, -1536(%rbp)
	.loc	35 120 19 is_stmt 1
	movdqa	-1536(%rbp), %xmm2
	.loc	35 120 22 is_stmt 0
	movdqa	-1552(%rbp), %xmm1
	.loc	35 120 9
	movdqa	%xmm2, -928(%rbp)
	movdqa	%xmm1, -912(%rbp)
	movdqa	%xmm0, -896(%rbp)
	leaq	-944(%rbp), %rdi
	leaq	-928(%rbp), %rsi
	leaq	-912(%rbp), %rdx
	leaq	-896(%rbp), %rcx
	callq	__ZN9crc32fast11specialized9pclmulqdq9reduce12817h78b29036e2700061E
	movdqa	-944(%rbp), %xmm0
	.loc	35 120 5
	movdqa	%xmm0, -1536(%rbp)
	.loc	35 123 5 is_stmt 1
	jmp	LBB71_7
Ltmp341:
LBB71_6:
	.loc	35 111 24
	movdqa	-1600(%rbp), %xmm0
	movaps	%xmm0, -1744(%rbp)
	.loc	35 111 28 is_stmt 0
	leaq	-1408(%rbp), %rdi
	leaq	-1624(%rbp), %rsi
	callq	__ZN9crc32fast11specialized9pclmulqdq3get17h3ce263c814f85f7bE
	movaps	-1744(%rbp), %xmm2
	movaps	-1648(%rbp), %xmm0
	movdqa	-1408(%rbp), %xmm1
	.loc	35 111 14
	movdqa	%xmm2, -1376(%rbp)
	movdqa	%xmm1, -1360(%rbp)
	movdqa	%xmm0, -1344(%rbp)
	leaq	-1392(%rbp), %rdi
	leaq	-1376(%rbp), %rsi
	leaq	-1360(%rbp), %rdx
	leaq	-1344(%rbp), %rcx
	callq	__ZN9crc32fast11specialized9pclmulqdq9reduce12817h78b29036e2700061E
	movdqa	-1392(%rbp), %xmm0
	.loc	35 111 9
	movdqa	%xmm0, -1600(%rbp)
	.loc	35 112 24 is_stmt 1
	movdqa	-1584(%rbp), %xmm0
	movaps	%xmm0, -1728(%rbp)
	.loc	35 112 28 is_stmt 0
	leaq	-1328(%rbp), %rdi
	leaq	-1624(%rbp), %rsi
	callq	__ZN9crc32fast11specialized9pclmulqdq3get17h3ce263c814f85f7bE
	movaps	-1728(%rbp), %xmm2
	movaps	-1648(%rbp), %xmm0
	movdqa	-1328(%rbp), %xmm1
	.loc	35 112 14
	movdqa	%xmm2, -1296(%rbp)
	movdqa	%xmm1, -1280(%rbp)
	movdqa	%xmm0, -1264(%rbp)
	leaq	-1312(%rbp), %rdi
	leaq	-1296(%rbp), %rsi
	leaq	-1280(%rbp), %rdx
	leaq	-1264(%rbp), %rcx
	callq	__ZN9crc32fast11specialized9pclmulqdq9reduce12817h78b29036e2700061E
	movdqa	-1312(%rbp), %xmm0
	.loc	35 112 9
	movdqa	%xmm0, -1584(%rbp)
	.loc	35 113 24 is_stmt 1
	movdqa	-1568(%rbp), %xmm0
	movaps	%xmm0, -1712(%rbp)
	.loc	35 113 28 is_stmt 0
	leaq	-1248(%rbp), %rdi
	leaq	-1624(%rbp), %rsi
	callq	__ZN9crc32fast11specialized9pclmulqdq3get17h3ce263c814f85f7bE
	movaps	-1712(%rbp), %xmm2
	movaps	-1648(%rbp), %xmm0
	movdqa	-1248(%rbp), %xmm1
	.loc	35 113 14
	movdqa	%xmm2, -1216(%rbp)
	movdqa	%xmm1, -1200(%rbp)
	movdqa	%xmm0, -1184(%rbp)
	leaq	-1232(%rbp), %rdi
	leaq	-1216(%rbp), %rsi
	leaq	-1200(%rbp), %rdx
	leaq	-1184(%rbp), %rcx
	callq	__ZN9crc32fast11specialized9pclmulqdq9reduce12817h78b29036e2700061E
	movdqa	-1232(%rbp), %xmm0
	.loc	35 113 9
	movdqa	%xmm0, -1568(%rbp)
	.loc	35 114 24 is_stmt 1
	movdqa	-1552(%rbp), %xmm0
	movaps	%xmm0, -1696(%rbp)
	.loc	35 114 28 is_stmt 0
	leaq	-1168(%rbp), %rdi
	leaq	-1624(%rbp), %rsi
	callq	__ZN9crc32fast11specialized9pclmulqdq3get17h3ce263c814f85f7bE
	movaps	-1696(%rbp), %xmm2
	movaps	-1648(%rbp), %xmm0
	movdqa	-1168(%rbp), %xmm1
	.loc	35 114 14
	movdqa	%xmm2, -1136(%rbp)
	movdqa	%xmm1, -1120(%rbp)
	movdqa	%xmm0, -1104(%rbp)
	leaq	-1152(%rbp), %rdi
	leaq	-1136(%rbp), %rsi
	leaq	-1120(%rbp), %rdx
	leaq	-1104(%rbp), %rcx
	callq	__ZN9crc32fast11specialized9pclmulqdq9reduce12817h78b29036e2700061E
	movdqa	-1152(%rbp), %xmm0
	.loc	35 114 9
	movdqa	%xmm0, -1552(%rbp)
	.loc	35 110 5 is_stmt 1
	jmp	LBB71_4
LBB71_7:
Ltmp342:
	.loc	35 123 11
	cmpq	$16, -1616(%rbp)
	jae	LBB71_9
	.loc	35 127 28
	movdqa	-1536(%rbp), %xmm0
	.loc	35 127 5 is_stmt 0
	movdqa	%xmm0, -784(%rbp)
	leaq	-800(%rbp), %rdi
	leaq	l___unnamed_51(%rip), %rsi
	movl	$13, %edx
	leaq	-784(%rbp), %rcx
	callq	__ZN9crc32fast11specialized9pclmulqdq5debug17h2cfd1924ca5d854dE
	.loc	35 147 5 is_stmt 1
	movabsq	$7976584768, %rdi
	callq	__ZN4core3mem4drop17h0b24bd9f2198f356E
	movaps	-1680(%rbp), %xmm0
	.loc	35 149 36
	movdqa	-1536(%rbp), %xmm1
	.loc	35 149 9 is_stmt 0
	movdqa	%xmm1, -752(%rbp)
	movdqa	%xmm0, -736(%rbp)
	leaq	-768(%rbp), %rdi
	leaq	-752(%rbp), %rsi
	leaq	-736(%rbp), %rdx
	callq	__ZN4core9core_arch3x869pclmulqdq20_mm_clmulepi64_si12817h90e2e0b2bc7f3554E
	movdqa	-768(%rbp), %xmm0
	movaps	%xmm0, -1872(%rbp)
	.loc	35 150 30 is_stmt 1
	movdqa	-1536(%rbp), %xmm0
	.loc	35 150 9 is_stmt 0
	movdqa	%xmm0, -704(%rbp)
	leaq	-720(%rbp), %rdi
	leaq	-704(%rbp), %rsi
	callq	__ZN4core9core_arch3x864sse214_mm_srli_si12817h42101d6de3958499E
	movaps	-1872(%rbp), %xmm1
	movdqa	-720(%rbp), %xmm0
	.loc	35 148 13 is_stmt 1
	movdqa	%xmm1, -672(%rbp)
	movdqa	%xmm0, -656(%rbp)
	leaq	-688(%rbp), %rdi
	leaq	-672(%rbp), %rsi
	leaq	-656(%rbp), %rdx
	callq	__ZN4core9core_arch3x864sse213_mm_xor_si12817hdd59fc355e961b66E
	movdqa	-688(%rbp), %xmm0
	movaps	%xmm0, -1840(%rbp)
	movdqa	%xmm0, -640(%rbp)
Ltmp343:
	.loc	35 154 36
	leaq	-624(%rbp), %rdi
	xorl	%ecx, %ecx
	movl	$4294967295, %r8d
	movl	%ecx, %esi
	movl	%ecx, %edx
	callq	__ZN4core9core_arch3x864sse213_mm_set_epi3217hbd5d9de2465d4c1bE
	movaps	-1840(%rbp), %xmm1
	movdqa	-624(%rbp), %xmm0
	.loc	35 154 13 is_stmt 0
	movdqa	%xmm1, -592(%rbp)
	movdqa	%xmm0, -576(%rbp)
	leaq	-608(%rbp), %rdi
	leaq	-592(%rbp), %rsi
	leaq	-576(%rbp), %rdx
	callq	__ZN4core9core_arch3x864sse213_mm_and_si12817h3b302846b6f689b9E
	movdqa	-608(%rbp), %xmm0
	movaps	%xmm0, -1856(%rbp)
	.loc	35 155 13 is_stmt 1
	leaq	-560(%rbp), %rdi
	xorl	%eax, %eax
	movl	%eax, %esi
	movabsq	$5969371428, %rdx
	callq	__ZN4core9core_arch3x864sse214_mm_set_epi64x17h7f6654eebcc18d30E
	movaps	-1856(%rbp), %xmm1
	movdqa	-560(%rbp), %xmm0
	.loc	35 153 9
	movdqa	%xmm1, -528(%rbp)
	movdqa	%xmm0, -512(%rbp)
	leaq	-544(%rbp), %rdi
	leaq	-528(%rbp), %rsi
	leaq	-512(%rbp), %rdx
	callq	__ZN4core9core_arch3x869pclmulqdq20_mm_clmulepi64_si12817heb50b0aa260a688cE
	movaps	-1840(%rbp), %xmm0
	movdqa	-544(%rbp), %xmm1
	movaps	%xmm1, -1824(%rbp)
	.loc	35 158 9
	movdqa	%xmm0, -480(%rbp)
	leaq	-496(%rbp), %rdi
	leaq	-480(%rbp), %rsi
	callq	__ZN4core9core_arch3x864sse214_mm_srli_si12817hd18d49d4e526942bE
	movaps	-1824(%rbp), %xmm1
	movdqa	-496(%rbp), %xmm0
	.loc	35 152 13
	movdqa	%xmm1, -448(%rbp)
	movdqa	%xmm0, -432(%rbp)
	leaq	-464(%rbp), %rdi
	leaq	-448(%rbp), %rsi
	leaq	-432(%rbp), %rdx
	callq	__ZN4core9core_arch3x864sse213_mm_xor_si12817hdd59fc355e961b66E
	movdqa	-464(%rbp), %xmm0
	movaps	%xmm0, -1776(%rbp)
	movdqa	%xmm0, -416(%rbp)
Ltmp344:
	.loc	35 160 5
	movdqa	%xmm0, -384(%rbp)
	leaq	-400(%rbp), %rdi
	leaq	l___unnamed_52(%rip), %rsi
	movl	$11, %edx
	leaq	-384(%rbp), %rcx
	callq	__ZN9crc32fast11specialized9pclmulqdq5debug17h2cfd1924ca5d854dE
	.loc	35 165 14
	leaq	-368(%rbp), %rdi
	movabsq	$8439010881, %rsi
	movabsq	$7976584769, %rdx
	callq	__ZN4core9core_arch3x864sse214_mm_set_epi64x17h7f6654eebcc18d30E
	movdqa	-368(%rbp), %xmm0
	movaps	%xmm0, -1792(%rbp)
	movdqa	%xmm0, -352(%rbp)
Ltmp345:
	.loc	35 169 32
	leaq	-336(%rbp), %rdi
	xorl	%ecx, %ecx
	movl	$4294967295, %r8d
	movl	%ecx, %esi
	movl	%ecx, %edx
	callq	__ZN4core9core_arch3x864sse213_mm_set_epi3217hbd5d9de2465d4c1bE
	movaps	-1776(%rbp), %xmm1
	movdqa	-336(%rbp), %xmm0
	.loc	35 169 9 is_stmt 0
	movdqa	%xmm1, -304(%rbp)
	movdqa	%xmm0, -288(%rbp)
	leaq	-320(%rbp), %rdi
	leaq	-304(%rbp), %rsi
	leaq	-288(%rbp), %rdx
	callq	__ZN4core9core_arch3x864sse213_mm_and_si12817h3b302846b6f689b9E
	movaps	-1792(%rbp), %xmm0
	movdqa	-320(%rbp), %xmm1
	.loc	35 168 14 is_stmt 1
	movdqa	%xmm1, -256(%rbp)
	movdqa	%xmm0, -240(%rbp)
	leaq	-272(%rbp), %rdi
	leaq	-256(%rbp), %rsi
	leaq	-240(%rbp), %rdx
	callq	__ZN4core9core_arch3x869pclmulqdq20_mm_clmulepi64_si12817h90e2e0b2bc7f3554E
	movdqa	-272(%rbp), %xmm0
	movaps	%xmm0, -1808(%rbp)
	movdqa	%xmm0, -224(%rbp)
Ltmp346:
	.loc	35 175 33
	leaq	-208(%rbp), %rdi
	xorl	%ecx, %ecx
	movl	$4294967295, %r8d
	movl	%ecx, %esi
	movl	%ecx, %edx
	callq	__ZN4core9core_arch3x864sse213_mm_set_epi3217hbd5d9de2465d4c1bE
	movaps	-1808(%rbp), %xmm1
	movdqa	-208(%rbp), %xmm0
	.loc	35 175 9 is_stmt 0
	movdqa	%xmm1, -176(%rbp)
	movdqa	%xmm0, -160(%rbp)
	leaq	-192(%rbp), %rdi
	leaq	-176(%rbp), %rsi
	leaq	-160(%rbp), %rdx
	callq	__ZN4core9core_arch3x864sse213_mm_and_si12817h3b302846b6f689b9E
	movaps	-1792(%rbp), %xmm0
	movdqa	-192(%rbp), %xmm1
	.loc	35 174 14 is_stmt 1
	movdqa	%xmm1, -128(%rbp)
	movdqa	%xmm0, -112(%rbp)
	leaq	-144(%rbp), %rdi
	leaq	-128(%rbp), %rsi
	leaq	-112(%rbp), %rdx
	callq	__ZN4core9core_arch3x869pclmulqdq20_mm_clmulepi64_si12817heb50b0aa260a688cE
	movaps	-1776(%rbp), %xmm1
	movdqa	-144(%rbp), %xmm0
	movdqa	%xmm0, -96(%rbp)
Ltmp347:
	.loc	35 183 37
	movdqa	%xmm1, -64(%rbp)
	movdqa	%xmm0, -48(%rbp)
	leaq	-80(%rbp), %rdi
	leaq	-64(%rbp), %rsi
	leaq	-48(%rbp), %rdx
	callq	__ZN4core9core_arch3x864sse213_mm_xor_si12817hdd59fc355e961b66E
	movdqa	-80(%rbp), %xmm0
	.loc	35 183 13 is_stmt 0
	movdqa	%xmm0, -32(%rbp)
	leaq	-32(%rbp), %rdi
	callq	__ZN4core9core_arch3x865sse4117_mm_extract_epi3217hdb6ffa1f952ab99bE
	movl	%eax, -1748(%rbp)
	movl	%eax, -4(%rbp)
Ltmp348:
	.loc	35 185 9 is_stmt 1
	movq	-1624(%rbp), %rdi
	movq	-1616(%rbp), %rsi
	callq	__ZN4core5slice29_$LT$impl$u20$$u5b$T$u5d$$GT$8is_empty17h4b58eaf5a8c0c673E
	.loc	35 185 8 is_stmt 0
	xorb	$-1, %al
	testb	$1, %al
	jne	LBB71_11
	jmp	LBB71_10
Ltmp349:
LBB71_9:
	.loc	35 124 23 is_stmt 1
	movdqa	-1536(%rbp), %xmm0
	movaps	%xmm0, -1888(%rbp)
	.loc	35 124 26 is_stmt 0
	leaq	-880(%rbp), %rdi
	leaq	-1624(%rbp), %rsi
	callq	__ZN9crc32fast11specialized9pclmulqdq3get17h3ce263c814f85f7bE
	movaps	-1888(%rbp), %xmm2
	movaps	-1680(%rbp), %xmm0
	movdqa	-880(%rbp), %xmm1
	.loc	35 124 13
	movdqa	%xmm2, -848(%rbp)
	movdqa	%xmm1, -832(%rbp)
	movdqa	%xmm0, -816(%rbp)
	leaq	-864(%rbp), %rdi
	leaq	-848(%rbp), %rsi
	leaq	-832(%rbp), %rdx
	leaq	-816(%rbp), %rcx
	callq	__ZN9crc32fast11specialized9pclmulqdq9reduce12817h78b29036e2700061E
	movdqa	-864(%rbp), %xmm0
	.loc	35 124 9
	movdqa	%xmm0, -1536(%rbp)
	.loc	35 123 5 is_stmt 1
	jmp	LBB71_7
LBB71_10:
	.loc	35 0 5 is_stmt 0
	movl	-1748(%rbp), %eax
Ltmp350:
	.loc	35 188 9 is_stmt 1
	xorl	$-1, %eax
	movl	%eax, -1604(%rbp)
	.loc	35 185 5
	jmp	LBB71_3
LBB71_11:
	.loc	35 0 5 is_stmt 0
	movl	-1748(%rbp), %edi
	.loc	35 186 36 is_stmt 1
	xorl	$-1, %edi
	.loc	35 186 40 is_stmt 0
	movq	-1624(%rbp), %rsi
	movq	-1616(%rbp), %rdx
	.loc	35 186 9
	callq	__ZN9crc32fast8baseline14update_fast_1617hd065e76adfcb94fbE
	movl	%eax, -1604(%rbp)
	jmp	LBB71_3
Ltmp351:
Lfunc_end71:
	.cfi_endproc

	.p2align	4, 0x90
__ZN9crc32fast11specialized9pclmulqdq9reduce12817h78b29036e2700061E:
Lfunc_begin72:
	.loc	35 192 0 is_stmt 1
	.cfi_startproc
	pushq	%rbp
	.cfi_def_cfa_offset 16
	.cfi_offset %rbp, -16
	movq	%rsp, %rbp
	.cfi_def_cfa_register %rbp
	subq	$288, %rsp
	movq	%rcx, -272(%rbp)
	movq	%rdx, -264(%rbp)
	movq	%rsi, -280(%rbp)
	movq	%rdi, -224(%rbp)
	movq	%rdi, -216(%rbp)
Ltmp352:
	.loc	35 193 41 prologue_end
	movdqa	(%rsi), %xmm1
	.loc	35 193 44 is_stmt 0
	movdqa	(%rcx), %xmm0
	.loc	35 193 14
	movdqa	%xmm1, -192(%rbp)
	movdqa	%xmm0, -176(%rbp)
	leaq	-208(%rbp), %rdi
	leaq	-192(%rbp), %rsi
	leaq	-176(%rbp), %rdx
	callq	__ZN4core9core_arch3x869pclmulqdq20_mm_clmulepi64_si12817heb50b0aa260a688cE
	movq	-280(%rbp), %rsi
	movq	-272(%rbp), %rcx
	movdqa	-208(%rbp), %xmm0
	movaps	%xmm0, -256(%rbp)
	movdqa	%xmm0, -160(%rbp)
Ltmp353:
	.loc	35 194 41 is_stmt 1
	movdqa	(%rsi), %xmm1
	.loc	35 194 44 is_stmt 0
	movdqa	(%rcx), %xmm0
	.loc	35 194 14
	movdqa	%xmm1, -128(%rbp)
	movdqa	%xmm0, -112(%rbp)
	leaq	-144(%rbp), %rdi
	leaq	-128(%rbp), %rsi
	leaq	-112(%rbp), %rdx
	callq	__ZN4core9core_arch3x869pclmulqdq20_mm_clmulepi64_si12817hd725afd9b0c77aabE
	movq	-264(%rbp), %rdx
	movaps	-256(%rbp), %xmm0
	movdqa	-144(%rbp), %xmm1
	movaps	%xmm1, -240(%rbp)
	movdqa	%xmm1, -96(%rbp)
Ltmp354:
	.loc	35 195 45 is_stmt 1
	movdqa	(%rdx), %xmm1
	.loc	35 195 25 is_stmt 0
	movdqa	%xmm1, -64(%rbp)
	movdqa	%xmm0, -48(%rbp)
	leaq	-80(%rbp), %rdi
	leaq	-64(%rbp), %rsi
	leaq	-48(%rbp), %rdx
	callq	__ZN4core9core_arch3x864sse213_mm_xor_si12817hdd59fc355e961b66E
	movaps	-240(%rbp), %xmm0
	movq	-224(%rbp), %rdi
	movdqa	-80(%rbp), %xmm1
	.loc	35 195 5
	movdqa	%xmm1, -32(%rbp)
	movdqa	%xmm0, -16(%rbp)
	leaq	-32(%rbp), %rsi
	leaq	-16(%rbp), %rdx
	callq	__ZN4core9core_arch3x864sse213_mm_xor_si12817hdd59fc355e961b66E
	movq	-216(%rbp), %rax
Ltmp355:
	.loc	35 196 2 is_stmt 1
	addq	$288, %rsp
	popq	%rbp
	retq
Ltmp356:
Lfunc_end72:
	.cfi_endproc

	.p2align	4, 0x90
__ZN9crc32fast11specialized9pclmulqdq3get17h3ce263c814f85f7bE:
Lfunc_begin73:
	.loc	35 198 0
	.cfi_startproc
	pushq	%rbp
	.cfi_def_cfa_offset 16
	.cfi_offset %rbp, -16
	movq	%rsp, %rbp
	.cfi_def_cfa_register %rbp
	subq	$64, %rsp
	movq	%rsi, -56(%rbp)
	movq	%rdi, -48(%rbp)
	movq	%rdi, -40(%rbp)
	movq	%rsi, -24(%rbp)
Ltmp357:
	.loc	35 199 19 prologue_end
	cmpq	$16, 8(%rsi)
	setae	%al
	.loc	35 199 5 is_stmt 0
	xorb	$-1, %al
	testb	$1, %al
	jne	LBB73_2
Ltmp358:
	.loc	35 0 5
	movq	-56(%rbp), %rax
	movq	-48(%rbp), %rdi
	.loc	35 200 35 is_stmt 1
	movq	(%rax), %rsi
	movq	8(%rax), %rax
	movq	%rsi, -16(%rbp)
	movq	%rax, -8(%rbp)
	.loc	35 200 13 is_stmt 0
	callq	__ZN4core9core_arch3x864sse215_mm_loadu_si12817h5dd5b30ea40fba87E
	movq	-56(%rbp), %rax
Ltmp359:
	.loc	35 201 11 is_stmt 1
	movq	(%rax), %rdi
	movq	8(%rax), %rsi
	.loc	35 201 13 is_stmt 0
	movq	$16, -32(%rbp)
	.loc	35 201 11
	movq	-32(%rbp), %rdx
	leaq	l___unnamed_53(%rip), %rcx
	callq	__ZN4core5slice5index74_$LT$impl$u20$core..ops..index..Index$LT$I$GT$$u20$for$u20$$u5b$T$u5d$$GT$5index17h5dfc98d9fdc438c7E
	movq	-56(%rbp), %rcx
	movq	%rax, %rsi
	movq	-40(%rbp), %rax
	.loc	35 201 5
	movq	%rsi, (%rcx)
	movq	%rdx, 8(%rcx)
Ltmp360:
	.loc	35 203 2 is_stmt 1
	addq	$64, %rsp
	popq	%rbp
	retq
Ltmp361:
LBB73_2:
	.loc	35 199 5
	leaq	l___unnamed_54(%rip), %rdi
	leaq	l___unnamed_55(%rip), %rdx
	movl	$31, %esi
	callq	__ZN4core9panicking5panic17hc1bc45270cf64b03E
Ltmp362:
Lfunc_end73:
	.cfi_endproc

	.p2align	4, 0x90
__ZN79_$LT$crc32fast..specialized..pclmulqdq..State$u20$as$u20$core..clone..Clone$GT$5clone17ha68ca6ea16d72438E:
Lfunc_begin74:
	.loc	35 6 0
	.cfi_startproc
	pushq	%rbp
	.cfi_def_cfa_offset 16
	.cfi_offset %rbp, -16
	movq	%rsp, %rbp
	.cfi_def_cfa_register %rbp
	subq	$16, %rsp
	movq	%rdi, -8(%rbp)
Ltmp363:
	.loc	35 8 5 prologue_end
	movl	(%rdi), %eax
	.loc	35 6 10
	movl	%eax, -12(%rbp)
	.loc	35 6 15 is_stmt 0
	movl	-12(%rbp), %eax
	addq	$16, %rsp
	popq	%rbp
	retq
Ltmp364:
Lfunc_end74:
	.cfi_endproc

	.p2align	4, 0x90
__ZN55_$LT$crc32fast..State$u20$as$u20$core..clone..Clone$GT$5clone17h5488227ef3bcded8E:
Lfunc_begin75:
	.loc	33 71 0 is_stmt 1
	.cfi_startproc
	pushq	%rbp
	.cfi_def_cfa_offset 16
	.cfi_offset %rbp, -16
	movq	%rsp, %rbp
	.cfi_def_cfa_register %rbp
	subq	$48, %rsp
	movq	%rdi, -40(%rbp)
	movq	%rdi, -24(%rbp)
Ltmp365:
	.loc	33 71 10 prologue_end
	movl	(%rdi), %eax
	cmpq	$0, %rax
	jne	LBB75_2
	.loc	33 0 10 is_stmt 0
	movq	-40(%rbp), %rdi
	.loc	33 73 14 is_stmt 1
	addq	$4, %rdi
	movq	%rdi, -8(%rbp)
Ltmp366:
	.loc	33 73 14 is_stmt 0
	callq	__ZN65_$LT$crc32fast..baseline..State$u20$as$u20$core..clone..Clone$GT$5clone17hf95e81f9c0caba23E
	.loc	33 71 10 is_stmt 1
	movl	%eax, -28(%rbp)
	movl	$0, -32(%rbp)
Ltmp367:
	.loc	33 71 14 is_stmt 0
	jmp	LBB75_3
LBB75_2:
	.loc	33 0 14
	movq	-40(%rbp), %rdi
	.loc	33 74 17 is_stmt 1
	addq	$4, %rdi
	movq	%rdi, -16(%rbp)
Ltmp368:
	.loc	33 74 17 is_stmt 0
	callq	__ZN79_$LT$crc32fast..specialized..pclmulqdq..State$u20$as$u20$core..clone..Clone$GT$5clone17ha68ca6ea16d72438E
	.loc	33 71 10 is_stmt 1
	movl	%eax, -28(%rbp)
	movl	$1, -32(%rbp)
Ltmp369:
LBB75_3:
	.loc	33 71 15 is_stmt 0
	movl	-32(%rbp), %eax
	movl	-28(%rbp), %edx
	addq	$48, %rsp
	popq	%rbp
	retq
Ltmp370:
Lfunc_end75:
	.cfi_endproc

	.p2align	4, 0x90
__ZN56_$LT$crc32fast..Hasher$u20$as$u20$core..clone..Clone$GT$5clone17h99e5b9319c82db46E:
Lfunc_begin76:
	.loc	33 77 0 is_stmt 1
	.cfi_startproc
	pushq	%rbp
	.cfi_def_cfa_offset 16
	.cfi_offset %rbp, -16
	movq	%rsp, %rbp
	.cfi_def_cfa_register %rbp
	subq	$48, %rsp
	movq	%rsi, -40(%rbp)
	movq	%rdi, %rax
	movq	-40(%rbp), %rdi
	movq	%rax, -24(%rbp)
	movq	%rax, -16(%rbp)
	movq	%rdi, -8(%rbp)
Ltmp371:
	.loc	33 80 5 prologue_end
	movq	(%rdi), %rax
	movq	%rax, -32(%rbp)
	.loc	33 81 5
	addq	$8, %rdi
	callq	__ZN55_$LT$crc32fast..State$u20$as$u20$core..clone..Clone$GT$5clone17h5488227ef3bcded8E
	movq	-32(%rbp), %rsi
	movq	-24(%rbp), %rdi
	movl	%eax, %ecx
	movq	-16(%rbp), %rax
	.loc	33 77 10
	movq	%rsi, (%rdi)
	movl	%ecx, 8(%rdi)
	movl	%edx, 12(%rdi)
	.loc	33 77 15 is_stmt 0
	addq	$48, %rsp
	popq	%rbp
	retq
Ltmp372:
Lfunc_end76:
	.cfi_endproc

	.section	__TEXT,__const
l___unnamed_56:
	.ascii	"/rustc/2c8cc343237b8f7d5a3c3703e3a87f2eb2c54a74/library/stdarch/crates/std_detect/src/detect/cache.rs"

	.section	__DATA,__const
	.p2align	3
l___unnamed_1:
	.quad	l___unnamed_56
	.asciz	"e\000\000\000\000\000\000\000\277\000\000\000\005\000\000"

	.section	__TEXT,__const
l___unnamed_57:
	.ascii	"invalid args"

	.section	__DATA,__const
	.p2align	3
l___unnamed_2:
	.quad	l___unnamed_57
	.asciz	"\f\000\000\000\000\000\000"

	.section	__TEXT,__const
	.p2align	3
l___unnamed_3:
	.byte	0

l___unnamed_58:
	.ascii	"/rustc/2c8cc343237b8f7d5a3c3703e3a87f2eb2c54a74/library/core/src/fmt/mod.rs"

	.section	__DATA,__const
	.p2align	3
l___unnamed_4:
	.quad	l___unnamed_58
	.asciz	"K\000\000\000\000\000\000\000\221\001\000\000\r\000\000"

	.section	__TEXT,__const
l___unnamed_59:
	.ascii	"there is no such thing as an acquire-release load"

	.section	__DATA,__const
	.p2align	3
l___unnamed_7:
	.quad	l___unnamed_59
	.asciz	"1\000\000\000\000\000\000"

	.section	__TEXT,__const
l___unnamed_60:
	.ascii	"/rustc/2c8cc343237b8f7d5a3c3703e3a87f2eb2c54a74/library/core/src/sync/atomic.rs"

	.section	__DATA,__const
	.p2align	3
l___unnamed_8:
	.quad	l___unnamed_60
	.asciz	"O\000\000\000\000\000\000\000\323\013\000\000\027\000\000"

	.section	__TEXT,__const
l___unnamed_61:
	.ascii	"there is no such thing as a release load"

	.section	__DATA,__const
	.p2align	3
l___unnamed_5:
	.quad	l___unnamed_61
	.asciz	"(\000\000\000\000\000\000"

	.p2align	3
l___unnamed_6:
	.quad	l___unnamed_60
	.asciz	"O\000\000\000\000\000\000\000\322\013\000\000\030\000\000"

	.section	__TEXT,__const
l___unnamed_62:
	.ascii	"/Users/natalie/.cargo/registry/src/github.com-1ecc6299db9ec823/crc32fast-1.3.2/src/baseline.rs"

	.section	__DATA,__const
	.p2align	3
l___unnamed_9:
	.quad	l___unnamed_62
	.asciz	"^\000\000\000\000\000\000\000&\000\000\000$\000\000"

	.p2align	3
l___unnamed_10:
	.quad	l___unnamed_62
	.asciz	"^\000\000\000\000\000\000\000&\000\000\000\023\000\000"

	.p2align	3
l___unnamed_11:
	.quad	l___unnamed_62
	.asciz	"^\000\000\000\000\000\000\000'\000\000\000$\000\000"

	.p2align	3
l___unnamed_12:
	.quad	l___unnamed_62
	.asciz	"^\000\000\000\000\000\000\000'\000\000\000\023\000\000"

	.p2align	3
l___unnamed_13:
	.quad	l___unnamed_62
	.asciz	"^\000\000\000\000\000\000\000(\000\000\000$\000\000"

	.p2align	3
l___unnamed_14:
	.quad	l___unnamed_62
	.asciz	"^\000\000\000\000\000\000\000(\000\000\000\023\000\000"

	.p2align	3
l___unnamed_15:
	.quad	l___unnamed_62
	.asciz	"^\000\000\000\000\000\000\000)\000\000\000$\000\000"

	.p2align	3
l___unnamed_16:
	.quad	l___unnamed_62
	.asciz	"^\000\000\000\000\000\000\000)\000\000\000\023\000\000"

	.p2align	3
l___unnamed_17:
	.quad	l___unnamed_62
	.asciz	"^\000\000\000\000\000\000\000*\000\000\000$\000\000"

	.p2align	3
l___unnamed_18:
	.quad	l___unnamed_62
	.asciz	"^\000\000\000\000\000\000\000*\000\000\000\023\000\000"

	.p2align	3
l___unnamed_19:
	.quad	l___unnamed_62
	.asciz	"^\000\000\000\000\000\000\000+\000\000\000$\000\000"

	.p2align	3
l___unnamed_20:
	.quad	l___unnamed_62
	.asciz	"^\000\000\000\000\000\000\000+\000\000\000\023\000\000"

	.p2align	3
l___unnamed_21:
	.quad	l___unnamed_62
	.asciz	"^\000\000\000\000\000\000\000,\000\000\000$\000\000"

	.p2align	3
l___unnamed_22:
	.quad	l___unnamed_62
	.asciz	"^\000\000\000\000\000\000\000,\000\000\000\023\000\000"

	.p2align	3
l___unnamed_23:
	.quad	l___unnamed_62
	.asciz	"^\000\000\000\000\000\000\000-\000\000\000$\000\000"

	.p2align	3
l___unnamed_24:
	.quad	l___unnamed_62
	.asciz	"^\000\000\000\000\000\000\000-\000\000\000\023\000\000"

	.p2align	3
l___unnamed_25:
	.quad	l___unnamed_62
	.asciz	"^\000\000\000\000\000\000\000.\000\000\000$\000\000"

	.p2align	3
l___unnamed_26:
	.quad	l___unnamed_62
	.asciz	"^\000\000\000\000\000\000\000.\000\000\000\023\000\000"

	.p2align	3
l___unnamed_27:
	.quad	l___unnamed_62
	.asciz	"^\000\000\000\000\000\000\000/\000\000\000$\000\000"

	.p2align	3
l___unnamed_28:
	.quad	l___unnamed_62
	.asciz	"^\000\000\000\000\000\000\000/\000\000\000\023\000\000"

	.p2align	3
l___unnamed_29:
	.quad	l___unnamed_62
	.asciz	"^\000\000\000\000\000\000\0000\000\000\000$\000\000"

	.p2align	3
l___unnamed_30:
	.quad	l___unnamed_62
	.asciz	"^\000\000\000\000\000\000\0000\000\000\000\023\000\000"

	.p2align	3
l___unnamed_31:
	.quad	l___unnamed_62
	.asciz	"^\000\000\000\000\000\000\0001\000\000\000$\000\000"

	.p2align	3
l___unnamed_32:
	.quad	l___unnamed_62
	.asciz	"^\000\000\000\000\000\000\0001\000\000\000\023\000\000"

	.p2align	3
l___unnamed_33:
	.quad	l___unnamed_62
	.asciz	"^\000\000\000\000\000\000\0002\000\000\000$\000\000"

	.p2align	3
l___unnamed_34:
	.quad	l___unnamed_62
	.asciz	"^\000\000\000\000\000\000\0002\000\000\000\023\000\000"

	.p2align	3
l___unnamed_35:
	.quad	l___unnamed_62
	.asciz	"^\000\000\000\000\000\000\0003\000\000\000$\000\000"

	.p2align	3
l___unnamed_36:
	.quad	l___unnamed_62
	.asciz	"^\000\000\000\000\000\000\0003\000\000\000\023\000\000"

	.p2align	3
l___unnamed_37:
	.quad	l___unnamed_62
	.asciz	"^\000\000\000\000\000\000\0004\000\000\000$\000\000"

	.p2align	3
l___unnamed_38:
	.quad	l___unnamed_62
	.asciz	"^\000\000\000\000\000\000\0004\000\000\000\023\000\000"

	.p2align	3
l___unnamed_39:
	.quad	l___unnamed_62
	.asciz	"^\000\000\000\000\000\000\0005\000\000\000$\000\000"

	.p2align	3
l___unnamed_41:
	.quad	l___unnamed_62
	.asciz	"^\000\000\000\000\000\000\0005\000\000\000\023\000\000"

	.p2align	3
l___unnamed_40:
	.quad	l___unnamed_62
	.asciz	"^\000\000\000\000\000\000\0006\000\000\000\024\000\000"

	.p2align	3
l___unnamed_42:
	.quad	l___unnamed_62
	.asciz	"^\000\000\000\000\000\000\000A\000\000\000\017\000\000"

	.section	__TEXT,__const
l___unnamed_63:
	.ascii	"/Users/natalie/.cargo/registry/src/github.com-1ecc6299db9ec823/crc32fast-1.3.2/src/combine.rs"

	.section	__DATA,__const
	.p2align	3
l___unnamed_43:
	.quad	l___unnamed_63
	.asciz	"]\000\000\000\000\000\000\000\b\000\000\000\024\000\000"

	.p2align	3
l___unnamed_44:
	.quad	l___unnamed_63
	.asciz	"]\000\000\000\000\000\000\000\013\000\000\000\t\000\000"

	.section	__TEXT,__const
	.p2align	4
_str.0:
	.ascii	"attempt to add with overflow"

	.section	__DATA,__const
	.p2align	3
l___unnamed_45:
	.quad	l___unnamed_63
	.asciz	"]\000\000\000\000\000\000\000\022\000\000\000+\000\000"

	.p2align	3
l___unnamed_46:
	.quad	l___unnamed_63
	.asciz	"]\000\000\000\000\000\000\000\022\000\000\000\t\000\000"

	.p2align	3
l___unnamed_47:
	.quad	l___unnamed_63
	.asciz	"]\000\000\000\000\000\000\000$\000\000\000\t\000\000"

	.section	__TEXT,__const
	.p2align	2
__ZN9crc32fast5table11CRC32_TABLE17h2555912cf3d6bd3cE:
	.ascii	"\000\000\000\000\2260\007w,a\016\356\272Q\t\231\031\304m\007\217\364jp5\245c\351\243\225d\2362\210\333\016\244\270\334y\036\351\325\340\210\331\322\227+L\266\t\275|\261~\007-\270\347\221\035\277\220d\020\267\035\362 \260jHq\271\363\336A\276\204}\324\332\032\353\344\335mQ\265\324\364\307\205\323\203V\230l\023\300\250kdz\371b\375\354\311e\212O\\\001\024\331l\006cc=\017\372\365\r\b\215\310 n;^\020iL\344A`\325rqg\242\321\344\003<G\324\004K\375\205\r\322k\265\n\245\372\250\2655l\230\262B\326\311\273\333@\371\274\254\343l\3302u\\\337E\317\r\326\334Y=\321\253\2540\331&:\000\336Q\200Q\327\310\026a\320\277\265\364\264!#\304\263V\231\225\272\317\017\245\275\270\236\270\002(\b\210\005_\262\331\f\306$\351\013\261\207|o/\021LhX\253\035a\301=-f\266\220A\334v\006q\333\001\274 \322\230*\020\325\357\211\205\261q\037\265\266\006\245\344\277\2373\324\270\350\242\311\007x4\371\000\017\216\250\t\226\030\230\016\341\273\rj\177-=m\b\227ld\221\001\\c\346\364Qkkbal\034\3300e\205N\000b\362\355\225\006l{\245\001\033\301\364\b\202W\304\017\365\306\331\260eP\351\267\022\352\270\276\213|\210\271\374\337\035\335bI-\332\025\363|\323\214eL\324\373Xa\262M\316Q\265:t\000\274\243\3420\273\324A\245\337J\327\225\330=m\304\321\244\373\364\326\323j\351iC\374\331n4F\210g\255\320\270`\332s-\004D\345\035\0033_L\n\252\311|\r\335<q\005P\252A\002'\020\020\013\276\206 \f\311%\265hW\263\205o \t\324f\271\237\344a\316\016\371\336^\230\311\331)\"\230\320\260\264\250\327\307\027=\263Y\201\r\264.;\\\275\267\255l\272\300 \203\270\355\266\263\277\232\f\342\266\003\232\322\261t9G\325\352\257w\322\235\025&\333\004\203\026\334s\022\013c\343\204;d\224>jm\r\250Zjz\013\317\016\344\235\377\t\223'\256\000\n\261\236\007}D\223\017\360\322\243\b\207h\362\001\036\376\302\006i]Wb\367\313ge\200q6l\031\347\006knv\033\324\376\340+\323\211Zz\332\020\314J\335go\337\271\371\371\357\276\216C\276\267\027\325\216\260`\350\243\326\326~\223\321\241\304\302\3308R\362\337O\361g\273\321gW\274\246\335\006\265?K6\262H\332+\r\330L\033\n\257\366J\0036`z\004A\303\357`\337U\337g\250\357\216n1y\276iF\214\263a\313\032\203f\274\240\322o%6\342hR\225w\f\314\003G\013\273\271\026\002\"/&\005U\276;\272\305(\013\275\262\222Z\264+\004j\263\\\247\377\327\3021\317\320\265\213\236\331,\035\256\336[\260\302d\233&\362c\354\234\243ju\n\223m\002\251\006\t\234?6\016\353\205g\007r\023W\000\005\202J\277\225\024z\270\342\256+\261{8\033\266\f\233\216\322\222\r\276\325\345\267\357\334|!\337\333\013\324\322\323\206B\342\324\361\370\263\335hn\203\332\037\315\026\276\201[&\271\366\341w\260owG\267\030\346Z\b\210pj\017\377\312;\006f\\\013\001\021\377\236e\217i\256b\370\323\377kaE\317l\026x\342\n\240\356\322\r\327T\203\004N\302\263\0039a&g\247\367\026`\320MGiI\333wn>Jj\321\256\334Z\326\331f\013\337@\360;\3307S\256\274\251\305\236\273\336\177\317\262G\351\377\2650\034\362\275\275\212\302\272\3120\223\263S\246\243\264$\0056\320\272\223\006\327\315)W\336T\277g\331#.zf\263\270Ja\304\002\033h]\224+o*7\276\013\264\241\216\f\303\033\337\005Z\215\357\002-\000\000\000\000A1\033\031\202b62\303S-+\004\305ldE\364w}\206\247ZV\307\226AO\b\212\331\310I\273\302\321\212\350\357\372\313\331\364\343\fO\265\254M~\256\265\216-\203\236\317\034\230\207Q\022\302J\020#\331S\323p\364x\222A\357aU\327\256.\024\346\2657\327\265\230\034\226\204\203\005Y\230\033\202\030\251\000\233\333\372-\260\232\3136\251]]w\346\034ll\377\337?A\324\236\016Z\315\242$\204\225\343\025\237\214 F\262\247aw\251\276\246\341\350\361\347\320\363\350$\203\336\303e\262\305\332\252\256]]\353\237FD(\314koi\375pv\256k19\357Z* ,\t\007\013m8\034\022\3636F\337\262\007]\306qTp\3550ek\364\367\363*\273\266\3021\242u\221\034\2114\240\007\220\373\274\237\027\272\215\204\016y\336\251%8\357\262<\377y\363s\276H\350j}\033\305A<*\336X\005Oy\360D~b\351\207-O\302\306\034T\333\001\212\025\224@\273\016\215\203\350#\246\302\3318\277\r\305\2408L\364\273!\217\247\226\n\316\226\215\023\t\000\314\\H1\327E\213b\372n\312S\341wT]\273\272\025l\240\243\326?\215\210\227\016\226\221P\230\327\336\021\251\314\307\322\372\341\354\223\313\372\365\\\327br\035\346yk\336\265T@\237\204OYX\022\016\026\031#\025\017\332p8$\233A#=\247k\375e\346Z\346|%\t\313Wd8\320N\243\256\221\001\342\237\212\030!\314\2473`\375\274*\257\341$\255\356\320?\264-\203\022\237l\262\t\206\253$H\311\352\025S\320)F~\373hwe\342\366y?/\267H$6t\033\t\0355*\022\004\362\274SK\263\215HRp\336ey1\357~`\376\363\346\347\277\302\375\376|\221\320\325=\240\313\314\3726\212\203\273\007\221\232xT\274\2619e\247\250K\230\203;\n\251\230\"\311\372\265\t\210\313\256\020O]\357_\016l\364F\315?\331m\214\016\302tC\022Z\363\002#A\352\301pl\301\200Aw\330G\3276\227\006\346-\216\305\265\000\245\204\204\033\274\032\212Aq[\273Zh\230\350wC\331\331lZ\036O-\025_~6\f\234-\033'\335\034\000>\022\000\230\271S1\203\240\220b\256\213\321S\265\222\026\305\364\335W\364\357\304\224\247\302\357\325\226\331\366\351\274\007\256\250\215\034\267k\3361\234*\357*\205\355yk\312\254Hp\323o\033]\370.*F\341\3416\336f\240\007\305\177cT\350T\"e\363M\345\363\262\002\244\302\251\033g\221\2040&\240\237)\270\256\305\344\371\237\336\375:\314\363\326{\375\350\317\274k\251\200\375Z\262\231>\t\237\262\1778\204\253\260$\034,\361\025\00752F*\036sw1\007\264\341pH\365\320kQ6\203Fzw\262]cN\327\372\313\017\346\341\322\314\265\314\371\215\204\327\340J\022\226\257\013#\215\266\310p\240\235\211A\273\204F]#\003\007l8\032\304?\0251\205\016\016(B\230Og\003\251T~\300\372yU\201\313bL\037\3058\201^\364#\230\235\247\016\263\334\226\025\252\033\000T\345Z1O\374\231bb\327\330Sy\316\027O\341IV~\372P\225-\327{\324\034\314b\023\212\215-R\273\2264\221\350\273\037\320\331\240\006\354\363~^\255\302eGn\221Hl/\240Su\3506\022:\251\007\t#jT$\b+e?\021\344y\247\226\245H\274\217f\033\221\244'*\212\275\340\274\313\362\241\215\320\353b\336\375\300#\357\346\331\275\341\274\024\374\320\247\r?\203\212&~\262\221?\271$\320p\370\025\313i;F\346Bzw\375[\265ke\334\364Z~\3057\tS\356v8H\367\261\256\t\270\360\237\022\2413\314?\212r\375$\223\000\000\000\0007j\302\001n\324\204\003Y\276F\002\334\250\t\007\353\302\313\006\262|\215\004\205\026O\005\270Q\023\016\217;\321\017\326\205\227\r\341\357U\fd\371\032\tS\223\330\b\n-\236\n=G\\\013p\243&\034G\311\344\035\036w\242\037)\035`\036\254\013/\033\233a\355\032\302\337\253\030\365\265i\031\310\3625\022\377\230\367\023\246&\261\021\221Ls\020\024Z<\025#0\376\024z\216\270\026M\344z\027\340FM8\327,\2179\216\222\311;\271\370\013:<\356D?\013\204\206>R:\300<eP\002=X\027^6o}\23476\303\3325\001\251\0304\204\277W1\263\325\2250\352k\3232\335\001\0213\220\345k$\247\217\251%\3761\357'\311[-&LMb#{'\240\"\"\231\346 \025\363$!(\264x*\037\336\272+F`\374)q\n>(\364\034q-\303v\263,\232\310\365.\255\2427/\300\215\232p\367\347Xq\256Y\036s\2313\334r\034%\223w+OQvr\361\027tE\233\325ux\334\211~O\266K\177\026\b\r}!b\317|\244t\200y\223\036Bx\312\240\004z\375\312\306{\260.\274l\207D~m\336\3728o\351\220\372nl\206\265k[\354wj\002R1h58\363i\b\177\257b?\025mcf\253+aQ\301\351`\324\327\246e\343\275dd\272\003\"f\215i\340g \313\327H\027\241\025IN\037SKyu\221J\374c\336O\313\t\034N\222\267ZL\245\335\230M\230\232\304F\257\360\006G\366N@E\301$\202DD2\315AsX\017@*\346IB\035\214\213CPh\361Tg\0023U>\274uW\t\326\267V\214\300\370S\273\252:R\342\024|P\325~\276Q\3509\342Z\337S [\206\355fY\261\207\244X4\221\353]\003\373)\\ZEo^m/\255_\200\0335\341\267q\367\340\356\317\261\342\331\245s\343\\\263<\346k\331\376\3472g\270\345\005\rz\3448J&\357\017 \344\356V\236\242\354a\364`\355\344\342/\350\323\210\355\351\2126\253\353\275\\i\352\360\270\023\375\307\322\321\374\236l\227\376\251\006U\377,\020\032\372\033z\330\373B\304\236\371u\256\\\370H\351\000\363\177\203\302\362&=\204\360\021WF\361\224A\t\364\243+\313\365\372\225\215\367\315\377O\366`]x\331W7\272\330\016\211\374\3329\343>\333\274\365q\336\213\237\263\337\322!\365\335\345K7\334\330\fk\327\357f\251\326\266\330\357\324\201\262-\325\004\244b\3203\316\240\321jp\346\323]\032$\322\020\376^\305'\224\234\304~*\332\306I@\030\307\314VW\302\373<\225\303\242\202\323\301\225\350\021\300\250\257M\313\237\305\217\312\306{\311\310\361\021\013\311t\007D\314Cm\206\315\032\323\300\317-\271\002\316@\226\257\221w\374m\220.B+\222\031(\351\223\234>\246\226\253Td\227\362\352\"\225\305\200\340\224\370\307\274\237\317\255~\236\226\0238\234\241y\372\235$o\265\230\023\005w\231J\2731\233}\321\363\23205\211\215\007_K\214^\341\r\216i\213\317\217\354\235\200\212\333\367B\213\202I\004\211\265#\306\210\210d\232\203\277\016X\202\346\260\036\200\321\332\334\201T\314\223\204c\246Q\205:\030\027\207\rr\325\206\240\320\342\251\227\272 \250\316\004f\252\371n\244\253|x\353\256K\022)\257\022\254o\255%\306\255\254\030\201\361\247/\3533\246vUu\244A?\267\245\304)\370\240\363C:\241\252\375|\243\235\227\276\242\320s\304\265\347\031\006\264\276\247@\266\211\315\202\267\f\333\315\262;\261\017\263b\017I\261Ue\213\260h\"\327\273_H\025\272\006\366S\2701\234\221\271\264\212\336\274\203\340\034\275\332^Z\277\3554\230\276\000\000\000\000eg\274\270\213\310\t\252\356\257\265\022W\227b\2172\360\3367\334_k%\2718\327\235\357(\264\305\212O\b}d\340\275o\001\207\001\327\270\277\326J\335\330j\3623w\337\340V\020cX\237W\031P\3720\245\350\024\237\020\372q\370\254B\310\300{\337\255\247\307gC\bru&o\316\315p\177\255\225\025\030\021-\373\267\244?\236\320\030\207'\350\317\032B\217s\242\254 \306\260\311Gz\b>\2572\240[\310\216\030\265g;\n\320\000\207\262i8P/\f_\354\227\342\360Y\205\207\227\345=\321\207\206e\264\340:\335ZO\217\317?(3w\206\020\344\352\343wXR\r\330\355@h\277Q\370\241\370+\360\304\237\227H*0\"ZOW\236\342\366oI\177\223\b\365\307}\247@\325\030\300\374mN\320\2375+\267#\215\305\030\226\237\240\177*'\031G\375\272| A\002\222\217\364\020\367\350H\250=X\024\233X?\250#\266\220\0351\323\367\241\211j\317v\024\017\250\312\254\341\007\177\276\204`\303\006\322p\240^\267\027\034\346Y\270\251\364<\337\025L\205\347\302\321\340\200~i\016/\313{kHw\303\242\017\r\313\307h\261s)\307\004aL\240\270\331\365\230oD\220\377\323\374~Pf\356\0337\332VM'\271\016(@\005\266\306\357\260\244\243\210\f\034\032\260\333\201\177\327g9\221x\322+\364\037n\223\003\367&;f\220\232\203\210?/\221\355X\223)T`D\2641\007\370\f\337\250M\036\272\317\361\246\354\337\222\376\211\270.Fg\027\233T\002p'\354\273H\360q\336/L\3110\200\371\333U\347Ec\234\240?k\371\307\203\323\027h6\301r\017\212y\3137]\344\256P\341\\@\377TN%\230\350\366s\210\213\256\026\3577\026\370@\202\004\235'>\274$\037\351!AxU\231\257\327\340\213\312\260\\3;\266Y\355^\321\345U\260~PG\325\031\354\377l!;b\tF\207\332\347\3512\310\202\216\216p\324\236\355(\261\371Q\220_V\344\202:1X:\203\t\217\247\346n3\037\b\301\206\rm\246:\265\244\341@\275\301\206\374\005/)I\027JN\365\257\363v\"2\226\021\236\212x\276+\230\035\331\227 K\311\364x.\256H\300\300\001\375\322\245fAj\034^\226\367y9*O\227\226\237]\362\361#\345\005\031kM`~\327\365\216\321b\347\353\266\336_R\216\t\3027\351\265z\331F\000h\274!\274\320\3521\337\210\217Vc0a\371\326\"\004\236j\232\275\246\275\007\330\301\001\2776n\264\255S\t\b\025\232Nr\035\377)\316\245\021\206{\267t\341\307\017\315\331\020\222\250\276\254*F\021\0318#v\245\200uf\306\330\020\001z`\376\256\317r\233\311s\312\"\361\244WG\226\030\357\2519\255\375\314^\021E\006\356Mvc\211\361\316\215&D\334\350A\370dQy/\3714\036\223A\332\261&S\277\326\232\353\351\306\371\263\214\241E\013b\016\360\031\007iL\241\276Q\233<\3336'\2045\231\222\226P\376..\231\271T&\374\336\350\236\022q]\214w\026\3414\316.6\251\253I\212\021E\346?\003 \201\203\273v\221\340\343\023\366\\[\375Y\351I\230>U\361!\006\202lDa>\324\252\316\213\306\317\2517~8A\177\326]&\303n\263\211v|\326\356\312\304o\326\035Y\n\261\241\341\344\036\024\363\201y\250K\327i\313\023\262\016w\253\\\241\302\2719\306~\001\200\376\251\234\345\231\025$\0136\2406nQ\034\216\247\026f\206\302q\332>,\336o,I\271\323\224\360\201\004\t\225\346\270\261{I\r\243\036.\261\033H>\322C-Yn\373\303\366\333\351\246\221gQ\037\251\260\314z\316\ft\224a\271f\361\006\005\336\000\000\000\000\260)`=`S\300z\320z\240G\300\246\200\365p\217\340\310\240\365@\217\020\334 \262\301Kp0qb\020\r\241\030\260J\0211\320w\001\355\360\305\261\304\220\370a\2760\277\321\227P\202\202\227\340`2\276\200]\342\304 \032R\355@'B1`\225\362\030\000\250\"b\240\357\222K\300\322C\334\220P\363\365\360m#\217P*\223\2460\027\203z\020\2453Sp\230\343)\320\337S\000\260\342\004/\301\301\264\006\241\374d|\001\273\324Ua\206\304\211A4t\240!\t\244\332\201N\024\363\341s\305d\261\361uM\321\314\2457q\213\025\036\021\266\005\3021\004\265\353Q9e\221\361~\325\270\221C\206\270!\2416\221A\234\346\353\341\333V\302\201\346F\036\241T\3667\301i&Ma.\226d\001\023G\363Q\221\367\3321\254'\240\221\353\227\211\361\326\207U\321d7|\261Y\347\006\021\036W/q#IX\363X\371q\223e)\0133\"\231\"S\037\211\376s\2559\327\023\220\351\255\263\327Y\204\323\352\210\023\203h8:\343U\350@C\022Xi#/H\265\003\235\370\234c\240(\346\303\347\230\317\243\332\313\317\0238{\346s\005\253\234\323B\033\265\263\177\013i\223\315\273@\363\360k:S\267\333\0233\212\n\204c\b\272\255\0035j\327\243r\332\376\303O\312\"\343\375z\013\203\300\252q#\207\032XC\272Mw2\231\375^R\244-$\362\343\235\r\222\336\215\321\262l=\370\322Q\355\202r\026]\253\022+\214<B\251<\025\"\224\354o\202\323\\F\342\356L\232\302\\\374\263\242a,\311\002&\234\340b\033\317\340\322\371\177\311\262\304\257\263\022\203\037\232r\276\017FR\f\277o21o\025\222v\337<\362K\016\253\242\311\276\202\302\364n\370b\263\336\321\002\216\316\r\"<~$B\001\256^\342F\036w\202{\222\260\346\261\"\231\206\214\362\343&\313B\312F\366R\026fD\342?\006y2E\246>\202l\306\003S\373\226\201\343\322\366\2743\250V\373\203\2016\306\223]\026t#tvI\363\016\326\016C'\2663\020'\006\321\240\016f\354pt\306\253\300]\246\226\320\201\206$`\250\346\031\260\322F^\000\373&c\321lv\341aE\026\334\261?\266\233\001\026\326\246\021\312\366\024\241\343\226)q\2316n\301\260VS\226\237'p&\266GM\366\314\347\nF\345\2077V9\247\205\346\020\307\2706jg\377\206C\007\302W\324W@\347\3757}7\207\227:\207\256\367\007\227r\327\265'[\267\210\367!\027\317G\bw\362\024\b\307\020\244!\247-t[\007j\304rgW\324\256G\345d\207'\330\264\375\207\237\004\324\347\242\325C\267 ej\327\035\265\020wZ\0059\027g\025\3457\325\245\314W\350u\266\367\257\305\237\227\222\333\350\025\351k\301u\324\273\273\325\223\013\222\265\256\033N\225\034\253g\365!{\035Uf\31345[\032\243e\331\252\212\005\344z\360\245\243\312\331\305\236\332\005\345,j,\205\021\272V%V\n\177EkY\177\365\211\351V\225\2649,5\363\211\005U\316\231\331u|)\360\025A\371\212\265\006I\243\325;\2304\205\271(\035\345\204\370gE\303HN%\376X\222\005L\350\273eq8\301\3056\210\350\245\013\337\307\324(o\356\264\025\277\224\024R\017\275to\037aT\335\257H4\340\1772\224\247\317\033\364\232\036\214\244\030\256\245\304%~\337db\316\366\004_\336*$\355n\003D\320\276y\344\227\016P\204\252]P4H\355yTu=\003\3642\215*\224\017\235\366\264\275-\337\324\200\375\245t\307M\214\024\372\234\033Dx,2$E\374H\204\002La\344?\\\275\304\215\354\224\244\260<\356\004\367\214\307d\312\000\000\000\000\245\323\\\313\013\241\310M\256r\224\206\026B\221\233\263\221\315P\035\343Y\326\2700\005\035m\202S\354\310Q\017'f#\233\241\303\360\307j{\300\302w\336\023\236\274pa\n:\325\262V\361\233\002\326\003>\321\212\310\220\243\036N5pB\205\215@G\230(\223\033S\206\341\217\325#2\323\036\366\200\205\357SS\331$\375!M\242X\362\021i\340\302\024tE\021H\277\353c\3349N\260\200\3626\005\254\007\223\326\360\314=\244dJ\230w8\201 G=\234\205\224aW+\346\365\321\2165\251\032[\207\377\353\376T\243 P&7\246\365\365kmM\305np\350\0262\273Fd\246=\343\267\372\366\255\007z\004\b\324&\317\246\246\262I\003u\356\202\273E\353\237\036\226\267T\260\344#\322\0257\177\031\300\205)\350eVu#\313$\341\245n\367\275n\326\307\270ss\024\344\270\335fp>x\265,\365l\nX\017\311\331\004\304g\253\220B\302x\314\211zH\311\224\337\233\225_q\351\001\331\324:]\022\001\210\013\343\244[W(\n)\303\256\257\372\237e\027\312\232x\262\031\306\263\034kR5\271\270\016\376\367\b\216\fR\333\322\307\374\251FAYz\032\212\341J\037\227D\231C\\\352\353\327\332O8\213\021\232\212\335\340?Y\201+\221+\025\2554\370If\214\310L{)\033\020\260\207i\2046\"\272\330\375Z\017\364\b\377\334\250\303Q\256<E\364}`\216LMe\223\351\2369XG\354\255\336\342?\361\0257\215\247\344\222^\373/<,o\251\231\3773b!\3176\177\204\034j\264*n\3762\217\275\242\371\301\r\"\013d\336~\300\312\254\352Fo\177\266\215\327O\263\220r\234\357[\334\356{\335y='\026\254\217q\347\t\\-,\247.\271\252\002\375\345a\272\315\340|\037\036\274\267\261l(1\024\277t\372\330\024\260\036}\307\354\325\323\265xSvf$\230\316V!\205k\205}N\305\367\351\310`$\265\003\265\226\343\362\020E\2779\2767+\277\033\344wt\243\324ri\006\007.\242\250u\272$\r\246\346\357C\026f\035\346\305:\326H\267\256P\355d\362\233UT\367\206\360\207\253M^\365?\313\373&c\000.\2245\361\213Gi:%5\375\274\200\346\241w8\326\244j\235\005\370\2413wl'\226\2440\354\356\021\034\031K\302@\322\345\260\324T@c\210\237\370S\215\202]\200\321I\363\362E\317V!\031\004\203\223O\365&@\023>\2102\207\270-\341\333s\225\321\336n0\002\202\245\236p\026#;\243J\350u\023\312\032\320\300\226\321~\262\002W\333a^\234cQ[\201\306\202\007Jh\360\223\314\315#\317\007\030\221\231\366\275B\305=\0230Q\273\266\343\rp\016\323\bm\253\000T\246\005r\300 \240\241\234\353\264\036\350\021\021\315\264\332\277\277 \\\032l|\227\242\\y\212\007\217%A\251\375\261\307\f.\355\f\331\234\273\375|O\3476\322=s\260w\356/{\317\336*fj\rv\255\304\177\342+a\254\276\340/\034>\022\212\317b\331$\275\366_\201n\252\2249^\257\211\234\215\363B2\377g\304\227,;\017B\236m\376\347M15I?\245\263\354\354\371xT\334\374e\361\017\240\256_}4(\372\256h\343\202\033D\026'\310\030\335\211\272\214[,i\320\220\224Y\325\2151\212\211F\237\370\035\300:+A\013\357\231\027\372JJK1\3448\337\267A\353\203|\371\333\206a\\\b\332\252\362zN,W\251\022\347\031\031\222\025\274\312\316\336\022\270ZX\267k\006\223\017[\003\216\252\210_E\004\372\313\303\241)\227\bt\233\301\371\321H\2352\177:\t\264\332\351U\177b\331Pb\307\n\f\251ix\230/\314\253\304\344\000\000\000\000\264\013w\246)\021\237\227\235\032\3501\023$O\364\247/8R:5\320c\216>\247\305gN\3573\323E\230\225N_p\244\372T\007\002tj\240\307\300a\327a]{?P\351pH\366\316\234\336gz\227\251\301\347\215A\360S\2066V\335\270\221\223i\263\3465\364\251\016\004@\242y\242\251\3221T\035\331F\362\200\303\256\3034\310\331e\272\366~\240\016\375\t\006\223\347\3417'\354\226\221\2349\275\317(2\312i\265(\"X\001#U\376\217\035\362;;\026\205\235\246\fm\254\022\007\032\n\373wR\374O|%Z\322f\315kfm\272\315\350S\035\b\\Xj\256\301B\202\237uI\3659R\245c\250\346\256\024\016{\264\374?\317\277\213\231A\201,\\\365\212[\372h\220\263\313\334\233\304m5\353\214\233\201\340\373=\034\372\023\f\250\361d\252&\317\303o\222\304\264\311\017\336\\\370\273\325+^yu\013D\315~|\342Pd\224\323\344o\343ujQD\260\336Z3\026C@\333'\367K\254\201\036;\344w\2520\223\3217*{\340\203!\fF\r\037\253\203\271\024\334%$\0164\024\220\005C\262\267\351\325#\003\342\242\205\236\370J\264*\363=\022\244\315\232\327\020\306\355q\215\334\005@9\327r\346\320\247:\020d\254M\266\371\266\245\207M\275\322!\303\203u\344w\210\002B\352\222\352s^\231\235\325\345L\266\213QG\301-\314])\034xV^\272\366h\371\177Bc\216\331\337yf\350kr\021N\202\002Y\2706\t.\036\253\023\306/\037\030\261\211\221&\026L%-a\352\2707\211\333\f<\376}+\320h\354\237\333\037J\002\301\367{\266\312\200\3358\364'\030\214\377P\276\021\345\270\217\245\356\317)L\236\207\337\370\225\360ye\217\030H\321\204o\356_\272\310+\353\261\277\215v\253W\274\302\240 \032\362\352\026\210F\341a.\333\373\211\037o\360\376\271\341\316Y|U\305.\332\310\337\306\353|\324\261M\225\244\371\273!\257\216\035\274\265f,\b\276\021\212\206\200\266O2\213\301\351\257\221)\330\033\232^~<v\310\357\210}\277I\025gWx\241l \336/R\207\033\233Y\360\275\006C\030\214\262Ho*[8'\334\3573Pzr)\270K\306\"\317\355H\034h(\374\027\037\216a\r\367\277\325\006\200\031n\323\253G\332\330\334\341G\3024\320\363\311Cv}\367\344\263\311\374\223\025T\346{$\340\355\f\202\t\235Dt\275\2263\322 \214\333\343\224\207\254E\032\271\013\200\256\262|&3\250\224\027\207\243\343\261\240Ou \024D\002\206\211^\352\267=U\235\021\263k:\324\007`Mr\232z\245C.q\322\345\307\001\232\023s\n\355\265\356\020\005\204Z\033r\"\324%\325\347`.\242A\3754JpI?=\326\213\237\035\314?\224jj\242\216\202[\026\205\365\375\230\273R8,\260%\236\261\252\315\257\005\241\272\t\354\321\362\377X\332\205Y\305\300mhq\313\032\316\377\365\275\013K\376\312\255\326\344\"\234b\357U:E\003\303\253\361\b\264\rl\022\\<\330\031+\232V'\214_\342,\373\371\1776\023\310\313=dn\"M,\230\226F[>\013\\\263\017\277W\304\2511icl\205b\024\312\030x\374\373\254s\213]\027\246\240\003\243\255\327\245>\267?\224\212\274H2\004\202\357\367\260\211\230Q-\223p`\231\230\007\306p\350O0\304\3438\226Y\371\320\247\355\362\247\001c\314\000\304\327\307wbJ\335\237S\376\326\350\365\331:~dm1\t\302\360+\341\363D \226U\312\0361\220~\025F6\343\017\256\007W\004\331\241\276t\221W\n\177\346\361\227e\016\300#nyf\255P\336\243\031[\251\005\204AA40J6\222\000\000\000\000\236\000\252\314}\007%B\343\007\217\216\372\016J\204d\016\340H\207\to\306\031\t\305\n\265\033\345\323+\033O\037\310\034\300\221V\034j]O\025\257W\321\025\005\2332\022\212\025\254\022 \331+1\273|\2651\021\260V6\236>\31064\362\321?\361\370O?[4\2548\324\27228~v\236*^\257\000*\364c\343-{\355}-\321!d$\024+\372$\276\347\031#1i\207#\233\245Vbv\371\310b\3345+eS\273\265e\371w\254l<}2l\226\261\321k\031?Ok\263\363\343y\223*}y9\346\236~\266h\000~\034\244\031w\331\256\207wsbdp\374\354\372pV }S\315\205\343SgI\000T\350\307\236TB\013\207]\207\001\031]-\315\372Z\242CdZ\b\217\310H(VVH\202\232\265O\r\024+O\247\3302Fb\322\254F\310\036OAG\220\321A\355\\\355\302\235)s\3027\345\220\305\270k\016\305\022\247\027\314\327\255\211\314}aj\313\362\357\364\313X#X\331x\372\306\331\3226%\336]\270\273\336\367t\242\3272~<\327\230\262\337\320\027<A\320\275\360\306\363&UX\363\214\231\273\364\003\027%\364\251\333<\375l\321\242\375\306\035A\372I\223\337\372\343_s\350\303\206\355\350iJ\016\357\346\304\220\357L\b\211\346\211\002\027\346#\316\364\341\254@j\341\006\214\273\240\353\320%\240A\034\306\247\316\222X\247d^A\256\241T\337\256\013\230<\251\204\026\242\251.\332\016\273\016\003\220\273\244\317s\274+A\355\274\201\215\364\265D\207j\265\356K\211\262a\305\027\262\313\t\220\221P\254\016\221\372`\355\226u\356s\226\337\"j\237\032(\364\237\260\344\027\230?j\211\230\225\246%\212\265\177\273\212\037\263X\215\220=\306\215:\361\337\204\377\373A\204U7\242\203\332\271<\203pu\332\205;SD\205\221\237\247\202\036\0219\202\264\335 \213q\327\276\213\333\033]\214T\225\303\214\376Yo\236\336\200\361\236tL\022\231\373\302\214\231Q\016\225\220\224\004\013\220>\310\350\227\261Fv\227\033\212\361\264\200/o\264*\343\214\263\245m\022\263\017\241\013\272\312\253\225\272`gv\275\357\351\350\275E%D\257e\374\332\257\31709\250@\276\247\250\352r\276\241/x \241\205\264\303\246\n:]\246\240\366\214\347M\252\022\347\347f\361\340h\350o\340\302$v\351\007.\350\351\255\342\013\356\"l\225\356\210\2409\374\250y\247\374\002\265D\373\215;\332\373'\367\303\362\342\375]\362H1\276\365\307\277 \365ms\247\326\366\3269\326\\\032\332\321\323\224D\321yX]\330\274R\303\330\026\236 \337\231\020\276\3373\334\022\315\023\005\214\315\271\311o\3126G\361\312\234\213\350\303Y\201v\303\363M\225\304|\303\013\304\326\0177G\246z\251G\f\266J@\2038\324@)\364\315I\354\376SIF2\260N\311\274.Ncp\202\\C\251\034\\\351e\377[f\353a[\314'xR\t-\346R\243\341\005U,o\233U\206\243\034v\035\006\202v\267\312aq8D\377q\222\210\346xW\202xx\375N\233\177r\300\005\177\330\f\251m\370\3257mR\031\324j\335\227Jjw[Sc\262Q\315c\030\235.d\227\023\260d=\337a%\320\203\377%zO\034\"\365\301\202\"_\r\233+\232\007\005+0\313\346,\277Ex,\025\211\324>5PJ>\237\234\2519\020\02279\272\336.0\177\324\2600\325\030S7Z\226\3157\360ZJ\024k\377\324\024\30137\023N\275\251\023\344q\260\032!{.\032\213\267\315\035\0049S\035\256\365\377\017\216,a\017$\340\202\b\253n\034\b\001\242\005\001\304\250\233\001ndx\006\341\352\346\006K&\000\000\000\000C\024{\027\206(\366.\305<\2159\fQ\354]OE\227J\212y\032s\311mad\030\242\330\273[\266\243\254\236\212.\225\335\236U\202\024\3634\346W\347O\361\222\333\302\310\321\317\271\337qB\300\2542V\273\273\367j6\202\264~M\225}\023,\361>\007W\346\373;\332\337\270/\241\310i\340\030\027*\364c\000\357\310\3569\254\334\225.e\261\364J&\245\217]\343\231\002d\240\215ys\243\202\361\202\340\226\212\225%\252\007\254f\276|\273\257\323\035\337\354\307f\310)\373\353\361j\357\220\346\273 )9\3704R.=\b\337\027~\034\244\000\267q\305d\364e\276s1Y3JrMH]\322\3001.\221\324J9T\350\307\000\027\374\274\027\336\221\335s\235\205\246dX\271+]\033\255PJ\312b\351\225\211v\222\202LJ\037\273\017^d\254\3063\005\310\205'~\337@\033\363\346\003\017\210\361\007\003\222\336D\027\351\311\201+d\360\302?\037\347\013R~\203HF\005\224\215z\210\255\316n\363\272\037\241Je\\\2651r\231\211\274K\332\235\307\\\023\360\2468P\344\335/\225\330P\026\326\314+\001vARr5U)e\360i\244\\\263}\337Kz\020\276/9\004\3058\3748H\001\277,3\026n\343\212\311-\367\361\336\350\313|\347\253\337\007\360b\262f\224!\246\035\203\344\232\220\272\247\216\353\255\244\201c\\\347\225\030K\"\251\225ra\275\356e\250\320\217\001\353\304\364\026.\370y/m\354\0028\274#\273\347\3777\300\360:\013M\311y\0376\336\260rW\272\363f,\2556Z\241\224uN\332\203\325\303\243\360\226\327\330\347S\353U\336\020\377.\311\331\222O\255\232\2064\272_\272\271\203\034\256\302\224\315a{K\216u\000\\KI\215e\b]\366r\3010\227\026\202$\354\001G\030a8\004\f\032/O\000Uf\f\024.q\311(\243H\212<\330_CQ\271;\000E\302,\305yO\025\206m4\002W\242\215\335\024\266\366\312\321\212{\363\222\236\000\344[\363a\200\030\347\032\227\335\333\227\256\236\317\354\271>B\225\312}V\356\335\270jc\344\373~\030\3632\023y\227q\007\002\200\264;\217\271\367/\364\256&\340Mqe\3646f\240\310\273_\343\334\300H*\261\241,i\245\332;\254\231W\002\357\215,\025\354\202\244\344\257\226\337\363j\252R\312)\276)\335\340\323H\271\243\3073\256f\373\276\227%\357\305\200\364 |_\2674\007Hr\b\212q1\034\361f\370q\220\002\273e\353\025~Yf,=M\035;\235\300dH\336\324\037_\033\350\222fX\374\351q\221\221\210\025\322\205\363\002\027\271~;T\255\005,\205b\274\363\306v\307\344\003JJ\335@^1\312\2113P\256\312'+\271\017\033\246\200L\017\335\227H\003\307\270\013\027\274\257\316+1\226\215?J\201DR+\345\007FP\362\302z\335\313\201n\246\334P\241\037\003\023\265d\024\326\211\351-\225\235\222:\\\360\363^\037\344\210I\332\330\005p\231\314~g9A\007\024zU|\003\277i\361:\374}\212-5\020\353Iv\004\220^\2638\035g\360,fp!\343\337\257b\367\244\270\247\313)\201\344\337R\226-\2623\362n\246H\345\253\232\305\334\350\216\276\313\353\2016:\250\225M-m\251\300\024.\275\273\003\347\320\332g\244\304\241pa\370,I\"\354W^\363#\356\201\2607\225\226u\013\030\2576\037c\270\377r\002\334\274fy\313yZ\364\362:N\217\345\232\303\366\226\331\327\215\201\034\353\000\270_\377{\257\226\222\032\313\325\206a\334\020\272\354\345S\256\227\362\202a.-\301uU:\004I\330\003G]\243\024\2160\302p\315$\271g\b\0304^K\fOI\000\000\000\000>k\302\357=\320\365\004\003\2737\353z\240\353\tD\313)\346Gp\036\ry\033\334\342\364@\327\023\312+\025\374\311\220\"\027\367\373\340\370\216\340<\032\260\213\376\365\2630\311\036\215[\013\361\350\201\256'\326\352l\310\325Q[#\353:\231\314\222!E.\254J\207\301\257\361\260*\221\232r\305\034\301y4\"\252\273\333!\021\2140\037zN\337fa\222=X\nP\322[\261g9e\332\245\326\320\003]O\356h\237\240\355\323\250K\323\270j\244\252\243\266F\224\310t\251\227sCB\251\030\201\255$C\212\\\032(H\263\031\223\177X'\370\275\267^\343aU`\210\243\272c3\224Q]XV\2768\202\363h\006\3511\207\005R\006l;9\304\203B\"\030a|I\332\216\177\362\355eA\231/\212\314\302${\362\251\346\224\361\022\321\177\317y\023\220\266b\317r\210\t\r\235\213\262:v\265\331\370\231\240\007\272\236\236lxq\235\327O\232\243\274\215u\332\247Q\227\344\314\223x\347w\244\223\331\034f|TGm\215j,\257bi\227\230\211W\374Zf.\347\206\204\020\214Dk\0237s\200-\\\261oH\206\024\271v\355\326VuV\341\275K=#R2&\377\260\fM=_\017\366\n\2641\235\310[\274\306\303\252\202\255\001E\201\0266\256\277}\364A\306f(\243\370\r\352L\373\266\335\247\305\335\037Hp\004\347\321No%>M\324\022\325s\277\320:\n\244\f\3304\317\31677t\371\334\t\037;3\204D0\302\272/\362-\271\224\305\306\207\377\007)\376\344\333\313\300\217\031$\3034.\317\375_\354 \230\205I\366\246\356\213\031\245U\274\362\233>~\035\342%\242\377\334N`\020\337\365W\373\341\236\225\024l\305\236\345R\256\\\nQ\025k\341o~\251\016\026eu\354(\016\267\003+\265\200\350\025\336B\007\001\t\005\346?b\307\t<\331\360\342\002\2622\r{\251\356\357E\302,\000Fy\033\353x\022\331\004\365I\322\365\313\"\020\032\310\231'\361\366\362\345\036\217\3519\374\261\202\373\023\2629\314\370\214R\016\027\351\210\253\301\327\343i.\324X^\305\3523\234*\223(@\310\255C\202'\256\370\265\314\220\223w#\035\310|\322#\243\276= \030\211\326\036sK9gh\227\333Y\003U4Z\270b\337d\323\2400\321\nX\251\357a\232F\354\332\255\255\322\261oB\253\252\263\240\225\301qO\226zF\244\250\021\204K%J\217\272\033!MU\030\232z\276&\361\270Q_\352d\263a\201\246\\b:\221\267\\QSX9\213\366\216\007\3404a\004[\003\212:0\301eC+\035\207}@\337h~\373\350\203@\220*l\315\313!\235\363\240\343r\360\033\324\231\316p\026v\267k\312\224\211\000\b{\212\273?\220\264\320\375\177\241\016\277x\237e}\227\234\336J|\242\265\210\223\333\256Tq\345\305\226\236\346~\241u\330\025c\232UNhkk%\252\204h\236\235oV\365_\200/\356\203b\021\205A\215\022>vf,U\264\211I\217\021_w\344\323\260t_\344[J4&\2643/\372V\rD8\271\016\377\017R0\224\315\275\275\317\306L\203\244\004\243\200\0373H\276t\361\247\307o-E\371\004\357\252\372\277\330A\304\324\032\256q\r\3427Of \330L\335\0273r\266\325\334\013\255\t>5\306\313\3216}\374:\b\026>\325\205M5$\273&\367\313\270\235\300 \206\366\002\317\377\355\336-\301\206\034\302\302=+)\374V\351\306\231\214L\020\247\347\216\377\244\\\271\024\2327{\373\343,\247\031\335Ge\366\336\374R\035\340\227\220\362m\314\233\003S\247Y\354P\034n\007nw\254\350\027lp\n)\007\262\345*\274\205\016\024\327G\341\000\000\000\000\300\337\216\301\301\271lX\001f\342\231\202s\331\260B\254WqC\312\265\350\203\025;)E\341\303\272\205>M{\204X\257\342D\207!#\307\222\032\n\007M\224\313\006+vR\306\364\370\223\313\304\366\256\013\033xo\n}\232\366\312\242\0247I\267/\036\211h\241\337\210\016CFH\321\315\207\216%5\024N\372\273\325O\234YL\217C\327\215\fV\354\244\314\211be\315\357\200\374\r0\016=\327\217\234\206\027P\022G\0266\360\336\326\351~\037U\374E6\225#\313\367\224E)nT\232\247\257\222n_<R\261\321\375S\3273d\223\b\275\245\020\035\206\214\320\302\bM\321\244\352\324\021{d\025\034Kj(\334\224\344\351\335\362\006p\035-\210\261\2368\263\230^\347=Y_\201\337\300\237^Q\001Y\252\251\222\231u'S\230\023\305\312X\314K\013\333\331p\"\033\006\376\343\032`\034z\332\277\222\273\357\031H\326/\306\306\027.\240$\216\356\177\252Omj\221f\255\265\037\247\254\323\375>l\fs\377\252\370\213lj'\005\255kA\3474\253\236i\365(\213R\334\350T\334\035\3512>\204)\355\260E$\335\276x\344\0020\271\345d\322 %\273\\\341\246\256g\310fq\351\tg\027\013\220\247\310\205Qa<}\302\241\343\363\003\240\205\021\232`Z\237[\343O\244r#\220*\263\"\366\310*\342)F\3538\226\324P\370IZ\221\371/\270\b9\3606\311\272\345\r\340z:\203!{\\a\270\273\203\357y}w\027\352\275\250\231+\274\316{\262|\021\365s\377\004\316Z?\333@\233>\275\242\002\376b,\303\363R\"\3763\215\254?2\353N\246\3624\300gq!\373N\261\376u\217\260\230\227\026pG\031\327\266\263\341Dvlo\205w\n\215\034\267\325\003\3354\3008\364\364\037\2665\365yT\2545\246\332m\2375\341w_\352o\266^\214\215/\236S\003\356\035F8\307\335\231\266\006\334\377T\237\034 \332^\332\324\"\315\032\013\254\f\033mN\225\333\262\300TX\247\373}\230xu\274\231\036\227%Y\301\031\344T\361\027\331\224.\231\030\225H{\201U\227\365@\326\202\316i\026]@\250\027;\2421\327\344,\360\021\020\324c\321\317Z\242\320\251\270;\020v6\372\223c\r\323S\274\203\022R\332a\213\222\005\357JH\272}\361\210e\3630\211\003\021\251I\334\237h\312\311\244A\n\026*\200\013p\310\031\313\257F\330\r[\276K\315\2040\212\314\342\322\023\f=\\\322\217(g\373O\367\351:N\221\013\243\216N\205b\203~\213_C\241\005\236B\307\347\007\202\030i\306\001\rR\357\301\322\334.\300\264>\267\000k\260v\306\237H\345\006@\306$\007&$\275\307\371\252|D\354\221U\2043\037\224\205U\375\rE\212s\314p,\251\241\260\363'`\261\225\305\371qJK8\362_p\0212\200\376\3203\346\034I\3639\222\2105\315j\033\365\022\344\332\364t\006C4\253\210\202\267\276\263\253wa=jv\007\337\363\266\330Q2\273\350_\017{7\321\316zQ3W\272\216\275\2269\233\206\277\371D\b~\370\"\352\3478\375d&\376\t\234\265>\326\022t?\260\360\355\377o~,|zE\005\274\245\313\304\275\303)]}\034\247\234\247\2435'g|\273\346f\032Y\177\246\305\327\276%\320\354\227\345\017bV\344i\200\317$\266\016\016\342B\366\235\"\235x\\#\373\232\305\343$\024\004`1/-\240\356\241\354\241\210CuaW\315\264lg\303\211\254\270MH\255\336\257\321m\001!\020\356\024\0329.\313\224\370/\255va\357r\370\240)\206\0003\351Y\216\362\350?lk(\340\342\252\253\365\331\203k*WBjL\265\333\252\223;\032\000\000\000\000oL\245\233\237\236;\354\360\322\236w\177;\006\003\020w\243\230\340\245=\357\217\351\230t\376v\f\006\221:\251\235a\3507\352\016\244\222q\201M\n\005\356\001\257\236\036\3231\351q\237\224r\374\355\030\f\223\241\275\227cs#\340\f?\206{\203\326\036\017\354\232\273\224\034H%\343s\004\200x\002\233\024\nm\327\261\221\235\005/\346\362I\212}}\240\022\t\022\354\267\222\342>)\345\215r\214~\370\3331\030\227\227\224\203gE\n\364\b\t\257o\207\3407\033\350\254\222\200\030~\f\367w2\251l\006\255=\036i\341\230\205\2313\006\362\366\177\243iy\226;\035\026\332\236\206\346\b\000\361\211D\245j\0046)\024kz\214\217\233\250\022\370\364\344\267c{\r/\027\024A\212\214\344\223\024\373\213\337\261`\372@%\022\225\f\200\211e\336\036\376\n\222\273e\205{#\021\3527\206\212\032\345\030\375u\251\275f\360\267c0\237\373\306\253o)X\334\000e\375G\217\214e3\340\300\300\250\020\022^\337\177^\373D\016\301o6a\215\312\255\221_T\332\376\023\361Aq\372i5\036\266\314\256\356dR\331\201(\367B\fZ{<c\026\336\247\223\304@\320\374\210\345Ksa}?\034-\330\244\354\377F\323\203\263\343H\362,w:\235`\322\241m\262L\326\002\376\351M\215\027q9\342[\324\242\022\211J\325}\305\357N\blR(g \367\263\227\362i\304\370\276\314_wWT+\030\033\361\260\350\311o\307\207\205\312\\\366\032^.\231V\373\265i\204e\302\006\310\300Y\211!X-\346m\375\266\026\277c\301y\363\306Z\364\201J$\233\315\357\277k\037q\310\004S\324S\213\272L'\344\366\351\274\024$w\313{h\322P\n\367F\"e\273\343\271\225i}\316\372%\330Uu\314@!\032\200\345\272\352R{\315\205\036\336V\340o\307`\217#b\373\177\361\374\214\020\275Y\027\237T\301c\360\030d\370\000\312\372\217o\206_\024\036\031\313fqUn\375\201\207\360\212\356\313U\021a\"\315e\016nh\376\376\274\366\211\221\360S\022\034\202\337ls\316z\367\203\034\344\200\354PA\033c\271\331o\f\365|\364\374'\342\203\223kG\030\342\364\323j\215\270v\361}j\350\206\022&M\035\235\317\325i\362\203p\362\002Q\356\205m\035K\036\030\264\366xw\370S\343\207*\315\224\350fh\017g\217\360{\b\303U\340\370\021\313\227\227]n\f\346\302\372~\211\216_\345y\\\301\222\026\020d\t\231\371\374}\366\265Y\346\006g\307\221i+b\n\344Y\356t\213\025K\357{\307\325\230\024\213p\003\233b\350w\364.M\354\004\374\323\233k\260v\000\032/\342rucG\351\205\261\331\236\352\375|\005e\024\344q\nXA\352\372\212\337\235\225\306z\006\020\330\244P\177\224\001\313\217F\237\274\340\n:'o\343\242S\000\257\007\310\360}\231\277\2371<$\356\256\250V\201\342\r\315q0\223\272\036|6!\221\225\256U\376\331\013\316\016\013\225\271aG0\"\3545\274\\\203y\031\307s\253\207\260\034\347\"+\223\016\272_\374B\037\304\f\220\201\263c\334$(\022C\260Z}\017\025\301\215\335\213\266\342\221.-mx\266Y\0024\023\302\362\346\215\265\235\252(.\350\003\225H\207O0\323w\235\256\244\030\321\013?\2278\223K\370t6\320\b\246\250\247g\352\r<\026u\231Ny9<\325\211\353\242\242\346\247\0079iN\237M\006\002:\326\366\320\244\241\231\234\001:\024\356\215D{\242(\337\213p\266\250\344<\0233k\325\213G\004\231.\334\364K\260\253\233\007\0250\352\230\201B\205\324$\331u\006\272\256\032J\0375\225\243\207A\372\357\"\332\n=\274\255eq\0316\000\000\000\000\205\331\226\335K\265\\`\316l\312\275\226j\271\300\023\263/\035\335\337\345\240X\006s}m\323\003Z\350\n\225\207&f_:\243\277\311\347\373\271\272\232~`,G\260\f\346\3725\325p'\332\246\007\264_\177\221i\221\023[\324\024\312\315\tL\314\276t\311\025(\251\007y\342\024\202\240t\311\267u\004\3562\254\2223\374\300X\216y\031\316S!\037\275.\244\306+\363j\252\341N\357sw\223\365K~\263p\222\350n\276\376\"\323;'\264\016c!\307s\346\370Q\256(\224\233\023\255M\r\316\230\230}\351\035A\3534\323-!\211V\364\267T\016\362\304)\213+R\364EG\230I\300\236\016\224/\355y\007\2524\357\332dX%g\341\201\263\272\271\207\300\307<^V\032\3622\234\247w\353\nzB>z]\307\347\354\200\t\213&=\214R\260\340\324T\303\235Q\215U@\237\341\237\375\0328\t \253\221\215\275.H\033`\340$\321\335e\375G\000=\3734}\270\"\242\240vNh\035\363\227\376\300\306B\216\347C\233\030:\215\367\322\207\b.DZP(7'\325\361\241\372\033\235kG\236D\375\232q7\212\t\364\356\034\324:\202\326i\277[@\264\347]3\311b\204\245\024\254\350o\251)1\371t\034\344\211S\231=\037\216WQ\3253\322\210C\356\212\2160\223\017W\246N\301;l\363D\342\372.^\332\363\016\333\003e\323\025o\257n\220\2669\263\310\260J\316Mi\334\023\203\005\026\256\006\334\200s3\t\360T\266\320f\211x\274\2544\375e:\351\245cI\224 \272\337I\356\326\025\364k\017\203)\204|\364\272\001\245bg\317\311\250\332J\020>\007\022\026Mz\227\317\333\247Y\243\021\032\334z\207\307\351\257\367\340lva=\242\032\253\200'\303=]\177\305N \372\034\330\3754p\022@\261\251\204\235\027%j\240\222\374\374}\\\2206\300\331I\240\035\201O\323`\004\226E\275\312\372\217\000O#\031\335z\366i\372\377/\377'1C5\232\264\232\243G\354\234\320:iEF\347\247)\214Z\"\360\032\207\315\203m\024HZ\373\311\20661t\003\357\247\251[\351\324\324\3360B\t\020\\\210\264\225\205\036i\240PnN%\211\370\223\353\3452.n<\244\3636:\327\216\263\343AS}\217\213\356\370V\0353\342n\024\023g\267\202\316\251\333Hs,\002\336\256t\004\255\323\361\335;\016?\261\361\263\272hgn\217\275\027I\nd\201\224\304\bK)A\321\335\364\031\327\256\211\234\0168TRb\362\351\327\273d48\310\023\247\275\021\205zs}O\307\366\244\331\032\256\242\252g+{<\272\345\027\366\007`\316`\332U\033\020\375\320\302\206 \036\256L\235\233w\332@\303q\251=F\250?\340\210\304\365]\r\035c\200\274\264\347\0359mq\300\367\001\273}r\330-\240*\336^\335\257\007\310\000ak\002\275\344\262\224`\321g\344GT\276r\232\232\322\270'\037\013.\372G\r]\207\302\324\313Z\f\270\001\347\211a\227:f\022\340\251\343\313vt-\247\274\311\250~*\024\360xYiu\241\317\264\273\315\005\t>\024\223\324\013\301\343\363\216\030u.@t\277\223\305\255)N\235\253Z3\030r\314\356\326\036\006SS\307\220\216I\377\231\256\314&\017s\002J\305\316\207\223S\023\337\225 nZL\266\263\224 |\016\021\371\352\323$,\232\364\241\365\f)o\231\306\224\352@PI\262F#47\237\265\351\371\363\177T|*\351\211\223Y\236\032\026\200\b\307\330\354\302z]5T\247\0053'\332\200\352\261\007N\206{\272\313_\355g\376\212\235@{S\013\235\265?\301 0\346W\375h\340$\200\3559\262]#Ux\340\246\214\356=\000\000\000\000v\341\017\235\255\304n\341\333%a|\033\217\254\031mn\243\204\266K\302\370\300\252\315e6\036Y3@\377V\256\233\3327\322\355;8O-\221\365*[p\372\267\200U\233\313\366\264\224Vl<\262f\032\335\275\373\301\370\334\207\267\031\323\032w\263\036\177\001R\021\342\332wp\236\254\226\177\003Z\"\353U,\303\344\310\367\346\205\264\201\007\212)A\255GL7LH\321\354i)\255\232\210&0\330xd\315\256\231kPu\274\n,\003]\005\261\303\367\310\324\265\026\307In3\2465\030\322\251\250\356f=\376\230\2072cC\242S\0375C\\\202\365\351\221\347\203\b\236zX-\377\006.\314\360\233\264D\326\253\302\245\3316\031\200\270Joa\267\327\257\313z\262\331*u/\002\017\024St\356\033\316\202Z\217\230\364\273\200\005/\236\341yY\177\356\344\231\325#\201\3574,\0344\021M`B\360B\375\361\367\271A\207\026\266\334\\3\327\240*\322\330=\352x\025X\234\231\032\305G\274{\2711]t$\307\351\340r\261\b\357\357j-\216\223\034\314\201\016\334fLk\252\207C\366q\242\"\212\007C-\027\235\313\013'\353*\004\2720\017e\306F\356j[\206D\247>\360\245\250\243+\200\311\337]a\306B\253\325R\024\3354]\211\006\021<\365p\3603h\260Z\376\r\306\273\361\220\035\236\220\354k\177\237q)\217\335\214_n\322\021\204K\263m\362\252\274\3602\000q\225D\341~\b\237\304\037t\351%\020\351\037\221\204\277ip\213\"\262U\352^\304\264\345\303\004\036(\246r\377';\251\332FG\337;I\332E\263o\3523R`w\350w\001\013\236\226\016\226^<\303\363(\335\314n\363\370\255\022\205\031\242\217s\2556\331\005L9D\336iX8\250\210W\245h\"\232\300\036\303\225]\305\346\364!\263\007\373\274\342\357s\203\224\016|\036O+\035b9\312\022\377\371`\337\232\217\201\320\007T\244\261{\"E\276\346\324\361*\260\242\020%-y5DQ\017\324K\314\317~\206\251\271\237\2114b\272\350H\024[\347\325\216\323\301\345\3702\316x#\027\257\004U\366\240\231\225\\m\374\343\275ba8\230\003\035Ny\f\200\270\315\230\326\316,\227K\025\t\3667c\350\371\252\243B4\317\325\243;R\016\206Z.xgU\263:\227\027NLv\030\323\227Sy\257\341\262v2!\030\273WW\371\264\312\214\334\325\266\372=\332+\f\211N}zhA\340\241M \234\327\254/\001\027\006\342da\347\355\371\272\302\214\205\314#\203\030V\253\245( J\252\265\373o\313\311\215\216\304TM$\t1;\305\006\254\340\340g\320\226\001hM`\265\374\033\026T\363\206\315q\222\372\273\220\235g{:P\002\r\333_\237\326\376>\343\240\0371~\023\030\312\302e\371\305_\276\334\244#\310=\253\276\b\227f\333~viF\245S\b:\323\262\007\247%\006\223\361S\347\234l\210\302\375\020\376#\362\215>\211?\350Hh0u\223MQ\t\345\254^\224\177$x\244\t\305w9\322\340\026E\244\001\031\330d\253\324\275\022J\333 \311o\272\\\277\216\265\301I:!\227?\333.\n\344\376Ov\222\037@\353R\265\215\216$T\202\023\377q\343o\211\220\354\362\313`\256\017\275\201\241\222f\244\300\356\020E\317s\320\357\002\026\246\016\r\213}+l\367\013\312cj\375~\367<\213\237\370\241P\272\231\335&[\226@\346\361[%\220\020T\270K55\304=\324:Y\247\\\034i\321\275\023\364\n\230r\210|y}\025\274\323\260p\3122\277\355\021\027\336\221g\366\321\f\221BEZ\347\243J\307<\206+\273Jg$&\212\315\351C\374,\346\336'\t\207\242Q\350\210?\000\000\000\000\350\333\373\271\221\261\206\250yj}\021ce|\212\213\276\2073\362\324\372\"\032\017\001\233\207\314\211\317o\027rv\026}\017g\376\246\364\336\344\251\365E\fr\016\374u\030s\355\235\303\210TO\237bD\247D\231\375\336.\344\3546\365\037U,\372\036\316\304!\345w\275K\230fU\220c\337\310S\353\213 \210\0202Y\342m#\2619\226\232\2536\227\001C\355l\270:\207\021\251\322\\\352\020\236>\305\210v\345>1\017\217C \347T\270\231\375[\271\002\025\200B\273l\352?\252\2041\304\023\031\362LG\361)\267\376\210C\312\357`\2301Vz\2270\315\222L\313t\353&\266e\003\375M\334\321\241\247\3149z\\u@\020!d\250\313\332\335\262\304\333FZ\037 \377#u]\356\313\256\246WVm.\003\276\266\325\272\307\334\250\253/\007S\0225\bR\211\335\323\2510\244\271\324!Lb/\230}{\373\312\225\240\000s\354\312}b\004\021\206\333\036\036\207@\366\305|\371\217\257\001\350gt\372Q\372\267r\005\022l\211\274k\006\364\255\203\335\017\024\231\322\016\217q\t\3656\bc\210'\340\270s\2362\344\231\216\332?b7\243U\037&K\216\344\237Q\201\345\004\271Z\036\275\3000c\254(\353\230\025\265(\020A]\363\353\370$\231\226\351\314BmP\326Ml\313>\226\227rG\374\352c\257'\021\332\343E>B\013\236\305\373r\364\270\352\232/CS\200 B\310h\373\271q\021\221\304`\371J?\331d\211\267\215\214RL4\36581%\035\343\312\234\007\354\313\007\35770\276\226]M\257~\206\266\026\254\332\\\006D\001\247\277=k\332\256\325\260!\027\317\277 \214'd\3335^\016\246$\266\325]\235+\026\325\311\303\315.p\272\247SaR|\250\330Hs\251C\240\250R\372\331\302/\3531\031\324R\273\360\207NS+|\367*A\001\346\302\232\372_\330\225\373\3040N\000}I$}l\241\377\206\325<<\016\201\324\347\3658\255\215\210)EVs\220_Yr\013\267\202\211\262\316\350\364\243&3\017\032\364o\345\n\034\264\036\263e\336c\242\215\005\230\033\227\n\231\200\177\321b9\006\273\037(\356`\344\221s\243l\305\233x\227|\342\022\352m\n\311\021\324\020\306\020O\370\035\353\366\201w\226\347i\254m^%\316B\306\315\025\271\177\264\177\304n\\\244?\327F\253>L\256p\305\365\327\032\270\344?\301C]\242\002\313\tJ\3310\2603\263M\241\333h\266\030\301g\267\203)\274L:P\3261+\270\r\312\222jQ \202\202\212\333;\373\340\246*\023;]\223\t4\\\b\341\357\247\261\230\205\332\240p^!\031\355\235\251M\005FR\364|,/\345\224\367\324\\\216\370\325\307f#.~\037ISo\367\222\250\326\306\213|\204.P\207=W:\372,\277\341\001\225\245\356\000\016M5\373\2674_\206\246\334\204}\037AG\365K\251\234\016\362\320\366s\3438-\210Z\"\"\211\301\312\371rx\263\223\017i[H\364\320\211\024\036\300a\317\345y\030\245\230h\360~c\321\352qbJ\002\252\231\363{\300\344\342\223\033\037[\016\330\227\017\346\003l\266\237i\021\247w\262\352\036m\275\353\205\205f\020<\374\fm-\024\327\226\224X\265\271\f\260nB\265\311\004?\244!\337\304\035;\320\305\206\323\013>?\252aC.B\272\270\227\337y0\3037\242\313zN\310\266k\246\023M\322\274\034LIT\307\267\360-\255\312\341\305v1X\027*\333H\377\361 \361\206\233]\340n@\246YtO\247\302\234\224\\{\345\376!j\r%\332\323\220\346R\207x=\251>\001W\324/\351\214/\226\363\203.\r\033X\325\264b2\250\245\212\351S\034\000\000\000\000\221\221h\256c%\240\207\362\264\310)\207L1\324\026\335Yz\344i\221Su\370\371\375O\237\023s\336\016{\335,\272\263\364\275+\333Z\310\323\"\247YBJ\t\253\366\202 :g\352\216\236>'\346\017\257OH\375\033\207al\212\357\317\031r\0262\210\343~\234zW\266\265\353\306\336\033\321\2414\225@0\\;\262\204\224\022#\025\374\274V\355\005A\307|m\3575\310\245\306\244Y\315h}{?\027\354\352W\271\036^\237\220\217\317\367>\3727\016\303k\246fm\231\022\256D\b\203\306\3522\344,d\243uD\312Q\301\214\343\300P\344M\265\250\035\260$9u\036\326\215\2757G\034\325\231\343E\030\361r\324p_\200`\270v\021\361\320\330d\t)%\365\230A\213\007,\211\242\226\275\341\f\254\332\013\202=Kc,\317\377\253\005^n\303\253+\226:V\272\007R\370H\263\232\321\331\"\362\177\372\366~.kg\026\200\231\323\336\251\bB\266\007}\272O\372\354+'T\036\237\357}\217\016\207\323\265im]$\370\005\363\326L\315\332G\335\245t2%\\\211\243\2644'Q\000\374\016\300\221\224\240d\310Y\310\365Y1f\007\355\371O\226|\221\341\343\204h\034r\025\000\262\200\241\310\233\0210\2405+WJ\273\272\306\"\025Hr\352<\331\343\202\222\254\033{o=\212\023\301\317>\333\350^\257\263F\207\215A9\026\034)\227\344\250\341\276u9\211\020\000\301p\355\221P\030Cc\344\320j\362u\270\304\310\022RJY\203:\344\2537\362\315:\246\232cO^c\236\336\317\0130,{\303\031\275\352\253\267\031\263f\337\210\"\016qz\226\306X\353\007\256\366\236\377W\013\017n?\245\375\332\367\214lK\237\"V,u\254\307\275\035\0025\t\325+\244\230\275\205\321`Dx@\361,\326\262E\344\377#\324\214Q\364\355\375\\e|\225\362\227\310]\333\006Y5us\241\314\210\3420\244&\020\204l\017\201\025\004\241\273r\356/*\343\206\201\330WN\250I\306&\006<>\337\373\255\257\267U_\033\177|\316\212\027\322j\323\332\272\373B\262\024\t\366z=\230g\022\223\355\237\353n|\016\203\300\216\272K\351\037+#G%L\311\311\264\335\241gFiiN\327\370\001\340\242\000\370\0353\221\220\263\301%X\232P\26404\211\226\302K\030\007\252\345\352\263b\314{\"\nb\016\332\363\237\237K\2331m\377S\030\374n;\266\306\t\3218W\230\271\226\245,q\2774\275\031\021AE\340\354\320\324\210B\"`@k\263\361(\305\027\250\345\255\2069\215\003t\215E*\345\034-\204\220\344\324y\001u\274\327\363\301t\376bP\034PX7\366\336\311\246\236p;\022VY\252\203>\367\337{\307\nN\352\257\244\274^g\215-\317\017#\016\033\203r\237\212\353\334m>#\365\374\257K[\211W\262\246\030\306\332\b\352r\022!{\343z\217A\204\220\001\320\025\370\257\"\2410\206\2630X(\306\310\241\325WY\311{\245\355\001R4|i\374\220%\244\224\001\264\314:\363\000\004\023b\221l\275\027i\225@\206\370\375\356tL5\307\345\335]i\337\272\267\347N+\337I\274\237\027`-\016\177\316X\366\2063\311g\356\235;\323&\264\252BN\032s`\274e\342\361\324\313\020E\034\342\201\324tL\364,\215\261e\275\345\037\227\t-6\006\230E\230<\377\257\026\255n\307\270_\332\017\221\316Kg?\273\263\236\302*\"\366l\330\226>EI\007V\353\355^\233\203|\317\363-\216{;\004\037\352S\252j\022\252W\373\203\302\371\t7\n\320\230\246b~\242\301\210\3603P\340^\301\344(wPu@\331%\215\271$\264\034\321\212F\250\031\243\3279q\r"

l___unnamed_64:
	.ascii	"/Users/natalie/.cargo/registry/src/github.com-1ecc6299db9ec823/crc32fast-1.3.2/src/lib.rs"

	.section	__DATA,__const
	.p2align	3
l___unnamed_48:
	.quad	l___unnamed_64
	.asciz	"Y\000\000\000\000\000\000\000\212\000\000\000\t\000\000"

	.p2align	3
l___unnamed_49:
	.quad	l___unnamed_64
	.asciz	"Y\000\000\000\000\000\000\000\244\000\000\000\t\000\000"

	.section	__TEXT,__const
l___unnamed_50:
	.ascii	"crc32fast::Hasher"

l___unnamed_51:
	.ascii	"128 > 64 init"

l___unnamed_52:
	.ascii	"128 > 64 xx"

l___unnamed_54:
	.ascii	"assertion failed: a.len() >= 16"

l___unnamed_65:
	.ascii	"/Users/natalie/.cargo/registry/src/github.com-1ecc6299db9ec823/crc32fast-1.3.2/src/specialized/pclmulqdq.rs"

	.section	__DATA,__const
	.p2align	3
l___unnamed_55:
	.quad	l___unnamed_65
	.asciz	"k\000\000\000\000\000\000\000\307\000\000\000\005\000\000"

	.p2align	3
l___unnamed_53:
	.quad	l___unnamed_65
	.asciz	"k\000\000\000\000\000\000\000\311\000\000\000\013\000\000"

	.section	__TEXT,__const
Lsec_end0:
	.section	__TEXT,__text,regular,pure_instructions
Lsec_end1: