	.section	__TEXT,__text,regular,pure_instructions
	.macosx_version_min 10, 7
	.file	1 "/Users/natalie/.cargo/registry/src/github.com-1ecc6299db9ec823/crossbeam-utils-0.8.14" "src/atomic/atomic_cell.rs"
	.file	2 "/Users/natalie/.cargo/registry/src/github.com-1ecc6299db9ec823/crossbeam-utils-0.8.14" "src/sync/sharded_lock.rs"
	.file	3 "/rustc/2c8cc343237b8f7d5a3c3703e3a87f2eb2c54a74/library/std/src/thread" "local.rs"
	.globl	__ZN106_$LT$core..ops..range..Range$LT$usize$GT$$u20$as$u20$core..slice..index..SliceIndex$LT$$u5b$T$u5d$$GT$$GT$13get_unchecked17habbee6f91c1259f7E
	.p2align	4, 0x90
__ZN106_$LT$core..ops..range..Range$LT$usize$GT$$u20$as$u20$core..slice..index..SliceIndex$LT$$u5b$T$u5d$$GT$$GT$13get_unchecked17habbee6f91c1259f7E:
Lfunc_begin0:
	.file	4 "/rustc/2c8cc343237b8f7d5a3c3703e3a87f2eb2c54a74/library/core/src/slice" "index.rs"
	.loc	4 373 0
	.cfi_startproc
	pushq	%rbp
	.cfi_def_cfa_offset 16
	.cfi_offset %rbp, -16
	movq	%rsp, %rbp
	.cfi_def_cfa_register %rbp
	subq	$160, %rsp
	movq	%rdi, -128(%rbp)
	movq	%rsi, -120(%rbp)
	movq	%rdx, -112(%rbp)
	movq	%rcx, -104(%rbp)
Ltmp0:
	.loc	4 386 39 prologue_end
	movq	%rdx, -96(%rbp)
	movq	%rcx, -88(%rbp)
Ltmp1:
	.file	5 "/rustc/2c8cc343237b8f7d5a3c3703e3a87f2eb2c54a74/library/core/src/ptr" "const_ptr.rs"
	.loc	5 1650 9
	movq	%rdx, -80(%rbp)
Ltmp2:
	.loc	4 386 58
	movq	%rdi, -72(%rbp)
Ltmp3:
	.loc	5 932 18
	movq	%rdx, -64(%rbp)
	.loc	5 932 30 is_stmt 0
	movq	%rdi, -56(%rbp)
Ltmp4:
	.loc	5 473 18 is_stmt 1
	addq	%rdi, %rdx
	movq	%rdx, -48(%rbp)
	movq	-48(%rbp), %rax
	movq	%rax, -40(%rbp)
Ltmp5:
	.loc	4 386 71
	subq	%rdi, %rsi
	movq	%rsi, -32(%rbp)
Ltmp6:
	.file	6 "/rustc/2c8cc343237b8f7d5a3c3703e3a87f2eb2c54a74/library/core/src/ptr" "mod.rs"
	.loc	6 734 20
	movq	%rax, -24(%rbp)
Ltmp7:
	.loc	5 61 9
	movq	%rax, -16(%rbp)
Ltmp8:
	.loc	6 734 33
	movq	%rsi, -8(%rbp)
Ltmp9:
	.file	7 "/rustc/2c8cc343237b8f7d5a3c3703e3a87f2eb2c54a74/library/core/src/ptr" "metadata.rs"
	.loc	7 118 36
	movq	%rax, -144(%rbp)
	movq	%rsi, -136(%rbp)
	.loc	7 118 14 is_stmt 0
	movq	-144(%rbp), %rcx
	movq	-136(%rbp), %rax
	movq	%rcx, -160(%rbp)
	movq	%rax, -152(%rbp)
	movq	-160(%rbp), %rax
	movq	-152(%rbp), %rdx
Ltmp10:
	.loc	4 388 6 is_stmt 1
	addq	$160, %rsp
	popq	%rbp
	retq
Ltmp11:
Lfunc_end0:
	.cfi_endproc

	.globl	__ZN106_$LT$core..ops..range..Range$LT$usize$GT$$u20$as$u20$core..slice..index..SliceIndex$LT$$u5b$T$u5d$$GT$$GT$17get_unchecked_mut17h2aa8d15033eedb4bE
	.p2align	4, 0x90
__ZN106_$LT$core..ops..range..Range$LT$usize$GT$$u20$as$u20$core..slice..index..SliceIndex$LT$$u5b$T$u5d$$GT$$GT$17get_unchecked_mut17h2aa8d15033eedb4bE:
Lfunc_begin1:
	.loc	4 391 0
	.cfi_startproc
	pushq	%rbp
	.cfi_def_cfa_offset 16
	.cfi_offset %rbp, -16
	movq	%rsp, %rbp
	.cfi_def_cfa_register %rbp
	subq	$160, %rsp
	movq	%rdi, -128(%rbp)
	movq	%rsi, -120(%rbp)
	movq	%rdx, -112(%rbp)
	movq	%rcx, -104(%rbp)
Ltmp12:
	.loc	4 400 43 prologue_end
	movq	%rdx, -96(%rbp)
	movq	%rcx, -88(%rbp)
Ltmp13:
	.file	8 "/rustc/2c8cc343237b8f7d5a3c3703e3a87f2eb2c54a74/library/core/src/ptr" "mut_ptr.rs"
	.loc	8 2037 9
	movq	%rdx, -80(%rbp)
Ltmp14:
	.loc	4 400 66
	movq	%rdi, -72(%rbp)
Ltmp15:
	.loc	8 1034 18
	movq	%rdx, -64(%rbp)
	.loc	8 1034 30 is_stmt 0
	movq	%rdi, -56(%rbp)
Ltmp16:
	.loc	8 487 18 is_stmt 1
	addq	%rdi, %rdx
	movq	%rdx, -48(%rbp)
	movq	-48(%rbp), %rax
	movq	%rax, -40(%rbp)
Ltmp17:
	.loc	4 400 79
	subq	%rdi, %rsi
	movq	%rsi, -32(%rbp)
Ltmp18:
	.loc	6 766 24
	movq	%rax, -24(%rbp)
Ltmp19:
	.loc	8 60 9
	movq	%rax, -16(%rbp)
Ltmp20:
	.loc	6 766 37
	movq	%rsi, -8(%rbp)
Ltmp21:
	.loc	7 135 36
	movq	%rax, -144(%rbp)
	movq	%rsi, -136(%rbp)
	.loc	7 135 14 is_stmt 0
	movq	-144(%rbp), %rcx
	movq	-136(%rbp), %rax
	movq	%rcx, -160(%rbp)
	movq	%rax, -152(%rbp)
	movq	-160(%rbp), %rax
	movq	-152(%rbp), %rdx
Ltmp22:
	.loc	4 402 6 is_stmt 1
	addq	$160, %rsp
	popq	%rbp
	retq
Ltmp23:
Lfunc_end1:
	.cfi_endproc

	.globl	__ZN106_$LT$core..ops..range..Range$LT$usize$GT$$u20$as$u20$core..slice..index..SliceIndex$LT$$u5b$T$u5d$$GT$$GT$9index_mut17ha8b2c1b7c9d2f8bfE
	.p2align	4, 0x90
__ZN106_$LT$core..ops..range..Range$LT$usize$GT$$u20$as$u20$core..slice..index..SliceIndex$LT$$u5b$T$u5d$$GT$$GT$9index_mut17ha8b2c1b7c9d2f8bfE:
Lfunc_begin2:
	.loc	4 416 0
	.cfi_startproc
	pushq	%rbp
	.cfi_def_cfa_offset 16
	.cfi_offset %rbp, -16
	movq	%rsp, %rbp
	.cfi_def_cfa_register %rbp
	subq	$80, %rsp
	movq	%rdi, -72(%rbp)
	movq	%rsi, -64(%rbp)
	movq	%rdx, -56(%rbp)
	movq	%rcx, -48(%rbp)
	movq	%r8, -40(%rbp)
	movq	%rdi, -32(%rbp)
	movq	%rsi, -24(%rbp)
	movq	%rdx, -16(%rbp)
	movq	%rcx, -8(%rbp)
Ltmp24:
	.loc	4 417 12 prologue_end
	cmpq	%rsi, %rdi
	ja	LBB2_2
	.loc	4 0 12 is_stmt 0
	movq	-64(%rbp), %rax
	movq	-48(%rbp), %rcx
	.loc	4 419 19 is_stmt 1
	cmpq	%rcx, %rax
	ja	LBB2_4
	jmp	LBB2_3
LBB2_2:
	.loc	4 0 19 is_stmt 0
	movq	-40(%rbp), %rdx
	movq	-64(%rbp), %rsi
	movq	-72(%rbp), %rdi
	.loc	4 418 13 is_stmt 1
	callq	__ZN4core5slice5index22slice_index_order_fail17h0d8f800a07d5f26eE
LBB2_3:
	.loc	4 0 13 is_stmt 0
	movq	-48(%rbp), %rcx
	movq	-56(%rbp), %rdx
	movq	-64(%rbp), %rsi
	movq	-72(%rbp), %rdi
	.loc	4 423 24 is_stmt 1
	callq	__ZN106_$LT$core..ops..range..Range$LT$usize$GT$$u20$as$u20$core..slice..index..SliceIndex$LT$$u5b$T$u5d$$GT$$GT$17get_unchecked_mut17h2aa8d15033eedb4bE
	.loc	4 424 6
	addq	$80, %rsp
	popq	%rbp
	retq
LBB2_4:
	.loc	4 0 6 is_stmt 0
	movq	-40(%rbp), %rdx
	movq	-48(%rbp), %rsi
	movq	-64(%rbp), %rdi
	.loc	4 420 13 is_stmt 1
	callq	__ZN4core5slice5index24slice_end_index_len_fail17hc921cb2f1513645aE
Ltmp25:
Lfunc_end2:
	.cfi_endproc

	.globl	__ZN110_$LT$core..ops..range..RangeFrom$LT$usize$GT$$u20$as$u20$core..slice..index..SliceIndex$LT$$u5b$T$u5d$$GT$$GT$5index17h51a7f57c3fa1f9caE
	.p2align	4, 0x90
__ZN110_$LT$core..ops..range..RangeFrom$LT$usize$GT$$u20$as$u20$core..slice..index..SliceIndex$LT$$u5b$T$u5d$$GT$$GT$5index17h51a7f57c3fa1f9caE:
Lfunc_begin3:
	.loc	4 493 0
	.cfi_startproc
	pushq	%rbp
	.cfi_def_cfa_offset 16
	.cfi_offset %rbp, -16
	movq	%rsp, %rbp
	.cfi_def_cfa_register %rbp
	subq	$144, %rsp
	movq	%rdi, -144(%rbp)
	movq	%rsi, -136(%rbp)
	movq	%rdx, -128(%rbp)
	movq	%rcx, -120(%rbp)
	movq	%rdi, -80(%rbp)
	movq	%rsi, -72(%rbp)
	movq	%rdx, -64(%rbp)
Ltmp26:
	.loc	4 494 12 prologue_end
	cmpq	%rdx, %rdi
	ja	LBB3_2
	.loc	4 0 12 is_stmt 0
	movq	-128(%rbp), %rcx
	movq	-136(%rbp), %rdx
	movq	-144(%rbp), %rsi
	.loc	4 498 20 is_stmt 1
	movq	%rsi, -56(%rbp)
	.loc	4 498 39 is_stmt 0
	movq	%rdx, -48(%rbp)
	movq	%rcx, -40(%rbp)
Ltmp27:
	.loc	4 483 31 is_stmt 1
	movq	%rdx, -32(%rbp)
	movq	%rcx, -24(%rbp)
Ltmp28:
	.loc	5 1630 18
	movq	%rdx, -16(%rbp)
	movq	%rcx, -8(%rbp)
Ltmp29:
	.loc	7 98 14
	movq	%rdx, -96(%rbp)
	movq	%rcx, -88(%rbp)
	movq	-88(%rbp), %rax
Ltmp30:
	.loc	4 483 18
	movq	%rsi, -112(%rbp)
	movq	%rax, -104(%rbp)
	movq	-112(%rbp), %rdi
	movq	-104(%rbp), %rsi
	callq	__ZN106_$LT$core..ops..range..Range$LT$usize$GT$$u20$as$u20$core..slice..index..SliceIndex$LT$$u5b$T$u5d$$GT$$GT$13get_unchecked17habbee6f91c1259f7E
Ltmp31:
	.loc	4 499 6
	addq	$144, %rsp
	popq	%rbp
	retq
LBB3_2:
	.loc	4 0 6 is_stmt 0
	movq	-120(%rbp), %rdx
	movq	-128(%rbp), %rsi
	movq	-144(%rbp), %rdi
	.loc	4 495 13 is_stmt 1
	callq	__ZN4core5slice5index26slice_start_index_len_fail17h9d301bb51ec3e351E
Ltmp32:
Lfunc_end3:
	.cfi_endproc

	.globl	__ZN115_$LT$core..panic..unwind_safe..AssertUnwindSafe$LT$F$GT$$u20$as$u20$core..ops..function..FnOnce$LT$$LP$$RP$$GT$$GT$9call_once17heb742a485de76d06E
	.p2align	4, 0x90
__ZN115_$LT$core..panic..unwind_safe..AssertUnwindSafe$LT$F$GT$$u20$as$u20$core..ops..function..FnOnce$LT$$LP$$RP$$GT$$GT$9call_once17heb742a485de76d06E:
Lfunc_begin4:
	.file	9 "/rustc/2c8cc343237b8f7d5a3c3703e3a87f2eb2c54a74/library/core/src/panic" "unwind_safe.rs"
	.loc	9 270 0
	.cfi_startproc
	pushq	%rbp
	.cfi_def_cfa_offset 16
	.cfi_offset %rbp, -16
	movq	%rsp, %rbp
	.cfi_def_cfa_register %rbp
	subq	$16, %rsp
	movq	%rdi, -8(%rbp)
Ltmp33:
	.loc	9 271 9 prologue_end
	callq	__ZN4core3ops8function6FnOnce9call_once17h693a046494655035E
	.loc	9 272 6
	addq	$16, %rsp
	popq	%rbp
	retq
Ltmp34:
Lfunc_end4:
	.cfi_endproc

	.globl	__ZN115_$LT$core..panic..unwind_safe..AssertUnwindSafe$LT$F$GT$$u20$as$u20$core..ops..function..FnOnce$LT$$LP$$RP$$GT$$GT$9call_once17hf66322c576d81696E
	.p2align	4, 0x90
__ZN115_$LT$core..panic..unwind_safe..AssertUnwindSafe$LT$F$GT$$u20$as$u20$core..ops..function..FnOnce$LT$$LP$$RP$$GT$$GT$9call_once17hf66322c576d81696E:
Lfunc_begin5:
	.loc	9 270 0
	.cfi_startproc
	pushq	%rbp
	.cfi_def_cfa_offset 16
	.cfi_offset %rbp, -16
	movq	%rsp, %rbp
	.cfi_def_cfa_register %rbp
	subq	$16, %rsp
	movq	%rdi, -8(%rbp)
Ltmp35:
	.loc	9 271 9 prologue_end
	callq	__ZN4core3ops8function6FnOnce9call_once17h330b18c71814dc08E
	.loc	9 272 6
	addq	$16, %rsp
	popq	%rbp
	retq
Ltmp36:
Lfunc_end5:
	.cfi_endproc

	.globl	__ZN119_$LT$core..ptr..non_null..NonNull$LT$T$GT$$u20$as$u20$core..convert..From$LT$core..ptr..unique..Unique$LT$T$GT$$GT$$GT$4from17hb7b39fda06ada3a3E
	.p2align	4, 0x90
__ZN119_$LT$core..ptr..non_null..NonNull$LT$T$GT$$u20$as$u20$core..convert..From$LT$core..ptr..unique..Unique$LT$T$GT$$GT$$GT$4from17hb7b39fda06ada3a3E:
Lfunc_begin6:
	.file	10 "/rustc/2c8cc343237b8f7d5a3c3703e3a87f2eb2c54a74/library/core/src/ptr" "non_null.rs"
	.loc	10 765 0
	.cfi_startproc
	pushq	%rbp
	.cfi_def_cfa_offset 16
	.cfi_offset %rbp, -16
	movq	%rsp, %rbp
	.cfi_def_cfa_register %rbp
	subq	$40, %rsp
	movq	%rdi, -32(%rbp)
Ltmp37:
	.loc	10 768 41 prologue_end
	movq	%rdi, -24(%rbp)
Ltmp38:
	.file	11 "/rustc/2c8cc343237b8f7d5a3c3703e3a87f2eb2c54a74/library/core/src/ptr" "unique.rs"
	.loc	11 104 9
	movq	%rdi, -16(%rbp)
Ltmp39:
	.loc	10 326 9
	movq	%rdi, -8(%rbp)
Ltmp40:
	.loc	10 201 13
	movq	%rdi, -40(%rbp)
Ltmp41:
	.loc	10 769 6
	movq	-40(%rbp), %rax
	addq	$40, %rsp
	popq	%rbp
	retq
Ltmp42:
Lfunc_end6:
	.cfi_endproc

	.p2align	4, 0x90
__ZN122_$LT$alloc..collections..TryReserveError$u20$as$u20$core..convert..From$LT$alloc..collections..TryReserveErrorKind$GT$$GT$4from17h98fffae609f6cc9aE:
Lfunc_begin7:
	.file	12 "/rustc/2c8cc343237b8f7d5a3c3703e3a87f2eb2c54a74/library/alloc/src/collections" "mod.rs"
	.loc	12 116 0
	.cfi_startproc
	pushq	%rbp
	.cfi_def_cfa_offset 16
	.cfi_offset %rbp, -16
	movq	%rsp, %rbp
	.cfi_def_cfa_register %rbp
	subq	$32, %rsp
	movq	%rdi, -16(%rbp)
	movq	%rsi, -8(%rbp)
Ltmp43:
	.loc	12 117 9 prologue_end
	movq	%rdi, -32(%rbp)
	movq	%rsi, -24(%rbp)
	.loc	12 118 6
	movq	-32(%rbp), %rax
	movq	-24(%rbp), %rdx
	addq	$32, %rsp
	popq	%rbp
	retq
Ltmp44:
Lfunc_end7:
	.cfi_endproc

	.globl	__ZN36_$LT$T$u20$as$u20$core..any..Any$GT$7type_id17he7173daf4f762e6cE
	.p2align	4, 0x90
__ZN36_$LT$T$u20$as$u20$core..any..Any$GT$7type_id17he7173daf4f762e6cE:
Lfunc_begin8:
	.file	13 "/rustc/2c8cc343237b8f7d5a3c3703e3a87f2eb2c54a74/library/core/src" "any.rs"
	.loc	13 201 0
	.cfi_startproc
	pushq	%rbp
	.cfi_def_cfa_offset 16
	.cfi_offset %rbp, -16
	movq	%rsp, %rbp
	.cfi_def_cfa_register %rbp
	subq	$16, %rsp
	movq	%rdi, -8(%rbp)
Ltmp45:
	.loc	13 202 9 prologue_end
	callq	__ZN4core3any6TypeId2of17h4657e811f617eab1E
	.loc	13 203 6
	addq	$16, %rsp
	popq	%rbp
	retq
Ltmp46:
Lfunc_end8:
	.cfi_endproc

	.globl	__ZN3std10sys_common8lazy_box16LazyBox$LT$T$GT$10initialize17ha3a6390d55daa36fE
	.p2align	4, 0x90
__ZN3std10sys_common8lazy_box16LazyBox$LT$T$GT$10initialize17ha3a6390d55daa36fE:
Lfunc_begin9:
	.file	14 "/rustc/2c8cc343237b8f7d5a3c3703e3a87f2eb2c54a74/library/std/src/sys_common" "lazy_box.rs"
	.loc	14 54 0
	.cfi_startproc
	pushq	%rbp
	.cfi_def_cfa_offset 16
	.cfi_offset %rbp, -16
	movq	%rsp, %rbp
	.cfi_def_cfa_register %rbp
	subq	$272, %rsp
	movq	%rdi, -256(%rbp)
	movq	%rdi, -168(%rbp)
Ltmp47:
	.loc	14 55 37 prologue_end
	callq	__ZN108_$LT$std..sys..unix..locks..pthread_mutex..AllocatedMutex$u20$as$u20$std..sys_common..lazy_box..LazyInit$GT$4init17hd5ce1e30fed3afacE
	movq	%rax, %rdi
	movq	%rdi, -136(%rbp)
Ltmp48:
	.file	15 "/rustc/2c8cc343237b8f7d5a3c3703e3a87f2eb2c54a74/library/alloc/src" "boxed.rs"
	.loc	15 1059 39
	movq	%rdi, -128(%rbp)
Ltmp49:
	.loc	15 1112 31
	callq	__ZN5alloc5boxed16Box$LT$T$C$A$GT$11into_unique17h22eb3e4a6ff7572eE
	movq	-256(%rbp), %rdi
	.loc	15 1112 14 is_stmt 0
	movq	%rax, -120(%rbp)
Ltmp50:
	.loc	15 1113 10 is_stmt 1
	movq	%rax, -112(%rbp)
Ltmp51:
	.loc	11 104 9
	movq	%rax, -104(%rbp)
Ltmp52:
	.loc	15 1113 9
	movq	%rax, -208(%rbp)
Ltmp53:
	.loc	15 1059 9
	movq	-208(%rbp), %rdx
	movq	%rdx, -248(%rbp)
	movq	%rdx, -96(%rbp)
Ltmp54:
	.loc	14 56 15
	movq	%rdi, -88(%rbp)
Ltmp55:
	.loc	6 599 14
	movq	$0, -80(%rbp)
	movq	-80(%rbp), %rax
	movq	%rax, -72(%rbp)
Ltmp56:
	.loc	7 135 36
	movq	%rax, -192(%rbp)
	.loc	7 135 14 is_stmt 0
	movq	-192(%rbp), %rax
	movq	%rax, -200(%rbp)
	movq	-200(%rbp), %rsi
	movq	%rsi, -64(%rbp)
Ltmp57:
	.loc	14 56 53 is_stmt 1
	movq	%rdx, -56(%rbp)
Ltmp58:
	.file	16 "/rustc/2c8cc343237b8f7d5a3c3703e3a87f2eb2c54a74/library/core/src/sync" "atomic.rs"
	.loc	16 1355 42
	movq	%rdi, -48(%rbp)
	movl	$3, %ecx
	movl	$2, %r8d
	.loc	16 1355 18 is_stmt 0
	callq	__ZN4core4sync6atomic23atomic_compare_exchange17h98f5a7c751f9681eE
	movq	%rdx, -224(%rbp)
	movq	%rax, -232(%rbp)
Ltmp59:
	.loc	14 56 9 is_stmt 1
	cmpq	$0, -232(%rbp)
	jne	LBB9_2
	.loc	14 0 9 is_stmt 0
	movq	-248(%rbp), %rax
	.loc	14 57 22 is_stmt 1
	movq	%rax, -240(%rbp)
	jmp	LBB9_3
LBB9_2:
	.loc	14 0 22 is_stmt 0
	movq	-248(%rbp), %rax
	.loc	14 58 17 is_stmt 1
	movq	-224(%rbp), %rcx
	movq	%rcx, -264(%rbp)
	movq	%rcx, -40(%rbp)
Ltmp60:
	.loc	14 61 55
	movq	%rax, -32(%rbp)
Ltmp61:
	.loc	15 958 36
	movq	%rax, -24(%rbp)
Ltmp62:
	.loc	15 1014 44
	movq	%rax, -16(%rbp)
Ltmp63:
	.loc	11 87 59
	movq	%rax, -8(%rbp)
Ltmp64:
	.loc	10 201 13
	movq	%rax, -176(%rbp)
Ltmp65:
	.loc	11 87 18
	movq	-176(%rbp), %rax
	movq	%rax, -184(%rbp)
Ltmp66:
	.loc	15 1014 9
	movq	-184(%rbp), %rax
	movq	%rax, -216(%rbp)
Ltmp67:
	.loc	14 61 17
	movq	-216(%rbp), %rdi
	callq	__ZN108_$LT$std..sys..unix..locks..pthread_mutex..AllocatedMutex$u20$as$u20$std..sys_common..lazy_box..LazyInit$GT$11cancel_init17h0378143b8d0c004eE
	movq	-264(%rbp), %rax
	.loc	14 62 17
	movq	%rax, -240(%rbp)
Ltmp68:
LBB9_3:
	.loc	14 65 6
	movq	-240(%rbp), %rax
	addq	$272, %rsp
	popq	%rbp
	retq
Ltmp69:
Lfunc_end9:
	.cfi_endproc

	.globl	__ZN3std10sys_common8lazy_box16LazyBox$LT$T$GT$10initialize17hb7be44f70f978449E
	.p2align	4, 0x90
__ZN3std10sys_common8lazy_box16LazyBox$LT$T$GT$10initialize17hb7be44f70f978449E:
Lfunc_begin10:
	.loc	14 54 0
	.cfi_startproc
	pushq	%rbp
	.cfi_def_cfa_offset 16
	.cfi_offset %rbp, -16
	movq	%rsp, %rbp
	.cfi_def_cfa_register %rbp
	subq	$272, %rsp
	movq	%rdi, -256(%rbp)
	movq	%rdi, -168(%rbp)
Ltmp70:
	.loc	14 55 37 prologue_end
	callq	__ZN112_$LT$std..sys..unix..locks..pthread_condvar..AllocatedCondvar$u20$as$u20$std..sys_common..lazy_box..LazyInit$GT$4init17hd89de97cadb96c4fE
	movq	%rax, %rdi
	movq	%rdi, -136(%rbp)
Ltmp71:
	.loc	15 1059 39
	movq	%rdi, -128(%rbp)
Ltmp72:
	.loc	15 1112 31
	callq	__ZN5alloc5boxed16Box$LT$T$C$A$GT$11into_unique17h680e8b9ddd1a1ae8E
	movq	-256(%rbp), %rdi
	.loc	15 1112 14 is_stmt 0
	movq	%rax, -120(%rbp)
Ltmp73:
	.loc	15 1113 10 is_stmt 1
	movq	%rax, -112(%rbp)
Ltmp74:
	.loc	11 104 9
	movq	%rax, -104(%rbp)
Ltmp75:
	.loc	15 1113 9
	movq	%rax, -208(%rbp)
Ltmp76:
	.loc	15 1059 9
	movq	-208(%rbp), %rdx
	movq	%rdx, -248(%rbp)
	movq	%rdx, -96(%rbp)
Ltmp77:
	.loc	14 56 15
	movq	%rdi, -88(%rbp)
Ltmp78:
	.loc	6 599 14
	movq	$0, -80(%rbp)
	movq	-80(%rbp), %rax
	movq	%rax, -72(%rbp)
Ltmp79:
	.loc	7 135 36
	movq	%rax, -192(%rbp)
	.loc	7 135 14 is_stmt 0
	movq	-192(%rbp), %rax
	movq	%rax, -200(%rbp)
	movq	-200(%rbp), %rsi
	movq	%rsi, -64(%rbp)
Ltmp80:
	.loc	14 56 53 is_stmt 1
	movq	%rdx, -56(%rbp)
Ltmp81:
	.loc	16 1355 42
	movq	%rdi, -48(%rbp)
	movl	$3, %ecx
	movl	$2, %r8d
	.loc	16 1355 18 is_stmt 0
	callq	__ZN4core4sync6atomic23atomic_compare_exchange17h34c627e43b15bd9aE
	movq	%rdx, -224(%rbp)
	movq	%rax, -232(%rbp)
Ltmp82:
	.loc	14 56 9 is_stmt 1
	cmpq	$0, -232(%rbp)
	jne	LBB10_2
	.loc	14 0 9 is_stmt 0
	movq	-248(%rbp), %rax
	.loc	14 57 22 is_stmt 1
	movq	%rax, -240(%rbp)
	jmp	LBB10_3
LBB10_2:
	.loc	14 0 22 is_stmt 0
	movq	-248(%rbp), %rax
	.loc	14 58 17 is_stmt 1
	movq	-224(%rbp), %rcx
	movq	%rcx, -264(%rbp)
	movq	%rcx, -40(%rbp)
Ltmp83:
	.loc	14 61 55
	movq	%rax, -32(%rbp)
Ltmp84:
	.loc	15 958 36
	movq	%rax, -24(%rbp)
Ltmp85:
	.loc	15 1014 44
	movq	%rax, -16(%rbp)
Ltmp86:
	.loc	11 87 59
	movq	%rax, -8(%rbp)
Ltmp87:
	.loc	10 201 13
	movq	%rax, -176(%rbp)
Ltmp88:
	.loc	11 87 18
	movq	-176(%rbp), %rax
	movq	%rax, -184(%rbp)
Ltmp89:
	.loc	15 1014 9
	movq	-184(%rbp), %rax
	movq	%rax, -216(%rbp)
Ltmp90:
	.loc	14 61 17
	movq	-216(%rbp), %rdi
	callq	__ZN3std10sys_common8lazy_box8LazyInit11cancel_init17ha497aa541de4d4caE
	movq	-264(%rbp), %rax
	.loc	14 62 17
	movq	%rax, -240(%rbp)
Ltmp91:
LBB10_3:
	.loc	14 65 6
	movq	-240(%rbp), %rax
	addq	$272, %rsp
	popq	%rbp
	retq
Ltmp92:
Lfunc_end10:
	.cfi_endproc

	.globl	__ZN3std10sys_common8lazy_box16LazyBox$LT$T$GT$11get_pointer17h186712c9a104b644E
	.p2align	4, 0x90
__ZN3std10sys_common8lazy_box16LazyBox$LT$T$GT$11get_pointer17h186712c9a104b644E:
Lfunc_begin11:
	.loc	14 48 0
	.cfi_startproc
	pushq	%rbp
	.cfi_def_cfa_offset 16
	.cfi_offset %rbp, -16
	movq	%rsp, %rbp
	.cfi_def_cfa_register %rbp
	subq	$112, %rsp
	movq	%rdi, -104(%rbp)
	movq	%rdi, -72(%rbp)
Ltmp93:
	.loc	14 49 19 prologue_end
	movq	%rdi, -64(%rbp)
Ltmp94:
	.loc	16 1191 30
	movq	%rdi, -56(%rbp)
	.loc	16 1191 18 is_stmt 0
	movl	$2, %esi
	callq	__ZN4core4sync6atomic11atomic_load17hd0eb5037fc0be221E
	movq	%rax, -96(%rbp)
	movq	%rax, -48(%rbp)
Ltmp95:
	.loc	14 50 12 is_stmt 1
	movq	%rax, -40(%rbp)
Ltmp96:
	.loc	8 52 36
	movq	%rax, -80(%rbp)
	.loc	8 52 18 is_stmt 0
	movq	-80(%rbp), %rax
	movq	%rax, -32(%rbp)
Ltmp97:
	.loc	8 38 13 is_stmt 1
	movq	%rax, -24(%rbp)
Ltmp98:
	.loc	8 215 33
	movq	%rax, -16(%rbp)
	.loc	8 215 18 is_stmt 0
	movq	%rax, -8(%rbp)
Ltmp99:
	.loc	14 50 12 is_stmt 1
	cmpq	$0, -8(%rbp)
	jne	LBB11_2
	.loc	14 0 12 is_stmt 0
	movq	-104(%rbp), %rdi
	.loc	14 50 28
	callq	__ZN3std10sys_common8lazy_box16LazyBox$LT$T$GT$10initialize17hb7be44f70f978449E
	movq	%rax, -88(%rbp)
	.loc	14 50 9
	jmp	LBB11_3
LBB11_2:
	.loc	14 0 9
	movq	-96(%rbp), %rax
	.loc	14 50 55
	movq	%rax, -88(%rbp)
Ltmp100:
LBB11_3:
	.loc	14 51 6 is_stmt 1
	movq	-88(%rbp), %rax
	addq	$112, %rsp
	popq	%rbp
	retq
Ltmp101:
Lfunc_end11:
	.cfi_endproc

	.globl	__ZN3std10sys_common8lazy_box16LazyBox$LT$T$GT$11get_pointer17ha96fd7d6ba8ecb03E
	.p2align	4, 0x90
__ZN3std10sys_common8lazy_box16LazyBox$LT$T$GT$11get_pointer17ha96fd7d6ba8ecb03E:
Lfunc_begin12:
	.loc	14 48 0
	.cfi_startproc
	pushq	%rbp
	.cfi_def_cfa_offset 16
	.cfi_offset %rbp, -16
	movq	%rsp, %rbp
	.cfi_def_cfa_register %rbp
	subq	$112, %rsp
	movq	%rdi, -104(%rbp)
	movq	%rdi, -72(%rbp)
Ltmp102:
	.loc	14 49 19 prologue_end
	movq	%rdi, -64(%rbp)
Ltmp103:
	.loc	16 1191 30
	movq	%rdi, -56(%rbp)
	.loc	16 1191 18 is_stmt 0
	movl	$2, %esi
	callq	__ZN4core4sync6atomic11atomic_load17h0fa8d1da36537155E
	movq	%rax, -96(%rbp)
	movq	%rax, -48(%rbp)
Ltmp104:
	.loc	14 50 12 is_stmt 1
	movq	%rax, -40(%rbp)
Ltmp105:
	.loc	8 52 36
	movq	%rax, -80(%rbp)
	.loc	8 52 18 is_stmt 0
	movq	-80(%rbp), %rax
	movq	%rax, -32(%rbp)
Ltmp106:
	.loc	8 38 13 is_stmt 1
	movq	%rax, -24(%rbp)
Ltmp107:
	.loc	8 215 33
	movq	%rax, -16(%rbp)
	.loc	8 215 18 is_stmt 0
	movq	%rax, -8(%rbp)
Ltmp108:
	.loc	14 50 12 is_stmt 1
	cmpq	$0, -8(%rbp)
	jne	LBB12_2
	.loc	14 0 12 is_stmt 0
	movq	-104(%rbp), %rdi
	.loc	14 50 28
	callq	__ZN3std10sys_common8lazy_box16LazyBox$LT$T$GT$10initialize17ha3a6390d55daa36fE
	movq	%rax, -88(%rbp)
	.loc	14 50 9
	jmp	LBB12_3
LBB12_2:
	.loc	14 0 9
	movq	-96(%rbp), %rax
	.loc	14 50 55
	movq	%rax, -88(%rbp)
Ltmp109:
LBB12_3:
	.loc	14 51 6 is_stmt 1
	movq	-88(%rbp), %rax
	addq	$112, %rsp
	popq	%rbp
	retq
Ltmp110:
Lfunc_end12:
	.cfi_endproc

	.globl	__ZN3std10sys_common8lazy_box8LazyInit11cancel_init17ha497aa541de4d4caE
	.p2align	4, 0x90
__ZN3std10sys_common8lazy_box8LazyInit11cancel_init17ha497aa541de4d4caE:
Lfunc_begin13:
	.loc	14 31 0
	.cfi_startproc
	pushq	%rbp
	.cfi_def_cfa_offset 16
	.cfi_offset %rbp, -16
	movq	%rsp, %rbp
	.cfi_def_cfa_register %rbp
	subq	$16, %rsp
	movq	%rdi, -8(%rbp)
Ltmp111:
	.loc	14 32 9 prologue_end
	callq	__ZN3std10sys_common8lazy_box8LazyInit7destroy17h8ff73f80d082743fE
	.loc	14 33 6
	addq	$16, %rsp
	popq	%rbp
	retq
Ltmp112:
Lfunc_end13:
	.cfi_endproc

	.globl	__ZN3std10sys_common8lazy_box8LazyInit7destroy17h8ff73f80d082743fE
	.p2align	4, 0x90
__ZN3std10sys_common8lazy_box8LazyInit7destroy17h8ff73f80d082743fE:
Lfunc_begin14:
	.loc	14 38 0
	.cfi_startproc
	pushq	%rbp
	.cfi_def_cfa_offset 16
	.cfi_offset %rbp, -16
	movq	%rsp, %rbp
	.cfi_def_cfa_register %rbp
	subq	$16, %rsp
	movq	%rdi, -8(%rbp)
Ltmp113:
	.loc	14 38 31 prologue_end
	leaq	-8(%rbp), %rdi
	callq	__ZN4core3ptr102drop_in_place$LT$alloc..boxed..Box$LT$std..sys..unix..locks..pthread_condvar..AllocatedCondvar$GT$$GT$17h5ae89b65bee79b0eE
	.loc	14 38 32 is_stmt 0
	addq	$16, %rsp
	popq	%rbp
	retq
Ltmp114:
Lfunc_end14:
	.cfi_endproc

	.globl	__ZN3std10sys_common9backtrace26__rust_end_short_backtrace17he4aac6af351513e0E
	.p2align	4, 0x90
__ZN3std10sys_common9backtrace26__rust_end_short_backtrace17he4aac6af351513e0E:
Lfunc_begin15:
	.file	17 "/rustc/2c8cc343237b8f7d5a3c3703e3a87f2eb2c54a74/library/std/src/sys_common" "backtrace.rs"
	.loc	17 133 0 is_stmt 1
	.cfi_startproc
	pushq	%rbp
	.cfi_def_cfa_offset 16
	.cfi_offset %rbp, -16
	movq	%rsp, %rbp
	.cfi_def_cfa_register %rbp
	subq	$64, %rsp
Ltmp115:
	.loc	17 137 18 prologue_end
	movq	(%rdi), %rax
	movq	%rax, -56(%rbp)
	movq	8(%rdi), %rax
	movq	%rax, -48(%rbp)
	movq	16(%rdi), %rax
	movq	%rax, -40(%rbp)
	leaq	-56(%rbp), %rdi
Ltmp116:
	callq	__ZN3std9panicking11begin_panic28_$u7b$$u7b$closure$u7d$$u7d$17ha368fb5a094a7ff7E
Ltmp117:
	.file	18 "/rustc/2c8cc343237b8f7d5a3c3703e3a87f2eb2c54a74/library/core/src" "hint.rs"
	.loc	18 295 5
	## InlineAsm Start
	## InlineAsm End
Ltmp118:
	.loc	17 143 2
	ud2
Ltmp119:
Lfunc_end15:
	.cfi_endproc

	.globl	__ZN3std11collections4hash3map11RandomState3new28_$u7b$$u7b$closure$u7d$$u7d$17h43d2085bb7f82862E
	.p2align	4, 0x90
__ZN3std11collections4hash3map11RandomState3new28_$u7b$$u7b$closure$u7d$$u7d$17h43d2085bb7f82862E:
Lfunc_begin16:
	.file	19 "/rustc/2c8cc343237b8f7d5a3c3703e3a87f2eb2c54a74/library/std/src/collections/hash" "map.rs"
	.loc	19 3128 0
	.cfi_startproc
	pushq	%rbp
	.cfi_def_cfa_offset 16
	.cfi_offset %rbp, -16
	movq	%rsp, %rbp
	.cfi_def_cfa_register %rbp
	subq	$128, %rsp
	movq	%rdi, -72(%rbp)
Ltmp120:
	.loc	19 3129 28 prologue_end
	movq	%rdi, -64(%rbp)
Ltmp121:
	.file	20 "/rustc/2c8cc343237b8f7d5a3c3703e3a87f2eb2c54a74/library/core/src" "cell.rs"
	.loc	20 452 19
	movq	%rdi, -56(%rbp)
	.loc	20 452 18 is_stmt 0
	movq	(%rdi), %rcx
	movq	%rcx, -128(%rbp)
	movq	8(%rdi), %rax
	movq	%rax, -120(%rbp)
Ltmp122:
	.loc	19 3129 18 is_stmt 1
	movq	%rcx, -48(%rbp)
	.loc	19 3129 22 is_stmt 0
	movq	%rax, -40(%rbp)
Ltmp123:
	.loc	19 3130 13 is_stmt 1
	movq	%rdi, -32(%rbp)
	.loc	19 3130 23 is_stmt 0
	movq	%rcx, -24(%rbp)
Ltmp124:
	.file	21 "/rustc/2c8cc343237b8f7d5a3c3703e3a87f2eb2c54a74/library/core/src/num" "uint_macros.rs"
	.loc	21 1162 13 is_stmt 1
	incq	%rcx
Ltmp125:
	.loc	19 3130 22
	movq	%rcx, -96(%rbp)
	movq	%rax, -88(%rbp)
Ltmp126:
	.loc	20 363 32
	movq	-96(%rbp), %rsi
	movq	-88(%rbp), %rdx
	.loc	20 363 19 is_stmt 0
	callq	__ZN4core4cell13Cell$LT$T$GT$7replace17he95c4c2f879e16baE
	movq	-128(%rbp), %rcx
	movq	%rax, %rsi
	movq	-120(%rbp), %rax
	movq	%rsi, -16(%rbp)
	movq	%rdx, -8(%rbp)
Ltmp127:
	.loc	19 3131 13 is_stmt 1
	movq	%rcx, -112(%rbp)
	movq	%rax, -104(%rbp)
Ltmp128:
	.loc	19 3132 10
	movq	-112(%rbp), %rax
	movq	-104(%rbp), %rdx
	addq	$128, %rsp
	popq	%rbp
	retq
Ltmp129:
Lfunc_end16:
	.cfi_endproc

	.p2align	4, 0x90
__ZN3std11collections4hash3map11RandomState3new4KEYS7__getit17hda9fc91ceb727fd1E:
Lfunc_begin17:
	.loc	3 319 0
	.cfi_startproc
	pushq	%rbp
	.cfi_def_cfa_offset 16
	.cfi_offset %rbp, -16
	movq	%rsp, %rbp
	.cfi_def_cfa_register %rbp
	subq	$16, %rsp
	movq	%rdi, -8(%rbp)
Ltmp130:
	.loc	3 346 31 prologue_end
	movq	%rdi, -16(%rbp)
	.loc	3 346 21 is_stmt 0
	movq	-16(%rbp), %rsi
	movq	__ZN3std11collections4hash3map11RandomState3new4KEYS7__getit5__KEY17hc7d79347407182b9E@TLVP(%rip), %rdi
	callq	*(%rdi)
	movq	%rax, %rdi
	callq	__ZN3std6thread5local4fast12Key$LT$T$GT$3get17h5549b77073a1273aE
	.loc	3 357 14 is_stmt 1
	addq	$16, %rsp
	popq	%rbp
	retq
Ltmp131:
Lfunc_end17:
	.cfi_endproc

	.globl	__ZN3std11collections4hash3map11RandomState3new4KEYS7__getit28_$u7b$$u7b$closure$u7d$$u7d$17h3eb04ce8c6399e7eE
	.p2align	4, 0x90
__ZN3std11collections4hash3map11RandomState3new4KEYS7__getit28_$u7b$$u7b$closure$u7d$$u7d$17h3eb04ce8c6399e7eE:
Lfunc_begin18:
	.loc	3 346 0
	.cfi_startproc
	pushq	%rbp
	.cfi_def_cfa_offset 16
	.cfi_offset %rbp, -16
	movq	%rsp, %rbp
	.cfi_def_cfa_register %rbp
	subq	$160, %rsp
	movq	%rdi, -152(%rbp)
Ltmp132:
	.loc	3 347 32 prologue_end
	movq	-152(%rbp), %rdx
	movl	$1, %eax
	xorl	%ecx, %ecx
	cmpq	$0, %rdx
	cmoveq	%rcx, %rax
	cmpq	$1, %rax
	jne	LBB18_2
	.loc	3 347 61 is_stmt 0
	movq	-152(%rbp), %rsi
	movq	%rsi, -64(%rbp)
Ltmp133:
	.loc	3 348 74 is_stmt 1
	movq	%rsi, -56(%rbp)
Ltmp134:
	.file	22 "/rustc/2c8cc343237b8f7d5a3c3703e3a87f2eb2c54a74/library/core/src" "option.rs"
	.loc	22 1623 28
	movq	$0, -104(%rbp)
	.loc	22 1623 9 is_stmt 0
	leaq	-128(%rbp), %rdi
	leaq	-104(%rbp), %rdx
	callq	__ZN4core3mem7replace17hd088935928a1d0feE
Ltmp135:
	.loc	3 348 36 is_stmt 1
	cmpq	$1, -128(%rbp)
	je	LBB18_3
	jmp	LBB18_4
Ltmp136:
LBB18_2:
	.loc	19 3125 23
	callq	__ZN3std3sys4unix4rand19hashmap_random_keys17h35d4ee264ea8f1ebE
	movq	%rax, -48(%rbp)
	movq	%rdx, -40(%rbp)
Ltmp137:
	.loc	20 346 39
	movq	%rax, -32(%rbp)
	movq	%rdx, -24(%rbp)
Ltmp138:
	.loc	20 1953 9
	movq	%rax, -80(%rbp)
	movq	%rdx, -72(%rbp)
Ltmp139:
	.loc	20 346 9
	movq	-80(%rbp), %rcx
	movq	-72(%rbp), %rax
	movq	%rcx, -144(%rbp)
	movq	%rax, -136(%rbp)
Ltmp140:
	.loc	3 294 40
	jmp	LBB18_5
LBB18_3:
Ltmp141:
	.loc	3 348 65
	movq	-120(%rbp), %rcx
	movq	-112(%rbp), %rax
	movq	%rcx, -16(%rbp)
	movq	%rax, -8(%rbp)
	.loc	3 349 40
	movq	%rcx, -144(%rbp)
	movq	%rax, -136(%rbp)
Ltmp142:
	.loc	3 355 22
	jmp	LBB18_5
LBB18_4:
	.loc	3 347 25
	jmp	LBB18_2
LBB18_5:
	.loc	3 355 22
	movq	-144(%rbp), %rax
	movq	-136(%rbp), %rdx
	addq	$160, %rsp
	popq	%rbp
	retq
Ltmp143:
Lfunc_end18:
	.cfi_endproc

	.globl	__ZN3std11collections4hash3map20HashMap$LT$K$C$V$GT$3new17h108bb43678af8c33E
	.p2align	4, 0x90
__ZN3std11collections4hash3map20HashMap$LT$K$C$V$GT$3new17h108bb43678af8c33E:
Lfunc_begin19:
	.loc	19 233 0
	.cfi_startproc
	pushq	%rbp
	.cfi_def_cfa_offset 16
	.cfi_offset %rbp, -16
	movq	%rsp, %rbp
	.cfi_def_cfa_register %rbp
	subq	$80, %rsp
	movq	%rdi, -80(%rbp)
	movq	%rdi, -72(%rbp)
Ltmp144:
	.loc	19 3128 9 prologue_end
	leaq	l___unnamed_20(%rip), %rdi
	callq	__ZN3std6thread5local17LocalKey$LT$T$GT$4with17h3e9d00f4824767e9E
	movq	%rax, %rsi
	movq	%rsi, -16(%rbp)
	movq	%rdx, -8(%rbp)
Ltmp145:
	.loc	19 285 25
	leaq	-64(%rbp), %rdi
	callq	__ZN9hashbrown3map24HashMap$LT$K$C$V$C$S$GT$11with_hasher17h030e070139b840e6E
	movq	-80(%rbp), %rdi
	.loc	19 285 9 is_stmt 0
	leaq	-64(%rbp), %rsi
	movl	$48, %edx
	callq	_memcpy
	movq	-72(%rbp), %rax
Ltmp146:
	.loc	19 235 6 is_stmt 1
	addq	$80, %rsp
	popq	%rbp
	retq
Ltmp147:
Lfunc_end19:
	.cfi_endproc

	.globl	__ZN3std11collections4hash3map24HashMap$LT$K$C$V$C$S$GT$6insert17hee181b0f1d7739d0E
	.p2align	4, 0x90
__ZN3std11collections4hash3map24HashMap$LT$K$C$V$C$S$GT$6insert17hee181b0f1d7739d0E:
Lfunc_begin20:
	.loc	19 1103 0
	.cfi_startproc
	pushq	%rbp
	.cfi_def_cfa_offset 16
	.cfi_offset %rbp, -16
	movq	%rsp, %rbp
	.cfi_def_cfa_register %rbp
	subq	$32, %rsp
	movq	%rdi, -24(%rbp)
	movq	%rsi, -16(%rbp)
	movq	%rdx, -8(%rbp)
Ltmp148:
	.loc	19 1104 9 prologue_end
	callq	__ZN9hashbrown3map28HashMap$LT$K$C$V$C$S$C$A$GT$6insert17h0eeddd31ee7e7de3E
	.loc	19 1105 6
	addq	$32, %rsp
	popq	%rbp
	retq
Ltmp149:
Lfunc_end20:
	.cfi_endproc

	.globl	__ZN3std11collections4hash3map24HashMap$LT$K$C$V$C$S$GT$6remove17h8b1b93a4b733b9dfE
	.p2align	4, 0x90
__ZN3std11collections4hash3map24HashMap$LT$K$C$V$C$S$GT$6remove17h8b1b93a4b733b9dfE:
Lfunc_begin21:
	.loc	19 1157 0
	.cfi_startproc
	pushq	%rbp
	.cfi_def_cfa_offset 16
	.cfi_offset %rbp, -16
	movq	%rsp, %rbp
	.cfi_def_cfa_register %rbp
	subq	$16, %rsp
	movq	%rdi, -16(%rbp)
	movq	%rsi, -8(%rbp)
Ltmp150:
	.loc	19 1162 9 prologue_end
	callq	__ZN9hashbrown3map28HashMap$LT$K$C$V$C$S$C$A$GT$6remove17h12829c1300b8d6d1E
	.loc	19 1163 6
	addq	$16, %rsp
	popq	%rbp
	retq
Ltmp151:
Lfunc_end21:
	.cfi_endproc

	.globl	__ZN3std2io5Write9write_all17ha4fa067bb9ef6ff3E
	.p2align	4, 0x90
__ZN3std2io5Write9write_all17ha4fa067bb9ef6ff3E:
Lfunc_begin22:
	.file	23 "/rustc/2c8cc343237b8f7d5a3c3703e3a87f2eb2c54a74/library/std/src/io" "mod.rs"
	.loc	23 1540 0
	.cfi_startproc
	.cfi_personality 155, _rust_eh_personality
	.cfi_lsda 16, Lexception0
	pushq	%rbp
	.cfi_def_cfa_offset 16
	.cfi_offset %rbp, -16
	movq	%rsp, %rbp
	.cfi_def_cfa_register %rbp
	subq	$256, %rsp
	movq	%rdi, -232(%rbp)
	movq	%rsi, -224(%rbp)
	movq	%rdx, -216(%rbp)
	movq	%rdi, -136(%rbp)
LBB22_1:
Ltmp160:
	.loc	23 1541 16 prologue_end
	movq	-224(%rbp), %rcx
	movq	-216(%rbp), %rax
	movq	%rcx, -128(%rbp)
	movq	%rax, -120(%rbp)
Ltmp161:
	.file	24 "/rustc/2c8cc343237b8f7d5a3c3703e3a87f2eb2c54a74/library/core/src/slice" "mod.rs"
	.loc	24 153 9
	cmpq	$0, %rax
	sete	%al
Ltmp162:
	.loc	23 1541 15
	xorb	$-1, %al
	testb	$1, %al
	jne	LBB22_3
	.loc	23 1554 9
	movq	$0, -208(%rbp)
	.loc	23 1555 6
	jmp	LBB22_23
LBB22_3:
	.loc	23 0 6 is_stmt 0
	movq	-232(%rbp), %rsi
	.loc	23 1542 30 is_stmt 1
	movq	-224(%rbp), %rdx
	movq	-216(%rbp), %rcx
	.loc	23 1542 19 is_stmt 0
	leaq	-200(%rbp), %rdi
	callq	__ZN64_$LT$std..sys..unix..stdio..Stderr$u20$as$u20$std..io..Write$GT$5write17hfeaf20e5669f7ee8E
	.loc	23 1542 13
	cmpq	$0, -200(%rbp)
	jne	LBB22_5
	cmpq	$0, -192(%rbp)
	je	LBB22_13
	jmp	LBB22_14
LBB22_5:
	.loc	23 1550 21 is_stmt 1
	leaq	-192(%rbp), %rax
	movq	%rax, -168(%rbp)
	leaq	-168(%rbp), %rax
	movq	%rax, -112(%rbp)
	.loc	23 1550 31 is_stmt 0
	movq	-168(%rbp), %rdi
Ltmp152:
	callq	__ZN3std2io5error5Error4kind17hd483689af6d81aefE
Ltmp153:
	movb	%al, -233(%rbp)
	jmp	LBB22_8
LBB22_6:
	.loc	23 1553 9 is_stmt 1
	cmpq	$1, -200(%rbp)
	je	LBB22_16
	jmp	LBB22_17
LBB22_7:
Ltmp156:
	.loc	23 0 9 is_stmt 0
	movq	%rax, %rcx
	movl	%edx, %eax
	movq	%rcx, -104(%rbp)
	movl	%eax, -96(%rbp)
	jmp	LBB22_6
LBB22_8:
	movb	-233(%rbp), %al
	.loc	23 1550 31 is_stmt 1
	movb	%al, -153(%rbp)
	leaq	-153(%rbp), %rax
	movq	%rax, -88(%rbp)
	.loc	23 1550 43 is_stmt 0
	leaq	l___unnamed_21(%rip), %rax
	movq	%rax, -80(%rbp)
Ltmp163:
	.file	25 "/rustc/2c8cc343237b8f7d5a3c3703e3a87f2eb2c54a74/library/std/src/io" "error.rs"
	.loc	25 165 45 is_stmt 1
	movzbl	-153(%rbp), %eax
	movq	%rax, -72(%rbp)
Ltmp164:
	.loc	25 165 45 is_stmt 0
	movzbl	l___unnamed_21(%rip), %ecx
	movq	%rcx, -64(%rbp)
Ltmp165:
	.loc	25 165 45
	cmpq	%rcx, %rax
Ltmp166:
	.loc	23 1550 31 is_stmt 1
	je	LBB22_10
	.loc	23 1551 21
	movq	-192(%rbp), %rax
	movq	%rax, -56(%rbp)
Ltmp167:
	.loc	23 1551 34 is_stmt 0
	movq	%rax, -208(%rbp)
Ltmp168:
	.file	26 "/Users/natalie/.cargo/registry/src/github.com-1ecc6299db9ec823/crossbeam-utils-0.8.14" "src/lib.rs"
	.loc	26 1 1 is_stmt 1
	jmp	LBB22_12
LBB22_10:
	.loc	23 1550 70
	jmp	LBB22_11
LBB22_11:
	.loc	23 1553 9
	cmpq	$1, -200(%rbp)
	je	LBB22_20
	jmp	LBB22_21
LBB22_12:
	.loc	23 1555 6
	jmp	LBB22_23
LBB22_13:
	.loc	23 1544 32
	leaq	l___unnamed_22(%rip), %rax
	movq	%rax, -24(%rbp)
Ltmp169:
	.loc	25 554 47
	leaq	l___unnamed_22(%rip), %rax
	movq	%rax, -16(%rbp)
Ltmp170:
	.file	27 "/rustc/2c8cc343237b8f7d5a3c3703e3a87f2eb2c54a74/library/std/src/io/error" "repr_bitpacked.rs"
	.loc	27 206 46
	leaq	l___unnamed_22(%rip), %rax
	movq	%rax, -8(%rbp)
Ltmp171:
	.loc	10 201 13
	leaq	l___unnamed_22(%rip), %rax
	movq	%rax, -144(%rbp)
Ltmp172:
	.loc	27 206 9
	movq	-144(%rbp), %rax
	movq	%rax, -152(%rbp)
Ltmp173:
	.loc	25 554 9
	movq	-152(%rbp), %rax
	movq	%rax, -184(%rbp)
Ltmp174:
	.loc	23 1544 28
	movq	-184(%rbp), %rax
	movq	%rax, -208(%rbp)
	.loc	26 1 1
	jmp	LBB22_12
LBB22_14:
	.loc	23 1549 20
	movq	-192(%rbp), %rax
	movq	%rax, -48(%rbp)
Ltmp175:
	.loc	23 1549 33 is_stmt 0
	movq	-224(%rbp), %rsi
	movq	-216(%rbp), %rdx
	movq	%rsi, -40(%rbp)
	movq	%rdx, -32(%rbp)
	.loc	23 1549 37
	movq	%rax, -176(%rbp)
Ltmp176:
	.loc	4 18 9 is_stmt 1
	movq	-176(%rbp), %rdi
Ltmp154:
	leaq	l___unnamed_23(%rip), %rcx
	callq	__ZN110_$LT$core..ops..range..RangeFrom$LT$usize$GT$$u20$as$u20$core..slice..index..SliceIndex$LT$$u5b$T$u5d$$GT$$GT$5index17h51a7f57c3fa1f9caE
Ltmp155:
	movq	%rdx, -256(%rbp)
	movq	%rax, -248(%rbp)
	jmp	LBB22_15
Ltmp177:
LBB22_15:
	.loc	4 0 9 is_stmt 0
	movq	-256(%rbp), %rax
	movq	-248(%rbp), %rcx
	.loc	23 1549 26 is_stmt 1
	movq	%rcx, -224(%rbp)
	movq	%rax, -216(%rbp)
Ltmp178:
	.loc	23 1549 40 is_stmt 0
	jmp	LBB22_11
LBB22_16:
	.loc	23 1553 9 is_stmt 1
	movb	$1, %al
	testb	$1, %al
	jne	LBB22_18
	jmp	LBB22_17
LBB22_17:
	.loc	23 1540 5
	movq	-104(%rbp), %rdi
	callq	__Unwind_Resume
LBB22_18:
	.loc	23 1553 9
	leaq	-192(%rbp), %rdi
Ltmp157:
	callq	__ZN4core3ptr42drop_in_place$LT$std..io..error..Error$GT$17h3e89114d93422ea3E
Ltmp158:
	jmp	LBB22_17
LBB22_19:
Ltmp159:
	.loc	23 1540 5
	callq	__ZN4core9panicking19panic_cannot_unwind17h1fbca7e1d7f56ae1E
LBB22_20:
	.loc	23 1553 9
	movb	$1, %al
	testb	$1, %al
	jne	LBB22_22
	jmp	LBB22_21
LBB22_21:
	.loc	23 1541 9
	jmp	LBB22_1
LBB22_22:
	.loc	23 1553 9
	leaq	-200(%rbp), %rdi
	addq	$8, %rdi
	callq	__ZN4core3ptr42drop_in_place$LT$std..io..error..Error$GT$17h3e89114d93422ea3E
	jmp	LBB22_21
LBB22_23:
	.loc	23 1555 6
	movq	-208(%rbp), %rax
	addq	$256, %rsp
	popq	%rbp
	retq
Ltmp179:
Lfunc_end22:
	.cfi_endproc
	.section	__TEXT,__gcc_except_tab
	.p2align	2
GCC_except_table22:
Lexception0:
	.byte	255
	.byte	255
	.byte	1
	.uleb128 Lcst_end0-Lcst_begin0
Lcst_begin0:
	.uleb128 Lfunc_begin22-Lfunc_begin22
	.uleb128 Ltmp152-Lfunc_begin22
	.byte	0
	.byte	0
	.uleb128 Ltmp152-Lfunc_begin22
	.uleb128 Ltmp155-Ltmp152
	.uleb128 Ltmp156-Lfunc_begin22
	.byte	0
	.uleb128 Ltmp155-Lfunc_begin22
	.uleb128 Ltmp157-Ltmp155
	.byte	0
	.byte	0
	.uleb128 Ltmp157-Lfunc_begin22
	.uleb128 Ltmp158-Ltmp157
	.uleb128 Ltmp159-Lfunc_begin22
	.byte	0
	.uleb128 Ltmp158-Lfunc_begin22
	.uleb128 Lfunc_end22-Ltmp158
	.byte	0
	.byte	0
Lcst_end0:
	.p2align	2

	.section	__TEXT,__text,regular,pure_instructions
	.globl	__ZN3std2io5Write9write_fmt17h32f55008490ae4b8E
	.p2align	4, 0x90
__ZN3std2io5Write9write_fmt17h32f55008490ae4b8E:
Lfunc_begin23:
	.loc	23 1661 0
	.cfi_startproc
	.cfi_personality 155, _rust_eh_personality
	.cfi_lsda 16, Lexception1
	pushq	%rbp
	.cfi_def_cfa_offset 16
	.cfi_offset %rbp, -16
	movq	%rsp, %rbp
	.cfi_def_cfa_register %rbp
	subq	$192, %rsp
	movq	%rdi, -64(%rbp)
Ltmp186:
	.loc	23 1681 56 prologue_end
	movq	$0, -160(%rbp)
	.loc	23 1681 26 is_stmt 0
	movb	$1, -82(%rbp)
	movq	%rdi, -168(%rbp)
	movq	-160(%rbp), %rax
	movq	%rax, -176(%rbp)
Ltmp187:
	.loc	23 1682 39 is_stmt 1
	movq	40(%rsi), %rax
	movq	%rax, -104(%rbp)
	movq	32(%rsi), %rax
	movq	%rax, -112(%rbp)
	movq	24(%rsi), %rax
	movq	%rax, -120(%rbp)
	movq	16(%rsi), %rax
	movq	%rax, -128(%rbp)
	movq	(%rsi), %rax
	movq	8(%rsi), %rcx
	movq	%rcx, -136(%rbp)
	movq	%rax, -144(%rbp)
Ltmp180:
	.loc	23 1682 15 is_stmt 0
	leaq	l___unnamed_1(%rip), %rsi
Ltmp188:
	.loc	23 0 15
	leaq	-176(%rbp), %rdi
	leaq	-144(%rbp), %rdx
	.loc	23 1682 15
	callq	__ZN4core3fmt5write17hfa389e524187f2c6E
Ltmp181:
	movb	%al, -185(%rbp)
	jmp	LBB23_3
Ltmp189:
LBB23_1:
Ltmp183:
	.loc	23 0 15
	leaq	-176(%rbp), %rdi
	.loc	23 1693 5 is_stmt 1
	callq	__ZN4core3ptr92drop_in_place$LT$std..io..Write..write_fmt..Adapter$LT$std..sys..unix..stdio..Stderr$GT$$GT$17h84182d0e91e11d6bE
Ltmp184:
	jmp	LBB23_5
Ltmp190:
LBB23_2:
Ltmp182:
	.loc	23 0 5 is_stmt 0
	movq	%rax, %rcx
	movl	%edx, %eax
	movq	%rcx, -56(%rbp)
	movl	%eax, -48(%rbp)
	jmp	LBB23_1
Ltmp191:
LBB23_3:
	movb	-185(%rbp), %al
Ltmp192:
	.loc	23 1682 15 is_stmt 1
	andb	$1, %al
	movb	%al, -145(%rbp)
	movb	-145(%rbp), %al
	andb	$1, %al
	movzbl	%al, %eax
	.loc	23 1682 9 is_stmt 0
	cmpq	$0, %rax
	je	LBB23_6
	jmp	LBB23_7
Ltmp193:
LBB23_4:
Ltmp185:
	.loc	23 1661 5 is_stmt 1
	callq	__ZN4core9panicking19panic_cannot_unwind17h1fbca7e1d7f56ae1E
Ltmp194:
LBB23_5:
	movq	-56(%rbp), %rdi
	callq	__Unwind_Resume
Ltmp195:
LBB23_6:
	.loc	23 1683 23
	movq	$0, -184(%rbp)
	.loc	23 1683 28 is_stmt 0
	jmp	LBB23_14
Ltmp196:
LBB23_7:
	.loc	23 1686 20 is_stmt 1
	leaq	-176(%rbp), %rax
	movq	%rax, -40(%rbp)
Ltmp197:
	.file	28 "/rustc/2c8cc343237b8f7d5a3c3703e3a87f2eb2c54a74/library/core/src" "result.rs"
	.loc	28 589 10
	leaq	-176(%rbp), %rax
	movq	%rax, -32(%rbp)
Ltmp198:
	.loc	28 542 18
	movq	-176(%rbp), %rdx
	movl	$1, %eax
	xorl	%ecx, %ecx
	cmpq	$0, %rdx
	cmoveq	%rcx, %rax
	.file	29 "/rustc/2c8cc343237b8f7d5a3c3703e3a87f2eb2c54a74/library/core/src/macros" "mod.rs"
	.loc	29 344 9
	cmpq	$0, %rax
	jne	LBB23_9
Ltmp199:
	.loc	29 345 48
	movb	$1, -81(%rbp)
	jmp	LBB23_10
Ltmp200:
LBB23_9:
	.loc	29 346 18
	movb	$0, -81(%rbp)
Ltmp201:
LBB23_10:
	.loc	28 589 9
	movb	-81(%rbp), %al
	xorb	$-1, %al
Ltmp202:
	.loc	23 1686 20
	testb	$1, %al
	jne	LBB23_12
Ltmp203:
	.loc	23 1689 25
	leaq	l___unnamed_24(%rip), %rax
	movq	%rax, -24(%rbp)
Ltmp204:
	.loc	25 554 47
	leaq	l___unnamed_24(%rip), %rax
	movq	%rax, -16(%rbp)
Ltmp205:
	.loc	27 206 46
	leaq	l___unnamed_24(%rip), %rax
	movq	%rax, -8(%rbp)
Ltmp206:
	.loc	10 201 13
	leaq	l___unnamed_24(%rip), %rax
	movq	%rax, -72(%rbp)
Ltmp207:
	.loc	27 206 9
	movq	-72(%rbp), %rax
	movq	%rax, -80(%rbp)
Ltmp208:
	.loc	25 554 9
	movq	-80(%rbp), %rax
	movq	%rax, -96(%rbp)
Ltmp209:
	.loc	23 1689 21
	movq	-96(%rbp), %rax
	movq	%rax, -184(%rbp)
	.loc	23 1686 17
	jmp	LBB23_13
Ltmp210:
LBB23_12:
	.loc	23 1687 21
	movb	$0, -82(%rbp)
	movq	-176(%rbp), %rax
	movq	%rax, -184(%rbp)
Ltmp211:
LBB23_13:
	.loc	23 1690 17
	jmp	LBB23_14
Ltmp212:
LBB23_14:
	.loc	23 1693 5
	testb	$1, -82(%rbp)
	jne	LBB23_16
Ltmp213:
LBB23_15:
	.loc	23 1693 6 is_stmt 0
	movq	-184(%rbp), %rax
	addq	$192, %rsp
	popq	%rbp
	retq
Ltmp214:
LBB23_16:
	.loc	23 1693 5
	leaq	-176(%rbp), %rdi
	callq	__ZN4core3ptr81drop_in_place$LT$core..result..Result$LT$$LP$$RP$$C$std..io..error..Error$GT$$GT$17hc4d2f216abb9d096E
	jmp	LBB23_15
Ltmp215:
Lfunc_end23:
	.cfi_endproc
	.section	__TEXT,__gcc_except_tab
	.p2align	2
GCC_except_table23:
Lexception1:
	.byte	255
	.byte	255
	.byte	1
	.uleb128 Lcst_end1-Lcst_begin1
Lcst_begin1:
	.uleb128 Ltmp180-Lfunc_begin23
	.uleb128 Ltmp181-Ltmp180
	.uleb128 Ltmp182-Lfunc_begin23
	.byte	0
	.uleb128 Ltmp183-Lfunc_begin23
	.uleb128 Ltmp184-Ltmp183
	.uleb128 Ltmp185-Lfunc_begin23
	.byte	0
	.uleb128 Ltmp184-Lfunc_begin23
	.uleb128 Lfunc_end23-Ltmp184
	.byte	0
	.byte	0
Lcst_end1:
	.p2align	2

	.section	__TEXT,__text,regular,pure_instructions
	.globl	__ZN3std2io5error14repr_bitpacked11decode_repr17h21cbae48265580d8E
	.p2align	4, 0x90
__ZN3std2io5error14repr_bitpacked11decode_repr17h21cbae48265580d8E:
Lfunc_begin24:
	.loc	27 246 0 is_stmt 1
	.cfi_startproc
	.cfi_personality 155, _rust_eh_personality
	.cfi_lsda 16, Lexception2
	pushq	%rbp
	.cfi_def_cfa_offset 16
	.cfi_offset %rbp, -16
	movq	%rsp, %rbp
	.cfi_def_cfa_register %rbp
	subq	$320, %rsp
	movq	%rsi, -272(%rbp)
	movq	%rdi, -264(%rbp)
	movq	%rdi, -256(%rbp)
	movq	%rsi, -184(%rbp)
Ltmp225:
	.loc	27 250 9 prologue_end
	movb	$1, -201(%rbp)
	.loc	27 250 16 is_stmt 0
	movq	%rsi, -160(%rbp)
Ltmp226:
	.loc	10 326 9 is_stmt 1
	movq	%rsi, -152(%rbp)
Ltmp227:
	.loc	8 215 33
	movq	%rsi, -144(%rbp)
	.loc	8 215 18 is_stmt 0
	movq	%rsi, -248(%rbp)
Ltmp228:
	.loc	27 251 11 is_stmt 1
	movq	-248(%rbp), %rax
	andl	$3, %eax
	movq	%rax, -280(%rbp)
	.loc	27 251 5 is_stmt 0
	subq	$3, %rax
	ja	LBB24_2
	.loc	27 0 5
	movq	-280(%rbp), %rax
	leaq	LJTI24_0(%rip), %rcx
	movslq	(%rcx,%rax,4), %rax
	addq	%rcx, %rax
	jmpq	*%rax
LBB24_2:
Ltmp222:
	.loc	27 280 13 is_stmt 1
	leaq	l___unnamed_25(%rip), %rdi
	leaq	l___unnamed_26(%rip), %rdx
	movl	$40, %esi
	callq	__ZN4core9panicking5panic17hc1bc45270cf64b03E
Ltmp223:
	jmp	LBB24_9
LBB24_3:
	.loc	27 0 13 is_stmt 0
	movq	-264(%rbp), %rax
	.loc	27 253 26 is_stmt 1
	movq	-248(%rbp), %rcx
	.loc	27 253 24 is_stmt 0
	sarq	$32, %rcx
	movl	%ecx, -4(%rbp)
Ltmp229:
	.loc	27 254 13 is_stmt 1
	movl	%ecx, 4(%rax)
	movb	$0, (%rax)
Ltmp230:
	.loc	27 255 9
	jmp	LBB24_12
LBB24_4:
	.loc	27 257 30
	movl	-244(%rbp), %edi
	.loc	27 257 29 is_stmt 0
	movl	%edi, -12(%rbp)
Ltmp218:
Ltmp231:
	.loc	27 258 24 is_stmt 1
	callq	__ZN3std2io5error14repr_bitpacked14kind_from_prim17h15114a4239709c50E
Ltmp219:
	movb	%al, -281(%rbp)
	jmp	LBB24_13
Ltmp232:
LBB24_5:
	.loc	27 0 24 is_stmt 0
	movq	-264(%rbp), %rax
	movq	-272(%rbp), %rcx
	.loc	27 270 58 is_stmt 1
	movq	%rcx, -40(%rbp)
Ltmp233:
	.loc	10 450 41
	movq	%rcx, -32(%rbp)
	movq	%rcx, -24(%rbp)
Ltmp234:
	.loc	10 201 13
	movq	%rcx, -224(%rbp)
Ltmp235:
	.loc	10 326 9
	movq	-224(%rbp), %rcx
Ltmp236:
	.loc	27 270 31
	movq	%rcx, 8(%rax)
	movb	$2, (%rax)
	.loc	27 270 94 is_stmt 0
	jmp	LBB24_12
LBB24_6:
	.loc	27 0 94
	movq	-272(%rbp), %rax
	.loc	27 275 26 is_stmt 1
	movq	%rax, -120(%rbp)
Ltmp237:
	.loc	10 326 9
	movq	%rax, -112(%rbp)
Ltmp238:
	.loc	8 1300 9
	movq	%rax, -104(%rbp)
Ltmp239:
	.loc	8 60 9
	movq	%rax, -96(%rbp)
Ltmp240:
	.loc	8 1282 9
	movq	%rax, -88(%rbp)
Ltmp241:
	.loc	8 568 18
	addq	$-1, %rax
	movq	%rax, -80(%rbp)
	movq	-80(%rbp), %rax
	movq	%rax, -296(%rbp)
	jmp	LBB24_10
Ltmp242:
LBB24_7:
	.loc	27 283 1
	testb	$1, -201(%rbp)
	jne	LBB24_19
	jmp	LBB24_18
LBB24_8:
Ltmp224:
	.loc	27 0 1 is_stmt 0
	movq	%rax, %rcx
	movl	%edx, %eax
	movq	%rcx, -136(%rbp)
	movl	%eax, -128(%rbp)
	jmp	LBB24_7
LBB24_9:
	ud2
LBB24_10:
	movq	-296(%rbp), %rax
Ltmp243:
	.loc	8 568 18 is_stmt 1
	movq	%rax, -72(%rbp)
Ltmp244:
	.loc	8 99 33
	movq	%rax, -64(%rbp)
Ltmp245:
	.loc	7 135 36
	movq	%rax, -192(%rbp)
	.loc	7 135 14 is_stmt 0
	movq	-192(%rbp), %rax
	movq	%rax, -200(%rbp)
	movq	-200(%rbp), %rax
	movq	%rax, -56(%rbp)
Ltmp246:
	.loc	8 60 9 is_stmt 1
	movq	%rax, -48(%rbp)
Ltmp247:
	.loc	27 276 31
	movb	$0, -201(%rbp)
	movq	%rax, -216(%rbp)
	movq	-216(%rbp), %rdi
Ltmp216:
	callq	__ZN78_$LT$std..io..error..repr_bitpacked..Repr$u20$as$u20$core..ops..drop..Drop$GT$4drop28_$u7b$$u7b$closure$u7d$$u7d$17h584f7d649c78c2f3E
Ltmp217:
	movq	%rax, -304(%rbp)
	jmp	LBB24_11
LBB24_11:
	.loc	27 0 31 is_stmt 0
	movq	-264(%rbp), %rax
	movq	-304(%rbp), %rcx
	.loc	27 276 13
	movq	%rcx, 8(%rax)
	movb	$3, (%rax)
Ltmp248:
LBB24_12:
	.loc	27 283 1 is_stmt 1
	testb	$1, -201(%rbp)
	jne	LBB24_21
	jmp	LBB24_20
LBB24_13:
	.loc	27 0 1 is_stmt 0
	movb	-281(%rbp), %al
Ltmp249:
	.loc	27 258 24 is_stmt 1
	movb	%al, -233(%rbp)
	.loc	27 258 65 is_stmt 0
	leaq	-248(%rbp), %rax
	movq	%rax, -232(%rbp)
Ltmp250:
	.loc	22 871 15 is_stmt 1
	movl	$1, %eax
	xorl	%ecx, %ecx
	cmpb	$41, -233(%rbp)
	cmoveq	%rcx, %rax
	.loc	22 871 9 is_stmt 0
	cmpq	$0, %rax
	jne	LBB24_15
	.loc	22 873 21 is_stmt 1
	movq	-232(%rbp), %rdi
Ltmp220:
	callq	__ZN3std2io5error14repr_bitpacked11decode_repr28_$u7b$$u7b$closure$u7d$$u7d$17h6b647efdd9955644E
Ltmp221:
	movb	%al, -305(%rbp)
	jmp	LBB24_17
LBB24_15:
	.loc	22 872 18
	movb	-233(%rbp), %al
	movb	%al, -5(%rbp)
Ltmp251:
	.loc	22 872 24 is_stmt 0
	movb	%al, -234(%rbp)
Ltmp252:
LBB24_16:
	.loc	22 0 24
	movq	-264(%rbp), %rax
Ltmp253:
	.loc	27 268 31 is_stmt 1
	movb	-234(%rbp), %cl
	.loc	27 268 13 is_stmt 0
	movb	%cl, 1(%rax)
	movb	$1, (%rax)
Ltmp254:
	.loc	27 269 9 is_stmt 1
	jmp	LBB24_12
LBB24_17:
	.loc	27 0 9 is_stmt 0
	movb	-305(%rbp), %al
Ltmp255:
	.loc	22 873 21 is_stmt 1
	movb	%al, -234(%rbp)
	.loc	22 873 23 is_stmt 0
	jmp	LBB24_16
Ltmp256:
LBB24_18:
	.loc	27 246 1 is_stmt 1
	movq	-136(%rbp), %rdi
	callq	__Unwind_Resume
LBB24_19:
	.loc	27 283 1
	jmp	LBB24_18
LBB24_20:
	.loc	27 0 1 is_stmt 0
	movq	-256(%rbp), %rax
	.loc	27 283 2
	addq	$320, %rsp
	popq	%rbp
	retq
LBB24_21:
	.loc	27 283 1
	jmp	LBB24_20
Ltmp257:
Lfunc_end24:
	.cfi_endproc
	.p2align	2, 0x90
	.data_region jt32
.set L24_0_set_5, LBB24_5-LJTI24_0
.set L24_0_set_6, LBB24_6-LJTI24_0
.set L24_0_set_3, LBB24_3-LJTI24_0
.set L24_0_set_4, LBB24_4-LJTI24_0
LJTI24_0:
	.long	L24_0_set_5
	.long	L24_0_set_6
	.long	L24_0_set_3
	.long	L24_0_set_4
	.end_data_region
	.section	__TEXT,__gcc_except_tab
	.p2align	2
GCC_except_table24:
Lexception2:
	.byte	255
	.byte	255
	.byte	1
	.uleb128 Lcst_end2-Lcst_begin2
Lcst_begin2:
	.uleb128 Ltmp222-Lfunc_begin24
	.uleb128 Ltmp221-Ltmp222
	.uleb128 Ltmp224-Lfunc_begin24
	.byte	0
	.uleb128 Ltmp221-Lfunc_begin24
	.uleb128 Lfunc_end24-Ltmp221
	.byte	0
	.byte	0
Lcst_end2:
	.p2align	2

	.section	__TEXT,__text,regular,pure_instructions
	.globl	__ZN3std2io5error14repr_bitpacked11decode_repr17h23c4fbde07d4be05E
	.p2align	4, 0x90
__ZN3std2io5error14repr_bitpacked11decode_repr17h23c4fbde07d4be05E:
Lfunc_begin25:
	.loc	27 246 0 is_stmt 1
	.cfi_startproc
	.cfi_personality 155, _rust_eh_personality
	.cfi_lsda 16, Lexception3
	pushq	%rbp
	.cfi_def_cfa_offset 16
	.cfi_offset %rbp, -16
	movq	%rsp, %rbp
	.cfi_def_cfa_register %rbp
	subq	$320, %rsp
	movq	%rsi, -272(%rbp)
	movq	%rdi, -264(%rbp)
	movq	%rdi, -256(%rbp)
	movq	%rsi, -184(%rbp)
Ltmp267:
	.loc	27 250 9 prologue_end
	movb	$1, -201(%rbp)
	.loc	27 250 16 is_stmt 0
	movq	%rsi, -160(%rbp)
Ltmp268:
	.loc	10 326 9 is_stmt 1
	movq	%rsi, -152(%rbp)
Ltmp269:
	.loc	8 215 33
	movq	%rsi, -144(%rbp)
	.loc	8 215 18 is_stmt 0
	movq	%rsi, -248(%rbp)
Ltmp270:
	.loc	27 251 11 is_stmt 1
	movq	-248(%rbp), %rax
	andl	$3, %eax
	movq	%rax, -280(%rbp)
	.loc	27 251 5 is_stmt 0
	subq	$3, %rax
	ja	LBB25_2
	.loc	27 0 5
	movq	-280(%rbp), %rax
	leaq	LJTI25_0(%rip), %rcx
	movslq	(%rcx,%rax,4), %rax
	addq	%rcx, %rax
	jmpq	*%rax
LBB25_2:
Ltmp264:
	.loc	27 280 13 is_stmt 1
	leaq	l___unnamed_25(%rip), %rdi
	leaq	l___unnamed_26(%rip), %rdx
	movl	$40, %esi
	callq	__ZN4core9panicking5panic17hc1bc45270cf64b03E
Ltmp265:
	jmp	LBB25_9
LBB25_3:
	.loc	27 0 13 is_stmt 0
	movq	-264(%rbp), %rax
	.loc	27 253 26 is_stmt 1
	movq	-248(%rbp), %rcx
	.loc	27 253 24 is_stmt 0
	sarq	$32, %rcx
	movl	%ecx, -4(%rbp)
Ltmp271:
	.loc	27 254 13 is_stmt 1
	movl	%ecx, 4(%rax)
	movb	$0, (%rax)
Ltmp272:
	.loc	27 255 9
	jmp	LBB25_12
LBB25_4:
	.loc	27 257 30
	movl	-244(%rbp), %edi
	.loc	27 257 29 is_stmt 0
	movl	%edi, -12(%rbp)
Ltmp260:
Ltmp273:
	.loc	27 258 24 is_stmt 1
	callq	__ZN3std2io5error14repr_bitpacked14kind_from_prim17h15114a4239709c50E
Ltmp261:
	movb	%al, -281(%rbp)
	jmp	LBB25_13
Ltmp274:
LBB25_5:
	.loc	27 0 24 is_stmt 0
	movq	-264(%rbp), %rax
	movq	-272(%rbp), %rcx
	.loc	27 270 58 is_stmt 1
	movq	%rcx, -40(%rbp)
Ltmp275:
	.loc	10 450 41
	movq	%rcx, -32(%rbp)
	movq	%rcx, -24(%rbp)
Ltmp276:
	.loc	10 201 13
	movq	%rcx, -224(%rbp)
Ltmp277:
	.loc	10 326 9
	movq	-224(%rbp), %rcx
Ltmp278:
	.loc	27 270 31
	movq	%rcx, 8(%rax)
	movb	$2, (%rax)
	.loc	27 270 94 is_stmt 0
	jmp	LBB25_12
LBB25_6:
	.loc	27 0 94
	movq	-272(%rbp), %rax
	.loc	27 275 26 is_stmt 1
	movq	%rax, -120(%rbp)
Ltmp279:
	.loc	10 326 9
	movq	%rax, -112(%rbp)
Ltmp280:
	.loc	8 1300 9
	movq	%rax, -104(%rbp)
Ltmp281:
	.loc	8 60 9
	movq	%rax, -96(%rbp)
Ltmp282:
	.loc	8 1282 9
	movq	%rax, -88(%rbp)
Ltmp283:
	.loc	8 568 18
	addq	$-1, %rax
	movq	%rax, -80(%rbp)
	movq	-80(%rbp), %rax
	movq	%rax, -296(%rbp)
	jmp	LBB25_10
Ltmp284:
LBB25_7:
	.loc	27 283 1
	testb	$1, -201(%rbp)
	jne	LBB25_19
	jmp	LBB25_18
LBB25_8:
Ltmp266:
	.loc	27 0 1 is_stmt 0
	movq	%rax, %rcx
	movl	%edx, %eax
	movq	%rcx, -136(%rbp)
	movl	%eax, -128(%rbp)
	jmp	LBB25_7
LBB25_9:
	ud2
LBB25_10:
	movq	-296(%rbp), %rax
Ltmp285:
	.loc	8 568 18 is_stmt 1
	movq	%rax, -72(%rbp)
Ltmp286:
	.loc	8 99 33
	movq	%rax, -64(%rbp)
Ltmp287:
	.loc	7 135 36
	movq	%rax, -192(%rbp)
	.loc	7 135 14 is_stmt 0
	movq	-192(%rbp), %rax
	movq	%rax, -200(%rbp)
	movq	-200(%rbp), %rax
	movq	%rax, -56(%rbp)
Ltmp288:
	.loc	8 60 9 is_stmt 1
	movq	%rax, -48(%rbp)
Ltmp289:
	.loc	27 276 31
	movb	$0, -201(%rbp)
	movq	%rax, -216(%rbp)
	movq	-216(%rbp), %rdi
Ltmp258:
	callq	__ZN3std2io5error14repr_bitpacked4Repr4data28_$u7b$$u7b$closure$u7d$$u7d$17h435b4102676c85f6E
Ltmp259:
	movq	%rax, -304(%rbp)
	jmp	LBB25_11
LBB25_11:
	.loc	27 0 31 is_stmt 0
	movq	-264(%rbp), %rax
	movq	-304(%rbp), %rcx
	.loc	27 276 13
	movq	%rcx, 8(%rax)
	movb	$3, (%rax)
Ltmp290:
LBB25_12:
	.loc	27 283 1 is_stmt 1
	testb	$1, -201(%rbp)
	jne	LBB25_21
	jmp	LBB25_20
LBB25_13:
	.loc	27 0 1 is_stmt 0
	movb	-281(%rbp), %al
Ltmp291:
	.loc	27 258 24 is_stmt 1
	movb	%al, -233(%rbp)
	.loc	27 258 65 is_stmt 0
	leaq	-248(%rbp), %rax
	movq	%rax, -232(%rbp)
Ltmp292:
	.loc	22 871 15 is_stmt 1
	movl	$1, %eax
	xorl	%ecx, %ecx
	cmpb	$41, -233(%rbp)
	cmoveq	%rcx, %rax
	.loc	22 871 9 is_stmt 0
	cmpq	$0, %rax
	jne	LBB25_15
	.loc	22 873 21 is_stmt 1
	movq	-232(%rbp), %rdi
Ltmp262:
	callq	__ZN3std2io5error14repr_bitpacked11decode_repr28_$u7b$$u7b$closure$u7d$$u7d$17hc541ef924c1e20f6E
Ltmp263:
	movb	%al, -305(%rbp)
	jmp	LBB25_17
LBB25_15:
	.loc	22 872 18
	movb	-233(%rbp), %al
	movb	%al, -5(%rbp)
Ltmp293:
	.loc	22 872 24 is_stmt 0
	movb	%al, -234(%rbp)
Ltmp294:
LBB25_16:
	.loc	22 0 24
	movq	-264(%rbp), %rax
Ltmp295:
	.loc	27 268 31 is_stmt 1
	movb	-234(%rbp), %cl
	.loc	27 268 13 is_stmt 0
	movb	%cl, 1(%rax)
	movb	$1, (%rax)
Ltmp296:
	.loc	27 269 9 is_stmt 1
	jmp	LBB25_12
LBB25_17:
	.loc	27 0 9 is_stmt 0
	movb	-305(%rbp), %al
Ltmp297:
	.loc	22 873 21 is_stmt 1
	movb	%al, -234(%rbp)
	.loc	22 873 23 is_stmt 0
	jmp	LBB25_16
Ltmp298:
LBB25_18:
	.loc	27 246 1 is_stmt 1
	movq	-136(%rbp), %rdi
	callq	__Unwind_Resume
LBB25_19:
	.loc	27 283 1
	jmp	LBB25_18
LBB25_20:
	.loc	27 0 1 is_stmt 0
	movq	-256(%rbp), %rax
	.loc	27 283 2
	addq	$320, %rsp
	popq	%rbp
	retq
LBB25_21:
	.loc	27 283 1
	jmp	LBB25_20
Ltmp299:
Lfunc_end25:
	.cfi_endproc
	.p2align	2, 0x90
	.data_region jt32
.set L25_0_set_5, LBB25_5-LJTI25_0
.set L25_0_set_6, LBB25_6-LJTI25_0
.set L25_0_set_3, LBB25_3-LJTI25_0
.set L25_0_set_4, LBB25_4-LJTI25_0
LJTI25_0:
	.long	L25_0_set_5
	.long	L25_0_set_6
	.long	L25_0_set_3
	.long	L25_0_set_4
	.end_data_region
	.section	__TEXT,__gcc_except_tab
	.p2align	2
GCC_except_table25:
Lexception3:
	.byte	255
	.byte	255
	.byte	1
	.uleb128 Lcst_end3-Lcst_begin3
Lcst_begin3:
	.uleb128 Ltmp264-Lfunc_begin25
	.uleb128 Ltmp263-Ltmp264
	.uleb128 Ltmp266-Lfunc_begin25
	.byte	0
	.uleb128 Ltmp263-Lfunc_begin25
	.uleb128 Lfunc_end25-Ltmp263
	.byte	0
	.byte	0
Lcst_end3:
	.p2align	2

	.section	__TEXT,__text,regular,pure_instructions
	.globl	__ZN3std2io5error14repr_bitpacked11decode_repr28_$u7b$$u7b$closure$u7d$$u7d$17h6b647efdd9955644E
	.p2align	4, 0x90
__ZN3std2io5error14repr_bitpacked11decode_repr28_$u7b$$u7b$closure$u7d$$u7d$17h6b647efdd9955644E:
Lfunc_begin26:
	.loc	27 258 0 is_stmt 1
	.cfi_startproc
	pushq	%rbp
	.cfi_def_cfa_offset 16
	.cfi_offset %rbp, -16
	movq	%rsp, %rbp
	.cfi_def_cfa_register %rbp
	subq	$16, %rsp
	movq	%rdi, -16(%rbp)
Ltmp300:
	.loc	27 266 17 prologue_end
	callq	__ZN4core4hint21unreachable_unchecked17h13515537dced3df8E
Ltmp301:
Lfunc_end26:
	.cfi_endproc

	.globl	__ZN3std2io5error14repr_bitpacked11decode_repr28_$u7b$$u7b$closure$u7d$$u7d$17hc541ef924c1e20f6E
	.p2align	4, 0x90
__ZN3std2io5error14repr_bitpacked11decode_repr28_$u7b$$u7b$closure$u7d$$u7d$17hc541ef924c1e20f6E:
Lfunc_begin27:
	.loc	27 258 0
	.cfi_startproc
	pushq	%rbp
	.cfi_def_cfa_offset 16
	.cfi_offset %rbp, -16
	movq	%rsp, %rbp
	.cfi_def_cfa_register %rbp
	subq	$16, %rsp
	movq	%rdi, -16(%rbp)
Ltmp302:
	.loc	27 266 17 prologue_end
	callq	__ZN4core4hint21unreachable_unchecked17h13515537dced3df8E
Ltmp303:
Lfunc_end27:
	.cfi_endproc

	.p2align	4, 0x90
__ZN3std2io5error14repr_bitpacked14kind_from_prim17h15114a4239709c50E:
Lfunc_begin28:
	.loc	27 289 0
	.cfi_startproc
	pushq	%rbp
	.cfi_def_cfa_offset 16
	.cfi_offset %rbp, -16
	movq	%rsp, %rbp
	.cfi_def_cfa_register %rbp
	subq	$336, %rsp
	movl	%edi, -336(%rbp)
Ltmp304:
	.loc	27 302 5 prologue_end
	leaq	-336(%rbp), %rax
	movq	%rax, -328(%rbp)
	cmpl	$0, -336(%rbp)
	je	LBB28_2
	leaq	-336(%rbp), %rax
	movq	%rax, -320(%rbp)
	cmpl	$1, -336(%rbp)
	je	LBB28_5
	jmp	LBB28_4
LBB28_2:
Ltmp305:
	.loc	27 302 5 is_stmt 0
	movb	$0, -329(%rbp)
Ltmp306:
LBB28_3:
	.loc	27 345 2 is_stmt 1
	movb	-329(%rbp), %al
	addq	$336, %rsp
	popq	%rbp
	retq
LBB28_4:
	.loc	27 302 5
	leaq	-336(%rbp), %rax
	movq	%rax, -312(%rbp)
	cmpl	$2, -336(%rbp)
	je	LBB28_7
	jmp	LBB28_6
LBB28_5:
Ltmp307:
	.loc	27 302 5 is_stmt 0
	movb	$1, -329(%rbp)
Ltmp308:
	.loc	27 302 5
	jmp	LBB28_3
LBB28_6:
	leaq	-336(%rbp), %rax
	movq	%rax, -304(%rbp)
	cmpl	$3, -336(%rbp)
	je	LBB28_9
	jmp	LBB28_8
LBB28_7:
Ltmp309:
	.loc	27 302 5
	movb	$2, -329(%rbp)
Ltmp310:
	.loc	27 302 5
	jmp	LBB28_3
LBB28_8:
	leaq	-336(%rbp), %rax
	movq	%rax, -296(%rbp)
	cmpl	$4, -336(%rbp)
	je	LBB28_11
	jmp	LBB28_10
LBB28_9:
Ltmp311:
	.loc	27 302 5
	movb	$3, -329(%rbp)
Ltmp312:
	.loc	27 302 5
	jmp	LBB28_3
LBB28_10:
	leaq	-336(%rbp), %rax
	movq	%rax, -288(%rbp)
	cmpl	$5, -336(%rbp)
	je	LBB28_13
	jmp	LBB28_12
LBB28_11:
Ltmp313:
	.loc	27 302 5
	movb	$4, -329(%rbp)
Ltmp314:
	.loc	27 302 5
	jmp	LBB28_3
LBB28_12:
	leaq	-336(%rbp), %rax
	movq	%rax, -280(%rbp)
	cmpl	$6, -336(%rbp)
	je	LBB28_15
	jmp	LBB28_14
LBB28_13:
Ltmp315:
	.loc	27 302 5
	movb	$5, -329(%rbp)
Ltmp316:
	.loc	27 302 5
	jmp	LBB28_3
LBB28_14:
	leaq	-336(%rbp), %rax
	movq	%rax, -272(%rbp)
	cmpl	$7, -336(%rbp)
	je	LBB28_17
	jmp	LBB28_16
LBB28_15:
Ltmp317:
	.loc	27 302 5
	movb	$6, -329(%rbp)
Ltmp318:
	.loc	27 302 5
	jmp	LBB28_3
LBB28_16:
	leaq	-336(%rbp), %rax
	movq	%rax, -264(%rbp)
	cmpl	$8, -336(%rbp)
	je	LBB28_19
	jmp	LBB28_18
LBB28_17:
Ltmp319:
	.loc	27 302 5
	movb	$7, -329(%rbp)
Ltmp320:
	.loc	27 302 5
	jmp	LBB28_3
LBB28_18:
	leaq	-336(%rbp), %rax
	movq	%rax, -256(%rbp)
	cmpl	$9, -336(%rbp)
	je	LBB28_21
	jmp	LBB28_20
LBB28_19:
Ltmp321:
	.loc	27 302 5
	movb	$8, -329(%rbp)
Ltmp322:
	.loc	27 302 5
	jmp	LBB28_3
LBB28_20:
	leaq	-336(%rbp), %rax
	movq	%rax, -248(%rbp)
	cmpl	$10, -336(%rbp)
	je	LBB28_23
	jmp	LBB28_22
LBB28_21:
Ltmp323:
	.loc	27 302 5
	movb	$9, -329(%rbp)
Ltmp324:
	.loc	27 302 5
	jmp	LBB28_3
LBB28_22:
	leaq	-336(%rbp), %rax
	movq	%rax, -240(%rbp)
	cmpl	$11, -336(%rbp)
	je	LBB28_25
	jmp	LBB28_24
LBB28_23:
Ltmp325:
	.loc	27 302 5
	movb	$10, -329(%rbp)
Ltmp326:
	.loc	27 302 5
	jmp	LBB28_3
LBB28_24:
	leaq	-336(%rbp), %rax
	movq	%rax, -232(%rbp)
	cmpl	$12, -336(%rbp)
	je	LBB28_27
	jmp	LBB28_26
LBB28_25:
Ltmp327:
	.loc	27 302 5
	movb	$11, -329(%rbp)
Ltmp328:
	.loc	27 302 5
	jmp	LBB28_3
LBB28_26:
	leaq	-336(%rbp), %rax
	movq	%rax, -224(%rbp)
	cmpl	$13, -336(%rbp)
	je	LBB28_29
	jmp	LBB28_28
LBB28_27:
Ltmp329:
	.loc	27 302 5
	movb	$12, -329(%rbp)
Ltmp330:
	.loc	27 302 5
	jmp	LBB28_3
LBB28_28:
	leaq	-336(%rbp), %rax
	movq	%rax, -216(%rbp)
	cmpl	$14, -336(%rbp)
	je	LBB28_31
	jmp	LBB28_30
LBB28_29:
Ltmp331:
	.loc	27 302 5
	movb	$13, -329(%rbp)
Ltmp332:
	.loc	27 302 5
	jmp	LBB28_3
LBB28_30:
	leaq	-336(%rbp), %rax
	movq	%rax, -208(%rbp)
	cmpl	$15, -336(%rbp)
	je	LBB28_33
	jmp	LBB28_32
LBB28_31:
Ltmp333:
	.loc	27 302 5
	movb	$14, -329(%rbp)
Ltmp334:
	.loc	27 302 5
	jmp	LBB28_3
LBB28_32:
	leaq	-336(%rbp), %rax
	movq	%rax, -200(%rbp)
	cmpl	$16, -336(%rbp)
	je	LBB28_35
	jmp	LBB28_34
LBB28_33:
Ltmp335:
	.loc	27 302 5
	movb	$15, -329(%rbp)
Ltmp336:
	.loc	27 302 5
	jmp	LBB28_3
LBB28_34:
	leaq	-336(%rbp), %rax
	movq	%rax, -192(%rbp)
	cmpl	$17, -336(%rbp)
	je	LBB28_37
	jmp	LBB28_36
LBB28_35:
Ltmp337:
	.loc	27 302 5
	movb	$16, -329(%rbp)
Ltmp338:
	.loc	27 302 5
	jmp	LBB28_3
LBB28_36:
	leaq	-336(%rbp), %rax
	movq	%rax, -184(%rbp)
	cmpl	$18, -336(%rbp)
	je	LBB28_39
	jmp	LBB28_38
LBB28_37:
Ltmp339:
	.loc	27 302 5
	movb	$17, -329(%rbp)
Ltmp340:
	.loc	27 302 5
	jmp	LBB28_3
LBB28_38:
	leaq	-336(%rbp), %rax
	movq	%rax, -176(%rbp)
	cmpl	$19, -336(%rbp)
	je	LBB28_41
	jmp	LBB28_40
LBB28_39:
Ltmp341:
	.loc	27 302 5
	movb	$18, -329(%rbp)
Ltmp342:
	.loc	27 302 5
	jmp	LBB28_3
LBB28_40:
	leaq	-336(%rbp), %rax
	movq	%rax, -168(%rbp)
	cmpl	$20, -336(%rbp)
	je	LBB28_43
	jmp	LBB28_42
LBB28_41:
Ltmp343:
	.loc	27 302 5
	movb	$19, -329(%rbp)
Ltmp344:
	.loc	27 302 5
	jmp	LBB28_3
LBB28_42:
	leaq	-336(%rbp), %rax
	movq	%rax, -160(%rbp)
	cmpl	$21, -336(%rbp)
	je	LBB28_45
	jmp	LBB28_44
LBB28_43:
Ltmp345:
	.loc	27 302 5
	movb	$20, -329(%rbp)
Ltmp346:
	.loc	27 302 5
	jmp	LBB28_3
LBB28_44:
	leaq	-336(%rbp), %rax
	movq	%rax, -152(%rbp)
	cmpl	$22, -336(%rbp)
	je	LBB28_47
	jmp	LBB28_46
LBB28_45:
Ltmp347:
	.loc	27 302 5
	movb	$21, -329(%rbp)
Ltmp348:
	.loc	27 302 5
	jmp	LBB28_3
LBB28_46:
	leaq	-336(%rbp), %rax
	movq	%rax, -144(%rbp)
	cmpl	$23, -336(%rbp)
	je	LBB28_49
	jmp	LBB28_48
LBB28_47:
Ltmp349:
	.loc	27 302 5
	movb	$22, -329(%rbp)
Ltmp350:
	.loc	27 302 5
	jmp	LBB28_3
LBB28_48:
	leaq	-336(%rbp), %rax
	movq	%rax, -136(%rbp)
	cmpl	$24, -336(%rbp)
	je	LBB28_51
	jmp	LBB28_50
LBB28_49:
Ltmp351:
	.loc	27 302 5
	movb	$23, -329(%rbp)
Ltmp352:
	.loc	27 302 5
	jmp	LBB28_3
LBB28_50:
	leaq	-336(%rbp), %rax
	movq	%rax, -128(%rbp)
	cmpl	$25, -336(%rbp)
	je	LBB28_53
	jmp	LBB28_52
LBB28_51:
Ltmp353:
	.loc	27 302 5
	movb	$24, -329(%rbp)
Ltmp354:
	.loc	27 302 5
	jmp	LBB28_3
LBB28_52:
	leaq	-336(%rbp), %rax
	movq	%rax, -120(%rbp)
	cmpl	$26, -336(%rbp)
	je	LBB28_55
	jmp	LBB28_54
LBB28_53:
Ltmp355:
	.loc	27 302 5
	movb	$25, -329(%rbp)
Ltmp356:
	.loc	27 302 5
	jmp	LBB28_3
LBB28_54:
	leaq	-336(%rbp), %rax
	movq	%rax, -112(%rbp)
	cmpl	$27, -336(%rbp)
	je	LBB28_57
	jmp	LBB28_56
LBB28_55:
Ltmp357:
	.loc	27 302 5
	movb	$26, -329(%rbp)
Ltmp358:
	.loc	27 302 5
	jmp	LBB28_3
LBB28_56:
	leaq	-336(%rbp), %rax
	movq	%rax, -104(%rbp)
	cmpl	$28, -336(%rbp)
	je	LBB28_59
	jmp	LBB28_58
LBB28_57:
Ltmp359:
	.loc	27 302 5
	movb	$27, -329(%rbp)
Ltmp360:
	.loc	27 302 5
	jmp	LBB28_3
LBB28_58:
	leaq	-336(%rbp), %rax
	movq	%rax, -96(%rbp)
	cmpl	$29, -336(%rbp)
	je	LBB28_61
	jmp	LBB28_60
LBB28_59:
Ltmp361:
	.loc	27 302 5
	movb	$28, -329(%rbp)
Ltmp362:
	.loc	27 302 5
	jmp	LBB28_3
LBB28_60:
	leaq	-336(%rbp), %rax
	movq	%rax, -88(%rbp)
	cmpl	$30, -336(%rbp)
	je	LBB28_63
	jmp	LBB28_62
LBB28_61:
Ltmp363:
	.loc	27 302 5
	movb	$29, -329(%rbp)
Ltmp364:
	.loc	27 302 5
	jmp	LBB28_3
LBB28_62:
	leaq	-336(%rbp), %rax
	movq	%rax, -80(%rbp)
	cmpl	$31, -336(%rbp)
	je	LBB28_65
	jmp	LBB28_64
LBB28_63:
Ltmp365:
	.loc	27 302 5
	movb	$30, -329(%rbp)
Ltmp366:
	.loc	27 302 5
	jmp	LBB28_3
LBB28_64:
	leaq	-336(%rbp), %rax
	movq	%rax, -72(%rbp)
	cmpl	$32, -336(%rbp)
	je	LBB28_67
	jmp	LBB28_66
LBB28_65:
Ltmp367:
	.loc	27 302 5
	movb	$31, -329(%rbp)
Ltmp368:
	.loc	27 302 5
	jmp	LBB28_3
LBB28_66:
	leaq	-336(%rbp), %rax
	movq	%rax, -64(%rbp)
	cmpl	$33, -336(%rbp)
	je	LBB28_69
	jmp	LBB28_68
LBB28_67:
Ltmp369:
	.loc	27 302 5
	movb	$32, -329(%rbp)
Ltmp370:
	.loc	27 302 5
	jmp	LBB28_3
LBB28_68:
	leaq	-336(%rbp), %rax
	movq	%rax, -56(%rbp)
	cmpl	$34, -336(%rbp)
	je	LBB28_71
	jmp	LBB28_70
LBB28_69:
Ltmp371:
	.loc	27 302 5
	movb	$33, -329(%rbp)
Ltmp372:
	.loc	27 302 5
	jmp	LBB28_3
LBB28_70:
	leaq	-336(%rbp), %rax
	movq	%rax, -48(%rbp)
	cmpl	$35, -336(%rbp)
	je	LBB28_73
	jmp	LBB28_72
LBB28_71:
Ltmp373:
	.loc	27 302 5
	movb	$34, -329(%rbp)
Ltmp374:
	.loc	27 302 5
	jmp	LBB28_3
LBB28_72:
	leaq	-336(%rbp), %rax
	movq	%rax, -40(%rbp)
	cmpl	$39, -336(%rbp)
	je	LBB28_75
	jmp	LBB28_74
LBB28_73:
Ltmp375:
	.loc	27 302 5
	movb	$35, -329(%rbp)
Ltmp376:
	.loc	27 302 5
	jmp	LBB28_3
LBB28_74:
	leaq	-336(%rbp), %rax
	movq	%rax, -32(%rbp)
	cmpl	$37, -336(%rbp)
	je	LBB28_77
	jmp	LBB28_76
LBB28_75:
Ltmp377:
	.loc	27 302 5
	movb	$39, -329(%rbp)
Ltmp378:
	.loc	27 302 5
	jmp	LBB28_3
LBB28_76:
	leaq	-336(%rbp), %rax
	movq	%rax, -24(%rbp)
	cmpl	$36, -336(%rbp)
	je	LBB28_79
	jmp	LBB28_78
LBB28_77:
Ltmp379:
	.loc	27 302 5
	movb	$37, -329(%rbp)
Ltmp380:
	.loc	27 302 5
	jmp	LBB28_3
LBB28_78:
	leaq	-336(%rbp), %rax
	movq	%rax, -16(%rbp)
	cmpl	$38, -336(%rbp)
	je	LBB28_81
	jmp	LBB28_80
LBB28_79:
Ltmp381:
	.loc	27 302 5
	movb	$36, -329(%rbp)
Ltmp382:
	.loc	27 302 5
	jmp	LBB28_3
LBB28_80:
	leaq	-336(%rbp), %rax
	movq	%rax, -8(%rbp)
	cmpl	$40, -336(%rbp)
	je	LBB28_83
	jmp	LBB28_82
LBB28_81:
Ltmp383:
	.loc	27 302 5
	movb	$38, -329(%rbp)
Ltmp384:
	.loc	27 302 5
	jmp	LBB28_3
LBB28_82:
	movb	$41, -329(%rbp)
	jmp	LBB28_3
LBB28_83:
Ltmp385:
	.loc	27 302 5
	movb	$40, -329(%rbp)
Ltmp386:
	.loc	27 302 5
	jmp	LBB28_3
Ltmp387:
Lfunc_end28:
	.cfi_endproc

	.globl	__ZN3std2io5error14repr_bitpacked4Repr4data28_$u7b$$u7b$closure$u7d$$u7d$17h435b4102676c85f6E
	.p2align	4, 0x90
__ZN3std2io5error14repr_bitpacked4Repr4data28_$u7b$$u7b$closure$u7d$$u7d$17h435b4102676c85f6E:
Lfunc_begin29:
	.loc	27 212 0 is_stmt 1
	.cfi_startproc
	pushq	%rbp
	.cfi_def_cfa_offset 16
	.cfi_offset %rbp, -16
	movq	%rsp, %rbp
	.cfi_def_cfa_register %rbp
	subq	$16, %rsp
	movq	%rdi, %rax
	movq	%rax, -8(%rbp)
Ltmp388:
	.loc	27 212 45 prologue_end
	addq	$16, %rsp
	popq	%rbp
	retq
Ltmp389:
Lfunc_end29:
	.cfi_endproc

	.p2align	4, 0x90
__ZN3std2io5error5Error4kind17hd483689af6d81aefE:
Lfunc_begin30:
	.loc	25 893 0
	.cfi_startproc
	pushq	%rbp
	.cfi_def_cfa_offset 16
	.cfi_offset %rbp, -16
	movq	%rsp, %rbp
	.cfi_def_cfa_register %rbp
	subq	$80, %rsp
	movq	%rdi, -40(%rbp)
Ltmp390:
	.loc	25 894 15 prologue_end
	movq	%rdi, -32(%rbp)
Ltmp391:
	.loc	27 212 30
	movq	(%rdi), %rsi
	leaq	-56(%rbp), %rdi
	.loc	27 212 18 is_stmt 0
	callq	__ZN3std2io5error14repr_bitpacked11decode_repr17h23c4fbde07d4be05E
Ltmp392:
	.loc	25 894 15 is_stmt 1
	movzbl	-56(%rbp), %eax
	movq	%rax, -72(%rbp)
	.loc	25 0 15 is_stmt 0
	movq	-72(%rbp), %rax
	leaq	LJTI30_0(%rip), %rcx
	movslq	(%rcx,%rax,4), %rax
	addq	%rcx, %rax
	jmpq	*%rax
	.loc	25 894 15
	ud2
LBB30_2:
	.loc	25 895 27 is_stmt 1
	movl	-52(%rbp), %edi
	movl	%edi, -4(%rbp)
Ltmp393:
	.loc	25 895 36 is_stmt 0
	callq	__ZN3std3sys4unix17decode_error_kind17h50ab8511eed7ed72E
	movb	%al, -57(%rbp)
Ltmp394:
	.loc	25 895 63
	jmp	LBB30_6
LBB30_3:
	.loc	25 897 31 is_stmt 1
	movb	-55(%rbp), %al
	movb	%al, -5(%rbp)
Ltmp395:
	.loc	25 897 40 is_stmt 0
	movb	%al, -57(%rbp)
Ltmp396:
	.loc	25 897 43
	jmp	LBB30_6
LBB30_4:
	.loc	25 898 38 is_stmt 1
	movq	-48(%rbp), %rax
	movq	%rax, -16(%rbp)
Ltmp397:
	.loc	25 898 44 is_stmt 0
	movb	16(%rax), %al
	movb	%al, -57(%rbp)
Ltmp398:
	.loc	25 898 49
	jmp	LBB30_6
LBB30_5:
	.loc	25 896 31 is_stmt 1
	movq	-48(%rbp), %rax
	movq	%rax, -24(%rbp)
Ltmp399:
	.loc	25 896 37 is_stmt 0
	movb	16(%rax), %al
	movb	%al, -57(%rbp)
Ltmp400:
LBB30_6:
	.loc	25 900 6 is_stmt 1
	movb	-57(%rbp), %al
	addq	$80, %rsp
	popq	%rbp
	retq
Ltmp401:
Lfunc_end30:
	.cfi_endproc
	.p2align	2, 0x90
	.data_region jt32
.set L30_0_set_2, LBB30_2-LJTI30_0
.set L30_0_set_3, LBB30_3-LJTI30_0
.set L30_0_set_4, LBB30_4-LJTI30_0
.set L30_0_set_5, LBB30_5-LJTI30_0
LJTI30_0:
	.long	L30_0_set_2
	.long	L30_0_set_3
	.long	L30_0_set_4
	.long	L30_0_set_5
	.end_data_region

	.p2align	4, 0x90
__ZN3std3sys4unix5locks15pthread_condvar7Condvar4wait17hbdbf5a2833d17391E:
Lfunc_begin31:
	.file	30 "/rustc/2c8cc343237b8f7d5a3c3703e3a87f2eb2c54a74/library/std/src/sys/unix/locks" "pthread_condvar.rs"
	.loc	30 110 0
	.cfi_startproc
	pushq	%rbp
	.cfi_def_cfa_offset 16
	.cfi_offset %rbp, -16
	movq	%rsp, %rbp
	.cfi_def_cfa_register %rbp
	subq	$112, %rsp
	movq	%rsi, -104(%rbp)
	movq	%rdi, %rax
	movq	-104(%rbp), %rdi
	movq	%rax, -96(%rbp)
	movq	%rax, -80(%rbp)
	movq	%rdi, -72(%rbp)
Ltmp402:
	.loc	30 111 40 prologue_end
	movq	%rdi, -64(%rbp)
Ltmp403:
	.file	31 "/rustc/2c8cc343237b8f7d5a3c3703e3a87f2eb2c54a74/library/std/src/sys/unix/locks" "pthread_mutex.rs"
	.loc	31 14 5
	movq	%rdi, -56(%rbp)
Ltmp404:
	.loc	14 72 20
	callq	__ZN3std10sys_common8lazy_box16LazyBox$LT$T$GT$11get_pointer17ha96fd7d6ba8ecb03E
	movq	-96(%rbp), %rdi
	movq	%rax, %rsi
	movq	%rsi, -88(%rbp)
Ltmp405:
	.loc	31 14 5
	movq	%rsi, -48(%rbp)
Ltmp406:
	.loc	20 1999 9
	movq	%rsi, -40(%rbp)
Ltmp407:
	.loc	30 112 9
	callq	__ZN3std3sys4unix5locks15pthread_condvar7Condvar6verify17h5b35ddf8cb72a476E
	movq	-96(%rbp), %rdi
	.loc	30 113 45
	movq	%rdi, -32(%rbp)
Ltmp408:
	.loc	30 18 5
	movq	%rdi, -24(%rbp)
Ltmp409:
	.loc	14 72 20
	callq	__ZN3std10sys_common8lazy_box16LazyBox$LT$T$GT$11get_pointer17h186712c9a104b644E
	movq	-88(%rbp), %rsi
	movq	%rax, %rdi
Ltmp410:
	.loc	30 18 5
	movq	%rdi, -16(%rbp)
Ltmp411:
	.loc	30 113 17
	callq	_pthread_cond_wait
	movl	%eax, -4(%rbp)
Ltmp412:
	.loc	30 115 6
	addq	$112, %rsp
	popq	%rbp
	retq
Ltmp413:
Lfunc_end31:
	.cfi_endproc

	.p2align	4, 0x90
__ZN3std3sys4unix5locks15pthread_condvar7Condvar6verify17h5b35ddf8cb72a476E:
Lfunc_begin32:
	.loc	30 87 0
	.cfi_startproc
	pushq	%rbp
	.cfi_def_cfa_offset 16
	.cfi_offset %rbp, -16
	movq	%rsp, %rbp
	.cfi_def_cfa_register %rbp
	subq	$176, %rsp
	movq	%rsi, %rdx
	movq	%rdx, -168(%rbp)
	movq	%rdi, -80(%rbp)
	movq	%rdx, -72(%rbp)
Ltmp414:
	.loc	30 90 15 prologue_end
	addq	$8, %rdi
	movq	%rdi, -56(%rbp)
Ltmp415:
	.loc	6 599 14
	movq	$0, -48(%rbp)
	movq	-48(%rbp), %rax
	movq	%rax, -40(%rbp)
Ltmp416:
	.loc	7 135 36
	movq	%rax, -88(%rbp)
	.loc	7 135 14 is_stmt 0
	movq	-88(%rbp), %rax
	movq	%rax, -96(%rbp)
	movq	-96(%rbp), %rsi
	movq	%rsi, -32(%rbp)
Ltmp417:
	.loc	30 90 60 is_stmt 1
	movq	%rdx, -24(%rbp)
Ltmp418:
	.loc	16 1355 42
	movq	%rdi, -16(%rbp)
	xorl	%r8d, %r8d
	.loc	16 1355 18 is_stmt 0
	movl	%r8d, %ecx
	callq	__ZN4core4sync6atomic23atomic_compare_exchange17h796c9bf9fbc5e022E
	movq	%rdx, -152(%rbp)
	movq	%rax, -160(%rbp)
Ltmp419:
	.loc	30 90 9 is_stmt 1
	cmpq	$0, -160(%rbp)
	jne	LBB32_2
LBB32_1:
	.loc	30 95 6
	addq	$176, %rsp
	popq	%rbp
	retq
LBB32_2:
	.loc	30 0 6 is_stmt 0
	movq	-168(%rbp), %rax
	.loc	30 92 17 is_stmt 1
	leaq	-160(%rbp), %rcx
	addq	$8, %rcx
	movq	%rcx, -8(%rbp)
	.loc	30 92 23 is_stmt 0
	cmpq	%rax, -152(%rbp)
	je	LBB32_4
	.loc	30 93 18 is_stmt 1
	leaq	l___unnamed_27(%rip), %rsi
	leaq	l___unnamed_28(%rip), %rcx
	xorl	%eax, %eax
	movl	%eax, %r8d
	leaq	-144(%rbp), %rdi
	movq	%rdi, -176(%rbp)
	movl	$1, %edx
	callq	__ZN4core3fmt9Arguments6new_v117ha0678a6c42b68c71E
	movq	-176(%rbp), %rdi
	leaq	l___unnamed_29(%rip), %rsi
	callq	__ZN4core9panicking9panic_fmt17h9b5d807e24bcaaedE
LBB32_4:
	.loc	30 92 38
	jmp	LBB32_1
Ltmp420:
Lfunc_end32:
	.cfi_endproc

	.globl	__ZN3std4sync4once4Once9call_once17h65bd0bd2fb793bd7E
	.p2align	4, 0x90
__ZN3std4sync4once4Once9call_once17h65bd0bd2fb793bd7E:
Lfunc_begin33:
	.file	32 "/rustc/2c8cc343237b8f7d5a3c3703e3a87f2eb2c54a74/library/std/src/sync" "once.rs"
	.loc	32 133 0
	.cfi_startproc
	.cfi_personality 155, _rust_eh_personality
	.cfi_lsda 16, Lexception4
	pushq	%rbp
	.cfi_def_cfa_offset 16
	.cfi_offset %rbp, -16
	movq	%rsp, %rbp
	.cfi_def_cfa_register %rbp
	subq	$176, %rsp
	movq	%rdi, -160(%rbp)
	movq	%rsi, -152(%rbp)
	movq	%rdx, -144(%rbp)
	movq	%rcx, -136(%rbp)
	movq	%rdi, -88(%rbp)
	movq	%rsi, -80(%rbp)
	movq	%rdx, -72(%rbp)
Ltmp427:
	.loc	32 138 9 prologue_end
	movb	$1, -89(%rbp)
	.loc	32 138 12 is_stmt 0
	movq	%rdi, -64(%rbp)
Ltmp428:
	.file	33 "/rustc/2c8cc343237b8f7d5a3c3703e3a87f2eb2c54a74/library/std/src/sys_common/once" "queue.rs"
	.loc	33 121 9 is_stmt 1
	movq	%rdi, -56(%rbp)
Ltmp429:
	.loc	16 1191 30
	movq	%rdi, -48(%rbp)
Ltmp421:
	movl	$2, %esi
	.loc	16 1191 18 is_stmt 0
	callq	__ZN4core4sync6atomic11atomic_load17h4ea0a37642e16d77E
Ltmp422:
	movq	%rax, -128(%rbp)
	jmp	LBB33_3
Ltmp430:
LBB33_1:
	.loc	32 144 5 is_stmt 1
	testb	$1, -89(%rbp)
	jne	LBB33_13
	jmp	LBB33_12
LBB33_2:
Ltmp423:
	.loc	32 0 5 is_stmt 0
	movq	%rax, %rcx
	movl	%edx, %eax
	movq	%rcx, -40(%rbp)
	movl	%eax, -32(%rbp)
	jmp	LBB33_1
LBB33_3:
	movq	-128(%rbp), %rax
Ltmp431:
	.loc	16 1191 18 is_stmt 1
	movq	%rax, -24(%rbp)
Ltmp432:
	.loc	8 215 33
	movq	%rax, -16(%rbp)
	.loc	8 215 18 is_stmt 0
	movq	%rax, -8(%rbp)
	movq	-8(%rbp), %rax
	movq	%rax, -168(%rbp)
Ltmp433:
	.loc	8 0 18
	movq	-168(%rbp), %rax
	.loc	33 121 9 is_stmt 1
	cmpq	$3, %rax
Ltmp434:
	.loc	32 138 12
	je	LBB33_6
	.loc	32 0 12 is_stmt 0
	movq	-136(%rbp), %r8
	movq	-160(%rbp), %rdi
	movq	-144(%rbp), %rax
	movq	-152(%rbp), %rcx
	.loc	32 142 26 is_stmt 1
	movb	$0, -89(%rbp)
	.loc	32 142 21 is_stmt 0
	movq	%rcx, -120(%rbp)
	movq	%rax, -112(%rbp)
	leaq	-120(%rbp), %rax
Ltmp435:
	.loc	32 143 37 is_stmt 1
	movq	%rax, -104(%rbp)
Ltmp424:
	.loc	32 143 9 is_stmt 0
	leaq	l___unnamed_2(%rip), %rcx
	xorl	%esi, %esi
	leaq	-104(%rbp), %rdx
	callq	__ZN3std10sys_common4once5queue4Once4call17had6073506788e952E
Ltmp425:
	jmp	LBB33_10
Ltmp436:
LBB33_6:
	.loc	32 144 5 is_stmt 1
	jmp	LBB33_7
LBB33_7:
	.loc	32 144 6 is_stmt 0
	addq	$176, %rsp
	popq	%rbp
	retq
LBB33_8:
	.loc	32 144 5
	jmp	LBB33_1
LBB33_9:
Ltmp426:
	.loc	32 0 5
	movq	%rax, %rcx
	movl	%edx, %eax
	movq	%rcx, -40(%rbp)
	movl	%eax, -32(%rbp)
	jmp	LBB33_8
LBB33_10:
	.loc	32 144 5
	jmp	LBB33_11
LBB33_11:
	jmp	LBB33_7
LBB33_12:
	.loc	32 133 5 is_stmt 1
	movq	-40(%rbp), %rdi
	callq	__Unwind_Resume
LBB33_13:
	.loc	32 144 5
	jmp	LBB33_12
Ltmp437:
Lfunc_end33:
	.cfi_endproc
	.section	__TEXT,__gcc_except_tab
	.p2align	2
GCC_except_table33:
Lexception4:
	.byte	255
	.byte	255
	.byte	1
	.uleb128 Lcst_end4-Lcst_begin4
Lcst_begin4:
	.uleb128 Ltmp421-Lfunc_begin33
	.uleb128 Ltmp422-Ltmp421
	.uleb128 Ltmp423-Lfunc_begin33
	.byte	0
	.uleb128 Ltmp424-Lfunc_begin33
	.uleb128 Ltmp425-Ltmp424
	.uleb128 Ltmp426-Lfunc_begin33
	.byte	0
	.uleb128 Ltmp425-Lfunc_begin33
	.uleb128 Lfunc_end33-Ltmp425
	.byte	0
	.byte	0
Lcst_end4:
	.p2align	2

	.section	__TEXT,__text,regular,pure_instructions
	.globl	__ZN3std4sync4once4Once9call_once28_$u7b$$u7b$closure$u7d$$u7d$17hbf4ba59b7dfc616aE
	.p2align	4, 0x90
__ZN3std4sync4once4Once9call_once28_$u7b$$u7b$closure$u7d$$u7d$17hbf4ba59b7dfc616aE:
Lfunc_begin34:
	.loc	32 143 0
	.cfi_startproc
	pushq	%rbp
	.cfi_def_cfa_offset 16
	.cfi_offset %rbp, -16
	movq	%rsp, %rbp
	.cfi_def_cfa_register %rbp
	subq	$80, %rsp
	movq	%rdi, -40(%rbp)
	movq	%rsi, -32(%rbp)
Ltmp438:
	.loc	32 143 41 prologue_end
	movq	(%rdi), %rdi
	movq	%rdi, -24(%rbp)
Ltmp439:
	.loc	22 1623 28
	movq	$0, -56(%rbp)
	.loc	22 1623 9 is_stmt 0
	movq	-56(%rbp), %rsi
	movq	-48(%rbp), %rdx
	callq	__ZN4core3mem7replace17hd4fa7892995bdeafE
	movq	%rdx, -64(%rbp)
	movq	%rax, -72(%rbp)
Ltmp440:
	.loc	22 821 15 is_stmt 1
	movq	-72(%rbp), %rdx
	movl	$1, %eax
	xorl	%ecx, %ecx
	cmpq	$0, %rdx
	cmoveq	%rcx, %rax
	.loc	22 821 9 is_stmt 0
	cmpq	$0, %rax
	jne	LBB34_2
	.loc	22 823 21 is_stmt 1
	leaq	l___unnamed_30(%rip), %rdi
	leaq	l___unnamed_31(%rip), %rdx
	movl	$43, %esi
	callq	__ZN4core9panicking5panic17hc1bc45270cf64b03E
LBB34_2:
	.loc	22 822 18
	movq	-72(%rbp), %rdi
	movq	-64(%rbp), %rsi
	movq	%rdi, -16(%rbp)
	movq	%rsi, -8(%rbp)
Ltmp441:
	.loc	32 143 41
	callq	__ZN15crossbeam_utils4sync9once_lock17OnceLock$LT$T$GT$10initialize28_$u7b$$u7b$closure$u7d$$u7d$17hcd37a3bc81115ca4E
	.loc	32 143 60 is_stmt 0
	addq	$80, %rsp
	popq	%rbp
	retq
Ltmp442:
Lfunc_end34:
	.cfi_endproc

	.globl	__ZN3std4sync5mutex10guard_lock17h4dce563753e41159E
	.p2align	4, 0x90
__ZN3std4sync5mutex10guard_lock17h4dce563753e41159E:
Lfunc_begin35:
	.file	34 "/rustc/2c8cc343237b8f7d5a3c3703e3a87f2eb2c54a74/library/std/src/sync" "mutex.rs"
	.loc	34 544 0 is_stmt 1
	.cfi_startproc
	pushq	%rbp
	.cfi_def_cfa_offset 16
	.cfi_offset %rbp, -16
	movq	%rsp, %rbp
	.cfi_def_cfa_register %rbp
	pushq	%rax
	movq	%rdi, -8(%rbp)
Ltmp443:
	.loc	34 545 5 prologue_end
	movq	(%rdi), %rax
	.loc	34 546 2
	addq	$8, %rsp
	popq	%rbp
	retq
Ltmp444:
Lfunc_end35:
	.cfi_endproc

	.globl	__ZN3std4sync5mutex10guard_lock17hed00afda650b31b7E
	.p2align	4, 0x90
__ZN3std4sync5mutex10guard_lock17hed00afda650b31b7E:
Lfunc_begin36:
	.loc	34 544 0
	.cfi_startproc
	pushq	%rbp
	.cfi_def_cfa_offset 16
	.cfi_offset %rbp, -16
	movq	%rsp, %rbp
	.cfi_def_cfa_register %rbp
	pushq	%rax
	movq	%rdi, -8(%rbp)
Ltmp445:
	.loc	34 545 5 prologue_end
	movq	(%rdi), %rax
	.loc	34 546 2
	addq	$8, %rsp
	popq	%rbp
	retq
Ltmp446:
Lfunc_end36:
	.cfi_endproc

	.globl	__ZN3std4sync5mutex12guard_poison17hbc77d9b9fe792f3dE
	.p2align	4, 0x90
__ZN3std4sync5mutex12guard_poison17hbc77d9b9fe792f3dE:
Lfunc_begin37:
	.loc	34 548 0
	.cfi_startproc
	pushq	%rbp
	.cfi_def_cfa_offset 16
	.cfi_offset %rbp, -16
	movq	%rsp, %rbp
	.cfi_def_cfa_register %rbp
	pushq	%rax
	movq	%rdi, -8(%rbp)
Ltmp447:
	.loc	34 549 5 prologue_end
	movq	(%rdi), %rax
	addq	$8, %rax
	.loc	34 550 2
	addq	$8, %rsp
	popq	%rbp
	retq
Ltmp448:
Lfunc_end37:
	.cfi_endproc

	.globl	__ZN3std4sync5mutex12guard_poison17hc7ca44a3ad57f94dE
	.p2align	4, 0x90
__ZN3std4sync5mutex12guard_poison17hc7ca44a3ad57f94dE:
Lfunc_begin38:
	.loc	34 548 0
	.cfi_startproc
	pushq	%rbp
	.cfi_def_cfa_offset 16
	.cfi_offset %rbp, -16
	movq	%rsp, %rbp
	.cfi_def_cfa_register %rbp
	pushq	%rax
	movq	%rdi, -8(%rbp)
Ltmp449:
	.loc	34 549 5 prologue_end
	movq	(%rdi), %rax
	addq	$8, %rax
	.loc	34 550 2
	addq	$8, %rsp
	popq	%rbp
	retq
Ltmp450:
Lfunc_end38:
	.cfi_endproc

	.globl	__ZN3std4sync5mutex14Mutex$LT$T$GT$3new17h70778656821687d6E
	.p2align	4, 0x90
__ZN3std4sync5mutex14Mutex$LT$T$GT$3new17h70778656821687d6E:
Lfunc_begin39:
	.loc	34 219 0
	.cfi_startproc
	pushq	%rbp
	.cfi_def_cfa_offset 16
	.cfi_offset %rbp, -16
	movq	%rsp, %rbp
	.cfi_def_cfa_register %rbp
	subq	$400, %rsp
	movq	%rsi, -392(%rbp)
Ltmp451:
	movq	%rdi, -384(%rbp)
	movq	%rdi, -376(%rbp)
Ltmp452:
	.loc	6 599 14 prologue_end
	movq	$0, -48(%rbp)
	movq	-48(%rbp), %rax
	movq	%rax, -368(%rbp)
	movq	%rax, -40(%rbp)
Ltmp453:
	.loc	6 0 14 is_stmt 0
	movq	-392(%rbp), %rsi
	movq	-368(%rbp), %rax
Ltmp454:
	.loc	7 135 36 is_stmt 1
	movq	%rax, -160(%rbp)
	.loc	7 135 14 is_stmt 0
	movq	-160(%rbp), %rax
	movq	%rax, -168(%rbp)
	movq	-168(%rbp), %rax
	movq	%rax, -16(%rbp)
Ltmp455:
	.loc	16 1017 40 is_stmt 1
	movq	%rax, -8(%rbp)
Ltmp456:
	.loc	20 1953 9
	movq	%rax, -152(%rbp)
Ltmp457:
	.loc	16 1017 9
	movq	-152(%rbp), %rax
	movq	%rax, -176(%rbp)
Ltmp458:
	.loc	14 44 9
	movq	-176(%rbp), %rax
	movq	%rax, -184(%rbp)
Ltmp459:
	.loc	31 101 9
	movq	-184(%rbp), %rax
	movq	%rax, -360(%rbp)
Ltmp460:
	.loc	16 305 9
	movb	$0, -144(%rbp)
Ltmp461:
	.file	35 "/rustc/2c8cc343237b8f7d5a3c3703e3a87f2eb2c54a74/library/std/src/sync" "poison.rs"
	.loc	35 24 9
	movb	-144(%rbp), %al
	movb	%al, -352(%rbp)
Ltmp462:
	.loc	34 220 94
	leaq	-264(%rbp), %rdi
	movl	$80, %edx
	callq	_memcpy
Ltmp463:
	.loc	20 1953 22
	leaq	-136(%rbp), %rdi
	leaq	-264(%rbp), %rsi
	movl	$80, %edx
	callq	_memcpy
	.loc	20 1953 9 is_stmt 0
	leaq	-344(%rbp), %rdi
	leaq	-136(%rbp), %rsi
	movl	$80, %edx
	callq	_memcpy
	movq	-384(%rbp), %rdi
Ltmp464:
	.loc	34 220 9 is_stmt 1
	movq	-360(%rbp), %rax
	movq	%rax, (%rdi)
	movb	-352(%rbp), %al
	movb	%al, 8(%rdi)
	addq	$16, %rdi
	leaq	-344(%rbp), %rsi
	movl	$80, %edx
	callq	_memcpy
	movq	-376(%rbp), %rax
	.loc	34 221 6
	addq	$400, %rsp
	popq	%rbp
	retq
Ltmp465:
Lfunc_end39:
	.cfi_endproc

	.globl	__ZN3std4sync5mutex14Mutex$LT$T$GT$3new17h9cb9d0899fcf396dE
	.p2align	4, 0x90
__ZN3std4sync5mutex14Mutex$LT$T$GT$3new17h9cb9d0899fcf396dE:
Lfunc_begin40:
	.loc	34 219 0
	.cfi_startproc
	pushq	%rbp
	.cfi_def_cfa_offset 16
	.cfi_offset %rbp, -16
	movq	%rsp, %rbp
	.cfi_def_cfa_register %rbp
	subq	$176, %rsp
	movq	%rsi, -176(%rbp)
	movq	%rdi, -168(%rbp)
	movq	%rdi, -160(%rbp)
	movq	%rsi, -72(%rbp)
Ltmp466:
	.loc	6 599 14 prologue_end
	movq	$0, -56(%rbp)
	movq	-56(%rbp), %rax
	movq	%rax, -152(%rbp)
	movq	%rax, -48(%rbp)
Ltmp467:
	.loc	6 0 14 is_stmt 0
	movq	-160(%rbp), %rax
	movq	-168(%rbp), %rcx
	movq	-176(%rbp), %rdx
	movq	-152(%rbp), %rsi
Ltmp468:
	.loc	7 135 36 is_stmt 1
	movq	%rsi, -96(%rbp)
	.loc	7 135 14 is_stmt 0
	movq	-96(%rbp), %rsi
	movq	%rsi, -104(%rbp)
	movq	-104(%rbp), %rsi
	movq	%rsi, -24(%rbp)
Ltmp469:
	.loc	16 1017 40 is_stmt 1
	movq	%rsi, -16(%rbp)
Ltmp470:
	.loc	20 1953 9
	movq	%rsi, -88(%rbp)
Ltmp471:
	.loc	16 1017 9
	movq	-88(%rbp), %rsi
	movq	%rsi, -112(%rbp)
Ltmp472:
	.loc	14 44 9
	movq	-112(%rbp), %rsi
	movq	%rsi, -120(%rbp)
Ltmp473:
	.loc	31 101 9
	movq	-120(%rbp), %rsi
	movq	%rsi, -144(%rbp)
Ltmp474:
	.loc	16 305 9
	movb	$0, -80(%rbp)
Ltmp475:
	.loc	35 24 9
	movb	-80(%rbp), %sil
	movb	%sil, -136(%rbp)
Ltmp476:
	.loc	34 220 94
	movq	%rdx, -8(%rbp)
Ltmp477:
	.loc	20 1953 9
	movq	%rdx, -128(%rbp)
Ltmp478:
	.loc	34 220 9
	movq	-144(%rbp), %rdx
	movq	%rdx, (%rcx)
	movb	-136(%rbp), %dl
	movb	%dl, 8(%rcx)
	movq	-128(%rbp), %rdx
	movq	%rdx, 16(%rcx)
	.loc	34 221 6
	addq	$176, %rsp
	popq	%rbp
	retq
Ltmp479:
Lfunc_end40:
	.cfi_endproc

	.globl	__ZN3std4sync5mutex14Mutex$LT$T$GT$3new17hdd1b5901a95faabbE
	.p2align	4, 0x90
__ZN3std4sync5mutex14Mutex$LT$T$GT$3new17hdd1b5901a95faabbE:
Lfunc_begin41:
	.loc	34 219 0
	.cfi_startproc
	pushq	%rbp
	.cfi_def_cfa_offset 16
	.cfi_offset %rbp, -16
	movq	%rsp, %rbp
	.cfi_def_cfa_register %rbp
	subq	$168, %rsp
	movq	%rdi, -168(%rbp)
	movq	%rdi, -160(%rbp)
Ltmp480:
	.loc	6 599 14 prologue_end
	movq	$0, -48(%rbp)
	movq	-48(%rbp), %rax
	movq	%rax, -152(%rbp)
	movq	%rax, -40(%rbp)
Ltmp481:
	.loc	6 0 14 is_stmt 0
	movq	-160(%rbp), %rax
	movq	-168(%rbp), %rcx
	movq	-152(%rbp), %rdx
Ltmp482:
	.loc	7 135 36 is_stmt 1
	movq	%rdx, -96(%rbp)
	.loc	7 135 14 is_stmt 0
	movq	-96(%rbp), %rdx
	movq	%rdx, -104(%rbp)
	movq	-104(%rbp), %rdx
	movq	%rdx, -16(%rbp)
Ltmp483:
	.loc	16 1017 40 is_stmt 1
	movq	%rdx, -8(%rbp)
Ltmp484:
	.loc	20 1953 9
	movq	%rdx, -88(%rbp)
Ltmp485:
	.loc	16 1017 9
	movq	-88(%rbp), %rdx
	movq	%rdx, -112(%rbp)
Ltmp486:
	.loc	14 44 9
	movq	-112(%rbp), %rdx
	movq	%rdx, -120(%rbp)
Ltmp487:
	.loc	31 101 9
	movq	-120(%rbp), %rdx
	movq	%rdx, -144(%rbp)
Ltmp488:
	.loc	16 305 9
	movb	$0, -80(%rbp)
Ltmp489:
	.loc	35 24 9
	movb	-80(%rbp), %dl
	movb	%dl, -136(%rbp)
Ltmp490:
	.loc	34 220 9
	movq	-144(%rbp), %rdx
	movq	%rdx, (%rcx)
	movb	-136(%rbp), %dl
	movb	%dl, 8(%rcx)
	.loc	34 221 6
	addq	$168, %rsp
	popq	%rbp
	retq
Ltmp491:
Lfunc_end41:
	.cfi_endproc

	.globl	__ZN3std4sync5mutex14Mutex$LT$T$GT$4lock17h13d096f81cad9a6cE
	.p2align	4, 0x90
__ZN3std4sync5mutex14Mutex$LT$T$GT$4lock17h13d096f81cad9a6cE:
Lfunc_begin42:
	.loc	34 261 0
	.cfi_startproc
	pushq	%rbp
	.cfi_def_cfa_offset 16
	.cfi_offset %rbp, -16
	movq	%rsp, %rbp
	.cfi_def_cfa_register %rbp
	subq	$80, %rsp
	movq	%rsi, -64(%rbp)
	movq	%rdi, %rax
	movq	-64(%rbp), %rdi
	movq	%rax, -72(%rbp)
	movq	%rax, -56(%rbp)
	movq	%rdi, -48(%rbp)
Ltmp492:
	.loc	34 263 13 prologue_end
	movq	%rdi, -40(%rbp)
Ltmp493:
	.loc	31 106 46
	movq	%rdi, -32(%rbp)
Ltmp494:
	.loc	31 14 5
	movq	%rdi, -24(%rbp)
Ltmp495:
	.loc	14 72 20
	callq	__ZN3std10sys_common8lazy_box16LazyBox$LT$T$GT$11get_pointer17ha96fd7d6ba8ecb03E
	movq	%rax, %rdi
Ltmp496:
	.loc	31 14 5
	movq	%rdi, -16(%rbp)
Ltmp497:
	.loc	31 106 17
	callq	_pthread_mutex_lock
	movq	-72(%rbp), %rdi
	movq	-64(%rbp), %rsi
	movl	%eax, -4(%rbp)
Ltmp498:
	.loc	34 264 13
	callq	__ZN3std4sync5mutex19MutexGuard$LT$T$GT$3new17hdbdf480f62850f16E
	movq	-56(%rbp), %rax
	.loc	34 266 6
	addq	$80, %rsp
	popq	%rbp
	retq
Ltmp499:
Lfunc_end42:
	.cfi_endproc

	.globl	__ZN3std4sync5mutex14Mutex$LT$T$GT$4lock17h2c0ce8e2ab7e8ce4E
	.p2align	4, 0x90
__ZN3std4sync5mutex14Mutex$LT$T$GT$4lock17h2c0ce8e2ab7e8ce4E:
Lfunc_begin43:
	.loc	34 261 0
	.cfi_startproc
	pushq	%rbp
	.cfi_def_cfa_offset 16
	.cfi_offset %rbp, -16
	movq	%rsp, %rbp
	.cfi_def_cfa_register %rbp
	subq	$80, %rsp
	movq	%rsi, -64(%rbp)
	movq	%rdi, %rax
	movq	-64(%rbp), %rdi
	movq	%rax, -72(%rbp)
	movq	%rax, -56(%rbp)
	movq	%rdi, -48(%rbp)
Ltmp500:
	.loc	34 263 13 prologue_end
	movq	%rdi, -40(%rbp)
Ltmp501:
	.loc	31 106 46
	movq	%rdi, -32(%rbp)
Ltmp502:
	.loc	31 14 5
	movq	%rdi, -24(%rbp)
Ltmp503:
	.loc	14 72 20
	callq	__ZN3std10sys_common8lazy_box16LazyBox$LT$T$GT$11get_pointer17ha96fd7d6ba8ecb03E
	movq	%rax, %rdi
Ltmp504:
	.loc	31 14 5
	movq	%rdi, -16(%rbp)
Ltmp505:
	.loc	31 106 17
	callq	_pthread_mutex_lock
	movq	-72(%rbp), %rdi
	movq	-64(%rbp), %rsi
	movl	%eax, -4(%rbp)
Ltmp506:
	.loc	34 264 13
	callq	__ZN3std4sync5mutex19MutexGuard$LT$T$GT$3new17h3f748e5a24fa0813E
	movq	-56(%rbp), %rax
	.loc	34 266 6
	addq	$80, %rsp
	popq	%rbp
	retq
Ltmp507:
Lfunc_end43:
	.cfi_endproc

	.globl	__ZN3std4sync5mutex14Mutex$LT$T$GT$4lock17h776219f6b5be3f52E
	.p2align	4, 0x90
__ZN3std4sync5mutex14Mutex$LT$T$GT$4lock17h776219f6b5be3f52E:
Lfunc_begin44:
	.loc	34 261 0
	.cfi_startproc
	pushq	%rbp
	.cfi_def_cfa_offset 16
	.cfi_offset %rbp, -16
	movq	%rsp, %rbp
	.cfi_def_cfa_register %rbp
	subq	$80, %rsp
	movq	%rsi, -64(%rbp)
	movq	%rdi, %rax
	movq	-64(%rbp), %rdi
	movq	%rax, -72(%rbp)
	movq	%rax, -56(%rbp)
	movq	%rdi, -48(%rbp)
Ltmp508:
	.loc	34 263 13 prologue_end
	movq	%rdi, -40(%rbp)
Ltmp509:
	.loc	31 106 46
	movq	%rdi, -32(%rbp)
Ltmp510:
	.loc	31 14 5
	movq	%rdi, -24(%rbp)
Ltmp511:
	.loc	14 72 20
	callq	__ZN3std10sys_common8lazy_box16LazyBox$LT$T$GT$11get_pointer17ha96fd7d6ba8ecb03E
	movq	%rax, %rdi
Ltmp512:
	.loc	31 14 5
	movq	%rdi, -16(%rbp)
Ltmp513:
	.loc	31 106 17
	callq	_pthread_mutex_lock
	movq	-72(%rbp), %rdi
	movq	-64(%rbp), %rsi
	movl	%eax, -4(%rbp)
Ltmp514:
	.loc	34 264 13
	callq	__ZN3std4sync5mutex19MutexGuard$LT$T$GT$3new17ha278ca48266d044fE
	movq	-56(%rbp), %rax
	.loc	34 266 6
	addq	$80, %rsp
	popq	%rbp
	retq
Ltmp515:
Lfunc_end44:
	.cfi_endproc

	.globl	__ZN3std4sync5mutex19MutexGuard$LT$T$GT$3new17h3f748e5a24fa0813E
	.p2align	4, 0x90
__ZN3std4sync5mutex19MutexGuard$LT$T$GT$3new17h3f748e5a24fa0813E:
Lfunc_begin45:
	.loc	34 498 0
	.cfi_startproc
	pushq	%rbp
	.cfi_def_cfa_offset 16
	.cfi_offset %rbp, -16
	movq	%rsp, %rbp
	.cfi_def_cfa_register %rbp
	subq	$48, %rsp
	movq	%rsi, -40(%rbp)
	movq	%rdi, %rax
	movq	-40(%rbp), %rdi
	movq	%rax, -32(%rbp)
	movq	%rax, -24(%rbp)
	movq	%rdi, -8(%rbp)
Ltmp516:
	.loc	34 499 28 prologue_end
	addq	$8, %rdi
	callq	__ZN3std4sync6poison4Flag5guard17hfa4427c1f7930634E
	movq	-40(%rbp), %rsi
	movq	-32(%rbp), %rdi
	.loc	34 499 49 is_stmt 0
	movq	%rsi, -16(%rbp)
	.loc	34 499 9
	movq	-16(%rbp), %rcx
	andb	$1, %al
	movzbl	%al, %esi
	movzbl	%dl, %edx
	callq	__ZN3std4sync6poison10map_result17h49cbf7c25af44133E
	movq	-24(%rbp), %rax
	.loc	34 500 6 is_stmt 1
	addq	$48, %rsp
	popq	%rbp
	retq
Ltmp517:
Lfunc_end45:
	.cfi_endproc

	.globl	__ZN3std4sync5mutex19MutexGuard$LT$T$GT$3new17ha278ca48266d044fE
	.p2align	4, 0x90
__ZN3std4sync5mutex19MutexGuard$LT$T$GT$3new17ha278ca48266d044fE:
Lfunc_begin46:
	.loc	34 498 0
	.cfi_startproc
	pushq	%rbp
	.cfi_def_cfa_offset 16
	.cfi_offset %rbp, -16
	movq	%rsp, %rbp
	.cfi_def_cfa_register %rbp
	subq	$48, %rsp
	movq	%rsi, -40(%rbp)
	movq	%rdi, %rax
	movq	-40(%rbp), %rdi
	movq	%rax, -32(%rbp)
	movq	%rax, -24(%rbp)
	movq	%rdi, -8(%rbp)
Ltmp518:
	.loc	34 499 28 prologue_end
	addq	$8, %rdi
	callq	__ZN3std4sync6poison4Flag5guard17hfa4427c1f7930634E
	movq	-40(%rbp), %rsi
	movq	-32(%rbp), %rdi
	.loc	34 499 49 is_stmt 0
	movq	%rsi, -16(%rbp)
	.loc	34 499 9
	movq	-16(%rbp), %rcx
	andb	$1, %al
	movzbl	%al, %esi
	movzbl	%dl, %edx
	callq	__ZN3std4sync6poison10map_result17h40ba85d69f0dea03E
	movq	-24(%rbp), %rax
	.loc	34 500 6 is_stmt 1
	addq	$48, %rsp
	popq	%rbp
	retq
Ltmp519:
Lfunc_end46:
	.cfi_endproc

	.globl	__ZN3std4sync5mutex19MutexGuard$LT$T$GT$3new17hdbdf480f62850f16E
	.p2align	4, 0x90
__ZN3std4sync5mutex19MutexGuard$LT$T$GT$3new17hdbdf480f62850f16E:
Lfunc_begin47:
	.loc	34 498 0
	.cfi_startproc
	pushq	%rbp
	.cfi_def_cfa_offset 16
	.cfi_offset %rbp, -16
	movq	%rsp, %rbp
	.cfi_def_cfa_register %rbp
	subq	$48, %rsp
	movq	%rsi, -40(%rbp)
	movq	%rdi, %rax
	movq	-40(%rbp), %rdi
	movq	%rax, -32(%rbp)
	movq	%rax, -24(%rbp)
	movq	%rdi, -8(%rbp)
Ltmp520:
	.loc	34 499 28 prologue_end
	addq	$8, %rdi
	callq	__ZN3std4sync6poison4Flag5guard17hfa4427c1f7930634E
	movq	-40(%rbp), %rsi
	movq	-32(%rbp), %rdi
	.loc	34 499 49 is_stmt 0
	movq	%rsi, -16(%rbp)
	.loc	34 499 9
	movq	-16(%rbp), %rcx
	andb	$1, %al
	movzbl	%al, %esi
	movzbl	%dl, %edx
	callq	__ZN3std4sync6poison10map_result17hfcbb1316ea8792fbE
	movq	-24(%rbp), %rax
	.loc	34 500 6 is_stmt 1
	addq	$48, %rsp
	popq	%rbp
	retq
Ltmp521:
Lfunc_end47:
	.cfi_endproc

	.globl	__ZN3std4sync5mutex19MutexGuard$LT$T$GT$3new28_$u7b$$u7b$closure$u7d$$u7d$17h3bbb6269ce643891E
	.p2align	4, 0x90
__ZN3std4sync5mutex19MutexGuard$LT$T$GT$3new28_$u7b$$u7b$closure$u7d$$u7d$17h3bbb6269ce643891E:
Lfunc_begin48:
	.loc	34 499 0
	.cfi_startproc
	pushq	%rbp
	.cfi_def_cfa_offset 16
	.cfi_offset %rbp, -16
	movq	%rsp, %rbp
	.cfi_def_cfa_register %rbp
	subq	$32, %rsp
	movb	%sil, %al
	movq	%rdi, -32(%rbp)
	andb	$1, %al
	movb	%al, -1(%rbp)
Ltmp522:
	.loc	34 499 70 prologue_end
	movq	-32(%rbp), %rcx
	.loc	34 499 57 is_stmt 0
	movq	%rcx, -24(%rbp)
	movb	%al, -16(%rbp)
	.loc	34 499 91
	movq	-24(%rbp), %rax
	movb	-16(%rbp), %dl
	addq	$32, %rsp
	popq	%rbp
	retq
Ltmp523:
Lfunc_end48:
	.cfi_endproc

	.globl	__ZN3std4sync5mutex19MutexGuard$LT$T$GT$3new28_$u7b$$u7b$closure$u7d$$u7d$17h907bbb38e229cc49E
	.p2align	4, 0x90
__ZN3std4sync5mutex19MutexGuard$LT$T$GT$3new28_$u7b$$u7b$closure$u7d$$u7d$17h907bbb38e229cc49E:
Lfunc_begin49:
	.loc	34 499 0 is_stmt 1
	.cfi_startproc
	pushq	%rbp
	.cfi_def_cfa_offset 16
	.cfi_offset %rbp, -16
	movq	%rsp, %rbp
	.cfi_def_cfa_register %rbp
	subq	$32, %rsp
	movb	%sil, %al
	movq	%rdi, -32(%rbp)
	andb	$1, %al
	movb	%al, -1(%rbp)
Ltmp524:
	.loc	34 499 70 prologue_end
	movq	-32(%rbp), %rcx
	.loc	34 499 57 is_stmt 0
	movq	%rcx, -24(%rbp)
	movb	%al, -16(%rbp)
	.loc	34 499 91
	movq	-24(%rbp), %rax
	movb	-16(%rbp), %dl
	addq	$32, %rsp
	popq	%rbp
	retq
Ltmp525:
Lfunc_end49:
	.cfi_endproc

	.globl	__ZN3std4sync5mutex19MutexGuard$LT$T$GT$3new28_$u7b$$u7b$closure$u7d$$u7d$17ha58fdf26466d78a0E
	.p2align	4, 0x90
__ZN3std4sync5mutex19MutexGuard$LT$T$GT$3new28_$u7b$$u7b$closure$u7d$$u7d$17ha58fdf26466d78a0E:
Lfunc_begin50:
	.loc	34 499 0 is_stmt 1
	.cfi_startproc
	pushq	%rbp
	.cfi_def_cfa_offset 16
	.cfi_offset %rbp, -16
	movq	%rsp, %rbp
	.cfi_def_cfa_register %rbp
	subq	$32, %rsp
	movb	%sil, %al
	movq	%rdi, -32(%rbp)
	andb	$1, %al
	movb	%al, -1(%rbp)
Ltmp526:
	.loc	34 499 70 prologue_end
	movq	-32(%rbp), %rcx
	.loc	34 499 57 is_stmt 0
	movq	%rcx, -24(%rbp)
	movb	%al, -16(%rbp)
	.loc	34 499 91
	movq	-24(%rbp), %rax
	movb	-16(%rbp), %dl
	addq	$32, %rsp
	popq	%rbp
	retq
Ltmp527:
Lfunc_end50:
	.cfi_endproc

	.globl	__ZN3std4sync6poison10map_result17h40ba85d69f0dea03E
	.p2align	4, 0x90
__ZN3std4sync6poison10map_result17h40ba85d69f0dea03E:
Lfunc_begin51:
	.loc	35 264 0 is_stmt 1
	.cfi_startproc
	pushq	%rbp
	.cfi_def_cfa_offset 16
	.cfi_offset %rbp, -16
	movq	%rsp, %rbp
	.cfi_def_cfa_register %rbp
	subq	$48, %rsp
	movq	%rcx, -48(%rbp)
	movq	%rdi, -40(%rbp)
	movb	%dl, %al
	movb	%sil, %dl
	movq	%rdi, -32(%rbp)
	andb	$1, %dl
	movb	%dl, -24(%rbp)
	movb	%al, -23(%rbp)
	movq	%rcx, -16(%rbp)
Ltmp528:
	.loc	35 268 11 prologue_end
	movb	-24(%rbp), %al
	andb	$1, %al
	movzbl	%al, %eax
	.loc	35 268 5 is_stmt 0
	cmpq	$0, %rax
	jne	LBB51_2
	.loc	35 0 5
	movq	-48(%rbp), %rdi
	.loc	35 269 12 is_stmt 1
	movb	-23(%rbp), %al
	movb	%al, %cl
	andb	$1, %cl
	movb	%cl, -1(%rbp)
Ltmp529:
	.loc	35 269 21 is_stmt 0
	andb	$1, %al
	movb	%al, -18(%rbp)
	movb	-18(%rbp), %al
	andb	$1, %al
	movzbl	%al, %esi
	callq	__ZN3std4sync5mutex19MutexGuard$LT$T$GT$3new28_$u7b$$u7b$closure$u7d$$u7d$17h3bbb6269ce643891E
	movq	%rax, %rcx
	movq	-40(%rbp), %rax
	.loc	35 269 18
	movq	%rcx, 8(%rax)
	andb	$1, %dl
	movb	%dl, 16(%rax)
	movq	$0, (%rax)
Ltmp530:
	.loc	35 269 25
	jmp	LBB51_3
LBB51_2:
	.loc	35 0 25
	movq	-48(%rbp), %rdi
	.loc	35 270 27 is_stmt 1
	movb	-23(%rbp), %al
	movb	%al, %cl
	andb	$1, %cl
	movb	%cl, -2(%rbp)
Ltmp531:
	.loc	35 270 60 is_stmt 0
	andb	$1, %al
	movb	%al, -17(%rbp)
	movb	-17(%rbp), %al
	andb	$1, %al
	movzbl	%al, %esi
	callq	__ZN3std4sync5mutex19MutexGuard$LT$T$GT$3new28_$u7b$$u7b$closure$u7d$$u7d$17h3bbb6269ce643891E
	movq	%rax, %rdi
	.loc	35 270 43
	andb	$1, %dl
	movzbl	%dl, %esi
	callq	__ZN3std4sync6poison20PoisonError$LT$T$GT$3new17hc3600af652f8a3beE
	movq	%rax, %rcx
	movq	-40(%rbp), %rax
	.loc	35 270 39
	movq	%rcx, 8(%rax)
	andb	$1, %dl
	movb	%dl, 16(%rax)
	movq	$1, (%rax)
Ltmp532:
LBB51_3:
	.loc	35 0 39
	movq	-32(%rbp), %rax
	.loc	35 272 2 is_stmt 1
	addq	$48, %rsp
	popq	%rbp
	retq
Ltmp533:
Lfunc_end51:
	.cfi_endproc

	.globl	__ZN3std4sync6poison10map_result17h49cbf7c25af44133E
	.p2align	4, 0x90
__ZN3std4sync6poison10map_result17h49cbf7c25af44133E:
Lfunc_begin52:
	.loc	35 264 0
	.cfi_startproc
	pushq	%rbp
	.cfi_def_cfa_offset 16
	.cfi_offset %rbp, -16
	movq	%rsp, %rbp
	.cfi_def_cfa_register %rbp
	subq	$48, %rsp
	movq	%rcx, -48(%rbp)
	movq	%rdi, -40(%rbp)
	movb	%dl, %al
	movb	%sil, %dl
	movq	%rdi, -32(%rbp)
	andb	$1, %dl
	movb	%dl, -24(%rbp)
	movb	%al, -23(%rbp)
	movq	%rcx, -16(%rbp)
Ltmp534:
	.loc	35 268 11 prologue_end
	movb	-24(%rbp), %al
	andb	$1, %al
	movzbl	%al, %eax
	.loc	35 268 5 is_stmt 0
	cmpq	$0, %rax
	jne	LBB52_2
	.loc	35 0 5
	movq	-48(%rbp), %rdi
	.loc	35 269 12 is_stmt 1
	movb	-23(%rbp), %al
	movb	%al, %cl
	andb	$1, %cl
	movb	%cl, -1(%rbp)
Ltmp535:
	.loc	35 269 21 is_stmt 0
	andb	$1, %al
	movb	%al, -18(%rbp)
	movb	-18(%rbp), %al
	andb	$1, %al
	movzbl	%al, %esi
	callq	__ZN3std4sync5mutex19MutexGuard$LT$T$GT$3new28_$u7b$$u7b$closure$u7d$$u7d$17h907bbb38e229cc49E
	movq	%rax, %rcx
	movq	-40(%rbp), %rax
	.loc	35 269 18
	movq	%rcx, 8(%rax)
	andb	$1, %dl
	movb	%dl, 16(%rax)
	movq	$0, (%rax)
Ltmp536:
	.loc	35 269 25
	jmp	LBB52_3
LBB52_2:
	.loc	35 0 25
	movq	-48(%rbp), %rdi
	.loc	35 270 27 is_stmt 1
	movb	-23(%rbp), %al
	movb	%al, %cl
	andb	$1, %cl
	movb	%cl, -2(%rbp)
Ltmp537:
	.loc	35 270 60 is_stmt 0
	andb	$1, %al
	movb	%al, -17(%rbp)
	movb	-17(%rbp), %al
	andb	$1, %al
	movzbl	%al, %esi
	callq	__ZN3std4sync5mutex19MutexGuard$LT$T$GT$3new28_$u7b$$u7b$closure$u7d$$u7d$17h907bbb38e229cc49E
	movq	%rax, %rdi
	.loc	35 270 43
	andb	$1, %dl
	movzbl	%dl, %esi
	callq	__ZN3std4sync6poison20PoisonError$LT$T$GT$3new17hea2ed1578ed06f49E
	movq	%rax, %rcx
	movq	-40(%rbp), %rax
	.loc	35 270 39
	movq	%rcx, 8(%rax)
	andb	$1, %dl
	movb	%dl, 16(%rax)
	movq	$1, (%rax)
Ltmp538:
LBB52_3:
	.loc	35 0 39
	movq	-32(%rbp), %rax
	.loc	35 272 2 is_stmt 1
	addq	$48, %rsp
	popq	%rbp
	retq
Ltmp539:
Lfunc_end52:
	.cfi_endproc

	.globl	__ZN3std4sync6poison10map_result17hfcbb1316ea8792fbE
	.p2align	4, 0x90
__ZN3std4sync6poison10map_result17hfcbb1316ea8792fbE:
Lfunc_begin53:
	.loc	35 264 0
	.cfi_startproc
	pushq	%rbp
	.cfi_def_cfa_offset 16
	.cfi_offset %rbp, -16
	movq	%rsp, %rbp
	.cfi_def_cfa_register %rbp
	subq	$48, %rsp
	movq	%rcx, -48(%rbp)
	movq	%rdi, -40(%rbp)
	movb	%dl, %al
	movb	%sil, %dl
	movq	%rdi, -32(%rbp)
	andb	$1, %dl
	movb	%dl, -24(%rbp)
	movb	%al, -23(%rbp)
	movq	%rcx, -16(%rbp)
Ltmp540:
	.loc	35 268 11 prologue_end
	movb	-24(%rbp), %al
	andb	$1, %al
	movzbl	%al, %eax
	.loc	35 268 5 is_stmt 0
	cmpq	$0, %rax
	jne	LBB53_2
	.loc	35 0 5
	movq	-48(%rbp), %rdi
	.loc	35 269 12 is_stmt 1
	movb	-23(%rbp), %al
	movb	%al, %cl
	andb	$1, %cl
	movb	%cl, -1(%rbp)
Ltmp541:
	.loc	35 269 21 is_stmt 0
	andb	$1, %al
	movb	%al, -18(%rbp)
	movb	-18(%rbp), %al
	andb	$1, %al
	movzbl	%al, %esi
	callq	__ZN3std4sync5mutex19MutexGuard$LT$T$GT$3new28_$u7b$$u7b$closure$u7d$$u7d$17ha58fdf26466d78a0E
	movq	%rax, %rcx
	movq	-40(%rbp), %rax
	.loc	35 269 18
	movq	%rcx, 8(%rax)
	andb	$1, %dl
	movb	%dl, 16(%rax)
	movq	$0, (%rax)
Ltmp542:
	.loc	35 269 25
	jmp	LBB53_3
LBB53_2:
	.loc	35 0 25
	movq	-48(%rbp), %rdi
	.loc	35 270 27 is_stmt 1
	movb	-23(%rbp), %al
	movb	%al, %cl
	andb	$1, %cl
	movb	%cl, -2(%rbp)
Ltmp543:
	.loc	35 270 60 is_stmt 0
	andb	$1, %al
	movb	%al, -17(%rbp)
	movb	-17(%rbp), %al
	andb	$1, %al
	movzbl	%al, %esi
	callq	__ZN3std4sync5mutex19MutexGuard$LT$T$GT$3new28_$u7b$$u7b$closure$u7d$$u7d$17ha58fdf26466d78a0E
	movq	%rax, %rdi
	.loc	35 270 43
	andb	$1, %dl
	movzbl	%dl, %esi
	callq	__ZN3std4sync6poison20PoisonError$LT$T$GT$3new17hf9da51b7c549bd48E
	movq	%rax, %rcx
	movq	-40(%rbp), %rax
	.loc	35 270 39
	movq	%rcx, 8(%rax)
	andb	$1, %dl
	movb	%dl, 16(%rax)
	movq	$1, (%rax)
Ltmp544:
LBB53_3:
	.loc	35 0 39
	movq	-32(%rbp), %rax
	.loc	35 272 2 is_stmt 1
	addq	$48, %rsp
	popq	%rbp
	retq
Ltmp545:
Lfunc_end53:
	.cfi_endproc

	.globl	__ZN3std4sync6poison20PoisonError$LT$T$GT$3new17h26eabdab5532616eE
	.p2align	4, 0x90
__ZN3std4sync6poison20PoisonError$LT$T$GT$3new17h26eabdab5532616eE:
Lfunc_begin54:
	.loc	35 169 0
	.cfi_startproc
	pushq	%rbp
	.cfi_def_cfa_offset 16
	.cfi_offset %rbp, -16
	movq	%rsp, %rbp
	.cfi_def_cfa_register %rbp
	subq	$2, %rsp
	movb	%dil, %al
	movb	%al, %cl
	andb	$1, %cl
	movb	%cl, -1(%rbp)
Ltmp546:
	.loc	35 170 9 prologue_end
	andb	$1, %al
	movb	%al, -2(%rbp)
	.loc	35 171 6
	movb	-2(%rbp), %al
	andb	$1, %al
	movzbl	%al, %eax
	addq	$2, %rsp
	popq	%rbp
	retq
Ltmp547:
Lfunc_end54:
	.cfi_endproc

	.globl	__ZN3std4sync6poison20PoisonError$LT$T$GT$3new17h5e55f6027b857bd3E
	.p2align	4, 0x90
__ZN3std4sync6poison20PoisonError$LT$T$GT$3new17h5e55f6027b857bd3E:
Lfunc_begin55:
	.loc	35 169 0
	.cfi_startproc
	pushq	%rbp
	.cfi_def_cfa_offset 16
	.cfi_offset %rbp, -16
	movq	%rsp, %rbp
	.cfi_def_cfa_register %rbp
	subq	$24, %rsp
	movq	%rdi, %rax
Ltmp548:
	.loc	35 170 23 prologue_end
	movq	(%rsi), %rcx
	movq	%rcx, -24(%rbp)
	movq	8(%rsi), %rcx
	movq	%rcx, -16(%rbp)
	movq	16(%rsi), %rcx
	movq	%rcx, -8(%rbp)
	.loc	35 170 9 is_stmt 0
	movq	-24(%rbp), %rcx
	movq	%rcx, (%rdi)
	movq	-16(%rbp), %rcx
	movq	%rcx, 8(%rdi)
	movq	-8(%rbp), %rcx
	movq	%rcx, 16(%rdi)
	.loc	35 171 6 is_stmt 1
	addq	$24, %rsp
	popq	%rbp
	retq
Ltmp549:
Lfunc_end55:
	.cfi_endproc

	.globl	__ZN3std4sync6poison20PoisonError$LT$T$GT$3new17hc3600af652f8a3beE
	.p2align	4, 0x90
__ZN3std4sync6poison20PoisonError$LT$T$GT$3new17hc3600af652f8a3beE:
Lfunc_begin56:
	.loc	35 169 0
	.cfi_startproc
	pushq	%rbp
	.cfi_def_cfa_offset 16
	.cfi_offset %rbp, -16
	movq	%rsp, %rbp
	.cfi_def_cfa_register %rbp
	subq	$32, %rsp
	movb	%sil, %al
	movq	%rdi, -16(%rbp)
	andb	$1, %al
	movb	%al, -8(%rbp)
Ltmp550:
	.loc	35 170 9 prologue_end
	movq	%rdi, -32(%rbp)
	movb	%al, -24(%rbp)
	.loc	35 171 6
	movq	-32(%rbp), %rax
	movb	-24(%rbp), %dl
	addq	$32, %rsp
	popq	%rbp
	retq
Ltmp551:
Lfunc_end56:
	.cfi_endproc

	.globl	__ZN3std4sync6poison20PoisonError$LT$T$GT$3new17hea2ed1578ed06f49E
	.p2align	4, 0x90
__ZN3std4sync6poison20PoisonError$LT$T$GT$3new17hea2ed1578ed06f49E:
Lfunc_begin57:
	.loc	35 169 0
	.cfi_startproc
	pushq	%rbp
	.cfi_def_cfa_offset 16
	.cfi_offset %rbp, -16
	movq	%rsp, %rbp
	.cfi_def_cfa_register %rbp
	subq	$32, %rsp
	movb	%sil, %al
	movq	%rdi, -16(%rbp)
	andb	$1, %al
	movb	%al, -8(%rbp)
Ltmp552:
	.loc	35 170 9 prologue_end
	movq	%rdi, -32(%rbp)
	movb	%al, -24(%rbp)
	.loc	35 171 6
	movq	-32(%rbp), %rax
	movb	-24(%rbp), %dl
	addq	$32, %rsp
	popq	%rbp
	retq
Ltmp553:
Lfunc_end57:
	.cfi_endproc

	.globl	__ZN3std4sync6poison20PoisonError$LT$T$GT$3new17hf9da51b7c549bd48E
	.p2align	4, 0x90
__ZN3std4sync6poison20PoisonError$LT$T$GT$3new17hf9da51b7c549bd48E:
Lfunc_begin58:
	.loc	35 169 0
	.cfi_startproc
	pushq	%rbp
	.cfi_def_cfa_offset 16
	.cfi_offset %rbp, -16
	movq	%rsp, %rbp
	.cfi_def_cfa_register %rbp
	subq	$32, %rsp
	movb	%sil, %al
	movq	%rdi, -16(%rbp)
	andb	$1, %al
	movb	%al, -8(%rbp)
Ltmp554:
	.loc	35 170 9 prologue_end
	movq	%rdi, -32(%rbp)
	movb	%al, -24(%rbp)
	.loc	35 171 6
	movq	-32(%rbp), %rax
	movb	-24(%rbp), %dl
	addq	$32, %rsp
	popq	%rbp
	retq
Ltmp555:
Lfunc_end58:
	.cfi_endproc

	.p2align	4, 0x90
__ZN3std4sync6poison4Flag4done17hca115ea7ab52ab86E:
Lfunc_begin59:
	.loc	35 41 0
	.cfi_startproc
	pushq	%rbp
	.cfi_def_cfa_offset 16
	.cfi_offset %rbp, -16
	movq	%rsp, %rbp
	.cfi_def_cfa_register %rbp
	subq	$48, %rsp
	movq	%rdi, -48(%rbp)
	movq	%rdi, -32(%rbp)
	movq	%rsi, -24(%rbp)
Ltmp556:
	.loc	35 42 13 prologue_end
	movb	(%rsi), %al
	.loc	35 42 12 is_stmt 0
	xorb	$-1, %al
	testb	$1, %al
	jne	LBB59_2
	movb	$0, -33(%rbp)
	jmp	LBB59_3
LBB59_2:
Ltmp557:
	.file	36 "/rustc/2c8cc343237b8f7d5a3c3703e3a87f2eb2c54a74/library/std/src" "panicking.rs"
	.loc	36 517 6 is_stmt 1
	callq	__ZN3std9panicking11panic_count13count_is_zero17hf12aefb3b5c3af33E
	.loc	36 517 5 is_stmt 0
	xorb	$-1, %al
Ltmp558:
	.loc	35 42 12 is_stmt 1
	andb	$1, %al
	movb	%al, -33(%rbp)
LBB59_3:
	testb	$1, -33(%rbp)
	jne	LBB59_5
LBB59_4:
	.loc	35 45 6
	addq	$48, %rsp
	popq	%rbp
	retq
LBB59_5:
	.loc	35 0 6 is_stmt 0
	movq	-48(%rbp), %rdi
	.loc	35 43 13 is_stmt 1
	movq	%rdi, -16(%rbp)
Ltmp559:
	.loc	16 485 26
	movq	%rdi, -8(%rbp)
	.loc	16 485 13 is_stmt 0
	movl	$1, %esi
	xorl	%edx, %edx
	callq	__ZN4core4sync6atomic12atomic_store17hf25be361eff70f77E
Ltmp560:
	.loc	35 42 9 is_stmt 1
	jmp	LBB59_4
Ltmp561:
Lfunc_end59:
	.cfi_endproc
	.file	37 "/rustc/2c8cc343237b8f7d5a3c3703e3a87f2eb2c54a74/library/std/src/thread" "mod.rs"

	.p2align	4, 0x90
__ZN3std4sync6poison4Flag5guard17hfa4427c1f7930634E:
Lfunc_begin60:
	.loc	35 35 0
	.cfi_startproc
	pushq	%rbp
	.cfi_def_cfa_offset 16
	.cfi_offset %rbp, -16
	movq	%rsp, %rbp
	.cfi_def_cfa_register %rbp
	subq	$48, %rsp
	movq	%rdi, -48(%rbp)
	movq	%rdi, -32(%rbp)
Ltmp562:
	.loc	36 517 6 prologue_end
	callq	__ZN3std9panicking11panic_count13count_is_zero17hf12aefb3b5c3af33E
	movq	-48(%rbp), %rdi
	.loc	36 517 5 is_stmt 0
	xorb	$-1, %al
Ltmp563:
	.loc	35 36 19 is_stmt 1
	andb	$1, %al
	movb	%al, -33(%rbp)
Ltmp564:
	.loc	35 37 12
	movq	%rdi, -24(%rbp)
Ltmp565:
	.loc	35 49 9
	movq	%rdi, -16(%rbp)
Ltmp566:
	.loc	16 456 30
	movq	%rdi, -8(%rbp)
	.loc	16 456 18 is_stmt 0
	xorl	%esi, %esi
	callq	__ZN4core4sync6atomic11atomic_load17h2365115abbd845b7E
Ltmp567:
	.loc	35 37 12 is_stmt 1
	cmpb	$0, %al
	jne	LBB60_2
	.loc	35 37 64 is_stmt 0
	movb	-33(%rbp), %al
	.loc	35 37 61
	andb	$1, %al
	movb	%al, -39(%rbp)
	movb	$0, -40(%rbp)
	.loc	35 37 9
	jmp	LBB60_3
LBB60_2:
	.loc	35 37 46
	movb	-33(%rbp), %al
	.loc	35 37 29
	andb	$1, %al
	movzbl	%al, %edi
	callq	__ZN3std4sync6poison20PoisonError$LT$T$GT$3new17h26eabdab5532616eE
	.loc	35 37 25
	andb	$1, %al
	movb	%al, -39(%rbp)
	movb	$1, -40(%rbp)
Ltmp568:
LBB60_3:
	.loc	35 38 6 is_stmt 1
	movb	-40(%rbp), %al
	movb	-39(%rbp), %dl
	addq	$48, %rsp
	popq	%rbp
	retq
Ltmp569:
Lfunc_end60:
	.cfi_endproc

	.globl	__ZN3std4sync7condvar7Condvar12wait_timeout17h0a17b02ce69ce103E
	.p2align	4, 0x90
__ZN3std4sync7condvar7Condvar12wait_timeout17h0a17b02ce69ce103E:
Lfunc_begin61:
	.file	38 "/rustc/2c8cc343237b8f7d5a3c3703e3a87f2eb2c54a74/library/std/src/sync" "condvar.rs"
	.loc	38 380 0
	.cfi_startproc
	.cfi_personality 155, _rust_eh_personality
	.cfi_lsda 16, Lexception5
	pushq	%rbp
	.cfi_def_cfa_offset 16
	.cfi_offset %rbp, -16
	movq	%rsp, %rbp
	.cfi_def_cfa_register %rbp
	subq	$256, %rsp
	movl	%r9d, -236(%rbp)
	movq	%r8, -232(%rbp)
	movq	%rsi, -224(%rbp)
	movq	%rdi, -216(%rbp)
	movb	%cl, %al
	movq	%rdi, -208(%rbp)
	movq	%rdx, -192(%rbp)
	andb	$1, %al
	movb	%al, -184(%rbp)
	movq	%rsi, -88(%rbp)
	movq	%r8, -80(%rbp)
	movl	%r9d, -72(%rbp)
Ltmp584:
	.loc	38 385 34 prologue_end
	movb	$1, -89(%rbp)
Ltmp570:
	leaq	-192(%rbp), %rdi
	.loc	38 386 24
	callq	__ZN3std4sync5mutex10guard_lock17h4dce563753e41159E
Ltmp571:
	movq	%rax, -200(%rbp)
	jmp	LBB61_3
LBB61_1:
	.loc	38 391 5
	testb	$1, -89(%rbp)
	jne	LBB61_11
	jmp	LBB61_10
LBB61_2:
Ltmp580:
	.loc	38 0 5 is_stmt 0
	movq	%rax, %rcx
	movl	%edx, %eax
	movq	%rcx, -64(%rbp)
	movl	%eax, -56(%rbp)
	jmp	LBB61_1
LBB61_3:
	movl	-236(%rbp), %ecx
	movq	-232(%rbp), %rdx
	movq	-200(%rbp), %rsi
	movq	-224(%rbp), %rdi
	.loc	38 386 24 is_stmt 1
	movq	%rsi, -48(%rbp)
Ltmp572:
Ltmp585:
	.loc	38 387 27
	callq	__ZN3std3sys4unix5locks15pthread_condvar7Condvar12wait_timeout17h120dae31a9d44472E
Ltmp573:
	movb	%al, -237(%rbp)
	jmp	LBB61_4
LBB61_4:
	.loc	38 0 27 is_stmt 0
	movb	-237(%rbp), %al
	.loc	38 387 27
	andb	$1, %al
	movb	%al, -33(%rbp)
Ltmp574:
	leaq	-192(%rbp), %rdi
Ltmp586:
	.loc	38 388 14 is_stmt 1
	callq	__ZN3std4sync5mutex12guard_poison17hc7ca44a3ad57f94dE
Ltmp575:
	movq	%rax, -248(%rbp)
	jmp	LBB61_5
LBB61_5:
	.loc	38 0 14 is_stmt 0
	movq	-248(%rbp), %rdi
	.loc	38 388 14
	movq	%rdi, -32(%rbp)
Ltmp587:
	.loc	35 49 9 is_stmt 1
	movq	%rdi, -24(%rbp)
Ltmp588:
	.loc	16 456 30
	movq	%rdi, -16(%rbp)
Ltmp576:
	xorl	%esi, %esi
	.loc	16 456 18 is_stmt 0
	callq	__ZN4core4sync6atomic11atomic_load17h2365115abbd845b7E
Ltmp577:
	movb	%al, -249(%rbp)
	jmp	LBB61_6
LBB61_6:
	.loc	16 0 18
	movb	-237(%rbp), %cl
	movb	-249(%rbp), %al
	.loc	16 456 18
	cmpb	$0, %al
	setne	%al
Ltmp589:
	.loc	38 388 67 is_stmt 1
	xorb	$-1, %cl
	.loc	38 388 49 is_stmt 0
	andb	$1, %cl
	movb	%cl, -169(%rbp)
	.loc	38 388 13
	andb	$1, %al
	movb	%al, -176(%rbp)
	movb	-169(%rbp), %al
	andb	$1, %al
	movb	%al, -175(%rbp)
Ltmp590:
	.loc	38 385 14 is_stmt 1
	movb	-176(%rbp), %al
	movb	%al, %cl
	andb	$1, %cl
	movb	%cl, -2(%rbp)
	.loc	38 385 24 is_stmt 0
	movb	-175(%rbp), %cl
	movb	%cl, -250(%rbp)
	andb	$1, %cl
	movb	%cl, -1(%rbp)
Ltmp591:
	.loc	38 390 12 is_stmt 1
	testb	$1, %al
	jne	LBB61_8
	.loc	38 0 12 is_stmt 0
	movq	-216(%rbp), %rax
	movb	-250(%rbp), %cl
	.loc	38 390 75
	movq	-192(%rbp), %rsi
	movb	-184(%rbp), %dl
	.loc	38 390 74
	movq	%rsi, -120(%rbp)
	andb	$1, %dl
	movb	%dl, -112(%rbp)
	andb	$1, %cl
	movb	%cl, -104(%rbp)
	.loc	38 390 71
	movq	-120(%rbp), %rcx
	movq	%rcx, 8(%rax)
	movq	-112(%rbp), %rcx
	movq	%rcx, 16(%rax)
	movq	-104(%rbp), %rcx
	movq	%rcx, 24(%rax)
	movq	$0, (%rax)
	.loc	38 390 9
	jmp	LBB61_13
LBB61_8:
	.loc	38 0 9
	movb	-250(%rbp), %al
	.loc	38 390 45
	movb	$0, -89(%rbp)
	movq	-192(%rbp), %rdx
	movb	-184(%rbp), %cl
	.loc	38 390 44
	movq	%rdx, -144(%rbp)
	movb	%cl, -136(%rbp)
	andb	$1, %al
	movb	%al, -128(%rbp)
Ltmp578:
	leaq	-168(%rbp), %rdi
	leaq	-144(%rbp), %rsi
	.loc	38 390 27
	callq	__ZN3std4sync6poison20PoisonError$LT$T$GT$3new17h5e55f6027b857bd3E
Ltmp579:
	jmp	LBB61_9
LBB61_9:
	.loc	38 0 27
	movq	-216(%rbp), %rax
	.loc	38 390 23
	movq	-168(%rbp), %rcx
	movq	%rcx, 8(%rax)
	movq	-160(%rbp), %rcx
	movq	%rcx, 16(%rax)
	movq	-152(%rbp), %rcx
	movq	%rcx, 24(%rax)
	movq	$1, (%rax)
	.loc	38 390 9
	jmp	LBB61_13
Ltmp592:
LBB61_10:
	.loc	38 380 5 is_stmt 1
	movq	-64(%rbp), %rdi
	callq	__Unwind_Resume
LBB61_11:
Ltmp581:
	.loc	38 0 5 is_stmt 0
	leaq	-192(%rbp), %rdi
	.loc	38 391 5 is_stmt 1
	callq	__ZN4core3ptr65drop_in_place$LT$std..sync..mutex..MutexGuard$LT$$LP$$RP$$GT$$GT$17h5a698a6cd794730eE
Ltmp582:
	jmp	LBB61_10
LBB61_12:
Ltmp583:
	.loc	38 380 5
	callq	__ZN4core9panicking19panic_cannot_unwind17h1fbca7e1d7f56ae1E
LBB61_13:
	.loc	38 0 5 is_stmt 0
	movq	-208(%rbp), %rax
	.loc	38 391 6 is_stmt 1
	addq	$256, %rsp
	popq	%rbp
	retq
Ltmp593:
Lfunc_end61:
	.cfi_endproc
	.section	__TEXT,__gcc_except_tab
	.p2align	2
GCC_except_table61:
Lexception5:
	.byte	255
	.byte	255
	.byte	1
	.uleb128 Lcst_end5-Lcst_begin5
Lcst_begin5:
	.uleb128 Ltmp570-Lfunc_begin61
	.uleb128 Ltmp579-Ltmp570
	.uleb128 Ltmp580-Lfunc_begin61
	.byte	0
	.uleb128 Ltmp579-Lfunc_begin61
	.uleb128 Ltmp581-Ltmp579
	.byte	0
	.byte	0
	.uleb128 Ltmp581-Lfunc_begin61
	.uleb128 Ltmp582-Ltmp581
	.uleb128 Ltmp583-Lfunc_begin61
	.byte	0
Lcst_end5:
	.p2align	2

	.section	__TEXT,__text,regular,pure_instructions
	.p2align	4, 0x90
__ZN3std4sync7condvar7Condvar3new17h2f188f974f2f6b22E:
Lfunc_begin62:
	.loc	38 128 0
	.cfi_startproc
	pushq	%rbp
	.cfi_def_cfa_offset 16
	.cfi_offset %rbp, -16
	movq	%rsp, %rbp
	.cfi_def_cfa_register %rbp
	subq	$32, %rsp
	movq	%rdi, -32(%rbp)
	movq	%rdi, -24(%rbp)
Ltmp594:
	.loc	38 129 26 prologue_end
	leaq	-16(%rbp), %rdi
	callq	__ZN3std3sys4unix5locks15pthread_condvar7Condvar3new17ha563136dd7ba4862E
	movq	-32(%rbp), %rdi
	movq	-24(%rbp), %rax
	.loc	38 129 9 is_stmt 0
	movq	-16(%rbp), %rcx
	movq	%rcx, (%rdi)
	movq	-8(%rbp), %rcx
	movq	%rcx, 8(%rdi)
	.loc	38 130 6 is_stmt 1
	addq	$32, %rsp
	popq	%rbp
	retq
Ltmp595:
Lfunc_end62:
	.cfi_endproc

	.globl	__ZN3std4sync7condvar7Condvar4wait17h7f25ae9b8054b98fE
	.p2align	4, 0x90
__ZN3std4sync7condvar7Condvar4wait17h7f25ae9b8054b98fE:
Lfunc_begin63:
	.loc	38 188 0
	.cfi_startproc
	.cfi_personality 155, _rust_eh_personality
	.cfi_lsda 16, Lexception6
	pushq	%rbp
	.cfi_def_cfa_offset 16
	.cfi_offset %rbp, -16
	movq	%rsp, %rbp
	.cfi_def_cfa_register %rbp
	subq	$160, %rsp
	movq	%rsi, -120(%rbp)
	movq	%rdi, -112(%rbp)
	movb	%cl, %al
	movq	%rdi, -104(%rbp)
	movq	%rdx, -88(%rbp)
	andb	$1, %al
	movb	%al, -80(%rbp)
	movq	%rsi, -64(%rbp)
Ltmp610:
	.loc	38 189 13 prologue_end
	movb	$1, -65(%rbp)
Ltmp596:
	leaq	-88(%rbp), %rdi
	.loc	38 190 24
	callq	__ZN3std4sync5mutex10guard_lock17hed00afda650b31b7E
Ltmp597:
	movq	%rax, -96(%rbp)
	jmp	LBB63_3
LBB63_1:
	.loc	38 195 5
	testb	$1, -65(%rbp)
	jne	LBB63_11
	jmp	LBB63_10
LBB63_2:
Ltmp606:
	.loc	38 0 5 is_stmt 0
	movq	%rax, %rcx
	movl	%edx, %eax
	movq	%rcx, -56(%rbp)
	movl	%eax, -48(%rbp)
	jmp	LBB63_1
LBB63_3:
	movq	-96(%rbp), %rsi
	movq	-120(%rbp), %rdi
	.loc	38 190 24 is_stmt 1
	movq	%rsi, -40(%rbp)
Ltmp598:
Ltmp611:
	.loc	38 191 13
	callq	__ZN3std3sys4unix5locks15pthread_condvar7Condvar4wait17hbdbf5a2833d17391E
Ltmp599:
	jmp	LBB63_4
LBB63_4:
Ltmp600:
	.loc	38 0 13 is_stmt 0
	leaq	-88(%rbp), %rdi
	.loc	38 192 13 is_stmt 1
	callq	__ZN3std4sync5mutex12guard_poison17hbc77d9b9fe792f3dE
Ltmp601:
	movq	%rax, -128(%rbp)
	jmp	LBB63_5
LBB63_5:
	.loc	38 0 13 is_stmt 0
	movq	-128(%rbp), %rdi
	.loc	38 192 13
	movq	%rdi, -32(%rbp)
Ltmp612:
	.loc	35 49 9 is_stmt 1
	movq	%rdi, -24(%rbp)
Ltmp613:
	.loc	16 456 30
	movq	%rdi, -16(%rbp)
Ltmp602:
	xorl	%esi, %esi
	.loc	16 456 18 is_stmt 0
	callq	__ZN4core4sync6atomic11atomic_load17h2365115abbd845b7E
Ltmp603:
	movb	%al, -129(%rbp)
	jmp	LBB63_6
LBB63_6:
	.loc	16 0 18
	movb	-129(%rbp), %al
	.loc	16 456 18
	cmpb	$0, %al
	setne	%al
	movb	%al, %cl
	andb	$1, %cl
	movb	%cl, -1(%rbp)
Ltmp614:
	.loc	38 194 12 is_stmt 1
	testb	$1, %al
	jne	LBB63_8
	.loc	38 0 12 is_stmt 0
	movq	-112(%rbp), %rax
	.loc	38 194 64
	movq	-88(%rbp), %rdx
	movb	-80(%rbp), %cl
	.loc	38 194 61
	movq	%rdx, 8(%rax)
	andb	$1, %cl
	movb	%cl, 16(%rax)
	movq	$0, (%rax)
	.loc	38 194 9
	jmp	LBB63_13
LBB63_8:
	.loc	38 194 44
	movb	$0, -65(%rbp)
	movq	-88(%rbp), %rdi
	movzbl	-80(%rbp), %esi
Ltmp604:
	.loc	38 194 27
	callq	__ZN3std4sync6poison20PoisonError$LT$T$GT$3new17hc3600af652f8a3beE
Ltmp605:
	movb	%dl, -145(%rbp)
	movq	%rax, -144(%rbp)
	jmp	LBB63_9
LBB63_9:
	.loc	38 0 27
	movq	-112(%rbp), %rax
	movb	-145(%rbp), %cl
	movq	-144(%rbp), %rdx
	.loc	38 194 23
	movq	%rdx, 8(%rax)
	andb	$1, %cl
	movb	%cl, 16(%rax)
	movq	$1, (%rax)
	.loc	38 194 9
	jmp	LBB63_13
Ltmp615:
LBB63_10:
	.loc	38 188 5 is_stmt 1
	movq	-56(%rbp), %rdi
	callq	__Unwind_Resume
LBB63_11:
Ltmp607:
	.loc	38 0 5 is_stmt 0
	leaq	-88(%rbp), %rdi
	.loc	38 195 5 is_stmt 1
	callq	__ZN4core3ptr62drop_in_place$LT$std..sync..mutex..MutexGuard$LT$usize$GT$$GT$17ha01d1db41f24d558E
Ltmp608:
	jmp	LBB63_10
LBB63_12:
Ltmp609:
	.loc	38 188 5
	callq	__ZN4core9panicking19panic_cannot_unwind17h1fbca7e1d7f56ae1E
LBB63_13:
	.loc	38 0 5 is_stmt 0
	movq	-104(%rbp), %rax
	.loc	38 195 6 is_stmt 1
	addq	$160, %rsp
	popq	%rbp
	retq
Ltmp616:
Lfunc_end63:
	.cfi_endproc
	.section	__TEXT,__gcc_except_tab
	.p2align	2
GCC_except_table63:
Lexception6:
	.byte	255
	.byte	255
	.byte	1
	.uleb128 Lcst_end6-Lcst_begin6
Lcst_begin6:
	.uleb128 Ltmp596-Lfunc_begin63
	.uleb128 Ltmp605-Ltmp596
	.uleb128 Ltmp606-Lfunc_begin63
	.byte	0
	.uleb128 Ltmp605-Lfunc_begin63
	.uleb128 Ltmp607-Ltmp605
	.byte	0
	.byte	0
	.uleb128 Ltmp607-Lfunc_begin63
	.uleb128 Ltmp608-Ltmp607
	.uleb128 Ltmp609-Lfunc_begin63
	.byte	0
Lcst_end6:
	.p2align	2

	.section	__TEXT,__text,regular,pure_instructions
	.globl	__ZN3std4sync7condvar7Condvar4wait17hb2668fa1a8a25130E
	.p2align	4, 0x90
__ZN3std4sync7condvar7Condvar4wait17hb2668fa1a8a25130E:
Lfunc_begin64:
	.loc	38 188 0
	.cfi_startproc
	.cfi_personality 155, _rust_eh_personality
	.cfi_lsda 16, Lexception7
	pushq	%rbp
	.cfi_def_cfa_offset 16
	.cfi_offset %rbp, -16
	movq	%rsp, %rbp
	.cfi_def_cfa_register %rbp
	subq	$160, %rsp
	movq	%rsi, -120(%rbp)
	movq	%rdi, -112(%rbp)
	movb	%cl, %al
	movq	%rdi, -104(%rbp)
	movq	%rdx, -88(%rbp)
	andb	$1, %al
	movb	%al, -80(%rbp)
	movq	%rsi, -64(%rbp)
Ltmp631:
	.loc	38 189 13 prologue_end
	movb	$1, -65(%rbp)
Ltmp617:
	leaq	-88(%rbp), %rdi
	.loc	38 190 24
	callq	__ZN3std4sync5mutex10guard_lock17h4dce563753e41159E
Ltmp618:
	movq	%rax, -96(%rbp)
	jmp	LBB64_3
LBB64_1:
	.loc	38 195 5
	testb	$1, -65(%rbp)
	jne	LBB64_11
	jmp	LBB64_10
LBB64_2:
Ltmp627:
	.loc	38 0 5 is_stmt 0
	movq	%rax, %rcx
	movl	%edx, %eax
	movq	%rcx, -56(%rbp)
	movl	%eax, -48(%rbp)
	jmp	LBB64_1
LBB64_3:
	movq	-96(%rbp), %rsi
	movq	-120(%rbp), %rdi
	.loc	38 190 24 is_stmt 1
	movq	%rsi, -40(%rbp)
Ltmp619:
Ltmp632:
	.loc	38 191 13
	callq	__ZN3std3sys4unix5locks15pthread_condvar7Condvar4wait17hbdbf5a2833d17391E
Ltmp620:
	jmp	LBB64_4
LBB64_4:
Ltmp621:
	.loc	38 0 13 is_stmt 0
	leaq	-88(%rbp), %rdi
	.loc	38 192 13 is_stmt 1
	callq	__ZN3std4sync5mutex12guard_poison17hc7ca44a3ad57f94dE
Ltmp622:
	movq	%rax, -128(%rbp)
	jmp	LBB64_5
LBB64_5:
	.loc	38 0 13 is_stmt 0
	movq	-128(%rbp), %rdi
	.loc	38 192 13
	movq	%rdi, -32(%rbp)
Ltmp633:
	.loc	35 49 9 is_stmt 1
	movq	%rdi, -24(%rbp)
Ltmp634:
	.loc	16 456 30
	movq	%rdi, -16(%rbp)
Ltmp623:
	xorl	%esi, %esi
	.loc	16 456 18 is_stmt 0
	callq	__ZN4core4sync6atomic11atomic_load17h2365115abbd845b7E
Ltmp624:
	movb	%al, -129(%rbp)
	jmp	LBB64_6
LBB64_6:
	.loc	16 0 18
	movb	-129(%rbp), %al
	.loc	16 456 18
	cmpb	$0, %al
	setne	%al
	movb	%al, %cl
	andb	$1, %cl
	movb	%cl, -1(%rbp)
Ltmp635:
	.loc	38 194 12 is_stmt 1
	testb	$1, %al
	jne	LBB64_8
	.loc	38 0 12 is_stmt 0
	movq	-112(%rbp), %rax
	.loc	38 194 64
	movq	-88(%rbp), %rdx
	movb	-80(%rbp), %cl
	.loc	38 194 61
	movq	%rdx, 8(%rax)
	andb	$1, %cl
	movb	%cl, 16(%rax)
	movq	$0, (%rax)
	.loc	38 194 9
	jmp	LBB64_13
LBB64_8:
	.loc	38 194 44
	movb	$0, -65(%rbp)
	movq	-88(%rbp), %rdi
	movzbl	-80(%rbp), %esi
Ltmp625:
	.loc	38 194 27
	callq	__ZN3std4sync6poison20PoisonError$LT$T$GT$3new17hea2ed1578ed06f49E
Ltmp626:
	movb	%dl, -145(%rbp)
	movq	%rax, -144(%rbp)
	jmp	LBB64_9
LBB64_9:
	.loc	38 0 27
	movq	-112(%rbp), %rax
	movb	-145(%rbp), %cl
	movq	-144(%rbp), %rdx
	.loc	38 194 23
	movq	%rdx, 8(%rax)
	andb	$1, %cl
	movb	%cl, 16(%rax)
	movq	$1, (%rax)
	.loc	38 194 9
	jmp	LBB64_13
Ltmp636:
LBB64_10:
	.loc	38 188 5 is_stmt 1
	movq	-56(%rbp), %rdi
	callq	__Unwind_Resume
LBB64_11:
Ltmp628:
	.loc	38 0 5 is_stmt 0
	leaq	-88(%rbp), %rdi
	.loc	38 195 5 is_stmt 1
	callq	__ZN4core3ptr65drop_in_place$LT$std..sync..mutex..MutexGuard$LT$$LP$$RP$$GT$$GT$17h5a698a6cd794730eE
Ltmp629:
	jmp	LBB64_10
LBB64_12:
Ltmp630:
	.loc	38 188 5
	callq	__ZN4core9panicking19panic_cannot_unwind17h1fbca7e1d7f56ae1E
LBB64_13:
	.loc	38 0 5 is_stmt 0
	movq	-104(%rbp), %rax
	.loc	38 195 6 is_stmt 1
	addq	$160, %rsp
	popq	%rbp
	retq
Ltmp637:
Lfunc_end64:
	.cfi_endproc
	.section	__TEXT,__gcc_except_tab
	.p2align	2
GCC_except_table64:
Lexception7:
	.byte	255
	.byte	255
	.byte	1
	.uleb128 Lcst_end7-Lcst_begin7
Lcst_begin7:
	.uleb128 Ltmp617-Lfunc_begin64
	.uleb128 Ltmp626-Ltmp617
	.uleb128 Ltmp627-Lfunc_begin64
	.byte	0
	.uleb128 Ltmp626-Lfunc_begin64
	.uleb128 Ltmp628-Ltmp626
	.byte	0
	.byte	0
	.uleb128 Ltmp628-Lfunc_begin64
	.uleb128 Ltmp629-Ltmp628
	.uleb128 Ltmp630-Lfunc_begin64
	.byte	0
Lcst_end7:
	.p2align	2

	.section	__TEXT,__text,regular,pure_instructions
	.globl	__ZN3std5panic12catch_unwind17h7c02cc324a2212b3E
	.p2align	4, 0x90
__ZN3std5panic12catch_unwind17h7c02cc324a2212b3E:
Lfunc_begin65:
	.file	39 "/rustc/2c8cc343237b8f7d5a3c3703e3a87f2eb2c54a74/library/std/src" "panic.rs"
	.loc	39 139 0
	.cfi_startproc
	pushq	%rbp
	.cfi_def_cfa_offset 16
	.cfi_offset %rbp, -16
	movq	%rsp, %rbp
	.cfi_def_cfa_register %rbp
	subq	$16, %rsp
	movq	%rdi, -8(%rbp)
Ltmp638:
	.loc	39 140 14 prologue_end
	callq	__ZN3std9panicking3try17h613a688b6349c9e8E
	.loc	39 141 2
	addq	$16, %rsp
	popq	%rbp
	retq
Ltmp639:
Lfunc_end65:
	.cfi_endproc

	.globl	__ZN3std5panic12catch_unwind17h870184a217e49478E
	.p2align	4, 0x90
__ZN3std5panic12catch_unwind17h870184a217e49478E:
Lfunc_begin66:
	.loc	39 139 0
	.cfi_startproc
	pushq	%rbp
	.cfi_def_cfa_offset 16
	.cfi_offset %rbp, -16
	movq	%rsp, %rbp
	.cfi_def_cfa_register %rbp
	subq	$16, %rsp
	movq	%rdi, -8(%rbp)
Ltmp640:
	.loc	39 140 14 prologue_end
	callq	__ZN3std9panicking3try17h1c58dbdb72765ad5E
	.loc	39 141 2
	addq	$16, %rsp
	popq	%rbp
	retq
Ltmp641:
Lfunc_end66:
	.cfi_endproc

	.globl	__ZN3std6thread5local17LocalKey$LT$T$GT$4with17h3e9d00f4824767e9E
	.p2align	4, 0x90
__ZN3std6thread5local17LocalKey$LT$T$GT$4with17h3e9d00f4824767e9E:
Lfunc_begin67:
	.loc	3 418 0
	.cfi_startproc
	pushq	%rbp
	.cfi_def_cfa_offset 16
	.cfi_offset %rbp, -16
	movq	%rsp, %rbp
	.cfi_def_cfa_register %rbp
	subq	$48, %rsp
	movq	%rdi, %rsi
	movq	%rsi, -16(%rbp)
	leaq	-40(%rbp), %rdi
	movq	%rdi, -48(%rbp)
Ltmp642:
	.loc	3 422 9 prologue_end
	callq	__ZN3std6thread5local17LocalKey$LT$T$GT$8try_with17hc4aac702d52b26ceE
	movq	-48(%rbp), %rdi
	leaq	l___unnamed_32(%rip), %rsi
	leaq	l___unnamed_33(%rip), %rcx
	movl	$70, %edx
	callq	__ZN4core6result19Result$LT$T$C$E$GT$6expect17hc95c6654bea150c4E
	.loc	3 426 6
	addq	$48, %rsp
	popq	%rbp
	retq
Ltmp643:
Lfunc_end67:
	.cfi_endproc

	.globl	__ZN3std6thread5local17LocalKey$LT$T$GT$8try_with17hc4aac702d52b26ceE
	.p2align	4, 0x90
__ZN3std6thread5local17LocalKey$LT$T$GT$8try_with17hc4aac702d52b26ceE:
Lfunc_begin68:
	.loc	3 440 0
	.cfi_startproc
	.cfi_personality 155, _rust_eh_personality
	.cfi_lsda 16, Lexception8
	pushq	%rbp
	.cfi_def_cfa_offset 16
	.cfi_offset %rbp, -16
	movq	%rsp, %rbp
	.cfi_def_cfa_register %rbp
	subq	$208, %rsp
	movq	%rdi, -184(%rbp)
	movq	%rdi, -176(%rbp)
	movq	%rsi, -112(%rbp)
Ltmp649:
	.loc	3 445 17 prologue_end
	movb	$1, -113(%rbp)
	.loc	3 445 32 is_stmt 0
	movq	(%rsi), %rax
	.loc	3 445 45
	movq	$0, -136(%rbp)
	.loc	3 445 32
	movq	-136(%rbp), %rdi
Ltmp644:
	callq	*%rax
Ltmp645:
	movq	%rax, -168(%rbp)
	jmp	LBB68_3
LBB68_1:
	.loc	3 448 5 is_stmt 1
	testb	$1, -113(%rbp)
	jne	LBB68_15
	jmp	LBB68_14
LBB68_2:
Ltmp648:
	.loc	3 0 5 is_stmt 0
	movq	%rax, %rcx
	movl	%edx, %eax
	movq	%rcx, -48(%rbp)
	movl	%eax, -40(%rbp)
	jmp	LBB68_1
LBB68_3:
	movq	-168(%rbp), %rax
	.loc	3 445 32 is_stmt 1
	movq	%rax, -144(%rbp)
Ltmp650:
	.loc	22 1096 15
	movq	-144(%rbp), %rdx
	movl	$1, %eax
	xorl	%ecx, %ecx
	cmpq	$0, %rdx
	cmoveq	%rcx, %rax
	.loc	22 1096 9 is_stmt 0
	cmpq	$0, %rax
	jne	LBB68_5
	.loc	22 1098 21 is_stmt 1
	movq	$0, -152(%rbp)
	.loc	22 1098 28 is_stmt 0
	jmp	LBB68_6
LBB68_5:
	.loc	22 1097 18 is_stmt 1
	movq	-144(%rbp), %rax
	movq	%rax, -32(%rbp)
Ltmp651:
	.loc	22 1097 24 is_stmt 0
	movq	%rax, -152(%rbp)
Ltmp652:
LBB68_6:
	.loc	28 2091 15 is_stmt 1
	movq	-152(%rbp), %rdx
	xorl	%eax, %eax
	movl	$1, %ecx
	cmpq	$0, %rdx
	cmoveq	%rcx, %rax
	.loc	28 2091 9 is_stmt 0
	cmpq	$0, %rax
	jne	LBB68_8
	.loc	28 2092 16 is_stmt 1
	movq	-152(%rbp), %rax
	movq	%rax, -24(%rbp)
Ltmp653:
	.loc	28 2092 22 is_stmt 0
	movq	%rax, -160(%rbp)
Ltmp654:
	.loc	28 2092 45
	jmp	LBB68_9
LBB68_8:
Ltmp655:
	.loc	28 2093 23 is_stmt 1
	movq	$0, -160(%rbp)
Ltmp656:
LBB68_9:
	.loc	3 445 32
	movq	-160(%rbp), %rdx
	xorl	%eax, %eax
	movl	$1, %ecx
	cmpq	$0, %rdx
	cmoveq	%rcx, %rax
	cmpq	$0, %rax
	jne	LBB68_11
	movq	-160(%rbp), %rax
	movq	%rax, -16(%rbp)
Ltmp657:
	.loc	3 445 32 is_stmt 0
	movq	%rax, -8(%rbp)
Ltmp658:
	.loc	3 446 16 is_stmt 1
	movb	$0, -113(%rbp)
	movq	%rax, -128(%rbp)
	movq	-128(%rbp), %rdi
Ltmp646:
	callq	__ZN3std11collections4hash3map11RandomState3new28_$u7b$$u7b$closure$u7d$$u7d$17h43d2085bb7f82862E
Ltmp647:
	movq	%rdx, -200(%rbp)
	movq	%rax, -192(%rbp)
	jmp	LBB68_13
Ltmp659:
LBB68_11:
	.loc	3 0 16 is_stmt 0
	movq	-184(%rbp), %rax
Ltmp660:
	.loc	28 2107 23 is_stmt 1
	movq	$1, (%rax)
Ltmp661:
LBB68_12:
	.loc	28 0 23 is_stmt 0
	movq	-176(%rbp), %rax
	.loc	3 448 6 is_stmt 1
	addq	$208, %rsp
	popq	%rbp
	retq
LBB68_13:
	.loc	3 0 6 is_stmt 0
	movq	-184(%rbp), %rax
	movq	-200(%rbp), %rcx
	movq	-192(%rbp), %rdx
Ltmp662:
	.loc	3 446 13 is_stmt 1
	movq	%rdx, 8(%rax)
	movq	%rcx, 16(%rax)
	movq	$0, (%rax)
Ltmp663:
	.loc	3 448 5
	jmp	LBB68_12
LBB68_14:
	.loc	3 440 5
	movq	-48(%rbp), %rdi
	callq	__Unwind_Resume
LBB68_15:
	.loc	3 448 5
	jmp	LBB68_14
Ltmp664:
Lfunc_end68:
	.cfi_endproc
	.section	__TEXT,__gcc_except_tab
	.p2align	2
GCC_except_table68:
Lexception8:
	.byte	255
	.byte	255
	.byte	1
	.uleb128 Lcst_end8-Lcst_begin8
Lcst_begin8:
	.uleb128 Ltmp644-Lfunc_begin68
	.uleb128 Ltmp647-Ltmp644
	.uleb128 Ltmp648-Lfunc_begin68
	.byte	0
	.uleb128 Ltmp647-Lfunc_begin68
	.uleb128 Lfunc_end68-Ltmp647
	.byte	0
	.byte	0
Lcst_end8:
	.p2align	2

	.section	__TEXT,__text,regular,pure_instructions
	.globl	__ZN3std6thread5local4fast12Key$LT$T$GT$14try_initialize17hb66f0a5f16abf0d7E
	.p2align	4, 0x90
__ZN3std6thread5local4fast12Key$LT$T$GT$14try_initialize17hb66f0a5f16abf0d7E:
Lfunc_begin69:
	.loc	3 983 0
	.cfi_startproc
	.cfi_personality 155, _rust_eh_personality
	.cfi_lsda 16, Lexception9
	pushq	%rbp
	.cfi_def_cfa_offset 16
	.cfi_offset %rbp, -16
	movq	%rsp, %rbp
	.cfi_def_cfa_register %rbp
	subq	$96, %rsp
	movq	%rdi, -80(%rbp)
	movq	%rsi, -72(%rbp)
	movq	%rdi, -40(%rbp)
	movq	%rsi, -32(%rbp)
Ltmp670:
	.loc	3 985 16 prologue_end
	movb	$1, -41(%rbp)
Ltmp671:
	.file	40 "/rustc/2c8cc343237b8f7d5a3c3703e3a87f2eb2c54a74/library/core/src/mem" "mod.rs"
	.loc	40 594 5
	movb	$0, -17(%rbp)
	movb	-17(%rbp), %al
	movb	%al, -57(%rbp)
Ltmp672:
	.loc	40 0 5 is_stmt 0
	movb	-57(%rbp), %al
	.loc	3 985 16 is_stmt 1
	xorb	$-1, %al
	testb	$1, %al
	jne	LBB69_3
Ltmp665:
	.loc	3 0 16 is_stmt 0
	movq	-80(%rbp), %rdi
	.loc	3 985 52
	callq	__ZN3std6thread5local4fast12Key$LT$T$GT$17try_register_dtor17hf9b6991b72859f33E
Ltmp666:
	movb	%al, -81(%rbp)
	jmp	LBB69_7
LBB69_3:
	.loc	3 985 16
	movb	$1, -42(%rbp)
LBB69_4:
	testb	$1, -42(%rbp)
	jne	LBB69_9
	jmp	LBB69_8
LBB69_5:
	.loc	3 991 9 is_stmt 1
	testb	$1, -41(%rbp)
	jne	LBB69_12
	jmp	LBB69_11
LBB69_6:
Ltmp669:
	.loc	3 0 9 is_stmt 0
	movq	%rax, %rcx
	movl	%edx, %eax
	movq	%rcx, -16(%rbp)
	movl	%eax, -8(%rbp)
	jmp	LBB69_5
LBB69_7:
	movb	-81(%rbp), %al
	.loc	3 985 16 is_stmt 1
	andb	$1, %al
	movb	%al, -42(%rbp)
	jmp	LBB69_4
LBB69_8:
	.loc	3 989 17
	movq	$0, -56(%rbp)
	.loc	3 985 13
	jmp	LBB69_13
LBB69_9:
	.loc	3 0 13 is_stmt 0
	movq	-72(%rbp), %rsi
	movq	-80(%rbp), %rdi
	.loc	3 987 53 is_stmt 1
	movb	$0, -41(%rbp)
Ltmp667:
	.loc	3 987 31 is_stmt 0
	callq	__ZN3std6thread5local4lazy21LazyKeyInner$LT$T$GT$10initialize17h2d62fdbe92d26144E
Ltmp668:
	movq	%rax, -96(%rbp)
	jmp	LBB69_10
LBB69_10:
	.loc	3 0 31
	movq	-96(%rbp), %rax
	.loc	3 987 17
	movq	%rax, -56(%rbp)
	.loc	3 985 13 is_stmt 1
	jmp	LBB69_13
LBB69_11:
	.loc	3 983 9
	movq	-16(%rbp), %rdi
	callq	__Unwind_Resume
LBB69_12:
	.loc	3 991 9
	jmp	LBB69_11
LBB69_13:
	testb	$1, -41(%rbp)
	jne	LBB69_15
LBB69_14:
	.loc	3 991 10 is_stmt 0
	movq	-56(%rbp), %rax
	addq	$96, %rsp
	popq	%rbp
	retq
LBB69_15:
	.loc	3 991 9
	jmp	LBB69_14
Ltmp673:
Lfunc_end69:
	.cfi_endproc
	.section	__TEXT,__gcc_except_tab
	.p2align	2
GCC_except_table69:
Lexception9:
	.byte	255
	.byte	255
	.byte	1
	.uleb128 Lcst_end9-Lcst_begin9
Lcst_begin9:
	.uleb128 Ltmp665-Lfunc_begin69
	.uleb128 Ltmp668-Ltmp665
	.uleb128 Ltmp669-Lfunc_begin69
	.byte	0
	.uleb128 Ltmp668-Lfunc_begin69
	.uleb128 Lfunc_end69-Ltmp668
	.byte	0
	.byte	0
Lcst_end9:
	.p2align	2

	.section	__TEXT,__text,regular,pure_instructions
	.globl	__ZN3std6thread5local4fast12Key$LT$T$GT$14try_initialize17hbb7d683525ee6dceE
	.p2align	4, 0x90
__ZN3std6thread5local4fast12Key$LT$T$GT$14try_initialize17hbb7d683525ee6dceE:
Lfunc_begin70:
	.loc	3 983 0 is_stmt 1
	.cfi_startproc
	.cfi_personality 155, _rust_eh_personality
	.cfi_lsda 16, Lexception10
	pushq	%rbp
	.cfi_def_cfa_offset 16
	.cfi_offset %rbp, -16
	movq	%rsp, %rbp
	.cfi_def_cfa_register %rbp
	subq	$96, %rsp
	movq	%rdi, -80(%rbp)
	movq	%rsi, -72(%rbp)
	movq	%rdi, -40(%rbp)
	movq	%rsi, -32(%rbp)
Ltmp679:
	.loc	3 985 16 prologue_end
	movb	$1, -41(%rbp)
Ltmp680:
	.loc	40 594 5
	movb	$1, -17(%rbp)
	movb	-17(%rbp), %al
	movb	%al, -57(%rbp)
Ltmp681:
	.loc	40 0 5 is_stmt 0
	movb	-57(%rbp), %al
	.loc	3 985 16 is_stmt 1
	xorb	$-1, %al
	testb	$1, %al
	jne	LBB70_3
Ltmp674:
	.loc	3 0 16 is_stmt 0
	movq	-80(%rbp), %rdi
	.loc	3 985 52
	callq	__ZN3std6thread5local4fast12Key$LT$T$GT$17try_register_dtor17h557af7e7bee4cce1E
Ltmp675:
	movb	%al, -81(%rbp)
	jmp	LBB70_7
LBB70_3:
	.loc	3 985 16
	movb	$1, -42(%rbp)
LBB70_4:
	testb	$1, -42(%rbp)
	jne	LBB70_9
	jmp	LBB70_8
LBB70_5:
	.loc	3 991 9 is_stmt 1
	testb	$1, -41(%rbp)
	jne	LBB70_12
	jmp	LBB70_11
LBB70_6:
Ltmp678:
	.loc	3 0 9 is_stmt 0
	movq	%rax, %rcx
	movl	%edx, %eax
	movq	%rcx, -16(%rbp)
	movl	%eax, -8(%rbp)
	jmp	LBB70_5
LBB70_7:
	movb	-81(%rbp), %al
	.loc	3 985 16 is_stmt 1
	andb	$1, %al
	movb	%al, -42(%rbp)
	jmp	LBB70_4
LBB70_8:
	.loc	3 989 17
	movq	$0, -56(%rbp)
	.loc	3 985 13
	jmp	LBB70_13
LBB70_9:
	.loc	3 0 13 is_stmt 0
	movq	-72(%rbp), %rsi
	movq	-80(%rbp), %rdi
	.loc	3 987 53 is_stmt 1
	movb	$0, -41(%rbp)
Ltmp676:
	.loc	3 987 31 is_stmt 0
	callq	__ZN3std6thread5local4lazy21LazyKeyInner$LT$T$GT$10initialize17h68c31aada2fa7d34E
Ltmp677:
	movq	%rax, -96(%rbp)
	jmp	LBB70_10
LBB70_10:
	.loc	3 0 31
	movq	-96(%rbp), %rax
	.loc	3 987 17
	movq	%rax, -56(%rbp)
	.loc	3 985 13 is_stmt 1
	jmp	LBB70_13
LBB70_11:
	.loc	3 983 9
	movq	-16(%rbp), %rdi
	callq	__Unwind_Resume
LBB70_12:
	.loc	3 991 9
	jmp	LBB70_11
LBB70_13:
	testb	$1, -41(%rbp)
	jne	LBB70_15
LBB70_14:
	.loc	3 991 10 is_stmt 0
	movq	-56(%rbp), %rax
	addq	$96, %rsp
	popq	%rbp
	retq
LBB70_15:
	.loc	3 991 9
	jmp	LBB70_14
Ltmp682:
Lfunc_end70:
	.cfi_endproc
	.section	__TEXT,__gcc_except_tab
	.p2align	2
GCC_except_table70:
Lexception10:
	.byte	255
	.byte	255
	.byte	1
	.uleb128 Lcst_end10-Lcst_begin10
Lcst_begin10:
	.uleb128 Ltmp674-Lfunc_begin70
	.uleb128 Ltmp677-Ltmp674
	.uleb128 Ltmp678-Lfunc_begin70
	.byte	0
	.uleb128 Ltmp677-Lfunc_begin70
	.uleb128 Lfunc_end70-Ltmp677
	.byte	0
	.byte	0
Lcst_end10:
	.p2align	2

	.section	__TEXT,__text,regular,pure_instructions
	.globl	__ZN3std6thread5local4fast12Key$LT$T$GT$17try_register_dtor17h557af7e7bee4cce1E
	.p2align	4, 0x90
__ZN3std6thread5local4fast12Key$LT$T$GT$17try_register_dtor17h557af7e7bee4cce1E:
Lfunc_begin71:
	.loc	3 996 0 is_stmt 1
	.cfi_startproc
	pushq	%rbp
	.cfi_def_cfa_offset 16
	.cfi_offset %rbp, -16
	movq	%rsp, %rbp
	.cfi_def_cfa_register %rbp
	subq	$64, %rsp
	movq	%rdi, -64(%rbp)
	movq	%rdi, -40(%rbp)
Ltmp683:
	.loc	3 997 19 prologue_end
	movq	%rdi, %rax
	addq	$16, %rax
	movq	%rax, -32(%rbp)
Ltmp684:
	.loc	20 452 19
	movq	%rax, -24(%rbp)
	.loc	20 452 18 is_stmt 0
	movb	16(%rdi), %al
	movb	%al, -41(%rbp)
Ltmp685:
	.loc	3 997 19 is_stmt 1
	movzbl	-41(%rbp), %eax
	movq	%rax, -56(%rbp)
	testq	%rax, %rax
	.loc	3 997 13 is_stmt 0
	je	LBB71_2
	jmp	LBB71_6
LBB71_6:
	.loc	3 0 13
	movq	-56(%rbp), %rax
	.loc	3 997 13
	subq	$1, %rax
	je	LBB71_3
	jmp	LBB71_7
LBB71_7:
	jmp	LBB71_4
	.loc	3 997 19
	ud2
LBB71_2:
	.loc	3 0 19
	movq	-64(%rbp), %rdi
	.loc	3 1004 30 is_stmt 1
	leaq	__ZN3std6thread5local4fast13destroy_value17hf0cc5cb0b95a1d03E(%rip), %rsi
	callq	__ZN3std3sys4unix17thread_local_dtor13register_dtor17hd1117fc09d525c5dE
	movq	-64(%rbp), %rdi
	.loc	3 1005 21
	addq	$16, %rdi
	movq	%rdi, -16(%rbp)
Ltmp686:
	.loc	20 363 19
	movl	$1, %esi
	callq	__ZN4core4cell13Cell$LT$T$GT$7replace17hd5fca225e5dab8dcE
	movb	%al, -1(%rbp)
Ltmp687:
	.loc	3 1006 21
	movb	$1, -42(%rbp)
	jmp	LBB71_5
LBB71_3:
	.loc	3 1010 21
	movb	$1, -42(%rbp)
	jmp	LBB71_5
LBB71_4:
	.loc	3 1012 47
	movb	$0, -42(%rbp)
LBB71_5:
	.loc	3 1014 10
	movb	-42(%rbp), %al
	andb	$1, %al
	movzbl	%al, %eax
	addq	$64, %rsp
	popq	%rbp
	retq
Ltmp688:
Lfunc_end71:
	.cfi_endproc

	.globl	__ZN3std6thread5local4fast12Key$LT$T$GT$17try_register_dtor17hf9b6991b72859f33E
	.p2align	4, 0x90
__ZN3std6thread5local4fast12Key$LT$T$GT$17try_register_dtor17hf9b6991b72859f33E:
Lfunc_begin72:
	.loc	3 996 0
	.cfi_startproc
	pushq	%rbp
	.cfi_def_cfa_offset 16
	.cfi_offset %rbp, -16
	movq	%rsp, %rbp
	.cfi_def_cfa_register %rbp
	subq	$64, %rsp
	movq	%rdi, -64(%rbp)
	movq	%rdi, -40(%rbp)
Ltmp689:
	.loc	3 997 19 prologue_end
	movq	%rdi, %rax
	addq	$24, %rax
	movq	%rax, -32(%rbp)
Ltmp690:
	.loc	20 452 19
	movq	%rax, -24(%rbp)
	.loc	20 452 18 is_stmt 0
	movb	24(%rdi), %al
	movb	%al, -41(%rbp)
Ltmp691:
	.loc	3 997 19 is_stmt 1
	movzbl	-41(%rbp), %eax
	movq	%rax, -56(%rbp)
	testq	%rax, %rax
	.loc	3 997 13 is_stmt 0
	je	LBB72_2
	jmp	LBB72_6
LBB72_6:
	.loc	3 0 13
	movq	-56(%rbp), %rax
	.loc	3 997 13
	subq	$1, %rax
	je	LBB72_3
	jmp	LBB72_7
LBB72_7:
	jmp	LBB72_4
	.loc	3 997 19
	ud2
LBB72_2:
	.loc	3 0 19
	movq	-64(%rbp), %rdi
	.loc	3 1004 30 is_stmt 1
	leaq	__ZN3std6thread5local4fast13destroy_value17h39660df76cee6b28E(%rip), %rsi
	callq	__ZN3std3sys4unix17thread_local_dtor13register_dtor17hd1117fc09d525c5dE
	movq	-64(%rbp), %rdi
	.loc	3 1005 21
	addq	$24, %rdi
	movq	%rdi, -16(%rbp)
Ltmp692:
	.loc	20 363 19
	movl	$1, %esi
	callq	__ZN4core4cell13Cell$LT$T$GT$7replace17hd5fca225e5dab8dcE
	movb	%al, -1(%rbp)
Ltmp693:
	.loc	3 1006 21
	movb	$1, -42(%rbp)
	jmp	LBB72_5
LBB72_3:
	.loc	3 1010 21
	movb	$1, -42(%rbp)
	jmp	LBB72_5
LBB72_4:
	.loc	3 1012 47
	movb	$0, -42(%rbp)
LBB72_5:
	.loc	3 1014 10
	movb	-42(%rbp), %al
	andb	$1, %al
	movzbl	%al, %eax
	addq	$64, %rsp
	popq	%rbp
	retq
Ltmp694:
Lfunc_end72:
	.cfi_endproc

	.globl	__ZN3std6thread5local4fast12Key$LT$T$GT$3get17h5549b77073a1273aE
	.p2align	4, 0x90
__ZN3std6thread5local4fast12Key$LT$T$GT$3get17h5549b77073a1273aE:
Lfunc_begin73:
	.loc	3 959 0
	.cfi_startproc
	.cfi_personality 155, _rust_eh_personality
	.cfi_lsda 16, Lexception11
	pushq	%rbp
	.cfi_def_cfa_offset 16
	.cfi_offset %rbp, -16
	movq	%rsp, %rbp
	.cfi_def_cfa_register %rbp
	subq	$96, %rsp
	movq	%rdi, -88(%rbp)
	movq	%rsi, -80(%rbp)
	movq	%rdi, -40(%rbp)
	movq	%rsi, -32(%rbp)
Ltmp700:
	.loc	3 968 23 prologue_end
	movb	$1, -41(%rbp)
Ltmp695:
	callq	__ZN3std6thread5local4lazy21LazyKeyInner$LT$T$GT$3get17h429eb6a797a329e5E
Ltmp696:
	movq	%rax, -72(%rbp)
	jmp	LBB73_3
LBB73_1:
	.loc	3 973 9
	testb	$1, -41(%rbp)
	jne	LBB73_9
	jmp	LBB73_8
LBB73_2:
Ltmp699:
	.loc	3 0 9 is_stmt 0
	movq	%rax, %rcx
	movl	%edx, %eax
	movq	%rcx, -24(%rbp)
	movl	%eax, -16(%rbp)
	jmp	LBB73_1
LBB73_3:
	movq	-72(%rbp), %rax
	.loc	3 968 23 is_stmt 1
	movq	%rax, -56(%rbp)
	movq	-56(%rbp), %rdx
	movl	$1, %eax
	xorl	%ecx, %ecx
	cmpq	$0, %rdx
	cmoveq	%rcx, %rax
	.loc	3 968 17 is_stmt 0
	cmpq	$0, %rax
	jne	LBB73_5
	.loc	3 0 17
	movq	-80(%rbp), %rsi
	movq	-88(%rbp), %rdi
	.loc	3 970 49 is_stmt 1
	movb	$0, -41(%rbp)
Ltmp697:
	.loc	3 970 29 is_stmt 0
	callq	__ZN3std6thread5local4fast12Key$LT$T$GT$14try_initialize17hb66f0a5f16abf0d7E
Ltmp698:
	movq	%rax, -96(%rbp)
	jmp	LBB73_7
LBB73_5:
	.loc	3 969 26 is_stmt 1
	movq	-56(%rbp), %rax
	movq	%rax, -8(%rbp)
Ltmp701:
	.loc	3 969 34 is_stmt 0
	movq	%rax, -64(%rbp)
Ltmp702:
LBB73_6:
	.loc	3 973 9 is_stmt 1
	testb	$1, -41(%rbp)
	jne	LBB73_11
	jmp	LBB73_10
LBB73_7:
	.loc	3 0 9 is_stmt 0
	movq	-96(%rbp), %rax
	.loc	3 970 29 is_stmt 1
	movq	%rax, -64(%rbp)
	.loc	3 970 53 is_stmt 0
	jmp	LBB73_6
LBB73_8:
	.loc	3 959 9 is_stmt 1
	movq	-24(%rbp), %rdi
	callq	__Unwind_Resume
LBB73_9:
	.loc	3 973 9
	jmp	LBB73_8
LBB73_10:
	.loc	3 973 10 is_stmt 0
	movq	-64(%rbp), %rax
	addq	$96, %rsp
	popq	%rbp
	retq
LBB73_11:
	.loc	3 973 9
	jmp	LBB73_10
Ltmp703:
Lfunc_end73:
	.cfi_endproc
	.section	__TEXT,__gcc_except_tab
	.p2align	2
GCC_except_table73:
Lexception11:
	.byte	255
	.byte	255
	.byte	1
	.uleb128 Lcst_end11-Lcst_begin11
Lcst_begin11:
	.uleb128 Ltmp695-Lfunc_begin73
	.uleb128 Ltmp698-Ltmp695
	.uleb128 Ltmp699-Lfunc_begin73
	.byte	0
	.uleb128 Ltmp698-Lfunc_begin73
	.uleb128 Lfunc_end73-Ltmp698
	.byte	0
	.byte	0
Lcst_end11:
	.p2align	2

	.section	__TEXT,__text,regular,pure_instructions
	.globl	__ZN3std6thread5local4fast12Key$LT$T$GT$3get17h827605b000004a4dE
	.p2align	4, 0x90
__ZN3std6thread5local4fast12Key$LT$T$GT$3get17h827605b000004a4dE:
Lfunc_begin74:
	.loc	3 959 0 is_stmt 1
	.cfi_startproc
	.cfi_personality 155, _rust_eh_personality
	.cfi_lsda 16, Lexception12
	pushq	%rbp
	.cfi_def_cfa_offset 16
	.cfi_offset %rbp, -16
	movq	%rsp, %rbp
	.cfi_def_cfa_register %rbp
	subq	$96, %rsp
	movq	%rdi, -88(%rbp)
	movq	%rsi, -80(%rbp)
	movq	%rdi, -40(%rbp)
	movq	%rsi, -32(%rbp)
Ltmp709:
	.loc	3 968 23 prologue_end
	movb	$1, -41(%rbp)
Ltmp704:
	callq	__ZN3std6thread5local4lazy21LazyKeyInner$LT$T$GT$3get17ha0adff8522a3b7c2E
Ltmp705:
	movq	%rax, -72(%rbp)
	jmp	LBB74_3
LBB74_1:
	.loc	3 973 9
	testb	$1, -41(%rbp)
	jne	LBB74_9
	jmp	LBB74_8
LBB74_2:
Ltmp708:
	.loc	3 0 9 is_stmt 0
	movq	%rax, %rcx
	movl	%edx, %eax
	movq	%rcx, -24(%rbp)
	movl	%eax, -16(%rbp)
	jmp	LBB74_1
LBB74_3:
	movq	-72(%rbp), %rax
	.loc	3 968 23 is_stmt 1
	movq	%rax, -56(%rbp)
	movq	-56(%rbp), %rdx
	movl	$1, %eax
	xorl	%ecx, %ecx
	cmpq	$0, %rdx
	cmoveq	%rcx, %rax
	.loc	3 968 17 is_stmt 0
	cmpq	$0, %rax
	jne	LBB74_5
	.loc	3 0 17
	movq	-80(%rbp), %rsi
	movq	-88(%rbp), %rdi
	.loc	3 970 49 is_stmt 1
	movb	$0, -41(%rbp)
Ltmp706:
	.loc	3 970 29 is_stmt 0
	callq	__ZN3std6thread5local4fast12Key$LT$T$GT$14try_initialize17hbb7d683525ee6dceE
Ltmp707:
	movq	%rax, -96(%rbp)
	jmp	LBB74_7
LBB74_5:
	.loc	3 969 26 is_stmt 1
	movq	-56(%rbp), %rax
	movq	%rax, -8(%rbp)
Ltmp710:
	.loc	3 969 34 is_stmt 0
	movq	%rax, -64(%rbp)
Ltmp711:
LBB74_6:
	.loc	3 973 9 is_stmt 1
	testb	$1, -41(%rbp)
	jne	LBB74_11
	jmp	LBB74_10
LBB74_7:
	.loc	3 0 9 is_stmt 0
	movq	-96(%rbp), %rax
	.loc	3 970 29 is_stmt 1
	movq	%rax, -64(%rbp)
	.loc	3 970 53 is_stmt 0
	jmp	LBB74_6
LBB74_8:
	.loc	3 959 9 is_stmt 1
	movq	-24(%rbp), %rdi
	callq	__Unwind_Resume
LBB74_9:
	.loc	3 973 9
	jmp	LBB74_8
LBB74_10:
	.loc	3 973 10 is_stmt 0
	movq	-64(%rbp), %rax
	addq	$96, %rsp
	popq	%rbp
	retq
LBB74_11:
	.loc	3 973 9
	jmp	LBB74_10
Ltmp712:
Lfunc_end74:
	.cfi_endproc
	.section	__TEXT,__gcc_except_tab
	.p2align	2
GCC_except_table74:
Lexception12:
	.byte	255
	.byte	255
	.byte	1
	.uleb128 Lcst_end12-Lcst_begin12
Lcst_begin12:
	.uleb128 Ltmp704-Lfunc_begin74
	.uleb128 Ltmp707-Ltmp704
	.uleb128 Ltmp708-Lfunc_begin74
	.byte	0
	.uleb128 Ltmp707-Lfunc_begin74
	.uleb128 Lfunc_end74-Ltmp707
	.byte	0
	.byte	0
Lcst_end12:
	.p2align	2

	.section	__TEXT,__text,regular,pure_instructions
	.globl	__ZN3std6thread5local4fast13destroy_value17h39660df76cee6b28E
	.p2align	4, 0x90
__ZN3std6thread5local4fast13destroy_value17h39660df76cee6b28E:
Lfunc_begin75:
	.loc	3 1017 0 is_stmt 1
	.cfi_startproc
	.cfi_personality 155, _rust_eh_personality
	.cfi_lsda 16, Lexception13
	pushq	%rbp
	.cfi_def_cfa_offset 16
	.cfi_offset %rbp, -16
	movq	%rsp, %rbp
	.cfi_def_cfa_register %rbp
	subq	$304, %rsp
	movq	%rdi, -64(%rbp)
Ltmp730:
	.loc	3 1018 19 prologue_end
	movq	%rdi, -256(%rbp)
	leaq	-256(%rbp), %rax
Ltmp731:
	.loc	3 1033 69
	movq	%rax, -224(%rbp)
	.loc	3 1033 45 is_stmt 0
	movq	-224(%rbp), %rax
	movq	%rax, -232(%rbp)
	.loc	3 1033 25
	movq	-232(%rbp), %rdi
Ltmp713:
	callq	__ZN3std5panic12catch_unwind17h7c02cc324a2212b3E
Ltmp714:
	movq	%rdx, -272(%rbp)
	movq	%rax, -264(%rbp)
	jmp	LBB75_3
Ltmp732:
LBB75_1:
	.loc	3 1017 5 is_stmt 1
	callq	__ZN4core9panicking19panic_cannot_unwind17h1fbca7e1d7f56ae1E
LBB75_2:
Ltmp729:
	.loc	3 0 5 is_stmt 0
	movq	%rax, %rcx
	movl	%edx, %eax
	movq	%rcx, -56(%rbp)
	movl	%eax, -48(%rbp)
	jmp	LBB75_1
LBB75_3:
	movq	-272(%rbp), %rax
	movq	-264(%rbp), %rcx
Ltmp733:
	.loc	3 1033 25 is_stmt 1
	movq	%rcx, -248(%rbp)
	movq	%rax, -240(%rbp)
	.loc	3 1033 16 is_stmt 0
	movq	-248(%rbp), %rdx
	movl	$1, %eax
	xorl	%ecx, %ecx
	cmpq	$0, %rdx
	cmoveq	%rcx, %rax
	cmpq	$1, %rax
	jne	LBB75_5
Ltmp717:
Ltmp734:
	.loc	3 1038 13 is_stmt 1
	callq	__ZN3std3sys4unix5stdio12panic_output17hbdb9d595bb134988E
Ltmp718:
	movb	%al, -273(%rbp)
	jmp	LBB75_7
Ltmp735:
LBB75_5:
Ltmp715:
	.loc	3 0 13 is_stmt 0
	leaq	-248(%rbp), %rdi
	.loc	3 1040 5 is_stmt 1
	callq	__ZN4core3ptr130drop_in_place$LT$core..result..Result$LT$$LP$$RP$$C$alloc..boxed..Box$LT$dyn$u20$core..any..Any$u2b$core..marker..Send$GT$$GT$$GT$17hb84537f3b296a86dE
Ltmp716:
	jmp	LBB75_6
LBB75_6:
	.loc	3 1040 6 is_stmt 0
	addq	$304, %rsp
	popq	%rbp
	retq
LBB75_7:
	.loc	3 0 6
	movb	-273(%rbp), %al
Ltmp736:
	.loc	3 1038 13 is_stmt 1
	andb	$1, %al
	movb	%al, -209(%rbp)
	movb	-209(%rbp), %al
	andb	$1, %al
	movzbl	%al, %eax
	cmpq	$1, %rax
	jne	LBB75_9
Ltmp719:
	leaq	l___unnamed_34(%rip), %rsi
	leaq	l___unnamed_28(%rip), %rcx
	xorl	%eax, %eax
	movl	%eax, %r8d
	leaq	-112(%rbp), %rdi
	movl	$1, %edx
	callq	__ZN4core3fmt9Arguments6new_v117ha0678a6c42b68c71E
Ltmp720:
	jmp	LBB75_10
Ltmp737:
LBB75_9:
Ltmp727:
	.loc	3 1038 13 is_stmt 0
	callq	__ZN3std3sys4unix14abort_internal17h2d537589b8bbc756E
Ltmp728:
	jmp	LBB75_16
LBB75_10:
Ltmp738:
	.loc	3 1038 13
	leaq	-112(%rbp), %rax
	movq	%rax, -40(%rbp)
Ltmp739:
	.file	41 "/rustc/2c8cc343237b8f7d5a3c3703e3a87f2eb2c54a74/library/core/src/fmt" "mod.rs"
	.loc	41 328 23 is_stmt 1
	leaq	-112(%rbp), %rax
	movq	%rax, -32(%rbp)
	.loc	41 328 26 is_stmt 0
	movq	__ZN59_$LT$core..fmt..Arguments$u20$as$u20$core..fmt..Display$GT$3fmt17h99a13c0e04235e08E@GOTPCREL(%rip), %rax
	movq	%rax, -24(%rbp)
Ltmp740:
	.loc	41 347 42 is_stmt 1
	movq	__ZN59_$LT$core..fmt..Arguments$u20$as$u20$core..fmt..Display$GT$3fmt17h99a13c0e04235e08E@GOTPCREL(%rip), %rax
	movq	%rax, -16(%rbp)
	movq	-16(%rbp), %rax
	movq	%rax, -288(%rbp)
	.loc	41 347 68 is_stmt 0
	leaq	-112(%rbp), %rax
	movq	%rax, -8(%rbp)
	movq	-8(%rbp), %rax
	movq	%rax, -296(%rbp)
	.loc	41 0 68
	movq	-288(%rbp), %rax
	movq	-296(%rbp), %rcx
	.loc	41 347 18
	movq	%rcx, -128(%rbp)
	movq	%rax, -120(%rbp)
Ltmp741:
	.loc	3 1038 13 is_stmt 1
	movq	-128(%rbp), %rcx
	movq	-120(%rbp), %rax
	movq	%rcx, -144(%rbp)
	movq	%rax, -136(%rbp)
Ltmp721:
	leaq	l___unnamed_35(%rip), %rsi
	leaq	-192(%rbp), %rdi
	movl	$2, %edx
	leaq	-144(%rbp), %rcx
	movl	$1, %r8d
	callq	__ZN4core3fmt9Arguments6new_v117ha0678a6c42b68c71E
Ltmp722:
	jmp	LBB75_13
LBB75_13:
Ltmp723:
	.loc	3 0 13 is_stmt 0
	leaq	-208(%rbp), %rdi
	leaq	-192(%rbp), %rsi
	.loc	3 1038 13
	callq	__ZN3std2io5Write9write_fmt17h32f55008490ae4b8E
Ltmp724:
	movq	%rax, -304(%rbp)
	jmp	LBB75_14
LBB75_14:
	.loc	3 0 13
	movq	-304(%rbp), %rax
	.loc	3 1038 13
	movq	%rax, -200(%rbp)
Ltmp725:
	leaq	-200(%rbp), %rdi
	callq	__ZN4core3ptr81drop_in_place$LT$core..result..Result$LT$$LP$$RP$$C$std..io..error..Error$GT$$GT$17hc4d2f216abb9d096E
Ltmp726:
	jmp	LBB75_15
Ltmp742:
LBB75_15:
	.loc	3 1038 13
	jmp	LBB75_9
Ltmp743:
LBB75_16:
	.loc	3 0 13
	ud2
Lfunc_end75:
	.cfi_endproc
	.file	42 "/rustc/2c8cc343237b8f7d5a3c3703e3a87f2eb2c54a74/library/std/src" "rt.rs"
	.section	__TEXT,__gcc_except_tab
	.p2align	2
GCC_except_table75:
Lexception13:
	.byte	255
	.byte	255
	.byte	1
	.uleb128 Lcst_end13-Lcst_begin13
Lcst_begin13:
	.uleb128 Ltmp713-Lfunc_begin75
	.uleb128 Ltmp726-Ltmp713
	.uleb128 Ltmp729-Lfunc_begin75
	.byte	0
Lcst_end13:
	.p2align	2

	.section	__TEXT,__text,regular,pure_instructions
	.globl	__ZN3std6thread5local4fast13destroy_value17hf0cc5cb0b95a1d03E
	.p2align	4, 0x90
__ZN3std6thread5local4fast13destroy_value17hf0cc5cb0b95a1d03E:
Lfunc_begin76:
	.loc	3 1017 0 is_stmt 1
	.cfi_startproc
	.cfi_personality 155, _rust_eh_personality
	.cfi_lsda 16, Lexception14
	pushq	%rbp
	.cfi_def_cfa_offset 16
	.cfi_offset %rbp, -16
	movq	%rsp, %rbp
	.cfi_def_cfa_register %rbp
	subq	$304, %rsp
	movq	%rdi, -64(%rbp)
Ltmp761:
	.loc	3 1018 19 prologue_end
	movq	%rdi, -256(%rbp)
	leaq	-256(%rbp), %rax
Ltmp762:
	.loc	3 1033 69
	movq	%rax, -224(%rbp)
	.loc	3 1033 45 is_stmt 0
	movq	-224(%rbp), %rax
	movq	%rax, -232(%rbp)
	.loc	3 1033 25
	movq	-232(%rbp), %rdi
Ltmp744:
	callq	__ZN3std5panic12catch_unwind17h870184a217e49478E
Ltmp745:
	movq	%rdx, -272(%rbp)
	movq	%rax, -264(%rbp)
	jmp	LBB76_3
Ltmp763:
LBB76_1:
	.loc	3 1017 5 is_stmt 1
	callq	__ZN4core9panicking19panic_cannot_unwind17h1fbca7e1d7f56ae1E
LBB76_2:
Ltmp760:
	.loc	3 0 5 is_stmt 0
	movq	%rax, %rcx
	movl	%edx, %eax
	movq	%rcx, -56(%rbp)
	movl	%eax, -48(%rbp)
	jmp	LBB76_1
LBB76_3:
	movq	-272(%rbp), %rax
	movq	-264(%rbp), %rcx
Ltmp764:
	.loc	3 1033 25 is_stmt 1
	movq	%rcx, -248(%rbp)
	movq	%rax, -240(%rbp)
	.loc	3 1033 16 is_stmt 0
	movq	-248(%rbp), %rdx
	movl	$1, %eax
	xorl	%ecx, %ecx
	cmpq	$0, %rdx
	cmoveq	%rcx, %rax
	cmpq	$1, %rax
	jne	LBB76_5
Ltmp748:
Ltmp765:
	.loc	3 1038 13 is_stmt 1
	callq	__ZN3std3sys4unix5stdio12panic_output17hbdb9d595bb134988E
Ltmp749:
	movb	%al, -273(%rbp)
	jmp	LBB76_7
Ltmp766:
LBB76_5:
Ltmp746:
	.loc	3 0 13 is_stmt 0
	leaq	-248(%rbp), %rdi
	.loc	3 1040 5 is_stmt 1
	callq	__ZN4core3ptr130drop_in_place$LT$core..result..Result$LT$$LP$$RP$$C$alloc..boxed..Box$LT$dyn$u20$core..any..Any$u2b$core..marker..Send$GT$$GT$$GT$17hb84537f3b296a86dE
Ltmp747:
	jmp	LBB76_6
LBB76_6:
	.loc	3 1040 6 is_stmt 0
	addq	$304, %rsp
	popq	%rbp
	retq
LBB76_7:
	.loc	3 0 6
	movb	-273(%rbp), %al
Ltmp767:
	.loc	3 1038 13 is_stmt 1
	andb	$1, %al
	movb	%al, -209(%rbp)
	movb	-209(%rbp), %al
	andb	$1, %al
	movzbl	%al, %eax
	cmpq	$1, %rax
	jne	LBB76_9
Ltmp750:
	leaq	l___unnamed_34(%rip), %rsi
	leaq	l___unnamed_28(%rip), %rcx
	xorl	%eax, %eax
	movl	%eax, %r8d
	leaq	-112(%rbp), %rdi
	movl	$1, %edx
	callq	__ZN4core3fmt9Arguments6new_v117ha0678a6c42b68c71E
Ltmp751:
	jmp	LBB76_10
Ltmp768:
LBB76_9:
Ltmp758:
	.loc	3 1038 13 is_stmt 0
	callq	__ZN3std3sys4unix14abort_internal17h2d537589b8bbc756E
Ltmp759:
	jmp	LBB76_16
LBB76_10:
Ltmp769:
	.loc	3 1038 13
	leaq	-112(%rbp), %rax
	movq	%rax, -40(%rbp)
Ltmp770:
	.loc	41 328 23 is_stmt 1
	leaq	-112(%rbp), %rax
	movq	%rax, -32(%rbp)
	.loc	41 328 26 is_stmt 0
	movq	__ZN59_$LT$core..fmt..Arguments$u20$as$u20$core..fmt..Display$GT$3fmt17h99a13c0e04235e08E@GOTPCREL(%rip), %rax
	movq	%rax, -24(%rbp)
Ltmp771:
	.loc	41 347 42 is_stmt 1
	movq	__ZN59_$LT$core..fmt..Arguments$u20$as$u20$core..fmt..Display$GT$3fmt17h99a13c0e04235e08E@GOTPCREL(%rip), %rax
	movq	%rax, -16(%rbp)
	movq	-16(%rbp), %rax
	movq	%rax, -288(%rbp)
	.loc	41 347 68 is_stmt 0
	leaq	-112(%rbp), %rax
	movq	%rax, -8(%rbp)
	movq	-8(%rbp), %rax
	movq	%rax, -296(%rbp)
	.loc	41 0 68
	movq	-288(%rbp), %rax
	movq	-296(%rbp), %rcx
	.loc	41 347 18
	movq	%rcx, -128(%rbp)
	movq	%rax, -120(%rbp)
Ltmp772:
	.loc	3 1038 13 is_stmt 1
	movq	-128(%rbp), %rcx
	movq	-120(%rbp), %rax
	movq	%rcx, -144(%rbp)
	movq	%rax, -136(%rbp)
Ltmp752:
	leaq	l___unnamed_35(%rip), %rsi
	leaq	-192(%rbp), %rdi
	movl	$2, %edx
	leaq	-144(%rbp), %rcx
	movl	$1, %r8d
	callq	__ZN4core3fmt9Arguments6new_v117ha0678a6c42b68c71E
Ltmp753:
	jmp	LBB76_13
LBB76_13:
Ltmp754:
	.loc	3 0 13 is_stmt 0
	leaq	-208(%rbp), %rdi
	leaq	-192(%rbp), %rsi
	.loc	3 1038 13
	callq	__ZN3std2io5Write9write_fmt17h32f55008490ae4b8E
Ltmp755:
	movq	%rax, -304(%rbp)
	jmp	LBB76_14
LBB76_14:
	.loc	3 0 13
	movq	-304(%rbp), %rax
	.loc	3 1038 13
	movq	%rax, -200(%rbp)
Ltmp756:
	leaq	-200(%rbp), %rdi
	callq	__ZN4core3ptr81drop_in_place$LT$core..result..Result$LT$$LP$$RP$$C$std..io..error..Error$GT$$GT$17hc4d2f216abb9d096E
Ltmp757:
	jmp	LBB76_15
Ltmp773:
LBB76_15:
	.loc	3 1038 13
	jmp	LBB76_9
Ltmp774:
LBB76_16:
	.loc	3 0 13
	ud2
Lfunc_end76:
	.cfi_endproc
	.section	__TEXT,__gcc_except_tab
	.p2align	2
GCC_except_table76:
Lexception14:
	.byte	255
	.byte	255
	.byte	1
	.uleb128 Lcst_end14-Lcst_begin14
Lcst_begin14:
	.uleb128 Ltmp744-Lfunc_begin76
	.uleb128 Ltmp757-Ltmp744
	.uleb128 Ltmp760-Lfunc_begin76
	.byte	0
Lcst_end14:
	.p2align	2

	.section	__TEXT,__text,regular,pure_instructions
	.globl	__ZN3std6thread5local4fast13destroy_value28_$u7b$$u7b$closure$u7d$$u7d$17h037c57ffe469376cE
	.p2align	4, 0x90
__ZN3std6thread5local4fast13destroy_value28_$u7b$$u7b$closure$u7d$$u7d$17h037c57ffe469376cE:
Lfunc_begin77:
	.loc	3 1033 0 is_stmt 1
	.cfi_startproc
	.cfi_personality 155, _rust_eh_personality
	.cfi_lsda 16, Lexception15
	pushq	%rbp
	.cfi_def_cfa_offset 16
	.cfi_offset %rbp, -16
	movq	%rsp, %rbp
	.cfi_def_cfa_register %rbp
	subq	$96, %rsp
	movq	%rdi, -96(%rbp)
	movq	%rdi, -40(%rbp)
Ltmp783:
	.loc	3 1034 25 prologue_end
	movq	(%rdi), %rax
	movq	(%rax), %rdi
	movb	$1, -41(%rbp)
	callq	__ZN3std6thread5local4lazy21LazyKeyInner$LT$T$GT$4take17h3a0ce795ef90496fE
	movq	-96(%rbp), %rdi
	movq	%rdx, -72(%rbp)
	movq	%rax, -80(%rbp)
Ltmp784:
	.loc	3 1035 13
	movq	(%rdi), %rax
	movq	(%rax), %rdi
	addq	$16, %rdi
	movq	%rdi, -32(%rbp)
Ltmp775:
	movl	$2, %esi
Ltmp785:
	.loc	20 363 19
	callq	__ZN4core4cell13Cell$LT$T$GT$7replace17hd5fca225e5dab8dcE
Ltmp776:
	movb	%al, -81(%rbp)
	jmp	LBB77_3
Ltmp786:
LBB77_1:
	.loc	3 1037 9
	testb	$1, -41(%rbp)
	jne	LBB77_6
	jmp	LBB77_5
LBB77_2:
Ltmp779:
	.loc	3 0 9 is_stmt 0
	movq	%rax, %rcx
	movl	%edx, %eax
	movq	%rcx, -24(%rbp)
	movl	%eax, -16(%rbp)
	jmp	LBB77_1
LBB77_3:
	movb	-81(%rbp), %al
Ltmp787:
	.loc	20 363 19 is_stmt 1
	movb	%al, -1(%rbp)
Ltmp788:
	.loc	3 1036 18
	movb	$0, -41(%rbp)
	movq	-80(%rbp), %rcx
	movq	-72(%rbp), %rax
	movq	%rcx, -64(%rbp)
	movq	%rax, -56(%rbp)
Ltmp777:
	leaq	-64(%rbp), %rdi
Ltmp789:
	.loc	40 980 24
	callq	__ZN4core3ptr98drop_in_place$LT$core..option..Option$LT$crossbeam_utils..sync..sharded_lock..Registration$GT$$GT$17h155fda9e5ae5fda1E
Ltmp778:
	jmp	LBB77_4
Ltmp790:
LBB77_4:
	.loc	3 1037 10
	addq	$96, %rsp
	popq	%rbp
	retq
LBB77_5:
	.loc	3 1033 69
	movq	-24(%rbp), %rdi
	callq	__Unwind_Resume
LBB77_6:
Ltmp780:
	.loc	3 0 69 is_stmt 0
	leaq	-80(%rbp), %rdi
	.loc	3 1037 9 is_stmt 1
	callq	__ZN4core3ptr98drop_in_place$LT$core..option..Option$LT$crossbeam_utils..sync..sharded_lock..Registration$GT$$GT$17h155fda9e5ae5fda1E
Ltmp781:
	jmp	LBB77_5
LBB77_7:
Ltmp782:
	.loc	3 1033 69
	callq	__ZN4core9panicking19panic_cannot_unwind17h1fbca7e1d7f56ae1E
Ltmp791:
Lfunc_end77:
	.cfi_endproc
	.section	__TEXT,__gcc_except_tab
	.p2align	2
GCC_except_table77:
Lexception15:
	.byte	255
	.byte	255
	.byte	1
	.uleb128 Lcst_end15-Lcst_begin15
Lcst_begin15:
	.uleb128 Lfunc_begin77-Lfunc_begin77
	.uleb128 Ltmp775-Lfunc_begin77
	.byte	0
	.byte	0
	.uleb128 Ltmp775-Lfunc_begin77
	.uleb128 Ltmp778-Ltmp775
	.uleb128 Ltmp779-Lfunc_begin77
	.byte	0
	.uleb128 Ltmp778-Lfunc_begin77
	.uleb128 Ltmp780-Ltmp778
	.byte	0
	.byte	0
	.uleb128 Ltmp780-Lfunc_begin77
	.uleb128 Ltmp781-Ltmp780
	.uleb128 Ltmp782-Lfunc_begin77
	.byte	0
Lcst_end15:
	.p2align	2

	.section	__TEXT,__text,regular,pure_instructions
	.globl	__ZN3std6thread5local4fast13destroy_value28_$u7b$$u7b$closure$u7d$$u7d$17h2b5b17e0d4a5157fE
	.p2align	4, 0x90
__ZN3std6thread5local4fast13destroy_value28_$u7b$$u7b$closure$u7d$$u7d$17h2b5b17e0d4a5157fE:
Lfunc_begin78:
	.loc	3 1033 0
	.cfi_startproc
	.cfi_personality 155, _rust_eh_personality
	.cfi_lsda 16, Lexception16
	pushq	%rbp
	.cfi_def_cfa_offset 16
	.cfi_offset %rbp, -16
	movq	%rsp, %rbp
	.cfi_def_cfa_register %rbp
	subq	$112, %rsp
	movq	%rdi, -112(%rbp)
	movq	%rdi, -40(%rbp)
Ltmp795:
	.loc	3 1034 25 prologue_end
	movq	(%rdi), %rax
	movq	(%rax), %rsi
	movb	$1, -41(%rbp)
	leaq	-96(%rbp), %rdi
	callq	__ZN3std6thread5local4lazy21LazyKeyInner$LT$T$GT$4take17hcaadccf5f22ba9beE
	movq	-112(%rbp), %rdi
Ltmp796:
	.loc	3 1035 13
	movq	(%rdi), %rax
	movq	(%rax), %rdi
	addq	$24, %rdi
	movq	%rdi, -32(%rbp)
Ltmp792:
	movl	$2, %esi
Ltmp797:
	.loc	20 363 19
	callq	__ZN4core4cell13Cell$LT$T$GT$7replace17hd5fca225e5dab8dcE
Ltmp793:
	movb	%al, -97(%rbp)
	jmp	LBB78_3
Ltmp798:
LBB78_1:
	.loc	3 1037 9
	testb	$1, -41(%rbp)
	jne	LBB78_6
	jmp	LBB78_5
LBB78_2:
Ltmp794:
	.loc	3 0 9 is_stmt 0
	movq	%rax, %rcx
	movl	%edx, %eax
	movq	%rcx, -24(%rbp)
	movl	%eax, -16(%rbp)
	jmp	LBB78_1
LBB78_3:
	movb	-97(%rbp), %al
Ltmp799:
	.loc	20 363 19 is_stmt 1
	movb	%al, -1(%rbp)
Ltmp800:
	.loc	3 1036 18
	movb	$0, -41(%rbp)
	movq	-96(%rbp), %rax
	movq	%rax, -72(%rbp)
	movq	-88(%rbp), %rax
	movq	%rax, -64(%rbp)
	movq	-80(%rbp), %rax
	movq	%rax, -56(%rbp)
Ltmp801:
	.loc	3 1037 10
	addq	$112, %rsp
	popq	%rbp
	retq
LBB78_5:
	.loc	3 1033 69
	movq	-24(%rbp), %rdi
	callq	__Unwind_Resume
LBB78_6:
	.loc	3 1037 9
	jmp	LBB78_5
Ltmp802:
Lfunc_end78:
	.cfi_endproc
	.section	__TEXT,__gcc_except_tab
	.p2align	2
GCC_except_table78:
Lexception16:
	.byte	255
	.byte	255
	.byte	1
	.uleb128 Lcst_end16-Lcst_begin16
Lcst_begin16:
	.uleb128 Lfunc_begin78-Lfunc_begin78
	.uleb128 Ltmp792-Lfunc_begin78
	.byte	0
	.byte	0
	.uleb128 Ltmp792-Lfunc_begin78
	.uleb128 Ltmp793-Ltmp792
	.uleb128 Ltmp794-Lfunc_begin78
	.byte	0
	.uleb128 Ltmp793-Lfunc_begin78
	.uleb128 Lfunc_end78-Ltmp793
	.byte	0
	.byte	0
Lcst_end16:
	.p2align	2

	.section	__TEXT,__text,regular,pure_instructions
	.globl	__ZN3std6thread5local4lazy21LazyKeyInner$LT$T$GT$10initialize17h2d62fdbe92d26144E
	.p2align	4, 0x90
__ZN3std6thread5local4lazy21LazyKeyInner$LT$T$GT$10initialize17h2d62fdbe92d26144E:
Lfunc_begin79:
	.loc	3 807 0
	.cfi_startproc
	.cfi_personality 155, _rust_eh_personality
	.cfi_lsda 16, Lexception17
	pushq	%rbp
	.cfi_def_cfa_offset 16
	.cfi_offset %rbp, -16
	movq	%rsp, %rbp
	.cfi_def_cfa_register %rbp
	subq	$144, %rsp
	movq	%rsi, -136(%rbp)
	movq	%rdi, %rax
	movq	-136(%rbp), %rdi
	movq	%rax, -128(%rbp)
	movq	%rax, -72(%rbp)
	movq	%rdi, -64(%rbp)
Ltmp808:
	.loc	3 810 25 prologue_end
	callq	__ZN3std11collections4hash3map11RandomState3new4KEYS7__getit28_$u7b$$u7b$closure$u7d$$u7d$17h3eb04ce8c6399e7eE
	movq	-128(%rbp), %rsi
	movq	%rax, -56(%rbp)
	movq	%rdx, -48(%rbp)
Ltmp809:
	.loc	3 811 23
	movq	%rsi, -40(%rbp)
Ltmp810:
	.loc	20 1999 9
	movq	%rsi, -32(%rbp)
Ltmp811:
	.loc	3 831 49
	movq	%rax, -88(%rbp)
	movq	%rdx, -80(%rbp)
	movq	$1, -96(%rbp)
Ltmp803:
	leaq	-120(%rbp), %rdi
	leaq	-96(%rbp), %rdx
	.loc	3 831 25 is_stmt 0
	callq	__ZN4core3mem7replace17hd088935928a1d0feE
Ltmp804:
	jmp	LBB79_3
Ltmp812:
LBB79_1:
	.loc	3 848 9 is_stmt 1
	xorl	%eax, %eax
	testb	$1, %al
	jne	LBB79_9
	jmp	LBB79_8
LBB79_2:
Ltmp807:
	.loc	3 0 9 is_stmt 0
	movq	%rax, %rcx
	movl	%edx, %eax
	movq	%rcx, -24(%rbp)
	movl	%eax, -16(%rbp)
	jmp	LBB79_1
LBB79_3:
Ltmp813:
	.loc	3 831 61 is_stmt 1
	jmp	LBB79_4
LBB79_4:
	.loc	3 0 61 is_stmt 0
	movq	-128(%rbp), %rax
	.loc	3 843 17 is_stmt 1
	cmpq	$0, (%rax)
	jne	LBB79_6
Ltmp805:
	.loc	3 845 29
	callq	__ZN4core4hint21unreachable_unchecked17h13515537dced3df8E
Ltmp806:
	jmp	LBB79_7
LBB79_6:
	.loc	3 0 29 is_stmt 0
	movq	-128(%rbp), %rax
	.loc	3 844 26 is_stmt 1
	addq	$8, %rax
	movq	%rax, -8(%rbp)
Ltmp814:
	.loc	3 848 10
	addq	$144, %rsp
	popq	%rbp
	retq
LBB79_7:
	.loc	3 0 10 is_stmt 0
	ud2
LBB79_8:
	.loc	3 807 9 is_stmt 1
	movq	-24(%rbp), %rdi
	callq	__Unwind_Resume
LBB79_9:
	.loc	3 848 9
	jmp	LBB79_8
Ltmp815:
Lfunc_end79:
	.cfi_endproc
	.section	__TEXT,__gcc_except_tab
	.p2align	2
GCC_except_table79:
Lexception17:
	.byte	255
	.byte	255
	.byte	1
	.uleb128 Lcst_end17-Lcst_begin17
Lcst_begin17:
	.uleb128 Lfunc_begin79-Lfunc_begin79
	.uleb128 Ltmp803-Lfunc_begin79
	.byte	0
	.byte	0
	.uleb128 Ltmp803-Lfunc_begin79
	.uleb128 Ltmp806-Ltmp803
	.uleb128 Ltmp807-Lfunc_begin79
	.byte	0
	.uleb128 Ltmp806-Lfunc_begin79
	.uleb128 Lfunc_end79-Ltmp806
	.byte	0
	.byte	0
Lcst_end17:
	.p2align	2

	.section	__TEXT,__text,regular,pure_instructions
	.globl	__ZN3std6thread5local4lazy21LazyKeyInner$LT$T$GT$10initialize17h68c31aada2fa7d34E
	.p2align	4, 0x90
__ZN3std6thread5local4lazy21LazyKeyInner$LT$T$GT$10initialize17h68c31aada2fa7d34E:
Lfunc_begin80:
	.loc	3 807 0
	.cfi_startproc
	.cfi_personality 155, _rust_eh_personality
	.cfi_lsda 16, Lexception18
	pushq	%rbp
	.cfi_def_cfa_offset 16
	.cfi_offset %rbp, -16
	movq	%rsp, %rbp
	.cfi_def_cfa_register %rbp
	subq	$144, %rsp
	movq	%rsi, -136(%rbp)
	movq	%rdi, %rax
	movq	-136(%rbp), %rdi
	movq	%rax, -128(%rbp)
	movq	%rax, -56(%rbp)
	movq	%rdi, -48(%rbp)
Ltmp826:
	.loc	3 810 25 prologue_end
	callq	__ZN15crossbeam_utils4sync12sharded_lock12REGISTRATION7__getit28_$u7b$$u7b$closure$u7d$$u7d$17h6d087c9395549e32E
	movq	-128(%rbp), %rdi
	movq	%rdx, -96(%rbp)
	movq	%rax, -104(%rbp)
Ltmp827:
	.loc	3 811 23
	movq	%rdi, -40(%rbp)
Ltmp828:
	.loc	20 1999 9
	movq	%rdi, -32(%rbp)
Ltmp829:
	.loc	3 831 54
	movq	-104(%rbp), %rcx
	movq	-96(%rbp), %rax
	.loc	3 831 49 is_stmt 0
	movq	%rcx, -72(%rbp)
	movq	%rax, -64(%rbp)
	.loc	3 831 25
	movq	-72(%rbp), %rsi
	movq	-64(%rbp), %rdx
Ltmp816:
	callq	__ZN4core3mem7replace17h857ca5d33c2040b5E
Ltmp817:
	movq	%rdx, -120(%rbp)
	movq	%rax, -112(%rbp)
	jmp	LBB80_3
Ltmp830:
LBB80_1:
	.loc	3 848 9 is_stmt 1
	xorl	%eax, %eax
	testb	$1, %al
	jne	LBB80_9
	jmp	LBB80_8
LBB80_2:
Ltmp822:
	.loc	3 0 9 is_stmt 0
	movq	%rax, %rcx
	movl	%edx, %eax
	movq	%rcx, -24(%rbp)
	movl	%eax, -16(%rbp)
	jmp	LBB80_1
LBB80_3:
	movq	-120(%rbp), %rax
	movq	-112(%rbp), %rcx
Ltmp831:
	.loc	3 831 25 is_stmt 1
	movq	%rcx, -88(%rbp)
	movq	%rax, -80(%rbp)
Ltmp818:
	leaq	-88(%rbp), %rdi
	.loc	3 831 61 is_stmt 0
	callq	__ZN4core3ptr98drop_in_place$LT$core..option..Option$LT$crossbeam_utils..sync..sharded_lock..Registration$GT$$GT$17h155fda9e5ae5fda1E
Ltmp819:
	jmp	LBB80_4
LBB80_4:
	.loc	3 0 61
	movq	-128(%rbp), %rdx
	.loc	3 843 23 is_stmt 1
	movl	$1, %eax
	xorl	%ecx, %ecx
	cmpq	$0, 8(%rdx)
	cmoveq	%rcx, %rax
	.loc	3 843 17 is_stmt 0
	cmpq	$0, %rax
	jne	LBB80_6
Ltmp820:
	.loc	3 845 29 is_stmt 1
	callq	__ZN4core4hint21unreachable_unchecked17h13515537dced3df8E
Ltmp821:
	jmp	LBB80_7
LBB80_6:
	.loc	3 0 29 is_stmt 0
	movq	-128(%rbp), %rax
	.loc	3 844 26 is_stmt 1
	movq	%rax, -8(%rbp)
Ltmp832:
	.loc	3 848 10
	addq	$144, %rsp
	popq	%rbp
	retq
LBB80_7:
	.loc	3 0 10 is_stmt 0
	ud2
LBB80_8:
	.loc	3 807 9 is_stmt 1
	movq	-24(%rbp), %rdi
	callq	__Unwind_Resume
LBB80_9:
Ltmp823:
	.loc	3 0 9 is_stmt 0
	leaq	-104(%rbp), %rdi
	.loc	3 848 9 is_stmt 1
	callq	__ZN4core3ptr70drop_in_place$LT$crossbeam_utils..sync..sharded_lock..Registration$GT$17hfc5a87e79b0dbe93E
Ltmp824:
	jmp	LBB80_8
LBB80_10:
Ltmp825:
	.loc	3 807 9
	callq	__ZN4core9panicking19panic_cannot_unwind17h1fbca7e1d7f56ae1E
Ltmp833:
Lfunc_end80:
	.cfi_endproc
	.section	__TEXT,__gcc_except_tab
	.p2align	2
GCC_except_table80:
Lexception18:
	.byte	255
	.byte	255
	.byte	1
	.uleb128 Lcst_end18-Lcst_begin18
Lcst_begin18:
	.uleb128 Lfunc_begin80-Lfunc_begin80
	.uleb128 Ltmp816-Lfunc_begin80
	.byte	0
	.byte	0
	.uleb128 Ltmp816-Lfunc_begin80
	.uleb128 Ltmp821-Ltmp816
	.uleb128 Ltmp822-Lfunc_begin80
	.byte	0
	.uleb128 Ltmp821-Lfunc_begin80
	.uleb128 Ltmp823-Ltmp821
	.byte	0
	.byte	0
	.uleb128 Ltmp823-Lfunc_begin80
	.uleb128 Ltmp824-Ltmp823
	.uleb128 Ltmp825-Lfunc_begin80
	.byte	0
Lcst_end18:
	.p2align	2

	.section	__TEXT,__text,regular,pure_instructions
	.globl	__ZN3std6thread5local4lazy21LazyKeyInner$LT$T$GT$3get17h429eb6a797a329e5E
	.p2align	4, 0x90
__ZN3std6thread5local4lazy21LazyKeyInner$LT$T$GT$3get17h429eb6a797a329e5E:
Lfunc_begin81:
	.loc	3 797 0
	.cfi_startproc
	pushq	%rbp
	.cfi_def_cfa_offset 16
	.cfi_offset %rbp, -16
	movq	%rsp, %rbp
	.cfi_def_cfa_register %rbp
	subq	$48, %rsp
	movq	%rdi, -48(%rbp)
	movq	%rdi, -32(%rbp)
Ltmp834:
	.loc	3 802 24 prologue_end
	movq	%rdi, -24(%rbp)
	.loc	3 802 22 is_stmt 0
	movq	%rdi, -16(%rbp)
Ltmp835:
	.loc	22 675 9 is_stmt 1
	cmpq	$0, (%rdi)
	jne	LBB81_2
	.loc	22 677 21
	movq	$0, -40(%rbp)
	jmp	LBB81_3
LBB81_2:
	.loc	22 0 21 is_stmt 0
	movq	-48(%rbp), %rax
	.loc	22 676 18 is_stmt 1
	addq	$8, %rax
	movq	%rax, -8(%rbp)
Ltmp836:
	.loc	22 676 28 is_stmt 0
	movq	%rax, -40(%rbp)
Ltmp837:
LBB81_3:
	.loc	3 803 10 is_stmt 1
	movq	-40(%rbp), %rax
	addq	$48, %rsp
	popq	%rbp
	retq
Ltmp838:
Lfunc_end81:
	.cfi_endproc

	.globl	__ZN3std6thread5local4lazy21LazyKeyInner$LT$T$GT$3get17ha0adff8522a3b7c2E
	.p2align	4, 0x90
__ZN3std6thread5local4lazy21LazyKeyInner$LT$T$GT$3get17ha0adff8522a3b7c2E:
Lfunc_begin82:
	.loc	3 797 0
	.cfi_startproc
	pushq	%rbp
	.cfi_def_cfa_offset 16
	.cfi_offset %rbp, -16
	movq	%rsp, %rbp
	.cfi_def_cfa_register %rbp
	subq	$48, %rsp
	movq	%rdi, -48(%rbp)
	movq	%rdi, -32(%rbp)
Ltmp839:
	.loc	3 802 24 prologue_end
	movq	%rdi, -24(%rbp)
	.loc	3 802 22 is_stmt 0
	movq	%rdi, -16(%rbp)
Ltmp840:
	.loc	22 675 15 is_stmt 1
	movl	$1, %eax
	xorl	%ecx, %ecx
	cmpq	$0, 8(%rdi)
	cmoveq	%rcx, %rax
	.loc	22 675 9 is_stmt 0
	cmpq	$0, %rax
	jne	LBB82_2
	.loc	22 677 21 is_stmt 1
	movq	$0, -40(%rbp)
	jmp	LBB82_3
LBB82_2:
	.loc	22 0 21 is_stmt 0
	movq	-48(%rbp), %rax
	.loc	22 676 18 is_stmt 1
	movq	%rax, -8(%rbp)
Ltmp841:
	.loc	22 676 28 is_stmt 0
	movq	%rax, -40(%rbp)
Ltmp842:
LBB82_3:
	.loc	3 803 10 is_stmt 1
	movq	-40(%rbp), %rax
	addq	$48, %rsp
	popq	%rbp
	retq
Ltmp843:
Lfunc_end82:
	.cfi_endproc

	.globl	__ZN3std6thread5local4lazy21LazyKeyInner$LT$T$GT$4take17h3a0ce795ef90496fE
	.p2align	4, 0x90
__ZN3std6thread5local4lazy21LazyKeyInner$LT$T$GT$4take17h3a0ce795ef90496fE:
Lfunc_begin83:
	.loc	3 854 0
	.cfi_startproc
	pushq	%rbp
	.cfi_def_cfa_offset 16
	.cfi_offset %rbp, -16
	movq	%rsp, %rbp
	.cfi_def_cfa_register %rbp
	subq	$48, %rsp
	movq	%rdi, -24(%rbp)
Ltmp844:
	.loc	3 856 24 prologue_end
	movq	%rdi, -16(%rbp)
	.loc	3 856 22 is_stmt 0
	movq	%rdi, -8(%rbp)
Ltmp845:
	.loc	22 1623 28 is_stmt 1
	movq	$0, -32(%rbp)
	.loc	22 1623 9 is_stmt 0
	movq	-40(%rbp), %rsi
	movq	-32(%rbp), %rdx
	callq	__ZN4core3mem7replace17h857ca5d33c2040b5E
Ltmp846:
	.loc	3 857 10 is_stmt 1
	addq	$48, %rsp
	popq	%rbp
	retq
Ltmp847:
Lfunc_end83:
	.cfi_endproc

	.globl	__ZN3std6thread5local4lazy21LazyKeyInner$LT$T$GT$4take17hcaadccf5f22ba9beE
	.p2align	4, 0x90
__ZN3std6thread5local4lazy21LazyKeyInner$LT$T$GT$4take17hcaadccf5f22ba9beE:
Lfunc_begin84:
	.loc	3 854 0
	.cfi_startproc
	pushq	%rbp
	.cfi_def_cfa_offset 16
	.cfi_offset %rbp, -16
	movq	%rsp, %rbp
	.cfi_def_cfa_register %rbp
	subq	$64, %rsp
	movq	%rdi, %rax
	movq	%rax, -56(%rbp)
	movq	%rsi, -24(%rbp)
Ltmp848:
	.loc	3 856 24 prologue_end
	movq	%rsi, -16(%rbp)
	.loc	3 856 22 is_stmt 0
	movq	%rsi, -8(%rbp)
Ltmp849:
	.loc	22 1623 28 is_stmt 1
	movq	$0, -48(%rbp)
	.loc	22 1623 9 is_stmt 0
	leaq	-48(%rbp), %rdx
	callq	__ZN4core3mem7replace17hd088935928a1d0feE
	movq	-56(%rbp), %rax
Ltmp850:
	.loc	3 857 10 is_stmt 1
	addq	$64, %rsp
	popq	%rbp
	retq
Ltmp851:
Lfunc_end84:
	.cfi_endproc

	.globl	__ZN3std9panicking11begin_panic17h19339d857cdf8d39E
	.p2align	4, 0x90
__ZN3std9panicking11begin_panic17h19339d857cdf8d39E:
Lfunc_begin85:
	.loc	36 601 0
	.cfi_startproc
	.cfi_personality 155, _rust_eh_personality
	.cfi_lsda 16, Lexception19
	pushq	%rbp
	.cfi_def_cfa_offset 16
	.cfi_offset %rbp, -16
	movq	%rsp, %rbp
	.cfi_def_cfa_register %rbp
	subq	$112, %rsp
	movq	%rdi, -104(%rbp)
	movq	%rsi, -96(%rbp)
	movq	%rdi, -48(%rbp)
	movq	%rsi, -40(%rbp)
Ltmp855:
	.loc	36 602 5 prologue_end
	movb	$1, -49(%rbp)
Ltmp856:
	.file	43 "/rustc/2c8cc343237b8f7d5a3c3703e3a87f2eb2c54a74/library/core/src/panic" "location.rs"
	.loc	43 88 9
	movq	%rdx, -32(%rbp)
	movq	-32(%rbp), %rax
	movq	%rax, -88(%rbp)
	movq	%rax, -24(%rbp)
Ltmp857:
	.loc	43 0 9 is_stmt 0
	movq	-88(%rbp), %rax
	movq	-96(%rbp), %rcx
	movq	-104(%rbp), %rdx
Ltmp858:
	.loc	36 607 69 is_stmt 1
	movb	$0, -49(%rbp)
	movq	%rdx, -80(%rbp)
	movq	%rcx, -72(%rbp)
	movq	%rax, -64(%rbp)
Ltmp852:
	leaq	-80(%rbp), %rdi
	.loc	36 607 12 is_stmt 0
	callq	__ZN3std10sys_common9backtrace26__rust_end_short_backtrace17he4aac6af351513e0E
Ltmp853:
	jmp	LBB85_4
Ltmp859:
LBB85_2:
	.loc	36 642 1 is_stmt 1
	testb	$1, -49(%rbp)
	jne	LBB85_6
	jmp	LBB85_5
LBB85_3:
Ltmp854:
	.loc	36 0 1 is_stmt 0
	movq	%rax, %rcx
	movl	%edx, %eax
	movq	%rcx, -16(%rbp)
	movl	%eax, -8(%rbp)
	jmp	LBB85_2
LBB85_4:
	ud2
LBB85_5:
	.loc	36 601 1 is_stmt 1
	movq	-16(%rbp), %rdi
	callq	__Unwind_Resume
LBB85_6:
	.loc	36 642 1
	jmp	LBB85_5
Ltmp860:
Lfunc_end85:
	.cfi_endproc
	.section	__TEXT,__gcc_except_tab
	.p2align	2
GCC_except_table85:
Lexception19:
	.byte	255
	.byte	255
	.byte	1
	.uleb128 Lcst_end19-Lcst_begin19
Lcst_begin19:
	.uleb128 Ltmp852-Lfunc_begin85
	.uleb128 Ltmp853-Ltmp852
	.uleb128 Ltmp854-Lfunc_begin85
	.byte	0
	.uleb128 Ltmp853-Lfunc_begin85
	.uleb128 Lfunc_end85-Ltmp853
	.byte	0
	.byte	0
Lcst_end19:
	.p2align	2

	.section	__TEXT,__text,regular,pure_instructions
	.globl	__ZN3std9panicking11begin_panic21PanicPayload$LT$A$GT$3new17hff7d6e35550bdf72E
	.p2align	4, 0x90
__ZN3std9panicking11begin_panic21PanicPayload$LT$A$GT$3new17hff7d6e35550bdf72E:
Lfunc_begin86:
	.loc	36 616 0
	.cfi_startproc
	pushq	%rbp
	.cfi_def_cfa_offset 16
	.cfi_offset %rbp, -16
	movq	%rsp, %rbp
	.cfi_def_cfa_register %rbp
	subq	$48, %rsp
	movq	%rdi, -16(%rbp)
	movq	%rsi, -8(%rbp)
Ltmp861:
	.loc	36 617 35 prologue_end
	movq	%rdi, -32(%rbp)
	movq	%rsi, -24(%rbp)
	.loc	36 617 13 is_stmt 0
	movq	-32(%rbp), %rcx
	movq	-24(%rbp), %rax
	movq	%rcx, -48(%rbp)
	movq	%rax, -40(%rbp)
	.loc	36 618 10 is_stmt 1
	movq	-48(%rbp), %rax
	movq	-40(%rbp), %rdx
	addq	$48, %rsp
	popq	%rbp
	retq
Ltmp862:
Lfunc_end86:
	.cfi_endproc

	.globl	__ZN3std9panicking11begin_panic28_$u7b$$u7b$closure$u7d$$u7d$17ha368fb5a094a7ff7E
	.p2align	4, 0x90
__ZN3std9panicking11begin_panic28_$u7b$$u7b$closure$u7d$$u7d$17ha368fb5a094a7ff7E:
Lfunc_begin87:
	.loc	36 607 0
	.cfi_startproc
	.cfi_personality 155, _rust_eh_personality
	.cfi_lsda 16, Lexception20
	pushq	%rbp
	.cfi_def_cfa_offset 16
	.cfi_offset %rbp, -16
	movq	%rsp, %rbp
	.cfi_def_cfa_register %rbp
	subq	$48, %rsp
	movq	%rdi, %rax
	movq	%rax, -48(%rbp)
Ltmp866:
	.loc	36 608 53 prologue_end
	movq	(%rax), %rdi
	movq	8(%rax), %rsi
	.loc	36 608 35 is_stmt 0
	callq	__ZN3std9panicking11begin_panic21PanicPayload$LT$A$GT$3new17hff7d6e35550bdf72E
	movq	-48(%rbp), %rdi
	movq	%rdx, -32(%rbp)
	movq	%rax, -40(%rbp)
	.loc	36 608 59
	movq	$0, -24(%rbp)
	.loc	36 608 65
	movq	16(%rdi), %rcx
	.loc	36 608 9
	movq	-24(%rbp), %rdx
Ltmp863:
	leaq	l___unnamed_3(%rip), %rsi
	leaq	-40(%rbp), %rdi
	movl	$1, %r8d
	callq	__ZN3std9panicking20rust_panic_with_hook17h479ead1480e59d8dE
Ltmp864:
	jmp	LBB87_3
Ltmp867:
LBB87_1:
	.loc	36 607 69 is_stmt 1
	movq	-16(%rbp), %rdi
	callq	__Unwind_Resume
Ltmp868:
LBB87_2:
Ltmp865:
	.loc	36 0 69 is_stmt 0
	movq	%rax, %rcx
	movl	%edx, %eax
	movq	%rcx, -16(%rbp)
	movl	%eax, -8(%rbp)
	jmp	LBB87_1
Ltmp869:
LBB87_3:
	ud2
Lfunc_end87:
	.cfi_endproc
	.section	__TEXT,__gcc_except_tab
	.p2align	2
GCC_except_table87:
Lexception20:
	.byte	255
	.byte	255
	.byte	1
	.uleb128 Lcst_end20-Lcst_begin20
Lcst_begin20:
	.uleb128 Lfunc_begin87-Lfunc_begin87
	.uleb128 Ltmp863-Lfunc_begin87
	.byte	0
	.byte	0
	.uleb128 Ltmp863-Lfunc_begin87
	.uleb128 Ltmp864-Ltmp863
	.uleb128 Ltmp865-Lfunc_begin87
	.byte	0
	.uleb128 Ltmp864-Lfunc_begin87
	.uleb128 Lfunc_end87-Ltmp864
	.byte	0
	.byte	0
Lcst_end20:
	.p2align	2

	.section	__TEXT,__text,regular,pure_instructions
	.p2align	4, 0x90
__ZN3std9panicking11panic_count13count_is_zero17hf12aefb3b5c3af33E:
Lfunc_begin88:
	.loc	36 373 0 is_stmt 1
	.cfi_startproc
	pushq	%rbp
	.cfi_def_cfa_offset 16
	.cfi_offset %rbp, -16
	movq	%rsp, %rbp
	.cfi_def_cfa_register %rbp
	subq	$32, %rsp
Ltmp870:
	.loc	36 374 12 prologue_end
	movq	__ZN3std9panicking11panic_count18GLOBAL_PANIC_COUNT17h1102251c8b7d0f7aE@GOTPCREL(%rip), %rax
	movq	%rax, -16(%rbp)
Ltmp871:
	.loc	16 2127 38
	movq	__ZN3std9panicking11panic_count18GLOBAL_PANIC_COUNT17h1102251c8b7d0f7aE@GOTPCREL(%rip), %rax
	movq	%rax, -8(%rbp)
	.loc	16 2127 26 is_stmt 0
	movq	__ZN3std9panicking11panic_count18GLOBAL_PANIC_COUNT17h1102251c8b7d0f7aE@GOTPCREL(%rip), %rdi
	xorl	%esi, %esi
	callq	__ZN4core4sync6atomic11atomic_load17h005046185242badaE
Ltmp872:
	.loc	36 374 12 is_stmt 1
	movabsq	$9223372036854775807, %rcx
	andq	%rcx, %rax
	cmpq	$0, %rax
	jne	LBB88_2
	.loc	36 384 13
	movb	$1, -17(%rbp)
	.loc	36 374 9
	jmp	LBB88_3
LBB88_2:
	.loc	36 386 13
	callq	__ZN3std9panicking11panic_count17is_zero_slow_path17h0db2c725088c07e2E
	andb	$1, %al
	movb	%al, -17(%rbp)
LBB88_3:
	.loc	36 388 6
	movb	-17(%rbp), %al
	andb	$1, %al
	movzbl	%al, %eax
	addq	$32, %rsp
	popq	%rbp
	retq
Ltmp873:
Lfunc_end88:
	.cfi_endproc

	.globl	__ZN3std9panicking3try17h1c58dbdb72765ad5E
	.p2align	4, 0x90
__ZN3std9panicking3try17h1c58dbdb72765ad5E:
Lfunc_begin89:
	.loc	36 403 0
	.cfi_startproc
	pushq	%rbp
	.cfi_def_cfa_offset 16
	.cfi_offset %rbp, -16
	movq	%rsp, %rbp
	.cfi_def_cfa_register %rbp
	subq	$96, %rsp
	movq	%rdi, -56(%rbp)
Ltmp874:
	.loc	36 434 48 prologue_end
	movq	%rdi, -40(%rbp)
Ltmp875:
	.file	44 "/rustc/2c8cc343237b8f7d5a3c3703e3a87f2eb2c54a74/library/core/src/mem" "manually_drop.rs"
	.loc	44 71 9
	movq	%rdi, -64(%rbp)
Ltmp876:
	.loc	36 434 20
	movq	-64(%rbp), %rax
	movq	%rax, -80(%rbp)
Ltmp877:
	.loc	36 436 20
	leaq	-80(%rbp), %rax
	movq	%rax, -32(%rbp)
Ltmp878:
	.loc	36 447 19
	leaq	__ZN3std9panicking3try7do_call17h2dd107d8e12552ccE(%rip), %rdi
	leaq	-80(%rbp), %rsi
	leaq	__ZN3std9panicking3try8do_catch17h3e675f4c5176af90E(%rip), %rdx
	callq	___rust_try
	movl	%eax, -20(%rbp)
	cmpl	$0, -20(%rbp)
	jne	LBB89_2
	.loc	36 448 13
	movq	$0, -96(%rbp)
	.loc	36 447 16
	jmp	LBB89_3
LBB89_2:
	.loc	36 450 42
	movq	-80(%rbp), %rcx
	movq	-72(%rbp), %rax
	movq	%rcx, -16(%rbp)
	movq	%rax, -8(%rbp)
	.loc	36 450 13 is_stmt 0
	movq	%rcx, -96(%rbp)
	movq	%rax, -88(%rbp)
Ltmp879:
LBB89_3:
	.loc	36 512 2 is_stmt 1
	movq	-96(%rbp), %rax
	movq	-88(%rbp), %rdx
	addq	$96, %rsp
	popq	%rbp
	retq
Ltmp880:
Lfunc_end89:
	.cfi_endproc

	.globl	__ZN3std9panicking3try17h613a688b6349c9e8E
	.p2align	4, 0x90
__ZN3std9panicking3try17h613a688b6349c9e8E:
Lfunc_begin90:
	.loc	36 403 0
	.cfi_startproc
	pushq	%rbp
	.cfi_def_cfa_offset 16
	.cfi_offset %rbp, -16
	movq	%rsp, %rbp
	.cfi_def_cfa_register %rbp
	subq	$96, %rsp
	movq	%rdi, -56(%rbp)
Ltmp881:
	.loc	36 434 48 prologue_end
	movq	%rdi, -40(%rbp)
Ltmp882:
	.loc	44 71 9
	movq	%rdi, -64(%rbp)
Ltmp883:
	.loc	36 434 20
	movq	-64(%rbp), %rax
	movq	%rax, -80(%rbp)
Ltmp884:
	.loc	36 436 20
	leaq	-80(%rbp), %rax
	movq	%rax, -32(%rbp)
Ltmp885:
	.loc	36 447 19
	leaq	__ZN3std9panicking3try7do_call17h2a2e2bfb2cc8f714E(%rip), %rdi
	leaq	-80(%rbp), %rsi
	leaq	__ZN3std9panicking3try8do_catch17h0c598ad4bcc26019E(%rip), %rdx
	callq	___rust_try
	movl	%eax, -20(%rbp)
	cmpl	$0, -20(%rbp)
	jne	LBB90_2
	.loc	36 448 13
	movq	$0, -96(%rbp)
	.loc	36 447 16
	jmp	LBB90_3
LBB90_2:
	.loc	36 450 42
	movq	-80(%rbp), %rcx
	movq	-72(%rbp), %rax
	movq	%rcx, -16(%rbp)
	movq	%rax, -8(%rbp)
	.loc	36 450 13 is_stmt 0
	movq	%rcx, -96(%rbp)
	movq	%rax, -88(%rbp)
Ltmp886:
LBB90_3:
	.loc	36 512 2 is_stmt 1
	movq	-96(%rbp), %rax
	movq	-88(%rbp), %rdx
	addq	$96, %rsp
	popq	%rbp
	retq
Ltmp887:
Lfunc_end90:
	.cfi_endproc

	.globl	__ZN3std9panicking3try7do_call17h2a2e2bfb2cc8f714E
	.p2align	4, 0x90
__ZN3std9panicking3try7do_call17h2a2e2bfb2cc8f714E:
Lfunc_begin91:
	.loc	36 477 0
	.cfi_startproc
	pushq	%rbp
	.cfi_def_cfa_offset 16
	.cfi_offset %rbp, -16
	movq	%rsp, %rbp
	.cfi_def_cfa_register %rbp
	subq	$96, %rsp
	movq	%rdi, -80(%rbp)
Ltmp888:
	.loc	36 480 24 prologue_end
	movq	%rdi, -64(%rbp)
Ltmp889:
	.loc	36 481 24
	movq	%rdi, -56(%rbp)
Ltmp890:
	.loc	36 482 40
	movq	%rdi, -48(%rbp)
Ltmp891:
	.loc	44 113 28
	movq	%rdi, -40(%rbp)
Ltmp892:
	.loc	6 1157 34
	leaq	-88(%rbp), %rax
	movq	%rax, -32(%rbp)
	.loc	6 1157 9 is_stmt 0
	movq	(%rdi), %rax
	movq	%rax, -88(%rbp)
	.loc	6 1158 9 is_stmt 1
	movq	-88(%rbp), %rdi
	movq	%rdi, -24(%rbp)
Ltmp893:
	.file	45 "/rustc/2c8cc343237b8f7d5a3c3703e3a87f2eb2c54a74/library/core/src/mem" "maybe_uninit.rs"
	.loc	45 627 38
	movq	%rdi, -16(%rbp)
Ltmp894:
	.loc	44 89 9
	movq	%rdi, -8(%rbp)
Ltmp895:
	.loc	36 483 40
	callq	__ZN115_$LT$core..panic..unwind_safe..AssertUnwindSafe$LT$F$GT$$u20$as$u20$core..ops..function..FnOnce$LT$$LP$$RP$$GT$$GT$9call_once17hf66322c576d81696E
Ltmp896:
	.loc	36 485 6
	addq	$96, %rsp
	popq	%rbp
	retq
Ltmp897:
Lfunc_end91:
	.cfi_endproc

	.globl	__ZN3std9panicking3try7do_call17h2dd107d8e12552ccE
	.p2align	4, 0x90
__ZN3std9panicking3try7do_call17h2dd107d8e12552ccE:
Lfunc_begin92:
	.loc	36 477 0
	.cfi_startproc
	pushq	%rbp
	.cfi_def_cfa_offset 16
	.cfi_offset %rbp, -16
	movq	%rsp, %rbp
	.cfi_def_cfa_register %rbp
	subq	$96, %rsp
	movq	%rdi, -80(%rbp)
Ltmp898:
	.loc	36 480 24 prologue_end
	movq	%rdi, -64(%rbp)
Ltmp899:
	.loc	36 481 24
	movq	%rdi, -56(%rbp)
Ltmp900:
	.loc	36 482 40
	movq	%rdi, -48(%rbp)
Ltmp901:
	.loc	44 113 28
	movq	%rdi, -40(%rbp)
Ltmp902:
	.loc	6 1157 34
	leaq	-88(%rbp), %rax
	movq	%rax, -32(%rbp)
	.loc	6 1157 9 is_stmt 0
	movq	(%rdi), %rax
	movq	%rax, -88(%rbp)
	.loc	6 1158 9 is_stmt 1
	movq	-88(%rbp), %rdi
	movq	%rdi, -24(%rbp)
Ltmp903:
	.loc	45 627 38
	movq	%rdi, -16(%rbp)
Ltmp904:
	.loc	44 89 9
	movq	%rdi, -8(%rbp)
Ltmp905:
	.loc	36 483 40
	callq	__ZN115_$LT$core..panic..unwind_safe..AssertUnwindSafe$LT$F$GT$$u20$as$u20$core..ops..function..FnOnce$LT$$LP$$RP$$GT$$GT$9call_once17heb742a485de76d06E
Ltmp906:
	.loc	36 485 6
	addq	$96, %rsp
	popq	%rbp
	retq
Ltmp907:
Lfunc_end92:
	.cfi_endproc

	.globl	__ZN3std9panicking3try8do_catch17h0c598ad4bcc26019E
	.p2align	4, 0x90
__ZN3std9panicking3try8do_catch17h0c598ad4bcc26019E:
Lfunc_begin93:
	.loc	36 499 0
	.cfi_startproc
	pushq	%rbp
	.cfi_def_cfa_offset 16
	.cfi_offset %rbp, -16
	movq	%rsp, %rbp
	.cfi_def_cfa_register %rbp
	subq	$96, %rsp
	movq	%rsi, -96(%rbp)
	movq	%rdi, %rax
	movq	-96(%rbp), %rdi
	movq	%rax, -88(%rbp)
	movq	%rax, -64(%rbp)
	movq	%rdi, -56(%rbp)
Ltmp908:
	.loc	36 506 24 prologue_end
	movq	%rax, -48(%rbp)
Ltmp909:
	.loc	36 507 24
	movq	%rax, -40(%rbp)
Ltmp910:
	.loc	36 508 23
	callq	__ZN3std9panicking3try7cleanup17h75e8c286968d572cE
	movq	-88(%rbp), %rdi
	movq	%rax, -32(%rbp)
	movq	%rdx, -24(%rbp)
Ltmp911:
	.loc	36 509 40
	movq	%rax, -16(%rbp)
	movq	%rdx, -8(%rbp)
Ltmp912:
	.loc	44 71 9
	movq	%rax, -80(%rbp)
	movq	%rdx, -72(%rbp)
Ltmp913:
	.loc	36 509 13
	movq	-80(%rbp), %rcx
	movq	-72(%rbp), %rax
	movq	%rcx, (%rdi)
	movq	%rax, 8(%rdi)
Ltmp914:
	.loc	36 511 6
	addq	$96, %rsp
	popq	%rbp
	retq
Ltmp915:
Lfunc_end93:
	.cfi_endproc

	.globl	__ZN3std9panicking3try8do_catch17h3e675f4c5176af90E
	.p2align	4, 0x90
__ZN3std9panicking3try8do_catch17h3e675f4c5176af90E:
Lfunc_begin94:
	.loc	36 499 0
	.cfi_startproc
	pushq	%rbp
	.cfi_def_cfa_offset 16
	.cfi_offset %rbp, -16
	movq	%rsp, %rbp
	.cfi_def_cfa_register %rbp
	subq	$96, %rsp
	movq	%rsi, -96(%rbp)
	movq	%rdi, %rax
	movq	-96(%rbp), %rdi
	movq	%rax, -88(%rbp)
	movq	%rax, -64(%rbp)
	movq	%rdi, -56(%rbp)
Ltmp916:
	.loc	36 506 24 prologue_end
	movq	%rax, -48(%rbp)
Ltmp917:
	.loc	36 507 24
	movq	%rax, -40(%rbp)
Ltmp918:
	.loc	36 508 23
	callq	__ZN3std9panicking3try7cleanup17h75e8c286968d572cE
	movq	-88(%rbp), %rdi
	movq	%rax, -32(%rbp)
	movq	%rdx, -24(%rbp)
Ltmp919:
	.loc	36 509 40
	movq	%rax, -16(%rbp)
	movq	%rdx, -8(%rbp)
Ltmp920:
	.loc	44 71 9
	movq	%rax, -80(%rbp)
	movq	%rdx, -72(%rbp)
Ltmp921:
	.loc	36 509 13
	movq	-80(%rbp), %rcx
	movq	-72(%rbp), %rax
	movq	%rcx, (%rdi)
	movq	%rax, 8(%rdi)
Ltmp922:
	.loc	36 511 6
	addq	$96, %rsp
	popq	%rbp
	retq
Ltmp923:
Lfunc_end94:
	.cfi_endproc

	.p2align	4, 0x90
__ZN41_$LT$bool$u20$as$u20$core..fmt..Debug$GT$3fmt17h40767736c7b79f95E:
Lfunc_begin95:
	.loc	41 2406 0
	.cfi_startproc
	pushq	%rbp
	.cfi_def_cfa_offset 16
	.cfi_offset %rbp, -16
	movq	%rsp, %rbp
	.cfi_def_cfa_register %rbp
	subq	$16, %rsp
	movq	%rdi, -16(%rbp)
	movq	%rsi, -8(%rbp)
Ltmp924:
	.loc	41 2407 9 prologue_end
	callq	__ZN43_$LT$bool$u20$as$u20$core..fmt..Display$GT$3fmt17hcd777b7f8f92eb67E
	.loc	41 2408 6
	andb	$1, %al
	movzbl	%al, %eax
	addq	$16, %rsp
	popq	%rbp
	retq
Ltmp925:
Lfunc_end95:
	.cfi_endproc

	.globl	__ZN42_$LT$$RF$T$u20$as$u20$core..fmt..Debug$GT$3fmt17h25eb5bed84c629d3E
	.p2align	4, 0x90
__ZN42_$LT$$RF$T$u20$as$u20$core..fmt..Debug$GT$3fmt17h25eb5bed84c629d3E:
Lfunc_begin96:
	.loc	41 2377 0
	.cfi_startproc
	pushq	%rbp
	.cfi_def_cfa_offset 16
	.cfi_offset %rbp, -16
	movq	%rsp, %rbp
	.cfi_def_cfa_register %rbp
	subq	$16, %rsp
	movq	%rdi, -16(%rbp)
	movq	%rsi, -8(%rbp)
Ltmp926:
	.loc	41 2377 71 prologue_end
	movq	(%rdi), %rdi
	.loc	41 2377 62 is_stmt 0
	callq	__ZN4core3fmt3num52_$LT$impl$u20$core..fmt..Debug$u20$for$u20$usize$GT$3fmt17hd96b87f57aaba1fcE
	.loc	41 2377 84
	andb	$1, %al
	movzbl	%al, %eax
	addq	$16, %rsp
	popq	%rbp
	retq
Ltmp927:
Lfunc_end96:
	.cfi_endproc

	.globl	__ZN42_$LT$$RF$T$u20$as$u20$core..fmt..Debug$GT$3fmt17hadf742910db8ee3eE
	.p2align	4, 0x90
__ZN42_$LT$$RF$T$u20$as$u20$core..fmt..Debug$GT$3fmt17hadf742910db8ee3eE:
Lfunc_begin97:
	.loc	41 2377 0 is_stmt 1
	.cfi_startproc
	pushq	%rbp
	.cfi_def_cfa_offset 16
	.cfi_offset %rbp, -16
	movq	%rsp, %rbp
	.cfi_def_cfa_register %rbp
	subq	$16, %rsp
	movq	%rdi, -16(%rbp)
	movq	%rsi, -8(%rbp)
Ltmp928:
	.loc	41 2377 71 prologue_end
	movq	(%rdi), %rdi
	.loc	41 2377 62 is_stmt 0
	callq	__ZN42_$LT$$RF$T$u20$as$u20$core..fmt..Debug$GT$3fmt17hba95fdece3716e91E
	.loc	41 2377 84
	andb	$1, %al
	movzbl	%al, %eax
	addq	$16, %rsp
	popq	%rbp
	retq
Ltmp929:
Lfunc_end97:
	.cfi_endproc

	.globl	__ZN42_$LT$$RF$T$u20$as$u20$core..fmt..Debug$GT$3fmt17hb767d9b5183616c7E
	.p2align	4, 0x90
__ZN42_$LT$$RF$T$u20$as$u20$core..fmt..Debug$GT$3fmt17hb767d9b5183616c7E:
Lfunc_begin98:
	.loc	41 2377 0 is_stmt 1
	.cfi_startproc
	pushq	%rbp
	.cfi_def_cfa_offset 16
	.cfi_offset %rbp, -16
	movq	%rsp, %rbp
	.cfi_def_cfa_register %rbp
	subq	$16, %rsp
	movq	%rdi, -16(%rbp)
	movq	%rsi, -8(%rbp)
Ltmp930:
	.loc	41 2377 71 prologue_end
	movq	(%rdi), %rdi
	.loc	41 2377 62 is_stmt 0
	callq	__ZN57_$LT$std..thread..Builder$u20$as$u20$core..fmt..Debug$GT$3fmt17hb3b6fb82370f2ea3E
	.loc	41 2377 84
	andb	$1, %al
	movzbl	%al, %eax
	addq	$16, %rsp
	popq	%rbp
	retq
Ltmp931:
Lfunc_end98:
	.cfi_endproc

	.globl	__ZN42_$LT$$RF$T$u20$as$u20$core..fmt..Debug$GT$3fmt17hba95fdece3716e91E
	.p2align	4, 0x90
__ZN42_$LT$$RF$T$u20$as$u20$core..fmt..Debug$GT$3fmt17hba95fdece3716e91E:
Lfunc_begin99:
	.loc	41 2377 0 is_stmt 1
	.cfi_startproc
	pushq	%rbp
	.cfi_def_cfa_offset 16
	.cfi_offset %rbp, -16
	movq	%rsp, %rbp
	.cfi_def_cfa_register %rbp
	subq	$16, %rsp
	movq	%rdi, -16(%rbp)
	movq	%rsi, -8(%rbp)
Ltmp932:
	.loc	41 2377 71 prologue_end
	movq	(%rdi), %rdi
	.loc	41 2377 62 is_stmt 0
	callq	__ZN67_$LT$crossbeam_utils..thread..Scope$u20$as$u20$core..fmt..Debug$GT$3fmt17hfacdc6a0ee35f37cE
	.loc	41 2377 84
	andb	$1, %al
	movzbl	%al, %eax
	addq	$16, %rsp
	popq	%rbp
	retq
Ltmp933:
Lfunc_end99:
	.cfi_endproc

	.p2align	4, 0x90
__ZN49_$LT$usize$u20$as$u20$core..iter..range..Step$GT$15forward_checked17h5e93c25fb9daf640E:
Lfunc_begin100:
	.file	46 "/rustc/2c8cc343237b8f7d5a3c3703e3a87f2eb2c54a74/library/core/src/iter" "range.rs"
	.loc	46 252 0 is_stmt 1
	.cfi_startproc
	pushq	%rbp
	.cfi_def_cfa_offset 16
	.cfi_offset %rbp, -16
	movq	%rsp, %rbp
	.cfi_def_cfa_register %rbp
	subq	$48, %rsp
	movq	%rsi, -48(%rbp)
	movq	%rdi, %rax
	movq	-48(%rbp), %rdi
	movq	%rax, -40(%rbp)
	movq	%rax, -24(%rbp)
	movq	%rdi, -16(%rbp)
Ltmp934:
	.loc	46 253 27 prologue_end
	callq	__ZN53_$LT$T$u20$as$u20$core..convert..TryFrom$LT$U$GT$$GT$8try_from17hbb5d8938cff4a50dE
	movq	-40(%rbp), %rdi
	movq	%rax, -32(%rbp)
	.loc	46 254 28
	movq	-32(%rbp), %rsi
	movq	%rsi, -8(%rbp)
Ltmp935:
	.loc	46 254 34 is_stmt 0
	callq	__ZN4core3num23_$LT$impl$u20$usize$GT$11checked_add17he0ecae3ebbfac79dE
Ltmp936:
	.loc	46 257 18 is_stmt 1
	addq	$48, %rsp
	popq	%rbp
	retq
Ltmp937:
Lfunc_end100:
	.cfi_endproc

	.p2align	4, 0x90
__ZN49_$LT$usize$u20$as$u20$core..iter..range..Step$GT$17forward_unchecked17h43b3ff8d6f4a2d16E:
Lfunc_begin101:
	.loc	46 189 0
	.cfi_startproc
	pushq	%rbp
	.cfi_def_cfa_offset 16
	.cfi_offset %rbp, -16
	movq	%rsp, %rbp
	.cfi_def_cfa_register %rbp
	subq	$40, %rsp
	movq	%rdi, -40(%rbp)
	movq	%rsi, -32(%rbp)
Ltmp938:
	.loc	46 191 22 prologue_end
	movq	%rdi, -24(%rbp)
	.loc	46 191 42 is_stmt 0
	movq	%rsi, -16(%rbp)
Ltmp939:
	.loc	21 470 22 is_stmt 1
	addq	%rsi, %rdi
	movq	%rdi, -8(%rbp)
	movq	-8(%rbp), %rax
Ltmp940:
	.loc	46 192 10
	addq	$40, %rsp
	popq	%rbp
	retq
Ltmp941:
Lfunc_end101:
	.cfi_endproc

	.globl	__ZN4core3any6TypeId2of17h4657e811f617eab1E
	.p2align	4, 0x90
__ZN4core3any6TypeId2of17h4657e811f617eab1E:
Lfunc_begin102:
	.loc	13 691 0
	.cfi_startproc
	pushq	%rbp
	.cfi_def_cfa_offset 16
	.cfi_offset %rbp, -16
	movq	%rsp, %rbp
	.cfi_def_cfa_register %rbp
	subq	$16, %rsp
Ltmp942:
	.loc	13 692 21 prologue_end
	movabsq	$-8527728395957036344, %rax
	movq	%rax, -8(%rbp)
	movq	-8(%rbp), %rax
	.loc	13 692 9 is_stmt 0
	movq	%rax, -16(%rbp)
	.loc	13 693 6 is_stmt 1
	movq	-16(%rbp), %rax
	addq	$16, %rsp
	popq	%rbp
	retq
Ltmp943:
Lfunc_end102:
	.cfi_endproc

	.globl	__ZN4core3cmp10PartialOrd2le17hb734203888f38e9dE
	.p2align	4, 0x90
__ZN4core3cmp10PartialOrd2le17hb734203888f38e9dE:
Lfunc_begin103:
	.file	47 "/rustc/2c8cc343237b8f7d5a3c3703e3a87f2eb2c54a74/library/core/src" "cmp.rs"
	.loc	47 1115 0
	.cfi_startproc
	pushq	%rbp
	.cfi_def_cfa_offset 16
	.cfi_offset %rbp, -16
	movq	%rsp, %rbp
	.cfi_def_cfa_register %rbp
	subq	$32, %rsp
	movq	%rdi, -16(%rbp)
	movq	%rsi, -8(%rbp)
Ltmp944:
	.loc	47 1116 18 prologue_end
	callq	__ZN60_$LT$std..time..Instant$u20$as$u20$core..cmp..PartialOrd$GT$11partial_cmp17h926d212b640135afE
	movb	%al, -17(%rbp)
	movl	$1, %eax
	xorl	%ecx, %ecx
	cmpb	$2, -17(%rbp)
	cmoveq	%rcx, %rax
	.loc	47 1116 9 is_stmt 0
	cmpq	$1, %rax
	jne	LBB103_2
	.loc	47 1116 18
	movb	-17(%rbp), %al
	.loc	47 1116 9
	incb	%al
	subb	$2, %al
	jb	LBB103_3
	jmp	LBB103_2
LBB103_2:
	movb	$0, -18(%rbp)
	jmp	LBB103_4
LBB103_3:
	movb	$1, -18(%rbp)
LBB103_4:
	.loc	47 1117 6 is_stmt 1
	movb	-18(%rbp), %al
	andb	$1, %al
	movzbl	%al, %eax
	addq	$32, %rsp
	popq	%rbp
	retq
Ltmp945:
Lfunc_end103:
	.cfi_endproc

	.globl	__ZN4core3cmp10PartialOrd2lt17h7960f957d073d7fcE
	.p2align	4, 0x90
__ZN4core3cmp10PartialOrd2lt17h7960f957d073d7fcE:
Lfunc_begin104:
	.loc	47 1096 0
	.cfi_startproc
	pushq	%rbp
	.cfi_def_cfa_offset 16
	.cfi_offset %rbp, -16
	movq	%rsp, %rbp
	.cfi_def_cfa_register %rbp
	subq	$32, %rsp
	movq	%rdi, -16(%rbp)
	movq	%rsi, -8(%rbp)
Ltmp946:
	.loc	47 1097 18 prologue_end
	callq	__ZN60_$LT$std..time..Instant$u20$as$u20$core..cmp..PartialOrd$GT$11partial_cmp17h926d212b640135afE
	movb	%al, -17(%rbp)
	movl	$1, %eax
	xorl	%ecx, %ecx
	cmpb	$2, -17(%rbp)
	cmoveq	%rcx, %rax
	.loc	47 1097 9 is_stmt 0
	cmpq	$1, %rax
	jne	LBB104_2
	cmpb	$-1, -17(%rbp)
	je	LBB104_3
LBB104_2:
	movb	$0, -18(%rbp)
	jmp	LBB104_4
LBB104_3:
	movb	$1, -18(%rbp)
LBB104_4:
	.loc	47 1098 6 is_stmt 1
	movb	-18(%rbp), %al
	andb	$1, %al
	movzbl	%al, %eax
	addq	$32, %rsp
	popq	%rbp
	retq
Ltmp947:
Lfunc_end104:
	.cfi_endproc

	.p2align	4, 0x90
__ZN4core3cmp5impls50_$LT$impl$u20$core..cmp..Ord$u20$for$u20$usize$GT$3cmp17h3216b2b993765d08E:
Lfunc_begin105:
	.loc	47 1454 0
	.cfi_startproc
	pushq	%rbp
	.cfi_def_cfa_offset 16
	.cfi_offset %rbp, -16
	movq	%rsp, %rbp
	.cfi_def_cfa_register %rbp
	subq	$40, %rsp
	movq	%rdi, -40(%rbp)
	movq	%rsi, -32(%rbp)
	movq	%rdi, -16(%rbp)
	movq	%rsi, -8(%rbp)
Ltmp948:
	.loc	47 1457 24 prologue_end
	movq	(%rdi), %rax
	cmpq	(%rsi), %rax
	jb	LBB105_2
	.loc	47 0 24 is_stmt 0
	movq	-32(%rbp), %rcx
	movq	-40(%rbp), %rax
	.loc	47 1458 29 is_stmt 1
	movq	(%rax), %rax
	cmpq	(%rcx), %rax
	je	LBB105_5
	jmp	LBB105_4
LBB105_2:
	.loc	47 1457 41
	movb	$-1, -17(%rbp)
LBB105_3:
	.loc	47 1460 18
	movb	-17(%rbp), %al
	addq	$40, %rsp
	popq	%rbp
	retq
LBB105_4:
	.loc	47 1459 28
	movb	$1, -17(%rbp)
	.loc	47 1458 26
	jmp	LBB105_6
LBB105_5:
	.loc	47 1458 47 is_stmt 0
	movb	$0, -17(%rbp)
LBB105_6:
	.loc	47 1457 21 is_stmt 1
	jmp	LBB105_3
Ltmp949:
Lfunc_end105:
	.cfi_endproc

	.p2align	4, 0x90
__ZN4core3cmp5impls55_$LT$impl$u20$core..cmp..PartialOrd$u20$for$u20$u64$GT$11partial_cmp17h58a34753aeede54dE:
Lfunc_begin106:
	.loc	47 1437 0
	.cfi_startproc
	pushq	%rbp
	.cfi_def_cfa_offset 16
	.cfi_offset %rbp, -16
	movq	%rsp, %rbp
	.cfi_def_cfa_register %rbp
	subq	$56, %rsp
	movq	%rdi, -56(%rbp)
	movq	%rsi, -48(%rbp)
	movq	%rdi, -32(%rbp)
	movq	%rsi, -24(%rbp)
Ltmp950:
	.loc	47 1438 26 prologue_end
	movq	%rdi, -16(%rbp)
	.loc	47 1438 35 is_stmt 0
	movq	%rsi, -8(%rbp)
Ltmp951:
	.loc	47 1457 24 is_stmt 1
	movq	(%rdi), %rax
	cmpq	(%rsi), %rax
	jb	LBB106_2
	.loc	47 0 24 is_stmt 0
	movq	-48(%rbp), %rcx
	movq	-56(%rbp), %rax
	.loc	47 1458 29 is_stmt 1
	movq	(%rax), %rax
	cmpq	(%rcx), %rax
	je	LBB106_5
	jmp	LBB106_4
LBB106_2:
	.loc	47 1457 41
	movb	$-1, -33(%rbp)
Ltmp952:
LBB106_3:
	.loc	47 1438 21
	movb	-33(%rbp), %al
	movb	%al, -34(%rbp)
	.loc	47 1439 18
	movb	-34(%rbp), %al
	addq	$56, %rsp
	popq	%rbp
	retq
LBB106_4:
Ltmp953:
	.loc	47 1459 28
	movb	$1, -33(%rbp)
	.loc	47 1458 26
	jmp	LBB106_6
LBB106_5:
	.loc	47 1458 47 is_stmt 0
	movb	$0, -33(%rbp)
LBB106_6:
	.loc	47 1457 21 is_stmt 1
	jmp	LBB106_3
Ltmp954:
Lfunc_end106:
	.cfi_endproc

	.p2align	4, 0x90
__ZN4core3cmp5impls57_$LT$impl$u20$core..cmp..PartialOrd$u20$for$u20$usize$GT$2lt17hb1b20a92a54c9557E:
Lfunc_begin107:
	.loc	47 1441 0
	.cfi_startproc
	pushq	%rbp
	.cfi_def_cfa_offset 16
	.cfi_offset %rbp, -16
	movq	%rsp, %rbp
	.cfi_def_cfa_register %rbp
	subq	$16, %rsp
	movq	%rdi, -16(%rbp)
	movq	%rsi, -8(%rbp)
Ltmp955:
	.loc	47 1441 52 prologue_end
	movq	(%rdi), %rax
	cmpq	(%rsi), %rax
	setb	%al
	.loc	47 1441 72 is_stmt 0
	andb	$1, %al
	movzbl	%al, %eax
	addq	$16, %rsp
	popq	%rbp
	retq
Ltmp956:
Lfunc_end107:
	.cfi_endproc

	.globl	__ZN4core3cmp6max_by17ha961369f7da811d4E
	.p2align	4, 0x90
__ZN4core3cmp6max_by17ha961369f7da811d4E:
Lfunc_begin108:
	.loc	47 1295 0 is_stmt 1
	.cfi_startproc
	.cfi_personality 155, _rust_eh_personality
	.cfi_lsda 16, Lexception21
	pushq	%rbp
	.cfi_def_cfa_offset 16
	.cfi_offset %rbp, -16
	movq	%rsp, %rbp
	.cfi_def_cfa_register %rbp
	subq	$96, %rsp
	movq	%rdi, -80(%rbp)
	movq	%rsi, -72(%rbp)
Ltmp960:
	.loc	47 1300 11 prologue_end
	movb	$1, -25(%rbp)
	movb	$1, -26(%rbp)
	leaq	-80(%rbp), %rax
	movq	%rax, -48(%rbp)
	leaq	-72(%rbp), %rax
	movq	%rax, -40(%rbp)
	movq	-48(%rbp), %rdi
	movq	-40(%rbp), %rsi
Ltmp957:
	callq	__ZN4core3ops8function6FnOnce9call_once17h23fe1faf4173c2c9E
Ltmp958:
	movb	%al, -81(%rbp)
	jmp	LBB108_3
LBB108_1:
	.loc	47 1304 1
	jmp	LBB108_4
LBB108_2:
Ltmp959:
	.loc	47 0 1 is_stmt 0
	movq	%rax, %rcx
	movl	%edx, %eax
	movq	%rcx, -16(%rbp)
	movl	%eax, -8(%rbp)
	jmp	LBB108_1
LBB108_3:
	movb	-81(%rbp), %al
	.loc	47 1300 11 is_stmt 1
	movb	%al, -49(%rbp)
	movb	-49(%rbp), %al
	.loc	47 1300 5 is_stmt 0
	incb	%al
	subb	$2, %al
	jb	LBB108_6
	jmp	LBB108_15
LBB108_15:
	jmp	LBB108_7
LBB108_4:
	.loc	47 1304 1 is_stmt 1
	testb	$1, -25(%rbp)
	jne	LBB108_12
	jmp	LBB108_11
	.loc	47 1300 11
	ud2
LBB108_6:
	.loc	47 1301 45
	movb	$0, -26(%rbp)
	movq	-72(%rbp), %rax
	movq	%rax, -64(%rbp)
	jmp	LBB108_8
LBB108_7:
	.loc	47 1302 30
	movb	$0, -25(%rbp)
	movq	-80(%rbp), %rax
	movq	%rax, -64(%rbp)
LBB108_8:
	.loc	47 1304 1
	testb	$1, -26(%rbp)
	jne	LBB108_10
LBB108_9:
	testb	$1, -25(%rbp)
	jne	LBB108_14
	jmp	LBB108_13
LBB108_10:
	jmp	LBB108_9
LBB108_11:
	.loc	47 1295 1
	movq	-16(%rbp), %rdi
	callq	__Unwind_Resume
LBB108_12:
	.loc	47 1304 1
	jmp	LBB108_11
LBB108_13:
	.loc	47 1304 2 is_stmt 0
	movq	-64(%rbp), %rax
	addq	$96, %rsp
	popq	%rbp
	retq
LBB108_14:
	.loc	47 1304 1
	jmp	LBB108_13
Ltmp961:
Lfunc_end108:
	.cfi_endproc
	.section	__TEXT,__gcc_except_tab
	.p2align	2
GCC_except_table108:
Lexception21:
	.byte	255
	.byte	255
	.byte	1
	.uleb128 Lcst_end21-Lcst_begin21
Lcst_begin21:
	.uleb128 Ltmp957-Lfunc_begin108
	.uleb128 Ltmp958-Ltmp957
	.uleb128 Ltmp959-Lfunc_begin108
	.byte	0
	.uleb128 Ltmp958-Lfunc_begin108
	.uleb128 Lfunc_end108-Ltmp958
	.byte	0
	.byte	0
Lcst_end21:
	.p2align	2

	.section	__TEXT,__text,regular,pure_instructions
	.globl	__ZN4core3cmp6min_by17hf31a594f9f350033E
	.p2align	4, 0x90
__ZN4core3cmp6min_by17hf31a594f9f350033E:
Lfunc_begin109:
	.loc	47 1204 0 is_stmt 1
	.cfi_startproc
	.cfi_personality 155, _rust_eh_personality
	.cfi_lsda 16, Lexception22
	pushq	%rbp
	.cfi_def_cfa_offset 16
	.cfi_offset %rbp, -16
	movq	%rsp, %rbp
	.cfi_def_cfa_register %rbp
	subq	$96, %rsp
	movq	%rdi, -80(%rbp)
	movq	%rsi, -72(%rbp)
Ltmp965:
	.loc	47 1209 11 prologue_end
	movb	$1, -25(%rbp)
	movb	$1, -26(%rbp)
	leaq	-80(%rbp), %rax
	movq	%rax, -48(%rbp)
	leaq	-72(%rbp), %rax
	movq	%rax, -40(%rbp)
	movq	-48(%rbp), %rdi
	movq	-40(%rbp), %rsi
Ltmp962:
	callq	__ZN4core3ops8function6FnOnce9call_once17h23fe1faf4173c2c9E
Ltmp963:
	movb	%al, -81(%rbp)
	jmp	LBB109_3
LBB109_1:
	.loc	47 1213 1
	jmp	LBB109_4
LBB109_2:
Ltmp964:
	.loc	47 0 1 is_stmt 0
	movq	%rax, %rcx
	movl	%edx, %eax
	movq	%rcx, -16(%rbp)
	movl	%eax, -8(%rbp)
	jmp	LBB109_1
LBB109_3:
	movb	-81(%rbp), %al
	.loc	47 1209 11 is_stmt 1
	movb	%al, -49(%rbp)
	movb	-49(%rbp), %al
	.loc	47 1209 5 is_stmt 0
	incb	%al
	subb	$2, %al
	jb	LBB109_6
	jmp	LBB109_15
LBB109_15:
	jmp	LBB109_7
LBB109_4:
	.loc	47 1213 1 is_stmt 1
	testb	$1, -25(%rbp)
	jne	LBB109_12
	jmp	LBB109_11
	.loc	47 1209 11
	ud2
LBB109_6:
	.loc	47 1210 45
	movb	$0, -25(%rbp)
	movq	-80(%rbp), %rax
	movq	%rax, -64(%rbp)
	jmp	LBB109_8
LBB109_7:
	.loc	47 1211 30
	movb	$0, -26(%rbp)
	movq	-72(%rbp), %rax
	movq	%rax, -64(%rbp)
LBB109_8:
	.loc	47 1213 1
	testb	$1, -26(%rbp)
	jne	LBB109_10
LBB109_9:
	testb	$1, -25(%rbp)
	jne	LBB109_14
	jmp	LBB109_13
LBB109_10:
	jmp	LBB109_9
LBB109_11:
	.loc	47 1204 1
	movq	-16(%rbp), %rdi
	callq	__Unwind_Resume
LBB109_12:
	.loc	47 1213 1
	jmp	LBB109_11
LBB109_13:
	.loc	47 1213 2 is_stmt 0
	movq	-64(%rbp), %rax
	addq	$96, %rsp
	popq	%rbp
	retq
LBB109_14:
	.loc	47 1213 1
	jmp	LBB109_13
Ltmp966:
Lfunc_end109:
	.cfi_endproc
	.section	__TEXT,__gcc_except_tab
	.p2align	2
GCC_except_table109:
Lexception22:
	.byte	255
	.byte	255
	.byte	1
	.uleb128 Lcst_end22-Lcst_begin22
Lcst_begin22:
	.uleb128 Ltmp962-Lfunc_begin109
	.uleb128 Ltmp963-Ltmp962
	.uleb128 Ltmp964-Lfunc_begin109
	.byte	0
	.uleb128 Ltmp963-Lfunc_begin109
	.uleb128 Lfunc_end109-Ltmp963
	.byte	0
	.byte	0
Lcst_end22:
	.p2align	2

	.section	__TEXT,__text,regular,pure_instructions
	.globl	__ZN4core3fmt10ArgumentV111new_display17h18f60ee11305e546E
	.p2align	4, 0x90
__ZN4core3fmt10ArgumentV111new_display17h18f60ee11305e546E:
Lfunc_begin110:
	.loc	41 327 0 is_stmt 1
	.cfi_startproc
	pushq	%rbp
	.cfi_def_cfa_offset 16
	.cfi_offset %rbp, -16
	movq	%rsp, %rbp
	.cfi_def_cfa_register %rbp
	subq	$56, %rsp
	movq	%rdi, -40(%rbp)
Ltmp967:
	.loc	41 328 23 prologue_end
	movq	%rdi, -32(%rbp)
	.loc	41 328 26 is_stmt 0
	movq	__ZN4core3fmt3num3imp54_$LT$impl$u20$core..fmt..Display$u20$for$u20$usize$GT$3fmt17ha5c925fcd7ed33faE@GOTPCREL(%rip), %rax
	movq	%rax, -24(%rbp)
Ltmp968:
	.loc	41 347 42 is_stmt 1
	movq	%rax, -16(%rbp)
	movq	-16(%rbp), %rax
	.loc	41 347 68 is_stmt 0
	movq	%rdi, -8(%rbp)
	movq	-8(%rbp), %rcx
	.loc	41 347 18
	movq	%rcx, -56(%rbp)
	movq	%rax, -48(%rbp)
Ltmp969:
	.loc	41 329 10 is_stmt 1
	movq	-56(%rbp), %rax
	movq	-48(%rbp), %rdx
	addq	$56, %rsp
	popq	%rbp
	retq
Ltmp970:
Lfunc_end110:
	.cfi_endproc

	.globl	__ZN4core3fmt10ArgumentV111new_display17he65c01b73af712dcE
	.p2align	4, 0x90
__ZN4core3fmt10ArgumentV111new_display17he65c01b73af712dcE:
Lfunc_begin111:
	.loc	41 327 0
	.cfi_startproc
	pushq	%rbp
	.cfi_def_cfa_offset 16
	.cfi_offset %rbp, -16
	movq	%rsp, %rbp
	.cfi_def_cfa_register %rbp
	subq	$56, %rsp
	movq	%rdi, -40(%rbp)
Ltmp971:
	.loc	41 328 23 prologue_end
	movq	%rdi, -32(%rbp)
	.loc	41 328 26 is_stmt 0
	movq	__ZN59_$LT$core..fmt..Arguments$u20$as$u20$core..fmt..Display$GT$3fmt17h99a13c0e04235e08E@GOTPCREL(%rip), %rax
	movq	%rax, -24(%rbp)
Ltmp972:
	.loc	41 347 42 is_stmt 1
	movq	%rax, -16(%rbp)
	movq	-16(%rbp), %rax
	.loc	41 347 68 is_stmt 0
	movq	%rdi, -8(%rbp)
	movq	-8(%rbp), %rcx
	.loc	41 347 18
	movq	%rcx, -56(%rbp)
	movq	%rax, -48(%rbp)
Ltmp973:
	.loc	41 329 10 is_stmt 1
	movq	-56(%rbp), %rax
	movq	-48(%rbp), %rdx
	addq	$56, %rsp
	popq	%rbp
	retq
Ltmp974:
Lfunc_end111:
	.cfi_endproc

	.p2align	4, 0x90
__ZN4core3fmt3num50_$LT$impl$u20$core..fmt..Debug$u20$for$u20$u32$GT$3fmt17h7e495d851f09a45eE:
Lfunc_begin112:
	.file	48 "/rustc/2c8cc343237b8f7d5a3c3703e3a87f2eb2c54a74/library/core/src/fmt" "num.rs"
	.loc	48 185 0
	.cfi_startproc
	pushq	%rbp
	.cfi_def_cfa_offset 16
	.cfi_offset %rbp, -16
	movq	%rsp, %rbp
	.cfi_def_cfa_register %rbp
	subq	$48, %rsp
	movq	%rsi, -48(%rbp)
	movq	%rdi, %rax
	movq	-48(%rbp), %rdi
	movq	%rax, -40(%rbp)
	movq	%rdi, -32(%rbp)
	movq	%rax, -16(%rbp)
	movq	%rdi, -8(%rbp)
Ltmp975:
	.loc	48 186 20 prologue_end
	callq	__ZN4core3fmt9Formatter15debug_lower_hex17h0921e6b9188d914eE
	testb	$1, %al
	jne	LBB112_2
	.loc	48 0 20 is_stmt 0
	movq	-32(%rbp), %rdi
	.loc	48 188 27 is_stmt 1
	callq	__ZN4core3fmt9Formatter15debug_upper_hex17h8ce487049a6cccf8E
	testb	$1, %al
	jne	LBB112_5
	jmp	LBB112_4
LBB112_2:
	.loc	48 0 27 is_stmt 0
	movq	-32(%rbp), %rsi
	movq	-40(%rbp), %rdi
	.loc	48 187 21 is_stmt 1
	callq	__ZN4core3fmt3num53_$LT$impl$u20$core..fmt..LowerHex$u20$for$u20$u32$GT$3fmt17h794cf20b87700632E
	andb	$1, %al
	movb	%al, -17(%rbp)
LBB112_3:
	.loc	48 193 14
	movb	-17(%rbp), %al
	andb	$1, %al
	movzbl	%al, %eax
	addq	$48, %rsp
	popq	%rbp
	retq
LBB112_4:
	.loc	48 0 14 is_stmt 0
	movq	-32(%rbp), %rsi
	movq	-40(%rbp), %rdi
	.loc	48 191 21 is_stmt 1
	callq	__ZN4core3fmt3num3imp52_$LT$impl$u20$core..fmt..Display$u20$for$u20$u32$GT$3fmt17h081c917b2ee7d4e9E
	andb	$1, %al
	movb	%al, -17(%rbp)
	.loc	48 188 24
	jmp	LBB112_6
LBB112_5:
	.loc	48 0 24 is_stmt 0
	movq	-32(%rbp), %rsi
	movq	-40(%rbp), %rdi
	.loc	48 189 21 is_stmt 1
	callq	__ZN4core3fmt3num53_$LT$impl$u20$core..fmt..UpperHex$u20$for$u20$u32$GT$3fmt17ha96bbefe8f663d11E
	andb	$1, %al
	movb	%al, -17(%rbp)
LBB112_6:
	.loc	48 186 17
	jmp	LBB112_3
Ltmp976:
Lfunc_end112:
	.cfi_endproc

	.p2align	4, 0x90
__ZN4core3fmt3num52_$LT$impl$u20$core..fmt..Debug$u20$for$u20$usize$GT$3fmt17hd96b87f57aaba1fcE:
Lfunc_begin113:
	.loc	48 185 0
	.cfi_startproc
	pushq	%rbp
	.cfi_def_cfa_offset 16
	.cfi_offset %rbp, -16
	movq	%rsp, %rbp
	.cfi_def_cfa_register %rbp
	subq	$48, %rsp
	movq	%rsi, -48(%rbp)
	movq	%rdi, %rax
	movq	-48(%rbp), %rdi
	movq	%rax, -40(%rbp)
	movq	%rdi, -32(%rbp)
	movq	%rax, -16(%rbp)
	movq	%rdi, -8(%rbp)
Ltmp977:
	.loc	48 186 20 prologue_end
	callq	__ZN4core3fmt9Formatter15debug_lower_hex17h0921e6b9188d914eE
	testb	$1, %al
	jne	LBB113_2
	.loc	48 0 20 is_stmt 0
	movq	-32(%rbp), %rdi
	.loc	48 188 27 is_stmt 1
	callq	__ZN4core3fmt9Formatter15debug_upper_hex17h8ce487049a6cccf8E
	testb	$1, %al
	jne	LBB113_5
	jmp	LBB113_4
LBB113_2:
	.loc	48 0 27 is_stmt 0
	movq	-32(%rbp), %rsi
	movq	-40(%rbp), %rdi
	.loc	48 187 21 is_stmt 1
	callq	__ZN4core3fmt3num55_$LT$impl$u20$core..fmt..LowerHex$u20$for$u20$usize$GT$3fmt17h84f349805fe63f8dE
	andb	$1, %al
	movb	%al, -17(%rbp)
LBB113_3:
	.loc	48 193 14
	movb	-17(%rbp), %al
	andb	$1, %al
	movzbl	%al, %eax
	addq	$48, %rsp
	popq	%rbp
	retq
LBB113_4:
	.loc	48 0 14 is_stmt 0
	movq	-32(%rbp), %rsi
	movq	-40(%rbp), %rdi
	.loc	48 191 21 is_stmt 1
	callq	__ZN4core3fmt3num3imp54_$LT$impl$u20$core..fmt..Display$u20$for$u20$usize$GT$3fmt17ha5c925fcd7ed33faE
	andb	$1, %al
	movb	%al, -17(%rbp)
	.loc	48 188 24
	jmp	LBB113_6
LBB113_5:
	.loc	48 0 24 is_stmt 0
	movq	-32(%rbp), %rsi
	movq	-40(%rbp), %rdi
	.loc	48 189 21 is_stmt 1
	callq	__ZN4core3fmt3num55_$LT$impl$u20$core..fmt..UpperHex$u20$for$u20$usize$GT$3fmt17h49aa717311edc293E
	andb	$1, %al
	movb	%al, -17(%rbp)
LBB113_6:
	.loc	48 186 17
	jmp	LBB113_3
Ltmp978:
Lfunc_end113:
	.cfi_endproc

	.globl	__ZN4core3fmt5Write10write_char17h662a231b8e32c393E
	.p2align	4, 0x90
__ZN4core3fmt5Write10write_char17h662a231b8e32c393E:
Lfunc_begin114:
	.loc	41 168 0
	.cfi_startproc
	pushq	%rbp
	.cfi_def_cfa_offset 16
	.cfi_offset %rbp, -16
	movq	%rsp, %rbp
	.cfi_def_cfa_register %rbp
	subq	$80, %rsp
	movq	%rdi, -64(%rbp)
	movl	%esi, -68(%rbp)
	movq	%rdi, -48(%rbp)
	movl	%esi, -40(%rbp)
Ltmp979:
	.loc	41 169 24 prologue_end
	movl	%esi, -36(%rbp)
	.loc	41 169 43 is_stmt 0
	leaq	-52(%rbp), %rdi
	xorl	%esi, %esi
	movl	$4, %edx
	callq	_memset
	movl	-68(%rbp), %edi
	.loc	41 169 38
	leaq	-52(%rbp), %rax
	movq	%rax, -32(%rbp)
	movq	$4, -24(%rbp)
Ltmp980:
	.file	49 "/rustc/2c8cc343237b8f7d5a3c3703e3a87f2eb2c54a74/library/core/src/char" "methods.rs"
	.loc	49 663 42 is_stmt 1
	leaq	-52(%rbp), %rsi
	movl	$4, %edx
	callq	__ZN4core4char7methods15encode_utf8_raw17h2d6f343d6a46d35dE
	movq	-64(%rbp), %rdi
	movq	%rax, %rsi
	movq	%rsi, -16(%rbp)
	movq	%rdx, -8(%rbp)
Ltmp981:
	.loc	41 169 9
	callq	__ZN80_$LT$std..io..Write..write_fmt..Adapter$LT$T$GT$$u20$as$u20$core..fmt..Write$GT$9write_str17h0b72d200c235e89bE
	.loc	41 170 6
	andb	$1, %al
	movzbl	%al, %eax
	addq	$80, %rsp
	popq	%rbp
	retq
Ltmp982:
Lfunc_end114:
	.cfi_endproc

	.globl	__ZN4core3fmt5Write9write_fmt17h7bb262ab80d4fce2E
	.p2align	4, 0x90
__ZN4core3fmt5Write9write_fmt17h7bb262ab80d4fce2E:
Lfunc_begin115:
	.loc	41 196 0
	.cfi_startproc
	pushq	%rbp
	.cfi_def_cfa_offset 16
	.cfi_offset %rbp, -16
	movq	%rsp, %rbp
	.cfi_def_cfa_register %rbp
	subq	$64, %rsp
	movq	%rdi, -56(%rbp)
Ltmp983:
	.loc	41 197 26 prologue_end
	leaq	-48(%rbp), %rdi
	movl	$48, %edx
	callq	_memcpy
Ltmp984:
	.loc	41 197 9 is_stmt 0
	leaq	-56(%rbp), %rdi
	leaq	l___unnamed_4(%rip), %rsi
	leaq	-48(%rbp), %rdx
	callq	__ZN4core3fmt5write17hfa389e524187f2c6E
	.loc	41 198 6 is_stmt 1
	andb	$1, %al
	movzbl	%al, %eax
	addq	$64, %rsp
	popq	%rbp
	retq
Ltmp985:
Lfunc_end115:
	.cfi_endproc

	.p2align	4, 0x90
__ZN4core3fmt9Arguments6new_v117ha0678a6c42b68c71E:
Lfunc_begin116:
	.loc	41 399 0
	.cfi_startproc
	pushq	%rbp
	.cfi_def_cfa_offset 16
	.cfi_offset %rbp, -16
	movq	%rsp, %rbp
	.cfi_def_cfa_register %rbp
	subq	$160, %rsp
	movq	%r8, -152(%rbp)
	movq	%rcx, -144(%rbp)
	movq	%rdx, -136(%rbp)
	movq	%rsi, -128(%rbp)
	movq	%rdi, -120(%rbp)
	movq	%rdi, -112(%rbp)
	movq	%rsi, -32(%rbp)
	movq	%rdx, -24(%rbp)
	movq	%rcx, -16(%rbp)
	movq	%r8, -8(%rbp)
Ltmp986:
	.loc	41 400 12 prologue_end
	cmpq	%r8, %rdx
	jb	LBB116_2
	.loc	41 0 12 is_stmt 0
	movq	-136(%rbp), %rax
	movq	-152(%rbp), %rcx
	.loc	41 400 56
	addq	$1, %rcx
	.loc	41 400 41
	cmpq	%rcx, %rax
	seta	%al
	.loc	41 400 12
	andb	$1, %al
	movb	%al, -97(%rbp)
	jmp	LBB116_3
LBB116_2:
	movb	$1, -97(%rbp)
LBB116_3:
	testb	$1, -97(%rbp)
	jne	LBB116_5
	.loc	41 0 12
	movq	-112(%rbp), %rax
	movq	-120(%rbp), %rcx
	movq	-152(%rbp), %rdx
	movq	-144(%rbp), %rsi
	movq	-136(%rbp), %rdi
	movq	-128(%rbp), %r8
	.loc	41 403 34 is_stmt 1
	movq	$0, -48(%rbp)
	.loc	41 403 9 is_stmt 0
	movq	%r8, 16(%rcx)
	movq	%rdi, 24(%rcx)
	movq	-48(%rbp), %r8
	movq	-40(%rbp), %rdi
	movq	%r8, (%rcx)
	movq	%rdi, 8(%rcx)
	movq	%rsi, 32(%rcx)
	movq	%rdx, 40(%rcx)
	.loc	41 404 6 is_stmt 1
	addq	$160, %rsp
	popq	%rbp
	retq
LBB116_5:
	.loc	41 401 13
	leaq	l___unnamed_36(%rip), %rsi
	leaq	l___unnamed_28(%rip), %rcx
	xorl	%eax, %eax
	movl	%eax, %r8d
	leaq	-96(%rbp), %rdi
	movq	%rdi, -160(%rbp)
	movl	$1, %edx
	callq	__ZN4core3fmt9Arguments6new_v117ha0678a6c42b68c71E
	movq	-160(%rbp), %rdi
	leaq	l___unnamed_37(%rip), %rsi
	callq	__ZN4core9panicking9panic_fmt17h9b5d807e24bcaaedE
Ltmp987:
Lfunc_end116:
	.cfi_endproc

	.globl	__ZN4core3mem11swap_simple17h35efd8a7fd5fafc7E
	.p2align	4, 0x90
__ZN4core3mem11swap_simple17h35efd8a7fd5fafc7E:
Lfunc_begin117:
	.loc	40 757 0
	.cfi_startproc
	pushq	%rbp
	.cfi_def_cfa_offset 16
	.cfi_offset %rbp, -16
	movq	%rsp, %rbp
	.cfi_def_cfa_register %rbp
	subq	$416, %rsp
	movq	%rdi, -416(%rbp)
	movq	%rsi, -408(%rbp)
	movq	%rdi, -80(%rbp)
	movq	%rsi, -72(%rbp)
Ltmp988:
	.loc	40 774 27 prologue_end
	movq	%rdi, -64(%rbp)
Ltmp989:
	.loc	6 1157 34
	leaq	-272(%rbp), %rax
	movq	%rax, -56(%rbp)
	.loc	6 1157 9 is_stmt 0
	movq	(%rdi), %rax
	movq	%rax, -272(%rbp)
	movq	8(%rdi), %rax
	movq	%rax, -264(%rbp)
	movq	16(%rdi), %rax
	movq	%rax, -256(%rbp)
	movq	24(%rdi), %rax
	movq	%rax, -248(%rbp)
	.loc	6 1158 9 is_stmt 1
	movq	-272(%rbp), %rax
	movq	%rax, -240(%rbp)
	movq	-264(%rbp), %rax
	movq	%rax, -232(%rbp)
	movq	-256(%rbp), %rax
	movq	%rax, -224(%rbp)
	movq	-248(%rbp), %rax
	movq	%rax, -216(%rbp)
Ltmp990:
	.loc	45 627 38
	movq	-240(%rbp), %rax
	movq	%rax, -208(%rbp)
	movq	-232(%rbp), %rax
	movq	%rax, -200(%rbp)
	movq	-224(%rbp), %rax
	movq	%rax, -192(%rbp)
	movq	-216(%rbp), %rax
	movq	%rax, -184(%rbp)
Ltmp991:
	.loc	44 89 9
	movq	-208(%rbp), %rax
	movq	%rax, -400(%rbp)
	movq	-200(%rbp), %rax
	movq	%rax, -392(%rbp)
	movq	-192(%rbp), %rax
	movq	%rax, -384(%rbp)
	movq	-184(%rbp), %rax
	movq	%rax, -376(%rbp)
Ltmp992:
	.loc	40 775 27
	movq	%rsi, -48(%rbp)
Ltmp993:
	.loc	6 1157 34
	leaq	-176(%rbp), %rax
	movq	%rax, -40(%rbp)
	.loc	6 1157 9 is_stmt 0
	movq	(%rsi), %rax
	movq	%rax, -176(%rbp)
	movq	8(%rsi), %rax
	movq	%rax, -168(%rbp)
	movq	16(%rsi), %rax
	movq	%rax, -160(%rbp)
	movq	24(%rsi), %rax
	movq	%rax, -152(%rbp)
	.loc	6 1158 9 is_stmt 1
	movq	-176(%rbp), %rax
	movq	%rax, -144(%rbp)
	movq	-168(%rbp), %rax
	movq	%rax, -136(%rbp)
	movq	-160(%rbp), %rax
	movq	%rax, -128(%rbp)
	movq	-152(%rbp), %rax
	movq	%rax, -120(%rbp)
	.loc	6 0 9 is_stmt 0
	movq	-408(%rbp), %rax
	movq	-416(%rbp), %rcx
Ltmp994:
	.loc	45 627 38 is_stmt 1
	movq	-144(%rbp), %rdx
	movq	%rdx, -112(%rbp)
	movq	-136(%rbp), %rdx
	movq	%rdx, -104(%rbp)
	movq	-128(%rbp), %rdx
	movq	%rdx, -96(%rbp)
	movq	-120(%rbp), %rdx
	movq	%rdx, -88(%rbp)
Ltmp995:
	.loc	44 89 9
	movq	-112(%rbp), %rdx
	movq	%rdx, -368(%rbp)
	movq	-104(%rbp), %rdx
	movq	%rdx, -360(%rbp)
	movq	-96(%rbp), %rdx
	movq	%rdx, -352(%rbp)
	movq	-88(%rbp), %rdx
	movq	%rdx, -344(%rbp)
Ltmp996:
	.loc	40 776 20
	movq	%rcx, -16(%rbp)
	.loc	40 776 23 is_stmt 0
	movq	-368(%rbp), %rdx
	movq	%rdx, -336(%rbp)
	movq	-360(%rbp), %rdx
	movq	%rdx, -328(%rbp)
	movq	-352(%rbp), %rdx
	movq	%rdx, -320(%rbp)
	movq	-344(%rbp), %rdx
	movq	%rdx, -312(%rbp)
Ltmp997:
	.loc	6 1354 9 is_stmt 1
	movq	-336(%rbp), %rdx
	movq	%rdx, (%rcx)
	movq	-328(%rbp), %rdx
	movq	%rdx, 8(%rcx)
	movq	-320(%rbp), %rdx
	movq	%rdx, 16(%rcx)
	movq	-312(%rbp), %rdx
	movq	%rdx, 24(%rcx)
Ltmp998:
	.loc	40 777 20
	movq	%rax, -8(%rbp)
	.loc	40 777 23 is_stmt 0
	movq	-400(%rbp), %rcx
	movq	%rcx, -304(%rbp)
	movq	-392(%rbp), %rcx
	movq	%rcx, -296(%rbp)
	movq	-384(%rbp), %rcx
	movq	%rcx, -288(%rbp)
	movq	-376(%rbp), %rcx
	movq	%rcx, -280(%rbp)
Ltmp999:
	.loc	6 1354 9 is_stmt 1
	movq	-304(%rbp), %rcx
	movq	%rcx, (%rax)
	movq	-296(%rbp), %rcx
	movq	%rcx, 8(%rax)
	movq	-288(%rbp), %rcx
	movq	%rcx, 16(%rax)
	movq	-280(%rbp), %rcx
	movq	%rcx, 24(%rax)
Ltmp1000:
	.loc	40 779 2
	addq	$416, %rsp
	popq	%rbp
	retq
Ltmp1001:
Lfunc_end117:
	.cfi_endproc

	.globl	__ZN4core3mem11swap_simple17h4eb29fde00e20a69E
	.p2align	4, 0x90
__ZN4core3mem11swap_simple17h4eb29fde00e20a69E:
Lfunc_begin118:
	.loc	40 757 0
	.cfi_startproc
	pushq	%rbp
	.cfi_def_cfa_offset 16
	.cfi_offset %rbp, -16
	movq	%rsp, %rbp
	.cfi_def_cfa_register %rbp
	subq	$416, %rsp
	movq	%rdi, -416(%rbp)
	movq	%rsi, -408(%rbp)
	movq	%rdi, -80(%rbp)
	movq	%rsi, -72(%rbp)
Ltmp1002:
	.loc	40 774 27 prologue_end
	movq	%rdi, -64(%rbp)
Ltmp1003:
	.loc	6 1157 34
	leaq	-272(%rbp), %rax
	movq	%rax, -56(%rbp)
	.loc	6 1157 9 is_stmt 0
	movq	(%rdi), %rax
	movq	%rax, -272(%rbp)
	movq	8(%rdi), %rax
	movq	%rax, -264(%rbp)
	movq	16(%rdi), %rax
	movq	%rax, -256(%rbp)
	movq	24(%rdi), %rax
	movq	%rax, -248(%rbp)
	.loc	6 1158 9 is_stmt 1
	movq	-272(%rbp), %rax
	movq	%rax, -240(%rbp)
	movq	-264(%rbp), %rax
	movq	%rax, -232(%rbp)
	movq	-256(%rbp), %rax
	movq	%rax, -224(%rbp)
	movq	-248(%rbp), %rax
	movq	%rax, -216(%rbp)
Ltmp1004:
	.loc	45 627 38
	movq	-240(%rbp), %rax
	movq	%rax, -208(%rbp)
	movq	-232(%rbp), %rax
	movq	%rax, -200(%rbp)
	movq	-224(%rbp), %rax
	movq	%rax, -192(%rbp)
	movq	-216(%rbp), %rax
	movq	%rax, -184(%rbp)
Ltmp1005:
	.loc	44 89 9
	movq	-208(%rbp), %rax
	movq	%rax, -400(%rbp)
	movq	-200(%rbp), %rax
	movq	%rax, -392(%rbp)
	movq	-192(%rbp), %rax
	movq	%rax, -384(%rbp)
	movq	-184(%rbp), %rax
	movq	%rax, -376(%rbp)
Ltmp1006:
	.loc	40 775 27
	movq	%rsi, -48(%rbp)
Ltmp1007:
	.loc	6 1157 34
	leaq	-176(%rbp), %rax
	movq	%rax, -40(%rbp)
	.loc	6 1157 9 is_stmt 0
	movq	(%rsi), %rax
	movq	%rax, -176(%rbp)
	movq	8(%rsi), %rax
	movq	%rax, -168(%rbp)
	movq	16(%rsi), %rax
	movq	%rax, -160(%rbp)
	movq	24(%rsi), %rax
	movq	%rax, -152(%rbp)
	.loc	6 1158 9 is_stmt 1
	movq	-176(%rbp), %rax
	movq	%rax, -144(%rbp)
	movq	-168(%rbp), %rax
	movq	%rax, -136(%rbp)
	movq	-160(%rbp), %rax
	movq	%rax, -128(%rbp)
	movq	-152(%rbp), %rax
	movq	%rax, -120(%rbp)
	.loc	6 0 9 is_stmt 0
	movq	-408(%rbp), %rax
	movq	-416(%rbp), %rcx
Ltmp1008:
	.loc	45 627 38 is_stmt 1
	movq	-144(%rbp), %rdx
	movq	%rdx, -112(%rbp)
	movq	-136(%rbp), %rdx
	movq	%rdx, -104(%rbp)
	movq	-128(%rbp), %rdx
	movq	%rdx, -96(%rbp)
	movq	-120(%rbp), %rdx
	movq	%rdx, -88(%rbp)
Ltmp1009:
	.loc	44 89 9
	movq	-112(%rbp), %rdx
	movq	%rdx, -368(%rbp)
	movq	-104(%rbp), %rdx
	movq	%rdx, -360(%rbp)
	movq	-96(%rbp), %rdx
	movq	%rdx, -352(%rbp)
	movq	-88(%rbp), %rdx
	movq	%rdx, -344(%rbp)
Ltmp1010:
	.loc	40 776 20
	movq	%rcx, -16(%rbp)
	.loc	40 776 23 is_stmt 0
	movq	-368(%rbp), %rdx
	movq	%rdx, -336(%rbp)
	movq	-360(%rbp), %rdx
	movq	%rdx, -328(%rbp)
	movq	-352(%rbp), %rdx
	movq	%rdx, -320(%rbp)
	movq	-344(%rbp), %rdx
	movq	%rdx, -312(%rbp)
Ltmp1011:
	.loc	6 1354 9 is_stmt 1
	movq	-336(%rbp), %rdx
	movq	%rdx, (%rcx)
	movq	-328(%rbp), %rdx
	movq	%rdx, 8(%rcx)
	movq	-320(%rbp), %rdx
	movq	%rdx, 16(%rcx)
	movq	-312(%rbp), %rdx
	movq	%rdx, 24(%rcx)
Ltmp1012:
	.loc	40 777 20
	movq	%rax, -8(%rbp)
	.loc	40 777 23 is_stmt 0
	movq	-400(%rbp), %rcx
	movq	%rcx, -304(%rbp)
	movq	-392(%rbp), %rcx
	movq	%rcx, -296(%rbp)
	movq	-384(%rbp), %rcx
	movq	%rcx, -288(%rbp)
	movq	-376(%rbp), %rcx
	movq	%rcx, -280(%rbp)
Ltmp1013:
	.loc	6 1354 9 is_stmt 1
	movq	-304(%rbp), %rcx
	movq	%rcx, (%rax)
	movq	-296(%rbp), %rcx
	movq	%rcx, 8(%rax)
	movq	-288(%rbp), %rcx
	movq	%rcx, 16(%rax)
	movq	-280(%rbp), %rcx
	movq	%rcx, 24(%rax)
Ltmp1014:
	.loc	40 779 2
	addq	$416, %rsp
	popq	%rbp
	retq
Ltmp1015:
Lfunc_end118:
	.cfi_endproc

	.globl	__ZN4core3mem11swap_simple17hb4693a5678ff73e4E
	.p2align	4, 0x90
__ZN4core3mem11swap_simple17hb4693a5678ff73e4E:
Lfunc_begin119:
	.loc	40 757 0
	.cfi_startproc
	pushq	%rbp
	.cfi_def_cfa_offset 16
	.cfi_offset %rbp, -16
	movq	%rsp, %rbp
	.cfi_def_cfa_register %rbp
	subq	$128, %rsp
	movq	%rdi, -128(%rbp)
	movq	%rsi, -120(%rbp)
	movq	%rdi, -104(%rbp)
	movq	%rsi, -96(%rbp)
Ltmp1016:
	.loc	40 774 27 prologue_end
	movq	%rdi, -88(%rbp)
Ltmp1017:
	.loc	6 1157 34
	leaq	-106(%rbp), %rax
	movq	%rax, -80(%rbp)
	.loc	6 1157 9 is_stmt 0
	movb	(%rdi), %al
	movb	%al, -106(%rbp)
	.loc	6 1158 9 is_stmt 1
	movb	-106(%rbp), %al
	movb	%al, -110(%rbp)
	movb	%al, -67(%rbp)
Ltmp1018:
	.loc	45 627 38
	movb	%al, -66(%rbp)
Ltmp1019:
	.loc	44 89 9
	movb	%al, -65(%rbp)
Ltmp1020:
	.loc	40 775 27
	movq	%rsi, -64(%rbp)
Ltmp1021:
	.loc	6 1157 34
	leaq	-105(%rbp), %rax
	movq	%rax, -56(%rbp)
	.loc	6 1157 9 is_stmt 0
	movb	(%rsi), %al
	movb	%al, -105(%rbp)
	.loc	6 1158 9 is_stmt 1
	movb	-105(%rbp), %al
	movb	%al, -109(%rbp)
	movb	%al, -41(%rbp)
	.loc	6 0 9 is_stmt 0
	movq	-120(%rbp), %rax
	movb	-110(%rbp), %cl
	movq	-128(%rbp), %rdx
	movb	-109(%rbp), %sil
Ltmp1022:
	.loc	45 627 38 is_stmt 1
	movb	%sil, -18(%rbp)
Ltmp1023:
	.loc	44 89 9
	movb	%sil, -17(%rbp)
Ltmp1024:
	.loc	40 776 20
	movq	%rdx, -16(%rbp)
	.loc	40 776 23 is_stmt 0
	movb	%sil, -108(%rbp)
Ltmp1025:
	.loc	6 1354 9 is_stmt 1
	movb	-108(%rbp), %sil
	movb	%sil, (%rdx)
Ltmp1026:
	.loc	40 777 20
	movq	%rax, -8(%rbp)
	.loc	40 777 23 is_stmt 0
	movb	%cl, -107(%rbp)
Ltmp1027:
	.loc	6 1354 9 is_stmt 1
	movb	-107(%rbp), %cl
	movb	%cl, (%rax)
Ltmp1028:
	.loc	40 779 2
	addq	$128, %rsp
	popq	%rbp
	retq
Ltmp1029:
Lfunc_end119:
	.cfi_endproc

	.globl	__ZN4core3mem11swap_simple17he19c527f48cae853E
	.p2align	4, 0x90
__ZN4core3mem11swap_simple17he19c527f48cae853E:
Lfunc_begin120:
	.loc	40 757 0
	.cfi_startproc
	pushq	%rbp
	.cfi_def_cfa_offset 16
	.cfi_offset %rbp, -16
	movq	%rsp, %rbp
	.cfi_def_cfa_register %rbp
	subq	$192, %rsp
	movq	%rdi, -192(%rbp)
	movq	%rsi, -184(%rbp)
	movq	%rdi, -128(%rbp)
	movq	%rsi, -120(%rbp)
Ltmp1030:
	.loc	40 774 27 prologue_end
	movq	%rdi, -112(%rbp)
Ltmp1031:
	.loc	6 1157 34
	leaq	-144(%rbp), %rax
	movq	%rax, -104(%rbp)
	.loc	6 1157 9 is_stmt 0
	movq	(%rdi), %rax
	movq	%rax, -144(%rbp)
	.loc	6 1158 9 is_stmt 1
	movq	-144(%rbp), %rax
	movq	%rax, -176(%rbp)
	movq	%rax, -96(%rbp)
Ltmp1032:
	.loc	45 627 38
	movq	%rax, -88(%rbp)
Ltmp1033:
	.loc	44 89 9
	movq	%rax, -80(%rbp)
Ltmp1034:
	.loc	40 775 27
	movq	%rsi, -72(%rbp)
Ltmp1035:
	.loc	6 1157 34
	leaq	-136(%rbp), %rax
	movq	%rax, -64(%rbp)
	.loc	6 1157 9 is_stmt 0
	movq	(%rsi), %rax
	movq	%rax, -136(%rbp)
	.loc	6 1158 9 is_stmt 1
	movq	-136(%rbp), %rax
	movq	%rax, -168(%rbp)
	movq	%rax, -56(%rbp)
	.loc	6 0 9 is_stmt 0
	movq	-184(%rbp), %rax
	movq	-176(%rbp), %rcx
	movq	-192(%rbp), %rdx
	movq	-168(%rbp), %rsi
Ltmp1036:
	.loc	45 627 38 is_stmt 1
	movq	%rsi, -32(%rbp)
Ltmp1037:
	.loc	44 89 9
	movq	%rsi, -24(%rbp)
Ltmp1038:
	.loc	40 776 20
	movq	%rdx, -16(%rbp)
	.loc	40 776 23 is_stmt 0
	movq	%rsi, -160(%rbp)
Ltmp1039:
	.loc	6 1354 9 is_stmt 1
	movq	-160(%rbp), %rsi
	movq	%rsi, (%rdx)
Ltmp1040:
	.loc	40 777 20
	movq	%rax, -8(%rbp)
	.loc	40 777 23 is_stmt 0
	movq	%rcx, -152(%rbp)
Ltmp1041:
	.loc	6 1354 9 is_stmt 1
	movq	-152(%rbp), %rcx
	movq	%rcx, (%rax)
Ltmp1042:
	.loc	40 779 2
	addq	$192, %rsp
	popq	%rbp
	retq
Ltmp1043:
Lfunc_end120:
	.cfi_endproc

	.globl	__ZN4core3mem4drop17hcc38ad56de116779E
	.p2align	4, 0x90
__ZN4core3mem4drop17hcc38ad56de116779E:
Lfunc_begin121:
	.loc	40 980 0
	.cfi_startproc
	pushq	%rbp
	.cfi_def_cfa_offset 16
	.cfi_offset %rbp, -16
	movq	%rsp, %rbp
	.cfi_def_cfa_register %rbp
	subq	$16, %rsp
	movb	%sil, %al
	movq	%rdi, -16(%rbp)
	andb	$1, %al
	movb	%al, -8(%rbp)
Ltmp1044:
	.loc	40 980 24 prologue_end
	leaq	-16(%rbp), %rdi
	callq	__ZN4core3ptr65drop_in_place$LT$std..sync..mutex..MutexGuard$LT$$LP$$RP$$GT$$GT$17h5a698a6cd794730eE
	.loc	40 980 25 is_stmt 0
	addq	$16, %rsp
	popq	%rbp
	retq
Ltmp1045:
Lfunc_end121:
	.cfi_endproc

	.globl	__ZN4core3mem4drop17hd7b94a09301cb267E
	.p2align	4, 0x90
__ZN4core3mem4drop17hd7b94a09301cb267E:
Lfunc_begin122:
	.loc	40 980 0 is_stmt 1
	.cfi_startproc
	pushq	%rbp
	.cfi_def_cfa_offset 16
	.cfi_offset %rbp, -16
	movq	%rsp, %rbp
	.cfi_def_cfa_register %rbp
	subq	$16, %rsp
	movq	%rdi, -8(%rbp)
Ltmp1046:
	.loc	40 980 24 prologue_end
	leaq	-8(%rbp), %rdi
	callq	__ZN4core3ptr65drop_in_place$LT$crossbeam_utils..sync..wait_group..WaitGroup$GT$17h888899dd0017fb91E
	.loc	40 980 25 is_stmt 0
	addq	$16, %rsp
	popq	%rbp
	retq
Ltmp1047:
Lfunc_end122:
	.cfi_endproc

	.globl	__ZN4core3mem4swap17hb5cd5400f94e101eE
	.p2align	4, 0x90
__ZN4core3mem4swap17hb5cd5400f94e101eE:
Lfunc_begin123:
	.loc	40 720 0 is_stmt 1
	.cfi_startproc
	pushq	%rbp
	.cfi_def_cfa_offset 16
	.cfi_offset %rbp, -16
	movq	%rsp, %rbp
	.cfi_def_cfa_register %rbp
	subq	$32, %rsp
	movq	%rdi, -32(%rbp)
	movq	%rsi, -24(%rbp)
	movq	%rdi, -16(%rbp)
	movq	%rsi, -8(%rbp)
Ltmp1048:
	.loc	40 735 12 prologue_end
	xorl	%eax, %eax
	testb	$1, %al
	jne	LBB123_2
	.loc	40 0 12 is_stmt 0
	movq	-24(%rbp), %rsi
	movq	-32(%rbp), %rdi
	.loc	40 749 5 is_stmt 1
	callq	__ZN4core3mem11swap_simple17h4eb29fde00e20a69E
	.loc	40 750 2
	jmp	LBB123_3
LBB123_2:
	.loc	40 0 2 is_stmt 0
	movq	-24(%rbp), %rsi
	movq	-32(%rbp), %rdi
	.loc	40 738 29 is_stmt 1
	movl	$1, %edx
	callq	__ZN4core3ptr19swap_nonoverlapping17h8be8bae5f67549e9E
LBB123_3:
	.loc	40 750 2
	addq	$32, %rsp
	popq	%rbp
	retq
Ltmp1049:
Lfunc_end123:
	.cfi_endproc

	.globl	__ZN4core3mem7replace17h857ca5d33c2040b5E
	.p2align	4, 0x90
__ZN4core3mem7replace17h857ca5d33c2040b5E:
Lfunc_begin124:
	.loc	40 905 0
	.cfi_startproc
	pushq	%rbp
	.cfi_def_cfa_offset 16
	.cfi_offset %rbp, -16
	movq	%rsp, %rbp
	.cfi_def_cfa_register %rbp
	subq	$168, %rsp
	movq	%rdi, -168(%rbp)
	movq	%rsi, -144(%rbp)
	movq	%rdx, -136(%rbp)
	movq	%rdi, -96(%rbp)
Ltmp1050:
	.loc	40 910 32 prologue_end
	movq	%rdi, -88(%rbp)
Ltmp1051:
	.loc	6 1157 34
	leaq	-112(%rbp), %rax
	movq	%rax, -80(%rbp)
	.loc	6 1157 9 is_stmt 0
	movq	(%rdi), %rax
	movq	%rax, -112(%rbp)
	movq	8(%rdi), %rax
	movq	%rax, -104(%rbp)
	.loc	6 1158 9 is_stmt 1
	movq	-112(%rbp), %rcx
	movq	%rcx, -160(%rbp)
	movq	-104(%rbp), %rax
	movq	%rax, -152(%rbp)
	movq	%rcx, -72(%rbp)
	movq	%rax, -64(%rbp)
	.loc	6 0 9 is_stmt 0
	movq	-152(%rbp), %rdx
	movq	-160(%rbp), %rax
	movq	-168(%rbp), %rcx
Ltmp1052:
	.loc	45 627 38 is_stmt 1
	movq	%rax, -40(%rbp)
	movq	%rdx, -32(%rbp)
Ltmp1053:
	.loc	44 89 9
	movq	%rax, -24(%rbp)
	movq	%rdx, -16(%rbp)
Ltmp1054:
	.loc	40 911 20
	movq	%rcx, -8(%rbp)
	.loc	40 911 26 is_stmt 0
	movq	-144(%rbp), %rdi
	movq	-136(%rbp), %rsi
	movq	%rdi, -128(%rbp)
	movq	%rsi, -120(%rbp)
Ltmp1055:
	.loc	6 1354 9 is_stmt 1
	movq	-128(%rbp), %rsi
	movq	-120(%rbp), %rdi
	movq	%rdi, 8(%rcx)
	movq	%rsi, (%rcx)
Ltmp1056:
	.loc	40 914 2
	addq	$168, %rsp
	popq	%rbp
	retq
Ltmp1057:
Lfunc_end124:
	.cfi_endproc

	.globl	__ZN4core3mem7replace17h8c9544bc6c0283e7E
	.p2align	4, 0x90
__ZN4core3mem7replace17h8c9544bc6c0283e7E:
Lfunc_begin125:
	.loc	40 905 0
	.cfi_startproc
	pushq	%rbp
	.cfi_def_cfa_offset 16
	.cfi_offset %rbp, -16
	movq	%rsp, %rbp
	.cfi_def_cfa_register %rbp
	subq	$88, %rsp
	movq	%rdi, -88(%rbp)
	movb	%sil, %al
	movb	%al, -76(%rbp)
	movq	%rdi, -72(%rbp)
	movb	%al, -57(%rbp)
Ltmp1058:
	.loc	40 910 32 prologue_end
	movq	%rdi, -56(%rbp)
Ltmp1059:
	.loc	6 1157 34
	leaq	-73(%rbp), %rax
	movq	%rax, -48(%rbp)
	.loc	6 1157 9 is_stmt 0
	movb	(%rdi), %al
	movb	%al, -73(%rbp)
	.loc	6 1158 9 is_stmt 1
	movb	-73(%rbp), %al
	movb	%al, -75(%rbp)
	movb	%al, -33(%rbp)
	.loc	6 0 9 is_stmt 0
	movb	-75(%rbp), %al
	movq	-88(%rbp), %rcx
	movb	-76(%rbp), %dl
Ltmp1060:
	.loc	45 627 38 is_stmt 1
	movb	%al, -10(%rbp)
Ltmp1061:
	.loc	44 89 9
	movb	%al, -9(%rbp)
Ltmp1062:
	.loc	40 911 20
	movq	%rcx, -8(%rbp)
	.loc	40 911 26 is_stmt 0
	movb	%dl, -74(%rbp)
Ltmp1063:
	.loc	6 1354 9 is_stmt 1
	movb	-74(%rbp), %dl
	movb	%dl, (%rcx)
Ltmp1064:
	.loc	40 914 2
	addq	$88, %rsp
	popq	%rbp
	retq
Ltmp1065:
Lfunc_end125:
	.cfi_endproc

	.globl	__ZN4core3mem7replace17hcd74b83e1185bcd8E
	.p2align	4, 0x90
__ZN4core3mem7replace17hcd74b83e1185bcd8E:
Lfunc_begin126:
	.loc	40 905 0
	.cfi_startproc
	pushq	%rbp
	.cfi_def_cfa_offset 16
	.cfi_offset %rbp, -16
	movq	%rsp, %rbp
	.cfi_def_cfa_register %rbp
	subq	$184, %rsp
	movq	%rdi, -184(%rbp)
	movq	%rsi, -176(%rbp)
	movq	%rdx, -168(%rbp)
	movq	%rdi, -112(%rbp)
	movq	%rsi, -104(%rbp)
	movq	%rdx, -96(%rbp)
Ltmp1066:
	.loc	40 910 32 prologue_end
	movq	%rdi, -88(%rbp)
Ltmp1067:
	.loc	6 1157 34
	leaq	-128(%rbp), %rax
	movq	%rax, -80(%rbp)
	.loc	6 1157 9 is_stmt 0
	movq	(%rdi), %rax
	movq	%rax, -128(%rbp)
	movq	8(%rdi), %rax
	movq	%rax, -120(%rbp)
	.loc	6 1158 9 is_stmt 1
	movq	-128(%rbp), %rcx
	movq	%rcx, -160(%rbp)
	movq	-120(%rbp), %rax
	movq	%rax, -152(%rbp)
	movq	%rcx, -72(%rbp)
	movq	%rax, -64(%rbp)
	.loc	6 0 9 is_stmt 0
	movq	-152(%rbp), %rdx
	movq	-160(%rbp), %rax
	movq	-184(%rbp), %rcx
	movq	-168(%rbp), %rsi
	movq	-176(%rbp), %rdi
Ltmp1068:
	.loc	45 627 38 is_stmt 1
	movq	%rax, -40(%rbp)
	movq	%rdx, -32(%rbp)
Ltmp1069:
	.loc	44 89 9
	movq	%rax, -24(%rbp)
	movq	%rdx, -16(%rbp)
Ltmp1070:
	.loc	40 911 20
	movq	%rcx, -8(%rbp)
	.loc	40 911 26 is_stmt 0
	movq	%rdi, -144(%rbp)
	movq	%rsi, -136(%rbp)
Ltmp1071:
	.loc	6 1354 9 is_stmt 1
	movq	-144(%rbp), %rsi
	movq	-136(%rbp), %rdi
	movq	%rdi, 8(%rcx)
	movq	%rsi, (%rcx)
Ltmp1072:
	.loc	40 914 2
	addq	$184, %rsp
	popq	%rbp
	retq
Ltmp1073:
Lfunc_end126:
	.cfi_endproc

	.globl	__ZN4core3mem7replace17hd088935928a1d0feE
	.p2align	4, 0x90
__ZN4core3mem7replace17hd088935928a1d0feE:
Lfunc_begin127:
	.loc	40 905 0
	.cfi_startproc
	pushq	%rbp
	.cfi_def_cfa_offset 16
	.cfi_offset %rbp, -16
	movq	%rsp, %rbp
	.cfi_def_cfa_register %rbp
	subq	$176, %rsp
	movq	%rdx, -176(%rbp)
Ltmp1074:
	movq	%rsi, -168(%rbp)
	movq	%rdi, -160(%rbp)
	movq	%rdi, -152(%rbp)
	movq	%rsi, -48(%rbp)
Ltmp1075:
	.loc	40 910 32 prologue_end
	movq	%rsi, -40(%rbp)
Ltmp1076:
	.loc	6 1157 34
	leaq	-120(%rbp), %rax
	movq	%rax, -32(%rbp)
	.loc	6 1157 9 is_stmt 0
	movq	(%rsi), %rax
	movq	%rax, -120(%rbp)
	movq	8(%rsi), %rax
	movq	%rax, -112(%rbp)
	movq	16(%rsi), %rax
	movq	%rax, -104(%rbp)
	.loc	6 1158 9 is_stmt 1
	movq	-120(%rbp), %rax
	movq	%rax, -96(%rbp)
	movq	-112(%rbp), %rax
	movq	%rax, -88(%rbp)
	movq	-104(%rbp), %rax
	movq	%rax, -80(%rbp)
Ltmp1077:
	.loc	6 0 9 is_stmt 0
	movq	-152(%rbp), %rax
	movq	-168(%rbp), %rcx
	movq	-176(%rbp), %rdx
	movq	-160(%rbp), %rsi
Ltmp1078:
	.loc	45 627 38 is_stmt 1
	movq	-96(%rbp), %rdi
	movq	%rdi, -72(%rbp)
	movq	-88(%rbp), %rdi
	movq	%rdi, -64(%rbp)
	movq	-80(%rbp), %rdi
	movq	%rdi, -56(%rbp)
Ltmp1079:
	.loc	44 89 9
	movq	-72(%rbp), %rdi
	movq	%rdi, (%rsi)
	movq	-64(%rbp), %rdi
	movq	%rdi, 8(%rsi)
	movq	-56(%rbp), %rdi
	movq	%rdi, 16(%rsi)
Ltmp1080:
	.loc	40 911 20
	movq	%rcx, -8(%rbp)
	.loc	40 911 26 is_stmt 0
	movq	(%rdx), %rsi
	movq	%rsi, -144(%rbp)
	movq	8(%rdx), %rsi
	movq	%rsi, -136(%rbp)
	movq	16(%rdx), %rdx
	movq	%rdx, -128(%rbp)
Ltmp1081:
	.loc	6 1354 9 is_stmt 1
	movq	-144(%rbp), %rdx
	movq	%rdx, (%rcx)
	movq	-136(%rbp), %rdx
	movq	%rdx, 8(%rcx)
	movq	-128(%rbp), %rdx
	movq	%rdx, 16(%rcx)
Ltmp1082:
	.loc	40 914 2
	addq	$176, %rsp
	popq	%rbp
	retq
Ltmp1083:
Lfunc_end127:
	.cfi_endproc

	.globl	__ZN4core3mem7replace17hd4fa7892995bdeafE
	.p2align	4, 0x90
__ZN4core3mem7replace17hd4fa7892995bdeafE:
Lfunc_begin128:
	.loc	40 905 0
	.cfi_startproc
	pushq	%rbp
	.cfi_def_cfa_offset 16
	.cfi_offset %rbp, -16
	movq	%rsp, %rbp
	.cfi_def_cfa_register %rbp
	subq	$184, %rsp
	movq	%rdi, -184(%rbp)
	movq	%rsi, -176(%rbp)
	movq	%rdx, -168(%rbp)
	movq	%rdi, -112(%rbp)
	movq	%rsi, -104(%rbp)
	movq	%rdx, -96(%rbp)
Ltmp1084:
	.loc	40 910 32 prologue_end
	movq	%rdi, -88(%rbp)
Ltmp1085:
	.loc	6 1157 34
	leaq	-128(%rbp), %rax
	movq	%rax, -80(%rbp)
	.loc	6 1157 9 is_stmt 0
	movq	(%rdi), %rax
	movq	%rax, -128(%rbp)
	movq	8(%rdi), %rax
	movq	%rax, -120(%rbp)
	.loc	6 1158 9 is_stmt 1
	movq	-128(%rbp), %rcx
	movq	%rcx, -160(%rbp)
	movq	-120(%rbp), %rax
	movq	%rax, -152(%rbp)
	movq	%rcx, -72(%rbp)
	movq	%rax, -64(%rbp)
	.loc	6 0 9 is_stmt 0
	movq	-152(%rbp), %rdx
	movq	-160(%rbp), %rax
	movq	-184(%rbp), %rcx
	movq	-168(%rbp), %rsi
	movq	-176(%rbp), %rdi
Ltmp1086:
	.loc	45 627 38 is_stmt 1
	movq	%rax, -40(%rbp)
	movq	%rdx, -32(%rbp)
Ltmp1087:
	.loc	44 89 9
	movq	%rax, -24(%rbp)
	movq	%rdx, -16(%rbp)
Ltmp1088:
	.loc	40 911 20
	movq	%rcx, -8(%rbp)
	.loc	40 911 26 is_stmt 0
	movq	%rdi, -144(%rbp)
	movq	%rsi, -136(%rbp)
Ltmp1089:
	.loc	6 1354 9 is_stmt 1
	movq	-144(%rbp), %rsi
	movq	-136(%rbp), %rdi
	movq	%rdi, 8(%rcx)
	movq	%rsi, (%rcx)
Ltmp1090:
	.loc	40 914 2
	addq	$184, %rsp
	popq	%rbp
	retq
Ltmp1091:
Lfunc_end128:
	.cfi_endproc

	.globl	__ZN4core3mem7replace17hdd7e6141db740728E
	.p2align	4, 0x90
__ZN4core3mem7replace17hdd7e6141db740728E:
Lfunc_begin129:
	.loc	40 905 0
	.cfi_startproc
	pushq	%rbp
	.cfi_def_cfa_offset 16
	.cfi_offset %rbp, -16
	movq	%rsp, %rbp
	.cfi_def_cfa_register %rbp
	subq	$120, %rsp
	movq	%rdi, -120(%rbp)
	movq	%rsi, -112(%rbp)
	movq	%rdi, -80(%rbp)
	movq	%rsi, -72(%rbp)
Ltmp1092:
	.loc	40 910 32 prologue_end
	movq	%rdi, -64(%rbp)
Ltmp1093:
	.loc	6 1157 34
	leaq	-88(%rbp), %rax
	movq	%rax, -56(%rbp)
	.loc	6 1157 9 is_stmt 0
	movq	(%rdi), %rax
	movq	%rax, -88(%rbp)
	.loc	6 1158 9 is_stmt 1
	movq	-88(%rbp), %rax
	movq	%rax, -104(%rbp)
	movq	%rax, -48(%rbp)
	.loc	6 0 9 is_stmt 0
	movq	-104(%rbp), %rax
	movq	-120(%rbp), %rcx
	movq	-112(%rbp), %rdx
Ltmp1094:
	.loc	45 627 38 is_stmt 1
	movq	%rax, -24(%rbp)
Ltmp1095:
	.loc	44 89 9
	movq	%rax, -16(%rbp)
Ltmp1096:
	.loc	40 911 20
	movq	%rcx, -8(%rbp)
	.loc	40 911 26 is_stmt 0
	movq	%rdx, -96(%rbp)
Ltmp1097:
	.loc	6 1354 9 is_stmt 1
	movq	-96(%rbp), %rdx
	movq	%rdx, (%rcx)
Ltmp1098:
	.loc	40 914 2
	addq	$120, %rsp
	popq	%rbp
	retq
Ltmp1099:
Lfunc_end129:
	.cfi_endproc

	.globl	__ZN4core3mem7replace17he7ef912e343311caE
	.p2align	4, 0x90
__ZN4core3mem7replace17he7ef912e343311caE:
Lfunc_begin130:
	.loc	40 905 0
	.cfi_startproc
	pushq	%rbp
	.cfi_def_cfa_offset 16
	.cfi_offset %rbp, -16
	movq	%rsp, %rbp
	.cfi_def_cfa_register %rbp
	subq	$184, %rsp
	movq	%rdi, -184(%rbp)
	movq	%rsi, -176(%rbp)
	movq	%rdx, -168(%rbp)
	movq	%rdi, -112(%rbp)
	movq	%rsi, -104(%rbp)
	movq	%rdx, -96(%rbp)
Ltmp1100:
	.loc	40 910 32 prologue_end
	movq	%rdi, -88(%rbp)
Ltmp1101:
	.loc	6 1157 34
	leaq	-128(%rbp), %rax
	movq	%rax, -80(%rbp)
	.loc	6 1157 9 is_stmt 0
	movq	(%rdi), %rax
	movq	%rax, -128(%rbp)
	movq	8(%rdi), %rax
	movq	%rax, -120(%rbp)
	.loc	6 1158 9 is_stmt 1
	movq	-128(%rbp), %rcx
	movq	%rcx, -160(%rbp)
	movq	-120(%rbp), %rax
	movq	%rax, -152(%rbp)
	movq	%rcx, -72(%rbp)
	movq	%rax, -64(%rbp)
	.loc	6 0 9 is_stmt 0
	movq	-152(%rbp), %rdx
	movq	-160(%rbp), %rax
	movq	-184(%rbp), %rcx
	movq	-168(%rbp), %rsi
	movq	-176(%rbp), %rdi
Ltmp1102:
	.loc	45 627 38 is_stmt 1
	movq	%rax, -40(%rbp)
	movq	%rdx, -32(%rbp)
Ltmp1103:
	.loc	44 89 9
	movq	%rax, -24(%rbp)
	movq	%rdx, -16(%rbp)
Ltmp1104:
	.loc	40 911 20
	movq	%rcx, -8(%rbp)
	.loc	40 911 26 is_stmt 0
	movq	%rdi, -144(%rbp)
	movq	%rsi, -136(%rbp)
Ltmp1105:
	.loc	6 1354 9 is_stmt 1
	movq	-144(%rbp), %rsi
	movq	-136(%rbp), %rdi
	movq	%rdi, 8(%rcx)
	movq	%rsi, (%rcx)
Ltmp1106:
	.loc	40 914 2
	addq	$184, %rsp
	popq	%rbp
	retq
Ltmp1107:
Lfunc_end130:
	.cfi_endproc

	.p2align	4, 0x90
__ZN4core3num23_$LT$impl$u20$usize$GT$11checked_add17he0ecae3ebbfac79dE:
Lfunc_begin131:
	.loc	21 442 0
	.cfi_startproc
	pushq	%rbp
	.cfi_def_cfa_offset 16
	.cfi_offset %rbp, -16
	movq	%rsp, %rbp
	.cfi_def_cfa_register %rbp
	subq	$120, %rsp
	movq	%rdi, -80(%rbp)
	movq	%rsi, -72(%rbp)
Ltmp1108:
	.loc	21 443 26 prologue_end
	movq	%rdi, -64(%rbp)
	.loc	21 443 47 is_stmt 0
	movq	%rsi, -56(%rbp)
Ltmp1109:
	.loc	21 1479 26 is_stmt 1
	addq	%rsi, %rdi
	setb	%al
	andb	$1, %al
	movq	%rdi, -48(%rbp)
	movb	%al, -40(%rbp)
	movq	-48(%rbp), %rcx
	movb	-40(%rbp), %al
	.loc	21 1479 18 is_stmt 0
	movq	%rcx, -32(%rbp)
	.loc	21 1479 21
	movb	%al, %dl
	andb	$1, %dl
	movb	%dl, -17(%rbp)
Ltmp1110:
	.loc	21 1480 13 is_stmt 1
	movq	%rcx, -96(%rbp)
	andb	$1, %al
	movb	%al, -88(%rbp)
Ltmp1111:
	.loc	21 443 18
	movq	-96(%rbp), %rax
	movq	%rax, -120(%rbp)
	movq	%rax, -16(%rbp)
	.loc	21 443 21 is_stmt 0
	movb	-88(%rbp), %al
	movb	%al, %cl
	andb	$1, %cl
	movb	%cl, -2(%rbp)
Ltmp1112:
	.loc	21 444 16 is_stmt 1
	andb	$1, %al
	movb	%al, -1(%rbp)
	testb	$1, -1(%rbp)
	jne	LBB131_2
	.loc	21 0 16 is_stmt 0
	movq	-120(%rbp), %rax
	.loc	21 444 42
	movq	%rax, -104(%rbp)
	movq	$1, -112(%rbp)
	.loc	21 444 13
	jmp	LBB131_3
LBB131_2:
	.loc	21 444 30
	movq	$0, -112(%rbp)
Ltmp1113:
LBB131_3:
	.loc	21 445 10 is_stmt 1
	movq	-112(%rbp), %rax
	movq	-104(%rbp), %rdx
	addq	$120, %rsp
	popq	%rbp
	retq
Ltmp1114:
Lfunc_end131:
	.cfi_endproc

	.p2align	4, 0x90
__ZN4core3num23_$LT$impl$u20$usize$GT$11checked_mul17h793c0d8d4c66f9fbE:
Lfunc_begin132:
	.loc	21 558 0
	.cfi_startproc
	pushq	%rbp
	.cfi_def_cfa_offset 16
	.cfi_offset %rbp, -16
	movq	%rsp, %rbp
	.cfi_def_cfa_register %rbp
	subq	$120, %rsp
	movq	%rdi, %rax
	movq	%rax, -80(%rbp)
	movq	%rsi, -72(%rbp)
Ltmp1115:
	.loc	21 559 26 prologue_end
	movq	%rax, -64(%rbp)
	.loc	21 559 47 is_stmt 0
	movq	%rsi, -56(%rbp)
Ltmp1116:
	.loc	21 1677 26 is_stmt 1
	mulq	%rsi
	movq	%rax, %rcx
	seto	%al
	andb	$1, %al
	movq	%rcx, -48(%rbp)
	movb	%al, -40(%rbp)
	movq	-48(%rbp), %rcx
	movb	-40(%rbp), %al
	.loc	21 1677 18 is_stmt 0
	movq	%rcx, -32(%rbp)
	.loc	21 1677 21
	movb	%al, %dl
	andb	$1, %dl
	movb	%dl, -17(%rbp)
Ltmp1117:
	.loc	21 1678 13 is_stmt 1
	movq	%rcx, -96(%rbp)
	andb	$1, %al
	movb	%al, -88(%rbp)
Ltmp1118:
	.loc	21 559 18
	movq	-96(%rbp), %rax
	movq	%rax, -120(%rbp)
	movq	%rax, -16(%rbp)
	.loc	21 559 21 is_stmt 0
	movb	-88(%rbp), %al
	movb	%al, %cl
	andb	$1, %cl
	movb	%cl, -2(%rbp)
Ltmp1119:
	.loc	21 560 16 is_stmt 1
	andb	$1, %al
	movb	%al, -1(%rbp)
	testb	$1, -1(%rbp)
	jne	LBB132_2
	.loc	21 0 16 is_stmt 0
	movq	-120(%rbp), %rax
	.loc	21 560 42
	movq	%rax, -104(%rbp)
	movq	$1, -112(%rbp)
	.loc	21 560 13
	jmp	LBB132_3
LBB132_2:
	.loc	21 560 30
	movq	$0, -112(%rbp)
Ltmp1120:
LBB132_3:
	.loc	21 561 10 is_stmt 1
	movq	-112(%rbp), %rax
	movq	-104(%rbp), %rdx
	addq	$120, %rsp
	popq	%rbp
	retq
Ltmp1121:
Lfunc_end132:
	.cfi_endproc

	.p2align	4, 0x90
__ZN4core3num23_$LT$impl$u20$usize$GT$17next_power_of_two17h6e759dfc8677de0cE:
Lfunc_begin133:
	.loc	21 2190 0
	.cfi_startproc
	pushq	%rbp
	.cfi_def_cfa_offset 16
	.cfi_offset %rbp, -16
	movq	%rsp, %rbp
	.cfi_def_cfa_register %rbp
	subq	$64, %rsp
	movq	%rdi, -56(%rbp)
	movq	%rdi, -40(%rbp)
Ltmp1122:
	.loc	21 2191 13 prologue_end
	movq	%rdi, -32(%rbp)
Ltmp1123:
	.loc	21 2159 16
	cmpq	$1, %rdi
	jbe	LBB133_2
	.loc	21 0 16 is_stmt 0
	movq	-56(%rbp), %rax
	.loc	21 2161 21 is_stmt 1
	subq	$1, %rax
	movq	%rax, -24(%rbp)
Ltmp1124:
	.loc	21 2166 30
	bsrq	%rax, %rax
	xorq	$63, %rax
	movq	%rax, -16(%rbp)
	movq	-16(%rbp), %rcx
	movq	%rcx, -8(%rbp)
Ltmp1125:
	.loc	21 2167 13
	andq	$63, %rcx
	movq	$-1, %rax
	shrq	%cl, %rax
	movq	%rax, -48(%rbp)
Ltmp1126:
	.loc	21 2168 10
	jmp	LBB133_3
LBB133_2:
	.loc	21 2159 35
	movq	$0, -48(%rbp)
Ltmp1127:
LBB133_3:
	.loc	21 2191 13
	movq	-48(%rbp), %rax
	addq	$1, %rax
	movq	%rax, -64(%rbp)
	setb	%al
	testb	$1, %al
	jne	LBB133_5
	.loc	21 0 13 is_stmt 0
	movq	-64(%rbp), %rax
	.loc	21 2192 10 is_stmt 1
	addq	$64, %rsp
	popq	%rbp
	retq
LBB133_5:
	.loc	21 2191 13
	leaq	_str.0(%rip), %rdi
	leaq	l___unnamed_38(%rip), %rdx
	movl	$28, %esi
	callq	__ZN4core9panicking5panic17hc1bc45270cf64b03E
Ltmp1128:
Lfunc_end133:
	.cfi_endproc

	.p2align	4, 0x90
__ZN4core3ops8function6FnOnce40call_once$u7b$$u7b$vtable.shim$u7d$$u7d$17h444d08e6c55d85eaE:
Lfunc_begin134:
	.file	50 "/rustc/2c8cc343237b8f7d5a3c3703e3a87f2eb2c54a74/library/core/src/ops" "function.rs"
	.loc	50 250 0
	.cfi_startproc
	pushq	%rbp
	.cfi_def_cfa_offset 16
	.cfi_offset %rbp, -16
	movq	%rsp, %rbp
	.cfi_def_cfa_register %rbp
	subq	$16, %rsp
	movq	%rsi, -16(%rbp)
	movq	%rdi, -8(%rbp)
Ltmp1129:
	.loc	50 250 5 prologue_end
	movq	(%rdi), %rdi
	movq	-16(%rbp), %rsi
	callq	__ZN4core3ops8function6FnOnce9call_once17hf353a7363114e7c5E
	addq	$16, %rsp
	popq	%rbp
	retq
Ltmp1130:
Lfunc_end134:
	.cfi_endproc

	.p2align	4, 0x90
__ZN4core3ops8function6FnOnce40call_once$u7b$$u7b$vtable.shim$u7d$$u7d$17h813c469c7c5fc87bE:
Lfunc_begin135:
	.loc	50 250 0
	.cfi_startproc
	pushq	%rbp
	.cfi_def_cfa_offset 16
	.cfi_offset %rbp, -16
	movq	%rsp, %rbp
	.cfi_def_cfa_register %rbp
	subq	$16, %rsp
	movq	%rdi, %rax
	movq	%rsi, -16(%rbp)
	movq	%rax, -8(%rbp)
Ltmp1131:
	.loc	50 250 5 prologue_end
	movq	(%rax), %rdi
	movq	8(%rax), %rsi
	movq	-16(%rbp), %rdx
	callq	__ZN4core3ops8function6FnOnce9call_once17ha513311a011d0313E
	andb	$1, %al
	movzbl	%al, %eax
	addq	$16, %rsp
	popq	%rbp
	retq
Ltmp1132:
Lfunc_end135:
	.cfi_endproc

	.p2align	4, 0x90
__ZN4core3ops8function6FnOnce40call_once$u7b$$u7b$vtable.shim$u7d$$u7d$17hba1a50cb2a6de2afE:
Lfunc_begin136:
	.loc	50 250 0
	.cfi_startproc
	pushq	%rbp
	.cfi_def_cfa_offset 16
	.cfi_offset %rbp, -16
	movq	%rsp, %rbp
	.cfi_def_cfa_register %rbp
	subq	$32, %rsp
	movq	%rsi, -24(%rbp)
	movq	%rdx, -16(%rbp)
	movq	%rdi, -8(%rbp)
Ltmp1133:
	.loc	50 250 5 prologue_end
	movq	(%rdi), %rdi
	movq	-24(%rbp), %rsi
	movq	-16(%rbp), %rdx
	callq	__ZN4core3ops8function6FnOnce9call_once17hd035645e0b26cf9cE
	addq	$32, %rsp
	popq	%rbp
	retq
Ltmp1134:
Lfunc_end136:
	.cfi_endproc

	.p2align	4, 0x90
__ZN4core3ops8function6FnOnce9call_once17h23fe1faf4173c2c9E:
Lfunc_begin137:
	.loc	50 250 0
	.cfi_startproc
	pushq	%rbp
	.cfi_def_cfa_offset 16
	.cfi_offset %rbp, -16
	movq	%rsp, %rbp
	.cfi_def_cfa_register %rbp
	subq	$32, %rsp
	movq	%rdi, -24(%rbp)
	movq	%rsi, -16(%rbp)
Ltmp1135:
	.loc	50 250 5 prologue_end
	movq	-24(%rbp), %rdi
	movq	-16(%rbp), %rsi
	callq	__ZN4core3cmp5impls50_$LT$impl$u20$core..cmp..Ord$u20$for$u20$usize$GT$3cmp17h3216b2b993765d08E
	addq	$32, %rsp
	popq	%rbp
	retq
Ltmp1136:
Lfunc_end137:
	.cfi_endproc

	.p2align	4, 0x90
__ZN4core3ops8function6FnOnce9call_once17h330b18c71814dc08E:
Lfunc_begin138:
	.loc	50 250 0
	.cfi_startproc
	.cfi_personality 155, _rust_eh_personality
	.cfi_lsda 16, Lexception23
	pushq	%rbp
	.cfi_def_cfa_offset 16
	.cfi_offset %rbp, -16
	movq	%rsp, %rbp
	.cfi_def_cfa_register %rbp
	subq	$32, %rsp
	movq	%rdi, -32(%rbp)
Ltmp1137:
	leaq	-32(%rbp), %rdi
Ltmp1140:
	.loc	50 250 5 prologue_end
	callq	__ZN3std6thread5local4fast13destroy_value28_$u7b$$u7b$closure$u7d$$u7d$17h2b5b17e0d4a5157fE
Ltmp1138:
	jmp	LBB138_3
LBB138_1:
	movq	-16(%rbp), %rdi
	callq	__Unwind_Resume
LBB138_2:
Ltmp1139:
	.loc	50 0 5 is_stmt 0
	movq	%rax, %rcx
	movl	%edx, %eax
	movq	%rcx, -16(%rbp)
	movl	%eax, -8(%rbp)
	jmp	LBB138_1
LBB138_3:
	.loc	50 250 5
	addq	$32, %rsp
	popq	%rbp
	retq
Ltmp1141:
Lfunc_end138:
	.cfi_endproc
	.section	__TEXT,__gcc_except_tab
	.p2align	2
GCC_except_table138:
Lexception23:
	.byte	255
	.byte	255
	.byte	1
	.uleb128 Lcst_end23-Lcst_begin23
Lcst_begin23:
	.uleb128 Ltmp1137-Lfunc_begin138
	.uleb128 Ltmp1138-Ltmp1137
	.uleb128 Ltmp1139-Lfunc_begin138
	.byte	0
	.uleb128 Ltmp1138-Lfunc_begin138
	.uleb128 Lfunc_end138-Ltmp1138
	.byte	0
	.byte	0
Lcst_end23:
	.p2align	2

	.section	__TEXT,__text,regular,pure_instructions
	.p2align	4, 0x90
__ZN4core3ops8function6FnOnce9call_once17h693a046494655035E:
Lfunc_begin139:
	.loc	50 250 0 is_stmt 1
	.cfi_startproc
	.cfi_personality 155, _rust_eh_personality
	.cfi_lsda 16, Lexception24
	pushq	%rbp
	.cfi_def_cfa_offset 16
	.cfi_offset %rbp, -16
	movq	%rsp, %rbp
	.cfi_def_cfa_register %rbp
	subq	$32, %rsp
	movq	%rdi, -32(%rbp)
Ltmp1142:
	leaq	-32(%rbp), %rdi
Ltmp1145:
	.loc	50 250 5 prologue_end
	callq	__ZN3std6thread5local4fast13destroy_value28_$u7b$$u7b$closure$u7d$$u7d$17h037c57ffe469376cE
Ltmp1143:
	jmp	LBB139_3
LBB139_1:
	movq	-16(%rbp), %rdi
	callq	__Unwind_Resume
LBB139_2:
Ltmp1144:
	.loc	50 0 5 is_stmt 0
	movq	%rax, %rcx
	movl	%edx, %eax
	movq	%rcx, -16(%rbp)
	movl	%eax, -8(%rbp)
	jmp	LBB139_1
LBB139_3:
	.loc	50 250 5
	addq	$32, %rsp
	popq	%rbp
	retq
Ltmp1146:
Lfunc_end139:
	.cfi_endproc
	.section	__TEXT,__gcc_except_tab
	.p2align	2
GCC_except_table139:
Lexception24:
	.byte	255
	.byte	255
	.byte	1
	.uleb128 Lcst_end24-Lcst_begin24
Lcst_begin24:
	.uleb128 Ltmp1142-Lfunc_begin139
	.uleb128 Ltmp1143-Ltmp1142
	.uleb128 Ltmp1144-Lfunc_begin139
	.byte	0
	.uleb128 Ltmp1143-Lfunc_begin139
	.uleb128 Lfunc_end139-Ltmp1143
	.byte	0
	.byte	0
Lcst_end24:
	.p2align	2

	.section	__TEXT,__text,regular,pure_instructions
	.p2align	4, 0x90
__ZN4core3ops8function6FnOnce9call_once17h9fcc2911ae4319b8E:
Lfunc_begin140:
	.loc	50 250 0 is_stmt 1
	.cfi_startproc
	pushq	%rbp
	.cfi_def_cfa_offset 16
	.cfi_offset %rbp, -16
	movq	%rsp, %rbp
	.cfi_def_cfa_register %rbp
	subq	$32, %rsp
	movq	%rdi, %rax
	movq	%rax, -24(%rbp)
Ltmp1147:
	.loc	50 250 5 prologue_end
	callq	__ZN15crossbeam_utils4sync12sharded_lock14thread_indices4init17he6669db219ed162aE
	movq	-24(%rbp), %rax
	addq	$32, %rsp
	popq	%rbp
	retq
Ltmp1148:
Lfunc_end140:
	.cfi_endproc

	.p2align	4, 0x90
__ZN4core3ops8function6FnOnce9call_once17ha513311a011d0313E:
Lfunc_begin141:
	.loc	50 250 0
	.cfi_startproc
	.cfi_personality 155, _rust_eh_personality
	.cfi_lsda 16, Lexception25
	pushq	%rbp
	.cfi_def_cfa_offset 16
	.cfi_offset %rbp, -16
	movq	%rsp, %rbp
	.cfi_def_cfa_register %rbp
	subq	$48, %rsp
	movq	%rdi, -40(%rbp)
	movq	%rsi, -32(%rbp)
	movq	%rdx, -24(%rbp)
Ltmp1152:
	.loc	50 250 5 prologue_end
	movq	-24(%rbp), %rsi
Ltmp1149:
	leaq	-40(%rbp), %rdi
	callq	__ZN9hashbrown3raw21RawTable$LT$T$C$A$GT$4find28_$u7b$$u7b$closure$u7d$$u7d$17h65fdc360e893fdccE
Ltmp1150:
	movb	%al, -41(%rbp)
	jmp	LBB141_3
LBB141_1:
	movq	-16(%rbp), %rdi
	callq	__Unwind_Resume
LBB141_2:
Ltmp1151:
	.loc	50 0 5 is_stmt 0
	movq	%rax, %rcx
	movl	%edx, %eax
	movq	%rcx, -16(%rbp)
	movl	%eax, -8(%rbp)
	jmp	LBB141_1
LBB141_3:
	movb	-41(%rbp), %al
	.loc	50 250 5
	andb	$1, %al
	movzbl	%al, %eax
	addq	$48, %rsp
	popq	%rbp
	retq
Ltmp1153:
Lfunc_end141:
	.cfi_endproc
	.section	__TEXT,__gcc_except_tab
	.p2align	2
GCC_except_table141:
Lexception25:
	.byte	255
	.byte	255
	.byte	1
	.uleb128 Lcst_end25-Lcst_begin25
Lcst_begin25:
	.uleb128 Ltmp1149-Lfunc_begin141
	.uleb128 Ltmp1150-Ltmp1149
	.uleb128 Ltmp1151-Lfunc_begin141
	.byte	0
	.uleb128 Ltmp1150-Lfunc_begin141
	.uleb128 Lfunc_end141-Ltmp1150
	.byte	0
	.byte	0
Lcst_end25:
	.p2align	2

	.section	__TEXT,__text,regular,pure_instructions
	.p2align	4, 0x90
__ZN4core3ops8function6FnOnce9call_once17hd035645e0b26cf9cE:
Lfunc_begin142:
	.loc	50 250 0 is_stmt 1
	.cfi_startproc
	.cfi_personality 155, _rust_eh_personality
	.cfi_lsda 16, Lexception26
	pushq	%rbp
	.cfi_def_cfa_offset 16
	.cfi_offset %rbp, -16
	movq	%rsp, %rbp
	.cfi_def_cfa_register %rbp
	subq	$48, %rsp
	movq	%rdi, -40(%rbp)
	movq	%rsi, -32(%rbp)
	movq	%rdx, -24(%rbp)
Ltmp1157:
	.loc	50 250 5 prologue_end
	movq	-32(%rbp), %rsi
	movq	-24(%rbp), %rdx
Ltmp1154:
	leaq	-40(%rbp), %rdi
	callq	__ZN9hashbrown3raw21RawTable$LT$T$C$A$GT$14reserve_rehash28_$u7b$$u7b$closure$u7d$$u7d$17h452312c54e855c58E
Ltmp1155:
	movq	%rax, -48(%rbp)
	jmp	LBB142_3
LBB142_1:
	movq	-16(%rbp), %rdi
	callq	__Unwind_Resume
LBB142_2:
Ltmp1156:
	.loc	50 0 5 is_stmt 0
	movq	%rax, %rcx
	movl	%edx, %eax
	movq	%rcx, -16(%rbp)
	movl	%eax, -8(%rbp)
	jmp	LBB142_1
LBB142_3:
	movq	-48(%rbp), %rax
	.loc	50 250 5
	addq	$48, %rsp
	popq	%rbp
	retq
Ltmp1158:
Lfunc_end142:
	.cfi_endproc
	.section	__TEXT,__gcc_except_tab
	.p2align	2
GCC_except_table142:
Lexception26:
	.byte	255
	.byte	255
	.byte	1
	.uleb128 Lcst_end26-Lcst_begin26
Lcst_begin26:
	.uleb128 Ltmp1154-Lfunc_begin142
	.uleb128 Ltmp1155-Ltmp1154
	.uleb128 Ltmp1156-Lfunc_begin142
	.byte	0
	.uleb128 Ltmp1155-Lfunc_begin142
	.uleb128 Lfunc_end142-Ltmp1155
	.byte	0
	.byte	0
Lcst_end26:
	.p2align	2

	.section	__TEXT,__text,regular,pure_instructions
	.p2align	4, 0x90
__ZN4core3ops8function6FnOnce9call_once17hf353a7363114e7c5E:
Lfunc_begin143:
	.loc	50 250 0 is_stmt 1
	.cfi_startproc
	.cfi_personality 155, _rust_eh_personality
	.cfi_lsda 16, Lexception27
	pushq	%rbp
	.cfi_def_cfa_offset 16
	.cfi_offset %rbp, -16
	movq	%rsp, %rbp
	.cfi_def_cfa_register %rbp
	subq	$32, %rsp
	movq	%rdi, -32(%rbp)
	movq	%rsi, -24(%rbp)
Ltmp1162:
	.loc	50 250 5 prologue_end
	movq	-24(%rbp), %rsi
Ltmp1159:
	leaq	-32(%rbp), %rdi
	callq	__ZN3std4sync4once4Once9call_once28_$u7b$$u7b$closure$u7d$$u7d$17hbf4ba59b7dfc616aE
Ltmp1160:
	jmp	LBB143_3
LBB143_1:
	movq	-16(%rbp), %rdi
	callq	__Unwind_Resume
LBB143_2:
Ltmp1161:
	.loc	50 0 5 is_stmt 0
	movq	%rax, %rcx
	movl	%edx, %eax
	movq	%rcx, -16(%rbp)
	movl	%eax, -8(%rbp)
	jmp	LBB143_1
LBB143_3:
	.loc	50 250 5
	addq	$32, %rsp
	popq	%rbp
	retq
Ltmp1163:
Lfunc_end143:
	.cfi_endproc
	.section	__TEXT,__gcc_except_tab
	.p2align	2
GCC_except_table143:
Lexception27:
	.byte	255
	.byte	255
	.byte	1
	.uleb128 Lcst_end27-Lcst_begin27
Lcst_begin27:
	.uleb128 Ltmp1159-Lfunc_begin143
	.uleb128 Ltmp1160-Ltmp1159
	.uleb128 Ltmp1161-Lfunc_begin143
	.byte	0
	.uleb128 Ltmp1160-Lfunc_begin143
	.uleb128 Lfunc_end143-Ltmp1160
	.byte	0
	.byte	0
Lcst_end27:
	.p2align	2

	.section	__TEXT,__text,regular,pure_instructions
	.globl	__ZN4core3ptr100drop_in_place$LT$std..sync..poison..PoisonError$LT$std..sync..mutex..MutexGuard$LT$usize$GT$$GT$$GT$17h27513dce0cf782e1E
	.p2align	4, 0x90
__ZN4core3ptr100drop_in_place$LT$std..sync..poison..PoisonError$LT$std..sync..mutex..MutexGuard$LT$usize$GT$$GT$$GT$17h27513dce0cf782e1E:
Lfunc_begin144:
	.loc	6 490 0 is_stmt 1
	.cfi_startproc
	pushq	%rbp
	.cfi_def_cfa_offset 16
	.cfi_offset %rbp, -16
	movq	%rsp, %rbp
	.cfi_def_cfa_register %rbp
	subq	$16, %rsp
	movq	%rdi, -8(%rbp)
Ltmp1164:
	.loc	6 490 1 prologue_end
	callq	__ZN4core3ptr62drop_in_place$LT$std..sync..mutex..MutexGuard$LT$usize$GT$$GT$17ha01d1db41f24d558E
	addq	$16, %rsp
	popq	%rbp
	retq
Ltmp1165:
Lfunc_end144:
	.cfi_endproc

	.globl	__ZN4core3ptr101drop_in_place$LT$core..cell..UnsafeCell$LT$crossbeam_utils..sync..sharded_lock..ThreadIndices$GT$$GT$17h56dd46ac5611532eE
	.p2align	4, 0x90
__ZN4core3ptr101drop_in_place$LT$core..cell..UnsafeCell$LT$crossbeam_utils..sync..sharded_lock..ThreadIndices$GT$$GT$17h56dd46ac5611532eE:
Lfunc_begin145:
	.loc	6 490 0
	.cfi_startproc
	pushq	%rbp
	.cfi_def_cfa_offset 16
	.cfi_offset %rbp, -16
	movq	%rsp, %rbp
	.cfi_def_cfa_register %rbp
	subq	$16, %rsp
	movq	%rdi, -8(%rbp)
Ltmp1166:
	.loc	6 490 1 prologue_end
	callq	__ZN4core3ptr71drop_in_place$LT$crossbeam_utils..sync..sharded_lock..ThreadIndices$GT$17hab117c7a8a6e5ab2E
	addq	$16, %rsp
	popq	%rbp
	retq
Ltmp1167:
Lfunc_end145:
	.cfi_endproc

	.globl	__ZN4core3ptr101drop_in_place$LT$std..io..error..ErrorData$LT$alloc..boxed..Box$LT$std..io..error..Custom$GT$$GT$$GT$17hccf11ff96d89dbedE
	.p2align	4, 0x90
__ZN4core3ptr101drop_in_place$LT$std..io..error..ErrorData$LT$alloc..boxed..Box$LT$std..io..error..Custom$GT$$GT$$GT$17hccf11ff96d89dbedE:
Lfunc_begin146:
	.loc	6 490 0
	.cfi_startproc
	pushq	%rbp
	.cfi_def_cfa_offset 16
	.cfi_offset %rbp, -16
	movq	%rsp, %rbp
	.cfi_def_cfa_register %rbp
	subq	$16, %rsp
	movq	%rdi, -16(%rbp)
	movq	%rdi, -8(%rbp)
Ltmp1168:
	.loc	6 490 1 prologue_end
	movb	(%rdi), %al
	subb	$3, %al
	jb	LBB146_2
	jmp	LBB146_1
LBB146_1:
	.loc	6 0 1 is_stmt 0
	movq	-16(%rbp), %rdi
	.loc	6 490 1
	addq	$8, %rdi
	callq	__ZN4core3ptr68drop_in_place$LT$alloc..boxed..Box$LT$std..io..error..Custom$GT$$GT$17h0b22cc9adeae5e09E
LBB146_2:
	addq	$16, %rsp
	popq	%rbp
	retq
Ltmp1169:
Lfunc_end146:
	.cfi_endproc

	.globl	__ZN4core3ptr102drop_in_place$LT$alloc..boxed..Box$LT$std..sys..unix..locks..pthread_condvar..AllocatedCondvar$GT$$GT$17h5ae89b65bee79b0eE
	.p2align	4, 0x90
__ZN4core3ptr102drop_in_place$LT$alloc..boxed..Box$LT$std..sys..unix..locks..pthread_condvar..AllocatedCondvar$GT$$GT$17h5ae89b65bee79b0eE:
Lfunc_begin147:
	.loc	6 490 0 is_stmt 1
	.cfi_startproc
	.cfi_personality 155, _rust_eh_personality
	.cfi_lsda 16, Lexception28
	pushq	%rbp
	.cfi_def_cfa_offset 16
	.cfi_offset %rbp, -16
	movq	%rsp, %rbp
	.cfi_def_cfa_register %rbp
	subq	$32, %rsp
	movq	%rdi, -32(%rbp)
	movq	%rdi, -24(%rbp)
Ltmp1176:
	.loc	6 490 1 prologue_end
	movq	(%rdi), %rdi
Ltmp1170:
	callq	__ZN4core3ptr77drop_in_place$LT$std..sys..unix..locks..pthread_condvar..AllocatedCondvar$GT$17h11b4a23a90326810E
Ltmp1171:
	jmp	LBB147_3
LBB147_1:
	.loc	6 0 1 is_stmt 0
	movq	-32(%rbp), %rax
	.loc	6 490 1
	movq	(%rax), %rdi
Ltmp1173:
	callq	__ZN5alloc5alloc8box_free17h9612e9a07e76bb0eE
Ltmp1174:
	jmp	LBB147_5
LBB147_2:
Ltmp1172:
	.loc	6 0 1
	movq	%rax, %rcx
	movl	%edx, %eax
	movq	%rcx, -16(%rbp)
	movl	%eax, -8(%rbp)
	jmp	LBB147_1
LBB147_3:
	movq	-32(%rbp), %rax
	.loc	6 490 1
	movq	(%rax), %rdi
	callq	__ZN5alloc5alloc8box_free17h9612e9a07e76bb0eE
	addq	$32, %rsp
	popq	%rbp
	retq
LBB147_4:
Ltmp1175:
	callq	__ZN4core9panicking19panic_cannot_unwind17h1fbca7e1d7f56ae1E
LBB147_5:
	movq	-16(%rbp), %rdi
	callq	__Unwind_Resume
Ltmp1177:
Lfunc_end147:
	.cfi_endproc
	.section	__TEXT,__gcc_except_tab
	.p2align	2
GCC_except_table147:
Lexception28:
	.byte	255
	.byte	255
	.byte	1
	.uleb128 Lcst_end28-Lcst_begin28
Lcst_begin28:
	.uleb128 Ltmp1170-Lfunc_begin147
	.uleb128 Ltmp1171-Ltmp1170
	.uleb128 Ltmp1172-Lfunc_begin147
	.byte	0
	.uleb128 Ltmp1173-Lfunc_begin147
	.uleb128 Ltmp1174-Ltmp1173
	.uleb128 Ltmp1175-Lfunc_begin147
	.byte	0
	.uleb128 Ltmp1174-Lfunc_begin147
	.uleb128 Lfunc_end147-Ltmp1174
	.byte	0
	.byte	0
Lcst_end28:
	.p2align	2

	.section	__TEXT,__text,regular,pure_instructions
	.globl	__ZN4core3ptr102drop_in_place$LT$std..sync..mutex..Mutex$LT$crossbeam_utils..sync..sharded_lock..ThreadIndices$GT$$GT$17he71bc86f82df0c9cE
	.p2align	4, 0x90
__ZN4core3ptr102drop_in_place$LT$std..sync..mutex..Mutex$LT$crossbeam_utils..sync..sharded_lock..ThreadIndices$GT$$GT$17he71bc86f82df0c9cE:
Lfunc_begin148:
	.loc	6 490 0 is_stmt 1
	.cfi_startproc
	.cfi_personality 155, _rust_eh_personality
	.cfi_lsda 16, Lexception29
	pushq	%rbp
	.cfi_def_cfa_offset 16
	.cfi_offset %rbp, -16
	movq	%rsp, %rbp
	.cfi_def_cfa_register %rbp
	subq	$32, %rsp
	movq	%rdi, -32(%rbp)
	movq	%rdi, -24(%rbp)
Ltmp1178:
Ltmp1184:
	.loc	6 490 1 prologue_end
	callq	__ZN4core3ptr64drop_in_place$LT$std..sys..unix..locks..pthread_mutex..Mutex$GT$17hbd9aee18aef6bbadE
Ltmp1179:
	jmp	LBB148_3
LBB148_1:
	.loc	6 0 1 is_stmt 0
	movq	-32(%rbp), %rdi
	.loc	6 490 1
	addq	$16, %rdi
Ltmp1181:
	callq	__ZN4core3ptr101drop_in_place$LT$core..cell..UnsafeCell$LT$crossbeam_utils..sync..sharded_lock..ThreadIndices$GT$$GT$17h56dd46ac5611532eE
Ltmp1182:
	jmp	LBB148_5
LBB148_2:
Ltmp1180:
	.loc	6 0 1
	movq	%rax, %rcx
	movl	%edx, %eax
	movq	%rcx, -16(%rbp)
	movl	%eax, -8(%rbp)
	jmp	LBB148_1
LBB148_3:
	movq	-32(%rbp), %rdi
	.loc	6 490 1
	addq	$16, %rdi
	callq	__ZN4core3ptr101drop_in_place$LT$core..cell..UnsafeCell$LT$crossbeam_utils..sync..sharded_lock..ThreadIndices$GT$$GT$17h56dd46ac5611532eE
	addq	$32, %rsp
	popq	%rbp
	retq
LBB148_4:
Ltmp1183:
	callq	__ZN4core9panicking19panic_cannot_unwind17h1fbca7e1d7f56ae1E
LBB148_5:
	movq	-16(%rbp), %rdi
	callq	__Unwind_Resume
Ltmp1185:
Lfunc_end148:
	.cfi_endproc
	.section	__TEXT,__gcc_except_tab
	.p2align	2
GCC_except_table148:
Lexception29:
	.byte	255
	.byte	255
	.byte	1
	.uleb128 Lcst_end29-Lcst_begin29
Lcst_begin29:
	.uleb128 Ltmp1178-Lfunc_begin148
	.uleb128 Ltmp1179-Ltmp1178
	.uleb128 Ltmp1180-Lfunc_begin148
	.byte	0
	.uleb128 Ltmp1181-Lfunc_begin148
	.uleb128 Ltmp1182-Ltmp1181
	.uleb128 Ltmp1183-Lfunc_begin148
	.byte	0
	.uleb128 Ltmp1182-Lfunc_begin148
	.uleb128 Lfunc_end148-Ltmp1182
	.byte	0
	.byte	0
Lcst_end29:
	.p2align	2

	.section	__TEXT,__text,regular,pure_instructions
	.globl	__ZN4core3ptr103drop_in_place$LT$std..sync..poison..PoisonError$LT$std..sync..mutex..MutexGuard$LT$$LP$$RP$$GT$$GT$$GT$17h7061fafa7418b65bE
	.p2align	4, 0x90
__ZN4core3ptr103drop_in_place$LT$std..sync..poison..PoisonError$LT$std..sync..mutex..MutexGuard$LT$$LP$$RP$$GT$$GT$$GT$17h7061fafa7418b65bE:
Lfunc_begin149:
	.loc	6 490 0 is_stmt 1
	.cfi_startproc
	pushq	%rbp
	.cfi_def_cfa_offset 16
	.cfi_offset %rbp, -16
	movq	%rsp, %rbp
	.cfi_def_cfa_register %rbp
	subq	$16, %rsp
	movq	%rdi, -8(%rbp)
Ltmp1186:
	.loc	6 490 1 prologue_end
	callq	__ZN4core3ptr65drop_in_place$LT$std..sync..mutex..MutexGuard$LT$$LP$$RP$$GT$$GT$17h5a698a6cd794730eE
	addq	$16, %rsp
	popq	%rbp
	retq
Ltmp1187:
Lfunc_end149:
	.cfi_endproc

	.p2align	4, 0x90
__ZN4core3ptr104drop_in_place$LT$$RF$mut$u20$std..io..Write..write_fmt..Adapter$LT$std..sys..unix..stdio..Stderr$GT$$GT$17h12b71dc1c1177d6dE:
Lfunc_begin150:
	.loc	6 490 0
	.cfi_startproc
	pushq	%rbp
	.cfi_def_cfa_offset 16
	.cfi_offset %rbp, -16
	movq	%rsp, %rbp
	.cfi_def_cfa_register %rbp
	pushq	%rax
	movq	%rdi, -8(%rbp)
Ltmp1188:
	.loc	6 490 1 prologue_end
	addq	$8, %rsp
	popq	%rbp
	retq
Ltmp1189:
Lfunc_end150:
	.cfi_endproc

	.globl	__ZN4core3ptr107drop_in_place$LT$std..sync..mutex..MutexGuard$LT$crossbeam_utils..sync..sharded_lock..ThreadIndices$GT$$GT$17h1a1aeb3c38b5ade3E
	.p2align	4, 0x90
__ZN4core3ptr107drop_in_place$LT$std..sync..mutex..MutexGuard$LT$crossbeam_utils..sync..sharded_lock..ThreadIndices$GT$$GT$17h1a1aeb3c38b5ade3E:
Lfunc_begin151:
	.loc	6 490 0
	.cfi_startproc
	pushq	%rbp
	.cfi_def_cfa_offset 16
	.cfi_offset %rbp, -16
	movq	%rsp, %rbp
	.cfi_def_cfa_register %rbp
	subq	$16, %rsp
	movq	%rdi, -8(%rbp)
Ltmp1190:
	.loc	6 490 1 prologue_end
	callq	__ZN79_$LT$std..sync..mutex..MutexGuard$LT$T$GT$$u20$as$u20$core..ops..drop..Drop$GT$4drop17h6741d4c9b753ea06E
	addq	$16, %rsp
	popq	%rbp
	retq
Ltmp1191:
Lfunc_end151:
	.cfi_endproc

	.globl	__ZN4core3ptr107drop_in_place$LT$std..thread..local..fast..Key$LT$crossbeam_utils..sync..sharded_lock..Registration$GT$$GT$17hc2eacd218e04eed2E
	.p2align	4, 0x90
__ZN4core3ptr107drop_in_place$LT$std..thread..local..fast..Key$LT$crossbeam_utils..sync..sharded_lock..Registration$GT$$GT$17hc2eacd218e04eed2E:
Lfunc_begin152:
	.loc	6 490 0
	.cfi_startproc
	pushq	%rbp
	.cfi_def_cfa_offset 16
	.cfi_offset %rbp, -16
	movq	%rsp, %rbp
	.cfi_def_cfa_register %rbp
	subq	$16, %rsp
	movq	%rdi, -8(%rbp)
Ltmp1192:
	.loc	6 490 1 prologue_end
	callq	__ZN4core3ptr116drop_in_place$LT$std..thread..local..lazy..LazyKeyInner$LT$crossbeam_utils..sync..sharded_lock..Registration$GT$$GT$17haba134352c837381E
	addq	$16, %rsp
	popq	%rbp
	retq
Ltmp1193:
Lfunc_end152:
	.cfi_endproc

	.globl	__ZN4core3ptr113drop_in_place$LT$$LP$std..sync..mutex..MutexGuard$LT$$LP$$RP$$GT$$C$std..sync..condvar..WaitTimeoutResult$RP$$GT$17hc67b466154960b27E
	.p2align	4, 0x90
__ZN4core3ptr113drop_in_place$LT$$LP$std..sync..mutex..MutexGuard$LT$$LP$$RP$$GT$$C$std..sync..condvar..WaitTimeoutResult$RP$$GT$17hc67b466154960b27E:
Lfunc_begin153:
	.loc	6 490 0
	.cfi_startproc
	pushq	%rbp
	.cfi_def_cfa_offset 16
	.cfi_offset %rbp, -16
	movq	%rsp, %rbp
	.cfi_def_cfa_register %rbp
	subq	$16, %rsp
	movq	%rdi, -8(%rbp)
Ltmp1194:
	.loc	6 490 1 prologue_end
	callq	__ZN4core3ptr65drop_in_place$LT$std..sync..mutex..MutexGuard$LT$$LP$$RP$$GT$$GT$17h5a698a6cd794730eE
	addq	$16, %rsp
	popq	%rbp
	retq
Ltmp1195:
Lfunc_end153:
	.cfi_endproc

	.globl	__ZN4core3ptr115drop_in_place$LT$std..sys_common..lazy_box..LazyBox$LT$std..sys..unix..locks..pthread_mutex..AllocatedMutex$GT$$GT$17hd305cc39bf8f576cE
	.p2align	4, 0x90
__ZN4core3ptr115drop_in_place$LT$std..sys_common..lazy_box..LazyBox$LT$std..sys..unix..locks..pthread_mutex..AllocatedMutex$GT$$GT$17hd305cc39bf8f576cE:
Lfunc_begin154:
	.loc	6 490 0
	.cfi_startproc
	pushq	%rbp
	.cfi_def_cfa_offset 16
	.cfi_offset %rbp, -16
	movq	%rsp, %rbp
	.cfi_def_cfa_register %rbp
	subq	$16, %rsp
	movq	%rdi, -8(%rbp)
Ltmp1196:
	.loc	6 490 1 prologue_end
	callq	__ZN85_$LT$std..sys_common..lazy_box..LazyBox$LT$T$GT$$u20$as$u20$core..ops..drop..Drop$GT$4drop17h8551e89cea574473E
	addq	$16, %rsp
	popq	%rbp
	retq
Ltmp1197:
Lfunc_end154:
	.cfi_endproc

	.globl	__ZN4core3ptr116drop_in_place$LT$std..thread..local..lazy..LazyKeyInner$LT$crossbeam_utils..sync..sharded_lock..Registration$GT$$GT$17haba134352c837381E
	.p2align	4, 0x90
__ZN4core3ptr116drop_in_place$LT$std..thread..local..lazy..LazyKeyInner$LT$crossbeam_utils..sync..sharded_lock..Registration$GT$$GT$17haba134352c837381E:
Lfunc_begin155:
	.loc	6 490 0
	.cfi_startproc
	pushq	%rbp
	.cfi_def_cfa_offset 16
	.cfi_offset %rbp, -16
	movq	%rsp, %rbp
	.cfi_def_cfa_register %rbp
	subq	$16, %rsp
	movq	%rdi, -8(%rbp)
Ltmp1198:
	.loc	6 490 1 prologue_end
	callq	__ZN4core3ptr128drop_in_place$LT$core..cell..UnsafeCell$LT$core..option..Option$LT$crossbeam_utils..sync..sharded_lock..Registration$GT$$GT$$GT$17h631087aadad1f94bE
	addq	$16, %rsp
	popq	%rbp
	retq
Ltmp1199:
Lfunc_end155:
	.cfi_endproc

	.globl	__ZN4core3ptr118drop_in_place$LT$alloc..boxed..Box$LT$dyn$u20$core..error..Error$u2b$core..marker..Send$u2b$core..marker..Sync$GT$$GT$17hdbec6a003b00f1d2E
	.p2align	4, 0x90
__ZN4core3ptr118drop_in_place$LT$alloc..boxed..Box$LT$dyn$u20$core..error..Error$u2b$core..marker..Send$u2b$core..marker..Sync$GT$$GT$17hdbec6a003b00f1d2E:
Lfunc_begin156:
	.loc	6 490 0
	.cfi_startproc
	.cfi_personality 155, _rust_eh_personality
	.cfi_lsda 16, Lexception30
	pushq	%rbp
	.cfi_def_cfa_offset 16
	.cfi_offset %rbp, -16
	movq	%rsp, %rbp
	.cfi_def_cfa_register %rbp
	subq	$32, %rsp
	movq	%rdi, %rax
	movq	%rax, -32(%rbp)
	movq	%rax, -24(%rbp)
Ltmp1206:
	.loc	6 490 1 prologue_end
	movq	(%rax), %rdi
	movq	8(%rax), %rax
	movq	(%rax), %rax
Ltmp1200:
	callq	*%rax
Ltmp1201:
	jmp	LBB156_3
LBB156_1:
	.loc	6 0 1 is_stmt 0
	movq	-32(%rbp), %rax
	.loc	6 490 1
	movq	(%rax), %rdi
	movq	8(%rax), %rsi
Ltmp1203:
	callq	__ZN5alloc5alloc8box_free17hf4e0dd14d29a4acaE
Ltmp1204:
	jmp	LBB156_5
LBB156_2:
Ltmp1202:
	.loc	6 0 1
	movq	%rax, %rcx
	movl	%edx, %eax
	movq	%rcx, -16(%rbp)
	movl	%eax, -8(%rbp)
	jmp	LBB156_1
LBB156_3:
	movq	-32(%rbp), %rax
	.loc	6 490 1
	movq	(%rax), %rdi
	movq	8(%rax), %rsi
	callq	__ZN5alloc5alloc8box_free17hf4e0dd14d29a4acaE
	addq	$32, %rsp
	popq	%rbp
	retq
LBB156_4:
Ltmp1205:
	callq	__ZN4core9panicking19panic_cannot_unwind17h1fbca7e1d7f56ae1E
LBB156_5:
	movq	-16(%rbp), %rdi
	callq	__Unwind_Resume
Ltmp1207:
Lfunc_end156:
	.cfi_endproc
	.section	__TEXT,__gcc_except_tab
	.p2align	2
GCC_except_table156:
Lexception30:
	.byte	255
	.byte	255
	.byte	1
	.uleb128 Lcst_end30-Lcst_begin30
Lcst_begin30:
	.uleb128 Ltmp1200-Lfunc_begin156
	.uleb128 Ltmp1201-Ltmp1200
	.uleb128 Ltmp1202-Lfunc_begin156
	.byte	0
	.uleb128 Ltmp1203-Lfunc_begin156
	.uleb128 Ltmp1204-Ltmp1203
	.uleb128 Ltmp1205-Lfunc_begin156
	.byte	0
	.uleb128 Ltmp1204-Lfunc_begin156
	.uleb128 Lfunc_end156-Ltmp1204
	.byte	0
	.byte	0
Lcst_end30:
	.p2align	2

	.section	__TEXT,__text,regular,pure_instructions
	.globl	__ZN4core3ptr119drop_in_place$LT$std..sys_common..lazy_box..LazyBox$LT$std..sys..unix..locks..pthread_condvar..AllocatedCondvar$GT$$GT$17h08d8867efe32b06fE
	.p2align	4, 0x90
__ZN4core3ptr119drop_in_place$LT$std..sys_common..lazy_box..LazyBox$LT$std..sys..unix..locks..pthread_condvar..AllocatedCondvar$GT$$GT$17h08d8867efe32b06fE:
Lfunc_begin157:
	.loc	6 490 0 is_stmt 1
	.cfi_startproc
	pushq	%rbp
	.cfi_def_cfa_offset 16
	.cfi_offset %rbp, -16
	movq	%rsp, %rbp
	.cfi_def_cfa_register %rbp
	subq	$16, %rsp
	movq	%rdi, -8(%rbp)
Ltmp1208:
	.loc	6 490 1 prologue_end
	callq	__ZN85_$LT$std..sys_common..lazy_box..LazyBox$LT$T$GT$$u20$as$u20$core..ops..drop..Drop$GT$4drop17h39bebdc2913fc506E
	addq	$16, %rsp
	popq	%rbp
	retq
Ltmp1209:
Lfunc_end157:
	.cfi_endproc

	.globl	__ZN4core3ptr124drop_in_place$LT$hashbrown..map..HashMap$LT$std..thread..ThreadId$C$usize$C$std..collections..hash..map..RandomState$GT$$GT$17he30db472dfc80d90E
	.p2align	4, 0x90
__ZN4core3ptr124drop_in_place$LT$hashbrown..map..HashMap$LT$std..thread..ThreadId$C$usize$C$std..collections..hash..map..RandomState$GT$$GT$17he30db472dfc80d90E:
Lfunc_begin158:
	.loc	6 490 0
	.cfi_startproc
	pushq	%rbp
	.cfi_def_cfa_offset 16
	.cfi_offset %rbp, -16
	movq	%rsp, %rbp
	.cfi_def_cfa_register %rbp
	subq	$16, %rsp
	movq	%rdi, -8(%rbp)
Ltmp1210:
	.loc	6 490 1 prologue_end
	callq	__ZN4core3ptr90drop_in_place$LT$hashbrown..raw..RawTable$LT$$LP$std..thread..ThreadId$C$usize$RP$$GT$$GT$17hefcc719d4b0ccf86E
	addq	$16, %rsp
	popq	%rbp
	retq
Ltmp1211:
Lfunc_end158:
	.cfi_endproc

	.globl	__ZN4core3ptr128drop_in_place$LT$core..cell..UnsafeCell$LT$core..option..Option$LT$crossbeam_utils..sync..sharded_lock..Registration$GT$$GT$$GT$17h631087aadad1f94bE
	.p2align	4, 0x90
__ZN4core3ptr128drop_in_place$LT$core..cell..UnsafeCell$LT$core..option..Option$LT$crossbeam_utils..sync..sharded_lock..Registration$GT$$GT$$GT$17h631087aadad1f94bE:
Lfunc_begin159:
	.loc	6 490 0
	.cfi_startproc
	pushq	%rbp
	.cfi_def_cfa_offset 16
	.cfi_offset %rbp, -16
	movq	%rsp, %rbp
	.cfi_def_cfa_register %rbp
	subq	$16, %rsp
	movq	%rdi, -8(%rbp)
Ltmp1212:
	.loc	6 490 1 prologue_end
	callq	__ZN4core3ptr98drop_in_place$LT$core..option..Option$LT$crossbeam_utils..sync..sharded_lock..Registration$GT$$GT$17h155fda9e5ae5fda1E
	addq	$16, %rsp
	popq	%rbp
	retq
Ltmp1213:
Lfunc_end159:
	.cfi_endproc

	.globl	__ZN4core3ptr130drop_in_place$LT$core..result..Result$LT$$LP$$RP$$C$alloc..boxed..Box$LT$dyn$u20$core..any..Any$u2b$core..marker..Send$GT$$GT$$GT$17hb84537f3b296a86dE
	.p2align	4, 0x90
__ZN4core3ptr130drop_in_place$LT$core..result..Result$LT$$LP$$RP$$C$alloc..boxed..Box$LT$dyn$u20$core..any..Any$u2b$core..marker..Send$GT$$GT$$GT$17hb84537f3b296a86dE:
Lfunc_begin160:
	.loc	6 490 0
	.cfi_startproc
	pushq	%rbp
	.cfi_def_cfa_offset 16
	.cfi_offset %rbp, -16
	movq	%rsp, %rbp
	.cfi_def_cfa_register %rbp
	subq	$16, %rsp
	movq	%rdi, -16(%rbp)
	movq	%rdi, -8(%rbp)
Ltmp1214:
	.loc	6 490 1 prologue_end
	movq	(%rdi), %rdx
	movl	$1, %eax
	xorl	%ecx, %ecx
	cmpq	$0, %rdx
	cmoveq	%rcx, %rax
	cmpq	$0, %rax
	jne	LBB160_2
LBB160_1:
	addq	$16, %rsp
	popq	%rbp
	retq
LBB160_2:
	.loc	6 0 1 is_stmt 0
	movq	-16(%rbp), %rdi
	.loc	6 490 1
	callq	__ZN4core3ptr91drop_in_place$LT$alloc..boxed..Box$LT$dyn$u20$core..any..Any$u2b$core..marker..Send$GT$$GT$17h203107f906bbd33cE
	jmp	LBB160_1
Ltmp1215:
Lfunc_end160:
	.cfi_endproc

	.globl	__ZN4core3ptr145drop_in_place$LT$std..sync..poison..PoisonError$LT$std..sync..mutex..MutexGuard$LT$crossbeam_utils..sync..sharded_lock..ThreadIndices$GT$$GT$$GT$17hc5e05901deda00c7E
	.p2align	4, 0x90
__ZN4core3ptr145drop_in_place$LT$std..sync..poison..PoisonError$LT$std..sync..mutex..MutexGuard$LT$crossbeam_utils..sync..sharded_lock..ThreadIndices$GT$$GT$$GT$17hc5e05901deda00c7E:
Lfunc_begin161:
	.loc	6 490 0 is_stmt 1
	.cfi_startproc
	pushq	%rbp
	.cfi_def_cfa_offset 16
	.cfi_offset %rbp, -16
	movq	%rsp, %rbp
	.cfi_def_cfa_register %rbp
	subq	$16, %rsp
	movq	%rdi, -8(%rbp)
Ltmp1216:
	.loc	6 490 1 prologue_end
	callq	__ZN4core3ptr107drop_in_place$LT$std..sync..mutex..MutexGuard$LT$crossbeam_utils..sync..sharded_lock..ThreadIndices$GT$$GT$17h1a1aeb3c38b5ade3E
	addq	$16, %rsp
	popq	%rbp
	retq
Ltmp1217:
Lfunc_end161:
	.cfi_endproc

	.globl	__ZN4core3ptr151drop_in_place$LT$std..sync..poison..PoisonError$LT$$LP$std..sync..mutex..MutexGuard$LT$$LP$$RP$$GT$$C$std..sync..condvar..WaitTimeoutResult$RP$$GT$$GT$17h95896619d2146a93E
	.p2align	4, 0x90
__ZN4core3ptr151drop_in_place$LT$std..sync..poison..PoisonError$LT$$LP$std..sync..mutex..MutexGuard$LT$$LP$$RP$$GT$$C$std..sync..condvar..WaitTimeoutResult$RP$$GT$$GT$17h95896619d2146a93E:
Lfunc_begin162:
	.loc	6 490 0
	.cfi_startproc
	pushq	%rbp
	.cfi_def_cfa_offset 16
	.cfi_offset %rbp, -16
	movq	%rsp, %rbp
	.cfi_def_cfa_register %rbp
	subq	$16, %rsp
	movq	%rdi, -8(%rbp)
Ltmp1218:
	.loc	6 490 1 prologue_end
	callq	__ZN4core3ptr113drop_in_place$LT$$LP$std..sync..mutex..MutexGuard$LT$$LP$$RP$$GT$$C$std..sync..condvar..WaitTimeoutResult$RP$$GT$17hc67b466154960b27E
	addq	$16, %rsp
	popq	%rbp
	retq
Ltmp1219:
Lfunc_end162:
	.cfi_endproc

	.globl	__ZN4core3ptr152drop_in_place$LT$crossbeam_utils..sync..once_lock..OnceLock$LT$std..sync..mutex..Mutex$LT$crossbeam_utils..sync..sharded_lock..ThreadIndices$GT$$GT$$GT$17h56d4451bdcb7b445E
	.p2align	4, 0x90
__ZN4core3ptr152drop_in_place$LT$crossbeam_utils..sync..once_lock..OnceLock$LT$std..sync..mutex..Mutex$LT$crossbeam_utils..sync..sharded_lock..ThreadIndices$GT$$GT$$GT$17h56d4451bdcb7b445E:
Lfunc_begin163:
	.loc	6 490 0
	.cfi_startproc
	pushq	%rbp
	.cfi_def_cfa_offset 16
	.cfi_offset %rbp, -16
	movq	%rsp, %rbp
	.cfi_def_cfa_register %rbp
	subq	$16, %rsp
	movq	%rdi, -8(%rbp)
Ltmp1220:
	.loc	6 490 1 prologue_end
	callq	__ZN93_$LT$crossbeam_utils..sync..once_lock..OnceLock$LT$T$GT$$u20$as$u20$core..ops..drop..Drop$GT$4drop17h68934e551adbcc03E
	addq	$16, %rsp
	popq	%rbp
	retq
Ltmp1221:
Lfunc_end163:
	.cfi_endproc

	.globl	__ZN4core3ptr19swap_nonoverlapping17h4657ac84753eb0acE
	.p2align	4, 0x90
__ZN4core3ptr19swap_nonoverlapping17h4657ac84753eb0acE:
Lfunc_begin164:
	.loc	6 902 0
	.cfi_startproc
	pushq	%rbp
	.cfi_def_cfa_offset 16
	.cfi_offset %rbp, -16
	movq	%rsp, %rbp
	.cfi_def_cfa_register %rbp
	subq	$160, %rsp
	movq	%rdi, -160(%rbp)
	movq	%rsi, -152(%rbp)
	movq	%rdx, -144(%rbp)
	movq	%rdi, -128(%rbp)
	movq	%rsi, -120(%rbp)
	movq	%rdx, -112(%rbp)
Ltmp1222:
	.loc	6 938 8 prologue_end
	movb	$1, %al
	testb	$1, %al
	jne	LBB164_2
	movb	$0, -132(%rbp)
	jmp	LBB164_6
LBB164_2:
Ltmp1223:
	.loc	40 309 5
	movq	$1, -104(%rbp)
Ltmp1224:
	.loc	21 2144 13
	movq	$1, -96(%rbp)
	movl	$1, %eax
Ltmp1225:
	.loc	21 89 13
	movq	%rax, -88(%rbp)
	movq	-88(%rbp), %rax
Ltmp1226:
	.loc	21 2144 13
	cmpl	$1, %eax
	sete	%al
Ltmp1227:
	.loc	6 939 13
	xorb	$-1, %al
	.loc	6 939 12 is_stmt 0
	testb	$1, %al
	jne	LBB164_4
	movb	$0, -131(%rbp)
	jmp	LBB164_5
LBB164_4:
	movb	$1, -131(%rbp)
LBB164_5:
	.loc	6 938 8 is_stmt 1
	movb	-131(%rbp), %al
	andb	$1, %al
	movb	%al, -132(%rbp)
LBB164_6:
	testb	$1, -132(%rbp)
	jne	LBB164_8
LBB164_7:
	.loc	6 0 8 is_stmt 0
	movq	-144(%rbp), %rdx
	movq	-152(%rbp), %rsi
	movq	-160(%rbp), %rdi
	.loc	6 947 14 is_stmt 1
	callq	__ZN4core3ptr34swap_nonoverlapping_simple_untyped17h1b553bb4122fb882E
	.loc	6 948 2
	jmp	LBB164_20
LBB164_8:
	.loc	6 942 9
	xorl	%eax, %eax
	testb	$1, %al
	jne	LBB164_10
	jmp	LBB164_9
LBB164_9:
	movb	$0, -130(%rbp)
	jmp	LBB164_11
LBB164_10:
	movb	$0, -130(%rbp)
LBB164_11:
	testb	$1, -130(%rbp)
	jne	LBB164_13
	.loc	6 943 9
	movb	$1, %al
	testb	$1, %al
	jne	LBB164_16
	jmp	LBB164_15
LBB164_13:
	.loc	6 0 9 is_stmt 0
	movq	-152(%rbp), %rsi
	movq	-160(%rbp), %rdi
	movq	-144(%rbp), %rax
	.loc	6 942 9 is_stmt 1
	movq	%rdi, -80(%rbp)
Ltmp1228:
	.loc	8 60 9
	movq	%rdi, -72(%rbp)
Ltmp1229:
	.loc	6 942 9
	movq	%rsi, -64(%rbp)
Ltmp1230:
	.loc	8 60 9
	movq	%rsi, -56(%rbp)
Ltmp1231:
	.loc	6 942 9
	imulq	$0, %rax, %rdx
	movq	%rdx, -48(%rbp)
Ltmp1232:
	.loc	6 942 9 is_stmt 0
	callq	__ZN4core3ptr34swap_nonoverlapping_simple_untyped17hf521773fb9e0bc6bE
Ltmp1233:
LBB164_14:
	.loc	6 948 2 is_stmt 1
	jmp	LBB164_20
LBB164_15:
	.loc	6 943 9
	movb	$0, -129(%rbp)
	jmp	LBB164_17
LBB164_16:
	movb	$1, -129(%rbp)
LBB164_17:
	testb	$1, -129(%rbp)
	jne	LBB164_19
	.loc	6 938 5
	jmp	LBB164_7
LBB164_19:
	.loc	6 0 5 is_stmt 0
	movq	-152(%rbp), %rsi
	movq	-160(%rbp), %rdi
	movq	-144(%rbp), %rdx
	.loc	6 943 9 is_stmt 1
	movq	%rdi, -40(%rbp)
Ltmp1234:
	.loc	8 60 9
	movq	%rdi, -32(%rbp)
Ltmp1235:
	.loc	6 943 9
	movq	%rsi, -24(%rbp)
Ltmp1236:
	.loc	8 60 9
	movq	%rsi, -16(%rbp)
Ltmp1237:
	.loc	6 943 9
	shlq	$0, %rdx
	movq	%rdx, -8(%rbp)
Ltmp1238:
	.loc	6 943 9 is_stmt 0
	callq	__ZN4core3ptr34swap_nonoverlapping_simple_untyped17h1b553bb4122fb882E
Ltmp1239:
	.loc	26 1 1 is_stmt 1
	jmp	LBB164_14
LBB164_20:
	.loc	6 948 2
	addq	$160, %rsp
	popq	%rbp
	retq
Ltmp1240:
Lfunc_end164:
	.cfi_endproc

	.globl	__ZN4core3ptr19swap_nonoverlapping17h8be8bae5f67549e9E
	.p2align	4, 0x90
__ZN4core3ptr19swap_nonoverlapping17h8be8bae5f67549e9E:
Lfunc_begin165:
	.loc	6 902 0
	.cfi_startproc
	pushq	%rbp
	.cfi_def_cfa_offset 16
	.cfi_offset %rbp, -16
	movq	%rsp, %rbp
	.cfi_def_cfa_register %rbp
	subq	$160, %rsp
	movq	%rdi, -160(%rbp)
	movq	%rsi, -152(%rbp)
	movq	%rdx, -144(%rbp)
	movq	%rdi, -128(%rbp)
	movq	%rsi, -120(%rbp)
	movq	%rdx, -112(%rbp)
Ltmp1241:
	.loc	6 938 8 prologue_end
	movb	$1, %al
	testb	$1, %al
	jne	LBB165_2
	movb	$0, -132(%rbp)
	jmp	LBB165_6
LBB165_2:
Ltmp1242:
	.loc	40 309 5
	movq	$32, -104(%rbp)
Ltmp1243:
	.loc	21 2144 13
	movq	$32, -96(%rbp)
	movl	$1, %eax
Ltmp1244:
	.loc	21 89 13
	movq	%rax, -88(%rbp)
	movq	-88(%rbp), %rax
Ltmp1245:
	.loc	21 2144 13
	cmpl	$1, %eax
	sete	%al
Ltmp1246:
	.loc	6 939 13
	xorb	$-1, %al
	.loc	6 939 12 is_stmt 0
	testb	$1, %al
	jne	LBB165_4
	movb	$1, -131(%rbp)
	jmp	LBB165_5
LBB165_4:
	movb	$1, -131(%rbp)
LBB165_5:
	.loc	6 938 8 is_stmt 1
	movb	-131(%rbp), %al
	andb	$1, %al
	movb	%al, -132(%rbp)
LBB165_6:
	testb	$1, -132(%rbp)
	jne	LBB165_8
LBB165_7:
	.loc	6 0 8 is_stmt 0
	movq	-144(%rbp), %rdx
	movq	-152(%rbp), %rsi
	movq	-160(%rbp), %rdi
	.loc	6 947 14 is_stmt 1
	callq	__ZN4core3ptr34swap_nonoverlapping_simple_untyped17hbe25454dae0b5b3eE
	.loc	6 948 2
	jmp	LBB165_20
LBB165_8:
	.loc	6 942 9
	movb	$1, %al
	testb	$1, %al
	jne	LBB165_10
	jmp	LBB165_9
LBB165_9:
	movb	$0, -130(%rbp)
	jmp	LBB165_11
LBB165_10:
	movb	$1, -130(%rbp)
LBB165_11:
	testb	$1, -130(%rbp)
	jne	LBB165_13
	.loc	6 943 9
	movb	$1, %al
	testb	$1, %al
	jne	LBB165_16
	jmp	LBB165_15
LBB165_13:
	.loc	6 0 9 is_stmt 0
	movq	-152(%rbp), %rsi
	movq	-160(%rbp), %rdi
	movq	-144(%rbp), %rdx
	.loc	6 942 9 is_stmt 1
	movq	%rdi, -80(%rbp)
Ltmp1247:
	.loc	8 60 9
	movq	%rdi, -72(%rbp)
Ltmp1248:
	.loc	6 942 9
	movq	%rsi, -64(%rbp)
Ltmp1249:
	.loc	8 60 9
	movq	%rsi, -56(%rbp)
Ltmp1250:
	.loc	6 942 9
	shlq	$2, %rdx
	movq	%rdx, -48(%rbp)
Ltmp1251:
	.loc	6 942 9 is_stmt 0
	callq	__ZN4core3ptr34swap_nonoverlapping_simple_untyped17hf521773fb9e0bc6bE
Ltmp1252:
LBB165_14:
	.loc	6 948 2 is_stmt 1
	jmp	LBB165_20
LBB165_15:
	.loc	6 943 9
	movb	$0, -129(%rbp)
	jmp	LBB165_17
LBB165_16:
	movb	$1, -129(%rbp)
LBB165_17:
	testb	$1, -129(%rbp)
	jne	LBB165_19
	.loc	6 938 5
	jmp	LBB165_7
LBB165_19:
	.loc	6 0 5 is_stmt 0
	movq	-152(%rbp), %rsi
	movq	-160(%rbp), %rdi
	movq	-144(%rbp), %rdx
	.loc	6 943 9 is_stmt 1
	movq	%rdi, -40(%rbp)
Ltmp1253:
	.loc	8 60 9
	movq	%rdi, -32(%rbp)
Ltmp1254:
	.loc	6 943 9
	movq	%rsi, -24(%rbp)
Ltmp1255:
	.loc	8 60 9
	movq	%rsi, -16(%rbp)
Ltmp1256:
	.loc	6 943 9
	shlq	$5, %rdx
	movq	%rdx, -8(%rbp)
Ltmp1257:
	.loc	6 943 9 is_stmt 0
	callq	__ZN4core3ptr34swap_nonoverlapping_simple_untyped17h1b553bb4122fb882E
Ltmp1258:
	.loc	26 1 1 is_stmt 1
	jmp	LBB165_14
LBB165_20:
	.loc	6 948 2
	addq	$160, %rsp
	popq	%rbp
	retq
Ltmp1259:
Lfunc_end165:
	.cfi_endproc

	.globl	__ZN4core3ptr224drop_in_place$LT$hashbrown..scopeguard..ScopeGuard$LT$hashbrown..raw..RawTableInner$LT$alloc..alloc..Global$GT$$C$hashbrown..raw..RawTableInner$LT$alloc..alloc..Global$GT$..prepare_resize..$u7b$$u7b$closure$u7d$$u7d$$GT$$GT$17hbd4b1eb1bedaa210E
	.p2align	4, 0x90
__ZN4core3ptr224drop_in_place$LT$hashbrown..scopeguard..ScopeGuard$LT$hashbrown..raw..RawTableInner$LT$alloc..alloc..Global$GT$$C$hashbrown..raw..RawTableInner$LT$alloc..alloc..Global$GT$..prepare_resize..$u7b$$u7b$closure$u7d$$u7d$$GT$$GT$17hbd4b1eb1bedaa210E:
Lfunc_begin166:
	.loc	6 490 0
	.cfi_startproc
	pushq	%rbp
	.cfi_def_cfa_offset 16
	.cfi_offset %rbp, -16
	movq	%rsp, %rbp
	.cfi_def_cfa_register %rbp
	subq	$16, %rsp
	movq	%rdi, -8(%rbp)
Ltmp1260:
	.loc	6 490 1 prologue_end
	callq	__ZN88_$LT$hashbrown..scopeguard..ScopeGuard$LT$T$C$F$GT$$u20$as$u20$core..ops..drop..Drop$GT$4drop17h5bbb120f660d4290E
	addq	$16, %rsp
	popq	%rbp
	retq
Ltmp1261:
Lfunc_end166:
	.cfi_endproc

	.globl	__ZN4core3ptr237drop_in_place$LT$hashbrown..scopeguard..ScopeGuard$LT$$RF$mut$u20$hashbrown..raw..RawTableInner$LT$alloc..alloc..Global$GT$$C$hashbrown..raw..RawTableInner$LT$alloc..alloc..Global$GT$..rehash_in_place..$u7b$$u7b$closure$u7d$$u7d$$GT$$GT$17h3e8ce24006d6d244E
	.p2align	4, 0x90
__ZN4core3ptr237drop_in_place$LT$hashbrown..scopeguard..ScopeGuard$LT$$RF$mut$u20$hashbrown..raw..RawTableInner$LT$alloc..alloc..Global$GT$$C$hashbrown..raw..RawTableInner$LT$alloc..alloc..Global$GT$..rehash_in_place..$u7b$$u7b$closure$u7d$$u7d$$GT$$GT$17h3e8ce24006d6d244E:
Lfunc_begin167:
	.loc	6 490 0
	.cfi_startproc
	pushq	%rbp
	.cfi_def_cfa_offset 16
	.cfi_offset %rbp, -16
	movq	%rsp, %rbp
	.cfi_def_cfa_register %rbp
	subq	$16, %rsp
	movq	%rdi, -8(%rbp)
Ltmp1262:
	.loc	6 490 1 prologue_end
	callq	__ZN88_$LT$hashbrown..scopeguard..ScopeGuard$LT$T$C$F$GT$$u20$as$u20$core..ops..drop..Drop$GT$4drop17ha17010897cade456E
	addq	$16, %rsp
	popq	%rbp
	retq
Ltmp1263:
Lfunc_end167:
	.cfi_endproc

	.p2align	4, 0x90
__ZN4core3ptr24drop_in_place$LT$u32$GT$17h2dbdb3a1dd9ae899E:
Lfunc_begin168:
	.loc	6 490 0
	.cfi_startproc
	pushq	%rbp
	.cfi_def_cfa_offset 16
	.cfi_offset %rbp, -16
	movq	%rsp, %rbp
	.cfi_def_cfa_register %rbp
	pushq	%rax
	movq	%rdi, -8(%rbp)
Ltmp1264:
	.loc	6 490 1 prologue_end
	addq	$8, %rsp
	popq	%rbp
	retq
Ltmp1265:
Lfunc_end168:
	.cfi_endproc

	.p2align	4, 0x90
