	.section	__TEXT,__text,regular,pure_instructions
	.macosx_version_min 10, 7
	.file	1 "/Users/natalie/.cargo/registry/src/github.com-1ecc6299db9ec823/crossbeam-epoch-0.9.13" "src/guard.rs"
	.file	2 "/Users/natalie/.cargo/registry/src/github.com-1ecc6299db9ec823/crossbeam-epoch-0.9.13" "src/default.rs"
	.file	3 "/rustc/2c8cc343237b8f7d5a3c3703e3a87f2eb2c54a74/library/std/src/thread" "local.rs"
	.globl	__ZN106_$LT$core..ops..range..Range$LT$usize$GT$$u20$as$u20$core..slice..index..SliceIndex$LT$$u5b$T$u5d$$GT$$GT$13get_unchecked17h28d76098c577f3bbE
	.p2align	4, 0x90
__ZN106_$LT$core..ops..range..Range$LT$usize$GT$$u20$as$u20$core..slice..index..SliceIndex$LT$$u5b$T$u5d$$GT$$GT$13get_unchecked17h28d76098c577f3bbE:
Lfunc_begin0:
	.file	4 "/rustc/2c8cc343237b8f7d5a3c3703e3a87f2eb2c54a74/library/core/src/slice" "index.rs"
	.loc	4 373 0
	.cfi_startproc
	pushq	%rbp
	.cfi_def_cfa_offset 16
	.cfi_offset %rbp, -16
	movq	%rsp, %rbp
	.cfi_def_cfa_register %rbp
	subq	$160, %rsp
	movq	%rdi, -128(%rbp)
	movq	%rsi, -120(%rbp)
	movq	%rdx, -112(%rbp)
	movq	%rcx, -104(%rbp)
Ltmp0:
	.loc	4 386 39 prologue_end
	movq	%rdx, -96(%rbp)
	movq	%rcx, -88(%rbp)
Ltmp1:
	.file	5 "/rustc/2c8cc343237b8f7d5a3c3703e3a87f2eb2c54a74/library/core/src/ptr" "const_ptr.rs"
	.loc	5 1650 9
	movq	%rdx, -80(%rbp)
Ltmp2:
	.loc	4 386 58
	movq	%rdi, -72(%rbp)
Ltmp3:
	.loc	5 932 18
	movq	%rdx, -64(%rbp)
	.loc	5 932 30 is_stmt 0
	movq	%rdi, -56(%rbp)
Ltmp4:
	.loc	5 473 18 is_stmt 1
	movq	%rdi, %rax
	shlq	$5, %rax
	addq	%rax, %rdx
	movq	%rdx, -48(%rbp)
	movq	-48(%rbp), %rax
	movq	%rax, -40(%rbp)
Ltmp5:
	.loc	4 386 71
	subq	%rdi, %rsi
	movq	%rsi, -32(%rbp)
Ltmp6:
	.file	6 "/rustc/2c8cc343237b8f7d5a3c3703e3a87f2eb2c54a74/library/core/src/ptr" "mod.rs"
	.loc	6 734 20
	movq	%rax, -24(%rbp)
Ltmp7:
	.loc	5 61 9
	movq	%rax, -16(%rbp)
Ltmp8:
	.loc	6 734 33
	movq	%rsi, -8(%rbp)
Ltmp9:
	.file	7 "/rustc/2c8cc343237b8f7d5a3c3703e3a87f2eb2c54a74/library/core/src/ptr" "metadata.rs"
	.loc	7 118 36
	movq	%rax, -144(%rbp)
	movq	%rsi, -136(%rbp)
	.loc	7 118 14 is_stmt 0
	movq	-144(%rbp), %rcx
	movq	-136(%rbp), %rax
	movq	%rcx, -160(%rbp)
	movq	%rax, -152(%rbp)
	movq	-160(%rbp), %rax
	movq	-152(%rbp), %rdx
Ltmp10:
	.loc	4 388 6 is_stmt 1
	addq	$160, %rsp
	popq	%rbp
	retq
Ltmp11:
Lfunc_end0:
	.cfi_endproc

	.globl	__ZN106_$LT$core..ops..range..Range$LT$usize$GT$$u20$as$u20$core..slice..index..SliceIndex$LT$$u5b$T$u5d$$GT$$GT$17get_unchecked_mut17h6bb0b062c443d008E
	.p2align	4, 0x90
__ZN106_$LT$core..ops..range..Range$LT$usize$GT$$u20$as$u20$core..slice..index..SliceIndex$LT$$u5b$T$u5d$$GT$$GT$17get_unchecked_mut17h6bb0b062c443d008E:
Lfunc_begin1:
	.loc	4 391 0
	.cfi_startproc
	pushq	%rbp
	.cfi_def_cfa_offset 16
	.cfi_offset %rbp, -16
	movq	%rsp, %rbp
	.cfi_def_cfa_register %rbp
	subq	$160, %rsp
	movq	%rdi, -128(%rbp)
	movq	%rsi, -120(%rbp)
	movq	%rdx, -112(%rbp)
	movq	%rcx, -104(%rbp)
Ltmp12:
	.loc	4 400 43 prologue_end
	movq	%rdx, -96(%rbp)
	movq	%rcx, -88(%rbp)
Ltmp13:
	.file	8 "/rustc/2c8cc343237b8f7d5a3c3703e3a87f2eb2c54a74/library/core/src/ptr" "mut_ptr.rs"
	.loc	8 2037 9
	movq	%rdx, -80(%rbp)
Ltmp14:
	.loc	4 400 66
	movq	%rdi, -72(%rbp)
Ltmp15:
	.loc	8 1034 18
	movq	%rdx, -64(%rbp)
	.loc	8 1034 30 is_stmt 0
	movq	%rdi, -56(%rbp)
Ltmp16:
	.loc	8 487 18 is_stmt 1
	movq	%rdi, %rax
	shlq	$5, %rax
	addq	%rax, %rdx
	movq	%rdx, -48(%rbp)
	movq	-48(%rbp), %rax
	movq	%rax, -40(%rbp)
Ltmp17:
	.loc	4 400 79
	subq	%rdi, %rsi
	movq	%rsi, -32(%rbp)
Ltmp18:
	.loc	6 766 24
	movq	%rax, -24(%rbp)
Ltmp19:
	.loc	8 60 9
	movq	%rax, -16(%rbp)
Ltmp20:
	.loc	6 766 37
	movq	%rsi, -8(%rbp)
Ltmp21:
	.loc	7 135 36
	movq	%rax, -144(%rbp)
	movq	%rsi, -136(%rbp)
	.loc	7 135 14 is_stmt 0
	movq	-144(%rbp), %rcx
	movq	-136(%rbp), %rax
	movq	%rcx, -160(%rbp)
	movq	%rax, -152(%rbp)
	movq	-160(%rbp), %rax
	movq	-152(%rbp), %rdx
Ltmp22:
	.loc	4 402 6 is_stmt 1
	addq	$160, %rsp
	popq	%rbp
	retq
Ltmp23:
Lfunc_end1:
	.cfi_endproc

	.globl	__ZN106_$LT$core..ops..range..Range$LT$usize$GT$$u20$as$u20$core..slice..index..SliceIndex$LT$$u5b$T$u5d$$GT$$GT$5index17h840cc477ec3e78bcE
	.p2align	4, 0x90
__ZN106_$LT$core..ops..range..Range$LT$usize$GT$$u20$as$u20$core..slice..index..SliceIndex$LT$$u5b$T$u5d$$GT$$GT$5index17h840cc477ec3e78bcE:
Lfunc_begin2:
	.loc	4 405 0
	.cfi_startproc
	pushq	%rbp
	.cfi_def_cfa_offset 16
	.cfi_offset %rbp, -16
	movq	%rsp, %rbp
	.cfi_def_cfa_register %rbp
	subq	$80, %rsp
	movq	%rdi, -72(%rbp)
	movq	%rsi, -64(%rbp)
	movq	%rdx, -56(%rbp)
	movq	%rcx, -48(%rbp)
	movq	%r8, -40(%rbp)
	movq	%rdi, -32(%rbp)
	movq	%rsi, -24(%rbp)
	movq	%rdx, -16(%rbp)
	movq	%rcx, -8(%rbp)
Ltmp24:
	.loc	4 406 12 prologue_end
	cmpq	%rsi, %rdi
	ja	LBB2_2
	.loc	4 0 12 is_stmt 0
	movq	-64(%rbp), %rax
	movq	-48(%rbp), %rcx
	.loc	4 408 19 is_stmt 1
	cmpq	%rcx, %rax
	ja	LBB2_4
	jmp	LBB2_3
LBB2_2:
	.loc	4 0 19 is_stmt 0
	movq	-40(%rbp), %rdx
	movq	-64(%rbp), %rsi
	movq	-72(%rbp), %rdi
	.loc	4 407 13 is_stmt 1
	callq	__ZN4core5slice5index22slice_index_order_fail17h0d8f800a07d5f26eE
LBB2_3:
	.loc	4 0 13 is_stmt 0
	movq	-48(%rbp), %rcx
	movq	-56(%rbp), %rdx
	movq	-64(%rbp), %rsi
	movq	-72(%rbp), %rdi
	.loc	4 412 20 is_stmt 1
	callq	__ZN106_$LT$core..ops..range..Range$LT$usize$GT$$u20$as$u20$core..slice..index..SliceIndex$LT$$u5b$T$u5d$$GT$$GT$13get_unchecked17h28d76098c577f3bbE
	.loc	4 413 6
	addq	$80, %rsp
	popq	%rbp
	retq
LBB2_4:
	.loc	4 0 6 is_stmt 0
	movq	-40(%rbp), %rdx
	movq	-48(%rbp), %rsi
	movq	-64(%rbp), %rdi
	.loc	4 409 13 is_stmt 1
	callq	__ZN4core5slice5index24slice_end_index_len_fail17hc921cb2f1513645aE
Ltmp25:
Lfunc_end2:
	.cfi_endproc

	.globl	__ZN106_$LT$core..ops..range..Range$LT$usize$GT$$u20$as$u20$core..slice..index..SliceIndex$LT$$u5b$T$u5d$$GT$$GT$9index_mut17h0028f48724a8c9b5E
	.p2align	4, 0x90
__ZN106_$LT$core..ops..range..Range$LT$usize$GT$$u20$as$u20$core..slice..index..SliceIndex$LT$$u5b$T$u5d$$GT$$GT$9index_mut17h0028f48724a8c9b5E:
Lfunc_begin3:
	.loc	4 416 0
	.cfi_startproc
	pushq	%rbp
	.cfi_def_cfa_offset 16
	.cfi_offset %rbp, -16
	movq	%rsp, %rbp
	.cfi_def_cfa_register %rbp
	subq	$80, %rsp
	movq	%rdi, -72(%rbp)
	movq	%rsi, -64(%rbp)
	movq	%rdx, -56(%rbp)
	movq	%rcx, -48(%rbp)
	movq	%r8, -40(%rbp)
	movq	%rdi, -32(%rbp)
	movq	%rsi, -24(%rbp)
	movq	%rdx, -16(%rbp)
	movq	%rcx, -8(%rbp)
Ltmp26:
	.loc	4 417 12 prologue_end
	cmpq	%rsi, %rdi
	ja	LBB3_2
	.loc	4 0 12 is_stmt 0
	movq	-64(%rbp), %rax
	movq	-48(%rbp), %rcx
	.loc	4 419 19 is_stmt 1
	cmpq	%rcx, %rax
	ja	LBB3_4
	jmp	LBB3_3
LBB3_2:
	.loc	4 0 19 is_stmt 0
	movq	-40(%rbp), %rdx
	movq	-64(%rbp), %rsi
	movq	-72(%rbp), %rdi
	.loc	4 418 13 is_stmt 1
	callq	__ZN4core5slice5index22slice_index_order_fail17h0d8f800a07d5f26eE
LBB3_3:
	.loc	4 0 13 is_stmt 0
	movq	-48(%rbp), %rcx
	movq	-56(%rbp), %rdx
	movq	-64(%rbp), %rsi
	movq	-72(%rbp), %rdi
	.loc	4 423 24 is_stmt 1
	callq	__ZN106_$LT$core..ops..range..Range$LT$usize$GT$$u20$as$u20$core..slice..index..SliceIndex$LT$$u5b$T$u5d$$GT$$GT$17get_unchecked_mut17h6bb0b062c443d008E
	.loc	4 424 6
	addq	$80, %rsp
	popq	%rbp
	retq
LBB3_4:
	.loc	4 0 6 is_stmt 0
	movq	-40(%rbp), %rdx
	movq	-48(%rbp), %rsi
	movq	-64(%rbp), %rdi
	.loc	4 420 13 is_stmt 1
	callq	__ZN4core5slice5index24slice_end_index_len_fail17hc921cb2f1513645aE
Ltmp27:
Lfunc_end3:
	.cfi_endproc

	.globl	__ZN108_$LT$core..ops..range..RangeTo$LT$usize$GT$$u20$as$u20$core..slice..index..SliceIndex$LT$$u5b$T$u5d$$GT$$GT$5index17h75f8b64e72e7ad9aE
	.p2align	4, 0x90
__ZN108_$LT$core..ops..range..RangeTo$LT$usize$GT$$u20$as$u20$core..slice..index..SliceIndex$LT$$u5b$T$u5d$$GT$$GT$5index17h75f8b64e72e7ad9aE:
Lfunc_begin4:
	.loc	4 455 0
	.cfi_startproc
	pushq	%rbp
	.cfi_def_cfa_offset 16
	.cfi_offset %rbp, -16
	movq	%rsp, %rbp
	.cfi_def_cfa_register %rbp
	subq	$48, %rsp
	movq	%rcx, %r8
	movq	%rdx, %rcx
	movq	%rsi, %rdx
	movq	%rdi, -24(%rbp)
	movq	%rdx, -16(%rbp)
	movq	%rcx, -8(%rbp)
Ltmp28:
	.loc	4 456 9 prologue_end
	movq	$0, -40(%rbp)
	movq	%rdi, -32(%rbp)
	movq	-40(%rbp), %rdi
	movq	-32(%rbp), %rsi
	callq	__ZN106_$LT$core..ops..range..Range$LT$usize$GT$$u20$as$u20$core..slice..index..SliceIndex$LT$$u5b$T$u5d$$GT$$GT$5index17h840cc477ec3e78bcE
	.loc	4 457 6
	addq	$48, %rsp
	popq	%rbp
	retq
Ltmp29:
Lfunc_end4:
	.cfi_endproc

	.globl	__ZN108_$LT$core..ops..range..RangeTo$LT$usize$GT$$u20$as$u20$core..slice..index..SliceIndex$LT$$u5b$T$u5d$$GT$$GT$9index_mut17hc56c301c73e5ca61E
	.p2align	4, 0x90
__ZN108_$LT$core..ops..range..RangeTo$LT$usize$GT$$u20$as$u20$core..slice..index..SliceIndex$LT$$u5b$T$u5d$$GT$$GT$9index_mut17hc56c301c73e5ca61E:
Lfunc_begin5:
	.loc	4 460 0
	.cfi_startproc
	pushq	%rbp
	.cfi_def_cfa_offset 16
	.cfi_offset %rbp, -16
	movq	%rsp, %rbp
	.cfi_def_cfa_register %rbp
	subq	$48, %rsp
	movq	%rcx, %r8
	movq	%rdx, %rcx
	movq	%rsi, %rdx
	movq	%rdi, -24(%rbp)
	movq	%rdx, -16(%rbp)
	movq	%rcx, -8(%rbp)
Ltmp30:
	.loc	4 461 9 prologue_end
	movq	$0, -40(%rbp)
	movq	%rdi, -32(%rbp)
	movq	-40(%rbp), %rdi
	movq	-32(%rbp), %rsi
	callq	__ZN106_$LT$core..ops..range..Range$LT$usize$GT$$u20$as$u20$core..slice..index..SliceIndex$LT$$u5b$T$u5d$$GT$$GT$9index_mut17h0028f48724a8c9b5E
	.loc	4 462 6
	addq	$48, %rsp
	popq	%rbp
	retq
Ltmp31:
Lfunc_end5:
	.cfi_endproc

	.globl	__ZN115_$LT$core..panic..unwind_safe..AssertUnwindSafe$LT$F$GT$$u20$as$u20$core..ops..function..FnOnce$LT$$LP$$RP$$GT$$GT$9call_once17h4fd852ef45084d85E
	.p2align	4, 0x90
__ZN115_$LT$core..panic..unwind_safe..AssertUnwindSafe$LT$F$GT$$u20$as$u20$core..ops..function..FnOnce$LT$$LP$$RP$$GT$$GT$9call_once17h4fd852ef45084d85E:
Lfunc_begin6:
	.file	9 "/rustc/2c8cc343237b8f7d5a3c3703e3a87f2eb2c54a74/library/core/src/panic" "unwind_safe.rs"
	.loc	9 270 0
	.cfi_startproc
	pushq	%rbp
	.cfi_def_cfa_offset 16
	.cfi_offset %rbp, -16
	movq	%rsp, %rbp
	.cfi_def_cfa_register %rbp
	subq	$16, %rsp
	movq	%rdi, -8(%rbp)
Ltmp32:
	.loc	9 271 9 prologue_end
	callq	__ZN4core3ops8function6FnOnce9call_once17he1947a3c13050e0dE
	.loc	9 272 6
	addq	$16, %rsp
	popq	%rbp
	retq
Ltmp33:
Lfunc_end6:
	.cfi_endproc

	.globl	__ZN15crossbeam_utils12cache_padded20CachePadded$LT$T$GT$3new17h7f77c44f41699ab6E
	.p2align	4, 0x90
__ZN15crossbeam_utils12cache_padded20CachePadded$LT$T$GT$3new17h7f77c44f41699ab6E:
Lfunc_begin7:
	.file	10 "/Users/natalie/.cargo/registry/src/github.com-1ecc6299db9ec823/crossbeam-utils-0.8.14/src" "cache_padded.rs"
	.loc	10 145 0
	.cfi_startproc
	pushq	%rbp
	.cfi_def_cfa_offset 16
	.cfi_offset %rbp, -16
	movq	%rsp, %rbp
	.cfi_def_cfa_register %rbp
	subq	$24, %rsp
	movq	%rdi, %rax
	movq	%rsi, -16(%rbp)
	movq	-16(%rbp), %rcx
	movq	%rcx, -24(%rbp)
Ltmp34:
	.loc	10 146 35 prologue_end
	movq	-24(%rbp), %rcx
	movq	%rcx, -8(%rbp)
	.loc	10 146 9 is_stmt 0
	movq	-8(%rbp), %rcx
	movq	%rcx, (%rdi)
	.loc	10 147 6 is_stmt 1
	addq	$24, %rsp
	popq	%rbp
	retq
Ltmp35:
Lfunc_end7:
	.cfi_endproc

	.globl	__ZN15crossbeam_utils12cache_padded20CachePadded$LT$T$GT$3new17hf662af7663b87bfaE
	.p2align	4, 0x90
__ZN15crossbeam_utils12cache_padded20CachePadded$LT$T$GT$3new17hf662af7663b87bfaE:
Lfunc_begin8:
	.loc	10 145 0
	.cfi_startproc
	pushq	%rbp
	.cfi_def_cfa_offset 16
	.cfi_offset %rbp, -16
	movq	%rsp, %rbp
	.cfi_def_cfa_register %rbp
	subq	$24, %rsp
	movq	%rdi, %rax
	movq	%rsi, -16(%rbp)
	movq	-16(%rbp), %rcx
	movq	%rcx, -24(%rbp)
Ltmp36:
	.loc	10 146 35 prologue_end
	movq	-24(%rbp), %rcx
	movq	%rcx, -8(%rbp)
	.loc	10 146 9 is_stmt 0
	movq	-8(%rbp), %rcx
	movq	%rcx, (%rdi)
	.loc	10 147 6 is_stmt 1
	addq	$24, %rsp
	popq	%rbp
	retq
Ltmp37:
Lfunc_end8:
	.cfi_endproc

	.globl	__ZN3std4sync4once4Once9call_once17h0c36c5f5506cd8e7E
	.p2align	4, 0x90
__ZN3std4sync4once4Once9call_once17h0c36c5f5506cd8e7E:
Lfunc_begin9:
	.file	11 "/rustc/2c8cc343237b8f7d5a3c3703e3a87f2eb2c54a74/library/std/src/sync" "once.rs"
	.loc	11 133 0
	.cfi_startproc
	.cfi_personality 155, _rust_eh_personality
	.cfi_lsda 16, Lexception0
	pushq	%rbp
	.cfi_def_cfa_offset 16
	.cfi_offset %rbp, -16
	movq	%rsp, %rbp
	.cfi_def_cfa_register %rbp
	subq	$176, %rsp
	movq	%rdi, -160(%rbp)
	movq	%rsi, -152(%rbp)
	movq	%rdx, -144(%rbp)
	movq	%rcx, -136(%rbp)
	movq	%rdi, -88(%rbp)
	movq	%rsi, -80(%rbp)
	movq	%rdx, -72(%rbp)
Ltmp44:
	.loc	11 138 9 prologue_end
	movb	$1, -89(%rbp)
	.loc	11 138 12 is_stmt 0
	movq	%rdi, -64(%rbp)
Ltmp45:
	.file	12 "/rustc/2c8cc343237b8f7d5a3c3703e3a87f2eb2c54a74/library/std/src/sys_common/once" "queue.rs"
	.loc	12 121 9 is_stmt 1
	movq	%rdi, -56(%rbp)
Ltmp46:
	.file	13 "/rustc/2c8cc343237b8f7d5a3c3703e3a87f2eb2c54a74/library/core/src/sync" "atomic.rs"
	.loc	13 1191 30
	movq	%rdi, -48(%rbp)
Ltmp38:
	movl	$2, %esi
	.loc	13 1191 18 is_stmt 0
	callq	__ZN4core4sync6atomic11atomic_load17h4ea0a37642e16d77E
Ltmp39:
	movq	%rax, -128(%rbp)
	jmp	LBB9_3
Ltmp47:
LBB9_1:
	.loc	11 144 5 is_stmt 1
	testb	$1, -89(%rbp)
	jne	LBB9_13
	jmp	LBB9_12
LBB9_2:
Ltmp40:
	.loc	11 0 5 is_stmt 0
	movq	%rax, %rcx
	movl	%edx, %eax
	movq	%rcx, -40(%rbp)
	movl	%eax, -32(%rbp)
	jmp	LBB9_1
LBB9_3:
	movq	-128(%rbp), %rax
Ltmp48:
	.loc	13 1191 18 is_stmt 1
	movq	%rax, -24(%rbp)
Ltmp49:
	.loc	8 215 33
	movq	%rax, -16(%rbp)
	.loc	8 215 18 is_stmt 0
	movq	%rax, -8(%rbp)
	movq	-8(%rbp), %rax
	movq	%rax, -168(%rbp)
Ltmp50:
	.loc	8 0 18
	movq	-168(%rbp), %rax
	.loc	12 121 9 is_stmt 1
	cmpq	$3, %rax
Ltmp51:
	.loc	11 138 12
	je	LBB9_6
	.loc	11 0 12 is_stmt 0
	movq	-136(%rbp), %r8
	movq	-160(%rbp), %rdi
	movq	-144(%rbp), %rax
	movq	-152(%rbp), %rcx
	.loc	11 142 26 is_stmt 1
	movb	$0, -89(%rbp)
	.loc	11 142 21 is_stmt 0
	movq	%rcx, -120(%rbp)
	movq	%rax, -112(%rbp)
	leaq	-120(%rbp), %rax
Ltmp52:
	.loc	11 143 37 is_stmt 1
	movq	%rax, -104(%rbp)
Ltmp41:
	.loc	11 143 9 is_stmt 0
	leaq	l___unnamed_1(%rip), %rcx
	xorl	%esi, %esi
	leaq	-104(%rbp), %rdx
	callq	__ZN3std10sys_common4once5queue4Once4call17had6073506788e952E
Ltmp42:
	jmp	LBB9_10
Ltmp53:
LBB9_6:
	.loc	11 144 5 is_stmt 1
	jmp	LBB9_7
LBB9_7:
	.loc	11 144 6 is_stmt 0
	addq	$176, %rsp
	popq	%rbp
	retq
LBB9_8:
	.loc	11 144 5
	jmp	LBB9_1
LBB9_9:
Ltmp43:
	.loc	11 0 5
	movq	%rax, %rcx
	movl	%edx, %eax
	movq	%rcx, -40(%rbp)
	movl	%eax, -32(%rbp)
	jmp	LBB9_8
LBB9_10:
	.loc	11 144 5
	jmp	LBB9_11
LBB9_11:
	jmp	LBB9_7
LBB9_12:
	.loc	11 133 5 is_stmt 1
	movq	-40(%rbp), %rdi
	callq	__Unwind_Resume
LBB9_13:
	.loc	11 144 5
	jmp	LBB9_12
Ltmp54:
Lfunc_end9:
	.cfi_endproc
	.section	__TEXT,__gcc_except_tab
	.p2align	2
GCC_except_table9:
Lexception0:
	.byte	255
	.byte	255
	.byte	1
	.uleb128 Lcst_end0-Lcst_begin0
Lcst_begin0:
	.uleb128 Ltmp38-Lfunc_begin9
	.uleb128 Ltmp39-Ltmp38
	.uleb128 Ltmp40-Lfunc_begin9
	.byte	0
	.uleb128 Ltmp41-Lfunc_begin9
	.uleb128 Ltmp42-Ltmp41
	.uleb128 Ltmp43-Lfunc_begin9
	.byte	0
	.uleb128 Ltmp42-Lfunc_begin9
	.uleb128 Lfunc_end9-Ltmp42
	.byte	0
	.byte	0
Lcst_end0:
	.p2align	2

	.section	__TEXT,__text,regular,pure_instructions
	.globl	__ZN3std4sync4once4Once9call_once28_$u7b$$u7b$closure$u7d$$u7d$17h0e94f491393511eeE
	.p2align	4, 0x90
__ZN3std4sync4once4Once9call_once28_$u7b$$u7b$closure$u7d$$u7d$17h0e94f491393511eeE:
Lfunc_begin10:
	.loc	11 143 0
	.cfi_startproc
	pushq	%rbp
	.cfi_def_cfa_offset 16
	.cfi_offset %rbp, -16
	movq	%rsp, %rbp
	.cfi_def_cfa_register %rbp
	subq	$80, %rsp
	movq	%rdi, -40(%rbp)
	movq	%rsi, -32(%rbp)
Ltmp55:
	.loc	11 143 41 prologue_end
	movq	(%rdi), %rdi
	movq	%rdi, -24(%rbp)
Ltmp56:
	.file	14 "/rustc/2c8cc343237b8f7d5a3c3703e3a87f2eb2c54a74/library/core/src" "option.rs"
	.loc	14 1623 28
	movq	$0, -56(%rbp)
	.loc	14 1623 9 is_stmt 0
	movq	-56(%rbp), %rsi
	movq	-48(%rbp), %rdx
	callq	__ZN4core3mem7replace17h0ebd939b70db9c41E
	movq	%rdx, -64(%rbp)
	movq	%rax, -72(%rbp)
Ltmp57:
	.loc	14 821 15 is_stmt 1
	movq	-72(%rbp), %rdx
	movl	$1, %eax
	xorl	%ecx, %ecx
	cmpq	$0, %rdx
	cmoveq	%rcx, %rax
	.loc	14 821 9 is_stmt 0
	cmpq	$0, %rax
	jne	LBB10_2
	.loc	14 823 21 is_stmt 1
	leaq	l___unnamed_10(%rip), %rdi
	leaq	l___unnamed_11(%rip), %rdx
	movl	$43, %esi
	callq	__ZN4core9panicking5panic17hc1bc45270cf64b03E
LBB10_2:
	.loc	14 822 18
	movq	-72(%rbp), %rdi
	movq	-64(%rbp), %rsi
	movq	%rdi, -16(%rbp)
	movq	%rsi, -8(%rbp)
Ltmp58:
	.loc	11 143 41
	callq	__ZN15crossbeam_epoch4sync9once_lock17OnceLock$LT$T$GT$10initialize28_$u7b$$u7b$closure$u7d$$u7d$17h5029d36679e9d705E
	.loc	11 143 60 is_stmt 0
	addq	$80, %rsp
	popq	%rbp
	retq
Ltmp59:
Lfunc_end10:
	.cfi_endproc

	.globl	__ZN3std5panic12catch_unwind17h5705c26782f20a24E
	.p2align	4, 0x90
__ZN3std5panic12catch_unwind17h5705c26782f20a24E:
Lfunc_begin11:
	.file	15 "/rustc/2c8cc343237b8f7d5a3c3703e3a87f2eb2c54a74/library/std/src" "panic.rs"
	.loc	15 139 0 is_stmt 1
	.cfi_startproc
	pushq	%rbp
	.cfi_def_cfa_offset 16
	.cfi_offset %rbp, -16
	movq	%rsp, %rbp
	.cfi_def_cfa_register %rbp
	subq	$16, %rsp
	movq	%rdi, -8(%rbp)
Ltmp60:
	.loc	15 140 14 prologue_end
	callq	__ZN3std9panicking3try17h4c0bd78ad665b465E
	.loc	15 141 2
	addq	$16, %rsp
	popq	%rbp
	retq
Ltmp61:
Lfunc_end11:
	.cfi_endproc

	.globl	__ZN3std6thread5local4fast12Key$LT$T$GT$14try_initialize17h66acada3dac4fb14E
	.p2align	4, 0x90
__ZN3std6thread5local4fast12Key$LT$T$GT$14try_initialize17h66acada3dac4fb14E:
Lfunc_begin12:
	.loc	3 983 0
	.cfi_startproc
	.cfi_personality 155, _rust_eh_personality
	.cfi_lsda 16, Lexception1
	pushq	%rbp
	.cfi_def_cfa_offset 16
	.cfi_offset %rbp, -16
	movq	%rsp, %rbp
	.cfi_def_cfa_register %rbp
	subq	$96, %rsp
	movq	%rdi, -80(%rbp)
	movq	%rsi, -72(%rbp)
	movq	%rdi, -40(%rbp)
	movq	%rsi, -32(%rbp)
Ltmp67:
	.loc	3 985 16 prologue_end
	movb	$1, -41(%rbp)
Ltmp68:
	.file	16 "/rustc/2c8cc343237b8f7d5a3c3703e3a87f2eb2c54a74/library/core/src/mem" "mod.rs"
	.loc	16 594 5
	movb	$1, -17(%rbp)
	movb	-17(%rbp), %al
	movb	%al, -57(%rbp)
Ltmp69:
	.loc	16 0 5 is_stmt 0
	movb	-57(%rbp), %al
	.loc	3 985 16 is_stmt 1
	xorb	$-1, %al
	testb	$1, %al
	jne	LBB12_3
Ltmp62:
	.loc	3 0 16 is_stmt 0
	movq	-80(%rbp), %rdi
	.loc	3 985 52
	callq	__ZN3std6thread5local4fast12Key$LT$T$GT$17try_register_dtor17h0fd2c629345cc701E
Ltmp63:
	movb	%al, -81(%rbp)
	jmp	LBB12_7
LBB12_3:
	.loc	3 985 16
	movb	$1, -42(%rbp)
LBB12_4:
	testb	$1, -42(%rbp)
	jne	LBB12_9
	jmp	LBB12_8
LBB12_5:
	.loc	3 991 9 is_stmt 1
	testb	$1, -41(%rbp)
	jne	LBB12_12
	jmp	LBB12_11
LBB12_6:
Ltmp66:
	.loc	3 0 9 is_stmt 0
	movq	%rax, %rcx
	movl	%edx, %eax
	movq	%rcx, -16(%rbp)
	movl	%eax, -8(%rbp)
	jmp	LBB12_5
LBB12_7:
	movb	-81(%rbp), %al
	.loc	3 985 16 is_stmt 1
	andb	$1, %al
	movb	%al, -42(%rbp)
	jmp	LBB12_4
LBB12_8:
	.loc	3 989 17
	movq	$0, -56(%rbp)
	.loc	3 985 13
	jmp	LBB12_13
LBB12_9:
	.loc	3 0 13 is_stmt 0
	movq	-72(%rbp), %rsi
	movq	-80(%rbp), %rdi
	.loc	3 987 53 is_stmt 1
	movb	$0, -41(%rbp)
Ltmp64:
	.loc	3 987 31 is_stmt 0
	callq	__ZN3std6thread5local4lazy21LazyKeyInner$LT$T$GT$10initialize17h1911ad0f28222ff6E
Ltmp65:
	movq	%rax, -96(%rbp)
	jmp	LBB12_10
LBB12_10:
	.loc	3 0 31
	movq	-96(%rbp), %rax
	.loc	3 987 17
	movq	%rax, -56(%rbp)
	.loc	3 985 13 is_stmt 1
	jmp	LBB12_13
LBB12_11:
	.loc	3 983 9
	movq	-16(%rbp), %rdi
	callq	__Unwind_Resume
LBB12_12:
	.loc	3 991 9
	jmp	LBB12_11
LBB12_13:
	testb	$1, -41(%rbp)
	jne	LBB12_15
LBB12_14:
	.loc	3 991 10 is_stmt 0
	movq	-56(%rbp), %rax
	addq	$96, %rsp
	popq	%rbp
	retq
LBB12_15:
	.loc	3 991 9
	jmp	LBB12_14
Ltmp70:
Lfunc_end12:
	.cfi_endproc
	.section	__TEXT,__gcc_except_tab
	.p2align	2
GCC_except_table12:
Lexception1:
	.byte	255
	.byte	255
	.byte	1
	.uleb128 Lcst_end1-Lcst_begin1
Lcst_begin1:
	.uleb128 Ltmp62-Lfunc_begin12
	.uleb128 Ltmp65-Ltmp62
	.uleb128 Ltmp66-Lfunc_begin12
	.byte	0
	.uleb128 Ltmp65-Lfunc_begin12
	.uleb128 Lfunc_end12-Ltmp65
	.byte	0
	.byte	0
Lcst_end1:
	.p2align	2

	.section	__TEXT,__text,regular,pure_instructions
	.globl	__ZN3std6thread5local4fast12Key$LT$T$GT$17try_register_dtor17h0fd2c629345cc701E
	.p2align	4, 0x90
__ZN3std6thread5local4fast12Key$LT$T$GT$17try_register_dtor17h0fd2c629345cc701E:
Lfunc_begin13:
	.loc	3 996 0 is_stmt 1
	.cfi_startproc
	pushq	%rbp
	.cfi_def_cfa_offset 16
	.cfi_offset %rbp, -16
	movq	%rsp, %rbp
	.cfi_def_cfa_register %rbp
	subq	$64, %rsp
	movq	%rdi, -64(%rbp)
	movq	%rdi, -40(%rbp)
Ltmp71:
	.loc	3 997 19 prologue_end
	movq	%rdi, %rax
	addq	$16, %rax
	movq	%rax, -32(%rbp)
Ltmp72:
	.file	17 "/rustc/2c8cc343237b8f7d5a3c3703e3a87f2eb2c54a74/library/core/src" "cell.rs"
	.loc	17 452 19
	movq	%rax, -24(%rbp)
	.loc	17 452 18 is_stmt 0
	movb	16(%rdi), %al
	movb	%al, -41(%rbp)
Ltmp73:
	.loc	3 997 19 is_stmt 1
	movzbl	-41(%rbp), %eax
	movq	%rax, -56(%rbp)
	testq	%rax, %rax
	.loc	3 997 13 is_stmt 0
	je	LBB13_2
	jmp	LBB13_6
LBB13_6:
	.loc	3 0 13
	movq	-56(%rbp), %rax
	.loc	3 997 13
	subq	$1, %rax
	je	LBB13_3
	jmp	LBB13_7
LBB13_7:
	jmp	LBB13_4
	.loc	3 997 19
	ud2
LBB13_2:
	.loc	3 0 19
	movq	-64(%rbp), %rdi
	.loc	3 1004 30 is_stmt 1
	leaq	__ZN3std6thread5local4fast13destroy_value17h97f5d0f1d80a91f7E(%rip), %rsi
	callq	__ZN3std3sys4unix17thread_local_dtor13register_dtor17hd1117fc09d525c5dE
	movq	-64(%rbp), %rdi
	.loc	3 1005 21
	addq	$16, %rdi
	movq	%rdi, -16(%rbp)
Ltmp74:
	.loc	17 363 19
	movl	$1, %esi
	callq	__ZN4core4cell13Cell$LT$T$GT$7replace17hd5fca225e5dab8dcE
	movb	%al, -1(%rbp)
Ltmp75:
	.loc	3 1006 21
	movb	$1, -42(%rbp)
	jmp	LBB13_5
LBB13_3:
	.loc	3 1010 21
	movb	$1, -42(%rbp)
	jmp	LBB13_5
LBB13_4:
	.loc	3 1012 47
	movb	$0, -42(%rbp)
LBB13_5:
	.loc	3 1014 10
	movb	-42(%rbp), %al
	andb	$1, %al
	movzbl	%al, %eax
	addq	$64, %rsp
	popq	%rbp
	retq
Ltmp76:
Lfunc_end13:
	.cfi_endproc

	.globl	__ZN3std6thread5local4fast12Key$LT$T$GT$3get17h545d193fe3ebc506E
	.p2align	4, 0x90
__ZN3std6thread5local4fast12Key$LT$T$GT$3get17h545d193fe3ebc506E:
Lfunc_begin14:
	.loc	3 959 0
	.cfi_startproc
	.cfi_personality 155, _rust_eh_personality
	.cfi_lsda 16, Lexception2
	pushq	%rbp
	.cfi_def_cfa_offset 16
	.cfi_offset %rbp, -16
	movq	%rsp, %rbp
	.cfi_def_cfa_register %rbp
	subq	$96, %rsp
	movq	%rdi, -88(%rbp)
	movq	%rsi, -80(%rbp)
	movq	%rdi, -40(%rbp)
	movq	%rsi, -32(%rbp)
Ltmp82:
	.loc	3 968 23 prologue_end
	movb	$1, -41(%rbp)
Ltmp77:
	callq	__ZN3std6thread5local4lazy21LazyKeyInner$LT$T$GT$3get17hd99d53720d491440E
Ltmp78:
	movq	%rax, -72(%rbp)
	jmp	LBB14_3
LBB14_1:
	.loc	3 973 9
	testb	$1, -41(%rbp)
	jne	LBB14_9
	jmp	LBB14_8
LBB14_2:
Ltmp81:
	.loc	3 0 9 is_stmt 0
	movq	%rax, %rcx
	movl	%edx, %eax
	movq	%rcx, -24(%rbp)
	movl	%eax, -16(%rbp)
	jmp	LBB14_1
LBB14_3:
	movq	-72(%rbp), %rax
	.loc	3 968 23 is_stmt 1
	movq	%rax, -56(%rbp)
	movq	-56(%rbp), %rdx
	movl	$1, %eax
	xorl	%ecx, %ecx
	cmpq	$0, %rdx
	cmoveq	%rcx, %rax
	.loc	3 968 17 is_stmt 0
	cmpq	$0, %rax
	jne	LBB14_5
	.loc	3 0 17
	movq	-80(%rbp), %rsi
	movq	-88(%rbp), %rdi
	.loc	3 970 49 is_stmt 1
	movb	$0, -41(%rbp)
Ltmp79:
	.loc	3 970 29 is_stmt 0
	callq	__ZN3std6thread5local4fast12Key$LT$T$GT$14try_initialize17h66acada3dac4fb14E
Ltmp80:
	movq	%rax, -96(%rbp)
	jmp	LBB14_7
LBB14_5:
	.loc	3 969 26 is_stmt 1
	movq	-56(%rbp), %rax
	movq	%rax, -8(%rbp)
Ltmp83:
	.loc	3 969 34 is_stmt 0
	movq	%rax, -64(%rbp)
Ltmp84:
LBB14_6:
	.loc	3 973 9 is_stmt 1
	testb	$1, -41(%rbp)
	jne	LBB14_11
	jmp	LBB14_10
LBB14_7:
	.loc	3 0 9 is_stmt 0
	movq	-96(%rbp), %rax
	.loc	3 970 29 is_stmt 1
	movq	%rax, -64(%rbp)
	.loc	3 970 53 is_stmt 0
	jmp	LBB14_6
LBB14_8:
	.loc	3 959 9 is_stmt 1
	movq	-24(%rbp), %rdi
	callq	__Unwind_Resume
LBB14_9:
	.loc	3 973 9
	jmp	LBB14_8
LBB14_10:
	.loc	3 973 10 is_stmt 0
	movq	-64(%rbp), %rax
	addq	$96, %rsp
	popq	%rbp
	retq
LBB14_11:
	.loc	3 973 9
	jmp	LBB14_10
Ltmp85:
Lfunc_end14:
	.cfi_endproc
	.section	__TEXT,__gcc_except_tab
	.p2align	2
GCC_except_table14:
Lexception2:
	.byte	255
	.byte	255
	.byte	1
	.uleb128 Lcst_end2-Lcst_begin2
Lcst_begin2:
	.uleb128 Ltmp77-Lfunc_begin14
	.uleb128 Ltmp80-Ltmp77
	.uleb128 Ltmp81-Lfunc_begin14
	.byte	0
	.uleb128 Ltmp80-Lfunc_begin14
	.uleb128 Lfunc_end14-Ltmp80
	.byte	0
	.byte	0
Lcst_end2:
	.p2align	2

	.section	__TEXT,__text,regular,pure_instructions
	.globl	__ZN3std6thread5local4fast13destroy_value17h97f5d0f1d80a91f7E
	.p2align	4, 0x90
__ZN3std6thread5local4fast13destroy_value17h97f5d0f1d80a91f7E:
Lfunc_begin15:
	.loc	3 1017 0 is_stmt 1
	.cfi_startproc
	.cfi_personality 155, _rust_eh_personality
	.cfi_lsda 16, Lexception3
	pushq	%rbp
	.cfi_def_cfa_offset 16
	.cfi_offset %rbp, -16
	movq	%rsp, %rbp
	.cfi_def_cfa_register %rbp
	subq	$304, %rsp
	movq	%rdi, -64(%rbp)
Ltmp103:
	.loc	3 1018 19 prologue_end
	movq	%rdi, -256(%rbp)
	leaq	-256(%rbp), %rax
Ltmp104:
	.loc	3 1033 69
	movq	%rax, -224(%rbp)
	.loc	3 1033 45 is_stmt 0
	movq	-224(%rbp), %rax
	movq	%rax, -232(%rbp)
	.loc	3 1033 25
	movq	-232(%rbp), %rdi
Ltmp86:
	callq	__ZN3std5panic12catch_unwind17h5705c26782f20a24E
Ltmp87:
	movq	%rdx, -272(%rbp)
	movq	%rax, -264(%rbp)
	jmp	LBB15_3
Ltmp105:
LBB15_1:
	.loc	3 1017 5 is_stmt 1
	callq	__ZN4core9panicking19panic_cannot_unwind17h1fbca7e1d7f56ae1E
LBB15_2:
Ltmp102:
	.loc	3 0 5 is_stmt 0
	movq	%rax, %rcx
	movl	%edx, %eax
	movq	%rcx, -56(%rbp)
	movl	%eax, -48(%rbp)
	jmp	LBB15_1
LBB15_3:
	movq	-272(%rbp), %rax
	movq	-264(%rbp), %rcx
Ltmp106:
	.loc	3 1033 25 is_stmt 1
	movq	%rcx, -248(%rbp)
	movq	%rax, -240(%rbp)
	.loc	3 1033 16 is_stmt 0
	movq	-248(%rbp), %rdx
	movl	$1, %eax
	xorl	%ecx, %ecx
	cmpq	$0, %rdx
	cmoveq	%rcx, %rax
	cmpq	$1, %rax
	jne	LBB15_5
Ltmp90:
Ltmp107:
	.loc	3 1038 13 is_stmt 1
	callq	__ZN3std3sys4unix5stdio12panic_output17hbdb9d595bb134988E
Ltmp91:
	movb	%al, -273(%rbp)
	jmp	LBB15_7
Ltmp108:
LBB15_5:
Ltmp88:
	.loc	3 0 13 is_stmt 0
	leaq	-248(%rbp), %rdi
	.loc	3 1040 5 is_stmt 1
	callq	__ZN4core3ptr130drop_in_place$LT$core..result..Result$LT$$LP$$RP$$C$alloc..boxed..Box$LT$dyn$u20$core..any..Any$u2b$core..marker..Send$GT$$GT$$GT$17hb84537f3b296a86dE
Ltmp89:
	jmp	LBB15_6
LBB15_6:
	.loc	3 1040 6 is_stmt 0
	addq	$304, %rsp
	popq	%rbp
	retq
LBB15_7:
	.loc	3 0 6
	movb	-273(%rbp), %al
Ltmp109:
	.loc	3 1038 13 is_stmt 1
	andb	$1, %al
	movb	%al, -209(%rbp)
	movb	-209(%rbp), %al
	andb	$1, %al
	movzbl	%al, %eax
	cmpq	$1, %rax
	jne	LBB15_9
Ltmp92:
	leaq	l___unnamed_12(%rip), %rsi
	leaq	l___unnamed_13(%rip), %rcx
	xorl	%eax, %eax
	movl	%eax, %r8d
	leaq	-112(%rbp), %rdi
	movl	$1, %edx
	callq	__ZN4core3fmt9Arguments6new_v117h2e6830ba6496e7b7E
Ltmp93:
	jmp	LBB15_10
Ltmp110:
LBB15_9:
Ltmp100:
	.loc	3 1038 13 is_stmt 0
	callq	__ZN3std3sys4unix14abort_internal17h2d537589b8bbc756E
Ltmp101:
	jmp	LBB15_16
LBB15_10:
Ltmp111:
	.loc	3 1038 13
	leaq	-112(%rbp), %rax
	movq	%rax, -40(%rbp)
Ltmp112:
	.file	18 "/rustc/2c8cc343237b8f7d5a3c3703e3a87f2eb2c54a74/library/core/src/fmt" "mod.rs"
	.loc	18 328 23 is_stmt 1
	leaq	-112(%rbp), %rax
	movq	%rax, -32(%rbp)
	.loc	18 328 26 is_stmt 0
	movq	__ZN59_$LT$core..fmt..Arguments$u20$as$u20$core..fmt..Display$GT$3fmt17h99a13c0e04235e08E@GOTPCREL(%rip), %rax
	movq	%rax, -24(%rbp)
Ltmp113:
	.loc	18 347 42 is_stmt 1
	movq	__ZN59_$LT$core..fmt..Arguments$u20$as$u20$core..fmt..Display$GT$3fmt17h99a13c0e04235e08E@GOTPCREL(%rip), %rax
	movq	%rax, -16(%rbp)
	movq	-16(%rbp), %rax
	movq	%rax, -288(%rbp)
	.loc	18 347 68 is_stmt 0
	leaq	-112(%rbp), %rax
	movq	%rax, -8(%rbp)
	movq	-8(%rbp), %rax
	movq	%rax, -296(%rbp)
	.loc	18 0 68
	movq	-288(%rbp), %rax
	movq	-296(%rbp), %rcx
	.loc	18 347 18
	movq	%rcx, -128(%rbp)
	movq	%rax, -120(%rbp)
Ltmp114:
	.loc	3 1038 13 is_stmt 1
	movq	-128(%rbp), %rcx
	movq	-120(%rbp), %rax
	movq	%rcx, -144(%rbp)
	movq	%rax, -136(%rbp)
Ltmp94:
	leaq	l___unnamed_14(%rip), %rsi
	leaq	-192(%rbp), %rdi
	movl	$2, %edx
	leaq	-144(%rbp), %rcx
	movl	$1, %r8d
	callq	__ZN4core3fmt9Arguments6new_v117h2e6830ba6496e7b7E
Ltmp95:
	jmp	LBB15_13
LBB15_13:
Ltmp96:
	.loc	3 0 13 is_stmt 0
	leaq	-208(%rbp), %rdi
	leaq	-192(%rbp), %rsi
	.loc	3 1038 13
	callq	__ZN3std2io5Write9write_fmt17h32f55008490ae4b8E
Ltmp97:
	movq	%rax, -304(%rbp)
	jmp	LBB15_14
LBB15_14:
	.loc	3 0 13
	movq	-304(%rbp), %rax
	.loc	3 1038 13
	movq	%rax, -200(%rbp)
Ltmp98:
	leaq	-200(%rbp), %rdi
	callq	__ZN4core3ptr81drop_in_place$LT$core..result..Result$LT$$LP$$RP$$C$std..io..error..Error$GT$$GT$17hc4d2f216abb9d096E
Ltmp99:
	jmp	LBB15_15
Ltmp115:
LBB15_15:
	.loc	3 1038 13
	jmp	LBB15_9
Ltmp116:
LBB15_16:
	.loc	3 0 13
	ud2
Lfunc_end15:
	.cfi_endproc
	.file	19 "/rustc/2c8cc343237b8f7d5a3c3703e3a87f2eb2c54a74/library/std/src" "rt.rs"
	.section	__TEXT,__gcc_except_tab
	.p2align	2
GCC_except_table15:
Lexception3:
	.byte	255
	.byte	255
	.byte	1
	.uleb128 Lcst_end3-Lcst_begin3
Lcst_begin3:
	.uleb128 Ltmp86-Lfunc_begin15
	.uleb128 Ltmp99-Ltmp86
	.uleb128 Ltmp102-Lfunc_begin15
	.byte	0
Lcst_end3:
	.p2align	2

	.section	__TEXT,__text,regular,pure_instructions
	.globl	__ZN3std6thread5local4fast13destroy_value28_$u7b$$u7b$closure$u7d$$u7d$17h4315a111489f2c88E
	.p2align	4, 0x90
__ZN3std6thread5local4fast13destroy_value28_$u7b$$u7b$closure$u7d$$u7d$17h4315a111489f2c88E:
Lfunc_begin16:
	.loc	3 1033 0 is_stmt 1
	.cfi_startproc
	.cfi_personality 155, _rust_eh_personality
	.cfi_lsda 16, Lexception4
	pushq	%rbp
	.cfi_def_cfa_offset 16
	.cfi_offset %rbp, -16
	movq	%rsp, %rbp
	.cfi_def_cfa_register %rbp
	subq	$96, %rsp
	movq	%rdi, -96(%rbp)
	movq	%rdi, -40(%rbp)
Ltmp125:
	.loc	3 1034 25 prologue_end
	movq	(%rdi), %rax
	movq	(%rax), %rdi
	movb	$1, -41(%rbp)
	callq	__ZN3std6thread5local4lazy21LazyKeyInner$LT$T$GT$4take17h633910ab8e2e842dE
	movq	-96(%rbp), %rdi
	movq	%rdx, -72(%rbp)
	movq	%rax, -80(%rbp)
Ltmp126:
	.loc	3 1035 13
	movq	(%rdi), %rax
	movq	(%rax), %rdi
	addq	$16, %rdi
	movq	%rdi, -32(%rbp)
Ltmp117:
	movl	$2, %esi
Ltmp127:
	.loc	17 363 19
	callq	__ZN4core4cell13Cell$LT$T$GT$7replace17hd5fca225e5dab8dcE
Ltmp118:
	movb	%al, -81(%rbp)
	jmp	LBB16_3
Ltmp128:
LBB16_1:
	.loc	3 1037 9
	testb	$1, -41(%rbp)
	jne	LBB16_6
	jmp	LBB16_5
LBB16_2:
Ltmp121:
	.loc	3 0 9 is_stmt 0
	movq	%rax, %rcx
	movl	%edx, %eax
	movq	%rcx, -24(%rbp)
	movl	%eax, -16(%rbp)
	jmp	LBB16_1
LBB16_3:
	movb	-81(%rbp), %al
Ltmp129:
	.loc	17 363 19 is_stmt 1
	movb	%al, -1(%rbp)
Ltmp130:
	.loc	3 1036 18
	movb	$0, -41(%rbp)
	movq	-80(%rbp), %rcx
	movq	-72(%rbp), %rax
	movq	%rcx, -64(%rbp)
	movq	%rax, -56(%rbp)
Ltmp119:
	leaq	-64(%rbp), %rdi
Ltmp131:
	.loc	16 980 24
	callq	__ZN4core3ptr88drop_in_place$LT$core..option..Option$LT$crossbeam_epoch..collector..LocalHandle$GT$$GT$17hf2228cbb33cd7739E
Ltmp120:
	jmp	LBB16_4
Ltmp132:
LBB16_4:
	.loc	3 1037 10
	addq	$96, %rsp
	popq	%rbp
	retq
LBB16_5:
	.loc	3 1033 69
	movq	-24(%rbp), %rdi
	callq	__Unwind_Resume
LBB16_6:
Ltmp122:
	.loc	3 0 69 is_stmt 0
	leaq	-80(%rbp), %rdi
	.loc	3 1037 9 is_stmt 1
	callq	__ZN4core3ptr88drop_in_place$LT$core..option..Option$LT$crossbeam_epoch..collector..LocalHandle$GT$$GT$17hf2228cbb33cd7739E
Ltmp123:
	jmp	LBB16_5
LBB16_7:
Ltmp124:
	.loc	3 1033 69
	callq	__ZN4core9panicking19panic_cannot_unwind17h1fbca7e1d7f56ae1E
Ltmp133:
Lfunc_end16:
	.cfi_endproc
	.section	__TEXT,__gcc_except_tab
	.p2align	2
GCC_except_table16:
Lexception4:
	.byte	255
	.byte	255
	.byte	1
	.uleb128 Lcst_end4-Lcst_begin4
Lcst_begin4:
	.uleb128 Lfunc_begin16-Lfunc_begin16
	.uleb128 Ltmp117-Lfunc_begin16
	.byte	0
	.byte	0
	.uleb128 Ltmp117-Lfunc_begin16
	.uleb128 Ltmp120-Ltmp117
	.uleb128 Ltmp121-Lfunc_begin16
	.byte	0
	.uleb128 Ltmp120-Lfunc_begin16
	.uleb128 Ltmp122-Ltmp120
	.byte	0
	.byte	0
	.uleb128 Ltmp122-Lfunc_begin16
	.uleb128 Ltmp123-Ltmp122
	.uleb128 Ltmp124-Lfunc_begin16
	.byte	0
Lcst_end4:
	.p2align	2

	.section	__TEXT,__text,regular,pure_instructions
	.globl	__ZN3std6thread5local4lazy21LazyKeyInner$LT$T$GT$10initialize17h1911ad0f28222ff6E
	.p2align	4, 0x90
__ZN3std6thread5local4lazy21LazyKeyInner$LT$T$GT$10initialize17h1911ad0f28222ff6E:
Lfunc_begin17:
	.loc	3 807 0
	.cfi_startproc
	.cfi_personality 155, _rust_eh_personality
	.cfi_lsda 16, Lexception5
	pushq	%rbp
	.cfi_def_cfa_offset 16
	.cfi_offset %rbp, -16
	movq	%rsp, %rbp
	.cfi_def_cfa_register %rbp
	subq	$128, %rsp
	movq	%rsi, -128(%rbp)
	movq	%rdi, %rax
	movq	-128(%rbp), %rdi
	movq	%rax, -120(%rbp)
	movq	%rax, -56(%rbp)
	movq	%rdi, -48(%rbp)
Ltmp144:
	.loc	3 810 25 prologue_end
	callq	__ZN15crossbeam_epoch7default6HANDLE7__getit28_$u7b$$u7b$closure$u7d$$u7d$17hae1061c6d025cca3E
	movq	-120(%rbp), %rdi
	movq	%rax, -96(%rbp)
Ltmp145:
	.loc	3 811 23
	movq	%rdi, -40(%rbp)
Ltmp146:
	.loc	17 1999 9
	movq	%rdi, -32(%rbp)
Ltmp147:
	.loc	3 831 54
	movq	-96(%rbp), %rax
	.loc	3 831 49 is_stmt 0
	movq	%rax, -64(%rbp)
	movq	$1, -72(%rbp)
	.loc	3 831 25
	movq	-72(%rbp), %rsi
	movq	-64(%rbp), %rdx
Ltmp134:
	callq	__ZN4core3mem7replace17h8459bb761c4c0440E
Ltmp135:
	movq	%rdx, -112(%rbp)
	movq	%rax, -104(%rbp)
	jmp	LBB17_3
Ltmp148:
LBB17_1:
	.loc	3 848 9 is_stmt 1
	xorl	%eax, %eax
	testb	$1, %al
	jne	LBB17_9
	jmp	LBB17_8
LBB17_2:
Ltmp140:
	.loc	3 0 9 is_stmt 0
	movq	%rax, %rcx
	movl	%edx, %eax
	movq	%rcx, -24(%rbp)
	movl	%eax, -16(%rbp)
	jmp	LBB17_1
LBB17_3:
	movq	-112(%rbp), %rax
	movq	-104(%rbp), %rcx
Ltmp149:
	.loc	3 831 25 is_stmt 1
	movq	%rcx, -88(%rbp)
	movq	%rax, -80(%rbp)
Ltmp136:
	leaq	-88(%rbp), %rdi
	.loc	3 831 61 is_stmt 0
	callq	__ZN4core3ptr88drop_in_place$LT$core..option..Option$LT$crossbeam_epoch..collector..LocalHandle$GT$$GT$17hf2228cbb33cd7739E
Ltmp137:
	jmp	LBB17_4
LBB17_4:
	.loc	3 0 61
	movq	-120(%rbp), %rax
	.loc	3 843 17 is_stmt 1
	cmpq	$0, (%rax)
	jne	LBB17_6
Ltmp138:
	.loc	3 845 29
	callq	__ZN4core4hint21unreachable_unchecked17hcbb406807b71908fE
Ltmp139:
	jmp	LBB17_7
LBB17_6:
	.loc	3 0 29 is_stmt 0
	movq	-120(%rbp), %rax
	.loc	3 844 26 is_stmt 1
	addq	$8, %rax
	movq	%rax, -8(%rbp)
Ltmp150:
	.loc	3 848 10
	addq	$128, %rsp
	popq	%rbp
	retq
LBB17_7:
	.loc	3 0 10 is_stmt 0
	ud2
LBB17_8:
	.loc	3 807 9 is_stmt 1
	movq	-24(%rbp), %rdi
	callq	__Unwind_Resume
LBB17_9:
Ltmp141:
	.loc	3 0 9 is_stmt 0
	leaq	-96(%rbp), %rdi
	.loc	3 848 9 is_stmt 1
	callq	__ZN4core3ptr60drop_in_place$LT$crossbeam_epoch..collector..LocalHandle$GT$17h5b0508ed52ac8d50E
Ltmp142:
	jmp	LBB17_8
LBB17_10:
Ltmp143:
	.loc	3 807 9
	callq	__ZN4core9panicking19panic_cannot_unwind17h1fbca7e1d7f56ae1E
Ltmp151:
Lfunc_end17:
	.cfi_endproc
	.section	__TEXT,__gcc_except_tab
	.p2align	2
GCC_except_table17:
Lexception5:
	.byte	255
	.byte	255
	.byte	1
	.uleb128 Lcst_end5-Lcst_begin5
Lcst_begin5:
	.uleb128 Lfunc_begin17-Lfunc_begin17
	.uleb128 Ltmp134-Lfunc_begin17
	.byte	0
	.byte	0
	.uleb128 Ltmp134-Lfunc_begin17
	.uleb128 Ltmp139-Ltmp134
	.uleb128 Ltmp140-Lfunc_begin17
	.byte	0
	.uleb128 Ltmp139-Lfunc_begin17
	.uleb128 Ltmp141-Ltmp139
	.byte	0
	.byte	0
	.uleb128 Ltmp141-Lfunc_begin17
	.uleb128 Ltmp142-Ltmp141
	.uleb128 Ltmp143-Lfunc_begin17
	.byte	0
Lcst_end5:
	.p2align	2

	.section	__TEXT,__text,regular,pure_instructions
	.globl	__ZN3std6thread5local4lazy21LazyKeyInner$LT$T$GT$3get17hd99d53720d491440E
	.p2align	4, 0x90
__ZN3std6thread5local4lazy21LazyKeyInner$LT$T$GT$3get17hd99d53720d491440E:
Lfunc_begin18:
	.loc	3 797 0
	.cfi_startproc
	pushq	%rbp
	.cfi_def_cfa_offset 16
	.cfi_offset %rbp, -16
	movq	%rsp, %rbp
	.cfi_def_cfa_register %rbp
	subq	$48, %rsp
	movq	%rdi, -48(%rbp)
	movq	%rdi, -32(%rbp)
Ltmp152:
	.loc	3 802 24 prologue_end
	movq	%rdi, -24(%rbp)
	.loc	3 802 22 is_stmt 0
	movq	%rdi, -16(%rbp)
Ltmp153:
	.loc	14 675 9 is_stmt 1
	cmpq	$0, (%rdi)
	jne	LBB18_2
	.loc	14 677 21
	movq	$0, -40(%rbp)
	jmp	LBB18_3
LBB18_2:
	.loc	14 0 21 is_stmt 0
	movq	-48(%rbp), %rax
	.loc	14 676 18 is_stmt 1
	addq	$8, %rax
	movq	%rax, -8(%rbp)
Ltmp154:
	.loc	14 676 28 is_stmt 0
	movq	%rax, -40(%rbp)
Ltmp155:
LBB18_3:
	.loc	3 803 10 is_stmt 1
	movq	-40(%rbp), %rax
	addq	$48, %rsp
	popq	%rbp
	retq
Ltmp156:
Lfunc_end18:
	.cfi_endproc

	.globl	__ZN3std6thread5local4lazy21LazyKeyInner$LT$T$GT$4take17h633910ab8e2e842dE
	.p2align	4, 0x90
__ZN3std6thread5local4lazy21LazyKeyInner$LT$T$GT$4take17h633910ab8e2e842dE:
Lfunc_begin19:
	.loc	3 854 0
	.cfi_startproc
	pushq	%rbp
	.cfi_def_cfa_offset 16
	.cfi_offset %rbp, -16
	movq	%rsp, %rbp
	.cfi_def_cfa_register %rbp
	subq	$48, %rsp
	movq	%rdi, -24(%rbp)
Ltmp157:
	.loc	3 856 24 prologue_end
	movq	%rdi, -16(%rbp)
	.loc	3 856 22 is_stmt 0
	movq	%rdi, -8(%rbp)
Ltmp158:
	.loc	14 1623 28 is_stmt 1
	movq	$0, -40(%rbp)
	.loc	14 1623 9 is_stmt 0
	movq	-40(%rbp), %rsi
	movq	-32(%rbp), %rdx
	callq	__ZN4core3mem7replace17h8459bb761c4c0440E
Ltmp159:
	.loc	3 857 10 is_stmt 1
	addq	$48, %rsp
	popq	%rbp
	retq
Ltmp160:
Lfunc_end19:
	.cfi_endproc

	.globl	__ZN3std9panicking3try17h4c0bd78ad665b465E
	.p2align	4, 0x90
__ZN3std9panicking3try17h4c0bd78ad665b465E:
Lfunc_begin20:
	.file	20 "/rustc/2c8cc343237b8f7d5a3c3703e3a87f2eb2c54a74/library/std/src" "panicking.rs"
	.loc	20 403 0
	.cfi_startproc
	pushq	%rbp
	.cfi_def_cfa_offset 16
	.cfi_offset %rbp, -16
	movq	%rsp, %rbp
	.cfi_def_cfa_register %rbp
	subq	$96, %rsp
	movq	%rdi, -56(%rbp)
Ltmp161:
	.loc	20 434 48 prologue_end
	movq	%rdi, -40(%rbp)
Ltmp162:
	.file	21 "/rustc/2c8cc343237b8f7d5a3c3703e3a87f2eb2c54a74/library/core/src/mem" "manually_drop.rs"
	.loc	21 71 9
	movq	%rdi, -64(%rbp)
Ltmp163:
	.loc	20 434 20
	movq	-64(%rbp), %rax
	movq	%rax, -80(%rbp)
Ltmp164:
	.loc	20 436 20
	leaq	-80(%rbp), %rax
	movq	%rax, -32(%rbp)
Ltmp165:
	.loc	20 447 19
	leaq	__ZN3std9panicking3try7do_call17h2e22fe992dc29d99E(%rip), %rdi
	leaq	-80(%rbp), %rsi
	leaq	__ZN3std9panicking3try8do_catch17h7145f0d670922996E(%rip), %rdx
	callq	___rust_try
	movl	%eax, -20(%rbp)
	cmpl	$0, -20(%rbp)
	jne	LBB20_2
	.loc	20 448 13
	movq	$0, -96(%rbp)
	.loc	20 447 16
	jmp	LBB20_3
LBB20_2:
	.loc	20 450 42
	movq	-80(%rbp), %rcx
	movq	-72(%rbp), %rax
	movq	%rcx, -16(%rbp)
	movq	%rax, -8(%rbp)
	.loc	20 450 13 is_stmt 0
	movq	%rcx, -96(%rbp)
	movq	%rax, -88(%rbp)
Ltmp166:
LBB20_3:
	.loc	20 512 2 is_stmt 1
	movq	-96(%rbp), %rax
	movq	-88(%rbp), %rdx
	addq	$96, %rsp
	popq	%rbp
	retq
Ltmp167:
Lfunc_end20:
	.cfi_endproc

	.globl	__ZN3std9panicking3try7do_call17h2e22fe992dc29d99E
	.p2align	4, 0x90
__ZN3std9panicking3try7do_call17h2e22fe992dc29d99E:
Lfunc_begin21:
	.loc	20 477 0
	.cfi_startproc
	pushq	%rbp
	.cfi_def_cfa_offset 16
	.cfi_offset %rbp, -16
	movq	%rsp, %rbp
	.cfi_def_cfa_register %rbp
	subq	$96, %rsp
	movq	%rdi, -80(%rbp)
Ltmp168:
	.loc	20 480 24 prologue_end
	movq	%rdi, -64(%rbp)
Ltmp169:
	.loc	20 481 24
	movq	%rdi, -56(%rbp)
Ltmp170:
	.loc	20 482 40
	movq	%rdi, -48(%rbp)
Ltmp171:
	.loc	21 113 28
	movq	%rdi, -40(%rbp)
Ltmp172:
	.loc	6 1157 34
	leaq	-88(%rbp), %rax
	movq	%rax, -32(%rbp)
	.loc	6 1157 9 is_stmt 0
	movq	(%rdi), %rax
	movq	%rax, -88(%rbp)
	.loc	6 1158 9 is_stmt 1
	movq	-88(%rbp), %rdi
	movq	%rdi, -24(%rbp)
Ltmp173:
	.file	22 "/rustc/2c8cc343237b8f7d5a3c3703e3a87f2eb2c54a74/library/core/src/mem" "maybe_uninit.rs"
	.loc	22 627 38
	movq	%rdi, -16(%rbp)
Ltmp174:
	.loc	21 89 9
	movq	%rdi, -8(%rbp)
Ltmp175:
	.loc	20 483 40
	callq	__ZN115_$LT$core..panic..unwind_safe..AssertUnwindSafe$LT$F$GT$$u20$as$u20$core..ops..function..FnOnce$LT$$LP$$RP$$GT$$GT$9call_once17h4fd852ef45084d85E
Ltmp176:
	.loc	20 485 6
	addq	$96, %rsp
	popq	%rbp
	retq
Ltmp177:
Lfunc_end21:
	.cfi_endproc

	.globl	__ZN3std9panicking3try8do_catch17h7145f0d670922996E
	.p2align	4, 0x90
__ZN3std9panicking3try8do_catch17h7145f0d670922996E:
Lfunc_begin22:
	.loc	20 499 0
	.cfi_startproc
	pushq	%rbp
	.cfi_def_cfa_offset 16
	.cfi_offset %rbp, -16
	movq	%rsp, %rbp
	.cfi_def_cfa_register %rbp
	subq	$96, %rsp
	movq	%rsi, -96(%rbp)
	movq	%rdi, %rax
	movq	-96(%rbp), %rdi
	movq	%rax, -88(%rbp)
	movq	%rax, -64(%rbp)
	movq	%rdi, -56(%rbp)
Ltmp178:
	.loc	20 506 24 prologue_end
	movq	%rax, -48(%rbp)
Ltmp179:
	.loc	20 507 24
	movq	%rax, -40(%rbp)
Ltmp180:
	.loc	20 508 23
	callq	__ZN3std9panicking3try7cleanup17h75e8c286968d572cE
	movq	-88(%rbp), %rdi
	movq	%rax, -32(%rbp)
	movq	%rdx, -24(%rbp)
Ltmp181:
	.loc	20 509 40
	movq	%rax, -16(%rbp)
	movq	%rdx, -8(%rbp)
Ltmp182:
	.loc	21 71 9
	movq	%rax, -80(%rbp)
	movq	%rdx, -72(%rbp)
Ltmp183:
	.loc	20 509 13
	movq	-80(%rbp), %rcx
	movq	-72(%rbp), %rax
	movq	%rcx, (%rdi)
	movq	%rax, 8(%rdi)
Ltmp184:
	.loc	20 511 6
	addq	$96, %rsp
	popq	%rbp
	retq
Ltmp185:
Lfunc_end22:
	.cfi_endproc

	.globl	__ZN42_$LT$$RF$T$u20$as$u20$core..fmt..Debug$GT$3fmt17h248d8a2676e53557E
	.p2align	4, 0x90
__ZN42_$LT$$RF$T$u20$as$u20$core..fmt..Debug$GT$3fmt17h248d8a2676e53557E:
Lfunc_begin23:
	.loc	18 2377 0
	.cfi_startproc
	pushq	%rbp
	.cfi_def_cfa_offset 16
	.cfi_offset %rbp, -16
	movq	%rsp, %rbp
	.cfi_def_cfa_register %rbp
	subq	$16, %rsp
	movq	%rsi, %rdx
	movq	%rdi, %rax
	movq	%rax, -16(%rbp)
	movq	%rdx, -8(%rbp)
Ltmp186:
	.loc	18 2377 71 prologue_end
	movq	(%rax), %rdi
	movq	8(%rax), %rsi
	.loc	18 2377 62 is_stmt 0
	callq	__ZN48_$LT$$u5b$T$u5d$$u20$as$u20$core..fmt..Debug$GT$3fmt17h269f854f82a23331E
	.loc	18 2377 84
	andb	$1, %al
	movzbl	%al, %eax
	addq	$16, %rsp
	popq	%rbp
	retq
Ltmp187:
Lfunc_end23:
	.cfi_endproc

	.globl	__ZN42_$LT$$RF$T$u20$as$u20$core..fmt..Debug$GT$3fmt17h28f27c33393642a9E
	.p2align	4, 0x90
__ZN42_$LT$$RF$T$u20$as$u20$core..fmt..Debug$GT$3fmt17h28f27c33393642a9E:
Lfunc_begin24:
	.loc	18 2377 0 is_stmt 1
	.cfi_startproc
	pushq	%rbp
	.cfi_def_cfa_offset 16
	.cfi_offset %rbp, -16
	movq	%rsp, %rbp
	.cfi_def_cfa_register %rbp
	subq	$16, %rsp
	movq	%rdi, -16(%rbp)
	movq	%rsi, -8(%rbp)
Ltmp188:
	.loc	18 2377 71 prologue_end
	movq	(%rdi), %rdi
	.loc	18 2377 62 is_stmt 0
	callq	__ZN72_$LT$crossbeam_epoch..deferred..Deferred$u20$as$u20$core..fmt..Debug$GT$3fmt17hbd48823c26ff2000E
	.loc	18 2377 84
	andb	$1, %al
	movzbl	%al, %eax
	addq	$16, %rsp
	popq	%rbp
	retq
Ltmp189:
Lfunc_end24:
	.cfi_endproc

	.globl	__ZN42_$LT$$RF$T$u20$as$u20$core..fmt..Debug$GT$3fmt17h2bd316c51ef6733fE
	.p2align	4, 0x90
__ZN42_$LT$$RF$T$u20$as$u20$core..fmt..Debug$GT$3fmt17h2bd316c51ef6733fE:
Lfunc_begin25:
	.loc	18 2377 0 is_stmt 1
	.cfi_startproc
	pushq	%rbp
	.cfi_def_cfa_offset 16
	.cfi_offset %rbp, -16
	movq	%rsp, %rbp
	.cfi_def_cfa_register %rbp
	subq	$16, %rsp
	movq	%rdi, -16(%rbp)
	movq	%rsi, -8(%rbp)
Ltmp190:
	.loc	18 2377 71 prologue_end
	movq	(%rdi), %rdi
	.loc	18 2377 62 is_stmt 0
	callq	__ZN68_$LT$core..sync..atomic..AtomicUsize$u20$as$u20$core..fmt..Debug$GT$3fmt17hdbca57d1da936e5cE
	.loc	18 2377 84
	andb	$1, %al
	movzbl	%al, %eax
	addq	$16, %rsp
	popq	%rbp
	retq
Ltmp191:
Lfunc_end25:
	.cfi_endproc

	.globl	__ZN42_$LT$$RF$T$u20$as$u20$core..fmt..Debug$GT$3fmt17h4a6eca8447d0dc15E
	.p2align	4, 0x90
__ZN42_$LT$$RF$T$u20$as$u20$core..fmt..Debug$GT$3fmt17h4a6eca8447d0dc15E:
Lfunc_begin26:
	.loc	18 2377 0 is_stmt 1
	.cfi_startproc
	pushq	%rbp
	.cfi_def_cfa_offset 16
	.cfi_offset %rbp, -16
	movq	%rsp, %rbp
	.cfi_def_cfa_register %rbp
	subq	$16, %rsp
	movq	%rdi, -16(%rbp)
	movq	%rsi, -8(%rbp)
Ltmp192:
	.loc	18 2377 71 prologue_end
	movq	(%rdi), %rdi
	.loc	18 2377 62 is_stmt 0
	callq	__ZN66_$LT$crossbeam_epoch..epoch..Epoch$u20$as$u20$core..fmt..Debug$GT$3fmt17h4d739392ccd48a50E
	.loc	18 2377 84
	andb	$1, %al
	movzbl	%al, %eax
	addq	$16, %rsp
	popq	%rbp
	retq
Ltmp193:
Lfunc_end26:
	.cfi_endproc

	.globl	__ZN42_$LT$$RF$T$u20$as$u20$core..fmt..Debug$GT$3fmt17haceb03674b239a14E
	.p2align	4, 0x90
__ZN42_$LT$$RF$T$u20$as$u20$core..fmt..Debug$GT$3fmt17haceb03674b239a14E:
Lfunc_begin27:
	.loc	18 2377 0 is_stmt 1
	.cfi_startproc
	pushq	%rbp
	.cfi_def_cfa_offset 16
	.cfi_offset %rbp, -16
	movq	%rsp, %rbp
	.cfi_def_cfa_register %rbp
	subq	$16, %rsp
	movq	%rdi, -16(%rbp)
	movq	%rsi, -8(%rbp)
Ltmp194:
	.loc	18 2377 71 prologue_end
	movq	(%rdi), %rdi
	.loc	18 2377 62 is_stmt 0
	callq	__ZN77_$LT$crossbeam_epoch..atomic..Atomic$LT$T$GT$$u20$as$u20$core..fmt..Debug$GT$3fmt17hb5448eb3ae1934bdE
	.loc	18 2377 84
	andb	$1, %al
	movzbl	%al, %eax
	addq	$16, %rsp
	popq	%rbp
	retq
Ltmp195:
Lfunc_end27:
	.cfi_endproc

	.globl	__ZN42_$LT$$RF$T$u20$as$u20$core..fmt..Debug$GT$3fmt17hdcb06d6186c1cb5eE
	.p2align	4, 0x90
__ZN42_$LT$$RF$T$u20$as$u20$core..fmt..Debug$GT$3fmt17hdcb06d6186c1cb5eE:
Lfunc_begin28:
	.loc	18 2377 0 is_stmt 1
	.cfi_startproc
	pushq	%rbp
	.cfi_def_cfa_offset 16
	.cfi_offset %rbp, -16
	movq	%rsp, %rbp
	.cfi_def_cfa_register %rbp
	subq	$16, %rsp
	movq	%rdi, -16(%rbp)
	movq	%rsi, -8(%rbp)
Ltmp196:
	.loc	18 2377 71 prologue_end
	movq	(%rdi), %rdi
	.loc	18 2377 62 is_stmt 0
	callq	__ZN67_$LT$crossbeam_epoch..internal..Bag$u20$as$u20$core..fmt..Debug$GT$3fmt17h813cc45c3bbb3d7cE
	.loc	18 2377 84
	andb	$1, %al
	movzbl	%al, %eax
	addq	$16, %rsp
	popq	%rbp
	retq
Ltmp197:
Lfunc_end28:
	.cfi_endproc

	.globl	__ZN48_$LT$$u5b$T$u5d$$u20$as$u20$core..fmt..Debug$GT$3fmt17h269f854f82a23331E
	.p2align	4, 0x90
__ZN48_$LT$$u5b$T$u5d$$u20$as$u20$core..fmt..Debug$GT$3fmt17h269f854f82a23331E:
Lfunc_begin29:
	.loc	18 2602 0 is_stmt 1
	.cfi_startproc
	pushq	%rbp
	.cfi_def_cfa_offset 16
	.cfi_offset %rbp, -16
	movq	%rsp, %rbp
	.cfi_def_cfa_register %rbp
	subq	$80, %rsp
	movq	%rdx, -80(%rbp)
	movq	%rsi, %rax
	movq	-80(%rbp), %rsi
	movq	%rdi, -72(%rbp)
	movq	%rax, -64(%rbp)
	movq	%rdi, -40(%rbp)
	movq	%rax, -32(%rbp)
	movq	%rsi, -24(%rbp)
Ltmp198:
	.loc	18 2603 9 prologue_end
	leaq	-56(%rbp), %rdi
	callq	__ZN4core3fmt9Formatter10debug_list17hc648f6f2ff865c45E
	movq	-72(%rbp), %rdi
	movq	-64(%rbp), %rsi
	.loc	18 2603 32 is_stmt 0
	movq	%rdi, -16(%rbp)
	movq	%rsi, -8(%rbp)
Ltmp199:
	.file	23 "/rustc/2c8cc343237b8f7d5a3c3703e3a87f2eb2c54a74/library/core/src/slice" "mod.rs"
	.loc	23 742 9 is_stmt 1
	callq	__ZN4core5slice4iter13Iter$LT$T$GT$3new17h70500a976fad6fafE
	movq	%rax, %rsi
Ltmp200:
	.loc	18 2603 9
	leaq	-56(%rbp), %rdi
	callq	__ZN4core3fmt8builders9DebugList7entries17hff567a2bff8ac3eaE
	movq	%rax, %rdi
	callq	__ZN4core3fmt8builders9DebugList6finish17hed399f470c25b4b2E
	.loc	18 2604 6
	andb	$1, %al
	movzbl	%al, %eax
	addq	$80, %rsp
	popq	%rbp
	retq
Ltmp201:
Lfunc_end29:
	.cfi_endproc

	.p2align	4, 0x90
__ZN48_$LT$usize$u20$as$u20$core..default..Default$GT$7default17h0c2211c881fda18aE:
Lfunc_begin30:
	.file	24 "/rustc/2c8cc343237b8f7d5a3c3703e3a87f2eb2c54a74/library/core/src" "default.rs"
	.loc	24 197 0
	.cfi_startproc
	pushq	%rbp
	.cfi_def_cfa_offset 16
	.cfi_offset %rbp, -16
	movq	%rsp, %rbp
	.cfi_def_cfa_register %rbp
Ltmp202:
	.loc	24 199 14 prologue_end
	xorl	%eax, %eax
	popq	%rbp
	retq
Ltmp203:
Lfunc_end30:
	.cfi_endproc

	.globl	__ZN4core3cmp9PartialEq2ne17h6974ce143f30a619E
	.p2align	4, 0x90
__ZN4core3cmp9PartialEq2ne17h6974ce143f30a619E:
Lfunc_begin31:
	.file	25 "/rustc/2c8cc343237b8f7d5a3c3703e3a87f2eb2c54a74/library/core/src" "cmp.rs"
	.loc	25 227 0
	.cfi_startproc
	pushq	%rbp
	.cfi_def_cfa_offset 16
	.cfi_offset %rbp, -16
	movq	%rsp, %rbp
	.cfi_def_cfa_register %rbp
	subq	$16, %rsp
	movq	%rdi, -16(%rbp)
	movq	%rsi, -8(%rbp)
Ltmp204:
	.loc	25 228 10 prologue_end
	callq	__ZN70_$LT$crossbeam_epoch..epoch..Epoch$u20$as$u20$core..cmp..PartialEq$GT$2eq17h3b7d4b15060bc00eE
	.loc	25 228 9 is_stmt 0
	xorb	$-1, %al
	.loc	25 229 6 is_stmt 1
	andb	$1, %al
	movzbl	%al, %eax
	addq	$16, %rsp
	popq	%rbp
	retq
Ltmp205:
Lfunc_end31:
	.cfi_endproc

	.p2align	4, 0x90
__ZN4core3fmt3num52_$LT$impl$u20$core..fmt..Debug$u20$for$u20$usize$GT$3fmt17h0b0eaeb8611cdc27E:
Lfunc_begin32:
	.file	26 "/rustc/2c8cc343237b8f7d5a3c3703e3a87f2eb2c54a74/library/core/src/fmt" "num.rs"
	.loc	26 185 0
	.cfi_startproc
	pushq	%rbp
	.cfi_def_cfa_offset 16
	.cfi_offset %rbp, -16
	movq	%rsp, %rbp
	.cfi_def_cfa_register %rbp
	subq	$48, %rsp
	movq	%rsi, -48(%rbp)
	movq	%rdi, %rax
	movq	-48(%rbp), %rdi
	movq	%rax, -40(%rbp)
	movq	%rdi, -32(%rbp)
	movq	%rax, -16(%rbp)
	movq	%rdi, -8(%rbp)
Ltmp206:
	.loc	26 186 20 prologue_end
	callq	__ZN4core3fmt9Formatter15debug_lower_hex17h0921e6b9188d914eE
	testb	$1, %al
	jne	LBB32_2
	.loc	26 0 20 is_stmt 0
	movq	-32(%rbp), %rdi
	.loc	26 188 27 is_stmt 1
	callq	__ZN4core3fmt9Formatter15debug_upper_hex17h8ce487049a6cccf8E
	testb	$1, %al
	jne	LBB32_5
	jmp	LBB32_4
LBB32_2:
	.loc	26 0 27 is_stmt 0
	movq	-32(%rbp), %rsi
	movq	-40(%rbp), %rdi
	.loc	26 187 21 is_stmt 1
	callq	__ZN4core3fmt3num55_$LT$impl$u20$core..fmt..LowerHex$u20$for$u20$usize$GT$3fmt17h84f349805fe63f8dE
	andb	$1, %al
	movb	%al, -17(%rbp)
LBB32_3:
	.loc	26 193 14
	movb	-17(%rbp), %al
	andb	$1, %al
	movzbl	%al, %eax
	addq	$48, %rsp
	popq	%rbp
	retq
LBB32_4:
	.loc	26 0 14 is_stmt 0
	movq	-32(%rbp), %rsi
	movq	-40(%rbp), %rdi
	.loc	26 191 21 is_stmt 1
	callq	__ZN4core3fmt3num3imp54_$LT$impl$u20$core..fmt..Display$u20$for$u20$usize$GT$3fmt17ha5c925fcd7ed33faE
	andb	$1, %al
	movb	%al, -17(%rbp)
	.loc	26 188 24
	jmp	LBB32_6
LBB32_5:
	.loc	26 0 24 is_stmt 0
	movq	-32(%rbp), %rsi
	movq	-40(%rbp), %rdi
	.loc	26 189 21 is_stmt 1
	callq	__ZN4core3fmt3num55_$LT$impl$u20$core..fmt..UpperHex$u20$for$u20$usize$GT$3fmt17h49aa717311edc293E
	andb	$1, %al
	movb	%al, -17(%rbp)
LBB32_6:
	.loc	26 186 17
	jmp	LBB32_3
Ltmp207:
Lfunc_end32:
	.cfi_endproc

	.globl	__ZN4core3fmt8builders9DebugList7entries17hff567a2bff8ac3eaE
	.p2align	4, 0x90
__ZN4core3fmt8builders9DebugList7entries17hff567a2bff8ac3eaE:
Lfunc_begin33:
	.file	27 "/rustc/2c8cc343237b8f7d5a3c3703e3a87f2eb2c54a74/library/core/src/fmt" "builders.rs"
	.loc	27 627 0
	.cfi_startproc
	.cfi_personality 155, _rust_eh_personality
	.cfi_lsda 16, Lexception6
	pushq	%rbp
	.cfi_def_cfa_offset 16
	.cfi_offset %rbp, -16
	movq	%rsp, %rbp
	.cfi_def_cfa_register %rbp
	subq	$112, %rsp
	movq	%rdx, -96(%rbp)
	movq	%rsi, %rax
	movq	-96(%rbp), %rsi
	movq	%rax, -88(%rbp)
	movq	%rdi, %rax
	movq	-88(%rbp), %rdi
	movq	%rax, -80(%rbp)
	movq	%rax, -40(%rbp)
	movq	%rdi, -32(%rbp)
	movq	%rsi, -24(%rbp)
Ltmp214:
	.loc	27 632 22 prologue_end
	callq	__ZN63_$LT$I$u20$as$u20$core..iter..traits..collect..IntoIterator$GT$9into_iter17h92110f3a012845c9E
	movq	%rax, -72(%rbp)
	movq	%rdx, -64(%rbp)
LBB33_1:
Ltmp208:
	.loc	27 0 22 is_stmt 0
	leaq	-72(%rbp), %rdi
Ltmp215:
	.loc	27 632 22
	callq	__ZN91_$LT$core..slice..iter..Iter$LT$T$GT$$u20$as$u20$core..iter..traits..iterator..Iterator$GT$4next17h597b85afa1770769E
Ltmp209:
	movq	%rax, -104(%rbp)
	jmp	LBB33_4
Ltmp216:
LBB33_2:
	.loc	27 627 5 is_stmt 1
	movq	-16(%rbp), %rdi
	callq	__Unwind_Resume
LBB33_3:
Ltmp210:
	.loc	27 0 5 is_stmt 0
	movq	%rax, %rcx
	movl	%edx, %eax
	movq	%rcx, -16(%rbp)
	movl	%eax, -8(%rbp)
	jmp	LBB33_2
LBB33_4:
	movq	-104(%rbp), %rax
Ltmp217:
	.loc	27 632 22 is_stmt 1
	movq	%rax, -56(%rbp)
	movq	-56(%rbp), %rdx
	movl	$1, %eax
	xorl	%ecx, %ecx
	cmpq	$0, %rdx
	cmoveq	%rcx, %rax
	cmpq	$0, %rax
	jne	LBB33_6
Ltmp218:
	.loc	27 0 22 is_stmt 0
	movq	-80(%rbp), %rax
	.loc	27 636 6 is_stmt 1
	addq	$112, %rsp
	popq	%rbp
	retq
LBB33_6:
	.loc	27 0 6 is_stmt 0
	movq	-80(%rbp), %rdi
Ltmp219:
	.loc	27 632 13 is_stmt 1
	movq	-56(%rbp), %rax
	movq	%rax, -48(%rbp)
Ltmp211:
Ltmp220:
	.loc	27 633 13
	leaq	l___unnamed_2(%rip), %rdx
	leaq	-48(%rbp), %rsi
	callq	__ZN4core3fmt8builders9DebugList5entry17h90e9fab3d6cede22E
Ltmp212:
	jmp	LBB33_9
Ltmp221:
LBB33_7:
	.loc	27 634 9
	jmp	LBB33_2
LBB33_8:
Ltmp213:
	.loc	27 0 9 is_stmt 0
	movq	%rax, %rcx
	movl	%edx, %eax
	movq	%rcx, -16(%rbp)
	movl	%eax, -8(%rbp)
	jmp	LBB33_7
LBB33_9:
	.loc	27 634 9
	jmp	LBB33_10
LBB33_10:
	.loc	27 632 9 is_stmt 1
	jmp	LBB33_1
Ltmp222:
Lfunc_end33:
	.cfi_endproc
	.section	__TEXT,__gcc_except_tab
	.p2align	2
GCC_except_table33:
Lexception6:
	.byte	255
	.byte	255
	.byte	1
	.uleb128 Lcst_end6-Lcst_begin6
Lcst_begin6:
	.uleb128 Lfunc_begin33-Lfunc_begin33
	.uleb128 Ltmp208-Lfunc_begin33
	.byte	0
	.byte	0
	.uleb128 Ltmp208-Lfunc_begin33
	.uleb128 Ltmp209-Ltmp208
	.uleb128 Ltmp210-Lfunc_begin33
	.byte	0
	.uleb128 Ltmp209-Lfunc_begin33
	.uleb128 Ltmp211-Ltmp209
	.byte	0
	.byte	0
	.uleb128 Ltmp211-Lfunc_begin33
	.uleb128 Ltmp212-Ltmp211
	.uleb128 Ltmp213-Lfunc_begin33
	.byte	0
Lcst_end6:
	.p2align	2

	.section	__TEXT,__text,regular,pure_instructions
	.p2align	4, 0x90
__ZN4core3fmt9Arguments6new_v117h2e6830ba6496e7b7E:
Lfunc_begin34:
	.loc	18 399 0
	.cfi_startproc
	pushq	%rbp
	.cfi_def_cfa_offset 16
	.cfi_offset %rbp, -16
	movq	%rsp, %rbp
	.cfi_def_cfa_register %rbp
	subq	$160, %rsp
	movq	%r8, -152(%rbp)
	movq	%rcx, -144(%rbp)
	movq	%rdx, -136(%rbp)
	movq	%rsi, -128(%rbp)
	movq	%rdi, -120(%rbp)
	movq	%rdi, -112(%rbp)
	movq	%rsi, -32(%rbp)
	movq	%rdx, -24(%rbp)
	movq	%rcx, -16(%rbp)
	movq	%r8, -8(%rbp)
Ltmp223:
	.loc	18 400 12 prologue_end
	cmpq	%r8, %rdx
	jb	LBB34_2
	.loc	18 0 12 is_stmt 0
	movq	-136(%rbp), %rax
	movq	-152(%rbp), %rcx
	.loc	18 400 56
	addq	$1, %rcx
	.loc	18 400 41
	cmpq	%rcx, %rax
	seta	%al
	.loc	18 400 12
	andb	$1, %al
	movb	%al, -97(%rbp)
	jmp	LBB34_3
LBB34_2:
	movb	$1, -97(%rbp)
LBB34_3:
	testb	$1, -97(%rbp)
	jne	LBB34_5
	.loc	18 0 12
	movq	-112(%rbp), %rax
	movq	-120(%rbp), %rcx
	movq	-152(%rbp), %rdx
	movq	-144(%rbp), %rsi
	movq	-136(%rbp), %rdi
	movq	-128(%rbp), %r8
	.loc	18 403 34 is_stmt 1
	movq	$0, -48(%rbp)
	.loc	18 403 9 is_stmt 0
	movq	%r8, 16(%rcx)
	movq	%rdi, 24(%rcx)
	movq	-48(%rbp), %r8
	movq	-40(%rbp), %rdi
	movq	%r8, (%rcx)
	movq	%rdi, 8(%rcx)
	movq	%rsi, 32(%rcx)
	movq	%rdx, 40(%rcx)
	.loc	18 404 6 is_stmt 1
	addq	$160, %rsp
	popq	%rbp
	retq
LBB34_5:
	.loc	18 401 13
	leaq	l___unnamed_15(%rip), %rsi
	leaq	l___unnamed_13(%rip), %rcx
	xorl	%eax, %eax
	movl	%eax, %r8d
	leaq	-96(%rbp), %rdi
	movq	%rdi, -160(%rbp)
	movl	$1, %edx
	callq	__ZN4core3fmt9Arguments6new_v117h2e6830ba6496e7b7E
	movq	-160(%rbp), %rdi
	leaq	l___unnamed_16(%rip), %rsi
	callq	__ZN4core9panicking9panic_fmt17h9b5d807e24bcaaedE
Ltmp224:
Lfunc_end34:
	.cfi_endproc

	.globl	__ZN4core3mem4drop17h4625141fe8388445E
	.p2align	4, 0x90
__ZN4core3mem4drop17h4625141fe8388445E:
Lfunc_begin35:
	.loc	16 980 0
	.cfi_startproc
	pushq	%rbp
	.cfi_def_cfa_offset 16
	.cfi_offset %rbp, -16
	movq	%rsp, %rbp
	.cfi_def_cfa_register %rbp
	subq	$16, %rsp
	movq	%rdi, -8(%rbp)
Ltmp225:
	.loc	16 980 24 prologue_end
	leaq	-8(%rbp), %rdi
	callq	__ZN4core3ptr58drop_in_place$LT$crossbeam_epoch..collector..Collector$GT$17h3cec182943e87757E
	.loc	16 980 25 is_stmt 0
	addq	$16, %rsp
	popq	%rbp
	retq
Ltmp226:
Lfunc_end35:
	.cfi_endproc

	.globl	__ZN4core3mem4drop17h477d0b9e2e0af816E
	.p2align	4, 0x90
__ZN4core3mem4drop17h477d0b9e2e0af816E:
Lfunc_begin36:
	.loc	16 980 0 is_stmt 1
	.cfi_startproc
	pushq	%rbp
	.cfi_def_cfa_offset 16
	.cfi_offset %rbp, -16
	movq	%rsp, %rbp
	.cfi_def_cfa_register %rbp
	subq	$16, %rsp
	movq	%rdi, -8(%rbp)
Ltmp227:
	.loc	16 980 24 prologue_end
	leaq	-8(%rbp), %rdi
	callq	__ZN4core3ptr78drop_in_place$LT$alloc..boxed..Box$LT$crossbeam_epoch..internal..Local$GT$$GT$17hdba543a843225367E
	.loc	16 980 25 is_stmt 0
	addq	$16, %rsp
	popq	%rbp
	retq
Ltmp228:
Lfunc_end36:
	.cfi_endproc

	.globl	__ZN4core3mem4drop17hd89c2d3fa2917ef1E
	.p2align	4, 0x90
__ZN4core3mem4drop17hd89c2d3fa2917ef1E:
Lfunc_begin37:
	.loc	16 980 0 is_stmt 1
	.cfi_startproc
	pushq	%rbp
	.cfi_def_cfa_offset 16
	.cfi_offset %rbp, -16
	movq	%rsp, %rbp
	.cfi_def_cfa_register %rbp
	subq	$16, %rsp
	movq	%rdi, -8(%rbp)
Ltmp229:
	.loc	16 980 24 prologue_end
	leaq	-8(%rbp), %rdi
	callq	__ZN4core3ptr137drop_in_place$LT$crossbeam_epoch..atomic..Owned$LT$crossbeam_epoch..sync..queue..Node$LT$crossbeam_epoch..internal..SealedBag$GT$$GT$$GT$17hfbe59f9a7b09feacE
	.loc	16 980 25 is_stmt 0
	addq	$16, %rsp
	popq	%rbp
	retq
Ltmp230:
Lfunc_end37:
	.cfi_endproc

	.globl	__ZN4core3mem4drop17hddd92bae77d3b5eaE
	.p2align	4, 0x90
__ZN4core3mem4drop17hddd92bae77d3b5eaE:
Lfunc_begin38:
	.loc	16 980 0 is_stmt 1
	.cfi_startproc
	pushq	%rbp
	.cfi_def_cfa_offset 16
	.cfi_offset %rbp, -16
	movq	%rsp, %rbp
	.cfi_def_cfa_register %rbp
	subq	$16, %rsp
	movq	%rdi, -8(%rbp)
Ltmp231:
	.loc	16 980 24 prologue_end
	leaq	-8(%rbp), %rdi
	callq	__ZN4core3ptr91drop_in_place$LT$crossbeam_epoch..atomic..Owned$LT$crossbeam_epoch..internal..Local$GT$$GT$17hd00e8a08d3852291E
	.loc	16 980 25 is_stmt 0
	addq	$16, %rsp
	popq	%rbp
	retq
Ltmp232:
Lfunc_end38:
	.cfi_endproc

	.globl	__ZN4core3mem4drop17he217ac2f26fcd63aE
	.p2align	4, 0x90
__ZN4core3mem4drop17he217ac2f26fcd63aE:
Lfunc_begin39:
	.loc	16 980 0 is_stmt 1
	.cfi_startproc
	pushq	%rbp
	.cfi_def_cfa_offset 16
	.cfi_offset %rbp, -16
	movq	%rsp, %rbp
	.cfi_def_cfa_register %rbp
Ltmp233:
	.loc	16 980 24 prologue_end
	callq	__ZN4core3ptr57drop_in_place$LT$crossbeam_epoch..internal..SealedBag$GT$17h9a54cffe6af1fa50E
Ltmp234:
	.loc	16 980 25 is_stmt 0
	popq	%rbp
	retq
Ltmp235:
Lfunc_end39:
	.cfi_endproc

	.globl	__ZN4core3mem4drop17hf46fa0a237cb01caE
	.p2align	4, 0x90
__ZN4core3mem4drop17hf46fa0a237cb01caE:
Lfunc_begin40:
	.loc	16 980 0 is_stmt 1
	.cfi_startproc
	pushq	%rbp
	.cfi_def_cfa_offset 16
	.cfi_offset %rbp, -16
	movq	%rsp, %rbp
	.cfi_def_cfa_register %rbp
	subq	$16, %rsp
	movq	%rdi, -8(%rbp)
Ltmp236:
	.loc	16 980 24 prologue_end
	leaq	-8(%rbp), %rdi
	callq	__ZN4core3ptr124drop_in_place$LT$alloc..boxed..Box$LT$crossbeam_epoch..sync..queue..Node$LT$crossbeam_epoch..internal..SealedBag$GT$$GT$$GT$17haad04f5bdbfdf8abE
	.loc	16 980 25 is_stmt 0
	addq	$16, %rsp
	popq	%rbp
	retq
Ltmp237:
Lfunc_end40:
	.cfi_endproc

	.globl	__ZN4core3mem6forget17h2db4088ba7f4e3a7E
	.p2align	4, 0x90
__ZN4core3mem6forget17h2db4088ba7f4e3a7E:
Lfunc_begin41:
	.loc	16 148 0 is_stmt 1
	.cfi_startproc
	pushq	%rbp
	.cfi_def_cfa_offset 16
	.cfi_offset %rbp, -16
	movq	%rsp, %rbp
	.cfi_def_cfa_register %rbp
	pushq	%rax
	movq	%rdi, -8(%rbp)
Ltmp238:
	.loc	16 150 2 prologue_end
	addq	$8, %rsp
	popq	%rbp
	retq
Ltmp239:
Lfunc_end41:
	.cfi_endproc

	.globl	__ZN4core3mem6forget17h601c9828470d42caE
	.p2align	4, 0x90
__ZN4core3mem6forget17h601c9828470d42caE:
Lfunc_begin42:
	.loc	16 148 0
	.cfi_startproc
	pushq	%rbp
	.cfi_def_cfa_offset 16
	.cfi_offset %rbp, -16
	movq	%rsp, %rbp
	.cfi_def_cfa_register %rbp
	pushq	%rax
	movq	%rdi, -8(%rbp)
Ltmp240:
	.loc	16 150 2 prologue_end
	addq	$8, %rsp
	popq	%rbp
	retq
Ltmp241:
Lfunc_end42:
	.cfi_endproc

	.globl	__ZN4core3mem7replace17h0ebd939b70db9c41E
	.p2align	4, 0x90
__ZN4core3mem7replace17h0ebd939b70db9c41E:
Lfunc_begin43:
	.loc	16 905 0
	.cfi_startproc
	pushq	%rbp
	.cfi_def_cfa_offset 16
	.cfi_offset %rbp, -16
	movq	%rsp, %rbp
	.cfi_def_cfa_register %rbp
	subq	$184, %rsp
	movq	%rdi, -184(%rbp)
	movq	%rsi, -176(%rbp)
	movq	%rdx, -168(%rbp)
	movq	%rdi, -112(%rbp)
	movq	%rsi, -104(%rbp)
	movq	%rdx, -96(%rbp)
Ltmp242:
	.loc	16 910 32 prologue_end
	movq	%rdi, -88(%rbp)
Ltmp243:
	.loc	6 1157 34
	leaq	-128(%rbp), %rax
	movq	%rax, -80(%rbp)
	.loc	6 1157 9 is_stmt 0
	movq	(%rdi), %rax
	movq	%rax, -128(%rbp)
	movq	8(%rdi), %rax
	movq	%rax, -120(%rbp)
	.loc	6 1158 9 is_stmt 1
	movq	-128(%rbp), %rcx
	movq	%rcx, -160(%rbp)
	movq	-120(%rbp), %rax
	movq	%rax, -152(%rbp)
	movq	%rcx, -72(%rbp)
	movq	%rax, -64(%rbp)
	.loc	6 0 9 is_stmt 0
	movq	-152(%rbp), %rdx
	movq	-160(%rbp), %rax
	movq	-184(%rbp), %rcx
	movq	-168(%rbp), %rsi
	movq	-176(%rbp), %rdi
Ltmp244:
	.loc	22 627 38 is_stmt 1
	movq	%rax, -40(%rbp)
	movq	%rdx, -32(%rbp)
Ltmp245:
	.loc	21 89 9
	movq	%rax, -24(%rbp)
	movq	%rdx, -16(%rbp)
Ltmp246:
	.loc	16 911 20
	movq	%rcx, -8(%rbp)
	.loc	16 911 26 is_stmt 0
	movq	%rdi, -144(%rbp)
	movq	%rsi, -136(%rbp)
Ltmp247:
	.loc	6 1354 9 is_stmt 1
	movq	-144(%rbp), %rsi
	movq	-136(%rbp), %rdi
	movq	%rdi, 8(%rcx)
	movq	%rsi, (%rcx)
Ltmp248:
	.loc	16 914 2
	addq	$184, %rsp
	popq	%rbp
	retq
Ltmp249:
Lfunc_end43:
	.cfi_endproc

	.globl	__ZN4core3mem7replace17h23ea88e2806848f1E
	.p2align	4, 0x90
__ZN4core3mem7replace17h23ea88e2806848f1E:
Lfunc_begin44:
	.loc	16 905 0
	.cfi_startproc
	pushq	%rbp
	.cfi_def_cfa_offset 16
	.cfi_offset %rbp, -16
	movq	%rsp, %rbp
	.cfi_def_cfa_register %rbp
	movl	$8304, %eax
	callq	___rust_probestack
	subq	%rax, %rsp
	movq	%rdx, -8304(%rbp)
Ltmp250:
	movq	%rsi, -8296(%rbp)
	movq	%rdi, -8288(%rbp)
	movq	%rdi, -8280(%rbp)
	movq	%rsi, -48(%rbp)
Ltmp251:
	.loc	16 910 32 prologue_end
	movq	%rsi, -40(%rbp)
Ltmp252:
	.loc	6 1157 34
	leaq	-6216(%rbp), %rax
	movq	%rax, -32(%rbp)
	.loc	6 1157 9 is_stmt 0
	leaq	-6216(%rbp), %rdi
	movl	$2056, %edx
Ltmp253:
	callq	_memcpy
	.loc	6 1158 9 is_stmt 1
	leaq	-4160(%rbp), %rdi
	leaq	-6216(%rbp), %rsi
	movl	$2056, %edx
	callq	_memcpy
Ltmp254:
	.loc	22 627 38
	leaq	-2104(%rbp), %rdi
	leaq	-4160(%rbp), %rsi
	movl	$2056, %edx
	callq	_memcpy
	movq	-8288(%rbp), %rdi
Ltmp255:
	.loc	21 89 9
	leaq	-2104(%rbp), %rsi
	movl	$2056, %edx
	callq	_memcpy
	movq	-8304(%rbp), %rsi
	movq	-8296(%rbp), %rax
Ltmp256:
	.loc	16 911 20
	movq	%rax, -8(%rbp)
	.loc	16 911 26 is_stmt 0
	leaq	-8272(%rbp), %rdi
	movl	$2056, %edx
	callq	_memcpy
	movq	-8296(%rbp), %rdi
Ltmp257:
	.loc	6 1354 9 is_stmt 1
	leaq	-8272(%rbp), %rsi
	movl	$2056, %edx
	callq	_memcpy
	movq	-8280(%rbp), %rax
Ltmp258:
	.loc	16 914 2
	addq	$8304, %rsp
	popq	%rbp
	retq
Ltmp259:
Lfunc_end44:
	.cfi_endproc

	.globl	__ZN4core3mem7replace17h478dff0b855e3e50E
	.p2align	4, 0x90
__ZN4core3mem7replace17h478dff0b855e3e50E:
Lfunc_begin45:
	.loc	16 905 0
	.cfi_startproc
	pushq	%rbp
	.cfi_def_cfa_offset 16
	.cfi_offset %rbp, -16
	movq	%rsp, %rbp
	.cfi_def_cfa_register %rbp
	subq	$120, %rsp
	movq	%rdi, -120(%rbp)
	movq	%rsi, -112(%rbp)
	movq	%rdi, -80(%rbp)
	movq	%rsi, -72(%rbp)
Ltmp260:
	.loc	16 910 32 prologue_end
	movq	%rdi, -64(%rbp)
Ltmp261:
	.loc	6 1157 34
	leaq	-88(%rbp), %rax
	movq	%rax, -56(%rbp)
	.loc	6 1157 9 is_stmt 0
	movq	(%rdi), %rax
	movq	%rax, -88(%rbp)
	.loc	6 1158 9 is_stmt 1
	movq	-88(%rbp), %rax
	movq	%rax, -104(%rbp)
	movq	%rax, -48(%rbp)
	.loc	6 0 9 is_stmt 0
	movq	-104(%rbp), %rax
	movq	-120(%rbp), %rcx
	movq	-112(%rbp), %rdx
Ltmp262:
	.loc	22 627 38 is_stmt 1
	movq	%rax, -24(%rbp)
Ltmp263:
	.loc	21 89 9
	movq	%rax, -16(%rbp)
Ltmp264:
	.loc	16 911 20
	movq	%rcx, -8(%rbp)
	.loc	16 911 26 is_stmt 0
	movq	%rdx, -96(%rbp)
Ltmp265:
	.loc	6 1354 9 is_stmt 1
	movq	-96(%rbp), %rdx
	movq	%rdx, (%rcx)
Ltmp266:
	.loc	16 914 2
	addq	$120, %rsp
	popq	%rbp
	retq
Ltmp267:
Lfunc_end45:
	.cfi_endproc

	.globl	__ZN4core3mem7replace17h8459bb761c4c0440E
	.p2align	4, 0x90
__ZN4core3mem7replace17h8459bb761c4c0440E:
Lfunc_begin46:
	.loc	16 905 0
	.cfi_startproc
	pushq	%rbp
	.cfi_def_cfa_offset 16
	.cfi_offset %rbp, -16
	movq	%rsp, %rbp
	.cfi_def_cfa_register %rbp
	subq	$168, %rsp
	movq	%rdi, -168(%rbp)
	movq	%rsi, -144(%rbp)
	movq	%rdx, -136(%rbp)
	movq	%rdi, -96(%rbp)
Ltmp268:
	.loc	16 910 32 prologue_end
	movq	%rdi, -88(%rbp)
Ltmp269:
	.loc	6 1157 34
	leaq	-112(%rbp), %rax
	movq	%rax, -80(%rbp)
	.loc	6 1157 9 is_stmt 0
	movq	(%rdi), %rax
	movq	%rax, -112(%rbp)
	movq	8(%rdi), %rax
	movq	%rax, -104(%rbp)
	.loc	6 1158 9 is_stmt 1
	movq	-112(%rbp), %rcx
	movq	%rcx, -160(%rbp)
	movq	-104(%rbp), %rax
	movq	%rax, -152(%rbp)
	movq	%rcx, -72(%rbp)
	movq	%rax, -64(%rbp)
	.loc	6 0 9 is_stmt 0
	movq	-152(%rbp), %rdx
	movq	-160(%rbp), %rax
	movq	-168(%rbp), %rcx
Ltmp270:
	.loc	22 627 38 is_stmt 1
	movq	%rax, -40(%rbp)
	movq	%rdx, -32(%rbp)
Ltmp271:
	.loc	21 89 9
	movq	%rax, -24(%rbp)
	movq	%rdx, -16(%rbp)
Ltmp272:
	.loc	16 911 20
	movq	%rcx, -8(%rbp)
	.loc	16 911 26 is_stmt 0
	movq	-144(%rbp), %rdi
	movq	-136(%rbp), %rsi
	movq	%rdi, -128(%rbp)
	movq	%rsi, -120(%rbp)
Ltmp273:
	.loc	6 1354 9 is_stmt 1
	movq	-128(%rbp), %rsi
	movq	-120(%rbp), %rdi
	movq	%rdi, 8(%rcx)
	movq	%rsi, (%rcx)
Ltmp274:
	.loc	16 914 2
	addq	$168, %rsp
	popq	%rbp
	retq
Ltmp275:
Lfunc_end46:
	.cfi_endproc

	.globl	__ZN4core3mem7replace17h9fbcd7b232dfbe0eE
	.p2align	4, 0x90
__ZN4core3mem7replace17h9fbcd7b232dfbe0eE:
Lfunc_begin47:
	.loc	16 905 0
	.cfi_startproc
	pushq	%rbp
	.cfi_def_cfa_offset 16
	.cfi_offset %rbp, -16
	movq	%rsp, %rbp
	.cfi_def_cfa_register %rbp
	subq	$208, %rsp
	movq	%rdx, -208(%rbp)
Ltmp276:
	movq	%rsi, -200(%rbp)
	movq	%rdi, -192(%rbp)
	movq	%rdi, -184(%rbp)
	movq	%rsi, -48(%rbp)
Ltmp277:
	.loc	16 910 32 prologue_end
	movq	%rsi, -40(%rbp)
Ltmp278:
	.loc	6 1157 34
	leaq	-144(%rbp), %rax
	movq	%rax, -32(%rbp)
	.loc	6 1157 9 is_stmt 0
	movq	(%rsi), %rax
	movq	%rax, -144(%rbp)
	movq	8(%rsi), %rax
	movq	%rax, -136(%rbp)
	movq	16(%rsi), %rax
	movq	%rax, -128(%rbp)
	movq	24(%rsi), %rax
	movq	%rax, -120(%rbp)
	.loc	6 1158 9 is_stmt 1
	movq	-144(%rbp), %rax
	movq	%rax, -112(%rbp)
	movq	-136(%rbp), %rax
	movq	%rax, -104(%rbp)
	movq	-128(%rbp), %rax
	movq	%rax, -96(%rbp)
	movq	-120(%rbp), %rax
	movq	%rax, -88(%rbp)
Ltmp279:
	.loc	6 0 9 is_stmt 0
	movq	-184(%rbp), %rax
	movq	-200(%rbp), %rcx
	movq	-208(%rbp), %rdx
	movq	-192(%rbp), %rsi
Ltmp280:
	.loc	22 627 38 is_stmt 1
	movq	-112(%rbp), %rdi
	movq	%rdi, -80(%rbp)
	movq	-104(%rbp), %rdi
	movq	%rdi, -72(%rbp)
	movq	-96(%rbp), %rdi
	movq	%rdi, -64(%rbp)
	movq	-88(%rbp), %rdi
	movq	%rdi, -56(%rbp)
Ltmp281:
	.loc	21 89 9
	movq	-80(%rbp), %rdi
	movq	%rdi, (%rsi)
	movq	-72(%rbp), %rdi
	movq	%rdi, 8(%rsi)
	movq	-64(%rbp), %rdi
	movq	%rdi, 16(%rsi)
	movq	-56(%rbp), %rdi
	movq	%rdi, 24(%rsi)
Ltmp282:
	.loc	16 911 20
	movq	%rcx, -8(%rbp)
	.loc	16 911 26 is_stmt 0
	movq	(%rdx), %rsi
	movq	%rsi, -176(%rbp)
	movq	8(%rdx), %rsi
	movq	%rsi, -168(%rbp)
	movq	16(%rdx), %rsi
	movq	%rsi, -160(%rbp)
	movq	24(%rdx), %rdx
	movq	%rdx, -152(%rbp)
Ltmp283:
	.loc	6 1354 9 is_stmt 1
	movq	-176(%rbp), %rdx
	movq	%rdx, (%rcx)
	movq	-168(%rbp), %rdx
	movq	%rdx, 8(%rcx)
	movq	-160(%rbp), %rdx
	movq	%rdx, 16(%rcx)
	movq	-152(%rbp), %rdx
	movq	%rdx, 24(%rcx)
Ltmp284:
	.loc	16 914 2
	addq	$208, %rsp
	popq	%rbp
	retq
Ltmp285:
Lfunc_end47:
	.cfi_endproc

	.p2align	4, 0x90
__ZN4core3num23_$LT$impl$u20$usize$GT$11checked_add17h9db3663dd5a2113eE:
Lfunc_begin48:
	.file	28 "/rustc/2c8cc343237b8f7d5a3c3703e3a87f2eb2c54a74/library/core/src/num" "uint_macros.rs"
	.loc	28 442 0
	.cfi_startproc
	pushq	%rbp
	.cfi_def_cfa_offset 16
	.cfi_offset %rbp, -16
	movq	%rsp, %rbp
	.cfi_def_cfa_register %rbp
	subq	$120, %rsp
	movq	%rdi, -80(%rbp)
	movq	%rsi, -72(%rbp)
Ltmp286:
	.loc	28 443 26 prologue_end
	movq	%rdi, -64(%rbp)
	.loc	28 443 47 is_stmt 0
	movq	%rsi, -56(%rbp)
Ltmp287:
	.loc	28 1479 26 is_stmt 1
	addq	%rsi, %rdi
	setb	%al
	andb	$1, %al
	movq	%rdi, -48(%rbp)
	movb	%al, -40(%rbp)
	movq	-48(%rbp), %rcx
	movb	-40(%rbp), %al
	.loc	28 1479 18 is_stmt 0
	movq	%rcx, -32(%rbp)
	.loc	28 1479 21
	movb	%al, %dl
	andb	$1, %dl
	movb	%dl, -17(%rbp)
Ltmp288:
	.loc	28 1480 13 is_stmt 1
	movq	%rcx, -96(%rbp)
	andb	$1, %al
	movb	%al, -88(%rbp)
Ltmp289:
	.loc	28 443 18
	movq	-96(%rbp), %rax
	movq	%rax, -120(%rbp)
	movq	%rax, -16(%rbp)
	.loc	28 443 21 is_stmt 0
	movb	-88(%rbp), %al
	movb	%al, %cl
	andb	$1, %cl
	movb	%cl, -2(%rbp)
Ltmp290:
	.loc	28 444 16 is_stmt 1
	andb	$1, %al
	movb	%al, -1(%rbp)
	testb	$1, -1(%rbp)
	jne	LBB48_2
	.loc	28 0 16 is_stmt 0
	movq	-120(%rbp), %rax
	.loc	28 444 42
	movq	%rax, -104(%rbp)
	movq	$1, -112(%rbp)
	.loc	28 444 13
	jmp	LBB48_3
LBB48_2:
	.loc	28 444 30
	movq	$0, -112(%rbp)
Ltmp291:
LBB48_3:
	.loc	28 445 10 is_stmt 1
	movq	-112(%rbp), %rax
	movq	-104(%rbp), %rdx
	addq	$120, %rsp
	popq	%rbp
	retq
Ltmp292:
Lfunc_end48:
	.cfi_endproc

	.globl	__ZN4core3ops8function5impls68_$LT$impl$u20$core..ops..function..Fn$LT$A$GT$$u20$for$u20$$RF$F$GT$4call17h0e43955621f51aeeE
	.p2align	4, 0x90
__ZN4core3ops8function5impls68_$LT$impl$u20$core..ops..function..Fn$LT$A$GT$$u20$for$u20$$RF$F$GT$4call17h0e43955621f51aeeE:
Lfunc_begin49:
	.file	29 "/rustc/2c8cc343237b8f7d5a3c3703e3a87f2eb2c54a74/library/core/src/ops" "function.rs"
	.loc	29 262 0
	.cfi_startproc
	pushq	%rbp
	.cfi_def_cfa_offset 16
	.cfi_offset %rbp, -16
	movq	%rsp, %rbp
	.cfi_def_cfa_register %rbp
	subq	$16, %rsp
	movq	%rsi, -16(%rbp)
	movq	%rdi, -8(%rbp)
Ltmp293:
	.loc	29 263 13 prologue_end
	movq	(%rdi), %rdi
	.loc	29 263 27 is_stmt 0
	movq	-16(%rbp), %rsi
	.loc	29 263 13
	callq	__ZN15crossbeam_epoch8internal6Global7collect28_$u7b$$u7b$closure$u7d$$u7d$17h13a0ba8af0ea2443E
	.loc	29 264 10 is_stmt 1
	andb	$1, %al
	movzbl	%al, %eax
	addq	$16, %rsp
	popq	%rbp
	retq
Ltmp294:
Lfunc_end49:
	.cfi_endproc

	.globl	__ZN4core3ops8function5impls68_$LT$impl$u20$core..ops..function..Fn$LT$A$GT$$u20$for$u20$$RF$F$GT$4call17h793ef04c958bff2aE
	.p2align	4, 0x90
__ZN4core3ops8function5impls68_$LT$impl$u20$core..ops..function..Fn$LT$A$GT$$u20$for$u20$$RF$F$GT$4call17h793ef04c958bff2aE:
Lfunc_begin50:
	.loc	29 262 0
	.cfi_startproc
	pushq	%rbp
	.cfi_def_cfa_offset 16
	.cfi_offset %rbp, -16
	movq	%rsp, %rbp
	.cfi_def_cfa_register %rbp
	subq	$16, %rsp
	movq	%rsi, -16(%rbp)
	movq	%rdi, -8(%rbp)
Ltmp295:
	.loc	29 263 13 prologue_end
	movq	(%rdi), %rdi
	.loc	29 263 27 is_stmt 0
	movq	-16(%rbp), %rsi
	.loc	29 263 13
	callq	__ZN4core3ops8function5impls68_$LT$impl$u20$core..ops..function..Fn$LT$A$GT$$u20$for$u20$$RF$F$GT$4call17h0e43955621f51aeeE
	.loc	29 264 10 is_stmt 1
	andb	$1, %al
	movzbl	%al, %eax
	addq	$16, %rsp
	popq	%rbp
	retq
Ltmp296:
Lfunc_end50:
	.cfi_endproc

	.p2align	4, 0x90
__ZN4core3ops8function6FnOnce40call_once$u7b$$u7b$vtable.shim$u7d$$u7d$17h4ab7d190689b7bd8E:
Lfunc_begin51:
	.loc	29 250 0
	.cfi_startproc
	pushq	%rbp
	.cfi_def_cfa_offset 16
	.cfi_offset %rbp, -16
	movq	%rsp, %rbp
	.cfi_def_cfa_register %rbp
	subq	$16, %rsp
	movq	%rsi, -16(%rbp)
	movq	%rdi, -8(%rbp)
Ltmp297:
	.loc	29 250 5 prologue_end
	movq	(%rdi), %rdi
	movq	-16(%rbp), %rsi
	callq	__ZN4core3ops8function6FnOnce9call_once17hbdd71e211045fd27E
	addq	$16, %rsp
	popq	%rbp
	retq
Ltmp298:
Lfunc_end51:
	.cfi_endproc

	.p2align	4, 0x90
__ZN4core3ops8function6FnOnce9call_once17h25913de39094705fE:
Lfunc_begin52:
	.loc	29 250 0
	.cfi_startproc
	pushq	%rbp
	.cfi_def_cfa_offset 16
	.cfi_offset %rbp, -16
	movq	%rsp, %rbp
	.cfi_def_cfa_register %rbp
	subq	$16, %rsp
Ltmp299:
	.loc	29 250 5 prologue_end
	callq	__ZN15crossbeam_epoch9collector9Collector3new17hf00029b23f524053E
	addq	$16, %rsp
	popq	%rbp
	retq
Ltmp300:
Lfunc_end52:
	.cfi_endproc

	.p2align	4, 0x90
__ZN4core3ops8function6FnOnce9call_once17hbdd71e211045fd27E:
Lfunc_begin53:
	.loc	29 250 0
	.cfi_startproc
	.cfi_personality 155, _rust_eh_personality
	.cfi_lsda 16, Lexception7
	pushq	%rbp
	.cfi_def_cfa_offset 16
	.cfi_offset %rbp, -16
	movq	%rsp, %rbp
	.cfi_def_cfa_register %rbp
	subq	$32, %rsp
	movq	%rdi, -32(%rbp)
	movq	%rsi, -24(%rbp)
Ltmp304:
	.loc	29 250 5 prologue_end
	movq	-24(%rbp), %rsi
Ltmp301:
	leaq	-32(%rbp), %rdi
	callq	__ZN3std4sync4once4Once9call_once28_$u7b$$u7b$closure$u7d$$u7d$17h0e94f491393511eeE
Ltmp302:
	jmp	LBB53_3
LBB53_1:
	movq	-16(%rbp), %rdi
	callq	__Unwind_Resume
LBB53_2:
Ltmp303:
	.loc	29 0 5 is_stmt 0
	movq	%rax, %rcx
	movl	%edx, %eax
	movq	%rcx, -16(%rbp)
	movl	%eax, -8(%rbp)
	jmp	LBB53_1
LBB53_3:
	.loc	29 250 5
	addq	$32, %rsp
	popq	%rbp
	retq
Ltmp305:
Lfunc_end53:
	.cfi_endproc
	.section	__TEXT,__gcc_except_tab
	.p2align	2
GCC_except_table53:
Lexception7:
	.byte	255
	.byte	255
	.byte	1
	.uleb128 Lcst_end7-Lcst_begin7
Lcst_begin7:
	.uleb128 Ltmp301-Lfunc_begin53
	.uleb128 Ltmp302-Ltmp301
	.uleb128 Ltmp303-Lfunc_begin53
	.byte	0
	.uleb128 Ltmp302-Lfunc_begin53
	.uleb128 Lfunc_end53-Ltmp302
	.byte	0
	.byte	0
Lcst_end7:
	.p2align	2

	.section	__TEXT,__text,regular,pure_instructions
	.p2align	4, 0x90
__ZN4core3ops8function6FnOnce9call_once17he1947a3c13050e0dE:
Lfunc_begin54:
	.loc	29 250 0 is_stmt 1
	.cfi_startproc
	.cfi_personality 155, _rust_eh_personality
	.cfi_lsda 16, Lexception8
	pushq	%rbp
	.cfi_def_cfa_offset 16
	.cfi_offset %rbp, -16
	movq	%rsp, %rbp
	.cfi_def_cfa_register %rbp
	subq	$32, %rsp
	movq	%rdi, -32(%rbp)
Ltmp306:
	leaq	-32(%rbp), %rdi
Ltmp309:
	.loc	29 250 5 prologue_end
	callq	__ZN3std6thread5local4fast13destroy_value28_$u7b$$u7b$closure$u7d$$u7d$17h4315a111489f2c88E
Ltmp307:
	jmp	LBB54_3
LBB54_1:
	movq	-16(%rbp), %rdi
	callq	__Unwind_Resume
LBB54_2:
Ltmp308:
	.loc	29 0 5 is_stmt 0
	movq	%rax, %rcx
	movl	%edx, %eax
	movq	%rcx, -16(%rbp)
	movl	%eax, -8(%rbp)
	jmp	LBB54_1
LBB54_3:
	.loc	29 250 5
	addq	$32, %rsp
	popq	%rbp
	retq
Ltmp310:
Lfunc_end54:
	.cfi_endproc
	.section	__TEXT,__gcc_except_tab
	.p2align	2
GCC_except_table54:
Lexception8:
	.byte	255
	.byte	255
	.byte	1
	.uleb128 Lcst_end8-Lcst_begin8
Lcst_begin8:
	.uleb128 Ltmp306-Lfunc_begin54
	.uleb128 Ltmp307-Ltmp306
	.uleb128 Ltmp308-Lfunc_begin54
	.byte	0
	.uleb128 Ltmp307-Lfunc_begin54
	.uleb128 Lfunc_end54-Ltmp307
	.byte	0
	.byte	0
Lcst_end8:
	.p2align	2

	.section	__TEXT,__text,regular,pure_instructions
	.globl	__ZN4core3ptr100drop_in_place$LT$crossbeam_epoch..sync..queue..Queue$LT$crossbeam_epoch..internal..SealedBag$GT$$GT$17h27533f928d0d41ebE
	.p2align	4, 0x90
__ZN4core3ptr100drop_in_place$LT$crossbeam_epoch..sync..queue..Queue$LT$crossbeam_epoch..internal..SealedBag$GT$$GT$17h27533f928d0d41ebE:
Lfunc_begin55:
	.loc	6 490 0 is_stmt 1
	.cfi_startproc
	pushq	%rbp
	.cfi_def_cfa_offset 16
	.cfi_offset %rbp, -16
	movq	%rsp, %rbp
	.cfi_def_cfa_register %rbp
	subq	$16, %rsp
	movq	%rdi, -8(%rbp)
Ltmp311:
	.loc	6 490 1 prologue_end
	callq	__ZN86_$LT$crossbeam_epoch..sync..queue..Queue$LT$T$GT$$u20$as$u20$core..ops..drop..Drop$GT$4drop17hb5933503345cc76eE
	addq	$16, %rsp
	popq	%rbp
	retq
Ltmp312:
Lfunc_end55:
	.cfi_endproc

	.globl	__ZN4core3ptr103drop_in_place$LT$crossbeam_epoch..primitive..cell..UnsafeCell$LT$crossbeam_epoch..internal..Bag$GT$$GT$17hfae367ace44099f4E
	.p2align	4, 0x90
__ZN4core3ptr103drop_in_place$LT$crossbeam_epoch..primitive..cell..UnsafeCell$LT$crossbeam_epoch..internal..Bag$GT$$GT$17hfae367ace44099f4E:
Lfunc_begin56:
	.loc	6 490 0
	.cfi_startproc
	pushq	%rbp
	.cfi_def_cfa_offset 16
	.cfi_offset %rbp, -16
	movq	%rsp, %rbp
	.cfi_def_cfa_register %rbp
	subq	$16, %rsp
	movq	%rdi, -8(%rbp)
Ltmp313:
	.loc	6 490 1 prologue_end
	callq	__ZN4core3ptr81drop_in_place$LT$core..cell..UnsafeCell$LT$crossbeam_epoch..internal..Bag$GT$$GT$17hc4369db3c9218db1E
	addq	$16, %rsp
	popq	%rbp
	retq
Ltmp314:
Lfunc_end56:
	.cfi_endproc

	.globl	__ZN4core3ptr106drop_in_place$LT$std..thread..local..lazy..LazyKeyInner$LT$crossbeam_epoch..collector..LocalHandle$GT$$GT$17h54c4a87f16bcbb36E
	.p2align	4, 0x90
__ZN4core3ptr106drop_in_place$LT$std..thread..local..lazy..LazyKeyInner$LT$crossbeam_epoch..collector..LocalHandle$GT$$GT$17h54c4a87f16bcbb36E:
Lfunc_begin57:
	.loc	6 490 0
	.cfi_startproc
	pushq	%rbp
	.cfi_def_cfa_offset 16
	.cfi_offset %rbp, -16
	movq	%rsp, %rbp
	.cfi_def_cfa_register %rbp
	subq	$16, %rsp
	movq	%rdi, -8(%rbp)
Ltmp315:
	.loc	6 490 1 prologue_end
	callq	__ZN4core3ptr118drop_in_place$LT$core..cell..UnsafeCell$LT$core..option..Option$LT$crossbeam_epoch..collector..LocalHandle$GT$$GT$$GT$17he14e7a16b9a54374E
	addq	$16, %rsp
	popq	%rbp
	retq
Ltmp316:
Lfunc_end57:
	.cfi_endproc

	.globl	__ZN4core3ptr108drop_in_place$LT$crossbeam_epoch..sync..once_lock..OnceLock$LT$crossbeam_epoch..collector..Collector$GT$$GT$17hb5d1bb47a9e3b197E
	.p2align	4, 0x90
__ZN4core3ptr108drop_in_place$LT$crossbeam_epoch..sync..once_lock..OnceLock$LT$crossbeam_epoch..collector..Collector$GT$$GT$17hb5d1bb47a9e3b197E:
Lfunc_begin58:
	.loc	6 490 0
	.cfi_startproc
	pushq	%rbp
	.cfi_def_cfa_offset 16
	.cfi_offset %rbp, -16
	movq	%rsp, %rbp
	.cfi_def_cfa_register %rbp
	subq	$16, %rsp
	movq	%rdi, -8(%rbp)
Ltmp317:
	.loc	6 490 1 prologue_end
	callq	__ZN93_$LT$crossbeam_epoch..sync..once_lock..OnceLock$LT$T$GT$$u20$as$u20$core..ops..drop..Drop$GT$4drop17hf84176ded2e68c59E
	addq	$16, %rsp
	popq	%rbp
	retq
Ltmp318:
Lfunc_end58:
	.cfi_endproc

	.globl	__ZN4core3ptr118drop_in_place$LT$core..cell..UnsafeCell$LT$core..option..Option$LT$crossbeam_epoch..collector..LocalHandle$GT$$GT$$GT$17he14e7a16b9a54374E
	.p2align	4, 0x90
__ZN4core3ptr118drop_in_place$LT$core..cell..UnsafeCell$LT$core..option..Option$LT$crossbeam_epoch..collector..LocalHandle$GT$$GT$$GT$17he14e7a16b9a54374E:
Lfunc_begin59:
	.loc	6 490 0
	.cfi_startproc
	pushq	%rbp
	.cfi_def_cfa_offset 16
	.cfi_offset %rbp, -16
	movq	%rsp, %rbp
	.cfi_def_cfa_register %rbp
	subq	$16, %rsp
	movq	%rdi, -8(%rbp)
Ltmp319:
	.loc	6 490 1 prologue_end
	callq	__ZN4core3ptr88drop_in_place$LT$core..option..Option$LT$crossbeam_epoch..collector..LocalHandle$GT$$GT$17hf2228cbb33cd7739E
	addq	$16, %rsp
	popq	%rbp
	retq
Ltmp320:
Lfunc_end59:
	.cfi_endproc

	.globl	__ZN4core3ptr124drop_in_place$LT$alloc..boxed..Box$LT$crossbeam_epoch..sync..queue..Node$LT$crossbeam_epoch..internal..SealedBag$GT$$GT$$GT$17haad04f5bdbfdf8abE
	.p2align	4, 0x90
__ZN4core3ptr124drop_in_place$LT$alloc..boxed..Box$LT$crossbeam_epoch..sync..queue..Node$LT$crossbeam_epoch..internal..SealedBag$GT$$GT$$GT$17haad04f5bdbfdf8abE:
Lfunc_begin60:
	.loc	6 490 0
	.cfi_startproc
	pushq	%rbp
	.cfi_def_cfa_offset 16
	.cfi_offset %rbp, -16
	movq	%rsp, %rbp
	.cfi_def_cfa_register %rbp
	subq	$32, %rsp
	movq	%rdi, -32(%rbp)
	movq	%rdi, -24(%rbp)
	movq	-32(%rbp), %rax
Ltmp321:
	.loc	6 490 1 prologue_end
	movq	(%rax), %rdi
	callq	__ZN5alloc5alloc8box_free17h11be2274ec7b62dbE
	addq	$32, %rsp
	popq	%rbp
	retq
Ltmp322:
Lfunc_end60:
	.cfi_endproc

	.globl	__ZN4core3ptr124drop_in_place$LT$core..result..Result$LT$core..option..Option$LT$crossbeam_epoch..internal..SealedBag$GT$$C$$LP$$RP$$GT$$GT$17h37f9c1372d729587E
	.p2align	4, 0x90
__ZN4core3ptr124drop_in_place$LT$core..result..Result$LT$core..option..Option$LT$crossbeam_epoch..internal..SealedBag$GT$$C$$LP$$RP$$GT$$GT$17h37f9c1372d729587E:
Lfunc_begin61:
	.loc	6 490 0
	.cfi_startproc
	pushq	%rbp
	.cfi_def_cfa_offset 16
	.cfi_offset %rbp, -16
	movq	%rsp, %rbp
	.cfi_def_cfa_register %rbp
	subq	$16, %rsp
	movq	%rdi, -16(%rbp)
	movq	%rdi, -8(%rbp)
Ltmp323:
	.loc	6 490 1 prologue_end
	cmpq	$0, (%rdi)
	jne	LBB61_2
	.loc	6 0 1 is_stmt 0
	movq	-16(%rbp), %rdi
	.loc	6 490 1
	addq	$8, %rdi
	callq	__ZN4core3ptr85drop_in_place$LT$core..option..Option$LT$crossbeam_epoch..internal..SealedBag$GT$$GT$17h30e37c23f82e4229E
LBB61_2:
	addq	$16, %rsp
	popq	%rbp
	retq
Ltmp324:
Lfunc_end61:
	.cfi_endproc

	.globl	__ZN4core3ptr137drop_in_place$LT$crossbeam_epoch..atomic..Owned$LT$crossbeam_epoch..sync..queue..Node$LT$crossbeam_epoch..internal..SealedBag$GT$$GT$$GT$17hfbe59f9a7b09feacE
	.p2align	4, 0x90
__ZN4core3ptr137drop_in_place$LT$crossbeam_epoch..atomic..Owned$LT$crossbeam_epoch..sync..queue..Node$LT$crossbeam_epoch..internal..SealedBag$GT$$GT$$GT$17hfbe59f9a7b09feacE:
Lfunc_begin62:
	.loc	6 490 0 is_stmt 1
	.cfi_startproc
	pushq	%rbp
	.cfi_def_cfa_offset 16
	.cfi_offset %rbp, -16
	movq	%rsp, %rbp
	.cfi_def_cfa_register %rbp
	subq	$16, %rsp
	movq	%rdi, -8(%rbp)
Ltmp325:
	.loc	6 490 1 prologue_end
	callq	__ZN81_$LT$crossbeam_epoch..atomic..Owned$LT$T$GT$$u20$as$u20$core..ops..drop..Drop$GT$4drop17hf053bd26006be0b9E
	addq	$16, %rsp
	popq	%rbp
	retq
Ltmp326:
Lfunc_end62:
	.cfi_endproc

	.p2align	4, 0x90
__ZN4core3ptr268drop_in_place$LT$std..sync..once..Once..call_once$LT$crossbeam_epoch..sync..once_lock..OnceLock$LT$crossbeam_epoch..collector..Collector$GT$..initialize$LT$crossbeam_epoch..collector..Collector..new$GT$..$u7b$$u7b$closure$u7d$$u7d$$GT$..$u7b$$u7b$closure$u7d$$u7d$$GT$17h9de275fcde5f2195E:
Lfunc_begin63:
	.loc	6 490 0
	.cfi_startproc
	pushq	%rbp
	.cfi_def_cfa_offset 16
	.cfi_offset %rbp, -16
	movq	%rsp, %rbp
	.cfi_def_cfa_register %rbp
	pushq	%rax
	movq	%rdi, -8(%rbp)
Ltmp327:
	.loc	6 490 1 prologue_end
	addq	$8, %rsp
	popq	%rbp
	retq
Ltmp328:
Lfunc_end63:
	.cfi_endproc

	.p2align	4, 0x90
__ZN4core3ptr26drop_in_place$LT$usize$GT$17h3484f103ab801912E:
Lfunc_begin64:
	.loc	6 490 0
	.cfi_startproc
	pushq	%rbp
	.cfi_def_cfa_offset 16
	.cfi_offset %rbp, -16
	movq	%rsp, %rbp
	.cfi_def_cfa_register %rbp
	pushq	%rax
	movq	%rdi, -8(%rbp)
Ltmp329:
	.loc	6 490 1 prologue_end
	addq	$8, %rsp
	popq	%rbp
	retq
Ltmp330:
Lfunc_end64:
	.cfi_endproc

	.p2align	4, 0x90
__ZN4core3ptr30drop_in_place$LT$$RF$usize$GT$17h01cab22b5a33291aE:
Lfunc_begin65:
	.loc	6 490 0
	.cfi_startproc
	pushq	%rbp
	.cfi_def_cfa_offset 16
	.cfi_offset %rbp, -16
	movq	%rsp, %rbp
	.cfi_def_cfa_register %rbp
	pushq	%rax
	movq	%rdi, -8(%rbp)
Ltmp331:
	.loc	6 490 1 prologue_end
	addq	$8, %rsp
	popq	%rbp
	retq
Ltmp332:
Lfunc_end65:
	.cfi_endproc

	.globl	__ZN4core3ptr315drop_in_place$LT$alloc..boxed..Box$LT$crossbeam_epoch..guard..Guard..defer_unchecked$LT$crossbeam_epoch..guard..Guard..defer_destroy$LT$crossbeam_epoch..internal..Local$GT$..$u7b$$u7b$closure$u7d$$u7d$$C$crossbeam_epoch..atomic..Owned$LT$crossbeam_epoch..internal..Local$GT$$GT$..$u7b$$u7b$closure$u7d$$u7d$$GT$$GT$17h2e5820ec25926f45E
	.p2align	4, 0x90
__ZN4core3ptr315drop_in_place$LT$alloc..boxed..Box$LT$crossbeam_epoch..guard..Guard..defer_unchecked$LT$crossbeam_epoch..guard..Guard..defer_destroy$LT$crossbeam_epoch..internal..Local$GT$..$u7b$$u7b$closure$u7d$$u7d$$C$crossbeam_epoch..atomic..Owned$LT$crossbeam_epoch..internal..Local$GT$$GT$..$u7b$$u7b$closure$u7d$$u7d$$GT$$GT$17h2e5820ec25926f45E:
Lfunc_begin66:
	.loc	6 490 0
	.cfi_startproc
	pushq	%rbp
	.cfi_def_cfa_offset 16
	.cfi_offset %rbp, -16
	movq	%rsp, %rbp
	.cfi_def_cfa_register %rbp
	subq	$32, %rsp
	movq	%rdi, -32(%rbp)
	movq	%rdi, -24(%rbp)
	movq	-32(%rbp), %rax
Ltmp333:
	.loc	6 490 1 prologue_end
	movq	(%rax), %rdi
	callq	__ZN5alloc5alloc8box_free17h365ebca7b10c25f1E
	addq	$32, %rsp
	popq	%rbp
	retq
Ltmp334:
Lfunc_end66:
	.cfi_endproc

	.globl	__ZN4core3ptr407drop_in_place$LT$alloc..boxed..Box$LT$crossbeam_epoch..guard..Guard..defer_unchecked$LT$crossbeam_epoch..guard..Guard..defer_destroy$LT$crossbeam_epoch..sync..queue..Node$LT$crossbeam_epoch..internal..SealedBag$GT$$GT$..$u7b$$u7b$closure$u7d$$u7d$$C$crossbeam_epoch..atomic..Owned$LT$crossbeam_epoch..sync..queue..Node$LT$crossbeam_epoch..internal..SealedBag$GT$$GT$$GT$..$u7b$$u7b$closure$u7d$$u7d$$GT$$GT$17h8d4fe566b9a16744E
	.p2align	4, 0x90
__ZN4core3ptr407drop_in_place$LT$alloc..boxed..Box$LT$crossbeam_epoch..guard..Guard..defer_unchecked$LT$crossbeam_epoch..guard..Guard..defer_destroy$LT$crossbeam_epoch..sync..queue..Node$LT$crossbeam_epoch..internal..SealedBag$GT$$GT$..$u7b$$u7b$closure$u7d$$u7d$$C$crossbeam_epoch..atomic..Owned$LT$crossbeam_epoch..sync..queue..Node$LT$crossbeam_epoch..internal..SealedBag$GT$$GT$$GT$..$u7b$$u7b$closure$u7d$$u7d$$GT$$GT$17h8d4fe566b9a16744E:
Lfunc_begin67:
	.loc	6 490 0
	.cfi_startproc
	pushq	%rbp
	.cfi_def_cfa_offset 16
	.cfi_offset %rbp, -16
	movq	%rsp, %rbp
	.cfi_def_cfa_register %rbp
	subq	$32, %rsp
	movq	%rdi, -32(%rbp)
	movq	%rdi, -24(%rbp)
	movq	-32(%rbp), %rax
Ltmp335:
	.loc	6 490 1 prologue_end
	movq	(%rax), %rdi
	callq	__ZN5alloc5alloc8box_free17h9256aed6f9666ed0E
	addq	$32, %rsp
	popq	%rbp
	retq
Ltmp336:
Lfunc_end67:
	.cfi_endproc

	.globl	__ZN4core3ptr4read17h54fa1858a76c80c8E
	.p2align	4, 0x90
__ZN4core3ptr4read17h54fa1858a76c80c8E:
Lfunc_begin68:
	.loc	6 1137 0
	.cfi_startproc
	pushq	%rbp
	.cfi_def_cfa_offset 16
	.cfi_offset %rbp, -16
	movq	%rsp, %rbp
	.cfi_def_cfa_register %rbp
	subq	$40, %rsp
	movq	%rdi, -32(%rbp)
Ltmp337:
	.loc	6 1157 34 prologue_end
	leaq	-40(%rbp), %rax
	movq	%rax, -24(%rbp)
	.loc	6 1157 9 is_stmt 0
	movq	(%rdi), %rax
	movq	%rax, -40(%rbp)
	.loc	6 1158 9 is_stmt 1
	movq	-40(%rbp), %rax
	movq	%rax, -16(%rbp)
Ltmp338:
	.loc	22 627 38
	movq	%rax, -8(%rbp)
Ltmp339:
	.loc	6 1160 2
	addq	$40, %rsp
	popq	%rbp
	retq
Ltmp340:
Lfunc_end68:
	.cfi_endproc

	.globl	__ZN4core3ptr4read17h7c391627af9d4eafE
	.p2align	4, 0x90
__ZN4core3ptr4read17h7c391627af9d4eafE:
Lfunc_begin69:
	.loc	6 1137 0
	.cfi_startproc
	pushq	%rbp
	.cfi_def_cfa_offset 16
	.cfi_offset %rbp, -16
	movq	%rsp, %rbp
	.cfi_def_cfa_register %rbp
	subq	$40, %rsp
	movq	%rdi, -32(%rbp)
Ltmp341:
	.loc	6 1157 34 prologue_end
	leaq	-40(%rbp), %rax
	movq	%rax, -24(%rbp)
	.loc	6 1157 9 is_stmt 0
	movq	(%rdi), %rax
	movq	%rax, -40(%rbp)
	.loc	6 1158 9 is_stmt 1
	movq	-40(%rbp), %rax
	movq	%rax, -16(%rbp)
Ltmp342:
	.loc	22 627 38
	movq	%rax, -8(%rbp)
Ltmp343:
	.loc	6 1160 2
	addq	$40, %rsp
	popq	%rbp
	retq
Ltmp344:
Lfunc_end69:
	.cfi_endproc

	.globl	__ZN4core3ptr4read17h8345c1a9255d27efE
	.p2align	4, 0x90
__ZN4core3ptr4read17h8345c1a9255d27efE:
Lfunc_begin70:
	.loc	6 1137 0
	.cfi_startproc
	pushq	%rbp
	.cfi_def_cfa_offset 16
	.cfi_offset %rbp, -16
	movq	%rsp, %rbp
	.cfi_def_cfa_register %rbp
	subq	$40, %rsp
	movq	%rdi, -32(%rbp)
Ltmp345:
	.loc	6 1157 34 prologue_end
	leaq	-40(%rbp), %rax
	movq	%rax, -24(%rbp)
	.loc	6 1157 9 is_stmt 0
	movq	(%rdi), %rax
	movq	%rax, -40(%rbp)
	.loc	6 1158 9 is_stmt 1
	movq	-40(%rbp), %rax
	movq	%rax, -16(%rbp)
Ltmp346:
	.loc	22 627 38
	movq	%rax, -8(%rbp)
Ltmp347:
	.loc	6 1160 2
	addq	$40, %rsp
	popq	%rbp
	retq
Ltmp348:
Lfunc_end70:
	.cfi_endproc

	.globl	__ZN4core3ptr4read17hd7cbf980939a6802E
	.p2align	4, 0x90
__ZN4core3ptr4read17hd7cbf980939a6802E:
Lfunc_begin71:
	.loc	6 1137 0
	.cfi_startproc
	pushq	%rbp
	.cfi_def_cfa_offset 16
	.cfi_offset %rbp, -16
	movq	%rsp, %rbp
	.cfi_def_cfa_register %rbp
	subq	$40, %rsp
	movq	%rdi, -32(%rbp)
Ltmp349:
	.loc	6 1157 34 prologue_end
	leaq	-40(%rbp), %rax
	movq	%rax, -24(%rbp)
	.loc	6 1157 9 is_stmt 0
	movq	(%rdi), %rax
	movq	%rax, -40(%rbp)
	.loc	6 1158 9 is_stmt 1
	movq	-40(%rbp), %rax
	movq	%rax, -16(%rbp)
Ltmp350:
	.loc	22 627 38
	movq	%rax, -8(%rbp)
Ltmp351:
	.loc	6 1160 2
	addq	$40, %rsp
	popq	%rbp
	retq
Ltmp352:
Lfunc_end71:
	.cfi_endproc

	.globl	__ZN4core3ptr4read17hdb5489b699884b9cE
	.p2align	4, 0x90
__ZN4core3ptr4read17hdb5489b699884b9cE:
Lfunc_begin72:
	.loc	6 1137 0
	.cfi_startproc
	pushq	%rbp
	.cfi_def_cfa_offset 16
	.cfi_offset %rbp, -16
	movq	%rsp, %rbp
	.cfi_def_cfa_register %rbp
	subq	$40, %rsp
	movq	%rdi, -32(%rbp)
Ltmp353:
	.loc	6 1157 34 prologue_end
	leaq	-40(%rbp), %rax
	movq	%rax, -24(%rbp)
	.loc	6 1157 9 is_stmt 0
	movq	(%rdi), %rax
	movq	%rax, -40(%rbp)
	.loc	6 1158 9 is_stmt 1
	movq	-40(%rbp), %rax
	movq	%rax, -16(%rbp)
Ltmp354:
	.loc	22 627 38
	movq	%rax, -8(%rbp)
Ltmp355:
	.loc	6 1160 2
	addq	$40, %rsp
	popq	%rbp
	retq
Ltmp356:
Lfunc_end72:
	.cfi_endproc

	.globl	__ZN4core3ptr50drop_in_place$LT$crossbeam_epoch..guard..Guard$GT$17h06093b0faa53e9b9E
	.p2align	4, 0x90
__ZN4core3ptr50drop_in_place$LT$crossbeam_epoch..guard..Guard$GT$17h06093b0faa53e9b9E:
Lfunc_begin73:
	.loc	6 490 0
	.cfi_startproc
	pushq	%rbp
	.cfi_def_cfa_offset 16
	.cfi_offset %rbp, -16
	movq	%rsp, %rbp
	.cfi_def_cfa_register %rbp
	subq	$16, %rsp
	movq	%rdi, -8(%rbp)
Ltmp357:
	.loc	6 490 1 prologue_end
	callq	__ZN71_$LT$crossbeam_epoch..guard..Guard$u20$as$u20$core..ops..drop..Drop$GT$4drop17h3ce624313accaae6E
	addq	$16, %rsp
	popq	%rbp
	retq
Ltmp358:
Lfunc_end73:
	.cfi_endproc

	.globl	__ZN4core3ptr51drop_in_place$LT$crossbeam_epoch..internal..Bag$GT$17h117c23302d23291dE
	.p2align	4, 0x90
__ZN4core3ptr51drop_in_place$LT$crossbeam_epoch..internal..Bag$GT$17h117c23302d23291dE:
Lfunc_begin74:
	.loc	6 490 0
	.cfi_startproc
	pushq	%rbp
	.cfi_def_cfa_offset 16
	.cfi_offset %rbp, -16
	movq	%rsp, %rbp
	.cfi_def_cfa_register %rbp
	subq	$16, %rsp
	movq	%rdi, -8(%rbp)
Ltmp359:
	.loc	6 490 1 prologue_end
	callq	__ZN72_$LT$crossbeam_epoch..internal..Bag$u20$as$u20$core..ops..drop..Drop$GT$4drop17h40d6f072ef0768b9E
	addq	$16, %rsp
	popq	%rbp
	retq
Ltmp360:
Lfunc_end74:
	.cfi_endproc

	.globl	__ZN4core3ptr53drop_in_place$LT$crossbeam_epoch..internal..Local$GT$17heae59d8ae6011bbaE
	.p2align	4, 0x90
__ZN4core3ptr53drop_in_place$LT$crossbeam_epoch..internal..Local$GT$17heae59d8ae6011bbaE:
Lfunc_begin75:
	.loc	6 490 0
	.cfi_startproc
	pushq	%rbp
	.cfi_def_cfa_offset 16
	.cfi_offset %rbp, -16
	movq	%rsp, %rbp
	.cfi_def_cfa_register %rbp
	subq	$16, %rsp
	movq	%rdi, -8(%rbp)
Ltmp361:
	.loc	6 490 1 prologue_end
	addq	$24, %rdi
	callq	__ZN4core3ptr103drop_in_place$LT$crossbeam_epoch..primitive..cell..UnsafeCell$LT$crossbeam_epoch..internal..Bag$GT$$GT$17hfae367ace44099f4E
	addq	$16, %rsp
	popq	%rbp
	retq
Ltmp362:
Lfunc_end75:
	.cfi_endproc

	.p2align	4, 0x90
__ZN4core3ptr54drop_in_place$LT$$RF$crossbeam_epoch..epoch..Epoch$GT$17h89c083df27e92bb3E:
Lfunc_begin76:
	.loc	6 490 0
	.cfi_startproc
	pushq	%rbp
	.cfi_def_cfa_offset 16
	.cfi_offset %rbp, -16
	movq	%rsp, %rbp
	.cfi_def_cfa_register %rbp
	pushq	%rax
	movq	%rdi, -8(%rbp)
Ltmp363:
	.loc	6 490 1 prologue_end
	addq	$8, %rsp
	popq	%rbp
	retq
Ltmp364:
Lfunc_end76:
	.cfi_endproc

	.globl	__ZN4core3ptr54drop_in_place$LT$crossbeam_epoch..internal..Global$GT$17hc0f18705f951116eE
	.p2align	4, 0x90
__ZN4core3ptr54drop_in_place$LT$crossbeam_epoch..internal..Global$GT$17hc0f18705f951116eE:
Lfunc_begin77:
	.loc	6 490 0
	.cfi_startproc
	.cfi_personality 155, _rust_eh_personality
	.cfi_lsda 16, Lexception9
	pushq	%rbp
	.cfi_def_cfa_offset 16
	.cfi_offset %rbp, -16
	movq	%rsp, %rbp
	.cfi_def_cfa_register %rbp
	subq	$32, %rsp
	movq	%rdi, -32(%rbp)
	movq	%rdi, -24(%rbp)
Ltmp371:
	.loc	6 490 1 prologue_end
	addq	$384, %rdi
Ltmp365:
	callq	__ZN4core3ptr94drop_in_place$LT$crossbeam_epoch..sync..list..List$LT$crossbeam_epoch..internal..Local$GT$$GT$17h93186c766a88d8d3E
Ltmp366:
	jmp	LBB77_3
LBB77_1:
Ltmp368:
	.loc	6 0 1 is_stmt 0
	movq	-32(%rbp), %rdi
	.loc	6 490 1
	callq	__ZN4core3ptr100drop_in_place$LT$crossbeam_epoch..sync..queue..Queue$LT$crossbeam_epoch..internal..SealedBag$GT$$GT$17h27533f928d0d41ebE
Ltmp369:
	jmp	LBB77_5
LBB77_2:
Ltmp367:
	.loc	6 0 1
	movq	%rax, %rcx
	movl	%edx, %eax
	movq	%rcx, -16(%rbp)
	movl	%eax, -8(%rbp)
	jmp	LBB77_1
LBB77_3:
	movq	-32(%rbp), %rdi
	.loc	6 490 1
	callq	__ZN4core3ptr100drop_in_place$LT$crossbeam_epoch..sync..queue..Queue$LT$crossbeam_epoch..internal..SealedBag$GT$$GT$17h27533f928d0d41ebE
	addq	$32, %rsp
	popq	%rbp
	retq
LBB77_4:
Ltmp370:
	callq	__ZN4core9panicking19panic_cannot_unwind17h1fbca7e1d7f56ae1E
LBB77_5:
	movq	-16(%rbp), %rdi
	callq	__Unwind_Resume
Ltmp372:
Lfunc_end77:
	.cfi_endproc
	.section	__TEXT,__gcc_except_tab
	.p2align	2
GCC_except_table77:
Lexception9:
	.byte	255
	.byte	255
	.byte	1
	.uleb128 Lcst_end9-Lcst_begin9
Lcst_begin9:
	.uleb128 Ltmp365-Lfunc_begin77
	.uleb128 Ltmp366-Ltmp365
	.uleb128 Ltmp367-Lfunc_begin77
	.byte	0
	.uleb128 Ltmp368-Lfunc_begin77
	.uleb128 Ltmp369-Ltmp368
	.uleb128 Ltmp370-Lfunc_begin77
	.byte	0
	.uleb128 Ltmp369-Lfunc_begin77
	.uleb128 Lfunc_end77-Ltmp369
	.byte	0
	.byte	0
Lcst_end9:
	.p2align	2

	.section	__TEXT,__text,regular,pure_instructions
	.p2align	4, 0x90
__ZN4core3ptr55drop_in_place$LT$$RF$crossbeam_epoch..internal..Bag$GT$17h61527f0f3edfdc34E:
Lfunc_begin78:
	.loc	6 490 0 is_stmt 1
	.cfi_startproc
	pushq	%rbp
	.cfi_def_cfa_offset 16
	.cfi_offset %rbp, -16
	movq	%rsp, %rbp
	.cfi_def_cfa_register %rbp
	pushq	%rax
	movq	%rdi, -8(%rbp)
Ltmp373:
	.loc	6 490 1 prologue_end
	addq	$8, %rsp
	popq	%rbp
	retq
Ltmp374:
Lfunc_end78:
	.cfi_endproc

	.p2align	4, 0x90
__ZN4core3ptr56drop_in_place$LT$$RF$core..sync..atomic..AtomicUsize$GT$17h59059ed8652cf75fE:
Lfunc_begin79:
	.loc	6 490 0
	.cfi_startproc
	pushq	%rbp
	.cfi_def_cfa_offset 16
	.cfi_offset %rbp, -16
	movq	%rsp, %rbp
	.cfi_def_cfa_register %rbp
	pushq	%rax
	movq	%rdi, -8(%rbp)
Ltmp375:
	.loc	6 490 1 prologue_end
	addq	$8, %rsp
	popq	%rbp
	retq
Ltmp376:
Lfunc_end79:
	.cfi_endproc

	.globl	__ZN4core3ptr57drop_in_place$LT$crossbeam_epoch..internal..SealedBag$GT$17h9a54cffe6af1fa50E
	.p2align	4, 0x90
__ZN4core3ptr57drop_in_place$LT$crossbeam_epoch..internal..SealedBag$GT$17h9a54cffe6af1fa50E:
Lfunc_begin80:
	.loc	6 490 0
	.cfi_startproc
	pushq	%rbp
	.cfi_def_cfa_offset 16
	.cfi_offset %rbp, -16
	movq	%rsp, %rbp
	.cfi_def_cfa_register %rbp
	subq	$16, %rsp
	movq	%rdi, -8(%rbp)
Ltmp377:
	.loc	6 490 1 prologue_end
	addq	$8, %rdi
	callq	__ZN4core3ptr51drop_in_place$LT$crossbeam_epoch..internal..Bag$GT$17h117c23302d23291dE
	addq	$16, %rsp
	popq	%rbp
	retq
Ltmp378:
Lfunc_end80:
	.cfi_endproc

	.globl	__ZN4core3ptr58drop_in_place$LT$crossbeam_epoch..collector..Collector$GT$17h3cec182943e87757E
	.p2align	4, 0x90
__ZN4core3ptr58drop_in_place$LT$crossbeam_epoch..collector..Collector$GT$17h3cec182943e87757E:
Lfunc_begin81:
	.loc	6 490 0
	.cfi_startproc
	pushq	%rbp
	.cfi_def_cfa_offset 16
	.cfi_offset %rbp, -16
	movq	%rsp, %rbp
	.cfi_def_cfa_register %rbp
	subq	$16, %rsp
	movq	%rdi, -8(%rbp)
Ltmp379:
	.loc	6 490 1 prologue_end
	callq	__ZN4core3ptr78drop_in_place$LT$alloc..sync..Arc$LT$crossbeam_epoch..internal..Global$GT$$GT$17h5ce6bee9b2b17d5bE
	addq	$16, %rsp
	popq	%rbp
	retq
Ltmp380:
Lfunc_end81:
	.cfi_endproc

	.globl	__ZN4core3ptr5write17h01b13033ccb96b52E
	.p2align	4, 0x90
__ZN4core3ptr5write17h01b13033ccb96b52E:
Lfunc_begin82:
	.loc	6 1338 0
	.cfi_startproc
	pushq	%rbp
	.cfi_def_cfa_offset 16
	.cfi_offset %rbp, -16
	movq	%rsp, %rbp
	.cfi_def_cfa_register %rbp
	subq	$16, %rsp
	movq	%rsi, -16(%rbp)
	movq	%rdi, -8(%rbp)
Ltmp381:
	.loc	6 1354 9 prologue_end
	movq	-16(%rbp), %rax
	movq	%rax, (%rdi)
	.loc	6 1357 2
	addq	$16, %rsp
	popq	%rbp
	retq
Ltmp382:
Lfunc_end82:
	.cfi_endproc

	.globl	__ZN4core3ptr5write17h267ce405b0171793E
	.p2align	4, 0x90
__ZN4core3ptr5write17h267ce405b0171793E:
Lfunc_begin83:
	.loc	6 1338 0
	.cfi_startproc
	pushq	%rbp
	.cfi_def_cfa_offset 16
	.cfi_offset %rbp, -16
	movq	%rsp, %rbp
	.cfi_def_cfa_register %rbp
	subq	$16, %rsp
	movq	%rsi, -16(%rbp)
	movq	%rdi, -8(%rbp)
Ltmp383:
	.loc	6 1354 9 prologue_end
	movq	-16(%rbp), %rax
	movq	%rax, (%rdi)
	.loc	6 1357 2
	addq	$16, %rsp
	popq	%rbp
	retq
Ltmp384:
Lfunc_end83:
	.cfi_endproc

	.globl	__ZN4core3ptr5write17hbd9700181239ff60E
	.p2align	4, 0x90
__ZN4core3ptr5write17hbd9700181239ff60E:
Lfunc_begin84:
	.loc	6 1338 0
	.cfi_startproc
	pushq	%rbp
	.cfi_def_cfa_offset 16
	.cfi_offset %rbp, -16
	movq	%rsp, %rbp
	.cfi_def_cfa_register %rbp
	subq	$16, %rsp
	movq	%rsi, -16(%rbp)
	movq	%rdi, -8(%rbp)
Ltmp385:
	.loc	6 1354 9 prologue_end
	movq	-16(%rbp), %rax
	movq	%rax, (%rdi)
	.loc	6 1357 2
	addq	$16, %rsp
	popq	%rbp
	retq
Ltmp386:
Lfunc_end84:
	.cfi_endproc

	.globl	__ZN4core3ptr5write17hc8d88b19c3cda630E
	.p2align	4, 0x90
__ZN4core3ptr5write17hc8d88b19c3cda630E:
Lfunc_begin85:
	.loc	6 1338 0
	.cfi_startproc
	pushq	%rbp
	.cfi_def_cfa_offset 16
	.cfi_offset %rbp, -16
	movq	%rsp, %rbp
	.cfi_def_cfa_register %rbp
	subq	$16, %rsp
	movq	%rsi, -16(%rbp)
	movq	%rdi, -8(%rbp)
Ltmp387:
	.loc	6 1354 9 prologue_end
	movq	-16(%rbp), %rax
	movq	%rax, (%rdi)
	.loc	6 1357 2
	addq	$16, %rsp
	popq	%rbp
	retq
Ltmp388:
Lfunc_end85:
	.cfi_endproc

	.p2align	4, 0x90
__ZN4core3ptr60drop_in_place$LT$$RF$crossbeam_epoch..deferred..Deferred$GT$17h140a417f023920e3E:
Lfunc_begin86:
	.loc	6 490 0
	.cfi_startproc
	pushq	%rbp
	.cfi_def_cfa_offset 16
	.cfi_offset %rbp, -16
	movq	%rsp, %rbp
	.cfi_def_cfa_register %rbp
	pushq	%rax
	movq	%rdi, -8(%rbp)
Ltmp389:
	.loc	6 490 1 prologue_end
	addq	$8, %rsp
	popq	%rbp
	retq
Ltmp390:
Lfunc_end86:
	.cfi_endproc

	.globl	__ZN4core3ptr60drop_in_place$LT$crossbeam_epoch..collector..LocalHandle$GT$17h5b0508ed52ac8d50E
	.p2align	4, 0x90
__ZN4core3ptr60drop_in_place$LT$crossbeam_epoch..collector..LocalHandle$GT$17h5b0508ed52ac8d50E:
Lfunc_begin87:
	.loc	6 490 0
	.cfi_startproc
	pushq	%rbp
	.cfi_def_cfa_offset 16
	.cfi_offset %rbp, -16
	movq	%rsp, %rbp
	.cfi_def_cfa_register %rbp
	subq	$16, %rsp
	movq	%rdi, -8(%rbp)
Ltmp391:
	.loc	6 490 1 prologue_end
	callq	__ZN81_$LT$crossbeam_epoch..collector..LocalHandle$u20$as$u20$core..ops..drop..Drop$GT$4drop17h05fb30a0a59fdd19E
	addq	$16, %rsp
	popq	%rbp
	retq
Ltmp392:
Lfunc_end87:
	.cfi_endproc

	.p2align	4, 0x90
__ZN4core3ptr70drop_in_place$LT$$RF$$u5b$crossbeam_epoch..deferred..Deferred$u5d$$GT$17hf0e984bc33a2e878E:
Lfunc_begin88:
	.loc	6 490 0
	.cfi_startproc
	pushq	%rbp
	.cfi_def_cfa_offset 16
	.cfi_offset %rbp, -16
	movq	%rsp, %rbp
	.cfi_def_cfa_register %rbp
	pushq	%rax
	movq	%rdi, -8(%rbp)
Ltmp393:
	.loc	6 490 1 prologue_end
	addq	$8, %rsp
	popq	%rbp
	retq
Ltmp394:
Lfunc_end88:
	.cfi_endproc

	.globl	__ZN4core3ptr70drop_in_place$LT$crossbeam_epoch..guard..unprotected..GuardWrapper$GT$17h14a8b3a5bea1315eE
	.p2align	4, 0x90
__ZN4core3ptr70drop_in_place$LT$crossbeam_epoch..guard..unprotected..GuardWrapper$GT$17h14a8b3a5bea1315eE:
Lfunc_begin89:
	.loc	6 490 0
	.cfi_startproc
	pushq	%rbp
	.cfi_def_cfa_offset 16
	.cfi_offset %rbp, -16
	movq	%rsp, %rbp
	.cfi_def_cfa_register %rbp
	subq	$16, %rsp
	movq	%rdi, -8(%rbp)
Ltmp395:
	.loc	6 490 1 prologue_end
	callq	__ZN4core3ptr50drop_in_place$LT$crossbeam_epoch..guard..Guard$GT$17h06093b0faa53e9b9E
	addq	$16, %rsp
	popq	%rbp
	retq
Ltmp396:
Lfunc_end89:
	.cfi_endproc

	.globl	__ZN4core3ptr78drop_in_place$LT$alloc..boxed..Box$LT$crossbeam_epoch..internal..Local$GT$$GT$17hdba543a843225367E
	.p2align	4, 0x90
__ZN4core3ptr78drop_in_place$LT$alloc..boxed..Box$LT$crossbeam_epoch..internal..Local$GT$$GT$17hdba543a843225367E:
Lfunc_begin90:
	.loc	6 490 0
	.cfi_startproc
	.cfi_personality 155, _rust_eh_personality
	.cfi_lsda 16, Lexception10
	pushq	%rbp
	.cfi_def_cfa_offset 16
	.cfi_offset %rbp, -16
	movq	%rsp, %rbp
	.cfi_def_cfa_register %rbp
	subq	$32, %rsp
	movq	%rdi, -32(%rbp)
	movq	%rdi, -24(%rbp)
Ltmp403:
	.loc	6 490 1 prologue_end
	movq	(%rdi), %rdi
Ltmp397:
	callq	__ZN4core3ptr53drop_in_place$LT$crossbeam_epoch..internal..Local$GT$17heae59d8ae6011bbaE
Ltmp398:
	jmp	LBB90_3
LBB90_1:
	.loc	6 0 1 is_stmt 0
	movq	-32(%rbp), %rax
	.loc	6 490 1
	movq	(%rax), %rdi
Ltmp400:
	callq	__ZN5alloc5alloc8box_free17h0ef3da26f0dc2c67E
Ltmp401:
	jmp	LBB90_5
LBB90_2:
Ltmp399:
	.loc	6 0 1
	movq	%rax, %rcx
	movl	%edx, %eax
	movq	%rcx, -16(%rbp)
	movl	%eax, -8(%rbp)
	jmp	LBB90_1
LBB90_3:
	movq	-32(%rbp), %rax
	.loc	6 490 1
	movq	(%rax), %rdi
	callq	__ZN5alloc5alloc8box_free17h0ef3da26f0dc2c67E
	addq	$32, %rsp
	popq	%rbp
	retq
LBB90_4:
Ltmp402:
	callq	__ZN4core9panicking19panic_cannot_unwind17h1fbca7e1d7f56ae1E
LBB90_5:
	movq	-16(%rbp), %rdi
	callq	__Unwind_Resume
Ltmp404:
Lfunc_end90:
	.cfi_endproc
	.section	__TEXT,__gcc_except_tab
	.p2align	2
GCC_except_table90:
Lexception10:
	.byte	255
	.byte	255
	.byte	1
	.uleb128 Lcst_end10-Lcst_begin10
Lcst_begin10:
	.uleb128 Ltmp397-Lfunc_begin90
	.uleb128 Ltmp398-Ltmp397
	.uleb128 Ltmp399-Lfunc_begin90
	.byte	0
	.uleb128 Ltmp400-Lfunc_begin90
	.uleb128 Ltmp401-Ltmp400
	.uleb128 Ltmp402-Lfunc_begin90
	.byte	0
	.uleb128 Ltmp401-Lfunc_begin90
	.uleb128 Lfunc_end90-Ltmp401
	.byte	0
	.byte	0
Lcst_end10:
	.p2align	2

	.section	__TEXT,__text,regular,pure_instructions
	.globl	__ZN4core3ptr78drop_in_place$LT$alloc..sync..Arc$LT$crossbeam_epoch..internal..Global$GT$$GT$17h5ce6bee9b2b17d5bE
	.p2align	4, 0x90
__ZN4core3ptr78drop_in_place$LT$alloc..sync..Arc$LT$crossbeam_epoch..internal..Global$GT$$GT$17h5ce6bee9b2b17d5bE:
Lfunc_begin91:
	.loc	6 490 0 is_stmt 1
	.cfi_startproc
	pushq	%rbp
	.cfi_def_cfa_offset 16
	.cfi_offset %rbp, -16
	movq	%rsp, %rbp
	.cfi_def_cfa_register %rbp
	subq	$16, %rsp
	movq	%rdi, -8(%rbp)
Ltmp405:
	.loc	6 490 1 prologue_end
	callq	__ZN67_$LT$alloc..sync..Arc$LT$T$GT$$u20$as$u20$core..ops..drop..Drop$GT$4drop17h2c6b77221874120bE
	addq	$16, %rsp
	popq	%rbp
	retq
Ltmp406:
Lfunc_end91:
	.cfi_endproc

	.globl	__ZN4core3ptr79drop_in_place$LT$alloc..sync..Weak$LT$crossbeam_epoch..internal..Global$GT$$GT$17ha7a8f11deb03dacbE
	.p2align	4, 0x90
__ZN4core3ptr79drop_in_place$LT$alloc..sync..Weak$LT$crossbeam_epoch..internal..Global$GT$$GT$17ha7a8f11deb03dacbE:
Lfunc_begin92:
	.loc	6 490 0
	.cfi_startproc
	pushq	%rbp
	.cfi_def_cfa_offset 16
	.cfi_offset %rbp, -16
	movq	%rsp, %rbp
	.cfi_def_cfa_register %rbp
	subq	$16, %rsp
	movq	%rdi, -8(%rbp)
Ltmp407:
	.loc	6 490 1 prologue_end
	callq	__ZN68_$LT$alloc..sync..Weak$LT$T$GT$$u20$as$u20$core..ops..drop..Drop$GT$4drop17h719ae7e6b2ef1e95E
	addq	$16, %rsp
	popq	%rbp
	retq
Ltmp408:
Lfunc_end92:
	.cfi_endproc

	.globl	__ZN4core3ptr81drop_in_place$LT$core..cell..UnsafeCell$LT$crossbeam_epoch..internal..Bag$GT$$GT$17hc4369db3c9218db1E
	.p2align	4, 0x90
__ZN4core3ptr81drop_in_place$LT$core..cell..UnsafeCell$LT$crossbeam_epoch..internal..Bag$GT$$GT$17hc4369db3c9218db1E:
Lfunc_begin93:
	.loc	6 490 0
	.cfi_startproc
	pushq	%rbp
	.cfi_def_cfa_offset 16
	.cfi_offset %rbp, -16
	movq	%rsp, %rbp
	.cfi_def_cfa_register %rbp
	subq	$16, %rsp
	movq	%rdi, -8(%rbp)
Ltmp409:
	.loc	6 490 1 prologue_end
	callq	__ZN4core3ptr51drop_in_place$LT$crossbeam_epoch..internal..Bag$GT$17h117c23302d23291dE
	addq	$16, %rsp
	popq	%rbp
	retq
Ltmp410:
Lfunc_end93:
	.cfi_endproc

	.globl	__ZN4core3ptr83drop_in_place$LT$alloc..sync..ArcInner$LT$crossbeam_epoch..internal..Global$GT$$GT$17h4c6ef81eddcd151eE
	.p2align	4, 0x90
__ZN4core3ptr83drop_in_place$LT$alloc..sync..ArcInner$LT$crossbeam_epoch..internal..Global$GT$$GT$17h4c6ef81eddcd151eE:
Lfunc_begin94:
	.loc	6 490 0
	.cfi_startproc
	pushq	%rbp
	.cfi_def_cfa_offset 16
	.cfi_offset %rbp, -16
	movq	%rsp, %rbp
	.cfi_def_cfa_register %rbp
	subq	$16, %rsp
	movq	%rdi, -8(%rbp)
Ltmp411:
	.loc	6 490 1 prologue_end
	addq	$128, %rdi
	callq	__ZN4core3ptr54drop_in_place$LT$crossbeam_epoch..internal..Global$GT$17hc0f18705f951116eE
	addq	$16, %rsp
	popq	%rbp
	retq
Ltmp412:
Lfunc_end94:
	.cfi_endproc

	.globl	__ZN4core3ptr85drop_in_place$LT$core..option..Option$LT$crossbeam_epoch..internal..SealedBag$GT$$GT$17h30e37c23f82e4229E
	.p2align	4, 0x90
__ZN4core3ptr85drop_in_place$LT$core..option..Option$LT$crossbeam_epoch..internal..SealedBag$GT$$GT$17h30e37c23f82e4229E:
Lfunc_begin95:
	.loc	6 490 0
	.cfi_startproc
	pushq	%rbp
	.cfi_def_cfa_offset 16
	.cfi_offset %rbp, -16
	movq	%rsp, %rbp
	.cfi_def_cfa_register %rbp
	subq	$16, %rsp
	movq	%rdi, -16(%rbp)
	movq	%rdi, -8(%rbp)
Ltmp413:
	.loc	6 490 1 prologue_end
	movq	32(%rdi), %rdx
	movl	$1, %eax
	xorl	%ecx, %ecx
	cmpq	$0, %rdx
	cmoveq	%rcx, %rax
	cmpq	$0, %rax
	jne	LBB95_2
LBB95_1:
	addq	$16, %rsp
	popq	%rbp
	retq
LBB95_2:
	.loc	6 0 1 is_stmt 0
	movq	-16(%rbp), %rdi
	.loc	6 490 1
	callq	__ZN4core3ptr57drop_in_place$LT$crossbeam_epoch..internal..SealedBag$GT$17h9a54cffe6af1fa50E
	jmp	LBB95_1
Ltmp414:
Lfunc_end95:
	.cfi_endproc

	.globl	__ZN4core3ptr88drop_in_place$LT$core..option..Option$LT$crossbeam_epoch..collector..LocalHandle$GT$$GT$17hf2228cbb33cd7739E
	.p2align	4, 0x90
__ZN4core3ptr88drop_in_place$LT$core..option..Option$LT$crossbeam_epoch..collector..LocalHandle$GT$$GT$17hf2228cbb33cd7739E:
Lfunc_begin96:
	.loc	6 490 0 is_stmt 1
	.cfi_startproc
	pushq	%rbp
	.cfi_def_cfa_offset 16
	.cfi_offset %rbp, -16
	movq	%rsp, %rbp
	.cfi_def_cfa_register %rbp
	subq	$16, %rsp
	movq	%rdi, -16(%rbp)
	movq	%rdi, -8(%rbp)
Ltmp415:
	.loc	6 490 1 prologue_end
	cmpq	$0, (%rdi)
	jne	LBB96_2
LBB96_1:
	addq	$16, %rsp
	popq	%rbp
	retq
LBB96_2:
	.loc	6 0 1 is_stmt 0
	movq	-16(%rbp), %rdi
	.loc	6 490 1
	addq	$8, %rdi
	callq	__ZN4core3ptr60drop_in_place$LT$crossbeam_epoch..collector..LocalHandle$GT$17h5b0508ed52ac8d50E
	jmp	LBB96_1
Ltmp416:
Lfunc_end96:
	.cfi_endproc

	.globl	__ZN4core3ptr91drop_in_place$LT$crossbeam_epoch..atomic..Owned$LT$crossbeam_epoch..internal..Local$GT$$GT$17hd00e8a08d3852291E
	.p2align	4, 0x90
__ZN4core3ptr91drop_in_place$LT$crossbeam_epoch..atomic..Owned$LT$crossbeam_epoch..internal..Local$GT$$GT$17hd00e8a08d3852291E:
Lfunc_begin97:
	.loc	6 490 0 is_stmt 1
	.cfi_startproc
	pushq	%rbp
	.cfi_def_cfa_offset 16
	.cfi_offset %rbp, -16
	movq	%rsp, %rbp
	.cfi_def_cfa_register %rbp
	subq	$16, %rsp
	movq	%rdi, -8(%rbp)
Ltmp417:
	.loc	6 490 1 prologue_end
	callq	__ZN81_$LT$crossbeam_epoch..atomic..Owned$LT$T$GT$$u20$as$u20$core..ops..drop..Drop$GT$4drop17h0dba1f77bb62fbf1E
	addq	$16, %rsp
	popq	%rbp
	retq
Ltmp418:
Lfunc_end97:
	.cfi_endproc

	.globl	__ZN4core3ptr94drop_in_place$LT$crossbeam_epoch..sync..list..List$LT$crossbeam_epoch..internal..Local$GT$$GT$17h93186c766a88d8d3E
	.p2align	4, 0x90
__ZN4core3ptr94drop_in_place$LT$crossbeam_epoch..sync..list..List$LT$crossbeam_epoch..internal..Local$GT$$GT$17h93186c766a88d8d3E:
Lfunc_begin98:
	.loc	6 490 0
	.cfi_startproc
	pushq	%rbp
	.cfi_def_cfa_offset 16
	.cfi_offset %rbp, -16
	movq	%rsp, %rbp
	.cfi_def_cfa_register %rbp
	subq	$16, %rsp
	movq	%rdi, -8(%rbp)
Ltmp419:
	.loc	6 490 1 prologue_end
	callq	__ZN88_$LT$crossbeam_epoch..sync..list..List$LT$T$C$C$GT$$u20$as$u20$core..ops..drop..Drop$GT$4drop17h6518062a04dec05cE
	addq	$16, %rsp
	popq	%rbp
	retq
Ltmp420:
Lfunc_end98:
	.cfi_endproc

	.globl	__ZN4core3ptr97drop_in_place$LT$std..thread..local..fast..Key$LT$crossbeam_epoch..collector..LocalHandle$GT$$GT$17hc8b376c11270b5efE
	.p2align	4, 0x90
__ZN4core3ptr97drop_in_place$LT$std..thread..local..fast..Key$LT$crossbeam_epoch..collector..LocalHandle$GT$$GT$17hc8b376c11270b5efE:
Lfunc_begin99:
	.loc	6 490 0
	.cfi_startproc
	pushq	%rbp
	.cfi_def_cfa_offset 16
	.cfi_offset %rbp, -16
	movq	%rsp, %rbp
	.cfi_def_cfa_register %rbp
	subq	$16, %rsp
	movq	%rdi, -8(%rbp)
Ltmp421:
	.loc	6 490 1 prologue_end
	callq	__ZN4core3ptr106drop_in_place$LT$std..thread..local..lazy..LazyKeyInner$LT$crossbeam_epoch..collector..LocalHandle$GT$$GT$17h54c4a87f16bcbb36E
	addq	$16, %rsp
	popq	%rbp
	retq
Ltmp422:
Lfunc_end99:
	.cfi_endproc

	.p2align	4, 0x90
__ZN4core3ptr98drop_in_place$LT$$RF$crossbeam_epoch..atomic..Atomic$LT$crossbeam_epoch..sync..list..Entry$GT$$GT$17h9d5dd89c91ca4d50E:
Lfunc_begin100:
	.loc	6 490 0
	.cfi_startproc
	pushq	%rbp
	.cfi_def_cfa_offset 16
	.cfi_offset %rbp, -16
	movq	%rsp, %rbp
	.cfi_def_cfa_register %rbp
	pushq	%rax
	movq	%rdi, -8(%rbp)
Ltmp423:
	.loc	6 490 1 prologue_end
	addq	$8, %rsp
	popq	%rbp
	retq
Ltmp424:
Lfunc_end100:
	.cfi_endproc

	.globl	__ZN4core3ptr9const_ptr33_$LT$impl$u20$$BP$const$u20$T$GT$4read17h9f1ddd70d1d310caE
	.p2align	4, 0x90
__ZN4core3ptr9const_ptr33_$LT$impl$u20$$BP$const$u20$T$GT$4read17h9f1ddd70d1d310caE:
Lfunc_begin101:
	.loc	5 1211 0
	.cfi_startproc
	pushq	%rbp
	.cfi_def_cfa_offset 16
	.cfi_offset %rbp, -16
	movq	%rsp, %rbp
	.cfi_def_cfa_register %rbp
	movl	$6240, %eax
	callq	___rust_probestack
	subq	%rax, %rsp
	movq	%rdi, -6232(%rbp)
	movq	%rdi, -6224(%rbp)
	movq	%rsi, -24(%rbp)
Ltmp425:
	.loc	5 1216 23 prologue_end
	movq	%rsi, -16(%rbp)
Ltmp426:
	.loc	6 1157 34
	leaq	-6216(%rbp), %rax
	movq	%rax, -8(%rbp)
	.loc	6 1157 9 is_stmt 0
	leaq	-6216(%rbp), %rdi
	movl	$2064, %edx
	callq	_memcpy
	.loc	6 1158 9 is_stmt 1
	leaq	-4152(%rbp), %rdi
	leaq	-6216(%rbp), %rsi
	movl	$2064, %edx
	callq	_memcpy
Ltmp427:
	.loc	22 627 38
	leaq	-2088(%rbp), %rdi
	leaq	-4152(%rbp), %rsi
	movl	$2064, %edx
	callq	_memcpy
	movq	-6232(%rbp), %rdi
Ltmp428:
	.loc	21 89 9
	leaq	-2088(%rbp), %rsi
	movl	$2064, %edx
	callq	_memcpy
	movq	-6224(%rbp), %rax
Ltmp429:
	.loc	5 1217 6
	addq	$6240, %rsp
	popq	%rbp
	retq
Ltmp430:
Lfunc_end101:
	.cfi_endproc

	.globl	__ZN4core3ptr9const_ptr33_$LT$impl$u20$$BP$const$u20$T$GT$6as_ref17h0466c45ab961ab3aE
	.p2align	4, 0x90
__ZN4core3ptr9const_ptr33_$LT$impl$u20$$BP$const$u20$T$GT$6as_ref17h0466c45ab961ab3aE:
Lfunc_begin102:
	.loc	5 355 0
	.cfi_startproc
	pushq	%rbp
	.cfi_def_cfa_offset 16
	.cfi_offset %rbp, -16
	movq	%rsp, %rbp
	.cfi_def_cfa_register %rbp
	subq	$72, %rsp
	movq	%rdi, -72(%rbp)
	movq	%rdi, -48(%rbp)
Ltmp431:
	.loc	5 358 12 prologue_end
	movq	%rdi, -40(%rbp)
Ltmp432:
	.loc	5 53 36
	movq	%rdi, -56(%rbp)
	.loc	5 53 18 is_stmt 0
	movq	-56(%rbp), %rax
	movq	%rax, -32(%rbp)
Ltmp433:
	.loc	5 39 13 is_stmt 1
	movq	%rax, -24(%rbp)
Ltmp434:
	.loc	5 209 33
	movq	%rax, -16(%rbp)
	.loc	5 209 18 is_stmt 0
	movq	%rax, -8(%rbp)
Ltmp435:
	.loc	5 358 12 is_stmt 1
	cmpq	$0, -8(%rbp)
	jne	LBB102_2
	.loc	5 358 29 is_stmt 0
	movq	$0, -64(%rbp)
	.loc	5 358 9
	jmp	LBB102_3
LBB102_2:
	.loc	5 0 9
	movq	-72(%rbp), %rax
	.loc	5 358 52
	movq	%rax, -64(%rbp)
LBB102_3:
	.loc	5 359 6 is_stmt 1
	movq	-64(%rbp), %rax
	addq	$72, %rsp
	popq	%rbp
	retq
Ltmp436:
Lfunc_end102:
	.cfi_endproc

	.globl	__ZN4core4cell13Cell$LT$T$GT$3get17h4888d0471b49d659E
	.p2align	4, 0x90
__ZN4core4cell13Cell$LT$T$GT$3get17h4888d0471b49d659E:
Lfunc_begin103:
	.loc	17 449 0
	.cfi_startproc
	pushq	%rbp
	.cfi_def_cfa_offset 16
	.cfi_offset %rbp, -16
	movq	%rsp, %rbp
	.cfi_def_cfa_register %rbp
	subq	$16, %rsp
	movq	%rdi, -16(%rbp)
Ltmp437:
	.loc	17 452 19 prologue_end
	movq	%rdi, -8(%rbp)
	.loc	17 452 18 is_stmt 0
	movq	(%rdi), %rax
	.loc	17 453 6 is_stmt 1
	addq	$16, %rsp
	popq	%rbp
	retq
Ltmp438:
Lfunc_end103:
	.cfi_endproc

	.globl	__ZN4core4cell13Cell$LT$T$GT$3get17h75be34b1a65fe3b0E
	.p2align	4, 0x90
__ZN4core4cell13Cell$LT$T$GT$3get17h75be34b1a65fe3b0E:
Lfunc_begin104:
	.loc	17 449 0
	.cfi_startproc
	pushq	%rbp
	.cfi_def_cfa_offset 16
	.cfi_offset %rbp, -16
	movq	%rsp, %rbp
	.cfi_def_cfa_register %rbp
	subq	$16, %rsp
	movq	%rdi, -16(%rbp)
Ltmp439:
	.loc	17 452 19 prologue_end
	movq	%rdi, -8(%rbp)
	.loc	17 452 18 is_stmt 0
	movq	(%rdi), %rax
	.loc	17 453 6 is_stmt 1
	addq	$16, %rsp
	popq	%rbp
	retq
Ltmp440:
Lfunc_end104:
	.cfi_endproc

	.globl	__ZN4core4cell13Cell$LT$T$GT$3new17ha4ba0dcdb0f00889E
	.p2align	4, 0x90
__ZN4core4cell13Cell$LT$T$GT$3new17ha4ba0dcdb0f00889E:
Lfunc_begin105:
	.loc	17 345 0
	.cfi_startproc
	pushq	%rbp
	.cfi_def_cfa_offset 16
	.cfi_offset %rbp, -16
	movq	%rsp, %rbp
	.cfi_def_cfa_register %rbp
	subq	$32, %rsp
	movq	%rdi, -16(%rbp)
Ltmp441:
	.loc	17 346 39 prologue_end
	movq	%rdi, -8(%rbp)
Ltmp442:
	.loc	17 1953 9
	movq	%rdi, -24(%rbp)
Ltmp443:
	.loc	17 346 9
	movq	-24(%rbp), %rax
	movq	%rax, -32(%rbp)
	.loc	17 347 6
	movq	-32(%rbp), %rax
	addq	$32, %rsp
	popq	%rbp
	retq
Ltmp444:
Lfunc_end105:
	.cfi_endproc

	.globl	__ZN4core4cell13Cell$LT$T$GT$3new17he6b54876291132c7E
	.p2align	4, 0x90
__ZN4core4cell13Cell$LT$T$GT$3new17he6b54876291132c7E:
Lfunc_begin106:
	.loc	17 345 0
	.cfi_startproc
	pushq	%rbp
	.cfi_def_cfa_offset 16
	.cfi_offset %rbp, -16
	movq	%rsp, %rbp
	.cfi_def_cfa_register %rbp
	subq	$32, %rsp
	movq	%rdi, -16(%rbp)
Ltmp445:
	.loc	17 346 39 prologue_end
	movq	%rdi, -8(%rbp)
Ltmp446:
	.loc	17 1953 9
	movq	%rdi, -24(%rbp)
Ltmp447:
	.loc	17 346 9
	movq	-24(%rbp), %rax
	movq	%rax, -32(%rbp)
	.loc	17 347 6
	movq	-32(%rbp), %rax
	addq	$32, %rsp
	popq	%rbp
	retq
Ltmp448:
Lfunc_end106:
	.cfi_endproc

	.globl	__ZN4core4cell13Cell$LT$T$GT$3set17h0ff5db480c8aa7adE
	.p2align	4, 0x90
__ZN4core4cell13Cell$LT$T$GT$3set17h0ff5db480c8aa7adE:
Lfunc_begin107:
	.loc	17 362 0
	.cfi_startproc
	pushq	%rbp
	.cfi_def_cfa_offset 16
	.cfi_offset %rbp, -16
	movq	%rsp, %rbp
	.cfi_def_cfa_register %rbp
	subq	$32, %rsp
	movq	%rdi, -32(%rbp)
	movq	%rsi, -24(%rbp)
Ltmp449:
	.loc	17 363 19 prologue_end
	callq	__ZN4core4cell13Cell$LT$T$GT$7replace17h8bdc995ee2acab23E
	movq	%rax, -16(%rbp)
Ltmp450:
	.loc	17 364 14
	movq	%rax, -8(%rbp)
Ltmp451:
	.loc	17 365 6
	addq	$32, %rsp
	popq	%rbp
	retq
Ltmp452:
Lfunc_end107:
	.cfi_endproc

	.globl	__ZN4core4cell13Cell$LT$T$GT$3set17h6e095168d10301b6E
	.p2align	4, 0x90
__ZN4core4cell13Cell$LT$T$GT$3set17h6e095168d10301b6E:
Lfunc_begin108:
	.loc	17 362 0
	.cfi_startproc
	pushq	%rbp
	.cfi_def_cfa_offset 16
	.cfi_offset %rbp, -16
	movq	%rsp, %rbp
	.cfi_def_cfa_register %rbp
	subq	$32, %rsp
	movq	%rdi, -32(%rbp)
	movq	%rsi, -24(%rbp)
Ltmp453:
	.loc	17 363 19 prologue_end
	callq	__ZN4core4cell13Cell$LT$T$GT$7replace17h0a55d9814559e1edE
	movq	%rax, -16(%rbp)
Ltmp454:
	.loc	17 364 14
	movq	%rax, -8(%rbp)
Ltmp455:
	.loc	17 365 6
	addq	$32, %rsp
	popq	%rbp
	retq
Ltmp456:
Lfunc_end108:
	.cfi_endproc

	.globl	__ZN4core4cell13Cell$LT$T$GT$7replace17h0a55d9814559e1edE
	.p2align	4, 0x90
__ZN4core4cell13Cell$LT$T$GT$7replace17h0a55d9814559e1edE:
Lfunc_begin109:
	.loc	17 410 0
	.cfi_startproc
	.cfi_personality 155, _rust_eh_personality
	.cfi_lsda 16, Lexception11
	pushq	%rbp
	.cfi_def_cfa_offset 16
	.cfi_offset %rbp, -16
	movq	%rsp, %rbp
	.cfi_def_cfa_register %rbp
	subq	$48, %rsp
	movq	%rdi, -40(%rbp)
	movq	%rsi, -32(%rbp)
Ltmp460:
	.loc	17 413 37 prologue_end
	movq	%rdi, -24(%rbp)
Ltmp457:
	.loc	17 413 9 is_stmt 0
	callq	__ZN4core3mem7replace17hdd7e6141db740728E
Ltmp458:
	movq	%rax, -48(%rbp)
	jmp	LBB109_3
LBB109_1:
	.loc	17 414 5 is_stmt 1
	xorl	%eax, %eax
	testb	$1, %al
	jne	LBB109_5
	jmp	LBB109_4
LBB109_2:
Ltmp459:
	.loc	17 0 5 is_stmt 0
	movq	%rax, %rcx
	movl	%edx, %eax
	movq	%rcx, -16(%rbp)
	movl	%eax, -8(%rbp)
	jmp	LBB109_1
LBB109_3:
	movq	-48(%rbp), %rax
	.loc	17 414 6
	addq	$48, %rsp
	popq	%rbp
	retq
LBB109_4:
	.loc	17 410 5 is_stmt 1
	movq	-16(%rbp), %rdi
	callq	__Unwind_Resume
LBB109_5:
	.loc	17 414 5
	jmp	LBB109_4
Ltmp461:
Lfunc_end109:
	.cfi_endproc
	.section	__TEXT,__gcc_except_tab
	.p2align	2
GCC_except_table109:
Lexception11:
	.byte	255
	.byte	255
	.byte	1
	.uleb128 Lcst_end11-Lcst_begin11
Lcst_begin11:
	.uleb128 Ltmp457-Lfunc_begin109
	.uleb128 Ltmp458-Ltmp457
	.uleb128 Ltmp459-Lfunc_begin109
	.byte	0
	.uleb128 Ltmp458-Lfunc_begin109
	.uleb128 Lfunc_end109-Ltmp458
	.byte	0
	.byte	0
Lcst_end11:
	.p2align	2

	.section	__TEXT,__text,regular,pure_instructions
	.globl	__ZN4core4cell13Cell$LT$T$GT$7replace17h8bdc995ee2acab23E
	.p2align	4, 0x90
__ZN4core4cell13Cell$LT$T$GT$7replace17h8bdc995ee2acab23E:
Lfunc_begin110:
	.loc	17 410 0
	.cfi_startproc
	.cfi_personality 155, _rust_eh_personality
	.cfi_lsda 16, Lexception12
	pushq	%rbp
	.cfi_def_cfa_offset 16
	.cfi_offset %rbp, -16
	movq	%rsp, %rbp
	.cfi_def_cfa_register %rbp
	subq	$48, %rsp
	movq	%rdi, -40(%rbp)
	movq	%rsi, -32(%rbp)
Ltmp465:
	.loc	17 413 37 prologue_end
	movq	%rdi, -24(%rbp)
Ltmp462:
	.loc	17 413 9 is_stmt 0
	callq	__ZN4core3mem7replace17h478dff0b855e3e50E
Ltmp463:
	movq	%rax, -48(%rbp)
	jmp	LBB110_3
LBB110_1:
	.loc	17 414 5 is_stmt 1
	xorl	%eax, %eax
	testb	$1, %al
	jne	LBB110_5
	jmp	LBB110_4
LBB110_2:
Ltmp464:
	.loc	17 0 5 is_stmt 0
	movq	%rax, %rcx
	movl	%edx, %eax
	movq	%rcx, -16(%rbp)
	movl	%eax, -8(%rbp)
	jmp	LBB110_1
LBB110_3:
	movq	-48(%rbp), %rax
	.loc	17 414 6
	addq	$48, %rsp
	popq	%rbp
	retq
LBB110_4:
	.loc	17 410 5 is_stmt 1
	movq	-16(%rbp), %rdi
	callq	__Unwind_Resume
LBB110_5:
	.loc	17 414 5
	jmp	LBB110_4
Ltmp466:
Lfunc_end110:
	.cfi_endproc
	.section	__TEXT,__gcc_except_tab
	.p2align	2
GCC_except_table110:
Lexception12:
	.byte	255
	.byte	255
	.byte	1
	.uleb128 Lcst_end12-Lcst_begin12
Lcst_begin12:
	.uleb128 Ltmp462-Lfunc_begin110
	.uleb128 Ltmp463-Ltmp462
	.uleb128 Ltmp464-Lfunc_begin110
	.byte	0
	.uleb128 Ltmp463-Lfunc_begin110
	.uleb128 Lfunc_end110-Ltmp463
	.byte	0
	.byte	0
Lcst_end12:
	.p2align	2

	.section	__TEXT,__text,regular,pure_instructions
	.p2align	4, 0x90
__ZN4core4hint21unreachable_unchecked17hcbb406807b71908fE:
Lfunc_begin111:
	.file	30 "/rustc/2c8cc343237b8f7d5a3c3703e3a87f2eb2c54a74/library/core/src" "hint.rs"
	.loc	30 100 0
	.cfi_startproc
	pushq	%rbp
	.cfi_def_cfa_offset 16
	.cfi_offset %rbp, -16
	movq	%rsp, %rbp
	.cfi_def_cfa_register %rbp
Ltmp467:
	.loc	30 104 9 prologue_end
	ud2
Ltmp468:
Lfunc_end111:
	.cfi_endproc

	.globl	__ZN4core4iter5range101_$LT$impl$u20$core..iter..traits..iterator..Iterator$u20$for$u20$core..ops..range..Range$LT$A$GT$$GT$4next17hd67f9e8ccb7dd78aE
	.p2align	4, 0x90
__ZN4core4iter5range101_$LT$impl$u20$core..iter..traits..iterator..Iterator$u20$for$u20$core..ops..range..Range$LT$A$GT$$GT$4next17hd67f9e8ccb7dd78aE:
Lfunc_begin112:
	.file	31 "/rustc/2c8cc343237b8f7d5a3c3703e3a87f2eb2c54a74/library/core/src/iter" "range.rs"
	.loc	31 710 0
	.cfi_startproc
	pushq	%rbp
	.cfi_def_cfa_offset 16
	.cfi_offset %rbp, -16
	movq	%rsp, %rbp
	.cfi_def_cfa_register %rbp
	subq	$16, %rsp
	movq	%rdi, -8(%rbp)
Ltmp469:
	.loc	31 711 9 prologue_end
	callq	__ZN89_$LT$core..ops..range..Range$LT$T$GT$$u20$as$u20$core..iter..range..RangeIteratorImpl$GT$9spec_next17h6fcbf01707e651adE
	.loc	31 712 6
	addq	$16, %rsp
	popq	%rbp
	retq
Ltmp470:
Lfunc_end112:
	.cfi_endproc

	.p2align	4, 0x90
__ZN4core4sync6atomic10AtomicBool4load17h517f0ea2e3ff724cE:
Lfunc_begin113:
	.loc	13 453 0
	.cfi_startproc
	pushq	%rbp
	.cfi_def_cfa_offset 16
	.cfi_offset %rbp, -16
	movq	%rsp, %rbp
	.cfi_def_cfa_register %rbp
	subq	$32, %rsp
	movb	%sil, %al
	movq	%rdi, -24(%rbp)
	movb	%al, -9(%rbp)
Ltmp471:
	.loc	13 456 30 prologue_end
	movq	%rdi, -8(%rbp)
	.loc	13 456 18 is_stmt 0
	movzbl	%al, %esi
	callq	__ZN4core4sync6atomic11atomic_load17h2365115abbd845b7E
	cmpb	$0, %al
	setne	%al
	.loc	13 457 6 is_stmt 1
	andb	$1, %al
	movzbl	%al, %eax
	addq	$32, %rsp
	popq	%rbp
	retq
Ltmp472:
Lfunc_end113:
	.cfi_endproc

	.p2align	4, 0x90
__ZN4core4sync6atomic10AtomicBool5store17hacfed8841c48c3f0E:
Lfunc_begin114:
	.loc	13 481 0
	.cfi_startproc
	pushq	%rbp
	.cfi_def_cfa_offset 16
	.cfi_offset %rbp, -16
	movq	%rsp, %rbp
	.cfi_def_cfa_register %rbp
	subq	$32, %rsp
	movb	%dl, %al
	movb	%sil, %cl
	movq	%rdi, -24(%rbp)
	movb	%cl, %dl
	andb	$1, %dl
	movb	%dl, -10(%rbp)
	movb	%al, -9(%rbp)
Ltmp473:
	.loc	13 485 26 prologue_end
	movq	%rdi, -8(%rbp)
	.loc	13 485 40 is_stmt 0
	andb	$1, %cl
	.loc	13 485 13
	movzbl	%cl, %esi
	movzbl	%al, %edx
	callq	__ZN4core4sync6atomic12atomic_store17hf25be361eff70f77E
	.loc	13 487 6 is_stmt 1
	addq	$32, %rsp
	popq	%rbp
	retq
Ltmp474:
Lfunc_end114:
	.cfi_endproc

	.p2align	4, 0x90
__ZN4core4sync6atomic11AtomicUsize16compare_exchange17hd4f70bf2c1d744f1E:
Lfunc_begin115:
	.loc	13 2292 0
	.cfi_startproc
	pushq	%rbp
	.cfi_def_cfa_offset 16
	.cfi_offset %rbp, -16
	movq	%rsp, %rbp
	.cfi_def_cfa_register %rbp
	subq	$48, %rsp
	movb	%r8b, %al
	movq	%rdi, -40(%rbp)
	movq	%rsi, -32(%rbp)
	movq	%rdx, -24(%rbp)
	movb	%cl, -10(%rbp)
	movb	%al, -9(%rbp)
Ltmp475:
	.loc	13 2298 50 prologue_end
	movq	%rdi, -8(%rbp)
	.loc	13 2298 26 is_stmt 0
	movzbl	%cl, %ecx
	movzbl	%al, %r8d
	callq	__ZN4core4sync6atomic23atomic_compare_exchange17h043d98195dc1edf9E
	.loc	13 2299 14 is_stmt 1
	addq	$48, %rsp
	popq	%rbp
	retq
Ltmp476:
Lfunc_end115:
	.cfi_endproc

	.p2align	4, 0x90
__ZN4core4sync6atomic11AtomicUsize21compare_exchange_weak17h08b1d62dc36188e4E:
Lfunc_begin116:
	.loc	13 2341 0
	.cfi_startproc
	pushq	%rbp
	.cfi_def_cfa_offset 16
	.cfi_offset %rbp, -16
	movq	%rsp, %rbp
	.cfi_def_cfa_register %rbp
	subq	$48, %rsp
	movb	%r8b, %al
	movq	%rdi, -40(%rbp)
	movq	%rsi, -32(%rbp)
	movq	%rdx, -24(%rbp)
	movb	%cl, -10(%rbp)
	movb	%al, -9(%rbp)
Ltmp477:
	.loc	13 2348 50 prologue_end
	movq	%rdi, -8(%rbp)
	.loc	13 2348 21 is_stmt 0
	movzbl	%cl, %ecx
	movzbl	%al, %r8d
	callq	__ZN4core4sync6atomic28atomic_compare_exchange_weak17h299e6e7f966bb508E
	.loc	13 2350 14 is_stmt 1
	addq	$48, %rsp
	popq	%rbp
	retq
Ltmp478:
Lfunc_end116:
	.cfi_endproc

	.p2align	4, 0x90
__ZN4core4sync6atomic11AtomicUsize3new17h221073e88784fed9E:
Lfunc_begin117:
	.loc	13 1956 0
	.cfi_startproc
	pushq	%rbp
	.cfi_def_cfa_offset 16
	.cfi_offset %rbp, -16
	movq	%rsp, %rbp
	.cfi_def_cfa_register %rbp
	subq	$32, %rsp
	movq	%rdi, -16(%rbp)
Ltmp479:
	.loc	13 1957 42 prologue_end
	movq	%rdi, -8(%rbp)
Ltmp480:
	.loc	17 1953 9
	movq	%rdi, -24(%rbp)
Ltmp481:
	.loc	13 1957 17
	movq	-24(%rbp), %rax
	movq	%rax, -32(%rbp)
	.loc	13 1958 14
	movq	-32(%rbp), %rax
	addq	$32, %rsp
	popq	%rbp
	retq
Ltmp482:
Lfunc_end117:
	.cfi_endproc

	.p2align	4, 0x90
__ZN4core4sync6atomic11AtomicUsize4load17hff109a0febdd1630E:
Lfunc_begin118:
	.loc	13 2125 0
	.cfi_startproc
	pushq	%rbp
	.cfi_def_cfa_offset 16
	.cfi_offset %rbp, -16
	movq	%rsp, %rbp
	.cfi_def_cfa_register %rbp
	subq	$32, %rsp
	movb	%sil, %al
	movq	%rdi, -24(%rbp)
	movb	%al, -9(%rbp)
Ltmp483:
	.loc	13 2127 38 prologue_end
	movq	%rdi, -8(%rbp)
	.loc	13 2127 26 is_stmt 0
	movzbl	%al, %esi
	callq	__ZN4core4sync6atomic11atomic_load17h005046185242badaE
	.loc	13 2128 14 is_stmt 1
	addq	$32, %rsp
	popq	%rbp
	retq
Ltmp484:
Lfunc_end118:
	.cfi_endproc

	.p2align	4, 0x90
__ZN4core4sync6atomic11AtomicUsize5store17hf4cdecaf07d552a5E:
Lfunc_begin119:
	.loc	13 2152 0
	.cfi_startproc
	pushq	%rbp
	.cfi_def_cfa_offset 16
	.cfi_offset %rbp, -16
	movq	%rsp, %rbp
	.cfi_def_cfa_register %rbp
	subq	$32, %rsp
	movb	%dl, %al
	movq	%rdi, -32(%rbp)
	movq	%rsi, -24(%rbp)
	movb	%al, -9(%rbp)
Ltmp485:
	.loc	13 2154 39 prologue_end
	movq	%rdi, -8(%rbp)
	.loc	13 2154 26 is_stmt 0
	movzbl	%al, %edx
	callq	__ZN4core4sync6atomic12atomic_store17h589f2d607f76e5afE
	.loc	13 2155 14 is_stmt 1
	addq	$32, %rsp
	popq	%rbp
	retq
Ltmp486:
Lfunc_end119:
	.cfi_endproc

	.p2align	4, 0x90
__ZN4core4sync6atomic11AtomicUsize8fetch_or17ha87bfeb11ae11aebE:
Lfunc_begin120:
	.loc	13 2506 0
	.cfi_startproc
	pushq	%rbp
	.cfi_def_cfa_offset 16
	.cfi_offset %rbp, -16
	movq	%rsp, %rbp
	.cfi_def_cfa_register %rbp
	subq	$32, %rsp
	movb	%dl, %al
	movq	%rdi, -32(%rbp)
	movq	%rsi, -24(%rbp)
	movb	%al, -9(%rbp)
Ltmp487:
	.loc	13 2508 36 prologue_end
	movq	%rdi, -8(%rbp)
	.loc	13 2508 26 is_stmt 0
	movzbl	%al, %edx
	callq	__ZN4core4sync6atomic9atomic_or17haf178aa6541fd5afE
	.loc	13 2509 14 is_stmt 1
	addq	$32, %rsp
	popq	%rbp
	retq
Ltmp488:
Lfunc_end120:
	.cfi_endproc

	.globl	__ZN4core4sync6atomic12atomic_store17h589f2d607f76e5afE
	.p2align	4, 0x90
__ZN4core4sync6atomic12atomic_store17h589f2d607f76e5afE:
Lfunc_begin121:
	.loc	13 3004 0
	.cfi_startproc
	pushq	%rbp
	.cfi_def_cfa_offset 16
	.cfi_offset %rbp, -16
	movq	%rsp, %rbp
	.cfi_def_cfa_register %rbp
	subq	$160, %rsp
	movq	%rsi, -144(%rbp)
	movq	%rdi, -136(%rbp)
	movb	%dl, %al
	movb	%al, -113(%rbp)
	movq	%rdi, -16(%rbp)
	movq	%rsi, -8(%rbp)
Ltmp489:
	.loc	13 3007 15 prologue_end
	movzbl	-113(%rbp), %eax
	movq	%rax, -128(%rbp)
	.loc	13 0 15 is_stmt 0
	movq	-128(%rbp), %rax
	leaq	LJTI121_0(%rip), %rcx
	movslq	(%rcx,%rax,4), %rax
	addq	%rcx, %rax
	jmpq	*%rax
	.loc	13 3007 15
	ud2
LBB121_2:
	.loc	13 0 15
	movq	-136(%rbp), %rax
	movq	-144(%rbp), %rcx
	.loc	13 3008 24 is_stmt 1
	movq	%rcx, (%rax)
	.loc	13 3008 65 is_stmt 0
	jmp	LBB121_7
LBB121_3:
	.loc	13 0 65
	movq	-136(%rbp), %rax
	movq	-144(%rbp), %rcx
	.loc	13 3009 24 is_stmt 1
	movq	%rcx, (%rax)
	.loc	13 3009 65 is_stmt 0
	jmp	LBB121_7
LBB121_4:
	.loc	13 3011 24 is_stmt 1
	leaq	l___unnamed_17(%rip), %rsi
	leaq	l___unnamed_13(%rip), %rcx
	xorl	%eax, %eax
	movl	%eax, %r8d
	leaq	-112(%rbp), %rdi
	movq	%rdi, -152(%rbp)
	movl	$1, %edx
	callq	__ZN4core3fmt9Arguments6new_v117h2e6830ba6496e7b7E
	movq	-152(%rbp), %rdi
	leaq	l___unnamed_18(%rip), %rsi
	callq	__ZN4core9panicking9panic_fmt17h9b5d807e24bcaaedE
LBB121_5:
	.loc	13 3012 23
	leaq	l___unnamed_19(%rip), %rsi
	leaq	l___unnamed_13(%rip), %rcx
	xorl	%eax, %eax
	movl	%eax, %r8d
	leaq	-64(%rbp), %rdi
	movq	%rdi, -160(%rbp)
	movl	$1, %edx
	callq	__ZN4core3fmt9Arguments6new_v117h2e6830ba6496e7b7E
	movq	-160(%rbp), %rdi
	leaq	l___unnamed_20(%rip), %rsi
	callq	__ZN4core9panicking9panic_fmt17h9b5d807e24bcaaedE
LBB121_6:
	.loc	13 0 23 is_stmt 0
	movq	-136(%rbp), %rcx
	movq	-144(%rbp), %rax
	.loc	13 3010 23 is_stmt 1
	xchgq	%rax, (%rcx)
LBB121_7:
	.loc	13 3015 2
	addq	$160, %rsp
	popq	%rbp
	retq
Ltmp490:
Lfunc_end121:
	.cfi_endproc
	.p2align	2, 0x90
	.data_region jt32
.set L121_0_set_2, LBB121_2-LJTI121_0
.set L121_0_set_3, LBB121_3-LJTI121_0
.set L121_0_set_4, LBB121_4-LJTI121_0
.set L121_0_set_5, LBB121_5-LJTI121_0
.set L121_0_set_6, LBB121_6-LJTI121_0
LJTI121_0:
	.long	L121_0_set_2
	.long	L121_0_set_3
	.long	L121_0_set_4
	.long	L121_0_set_5
	.long	L121_0_set_6
	.end_data_region

	.p2align	4, 0x90
__ZN4core4sync6atomic14compiler_fence17h8075420e82704adfE:
Lfunc_begin122:
	.loc	13 3445 0
	.cfi_startproc
	pushq	%rbp
	.cfi_def_cfa_offset 16
	.cfi_offset %rbp, -16
	movq	%rsp, %rbp
	.cfi_def_cfa_register %rbp
	subq	$80, %rsp
	movb	%dil, %al
	movb	%al, -49(%rbp)
Ltmp491:
	.loc	13 3448 15 prologue_end
	movzbl	-49(%rbp), %eax
	movq	%rax, -64(%rbp)
	.loc	13 0 15 is_stmt 0
	movq	-64(%rbp), %rax
	leaq	LJTI122_0(%rip), %rcx
	movslq	(%rcx,%rax,4), %rax
	addq	%rcx, %rax
	jmpq	*%rax
	.loc	13 3448 15
	ud2
LBB122_2:
	.loc	13 3453 24 is_stmt 1
	leaq	l___unnamed_21(%rip), %rsi
	leaq	l___unnamed_13(%rip), %rcx
	xorl	%eax, %eax
	movl	%eax, %r8d
	leaq	-48(%rbp), %rdi
	movq	%rdi, -72(%rbp)
	movl	$1, %edx
	callq	__ZN4core3fmt9Arguments6new_v117h2e6830ba6496e7b7E
	movq	-72(%rbp), %rdi
	leaq	l___unnamed_22(%rip), %rsi
	callq	__ZN4core9panicking9panic_fmt17h9b5d807e24bcaaedE
LBB122_3:
	##MEMBARRIER
	.loc	13 3450 24
	jmp	LBB122_7
LBB122_4:
	##MEMBARRIER
	.loc	13 3449 24
	jmp	LBB122_7
LBB122_5:
	##MEMBARRIER
	.loc	13 3451 23
	jmp	LBB122_7
LBB122_6:
	##MEMBARRIER
LBB122_7:
	.loc	13 3456 2
	addq	$80, %rsp
	popq	%rbp
	retq
Ltmp492:
Lfunc_end122:
	.cfi_endproc
	.p2align	2, 0x90
	.data_region jt32
.set L122_0_set_2, LBB122_2-LJTI122_0
.set L122_0_set_3, LBB122_3-LJTI122_0
.set L122_0_set_4, LBB122_4-LJTI122_0
.set L122_0_set_5, LBB122_5-LJTI122_0
.set L122_0_set_6, LBB122_6-LJTI122_0
LJTI122_0:
	.long	L122_0_set_2
	.long	L122_0_set_3
	.long	L122_0_set_4
	.long	L122_0_set_5
	.long	L122_0_set_6
	.end_data_region

	.globl	__ZN4core4sync6atomic28atomic_compare_exchange_weak17h299e6e7f966bb508E
	.p2align	4, 0x90
__ZN4core4sync6atomic28atomic_compare_exchange_weak17h299e6e7f966bb508E:
Lfunc_begin123:
	.loc	13 3120 0
	.cfi_startproc
	pushq	%rbp
	.cfi_def_cfa_offset 16
	.cfi_offset %rbp, -16
	movq	%rsp, %rbp
	.cfi_def_cfa_register %rbp
	subq	$288, %rsp
	movq	%rdx, -216(%rbp)
	movq	%rsi, -208(%rbp)
	movq	%rdi, -200(%rbp)
	movb	%r8b, %al
	movq	%rdi, -48(%rbp)
	movq	%rsi, -40(%rbp)
	movq	%rdx, -32(%rbp)
	movb	%cl, -18(%rbp)
	movb	%al, -17(%rbp)
Ltmp493:
	.loc	13 3129 15 prologue_end
	movb	%cl, -152(%rbp)
	movb	%al, -151(%rbp)
	movzbl	-152(%rbp), %eax
	movq	%rax, -192(%rbp)
	.loc	13 0 15 is_stmt 0
	movq	-192(%rbp), %rax
	leaq	LJTI123_0(%rip), %rcx
	movslq	(%rcx,%rax,4), %rax
	addq	%rcx, %rax
	jmpq	*%rax
	.loc	13 3129 9
	ud2
LBB123_2:
	.loc	13 3129 15
	movzbl	-151(%rbp), %eax
	movq	%rax, -224(%rbp)
	testq	%rax, %rax
	.loc	13 3129 9
	je	LBB123_21
	jmp	LBB123_38
LBB123_38:
	.loc	13 0 9
	movq	-224(%rbp), %rax
	.loc	13 3129 9
	subq	$2, %rax
	je	LBB123_22
	jmp	LBB123_39
LBB123_39:
	.loc	13 0 9
	movq	-224(%rbp), %rax
	.loc	13 3129 9
	subq	$4, %rax
	je	LBB123_23
	jmp	LBB123_7
LBB123_3:
	.loc	13 3129 15
	movzbl	-151(%rbp), %eax
	movq	%rax, -232(%rbp)
	testq	%rax, %rax
	.loc	13 3129 9
	je	LBB123_18
	jmp	LBB123_36
LBB123_36:
	.loc	13 0 9
	movq	-232(%rbp), %rax
	.loc	13 3129 9
	subq	$2, %rax
	je	LBB123_19
	jmp	LBB123_37
LBB123_37:
	.loc	13 0 9
	movq	-232(%rbp), %rax
	.loc	13 3129 9
	subq	$4, %rax
	je	LBB123_20
	jmp	LBB123_7
LBB123_4:
	.loc	13 3129 15
	movzbl	-151(%rbp), %eax
	movq	%rax, -240(%rbp)
	testq	%rax, %rax
	.loc	13 3129 9
	je	LBB123_15
	jmp	LBB123_34
LBB123_34:
	.loc	13 0 9
	movq	-240(%rbp), %rax
	.loc	13 3129 9
	subq	$2, %rax
	je	LBB123_16
	jmp	LBB123_35
LBB123_35:
	.loc	13 0 9
	movq	-240(%rbp), %rax
	.loc	13 3129 9
	subq	$4, %rax
	je	LBB123_17
	jmp	LBB123_7
LBB123_5:
	.loc	13 3129 15
	movzbl	-151(%rbp), %eax
	movq	%rax, -248(%rbp)
	testq	%rax, %rax
	.loc	13 3129 9
	je	LBB123_12
	jmp	LBB123_32
LBB123_32:
	.loc	13 0 9
	movq	-248(%rbp), %rax
	.loc	13 3129 9
	subq	$2, %rax
	je	LBB123_13
	jmp	LBB123_33
LBB123_33:
	.loc	13 0 9
	movq	-248(%rbp), %rax
	.loc	13 3129 9
	subq	$4, %rax
	je	LBB123_14
	jmp	LBB123_7
LBB123_6:
	.loc	13 3129 15
	movzbl	-151(%rbp), %eax
	movq	%rax, -256(%rbp)
	testq	%rax, %rax
	.loc	13 3129 9
	je	LBB123_8
	jmp	LBB123_30
LBB123_30:
	.loc	13 0 9
	movq	-256(%rbp), %rax
	.loc	13 3129 9
	subq	$2, %rax
	je	LBB123_9
	jmp	LBB123_31
LBB123_31:
	.loc	13 0 9
	movq	-256(%rbp), %rax
	.loc	13 3129 9
	subq	$4, %rax
	je	LBB123_10
	jmp	LBB123_7
LBB123_7:
	.loc	13 3129 15
	movzbl	-151(%rbp), %eax
	.loc	13 3129 9
	cmpq	$1, %rax
	je	LBB123_24
	jmp	LBB123_25
LBB123_8:
	.loc	13 0 9
	movq	-200(%rbp), %rcx
	movq	-216(%rbp), %rdx
	movq	-208(%rbp), %rax
	.loc	13 3142 34 is_stmt 1
	lock		cmpxchgq	%rdx, (%rcx)
	movq	%rax, %rcx
	sete	%al
	andb	$1, %al
	movq	%rcx, -168(%rbp)
	movb	%al, -160(%rbp)
	.loc	13 3142 91 is_stmt 0
	jmp	LBB123_11
LBB123_9:
	.loc	13 0 91
	movq	-200(%rbp), %rcx
	movq	-216(%rbp), %rdx
	movq	-208(%rbp), %rax
	.loc	13 3143 34 is_stmt 1
	lock		cmpxchgq	%rdx, (%rcx)
	movq	%rax, %rcx
	sete	%al
	andb	$1, %al
	movq	%rcx, -168(%rbp)
	movb	%al, -160(%rbp)
	.loc	13 3143 91 is_stmt 0
	jmp	LBB123_11
LBB123_10:
	.loc	13 0 91
	movq	-200(%rbp), %rcx
	movq	-216(%rbp), %rdx
	movq	-208(%rbp), %rax
	.loc	13 3144 33 is_stmt 1
	lock		cmpxchgq	%rdx, (%rcx)
	movq	%rax, %rcx
	sete	%al
	andb	$1, %al
	movq	%rcx, -168(%rbp)
	movb	%al, -160(%rbp)
LBB123_11:
	.loc	13 3128 10
	movq	-168(%rbp), %rax
	movq	%rax, -264(%rbp)
	movq	%rax, -16(%rbp)
	.loc	13 3128 15 is_stmt 0
	movb	-160(%rbp), %al
	movb	%al, %cl
	andb	$1, %cl
	movb	%cl, -1(%rbp)
Ltmp494:
	.loc	13 3149 8 is_stmt 1
	testb	$1, %al
	jne	LBB123_27
	jmp	LBB123_26
Ltmp495:
LBB123_12:
	.loc	13 0 8 is_stmt 0
	movq	-200(%rbp), %rcx
	movq	-216(%rbp), %rdx
	movq	-208(%rbp), %rax
	.loc	13 3139 34 is_stmt 1
	lock		cmpxchgq	%rdx, (%rcx)
	movq	%rax, %rcx
	sete	%al
	andb	$1, %al
	movq	%rcx, -168(%rbp)
	movb	%al, -160(%rbp)
	.loc	13 3139 91 is_stmt 0
	jmp	LBB123_11
LBB123_13:
	.loc	13 0 91
	movq	-200(%rbp), %rcx
	movq	-216(%rbp), %rdx
	movq	-208(%rbp), %rax
	.loc	13 3140 34 is_stmt 1
	lock		cmpxchgq	%rdx, (%rcx)
	movq	%rax, %rcx
	sete	%al
	andb	$1, %al
	movq	%rcx, -168(%rbp)
	movb	%al, -160(%rbp)
	.loc	13 3140 91 is_stmt 0
	jmp	LBB123_11
LBB123_14:
	.loc	13 0 91
	movq	-200(%rbp), %rcx
	movq	-216(%rbp), %rdx
	movq	-208(%rbp), %rax
	.loc	13 3141 33 is_stmt 1
	lock		cmpxchgq	%rdx, (%rcx)
	movq	%rax, %rcx
	sete	%al
	andb	$1, %al
	movq	%rcx, -168(%rbp)
	movb	%al, -160(%rbp)
	.loc	13 3141 89 is_stmt 0
	jmp	LBB123_11
LBB123_15:
	.loc	13 0 89
	movq	-200(%rbp), %rcx
	movq	-216(%rbp), %rdx
	movq	-208(%rbp), %rax
	.loc	13 3133 35 is_stmt 1
	lock		cmpxchgq	%rdx, (%rcx)
	movq	%rax, %rcx
	sete	%al
	andb	$1, %al
	movq	%rcx, -168(%rbp)
	movb	%al, -160(%rbp)
	.loc	13 3133 93 is_stmt 0
	jmp	LBB123_11
LBB123_16:
	.loc	13 0 93
	movq	-200(%rbp), %rcx
	movq	-216(%rbp), %rdx
	movq	-208(%rbp), %rax
	.loc	13 3134 35 is_stmt 1
	lock		cmpxchgq	%rdx, (%rcx)
	movq	%rax, %rcx
	sete	%al
	andb	$1, %al
	movq	%rcx, -168(%rbp)
	movb	%al, -160(%rbp)
	.loc	13 3134 93 is_stmt 0
	jmp	LBB123_11
LBB123_17:
	.loc	13 0 93
	movq	-200(%rbp), %rcx
	movq	-216(%rbp), %rdx
	movq	-208(%rbp), %rax
	.loc	13 3135 34 is_stmt 1
	lock		cmpxchgq	%rdx, (%rcx)
	movq	%rax, %rcx
	sete	%al
	andb	$1, %al
	movq	%rcx, -168(%rbp)
	movb	%al, -160(%rbp)
	.loc	13 3135 91 is_stmt 0
	jmp	LBB123_11
LBB123_18:
	.loc	13 0 91
	movq	-200(%rbp), %rcx
	movq	-216(%rbp), %rdx
	movq	-208(%rbp), %rax
	.loc	13 3136 35 is_stmt 1
	lock		cmpxchgq	%rdx, (%rcx)
	movq	%rax, %rcx
	sete	%al
	andb	$1, %al
	movq	%rcx, -168(%rbp)
	movb	%al, -160(%rbp)
	.loc	13 3136 93 is_stmt 0
	jmp	LBB123_11
LBB123_19:
	.loc	13 0 93
	movq	-200(%rbp), %rcx
	movq	-216(%rbp), %rdx
	movq	-208(%rbp), %rax
	.loc	13 3137 35 is_stmt 1
	lock		cmpxchgq	%rdx, (%rcx)
	movq	%rax, %rcx
	sete	%al
	andb	$1, %al
	movq	%rcx, -168(%rbp)
	movb	%al, -160(%rbp)
	.loc	13 3137 93 is_stmt 0
	jmp	LBB123_11
LBB123_20:
	.loc	13 0 93
	movq	-200(%rbp), %rcx
	movq	-216(%rbp), %rdx
	movq	-208(%rbp), %rax
	.loc	13 3138 34 is_stmt 1
	lock		cmpxchgq	%rdx, (%rcx)
	movq	%rax, %rcx
	sete	%al
	andb	$1, %al
	movq	%rcx, -168(%rbp)
	movb	%al, -160(%rbp)
	.loc	13 3138 91 is_stmt 0
	jmp	LBB123_11
LBB123_21:
	.loc	13 0 91
	movq	-200(%rbp), %rcx
	movq	-216(%rbp), %rdx
	movq	-208(%rbp), %rax
	.loc	13 3130 35 is_stmt 1
	lock		cmpxchgq	%rdx, (%rcx)
	movq	%rax, %rcx
	sete	%al
	andb	$1, %al
	movq	%rcx, -168(%rbp)
	movb	%al, -160(%rbp)
	.loc	13 3130 93 is_stmt 0
	jmp	LBB123_11
LBB123_22:
	.loc	13 0 93
	movq	-200(%rbp), %rcx
	movq	-216(%rbp), %rdx
	movq	-208(%rbp), %rax
	.loc	13 3131 35 is_stmt 1
	lock		cmpxchgq	%rdx, (%rcx)
	movq	%rax, %rcx
	sete	%al
	andb	$1, %al
	movq	%rcx, -168(%rbp)
	movb	%al, -160(%rbp)
	.loc	13 3131 93 is_stmt 0
	jmp	LBB123_11
LBB123_23:
	.loc	13 0 93
	movq	-200(%rbp), %rcx
	movq	-216(%rbp), %rdx
	movq	-208(%rbp), %rax
	.loc	13 3132 34 is_stmt 1
	lock		cmpxchgq	%rdx, (%rcx)
	movq	%rax, %rcx
	sete	%al
	andb	$1, %al
	movq	%rcx, -168(%rbp)
	movb	%al, -160(%rbp)
	.loc	13 3132 91 is_stmt 0
	jmp	LBB123_11
LBB123_24:
	.loc	13 3146 29 is_stmt 1
	leaq	l___unnamed_23(%rip), %rsi
	leaq	l___unnamed_13(%rip), %rcx
	xorl	%eax, %eax
	movl	%eax, %r8d
	leaq	-96(%rbp), %rdi
	movq	%rdi, -272(%rbp)
	movl	$1, %edx
	callq	__ZN4core3fmt9Arguments6new_v117h2e6830ba6496e7b7E
	movq	-272(%rbp), %rdi
	leaq	l___unnamed_24(%rip), %rsi
	callq	__ZN4core9panicking9panic_fmt17h9b5d807e24bcaaedE
LBB123_25:
	.loc	13 3145 28
	leaq	l___unnamed_25(%rip), %rsi
	leaq	l___unnamed_13(%rip), %rcx
	xorl	%eax, %eax
	movl	%eax, %r8d
	leaq	-144(%rbp), %rdi
	movq	%rdi, -280(%rbp)
	movl	$1, %edx
	callq	__ZN4core3fmt9Arguments6new_v117h2e6830ba6496e7b7E
	movq	-280(%rbp), %rdi
	leaq	l___unnamed_26(%rip), %rsi
	callq	__ZN4core9panicking9panic_fmt17h9b5d807e24bcaaedE
LBB123_26:
	.loc	13 0 28 is_stmt 0
	movq	-264(%rbp), %rax
Ltmp496:
	.loc	13 3149 30 is_stmt 1
	movq	%rax, -176(%rbp)
	movq	$1, -184(%rbp)
	.loc	13 3149 5 is_stmt 0
	jmp	LBB123_28
LBB123_27:
	.loc	13 0 5
	movq	-264(%rbp), %rax
	.loc	13 3149 13
	movq	%rax, -176(%rbp)
	movq	$0, -184(%rbp)
Ltmp497:
LBB123_28:
	.loc	13 3150 2 is_stmt 1
	movq	-184(%rbp), %rax
	movq	-176(%rbp), %rdx
	addq	$288, %rsp
	popq	%rbp
	retq
Ltmp498:
Lfunc_end123:
	.cfi_endproc
	.p2align	2, 0x90
	.data_region jt32
.set L123_0_set_2, LBB123_2-LJTI123_0
.set L123_0_set_3, LBB123_3-LJTI123_0
.set L123_0_set_4, LBB123_4-LJTI123_0
.set L123_0_set_5, LBB123_5-LJTI123_0
.set L123_0_set_6, LBB123_6-LJTI123_0
LJTI123_0:
	.long	L123_0_set_2
	.long	L123_0_set_3
	.long	L123_0_set_4
	.long	L123_0_set_5
	.long	L123_0_set_6
	.end_data_region

	.p2align	4, 0x90
__ZN4core4sync6atomic5fence17hb47053d0a24f5222E:
Lfunc_begin124:
	.loc	13 3362 0
	.cfi_startproc
	pushq	%rbp
	.cfi_def_cfa_offset 16
	.cfi_offset %rbp, -16
	movq	%rsp, %rbp
	.cfi_def_cfa_register %rbp
	subq	$80, %rsp
	movb	%dil, %al
	movb	%al, -49(%rbp)
Ltmp499:
	.loc	13 3365 15 prologue_end
	movzbl	-49(%rbp), %eax
	movq	%rax, -64(%rbp)
	.loc	13 0 15 is_stmt 0
	movq	-64(%rbp), %rax
	leaq	LJTI124_0(%rip), %rcx
	movslq	(%rcx,%rax,4), %rax
	addq	%rcx, %rax
	jmpq	*%rax
	.loc	13 3365 15
	ud2
LBB124_2:
	.loc	13 3370 24 is_stmt 1
	leaq	l___unnamed_27(%rip), %rsi
	leaq	l___unnamed_13(%rip), %rcx
	xorl	%eax, %eax
	movl	%eax, %r8d
	leaq	-48(%rbp), %rdi
	movq	%rdi, -72(%rbp)
	movl	$1, %edx
	callq	__ZN4core3fmt9Arguments6new_v117h2e6830ba6496e7b7E
	movq	-72(%rbp), %rdi
	leaq	l___unnamed_28(%rip), %rsi
	callq	__ZN4core9panicking9panic_fmt17h9b5d807e24bcaaedE
LBB124_3:
	##MEMBARRIER
	.loc	13 3367 24
	jmp	LBB124_7
LBB124_4:
	##MEMBARRIER
	.loc	13 3366 24
	jmp	LBB124_7
LBB124_5:
	##MEMBARRIER
	.loc	13 3368 23
	jmp	LBB124_7
LBB124_6:
	.loc	13 3369 23
	mfence
LBB124_7:
	.loc	13 3373 2
	addq	$80, %rsp
	popq	%rbp
	retq
Ltmp500:
Lfunc_end124:
	.cfi_endproc
	.p2align	2, 0x90
	.data_region jt32
.set L124_0_set_2, LBB124_2-LJTI124_0
.set L124_0_set_3, LBB124_3-LJTI124_0
.set L124_0_set_4, LBB124_4-LJTI124_0
.set L124_0_set_5, LBB124_5-LJTI124_0
.set L124_0_set_6, LBB124_6-LJTI124_0
LJTI124_0:
	.long	L124_0_set_2
	.long	L124_0_set_3
	.long	L124_0_set_4
	.long	L124_0_set_5
	.long	L124_0_set_6
	.end_data_region

	.globl	__ZN4core4sync6atomic9atomic_or17haf178aa6541fd5afE
	.p2align	4, 0x90
__ZN4core4sync6atomic9atomic_or17haf178aa6541fd5afE:
Lfunc_begin125:
	.loc	13 3187 0
	.cfi_startproc
	pushq	%rbp
	.cfi_def_cfa_offset 16
	.cfi_offset %rbp, -16
	movq	%rsp, %rbp
	.cfi_def_cfa_register %rbp
	subq	$136, %rsp
	movq	%rsi, -56(%rbp)
	movq	%rdi, -48(%rbp)
	movb	%dl, %al
	movb	%al, -25(%rbp)
	movq	%rdi, -16(%rbp)
	movq	%rsi, -8(%rbp)
Ltmp501:
	.loc	13 3190 15 prologue_end
	movzbl	-25(%rbp), %eax
	movq	%rax, -40(%rbp)
	.loc	13 0 15 is_stmt 0
	movq	-40(%rbp), %rax
	leaq	LJTI125_0(%rip), %rcx
	movslq	(%rcx,%rax,4), %rax
	addq	%rcx, %rax
	jmpq	*%rax
	.loc	13 3190 15
	ud2
LBB125_2:
	.loc	13 0 15
	movq	-48(%rbp), %rax
	.loc	13 3195 24 is_stmt 1
	movq	(%rax), %rax
	movq	%rax, -64(%rbp)
LBB125_3:
	.loc	13 0 24 is_stmt 0
	movq	-64(%rbp), %rax
	movq	-48(%rbp), %rcx
	movq	-56(%rbp), %rsi
	.loc	13 3195 24
	movq	%rax, %rdx
	orq	%rsi, %rdx
	lock		cmpxchgq	%rdx, (%rcx)
	sete	%cl
	movq	%rax, -72(%rbp)
	testb	$1, %cl
	movq	%rax, -64(%rbp)
	jne	LBB125_4
	jmp	LBB125_3
LBB125_4:
	.loc	13 0 24
	movq	-72(%rbp), %rax
	.loc	13 3195 24
	movq	%rax, -24(%rbp)
	.loc	13 3195 62
	jmp	LBB125_17
LBB125_5:
	.loc	13 0 62
	movq	-48(%rbp), %rax
	.loc	13 3193 24 is_stmt 1
	movq	(%rax), %rax
	movq	%rax, -80(%rbp)
LBB125_6:
	.loc	13 0 24 is_stmt 0
	movq	-80(%rbp), %rax
	movq	-48(%rbp), %rcx
	movq	-56(%rbp), %rsi
	.loc	13 3193 24
	movq	%rax, %rdx
	orq	%rsi, %rdx
	lock		cmpxchgq	%rdx, (%rcx)
	sete	%cl
	movq	%rax, -88(%rbp)
	testb	$1, %cl
	movq	%rax, -80(%rbp)
	jne	LBB125_7
	jmp	LBB125_6
LBB125_7:
	.loc	13 0 24
	movq	-88(%rbp), %rax
	.loc	13 3193 24
	movq	%rax, -24(%rbp)
	.loc	13 3193 62
	jmp	LBB125_17
LBB125_8:
	.loc	13 0 62
	movq	-48(%rbp), %rax
	.loc	13 3192 24 is_stmt 1
	movq	(%rax), %rax
	movq	%rax, -96(%rbp)
LBB125_9:
	.loc	13 0 24 is_stmt 0
	movq	-96(%rbp), %rax
	movq	-48(%rbp), %rcx
	movq	-56(%rbp), %rsi
	.loc	13 3192 24
	movq	%rax, %rdx
	orq	%rsi, %rdx
	lock		cmpxchgq	%rdx, (%rcx)
	sete	%cl
	movq	%rax, -104(%rbp)
	testb	$1, %cl
	movq	%rax, -96(%rbp)
	jne	LBB125_10
	jmp	LBB125_9
LBB125_10:
	.loc	13 0 24
	movq	-104(%rbp), %rax
	.loc	13 3192 24
	movq	%rax, -24(%rbp)
	.loc	13 3192 62
	jmp	LBB125_17
LBB125_11:
	.loc	13 0 62
	movq	-48(%rbp), %rax
	.loc	13 3194 23 is_stmt 1
	movq	(%rax), %rax
	movq	%rax, -112(%rbp)
LBB125_12:
	.loc	13 0 23 is_stmt 0
	movq	-112(%rbp), %rax
	movq	-48(%rbp), %rcx
	movq	-56(%rbp), %rsi
	.loc	13 3194 23
	movq	%rax, %rdx
	orq	%rsi, %rdx
	lock		cmpxchgq	%rdx, (%rcx)
	sete	%cl
	movq	%rax, -120(%rbp)
	testb	$1, %cl
	movq	%rax, -112(%rbp)
	jne	LBB125_13
	jmp	LBB125_12
LBB125_13:
	.loc	13 0 23
	movq	-120(%rbp), %rax
	.loc	13 3194 23
	movq	%rax, -24(%rbp)
	.loc	13 3194 60
	jmp	LBB125_17
LBB125_14:
	.loc	13 0 60
	movq	-48(%rbp), %rax
	.loc	13 3191 23 is_stmt 1
	movq	(%rax), %rax
	movq	%rax, -128(%rbp)
LBB125_15:
	.loc	13 0 23 is_stmt 0
	movq	-128(%rbp), %rax
	movq	-48(%rbp), %rcx
	movq	-56(%rbp), %rsi
	.loc	13 3191 23
	movq	%rax, %rdx
	orq	%rsi, %rdx
	lock		cmpxchgq	%rdx, (%rcx)
	sete	%cl
	movq	%rax, -136(%rbp)
	testb	$1, %cl
	movq	%rax, -128(%rbp)
	jne	LBB125_16
	jmp	LBB125_15
LBB125_16:
	.loc	13 0 23
	movq	-136(%rbp), %rax
	.loc	13 3191 23
	movq	%rax, -24(%rbp)
LBB125_17:
	.loc	13 3198 2 is_stmt 1
	movq	-24(%rbp), %rax
	addq	$136, %rsp
	popq	%rbp
	retq
Ltmp502:
Lfunc_end125:
	.cfi_endproc
	.p2align	2, 0x90
	.data_region jt32
.set L125_0_set_2, LBB125_2-LJTI125_0
.set L125_0_set_5, LBB125_5-LJTI125_0
.set L125_0_set_8, LBB125_8-LJTI125_0
.set L125_0_set_11, LBB125_11-LJTI125_0
.set L125_0_set_14, LBB125_14-LJTI125_0
LJTI125_0:
	.long	L125_0_set_2
	.long	L125_0_set_5
	.long	L125_0_set_8
	.long	L125_0_set_11
	.long	L125_0_set_14
	.end_data_region

	.globl	__ZN4core5alloc6layout6Layout13for_value_raw17h089bbb350a315402E
	.p2align	4, 0x90
__ZN4core5alloc6layout6Layout13for_value_raw17h089bbb350a315402E:
Lfunc_begin126:
	.file	32 "/rustc/2c8cc343237b8f7d5a3c3703e3a87f2eb2c54a74/library/core/src/alloc" "layout.rs"
	.loc	32 197 0
	.cfi_startproc
	pushq	%rbp
	.cfi_def_cfa_offset 16
	.cfi_offset %rbp, -16
	movq	%rsp, %rbp
	.cfi_def_cfa_register %rbp
	subq	$120, %rsp
	movq	%rdi, -88(%rbp)
Ltmp503:
	.loc	32 199 60 prologue_end
	movq	%rdi, -80(%rbp)
Ltmp504:
	.loc	16 387 14
	movq	$640, -72(%rbp)
	movq	-72(%rbp), %rcx
Ltmp505:
	.loc	32 199 86
	movq	%rdi, -64(%rbp)
Ltmp506:
	.loc	16 529 14
	movq	$128, -56(%rbp)
	movq	-56(%rbp), %rax
Ltmp507:
	.loc	32 199 38
	movq	%rcx, -104(%rbp)
	movq	%rax, -96(%rbp)
	.loc	32 199 14 is_stmt 0
	movq	-104(%rbp), %rcx
	movq	%rcx, -48(%rbp)
	.loc	32 199 20
	movq	-96(%rbp), %rax
	movq	%rax, -40(%rbp)
Ltmp508:
	.loc	32 201 52 is_stmt 1
	movq	%rcx, -32(%rbp)
	.loc	32 201 58 is_stmt 0
	movq	%rax, -24(%rbp)
Ltmp509:
	.loc	32 120 65 is_stmt 1
	movq	%rax, -16(%rbp)
Ltmp510:
	.file	33 "/rustc/2c8cc343237b8f7d5a3c3703e3a87f2eb2c54a74/library/core/src/ptr" "alignment.rs"
	.loc	33 89 18
	movq	%rax, -8(%rbp)
	movq	-8(%rbp), %rax
Ltmp511:
	.loc	32 120 18
	movq	%rcx, -120(%rbp)
	movq	%rax, -112(%rbp)
Ltmp512:
	.loc	32 202 6
	movq	-120(%rbp), %rax
	movq	-112(%rbp), %rdx
	addq	$120, %rsp
	popq	%rbp
	retq
Ltmp513:
Lfunc_end126:
	.cfi_endproc

	.globl	__ZN4core5array85_$LT$impl$u20$core..ops..index..Index$LT$I$GT$$u20$for$u20$$u5b$T$u3b$$u20$N$u5d$$GT$5index17h19adf3a3b7d38500E
	.p2align	4, 0x90
__ZN4core5array85_$LT$impl$u20$core..ops..index..Index$LT$I$GT$$u20$for$u20$$u5b$T$u3b$$u20$N$u5d$$GT$5index17h19adf3a3b7d38500E:
Lfunc_begin127:
	.file	34 "/rustc/2c8cc343237b8f7d5a3c3703e3a87f2eb2c54a74/library/core/src/array" "mod.rs"
	.loc	34 357 0
	.cfi_startproc
	pushq	%rbp
	.cfi_def_cfa_offset 16
	.cfi_offset %rbp, -16
	movq	%rsp, %rbp
	.cfi_def_cfa_register %rbp
	subq	$16, %rsp
	movq	%rdx, %rcx
	movq	%rsi, %rdx
	movq	%rdi, -16(%rbp)
	movq	%rdx, -8(%rbp)
	movl	$64, %esi
Ltmp514:
	.loc	34 358 9 prologue_end
	callq	__ZN4core5slice5index74_$LT$impl$u20$core..ops..index..Index$LT$I$GT$$u20$for$u20$$u5b$T$u5d$$GT$5index17h8ca2f77af17063f3E
	.loc	34 359 6
	addq	$16, %rsp
	popq	%rbp
	retq
Ltmp515:
Lfunc_end127:
	.cfi_endproc

	.globl	__ZN4core5array88_$LT$impl$u20$core..ops..index..IndexMut$LT$I$GT$$u20$for$u20$$u5b$T$u3b$$u20$N$u5d$$GT$9index_mut17h37c71093018cdce2E
	.p2align	4, 0x90
__ZN4core5array88_$LT$impl$u20$core..ops..index..IndexMut$LT$I$GT$$u20$for$u20$$u5b$T$u3b$$u20$N$u5d$$GT$9index_mut17h37c71093018cdce2E:
Lfunc_begin128:
	.loc	34 369 0
	.cfi_startproc
	pushq	%rbp
	.cfi_def_cfa_offset 16
	.cfi_offset %rbp, -16
	movq	%rsp, %rbp
	.cfi_def_cfa_register %rbp
	subq	$16, %rsp
	movq	%rdx, %rcx
	movq	%rsi, %rdx
	movq	%rdi, -16(%rbp)
	movq	%rdx, -8(%rbp)
	movl	$64, %esi
Ltmp516:
	.loc	34 370 9 prologue_end
	callq	__ZN4core5slice5index77_$LT$impl$u20$core..ops..index..IndexMut$LT$I$GT$$u20$for$u20$$u5b$T$u5d$$GT$9index_mut17h8381ced14b4b2903E
	.loc	34 371 6
	addq	$16, %rsp
	popq	%rbp
	retq
Ltmp517:
Lfunc_end128:
	.cfi_endproc

	.globl	__ZN4core5slice4iter13Iter$LT$T$GT$3new17h70500a976fad6fafE
	.p2align	4, 0x90
__ZN4core5slice4iter13Iter$LT$T$GT$3new17h70500a976fad6fafE:
Lfunc_begin129:
	.file	35 "/rustc/2c8cc343237b8f7d5a3c3703e3a87f2eb2c54a74/library/core/src/slice" "iter.rs"
	.loc	35 82 0
	.cfi_startproc
	pushq	%rbp
	.cfi_def_cfa_offset 16
	.cfi_offset %rbp, -16
	movq	%rsp, %rbp
	.cfi_def_cfa_register %rbp
	subq	$280, %rsp
	movq	%rdi, -280(%rbp)
	movq	%rsi, -272(%rbp)
	movq	%rdi, -208(%rbp)
	movq	%rsi, -200(%rbp)
Ltmp518:
	.loc	35 83 19 prologue_end
	movq	%rdi, -184(%rbp)
	movq	%rsi, -176(%rbp)
Ltmp519:
	.loc	23 477 9
	movq	%rdi, -168(%rbp)
Ltmp520:
	.loc	35 86 21
	movq	%rdi, -160(%rbp)
Ltmp521:
	.loc	5 53 36
	movq	%rdi, -232(%rbp)
	.loc	5 53 18 is_stmt 0
	movq	-232(%rbp), %rax
	movq	%rax, -152(%rbp)
Ltmp522:
	.loc	5 39 13 is_stmt 1
	movq	%rax, -144(%rbp)
Ltmp523:
	.loc	5 209 33
	movq	%rax, -136(%rbp)
	.loc	5 209 18 is_stmt 0
	movq	%rax, -128(%rbp)
Ltmp524:
	.loc	35 89 20 is_stmt 1
	xorl	%eax, %eax
	testb	$1, %al
	jne	LBB129_2
	.loc	35 0 20 is_stmt 0
	movq	-280(%rbp), %rax
	movq	-272(%rbp), %rcx
	.loc	35 89 76
	movq	%rax, -40(%rbp)
	.loc	35 89 84
	movq	%rcx, -32(%rbp)
Ltmp525:
	.loc	5 932 18 is_stmt 1
	movq	%rax, -24(%rbp)
	.loc	5 932 30 is_stmt 0
	movq	%rcx, -16(%rbp)
Ltmp526:
	.loc	5 473 18 is_stmt 1
	shlq	$5, %rcx
	addq	%rcx, %rax
	movq	%rax, -248(%rbp)
Ltmp527:
	.loc	35 89 17
	jmp	LBB129_3
LBB129_2:
	.loc	35 0 17 is_stmt 0
	movq	-272(%rbp), %rcx
	movq	-280(%rbp), %rax
	.loc	35 89 32
	movq	%rax, -120(%rbp)
	.loc	35 89 54
	movq	%rcx, -112(%rbp)
Ltmp528:
	.loc	5 1118 9 is_stmt 1
	movq	%rax, -104(%rbp)
Ltmp529:
	.loc	5 61 9
	movq	%rax, -96(%rbp)
Ltmp530:
	.loc	5 1118 40
	movq	%rcx, -88(%rbp)
Ltmp531:
	.loc	5 1100 9
	movq	%rax, -80(%rbp)
	.loc	5 1100 30 is_stmt 0
	movq	%rcx, -72(%rbp)
Ltmp532:
	.loc	5 555 18 is_stmt 1
	addq	%rcx, %rax
	movq	%rax, -64(%rbp)
	movq	-64(%rbp), %rax
	movq	%rax, -56(%rbp)
Ltmp533:
	.loc	5 100 29
	movq	%rax, -48(%rbp)
Ltmp534:
	.loc	7 118 36
	movq	%rax, -216(%rbp)
	.loc	7 118 14 is_stmt 0
	movq	-216(%rbp), %rax
	movq	%rax, -224(%rbp)
	movq	-224(%rbp), %rax
	movq	%rax, -248(%rbp)
Ltmp535:
LBB129_3:
	.loc	7 0 14
	movq	-280(%rbp), %rax
Ltmp536:
	.loc	35 91 48 is_stmt 1
	movq	%rax, -8(%rbp)
Ltmp537:
	.file	36 "/rustc/2c8cc343237b8f7d5a3c3703e3a87f2eb2c54a74/library/core/src/ptr" "non_null.rs"
	.loc	36 201 13
	movq	%rax, -240(%rbp)
Ltmp538:
	.loc	35 91 64
	movq	-248(%rbp), %rax
	.loc	35 91 13 is_stmt 0
	movq	-240(%rbp), %rcx
	movq	%rcx, -256(%rbp)
	movq	%rax, -264(%rbp)
Ltmp539:
	.loc	35 93 6 is_stmt 1
	movq	-264(%rbp), %rax
	movq	-256(%rbp), %rdx
	addq	$280, %rsp
	popq	%rbp
	retq
Ltmp540:
Lfunc_end129:
	.cfi_endproc

	.globl	__ZN4core5slice4iter16IterMut$LT$T$GT$3new17h9a968435da211d18E
	.p2align	4, 0x90
__ZN4core5slice4iter16IterMut$LT$T$GT$3new17h9a968435da211d18E:
Lfunc_begin130:
	.loc	35 203 0
	.cfi_startproc
	pushq	%rbp
	.cfi_def_cfa_offset 16
	.cfi_offset %rbp, -16
	movq	%rsp, %rbp
	.cfi_def_cfa_register %rbp
	subq	$288, %rsp
	movq	%rdi, -288(%rbp)
	movq	%rsi, -280(%rbp)
	movq	%rdi, -216(%rbp)
	movq	%rsi, -208(%rbp)
Ltmp541:
	.loc	35 204 19 prologue_end
	movq	%rdi, -192(%rbp)
	movq	%rsi, -184(%rbp)
Ltmp542:
	.loc	23 507 9
	movq	%rdi, -176(%rbp)
Ltmp543:
	.loc	35 222 21
	movq	%rdi, -168(%rbp)
Ltmp544:
	.loc	8 52 36
	movq	%rdi, -240(%rbp)
	.loc	8 52 18 is_stmt 0
	movq	-240(%rbp), %rax
	movq	%rax, -160(%rbp)
Ltmp545:
	.loc	8 38 13 is_stmt 1
	movq	%rax, -152(%rbp)
Ltmp546:
	.loc	8 215 33
	movq	%rax, -144(%rbp)
	.loc	8 215 18 is_stmt 0
	movq	%rax, -136(%rbp)
Ltmp547:
	.loc	35 225 20 is_stmt 1
	xorl	%eax, %eax
	testb	$1, %al
	jne	LBB130_2
	.loc	35 0 20 is_stmt 0
	movq	-288(%rbp), %rax
	movq	-280(%rbp), %rcx
	.loc	35 225 76
	movq	%rax, -48(%rbp)
	.loc	35 225 84
	movq	%rcx, -40(%rbp)
Ltmp548:
	.loc	8 1034 18 is_stmt 1
	movq	%rax, -32(%rbp)
	.loc	8 1034 30 is_stmt 0
	movq	%rcx, -24(%rbp)
Ltmp549:
	.loc	8 487 18 is_stmt 1
	shlq	$5, %rcx
	addq	%rcx, %rax
	movq	%rax, -16(%rbp)
	movq	-16(%rbp), %rax
	movq	%rax, -256(%rbp)
Ltmp550:
	.loc	35 225 17
	jmp	LBB130_3
LBB130_2:
	.loc	35 0 17 is_stmt 0
	movq	-280(%rbp), %rcx
	movq	-288(%rbp), %rax
	.loc	35 225 32
	movq	%rax, -128(%rbp)
	.loc	35 225 54
	movq	%rcx, -120(%rbp)
Ltmp551:
	.loc	8 1220 9 is_stmt 1
	movq	%rax, -112(%rbp)
Ltmp552:
	.loc	8 60 9
	movq	%rax, -104(%rbp)
Ltmp553:
	.loc	8 1220 40
	movq	%rcx, -96(%rbp)
Ltmp554:
	.loc	8 1202 9
	movq	%rax, -88(%rbp)
	.loc	8 1202 30 is_stmt 0
	movq	%rcx, -80(%rbp)
Ltmp555:
	.loc	8 568 18 is_stmt 1
	addq	%rcx, %rax
	movq	%rax, -72(%rbp)
	movq	-72(%rbp), %rax
	movq	%rax, -64(%rbp)
Ltmp556:
	.loc	8 99 33
	movq	%rax, -56(%rbp)
Ltmp557:
	.loc	7 135 36
	movq	%rax, -224(%rbp)
	.loc	7 135 14 is_stmt 0
	movq	-224(%rbp), %rax
	movq	%rax, -232(%rbp)
	movq	-232(%rbp), %rax
	movq	%rax, -256(%rbp)
Ltmp558:
LBB130_3:
	.loc	7 0 14
	movq	-288(%rbp), %rax
Ltmp559:
	.loc	35 227 48 is_stmt 1
	movq	%rax, -8(%rbp)
Ltmp560:
	.loc	36 201 13
	movq	%rax, -248(%rbp)
Ltmp561:
	.loc	35 227 54
	movq	-256(%rbp), %rax
	.loc	35 227 13 is_stmt 0
	movq	-248(%rbp), %rcx
	movq	%rcx, -264(%rbp)
	movq	%rax, -272(%rbp)
Ltmp562:
	.loc	35 229 6 is_stmt 1
	movq	-272(%rbp), %rax
	movq	-264(%rbp), %rdx
	addq	$288, %rsp
	popq	%rbp
	retq
Ltmp563:
Lfunc_end130:
	.cfi_endproc

	.globl	__ZN4core5slice4iter95_$LT$impl$u20$core..iter..traits..collect..IntoIterator$u20$for$u20$$RF$mut$u20$$u5b$T$u5d$$GT$9into_iter17hc1834aa2ca5dadfeE
	.p2align	4, 0x90
__ZN4core5slice4iter95_$LT$impl$u20$core..iter..traits..collect..IntoIterator$u20$for$u20$$RF$mut$u20$$u5b$T$u5d$$GT$9into_iter17hc1834aa2ca5dadfeE:
Lfunc_begin131:
	.loc	35 33 0
	.cfi_startproc
	pushq	%rbp
	.cfi_def_cfa_offset 16
	.cfi_offset %rbp, -16
	movq	%rsp, %rbp
	.cfi_def_cfa_register %rbp
	subq	$32, %rsp
	movq	%rdi, -32(%rbp)
	movq	%rsi, -24(%rbp)
Ltmp564:
	.loc	35 34 9 prologue_end
	movq	%rdi, -16(%rbp)
	movq	%rsi, -8(%rbp)
Ltmp565:
	.loc	23 761 9
	callq	__ZN4core5slice4iter16IterMut$LT$T$GT$3new17h9a968435da211d18E
Ltmp566:
	.loc	35 35 6
	addq	$32, %rsp
	popq	%rbp
	retq
Ltmp567:
Lfunc_end131:
	.cfi_endproc

	.globl	__ZN4core5slice5index74_$LT$impl$u20$core..ops..index..Index$LT$I$GT$$u20$for$u20$$u5b$T$u5d$$GT$5index17h8ca2f77af17063f3E
	.p2align	4, 0x90
__ZN4core5slice5index74_$LT$impl$u20$core..ops..index..Index$LT$I$GT$$u20$for$u20$$u5b$T$u5d$$GT$5index17h8ca2f77af17063f3E:
Lfunc_begin132:
	.loc	4 17 0
	.cfi_startproc
	pushq	%rbp
	.cfi_def_cfa_offset 16
	.cfi_offset %rbp, -16
	movq	%rsp, %rbp
	.cfi_def_cfa_register %rbp
	subq	$32, %rsp
	movq	%rdx, -32(%rbp)
	movq	%rsi, %rdx
	movq	%rdi, %rsi
	movq	-32(%rbp), %rdi
	movq	%rsi, -24(%rbp)
	movq	%rdx, -16(%rbp)
	movq	%rdi, -8(%rbp)
Ltmp568:
	.loc	4 18 9 prologue_end
	callq	__ZN108_$LT$core..ops..range..RangeTo$LT$usize$GT$$u20$as$u20$core..slice..index..SliceIndex$LT$$u5b$T$u5d$$GT$$GT$5index17h75f8b64e72e7ad9aE
	.loc	4 19 6
	addq	$32, %rsp
	popq	%rbp
	retq
Ltmp569:
Lfunc_end132:
	.cfi_endproc

	.globl	__ZN4core5slice5index77_$LT$impl$u20$core..ops..index..IndexMut$LT$I$GT$$u20$for$u20$$u5b$T$u5d$$GT$9index_mut17h8381ced14b4b2903E
	.p2align	4, 0x90
__ZN4core5slice5index77_$LT$impl$u20$core..ops..index..IndexMut$LT$I$GT$$u20$for$u20$$u5b$T$u5d$$GT$9index_mut17h8381ced14b4b2903E:
Lfunc_begin133:
	.loc	4 29 0
	.cfi_startproc
	pushq	%rbp
	.cfi_def_cfa_offset 16
	.cfi_offset %rbp, -16
	movq	%rsp, %rbp
	.cfi_def_cfa_register %rbp
	subq	$32, %rsp
	movq	%rdx, -32(%rbp)
	movq	%rsi, %rdx
	movq	%rdi, %rsi
	movq	-32(%rbp), %rdi
	movq	%rsi, -24(%rbp)
	movq	%rdx, -16(%rbp)
	movq	%rdi, -8(%rbp)
Ltmp570:
	.loc	4 30 9 prologue_end
	callq	__ZN108_$LT$core..ops..range..RangeTo$LT$usize$GT$$u20$as$u20$core..slice..index..SliceIndex$LT$$u5b$T$u5d$$GT$$GT$9index_mut17hc56c301c73e5ca61E
	.loc	4 31 6
	addq	$32, %rsp
	popq	%rbp
	retq
Ltmp571:
Lfunc_end133:
	.cfi_endproc

	.globl	__ZN4core6option15Option$LT$T$GT$3map17h13c56bcf6473c3d1E
	.p2align	4, 0x90
__ZN4core6option15Option$LT$T$GT$3map17h13c56bcf6473c3d1E:
Lfunc_begin134:
	.loc	14 964 0
	.cfi_startproc
	pushq	%rbp
	.cfi_def_cfa_offset 16
	.cfi_offset %rbp, -16
	movq	%rsp, %rbp
	.cfi_def_cfa_register %rbp
	subq	$48, %rsp
	movq	%rdi, -48(%rbp)
Ltmp572:
	.loc	14 969 15 prologue_end
	movb	$1, -17(%rbp)
	movq	-48(%rbp), %rdx
	movl	$1, %eax
	xorl	%ecx, %ecx
	cmpq	$0, %rdx
	cmoveq	%rcx, %rax
	.loc	14 969 9 is_stmt 0
	cmpq	$0, %rax
	jne	LBB134_2
	.loc	14 971 21 is_stmt 1
	movq	$0, -40(%rbp)
	jmp	LBB134_3
LBB134_2:
	.loc	14 970 18
	movq	-48(%rbp), %rax
	movq	%rax, -8(%rbp)
Ltmp573:
	.loc	14 970 29 is_stmt 0
	movb	$0, -17(%rbp)
	movq	%rax, -32(%rbp)
	movq	-32(%rbp), %rdi
	callq	__ZN15crossbeam_epoch5guard5Guard9collector28_$u7b$$u7b$closure$u7d$$u7d$17h35532db67541019aE
	.loc	14 970 24
	movq	%rax, -40(%rbp)
Ltmp574:
LBB134_3:
	.loc	14 973 5 is_stmt 1
	testb	$1, -17(%rbp)
	jne	LBB134_5
LBB134_4:
	.loc	14 973 6 is_stmt 0
	movq	-40(%rbp), %rax
	addq	$48, %rsp
	popq	%rbp
	retq
LBB134_5:
	.loc	14 973 5
	jmp	LBB134_4
Ltmp575:
Lfunc_end134:
	.cfi_endproc

	.globl	__ZN4core6option15Option$LT$T$GT$4take17h8369fc4fc3c529cbE
	.p2align	4, 0x90
__ZN4core6option15Option$LT$T$GT$4take17h8369fc4fc3c529cbE:
Lfunc_begin135:
	.loc	14 1621 0 is_stmt 1
	.cfi_startproc
	pushq	%rbp
	.cfi_def_cfa_offset 16
	.cfi_offset %rbp, -16
	movq	%rsp, %rbp
	.cfi_def_cfa_register %rbp
	subq	$32, %rsp
	movq	%rdi, -8(%rbp)
Ltmp576:
	.loc	14 1623 28 prologue_end
	movq	$0, -24(%rbp)
	.loc	14 1623 9 is_stmt 0
	movq	-24(%rbp), %rsi
	movq	-16(%rbp), %rdx
	callq	__ZN4core3mem7replace17h8459bb761c4c0440E
	.loc	14 1624 6 is_stmt 1
	addq	$32, %rsp
	popq	%rbp
	retq
Ltmp577:
Lfunc_end135:
	.cfi_endproc

	.globl	__ZN4core6option15Option$LT$T$GT$6unwrap17h089f6b23d5680333E
	.p2align	4, 0x90
__ZN4core6option15Option$LT$T$GT$6unwrap17h089f6b23d5680333E:
Lfunc_begin136:
	.loc	14 820 0
	.cfi_startproc
	pushq	%rbp
	.cfi_def_cfa_offset 16
	.cfi_offset %rbp, -16
	movq	%rsp, %rbp
	.cfi_def_cfa_register %rbp
	subq	$32, %rsp
	movq	%rdx, -32(%rbp)
	movq	%rdi, -24(%rbp)
	movq	%rsi, -16(%rbp)
Ltmp578:
	.loc	14 821 9 prologue_end
	cmpq	$0, -24(%rbp)
	jne	LBB136_2
	.loc	14 0 9 is_stmt 0
	movq	-32(%rbp), %rdx
	.loc	14 823 21 is_stmt 1
	leaq	l___unnamed_10(%rip), %rdi
	movl	$43, %esi
	callq	__ZN4core9panicking5panic17hc1bc45270cf64b03E
LBB136_2:
	.loc	14 822 18
	movq	-16(%rbp), %rax
	movq	%rax, -8(%rbp)
	.loc	14 825 6
	addq	$32, %rsp
	popq	%rbp
	retq
Ltmp579:
Lfunc_end136:
	.cfi_endproc

	.globl	__ZN4core6option15Option$LT$T$GT$7is_some17h779ea7b54b7b7ef4E
	.p2align	4, 0x90
__ZN4core6option15Option$LT$T$GT$7is_some17h779ea7b54b7b7ef4E:
Lfunc_begin137:
	.loc	14 597 0
	.cfi_startproc
	pushq	%rbp
	.cfi_def_cfa_offset 16
	.cfi_offset %rbp, -16
	movq	%rsp, %rbp
	.cfi_def_cfa_register %rbp
	subq	$16, %rsp
	movq	%rdi, -8(%rbp)
Ltmp580:
	.loc	14 598 18 prologue_end
	movq	(%rdi), %rdx
	movl	$1, %eax
	xorl	%ecx, %ecx
	cmpq	$0, %rdx
	cmoveq	%rcx, %rax
	.loc	14 598 9 is_stmt 0
	cmpq	$1, %rax
	jne	LBB137_2
	movb	$1, -9(%rbp)
	jmp	LBB137_3
LBB137_2:
	movb	$0, -9(%rbp)
LBB137_3:
	.loc	14 599 6 is_stmt 1
	movb	-9(%rbp), %al
	andb	$1, %al
	movzbl	%al, %eax
	addq	$16, %rsp
	popq	%rbp
	retq
Ltmp581:
Lfunc_end137:
	.cfi_endproc

	.globl	__ZN4core6option15Option$LT$T$GT$7is_some17hffa0acfccf2113a6E
	.p2align	4, 0x90
__ZN4core6option15Option$LT$T$GT$7is_some17hffa0acfccf2113a6E:
Lfunc_begin138:
	.loc	14 597 0
	.cfi_startproc
	pushq	%rbp
	.cfi_def_cfa_offset 16
	.cfi_offset %rbp, -16
	movq	%rsp, %rbp
	.cfi_def_cfa_register %rbp
	subq	$16, %rsp
	movq	%rdi, -8(%rbp)
Ltmp582:
	.loc	14 598 18 prologue_end
	movq	32(%rdi), %rdx
	movl	$1, %eax
	xorl	%ecx, %ecx
	cmpq	$0, %rdx
	cmoveq	%rcx, %rax
	.loc	14 598 9 is_stmt 0
	cmpq	$1, %rax
	jne	LBB138_2
	movb	$1, -9(%rbp)
	jmp	LBB138_3
LBB138_2:
	movb	$0, -9(%rbp)
LBB138_3:
	.loc	14 599 6 is_stmt 1
	movb	-9(%rbp), %al
	andb	$1, %al
	movzbl	%al, %eax
	addq	$16, %rsp
	popq	%rbp
	retq
Ltmp583:
Lfunc_end138:
	.cfi_endproc

	.globl	__ZN4core6result19Result$LT$T$C$E$GT$3map17h21cd9d0f95cab26cE
	.p2align	4, 0x90
__ZN4core6result19Result$LT$T$C$E$GT$3map17h21cd9d0f95cab26cE:
Lfunc_begin139:
	.file	37 "/rustc/2c8cc343237b8f7d5a3c3703e3a87f2eb2c54a74/library/core/src" "result.rs"
	.loc	37 772 0
	.cfi_startproc
	pushq	%rbp
	.cfi_def_cfa_offset 16
	.cfi_offset %rbp, -16
	movq	%rsp, %rbp
	.cfi_def_cfa_register %rbp
	subq	$80, %rsp
	movq	%rdx, -80(%rbp)
	movq	%rdi, -72(%rbp)
	movq	%rsi, -64(%rbp)
	movq	%rdx, -24(%rbp)
Ltmp584:
	.loc	37 773 15 prologue_end
	movb	$1, -25(%rbp)
	.loc	37 773 9 is_stmt 0
	cmpq	$0, -72(%rbp)
	jne	LBB139_2
	.loc	37 0 9
	movq	-80(%rbp), %rdi
	.loc	37 774 16 is_stmt 1
	movq	-64(%rbp), %rax
	movq	%rax, -8(%rbp)
Ltmp585:
	.loc	37 774 25 is_stmt 0
	movb	$0, -25(%rbp)
	movq	%rax, -40(%rbp)
	movq	-40(%rbp), %rsi
	callq	__ZN15crossbeam_epoch6atomic15Atomic$LT$T$GT$21compare_exchange_weak28_$u7b$$u7b$closure$u7d$$u7d$17h5eccaa8823829a89E
	.loc	37 774 22
	movq	%rax, -48(%rbp)
	movq	$0, -56(%rbp)
Ltmp586:
	.loc	37 774 30
	jmp	LBB139_3
LBB139_2:
	.loc	37 775 17 is_stmt 1
	movq	-64(%rbp), %rax
	movq	%rax, -16(%rbp)
Ltmp587:
	.loc	37 775 23 is_stmt 0
	movq	%rax, -48(%rbp)
	movq	$1, -56(%rbp)
Ltmp588:
LBB139_3:
	.loc	37 777 5 is_stmt 1
	testb	$1, -25(%rbp)
	jne	LBB139_5
LBB139_4:
	.loc	37 777 6 is_stmt 0
	movq	-56(%rbp), %rax
	movq	-48(%rbp), %rdx
	addq	$80, %rsp
	popq	%rbp
	retq
LBB139_5:
	.loc	37 777 5
	jmp	LBB139_4
Ltmp589:
Lfunc_end139:
	.cfi_endproc

	.globl	__ZN4core6result19Result$LT$T$C$E$GT$3map17h2c8042890b7ae053E
	.p2align	4, 0x90
__ZN4core6result19Result$LT$T$C$E$GT$3map17h2c8042890b7ae053E:
Lfunc_begin140:
	.loc	37 772 0 is_stmt 1
	.cfi_startproc
	pushq	%rbp
	.cfi_def_cfa_offset 16
	.cfi_offset %rbp, -16
	movq	%rsp, %rbp
	.cfi_def_cfa_register %rbp
	subq	$2192, %rsp
	movq	%rdx, -2176(%rbp)
Ltmp590:
	movq	%rsi, -2168(%rbp)
Ltmp591:
	movq	%rdi, -2160(%rbp)
	movq	%rdi, -2152(%rbp)
Ltmp592:
	.loc	37 773 15 prologue_end
	movb	$1, -25(%rbp)
	.loc	37 773 9 is_stmt 0
	cmpq	$0, (%rsi)
Ltmp593:
	jne	LBB140_2
Ltmp594:
	.loc	37 0 9
	movq	-2176(%rbp), %rsi
	movq	-2168(%rbp), %rax
	.loc	37 774 16 is_stmt 1
	movq	8(%rax), %rax
	movq	%rax, -2184(%rbp)
	movq	%rax, -8(%rbp)
Ltmp595:
	.loc	37 774 25 is_stmt 0
	movb	$0, -25(%rbp)
	leaq	-80(%rbp), %rdi
	movl	$40, %edx
	callq	_memcpy
	movq	-2184(%rbp), %rax
	movq	%rax, -40(%rbp)
	movq	-40(%rbp), %rdx
	leaq	-2144(%rbp), %rdi
	leaq	-80(%rbp), %rsi
	callq	__ZN15crossbeam_epoch4sync5queue14Queue$LT$T$GT$12pop_internal28_$u7b$$u7b$closure$u7d$$u7d$17h5a430db0267fe3bdE
	movq	-2160(%rbp), %rdi
	.loc	37 774 22
	addq	$8, %rdi
	leaq	-2144(%rbp), %rsi
	movl	$2064, %edx
	callq	_memcpy
	movq	-2160(%rbp), %rax
	movq	$0, (%rax)
Ltmp596:
	.loc	37 774 30
	jmp	LBB140_3
Ltmp597:
LBB140_2:
	.loc	37 0 30
	movq	-2160(%rbp), %rax
	movq	-2168(%rbp), %rcx
	.loc	37 775 17 is_stmt 1
	movq	8(%rcx), %rdx
	movq	16(%rcx), %rcx
	movq	%rdx, -24(%rbp)
	movq	%rcx, -16(%rbp)
Ltmp598:
	.loc	37 775 23 is_stmt 0
	movq	%rdx, 8(%rax)
	movq	%rcx, 16(%rax)
	movq	$1, (%rax)
Ltmp599:
LBB140_3:
	.loc	37 777 5 is_stmt 1
	testb	$1, -25(%rbp)
	jne	LBB140_5
Ltmp600:
LBB140_4:
	.loc	37 0 5 is_stmt 0
	movq	-2152(%rbp), %rax
	.loc	37 777 6
	addq	$2192, %rsp
	popq	%rbp
	retq
Ltmp601:
LBB140_5:
	.loc	37 777 5
	jmp	LBB140_4
Ltmp602:
Lfunc_end140:
	.cfi_endproc

	.globl	__ZN4core6result19Result$LT$T$C$E$GT$3map17h4b150bc84ea85923E
	.p2align	4, 0x90
__ZN4core6result19Result$LT$T$C$E$GT$3map17h4b150bc84ea85923E:
Lfunc_begin141:
	.loc	37 772 0 is_stmt 1
	.cfi_startproc
	pushq	%rbp
	.cfi_def_cfa_offset 16
	.cfi_offset %rbp, -16
	movq	%rsp, %rbp
	.cfi_def_cfa_register %rbp
	subq	$80, %rsp
	movq	%rdx, -80(%rbp)
	movq	%rdi, -72(%rbp)
	movq	%rsi, -64(%rbp)
	movq	%rdx, -24(%rbp)
Ltmp603:
	.loc	37 773 15 prologue_end
	movb	$1, -25(%rbp)
	.loc	37 773 9 is_stmt 0
	cmpq	$0, -72(%rbp)
	jne	LBB141_2
	.loc	37 0 9
	movq	-80(%rbp), %rdi
	.loc	37 774 16 is_stmt 1
	movq	-64(%rbp), %rax
	movq	%rax, -8(%rbp)
Ltmp604:
	.loc	37 774 25 is_stmt 0
	movb	$0, -25(%rbp)
	movq	%rax, -40(%rbp)
	movq	-40(%rbp), %rsi
	callq	__ZN15crossbeam_epoch6atomic15Atomic$LT$T$GT$16compare_exchange28_$u7b$$u7b$closure$u7d$$u7d$17h1f5d2e35990011eaE
	.loc	37 774 22
	movq	%rax, -48(%rbp)
	movq	$0, -56(%rbp)
Ltmp605:
	.loc	37 774 30
	jmp	LBB141_3
LBB141_2:
	.loc	37 775 17 is_stmt 1
	movq	-64(%rbp), %rax
	movq	%rax, -16(%rbp)
Ltmp606:
	.loc	37 775 23 is_stmt 0
	movq	%rax, -48(%rbp)
	movq	$1, -56(%rbp)
Ltmp607:
LBB141_3:
	.loc	37 777 5 is_stmt 1
	testb	$1, -25(%rbp)
	jne	LBB141_5
LBB141_4:
	.loc	37 777 6 is_stmt 0
	movq	-56(%rbp), %rax
	movq	-48(%rbp), %rdx
	addq	$80, %rsp
	popq	%rbp
	retq
LBB141_5:
	.loc	37 777 5
	jmp	LBB141_4
Ltmp608:
Lfunc_end141:
	.cfi_endproc

	.globl	__ZN4core6result19Result$LT$T$C$E$GT$3map17h73fc44a617e690c4E
	.p2align	4, 0x90
__ZN4core6result19Result$LT$T$C$E$GT$3map17h73fc44a617e690c4E:
Lfunc_begin142:
	.loc	37 772 0 is_stmt 1
	.cfi_startproc
	pushq	%rbp
	.cfi_def_cfa_offset 16
	.cfi_offset %rbp, -16
	movq	%rsp, %rbp
	.cfi_def_cfa_register %rbp
	subq	$2192, %rsp
	movq	%rdx, -2176(%rbp)
Ltmp609:
	movq	%rsi, -2168(%rbp)
Ltmp610:
	movq	%rdi, -2160(%rbp)
	movq	%rdi, -2152(%rbp)
Ltmp611:
	.loc	37 773 15 prologue_end
	movb	$1, -25(%rbp)
	.loc	37 773 9 is_stmt 0
	cmpq	$0, (%rsi)
Ltmp612:
	jne	LBB142_2
Ltmp613:
	.loc	37 0 9
	movq	-2176(%rbp), %rsi
	movq	-2168(%rbp), %rax
	.loc	37 774 16 is_stmt 1
	movq	8(%rax), %rax
	movq	%rax, -2184(%rbp)
	movq	%rax, -8(%rbp)
Ltmp614:
	.loc	37 774 25 is_stmt 0
	movb	$0, -25(%rbp)
	leaq	-80(%rbp), %rdi
	movl	$40, %edx
	callq	_memcpy
	movq	-2184(%rbp), %rax
	movq	%rax, -40(%rbp)
	movq	-40(%rbp), %rdx
	leaq	-2144(%rbp), %rdi
	leaq	-80(%rbp), %rsi
	callq	__ZN15crossbeam_epoch4sync5queue14Queue$LT$T$GT$15pop_if_internal28_$u7b$$u7b$closure$u7d$$u7d$17ha6bea02be64e470cE
	movq	-2160(%rbp), %rdi
	.loc	37 774 22
	addq	$8, %rdi
	leaq	-2144(%rbp), %rsi
	movl	$2064, %edx
	callq	_memcpy
	movq	-2160(%rbp), %rax
	movq	$0, (%rax)
Ltmp615:
	.loc	37 774 30
	jmp	LBB142_3
Ltmp616:
LBB142_2:
	.loc	37 0 30
	movq	-2160(%rbp), %rax
	movq	-2168(%rbp), %rcx
	.loc	37 775 17 is_stmt 1
	movq	8(%rcx), %rdx
	movq	16(%rcx), %rcx
	movq	%rdx, -24(%rbp)
	movq	%rcx, -16(%rbp)
Ltmp617:
	.loc	37 775 23 is_stmt 0
	movq	%rdx, 8(%rax)
	movq	%rcx, 16(%rax)
	movq	$1, (%rax)
Ltmp618:
LBB142_3:
	.loc	37 777 5 is_stmt 1
	testb	$1, -25(%rbp)
	jne	LBB142_5
Ltmp619:
LBB142_4:
	.loc	37 0 5 is_stmt 0
	movq	-2152(%rbp), %rax
	.loc	37 777 6
	addq	$2192, %rsp
	popq	%rbp
	retq
Ltmp620:
LBB142_5:
	.loc	37 777 5
	jmp	LBB142_4
Ltmp621:
Lfunc_end142:
	.cfi_endproc

	.globl	__ZN4core6result19Result$LT$T$C$E$GT$3map17hd9c7b45b571566ceE
	.p2align	4, 0x90
__ZN4core6result19Result$LT$T$C$E$GT$3map17hd9c7b45b571566ceE:
Lfunc_begin143:
	.loc	37 772 0 is_stmt 1
	.cfi_startproc
	pushq	%rbp
	.cfi_def_cfa_offset 16
	.cfi_offset %rbp, -16
	movq	%rsp, %rbp
	.cfi_def_cfa_register %rbp
	subq	$80, %rsp
	movq	%rdx, -80(%rbp)
	movq	%rdi, -72(%rbp)
	movq	%rsi, -64(%rbp)
	movq	%rdx, -24(%rbp)
Ltmp622:
	.loc	37 773 15 prologue_end
	movb	$1, -25(%rbp)
	.loc	37 773 9 is_stmt 0
	cmpq	$0, -72(%rbp)
	jne	LBB143_2
	.loc	37 0 9
	movq	-80(%rbp), %rdi
	.loc	37 774 16 is_stmt 1
	movq	-64(%rbp), %rax
	movq	%rax, -8(%rbp)
Ltmp623:
	.loc	37 774 25 is_stmt 0
	movb	$0, -25(%rbp)
	movq	%rax, -40(%rbp)
	movq	-40(%rbp), %rsi
	callq	__ZN15crossbeam_epoch6atomic15Atomic$LT$T$GT$16compare_exchange28_$u7b$$u7b$closure$u7d$$u7d$17hcf7d5d7f1c6f856aE
	.loc	37 774 22
	movq	%rax, -48(%rbp)
	movq	$0, -56(%rbp)
Ltmp624:
	.loc	37 774 30
	jmp	LBB143_3
LBB143_2:
	.loc	37 775 17 is_stmt 1
	movq	-64(%rbp), %rax
	movq	%rax, -16(%rbp)
Ltmp625:
	.loc	37 775 23 is_stmt 0
	movq	%rax, -48(%rbp)
	movq	$1, -56(%rbp)
Ltmp626:
LBB143_3:
	.loc	37 777 5 is_stmt 1
	testb	$1, -25(%rbp)
	jne	LBB143_5
LBB143_4:
	.loc	37 777 6 is_stmt 0
	movq	-56(%rbp), %rax
	movq	-48(%rbp), %rdx
	addq	$80, %rsp
	popq	%rbp
	retq
LBB143_5:
	.loc	37 777 5
	jmp	LBB143_4
Ltmp627:
Lfunc_end143:
	.cfi_endproc

	.globl	__ZN4core6result19Result$LT$T$C$E$GT$5is_ok17h452d666fab8f31efE
	.p2align	4, 0x90
__ZN4core6result19Result$LT$T$C$E$GT$5is_ok17h452d666fab8f31efE:
Lfunc_begin144:
	.loc	37 541 0 is_stmt 1
	.cfi_startproc
	pushq	%rbp
	.cfi_def_cfa_offset 16
	.cfi_offset %rbp, -16
	movq	%rsp, %rbp
	.cfi_def_cfa_register %rbp
	subq	$16, %rsp
	movq	%rdi, -8(%rbp)
Ltmp628:
	.loc	37 542 9 prologue_end
	cmpq	$0, (%rdi)
	jne	LBB144_2
	movb	$1, -9(%rbp)
	jmp	LBB144_3
LBB144_2:
	movb	$0, -9(%rbp)
LBB144_3:
	.loc	37 543 6
	movb	-9(%rbp), %al
	andb	$1, %al
	movzbl	%al, %eax
	addq	$16, %rsp
	popq	%rbp
	retq
Ltmp629:
Lfunc_end144:
	.cfi_endproc

	.globl	__ZN4core6result19Result$LT$T$C$E$GT$5is_ok17he29bcdafa8ac73fbE
	.p2align	4, 0x90
__ZN4core6result19Result$LT$T$C$E$GT$5is_ok17he29bcdafa8ac73fbE:
Lfunc_begin145:
	.loc	37 541 0
	.cfi_startproc
	pushq	%rbp
	.cfi_def_cfa_offset 16
	.cfi_offset %rbp, -16
	movq	%rsp, %rbp
	.cfi_def_cfa_register %rbp
	subq	$16, %rsp
	movq	%rdi, -8(%rbp)
Ltmp630:
	.loc	37 542 9 prologue_end
	cmpq	$0, (%rdi)
	jne	LBB145_2
	movb	$1, -9(%rbp)
	jmp	LBB145_3
LBB145_2:
	movb	$0, -9(%rbp)
LBB145_3:
	.loc	37 543 6
	movb	-9(%rbp), %al
	andb	$1, %al
	movzbl	%al, %eax
	addq	$16, %rsp
	popq	%rbp
	retq
Ltmp631:
Lfunc_end145:
	.cfi_endproc

	.globl	__ZN4core6result19Result$LT$T$C$E$GT$7map_err17h16dad7a962443bbaE
	.p2align	4, 0x90
__ZN4core6result19Result$LT$T$C$E$GT$7map_err17h16dad7a962443bbaE:
Lfunc_begin146:
	.loc	37 857 0
	.cfi_startproc
	pushq	%rbp
	.cfi_def_cfa_offset 16
	.cfi_offset %rbp, -16
	movq	%rsp, %rbp
	.cfi_def_cfa_register %rbp
	subq	$80, %rsp
	movq	%rcx, -80(%rbp)
	movq	%rdi, -72(%rbp)
	movq	%rdi, -64(%rbp)
	movq	%rsi, -56(%rbp)
	movq	%rdx, -48(%rbp)
	movq	%rcx, -24(%rbp)
Ltmp632:
	.loc	37 858 15 prologue_end
	movb	$1, -25(%rbp)
	.loc	37 858 9 is_stmt 0
	cmpq	$0, -56(%rbp)
	jne	LBB146_2
	.loc	37 0 9
	movq	-72(%rbp), %rax
	.loc	37 859 16 is_stmt 1
	movq	-48(%rbp), %rcx
	movq	%rcx, -8(%rbp)
Ltmp633:
	.loc	37 859 22 is_stmt 0
	movq	%rcx, 8(%rax)
	movq	$0, (%rax)
Ltmp634:
	.loc	37 859 26
	jmp	LBB146_3
LBB146_2:
	.loc	37 0 26
	movq	-80(%rbp), %rdi
	.loc	37 860 17 is_stmt 1
	movq	-48(%rbp), %rax
	movq	%rax, -16(%rbp)
Ltmp635:
	.loc	37 860 27 is_stmt 0
	movb	$0, -25(%rbp)
	movq	%rax, -40(%rbp)
	movq	-40(%rbp), %rsi
	callq	__ZN15crossbeam_epoch6atomic15Atomic$LT$T$GT$16compare_exchange28_$u7b$$u7b$closure$u7d$$u7d$17hb136de7b9f63074bE
	movq	%rax, %rcx
	movq	-72(%rbp), %rax
	.loc	37 860 23
	movq	%rcx, 8(%rax)
	movq	%rdx, 16(%rax)
	movq	$1, (%rax)
Ltmp636:
LBB146_3:
	.loc	37 862 5 is_stmt 1
	testb	$1, -25(%rbp)
	jne	LBB146_5
LBB146_4:
	.loc	37 0 5 is_stmt 0
	movq	-64(%rbp), %rax
	.loc	37 862 6
	addq	$80, %rsp
	popq	%rbp
	retq
LBB146_5:
	.loc	37 862 5
	jmp	LBB146_4
Ltmp637:
Lfunc_end146:
	.cfi_endproc

	.globl	__ZN4core6result19Result$LT$T$C$E$GT$7map_err17h878ffd5d0f904faaE
	.p2align	4, 0x90
__ZN4core6result19Result$LT$T$C$E$GT$7map_err17h878ffd5d0f904faaE:
Lfunc_begin147:
	.loc	37 857 0 is_stmt 1
	.cfi_startproc
	pushq	%rbp
	.cfi_def_cfa_offset 16
	.cfi_offset %rbp, -16
	movq	%rsp, %rbp
	.cfi_def_cfa_register %rbp
	movl	$4208, %eax
	callq	___rust_probestack
	subq	%rax, %rsp
	movq	%rsi, -4200(%rbp)
Ltmp638:
	movq	%rdi, -4192(%rbp)
	movq	%rdi, -4184(%rbp)
Ltmp639:
	.loc	37 858 15 prologue_end
	movb	$1, -25(%rbp)
	.loc	37 858 9 is_stmt 0
	cmpq	$0, (%rsi)
Ltmp640:
	jne	LBB147_2
Ltmp641:
	.loc	37 0 9
	movq	-4200(%rbp), %rsi
	.loc	37 859 16 is_stmt 1
	addq	$8, %rsi
	leaq	-4176(%rbp), %rdi
	movl	$2064, %edx
	callq	_memcpy
Ltmp642:
	.loc	37 859 25 is_stmt 0
	leaq	-2112(%rbp), %rdi
	leaq	-4176(%rbp), %rsi
	movl	$2064, %edx
	callq	_memcpy
	movq	-4192(%rbp), %rdi
	.loc	37 859 22
	addq	$8, %rdi
	leaq	-2112(%rbp), %rsi
	movl	$2064, %edx
	callq	_memcpy
	movq	-4192(%rbp), %rax
	movq	$0, (%rax)
Ltmp643:
	.loc	37 859 26
	jmp	LBB147_3
Ltmp644:
LBB147_2:
	.loc	37 0 26
	movq	-4200(%rbp), %rax
	.loc	37 860 17 is_stmt 1
	movq	8(%rax), %rcx
	movq	16(%rax), %rax
	movq	%rcx, -16(%rbp)
	movq	%rax, -8(%rbp)
Ltmp645:
	.loc	37 860 27 is_stmt 0
	movb	$0, -25(%rbp)
	movq	%rcx, -48(%rbp)
	movq	%rax, -40(%rbp)
	movq	-48(%rbp), %rdi
	movq	-40(%rbp), %rsi
	callq	__ZN15crossbeam_epoch4sync5queue14Queue$LT$T$GT$15pop_if_internal28_$u7b$$u7b$closure$u7d$$u7d$17h085c42e4981a6458E
	movq	-4192(%rbp), %rax
	.loc	37 860 23
	movq	$1, (%rax)
Ltmp646:
LBB147_3:
	.loc	37 862 5 is_stmt 1
	testb	$1, -25(%rbp)
	jne	LBB147_5
Ltmp647:
LBB147_4:
	.loc	37 0 5 is_stmt 0
	movq	-4184(%rbp), %rax
	.loc	37 862 6
	addq	$4208, %rsp
	popq	%rbp
	retq
Ltmp648:
LBB147_5:
	.loc	37 862 5
	jmp	LBB147_4
Ltmp649:
Lfunc_end147:
	.cfi_endproc

	.globl	__ZN4core6result19Result$LT$T$C$E$GT$7map_err17ha7655b9515d6aea2E
	.p2align	4, 0x90
__ZN4core6result19Result$LT$T$C$E$GT$7map_err17ha7655b9515d6aea2E:
Lfunc_begin148:
	.loc	37 857 0 is_stmt 1
	.cfi_startproc
	pushq	%rbp
	.cfi_def_cfa_offset 16
	.cfi_offset %rbp, -16
	movq	%rsp, %rbp
	.cfi_def_cfa_register %rbp
	subq	$80, %rsp
	movq	%rcx, -80(%rbp)
	movq	%rdi, -72(%rbp)
	movq	%rdi, -64(%rbp)
	movq	%rsi, -56(%rbp)
	movq	%rdx, -48(%rbp)
	movq	%rcx, -24(%rbp)
Ltmp650:
	.loc	37 858 15 prologue_end
	movb	$1, -25(%rbp)
	.loc	37 858 9 is_stmt 0
	cmpq	$0, -56(%rbp)
	jne	LBB148_2
	.loc	37 0 9
	movq	-72(%rbp), %rax
	.loc	37 859 16 is_stmt 1
	movq	-48(%rbp), %rcx
	movq	%rcx, -8(%rbp)
Ltmp651:
	.loc	37 859 22 is_stmt 0
	movq	%rcx, 8(%rax)
	movq	$0, (%rax)
Ltmp652:
	.loc	37 859 26
	jmp	LBB148_3
LBB148_2:
	.loc	37 0 26
	movq	-80(%rbp), %rdi
	.loc	37 860 17 is_stmt 1
	movq	-48(%rbp), %rax
	movq	%rax, -16(%rbp)
Ltmp653:
	.loc	37 860 27 is_stmt 0
	movb	$0, -25(%rbp)
	movq	%rax, -40(%rbp)
	movq	-40(%rbp), %rsi
	callq	__ZN15crossbeam_epoch6atomic15Atomic$LT$T$GT$16compare_exchange28_$u7b$$u7b$closure$u7d$$u7d$17h719f80c2fffed3e0E
	movq	%rax, %rcx
	movq	-72(%rbp), %rax
	.loc	37 860 23
	movq	%rcx, 8(%rax)
	movq	%rdx, 16(%rax)
	movq	$1, (%rax)
Ltmp654:
LBB148_3:
	.loc	37 862 5 is_stmt 1
	testb	$1, -25(%rbp)
	jne	LBB148_5
LBB148_4:
	.loc	37 0 5 is_stmt 0
	movq	-64(%rbp), %rax
	.loc	37 862 6
	addq	$80, %rsp
	popq	%rbp
	retq
LBB148_5:
	.loc	37 862 5
	jmp	LBB148_4
Ltmp655:
Lfunc_end148:
	.cfi_endproc

	.globl	__ZN4core6result19Result$LT$T$C$E$GT$7map_err17hbba9ef905904a33bE
	.p2align	4, 0x90
__ZN4core6result19Result$LT$T$C$E$GT$7map_err17hbba9ef905904a33bE:
Lfunc_begin149:
	.loc	37 857 0 is_stmt 1
	.cfi_startproc
	pushq	%rbp
	.cfi_def_cfa_offset 16
	.cfi_offset %rbp, -16
	movq	%rsp, %rbp
	.cfi_def_cfa_register %rbp
	movl	$4208, %eax
	callq	___rust_probestack
	subq	%rax, %rsp
	movq	%rsi, -4200(%rbp)
Ltmp656:
	movq	%rdi, -4192(%rbp)
	movq	%rdi, -4184(%rbp)
Ltmp657:
	.loc	37 858 15 prologue_end
	movb	$1, -25(%rbp)
	.loc	37 858 9 is_stmt 0
	cmpq	$0, (%rsi)
Ltmp658:
	jne	LBB149_2
Ltmp659:
	.loc	37 0 9
	movq	-4200(%rbp), %rsi
	.loc	37 859 16 is_stmt 1
	addq	$8, %rsi
	leaq	-4176(%rbp), %rdi
	movl	$2064, %edx
	callq	_memcpy
Ltmp660:
	.loc	37 859 25 is_stmt 0
	leaq	-2112(%rbp), %rdi
	leaq	-4176(%rbp), %rsi
	movl	$2064, %edx
	callq	_memcpy
	movq	-4192(%rbp), %rdi
	.loc	37 859 22
	addq	$8, %rdi
	leaq	-2112(%rbp), %rsi
	movl	$2064, %edx
	callq	_memcpy
	movq	-4192(%rbp), %rax
	movq	$0, (%rax)
Ltmp661:
	.loc	37 859 26
	jmp	LBB149_3
Ltmp662:
LBB149_2:
	.loc	37 0 26
	movq	-4200(%rbp), %rax
	.loc	37 860 17 is_stmt 1
	movq	8(%rax), %rcx
	movq	16(%rax), %rax
	movq	%rcx, -16(%rbp)
	movq	%rax, -8(%rbp)
Ltmp663:
	.loc	37 860 27 is_stmt 0
	movb	$0, -25(%rbp)
	movq	%rcx, -48(%rbp)
	movq	%rax, -40(%rbp)
	movq	-48(%rbp), %rdi
	movq	-40(%rbp), %rsi
	callq	__ZN15crossbeam_epoch4sync5queue14Queue$LT$T$GT$12pop_internal28_$u7b$$u7b$closure$u7d$$u7d$17hb4db8d4e7b8bcdeaE
	movq	-4192(%rbp), %rax
	.loc	37 860 23
	movq	$1, (%rax)
Ltmp664:
LBB149_3:
	.loc	37 862 5 is_stmt 1
	testb	$1, -25(%rbp)
	jne	LBB149_5
Ltmp665:
LBB149_4:
	.loc	37 0 5 is_stmt 0
	movq	-4184(%rbp), %rax
	.loc	37 862 6
	addq	$4208, %rsp
	popq	%rbp
	retq
Ltmp666:
LBB149_5:
	.loc	37 862 5
	jmp	LBB149_4
Ltmp667:
Lfunc_end149:
	.cfi_endproc

	.globl	__ZN4core6result19Result$LT$T$C$E$GT$7map_err17hdbc5af7eb87aa1eeE
	.p2align	4, 0x90
__ZN4core6result19Result$LT$T$C$E$GT$7map_err17hdbc5af7eb87aa1eeE:
Lfunc_begin150:
	.loc	37 857 0 is_stmt 1
	.cfi_startproc
	pushq	%rbp
	.cfi_def_cfa_offset 16
	.cfi_offset %rbp, -16
	movq	%rsp, %rbp
	.cfi_def_cfa_register %rbp
	subq	$80, %rsp
	movq	%rcx, -80(%rbp)
	movq	%rdi, -72(%rbp)
	movq	%rdi, -64(%rbp)
	movq	%rsi, -56(%rbp)
	movq	%rdx, -48(%rbp)
	movq	%rcx, -24(%rbp)
Ltmp668:
	.loc	37 858 15 prologue_end
	movb	$1, -25(%rbp)
	.loc	37 858 9 is_stmt 0
	cmpq	$0, -56(%rbp)
	jne	LBB150_2
	.loc	37 0 9
	movq	-72(%rbp), %rax
	.loc	37 859 16 is_stmt 1
	movq	-48(%rbp), %rcx
	movq	%rcx, -8(%rbp)
Ltmp669:
	.loc	37 859 22 is_stmt 0
	movq	%rcx, 8(%rax)
	movq	$0, (%rax)
Ltmp670:
	.loc	37 859 26
	jmp	LBB150_3
LBB150_2:
	.loc	37 0 26
	movq	-80(%rbp), %rdi
	.loc	37 860 17 is_stmt 1
	movq	-48(%rbp), %rax
	movq	%rax, -16(%rbp)
Ltmp671:
	.loc	37 860 27 is_stmt 0
	movb	$0, -25(%rbp)
	movq	%rax, -40(%rbp)
	movq	-40(%rbp), %rsi
	callq	__ZN15crossbeam_epoch6atomic15Atomic$LT$T$GT$21compare_exchange_weak28_$u7b$$u7b$closure$u7d$$u7d$17h6b63b606d9c4416eE
	movq	%rax, %rcx
	movq	-72(%rbp), %rax
	.loc	37 860 23
	movq	%rcx, 8(%rax)
	movq	%rdx, 16(%rax)
	movq	$1, (%rax)
Ltmp672:
LBB150_3:
	.loc	37 862 5 is_stmt 1
	testb	$1, -25(%rbp)
	jne	LBB150_5
LBB150_4:
	.loc	37 0 5 is_stmt 0
	movq	-64(%rbp), %rax
	.loc	37 862 6
	addq	$80, %rsp
	popq	%rbp
	retq
LBB150_5:
	.loc	37 862 5
	jmp	LBB150_4
Ltmp673:
Lfunc_end150:
	.cfi_endproc

	.globl	__ZN50_$LT$T$u20$as$u20$core..convert..Into$LT$U$GT$$GT$4into17h721aacc96c4ce186E
	.p2align	4, 0x90
__ZN50_$LT$T$u20$as$u20$core..convert..Into$LT$U$GT$$GT$4into17h721aacc96c4ce186E:
Lfunc_begin151:
	.file	38 "/rustc/2c8cc343237b8f7d5a3c3703e3a87f2eb2c54a74/library/core/src/convert" "mod.rs"
	.loc	38 725 0 is_stmt 1
	.cfi_startproc
	pushq	%rbp
	.cfi_def_cfa_offset 16
	.cfi_offset %rbp, -16
	movq	%rsp, %rbp
	.cfi_def_cfa_register %rbp
	subq	$16, %rsp
	movq	%rdi, -8(%rbp)
Ltmp674:
	.loc	38 726 9 prologue_end
	callq	__ZN98_$LT$core..ptr..non_null..NonNull$LT$T$GT$$u20$as$u20$core..convert..From$LT$$RF$mut$u20$T$GT$$GT$4from17haeff289199f6acfbE
	.loc	38 727 6
	addq	$16, %rsp
	popq	%rbp
	retq
Ltmp675:
Lfunc_end151:
	.cfi_endproc

	.globl	__ZN5alloc2rc11is_dangling17h37bd3dae20badefdE
	.p2align	4, 0x90
__ZN5alloc2rc11is_dangling17h37bd3dae20badefdE:
Lfunc_begin152:
	.file	39 "/rustc/2c8cc343237b8f7d5a3c3703e3a87f2eb2c54a74/library/alloc/src" "rc.rs"
	.loc	39 2221 0
	.cfi_startproc
	pushq	%rbp
	.cfi_def_cfa_offset 16
	.cfi_offset %rbp, -16
	movq	%rsp, %rbp
	.cfi_def_cfa_register %rbp
	subq	$32, %rsp
	movq	%rdi, -32(%rbp)
Ltmp676:
	.loc	39 2222 5 prologue_end
	movq	%rdi, -24(%rbp)
Ltmp677:
	.loc	8 215 33
	movq	%rdi, -16(%rbp)
	.loc	8 215 18 is_stmt 0
	movq	%rdi, -8(%rbp)
Ltmp678:
	.loc	39 2222 5 is_stmt 1
	cmpq	$-1, -8(%rbp)
	sete	%al
	.loc	39 2223 2
	andb	$1, %al
	movzbl	%al, %eax
	addq	$32, %rsp
	popq	%rbp
	retq
Ltmp679:
Lfunc_end152:
	.cfi_endproc

	.globl	__ZN5alloc4sync12Arc$LT$T$GT$10from_inner17h92f5bd24e3136c9fE
	.p2align	4, 0x90
__ZN5alloc4sync12Arc$LT$T$GT$10from_inner17h92f5bd24e3136c9fE:
Lfunc_begin153:
	.file	40 "/rustc/2c8cc343237b8f7d5a3c3703e3a87f2eb2c54a74/library/alloc/src" "sync.rs"
	.loc	40 264 0
	.cfi_startproc
	pushq	%rbp
	.cfi_def_cfa_offset 16
	.cfi_offset %rbp, -16
	movq	%rsp, %rbp
	.cfi_def_cfa_register %rbp
	subq	$16, %rsp
	movq	%rdi, -8(%rbp)
Ltmp680:
	.loc	40 265 9 prologue_end
	movq	%rdi, -16(%rbp)
	.loc	40 266 6
	movq	-16(%rbp), %rax
	addq	$16, %rsp
	popq	%rbp
	retq
Ltmp681:
Lfunc_end153:
	.cfi_endproc

	.globl	__ZN5alloc4sync12Arc$LT$T$GT$3new17h0f5f3d7b08ca257fE
	.p2align	4, 0x90
__ZN5alloc4sync12Arc$LT$T$GT$3new17h0f5f3d7b08ca257fE:
Lfunc_begin154:
	.loc	40 361 0
	.cfi_startproc
	.cfi_personality 155, _rust_eh_personality
	.cfi_lsda 16, Lexception13
	pushq	%rbp
	.cfi_def_cfa_offset 16
	.cfi_offset %rbp, -16
	movq	%rsp, %rbp
	.cfi_def_cfa_register %rbp
	andq	$-128, %rsp
	subq	$1536, %rsp
	movq	%rdi, %rsi
	movq	%rsi, 96(%rsp)
Ltmp695:
	.loc	13 1957 17 prologue_end
	movq	$1, 880(%rsp)
Ltmp696:
	.loc	13 1957 17 is_stmt 0
	movq	$1, 888(%rsp)
	leaq	896(%rsp), %rdi
	movq	%rdi, 104(%rsp)
	movl	$512, %edx
	movq	%rdx, 112(%rsp)
Ltmp697:
	.loc	40 367 13 is_stmt 1
	callq	_memcpy
Ltmp698:
	.loc	40 0 13 is_stmt 0
	movq	104(%rsp), %rsi
	movq	112(%rsp), %rdx
	.loc	40 364 34 is_stmt 1
	movq	880(%rsp), %rax
	movq	%rax, 128(%rsp)
	movq	888(%rsp), %rax
	movq	%rax, 136(%rsp)
	leaq	256(%rsp), %rdi
	callq	_memcpy
Ltmp682:
	movl	$640, %edi
	movl	$128, %esi
Ltmp699:
	.file	41 "/rustc/2c8cc343237b8f7d5a3c3703e3a87f2eb2c54a74/library/alloc/src" "boxed.rs"
	.loc	41 219 9
	callq	__ZN5alloc5alloc15exchange_malloc17hfa9ff624c73e1703E
Ltmp683:
	movq	%rax, 120(%rsp)
Ltmp700:
	jmp	LBB154_3
Ltmp701:
LBB154_1:
Ltmp685:
	.loc	41 0 9 is_stmt 0
	leaq	128(%rsp), %rdi
	.loc	41 220 5 is_stmt 1
	callq	__ZN4core3ptr83drop_in_place$LT$alloc..sync..ArcInner$LT$crossbeam_epoch..internal..Global$GT$$GT$17h4c6ef81eddcd151eE
Ltmp686:
	jmp	LBB154_5
Ltmp702:
LBB154_2:
Ltmp684:
	.loc	41 0 5 is_stmt 0
	movq	%rax, %rcx
	movl	%edx, %eax
	movq	%rcx, 1456(%rsp)
	movl	%eax, 1464(%rsp)
	jmp	LBB154_1
Ltmp703:
LBB154_3:
	movq	120(%rsp), %rdi
	.loc	41 219 9 is_stmt 1
	movq	%rdi, 1472(%rsp)
	leaq	128(%rsp), %rsi
	movl	$640, %edx
	.loc	41 219 18 is_stmt 0
	callq	_memcpy
	movq	120(%rsp), %rax
Ltmp704:
	.loc	40 369 45 is_stmt 1
	movq	%rax, 1480(%rsp)
Ltmp705:
	.loc	41 1188 47
	movq	%rax, 1488(%rsp)
Ltmp706:
	.loc	21 71 9
	movq	%rax, 1448(%rsp)
	leaq	1448(%rsp), %rax
Ltmp707:
	.loc	41 1188 24
	movq	%rax, 1496(%rsp)
	movq	1448(%rsp), %rdi
	movq	%rdi, 1504(%rsp)
Ltmp708:
	.file	42 "/rustc/2c8cc343237b8f7d5a3c3703e3a87f2eb2c54a74/library/core/src/ptr" "unique.rs"
	.loc	42 104 9
	movq	%rdi, 1512(%rsp)
Ltmp709:
Ltmp687:
	.loc	40 369 35
	callq	__ZN50_$LT$T$u20$as$u20$core..convert..Into$LT$U$GT$$GT$4into17h721aacc96c4ce186E
Ltmp688:
	movq	%rax, 88(%rsp)
	jmp	LBB154_7
Ltmp710:
LBB154_4:
Ltmp694:
	.loc	40 361 5
	callq	__ZN4core9panicking19panic_cannot_unwind17h1fbca7e1d7f56ae1E
Ltmp711:
LBB154_5:
	.loc	40 370 5
	xorl	%eax, %eax
	testb	$1, %al
	jne	LBB154_10
	jmp	LBB154_9
Ltmp712:
LBB154_6:
Ltmp691:
	.loc	40 0 5 is_stmt 0
	movq	%rax, %rcx
	movl	%edx, %eax
	movq	%rcx, 1456(%rsp)
	movl	%eax, 1464(%rsp)
	jmp	LBB154_5
Ltmp713:
LBB154_7:
Ltmp689:
	movq	88(%rsp), %rdi
Ltmp714:
	.loc	40 369 18 is_stmt 1
	callq	__ZN5alloc4sync12Arc$LT$T$GT$10from_inner17h92f5bd24e3136c9fE
Ltmp690:
	movq	%rax, 80(%rsp)
	jmp	LBB154_8
Ltmp715:
LBB154_8:
	.loc	40 0 18 is_stmt 0
	movq	80(%rsp), %rax
	.loc	40 370 6 is_stmt 1
	movq	%rbp, %rsp
Ltmp716:
	popq	%rbp
	retq
LBB154_9:
Ltmp717:
	.loc	40 361 5
	movq	1456(%rsp), %rdi
	callq	__Unwind_Resume
Ltmp718:
LBB154_10:
Ltmp692:
	.loc	40 0 5 is_stmt 0
	movq	96(%rsp), %rdi
	.loc	40 370 5 is_stmt 1
	callq	__ZN4core3ptr54drop_in_place$LT$crossbeam_epoch..internal..Global$GT$17hc0f18705f951116eE
Ltmp693:
	jmp	LBB154_9
Ltmp719:
Lfunc_end154:
	.cfi_endproc
	.section	__TEXT,__gcc_except_tab
	.p2align	2
GCC_except_table154:
Lexception13:
	.byte	255
	.byte	255
	.byte	1
	.uleb128 Lcst_end13-Lcst_begin13
Lcst_begin13:
	.uleb128 Lfunc_begin154-Lfunc_begin154
	.uleb128 Ltmp682-Lfunc_begin154
	.byte	0
	.byte	0
	.uleb128 Ltmp682-Lfunc_begin154
	.uleb128 Ltmp683-Ltmp682
	.uleb128 Ltmp684-Lfunc_begin154
	.byte	0
	.uleb128 Ltmp685-Lfunc_begin154
	.uleb128 Ltmp686-Ltmp685
	.uleb128 Ltmp694-Lfunc_begin154
	.byte	0
	.uleb128 Ltmp686-Lfunc_begin154
	.uleb128 Ltmp687-Ltmp686
	.byte	0
	.byte	0
	.uleb128 Ltmp687-Lfunc_begin154
	.uleb128 Ltmp690-Ltmp687
	.uleb128 Ltmp691-Lfunc_begin154
	.byte	0
	.uleb128 Ltmp690-Lfunc_begin154
	.uleb128 Ltmp692-Ltmp690
	.byte	0
	.byte	0
	.uleb128 Ltmp692-Lfunc_begin154
	.uleb128 Ltmp693-Ltmp692
	.uleb128 Ltmp694-Lfunc_begin154
	.byte	0
Lcst_end13:
	.p2align	2

	.section	__TEXT,__text,regular,pure_instructions
	.globl	__ZN5alloc4sync12Arc$LT$T$GT$6ptr_eq17hae5392485d04fd51E
	.p2align	4, 0x90
__ZN5alloc4sync12Arc$LT$T$GT$6ptr_eq17hae5392485d04fd51E:
Lfunc_begin155:
	.loc	40 1149 0
	.cfi_startproc
	pushq	%rbp
	.cfi_def_cfa_offset 16
	.cfi_offset %rbp, -16
	movq	%rsp, %rbp
	.cfi_def_cfa_register %rbp
	subq	$32, %rsp
	movq	%rdi, -32(%rbp)
	movq	%rsi, -24(%rbp)
Ltmp720:
	.loc	40 1150 9 prologue_end
	movq	(%rdi), %rax
	movq	%rax, -16(%rbp)
	.loc	40 1150 30 is_stmt 0
	movq	(%rsi), %rcx
	movq	%rcx, -8(%rbp)
	.loc	40 1150 9
	cmpq	%rcx, %rax
	sete	%al
	.loc	40 1151 6 is_stmt 1
	andb	$1, %al
	movzbl	%al, %eax
	addq	$32, %rsp
	popq	%rbp
	retq
Ltmp721:
Lfunc_end155:
	.cfi_endproc

	.globl	__ZN5alloc4sync12Arc$LT$T$GT$9drop_slow17hb507bf2dca27f35aE
	.p2align	4, 0x90
__ZN5alloc4sync12Arc$LT$T$GT$9drop_slow17hb507bf2dca27f35aE:
Lfunc_begin156:
	.loc	40 1120 0
	.cfi_startproc
	pushq	%rbp
	.cfi_def_cfa_offset 16
	.cfi_offset %rbp, -16
	movq	%rsp, %rbp
	.cfi_def_cfa_register %rbp
	subq	$48, %rsp
	movq	%rdi, -40(%rbp)
	movq	%rdi, -24(%rbp)
Ltmp722:
	.loc	40 1123 61 prologue_end
	movq	%rdi, -16(%rbp)
Ltmp723:
	.loc	40 1646 25
	movq	(%rdi), %rdi
	movq	%rdi, -8(%rbp)
	.loc	40 1646 18 is_stmt 0
	addq	$128, %rdi
Ltmp724:
	.loc	40 1123 18 is_stmt 1
	callq	__ZN4core3ptr54drop_in_place$LT$crossbeam_epoch..internal..Global$GT$17hc0f18705f951116eE
	movq	-40(%rbp), %rdi
	.loc	40 1126 26
	movq	(%rdi), %rax
	.loc	40 1126 14 is_stmt 0
	movq	%rax, -32(%rbp)
Ltmp725:
	.loc	16 980 24 is_stmt 1
	leaq	-32(%rbp), %rdi
	callq	__ZN4core3ptr79drop_in_place$LT$alloc..sync..Weak$LT$crossbeam_epoch..internal..Global$GT$$GT$17ha7a8f11deb03dacbE
Ltmp726:
	.loc	40 1127 6
	addq	$48, %rsp
	popq	%rbp
	retq
Ltmp727:
Lfunc_end156:
	.cfi_endproc

	.globl	__ZN5alloc4sync13Weak$LT$T$GT$5inner17hb223c01be989eae7E
	.p2align	4, 0x90
__ZN5alloc4sync13Weak$LT$T$GT$5inner17hb223c01be989eae7E:
Lfunc_begin157:
	.loc	40 2092 0
	.cfi_startproc
	pushq	%rbp
	.cfi_def_cfa_offset 16
	.cfi_offset %rbp, -16
	movq	%rsp, %rbp
	.cfi_def_cfa_register %rbp
	subq	$80, %rsp
	movq	%rdi, -72(%rbp)
	movq	%rdi, -32(%rbp)
Ltmp728:
	.loc	40 2093 24 prologue_end
	movq	(%rdi), %rdi
	movq	%rdi, -24(%rbp)
	.loc	40 2093 12 is_stmt 0
	callq	__ZN5alloc2rc11is_dangling17h37bd3dae20badefdE
	testb	$1, %al
	jne	LBB157_2
	.loc	40 0 12
	movq	-72(%rbp), %rax
	.loc	40 2100 27 is_stmt 1
	movq	(%rax), %rax
	movq	%rax, -16(%rbp)
Ltmp729:
	.loc	36 326 9
	movq	%rax, -8(%rbp)
Ltmp730:
	.loc	40 2101 59
	movq	%rax, %rcx
	addq	$8, %rcx
	.loc	40 2101 17 is_stmt 0
	movq	%rcx, -48(%rbp)
	movq	%rax, -40(%rbp)
Ltmp731:
	.loc	40 2099 13 is_stmt 1
	movq	-48(%rbp), %rcx
	movq	-40(%rbp), %rax
	movq	%rcx, -64(%rbp)
	movq	%rax, -56(%rbp)
	.loc	40 2093 9
	jmp	LBB157_3
LBB157_2:
	.loc	40 2094 13
	movq	$0, -64(%rbp)
LBB157_3:
	.loc	40 2104 6
	movq	-64(%rbp), %rax
	movq	-56(%rbp), %rdx
	addq	$80, %rsp
	popq	%rbp
	retq
Ltmp732:
Lfunc_end157:
	.cfi_endproc

	.p2align	4, 0x90
__ZN5alloc5alloc15exchange_malloc17hfa9ff624c73e1703E:
Lfunc_begin158:
	.file	43 "/rustc/2c8cc343237b8f7d5a3c3703e3a87f2eb2c54a74/library/alloc/src" "alloc.rs"
	.loc	43 324 0
	.cfi_startproc
	pushq	%rbp
	.cfi_def_cfa_offset 16
	.cfi_offset %rbp, -16
	movq	%rsp, %rbp
	.cfi_def_cfa_register %rbp
	subq	$208, %rsp
	movq	%rdi, -160(%rbp)
	movq	%rsi, -152(%rbp)
Ltmp733:
	.loc	43 325 61 prologue_end
	movq	%rdi, -144(%rbp)
	.loc	43 325 67 is_stmt 0
	movq	%rsi, -136(%rbp)
Ltmp734:
	.loc	32 120 65 is_stmt 1
	movq	%rsi, -128(%rbp)
Ltmp735:
	.loc	33 89 18
	movq	%rsi, -120(%rbp)
	movq	-120(%rbp), %rax
Ltmp736:
	.loc	32 120 18
	movq	%rdi, -200(%rbp)
	movq	%rax, -192(%rbp)
Ltmp737:
	.loc	43 326 11
	leaq	l___unnamed_13(%rip), %rdi
	movq	%rdi, -112(%rbp)
	.loc	43 326 27 is_stmt 0
	movq	-200(%rbp), %rsi
	movq	-192(%rbp), %rdx
	movq	%rsi, -104(%rbp)
	movq	%rdx, -96(%rbp)
	xorl	%ecx, %ecx
Ltmp738:
	.loc	43 237 9 is_stmt 1
	callq	__ZN5alloc5alloc6Global10alloc_impl17h977c5fc40dec3cc2E
	movq	%rdx, -176(%rbp)
	movq	%rax, -184(%rbp)
Ltmp739:
	.loc	43 326 11
	movq	-184(%rbp), %rdx
	xorl	%eax, %eax
	movl	$1, %ecx
	cmpq	$0, %rdx
	cmoveq	%rcx, %rax
	.loc	43 326 5 is_stmt 0
	cmpq	$0, %rax
	jne	LBB158_2
	.loc	43 327 12 is_stmt 1
	movq	-184(%rbp), %rax
	movq	-176(%rbp), %rcx
	movq	%rax, -88(%rbp)
	movq	%rcx, -80(%rbp)
Ltmp740:
	.loc	43 327 20 is_stmt 0
	movq	%rax, -72(%rbp)
	movq	%rcx, -64(%rbp)
Ltmp741:
	.loc	36 548 9 is_stmt 1
	movq	%rax, -56(%rbp)
	movq	%rcx, -48(%rbp)
Ltmp742:
	.loc	36 529 41
	movq	%rax, -40(%rbp)
	movq	%rcx, -32(%rbp)
Ltmp743:
	.loc	36 326 9
	movq	%rax, -24(%rbp)
	movq	%rcx, -16(%rbp)
Ltmp744:
	.loc	8 2037 9
	movq	%rax, -8(%rbp)
Ltmp745:
	.loc	36 201 13
	movq	%rax, -168(%rbp)
Ltmp746:
	.loc	36 326 9
	movq	-168(%rbp), %rax
Ltmp747:
	.loc	43 330 2
	addq	$208, %rsp
	popq	%rbp
	retq
LBB158_2:
Ltmp748:
	.loc	43 328 38
	movq	-200(%rbp), %rdi
	movq	-192(%rbp), %rsi
	.loc	43 328 19 is_stmt 0
	callq	__ZN5alloc5alloc18handle_alloc_error17hb5f6ff255f23ea4dE
Ltmp749:
Lfunc_end158:
	.cfi_endproc

	.p2align	4, 0x90
__ZN5alloc5alloc6Global10alloc_impl17h977c5fc40dec3cc2E:
Lfunc_begin159:
	.loc	43 172 0 is_stmt 1
	.cfi_startproc
	pushq	%rbp
	.cfi_def_cfa_offset 16
	.cfi_offset %rbp, -16
	movq	%rsp, %rbp
	.cfi_def_cfa_register %rbp
	subq	$352, %rsp
	movb	%cl, %al
	movb	%al, -345(%rbp)
	movq	%rsi, -336(%rbp)
	movq	%rdx, -328(%rbp)
	movq	%rdi, -208(%rbp)
	andb	$1, %al
	movb	%al, -193(%rbp)
Ltmp750:
	.loc	43 173 15 prologue_end
	leaq	-336(%rbp), %rax
	movq	%rax, -144(%rbp)
Ltmp751:
	.loc	32 129 9
	movq	-336(%rbp), %rax
	movq	%rax, -344(%rbp)
Ltmp752:
	.loc	43 173 9
	cmpq	$0, %rax
	jne	LBB159_2
	.loc	43 174 51
	leaq	-336(%rbp), %rax
	movq	%rax, -48(%rbp)
Ltmp753:
	.loc	32 216 71
	leaq	-336(%rbp), %rax
	movq	%rax, -40(%rbp)
Ltmp754:
	.loc	32 140 9
	movq	-328(%rbp), %rax
	movq	%rax, -32(%rbp)
Ltmp755:
	.loc	33 97 9
	movq	%rax, -232(%rbp)
	movq	-232(%rbp), %rax
	movq	%rax, -24(%rbp)
Ltmp756:
	.loc	6 599 14
	movq	%rax, -16(%rbp)
	movq	-16(%rbp), %rax
	movq	%rax, -8(%rbp)
Ltmp757:
	.loc	36 201 13
	movq	%rax, -304(%rbp)
Ltmp758:
	.loc	43 174 21
	movq	-304(%rbp), %rdi
	xorl	%eax, %eax
	movl	%eax, %esi
	callq	__ZN4core3ptr8non_null26NonNull$LT$$u5b$T$u5d$$GT$20slice_from_raw_parts17h14bf0f5856e71989E
	.loc	43 174 18 is_stmt 0
	movq	%rax, -320(%rbp)
	movq	%rdx, -312(%rbp)
	.loc	43 174 72
	jmp	LBB159_15
LBB159_2:
	.loc	43 0 72
	movb	-345(%rbp), %al
	movq	-344(%rbp), %rcx
	.loc	43 176 13 is_stmt 1
	movq	%rcx, -136(%rbp)
Ltmp759:
	.loc	43 177 34
	testb	$1, %al
	jne	LBB159_4
	.loc	43 177 79 is_stmt 0
	movq	-336(%rbp), %rcx
	movq	-328(%rbp), %rax
	movq	%rcx, -272(%rbp)
	movq	%rax, -264(%rbp)
Ltmp760:
	.loc	43 95 27 is_stmt 1
	leaq	-272(%rbp), %rax
	movq	%rax, -104(%rbp)
Ltmp761:
	.loc	32 129 9
	movq	-272(%rbp), %rdi
Ltmp762:
	.loc	43 95 42
	leaq	-272(%rbp), %rax
	movq	%rax, -96(%rbp)
Ltmp763:
	.loc	32 140 9
	movq	-264(%rbp), %rax
	movq	%rax, -88(%rbp)
Ltmp764:
	.loc	33 97 9
	movq	%rax, -216(%rbp)
	movq	-216(%rbp), %rsi
Ltmp765:
	.loc	43 95 14
	callq	___rust_alloc
	movq	%rax, -296(%rbp)
Ltmp766:
	.loc	43 177 31
	jmp	LBB159_5
LBB159_4:
	.loc	43 177 56 is_stmt 0
	movq	-336(%rbp), %rcx
	movq	-328(%rbp), %rax
	movq	%rcx, -288(%rbp)
	movq	%rax, -280(%rbp)
Ltmp767:
	.loc	43 166 34 is_stmt 1
	leaq	-288(%rbp), %rax
	movq	%rax, -128(%rbp)
Ltmp768:
	.loc	32 129 9
	movq	-288(%rbp), %rdi
Ltmp769:
	.loc	43 166 49
	leaq	-288(%rbp), %rax
	movq	%rax, -120(%rbp)
Ltmp770:
	.loc	32 140 9
	movq	-280(%rbp), %rax
	movq	%rax, -112(%rbp)
Ltmp771:
	.loc	33 97 9
	movq	%rax, -224(%rbp)
	movq	-224(%rbp), %rsi
Ltmp772:
	.loc	43 166 14
	callq	___rust_alloc_zeroed
	movq	%rax, -296(%rbp)
Ltmp773:
LBB159_5:
	.loc	43 178 40
	movq	-296(%rbp), %rdi
	.loc	43 178 27 is_stmt 0
	callq	__ZN4core3ptr8non_null16NonNull$LT$T$GT$3new17h9be89fb8e3a62d69E
	movq	%rax, -240(%rbp)
Ltmp774:
	.loc	14 1096 15 is_stmt 1
	movq	-240(%rbp), %rdx
	movl	$1, %eax
	xorl	%ecx, %ecx
	cmpq	$0, %rdx
	cmoveq	%rcx, %rax
	.loc	14 1096 9 is_stmt 0
	cmpq	$0, %rax
	jne	LBB159_7
	.loc	14 1098 21 is_stmt 1
	movq	$0, -248(%rbp)
	.loc	14 1098 28 is_stmt 0
	jmp	LBB159_8
LBB159_7:
	.loc	14 1097 18 is_stmt 1
	movq	-240(%rbp), %rax
	movq	%rax, -80(%rbp)
Ltmp775:
	.loc	14 1097 24 is_stmt 0
	movq	%rax, -248(%rbp)
Ltmp776:
LBB159_8:
	.loc	37 2091 15 is_stmt 1
	movq	-248(%rbp), %rdx
	xorl	%eax, %eax
	movl	$1, %ecx
	cmpq	$0, %rdx
	cmoveq	%rcx, %rax
	.loc	37 2091 9 is_stmt 0
	cmpq	$0, %rax
	jne	LBB159_10
	.loc	37 2092 16 is_stmt 1
	movq	-248(%rbp), %rax
	movq	%rax, -72(%rbp)
Ltmp777:
	.loc	37 2092 22 is_stmt 0
	movq	%rax, -256(%rbp)
Ltmp778:
	.loc	37 2092 45
	jmp	LBB159_11
LBB159_10:
Ltmp779:
	.loc	37 2093 23 is_stmt 1
	movq	$0, -256(%rbp)
Ltmp780:
LBB159_11:
	.loc	43 178 27
	movq	-256(%rbp), %rdx
	xorl	%eax, %eax
	movl	$1, %ecx
	cmpq	$0, %rdx
	cmoveq	%rcx, %rax
	cmpq	$0, %rax
	jne	LBB159_13
	.loc	43 0 27 is_stmt 0
	movq	-344(%rbp), %rsi
	.loc	43 178 27
	movq	-256(%rbp), %rdi
	movq	%rdi, -64(%rbp)
Ltmp781:
	.loc	43 178 27
	movq	%rdi, -56(%rbp)
Ltmp782:
	.loc	43 179 20 is_stmt 1
	callq	__ZN4core3ptr8non_null26NonNull$LT$$u5b$T$u5d$$GT$20slice_from_raw_parts17h14bf0f5856e71989E
	.loc	43 179 17 is_stmt 0
	movq	%rax, -320(%rbp)
	movq	%rdx, -312(%rbp)
Ltmp783:
	.loc	43 180 13 is_stmt 1
	jmp	LBB159_15
LBB159_13:
Ltmp784:
	.loc	37 2107 23
	movq	$0, -320(%rbp)
Ltmp785:
LBB159_14:
	.loc	43 182 6
	movq	-320(%rbp), %rax
	movq	-312(%rbp), %rdx
	addq	$352, %rsp
	popq	%rbp
	retq
LBB159_15:
	jmp	LBB159_14
Ltmp786:
Lfunc_end159:
	.cfi_endproc

	.globl	__ZN5alloc5alloc8box_free17h0ef3da26f0dc2c67E
	.p2align	4, 0x90
__ZN5alloc5alloc8box_free17h0ef3da26f0dc2c67E:
Lfunc_begin160:
	.loc	43 340 0
	.cfi_startproc
	.cfi_personality 155, _rust_eh_personality
	.cfi_lsda 16, Lexception14
	pushq	%rbp
	.cfi_def_cfa_offset 16
	.cfi_offset %rbp, -16
	movq	%rsp, %rbp
	.cfi_def_cfa_register %rbp
	subq	$256, %rsp
	movq	%rdi, -240(%rbp)
Ltmp790:
	.loc	43 345 32 prologue_end
	leaq	-240(%rbp), %rax
	movq	%rax, -184(%rbp)
Ltmp791:
	.loc	42 117 18
	leaq	-240(%rbp), %rax
	movq	%rax, -176(%rbp)
Ltmp792:
	.loc	36 376 20
	movq	-240(%rbp), %rax
	movq	%rax, -168(%rbp)
Ltmp793:
	.loc	43 345 20
	movq	$2104, -160(%rbp)
	movq	-160(%rbp), %rcx
	movq	%rcx, -256(%rbp)
	movq	%rcx, -152(%rbp)
Ltmp794:
	.loc	43 346 38
	leaq	-240(%rbp), %rax
	movq	%rax, -144(%rbp)
Ltmp795:
	.loc	42 117 18
	leaq	-240(%rbp), %rax
	movq	%rax, -136(%rbp)
Ltmp796:
	.loc	36 376 20
	movq	-240(%rbp), %rax
	movq	%rax, -128(%rbp)
Ltmp797:
	.loc	43 346 21
	movq	$8, -120(%rbp)
	movq	-120(%rbp), %rax
	movq	%rax, -112(%rbp)
Ltmp798:
	.loc	43 347 56
	movq	%rcx, -104(%rbp)
	.loc	43 347 62 is_stmt 0
	movq	%rax, -96(%rbp)
Ltmp799:
	.loc	32 120 65 is_stmt 1
	movq	%rax, -88(%rbp)
Ltmp800:
	.loc	33 89 18
	movq	%rax, -80(%rbp)
	movq	-80(%rbp), %rax
	movq	%rax, -248(%rbp)
Ltmp801:
	.loc	33 0 18 is_stmt 0
	movq	-248(%rbp), %rax
	movq	-256(%rbp), %rcx
	.loc	32 120 18 is_stmt 1
	movq	%rcx, -224(%rbp)
	movq	%rax, -216(%rbp)
Ltmp802:
	.loc	43 348 37
	movq	-240(%rbp), %rax
	movq	%rax, -72(%rbp)
Ltmp803:
	.loc	42 137 22
	movq	%rax, -64(%rbp)
Ltmp804:
	.loc	36 450 41
	movq	%rax, -56(%rbp)
	movq	%rax, -48(%rbp)
Ltmp805:
	.loc	36 201 13
	movq	%rax, -192(%rbp)
Ltmp806:
	.loc	42 191 18
	movq	-192(%rbp), %rax
	.loc	42 191 9 is_stmt 0
	movq	%rax, -200(%rbp)
Ltmp807:
	.loc	36 768 41 is_stmt 1
	movq	-200(%rbp), %rax
	movq	%rax, -40(%rbp)
Ltmp808:
	.loc	42 104 9
	movq	%rax, -32(%rbp)
Ltmp809:
	.loc	36 326 9
	movq	%rax, -24(%rbp)
Ltmp810:
	.loc	36 201 13
	movq	%rax, -208(%rbp)
Ltmp811:
	.loc	43 348 50
	movq	-224(%rbp), %rdx
	movq	-216(%rbp), %rcx
	.loc	43 348 9 is_stmt 0
	movq	-208(%rbp), %rsi
Ltmp787:
	leaq	-232(%rbp), %rdi
	callq	__ZN63_$LT$alloc..alloc..Global$u20$as$u20$core..alloc..Allocator$GT$10deallocate17hefce08489187b839E
Ltmp788:
	jmp	LBB160_4
Ltmp812:
LBB160_2:
	.loc	43 340 1 is_stmt 1
	movq	-16(%rbp), %rdi
	callq	__Unwind_Resume
LBB160_3:
Ltmp789:
	.loc	43 0 1 is_stmt 0
	movq	%rax, %rcx
	movl	%edx, %eax
	movq	%rcx, -16(%rbp)
	movl	%eax, -8(%rbp)
	jmp	LBB160_2
LBB160_4:
	.loc	43 350 2 is_stmt 1
	addq	$256, %rsp
	popq	%rbp
	retq
Ltmp813:
Lfunc_end160:
	.cfi_endproc
	.section	__TEXT,__gcc_except_tab
	.p2align	2
GCC_except_table160:
Lexception14:
	.byte	255
	.byte	255
	.byte	1
	.uleb128 Lcst_end14-Lcst_begin14
Lcst_begin14:
	.uleb128 Ltmp787-Lfunc_begin160
	.uleb128 Ltmp788-Ltmp787
	.uleb128 Ltmp789-Lfunc_begin160
	.byte	0
	.uleb128 Ltmp788-Lfunc_begin160
	.uleb128 Lfunc_end160-Ltmp788
	.byte	0
	.byte	0
Lcst_end14:
	.p2align	2

	.section	__TEXT,__text,regular,pure_instructions
	.globl	__ZN5alloc5alloc8box_free17h11be2274ec7b62dbE
	.p2align	4, 0x90
__ZN5alloc5alloc8box_free17h11be2274ec7b62dbE:
Lfunc_begin161:
	.loc	43 340 0
	.cfi_startproc
	.cfi_personality 155, _rust_eh_personality
	.cfi_lsda 16, Lexception15
	pushq	%rbp
	.cfi_def_cfa_offset 16
	.cfi_offset %rbp, -16
	movq	%rsp, %rbp
	.cfi_def_cfa_register %rbp
	subq	$256, %rsp
	movq	%rdi, -240(%rbp)
Ltmp817:
	.loc	43 345 32 prologue_end
	leaq	-240(%rbp), %rax
	movq	%rax, -184(%rbp)
Ltmp818:
	.loc	42 117 18
	leaq	-240(%rbp), %rax
	movq	%rax, -176(%rbp)
Ltmp819:
	.loc	36 376 20
	movq	-240(%rbp), %rax
	movq	%rax, -168(%rbp)
Ltmp820:
	.loc	43 345 20
	movq	$2072, -160(%rbp)
	movq	-160(%rbp), %rcx
	movq	%rcx, -256(%rbp)
	movq	%rcx, -152(%rbp)
Ltmp821:
	.loc	43 346 38
	leaq	-240(%rbp), %rax
	movq	%rax, -144(%rbp)
Ltmp822:
	.loc	42 117 18
	leaq	-240(%rbp), %rax
	movq	%rax, -136(%rbp)
Ltmp823:
	.loc	36 376 20
	movq	-240(%rbp), %rax
	movq	%rax, -128(%rbp)
Ltmp824:
	.loc	43 346 21
	movq	$8, -120(%rbp)
	movq	-120(%rbp), %rax
	movq	%rax, -112(%rbp)
Ltmp825:
	.loc	43 347 56
	movq	%rcx, -104(%rbp)
	.loc	43 347 62 is_stmt 0
	movq	%rax, -96(%rbp)
Ltmp826:
	.loc	32 120 65 is_stmt 1
	movq	%rax, -88(%rbp)
Ltmp827:
	.loc	33 89 18
	movq	%rax, -80(%rbp)
	movq	-80(%rbp), %rax
	movq	%rax, -248(%rbp)
Ltmp828:
	.loc	33 0 18 is_stmt 0
	movq	-248(%rbp), %rax
	movq	-256(%rbp), %rcx
	.loc	32 120 18 is_stmt 1
	movq	%rcx, -224(%rbp)
	movq	%rax, -216(%rbp)
Ltmp829:
	.loc	43 348 37
	movq	-240(%rbp), %rax
	movq	%rax, -72(%rbp)
Ltmp830:
	.loc	42 137 22
	movq	%rax, -64(%rbp)
Ltmp831:
	.loc	36 450 41
	movq	%rax, -56(%rbp)
	movq	%rax, -48(%rbp)
Ltmp832:
	.loc	36 201 13
	movq	%rax, -192(%rbp)
Ltmp833:
	.loc	42 191 18
	movq	-192(%rbp), %rax
	.loc	42 191 9 is_stmt 0
	movq	%rax, -200(%rbp)
Ltmp834:
	.loc	36 768 41 is_stmt 1
	movq	-200(%rbp), %rax
	movq	%rax, -40(%rbp)
Ltmp835:
	.loc	42 104 9
	movq	%rax, -32(%rbp)
Ltmp836:
	.loc	36 326 9
	movq	%rax, -24(%rbp)
Ltmp837:
	.loc	36 201 13
	movq	%rax, -208(%rbp)
Ltmp838:
	.loc	43 348 50
	movq	-224(%rbp), %rdx
	movq	-216(%rbp), %rcx
	.loc	43 348 9 is_stmt 0
	movq	-208(%rbp), %rsi
Ltmp814:
	leaq	-232(%rbp), %rdi
	callq	__ZN63_$LT$alloc..alloc..Global$u20$as$u20$core..alloc..Allocator$GT$10deallocate17hefce08489187b839E
Ltmp815:
	jmp	LBB161_4
Ltmp839:
LBB161_2:
	.loc	43 340 1 is_stmt 1
	movq	-16(%rbp), %rdi
	callq	__Unwind_Resume
LBB161_3:
Ltmp816:
	.loc	43 0 1 is_stmt 0
	movq	%rax, %rcx
	movl	%edx, %eax
	movq	%rcx, -16(%rbp)
	movl	%eax, -8(%rbp)
	jmp	LBB161_2
LBB161_4:
	.loc	43 350 2 is_stmt 1
	addq	$256, %rsp
	popq	%rbp
	retq
Ltmp840:
Lfunc_end161:
	.cfi_endproc
	.section	__TEXT,__gcc_except_tab
	.p2align	2
GCC_except_table161:
Lexception15:
	.byte	255
	.byte	255
	.byte	1
	.uleb128 Lcst_end15-Lcst_begin15
Lcst_begin15:
	.uleb128 Ltmp814-Lfunc_begin161
	.uleb128 Ltmp815-Ltmp814
	.uleb128 Ltmp816-Lfunc_begin161
	.byte	0
	.uleb128 Ltmp815-Lfunc_begin161
	.uleb128 Lfunc_end161-Ltmp815
	.byte	0
	.byte	0
Lcst_end15:
	.p2align	2

	.section	__TEXT,__text,regular,pure_instructions
	.globl	__ZN5alloc5alloc8box_free17h365ebca7b10c25f1E
	.p2align	4, 0x90
__ZN5alloc5alloc8box_free17h365ebca7b10c25f1E:
Lfunc_begin162:
	.loc	43 340 0
	.cfi_startproc
	.cfi_personality 155, _rust_eh_personality
	.cfi_lsda 16, Lexception16
	pushq	%rbp
	.cfi_def_cfa_offset 16
	.cfi_offset %rbp, -16
	movq	%rsp, %rbp
	.cfi_def_cfa_register %rbp
	subq	$256, %rsp
	movq	%rdi, -240(%rbp)
Ltmp844:
	.loc	43 345 32 prologue_end
	leaq	-240(%rbp), %rax
	movq	%rax, -184(%rbp)
Ltmp845:
	.loc	42 117 18
	leaq	-240(%rbp), %rax
	movq	%rax, -176(%rbp)
Ltmp846:
	.loc	36 376 20
	movq	-240(%rbp), %rax
	movq	%rax, -168(%rbp)
Ltmp847:
	.loc	43 345 20
	movq	$8, -160(%rbp)
	movq	-160(%rbp), %rcx
	movq	%rcx, -256(%rbp)
	movq	%rcx, -152(%rbp)
Ltmp848:
	.loc	43 346 38
	leaq	-240(%rbp), %rax
	movq	%rax, -144(%rbp)
Ltmp849:
	.loc	42 117 18
	leaq	-240(%rbp), %rax
	movq	%rax, -136(%rbp)
Ltmp850:
	.loc	36 376 20
	movq	-240(%rbp), %rax
	movq	%rax, -128(%rbp)
Ltmp851:
	.loc	43 346 21
	movq	$8, -120(%rbp)
	movq	-120(%rbp), %rax
	movq	%rax, -112(%rbp)
Ltmp852:
	.loc	43 347 56
	movq	%rcx, -104(%rbp)
	.loc	43 347 62 is_stmt 0
	movq	%rax, -96(%rbp)
Ltmp853:
	.loc	32 120 65 is_stmt 1
	movq	%rax, -88(%rbp)
Ltmp854:
	.loc	33 89 18
	movq	%rax, -80(%rbp)
	movq	-80(%rbp), %rax
	movq	%rax, -248(%rbp)
Ltmp855:
	.loc	33 0 18 is_stmt 0
	movq	-248(%rbp), %rax
	movq	-256(%rbp), %rcx
	.loc	32 120 18 is_stmt 1
	movq	%rcx, -224(%rbp)
	movq	%rax, -216(%rbp)
Ltmp856:
	.loc	43 348 37
	movq	-240(%rbp), %rax
	movq	%rax, -72(%rbp)
Ltmp857:
	.loc	42 137 22
	movq	%rax, -64(%rbp)
Ltmp858:
	.loc	36 450 41
	movq	%rax, -56(%rbp)
	movq	%rax, -48(%rbp)
Ltmp859:
	.loc	36 201 13
	movq	%rax, -192(%rbp)
Ltmp860:
	.loc	42 191 18
	movq	-192(%rbp), %rax
	.loc	42 191 9 is_stmt 0
	movq	%rax, -200(%rbp)
Ltmp861:
	.loc	36 768 41 is_stmt 1
	movq	-200(%rbp), %rax
	movq	%rax, -40(%rbp)
Ltmp862:
	.loc	42 104 9
	movq	%rax, -32(%rbp)
Ltmp863:
	.loc	36 326 9
	movq	%rax, -24(%rbp)
Ltmp864:
	.loc	36 201 13
	movq	%rax, -208(%rbp)
Ltmp865:
	.loc	43 348 50
	movq	-224(%rbp), %rdx
	movq	-216(%rbp), %rcx
	.loc	43 348 9 is_stmt 0
	movq	-208(%rbp), %rsi
Ltmp841:
	leaq	-232(%rbp), %rdi
	callq	__ZN63_$LT$alloc..alloc..Global$u20$as$u20$core..alloc..Allocator$GT$10deallocate17hefce08489187b839E
Ltmp842:
	jmp	LBB162_4
Ltmp866:
LBB162_2:
	.loc	43 340 1 is_stmt 1
	movq	-16(%rbp), %rdi
	callq	__Unwind_Resume
LBB162_3:
Ltmp843:
	.loc	43 0 1 is_stmt 0
	movq	%rax, %rcx
	movl	%edx, %eax
	movq	%rcx, -16(%rbp)
	movl	%eax, -8(%rbp)
	jmp	LBB162_2
LBB162_4:
	.loc	43 350 2 is_stmt 1
	addq	$256, %rsp
	popq	%rbp
	retq
Ltmp867:
Lfunc_end162:
	.cfi_endproc
	.section	__TEXT,__gcc_except_tab
	.p2align	2
GCC_except_table162:
Lexception16:
	.byte	255
	.byte	255
	.byte	1
	.uleb128 Lcst_end16-Lcst_begin16
Lcst_begin16:
	.uleb128 Ltmp841-Lfunc_begin162
	.uleb128 Ltmp842-Ltmp841
	.uleb128 Ltmp843-Lfunc_begin162
	.byte	0
	.uleb128 Ltmp842-Lfunc_begin162
	.uleb128 Lfunc_end162-Ltmp842
	.byte	0
	.byte	0
Lcst_end16:
	.p2align	2

	.section	__TEXT,__text,regular,pure_instructions
	.globl	__ZN5alloc5alloc8box_free17h9256aed6f9666ed0E
	.p2align	4, 0x90
__ZN5alloc5alloc8box_free17h9256aed6f9666ed0E:
Lfunc_begin163:
	.loc	43 340 0
	.cfi_startproc
	.cfi_personality 155, _rust_eh_personality
	.cfi_lsda 16, Lexception17
	pushq	%rbp
	.cfi_def_cfa_offset 16
	.cfi_offset %rbp, -16
	movq	%rsp, %rbp
	.cfi_def_cfa_register %rbp
	subq	$256, %rsp
	movq	%rdi, -240(%rbp)
Ltmp871:
	.loc	43 345 32 prologue_end
	leaq	-240(%rbp), %rax
	movq	%rax, -184(%rbp)
Ltmp872:
	.loc	42 117 18
	leaq	-240(%rbp), %rax
	movq	%rax, -176(%rbp)
Ltmp873:
	.loc	36 376 20
	movq	-240(%rbp), %rax
	movq	%rax, -168(%rbp)
Ltmp874:
	.loc	43 345 20
	movq	$8, -160(%rbp)
	movq	-160(%rbp), %rcx
	movq	%rcx, -256(%rbp)
	movq	%rcx, -152(%rbp)
Ltmp875:
	.loc	43 346 38
	leaq	-240(%rbp), %rax
	movq	%rax, -144(%rbp)
Ltmp876:
	.loc	42 117 18
	leaq	-240(%rbp), %rax
	movq	%rax, -136(%rbp)
Ltmp877:
	.loc	36 376 20
	movq	-240(%rbp), %rax
	movq	%rax, -128(%rbp)
Ltmp878:
	.loc	43 346 21
	movq	$8, -120(%rbp)
	movq	-120(%rbp), %rax
	movq	%rax, -112(%rbp)
Ltmp879:
	.loc	43 347 56
	movq	%rcx, -104(%rbp)
	.loc	43 347 62 is_stmt 0
	movq	%rax, -96(%rbp)
Ltmp880:
	.loc	32 120 65 is_stmt 1
	movq	%rax, -88(%rbp)
Ltmp881:
	.loc	33 89 18
	movq	%rax, -80(%rbp)
	movq	-80(%rbp), %rax
	movq	%rax, -248(%rbp)
Ltmp882:
	.loc	33 0 18 is_stmt 0
	movq	-248(%rbp), %rax
	movq	-256(%rbp), %rcx
	.loc	32 120 18 is_stmt 1
	movq	%rcx, -224(%rbp)
	movq	%rax, -216(%rbp)
Ltmp883:
	.loc	43 348 37
	movq	-240(%rbp), %rax
	movq	%rax, -72(%rbp)
Ltmp884:
	.loc	42 137 22
	movq	%rax, -64(%rbp)
Ltmp885:
	.loc	36 450 41
	movq	%rax, -56(%rbp)
	movq	%rax, -48(%rbp)
Ltmp886:
	.loc	36 201 13
	movq	%rax, -192(%rbp)
Ltmp887:
	.loc	42 191 18
	movq	-192(%rbp), %rax
	.loc	42 191 9 is_stmt 0
	movq	%rax, -200(%rbp)
Ltmp888:
	.loc	36 768 41 is_stmt 1
	movq	-200(%rbp), %rax
	movq	%rax, -40(%rbp)
Ltmp889:
	.loc	42 104 9
	movq	%rax, -32(%rbp)
Ltmp890:
	.loc	36 326 9
	movq	%rax, -24(%rbp)
Ltmp891:
	.loc	36 201 13
	movq	%rax, -208(%rbp)
Ltmp892:
	.loc	43 348 50
	movq	-224(%rbp), %rdx
	movq	-216(%rbp), %rcx
	.loc	43 348 9 is_stmt 0
	movq	-208(%rbp), %rsi
Ltmp868:
	leaq	-232(%rbp), %rdi
	callq	__ZN63_$LT$alloc..alloc..Global$u20$as$u20$core..alloc..Allocator$GT$10deallocate17hefce08489187b839E
Ltmp869:
	jmp	LBB163_4
Ltmp893:
LBB163_2:
	.loc	43 340 1 is_stmt 1
	movq	-16(%rbp), %rdi
	callq	__Unwind_Resume
LBB163_3:
Ltmp870:
	.loc	43 0 1 is_stmt 0
	movq	%rax, %rcx
	movl	%edx, %eax
	movq	%rcx, -16(%rbp)
	movl	%eax, -8(%rbp)
	jmp	LBB163_2
LBB163_4:
	.loc	43 350 2 is_stmt 1
	addq	$256, %rsp
	popq	%rbp
	retq
Ltmp894:
Lfunc_end163:
	.cfi_endproc
	.section	__TEXT,__gcc_except_tab
	.p2align	2
GCC_except_table163:
Lexception17:
	.byte	255
	.byte	255
	.byte	1
	.uleb128 Lcst_end17-Lcst_begin17
Lcst_begin17:
	.uleb128 Ltmp868-Lfunc_begin163
	.uleb128 Ltmp869-Ltmp868
	.uleb128 Ltmp870-Lfunc_begin163
	.byte	0
	.uleb128 Ltmp869-Lfunc_begin163
	.uleb128 Lfunc_end163-Ltmp869
	.byte	0
	.byte	0
Lcst_end17:
	.p2align	2

	.section	__TEXT,__text,regular,pure_instructions
	.globl	__ZN5alloc5boxed12Box$LT$T$GT$8from_raw17hbbbb2953bed5ac27E
	.p2align	4, 0x90
__ZN5alloc5boxed12Box$LT$T$GT$8from_raw17hbbbb2953bed5ac27E:
Lfunc_begin164:
	.loc	41 957 0
	.cfi_startproc
	pushq	%rbp
	.cfi_def_cfa_offset 16
	.cfi_offset %rbp, -16
	movq	%rsp, %rbp
	.cfi_def_cfa_register %rbp
	subq	$16, %rsp
	movq	%rdi, -8(%rbp)
Ltmp895:
	.loc	41 958 18 prologue_end
	callq	__ZN5alloc5boxed16Box$LT$T$C$A$GT$11from_raw_in17h75b7ea6eb6150ad7E
	.loc	41 959 6
	addq	$16, %rsp
	popq	%rbp
	retq
Ltmp896:
Lfunc_end164:
	.cfi_endproc

	.globl	__ZN5alloc5boxed12Box$LT$T$GT$8from_raw17hf47fc673dd03a25fE
	.p2align	4, 0x90
__ZN5alloc5boxed12Box$LT$T$GT$8from_raw17hf47fc673dd03a25fE:
Lfunc_begin165:
	.loc	41 957 0
	.cfi_startproc
	pushq	%rbp
	.cfi_def_cfa_offset 16
	.cfi_offset %rbp, -16
	movq	%rsp, %rbp
	.cfi_def_cfa_register %rbp
	subq	$16, %rsp
	movq	%rdi, -8(%rbp)
Ltmp897:
	.loc	41 958 18 prologue_end
	callq	__ZN5alloc5boxed16Box$LT$T$C$A$GT$11from_raw_in17h5c7169fefbeae939E
	.loc	41 959 6
	addq	$16, %rsp
	popq	%rbp
	retq
Ltmp898:
Lfunc_end165:
	.cfi_endproc

	.globl	__ZN5alloc5boxed16Box$LT$T$C$A$GT$11from_raw_in17h5c7169fefbeae939E
	.p2align	4, 0x90
__ZN5alloc5boxed16Box$LT$T$C$A$GT$11from_raw_in17h5c7169fefbeae939E:
Lfunc_begin166:
	.loc	41 1013 0
	.cfi_startproc
	pushq	%rbp
	.cfi_def_cfa_offset 16
	.cfi_offset %rbp, -16
	movq	%rsp, %rbp
	.cfi_def_cfa_register %rbp
	subq	$56, %rsp
	movq	%rdi, -32(%rbp)
Ltmp899:
	.loc	41 1014 44 prologue_end
	movq	%rdi, -16(%rbp)
Ltmp900:
	.loc	42 87 59
	movq	%rdi, -8(%rbp)
Ltmp901:
	.loc	36 201 13
	movq	%rdi, -40(%rbp)
Ltmp902:
	.loc	42 87 18
	movq	-40(%rbp), %rax
	movq	%rax, -48(%rbp)
Ltmp903:
	.loc	41 1014 9
	movq	-48(%rbp), %rax
	movq	%rax, -56(%rbp)
	.loc	41 1015 6
	movq	-56(%rbp), %rax
	addq	$56, %rsp
	popq	%rbp
	retq
Ltmp904:
Lfunc_end166:
	.cfi_endproc

	.globl	__ZN5alloc5boxed16Box$LT$T$C$A$GT$11from_raw_in17h75b7ea6eb6150ad7E
	.p2align	4, 0x90
__ZN5alloc5boxed16Box$LT$T$C$A$GT$11from_raw_in17h75b7ea6eb6150ad7E:
Lfunc_begin167:
	.loc	41 1013 0
	.cfi_startproc
	pushq	%rbp
	.cfi_def_cfa_offset 16
	.cfi_offset %rbp, -16
	movq	%rsp, %rbp
	.cfi_def_cfa_register %rbp
	subq	$56, %rsp
	movq	%rdi, -32(%rbp)
Ltmp905:
	.loc	41 1014 44 prologue_end
	movq	%rdi, -16(%rbp)
Ltmp906:
	.loc	42 87 59
	movq	%rdi, -8(%rbp)
Ltmp907:
	.loc	36 201 13
	movq	%rdi, -40(%rbp)
Ltmp908:
	.loc	42 87 18
	movq	-40(%rbp), %rax
	movq	%rax, -48(%rbp)
Ltmp909:
	.loc	41 1014 9
	movq	-48(%rbp), %rax
	movq	%rax, -56(%rbp)
	.loc	41 1015 6
	movq	-56(%rbp), %rax
	addq	$56, %rsp
	popq	%rbp
	retq
Ltmp910:
Lfunc_end167:
	.cfi_endproc

	.globl	__ZN5alloc5boxed16Box$LT$T$C$A$GT$11into_unique17h353fc2a13c0f8cadE
	.p2align	4, 0x90
__ZN5alloc5boxed16Box$LT$T$C$A$GT$11into_unique17h353fc2a13c0f8cadE:
Lfunc_begin168:
	.loc	41 1124 0
	.cfi_startproc
	.cfi_personality 155, _rust_eh_personality
	.cfi_lsda 16, Lexception18
	pushq	%rbp
	.cfi_def_cfa_offset 16
	.cfi_offset %rbp, -16
	movq	%rsp, %rbp
	.cfi_def_cfa_register %rbp
	subq	$128, %rsp
	movq	%rdi, -120(%rbp)
Ltmp917:
	.loc	41 1130 13 prologue_end
	movb	$1, -89(%rbp)
	.loc	41 1130 40 is_stmt 0
	leaq	-120(%rbp), %rax
	movq	%rax, -48(%rbp)
Ltmp918:
	.loc	6 1157 34 is_stmt 1
	leaq	-88(%rbp), %rax
	movq	%rax, -40(%rbp)
Ltmp919:
	.loc	41 1131 33
	movb	$0, -89(%rbp)
	movq	-120(%rbp), %rdi
Ltmp911:
	.loc	41 1131 23 is_stmt 0
	callq	__ZN5alloc5boxed16Box$LT$T$C$A$GT$4leak17hb18ce7f8d163dcbeE
Ltmp912:
	movq	%rax, -128(%rbp)
	jmp	LBB168_4
Ltmp920:
LBB168_2:
	.loc	41 1132 5 is_stmt 1
	jmp	LBB168_5
LBB168_3:
Ltmp913:
	.loc	41 0 5 is_stmt 0
	movq	%rax, %rcx
	movl	%edx, %eax
	movq	%rcx, -32(%rbp)
	movl	%eax, -24(%rbp)
	jmp	LBB168_2
LBB168_4:
	movq	-128(%rbp), %rax
Ltmp921:
	.loc	41 1131 23 is_stmt 1
	movq	%rax, -16(%rbp)
Ltmp922:
	.loc	42 180 34
	movq	%rax, -8(%rbp)
Ltmp923:
	.loc	36 781 18
	movq	%rax, -80(%rbp)
Ltmp924:
	.loc	42 191 18
	movq	-80(%rbp), %rax
	.loc	42 191 9 is_stmt 0
	movq	%rax, -104(%rbp)
Ltmp925:
	.loc	41 1131 9 is_stmt 1
	movq	-104(%rbp), %rax
	movq	%rax, -112(%rbp)
Ltmp926:
	.loc	41 1132 6
	movq	-112(%rbp), %rax
	addq	$128, %rsp
	popq	%rbp
	retq
LBB168_5:
	.loc	41 1132 5 is_stmt 0
	testb	$1, -89(%rbp)
	jne	LBB168_7
LBB168_6:
	.loc	41 1124 5 is_stmt 1
	movq	-32(%rbp), %rdi
	callq	__Unwind_Resume
LBB168_7:
Ltmp914:
	.loc	41 0 5 is_stmt 0
	leaq	-120(%rbp), %rdi
	.loc	41 1132 5 is_stmt 1
	callq	__ZN4core3ptr124drop_in_place$LT$alloc..boxed..Box$LT$crossbeam_epoch..sync..queue..Node$LT$crossbeam_epoch..internal..SealedBag$GT$$GT$$GT$17haad04f5bdbfdf8abE
Ltmp915:
	jmp	LBB168_6
LBB168_8:
Ltmp916:
	.loc	41 1124 5
	callq	__ZN4core9panicking19panic_cannot_unwind17h1fbca7e1d7f56ae1E
Ltmp927:
Lfunc_end168:
	.cfi_endproc
	.section	__TEXT,__gcc_except_tab
	.p2align	2
GCC_except_table168:
Lexception18:
	.byte	255
	.byte	255
	.byte	1
	.uleb128 Lcst_end18-Lcst_begin18
Lcst_begin18:
	.uleb128 Ltmp911-Lfunc_begin168
	.uleb128 Ltmp912-Ltmp911
	.uleb128 Ltmp913-Lfunc_begin168
	.byte	0
	.uleb128 Ltmp912-Lfunc_begin168
	.uleb128 Ltmp914-Ltmp912
	.byte	0
	.byte	0
	.uleb128 Ltmp914-Lfunc_begin168
	.uleb128 Ltmp915-Ltmp914
	.uleb128 Ltmp916-Lfunc_begin168
	.byte	0
Lcst_end18:
	.p2align	2

	.section	__TEXT,__text,regular,pure_instructions
	.globl	__ZN5alloc5boxed16Box$LT$T$C$A$GT$11into_unique17he02930812c875ff8E
	.p2align	4, 0x90
__ZN5alloc5boxed16Box$LT$T$C$A$GT$11into_unique17he02930812c875ff8E:
Lfunc_begin169:
	.loc	41 1124 0
	.cfi_startproc
	.cfi_personality 155, _rust_eh_personality
	.cfi_lsda 16, Lexception19
	pushq	%rbp
	.cfi_def_cfa_offset 16
	.cfi_offset %rbp, -16
	movq	%rsp, %rbp
	.cfi_def_cfa_register %rbp
	subq	$128, %rsp
	movq	%rdi, -120(%rbp)
Ltmp934:
	.loc	41 1130 13 prologue_end
	movb	$1, -89(%rbp)
	.loc	41 1130 40 is_stmt 0
	leaq	-120(%rbp), %rax
	movq	%rax, -48(%rbp)
Ltmp935:
	.loc	6 1157 34 is_stmt 1
	leaq	-88(%rbp), %rax
	movq	%rax, -40(%rbp)
Ltmp936:
	.loc	41 1131 33
	movb	$0, -89(%rbp)
	movq	-120(%rbp), %rdi
Ltmp928:
	.loc	41 1131 23 is_stmt 0
	callq	__ZN5alloc5boxed16Box$LT$T$C$A$GT$4leak17h6537e2940ceeadedE
Ltmp929:
	movq	%rax, -128(%rbp)
	jmp	LBB169_4
Ltmp937:
LBB169_2:
	.loc	41 1132 5 is_stmt 1
	jmp	LBB169_5
LBB169_3:
Ltmp930:
	.loc	41 0 5 is_stmt 0
	movq	%rax, %rcx
	movl	%edx, %eax
	movq	%rcx, -32(%rbp)
	movl	%eax, -24(%rbp)
	jmp	LBB169_2
LBB169_4:
	movq	-128(%rbp), %rax
Ltmp938:
	.loc	41 1131 23 is_stmt 1
	movq	%rax, -16(%rbp)
Ltmp939:
	.loc	42 180 34
	movq	%rax, -8(%rbp)
Ltmp940:
	.loc	36 781 18
	movq	%rax, -80(%rbp)
Ltmp941:
	.loc	42 191 18
	movq	-80(%rbp), %rax
	.loc	42 191 9 is_stmt 0
	movq	%rax, -104(%rbp)
Ltmp942:
	.loc	41 1131 9 is_stmt 1
	movq	-104(%rbp), %rax
	movq	%rax, -112(%rbp)
Ltmp943:
	.loc	41 1132 6
	movq	-112(%rbp), %rax
	addq	$128, %rsp
	popq	%rbp
	retq
LBB169_5:
	.loc	41 1132 5 is_stmt 0
	testb	$1, -89(%rbp)
	jne	LBB169_7
LBB169_6:
	.loc	41 1124 5 is_stmt 1
	movq	-32(%rbp), %rdi
	callq	__Unwind_Resume
LBB169_7:
Ltmp931:
	.loc	41 0 5 is_stmt 0
	leaq	-120(%rbp), %rdi
	.loc	41 1132 5 is_stmt 1
	callq	__ZN4core3ptr78drop_in_place$LT$alloc..boxed..Box$LT$crossbeam_epoch..internal..Local$GT$$GT$17hdba543a843225367E
Ltmp932:
	jmp	LBB169_6
LBB169_8:
Ltmp933:
	.loc	41 1124 5
	callq	__ZN4core9panicking19panic_cannot_unwind17h1fbca7e1d7f56ae1E
Ltmp944:
Lfunc_end169:
	.cfi_endproc
	.section	__TEXT,__gcc_except_tab
	.p2align	2
GCC_except_table169:
Lexception19:
	.byte	255
	.byte	255
	.byte	1
	.uleb128 Lcst_end19-Lcst_begin19
Lcst_begin19:
	.uleb128 Ltmp928-Lfunc_begin169
	.uleb128 Ltmp929-Ltmp928
	.uleb128 Ltmp930-Lfunc_begin169
	.byte	0
	.uleb128 Ltmp929-Lfunc_begin169
	.uleb128 Ltmp931-Ltmp929
	.byte	0
	.byte	0
	.uleb128 Ltmp931-Lfunc_begin169
	.uleb128 Ltmp932-Ltmp931
	.uleb128 Ltmp933-Lfunc_begin169
	.byte	0
Lcst_end19:
	.p2align	2

	.section	__TEXT,__text,regular,pure_instructions
	.globl	__ZN5alloc5boxed16Box$LT$T$C$A$GT$23into_raw_with_allocator17h40fa262ee06c3c46E
	.p2align	4, 0x90
__ZN5alloc5boxed16Box$LT$T$C$A$GT$23into_raw_with_allocator17h40fa262ee06c3c46E:
Lfunc_begin170:
	.loc	41 1111 0
	.cfi_startproc
	pushq	%rbp
	.cfi_def_cfa_offset 16
	.cfi_offset %rbp, -16
	movq	%rsp, %rbp
	.cfi_def_cfa_register %rbp
	subq	$48, %rsp
	movq	%rdi, -40(%rbp)
Ltmp945:
	.loc	41 1112 31 prologue_end
	callq	__ZN5alloc5boxed16Box$LT$T$C$A$GT$11into_unique17he02930812c875ff8E
	.loc	41 1112 14 is_stmt 0
	movq	%rax, -24(%rbp)
Ltmp946:
	.loc	41 1113 10 is_stmt 1
	movq	%rax, -16(%rbp)
Ltmp947:
	.loc	42 104 9
	movq	%rax, -8(%rbp)
Ltmp948:
	.loc	41 1113 9
	movq	%rax, -48(%rbp)
Ltmp949:
	.loc	41 1114 6
	movq	-48(%rbp), %rax
	addq	$48, %rsp
	popq	%rbp
	retq
Ltmp950:
Lfunc_end170:
	.cfi_endproc

	.globl	__ZN5alloc5boxed16Box$LT$T$C$A$GT$23into_raw_with_allocator17hce8b915a078c6293E
	.p2align	4, 0x90
__ZN5alloc5boxed16Box$LT$T$C$A$GT$23into_raw_with_allocator17hce8b915a078c6293E:
Lfunc_begin171:
	.loc	41 1111 0
	.cfi_startproc
	pushq	%rbp
	.cfi_def_cfa_offset 16
	.cfi_offset %rbp, -16
	movq	%rsp, %rbp
	.cfi_def_cfa_register %rbp
	subq	$48, %rsp
	movq	%rdi, -40(%rbp)
Ltmp951:
	.loc	41 1112 31 prologue_end
	callq	__ZN5alloc5boxed16Box$LT$T$C$A$GT$11into_unique17h353fc2a13c0f8cadE
	.loc	41 1112 14 is_stmt 0
	movq	%rax, -24(%rbp)
Ltmp952:
	.loc	41 1113 10 is_stmt 1
	movq	%rax, -16(%rbp)
Ltmp953:
	.loc	42 104 9
	movq	%rax, -8(%rbp)
Ltmp954:
	.loc	41 1113 9
	movq	%rax, -48(%rbp)
Ltmp955:
	.loc	41 1114 6
	movq	-48(%rbp), %rax
	addq	$48, %rsp
	popq	%rbp
	retq
Ltmp956:
Lfunc_end171:
	.cfi_endproc

	.globl	__ZN5alloc5boxed16Box$LT$T$C$A$GT$4leak17h6537e2940ceeadedE
	.p2align	4, 0x90
__ZN5alloc5boxed16Box$LT$T$C$A$GT$4leak17h6537e2940ceeadedE:
Lfunc_begin172:
	.loc	41 1184 0
	.cfi_startproc
	pushq	%rbp
	.cfi_def_cfa_offset 16
	.cfi_offset %rbp, -16
	movq	%rsp, %rbp
	.cfi_def_cfa_register %rbp
	subq	$48, %rsp
	movq	%rdi, -40(%rbp)
Ltmp957:
	.loc	41 1188 47 prologue_end
	movq	%rdi, -32(%rbp)
Ltmp958:
	.loc	21 71 9
	movq	%rdi, -48(%rbp)
Ltmp959:
	.loc	41 1188 24
	leaq	-48(%rbp), %rax
	movq	%rax, -24(%rbp)
	movq	-48(%rbp), %rax
	movq	%rax, -16(%rbp)
Ltmp960:
	.loc	42 104 9
	movq	%rax, -8(%rbp)
Ltmp961:
	.loc	41 1189 6
	addq	$48, %rsp
	popq	%rbp
	retq
Ltmp962:
Lfunc_end172:
	.cfi_endproc

	.globl	__ZN5alloc5boxed16Box$LT$T$C$A$GT$4leak17hb18ce7f8d163dcbeE
	.p2align	4, 0x90
__ZN5alloc5boxed16Box$LT$T$C$A$GT$4leak17hb18ce7f8d163dcbeE:
Lfunc_begin173:
	.loc	41 1184 0
	.cfi_startproc
	pushq	%rbp
	.cfi_def_cfa_offset 16
	.cfi_offset %rbp, -16
	movq	%rsp, %rbp
	.cfi_def_cfa_register %rbp
	subq	$48, %rsp
	movq	%rdi, -40(%rbp)
Ltmp963:
	.loc	41 1188 47 prologue_end
	movq	%rdi, -32(%rbp)
Ltmp964:
	.loc	21 71 9
	movq	%rdi, -48(%rbp)
Ltmp965:
	.loc	41 1188 24
	leaq	-48(%rbp), %rax
	movq	%rax, -24(%rbp)
	movq	-48(%rbp), %rax
	movq	%rax, -16(%rbp)
Ltmp966:
	.loc	42 104 9
	movq	%rax, -8(%rbp)
Ltmp967:
	.loc	41 1189 6
	addq	$48, %rsp
	popq	%rbp
	retq
Ltmp968:
Lfunc_end173:
	.cfi_endproc

	.globl	__ZN5alloc5boxed16Box$LT$T$C$A$GT$8into_raw17h3b1282b5d32610e1E
	.p2align	4, 0x90
__ZN5alloc5boxed16Box$LT$T$C$A$GT$8into_raw17h3b1282b5d32610e1E:
Lfunc_begin174:
	.loc	41 1058 0
	.cfi_startproc
	pushq	%rbp
	.cfi_def_cfa_offset 16
	.cfi_offset %rbp, -16
	movq	%rsp, %rbp
	.cfi_def_cfa_register %rbp
	subq	$16, %rsp
	movq	%rdi, -8(%rbp)
Ltmp969:
	.loc	41 1059 9 prologue_end
	callq	__ZN5alloc5boxed16Box$LT$T$C$A$GT$23into_raw_with_allocator17hce8b915a078c6293E
	.loc	41 1060 6
	addq	$16, %rsp
	popq	%rbp
	retq
Ltmp970:
Lfunc_end174:
	.cfi_endproc

	.globl	__ZN5alloc5boxed16Box$LT$T$C$A$GT$8into_raw17h70b6a1be9e68853dE
	.p2align	4, 0x90
__ZN5alloc5boxed16Box$LT$T$C$A$GT$8into_raw17h70b6a1be9e68853dE:
Lfunc_begin175:
	.loc	41 1058 0
	.cfi_startproc
	pushq	%rbp
	.cfi_def_cfa_offset 16
	.cfi_offset %rbp, -16
	movq	%rsp, %rbp
	.cfi_def_cfa_register %rbp
	subq	$16, %rsp
	movq	%rdi, -8(%rbp)
Ltmp971:
	.loc	41 1059 9 prologue_end
	callq	__ZN5alloc5boxed16Box$LT$T$C$A$GT$23into_raw_with_allocator17h40fa262ee06c3c46E
	.loc	41 1060 6
	addq	$16, %rsp
	popq	%rbp
	retq
Ltmp972:
Lfunc_end175:
	.cfi_endproc

	.globl	__ZN63_$LT$I$u20$as$u20$core..iter..traits..collect..IntoIterator$GT$9into_iter17h7f30b42a4898f6aeE
	.p2align	4, 0x90
__ZN63_$LT$I$u20$as$u20$core..iter..traits..collect..IntoIterator$GT$9into_iter17h7f30b42a4898f6aeE:
Lfunc_begin176:
	.file	44 "/rustc/2c8cc343237b8f7d5a3c3703e3a87f2eb2c54a74/library/core/src/iter/traits" "collect.rs"
	.loc	44 272 0
	.cfi_startproc
	pushq	%rbp
	.cfi_def_cfa_offset 16
	.cfi_offset %rbp, -16
	movq	%rsp, %rbp
	.cfi_def_cfa_register %rbp
	subq	$16, %rsp
	movq	%rsi, %rdx
	movq	%rdi, %rax
	movq	%rax, -16(%rbp)
	movq	%rdx, -8(%rbp)
Ltmp973:
	.loc	44 274 6 prologue_end
	addq	$16, %rsp
	popq	%rbp
	retq
Ltmp974:
Lfunc_end176:
	.cfi_endproc

	.globl	__ZN63_$LT$I$u20$as$u20$core..iter..traits..collect..IntoIterator$GT$9into_iter17h92110f3a012845c9E
	.p2align	4, 0x90
__ZN63_$LT$I$u20$as$u20$core..iter..traits..collect..IntoIterator$GT$9into_iter17h92110f3a012845c9E:
Lfunc_begin177:
	.loc	44 272 0
	.cfi_startproc
	pushq	%rbp
	.cfi_def_cfa_offset 16
	.cfi_offset %rbp, -16
	movq	%rsp, %rbp
	.cfi_def_cfa_register %rbp
	subq	$16, %rsp
	movq	%rsi, %rdx
	movq	%rdi, %rax
	movq	%rax, -16(%rbp)
	movq	%rdx, -8(%rbp)
Ltmp975:
	.loc	44 274 6 prologue_end
	addq	$16, %rsp
	popq	%rbp
	retq
Ltmp976:
Lfunc_end177:
	.cfi_endproc

	.globl	__ZN63_$LT$I$u20$as$u20$core..iter..traits..collect..IntoIterator$GT$9into_iter17hced999ae48ca76cdE
	.p2align	4, 0x90
__ZN63_$LT$I$u20$as$u20$core..iter..traits..collect..IntoIterator$GT$9into_iter17hced999ae48ca76cdE:
Lfunc_begin178:
	.loc	44 272 0
	.cfi_startproc
	pushq	%rbp
	.cfi_def_cfa_offset 16
	.cfi_offset %rbp, -16
	movq	%rsp, %rbp
	.cfi_def_cfa_register %rbp
	movq	%rdi, %rax
Ltmp977:
	.loc	44 273 9 prologue_end
	movq	(%rsi), %rcx
	movq	%rcx, (%rdi)
	movq	8(%rsi), %rcx
	movq	%rcx, 8(%rdi)
	movq	16(%rsi), %rcx
	movq	%rcx, 16(%rdi)
	movq	24(%rsi), %rcx
	movq	%rcx, 24(%rdi)
	.loc	44 274 6
	popq	%rbp
	retq
Ltmp978:
Lfunc_end178:
	.cfi_endproc

	.p2align	4, 0x90
__ZN63_$LT$alloc..alloc..Global$u20$as$u20$core..alloc..Allocator$GT$10deallocate17hefce08489187b839E:
Lfunc_begin179:
	.loc	43 246 0
	.cfi_startproc
	pushq	%rbp
	.cfi_def_cfa_offset 16
	.cfi_offset %rbp, -16
	movq	%rsp, %rbp
	.cfi_def_cfa_register %rbp
	subq	$112, %rsp
	movq	%rsi, -112(%rbp)
	movq	%rdx, -104(%rbp)
	movq	%rcx, -96(%rbp)
	movq	%rdi, -64(%rbp)
	movq	%rsi, -56(%rbp)
Ltmp979:
	.loc	43 247 12 prologue_end
	leaq	-104(%rbp), %rax
	movq	%rax, -48(%rbp)
	cmpq	$0, -104(%rbp)
	jne	LBB179_2
	.loc	43 247 9 is_stmt 0
	jmp	LBB179_3
LBB179_2:
	.loc	43 0 9
	movq	-112(%rbp), %rdi
	.loc	43 250 30 is_stmt 1
	movq	%rdi, -40(%rbp)
Ltmp980:
	.loc	36 326 9
	movq	%rdi, -32(%rbp)
Ltmp981:
	.loc	43 250 44
	movq	-104(%rbp), %rcx
	movq	-96(%rbp), %rax
	movq	%rcx, -88(%rbp)
	movq	%rax, -80(%rbp)
Ltmp982:
	.loc	43 113 34
	leaq	-88(%rbp), %rax
	movq	%rax, -24(%rbp)
Ltmp983:
	.loc	32 129 9
	movq	-88(%rbp), %rsi
Ltmp984:
	.loc	43 113 49
	leaq	-88(%rbp), %rax
	movq	%rax, -16(%rbp)
Ltmp985:
	.loc	32 140 9
	movq	-80(%rbp), %rax
	movq	%rax, -8(%rbp)
Ltmp986:
	.loc	33 97 9
	movq	%rax, -72(%rbp)
	movq	-72(%rbp), %rdx
Ltmp987:
	.loc	43 113 14
	callq	___rust_dealloc
Ltmp988:
LBB179_3:
	.loc	43 252 6
	addq	$112, %rsp
	popq	%rbp
	retq
Ltmp989:
Lfunc_end179:
	.cfi_endproc

	.globl	__ZN64_$LT$alloc..sync..Arc$LT$T$GT$$u20$as$u20$core..clone..Clone$GT$5clone17h9a7ed5855a562095E
	.p2align	4, 0x90
__ZN64_$LT$alloc..sync..Arc$LT$T$GT$$u20$as$u20$core..clone..Clone$GT$5clone17h9a7ed5855a562095E:
Lfunc_begin180:
	.loc	40 1353 0
	.cfi_startproc
	pushq	%rbp
	.cfi_def_cfa_offset 16
	.cfi_offset %rbp, -16
	movq	%rsp, %rbp
	.cfi_def_cfa_register %rbp
	subq	$64, %rsp
	movq	%rdi, -64(%rbp)
	movq	%rdi, -56(%rbp)
Ltmp990:
	.loc	40 1365 24 prologue_end
	movq	%rdi, -48(%rbp)
Ltmp991:
	.loc	40 1115 18
	movq	%rdi, -40(%rbp)
Ltmp992:
	.loc	36 376 20
	movq	(%rdi), %rdi
	movq	%rdi, -32(%rbp)
Ltmp993:
	.loc	40 1365 24
	movq	%rdi, -24(%rbp)
Ltmp994:
	.loc	13 2379 37
	movq	%rdi, -16(%rbp)
	.loc	13 2379 26 is_stmt 0
	movl	$1, %esi
	xorl	%edx, %edx
	callq	__ZN4core4sync6atomic10atomic_add17h1b029d900d6e75d0E
	movq	%rax, -8(%rbp)
Ltmp995:
	.loc	40 1377 12 is_stmt 1
	movabsq	$9223372036854775807, %rcx
	cmpq	%rcx, %rax
	ja	LBB180_2
	.loc	40 0 12 is_stmt 0
	movq	-64(%rbp), %rax
	.loc	40 1381 35 is_stmt 1
	movq	(%rax), %rdi
	.loc	40 1381 18 is_stmt 0
	callq	__ZN5alloc4sync12Arc$LT$T$GT$10from_inner17h92f5bd24e3136c9fE
Ltmp996:
	.loc	40 1382 6 is_stmt 1
	addq	$64, %rsp
	popq	%rbp
	retq
LBB180_2:
Ltmp997:
	.loc	40 1378 13
	ud2
Ltmp998:
Lfunc_end180:
	.cfi_endproc

	.globl	__ZN67_$LT$alloc..sync..Arc$LT$T$GT$$u20$as$u20$core..ops..drop..Drop$GT$4drop17h2c6b77221874120bE
	.p2align	4, 0x90
__ZN67_$LT$alloc..sync..Arc$LT$T$GT$$u20$as$u20$core..ops..drop..Drop$GT$4drop17h2c6b77221874120bE:
Lfunc_begin181:
	.loc	40 1706 0
	.cfi_startproc
	pushq	%rbp
	.cfi_def_cfa_offset 16
	.cfi_offset %rbp, -16
	movq	%rsp, %rbp
	.cfi_def_cfa_register %rbp
	subq	$64, %rsp
	movq	%rdi, -64(%rbp)
	movq	%rdi, -48(%rbp)
Ltmp999:
	.loc	40 1710 12 prologue_end
	movq	%rdi, -40(%rbp)
Ltmp1000:
	.loc	40 1115 18
	movq	%rdi, -32(%rbp)
Ltmp1001:
	.loc	36 376 20
	movq	(%rdi), %rdi
	movq	%rdi, -24(%rbp)
Ltmp1002:
	.loc	40 1710 12
	movq	%rdi, -16(%rbp)
Ltmp1003:
	.loc	13 2409 37
	movq	%rdi, -8(%rbp)
	.loc	13 2409 26 is_stmt 0
	movl	$1, %esi
	movl	$1, %edx
	callq	__ZN4core4sync6atomic10atomic_sub17he925ed2e358952a1E
Ltmp1004:
	.loc	40 1710 12 is_stmt 1
	cmpq	$1, %rax
	jne	LBB181_2
	.loc	40 1742 9
	movb	$2, -49(%rbp)
	movzbl	-49(%rbp), %edi
	callq	__ZN4core4sync6atomic5fence17hb47053d0a24f5222E
	movq	-64(%rbp), %rdi
	.loc	40 1745 13
	callq	__ZN5alloc4sync12Arc$LT$T$GT$9drop_slow17hb507bf2dca27f35aE
	.loc	40 1747 6
	jmp	LBB181_3
LBB181_2:
	jmp	LBB181_3
LBB181_3:
	addq	$64, %rsp
	popq	%rbp
	retq
Ltmp1005:
Lfunc_end181:
	.cfi_endproc

	.globl	__ZN68_$LT$alloc..sync..Weak$LT$T$GT$$u20$as$u20$core..ops..drop..Drop$GT$4drop17h719ae7e6b2ef1e95E
	.p2align	4, 0x90
__ZN68_$LT$alloc..sync..Weak$LT$T$GT$$u20$as$u20$core..ops..drop..Drop$GT$4drop17h719ae7e6b2ef1e95E:
Lfunc_begin182:
	.loc	40 2237 0
	.cfi_startproc
	pushq	%rbp
	.cfi_def_cfa_offset 16
	.cfi_offset %rbp, -16
	movq	%rsp, %rbp
	.cfi_def_cfa_register %rbp
	subq	$144, %rsp
	movq	%rdi, -128(%rbp)
	movq	%rdi, -72(%rbp)
Ltmp1006:
	.loc	40 2246 42 prologue_end
	callq	__ZN5alloc4sync13Weak$LT$T$GT$5inner17hb223c01be989eae7E
	movq	%rdx, -96(%rbp)
	movq	%rax, -104(%rbp)
	.loc	40 2246 28 is_stmt 0
	movq	-104(%rbp), %rdx
	movl	$1, %eax
	xorl	%ecx, %ecx
	cmpq	$0, %rdx
	cmoveq	%rcx, %rax
	cmpq	$1, %rax
	jne	LBB182_2
	.loc	40 2246 33
	movq	-104(%rbp), %rcx
	movq	-96(%rbp), %rax
	movq	%rcx, -64(%rbp)
	movq	%rax, -56(%rbp)
	.loc	40 2246 57
	movq	%rcx, -120(%rbp)
	movq	%rax, -112(%rbp)
Ltmp1007:
	.loc	40 2248 12 is_stmt 1
	movq	-120(%rbp), %rdi
	movq	%rdi, -48(%rbp)
Ltmp1008:
	.loc	13 2409 37
	movq	%rdi, -40(%rbp)
	.loc	13 2409 26 is_stmt 0
	movl	$1, %esi
	movl	$1, %edx
	callq	__ZN4core4sync6atomic10atomic_sub17he925ed2e358952a1E
Ltmp1009:
	.loc	40 2248 12 is_stmt 1
	cmpq	$1, %rax
	je	LBB182_4
	jmp	LBB182_5
Ltmp1010:
LBB182_2:
	.loc	40 2252 6
	jmp	LBB182_3
LBB182_3:
	addq	$144, %rsp
	popq	%rbp
	retq
LBB182_4:
Ltmp1011:
	.loc	40 2249 13
	movb	$2, -81(%rbp)
	movzbl	-81(%rbp), %edi
	callq	__ZN4core4sync6atomic5fence17hb47053d0a24f5222E
	movq	-128(%rbp), %rax
	.loc	40 2250 40
	movq	(%rax), %rcx
	movq	%rcx, -32(%rbp)
Ltmp1012:
	.loc	36 450 41
	movq	%rcx, -24(%rbp)
	movq	%rcx, -16(%rbp)
Ltmp1013:
	.loc	36 201 13
	movq	%rcx, -80(%rbp)
Ltmp1014:
	.loc	40 2250 79
	movq	(%rax), %rdi
	movq	%rdi, -8(%rbp)
	.loc	40 2250 57 is_stmt 0
	callq	__ZN4core5alloc6layout6Layout13for_value_raw17h089bbb350a315402E
	movq	%rax, -136(%rbp)
	movq	%rdx, %rcx
	movq	-136(%rbp), %rdx
	.loc	40 2250 22
	movq	-80(%rbp), %rsi
	leaq	l___unnamed_13(%rip), %rdi
	callq	__ZN63_$LT$alloc..alloc..Global$u20$as$u20$core..alloc..Allocator$GT$10deallocate17hefce08489187b839E
	.loc	40 2248 9 is_stmt 1
	jmp	LBB182_6
LBB182_5:
	jmp	LBB182_6
Ltmp1015:
LBB182_6:
	.loc	40 2252 6
	jmp	LBB182_3
Ltmp1016:
Lfunc_end182:
	.cfi_endproc

	.globl	__ZN69_$LT$alloc..sync..Arc$LT$T$GT$$u20$as$u20$core..ops..deref..Deref$GT$5deref17h48edaa2e173661d8E
	.p2align	4, 0x90
__ZN69_$LT$alloc..sync..Arc$LT$T$GT$$u20$as$u20$core..ops..deref..Deref$GT$5deref17h48edaa2e173661d8E:
Lfunc_begin183:
	.loc	40 1390 0
	.cfi_startproc
	pushq	%rbp
	.cfi_def_cfa_offset 16
	.cfi_offset %rbp, -16
	movq	%rsp, %rbp
	.cfi_def_cfa_register %rbp
	subq	$32, %rsp
	movq	%rdi, -32(%rbp)
Ltmp1017:
	.loc	40 1391 10 prologue_end
	movq	%rdi, -24(%rbp)
Ltmp1018:
	.loc	40 1115 18
	movq	%rdi, -16(%rbp)
Ltmp1019:
	.loc	36 376 20
	movq	(%rdi), %rax
	movq	%rax, -8(%rbp)
Ltmp1020:
	.loc	40 1391 9
	addq	$128, %rax
	.loc	40 1392 6
	addq	$32, %rsp
	popq	%rbp
	retq
Ltmp1021:
Lfunc_end183:
	.cfi_endproc

	.p2align	4, 0x90
__ZN84_$LT$core..num..wrapping..Wrapping$LT$usize$GT$$u20$as$u20$core..ops..arith..Add$GT$3add17heaacaf94153ee850E:
Lfunc_begin184:
	.file	45 "/rustc/2c8cc343237b8f7d5a3c3703e3a87f2eb2c54a74/library/core/src/num" "wrapping.rs"
	.loc	45 225 0
	.cfi_startproc
	pushq	%rbp
	.cfi_def_cfa_offset 16
	.cfi_offset %rbp, -16
	movq	%rsp, %rbp
	.cfi_def_cfa_register %rbp
	subq	$40, %rsp
	movq	%rdi, -32(%rbp)
	movq	%rsi, -24(%rbp)
Ltmp1022:
	.loc	45 226 26 prologue_end
	movq	%rdi, -16(%rbp)
	.loc	45 226 46 is_stmt 0
	movq	%rsi, -8(%rbp)
Ltmp1023:
	.loc	28 1162 13 is_stmt 1
	addq	%rsi, %rdi
Ltmp1024:
	.loc	45 226 17
	movq	%rdi, -40(%rbp)
	.loc	45 227 14
	movq	-40(%rbp), %rax
	addq	$40, %rsp
	popq	%rbp
	retq
Ltmp1025:
Lfunc_end184:
	.cfi_endproc

	.globl	__ZN91_$LT$core..slice..iter..Iter$LT$T$GT$$u20$as$u20$core..iter..traits..iterator..Iterator$GT$4next17h597b85afa1770769E
	.p2align	4, 0x90
__ZN91_$LT$core..slice..iter..Iter$LT$T$GT$$u20$as$u20$core..iter..traits..iterator..Iterator$GT$4next17h597b85afa1770769E:
Lfunc_begin185:
	.file	46 "/rustc/2c8cc343237b8f7d5a3c3703e3a87f2eb2c54a74/library/core/src/slice/iter" "macros.rs"
	.loc	46 124 0
	.cfi_startproc
	pushq	%rbp
	.cfi_def_cfa_offset 16
	.cfi_offset %rbp, -16
	movq	%rsp, %rbp
	.cfi_def_cfa_register %rbp
	subq	$304, %rsp
	movq	%rdi, -304(%rbp)
	movq	%rdi, -240(%rbp)
Ltmp1026:
	.loc	46 132 29 prologue_end
	movq	8(%rdi), %rax
	movq	%rax, -224(%rbp)
Ltmp1027:
	.loc	36 326 9
	movq	%rax, -216(%rbp)
Ltmp1028:
	.loc	8 52 36
	movq	%rax, -280(%rbp)
	.loc	8 52 18 is_stmt 0
	movq	-280(%rbp), %rax
	movq	%rax, -208(%rbp)
Ltmp1029:
	.loc	8 38 13 is_stmt 1
	movq	%rax, -200(%rbp)
Ltmp1030:
	.loc	8 215 33
	movq	%rax, -192(%rbp)
	.loc	8 215 18 is_stmt 0
	movq	%rax, -184(%rbp)
Ltmp1031:
	.loc	46 133 24 is_stmt 1
	movb	$1, %al
	testb	$1, %al
	jne	LBB185_2
LBB185_1:
	.loc	46 0 24 is_stmt 0
	movq	-304(%rbp), %rcx
	.loc	46 136 24 is_stmt 1
	movq	8(%rcx), %rax
	movq	%rax, -136(%rbp)
	cmpq	(%rcx), %rax
	je	LBB185_4
	jmp	LBB185_3
LBB185_2:
	.loc	46 0 24 is_stmt 0
	movq	-304(%rbp), %rax
	.loc	46 134 33 is_stmt 1
	movq	(%rax), %rax
	movq	%rax, -176(%rbp)
Ltmp1032:
	.loc	5 53 36
	movq	%rax, -272(%rbp)
	.loc	5 53 18 is_stmt 0
	movq	-272(%rbp), %rax
	movq	%rax, -168(%rbp)
Ltmp1033:
	.loc	5 39 13 is_stmt 1
	movq	%rax, -160(%rbp)
Ltmp1034:
	.loc	5 209 33
	movq	%rax, -152(%rbp)
	.loc	5 209 18 is_stmt 0
	movq	%rax, -144(%rbp)
Ltmp1035:
	.loc	46 133 21 is_stmt 1
	jmp	LBB185_1
LBB185_3:
	.loc	46 0 21 is_stmt 0
	movq	-304(%rbp), %rax
	.loc	46 139 30 is_stmt 1
	movq	%rax, -128(%rbp)
Ltmp1036:
	.loc	46 76 20
	xorl	%eax, %eax
	testb	$1, %al
	jne	LBB185_6
	jmp	LBB185_7
Ltmp1037:
LBB185_4:
	.loc	46 137 25
	movq	$0, -296(%rbp)
LBB185_5:
	.loc	46 142 14
	movq	-296(%rbp), %rax
	addq	$304, %rsp
	popq	%rbp
	retq
LBB185_6:
	.loc	46 0 14 is_stmt 0
	movq	-304(%rbp), %rax
Ltmp1038:
	.loc	46 57 29 is_stmt 1
	movq	(%rax), %rcx
	movq	%rcx, -64(%rbp)
Ltmp1039:
	.loc	5 1198 9
	movq	%rcx, -56(%rbp)
Ltmp1040:
	.loc	5 61 9
	movq	%rcx, -48(%rbp)
Ltmp1041:
	.loc	5 1180 9
	movq	%rcx, -40(%rbp)
Ltmp1042:
	.loc	5 555 18
	addq	$-1, %rcx
	movq	%rcx, -32(%rbp)
	movq	-32(%rbp), %rcx
	movq	%rcx, -24(%rbp)
Ltmp1043:
	.loc	5 100 29
	movq	%rcx, -16(%rbp)
Ltmp1044:
	.loc	7 118 36
	movq	%rcx, -248(%rbp)
	.loc	7 118 14 is_stmt 0
	movq	-248(%rbp), %rcx
	movq	%rcx, -256(%rbp)
	movq	-256(%rbp), %rcx
Ltmp1045:
	.loc	46 57 17 is_stmt 1
	movq	%rcx, (%rax)
	.loc	46 78 21
	movq	8(%rax), %rax
	movq	%rax, -8(%rbp)
	movq	%rax, -288(%rbp)
	.loc	46 76 17
	jmp	LBB185_8
LBB185_7:
	.loc	46 0 17 is_stmt 0
	movq	-304(%rbp), %rcx
	.loc	46 80 31 is_stmt 1
	movq	8(%rcx), %rax
	movq	%rax, -120(%rbp)
Ltmp1046:
	.loc	36 326 9
	movq	%rax, -112(%rbp)
Ltmp1047:
	.loc	46 83 64
	movq	8(%rcx), %rdx
	movq	%rdx, -104(%rbp)
Ltmp1048:
	.loc	36 326 9
	movq	%rdx, -96(%rbp)
Ltmp1049:
	.loc	8 1034 18
	movq	%rdx, -88(%rbp)
Ltmp1050:
	.loc	8 487 18
	addq	$32, %rdx
	movq	%rdx, -80(%rbp)
	movq	-80(%rbp), %rdx
	movq	%rdx, -72(%rbp)
Ltmp1051:
	.loc	36 201 13
	movq	%rdx, -264(%rbp)
Ltmp1052:
	.loc	46 83 21
	movq	-264(%rbp), %rdx
	movq	%rdx, 8(%rcx)
	.loc	46 84 21
	movq	%rax, -288(%rbp)
Ltmp1053:
LBB185_8:
	.loc	46 139 30
	movq	-288(%rbp), %rax
	.loc	46 139 25 is_stmt 0
	movq	%rax, -296(%rbp)
	.loc	46 136 21 is_stmt 1
	jmp	LBB185_5
Ltmp1054:
Lfunc_end185:
	.cfi_endproc

	.globl	__ZN94_$LT$core..slice..iter..IterMut$LT$T$GT$$u20$as$u20$core..iter..traits..iterator..Iterator$GT$4next17hdb8efebf38fc667aE
	.p2align	4, 0x90
__ZN94_$LT$core..slice..iter..IterMut$LT$T$GT$$u20$as$u20$core..iter..traits..iterator..Iterator$GT$4next17hdb8efebf38fc667aE:
Lfunc_begin186:
	.loc	46 124 0
	.cfi_startproc
	pushq	%rbp
	.cfi_def_cfa_offset 16
	.cfi_offset %rbp, -16
	movq	%rsp, %rbp
	.cfi_def_cfa_register %rbp
	subq	$304, %rsp
	movq	%rdi, -304(%rbp)
	movq	%rdi, -240(%rbp)
Ltmp1055:
	.loc	46 132 29 prologue_end
	movq	8(%rdi), %rax
	movq	%rax, -224(%rbp)
Ltmp1056:
	.loc	36 326 9
	movq	%rax, -216(%rbp)
Ltmp1057:
	.loc	8 52 36
	movq	%rax, -280(%rbp)
	.loc	8 52 18 is_stmt 0
	movq	-280(%rbp), %rax
	movq	%rax, -208(%rbp)
Ltmp1058:
	.loc	8 38 13 is_stmt 1
	movq	%rax, -200(%rbp)
Ltmp1059:
	.loc	8 215 33
	movq	%rax, -192(%rbp)
	.loc	8 215 18 is_stmt 0
	movq	%rax, -184(%rbp)
Ltmp1060:
	.loc	46 133 24 is_stmt 1
	movb	$1, %al
	testb	$1, %al
	jne	LBB186_2
LBB186_1:
	.loc	46 0 24 is_stmt 0
	movq	-304(%rbp), %rcx
	.loc	46 136 24 is_stmt 1
	movq	8(%rcx), %rax
	movq	%rax, -136(%rbp)
	cmpq	(%rcx), %rax
	je	LBB186_4
	jmp	LBB186_3
LBB186_2:
	.loc	46 0 24 is_stmt 0
	movq	-304(%rbp), %rax
	.loc	46 134 33 is_stmt 1
	movq	(%rax), %rax
	movq	%rax, -176(%rbp)
Ltmp1061:
	.loc	8 52 36
	movq	%rax, -272(%rbp)
	.loc	8 52 18 is_stmt 0
	movq	-272(%rbp), %rax
	movq	%rax, -168(%rbp)
Ltmp1062:
	.loc	8 38 13 is_stmt 1
	movq	%rax, -160(%rbp)
Ltmp1063:
	.loc	8 215 33
	movq	%rax, -152(%rbp)
	.loc	8 215 18 is_stmt 0
	movq	%rax, -144(%rbp)
Ltmp1064:
	.loc	46 133 21 is_stmt 1
	jmp	LBB186_1
LBB186_3:
	.loc	46 0 21 is_stmt 0
	movq	-304(%rbp), %rax
	.loc	46 139 30 is_stmt 1
	movq	%rax, -128(%rbp)
Ltmp1065:
	.loc	46 76 20
	xorl	%eax, %eax
	testb	$1, %al
	jne	LBB186_6
	jmp	LBB186_7
Ltmp1066:
LBB186_4:
	.loc	46 137 25
	movq	$0, -296(%rbp)
LBB186_5:
	.loc	46 142 14
	movq	-296(%rbp), %rax
	addq	$304, %rsp
	popq	%rbp
	retq
LBB186_6:
	.loc	46 0 14 is_stmt 0
	movq	-304(%rbp), %rax
Ltmp1067:
	.loc	46 57 29 is_stmt 1
	movq	(%rax), %rcx
	movq	%rcx, -64(%rbp)
Ltmp1068:
	.loc	8 1300 9
	movq	%rcx, -56(%rbp)
Ltmp1069:
	.loc	8 60 9
	movq	%rcx, -48(%rbp)
Ltmp1070:
	.loc	8 1282 9
	movq	%rcx, -40(%rbp)
Ltmp1071:
	.loc	8 568 18
	addq	$-1, %rcx
	movq	%rcx, -32(%rbp)
	movq	-32(%rbp), %rcx
	movq	%rcx, -24(%rbp)
Ltmp1072:
	.loc	8 99 33
	movq	%rcx, -16(%rbp)
Ltmp1073:
	.loc	7 135 36
	movq	%rcx, -248(%rbp)
	.loc	7 135 14 is_stmt 0
	movq	-248(%rbp), %rcx
	movq	%rcx, -256(%rbp)
	movq	-256(%rbp), %rcx
Ltmp1074:
	.loc	46 57 17 is_stmt 1
	movq	%rcx, (%rax)
	.loc	46 78 21
	movq	8(%rax), %rax
	movq	%rax, -8(%rbp)
Ltmp1075:
	.loc	36 326 9
	movq	%rax, -288(%rbp)
Ltmp1076:
	.loc	46 76 17
	jmp	LBB186_8
LBB186_7:
	.loc	46 0 17 is_stmt 0
	movq	-304(%rbp), %rcx
	.loc	46 80 31 is_stmt 1
	movq	8(%rcx), %rax
	movq	%rax, -120(%rbp)
Ltmp1077:
	.loc	36 326 9
	movq	%rax, -112(%rbp)
Ltmp1078:
	.loc	46 83 64
	movq	8(%rcx), %rdx
	movq	%rdx, -104(%rbp)
Ltmp1079:
	.loc	36 326 9
	movq	%rdx, -96(%rbp)
Ltmp1080:
	.loc	8 1034 18
	movq	%rdx, -88(%rbp)
Ltmp1081:
	.loc	8 487 18
	addq	$32, %rdx
	movq	%rdx, -80(%rbp)
	movq	-80(%rbp), %rdx
	movq	%rdx, -72(%rbp)
Ltmp1082:
	.loc	36 201 13
	movq	%rdx, -264(%rbp)
Ltmp1083:
	.loc	46 83 21
	movq	-264(%rbp), %rdx
	movq	%rdx, 8(%rcx)
	.loc	46 84 21
	movq	%rax, -288(%rbp)
Ltmp1084:
LBB186_8:
	.loc	46 139 30
	movq	-288(%rbp), %rax
	.loc	46 139 25 is_stmt 0
	movq	%rax, -296(%rbp)
	.loc	46 136 21 is_stmt 1
	jmp	LBB186_5
Ltmp1085:
Lfunc_end186:
	.cfi_endproc

	.globl	__ZN95_$LT$crossbeam_utils..cache_padded..CachePadded$LT$T$GT$$u20$as$u20$core..ops..deref..Deref$GT$5deref17h2f45d175e4e3aedcE
	.p2align	4, 0x90
__ZN95_$LT$crossbeam_utils..cache_padded..CachePadded$LT$T$GT$$u20$as$u20$core..ops..deref..Deref$GT$5deref17h2f45d175e4e3aedcE:
Lfunc_begin187:
	.loc	10 168 0
	.cfi_startproc
	pushq	%rbp
	.cfi_def_cfa_offset 16
	.cfi_offset %rbp, -16
	movq	%rsp, %rbp
	.cfi_def_cfa_register %rbp
	pushq	%rax
	movq	%rdi, %rax
	movq	%rax, -8(%rbp)
Ltmp1086:
	.loc	10 170 6 prologue_end
	addq	$8, %rsp
	popq	%rbp
	retq
Ltmp1087:
Lfunc_end187:
	.cfi_endproc

	.globl	__ZN95_$LT$crossbeam_utils..cache_padded..CachePadded$LT$T$GT$$u20$as$u20$core..ops..deref..Deref$GT$5deref17he18182f956b5af35E
	.p2align	4, 0x90
__ZN95_$LT$crossbeam_utils..cache_padded..CachePadded$LT$T$GT$$u20$as$u20$core..ops..deref..Deref$GT$5deref17he18182f956b5af35E:
Lfunc_begin188:
	.loc	10 168 0
	.cfi_startproc
	pushq	%rbp
	.cfi_def_cfa_offset 16
	.cfi_offset %rbp, -16
	movq	%rsp, %rbp
	.cfi_def_cfa_register %rbp
	pushq	%rax
	movq	%rdi, %rax
	movq	%rax, -8(%rbp)
Ltmp1088:
	.loc	10 170 6 prologue_end
	addq	$8, %rsp
	popq	%rbp
	retq
Ltmp1089:
Lfunc_end188:
	.cfi_endproc

	.globl	__ZN98_$LT$core..ptr..non_null..NonNull$LT$T$GT$$u20$as$u20$core..convert..From$LT$$RF$mut$u20$T$GT$$GT$4from17haeff289199f6acfbE
	.p2align	4, 0x90
__ZN98_$LT$core..ptr..non_null..NonNull$LT$T$GT$$u20$as$u20$core..convert..From$LT$$RF$mut$u20$T$GT$$GT$4from17haeff289199f6acfbE:
Lfunc_begin189:
	.loc	36 779 0
	.cfi_startproc
	pushq	%rbp
	.cfi_def_cfa_offset 16
	.cfi_offset %rbp, -16
	movq	%rsp, %rbp
	.cfi_def_cfa_register %rbp
	subq	$16, %rsp
	movq	%rdi, -8(%rbp)
Ltmp1090:
	.loc	36 781 18 prologue_end
	movq	%rdi, -16(%rbp)
	.loc	36 782 6
	movq	-16(%rbp), %rax
	addq	$16, %rsp
	popq	%rbp
	retq
Ltmp1091:
Lfunc_end189:
	.cfi_endproc

	.p2align	4, 0x90
__ZN15crossbeam_epoch9primitive4cell19UnsafeCell$LT$T$GT$3new17h7628106f3e76171cE:
Lfunc_begin190:
	.file	47 "/Users/natalie/.cargo/registry/src/github.com-1ecc6299db9ec823/crossbeam-epoch-0.9.13" "src/lib.rs"
	.loc	47 110 0
	.cfi_startproc
	pushq	%rbp
	.cfi_def_cfa_offset 16
	.cfi_offset %rbp, -16
	movq	%rsp, %rbp
	.cfi_def_cfa_register %rbp
	subq	$32, %rsp
	movq	%rdi, -24(%rbp)
	movq	%rdi, -8(%rbp)
Ltmp1092:
	.loc	17 1953 9 prologue_end
	movq	%rdi, -16(%rbp)
	.loc	17 1954 6
	movq	-16(%rbp), %rax
Ltmp1093:
	.loc	47 111 17
	movq	%rax, -32(%rbp)
	.loc	47 112 14
	movq	-32(%rbp), %rax
	addq	$32, %rsp
	popq	%rbp
	retq
Ltmp1094:
Lfunc_end190:
	.cfi_endproc

	.p2align	4, 0x90
__ZN15crossbeam_epoch9primitive4cell19UnsafeCell$LT$T$GT$3new17hca62c4425d78b7c6E:
Lfunc_begin191:
	.loc	47 110 0
	.cfi_startproc
	pushq	%rbp
	.cfi_def_cfa_offset 16
	.cfi_offset %rbp, -16
	movq	%rsp, %rbp
	.cfi_def_cfa_register %rbp
	movl	$6192, %eax
	callq	___rust_probestack
	subq	%rax, %rsp
	movq	%rdi, -6184(%rbp)
	movq	%rdi, -6176(%rbp)
Ltmp1095:
	.loc	47 111 58 prologue_end
	leaq	-4112(%rbp), %rdi
	movl	$2056, %edx
	callq	_memcpy
Ltmp1096:
	.loc	17 1953 22
	leaq	-2056(%rbp), %rdi
	leaq	-4112(%rbp), %rsi
	movl	$2056, %edx
	callq	_memcpy
	.loc	17 1953 9 is_stmt 0
	leaq	-6168(%rbp), %rdi
	leaq	-2056(%rbp), %rsi
	movl	$2056, %edx
	callq	_memcpy
	movq	-6184(%rbp), %rdi
Ltmp1097:
	.loc	47 111 17 is_stmt 1
	leaq	-6168(%rbp), %rsi
	movl	$2056, %edx
	callq	_memcpy
	movq	-6176(%rbp), %rax
	.loc	47 112 14
	addq	$6192, %rsp
	popq	%rbp
	retq
Ltmp1098:
Lfunc_end191:
	.cfi_endproc

	.globl	__ZN15crossbeam_epoch9primitive4cell19UnsafeCell$LT$T$GT$4with17h89ff7091a594122eE
	.p2align	4, 0x90
__ZN15crossbeam_epoch9primitive4cell19UnsafeCell$LT$T$GT$4with17h89ff7091a594122eE:
Lfunc_begin192:
	.loc	47 115 0
	.cfi_startproc
	.cfi_personality 155, _rust_eh_personality
	.cfi_lsda 16, Lexception20
	pushq	%rbp
	.cfi_def_cfa_offset 16
	.cfi_offset %rbp, -16
	movq	%rsp, %rbp
	.cfi_def_cfa_register %rbp
	subq	$80, %rsp
	movq	%rdi, -64(%rbp)
	movq	%rdi, -40(%rbp)
Ltmp1102:
	.loc	47 116 17 prologue_end
	movb	$0, -41(%rbp)
	movb	$1, -41(%rbp)
	movq	%rdi, -8(%rbp)
Ltmp1103:
	.loc	17 2000 6
	jmp	LBB192_3
Ltmp1104:
LBB192_1:
	.loc	47 116 31
	testb	$1, -41(%rbp)
	jne	LBB192_6
	jmp	LBB192_5
LBB192_2:
Ltmp1101:
	.loc	47 0 31 is_stmt 0
	movq	%rax, %rcx
	movl	%edx, %eax
	movq	%rcx, -24(%rbp)
	movl	%eax, -16(%rbp)
	jmp	LBB192_1
LBB192_3:
	movq	-64(%rbp), %rax
	.loc	47 116 17
	movq	%rax, -56(%rbp)
	movb	$0, -41(%rbp)
	movq	-56(%rbp), %rdi
Ltmp1099:
	callq	__ZN15crossbeam_epoch8internal5Local8finalize28_$u7b$$u7b$closure$u7d$$u7d$17he04e5d7785a5d333E
Ltmp1100:
	movq	%rax, -72(%rbp)
	jmp	LBB192_4
LBB192_4:
	.loc	47 0 17
	movq	-72(%rbp), %rax
	.loc	47 116 31
	movb	$0, -41(%rbp)
	.loc	47 117 14 is_stmt 1
	addq	$80, %rsp
	popq	%rbp
	retq
LBB192_5:
	.loc	47 115 13
	movq	-24(%rbp), %rdi
	callq	__Unwind_Resume
LBB192_6:
	.loc	47 116 31
	jmp	LBB192_5
Ltmp1105:
Lfunc_end192:
	.cfi_endproc
	.section	__TEXT,__gcc_except_tab
	.p2align	2
GCC_except_table192:
Lexception20:
	.byte	255
	.byte	255
	.byte	1
	.uleb128 Lcst_end20-Lcst_begin20
Lcst_begin20:
	.uleb128 Ltmp1099-Lfunc_begin192
	.uleb128 Ltmp1100-Ltmp1099
	.uleb128 Ltmp1101-Lfunc_begin192
	.byte	0
	.uleb128 Ltmp1100-Lfunc_begin192
	.uleb128 Lfunc_end192-Ltmp1100
	.byte	0
	.byte	0
Lcst_end20:
	.p2align	2

	.section	__TEXT,__text,regular,pure_instructions
	.globl	__ZN15crossbeam_epoch9primitive4cell19UnsafeCell$LT$T$GT$4with17hf74891a3ed61439eE
	.p2align	4, 0x90
__ZN15crossbeam_epoch9primitive4cell19UnsafeCell$LT$T$GT$4with17hf74891a3ed61439eE:
Lfunc_begin193:
	.loc	47 115 0
	.cfi_startproc
	.cfi_personality 155, _rust_eh_personality
	.cfi_lsda 16, Lexception21
	pushq	%rbp
	.cfi_def_cfa_offset 16
	.cfi_offset %rbp, -16
	movq	%rsp, %rbp
	.cfi_def_cfa_register %rbp
	subq	$80, %rsp
	movq	%rdi, -64(%rbp)
	movq	%rdi, -40(%rbp)
Ltmp1109:
	.loc	47 116 17 prologue_end
	movb	$0, -41(%rbp)
	movb	$1, -41(%rbp)
	movq	%rdi, -8(%rbp)
Ltmp1110:
	.loc	17 2000 6
	jmp	LBB193_3
Ltmp1111:
LBB193_1:
	.loc	47 116 31
	testb	$1, -41(%rbp)
	jne	LBB193_6
	jmp	LBB193_5
LBB193_2:
Ltmp1108:
	.loc	47 0 31 is_stmt 0
	movq	%rax, %rcx
	movl	%edx, %eax
	movq	%rcx, -24(%rbp)
	movl	%eax, -16(%rbp)
	jmp	LBB193_1
LBB193_3:
	movq	-64(%rbp), %rax
	.loc	47 116 17
	movq	%rax, -56(%rbp)
	movb	$0, -41(%rbp)
	movq	-56(%rbp), %rdi
Ltmp1106:
	callq	__ZN15crossbeam_epoch8internal5Local9collector28_$u7b$$u7b$closure$u7d$$u7d$17h6796b914e90b64d4E
Ltmp1107:
	movq	%rax, -72(%rbp)
	jmp	LBB193_4
LBB193_4:
	.loc	47 0 17
	movq	-72(%rbp), %rax
	.loc	47 116 31
	movb	$0, -41(%rbp)
	.loc	47 117 14 is_stmt 1
	addq	$80, %rsp
	popq	%rbp
	retq
LBB193_5:
	.loc	47 115 13
	movq	-24(%rbp), %rdi
	callq	__Unwind_Resume
LBB193_6:
	.loc	47 116 31
	jmp	LBB193_5
Ltmp1112:
Lfunc_end193:
	.cfi_endproc
	.section	__TEXT,__gcc_except_tab
	.p2align	2
GCC_except_table193:
Lexception21:
	.byte	255
	.byte	255
	.byte	1
	.uleb128 Lcst_end21-Lcst_begin21
Lcst_begin21:
	.uleb128 Ltmp1106-Lfunc_begin193
	.uleb128 Ltmp1107-Ltmp1106
	.uleb128 Ltmp1108-Lfunc_begin193
	.byte	0
	.uleb128 Ltmp1107-Lfunc_begin193
	.uleb128 Lfunc_end193-Ltmp1107
	.byte	0
	.byte	0
Lcst_end21:
	.p2align	2

	.section	__TEXT,__text,regular,pure_instructions
	.p2align	4, 0x90
__ZN15crossbeam_epoch9primitive4cell19UnsafeCell$LT$T$GT$8with_mut17h3e9e9848aa68f41bE:
Lfunc_begin194:
	.loc	47 120 0
	.cfi_startproc
	.cfi_personality 155, _rust_eh_personality
	.cfi_lsda 16, Lexception22
	pushq	%rbp
	.cfi_def_cfa_offset 16
	.cfi_offset %rbp, -16
	movq	%rsp, %rbp
	.cfi_def_cfa_register %rbp
	subq	$80, %rsp
	movq	%rdi, -64(%rbp)
	movq	%rdi, -40(%rbp)
Ltmp1116:
	.loc	47 121 17 prologue_end
	movb	$0, -41(%rbp)
	movb	$1, -41(%rbp)
	movq	%rdi, -8(%rbp)
Ltmp1117:
	.loc	17 2000 6
	jmp	LBB194_3
Ltmp1118:
LBB194_1:
	.loc	47 121 31
	testb	$1, -41(%rbp)
	jne	LBB194_6
	jmp	LBB194_5
LBB194_2:
Ltmp1115:
	.loc	47 0 31 is_stmt 0
	movq	%rax, %rcx
	movl	%edx, %eax
	movq	%rcx, -24(%rbp)
	movl	%eax, -16(%rbp)
	jmp	LBB194_1
LBB194_3:
	movq	-64(%rbp), %rax
	.loc	47 121 17
	movq	%rax, -56(%rbp)
	movb	$0, -41(%rbp)
	movq	-56(%rbp), %rdi
Ltmp1113:
	callq	__ZN15crossbeam_epoch8internal5Local5defer28_$u7b$$u7b$closure$u7d$$u7d$17hab186c03cfbe0dabE
Ltmp1114:
	movq	%rax, -72(%rbp)
	jmp	LBB194_4
LBB194_4:
	.loc	47 0 17
	movq	-72(%rbp), %rax
	.loc	47 121 31
	movb	$0, -41(%rbp)
	.loc	47 122 14 is_stmt 1
	addq	$80, %rsp
	popq	%rbp
	retq
LBB194_5:
	.loc	47 120 13
	movq	-24(%rbp), %rdi
	callq	__Unwind_Resume
LBB194_6:
	.loc	47 121 31
	jmp	LBB194_5
Ltmp1119:
Lfunc_end194:
	.cfi_endproc
	.section	__TEXT,__gcc_except_tab
	.p2align	2
GCC_except_table194:
Lexception22:
	.byte	255
	.byte	255
	.byte	1
	.uleb128 Lcst_end22-Lcst_begin22
Lcst_begin22:
	.uleb128 Ltmp1113-Lfunc_begin194
	.uleb128 Ltmp1114-Ltmp1113
	.uleb128 Ltmp1115-Lfunc_begin194
	.byte	0
	.uleb128 Ltmp1114-Lfunc_begin194
	.uleb128 Lfunc_end194-Ltmp1114
	.byte	0
	.byte	0
Lcst_end22:
	.p2align	2

	.section	__TEXT,__text,regular,pure_instructions
	.p2align	4, 0x90
__ZN15crossbeam_epoch9primitive4cell19UnsafeCell$LT$T$GT$8with_mut17h780b6608cf54ee20E:
Lfunc_begin195:
	.loc	47 120 0
	.cfi_startproc
	.cfi_personality 155, _rust_eh_personality
	.cfi_lsda 16, Lexception23
	pushq	%rbp
	.cfi_def_cfa_offset 16
	.cfi_offset %rbp, -16
	movq	%rsp, %rbp
	.cfi_def_cfa_register %rbp
	subq	$80, %rsp
	movq	%rdi, -64(%rbp)
	movq	%rdi, -40(%rbp)
Ltmp1123:
	.loc	47 121 17 prologue_end
	movb	$0, -41(%rbp)
	movb	$1, -41(%rbp)
	movq	%rdi, -8(%rbp)
Ltmp1124:
	.loc	17 2000 6
	jmp	LBB195_3
Ltmp1125:
LBB195_1:
	.loc	47 121 31
	testb	$1, -41(%rbp)
	jne	LBB195_6
	jmp	LBB195_5
LBB195_2:
Ltmp1122:
	.loc	47 0 31 is_stmt 0
	movq	%rax, %rcx
	movl	%edx, %eax
	movq	%rcx, -24(%rbp)
	movl	%eax, -16(%rbp)
	jmp	LBB195_1
LBB195_3:
	movq	-64(%rbp), %rax
	.loc	47 121 17
	movq	%rax, -56(%rbp)
	movb	$0, -41(%rbp)
	movq	-56(%rbp), %rdi
Ltmp1120:
	callq	__ZN15crossbeam_epoch8internal5Local8finalize28_$u7b$$u7b$closure$u7d$$u7d$17h341ae11e203e4c17E
Ltmp1121:
	movq	%rax, -72(%rbp)
	jmp	LBB195_4
LBB195_4:
	.loc	47 0 17
	movq	-72(%rbp), %rax
	.loc	47 121 31
	movb	$0, -41(%rbp)
	.loc	47 122 14 is_stmt 1
	addq	$80, %rsp
	popq	%rbp
	retq
LBB195_5:
	.loc	47 120 13
	movq	-24(%rbp), %rdi
	callq	__Unwind_Resume
LBB195_6:
	.loc	47 121 31
	jmp	LBB195_5
Ltmp1126:
Lfunc_end195:
	.cfi_endproc
	.section	__TEXT,__gcc_except_tab
	.p2align	2
GCC_except_table195:
Lexception23:
	.byte	255
	.byte	255
	.byte	1
	.uleb128 Lcst_end23-Lcst_begin23
Lcst_begin23:
	.uleb128 Ltmp1120-Lfunc_begin195
	.uleb128 Ltmp1121-Ltmp1120
	.uleb128 Ltmp1122-Lfunc_begin195
	.byte	0
	.uleb128 Ltmp1121-Lfunc_begin195
	.uleb128 Lfunc_end195-Ltmp1121
	.byte	0
	.byte	0
Lcst_end23:
	.p2align	2

	.section	__TEXT,__text,regular,pure_instructions
	.p2align	4, 0x90
__ZN15crossbeam_epoch9primitive4cell19UnsafeCell$LT$T$GT$8with_mut17ha34745d2a8bc88f9E:
Lfunc_begin196:
	.loc	47 120 0
	.cfi_startproc
	.cfi_personality 155, _rust_eh_personality
	.cfi_lsda 16, Lexception24
	pushq	%rbp
	.cfi_def_cfa_offset 16
	.cfi_offset %rbp, -16
	movq	%rsp, %rbp
	.cfi_def_cfa_register %rbp
	subq	$80, %rsp
	movq	%rdi, -64(%rbp)
	movq	%rdi, -40(%rbp)
Ltmp1130:
	.loc	47 121 17 prologue_end
	movb	$0, -41(%rbp)
	movb	$1, -41(%rbp)
	movq	%rdi, -8(%rbp)
Ltmp1131:
	.loc	17 2000 6
	jmp	LBB196_3
Ltmp1132:
LBB196_1:
	.loc	47 121 31
	testb	$1, -41(%rbp)
	jne	LBB196_6
	jmp	LBB196_5
LBB196_2:
Ltmp1129:
	.loc	47 0 31 is_stmt 0
	movq	%rax, %rcx
	movl	%edx, %eax
	movq	%rcx, -24(%rbp)
	movl	%eax, -16(%rbp)
	jmp	LBB196_1
LBB196_3:
	movq	-64(%rbp), %rax
	.loc	47 121 17
	movq	%rax, -56(%rbp)
	movb	$0, -41(%rbp)
	movq	-56(%rbp), %rdi
Ltmp1127:
	callq	__ZN15crossbeam_epoch8internal5Local5flush28_$u7b$$u7b$closure$u7d$$u7d$17hb9d2c789108b34fcE
Ltmp1128:
	movq	%rax, -72(%rbp)
	jmp	LBB196_4
LBB196_4:
	.loc	47 0 17
	movq	-72(%rbp), %rax
	.loc	47 121 31
	movb	$0, -41(%rbp)
	.loc	47 122 14 is_stmt 1
	addq	$80, %rsp
	popq	%rbp
	retq
LBB196_5:
	.loc	47 120 13
	movq	-24(%rbp), %rdi
	callq	__Unwind_Resume
LBB196_6:
	.loc	47 121 31
	jmp	LBB196_5
Ltmp1133:
Lfunc_end196:
	.cfi_endproc
	.section	__TEXT,__gcc_except_tab
	.p2align	2
GCC_except_table196:
Lexception24:
	.byte	255
	.byte	255
	.byte	1
	.uleb128 Lcst_end24-Lcst_begin24
Lcst_begin24:
	.uleb128 Ltmp1127-Lfunc_begin196
	.uleb128 Ltmp1128-Ltmp1127
	.uleb128 Ltmp1129-Lfunc_begin196
	.byte	0
	.uleb128 Ltmp1128-Lfunc_begin196
	.uleb128 Lfunc_end196-Ltmp1128
	.byte	0
	.byte	0
Lcst_end24:
	.p2align	2

	.section	__TEXT,__text,regular,pure_instructions
	.globl	__ZN15crossbeam_epoch6atomic8low_bits17h15681fabdbbbc158E
	.p2align	4, 0x90
__ZN15crossbeam_epoch6atomic8low_bits17h15681fabdbbbc158E:
Lfunc_begin197:
	.file	48 "/Users/natalie/.cargo/registry/src/github.com-1ecc6299db9ec823/crossbeam-epoch-0.9.13" "src/atomic.rs"
	.loc	48 106 0
	.cfi_startproc
	pushq	%rbp
	.cfi_def_cfa_offset 16
	.cfi_offset %rbp, -16
	movq	%rsp, %rbp
	.cfi_def_cfa_register %rbp
	subq	$32, %rsp
	movq	$8, -16(%rbp)
Ltmp1134:
	.loc	28 152 13 prologue_end
	movq	$3, -8(%rbp)
	movq	-8(%rbp), %rax
	movl	%eax, %ecx
Ltmp1135:
	.loc	48 107 5
	movl	%ecx, %eax
	andl	$-64, %eax
	cmpl	$0, %eax
	setne	%al
	movl	%ecx, %ecx
	andq	$63, %rcx
	movl	$1, %edx
	shlq	%cl, %rdx
	movq	%rdx, -24(%rbp)
	testb	$1, %al
	jne	LBB197_2
	.loc	48 0 5 is_stmt 0
	movq	-24(%rbp), %rax
	.loc	48 107 5
	movq	%rax, %rcx
	subq	$1, %rcx
	movq	%rcx, -32(%rbp)
	cmpq	$1, %rax
	setb	%al
	testb	$1, %al
	jne	LBB197_4
	jmp	LBB197_3
LBB197_2:
	leaq	_str.0(%rip), %rdi
	leaq	l___unnamed_29(%rip), %rdx
	movl	$35, %esi
	callq	__ZN4core9panicking5panic17hc1bc45270cf64b03E
LBB197_3:
	.loc	48 0 5
	movq	-32(%rbp), %rax
	.loc	48 108 2 is_stmt 1
	addq	$32, %rsp
	popq	%rbp
	retq
LBB197_4:
	.loc	48 107 5
	leaq	_str.1(%rip), %rdi
	leaq	l___unnamed_29(%rip), %rdx
	movl	$33, %esi
	callq	__ZN4core9panicking5panic17hc1bc45270cf64b03E
Ltmp1136:
Lfunc_end197:
	.cfi_endproc

	.globl	__ZN15crossbeam_epoch6atomic8low_bits17h261a28159d9212e5E
	.p2align	4, 0x90
__ZN15crossbeam_epoch6atomic8low_bits17h261a28159d9212e5E:
Lfunc_begin198:
	.loc	48 106 0
	.cfi_startproc
	pushq	%rbp
	.cfi_def_cfa_offset 16
	.cfi_offset %rbp, -16
	movq	%rsp, %rbp
	.cfi_def_cfa_register %rbp
	subq	$32, %rsp
	movq	$8, -16(%rbp)
Ltmp1137:
	.loc	28 152 13 prologue_end
	movq	$3, -8(%rbp)
	movq	-8(%rbp), %rax
	movl	%eax, %ecx
Ltmp1138:
	.loc	48 107 5
	movl	%ecx, %eax
	andl	$-64, %eax
	cmpl	$0, %eax
	setne	%al
	movl	%ecx, %ecx
	andq	$63, %rcx
	movl	$1, %edx
	shlq	%cl, %rdx
	movq	%rdx, -24(%rbp)
	testb	$1, %al
	jne	LBB198_2
	.loc	48 0 5 is_stmt 0
	movq	-24(%rbp), %rax
	.loc	48 107 5
	movq	%rax, %rcx
	subq	$1, %rcx
	movq	%rcx, -32(%rbp)
	cmpq	$1, %rax
	setb	%al
	testb	$1, %al
	jne	LBB198_4
	jmp	LBB198_3
LBB198_2:
	leaq	_str.0(%rip), %rdi
	leaq	l___unnamed_29(%rip), %rdx
	movl	$35, %esi
	callq	__ZN4core9panicking5panic17hc1bc45270cf64b03E
LBB198_3:
	.loc	48 0 5
	movq	-32(%rbp), %rax
	.loc	48 108 2 is_stmt 1
	addq	$32, %rsp
	popq	%rbp
	retq
LBB198_4:
	.loc	48 107 5
	leaq	_str.1(%rip), %rdi
	leaq	l___unnamed_29(%rip), %rdx
	movl	$33, %esi
	callq	__ZN4core9panicking5panic17hc1bc45270cf64b03E
Ltmp1139:
Lfunc_end198:
	.cfi_endproc

	.globl	__ZN15crossbeam_epoch6atomic8low_bits17he79baadcde79f9afE
	.p2align	4, 0x90
__ZN15crossbeam_epoch6atomic8low_bits17he79baadcde79f9afE:
Lfunc_begin199:
	.loc	48 106 0
	.cfi_startproc
	pushq	%rbp
	.cfi_def_cfa_offset 16
	.cfi_offset %rbp, -16
	movq	%rsp, %rbp
	.cfi_def_cfa_register %rbp
	subq	$32, %rsp
	movq	$8, -16(%rbp)
Ltmp1140:
	.loc	28 152 13 prologue_end
	movq	$3, -8(%rbp)
	movq	-8(%rbp), %rax
	movl	%eax, %ecx
Ltmp1141:
	.loc	48 107 5
	movl	%ecx, %eax
	andl	$-64, %eax
	cmpl	$0, %eax
	setne	%al
	movl	%ecx, %ecx
	andq	$63, %rcx
	movl	$1, %edx
	shlq	%cl, %rdx
	movq	%rdx, -24(%rbp)
	testb	$1, %al
	jne	LBB199_2
	.loc	48 0 5 is_stmt 0
	movq	-24(%rbp), %rax
	.loc	48 107 5
	movq	%rax, %rcx
	subq	$1, %rcx
	movq	%rcx, -32(%rbp)
	cmpq	$1, %rax
	setb	%al
	testb	$1, %al
	jne	LBB199_4
	jmp	LBB199_3
LBB199_2:
	leaq	_str.0(%rip), %rdi
	leaq	l___unnamed_29(%rip), %rdx
	movl	$35, %esi
	callq	__ZN4core9panicking5panic17hc1bc45270cf64b03E
LBB199_3:
	.loc	48 0 5
	movq	-32(%rbp), %rax
	.loc	48 108 2 is_stmt 1
	addq	$32, %rsp
	popq	%rbp
	retq
LBB199_4:
	.loc	48 107 5
	leaq	_str.1(%rip), %rdi
	leaq	l___unnamed_29(%rip), %rdx
	movl	$33, %esi
	callq	__ZN4core9panicking5panic17hc1bc45270cf64b03E
Ltmp1142:
Lfunc_end199:
	.cfi_endproc

	.globl	__ZN15crossbeam_epoch6atomic14ensure_aligned17h817fdcdf6d4ca87fE
	.p2align	4, 0x90
__ZN15crossbeam_epoch6atomic14ensure_aligned17h817fdcdf6d4ca87fE:
Lfunc_begin200:
	.loc	48 112 0
	.cfi_startproc
	pushq	%rbp
	.cfi_def_cfa_offset 16
	.cfi_offset %rbp, -16
	movq	%rsp, %rbp
	.cfi_def_cfa_register %rbp
	subq	$192, %rsp
	movq	%rdi, -176(%rbp)
	movq	%rdi, -24(%rbp)
Ltmp1143:
	.loc	48 113 22 prologue_end
	callq	__ZN15crossbeam_epoch6atomic8low_bits17h261a28159d9212e5E
	movq	-176(%rbp), %rdi
	.loc	48 113 16 is_stmt 0
	andq	%rax, %rdi
	movq	%rdi, -136(%rbp)
	.loc	48 113 5
	leaq	-136(%rbp), %rax
	movq	%rax, -152(%rbp)
	leaq	L___unnamed_30(%rip), %rax
	movq	%rax, -144(%rbp)
	movq	-152(%rbp), %rax
	movq	%rax, -168(%rbp)
	movq	%rax, -16(%rbp)
	movq	-144(%rbp), %rcx
	movq	%rcx, -160(%rbp)
	movq	%rcx, -8(%rbp)
Ltmp1144:
	.loc	48 113 5
	movq	(%rax), %rax
	cmpq	(%rcx), %rax
	sete	%al
	xorb	$-1, %al
	testb	$1, %al
	jne	LBB200_2
Ltmp1145:
	.loc	48 114 2 is_stmt 1
	addq	$192, %rsp
	popq	%rbp
	retq
LBB200_2:
Ltmp1146:
	.loc	48 113 5
	movb	$0, -121(%rbp)
Ltmp1147:
	.loc	48 113 5 is_stmt 0
	leaq	l___unnamed_31(%rip), %rsi
	leaq	l___unnamed_13(%rip), %rcx
	xorl	%eax, %eax
	movl	%eax, -180(%rbp)
	movl	%eax, %r8d
	leaq	-72(%rbp), %rdi
	movl	$1, %edx
	callq	__ZN4core3fmt9Arguments6new_v117h2e6830ba6496e7b7E
	movl	-180(%rbp), %edi
	movq	-168(%rbp), %rsi
	movq	-160(%rbp), %rdx
	movq	-32(%rbp), %rax
	movq	%rax, -80(%rbp)
	movq	-40(%rbp), %rax
	movq	%rax, -88(%rbp)
	movq	-48(%rbp), %rax
	movq	%rax, -96(%rbp)
	movq	-56(%rbp), %rax
	movq	%rax, -104(%rbp)
	movq	-72(%rbp), %rax
	movq	-64(%rbp), %rcx
	movq	%rcx, -112(%rbp)
	movq	%rax, -120(%rbp)
	leaq	l___unnamed_32(%rip), %r8
	leaq	-120(%rbp), %rcx
	callq	__ZN4core9panicking13assert_failed17hc79eb9b51f88096bE
Ltmp1148:
Lfunc_end200:
	.cfi_endproc

	.globl	__ZN15crossbeam_epoch6atomic14ensure_aligned17h9c053f4ef289fb86E
	.p2align	4, 0x90
__ZN15crossbeam_epoch6atomic14ensure_aligned17h9c053f4ef289fb86E:
Lfunc_begin201:
	.loc	48 112 0 is_stmt 1
	.cfi_startproc
	pushq	%rbp
	.cfi_def_cfa_offset 16
	.cfi_offset %rbp, -16
	movq	%rsp, %rbp
	.cfi_def_cfa_register %rbp
	subq	$192, %rsp
	movq	%rdi, -176(%rbp)
	movq	%rdi, -24(%rbp)
Ltmp1149:
	.loc	48 113 22 prologue_end
	callq	__ZN15crossbeam_epoch6atomic8low_bits17h15681fabdbbbc158E
	movq	-176(%rbp), %rdi
	.loc	48 113 16 is_stmt 0
	andq	%rax, %rdi
	movq	%rdi, -136(%rbp)
	.loc	48 113 5
	leaq	-136(%rbp), %rax
	movq	%rax, -152(%rbp)
	leaq	L___unnamed_30(%rip), %rax
	movq	%rax, -144(%rbp)
	movq	-152(%rbp), %rax
	movq	%rax, -168(%rbp)
	movq	%rax, -16(%rbp)
	movq	-144(%rbp), %rcx
	movq	%rcx, -160(%rbp)
	movq	%rcx, -8(%rbp)
Ltmp1150:
	.loc	48 113 5
	movq	(%rax), %rax
	cmpq	(%rcx), %rax
	sete	%al
	xorb	$-1, %al
	testb	$1, %al
	jne	LBB201_2
Ltmp1151:
	.loc	48 114 2 is_stmt 1
	addq	$192, %rsp
	popq	%rbp
	retq
LBB201_2:
Ltmp1152:
	.loc	48 113 5
	movb	$0, -121(%rbp)
Ltmp1153:
	.loc	48 113 5 is_stmt 0
	leaq	l___unnamed_31(%rip), %rsi
	leaq	l___unnamed_13(%rip), %rcx
	xorl	%eax, %eax
	movl	%eax, -180(%rbp)
	movl	%eax, %r8d
	leaq	-72(%rbp), %rdi
	movl	$1, %edx
	callq	__ZN4core3fmt9Arguments6new_v117h2e6830ba6496e7b7E
	movl	-180(%rbp), %edi
	movq	-168(%rbp), %rsi
	movq	-160(%rbp), %rdx
	movq	-32(%rbp), %rax
	movq	%rax, -80(%rbp)
	movq	-40(%rbp), %rax
	movq	%rax, -88(%rbp)
	movq	-48(%rbp), %rax
	movq	%rax, -96(%rbp)
	movq	-56(%rbp), %rax
	movq	%rax, -104(%rbp)
	movq	-72(%rbp), %rax
	movq	-64(%rbp), %rcx
	movq	%rcx, -112(%rbp)
	movq	%rax, -120(%rbp)
	leaq	l___unnamed_32(%rip), %r8
	leaq	-120(%rbp), %rcx
	callq	__ZN4core9panicking13assert_failed17hc79eb9b51f88096bE
Ltmp1154:
Lfunc_end201:
	.cfi_endproc

	.globl	__ZN15crossbeam_epoch6atomic11compose_tag17he757927ad04f3f4eE
	.p2align	4, 0x90
__ZN15crossbeam_epoch6atomic11compose_tag17he757927ad04f3f4eE:
Lfunc_begin202:
	.loc	48 120 0 is_stmt 1
	.cfi_startproc
	pushq	%rbp
	.cfi_def_cfa_offset 16
	.cfi_offset %rbp, -16
	movq	%rsp, %rbp
	.cfi_def_cfa_register %rbp
	subq	$48, %rsp
	movq	%rdi, -40(%rbp)
	movq	%rsi, -32(%rbp)
	movq	%rdi, -16(%rbp)
	movq	%rsi, -8(%rbp)
Ltmp1155:
	.loc	48 121 14 prologue_end
	callq	__ZN15crossbeam_epoch6atomic8low_bits17h15681fabdbbbc158E
	movq	-40(%rbp), %rdi
	.loc	48 121 13 is_stmt 0
	xorq	$-1, %rax
	.loc	48 121 5
	andq	%rax, %rdi
	movq	%rdi, -24(%rbp)
	.loc	48 121 40
	callq	__ZN15crossbeam_epoch6atomic8low_bits17h15681fabdbbbc158E
	movq	-32(%rbp), %rsi
	movq	%rax, %rcx
	movq	-24(%rbp), %rax
	.loc	48 121 33
	andq	%rcx, %rsi
	.loc	48 121 5
	orq	%rsi, %rax
	.loc	48 122 2 is_stmt 1
	addq	$48, %rsp
	popq	%rbp
	retq
Ltmp1156:
Lfunc_end202:
	.cfi_endproc

	.globl	__ZN15crossbeam_epoch6atomic13decompose_tag17h1c12c100470c3d0eE
	.p2align	4, 0x90
__ZN15crossbeam_epoch6atomic13decompose_tag17h1c12c100470c3d0eE:
Lfunc_begin203:
	.loc	48 126 0
	.cfi_startproc
	pushq	%rbp
	.cfi_def_cfa_offset 16
	.cfi_offset %rbp, -16
	movq	%rsp, %rbp
	.cfi_def_cfa_register %rbp
	subq	$48, %rsp
	movq	%rdi, -40(%rbp)
	movq	%rdi, -8(%rbp)
Ltmp1157:
	.loc	48 127 14 prologue_end
	callq	__ZN15crossbeam_epoch6atomic8low_bits17h15681fabdbbbc158E
	movq	-40(%rbp), %rdi
	.loc	48 127 13 is_stmt 0
	notq	%rax
	.loc	48 127 6
	andq	%rax, %rdi
	movq	%rdi, -32(%rbp)
	.loc	48 127 38
	callq	__ZN15crossbeam_epoch6atomic8low_bits17h15681fabdbbbc158E
	movq	-40(%rbp), %rdi
	movq	%rax, %rcx
	movq	-32(%rbp), %rax
	.loc	48 127 31
	andq	%rcx, %rdi
	.loc	48 127 5
	movq	%rax, -24(%rbp)
	movq	%rdi, -16(%rbp)
	.loc	48 128 2 is_stmt 1
	movq	-24(%rbp), %rax
	movq	-16(%rbp), %rdx
	addq	$48, %rsp
	popq	%rbp
	retq
Ltmp1158:
Lfunc_end203:
	.cfi_endproc

	.globl	__ZN15crossbeam_epoch6atomic13decompose_tag17h490fc29559aa501fE
	.p2align	4, 0x90
__ZN15crossbeam_epoch6atomic13decompose_tag17h490fc29559aa501fE:
Lfunc_begin204:
	.loc	48 126 0
	.cfi_startproc
	pushq	%rbp
	.cfi_def_cfa_offset 16
	.cfi_offset %rbp, -16
	movq	%rsp, %rbp
	.cfi_def_cfa_register %rbp
	subq	$48, %rsp
	movq	%rdi, -40(%rbp)
	movq	%rdi, -8(%rbp)
Ltmp1159:
	.loc	48 127 14 prologue_end
	callq	__ZN15crossbeam_epoch6atomic8low_bits17h261a28159d9212e5E
	movq	-40(%rbp), %rdi
	.loc	48 127 13 is_stmt 0
	notq	%rax
	.loc	48 127 6
	andq	%rax, %rdi
	movq	%rdi, -32(%rbp)
	.loc	48 127 38
	callq	__ZN15crossbeam_epoch6atomic8low_bits17h261a28159d9212e5E
	movq	-40(%rbp), %rdi
	movq	%rax, %rcx
	movq	-32(%rbp), %rax
	.loc	48 127 31
	andq	%rcx, %rdi
	.loc	48 127 5
	movq	%rax, -24(%rbp)
	movq	%rdi, -16(%rbp)
	.loc	48 128 2 is_stmt 1
	movq	-24(%rbp), %rax
	movq	-16(%rbp), %rdx
	addq	$48, %rsp
	popq	%rbp
	retq
Ltmp1160:
Lfunc_end204:
	.cfi_endproc

	.globl	__ZN15crossbeam_epoch6atomic13decompose_tag17h96c5225add4371e7E
	.p2align	4, 0x90
__ZN15crossbeam_epoch6atomic13decompose_tag17h96c5225add4371e7E:
Lfunc_begin205:
	.loc	48 126 0
	.cfi_startproc
	pushq	%rbp
	.cfi_def_cfa_offset 16
	.cfi_offset %rbp, -16
	movq	%rsp, %rbp
	.cfi_def_cfa_register %rbp
	subq	$48, %rsp
	movq	%rdi, -40(%rbp)
	movq	%rdi, -8(%rbp)
Ltmp1161:
	.loc	48 127 14 prologue_end
	callq	__ZN15crossbeam_epoch6atomic8low_bits17he79baadcde79f9afE
	movq	-40(%rbp), %rdi
	.loc	48 127 13 is_stmt 0
	notq	%rax
	.loc	48 127 6
	andq	%rax, %rdi
	movq	%rdi, -32(%rbp)
	.loc	48 127 38
	callq	__ZN15crossbeam_epoch6atomic8low_bits17he79baadcde79f9afE
	movq	-40(%rbp), %rdi
	movq	%rax, %rcx
	movq	-32(%rbp), %rax
	.loc	48 127 31
	andq	%rcx, %rdi
	.loc	48 127 5
	movq	%rax, -24(%rbp)
	movq	%rdi, -16(%rbp)
	.loc	48 128 2 is_stmt 1
	movq	-24(%rbp), %rax
	movq	-16(%rbp), %rdx
	addq	$48, %rsp
	popq	%rbp
	retq
Ltmp1162:
Lfunc_end205:
	.cfi_endproc

	.globl	__ZN56_$LT$T$u20$as$u20$crossbeam_epoch..atomic..Pointable$GT$4init17h2a0bcd0073bab6d2E
	.p2align	4, 0x90
__ZN56_$LT$T$u20$as$u20$crossbeam_epoch..atomic..Pointable$GT$4init17h2a0bcd0073bab6d2E:
Lfunc_begin206:
	.loc	48 199 0
	.cfi_startproc
	.cfi_personality 155, _rust_eh_personality
	.cfi_lsda 16, Lexception25
	pushq	%rbp
	.cfi_def_cfa_offset 16
	.cfi_offset %rbp, -16
	movq	%rsp, %rbp
	.cfi_def_cfa_register %rbp
	subq	$2112, %rsp
	movq	%rdi, %rsi
Ltmp1166:
	leaq	-2088(%rbp), %rdi
	movl	$2072, %edx
	movq	%rdx, -2104(%rbp)
Ltmp1167:
	.loc	48 200 32 prologue_end
	callq	_memcpy
Ltmp1168:
	.loc	48 0 32 is_stmt 0
	movq	-2104(%rbp), %rdi
Ltmp1163:
	movl	$8, %esi
Ltmp1169:
	.loc	41 219 9 is_stmt 1
	callq	__ZN5alloc5alloc15exchange_malloc17hfa9ff624c73e1703E
Ltmp1164:
	movq	%rax, -2096(%rbp)
	jmp	LBB206_2
LBB206_1:
Ltmp1165:
	.loc	41 0 9 is_stmt 0
	movq	%rax, %rcx
	movl	%edx, %eax
	movq	%rcx, -16(%rbp)
	movl	%eax, -8(%rbp)
	.loc	41 217 5 is_stmt 1
	movq	-16(%rbp), %rdi
	callq	__Unwind_Resume
LBB206_2:
	.loc	41 0 5 is_stmt 0
	movq	-2096(%rbp), %rdi
	.loc	41 219 18 is_stmt 1
	leaq	-2088(%rbp), %rsi
	movl	$2072, %edx
	callq	_memcpy
	movq	-2096(%rbp), %rdi
Ltmp1170:
	.loc	48 200 9
	callq	__ZN5alloc5boxed16Box$LT$T$C$A$GT$8into_raw17h3b1282b5d32610e1E
	.loc	48 201 6
	addq	$2112, %rsp
	popq	%rbp
	retq
Ltmp1171:
Lfunc_end206:
	.cfi_endproc
	.section	__TEXT,__gcc_except_tab
	.p2align	2
GCC_except_table206:
Lexception25:
	.byte	255
	.byte	255
	.byte	1
	.uleb128 Lcst_end25-Lcst_begin25
Lcst_begin25:
	.uleb128 Lfunc_begin206-Lfunc_begin206
	.uleb128 Ltmp1163-Lfunc_begin206
	.byte	0
	.byte	0
	.uleb128 Ltmp1163-Lfunc_begin206
	.uleb128 Ltmp1164-Ltmp1163
	.uleb128 Ltmp1165-Lfunc_begin206
	.byte	0
	.uleb128 Ltmp1164-Lfunc_begin206
	.uleb128 Lfunc_end206-Ltmp1164
	.byte	0
	.byte	0
Lcst_end25:
	.p2align	2

	.section	__TEXT,__text,regular,pure_instructions
	.globl	__ZN56_$LT$T$u20$as$u20$crossbeam_epoch..atomic..Pointable$GT$4init17hd75cbbbad721861cE
	.p2align	4, 0x90
__ZN56_$LT$T$u20$as$u20$crossbeam_epoch..atomic..Pointable$GT$4init17hd75cbbbad721861cE:
Lfunc_begin207:
	.loc	48 199 0
	.cfi_startproc
	.cfi_personality 155, _rust_eh_personality
	.cfi_lsda 16, Lexception26
	pushq	%rbp
	.cfi_def_cfa_offset 16
	.cfi_offset %rbp, -16
	movq	%rsp, %rbp
	.cfi_def_cfa_register %rbp
	subq	$2144, %rsp
	movq	%rdi, %rsi
Ltmp1178:
	leaq	-2120(%rbp), %rdi
	movl	$2104, %edx
	movq	%rdx, -2136(%rbp)
Ltmp1179:
	.loc	48 200 32 prologue_end
	callq	_memcpy
Ltmp1180:
	.loc	48 0 32 is_stmt 0
	movq	-2136(%rbp), %rdi
Ltmp1172:
	movl	$8, %esi
Ltmp1181:
	.loc	41 219 9 is_stmt 1
	callq	__ZN5alloc5alloc15exchange_malloc17hfa9ff624c73e1703E
Ltmp1173:
	movq	%rax, -2128(%rbp)
	jmp	LBB207_4
LBB207_1:
Ltmp1174:
	.loc	41 0 9 is_stmt 0
	movq	%rax, %rcx
	movl	%edx, %eax
	movq	%rcx, -16(%rbp)
	movl	%eax, -8(%rbp)
Ltmp1175:
	leaq	-2120(%rbp), %rdi
	.loc	41 220 5 is_stmt 1
	callq	__ZN4core3ptr53drop_in_place$LT$crossbeam_epoch..internal..Local$GT$17heae59d8ae6011bbaE
Ltmp1176:
	jmp	LBB207_3
LBB207_2:
Ltmp1177:
	.loc	41 217 5
