	.section	__TEXT,__text,regular,pure_instructions
	.macosx_version_min 10, 7
	.file	1 "/rustc/2c8cc343237b8f7d5a3c3703e3a87f2eb2c54a74/library/std/src/thread" "local.rs"
	.globl	__ZN100_$LT$core..iter..adapters..take..Take$LT$I$GT$$u20$as$u20$core..iter..traits..iterator..Iterator$GT$4next17h747cba1ddb74baa0E
	.p2align	4, 0x90
__ZN100_$LT$core..iter..adapters..take..Take$LT$I$GT$$u20$as$u20$core..iter..traits..iterator..Iterator$GT$4next17h747cba1ddb74baa0E:
Lfunc_begin0:
	.file	2 "/rustc/2c8cc343237b8f7d5a3c3703e3a87f2eb2c54a74/library/core/src/iter/adapters" "take.rs"
	.loc	2 34 0
	.cfi_startproc
	pushq	%rbp
	.cfi_def_cfa_offset 16
	.cfi_offset %rbp, -16
	movq	%rsp, %rbp
	.cfi_def_cfa_register %rbp
	subq	$32, %rsp
	movq	%rdi, -24(%rbp)
	movq	%rdi, -8(%rbp)
Ltmp0:
	.loc	2 35 12 prologue_end
	cmpq	$0, 16(%rdi)
	jne	LBB0_2
	.loc	2 39 13
	movq	$0, -16(%rbp)
	.loc	2 35 9
	jmp	LBB0_3
LBB0_2:
	.loc	2 0 9 is_stmt 0
	movq	-24(%rbp), %rdi
	.loc	2 36 13 is_stmt 1
	movq	16(%rdi), %rax
	subq	$1, %rax
	movq	%rax, 16(%rdi)
	.loc	2 37 13
	callq	__ZN94_$LT$core..slice..iter..IterMut$LT$T$GT$$u20$as$u20$core..iter..traits..iterator..Iterator$GT$4next17h2aa879296e59acd7E
	movq	%rax, -16(%rbp)
LBB0_3:
	.loc	2 41 6
	movq	-16(%rbp), %rax
	addq	$32, %rsp
	popq	%rbp
	retq
Ltmp1:
Lfunc_end0:
	.cfi_endproc

	.globl	__ZN104_$LT$core..ops..control_flow..ControlFlow$LT$B$C$C$GT$$u20$as$u20$core..ops..try_trait..FromResidual$GT$13from_residual17hcb09ede5bdb0c9cfE
	.p2align	4, 0x90
__ZN104_$LT$core..ops..control_flow..ControlFlow$LT$B$C$C$GT$$u20$as$u20$core..ops..try_trait..FromResidual$GT$13from_residual17hcb09ede5bdb0c9cfE:
Lfunc_begin1:
	.file	3 "/rustc/2c8cc343237b8f7d5a3c3703e3a87f2eb2c54a74/library/core/src/ops" "control_flow.rs"
	.loc	3 123 0
	.cfi_startproc
	pushq	%rbp
	.cfi_def_cfa_offset 16
	.cfi_offset %rbp, -16
	movq	%rsp, %rbp
	.cfi_def_cfa_register %rbp
	subq	$48, %rsp
	movq	%rdi, -48(%rbp)
	movq	%rsi, -40(%rbp)
Ltmp2:
	.loc	3 125 32 prologue_end
	movq	-48(%rbp), %rcx
	movq	-40(%rbp), %rax
	movq	%rcx, -16(%rbp)
	movq	%rax, -8(%rbp)
Ltmp3:
	.loc	3 125 38 is_stmt 0
	movq	%rcx, -32(%rbp)
	movq	%rax, -24(%rbp)
Ltmp4:
	.loc	3 127 6 is_stmt 1
	movq	-32(%rbp), %rax
	movq	-24(%rbp), %rdx
	addq	$48, %rsp
	popq	%rbp
	retq
Ltmp5:
Lfunc_end1:
	.cfi_endproc

	.globl	__ZN110_$LT$core..iter..adapters..enumerate..Enumerate$LT$I$GT$$u20$as$u20$core..iter..traits..iterator..Iterator$GT$8try_fold17hd84b225df5b48c77E
	.p2align	4, 0x90
__ZN110_$LT$core..iter..adapters..enumerate..Enumerate$LT$I$GT$$u20$as$u20$core..iter..traits..iterator..Iterator$GT$8try_fold17hd84b225df5b48c77E:
Lfunc_begin2:
	.file	4 "/rustc/2c8cc343237b8f7d5a3c3703e3a87f2eb2c54a74/library/core/src/iter/adapters" "enumerate.rs"
	.loc	4 72 0
	.cfi_startproc
	.cfi_personality 155, _rust_eh_personality
	.cfi_lsda 16, Lexception0
	pushq	%rbp
	.cfi_def_cfa_offset 16
	.cfi_offset %rbp, -16
	movq	%rsp, %rbp
	.cfi_def_cfa_register %rbp
	subq	$96, %rsp
	movq	%rdi, -56(%rbp)
	movq	%rsi, -40(%rbp)
Ltmp9:
	.loc	4 91 44 prologue_end
	movq	%rdi, %rax
	addq	$16, %rax
	movq	%rax, -32(%rbp)
	.loc	4 91 61 is_stmt 0
	movq	%rsi, -24(%rbp)
Ltmp10:
	.loc	4 84 13 is_stmt 1
	movq	%rsi, -72(%rbp)
	movq	%rax, -64(%rbp)
Ltmp11:
	.loc	4 91 9
	movq	-72(%rbp), %rsi
	movq	-64(%rbp), %rdx
Ltmp6:
	callq	__ZN4core4iter6traits8iterator8Iterator8try_fold17h4a2cb7a8235dbef6E
Ltmp7:
	movq	%rdx, -88(%rbp)
	movq	%rax, -80(%rbp)
	jmp	LBB2_3
LBB2_1:
	.loc	4 91 66 is_stmt 0
	xorl	%eax, %eax
	testb	$1, %al
	jne	LBB2_5
	jmp	LBB2_4
LBB2_2:
Ltmp8:
	.loc	4 0 66
	movq	%rax, %rcx
	movl	%edx, %eax
	movq	%rcx, -16(%rbp)
	movl	%eax, -8(%rbp)
	jmp	LBB2_1
LBB2_3:
	movq	-88(%rbp), %rdx
	movq	-80(%rbp), %rax
	.loc	4 92 6 is_stmt 1
	addq	$96, %rsp
	popq	%rbp
	retq
LBB2_4:
	.loc	4 72 5
	movq	-16(%rbp), %rdi
	callq	__Unwind_Resume
LBB2_5:
	.loc	4 91 66
	jmp	LBB2_4
Ltmp12:
Lfunc_end2:
	.cfi_endproc
	.section	__TEXT,__gcc_except_tab
	.p2align	2
GCC_except_table2:
Lexception0:
	.byte	255
	.byte	255
	.byte	1
	.uleb128 Lcst_end0-Lcst_begin0
Lcst_begin0:
	.uleb128 Ltmp6-Lfunc_begin2
	.uleb128 Ltmp7-Ltmp6
	.uleb128 Ltmp8-Lfunc_begin2
	.byte	0
	.uleb128 Ltmp7-Lfunc_begin2
	.uleb128 Lfunc_end2-Ltmp7
	.byte	0
	.byte	0
Lcst_end0:
	.p2align	2

	.section	__TEXT,__text,regular,pure_instructions
	.globl	__ZN110_$LT$core..iter..adapters..enumerate..Enumerate$LT$I$GT$$u20$as$u20$core..iter..traits..iterator..Iterator$GT$8try_fold9enumerate28_$u7b$$u7b$closure$u7d$$u7d$17h4562c82927a56e7dE
	.p2align	4, 0x90
__ZN110_$LT$core..iter..adapters..enumerate..Enumerate$LT$I$GT$$u20$as$u20$core..iter..traits..iterator..Iterator$GT$8try_fold9enumerate28_$u7b$$u7b$closure$u7d$$u7d$17h4562c82927a56e7dE:
Lfunc_begin3:
	.loc	4 84 0
	.cfi_startproc
	.cfi_personality 155, _rust_eh_personality
	.cfi_lsda 16, Lexception1
	pushq	%rbp
	.cfi_def_cfa_offset 16
	.cfi_offset %rbp, -16
	movq	%rsp, %rbp
	.cfi_def_cfa_register %rbp
	subq	$128, %rsp
	movq	%rdi, -120(%rbp)
	movq	%rdi, -56(%rbp)
	movq	%rsi, -40(%rbp)
Ltmp16:
	.loc	4 85 38 prologue_end
	movq	8(%rdi), %rax
	movq	(%rax), %rax
	.loc	4 85 37 is_stmt 0
	movq	%rax, -72(%rbp)
	movq	%rsi, -64(%rbp)
	.loc	4 85 27
	movq	-72(%rbp), %rcx
	movq	-64(%rbp), %rax
	movq	%rcx, -88(%rbp)
	movq	%rax, -80(%rbp)
	movq	-88(%rbp), %rsi
	movq	-80(%rbp), %rdx
	callq	__ZN4core4iter6traits8iterator8Iterator4find5check28_$u7b$$u7b$closure$u7d$$u7d$17hcacc86209d94a048E
	movq	-120(%rbp), %rdi
	movq	%rax, -112(%rbp)
	movq	%rdx, -104(%rbp)
	movq	%rax, -32(%rbp)
	movq	%rdx, -24(%rbp)
Ltmp17:
	.loc	4 86 17 is_stmt 1
	movq	8(%rdi), %rax
	movq	(%rax), %rax
	addq	$1, %rax
	movq	%rax, -96(%rbp)
	setb	%al
	testb	$1, %al
	jne	LBB3_2
	.loc	4 0 17 is_stmt 0
	movq	-104(%rbp), %rdx
	movq	-112(%rbp), %rax
	movq	-96(%rbp), %rsi
	movq	-120(%rbp), %rcx
	.loc	4 86 17
	movq	8(%rcx), %rcx
	movq	%rsi, (%rcx)
Ltmp18:
	.loc	4 88 14 is_stmt 1
	addq	$128, %rsp
	popq	%rbp
	retq
LBB3_2:
Ltmp13:
Ltmp19:
	.loc	4 86 17
	leaq	_str.0(%rip), %rdi
	leaq	l___unnamed_16(%rip), %rdx
	movl	$28, %esi
	callq	__ZN4core9panicking5panic17hc1bc45270cf64b03E
Ltmp14:
	jmp	LBB3_5
Ltmp20:
LBB3_3:
	.loc	4 84 13
	movq	-16(%rbp), %rdi
	callq	__Unwind_Resume
Ltmp21:
LBB3_4:
Ltmp15:
	.loc	4 0 13 is_stmt 0
	movq	%rax, %rcx
	movl	%edx, %eax
	movq	%rcx, -16(%rbp)
	movl	%eax, -8(%rbp)
	jmp	LBB3_3
LBB3_5:
	ud2
Lfunc_end3:
	.cfi_endproc
	.section	__TEXT,__gcc_except_tab
	.p2align	2
GCC_except_table3:
Lexception1:
	.byte	255
	.byte	255
	.byte	1
	.uleb128 Lcst_end1-Lcst_begin1
Lcst_begin1:
	.uleb128 Lfunc_begin3-Lfunc_begin3
	.uleb128 Ltmp13-Lfunc_begin3
	.byte	0
	.byte	0
	.uleb128 Ltmp13-Lfunc_begin3
	.uleb128 Ltmp14-Ltmp13
	.uleb128 Ltmp15-Lfunc_begin3
	.byte	0
	.uleb128 Ltmp14-Lfunc_begin3
	.uleb128 Lfunc_end3-Ltmp14
	.byte	0
	.byte	0
Lcst_end1:
	.p2align	2

	.section	__TEXT,__text,regular,pure_instructions
	.globl	__ZN115_$LT$core..panic..unwind_safe..AssertUnwindSafe$LT$F$GT$$u20$as$u20$core..ops..function..FnOnce$LT$$LP$$RP$$GT$$GT$9call_once17hd36aa9ae9b624241E
	.p2align	4, 0x90
__ZN115_$LT$core..panic..unwind_safe..AssertUnwindSafe$LT$F$GT$$u20$as$u20$core..ops..function..FnOnce$LT$$LP$$RP$$GT$$GT$9call_once17hd36aa9ae9b624241E:
Lfunc_begin4:
	.file	5 "/rustc/2c8cc343237b8f7d5a3c3703e3a87f2eb2c54a74/library/core/src/panic" "unwind_safe.rs"
	.loc	5 270 0 is_stmt 1
	.cfi_startproc
	pushq	%rbp
	.cfi_def_cfa_offset 16
	.cfi_offset %rbp, -16
	movq	%rsp, %rbp
	.cfi_def_cfa_register %rbp
	subq	$16, %rsp
	movq	%rdi, -8(%rbp)
Ltmp22:
	.loc	5 271 9 prologue_end
	callq	__ZN4core3ops8function6FnOnce9call_once17ha6f7d85725750e2aE
	.loc	5 272 6
	addq	$16, %rsp
	popq	%rbp
	retq
Ltmp23:
Lfunc_end4:
	.cfi_endproc

	.globl	__ZN115_$LT$core..panic..unwind_safe..AssertUnwindSafe$LT$F$GT$$u20$as$u20$core..ops..function..FnOnce$LT$$LP$$RP$$GT$$GT$9call_once17he6da56b422dad4e7E
	.p2align	4, 0x90
__ZN115_$LT$core..panic..unwind_safe..AssertUnwindSafe$LT$F$GT$$u20$as$u20$core..ops..function..FnOnce$LT$$LP$$RP$$GT$$GT$9call_once17he6da56b422dad4e7E:
Lfunc_begin5:
	.loc	5 270 0
	.cfi_startproc
	pushq	%rbp
	.cfi_def_cfa_offset 16
	.cfi_offset %rbp, -16
	movq	%rsp, %rbp
	.cfi_def_cfa_register %rbp
	subq	$16, %rsp
	movq	%rdi, -8(%rbp)
Ltmp24:
	.loc	5 271 9 prologue_end
	callq	__ZN4core3ops8function6FnOnce9call_once17h507df4d65f32f229E
	.loc	5 272 6
	addq	$16, %rsp
	popq	%rbp
	retq
Ltmp25:
Lfunc_end5:
	.cfi_endproc

	.globl	__ZN115_$LT$core..panic..unwind_safe..AssertUnwindSafe$LT$F$GT$$u20$as$u20$core..ops..function..FnOnce$LT$$LP$$RP$$GT$$GT$9call_once17he8e076cc9d014427E
	.p2align	4, 0x90
__ZN115_$LT$core..panic..unwind_safe..AssertUnwindSafe$LT$F$GT$$u20$as$u20$core..ops..function..FnOnce$LT$$LP$$RP$$GT$$GT$9call_once17he8e076cc9d014427E:
Lfunc_begin6:
	.loc	5 270 0
	.cfi_startproc
	pushq	%rbp
	.cfi_def_cfa_offset 16
	.cfi_offset %rbp, -16
	movq	%rsp, %rbp
	.cfi_def_cfa_register %rbp
	subq	$16, %rsp
	movq	%rdi, -8(%rbp)
Ltmp26:
	.loc	5 271 9 prologue_end
	callq	__ZN4core3ops8function6FnOnce9call_once17hd495ea5a1f8a5cbaE
	.loc	5 272 6
	addq	$16, %rsp
	popq	%rbp
	retq
Ltmp27:
Lfunc_end6:
	.cfi_endproc

	.globl	__ZN15crossbeam_utils6atomic11atomic_cell19AtomicCell$LT$T$GT$3new17h82af2bb07f6bf0fdE
	.p2align	4, 0x90
__ZN15crossbeam_utils6atomic11atomic_cell19AtomicCell$LT$T$GT$3new17h82af2bb07f6bf0fdE:
Lfunc_begin7:
	.file	6 "/Users/natalie/.cargo/registry/src/github.com-1ecc6299db9ec823/crossbeam-utils-0.8.14/src/atomic" "atomic_cell.rs"
	.loc	6 67 0
	.cfi_startproc
	pushq	%rbp
	.cfi_def_cfa_offset 16
	.cfi_offset %rbp, -16
	movq	%rsp, %rbp
	.cfi_def_cfa_register %rbp
	subq	$64, %rsp
	movq	%rdi, -56(%rbp)
	movq	%rdi, -32(%rbp)
Ltmp28:
	.file	7 "/rustc/2c8cc343237b8f7d5a3c3703e3a87f2eb2c54a74/library/core/src/mem" "maybe_uninit.rs"
	.loc	7 291 48 prologue_end
	movq	%rdi, -24(%rbp)
Ltmp29:
	.file	8 "/rustc/2c8cc343237b8f7d5a3c3703e3a87f2eb2c54a74/library/core/src/mem" "manually_drop.rs"
	.loc	8 71 9
	movq	%rdi, -40(%rbp)
Ltmp30:
	.loc	7 291 9
	movq	-40(%rbp), %rax
	movq	%rax, -48(%rbp)
	.loc	7 292 6
	movq	-48(%rbp), %rax
	movq	%rax, -8(%rbp)
Ltmp31:
	.file	9 "/rustc/2c8cc343237b8f7d5a3c3703e3a87f2eb2c54a74/library/core/src" "cell.rs"
	.loc	9 1953 9
	movq	%rax, -16(%rbp)
	.loc	9 1954 6
	movq	-16(%rbp), %rax
Ltmp32:
	.loc	6 68 9
	movq	%rax, -64(%rbp)
	.loc	6 71 6
	movq	-64(%rbp), %rax
	addq	$64, %rsp
	popq	%rbp
	retq
Ltmp33:
Lfunc_end7:
	.cfi_endproc

	.globl	__ZN15crossbeam_utils6atomic11atomic_cell19AtomicCell$LT$T$GT$6as_ptr17h803ee2fa35c345ecE
	.p2align	4, 0x90
__ZN15crossbeam_utils6atomic11atomic_cell19AtomicCell$LT$T$GT$6as_ptr17h803ee2fa35c345ecE:
Lfunc_begin8:
	.loc	6 182 0
	.cfi_startproc
	pushq	%rbp
	.cfi_def_cfa_offset 16
	.cfi_offset %rbp, -16
	movq	%rsp, %rbp
	.cfi_def_cfa_register %rbp
	subq	$24, %rsp
	movq	%rdi, %rax
	movq	%rax, -24(%rbp)
	movq	%rax, -8(%rbp)
	movq	%rax, -16(%rbp)
Ltmp34:
	.loc	6 184 6 prologue_end
	addq	$24, %rsp
	popq	%rbp
	retq
Ltmp35:
Lfunc_end8:
	.cfi_endproc

	.p2align	4, 0x90
__ZN15crossbeam_utils7backoff7Backoff12is_completed17hda04e2655224bfe0E:
Lfunc_begin9:
	.file	10 "/Users/natalie/.cargo/registry/src/github.com-1ecc6299db9ec823/crossbeam-utils-0.8.14/src" "backoff.rs"
	.loc	10 278 0
	.cfi_startproc
	pushq	%rbp
	.cfi_def_cfa_offset 16
	.cfi_offset %rbp, -16
	movq	%rsp, %rbp
	.cfi_def_cfa_register %rbp
	subq	$16, %rsp
	movq	%rdi, -8(%rbp)
Ltmp36:
	.loc	10 279 9 prologue_end
	callq	__ZN4core4cell13Cell$LT$T$GT$3get17hbf9d5b6b53859f57E
	cmpl	$10, %eax
	seta	%al
	.loc	10 280 6
	andb	$1, %al
	movzbl	%al, %eax
	addq	$16, %rsp
	popq	%rbp
	retq
Ltmp37:
Lfunc_end9:
	.cfi_endproc

	.p2align	4, 0x90
__ZN15crossbeam_utils7backoff7Backoff3new17h397335c961f79341E:
Lfunc_begin10:
	.loc	10 95 0
	.cfi_startproc
	pushq	%rbp
	.cfi_def_cfa_offset 16
	.cfi_offset %rbp, -16
	movq	%rsp, %rbp
	.cfi_def_cfa_register %rbp
	subq	$16, %rsp
Ltmp38:
	.loc	10 96 25 prologue_end
	xorl	%edi, %edi
	callq	__ZN4core4cell13Cell$LT$T$GT$3new17h02bedba265149f50E
	.loc	10 96 9 is_stmt 0
	movl	%eax, -4(%rbp)
	.loc	10 97 6 is_stmt 1
	movl	-4(%rbp), %eax
	addq	$16, %rsp
	popq	%rbp
	retq
Ltmp39:
Lfunc_end10:
	.cfi_endproc

	.p2align	4, 0x90
__ZN15crossbeam_utils7backoff7Backoff6snooze17h744dbd43660f88d0E:
Lfunc_begin11:
	.loc	10 209 0
	.cfi_startproc
	pushq	%rbp
	.cfi_def_cfa_offset 16
	.cfi_offset %rbp, -16
	movq	%rsp, %rbp
	.cfi_def_cfa_register %rbp
	subq	$48, %rsp
	movq	%rdi, -40(%rbp)
	movq	%rdi, -8(%rbp)
Ltmp40:
	.loc	10 210 12 prologue_end
	callq	__ZN4core4cell13Cell$LT$T$GT$3get17hbf9d5b6b53859f57E
	cmpl	$6, %eax
	jbe	LBB11_2
	.loc	10 227 13
	callq	__ZN3std6thread9yield_now17h7d864e69e75f42c9E
	jmp	LBB11_6
LBB11_2:
	.loc	10 0 13 is_stmt 0
	movq	-40(%rbp), %rdi
	.loc	10 211 30 is_stmt 1
	callq	__ZN4core4cell13Cell$LT$T$GT$3get17hbf9d5b6b53859f57E
	movl	%eax, %ecx
	.loc	10 211 25 is_stmt 0
	movl	%ecx, %eax
	andl	$-32, %eax
	cmpl	$0, %eax
	setne	%al
	andl	$31, %ecx
	movl	$1, %edx
	shll	%cl, %edx
	movl	%edx, -44(%rbp)
	testb	$1, %al
	jne	LBB11_4
	.loc	10 0 25
	movl	-44(%rbp), %eax
	.loc	10 211 22
	movl	$0, -32(%rbp)
	movl	%eax, -28(%rbp)
	movl	-32(%rbp), %edi
	movl	-28(%rbp), %esi
	callq	__ZN63_$LT$I$u20$as$u20$core..iter..traits..collect..IntoIterator$GT$9into_iter17heef9001ff638d118E
	movl	%eax, -24(%rbp)
	movl	%edx, -20(%rbp)
Ltmp41:
	.loc	10 211 13
	jmp	LBB11_5
Ltmp42:
LBB11_4:
	.loc	10 211 25
	leaq	_str.1(%rip), %rdi
	leaq	l___unnamed_17(%rip), %rdx
	movl	$35, %esi
	callq	__ZN4core9panicking5panic17hc1bc45270cf64b03E
LBB11_5:
	.loc	10 0 25
	leaq	-24(%rbp), %rdi
Ltmp43:
	.loc	10 211 22
	callq	__ZN4core4iter5range101_$LT$impl$u20$core..iter..traits..iterator..Iterator$u20$for$u20$core..ops..range..Range$LT$A$GT$$GT$4next17h633167f7819c8f75E
	movl	%edx, -12(%rbp)
	movl	%eax, -16(%rbp)
	movl	-16(%rbp), %eax
	cmpq	$0, %rax
	jne	LBB11_7
Ltmp44:
LBB11_6:
	.loc	10 0 22
	movq	-40(%rbp), %rdi
	.loc	10 230 12 is_stmt 1
	callq	__ZN4core4cell13Cell$LT$T$GT$3get17hbf9d5b6b53859f57E
	cmpl	$10, %eax
	jbe	LBB11_9
	jmp	LBB11_8
LBB11_7:
Ltmp45:
	.loc	10 215 17
	callq	__ZN4core4sync6atomic14spin_loop_hint17h5966ab0a9bbacd97E
	jmp	LBB11_5
Ltmp46:
LBB11_8:
	.loc	10 233 6
	addq	$48, %rsp
	popq	%rbp
	retq
LBB11_9:
	.loc	10 0 6 is_stmt 0
	movq	-40(%rbp), %rdi
	.loc	10 231 27 is_stmt 1
	callq	__ZN4core4cell13Cell$LT$T$GT$3get17hbf9d5b6b53859f57E
	addl	$1, %eax
	movl	%eax, -48(%rbp)
	setb	%al
	testb	$1, %al
	jne	LBB11_11
	.loc	10 0 27 is_stmt 0
	movl	-48(%rbp), %esi
	movq	-40(%rbp), %rdi
	.loc	10 231 13
	callq	__ZN4core4cell13Cell$LT$T$GT$3set17hbb634b4234c50b9dE
	jmp	LBB11_8
LBB11_11:
	.loc	10 231 27
	leaq	_str.0(%rip), %rdi
	leaq	l___unnamed_18(%rip), %rdx
	movl	$28, %esi
	callq	__ZN4core9panicking5panic17hc1bc45270cf64b03E
Ltmp47:
Lfunc_end11:
	.cfi_endproc

	.globl	__ZN3std5panic12catch_unwind17had54e856a09c4d9dE
	.p2align	4, 0x90
__ZN3std5panic12catch_unwind17had54e856a09c4d9dE:
Lfunc_begin12:
	.file	11 "/rustc/2c8cc343237b8f7d5a3c3703e3a87f2eb2c54a74/library/std/src" "panic.rs"
	.loc	11 139 0 is_stmt 1
	.cfi_startproc
	pushq	%rbp
	.cfi_def_cfa_offset 16
	.cfi_offset %rbp, -16
	movq	%rsp, %rbp
	.cfi_def_cfa_register %rbp
	subq	$16, %rsp
	movq	%rdi, -8(%rbp)
Ltmp48:
	.loc	11 140 14 prologue_end
	callq	__ZN3std9panicking3try17h0286c0a12e6fcdacE
	.loc	11 141 2
	addq	$16, %rsp
	popq	%rbp
	retq
Ltmp49:
Lfunc_end12:
	.cfi_endproc

	.globl	__ZN3std5panic12catch_unwind17hc937c2f308d3f8a4E
	.p2align	4, 0x90
__ZN3std5panic12catch_unwind17hc937c2f308d3f8a4E:
Lfunc_begin13:
	.loc	11 139 0
	.cfi_startproc
	pushq	%rbp
	.cfi_def_cfa_offset 16
	.cfi_offset %rbp, -16
	movq	%rsp, %rbp
	.cfi_def_cfa_register %rbp
	subq	$16, %rsp
	movq	%rdi, -8(%rbp)
Ltmp50:
	.loc	11 140 14 prologue_end
	callq	__ZN3std9panicking3try17hd03f7ef282ea9b28E
	.loc	11 141 2
	addq	$16, %rsp
	popq	%rbp
	retq
Ltmp51:
Lfunc_end13:
	.cfi_endproc

	.globl	__ZN3std5panic12catch_unwind17hd8607ad681dc6744E
	.p2align	4, 0x90
__ZN3std5panic12catch_unwind17hd8607ad681dc6744E:
Lfunc_begin14:
	.loc	11 139 0
	.cfi_startproc
	pushq	%rbp
	.cfi_def_cfa_offset 16
	.cfi_offset %rbp, -16
	movq	%rsp, %rbp
	.cfi_def_cfa_register %rbp
	subq	$16, %rsp
	movq	%rdi, -8(%rbp)
Ltmp52:
	.loc	11 140 14 prologue_end
	callq	__ZN3std9panicking3try17h79fd632ea1405401E
	.loc	11 141 2
	addq	$16, %rsp
	popq	%rbp
	retq
Ltmp53:
Lfunc_end14:
	.cfi_endproc

	.globl	__ZN3std6thread5local17LocalKey$LT$T$GT$8try_with17hb4b3493b8e9435caE
	.p2align	4, 0x90
__ZN3std6thread5local17LocalKey$LT$T$GT$8try_with17hb4b3493b8e9435caE:
Lfunc_begin15:
	.loc	1 440 0
	.cfi_startproc
	.cfi_personality 155, _rust_eh_personality
	.cfi_lsda 16, Lexception2
	pushq	%rbp
	.cfi_def_cfa_offset 16
	.cfi_offset %rbp, -16
	movq	%rsp, %rbp
	.cfi_def_cfa_register %rbp
	subq	$224, %rsp
	movq	%rdx, -216(%rbp)
	movq	%rdi, -208(%rbp)
	movq	%rdi, -200(%rbp)
	movq	%rsi, -112(%rbp)
	movq	%rdx, -104(%rbp)
Ltmp59:
	.loc	1 445 17 prologue_end
	movb	$1, -113(%rbp)
	.loc	1 445 32 is_stmt 0
	movq	(%rsi), %rax
	.loc	1 445 45
	movq	$0, -160(%rbp)
	.loc	1 445 32
	movq	-160(%rbp), %rdi
Ltmp54:
	callq	*%rax
Ltmp55:
	movq	%rax, -192(%rbp)
	jmp	LBB15_3
LBB15_1:
	.loc	1 448 5 is_stmt 1
	testb	$1, -113(%rbp)
	jne	LBB15_15
	jmp	LBB15_14
LBB15_2:
Ltmp58:
	.loc	1 0 5 is_stmt 0
	movq	%rax, %rcx
	movl	%edx, %eax
	movq	%rcx, -48(%rbp)
	movl	%eax, -40(%rbp)
	jmp	LBB15_1
LBB15_3:
	movq	-192(%rbp), %rax
	.loc	1 445 32 is_stmt 1
	movq	%rax, -168(%rbp)
Ltmp60:
	.file	12 "/rustc/2c8cc343237b8f7d5a3c3703e3a87f2eb2c54a74/library/core/src" "option.rs"
	.loc	12 1096 15
	movq	-168(%rbp), %rdx
	movl	$1, %eax
	xorl	%ecx, %ecx
	cmpq	$0, %rdx
	cmoveq	%rcx, %rax
	.loc	12 1096 9 is_stmt 0
	cmpq	$0, %rax
	jne	LBB15_5
	.loc	12 1098 21 is_stmt 1
	movq	$0, -176(%rbp)
	.loc	12 1098 28 is_stmt 0
	jmp	LBB15_6
LBB15_5:
	.loc	12 1097 18 is_stmt 1
	movq	-168(%rbp), %rax
	movq	%rax, -32(%rbp)
Ltmp61:
	.loc	12 1097 24 is_stmt 0
	movq	%rax, -176(%rbp)
Ltmp62:
LBB15_6:
	.file	13 "/rustc/2c8cc343237b8f7d5a3c3703e3a87f2eb2c54a74/library/core/src" "result.rs"
	.loc	13 2091 15 is_stmt 1
	movq	-176(%rbp), %rdx
	xorl	%eax, %eax
	movl	$1, %ecx
	cmpq	$0, %rdx
	cmoveq	%rcx, %rax
	.loc	13 2091 9 is_stmt 0
	cmpq	$0, %rax
	jne	LBB15_8
	.loc	13 2092 16 is_stmt 1
	movq	-176(%rbp), %rax
	movq	%rax, -24(%rbp)
Ltmp63:
	.loc	13 2092 22 is_stmt 0
	movq	%rax, -184(%rbp)
Ltmp64:
	.loc	13 2092 45
	jmp	LBB15_9
LBB15_8:
Ltmp65:
	.loc	13 2093 23 is_stmt 1
	movq	$0, -184(%rbp)
Ltmp66:
LBB15_9:
	.loc	1 445 32
	movq	-184(%rbp), %rdx
	xorl	%eax, %eax
	movl	$1, %ecx
	cmpq	$0, %rdx
	cmoveq	%rcx, %rax
	cmpq	$0, %rax
	jne	LBB15_11
	.loc	1 0 32 is_stmt 0
	movq	-216(%rbp), %rsi
	.loc	1 445 32
	movq	-184(%rbp), %rax
	movq	%rax, -16(%rbp)
Ltmp67:
	.loc	1 445 32
	movq	%rax, -8(%rbp)
Ltmp68:
	.loc	1 446 16 is_stmt 1
	movb	$0, -113(%rbp)
	movq	%rax, -128(%rbp)
	movq	-128(%rbp), %rdx
Ltmp56:
	leaq	-152(%rbp), %rdi
	callq	__ZN17crossbeam_channel7context7Context4with28_$u7b$$u7b$closure$u7d$$u7d$17h5f3a9d7985283b51E
Ltmp57:
	jmp	LBB15_13
Ltmp69:
LBB15_11:
	.loc	1 0 16 is_stmt 0
	movq	-208(%rbp), %rax
Ltmp70:
	.loc	13 2107 23 is_stmt 1
	movq	$2, (%rax)
Ltmp71:
LBB15_12:
	.loc	13 0 23 is_stmt 0
	movq	-200(%rbp), %rax
	.loc	1 448 6 is_stmt 1
	addq	$224, %rsp
	popq	%rbp
	retq
LBB15_13:
	.loc	1 0 6 is_stmt 0
	movq	-208(%rbp), %rax
Ltmp72:
	.loc	1 446 13 is_stmt 1
	movq	-152(%rbp), %rcx
	movq	%rcx, (%rax)
	movq	-144(%rbp), %rcx
	movq	%rcx, 8(%rax)
	movq	-136(%rbp), %rcx
	movq	%rcx, 16(%rax)
Ltmp73:
	.loc	1 448 5
	jmp	LBB15_12
LBB15_14:
	.loc	1 440 5
	movq	-48(%rbp), %rdi
	callq	__Unwind_Resume
LBB15_15:
	.loc	1 448 5
	jmp	LBB15_14
Ltmp74:
Lfunc_end15:
	.cfi_endproc
	.section	__TEXT,__gcc_except_tab
	.p2align	2
GCC_except_table15:
Lexception2:
	.byte	255
	.byte	255
	.byte	1
	.uleb128 Lcst_end2-Lcst_begin2
Lcst_begin2:
	.uleb128 Ltmp54-Lfunc_begin15
	.uleb128 Ltmp57-Ltmp54
	.uleb128 Ltmp58-Lfunc_begin15
	.byte	0
	.uleb128 Ltmp57-Lfunc_begin15
	.uleb128 Lfunc_end15-Ltmp57
	.byte	0
	.byte	0
Lcst_end2:
	.p2align	2

	.section	__TEXT,__text,regular,pure_instructions
	.globl	__ZN3std6thread5local17LocalKey$LT$T$GT$8try_with17hb50250f3cdd775d3E
	.p2align	4, 0x90
__ZN3std6thread5local17LocalKey$LT$T$GT$8try_with17hb50250f3cdd775d3E:
Lfunc_begin16:
	.loc	1 440 0
	.cfi_startproc
	.cfi_personality 155, _rust_eh_personality
	.cfi_lsda 16, Lexception3
	pushq	%rbp
	.cfi_def_cfa_offset 16
	.cfi_offset %rbp, -16
	movq	%rsp, %rbp
	.cfi_def_cfa_register %rbp
	subq	$208, %rsp
	movq	%rsi, -192(%rbp)
	movq	%rdi, -112(%rbp)
	movq	%rsi, -104(%rbp)
Ltmp80:
	.loc	1 445 17 prologue_end
	movb	$1, -113(%rbp)
	.loc	1 445 32 is_stmt 0
	movq	(%rdi), %rax
	.loc	1 445 45
	movq	$0, -136(%rbp)
	.loc	1 445 32
	movq	-136(%rbp), %rdi
Ltmp75:
	callq	*%rax
Ltmp76:
	movq	%rax, -184(%rbp)
	jmp	LBB16_3
LBB16_1:
	.loc	1 448 5 is_stmt 1
	testb	$1, -113(%rbp)
	jne	LBB16_15
	jmp	LBB16_14
LBB16_2:
Ltmp79:
	.loc	1 0 5 is_stmt 0
	movq	%rax, %rcx
	movl	%edx, %eax
	movq	%rcx, -48(%rbp)
	movl	%eax, -40(%rbp)
	jmp	LBB16_1
LBB16_3:
	movq	-184(%rbp), %rax
	.loc	1 445 32 is_stmt 1
	movq	%rax, -144(%rbp)
Ltmp81:
	.loc	12 1096 15
	movq	-144(%rbp), %rdx
	movl	$1, %eax
	xorl	%ecx, %ecx
	cmpq	$0, %rdx
	cmoveq	%rcx, %rax
	.loc	12 1096 9 is_stmt 0
	cmpq	$0, %rax
	jne	LBB16_5
	.loc	12 1098 21 is_stmt 1
	movq	$0, -152(%rbp)
	.loc	12 1098 28 is_stmt 0
	jmp	LBB16_6
LBB16_5:
	.loc	12 1097 18 is_stmt 1
	movq	-144(%rbp), %rax
	movq	%rax, -32(%rbp)
Ltmp82:
	.loc	12 1097 24 is_stmt 0
	movq	%rax, -152(%rbp)
Ltmp83:
LBB16_6:
	.loc	13 2091 15 is_stmt 1
	movq	-152(%rbp), %rdx
	xorl	%eax, %eax
	movl	$1, %ecx
	cmpq	$0, %rdx
	cmoveq	%rcx, %rax
	.loc	13 2091 9 is_stmt 0
	cmpq	$0, %rax
	jne	LBB16_8
	.loc	13 2092 16 is_stmt 1
	movq	-152(%rbp), %rax
	movq	%rax, -24(%rbp)
Ltmp84:
	.loc	13 2092 22 is_stmt 0
	movq	%rax, -160(%rbp)
Ltmp85:
	.loc	13 2092 45
	jmp	LBB16_9
LBB16_8:
Ltmp86:
	.loc	13 2093 23 is_stmt 1
	movq	$0, -160(%rbp)
Ltmp87:
LBB16_9:
	.loc	1 445 32
	movq	-160(%rbp), %rdx
	xorl	%eax, %eax
	movl	$1, %ecx
	cmpq	$0, %rdx
	cmoveq	%rcx, %rax
	cmpq	$0, %rax
	jne	LBB16_11
	.loc	1 0 32 is_stmt 0
	movq	-192(%rbp), %rdi
	.loc	1 445 32
	movq	-160(%rbp), %rax
	movq	%rax, -16(%rbp)
Ltmp88:
	.loc	1 445 32
	movq	%rax, -8(%rbp)
Ltmp89:
	.loc	1 446 16 is_stmt 1
	movb	$0, -113(%rbp)
	movq	%rax, -128(%rbp)
	movq	-128(%rbp), %rsi
Ltmp77:
	callq	__ZN17crossbeam_channel7context7Context4with28_$u7b$$u7b$closure$u7d$$u7d$17h9a552f2823bb0d1eE
Ltmp78:
	movq	%rdx, -208(%rbp)
	movq	%rax, -200(%rbp)
	jmp	LBB16_13
Ltmp90:
LBB16_11:
	.loc	13 2107 23
	movq	$2, -176(%rbp)
Ltmp91:
LBB16_12:
	.loc	1 448 6
	movq	-176(%rbp), %rax
	movq	-168(%rbp), %rdx
	addq	$208, %rsp
	popq	%rbp
	retq
LBB16_13:
	.loc	1 0 6 is_stmt 0
	movq	-208(%rbp), %rax
	movq	-200(%rbp), %rcx
Ltmp92:
	.loc	1 446 13 is_stmt 1
	movq	%rcx, -176(%rbp)
	movq	%rax, -168(%rbp)
Ltmp93:
	.loc	1 448 5
	jmp	LBB16_12
LBB16_14:
	.loc	1 440 5
	movq	-48(%rbp), %rdi
	callq	__Unwind_Resume
LBB16_15:
	.loc	1 448 5
	jmp	LBB16_14
Ltmp94:
Lfunc_end16:
	.cfi_endproc
	.section	__TEXT,__gcc_except_tab
	.p2align	2
GCC_except_table16:
Lexception3:
	.byte	255
	.byte	255
	.byte	1
	.uleb128 Lcst_end3-Lcst_begin3
Lcst_begin3:
	.uleb128 Ltmp75-Lfunc_begin16
	.uleb128 Ltmp78-Ltmp75
	.uleb128 Ltmp79-Lfunc_begin16
	.byte	0
	.uleb128 Ltmp78-Lfunc_begin16
	.uleb128 Lfunc_end16-Ltmp78
	.byte	0
	.byte	0
Lcst_end3:
	.p2align	2

	.section	__TEXT,__text,regular,pure_instructions
	.globl	__ZN3std6thread5local17LocalKey$LT$T$GT$8try_with17hd525f5233e0d4318E
	.p2align	4, 0x90
__ZN3std6thread5local17LocalKey$LT$T$GT$8try_with17hd525f5233e0d4318E:
Lfunc_begin17:
	.loc	1 440 0
	.cfi_startproc
	.cfi_personality 155, _rust_eh_personality
	.cfi_lsda 16, Lexception4
	pushq	%rbp
	.cfi_def_cfa_offset 16
	.cfi_offset %rbp, -16
	movq	%rsp, %rbp
	.cfi_def_cfa_register %rbp
	subq	$208, %rsp
	movq	%rsi, -200(%rbp)
	movq	%rdx, -192(%rbp)
	movq	%rdi, -120(%rbp)
	movq	%rsi, -112(%rbp)
	movq	%rdx, -104(%rbp)
Ltmp100:
	.loc	1 445 17 prologue_end
	movb	$1, -121(%rbp)
	.loc	1 445 32 is_stmt 0
	movq	(%rdi), %rax
	.loc	1 445 45
	movq	$0, -144(%rbp)
	.loc	1 445 32
	movq	-144(%rbp), %rdi
Ltmp95:
	callq	*%rax
Ltmp96:
	movq	%rax, -184(%rbp)
	jmp	LBB17_3
LBB17_1:
	.loc	1 448 5 is_stmt 1
	testb	$1, -121(%rbp)
	jne	LBB17_15
	jmp	LBB17_14
LBB17_2:
Ltmp99:
	.loc	1 0 5 is_stmt 0
	movq	%rax, %rcx
	movl	%edx, %eax
	movq	%rcx, -48(%rbp)
	movl	%eax, -40(%rbp)
	jmp	LBB17_1
LBB17_3:
	movq	-184(%rbp), %rax
	.loc	1 445 32 is_stmt 1
	movq	%rax, -152(%rbp)
Ltmp101:
	.loc	12 1096 15
	movq	-152(%rbp), %rdx
	movl	$1, %eax
	xorl	%ecx, %ecx
	cmpq	$0, %rdx
	cmoveq	%rcx, %rax
	.loc	12 1096 9 is_stmt 0
	cmpq	$0, %rax
	jne	LBB17_5
	.loc	12 1098 21 is_stmt 1
	movq	$0, -160(%rbp)
	.loc	12 1098 28 is_stmt 0
	jmp	LBB17_6
LBB17_5:
	.loc	12 1097 18 is_stmt 1
	movq	-152(%rbp), %rax
	movq	%rax, -32(%rbp)
Ltmp102:
	.loc	12 1097 24 is_stmt 0
	movq	%rax, -160(%rbp)
Ltmp103:
LBB17_6:
	.loc	13 2091 15 is_stmt 1
	movq	-160(%rbp), %rdx
	xorl	%eax, %eax
	movl	$1, %ecx
	cmpq	$0, %rdx
	cmoveq	%rcx, %rax
	.loc	13 2091 9 is_stmt 0
	cmpq	$0, %rax
	jne	LBB17_8
	.loc	13 2092 16 is_stmt 1
	movq	-160(%rbp), %rax
	movq	%rax, -24(%rbp)
Ltmp104:
	.loc	13 2092 22 is_stmt 0
	movq	%rax, -168(%rbp)
Ltmp105:
	.loc	13 2092 45
	jmp	LBB17_9
LBB17_8:
Ltmp106:
	.loc	13 2093 23 is_stmt 1
	movq	$0, -168(%rbp)
Ltmp107:
LBB17_9:
	.loc	1 445 32
	movq	-168(%rbp), %rdx
	xorl	%eax, %eax
	movl	$1, %ecx
	cmpq	$0, %rdx
	cmoveq	%rcx, %rax
	cmpq	$0, %rax
	jne	LBB17_11
	.loc	1 0 32 is_stmt 0
	movq	-192(%rbp), %rsi
	movq	-200(%rbp), %rdi
	.loc	1 445 32
	movq	-168(%rbp), %rax
	movq	%rax, -16(%rbp)
Ltmp108:
	.loc	1 445 32
	movq	%rax, -8(%rbp)
Ltmp109:
	.loc	1 446 16 is_stmt 1
	movb	$0, -121(%rbp)
	movq	%rax, -136(%rbp)
	movq	-136(%rbp), %rdx
Ltmp97:
	callq	__ZN17crossbeam_channel5utils7shuffle28_$u7b$$u7b$closure$u7d$$u7d$17h7f43960950a1a886E
Ltmp98:
	jmp	LBB17_13
Ltmp110:
LBB17_11:
	.loc	13 2107 23
	movb	$1, -169(%rbp)
Ltmp111:
LBB17_12:
	.loc	1 448 6
	movb	-169(%rbp), %al
	andb	$1, %al
	movzbl	%al, %eax
	addq	$208, %rsp
	popq	%rbp
	retq
LBB17_13:
Ltmp112:
	.loc	1 446 13
	movb	$0, -169(%rbp)
Ltmp113:
	.loc	1 448 5
	jmp	LBB17_12
LBB17_14:
	.loc	1 440 5
	movq	-48(%rbp), %rdi
	callq	__Unwind_Resume
LBB17_15:
	.loc	1 448 5
	jmp	LBB17_14
Ltmp114:
Lfunc_end17:
	.cfi_endproc
	.section	__TEXT,__gcc_except_tab
	.p2align	2
GCC_except_table17:
Lexception4:
	.byte	255
	.byte	255
	.byte	1
	.uleb128 Lcst_end4-Lcst_begin4
Lcst_begin4:
	.uleb128 Ltmp95-Lfunc_begin17
	.uleb128 Ltmp98-Ltmp95
	.uleb128 Ltmp99-Lfunc_begin17
	.byte	0
	.uleb128 Ltmp98-Lfunc_begin17
	.uleb128 Lfunc_end17-Ltmp98
	.byte	0
	.byte	0
Lcst_end4:
	.p2align	2

	.section	__TEXT,__text,regular,pure_instructions
	.globl	__ZN3std6thread5local4fast12Key$LT$T$GT$14try_initialize17h66863b52fb37c42aE
	.p2align	4, 0x90
__ZN3std6thread5local4fast12Key$LT$T$GT$14try_initialize17h66863b52fb37c42aE:
Lfunc_begin18:
	.loc	1 983 0
	.cfi_startproc
	.cfi_personality 155, _rust_eh_personality
	.cfi_lsda 16, Lexception5
	pushq	%rbp
	.cfi_def_cfa_offset 16
	.cfi_offset %rbp, -16
	movq	%rsp, %rbp
	.cfi_def_cfa_register %rbp
	subq	$96, %rsp
	movq	%rdi, -80(%rbp)
	movq	%rsi, -72(%rbp)
	movq	%rdi, -40(%rbp)
	movq	%rsi, -32(%rbp)
Ltmp120:
	.loc	1 985 16 prologue_end
	movb	$1, -41(%rbp)
Ltmp121:
	.file	14 "/rustc/2c8cc343237b8f7d5a3c3703e3a87f2eb2c54a74/library/core/src/mem" "mod.rs"
	.loc	14 594 5
	movb	$1, -17(%rbp)
	movb	-17(%rbp), %al
	movb	%al, -57(%rbp)
Ltmp122:
	.loc	14 0 5 is_stmt 0
	movb	-57(%rbp), %al
	.loc	1 985 16 is_stmt 1
	xorb	$-1, %al
	testb	$1, %al
	jne	LBB18_3
Ltmp115:
	.loc	1 0 16 is_stmt 0
	movq	-80(%rbp), %rdi
	.loc	1 985 52
	callq	__ZN3std6thread5local4fast12Key$LT$T$GT$17try_register_dtor17h6905dcbe4eeb7b2cE
Ltmp116:
	movb	%al, -81(%rbp)
	jmp	LBB18_7
LBB18_3:
	.loc	1 985 16
	movb	$1, -42(%rbp)
LBB18_4:
	testb	$1, -42(%rbp)
	jne	LBB18_9
	jmp	LBB18_8
LBB18_5:
	.loc	1 991 9 is_stmt 1
	testb	$1, -41(%rbp)
	jne	LBB18_12
	jmp	LBB18_11
LBB18_6:
Ltmp119:
	.loc	1 0 9 is_stmt 0
	movq	%rax, %rcx
	movl	%edx, %eax
	movq	%rcx, -16(%rbp)
	movl	%eax, -8(%rbp)
	jmp	LBB18_5
LBB18_7:
	movb	-81(%rbp), %al
	.loc	1 985 16 is_stmt 1
	andb	$1, %al
	movb	%al, -42(%rbp)
	jmp	LBB18_4
LBB18_8:
	.loc	1 989 17
	movq	$0, -56(%rbp)
	.loc	1 985 13
	jmp	LBB18_13
LBB18_9:
	.loc	1 0 13 is_stmt 0
	movq	-72(%rbp), %rsi
	movq	-80(%rbp), %rdi
	.loc	1 987 53 is_stmt 1
	movb	$0, -41(%rbp)
Ltmp117:
	.loc	1 987 31 is_stmt 0
	callq	__ZN3std6thread5local4lazy21LazyKeyInner$LT$T$GT$10initialize17h65b2eea122e0a795E
Ltmp118:
	movq	%rax, -96(%rbp)
	jmp	LBB18_10
LBB18_10:
	.loc	1 0 31
	movq	-96(%rbp), %rax
	.loc	1 987 17
	movq	%rax, -56(%rbp)
	.loc	1 985 13 is_stmt 1
	jmp	LBB18_13
LBB18_11:
	.loc	1 983 9
	movq	-16(%rbp), %rdi
	callq	__Unwind_Resume
LBB18_12:
	.loc	1 991 9
	jmp	LBB18_11
LBB18_13:
	testb	$1, -41(%rbp)
	jne	LBB18_15
LBB18_14:
	.loc	1 991 10 is_stmt 0
	movq	-56(%rbp), %rax
	addq	$96, %rsp
	popq	%rbp
	retq
LBB18_15:
	.loc	1 991 9
	jmp	LBB18_14
Ltmp123:
Lfunc_end18:
	.cfi_endproc
	.section	__TEXT,__gcc_except_tab
	.p2align	2
GCC_except_table18:
Lexception5:
	.byte	255
	.byte	255
	.byte	1
	.uleb128 Lcst_end5-Lcst_begin5
Lcst_begin5:
	.uleb128 Ltmp115-Lfunc_begin18
	.uleb128 Ltmp118-Ltmp115
	.uleb128 Ltmp119-Lfunc_begin18
	.byte	0
	.uleb128 Ltmp118-Lfunc_begin18
	.uleb128 Lfunc_end18-Ltmp118
	.byte	0
	.byte	0
Lcst_end5:
	.p2align	2

	.section	__TEXT,__text,regular,pure_instructions
	.globl	__ZN3std6thread5local4fast12Key$LT$T$GT$14try_initialize17h9260380e9b92cba2E
	.p2align	4, 0x90
__ZN3std6thread5local4fast12Key$LT$T$GT$14try_initialize17h9260380e9b92cba2E:
Lfunc_begin19:
	.loc	1 983 0 is_stmt 1
	.cfi_startproc
	.cfi_personality 155, _rust_eh_personality
	.cfi_lsda 16, Lexception6
	pushq	%rbp
	.cfi_def_cfa_offset 16
	.cfi_offset %rbp, -16
	movq	%rsp, %rbp
	.cfi_def_cfa_register %rbp
	subq	$96, %rsp
	movq	%rdi, -80(%rbp)
	movq	%rsi, -72(%rbp)
	movq	%rdi, -40(%rbp)
	movq	%rsi, -32(%rbp)
Ltmp129:
	.loc	1 985 16 prologue_end
	movb	$1, -41(%rbp)
Ltmp130:
	.loc	14 594 5
	movb	$0, -17(%rbp)
	movb	-17(%rbp), %al
	movb	%al, -57(%rbp)
Ltmp131:
	.loc	14 0 5 is_stmt 0
	movb	-57(%rbp), %al
	.loc	1 985 16 is_stmt 1
	xorb	$-1, %al
	testb	$1, %al
	jne	LBB19_3
Ltmp124:
	.loc	1 0 16 is_stmt 0
	movq	-80(%rbp), %rdi
	.loc	1 985 52
	callq	__ZN3std6thread5local4fast12Key$LT$T$GT$17try_register_dtor17he6f15dc8395b28b6E
Ltmp125:
	movb	%al, -81(%rbp)
	jmp	LBB19_7
LBB19_3:
	.loc	1 985 16
	movb	$1, -42(%rbp)
LBB19_4:
	testb	$1, -42(%rbp)
	jne	LBB19_9
	jmp	LBB19_8
LBB19_5:
	.loc	1 991 9 is_stmt 1
	testb	$1, -41(%rbp)
	jne	LBB19_12
	jmp	LBB19_11
LBB19_6:
Ltmp128:
	.loc	1 0 9 is_stmt 0
	movq	%rax, %rcx
	movl	%edx, %eax
	movq	%rcx, -16(%rbp)
	movl	%eax, -8(%rbp)
	jmp	LBB19_5
LBB19_7:
	movb	-81(%rbp), %al
	.loc	1 985 16 is_stmt 1
	andb	$1, %al
	movb	%al, -42(%rbp)
	jmp	LBB19_4
LBB19_8:
	.loc	1 989 17
	movq	$0, -56(%rbp)
	.loc	1 985 13
	jmp	LBB19_13
LBB19_9:
	.loc	1 0 13 is_stmt 0
	movq	-72(%rbp), %rsi
	movq	-80(%rbp), %rdi
	.loc	1 987 53 is_stmt 1
	movb	$0, -41(%rbp)
Ltmp126:
	.loc	1 987 31 is_stmt 0
	callq	__ZN3std6thread5local4lazy21LazyKeyInner$LT$T$GT$10initialize17hb998a1146ee1d9e6E
Ltmp127:
	movq	%rax, -96(%rbp)
	jmp	LBB19_10
LBB19_10:
	.loc	1 0 31
	movq	-96(%rbp), %rax
	.loc	1 987 17
	movq	%rax, -56(%rbp)
	.loc	1 985 13 is_stmt 1
	jmp	LBB19_13
LBB19_11:
	.loc	1 983 9
	movq	-16(%rbp), %rdi
	callq	__Unwind_Resume
LBB19_12:
	.loc	1 991 9
	jmp	LBB19_11
LBB19_13:
	testb	$1, -41(%rbp)
	jne	LBB19_15
LBB19_14:
	.loc	1 991 10 is_stmt 0
	movq	-56(%rbp), %rax
	addq	$96, %rsp
	popq	%rbp
	retq
LBB19_15:
	.loc	1 991 9
	jmp	LBB19_14
Ltmp132:
Lfunc_end19:
	.cfi_endproc
	.section	__TEXT,__gcc_except_tab
	.p2align	2
GCC_except_table19:
Lexception6:
	.byte	255
	.byte	255
	.byte	1
	.uleb128 Lcst_end6-Lcst_begin6
Lcst_begin6:
	.uleb128 Ltmp124-Lfunc_begin19
	.uleb128 Ltmp127-Ltmp124
	.uleb128 Ltmp128-Lfunc_begin19
	.byte	0
	.uleb128 Ltmp127-Lfunc_begin19
	.uleb128 Lfunc_end19-Ltmp127
	.byte	0
	.byte	0
Lcst_end6:
	.p2align	2

	.section	__TEXT,__text,regular,pure_instructions
	.globl	__ZN3std6thread5local4fast12Key$LT$T$GT$14try_initialize17hbf4f88685372703fE
	.p2align	4, 0x90
__ZN3std6thread5local4fast12Key$LT$T$GT$14try_initialize17hbf4f88685372703fE:
Lfunc_begin20:
	.loc	1 983 0 is_stmt 1
	.cfi_startproc
	.cfi_personality 155, _rust_eh_personality
	.cfi_lsda 16, Lexception7
	pushq	%rbp
	.cfi_def_cfa_offset 16
	.cfi_offset %rbp, -16
	movq	%rsp, %rbp
	.cfi_def_cfa_register %rbp
	subq	$96, %rsp
	movq	%rdi, -80(%rbp)
	movq	%rsi, -72(%rbp)
	movq	%rdi, -40(%rbp)
	movq	%rsi, -32(%rbp)
Ltmp138:
	.loc	1 985 16 prologue_end
	movb	$1, -41(%rbp)
Ltmp139:
	.loc	14 594 5
	movb	$0, -17(%rbp)
	movb	-17(%rbp), %al
	movb	%al, -57(%rbp)
Ltmp140:
	.loc	14 0 5 is_stmt 0
	movb	-57(%rbp), %al
	.loc	1 985 16 is_stmt 1
	xorb	$-1, %al
	testb	$1, %al
	jne	LBB20_3
Ltmp133:
	.loc	1 0 16 is_stmt 0
	movq	-80(%rbp), %rdi
	.loc	1 985 52
	callq	__ZN3std6thread5local4fast12Key$LT$T$GT$17try_register_dtor17h568640e72f1cb070E
Ltmp134:
	movb	%al, -81(%rbp)
	jmp	LBB20_7
LBB20_3:
	.loc	1 985 16
	movb	$1, -42(%rbp)
LBB20_4:
	testb	$1, -42(%rbp)
	jne	LBB20_9
	jmp	LBB20_8
LBB20_5:
	.loc	1 991 9 is_stmt 1
	testb	$1, -41(%rbp)
	jne	LBB20_12
	jmp	LBB20_11
LBB20_6:
Ltmp137:
	.loc	1 0 9 is_stmt 0
	movq	%rax, %rcx
	movl	%edx, %eax
	movq	%rcx, -16(%rbp)
	movl	%eax, -8(%rbp)
	jmp	LBB20_5
LBB20_7:
	movb	-81(%rbp), %al
	.loc	1 985 16 is_stmt 1
	andb	$1, %al
	movb	%al, -42(%rbp)
	jmp	LBB20_4
LBB20_8:
	.loc	1 989 17
	movq	$0, -56(%rbp)
	.loc	1 985 13
	jmp	LBB20_13
LBB20_9:
	.loc	1 0 13 is_stmt 0
	movq	-72(%rbp), %rsi
	movq	-80(%rbp), %rdi
	.loc	1 987 53 is_stmt 1
	movb	$0, -41(%rbp)
Ltmp135:
	.loc	1 987 31 is_stmt 0
	callq	__ZN3std6thread5local4lazy21LazyKeyInner$LT$T$GT$10initialize17h3d227501b29e9ebcE
Ltmp136:
	movq	%rax, -96(%rbp)
	jmp	LBB20_10
LBB20_10:
	.loc	1 0 31
	movq	-96(%rbp), %rax
	.loc	1 987 17
	movq	%rax, -56(%rbp)
	.loc	1 985 13 is_stmt 1
	jmp	LBB20_13
LBB20_11:
	.loc	1 983 9
	movq	-16(%rbp), %rdi
	callq	__Unwind_Resume
LBB20_12:
	.loc	1 991 9
	jmp	LBB20_11
LBB20_13:
	testb	$1, -41(%rbp)
	jne	LBB20_15
LBB20_14:
	.loc	1 991 10 is_stmt 0
	movq	-56(%rbp), %rax
	addq	$96, %rsp
	popq	%rbp
	retq
LBB20_15:
	.loc	1 991 9
	jmp	LBB20_14
Ltmp141:
Lfunc_end20:
	.cfi_endproc
	.section	__TEXT,__gcc_except_tab
	.p2align	2
GCC_except_table20:
Lexception7:
	.byte	255
	.byte	255
	.byte	1
	.uleb128 Lcst_end7-Lcst_begin7
Lcst_begin7:
	.uleb128 Ltmp133-Lfunc_begin20
	.uleb128 Ltmp136-Ltmp133
	.uleb128 Ltmp137-Lfunc_begin20
	.byte	0
	.uleb128 Ltmp136-Lfunc_begin20
	.uleb128 Lfunc_end20-Ltmp136
	.byte	0
	.byte	0
Lcst_end7:
	.p2align	2

	.section	__TEXT,__text,regular,pure_instructions
	.globl	__ZN3std6thread5local4fast12Key$LT$T$GT$17try_register_dtor17h568640e72f1cb070E
	.p2align	4, 0x90
__ZN3std6thread5local4fast12Key$LT$T$GT$17try_register_dtor17h568640e72f1cb070E:
Lfunc_begin21:
	.loc	1 996 0 is_stmt 1
	.cfi_startproc
	pushq	%rbp
	.cfi_def_cfa_offset 16
	.cfi_offset %rbp, -16
	movq	%rsp, %rbp
	.cfi_def_cfa_register %rbp
	subq	$64, %rsp
	movq	%rdi, -64(%rbp)
	movq	%rdi, -40(%rbp)
Ltmp142:
	.loc	1 997 19 prologue_end
	movq	%rdi, %rax
	addq	$8, %rax
	movq	%rax, -32(%rbp)
Ltmp143:
	.loc	9 452 19
	movq	%rax, -24(%rbp)
	.loc	9 452 18 is_stmt 0
	movb	8(%rdi), %al
	movb	%al, -41(%rbp)
Ltmp144:
	.loc	1 997 19 is_stmt 1
	movzbl	-41(%rbp), %eax
	movq	%rax, -56(%rbp)
	testq	%rax, %rax
	.loc	1 997 13 is_stmt 0
	je	LBB21_2
	jmp	LBB21_6
LBB21_6:
	.loc	1 0 13
	movq	-56(%rbp), %rax
	.loc	1 997 13
	subq	$1, %rax
	je	LBB21_3
	jmp	LBB21_7
LBB21_7:
	jmp	LBB21_4
	.loc	1 997 19
	ud2
LBB21_2:
	.loc	1 0 19
	movq	-64(%rbp), %rdi
	.loc	1 1004 30 is_stmt 1
	leaq	__ZN3std6thread5local4fast13destroy_value17hd0c067835f462e8aE(%rip), %rsi
	callq	__ZN3std3sys4unix17thread_local_dtor13register_dtor17hd1117fc09d525c5dE
	movq	-64(%rbp), %rdi
	.loc	1 1005 21
	addq	$8, %rdi
	movq	%rdi, -16(%rbp)
Ltmp145:
	.loc	9 363 19
	movl	$1, %esi
	callq	__ZN4core4cell13Cell$LT$T$GT$7replace17hd5fca225e5dab8dcE
	movb	%al, -1(%rbp)
Ltmp146:
	.loc	1 1006 21
	movb	$1, -42(%rbp)
	jmp	LBB21_5
LBB21_3:
	.loc	1 1010 21
	movb	$1, -42(%rbp)
	jmp	LBB21_5
LBB21_4:
	.loc	1 1012 47
	movb	$0, -42(%rbp)
LBB21_5:
	.loc	1 1014 10
	movb	-42(%rbp), %al
	andb	$1, %al
	movzbl	%al, %eax
	addq	$64, %rsp
	popq	%rbp
	retq
Ltmp147:
Lfunc_end21:
	.cfi_endproc

	.globl	__ZN3std6thread5local4fast12Key$LT$T$GT$17try_register_dtor17h6905dcbe4eeb7b2cE
	.p2align	4, 0x90
__ZN3std6thread5local4fast12Key$LT$T$GT$17try_register_dtor17h6905dcbe4eeb7b2cE:
Lfunc_begin22:
	.loc	1 996 0
	.cfi_startproc
	pushq	%rbp
	.cfi_def_cfa_offset 16
	.cfi_offset %rbp, -16
	movq	%rsp, %rbp
	.cfi_def_cfa_register %rbp
	subq	$64, %rsp
	movq	%rdi, -64(%rbp)
	movq	%rdi, -40(%rbp)
Ltmp148:
	.loc	1 997 19 prologue_end
	movq	%rdi, %rax
	addq	$16, %rax
	movq	%rax, -32(%rbp)
Ltmp149:
	.loc	9 452 19
	movq	%rax, -24(%rbp)
	.loc	9 452 18 is_stmt 0
	movb	16(%rdi), %al
	movb	%al, -41(%rbp)
Ltmp150:
	.loc	1 997 19 is_stmt 1
	movzbl	-41(%rbp), %eax
	movq	%rax, -56(%rbp)
	testq	%rax, %rax
	.loc	1 997 13 is_stmt 0
	je	LBB22_2
	jmp	LBB22_6
LBB22_6:
	.loc	1 0 13
	movq	-56(%rbp), %rax
	.loc	1 997 13
	subq	$1, %rax
	je	LBB22_3
	jmp	LBB22_7
LBB22_7:
	jmp	LBB22_4
	.loc	1 997 19
	ud2
LBB22_2:
	.loc	1 0 19
	movq	-64(%rbp), %rdi
	.loc	1 1004 30 is_stmt 1
	leaq	__ZN3std6thread5local4fast13destroy_value17hc551437dcca1157dE(%rip), %rsi
	callq	__ZN3std3sys4unix17thread_local_dtor13register_dtor17hd1117fc09d525c5dE
	movq	-64(%rbp), %rdi
	.loc	1 1005 21
	addq	$16, %rdi
	movq	%rdi, -16(%rbp)
Ltmp151:
	.loc	9 363 19
	movl	$1, %esi
	callq	__ZN4core4cell13Cell$LT$T$GT$7replace17hd5fca225e5dab8dcE
	movb	%al, -1(%rbp)
Ltmp152:
	.loc	1 1006 21
	movb	$1, -42(%rbp)
	jmp	LBB22_5
LBB22_3:
	.loc	1 1010 21
	movb	$1, -42(%rbp)
	jmp	LBB22_5
LBB22_4:
	.loc	1 1012 47
	movb	$0, -42(%rbp)
LBB22_5:
	.loc	1 1014 10
	movb	-42(%rbp), %al
	andb	$1, %al
	movzbl	%al, %eax
	addq	$64, %rsp
	popq	%rbp
	retq
Ltmp153:
Lfunc_end22:
	.cfi_endproc

	.globl	__ZN3std6thread5local4fast12Key$LT$T$GT$17try_register_dtor17he6f15dc8395b28b6E
	.p2align	4, 0x90
__ZN3std6thread5local4fast12Key$LT$T$GT$17try_register_dtor17he6f15dc8395b28b6E:
Lfunc_begin23:
	.loc	1 996 0
	.cfi_startproc
	pushq	%rbp
	.cfi_def_cfa_offset 16
	.cfi_offset %rbp, -16
	movq	%rsp, %rbp
	.cfi_def_cfa_register %rbp
	subq	$64, %rsp
	movq	%rdi, -64(%rbp)
	movq	%rdi, -40(%rbp)
Ltmp154:
	.loc	1 997 19 prologue_end
	movq	%rdi, %rax
	addq	$8, %rax
	movq	%rax, -32(%rbp)
Ltmp155:
	.loc	9 452 19
	movq	%rax, -24(%rbp)
	.loc	9 452 18 is_stmt 0
	movb	8(%rdi), %al
	movb	%al, -41(%rbp)
Ltmp156:
	.loc	1 997 19 is_stmt 1
	movzbl	-41(%rbp), %eax
	movq	%rax, -56(%rbp)
	testq	%rax, %rax
	.loc	1 997 13 is_stmt 0
	je	LBB23_2
	jmp	LBB23_6
LBB23_6:
	.loc	1 0 13
	movq	-56(%rbp), %rax
	.loc	1 997 13
	subq	$1, %rax
	je	LBB23_3
	jmp	LBB23_7
LBB23_7:
	jmp	LBB23_4
	.loc	1 997 19
	ud2
LBB23_2:
	.loc	1 0 19
	movq	-64(%rbp), %rdi
	.loc	1 1004 30 is_stmt 1
	leaq	__ZN3std6thread5local4fast13destroy_value17he74986efb3115daeE(%rip), %rsi
	callq	__ZN3std3sys4unix17thread_local_dtor13register_dtor17hd1117fc09d525c5dE
	movq	-64(%rbp), %rdi
	.loc	1 1005 21
	addq	$8, %rdi
	movq	%rdi, -16(%rbp)
Ltmp157:
	.loc	9 363 19
	movl	$1, %esi
	callq	__ZN4core4cell13Cell$LT$T$GT$7replace17hd5fca225e5dab8dcE
	movb	%al, -1(%rbp)
Ltmp158:
	.loc	1 1006 21
	movb	$1, -42(%rbp)
	jmp	LBB23_5
LBB23_3:
	.loc	1 1010 21
	movb	$1, -42(%rbp)
	jmp	LBB23_5
LBB23_4:
	.loc	1 1012 47
	movb	$0, -42(%rbp)
LBB23_5:
	.loc	1 1014 10
	movb	-42(%rbp), %al
	andb	$1, %al
	movzbl	%al, %eax
	addq	$64, %rsp
	popq	%rbp
	retq
Ltmp159:
Lfunc_end23:
	.cfi_endproc

	.globl	__ZN3std6thread5local4fast12Key$LT$T$GT$3get17h3425edcba687f1daE
	.p2align	4, 0x90
__ZN3std6thread5local4fast12Key$LT$T$GT$3get17h3425edcba687f1daE:
Lfunc_begin24:
	.loc	1 959 0
	.cfi_startproc
	.cfi_personality 155, _rust_eh_personality
	.cfi_lsda 16, Lexception8
	pushq	%rbp
	.cfi_def_cfa_offset 16
	.cfi_offset %rbp, -16
	movq	%rsp, %rbp
	.cfi_def_cfa_register %rbp
	subq	$96, %rsp
	movq	%rdi, -88(%rbp)
	movq	%rsi, -80(%rbp)
	movq	%rdi, -40(%rbp)
	movq	%rsi, -32(%rbp)
Ltmp165:
	.loc	1 968 23 prologue_end
	movb	$1, -41(%rbp)
Ltmp160:
	callq	__ZN3std6thread5local4lazy21LazyKeyInner$LT$T$GT$3get17hf620161e5e7a5cf7E
Ltmp161:
	movq	%rax, -72(%rbp)
	jmp	LBB24_3
LBB24_1:
	.loc	1 973 9
	testb	$1, -41(%rbp)
	jne	LBB24_9
	jmp	LBB24_8
LBB24_2:
Ltmp164:
	.loc	1 0 9 is_stmt 0
	movq	%rax, %rcx
	movl	%edx, %eax
	movq	%rcx, -24(%rbp)
	movl	%eax, -16(%rbp)
	jmp	LBB24_1
LBB24_3:
	movq	-72(%rbp), %rax
	.loc	1 968 23 is_stmt 1
	movq	%rax, -56(%rbp)
	movq	-56(%rbp), %rdx
	movl	$1, %eax
	xorl	%ecx, %ecx
	cmpq	$0, %rdx
	cmoveq	%rcx, %rax
	.loc	1 968 17 is_stmt 0
	cmpq	$0, %rax
	jne	LBB24_5
	.loc	1 0 17
	movq	-80(%rbp), %rsi
	movq	-88(%rbp), %rdi
	.loc	1 970 49 is_stmt 1
	movb	$0, -41(%rbp)
Ltmp162:
	.loc	1 970 29 is_stmt 0
	callq	__ZN3std6thread5local4fast12Key$LT$T$GT$14try_initialize17h9260380e9b92cba2E
Ltmp163:
	movq	%rax, -96(%rbp)
	jmp	LBB24_7
LBB24_5:
	.loc	1 969 26 is_stmt 1
	movq	-56(%rbp), %rax
	movq	%rax, -8(%rbp)
Ltmp166:
	.loc	1 969 34 is_stmt 0
	movq	%rax, -64(%rbp)
Ltmp167:
LBB24_6:
	.loc	1 973 9 is_stmt 1
	testb	$1, -41(%rbp)
	jne	LBB24_11
	jmp	LBB24_10
LBB24_7:
	.loc	1 0 9 is_stmt 0
	movq	-96(%rbp), %rax
	.loc	1 970 29 is_stmt 1
	movq	%rax, -64(%rbp)
	.loc	1 970 53 is_stmt 0
	jmp	LBB24_6
LBB24_8:
	.loc	1 959 9 is_stmt 1
	movq	-24(%rbp), %rdi
	callq	__Unwind_Resume
LBB24_9:
	.loc	1 973 9
	jmp	LBB24_8
LBB24_10:
	.loc	1 973 10 is_stmt 0
	movq	-64(%rbp), %rax
	addq	$96, %rsp
	popq	%rbp
	retq
LBB24_11:
	.loc	1 973 9
	jmp	LBB24_10
Ltmp168:
Lfunc_end24:
	.cfi_endproc
	.section	__TEXT,__gcc_except_tab
	.p2align	2
GCC_except_table24:
Lexception8:
	.byte	255
	.byte	255
	.byte	1
	.uleb128 Lcst_end8-Lcst_begin8
Lcst_begin8:
	.uleb128 Ltmp160-Lfunc_begin24
	.uleb128 Ltmp163-Ltmp160
	.uleb128 Ltmp164-Lfunc_begin24
	.byte	0
	.uleb128 Ltmp163-Lfunc_begin24
	.uleb128 Lfunc_end24-Ltmp163
	.byte	0
	.byte	0
Lcst_end8:
	.p2align	2

	.section	__TEXT,__text,regular,pure_instructions
	.globl	__ZN3std6thread5local4fast12Key$LT$T$GT$3get17h47057c39e9766fecE
	.p2align	4, 0x90
__ZN3std6thread5local4fast12Key$LT$T$GT$3get17h47057c39e9766fecE:
Lfunc_begin25:
	.loc	1 959 0 is_stmt 1
	.cfi_startproc
	.cfi_personality 155, _rust_eh_personality
	.cfi_lsda 16, Lexception9
	pushq	%rbp
	.cfi_def_cfa_offset 16
	.cfi_offset %rbp, -16
	movq	%rsp, %rbp
	.cfi_def_cfa_register %rbp
	subq	$96, %rsp
	movq	%rdi, -88(%rbp)
	movq	%rsi, -80(%rbp)
	movq	%rdi, -40(%rbp)
	movq	%rsi, -32(%rbp)
Ltmp174:
	.loc	1 968 23 prologue_end
	movb	$1, -41(%rbp)
Ltmp169:
	callq	__ZN3std6thread5local4lazy21LazyKeyInner$LT$T$GT$3get17hee62bf8806c5cb45E
Ltmp170:
	movq	%rax, -72(%rbp)
	jmp	LBB25_3
LBB25_1:
	.loc	1 973 9
	testb	$1, -41(%rbp)
	jne	LBB25_9
	jmp	LBB25_8
LBB25_2:
Ltmp173:
	.loc	1 0 9 is_stmt 0
	movq	%rax, %rcx
	movl	%edx, %eax
	movq	%rcx, -24(%rbp)
	movl	%eax, -16(%rbp)
	jmp	LBB25_1
LBB25_3:
	movq	-72(%rbp), %rax
	.loc	1 968 23 is_stmt 1
	movq	%rax, -56(%rbp)
	movq	-56(%rbp), %rdx
	movl	$1, %eax
	xorl	%ecx, %ecx
	cmpq	$0, %rdx
	cmoveq	%rcx, %rax
	.loc	1 968 17 is_stmt 0
	cmpq	$0, %rax
	jne	LBB25_5
	.loc	1 0 17
	movq	-80(%rbp), %rsi
	movq	-88(%rbp), %rdi
	.loc	1 970 49 is_stmt 1
	movb	$0, -41(%rbp)
Ltmp171:
	.loc	1 970 29 is_stmt 0
	callq	__ZN3std6thread5local4fast12Key$LT$T$GT$14try_initialize17h66863b52fb37c42aE
Ltmp172:
	movq	%rax, -96(%rbp)
	jmp	LBB25_7
LBB25_5:
	.loc	1 969 26 is_stmt 1
	movq	-56(%rbp), %rax
	movq	%rax, -8(%rbp)
Ltmp175:
	.loc	1 969 34 is_stmt 0
	movq	%rax, -64(%rbp)
Ltmp176:
LBB25_6:
	.loc	1 973 9 is_stmt 1
	testb	$1, -41(%rbp)
	jne	LBB25_11
	jmp	LBB25_10
LBB25_7:
	.loc	1 0 9 is_stmt 0
	movq	-96(%rbp), %rax
	.loc	1 970 29 is_stmt 1
	movq	%rax, -64(%rbp)
	.loc	1 970 53 is_stmt 0
	jmp	LBB25_6
LBB25_8:
	.loc	1 959 9 is_stmt 1
	movq	-24(%rbp), %rdi
	callq	__Unwind_Resume
LBB25_9:
	.loc	1 973 9
	jmp	LBB25_8
LBB25_10:
	.loc	1 973 10 is_stmt 0
	movq	-64(%rbp), %rax
	addq	$96, %rsp
	popq	%rbp
	retq
LBB25_11:
	.loc	1 973 9
	jmp	LBB25_10
Ltmp177:
Lfunc_end25:
	.cfi_endproc
	.section	__TEXT,__gcc_except_tab
	.p2align	2
GCC_except_table25:
Lexception9:
	.byte	255
	.byte	255
	.byte	1
	.uleb128 Lcst_end9-Lcst_begin9
Lcst_begin9:
	.uleb128 Ltmp169-Lfunc_begin25
	.uleb128 Ltmp172-Ltmp169
	.uleb128 Ltmp173-Lfunc_begin25
	.byte	0
	.uleb128 Ltmp172-Lfunc_begin25
	.uleb128 Lfunc_end25-Ltmp172
	.byte	0
	.byte	0
Lcst_end9:
	.p2align	2

	.section	__TEXT,__text,regular,pure_instructions
	.globl	__ZN3std6thread5local4fast12Key$LT$T$GT$3get17ha7ab18655395c263E
	.p2align	4, 0x90
__ZN3std6thread5local4fast12Key$LT$T$GT$3get17ha7ab18655395c263E:
Lfunc_begin26:
	.loc	1 959 0 is_stmt 1
	.cfi_startproc
	.cfi_personality 155, _rust_eh_personality
	.cfi_lsda 16, Lexception10
	pushq	%rbp
	.cfi_def_cfa_offset 16
	.cfi_offset %rbp, -16
	movq	%rsp, %rbp
	.cfi_def_cfa_register %rbp
	subq	$96, %rsp
	movq	%rdi, -88(%rbp)
	movq	%rsi, -80(%rbp)
	movq	%rdi, -40(%rbp)
	movq	%rsi, -32(%rbp)
Ltmp183:
	.loc	1 968 23 prologue_end
	movb	$1, -41(%rbp)
Ltmp178:
	callq	__ZN3std6thread5local4lazy21LazyKeyInner$LT$T$GT$3get17hc7e7446055b57e75E
Ltmp179:
	movq	%rax, -72(%rbp)
	jmp	LBB26_3
LBB26_1:
	.loc	1 973 9
	testb	$1, -41(%rbp)
	jne	LBB26_9
	jmp	LBB26_8
LBB26_2:
Ltmp182:
	.loc	1 0 9 is_stmt 0
	movq	%rax, %rcx
	movl	%edx, %eax
	movq	%rcx, -24(%rbp)
	movl	%eax, -16(%rbp)
	jmp	LBB26_1
LBB26_3:
	movq	-72(%rbp), %rax
	.loc	1 968 23 is_stmt 1
	movq	%rax, -56(%rbp)
	movq	-56(%rbp), %rdx
	movl	$1, %eax
	xorl	%ecx, %ecx
	cmpq	$0, %rdx
	cmoveq	%rcx, %rax
	.loc	1 968 17 is_stmt 0
	cmpq	$0, %rax
	jne	LBB26_5
	.loc	1 0 17
	movq	-80(%rbp), %rsi
	movq	-88(%rbp), %rdi
	.loc	1 970 49 is_stmt 1
	movb	$0, -41(%rbp)
Ltmp180:
	.loc	1 970 29 is_stmt 0
	callq	__ZN3std6thread5local4fast12Key$LT$T$GT$14try_initialize17hbf4f88685372703fE
Ltmp181:
	movq	%rax, -96(%rbp)
	jmp	LBB26_7
LBB26_5:
	.loc	1 969 26 is_stmt 1
	movq	-56(%rbp), %rax
	movq	%rax, -8(%rbp)
Ltmp184:
	.loc	1 969 34 is_stmt 0
	movq	%rax, -64(%rbp)
Ltmp185:
LBB26_6:
	.loc	1 973 9 is_stmt 1
	testb	$1, -41(%rbp)
	jne	LBB26_11
	jmp	LBB26_10
LBB26_7:
	.loc	1 0 9 is_stmt 0
	movq	-96(%rbp), %rax
	.loc	1 970 29 is_stmt 1
	movq	%rax, -64(%rbp)
	.loc	1 970 53 is_stmt 0
	jmp	LBB26_6
LBB26_8:
	.loc	1 959 9 is_stmt 1
	movq	-24(%rbp), %rdi
	callq	__Unwind_Resume
LBB26_9:
	.loc	1 973 9
	jmp	LBB26_8
LBB26_10:
	.loc	1 973 10 is_stmt 0
	movq	-64(%rbp), %rax
	addq	$96, %rsp
	popq	%rbp
	retq
LBB26_11:
	.loc	1 973 9
	jmp	LBB26_10
Ltmp186:
Lfunc_end26:
	.cfi_endproc
	.section	__TEXT,__gcc_except_tab
	.p2align	2
GCC_except_table26:
Lexception10:
	.byte	255
	.byte	255
	.byte	1
	.uleb128 Lcst_end10-Lcst_begin10
Lcst_begin10:
	.uleb128 Ltmp178-Lfunc_begin26
	.uleb128 Ltmp181-Ltmp178
	.uleb128 Ltmp182-Lfunc_begin26
	.byte	0
	.uleb128 Ltmp181-Lfunc_begin26
	.uleb128 Lfunc_end26-Ltmp181
	.byte	0
	.byte	0
Lcst_end10:
	.p2align	2

	.section	__TEXT,__text,regular,pure_instructions
	.globl	__ZN3std6thread5local4fast13destroy_value17hc551437dcca1157dE
	.p2align	4, 0x90
__ZN3std6thread5local4fast13destroy_value17hc551437dcca1157dE:
Lfunc_begin27:
	.loc	1 1017 0 is_stmt 1
	.cfi_startproc
	.cfi_personality 155, _rust_eh_personality
	.cfi_lsda 16, Lexception11
	pushq	%rbp
	.cfi_def_cfa_offset 16
	.cfi_offset %rbp, -16
	movq	%rsp, %rbp
	.cfi_def_cfa_register %rbp
	subq	$304, %rsp
	movq	%rdi, -64(%rbp)
Ltmp204:
	.loc	1 1018 19 prologue_end
	movq	%rdi, -256(%rbp)
	leaq	-256(%rbp), %rax
Ltmp205:
	.loc	1 1033 69
	movq	%rax, -224(%rbp)
	.loc	1 1033 45 is_stmt 0
	movq	-224(%rbp), %rax
	movq	%rax, -232(%rbp)
	.loc	1 1033 25
	movq	-232(%rbp), %rdi
Ltmp187:
	callq	__ZN3std5panic12catch_unwind17had54e856a09c4d9dE
Ltmp188:
	movq	%rdx, -272(%rbp)
	movq	%rax, -264(%rbp)
	jmp	LBB27_3
Ltmp206:
LBB27_1:
	.loc	1 1017 5 is_stmt 1
	callq	__ZN4core9panicking19panic_cannot_unwind17h1fbca7e1d7f56ae1E
LBB27_2:
Ltmp203:
	.loc	1 0 5 is_stmt 0
	movq	%rax, %rcx
	movl	%edx, %eax
	movq	%rcx, -56(%rbp)
	movl	%eax, -48(%rbp)
	jmp	LBB27_1
LBB27_3:
	movq	-272(%rbp), %rax
	movq	-264(%rbp), %rcx
Ltmp207:
	.loc	1 1033 25 is_stmt 1
	movq	%rcx, -248(%rbp)
	movq	%rax, -240(%rbp)
	.loc	1 1033 16 is_stmt 0
	movq	-248(%rbp), %rdx
	movl	$1, %eax
	xorl	%ecx, %ecx
	cmpq	$0, %rdx
	cmoveq	%rcx, %rax
	cmpq	$1, %rax
	jne	LBB27_5
Ltmp191:
Ltmp208:
	.loc	1 1038 13 is_stmt 1
	callq	__ZN3std3sys4unix5stdio12panic_output17hbdb9d595bb134988E
Ltmp192:
	movb	%al, -273(%rbp)
	jmp	LBB27_7
Ltmp209:
LBB27_5:
Ltmp189:
	.loc	1 0 13 is_stmt 0
	leaq	-248(%rbp), %rdi
	.loc	1 1040 5 is_stmt 1
	callq	__ZN4core3ptr130drop_in_place$LT$core..result..Result$LT$$LP$$RP$$C$alloc..boxed..Box$LT$dyn$u20$core..any..Any$u2b$core..marker..Send$GT$$GT$$GT$17hb84537f3b296a86dE
Ltmp190:
	jmp	LBB27_6
LBB27_6:
	.loc	1 1040 6 is_stmt 0
	addq	$304, %rsp
	popq	%rbp
	retq
LBB27_7:
	.loc	1 0 6
	movb	-273(%rbp), %al
Ltmp210:
	.loc	1 1038 13 is_stmt 1
	andb	$1, %al
	movb	%al, -209(%rbp)
	movb	-209(%rbp), %al
	andb	$1, %al
	movzbl	%al, %eax
	cmpq	$1, %rax
	jne	LBB27_9
Ltmp193:
	leaq	l___unnamed_19(%rip), %rsi
	leaq	l___unnamed_20(%rip), %rcx
	xorl	%eax, %eax
	movl	%eax, %r8d
	leaq	-112(%rbp), %rdi
	movl	$1, %edx
	callq	__ZN4core3fmt9Arguments6new_v117h238fe69b765e2985E
Ltmp194:
	jmp	LBB27_10
Ltmp211:
LBB27_9:
Ltmp201:
	.loc	1 1038 13 is_stmt 0
	callq	__ZN3std3sys4unix14abort_internal17h2d537589b8bbc756E
Ltmp202:
	jmp	LBB27_16
LBB27_10:
Ltmp212:
	.loc	1 1038 13
	leaq	-112(%rbp), %rax
	movq	%rax, -40(%rbp)
Ltmp213:
	.file	15 "/rustc/2c8cc343237b8f7d5a3c3703e3a87f2eb2c54a74/library/core/src/fmt" "mod.rs"
	.loc	15 328 23 is_stmt 1
	leaq	-112(%rbp), %rax
	movq	%rax, -32(%rbp)
	.loc	15 328 26 is_stmt 0
	movq	__ZN59_$LT$core..fmt..Arguments$u20$as$u20$core..fmt..Display$GT$3fmt17h99a13c0e04235e08E@GOTPCREL(%rip), %rax
	movq	%rax, -24(%rbp)
Ltmp214:
	.loc	15 347 42 is_stmt 1
	movq	__ZN59_$LT$core..fmt..Arguments$u20$as$u20$core..fmt..Display$GT$3fmt17h99a13c0e04235e08E@GOTPCREL(%rip), %rax
	movq	%rax, -16(%rbp)
	movq	-16(%rbp), %rax
	movq	%rax, -288(%rbp)
	.loc	15 347 68 is_stmt 0
	leaq	-112(%rbp), %rax
	movq	%rax, -8(%rbp)
	movq	-8(%rbp), %rax
	movq	%rax, -296(%rbp)
	.loc	15 0 68
	movq	-288(%rbp), %rax
	movq	-296(%rbp), %rcx
	.loc	15 347 18
	movq	%rcx, -128(%rbp)
	movq	%rax, -120(%rbp)
Ltmp215:
	.loc	1 1038 13 is_stmt 1
	movq	-128(%rbp), %rcx
	movq	-120(%rbp), %rax
	movq	%rcx, -144(%rbp)
	movq	%rax, -136(%rbp)
Ltmp195:
	leaq	l___unnamed_21(%rip), %rsi
	leaq	-192(%rbp), %rdi
	movl	$2, %edx
	leaq	-144(%rbp), %rcx
	movl	$1, %r8d
	callq	__ZN4core3fmt9Arguments6new_v117h238fe69b765e2985E
Ltmp196:
	jmp	LBB27_13
LBB27_13:
Ltmp197:
	.loc	1 0 13 is_stmt 0
	leaq	-208(%rbp), %rdi
	leaq	-192(%rbp), %rsi
	.loc	1 1038 13
	callq	__ZN3std2io5Write9write_fmt17h32f55008490ae4b8E
Ltmp198:
	movq	%rax, -304(%rbp)
	jmp	LBB27_14
LBB27_14:
	.loc	1 0 13
	movq	-304(%rbp), %rax
	.loc	1 1038 13
	movq	%rax, -200(%rbp)
Ltmp199:
	leaq	-200(%rbp), %rdi
	callq	__ZN4core3ptr81drop_in_place$LT$core..result..Result$LT$$LP$$RP$$C$std..io..error..Error$GT$$GT$17hc4d2f216abb9d096E
Ltmp200:
	jmp	LBB27_15
Ltmp216:
LBB27_15:
	.loc	1 1038 13
	jmp	LBB27_9
Ltmp217:
LBB27_16:
	.loc	1 0 13
	ud2
Lfunc_end27:
	.cfi_endproc
	.file	16 "/rustc/2c8cc343237b8f7d5a3c3703e3a87f2eb2c54a74/library/std/src" "rt.rs"
	.section	__TEXT,__gcc_except_tab
	.p2align	2
GCC_except_table27:
Lexception11:
	.byte	255
	.byte	255
	.byte	1
	.uleb128 Lcst_end11-Lcst_begin11
Lcst_begin11:
	.uleb128 Ltmp187-Lfunc_begin27
	.uleb128 Ltmp200-Ltmp187
	.uleb128 Ltmp203-Lfunc_begin27
	.byte	0
Lcst_end11:
	.p2align	2

	.section	__TEXT,__text,regular,pure_instructions
	.globl	__ZN3std6thread5local4fast13destroy_value17hd0c067835f462e8aE
	.p2align	4, 0x90
__ZN3std6thread5local4fast13destroy_value17hd0c067835f462e8aE:
Lfunc_begin28:
	.loc	1 1017 0 is_stmt 1
	.cfi_startproc
	.cfi_personality 155, _rust_eh_personality
	.cfi_lsda 16, Lexception12
	pushq	%rbp
	.cfi_def_cfa_offset 16
	.cfi_offset %rbp, -16
	movq	%rsp, %rbp
	.cfi_def_cfa_register %rbp
	subq	$304, %rsp
	movq	%rdi, -64(%rbp)
Ltmp235:
	.loc	1 1018 19 prologue_end
	movq	%rdi, -256(%rbp)
	leaq	-256(%rbp), %rax
Ltmp236:
	.loc	1 1033 69
	movq	%rax, -224(%rbp)
	.loc	1 1033 45 is_stmt 0
	movq	-224(%rbp), %rax
	movq	%rax, -232(%rbp)
	.loc	1 1033 25
	movq	-232(%rbp), %rdi
Ltmp218:
	callq	__ZN3std5panic12catch_unwind17hc937c2f308d3f8a4E
Ltmp219:
	movq	%rdx, -272(%rbp)
	movq	%rax, -264(%rbp)
	jmp	LBB28_3
Ltmp237:
LBB28_1:
	.loc	1 1017 5 is_stmt 1
	callq	__ZN4core9panicking19panic_cannot_unwind17h1fbca7e1d7f56ae1E
LBB28_2:
Ltmp234:
	.loc	1 0 5 is_stmt 0
	movq	%rax, %rcx
	movl	%edx, %eax
	movq	%rcx, -56(%rbp)
	movl	%eax, -48(%rbp)
	jmp	LBB28_1
LBB28_3:
	movq	-272(%rbp), %rax
	movq	-264(%rbp), %rcx
Ltmp238:
	.loc	1 1033 25 is_stmt 1
	movq	%rcx, -248(%rbp)
	movq	%rax, -240(%rbp)
	.loc	1 1033 16 is_stmt 0
	movq	-248(%rbp), %rdx
	movl	$1, %eax
	xorl	%ecx, %ecx
	cmpq	$0, %rdx
	cmoveq	%rcx, %rax
	cmpq	$1, %rax
	jne	LBB28_5
Ltmp222:
Ltmp239:
	.loc	1 1038 13 is_stmt 1
	callq	__ZN3std3sys4unix5stdio12panic_output17hbdb9d595bb134988E
Ltmp223:
	movb	%al, -273(%rbp)
	jmp	LBB28_7
Ltmp240:
LBB28_5:
Ltmp220:
	.loc	1 0 13 is_stmt 0
	leaq	-248(%rbp), %rdi
	.loc	1 1040 5 is_stmt 1
	callq	__ZN4core3ptr130drop_in_place$LT$core..result..Result$LT$$LP$$RP$$C$alloc..boxed..Box$LT$dyn$u20$core..any..Any$u2b$core..marker..Send$GT$$GT$$GT$17hb84537f3b296a86dE
Ltmp221:
	jmp	LBB28_6
LBB28_6:
	.loc	1 1040 6 is_stmt 0
	addq	$304, %rsp
	popq	%rbp
	retq
LBB28_7:
	.loc	1 0 6
	movb	-273(%rbp), %al
Ltmp241:
	.loc	1 1038 13 is_stmt 1
	andb	$1, %al
	movb	%al, -209(%rbp)
	movb	-209(%rbp), %al
	andb	$1, %al
	movzbl	%al, %eax
	cmpq	$1, %rax
	jne	LBB28_9
Ltmp224:
	leaq	l___unnamed_19(%rip), %rsi
	leaq	l___unnamed_20(%rip), %rcx
	xorl	%eax, %eax
	movl	%eax, %r8d
	leaq	-112(%rbp), %rdi
	movl	$1, %edx
	callq	__ZN4core3fmt9Arguments6new_v117h238fe69b765e2985E
Ltmp225:
	jmp	LBB28_10
Ltmp242:
LBB28_9:
Ltmp232:
	.loc	1 1038 13 is_stmt 0
	callq	__ZN3std3sys4unix14abort_internal17h2d537589b8bbc756E
Ltmp233:
	jmp	LBB28_16
LBB28_10:
Ltmp243:
	.loc	1 1038 13
	leaq	-112(%rbp), %rax
	movq	%rax, -40(%rbp)
Ltmp244:
	.loc	15 328 23 is_stmt 1
	leaq	-112(%rbp), %rax
	movq	%rax, -32(%rbp)
	.loc	15 328 26 is_stmt 0
	movq	__ZN59_$LT$core..fmt..Arguments$u20$as$u20$core..fmt..Display$GT$3fmt17h99a13c0e04235e08E@GOTPCREL(%rip), %rax
	movq	%rax, -24(%rbp)
Ltmp245:
	.loc	15 347 42 is_stmt 1
	movq	__ZN59_$LT$core..fmt..Arguments$u20$as$u20$core..fmt..Display$GT$3fmt17h99a13c0e04235e08E@GOTPCREL(%rip), %rax
	movq	%rax, -16(%rbp)
	movq	-16(%rbp), %rax
	movq	%rax, -288(%rbp)
	.loc	15 347 68 is_stmt 0
	leaq	-112(%rbp), %rax
	movq	%rax, -8(%rbp)
	movq	-8(%rbp), %rax
	movq	%rax, -296(%rbp)
	.loc	15 0 68
	movq	-288(%rbp), %rax
	movq	-296(%rbp), %rcx
	.loc	15 347 18
	movq	%rcx, -128(%rbp)
	movq	%rax, -120(%rbp)
Ltmp246:
	.loc	1 1038 13 is_stmt 1
	movq	-128(%rbp), %rcx
	movq	-120(%rbp), %rax
	movq	%rcx, -144(%rbp)
	movq	%rax, -136(%rbp)
Ltmp226:
	leaq	l___unnamed_21(%rip), %rsi
	leaq	-192(%rbp), %rdi
	movl	$2, %edx
	leaq	-144(%rbp), %rcx
	movl	$1, %r8d
	callq	__ZN4core3fmt9Arguments6new_v117h238fe69b765e2985E
Ltmp227:
	jmp	LBB28_13
LBB28_13:
Ltmp228:
	.loc	1 0 13 is_stmt 0
	leaq	-208(%rbp), %rdi
	leaq	-192(%rbp), %rsi
	.loc	1 1038 13
	callq	__ZN3std2io5Write9write_fmt17h32f55008490ae4b8E
Ltmp229:
	movq	%rax, -304(%rbp)
	jmp	LBB28_14
LBB28_14:
	.loc	1 0 13
	movq	-304(%rbp), %rax
	.loc	1 1038 13
	movq	%rax, -200(%rbp)
Ltmp230:
	leaq	-200(%rbp), %rdi
	callq	__ZN4core3ptr81drop_in_place$LT$core..result..Result$LT$$LP$$RP$$C$std..io..error..Error$GT$$GT$17hc4d2f216abb9d096E
Ltmp231:
	jmp	LBB28_15
Ltmp247:
LBB28_15:
	.loc	1 1038 13
	jmp	LBB28_9
Ltmp248:
LBB28_16:
	.loc	1 0 13
	ud2
Lfunc_end28:
	.cfi_endproc
	.section	__TEXT,__gcc_except_tab
	.p2align	2
GCC_except_table28:
Lexception12:
	.byte	255
	.byte	255
	.byte	1
	.uleb128 Lcst_end12-Lcst_begin12
Lcst_begin12:
	.uleb128 Ltmp218-Lfunc_begin28
	.uleb128 Ltmp231-Ltmp218
	.uleb128 Ltmp234-Lfunc_begin28
	.byte	0
Lcst_end12:
	.p2align	2

	.section	__TEXT,__text,regular,pure_instructions
	.globl	__ZN3std6thread5local4fast13destroy_value17he74986efb3115daeE
	.p2align	4, 0x90
__ZN3std6thread5local4fast13destroy_value17he74986efb3115daeE:
Lfunc_begin29:
	.loc	1 1017 0 is_stmt 1
	.cfi_startproc
	.cfi_personality 155, _rust_eh_personality
	.cfi_lsda 16, Lexception13
	pushq	%rbp
	.cfi_def_cfa_offset 16
	.cfi_offset %rbp, -16
	movq	%rsp, %rbp
	.cfi_def_cfa_register %rbp
	subq	$304, %rsp
	movq	%rdi, -64(%rbp)
Ltmp266:
	.loc	1 1018 19 prologue_end
	movq	%rdi, -256(%rbp)
	leaq	-256(%rbp), %rax
Ltmp267:
	.loc	1 1033 69
	movq	%rax, -224(%rbp)
	.loc	1 1033 45 is_stmt 0
	movq	-224(%rbp), %rax
	movq	%rax, -232(%rbp)
	.loc	1 1033 25
	movq	-232(%rbp), %rdi
Ltmp249:
	callq	__ZN3std5panic12catch_unwind17hd8607ad681dc6744E
Ltmp250:
	movq	%rdx, -272(%rbp)
	movq	%rax, -264(%rbp)
	jmp	LBB29_3
Ltmp268:
LBB29_1:
	.loc	1 1017 5 is_stmt 1
	callq	__ZN4core9panicking19panic_cannot_unwind17h1fbca7e1d7f56ae1E
LBB29_2:
Ltmp265:
	.loc	1 0 5 is_stmt 0
	movq	%rax, %rcx
	movl	%edx, %eax
	movq	%rcx, -56(%rbp)
	movl	%eax, -48(%rbp)
	jmp	LBB29_1
LBB29_3:
	movq	-272(%rbp), %rax
	movq	-264(%rbp), %rcx
Ltmp269:
	.loc	1 1033 25 is_stmt 1
	movq	%rcx, -248(%rbp)
	movq	%rax, -240(%rbp)
	.loc	1 1033 16 is_stmt 0
	movq	-248(%rbp), %rdx
	movl	$1, %eax
	xorl	%ecx, %ecx
	cmpq	$0, %rdx
	cmoveq	%rcx, %rax
	cmpq	$1, %rax
	jne	LBB29_5
Ltmp253:
Ltmp270:
	.loc	1 1038 13 is_stmt 1
	callq	__ZN3std3sys4unix5stdio12panic_output17hbdb9d595bb134988E
Ltmp254:
	movb	%al, -273(%rbp)
	jmp	LBB29_7
Ltmp271:
LBB29_5:
Ltmp251:
	.loc	1 0 13 is_stmt 0
	leaq	-248(%rbp), %rdi
	.loc	1 1040 5 is_stmt 1
	callq	__ZN4core3ptr130drop_in_place$LT$core..result..Result$LT$$LP$$RP$$C$alloc..boxed..Box$LT$dyn$u20$core..any..Any$u2b$core..marker..Send$GT$$GT$$GT$17hb84537f3b296a86dE
Ltmp252:
	jmp	LBB29_6
LBB29_6:
	.loc	1 1040 6 is_stmt 0
	addq	$304, %rsp
	popq	%rbp
	retq
LBB29_7:
	.loc	1 0 6
	movb	-273(%rbp), %al
Ltmp272:
	.loc	1 1038 13 is_stmt 1
	andb	$1, %al
	movb	%al, -209(%rbp)
	movb	-209(%rbp), %al
	andb	$1, %al
	movzbl	%al, %eax
	cmpq	$1, %rax
	jne	LBB29_9
Ltmp255:
	leaq	l___unnamed_19(%rip), %rsi
	leaq	l___unnamed_20(%rip), %rcx
	xorl	%eax, %eax
	movl	%eax, %r8d
	leaq	-112(%rbp), %rdi
	movl	$1, %edx
	callq	__ZN4core3fmt9Arguments6new_v117h238fe69b765e2985E
Ltmp256:
	jmp	LBB29_10
Ltmp273:
LBB29_9:
Ltmp263:
	.loc	1 1038 13 is_stmt 0
	callq	__ZN3std3sys4unix14abort_internal17h2d537589b8bbc756E
Ltmp264:
	jmp	LBB29_16
LBB29_10:
Ltmp274:
	.loc	1 1038 13
	leaq	-112(%rbp), %rax
	movq	%rax, -40(%rbp)
Ltmp275:
	.loc	15 328 23 is_stmt 1
	leaq	-112(%rbp), %rax
	movq	%rax, -32(%rbp)
	.loc	15 328 26 is_stmt 0
	movq	__ZN59_$LT$core..fmt..Arguments$u20$as$u20$core..fmt..Display$GT$3fmt17h99a13c0e04235e08E@GOTPCREL(%rip), %rax
	movq	%rax, -24(%rbp)
Ltmp276:
	.loc	15 347 42 is_stmt 1
	movq	__ZN59_$LT$core..fmt..Arguments$u20$as$u20$core..fmt..Display$GT$3fmt17h99a13c0e04235e08E@GOTPCREL(%rip), %rax
	movq	%rax, -16(%rbp)
	movq	-16(%rbp), %rax
	movq	%rax, -288(%rbp)
	.loc	15 347 68 is_stmt 0
	leaq	-112(%rbp), %rax
	movq	%rax, -8(%rbp)
	movq	-8(%rbp), %rax
	movq	%rax, -296(%rbp)
	.loc	15 0 68
	movq	-288(%rbp), %rax
	movq	-296(%rbp), %rcx
	.loc	15 347 18
	movq	%rcx, -128(%rbp)
	movq	%rax, -120(%rbp)
Ltmp277:
	.loc	1 1038 13 is_stmt 1
	movq	-128(%rbp), %rcx
	movq	-120(%rbp), %rax
	movq	%rcx, -144(%rbp)
	movq	%rax, -136(%rbp)
Ltmp257:
	leaq	l___unnamed_21(%rip), %rsi
	leaq	-192(%rbp), %rdi
	movl	$2, %edx
	leaq	-144(%rbp), %rcx
	movl	$1, %r8d
	callq	__ZN4core3fmt9Arguments6new_v117h238fe69b765e2985E
Ltmp258:
	jmp	LBB29_13
LBB29_13:
Ltmp259:
	.loc	1 0 13 is_stmt 0
	leaq	-208(%rbp), %rdi
	leaq	-192(%rbp), %rsi
	.loc	1 1038 13
	callq	__ZN3std2io5Write9write_fmt17h32f55008490ae4b8E
Ltmp260:
	movq	%rax, -304(%rbp)
	jmp	LBB29_14
LBB29_14:
	.loc	1 0 13
	movq	-304(%rbp), %rax
	.loc	1 1038 13
	movq	%rax, -200(%rbp)
Ltmp261:
	leaq	-200(%rbp), %rdi
	callq	__ZN4core3ptr81drop_in_place$LT$core..result..Result$LT$$LP$$RP$$C$std..io..error..Error$GT$$GT$17hc4d2f216abb9d096E
Ltmp262:
	jmp	LBB29_15
Ltmp278:
LBB29_15:
	.loc	1 1038 13
	jmp	LBB29_9
Ltmp279:
LBB29_16:
	.loc	1 0 13
	ud2
Lfunc_end29:
	.cfi_endproc
	.section	__TEXT,__gcc_except_tab
	.p2align	2
GCC_except_table29:
Lexception13:
	.byte	255
	.byte	255
	.byte	1
	.uleb128 Lcst_end13-Lcst_begin13
Lcst_begin13:
	.uleb128 Ltmp249-Lfunc_begin29
	.uleb128 Ltmp262-Ltmp249
	.uleb128 Ltmp265-Lfunc_begin29
	.byte	0
Lcst_end13:
	.p2align	2

	.section	__TEXT,__text,regular,pure_instructions
	.globl	__ZN3std6thread5local4fast13destroy_value28_$u7b$$u7b$closure$u7d$$u7d$17h21b64f204bcabc33E
	.p2align	4, 0x90
__ZN3std6thread5local4fast13destroy_value28_$u7b$$u7b$closure$u7d$$u7d$17h21b64f204bcabc33E:
Lfunc_begin30:
	.loc	1 1033 0 is_stmt 1
	.cfi_startproc
	.cfi_personality 155, _rust_eh_personality
	.cfi_lsda 16, Lexception14
	pushq	%rbp
	.cfi_def_cfa_offset 16
	.cfi_offset %rbp, -16
	movq	%rsp, %rbp
	.cfi_def_cfa_register %rbp
	subq	$96, %rsp
	movq	%rdi, -96(%rbp)
	movq	%rdi, -40(%rbp)
Ltmp288:
	.loc	1 1034 25 prologue_end
	movq	(%rdi), %rax
	movq	(%rax), %rdi
	movb	$1, -41(%rbp)
	callq	__ZN3std6thread5local4lazy21LazyKeyInner$LT$T$GT$4take17hf5066f9565fe22b2E
	movq	-96(%rbp), %rdi
	movq	%rdx, -72(%rbp)
	movq	%rax, -80(%rbp)
Ltmp289:
	.loc	1 1035 13
	movq	(%rdi), %rax
	movq	(%rax), %rdi
	addq	$16, %rdi
	movq	%rdi, -32(%rbp)
Ltmp280:
	movl	$2, %esi
Ltmp290:
	.loc	9 363 19
	callq	__ZN4core4cell13Cell$LT$T$GT$7replace17hd5fca225e5dab8dcE
Ltmp281:
	movb	%al, -81(%rbp)
	jmp	LBB30_3
Ltmp291:
LBB30_1:
	.loc	1 1037 9
	testb	$1, -41(%rbp)
	jne	LBB30_6
	jmp	LBB30_5
LBB30_2:
Ltmp284:
	.loc	1 0 9 is_stmt 0
	movq	%rax, %rcx
	movl	%edx, %eax
	movq	%rcx, -24(%rbp)
	movl	%eax, -16(%rbp)
	jmp	LBB30_1
LBB30_3:
	movb	-81(%rbp), %al
Ltmp292:
	.loc	9 363 19 is_stmt 1
	movb	%al, -1(%rbp)
Ltmp293:
	.loc	1 1036 18
	movb	$0, -41(%rbp)
	movq	-80(%rbp), %rcx
	movq	-72(%rbp), %rax
	movq	%rcx, -64(%rbp)
	movq	%rax, -56(%rbp)
Ltmp282:
	leaq	-64(%rbp), %rdi
Ltmp294:
	.loc	14 980 24
	callq	__ZN4core3ptr136drop_in_place$LT$core..option..Option$LT$core..cell..Cell$LT$core..option..Option$LT$crossbeam_channel..context..Context$GT$$GT$$GT$$GT$17ha510dcc85303ede9E
Ltmp283:
	jmp	LBB30_4
Ltmp295:
LBB30_4:
	.loc	1 1037 10
	addq	$96, %rsp
	popq	%rbp
	retq
LBB30_5:
	.loc	1 1033 69
	movq	-24(%rbp), %rdi
	callq	__Unwind_Resume
LBB30_6:
Ltmp285:
	.loc	1 0 69 is_stmt 0
	leaq	-80(%rbp), %rdi
	.loc	1 1037 9 is_stmt 1
	callq	__ZN4core3ptr136drop_in_place$LT$core..option..Option$LT$core..cell..Cell$LT$core..option..Option$LT$crossbeam_channel..context..Context$GT$$GT$$GT$$GT$17ha510dcc85303ede9E
Ltmp286:
	jmp	LBB30_5
LBB30_7:
Ltmp287:
	.loc	1 1033 69
	callq	__ZN4core9panicking19panic_cannot_unwind17h1fbca7e1d7f56ae1E
Ltmp296:
Lfunc_end30:
	.cfi_endproc
	.section	__TEXT,__gcc_except_tab
	.p2align	2
GCC_except_table30:
Lexception14:
	.byte	255
	.byte	255
	.byte	1
	.uleb128 Lcst_end14-Lcst_begin14
Lcst_begin14:
	.uleb128 Lfunc_begin30-Lfunc_begin30
	.uleb128 Ltmp280-Lfunc_begin30
	.byte	0
	.byte	0
	.uleb128 Ltmp280-Lfunc_begin30
	.uleb128 Ltmp283-Ltmp280
	.uleb128 Ltmp284-Lfunc_begin30
	.byte	0
	.uleb128 Ltmp283-Lfunc_begin30
	.uleb128 Ltmp285-Ltmp283
	.byte	0
	.byte	0
	.uleb128 Ltmp285-Lfunc_begin30
	.uleb128 Ltmp286-Ltmp285
	.uleb128 Ltmp287-Lfunc_begin30
	.byte	0
Lcst_end14:
	.p2align	2

	.section	__TEXT,__text,regular,pure_instructions
	.globl	__ZN3std6thread5local4fast13destroy_value28_$u7b$$u7b$closure$u7d$$u7d$17hc167b588df209299E
	.p2align	4, 0x90
__ZN3std6thread5local4fast13destroy_value28_$u7b$$u7b$closure$u7d$$u7d$17hc167b588df209299E:
Lfunc_begin31:
	.loc	1 1033 0
	.cfi_startproc
	.cfi_personality 155, _rust_eh_personality
	.cfi_lsda 16, Lexception15
	pushq	%rbp
	.cfi_def_cfa_offset 16
	.cfi_offset %rbp, -16
	movq	%rsp, %rbp
	.cfi_def_cfa_register %rbp
	subq	$80, %rsp
	movq	%rdi, -80(%rbp)
	movq	%rdi, -56(%rbp)
Ltmp300:
	.loc	1 1034 25 prologue_end
	movq	(%rdi), %rax
	movq	(%rax), %rdi
	movb	$1, -57(%rbp)
	callq	__ZN3std6thread5local4lazy21LazyKeyInner$LT$T$GT$4take17h74c3fd00c34ef818E
	movq	-80(%rbp), %rdi
	movq	%rax, %rcx
	movq	%rcx, -72(%rbp)
	movq	%rax, -48(%rbp)
Ltmp301:
	.loc	1 1035 13
	movq	(%rdi), %rax
	movq	(%rax), %rdi
	addq	$8, %rdi
	movq	%rdi, -40(%rbp)
Ltmp297:
	movl	$2, %esi
Ltmp302:
	.loc	9 363 19
	callq	__ZN4core4cell13Cell$LT$T$GT$7replace17hd5fca225e5dab8dcE
Ltmp298:
	movb	%al, -58(%rbp)
	jmp	LBB31_3
Ltmp303:
LBB31_1:
	.loc	1 1037 9
	testb	$1, -57(%rbp)
	jne	LBB31_6
	jmp	LBB31_5
LBB31_2:
Ltmp299:
	.loc	1 0 9 is_stmt 0
	movq	%rax, %rcx
	movl	%edx, %eax
	movq	%rcx, -32(%rbp)
	movl	%eax, -24(%rbp)
	jmp	LBB31_1
LBB31_3:
	movq	-72(%rbp), %rax
	movb	-58(%rbp), %cl
Ltmp304:
	.loc	9 363 19 is_stmt 1
	movb	%cl, -9(%rbp)
Ltmp305:
	.loc	1 1036 18
	movb	$0, -57(%rbp)
	movq	%rax, -8(%rbp)
Ltmp306:
	.loc	1 1037 10
	addq	$80, %rsp
	popq	%rbp
	retq
LBB31_5:
	.loc	1 1033 69
	movq	-32(%rbp), %rdi
	callq	__Unwind_Resume
LBB31_6:
	.loc	1 1037 9
	jmp	LBB31_5
Ltmp307:
Lfunc_end31:
	.cfi_endproc
	.section	__TEXT,__gcc_except_tab
	.p2align	2
GCC_except_table31:
Lexception15:
	.byte	255
	.byte	255
	.byte	1
	.uleb128 Lcst_end15-Lcst_begin15
Lcst_begin15:
	.uleb128 Lfunc_begin31-Lfunc_begin31
	.uleb128 Ltmp297-Lfunc_begin31
	.byte	0
	.byte	0
	.uleb128 Ltmp297-Lfunc_begin31
	.uleb128 Ltmp298-Ltmp297
	.uleb128 Ltmp299-Lfunc_begin31
	.byte	0
	.uleb128 Ltmp298-Lfunc_begin31
	.uleb128 Lfunc_end31-Ltmp298
	.byte	0
	.byte	0
Lcst_end15:
	.p2align	2

	.section	__TEXT,__text,regular,pure_instructions
	.globl	__ZN3std6thread5local4fast13destroy_value28_$u7b$$u7b$closure$u7d$$u7d$17hef4b64988dab1954E
	.p2align	4, 0x90
__ZN3std6thread5local4fast13destroy_value28_$u7b$$u7b$closure$u7d$$u7d$17hef4b64988dab1954E:
Lfunc_begin32:
	.loc	1 1033 0
	.cfi_startproc
	.cfi_personality 155, _rust_eh_personality
	.cfi_lsda 16, Lexception16
	pushq	%rbp
	.cfi_def_cfa_offset 16
	.cfi_offset %rbp, -16
	movq	%rsp, %rbp
	.cfi_def_cfa_register %rbp
	subq	$80, %rsp
	movq	%rdi, -80(%rbp)
	movq	%rdi, -56(%rbp)
Ltmp311:
	.loc	1 1034 25 prologue_end
	movq	(%rdi), %rax
	movq	(%rax), %rdi
	movb	$1, -57(%rbp)
	callq	__ZN3std6thread5local4lazy21LazyKeyInner$LT$T$GT$4take17h6a9cf7abab945604E
	movq	-80(%rbp), %rdi
	movl	%eax, %ecx
	movl	%ecx, -68(%rbp)
	movl	%edx, %ecx
	movl	%ecx, -64(%rbp)
	movl	%eax, -48(%rbp)
	movl	%edx, -44(%rbp)
Ltmp312:
	.loc	1 1035 13
	movq	(%rdi), %rax
	movq	(%rax), %rdi
	addq	$8, %rdi
	movq	%rdi, -40(%rbp)
Ltmp308:
	movl	$2, %esi
Ltmp313:
	.loc	9 363 19
	callq	__ZN4core4cell13Cell$LT$T$GT$7replace17hd5fca225e5dab8dcE
Ltmp309:
	movb	%al, -58(%rbp)
	jmp	LBB32_3
Ltmp314:
LBB32_1:
	.loc	1 1037 9
	testb	$1, -57(%rbp)
	jne	LBB32_6
	jmp	LBB32_5
LBB32_2:
Ltmp310:
	.loc	1 0 9 is_stmt 0
	movq	%rax, %rcx
	movl	%edx, %eax
	movq	%rcx, -32(%rbp)
	movl	%eax, -24(%rbp)
	jmp	LBB32_1
LBB32_3:
	movl	-64(%rbp), %eax
	movl	-68(%rbp), %ecx
	movb	-58(%rbp), %dl
Ltmp315:
	.loc	9 363 19 is_stmt 1
	movb	%dl, -9(%rbp)
Ltmp316:
	.loc	1 1036 18
	movb	$0, -57(%rbp)
	movl	%ecx, -8(%rbp)
	movl	%eax, -4(%rbp)
Ltmp317:
	.loc	1 1037 10
	addq	$80, %rsp
	popq	%rbp
	retq
LBB32_5:
	.loc	1 1033 69
	movq	-32(%rbp), %rdi
	callq	__Unwind_Resume
LBB32_6:
	.loc	1 1037 9
	jmp	LBB32_5
Ltmp318:
Lfunc_end32:
	.cfi_endproc
	.section	__TEXT,__gcc_except_tab
	.p2align	2
GCC_except_table32:
Lexception16:
	.byte	255
	.byte	255
	.byte	1
	.uleb128 Lcst_end16-Lcst_begin16
Lcst_begin16:
	.uleb128 Lfunc_begin32-Lfunc_begin32
	.uleb128 Ltmp308-Lfunc_begin32
	.byte	0
	.byte	0
	.uleb128 Ltmp308-Lfunc_begin32
	.uleb128 Ltmp309-Ltmp308
	.uleb128 Ltmp310-Lfunc_begin32
	.byte	0
	.uleb128 Ltmp309-Lfunc_begin32
	.uleb128 Lfunc_end32-Ltmp309
	.byte	0
	.byte	0
Lcst_end16:
	.p2align	2

	.section	__TEXT,__text,regular,pure_instructions
	.globl	__ZN3std6thread5local4lazy21LazyKeyInner$LT$T$GT$10initialize17h3d227501b29e9ebcE
	.p2align	4, 0x90
__ZN3std6thread5local4lazy21LazyKeyInner$LT$T$GT$10initialize17h3d227501b29e9ebcE:
Lfunc_begin33:
	.loc	1 807 0
	.cfi_startproc
	.cfi_personality 155, _rust_eh_personality
	.cfi_lsda 16, Lexception17
	pushq	%rbp
	.cfi_def_cfa_offset 16
	.cfi_offset %rbp, -16
	movq	%rsp, %rbp
	.cfi_def_cfa_register %rbp
	subq	$96, %rsp
	movq	%rsi, -88(%rbp)
	movq	%rdi, %rax
	movq	-88(%rbp), %rdi
	movq	%rax, -80(%rbp)
	movq	%rax, -64(%rbp)
	movq	%rdi, -56(%rbp)
Ltmp324:
	.loc	1 810 25 prologue_end
	callq	__ZN17crossbeam_channel5utils7shuffle3RNG7__getit28_$u7b$$u7b$closure$u7d$$u7d$17he20afb30e3cf5c54E
	movq	-80(%rbp), %rdi
	movl	%eax, -44(%rbp)
Ltmp325:
	.loc	1 811 23
	movq	%rdi, -40(%rbp)
Ltmp326:
	.loc	9 1999 9
	movq	%rdi, -32(%rbp)
Ltmp327:
	.loc	1 831 49
	movl	%eax, -68(%rbp)
	movl	$1, -72(%rbp)
	.loc	1 831 25 is_stmt 0
	movl	-72(%rbp), %esi
	movl	-68(%rbp), %edx
Ltmp319:
	callq	__ZN4core3mem7replace17ha63523c534021dabE
Ltmp320:
	jmp	LBB33_3
Ltmp328:
LBB33_1:
	.loc	1 848 9 is_stmt 1
	xorl	%eax, %eax
	testb	$1, %al
	jne	LBB33_9
	jmp	LBB33_8
LBB33_2:
Ltmp323:
	.loc	1 0 9 is_stmt 0
	movq	%rax, %rcx
	movl	%edx, %eax
	movq	%rcx, -24(%rbp)
	movl	%eax, -16(%rbp)
	jmp	LBB33_1
LBB33_3:
	movq	-80(%rbp), %rax
Ltmp329:
	.loc	1 843 23 is_stmt 1
	movl	(%rax), %eax
	.loc	1 843 17 is_stmt 0
	cmpq	$0, %rax
	jne	LBB33_6
Ltmp321:
	.loc	1 845 29 is_stmt 1
	callq	__ZN4core4hint21unreachable_unchecked17h9a76d4a75d9213cdE
Ltmp322:
	jmp	LBB33_7
LBB33_6:
	.loc	1 0 29 is_stmt 0
	movq	-80(%rbp), %rax
	.loc	1 844 26 is_stmt 1
	addq	$4, %rax
	movq	%rax, -8(%rbp)
Ltmp330:
	.loc	1 848 10
	addq	$96, %rsp
	popq	%rbp
	retq
LBB33_7:
	.loc	1 0 10 is_stmt 0
	ud2
LBB33_8:
	.loc	1 807 9 is_stmt 1
	movq	-24(%rbp), %rdi
	callq	__Unwind_Resume
LBB33_9:
	.loc	1 848 9
	jmp	LBB33_8
Ltmp331:
Lfunc_end33:
	.cfi_endproc
	.section	__TEXT,__gcc_except_tab
	.p2align	2
GCC_except_table33:
Lexception17:
	.byte	255
	.byte	255
	.byte	1
	.uleb128 Lcst_end17-Lcst_begin17
Lcst_begin17:
	.uleb128 Lfunc_begin33-Lfunc_begin33
	.uleb128 Ltmp319-Lfunc_begin33
	.byte	0
	.byte	0
	.uleb128 Ltmp319-Lfunc_begin33
	.uleb128 Ltmp322-Ltmp319
	.uleb128 Ltmp323-Lfunc_begin33
	.byte	0
	.uleb128 Ltmp322-Lfunc_begin33
	.uleb128 Lfunc_end33-Ltmp322
	.byte	0
	.byte	0
Lcst_end17:
	.p2align	2

	.section	__TEXT,__text,regular,pure_instructions
	.globl	__ZN3std6thread5local4lazy21LazyKeyInner$LT$T$GT$10initialize17h65b2eea122e0a795E
	.p2align	4, 0x90
__ZN3std6thread5local4lazy21LazyKeyInner$LT$T$GT$10initialize17h65b2eea122e0a795E:
Lfunc_begin34:
	.loc	1 807 0
	.cfi_startproc
	.cfi_personality 155, _rust_eh_personality
	.cfi_lsda 16, Lexception18
	pushq	%rbp
	.cfi_def_cfa_offset 16
	.cfi_offset %rbp, -16
	movq	%rsp, %rbp
	.cfi_def_cfa_register %rbp
	subq	$128, %rsp
	movq	%rsi, -128(%rbp)
	movq	%rdi, %rax
	movq	-128(%rbp), %rdi
	movq	%rax, -120(%rbp)
	movq	%rax, -56(%rbp)
	movq	%rdi, -48(%rbp)
Ltmp342:
	.loc	1 810 25 prologue_end
	callq	__ZN17crossbeam_channel7context7Context4with7CONTEXT7__getit28_$u7b$$u7b$closure$u7d$$u7d$17h3f75d8d20ae166a3E
	movq	-120(%rbp), %rdi
	movq	%rax, -96(%rbp)
Ltmp343:
	.loc	1 811 23
	movq	%rdi, -40(%rbp)
Ltmp344:
	.loc	9 1999 9
	movq	%rdi, -32(%rbp)
Ltmp345:
	.loc	1 831 54
	movq	-96(%rbp), %rax
	.loc	1 831 49 is_stmt 0
	movq	%rax, -64(%rbp)
	movq	$1, -72(%rbp)
	.loc	1 831 25
	movq	-72(%rbp), %rsi
	movq	-64(%rbp), %rdx
Ltmp332:
	callq	__ZN4core3mem7replace17hd1a14b32db219abcE
Ltmp333:
	movq	%rdx, -112(%rbp)
	movq	%rax, -104(%rbp)
	jmp	LBB34_3
Ltmp346:
LBB34_1:
	.loc	1 848 9 is_stmt 1
	xorl	%eax, %eax
	testb	$1, %al
	jne	LBB34_9
	jmp	LBB34_8
LBB34_2:
Ltmp338:
	.loc	1 0 9 is_stmt 0
	movq	%rax, %rcx
	movl	%edx, %eax
	movq	%rcx, -24(%rbp)
	movl	%eax, -16(%rbp)
	jmp	LBB34_1
LBB34_3:
	movq	-112(%rbp), %rax
	movq	-104(%rbp), %rcx
Ltmp347:
	.loc	1 831 25 is_stmt 1
	movq	%rcx, -88(%rbp)
	movq	%rax, -80(%rbp)
Ltmp334:
	leaq	-88(%rbp), %rdi
	.loc	1 831 61 is_stmt 0
	callq	__ZN4core3ptr136drop_in_place$LT$core..option..Option$LT$core..cell..Cell$LT$core..option..Option$LT$crossbeam_channel..context..Context$GT$$GT$$GT$$GT$17ha510dcc85303ede9E
Ltmp335:
	jmp	LBB34_4
LBB34_4:
	.loc	1 0 61
	movq	-120(%rbp), %rax
	.loc	1 843 17 is_stmt 1
	cmpq	$0, (%rax)
	jne	LBB34_6
Ltmp336:
	.loc	1 845 29
	callq	__ZN4core4hint21unreachable_unchecked17h9a76d4a75d9213cdE
Ltmp337:
	jmp	LBB34_7
LBB34_6:
	.loc	1 0 29 is_stmt 0
	movq	-120(%rbp), %rax
	.loc	1 844 26 is_stmt 1
	addq	$8, %rax
	movq	%rax, -8(%rbp)
Ltmp348:
	.loc	1 848 10
	addq	$128, %rsp
	popq	%rbp
	retq
LBB34_7:
	.loc	1 0 10 is_stmt 0
	ud2
LBB34_8:
	.loc	1 807 9 is_stmt 1
	movq	-24(%rbp), %rdi
	callq	__Unwind_Resume
LBB34_9:
Ltmp339:
	.loc	1 0 9 is_stmt 0
	leaq	-96(%rbp), %rdi
	.loc	1 848 9 is_stmt 1
	callq	__ZN4core3ptr108drop_in_place$LT$core..cell..Cell$LT$core..option..Option$LT$crossbeam_channel..context..Context$GT$$GT$$GT$17h02817a3a69073891E
Ltmp340:
	jmp	LBB34_8
LBB34_10:
Ltmp341:
	.loc	1 807 9
	callq	__ZN4core9panicking19panic_cannot_unwind17h1fbca7e1d7f56ae1E
Ltmp349:
Lfunc_end34:
	.cfi_endproc
	.section	__TEXT,__gcc_except_tab
	.p2align	2
GCC_except_table34:
Lexception18:
	.byte	255
	.byte	255
	.byte	1
	.uleb128 Lcst_end18-Lcst_begin18
Lcst_begin18:
	.uleb128 Lfunc_begin34-Lfunc_begin34
	.uleb128 Ltmp332-Lfunc_begin34
	.byte	0
	.byte	0
	.uleb128 Ltmp332-Lfunc_begin34
	.uleb128 Ltmp337-Ltmp332
	.uleb128 Ltmp338-Lfunc_begin34
	.byte	0
	.uleb128 Ltmp337-Lfunc_begin34
	.uleb128 Ltmp339-Ltmp337
	.byte	0
	.byte	0
	.uleb128 Ltmp339-Lfunc_begin34
	.uleb128 Ltmp340-Ltmp339
	.uleb128 Ltmp341-Lfunc_begin34
	.byte	0
Lcst_end18:
	.p2align	2

	.section	__TEXT,__text,regular,pure_instructions
	.globl	__ZN3std6thread5local4lazy21LazyKeyInner$LT$T$GT$10initialize17hb998a1146ee1d9e6E
	.p2align	4, 0x90
__ZN3std6thread5local4lazy21LazyKeyInner$LT$T$GT$10initialize17hb998a1146ee1d9e6E:
Lfunc_begin35:
	.loc	1 807 0
	.cfi_startproc
	.cfi_personality 155, _rust_eh_personality
	.cfi_lsda 16, Lexception19
	pushq	%rbp
	.cfi_def_cfa_offset 16
	.cfi_offset %rbp, -16
	movq	%rsp, %rbp
	.cfi_def_cfa_register %rbp
	subq	$96, %rsp
	movq	%rsi, -88(%rbp)
	movq	%rdi, %rax
	movq	-88(%rbp), %rdi
	movq	%rax, -80(%rbp)
	movq	%rax, -64(%rbp)
	movq	%rdi, -56(%rbp)
Ltmp355:
	.loc	1 810 25 prologue_end
	callq	__ZN17crossbeam_channel5waker17current_thread_id9THREAD_ID7__getit28_$u7b$$u7b$closure$u7d$$u7d$17h905559bccc63ac9aE
	movq	-80(%rbp), %rdi
	movq	%rax, -48(%rbp)
Ltmp356:
	.loc	1 811 23
	movq	%rdi, -40(%rbp)
Ltmp357:
	.loc	9 1999 9
	movq	%rdi, -32(%rbp)
Ltmp358:
	.loc	1 831 49
	movq	%rax, -72(%rbp)
	.loc	1 831 25 is_stmt 0
	movq	-72(%rbp), %rsi
Ltmp350:
	callq	__ZN4core3mem7replace17hbfcd44baf1504985E
Ltmp351:
	jmp	LBB35_3
Ltmp359:
LBB35_1:
	.loc	1 848 9 is_stmt 1
	xorl	%eax, %eax
	testb	$1, %al
	jne	LBB35_9
	jmp	LBB35_8
LBB35_2:
Ltmp354:
	.loc	1 0 9 is_stmt 0
	movq	%rax, %rcx
	movl	%edx, %eax
	movq	%rcx, -24(%rbp)
	movl	%eax, -16(%rbp)
	jmp	LBB35_1
LBB35_3:
Ltmp360:
	.loc	1 831 61 is_stmt 1
	jmp	LBB35_4
LBB35_4:
	.loc	1 0 61 is_stmt 0
	movq	-80(%rbp), %rdx
	.loc	1 843 23 is_stmt 1
	movl	$1, %eax
	xorl	%ecx, %ecx
	cmpq	$0, (%rdx)
	cmoveq	%rcx, %rax
	.loc	1 843 17 is_stmt 0
	cmpq	$0, %rax
	jne	LBB35_6
Ltmp352:
	.loc	1 845 29 is_stmt 1
	callq	__ZN4core4hint21unreachable_unchecked17h9a76d4a75d9213cdE
Ltmp353:
	jmp	LBB35_7
LBB35_6:
	.loc	1 0 29 is_stmt 0
	movq	-80(%rbp), %rax
	.loc	1 844 26 is_stmt 1
	movq	%rax, -8(%rbp)
Ltmp361:
	.loc	1 848 10
	addq	$96, %rsp
	popq	%rbp
	retq
LBB35_7:
	.loc	1 0 10 is_stmt 0
	ud2
LBB35_8:
	.loc	1 807 9 is_stmt 1
	movq	-24(%rbp), %rdi
	callq	__Unwind_Resume
LBB35_9:
	.loc	1 848 9
	jmp	LBB35_8
Ltmp362:
Lfunc_end35:
	.cfi_endproc
	.section	__TEXT,__gcc_except_tab
	.p2align	2
GCC_except_table35:
Lexception19:
	.byte	255
	.byte	255
	.byte	1
	.uleb128 Lcst_end19-Lcst_begin19
Lcst_begin19:
	.uleb128 Lfunc_begin35-Lfunc_begin35
	.uleb128 Ltmp350-Lfunc_begin35
	.byte	0
	.byte	0
	.uleb128 Ltmp350-Lfunc_begin35
	.uleb128 Ltmp353-Ltmp350
	.uleb128 Ltmp354-Lfunc_begin35
	.byte	0
	.uleb128 Ltmp353-Lfunc_begin35
	.uleb128 Lfunc_end35-Ltmp353
	.byte	0
	.byte	0
Lcst_end19:
	.p2align	2

	.section	__TEXT,__text,regular,pure_instructions
	.globl	__ZN3std6thread5local4lazy21LazyKeyInner$LT$T$GT$3get17hc7e7446055b57e75E
	.p2align	4, 0x90
__ZN3std6thread5local4lazy21LazyKeyInner$LT$T$GT$3get17hc7e7446055b57e75E:
Lfunc_begin36:
	.loc	1 797 0
	.cfi_startproc
	pushq	%rbp
	.cfi_def_cfa_offset 16
	.cfi_offset %rbp, -16
	movq	%rsp, %rbp
	.cfi_def_cfa_register %rbp
	subq	$48, %rsp
	movq	%rdi, -48(%rbp)
	movq	%rdi, -32(%rbp)
Ltmp363:
	.loc	1 802 24 prologue_end
	movq	%rdi, -24(%rbp)
	.loc	1 802 22 is_stmt 0
	movq	%rdi, -16(%rbp)
Ltmp364:
	.loc	12 675 15 is_stmt 1
	movl	(%rdi), %eax
	.loc	12 675 9 is_stmt 0
	cmpq	$0, %rax
	jne	LBB36_2
	.loc	12 677 21 is_stmt 1
	movq	$0, -40(%rbp)
	jmp	LBB36_3
LBB36_2:
	.loc	12 0 21 is_stmt 0
	movq	-48(%rbp), %rax
	.loc	12 676 18 is_stmt 1
	addq	$4, %rax
	movq	%rax, -8(%rbp)
Ltmp365:
	.loc	12 676 28 is_stmt 0
	movq	%rax, -40(%rbp)
Ltmp366:
LBB36_3:
	.loc	1 803 10 is_stmt 1
	movq	-40(%rbp), %rax
	addq	$48, %rsp
	popq	%rbp
	retq
Ltmp367:
Lfunc_end36:
	.cfi_endproc

	.globl	__ZN3std6thread5local4lazy21LazyKeyInner$LT$T$GT$3get17hee62bf8806c5cb45E
	.p2align	4, 0x90
__ZN3std6thread5local4lazy21LazyKeyInner$LT$T$GT$3get17hee62bf8806c5cb45E:
Lfunc_begin37:
	.loc	1 797 0
	.cfi_startproc
	pushq	%rbp
	.cfi_def_cfa_offset 16
	.cfi_offset %rbp, -16
	movq	%rsp, %rbp
	.cfi_def_cfa_register %rbp
	subq	$48, %rsp
	movq	%rdi, -48(%rbp)
	movq	%rdi, -32(%rbp)
Ltmp368:
	.loc	1 802 24 prologue_end
	movq	%rdi, -24(%rbp)
	.loc	1 802 22 is_stmt 0
	movq	%rdi, -16(%rbp)
Ltmp369:
	.loc	12 675 9 is_stmt 1
	cmpq	$0, (%rdi)
	jne	LBB37_2
	.loc	12 677 21
	movq	$0, -40(%rbp)
	jmp	LBB37_3
LBB37_2:
	.loc	12 0 21 is_stmt 0
	movq	-48(%rbp), %rax
	.loc	12 676 18 is_stmt 1
	addq	$8, %rax
	movq	%rax, -8(%rbp)
Ltmp370:
	.loc	12 676 28 is_stmt 0
	movq	%rax, -40(%rbp)
Ltmp371:
LBB37_3:
	.loc	1 803 10 is_stmt 1
	movq	-40(%rbp), %rax
	addq	$48, %rsp
	popq	%rbp
	retq
Ltmp372:
Lfunc_end37:
	.cfi_endproc

	.globl	__ZN3std6thread5local4lazy21LazyKeyInner$LT$T$GT$3get17hf620161e5e7a5cf7E
	.p2align	4, 0x90
__ZN3std6thread5local4lazy21LazyKeyInner$LT$T$GT$3get17hf620161e5e7a5cf7E:
Lfunc_begin38:
	.loc	1 797 0
	.cfi_startproc
	pushq	%rbp
	.cfi_def_cfa_offset 16
	.cfi_offset %rbp, -16
	movq	%rsp, %rbp
	.cfi_def_cfa_register %rbp
	subq	$48, %rsp
	movq	%rdi, -48(%rbp)
	movq	%rdi, -32(%rbp)
Ltmp373:
	.loc	1 802 24 prologue_end
	movq	%rdi, -24(%rbp)
	.loc	1 802 22 is_stmt 0
	movq	%rdi, -16(%rbp)
Ltmp374:
	.loc	12 675 15 is_stmt 1
	movl	$1, %eax
	xorl	%ecx, %ecx
	cmpq	$0, (%rdi)
	cmoveq	%rcx, %rax
	.loc	12 675 9 is_stmt 0
	cmpq	$0, %rax
	jne	LBB38_2
	.loc	12 677 21 is_stmt 1
	movq	$0, -40(%rbp)
	jmp	LBB38_3
LBB38_2:
	.loc	12 0 21 is_stmt 0
	movq	-48(%rbp), %rax
	.loc	12 676 18 is_stmt 1
	movq	%rax, -8(%rbp)
Ltmp375:
	.loc	12 676 28 is_stmt 0
	movq	%rax, -40(%rbp)
Ltmp376:
LBB38_3:
	.loc	1 803 10 is_stmt 1
	movq	-40(%rbp), %rax
	addq	$48, %rsp
	popq	%rbp
	retq
Ltmp377:
Lfunc_end38:
	.cfi_endproc

	.globl	__ZN3std6thread5local4lazy21LazyKeyInner$LT$T$GT$4take17h6a9cf7abab945604E
	.p2align	4, 0x90
__ZN3std6thread5local4lazy21LazyKeyInner$LT$T$GT$4take17h6a9cf7abab945604E:
Lfunc_begin39:
	.loc	1 854 0
	.cfi_startproc
	pushq	%rbp
	.cfi_def_cfa_offset 16
	.cfi_offset %rbp, -16
	movq	%rsp, %rbp
	.cfi_def_cfa_register %rbp
	subq	$32, %rsp
	movq	%rdi, -24(%rbp)
Ltmp378:
	.loc	1 856 24 prologue_end
	movq	%rdi, -16(%rbp)
	.loc	1 856 22 is_stmt 0
	movq	%rdi, -8(%rbp)
Ltmp379:
	.loc	12 1623 28 is_stmt 1
	movl	$0, -32(%rbp)
	.loc	12 1623 9 is_stmt 0
	movl	-32(%rbp), %esi
	movl	-28(%rbp), %edx
	callq	__ZN4core3mem7replace17ha63523c534021dabE
Ltmp380:
	.loc	1 857 10 is_stmt 1
	addq	$32, %rsp
	popq	%rbp
	retq
Ltmp381:
Lfunc_end39:
	.cfi_endproc

	.globl	__ZN3std6thread5local4lazy21LazyKeyInner$LT$T$GT$4take17h74c3fd00c34ef818E
	.p2align	4, 0x90
__ZN3std6thread5local4lazy21LazyKeyInner$LT$T$GT$4take17h74c3fd00c34ef818E:
Lfunc_begin40:
	.loc	1 854 0
	.cfi_startproc
	pushq	%rbp
	.cfi_def_cfa_offset 16
	.cfi_offset %rbp, -16
	movq	%rsp, %rbp
	.cfi_def_cfa_register %rbp
	subq	$32, %rsp
	movq	%rdi, -24(%rbp)
Ltmp382:
	.loc	1 856 24 prologue_end
	movq	%rdi, -16(%rbp)
	.loc	1 856 22 is_stmt 0
	movq	%rdi, -8(%rbp)
Ltmp383:
	.loc	12 1623 28 is_stmt 1
	movq	$0, -32(%rbp)
	.loc	12 1623 9 is_stmt 0
	movq	-32(%rbp), %rsi
	callq	__ZN4core3mem7replace17hbfcd44baf1504985E
Ltmp384:
	.loc	1 857 10 is_stmt 1
	addq	$32, %rsp
	popq	%rbp
	retq
Ltmp385:
Lfunc_end40:
	.cfi_endproc

	.globl	__ZN3std6thread5local4lazy21LazyKeyInner$LT$T$GT$4take17hf5066f9565fe22b2E
	.p2align	4, 0x90
__ZN3std6thread5local4lazy21LazyKeyInner$LT$T$GT$4take17hf5066f9565fe22b2E:
Lfunc_begin41:
	.loc	1 854 0
	.cfi_startproc
	pushq	%rbp
	.cfi_def_cfa_offset 16
	.cfi_offset %rbp, -16
	movq	%rsp, %rbp
	.cfi_def_cfa_register %rbp
	subq	$48, %rsp
	movq	%rdi, -24(%rbp)
Ltmp386:
	.loc	1 856 24 prologue_end
	movq	%rdi, -16(%rbp)
	.loc	1 856 22 is_stmt 0
	movq	%rdi, -8(%rbp)
Ltmp387:
	.loc	12 1623 28 is_stmt 1
	movq	$0, -40(%rbp)
	.loc	12 1623 9 is_stmt 0
	movq	-40(%rbp), %rsi
	movq	-32(%rbp), %rdx
	callq	__ZN4core3mem7replace17hd1a14b32db219abcE
Ltmp388:
	.loc	1 857 10 is_stmt 1
	addq	$48, %rsp
	popq	%rbp
	retq
Ltmp389:
Lfunc_end41:
	.cfi_endproc

	.globl	__ZN3std9panicking3try17h0286c0a12e6fcdacE
	.p2align	4, 0x90
__ZN3std9panicking3try17h0286c0a12e6fcdacE:
Lfunc_begin42:
	.file	17 "/rustc/2c8cc343237b8f7d5a3c3703e3a87f2eb2c54a74/library/std/src" "panicking.rs"
	.loc	17 403 0
	.cfi_startproc
	pushq	%rbp
	.cfi_def_cfa_offset 16
	.cfi_offset %rbp, -16
	movq	%rsp, %rbp
	.cfi_def_cfa_register %rbp
	subq	$96, %rsp
	movq	%rdi, -56(%rbp)
Ltmp390:
	.loc	17 434 48 prologue_end
	movq	%rdi, -40(%rbp)
Ltmp391:
	.loc	8 71 9
	movq	%rdi, -64(%rbp)
Ltmp392:
	.loc	17 434 20
	movq	-64(%rbp), %rax
	movq	%rax, -80(%rbp)
Ltmp393:
	.loc	17 436 20
	leaq	-80(%rbp), %rax
	movq	%rax, -32(%rbp)
Ltmp394:
	.loc	17 447 19
	leaq	__ZN3std9panicking3try7do_call17h48c47bb53bb9d30cE(%rip), %rdi
	leaq	-80(%rbp), %rsi
	leaq	__ZN3std9panicking3try8do_catch17h686870359a0ac3bbE(%rip), %rdx
	callq	___rust_try
	movl	%eax, -20(%rbp)
	cmpl	$0, -20(%rbp)
	jne	LBB42_2
	.loc	17 448 13
	movq	$0, -96(%rbp)
	.loc	17 447 16
	jmp	LBB42_3
LBB42_2:
	.loc	17 450 42
	movq	-80(%rbp), %rcx
	movq	-72(%rbp), %rax
	movq	%rcx, -16(%rbp)
	movq	%rax, -8(%rbp)
	.loc	17 450 13 is_stmt 0
	movq	%rcx, -96(%rbp)
	movq	%rax, -88(%rbp)
Ltmp395:
LBB42_3:
	.loc	17 512 2 is_stmt 1
	movq	-96(%rbp), %rax
	movq	-88(%rbp), %rdx
	addq	$96, %rsp
	popq	%rbp
	retq
Ltmp396:
Lfunc_end42:
	.cfi_endproc

	.globl	__ZN3std9panicking3try17h79fd632ea1405401E
	.p2align	4, 0x90
__ZN3std9panicking3try17h79fd632ea1405401E:
Lfunc_begin43:
	.loc	17 403 0
	.cfi_startproc
	pushq	%rbp
	.cfi_def_cfa_offset 16
	.cfi_offset %rbp, -16
	movq	%rsp, %rbp
	.cfi_def_cfa_register %rbp
	subq	$96, %rsp
	movq	%rdi, -56(%rbp)
Ltmp397:
	.loc	17 434 48 prologue_end
	movq	%rdi, -40(%rbp)
Ltmp398:
	.loc	8 71 9
	movq	%rdi, -64(%rbp)
Ltmp399:
	.loc	17 434 20
	movq	-64(%rbp), %rax
	movq	%rax, -80(%rbp)
Ltmp400:
	.loc	17 436 20
	leaq	-80(%rbp), %rax
	movq	%rax, -32(%rbp)
Ltmp401:
	.loc	17 447 19
	leaq	__ZN3std9panicking3try7do_call17he6cf6c9ce604c61fE(%rip), %rdi
	leaq	-80(%rbp), %rsi
	leaq	__ZN3std9panicking3try8do_catch17h36a7aa61a29996eeE(%rip), %rdx
	callq	___rust_try
	movl	%eax, -20(%rbp)
	cmpl	$0, -20(%rbp)
	jne	LBB43_2
	.loc	17 448 13
	movq	$0, -96(%rbp)
	.loc	17 447 16
	jmp	LBB43_3
LBB43_2:
	.loc	17 450 42
	movq	-80(%rbp), %rcx
	movq	-72(%rbp), %rax
	movq	%rcx, -16(%rbp)
	movq	%rax, -8(%rbp)
	.loc	17 450 13 is_stmt 0
	movq	%rcx, -96(%rbp)
	movq	%rax, -88(%rbp)
Ltmp402:
LBB43_3:
	.loc	17 512 2 is_stmt 1
	movq	-96(%rbp), %rax
	movq	-88(%rbp), %rdx
	addq	$96, %rsp
	popq	%rbp
	retq
Ltmp403:
Lfunc_end43:
	.cfi_endproc

	.globl	__ZN3std9panicking3try17hd03f7ef282ea9b28E
	.p2align	4, 0x90
__ZN3std9panicking3try17hd03f7ef282ea9b28E:
Lfunc_begin44:
	.loc	17 403 0
	.cfi_startproc
	pushq	%rbp
	.cfi_def_cfa_offset 16
	.cfi_offset %rbp, -16
	movq	%rsp, %rbp
	.cfi_def_cfa_register %rbp
	subq	$96, %rsp
	movq	%rdi, -56(%rbp)
Ltmp404:
	.loc	17 434 48 prologue_end
	movq	%rdi, -40(%rbp)
Ltmp405:
	.loc	8 71 9
	movq	%rdi, -64(%rbp)
Ltmp406:
	.loc	17 434 20
	movq	-64(%rbp), %rax
	movq	%rax, -80(%rbp)
Ltmp407:
	.loc	17 436 20
	leaq	-80(%rbp), %rax
	movq	%rax, -32(%rbp)
Ltmp408:
	.loc	17 447 19
	leaq	__ZN3std9panicking3try7do_call17h3902326d90a6245dE(%rip), %rdi
	leaq	-80(%rbp), %rsi
	leaq	__ZN3std9panicking3try8do_catch17h746f09c41ddd4da5E(%rip), %rdx
	callq	___rust_try
	movl	%eax, -20(%rbp)
	cmpl	$0, -20(%rbp)
	jne	LBB44_2
	.loc	17 448 13
	movq	$0, -96(%rbp)
	.loc	17 447 16
	jmp	LBB44_3
LBB44_2:
	.loc	17 450 42
	movq	-80(%rbp), %rcx
	movq	-72(%rbp), %rax
	movq	%rcx, -16(%rbp)
	movq	%rax, -8(%rbp)
	.loc	17 450 13 is_stmt 0
	movq	%rcx, -96(%rbp)
	movq	%rax, -88(%rbp)
Ltmp409:
LBB44_3:
	.loc	17 512 2 is_stmt 1
	movq	-96(%rbp), %rax
	movq	-88(%rbp), %rdx
	addq	$96, %rsp
	popq	%rbp
	retq
Ltmp410:
Lfunc_end44:
	.cfi_endproc

	.globl	__ZN3std9panicking3try7do_call17h3902326d90a6245dE
	.p2align	4, 0x90
__ZN3std9panicking3try7do_call17h3902326d90a6245dE:
Lfunc_begin45:
	.loc	17 477 0
	.cfi_startproc
	pushq	%rbp
	.cfi_def_cfa_offset 16
	.cfi_offset %rbp, -16
	movq	%rsp, %rbp
	.cfi_def_cfa_register %rbp
	subq	$96, %rsp
	movq	%rdi, -80(%rbp)
Ltmp411:
	.loc	17 480 24 prologue_end
	movq	%rdi, -64(%rbp)
Ltmp412:
	.loc	17 481 24
	movq	%rdi, -56(%rbp)
Ltmp413:
	.loc	17 482 40
	movq	%rdi, -48(%rbp)
Ltmp414:
	.loc	8 113 28
	movq	%rdi, -40(%rbp)
Ltmp415:
	.file	18 "/rustc/2c8cc343237b8f7d5a3c3703e3a87f2eb2c54a74/library/core/src/ptr" "mod.rs"
	.loc	18 1157 34
	leaq	-88(%rbp), %rax
	movq	%rax, -32(%rbp)
	.loc	18 1157 9 is_stmt 0
	movq	(%rdi), %rax
	movq	%rax, -88(%rbp)
	.loc	18 1158 9 is_stmt 1
	movq	-88(%rbp), %rdi
	movq	%rdi, -24(%rbp)
Ltmp416:
	.loc	7 627 38
	movq	%rdi, -16(%rbp)
Ltmp417:
	.loc	8 89 9
	movq	%rdi, -8(%rbp)
Ltmp418:
	.loc	17 483 40
	callq	__ZN115_$LT$core..panic..unwind_safe..AssertUnwindSafe$LT$F$GT$$u20$as$u20$core..ops..function..FnOnce$LT$$LP$$RP$$GT$$GT$9call_once17hd36aa9ae9b624241E
Ltmp419:
	.loc	17 485 6
	addq	$96, %rsp
	popq	%rbp
	retq
Ltmp420:
Lfunc_end45:
	.cfi_endproc

	.globl	__ZN3std9panicking3try7do_call17h48c47bb53bb9d30cE
	.p2align	4, 0x90
__ZN3std9panicking3try7do_call17h48c47bb53bb9d30cE:
Lfunc_begin46:
	.loc	17 477 0
	.cfi_startproc
	pushq	%rbp
	.cfi_def_cfa_offset 16
	.cfi_offset %rbp, -16
	movq	%rsp, %rbp
	.cfi_def_cfa_register %rbp
	subq	$96, %rsp
	movq	%rdi, -80(%rbp)
Ltmp421:
	.loc	17 480 24 prologue_end
	movq	%rdi, -64(%rbp)
Ltmp422:
	.loc	17 481 24
	movq	%rdi, -56(%rbp)
Ltmp423:
	.loc	17 482 40
	movq	%rdi, -48(%rbp)
Ltmp424:
	.loc	8 113 28
	movq	%rdi, -40(%rbp)
Ltmp425:
	.loc	18 1157 34
	leaq	-88(%rbp), %rax
	movq	%rax, -32(%rbp)
	.loc	18 1157 9 is_stmt 0
	movq	(%rdi), %rax
	movq	%rax, -88(%rbp)
	.loc	18 1158 9 is_stmt 1
	movq	-88(%rbp), %rdi
	movq	%rdi, -24(%rbp)
Ltmp426:
	.loc	7 627 38
	movq	%rdi, -16(%rbp)
Ltmp427:
	.loc	8 89 9
	movq	%rdi, -8(%rbp)
Ltmp428:
	.loc	17 483 40
	callq	__ZN115_$LT$core..panic..unwind_safe..AssertUnwindSafe$LT$F$GT$$u20$as$u20$core..ops..function..FnOnce$LT$$LP$$RP$$GT$$GT$9call_once17he6da56b422dad4e7E
Ltmp429:
	.loc	17 485 6
	addq	$96, %rsp
	popq	%rbp
	retq
Ltmp430:
Lfunc_end46:
	.cfi_endproc

	.globl	__ZN3std9panicking3try7do_call17he6cf6c9ce604c61fE
	.p2align	4, 0x90
__ZN3std9panicking3try7do_call17he6cf6c9ce604c61fE:
Lfunc_begin47:
	.loc	17 477 0
	.cfi_startproc
	pushq	%rbp
	.cfi_def_cfa_offset 16
	.cfi_offset %rbp, -16
	movq	%rsp, %rbp
	.cfi_def_cfa_register %rbp
	subq	$96, %rsp
	movq	%rdi, -80(%rbp)
Ltmp431:
	.loc	17 480 24 prologue_end
	movq	%rdi, -64(%rbp)
Ltmp432:
	.loc	17 481 24
	movq	%rdi, -56(%rbp)
Ltmp433:
	.loc	17 482 40
	movq	%rdi, -48(%rbp)
Ltmp434:
	.loc	8 113 28
	movq	%rdi, -40(%rbp)
Ltmp435:
	.loc	18 1157 34
	leaq	-88(%rbp), %rax
	movq	%rax, -32(%rbp)
	.loc	18 1157 9 is_stmt 0
	movq	(%rdi), %rax
	movq	%rax, -88(%rbp)
	.loc	18 1158 9 is_stmt 1
	movq	-88(%rbp), %rdi
	movq	%rdi, -24(%rbp)
Ltmp436:
	.loc	7 627 38
	movq	%rdi, -16(%rbp)
Ltmp437:
	.loc	8 89 9
	movq	%rdi, -8(%rbp)
Ltmp438:
	.loc	17 483 40
	callq	__ZN115_$LT$core..panic..unwind_safe..AssertUnwindSafe$LT$F$GT$$u20$as$u20$core..ops..function..FnOnce$LT$$LP$$RP$$GT$$GT$9call_once17he8e076cc9d014427E
Ltmp439:
	.loc	17 485 6
	addq	$96, %rsp
	popq	%rbp
	retq
Ltmp440:
Lfunc_end47:
	.cfi_endproc

	.globl	__ZN3std9panicking3try8do_catch17h36a7aa61a29996eeE
	.p2align	4, 0x90
__ZN3std9panicking3try8do_catch17h36a7aa61a29996eeE:
Lfunc_begin48:
	.loc	17 499 0
	.cfi_startproc
	pushq	%rbp
	.cfi_def_cfa_offset 16
	.cfi_offset %rbp, -16
	movq	%rsp, %rbp
	.cfi_def_cfa_register %rbp
	subq	$96, %rsp
	movq	%rsi, -96(%rbp)
	movq	%rdi, %rax
	movq	-96(%rbp), %rdi
	movq	%rax, -88(%rbp)
	movq	%rax, -64(%rbp)
	movq	%rdi, -56(%rbp)
Ltmp441:
	.loc	17 506 24 prologue_end
	movq	%rax, -48(%rbp)
Ltmp442:
	.loc	17 507 24
	movq	%rax, -40(%rbp)
Ltmp443:
	.loc	17 508 23
	callq	__ZN3std9panicking3try7cleanup17h75e8c286968d572cE
	movq	-88(%rbp), %rdi
	movq	%rax, -32(%rbp)
	movq	%rdx, -24(%rbp)
Ltmp444:
	.loc	17 509 40
	movq	%rax, -16(%rbp)
	movq	%rdx, -8(%rbp)
Ltmp445:
	.loc	8 71 9
	movq	%rax, -80(%rbp)
	movq	%rdx, -72(%rbp)
Ltmp446:
	.loc	17 509 13
	movq	-80(%rbp), %rcx
	movq	-72(%rbp), %rax
	movq	%rcx, (%rdi)
	movq	%rax, 8(%rdi)
Ltmp447:
	.loc	17 511 6
	addq	$96, %rsp
	popq	%rbp
	retq
Ltmp448:
Lfunc_end48:
	.cfi_endproc

	.globl	__ZN3std9panicking3try8do_catch17h686870359a0ac3bbE
	.p2align	4, 0x90
__ZN3std9panicking3try8do_catch17h686870359a0ac3bbE:
Lfunc_begin49:
	.loc	17 499 0
	.cfi_startproc
	pushq	%rbp
	.cfi_def_cfa_offset 16
	.cfi_offset %rbp, -16
	movq	%rsp, %rbp
	.cfi_def_cfa_register %rbp
	subq	$96, %rsp
	movq	%rsi, -96(%rbp)
	movq	%rdi, %rax
	movq	-96(%rbp), %rdi
	movq	%rax, -88(%rbp)
	movq	%rax, -64(%rbp)
	movq	%rdi, -56(%rbp)
Ltmp449:
	.loc	17 506 24 prologue_end
	movq	%rax, -48(%rbp)
Ltmp450:
	.loc	17 507 24
	movq	%rax, -40(%rbp)
Ltmp451:
	.loc	17 508 23
	callq	__ZN3std9panicking3try7cleanup17h75e8c286968d572cE
	movq	-88(%rbp), %rdi
	movq	%rax, -32(%rbp)
	movq	%rdx, -24(%rbp)
Ltmp452:
	.loc	17 509 40
	movq	%rax, -16(%rbp)
	movq	%rdx, -8(%rbp)
Ltmp453:
	.loc	8 71 9
	movq	%rax, -80(%rbp)
	movq	%rdx, -72(%rbp)
Ltmp454:
	.loc	17 509 13
	movq	-80(%rbp), %rcx
	movq	-72(%rbp), %rax
	movq	%rcx, (%rdi)
	movq	%rax, 8(%rdi)
Ltmp455:
	.loc	17 511 6
	addq	$96, %rsp
	popq	%rbp
	retq
Ltmp456:
Lfunc_end49:
	.cfi_endproc

	.globl	__ZN3std9panicking3try8do_catch17h746f09c41ddd4da5E
	.p2align	4, 0x90
__ZN3std9panicking3try8do_catch17h746f09c41ddd4da5E:
Lfunc_begin50:
	.loc	17 499 0
	.cfi_startproc
	pushq	%rbp
	.cfi_def_cfa_offset 16
	.cfi_offset %rbp, -16
	movq	%rsp, %rbp
	.cfi_def_cfa_register %rbp
	subq	$96, %rsp
	movq	%rsi, -96(%rbp)
	movq	%rdi, %rax
	movq	-96(%rbp), %rdi
	movq	%rax, -88(%rbp)
	movq	%rax, -64(%rbp)
	movq	%rdi, -56(%rbp)
Ltmp457:
	.loc	17 506 24 prologue_end
	movq	%rax, -48(%rbp)
Ltmp458:
	.loc	17 507 24
	movq	%rax, -40(%rbp)
Ltmp459:
	.loc	17 508 23
	callq	__ZN3std9panicking3try7cleanup17h75e8c286968d572cE
	movq	-88(%rbp), %rdi
	movq	%rax, -32(%rbp)
	movq	%rdx, -24(%rbp)
Ltmp460:
	.loc	17 509 40
	movq	%rax, -16(%rbp)
	movq	%rdx, -8(%rbp)
Ltmp461:
	.loc	8 71 9
	movq	%rax, -80(%rbp)
	movq	%rdx, -72(%rbp)
Ltmp462:
	.loc	17 509 13
	movq	-80(%rbp), %rcx
	movq	-72(%rbp), %rax
	movq	%rcx, (%rdi)
	movq	%rax, 8(%rdi)
Ltmp463:
	.loc	17 511 6
	addq	$96, %rsp
	popq	%rbp
	retq
Ltmp464:
Lfunc_end50:
	.cfi_endproc

	.globl	__ZN42_$LT$$RF$T$u20$as$u20$core..fmt..Debug$GT$3fmt17h01a2bdab2a283ae2E
	.p2align	4, 0x90
__ZN42_$LT$$RF$T$u20$as$u20$core..fmt..Debug$GT$3fmt17h01a2bdab2a283ae2E:
Lfunc_begin51:
	.loc	15 2377 0
	.cfi_startproc
	pushq	%rbp
	.cfi_def_cfa_offset 16
	.cfi_offset %rbp, -16
	movq	%rsp, %rbp
	.cfi_def_cfa_register %rbp
	subq	$16, %rsp
	movq	%rdi, -16(%rbp)
	movq	%rsi, -8(%rbp)
Ltmp465:
	.loc	15 2377 71 prologue_end
	movq	(%rdi), %rdi
	.loc	15 2377 62 is_stmt 0
	callq	__ZN56_$LT$std..thread..Thread$u20$as$u20$core..fmt..Debug$GT$3fmt17h3b8f4be8050e1ef9E
	.loc	15 2377 84
	andb	$1, %al
	movzbl	%al, %eax
	addq	$16, %rsp
	popq	%rbp
	retq
Ltmp466:
Lfunc_end51:
	.cfi_endproc

	.globl	__ZN42_$LT$$RF$T$u20$as$u20$core..fmt..Debug$GT$3fmt17h01e40092a6ee7141E
	.p2align	4, 0x90
__ZN42_$LT$$RF$T$u20$as$u20$core..fmt..Debug$GT$3fmt17h01e40092a6ee7141E:
Lfunc_begin52:
	.loc	15 2377 0 is_stmt 1
	.cfi_startproc
	pushq	%rbp
	.cfi_def_cfa_offset 16
	.cfi_offset %rbp, -16
	movq	%rsp, %rbp
	.cfi_def_cfa_register %rbp
	subq	$16, %rsp
	movq	%rdi, -16(%rbp)
	movq	%rsi, -8(%rbp)
Ltmp467:
	.loc	15 2377 71 prologue_end
	movq	(%rdi), %rdi
	.loc	15 2377 62 is_stmt 0
	callq	__ZN80_$LT$crossbeam_channel..flavors..list..ListToken$u20$as$u20$core..fmt..Debug$GT$3fmt17h19d3dbeae2e201afE
	.loc	15 2377 84
	andb	$1, %al
	movzbl	%al, %eax
	addq	$16, %rsp
	popq	%rbp
	retq
Ltmp468:
Lfunc_end52:
	.cfi_endproc

	.globl	__ZN42_$LT$$RF$T$u20$as$u20$core..fmt..Debug$GT$3fmt17h1ca1f5e14082bef6E
	.p2align	4, 0x90
__ZN42_$LT$$RF$T$u20$as$u20$core..fmt..Debug$GT$3fmt17h1ca1f5e14082bef6E:
Lfunc_begin53:
	.loc	15 2377 0 is_stmt 1
	.cfi_startproc
	pushq	%rbp
	.cfi_def_cfa_offset 16
	.cfi_offset %rbp, -16
	movq	%rsp, %rbp
	.cfi_def_cfa_register %rbp
	subq	$16, %rsp
	movq	%rdi, -16(%rbp)
	movq	%rsi, -8(%rbp)
Ltmp469:
	.loc	15 2377 71 prologue_end
	movq	(%rdi), %rdi
	.loc	15 2377 62 is_stmt 0
	callq	__ZN68_$LT$core..sync..atomic..AtomicUsize$u20$as$u20$core..fmt..Debug$GT$3fmt17hdbca57d1da936e5cE
	.loc	15 2377 84
	andb	$1, %al
	movzbl	%al, %eax
	addq	$16, %rsp
	popq	%rbp
	retq
Ltmp470:
Lfunc_end53:
	.cfi_endproc

	.globl	__ZN42_$LT$$RF$T$u20$as$u20$core..fmt..Debug$GT$3fmt17h311c4b8aa34db9d0E
	.p2align	4, 0x90
__ZN42_$LT$$RF$T$u20$as$u20$core..fmt..Debug$GT$3fmt17h311c4b8aa34db9d0E:
Lfunc_begin54:
	.loc	15 2377 0 is_stmt 1
	.cfi_startproc
	pushq	%rbp
	.cfi_def_cfa_offset 16
	.cfi_offset %rbp, -16
	movq	%rsp, %rbp
	.cfi_def_cfa_register %rbp
	subq	$16, %rsp
	movq	%rdi, -16(%rbp)
	movq	%rsi, -8(%rbp)
Ltmp471:
	.loc	15 2377 71 prologue_end
	movq	(%rdi), %rdi
	.loc	15 2377 62 is_stmt 0
	callq	__ZN62_$LT$alloc..sync..Arc$LT$T$GT$$u20$as$u20$core..fmt..Debug$GT$3fmt17hfd494b383ae5a7faE
	.loc	15 2377 84
	andb	$1, %al
	movzbl	%al, %eax
	addq	$16, %rsp
	popq	%rbp
	retq
Ltmp472:
Lfunc_end54:
	.cfi_endproc

	.globl	__ZN42_$LT$$RF$T$u20$as$u20$core..fmt..Debug$GT$3fmt17h369050773449e0bdE
	.p2align	4, 0x90
__ZN42_$LT$$RF$T$u20$as$u20$core..fmt..Debug$GT$3fmt17h369050773449e0bdE:
Lfunc_begin55:
	.loc	15 2377 0 is_stmt 1
	.cfi_startproc
	pushq	%rbp
	.cfi_def_cfa_offset 16
	.cfi_offset %rbp, -16
	movq	%rsp, %rbp
	.cfi_def_cfa_register %rbp
	subq	$16, %rsp
	movq	%rdi, -16(%rbp)
	movq	%rsi, -8(%rbp)
Ltmp473:
	.loc	15 2377 71 prologue_end
	movq	(%rdi), %rdi
	.loc	15 2377 62 is_stmt 0
	callq	__ZN80_$LT$crossbeam_channel..flavors..zero..ZeroToken$u20$as$u20$core..fmt..Debug$GT$3fmt17h1a3e140c3d619130E
	.loc	15 2377 84
	andb	$1, %al
	movzbl	%al, %eax
	addq	$16, %rsp
	popq	%rbp
	retq
Ltmp474:
Lfunc_end55:
	.cfi_endproc

	.globl	__ZN42_$LT$$RF$T$u20$as$u20$core..fmt..Debug$GT$3fmt17h56fd30fa81031b63E
	.p2align	4, 0x90
__ZN42_$LT$$RF$T$u20$as$u20$core..fmt..Debug$GT$3fmt17h56fd30fa81031b63E:
Lfunc_begin56:
	.loc	15 2377 0 is_stmt 1
	.cfi_startproc
	pushq	%rbp
	.cfi_def_cfa_offset 16
	.cfi_offset %rbp, -16
	movq	%rsp, %rbp
	.cfi_def_cfa_register %rbp
	subq	$16, %rsp
	movq	%rdi, -16(%rbp)
	movq	%rsi, -8(%rbp)
Ltmp475:
	.loc	15 2377 71 prologue_end
	movq	(%rdi), %rdi
	.loc	15 2377 62 is_stmt 0
	callq	__ZN55_$LT$std..time..Instant$u20$as$u20$core..fmt..Debug$GT$3fmt17h0c229af8d3f19e7eE
	.loc	15 2377 84
	andb	$1, %al
	movzbl	%al, %eax
	addq	$16, %rsp
	popq	%rbp
	retq
Ltmp476:
Lfunc_end56:
	.cfi_endproc

	.globl	__ZN42_$LT$$RF$T$u20$as$u20$core..fmt..Debug$GT$3fmt17h765d238527923873E
	.p2align	4, 0x90
__ZN42_$LT$$RF$T$u20$as$u20$core..fmt..Debug$GT$3fmt17h765d238527923873E:
Lfunc_begin57:
	.loc	15 2377 0 is_stmt 1
	.cfi_startproc
	pushq	%rbp
	.cfi_def_cfa_offset 16
	.cfi_offset %rbp, -16
	movq	%rsp, %rbp
	.cfi_def_cfa_register %rbp
	subq	$16, %rsp
	movq	%rdi, -16(%rbp)
	movq	%rsi, -8(%rbp)
Ltmp477:
	.loc	15 2377 71 prologue_end
	movq	(%rdi), %rdi
	.loc	15 2377 62 is_stmt 0
	callq	__ZN45_$LT$$LP$$RP$$u20$as$u20$core..fmt..Debug$GT$3fmt17h5c3ca7a19043a204E
	.loc	15 2377 84
	andb	$1, %al
	movzbl	%al, %eax
	addq	$16, %rsp
	popq	%rbp
	retq
Ltmp478:
Lfunc_end57:
	.cfi_endproc

	.globl	__ZN42_$LT$$RF$T$u20$as$u20$core..fmt..Debug$GT$3fmt17h816053af0ed0789eE
	.p2align	4, 0x90
__ZN42_$LT$$RF$T$u20$as$u20$core..fmt..Debug$GT$3fmt17h816053af0ed0789eE:
Lfunc_begin58:
	.loc	15 2377 0 is_stmt 1
	.cfi_startproc
	pushq	%rbp
	.cfi_def_cfa_offset 16
	.cfi_offset %rbp, -16
	movq	%rsp, %rbp
	.cfi_def_cfa_register %rbp
	subq	$16, %rsp
	movq	%rdi, -16(%rbp)
	movq	%rsi, -8(%rbp)
Ltmp479:
	.loc	15 2377 71 prologue_end
	movq	(%rdi), %rdi
	.loc	15 2377 62 is_stmt 0
	callq	__ZN82_$LT$crossbeam_channel..flavors..array..ArrayToken$u20$as$u20$core..fmt..Debug$GT$3fmt17h331c151b78b43029E
	.loc	15 2377 84
	andb	$1, %al
	movzbl	%al, %eax
	addq	$16, %rsp
	popq	%rbp
	retq
Ltmp480:
Lfunc_end58:
	.cfi_endproc

	.globl	__ZN42_$LT$$RF$T$u20$as$u20$core..fmt..Debug$GT$3fmt17hafcbcbb9b7808885E
	.p2align	4, 0x90
__ZN42_$LT$$RF$T$u20$as$u20$core..fmt..Debug$GT$3fmt17hafcbcbb9b7808885E:
Lfunc_begin59:
	.loc	15 2377 0 is_stmt 1
	.cfi_startproc
	pushq	%rbp
	.cfi_def_cfa_offset 16
	.cfi_offset %rbp, -16
	movq	%rsp, %rbp
	.cfi_def_cfa_register %rbp
	subq	$16, %rsp
	movq	%rdi, -16(%rbp)
	movq	%rsi, -8(%rbp)
Ltmp481:
	.loc	15 2377 71 prologue_end
	movq	(%rdi), %rdi
	.loc	15 2377 62 is_stmt 0
	callq	__ZN75_$LT$core..sync..atomic..AtomicPtr$LT$T$GT$$u20$as$u20$core..fmt..Debug$GT$3fmt17ha32c63a55304c6e3E
	.loc	15 2377 84
	andb	$1, %al
	movzbl	%al, %eax
	addq	$16, %rsp
	popq	%rbp
	retq
Ltmp482:
Lfunc_end59:
	.cfi_endproc

	.globl	__ZN42_$LT$$RF$T$u20$as$u20$core..fmt..Debug$GT$3fmt17hc8051b34d90064d1E
	.p2align	4, 0x90
__ZN42_$LT$$RF$T$u20$as$u20$core..fmt..Debug$GT$3fmt17hc8051b34d90064d1E:
Lfunc_begin60:
	.loc	15 2377 0 is_stmt 1
	.cfi_startproc
	pushq	%rbp
	.cfi_def_cfa_offset 16
	.cfi_offset %rbp, -16
	movq	%rsp, %rbp
	.cfi_def_cfa_register %rbp
	subq	$16, %rsp
	movq	%rdi, -16(%rbp)
	movq	%rsi, -8(%rbp)
Ltmp483:
	.loc	15 2377 71 prologue_end
	movq	(%rdi), %rdi
	.loc	15 2377 62 is_stmt 0
	callq	__ZN58_$LT$std..thread..ThreadId$u20$as$u20$core..fmt..Debug$GT$3fmt17h74c6702438361bf2E
	.loc	15 2377 84
	andb	$1, %al
	movzbl	%al, %eax
	addq	$16, %rsp
	popq	%rbp
	retq
Ltmp484:
Lfunc_end60:
	.cfi_endproc

	.globl	__ZN42_$LT$$RF$T$u20$as$u20$core..fmt..Debug$GT$3fmt17hd2a539eb32362abfE
	.p2align	4, 0x90
__ZN42_$LT$$RF$T$u20$as$u20$core..fmt..Debug$GT$3fmt17hd2a539eb32362abfE:
Lfunc_begin61:
	.loc	15 2377 0 is_stmt 1
	.cfi_startproc
	pushq	%rbp
	.cfi_def_cfa_offset 16
	.cfi_offset %rbp, -16
	movq	%rsp, %rbp
	.cfi_def_cfa_register %rbp
	subq	$16, %rsp
	movq	%rdi, -16(%rbp)
	movq	%rsi, -8(%rbp)
Ltmp485:
	.loc	15 2377 71 prologue_end
	movq	(%rdi), %rdi
	.loc	15 2377 62 is_stmt 0
	callq	__ZN73_$LT$crossbeam_channel..select..Operation$u20$as$u20$core..fmt..Debug$GT$3fmt17h08ce3b329b9ed5f8E
	.loc	15 2377 84
	andb	$1, %al
	movzbl	%al, %eax
	addq	$16, %rsp
	popq	%rbp
	retq
Ltmp486:
Lfunc_end61:
	.cfi_endproc

	.globl	__ZN42_$LT$$RF$T$u20$as$u20$core..fmt..Debug$GT$3fmt17hded179139651acc4E
	.p2align	4, 0x90
__ZN42_$LT$$RF$T$u20$as$u20$core..fmt..Debug$GT$3fmt17hded179139651acc4E:
Lfunc_begin62:
	.loc	15 2377 0 is_stmt 1
	.cfi_startproc
	pushq	%rbp
	.cfi_def_cfa_offset 16
	.cfi_offset %rbp, -16
	movq	%rsp, %rbp
	.cfi_def_cfa_register %rbp
	subq	$16, %rsp
	movq	%rdi, -16(%rbp)
	movq	%rsi, -8(%rbp)
Ltmp487:
	.loc	15 2377 71 prologue_end
	movq	(%rdi), %rdi
	.loc	15 2377 62 is_stmt 0
	callq	__ZN66_$LT$core..option..Option$LT$T$GT$$u20$as$u20$core..fmt..Debug$GT$3fmt17hed8b0e3178ba1523E
	.loc	15 2377 84
	andb	$1, %al
	movzbl	%al, %eax
	addq	$16, %rsp
	popq	%rbp
	retq
Ltmp488:
Lfunc_end62:
	.cfi_endproc

	.globl	__ZN42_$LT$$RF$T$u20$as$u20$core..fmt..Debug$GT$3fmt17he7c39f9c3afb901bE
	.p2align	4, 0x90
__ZN42_$LT$$RF$T$u20$as$u20$core..fmt..Debug$GT$3fmt17he7c39f9c3afb901bE:
Lfunc_begin63:
	.loc	15 2377 0 is_stmt 1
	.cfi_startproc
	pushq	%rbp
	.cfi_def_cfa_offset 16
	.cfi_offset %rbp, -16
	movq	%rsp, %rbp
	.cfi_def_cfa_register %rbp
	subq	$16, %rsp
	movq	%rdi, -16(%rbp)
	movq	%rsi, -8(%rbp)
Ltmp489:
	.loc	15 2377 71 prologue_end
	movq	(%rdi), %rdi
	.loc	15 2377 62 is_stmt 0
	callq	__ZN52_$LT$$BP$const$u20$T$u20$as$u20$core..fmt..Debug$GT$3fmt17h15d0252f6577d2f0E
	.loc	15 2377 84
	andb	$1, %al
	movzbl	%al, %eax
	addq	$16, %rsp
	popq	%rbp
	retq
Ltmp490:
Lfunc_end63:
	.cfi_endproc

	.p2align	4, 0x90
__ZN45_$LT$$LP$$RP$$u20$as$u20$core..fmt..Debug$GT$3fmt17h5c3ca7a19043a204E:
Lfunc_begin64:
	.loc	15 2610 0 is_stmt 1
	.cfi_startproc
	pushq	%rbp
	.cfi_def_cfa_offset 16
	.cfi_offset %rbp, -16
	movq	%rsp, %rbp
	.cfi_def_cfa_register %rbp
	subq	$32, %rsp
	movq	%rsi, -24(%rbp)
	movq	%rdi, %rax
	movq	-24(%rbp), %rdi
	movq	%rax, -16(%rbp)
	movq	%rdi, -8(%rbp)
Ltmp491:
	.loc	15 2611 9 prologue_end
	leaq	l___unnamed_22(%rip), %rsi
	movl	$2, %edx
	callq	__ZN4core3fmt9Formatter3pad17h322dee5343842323E
	.loc	15 2612 6
	andb	$1, %al
	movzbl	%al, %eax
	addq	$32, %rsp
	popq	%rbp
	retq
Ltmp492:
Lfunc_end64:
	.cfi_endproc

	.p2align	4, 0x90
__ZN47_$LT$i32$u20$as$u20$core..iter..range..Step$GT$17forward_unchecked17h351cde1a73bf5591E:
Lfunc_begin65:
	.file	19 "/rustc/2c8cc343237b8f7d5a3c3703e3a87f2eb2c54a74/library/core/src/iter" "range.rs"
	.loc	19 189 0
	.cfi_startproc
	pushq	%rbp
	.cfi_def_cfa_offset 16
	.cfi_offset %rbp, -16
	movq	%rsp, %rbp
	.cfi_def_cfa_register %rbp
	subq	$32, %rsp
	movl	%edi, -28(%rbp)
	movq	%rsi, -24(%rbp)
Ltmp493:
	.loc	19 191 22 prologue_end
	movl	%edi, -12(%rbp)
	.loc	19 191 42 is_stmt 0
	movl	%esi, %eax
	movl	%eax, -8(%rbp)
Ltmp494:
	.file	20 "/rustc/2c8cc343237b8f7d5a3c3703e3a87f2eb2c54a74/library/core/src/num" "int_macros.rs"
	.loc	20 460 22 is_stmt 1
	addl	%eax, %edi
	movl	%edi, -4(%rbp)
	movl	-4(%rbp), %eax
Ltmp495:
	.loc	19 192 10
	addq	$32, %rsp
	popq	%rbp
	retq
Ltmp496:
Lfunc_end65:
	.cfi_endproc

	.globl	__ZN4core3cmp10PartialOrd2ge17h3dc2a37e53056e98E
	.p2align	4, 0x90
__ZN4core3cmp10PartialOrd2ge17h3dc2a37e53056e98E:
Lfunc_begin66:
	.file	21 "/rustc/2c8cc343237b8f7d5a3c3703e3a87f2eb2c54a74/library/core/src" "cmp.rs"
	.loc	21 1152 0
	.cfi_startproc
	pushq	%rbp
	.cfi_def_cfa_offset 16
	.cfi_offset %rbp, -16
	movq	%rsp, %rbp
	.cfi_def_cfa_register %rbp
	subq	$32, %rsp
	movq	%rdi, -16(%rbp)
	movq	%rsi, -8(%rbp)
Ltmp497:
	.loc	21 1153 18 prologue_end
	callq	__ZN60_$LT$std..time..Instant$u20$as$u20$core..cmp..PartialOrd$GT$11partial_cmp17hbc434a599ae128b3E
	movb	%al, -17(%rbp)
	movl	$1, %eax
	xorl	%ecx, %ecx
	cmpb	$2, -17(%rbp)
	cmoveq	%rcx, %rax
	.loc	21 1153 9 is_stmt 0
	cmpq	$1, %rax
	jne	LBB66_2
	.loc	21 1153 18
	movb	-17(%rbp), %al
	.loc	21 1153 9
	subb	$2, %al
	jb	LBB66_3
	jmp	LBB66_2
LBB66_2:
	movb	$0, -18(%rbp)
	jmp	LBB66_4
LBB66_3:
	movb	$1, -18(%rbp)
LBB66_4:
	.loc	21 1154 6 is_stmt 1
	movb	-18(%rbp), %al
	andb	$1, %al
	movzbl	%al, %eax
	addq	$32, %rsp
	popq	%rbp
	retq
Ltmp498:
Lfunc_end66:
	.cfi_endproc

	.globl	__ZN4core3cmp3Ord3min17h288ba34680cffabcE
	.p2align	4, 0x90
__ZN4core3cmp3Ord3min17h288ba34680cffabcE:
Lfunc_begin67:
	.loc	21 826 0
	.cfi_startproc
	pushq	%rbp
	.cfi_def_cfa_offset 16
	.cfi_offset %rbp, -16
	movq	%rsp, %rbp
	.cfi_def_cfa_register %rbp
	subq	$16, %rsp
	movq	%rdi, -16(%rbp)
	movq	%rsi, -8(%rbp)
Ltmp499:
	.loc	21 833 13 prologue_end
	callq	__ZN4core3cmp6min_by17h798020e0aebe0dc8E
	.loc	21 841 6
	addq	$16, %rsp
	popq	%rbp
	retq
Ltmp500:
Lfunc_end67:
	.cfi_endproc

	.p2align	4, 0x90
__ZN4core3cmp5impls55_$LT$impl$u20$core..cmp..PartialOrd$u20$for$u20$i32$GT$2lt17hc0192f4a6486ec39E:
Lfunc_begin68:
	.loc	21 1441 0
	.cfi_startproc
	pushq	%rbp
	.cfi_def_cfa_offset 16
	.cfi_offset %rbp, -16
	movq	%rsp, %rbp
	.cfi_def_cfa_register %rbp
	subq	$16, %rsp
	movq	%rdi, -16(%rbp)
	movq	%rsi, -8(%rbp)
Ltmp501:
	.loc	21 1441 52 prologue_end
	movl	(%rdi), %eax
	cmpl	(%rsi), %eax
	setl	%al
	.loc	21 1441 72 is_stmt 0
	andb	$1, %al
	movzbl	%al, %eax
	addq	$16, %rsp
	popq	%rbp
	retq
Ltmp502:
Lfunc_end68:
	.cfi_endproc

	.p2align	4, 0x90
__ZN4core3cmp5impls55_$LT$impl$u20$core..cmp..PartialOrd$u20$for$u20$u64$GT$11partial_cmp17hf94f3e3fe13f7854E:
Lfunc_begin69:
	.loc	21 1437 0 is_stmt 1
	.cfi_startproc
	pushq	%rbp
	.cfi_def_cfa_offset 16
	.cfi_offset %rbp, -16
	movq	%rsp, %rbp
	.cfi_def_cfa_register %rbp
	subq	$56, %rsp
	movq	%rdi, -56(%rbp)
	movq	%rsi, -48(%rbp)
	movq	%rdi, -32(%rbp)
	movq	%rsi, -24(%rbp)
Ltmp503:
	.loc	21 1438 26 prologue_end
	movq	%rdi, -16(%rbp)
	.loc	21 1438 35 is_stmt 0
	movq	%rsi, -8(%rbp)
Ltmp504:
	.loc	21 1457 24 is_stmt 1
	movq	(%rdi), %rax
	cmpq	(%rsi), %rax
	jb	LBB69_2
	.loc	21 0 24 is_stmt 0
	movq	-48(%rbp), %rcx
	movq	-56(%rbp), %rax
	.loc	21 1458 29 is_stmt 1
	movq	(%rax), %rax
	cmpq	(%rcx), %rax
	je	LBB69_5
	jmp	LBB69_4
LBB69_2:
	.loc	21 1457 41
	movb	$-1, -33(%rbp)
Ltmp505:
LBB69_3:
	.loc	21 1438 21
	movb	-33(%rbp), %al
	movb	%al, -34(%rbp)
	.loc	21 1439 18
	movb	-34(%rbp), %al
	addq	$56, %rsp
	popq	%rbp
	retq
LBB69_4:
Ltmp506:
	.loc	21 1459 28
	movb	$1, -33(%rbp)
	.loc	21 1458 26
	jmp	LBB69_6
LBB69_5:
	.loc	21 1458 47 is_stmt 0
	movb	$0, -33(%rbp)
LBB69_6:
	.loc	21 1457 21 is_stmt 1
	jmp	LBB69_3
Ltmp507:
Lfunc_end69:
	.cfi_endproc

	.globl	__ZN4core3cmp6min_by17h798020e0aebe0dc8E
	.p2align	4, 0x90
__ZN4core3cmp6min_by17h798020e0aebe0dc8E:
Lfunc_begin70:
	.loc	21 1204 0
	.cfi_startproc
	.cfi_personality 155, _rust_eh_personality
	.cfi_lsda 16, Lexception20
	pushq	%rbp
	.cfi_def_cfa_offset 16
	.cfi_offset %rbp, -16
	movq	%rsp, %rbp
	.cfi_def_cfa_register %rbp
	subq	$96, %rsp
	movq	%rdi, -80(%rbp)
	movq	%rsi, -72(%rbp)
Ltmp511:
	.loc	21 1209 11 prologue_end
	movb	$1, -25(%rbp)
	movb	$1, -26(%rbp)
	leaq	-80(%rbp), %rax
	movq	%rax, -48(%rbp)
	leaq	-72(%rbp), %rax
	movq	%rax, -40(%rbp)
	movq	-48(%rbp), %rdi
	movq	-40(%rbp), %rsi
Ltmp508:
	callq	__ZN4core3ops8function6FnOnce9call_once17h6b9d1e4f83ab8678E
Ltmp509:
	movb	%al, -81(%rbp)
	jmp	LBB70_3
LBB70_1:
	.loc	21 1213 1
	jmp	LBB70_4
LBB70_2:
Ltmp510:
	.loc	21 0 1 is_stmt 0
	movq	%rax, %rcx
	movl	%edx, %eax
	movq	%rcx, -16(%rbp)
	movl	%eax, -8(%rbp)
	jmp	LBB70_1
LBB70_3:
	movb	-81(%rbp), %al
	.loc	21 1209 11 is_stmt 1
	movb	%al, -49(%rbp)
	movb	-49(%rbp), %al
	.loc	21 1209 5 is_stmt 0
	incb	%al
	subb	$2, %al
	jb	LBB70_6
	jmp	LBB70_15
LBB70_15:
	jmp	LBB70_7
LBB70_4:
	.loc	21 1213 1 is_stmt 1
	testb	$1, -25(%rbp)
	jne	LBB70_12
	jmp	LBB70_11
	.loc	21 1209 11
	ud2
LBB70_6:
	.loc	21 1210 45
	movb	$0, -25(%rbp)
	movq	-80(%rbp), %rax
	movq	%rax, -64(%rbp)
	jmp	LBB70_8
LBB70_7:
	.loc	21 1211 30
	movb	$0, -26(%rbp)
	movq	-72(%rbp), %rax
	movq	%rax, -64(%rbp)
LBB70_8:
	.loc	21 1213 1
	testb	$1, -26(%rbp)
	jne	LBB70_10
LBB70_9:
	testb	$1, -25(%rbp)
	jne	LBB70_14
	jmp	LBB70_13
LBB70_10:
	jmp	LBB70_9
LBB70_11:
	.loc	21 1204 1
	movq	-16(%rbp), %rdi
	callq	__Unwind_Resume
LBB70_12:
	.loc	21 1213 1
	jmp	LBB70_11
LBB70_13:
	.loc	21 1213 2 is_stmt 0
	movq	-64(%rbp), %rax
	addq	$96, %rsp
	popq	%rbp
	retq
LBB70_14:
	.loc	21 1213 1
	jmp	LBB70_13
Ltmp512:
Lfunc_end70:
	.cfi_endproc
	.section	__TEXT,__gcc_except_tab
	.p2align	2
GCC_except_table70:
Lexception20:
	.byte	255
	.byte	255
	.byte	1
	.uleb128 Lcst_end20-Lcst_begin20
Lcst_begin20:
	.uleb128 Ltmp508-Lfunc_begin70
	.uleb128 Ltmp509-Ltmp508
	.uleb128 Ltmp510-Lfunc_begin70
	.byte	0
	.uleb128 Ltmp509-Lfunc_begin70
	.uleb128 Lfunc_end70-Ltmp509
	.byte	0
	.byte	0
Lcst_end20:
	.p2align	2

	.section	__TEXT,__text,regular,pure_instructions
	.globl	__ZN4core3cmp9PartialEq2ne17he39bdaac5705a41bE
	.p2align	4, 0x90
__ZN4core3cmp9PartialEq2ne17he39bdaac5705a41bE:
Lfunc_begin71:
	.loc	21 227 0 is_stmt 1
	.cfi_startproc
	pushq	%rbp
	.cfi_def_cfa_offset 16
	.cfi_offset %rbp, -16
	movq	%rsp, %rbp
	.cfi_def_cfa_register %rbp
	subq	$16, %rsp
	movq	%rdi, -16(%rbp)
	movq	%rsi, -8(%rbp)
Ltmp513:
	.loc	21 228 10 prologue_end
	callq	__ZN76_$LT$crossbeam_channel..select..Selected$u20$as$u20$core..cmp..PartialEq$GT$2eq17hff34202a1015699dE
	.loc	21 228 9 is_stmt 0
	xorb	$-1, %al
	.loc	21 229 6 is_stmt 1
	andb	$1, %al
	movzbl	%al, %eax
	addq	$16, %rsp
	popq	%rbp
	retq
Ltmp514:
Lfunc_end71:
	.cfi_endproc

	.p2align	4, 0x90
__ZN4core3fmt3num52_$LT$impl$u20$core..fmt..Debug$u20$for$u20$usize$GT$3fmt17h7411ef8a84f0d691E:
Lfunc_begin72:
	.file	22 "/rustc/2c8cc343237b8f7d5a3c3703e3a87f2eb2c54a74/library/core/src/fmt" "num.rs"
	.loc	22 185 0
	.cfi_startproc
	pushq	%rbp
	.cfi_def_cfa_offset 16
	.cfi_offset %rbp, -16
	movq	%rsp, %rbp
	.cfi_def_cfa_register %rbp
	subq	$48, %rsp
	movq	%rsi, -48(%rbp)
	movq	%rdi, %rax
	movq	-48(%rbp), %rdi
	movq	%rax, -40(%rbp)
	movq	%rdi, -32(%rbp)
	movq	%rax, -16(%rbp)
	movq	%rdi, -8(%rbp)
Ltmp515:
	.loc	22 186 20 prologue_end
	callq	__ZN4core3fmt9Formatter15debug_lower_hex17h0921e6b9188d914eE
	testb	$1, %al
	jne	LBB72_2
	.loc	22 0 20 is_stmt 0
	movq	-32(%rbp), %rdi
	.loc	22 188 27 is_stmt 1
	callq	__ZN4core3fmt9Formatter15debug_upper_hex17h8ce487049a6cccf8E
	testb	$1, %al
	jne	LBB72_5
	jmp	LBB72_4
LBB72_2:
	.loc	22 0 27 is_stmt 0
	movq	-32(%rbp), %rsi
	movq	-40(%rbp), %rdi
	.loc	22 187 21 is_stmt 1
	callq	__ZN4core3fmt3num55_$LT$impl$u20$core..fmt..LowerHex$u20$for$u20$usize$GT$3fmt17h84f349805fe63f8dE
	andb	$1, %al
	movb	%al, -17(%rbp)
LBB72_3:
	.loc	22 193 14
	movb	-17(%rbp), %al
	andb	$1, %al
	movzbl	%al, %eax
	addq	$48, %rsp
	popq	%rbp
	retq
LBB72_4:
	.loc	22 0 14 is_stmt 0
	movq	-32(%rbp), %rsi
	movq	-40(%rbp), %rdi
	.loc	22 191 21 is_stmt 1
	callq	__ZN4core3fmt3num3imp54_$LT$impl$u20$core..fmt..Display$u20$for$u20$usize$GT$3fmt17ha5c925fcd7ed33faE
	andb	$1, %al
	movb	%al, -17(%rbp)
	.loc	22 188 24
	jmp	LBB72_6
LBB72_5:
	.loc	22 0 24 is_stmt 0
	movq	-32(%rbp), %rsi
	movq	-40(%rbp), %rdi
	.loc	22 189 21 is_stmt 1
	callq	__ZN4core3fmt3num55_$LT$impl$u20$core..fmt..UpperHex$u20$for$u20$usize$GT$3fmt17h49aa717311edc293E
	andb	$1, %al
	movb	%al, -17(%rbp)
LBB72_6:
	.loc	22 186 17
	jmp	LBB72_3
Ltmp516:
Lfunc_end72:
	.cfi_endproc

	.p2align	4, 0x90
__ZN4core3fmt9Arguments6new_v117h238fe69b765e2985E:
Lfunc_begin73:
	.loc	15 399 0
	.cfi_startproc
	pushq	%rbp
	.cfi_def_cfa_offset 16
	.cfi_offset %rbp, -16
	movq	%rsp, %rbp
	.cfi_def_cfa_register %rbp
	subq	$160, %rsp
	movq	%r8, -152(%rbp)
	movq	%rcx, -144(%rbp)
	movq	%rdx, -136(%rbp)
	movq	%rsi, -128(%rbp)
	movq	%rdi, -120(%rbp)
	movq	%rdi, -112(%rbp)
	movq	%rsi, -32(%rbp)
	movq	%rdx, -24(%rbp)
	movq	%rcx, -16(%rbp)
	movq	%r8, -8(%rbp)
Ltmp517:
	.loc	15 400 12 prologue_end
	cmpq	%r8, %rdx
	jb	LBB73_2
	.loc	15 0 12 is_stmt 0
	movq	-136(%rbp), %rax
	movq	-152(%rbp), %rcx
	.loc	15 400 56
	addq	$1, %rcx
	.loc	15 400 41
	cmpq	%rcx, %rax
	seta	%al
	.loc	15 400 12
	andb	$1, %al
	movb	%al, -97(%rbp)
	jmp	LBB73_3
LBB73_2:
	movb	$1, -97(%rbp)
LBB73_3:
	testb	$1, -97(%rbp)
	jne	LBB73_5
	.loc	15 0 12
	movq	-112(%rbp), %rax
	movq	-120(%rbp), %rcx
	movq	-152(%rbp), %rdx
	movq	-144(%rbp), %rsi
	movq	-136(%rbp), %rdi
	movq	-128(%rbp), %r8
	.loc	15 403 34 is_stmt 1
	movq	$0, -48(%rbp)
	.loc	15 403 9 is_stmt 0
	movq	%r8, 16(%rcx)
	movq	%rdi, 24(%rcx)
	movq	-48(%rbp), %r8
	movq	-40(%rbp), %rdi
	movq	%r8, (%rcx)
	movq	%rdi, 8(%rcx)
	movq	%rsi, 32(%rcx)
	movq	%rdx, 40(%rcx)
	.loc	15 404 6 is_stmt 1
	addq	$160, %rsp
	popq	%rbp
	retq
LBB73_5:
	.loc	15 401 13
	leaq	l___unnamed_23(%rip), %rsi
	leaq	l___unnamed_20(%rip), %rcx
	xorl	%eax, %eax
	movl	%eax, %r8d
	leaq	-96(%rbp), %rdi
	movq	%rdi, -160(%rbp)
	movl	$1, %edx
	callq	__ZN4core3fmt9Arguments6new_v117h238fe69b765e2985E
	movq	-160(%rbp), %rdi
	leaq	l___unnamed_24(%rip), %rsi
	callq	__ZN4core9panicking9panic_fmt17h9b5d807e24bcaaedE
Ltmp518:
Lfunc_end73:
	.cfi_endproc

	.globl	__ZN4core3mem10needs_drop17ha9f37bdbec5cfeacE
	.p2align	4, 0x90
__ZN4core3mem10needs_drop17ha9f37bdbec5cfeacE:
Lfunc_begin74:
	.loc	14 593 0
	.cfi_startproc
	pushq	%rbp
	.cfi_def_cfa_offset 16
	.cfi_offset %rbp, -16
	movq	%rsp, %rbp
	.cfi_def_cfa_register %rbp
	subq	$1, %rsp
Ltmp519:
	.loc	14 594 5 prologue_end
	movb	$0, -1(%rbp)
	movb	-1(%rbp), %al
	.loc	14 595 2
	andb	$1, %al
	movzbl	%al, %eax
	addq	$1, %rsp
	popq	%rbp
	retq
Ltmp520:
Lfunc_end74:
	.cfi_endproc

	.globl	__ZN4core3mem7replace17h24212fe453978edeE
	.p2align	4, 0x90
__ZN4core3mem7replace17h24212fe453978edeE:
Lfunc_begin75:
	.loc	14 905 0
	.cfi_startproc
	pushq	%rbp
	.cfi_def_cfa_offset 16
	.cfi_offset %rbp, -16
	movq	%rsp, %rbp
	.cfi_def_cfa_register %rbp
	subq	$184, %rsp
	movq	%rdi, -184(%rbp)
	movq	%rsi, -176(%rbp)
	movq	%rdx, -168(%rbp)
	movq	%rdi, -112(%rbp)
	movq	%rsi, -104(%rbp)
	movq	%rdx, -96(%rbp)
Ltmp521:
	.loc	14 910 32 prologue_end
	movq	%rdi, -88(%rbp)
Ltmp522:
	.loc	18 1157 34
	leaq	-128(%rbp), %rax
	movq	%rax, -80(%rbp)
	.loc	18 1157 9 is_stmt 0
	movq	(%rdi), %rax
	movq	%rax, -128(%rbp)
	movq	8(%rdi), %rax
	movq	%rax, -120(%rbp)
	.loc	18 1158 9 is_stmt 1
	movq	-128(%rbp), %rcx
	movq	%rcx, -160(%rbp)
	movq	-120(%rbp), %rax
	movq	%rax, -152(%rbp)
	movq	%rcx, -72(%rbp)
	movq	%rax, -64(%rbp)
	.loc	18 0 9 is_stmt 0
	movq	-152(%rbp), %rdx
	movq	-160(%rbp), %rax
	movq	-184(%rbp), %rcx
	movq	-168(%rbp), %rsi
	movq	-176(%rbp), %rdi
Ltmp523:
	.loc	7 627 38 is_stmt 1
	movq	%rax, -40(%rbp)
	movq	%rdx, -32(%rbp)
Ltmp524:
	.loc	8 89 9
	movq	%rax, -24(%rbp)
	movq	%rdx, -16(%rbp)
Ltmp525:
	.loc	14 911 20
	movq	%rcx, -8(%rbp)
	.loc	14 911 26 is_stmt 0
	movq	%rdi, -144(%rbp)
	movq	%rsi, -136(%rbp)
Ltmp526:
	.loc	18 1354 9 is_stmt 1
	movq	-144(%rbp), %rsi
	movq	-136(%rbp), %rdi
	movq	%rdi, 8(%rcx)
	movq	%rsi, (%rcx)
Ltmp527:
	.loc	14 914 2
	addq	$184, %rsp
	popq	%rbp
	retq
Ltmp528:
Lfunc_end75:
	.cfi_endproc

	.globl	__ZN4core3mem7replace17h379a48420b0e4daaE
	.p2align	4, 0x90
__ZN4core3mem7replace17h379a48420b0e4daaE:
Lfunc_begin76:
	.loc	14 905 0
	.cfi_startproc
	pushq	%rbp
	.cfi_def_cfa_offset 16
	.cfi_offset %rbp, -16
	movq	%rsp, %rbp
	.cfi_def_cfa_register %rbp
	subq	$96, %rsp
	movq	%rdi, -96(%rbp)
	movl	%esi, -88(%rbp)
	movq	%rdi, -72(%rbp)
	movl	%esi, -60(%rbp)
Ltmp529:
	.loc	14 910 32 prologue_end
	movq	%rdi, -56(%rbp)
Ltmp530:
	.loc	18 1157 34
	leaq	-76(%rbp), %rax
	movq	%rax, -48(%rbp)
	.loc	18 1157 9 is_stmt 0
	movl	(%rdi), %eax
	movl	%eax, -76(%rbp)
	.loc	18 1158 9 is_stmt 1
	movl	-76(%rbp), %eax
	movl	%eax, -84(%rbp)
	movl	%eax, -36(%rbp)
	.loc	18 0 9 is_stmt 0
	movl	-84(%rbp), %eax
	movq	-96(%rbp), %rcx
	movl	-88(%rbp), %edx
Ltmp531:
	.loc	7 627 38 is_stmt 1
	movl	%eax, -16(%rbp)
Ltmp532:
	.loc	8 89 9
	movl	%eax, -12(%rbp)
Ltmp533:
	.loc	14 911 20
	movq	%rcx, -8(%rbp)
	.loc	14 911 26 is_stmt 0
	movl	%edx, -80(%rbp)
Ltmp534:
	.loc	18 1354 9 is_stmt 1
	movl	-80(%rbp), %edx
	movl	%edx, (%rcx)
Ltmp535:
	.loc	14 914 2
	addq	$96, %rsp
	popq	%rbp
	retq
Ltmp536:
Lfunc_end76:
	.cfi_endproc

	.globl	__ZN4core3mem7replace17h9229ff43e827cfb2E
	.p2align	4, 0x90
__ZN4core3mem7replace17h9229ff43e827cfb2E:
Lfunc_begin77:
	.loc	14 905 0
	.cfi_startproc
	pushq	%rbp
	.cfi_def_cfa_offset 16
	.cfi_offset %rbp, -16
	movq	%rsp, %rbp
	.cfi_def_cfa_register %rbp
	subq	$112, %rsp
	movq	%rdi, -112(%rbp)
	movq	%rsi, -96(%rbp)
	movq	%rdi, -72(%rbp)
Ltmp537:
	.loc	14 910 32 prologue_end
	movq	%rdi, -64(%rbp)
Ltmp538:
	.loc	18 1157 34
	leaq	-80(%rbp), %rax
	movq	%rax, -56(%rbp)
	.loc	18 1157 9 is_stmt 0
	movq	(%rdi), %rax
	movq	%rax, -80(%rbp)
	.loc	18 1158 9 is_stmt 1
	movq	-80(%rbp), %rax
	movq	%rax, -104(%rbp)
	movq	%rax, -48(%rbp)
	.loc	18 0 9 is_stmt 0
	movq	-104(%rbp), %rax
	movq	-112(%rbp), %rcx
Ltmp539:
	.loc	7 627 38 is_stmt 1
	movq	%rax, -24(%rbp)
Ltmp540:
	.loc	8 89 9
	movq	%rax, -16(%rbp)
Ltmp541:
	.loc	14 911 20
	movq	%rcx, -8(%rbp)
	.loc	14 911 26 is_stmt 0
	movq	-96(%rbp), %rdx
	movq	%rdx, -88(%rbp)
Ltmp542:
	.loc	18 1354 9 is_stmt 1
	movq	-88(%rbp), %rdx
	movq	%rdx, (%rcx)
Ltmp543:
	.loc	14 914 2
	addq	$112, %rsp
	popq	%rbp
	retq
Ltmp544:
Lfunc_end77:
	.cfi_endproc

	.globl	__ZN4core3mem7replace17h9e6cd40f8992891fE
	.p2align	4, 0x90
__ZN4core3mem7replace17h9e6cd40f8992891fE:
Lfunc_begin78:
	.loc	14 905 0
	.cfi_startproc
	pushq	%rbp
	.cfi_def_cfa_offset 16
	.cfi_offset %rbp, -16
	movq	%rsp, %rbp
	.cfi_def_cfa_register %rbp
	subq	$176, %rsp
	movq	%rdx, -176(%rbp)
Ltmp545:
	movq	%rsi, -168(%rbp)
	movq	%rdi, -160(%rbp)
	movq	%rdi, -152(%rbp)
	movq	%rsi, -48(%rbp)
Ltmp546:
	.loc	14 910 32 prologue_end
	movq	%rsi, -40(%rbp)
Ltmp547:
	.loc	18 1157 34
	leaq	-120(%rbp), %rax
	movq	%rax, -32(%rbp)
	.loc	18 1157 9 is_stmt 0
	movq	(%rsi), %rax
	movq	%rax, -120(%rbp)
	movq	8(%rsi), %rax
	movq	%rax, -112(%rbp)
	movq	16(%rsi), %rax
	movq	%rax, -104(%rbp)
	.loc	18 1158 9 is_stmt 1
	movq	-120(%rbp), %rax
	movq	%rax, -96(%rbp)
	movq	-112(%rbp), %rax
	movq	%rax, -88(%rbp)
	movq	-104(%rbp), %rax
	movq	%rax, -80(%rbp)
Ltmp548:
	.loc	18 0 9 is_stmt 0
	movq	-152(%rbp), %rax
	movq	-168(%rbp), %rcx
	movq	-176(%rbp), %rdx
	movq	-160(%rbp), %rsi
Ltmp549:
	.loc	7 627 38 is_stmt 1
	movq	-96(%rbp), %rdi
	movq	%rdi, -72(%rbp)
	movq	-88(%rbp), %rdi
	movq	%rdi, -64(%rbp)
	movq	-80(%rbp), %rdi
	movq	%rdi, -56(%rbp)
Ltmp550:
	.loc	8 89 9
	movq	-72(%rbp), %rdi
	movq	%rdi, (%rsi)
	movq	-64(%rbp), %rdi
	movq	%rdi, 8(%rsi)
	movq	-56(%rbp), %rdi
	movq	%rdi, 16(%rsi)
Ltmp551:
	.loc	14 911 20
	movq	%rcx, -8(%rbp)
	.loc	14 911 26 is_stmt 0
	movq	(%rdx), %rsi
	movq	%rsi, -144(%rbp)
	movq	8(%rdx), %rsi
	movq	%rsi, -136(%rbp)
	movq	16(%rdx), %rdx
	movq	%rdx, -128(%rbp)
Ltmp552:
	.loc	18 1354 9 is_stmt 1
	movq	-144(%rbp), %rdx
	movq	%rdx, (%rcx)
	movq	-136(%rbp), %rdx
	movq	%rdx, 8(%rcx)
	movq	-128(%rbp), %rdx
	movq	%rdx, 16(%rcx)
Ltmp553:
	.loc	14 914 2
	addq	$176, %rsp
	popq	%rbp
	retq
Ltmp554:
Lfunc_end78:
	.cfi_endproc

	.globl	__ZN4core3mem7replace17ha63523c534021dabE
	.p2align	4, 0x90
__ZN4core3mem7replace17ha63523c534021dabE:
Lfunc_begin79:
	.loc	14 905 0
	.cfi_startproc
	pushq	%rbp
	.cfi_def_cfa_offset 16
	.cfi_offset %rbp, -16
	movq	%rsp, %rbp
	.cfi_def_cfa_register %rbp
	subq	$120, %rsp
	movq	%rdi, -120(%rbp)
	movl	%esi, -112(%rbp)
	movl	%edx, -108(%rbp)
	movq	%rdi, -80(%rbp)
	movl	%esi, -72(%rbp)
	movl	%edx, -68(%rbp)
Ltmp555:
	.loc	14 910 32 prologue_end
	movq	%rdi, -64(%rbp)
Ltmp556:
	.loc	18 1157 34
	leaq	-88(%rbp), %rax
	movq	%rax, -56(%rbp)
	.loc	18 1157 9 is_stmt 0
	movq	(%rdi), %rax
	movq	%rax, -88(%rbp)
	.loc	18 1158 9 is_stmt 1
	movl	-88(%rbp), %ecx
	movl	%ecx, -104(%rbp)
	movl	-84(%rbp), %eax
	movl	%eax, -100(%rbp)
	movl	%ecx, -48(%rbp)
	movl	%eax, -44(%rbp)
	.loc	18 0 9 is_stmt 0
	movl	-100(%rbp), %edx
	movl	-104(%rbp), %eax
	movq	-120(%rbp), %rcx
	movl	-108(%rbp), %esi
	movl	-112(%rbp), %edi
Ltmp557:
	.loc	7 627 38 is_stmt 1
	movl	%eax, -24(%rbp)
	movl	%edx, -20(%rbp)
Ltmp558:
	.loc	8 89 9
	movl	%eax, -16(%rbp)
	movl	%edx, -12(%rbp)
Ltmp559:
	.loc	14 911 20
	movq	%rcx, -8(%rbp)
	.loc	14 911 26 is_stmt 0
	movl	%edi, -96(%rbp)
	movl	%esi, -92(%rbp)
Ltmp560:
	.loc	18 1354 9 is_stmt 1
	movq	-96(%rbp), %rsi
	movq	%rsi, (%rcx)
Ltmp561:
	.loc	14 914 2
	addq	$120, %rsp
	popq	%rbp
	retq
Ltmp562:
Lfunc_end79:
	.cfi_endproc

	.globl	__ZN4core3mem7replace17hbc9bd9d462b14203E
	.p2align	4, 0x90
__ZN4core3mem7replace17hbc9bd9d462b14203E:
Lfunc_begin80:
	.loc	14 905 0
	.cfi_startproc
	pushq	%rbp
	.cfi_def_cfa_offset 16
	.cfi_offset %rbp, -16
	movq	%rsp, %rbp
	.cfi_def_cfa_register %rbp
	subq	$96, %rsp
	movq	%rdi, -96(%rbp)
	movl	%esi, -88(%rbp)
	movq	%rdi, -72(%rbp)
	movl	%esi, -60(%rbp)
Ltmp563:
	.loc	14 910 32 prologue_end
	movq	%rdi, -56(%rbp)
Ltmp564:
	.loc	18 1157 34
	leaq	-76(%rbp), %rax
	movq	%rax, -48(%rbp)
	.loc	18 1157 9 is_stmt 0
	movl	(%rdi), %eax
	movl	%eax, -76(%rbp)
	.loc	18 1158 9 is_stmt 1
	movl	-76(%rbp), %eax
	movl	%eax, -84(%rbp)
	movl	%eax, -36(%rbp)
	.loc	18 0 9 is_stmt 0
	movl	-84(%rbp), %eax
	movq	-96(%rbp), %rcx
	movl	-88(%rbp), %edx
Ltmp565:
	.loc	7 627 38 is_stmt 1
	movl	%eax, -16(%rbp)
Ltmp566:
	.loc	8 89 9
	movl	%eax, -12(%rbp)
Ltmp567:
	.loc	14 911 20
	movq	%rcx, -8(%rbp)
	.loc	14 911 26 is_stmt 0
	movl	%edx, -80(%rbp)
Ltmp568:
	.loc	18 1354 9 is_stmt 1
	movl	-80(%rbp), %edx
	movl	%edx, (%rcx)
Ltmp569:
	.loc	14 914 2
	addq	$96, %rsp
	popq	%rbp
	retq
Ltmp570:
Lfunc_end80:
	.cfi_endproc

	.globl	__ZN4core3mem7replace17hbfcd44baf1504985E
	.p2align	4, 0x90
__ZN4core3mem7replace17hbfcd44baf1504985E:
Lfunc_begin81:
	.loc	14 905 0
	.cfi_startproc
	pushq	%rbp
	.cfi_def_cfa_offset 16
	.cfi_offset %rbp, -16
	movq	%rsp, %rbp
	.cfi_def_cfa_register %rbp
	subq	$120, %rsp
	movq	%rdi, -120(%rbp)
	movq	%rsi, -112(%rbp)
	movq	%rdi, -80(%rbp)
	movq	%rsi, -72(%rbp)
Ltmp571:
	.loc	14 910 32 prologue_end
	movq	%rdi, -64(%rbp)
Ltmp572:
	.loc	18 1157 34
	leaq	-88(%rbp), %rax
	movq	%rax, -56(%rbp)
	.loc	18 1157 9 is_stmt 0
	movq	(%rdi), %rax
	movq	%rax, -88(%rbp)
	.loc	18 1158 9 is_stmt 1
	movq	-88(%rbp), %rax
	movq	%rax, -104(%rbp)
	movq	%rax, -48(%rbp)
	.loc	18 0 9 is_stmt 0
	movq	-104(%rbp), %rax
	movq	-120(%rbp), %rcx
	movq	-112(%rbp), %rdx
Ltmp573:
	.loc	7 627 38 is_stmt 1
	movq	%rax, -24(%rbp)
Ltmp574:
	.loc	8 89 9
	movq	%rax, -16(%rbp)
Ltmp575:
	.loc	14 911 20
	movq	%rcx, -8(%rbp)
	.loc	14 911 26 is_stmt 0
	movq	%rdx, -96(%rbp)
Ltmp576:
	.loc	18 1354 9 is_stmt 1
	movq	-96(%rbp), %rdx
	movq	%rdx, (%rcx)
Ltmp577:
	.loc	14 914 2
	addq	$120, %rsp
	popq	%rbp
	retq
Ltmp578:
Lfunc_end81:
	.cfi_endproc

	.globl	__ZN4core3mem7replace17hd1a14b32db219abcE
	.p2align	4, 0x90
__ZN4core3mem7replace17hd1a14b32db219abcE:
Lfunc_begin82:
	.loc	14 905 0
	.cfi_startproc
	pushq	%rbp
	.cfi_def_cfa_offset 16
	.cfi_offset %rbp, -16
	movq	%rsp, %rbp
	.cfi_def_cfa_register %rbp
	subq	$168, %rsp
	movq	%rdi, -168(%rbp)
	movq	%rsi, -144(%rbp)
	movq	%rdx, -136(%rbp)
	movq	%rdi, -96(%rbp)
Ltmp579:
	.loc	14 910 32 prologue_end
	movq	%rdi, -88(%rbp)
Ltmp580:
	.loc	18 1157 34
	leaq	-112(%rbp), %rax
	movq	%rax, -80(%rbp)
	.loc	18 1157 9 is_stmt 0
	movq	(%rdi), %rax
	movq	%rax, -112(%rbp)
	movq	8(%rdi), %rax
	movq	%rax, -104(%rbp)
	.loc	18 1158 9 is_stmt 1
	movq	-112(%rbp), %rcx
	movq	%rcx, -160(%rbp)
	movq	-104(%rbp), %rax
	movq	%rax, -152(%rbp)
	movq	%rcx, -72(%rbp)
	movq	%rax, -64(%rbp)
	.loc	18 0 9 is_stmt 0
	movq	-152(%rbp), %rdx
	movq	-160(%rbp), %rax
	movq	-168(%rbp), %rcx
Ltmp581:
	.loc	7 627 38 is_stmt 1
	movq	%rax, -40(%rbp)
	movq	%rdx, -32(%rbp)
Ltmp582:
	.loc	8 89 9
	movq	%rax, -24(%rbp)
	movq	%rdx, -16(%rbp)
Ltmp583:
	.loc	14 911 20
	movq	%rcx, -8(%rbp)
	.loc	14 911 26 is_stmt 0
	movq	-144(%rbp), %rdi
	movq	-136(%rbp), %rsi
	movq	%rdi, -128(%rbp)
	movq	%rsi, -120(%rbp)
Ltmp584:
	.loc	18 1354 9 is_stmt 1
	movq	-128(%rbp), %rsi
	movq	-120(%rbp), %rdi
	movq	%rdi, 8(%rcx)
	movq	%rsi, (%rcx)
Ltmp585:
	.loc	14 914 2
	addq	$168, %rsp
	popq	%rbp
	retq
Ltmp586:
Lfunc_end82:
	.cfi_endproc

	.globl	__ZN4core3mem7replace17hf3053710c83324adE
	.p2align	4, 0x90
__ZN4core3mem7replace17hf3053710c83324adE:
Lfunc_begin83:
	.loc	14 905 0
	.cfi_startproc
	pushq	%rbp
	.cfi_def_cfa_offset 16
	.cfi_offset %rbp, -16
	movq	%rsp, %rbp
	.cfi_def_cfa_register %rbp
	subq	$96, %rsp
	movq	%rdi, -96(%rbp)
	movl	%esi, -88(%rbp)
	movq	%rdi, -72(%rbp)
	movl	%esi, -60(%rbp)
Ltmp587:
	.loc	14 910 32 prologue_end
	movq	%rdi, -56(%rbp)
Ltmp588:
	.loc	18 1157 34
	leaq	-76(%rbp), %rax
	movq	%rax, -48(%rbp)
	.loc	18 1157 9 is_stmt 0
	movl	(%rdi), %eax
	movl	%eax, -76(%rbp)
	.loc	18 1158 9 is_stmt 1
	movl	-76(%rbp), %eax
	movl	%eax, -84(%rbp)
	movl	%eax, -36(%rbp)
	.loc	18 0 9 is_stmt 0
	movl	-84(%rbp), %eax
	movq	-96(%rbp), %rcx
	movl	-88(%rbp), %edx
Ltmp589:
	.loc	7 627 38 is_stmt 1
	movl	%eax, -16(%rbp)
Ltmp590:
	.loc	8 89 9
	movl	%eax, -12(%rbp)
Ltmp591:
	.loc	14 911 20
	movq	%rcx, -8(%rbp)
	.loc	14 911 26 is_stmt 0
	movl	%edx, -80(%rbp)
Ltmp592:
	.loc	18 1354 9 is_stmt 1
	movl	-80(%rbp), %edx
	movl	%edx, (%rcx)
Ltmp593:
	.loc	14 914 2
	addq	$96, %rsp
	popq	%rbp
	retq
Ltmp594:
Lfunc_end83:
	.cfi_endproc

	.p2align	4, 0x90
__ZN4core3num21_$LT$impl$u20$u64$GT$11checked_add17hddb38e210bcb1311E:
Lfunc_begin84:
	.file	23 "/rustc/2c8cc343237b8f7d5a3c3703e3a87f2eb2c54a74/library/core/src/num" "uint_macros.rs"
	.loc	23 442 0
	.cfi_startproc
	pushq	%rbp
	.cfi_def_cfa_offset 16
	.cfi_offset %rbp, -16
	movq	%rsp, %rbp
	.cfi_def_cfa_register %rbp
	subq	$120, %rsp
	movq	%rdi, -80(%rbp)
	movq	%rsi, -72(%rbp)
Ltmp595:
	.loc	23 443 26 prologue_end
	movq	%rdi, -64(%rbp)
	.loc	23 443 47 is_stmt 0
	movq	%rsi, -56(%rbp)
Ltmp596:
	.loc	23 1479 26 is_stmt 1
	addq	%rsi, %rdi
	setb	%al
	andb	$1, %al
	movq	%rdi, -48(%rbp)
	movb	%al, -40(%rbp)
	movq	-48(%rbp), %rcx
	movb	-40(%rbp), %al
	.loc	23 1479 18 is_stmt 0
	movq	%rcx, -32(%rbp)
	.loc	23 1479 21
	movb	%al, %dl
	andb	$1, %dl
	movb	%dl, -17(%rbp)
Ltmp597:
	.loc	23 1480 13 is_stmt 1
	movq	%rcx, -96(%rbp)
	andb	$1, %al
	movb	%al, -88(%rbp)
Ltmp598:
	.loc	23 443 18
	movq	-96(%rbp), %rax
	movq	%rax, -120(%rbp)
	movq	%rax, -16(%rbp)
	.loc	23 443 21 is_stmt 0
	movb	-88(%rbp), %al
	movb	%al, %cl
	andb	$1, %cl
	movb	%cl, -2(%rbp)
Ltmp599:
	.loc	23 444 16 is_stmt 1
	andb	$1, %al
	movb	%al, -1(%rbp)
	testb	$1, -1(%rbp)
	jne	LBB84_2
	.loc	23 0 16 is_stmt 0
	movq	-120(%rbp), %rax
	.loc	23 444 42
	movq	%rax, -104(%rbp)
	movq	$1, -112(%rbp)
	.loc	23 444 13
	jmp	LBB84_3
LBB84_2:
	.loc	23 444 30
	movq	$0, -112(%rbp)
Ltmp600:
LBB84_3:
	.loc	23 445 10 is_stmt 1
	movq	-112(%rbp), %rax
	movq	-104(%rbp), %rdx
	addq	$120, %rsp
	popq	%rbp
	retq
Ltmp601:
Lfunc_end84:
	.cfi_endproc

	.globl	__ZN4core3ops12control_flow24ControlFlow$LT$B$C$C$GT$11break_value17hc22247f41f089512E
	.p2align	4, 0x90
__ZN4core3ops12control_flow24ControlFlow$LT$B$C$C$GT$11break_value17hc22247f41f089512E:
Lfunc_begin85:
	.loc	3 183 0
	.cfi_startproc
	pushq	%rbp
	.cfi_def_cfa_offset 16
	.cfi_offset %rbp, -16
	movq	%rsp, %rbp
	.cfi_def_cfa_register %rbp
	subq	$48, %rsp
	movq	%rdi, -48(%rbp)
	movq	%rsi, -40(%rbp)
Ltmp602:
	.loc	3 184 15 prologue_end
	movq	-40(%rbp), %rdx
	movl	$1, %eax
	xorl	%ecx, %ecx
	cmpq	$0, %rdx
	cmoveq	%rcx, %rax
	.loc	3 184 9 is_stmt 0
	cmpq	$0, %rax
	jne	LBB85_2
	.loc	3 185 42 is_stmt 1
	movq	$0, -24(%rbp)
	jmp	LBB85_3
LBB85_2:
	.loc	3 186 32
	movq	-48(%rbp), %rcx
	movq	-40(%rbp), %rax
	movq	%rcx, -16(%rbp)
	movq	%rax, -8(%rbp)
Ltmp603:
	.loc	3 186 38 is_stmt 0
	movq	%rcx, -32(%rbp)
	movq	%rax, -24(%rbp)
Ltmp604:
LBB85_3:
	.loc	3 188 5 is_stmt 1
	movq	-40(%rbp), %rdx
	movl	$1, %eax
	xorl	%ecx, %ecx
	cmpq	$0, %rdx
	cmoveq	%rcx, %rax
	cmpq	$1, %rax
	jne	LBB85_5
LBB85_4:
	.loc	3 188 6 is_stmt 0
	movq	-32(%rbp), %rax
	movq	-24(%rbp), %rdx
	addq	$48, %rsp
	popq	%rbp
	retq
LBB85_5:
	.loc	3 188 5
	jmp	LBB85_4
Ltmp605:
Lfunc_end85:
	.cfi_endproc

	.p2align	4, 0x90
__ZN4core3ops8function6FnOnce9call_once17h507df4d65f32f229E:
Lfunc_begin86:
	.file	24 "/rustc/2c8cc343237b8f7d5a3c3703e3a87f2eb2c54a74/library/core/src/ops" "function.rs"
	.loc	24 250 0 is_stmt 1
	.cfi_startproc
	.cfi_personality 155, _rust_eh_personality
	.cfi_lsda 16, Lexception21
	pushq	%rbp
	.cfi_def_cfa_offset 16
	.cfi_offset %rbp, -16
	movq	%rsp, %rbp
	.cfi_def_cfa_register %rbp
	subq	$32, %rsp
	movq	%rdi, -32(%rbp)
Ltmp606:
	leaq	-32(%rbp), %rdi
Ltmp609:
	.loc	24 250 5 prologue_end
	callq	__ZN3std6thread5local4fast13destroy_value28_$u7b$$u7b$closure$u7d$$u7d$17h21b64f204bcabc33E
Ltmp607:
	jmp	LBB86_3
LBB86_1:
	movq	-16(%rbp), %rdi
	callq	__Unwind_Resume
LBB86_2:
Ltmp608:
	.loc	24 0 5 is_stmt 0
	movq	%rax, %rcx
	movl	%edx, %eax
	movq	%rcx, -16(%rbp)
	movl	%eax, -8(%rbp)
	jmp	LBB86_1
LBB86_3:
	.loc	24 250 5
	addq	$32, %rsp
	popq	%rbp
	retq
Ltmp610:
Lfunc_end86:
	.cfi_endproc
	.section	__TEXT,__gcc_except_tab
	.p2align	2
GCC_except_table86:
Lexception21:
	.byte	255
	.byte	255
	.byte	1
	.uleb128 Lcst_end21-Lcst_begin21
Lcst_begin21:
	.uleb128 Ltmp606-Lfunc_begin86
	.uleb128 Ltmp607-Ltmp606
	.uleb128 Ltmp608-Lfunc_begin86
	.byte	0
	.uleb128 Ltmp607-Lfunc_begin86
	.uleb128 Lfunc_end86-Ltmp607
	.byte	0
	.byte	0
Lcst_end21:
	.p2align	2

	.section	__TEXT,__text,regular,pure_instructions
	.p2align	4, 0x90
__ZN4core3ops8function6FnOnce9call_once17h6b9d1e4f83ab8678E:
Lfunc_begin87:
	.loc	24 250 0 is_stmt 1
	.cfi_startproc
	pushq	%rbp
	.cfi_def_cfa_offset 16
	.cfi_offset %rbp, -16
	movq	%rsp, %rbp
	.cfi_def_cfa_register %rbp
	subq	$32, %rsp
	movq	%rdi, -24(%rbp)
	movq	%rsi, -16(%rbp)
Ltmp611:
	.loc	24 250 5 prologue_end
	movq	-24(%rbp), %rdi
	movq	-16(%rbp), %rsi
	callq	__ZN53_$LT$std..time..Instant$u20$as$u20$core..cmp..Ord$GT$3cmp17ha4fb7bc9b23796eaE
	addq	$32, %rsp
	popq	%rbp
	retq
Ltmp612:
Lfunc_end87:
	.cfi_endproc

	.p2align	4, 0x90
__ZN4core3ops8function6FnOnce9call_once17ha6f7d85725750e2aE:
Lfunc_begin88:
	.loc	24 250 0
	.cfi_startproc
	.cfi_personality 155, _rust_eh_personality
	.cfi_lsda 16, Lexception22
	pushq	%rbp
	.cfi_def_cfa_offset 16
	.cfi_offset %rbp, -16
	movq	%rsp, %rbp
	.cfi_def_cfa_register %rbp
	subq	$32, %rsp
	movq	%rdi, -32(%rbp)
Ltmp613:
	leaq	-32(%rbp), %rdi
Ltmp616:
	.loc	24 250 5 prologue_end
	callq	__ZN3std6thread5local4fast13destroy_value28_$u7b$$u7b$closure$u7d$$u7d$17hef4b64988dab1954E
Ltmp614:
	jmp	LBB88_3
LBB88_1:
	movq	-16(%rbp), %rdi
	callq	__Unwind_Resume
LBB88_2:
Ltmp615:
	.loc	24 0 5 is_stmt 0
	movq	%rax, %rcx
	movl	%edx, %eax
	movq	%rcx, -16(%rbp)
	movl	%eax, -8(%rbp)
	jmp	LBB88_1
LBB88_3:
	.loc	24 250 5
	addq	$32, %rsp
	popq	%rbp
	retq
Ltmp617:
Lfunc_end88:
	.cfi_endproc
	.section	__TEXT,__gcc_except_tab
	.p2align	2
GCC_except_table88:
Lexception22:
	.byte	255
	.byte	255
	.byte	1
	.uleb128 Lcst_end22-Lcst_begin22
Lcst_begin22:
	.uleb128 Ltmp613-Lfunc_begin88
	.uleb128 Ltmp614-Ltmp613
	.uleb128 Ltmp615-Lfunc_begin88
	.byte	0
	.uleb128 Ltmp614-Lfunc_begin88
	.uleb128 Lfunc_end88-Ltmp614
	.byte	0
	.byte	0
Lcst_end22:
	.p2align	2

	.section	__TEXT,__text,regular,pure_instructions
	.p2align	4, 0x90
__ZN4core3ops8function6FnOnce9call_once17hd495ea5a1f8a5cbaE:
Lfunc_begin89:
	.loc	24 250 0 is_stmt 1
	.cfi_startproc
	.cfi_personality 155, _rust_eh_personality
	.cfi_lsda 16, Lexception23
	pushq	%rbp
	.cfi_def_cfa_offset 16
	.cfi_offset %rbp, -16
	movq	%rsp, %rbp
	.cfi_def_cfa_register %rbp
	subq	$32, %rsp
	movq	%rdi, -32(%rbp)
Ltmp618:
	leaq	-32(%rbp), %rdi
Ltmp621:
	.loc	24 250 5 prologue_end
	callq	__ZN3std6thread5local4fast13destroy_value28_$u7b$$u7b$closure$u7d$$u7d$17hc167b588df209299E
Ltmp619:
	jmp	LBB89_3
LBB89_1:
	movq	-16(%rbp), %rdi
	callq	__Unwind_Resume
LBB89_2:
Ltmp620:
	.loc	24 0 5 is_stmt 0
	movq	%rax, %rcx
	movl	%edx, %eax
	movq	%rcx, -16(%rbp)
	movl	%eax, -8(%rbp)
	jmp	LBB89_1
LBB89_3:
	.loc	24 250 5
	addq	$32, %rsp
	popq	%rbp
	retq
Ltmp622:
Lfunc_end89:
	.cfi_endproc
	.section	__TEXT,__gcc_except_tab
	.p2align	2
GCC_except_table89:
Lexception23:
	.byte	255
	.byte	255
	.byte	1
	.uleb128 Lcst_end23-Lcst_begin23
Lcst_begin23:
	.uleb128 Ltmp618-Lfunc_begin89
	.uleb128 Ltmp619-Ltmp618
	.uleb128 Ltmp620-Lfunc_begin89
	.byte	0
	.uleb128 Ltmp619-Lfunc_begin89
	.uleb128 Lfunc_end89-Ltmp619
	.byte	0
	.byte	0
Lcst_end23:
	.p2align	2

	.section	__TEXT,__text,regular,pure_instructions
	.globl	__ZN4core3ptr108drop_in_place$LT$core..cell..Cell$LT$core..option..Option$LT$crossbeam_channel..context..Context$GT$$GT$$GT$17h02817a3a69073891E
	.p2align	4, 0x90
__ZN4core3ptr108drop_in_place$LT$core..cell..Cell$LT$core..option..Option$LT$crossbeam_channel..context..Context$GT$$GT$$GT$17h02817a3a69073891E:
Lfunc_begin90:
	.loc	18 490 0 is_stmt 1
	.cfi_startproc
	pushq	%rbp
	.cfi_def_cfa_offset 16
	.cfi_offset %rbp, -16
	movq	%rsp, %rbp
	.cfi_def_cfa_register %rbp
	subq	$16, %rsp
	movq	%rdi, -8(%rbp)
Ltmp623:
	.loc	18 490 1 prologue_end
	callq	__ZN4core3ptr114drop_in_place$LT$core..cell..UnsafeCell$LT$core..option..Option$LT$crossbeam_channel..context..Context$GT$$GT$$GT$17ha6a84793bc91310cE
	addq	$16, %rsp
	popq	%rbp
	retq
Ltmp624:
Lfunc_end90:
	.cfi_endproc

	.globl	__ZN4core3ptr114drop_in_place$LT$core..cell..UnsafeCell$LT$core..option..Option$LT$crossbeam_channel..context..Context$GT$$GT$$GT$17ha6a84793bc91310cE
	.p2align	4, 0x90
__ZN4core3ptr114drop_in_place$LT$core..cell..UnsafeCell$LT$core..option..Option$LT$crossbeam_channel..context..Context$GT$$GT$$GT$17ha6a84793bc91310cE:
Lfunc_begin91:
	.loc	18 490 0
	.cfi_startproc
	pushq	%rbp
	.cfi_def_cfa_offset 16
	.cfi_offset %rbp, -16
	movq	%rsp, %rbp
	.cfi_def_cfa_register %rbp
	subq	$16, %rsp
	movq	%rdi, -8(%rbp)
Ltmp625:
	.loc	18 490 1 prologue_end
	callq	__ZN4core3ptr84drop_in_place$LT$core..option..Option$LT$crossbeam_channel..context..Context$GT$$GT$17ha66c6780872b75c2E
	addq	$16, %rsp
	popq	%rbp
	retq
Ltmp626:
Lfunc_end91:
	.cfi_endproc

	.globl	__ZN4core3ptr130drop_in_place$LT$alloc..vec..Vec$LT$$LP$$RF$dyn$u20$crossbeam_channel..select..SelectHandle$C$usize$C$$BP$const$u20$u8$RP$$GT$$GT$17h777842b148b73ed9E
	.p2align	4, 0x90
__ZN4core3ptr130drop_in_place$LT$alloc..vec..Vec$LT$$LP$$RF$dyn$u20$crossbeam_channel..select..SelectHandle$C$usize$C$$BP$const$u20$u8$RP$$GT$$GT$17h777842b148b73ed9E:
Lfunc_begin92:
	.loc	18 490 0
	.cfi_startproc
	.cfi_personality 155, _rust_eh_personality
	.cfi_lsda 16, Lexception24
	pushq	%rbp
	.cfi_def_cfa_offset 16
	.cfi_offset %rbp, -16
	movq	%rsp, %rbp
	.cfi_def_cfa_register %rbp
	subq	$32, %rsp
	movq	%rdi, -32(%rbp)
	movq	%rdi, -24(%rbp)
Ltmp627:
Ltmp633:
	.loc	18 490 1 prologue_end
	callq	__ZN70_$LT$alloc..vec..Vec$LT$T$C$A$GT$$u20$as$u20$core..ops..drop..Drop$GT$4drop17h893f6b0ef7fc9095E
Ltmp628:
	jmp	LBB92_3
LBB92_1:
Ltmp630:
	.loc	18 0 1 is_stmt 0
	movq	-32(%rbp), %rdi
	.loc	18 490 1
	callq	__ZN4core3ptr137drop_in_place$LT$alloc..raw_vec..RawVec$LT$$LP$$RF$dyn$u20$crossbeam_channel..select..SelectHandle$C$usize$C$$BP$const$u20$u8$RP$$GT$$GT$17h1daf50317a820681E
Ltmp631:
	jmp	LBB92_5
LBB92_2:
Ltmp629:
	.loc	18 0 1
	movq	%rax, %rcx
	movl	%edx, %eax
	movq	%rcx, -16(%rbp)
	movl	%eax, -8(%rbp)
	jmp	LBB92_1
LBB92_3:
	movq	-32(%rbp), %rdi
	.loc	18 490 1
	callq	__ZN4core3ptr137drop_in_place$LT$alloc..raw_vec..RawVec$LT$$LP$$RF$dyn$u20$crossbeam_channel..select..SelectHandle$C$usize$C$$BP$const$u20$u8$RP$$GT$$GT$17h1daf50317a820681E
	addq	$32, %rsp
	popq	%rbp
	retq
LBB92_4:
Ltmp632:
	callq	__ZN4core9panicking19panic_cannot_unwind17h1fbca7e1d7f56ae1E
LBB92_5:
	movq	-16(%rbp), %rdi
	callq	__Unwind_Resume
Ltmp634:
Lfunc_end92:
	.cfi_endproc
	.section	__TEXT,__gcc_except_tab
	.p2align	2
GCC_except_table92:
Lexception24:
	.byte	255
	.byte	255
	.byte	1
	.uleb128 Lcst_end24-Lcst_begin24
Lcst_begin24:
	.uleb128 Ltmp627-Lfunc_begin92
	.uleb128 Ltmp628-Ltmp627
	.uleb128 Ltmp629-Lfunc_begin92
	.byte	0
	.uleb128 Ltmp630-Lfunc_begin92
	.uleb128 Ltmp631-Ltmp630
	.uleb128 Ltmp632-Lfunc_begin92
	.byte	0
	.uleb128 Ltmp631-Lfunc_begin92
	.uleb128 Lfunc_end92-Ltmp631
	.byte	0
	.byte	0
Lcst_end24:
	.p2align	2

	.section	__TEXT,__text,regular,pure_instructions
	.globl	__ZN4core3ptr136drop_in_place$LT$core..option..Option$LT$core..cell..Cell$LT$core..option..Option$LT$crossbeam_channel..context..Context$GT$$GT$$GT$$GT$17ha510dcc85303ede9E
	.p2align	4, 0x90
__ZN4core3ptr136drop_in_place$LT$core..option..Option$LT$core..cell..Cell$LT$core..option..Option$LT$crossbeam_channel..context..Context$GT$$GT$$GT$$GT$17ha510dcc85303ede9E:
Lfunc_begin93:
	.loc	18 490 0 is_stmt 1
	.cfi_startproc
	pushq	%rbp
	.cfi_def_cfa_offset 16
	.cfi_offset %rbp, -16
	movq	%rsp, %rbp
	.cfi_def_cfa_register %rbp
	subq	$16, %rsp
	movq	%rdi, -16(%rbp)
	movq	%rdi, -8(%rbp)
Ltmp635:
	.loc	18 490 1 prologue_end
	cmpq	$0, (%rdi)
	jne	LBB93_2
LBB93_1:
	addq	$16, %rsp
	popq	%rbp
	retq
LBB93_2:
	.loc	18 0 1 is_stmt 0
	movq	-16(%rbp), %rdi
	.loc	18 490 1
	addq	$8, %rdi
	callq	__ZN4core3ptr108drop_in_place$LT$core..cell..Cell$LT$core..option..Option$LT$crossbeam_channel..context..Context$GT$$GT$$GT$17h02817a3a69073891E
	jmp	LBB93_1
Ltmp636:
Lfunc_end93:
	.cfi_endproc

	.globl	__ZN4core3ptr137drop_in_place$LT$alloc..raw_vec..RawVec$LT$$LP$$RF$dyn$u20$crossbeam_channel..select..SelectHandle$C$usize$C$$BP$const$u20$u8$RP$$GT$$GT$17h1daf50317a820681E
	.p2align	4, 0x90
__ZN4core3ptr137drop_in_place$LT$alloc..raw_vec..RawVec$LT$$LP$$RF$dyn$u20$crossbeam_channel..select..SelectHandle$C$usize$C$$BP$const$u20$u8$RP$$GT$$GT$17h1daf50317a820681E:
Lfunc_begin94:
	.loc	18 490 0 is_stmt 1
	.cfi_startproc
	pushq	%rbp
	.cfi_def_cfa_offset 16
	.cfi_offset %rbp, -16
	movq	%rsp, %rbp
	.cfi_def_cfa_register %rbp
	subq	$16, %rsp
	movq	%rdi, -8(%rbp)
Ltmp637:
	.loc	18 490 1 prologue_end
	callq	__ZN77_$LT$alloc..raw_vec..RawVec$LT$T$C$A$GT$$u20$as$u20$core..ops..drop..Drop$GT$4drop17ha6f9bdb64f48a701E
	addq	$16, %rsp
	popq	%rbp
	retq
Ltmp638:
Lfunc_end94:
	.cfi_endproc

	.globl	__ZN4core3ptr145drop_in_place$LT$std..thread..local..fast..Key$LT$core..cell..Cell$LT$core..option..Option$LT$crossbeam_channel..context..Context$GT$$GT$$GT$$GT$17hb8189bafd2bffd3eE
	.p2align	4, 0x90
__ZN4core3ptr145drop_in_place$LT$std..thread..local..fast..Key$LT$core..cell..Cell$LT$core..option..Option$LT$crossbeam_channel..context..Context$GT$$GT$$GT$$GT$17hb8189bafd2bffd3eE:
Lfunc_begin95:
	.loc	18 490 0
	.cfi_startproc
	pushq	%rbp
	.cfi_def_cfa_offset 16
	.cfi_offset %rbp, -16
	movq	%rsp, %rbp
	.cfi_def_cfa_register %rbp
	subq	$16, %rsp
	movq	%rdi, -8(%rbp)
Ltmp639:
	.loc	18 490 1 prologue_end
	callq	__ZN4core3ptr154drop_in_place$LT$std..thread..local..lazy..LazyKeyInner$LT$core..cell..Cell$LT$core..option..Option$LT$crossbeam_channel..context..Context$GT$$GT$$GT$$GT$17hd8e5be73d591c76aE
	addq	$16, %rsp
	popq	%rbp
	retq
Ltmp640:
Lfunc_end95:
	.cfi_endproc

	.globl	__ZN4core3ptr154drop_in_place$LT$std..thread..local..lazy..LazyKeyInner$LT$core..cell..Cell$LT$core..option..Option$LT$crossbeam_channel..context..Context$GT$$GT$$GT$$GT$17hd8e5be73d591c76aE
	.p2align	4, 0x90
__ZN4core3ptr154drop_in_place$LT$std..thread..local..lazy..LazyKeyInner$LT$core..cell..Cell$LT$core..option..Option$LT$crossbeam_channel..context..Context$GT$$GT$$GT$$GT$17hd8e5be73d591c76aE:
Lfunc_begin96:
	.loc	18 490 0
	.cfi_startproc
	pushq	%rbp
	.cfi_def_cfa_offset 16
	.cfi_offset %rbp, -16
	movq	%rsp, %rbp
	.cfi_def_cfa_register %rbp
	subq	$16, %rsp
	movq	%rdi, -8(%rbp)
Ltmp641:
	.loc	18 490 1 prologue_end
	callq	__ZN4core3ptr166drop_in_place$LT$core..cell..UnsafeCell$LT$core..option..Option$LT$core..cell..Cell$LT$core..option..Option$LT$crossbeam_channel..context..Context$GT$$GT$$GT$$GT$$GT$17hb2dac8d675d5df18E
	addq	$16, %rsp
	popq	%rbp
	retq
Ltmp642:
Lfunc_end96:
	.cfi_endproc

	.globl	__ZN4core3ptr166drop_in_place$LT$core..cell..UnsafeCell$LT$core..option..Option$LT$core..cell..Cell$LT$core..option..Option$LT$crossbeam_channel..context..Context$GT$$GT$$GT$$GT$$GT$17hb2dac8d675d5df18E
	.p2align	4, 0x90
__ZN4core3ptr166drop_in_place$LT$core..cell..UnsafeCell$LT$core..option..Option$LT$core..cell..Cell$LT$core..option..Option$LT$crossbeam_channel..context..Context$GT$$GT$$GT$$GT$$GT$17hb2dac8d675d5df18E:
Lfunc_begin97:
	.loc	18 490 0
	.cfi_startproc
	pushq	%rbp
	.cfi_def_cfa_offset 16
	.cfi_offset %rbp, -16
	movq	%rsp, %rbp
	.cfi_def_cfa_register %rbp
	subq	$16, %rsp
	movq	%rdi, -8(%rbp)
Ltmp643:
	.loc	18 490 1 prologue_end
	callq	__ZN4core3ptr136drop_in_place$LT$core..option..Option$LT$core..cell..Cell$LT$core..option..Option$LT$crossbeam_channel..context..Context$GT$$GT$$GT$$GT$17ha510dcc85303ede9E
	addq	$16, %rsp
	popq	%rbp
	retq
Ltmp644:
Lfunc_end97:
	.cfi_endproc

	.p2align	4, 0x90
__ZN4core3ptr30drop_in_place$LT$$RF$usize$GT$17h249ccdf77f7155bdE:
Lfunc_begin98:
	.loc	18 490 0
	.cfi_startproc
	pushq	%rbp
	.cfi_def_cfa_offset 16
	.cfi_offset %rbp, -16
	movq	%rsp, %rbp
	.cfi_def_cfa_register %rbp
	pushq	%rax
	movq	%rdi, -8(%rbp)
Ltmp645:
	.loc	18 490 1 prologue_end
	addq	$8, %rsp
	popq	%rbp
	retq
Ltmp646:
Lfunc_end98:
	.cfi_endproc

	.p2align	4, 0x90
__ZN4core3ptr33drop_in_place$LT$$RF$$LP$$RP$$GT$17hbb3f797ec5a97d73E:
Lfunc_begin99:
	.loc	18 490 0
	.cfi_startproc
	pushq	%rbp
	.cfi_def_cfa_offset 16
	.cfi_offset %rbp, -16
	movq	%rsp, %rbp
	.cfi_def_cfa_register %rbp
	pushq	%rax
	movq	%rdi, -8(%rbp)
Ltmp647:
	.loc	18 490 1 prologue_end
	addq	$8, %rsp
	popq	%rbp
	retq
Ltmp648:
Lfunc_end99:
	.cfi_endproc

	.p2align	4, 0x90
__ZN4core3ptr41drop_in_place$LT$$RF$$BP$const$u20$u8$GT$17h5473aaac9ace77b1E:
Lfunc_begin100:
	.loc	18 490 0
	.cfi_startproc
	pushq	%rbp
	.cfi_def_cfa_offset 16
	.cfi_offset %rbp, -16
	movq	%rsp, %rbp
	.cfi_def_cfa_register %rbp
	pushq	%rax
	movq	%rdi, -8(%rbp)
Ltmp649:
	.loc	18 490 1 prologue_end
	addq	$8, %rsp
	popq	%rbp
	retq
Ltmp650:
Lfunc_end100:
	.cfi_endproc

	.p2align	4, 0x90
__ZN4core3ptr43drop_in_place$LT$$RF$std..time..Instant$GT$17h080cd414eb242d8eE:
Lfunc_begin101:
	.loc	18 490 0
	.cfi_startproc
	pushq	%rbp
	.cfi_def_cfa_offset 16
	.cfi_offset %rbp, -16
	movq	%rsp, %rbp
	.cfi_def_cfa_register %rbp
	pushq	%rax
	movq	%rdi, -8(%rbp)
Ltmp651:
	.loc	18 490 1 prologue_end
	addq	$8, %rsp
	popq	%rbp
	retq
Ltmp652:
Lfunc_end101:
	.cfi_endproc

	.p2align	4, 0x90
__ZN4core3ptr44drop_in_place$LT$$RF$std..thread..Thread$GT$17hdd3e6f1f3be63b14E:
Lfunc_begin102:
	.loc	18 490 0
	.cfi_startproc
	pushq	%rbp
	.cfi_def_cfa_offset 16
	.cfi_offset %rbp, -16
	movq	%rsp, %rbp
	.cfi_def_cfa_register %rbp
	pushq	%rax
	movq	%rdi, -8(%rbp)
Ltmp653:
	.loc	18 490 1 prologue_end
	addq	$8, %rsp
	popq	%rbp
	retq
Ltmp654:
Lfunc_end102:
	.cfi_endproc

	.p2align	4, 0x90
__ZN4core3ptr46drop_in_place$LT$$RF$std..thread..ThreadId$GT$17h1f65ddeffd4af50cE:
Lfunc_begin103:
	.loc	18 490 0
	.cfi_startproc
	pushq	%rbp
	.cfi_def_cfa_offset 16
	.cfi_offset %rbp, -16
	movq	%rsp, %rbp
	.cfi_def_cfa_register %rbp
	pushq	%rax
	movq	%rdi, -8(%rbp)
Ltmp655:
	.loc	18 490 1 prologue_end
	addq	$8, %rsp
	popq	%rbp
	retq
Ltmp656:
Lfunc_end103:
	.cfi_endproc

	.globl	__ZN4core3ptr4swap17heb6bfc08360f88b6E
	.p2align	4, 0x90
__ZN4core3ptr4swap17heb6bfc08360f88b6E:
Lfunc_begin104:
	.loc	18 841 0
	.cfi_startproc
	pushq	%rbp
	.cfi_def_cfa_offset 16
	.cfi_offset %rbp, -16
	movq	%rsp, %rbp
	.cfi_def_cfa_register %rbp
	subq	$112, %rsp
	movq	%rdi, -80(%rbp)
	movq	%rsi, -72(%rbp)
Ltmp657:
	.loc	18 852 29 prologue_end
	movq	%rdi, -64(%rbp)
	.loc	18 852 32 is_stmt 0
	leaq	-112(%rbp), %rax
	movq	%rax, -56(%rbp)
Ltmp658:
	.loc	7 569 9 is_stmt 1
	leaq	-112(%rbp), %rax
	movq	%rax, -48(%rbp)
Ltmp659:
	.file	25 "/rustc/2c8cc343237b8f7d5a3c3703e3a87f2eb2c54a74/library/core/src" "intrinsics.rs"
	.loc	25 2372 9
	movq	(%rdi), %rax
	movq	%rax, -112(%rbp)
	movq	8(%rdi), %rax
	movq	%rax, -104(%rbp)
	movq	16(%rdi), %rax
	movq	%rax, -96(%rbp)
	movq	24(%rdi), %rax
	movq	%rax, -88(%rbp)
Ltmp660:
	.loc	18 853 14
	movq	%rsi, -40(%rbp)
	.loc	18 853 17 is_stmt 0
	movq	%rdi, -32(%rbp)
Ltmp661:
	.loc	25 2458 9 is_stmt 1
	movq	(%rsi), %rax
	movq	8(%rsi), %rcx
	movq	16(%rsi), %rdx
	movq	24(%rsi), %r8
	movq	%r8, 24(%rdi)
	movq	%rdx, 16(%rdi)
	movq	%rcx, 8(%rdi)
	movq	%rax, (%rdi)
Ltmp662:
	.loc	18 854 29
	leaq	-112(%rbp), %rax
	movq	%rax, -24(%rbp)
Ltmp663:
	.loc	7 530 9
	leaq	-112(%rbp), %rax
	movq	%rax, -16(%rbp)
Ltmp664:
	.loc	18 854 43
	movq	%rsi, -8(%rbp)
Ltmp665:
	.loc	25 2372 9
	movq	-112(%rbp), %rax
	movq	%rax, (%rsi)
	movq	-104(%rbp), %rax
	movq	%rax, 8(%rsi)
	movq	-96(%rbp), %rax
	movq	%rax, 16(%rsi)
	movq	-88(%rbp), %rax
	movq	%rax, 24(%rsi)
Ltmp666:
	.loc	18 856 2
	addq	$112, %rsp
	popq	%rbp
	retq
Ltmp667:
Lfunc_end104:
	.cfi_endproc

	.globl	__ZN4core3ptr54drop_in_place$LT$crossbeam_channel..context..Inner$GT$17hcefb60c586d08609E
	.p2align	4, 0x90
__ZN4core3ptr54drop_in_place$LT$crossbeam_channel..context..Inner$GT$17hcefb60c586d08609E:
Lfunc_begin105:
	.loc	18 490 0
	.cfi_startproc
	pushq	%rbp
	.cfi_def_cfa_offset 16
	.cfi_offset %rbp, -16
	movq	%rsp, %rbp
	.cfi_def_cfa_register %rbp
	subq	$16, %rsp
	movq	%rdi, -8(%rbp)
Ltmp668:
	.loc	18 490 1 prologue_end
	addq	$16, %rdi
	callq	__ZN4core3ptr40drop_in_place$LT$std..thread..Thread$GT$17h43f178349f7d7ffeE
	addq	$16, %rsp
	popq	%rbp
	retq
Ltmp669:
Lfunc_end105:
	.cfi_endproc

	.p2align	4, 0x90
__ZN4core3ptr56drop_in_place$LT$$RF$core..sync..atomic..AtomicUsize$GT$17h2395f5a52ee270efE:
Lfunc_begin106:
	.loc	18 490 0
	.cfi_startproc
	pushq	%rbp
	.cfi_def_cfa_offset 16
	.cfi_offset %rbp, -16
	movq	%rsp, %rbp
	.cfi_def_cfa_register %rbp
	pushq	%rax
	movq	%rdi, -8(%rbp)
Ltmp670:
	.loc	18 490 1 prologue_end
	addq	$8, %rsp
	popq	%rbp
	retq
Ltmp671:
Lfunc_end106:
	.cfi_endproc

	.globl	__ZN4core3ptr56drop_in_place$LT$crossbeam_channel..context..Context$GT$17h199e2ca30144a340E
	.p2align	4, 0x90
__ZN4core3ptr56drop_in_place$LT$crossbeam_channel..context..Context$GT$17h199e2ca30144a340E:
Lfunc_begin107:
	.loc	18 490 0
	.cfi_startproc
	pushq	%rbp
	.cfi_def_cfa_offset 16
	.cfi_offset %rbp, -16
	movq	%rsp, %rbp
	.cfi_def_cfa_register %rbp
	subq	$16, %rsp
	movq	%rdi, -8(%rbp)
Ltmp672:
	.loc	18 490 1 prologue_end
	callq	__ZN4core3ptr78drop_in_place$LT$alloc..sync..Arc$LT$crossbeam_channel..context..Inner$GT$$GT$17hff1695b0fb088b8fE
	addq	$16, %rsp
	popq	%rbp
	retq
Ltmp673:
Lfunc_end107:
	.cfi_endproc

	.p2align	4, 0x90
__ZN4core3ptr56drop_in_place$LT$crossbeam_channel..select..Selected$GT$17h77e3eec2e1a1aa54E:
Lfunc_begin108:
	.loc	18 490 0
	.cfi_startproc
	pushq	%rbp
	.cfi_def_cfa_offset 16
	.cfi_offset %rbp, -16
	movq	%rsp, %rbp
	.cfi_def_cfa_register %rbp
	pushq	%rax
	movq	%rdi, -8(%rbp)
Ltmp674:
	.loc	18 490 1 prologue_end
	addq	$8, %rsp
	popq	%rbp
	retq
Ltmp675:
Lfunc_end108:
	.cfi_endproc

	.p2align	4, 0x90
__ZN4core3ptr61drop_in_place$LT$$RF$crossbeam_channel..select..Operation$GT$17he50cc78f25f64041E:
Lfunc_begin109:
	.loc	18 490 0
	.cfi_startproc
	pushq	%rbp
	.cfi_def_cfa_offset 16
	.cfi_offset %rbp, -16
	movq	%rsp, %rbp
	.cfi_def_cfa_register %rbp
	pushq	%rax
	movq	%rdi, -8(%rbp)
Ltmp676:
	.loc	18 490 1 prologue_end
	addq	$8, %rsp
	popq	%rbp
	retq
Ltmp677:
Lfunc_end109:
	.cfi_endproc

	.globl	__ZN4core3ptr62drop_in_place$LT$crossbeam_channel..flavors..tick..Channel$GT$17ha7f09c4b7e6b7cd3E
	.p2align	4, 0x90
__ZN4core3ptr62drop_in_place$LT$crossbeam_channel..flavors..tick..Channel$GT$17ha7f09c4b7e6b7cd3E:
Lfunc_begin110:
	.loc	18 490 0
	.cfi_startproc
	pushq	%rbp
	.cfi_def_cfa_offset 16
	.cfi_offset %rbp, -16
	movq	%rsp, %rbp
	.cfi_def_cfa_register %rbp
	subq	$16, %rsp
	movq	%rdi, -8(%rbp)
Ltmp678:
	.loc	18 490 1 prologue_end
	addq	$16, %rdi
	callq	__ZN4core3ptr95drop_in_place$LT$crossbeam_utils..atomic..atomic_cell..AtomicCell$LT$std..time..Instant$GT$$GT$17h3add2972d88404e4E
	addq	$16, %rsp
	popq	%rbp
	retq
Ltmp679:
Lfunc_end110:
	.cfi_endproc

	.p2align	4, 0x90
__ZN4core3ptr68drop_in_place$LT$$RF$crossbeam_channel..flavors..list..ListToken$GT$17hff85048e5a450d8aE:
Lfunc_begin111:
	.loc	18 490 0
	.cfi_startproc
	pushq	%rbp
	.cfi_def_cfa_offset 16
	.cfi_offset %rbp, -16
	movq	%rsp, %rbp
	.cfi_def_cfa_register %rbp
	pushq	%rax
	movq	%rdi, -8(%rbp)
Ltmp680:
	.loc	18 490 1 prologue_end
	addq	$8, %rsp
	popq	%rbp
	retq
Ltmp681:
Lfunc_end111:
	.cfi_endproc

	.p2align	4, 0x90
__ZN4core3ptr68drop_in_place$LT$$RF$crossbeam_channel..flavors..zero..ZeroToken$GT$17h493f18e75bdaebe8E:
Lfunc_begin112:
	.loc	18 490 0
	.cfi_startproc
	pushq	%rbp
	.cfi_def_cfa_offset 16
	.cfi_offset %rbp, -16
	movq	%rsp, %rbp
	.cfi_def_cfa_register %rbp
	pushq	%rax
	movq	%rdi, -8(%rbp)
Ltmp682:
	.loc	18 490 1 prologue_end
	addq	$8, %rsp
	popq	%rbp
	retq
Ltmp683:
Lfunc_end112:
	.cfi_endproc

	.p2align	4, 0x90
__ZN4core3ptr70drop_in_place$LT$$RF$core..sync..atomic..AtomicPtr$LT$$LP$$RP$$GT$$GT$17h3641c38211f64d08E:
Lfunc_begin113:
	.loc	18 490 0
	.cfi_startproc
	pushq	%rbp
	.cfi_def_cfa_offset 16
	.cfi_offset %rbp, -16
	movq	%rsp, %rbp
	.cfi_def_cfa_register %rbp
	pushq	%rax
	movq	%rdi, -8(%rbp)
Ltmp684:
	.loc	18 490 1 prologue_end
	addq	$8, %rsp
	popq	%rbp
	retq
Ltmp685:
Lfunc_end113:
	.cfi_endproc

	.p2align	4, 0x90
__ZN4core3ptr70drop_in_place$LT$$RF$crossbeam_channel..flavors..array..ArrayToken$GT$17h548fcec519be7296E:
Lfunc_begin114:
	.loc	18 490 0
	.cfi_startproc
	pushq	%rbp
	.cfi_def_cfa_offset 16
	.cfi_offset %rbp, -16
	movq	%rsp, %rbp
	.cfi_def_cfa_register %rbp
	pushq	%rax
	movq	%rdi, -8(%rbp)
Ltmp686:
	.loc	18 490 1 prologue_end
	addq	$8, %rsp
	popq	%rbp
	retq
Ltmp687:
Lfunc_end114:
	.cfi_endproc

	.p2align	4, 0x90
__ZN4core3ptr71drop_in_place$LT$$RF$core..option..Option$LT$std..time..Instant$GT$$GT$17h8183bd3cbaa420e4E:
Lfunc_begin115:
	.loc	18 490 0
	.cfi_startproc
	pushq	%rbp
	.cfi_def_cfa_offset 16
	.cfi_offset %rbp, -16
	movq	%rsp, %rbp
	.cfi_def_cfa_register %rbp
	pushq	%rax
	movq	%rdi, -8(%rbp)
Ltmp688:
	.loc	18 490 1 prologue_end
	addq	$8, %rsp
	popq	%rbp
	retq
Ltmp689:
Lfunc_end115:
	.cfi_endproc

	.globl	__ZN4core3ptr78drop_in_place$LT$alloc..sync..Arc$LT$crossbeam_channel..context..Inner$GT$$GT$17hff1695b0fb088b8fE
	.p2align	4, 0x90
__ZN4core3ptr78drop_in_place$LT$alloc..sync..Arc$LT$crossbeam_channel..context..Inner$GT$$GT$17hff1695b0fb088b8fE:
Lfunc_begin116:
	.loc	18 490 0
	.cfi_startproc
	pushq	%rbp
	.cfi_def_cfa_offset 16
	.cfi_offset %rbp, -16
	movq	%rsp, %rbp
	.cfi_def_cfa_register %rbp
	subq	$16, %rsp
	movq	%rdi, -8(%rbp)
Ltmp690:
	.loc	18 490 1 prologue_end
	callq	__ZN67_$LT$alloc..sync..Arc$LT$T$GT$$u20$as$u20$core..ops..drop..Drop$GT$4drop17h0b9a1206ca9d17d9E
	addq	$16, %rsp
	popq	%rbp
	retq
Ltmp691:
Lfunc_end116:
	.cfi_endproc

	.globl	__ZN4core3ptr79drop_in_place$LT$alloc..sync..Weak$LT$crossbeam_channel..context..Inner$GT$$GT$17h684cd8a77364a70aE
	.p2align	4, 0x90
__ZN4core3ptr79drop_in_place$LT$alloc..sync..Weak$LT$crossbeam_channel..context..Inner$GT$$GT$17h684cd8a77364a70aE:
Lfunc_begin117:
	.loc	18 490 0
	.cfi_startproc
	pushq	%rbp
	.cfi_def_cfa_offset 16
	.cfi_offset %rbp, -16
	movq	%rsp, %rbp
	.cfi_def_cfa_register %rbp
	subq	$16, %rsp
	movq	%rdi, -8(%rbp)
Ltmp692:
	.loc	18 490 1 prologue_end
	callq	__ZN68_$LT$alloc..sync..Weak$LT$T$GT$$u20$as$u20$core..ops..drop..Drop$GT$4drop17hea28c032bb8ed4c4E
	addq	$16, %rsp
	popq	%rbp
	retq
Ltmp693:
Lfunc_end117:
	.cfi_endproc

	.p2align	4, 0x90
__ZN4core3ptr82drop_in_place$LT$$RF$alloc..sync..Arc$LT$crossbeam_channel..context..Inner$GT$$GT$17h055fdd55a9edb244E:
Lfunc_begin118:
	.loc	18 490 0
	.cfi_startproc
	pushq	%rbp
	.cfi_def_cfa_offset 16
	.cfi_offset %rbp, -16
	movq	%rsp, %rbp
	.cfi_def_cfa_register %rbp
	pushq	%rax
	movq	%rdi, -8(%rbp)
Ltmp694:
	.loc	18 490 1 prologue_end
	addq	$8, %rsp
	popq	%rbp
	retq
Ltmp695:
Lfunc_end118:
	.cfi_endproc

	.globl	__ZN4core3ptr83drop_in_place$LT$alloc..sync..ArcInner$LT$crossbeam_channel..context..Inner$GT$$GT$17he02bee2fb6dd7d1aE
	.p2align	4, 0x90
__ZN4core3ptr83drop_in_place$LT$alloc..sync..ArcInner$LT$crossbeam_channel..context..Inner$GT$$GT$17he02bee2fb6dd7d1aE:
Lfunc_begin119:
	.loc	18 490 0
	.cfi_startproc
	pushq	%rbp
	.cfi_def_cfa_offset 16
	.cfi_offset %rbp, -16
	movq	%rsp, %rbp
	.cfi_def_cfa_register %rbp
	subq	$16, %rsp
	movq	%rdi, -8(%rbp)
Ltmp696:
	.loc	18 490 1 prologue_end
	addq	$16, %rdi
	callq	__ZN4core3ptr54drop_in_place$LT$crossbeam_channel..context..Inner$GT$17hcefb60c586d08609E
	addq	$16, %rsp
	popq	%rbp
	retq
Ltmp697:
Lfunc_end119:
	.cfi_endproc

	.globl	__ZN4core3ptr84drop_in_place$LT$core..option..Option$LT$crossbeam_channel..context..Context$GT$$GT$17ha66c6780872b75c2E
	.p2align	4, 0x90
__ZN4core3ptr84drop_in_place$LT$core..option..Option$LT$crossbeam_channel..context..Context$GT$$GT$17ha66c6780872b75c2E:
Lfunc_begin120:
	.loc	18 490 0
	.cfi_startproc
	pushq	%rbp
	.cfi_def_cfa_offset 16
	.cfi_offset %rbp, -16
	movq	%rsp, %rbp
	.cfi_def_cfa_register %rbp
	subq	$16, %rsp
	movq	%rdi, -16(%rbp)
	movq	%rdi, -8(%rbp)
Ltmp698:
	.loc	18 490 1 prologue_end
	movq	(%rdi), %rdx
	movl	$1, %eax
	xorl	%ecx, %ecx
	cmpq	$0, %rdx
	cmoveq	%rcx, %rax
	cmpq	$0, %rax
	jne	LBB120_2
LBB120_1:
	addq	$16, %rsp
	popq	%rbp
	retq
LBB120_2:
	.loc	18 0 1 is_stmt 0
	movq	-16(%rbp), %rdi
	.loc	18 490 1
	callq	__ZN4core3ptr56drop_in_place$LT$crossbeam_channel..context..Context$GT$17h199e2ca30144a340E
	jmp	LBB120_1
Ltmp699:
Lfunc_end120:
	.cfi_endproc

	.globl	__ZN4core3ptr91drop_in_place$LT$alloc..sync..ArcInner$LT$crossbeam_channel..flavors..tick..Channel$GT$$GT$17h723708f1e825a4c5E
	.p2align	4, 0x90
__ZN4core3ptr91drop_in_place$LT$alloc..sync..ArcInner$LT$crossbeam_channel..flavors..tick..Channel$GT$$GT$17h723708f1e825a4c5E:
Lfunc_begin121:
	.loc	18 490 0 is_stmt 1
	.cfi_startproc
	pushq	%rbp
	.cfi_def_cfa_offset 16
	.cfi_offset %rbp, -16
	movq	%rsp, %rbp
	.cfi_def_cfa_register %rbp
	subq	$16, %rsp
	movq	%rdi, -8(%rbp)
Ltmp700:
	.loc	18 490 1 prologue_end
	addq	$16, %rdi
	callq	__ZN4core3ptr62drop_in_place$LT$crossbeam_channel..flavors..tick..Channel$GT$17ha7f09c4b7e6b7cd3E
	addq	$16, %rsp
	popq	%rbp
	retq
Ltmp701:
Lfunc_end121:
	.cfi_endproc

	.globl	__ZN4core3ptr95drop_in_place$LT$crossbeam_utils..atomic..atomic_cell..AtomicCell$LT$std..time..Instant$GT$$GT$17h3add2972d88404e4E
	.p2align	4, 0x90
__ZN4core3ptr95drop_in_place$LT$crossbeam_utils..atomic..atomic_cell..AtomicCell$LT$std..time..Instant$GT$$GT$17h3add2972d88404e4E:
Lfunc_begin122:
	.loc	18 490 0
	.cfi_startproc
	pushq	%rbp
	.cfi_def_cfa_offset 16
	.cfi_offset %rbp, -16
	movq	%rsp, %rbp
	.cfi_def_cfa_register %rbp
	subq	$16, %rsp
	movq	%rdi, -8(%rbp)
Ltmp702:
	.loc	18 490 1 prologue_end
	callq	__ZN99_$LT$crossbeam_utils..atomic..atomic_cell..AtomicCell$LT$T$GT$$u20$as$u20$core..ops..drop..Drop$GT$4drop17h13bf22c15da79d5bE
	addq	$16, %rsp
	popq	%rbp
	retq
Ltmp703:
Lfunc_end122:
	.cfi_endproc

	.globl	__ZN4core4cell13Cell$LT$T$GT$3get17h4596694b58ef96dfE
	.p2align	4, 0x90
__ZN4core4cell13Cell$LT$T$GT$3get17h4596694b58ef96dfE:
Lfunc_begin123:
	.loc	9 449 0
	.cfi_startproc
	pushq	%rbp
	.cfi_def_cfa_offset 16
	.cfi_offset %rbp, -16
	movq	%rsp, %rbp
	.cfi_def_cfa_register %rbp
	subq	$16, %rsp
	movq	%rdi, -16(%rbp)
Ltmp704:
	.loc	9 452 19 prologue_end
	movq	%rdi, -8(%rbp)
	.loc	9 452 18 is_stmt 0
	movl	(%rdi), %eax
	.loc	9 453 6 is_stmt 1
	addq	$16, %rsp
	popq	%rbp
	retq
Ltmp705:
Lfunc_end123:
	.cfi_endproc

	.globl	__ZN4core4cell13Cell$LT$T$GT$3new17h0130a47f11b2c2ffE
	.p2align	4, 0x90
__ZN4core4cell13Cell$LT$T$GT$3new17h0130a47f11b2c2ffE:
Lfunc_begin124:
	.loc	9 345 0
	.cfi_startproc
	pushq	%rbp
	.cfi_def_cfa_offset 16
	.cfi_offset %rbp, -16
	movq	%rsp, %rbp
	.cfi_def_cfa_register %rbp
	subq	$16, %rsp
	movl	%edi, -8(%rbp)
Ltmp706:
	.loc	9 346 39 prologue_end
	movl	%edi, -4(%rbp)
Ltmp707:
	.loc	9 1953 9
	movl	%edi, -12(%rbp)
Ltmp708:
	.loc	9 346 9
	movl	-12(%rbp), %eax
	movl	%eax, -16(%rbp)
	.loc	9 347 6
	movl	-16(%rbp), %eax
	addq	$16, %rsp
	popq	%rbp
	retq
Ltmp709:
Lfunc_end124:
	.cfi_endproc

	.globl	__ZN4core4cell13Cell$LT$T$GT$3new17h94d778cea7e6f73fE
	.p2align	4, 0x90
__ZN4core4cell13Cell$LT$T$GT$3new17h94d778cea7e6f73fE:
Lfunc_begin125:
	.loc	9 345 0
	.cfi_startproc
	pushq	%rbp
	.cfi_def_cfa_offset 16
	.cfi_offset %rbp, -16
	movq	%rsp, %rbp
	.cfi_def_cfa_register %rbp
	subq	$32, %rsp
	movq	%rdi, -16(%rbp)
Ltmp710:
	.loc	9 346 39 prologue_end
	movq	%rdi, -8(%rbp)
Ltmp711:
	.loc	9 1953 9
	movq	%rdi, -24(%rbp)
Ltmp712:
	.loc	9 346 9
	movq	-24(%rbp), %rax
	movq	%rax, -32(%rbp)
	.loc	9 347 6
	movq	-32(%rbp), %rax
	addq	$32, %rsp
	popq	%rbp
	retq
Ltmp713:
Lfunc_end125:
	.cfi_endproc

	.globl	__ZN4core4cell13Cell$LT$T$GT$3set17haaafba221ffbe4b1E
	.p2align	4, 0x90
__ZN4core4cell13Cell$LT$T$GT$3set17haaafba221ffbe4b1E:
Lfunc_begin126:
	.loc	9 362 0
	.cfi_startproc
	pushq	%rbp
	.cfi_def_cfa_offset 16
	.cfi_offset %rbp, -16
	movq	%rsp, %rbp
	.cfi_def_cfa_register %rbp
	subq	$32, %rsp
	movq	%rdi, -24(%rbp)
	movq	%rsi, -16(%rbp)
Ltmp714:
	.loc	9 363 19 prologue_end
	callq	__ZN4core4cell13Cell$LT$T$GT$7replace17he955ee18c18eb5ffE
	movq	%rax, -8(%rbp)
Ltmp715:
	.loc	9 364 14
	movq	%rax, -32(%rbp)
Ltmp716:
	.loc	14 980 24
	leaq	-32(%rbp), %rdi
	callq	__ZN4core3ptr84drop_in_place$LT$core..option..Option$LT$crossbeam_channel..context..Context$GT$$GT$17ha66c6780872b75c2E
Ltmp717:
	.loc	9 365 6
	addq	$32, %rsp
	popq	%rbp
	retq
Ltmp718:
Lfunc_end126:
	.cfi_endproc

	.globl	__ZN4core4cell13Cell$LT$T$GT$3set17hbb634b4234c50b9dE
	.p2align	4, 0x90
__ZN4core4cell13Cell$LT$T$GT$3set17hbb634b4234c50b9dE:
Lfunc_begin127:
	.loc	9 362 0
	.cfi_startproc
	pushq	%rbp
	.cfi_def_cfa_offset 16
	.cfi_offset %rbp, -16
	movq	%rsp, %rbp
	.cfi_def_cfa_register %rbp
	subq	$32, %rsp
	movq	%rdi, -24(%rbp)
	movl	%esi, -12(%rbp)
Ltmp719:
	.loc	9 363 19 prologue_end
	callq	__ZN4core4cell13Cell$LT$T$GT$7replace17h1df257fbc25134d8E
	movl	%eax, -8(%rbp)
Ltmp720:
	.loc	9 364 14
	movl	%eax, -4(%rbp)
Ltmp721:
	.loc	9 365 6
	addq	$32, %rsp
	popq	%rbp
	retq
Ltmp722:
Lfunc_end127:
	.cfi_endproc

	.globl	__ZN4core4cell13Cell$LT$T$GT$3set17hc741a2fc3df115eaE
	.p2align	4, 0x90
__ZN4core4cell13Cell$LT$T$GT$3set17hc741a2fc3df115eaE:
Lfunc_begin128:
	.loc	9 362 0
	.cfi_startproc
	pushq	%rbp
	.cfi_def_cfa_offset 16
	.cfi_offset %rbp, -16
	movq	%rsp, %rbp
	.cfi_def_cfa_register %rbp
	subq	$32, %rsp
	movq	%rdi, -24(%rbp)
	movl	%esi, -12(%rbp)
Ltmp723:
	.loc	9 363 19 prologue_end
	callq	__ZN4core4cell13Cell$LT$T$GT$7replace17h5aaa9369bc05069fE
	movl	%eax, -8(%rbp)
Ltmp724:
	.loc	9 364 14
	movl	%eax, -4(%rbp)
Ltmp725:
	.loc	9 365 6
	addq	$32, %rsp
	popq	%rbp
	retq
Ltmp726:
Lfunc_end128:
	.cfi_endproc

	.globl	__ZN4core4cell13Cell$LT$T$GT$4take17h01c8473919f4401cE
	.p2align	4, 0x90
__ZN4core4cell13Cell$LT$T$GT$4take17h01c8473919f4401cE:
Lfunc_begin129:
	.loc	9 566 0
	.cfi_startproc
	pushq	%rbp
	.cfi_def_cfa_offset 16
	.cfi_offset %rbp, -16
	movq	%rsp, %rbp
	.cfi_def_cfa_register %rbp
	subq	$16, %rsp
	movq	%rdi, -16(%rbp)
	movq	%rdi, -8(%rbp)
Ltmp727:
	.loc	9 567 22 prologue_end
	callq	__ZN72_$LT$core..option..Option$LT$T$GT$$u20$as$u20$core..default..Default$GT$7default17hb29eb7ffaeeb77dfE
	movq	-16(%rbp), %rdi
	movq	%rax, %rsi
	.loc	9 567 9 is_stmt 0
	callq	__ZN4core4cell13Cell$LT$T$GT$7replace17he955ee18c18eb5ffE
	.loc	9 568 6 is_stmt 1
	addq	$16, %rsp
	popq	%rbp
	retq
Ltmp728:
Lfunc_end129:
	.cfi_endproc

	.globl	__ZN4core4cell13Cell$LT$T$GT$7replace17h1df257fbc25134d8E
	.p2align	4, 0x90
__ZN4core4cell13Cell$LT$T$GT$7replace17h1df257fbc25134d8E:
Lfunc_begin130:
	.loc	9 410 0
	.cfi_startproc
	.cfi_personality 155, _rust_eh_personality
	.cfi_lsda 16, Lexception25
	pushq	%rbp
	.cfi_def_cfa_offset 16
	.cfi_offset %rbp, -16
	movq	%rsp, %rbp
	.cfi_def_cfa_register %rbp
	subq	$48, %rsp
	movq	%rdi, -40(%rbp)
	movl	%esi, -28(%rbp)
Ltmp732:
	.loc	9 413 37 prologue_end
	movq	%rdi, -24(%rbp)
Ltmp729:
	.loc	9 413 9 is_stmt 0
	callq	__ZN4core3mem7replace17hf3053710c83324adE
Ltmp730:
	movl	%eax, -44(%rbp)
	jmp	LBB130_3
LBB130_1:
	.loc	9 414 5 is_stmt 1
	xorl	%eax, %eax
	testb	$1, %al
	jne	LBB130_5
	jmp	LBB130_4
LBB130_2:
Ltmp731:
	.loc	9 0 5 is_stmt 0
	movq	%rax, %rcx
	movl	%edx, %eax
	movq	%rcx, -16(%rbp)
	movl	%eax, -8(%rbp)
	jmp	LBB130_1
LBB130_3:
	movl	-44(%rbp), %eax
	.loc	9 414 6
	addq	$48, %rsp
	popq	%rbp
	retq
LBB130_4:
	.loc	9 410 5 is_stmt 1
	movq	-16(%rbp), %rdi
	callq	__Unwind_Resume
LBB130_5:
	.loc	9 414 5
	jmp	LBB130_4
Ltmp733:
Lfunc_end130:
	.cfi_endproc
	.section	__TEXT,__gcc_except_tab
	.p2align	2
GCC_except_table130:
Lexception25:
	.byte	255
	.byte	255
	.byte	1
	.uleb128 Lcst_end25-Lcst_begin25
Lcst_begin25:
	.uleb128 Ltmp729-Lfunc_begin130
	.uleb128 Ltmp730-Ltmp729
	.uleb128 Ltmp731-Lfunc_begin130
	.byte	0
	.uleb128 Ltmp730-Lfunc_begin130
	.uleb128 Lfunc_end130-Ltmp730
	.byte	0
	.byte	0
Lcst_end25:
	.p2align	2

	.section	__TEXT,__text,regular,pure_instructions
	.globl	__ZN4core4cell13Cell$LT$T$GT$7replace17h5aaa9369bc05069fE
	.p2align	4, 0x90
__ZN4core4cell13Cell$LT$T$GT$7replace17h5aaa9369bc05069fE:
Lfunc_begin131:
	.loc	9 410 0
	.cfi_startproc
	.cfi_personality 155, _rust_eh_personality
	.cfi_lsda 16, Lexception26
	pushq	%rbp
	.cfi_def_cfa_offset 16
	.cfi_offset %rbp, -16
	movq	%rsp, %rbp
	.cfi_def_cfa_register %rbp
	subq	$48, %rsp
	movq	%rdi, -40(%rbp)
	movl	%esi, -28(%rbp)
Ltmp737:
	.loc	9 413 37 prologue_end
	movq	%rdi, -24(%rbp)
Ltmp734:
	.loc	9 413 9 is_stmt 0
	callq	__ZN4core3mem7replace17hbc9bd9d462b14203E
Ltmp735:
	movl	%eax, -44(%rbp)
	jmp	LBB131_3
LBB131_1:
	.loc	9 414 5 is_stmt 1
	xorl	%eax, %eax
	testb	$1, %al
	jne	LBB131_5
	jmp	LBB131_4
LBB131_2:
Ltmp736:
	.loc	9 0 5 is_stmt 0
	movq	%rax, %rcx
	movl	%edx, %eax
	movq	%rcx, -16(%rbp)
	movl	%eax, -8(%rbp)
	jmp	LBB131_1
LBB131_3:
	movl	-44(%rbp), %eax
	.loc	9 414 6
	addq	$48, %rsp
	popq	%rbp
	retq
LBB131_4:
	.loc	9 410 5 is_stmt 1
	movq	-16(%rbp), %rdi
	callq	__Unwind_Resume
LBB131_5:
	.loc	9 414 5
	jmp	LBB131_4
Ltmp738:
Lfunc_end131:
	.cfi_endproc
	.section	__TEXT,__gcc_except_tab
	.p2align	2
GCC_except_table131:
Lexception26:
	.byte	255
	.byte	255
	.byte	1
	.uleb128 Lcst_end26-Lcst_begin26
Lcst_begin26:
	.uleb128 Ltmp734-Lfunc_begin131
	.uleb128 Ltmp735-Ltmp734
	.uleb128 Ltmp736-Lfunc_begin131
	.byte	0
	.uleb128 Ltmp735-Lfunc_begin131
	.uleb128 Lfunc_end131-Ltmp735
	.byte	0
	.byte	0
Lcst_end26:
	.p2align	2

	.section	__TEXT,__text,regular,pure_instructions
	.globl	__ZN4core4cell13Cell$LT$T$GT$7replace17he955ee18c18eb5ffE
	.p2align	4, 0x90
__ZN4core4cell13Cell$LT$T$GT$7replace17he955ee18c18eb5ffE:
Lfunc_begin132:
	.loc	9 410 0
	.cfi_startproc
	.cfi_personality 155, _rust_eh_personality
	.cfi_lsda 16, Lexception27
	pushq	%rbp
	.cfi_def_cfa_offset 16
	.cfi_offset %rbp, -16
	movq	%rsp, %rbp
	.cfi_def_cfa_register %rbp
	subq	$48, %rsp
	movq	%rsi, -40(%rbp)
	movq	%rdi, -32(%rbp)
Ltmp745:
	.loc	9 413 37 prologue_end
	movq	%rdi, -24(%rbp)
	.loc	9 413 57 is_stmt 0
	movq	-40(%rbp), %rsi
Ltmp739:
	.loc	9 413 9
	callq	__ZN4core3mem7replace17h9229ff43e827cfb2E
Ltmp740:
	movq	%rax, -48(%rbp)
	jmp	LBB132_3
LBB132_1:
	.loc	9 414 5 is_stmt 1
	xorl	%eax, %eax
	testb	$1, %al
	jne	LBB132_5
	jmp	LBB132_4
LBB132_2:
Ltmp741:
	.loc	9 0 5 is_stmt 0
	movq	%rax, %rcx
	movl	%edx, %eax
	movq	%rcx, -16(%rbp)
	movl	%eax, -8(%rbp)
	jmp	LBB132_1
LBB132_3:
	movq	-48(%rbp), %rax
	.loc	9 414 6
	addq	$48, %rsp
	popq	%rbp
	retq
LBB132_4:
	.loc	9 410 5 is_stmt 1
	movq	-16(%rbp), %rdi
	callq	__Unwind_Resume
LBB132_5:
Ltmp742:
	.loc	9 0 5 is_stmt 0
	leaq	-40(%rbp), %rdi
	.loc	9 414 5 is_stmt 1
	callq	__ZN4core3ptr84drop_in_place$LT$core..option..Option$LT$crossbeam_channel..context..Context$GT$$GT$17ha66c6780872b75c2E
Ltmp743:
	jmp	LBB132_4
LBB132_6:
Ltmp744:
	.loc	9 410 5
	callq	__ZN4core9panicking19panic_cannot_unwind17h1fbca7e1d7f56ae1E
Ltmp746:
Lfunc_end132:
	.cfi_endproc
	.section	__TEXT,__gcc_except_tab
	.p2align	2
GCC_except_table132:
Lexception27:
	.byte	255
	.byte	255
	.byte	1
	.uleb128 Lcst_end27-Lcst_begin27
Lcst_begin27:
	.uleb128 Ltmp739-Lfunc_begin132
	.uleb128 Ltmp740-Ltmp739
	.uleb128 Ltmp741-Lfunc_begin132
	.byte	0
	.uleb128 Ltmp740-Lfunc_begin132
	.uleb128 Ltmp742-Ltmp740
	.byte	0
	.byte	0
	.uleb128 Ltmp742-Lfunc_begin132
	.uleb128 Ltmp743-Ltmp742
	.uleb128 Ltmp744-Lfunc_begin132
	.byte	0
Lcst_end27:
	.p2align	2

	.section	__TEXT,__text,regular,pure_instructions
	.p2align	4, 0x90
__ZN4core4hint21unreachable_unchecked17h9a76d4a75d9213cdE:
Lfunc_begin133:
	.file	26 "/rustc/2c8cc343237b8f7d5a3c3703e3a87f2eb2c54a74/library/core/src" "hint.rs"
	.loc	26 100 0
	.cfi_startproc
	pushq	%rbp
	.cfi_def_cfa_offset 16
	.cfi_offset %rbp, -16
	movq	%rsp, %rbp
	.cfi_def_cfa_register %rbp
Ltmp747:
	.loc	26 104 9 prologue_end
	ud2
Ltmp748:
Lfunc_end133:
	.cfi_endproc

	.globl	__ZN4core4iter5range101_$LT$impl$u20$core..iter..traits..iterator..Iterator$u20$for$u20$core..ops..range..Range$LT$A$GT$$GT$4next17h521d971352e7e8ecE
	.p2align	4, 0x90
__ZN4core4iter5range101_$LT$impl$u20$core..iter..traits..iterator..Iterator$u20$for$u20$core..ops..range..Range$LT$A$GT$$GT$4next17h521d971352e7e8ecE:
Lfunc_begin134:
	.loc	19 710 0
	.cfi_startproc
	pushq	%rbp
	.cfi_def_cfa_offset 16
	.cfi_offset %rbp, -16
	movq	%rsp, %rbp
	.cfi_def_cfa_register %rbp
	subq	$16, %rsp
	movq	%rdi, -8(%rbp)
Ltmp749:
	.loc	19 711 9 prologue_end
	callq	__ZN89_$LT$core..ops..range..Range$LT$T$GT$$u20$as$u20$core..iter..range..RangeIteratorImpl$GT$9spec_next17h6fcbf01707e651adE
	.loc	19 712 6
	addq	$16, %rsp
	popq	%rbp
	retq
Ltmp750:
Lfunc_end134:
	.cfi_endproc

	.globl	__ZN4core4iter5range101_$LT$impl$u20$core..iter..traits..iterator..Iterator$u20$for$u20$core..ops..range..Range$LT$A$GT$$GT$4next17h633167f7819c8f75E
	.p2align	4, 0x90
__ZN4core4iter5range101_$LT$impl$u20$core..iter..traits..iterator..Iterator$u20$for$u20$core..ops..range..Range$LT$A$GT$$GT$4next17h633167f7819c8f75E:
Lfunc_begin135:
	.loc	19 710 0
	.cfi_startproc
	pushq	%rbp
	.cfi_def_cfa_offset 16
	.cfi_offset %rbp, -16
	movq	%rsp, %rbp
	.cfi_def_cfa_register %rbp
	subq	$16, %rsp
	movq	%rdi, -8(%rbp)
Ltmp751:
	.loc	19 711 9 prologue_end
	callq	__ZN89_$LT$core..ops..range..Range$LT$T$GT$$u20$as$u20$core..iter..range..RangeIteratorImpl$GT$9spec_next17hec9de63848b1b127E
	.loc	19 712 6
	addq	$16, %rsp
	popq	%rbp
	retq
Ltmp752:
Lfunc_end135:
	.cfi_endproc

	.globl	__ZN4core4iter6traits8iterator8Iterator4find17h1caf3497d25818bbE
	.p2align	4, 0x90
__ZN4core4iter6traits8iterator8Iterator4find17h1caf3497d25818bbE:
Lfunc_begin136:
	.file	27 "/rustc/2c8cc343237b8f7d5a3c3703e3a87f2eb2c54a74/library/core/src/iter/traits" "iterator.rs"
	.loc	27 2712 0
	.cfi_startproc
	pushq	%rbp
	.cfi_def_cfa_offset 16
	.cfi_offset %rbp, -16
	movq	%rsp, %rbp
	.cfi_def_cfa_register %rbp
	subq	$32, %rsp
	movq	%rdi, -24(%rbp)
	movq	%rsi, -16(%rbp)
Ltmp753:
	.loc	27 2724 33 prologue_end
	movq	%rsi, -8(%rbp)
Ltmp754:
	.loc	27 2719 13
	movq	%rsi, -32(%rbp)
Ltmp755:
	.loc	27 2724 9
	movq	-32(%rbp), %rsi
	callq	__ZN110_$LT$core..iter..adapters..enumerate..Enumerate$LT$I$GT$$u20$as$u20$core..iter..traits..iterator..Iterator$GT$8try_fold17hd84b225df5b48c77E
	movq	%rax, %rdi
	movq	%rdx, %rsi
	callq	__ZN4core3ops12control_flow24ControlFlow$LT$B$C$C$GT$11break_value17hc22247f41f089512E
	.loc	27 2725 6
	addq	$32, %rsp
	popq	%rbp
	retq
Ltmp756:
Lfunc_end136:
	.cfi_endproc

	.globl	__ZN4core4iter6traits8iterator8Iterator4find5check28_$u7b$$u7b$closure$u7d$$u7d$17hcacc86209d94a048E
	.p2align	4, 0x90
__ZN4core4iter6traits8iterator8Iterator4find5check28_$u7b$$u7b$closure$u7d$$u7d$17hcacc86209d94a048E:
Lfunc_begin137:
	.loc	27 2719 0
	.cfi_startproc
	.cfi_personality 155, _rust_eh_personality
	.cfi_lsda 16, Lexception28
	pushq	%rbp
	.cfi_def_cfa_offset 16
	.cfi_offset %rbp, -16
	movq	%rsp, %rbp
	.cfi_def_cfa_register %rbp
	subq	$96, %rsp
	movq	%rsi, -80(%rbp)
	movq	%rdx, -72(%rbp)
	movq	%rdi, -32(%rbp)
Ltmp760:
	.loc	27 2720 20 prologue_end
	movb	$1, -33(%rbp)
	leaq	-80(%rbp), %rax
	movq	%rax, -48(%rbp)
	movq	-48(%rbp), %rsi
Ltmp757:
	callq	__ZN17crossbeam_channel6select6Select6remove28_$u7b$$u7b$closure$u7d$$u7d$17h5dfc6c9001eea7f8E
Ltmp758:
	movb	%al, -81(%rbp)
	jmp	LBB137_3
LBB137_1:
	.loc	27 2719 13
	movq	-16(%rbp), %rdi
	callq	__Unwind_Resume
LBB137_2:
Ltmp759:
	.loc	27 0 13 is_stmt 0
	movq	%rax, %rcx
	movl	%edx, %eax
	movq	%rcx, -16(%rbp)
	movl	%eax, -8(%rbp)
	jmp	LBB137_1
LBB137_3:
	movb	-81(%rbp), %al
	.loc	27 2720 20 is_stmt 1
	testb	$1, %al
	jne	LBB137_5
	jmp	LBB137_4
LBB137_4:
	.loc	27 2720 67 is_stmt 0
	movq	L___unnamed_25(%rip), %rcx
	movq	L___unnamed_25+8(%rip), %rax
	movq	%rcx, -64(%rbp)
	movq	%rax, -56(%rbp)
	.loc	27 2720 17
	jmp	LBB137_6
LBB137_5:
	.loc	27 2720 55
	movb	$0, -33(%rbp)
	movq	-80(%rbp), %rcx
	movq	-72(%rbp), %rax
	.loc	27 2720 36
	movq	%rcx, -64(%rbp)
	movq	%rax, -56(%rbp)
LBB137_6:
	.loc	27 2721 13 is_stmt 1
	testb	$1, -33(%rbp)
	jne	LBB137_8
LBB137_7:
	.loc	27 2721 14 is_stmt 0
	movq	-64(%rbp), %rax
	movq	-56(%rbp), %rdx
	addq	$96, %rsp
	popq	%rbp
	retq
LBB137_8:
	.loc	27 2721 13
	jmp	LBB137_7
Ltmp761:
Lfunc_end137:
	.cfi_endproc
	.section	__TEXT,__gcc_except_tab
	.p2align	2
GCC_except_table137:
Lexception28:
	.byte	255
	.byte	255
	.byte	1
	.uleb128 Lcst_end28-Lcst_begin28
Lcst_begin28:
	.uleb128 Ltmp757-Lfunc_begin137
	.uleb128 Ltmp758-Ltmp757
	.uleb128 Ltmp759-Lfunc_begin137
	.byte	0
	.uleb128 Ltmp758-Lfunc_begin137
	.uleb128 Lfunc_end137-Ltmp758
	.byte	0
	.byte	0
Lcst_end28:
	.p2align	2

	.section	__TEXT,__text,regular,pure_instructions
	.globl	__ZN4core4iter6traits8iterator8Iterator4take17h0b5b97336367b7fdE
	.p2align	4, 0x90
__ZN4core4iter6traits8iterator8Iterator4take17h0b5b97336367b7fdE:
Lfunc_begin138:
	.loc	27 1382 0 is_stmt 1
	.cfi_startproc
	pushq	%rbp
	.cfi_def_cfa_offset 16
	.cfi_offset %rbp, -16
	movq	%rsp, %rbp
	.cfi_def_cfa_register %rbp
	subq	$32, %rsp
	movq	%rdi, %rax
	movq	%rax, -32(%rbp)
	movq	%rsi, -24(%rbp)
	movq	%rdx, -16(%rbp)
	movq	%rcx, -8(%rbp)
Ltmp762:
	.loc	27 1386 9 prologue_end
	callq	__ZN4core4iter8adapters4take13Take$LT$I$GT$3new17h2f11ba44f93de40dE
	movq	-32(%rbp), %rax
	.loc	27 1387 6
	addq	$32, %rsp
	popq	%rbp
	retq
Ltmp763:
Lfunc_end138:
	.cfi_endproc

	.globl	__ZN4core4iter6traits8iterator8Iterator8try_fold17h4a2cb7a8235dbef6E
	.p2align	4, 0x90
__ZN4core4iter6traits8iterator8Iterator8try_fold17h4a2cb7a8235dbef6E:
Lfunc_begin139:
	.loc	27 2254 0
	.cfi_startproc
	.cfi_personality 155, _rust_eh_personality
	.cfi_lsda 16, Lexception29
	pushq	%rbp
	.cfi_def_cfa_offset 16
	.cfi_offset %rbp, -16
	movq	%rsp, %rbp
	.cfi_def_cfa_register %rbp
	subq	$224, %rsp
	movq	%rdi, -152(%rbp)
	movq	%rsi, -144(%rbp)
	movq	%rdx, -136(%rbp)
	movq	%rdi, -72(%rbp)
Ltmp775:
	.loc	27 2260 25 prologue_end
	movb	$1, -73(%rbp)
LBB139_1:
Ltmp764:
	.loc	27 0 25 is_stmt 0
	movq	-152(%rbp), %rdi
Ltmp776:
	.loc	27 2261 29 is_stmt 1
	callq	__ZN91_$LT$core..slice..iter..Iter$LT$T$GT$$u20$as$u20$core..iter..traits..iterator..Iterator$GT$4next17h5c4f0cce2fb327fbE
Ltmp765:
	movq	%rax, -160(%rbp)
	jmp	LBB139_4
Ltmp777:
LBB139_2:
	.loc	27 2265 5
	testb	$1, -73(%rbp)
	jne	LBB139_16
	jmp	LBB139_15
LBB139_3:
Ltmp774:
	.loc	27 0 5 is_stmt 0
	movq	%rax, %rcx
	movl	%edx, %eax
	movq	%rcx, -40(%rbp)
	movl	%eax, -32(%rbp)
	jmp	LBB139_2
LBB139_4:
	movq	-160(%rbp), %rax
Ltmp778:
	.loc	27 2261 29 is_stmt 1
	movq	%rax, -112(%rbp)
	.loc	27 2261 19 is_stmt 0
	movq	-112(%rbp), %rdx
	movl	$1, %eax
	xorl	%ecx, %ecx
	cmpq	$0, %rdx
	cmoveq	%rcx, %rax
	cmpq	$1, %rax
	jne	LBB139_6
	.loc	27 2261 24
	movq	-112(%rbp), %rax
	movq	%rax, -24(%rbp)
	.loc	27 2262 23 is_stmt 1
	movb	$0, -73(%rbp)
	.loc	27 2262 21 is_stmt 0
	movq	%rax, -88(%rbp)
	movq	-88(%rbp), %rsi
Ltmp768:
	leaq	-144(%rbp), %rdi
	callq	__ZN110_$LT$core..iter..adapters..enumerate..Enumerate$LT$I$GT$$u20$as$u20$core..iter..traits..iterator..Iterator$GT$8try_fold9enumerate28_$u7b$$u7b$closure$u7d$$u7d$17h4562c82927a56e7dE
Ltmp769:
	movq	%rdx, -176(%rbp)
	movq	%rax, -168(%rbp)
	jmp	LBB139_10
Ltmp779:
LBB139_6:
	.loc	27 2261 9 is_stmt 1
	jmp	LBB139_7
LBB139_7:
	.loc	27 2264 15
	movb	$0, -73(%rbp)
Ltmp766:
	callq	__ZN95_$LT$core..ops..control_flow..ControlFlow$LT$B$C$C$GT$$u20$as$u20$core..ops..try_trait..Try$GT$11from_output17h0ff415ae0b9f0122E
Ltmp767:
	movq	%rdx, -192(%rbp)
	movq	%rax, -184(%rbp)
	jmp	LBB139_8
LBB139_8:
	.loc	27 0 15 is_stmt 0
	movq	-192(%rbp), %rax
	movq	-184(%rbp), %rcx
	.loc	27 2264 15
	movq	%rcx, -128(%rbp)
	movq	%rax, -120(%rbp)
Ltmp780:
LBB139_9:
	.loc	27 2265 6 is_stmt 1
	movq	-128(%rbp), %rax
	movq	-120(%rbp), %rdx
	addq	$224, %rsp
	popq	%rbp
	retq
LBB139_10:
Ltmp770:
	.loc	27 0 6 is_stmt 0
	movq	-176(%rbp), %rsi
	movq	-168(%rbp), %rdi
Ltmp781:
	.loc	27 2262 21 is_stmt 1
	callq	__ZN95_$LT$core..ops..control_flow..ControlFlow$LT$B$C$C$GT$$u20$as$u20$core..ops..try_trait..Try$GT$6branch17h3a7e21ac59dd18ddE
Ltmp771:
	movq	%rdx, -208(%rbp)
	movq	%rax, -200(%rbp)
	jmp	LBB139_11
LBB139_11:
	.loc	27 0 21 is_stmt 0
	movq	-208(%rbp), %rax
	movq	-200(%rbp), %rcx
	.loc	27 2262 21
	movq	%rcx, -104(%rbp)
	movq	%rax, -96(%rbp)
	movq	-96(%rbp), %rdx
	movl	$1, %eax
	xorl	%ecx, %ecx
	cmpq	$0, %rdx
	cmoveq	%rcx, %rax
	cmpq	$0, %rax
	jne	LBB139_13
	.loc	27 2262 13
	movb	$1, -73(%rbp)
Ltmp782:
	.loc	27 2261 9 is_stmt 1
	jmp	LBB139_1
LBB139_13:
Ltmp783:
	.loc	27 2262 32
	movq	-104(%rbp), %rdi
	movq	-96(%rbp), %rsi
	movq	%rdi, -16(%rbp)
	movq	%rsi, -8(%rbp)
Ltmp772:
Ltmp784:
	.loc	27 2262 21 is_stmt 0
	callq	__ZN104_$LT$core..ops..control_flow..ControlFlow$LT$B$C$C$GT$$u20$as$u20$core..ops..try_trait..FromResidual$GT$13from_residual17hcb09ede5bdb0c9cfE
Ltmp773:
	movq	%rdx, -224(%rbp)
	movq	%rax, -216(%rbp)
	jmp	LBB139_14
LBB139_14:
	.loc	27 0 21
	movq	-224(%rbp), %rax
	movq	-216(%rbp), %rcx
	.loc	27 2262 21
	movq	%rcx, -128(%rbp)
	movq	%rax, -120(%rbp)
Ltmp785:
	.loc	27 2265 5 is_stmt 1
	jmp	LBB139_9
LBB139_15:
	.loc	27 2254 5
	movq	-40(%rbp), %rdi
	callq	__Unwind_Resume
LBB139_16:
	.loc	27 2265 5
	jmp	LBB139_15
Ltmp786:
Lfunc_end139:
	.cfi_endproc
	.section	__TEXT,__gcc_except_tab
	.p2align	2
GCC_except_table139:
Lexception29:
	.byte	255
	.byte	255
	.byte	1
	.uleb128 Lcst_end29-Lcst_begin29
Lcst_begin29:
	.uleb128 Ltmp764-Lfunc_begin139
	.uleb128 Ltmp773-Ltmp764
	.uleb128 Ltmp774-Lfunc_begin139
	.byte	0
	.uleb128 Ltmp773-Lfunc_begin139
	.uleb128 Lfunc_end139-Ltmp773
	.byte	0
	.byte	0
Lcst_end29:
	.p2align	2

	.section	__TEXT,__text,regular,pure_instructions
	.globl	__ZN4core4iter6traits8iterator8Iterator9enumerate17h35b9b34776ac0873E
	.p2align	4, 0x90
__ZN4core4iter6traits8iterator8Iterator9enumerate17h35b9b34776ac0873E:
Lfunc_begin140:
	.loc	27 993 0
	.cfi_startproc
	pushq	%rbp
	.cfi_def_cfa_offset 16
	.cfi_offset %rbp, -16
	movq	%rsp, %rbp
	.cfi_def_cfa_register %rbp
	subq	$32, %rsp
	movq	%rdi, %rax
	movq	%rax, -24(%rbp)
	movq	%rsi, -16(%rbp)
	movq	%rdx, -8(%rbp)
Ltmp787:
	.loc	27 997 9 prologue_end
	callq	__ZN4core4iter8adapters9enumerate18Enumerate$LT$I$GT$3new17h6183ee48a47ae4e9E
	movq	-24(%rbp), %rax
	.loc	27 998 6
	addq	$32, %rsp
	popq	%rbp
	retq
Ltmp788:
Lfunc_end140:
	.cfi_endproc

	.globl	__ZN4core4iter8adapters4take13Take$LT$I$GT$3new17h2f11ba44f93de40dE
	.p2align	4, 0x90
__ZN4core4iter8adapters4take13Take$LT$I$GT$3new17h2f11ba44f93de40dE:
Lfunc_begin141:
	.loc	2 21 0
	.cfi_startproc
	pushq	%rbp
	.cfi_def_cfa_offset 16
	.cfi_offset %rbp, -16
	movq	%rsp, %rbp
	.cfi_def_cfa_register %rbp
	subq	$24, %rsp
	movq	%rdi, %rax
	movq	%rsi, -24(%rbp)
	movq	%rdx, -16(%rbp)
	movq	%rcx, -8(%rbp)
Ltmp789:
	.loc	2 22 9 prologue_end
	movq	%rsi, (%rdi)
	movq	%rdx, 8(%rdi)
	movq	%rcx, 16(%rdi)
	.loc	2 23 6
	addq	$24, %rsp
	popq	%rbp
	retq
Ltmp790:
Lfunc_end141:
	.cfi_endproc

	.globl	__ZN4core4iter8adapters9enumerate18Enumerate$LT$I$GT$3new17h6183ee48a47ae4e9E
	.p2align	4, 0x90
__ZN4core4iter8adapters9enumerate18Enumerate$LT$I$GT$3new17h6183ee48a47ae4e9E:
Lfunc_begin142:
	.loc	4 22 0
	.cfi_startproc
	pushq	%rbp
	.cfi_def_cfa_offset 16
	.cfi_offset %rbp, -16
	movq	%rsp, %rbp
	.cfi_def_cfa_register %rbp
	subq	$16, %rsp
	movq	%rdi, %rax
	movq	%rsi, -16(%rbp)
	movq	%rdx, -8(%rbp)
Ltmp791:
	.loc	4 23 9 prologue_end
	movq	%rsi, (%rdi)
	movq	%rdx, 8(%rdi)
	movq	$0, 16(%rdi)
	.loc	4 24 6
	addq	$16, %rsp
	popq	%rbp
	retq
Ltmp792:
Lfunc_end142:
	.cfi_endproc

	.p2align	4, 0x90
__ZN4core4sync6atomic10AtomicBool3new17hdd0eeaf5eef6a2cfE:
Lfunc_begin143:
	.file	28 "/rustc/2c8cc343237b8f7d5a3c3703e3a87f2eb2c54a74/library/core/src/sync" "atomic.rs"
	.loc	28 304 0
	.cfi_startproc
	pushq	%rbp
	.cfi_def_cfa_offset 16
	.cfi_offset %rbp, -16
	movq	%rsp, %rbp
	.cfi_def_cfa_register %rbp
	pushq	%rax
	movb	%dil, %al
	movb	%al, %cl
	andb	$1, %cl
	movb	%cl, -2(%rbp)
Ltmp793:
	.loc	28 305 41 prologue_end
	andb	$1, %al
	movb	%al, -1(%rbp)
Ltmp794:
	.loc	9 1953 9
	movb	%al, -3(%rbp)
Ltmp795:
	.loc	28 305 9
	movb	-3(%rbp), %al
	movb	%al, -8(%rbp)
	.loc	28 306 6
	movb	-8(%rbp), %al
	addq	$8, %rsp
	popq	%rbp
	retq
Ltmp796:
Lfunc_end143:
	.cfi_endproc

	.p2align	4, 0x90
__ZN4core4sync6atomic11AtomicUsize16compare_exchange17h2dcaebc48e3ec7d0E:
Lfunc_begin144:
	.loc	28 2292 0
	.cfi_startproc
	pushq	%rbp
	.cfi_def_cfa_offset 16
	.cfi_offset %rbp, -16
	movq	%rsp, %rbp
	.cfi_def_cfa_register %rbp
	subq	$48, %rsp
	movb	%r8b, %al
	movq	%rdi, -40(%rbp)
	movq	%rsi, -32(%rbp)
	movq	%rdx, -24(%rbp)
	movb	%cl, -10(%rbp)
	movb	%al, -9(%rbp)
Ltmp797:
	.loc	28 2298 50 prologue_end
	movq	%rdi, -8(%rbp)
	.loc	28 2298 26 is_stmt 0
	movzbl	%cl, %ecx
	movzbl	%al, %r8d
	callq	__ZN4core4sync6atomic23atomic_compare_exchange17h043d98195dc1edf9E
	.loc	28 2299 14 is_stmt 1
	addq	$48, %rsp
	popq	%rbp
	retq
Ltmp798:
Lfunc_end144:
	.cfi_endproc

	.p2align	4, 0x90
__ZN4core4sync6atomic11AtomicUsize3new17h15246a3c981e1e30E:
Lfunc_begin145:
	.loc	28 1956 0
	.cfi_startproc
	pushq	%rbp
	.cfi_def_cfa_offset 16
	.cfi_offset %rbp, -16
	movq	%rsp, %rbp
	.cfi_def_cfa_register %rbp
	subq	$32, %rsp
	movq	%rdi, -16(%rbp)
Ltmp799:
	.loc	28 1957 42 prologue_end
	movq	%rdi, -8(%rbp)
Ltmp800:
	.loc	9 1953 9
	movq	%rdi, -24(%rbp)
Ltmp801:
	.loc	28 1957 17
	movq	-24(%rbp), %rax
	movq	%rax, -32(%rbp)
	.loc	28 1958 14
	movq	-32(%rbp), %rax
	addq	$32, %rsp
	popq	%rbp
	retq
Ltmp802:
Lfunc_end145:
	.cfi_endproc

	.p2align	4, 0x90
__ZN4core4sync6atomic11AtomicUsize4load17hbdaedf52fb77ae68E:
Lfunc_begin146:
	.loc	28 2125 0
	.cfi_startproc
	pushq	%rbp
	.cfi_def_cfa_offset 16
	.cfi_offset %rbp, -16
	movq	%rsp, %rbp
	.cfi_def_cfa_register %rbp
	subq	$32, %rsp
	movb	%sil, %al
	movq	%rdi, -24(%rbp)
	movb	%al, -9(%rbp)
Ltmp803:
	.loc	28 2127 38 prologue_end
	movq	%rdi, -8(%rbp)
	.loc	28 2127 26 is_stmt 0
	movzbl	%al, %esi
	callq	__ZN4core4sync6atomic11atomic_load17h005046185242badaE
	.loc	28 2128 14 is_stmt 1
	addq	$32, %rsp
	popq	%rbp
	retq
Ltmp804:
Lfunc_end146:
	.cfi_endproc

	.p2align	4, 0x90
__ZN4core4sync6atomic11AtomicUsize5store17hd1fe36b5f7d6f827E:
Lfunc_begin147:
	.loc	28 2152 0
	.cfi_startproc
	pushq	%rbp
	.cfi_def_cfa_offset 16
	.cfi_offset %rbp, -16
	movq	%rsp, %rbp
	.cfi_def_cfa_register %rbp
	subq	$32, %rsp
	movb	%dl, %al
	movq	%rdi, -32(%rbp)
	movq	%rsi, -24(%rbp)
	movb	%al, -9(%rbp)
Ltmp805:
	.loc	28 2154 39 prologue_end
	movq	%rdi, -8(%rbp)
	.loc	28 2154 26 is_stmt 0
	movzbl	%al, %edx
	callq	__ZN4core4sync6atomic12atomic_store17h1bce2ae019f36590E
	.loc	28 2155 14 is_stmt 1
	addq	$32, %rsp
	popq	%rbp
	retq
Ltmp806:
Lfunc_end147:
	.cfi_endproc

	.globl	__ZN4core4sync6atomic12atomic_store17h1bce2ae019f36590E
	.p2align	4, 0x90
__ZN4core4sync6atomic12atomic_store17h1bce2ae019f36590E:
Lfunc_begin148:
	.loc	28 3004 0
	.cfi_startproc
	pushq	%rbp
	.cfi_def_cfa_offset 16
	.cfi_offset %rbp, -16
	movq	%rsp, %rbp
	.cfi_def_cfa_register %rbp
	subq	$160, %rsp
	movq	%rsi, -144(%rbp)
	movq	%rdi, -136(%rbp)
	movb	%dl, %al
	movb	%al, -113(%rbp)
	movq	%rdi, -16(%rbp)
	movq	%rsi, -8(%rbp)
Ltmp807:
	.loc	28 3007 15 prologue_end
	movzbl	-113(%rbp), %eax
	movq	%rax, -128(%rbp)
	.loc	28 0 15 is_stmt 0
	movq	-128(%rbp), %rax
	leaq	LJTI148_0(%rip), %rcx
	movslq	(%rcx,%rax,4), %rax
	addq	%rcx, %rax
	jmpq	*%rax
	.loc	28 3007 15
	ud2
LBB148_2:
	.loc	28 0 15
	movq	-136(%rbp), %rax
	movq	-144(%rbp), %rcx
	.loc	28 3008 24 is_stmt 1
	movq	%rcx, (%rax)
	.loc	28 3008 65 is_stmt 0
	jmp	LBB148_7
LBB148_3:
	.loc	28 0 65
	movq	-136(%rbp), %rax
	movq	-144(%rbp), %rcx
	.loc	28 3009 24 is_stmt 1
	movq	%rcx, (%rax)
	.loc	28 3009 65 is_stmt 0
	jmp	LBB148_7
LBB148_4:
	.loc	28 3011 24 is_stmt 1
	leaq	l___unnamed_26(%rip), %rsi
	leaq	l___unnamed_20(%rip), %rcx
	xorl	%eax, %eax
	movl	%eax, %r8d
	leaq	-112(%rbp), %rdi
	movq	%rdi, -152(%rbp)
	movl	$1, %edx
	callq	__ZN4core3fmt9Arguments6new_v117h238fe69b765e2985E
	movq	-152(%rbp), %rdi
	leaq	l___unnamed_27(%rip), %rsi
	callq	__ZN4core9panicking9panic_fmt17h9b5d807e24bcaaedE
LBB148_5:
	.loc	28 3012 23
	leaq	l___unnamed_28(%rip), %rsi
	leaq	l___unnamed_20(%rip), %rcx
	xorl	%eax, %eax
	movl	%eax, %r8d
	leaq	-64(%rbp), %rdi
	movq	%rdi, -160(%rbp)
	movl	$1, %edx
	callq	__ZN4core3fmt9Arguments6new_v117h238fe69b765e2985E
	movq	-160(%rbp), %rdi
	leaq	l___unnamed_29(%rip), %rsi
	callq	__ZN4core9panicking9panic_fmt17h9b5d807e24bcaaedE
LBB148_6:
	.loc	28 0 23 is_stmt 0
	movq	-136(%rbp), %rcx
	movq	-144(%rbp), %rax
	.loc	28 3010 23 is_stmt 1
	xchgq	%rax, (%rcx)
LBB148_7:
	.loc	28 3015 2
	addq	$160, %rsp
	popq	%rbp
	retq
Ltmp808:
Lfunc_end148:
	.cfi_endproc
	.p2align	2, 0x90
	.data_region jt32
.set L148_0_set_2, LBB148_2-LJTI148_0
.set L148_0_set_3, LBB148_3-LJTI148_0
.set L148_0_set_4, LBB148_4-LJTI148_0
.set L148_0_set_5, LBB148_5-LJTI148_0
.set L148_0_set_6, LBB148_6-LJTI148_0
LJTI148_0:
	.long	L148_0_set_2
	.long	L148_0_set_3
	.long	L148_0_set_4
	.long	L148_0_set_5
	.long	L148_0_set_6
	.end_data_region

	.globl	__ZN4core4sync6atomic12atomic_store17haee792bdc8527e20E
	.p2align	4, 0x90
__ZN4core4sync6atomic12atomic_store17haee792bdc8527e20E:
Lfunc_begin149:
	.loc	28 3004 0
	.cfi_startproc
	pushq	%rbp
	.cfi_def_cfa_offset 16
	.cfi_offset %rbp, -16
	movq	%rsp, %rbp
	.cfi_def_cfa_register %rbp
	subq	$160, %rsp
	movq	%rsi, -144(%rbp)
	movq	%rdi, -136(%rbp)
	movb	%dl, %al
	movb	%al, -113(%rbp)
	movq	%rdi, -16(%rbp)
	movq	%rsi, -8(%rbp)
Ltmp809:
	.loc	28 3007 15 prologue_end
	movzbl	-113(%rbp), %eax
	movq	%rax, -128(%rbp)
	.loc	28 0 15 is_stmt 0
	movq	-128(%rbp), %rax
	leaq	LJTI149_0(%rip), %rcx
	movslq	(%rcx,%rax,4), %rax
	addq	%rcx, %rax
	jmpq	*%rax
	.loc	28 3007 15
	ud2
LBB149_2:
	.loc	28 0 15
	movq	-136(%rbp), %rax
	movq	-144(%rbp), %rcx
	.loc	28 3008 24 is_stmt 1
	movq	%rcx, (%rax)
	.loc	28 3008 65 is_stmt 0
	jmp	LBB149_7
LBB149_3:
	.loc	28 0 65
	movq	-136(%rbp), %rax
	movq	-144(%rbp), %rcx
	.loc	28 3009 24 is_stmt 1
	movq	%rcx, (%rax)
	.loc	28 3009 65 is_stmt 0
	jmp	LBB149_7
LBB149_4:
	.loc	28 3011 24 is_stmt 1
	leaq	l___unnamed_26(%rip), %rsi
	leaq	l___unnamed_20(%rip), %rcx
	xorl	%eax, %eax
	movl	%eax, %r8d
	leaq	-112(%rbp), %rdi
	movq	%rdi, -152(%rbp)
	movl	$1, %edx
	callq	__ZN4core3fmt9Arguments6new_v117h238fe69b765e2985E
	movq	-152(%rbp), %rdi
	leaq	l___unnamed_27(%rip), %rsi
	callq	__ZN4core9panicking9panic_fmt17h9b5d807e24bcaaedE
LBB149_5:
	.loc	28 3012 23
	leaq	l___unnamed_28(%rip), %rsi
	leaq	l___unnamed_20(%rip), %rcx
	xorl	%eax, %eax
	movl	%eax, %r8d
	leaq	-64(%rbp), %rdi
	movq	%rdi, -160(%rbp)
	movl	$1, %edx
	callq	__ZN4core3fmt9Arguments6new_v117h238fe69b765e2985E
	movq	-160(%rbp), %rdi
	leaq	l___unnamed_29(%rip), %rsi
	callq	__ZN4core9panicking9panic_fmt17h9b5d807e24bcaaedE
LBB149_6:
	.loc	28 0 23 is_stmt 0
	movq	-136(%rbp), %rcx
	movq	-144(%rbp), %rax
	.loc	28 3010 23 is_stmt 1
	xchgq	%rax, (%rcx)
LBB149_7:
	.loc	28 3015 2
	addq	$160, %rsp
	popq	%rbp
	retq
Ltmp810:
Lfunc_end149:
	.cfi_endproc
	.p2align	2, 0x90
	.data_region jt32
.set L149_0_set_2, LBB149_2-LJTI149_0
.set L149_0_set_3, LBB149_3-LJTI149_0
.set L149_0_set_4, LBB149_4-LJTI149_0
.set L149_0_set_5, LBB149_5-LJTI149_0
.set L149_0_set_6, LBB149_6-LJTI149_0
LJTI149_0:
	.long	L149_0_set_2
	.long	L149_0_set_3
	.long	L149_0_set_4
	.long	L149_0_set_5
	.long	L149_0_set_6
	.end_data_region

	.p2align	4, 0x90
__ZN4core4sync6atomic14spin_loop_hint17h5966ab0a9bbacd97E:
Lfunc_begin150:
	.loc	28 3490 0
	.cfi_startproc
	pushq	%rbp
	.cfi_def_cfa_offset 16
	.cfi_offset %rbp, -16
	movq	%rsp, %rbp
	.cfi_def_cfa_register %rbp
Ltmp811:
	.file	29 "/rustc/2c8cc343237b8f7d5a3c3703e3a87f2eb2c54a74/library/core/src/../../stdarch/crates/core_arch/src/x86" "sse2.rs"
	.loc	29 25 5 prologue_end
	pause
Ltmp812:
	.loc	28 3492 2
	popq	%rbp
	retq
Ltmp813:
Lfunc_end150:
	.cfi_endproc

	.globl	__ZN4core4sync6atomic18AtomicPtr$LT$T$GT$3new17h96622b809eca6afaE
	.p2align	4, 0x90
__ZN4core4sync6atomic18AtomicPtr$LT$T$GT$3new17h96622b809eca6afaE:
Lfunc_begin151:
	.loc	28 1016 0
	.cfi_startproc
	pushq	%rbp
	.cfi_def_cfa_offset 16
	.cfi_offset %rbp, -16
	movq	%rsp, %rbp
	.cfi_def_cfa_register %rbp
	subq	$32, %rsp
	movq	%rdi, -16(%rbp)
Ltmp814:
	.loc	28 1017 40 prologue_end
	movq	%rdi, -8(%rbp)
Ltmp815:
	.loc	9 1953 9
	movq	%rdi, -24(%rbp)
Ltmp816:
	.loc	28 1017 9
	movq	-24(%rbp), %rax
	movq	%rax, -32(%rbp)
	.loc	28 1018 6
	movq	-32(%rbp), %rax
	addq	$32, %rsp
	popq	%rbp
	retq
Ltmp817:
Lfunc_end151:
	.cfi_endproc

	.globl	__ZN4core4sync6atomic18AtomicPtr$LT$T$GT$5store17h71e3a82e266c8c2dE
	.p2align	4, 0x90
__ZN4core4sync6atomic18AtomicPtr$LT$T$GT$5store17h71e3a82e266c8c2dE:
Lfunc_begin152:
	.loc	28 1218 0
	.cfi_startproc
	pushq	%rbp
	.cfi_def_cfa_offset 16
	.cfi_offset %rbp, -16
	movq	%rsp, %rbp
	.cfi_def_cfa_register %rbp
	subq	$32, %rsp
	movb	%dl, %al
	movq	%rdi, -32(%rbp)
	movq	%rsi, -24(%rbp)
	movb	%al, -9(%rbp)
Ltmp818:
	.loc	28 1221 26 prologue_end
	movq	%rdi, -8(%rbp)
	.loc	28 1221 13 is_stmt 0
	movzbl	%al, %edx
	callq	__ZN4core4sync6atomic12atomic_store17haee792bdc8527e20E
	.loc	28 1223 6 is_stmt 1
	addq	$32, %rsp
	popq	%rbp
	retq
Ltmp819:
Lfunc_end152:
	.cfi_endproc

	.p2align	4, 0x90
__ZN4core4sync6atomic5fence17h3462e3f45269f590E:
Lfunc_begin153:
	.loc	28 3362 0
	.cfi_startproc
	pushq	%rbp
	.cfi_def_cfa_offset 16
	.cfi_offset %rbp, -16
	movq	%rsp, %rbp
	.cfi_def_cfa_register %rbp
	subq	$80, %rsp
	movb	%dil, %al
	movb	%al, -49(%rbp)
Ltmp820:
	.loc	28 3365 15 prologue_end
	movzbl	-49(%rbp), %eax
	movq	%rax, -64(%rbp)
	.loc	28 0 15 is_stmt 0
	movq	-64(%rbp), %rax
	leaq	LJTI153_0(%rip), %rcx
	movslq	(%rcx,%rax,4), %rax
	addq	%rcx, %rax
	jmpq	*%rax
	.loc	28 3365 15
	ud2
LBB153_2:
	.loc	28 3370 24 is_stmt 1
	leaq	l___unnamed_30(%rip), %rsi
	leaq	l___unnamed_20(%rip), %rcx
	xorl	%eax, %eax
	movl	%eax, %r8d
	leaq	-48(%rbp), %rdi
	movq	%rdi, -72(%rbp)
	movl	$1, %edx
	callq	__ZN4core3fmt9Arguments6new_v117h238fe69b765e2985E
	movq	-72(%rbp), %rdi
	leaq	l___unnamed_31(%rip), %rsi
	callq	__ZN4core9panicking9panic_fmt17h9b5d807e24bcaaedE
LBB153_3:
	##MEMBARRIER
	.loc	28 3367 24
	jmp	LBB153_7
LBB153_4:
	##MEMBARRIER
	.loc	28 3366 24
	jmp	LBB153_7
LBB153_5:
	##MEMBARRIER
	.loc	28 3368 23
	jmp	LBB153_7
LBB153_6:
	.loc	28 3369 23
	mfence
LBB153_7:
	.loc	28 3373 2
	addq	$80, %rsp
	popq	%rbp
	retq
Ltmp821:
Lfunc_end153:
	.cfi_endproc
	.p2align	2, 0x90
	.data_region jt32
.set L153_0_set_2, LBB153_2-LJTI153_0
.set L153_0_set_3, LBB153_3-LJTI153_0
.set L153_0_set_4, LBB153_4-LJTI153_0
.set L153_0_set_5, LBB153_5-LJTI153_0
.set L153_0_set_6, LBB153_6-LJTI153_0
LJTI153_0:
	.long	L153_0_set_2
	.long	L153_0_set_3
	.long	L153_0_set_4
	.long	L153_0_set_5
	.long	L153_0_set_6
	.end_data_region

	.p2align	4, 0x90
__ZN4core4time8Duration3new17h4bd5d38f3869caecE:
Lfunc_begin154:
	.file	30 "/rustc/2c8cc343237b8f7d5a3c3703e3a87f2eb2c54a74/library/core/src" "time.rs"
	.loc	30 199 0
	.cfi_startproc
	pushq	%rbp
	.cfi_def_cfa_offset 16
	.cfi_offset %rbp, -16
	movq	%rsp, %rbp
	.cfi_def_cfa_register %rbp
	subq	$144, %rsp
	movl	%esi, -132(%rbp)
	movq	%rdi, -40(%rbp)
	movl	%esi, -28(%rbp)
Ltmp822:
	.loc	30 200 43 prologue_end
	shrl	$9, %esi
	movl	%esi, %eax
	imulq	$281475, %rax, %rsi
	shrq	$39, %rsi
	.loc	30 200 26 is_stmt 0
	callq	__ZN4core3num21_$LT$impl$u20$u64$GT$11checked_add17hddb38e210bcb1311E
	movq	%rdx, -104(%rbp)
	movq	%rax, -112(%rbp)
	.loc	30 200 20
	cmpq	$0, -112(%rbp)
	jne	LBB154_2
	.loc	30 202 21 is_stmt 1
	leaq	l___unnamed_32(%rip), %rsi
	leaq	l___unnamed_20(%rip), %rcx
	xorl	%eax, %eax
	movl	%eax, %r8d
	leaq	-96(%rbp), %rdi
	movq	%rdi, -144(%rbp)
	movl	$1, %edx
	callq	__ZN4core3fmt9Arguments6new_v117h238fe69b765e2985E
	movq	-144(%rbp), %rdi
	leaq	l___unnamed_33(%rip), %rsi
	callq	__ZN4core9panicking9panic_fmt17h9b5d807e24bcaaedE
LBB154_2:
	.loc	30 0 21 is_stmt 0
	movl	-132(%rbp), %ecx
	.loc	30 201 18 is_stmt 1
	movq	-104(%rbp), %rax
	movq	%rax, -24(%rbp)
Ltmp823:
	.loc	30 201 27 is_stmt 0
	movq	%rax, -16(%rbp)
Ltmp824:
	.loc	30 204 21 is_stmt 1
	movl	%ecx, %edx
	shrl	$9, %edx
	imulq	$281475, %rdx, %rdx
	shrq	$39, %rdx
	imull	$1000000000, %edx, %edx
	subl	%edx, %ecx
	movl	%ecx, -4(%rbp)
Ltmp825:
	.loc	30 206 42
	movl	%ecx, -44(%rbp)
	.loc	30 206 9 is_stmt 0
	movq	%rax, -128(%rbp)
	movl	-44(%rbp), %eax
	movl	%eax, -120(%rbp)
Ltmp826:
	.loc	30 207 6 is_stmt 1
	movq	-128(%rbp), %rax
	movl	-120(%rbp), %edx
	addq	$144, %rsp
	popq	%rbp
	retq
Ltmp827:
Lfunc_end154:
	.cfi_endproc

	.p2align	4, 0x90
__ZN4core4time8Duration9from_secs17h5c73eee5d3c964b4E:
Lfunc_begin155:
	.loc	30 225 0
	.cfi_startproc
	pushq	%rbp
	.cfi_def_cfa_offset 16
	.cfi_offset %rbp, -16
	movq	%rsp, %rbp
	.cfi_def_cfa_register %rbp
	subq	$16, %rsp
	movq	%rdi, -8(%rbp)
	xorl	%esi, %esi
Ltmp828:
	.loc	30 226 9 prologue_end
	callq	__ZN4core4time8Duration3new17h4bd5d38f3869caecE
	.loc	30 227 6
	addq	$16, %rsp
	popq	%rbp
	retq
Ltmp829:
Lfunc_end155:
	.cfi_endproc

	.globl	__ZN4core5alloc6layout6Layout13for_value_raw17h3a20f894b78c73c7E
	.p2align	4, 0x90
__ZN4core5alloc6layout6Layout13for_value_raw17h3a20f894b78c73c7E:
Lfunc_begin156:
	.file	31 "/rustc/2c8cc343237b8f7d5a3c3703e3a87f2eb2c54a74/library/core/src/alloc" "layout.rs"
	.loc	31 197 0
	.cfi_startproc
	pushq	%rbp
	.cfi_def_cfa_offset 16
	.cfi_offset %rbp, -16
	movq	%rsp, %rbp
	.cfi_def_cfa_register %rbp
	subq	$120, %rsp
	movq	%rdi, -88(%rbp)
Ltmp830:
	.loc	31 199 60 prologue_end
	movq	%rdi, -80(%rbp)
Ltmp831:
	.loc	14 387 14
	movq	$48, -72(%rbp)
	movq	-72(%rbp), %rcx
Ltmp832:
	.loc	31 199 86
	movq	%rdi, -64(%rbp)
Ltmp833:
	.loc	14 529 14
	movq	$8, -56(%rbp)
	movq	-56(%rbp), %rax
Ltmp834:
	.loc	31 199 38
	movq	%rcx, -104(%rbp)
	movq	%rax, -96(%rbp)
	.loc	31 199 14 is_stmt 0
	movq	-104(%rbp), %rcx
	movq	%rcx, -48(%rbp)
	.loc	31 199 20
	movq	-96(%rbp), %rax
	movq	%rax, -40(%rbp)
Ltmp835:
	.loc	31 201 52 is_stmt 1
	movq	%rcx, -32(%rbp)
	.loc	31 201 58 is_stmt 0
	movq	%rax, -24(%rbp)
Ltmp836:
	.loc	31 120 65 is_stmt 1
	movq	%rax, -16(%rbp)
Ltmp837:
	.file	32 "/rustc/2c8cc343237b8f7d5a3c3703e3a87f2eb2c54a74/library/core/src/ptr" "alignment.rs"
	.loc	32 89 18
	movq	%rax, -8(%rbp)
	movq	-8(%rbp), %rax
Ltmp838:
	.loc	31 120 18
	movq	%rcx, -120(%rbp)
	movq	%rax, -112(%rbp)
Ltmp839:
	.loc	31 202 6
	movq	-120(%rbp), %rax
	movq	-112(%rbp), %rdx
	addq	$120, %rsp
	popq	%rbp
	retq
Ltmp840:
Lfunc_end156:
	.cfi_endproc

	.p2align	4, 0x90
__ZN4core5alloc6layout6Layout5array5inner17h25193121697e5fd9E:
Lfunc_begin157:
	.loc	31 441 0
	.cfi_startproc
	pushq	%rbp
	.cfi_def_cfa_offset 16
	.cfi_offset %rbp, -16
	movq	%rsp, %rbp
	.cfi_def_cfa_register %rbp
	subq	$176, %rsp
	movq	%rdi, -168(%rbp)
	movq	%rsi, -160(%rbp)
	movq	%rdx, -152(%rbp)
	movq	%rdi, -88(%rbp)
	movq	%rsi, -80(%rbp)
	movq	%rdx, -72(%rbp)
Ltmp841:
	.loc	31 452 16 prologue_end
	cmpq	$0, %rdi
	jne	LBB157_2
	movb	$0, -121(%rbp)
	jmp	LBB157_5
LBB157_2:
	.loc	31 0 16 is_stmt 0
	movq	-168(%rbp), %rax
	movq	-160(%rbp), %rcx
	.loc	31 452 68
	movq	%rcx, -64(%rbp)
Ltmp842:
	.loc	31 93 32 is_stmt 1
	movq	%rcx, -56(%rbp)
Ltmp843:
	.loc	32 97 9
	movq	%rcx, -104(%rbp)
	movq	-104(%rbp), %rdx
Ltmp844:
	.loc	31 93 31
	subq	$1, %rdx
	.loc	31 93 9 is_stmt 0
	movabsq	$9223372036854775807, %rcx
	subq	%rdx, %rcx
	movq	%rcx, -176(%rbp)
Ltmp845:
	.loc	31 452 41 is_stmt 1
	cmpq	$0, %rax
	sete	%al
	testb	$1, %al
	jne	LBB157_4
	.loc	31 0 41 is_stmt 0
	movq	-168(%rbp), %rcx
	movq	-176(%rbp), %rax
	.loc	31 452 41
	xorl	%edx, %edx
	divq	%rcx
	movq	%rax, %rcx
	movq	-152(%rbp), %rax
	.loc	31 452 37
	cmpq	%rcx, %rax
	seta	%al
	.loc	31 452 16
	andb	$1, %al
	movb	%al, -121(%rbp)
	jmp	LBB157_5
LBB157_4:
	.loc	31 452 41
	leaq	_str.2(%rip), %rdi
	leaq	l___unnamed_34(%rip), %rdx
	movl	$25, %esi
	callq	__ZN4core9panicking5panic17hc1bc45270cf64b03E
LBB157_5:
	.loc	31 452 16
	testb	$1, -121(%rbp)
	jne	LBB157_7
	.loc	31 0 16
	movq	-160(%rbp), %rax
	movq	-152(%rbp), %rdx
	movq	-168(%rbp), %rcx
	.loc	31 456 30 is_stmt 1
	imulq	%rdx, %rcx
	movq	%rcx, -48(%rbp)
Ltmp846:
	.loc	31 461 59
	movq	%rcx, -40(%rbp)
	.loc	31 461 71 is_stmt 0
	movq	%rax, -32(%rbp)
Ltmp847:
	.loc	32 97 9 is_stmt 1
	movq	%rax, -96(%rbp)
	movq	-96(%rbp), %rax
	movq	%rax, -24(%rbp)
Ltmp848:
	.loc	31 120 65
	movq	%rax, -16(%rbp)
Ltmp849:
	.loc	32 89 18
	movq	%rax, -8(%rbp)
	movq	-8(%rbp), %rax
Ltmp850:
	.loc	31 120 18
	movq	%rcx, -120(%rbp)
	movq	%rax, -112(%rbp)
Ltmp851:
	.loc	31 461 22
	movq	-120(%rbp), %rcx
	movq	-112(%rbp), %rax
	movq	%rcx, -144(%rbp)
	movq	%rax, -136(%rbp)
Ltmp852:
	.loc	31 462 10
	jmp	LBB157_8
LBB157_7:
	.loc	31 453 24
	movq	$0, -136(%rbp)
LBB157_8:
	.loc	31 462 10
	movq	-144(%rbp), %rax
	movq	-136(%rbp), %rdx
	addq	$176, %rsp
	popq	%rbp
	retq
Ltmp853:
Lfunc_end157:
	.cfi_endproc

	.globl	__ZN4core5slice29_$LT$impl$u20$$u5b$T$u5d$$GT$4iter17he60e03e104c0736bE
	.p2align	4, 0x90
__ZN4core5slice29_$LT$impl$u20$$u5b$T$u5d$$GT$4iter17he60e03e104c0736bE:
Lfunc_begin158:
	.file	33 "/rustc/2c8cc343237b8f7d5a3c3703e3a87f2eb2c54a74/library/core/src/slice" "mod.rs"
	.loc	33 741 0
	.cfi_startproc
	pushq	%rbp
	.cfi_def_cfa_offset 16
	.cfi_offset %rbp, -16
	movq	%rsp, %rbp
	.cfi_def_cfa_register %rbp
	subq	$16, %rsp
	movq	%rdi, -16(%rbp)
	movq	%rsi, -8(%rbp)
Ltmp854:
	.loc	33 742 9 prologue_end
	callq	__ZN4core5slice4iter13Iter$LT$T$GT$3new17h6c397a58af5578f7E
	.loc	33 743 6
	addq	$16, %rsp
	popq	%rbp
	retq
Ltmp855:
Lfunc_end158:
	.cfi_endproc

	.globl	__ZN4core5slice29_$LT$impl$u20$$u5b$T$u5d$$GT$4swap17h674132851448b6deE
	.p2align	4, 0x90
__ZN4core5slice29_$LT$impl$u20$$u5b$T$u5d$$GT$4swap17h674132851448b6deE:
Lfunc_begin159:
	.loc	33 615 0
	.cfi_startproc
	pushq	%rbp
	.cfi_def_cfa_offset 16
	.cfi_offset %rbp, -16
	movq	%rsp, %rbp
	.cfi_def_cfa_register %rbp
	subq	$96, %rsp
	movq	%rdi, -88(%rbp)
	movq	%rsi, -80(%rbp)
	movq	%rdx, -72(%rbp)
	movq	%rcx, -64(%rbp)
	movq	%r8, -56(%rbp)
	movq	%rdi, -48(%rbp)
	movq	%rsi, -40(%rbp)
	movq	%rdx, -32(%rbp)
	movq	%rcx, -24(%rbp)
Ltmp856:
	.loc	33 618 36 prologue_end
	cmpq	%rsi, %rdx
	setb	%al
	testb	$1, %al
	jne	LBB159_1
	jmp	LBB159_2
LBB159_1:
	.loc	33 0 36 is_stmt 0
	movq	-64(%rbp), %rax
	movq	-80(%rbp), %rcx
	movq	-88(%rbp), %rdx
	movq	-72(%rbp), %rsi
	.loc	33 618 18
	shlq	$5, %rsi
	addq	%rsi, %rdx
	movq	%rdx, -96(%rbp)
	movq	%rdx, -16(%rbp)
Ltmp857:
	.loc	33 619 36 is_stmt 1
	cmpq	%rcx, %rax
	setb	%al
	testb	$1, %al
	jne	LBB159_3
	jmp	LBB159_4
Ltmp858:
LBB159_2:
	.loc	33 0 36 is_stmt 0
	movq	-56(%rbp), %rdx
	movq	-80(%rbp), %rsi
	movq	-72(%rbp), %rdi
	.loc	33 618 36 is_stmt 1
	callq	__ZN4core9panicking18panic_bounds_check17hacb8a94866cda541E
LBB159_3:
	.loc	33 0 36 is_stmt 0
	movq	-96(%rbp), %rdi
	movq	-88(%rbp), %rsi
	movq	-64(%rbp), %rax
Ltmp859:
	.loc	33 619 18 is_stmt 1
	shlq	$5, %rax
	addq	%rax, %rsi
	movq	%rsi, -8(%rbp)
Ltmp860:
	.loc	33 625 13
	callq	__ZN4core3ptr4swap17heb6bfc08360f88b6E
Ltmp861:
	.loc	33 627 6
	addq	$96, %rsp
	popq	%rbp
	retq
LBB159_4:
	.loc	33 0 6 is_stmt 0
	movq	-56(%rbp), %rdx
	movq	-80(%rbp), %rsi
	movq	-64(%rbp), %rdi
Ltmp862:
	.loc	33 619 36 is_stmt 1
	callq	__ZN4core9panicking18panic_bounds_check17hacb8a94866cda541E
Ltmp863:
Lfunc_end159:
	.cfi_endproc

	.globl	__ZN4core5slice29_$LT$impl$u20$$u5b$T$u5d$$GT$8is_empty17ha9f2065e79190e00E
	.p2align	4, 0x90
__ZN4core5slice29_$LT$impl$u20$$u5b$T$u5d$$GT$8is_empty17ha9f2065e79190e00E:
Lfunc_begin160:
	.loc	33 152 0
	.cfi_startproc
	pushq	%rbp
	.cfi_def_cfa_offset 16
	.cfi_offset %rbp, -16
	movq	%rsp, %rbp
	.cfi_def_cfa_register %rbp
	subq	$16, %rsp
	movq	%rdi, -16(%rbp)
	movq	%rsi, -8(%rbp)
Ltmp864:
	.loc	33 153 9 prologue_end
	cmpq	$0, %rsi
	sete	%al
	.loc	33 154 6
	andb	$1, %al
	movzbl	%al, %eax
	addq	$16, %rsp
	popq	%rbp
	retq
Ltmp865:
Lfunc_end160:
	.cfi_endproc

	.globl	__ZN4core5slice29_$LT$impl$u20$$u5b$T$u5d$$GT$8iter_mut17ha00eca27cf38f22fE
	.p2align	4, 0x90
__ZN4core5slice29_$LT$impl$u20$$u5b$T$u5d$$GT$8iter_mut17ha00eca27cf38f22fE:
Lfunc_begin161:
	.loc	33 760 0
	.cfi_startproc
	pushq	%rbp
	.cfi_def_cfa_offset 16
	.cfi_offset %rbp, -16
	movq	%rsp, %rbp
	.cfi_def_cfa_register %rbp
	subq	$16, %rsp
	movq	%rdi, -16(%rbp)
	movq	%rsi, -8(%rbp)
Ltmp866:
	.loc	33 761 9 prologue_end
	callq	__ZN4core5slice4iter16IterMut$LT$T$GT$3new17h78da6a0ad02595a1E
	.loc	33 762 6
	addq	$16, %rsp
	popq	%rbp
	retq
Ltmp867:
Lfunc_end161:
	.cfi_endproc

	.globl	__ZN4core5slice4iter13Iter$LT$T$GT$3new17h6c397a58af5578f7E
	.p2align	4, 0x90
__ZN4core5slice4iter13Iter$LT$T$GT$3new17h6c397a58af5578f7E:
Lfunc_begin162:
	.file	34 "/rustc/2c8cc343237b8f7d5a3c3703e3a87f2eb2c54a74/library/core/src/slice" "iter.rs"
	.loc	34 82 0
	.cfi_startproc
	pushq	%rbp
	.cfi_def_cfa_offset 16
	.cfi_offset %rbp, -16
	movq	%rsp, %rbp
	.cfi_def_cfa_register %rbp
	subq	$280, %rsp
	movq	%rdi, -280(%rbp)
	movq	%rsi, -272(%rbp)
	movq	%rdi, -208(%rbp)
	movq	%rsi, -200(%rbp)
Ltmp868:
	.loc	34 83 19 prologue_end
	movq	%rdi, -184(%rbp)
	movq	%rsi, -176(%rbp)
Ltmp869:
	.loc	33 477 9
	movq	%rdi, -168(%rbp)
Ltmp870:
	.loc	34 86 21
	movq	%rdi, -160(%rbp)
Ltmp871:
	.file	35 "/rustc/2c8cc343237b8f7d5a3c3703e3a87f2eb2c54a74/library/core/src/ptr" "const_ptr.rs"
	.loc	35 53 36
	movq	%rdi, -232(%rbp)
	.loc	35 53 18 is_stmt 0
	movq	-232(%rbp), %rax
	movq	%rax, -152(%rbp)
Ltmp872:
	.loc	35 39 13 is_stmt 1
	movq	%rax, -144(%rbp)
Ltmp873:
	.loc	35 209 33
	movq	%rax, -136(%rbp)
	.loc	35 209 18 is_stmt 0
	movq	%rax, -128(%rbp)
Ltmp874:
	.loc	34 89 20 is_stmt 1
	xorl	%eax, %eax
	testb	$1, %al
	jne	LBB162_2
	.loc	34 0 20 is_stmt 0
	movq	-280(%rbp), %rax
	movq	-272(%rbp), %rcx
	.loc	34 89 76
	movq	%rax, -40(%rbp)
	.loc	34 89 84
	movq	%rcx, -32(%rbp)
Ltmp875:
	.loc	35 932 18 is_stmt 1
	movq	%rax, -24(%rbp)
	.loc	35 932 30 is_stmt 0
	movq	%rcx, -16(%rbp)
Ltmp876:
	.loc	35 473 18 is_stmt 1
	shlq	$5, %rcx
	addq	%rcx, %rax
	movq	%rax, -248(%rbp)
Ltmp877:
	.loc	34 89 17
	jmp	LBB162_3
LBB162_2:
	.loc	34 0 17 is_stmt 0
	movq	-272(%rbp), %rcx
	movq	-280(%rbp), %rax
	.loc	34 89 32
	movq	%rax, -120(%rbp)
	.loc	34 89 54
	movq	%rcx, -112(%rbp)
Ltmp878:
	.loc	35 1118 9 is_stmt 1
	movq	%rax, -104(%rbp)
Ltmp879:
	.loc	35 61 9
	movq	%rax, -96(%rbp)
Ltmp880:
	.loc	35 1118 40
	movq	%rcx, -88(%rbp)
Ltmp881:
	.loc	35 1100 9
	movq	%rax, -80(%rbp)
	.loc	35 1100 30 is_stmt 0
	movq	%rcx, -72(%rbp)
Ltmp882:
	.loc	35 555 18 is_stmt 1
	addq	%rcx, %rax
	movq	%rax, -64(%rbp)
	movq	-64(%rbp), %rax
	movq	%rax, -56(%rbp)
Ltmp883:
	.loc	35 100 29
	movq	%rax, -48(%rbp)
Ltmp884:
	.file	36 "/rustc/2c8cc343237b8f7d5a3c3703e3a87f2eb2c54a74/library/core/src/ptr" "metadata.rs"
	.loc	36 118 36
	movq	%rax, -216(%rbp)
	.loc	36 118 14 is_stmt 0
	movq	-216(%rbp), %rax
	movq	%rax, -224(%rbp)
	movq	-224(%rbp), %rax
	movq	%rax, -248(%rbp)
Ltmp885:
LBB162_3:
	.loc	36 0 14
	movq	-280(%rbp), %rax
Ltmp886:
	.loc	34 91 48 is_stmt 1
	movq	%rax, -8(%rbp)
Ltmp887:
	.file	37 "/rustc/2c8cc343237b8f7d5a3c3703e3a87f2eb2c54a74/library/core/src/ptr" "non_null.rs"
	.loc	37 201 13
	movq	%rax, -240(%rbp)
Ltmp888:
	.loc	34 91 64
	movq	-248(%rbp), %rax
	.loc	34 91 13 is_stmt 0
	movq	-240(%rbp), %rcx
	movq	%rcx, -256(%rbp)
	movq	%rax, -264(%rbp)
Ltmp889:
	.loc	34 93 6 is_stmt 1
	movq	-264(%rbp), %rax
	movq	-256(%rbp), %rdx
	addq	$280, %rsp
	popq	%rbp
	retq
Ltmp890:
Lfunc_end162:
	.cfi_endproc

	.globl	__ZN4core5slice4iter16IterMut$LT$T$GT$3new17h78da6a0ad02595a1E
	.p2align	4, 0x90
__ZN4core5slice4iter16IterMut$LT$T$GT$3new17h78da6a0ad02595a1E:
Lfunc_begin163:
	.loc	34 203 0
	.cfi_startproc
	pushq	%rbp
	.cfi_def_cfa_offset 16
	.cfi_offset %rbp, -16
	movq	%rsp, %rbp
	.cfi_def_cfa_register %rbp
	subq	$288, %rsp
	movq	%rdi, -288(%rbp)
	movq	%rsi, -280(%rbp)
	movq	%rdi, -216(%rbp)
	movq	%rsi, -208(%rbp)
Ltmp891:
	.loc	34 204 19 prologue_end
	movq	%rdi, -192(%rbp)
	movq	%rsi, -184(%rbp)
Ltmp892:
	.loc	33 507 9
	movq	%rdi, -176(%rbp)
Ltmp893:
	.loc	34 222 21
	movq	%rdi, -168(%rbp)
Ltmp894:
	.file	38 "/rustc/2c8cc343237b8f7d5a3c3703e3a87f2eb2c54a74/library/core/src/ptr" "mut_ptr.rs"
	.loc	38 52 36
	movq	%rdi, -240(%rbp)
	.loc	38 52 18 is_stmt 0
	movq	-240(%rbp), %rax
	movq	%rax, -160(%rbp)
Ltmp895:
	.loc	38 38 13 is_stmt 1
	movq	%rax, -152(%rbp)
Ltmp896:
	.loc	38 215 33
	movq	%rax, -144(%rbp)
	.loc	38 215 18 is_stmt 0
	movq	%rax, -136(%rbp)
Ltmp897:
	.loc	34 225 20 is_stmt 1
	xorl	%eax, %eax
	testb	$1, %al
	jne	LBB163_2
	.loc	34 0 20 is_stmt 0
	movq	-288(%rbp), %rax
	movq	-280(%rbp), %rcx
	.loc	34 225 76
	movq	%rax, -48(%rbp)
	.loc	34 225 84
	movq	%rcx, -40(%rbp)
Ltmp898:
	.loc	38 1034 18 is_stmt 1
	movq	%rax, -32(%rbp)
	.loc	38 1034 30 is_stmt 0
	movq	%rcx, -24(%rbp)
Ltmp899:
	.loc	38 487 18 is_stmt 1
	shlq	$5, %rcx
	addq	%rcx, %rax
	movq	%rax, -16(%rbp)
	movq	-16(%rbp), %rax
	movq	%rax, -256(%rbp)
Ltmp900:
	.loc	34 225 17
	jmp	LBB163_3
LBB163_2:
	.loc	34 0 17 is_stmt 0
	movq	-280(%rbp), %rcx
	movq	-288(%rbp), %rax
	.loc	34 225 32
	movq	%rax, -128(%rbp)
	.loc	34 225 54
	movq	%rcx, -120(%rbp)
Ltmp901:
	.loc	38 1220 9 is_stmt 1
	movq	%rax, -112(%rbp)
Ltmp902:
	.loc	38 60 9
	movq	%rax, -104(%rbp)
Ltmp903:
	.loc	38 1220 40
	movq	%rcx, -96(%rbp)
Ltmp904:
	.loc	38 1202 9
	movq	%rax, -88(%rbp)
	.loc	38 1202 30 is_stmt 0
	movq	%rcx, -80(%rbp)
Ltmp905:
	.loc	38 568 18 is_stmt 1
	addq	%rcx, %rax
	movq	%rax, -72(%rbp)
	movq	-72(%rbp), %rax
	movq	%rax, -64(%rbp)
Ltmp906:
	.loc	38 99 33
	movq	%rax, -56(%rbp)
Ltmp907:
	.loc	36 135 36
	movq	%rax, -224(%rbp)
	.loc	36 135 14 is_stmt 0
	movq	-224(%rbp), %rax
	movq	%rax, -232(%rbp)
	movq	-232(%rbp), %rax
	movq	%rax, -256(%rbp)
Ltmp908:
LBB163_3:
	.loc	36 0 14
	movq	-288(%rbp), %rax
Ltmp909:
	.loc	34 227 48 is_stmt 1
	movq	%rax, -8(%rbp)
Ltmp910:
	.loc	37 201 13
	movq	%rax, -248(%rbp)
Ltmp911:
	.loc	34 227 54
	movq	-256(%rbp), %rax
	.loc	34 227 13 is_stmt 0
	movq	-248(%rbp), %rcx
	movq	%rcx, -264(%rbp)
	movq	%rax, -272(%rbp)
Ltmp912:
	.loc	34 229 6 is_stmt 1
	movq	-272(%rbp), %rax
	movq	-264(%rbp), %rdx
	addq	$288, %rsp
	popq	%rbp
	retq
Ltmp913:
Lfunc_end163:
	.cfi_endproc

	.globl	__ZN4core6option15Option$LT$T$GT$16unwrap_unchecked17haf16ebdde3811958E
	.p2align	4, 0x90
__ZN4core6option15Option$LT$T$GT$16unwrap_unchecked17haf16ebdde3811958E:
Lfunc_begin164:
	.loc	12 933 0
	.cfi_startproc
	.cfi_personality 155, _rust_eh_personality
	.cfi_lsda 16, Lexception30
	pushq	%rbp
	.cfi_def_cfa_offset 16
	.cfi_offset %rbp, -16
	movq	%rsp, %rbp
	.cfi_def_cfa_register %rbp
	subq	$32, %rsp
	movl	%edi, -32(%rbp)
	movl	%esi, -28(%rbp)
Ltmp917:
	.loc	12 935 15 prologue_end
	movl	-32(%rbp), %eax
	.loc	12 935 9 is_stmt 0
	cmpq	$0, %rax
	jne	LBB164_2
Ltmp914:
	.loc	12 938 30 is_stmt 1
	callq	__ZN4core4hint21unreachable_unchecked17h9a76d4a75d9213cdE
Ltmp915:
	jmp	LBB164_5
LBB164_2:
	.loc	12 936 18
	movl	-28(%rbp), %eax
	movl	%eax, -20(%rbp)
	.loc	12 940 6
	addq	$32, %rsp
	popq	%rbp
	retq
LBB164_3:
	.loc	12 940 5 is_stmt 0
	movl	-32(%rbp), %eax
	cmpq	$1, %rax
	je	LBB164_6
	jmp	LBB164_7
LBB164_4:
Ltmp916:
	.loc	12 0 5
	movq	%rax, %rcx
	movl	%edx, %eax
	movq	%rcx, -16(%rbp)
	movl	%eax, -8(%rbp)
	jmp	LBB164_3
LBB164_5:
	ud2
LBB164_6:
	.loc	12 940 5
	movb	$1, %al
	testb	$1, %al
	jne	LBB164_8
	jmp	LBB164_7
LBB164_7:
	.loc	12 933 5 is_stmt 1
	movq	-16(%rbp), %rdi
	callq	__Unwind_Resume
LBB164_8:
	.loc	12 940 5
	jmp	LBB164_7
Ltmp918:
Lfunc_end164:
	.cfi_endproc
	.section	__TEXT,__gcc_except_tab
	.p2align	2
GCC_except_table164:
Lexception30:
	.byte	255
	.byte	255
	.byte	1
	.uleb128 Lcst_end30-Lcst_begin30
Lcst_begin30:
	.uleb128 Ltmp914-Lfunc_begin164
	.uleb128 Ltmp915-Ltmp914
	.uleb128 Ltmp916-Lfunc_begin164
	.byte	0
	.uleb128 Ltmp915-Lfunc_begin164
	.uleb128 Lfunc_end164-Ltmp915
	.byte	0
	.byte	0
Lcst_end30:
	.p2align	2

	.section	__TEXT,__text,regular,pure_instructions
	.globl	__ZN4core6option15Option$LT$T$GT$2or17h70a74d82f043fd46E
	.p2align	4, 0x90
__ZN4core6option15Option$LT$T$GT$2or17h70a74d82f043fd46E:
Lfunc_begin165:
	.loc	12 1385 0
	.cfi_startproc
	pushq	%rbp
	.cfi_def_cfa_offset 16
	.cfi_offset %rbp, -16
	movq	%rsp, %rbp
	.cfi_def_cfa_register %rbp
	subq	$80, %rsp
	movq	%rdx, -80(%rbp)
	movq	%rcx, -72(%rbp)
	movq	%rdi, -64(%rbp)
	movq	%rsi, -56(%rbp)
	movq	%rdx, -24(%rbp)
	movq	%rcx, -16(%rbp)
Ltmp919:
	.loc	12 1389 15 prologue_end
	movb	$1, -25(%rbp)
	.loc	12 1389 9 is_stmt 0
	cmpq	$0, -64(%rbp)
	jne	LBB165_2
	.loc	12 0 9
	movq	-72(%rbp), %rax
	movq	-80(%rbp), %rcx
	.loc	12 1391 21 is_stmt 1
	movb	$0, -25(%rbp)
	movq	%rcx, -48(%rbp)
	movq	%rax, -40(%rbp)
	jmp	LBB165_3
LBB165_2:
	.loc	12 1390 18
	movq	-56(%rbp), %rax
	movq	%rax, -8(%rbp)
Ltmp920:
	.loc	12 1390 24 is_stmt 0
	movq	%rax, -40(%rbp)
	movq	$1, -48(%rbp)
Ltmp921:
LBB165_3:
	.loc	12 1393 5 is_stmt 1
	testb	$1, -25(%rbp)
	jne	LBB165_5
LBB165_4:
	.loc	12 1393 6 is_stmt 0
	movq	-48(%rbp), %rax
	movq	-40(%rbp), %rdx
	addq	$80, %rsp
	popq	%rbp
	retq
LBB165_5:
	.loc	12 1393 5
	jmp	LBB165_4
Ltmp922:
Lfunc_end165:
	.cfi_endproc

	.globl	__ZN4core6option15Option$LT$T$GT$3map17he54c0f6a8f0c48e6E
	.p2align	4, 0x90
__ZN4core6option15Option$LT$T$GT$3map17he54c0f6a8f0c48e6E:
Lfunc_begin166:
	.loc	12 964 0 is_stmt 1
	.cfi_startproc
	pushq	%rbp
	.cfi_def_cfa_offset 16
	.cfi_offset %rbp, -16
	movq	%rsp, %rbp
	.cfi_def_cfa_register %rbp
	subq	$80, %rsp
	movq	%rdx, -72(%rbp)
	movq	%rdi, -64(%rbp)
	movq	%rsi, -56(%rbp)
	movq	%rdx, -16(%rbp)
Ltmp923:
	.loc	12 969 15 prologue_end
	movb	$1, -17(%rbp)
	.loc	12 969 9 is_stmt 0
	cmpq	$0, -64(%rbp)
	jne	LBB166_2
	.loc	12 971 21 is_stmt 1
	movq	$0, -48(%rbp)
	jmp	LBB166_3
LBB166_2:
	.loc	12 0 21 is_stmt 0
	movq	-72(%rbp), %rdi
	.loc	12 970 18 is_stmt 1
	movq	-56(%rbp), %rax
	movq	%rax, -8(%rbp)
Ltmp924:
	.loc	12 970 29 is_stmt 0
	movb	$0, -17(%rbp)
	movq	%rax, -32(%rbp)
	movq	-32(%rbp), %rsi
	callq	__ZN17crossbeam_channel6select9run_ready28_$u7b$$u7b$closure$u7d$$u7d$28_$u7b$$u7b$closure$u7d$$u7d$17h22def71b4e419e5cE
	.loc	12 970 24
	movq	%rax, -40(%rbp)
	movq	$1, -48(%rbp)
Ltmp925:
LBB166_3:
	.loc	12 973 5 is_stmt 1
	testb	$1, -17(%rbp)
	jne	LBB166_5
LBB166_4:
	.loc	12 973 6 is_stmt 0
	movq	-48(%rbp), %rax
	movq	-40(%rbp), %rdx
	addq	$80, %rsp
	popq	%rbp
	retq
LBB166_5:
	.loc	12 973 5
	jmp	LBB166_4
Ltmp926:
Lfunc_end166:
	.cfi_endproc

	.globl	__ZN4core6option15Option$LT$T$GT$3map17hff9edc63a582353fE
	.p2align	4, 0x90
__ZN4core6option15Option$LT$T$GT$3map17hff9edc63a582353fE:
Lfunc_begin167:
	.loc	12 964 0 is_stmt 1
	.cfi_startproc
	pushq	%rbp
	.cfi_def_cfa_offset 16
	.cfi_offset %rbp, -16
	movq	%rsp, %rbp
	.cfi_def_cfa_register %rbp
	subq	$80, %rsp
	movq	%rdx, -72(%rbp)
	movq	%rdi, -64(%rbp)
	movq	%rsi, -56(%rbp)
	movq	%rdx, -16(%rbp)
Ltmp927:
	.loc	12 969 15 prologue_end
	movb	$1, -17(%rbp)
	.loc	12 969 9 is_stmt 0
	cmpq	$0, -64(%rbp)
	jne	LBB167_2
	.loc	12 971 21 is_stmt 1
	movq	$0, -48(%rbp)
	jmp	LBB167_3
LBB167_2:
	.loc	12 0 21 is_stmt 0
	movq	-72(%rbp), %rdi
	.loc	12 970 18 is_stmt 1
	movq	-56(%rbp), %rax
	movq	%rax, -8(%rbp)
Ltmp928:
	.loc	12 970 29 is_stmt 0
	movb	$0, -17(%rbp)
	movq	%rax, -32(%rbp)
	movq	-32(%rbp), %rsi
	callq	__ZN17crossbeam_channel6select10run_select28_$u7b$$u7b$closure$u7d$$u7d$28_$u7b$$u7b$closure$u7d$$u7d$17hef1500e242e77145E
	.loc	12 970 24
	movq	%rax, -40(%rbp)
	movq	$1, -48(%rbp)
Ltmp929:
LBB167_3:
	.loc	12 973 5 is_stmt 1
	testb	$1, -17(%rbp)
	jne	LBB167_5
LBB167_4:
	.loc	12 973 6 is_stmt 0
	movq	-48(%rbp), %rax
	movq	-40(%rbp), %rdx
	addq	$80, %rsp
	popq	%rbp
	retq
LBB167_5:
	.loc	12 973 5
	jmp	LBB167_4
Ltmp930:
Lfunc_end167:
	.cfi_endproc

	.globl	__ZN4core6option15Option$LT$T$GT$4take17h53b76802168b3ebdE
	.p2align	4, 0x90
__ZN4core6option15Option$LT$T$GT$4take17h53b76802168b3ebdE:
Lfunc_begin168:
	.loc	12 1621 0 is_stmt 1
	.cfi_startproc
	pushq	%rbp
	.cfi_def_cfa_offset 16
	.cfi_offset %rbp, -16
	movq	%rsp, %rbp
	.cfi_def_cfa_register %rbp
	subq	$48, %rsp
	movq	%rdi, %rax
	movq	%rax, -40(%rbp)
	movq	%rsi, -8(%rbp)
Ltmp931:
	.loc	12 1623 28 prologue_end
	movq	$0, -32(%rbp)
	.loc	12 1623 9 is_stmt 0
	leaq	-32(%rbp), %rdx
	callq	__ZN4core3mem7replace17h9e6cd40f8992891fE
	movq	-40(%rbp), %rax
	.loc	12 1624 6 is_stmt 1
	addq	$48, %rsp
	popq	%rbp
	retq
Ltmp932:
Lfunc_end168:
	.cfi_endproc

	.globl	__ZN4core6option15Option$LT$T$GT$4take17h7e2cdfbcbfa1c665E
	.p2align	4, 0x90
__ZN4core6option15Option$LT$T$GT$4take17h7e2cdfbcbfa1c665E:
Lfunc_begin169:
	.loc	12 1621 0
	.cfi_startproc
	pushq	%rbp
	.cfi_def_cfa_offset 16
	.cfi_offset %rbp, -16
	movq	%rsp, %rbp
	.cfi_def_cfa_register %rbp
	subq	$16, %rsp
	movq	%rdi, -8(%rbp)
Ltmp933:
	.loc	12 1623 28 prologue_end
	movl	$0, -16(%rbp)
	.loc	12 1623 9 is_stmt 0
	movl	-16(%rbp), %esi
	movl	-12(%rbp), %edx
	callq	__ZN4core3mem7replace17ha63523c534021dabE
	.loc	12 1624 6 is_stmt 1
	addq	$16, %rsp
	popq	%rbp
	retq
Ltmp934:
Lfunc_end169:
	.cfi_endproc

	.globl	__ZN4core6option15Option$LT$T$GT$4take17h8061a096d0c85722E
	.p2align	4, 0x90
__ZN4core6option15Option$LT$T$GT$4take17h8061a096d0c85722E:
Lfunc_begin170:
	.loc	12 1621 0
	.cfi_startproc
	pushq	%rbp
	.cfi_def_cfa_offset 16
	.cfi_offset %rbp, -16
	movq	%rsp, %rbp
	.cfi_def_cfa_register %rbp
	subq	$32, %rsp
	movq	%rdi, -8(%rbp)
Ltmp935:
	.loc	12 1623 28 prologue_end
	movq	$0, -24(%rbp)
	.loc	12 1623 9 is_stmt 0
	movq	-24(%rbp), %rsi
	movq	-16(%rbp), %rdx
	callq	__ZN4core3mem7replace17hd1a14b32db219abcE
	.loc	12 1624 6 is_stmt 1
	addq	$32, %rsp
	popq	%rbp
	retq
Ltmp936:
Lfunc_end170:
	.cfi_endproc

	.globl	__ZN4core6option15Option$LT$T$GT$4take17he5ecc9818d2a520fE
	.p2align	4, 0x90
__ZN4core6option15Option$LT$T$GT$4take17he5ecc9818d2a520fE:
Lfunc_begin171:
	.loc	12 1621 0
	.cfi_startproc
	pushq	%rbp
	.cfi_def_cfa_offset 16
	.cfi_offset %rbp, -16
	movq	%rsp, %rbp
	.cfi_def_cfa_register %rbp
	subq	$16, %rsp
	movq	%rdi, -8(%rbp)
Ltmp937:
	.loc	12 1623 28 prologue_end
	movq	$0, -16(%rbp)
	.loc	12 1623 9 is_stmt 0
	movq	-16(%rbp), %rsi
	callq	__ZN4core3mem7replace17hbfcd44baf1504985E
	.loc	12 1624 6 is_stmt 1
	addq	$16, %rsp
	popq	%rbp
	retq
Ltmp938:
Lfunc_end171:
	.cfi_endproc

	.globl	__ZN4core6option15Option$LT$T$GT$4take17hff61cf22e1f7d843E
	.p2align	4, 0x90
__ZN4core6option15Option$LT$T$GT$4take17hff61cf22e1f7d843E:
Lfunc_begin172:
	.loc	12 1621 0
	.cfi_startproc
	pushq	%rbp
	.cfi_def_cfa_offset 16
	.cfi_offset %rbp, -16
	movq	%rsp, %rbp
	.cfi_def_cfa_register %rbp
	subq	$32, %rsp
	movq	%rdi, -8(%rbp)
Ltmp939:
	.loc	12 1623 28 prologue_end
	movq	$0, -24(%rbp)
	.loc	12 1623 9 is_stmt 0
	movq	-24(%rbp), %rsi
	movq	-16(%rbp), %rdx
	callq	__ZN4core3mem7replace17h24212fe453978edeE
	.loc	12 1624 6 is_stmt 1
	addq	$32, %rsp
	popq	%rbp
	retq
Ltmp940:
Lfunc_end172:
	.cfi_endproc

	.globl	__ZN4core6option15Option$LT$T$GT$6expect17h6280436fa8496048E
	.p2align	4, 0x90
__ZN4core6option15Option$LT$T$GT$6expect17h6280436fa8496048E:
Lfunc_begin173:
	.loc	12 783 0
	.cfi_startproc
	pushq	%rbp
	.cfi_def_cfa_offset 16
	.cfi_offset %rbp, -16
	movq	%rsp, %rbp
	.cfi_def_cfa_register %rbp
	subq	$80, %rsp
	movq	%rdx, -72(%rbp)
	movq	%rcx, -64(%rbp)
	movq	%r8, -56(%rbp)
	movq	%rdi, -48(%rbp)
	movq	%rsi, -40(%rbp)
	movq	%rdx, -32(%rbp)
	movq	%rcx, -24(%rbp)
Ltmp941:
	.loc	12 784 15 prologue_end
	movq	-40(%rbp), %rdx
	movl	$1, %eax
	xorl	%ecx, %ecx
	cmpq	$0, %rdx
	cmoveq	%rcx, %rax
	.loc	12 784 9 is_stmt 0
	cmpq	$0, %rax
	jne	LBB173_2
	.loc	12 0 9
	movq	-56(%rbp), %rdx
	movq	-64(%rbp), %rsi
	movq	-72(%rbp), %rdi
	.loc	12 786 21 is_stmt 1
	callq	__ZN4core6option13expect_failed17h5792a81bec0ff713E
LBB173_2:
	.loc	12 785 18
	movq	-48(%rbp), %rax
	movq	-40(%rbp), %rdx
	movq	%rax, -16(%rbp)
	movq	%rdx, -8(%rbp)
	.loc	12 788 6
	addq	$80, %rsp
	popq	%rbp
	retq
Ltmp942:
Lfunc_end173:
	.cfi_endproc

	.globl	__ZN4core6option15Option$LT$T$GT$6unwrap17h23c1a30b7d744df6E
	.p2align	4, 0x90
__ZN4core6option15Option$LT$T$GT$6unwrap17h23c1a30b7d744df6E:
Lfunc_begin174:
	.loc	12 820 0
	.cfi_startproc
	pushq	%rbp
	.cfi_def_cfa_offset 16
	.cfi_offset %rbp, -16
	movq	%rsp, %rbp
	.cfi_def_cfa_register %rbp
	subq	$32, %rsp
	movq	%rdx, -32(%rbp)
	movq	%rsi, -24(%rbp)
Ltmp943:
	movq	%rdi, -16(%rbp)
Ltmp944:
	movq	%rdi, -8(%rbp)
Ltmp945:
	.loc	12 821 15 prologue_end
	movq	(%rsi), %rdx
	movl	$1, %eax
	xorl	%ecx, %ecx
	cmpq	$0, %rdx
	cmoveq	%rcx, %rax
	.loc	12 821 9 is_stmt 0
	cmpq	$0, %rax
Ltmp946:
	jne	LBB174_2
Ltmp947:
	.loc	12 0 9
	movq	-32(%rbp), %rdx
	.loc	12 823 21 is_stmt 1
	leaq	l___unnamed_35(%rip), %rdi
	movl	$43, %esi
	callq	__ZN4core9panicking5panic17hc1bc45270cf64b03E
Ltmp948:
LBB174_2:
	.loc	12 0 21 is_stmt 0
	movq	-8(%rbp), %rax
	movq	-16(%rbp), %rcx
	movq	-24(%rbp), %rdx
	.loc	12 822 18 is_stmt 1
	movq	(%rdx), %rsi
	movq	%rsi, (%rcx)
	movq	8(%rdx), %rsi
	movq	%rsi, 8(%rcx)
	movq	16(%rdx), %rdx
	movq	%rdx, 16(%rcx)
	.loc	12 825 6
	addq	$32, %rsp
	popq	%rbp
	retq
Ltmp949:
Lfunc_end174:
	.cfi_endproc

	.globl	__ZN4core6option15Option$LT$T$GT$6unwrap17h7b4f6384ae1e2a73E
	.p2align	4, 0x90
__ZN4core6option15Option$LT$T$GT$6unwrap17h7b4f6384ae1e2a73E:
Lfunc_begin175:
	.loc	12 820 0
	.cfi_startproc
	pushq	%rbp
	.cfi_def_cfa_offset 16
	.cfi_offset %rbp, -16
	movq	%rsp, %rbp
	.cfi_def_cfa_register %rbp
	subq	$32, %rsp
	movq	%rdx, -32(%rbp)
	movq	%rdi, -24(%rbp)
	movq	%rsi, -16(%rbp)
Ltmp950:
	.loc	12 821 9 prologue_end
	cmpq	$0, -24(%rbp)
	jne	LBB175_2
	.loc	12 0 9 is_stmt 0
	movq	-32(%rbp), %rdx
	.loc	12 823 21 is_stmt 1
	leaq	l___unnamed_35(%rip), %rdi
	movl	$43, %esi
	callq	__ZN4core9panicking5panic17hc1bc45270cf64b03E
LBB175_2:
	.loc	12 822 18
	movq	-16(%rbp), %rax
	movq	%rax, -8(%rbp)
	.loc	12 825 6
	addq	$32, %rsp
	popq	%rbp
	retq
Ltmp951:
Lfunc_end175:
	.cfi_endproc

	.globl	__ZN4core6option15Option$LT$T$GT$6unwrap17hdab4e0733182a231E
	.p2align	4, 0x90
__ZN4core6option15Option$LT$T$GT$6unwrap17hdab4e0733182a231E:
Lfunc_begin176:
	.loc	12 820 0
	.cfi_startproc
	pushq	%rbp
	.cfi_def_cfa_offset 16
	.cfi_offset %rbp, -16
	movq	%rsp, %rbp
	.cfi_def_cfa_register %rbp
	subq	$48, %rsp
	movq	%rdx, -40(%rbp)
	movq	%rdi, -32(%rbp)
	movq	%rsi, -24(%rbp)
Ltmp952:
	.loc	12 821 15 prologue_end
	movq	-32(%rbp), %rdx
	movl	$1, %eax
	xorl	%ecx, %ecx
	cmpq	$0, %rdx
	cmoveq	%rcx, %rax
	.loc	12 821 9 is_stmt 0
	cmpq	$0, %rax
	jne	LBB176_2
	.loc	12 0 9
	movq	-40(%rbp), %rdx
	.loc	12 823 21 is_stmt 1
	leaq	l___unnamed_35(%rip), %rdi
	movl	$43, %esi
	callq	__ZN4core9panicking5panic17hc1bc45270cf64b03E
LBB176_2:
	.loc	12 822 18
	movq	-32(%rbp), %rax
	movq	-24(%rbp), %rdx
	movq	%rax, -16(%rbp)
	movq	%rdx, -8(%rbp)
	.loc	12 825 6
	addq	$48, %rsp
	popq	%rbp
	retq
Ltmp953:
Lfunc_end176:
	.cfi_endproc

	.globl	__ZN4core6option15Option$LT$T$GT$6unwrap17he7ce360011d8daffE
	.p2align	4, 0x90
__ZN4core6option15Option$LT$T$GT$6unwrap17he7ce360011d8daffE:
Lfunc_begin177:
	.loc	12 820 0
	.cfi_startproc
	pushq	%rbp
	.cfi_def_cfa_offset 16
	.cfi_offset %rbp, -16
	movq	%rsp, %rbp
	.cfi_def_cfa_register %rbp
	subq	$32, %rsp
	movq	%rdx, -32(%rbp)
	movq	%rsi, -24(%rbp)
Ltmp954:
	movq	%rdi, -16(%rbp)
Ltmp955:
	movq	%rdi, -8(%rbp)
Ltmp956:
	.loc	12 821 15 prologue_end
	movl	$1, %eax
	xorl	%ecx, %ecx
	cmpq	$2, 40(%rsi)
	cmoveq	%rcx, %rax
	.loc	12 821 9 is_stmt 0
	cmpq	$0, %rax
Ltmp957:
	jne	LBB177_2
Ltmp958:
	.loc	12 0 9
	movq	-32(%rbp), %rdx
	.loc	12 823 21 is_stmt 1
	leaq	l___unnamed_35(%rip), %rdi
	movl	$43, %esi
	callq	__ZN4core9panicking5panic17hc1bc45270cf64b03E
Ltmp959:
LBB177_2:
	.loc	12 0 21 is_stmt 0
	movq	-24(%rbp), %rsi
	movq	-16(%rbp), %rdi
	.loc	12 822 18 is_stmt 1
	movl	$88, %edx
	callq	_memcpy
	movq	-8(%rbp), %rax
	.loc	12 825 6
	addq	$32, %rsp
	popq	%rbp
	retq
Ltmp960:
Lfunc_end177:
	.cfi_endproc

	.globl	__ZN4core6option15Option$LT$T$GT$7is_some17h67edfb28ba4d2887E
	.p2align	4, 0x90
__ZN4core6option15Option$LT$T$GT$7is_some17h67edfb28ba4d2887E:
Lfunc_begin178:
	.loc	12 597 0
	.cfi_startproc
	pushq	%rbp
	.cfi_def_cfa_offset 16
	.cfi_offset %rbp, -16
	movq	%rsp, %rbp
	.cfi_def_cfa_register %rbp
	subq	$16, %rsp
	movq	%rdi, -8(%rbp)
Ltmp961:
	.loc	12 598 9 prologue_end
	cmpq	$1, (%rdi)
	jne	LBB178_2
	movb	$1, -9(%rbp)
	jmp	LBB178_3
LBB178_2:
	movb	$0, -9(%rbp)
LBB178_3:
	.loc	12 599 6
	movb	-9(%rbp), %al
	andb	$1, %al
	movzbl	%al, %eax
	addq	$16, %rsp
	popq	%rbp
	retq
Ltmp962:
Lfunc_end178:
	.cfi_endproc

	.globl	__ZN4core6result19Result$LT$T$C$E$GT$14unwrap_or_else17h08e200083319a844E
	.p2align	4, 0x90
__ZN4core6result19Result$LT$T$C$E$GT$14unwrap_or_else17h08e200083319a844E:
Lfunc_begin179:
	.loc	13 1500 0
	.cfi_startproc
	pushq	%rbp
	.cfi_def_cfa_offset 16
	.cfi_offset %rbp, -16
	movq	%rsp, %rbp
	.cfi_def_cfa_register %rbp
	subq	$80, %rsp
	movq	%rdx, -80(%rbp)
	movq	%rdi, -72(%rbp)
	movq	%rsi, -64(%rbp)
	movq	%rdx, -32(%rbp)
Ltmp963:
	.loc	13 1501 15 prologue_end
	movb	$1, -33(%rbp)
	xorl	%eax, %eax
	movl	$1, %ecx
	cmpq	$2, -72(%rbp)
	cmoveq	%rcx, %rax
	.loc	13 1501 9 is_stmt 0
	cmpq	$0, %rax
	jne	LBB179_2
	.loc	13 1502 16 is_stmt 1
	movq	-72(%rbp), %rcx
	movq	-64(%rbp), %rax
	movq	%rcx, -16(%rbp)
	movq	%rax, -8(%rbp)
Ltmp964:
	.loc	13 1502 22 is_stmt 0
	movq	%rcx, -56(%rbp)
	movq	%rax, -48(%rbp)
Ltmp965:
	.loc	13 1502 22
	jmp	LBB179_3
LBB179_2:
	.loc	13 0 22
	movq	-80(%rbp), %rdi
Ltmp966:
	.loc	13 1503 23 is_stmt 1
	movb	$0, -33(%rbp)
	callq	__ZN17crossbeam_channel7context7Context4with28_$u7b$$u7b$closure$u7d$$u7d$17h9c7bc59749ef4b6bE
	movq	%rdx, -48(%rbp)
	movq	%rax, -56(%rbp)
Ltmp967:
LBB179_3:
	.loc	13 1505 5
	testb	$1, -33(%rbp)
	jne	LBB179_5
LBB179_4:
	.loc	13 1505 6 is_stmt 0
	movq	-56(%rbp), %rax
	movq	-48(%rbp), %rdx
	addq	$80, %rsp
	popq	%rbp
	retq
LBB179_5:
	.loc	13 1505 5
	jmp	LBB179_4
Ltmp968:
Lfunc_end179:
	.cfi_endproc

	.globl	__ZN4core6result19Result$LT$T$C$E$GT$14unwrap_or_else17hda90ae6627ae91e6E
	.p2align	4, 0x90
__ZN4core6result19Result$LT$T$C$E$GT$14unwrap_or_else17hda90ae6627ae91e6E:
Lfunc_begin180:
	.loc	13 1500 0 is_stmt 1
	.cfi_startproc
	pushq	%rbp
	.cfi_def_cfa_offset 16
	.cfi_offset %rbp, -16
	movq	%rsp, %rbp
	.cfi_def_cfa_register %rbp
	subq	$80, %rsp
	movq	%rdx, -80(%rbp)
	movq	%rsi, -72(%rbp)
Ltmp969:
	movq	%rdi, -64(%rbp)
	movq	%rdi, -56(%rbp)
Ltmp970:
	movq	%rdx, -16(%rbp)
Ltmp971:
	.loc	13 1501 15 prologue_end
	movb	$1, -17(%rbp)
	xorl	%eax, %eax
	movl	$1, %ecx
	cmpq	$2, (%rsi)
	cmoveq	%rcx, %rax
	.loc	13 1501 9 is_stmt 0
	cmpq	$0, %rax
Ltmp972:
	jne	LBB180_2
Ltmp973:
	.loc	13 0 9
	movq	-64(%rbp), %rax
	movq	-72(%rbp), %rcx
	.loc	13 1502 16 is_stmt 1
	movq	(%rcx), %rdx
	movq	%rdx, -48(%rbp)
	movq	8(%rcx), %rdx
	movq	%rdx, -40(%rbp)
	movq	16(%rcx), %rcx
	movq	%rcx, -32(%rbp)
Ltmp974:
	.loc	13 1502 22 is_stmt 0
	movq	-48(%rbp), %rcx
	movq	%rcx, (%rax)
	movq	-40(%rbp), %rcx
	movq	%rcx, 8(%rax)
	movq	-32(%rbp), %rcx
	movq	%rcx, 16(%rax)
Ltmp975:
	.loc	13 1502 22
	jmp	LBB180_3
Ltmp976:
LBB180_2:
	.loc	13 0 22
	movq	-80(%rbp), %rsi
	movq	-64(%rbp), %rdi
Ltmp977:
	.loc	13 1503 23 is_stmt 1
	movb	$0, -17(%rbp)
	callq	__ZN17crossbeam_channel7context7Context4with28_$u7b$$u7b$closure$u7d$$u7d$17h6144d0a3909c56dfE
Ltmp978:
LBB180_3:
	.loc	13 1505 5
	testb	$1, -17(%rbp)
	jne	LBB180_5
Ltmp979:
LBB180_4:
	.loc	13 0 5 is_stmt 0
	movq	-56(%rbp), %rax
	.loc	13 1505 6
	addq	$80, %rsp
	popq	%rbp
	retq
Ltmp980:
LBB180_5:
	.loc	13 1505 5
	jmp	LBB180_4
Ltmp981:
Lfunc_end180:
	.cfi_endproc

	.globl	__ZN4core6result19Result$LT$T$C$E$GT$3map17h5a1f5a32cc157fd0E
	.p2align	4, 0x90
__ZN4core6result19Result$LT$T$C$E$GT$3map17h5a1f5a32cc157fd0E:
Lfunc_begin181:
	.loc	13 772 0 is_stmt 1
	.cfi_startproc
	pushq	%rbp
	.cfi_def_cfa_offset 16
	.cfi_offset %rbp, -16
	movq	%rsp, %rbp
	.cfi_def_cfa_register %rbp
	subq	$80, %rsp
	movq	%rdi, -72(%rbp)
	movq	%rsi, -64(%rbp)
Ltmp982:
	.loc	13 773 15 prologue_end
	movb	$1, -25(%rbp)
	.loc	13 773 9 is_stmt 0
	cmpq	$0, -72(%rbp)
	jne	LBB181_2
	.loc	13 774 16 is_stmt 1
	movq	-64(%rbp), %rax
	movq	%rax, -8(%rbp)
Ltmp983:
	.loc	13 774 25 is_stmt 0
	movb	$0, -25(%rbp)
	movq	%rax, -40(%rbp)
	movq	-40(%rbp), %rdi
	callq	__ZN17crossbeam_channel7context7Context10try_select28_$u7b$$u7b$closure$u7d$$u7d$17h0f62c3d37f47c145E
	.loc	13 774 22
	movq	$0, -56(%rbp)
Ltmp984:
	.loc	13 774 30
	jmp	LBB181_3
LBB181_2:
	.loc	13 775 17 is_stmt 1
	movq	-64(%rbp), %rax
	movq	%rax, -16(%rbp)
Ltmp985:
	.loc	13 775 23 is_stmt 0
	movq	%rax, -48(%rbp)
	movq	$1, -56(%rbp)
Ltmp986:
LBB181_3:
	.loc	13 777 5 is_stmt 1
	testb	$1, -25(%rbp)
	jne	LBB181_5
LBB181_4:
	.loc	13 777 6 is_stmt 0
	movq	-56(%rbp), %rax
	movq	-48(%rbp), %rdx
	addq	$80, %rsp
	popq	%rbp
	retq
LBB181_5:
	.loc	13 777 5
	jmp	LBB181_4
Ltmp987:
Lfunc_end181:
	.cfi_endproc

	.globl	__ZN4core6result19Result$LT$T$C$E$GT$6unwrap17h9e8c0630efb5f2bcE
	.p2align	4, 0x90
__ZN4core6result19Result$LT$T$C$E$GT$6unwrap17h9e8c0630efb5f2bcE:
Lfunc_begin182:
	.loc	13 1106 0 is_stmt 1
	.cfi_startproc
	.cfi_personality 155, _rust_eh_personality
	.cfi_lsda 16, Lexception31
	pushq	%rbp
	.cfi_def_cfa_offset 16
	.cfi_offset %rbp, -16
	movq	%rsp, %rbp
	.cfi_def_cfa_register %rbp
	subq	$64, %rsp
	movq	%rdx, -64(%rbp)
	movq	%rdi, -56(%rbp)
	movq	%rsi, -48(%rbp)
Ltmp991:
	.loc	13 1110 15 prologue_end
	movl	$1, %eax
	xorl	%ecx, %ecx
	cmpq	$4, -56(%rbp)
	cmoveq	%rcx, %rax
	.loc	13 1110 9 is_stmt 0
	cmpq	$0, %rax
	jne	LBB182_2
	.loc	13 1114 6 is_stmt 1
	addq	$64, %rsp
	popq	%rbp
	retq
LBB182_2:
	.loc	13 0 6 is_stmt 0
	movq	-64(%rbp), %r8
	.loc	13 1112 17 is_stmt 1
	movq	-56(%rbp), %rcx
	movq	-48(%rbp), %rax
	movq	%rcx, -40(%rbp)
	movq	%rax, -32(%rbp)
Ltmp988:
Ltmp992:
	.loc	13 1112 23 is_stmt 0
	leaq	l___unnamed_36(%rip), %rdi
	leaq	l___unnamed_1(%rip), %rcx
	movl	$43, %esi
	leaq	-40(%rbp), %rdx
	callq	__ZN4core6result13unwrap_failed17h533573e6d3b6061cE
Ltmp989:
	jmp	LBB182_5
Ltmp993:
LBB182_3:
	.loc	13 1106 5 is_stmt 1
	movq	-16(%rbp), %rdi
	callq	__Unwind_Resume
Ltmp994:
LBB182_4:
Ltmp990:
	.loc	13 0 5 is_stmt 0
	movq	%rax, %rcx
	movl	%edx, %eax
	movq	%rcx, -16(%rbp)
	movl	%eax, -8(%rbp)
	jmp	LBB182_3
LBB182_5:
	ud2
Lfunc_end182:
	.cfi_endproc
	.section	__TEXT,__gcc_except_tab
	.p2align	2
GCC_except_table182:
Lexception31:
	.byte	255
	.byte	255
	.byte	1
	.uleb128 Lcst_end31-Lcst_begin31
Lcst_begin31:
	.uleb128 Ltmp988-Lfunc_begin182
	.uleb128 Ltmp989-Ltmp988
	.uleb128 Ltmp990-Lfunc_begin182
	.byte	0
	.uleb128 Ltmp989-Lfunc_begin182
	.uleb128 Lfunc_end182-Ltmp989
	.byte	0
	.byte	0
Lcst_end31:
	.p2align	2

	.section	__TEXT,__text,regular,pure_instructions
	.globl	__ZN4core6result19Result$LT$T$C$E$GT$7map_err17h205c5292582556f4E
	.p2align	4, 0x90
__ZN4core6result19Result$LT$T$C$E$GT$7map_err17h205c5292582556f4E:
Lfunc_begin183:
	.loc	13 857 0 is_stmt 1
	.cfi_startproc
	pushq	%rbp
	.cfi_def_cfa_offset 16
	.cfi_offset %rbp, -16
	movq	%rsp, %rbp
	.cfi_def_cfa_register %rbp
	subq	$80, %rsp
	movq	%rdi, -72(%rbp)
	movq	%rsi, -64(%rbp)
Ltmp995:
	.loc	13 858 15 prologue_end
	movb	$1, -25(%rbp)
	.loc	13 858 9 is_stmt 0
	cmpq	$0, -72(%rbp)
	jne	LBB183_2
Ltmp996:
	.loc	13 859 22 is_stmt 1
	movq	$4, -56(%rbp)
Ltmp997:
	.loc	13 859 26 is_stmt 0
	jmp	LBB183_3
LBB183_2:
	.loc	13 860 17 is_stmt 1
	movq	-64(%rbp), %rax
	movq	%rax, -8(%rbp)
Ltmp998:
	.loc	13 860 27 is_stmt 0
	movb	$0, -25(%rbp)
	movq	%rax, -40(%rbp)
	movq	-40(%rbp), %rdi
	callq	__ZN17crossbeam_channel7context7Context10try_select28_$u7b$$u7b$closure$u7d$$u7d$17h7d61b1f3c719eaeeE
	.loc	13 860 23
	movq	%rax, -56(%rbp)
	movq	%rdx, -48(%rbp)
Ltmp999:
LBB183_3:
	.loc	13 862 5 is_stmt 1
	testb	$1, -25(%rbp)
	jne	LBB183_5
LBB183_4:
	.loc	13 862 6 is_stmt 0
	movq	-56(%rbp), %rax
	movq	-48(%rbp), %rdx
	addq	$80, %rsp
	popq	%rbp
	retq
LBB183_5:
	.loc	13 862 5
	jmp	LBB183_4
Ltmp1000:
Lfunc_end183:
	.cfi_endproc

	.globl	__ZN50_$LT$$BP$mut$u20$T$u20$as$u20$core..fmt..Debug$GT$3fmt17hc6fa58cb77aa059eE
	.p2align	4, 0x90
__ZN50_$LT$$BP$mut$u20$T$u20$as$u20$core..fmt..Debug$GT$3fmt17hc6fa58cb77aa059eE:
Lfunc_begin184:
	.loc	15 2547 0 is_stmt 1
	.cfi_startproc
	pushq	%rbp
	.cfi_def_cfa_offset 16
	.cfi_offset %rbp, -16
	movq	%rsp, %rbp
	.cfi_def_cfa_register %rbp
	subq	$16, %rsp
	movq	%rdi, -16(%rbp)
	movq	%rsi, -8(%rbp)
Ltmp1001:
	.loc	15 2548 9 prologue_end
	callq	__ZN52_$LT$$BP$mut$u20$T$u20$as$u20$core..fmt..Pointer$GT$3fmt17he3235a671f973e24E
	.loc	15 2549 6
	andb	$1, %al
	movzbl	%al, %eax
	addq	$16, %rsp
	popq	%rbp
	retq
Ltmp1002:
Lfunc_end184:
	.cfi_endproc

	.globl	__ZN50_$LT$T$u20$as$u20$core..convert..Into$LT$U$GT$$GT$4into17h2e0849652c9a198fE
	.p2align	4, 0x90
__ZN50_$LT$T$u20$as$u20$core..convert..Into$LT$U$GT$$GT$4into17h2e0849652c9a198fE:
Lfunc_begin185:
	.file	39 "/rustc/2c8cc343237b8f7d5a3c3703e3a87f2eb2c54a74/library/core/src/convert" "mod.rs"
	.loc	39 725 0
	.cfi_startproc
	pushq	%rbp
	.cfi_def_cfa_offset 16
	.cfi_offset %rbp, -16
	movq	%rsp, %rbp
	.cfi_def_cfa_register %rbp
	pushq	%rax
	movl	%edi, %eax
	movl	%eax, -8(%rbp)
	movl	%eax, -4(%rbp)
Ltmp1003:
	.loc	39 727 6 prologue_end
	addq	$8, %rsp
	popq	%rbp
	retq
Ltmp1004:
Lfunc_end185:
	.cfi_endproc

	.globl	__ZN50_$LT$T$u20$as$u20$core..convert..Into$LT$U$GT$$GT$4into17h3f13450d0a5c26cdE
	.p2align	4, 0x90
__ZN50_$LT$T$u20$as$u20$core..convert..Into$LT$U$GT$$GT$4into17h3f13450d0a5c26cdE:
Lfunc_begin186:
	.loc	39 725 0
	.cfi_startproc
	pushq	%rbp
	.cfi_def_cfa_offset 16
	.cfi_offset %rbp, -16
	movq	%rsp, %rbp
	.cfi_def_cfa_register %rbp
	subq	$16, %rsp
	movq	%rdi, -8(%rbp)
Ltmp1005:
	.loc	39 726 9 prologue_end
	callq	__ZN98_$LT$core..ptr..non_null..NonNull$LT$T$GT$$u20$as$u20$core..convert..From$LT$$RF$mut$u20$T$GT$$GT$4from17hdce84634fdbdde66E
	.loc	39 727 6
	addq	$16, %rsp
	popq	%rbp
	retq
Ltmp1006:
Lfunc_end186:
	.cfi_endproc

	.globl	__ZN50_$LT$T$u20$as$u20$core..convert..Into$LT$U$GT$$GT$4into17h3f9ea6a68bf20458E
	.p2align	4, 0x90
__ZN50_$LT$T$u20$as$u20$core..convert..Into$LT$U$GT$$GT$4into17h3f9ea6a68bf20458E:
Lfunc_begin187:
	.loc	39 725 0
	.cfi_startproc
	pushq	%rbp
	.cfi_def_cfa_offset 16
	.cfi_offset %rbp, -16
	movq	%rsp, %rbp
	.cfi_def_cfa_register %rbp
	subq	$16, %rsp
	movq	%rdi, -8(%rbp)
Ltmp1007:
	.loc	39 726 9 prologue_end
	callq	__ZN88_$LT$crossbeam_channel..select..Selected$u20$as$u20$core..convert..From$LT$usize$GT$$GT$4from17hd8d1f0e356a4f3c8E
	.loc	39 727 6
	addq	$16, %rsp
	popq	%rbp
	retq
Ltmp1008:
Lfunc_end187:
	.cfi_endproc

	.globl	__ZN50_$LT$T$u20$as$u20$core..convert..Into$LT$U$GT$$GT$4into17h7a573230f46e52a8E
	.p2align	4, 0x90
__ZN50_$LT$T$u20$as$u20$core..convert..Into$LT$U$GT$$GT$4into17h7a573230f46e52a8E:
Lfunc_begin188:
	.loc	39 725 0
	.cfi_startproc
	pushq	%rbp
	.cfi_def_cfa_offset 16
	.cfi_offset %rbp, -16
	movq	%rsp, %rbp
	.cfi_def_cfa_register %rbp
	subq	$16, %rsp
	movq	%rdi, -8(%rbp)
Ltmp1009:
	.loc	39 726 9 prologue_end
	callq	__ZN98_$LT$core..ptr..non_null..NonNull$LT$T$GT$$u20$as$u20$core..convert..From$LT$$RF$mut$u20$T$GT$$GT$4from17h55a424443ef48ba5E
	.loc	39 727 6
	addq	$16, %rsp
	popq	%rbp
	retq
Ltmp1010:
Lfunc_end188:
	.cfi_endproc

	.globl	__ZN50_$LT$T$u20$as$u20$core..convert..Into$LT$U$GT$$GT$4into17hd20873ebd98e7bc0E
	.p2align	4, 0x90
__ZN50_$LT$T$u20$as$u20$core..convert..Into$LT$U$GT$$GT$4into17hd20873ebd98e7bc0E:
Lfunc_begin189:
	.loc	39 725 0
	.cfi_startproc
	pushq	%rbp
	.cfi_def_cfa_offset 16
	.cfi_offset %rbp, -16
	movq	%rsp, %rbp
	.cfi_def_cfa_register %rbp
	subq	$16, %rsp
	movq	%rdi, -8(%rbp)
Ltmp1011:
	.loc	39 726 9 prologue_end
	callq	__ZN98_$LT$core..ptr..non_null..NonNull$LT$T$GT$$u20$as$u20$core..convert..From$LT$$RF$mut$u20$T$GT$$GT$4from17h8128e5279d047fe0E
	.loc	39 727 6
	addq	$16, %rsp
	popq	%rbp
	retq
Ltmp1012:
Lfunc_end189:
	.cfi_endproc

	.p2align	4, 0x90
__ZN51_$LT$$LP$$RP$$u20$as$u20$core..default..Default$GT$7default17hdae16bba1f3df22aE:
Lfunc_begin190:
	.file	40 "/rustc/2c8cc343237b8f7d5a3c3703e3a87f2eb2c54a74/library/core/src" "default.rs"
	.loc	40 197 0
	.cfi_startproc
	pushq	%rbp
	.cfi_def_cfa_offset 16
	.cfi_offset %rbp, -16
	movq	%rsp, %rbp
	.cfi_def_cfa_register %rbp
Ltmp1013:
	.loc	40 199 14 prologue_end
	popq	%rbp
	retq
Ltmp1014:
Lfunc_end190:
	.cfi_endproc

	.globl	__ZN52_$LT$$BP$const$u20$T$u20$as$u20$core..fmt..Debug$GT$3fmt17h15d0252f6577d2f0E
	.p2align	4, 0x90
__ZN52_$LT$$BP$const$u20$T$u20$as$u20$core..fmt..Debug$GT$3fmt17h15d0252f6577d2f0E:
Lfunc_begin191:
	.loc	15 2541 0
	.cfi_startproc
	pushq	%rbp
	.cfi_def_cfa_offset 16
	.cfi_offset %rbp, -16
	movq	%rsp, %rbp
	.cfi_def_cfa_register %rbp
	subq	$16, %rsp
	movq	%rdi, -16(%rbp)
	movq	%rsi, -8(%rbp)
Ltmp1015:
	.loc	15 2542 9 prologue_end
	callq	__ZN54_$LT$$BP$const$u20$T$u20$as$u20$core..fmt..Pointer$GT$3fmt17h85a7f889cca82399E
	.loc	15 2543 6
	andb	$1, %al
	movzbl	%al, %eax
	addq	$16, %rsp
	popq	%rbp
	retq
Ltmp1016:
Lfunc_end191:
	.cfi_endproc

	.globl	__ZN52_$LT$$BP$mut$u20$T$u20$as$u20$core..fmt..Pointer$GT$3fmt17he3235a671f973e24E
	.p2align	4, 0x90
__ZN52_$LT$$BP$mut$u20$T$u20$as$u20$core..fmt..Pointer$GT$3fmt17he3235a671f973e24E:
Lfunc_begin192:
	.loc	15 2518 0
	.cfi_startproc
	pushq	%rbp
	.cfi_def_cfa_offset 16
	.cfi_offset %rbp, -16
	movq	%rsp, %rbp
	.cfi_def_cfa_register %rbp
	subq	$32, %rsp
	movq	%rdi, -16(%rbp)
	movq	%rsi, -8(%rbp)
Ltmp1017:
	.loc	15 2519 24 prologue_end
	movq	(%rdi), %rax
	movq	%rax, -24(%rbp)
	.loc	15 2519 9 is_stmt 0
	leaq	-24(%rbp), %rdi
	callq	__ZN54_$LT$$BP$const$u20$T$u20$as$u20$core..fmt..Pointer$GT$3fmt17h7a02e10f32a8803dE
	.loc	15 2520 6 is_stmt 1
	andb	$1, %al
	movzbl	%al, %eax
	addq	$32, %rsp
	popq	%rbp
	retq
Ltmp1018:
Lfunc_end192:
	.cfi_endproc

	.globl	__ZN52_$LT$T$u20$as$u20$alloc..slice..hack..ConvertVec$GT$6to_vec17h98f1778a6eb4e3deE
	.p2align	4, 0x90
__ZN52_$LT$T$u20$as$u20$alloc..slice..hack..ConvertVec$GT$6to_vec17h98f1778a6eb4e3deE:
Lfunc_begin193:
	.file	41 "/rustc/2c8cc343237b8f7d5a3c3703e3a87f2eb2c54a74/library/alloc/src" "slice.rs"
	.loc	41 161 0
	.cfi_startproc
	.cfi_personality 155, _rust_eh_personality
	.cfi_lsda 16, Lexception32
	pushq	%rbp
	.cfi_def_cfa_offset 16
	.cfi_offset %rbp, -16
	movq	%rsp, %rbp
	.cfi_def_cfa_register %rbp
	subq	$448, %rsp
	movq	%rdx, -432(%rbp)
	movq	%rsi, -424(%rbp)
	movq	%rdi, -416(%rbp)
	movq	%rdi, -408(%rbp)
	movq	%rsi, -320(%rbp)
	movq	%rdx, -312(%rbp)
Ltmp1022:
	.loc	41 162 47 prologue_end
	movq	%rsi, -280(%rbp)
	movq	%rdx, -272(%rbp)
Ltmp1023:
	.loc	33 137 23
	movq	%rsi, -264(%rbp)
	movq	%rdx, -256(%rbp)
Ltmp1024:
	.loc	36 98 14
	movq	%rsi, -384(%rbp)
	movq	%rdx, -376(%rbp)
	movq	-376(%rbp), %rdi
	movq	%rdi, -248(%rbp)
Ltmp1025:
	.file	42 "/rustc/2c8cc343237b8f7d5a3c3703e3a87f2eb2c54a74/library/alloc/src/vec" "mod.rs"
	.loc	42 676 45
	movq	%rdi, -240(%rbp)
Ltmp1026:
	.file	43 "/rustc/2c8cc343237b8f7d5a3c3703e3a87f2eb2c54a74/library/alloc/src" "raw_vec.rs"
	.loc	43 131 37
	movb	$0, -361(%rbp)
	.loc	43 131 9 is_stmt 0
	movzbl	-361(%rbp), %esi
Ltmp1019:
	callq	__ZN5alloc7raw_vec19RawVec$LT$T$C$A$GT$11allocate_in17h3dcba7178091277bE
Ltmp1020:
	movq	%rdx, -400(%rbp)
	movq	%rax, -392(%rbp)
	jmp	LBB193_3
Ltmp1027:
LBB193_1:
	.loc	41 171 9 is_stmt 1
	xorl	%eax, %eax
	testb	$1, %al
	jne	LBB193_6
	jmp	LBB193_5
LBB193_2:
Ltmp1021:
	.loc	41 0 9 is_stmt 0
	movq	%rax, %rcx
	movl	%edx, %eax
	movq	%rcx, -232(%rbp)
	movl	%eax, -224(%rbp)
	jmp	LBB193_1
LBB193_3:
Ltmp1028:
	movq	-416(%rbp), %rax
	movq	-424(%rbp), %rcx
	movq	-432(%rbp), %rdx
	movq	-400(%rbp), %rsi
	movq	-392(%rbp), %rdi
Ltmp1029:
	.loc	42 676 9 is_stmt 1
	movq	%rdi, (%rax)
	movq	%rsi, 8(%rax)
	movq	$0, 16(%rax)
Ltmp1030:
	.loc	41 167 17
	movq	%rcx, -216(%rbp)
	movq	%rdx, -208(%rbp)
Ltmp1031:
	.loc	33 477 9
	movq	%rcx, -200(%rbp)
Ltmp1032:
	.loc	41 167 51
	movq	%rax, -192(%rbp)
Ltmp1033:
	.loc	42 1280 19
	movq	%rax, -184(%rbp)
Ltmp1034:
	.loc	43 224 9
	movq	8(%rax), %rax
	movq	%rax, -440(%rbp)
	movq	%rax, -176(%rbp)
Ltmp1035:
	.file	44 "/rustc/2c8cc343237b8f7d5a3c3703e3a87f2eb2c54a74/library/core/src/ptr" "unique.rs"
	.loc	44 104 9
	movq	%rax, -168(%rbp)
Ltmp1036:
	.loc	37 326 9
	movq	%rax, -160(%rbp)
Ltmp1037:
	.loc	42 1282 21
	movq	%rax, -152(%rbp)
Ltmp1038:
	.loc	38 52 36
	movq	%rax, -360(%rbp)
	.loc	38 52 18 is_stmt 0
	movq	-360(%rbp), %rax
	movq	%rax, -144(%rbp)
Ltmp1039:
	.loc	38 38 13 is_stmt 1
	movq	%rax, -136(%rbp)
Ltmp1040:
	.loc	38 215 33
	movq	%rax, -128(%rbp)
	.loc	38 215 18 is_stmt 0
	movq	%rax, -120(%rbp)
	movq	-120(%rbp), %rax
Ltmp1041:
	.loc	38 0 18
	movq	-432(%rbp), %rax
	movq	-424(%rbp), %rsi
	movq	-440(%rbp), %rdi
	.loc	41 167 67 is_stmt 1
	movq	%rsi, -112(%rbp)
	movq	%rax, -104(%rbp)
Ltmp1042:
	.loc	33 137 23
	movq	%rsi, -96(%rbp)
	movq	%rax, -88(%rbp)
Ltmp1043:
	.loc	36 98 14
	movq	%rsi, -352(%rbp)
	movq	%rax, -344(%rbp)
	movq	-344(%rbp), %rdx
	movq	%rdx, -80(%rbp)
Ltmp1044:
	.loc	35 1297 38
	movq	%rsi, -72(%rbp)
	.loc	35 1297 44 is_stmt 0
	movq	%rdi, -64(%rbp)
	.loc	35 1297 50
	movq	%rdx, -56(%rbp)
Ltmp1045:
	.loc	25 2372 9 is_stmt 1
	shlq	$5, %rdx
	callq	_memcpy
	movq	-424(%rbp), %rsi
	movq	-432(%rbp), %rdx
	movq	-416(%rbp), %rcx
	movq	-408(%rbp), %rax
Ltmp1046:
	.loc	41 168 17
	movq	%rcx, -48(%rbp)
	.loc	41 168 27 is_stmt 0
	movq	%rsi, -40(%rbp)
	movq	%rdx, -32(%rbp)
Ltmp1047:
	.loc	33 137 23 is_stmt 1
	movq	%rsi, -24(%rbp)
	movq	%rdx, -16(%rbp)
Ltmp1048:
	.loc	36 98 14
	movq	%rsi, -336(%rbp)
	movq	%rdx, -328(%rbp)
	movq	-328(%rbp), %rdx
	movq	%rdx, -8(%rbp)
Ltmp1049:
	.loc	42 1377 9
	movq	%rdx, 16(%rcx)
Ltmp1050:
	.loc	41 171 10
	addq	$448, %rsp
	popq	%rbp
	retq
Ltmp1051:
LBB193_5:
	.loc	41 161 9
	movq	-232(%rbp), %rdi
	callq	__Unwind_Resume
LBB193_6:
	.loc	41 171 9
	jmp	LBB193_5
Ltmp1052:
Lfunc_end193:
	.cfi_endproc
	.section	__TEXT,__gcc_except_tab
	.p2align	2
GCC_except_table193:
Lexception32:
	.byte	255
	.byte	255
	.byte	1
	.uleb128 Lcst_end32-Lcst_begin32
Lcst_begin32:
	.uleb128 Ltmp1019-Lfunc_begin193
	.uleb128 Ltmp1020-Ltmp1019
	.uleb128 Ltmp1021-Lfunc_begin193
	.byte	0
	.uleb128 Ltmp1020-Lfunc_begin193
	.uleb128 Lfunc_end193-Ltmp1020
	.byte	0
	.byte	0
Lcst_end32:
	.p2align	2

	.section	__TEXT,__text,regular,pure_instructions
	.globl	__ZN53_$LT$T$u20$as$u20$core..convert..TryFrom$LT$U$GT$$GT$8try_from17hb84cc185b12b294cE
	.p2align	4, 0x90
__ZN53_$LT$T$u20$as$u20$core..convert..TryFrom$LT$U$GT$$GT$8try_from17hb84cc185b12b294cE:
Lfunc_begin194:
	.loc	39 781 0
	.cfi_startproc
	pushq	%rbp
	.cfi_def_cfa_offset 16
	.cfi_offset %rbp, -16
	movq	%rsp, %rbp
	.cfi_def_cfa_register %rbp
	subq	$16, %rsp
	movl	%edi, -4(%rbp)
Ltmp1053:
	.loc	39 782 12 prologue_end
	callq	__ZN50_$LT$T$u20$as$u20$core..convert..Into$LT$U$GT$$GT$4into17h2e0849652c9a198fE
	.loc	39 782 9 is_stmt 0
	movl	%eax, -8(%rbp)
	.loc	39 783 6 is_stmt 1
	movl	-8(%rbp), %eax
	addq	$16, %rsp
	popq	%rbp
	retq
Ltmp1054:
Lfunc_end194:
	.cfi_endproc

	.globl	__ZN53_$LT$T$u20$as$u20$core..convert..TryInto$LT$U$GT$$GT$8try_into17h537c5e34931b626dE
	.p2align	4, 0x90
__ZN53_$LT$T$u20$as$u20$core..convert..TryInto$LT$U$GT$$GT$8try_into17h537c5e34931b626dE:
Lfunc_begin195:
	.loc	39 766 0
	.cfi_startproc
	pushq	%rbp
	.cfi_def_cfa_offset 16
	.cfi_offset %rbp, -16
	movq	%rsp, %rbp
	.cfi_def_cfa_register %rbp
	subq	$16, %rsp
	movl	%edi, -4(%rbp)
Ltmp1055:
	.loc	39 767 9 prologue_end
	callq	__ZN53_$LT$T$u20$as$u20$core..convert..TryFrom$LT$U$GT$$GT$8try_from17hb84cc185b12b294cE
	.loc	39 768 6
	addq	$16, %rsp
	popq	%rbp
	retq
Ltmp1056:
Lfunc_end195:
	.cfi_endproc

	.p2align	4, 0x90
__ZN53_$LT$std..time..Instant$u20$as$u20$core..cmp..Ord$GT$3cmp17ha4fb7bc9b23796eaE:
Lfunc_begin196:
	.file	45 "/rustc/2c8cc343237b8f7d5a3c3703e3a87f2eb2c54a74/library/std/src" "time.rs"
	.loc	45 152 0
	.cfi_startproc
	pushq	%rbp
	.cfi_def_cfa_offset 16
	.cfi_offset %rbp, -16
	movq	%rsp, %rbp
	.cfi_def_cfa_register %rbp
	subq	$16, %rsp
	movq	%rdi, -16(%rbp)
	movq	%rsi, -8(%rbp)
Ltmp1057:
	.loc	45 154 20 prologue_end
	callq	__ZN71_$LT$std..sys..unix..time..inner..Instant$u20$as$u20$core..cmp..Ord$GT$3cmp17h0b63879df307dd22E
	.loc	45 152 53
	addq	$16, %rsp
	popq	%rbp
	retq
Ltmp1058:
Lfunc_end196:
	.cfi_endproc

	.globl	__ZN54_$LT$$BP$const$u20$T$u20$as$u20$core..fmt..Pointer$GT$3fmt17h7a02e10f32a8803dE
	.p2align	4, 0x90
__ZN54_$LT$$BP$const$u20$T$u20$as$u20$core..fmt..Pointer$GT$3fmt17h7a02e10f32a8803dE:
Lfunc_begin197:
	.loc	15 2478 0
	.cfi_startproc
	pushq	%rbp
	.cfi_def_cfa_offset 16
	.cfi_offset %rbp, -16
	movq	%rsp, %rbp
	.cfi_def_cfa_register %rbp
	subq	$32, %rsp
	movq	%rdi, -32(%rbp)
	movq	%rsi, -24(%rbp)
Ltmp1059:
	.loc	15 2480 28 prologue_end
	movq	(%rdi), %rdi
	.loc	15 2480 27 is_stmt 0
	movq	%rdi, -16(%rbp)
Ltmp1060:
	.loc	35 241 9 is_stmt 1
	movq	%rdi, -8(%rbp)
Ltmp1061:
	.loc	15 2480 9
	callq	__ZN4core3fmt17pointer_fmt_inner17hfee30366ae14be28E
	.loc	15 2481 6
	andb	$1, %al
	movzbl	%al, %eax
	addq	$32, %rsp
	popq	%rbp
	retq
Ltmp1062:
Lfunc_end197:
	.cfi_endproc

	.globl	__ZN54_$LT$$BP$const$u20$T$u20$as$u20$core..fmt..Pointer$GT$3fmt17h85a7f889cca82399E
	.p2align	4, 0x90
__ZN54_$LT$$BP$const$u20$T$u20$as$u20$core..fmt..Pointer$GT$3fmt17h85a7f889cca82399E:
Lfunc_begin198:
	.loc	15 2478 0
	.cfi_startproc
	pushq	%rbp
	.cfi_def_cfa_offset 16
	.cfi_offset %rbp, -16
	movq	%rsp, %rbp
	.cfi_def_cfa_register %rbp
	subq	$32, %rsp
	movq	%rdi, -32(%rbp)
	movq	%rsi, -24(%rbp)
Ltmp1063:
	.loc	15 2480 28 prologue_end
	movq	(%rdi), %rdi
	.loc	15 2480 27 is_stmt 0
	movq	%rdi, -16(%rbp)
Ltmp1064:
	.loc	35 241 9 is_stmt 1
	movq	%rdi, -8(%rbp)
Ltmp1065:
	.loc	15 2480 9
	callq	__ZN4core3fmt17pointer_fmt_inner17hfee30366ae14be28E
	.loc	15 2481 6
	andb	$1, %al
	movzbl	%al, %eax
	addq	$32, %rsp
	popq	%rbp
	retq
Ltmp1066:
Lfunc_end198:
	.cfi_endproc

	.p2align	4, 0x90
__ZN59_$LT$alloc..alloc..Global$u20$as$u20$core..clone..Clone$GT$5clone17ha40e03484a3167abE:
Lfunc_begin199:
	.file	46 "/rustc/2c8cc343237b8f7d5a3c3703e3a87f2eb2c54a74/library/alloc/src" "alloc.rs"
	.loc	46 53 0
	.cfi_startproc
	pushq	%rbp
	.cfi_def_cfa_offset 16
	.cfi_offset %rbp, -16
	movq	%rsp, %rbp
	.cfi_def_cfa_register %rbp
	pushq	%rax
	movq	%rdi, -8(%rbp)
Ltmp1067:
	.loc	46 53 21 prologue_end
	addq	$8, %rsp
	popq	%rbp
	retq
Ltmp1068:
Lfunc_end199:
	.cfi_endproc

	.globl	__ZN5alloc2rc11is_dangling17hbb4a9045ad27d08cE
	.p2align	4, 0x90
__ZN5alloc2rc11is_dangling17hbb4a9045ad27d08cE:
Lfunc_begin200:
	.file	47 "/rustc/2c8cc343237b8f7d5a3c3703e3a87f2eb2c54a74/library/alloc/src" "rc.rs"
	.loc	47 2221 0
	.cfi_startproc
	pushq	%rbp
	.cfi_def_cfa_offset 16
	.cfi_offset %rbp, -16
	movq	%rsp, %rbp
	.cfi_def_cfa_register %rbp
	subq	$32, %rsp
	movq	%rdi, -32(%rbp)
Ltmp1069:
	.loc	47 2222 5 prologue_end
	movq	%rdi, -24(%rbp)
Ltmp1070:
	.loc	38 215 33
	movq	%rdi, -16(%rbp)
	.loc	38 215 18 is_stmt 0
	movq	%rdi, -8(%rbp)
Ltmp1071:
	.loc	47 2222 5 is_stmt 1
	cmpq	$-1, -8(%rbp)
	sete	%al
	.loc	47 2223 2
	andb	$1, %al
	movzbl	%al, %eax
	addq	$32, %rsp
	popq	%rbp
	retq
Ltmp1072:
Lfunc_end200:
	.cfi_endproc

	.globl	__ZN5alloc3vec12Vec$LT$T$GT$13with_capacity17h0b24f562fccb3f36E
	.p2align	4, 0x90
__ZN5alloc3vec12Vec$LT$T$GT$13with_capacity17h0b24f562fccb3f36E:
Lfunc_begin201:
	.loc	42 482 0
	.cfi_startproc
	pushq	%rbp
	.cfi_def_cfa_offset 16
	.cfi_offset %rbp, -16
	movq	%rsp, %rbp
	.cfi_def_cfa_register %rbp
	subq	$80, %rsp
	movq	%rsi, -72(%rbp)
	movq	%rdi, %rax
	movq	-72(%rbp), %rdi
	movq	%rax, -64(%rbp)
	movq	%rax, -56(%rbp)
	movq	%rdi, -40(%rbp)
Ltmp1073:
	.loc	42 483 32 prologue_end
	movq	%rdi, -16(%rbp)
Ltmp1074:
	.loc	42 676 45
	movq	%rdi, -8(%rbp)
Ltmp1075:
	.loc	43 131 37
	movb	$0, -41(%rbp)
	.loc	43 131 9 is_stmt 0
	movb	-41(%rbp), %al
	andb	$1, %al
	movzbl	%al, %esi
	callq	__ZN5alloc7raw_vec19RawVec$LT$T$C$A$GT$11allocate_in17h3dcba7178091277bE
	movq	-64(%rbp), %rdi
	movq	%rax, %rcx
	movq	-56(%rbp), %rax
Ltmp1076:
	.loc	42 676 9 is_stmt 1
	movq	%rcx, (%rdi)
	movq	%rdx, 8(%rdi)
	movq	$0, 16(%rdi)
Ltmp1077:
	.loc	42 484 6
	addq	$80, %rsp
	popq	%rbp
	retq
Ltmp1078:
Lfunc_end201:
	.cfi_endproc

	.globl	__ZN5alloc3vec16Vec$LT$T$C$A$GT$11swap_remove17he940307315255aa1E
	.p2align	4, 0x90
__ZN5alloc3vec16Vec$LT$T$C$A$GT$11swap_remove17he940307315255aa1E:
Lfunc_begin202:
	.loc	42 1406 0
	.cfi_startproc
	pushq	%rbp
	.cfi_def_cfa_offset 16
	.cfi_offset %rbp, -16
	movq	%rsp, %rbp
	.cfi_def_cfa_register %rbp
	subq	$560, %rsp
	movq	%rdx, -528(%rbp)
	movq	%rsi, -520(%rbp)
	movq	%rdi, -512(%rbp)
	movq	%rdi, -504(%rbp)
	movq	%rsi, -376(%rbp)
	movq	%rdx, -368(%rbp)
Ltmp1079:
	.loc	42 1413 19 prologue_end
	movq	%rsi, -360(%rbp)
Ltmp1080:
	.loc	42 2062 9
	movq	16(%rsi), %rax
	movq	%rax, -496(%rbp)
	movq	%rax, -352(%rbp)
Ltmp1081:
	.loc	42 1414 12
	cmpq	%rax, %rdx
	jae	LBB202_2
Ltmp1082:
	.loc	42 0 12 is_stmt 0
	movq	-520(%rbp), %rax
	movq	-512(%rbp), %rcx
	movq	-528(%rbp), %rsi
	.loc	42 1421 35 is_stmt 1
	movq	%rax, -344(%rbp)
Ltmp1083:
	.loc	42 1243 19
	movq	%rax, -336(%rbp)
Ltmp1084:
	.loc	43 224 9
	movq	8(%rax), %rdx
	movq	%rdx, -544(%rbp)
	movq	%rdx, -328(%rbp)
Ltmp1085:
	.loc	44 104 9
	movq	%rdx, -320(%rbp)
Ltmp1086:
	.loc	37 326 9
	movq	%rdx, -312(%rbp)
Ltmp1087:
	.loc	42 1245 21
	movq	%rdx, -304(%rbp)
Ltmp1088:
	.loc	38 52 36
	movq	%rdx, -488(%rbp)
	.loc	38 52 18 is_stmt 0
	movq	-488(%rbp), %rdi
	movq	%rdi, -296(%rbp)
Ltmp1089:
	.loc	38 38 13 is_stmt 1
	movq	%rdi, -288(%rbp)
Ltmp1090:
	.loc	38 215 33
	movq	%rdi, -280(%rbp)
	.loc	38 215 18 is_stmt 0
	movq	%rdi, -272(%rbp)
Ltmp1091:
	.loc	42 1247 9 is_stmt 1
	movq	%rdx, -264(%rbp)
Ltmp1092:
	.loc	42 1421 53
	movq	%rsi, -256(%rbp)
Ltmp1093:
	.loc	35 932 18
	movq	%rdx, -248(%rbp)
	.loc	35 932 30 is_stmt 0
	movq	%rsi, -240(%rbp)
Ltmp1094:
	.loc	35 473 18 is_stmt 1
	shlq	$5, %rsi
	addq	%rsi, %rdx
	movq	%rdx, -232(%rbp)
	movq	-232(%rbp), %rdx
	movq	%rdx, -224(%rbp)
Ltmp1095:
	.loc	18 1157 34
	leaq	-480(%rbp), %rsi
	movq	%rsi, -216(%rbp)
	.loc	18 1157 9 is_stmt 0
	movq	(%rdx), %rsi
	movq	%rsi, -480(%rbp)
	movq	8(%rdx), %rsi
	movq	%rsi, -472(%rbp)
	movq	16(%rdx), %rsi
	movq	%rsi, -464(%rbp)
	movq	24(%rdx), %rdx
	movq	%rdx, -456(%rbp)
	.loc	18 1158 9 is_stmt 1
	movq	-480(%rbp), %rdx
	movq	%rdx, -448(%rbp)
	movq	-472(%rbp), %rdx
	movq	%rdx, -440(%rbp)
	movq	-464(%rbp), %rdx
	movq	%rdx, -432(%rbp)
	movq	-456(%rbp), %rdx
	movq	%rdx, -424(%rbp)
Ltmp1096:
	.loc	7 627 38
	movq	-448(%rbp), %rdx
	movq	%rdx, -416(%rbp)
	movq	-440(%rbp), %rdx
	movq	%rdx, -408(%rbp)
	movq	-432(%rbp), %rdx
	movq	%rdx, -400(%rbp)
	movq	-424(%rbp), %rdx
	movq	%rdx, -392(%rbp)
Ltmp1097:
	.loc	8 89 9
	movq	-416(%rbp), %rdx
	movq	%rdx, (%rcx)
	movq	-408(%rbp), %rdx
	movq	%rdx, 8(%rcx)
	movq	-400(%rbp), %rdx
	movq	%rdx, 16(%rcx)
	movq	-392(%rbp), %rdx
	movq	%rdx, 24(%rcx)
Ltmp1098:
	.loc	42 1422 28
	movq	%rax, -208(%rbp)
Ltmp1099:
	.loc	42 1280 19
	movq	%rax, -200(%rbp)
Ltmp1100:
	.loc	43 224 9
	movq	8(%rax), %rax
	movq	%rax, -536(%rbp)
	movq	%rax, -192(%rbp)
Ltmp1101:
	.loc	44 104 9
	movq	%rax, -184(%rbp)
Ltmp1102:
	.loc	37 326 9
	movq	%rax, -176(%rbp)
Ltmp1103:
	.loc	42 1282 21
	movq	%rax, -168(%rbp)
Ltmp1104:
	.loc	38 52 36
	movq	%rax, -384(%rbp)
	.loc	38 52 18 is_stmt 0
	movq	-384(%rbp), %rax
	movq	%rax, -160(%rbp)
Ltmp1105:
	.loc	38 38 13 is_stmt 1
	movq	%rax, -152(%rbp)
Ltmp1106:
	.loc	38 215 33
	movq	%rax, -144(%rbp)
	.loc	38 215 18 is_stmt 0
	movq	%rax, -136(%rbp)
	movq	-136(%rbp), %rax
	jmp	LBB202_3
Ltmp1107:
LBB202_2:
	.loc	38 0 18
	movq	-496(%rbp), %rsi
	movq	-528(%rbp), %rdi
	.loc	42 1415 13 is_stmt 1
	callq	__ZN5alloc3vec16Vec$LT$T$C$A$GT$11swap_remove13assert_failed17h37de3b22857880d4E
LBB202_3:
Ltmp1108:
	.loc	42 0 13 is_stmt 0
	movq	-536(%rbp), %rax
	movq	-496(%rbp), %rcx
Ltmp1109:
	.loc	42 1423 23 is_stmt 1
	movq	%rax, -128(%rbp)
	.loc	42 1423 36 is_stmt 0
	subq	$1, %rcx
	movq	%rcx, -120(%rbp)
Ltmp1110:
	.loc	38 1034 18 is_stmt 1
	movq	%rax, -112(%rbp)
	.loc	38 1034 30 is_stmt 0
	movq	%rcx, -104(%rbp)
Ltmp1111:
	.loc	38 487 18 is_stmt 1
	shlq	$5, %rcx
	addq	%rcx, %rax
	movq	%rax, -96(%rbp)
	movq	-96(%rbp), %rax
	movq	%rax, -552(%rbp)
Ltmp1112:
	.loc	38 0 18 is_stmt 0
	movq	-536(%rbp), %rax
	movq	-528(%rbp), %rcx
	movq	-552(%rbp), %rdx
	.loc	42 1423 23 is_stmt 1
	movq	%rdx, -88(%rbp)
	.loc	42 1423 46 is_stmt 0
	movq	%rax, -80(%rbp)
	.loc	42 1423 59
	movq	%rcx, -72(%rbp)
Ltmp1113:
	.loc	38 1034 18 is_stmt 1
	movq	%rax, -64(%rbp)
	.loc	38 1034 30 is_stmt 0
	movq	%rcx, -56(%rbp)
Ltmp1114:
	.loc	38 487 18 is_stmt 1
	shlq	$5, %rcx
	addq	%rcx, %rax
	movq	%rax, -48(%rbp)
	movq	-48(%rbp), %rax
	movq	%rax, -560(%rbp)
Ltmp1115:
	.loc	38 0 18 is_stmt 0
	movq	-560(%rbp), %rax
	movq	-552(%rbp), %rdi
	.loc	38 487 18
	movq	%rax, -40(%rbp)
Ltmp1116:
	.loc	25 2458 9 is_stmt 1
	movq	(%rdi), %rcx
	movq	8(%rdi), %rdx
	movq	16(%rdi), %rsi
	movq	24(%rdi), %rdi
	movq	%rdi, 24(%rax)
	movq	%rsi, 16(%rax)
	movq	%rdx, 8(%rax)
	movq	%rcx, (%rax)
Ltmp1117:
	.loc	25 0 9 is_stmt 0
	movq	-504(%rbp), %rax
	movq	-520(%rbp), %rcx
	movq	-496(%rbp), %rdx
	.loc	42 1424 13 is_stmt 1
	movq	%rcx, -16(%rbp)
	.loc	42 1424 26 is_stmt 0
	subq	$1, %rdx
	movq	%rdx, -8(%rbp)
Ltmp1118:
	.loc	42 1377 9 is_stmt 1
	movq	%rdx, 16(%rcx)
Ltmp1119:
	.loc	42 1427 6
	addq	$560, %rsp
	popq	%rbp
	retq
Ltmp1120:
Lfunc_end202:
	.cfi_endproc

	.globl	__ZN5alloc3vec16Vec$LT$T$C$A$GT$8is_empty17haff426fe99b1b3aaE
	.p2align	4, 0x90
__ZN5alloc3vec16Vec$LT$T$C$A$GT$8is_empty17haff426fe99b1b3aaE:
Lfunc_begin203:
	.loc	42 2077 0
	.cfi_startproc
	pushq	%rbp
	.cfi_def_cfa_offset 16
	.cfi_offset %rbp, -16
	movq	%rsp, %rbp
	.cfi_def_cfa_register %rbp
	subq	$16, %rsp
	movq	%rdi, -16(%rbp)
Ltmp1121:
	.loc	42 2078 9 prologue_end
	movq	%rdi, -8(%rbp)
	cmpq	$0, 16(%rdi)
	sete	%al
	.loc	42 2079 6
	andb	$1, %al
	movzbl	%al, %eax
	addq	$16, %rsp
	popq	%rbp
	retq
Ltmp1122:
Lfunc_end203:
	.cfi_endproc

	.globl	__ZN5alloc4sync12Arc$LT$T$GT$10from_inner17h67d4635a2b30f45aE
	.p2align	4, 0x90
__ZN5alloc4sync12Arc$LT$T$GT$10from_inner17h67d4635a2b30f45aE:
Lfunc_begin204:
	.file	48 "/rustc/2c8cc343237b8f7d5a3c3703e3a87f2eb2c54a74/library/alloc/src" "sync.rs"
	.loc	48 264 0
	.cfi_startproc
	pushq	%rbp
	.cfi_def_cfa_offset 16
	.cfi_offset %rbp, -16
	movq	%rsp, %rbp
	.cfi_def_cfa_register %rbp
	subq	$16, %rsp
	movq	%rdi, -8(%rbp)
Ltmp1123:
	.loc	48 265 9 prologue_end
	movq	%rdi, -16(%rbp)
	.loc	48 266 6
	movq	-16(%rbp), %rax
	addq	$16, %rsp
	popq	%rbp
	retq
Ltmp1124:
Lfunc_end204:
	.cfi_endproc

	.globl	__ZN5alloc4sync12Arc$LT$T$GT$10from_inner17habe239be8294f2bcE
	.p2align	4, 0x90
__ZN5alloc4sync12Arc$LT$T$GT$10from_inner17habe239be8294f2bcE:
Lfunc_begin205:
	.loc	48 264 0
	.cfi_startproc
	pushq	%rbp
	.cfi_def_cfa_offset 16
	.cfi_offset %rbp, -16
	movq	%rsp, %rbp
	.cfi_def_cfa_register %rbp
	subq	$16, %rsp
	movq	%rdi, -8(%rbp)
Ltmp1125:
	.loc	48 265 9 prologue_end
	movq	%rdi, -16(%rbp)
	.loc	48 266 6
	movq	-16(%rbp), %rax
	addq	$16, %rsp
	popq	%rbp
	retq
Ltmp1126:
Lfunc_end205:
	.cfi_endproc

	.globl	__ZN5alloc4sync12Arc$LT$T$GT$10from_inner17hf93e398705f8ed09E
	.p2align	4, 0x90
__ZN5alloc4sync12Arc$LT$T$GT$10from_inner17hf93e398705f8ed09E:
Lfunc_begin206:
	.loc	48 264 0
	.cfi_startproc
	pushq	%rbp
	.cfi_def_cfa_offset 16
	.cfi_offset %rbp, -16
	movq	%rsp, %rbp
	.cfi_def_cfa_register %rbp
	subq	$16, %rsp
	movq	%rdi, -8(%rbp)
Ltmp1127:
	.loc	48 265 9 prologue_end
	movq	%rdi, -16(%rbp)
	.loc	48 266 6
	movq	-16(%rbp), %rax
	addq	$16, %rsp
	popq	%rbp
	retq
Ltmp1128:
Lfunc_end206:
	.cfi_endproc

	.globl	__ZN5alloc4sync12Arc$LT$T$GT$3new17h2fe4b2977268ac24E
	.p2align	4, 0x90
__ZN5alloc4sync12Arc$LT$T$GT$3new17h2fe4b2977268ac24E:
Lfunc_begin207:
	.loc	48 361 0
	.cfi_startproc
	.cfi_personality 155, _rust_eh_personality
	.cfi_lsda 16, Lexception33
	pushq	%rbp
	.cfi_def_cfa_offset 16
	.cfi_offset %rbp, -16
	movq	%rsp, %rbp
	.cfi_def_cfa_register %rbp
	subq	$192, %rsp
	movq	%rdi, -168(%rbp)
Ltmp1142:
	.loc	28 1957 17 prologue_end
	movq	$1, -112(%rbp)
Ltmp1143:
	.loc	28 1957 17 is_stmt 0
	movq	$1, -104(%rbp)
Ltmp1144:
	.loc	48 367 13 is_stmt 1
	movq	16(%rdi), %rax
	movq	%rax, -80(%rbp)
	movq	(%rdi), %rax
	movq	8(%rdi), %rcx
	movq	%rcx, -88(%rbp)
	movq	%rax, -96(%rbp)
	.loc	48 364 34
	movq	-112(%rbp), %rax
	movq	%rax, -152(%rbp)
	movq	-104(%rbp), %rax
	movq	%rax, -144(%rbp)
	movq	-80(%rbp), %rax
	movq	%rax, -120(%rbp)
	movq	-96(%rbp), %rax
	movq	-88(%rbp), %rcx
	movq	%rcx, -128(%rbp)
	movq	%rax, -136(%rbp)
Ltmp1129:
	movl	$40, %edi
Ltmp1145:
	.loc	48 0 34 is_stmt 0
	movl	$8, %esi
Ltmp1146:
	.file	49 "/rustc/2c8cc343237b8f7d5a3c3703e3a87f2eb2c54a74/library/alloc/src" "boxed.rs"
	.loc	49 219 9 is_stmt 1
	callq	__ZN5alloc5alloc15exchange_malloc17he7b214a73d78a5cbE
Ltmp1130:
	movq	%rax, -160(%rbp)
Ltmp1147:
	jmp	LBB207_3
Ltmp1148:
LBB207_1:
Ltmp1132:
	.loc	49 0 9 is_stmt 0
	leaq	-152(%rbp), %rdi
	.loc	49 220 5 is_stmt 1
	callq	__ZN4core3ptr91drop_in_place$LT$alloc..sync..ArcInner$LT$crossbeam_channel..flavors..tick..Channel$GT$$GT$17h723708f1e825a4c5E
Ltmp1133:
	jmp	LBB207_5
Ltmp1149:
LBB207_2:
Ltmp1131:
	.loc	49 0 5 is_stmt 0
	movq	%rax, %rcx
	movl	%edx, %eax
	movq	%rcx, -64(%rbp)
	movl	%eax, -56(%rbp)
	jmp	LBB207_1
Ltmp1150:
LBB207_3:
	movq	-160(%rbp), %rax
	.loc	49 219 9 is_stmt 1
	movq	%rax, -48(%rbp)
	.loc	49 219 18 is_stmt 0
	movq	-120(%rbp), %rcx
	movq	%rcx, 32(%rax)
	movq	-128(%rbp), %rcx
	movq	%rcx, 24(%rax)
	movq	-136(%rbp), %rcx
	movq	%rcx, 16(%rax)
	movq	-152(%rbp), %rcx
	movq	-144(%rbp), %rdx
	movq	%rdx, 8(%rax)
	movq	%rcx, (%rax)
Ltmp1151:
	.loc	48 369 45 is_stmt 1
	movq	%rax, -40(%rbp)
Ltmp1152:
	.loc	49 1188 47
	movq	%rax, -32(%rbp)
Ltmp1153:
	.loc	8 71 9
	movq	%rax, -72(%rbp)
	leaq	-72(%rbp), %rax
Ltmp1154:
	.loc	49 1188 24
	movq	%rax, -24(%rbp)
	movq	-72(%rbp), %rdi
	movq	%rdi, -16(%rbp)
Ltmp1155:
	.loc	44 104 9
	movq	%rdi, -8(%rbp)
Ltmp1156:
Ltmp1134:
	.loc	48 369 35
	callq	__ZN50_$LT$T$u20$as$u20$core..convert..Into$LT$U$GT$$GT$4into17hd20873ebd98e7bc0E
Ltmp1135:
	movq	%rax, -176(%rbp)
	jmp	LBB207_7
Ltmp1157:
LBB207_4:
Ltmp1141:
	.loc	48 361 5
	callq	__ZN4core9panicking19panic_cannot_unwind17h1fbca7e1d7f56ae1E
Ltmp1158:
LBB207_5:
	.loc	48 370 5
	xorl	%eax, %eax
	testb	$1, %al
	jne	LBB207_10
	jmp	LBB207_9
Ltmp1159:
LBB207_6:
Ltmp1138:
	.loc	48 0 5 is_stmt 0
	movq	%rax, %rcx
	movl	%edx, %eax
	movq	%rcx, -64(%rbp)
	movl	%eax, -56(%rbp)
	jmp	LBB207_5
Ltmp1160:
LBB207_7:
Ltmp1136:
	movq	-176(%rbp), %rdi
Ltmp1161:
	.loc	48 369 18 is_stmt 1
	callq	__ZN5alloc4sync12Arc$LT$T$GT$10from_inner17habe239be8294f2bcE
Ltmp1137:
	movq	%rax, -184(%rbp)
	jmp	LBB207_8
Ltmp1162:
LBB207_8:
	.loc	48 0 18 is_stmt 0
	movq	-184(%rbp), %rax
	.loc	48 370 6 is_stmt 1
	addq	$192, %rsp
	popq	%rbp
	retq
Ltmp1163:
LBB207_9:
	.loc	48 361 5
	movq	-64(%rbp), %rdi
	callq	__Unwind_Resume
Ltmp1164:
LBB207_10:
Ltmp1139:
	.loc	48 0 5 is_stmt 0
	movq	-168(%rbp), %rdi
	.loc	48 370 5 is_stmt 1
	callq	__ZN4core3ptr62drop_in_place$LT$crossbeam_channel..flavors..tick..Channel$GT$17ha7f09c4b7e6b7cd3E
Ltmp1140:
	jmp	LBB207_9
Ltmp1165:
Lfunc_end207:
	.cfi_endproc
	.section	__TEXT,__gcc_except_tab
	.p2align	2
GCC_except_table207:
Lexception33:
	.byte	255
	.byte	255
	.byte	1
	.uleb128 Lcst_end33-Lcst_begin33
Lcst_begin33:
	.uleb128 Ltmp1129-Lfunc_begin207
	.uleb128 Ltmp1130-Ltmp1129
	.uleb128 Ltmp1131-Lfunc_begin207
	.byte	0
	.uleb128 Ltmp1132-Lfunc_begin207
	.uleb128 Ltmp1133-Ltmp1132
	.uleb128 Ltmp1141-Lfunc_begin207
	.byte	0
	.uleb128 Ltmp1134-Lfunc_begin207
	.uleb128 Ltmp1137-Ltmp1134
	.uleb128 Ltmp1138-Lfunc_begin207
	.byte	0
	.uleb128 Ltmp1137-Lfunc_begin207
	.uleb128 Ltmp1139-Ltmp1137
	.byte	0
	.byte	0
	.uleb128 Ltmp1139-Lfunc_begin207
	.uleb128 Ltmp1140-Ltmp1139
	.uleb128 Ltmp1141-Lfunc_begin207
	.byte	0
Lcst_end33:
	.p2align	2

	.section	__TEXT,__text,regular,pure_instructions
	.globl	__ZN5alloc4sync12Arc$LT$T$GT$3new17h48ac772c4908e199E
	.p2align	4, 0x90
__ZN5alloc4sync12Arc$LT$T$GT$3new17h48ac772c4908e199E:
Lfunc_begin208:
	.loc	48 361 0
	.cfi_startproc
	.cfi_personality 155, _rust_eh_personality
	.cfi_lsda 16, Lexception34
	pushq	%rbp
	.cfi_def_cfa_offset 16
	.cfi_offset %rbp, -16
	movq	%rsp, %rbp
	.cfi_def_cfa_register %rbp
	subq	$208, %rsp
	movq	%rdi, -184(%rbp)
Ltmp1179:
	.loc	28 1957 17 prologue_end
	movq	$1, -120(%rbp)
Ltmp1180:
	.loc	28 1957 17 is_stmt 0
	movq	$1, -112(%rbp)
Ltmp1181:
	.loc	48 367 13 is_stmt 1
	movq	24(%rdi), %rax
	movq	%rax, -80(%rbp)
	movq	16(%rdi), %rax
	movq	%rax, -88(%rbp)
	movq	(%rdi), %rax
	movq	8(%rdi), %rcx
	movq	%rcx, -96(%rbp)
	movq	%rax, -104(%rbp)
	.loc	48 364 34
	movq	-120(%rbp), %rax
	movq	%rax, -168(%rbp)
	movq	-112(%rbp), %rax
	movq	%rax, -160(%rbp)
	movq	-80(%rbp), %rax
	movq	%rax, -128(%rbp)
	movq	-88(%rbp), %rax
	movq	%rax, -136(%rbp)
	movq	-104(%rbp), %rax
	movq	-96(%rbp), %rcx
	movq	%rcx, -144(%rbp)
	movq	%rax, -152(%rbp)
Ltmp1166:
	movl	$48, %edi
Ltmp1182:
	.loc	48 0 34 is_stmt 0
	movl	$8, %esi
Ltmp1183:
	.loc	49 219 9 is_stmt 1
	callq	__ZN5alloc5alloc15exchange_malloc17he7b214a73d78a5cbE
Ltmp1167:
	movq	%rax, -176(%rbp)
Ltmp1184:
	jmp	LBB208_3
Ltmp1185:
LBB208_1:
Ltmp1169:
	.loc	49 0 9 is_stmt 0
	leaq	-168(%rbp), %rdi
	.loc	49 220 5 is_stmt 1
	callq	__ZN4core3ptr83drop_in_place$LT$alloc..sync..ArcInner$LT$crossbeam_channel..context..Inner$GT$$GT$17he02bee2fb6dd7d1aE
Ltmp1170:
	jmp	LBB208_5
Ltmp1186:
LBB208_2:
Ltmp1168:
	.loc	49 0 5 is_stmt 0
	movq	%rax, %rcx
	movl	%edx, %eax
	movq	%rcx, -64(%rbp)
	movl	%eax, -56(%rbp)
	jmp	LBB208_1
Ltmp1187:
LBB208_3:
	movq	-176(%rbp), %rax
	.loc	49 219 9 is_stmt 1
	movq	%rax, -48(%rbp)
	.loc	49 219 18 is_stmt 0
	movq	-128(%rbp), %rcx
	movq	%rcx, 40(%rax)
	movq	-136(%rbp), %rcx
	movq	%rcx, 32(%rax)
	movq	-144(%rbp), %rcx
	movq	%rcx, 24(%rax)
	movq	-152(%rbp), %rcx
	movq	%rcx, 16(%rax)
	movq	-168(%rbp), %rcx
	movq	-160(%rbp), %rdx
	movq	%rdx, 8(%rax)
	movq	%rcx, (%rax)
Ltmp1188:
	.loc	48 369 45 is_stmt 1
	movq	%rax, -40(%rbp)
Ltmp1189:
	.loc	49 1188 47
	movq	%rax, -32(%rbp)
Ltmp1190:
	.loc	8 71 9
	movq	%rax, -72(%rbp)
	leaq	-72(%rbp), %rax
Ltmp1191:
	.loc	49 1188 24
	movq	%rax, -24(%rbp)
	movq	-72(%rbp), %rdi
	movq	%rdi, -16(%rbp)
Ltmp1192:
	.loc	44 104 9
	movq	%rdi, -8(%rbp)
Ltmp1193:
Ltmp1171:
	.loc	48 369 35
	callq	__ZN50_$LT$T$u20$as$u20$core..convert..Into$LT$U$GT$$GT$4into17h3f13450d0a5c26cdE
Ltmp1172:
	movq	%rax, -192(%rbp)
	jmp	LBB208_7
Ltmp1194:
LBB208_4:
Ltmp1178:
	.loc	48 361 5
	callq	__ZN4core9panicking19panic_cannot_unwind17h1fbca7e1d7f56ae1E
Ltmp1195:
LBB208_5:
	.loc	48 370 5
	xorl	%eax, %eax
	testb	$1, %al
	jne	LBB208_10
	jmp	LBB208_9
Ltmp1196:
LBB208_6:
Ltmp1175:
	.loc	48 0 5 is_stmt 0
	movq	%rax, %rcx
	movl	%edx, %eax
	movq	%rcx, -64(%rbp)
	movl	%eax, -56(%rbp)
	jmp	LBB208_5
Ltmp1197:
LBB208_7:
Ltmp1173:
	movq	-192(%rbp), %rdi
Ltmp1198:
	.loc	48 369 18 is_stmt 1
	callq	__ZN5alloc4sync12Arc$LT$T$GT$10from_inner17h67d4635a2b30f45aE
Ltmp1174:
	movq	%rax, -200(%rbp)
	jmp	LBB208_8
Ltmp1199:
LBB208_8:
	.loc	48 0 18 is_stmt 0
	movq	-200(%rbp), %rax
	.loc	48 370 6 is_stmt 1
	addq	$208, %rsp
	popq	%rbp
	retq
Ltmp1200:
LBB208_9:
	.loc	48 361 5
	movq	-64(%rbp), %rdi
	callq	__Unwind_Resume
Ltmp1201:
LBB208_10:
Ltmp1176:
	.loc	48 0 5 is_stmt 0
	movq	-184(%rbp), %rdi
