	.section	__TEXT,__text,regular,pure_instructions
	.macosx_version_min 10, 7
	.file	1 "/Users/natalie/.cargo/registry/src/github.com-1ecc6299db9ec823/dispatch-0.2.0" "src/ffi.rs"
	.globl	__ZN106_$LT$core..ops..range..Range$LT$usize$GT$$u20$as$u20$core..slice..index..SliceIndex$LT$$u5b$T$u5d$$GT$$GT$13get_unchecked17hd6037916460496beE
	.p2align	4, 0x90
__ZN106_$LT$core..ops..range..Range$LT$usize$GT$$u20$as$u20$core..slice..index..SliceIndex$LT$$u5b$T$u5d$$GT$$GT$13get_unchecked17hd6037916460496beE:
Lfunc_begin0:
	.file	2 "/rustc/2c8cc343237b8f7d5a3c3703e3a87f2eb2c54a74/library/core/src/slice" "index.rs"
	.loc	2 373 0
	.cfi_startproc
	pushq	%rbp
	.cfi_def_cfa_offset 16
	.cfi_offset %rbp, -16
	movq	%rsp, %rbp
	.cfi_def_cfa_register %rbp
	subq	$160, %rsp
	movq	%rdi, -128(%rbp)
	movq	%rsi, -120(%rbp)
	movq	%rdx, -112(%rbp)
	movq	%rcx, -104(%rbp)
Ltmp0:
	.loc	2 386 39 prologue_end
	movq	%rdx, -96(%rbp)
	movq	%rcx, -88(%rbp)
Ltmp1:
	.file	3 "/rustc/2c8cc343237b8f7d5a3c3703e3a87f2eb2c54a74/library/core/src/ptr" "const_ptr.rs"
	.loc	3 1650 9
	movq	%rdx, -80(%rbp)
Ltmp2:
	.loc	2 386 58
	movq	%rdi, -72(%rbp)
Ltmp3:
	.loc	3 932 18
	movq	%rdx, -64(%rbp)
	.loc	3 932 30 is_stmt 0
	movq	%rdi, -56(%rbp)
Ltmp4:
	.loc	3 473 18 is_stmt 1
	addq	%rdi, %rdx
	movq	%rdx, -48(%rbp)
	movq	-48(%rbp), %rax
	movq	%rax, -40(%rbp)
Ltmp5:
	.loc	2 386 71
	subq	%rdi, %rsi
	movq	%rsi, -32(%rbp)
Ltmp6:
	.file	4 "/rustc/2c8cc343237b8f7d5a3c3703e3a87f2eb2c54a74/library/core/src/ptr" "mod.rs"
	.loc	4 734 20
	movq	%rax, -24(%rbp)
Ltmp7:
	.loc	3 61 9
	movq	%rax, -16(%rbp)
Ltmp8:
	.loc	4 734 33
	movq	%rsi, -8(%rbp)
Ltmp9:
	.file	5 "/rustc/2c8cc343237b8f7d5a3c3703e3a87f2eb2c54a74/library/core/src/ptr" "metadata.rs"
	.loc	5 118 36
	movq	%rax, -144(%rbp)
	movq	%rsi, -136(%rbp)
	.loc	5 118 14 is_stmt 0
	movq	-144(%rbp), %rcx
	movq	-136(%rbp), %rax
	movq	%rcx, -160(%rbp)
	movq	%rax, -152(%rbp)
	movq	-160(%rbp), %rax
	movq	-152(%rbp), %rdx
Ltmp10:
	.loc	2 388 6 is_stmt 1
	addq	$160, %rsp
	popq	%rbp
	retq
Ltmp11:
Lfunc_end0:
	.cfi_endproc

	.globl	__ZN119_$LT$core..ptr..non_null..NonNull$LT$T$GT$$u20$as$u20$core..convert..From$LT$core..ptr..unique..Unique$LT$T$GT$$GT$$GT$4from17ha90dc6ced8a67283E
	.p2align	4, 0x90
__ZN119_$LT$core..ptr..non_null..NonNull$LT$T$GT$$u20$as$u20$core..convert..From$LT$core..ptr..unique..Unique$LT$T$GT$$GT$$GT$4from17ha90dc6ced8a67283E:
Lfunc_begin1:
	.file	6 "/rustc/2c8cc343237b8f7d5a3c3703e3a87f2eb2c54a74/library/core/src/ptr" "non_null.rs"
	.loc	6 765 0
	.cfi_startproc
	pushq	%rbp
	.cfi_def_cfa_offset 16
	.cfi_offset %rbp, -16
	movq	%rsp, %rbp
	.cfi_def_cfa_register %rbp
	subq	$40, %rsp
	movq	%rdi, -32(%rbp)
Ltmp12:
	.loc	6 768 41 prologue_end
	movq	%rdi, -24(%rbp)
Ltmp13:
	.file	7 "/rustc/2c8cc343237b8f7d5a3c3703e3a87f2eb2c54a74/library/core/src/ptr" "unique.rs"
	.loc	7 104 9
	movq	%rdi, -16(%rbp)
Ltmp14:
	.loc	6 326 9
	movq	%rdi, -8(%rbp)
Ltmp15:
	.loc	6 201 13
	movq	%rdi, -40(%rbp)
Ltmp16:
	.loc	6 769 6
	movq	-40(%rbp), %rax
	addq	$40, %rsp
	popq	%rbp
	retq
Ltmp17:
Lfunc_end1:
	.cfi_endproc

	.globl	__ZN153_$LT$core..result..Result$LT$T$C$F$GT$$u20$as$u20$core..ops..try_trait..FromResidual$LT$core..result..Result$LT$core..convert..Infallible$C$E$GT$$GT$$GT$13from_residual17h31e416d136dc83efE
	.p2align	4, 0x90
__ZN153_$LT$core..result..Result$LT$T$C$F$GT$$u20$as$u20$core..ops..try_trait..FromResidual$LT$core..result..Result$LT$core..convert..Infallible$C$E$GT$$GT$$GT$13from_residual17h31e416d136dc83efE:
Lfunc_begin2:
	.file	8 "/rustc/2c8cc343237b8f7d5a3c3703e3a87f2eb2c54a74/library/core/src" "result.rs"
	.loc	8 2105 0
	.cfi_startproc
	pushq	%rbp
	.cfi_def_cfa_offset 16
	.cfi_offset %rbp, -16
	movq	%rsp, %rbp
	.cfi_def_cfa_register %rbp
	subq	$48, %rsp
	movq	%rdi, %rax
	movq	%rsi, -48(%rbp)
	movl	%edx, -40(%rbp)
Ltmp18:
	.loc	8 2107 17 prologue_end
	movq	-48(%rbp), %rdx
	movl	-40(%rbp), %ecx
	movq	%rdx, -32(%rbp)
	movl	%ecx, -24(%rbp)
	movq	%rdx, -16(%rbp)
	movl	%ecx, -8(%rbp)
Ltmp19:
	.loc	8 2107 23 is_stmt 0
	movq	%rdx, (%rdi)
	movl	%ecx, 8(%rdi)
Ltmp20:
	.loc	8 2109 6 is_stmt 1
	addq	$48, %rsp
	popq	%rbp
	retq
Ltmp21:
Lfunc_end2:
	.cfi_endproc

	.globl	__ZN36_$LT$T$u20$as$u20$core..any..Any$GT$7type_id17h57e3bd6b5d366e4cE
	.p2align	4, 0x90
__ZN36_$LT$T$u20$as$u20$core..any..Any$GT$7type_id17h57e3bd6b5d366e4cE:
Lfunc_begin3:
	.file	9 "/rustc/2c8cc343237b8f7d5a3c3703e3a87f2eb2c54a74/library/core/src" "any.rs"
	.loc	9 201 0
	.cfi_startproc
	pushq	%rbp
	.cfi_def_cfa_offset 16
	.cfi_offset %rbp, -16
	movq	%rsp, %rbp
	.cfi_def_cfa_register %rbp
	subq	$16, %rsp
	movq	%rdi, -8(%rbp)
Ltmp22:
	.loc	9 202 9 prologue_end
	callq	__ZN4core3any6TypeId2of17ha0a2b1a60663fd46E
	.loc	9 203 6
	addq	$16, %rsp
	popq	%rbp
	retq
Ltmp23:
Lfunc_end3:
	.cfi_endproc

	.globl	__ZN3std10sys_common9backtrace26__rust_end_short_backtrace17hb9d1e24e336af56fE
	.p2align	4, 0x90
__ZN3std10sys_common9backtrace26__rust_end_short_backtrace17hb9d1e24e336af56fE:
Lfunc_begin4:
	.file	10 "/rustc/2c8cc343237b8f7d5a3c3703e3a87f2eb2c54a74/library/std/src/sys_common" "backtrace.rs"
	.loc	10 133 0
	.cfi_startproc
	pushq	%rbp
	.cfi_def_cfa_offset 16
	.cfi_offset %rbp, -16
	movq	%rsp, %rbp
	.cfi_def_cfa_register %rbp
	subq	$64, %rsp
Ltmp24:
	.loc	10 137 18 prologue_end
	movq	(%rdi), %rax
	movq	%rax, -56(%rbp)
	movq	8(%rdi), %rax
	movq	%rax, -48(%rbp)
	movq	16(%rdi), %rax
	movq	%rax, -40(%rbp)
	leaq	-56(%rbp), %rdi
Ltmp25:
	callq	__ZN3std9panicking11begin_panic28_$u7b$$u7b$closure$u7d$$u7d$17h54bf798acf6232d7E
Ltmp26:
	.file	11 "/rustc/2c8cc343237b8f7d5a3c3703e3a87f2eb2c54a74/library/core/src" "hint.rs"
	.loc	11 295 5
	## InlineAsm Start
	## InlineAsm End
Ltmp27:
	.loc	10 143 2
	ud2
Ltmp28:
Lfunc_end4:
	.cfi_endproc

	.globl	__ZN3std9panicking11begin_panic17h385bc5a63460a970E
	.p2align	4, 0x90
__ZN3std9panicking11begin_panic17h385bc5a63460a970E:
Lfunc_begin5:
	.file	12 "/rustc/2c8cc343237b8f7d5a3c3703e3a87f2eb2c54a74/library/std/src" "panicking.rs"
	.loc	12 601 0
	.cfi_startproc
	.cfi_personality 155, _rust_eh_personality
	.cfi_lsda 16, Lexception0
	pushq	%rbp
	.cfi_def_cfa_offset 16
	.cfi_offset %rbp, -16
	movq	%rsp, %rbp
	.cfi_def_cfa_register %rbp
	subq	$112, %rsp
	movq	%rdi, -104(%rbp)
	movq	%rsi, -96(%rbp)
	movq	%rdi, -48(%rbp)
	movq	%rsi, -40(%rbp)
Ltmp32:
	.loc	12 602 5 prologue_end
	movb	$1, -49(%rbp)
Ltmp33:
	.file	13 "/rustc/2c8cc343237b8f7d5a3c3703e3a87f2eb2c54a74/library/core/src/panic" "location.rs"
	.loc	13 88 9
	movq	%rdx, -32(%rbp)
	movq	-32(%rbp), %rax
	movq	%rax, -88(%rbp)
	movq	%rax, -24(%rbp)
Ltmp34:
	.loc	13 0 9 is_stmt 0
	movq	-88(%rbp), %rax
	movq	-96(%rbp), %rcx
	movq	-104(%rbp), %rdx
Ltmp35:
	.loc	12 607 69 is_stmt 1
	movb	$0, -49(%rbp)
	movq	%rdx, -80(%rbp)
	movq	%rcx, -72(%rbp)
	movq	%rax, -64(%rbp)
Ltmp29:
	leaq	-80(%rbp), %rdi
	.loc	12 607 12 is_stmt 0
	callq	__ZN3std10sys_common9backtrace26__rust_end_short_backtrace17hb9d1e24e336af56fE
Ltmp30:
	jmp	LBB5_4
Ltmp36:
LBB5_2:
	.loc	12 642 1 is_stmt 1
	testb	$1, -49(%rbp)
	jne	LBB5_6
	jmp	LBB5_5
LBB5_3:
Ltmp31:
	.loc	12 0 1 is_stmt 0
	movq	%rax, %rcx
	movl	%edx, %eax
	movq	%rcx, -16(%rbp)
	movl	%eax, -8(%rbp)
	jmp	LBB5_2
LBB5_4:
	ud2
LBB5_5:
	.loc	12 601 1 is_stmt 1
	movq	-16(%rbp), %rdi
	callq	__Unwind_Resume
LBB5_6:
	.loc	12 642 1
	jmp	LBB5_5
Ltmp37:
Lfunc_end5:
	.cfi_endproc
	.section	__TEXT,__gcc_except_tab
	.p2align	2
GCC_except_table5:
Lexception0:
	.byte	255
	.byte	255
	.byte	1
	.uleb128 Lcst_end0-Lcst_begin0
Lcst_begin0:
	.uleb128 Ltmp29-Lfunc_begin5
	.uleb128 Ltmp30-Ltmp29
	.uleb128 Ltmp31-Lfunc_begin5
	.byte	0
	.uleb128 Ltmp30-Lfunc_begin5
	.uleb128 Lfunc_end5-Ltmp30
	.byte	0
	.byte	0
Lcst_end0:
	.p2align	2

	.section	__TEXT,__text,regular,pure_instructions
	.globl	__ZN3std9panicking11begin_panic21PanicPayload$LT$A$GT$3new17h4c66e9218b233861E
	.p2align	4, 0x90
__ZN3std9panicking11begin_panic21PanicPayload$LT$A$GT$3new17h4c66e9218b233861E:
Lfunc_begin6:
	.loc	12 616 0
	.cfi_startproc
	pushq	%rbp
	.cfi_def_cfa_offset 16
	.cfi_offset %rbp, -16
	movq	%rsp, %rbp
	.cfi_def_cfa_register %rbp
	subq	$48, %rsp
	movq	%rdi, -16(%rbp)
	movq	%rsi, -8(%rbp)
Ltmp38:
	.loc	12 617 35 prologue_end
	movq	%rdi, -32(%rbp)
	movq	%rsi, -24(%rbp)
	.loc	12 617 13 is_stmt 0
	movq	-32(%rbp), %rcx
	movq	-24(%rbp), %rax
	movq	%rcx, -48(%rbp)
	movq	%rax, -40(%rbp)
	.loc	12 618 10 is_stmt 1
	movq	-48(%rbp), %rax
	movq	-40(%rbp), %rdx
	addq	$48, %rsp
	popq	%rbp
	retq
Ltmp39:
Lfunc_end6:
	.cfi_endproc

	.globl	__ZN3std9panicking11begin_panic28_$u7b$$u7b$closure$u7d$$u7d$17h54bf798acf6232d7E
	.p2align	4, 0x90
__ZN3std9panicking11begin_panic28_$u7b$$u7b$closure$u7d$$u7d$17h54bf798acf6232d7E:
Lfunc_begin7:
	.loc	12 607 0
	.cfi_startproc
	.cfi_personality 155, _rust_eh_personality
	.cfi_lsda 16, Lexception1
	pushq	%rbp
	.cfi_def_cfa_offset 16
	.cfi_offset %rbp, -16
	movq	%rsp, %rbp
	.cfi_def_cfa_register %rbp
	subq	$48, %rsp
	movq	%rdi, %rax
	movq	%rax, -48(%rbp)
Ltmp43:
	.loc	12 608 53 prologue_end
	movq	(%rax), %rdi
	movq	8(%rax), %rsi
	.loc	12 608 35 is_stmt 0
	callq	__ZN3std9panicking11begin_panic21PanicPayload$LT$A$GT$3new17h4c66e9218b233861E
	movq	-48(%rbp), %rdi
	movq	%rdx, -32(%rbp)
	movq	%rax, -40(%rbp)
	.loc	12 608 59
	movq	$0, -24(%rbp)
	.loc	12 608 65
	movq	16(%rdi), %rcx
	.loc	12 608 9
	movq	-24(%rbp), %rdx
Ltmp40:
	leaq	l___unnamed_1(%rip), %rsi
	leaq	-40(%rbp), %rdi
	movl	$1, %r8d
	callq	__ZN3std9panicking20rust_panic_with_hook17h479ead1480e59d8dE
Ltmp41:
	jmp	LBB7_3
Ltmp44:
LBB7_1:
	.loc	12 607 69 is_stmt 1
	movq	-16(%rbp), %rdi
	callq	__Unwind_Resume
Ltmp45:
LBB7_2:
Ltmp42:
	.loc	12 0 69 is_stmt 0
	movq	%rax, %rcx
	movl	%edx, %eax
	movq	%rcx, -16(%rbp)
	movl	%eax, -8(%rbp)
	jmp	LBB7_1
Ltmp46:
LBB7_3:
	ud2
Lfunc_end7:
	.cfi_endproc
	.section	__TEXT,__gcc_except_tab
	.p2align	2
GCC_except_table7:
Lexception1:
	.byte	255
	.byte	255
	.byte	1
	.uleb128 Lcst_end1-Lcst_begin1
Lcst_begin1:
	.uleb128 Lfunc_begin7-Lfunc_begin7
	.uleb128 Ltmp40-Lfunc_begin7
	.byte	0
	.byte	0
	.uleb128 Ltmp40-Lfunc_begin7
	.uleb128 Ltmp41-Ltmp40
	.uleb128 Ltmp42-Lfunc_begin7
	.byte	0
	.uleb128 Ltmp41-Lfunc_begin7
	.uleb128 Lfunc_end7-Ltmp41
	.byte	0
	.byte	0
Lcst_end1:
	.p2align	2

	.section	__TEXT,__text,regular,pure_instructions
	.globl	__ZN42_$LT$$RF$T$u20$as$u20$core..fmt..Debug$GT$3fmt17h0f96713c24eee59cE
	.p2align	4, 0x90
__ZN42_$LT$$RF$T$u20$as$u20$core..fmt..Debug$GT$3fmt17h0f96713c24eee59cE:
Lfunc_begin8:
	.file	14 "/rustc/2c8cc343237b8f7d5a3c3703e3a87f2eb2c54a74/library/core/src/fmt" "mod.rs"
	.loc	14 2377 0 is_stmt 1
	.cfi_startproc
	pushq	%rbp
	.cfi_def_cfa_offset 16
	.cfi_offset %rbp, -16
	movq	%rsp, %rbp
	.cfi_def_cfa_register %rbp
	subq	$16, %rsp
	movq	%rdi, -16(%rbp)
	movq	%rsi, -8(%rbp)
Ltmp47:
	.loc	14 2377 71 prologue_end
	movq	(%rdi), %rdi
	.loc	14 2377 62 is_stmt 0
	callq	__ZN57_$LT$core..time..Duration$u20$as$u20$core..fmt..Debug$GT$3fmt17h803118e55f06c59bE
	.loc	14 2377 84
	andb	$1, %al
	movzbl	%al, %eax
	addq	$16, %rsp
	popq	%rbp
	retq
Ltmp48:
Lfunc_end8:
	.cfi_endproc

	.globl	__ZN42_$LT$$RF$T$u20$as$u20$core..fmt..Debug$GT$3fmt17h2e0887bcc6c2af16E
	.p2align	4, 0x90
__ZN42_$LT$$RF$T$u20$as$u20$core..fmt..Debug$GT$3fmt17h2e0887bcc6c2af16E:
Lfunc_begin9:
	.loc	14 2377 0 is_stmt 1
	.cfi_startproc
	pushq	%rbp
	.cfi_def_cfa_offset 16
	.cfi_offset %rbp, -16
	movq	%rsp, %rbp
	.cfi_def_cfa_register %rbp
	subq	$16, %rsp
	movq	%rdi, -16(%rbp)
	movq	%rsi, -8(%rbp)
Ltmp49:
	.loc	14 2377 71 prologue_end
	movq	(%rdi), %rdi
	.loc	14 2377 62 is_stmt 0
	callq	__ZN61_$LT$dispatch..sem..Semaphore$u20$as$u20$core..fmt..Debug$GT$3fmt17hf87de84d1cae9df6E
	.loc	14 2377 84
	andb	$1, %al
	movzbl	%al, %eax
	addq	$16, %rsp
	popq	%rbp
	retq
Ltmp50:
Lfunc_end9:
	.cfi_endproc

	.globl	__ZN42_$LT$$RF$T$u20$as$u20$core..fmt..Debug$GT$3fmt17h38638a4049072de6E
	.p2align	4, 0x90
__ZN42_$LT$$RF$T$u20$as$u20$core..fmt..Debug$GT$3fmt17h38638a4049072de6E:
Lfunc_begin10:
	.loc	14 2377 0 is_stmt 1
	.cfi_startproc
	pushq	%rbp
	.cfi_def_cfa_offset 16
	.cfi_offset %rbp, -16
	movq	%rsp, %rbp
	.cfi_def_cfa_register %rbp
	subq	$16, %rsp
	movq	%rdi, -16(%rbp)
	movq	%rsi, -8(%rbp)
Ltmp51:
	.loc	14 2377 71 prologue_end
	movq	(%rdi), %rdi
	.loc	14 2377 62 is_stmt 0
	callq	__ZN50_$LT$$BP$mut$u20$T$u20$as$u20$core..fmt..Debug$GT$3fmt17heed528f787c51405E
	.loc	14 2377 84
	andb	$1, %al
	movzbl	%al, %eax
	addq	$16, %rsp
	popq	%rbp
	retq
Ltmp52:
Lfunc_end10:
	.cfi_endproc

	.globl	__ZN42_$LT$$RF$T$u20$as$u20$core..fmt..Debug$GT$3fmt17h48c0856c28e20f93E
	.p2align	4, 0x90
__ZN42_$LT$$RF$T$u20$as$u20$core..fmt..Debug$GT$3fmt17h48c0856c28e20f93E:
Lfunc_begin11:
	.loc	14 2377 0 is_stmt 1
	.cfi_startproc
	pushq	%rbp
	.cfi_def_cfa_offset 16
	.cfi_offset %rbp, -16
	movq	%rsp, %rbp
	.cfi_def_cfa_register %rbp
	subq	$16, %rsp
	movq	%rdi, -16(%rbp)
	movq	%rsi, -8(%rbp)
Ltmp53:
	.loc	14 2377 71 prologue_end
	movq	(%rdi), %rdi
	.loc	14 2377 62 is_stmt 0
	callq	__ZN68_$LT$core..cell..UnsafeCell$LT$T$GT$$u20$as$u20$core..fmt..Debug$GT$3fmt17h4a78fa249e0a25afE
	.loc	14 2377 84
	andb	$1, %al
	movzbl	%al, %eax
	addq	$16, %rsp
	popq	%rbp
	retq
Ltmp54:
Lfunc_end11:
	.cfi_endproc

	.globl	__ZN42_$LT$$RF$T$u20$as$u20$core..fmt..Debug$GT$3fmt17hc8de3ec36b769cabE
	.p2align	4, 0x90
__ZN42_$LT$$RF$T$u20$as$u20$core..fmt..Debug$GT$3fmt17hc8de3ec36b769cabE:
Lfunc_begin12:
	.loc	14 2377 0 is_stmt 1
	.cfi_startproc
	pushq	%rbp
	.cfi_def_cfa_offset 16
	.cfi_offset %rbp, -16
	movq	%rsp, %rbp
	.cfi_def_cfa_register %rbp
	subq	$16, %rsp
	movq	%rdi, -16(%rbp)
	movq	%rsi, -8(%rbp)
Ltmp55:
	.loc	14 2377 71 prologue_end
	movq	(%rdi), %rdi
	.loc	14 2377 62 is_stmt 0
	callq	__ZN59_$LT$dispatch..group..Group$u20$as$u20$core..fmt..Debug$GT$3fmt17h8b059a8d5244b4b2E
	.loc	14 2377 84
	andb	$1, %al
	movzbl	%al, %eax
	addq	$16, %rsp
	popq	%rbp
	retq
Ltmp56:
Lfunc_end12:
	.cfi_endproc

	.globl	__ZN42_$LT$$RF$T$u20$as$u20$core..fmt..Debug$GT$3fmt17hf6acd624c985dc93E
	.p2align	4, 0x90
__ZN42_$LT$$RF$T$u20$as$u20$core..fmt..Debug$GT$3fmt17hf6acd624c985dc93E:
Lfunc_begin13:
	.loc	14 2377 0 is_stmt 1
	.cfi_startproc
	pushq	%rbp
	.cfi_def_cfa_offset 16
	.cfi_offset %rbp, -16
	movq	%rsp, %rbp
	.cfi_def_cfa_register %rbp
	subq	$16, %rsp
	movq	%rdi, -16(%rbp)
	movq	%rsi, -8(%rbp)
Ltmp57:
	.loc	14 2377 71 prologue_end
	movq	(%rdi), %rdi
	.loc	14 2377 62 is_stmt 0
	callq	__ZN59_$LT$dispatch..queue..Queue$u20$as$u20$core..fmt..Debug$GT$3fmt17he998e1a10b991c7cE
	.loc	14 2377 84
	andb	$1, %al
	movzbl	%al, %eax
	addq	$16, %rsp
	popq	%rbp
	retq
Ltmp58:
Lfunc_end13:
	.cfi_endproc

	.globl	__ZN4core3any6TypeId2of17ha0a2b1a60663fd46E
	.p2align	4, 0x90
__ZN4core3any6TypeId2of17ha0a2b1a60663fd46E:
Lfunc_begin14:
	.loc	9 691 0 is_stmt 1
	.cfi_startproc
	pushq	%rbp
	.cfi_def_cfa_offset 16
	.cfi_offset %rbp, -16
	movq	%rsp, %rbp
	.cfi_def_cfa_register %rbp
	subq	$16, %rsp
Ltmp59:
	.loc	9 692 21 prologue_end
	movabsq	$-8527728395957036344, %rax
	movq	%rax, -8(%rbp)
	movq	-8(%rbp), %rax
	.loc	9 692 9 is_stmt 0
	movq	%rax, -16(%rbp)
	.loc	9 693 6 is_stmt 1
	movq	-16(%rbp), %rax
	addq	$16, %rsp
	popq	%rbp
	retq
Ltmp60:
Lfunc_end14:
	.cfi_endproc

	.p2align	4, 0x90
__ZN4core3ffi5c_str4CStr6as_ptr17had14a5b6e925cad5E:
Lfunc_begin15:
	.file	15 "/rustc/2c8cc343237b8f7d5a3c3703e3a87f2eb2c54a74/library/core/src/ffi" "c_str.rs"
	.loc	15 502 0
	.cfi_startproc
	pushq	%rbp
	.cfi_def_cfa_offset 16
	.cfi_offset %rbp, -16
	movq	%rsp, %rbp
	.cfi_def_cfa_register %rbp
	subq	$32, %rsp
	movq	%rdi, %rax
	movq	%rax, -32(%rbp)
	movq	%rsi, -24(%rbp)
Ltmp61:
	.loc	15 503 9 prologue_end
	movq	%rax, -16(%rbp)
	movq	%rsi, -8(%rbp)
	.loc	15 504 6
	addq	$32, %rsp
	popq	%rbp
	retq
Ltmp62:
Lfunc_end15:
	.cfi_endproc

	.p2align	4, 0x90
__ZN4core3ffi5c_str4CStr8from_ptr17hd31fd70374e5d58cE:
Lfunc_begin16:
	.loc	15 256 0
	.cfi_startproc
	pushq	%rbp
	.cfi_def_cfa_offset 16
	.cfi_offset %rbp, -16
	movq	%rsp, %rbp
	.cfi_def_cfa_register %rbp
	subq	$176, %rsp
	movq	%rdi, -176(%rbp)
	movq	%rdi, -112(%rbp)
Ltmp63:
	.loc	15 289 53 prologue_end
	movq	%rdi, -168(%rbp)
	.loc	15 289 23 is_stmt 0
	movq	-168(%rbp), %rdi
	callq	__ZN4core3ffi5c_str4CStr8from_ptr9strlen_rt17h166552da2f23bf2dE
	movq	-176(%rbp), %rdi
	movq	%rax, -104(%rbp)
Ltmp64:
	.loc	15 290 71 is_stmt 1
	movq	%rdi, -96(%rbp)
Ltmp65:
	.loc	3 61 9
	movq	%rdi, -88(%rbp)
Ltmp66:
	.loc	15 290 83
	incq	%rax
	movq	%rax, -80(%rbp)
Ltmp67:
	.file	16 "/rustc/2c8cc343237b8f7d5a3c3703e3a87f2eb2c54a74/library/core/src/slice" "raw.rs"
	.loc	16 100 37
	movq	%rdi, -72(%rbp)
	.loc	16 100 43 is_stmt 0
	movq	%rax, -64(%rbp)
Ltmp68:
	.loc	4 734 20 is_stmt 1
	movq	%rdi, -56(%rbp)
Ltmp69:
	.loc	3 61 9
	movq	%rdi, -48(%rbp)
Ltmp70:
	.loc	4 734 33
	movq	%rax, -40(%rbp)
Ltmp71:
	.loc	5 118 36
	movq	%rdi, -144(%rbp)
	movq	%rax, -136(%rbp)
	.loc	5 118 14 is_stmt 0
	movq	-144(%rbp), %rcx
	movq	-136(%rbp), %rax
	movq	%rcx, -160(%rbp)
	movq	%rax, -152(%rbp)
	movq	-160(%rbp), %rcx
	movq	-152(%rbp), %rax
Ltmp72:
	.loc	15 290 49 is_stmt 1
	movq	%rcx, -32(%rbp)
	movq	%rax, -24(%rbp)
Ltmp73:
	.loc	15 449 48
	movq	%rcx, -128(%rbp)
	movq	%rax, -120(%rbp)
	.loc	15 449 18 is_stmt 0
	movq	-128(%rbp), %rax
	movq	-120(%rbp), %rdx
	movq	%rax, -16(%rbp)
	movq	%rdx, -8(%rbp)
Ltmp74:
	.loc	15 292 6 is_stmt 1
	addq	$176, %rsp
	popq	%rbp
	retq
Ltmp75:
Lfunc_end16:
	.cfi_endproc

	.p2align	4, 0x90
__ZN4core3ffi5c_str4CStr8to_bytes17hbc7413b969729309E:
Lfunc_begin17:
	.loc	15 556 0
	.cfi_startproc
	pushq	%rbp
	.cfi_def_cfa_offset 16
	.cfi_offset %rbp, -16
	movq	%rsp, %rbp
	.cfi_def_cfa_register %rbp
	subq	$112, %rsp
	movq	%rsi, %rcx
	movq	%rdi, %rdx
	movq	%rdx, -88(%rbp)
	movq	%rcx, -80(%rbp)
Ltmp76:
	.loc	15 557 21 prologue_end
	movq	%rdx, -72(%rbp)
	movq	%rcx, -64(%rbp)
Ltmp77:
	.loc	15 587 18
	movq	%rdx, -56(%rbp)
	movq	%rcx, -48(%rbp)
Ltmp78:
	.loc	15 559 18
	movq	%rdx, -40(%rbp)
	movq	%rcx, -32(%rbp)
	.loc	15 559 40 is_stmt 0
	movq	%rcx, %rsi
	decq	%rsi
	.loc	15 559 38
	movq	%rsi, -112(%rbp)
Ltmp79:
	.file	17 "/rustc/2c8cc343237b8f7d5a3c3703e3a87f2eb2c54a74/library/core/src/slice" "mod.rs"
	.loc	17 405 20 is_stmt 1
	movq	-112(%rbp), %rax
	movq	%rax, -24(%rbp)
	.loc	17 405 40 is_stmt 0
	movq	%rdx, -16(%rbp)
	movq	%rcx, -8(%rbp)
Ltmp80:
	.loc	2 445 18 is_stmt 1
	movq	$0, -104(%rbp)
	movq	%rax, -96(%rbp)
	movq	-104(%rbp), %rdi
	movq	-96(%rbp), %rsi
	callq	__ZN106_$LT$core..ops..range..Range$LT$usize$GT$$u20$as$u20$core..slice..index..SliceIndex$LT$$u5b$T$u5d$$GT$$GT$13get_unchecked17hd6037916460496beE
Ltmp81:
	.loc	15 560 6
	addq	$112, %rsp
	popq	%rbp
	retq
Ltmp82:
Lfunc_end17:
	.cfi_endproc

	.globl	__ZN4core3fmt10ArgumentV19new_debug17h797624664913ce57E
	.p2align	4, 0x90
__ZN4core3fmt10ArgumentV19new_debug17h797624664913ce57E:
Lfunc_begin18:
	.loc	14 327 0
	.cfi_startproc
	pushq	%rbp
	.cfi_def_cfa_offset 16
	.cfi_offset %rbp, -16
	movq	%rsp, %rbp
	.cfi_def_cfa_register %rbp
	subq	$56, %rsp
	movq	%rdi, -40(%rbp)
Ltmp83:
	.loc	14 328 23 prologue_end
	movq	%rdi, -32(%rbp)
	.loc	14 328 26 is_stmt 0
	movq	__ZN57_$LT$core..time..Duration$u20$as$u20$core..fmt..Debug$GT$3fmt17h803118e55f06c59bE@GOTPCREL(%rip), %rax
	movq	%rax, -24(%rbp)
Ltmp84:
	.loc	14 347 42 is_stmt 1
	movq	%rax, -16(%rbp)
	movq	-16(%rbp), %rax
	.loc	14 347 68 is_stmt 0
	movq	%rdi, -8(%rbp)
	movq	-8(%rbp), %rcx
	.loc	14 347 18
	movq	%rcx, -56(%rbp)
	movq	%rax, -48(%rbp)
Ltmp85:
	.loc	14 329 10 is_stmt 1
	movq	-56(%rbp), %rax
	movq	-48(%rbp), %rdx
	addq	$56, %rsp
	popq	%rbp
	retq
Ltmp86:
Lfunc_end18:
	.cfi_endproc

	.p2align	4, 0x90
__ZN4core3fmt9Arguments6new_v117hc39874d15b363b97E:
Lfunc_begin19:
	.loc	14 399 0
	.cfi_startproc
	pushq	%rbp
	.cfi_def_cfa_offset 16
	.cfi_offset %rbp, -16
	movq	%rsp, %rbp
	.cfi_def_cfa_register %rbp
	subq	$160, %rsp
	movq	%r8, -152(%rbp)
	movq	%rcx, -144(%rbp)
	movq	%rdx, -136(%rbp)
	movq	%rsi, -128(%rbp)
	movq	%rdi, -120(%rbp)
	movq	%rdi, -112(%rbp)
	movq	%rsi, -32(%rbp)
	movq	%rdx, -24(%rbp)
	movq	%rcx, -16(%rbp)
	movq	%r8, -8(%rbp)
Ltmp87:
	.loc	14 400 12 prologue_end
	cmpq	%r8, %rdx
	jb	LBB19_2
	.loc	14 0 12 is_stmt 0
	movq	-136(%rbp), %rax
	movq	-152(%rbp), %rcx
	.loc	14 400 56
	addq	$1, %rcx
	.loc	14 400 41
	cmpq	%rcx, %rax
	seta	%al
	.loc	14 400 12
	andb	$1, %al
	movb	%al, -97(%rbp)
	jmp	LBB19_3
LBB19_2:
	movb	$1, -97(%rbp)
LBB19_3:
	testb	$1, -97(%rbp)
	jne	LBB19_5
	.loc	14 0 12
	movq	-112(%rbp), %rax
	movq	-120(%rbp), %rcx
	movq	-152(%rbp), %rdx
	movq	-144(%rbp), %rsi
	movq	-136(%rbp), %rdi
	movq	-128(%rbp), %r8
	.loc	14 403 34 is_stmt 1
	movq	$0, -48(%rbp)
	.loc	14 403 9 is_stmt 0
	movq	%r8, 16(%rcx)
	movq	%rdi, 24(%rcx)
	movq	-48(%rbp), %r8
	movq	-40(%rbp), %rdi
	movq	%r8, (%rcx)
	movq	%rdi, 8(%rcx)
	movq	%rsi, 32(%rcx)
	movq	%rdx, 40(%rcx)
	.loc	14 404 6 is_stmt 1
	addq	$160, %rsp
	popq	%rbp
	retq
LBB19_5:
	.loc	14 401 13
	leaq	l___unnamed_11(%rip), %rsi
	leaq	l___unnamed_12(%rip), %rcx
	xorl	%eax, %eax
	movl	%eax, %r8d
	leaq	-96(%rbp), %rdi
	movq	%rdi, -160(%rbp)
	movl	$1, %edx
	callq	__ZN4core3fmt9Arguments6new_v117hc39874d15b363b97E
	movq	-160(%rbp), %rdi
	leaq	l___unnamed_13(%rip), %rsi
	callq	__ZN4core9panicking9panic_fmt17h9b5d807e24bcaaedE
Ltmp88:
Lfunc_end19:
	.cfi_endproc

	.globl	__ZN4core3mem7replace17hb2da3ba347369e5cE
	.p2align	4, 0x90
__ZN4core3mem7replace17hb2da3ba347369e5cE:
Lfunc_begin20:
	.file	18 "/rustc/2c8cc343237b8f7d5a3c3703e3a87f2eb2c54a74/library/core/src/mem" "mod.rs"
	.loc	18 905 0
	.cfi_startproc
	pushq	%rbp
	.cfi_def_cfa_offset 16
	.cfi_offset %rbp, -16
	movq	%rsp, %rbp
	.cfi_def_cfa_register %rbp
	subq	$184, %rsp
	movq	%rdi, -184(%rbp)
	movq	%rsi, -176(%rbp)
	movq	%rdx, -168(%rbp)
	movq	%rdi, -112(%rbp)
	movq	%rsi, -104(%rbp)
	movq	%rdx, -96(%rbp)
Ltmp89:
	.loc	18 910 32 prologue_end
	movq	%rdi, -88(%rbp)
Ltmp90:
	.loc	4 1157 34
	leaq	-128(%rbp), %rax
	movq	%rax, -80(%rbp)
	.loc	4 1157 9 is_stmt 0
	movq	(%rdi), %rax
	movq	%rax, -128(%rbp)
	movq	8(%rdi), %rax
	movq	%rax, -120(%rbp)
	.loc	4 1158 9 is_stmt 1
	movq	-128(%rbp), %rcx
	movq	%rcx, -160(%rbp)
	movq	-120(%rbp), %rax
	movq	%rax, -152(%rbp)
	movq	%rcx, -72(%rbp)
	movq	%rax, -64(%rbp)
	.loc	4 0 9 is_stmt 0
	movq	-152(%rbp), %rdx
	movq	-160(%rbp), %rax
	movq	-184(%rbp), %rcx
	movq	-168(%rbp), %rsi
	movq	-176(%rbp), %rdi
Ltmp91:
	.file	19 "/rustc/2c8cc343237b8f7d5a3c3703e3a87f2eb2c54a74/library/core/src/mem" "maybe_uninit.rs"
	.loc	19 627 38 is_stmt 1
	movq	%rax, -40(%rbp)
	movq	%rdx, -32(%rbp)
Ltmp92:
	.file	20 "/rustc/2c8cc343237b8f7d5a3c3703e3a87f2eb2c54a74/library/core/src/mem" "manually_drop.rs"
	.loc	20 89 9
	movq	%rax, -24(%rbp)
	movq	%rdx, -16(%rbp)
Ltmp93:
	.loc	18 911 20
	movq	%rcx, -8(%rbp)
	.loc	18 911 26 is_stmt 0
	movq	%rdi, -144(%rbp)
	movq	%rsi, -136(%rbp)
Ltmp94:
	.loc	4 1354 9 is_stmt 1
	movq	-144(%rbp), %rsi
	movq	-136(%rbp), %rdi
	movq	%rdi, 8(%rcx)
	movq	%rsi, (%rcx)
Ltmp95:
	.loc	18 914 2
	addq	$184, %rsp
	popq	%rbp
	retq
Ltmp96:
Lfunc_end20:
	.cfi_endproc

	.p2align	4, 0x90
__ZN4core3num21_$LT$impl$u20$u64$GT$11checked_add17hc79a08495f07a8e4E:
Lfunc_begin21:
	.file	21 "/rustc/2c8cc343237b8f7d5a3c3703e3a87f2eb2c54a74/library/core/src/num" "uint_macros.rs"
	.loc	21 442 0
	.cfi_startproc
	pushq	%rbp
	.cfi_def_cfa_offset 16
	.cfi_offset %rbp, -16
	movq	%rsp, %rbp
	.cfi_def_cfa_register %rbp
	subq	$120, %rsp
	movq	%rdi, -80(%rbp)
	movq	%rsi, -72(%rbp)
Ltmp97:
	.loc	21 443 26 prologue_end
	movq	%rdi, -64(%rbp)
	.loc	21 443 47 is_stmt 0
	movq	%rsi, -56(%rbp)
Ltmp98:
	.loc	21 1479 26 is_stmt 1
	addq	%rsi, %rdi
	setb	%al
	andb	$1, %al
	movq	%rdi, -48(%rbp)
	movb	%al, -40(%rbp)
	movq	-48(%rbp), %rcx
	movb	-40(%rbp), %al
	.loc	21 1479 18 is_stmt 0
	movq	%rcx, -32(%rbp)
	.loc	21 1479 21
	movb	%al, %dl
	andb	$1, %dl
	movb	%dl, -17(%rbp)
Ltmp99:
	.loc	21 1480 13 is_stmt 1
	movq	%rcx, -96(%rbp)
	andb	$1, %al
	movb	%al, -88(%rbp)
Ltmp100:
	.loc	21 443 18
	movq	-96(%rbp), %rax
	movq	%rax, -120(%rbp)
	movq	%rax, -16(%rbp)
	.loc	21 443 21 is_stmt 0
	movb	-88(%rbp), %al
	movb	%al, %cl
	andb	$1, %cl
	movb	%cl, -2(%rbp)
Ltmp101:
	.loc	21 444 16 is_stmt 1
	andb	$1, %al
	movb	%al, -1(%rbp)
	testb	$1, -1(%rbp)
	jne	LBB21_2
	.loc	21 0 16 is_stmt 0
	movq	-120(%rbp), %rax
	.loc	21 444 42
	movq	%rax, -104(%rbp)
	movq	$1, -112(%rbp)
	.loc	21 444 13
	jmp	LBB21_3
LBB21_2:
	.loc	21 444 30
	movq	$0, -112(%rbp)
Ltmp102:
LBB21_3:
	.loc	21 445 10 is_stmt 1
	movq	-112(%rbp), %rax
	movq	-104(%rbp), %rdx
	addq	$120, %rsp
	popq	%rbp
	retq
Ltmp103:
Lfunc_end21:
	.cfi_endproc

	.p2align	4, 0x90
__ZN4core3num21_$LT$impl$u20$u64$GT$11checked_mul17hb107703e4f06c373E:
Lfunc_begin22:
	.loc	21 558 0
	.cfi_startproc
	pushq	%rbp
	.cfi_def_cfa_offset 16
	.cfi_offset %rbp, -16
	movq	%rsp, %rbp
	.cfi_def_cfa_register %rbp
	subq	$120, %rsp
	movq	%rdi, %rax
	movq	%rax, -80(%rbp)
	movq	%rsi, -72(%rbp)
Ltmp104:
	.loc	21 559 26 prologue_end
	movq	%rax, -64(%rbp)
	.loc	21 559 47 is_stmt 0
	movq	%rsi, -56(%rbp)
Ltmp105:
	.loc	21 1677 26 is_stmt 1
	mulq	%rsi
	movq	%rax, %rcx
	seto	%al
	andb	$1, %al
	movq	%rcx, -48(%rbp)
	movb	%al, -40(%rbp)
	movq	-48(%rbp), %rcx
	movb	-40(%rbp), %al
	.loc	21 1677 18 is_stmt 0
	movq	%rcx, -32(%rbp)
	.loc	21 1677 21
	movb	%al, %dl
	andb	$1, %dl
	movb	%dl, -17(%rbp)
Ltmp106:
	.loc	21 1678 13 is_stmt 1
	movq	%rcx, -96(%rbp)
	andb	$1, %al
	movb	%al, -88(%rbp)
Ltmp107:
	.loc	21 559 18
	movq	-96(%rbp), %rax
	movq	%rax, -120(%rbp)
	movq	%rax, -16(%rbp)
	.loc	21 559 21 is_stmt 0
	movb	-88(%rbp), %al
	movb	%al, %cl
	andb	$1, %cl
	movb	%cl, -2(%rbp)
Ltmp108:
	.loc	21 560 16 is_stmt 1
	andb	$1, %al
	movb	%al, -1(%rbp)
	testb	$1, -1(%rbp)
	jne	LBB22_2
	.loc	21 0 16 is_stmt 0
	movq	-120(%rbp), %rax
	.loc	21 560 42
	movq	%rax, -104(%rbp)
	movq	$1, -112(%rbp)
	.loc	21 560 13
	jmp	LBB22_3
LBB22_2:
	.loc	21 560 30
	movq	$0, -112(%rbp)
Ltmp109:
LBB22_3:
	.loc	21 561 10 is_stmt 1
	movq	-112(%rbp), %rax
	movq	-104(%rbp), %rdx
	addq	$120, %rsp
	popq	%rbp
	retq
Ltmp110:
Lfunc_end22:
	.cfi_endproc

	.p2align	4, 0x90
__ZN4core3ptr28drop_in_place$LT$$RF$str$GT$17hef86bcede550fa5dE:
Lfunc_begin23:
	.loc	4 490 0
	.cfi_startproc
	pushq	%rbp
	.cfi_def_cfa_offset 16
	.cfi_offset %rbp, -16
	movq	%rsp, %rbp
	.cfi_def_cfa_register %rbp
	pushq	%rax
	movq	%rdi, -8(%rbp)
Ltmp111:
	.loc	4 490 1 prologue_end
	addq	$8, %rsp
	popq	%rbp
	retq
Ltmp112:
Lfunc_end23:
	.cfi_endproc

	.globl	__ZN4core3ptr43drop_in_place$LT$dispatch..group..Group$GT$17h867444dcdb4cf01eE
	.p2align	4, 0x90
__ZN4core3ptr43drop_in_place$LT$dispatch..group..Group$GT$17h867444dcdb4cf01eE:
Lfunc_begin24:
	.loc	4 490 0
	.cfi_startproc
	pushq	%rbp
	.cfi_def_cfa_offset 16
	.cfi_offset %rbp, -16
	movq	%rsp, %rbp
	.cfi_def_cfa_register %rbp
	subq	$16, %rsp
	movq	%rdi, -8(%rbp)
Ltmp113:
	.loc	4 490 1 prologue_end
	callq	__ZN64_$LT$dispatch..group..Group$u20$as$u20$core..ops..drop..Drop$GT$4drop17h432b0f4baaf8e1f6E
	addq	$16, %rsp
	popq	%rbp
	retq
Ltmp114:
Lfunc_end24:
	.cfi_endproc

	.globl	__ZN4core3ptr43drop_in_place$LT$dispatch..queue..Queue$GT$17hefe7c500cca12cb1E
	.p2align	4, 0x90
__ZN4core3ptr43drop_in_place$LT$dispatch..queue..Queue$GT$17hefe7c500cca12cb1E:
Lfunc_begin25:
	.loc	4 490 0
	.cfi_startproc
	pushq	%rbp
	.cfi_def_cfa_offset 16
	.cfi_offset %rbp, -16
	movq	%rsp, %rbp
	.cfi_def_cfa_register %rbp
	subq	$16, %rsp
	movq	%rdi, -8(%rbp)
Ltmp115:
	.loc	4 490 1 prologue_end
	callq	__ZN64_$LT$dispatch..queue..Queue$u20$as$u20$core..ops..drop..Drop$GT$4drop17ha9fd45fd8915a5fbE
	addq	$16, %rsp
	popq	%rbp
	retq
Ltmp116:
Lfunc_end25:
	.cfi_endproc

	.p2align	4, 0x90
__ZN4core3ptr45drop_in_place$LT$$RF$core..time..Duration$GT$17hf9b43ad474c6150cE:
Lfunc_begin26:
	.loc	4 490 0
	.cfi_startproc
	pushq	%rbp
	.cfi_def_cfa_offset 16
	.cfi_offset %rbp, -16
	movq	%rsp, %rbp
	.cfi_def_cfa_register %rbp
	pushq	%rax
	movq	%rdi, -8(%rbp)
Ltmp117:
	.loc	4 490 1 prologue_end
	addq	$8, %rsp
	popq	%rbp
	retq
Ltmp118:
Lfunc_end26:
	.cfi_endproc

	.globl	__ZN4core3ptr45drop_in_place$LT$dispatch..sem..Semaphore$GT$17ha2febca2a00ec5e9E
	.p2align	4, 0x90
__ZN4core3ptr45drop_in_place$LT$dispatch..sem..Semaphore$GT$17ha2febca2a00ec5e9E:
Lfunc_begin27:
	.loc	4 490 0
	.cfi_startproc
	pushq	%rbp
	.cfi_def_cfa_offset 16
	.cfi_offset %rbp, -16
	movq	%rsp, %rbp
	.cfi_def_cfa_register %rbp
	subq	$16, %rsp
	movq	%rdi, -8(%rbp)
Ltmp119:
	.loc	4 490 1 prologue_end
	callq	__ZN66_$LT$dispatch..sem..Semaphore$u20$as$u20$core..ops..drop..Drop$GT$4drop17h81bb96a928edcce3E
	addq	$16, %rsp
	popq	%rbp
	retq
Ltmp120:
Lfunc_end27:
	.cfi_endproc

	.globl	__ZN4core3ptr46drop_in_place$LT$alloc..vec..Vec$LT$u8$GT$$GT$17h4e44a02ee6689387E
	.p2align	4, 0x90
__ZN4core3ptr46drop_in_place$LT$alloc..vec..Vec$LT$u8$GT$$GT$17h4e44a02ee6689387E:
Lfunc_begin28:
	.loc	4 490 0
	.cfi_startproc
	.cfi_personality 155, _rust_eh_personality
	.cfi_lsda 16, Lexception2
	pushq	%rbp
	.cfi_def_cfa_offset 16
	.cfi_offset %rbp, -16
	movq	%rsp, %rbp
	.cfi_def_cfa_register %rbp
	subq	$32, %rsp
	movq	%rdi, -32(%rbp)
	movq	%rdi, -24(%rbp)
Ltmp121:
Ltmp127:
	.loc	4 490 1 prologue_end
	callq	__ZN70_$LT$alloc..vec..Vec$LT$T$C$A$GT$$u20$as$u20$core..ops..drop..Drop$GT$4drop17h30d1d3076f091933E
Ltmp122:
	jmp	LBB28_3
LBB28_1:
Ltmp124:
	.loc	4 0 1 is_stmt 0
	movq	-32(%rbp), %rdi
	.loc	4 490 1
	callq	__ZN4core3ptr53drop_in_place$LT$alloc..raw_vec..RawVec$LT$u8$GT$$GT$17h0d822db4727efdb7E
Ltmp125:
	jmp	LBB28_5
LBB28_2:
Ltmp123:
	.loc	4 0 1
	movq	%rax, %rcx
	movl	%edx, %eax
	movq	%rcx, -16(%rbp)
	movl	%eax, -8(%rbp)
	jmp	LBB28_1
LBB28_3:
	movq	-32(%rbp), %rdi
	.loc	4 490 1
	callq	__ZN4core3ptr53drop_in_place$LT$alloc..raw_vec..RawVec$LT$u8$GT$$GT$17h0d822db4727efdb7E
	addq	$32, %rsp
	popq	%rbp
	retq
LBB28_4:
Ltmp126:
	callq	__ZN4core9panicking19panic_cannot_unwind17h1fbca7e1d7f56ae1E
LBB28_5:
	movq	-16(%rbp), %rdi
	callq	__Unwind_Resume
Ltmp128:
Lfunc_end28:
	.cfi_endproc
	.section	__TEXT,__gcc_except_tab
	.p2align	2
GCC_except_table28:
Lexception2:
	.byte	255
	.byte	255
	.byte	1
	.uleb128 Lcst_end2-Lcst_begin2
Lcst_begin2:
	.uleb128 Ltmp121-Lfunc_begin28
	.uleb128 Ltmp122-Ltmp121
	.uleb128 Ltmp123-Lfunc_begin28
	.byte	0
	.uleb128 Ltmp124-Lfunc_begin28
	.uleb128 Ltmp125-Ltmp124
	.uleb128 Ltmp126-Lfunc_begin28
	.byte	0
	.uleb128 Ltmp125-Lfunc_begin28
	.uleb128 Lfunc_end28-Ltmp125
	.byte	0
	.byte	0
Lcst_end2:
	.p2align	2

	.section	__TEXT,__text,regular,pure_instructions
	.p2align	4, 0x90
__ZN4core3ptr47drop_in_place$LT$$RF$dispatch..group..Group$GT$17h4e945214b7114587E:
Lfunc_begin29:
	.loc	4 490 0 is_stmt 1
	.cfi_startproc
	pushq	%rbp
	.cfi_def_cfa_offset 16
	.cfi_offset %rbp, -16
	movq	%rsp, %rbp
	.cfi_def_cfa_register %rbp
	pushq	%rax
	movq	%rdi, -8(%rbp)
Ltmp129:
	.loc	4 490 1 prologue_end
	addq	$8, %rsp
	popq	%rbp
	retq
Ltmp130:
Lfunc_end29:
	.cfi_endproc

	.p2align	4, 0x90
__ZN4core3ptr47drop_in_place$LT$$RF$dispatch..queue..Queue$GT$17h9aa634a4b7ccaf9bE:
Lfunc_begin30:
	.loc	4 490 0
	.cfi_startproc
	pushq	%rbp
	.cfi_def_cfa_offset 16
	.cfi_offset %rbp, -16
	movq	%rsp, %rbp
	.cfi_def_cfa_register %rbp
	pushq	%rax
	movq	%rdi, -8(%rbp)
Ltmp131:
	.loc	4 490 1 prologue_end
	addq	$8, %rsp
	popq	%rbp
	retq
Ltmp132:
Lfunc_end30:
	.cfi_endproc

	.globl	__ZN4core3ptr47drop_in_place$LT$alloc..ffi..c_str..CString$GT$17h6db6a295796500ecE
	.p2align	4, 0x90
__ZN4core3ptr47drop_in_place$LT$alloc..ffi..c_str..CString$GT$17h6db6a295796500ecE:
Lfunc_begin31:
	.loc	4 490 0
	.cfi_startproc
	.cfi_personality 155, _rust_eh_personality
	.cfi_lsda 16, Lexception3
	pushq	%rbp
	.cfi_def_cfa_offset 16
	.cfi_offset %rbp, -16
	movq	%rsp, %rbp
	.cfi_def_cfa_register %rbp
	subq	$32, %rsp
	movq	%rdi, -32(%rbp)
	movq	%rdi, -24(%rbp)
Ltmp133:
Ltmp139:
	.loc	4 490 1 prologue_end
	callq	__ZN68_$LT$alloc..ffi..c_str..CString$u20$as$u20$core..ops..drop..Drop$GT$4drop17h462d0e82cf5c9483E
Ltmp134:
	jmp	LBB31_3
LBB31_1:
Ltmp136:
	.loc	4 0 1 is_stmt 0
	movq	-32(%rbp), %rdi
	.loc	4 490 1
	callq	__ZN4core3ptr58drop_in_place$LT$alloc..boxed..Box$LT$$u5b$u8$u5d$$GT$$GT$17hffb1e2f45bb3c87fE
Ltmp137:
	jmp	LBB31_5
LBB31_2:
Ltmp135:
	.loc	4 0 1
	movq	%rax, %rcx
	movl	%edx, %eax
	movq	%rcx, -16(%rbp)
	movl	%eax, -8(%rbp)
	jmp	LBB31_1
LBB31_3:
	movq	-32(%rbp), %rdi
	.loc	4 490 1
	callq	__ZN4core3ptr58drop_in_place$LT$alloc..boxed..Box$LT$$u5b$u8$u5d$$GT$$GT$17hffb1e2f45bb3c87fE
	addq	$32, %rsp
	popq	%rbp
	retq
LBB31_4:
Ltmp138:
	callq	__ZN4core9panicking19panic_cannot_unwind17h1fbca7e1d7f56ae1E
LBB31_5:
	movq	-16(%rbp), %rdi
	callq	__Unwind_Resume
Ltmp140:
Lfunc_end31:
	.cfi_endproc
	.section	__TEXT,__gcc_except_tab
	.p2align	2
GCC_except_table31:
Lexception3:
	.byte	255
	.byte	255
	.byte	1
	.uleb128 Lcst_end3-Lcst_begin3
Lcst_begin3:
	.uleb128 Ltmp133-Lfunc_begin31
	.uleb128 Ltmp134-Ltmp133
	.uleb128 Ltmp135-Lfunc_begin31
	.byte	0
	.uleb128 Ltmp136-Lfunc_begin31
	.uleb128 Ltmp137-Ltmp136
	.uleb128 Ltmp138-Lfunc_begin31
	.byte	0
	.uleb128 Ltmp137-Lfunc_begin31
	.uleb128 Lfunc_end31-Ltmp137
	.byte	0
	.byte	0
Lcst_end3:
	.p2align	2

	.section	__TEXT,__text,regular,pure_instructions
	.globl	__ZN4core3ptr48drop_in_place$LT$alloc..ffi..c_str..NulError$GT$17hbacd0310fc8db48aE
	.p2align	4, 0x90
__ZN4core3ptr48drop_in_place$LT$alloc..ffi..c_str..NulError$GT$17hbacd0310fc8db48aE:
Lfunc_begin32:
	.loc	4 490 0 is_stmt 1
	.cfi_startproc
	pushq	%rbp
	.cfi_def_cfa_offset 16
	.cfi_offset %rbp, -16
	movq	%rsp, %rbp
	.cfi_def_cfa_register %rbp
	subq	$16, %rsp
	movq	%rdi, -8(%rbp)
Ltmp141:
	.loc	4 490 1 prologue_end
	addq	$8, %rdi
	callq	__ZN4core3ptr46drop_in_place$LT$alloc..vec..Vec$LT$u8$GT$$GT$17h4e44a02ee6689387E
	addq	$16, %rsp
	popq	%rbp
	retq
Ltmp142:
Lfunc_end32:
	.cfi_endproc

	.p2align	4, 0x90
__ZN4core3ptr48drop_in_place$LT$core..str..error..Utf8Error$GT$17h7f4055808114d2ffE:
Lfunc_begin33:
	.loc	4 490 0
	.cfi_startproc
	pushq	%rbp
	.cfi_def_cfa_offset 16
	.cfi_offset %rbp, -16
	movq	%rsp, %rbp
	.cfi_def_cfa_register %rbp
	pushq	%rax
	movq	%rdi, -8(%rbp)
Ltmp143:
	.loc	4 490 1 prologue_end
	addq	$8, %rsp
	popq	%rbp
	retq
Ltmp144:
Lfunc_end33:
	.cfi_endproc

	.globl	__ZN4core3ptr48drop_in_place$LT$dispatch..group..GroupGuard$GT$17hd9acaded7710bd23E
	.p2align	4, 0x90
__ZN4core3ptr48drop_in_place$LT$dispatch..group..GroupGuard$GT$17hd9acaded7710bd23E:
Lfunc_begin34:
	.loc	4 490 0
	.cfi_startproc
	.cfi_personality 155, _rust_eh_personality
	.cfi_lsda 16, Lexception4
	pushq	%rbp
	.cfi_def_cfa_offset 16
	.cfi_offset %rbp, -16
	movq	%rsp, %rbp
	.cfi_def_cfa_register %rbp
	subq	$32, %rsp
	movq	%rdi, -32(%rbp)
	movq	%rdi, -24(%rbp)
Ltmp145:
Ltmp151:
	.loc	4 490 1 prologue_end
	callq	__ZN69_$LT$dispatch..group..GroupGuard$u20$as$u20$core..ops..drop..Drop$GT$4drop17h10e6b146bff79489E
Ltmp146:
	jmp	LBB34_3
LBB34_1:
Ltmp148:
	.loc	4 0 1 is_stmt 0
	movq	-32(%rbp), %rdi
	.loc	4 490 1
	callq	__ZN4core3ptr43drop_in_place$LT$dispatch..group..Group$GT$17h867444dcdb4cf01eE
Ltmp149:
	jmp	LBB34_5
LBB34_2:
Ltmp147:
	.loc	4 0 1
	movq	%rax, %rcx
	movl	%edx, %eax
	movq	%rcx, -16(%rbp)
	movl	%eax, -8(%rbp)
	jmp	LBB34_1
LBB34_3:
	movq	-32(%rbp), %rdi
	.loc	4 490 1
	callq	__ZN4core3ptr43drop_in_place$LT$dispatch..group..Group$GT$17h867444dcdb4cf01eE
	addq	$32, %rsp
	popq	%rbp
	retq
LBB34_4:
Ltmp150:
	callq	__ZN4core9panicking19panic_cannot_unwind17h1fbca7e1d7f56ae1E
LBB34_5:
	movq	-16(%rbp), %rdi
	callq	__Unwind_Resume
Ltmp152:
Lfunc_end34:
	.cfi_endproc
	.section	__TEXT,__gcc_except_tab
	.p2align	2
GCC_except_table34:
Lexception4:
	.byte	255
	.byte	255
	.byte	1
	.uleb128 Lcst_end4-Lcst_begin4
Lcst_begin4:
	.uleb128 Ltmp145-Lfunc_begin34
	.uleb128 Ltmp146-Ltmp145
	.uleb128 Ltmp147-Lfunc_begin34
	.byte	0
	.uleb128 Ltmp148-Lfunc_begin34
	.uleb128 Ltmp149-Ltmp148
	.uleb128 Ltmp150-Lfunc_begin34
	.byte	0
	.uleb128 Ltmp149-Lfunc_begin34
	.uleb128 Lfunc_end34-Ltmp149
	.byte	0
	.byte	0
Lcst_end4:
	.p2align	2

	.section	__TEXT,__text,regular,pure_instructions
	.p2align	4, 0x90
__ZN4core3ptr49drop_in_place$LT$$RF$dispatch..sem..Semaphore$GT$17hb983aac74dd4575dE:
Lfunc_begin35:
	.loc	4 490 0 is_stmt 1
	.cfi_startproc
	pushq	%rbp
	.cfi_def_cfa_offset 16
	.cfi_offset %rbp, -16
	movq	%rsp, %rbp
	.cfi_def_cfa_register %rbp
	pushq	%rax
	movq	%rdi, -8(%rbp)
Ltmp153:
	.loc	4 490 1 prologue_end
	addq	$8, %rsp
	popq	%rbp
	retq
Ltmp154:
Lfunc_end35:
	.cfi_endproc

	.globl	__ZN4core3ptr50drop_in_place$LT$dispatch..queue..SuspendGuard$GT$17h1001c81e6e1e80f3E
	.p2align	4, 0x90
__ZN4core3ptr50drop_in_place$LT$dispatch..queue..SuspendGuard$GT$17h1001c81e6e1e80f3E:
Lfunc_begin36:
	.loc	4 490 0
	.cfi_startproc
	.cfi_personality 155, _rust_eh_personality
	.cfi_lsda 16, Lexception5
	pushq	%rbp
	.cfi_def_cfa_offset 16
	.cfi_offset %rbp, -16
	movq	%rsp, %rbp
	.cfi_def_cfa_register %rbp
	subq	$32, %rsp
	movq	%rdi, -32(%rbp)
	movq	%rdi, -24(%rbp)
Ltmp155:
Ltmp161:
	.loc	4 490 1 prologue_end
	callq	__ZN71_$LT$dispatch..queue..SuspendGuard$u20$as$u20$core..ops..drop..Drop$GT$4drop17hceb215496ac4b943E
Ltmp156:
	jmp	LBB36_3
LBB36_1:
Ltmp158:
	.loc	4 0 1 is_stmt 0
	movq	-32(%rbp), %rdi
	.loc	4 490 1
	callq	__ZN4core3ptr43drop_in_place$LT$dispatch..queue..Queue$GT$17hefe7c500cca12cb1E
Ltmp159:
	jmp	LBB36_5
LBB36_2:
Ltmp157:
	.loc	4 0 1
	movq	%rax, %rcx
	movl	%edx, %eax
	movq	%rcx, -16(%rbp)
	movl	%eax, -8(%rbp)
	jmp	LBB36_1
LBB36_3:
	movq	-32(%rbp), %rdi
	.loc	4 490 1
	callq	__ZN4core3ptr43drop_in_place$LT$dispatch..queue..Queue$GT$17hefe7c500cca12cb1E
	addq	$32, %rsp
	popq	%rbp
	retq
LBB36_4:
Ltmp160:
	callq	__ZN4core9panicking19panic_cannot_unwind17h1fbca7e1d7f56ae1E
LBB36_5:
	movq	-16(%rbp), %rdi
	callq	__Unwind_Resume
Ltmp162:
Lfunc_end36:
	.cfi_endproc
	.section	__TEXT,__gcc_except_tab
	.p2align	2
GCC_except_table36:
Lexception5:
	.byte	255
	.byte	255
	.byte	1
	.uleb128 Lcst_end5-Lcst_begin5
Lcst_begin5:
	.uleb128 Ltmp155-Lfunc_begin36
	.uleb128 Ltmp156-Ltmp155
	.uleb128 Ltmp157-Lfunc_begin36
	.byte	0
	.uleb128 Ltmp158-Lfunc_begin36
	.uleb128 Ltmp159-Ltmp158
	.uleb128 Ltmp160-Lfunc_begin36
	.byte	0
	.uleb128 Ltmp159-Lfunc_begin36
	.uleb128 Lfunc_end36-Ltmp159
	.byte	0
	.byte	0
Lcst_end5:
	.p2align	2

	.section	__TEXT,__text,regular,pure_instructions
	.globl	__ZN4core3ptr50drop_in_place$LT$dispatch..sem..SemaphoreGuard$GT$17h14cabc88a4142d92E
	.p2align	4, 0x90
__ZN4core3ptr50drop_in_place$LT$dispatch..sem..SemaphoreGuard$GT$17h14cabc88a4142d92E:
Lfunc_begin37:
	.loc	4 490 0 is_stmt 1
	.cfi_startproc
	.cfi_personality 155, _rust_eh_personality
	.cfi_lsda 16, Lexception6
	pushq	%rbp
	.cfi_def_cfa_offset 16
	.cfi_offset %rbp, -16
	movq	%rsp, %rbp
	.cfi_def_cfa_register %rbp
	subq	$32, %rsp
	movq	%rdi, -32(%rbp)
	movq	%rdi, -24(%rbp)
Ltmp163:
Ltmp169:
	.loc	4 490 1 prologue_end
	callq	__ZN71_$LT$dispatch..sem..SemaphoreGuard$u20$as$u20$core..ops..drop..Drop$GT$4drop17h94de7af4374ff7f3E
Ltmp164:
	jmp	LBB37_3
LBB37_1:
Ltmp166:
	.loc	4 0 1 is_stmt 0
	movq	-32(%rbp), %rdi
	.loc	4 490 1
	callq	__ZN4core3ptr45drop_in_place$LT$dispatch..sem..Semaphore$GT$17ha2febca2a00ec5e9E
Ltmp167:
	jmp	LBB37_5
LBB37_2:
Ltmp165:
	.loc	4 0 1
	movq	%rax, %rcx
	movl	%edx, %eax
	movq	%rcx, -16(%rbp)
	movl	%eax, -8(%rbp)
	jmp	LBB37_1
LBB37_3:
	movq	-32(%rbp), %rdi
	.loc	4 490 1
	callq	__ZN4core3ptr45drop_in_place$LT$dispatch..sem..Semaphore$GT$17ha2febca2a00ec5e9E
	addq	$32, %rsp
	popq	%rbp
	retq
LBB37_4:
Ltmp168:
	callq	__ZN4core9panicking19panic_cannot_unwind17h1fbca7e1d7f56ae1E
LBB37_5:
	movq	-16(%rbp), %rdi
	callq	__Unwind_Resume
Ltmp170:
Lfunc_end37:
	.cfi_endproc
	.section	__TEXT,__gcc_except_tab
	.p2align	2
GCC_except_table37:
Lexception6:
	.byte	255
	.byte	255
	.byte	1
	.uleb128 Lcst_end6-Lcst_begin6
Lcst_begin6:
	.uleb128 Ltmp163-Lfunc_begin37
	.uleb128 Ltmp164-Ltmp163
	.uleb128 Ltmp165-Lfunc_begin37
	.byte	0
	.uleb128 Ltmp166-Lfunc_begin37
	.uleb128 Ltmp167-Ltmp166
	.uleb128 Ltmp168-Lfunc_begin37
	.byte	0
	.uleb128 Ltmp167-Lfunc_begin37
	.uleb128 Lfunc_end37-Ltmp167
	.byte	0
	.byte	0
Lcst_end6:
	.p2align	2

	.section	__TEXT,__text,regular,pure_instructions
	.globl	__ZN4core3ptr53drop_in_place$LT$alloc..raw_vec..RawVec$LT$u8$GT$$GT$17h0d822db4727efdb7E
	.p2align	4, 0x90
__ZN4core3ptr53drop_in_place$LT$alloc..raw_vec..RawVec$LT$u8$GT$$GT$17h0d822db4727efdb7E:
Lfunc_begin38:
	.loc	4 490 0 is_stmt 1
	.cfi_startproc
	pushq	%rbp
	.cfi_def_cfa_offset 16
	.cfi_offset %rbp, -16
	movq	%rsp, %rbp
	.cfi_def_cfa_register %rbp
	subq	$16, %rsp
	movq	%rdi, -8(%rbp)
Ltmp171:
	.loc	4 490 1 prologue_end
	callq	__ZN77_$LT$alloc..raw_vec..RawVec$LT$T$C$A$GT$$u20$as$u20$core..ops..drop..Drop$GT$4drop17h439d97fa07f1efcbE
	addq	$16, %rsp
	popq	%rbp
	retq
Ltmp172:
Lfunc_end38:
	.cfi_endproc

	.p2align	4, 0x90
__ZN4core3ptr58drop_in_place$LT$$RF$core..cell..UnsafeCell$LT$i64$GT$$GT$17h011cb124c42e1963E:
Lfunc_begin39:
	.loc	4 490 0
	.cfi_startproc
	pushq	%rbp
	.cfi_def_cfa_offset 16
	.cfi_offset %rbp, -16
	movq	%rsp, %rbp
	.cfi_def_cfa_register %rbp
	pushq	%rax
	movq	%rdi, -8(%rbp)
Ltmp173:
	.loc	4 490 1 prologue_end
	addq	$8, %rsp
	popq	%rbp
	retq
Ltmp174:
Lfunc_end39:
	.cfi_endproc

	.globl	__ZN4core3ptr58drop_in_place$LT$alloc..boxed..Box$LT$$u5b$u8$u5d$$GT$$GT$17hffb1e2f45bb3c87fE
	.p2align	4, 0x90
__ZN4core3ptr58drop_in_place$LT$alloc..boxed..Box$LT$$u5b$u8$u5d$$GT$$GT$17hffb1e2f45bb3c87fE:
Lfunc_begin40:
	.loc	4 490 0
	.cfi_startproc
	pushq	%rbp
	.cfi_def_cfa_offset 16
	.cfi_offset %rbp, -16
	movq	%rsp, %rbp
	.cfi_def_cfa_register %rbp
	subq	$32, %rsp
	movq	%rdi, -32(%rbp)
	movq	%rdi, -24(%rbp)
	movq	-32(%rbp), %rax
Ltmp175:
	.loc	4 490 1 prologue_end
	movq	(%rax), %rdi
	movq	8(%rax), %rsi
	callq	__ZN5alloc5alloc8box_free17h5d7027537a931453E
	addq	$32, %rsp
	popq	%rbp
	retq
Ltmp176:
Lfunc_end40:
	.cfi_endproc

	.globl	__ZN4core3ptr66drop_in_place$LT$dyn$u20$core..any..Any$u2b$core..marker..Send$GT$17h9bce43aa1ce8106eE
	.p2align	4, 0x90
__ZN4core3ptr66drop_in_place$LT$dyn$u20$core..any..Any$u2b$core..marker..Send$GT$17h9bce43aa1ce8106eE:
Lfunc_begin41:
	.loc	4 490 0
	.cfi_startproc
	pushq	%rbp
	.cfi_def_cfa_offset 16
	.cfi_offset %rbp, -16
	movq	%rsp, %rbp
	.cfi_def_cfa_register %rbp
	subq	$16, %rsp
	movq	%rdi, -16(%rbp)
	movq	%rsi, -8(%rbp)
Ltmp177:
	.loc	4 490 1 prologue_end
	callq	*(%rsi)
	addq	$16, %rsp
	popq	%rbp
	retq
Ltmp178:
Lfunc_end41:
	.cfi_endproc

	.p2align	4, 0x90
__ZN4core3ptr69drop_in_place$LT$$RF$$BP$mut$u20$dispatch..ffi..dispatch_object_s$GT$17h21d42b34e8357948E:
Lfunc_begin42:
	.loc	4 490 0
	.cfi_startproc
	pushq	%rbp
	.cfi_def_cfa_offset 16
	.cfi_offset %rbp, -16
	movq	%rsp, %rbp
	.cfi_def_cfa_register %rbp
	pushq	%rax
	movq	%rdi, -8(%rbp)
Ltmp179:
	.loc	4 490 1 prologue_end
	addq	$8, %rsp
	popq	%rbp
	retq
Ltmp180:
Lfunc_end42:
	.cfi_endproc

	.p2align	4, 0x90
__ZN4core3ptr77drop_in_place$LT$std..panicking..begin_panic..PanicPayload$LT$$RF$str$GT$$GT$17h06fdda7157c8c933E:
Lfunc_begin43:
	.loc	4 490 0
	.cfi_startproc
	pushq	%rbp
	.cfi_def_cfa_offset 16
	.cfi_offset %rbp, -16
	movq	%rsp, %rbp
	.cfi_def_cfa_register %rbp
	pushq	%rax
	movq	%rdi, -8(%rbp)
Ltmp181:
	.loc	4 490 1 prologue_end
	addq	$8, %rsp
	popq	%rbp
	retq
Ltmp182:
Lfunc_end43:
	.cfi_endproc

	.globl	__ZN4core3ptr8non_null16NonNull$LT$T$GT$3new17h2c1953031f46d780E
	.p2align	4, 0x90
__ZN4core3ptr8non_null16NonNull$LT$T$GT$3new17h2c1953031f46d780E:
Lfunc_begin44:
	.loc	6 222 0
	.cfi_startproc
	pushq	%rbp
	.cfi_def_cfa_offset 16
	.cfi_offset %rbp, -16
	movq	%rsp, %rbp
	.cfi_def_cfa_register %rbp
	subq	$88, %rsp
	movq	%rdi, -88(%rbp)
	movq	%rdi, -56(%rbp)
Ltmp183:
	.loc	6 223 13 prologue_end
	movq	%rdi, -48(%rbp)
Ltmp184:
	.file	22 "/rustc/2c8cc343237b8f7d5a3c3703e3a87f2eb2c54a74/library/core/src/ptr" "mut_ptr.rs"
	.loc	22 52 36
	movq	%rdi, -64(%rbp)
	.loc	22 52 18 is_stmt 0
	movq	-64(%rbp), %rax
	movq	%rax, -40(%rbp)
Ltmp185:
	.loc	22 38 13 is_stmt 1
	movq	%rax, -32(%rbp)
Ltmp186:
	.loc	22 215 33
	movq	%rax, -24(%rbp)
	.loc	22 215 18 is_stmt 0
	movq	%rax, -16(%rbp)
Ltmp187:
	.loc	22 38 13 is_stmt 1
	cmpq	$0, -16(%rbp)
	sete	%al
Ltmp188:
	.loc	6 223 12
	xorb	$-1, %al
	testb	$1, %al
	jne	LBB44_2
	.loc	6 227 13
	movq	$0, -80(%rbp)
	.loc	6 223 9
	jmp	LBB44_3
LBB44_2:
	.loc	6 0 9 is_stmt 0
	movq	-88(%rbp), %rax
	.loc	6 225 47 is_stmt 1
	movq	%rax, -8(%rbp)
Ltmp189:
	.loc	6 201 13
	movq	%rax, -72(%rbp)
Ltmp190:
	.loc	6 225 13
	movq	-72(%rbp), %rax
	movq	%rax, -80(%rbp)
LBB44_3:
	.loc	6 229 6
	movq	-80(%rbp), %rax
	addq	$88, %rsp
	popq	%rbp
	retq
Ltmp191:
Lfunc_end44:
	.cfi_endproc

	.globl	__ZN4core3ptr8non_null26NonNull$LT$$u5b$T$u5d$$GT$20slice_from_raw_parts17hef380c92fe151a39E
	.p2align	4, 0x90
__ZN4core3ptr8non_null26NonNull$LT$$u5b$T$u5d$$GT$20slice_from_raw_parts17hef380c92fe151a39E:
Lfunc_begin45:
	.loc	6 482 0
	.cfi_startproc
	pushq	%rbp
	.cfi_def_cfa_offset 16
	.cfi_offset %rbp, -16
	movq	%rsp, %rbp
	.cfi_def_cfa_register %rbp
	subq	$128, %rsp
	movq	%rdi, -80(%rbp)
	movq	%rsi, -72(%rbp)
Ltmp192:
	.loc	6 484 70 prologue_end
	movq	%rdi, -64(%rbp)
Ltmp193:
	.loc	6 326 9
	movq	%rdi, -56(%rbp)
Ltmp194:
	.loc	6 484 85
	movq	%rsi, -48(%rbp)
Ltmp195:
	.loc	4 766 24
	movq	%rdi, -40(%rbp)
Ltmp196:
	.loc	22 60 9
	movq	%rdi, -32(%rbp)
Ltmp197:
	.loc	4 766 37
	movq	%rsi, -24(%rbp)
Ltmp198:
	.loc	5 135 36
	movq	%rdi, -96(%rbp)
	movq	%rsi, -88(%rbp)
	.loc	5 135 14 is_stmt 0
	movq	-96(%rbp), %rcx
	movq	-88(%rbp), %rax
	movq	%rcx, -112(%rbp)
	movq	%rax, -104(%rbp)
	movq	-112(%rbp), %rcx
	movq	-104(%rbp), %rax
	movq	%rcx, -16(%rbp)
	movq	%rax, -8(%rbp)
Ltmp199:
	.loc	6 201 13 is_stmt 1
	movq	%rcx, -128(%rbp)
	movq	%rax, -120(%rbp)
Ltmp200:
	.loc	6 485 6
	movq	-128(%rbp), %rax
	movq	-120(%rbp), %rdx
	addq	$128, %rsp
	popq	%rbp
	retq
Ltmp201:
Lfunc_end45:
	.cfi_endproc

	.globl	__ZN4core3ptr91drop_in_place$LT$alloc..boxed..Box$LT$dyn$u20$core..any..Any$u2b$core..marker..Send$GT$$GT$17h8547668fc3fcc395E
	.p2align	4, 0x90
__ZN4core3ptr91drop_in_place$LT$alloc..boxed..Box$LT$dyn$u20$core..any..Any$u2b$core..marker..Send$GT$$GT$17h8547668fc3fcc395E:
Lfunc_begin46:
	.loc	4 490 0
	.cfi_startproc
	.cfi_personality 155, _rust_eh_personality
	.cfi_lsda 16, Lexception7
	pushq	%rbp
	.cfi_def_cfa_offset 16
	.cfi_offset %rbp, -16
	movq	%rsp, %rbp
	.cfi_def_cfa_register %rbp
	subq	$32, %rsp
	movq	%rdi, %rax
	movq	%rax, -32(%rbp)
	movq	%rax, -24(%rbp)
Ltmp208:
	.loc	4 490 1 prologue_end
	movq	(%rax), %rdi
	movq	8(%rax), %rax
	movq	(%rax), %rax
Ltmp202:
	callq	*%rax
Ltmp203:
	jmp	LBB46_3
LBB46_1:
	.loc	4 0 1 is_stmt 0
	movq	-32(%rbp), %rax
	.loc	4 490 1
	movq	(%rax), %rdi
	movq	8(%rax), %rsi
Ltmp205:
	callq	__ZN5alloc5alloc8box_free17h0c34f407a3c04333E
Ltmp206:
	jmp	LBB46_5
LBB46_2:
Ltmp204:
	.loc	4 0 1
	movq	%rax, %rcx
	movl	%edx, %eax
	movq	%rcx, -16(%rbp)
	movl	%eax, -8(%rbp)
	jmp	LBB46_1
LBB46_3:
	movq	-32(%rbp), %rax
	.loc	4 490 1
	movq	(%rax), %rdi
	movq	8(%rax), %rsi
	callq	__ZN5alloc5alloc8box_free17h0c34f407a3c04333E
	addq	$32, %rsp
	popq	%rbp
	retq
LBB46_4:
Ltmp207:
	callq	__ZN4core9panicking19panic_cannot_unwind17h1fbca7e1d7f56ae1E
LBB46_5:
	movq	-16(%rbp), %rdi
	callq	__Unwind_Resume
Ltmp209:
Lfunc_end46:
	.cfi_endproc
	.section	__TEXT,__gcc_except_tab
	.p2align	2
GCC_except_table46:
Lexception7:
	.byte	255
	.byte	255
	.byte	1
	.uleb128 Lcst_end7-Lcst_begin7
Lcst_begin7:
	.uleb128 Ltmp202-Lfunc_begin46
	.uleb128 Ltmp203-Ltmp202
	.uleb128 Ltmp204-Lfunc_begin46
	.byte	0
	.uleb128 Ltmp205-Lfunc_begin46
	.uleb128 Ltmp206-Ltmp205
	.uleb128 Ltmp207-Lfunc_begin46
	.byte	0
	.uleb128 Ltmp206-Lfunc_begin46
	.uleb128 Lfunc_end46-Ltmp206
	.byte	0
	.byte	0
Lcst_end7:
	.p2align	2

	.section	__TEXT,__text,regular,pure_instructions
	.globl	__ZN4core3ptr9const_ptr33_$LT$impl$u20$$BP$const$u20$T$GT$7is_null17h6d5d01d37436c2e9E
	.p2align	4, 0x90
__ZN4core3ptr9const_ptr33_$LT$impl$u20$$BP$const$u20$T$GT$7is_null17h6d5d01d37436c2e9E:
Lfunc_begin47:
	.loc	3 36 0 is_stmt 1
	.cfi_startproc
	pushq	%rbp
	.cfi_def_cfa_offset 16
	.cfi_offset %rbp, -16
	movq	%rsp, %rbp
	.cfi_def_cfa_register %rbp
	subq	$48, %rsp
	movq	%rdi, -40(%rbp)
Ltmp210:
	.loc	3 53 36 prologue_end
	movq	%rdi, -48(%rbp)
	.loc	3 53 18 is_stmt 0
	movq	-48(%rbp), %rax
	movq	%rax, -32(%rbp)
Ltmp211:
	.loc	3 39 13 is_stmt 1
	movq	%rax, -24(%rbp)
Ltmp212:
	.loc	3 209 33
	movq	%rax, -16(%rbp)
	.loc	3 209 18 is_stmt 0
	movq	%rax, -8(%rbp)
Ltmp213:
	.loc	3 39 13 is_stmt 1
	cmpq	$0, -8(%rbp)
	sete	%al
Ltmp214:
	.loc	3 54 6
	andb	$1, %al
	movzbl	%al, %eax
	addq	$48, %rsp
	popq	%rbp
	retq
Ltmp215:
Lfunc_end47:
	.cfi_endproc

	.p2align	4, 0x90
__ZN4core4hint21unreachable_unchecked17hec569c479f6f828eE:
Lfunc_begin48:
	.loc	11 100 0
	.cfi_startproc
	pushq	%rbp
	.cfi_def_cfa_offset 16
	.cfi_offset %rbp, -16
	movq	%rsp, %rbp
	.cfi_def_cfa_register %rbp
Ltmp216:
	.loc	11 104 9 prologue_end
	ud2
Ltmp217:
Lfunc_end48:
	.cfi_endproc

	.p2align	4, 0x90
__ZN4core4time8Duration12subsec_nanos17h3b35d093eb321948E:
Lfunc_begin49:
	.file	23 "/rustc/2c8cc343237b8f7d5a3c3703e3a87f2eb2c54a74/library/core/src" "time.rs"
	.loc	23 406 0
	.cfi_startproc
	pushq	%rbp
	.cfi_def_cfa_offset 16
	.cfi_offset %rbp, -16
	movq	%rsp, %rbp
	.cfi_def_cfa_register %rbp
	pushq	%rax
	movq	%rdi, -8(%rbp)
Ltmp218:
	.loc	23 407 9 prologue_end
	movl	8(%rdi), %eax
	.loc	23 408 6
	addq	$8, %rsp
	popq	%rbp
	retq
Ltmp219:
Lfunc_end49:
	.cfi_endproc

	.p2align	4, 0x90
__ZN4core4time8Duration7as_secs17h17d0a4fb289bb927E:
Lfunc_begin50:
	.loc	23 337 0
	.cfi_startproc
	pushq	%rbp
	.cfi_def_cfa_offset 16
	.cfi_offset %rbp, -16
	movq	%rsp, %rbp
	.cfi_def_cfa_register %rbp
	pushq	%rax
	movq	%rdi, -8(%rbp)
Ltmp220:
	.loc	23 338 9 prologue_end
	movq	(%rdi), %rax
	.loc	23 339 6
	addq	$8, %rsp
	popq	%rbp
	retq
Ltmp221:
Lfunc_end50:
	.cfi_endproc

	.p2align	4, 0x90
__ZN4core5alloc6layout6Layout5array5inner17h4c0b79480580c229E:
Lfunc_begin51:
	.file	24 "/rustc/2c8cc343237b8f7d5a3c3703e3a87f2eb2c54a74/library/core/src/alloc" "layout.rs"
	.loc	24 441 0
	.cfi_startproc
	pushq	%rbp
	.cfi_def_cfa_offset 16
	.cfi_offset %rbp, -16
	movq	%rsp, %rbp
	.cfi_def_cfa_register %rbp
	subq	$176, %rsp
	movq	%rdi, -168(%rbp)
	movq	%rsi, -160(%rbp)
	movq	%rdx, -152(%rbp)
	movq	%rdi, -88(%rbp)
	movq	%rsi, -80(%rbp)
	movq	%rdx, -72(%rbp)
Ltmp222:
	.loc	24 452 16 prologue_end
	cmpq	$0, %rdi
	jne	LBB51_2
	movb	$0, -121(%rbp)
	jmp	LBB51_5
LBB51_2:
	.loc	24 0 16 is_stmt 0
	movq	-168(%rbp), %rax
	movq	-160(%rbp), %rcx
	.loc	24 452 68
	movq	%rcx, -64(%rbp)
Ltmp223:
	.loc	24 93 32 is_stmt 1
	movq	%rcx, -56(%rbp)
Ltmp224:
	.file	25 "/rustc/2c8cc343237b8f7d5a3c3703e3a87f2eb2c54a74/library/core/src/ptr" "alignment.rs"
	.loc	25 97 9
	movq	%rcx, -104(%rbp)
	movq	-104(%rbp), %rdx
Ltmp225:
	.loc	24 93 31
	subq	$1, %rdx
	.loc	24 93 9 is_stmt 0
	movabsq	$9223372036854775807, %rcx
	subq	%rdx, %rcx
	movq	%rcx, -176(%rbp)
Ltmp226:
	.loc	24 452 41 is_stmt 1
	cmpq	$0, %rax
	sete	%al
	testb	$1, %al
	jne	LBB51_4
	.loc	24 0 41 is_stmt 0
	movq	-168(%rbp), %rcx
	movq	-176(%rbp), %rax
	.loc	24 452 41
	xorl	%edx, %edx
	divq	%rcx
	movq	%rax, %rcx
	movq	-152(%rbp), %rax
	.loc	24 452 37
	cmpq	%rcx, %rax
	seta	%al
	.loc	24 452 16
	andb	$1, %al
	movb	%al, -121(%rbp)
	jmp	LBB51_5
LBB51_4:
	.loc	24 452 41
	leaq	_str.0(%rip), %rdi
	leaq	l___unnamed_14(%rip), %rdx
	movl	$25, %esi
	callq	__ZN4core9panicking5panic17hc1bc45270cf64b03E
LBB51_5:
	.loc	24 452 16
	testb	$1, -121(%rbp)
	jne	LBB51_7
	.loc	24 0 16
	movq	-160(%rbp), %rax
	movq	-152(%rbp), %rdx
	movq	-168(%rbp), %rcx
	.loc	24 456 30 is_stmt 1
	imulq	%rdx, %rcx
	movq	%rcx, -48(%rbp)
Ltmp227:
	.loc	24 461 59
	movq	%rcx, -40(%rbp)
	.loc	24 461 71 is_stmt 0
	movq	%rax, -32(%rbp)
Ltmp228:
	.loc	25 97 9 is_stmt 1
	movq	%rax, -96(%rbp)
	movq	-96(%rbp), %rax
	movq	%rax, -24(%rbp)
Ltmp229:
	.loc	24 120 65
	movq	%rax, -16(%rbp)
Ltmp230:
	.loc	25 89 18
	movq	%rax, -8(%rbp)
	movq	-8(%rbp), %rax
Ltmp231:
	.loc	24 120 18
	movq	%rcx, -120(%rbp)
	movq	%rax, -112(%rbp)
Ltmp232:
	.loc	24 461 22
	movq	-120(%rbp), %rcx
	movq	-112(%rbp), %rax
	movq	%rcx, -144(%rbp)
	movq	%rax, -136(%rbp)
Ltmp233:
	.loc	24 462 10
	jmp	LBB51_8
LBB51_7:
	.loc	24 453 24
	movq	$0, -136(%rbp)
LBB51_8:
	.loc	24 462 10
	movq	-144(%rbp), %rax
	movq	-136(%rbp), %rdx
	addq	$176, %rsp
	popq	%rbp
	retq
Ltmp234:
Lfunc_end51:
	.cfi_endproc

	.globl	__ZN4core6option15Option$LT$T$GT$6map_or17hd03a2c693a27a0f7E
	.p2align	4, 0x90
__ZN4core6option15Option$LT$T$GT$6map_or17hd03a2c693a27a0f7E:
Lfunc_begin52:
	.file	26 "/rustc/2c8cc343237b8f7d5a3c3703e3a87f2eb2c54a74/library/core/src" "option.rs"
	.loc	26 1026 0
	.cfi_startproc
	.cfi_personality 155, _rust_eh_personality
	.cfi_lsda 16, Lexception8
	pushq	%rbp
	.cfi_def_cfa_offset 16
	.cfi_offset %rbp, -16
	movq	%rsp, %rbp
	.cfi_def_cfa_register %rbp
	subq	$96, %rsp
	movq	%rdx, -88(%rbp)
	movq	%rdi, -80(%rbp)
	movq	%rsi, -72(%rbp)
	movq	%rdx, -40(%rbp)
Ltmp238:
	.loc	26 1032 15 prologue_end
	movb	$1, -41(%rbp)
	movb	$1, -42(%rbp)
	.loc	26 1032 9 is_stmt 0
	cmpq	$0, -80(%rbp)
	jne	LBB52_2
	.loc	26 0 9
	movq	-88(%rbp), %rax
	.loc	26 1034 21 is_stmt 1
	movb	$0, -41(%rbp)
	movq	%rax, -64(%rbp)
	jmp	LBB52_6
LBB52_2:
	.loc	26 1033 18
	movq	-72(%rbp), %rax
	movq	%rax, -24(%rbp)
Ltmp239:
	.loc	26 1033 24 is_stmt 0
	movb	$0, -42(%rbp)
	movq	%rax, -56(%rbp)
	movq	-56(%rbp), %rdi
Ltmp235:
	callq	__ZN8dispatch16time_after_delay28_$u7b$$u7b$closure$u7d$$u7d$17h3e5fd841ed4135b7E
Ltmp236:
	movq	%rax, -96(%rbp)
	jmp	LBB52_5
Ltmp240:
LBB52_3:
	.loc	26 1036 5 is_stmt 1
	testb	$1, -41(%rbp)
	jne	LBB52_10
	jmp	LBB52_9
LBB52_4:
Ltmp237:
	.loc	26 0 5 is_stmt 0
	movq	%rax, %rcx
	movl	%edx, %eax
	movq	%rcx, -16(%rbp)
	movl	%eax, -8(%rbp)
	jmp	LBB52_3
LBB52_5:
	movq	-96(%rbp), %rax
Ltmp241:
	.loc	26 1033 24 is_stmt 1
	movq	%rax, -64(%rbp)
Ltmp242:
LBB52_6:
	.loc	26 1036 5
	testb	$1, -42(%rbp)
	jne	LBB52_8
LBB52_7:
	testb	$1, -41(%rbp)
	jne	LBB52_12
	jmp	LBB52_11
LBB52_8:
	jmp	LBB52_7
LBB52_9:
	.loc	26 1026 5
	movq	-16(%rbp), %rdi
	callq	__Unwind_Resume
LBB52_10:
	.loc	26 1036 5
	jmp	LBB52_9
LBB52_11:
	.loc	26 1036 6 is_stmt 0
	movq	-64(%rbp), %rax
	addq	$96, %rsp
	popq	%rbp
	retq
LBB52_12:
	.loc	26 1036 5
	jmp	LBB52_11
Ltmp243:
Lfunc_end52:
	.cfi_endproc
	.section	__TEXT,__gcc_except_tab
	.p2align	2
GCC_except_table52:
Lexception8:
	.byte	255
	.byte	255
	.byte	1
	.uleb128 Lcst_end8-Lcst_begin8
Lcst_begin8:
	.uleb128 Ltmp235-Lfunc_begin52
	.uleb128 Ltmp236-Ltmp235
	.uleb128 Ltmp237-Lfunc_begin52
	.byte	0
	.uleb128 Ltmp236-Lfunc_begin52
	.uleb128 Lfunc_end52-Ltmp236
	.byte	0
	.byte	0
Lcst_end8:
	.p2align	2

	.section	__TEXT,__text,regular,pure_instructions
	.globl	__ZN4core6option15Option$LT$T$GT$8and_then17h04cfd3b5bfb780abE
	.p2align	4, 0x90
__ZN4core6option15Option$LT$T$GT$8and_then17h04cfd3b5bfb780abE:
Lfunc_begin53:
	.loc	26 1303 0 is_stmt 1
	.cfi_startproc
	pushq	%rbp
	.cfi_def_cfa_offset 16
	.cfi_offset %rbp, -16
	movq	%rsp, %rbp
	.cfi_def_cfa_register %rbp
	subq	$80, %rsp
	movq	%rdx, -72(%rbp)
	movq	%rdi, -64(%rbp)
	movq	%rsi, -56(%rbp)
	movq	%rdx, -16(%rbp)
Ltmp244:
	.loc	26 1308 15 prologue_end
	movb	$1, -17(%rbp)
	.loc	26 1308 9 is_stmt 0
	cmpq	$0, -64(%rbp)
	jne	LBB53_2
	.loc	26 1310 21 is_stmt 1
	movq	$0, -48(%rbp)
	jmp	LBB53_3
LBB53_2:
	.loc	26 0 21 is_stmt 0
	movq	-72(%rbp), %rdi
	.loc	26 1309 18 is_stmt 1
	movq	-56(%rbp), %rax
	movq	%rax, -8(%rbp)
Ltmp245:
	.loc	26 1309 24 is_stmt 0
	movb	$0, -17(%rbp)
	movq	%rax, -32(%rbp)
	movq	-32(%rbp), %rsi
	callq	__ZN8dispatch16time_after_delay28_$u7b$$u7b$closure$u7d$$u7d$17he111bd1658620139E
	movq	%rdx, -40(%rbp)
	movq	%rax, -48(%rbp)
Ltmp246:
LBB53_3:
	.loc	26 1312 5 is_stmt 1
	testb	$1, -17(%rbp)
	jne	LBB53_5
LBB53_4:
	.loc	26 1312 6 is_stmt 0
	movq	-48(%rbp), %rax
	movq	-40(%rbp), %rdx
	addq	$80, %rsp
	popq	%rbp
	retq
LBB53_5:
	.loc	26 1312 5
	jmp	LBB53_4
Ltmp247:
Lfunc_end53:
	.cfi_endproc

	.globl	__ZN4core6option15Option$LT$T$GT$8and_then17h2c1c9bd0c8785e3eE
	.p2align	4, 0x90
__ZN4core6option15Option$LT$T$GT$8and_then17h2c1c9bd0c8785e3eE:
Lfunc_begin54:
	.loc	26 1303 0 is_stmt 1
	.cfi_startproc
	pushq	%rbp
	.cfi_def_cfa_offset 16
	.cfi_offset %rbp, -16
	movq	%rsp, %rbp
	.cfi_def_cfa_register %rbp
	subq	$64, %rsp
	movq	%rdi, -64(%rbp)
	movq	%rsi, -56(%rbp)
Ltmp248:
	.loc	26 1308 15 prologue_end
	movb	$1, -17(%rbp)
	.loc	26 1308 9 is_stmt 0
	cmpq	$0, -64(%rbp)
	jne	LBB54_2
	.loc	26 1310 21 is_stmt 1
	movq	$0, -48(%rbp)
	jmp	LBB54_3
LBB54_2:
	.loc	26 1309 18
	movq	-56(%rbp), %rax
	movq	%rax, -8(%rbp)
Ltmp249:
	.loc	26 1309 24 is_stmt 0
	movb	$0, -17(%rbp)
	movq	%rax, -32(%rbp)
	movq	-32(%rbp), %rdi
	callq	__ZN8dispatch16time_after_delay28_$u7b$$u7b$closure$u7d$$u7d$17heb7363f27319ea05E
	movq	%rdx, -40(%rbp)
	movq	%rax, -48(%rbp)
Ltmp250:
LBB54_3:
	.loc	26 1312 5 is_stmt 1
	testb	$1, -17(%rbp)
	jne	LBB54_5
LBB54_4:
	.loc	26 1312 6 is_stmt 0
	movq	-48(%rbp), %rax
	movq	-40(%rbp), %rdx
	addq	$64, %rsp
	popq	%rbp
	retq
LBB54_5:
	.loc	26 1312 5
	jmp	LBB54_4
Ltmp251:
Lfunc_end54:
	.cfi_endproc

	.globl	__ZN4core6result19Result$LT$T$C$E$GT$16unwrap_unchecked17h6795891d38008da3E
	.p2align	4, 0x90
__ZN4core6result19Result$LT$T$C$E$GT$16unwrap_unchecked17h6795891d38008da3E:
Lfunc_begin55:
	.loc	8 1530 0 is_stmt 1
	.cfi_startproc
	.cfi_personality 155, _rust_eh_personality
	.cfi_lsda 16, Lexception9
	pushq	%rbp
	.cfi_def_cfa_offset 16
	.cfi_offset %rbp, -16
	movq	%rsp, %rbp
	.cfi_def_cfa_register %rbp
	subq	$64, %rsp
	movq	%rdi, -48(%rbp)
	movq	%rsi, -40(%rbp)
Ltmp255:
	.loc	8 1532 15 prologue_end
	xorl	%eax, %eax
	movl	$1, %ecx
	cmpq	$0, -40(%rbp)
	cmoveq	%rcx, %rax
	.loc	8 1532 9 is_stmt 0
	cmpq	$0, %rax
	jne	LBB55_2
	.loc	8 1533 16 is_stmt 1
	movq	-48(%rbp), %rcx
	movq	%rcx, -64(%rbp)
	movq	-40(%rbp), %rax
	movq	%rax, -56(%rbp)
	movq	%rcx, -16(%rbp)
	movq	%rax, -8(%rbp)
	.loc	8 1537 5
	xorl	%eax, %eax
	movl	$1, %ecx
	cmpq	$0, -40(%rbp)
	cmoveq	%rcx, %rax
	cmpq	$0, %rax
	je	LBB55_10
	jmp	LBB55_11
LBB55_2:
Ltmp252:
	.loc	8 1535 32
	callq	__ZN4core4hint21unreachable_unchecked17hec569c479f6f828eE
Ltmp253:
	jmp	LBB55_5
LBB55_3:
	.loc	8 1537 5
	xorl	%eax, %eax
	movl	$1, %ecx
	cmpq	$0, -40(%rbp)
	cmoveq	%rcx, %rax
	cmpq	$0, %rax
	je	LBB55_6
	jmp	LBB55_7
LBB55_4:
Ltmp254:
	.loc	8 0 5 is_stmt 0
	movq	%rax, %rcx
	movl	%edx, %eax
	movq	%rcx, -32(%rbp)
	movl	%eax, -24(%rbp)
	jmp	LBB55_3
LBB55_5:
	ud2
LBB55_6:
	.loc	8 1537 5
	movb	$1, %al
	testb	$1, %al
	jne	LBB55_9
	jmp	LBB55_8
LBB55_7:
	jmp	LBB55_8
LBB55_8:
	.loc	8 1530 5 is_stmt 1
	movq	-32(%rbp), %rdi
	callq	__Unwind_Resume
LBB55_9:
	.loc	8 1537 5
	jmp	LBB55_8
LBB55_10:
	.loc	8 0 5 is_stmt 0
	movq	-56(%rbp), %rdx
	movq	-64(%rbp), %rax
	.loc	8 1537 6
	addq	$64, %rsp
	popq	%rbp
	retq
LBB55_11:
	.loc	8 1537 5
	jmp	LBB55_10
Ltmp256:
Lfunc_end55:
	.cfi_endproc
	.section	__TEXT,__gcc_except_tab
	.p2align	2
GCC_except_table55:
Lexception9:
	.byte	255
	.byte	255
	.byte	1
	.uleb128 Lcst_end9-Lcst_begin9
Lcst_begin9:
	.uleb128 Ltmp252-Lfunc_begin55
	.uleb128 Ltmp253-Ltmp252
	.uleb128 Ltmp254-Lfunc_begin55
	.byte	0
	.uleb128 Ltmp253-Lfunc_begin55
	.uleb128 Lfunc_end55-Ltmp253
	.byte	0
	.byte	0
Lcst_end9:
	.p2align	2

	.section	__TEXT,__text,regular,pure_instructions
	.globl	__ZN4core6result19Result$LT$T$C$E$GT$6unwrap17h4715e2357c92a7e8E
	.p2align	4, 0x90
__ZN4core6result19Result$LT$T$C$E$GT$6unwrap17h4715e2357c92a7e8E:
Lfunc_begin56:
	.loc	8 1106 0 is_stmt 1
	.cfi_startproc
	.cfi_personality 155, _rust_eh_personality
	.cfi_lsda 16, Lexception10
	pushq	%rbp
	.cfi_def_cfa_offset 16
	.cfi_offset %rbp, -16
	movq	%rsp, %rbp
	.cfi_def_cfa_register %rbp
	subq	$80, %rsp
	movq	%rdi, -80(%rbp)
Ltmp263:
	movq	%rsi, -72(%rbp)
Ltmp264:
	.loc	8 1110 15 prologue_end
	movq	16(%rdi), %rdx
	movl	$1, %eax
	xorl	%ecx, %ecx
	cmpq	$0, %rdx
	cmoveq	%rcx, %rax
	.loc	8 1110 9 is_stmt 0
	cmpq	$0, %rax
Ltmp265:
	jne	LBB56_2
Ltmp266:
	.loc	8 0 9
	movq	-80(%rbp), %rcx
	.loc	8 1111 16 is_stmt 1
	movq	(%rcx), %rax
	movq	8(%rcx), %rdx
	movq	%rax, -16(%rbp)
	movq	%rdx, -8(%rbp)
	.loc	8 1114 6
	addq	$80, %rsp
	popq	%rbp
	retq
Ltmp267:
LBB56_2:
	.loc	8 0 6 is_stmt 0
	movq	-72(%rbp), %r8
	movq	-80(%rbp), %rcx
	.loc	8 1112 17 is_stmt 1
	movq	24(%rcx), %rax
	movq	%rax, -40(%rbp)
	movq	16(%rcx), %rax
	movq	%rax, -48(%rbp)
	movq	(%rcx), %rax
	movq	8(%rcx), %rcx
	movq	%rcx, -56(%rbp)
	movq	%rax, -64(%rbp)
Ltmp257:
Ltmp268:
	.loc	8 1112 23 is_stmt 0
	leaq	l___unnamed_15(%rip), %rdi
	leaq	l___unnamed_2(%rip), %rcx
	movl	$43, %esi
	leaq	-64(%rbp), %rdx
	callq	__ZN4core6result13unwrap_failed17h533573e6d3b6061cE
Ltmp258:
	jmp	LBB56_5
Ltmp269:
LBB56_3:
Ltmp260:
	.loc	8 0 23
	leaq	-64(%rbp), %rdi
	.loc	8 1112 86
	callq	__ZN4core3ptr48drop_in_place$LT$alloc..ffi..c_str..NulError$GT$17hbacd0310fc8db48aE
Ltmp261:
	jmp	LBB56_7
Ltmp270:
LBB56_4:
Ltmp259:
	.loc	8 0 86
	movq	%rax, %rcx
	movl	%edx, %eax
	movq	%rcx, -32(%rbp)
	movl	%eax, -24(%rbp)
	jmp	LBB56_3
Ltmp271:
LBB56_5:
	ud2
Ltmp272:
LBB56_6:
Ltmp262:
	.loc	8 1106 5 is_stmt 1
	callq	__ZN4core9panicking19panic_cannot_unwind17h1fbca7e1d7f56ae1E
Ltmp273:
LBB56_7:
	movq	-32(%rbp), %rdi
	callq	__Unwind_Resume
Ltmp274:
Lfunc_end56:
	.cfi_endproc
	.section	__TEXT,__gcc_except_tab
	.p2align	2
GCC_except_table56:
Lexception10:
	.byte	255
	.byte	255
	.byte	1
	.uleb128 Lcst_end10-Lcst_begin10
Lcst_begin10:
	.uleb128 Ltmp257-Lfunc_begin56
	.uleb128 Ltmp258-Ltmp257
	.uleb128 Ltmp259-Lfunc_begin56
	.byte	0
	.uleb128 Ltmp260-Lfunc_begin56
	.uleb128 Ltmp261-Ltmp260
	.uleb128 Ltmp262-Lfunc_begin56
	.byte	0
	.uleb128 Ltmp261-Lfunc_begin56
	.uleb128 Lfunc_end56-Ltmp261
	.byte	0
	.byte	0
Lcst_end10:
	.p2align	2

	.section	__TEXT,__text,regular,pure_instructions
	.globl	__ZN4core6result19Result$LT$T$C$E$GT$6unwrap17h9de552795098612dE
	.p2align	4, 0x90
__ZN4core6result19Result$LT$T$C$E$GT$6unwrap17h9de552795098612dE:
Lfunc_begin57:
	.loc	8 1106 0
	.cfi_startproc
	.cfi_personality 155, _rust_eh_personality
	.cfi_lsda 16, Lexception11
	pushq	%rbp
	.cfi_def_cfa_offset 16
	.cfi_offset %rbp, -16
	movq	%rsp, %rbp
	.cfi_def_cfa_register %rbp
	subq	$64, %rsp
	movq	%rdi, -64(%rbp)
Ltmp278:
	movq	%rsi, -56(%rbp)
Ltmp279:
	.loc	8 1110 9 prologue_end
	cmpq	$0, (%rdi)
Ltmp280:
	jne	LBB57_2
Ltmp281:
	.loc	8 0 9 is_stmt 0
	movq	-64(%rbp), %rcx
	.loc	8 1111 16 is_stmt 1
	movq	8(%rcx), %rax
	movq	16(%rcx), %rdx
	movq	%rax, -16(%rbp)
	movq	%rdx, -8(%rbp)
	.loc	8 1114 6
	addq	$64, %rsp
	popq	%rbp
	retq
Ltmp282:
LBB57_2:
	.loc	8 0 6 is_stmt 0
	movq	-56(%rbp), %r8
	movq	-64(%rbp), %rcx
	.loc	8 1112 17 is_stmt 1
	movq	8(%rcx), %rax
	movq	16(%rcx), %rcx
	movq	%rcx, -40(%rbp)
	movq	%rax, -48(%rbp)
Ltmp275:
Ltmp283:
	.loc	8 1112 23 is_stmt 0
	leaq	l___unnamed_15(%rip), %rdi
	leaq	l___unnamed_3(%rip), %rcx
	movl	$43, %esi
	leaq	-48(%rbp), %rdx
	callq	__ZN4core6result13unwrap_failed17h533573e6d3b6061cE
Ltmp276:
	jmp	LBB57_5
Ltmp284:
LBB57_3:
	.loc	8 1106 5 is_stmt 1
	movq	-32(%rbp), %rdi
	callq	__Unwind_Resume
Ltmp285:
LBB57_4:
Ltmp277:
	.loc	8 0 5 is_stmt 0
	movq	%rax, %rcx
	movl	%edx, %eax
	movq	%rcx, -32(%rbp)
	movl	%eax, -24(%rbp)
	jmp	LBB57_3
Ltmp286:
LBB57_5:
	ud2
Lfunc_end57:
	.cfi_endproc
	.section	__TEXT,__gcc_except_tab
	.p2align	2
GCC_except_table57:
Lexception11:
	.byte	255
	.byte	255
	.byte	1
	.uleb128 Lcst_end11-Lcst_begin11
Lcst_begin11:
	.uleb128 Ltmp275-Lfunc_begin57
	.uleb128 Ltmp276-Ltmp275
	.uleb128 Ltmp277-Lfunc_begin57
	.byte	0
	.uleb128 Ltmp276-Lfunc_begin57
	.uleb128 Lfunc_end57-Ltmp276
	.byte	0
	.byte	0
Lcst_end11:
	.p2align	2

	.section	__TEXT,__text,regular,pure_instructions
	.globl	__ZN50_$LT$$BP$mut$u20$T$u20$as$u20$core..fmt..Debug$GT$3fmt17heed528f787c51405E
	.p2align	4, 0x90
__ZN50_$LT$$BP$mut$u20$T$u20$as$u20$core..fmt..Debug$GT$3fmt17heed528f787c51405E:
Lfunc_begin58:
	.loc	14 2547 0 is_stmt 1
	.cfi_startproc
	pushq	%rbp
	.cfi_def_cfa_offset 16
	.cfi_offset %rbp, -16
	movq	%rsp, %rbp
	.cfi_def_cfa_register %rbp
	subq	$16, %rsp
	movq	%rdi, -16(%rbp)
	movq	%rsi, -8(%rbp)
Ltmp287:
	.loc	14 2548 9 prologue_end
	callq	__ZN52_$LT$$BP$mut$u20$T$u20$as$u20$core..fmt..Pointer$GT$3fmt17h59c13e8a15f42934E
	.loc	14 2549 6
	andb	$1, %al
	movzbl	%al, %eax
	addq	$16, %rsp
	popq	%rbp
	retq
Ltmp288:
Lfunc_end58:
	.cfi_endproc

	.globl	__ZN50_$LT$T$u20$as$u20$core..convert..Into$LT$U$GT$$GT$4into17he17d7ab24add3e31E
	.p2align	4, 0x90
__ZN50_$LT$T$u20$as$u20$core..convert..Into$LT$U$GT$$GT$4into17he17d7ab24add3e31E:
Lfunc_begin59:
	.file	27 "/rustc/2c8cc343237b8f7d5a3c3703e3a87f2eb2c54a74/library/core/src/convert" "mod.rs"
	.loc	27 725 0
	.cfi_startproc
	pushq	%rbp
	.cfi_def_cfa_offset 16
	.cfi_offset %rbp, -16
	movq	%rsp, %rbp
	.cfi_def_cfa_register %rbp
	subq	$16, %rsp
	movq	%rdi, -8(%rbp)
Ltmp289:
	.loc	27 726 9 prologue_end
	callq	__ZN119_$LT$core..ptr..non_null..NonNull$LT$T$GT$$u20$as$u20$core..convert..From$LT$core..ptr..unique..Unique$LT$T$GT$$GT$$GT$4from17ha90dc6ced8a67283E
	.loc	27 727 6
	addq	$16, %rsp
	popq	%rbp
	retq
Ltmp290:
Lfunc_end59:
	.cfi_endproc

	.globl	__ZN52_$LT$$BP$mut$u20$T$u20$as$u20$core..fmt..Pointer$GT$3fmt17h59c13e8a15f42934E
	.p2align	4, 0x90
__ZN52_$LT$$BP$mut$u20$T$u20$as$u20$core..fmt..Pointer$GT$3fmt17h59c13e8a15f42934E:
Lfunc_begin60:
	.loc	14 2518 0
	.cfi_startproc
	pushq	%rbp
	.cfi_def_cfa_offset 16
	.cfi_offset %rbp, -16
	movq	%rsp, %rbp
	.cfi_def_cfa_register %rbp
	subq	$32, %rsp
	movq	%rdi, -16(%rbp)
	movq	%rsi, -8(%rbp)
Ltmp291:
	.loc	14 2519 24 prologue_end
	movq	(%rdi), %rax
	movq	%rax, -24(%rbp)
	.loc	14 2519 9 is_stmt 0
	leaq	-24(%rbp), %rdi
	callq	__ZN54_$LT$$BP$const$u20$T$u20$as$u20$core..fmt..Pointer$GT$3fmt17h0858a93ff57f2437E
	.loc	14 2520 6 is_stmt 1
	andb	$1, %al
	movzbl	%al, %eax
	addq	$32, %rsp
	popq	%rbp
	retq
Ltmp292:
Lfunc_end60:
	.cfi_endproc

	.globl	__ZN54_$LT$$BP$const$u20$T$u20$as$u20$core..fmt..Pointer$GT$3fmt17h0858a93ff57f2437E
	.p2align	4, 0x90
__ZN54_$LT$$BP$const$u20$T$u20$as$u20$core..fmt..Pointer$GT$3fmt17h0858a93ff57f2437E:
Lfunc_begin61:
	.loc	14 2478 0
	.cfi_startproc
	pushq	%rbp
	.cfi_def_cfa_offset 16
	.cfi_offset %rbp, -16
	movq	%rsp, %rbp
	.cfi_def_cfa_register %rbp
	subq	$32, %rsp
	movq	%rdi, -32(%rbp)
	movq	%rsi, -24(%rbp)
Ltmp293:
	.loc	14 2480 28 prologue_end
	movq	(%rdi), %rdi
	.loc	14 2480 27 is_stmt 0
	movq	%rdi, -16(%rbp)
Ltmp294:
	.loc	3 241 9 is_stmt 1
	movq	%rdi, -8(%rbp)
Ltmp295:
	.loc	14 2480 9
	callq	__ZN4core3fmt17pointer_fmt_inner17hfee30366ae14be28E
	.loc	14 2481 6
	andb	$1, %al
	movzbl	%al, %eax
	addq	$32, %rsp
	popq	%rbp
	retq
Ltmp296:
Lfunc_end61:
	.cfi_endproc

	.globl	__ZN5alloc3ffi5c_str7CString3new17h179f0ba5ec2ffa82E
	.p2align	4, 0x90
__ZN5alloc3ffi5c_str7CString3new17h179f0ba5ec2ffa82E:
Lfunc_begin62:
	.file	28 "/rustc/2c8cc343237b8f7d5a3c3703e3a87f2eb2c54a74/library/alloc/src/ffi" "c_str.rs"
	.loc	28 261 0
	.cfi_startproc
	pushq	%rbp
	.cfi_def_cfa_offset 16
	.cfi_offset %rbp, -16
	movq	%rsp, %rbp
	.cfi_def_cfa_register %rbp
	subq	$32, %rsp
	movq	%rdi, %rax
	movq	%rax, -24(%rbp)
	movq	%rsi, -16(%rbp)
	movq	%rdx, -8(%rbp)
Ltmp297:
	.loc	28 316 9 prologue_end
	callq	__ZN72_$LT$$RF$str$u20$as$u20$alloc..ffi..c_str..CString..new..SpecNewImpl$GT$13spec_new_impl17h92fd9a324c566e58E
	movq	-24(%rbp), %rax
	.loc	28 317 6
	addq	$32, %rsp
	popq	%rbp
	retq
Ltmp298:
Lfunc_end62:
	.cfi_endproc

	.p2align	4, 0x90
__ZN5alloc5alloc15exchange_malloc17hedaf0648359c2c1eE:
Lfunc_begin63:
	.file	29 "/rustc/2c8cc343237b8f7d5a3c3703e3a87f2eb2c54a74/library/alloc/src" "alloc.rs"
	.loc	29 324 0
	.cfi_startproc
	pushq	%rbp
	.cfi_def_cfa_offset 16
	.cfi_offset %rbp, -16
	movq	%rsp, %rbp
	.cfi_def_cfa_register %rbp
	subq	$208, %rsp
	movq	%rdi, -160(%rbp)
	movq	%rsi, -152(%rbp)
Ltmp299:
	.loc	29 325 61 prologue_end
	movq	%rdi, -144(%rbp)
	.loc	29 325 67 is_stmt 0
	movq	%rsi, -136(%rbp)
Ltmp300:
	.loc	24 120 65 is_stmt 1
	movq	%rsi, -128(%rbp)
Ltmp301:
	.loc	25 89 18
	movq	%rsi, -120(%rbp)
	movq	-120(%rbp), %rax
Ltmp302:
	.loc	24 120 18
	movq	%rdi, -200(%rbp)
	movq	%rax, -192(%rbp)
Ltmp303:
	.loc	29 326 11
	leaq	l___unnamed_12(%rip), %rdi
	movq	%rdi, -112(%rbp)
	.loc	29 326 27 is_stmt 0
	movq	-200(%rbp), %rsi
	movq	-192(%rbp), %rdx
	movq	%rsi, -104(%rbp)
	movq	%rdx, -96(%rbp)
	xorl	%ecx, %ecx
Ltmp304:
	.loc	29 237 9 is_stmt 1
	callq	__ZN5alloc5alloc6Global10alloc_impl17hd49c9411dc3cb528E
	movq	%rdx, -176(%rbp)
	movq	%rax, -184(%rbp)
Ltmp305:
	.loc	29 326 11
	movq	-184(%rbp), %rdx
	xorl	%eax, %eax
	movl	$1, %ecx
	cmpq	$0, %rdx
	cmoveq	%rcx, %rax
	.loc	29 326 5 is_stmt 0
	cmpq	$0, %rax
	jne	LBB63_2
	.loc	29 327 12 is_stmt 1
	movq	-184(%rbp), %rax
	movq	-176(%rbp), %rcx
	movq	%rax, -88(%rbp)
	movq	%rcx, -80(%rbp)
Ltmp306:
	.loc	29 327 20 is_stmt 0
	movq	%rax, -72(%rbp)
	movq	%rcx, -64(%rbp)
Ltmp307:
	.loc	6 548 9 is_stmt 1
	movq	%rax, -56(%rbp)
	movq	%rcx, -48(%rbp)
Ltmp308:
	.loc	6 529 41
	movq	%rax, -40(%rbp)
	movq	%rcx, -32(%rbp)
Ltmp309:
	.loc	6 326 9
	movq	%rax, -24(%rbp)
	movq	%rcx, -16(%rbp)
Ltmp310:
	.loc	22 2037 9
	movq	%rax, -8(%rbp)
Ltmp311:
	.loc	6 201 13
	movq	%rax, -168(%rbp)
Ltmp312:
	.loc	6 326 9
	movq	-168(%rbp), %rax
Ltmp313:
	.loc	29 330 2
	addq	$208, %rsp
	popq	%rbp
	retq
LBB63_2:
Ltmp314:
	.loc	29 328 38
	movq	-200(%rbp), %rdi
	movq	-192(%rbp), %rsi
	.loc	29 328 19 is_stmt 0
	callq	__ZN5alloc5alloc18handle_alloc_error17hb5f6ff255f23ea4dE
Ltmp315:
Lfunc_end63:
	.cfi_endproc

	.p2align	4, 0x90
__ZN5alloc5alloc6Global10alloc_impl17hd49c9411dc3cb528E:
Lfunc_begin64:
	.loc	29 172 0 is_stmt 1
	.cfi_startproc
	pushq	%rbp
	.cfi_def_cfa_offset 16
	.cfi_offset %rbp, -16
	movq	%rsp, %rbp
	.cfi_def_cfa_register %rbp
	subq	$352, %rsp
	movb	%cl, %al
	movb	%al, -345(%rbp)
	movq	%rsi, -336(%rbp)
	movq	%rdx, -328(%rbp)
	movq	%rdi, -208(%rbp)
	andb	$1, %al
	movb	%al, -193(%rbp)
Ltmp316:
	.loc	29 173 15 prologue_end
	leaq	-336(%rbp), %rax
	movq	%rax, -144(%rbp)
Ltmp317:
	.loc	24 129 9
	movq	-336(%rbp), %rax
	movq	%rax, -344(%rbp)
Ltmp318:
	.loc	29 173 9
	cmpq	$0, %rax
	jne	LBB64_2
	.loc	29 174 51
	leaq	-336(%rbp), %rax
	movq	%rax, -48(%rbp)
Ltmp319:
	.loc	24 216 71
	leaq	-336(%rbp), %rax
	movq	%rax, -40(%rbp)
Ltmp320:
	.loc	24 140 9
	movq	-328(%rbp), %rax
	movq	%rax, -32(%rbp)
Ltmp321:
	.loc	25 97 9
	movq	%rax, -232(%rbp)
	movq	-232(%rbp), %rax
	movq	%rax, -24(%rbp)
Ltmp322:
	.loc	4 599 14
	movq	%rax, -16(%rbp)
	movq	-16(%rbp), %rax
	movq	%rax, -8(%rbp)
Ltmp323:
	.loc	6 201 13
	movq	%rax, -304(%rbp)
Ltmp324:
	.loc	29 174 21
	movq	-304(%rbp), %rdi
	xorl	%eax, %eax
	movl	%eax, %esi
	callq	__ZN4core3ptr8non_null26NonNull$LT$$u5b$T$u5d$$GT$20slice_from_raw_parts17hef380c92fe151a39E
	.loc	29 174 18 is_stmt 0
	movq	%rax, -320(%rbp)
	movq	%rdx, -312(%rbp)
	.loc	29 174 72
	jmp	LBB64_15
LBB64_2:
	.loc	29 0 72
	movb	-345(%rbp), %al
	movq	-344(%rbp), %rcx
	.loc	29 176 13 is_stmt 1
	movq	%rcx, -136(%rbp)
Ltmp325:
	.loc	29 177 34
	testb	$1, %al
	jne	LBB64_4
	.loc	29 177 79 is_stmt 0
	movq	-336(%rbp), %rcx
	movq	-328(%rbp), %rax
	movq	%rcx, -272(%rbp)
	movq	%rax, -264(%rbp)
Ltmp326:
	.loc	29 95 27 is_stmt 1
	leaq	-272(%rbp), %rax
	movq	%rax, -104(%rbp)
Ltmp327:
	.loc	24 129 9
	movq	-272(%rbp), %rdi
Ltmp328:
	.loc	29 95 42
	leaq	-272(%rbp), %rax
	movq	%rax, -96(%rbp)
Ltmp329:
	.loc	24 140 9
	movq	-264(%rbp), %rax
	movq	%rax, -88(%rbp)
Ltmp330:
	.loc	25 97 9
	movq	%rax, -216(%rbp)
	movq	-216(%rbp), %rsi
Ltmp331:
	.loc	29 95 14
	callq	___rust_alloc
	movq	%rax, -296(%rbp)
Ltmp332:
	.loc	29 177 31
	jmp	LBB64_5
LBB64_4:
	.loc	29 177 56 is_stmt 0
	movq	-336(%rbp), %rcx
	movq	-328(%rbp), %rax
	movq	%rcx, -288(%rbp)
	movq	%rax, -280(%rbp)
Ltmp333:
	.loc	29 166 34 is_stmt 1
	leaq	-288(%rbp), %rax
	movq	%rax, -128(%rbp)
Ltmp334:
	.loc	24 129 9
	movq	-288(%rbp), %rdi
Ltmp335:
	.loc	29 166 49
	leaq	-288(%rbp), %rax
	movq	%rax, -120(%rbp)
Ltmp336:
	.loc	24 140 9
	movq	-280(%rbp), %rax
	movq	%rax, -112(%rbp)
Ltmp337:
	.loc	25 97 9
	movq	%rax, -224(%rbp)
	movq	-224(%rbp), %rsi
Ltmp338:
	.loc	29 166 14
	callq	___rust_alloc_zeroed
	movq	%rax, -296(%rbp)
Ltmp339:
LBB64_5:
	.loc	29 178 40
	movq	-296(%rbp), %rdi
	.loc	29 178 27 is_stmt 0
	callq	__ZN4core3ptr8non_null16NonNull$LT$T$GT$3new17h2c1953031f46d780E
	movq	%rax, -240(%rbp)
Ltmp340:
	.loc	26 1096 15 is_stmt 1
	movq	-240(%rbp), %rdx
	movl	$1, %eax
	xorl	%ecx, %ecx
	cmpq	$0, %rdx
	cmoveq	%rcx, %rax
	.loc	26 1096 9 is_stmt 0
	cmpq	$0, %rax
	jne	LBB64_7
	.loc	26 1098 21 is_stmt 1
	movq	$0, -248(%rbp)
	.loc	26 1098 28 is_stmt 0
	jmp	LBB64_8
LBB64_7:
	.loc	26 1097 18 is_stmt 1
	movq	-240(%rbp), %rax
	movq	%rax, -80(%rbp)
Ltmp341:
	.loc	26 1097 24 is_stmt 0
	movq	%rax, -248(%rbp)
Ltmp342:
LBB64_8:
	.loc	8 2091 15 is_stmt 1
	movq	-248(%rbp), %rdx
	xorl	%eax, %eax
	movl	$1, %ecx
	cmpq	$0, %rdx
	cmoveq	%rcx, %rax
	.loc	8 2091 9 is_stmt 0
	cmpq	$0, %rax
	jne	LBB64_10
	.loc	8 2092 16 is_stmt 1
	movq	-248(%rbp), %rax
	movq	%rax, -72(%rbp)
Ltmp343:
	.loc	8 2092 22 is_stmt 0
	movq	%rax, -256(%rbp)
Ltmp344:
	.loc	8 2092 45
	jmp	LBB64_11
LBB64_10:
Ltmp345:
	.loc	8 2093 23 is_stmt 1
	movq	$0, -256(%rbp)
Ltmp346:
LBB64_11:
	.loc	29 178 27
	movq	-256(%rbp), %rdx
	xorl	%eax, %eax
	movl	$1, %ecx
	cmpq	$0, %rdx
	cmoveq	%rcx, %rax
	cmpq	$0, %rax
	jne	LBB64_13
	.loc	29 0 27 is_stmt 0
	movq	-344(%rbp), %rsi
	.loc	29 178 27
	movq	-256(%rbp), %rdi
	movq	%rdi, -64(%rbp)
Ltmp347:
	.loc	29 178 27
	movq	%rdi, -56(%rbp)
Ltmp348:
	.loc	29 179 20 is_stmt 1
	callq	__ZN4core3ptr8non_null26NonNull$LT$$u5b$T$u5d$$GT$20slice_from_raw_parts17hef380c92fe151a39E
	.loc	29 179 17 is_stmt 0
	movq	%rax, -320(%rbp)
	movq	%rdx, -312(%rbp)
Ltmp349:
	.loc	29 180 13 is_stmt 1
	jmp	LBB64_15
LBB64_13:
Ltmp350:
	.loc	8 2107 23
	movq	$0, -320(%rbp)
Ltmp351:
LBB64_14:
	.loc	29 182 6
	movq	-320(%rbp), %rax
	movq	-312(%rbp), %rdx
	addq	$352, %rsp
	popq	%rbp
	retq
LBB64_15:
	jmp	LBB64_14
Ltmp352:
Lfunc_end64:
	.cfi_endproc

	.globl	__ZN5alloc5alloc8box_free17h0c34f407a3c04333E
	.p2align	4, 0x90
__ZN5alloc5alloc8box_free17h0c34f407a3c04333E:
Lfunc_begin65:
	.loc	29 340 0
	.cfi_startproc
	.cfi_personality 155, _rust_eh_personality
	.cfi_lsda 16, Lexception12
	pushq	%rbp
	.cfi_def_cfa_offset 16
	.cfi_offset %rbp, -16
	movq	%rsp, %rbp
	.cfi_def_cfa_register %rbp
	subq	$304, %rsp
	movq	%rdi, -288(%rbp)
	movq	%rsi, -280(%rbp)
Ltmp356:
	.loc	29 345 32 prologue_end
	leaq	-288(%rbp), %rax
	movq	%rax, -224(%rbp)
Ltmp357:
	.loc	7 117 18
	leaq	-288(%rbp), %rax
	movq	%rax, -216(%rbp)
Ltmp358:
	.loc	6 376 20
	movq	-288(%rbp), %rcx
	movq	-280(%rbp), %rax
	movq	%rcx, -208(%rbp)
	movq	%rax, -200(%rbp)
Ltmp359:
	.loc	29 345 20
	movq	8(%rax), %rax
	movq	%rax, -192(%rbp)
	movq	-192(%rbp), %rcx
	movq	%rcx, -304(%rbp)
	movq	%rcx, -184(%rbp)
Ltmp360:
	.loc	29 346 38
	leaq	-288(%rbp), %rax
	movq	%rax, -176(%rbp)
Ltmp361:
	.loc	7 117 18
	leaq	-288(%rbp), %rax
	movq	%rax, -168(%rbp)
Ltmp362:
	.loc	6 376 20
	movq	-288(%rbp), %rdx
	movq	-280(%rbp), %rax
	movq	%rdx, -160(%rbp)
	movq	%rax, -152(%rbp)
Ltmp363:
	.loc	29 346 21
	movq	16(%rax), %rax
	movq	%rax, -144(%rbp)
	movq	-144(%rbp), %rax
	movq	%rax, -136(%rbp)
Ltmp364:
	.loc	29 347 56
	movq	%rcx, -128(%rbp)
	.loc	29 347 62 is_stmt 0
	movq	%rax, -120(%rbp)
Ltmp365:
	.loc	24 120 65 is_stmt 1
	movq	%rax, -112(%rbp)
Ltmp366:
	.loc	25 89 18
	movq	%rax, -104(%rbp)
	movq	-104(%rbp), %rax
	movq	%rax, -296(%rbp)
Ltmp367:
	.loc	25 0 18 is_stmt 0
	movq	-296(%rbp), %rax
	movq	-304(%rbp), %rcx
	.loc	24 120 18 is_stmt 1
	movq	%rcx, -264(%rbp)
	movq	%rax, -256(%rbp)
Ltmp368:
	.loc	29 348 37
	movq	-288(%rbp), %rax
	movq	-280(%rbp), %rcx
	movq	%rax, -96(%rbp)
	movq	%rcx, -88(%rbp)
Ltmp369:
	.loc	7 137 22
	movq	%rax, -80(%rbp)
	movq	%rcx, -72(%rbp)
Ltmp370:
	.loc	6 450 41
	movq	%rax, -64(%rbp)
	movq	%rcx, -56(%rbp)
	movq	%rax, -48(%rbp)
Ltmp371:
	.loc	6 201 13
	movq	%rax, -232(%rbp)
Ltmp372:
	.loc	7 191 18
	movq	-232(%rbp), %rax
	.loc	7 191 9 is_stmt 0
	movq	%rax, -240(%rbp)
Ltmp373:
	.loc	6 768 41 is_stmt 1
	movq	-240(%rbp), %rax
	movq	%rax, -40(%rbp)
Ltmp374:
	.loc	7 104 9
	movq	%rax, -32(%rbp)
Ltmp375:
	.loc	6 326 9
	movq	%rax, -24(%rbp)
Ltmp376:
	.loc	6 201 13
	movq	%rax, -248(%rbp)
Ltmp377:
	.loc	29 348 50
	movq	-264(%rbp), %rdx
	movq	-256(%rbp), %rcx
	.loc	29 348 9 is_stmt 0
	movq	-248(%rbp), %rsi
Ltmp353:
	leaq	-272(%rbp), %rdi
	callq	__ZN63_$LT$alloc..alloc..Global$u20$as$u20$core..alloc..Allocator$GT$10deallocate17h9da9acff1735905aE
Ltmp354:
	jmp	LBB65_4
Ltmp378:
LBB65_2:
	.loc	29 340 1 is_stmt 1
	movq	-16(%rbp), %rdi
	callq	__Unwind_Resume
LBB65_3:
Ltmp355:
	.loc	29 0 1 is_stmt 0
	movq	%rax, %rcx
	movl	%edx, %eax
	movq	%rcx, -16(%rbp)
	movl	%eax, -8(%rbp)
	jmp	LBB65_2
LBB65_4:
	.loc	29 350 2 is_stmt 1
	addq	$304, %rsp
	popq	%rbp
	retq
Ltmp379:
Lfunc_end65:
	.cfi_endproc
	.section	__TEXT,__gcc_except_tab
	.p2align	2
GCC_except_table65:
Lexception12:
	.byte	255
	.byte	255
	.byte	1
	.uleb128 Lcst_end12-Lcst_begin12
Lcst_begin12:
	.uleb128 Ltmp353-Lfunc_begin65
	.uleb128 Ltmp354-Ltmp353
	.uleb128 Ltmp355-Lfunc_begin65
	.byte	0
	.uleb128 Ltmp354-Lfunc_begin65
	.uleb128 Lfunc_end65-Ltmp354
	.byte	0
	.byte	0
Lcst_end12:
	.p2align	2

	.section	__TEXT,__text,regular,pure_instructions
	.globl	__ZN5alloc5alloc8box_free17h5d7027537a931453E
	.p2align	4, 0x90
__ZN5alloc5alloc8box_free17h5d7027537a931453E:
Lfunc_begin66:
	.loc	29 340 0
	.cfi_startproc
	.cfi_personality 155, _rust_eh_personality
	.cfi_lsda 16, Lexception13
	pushq	%rbp
	.cfi_def_cfa_offset 16
	.cfi_offset %rbp, -16
	movq	%rsp, %rbp
	.cfi_def_cfa_register %rbp
	subq	$304, %rsp
	movq	%rdi, -288(%rbp)
	movq	%rsi, -280(%rbp)
Ltmp383:
	.loc	29 345 32 prologue_end
	leaq	-288(%rbp), %rax
	movq	%rax, -224(%rbp)
Ltmp384:
	.loc	7 117 18
	leaq	-288(%rbp), %rax
	movq	%rax, -216(%rbp)
Ltmp385:
	.loc	6 376 20
	movq	-288(%rbp), %rcx
	movq	-280(%rbp), %rax
	movq	%rcx, -208(%rbp)
	movq	%rax, -200(%rbp)
Ltmp386:
	.loc	29 345 20
	shlq	$0, %rax
	movq	%rax, -192(%rbp)
	movq	-192(%rbp), %rcx
	movq	%rcx, -304(%rbp)
	movq	%rcx, -184(%rbp)
Ltmp387:
	.loc	29 346 38
	leaq	-288(%rbp), %rax
	movq	%rax, -176(%rbp)
Ltmp388:
	.loc	7 117 18
	leaq	-288(%rbp), %rax
	movq	%rax, -168(%rbp)
Ltmp389:
	.loc	6 376 20
	movq	-288(%rbp), %rdx
	movq	-280(%rbp), %rax
	movq	%rdx, -160(%rbp)
	movq	%rax, -152(%rbp)
Ltmp390:
	.loc	29 346 21
	movq	$1, -144(%rbp)
	movq	-144(%rbp), %rax
	movq	%rax, -136(%rbp)
Ltmp391:
	.loc	29 347 56
	movq	%rcx, -128(%rbp)
	.loc	29 347 62 is_stmt 0
	movq	%rax, -120(%rbp)
Ltmp392:
	.loc	24 120 65 is_stmt 1
	movq	%rax, -112(%rbp)
Ltmp393:
	.loc	25 89 18
	movq	%rax, -104(%rbp)
	movq	-104(%rbp), %rax
	movq	%rax, -296(%rbp)
Ltmp394:
	.loc	25 0 18 is_stmt 0
	movq	-296(%rbp), %rax
	movq	-304(%rbp), %rcx
	.loc	24 120 18 is_stmt 1
	movq	%rcx, -264(%rbp)
	movq	%rax, -256(%rbp)
Ltmp395:
	.loc	29 348 37
	movq	-288(%rbp), %rax
	movq	-280(%rbp), %rcx
	movq	%rax, -96(%rbp)
	movq	%rcx, -88(%rbp)
Ltmp396:
	.loc	7 137 22
	movq	%rax, -80(%rbp)
	movq	%rcx, -72(%rbp)
Ltmp397:
	.loc	6 450 41
	movq	%rax, -64(%rbp)
	movq	%rcx, -56(%rbp)
	movq	%rax, -48(%rbp)
Ltmp398:
	.loc	6 201 13
	movq	%rax, -232(%rbp)
Ltmp399:
	.loc	7 191 18
	movq	-232(%rbp), %rax
	.loc	7 191 9 is_stmt 0
	movq	%rax, -240(%rbp)
Ltmp400:
	.loc	6 768 41 is_stmt 1
	movq	-240(%rbp), %rax
	movq	%rax, -40(%rbp)
Ltmp401:
	.loc	7 104 9
	movq	%rax, -32(%rbp)
Ltmp402:
	.loc	6 326 9
	movq	%rax, -24(%rbp)
Ltmp403:
	.loc	6 201 13
	movq	%rax, -248(%rbp)
Ltmp404:
	.loc	29 348 50
	movq	-264(%rbp), %rdx
	movq	-256(%rbp), %rcx
	.loc	29 348 9 is_stmt 0
	movq	-248(%rbp), %rsi
Ltmp380:
	leaq	-272(%rbp), %rdi
	callq	__ZN63_$LT$alloc..alloc..Global$u20$as$u20$core..alloc..Allocator$GT$10deallocate17h9da9acff1735905aE
Ltmp381:
	jmp	LBB66_4
Ltmp405:
LBB66_2:
	.loc	29 340 1 is_stmt 1
	movq	-16(%rbp), %rdi
	callq	__Unwind_Resume
LBB66_3:
Ltmp382:
	.loc	29 0 1 is_stmt 0
	movq	%rax, %rcx
	movl	%edx, %eax
	movq	%rcx, -16(%rbp)
	movl	%eax, -8(%rbp)
	jmp	LBB66_2
LBB66_4:
	.loc	29 350 2 is_stmt 1
	addq	$304, %rsp
	popq	%rbp
	retq
Ltmp406:
Lfunc_end66:
	.cfi_endproc
	.section	__TEXT,__gcc_except_tab
	.p2align	2
GCC_except_table66:
Lexception13:
	.byte	255
	.byte	255
	.byte	1
	.uleb128 Lcst_end13-Lcst_begin13
Lcst_begin13:
	.uleb128 Ltmp380-Lfunc_begin66
	.uleb128 Ltmp381-Ltmp380
	.uleb128 Ltmp382-Lfunc_begin66
	.byte	0
	.uleb128 Ltmp381-Lfunc_begin66
	.uleb128 Lfunc_end66-Ltmp381
	.byte	0
	.byte	0
Lcst_end13:
	.p2align	2

	.section	__TEXT,__text,regular,pure_instructions
	.globl	__ZN5alloc5boxed16Box$LT$T$C$A$GT$11into_unique17h53b1e996c68d161fE
	.p2align	4, 0x90
__ZN5alloc5boxed16Box$LT$T$C$A$GT$11into_unique17h53b1e996c68d161fE:
Lfunc_begin67:
	.file	30 "/rustc/2c8cc343237b8f7d5a3c3703e3a87f2eb2c54a74/library/alloc/src" "boxed.rs"
	.loc	30 1124 0
	.cfi_startproc
	.cfi_personality 155, _rust_eh_personality
	.cfi_lsda 16, Lexception14
	pushq	%rbp
	.cfi_def_cfa_offset 16
	.cfi_offset %rbp, -16
	movq	%rsp, %rbp
	.cfi_def_cfa_register %rbp
	subq	$192, %rsp
	movq	%rdi, -168(%rbp)
	movq	%rsi, -160(%rbp)
Ltmp413:
	.loc	30 1130 13 prologue_end
	movb	$1, -113(%rbp)
	.loc	30 1130 40 is_stmt 0
	leaq	-168(%rbp), %rax
	movq	%rax, -64(%rbp)
Ltmp414:
	.loc	4 1157 34 is_stmt 1
	leaq	-112(%rbp), %rax
	movq	%rax, -56(%rbp)
Ltmp415:
	.loc	30 1131 33
	movb	$0, -113(%rbp)
	movq	-168(%rbp), %rdi
	movq	-160(%rbp), %rsi
Ltmp407:
	.loc	30 1131 23 is_stmt 0
	callq	__ZN5alloc5boxed16Box$LT$T$C$A$GT$4leak17hf9dd71397674f494E
Ltmp408:
	movq	%rdx, -184(%rbp)
	movq	%rax, -176(%rbp)
	jmp	LBB67_4
Ltmp416:
LBB67_2:
	.loc	30 1132 5 is_stmt 1
	jmp	LBB67_5
LBB67_3:
Ltmp409:
	.loc	30 0 5 is_stmt 0
	movq	%rax, %rcx
	movl	%edx, %eax
	movq	%rcx, -48(%rbp)
	movl	%eax, -40(%rbp)
	jmp	LBB67_2
LBB67_4:
	movq	-184(%rbp), %rax
	movq	-176(%rbp), %rcx
Ltmp417:
	.loc	30 1131 23 is_stmt 1
	movq	%rcx, -32(%rbp)
	movq	%rax, -24(%rbp)
Ltmp418:
	.loc	7 180 34
	movq	%rcx, -16(%rbp)
	movq	%rax, -8(%rbp)
Ltmp419:
	.loc	6 781 18
	movq	%rcx, -104(%rbp)
	movq	%rax, -96(%rbp)
Ltmp420:
	.loc	7 191 18
	movq	-104(%rbp), %rcx
	movq	-96(%rbp), %rax
	.loc	7 191 9 is_stmt 0
	movq	%rcx, -136(%rbp)
	movq	%rax, -128(%rbp)
Ltmp421:
	.loc	30 1131 9 is_stmt 1
	movq	-136(%rbp), %rcx
	movq	-128(%rbp), %rax
	movq	%rcx, -152(%rbp)
	movq	%rax, -144(%rbp)
Ltmp422:
	.loc	30 1132 6
	movq	-152(%rbp), %rax
	movq	-144(%rbp), %rdx
	addq	$192, %rsp
	popq	%rbp
	retq
LBB67_5:
	.loc	30 1132 5 is_stmt 0
	testb	$1, -113(%rbp)
	jne	LBB67_7
LBB67_6:
	.loc	30 1124 5 is_stmt 1
	movq	-48(%rbp), %rdi
	callq	__Unwind_Resume
LBB67_7:
Ltmp410:
	.loc	30 0 5 is_stmt 0
	leaq	-168(%rbp), %rdi
	.loc	30 1132 5 is_stmt 1
	callq	__ZN4core3ptr91drop_in_place$LT$alloc..boxed..Box$LT$dyn$u20$core..any..Any$u2b$core..marker..Send$GT$$GT$17h8547668fc3fcc395E
Ltmp411:
	jmp	LBB67_6
LBB67_8:
Ltmp412:
	.loc	30 1124 5
	callq	__ZN4core9panicking19panic_cannot_unwind17h1fbca7e1d7f56ae1E
Ltmp423:
Lfunc_end67:
	.cfi_endproc
	.section	__TEXT,__gcc_except_tab
	.p2align	2
GCC_except_table67:
Lexception14:
	.byte	255
	.byte	255
	.byte	1
	.uleb128 Lcst_end14-Lcst_begin14
Lcst_begin14:
	.uleb128 Ltmp407-Lfunc_begin67
	.uleb128 Ltmp408-Ltmp407
	.uleb128 Ltmp409-Lfunc_begin67
	.byte	0
	.uleb128 Ltmp408-Lfunc_begin67
	.uleb128 Ltmp410-Ltmp408
	.byte	0
	.byte	0
	.uleb128 Ltmp410-Lfunc_begin67
	.uleb128 Ltmp411-Ltmp410
	.uleb128 Ltmp412-Lfunc_begin67
	.byte	0
Lcst_end14:
	.p2align	2

	.section	__TEXT,__text,regular,pure_instructions
	.globl	__ZN5alloc5boxed16Box$LT$T$C$A$GT$4leak17hf9dd71397674f494E
	.p2align	4, 0x90
__ZN5alloc5boxed16Box$LT$T$C$A$GT$4leak17hf9dd71397674f494E:
Lfunc_begin68:
	.loc	30 1184 0
	.cfi_startproc
	pushq	%rbp
	.cfi_def_cfa_offset 16
	.cfi_offset %rbp, -16
	movq	%rsp, %rbp
	.cfi_def_cfa_register %rbp
	subq	$88, %rsp
	movq	%rdi, -72(%rbp)
	movq	%rsi, -64(%rbp)
Ltmp424:
	.loc	30 1188 47 prologue_end
	movq	%rdi, -56(%rbp)
	movq	%rsi, -48(%rbp)
Ltmp425:
	.loc	20 71 9
	movq	%rdi, -88(%rbp)
	movq	%rsi, -80(%rbp)
	leaq	-88(%rbp), %rax
Ltmp426:
	.loc	30 1188 24
	movq	%rax, -40(%rbp)
	movq	-88(%rbp), %rax
	movq	-80(%rbp), %rdx
	movq	%rax, -32(%rbp)
	movq	%rdx, -24(%rbp)
Ltmp427:
	.loc	7 104 9
	movq	%rax, -16(%rbp)
	movq	%rdx, -8(%rbp)
Ltmp428:
	.loc	30 1189 6
	addq	$88, %rsp
	popq	%rbp
	retq
Ltmp429:
Lfunc_end68:
	.cfi_endproc

	.globl	__ZN5alloc7raw_vec19RawVec$LT$T$C$A$GT$14current_memory17h4cb31e79d558052cE
	.p2align	4, 0x90
__ZN5alloc7raw_vec19RawVec$LT$T$C$A$GT$14current_memory17h4cb31e79d558052cE:
Lfunc_begin69:
	.file	31 "/rustc/2c8cc343237b8f7d5a3c3703e3a87f2eb2c54a74/library/alloc/src" "raw_vec.rs"
	.loc	31 240 0
	.cfi_startproc
	pushq	%rbp
	.cfi_def_cfa_offset 16
	.cfi_offset %rbp, -16
	movq	%rsp, %rbp
	.cfi_def_cfa_register %rbp
	subq	$176, %rsp
	movq	%rsi, -152(%rbp)
	movq	%rdi, -144(%rbp)
	movq	%rdi, -136(%rbp)
	movq	%rsi, -80(%rbp)
Ltmp430:
	.loc	31 241 12 prologue_end
	xorl	%eax, %eax
	testb	$1, %al
	jne	LBB69_2
	.loc	31 0 12 is_stmt 0
	movq	-152(%rbp), %rax
	.loc	31 241 25
	cmpq	$0, (%rax)
	sete	%al
	.loc	31 241 12
	andb	$1, %al
	movb	%al, -121(%rbp)
	jmp	LBB69_3
LBB69_2:
	movb	$1, -121(%rbp)
LBB69_3:
	testb	$1, -121(%rbp)
	jne	LBB69_5
	.loc	31 0 12
	movq	-152(%rbp), %rax
	.loc	31 247 49 is_stmt 1
	movq	(%rax), %rdx
	movq	%rdx, -72(%rbp)
Ltmp431:
	.loc	18 459 5
	movq	$1, -64(%rbp)
Ltmp432:
	.loc	25 89 18
	movq	$1, -56(%rbp)
	movq	-56(%rbp), %rsi
Ltmp433:
	.loc	24 438 16
	movl	$1, %edi
	callq	__ZN4core5alloc6layout6Layout5array5inner17h4c0b79480580c229E
	movq	%rax, %rdi
	movq	%rdx, %rsi
Ltmp434:
	.loc	31 247 30
	leaq	l___unnamed_16(%rip), %rdx
	callq	__ZN4core6result19Result$LT$T$C$E$GT$16unwrap_unchecked17h6795891d38008da3E
	movq	%rax, %rcx
	movq	-152(%rbp), %rax
	movq	%rcx, -168(%rbp)
	movq	%rdx, -160(%rbp)
	movq	%rcx, -48(%rbp)
	movq	%rdx, -40(%rbp)
Ltmp435:
	.loc	31 248 23
	movq	8(%rax), %rax
	movq	%rax, -32(%rbp)
Ltmp436:
	.loc	7 137 22
	movq	%rax, -24(%rbp)
Ltmp437:
	.loc	6 450 41
	movq	%rax, -16(%rbp)
	movq	%rax, -8(%rbp)
Ltmp438:
	.loc	6 201 13
	movq	%rax, -88(%rbp)
Ltmp439:
	.loc	7 191 18
	movq	-88(%rbp), %rax
	.loc	7 191 9 is_stmt 0
	movq	%rax, -96(%rbp)
Ltmp440:
	.loc	31 248 23 is_stmt 1
	movq	-96(%rbp), %rdi
	callq	__ZN50_$LT$T$u20$as$u20$core..convert..Into$LT$U$GT$$GT$4into17he17d7ab24add3e31E
	movq	-168(%rbp), %rcx
	movq	-160(%rbp), %rdx
	movq	%rax, %rsi
	movq	-144(%rbp), %rax
	.loc	31 248 22 is_stmt 0
	movq	%rsi, -120(%rbp)
	movq	%rcx, -112(%rbp)
	movq	%rdx, -104(%rbp)
	.loc	31 248 17
	movq	-120(%rbp), %rcx
	movq	%rcx, (%rax)
	movq	-112(%rbp), %rcx
	movq	%rcx, 8(%rax)
	movq	-104(%rbp), %rcx
	movq	%rcx, 16(%rax)
Ltmp441:
	.loc	31 241 9 is_stmt 1
	jmp	LBB69_6
LBB69_5:
	.loc	31 0 9 is_stmt 0
	movq	-144(%rbp), %rax
	.loc	31 242 13 is_stmt 1
	movq	$0, 16(%rax)
LBB69_6:
	.loc	31 0 13 is_stmt 0
	movq	-136(%rbp), %rax
	.loc	31 251 6 is_stmt 1
	addq	$176, %rsp
	popq	%rbp
	retq
Ltmp442:
Lfunc_end69:
	.cfi_endproc

	.p2align	4, 0x90
__ZN63_$LT$alloc..alloc..Global$u20$as$u20$core..alloc..Allocator$GT$10deallocate17h9da9acff1735905aE:
Lfunc_begin70:
	.loc	29 246 0
	.cfi_startproc
	pushq	%rbp
	.cfi_def_cfa_offset 16
	.cfi_offset %rbp, -16
	movq	%rsp, %rbp
	.cfi_def_cfa_register %rbp
	subq	$112, %rsp
	movq	%rsi, -112(%rbp)
	movq	%rdx, -104(%rbp)
	movq	%rcx, -96(%rbp)
	movq	%rdi, -64(%rbp)
	movq	%rsi, -56(%rbp)
Ltmp443:
	.loc	29 247 12 prologue_end
	leaq	-104(%rbp), %rax
	movq	%rax, -48(%rbp)
	cmpq	$0, -104(%rbp)
	jne	LBB70_2
	.loc	29 247 9 is_stmt 0
	jmp	LBB70_3
LBB70_2:
	.loc	29 0 9
	movq	-112(%rbp), %rdi
	.loc	29 250 30 is_stmt 1
	movq	%rdi, -40(%rbp)
Ltmp444:
	.loc	6 326 9
	movq	%rdi, -32(%rbp)
Ltmp445:
	.loc	29 250 44
	movq	-104(%rbp), %rcx
	movq	-96(%rbp), %rax
	movq	%rcx, -88(%rbp)
	movq	%rax, -80(%rbp)
Ltmp446:
	.loc	29 113 34
	leaq	-88(%rbp), %rax
	movq	%rax, -24(%rbp)
Ltmp447:
	.loc	24 129 9
	movq	-88(%rbp), %rsi
Ltmp448:
	.loc	29 113 49
	leaq	-88(%rbp), %rax
	movq	%rax, -16(%rbp)
Ltmp449:
	.loc	24 140 9
	movq	-80(%rbp), %rax
	movq	%rax, -8(%rbp)
Ltmp450:
	.loc	25 97 9
	movq	%rax, -72(%rbp)
	movq	-72(%rbp), %rdx
Ltmp451:
	.loc	29 113 14
	callq	___rust_dealloc
Ltmp452:
LBB70_3:
	.loc	29 252 6
	addq	$112, %rsp
	popq	%rbp
	retq
Ltmp453:
Lfunc_end70:
	.cfi_endproc

	.p2align	4, 0x90
__ZN68_$LT$alloc..ffi..c_str..CString$u20$as$u20$core..ops..drop..Drop$GT$4drop17h462d0e82cf5c9483E:
Lfunc_begin71:
	.loc	28 701 0
	.cfi_startproc
	pushq	%rbp
	.cfi_def_cfa_offset 16
	.cfi_offset %rbp, -16
	movq	%rsp, %rbp
	.cfi_def_cfa_register %rbp
	subq	$80, %rsp
	movq	%rdi, -80(%rbp)
Ltmp454:
	.loc	28 703 14 prologue_end
	movq	(%rdi), %rax
	movq	8(%rdi), %rcx
	movq	%rax, -72(%rbp)
	movq	%rcx, -64(%rbp)
Ltmp455:
	.loc	17 443 48
	movq	%rax, -56(%rbp)
	movq	%rcx, -48(%rbp)
Ltmp456:
	.loc	2 253 13
	movq	%rax, -40(%rbp)
	movq	%rcx, -32(%rbp)
Ltmp457:
	.loc	22 2037 9
	movq	%rax, -24(%rbp)
Ltmp458:
	.loc	22 1034 18
	movq	%rax, -16(%rbp)
Ltmp459:
	.loc	22 487 18
	movq	%rax, -8(%rbp)
	movq	-8(%rbp), %rax
Ltmp460:
	.loc	28 703 13
	movb	$0, (%rax)
	.loc	28 705 6
	addq	$80, %rsp
	popq	%rbp
	retq
Ltmp461:
Lfunc_end71:
	.cfi_endproc

	.globl	__ZN68_$LT$core..cell..UnsafeCell$LT$T$GT$$u20$as$u20$core..fmt..Debug$GT$3fmt17h4a78fa249e0a25afE
	.p2align	4, 0x90
__ZN68_$LT$core..cell..UnsafeCell$LT$T$GT$$u20$as$u20$core..fmt..Debug$GT$3fmt17h4a78fa249e0a25afE:
Lfunc_begin72:
	.loc	14 2666 0
	.cfi_startproc
	pushq	%rbp
	.cfi_def_cfa_offset 16
	.cfi_offset %rbp, -16
	movq	%rsp, %rbp
	.cfi_def_cfa_register %rbp
	subq	$32, %rsp
	movq	%rdi, -16(%rbp)
	movq	%rsi, -8(%rbp)
Ltmp462:
	.loc	14 2667 9 prologue_end
	leaq	-32(%rbp), %rdi
	leaq	l___unnamed_17(%rip), %rdx
	movl	$10, %ecx
	callq	__ZN4core3fmt9Formatter12debug_struct17hb330e0caa577ed3dE
	leaq	-32(%rbp), %rdi
	callq	__ZN4core3fmt8builders11DebugStruct21finish_non_exhaustive17ha182bbaa42b1c534E
	.loc	14 2668 6
	andb	$1, %al
	movzbl	%al, %eax
	addq	$32, %rsp
	popq	%rbp
	retq
Ltmp463:
Lfunc_end72:
	.cfi_endproc

	.p2align	4, 0x90
__ZN70_$LT$alloc..ffi..c_str..CString$u20$as$u20$core..ops..deref..Deref$GT$5deref17h68316ac071e23322E:
Lfunc_begin73:
	.loc	28 713 0
	.cfi_startproc
	pushq	%rbp
	.cfi_def_cfa_offset 16
	.cfi_offset %rbp, -16
	movq	%rsp, %rbp
	.cfi_def_cfa_register %rbp
	subq	$64, %rsp
	movq	%rdi, -48(%rbp)
Ltmp464:
	.loc	28 714 54 prologue_end
	movq	%rdi, -40(%rbp)
Ltmp465:
	.loc	28 562 9
	movq	(%rdi), %rcx
	movq	8(%rdi), %rax
Ltmp466:
	.loc	28 714 54
	movq	%rcx, -32(%rbp)
	movq	%rax, -24(%rbp)
Ltmp467:
	.loc	15 449 48
	movq	%rcx, -64(%rbp)
	movq	%rax, -56(%rbp)
	.loc	15 449 18 is_stmt 0
	movq	-64(%rbp), %rax
	movq	-56(%rbp), %rdx
	movq	%rax, -16(%rbp)
	movq	%rdx, -8(%rbp)
Ltmp468:
	.loc	28 715 6 is_stmt 1
	addq	$64, %rsp
	popq	%rbp
	retq
Ltmp469:
Lfunc_end73:
	.cfi_endproc

	.globl	__ZN70_$LT$alloc..vec..Vec$LT$T$C$A$GT$$u20$as$u20$core..ops..drop..Drop$GT$4drop17h30d1d3076f091933E
	.p2align	4, 0x90
__ZN70_$LT$alloc..vec..Vec$LT$T$C$A$GT$$u20$as$u20$core..ops..drop..Drop$GT$4drop17h30d1d3076f091933E:
Lfunc_begin74:
	.file	32 "/rustc/2c8cc343237b8f7d5a3c3703e3a87f2eb2c54a74/library/alloc/src/vec" "mod.rs"
	.loc	32 3054 0
	.cfi_startproc
	pushq	%rbp
	.cfi_def_cfa_offset 16
	.cfi_offset %rbp, -16
	movq	%rsp, %rbp
	.cfi_def_cfa_register %rbp
	subq	$160, %rsp
	movq	%rdi, -120(%rbp)
Ltmp470:
	.loc	32 3059 62 prologue_end
	movq	%rdi, -112(%rbp)
Ltmp471:
	.loc	32 1280 19
	movq	%rdi, -104(%rbp)
Ltmp472:
	.loc	31 224 9
	movq	8(%rdi), %rcx
	movq	%rcx, -96(%rbp)
Ltmp473:
	.loc	7 104 9
	movq	%rcx, -88(%rbp)
Ltmp474:
	.loc	6 326 9
	movq	%rcx, -80(%rbp)
Ltmp475:
	.loc	32 1282 21
	movq	%rcx, -72(%rbp)
Ltmp476:
	.loc	22 52 36
	movq	%rcx, -160(%rbp)
	.loc	22 52 18 is_stmt 0
	movq	-160(%rbp), %rax
	movq	%rax, -64(%rbp)
Ltmp477:
	.loc	22 38 13 is_stmt 1
	movq	%rax, -56(%rbp)
Ltmp478:
	.loc	22 215 33
	movq	%rax, -48(%rbp)
	.loc	22 215 18 is_stmt 0
	movq	%rax, -40(%rbp)
Ltmp479:
	.loc	32 3059 81 is_stmt 1
	movq	16(%rdi), %rax
	movq	%rax, -32(%rbp)
Ltmp480:
	.loc	4 766 24
	movq	%rcx, -24(%rbp)
Ltmp481:
	.loc	22 60 9
	movq	%rcx, -16(%rbp)
Ltmp482:
	.loc	4 766 37
	movq	%rax, -8(%rbp)
Ltmp483:
	.loc	5 135 36
	movq	%rcx, -136(%rbp)
	movq	%rax, -128(%rbp)
	.loc	5 135 14 is_stmt 0
	movq	-136(%rbp), %rcx
	movq	-128(%rbp), %rax
	movq	%rcx, -152(%rbp)
	movq	%rax, -144(%rbp)
Ltmp484:
	.loc	32 3062 6 is_stmt 1
	addq	$160, %rsp
	popq	%rbp
	retq
Ltmp485:
Lfunc_end74:
	.cfi_endproc

	.globl	__ZN77_$LT$alloc..raw_vec..RawVec$LT$T$C$A$GT$$u20$as$u20$core..ops..drop..Drop$GT$4drop17h439d97fa07f1efcbE
	.p2align	4, 0x90
__ZN77_$LT$alloc..raw_vec..RawVec$LT$T$C$A$GT$$u20$as$u20$core..ops..drop..Drop$GT$4drop17h439d97fa07f1efcbE:
Lfunc_begin75:
	.loc	31 477 0
	.cfi_startproc
	pushq	%rbp
	.cfi_def_cfa_offset 16
	.cfi_offset %rbp, -16
	movq	%rsp, %rbp
	.cfi_def_cfa_register %rbp
	subq	$64, %rsp
	movq	%rdi, %rsi
	movq	%rsi, -64(%rbp)
	movq	%rsi, -32(%rbp)
Ltmp486:
	.loc	31 478 38 prologue_end
	leaq	-56(%rbp), %rdi
	callq	__ZN5alloc7raw_vec19RawVec$LT$T$C$A$GT$14current_memory17h4cb31e79d558052cE
	.loc	31 478 16 is_stmt 0
	movl	$1, %eax
	xorl	%ecx, %ecx
	cmpq	$0, -40(%rbp)
	cmoveq	%rcx, %rax
	cmpq	$1, %rax
	jne	LBB75_2
	.loc	31 0 16
	movq	-64(%rbp), %rdi
	.loc	31 478 22
	movq	-56(%rbp), %rsi
	movq	%rsi, -24(%rbp)
	.loc	31 478 27
	movq	-48(%rbp), %rdx
	movq	-40(%rbp), %rcx
	movq	%rdx, -16(%rbp)
	movq	%rcx, -8(%rbp)
	.loc	31 479 22 is_stmt 1
	callq	__ZN63_$LT$alloc..alloc..Global$u20$as$u20$core..alloc..Allocator$GT$10deallocate17h9da9acff1735905aE
Ltmp487:
LBB75_2:
	.loc	31 481 6
	addq	$64, %rsp
	popq	%rbp
	retq
Ltmp488:
Lfunc_end75:
	.cfi_endproc

	.globl	__ZN79_$LT$core..result..Result$LT$T$C$E$GT$$u20$as$u20$core..ops..try_trait..Try$GT$6branch17h786a097fcdf28f11E
	.p2align	4, 0x90
__ZN79_$LT$core..result..Result$LT$T$C$E$GT$$u20$as$u20$core..ops..try_trait..Try$GT$6branch17h786a097fcdf28f11E:
Lfunc_begin76:
	.loc	8 2090 0
	.cfi_startproc
	pushq	%rbp
	.cfi_def_cfa_offset 16
	.cfi_offset %rbp, -16
	movq	%rsp, %rbp
	.cfi_def_cfa_register %rbp
	subq	$72, %rsp
	movq	%rdi, -72(%rbp)
	movl	%esi, -64(%rbp)
Ltmp489:
	.loc	8 2091 15 prologue_end
	movl	$1, %eax
	xorl	%ecx, %ecx
	cmpl	$1000000000, -64(%rbp)
	cmoveq	%rcx, %rax
	.loc	8 2091 9 is_stmt 0
	cmpq	$0, %rax
	jne	LBB76_2
Ltmp490:
	.loc	8 2092 22 is_stmt 1
	movl	$1000000000, -48(%rbp)
Ltmp491:
	.loc	8 2092 45 is_stmt 0
	jmp	LBB76_3
LBB76_2:
	.loc	8 2093 17 is_stmt 1
	movq	-72(%rbp), %rcx
	movl	-64(%rbp), %eax
	movq	%rcx, -16(%rbp)
	movl	%eax, -8(%rbp)
Ltmp492:
	.loc	8 2093 42 is_stmt 0
	movq	%rcx, -40(%rbp)
	movl	%eax, -32(%rbp)
	.loc	8 2093 23
	movq	-40(%rbp), %rcx
	movl	-32(%rbp), %eax
	movq	%rcx, -56(%rbp)
	movl	%eax, -48(%rbp)
Ltmp493:
LBB76_3:
	.loc	8 2095 6 is_stmt 1
	movq	-56(%rbp), %rax
	movl	-48(%rbp), %edx
	addq	$72, %rsp
	popq	%rbp
	retq
Ltmp494:
Lfunc_end76:
	.cfi_endproc

	.globl	__ZN91_$LT$std..panicking..begin_panic..PanicPayload$LT$A$GT$$u20$as$u20$core..panic..BoxMeUp$GT$3get17h8738360270c336caE
	.p2align	4, 0x90
__ZN91_$LT$std..panicking..begin_panic..PanicPayload$LT$A$GT$$u20$as$u20$core..panic..BoxMeUp$GT$3get17h8738360270c336caE:
Lfunc_begin77:
	.loc	12 635 0
	.cfi_startproc
	pushq	%rbp
	.cfi_def_cfa_offset 16
	.cfi_offset %rbp, -16
	movq	%rsp, %rbp
	.cfi_def_cfa_register %rbp
	subq	$32, %rsp
	movq	%rdi, -24(%rbp)
	movq	%rdi, -16(%rbp)
Ltmp495:
	.loc	12 636 19 prologue_end
	movq	(%rdi), %rdx
	movl	$1, %eax
	xorl	%ecx, %ecx
	cmpq	$0, %rdx
	cmoveq	%rcx, %rax
	.loc	12 636 13 is_stmt 0
	cmpq	$0, %rax
	jne	LBB77_2
	.loc	12 638 25 is_stmt 1
	callq	__ZN3std7process5abort17hb525d9c740fe6234E
LBB77_2:
	.loc	12 0 25 is_stmt 0
	movq	-24(%rbp), %rax
	.loc	12 637 22 is_stmt 1
	movq	%rax, -8(%rbp)
	.loc	12 640 10
	leaq	l___unnamed_4(%rip), %rdx
	addq	$32, %rsp
	popq	%rbp
	retq
Ltmp496:
Lfunc_end77:
	.cfi_endproc

	.globl	__ZN91_$LT$std..panicking..begin_panic..PanicPayload$LT$A$GT$$u20$as$u20$core..panic..BoxMeUp$GT$8take_box17he62538a9d2d937afE
	.p2align	4, 0x90
__ZN91_$LT$std..panicking..begin_panic..PanicPayload$LT$A$GT$$u20$as$u20$core..panic..BoxMeUp$GT$8take_box17he62538a9d2d937afE:
Lfunc_begin78:
	.loc	12 622 0
	.cfi_startproc
	.cfi_personality 155, _rust_eh_personality
	.cfi_lsda 16, Lexception15
	pushq	%rbp
	.cfi_def_cfa_offset 16
	.cfi_offset %rbp, -16
	movq	%rsp, %rbp
	.cfi_def_cfa_register %rbp
	subq	$256, %rsp
	movq	%rdi, -152(%rbp)
Ltmp506:
	.loc	12 628 30 prologue_end
	movq	%rdi, -136(%rbp)
Ltmp507:
	.loc	26 1623 28
	movq	$0, -184(%rbp)
	.loc	26 1623 9 is_stmt 0
	movq	-184(%rbp), %rsi
	movq	-176(%rbp), %rdx
	callq	__ZN4core3mem7replace17hb2da3ba347369e5cE
	movq	%rdx, -192(%rbp)
	movq	%rax, -200(%rbp)
Ltmp508:
	.loc	12 628 30 is_stmt 1
	movq	-200(%rbp), %rdx
	movl	$1, %eax
	xorl	%ecx, %ecx
	cmpq	$0, %rdx
	cmoveq	%rcx, %rax
	.loc	12 628 24 is_stmt 0
	cmpq	$0, %rax
	jne	LBB78_2
	.loc	12 630 25 is_stmt 1
	callq	__ZN3std7process5abort17hb525d9c740fe6234E
LBB78_2:
	.loc	12 629 22
	movq	-200(%rbp), %rcx
	movq	%rcx, -240(%rbp)
	movq	-192(%rbp), %rax
	movq	%rax, -232(%rbp)
	movq	%rcx, -128(%rbp)
	movq	%rax, -120(%rbp)
Ltmp509:
	.loc	12 629 37 is_stmt 0
	movq	%rcx, -112(%rbp)
	movq	%rax, -104(%rbp)
Ltmp497:
	movl	$16, %edi
	movl	$8, %esi
Ltmp510:
	.loc	30 219 9 is_stmt 1
	callq	__ZN5alloc5alloc15exchange_malloc17hedaf0648359c2c1eE
Ltmp498:
	movq	%rax, -224(%rbp)
	jmp	LBB78_5
LBB78_3:
	.loc	30 220 5
	jmp	LBB78_6
LBB78_4:
Ltmp499:
	.loc	30 0 5 is_stmt 0
	movq	%rax, %rcx
	movl	%edx, %eax
	movq	%rcx, -96(%rbp)
	movl	%eax, -88(%rbp)
	jmp	LBB78_3
LBB78_5:
	movq	-224(%rbp), %rax
	movq	-232(%rbp), %rcx
	movq	-240(%rbp), %rdx
	.loc	30 219 18 is_stmt 1
	movq	%rdx, (%rax)
	movq	%rcx, 8(%rax)
Ltmp511:
	.loc	12 629 28
	movq	%rax, -216(%rbp)
	leaq	l___unnamed_4(%rip), %rax
	movq	%rax, -208(%rbp)
Ltmp512:
	.loc	12 632 27
	movq	-216(%rbp), %rdi
	movq	-208(%rbp), %rsi
	movq	%rdi, -80(%rbp)
	movq	%rsi, -72(%rbp)
Ltmp513:
	.loc	30 1059 39
	movq	%rdi, -64(%rbp)
	movq	%rsi, -56(%rbp)
Ltmp500:
Ltmp514:
	.loc	30 1112 31
	callq	__ZN5alloc5boxed16Box$LT$T$C$A$GT$11into_unique17h53b1e996c68d161fE
Ltmp501:
	movq	%rdx, -256(%rbp)
	movq	%rax, -248(%rbp)
	jmp	LBB78_9
Ltmp515:
LBB78_6:
	.loc	12 622 9
	movq	-96(%rbp), %rdi
	callq	__Unwind_Resume
LBB78_7:
	.loc	12 633 9
	xorl	%eax, %eax
	testb	$1, %al
	jne	LBB78_10
	jmp	LBB78_6
LBB78_8:
Ltmp502:
	.loc	12 0 9 is_stmt 0
	movq	%rax, %rcx
	movl	%edx, %eax
	movq	%rcx, -96(%rbp)
	movl	%eax, -88(%rbp)
	jmp	LBB78_7
LBB78_9:
	movq	-256(%rbp), %rax
	movq	-248(%rbp), %rcx
Ltmp516:
	.loc	30 1112 14 is_stmt 1
	movq	%rcx, -48(%rbp)
	movq	%rax, -40(%rbp)
Ltmp517:
	.loc	30 1113 10
	movq	%rcx, -32(%rbp)
	movq	%rax, -24(%rbp)
Ltmp518:
	.loc	7 104 9
	movq	%rcx, -16(%rbp)
	movq	%rax, -8(%rbp)
Ltmp519:
	.loc	30 1113 9
	movq	%rcx, -168(%rbp)
	movq	%rax, -160(%rbp)
Ltmp520:
	.loc	30 1059 9
	movq	-168(%rbp), %rax
	movq	-160(%rbp), %rdx
Ltmp521:
	.loc	12 633 10
	addq	$256, %rsp
	popq	%rbp
	retq
LBB78_10:
Ltmp503:
	.loc	12 0 10 is_stmt 0
	leaq	-216(%rbp), %rdi
	.loc	12 633 9
	callq	__ZN4core3ptr91drop_in_place$LT$alloc..boxed..Box$LT$dyn$u20$core..any..Any$u2b$core..marker..Send$GT$$GT$17h8547668fc3fcc395E
Ltmp504:
	jmp	LBB78_6
LBB78_11:
Ltmp505:
	.loc	12 622 9 is_stmt 1
	callq	__ZN4core9panicking19panic_cannot_unwind17h1fbca7e1d7f56ae1E
Ltmp522:
Lfunc_end78:
	.cfi_endproc
	.section	__TEXT,__gcc_except_tab
	.p2align	2
GCC_except_table78:
Lexception15:
	.byte	255
	.byte	255
	.byte	1
	.uleb128 Lcst_end15-Lcst_begin15
Lcst_begin15:
	.uleb128 Lfunc_begin78-Lfunc_begin78
	.uleb128 Ltmp497-Lfunc_begin78
	.byte	0
	.byte	0
	.uleb128 Ltmp497-Lfunc_begin78
	.uleb128 Ltmp498-Ltmp497
	.uleb128 Ltmp499-Lfunc_begin78
	.byte	0
	.uleb128 Ltmp500-Lfunc_begin78
	.uleb128 Ltmp501-Ltmp500
	.uleb128 Ltmp502-Lfunc_begin78
	.byte	0
	.uleb128 Ltmp501-Lfunc_begin78
	.uleb128 Ltmp503-Ltmp501
	.byte	0
	.byte	0
	.uleb128 Ltmp503-Lfunc_begin78
	.uleb128 Ltmp504-Ltmp503
	.uleb128 Ltmp505-Lfunc_begin78
	.byte	0
Lcst_end15:
	.p2align	2

	.section	__TEXT,__text,regular,pure_instructions
	.globl	__ZN8dispatch3ffi23dispatch_get_main_queue17h1254567d942853fbE
	.p2align	4, 0x90
__ZN8dispatch3ffi23dispatch_get_main_queue17h1254567d942853fbE:
Lfunc_begin79:
	.loc	1 134 0
	.cfi_startproc
	pushq	%rbp
	.cfi_def_cfa_offset 16
	.cfi_offset %rbp, -16
	movq	%rsp, %rbp
	.cfi_def_cfa_register %rbp
Ltmp523:
	.loc	1 136 2 prologue_end
	movq	__dispatch_main_q@GOTPCREL(%rip), %rax
	popq	%rbp
	retq
Ltmp524:
Lfunc_end79:
	.cfi_endproc

	.globl	__ZN8dispatch5group5Group6create17he3b04f059cd48c8dE
	.p2align	4, 0x90
__ZN8dispatch5group5Group6create17he3b04f059cd48c8dE:
Lfunc_begin80:
	.file	33 "/Users/natalie/.cargo/registry/src/github.com-1ecc6299db9ec823/dispatch-0.2.0" "src/group.rs"
	.loc	33 19 0
	.cfi_startproc
	pushq	%rbp
	.cfi_def_cfa_offset 16
	.cfi_offset %rbp, -16
	movq	%rsp, %rbp
	.cfi_def_cfa_register %rbp
	subq	$16, %rsp
Ltmp525:
	.loc	33 21 26 prologue_end
	callq	_dispatch_group_create
	.loc	33 21 13 is_stmt 0
	movq	%rax, -8(%rbp)
	.loc	33 23 6 is_stmt 1
	movq	-8(%rbp), %rax
	addq	$16, %rsp
	popq	%rbp
	retq
Ltmp526:
Lfunc_end80:
	.cfi_endproc

	.globl	__ZN8dispatch5group5Group5enter17h52465ba1db706c4cE
	.p2align	4, 0x90
__ZN8dispatch5group5Group5enter17h52465ba1db706c4cE:
Lfunc_begin81:
	.loc	33 28 0
	.cfi_startproc
	pushq	%rbp
	.cfi_def_cfa_offset 16
	.cfi_offset %rbp, -16
	movq	%rsp, %rbp
	.cfi_def_cfa_register %rbp
	subq	$16, %rsp
	movq	%rdi, -8(%rbp)
Ltmp527:
	.loc	33 29 9 prologue_end
	callq	__ZN8dispatch5group10GroupGuard3new17h3ff7e881f651cb65E
	.loc	33 30 6
	addq	$16, %rsp
	popq	%rbp
	retq
Ltmp528:
Lfunc_end81:
	.cfi_endproc

	.globl	__ZN8dispatch5group5Group4wait17hdfe967ba7b0d4ad2E
	.p2align	4, 0x90
__ZN8dispatch5group5Group4wait17hdfe967ba7b0d4ad2E:
Lfunc_begin82:
	.loc	33 54 0
	.cfi_startproc
	pushq	%rbp
	.cfi_def_cfa_offset 16
	.cfi_offset %rbp, -16
	movq	%rsp, %rbp
	.cfi_def_cfa_register %rbp
	subq	$16, %rsp
	movq	%rdi, -16(%rbp)
Ltmp529:
	.loc	33 56 33 prologue_end
	movq	(%rdi), %rdi
	.loc	33 56 13 is_stmt 0
	movq	$-1, %rsi
	callq	_dispatch_group_wait
	movq	%rax, -8(%rbp)
Ltmp530:
	.loc	33 58 17 is_stmt 1
	cmpq	$0, %rax
	sete	%al
	.loc	33 58 9 is_stmt 0
	xorb	$-1, %al
	testb	$1, %al
	jne	LBB82_2
Ltmp531:
	.loc	33 59 6 is_stmt 1
	addq	$16, %rsp
	popq	%rbp
	retq
LBB82_2:
Ltmp532:
	.loc	33 58 9
	leaq	l___unnamed_18(%rip), %rdi
	leaq	l___unnamed_19(%rip), %rdx
	movl	$27, %esi
	callq	__ZN3std9panicking11begin_panic17h385bc5a63460a970E
Ltmp533:
Lfunc_end82:
	.cfi_endproc

	.globl	__ZN8dispatch5group5Group12wait_timeout17h4c9284847651ee6bE
	.p2align	4, 0x90
__ZN8dispatch5group5Group12wait_timeout17h4c9284847651ee6bE:
Lfunc_begin83:
	.loc	33 64 0
	.cfi_startproc
	pushq	%rbp
	.cfi_def_cfa_offset 16
	.cfi_offset %rbp, -16
	movq	%rsp, %rbp
	.cfi_def_cfa_register %rbp
	subq	$112, %rsp
	movl	%edx, -108(%rbp)
	movq	%rsi, %rax
	movl	-108(%rbp), %esi
	movq	%rax, -104(%rbp)
	movq	%rdi, %rax
	movq	-104(%rbp), %rdi
	movq	%rax, -80(%rbp)
	movq	%rdi, -96(%rbp)
	movl	%esi, -84(%rbp)
	movq	%rax, -40(%rbp)
	movq	%rdi, -32(%rbp)
	movl	%esi, -24(%rbp)
Ltmp534:
	.loc	33 65 20 prologue_end
	callq	__ZN8dispatch16time_after_delay17h5b36187951219c2dE
	movq	-80(%rbp), %rdi
	movq	%rax, %rsi
	movq	%rsi, -16(%rbp)
Ltmp535:
	.loc	33 67 33
	movq	(%rdi), %rdi
	.loc	33 67 13 is_stmt 0
	callq	_dispatch_group_wait
	movq	%rax, -8(%rbp)
Ltmp536:
	.loc	33 69 12 is_stmt 1
	cmpq	$0, %rax
	jne	LBB83_2
	.loc	33 70 13
	movl	$1000000000, -64(%rbp)
	.loc	33 69 9
	jmp	LBB83_3
LBB83_2:
	.loc	33 0 9 is_stmt 0
	movl	-84(%rbp), %eax
	movq	-96(%rbp), %rcx
	.loc	33 72 17 is_stmt 1
	movq	%rcx, -56(%rbp)
	movl	%eax, -48(%rbp)
	.loc	33 72 13 is_stmt 0
	movq	-56(%rbp), %rcx
	movl	-48(%rbp), %eax
	movq	%rcx, -72(%rbp)
	movl	%eax, -64(%rbp)
Ltmp537:
LBB83_3:
	.loc	33 74 6 is_stmt 1
	movq	-72(%rbp), %rax
	movl	-64(%rbp), %edx
	addq	$112, %rsp
	popq	%rbp
	retq
Ltmp538:
Lfunc_end83:
	.cfi_endproc

	.globl	__ZN8dispatch5group5Group8is_empty17h951098a577519232E
	.p2align	4, 0x90
__ZN8dispatch5group5Group8is_empty17h951098a577519232E:
Lfunc_begin84:
	.loc	33 77 0
	.cfi_startproc
	pushq	%rbp
	.cfi_def_cfa_offset 16
	.cfi_offset %rbp, -16
	movq	%rsp, %rbp
	.cfi_def_cfa_register %rbp
	subq	$16, %rsp
	movq	%rdi, -16(%rbp)
Ltmp539:
	.loc	33 79 33 prologue_end
	movq	(%rdi), %rdi
	.loc	33 79 13 is_stmt 0
	xorl	%eax, %eax
	movl	%eax, %esi
	callq	_dispatch_group_wait
	movq	%rax, -8(%rbp)
Ltmp540:
	.loc	33 81 9 is_stmt 1
	cmpq	$0, %rax
	sete	%al
Ltmp541:
	.loc	33 82 6
	andb	$1, %al
	movzbl	%al, %eax
	addq	$16, %rsp
	popq	%rbp
	retq
Ltmp542:
Lfunc_end84:
	.cfi_endproc

	.globl	__ZN61_$LT$dispatch..group..Group$u20$as$u20$core..clone..Clone$GT$5clone17hf5ad2c245114aeb0E
	.p2align	4, 0x90
__ZN61_$LT$dispatch..group..Group$u20$as$u20$core..clone..Clone$GT$5clone17hf5ad2c245114aeb0E:
Lfunc_begin85:
	.loc	33 89 0
	.cfi_startproc
	pushq	%rbp
	.cfi_def_cfa_offset 16
	.cfi_offset %rbp, -16
	movq	%rsp, %rbp
	.cfi_def_cfa_register %rbp
	subq	$32, %rsp
	movq	%rdi, -24(%rbp)
	movq	%rdi, -8(%rbp)
Ltmp543:
	.loc	33 91 29 prologue_end
	movq	(%rdi), %rdi
	.loc	33 91 13 is_stmt 0
	callq	_dispatch_retain
	movq	-24(%rbp), %rdi
	.loc	33 93 22 is_stmt 1
	movq	(%rdi), %rax
	.loc	33 93 9 is_stmt 0
	movq	%rax, -16(%rbp)
	.loc	33 94 6 is_stmt 1
	movq	-16(%rbp), %rax
	addq	$32, %rsp
	popq	%rbp
	retq
Ltmp544:
Lfunc_end85:
	.cfi_endproc

	.globl	__ZN64_$LT$dispatch..group..Group$u20$as$u20$core..ops..drop..Drop$GT$4drop17h432b0f4baaf8e1f6E
	.p2align	4, 0x90
__ZN64_$LT$dispatch..group..Group$u20$as$u20$core..ops..drop..Drop$GT$4drop17h432b0f4baaf8e1f6E:
Lfunc_begin86:
	.loc	33 98 0
	.cfi_startproc
	pushq	%rbp
	.cfi_def_cfa_offset 16
	.cfi_offset %rbp, -16
	movq	%rsp, %rbp
	.cfi_def_cfa_register %rbp
	subq	$16, %rsp
	movq	%rdi, -8(%rbp)
Ltmp545:
	.loc	33 100 30 prologue_end
	movq	(%rdi), %rdi
	.loc	33 100 13 is_stmt 0
	callq	_dispatch_release
	.loc	33 102 6 is_stmt 1
	addq	$16, %rsp
	popq	%rbp
	retq
Ltmp546:
Lfunc_end86:
	.cfi_endproc

	.p2align	4, 0x90
__ZN8dispatch5group10GroupGuard3new17h3ff7e881f651cb65E:
Lfunc_begin87:
	.loc	33 112 0
	.cfi_startproc
	pushq	%rbp
	.cfi_def_cfa_offset 16
	.cfi_offset %rbp, -16
	movq	%rsp, %rbp
	.cfi_def_cfa_register %rbp
	subq	$32, %rsp
	movq	%rdi, -24(%rbp)
	movq	%rdi, -8(%rbp)
Ltmp547:
	.loc	33 114 34 prologue_end
	movq	(%rdi), %rdi
	.loc	33 114 13 is_stmt 0
	callq	_dispatch_group_enter
	movq	-24(%rbp), %rdi
	.loc	33 116 29 is_stmt 1
	callq	__ZN61_$LT$dispatch..group..Group$u20$as$u20$core..clone..Clone$GT$5clone17hf5ad2c245114aeb0E
	.loc	33 116 9 is_stmt 0
	movq	%rax, -16(%rbp)
	.loc	33 117 6 is_stmt 1
	movq	-16(%rbp), %rax
	addq	$32, %rsp
	popq	%rbp
	retq
Ltmp548:
Lfunc_end87:
	.cfi_endproc

	.globl	__ZN8dispatch5group10GroupGuard5leave17h5c98fdbfa2547b65E
	.p2align	4, 0x90
__ZN8dispatch5group10GroupGuard5leave17h5c98fdbfa2547b65E:
Lfunc_begin88:
	.loc	33 120 0
	.cfi_startproc
	pushq	%rbp
	.cfi_def_cfa_offset 16
	.cfi_offset %rbp, -16
	movq	%rsp, %rbp
	.cfi_def_cfa_register %rbp
	subq	$16, %rsp
	movq	%rdi, -8(%rbp)
Ltmp549:
	.loc	33 120 26 prologue_end
	leaq	-8(%rbp), %rdi
	callq	__ZN4core3ptr48drop_in_place$LT$dispatch..group..GroupGuard$GT$17hd9acaded7710bd23E
	.loc	33 120 27 is_stmt 0
	addq	$16, %rsp
	popq	%rbp
	retq
Ltmp550:
Lfunc_end88:
	.cfi_endproc

	.globl	__ZN66_$LT$dispatch..group..GroupGuard$u20$as$u20$core..clone..Clone$GT$5clone17ha1e04fca15c674aaE
	.p2align	4, 0x90
__ZN66_$LT$dispatch..group..GroupGuard$u20$as$u20$core..clone..Clone$GT$5clone17ha1e04fca15c674aaE:
Lfunc_begin89:
	.loc	33 124 0 is_stmt 1
	.cfi_startproc
	pushq	%rbp
	.cfi_def_cfa_offset 16
	.cfi_offset %rbp, -16
	movq	%rsp, %rbp
	.cfi_def_cfa_register %rbp
	subq	$16, %rsp
	movq	%rdi, -8(%rbp)
Ltmp551:
	.loc	33 125 9 prologue_end
	callq	__ZN8dispatch5group10GroupGuard3new17h3ff7e881f651cb65E
	.loc	33 126 6
	addq	$16, %rsp
	popq	%rbp
	retq
Ltmp552:
Lfunc_end89:
	.cfi_endproc

	.globl	__ZN69_$LT$dispatch..group..GroupGuard$u20$as$u20$core..ops..drop..Drop$GT$4drop17h10e6b146bff79489E
	.p2align	4, 0x90
__ZN69_$LT$dispatch..group..GroupGuard$u20$as$u20$core..ops..drop..Drop$GT$4drop17h10e6b146bff79489E:
Lfunc_begin90:
	.loc	33 130 0
	.cfi_startproc
	pushq	%rbp
	.cfi_def_cfa_offset 16
	.cfi_offset %rbp, -16
	movq	%rsp, %rbp
	.cfi_def_cfa_register %rbp
	subq	$16, %rsp
	movq	%rdi, -8(%rbp)
Ltmp553:
	.loc	33 132 34 prologue_end
	movq	(%rdi), %rdi
	.loc	33 132 13 is_stmt 0
	callq	_dispatch_group_leave
	.loc	33 134 6 is_stmt 1
	addq	$16, %rsp
	popq	%rbp
	retq
Ltmp554:
Lfunc_end90:
	.cfi_endproc

	.p2align	4, 0x90
__ZN8dispatch5queue14QueueAttribute6as_raw17h11020b4ee7889f0eE:
Lfunc_begin91:
	.file	34 "/Users/natalie/.cargo/registry/src/github.com-1ecc6299db9ec823/dispatch-0.2.0" "src/queue.rs"
	.loc	34 24 0
	.cfi_startproc
	pushq	%rbp
	.cfi_def_cfa_offset 16
	.cfi_offset %rbp, -16
	movq	%rsp, %rbp
	.cfi_def_cfa_register %rbp
	subq	$16, %rsp
	movq	%rdi, -8(%rbp)
Ltmp555:
	.loc	34 25 15 prologue_end
	movb	(%rdi), %al
	andb	$1, %al
	movzbl	%al, %eax
	.loc	34 25 9 is_stmt 0
	cmpq	$0, %rax
	jne	LBB91_2
	.loc	34 26 39 is_stmt 1
	movq	$0, -16(%rbp)
	jmp	LBB91_3
LBB91_2:
	.loc	34 27 43
	movq	__ZN8dispatch3ffi25DISPATCH_QUEUE_CONCURRENT17h553b6bfa39b46e63E(%rip), %rax
	movq	%rax, -16(%rbp)
LBB91_3:
	.loc	34 29 6
	movq	-16(%rbp), %rax
	addq	$16, %rsp
	popq	%rbp
	retq
Ltmp556:
Lfunc_end91:
	.cfi_endproc

	.p2align	4, 0x90
__ZN8dispatch5queue13QueuePriority6as_raw17hb0a532f83e2724b0E:
Lfunc_begin92:
	.loc	34 60 0
	.cfi_startproc
	pushq	%rbp
	.cfi_def_cfa_offset 16
	.cfi_offset %rbp, -16
	movq	%rsp, %rbp
	.cfi_def_cfa_register %rbp
	subq	$24, %rsp
	movq	%rdi, -8(%rbp)
Ltmp557:
	.loc	34 61 15 prologue_end
	movzbl	(%rdi), %eax
	movq	%rax, -24(%rbp)
	.loc	34 0 15 is_stmt 0
	movq	-24(%rbp), %rax
	leaq	LJTI92_0(%rip), %rcx
	movslq	(%rcx,%rax,4), %rax
	addq	%rcx, %rax
	jmpq	*%rax
	.loc	34 61 15
	ud2
LBB92_2:
	.loc	34 62 42 is_stmt 1
	movq	$2, -16(%rbp)
	jmp	LBB92_6
LBB92_3:
	.loc	34 63 42
	movq	$0, -16(%rbp)
	jmp	LBB92_6
LBB92_4:
	.loc	34 64 42
	movq	$-2, -16(%rbp)
	jmp	LBB92_6
LBB92_5:
	.loc	34 65 42
	movq	$-32768, -16(%rbp)
LBB92_6:
	.loc	34 67 6
	movq	-16(%rbp), %rax
	addq	$24, %rsp
	popq	%rbp
	retq
Ltmp558:
Lfunc_end92:
	.cfi_endproc
	.p2align	2, 0x90
	.data_region jt32
.set L92_0_set_2, LBB92_2-LJTI92_0
.set L92_0_set_3, LBB92_3-LJTI92_0
.set L92_0_set_4, LBB92_4-LJTI92_0
.set L92_0_set_5, LBB92_5-LJTI92_0
LJTI92_0:
	.long	L92_0_set_2
	.long	L92_0_set_3
	.long	L92_0_set_4
	.long	L92_0_set_5
	.end_data_region

	.globl	__ZN8dispatch5queue5Queue4main17hf5b2b992b8599905E
	.p2align	4, 0x90
__ZN8dispatch5queue5Queue4main17hf5b2b992b8599905E:
Lfunc_begin93:
	.loc	34 82 0
	.cfi_startproc
	pushq	%rbp
	.cfi_def_cfa_offset 16
	.cfi_offset %rbp, -16
	movq	%rsp, %rbp
	.cfi_def_cfa_register %rbp
	subq	$32, %rsp
Ltmp559:
	.loc	34 83 21 prologue_end
	callq	__ZN8dispatch3ffi23dispatch_get_main_queue17h1254567d942853fbE
	movq	%rax, %rdi
	movq	%rdi, -24(%rbp)
	movq	%rdi, -8(%rbp)
Ltmp560:
	.loc	34 85 13
	callq	_dispatch_retain
	movq	-24(%rbp), %rax
	.loc	34 87 9
	movq	%rax, -16(%rbp)
Ltmp561:
	.loc	34 88 6
	movq	-16(%rbp), %rax
	addq	$32, %rsp
	popq	%rbp
	retq
Ltmp562:
Lfunc_end93:
	.cfi_endproc

	.globl	__ZN8dispatch5queue5Queue6global17hb7cbcbab751a4c89E
	.p2align	4, 0x90
__ZN8dispatch5queue5Queue6global17hb7cbcbab751a4c89E:
Lfunc_begin94:
	.loc	34 92 0
	.cfi_startproc
	pushq	%rbp
	.cfi_def_cfa_offset 16
	.cfi_offset %rbp, -16
	movq	%rsp, %rbp
	.cfi_def_cfa_register %rbp
	subq	$32, %rsp
	movb	%dil, %al
	movb	%al, -17(%rbp)
Ltmp563:
	.loc	34 94 51 prologue_end
	leaq	-17(%rbp), %rdi
	callq	__ZN8dispatch5queue13QueuePriority6as_raw17hb0a532f83e2724b0E
	movq	%rax, %rdi
	.loc	34 94 25 is_stmt 0
	xorl	%eax, %eax
	movl	%eax, %esi
	callq	_dispatch_get_global_queue
	movq	%rax, %rdi
	movq	%rdi, -32(%rbp)
	movq	%rdi, -8(%rbp)
Ltmp564:
	.loc	34 95 13 is_stmt 1
	callq	_dispatch_retain
	movq	-32(%rbp), %rax
	.loc	34 96 13
	movq	%rax, -16(%rbp)
Ltmp565:
	.loc	34 98 6
	movq	-16(%rbp), %rax
	addq	$32, %rsp
	popq	%rbp
	retq
Ltmp566:
Lfunc_end94:
	.cfi_endproc

	.globl	__ZN8dispatch5queue5Queue6create17hcd75c2eecb6efe3dE
	.p2align	4, 0x90
__ZN8dispatch5queue5Queue6create17hcd75c2eecb6efe3dE:
Lfunc_begin95:
	.loc	34 101 0
	.cfi_startproc
	.cfi_personality 155, _rust_eh_personality
	.cfi_lsda 16, Lexception16
	pushq	%rbp
	.cfi_def_cfa_offset 16
	.cfi_offset %rbp, -16
	movq	%rsp, %rbp
	.cfi_def_cfa_register %rbp
	subq	$160, %rsp
	movl	%edx, %eax
	movq	%rsi, %rdx
	movq	%rdi, %rsi
	andb	$1, %al
	movb	%al, -97(%rbp)
	movq	%rsi, -40(%rbp)
	movq	%rdx, -32(%rbp)
	leaq	-72(%rbp), %rdi
	movq	%rdi, -128(%rbp)
Ltmp579:
	.loc	34 102 21 prologue_end
	callq	__ZN5alloc3ffi5c_str7CString3new17h179f0ba5ec2ffa82E
	movq	-128(%rbp), %rdi
	leaq	l___unnamed_20(%rip), %rsi
	callq	__ZN4core6result19Result$LT$T$C$E$GT$6unwrap17h4715e2357c92a7e8E
	movq	%rdx, -80(%rbp)
	movq	%rax, -88(%rbp)
Ltmp567:
	leaq	-88(%rbp), %rdi
Ltmp580:
	.loc	34 104 35
	callq	__ZN70_$LT$alloc..ffi..c_str..CString$u20$as$u20$core..ops..deref..Deref$GT$5deref17h68316ac071e23322E
Ltmp568:
	movq	%rdx, -120(%rbp)
	movq	%rax, -112(%rbp)
	jmp	LBB95_3
Ltmp581:
LBB95_1:
Ltmp576:
	.loc	34 0 35 is_stmt 0
	leaq	-88(%rbp), %rdi
	.loc	34 107 5 is_stmt 1
	callq	__ZN4core3ptr47drop_in_place$LT$alloc..ffi..c_str..CString$GT$17h6db6a295796500ecE
Ltmp577:
	jmp	LBB95_8
LBB95_2:
Ltmp575:
	.loc	34 0 5 is_stmt 0
	movq	%rax, %rcx
	movl	%edx, %eax
	movq	%rcx, -24(%rbp)
	movl	%eax, -16(%rbp)
	jmp	LBB95_1
LBB95_3:
Ltmp569:
	movq	-120(%rbp), %rsi
	movq	-112(%rbp), %rdi
Ltmp582:
	.loc	34 104 35 is_stmt 1
	callq	__ZN4core3ffi5c_str4CStr6as_ptr17had14a5b6e925cad5E
Ltmp570:
	movq	%rax, -136(%rbp)
	jmp	LBB95_4
LBB95_4:
Ltmp571:
	.loc	34 0 35 is_stmt 0
	leaq	-97(%rbp), %rdi
	.loc	34 104 51
	callq	__ZN8dispatch5queue14QueueAttribute6as_raw17h11020b4ee7889f0eE
Ltmp572:
	movq	%rax, -144(%rbp)
	jmp	LBB95_5
LBB95_5:
Ltmp573:
	.loc	34 0 51
	movq	-144(%rbp), %rsi
	movq	-136(%rbp), %rdi
	.loc	34 104 13
	callq	_dispatch_queue_create
Ltmp574:
	movq	%rax, -152(%rbp)
	jmp	LBB95_6
LBB95_6:
	.loc	34 0 13
	movq	-152(%rbp), %rax
	.loc	34 104 13
	movq	%rax, -8(%rbp)
Ltmp583:
	.loc	34 106 9 is_stmt 1
	movq	%rax, -96(%rbp)
Ltmp584:
	.loc	34 107 5
	leaq	-88(%rbp), %rdi
	callq	__ZN4core3ptr47drop_in_place$LT$alloc..ffi..c_str..CString$GT$17h6db6a295796500ecE
	.loc	34 107 6 is_stmt 0
	movq	-96(%rbp), %rax
	addq	$160, %rsp
	popq	%rbp
	retq
LBB95_7:
Ltmp578:
	.loc	34 101 5 is_stmt 1
	callq	__ZN4core9panicking19panic_cannot_unwind17h1fbca7e1d7f56ae1E
LBB95_8:
	movq	-24(%rbp), %rdi
	callq	__Unwind_Resume
Ltmp585:
Lfunc_end95:
	.cfi_endproc
	.section	__TEXT,__gcc_except_tab
	.p2align	2
GCC_except_table95:
Lexception16:
	.byte	255
	.byte	255
	.byte	1
	.uleb128 Lcst_end16-Lcst_begin16
Lcst_begin16:
	.uleb128 Lfunc_begin95-Lfunc_begin95
	.uleb128 Ltmp567-Lfunc_begin95
	.byte	0
	.byte	0
	.uleb128 Ltmp567-Lfunc_begin95
	.uleb128 Ltmp568-Ltmp567
	.uleb128 Ltmp575-Lfunc_begin95
	.byte	0
	.uleb128 Ltmp576-Lfunc_begin95
	.uleb128 Ltmp577-Ltmp576
	.uleb128 Ltmp578-Lfunc_begin95
	.byte	0
	.uleb128 Ltmp569-Lfunc_begin95
	.uleb128 Ltmp574-Ltmp569
	.uleb128 Ltmp575-Lfunc_begin95
	.byte	0
	.uleb128 Ltmp574-Lfunc_begin95
	.uleb128 Lfunc_end95-Ltmp574
	.byte	0
	.byte	0
Lcst_end16:
	.p2align	2

	.section	__TEXT,__text,regular,pure_instructions
	.globl	__ZN8dispatch5queue5Queue17with_target_queue17h5393188e5779cfe3E
	.p2align	4, 0x90
__ZN8dispatch5queue5Queue17with_target_queue17h5393188e5779cfe3E:
Lfunc_begin96:
	.loc	34 114 0
	.cfi_startproc
	.cfi_personality 155, _rust_eh_personality
	.cfi_lsda 16, Lexception17
	pushq	%rbp
	.cfi_def_cfa_offset 16
	.cfi_offset %rbp, -16
	movq	%rsp, %rbp
	.cfi_def_cfa_register %rbp
	subq	$64, %rsp
	movq	%rcx, -64(%rbp)
	movb	%dl, %al
	movq	%rdi, -48(%rbp)
	movq	%rsi, -40(%rbp)
	movb	%al, %dl
	andb	$1, %dl
	movb	%dl, -25(%rbp)
	movq	%rcx, -24(%rbp)
Ltmp592:
	.loc	34 116 21 prologue_end
	movzbl	%al, %edx
	andl	$1, %edx
	callq	__ZN8dispatch5queue5Queue6create17hcd75c2eecb6efe3dE
	movq	-64(%rbp), %rcx
	movq	%rax, -56(%rbp)
Ltmp593:
	.loc	34 118 39
	movq	-56(%rbp), %rdi
	.loc	34 118 50 is_stmt 0
	movq	(%rcx), %rsi
Ltmp586:
	.loc	34 118 13
	callq	_dispatch_set_target_queue
Ltmp587:
	jmp	LBB96_3
Ltmp594:
LBB96_1:
Ltmp589:
	.loc	34 0 13
	leaq	-56(%rbp), %rdi
	.loc	34 121 5 is_stmt 1
	callq	__ZN4core3ptr43drop_in_place$LT$dispatch..queue..Queue$GT$17hefe7c500cca12cb1E
Ltmp590:
	jmp	LBB96_5
LBB96_2:
Ltmp588:
	.loc	34 0 5 is_stmt 0
	movq	%rax, %rcx
	movl	%edx, %eax
	movq	%rcx, -16(%rbp)
	movl	%eax, -8(%rbp)
	jmp	LBB96_1
LBB96_3:
	.loc	34 121 6
	movq	-56(%rbp), %rax
	addq	$64, %rsp
	popq	%rbp
	retq
LBB96_4:
Ltmp591:
	.loc	34 114 5 is_stmt 1
	callq	__ZN4core9panicking19panic_cannot_unwind17h1fbca7e1d7f56ae1E
LBB96_5:
	movq	-16(%rbp), %rdi
	callq	__Unwind_Resume
Ltmp595:
Lfunc_end96:
	.cfi_endproc
	.section	__TEXT,__gcc_except_tab
	.p2align	2
GCC_except_table96:
Lexception17:
	.byte	255
	.byte	255
	.byte	1
	.uleb128 Lcst_end17-Lcst_begin17
Lcst_begin17:
	.uleb128 Lfunc_begin96-Lfunc_begin96
	.uleb128 Ltmp586-Lfunc_begin96
	.byte	0
	.byte	0
	.uleb128 Ltmp586-Lfunc_begin96
	.uleb128 Ltmp587-Ltmp586
	.uleb128 Ltmp588-Lfunc_begin96
	.byte	0
	.uleb128 Ltmp589-Lfunc_begin96
	.uleb128 Ltmp590-Ltmp589
	.uleb128 Ltmp591-Lfunc_begin96
	.byte	0
	.uleb128 Ltmp590-Lfunc_begin96
	.uleb128 Lfunc_end96-Ltmp590
	.byte	0
	.byte	0
Lcst_end17:
	.p2align	2

	.section	__TEXT,__text,regular,pure_instructions
	.globl	__ZN8dispatch5queue5Queue5label17h1e98906c93d4ea56E
	.p2align	4, 0x90
__ZN8dispatch5queue5Queue5label17h1e98906c93d4ea56E:
Lfunc_begin97:
	.loc	34 124 0
	.cfi_startproc
	pushq	%rbp
	.cfi_def_cfa_offset 16
	.cfi_offset %rbp, -16
	movq	%rsp, %rbp
	.cfi_def_cfa_register %rbp
	subq	$80, %rsp
	movq	%rdi, -32(%rbp)
Ltmp596:
	.loc	34 126 54 prologue_end
	movq	(%rdi), %rdi
	.loc	34 126 29 is_stmt 0
	callq	_dispatch_queue_get_label
	movq	%rax, %rdi
	movq	%rdi, -80(%rbp)
	movq	%rdi, -24(%rbp)
Ltmp597:
	.loc	34 127 16 is_stmt 1
	callq	__ZN4core3ptr9const_ptr33_$LT$impl$u20$$BP$const$u20$T$GT$7is_null17h6d5d01d37436c2e9E
	testb	$1, %al
	jne	LBB97_2
	.loc	34 0 16 is_stmt 0
	movq	-80(%rbp), %rdi
	.loc	34 130 13 is_stmt 1
	callq	__ZN4core3ffi5c_str4CStr8from_ptr17hd31fd70374e5d58cE
	movq	%rax, %rdi
	movq	%rdx, %rsi
	movq	%rdi, -16(%rbp)
	movq	%rsi, -8(%rbp)
Ltmp598:
	.loc	34 132 24
	callq	__ZN4core3ffi5c_str4CStr8to_bytes17hbc7413b969729309E
	movq	%rax, %rsi
	.loc	34 132 9 is_stmt 0
	leaq	-56(%rbp), %rdi
	callq	__ZN4core3str8converts9from_utf817h97544f31e939b049E
	leaq	-56(%rbp), %rdi
	leaq	l___unnamed_21(%rip), %rsi
	callq	__ZN4core6result19Result$LT$T$C$E$GT$6unwrap17h9de552795098612dE
	movq	%rax, -72(%rbp)
	movq	%rdx, -64(%rbp)
Ltmp599:
	.loc	34 133 6 is_stmt 1
	jmp	LBB97_3
LBB97_2:
Ltmp600:
	.loc	34 128 24
	leaq	l___unnamed_12(%rip), %rax
	movq	%rax, -72(%rbp)
	movq	$0, -64(%rbp)
Ltmp601:
LBB97_3:
	.loc	34 133 6
	movq	-72(%rbp), %rax
	movq	-64(%rbp), %rdx
	addq	$80, %rsp
	popq	%rbp
	retq
Ltmp602:
Lfunc_end97:
	.cfi_endproc

	.globl	__ZN8dispatch5queue5Queue7suspend17hfe2d6b12104ab941E
	.p2align	4, 0x90
__ZN8dispatch5queue5Queue7suspend17hfe2d6b12104ab941E:
Lfunc_begin98:
	.loc	34 281 0
	.cfi_startproc
	pushq	%rbp
	.cfi_def_cfa_offset 16
	.cfi_offset %rbp, -16
	movq	%rsp, %rbp
	.cfi_def_cfa_register %rbp
	subq	$16, %rsp
	movq	%rdi, -8(%rbp)
Ltmp603:
	.loc	34 282 9 prologue_end
	callq	__ZN8dispatch5queue12SuspendGuard3new17h030272c4de833bcbE
	.loc	34 283 6
	addq	$16, %rsp
	popq	%rbp
	retq
Ltmp604:
Lfunc_end98:
	.cfi_endproc

	.globl	__ZN61_$LT$dispatch..queue..Queue$u20$as$u20$core..clone..Clone$GT$5clone17hcbd8ce0da926f534E
	.p2align	4, 0x90
__ZN61_$LT$dispatch..queue..Queue$u20$as$u20$core..clone..Clone$GT$5clone17hcbd8ce0da926f534E:
Lfunc_begin99:
	.loc	34 290 0
	.cfi_startproc
	pushq	%rbp
	.cfi_def_cfa_offset 16
	.cfi_offset %rbp, -16
	movq	%rsp, %rbp
	.cfi_def_cfa_register %rbp
	subq	$32, %rsp
	movq	%rdi, -24(%rbp)
	movq	%rdi, -8(%rbp)
Ltmp605:
	.loc	34 292 29 prologue_end
	movq	(%rdi), %rdi
	.loc	34 292 13 is_stmt 0
	callq	_dispatch_retain
	movq	-24(%rbp), %rdi
	.loc	34 294 22 is_stmt 1
	movq	(%rdi), %rax
	.loc	34 294 9 is_stmt 0
	movq	%rax, -16(%rbp)
	.loc	34 295 6 is_stmt 1
	movq	-16(%rbp), %rax
	addq	$32, %rsp
	popq	%rbp
	retq
Ltmp606:
Lfunc_end99:
	.cfi_endproc

	.globl	__ZN64_$LT$dispatch..queue..Queue$u20$as$u20$core..ops..drop..Drop$GT$4drop17ha9fd45fd8915a5fbE
	.p2align	4, 0x90
__ZN64_$LT$dispatch..queue..Queue$u20$as$u20$core..ops..drop..Drop$GT$4drop17ha9fd45fd8915a5fbE:
Lfunc_begin100:
	.loc	34 299 0
	.cfi_startproc
	pushq	%rbp
	.cfi_def_cfa_offset 16
	.cfi_offset %rbp, -16
	movq	%rsp, %rbp
	.cfi_def_cfa_register %rbp
	subq	$16, %rsp
	movq	%rdi, -8(%rbp)
Ltmp607:
	.loc	34 301 30 prologue_end
	movq	(%rdi), %rdi
	.loc	34 301 13 is_stmt 0
	callq	_dispatch_release
	.loc	34 303 6 is_stmt 1
	addq	$16, %rsp
	popq	%rbp
	retq
Ltmp608:
Lfunc_end100:
	.cfi_endproc

	.p2align	4, 0x90
__ZN8dispatch5queue12SuspendGuard3new17h030272c4de833bcbE:
Lfunc_begin101:
	.loc	34 313 0
	.cfi_startproc
	pushq	%rbp
	.cfi_def_cfa_offset 16
	.cfi_offset %rbp, -16
	movq	%rsp, %rbp
	.cfi_def_cfa_register %rbp
	subq	$32, %rsp
	movq	%rdi, -24(%rbp)
	movq	%rdi, -8(%rbp)
Ltmp609:
	.loc	34 315 30 prologue_end
	movq	(%rdi), %rdi
	.loc	34 315 13 is_stmt 0
	callq	_dispatch_suspend
	movq	-24(%rbp), %rdi
	.loc	34 317 31 is_stmt 1
	callq	__ZN61_$LT$dispatch..queue..Queue$u20$as$u20$core..clone..Clone$GT$5clone17hcbd8ce0da926f534E
	.loc	34 317 9 is_stmt 0
	movq	%rax, -16(%rbp)
	.loc	34 318 6 is_stmt 1
	movq	-16(%rbp), %rax
	addq	$32, %rsp
	popq	%rbp
	retq
Ltmp610:
Lfunc_end101:
	.cfi_endproc

	.globl	__ZN8dispatch5queue12SuspendGuard6resume17hfff9fe3a23362806E
	.p2align	4, 0x90
__ZN8dispatch5queue12SuspendGuard6resume17hfff9fe3a23362806E:
Lfunc_begin102:
	.loc	34 321 0
	.cfi_startproc
	pushq	%rbp
	.cfi_def_cfa_offset 16
	.cfi_offset %rbp, -16
	movq	%rsp, %rbp
	.cfi_def_cfa_register %rbp
	subq	$16, %rsp
	movq	%rdi, -8(%rbp)
Ltmp611:
	.loc	34 321 27 prologue_end
	leaq	-8(%rbp), %rdi
	callq	__ZN4core3ptr50drop_in_place$LT$dispatch..queue..SuspendGuard$GT$17h1001c81e6e1e80f3E
	.loc	34 321 28 is_stmt 0
	addq	$16, %rsp
	popq	%rbp
	retq
Ltmp612:
Lfunc_end102:
	.cfi_endproc

	.globl	__ZN68_$LT$dispatch..queue..SuspendGuard$u20$as$u20$core..clone..Clone$GT$5clone17h0631ea7f30d4415cE
	.p2align	4, 0x90
__ZN68_$LT$dispatch..queue..SuspendGuard$u20$as$u20$core..clone..Clone$GT$5clone17h0631ea7f30d4415cE:
Lfunc_begin103:
	.loc	34 325 0 is_stmt 1
	.cfi_startproc
	pushq	%rbp
	.cfi_def_cfa_offset 16
	.cfi_offset %rbp, -16
	movq	%rsp, %rbp
	.cfi_def_cfa_register %rbp
	subq	$16, %rsp
	movq	%rdi, -8(%rbp)
Ltmp613:
	.loc	34 326 9 prologue_end
	callq	__ZN8dispatch5queue12SuspendGuard3new17h030272c4de833bcbE
	.loc	34 327 6
	addq	$16, %rsp
	popq	%rbp
	retq
Ltmp614:
Lfunc_end103:
	.cfi_endproc

	.globl	__ZN71_$LT$dispatch..queue..SuspendGuard$u20$as$u20$core..ops..drop..Drop$GT$4drop17hceb215496ac4b943E
	.p2align	4, 0x90
__ZN71_$LT$dispatch..queue..SuspendGuard$u20$as$u20$core..ops..drop..Drop$GT$4drop17hceb215496ac4b943E:
Lfunc_begin104:
	.loc	34 331 0
	.cfi_startproc
	pushq	%rbp
	.cfi_def_cfa_offset 16
	.cfi_offset %rbp, -16
	movq	%rsp, %rbp
	.cfi_def_cfa_register %rbp
	subq	$16, %rsp
	movq	%rdi, -8(%rbp)
Ltmp615:
	.loc	34 333 29 prologue_end
	movq	(%rdi), %rdi
	.loc	34 333 13 is_stmt 0
	callq	_dispatch_resume
	.loc	34 335 6 is_stmt 1
	addq	$16, %rsp
	popq	%rbp
	retq
Ltmp616:
Lfunc_end104:
	.cfi_endproc

	.globl	__ZN8dispatch4once4Once3new17he003ce169cab37daE
	.p2align	4, 0x90
__ZN8dispatch4once4Once3new17he003ce169cab37daE:
Lfunc_begin105:
	.file	35 "/Users/natalie/.cargo/registry/src/github.com-1ecc6299db9ec823/dispatch-0.2.0" "src/once.rs"
	.loc	35 15 0
	.cfi_startproc
	pushq	%rbp
	.cfi_def_cfa_offset 16
	.cfi_offset %rbp, -16
	movq	%rsp, %rbp
	.cfi_def_cfa_register %rbp
	subq	$24, %rsp
	movq	$0, -8(%rbp)
Ltmp617:
	.file	36 "/rustc/2c8cc343237b8f7d5a3c3703e3a87f2eb2c54a74/library/core/src" "cell.rs"
	.loc	36 1953 9 prologue_end
	movq	$0, -16(%rbp)
	.loc	36 1954 6
	movq	-16(%rbp), %rax
Ltmp618:
	.loc	35 16 9
	movq	%rax, -24(%rbp)
	.loc	35 17 6
	movq	-24(%rbp), %rax
	addq	$24, %rsp
	popq	%rbp
	retq
Ltmp619:
Lfunc_end105:
	.cfi_endproc

	.globl	__ZN8dispatch3sem9Semaphore3new17h00e6d6276afa7543E
	.p2align	4, 0x90
__ZN8dispatch3sem9Semaphore3new17h00e6d6276afa7543E:
Lfunc_begin106:
	.file	37 "/Users/natalie/.cargo/registry/src/github.com-1ecc6299db9ec823/dispatch-0.2.0" "src/sem.rs"
	.loc	37 20 0
	.cfi_startproc
	pushq	%rbp
	.cfi_def_cfa_offset 16
	.cfi_offset %rbp, -16
	movq	%rsp, %rbp
	.cfi_def_cfa_register %rbp
	subq	$32, %rsp
	movl	%edi, -12(%rbp)
Ltmp620:
	.loc	37 22 39 prologue_end
	movl	%edi, %eax
	movl	%eax, %edi
	.loc	37 22 13 is_stmt 0
	callq	_dispatch_semaphore_create
	movq	%rax, -8(%rbp)
Ltmp621:
	.loc	37 24 9 is_stmt 1
	movq	%rax, -24(%rbp)
Ltmp622:
	.loc	37 25 6
	movq	-24(%rbp), %rax
	addq	$32, %rsp
	popq	%rbp
	retq
Ltmp623:
Lfunc_end106:
	.cfi_endproc

	.globl	__ZN8dispatch3sem9Semaphore4wait17ha5c0206419fa3718E
	.p2align	4, 0x90
__ZN8dispatch3sem9Semaphore4wait17ha5c0206419fa3718E:
Lfunc_begin107:
	.loc	37 28 0
	.cfi_startproc
	pushq	%rbp
	.cfi_def_cfa_offset 16
	.cfi_offset %rbp, -16
	movq	%rsp, %rbp
	.cfi_def_cfa_register %rbp
	subq	$16, %rsp
	movq	%rdi, -16(%rbp)
Ltmp624:
	.loc	37 30 37 prologue_end
	movq	(%rdi), %rdi
	.loc	37 30 13 is_stmt 0
	movq	$-1, %rsi
	callq	_dispatch_semaphore_wait
	movq	%rax, -8(%rbp)
Ltmp625:
	.loc	37 32 17 is_stmt 1
	cmpq	$0, %rax
	sete	%al
	.loc	37 32 9 is_stmt 0
	xorb	$-1, %al
	testb	$1, %al
	jne	LBB107_2
Ltmp626:
	.loc	37 33 6 is_stmt 1
	addq	$16, %rsp
	popq	%rbp
	retq
LBB107_2:
Ltmp627:
	.loc	37 32 9
	leaq	l___unnamed_22(%rip), %rdi
	leaq	l___unnamed_23(%rip), %rdx
	movl	$31, %esi
	callq	__ZN3std9panicking11begin_panic17h385bc5a63460a970E
Ltmp628:
Lfunc_end107:
	.cfi_endproc

	.globl	__ZN8dispatch3sem9Semaphore12wait_timeout17h5cb98fb884ae9beeE
	.p2align	4, 0x90
__ZN8dispatch3sem9Semaphore12wait_timeout17h5cb98fb884ae9beeE:
Lfunc_begin108:
	.loc	37 36 0
	.cfi_startproc
	pushq	%rbp
	.cfi_def_cfa_offset 16
	.cfi_offset %rbp, -16
	movq	%rsp, %rbp
	.cfi_def_cfa_register %rbp
	subq	$112, %rsp
	movl	%edx, -108(%rbp)
	movq	%rsi, %rax
	movl	-108(%rbp), %esi
	movq	%rax, -104(%rbp)
	movq	%rdi, %rax
	movq	-104(%rbp), %rdi
	movq	%rax, -80(%rbp)
	movq	%rdi, -96(%rbp)
	movl	%esi, -84(%rbp)
	movq	%rax, -40(%rbp)
	movq	%rdi, -32(%rbp)
	movl	%esi, -24(%rbp)
Ltmp629:
	.loc	37 37 20 prologue_end
	callq	__ZN8dispatch16time_after_delay17h5b36187951219c2dE
	movq	-80(%rbp), %rdi
	movq	%rax, %rsi
	movq	%rsi, -16(%rbp)
Ltmp630:
	.loc	37 39 37
	movq	(%rdi), %rdi
	.loc	37 39 13 is_stmt 0
	callq	_dispatch_semaphore_wait
	movq	%rax, -8(%rbp)
Ltmp631:
	.loc	37 41 12 is_stmt 1
	cmpq	$0, %rax
	jne	LBB108_2
	.loc	37 42 13
	movl	$1000000000, -64(%rbp)
	.loc	37 41 9
	jmp	LBB108_3
LBB108_2:
	.loc	37 0 9 is_stmt 0
	movl	-84(%rbp), %eax
	movq	-96(%rbp), %rcx
	.loc	37 44 17 is_stmt 1
	movq	%rcx, -56(%rbp)
	movl	%eax, -48(%rbp)
	.loc	37 44 13 is_stmt 0
	movq	-56(%rbp), %rcx
	movl	-48(%rbp), %eax
	movq	%rcx, -72(%rbp)
	movl	%eax, -64(%rbp)
Ltmp632:
LBB108_3:
	.loc	37 46 6 is_stmt 1
	movq	-72(%rbp), %rax
	movl	-64(%rbp), %edx
	addq	$112, %rsp
	popq	%rbp
	retq
Ltmp633:
Lfunc_end108:
	.cfi_endproc

	.globl	__ZN8dispatch3sem9Semaphore6signal17hbb20e904e2cc06a5E
	.p2align	4, 0x90
__ZN8dispatch3sem9Semaphore6signal17hbb20e904e2cc06a5E:
Lfunc_begin109:
	.loc	37 52 0
	.cfi_startproc
	pushq	%rbp
	.cfi_def_cfa_offset 16
	.cfi_offset %rbp, -16
	movq	%rsp, %rbp
	.cfi_def_cfa_register %rbp
	subq	$16, %rsp
	movq	%rdi, -8(%rbp)
Ltmp634:
	.loc	37 54 39 prologue_end
	movq	(%rdi), %rdi
	.loc	37 54 13 is_stmt 0
	callq	_dispatch_semaphore_signal
	cmpq	$0, %rax
	setne	%al
	.loc	37 56 6 is_stmt 1
	andb	$1, %al
	movzbl	%al, %eax
	addq	$16, %rsp
	popq	%rbp
	retq
Ltmp635:
Lfunc_end109:
	.cfi_endproc

	.globl	__ZN8dispatch3sem9Semaphore6access17hb2a950be314d997aE
	.p2align	4, 0x90
__ZN8dispatch3sem9Semaphore6access17hb2a950be314d997aE:
Lfunc_begin110:
	.loc	37 60 0
	.cfi_startproc
	pushq	%rbp
	.cfi_def_cfa_offset 16
	.cfi_offset %rbp, -16
	movq	%rsp, %rbp
	.cfi_def_cfa_register %rbp
	subq	$16, %rsp
	movq	%rdi, -16(%rbp)
	movq	%rdi, -8(%rbp)
Ltmp636:
	.loc	37 61 9 prologue_end
	callq	__ZN8dispatch3sem9Semaphore4wait17ha5c0206419fa3718E
	movq	-16(%rbp), %rdi
	.loc	37 62 29
	callq	__ZN63_$LT$dispatch..sem..Semaphore$u20$as$u20$core..clone..Clone$GT$5clone17hd71040fe04d01325E
	movq	%rax, %rdi
	.loc	37 62 9 is_stmt 0
	callq	__ZN8dispatch3sem14SemaphoreGuard3new17hd6ecc7bd870e9597E
	.loc	37 63 6 is_stmt 1
	addq	$16, %rsp
	popq	%rbp
	retq
Ltmp637:
Lfunc_end110:
	.cfi_endproc

	.globl	__ZN8dispatch3sem9Semaphore14access_timeout17h8c37c9c2dd2e7034E
	.p2align	4, 0x90
__ZN8dispatch3sem9Semaphore14access_timeout17h8c37c9c2dd2e7034E:
Lfunc_begin111:
	.loc	37 67 0
	.cfi_startproc
	pushq	%rbp
	.cfi_def_cfa_offset 16
	.cfi_offset %rbp, -16
	movq	%rsp, %rbp
	.cfi_def_cfa_register %rbp
	subq	$112, %rsp
	movl	%ecx, -100(%rbp)
	movq	%rdx, %rax
	movl	-100(%rbp), %edx
	movq	%rax, -96(%rbp)
	movq	%rsi, %rax
	movq	-96(%rbp), %rsi
	movq	%rax, -88(%rbp)
	movq	%rdi, %rax
	movq	-88(%rbp), %rdi
	movq	%rax, -80(%rbp)
	movq	%rax, -72(%rbp)
	movq	%rdi, -48(%rbp)
	movq	%rsi, -40(%rbp)
	movl	%edx, -32(%rbp)
Ltmp638:
	.loc	37 69 9 prologue_end
	callq	__ZN8dispatch3sem9Semaphore12wait_timeout17h5cb98fb884ae9beeE
	movq	%rax, %rdi
	movl	%edx, %esi
	callq	__ZN79_$LT$core..result..Result$LT$T$C$E$GT$$u20$as$u20$core..ops..try_trait..Try$GT$6branch17h786a097fcdf28f11E
	movl	%edx, -56(%rbp)
	movq	%rax, -64(%rbp)
	movl	$1, %eax
	xorl	%ecx, %ecx
	cmpl	$1000000000, -56(%rbp)
	cmoveq	%rcx, %rax
	cmpq	$0, %rax
	jne	LBB111_2
	.loc	37 0 9 is_stmt 0
	movq	-88(%rbp), %rdi
	.loc	37 70 32 is_stmt 1
	callq	__ZN63_$LT$dispatch..sem..Semaphore$u20$as$u20$core..clone..Clone$GT$5clone17hd71040fe04d01325E
	movq	%rax, %rdi
	.loc	37 70 12 is_stmt 0
	callq	__ZN8dispatch3sem14SemaphoreGuard3new17hd6ecc7bd870e9597E
	movq	%rax, %rcx
	movq	-80(%rbp), %rax
	.loc	37 70 9
	movq	%rcx, (%rax)
	movl	$1000000000, 8(%rax)
	.loc	37 71 6 is_stmt 1
	jmp	LBB111_3
LBB111_2:
	.loc	37 0 6 is_stmt 0
	movq	-80(%rbp), %rdi
	.loc	37 69 35 is_stmt 1
	movq	-64(%rbp), %rsi
	movl	-56(%rbp), %edx
	movq	%rsi, -16(%rbp)
	movl	%edx, -8(%rbp)
Ltmp639:
	.loc	37 69 9 is_stmt 0
	leaq	l___unnamed_24(%rip), %rcx
	callq	__ZN153_$LT$core..result..Result$LT$T$C$F$GT$$u20$as$u20$core..ops..try_trait..FromResidual$LT$core..result..Result$LT$core..convert..Infallible$C$E$GT$$GT$$GT$13from_residual17h31e416d136dc83efE
Ltmp640:
LBB111_3:
	.loc	37 0 9
	movq	-72(%rbp), %rax
	.loc	37 71 6 is_stmt 1
	addq	$112, %rsp
	popq	%rbp
	retq
Ltmp641:
Lfunc_end111:
	.cfi_endproc

	.globl	__ZN63_$LT$dispatch..sem..Semaphore$u20$as$u20$core..clone..Clone$GT$5clone17hd71040fe04d01325E
	.p2align	4, 0x90
__ZN63_$LT$dispatch..sem..Semaphore$u20$as$u20$core..clone..Clone$GT$5clone17hd71040fe04d01325E:
Lfunc_begin112:
	.loc	37 78 0
	.cfi_startproc
	pushq	%rbp
	.cfi_def_cfa_offset 16
	.cfi_offset %rbp, -16
	movq	%rsp, %rbp
	.cfi_def_cfa_register %rbp
	subq	$32, %rsp
	movq	%rdi, -24(%rbp)
	movq	%rdi, -8(%rbp)
Ltmp642:
	.loc	37 80 29 prologue_end
	movq	(%rdi), %rdi
	.loc	37 80 13 is_stmt 0
	callq	_dispatch_retain
	movq	-24(%rbp), %rdi
	.loc	37 82 26 is_stmt 1
	movq	(%rdi), %rax
	.loc	37 82 9 is_stmt 0
	movq	%rax, -16(%rbp)
	.loc	37 83 6 is_stmt 1
	movq	-16(%rbp), %rax
	addq	$32, %rsp
	popq	%rbp
	retq
Ltmp643:
Lfunc_end112:
	.cfi_endproc

	.globl	__ZN66_$LT$dispatch..sem..Semaphore$u20$as$u20$core..ops..drop..Drop$GT$4drop17h81bb96a928edcce3E
	.p2align	4, 0x90
__ZN66_$LT$dispatch..sem..Semaphore$u20$as$u20$core..ops..drop..Drop$GT$4drop17h81bb96a928edcce3E:
Lfunc_begin113:
	.loc	37 87 0
	.cfi_startproc
	pushq	%rbp
	.cfi_def_cfa_offset 16
	.cfi_offset %rbp, -16
	movq	%rsp, %rbp
	.cfi_def_cfa_register %rbp
	subq	$16, %rsp
	movq	%rdi, -8(%rbp)
Ltmp644:
	.loc	37 89 30 prologue_end
	movq	(%rdi), %rdi
	.loc	37 89 13 is_stmt 0
	callq	_dispatch_release
	.loc	37 91 6 is_stmt 1
	addq	$16, %rsp
	popq	%rbp
	retq
Ltmp645:
Lfunc_end113:
	.cfi_endproc

	.p2align	4, 0x90
__ZN8dispatch3sem14SemaphoreGuard3new17hd6ecc7bd870e9597E:
Lfunc_begin114:
	.loc	37 101 0
	.cfi_startproc
	pushq	%rbp
	.cfi_def_cfa_offset 16
	.cfi_offset %rbp, -16
	movq	%rsp, %rbp
	.cfi_def_cfa_register %rbp
	subq	$16, %rsp
	movq	%rdi, -8(%rbp)
Ltmp646:
	.loc	37 102 9 prologue_end
	movq	%rdi, -16(%rbp)
	.loc	37 103 6
	movq	-16(%rbp), %rax
	addq	$16, %rsp
	popq	%rbp
	retq
Ltmp647:
Lfunc_end114:
	.cfi_endproc

	.globl	__ZN8dispatch3sem14SemaphoreGuard6signal17h10c509869f249d72E
	.p2align	4, 0x90
__ZN8dispatch3sem14SemaphoreGuard6signal17h10c509869f249d72E:
Lfunc_begin115:
	.loc	37 106 0
	.cfi_startproc
	pushq	%rbp
	.cfi_def_cfa_offset 16
	.cfi_offset %rbp, -16
	movq	%rsp, %rbp
	.cfi_def_cfa_register %rbp
	subq	$16, %rsp
	movq	%rdi, -8(%rbp)
Ltmp648:
	.loc	37 106 27 prologue_end
	leaq	-8(%rbp), %rdi
	callq	__ZN4core3ptr50drop_in_place$LT$dispatch..sem..SemaphoreGuard$GT$17h14cabc88a4142d92E
	.loc	37 106 28 is_stmt 0
	addq	$16, %rsp
	popq	%rbp
	retq
Ltmp649:
Lfunc_end115:
	.cfi_endproc

	.globl	__ZN71_$LT$dispatch..sem..SemaphoreGuard$u20$as$u20$core..ops..drop..Drop$GT$4drop17h94de7af4374ff7f3E
	.p2align	4, 0x90
__ZN71_$LT$dispatch..sem..SemaphoreGuard$u20$as$u20$core..ops..drop..Drop$GT$4drop17h94de7af4374ff7f3E:
Lfunc_begin116:
	.loc	37 110 0 is_stmt 1
	.cfi_startproc
	pushq	%rbp
	.cfi_def_cfa_offset 16
	.cfi_offset %rbp, -16
	movq	%rsp, %rbp
	.cfi_def_cfa_register %rbp
	subq	$16, %rsp
	movq	%rdi, -8(%rbp)
Ltmp650:
	.loc	37 111 9 prologue_end
	callq	__ZN8dispatch3sem9Semaphore6signal17hbb20e904e2cc06a5E
	.loc	37 112 6
	addq	$16, %rsp
	popq	%rbp
	retq
Ltmp651:
Lfunc_end116:
	.cfi_endproc

	.globl	__ZN60_$LT$dispatch..WaitTimeout$u20$as$u20$core..fmt..Display$GT$3fmt17h62aefff478414820E
	.p2align	4, 0x90
__ZN60_$LT$dispatch..WaitTimeout$u20$as$u20$core..fmt..Display$GT$3fmt17h62aefff478414820E:
Lfunc_begin117:
	.file	38 "/Users/natalie/.cargo/registry/src/github.com-1ecc6299db9ec823/dispatch-0.2.0" "src/lib.rs"
	.loc	38 74 0
	.cfi_startproc
	pushq	%rbp
	.cfi_def_cfa_offset 16
	.cfi_offset %rbp, -16
	movq	%rsp, %rbp
	.cfi_def_cfa_register %rbp
	subq	$96, %rsp
	movq	%rsi, -88(%rbp)
	movq	%rdi, -16(%rbp)
	movq	%rsi, -8(%rbp)
Ltmp652:
	.loc	38 75 9 prologue_end
	callq	__ZN4core3fmt10ArgumentV19new_debug17h797624664913ce57E
	movq	%rax, -32(%rbp)
	movq	%rdx, -24(%rbp)
	leaq	-80(%rbp), %rdi
	leaq	l___unnamed_25(%rip), %rsi
	movl	$1, %r8d
	leaq	-32(%rbp), %rcx
	movq	%r8, %rdx
	callq	__ZN4core3fmt9Arguments6new_v117hc39874d15b363b97E
	movq	-88(%rbp), %rdi
	leaq	-80(%rbp), %rsi
	callq	__ZN4core3fmt9Formatter9write_fmt17h9bb7721c944aee26E
	.loc	38 76 6
	andb	$1, %al
	movzbl	%al, %eax
	addq	$96, %rsp
	popq	%rbp
	retq
Ltmp653:
Lfunc_end117:
	.cfi_endproc

	.globl	__ZN8dispatch16time_after_delay17h5b36187951219c2dE
	.p2align	4, 0x90
__ZN8dispatch16time_after_delay17h5b36187951219c2dE:
Lfunc_begin118:
	.loc	38 81 0
	.cfi_startproc
	pushq	%rbp
	.cfi_def_cfa_offset 16
	.cfi_offset %rbp, -16
	movq	%rsp, %rbp
	.cfi_def_cfa_register %rbp
	subq	$32, %rsp
	movq	%rdi, -24(%rbp)
	movl	%esi, -16(%rbp)
Ltmp654:
	.loc	38 82 5 prologue_end
	leaq	-24(%rbp), %rdi
	callq	__ZN4core4time8Duration7as_secs17h17d0a4fb289bb927E
	movq	%rax, %rdi
	movl	$1000000000, %esi
	callq	__ZN4core3num21_$LT$impl$u20$u64$GT$11checked_mul17hb107703e4f06c373E
	movq	%rax, %rdi
	movq	%rdx, %rsi
	.loc	38 82 57 is_stmt 0
	leaq	-24(%rbp), %rax
	movq	%rax, -8(%rbp)
	.loc	38 82 5
	movq	-8(%rbp), %rdx
	callq	__ZN4core6option15Option$LT$T$GT$8and_then17h04cfd3b5bfb780abE
	movq	%rax, %rdi
	movq	%rdx, %rsi
	callq	__ZN4core6option15Option$LT$T$GT$8and_then17h2c1c9bd0c8785e3eE
	movq	%rax, %rdi
	movq	%rdx, %rsi
	movq	$-1, %rdx
	callq	__ZN4core6option15Option$LT$T$GT$6map_or17hd03a2c693a27a0f7E
	.loc	38 89 2 is_stmt 1
	addq	$32, %rsp
	popq	%rbp
	retq
Ltmp655:
Lfunc_end118:
	.cfi_endproc

	.p2align	4, 0x90
__ZN8dispatch16time_after_delay28_$u7b$$u7b$closure$u7d$$u7d$17he111bd1658620139E:
Lfunc_begin119:
	.loc	38 82 0
	.cfi_startproc
	pushq	%rbp
	.cfi_def_cfa_offset 16
	.cfi_offset %rbp, -16
	movq	%rsp, %rbp
	.cfi_def_cfa_register %rbp
	subq	$32, %rsp
	movq	%rsi, -24(%rbp)
	movq	%rdi, -16(%rbp)
	movq	%rsi, -8(%rbp)
Ltmp656:
	.loc	38 83 23 prologue_end
	movq	-16(%rbp), %rdi
	callq	__ZN4core4time8Duration12subsec_nanos17h3b35d093eb321948E
	movq	-24(%rbp), %rdi
	movl	%eax, %eax
	movl	%eax, %esi
	.loc	38 83 9 is_stmt 0
	callq	__ZN4core3num21_$LT$impl$u20$u64$GT$11checked_add17hc79a08495f07a8e4E
	.loc	38 84 6 is_stmt 1
	addq	$32, %rsp
	popq	%rbp
	retq
Ltmp657:
Lfunc_end119:
	.cfi_endproc

	.p2align	4, 0x90
__ZN8dispatch16time_after_delay28_$u7b$$u7b$closure$u7d$$u7d$17heb7363f27319ea05E:
Lfunc_begin120:
	.loc	38 84 0
	.cfi_startproc
	pushq	%rbp
	.cfi_def_cfa_offset 16
	.cfi_offset %rbp, -16
	movq	%rsp, %rbp
	.cfi_def_cfa_register %rbp
	subq	$40, %rsp
	movq	%rdi, -40(%rbp)
	movq	%rdi, -8(%rbp)
Ltmp658:
	.loc	38 85 12 prologue_end
	movabsq	$9223372036854775807, %rax
	cmpq	%rax, %rdi
	jb	LBB120_2
	.loc	38 85 68 is_stmt 0
	movq	$0, -32(%rbp)
	.loc	38 85 9
	jmp	LBB120_3
LBB120_2:
	.loc	38 0 9
	movq	-40(%rbp), %rax
	.loc	38 85 44
	movq	%rax, -24(%rbp)
	movq	$1, -32(%rbp)
LBB120_3:
	.loc	38 86 6 is_stmt 1
	movq	-32(%rbp), %rax
	movq	-24(%rbp), %rdx
	addq	$40, %rsp
	popq	%rbp
	retq
Ltmp659:
Lfunc_end120:
	.cfi_endproc

	.p2align	4, 0x90
__ZN8dispatch16time_after_delay28_$u7b$$u7b$closure$u7d$$u7d$17h3e5fd841ed4135b7E:
Lfunc_begin121:
	.loc	38 86 0
	.cfi_startproc
	pushq	%rbp
	.cfi_def_cfa_offset 16
	.cfi_offset %rbp, -16
	movq	%rsp, %rbp
	.cfi_def_cfa_register %rbp
	subq	$16, %rsp
	movq	%rdi, %rsi
	movq	%rsi, -8(%rbp)
Ltmp660:
	.loc	38 87 9 prologue_end
	xorl	%eax, %eax
	movl	%eax, %edi
	callq	_dispatch_time
	.loc	38 88 6
	addq	$16, %rsp
	popq	%rbp
	retq
Ltmp661:
Lfunc_end121:
	.cfi_endproc

	.globl	__ZN59_$LT$dispatch..group..Group$u20$as$u20$core..fmt..Debug$GT$3fmt17h8b059a8d5244b4b2E
	.p2align	4, 0x90
__ZN59_$LT$dispatch..group..Group$u20$as$u20$core..fmt..Debug$GT$3fmt17h8b059a8d5244b4b2E:
Lfunc_begin122:
	.loc	33 12 0
	.cfi_startproc
	pushq	%rbp
	.cfi_def_cfa_offset 16
	.cfi_offset %rbp, -16
	movq	%rsp, %rbp
	.cfi_def_cfa_register %rbp
	subq	$48, %rsp
	movq	%rsi, -32(%rbp)
	movq	%rdi, %rax
	movq	-32(%rbp), %rdi
	movq	%rax, -16(%rbp)
	movq	%rdi, -8(%rbp)
Ltmp662:
	.loc	33 14 5 prologue_end
	movq	%rax, -24(%rbp)
	.loc	33 12 10
	leaq	l___unnamed_26(%rip), %rsi
	movl	$5, %edx
	leaq	l___unnamed_27(%rip), %rcx
	movl	$3, %r8d
	leaq	-24(%rbp), %r9
	leaq	l___unnamed_5(%rip), %rax
	movq	%rax, (%rsp)
	callq	__ZN4core3fmt9Formatter26debug_struct_field1_finish17ha7aba2fd90afbefeE
	.loc	33 12 15 is_stmt 0
	andb	$1, %al
	movzbl	%al, %eax
	addq	$48, %rsp
	popq	%rbp
	retq
Ltmp663:
Lfunc_end122:
	.cfi_endproc

	.globl	__ZN64_$LT$dispatch..group..GroupGuard$u20$as$u20$core..fmt..Debug$GT$3fmt17h674783b3179e44d0E
	.p2align	4, 0x90
__ZN64_$LT$dispatch..group..GroupGuard$u20$as$u20$core..fmt..Debug$GT$3fmt17h674783b3179e44d0E:
Lfunc_begin123:
	.loc	33 106 0 is_stmt 1
	.cfi_startproc
	pushq	%rbp
	.cfi_def_cfa_offset 16
	.cfi_offset %rbp, -16
	movq	%rsp, %rbp
	.cfi_def_cfa_register %rbp
	subq	$48, %rsp
	movq	%rsi, -32(%rbp)
	movq	%rdi, %rax
	movq	-32(%rbp), %rdi
	movq	%rax, -16(%rbp)
	movq	%rdi, -8(%rbp)
Ltmp664:
	.loc	33 108 5 prologue_end
	movq	%rax, -24(%rbp)
	.loc	33 106 10
	leaq	l___unnamed_28(%rip), %rsi
	movl	$10, %edx
	leaq	l___unnamed_29(%rip), %rcx
	movl	$5, %r8d
	leaq	-24(%rbp), %r9
	leaq	l___unnamed_6(%rip), %rax
	movq	%rax, (%rsp)
	callq	__ZN4core3fmt9Formatter26debug_struct_field1_finish17ha7aba2fd90afbefeE
	.loc	33 106 15 is_stmt 0
	andb	$1, %al
	movzbl	%al, %eax
	addq	$48, %rsp
	popq	%rbp
	retq
Ltmp665:
Lfunc_end123:
	.cfi_endproc

	.globl	__ZN68_$LT$dispatch..queue..QueueAttribute$u20$as$u20$core..fmt..Debug$GT$3fmt17hfaed47059ace95f0E
	.p2align	4, 0x90
__ZN68_$LT$dispatch..queue..QueueAttribute$u20$as$u20$core..fmt..Debug$GT$3fmt17hfaed47059ace95f0E:
Lfunc_begin124:
	.loc	34 14 0 is_stmt 1
	.cfi_startproc
	pushq	%rbp
	.cfi_def_cfa_offset 16
	.cfi_offset %rbp, -16
	movq	%rsp, %rbp
	.cfi_def_cfa_register %rbp
	subq	$48, %rsp
	movq	%rsi, -40(%rbp)
	movq	%rdi, -16(%rbp)
	movq	%rsi, -8(%rbp)
Ltmp666:
	.loc	34 14 17 prologue_end
	movb	(%rdi), %al
	andb	$1, %al
	movzbl	%al, %eax
	cmpq	$0, %rax
	jne	LBB124_2
	leaq	l___unnamed_30(%rip), %rax
	movq	%rax, -32(%rbp)
	movq	$6, -24(%rbp)
	.loc	34 14 21 is_stmt 0
	jmp	LBB124_3
LBB124_2:
	.loc	34 14 17
	leaq	l___unnamed_31(%rip), %rax
	movq	%rax, -32(%rbp)
	movq	$10, -24(%rbp)
LBB124_3:
	.loc	34 0 17
	movq	-40(%rbp), %rdi
	.loc	34 14 17
	movq	-32(%rbp), %rsi
	movq	-24(%rbp), %rdx
	callq	__ZN4core3fmt9Formatter9write_str17hb029d9999327a35fE
	.loc	34 14 22
	andb	$1, %al
	movzbl	%al, %eax
	addq	$48, %rsp
	popq	%rbp
	retq
Ltmp667:
Lfunc_end124:
	.cfi_endproc

	.globl	__ZN67_$LT$dispatch..queue..QueuePriority$u20$as$u20$core..fmt..Debug$GT$3fmt17h195280f01b4da81dE
	.p2align	4, 0x90
__ZN67_$LT$dispatch..queue..QueuePriority$u20$as$u20$core..fmt..Debug$GT$3fmt17h195280f01b4da81dE:
Lfunc_begin125:
	.loc	34 41 0 is_stmt 1
	.cfi_startproc
	pushq	%rbp
	.cfi_def_cfa_offset 16
	.cfi_offset %rbp, -16
	movq	%rsp, %rbp
	.cfi_def_cfa_register %rbp
	subq	$48, %rsp
	movq	%rsi, -48(%rbp)
	movq	%rdi, -16(%rbp)
	movq	%rsi, -8(%rbp)
Ltmp668:
	.loc	34 41 17 prologue_end
	movzbl	(%rdi), %eax
	movq	%rax, -40(%rbp)
	.loc	34 0 17 is_stmt 0
	movq	-40(%rbp), %rax
	leaq	LJTI125_0(%rip), %rcx
	movslq	(%rcx,%rax,4), %rax
	addq	%rcx, %rax
	jmpq	*%rax
	.loc	34 41 17
	ud2
LBB125_2:
	leaq	L___unnamed_32(%rip), %rax
	movq	%rax, -32(%rbp)
	movq	$4, -24(%rbp)
	.loc	34 41 21
	jmp	LBB125_6
LBB125_3:
	.loc	34 41 17
	leaq	l___unnamed_33(%rip), %rax
	movq	%rax, -32(%rbp)
	movq	$7, -24(%rbp)
	.loc	34 41 21
	jmp	LBB125_6
LBB125_4:
	.loc	34 41 17
	leaq	l___unnamed_34(%rip), %rax
	movq	%rax, -32(%rbp)
	movq	$3, -24(%rbp)
	.loc	34 41 21
	jmp	LBB125_6
LBB125_5:
	.loc	34 41 17
	leaq	l___unnamed_35(%rip), %rax
	movq	%rax, -32(%rbp)
	movq	$10, -24(%rbp)
LBB125_6:
	.loc	34 0 17
	movq	-48(%rbp), %rdi
	.loc	34 41 17
	movq	-32(%rbp), %rsi
	movq	-24(%rbp), %rdx
	callq	__ZN4core3fmt9Formatter9write_str17hb029d9999327a35fE
	.loc	34 41 22
	andb	$1, %al
	movzbl	%al, %eax
	addq	$48, %rsp
	popq	%rbp
	retq
Ltmp669:
Lfunc_end125:
	.cfi_endproc
	.p2align	2, 0x90
	.data_region jt32
.set L125_0_set_2, LBB125_2-LJTI125_0
.set L125_0_set_3, LBB125_3-LJTI125_0
.set L125_0_set_4, LBB125_4-LJTI125_0
.set L125_0_set_5, LBB125_5-LJTI125_0
LJTI125_0:
	.long	L125_0_set_2
	.long	L125_0_set_3
	.long	L125_0_set_4
	.long	L125_0_set_5
	.end_data_region

	.globl	__ZN59_$LT$dispatch..queue..Queue$u20$as$u20$core..fmt..Debug$GT$3fmt17he998e1a10b991c7cE
	.p2align	4, 0x90
__ZN59_$LT$dispatch..queue..Queue$u20$as$u20$core..fmt..Debug$GT$3fmt17he998e1a10b991c7cE:
Lfunc_begin126:
	.loc	34 74 0 is_stmt 1
	.cfi_startproc
	pushq	%rbp
	.cfi_def_cfa_offset 16
	.cfi_offset %rbp, -16
	movq	%rsp, %rbp
	.cfi_def_cfa_register %rbp
	subq	$48, %rsp
	movq	%rsi, -32(%rbp)
	movq	%rdi, %rax
	movq	-32(%rbp), %rdi
	movq	%rax, -16(%rbp)
	movq	%rdi, -8(%rbp)
Ltmp670:
	.loc	34 76 5 prologue_end
	movq	%rax, -24(%rbp)
	.loc	34 74 10
	leaq	l___unnamed_36(%rip), %rsi
	movl	$5, %edx
	leaq	l___unnamed_27(%rip), %rcx
	movl	$3, %r8d
	leaq	-24(%rbp), %r9
	leaq	l___unnamed_5(%rip), %rax
	movq	%rax, (%rsp)
	callq	__ZN4core3fmt9Formatter26debug_struct_field1_finish17ha7aba2fd90afbefeE
	.loc	34 74 15 is_stmt 0
	andb	$1, %al
	movzbl	%al, %eax
	addq	$48, %rsp
	popq	%rbp
	retq
Ltmp671:
Lfunc_end126:
	.cfi_endproc

	.globl	__ZN66_$LT$dispatch..queue..SuspendGuard$u20$as$u20$core..fmt..Debug$GT$3fmt17hf1dc6257d314ccbbE
	.p2align	4, 0x90
__ZN66_$LT$dispatch..queue..SuspendGuard$u20$as$u20$core..fmt..Debug$GT$3fmt17hf1dc6257d314ccbbE:
Lfunc_begin127:
	.loc	34 307 0 is_stmt 1
	.cfi_startproc
	pushq	%rbp
	.cfi_def_cfa_offset 16
	.cfi_offset %rbp, -16
	movq	%rsp, %rbp
	.cfi_def_cfa_register %rbp
	subq	$48, %rsp
	movq	%rsi, -32(%rbp)
	movq	%rdi, %rax
	movq	-32(%rbp), %rdi
	movq	%rax, -16(%rbp)
	movq	%rdi, -8(%rbp)
Ltmp672:
	.loc	34 309 5 prologue_end
	movq	%rax, -24(%rbp)
	.loc	34 307 10
	leaq	l___unnamed_37(%rip), %rsi
	movl	$12, %edx
	leaq	l___unnamed_38(%rip), %rcx
	movl	$5, %r8d
	leaq	-24(%rbp), %r9
	leaq	l___unnamed_7(%rip), %rax
	movq	%rax, (%rsp)
	callq	__ZN4core3fmt9Formatter26debug_struct_field1_finish17ha7aba2fd90afbefeE
	.loc	34 307 15 is_stmt 0
	andb	$1, %al
	movzbl	%al, %eax
	addq	$48, %rsp
	popq	%rbp
	retq
Ltmp673:
Lfunc_end127:
	.cfi_endproc

	.globl	__ZN57_$LT$dispatch..once..Once$u20$as$u20$core..fmt..Debug$GT$3fmt17hd47c6c88345e5e0cE
	.p2align	4, 0x90
__ZN57_$LT$dispatch..once..Once$u20$as$u20$core..fmt..Debug$GT$3fmt17hd47c6c88345e5e0cE:
Lfunc_begin128:
	.loc	35 8 0 is_stmt 1
	.cfi_startproc
	pushq	%rbp
	.cfi_def_cfa_offset 16
	.cfi_offset %rbp, -16
	movq	%rsp, %rbp
	.cfi_def_cfa_register %rbp
	subq	$48, %rsp
	movq	%rsi, -32(%rbp)
	movq	%rdi, %rax
	movq	-32(%rbp), %rdi
	movq	%rax, -16(%rbp)
	movq	%rdi, -8(%rbp)
Ltmp674:
	.loc	35 10 5 prologue_end
	movq	%rax, -24(%rbp)
	.loc	35 8 10
	leaq	L___unnamed_39(%rip), %rsi
	movl	$4, %edx
	leaq	l___unnamed_40(%rip), %rcx
	movl	$9, %r8d
	leaq	-24(%rbp), %r9
	leaq	l___unnamed_8(%rip), %rax
	movq	%rax, (%rsp)
	callq	__ZN4core3fmt9Formatter26debug_struct_field1_finish17ha7aba2fd90afbefeE
	.loc	35 8 15 is_stmt 0
	andb	$1, %al
	movzbl	%al, %eax
	addq	$48, %rsp
	popq	%rbp
	retq
Ltmp675:
Lfunc_end128:
	.cfi_endproc

	.globl	__ZN61_$LT$dispatch..sem..Semaphore$u20$as$u20$core..fmt..Debug$GT$3fmt17hf87de84d1cae9df6E
	.p2align	4, 0x90
__ZN61_$LT$dispatch..sem..Semaphore$u20$as$u20$core..fmt..Debug$GT$3fmt17hf87de84d1cae9df6E:
Lfunc_begin129:
	.loc	37 8 0 is_stmt 1
	.cfi_startproc
	pushq	%rbp
	.cfi_def_cfa_offset 16
	.cfi_offset %rbp, -16
	movq	%rsp, %rbp
	.cfi_def_cfa_register %rbp
	subq	$48, %rsp
	movq	%rsi, -32(%rbp)
	movq	%rdi, %rax
	movq	-32(%rbp), %rdi
	movq	%rax, -16(%rbp)
	movq	%rdi, -8(%rbp)
Ltmp676:
	.loc	37 10 5 prologue_end
	movq	%rax, -24(%rbp)
	.loc	37 8 10
	leaq	l___unnamed_41(%rip), %rsi
	movl	$9, %edx
	leaq	l___unnamed_27(%rip), %rcx
	movl	$3, %r8d
	leaq	-24(%rbp), %r9
	leaq	l___unnamed_5(%rip), %rax
	movq	%rax, (%rsp)
	callq	__ZN4core3fmt9Formatter26debug_struct_field1_finish17ha7aba2fd90afbefeE
	.loc	37 8 15 is_stmt 0
	andb	$1, %al
	movzbl	%al, %eax
	addq	$48, %rsp
	popq	%rbp
	retq
Ltmp677:
Lfunc_end129:
	.cfi_endproc

	.globl	__ZN66_$LT$dispatch..sem..SemaphoreGuard$u20$as$u20$core..fmt..Debug$GT$3fmt17h4a5877eb2b75d1efE
	.p2align	4, 0x90
__ZN66_$LT$dispatch..sem..SemaphoreGuard$u20$as$u20$core..fmt..Debug$GT$3fmt17h4a5877eb2b75d1efE:
Lfunc_begin130:
	.loc	37 95 0 is_stmt 1
	.cfi_startproc
	pushq	%rbp
	.cfi_def_cfa_offset 16
	.cfi_offset %rbp, -16
	movq	%rsp, %rbp
	.cfi_def_cfa_register %rbp
	subq	$48, %rsp
	movq	%rsi, -32(%rbp)
	movq	%rdi, %rax
	movq	-32(%rbp), %rdi
	movq	%rax, -16(%rbp)
	movq	%rdi, -8(%rbp)
Ltmp678:
	.loc	37 97 5 prologue_end
	movq	%rax, -24(%rbp)
	.loc	37 95 10
	leaq	l___unnamed_42(%rip), %rsi
	movl	$14, %edx
	leaq	l___unnamed_43(%rip), %rcx
	movl	$3, %r8d
	leaq	-24(%rbp), %r9
	leaq	l___unnamed_9(%rip), %rax
	movq	%rax, (%rsp)
	callq	__ZN4core3fmt9Formatter26debug_struct_field1_finish17ha7aba2fd90afbefeE
	.loc	37 95 15 is_stmt 0
	andb	$1, %al
	movzbl	%al, %eax
	addq	$48, %rsp
	popq	%rbp
	retq
Ltmp679:
Lfunc_end130:
	.cfi_endproc

	.globl	__ZN58_$LT$dispatch..WaitTimeout$u20$as$u20$core..fmt..Debug$GT$3fmt17h5072f099300f1289E
	.p2align	4, 0x90
__ZN58_$LT$dispatch..WaitTimeout$u20$as$u20$core..fmt..Debug$GT$3fmt17h5072f099300f1289E:
Lfunc_begin131:
	.loc	38 68 0 is_stmt 1
	.cfi_startproc
	pushq	%rbp
	.cfi_def_cfa_offset 16
	.cfi_offset %rbp, -16
	movq	%rsp, %rbp
	.cfi_def_cfa_register %rbp
	subq	$48, %rsp
	movq	%rsi, -32(%rbp)
	movq	%rdi, %rax
	movq	-32(%rbp), %rdi
	movq	%rax, -16(%rbp)
	movq	%rdi, -8(%rbp)
Ltmp680:
	.loc	38 70 5 prologue_end
	movq	%rax, -24(%rbp)
	.loc	38 68 17
	leaq	l___unnamed_44(%rip), %rsi
	movl	$11, %edx
	leaq	L___unnamed_45(%rip), %rcx
	movl	$8, %r8d
	leaq	-24(%rbp), %r9
	leaq	l___unnamed_10(%rip), %rax
	movq	%rax, (%rsp)
	callq	__ZN4core3fmt9Formatter26debug_struct_field1_finish17ha7aba2fd90afbefeE
	.loc	38 68 22 is_stmt 0
	andb	$1, %al
	movzbl	%al, %eax
	addq	$48, %rsp
	popq	%rbp
	retq
Ltmp681:
Lfunc_end131:
	.cfi_endproc

	.section	__DATA,__const
	.p2align	3
l___unnamed_1:
	.quad	__ZN4core3ptr77drop_in_place$LT$std..panicking..begin_panic..PanicPayload$LT$$RF$str$GT$$GT$17h06fdda7157c8c933E
	.asciz	"\020\000\000\000\000\000\000\000\b\000\000\000\000\000\000"
	.quad	__ZN91_$LT$std..panicking..begin_panic..PanicPayload$LT$A$GT$$u20$as$u20$core..panic..BoxMeUp$GT$8take_box17he62538a9d2d937afE
	.quad	__ZN91_$LT$std..panicking..begin_panic..PanicPayload$LT$A$GT$$u20$as$u20$core..panic..BoxMeUp$GT$3get17h8738360270c336caE

	.section	__TEXT,__const
l___unnamed_46:
	.ascii	"invalid args"

	.section	__DATA,__const
	.p2align	3
l___unnamed_11:
	.quad	l___unnamed_46
	.asciz	"\f\000\000\000\000\000\000"

	.section	__TEXT,__const
	.p2align	3
l___unnamed_12:
	.byte	0

l___unnamed_47:
	.ascii	"/rustc/2c8cc343237b8f7d5a3c3703e3a87f2eb2c54a74/library/core/src/fmt/mod.rs"

	.section	__DATA,__const
	.p2align	3
l___unnamed_13:
	.quad	l___unnamed_47
	.asciz	"K\000\000\000\000\000\000\000\221\001\000\000\r\000\000"

	.section	__TEXT,__const
l___unnamed_48:
	.ascii	"/rustc/2c8cc343237b8f7d5a3c3703e3a87f2eb2c54a74/library/core/src/alloc/layout.rs"

	.section	__DATA,__const
	.p2align	3
l___unnamed_14:
	.quad	l___unnamed_48
	.asciz	"P\000\000\000\000\000\000\000\304\001\000\000)\000\000"

	.section	__TEXT,__const
	.p2align	4
_str.0:
	.ascii	"attempt to divide by zero"

l___unnamed_15:
	.ascii	"called `Result::unwrap()` on an `Err` value"

	.section	__DATA,__const
	.p2align	3
l___unnamed_2:
	.quad	__ZN4core3ptr48drop_in_place$LT$alloc..ffi..c_str..NulError$GT$17hbacd0310fc8db48aE
	.asciz	" \000\000\000\000\000\000\000\b\000\000\000\000\000\000"
	.quad	__ZN64_$LT$alloc..ffi..c_str..NulError$u20$as$u20$core..fmt..Debug$GT$3fmt17hec534707452349a6E

	.p2align	3
l___unnamed_3:
	.quad	__ZN4core3ptr48drop_in_place$LT$core..str..error..Utf8Error$GT$17h7f4055808114d2ffE
	.asciz	"\020\000\000\000\000\000\000\000\b\000\000\000\000\000\000"
	.quad	__ZN64_$LT$core..str..error..Utf8Error$u20$as$u20$core..fmt..Debug$GT$3fmt17h5dd48ce9be15bcc1E

	.section	__TEXT,__const
l___unnamed_49:
	.ascii	"/rustc/2c8cc343237b8f7d5a3c3703e3a87f2eb2c54a74/library/alloc/src/raw_vec.rs"

	.section	__DATA,__const
	.p2align	3
l___unnamed_16:
	.quad	l___unnamed_49
	.asciz	"L\000\000\000\000\000\000\000\367\000\000\000;\000\000"

	.section	__TEXT,__const
l___unnamed_17:
	.ascii	"UnsafeCell"

	.section	__DATA,__const
	.p2align	3
l___unnamed_4:
	.quad	__ZN4core3ptr28drop_in_place$LT$$RF$str$GT$17hef86bcede550fa5dE
	.asciz	"\020\000\000\000\000\000\000\000\b\000\000\000\000\000\000"
	.quad	__ZN36_$LT$T$u20$as$u20$core..any..Any$GT$7type_id17h57e3bd6b5d366e4cE

	.globl	__ZN8dispatch3ffi25DISPATCH_QUEUE_CONCURRENT17h553b6bfa39b46e63E
	.p2align	3
__ZN8dispatch3ffi25DISPATCH_QUEUE_CONCURRENT17h553b6bfa39b46e63E:
	.quad	__dispatch_queue_attr_concurrent

	.section	__TEXT,__const
l___unnamed_18:
	.ascii	"Dispatch group wait errored"

l___unnamed_50:
	.ascii	"/Users/natalie/.cargo/registry/src/github.com-1ecc6299db9ec823/dispatch-0.2.0/src/group.rs"

	.section	__DATA,__const
	.p2align	3
l___unnamed_19:
	.quad	l___unnamed_50
	.asciz	"Z\000\000\000\000\000\000\000:\000\000\000\t\000\000"

	.section	__TEXT,__const
l___unnamed_51:
	.ascii	"/Users/natalie/.cargo/registry/src/github.com-1ecc6299db9ec823/dispatch-0.2.0/src/queue.rs"

	.section	__DATA,__const
	.p2align	3
l___unnamed_20:
	.quad	l___unnamed_51
	.asciz	"Z\000\000\000\000\000\000\000f\000\000\000)\000\000"

	.p2align	3
l___unnamed_21:
	.quad	l___unnamed_51
	.asciz	"Z\000\000\000\000\000\000\000\204\000\000\000*\000\000"

	.section	__TEXT,__const
l___unnamed_22:
	.ascii	"Dispatch semaphore wait errored"

l___unnamed_52:
	.ascii	"/Users/natalie/.cargo/registry/src/github.com-1ecc6299db9ec823/dispatch-0.2.0/src/sem.rs"

	.section	__DATA,__const
	.p2align	3
l___unnamed_23:
	.quad	l___unnamed_52
	.asciz	"X\000\000\000\000\000\000\000 \000\000\000\t\000\000"

	.p2align	3
l___unnamed_24:
	.quad	l___unnamed_52
	.asciz	"X\000\000\000\000\000\000\000E\000\000\000\t\000\000"

	.section	__TEXT,__const
l___unnamed_53:
	.ascii	"Wait timed out after duration "

	.section	__DATA,__const
	.p2align	3
l___unnamed_25:
	.quad	l___unnamed_53
	.asciz	"\036\000\000\000\000\000\000"

	.section	__TEXT,__const
l___unnamed_26:
	.ascii	"Group"

l___unnamed_27:
	.ascii	"ptr"

	.section	__DATA,__const
	.p2align	3
l___unnamed_5:
	.quad	__ZN4core3ptr69drop_in_place$LT$$RF$$BP$mut$u20$dispatch..ffi..dispatch_object_s$GT$17h21d42b34e8357948E
	.asciz	"\b\000\000\000\000\000\000\000\b\000\000\000\000\000\000"
	.quad	__ZN42_$LT$$RF$T$u20$as$u20$core..fmt..Debug$GT$3fmt17h38638a4049072de6E

	.section	__TEXT,__const
l___unnamed_28:
	.ascii	"GroupGuard"

l___unnamed_29:
	.ascii	"group"

	.section	__DATA,__const
	.p2align	3
l___unnamed_6:
	.quad	__ZN4core3ptr47drop_in_place$LT$$RF$dispatch..group..Group$GT$17h4e945214b7114587E
	.asciz	"\b\000\000\000\000\000\000\000\b\000\000\000\000\000\000"
	.quad	__ZN42_$LT$$RF$T$u20$as$u20$core..fmt..Debug$GT$3fmt17hc8de3ec36b769cabE

	.section	__TEXT,__const
l___unnamed_31:
	.ascii	"Concurrent"

l___unnamed_30:
	.ascii	"Serial"

l___unnamed_35:
	.ascii	"Background"

l___unnamed_34:
	.ascii	"Low"

l___unnamed_33:
	.ascii	"Default"

	.section	__TEXT,__literal4,4byte_literals
L___unnamed_32:
	.ascii	"High"

	.section	__TEXT,__const
l___unnamed_36:
	.ascii	"Queue"

l___unnamed_37:
	.ascii	"SuspendGuard"

l___unnamed_38:
	.ascii	"queue"

	.section	__DATA,__const
	.p2align	3
l___unnamed_7:
	.quad	__ZN4core3ptr47drop_in_place$LT$$RF$dispatch..queue..Queue$GT$17h9aa634a4b7ccaf9bE
	.asciz	"\b\000\000\000\000\000\000\000\b\000\000\000\000\000\000"
	.quad	__ZN42_$LT$$RF$T$u20$as$u20$core..fmt..Debug$GT$3fmt17hf6acd624c985dc93E

	.section	__TEXT,__literal4,4byte_literals
L___unnamed_39:
	.ascii	"Once"

	.section	__TEXT,__const
l___unnamed_40:
	.ascii	"predicate"

	.section	__DATA,__const
	.p2align	3
l___unnamed_8:
	.quad	__ZN4core3ptr58drop_in_place$LT$$RF$core..cell..UnsafeCell$LT$i64$GT$$GT$17h011cb124c42e1963E
	.asciz	"\b\000\000\000\000\000\000\000\b\000\000\000\000\000\000"
	.quad	__ZN42_$LT$$RF$T$u20$as$u20$core..fmt..Debug$GT$3fmt17h48c0856c28e20f93E

	.section	__TEXT,__const
l___unnamed_41:
	.ascii	"Semaphore"

l___unnamed_42:
	.ascii	"SemaphoreGuard"

l___unnamed_43:
	.ascii	"sem"

	.section	__DATA,__const
	.p2align	3
l___unnamed_9:
	.quad	__ZN4core3ptr49drop_in_place$LT$$RF$dispatch..sem..Semaphore$GT$17hb983aac74dd4575dE
	.asciz	"\b\000\000\000\000\000\000\000\b\000\000\000\000\000\000"
	.quad	__ZN42_$LT$$RF$T$u20$as$u20$core..fmt..Debug$GT$3fmt17h2e0887bcc6c2af16E

	.section	__TEXT,__const
l___unnamed_44:
	.ascii	"WaitTimeout"

	.section	__TEXT,__literal8,8byte_literals
L___unnamed_45:
	.ascii	"duration"

	.section	__DATA,__const
	.p2align	3
l___unnamed_10:
	.quad	__ZN4core3ptr45drop_in_place$LT$$RF$core..time..Duration$GT$17hf9b43ad474c6150cE
	.asciz	"\b\000\000\000\000\000\000\000\b\000\000\000\000\000\000"
	.quad	__ZN42_$LT$$RF$T$u20$as$u20$core..fmt..Debug$GT$3fmt17h0f96713c24eee59cE

	.section	__DATA,__const
Lsec_end0:
	.section	__TEXT,__text,regular,pure_instructions
Lsec_end1: