	.section	__TEXT,__text,regular,pure_instructions
	.macosx_version_min 10, 7
	.file	1 "/Users/natalie/.cargo/registry/src/github.com-1ecc6299db9ec823/tracing-0.1.37/src" "macros.rs"
	.globl	__ZN100_$LT$core..iter..adapters..fuse..Fuse$LT$I$GT$$u20$as$u20$core..iter..traits..iterator..Iterator$GT$4fold17hfb45cbb890bdea14E
	.p2align	4, 0x90
__ZN100_$LT$core..iter..adapters..fuse..Fuse$LT$I$GT$$u20$as$u20$core..iter..traits..iterator..Iterator$GT$4fold17hfb45cbb890bdea14E:
Lfunc_begin0:
	.file	2 "/rustc/2c8cc343237b8f7d5a3c3703e3a87f2eb2c54a74/library/core/src/iter/adapters" "fuse.rs"
	.loc	2 86 0
	.cfi_startproc
	.cfi_personality 155, _rust_eh_personality
	.cfi_lsda 16, Lexception0
	pushq	%rbp
	.cfi_def_cfa_offset 16
	.cfi_offset %rbp, -16
	movq	%rsp, %rbp
	.cfi_def_cfa_register %rbp
	subq	$112, %rsp
	movq	%rdi, -104(%rbp)
Ltmp3:
	movq	%rsi, -96(%rbp)
Ltmp4:
	movq	%rsi, -24(%rbp)
Ltmp5:
	.loc	2 90 9 prologue_end
	movb	$1, -33(%rbp)
	movb	$1, -34(%rbp)
Ltmp6:
	.loc	2 90 16 is_stmt 0
	movq	8(%rdi), %rdx
	movl	$1, %eax
	xorl	%ecx, %ecx
	cmpq	$0, %rdx
	cmoveq	%rcx, %rax
	cmpq	$1, %rax
Ltmp7:
	jne	LBB0_2
Ltmp8:
	.loc	2 0 16
	movq	-96(%rbp), %rsi
	movq	-104(%rbp), %rcx
	.loc	2 90 21
	movb	$0, -33(%rbp)
	movq	16(%rcx), %rax
	movq	%rax, -72(%rbp)
	movq	(%rcx), %rax
	movq	8(%rcx), %rcx
	movq	%rcx, -80(%rbp)
	movq	%rax, -88(%rbp)
	.loc	2 91 19 is_stmt 1
	movq	-72(%rbp), %rax
	movq	%rax, -48(%rbp)
	movq	-88(%rbp), %rax
	movq	-80(%rbp), %rcx
	movq	%rcx, -56(%rbp)
	movq	%rax, -64(%rbp)
	.loc	2 91 34 is_stmt 0
	movb	$0, -34(%rbp)
Ltmp0:
	leaq	-64(%rbp), %rdi
	.loc	2 91 19
	callq	__ZN102_$LT$core..iter..adapters..map..Map$LT$I$C$F$GT$$u20$as$u20$core..iter..traits..iterator..Iterator$GT$4fold17h432113f97a49a534E
Ltmp1:
	jmp	LBB0_5
Ltmp9:
LBB0_2:
	.loc	2 94 5 is_stmt 1
	testb	$1, -34(%rbp)
	jne	LBB0_7
	jmp	LBB0_6
Ltmp10:
LBB0_3:
	.loc	2 0 5 is_stmt 0
	movq	-104(%rbp), %rax
	.loc	2 94 5
	movq	8(%rax), %rdx
	movl	$1, %eax
	xorl	%ecx, %ecx
	cmpq	$0, %rdx
	cmoveq	%rcx, %rax
	cmpq	$1, %rax
	je	LBB0_8
	jmp	LBB0_9
Ltmp11:
LBB0_4:
Ltmp2:
	.loc	2 0 5
	movq	%rax, %rcx
	movl	%edx, %eax
	movq	%rcx, -16(%rbp)
	movl	%eax, -8(%rbp)
	jmp	LBB0_3
Ltmp12:
LBB0_5:
	.loc	2 90 9 is_stmt 1
	jmp	LBB0_2
Ltmp13:
LBB0_6:
	.loc	2 0 9 is_stmt 0
	movq	-104(%rbp), %rax
	.loc	2 94 5 is_stmt 1
	movq	8(%rax), %rdx
	movl	$1, %eax
	xorl	%ecx, %ecx
	cmpq	$0, %rdx
	cmoveq	%rcx, %rax
	cmpq	$1, %rax
	je	LBB0_11
	jmp	LBB0_12
Ltmp14:
LBB0_7:
	jmp	LBB0_6
Ltmp15:
LBB0_8:
	testb	$1, -33(%rbp)
	jne	LBB0_10
Ltmp16:
LBB0_9:
	.loc	2 86 5
	movq	-16(%rbp), %rdi
	callq	__Unwind_Resume
Ltmp17:
LBB0_10:
	.loc	2 94 5
	jmp	LBB0_9
Ltmp18:
LBB0_11:
	testb	$1, -33(%rbp)
	jne	LBB0_13
Ltmp19:
LBB0_12:
	.loc	2 94 6 is_stmt 0
	addq	$112, %rsp
	popq	%rbp
	retq
Ltmp20:
LBB0_13:
	.loc	2 94 5
	jmp	LBB0_12
Ltmp21:
Lfunc_end0:
	.cfi_endproc
	.section	__TEXT,__gcc_except_tab
	.p2align	2
GCC_except_table0:
Lexception0:
	.byte	255
	.byte	255
	.byte	1
	.uleb128 Lcst_end0-Lcst_begin0
Lcst_begin0:
	.uleb128 Ltmp0-Lfunc_begin0
	.uleb128 Ltmp1-Ltmp0
	.uleb128 Ltmp2-Lfunc_begin0
	.byte	0
	.uleb128 Ltmp1-Lfunc_begin0
	.uleb128 Lfunc_end0-Ltmp1
	.byte	0
	.byte	0
Lcst_end0:
	.p2align	2

	.section	__TEXT,__text,regular,pure_instructions
	.globl	__ZN100_$LT$core..iter..adapters..take..Take$LT$I$GT$$u20$as$u20$core..iter..traits..iterator..Iterator$GT$4next17h457f632b31ed3e9fE
	.p2align	4, 0x90
__ZN100_$LT$core..iter..adapters..take..Take$LT$I$GT$$u20$as$u20$core..iter..traits..iterator..Iterator$GT$4next17h457f632b31ed3e9fE:
Lfunc_begin1:
	.file	3 "/rustc/2c8cc343237b8f7d5a3c3703e3a87f2eb2c54a74/library/core/src/iter/adapters" "take.rs"
	.loc	3 34 0 is_stmt 1
	.cfi_startproc
	pushq	%rbp
	.cfi_def_cfa_offset 16
	.cfi_offset %rbp, -16
	movq	%rsp, %rbp
	.cfi_def_cfa_register %rbp
	subq	$32, %rsp
	movq	%rdi, -32(%rbp)
	movq	%rdi, -8(%rbp)
Ltmp22:
	.loc	3 35 12 prologue_end
	cmpq	$0, 80(%rdi)
	jne	LBB1_2
	.loc	3 39 13
	movq	$0, -24(%rbp)
	.loc	3 35 9
	jmp	LBB1_3
LBB1_2:
	.loc	3 0 9 is_stmt 0
	movq	-32(%rbp), %rdi
	.loc	3 36 13 is_stmt 1
	movq	80(%rdi), %rax
	decq	%rax
	movq	%rax, 80(%rdi)
	.loc	3 37 13
	callq	__ZN91_$LT$core..str..iter..SplitN$LT$P$GT$$u20$as$u20$core..iter..traits..iterator..Iterator$GT$4next17h0c30eebf6f64553eE
	movq	%rdx, -16(%rbp)
	movq	%rax, -24(%rbp)
LBB1_3:
	.loc	3 41 6
	movq	-24(%rbp), %rax
	movq	-16(%rbp), %rdx
	addq	$32, %rsp
	popq	%rbp
	retq
Ltmp23:
Lfunc_end1:
	.cfi_endproc

	.globl	__ZN100_$LT$core..iter..adapters..take..Take$LT$I$GT$$u20$as$u20$core..iter..traits..iterator..Iterator$GT$9size_hint17he5648454cea7c249E
	.p2align	4, 0x90
__ZN100_$LT$core..iter..adapters..take..Take$LT$I$GT$$u20$as$u20$core..iter..traits..iterator..Iterator$GT$9size_hint17he5648454cea7c249E:
Lfunc_begin2:
	.loc	3 58 0
	.cfi_startproc
	pushq	%rbp
	.cfi_def_cfa_offset 16
	.cfi_offset %rbp, -16
	movq	%rsp, %rbp
	.cfi_def_cfa_register %rbp
	subq	$176, %rsp
	movq	%rsi, -168(%rbp)
	movq	%rdi, -160(%rbp)
	movq	%rdi, -152(%rbp)
	movq	%rsi, -72(%rbp)
Ltmp24:
	.loc	3 59 12 prologue_end
	cmpq	$0, 80(%rsi)
	jne	LBB2_2
	.loc	3 0 12 is_stmt 0
	movq	-160(%rbp), %rax
	.loc	3 60 24 is_stmt 1
	movq	$0, -136(%rbp)
	movq	$1, -144(%rbp)
	.loc	3 60 20 is_stmt 0
	movq	$0, (%rax)
	movq	-144(%rbp), %rdx
	movq	-136(%rbp), %rcx
	movq	%rdx, 8(%rax)
	movq	%rcx, 16(%rax)
	.loc	3 73 6 is_stmt 1
	jmp	LBB2_8
LBB2_2:
	.loc	3 0 6 is_stmt 0
	movq	-168(%rbp), %rsi
	.loc	3 63 30 is_stmt 1
	leaq	-112(%rbp), %rdi
	callq	__ZN4core4iter6traits8iterator8Iterator9size_hint17hc11c32a42b3ff490E
	movq	-168(%rbp), %rax
	.loc	3 63 14 is_stmt 0
	movq	-112(%rbp), %rdi
	movq	%rdi, -64(%rbp)
	.loc	3 63 21
	movq	-104(%rbp), %rdx
	movq	-96(%rbp), %rcx
	movq	%rdx, -128(%rbp)
	movq	%rcx, -120(%rbp)
Ltmp25:
	.loc	3 65 30 is_stmt 1
	movq	%rdi, -56(%rbp)
	.loc	3 65 37 is_stmt 0
	movq	80(%rax), %rsi
	movq	%rsi, -48(%rbp)
Ltmp26:
	.file	4 "/rustc/2c8cc343237b8f7d5a3c3703e3a87f2eb2c54a74/library/core/src" "cmp.rs"
	.loc	4 1185 5 is_stmt 1
	movq	%rdi, -40(%rbp)
	.loc	4 1185 12 is_stmt 0
	movq	%rsi, -32(%rbp)
Ltmp27:
	.loc	4 833 13 is_stmt 1
	callq	__ZN4core3cmp6min_by17h3c5b348fe89a6bf2E
	movq	%rax, -176(%rbp)
	movq	%rax, -24(%rbp)
Ltmp28:
	.loc	3 67 21
	cmpq	$1, -128(%rbp)
	jne	LBB2_4
	.loc	3 0 21 is_stmt 0
	movq	-168(%rbp), %rcx
	.loc	3 68 18 is_stmt 1
	leaq	-128(%rbp), %rax
	addq	$8, %rax
	movq	%rax, -16(%rbp)
	.loc	3 68 24 is_stmt 0
	movq	-120(%rbp), %rax
	cmpq	80(%rcx), %rax
	jb	LBB2_6
	jmp	LBB2_5
LBB2_4:
	.loc	3 0 24
	movq	-168(%rbp), %rax
	.loc	3 69 23 is_stmt 1
	movq	80(%rax), %rax
	.loc	3 69 18 is_stmt 0
	movq	%rax, -80(%rbp)
	movq	$1, -88(%rbp)
	.loc	3 69 29
	jmp	LBB2_7
LBB2_5:
	.loc	3 68 24 is_stmt 1
	jmp	LBB2_4
LBB2_6:
	.loc	3 68 18 is_stmt 0
	movq	-120(%rbp), %rax
	movq	%rax, -8(%rbp)
Ltmp29:
	.loc	3 68 38
	movq	%rax, -80(%rbp)
	movq	$1, -88(%rbp)
Ltmp30:
LBB2_7:
	.loc	3 0 38
	movq	-160(%rbp), %rax
	movq	-176(%rbp), %rsi
Ltmp31:
	.loc	3 72 17 is_stmt 1
	movq	-88(%rbp), %rdx
	movq	-80(%rbp), %rcx
	.loc	3 72 9 is_stmt 0
	movq	%rsi, (%rax)
	movq	%rdx, 8(%rax)
	movq	%rcx, 16(%rax)
Ltmp32:
LBB2_8:
	.loc	3 0 9
	movq	-152(%rbp), %rax
	.loc	3 73 6 is_stmt 1
	addq	$176, %rsp
	popq	%rbp
	retq
Ltmp33:
Lfunc_end2:
	.cfi_endproc

	.globl	__ZN101_$LT$std..collections..hash..set..Iter$LT$K$GT$$u20$as$u20$core..iter..traits..iterator..Iterator$GT$4next17h68d61c00b147c3f0E
	.p2align	4, 0x90
__ZN101_$LT$std..collections..hash..set..Iter$LT$K$GT$$u20$as$u20$core..iter..traits..iterator..Iterator$GT$4next17h68d61c00b147c3f0E:
Lfunc_begin3:
	.file	5 "/rustc/2c8cc343237b8f7d5a3c3703e3a87f2eb2c54a74/library/std/src/collections/hash" "set.rs"
	.loc	5 1502 0
	.cfi_startproc
	pushq	%rbp
	.cfi_def_cfa_offset 16
	.cfi_offset %rbp, -16
	movq	%rsp, %rbp
	.cfi_def_cfa_register %rbp
	subq	$16, %rsp
	movq	%rdi, -8(%rbp)
Ltmp34:
	.loc	5 1503 9 prologue_end
	callq	__ZN88_$LT$hashbrown..set..Iter$LT$K$GT$$u20$as$u20$core..iter..traits..iterator..Iterator$GT$4next17h9391f08a33dd7861E
	.loc	5 1504 6
	addq	$16, %rsp
	popq	%rbp
	retq
Ltmp35:
Lfunc_end3:
	.cfi_endproc

	.globl	__ZN102_$LT$core..iter..adapters..map..Map$LT$I$C$F$GT$$u20$as$u20$core..iter..traits..iterator..Iterator$GT$4fold17h195f00955b30d3daE
	.p2align	4, 0x90
__ZN102_$LT$core..iter..adapters..map..Map$LT$I$C$F$GT$$u20$as$u20$core..iter..traits..iterator..Iterator$GT$4fold17h195f00955b30d3daE:
Lfunc_begin4:
	.file	6 "/rustc/2c8cc343237b8f7d5a3c3703e3a87f2eb2c54a74/library/core/src/iter/adapters" "map.rs"
	.loc	6 120 0
	.cfi_startproc
	.cfi_personality 155, _rust_eh_personality
	.cfi_lsda 16, Lexception1
	pushq	%rbp
	.cfi_def_cfa_offset 16
	.cfi_offset %rbp, -16
	movq	%rsp, %rbp
	.cfi_def_cfa_register %rbp
	subq	$80, %rsp
	movq	%rsi, -80(%rbp)
	movq	%rdi, %rax
	movq	-80(%rbp), %rdi
Ltmp41:
	movq	%rdi, -24(%rbp)
Ltmp42:
	.loc	6 124 9 prologue_end
	movb	$1, -33(%rbp)
	movq	(%rax), %rcx
	movq	%rcx, -72(%rbp)
	movq	8(%rax), %rcx
	movq	%rcx, -64(%rbp)
	.loc	6 124 24 is_stmt 0
	movb	$1, -34(%rbp)
	.loc	6 124 39
	movss	16(%rax), %xmm0
Ltmp36:
	.loc	6 124 30
	callq	__ZN4core4iter8adapters3map8map_fold17hac7192c099490109E
Ltmp43:
Ltmp37:
	.loc	6 0 30
	movss	%xmm0, -52(%rbp)
	movq	%rax, -48(%rbp)
	.loc	6 124 30
	jmp	LBB4_3
LBB4_1:
	.loc	6 124 49
	testb	$1, -34(%rbp)
	jne	LBB4_6
	jmp	LBB4_5
LBB4_2:
Ltmp40:
	.loc	6 0 49
	movq	%rax, %rcx
	movl	%edx, %eax
	movq	%rcx, -16(%rbp)
	movl	%eax, -8(%rbp)
	jmp	LBB4_1
LBB4_3:
	movss	-52(%rbp), %xmm0
	movq	-48(%rbp), %rdx
	movq	-64(%rbp), %rsi
	movq	-72(%rbp), %rdi
	.loc	6 124 9
	movb	$0, -33(%rbp)
	movb	$0, -34(%rbp)
Ltmp38:
	callq	__ZN4core4iter6traits8iterator8Iterator4fold17hf8a5759e035fa903E
Ltmp39:
	jmp	LBB4_4
LBB4_4:
	.loc	6 125 6 is_stmt 1
	addq	$80, %rsp
	popq	%rbp
	retq
LBB4_5:
	.loc	6 124 49
	testb	$1, -33(%rbp)
	jne	LBB4_8
	jmp	LBB4_7
LBB4_6:
	jmp	LBB4_5
LBB4_7:
	.loc	6 120 5
	movq	-16(%rbp), %rdi
	callq	__Unwind_Resume
LBB4_8:
	.loc	6 124 49
	jmp	LBB4_7
Ltmp44:
Lfunc_end4:
	.cfi_endproc
	.section	__TEXT,__gcc_except_tab
	.p2align	2
GCC_except_table4:
Lexception1:
	.byte	255
	.byte	255
	.byte	1
	.uleb128 Lcst_end1-Lcst_begin1
Lcst_begin1:
	.uleb128 Ltmp36-Lfunc_begin4
	.uleb128 Ltmp39-Ltmp36
	.uleb128 Ltmp40-Lfunc_begin4
	.byte	0
	.uleb128 Ltmp39-Lfunc_begin4
	.uleb128 Lfunc_end4-Ltmp39
	.byte	0
	.byte	0
Lcst_end1:
	.p2align	2

	.section	__TEXT,__text,regular,pure_instructions
	.globl	__ZN102_$LT$core..iter..adapters..map..Map$LT$I$C$F$GT$$u20$as$u20$core..iter..traits..iterator..Iterator$GT$4fold17h432113f97a49a534E
	.p2align	4, 0x90
__ZN102_$LT$core..iter..adapters..map..Map$LT$I$C$F$GT$$u20$as$u20$core..iter..traits..iterator..Iterator$GT$4fold17h432113f97a49a534E:
Lfunc_begin5:
	.loc	6 120 0
	.cfi_startproc
	.cfi_personality 155, _rust_eh_personality
	.cfi_lsda 16, Lexception2
	pushq	%rbp
	.cfi_def_cfa_offset 16
	.cfi_offset %rbp, -16
	movq	%rsp, %rbp
	.cfi_def_cfa_register %rbp
	subq	$80, %rsp
	movq	%rsi, -80(%rbp)
	movq	%rdi, %rcx
	movq	-80(%rbp), %rdi
Ltmp50:
	movq	%rdi, -24(%rbp)
Ltmp51:
	.loc	6 124 9 prologue_end
	movb	$1, -33(%rbp)
	movq	16(%rcx), %rax
	movq	%rax, -48(%rbp)
	movq	(%rcx), %rax
	movq	8(%rcx), %rcx
Ltmp52:
	movq	%rcx, -56(%rbp)
	movq	%rax, -64(%rbp)
	.loc	6 124 24 is_stmt 0
	movb	$1, -34(%rbp)
Ltmp45:
	.loc	6 124 30
	callq	__ZN4core4iter8adapters3map8map_fold17h5a13e8e5827d9e65E
Ltmp46:
	movq	%rax, -72(%rbp)
	jmp	LBB5_3
LBB5_1:
	.loc	6 124 49
	testb	$1, -34(%rbp)
	jne	LBB5_6
	jmp	LBB5_5
LBB5_2:
Ltmp49:
	.loc	6 0 49
	movq	%rax, %rcx
	movl	%edx, %eax
	movq	%rcx, -16(%rbp)
	movl	%eax, -8(%rbp)
	jmp	LBB5_1
LBB5_3:
	movq	-72(%rbp), %rsi
	.loc	6 124 9
	movb	$0, -33(%rbp)
	movb	$0, -34(%rbp)
Ltmp47:
	leaq	-64(%rbp), %rdi
	callq	__ZN102_$LT$core..iter..adapters..map..Map$LT$I$C$F$GT$$u20$as$u20$core..iter..traits..iterator..Iterator$GT$4fold17h195f00955b30d3daE
Ltmp48:
	jmp	LBB5_4
LBB5_4:
	.loc	6 125 6 is_stmt 1
	addq	$80, %rsp
	popq	%rbp
	retq
LBB5_5:
	.loc	6 124 49
	testb	$1, -33(%rbp)
	jne	LBB5_8
	jmp	LBB5_7
LBB5_6:
	jmp	LBB5_5
LBB5_7:
	.loc	6 120 5
	movq	-16(%rbp), %rdi
	callq	__Unwind_Resume
LBB5_8:
	.loc	6 124 49
	jmp	LBB5_7
Ltmp53:
Lfunc_end5:
	.cfi_endproc
	.section	__TEXT,__gcc_except_tab
	.p2align	2
GCC_except_table5:
Lexception2:
	.byte	255
	.byte	255
	.byte	1
	.uleb128 Lcst_end2-Lcst_begin2
Lcst_begin2:
	.uleb128 Ltmp45-Lfunc_begin5
	.uleb128 Ltmp48-Ltmp45
	.uleb128 Ltmp49-Lfunc_begin5
	.byte	0
	.uleb128 Ltmp48-Lfunc_begin5
	.uleb128 Lfunc_end5-Ltmp48
	.byte	0
	.byte	0
Lcst_end2:
	.p2align	2

	.section	__TEXT,__text,regular,pure_instructions
	.globl	__ZN102_$LT$core..iter..adapters..map..Map$LT$I$C$F$GT$$u20$as$u20$core..iter..traits..iterator..Iterator$GT$4next17h6fd80d3034f6e0d9E
	.p2align	4, 0x90
__ZN102_$LT$core..iter..adapters..map..Map$LT$I$C$F$GT$$u20$as$u20$core..iter..traits..iterator..Iterator$GT$4next17h6fd80d3034f6e0d9E:
Lfunc_begin6:
	.loc	6 102 0
	.cfi_startproc
	pushq	%rbp
	.cfi_def_cfa_offset 16
	.cfi_offset %rbp, -16
	movq	%rsp, %rbp
	.cfi_def_cfa_register %rbp
	subq	$16, %rsp
	movq	%rdi, -16(%rbp)
	movq	%rdi, -8(%rbp)
Ltmp54:
	.loc	6 103 9 prologue_end
	callq	__ZN100_$LT$core..iter..adapters..take..Take$LT$I$GT$$u20$as$u20$core..iter..traits..iterator..Iterator$GT$4next17h457f632b31ed3e9fE
	movq	%rax, %rdi
	movq	%rdx, %rsi
	movq	-16(%rbp), %rdx
	callq	__ZN4core6option15Option$LT$T$GT$3map17h89a2bfab639a39c8E
	.loc	6 104 6
	andb	$1, %al
	addq	$16, %rsp
	popq	%rbp
	retq
Ltmp55:
Lfunc_end6:
	.cfi_endproc

	.globl	__ZN102_$LT$core..iter..adapters..map..Map$LT$I$C$F$GT$$u20$as$u20$core..iter..traits..iterator..Iterator$GT$9size_hint17h0db02c2c70414863E
	.p2align	4, 0x90
__ZN102_$LT$core..iter..adapters..map..Map$LT$I$C$F$GT$$u20$as$u20$core..iter..traits..iterator..Iterator$GT$9size_hint17h0db02c2c70414863E:
Lfunc_begin7:
	.loc	6 107 0
	.cfi_startproc
	pushq	%rbp
	.cfi_def_cfa_offset 16
	.cfi_offset %rbp, -16
	movq	%rsp, %rbp
	.cfi_def_cfa_register %rbp
	subq	$16, %rsp
	movq	%rdi, %rax
	movq	%rax, -16(%rbp)
	movq	%rsi, -8(%rbp)
Ltmp56:
	.loc	6 108 9 prologue_end
	callq	__ZN100_$LT$core..iter..adapters..take..Take$LT$I$GT$$u20$as$u20$core..iter..traits..iterator..Iterator$GT$9size_hint17he5648454cea7c249E
	movq	-16(%rbp), %rax
	.loc	6 109 6
	addq	$16, %rsp
	popq	%rbp
	retq
Ltmp57:
Lfunc_end7:
	.cfi_endproc

	.globl	__ZN102_$LT$core..iter..adapters..map..Map$LT$I$C$F$GT$$u20$as$u20$core..iter..traits..iterator..Iterator$GT$9size_hint17hb56bd940caf3e9b7E
	.p2align	4, 0x90
__ZN102_$LT$core..iter..adapters..map..Map$LT$I$C$F$GT$$u20$as$u20$core..iter..traits..iterator..Iterator$GT$9size_hint17hb56bd940caf3e9b7E:
Lfunc_begin8:
	.loc	6 107 0
	.cfi_startproc
	pushq	%rbp
	.cfi_def_cfa_offset 16
	.cfi_offset %rbp, -16
	movq	%rsp, %rbp
	.cfi_def_cfa_register %rbp
	subq	$16, %rsp
	movq	%rdi, %rax
	movq	%rax, -16(%rbp)
	movq	%rsi, -8(%rbp)
Ltmp58:
	.loc	6 108 9 prologue_end
	callq	__ZN91_$LT$core..slice..iter..Iter$LT$T$GT$$u20$as$u20$core..iter..traits..iterator..Iterator$GT$9size_hint17h757b0a6ecba38f0aE
	movq	-16(%rbp), %rax
	.loc	6 109 6
	addq	$16, %rsp
	popq	%rbp
	retq
Ltmp59:
Lfunc_end8:
	.cfi_endproc

	.globl	__ZN102_$LT$core..iter..adapters..map..Map$LT$I$C$F$GT$$u20$as$u20$core..iter..traits..iterator..Iterator$GT$9size_hint17hb94d39c8cb5e8edaE
	.p2align	4, 0x90
__ZN102_$LT$core..iter..adapters..map..Map$LT$I$C$F$GT$$u20$as$u20$core..iter..traits..iterator..Iterator$GT$9size_hint17hb94d39c8cb5e8edaE:
Lfunc_begin9:
	.loc	6 107 0
	.cfi_startproc
	pushq	%rbp
	.cfi_def_cfa_offset 16
	.cfi_offset %rbp, -16
	movq	%rsp, %rbp
	.cfi_def_cfa_register %rbp
	subq	$16, %rsp
	movq	%rdi, %rax
	movq	%rax, -16(%rbp)
	movq	%rsi, -8(%rbp)
Ltmp60:
	.loc	6 108 9 prologue_end
	callq	__ZN102_$LT$core..iter..adapters..map..Map$LT$I$C$F$GT$$u20$as$u20$core..iter..traits..iterator..Iterator$GT$9size_hint17hb56bd940caf3e9b7E
	movq	-16(%rbp), %rax
	.loc	6 109 6
	addq	$16, %rsp
	popq	%rbp
	retq
Ltmp61:
Lfunc_end9:
	.cfi_endproc

	.globl	__ZN104_$LT$core..ops..index_range..IndexRange$u20$as$u20$core..slice..index..SliceIndex$LT$$u5b$T$u5d$$GT$$GT$17get_unchecked_mut17h29a37c992ddae014E
	.p2align	4, 0x90
__ZN104_$LT$core..ops..index_range..IndexRange$u20$as$u20$core..slice..index..SliceIndex$LT$$u5b$T$u5d$$GT$$GT$17get_unchecked_mut17h29a37c992ddae014E:
Lfunc_begin10:
	.file	7 "/rustc/2c8cc343237b8f7d5a3c3703e3a87f2eb2c54a74/library/core/src/slice" "index.rs"
	.loc	7 314 0
	.cfi_startproc
	pushq	%rbp
	.cfi_def_cfa_offset 16
	.cfi_offset %rbp, -16
	movq	%rsp, %rbp
	.cfi_def_cfa_register %rbp
	subq	$184, %rsp
	movq	%rdi, -184(%rbp)
	movq	%rsi, -176(%rbp)
	movq	%rdx, -136(%rbp)
	movq	%rcx, -128(%rbp)
Ltmp62:
	.loc	7 322 43 prologue_end
	movq	%rdx, -120(%rbp)
	movq	%rcx, -112(%rbp)
Ltmp63:
	.file	8 "/rustc/2c8cc343237b8f7d5a3c3703e3a87f2eb2c54a74/library/core/src/ptr" "mut_ptr.rs"
	.loc	8 2037 9
	movq	%rdx, -104(%rbp)
	leaq	-184(%rbp), %rax
Ltmp64:
	.loc	7 322 66
	movq	%rax, -96(%rbp)
Ltmp65:
	.file	9 "/rustc/2c8cc343237b8f7d5a3c3703e3a87f2eb2c54a74/library/core/src/ops" "index_range.rs"
	.loc	9 38 9
	movq	-184(%rbp), %rcx
	movq	%rcx, -88(%rbp)
Ltmp66:
	.loc	8 1034 18
	movq	%rdx, -80(%rbp)
	.loc	8 1034 30 is_stmt 0
	movq	%rcx, -72(%rbp)
Ltmp67:
	.loc	8 487 18 is_stmt 1
	addq	%rcx, %rdx
	movq	%rdx, -64(%rbp)
	movq	-64(%rbp), %rcx
	movq	%rcx, -56(%rbp)
Ltmp68:
	.loc	7 322 81
	movq	%rax, -48(%rbp)
Ltmp69:
	.loc	9 49 42
	movq	-184(%rbp), %rdx
	.loc	9 49 32 is_stmt 0
	movq	-176(%rbp), %rax
	.loc	9 49 18
	subq	%rdx, %rax
	movq	%rax, -40(%rbp)
	movq	-40(%rbp), %rax
	movq	%rax, -32(%rbp)
Ltmp70:
	.file	10 "/rustc/2c8cc343237b8f7d5a3c3703e3a87f2eb2c54a74/library/core/src/ptr" "mod.rs"
	.loc	10 766 24 is_stmt 1
	movq	%rcx, -24(%rbp)
Ltmp71:
	.loc	8 60 9
	movq	%rcx, -16(%rbp)
Ltmp72:
	.loc	10 766 37
	movq	%rax, -8(%rbp)
Ltmp73:
	.file	11 "/rustc/2c8cc343237b8f7d5a3c3703e3a87f2eb2c54a74/library/core/src/ptr" "metadata.rs"
	.loc	11 135 36
	movq	%rcx, -152(%rbp)
	movq	%rax, -144(%rbp)
	.loc	11 135 14 is_stmt 0
	movq	-152(%rbp), %rcx
	movq	-144(%rbp), %rax
	movq	%rcx, -168(%rbp)
	movq	%rax, -160(%rbp)
	movq	-168(%rbp), %rax
	movq	-160(%rbp), %rdx
Ltmp74:
	.loc	7 324 6 is_stmt 1
	addq	$184, %rsp
	popq	%rbp
	retq
Ltmp75:
Lfunc_end10:
	.cfi_endproc

	.globl	__ZN107_$LT$std..collections..hash..map..Values$LT$K$C$V$GT$$u20$as$u20$core..iter..traits..iterator..Iterator$GT$4next17he305f82e0dccc3dfE
	.p2align	4, 0x90
__ZN107_$LT$std..collections..hash..map..Values$LT$K$C$V$GT$$u20$as$u20$core..iter..traits..iterator..Iterator$GT$4next17he305f82e0dccc3dfE:
Lfunc_begin11:
	.file	12 "/rustc/2c8cc343237b8f7d5a3c3703e3a87f2eb2c54a74/library/std/src/collections/hash" "map.rs"
	.loc	12 2341 0
	.cfi_startproc
	pushq	%rbp
	.cfi_def_cfa_offset 16
	.cfi_offset %rbp, -16
	movq	%rsp, %rbp
	.cfi_def_cfa_register %rbp
	subq	$16, %rsp
	movq	%rdi, -16(%rbp)
Ltmp76:
	.loc	12 2342 9 prologue_end
	movq	%rdi, -8(%rbp)
Ltmp77:
	.loc	12 2231 9
	callq	__ZN92_$LT$hashbrown..map..Iter$LT$K$C$V$GT$$u20$as$u20$core..iter..traits..iterator..Iterator$GT$4next17hf24a2799b15f63a7E
	movq	%rax, %rdi
	movq	%rdx, %rsi
Ltmp78:
	.loc	12 2342 9
	callq	__ZN4core6option15Option$LT$T$GT$3map17heb5b9836db919b41E
	.loc	12 2343 6
	addq	$16, %rsp
	popq	%rbp
	retq
Ltmp79:
Lfunc_end11:
	.cfi_endproc

	.globl	__ZN107_$LT$std..collections..hash..map..Values$LT$K$C$V$GT$$u20$as$u20$core..iter..traits..iterator..Iterator$GT$4next28_$u7b$$u7b$closure$u7d$$u7d$17h74f824a26450fe87E
	.p2align	4, 0x90
__ZN107_$LT$std..collections..hash..map..Values$LT$K$C$V$GT$$u20$as$u20$core..iter..traits..iterator..Iterator$GT$4next28_$u7b$$u7b$closure$u7d$$u7d$17h74f824a26450fe87E:
Lfunc_begin12:
	.loc	12 2342 0
	.cfi_startproc
	pushq	%rbp
	.cfi_def_cfa_offset 16
	.cfi_offset %rbp, -16
	movq	%rsp, %rbp
	.cfi_def_cfa_register %rbp
	subq	$32, %rsp
	movq	%rsi, %rax
	movq	%rdi, -24(%rbp)
	movq	%rax, -16(%rbp)
Ltmp80:
	.loc	12 2342 36 prologue_end
	movq	%rax, -8(%rbp)
	.loc	12 2342 41 is_stmt 0
	addq	$32, %rsp
	popq	%rbp
	retq
Ltmp81:
Lfunc_end12:
	.cfi_endproc

	.globl	__ZN110_$LT$core..array..iter..IntoIter$LT$T$C$_$GT$$u20$as$u20$core..iter..traits..exact_size..ExactSizeIterator$GT$3len17h3564ac0cd33654a8E
	.p2align	4, 0x90
__ZN110_$LT$core..array..iter..IntoIter$LT$T$C$_$GT$$u20$as$u20$core..iter..traits..exact_size..ExactSizeIterator$GT$3len17h3564ac0cd33654a8E:
Lfunc_begin13:
	.file	13 "/rustc/2c8cc343237b8f7d5a3c3703e3a87f2eb2c54a74/library/core/src/array" "iter.rs"
	.loc	13 366 0 is_stmt 1
	.cfi_startproc
	pushq	%rbp
	.cfi_def_cfa_offset 16
	.cfi_offset %rbp, -16
	movq	%rsp, %rbp
	.cfi_def_cfa_register %rbp
	subq	$24, %rsp
	movq	%rdi, -24(%rbp)
Ltmp82:
	.loc	13 367 9 prologue_end
	movq	%rdi, -16(%rbp)
Ltmp83:
	.loc	9 49 32
	movq	8(%rdi), %rax
	.loc	9 49 18 is_stmt 0
	subq	(%rdi), %rax
	movq	%rax, -8(%rbp)
	movq	-8(%rbp), %rax
Ltmp84:
	.loc	13 368 6 is_stmt 1
	addq	$24, %rsp
	popq	%rbp
	retq
Ltmp85:
Lfunc_end13:
	.cfi_endproc

	.globl	__ZN111_$LT$alloc..vec..Vec$LT$T$GT$$u20$as$u20$alloc..vec..spec_from_iter_nested..SpecFromIterNested$LT$T$C$I$GT$$GT$9from_iter17hacd4e9713a7e9d06E
	.p2align	4, 0x90
__ZN111_$LT$alloc..vec..Vec$LT$T$GT$$u20$as$u20$alloc..vec..spec_from_iter_nested..SpecFromIterNested$LT$T$C$I$GT$$GT$9from_iter17hacd4e9713a7e9d06E:
Lfunc_begin14:
	.file	14 "/rustc/2c8cc343237b8f7d5a3c3703e3a87f2eb2c54a74/library/alloc/src/vec" "spec_from_iter_nested.rs"
	.loc	14 20 0
	.cfi_startproc
	.cfi_personality 155, _rust_eh_personality
	.cfi_lsda 16, Lexception3
	pushq	%rbp
	.cfi_def_cfa_offset 16
	.cfi_offset %rbp, -16
	movq	%rsp, %rbp
	.cfi_def_cfa_register %rbp
	subq	$496, %rsp
	movq	%rsi, -440(%rbp)
Ltmp102:
	movq	%rdi, %rax
	movq	-440(%rbp), %rdi
	movq	%rax, -432(%rbp)
	movq	%rax, -424(%rbp)
Ltmp103:
	.loc	14 26 13 prologue_end
	movb	$1, -226(%rbp)
Ltmp86:
	.loc	14 26 32 is_stmt 0
	callq	__ZN102_$LT$core..iter..adapters..map..Map$LT$I$C$F$GT$$u20$as$u20$core..iter..traits..iterator..Iterator$GT$4next17h6fd80d3034f6e0d9E
Ltmp87:
	movb	%dl, -410(%rbp)
	movb	%al, -409(%rbp)
	jmp	LBB14_3
Ltmp104:
LBB14_1:
	.loc	14 45 5 is_stmt 1
	testb	$1, -226(%rbp)
	jne	LBB14_19
	jmp	LBB14_18
Ltmp105:
LBB14_2:
Ltmp88:
	.loc	14 0 5 is_stmt 0
	movq	%rax, %rcx
	movl	%edx, %eax
	movq	%rcx, -200(%rbp)
	movl	%eax, -192(%rbp)
	jmp	LBB14_1
Ltmp106:
LBB14_3:
	movb	-410(%rbp), %al
	movb	-409(%rbp), %cl
	.loc	14 26 32 is_stmt 1
	movb	%cl, -384(%rbp)
	movb	%al, -383(%rbp)
	movb	-384(%rbp), %al
	andb	$1, %al
	movzbl	%al, %eax
	.loc	14 26 26 is_stmt 0
	cmpq	$0, %rax
	jne	LBB14_5
Ltmp107:
	.loc	14 0 26
	movq	-432(%rbp), %rax
Ltmp108:
	.file	15 "/rustc/2c8cc343237b8f7d5a3c3703e3a87f2eb2c54a74/library/alloc/src/vec" "mod.rs"
	.loc	15 425 20 is_stmt 1
	movq	L___unnamed_11(%rip), %rdx
	movq	L___unnamed_11+8(%rip), %rcx
	.loc	15 425 9 is_stmt 0
	movq	%rdx, (%rax)
	movq	%rcx, 8(%rax)
	movq	$0, 16(%rax)
Ltmp109:
	.loc	14 45 5 is_stmt 1
	jmp	LBB14_20
Ltmp110:
LBB14_5:
	.loc	14 0 5 is_stmt 0
	movq	-440(%rbp), %rsi
	.loc	14 28 18 is_stmt 1
	movb	-383(%rbp), %al
	movb	%al, -441(%rbp)
	movb	%al, -177(%rbp)
Ltmp89:
	leaq	-376(%rbp), %rdi
Ltmp111:
	.loc	14 29 34
	callq	__ZN102_$LT$core..iter..adapters..map..Map$LT$I$C$F$GT$$u20$as$u20$core..iter..traits..iterator..Iterator$GT$9size_hint17h0db02c2c70414863E
Ltmp90:
	jmp	LBB14_8
Ltmp112:
LBB14_6:
	.loc	14 39 13
	movb	$1, %al
	testb	$1, %al
	jne	LBB14_14
	jmp	LBB14_1
Ltmp113:
LBB14_7:
Ltmp95:
	.loc	14 0 13 is_stmt 0
	movq	%rax, %rcx
	movl	%edx, %eax
	movq	%rcx, -200(%rbp)
	movl	%eax, -192(%rbp)
	jmp	LBB14_6
Ltmp114:
LBB14_8:
	.loc	14 29 22 is_stmt 1
	movq	-376(%rbp), %rax
	movq	%rax, -176(%rbp)
Ltmp115:
	.loc	14 31 61
	movq	%rax, -168(%rbp)
Ltmp116:
	.file	16 "/rustc/2c8cc343237b8f7d5a3c3703e3a87f2eb2c54a74/library/core/src/num" "uint_macros.rs"
	.loc	16 1022 13
	incq	%rax
	movq	$-1, %rcx
	cmoveq	%rcx, %rax
	movq	%rax, -160(%rbp)
	movq	-160(%rbp), %rax
	movq	%rax, -456(%rbp)
	movq	%rax, -152(%rbp)
Ltmp117:
	.loc	16 0 13 is_stmt 0
	movq	-456(%rbp), %rsi
	.loc	14 31 21 is_stmt 1
	movq	$8, -144(%rbp)
Ltmp118:
	.loc	4 1276 5
	movq	$8, -136(%rbp)
	.loc	4 1276 12 is_stmt 0
	movq	%rsi, -128(%rbp)
Ltmp91:
	movl	$8, %edi
Ltmp119:
	.loc	4 803 13 is_stmt 1
	callq	__ZN4core3cmp6max_by17hb70c5b8946bbfe9fE
Ltmp92:
	movq	%rax, -464(%rbp)
	jmp	LBB14_10
Ltmp120:
LBB14_10:
	.loc	4 0 13 is_stmt 0
	movq	-464(%rbp), %rdi
	.loc	4 803 13
	movq	%rdi, -120(%rbp)
Ltmp121:
	.loc	14 32 53 is_stmt 1
	movq	%rdi, -112(%rbp)
Ltmp122:
	.loc	15 483 32
	movq	%rdi, -104(%rbp)
Ltmp123:
	.loc	15 676 45
	movq	%rdi, -96(%rbp)
Ltmp124:
	.file	17 "/rustc/2c8cc343237b8f7d5a3c3703e3a87f2eb2c54a74/library/alloc/src" "raw_vec.rs"
	.loc	17 131 37
	movb	$0, -225(%rbp)
	.loc	17 131 9 is_stmt 0
	movzbl	-225(%rbp), %esi
Ltmp93:
	callq	__ZN5alloc7raw_vec19RawVec$LT$T$C$A$GT$11allocate_in17hd7c150da13a32745E
Ltmp94:
	movq	%rdx, -480(%rbp)
	movq	%rax, -472(%rbp)
	jmp	LBB14_11
Ltmp125:
LBB14_11:
	.loc	17 0 9
	movq	-480(%rbp), %rax
	movq	-472(%rbp), %rcx
	.loc	15 676 9 is_stmt 1
	movq	%rcx, -352(%rbp)
	movq	%rax, -344(%rbp)
	movq	$0, -336(%rbp)
Ltmp126:
	.loc	14 35 32
	leaq	-352(%rbp), %rax
	movq	%rax, -88(%rbp)
Ltmp127:
	.loc	15 1280 19
	leaq	-352(%rbp), %rax
	movq	%rax, -80(%rbp)
Ltmp128:
	.loc	17 224 9
	movq	-344(%rbp), %rax
	movq	%rax, -488(%rbp)
	movq	%rax, -72(%rbp)
Ltmp129:
	.file	18 "/rustc/2c8cc343237b8f7d5a3c3703e3a87f2eb2c54a74/library/core/src/ptr" "unique.rs"
	.loc	18 104 9
	movq	%rax, -64(%rbp)
Ltmp130:
	.file	19 "/rustc/2c8cc343237b8f7d5a3c3703e3a87f2eb2c54a74/library/core/src/ptr" "non_null.rs"
	.loc	19 326 9
	movq	%rax, -56(%rbp)
Ltmp131:
	.loc	15 1282 21
	movq	%rax, -48(%rbp)
Ltmp132:
	.loc	8 52 36
	movq	%rax, -224(%rbp)
	.loc	8 52 18 is_stmt 0
	movq	-224(%rbp), %rax
	movq	%rax, -40(%rbp)
Ltmp133:
	.loc	8 38 13 is_stmt 1
	movq	%rax, -32(%rbp)
Ltmp134:
	.loc	8 215 33
	movq	%rax, -24(%rbp)
	.loc	8 215 18 is_stmt 0
	movq	%rax, -16(%rbp)
	movq	-16(%rbp), %rax
Ltmp135:
	.loc	8 0 18
	movq	-440(%rbp), %rsi
	movq	-488(%rbp), %rax
	movb	-441(%rbp), %cl
	.loc	14 35 53 is_stmt 1
	movb	%cl, -321(%rbp)
Ltmp136:
	.loc	10 1354 9
	movb	-321(%rbp), %cl
	movb	%cl, (%rax)
	leaq	-352(%rbp), %rax
Ltmp137:
	.loc	14 36 21
	movq	%rax, -8(%rbp)
Ltmp138:
	.loc	15 1377 9
	movq	$1, -336(%rbp)
Ltmp139:
	.loc	14 38 17
	movq	-336(%rbp), %rax
	movq	%rax, -392(%rbp)
	movq	-352(%rbp), %rax
	movq	-344(%rbp), %rcx
	movq	%rcx, -400(%rbp)
	movq	%rax, -408(%rbp)
Ltmp140:
	.loc	14 43 64
	movb	$0, -226(%rbp)
	movl	$11, %ecx
	leaq	-320(%rbp), %rdi
	movq	%rdi, -496(%rbp)
	rep;movsq (%rsi), %es:(%rdi)
	movq	-496(%rbp), %rsi
Ltmp96:
	leaq	-408(%rbp), %rdi
	.loc	14 43 9 is_stmt 0
	callq	__ZN97_$LT$alloc..vec..Vec$LT$T$C$A$GT$$u20$as$u20$alloc..vec..spec_extend..SpecExtend$LT$T$C$I$GT$$GT$11spec_extend17hd19521e1cb7b8b4cE
Ltmp97:
	jmp	LBB14_17
Ltmp141:
LBB14_13:
Ltmp101:
	.loc	14 20 5 is_stmt 1
	callq	__ZN4core9panicking19panic_cannot_unwind17h1fbca7e1d7f56ae1E
Ltmp142:
LBB14_14:
	.loc	14 39 13
	jmp	LBB14_1
Ltmp143:
LBB14_15:
Ltmp99:
	.loc	14 0 13 is_stmt 0
	leaq	-408(%rbp), %rdi
	.loc	14 45 5 is_stmt 1
	callq	__ZN4core3ptr46drop_in_place$LT$alloc..vec..Vec$LT$u8$GT$$GT$17h6373bb92688045e4E
Ltmp100:
	jmp	LBB14_1
Ltmp144:
LBB14_16:
Ltmp98:
	.loc	14 0 5 is_stmt 0
	movq	%rax, %rcx
	movl	%edx, %eax
	movq	%rcx, -200(%rbp)
	movl	%eax, -192(%rbp)
	jmp	LBB14_15
Ltmp145:
LBB14_17:
	movq	-432(%rbp), %rax
Ltmp146:
	.loc	14 44 9 is_stmt 1
	movq	-408(%rbp), %rcx
	movq	%rcx, (%rax)
	movq	-400(%rbp), %rcx
	movq	%rcx, 8(%rax)
	movq	-392(%rbp), %rcx
	movq	%rcx, 16(%rax)
Ltmp147:
	.loc	14 45 5
	jmp	LBB14_20
Ltmp148:
LBB14_18:
	.loc	14 20 5
	movq	-200(%rbp), %rdi
	callq	__Unwind_Resume
Ltmp149:
LBB14_19:
	.loc	14 45 5
	jmp	LBB14_18
Ltmp150:
LBB14_20:
	.loc	14 0 5 is_stmt 0
	movq	-424(%rbp), %rax
	.loc	14 45 6
	addq	$496, %rsp
	popq	%rbp
	retq
Ltmp151:
Lfunc_end14:
	.cfi_endproc
	.section	__TEXT,__gcc_except_tab
	.p2align	2
GCC_except_table14:
Lexception3:
	.byte	255
	.byte	255
	.byte	1
	.uleb128 Lcst_end3-Lcst_begin3
Lcst_begin3:
	.uleb128 Ltmp86-Lfunc_begin14
	.uleb128 Ltmp87-Ltmp86
	.uleb128 Ltmp88-Lfunc_begin14
	.byte	0
	.uleb128 Ltmp89-Lfunc_begin14
	.uleb128 Ltmp94-Ltmp89
	.uleb128 Ltmp95-Lfunc_begin14
	.byte	0
	.uleb128 Ltmp96-Lfunc_begin14
	.uleb128 Ltmp97-Ltmp96
	.uleb128 Ltmp98-Lfunc_begin14
	.byte	0
	.uleb128 Ltmp99-Lfunc_begin14
	.uleb128 Ltmp100-Ltmp99
	.uleb128 Ltmp101-Lfunc_begin14
	.byte	0
	.uleb128 Ltmp100-Lfunc_begin14
	.uleb128 Lfunc_end14-Ltmp100
	.byte	0
	.byte	0
Lcst_end3:
	.p2align	2

	.section	__TEXT,__text,regular,pure_instructions
	.globl	__ZN111_$LT$alloc..vec..Vec$LT$T$GT$$u20$as$u20$alloc..vec..spec_from_iter_nested..SpecFromIterNested$LT$T$C$I$GT$$GT$9from_iter17hf41f045d9171ef7fE
	.p2align	4, 0x90
__ZN111_$LT$alloc..vec..Vec$LT$T$GT$$u20$as$u20$alloc..vec..spec_from_iter_nested..SpecFromIterNested$LT$T$C$I$GT$$GT$9from_iter17hf41f045d9171ef7fE:
Lfunc_begin15:
	.loc	14 52 0 is_stmt 1
	.cfi_startproc
	.cfi_personality 155, _rust_eh_personality
	.cfi_lsda 16, Lexception4
	pushq	%rbp
	.cfi_def_cfa_offset 16
	.cfi_offset %rbp, -16
	movq	%rsp, %rbp
	.cfi_def_cfa_register %rbp
	subq	$288, %rsp
	movq	%rsi, -256(%rbp)
Ltmp169:
	movq	%rdi, -248(%rbp)
	movq	%rdi, -240(%rbp)
Ltmp170:
	.loc	14 53 13 prologue_end
	movb	$1, -66(%rbp)
Ltmp152:
	leaq	-232(%rbp), %rdi
	.loc	14 53 32 is_stmt 0
	callq	__ZN114_$LT$core..iter..adapters..flatten..FlatMap$LT$I$C$U$C$F$GT$$u20$as$u20$core..iter..traits..iterator..Iterator$GT$9size_hint17hc2e25c99b6f1149eE
Ltmp171:
Ltmp153:
	jmp	LBB15_3
Ltmp172:
LBB15_1:
	.loc	14 64 5 is_stmt 1
	testb	$1, -66(%rbp)
	jne	LBB15_14
	jmp	LBB15_13
Ltmp173:
LBB15_2:
Ltmp160:
	.loc	14 0 5 is_stmt 0
	movq	%rax, %rcx
	movl	%edx, %eax
	movq	%rcx, -48(%rbp)
	movl	%eax, -40(%rbp)
	jmp	LBB15_1
Ltmp174:
LBB15_3:
	.loc	14 53 26 is_stmt 1
	cmpq	$1, -224(%rbp)
	jne	LBB15_5
Ltmp175:
	.loc	14 54 22
	movq	-216(%rbp), %rdi
	movq	%rdi, -32(%rbp)
Ltmp176:
	.loc	14 54 52 is_stmt 0
	movq	%rdi, -24(%rbp)
Ltmp177:
	.loc	15 483 32 is_stmt 1
	movq	%rdi, -16(%rbp)
Ltmp178:
	.loc	15 676 45
	movq	%rdi, -8(%rbp)
Ltmp179:
	.loc	17 131 37
	movb	$0, -65(%rbp)
	.loc	17 131 9 is_stmt 0
	movzbl	-65(%rbp), %esi
Ltmp158:
	callq	__ZN5alloc7raw_vec19RawVec$LT$T$C$A$GT$11allocate_in17hd7c150da13a32745E
Ltmp159:
	movq	%rdx, -272(%rbp)
	movq	%rax, -264(%rbp)
	jmp	LBB15_8
Ltmp180:
LBB15_5:
Ltmp154:
	.loc	14 59 18 is_stmt 1
	leaq	l___unnamed_12(%rip), %rsi
	leaq	l___unnamed_13(%rip), %rcx
	xorl	%eax, %eax
	movl	%eax, %r8d
	leaq	-208(%rbp), %rdi
	movl	$1, %edx
	callq	__ZN4core3fmt9Arguments6new_v117h746c3dd55c20477aE
Ltmp155:
	jmp	LBB15_6
Ltmp181:
LBB15_6:
Ltmp156:
	leaq	l___unnamed_14(%rip), %rsi
	leaq	-208(%rbp), %rdi
	callq	__ZN4core9panicking9panic_fmt17h9b5d807e24bcaaedE
Ltmp157:
	jmp	LBB15_7
Ltmp182:
LBB15_7:
	.loc	14 0 18 is_stmt 0
	ud2
Ltmp183:
LBB15_8:
	movq	-248(%rbp), %rax
	movq	-256(%rbp), %rsi
	movq	-272(%rbp), %rcx
	movq	-264(%rbp), %rdx
Ltmp184:
	.loc	15 676 9 is_stmt 1
	movq	%rdx, (%rax)
	movq	%rcx, 8(%rax)
	movq	$0, 16(%rax)
Ltmp185:
	.loc	14 62 28
	movb	$0, -66(%rbp)
	movl	$11, %ecx
	leaq	-160(%rbp), %rdi
	movq	%rdi, -280(%rbp)
	rep;movsq (%rsi), %es:(%rdi)
	movq	-280(%rbp), %rsi
	movq	-248(%rbp), %rdi
Ltmp161:
	.loc	14 62 9 is_stmt 0
	callq	__ZN97_$LT$alloc..vec..Vec$LT$T$C$A$GT$$u20$as$u20$alloc..vec..spec_extend..SpecExtend$LT$T$C$I$GT$$GT$11spec_extend17h0376404189278bb5E
Ltmp162:
	jmp	LBB15_11
Ltmp186:
LBB15_9:
Ltmp164:
	.loc	14 0 9
	movq	-248(%rbp), %rdi
	.loc	14 64 5 is_stmt 1
	callq	__ZN4core3ptr46drop_in_place$LT$alloc..vec..Vec$LT$u8$GT$$GT$17h6373bb92688045e4E
Ltmp165:
	jmp	LBB15_1
Ltmp187:
LBB15_10:
Ltmp163:
	.loc	14 0 5 is_stmt 0
	movq	%rax, %rcx
	movl	%edx, %eax
	movq	%rcx, -48(%rbp)
	movl	%eax, -40(%rbp)
	jmp	LBB15_9
Ltmp188:
LBB15_11:
	movq	-240(%rbp), %rax
	.loc	14 64 6
	addq	$288, %rsp
	popq	%rbp
	retq
Ltmp189:
LBB15_12:
Ltmp168:
	.loc	14 52 5 is_stmt 1
	callq	__ZN4core9panicking19panic_cannot_unwind17h1fbca7e1d7f56ae1E
Ltmp190:
LBB15_13:
	movq	-48(%rbp), %rdi
	callq	__Unwind_Resume
Ltmp191:
LBB15_14:
Ltmp166:
	.loc	14 0 5 is_stmt 0
	movq	-256(%rbp), %rdi
	.loc	14 64 5 is_stmt 1
	callq	__ZN4core3ptr307drop_in_place$LT$core..iter..adapters..flatten..FlatMap$LT$core..iter..adapters..map..Map$LT$core..slice..iter..Iter$LT$f32$GT$$C$epaint..image..FontImage..srgba_pixels..$u7b$$u7b$closure$u7d$$u7d$$GT$$C$$u5b$u8$u3b$$u20$4$u5d$$C$egui_glow..painter..Painter..set_texture..$u7b$$u7b$closure$u7d$$u7d$$GT$$GT$17h91cb8ee8e836ca8aE
Ltmp167:
	jmp	LBB15_13
Ltmp192:
Lfunc_end15:
	.cfi_endproc
	.section	__TEXT,__gcc_except_tab
	.p2align	2
GCC_except_table15:
Lexception4:
	.byte	255
	.byte	255
	.byte	1
	.uleb128 Lcst_end4-Lcst_begin4
Lcst_begin4:
	.uleb128 Ltmp152-Lfunc_begin15
	.uleb128 Ltmp157-Ltmp152
	.uleb128 Ltmp160-Lfunc_begin15
	.byte	0
	.uleb128 Ltmp161-Lfunc_begin15
	.uleb128 Ltmp162-Ltmp161
	.uleb128 Ltmp163-Lfunc_begin15
	.byte	0
	.uleb128 Ltmp164-Lfunc_begin15
	.uleb128 Ltmp165-Ltmp164
	.uleb128 Ltmp168-Lfunc_begin15
	.byte	0
	.uleb128 Ltmp165-Lfunc_begin15
	.uleb128 Ltmp166-Ltmp165
	.byte	0
	.byte	0
	.uleb128 Ltmp166-Lfunc_begin15
	.uleb128 Ltmp167-Ltmp166
	.uleb128 Ltmp168-Lfunc_begin15
	.byte	0
Lcst_end4:
	.p2align	2

	.section	__TEXT,__text,regular,pure_instructions
	.p2align	4, 0x90
__ZN113_$LT$alloc..string..String$u20$as$u20$core..ops..index..Index$LT$core..ops..range..RangeFrom$LT$usize$GT$$GT$$GT$5index17h0e25fb2cad35820bE:
Lfunc_begin16:
	.file	20 "/rustc/2c8cc343237b8f7d5a3c3703e3a87f2eb2c54a74/library/alloc/src" "string.rs"
	.loc	20 2379 0
	.cfi_startproc
	pushq	%rbp
	.cfi_def_cfa_offset 16
	.cfi_offset %rbp, -16
	movq	%rsp, %rbp
	.cfi_def_cfa_register %rbp
	subq	$112, %rsp
	movq	%rsi, -104(%rbp)
	movq	%rdx, -96(%rbp)
	movq	%rdi, -88(%rbp)
	movq	%rsi, -80(%rbp)
Ltmp193:
	.loc	20 2380 10 prologue_end
	movq	%rdi, -64(%rbp)
Ltmp194:
	.loc	20 2389 43
	callq	__ZN72_$LT$alloc..vec..Vec$LT$T$C$A$GT$$u20$as$u20$core..ops..deref..Deref$GT$5deref17h1715442bad4dd450E
	movq	-104(%rbp), %rdi
	movq	-96(%rbp), %rcx
	movq	%rax, -56(%rbp)
	movq	%rdx, -48(%rbp)
Ltmp195:
	.file	21 "/rustc/2c8cc343237b8f7d5a3c3703e3a87f2eb2c54a74/library/core/src/str" "converts.rs"
	.loc	21 173 14
	movq	%rax, -40(%rbp)
	movq	%rdx, -32(%rbp)
	movq	-40(%rbp), %rsi
	movq	-32(%rbp), %rdx
Ltmp196:
	.loc	20 2380 10
	movq	%rsi, -24(%rbp)
	movq	%rdx, -16(%rbp)
	.loc	20 2380 19 is_stmt 0
	movq	%rdi, -8(%rbp)
Ltmp197:
	.file	22 "/rustc/2c8cc343237b8f7d5a3c3703e3a87f2eb2c54a74/library/core/src/str" "traits.rs"
	.loc	22 65 9 is_stmt 1
	callq	__ZN4core3str6traits112_$LT$impl$u20$core..slice..index..SliceIndex$LT$str$GT$$u20$for$u20$core..ops..range..RangeFrom$LT$usize$GT$$GT$5index17hb5c3648ed4d1e846E
Ltmp198:
	.loc	20 2381 6
	addq	$112, %rsp
	popq	%rbp
	retq
Ltmp199:
Lfunc_end16:
	.cfi_endproc

	.globl	__ZN114_$LT$core..iter..adapters..by_ref_sized..ByRefSized$LT$I$GT$$u20$as$u20$core..iter..traits..iterator..Iterator$GT$4fold17he5f83237d67e353fE
	.p2align	4, 0x90
__ZN114_$LT$core..iter..adapters..by_ref_sized..ByRefSized$LT$I$GT$$u20$as$u20$core..iter..traits..iterator..Iterator$GT$4fold17he5f83237d67e353fE:
Lfunc_begin17:
	.file	23 "/rustc/2c8cc343237b8f7d5a3c3703e3a87f2eb2c54a74/library/core/src/iter/adapters" "by_ref_sized.rs"
	.loc	23 42 0
	.cfi_startproc
	.cfi_personality 155, _rust_eh_personality
	.cfi_lsda 16, Lexception5
	pushq	%rbp
	.cfi_def_cfa_offset 16
	.cfi_offset %rbp, -16
	movq	%rsp, %rbp
	.cfi_def_cfa_register %rbp
	subq	$80, %rsp
	movq	%rdi, -56(%rbp)
	movq	%rsi, -48(%rbp)
	movq	%rdx, -40(%rbp)
Ltmp205:
	.loc	23 47 21 prologue_end
	movq	-56(%rbp), %rax
	movq	%rax, -72(%rbp)
	.loc	23 47 29 is_stmt 0
	movb	$1, -25(%rbp)
Ltmp200:
	leaq	-48(%rbp), %rdi
	.loc	23 47 35
	callq	__ZN4core13const_closure60ConstFnMutClosure$LT$$RF$mut$u20$CapturedData$C$Function$GT$3new17ha8e8a7b0b77d0364E
Ltmp201:
	movq	%rax, -64(%rbp)
	jmp	LBB17_3
LBB17_1:
	.loc	23 47 100
	testb	$1, -25(%rbp)
	jne	LBB17_6
	jmp	LBB17_5
LBB17_2:
Ltmp204:
	.loc	23 0 100
	movq	%rax, %rcx
	movl	%edx, %eax
	movq	%rcx, -16(%rbp)
	movl	%eax, -8(%rbp)
	jmp	LBB17_1
LBB17_3:
	movq	-64(%rbp), %rsi
	movq	-72(%rbp), %rdi
	.loc	23 47 9
	movb	$0, -25(%rbp)
Ltmp202:
	callq	__ZN4core4iter6traits8iterator8Iterator8try_fold17h0cb3c9fbe79fd763E
Ltmp203:
	jmp	LBB17_4
LBB17_4:
	.loc	23 49 6 is_stmt 1
	addq	$80, %rsp
	popq	%rbp
	retq
LBB17_5:
	.loc	23 42 5
	movq	-16(%rbp), %rdi
	callq	__Unwind_Resume
LBB17_6:
	.loc	23 47 100
	jmp	LBB17_5
Ltmp206:
Lfunc_end17:
	.cfi_endproc
	.section	__TEXT,__gcc_except_tab
	.p2align	2
GCC_except_table17:
Lexception5:
	.byte	255
	.byte	255
	.byte	1
	.uleb128 Lcst_end5-Lcst_begin5
Lcst_begin5:
	.uleb128 Ltmp200-Lfunc_begin17
	.uleb128 Ltmp203-Ltmp200
	.uleb128 Ltmp204-Lfunc_begin17
	.byte	0
	.uleb128 Ltmp203-Lfunc_begin17
	.uleb128 Lfunc_end17-Ltmp203
	.byte	0
	.byte	0
Lcst_end5:
	.p2align	2

	.section	__TEXT,__text,regular,pure_instructions
	.globl	__ZN114_$LT$core..iter..adapters..flatten..FlatMap$LT$I$C$U$C$F$GT$$u20$as$u20$core..iter..traits..iterator..Iterator$GT$4fold17h5e91dca65dfe8740E
	.p2align	4, 0x90
__ZN114_$LT$core..iter..adapters..flatten..FlatMap$LT$I$C$U$C$F$GT$$u20$as$u20$core..iter..traits..iterator..Iterator$GT$4fold17h5e91dca65dfe8740E:
Lfunc_begin18:
	.file	24 "/rustc/2c8cc343237b8f7d5a3c3703e3a87f2eb2c54a74/library/core/src/iter/adapters" "flatten.rs"
	.loc	24 70 0
	.cfi_startproc
	pushq	%rbp
	.cfi_def_cfa_offset 16
	.cfi_offset %rbp, -16
	movq	%rsp, %rbp
	.cfi_def_cfa_register %rbp
	subq	$128, %rsp
	movq	%rsi, %rax
	movq	%rdi, %rsi
	movq	%rax, -128(%rbp)
Ltmp207:
	.loc	24 74 9 prologue_end
	leaq	-120(%rbp), %rdi
	movl	$88, %edx
	callq	_memcpy
Ltmp208:
	.loc	24 0 9 is_stmt 0
	movq	-128(%rbp), %rsi
	.loc	24 74 31
	movq	(%rsi), %rax
	movq	%rax, -32(%rbp)
	movq	8(%rsi), %rax
	movq	%rax, -24(%rbp)
	movq	16(%rsi), %rax
	movq	%rax, -16(%rbp)
	.loc	24 74 9
	leaq	-120(%rbp), %rdi
	leaq	-32(%rbp), %rsi
	callq	__ZN116_$LT$core..iter..adapters..flatten..FlattenCompat$LT$I$C$U$GT$$u20$as$u20$core..iter..traits..iterator..Iterator$GT$4fold17hdc85e0812875a2ddE
	.loc	24 75 6 is_stmt 1
	addq	$128, %rsp
	popq	%rbp
	retq
Ltmp209:
Lfunc_end18:
	.cfi_endproc

	.globl	__ZN114_$LT$core..iter..adapters..flatten..FlatMap$LT$I$C$U$C$F$GT$$u20$as$u20$core..iter..traits..iterator..Iterator$GT$9size_hint17hc2e25c99b6f1149eE
	.p2align	4, 0x90
__ZN114_$LT$core..iter..adapters..flatten..FlatMap$LT$I$C$U$C$F$GT$$u20$as$u20$core..iter..traits..iterator..Iterator$GT$9size_hint17hc2e25c99b6f1149eE:
Lfunc_begin19:
	.loc	24 55 0
	.cfi_startproc
	pushq	%rbp
	.cfi_def_cfa_offset 16
	.cfi_offset %rbp, -16
	movq	%rsp, %rbp
	.cfi_def_cfa_register %rbp
	subq	$16, %rsp
	movq	%rdi, %rax
	movq	%rax, -16(%rbp)
	movq	%rsi, -8(%rbp)
Ltmp210:
	.loc	24 56 9 prologue_end
	callq	__ZN116_$LT$core..iter..adapters..flatten..FlattenCompat$LT$I$C$U$GT$$u20$as$u20$core..iter..traits..iterator..Iterator$GT$9size_hint17h70c1517e4d7ac4d5E
	movq	-16(%rbp), %rax
	.loc	24 57 6
	addq	$16, %rsp
	popq	%rbp
	retq
Ltmp211:
Lfunc_end19:
	.cfi_endproc

	.globl	__ZN116_$LT$core..iter..adapters..flatten..FlattenCompat$LT$I$C$U$GT$$u20$as$u20$core..iter..traits..iterator..Iterator$GT$4fold17hdc85e0812875a2ddE
	.p2align	4, 0x90
__ZN116_$LT$core..iter..adapters..flatten..FlattenCompat$LT$I$C$U$GT$$u20$as$u20$core..iter..traits..iterator..Iterator$GT$4fold17hdc85e0812875a2ddE:
Lfunc_begin20:
	.loc	24 521 0
	.cfi_startproc
	.cfi_personality 155, _rust_eh_personality
	.cfi_lsda 16, Lexception6
	pushq	%rbp
	.cfi_def_cfa_offset 16
	.cfi_offset %rbp, -16
	movq	%rsp, %rbp
	.cfi_def_cfa_register %rbp
	subq	$176, %rsp
	movq	%rsi, %rax
	movq	%rdi, %rsi
Ltmp218:
	movq	%rax, -176(%rbp)
Ltmp219:
	movl	$11, %ecx
	leaq	-160(%rbp), %rdi
	movq	%rdi, -168(%rbp)
Ltmp220:
	.loc	24 532 9 prologue_end
	rep;movsq (%rsi), %es:(%rdi)
Ltmp221:
	.loc	24 0 9 is_stmt 0
	movq	-176(%rbp), %rsi
	movq	-168(%rbp), %rdi
	.loc	24 532 38
	movq	16(%rsi), %rax
	movq	%rax, -32(%rbp)
	movq	(%rsi), %rax
	movq	8(%rsi), %rcx
	movq	%rcx, -40(%rbp)
	movq	%rax, -48(%rbp)
Ltmp222:
	.loc	24 529 13 is_stmt 1
	movq	-32(%rbp), %rax
	movq	%rax, -56(%rbp)
	movq	-48(%rbp), %rax
	movq	-40(%rbp), %rcx
	movq	%rcx, -64(%rbp)
	movq	%rax, -72(%rbp)
Ltmp212:
	leaq	-72(%rbp), %rsi
Ltmp223:
	.loc	24 532 9
	callq	__ZN4core4iter8adapters7flatten26FlattenCompat$LT$I$C$U$GT$9iter_fold17hdf7a3fe8bdb39f53E
Ltmp213:
	jmp	LBB20_3
Ltmp224:
LBB20_1:
	.loc	24 532 43 is_stmt 0
	xorl	%eax, %eax
	testb	$1, %al
	jne	LBB20_5
	jmp	LBB20_4
Ltmp225:
LBB20_2:
Ltmp214:
	.loc	24 0 43
	movq	%rax, %rcx
	movl	%edx, %eax
	movq	%rcx, -16(%rbp)
	movl	%eax, -8(%rbp)
	jmp	LBB20_1
Ltmp226:
LBB20_3:
	.loc	24 533 6 is_stmt 1
	addq	$176, %rsp
	popq	%rbp
	retq
Ltmp227:
LBB20_4:
	.loc	24 532 43
	xorl	%eax, %eax
	testb	$1, %al
	jne	LBB20_7
	jmp	LBB20_6
Ltmp228:
LBB20_5:
	jmp	LBB20_4
Ltmp229:
LBB20_6:
	.loc	24 521 5
	movq	-16(%rbp), %rdi
	callq	__Unwind_Resume
Ltmp230:
LBB20_7:
Ltmp215:
	.loc	24 0 5 is_stmt 0
	leaq	-160(%rbp), %rdi
	.loc	24 532 43 is_stmt 1
	callq	__ZN4core3ptr375drop_in_place$LT$core..iter..adapters..flatten..FlattenCompat$LT$core..iter..adapters..map..Map$LT$core..iter..adapters..map..Map$LT$core..slice..iter..Iter$LT$f32$GT$$C$epaint..image..FontImage..srgba_pixels..$u7b$$u7b$closure$u7d$$u7d$$GT$$C$egui_glow..painter..Painter..set_texture..$u7b$$u7b$closure$u7d$$u7d$$GT$$C$core..array..iter..IntoIter$LT$u8$C$4_usize$GT$$GT$$GT$17hd2aa108cd0e05d7bE
Ltmp216:
	jmp	LBB20_6
Ltmp231:
LBB20_8:
Ltmp217:
	.loc	24 521 5
	callq	__ZN4core9panicking19panic_cannot_unwind17h1fbca7e1d7f56ae1E
Ltmp232:
Lfunc_end20:
	.cfi_endproc
	.section	__TEXT,__gcc_except_tab
	.p2align	2
GCC_except_table20:
Lexception6:
	.byte	255
	.byte	255
	.byte	1
	.uleb128 Lcst_end6-Lcst_begin6
Lcst_begin6:
	.uleb128 Ltmp212-Lfunc_begin20
	.uleb128 Ltmp213-Ltmp212
	.uleb128 Ltmp214-Lfunc_begin20
	.byte	0
	.uleb128 Ltmp213-Lfunc_begin20
	.uleb128 Ltmp215-Ltmp213
	.byte	0
	.byte	0
	.uleb128 Ltmp215-Lfunc_begin20
	.uleb128 Ltmp216-Ltmp215
	.uleb128 Ltmp217-Lfunc_begin20
	.byte	0
Lcst_end6:
	.p2align	2

	.section	__TEXT,__text,regular,pure_instructions
	.globl	__ZN116_$LT$core..iter..adapters..flatten..FlattenCompat$LT$I$C$U$GT$$u20$as$u20$core..iter..traits..iterator..Iterator$GT$4fold7flatten28_$u7b$$u7b$closure$u7d$$u7d$17hd148562e591bdd19E
	.p2align	4, 0x90
__ZN116_$LT$core..iter..adapters..flatten..FlattenCompat$LT$I$C$U$GT$$u20$as$u20$core..iter..traits..iterator..Iterator$GT$4fold7flatten28_$u7b$$u7b$closure$u7d$$u7d$17hd148562e591bdd19E:
Lfunc_begin21:
	.loc	24 529 0
	.cfi_startproc
	pushq	%rbp
	.cfi_def_cfa_offset 16
	.cfi_offset %rbp, -16
	movq	%rsp, %rbp
	.cfi_def_cfa_register %rbp
	subq	$48, %rsp
	movq	%rsi, %rax
	movq	%rdi, %rsi
	movq	%rsi, -16(%rbp)
Ltmp233:
	.loc	24 529 30 prologue_end
	movq	(%rax), %rcx
	movq	%rcx, -40(%rbp)
	movq	8(%rax), %rcx
	movq	%rcx, -32(%rbp)
	movq	16(%rax), %rax
Ltmp234:
	movq	%rax, -24(%rbp)
	leaq	-40(%rbp), %rdi
	callq	__ZN99_$LT$core..array..iter..IntoIter$LT$T$C$_$GT$$u20$as$u20$core..iter..traits..iterator..Iterator$GT$4fold17hc9f471ae3eaf0c19E
	.loc	24 529 55 is_stmt 0
	addq	$48, %rsp
	popq	%rbp
	retq
Ltmp235:
Lfunc_end21:
	.cfi_endproc

	.globl	__ZN116_$LT$core..iter..adapters..flatten..FlattenCompat$LT$I$C$U$GT$$u20$as$u20$core..iter..traits..iterator..Iterator$GT$9size_hint17h70c1517e4d7ac4d5E
	.p2align	4, 0x90
__ZN116_$LT$core..iter..adapters..flatten..FlattenCompat$LT$I$C$U$GT$$u20$as$u20$core..iter..traits..iterator..Iterator$GT$9size_hint17h70c1517e4d7ac4d5E:
Lfunc_begin22:
	.loc	24 482 0 is_stmt 1
	.cfi_startproc
	pushq	%rbp
	.cfi_def_cfa_offset 16
	.cfi_offset %rbp, -16
	movq	%rsp, %rbp
	.cfi_def_cfa_register %rbp
	subq	$1136, %rsp
	movq	%rsi, -1016(%rbp)
	movq	%rdi, -1008(%rbp)
	movq	%rdi, -1000(%rbp)
	movq	%rsi, -448(%rbp)
Ltmp236:
	.loc	24 483 26 prologue_end
	movq	%rsi, -344(%rbp)
Ltmp237:
	.file	25 "/rustc/2c8cc343237b8f7d5a3c3703e3a87f2eb2c54a74/library/core/src" "option.rs"
	.loc	25 675 9
	cmpq	$0, (%rsi)
	jne	LBB22_2
	.loc	25 677 21
	movq	$0, -968(%rbp)
	jmp	LBB22_3
LBB22_2:
	.loc	25 0 21 is_stmt 0
	movq	-1016(%rbp), %rax
	.loc	25 676 18 is_stmt 1
	addq	$8, %rax
	movq	%rax, -336(%rbp)
Ltmp238:
	.loc	25 676 28 is_stmt 0
	movq	%rax, -968(%rbp)
Ltmp239:
LBB22_3:
	.loc	24 483 61 is_stmt 1
	movq	$0, -928(%rbp)
	movq	$1, -936(%rbp)
	.loc	24 483 57 is_stmt 0
	movq	$0, -960(%rbp)
	movq	-936(%rbp), %rcx
	movq	-928(%rbp), %rax
	movq	%rcx, -952(%rbp)
	movq	%rax, -944(%rbp)
	.loc	24 483 26
	movq	-968(%rbp), %rsi
	leaq	-992(%rbp), %rdi
	leaq	-960(%rbp), %rdx
	callq	__ZN4core6option15Option$LT$T$GT$6map_or17h1ce2fa1a95e6c3fcE
	movq	-1016(%rbp), %rax
	.loc	24 483 14
	movq	-992(%rbp), %rcx
	movq	%rcx, -1048(%rbp)
	movq	%rcx, -328(%rbp)
	.loc	24 483 19
	movq	-984(%rbp), %rdx
	movq	%rdx, -1040(%rbp)
	movq	-976(%rbp), %rcx
	movq	%rcx, -1032(%rbp)
	movq	%rdx, -320(%rbp)
	movq	%rcx, -312(%rbp)
Ltmp240:
	.loc	24 484 26 is_stmt 1
	movq	%rax, %rcx
	addq	$32, %rcx
	movq	%rcx, -1024(%rbp)
	movq	%rcx, -304(%rbp)
Ltmp241:
	.loc	25 675 9
	cmpq	$0, 32(%rax)
	jne	LBB22_5
	.loc	25 677 21
	movq	$0, -896(%rbp)
	jmp	LBB22_6
LBB22_5:
	.loc	25 0 21 is_stmt 0
	movq	-1024(%rbp), %rax
	.loc	25 676 18 is_stmt 1
	addq	$8, %rax
	movq	%rax, -296(%rbp)
Ltmp242:
	.loc	25 676 28 is_stmt 0
	movq	%rax, -896(%rbp)
Ltmp243:
LBB22_6:
	.loc	24 484 60 is_stmt 1
	movq	$0, -856(%rbp)
	movq	$1, -864(%rbp)
	.loc	24 484 56 is_stmt 0
	movq	$0, -888(%rbp)
	movq	-864(%rbp), %rcx
	movq	-856(%rbp), %rax
	movq	%rcx, -880(%rbp)
	movq	%rax, -872(%rbp)
	.loc	24 484 26
	movq	-896(%rbp), %rsi
	leaq	-920(%rbp), %rdi
	leaq	-888(%rbp), %rdx
	callq	__ZN4core6option15Option$LT$T$GT$6map_or17h1ce2fa1a95e6c3fcE
	movq	-1048(%rbp), %rax
	.loc	24 484 14
	movq	-920(%rbp), %rcx
	movq	%rcx, -288(%rbp)
	.loc	24 484 19
	movq	-912(%rbp), %rsi
	movq	%rsi, -1072(%rbp)
	movq	-904(%rbp), %rdx
	movq	%rdx, -1064(%rbp)
	movq	%rsi, -280(%rbp)
	movq	%rdx, -272(%rbp)
Ltmp244:
	.loc	24 485 18 is_stmt 1
	movq	%rax, -264(%rbp)
	.loc	24 485 37 is_stmt 0
	movq	%rcx, -256(%rbp)
Ltmp245:
	.loc	16 1022 13 is_stmt 1
	addq	%rcx, %rax
	movq	$-1, %rcx
	cmovbq	%rcx, %rax
	movq	%rax, -248(%rbp)
	movq	-248(%rbp), %rax
	movq	%rax, -1056(%rbp)
	movq	%rax, -240(%rbp)
Ltmp246:
	.loc	24 487 35
	callq	__ZN95_$LT$$u5b$T$u3b$$u20$N$u5d$$u20$as$u20$core..iter..adapters..flatten..ConstSizeIntoIterator$GT$4size17he6c8cf56f96a4b8fE
	movq	%rdx, -840(%rbp)
	movq	%rax, -848(%rbp)
	.loc	24 487 16 is_stmt 0
	cmpq	$1, -848(%rbp)
	jne	LBB22_8
	.loc	24 0 16
	movq	-1016(%rbp), %rax
	.loc	24 487 21
	movq	-840(%rbp), %rcx
	movq	%rcx, -1088(%rbp)
	movq	%rcx, -200(%rbp)
	.loc	24 488 34 is_stmt 1
	movq	%rax, %rcx
	addq	$64, %rcx
	movq	%rcx, -1080(%rbp)
	movq	%rcx, -192(%rbp)
Ltmp247:
	.loc	2 69 15
	movq	72(%rax), %rdx
	movl	$1, %eax
	xorl	%ecx, %ecx
	cmpq	$0, %rdx
	cmoveq	%rcx, %rax
	.loc	2 69 9 is_stmt 0
	cmpq	$0, %rax
	je	LBB22_20
	jmp	LBB22_21
Ltmp248:
LBB22_8:
	.loc	2 0 9
	movq	-1016(%rbp), %rax
	.loc	24 497 16 is_stmt 1
	movq	%rax, %rcx
	addq	$64, %rcx
	movq	%rcx, -1096(%rbp)
	movq	%rcx, -232(%rbp)
Ltmp249:
	.loc	2 69 15
	movq	72(%rax), %rdx
	movl	$1, %eax
	xorl	%ecx, %ecx
	cmpq	$0, %rdx
	cmoveq	%rcx, %rax
	.loc	2 69 9 is_stmt 0
	cmpq	$0, %rax
	jne	LBB22_10
	.loc	2 71 25 is_stmt 1
	movq	$0, -456(%rbp)
	movq	$1, -464(%rbp)
	.loc	2 71 21 is_stmt 0
	movq	$0, -536(%rbp)
	movq	-464(%rbp), %rcx
	movq	-456(%rbp), %rax
	movq	%rcx, -528(%rbp)
	movq	%rax, -520(%rbp)
	.loc	2 71 32
	jmp	LBB22_11
LBB22_10:
	.loc	2 0 32
	movq	-1096(%rbp), %rsi
	.loc	2 70 18 is_stmt 1
	movq	%rsi, -224(%rbp)
Ltmp250:
	.loc	2 70 31 is_stmt 0
	leaq	-536(%rbp), %rdi
	callq	__ZN102_$LT$core..iter..adapters..map..Map$LT$I$C$F$GT$$u20$as$u20$core..iter..traits..iterator..Iterator$GT$9size_hint17hb94d39c8cb5e8edaE
Ltmp251:
LBB22_11:
	.loc	2 0 31
	movq	-1064(%rbp), %rax
	movq	-1072(%rbp), %rcx
	movq	-1032(%rbp), %rdx
	movq	-1040(%rbp), %rsi
	.loc	24 497 15 is_stmt 1
	movq	-536(%rbp), %rdi
	movq	%rdi, -576(%rbp)
	movq	-528(%rbp), %rdi
	movq	%rdi, -568(%rbp)
	movq	-520(%rbp), %rdi
	movq	%rdi, -560(%rbp)
	movq	%rsi, -592(%rbp)
	movq	%rdx, -584(%rbp)
	movq	%rcx, -552(%rbp)
	movq	%rax, -544(%rbp)
	.loc	24 497 9 is_stmt 0
	cmpq	$0, -576(%rbp)
	jne	LBB22_13
	cmpq	$1, -568(%rbp)
	je	LBB22_14
LBB22_13:
	.loc	24 0 9
	movq	-1008(%rbp), %rax
	movq	-1056(%rbp), %rcx
	.loc	24 499 23 is_stmt 1
	movq	$0, -512(%rbp)
	.loc	24 499 18 is_stmt 0
	movq	%rcx, (%rax)
	movq	-512(%rbp), %rdx
	movq	-504(%rbp), %rcx
	movq	%rdx, 8(%rax)
	movq	%rcx, 16(%rax)
	.loc	24 499 27
	jmp	LBB22_18
LBB22_14:
	.loc	24 497 9 is_stmt 1
	cmpq	$1, -592(%rbp)
	jne	LBB22_13
	cmpq	$1, -552(%rbp)
	jne	LBB22_13
	cmpq	$0, -560(%rbp)
	jne	LBB22_13
	.loc	24 498 33
	movq	-584(%rbp), %rdi
	movq	%rdi, -216(%rbp)
	.loc	24 498 42 is_stmt 0
	movq	-544(%rbp), %rsi
	movq	%rsi, -208(%rbp)
Ltmp252:
	.loc	24 498 54
	callq	__ZN4core3num23_$LT$impl$u20$usize$GT$11checked_add17ha502dbc81b67a8c4E
	movq	-1056(%rbp), %rsi
	movq	%rax, %rcx
	movq	-1008(%rbp), %rax
	.loc	24 498 49
	movq	%rsi, (%rax)
	movq	%rcx, 8(%rax)
	movq	%rdx, 16(%rax)
Ltmp253:
LBB22_18:
	.loc	24 501 6 is_stmt 1
	jmp	LBB22_19
LBB22_19:
	.loc	24 0 6 is_stmt 0
	movq	-1000(%rbp), %rax
	.loc	24 501 6
	addq	$1136, %rsp
	popq	%rbp
	retq
LBB22_20:
Ltmp254:
	.loc	2 71 25 is_stmt 1
	movq	$0, -488(%rbp)
	movq	$1, -496(%rbp)
	.loc	2 71 21 is_stmt 0
	movq	$0, -832(%rbp)
	movq	-496(%rbp), %rcx
	movq	-488(%rbp), %rax
	movq	%rcx, -824(%rbp)
	movq	%rax, -816(%rbp)
	.loc	2 71 32
	jmp	LBB22_22
LBB22_21:
	.loc	2 0 32
	movq	-1080(%rbp), %rsi
	.loc	2 70 18 is_stmt 1
	movq	%rsi, -184(%rbp)
Ltmp255:
	.loc	2 70 31 is_stmt 0
	leaq	-832(%rbp), %rdi
	callq	__ZN102_$LT$core..iter..adapters..map..Map$LT$I$C$F$GT$$u20$as$u20$core..iter..traits..iterator..Iterator$GT$9size_hint17hb94d39c8cb5e8edaE
Ltmp256:
LBB22_22:
	.loc	2 0 31
	movq	-1088(%rbp), %rsi
	.loc	24 488 18 is_stmt 1
	movq	-832(%rbp), %rdi
	movq	%rdi, -176(%rbp)
	.loc	24 488 25 is_stmt 0
	movq	-824(%rbp), %rcx
	movq	%rcx, -1112(%rbp)
	movq	-816(%rbp), %rax
	movq	%rax, -1104(%rbp)
	movq	%rcx, -168(%rbp)
	movq	%rax, -160(%rbp)
Ltmp257:
	.loc	24 490 25 is_stmt 1
	movq	%rdi, -152(%rbp)
	.loc	24 490 46 is_stmt 0
	movq	%rsi, -144(%rbp)
Ltmp258:
	.loc	16 1090 19 is_stmt 1
	callq	__ZN4core3num23_$LT$impl$u20$usize$GT$11checked_mul17he9122779ab012e3dE
	movq	%rdx, -472(%rbp)
	movq	%rax, -480(%rbp)
	.loc	16 1090 13 is_stmt 0
	cmpq	$0, -480(%rbp)
	jne	LBB22_24
	.loc	16 1092 25 is_stmt 1
	movq	$-1, -808(%rbp)
	jmp	LBB22_25
LBB22_24:
	.loc	16 1091 22
	movq	-472(%rbp), %rax
	movq	%rax, -136(%rbp)
Ltmp259:
	.loc	16 1091 28 is_stmt 0
	movq	%rax, -808(%rbp)
Ltmp260:
LBB22_25:
	.loc	16 0 28
	movq	-1032(%rbp), %rax
	movq	-1040(%rbp), %rcx
	movq	-1056(%rbp), %rsi
	.loc	24 490 73 is_stmt 1
	movq	%rsi, -128(%rbp)
Ltmp261:
	.loc	16 1022 40
	movq	-808(%rbp), %rdx
	.loc	16 1022 13 is_stmt 0
	addq	%rsi, %rdx
	movq	$-1, %rsi
	cmovbq	%rsi, %rdx
	movq	%rdx, -120(%rbp)
	movq	-120(%rbp), %rdx
	movq	%rdx, -1120(%rbp)
	movq	%rdx, -112(%rbp)
Ltmp262:
	.loc	24 492 23 is_stmt 1
	movq	%rcx, -704(%rbp)
	movq	%rax, -696(%rbp)
Ltmp263:
	.loc	25 2407 9
	cmpq	$0, -704(%rbp)
	jne	LBB22_27
	.loc	25 2409 21
	movq	$1, -720(%rbp)
	.loc	25 2409 44 is_stmt 0
	jmp	LBB22_28
LBB22_27:
	.loc	25 2408 18 is_stmt 1
	movq	-696(%rbp), %rax
	movq	%rax, -104(%rbp)
Ltmp264:
	.loc	25 2408 24 is_stmt 0
	movq	%rax, -712(%rbp)
	movq	$0, -720(%rbp)
Ltmp265:
LBB22_28:
	.loc	24 492 23 is_stmt 1
	cmpq	$0, -720(%rbp)
	jne	LBB22_30
	.loc	24 0 23 is_stmt 0
	movq	-1064(%rbp), %rax
	movq	-1072(%rbp), %rcx
	.loc	24 492 23
	movq	-712(%rbp), %rdx
	movq	%rdx, -1128(%rbp)
	movq	%rdx, -96(%rbp)
	.loc	24 492 40
	movq	%rcx, -672(%rbp)
	movq	%rax, -664(%rbp)
Ltmp266:
	.loc	25 2407 9 is_stmt 1
	cmpq	$0, -672(%rbp)
	je	LBB22_32
	jmp	LBB22_33
Ltmp267:
LBB22_30:
	.loc	25 2420 21
	movq	$0, -800(%rbp)
Ltmp268:
LBB22_31:
	.file	26 "/Users/natalie/.cargo/registry/src/github.com-1ecc6299db9ec823/egui_glow-0.19.0" "src/lib.rs"
	.loc	26 1 1
	jmp	LBB22_37
LBB22_32:
Ltmp269:
	.loc	25 2409 21
	movq	$1, -688(%rbp)
	.loc	25 2409 44 is_stmt 0
	jmp	LBB22_34
LBB22_33:
	.loc	25 2408 18 is_stmt 1
	movq	-664(%rbp), %rax
	movq	%rax, -88(%rbp)
Ltmp270:
	.loc	25 2408 24 is_stmt 0
	movq	%rax, -680(%rbp)
	movq	$0, -688(%rbp)
Ltmp271:
LBB22_34:
	.loc	24 492 40 is_stmt 1
	cmpq	$0, -688(%rbp)
	jne	LBB22_36
	.loc	24 0 40 is_stmt 0
	movq	-1128(%rbp), %rdi
	.loc	24 492 40
	movq	-680(%rbp), %rsi
	movq	%rsi, -80(%rbp)
	.loc	24 492 23
	callq	__ZN4core3num23_$LT$impl$u20$usize$GT$11checked_add17ha502dbc81b67a8c4E
	movq	%rdx, -728(%rbp)
	movq	%rax, -736(%rbp)
Ltmp272:
	.loc	25 2407 9 is_stmt 1
	cmpq	$0, -736(%rbp)
	je	LBB22_38
	jmp	LBB22_39
Ltmp273:
LBB22_36:
	.loc	25 2420 21
	movq	$0, -800(%rbp)
Ltmp274:
	.loc	26 1 1
	jmp	LBB22_31
LBB22_37:
	jmp	LBB22_54
LBB22_38:
Ltmp275:
	.loc	25 2409 21
	movq	$1, -752(%rbp)
	.loc	25 2409 44 is_stmt 0
	jmp	LBB22_40
LBB22_39:
	.loc	25 2408 18 is_stmt 1
	movq	-728(%rbp), %rax
	movq	%rax, -72(%rbp)
Ltmp276:
	.loc	25 2408 24 is_stmt 0
	movq	%rax, -744(%rbp)
	movq	$0, -752(%rbp)
Ltmp277:
LBB22_40:
	.loc	24 492 23 is_stmt 1
	cmpq	$0, -752(%rbp)
	jne	LBB22_42
	.loc	24 0 23 is_stmt 0
	movq	-1104(%rbp), %rax
	movq	-1112(%rbp), %rcx
	.loc	24 492 23
	movq	-744(%rbp), %rdx
	movq	%rdx, -1136(%rbp)
	movq	%rdx, -64(%rbp)
	.loc	24 492 82
	movq	%rcx, -608(%rbp)
	movq	%rax, -600(%rbp)
Ltmp278:
	.loc	25 2407 9 is_stmt 1
	cmpq	$0, -608(%rbp)
	je	LBB22_43
	jmp	LBB22_44
Ltmp279:
LBB22_42:
	.loc	25 2420 21
	movq	$0, -800(%rbp)
Ltmp280:
	.loc	26 1 1
	jmp	LBB22_37
LBB22_43:
Ltmp281:
	.loc	25 2409 21
	movq	$1, -624(%rbp)
	.loc	25 2409 44 is_stmt 0
	jmp	LBB22_45
LBB22_44:
	.loc	25 2408 18 is_stmt 1
	movq	-600(%rbp), %rax
	movq	%rax, -56(%rbp)
Ltmp282:
	.loc	25 2408 24 is_stmt 0
	movq	%rax, -616(%rbp)
	movq	$0, -624(%rbp)
Ltmp283:
LBB22_45:
	.loc	24 492 82 is_stmt 1
	cmpq	$0, -624(%rbp)
	jne	LBB22_47
	.loc	24 0 82 is_stmt 0
	movq	-1088(%rbp), %rdi
	.loc	24 492 82
	movq	-616(%rbp), %rsi
	movq	%rsi, -48(%rbp)
	.loc	24 492 59
	callq	__ZN4core3num23_$LT$impl$u20$usize$GT$11checked_mul17he9122779ab012e3dE
	movq	%rdx, -632(%rbp)
	movq	%rax, -640(%rbp)
Ltmp284:
	.loc	25 2407 9 is_stmt 1
	cmpq	$0, -640(%rbp)
	je	LBB22_49
	jmp	LBB22_50
Ltmp285:
LBB22_47:
	.loc	25 2420 21
	movq	$0, -800(%rbp)
Ltmp286:
LBB22_48:
	.loc	26 1 1
	jmp	LBB22_37
LBB22_49:
Ltmp287:
	.loc	25 2409 21
	movq	$1, -656(%rbp)
	.loc	25 2409 44 is_stmt 0
	jmp	LBB22_51
LBB22_50:
	.loc	25 2408 18 is_stmt 1
	movq	-632(%rbp), %rax
	movq	%rax, -40(%rbp)
Ltmp288:
	.loc	25 2408 24 is_stmt 0
	movq	%rax, -648(%rbp)
	movq	$0, -656(%rbp)
Ltmp289:
LBB22_51:
	.loc	24 492 59 is_stmt 1
	cmpq	$0, -656(%rbp)
	jne	LBB22_53
	.loc	24 0 59 is_stmt 0
	movq	-1136(%rbp), %rdi
	.loc	24 492 59
	movq	-648(%rbp), %rsi
	movq	%rsi, -32(%rbp)
	.loc	24 492 23
	callq	__ZN4core3num23_$LT$impl$u20$usize$GT$11checked_add17ha502dbc81b67a8c4E
	movq	%rdx, -760(%rbp)
	movq	%rax, -768(%rbp)
Ltmp290:
	.loc	25 2407 9 is_stmt 1
	cmpq	$0, -768(%rbp)
	je	LBB22_55
	jmp	LBB22_56
Ltmp291:
LBB22_53:
	.loc	25 2420 21
	movq	$0, -800(%rbp)
Ltmp292:
	.loc	26 1 1
	jmp	LBB22_48
LBB22_54:
	.loc	24 492 21
	jmp	LBB22_60
LBB22_55:
Ltmp293:
	.loc	25 2409 21
	movq	$1, -784(%rbp)
	.loc	25 2409 44 is_stmt 0
	jmp	LBB22_57
LBB22_56:
	.loc	25 2408 18 is_stmt 1
	movq	-760(%rbp), %rax
	movq	%rax, -24(%rbp)
Ltmp294:
	.loc	25 2408 24 is_stmt 0
	movq	%rax, -776(%rbp)
	movq	$0, -784(%rbp)
Ltmp295:
LBB22_57:
	.loc	24 492 23 is_stmt 1
	cmpq	$0, -784(%rbp)
	jne	LBB22_59
	movq	-776(%rbp), %rax
	movq	%rax, -16(%rbp)
Ltmp296:
	.loc	24 492 23 is_stmt 0
	movq	%rax, -8(%rbp)
Ltmp297:
	.loc	25 2402 9 is_stmt 1
	movq	%rax, -792(%rbp)
	movq	$1, -800(%rbp)
Ltmp298:
	.loc	24 492 21
	jmp	LBB22_60
LBB22_59:
Ltmp299:
	.loc	25 2420 21
	movq	$0, -800(%rbp)
Ltmp300:
	.loc	26 1 1
	jmp	LBB22_54
LBB22_60:
	.loc	26 0 1 is_stmt 0
	movq	-1008(%rbp), %rax
	movq	-1120(%rbp), %rsi
Ltmp301:
	.loc	24 494 28 is_stmt 1
	movq	-800(%rbp), %rdx
	movq	-792(%rbp), %rcx
	.loc	24 494 20 is_stmt 0
	movq	%rsi, (%rax)
	movq	%rdx, 8(%rax)
	movq	%rcx, 16(%rax)
Ltmp302:
	.loc	24 501 6 is_stmt 1
	jmp	LBB22_19
Ltmp303:
Lfunc_end22:
	.cfi_endproc

	.p2align	4, 0x90
__ZN12tracing_core10subscriber8Interest5never17hbb53b9b0ed7b8f77E:
Lfunc_begin23:
	.file	27 "/Users/natalie/.cargo/registry/src/github.com-1ecc6299db9ec823/tracing-core-0.1.30/src" "subscriber.rs"
	.loc	27 608 0
	.cfi_startproc
	pushq	%rbp
	.cfi_def_cfa_offset 16
	.cfi_offset %rbp, -16
	movq	%rsp, %rbp
	.cfi_def_cfa_register %rbp
	subq	$1, %rsp
Ltmp304:
	.loc	27 609 9 prologue_end
	movb	$0, -1(%rbp)
	.loc	27 610 6
	movb	-1(%rbp), %al
	addq	$1, %rsp
	popq	%rbp
	retq
Ltmp305:
Lfunc_end23:
	.cfi_endproc

	.p2align	4, 0x90
__ZN12tracing_core10subscriber8Interest6always17h66f59c5caf5a5853E:
Lfunc_begin24:
	.loc	27 630 0
	.cfi_startproc
	pushq	%rbp
	.cfi_def_cfa_offset 16
	.cfi_offset %rbp, -16
	movq	%rsp, %rbp
	.cfi_def_cfa_register %rbp
	subq	$1, %rsp
Ltmp306:
	.loc	27 631 9 prologue_end
	movb	$2, -1(%rbp)
	.loc	27 632 6
	movb	-1(%rbp), %al
	addq	$1, %rsp
	popq	%rbp
	retq
Ltmp307:
Lfunc_end24:
	.cfi_endproc

	.p2align	4, 0x90
__ZN12tracing_core10subscriber8Interest8is_never17hc1d8e0ad54091c54E:
Lfunc_begin25:
	.loc	27 637 0
	.cfi_startproc
	pushq	%rbp
	.cfi_def_cfa_offset 16
	.cfi_offset %rbp, -16
	movq	%rsp, %rbp
	.cfi_def_cfa_register %rbp
	subq	$16, %rsp
	movq	%rdi, -8(%rbp)
Ltmp308:
	.loc	27 638 18 prologue_end
	movzbl	(%rdi), %eax
	.loc	27 638 9 is_stmt 0
	cmpq	$0, %rax
	jne	LBB25_2
	movb	$1, -9(%rbp)
	jmp	LBB25_3
LBB25_2:
	movb	$0, -9(%rbp)
LBB25_3:
	.loc	27 639 6 is_stmt 1
	movb	-9(%rbp), %al
	andb	$1, %al
	movzbl	%al, %eax
	addq	$16, %rsp
	popq	%rbp
	retq
Ltmp309:
Lfunc_end25:
	.cfi_endproc

	.p2align	4, 0x90
__ZN12tracing_core10subscriber8Interest9sometimes17h014d375899ec31a6E:
Lfunc_begin26:
	.loc	27 620 0
	.cfi_startproc
	pushq	%rbp
	.cfi_def_cfa_offset 16
	.cfi_offset %rbp, -16
	movq	%rsp, %rbp
	.cfi_def_cfa_register %rbp
	subq	$1, %rsp
Ltmp310:
	.loc	27 621 9 prologue_end
	movb	$1, -1(%rbp)
	.loc	27 622 6
	movb	-1(%rbp), %al
	addq	$1, %rsp
	popq	%rbp
	retq
Ltmp311:
Lfunc_end26:
	.cfi_endproc

	.globl	__ZN12tracing_core5field8FieldSet9value_set17h665b6a8b0e4423c9E
	.p2align	4, 0x90
__ZN12tracing_core5field8FieldSet9value_set17h665b6a8b0e4423c9E:
Lfunc_begin27:
	.file	28 "/Users/natalie/.cargo/registry/src/github.com-1ecc6299db9ec823/tracing-core-0.1.30/src" "field.rs"
	.loc	28 875 0
	.cfi_startproc
	pushq	%rbp
	.cfi_def_cfa_offset 16
	.cfi_offset %rbp, -16
	movq	%rsp, %rbp
	.cfi_def_cfa_register %rbp
	subq	$48, %rsp
	movq	%rdx, -48(%rbp)
	movq	%rsi, -40(%rbp)
	movq	%rdi, %rax
	movq	-48(%rbp), %rdi
	movq	%rax, -32(%rbp)
	movq	%rax, -24(%rbp)
	movq	%rsi, -16(%rbp)
	movq	%rdi, -8(%rbp)
Ltmp312:
	.loc	28 881 21 prologue_end
	callq	__ZN4core5array92_$LT$impl$u20$core..borrow..Borrow$LT$$u5b$T$u5d$$GT$$u20$for$u20$$u5b$T$u3b$$u20$N$u5d$$GT$6borrow17h56dc70bf8ffc3ae9E
	movq	-40(%rbp), %rsi
	movq	-32(%rbp), %rdi
	movq	%rax, %rcx
	movq	-24(%rbp), %rax
	.loc	28 879 9
	movq	%rcx, (%rdi)
	movq	%rdx, 8(%rdi)
	movq	%rsi, 16(%rdi)
	.loc	28 883 6
	addq	$48, %rsp
	popq	%rbp
	retq
Ltmp313:
Lfunc_end27:
	.cfi_endproc

	.p2align	4, 0x90
__ZN12tracing_core8callsite15DefaultCallsite8interest17h89c9d2c9631d8f6bE:
Lfunc_begin28:
	.file	29 "/Users/natalie/.cargo/registry/src/github.com-1ecc6299db9ec823/tracing-core-0.1.30/src" "callsite.rs"
	.loc	29 351 0
	.cfi_startproc
	pushq	%rbp
	.cfi_def_cfa_offset 16
	.cfi_offset %rbp, -16
	movq	%rsp, %rbp
	.cfi_def_cfa_register %rbp
	subq	$32, %rsp
	movq	%rdi, -24(%rbp)
	movq	%rdi, -8(%rbp)
Ltmp314:
	.loc	29 352 15 prologue_end
	addq	$16, %rdi
	.loc	29 352 34 is_stmt 0
	movb	$0, -9(%rbp)
	.loc	29 352 15
	movzbl	-9(%rbp), %esi
	callq	__ZN4core4sync6atomic8AtomicU84load17hcfc32c7680aad9c1E
	.loc	29 352 9
	movb	%al, %cl
	movb	%cl, -11(%rbp)
	testb	%al, %al
	je	LBB28_2
	jmp	LBB28_6
LBB28_6:
	.loc	29 0 9
	movb	-11(%rbp), %al
	.loc	29 352 9
	subb	$1, %al
	je	LBB28_3
	jmp	LBB28_7
LBB28_7:
	.loc	29 0 9
	movb	-11(%rbp), %al
	.loc	29 352 9
	subb	$2, %al
	je	LBB28_4
	jmp	LBB28_1
LBB28_1:
	.loc	29 0 9
	movq	-24(%rbp), %rdi
	.loc	29 356 18 is_stmt 1
	callq	__ZN12tracing_core8callsite15DefaultCallsite8register17h12805c50d0a3a923E
	movb	%al, -10(%rbp)
	jmp	LBB28_5
LBB28_2:
	.loc	29 353 37
	callq	__ZN12tracing_core10subscriber8Interest5never17hbb53b9b0ed7b8f77E
	movb	%al, -10(%rbp)
	jmp	LBB28_5
LBB28_3:
	.loc	29 354 41
	callq	__ZN12tracing_core10subscriber8Interest9sometimes17h014d375899ec31a6E
	movb	%al, -10(%rbp)
	jmp	LBB28_5
LBB28_4:
	.loc	29 355 38
	callq	__ZN12tracing_core10subscriber8Interest6always17h66f59c5caf5a5853E
	movb	%al, -10(%rbp)
LBB28_5:
	.loc	29 358 6
	movb	-10(%rbp), %al
	addq	$32, %rsp
	popq	%rbp
	retq
Ltmp315:
Lfunc_end28:
	.cfi_endproc

	.globl	__ZN141_$LT$core..const_closure..ConstFnMutClosure$LT$$RF$mut$u20$A$C$Function$GT$$u20$as$u20$core..ops..function..FnMut$LT$ClosureArguments$GT$$GT$8call_mut17h22b32445f392f187E
	.p2align	4, 0x90
__ZN141_$LT$core..const_closure..ConstFnMutClosure$LT$$RF$mut$u20$A$C$Function$GT$$u20$as$u20$core..ops..function..FnMut$LT$ClosureArguments$GT$$GT$8call_mut17h22b32445f392f187E:
Lfunc_begin29:
	.file	30 "/rustc/2c8cc343237b8f7d5a3c3703e3a87f2eb2c54a74/library/core/src" "const_closure.rs"
	.loc	30 66 0
	.cfi_startproc
	pushq	%rbp
	.cfi_def_cfa_offset 16
	.cfi_offset %rbp, -16
	movq	%rsp, %rbp
	.cfi_def_cfa_register %rbp
	subq	$48, %rsp
	movq	%rsi, -40(%rbp)
	movq	%rdi, -16(%rbp)
Ltmp316:
	.loc	30 68 35 prologue_end
	movq	%rdi, -8(%rbp)
Ltmp317:
	.loc	30 69 29
	movq	(%rdi), %rcx
	.loc	30 69 42 is_stmt 0
	movq	-40(%rbp), %rax
	.loc	30 69 17
	movq	%rcx, -32(%rbp)
	movq	%rax, -24(%rbp)
	movq	-32(%rbp), %rsi
	movq	-24(%rbp), %rdx
	callq	__ZN4core3ops8function2Fn4call17h3960a2bc354dd5e8E
Ltmp318:
	.loc	30 70 14 is_stmt 1
	addq	$48, %rsp
	popq	%rbp
	retq
Ltmp319:
Lfunc_end29:
	.cfi_endproc

	.globl	__ZN153_$LT$core..result..Result$LT$T$C$F$GT$$u20$as$u20$core..ops..try_trait..FromResidual$LT$core..result..Result$LT$core..convert..Infallible$C$E$GT$$GT$$GT$13from_residual17h0045cc40be23017cE
	.p2align	4, 0x90
__ZN153_$LT$core..result..Result$LT$T$C$F$GT$$u20$as$u20$core..ops..try_trait..FromResidual$LT$core..result..Result$LT$core..convert..Infallible$C$E$GT$$GT$$GT$13from_residual17h0045cc40be23017cE:
Lfunc_begin30:
	.file	31 "/rustc/2c8cc343237b8f7d5a3c3703e3a87f2eb2c54a74/library/core/src" "result.rs"
	.loc	31 2105 0
	.cfi_startproc
	pushq	%rbp
	.cfi_def_cfa_offset 16
	.cfi_offset %rbp, -16
	movq	%rsp, %rbp
	.cfi_def_cfa_register %rbp
	subq	$72, %rsp
	movq	%rdi, %rax
Ltmp320:
	.loc	31 2107 17 prologue_end
	movq	(%rsi), %rcx
	movq	%rcx, -72(%rbp)
	movq	8(%rsi), %rcx
	movq	%rcx, -64(%rbp)
	movq	16(%rsi), %rcx
	movq	%rcx, -56(%rbp)
Ltmp321:
	.loc	31 2107 38 is_stmt 0
	movq	-72(%rbp), %rcx
	movq	%rcx, -24(%rbp)
	movq	-64(%rbp), %rcx
	movq	%rcx, -16(%rbp)
	movq	-56(%rbp), %rcx
	movq	%rcx, -8(%rbp)
Ltmp322:
	.file	32 "/rustc/2c8cc343237b8f7d5a3c3703e3a87f2eb2c54a74/library/core/src/convert" "mod.rs"
	.loc	32 737 9 is_stmt 1
	movq	-24(%rbp), %rcx
	movq	%rcx, -48(%rbp)
	movq	-16(%rbp), %rcx
	movq	%rcx, -40(%rbp)
	movq	-8(%rbp), %rcx
	movq	%rcx, -32(%rbp)
Ltmp323:
	.loc	31 2107 23
	movq	-48(%rbp), %rcx
	movq	%rcx, (%rdi)
	movq	-40(%rbp), %rcx
	movq	%rcx, 8(%rdi)
	movq	-32(%rbp), %rcx
	movq	%rcx, 16(%rdi)
	movb	$2, 228(%rdi)
Ltmp324:
	.loc	31 2109 6
	addq	$72, %rsp
	popq	%rbp
	retq
Ltmp325:
Lfunc_end30:
	.cfi_endproc

	.globl	__ZN153_$LT$core..result..Result$LT$T$C$F$GT$$u20$as$u20$core..ops..try_trait..FromResidual$LT$core..result..Result$LT$core..convert..Infallible$C$E$GT$$GT$$GT$13from_residual17h0a444e4e1b8b984cE
	.p2align	4, 0x90
__ZN153_$LT$core..result..Result$LT$T$C$F$GT$$u20$as$u20$core..ops..try_trait..FromResidual$LT$core..result..Result$LT$core..convert..Infallible$C$E$GT$$GT$$GT$13from_residual17h0a444e4e1b8b984cE:
Lfunc_begin31:
	.loc	31 2105 0
	.cfi_startproc
	pushq	%rbp
	.cfi_def_cfa_offset 16
	.cfi_offset %rbp, -16
	movq	%rsp, %rbp
	.cfi_def_cfa_register %rbp
	subq	$72, %rsp
	movq	%rdi, %rax
Ltmp326:
	.loc	31 2107 17 prologue_end
	movq	(%rsi), %rcx
	movq	%rcx, -72(%rbp)
	movq	8(%rsi), %rcx
	movq	%rcx, -64(%rbp)
	movq	16(%rsi), %rcx
	movq	%rcx, -56(%rbp)
Ltmp327:
	.loc	31 2107 38 is_stmt 0
	movq	-72(%rbp), %rcx
	movq	%rcx, -24(%rbp)
	movq	-64(%rbp), %rcx
	movq	%rcx, -16(%rbp)
	movq	-56(%rbp), %rcx
	movq	%rcx, -8(%rbp)
Ltmp328:
	.loc	32 737 9 is_stmt 1
	movq	-24(%rbp), %rcx
	movq	%rcx, -48(%rbp)
	movq	-16(%rbp), %rcx
	movq	%rcx, -40(%rbp)
	movq	-8(%rbp), %rcx
	movq	%rcx, -32(%rbp)
Ltmp329:
	.loc	31 2107 23
	movq	-48(%rbp), %rcx
	movq	%rcx, (%rdi)
	movq	-40(%rbp), %rcx
	movq	%rcx, 8(%rdi)
	movq	-32(%rbp), %rcx
	movq	%rcx, 16(%rdi)
	movb	$2, 68(%rdi)
Ltmp330:
	.loc	31 2109 6
	addq	$72, %rsp
	popq	%rbp
	retq
Ltmp331:
Lfunc_end31:
	.cfi_endproc

	.globl	__ZN153_$LT$core..result..Result$LT$T$C$F$GT$$u20$as$u20$core..ops..try_trait..FromResidual$LT$core..result..Result$LT$core..convert..Infallible$C$E$GT$$GT$$GT$13from_residual17h4852aa304ec31f9cE
	.p2align	4, 0x90
__ZN153_$LT$core..result..Result$LT$T$C$F$GT$$u20$as$u20$core..ops..try_trait..FromResidual$LT$core..result..Result$LT$core..convert..Infallible$C$E$GT$$GT$$GT$13from_residual17h4852aa304ec31f9cE:
Lfunc_begin32:
	.loc	31 2105 0
	.cfi_startproc
	pushq	%rbp
	.cfi_def_cfa_offset 16
	.cfi_offset %rbp, -16
	movq	%rsp, %rbp
	.cfi_def_cfa_register %rbp
	subq	$72, %rsp
	movq	%rdi, %rax
Ltmp332:
	.loc	31 2107 17 prologue_end
	movq	(%rsi), %rcx
	movq	%rcx, -72(%rbp)
	movq	8(%rsi), %rcx
	movq	%rcx, -64(%rbp)
	movq	16(%rsi), %rcx
	movq	%rcx, -56(%rbp)
Ltmp333:
	.loc	31 2107 38 is_stmt 0
	movq	-72(%rbp), %rcx
	movq	%rcx, -24(%rbp)
	movq	-64(%rbp), %rcx
	movq	%rcx, -16(%rbp)
	movq	-56(%rbp), %rcx
	movq	%rcx, -8(%rbp)
Ltmp334:
	.loc	32 737 9 is_stmt 1
	movq	-24(%rbp), %rcx
	movq	%rcx, -48(%rbp)
	movq	-16(%rbp), %rcx
	movq	%rcx, -40(%rbp)
	movq	-8(%rbp), %rcx
	movq	%rcx, -32(%rbp)
Ltmp335:
	.loc	31 2107 23
	movq	-48(%rbp), %rcx
	movq	%rcx, (%rdi)
	movq	-40(%rbp), %rcx
	movq	%rcx, 8(%rdi)
	movq	-32(%rbp), %rcx
	movq	%rcx, 16(%rdi)
Ltmp336:
	.loc	31 2109 6
	addq	$72, %rsp
	popq	%rbp
	retq
Ltmp337:
Lfunc_end32:
	.cfi_endproc

	.globl	__ZN153_$LT$core..result..Result$LT$T$C$F$GT$$u20$as$u20$core..ops..try_trait..FromResidual$LT$core..result..Result$LT$core..convert..Infallible$C$E$GT$$GT$$GT$13from_residual17hf86b485f98b77b23E
	.p2align	4, 0x90
__ZN153_$LT$core..result..Result$LT$T$C$F$GT$$u20$as$u20$core..ops..try_trait..FromResidual$LT$core..result..Result$LT$core..convert..Infallible$C$E$GT$$GT$$GT$13from_residual17hf86b485f98b77b23E:
Lfunc_begin33:
	.loc	31 2105 0
	.cfi_startproc
	pushq	%rbp
	.cfi_def_cfa_offset 16
	.cfi_offset %rbp, -16
	movq	%rsp, %rbp
	.cfi_def_cfa_register %rbp
	subq	$72, %rsp
	movq	%rdi, %rax
Ltmp338:
	.loc	31 2107 17 prologue_end
	movq	(%rsi), %rcx
	movq	%rcx, -72(%rbp)
	movq	8(%rsi), %rcx
	movq	%rcx, -64(%rbp)
	movq	16(%rsi), %rcx
	movq	%rcx, -56(%rbp)
Ltmp339:
	.loc	31 2107 38 is_stmt 0
	movq	-72(%rbp), %rcx
	movq	%rcx, -24(%rbp)
	movq	-64(%rbp), %rcx
	movq	%rcx, -16(%rbp)
	movq	-56(%rbp), %rcx
	movq	%rcx, -8(%rbp)
Ltmp340:
	.loc	32 737 9 is_stmt 1
	movq	-24(%rbp), %rcx
	movq	%rcx, -48(%rbp)
	movq	-16(%rbp), %rcx
	movq	%rcx, -40(%rbp)
	movq	-8(%rbp), %rcx
	movq	%rcx, -32(%rbp)
Ltmp341:
	.loc	31 2107 23
	movq	-48(%rbp), %rcx
	movq	%rcx, (%rdi)
	movq	-40(%rbp), %rcx
	movq	%rcx, 8(%rdi)
	movq	-32(%rbp), %rcx
	movq	%rcx, 16(%rdi)
Ltmp342:
	.loc	31 2109 6
	addq	$72, %rsp
	popq	%rbp
	retq
Ltmp343:
Lfunc_end33:
	.cfi_endproc

	.globl	__ZN31_$LT$dyn$u20$core..any..Any$GT$12downcast_ref17h346be3dac0c7cb4aE
	.p2align	4, 0x90
__ZN31_$LT$dyn$u20$core..any..Any$GT$12downcast_ref17h346be3dac0c7cb4aE:
Lfunc_begin34:
	.file	33 "/rustc/2c8cc343237b8f7d5a3c3703e3a87f2eb2c54a74/library/core/src" "any.rs"
	.loc	33 287 0
	.cfi_startproc
	pushq	%rbp
	.cfi_def_cfa_offset 16
	.cfi_offset %rbp, -16
	movq	%rsp, %rbp
	.cfi_def_cfa_register %rbp
	subq	$112, %rsp
	movq	%rdi, -104(%rbp)
	movq	%rsi, -96(%rbp)
	movq	%rdi, -64(%rbp)
	movq	%rsi, -56(%rbp)
Ltmp344:
	.loc	33 288 12 prologue_end
	movq	%rdi, -48(%rbp)
	movq	%rsi, -40(%rbp)
Ltmp345:
	.loc	33 257 17
	callq	__ZN4core3any6TypeId2of17he49a83a76f747bf4E
	movq	-104(%rbp), %rdi
	movq	-96(%rbp), %rsi
	movq	%rax, -80(%rbp)
Ltmp346:
	.loc	33 260 24
	callq	*24(%rsi)
	movq	%rax, -72(%rbp)
Ltmp347:
	.loc	33 263 9
	leaq	-80(%rbp), %rax
	movq	%rax, -32(%rbp)
	.loc	33 263 14 is_stmt 0
	leaq	-72(%rbp), %rax
	movq	%rax, -24(%rbp)
Ltmp348:
	.loc	33 669 5 is_stmt 1
	movq	-80(%rbp), %rax
	cmpq	-72(%rbp), %rax
Ltmp349:
	.loc	33 288 12
	je	LBB34_2
	.loc	33 294 13
	movq	$0, -88(%rbp)
	.loc	33 288 9
	jmp	LBB34_3
LBB34_2:
	.loc	33 0 9 is_stmt 0
	movq	-104(%rbp), %rax
	movq	-96(%rbp), %rcx
	.loc	33 292 27 is_stmt 1
	movq	%rax, -16(%rbp)
	movq	%rcx, -8(%rbp)
	.loc	33 292 22 is_stmt 0
	movq	%rax, -88(%rbp)
LBB34_3:
	.loc	33 296 6 is_stmt 1
	movq	-88(%rbp), %rax
	addq	$112, %rsp
	popq	%rbp
	retq
Ltmp350:
Lfunc_end34:
	.cfi_endproc

	.p2align	4, 0x90
__ZN3std11collections4hash3map11RandomState3new4KEYS7__getit17h3b25f65a1ab2c045E:
Lfunc_begin35:
	.file	34 "/rustc/2c8cc343237b8f7d5a3c3703e3a87f2eb2c54a74/library/std/src/thread" "local.rs"
	.loc	34 319 0
	.cfi_startproc
	pushq	%rbp
	.cfi_def_cfa_offset 16
	.cfi_offset %rbp, -16
	movq	%rsp, %rbp
	.cfi_def_cfa_register %rbp
	subq	$16, %rsp
	movq	%rdi, -8(%rbp)
Ltmp351:
	.loc	34 346 31 prologue_end
	movq	%rdi, -16(%rbp)
	.loc	34 346 21 is_stmt 0
	movq	-16(%rbp), %rsi
	movq	__ZN3std11collections4hash3map11RandomState3new4KEYS7__getit5__KEY17hc7d79347407182b9E@TLVP(%rip), %rdi
	callq	*(%rdi)
	movq	%rax, %rdi
	callq	__ZN3std6thread5local4fast12Key$LT$T$GT$3get17hd56c5c55456db6adE
	.loc	34 357 14 is_stmt 1
	addq	$16, %rsp
	popq	%rbp
	retq
Ltmp352:
Lfunc_end35:
	.cfi_endproc

	.globl	__ZN3std11collections4hash3map18Entry$LT$K$C$V$GT$14or_insert_with17hf5b16d1eae1fdf47E
	.p2align	4, 0x90
__ZN3std11collections4hash3map18Entry$LT$K$C$V$GT$14or_insert_with17hf5b16d1eae1fdf47E:
Lfunc_begin36:
	.loc	12 2556 0
	.cfi_startproc
	.cfi_personality 155, _rust_eh_personality
	.cfi_lsda 16, Lexception7
	pushq	%rbp
	.cfi_def_cfa_offset 16
	.cfi_offset %rbp, -16
	movq	%rsp, %rbp
	.cfi_def_cfa_register %rbp
	subq	$288, %rsp
	movq	%rdi, -256(%rbp)
Ltmp361:
	movq	%rsi, -248(%rbp)
Ltmp362:
	movq	%rsi, -32(%rbp)
Ltmp363:
	.loc	12 2557 9 prologue_end
	movb	$1, -98(%rbp)
	cmpq	$0, (%rdi)
Ltmp364:
	jne	LBB36_2
Ltmp365:
	.loc	12 0 9 is_stmt 0
	movq	-256(%rbp), %rcx
	.loc	12 2558 22 is_stmt 1
	movq	32(%rcx), %rax
	movq	%rax, -208(%rbp)
	movq	24(%rcx), %rax
	movq	%rax, -216(%rbp)
	movq	8(%rcx), %rax
	movq	16(%rcx), %rcx
	movq	%rcx, -224(%rbp)
	movq	%rax, -232(%rbp)
Ltmp366:
	.loc	12 2558 32 is_stmt 0
	movq	-208(%rbp), %rax
	movq	%rax, -176(%rbp)
	movq	-216(%rbp), %rax
	movq	%rax, -184(%rbp)
	movq	-232(%rbp), %rax
	movq	-224(%rbp), %rcx
	movq	%rcx, -192(%rbp)
	movq	%rax, -200(%rbp)
Ltmp367:
	.loc	12 2821 9 is_stmt 1
	movq	-176(%rbp), %rax
	movq	%rax, -72(%rbp)
	movq	-184(%rbp), %rax
	movq	%rax, -80(%rbp)
	movq	-200(%rbp), %rax
	movq	-192(%rbp), %rcx
	movq	%rcx, -88(%rbp)
	movq	%rax, -96(%rbp)
Ltmp358:
	leaq	-96(%rbp), %rdi
	callq	__ZN9hashbrown11rustc_entry35RustcOccupiedEntry$LT$K$C$V$C$A$GT$8into_mut17h939d0e988fe3798cE
Ltmp359:
	movq	%rax, -264(%rbp)
	jmp	LBB36_11
Ltmp368:
LBB36_2:
	.loc	12 0 9 is_stmt 0
	movq	-248(%rbp), %rdi
	movq	-256(%rbp), %rcx
	.loc	12 2559 20 is_stmt 1
	movq	32(%rcx), %rax
	movq	%rax, -144(%rbp)
	movq	24(%rcx), %rax
	movq	%rax, -152(%rbp)
	movq	8(%rcx), %rax
	movq	16(%rcx), %rcx
	movq	%rcx, -160(%rbp)
	movq	%rax, -168(%rbp)
Ltmp369:
	.loc	12 2559 30 is_stmt 0
	movb	$1, -97(%rbp)
	movq	-144(%rbp), %rax
	movq	%rax, -112(%rbp)
	movq	-152(%rbp), %rax
	movq	%rax, -120(%rbp)
	movq	-168(%rbp), %rax
	movq	-160(%rbp), %rcx
	movq	%rcx, -128(%rbp)
	movq	%rax, -136(%rbp)
	.loc	12 2559 43
	movb	$0, -98(%rbp)
Ltmp353:
	callq	__ZN9egui_glow7painter7Painter11set_texture28_$u7b$$u7b$closure$u7d$$u7d$17h2970910bdec5cdbdE
Ltmp354:
	movl	%eax, -268(%rbp)
	jmp	LBB36_5
Ltmp370:
LBB36_3:
	.loc	12 2559 52
	testb	$1, -97(%rbp)
	jne	LBB36_8
	jmp	LBB36_7
Ltmp371:
LBB36_4:
Ltmp357:
	.loc	12 0 52
	movq	%rax, %rcx
	movl	%edx, %eax
	movq	%rcx, -24(%rbp)
	movl	%eax, -16(%rbp)
	jmp	LBB36_3
Ltmp372:
LBB36_5:
	movl	-268(%rbp), %esi
	.loc	12 2559 43
	movl	%esi, -4(%rbp)
	.loc	12 2559 30
	movb	$0, -97(%rbp)
Ltmp373:
	.loc	12 2986 9 is_stmt 1
	movq	-112(%rbp), %rax
	movq	%rax, -40(%rbp)
	movq	-120(%rbp), %rax
	movq	%rax, -48(%rbp)
	movq	-136(%rbp), %rax
	movq	-128(%rbp), %rcx
	movq	%rcx, -56(%rbp)
	movq	%rax, -64(%rbp)
Ltmp355:
	leaq	-64(%rbp), %rdi
	callq	__ZN9hashbrown11rustc_entry33RustcVacantEntry$LT$K$C$V$C$A$GT$6insert17h4307d8002d2b833dE
Ltmp356:
	movq	%rax, -280(%rbp)
	jmp	LBB36_6
Ltmp374:
LBB36_6:
	.loc	12 0 9 is_stmt 0
	movq	-280(%rbp), %rax
	.loc	12 2559 30 is_stmt 1
	movq	%rax, -240(%rbp)
Ltmp375:
	.loc	12 2559 52 is_stmt 0
	jmp	LBB36_9
Ltmp376:
LBB36_7:
	.loc	12 2561 5 is_stmt 1
	testb	$1, -98(%rbp)
	jne	LBB36_13
	jmp	LBB36_12
Ltmp377:
LBB36_8:
	.loc	12 2559 52
	jmp	LBB36_7
Ltmp378:
LBB36_9:
	.loc	12 2557 9
	movq	-240(%rbp), %rax
	movq	%rax, -288(%rbp)
	.loc	12 2561 5
	testb	$1, -98(%rbp)
	jne	LBB36_15
	jmp	LBB36_14
Ltmp379:
LBB36_10:
Ltmp360:
	.loc	12 0 5 is_stmt 0
	movq	%rax, %rcx
	movl	%edx, %eax
	movq	%rcx, -24(%rbp)
	movl	%eax, -16(%rbp)
	jmp	LBB36_7
Ltmp380:
LBB36_11:
	movq	-264(%rbp), %rax
Ltmp381:
	.loc	12 2558 32 is_stmt 1
	movq	%rax, -240(%rbp)
Ltmp382:
	.loc	12 2558 47 is_stmt 0
	jmp	LBB36_9
Ltmp383:
LBB36_12:
	.loc	12 2556 5 is_stmt 1
	movq	-24(%rbp), %rdi
	callq	__Unwind_Resume
Ltmp384:
LBB36_13:
	.loc	12 2561 5
	jmp	LBB36_12
Ltmp385:
LBB36_14:
	.loc	12 0 5 is_stmt 0
	movq	-288(%rbp), %rax
	.loc	12 2561 6
	addq	$288, %rsp
	popq	%rbp
	retq
Ltmp386:
LBB36_15:
	.loc	12 2561 5
	jmp	LBB36_14
Ltmp387:
Lfunc_end36:
	.cfi_endproc
	.section	__TEXT,__gcc_except_tab
	.p2align	2
GCC_except_table36:
Lexception7:
	.byte	255
	.byte	255
	.byte	1
	.uleb128 Lcst_end7-Lcst_begin7
Lcst_begin7:
	.uleb128 Ltmp358-Lfunc_begin36
	.uleb128 Ltmp359-Ltmp358
	.uleb128 Ltmp360-Lfunc_begin36
	.byte	0
	.uleb128 Ltmp353-Lfunc_begin36
	.uleb128 Ltmp356-Ltmp353
	.uleb128 Ltmp357-Lfunc_begin36
	.byte	0
	.uleb128 Ltmp356-Lfunc_begin36
	.uleb128 Lfunc_end36-Ltmp356
	.byte	0
	.byte	0
Lcst_end7:
	.p2align	2

	.section	__TEXT,__text,regular,pure_instructions
	.globl	__ZN3std11collections4hash3map24HashMap$LT$K$C$V$C$S$GT$3get17h20de5786b97e2e2bE
	.p2align	4, 0x90
__ZN3std11collections4hash3map24HashMap$LT$K$C$V$C$S$GT$3get17h20de5786b97e2e2bE:
Lfunc_begin37:
	.loc	12 876 0 is_stmt 1
	.cfi_startproc
	pushq	%rbp
	.cfi_def_cfa_offset 16
	.cfi_offset %rbp, -16
	movq	%rsp, %rbp
	.cfi_def_cfa_register %rbp
	subq	$16, %rsp
	movq	%rdi, -16(%rbp)
	movq	%rsi, -8(%rbp)
Ltmp388:
	.loc	12 881 9 prologue_end
	callq	__ZN9hashbrown3map28HashMap$LT$K$C$V$C$S$C$A$GT$3get17h20bec1d000554cceE
	.loc	12 882 6
	addq	$16, %rsp
	popq	%rbp
	retq
Ltmp389:
Lfunc_end37:
	.cfi_endproc

	.globl	__ZN3std11collections4hash3map24HashMap$LT$K$C$V$C$S$GT$4iter17hbf1fd505288517bbE
	.p2align	4, 0x90
__ZN3std11collections4hash3map24HashMap$LT$K$C$V$C$S$GT$4iter17hbf1fd505288517bbE:
Lfunc_begin38:
	.loc	12 516 0
	.cfi_startproc
	pushq	%rbp
	.cfi_def_cfa_offset 16
	.cfi_offset %rbp, -16
	movq	%rsp, %rbp
	.cfi_def_cfa_register %rbp
	subq	$64, %rsp
	movq	%rdi, -64(%rbp)
	movq	%rdi, -56(%rbp)
	movq	%rsi, -8(%rbp)
Ltmp390:
	.loc	12 517 22 prologue_end
	leaq	-48(%rbp), %rdi
	callq	__ZN9hashbrown3map28HashMap$LT$K$C$V$C$S$C$A$GT$4iter17he2ba6d8225d6a091E
	movq	-64(%rbp), %rdi
	.loc	12 517 9 is_stmt 0
	leaq	-48(%rbp), %rsi
	movl	$40, %edx
	callq	_memcpy
	movq	-56(%rbp), %rax
	.loc	12 518 6 is_stmt 1
	addq	$64, %rsp
	popq	%rbp
	retq
Ltmp391:
Lfunc_end38:
	.cfi_endproc

	.globl	__ZN3std11collections4hash3map24HashMap$LT$K$C$V$C$S$GT$5entry17h70c3f94828f5ceb0E
	.p2align	4, 0x90
__ZN3std11collections4hash3map24HashMap$LT$K$C$V$C$S$GT$5entry17h70c3f94828f5ceb0E:
Lfunc_begin39:
	.loc	12 854 0
	.cfi_startproc
	pushq	%rbp
	.cfi_def_cfa_offset 16
	.cfi_offset %rbp, -16
	movq	%rsp, %rbp
	.cfi_def_cfa_register %rbp
	subq	$80, %rsp
	movq	%rdi, -80(%rbp)
	movq	%rdi, -72(%rbp)
	movq	%rsi, -24(%rbp)
	movq	%rdx, -16(%rbp)
	movq	%rcx, -8(%rbp)
Ltmp392:
	.loc	12 855 19 prologue_end
	leaq	-64(%rbp), %rdi
	callq	__ZN9hashbrown11rustc_entry62_$LT$impl$u20$hashbrown..map..HashMap$LT$K$C$V$C$S$C$A$GT$$GT$11rustc_entry17h9a3d4a7ce6b0fc52E
	movq	-80(%rbp), %rdi
	.loc	12 855 9 is_stmt 0
	leaq	-64(%rbp), %rsi
	callq	__ZN3std11collections4hash3map9map_entry17he4697db2d94c91d5E
	movq	-72(%rbp), %rax
	.loc	12 856 6 is_stmt 1
	addq	$80, %rsp
	popq	%rbp
	retq
Ltmp393:
Lfunc_end39:
	.cfi_endproc

	.globl	__ZN3std11collections4hash3map24HashMap$LT$K$C$V$C$S$GT$6insert17h65efbd63f96015d5E
	.p2align	4, 0x90
__ZN3std11collections4hash3map24HashMap$LT$K$C$V$C$S$GT$6insert17h65efbd63f96015d5E:
Lfunc_begin40:
	.loc	12 1103 0
	.cfi_startproc
	pushq	%rbp
	.cfi_def_cfa_offset 16
	.cfi_offset %rbp, -16
	movq	%rsp, %rbp
	.cfi_def_cfa_register %rbp
	subq	$32, %rsp
	movq	%rdi, -32(%rbp)
	movq	%rsi, -24(%rbp)
	movq	%rdx, -16(%rbp)
	movl	%ecx, -4(%rbp)
Ltmp394:
	.loc	12 1104 9 prologue_end
	callq	__ZN9hashbrown3map28HashMap$LT$K$C$V$C$S$C$A$GT$6insert17h1a97add7414c27c6E
	.loc	12 1105 6
	addq	$32, %rsp
	popq	%rbp
	retq
Ltmp395:
Lfunc_end40:
	.cfi_endproc

	.globl	__ZN3std11collections4hash3map24HashMap$LT$K$C$V$C$S$GT$6remove17hc94b2a552b12719dE
	.p2align	4, 0x90
__ZN3std11collections4hash3map24HashMap$LT$K$C$V$C$S$GT$6remove17hc94b2a552b12719dE:
Lfunc_begin41:
	.loc	12 1157 0
	.cfi_startproc
	pushq	%rbp
	.cfi_def_cfa_offset 16
	.cfi_offset %rbp, -16
	movq	%rsp, %rbp
	.cfi_def_cfa_register %rbp
	subq	$16, %rsp
	movq	%rdi, -16(%rbp)
	movq	%rsi, -8(%rbp)
Ltmp396:
	.loc	12 1162 9 prologue_end
	callq	__ZN9hashbrown3map28HashMap$LT$K$C$V$C$S$C$A$GT$6remove17h1eddc850fa960029E
	.loc	12 1163 6
	addq	$16, %rsp
	popq	%rbp
	retq
Ltmp397:
Lfunc_end41:
	.cfi_endproc

	.globl	__ZN3std11collections4hash3map24HashMap$LT$K$C$V$C$S$GT$6values17hb901798a35065c63E
	.p2align	4, 0x90
__ZN3std11collections4hash3map24HashMap$LT$K$C$V$C$S$GT$6values17hb901798a35065c63E:
Lfunc_begin42:
	.loc	12 422 0
	.cfi_startproc
	pushq	%rbp
	.cfi_def_cfa_offset 16
	.cfi_offset %rbp, -16
	movq	%rsp, %rbp
	.cfi_def_cfa_register %rbp
	subq	$64, %rsp
	movq	%rdi, -64(%rbp)
	movq	%rdi, -56(%rbp)
	movq	%rsi, -8(%rbp)
Ltmp398:
	.loc	12 423 25 prologue_end
	leaq	-48(%rbp), %rdi
	callq	__ZN3std11collections4hash3map24HashMap$LT$K$C$V$C$S$GT$4iter17hbf1fd505288517bbE
	movq	-64(%rbp), %rdi
	.loc	12 423 9 is_stmt 0
	leaq	-48(%rbp), %rsi
	movl	$40, %edx
	callq	_memcpy
	movq	-56(%rbp), %rax
	.loc	12 424 6 is_stmt 1
	addq	$64, %rsp
	popq	%rbp
	retq
Ltmp399:
Lfunc_end42:
	.cfi_endproc

	.globl	__ZN3std11collections4hash3map9map_entry17he4697db2d94c91d5E
	.p2align	4, 0x90
__ZN3std11collections4hash3map9map_entry17he4697db2d94c91d5E:
Lfunc_begin43:
	.loc	12 3223 0
	.cfi_startproc
	pushq	%rbp
	.cfi_def_cfa_offset 16
	.cfi_offset %rbp, -16
	movq	%rsp, %rbp
	.cfi_def_cfa_register %rbp
	subq	$216, %rsp
	movq	%rsi, -216(%rbp)
Ltmp400:
	movq	%rdi, -208(%rbp)
	movq	%rdi, -200(%rbp)
Ltmp401:
	.loc	12 3224 5 prologue_end
	cmpq	$0, (%rsi)
Ltmp402:
	jne	LBB43_2
Ltmp403:
	.loc	12 0 5 is_stmt 0
	movq	-208(%rbp), %rax
	movq	-216(%rbp), %rcx
	.loc	12 3225 36 is_stmt 1
	movq	8(%rcx), %rdx
	movq	%rdx, -192(%rbp)
	movq	16(%rcx), %rdx
	movq	%rdx, -184(%rbp)
	movq	24(%rcx), %rdx
	movq	%rdx, -176(%rbp)
	movq	32(%rcx), %rcx
	movq	%rcx, -168(%rbp)
Ltmp404:
	.loc	12 3225 77 is_stmt 0
	movq	-192(%rbp), %rcx
	movq	%rcx, -128(%rbp)
	movq	-184(%rbp), %rcx
	movq	%rcx, -120(%rbp)
	movq	-176(%rbp), %rcx
	movq	%rcx, -112(%rbp)
	movq	-168(%rbp), %rcx
	movq	%rcx, -104(%rbp)
	.loc	12 3225 61
	movq	-128(%rbp), %rcx
	movq	%rcx, -160(%rbp)
	movq	-120(%rbp), %rcx
	movq	%rcx, -152(%rbp)
	movq	-112(%rbp), %rcx
	movq	%rcx, -144(%rbp)
	movq	-104(%rbp), %rcx
	movq	%rcx, -136(%rbp)
	.loc	12 3225 45
	movq	-160(%rbp), %rcx
	movq	%rcx, 8(%rax)
	movq	-152(%rbp), %rcx
	movq	%rcx, 16(%rax)
	movq	-144(%rbp), %rcx
	movq	%rcx, 24(%rax)
	movq	-136(%rbp), %rcx
	movq	%rcx, 32(%rax)
	movq	$0, (%rax)
Ltmp405:
	.loc	12 3225 83
	jmp	LBB43_3
Ltmp406:
LBB43_2:
	.loc	12 0 83
	movq	-208(%rbp), %rax
	movq	-216(%rbp), %rcx
	.loc	12 3226 34 is_stmt 1
	movq	8(%rcx), %rdx
	movq	%rdx, -96(%rbp)
	movq	16(%rcx), %rdx
	movq	%rdx, -88(%rbp)
	movq	24(%rcx), %rdx
	movq	%rdx, -80(%rbp)
	movq	32(%rcx), %rcx
	movq	%rcx, -72(%rbp)
Ltmp407:
	.loc	12 3226 71 is_stmt 0
	movq	-96(%rbp), %rcx
	movq	%rcx, -32(%rbp)
	movq	-88(%rbp), %rcx
	movq	%rcx, -24(%rbp)
	movq	-80(%rbp), %rcx
	movq	%rcx, -16(%rbp)
	movq	-72(%rbp), %rcx
	movq	%rcx, -8(%rbp)
	.loc	12 3226 57
	movq	-32(%rbp), %rcx
	movq	%rcx, -64(%rbp)
	movq	-24(%rbp), %rcx
	movq	%rcx, -56(%rbp)
	movq	-16(%rbp), %rcx
	movq	%rcx, -48(%rbp)
	movq	-8(%rbp), %rcx
	movq	%rcx, -40(%rbp)
	.loc	12 3226 43
	movq	-64(%rbp), %rcx
	movq	%rcx, 8(%rax)
	movq	-56(%rbp), %rcx
	movq	%rcx, 16(%rax)
	movq	-48(%rbp), %rcx
	movq	%rcx, 24(%rax)
	movq	-40(%rbp), %rcx
	movq	%rcx, 32(%rax)
	movq	$1, (%rax)
Ltmp408:
LBB43_3:
	.loc	12 0 43
	movq	-200(%rbp), %rax
	.loc	12 3228 2 is_stmt 1
	addq	$216, %rsp
	popq	%rbp
	retq
Ltmp409:
Lfunc_end43:
	.cfi_endproc

	.p2align	4, 0x90
__ZN3std3f3221_$LT$impl$u20$f32$GT$4powf17h7ad907c4cd7bb2f7E:
Lfunc_begin44:
	.file	35 "/rustc/2c8cc343237b8f7d5a3c3703e3a87f2eb2c54a74/library/std/src" "f32.rs"
	.loc	35 339 0
	.cfi_startproc
	pushq	%rbp
	.cfi_def_cfa_offset 16
	.cfi_offset %rbp, -16
	movq	%rsp, %rbp
	.cfi_def_cfa_register %rbp
	subq	$16, %rsp
	movss	%xmm0, -12(%rbp)
	movss	%xmm1, -8(%rbp)
Ltmp410:
	.loc	35 340 18 prologue_end
	callq	_powf
	movss	%xmm0, -4(%rbp)
	movss	-4(%rbp), %xmm0
	.loc	35 341 6
	addq	$16, %rsp
	popq	%rbp
	retq
Ltmp411:
Lfunc_end44:
	.cfi_endproc

	.p2align	4, 0x90
__ZN3std3f3221_$LT$impl$u20$f32$GT$5round17hc1c1cb81a9384c39E:
Lfunc_begin45:
	.loc	35 90 0
	.cfi_startproc
	pushq	%rbp
	.cfi_def_cfa_offset 16
	.cfi_offset %rbp, -16
	movq	%rsp, %rbp
	.cfi_def_cfa_register %rbp
	subq	$16, %rsp
	movss	%xmm0, -8(%rbp)
Ltmp412:
	.loc	35 91 18 prologue_end
	callq	_roundf
	movss	%xmm0, -4(%rbp)
	movss	-4(%rbp), %xmm0
	.loc	35 92 6
	addq	$16, %rsp
	popq	%rbp
	retq
Ltmp413:
Lfunc_end45:
	.cfi_endproc

	.globl	__ZN42_$LT$$RF$T$u20$as$u20$core..fmt..Debug$GT$3fmt17h535dc5e79a3ab3d3E
	.p2align	4, 0x90
__ZN42_$LT$$RF$T$u20$as$u20$core..fmt..Debug$GT$3fmt17h535dc5e79a3ab3d3E:
Lfunc_begin46:
	.file	36 "/rustc/2c8cc343237b8f7d5a3c3703e3a87f2eb2c54a74/library/core/src/fmt" "mod.rs"
	.loc	36 2377 0
	.cfi_startproc
	pushq	%rbp
	.cfi_def_cfa_offset 16
	.cfi_offset %rbp, -16
	movq	%rsp, %rbp
	.cfi_def_cfa_register %rbp
	subq	$16, %rsp
	movq	%rdi, -16(%rbp)
	movq	%rsi, -8(%rbp)
Ltmp414:
	.loc	36 2377 71 prologue_end
	movq	(%rdi), %rdi
	.loc	36 2377 62 is_stmt 0
	callq	__ZN86_$LT$std..collections..hash..set..HashSet$LT$T$C$S$GT$$u20$as$u20$core..fmt..Debug$GT$3fmt17hb00a1ef9e1aa4e35E
	.loc	36 2377 84
	andb	$1, %al
	movzbl	%al, %eax
	addq	$16, %rsp
	popq	%rbp
	retq
Ltmp415:
Lfunc_end46:
	.cfi_endproc

	.p2align	4, 0x90
__ZN45_$LT$u8$u20$as$u20$core..default..Default$GT$7default17hdd6018ff4804af60E:
Lfunc_begin47:
	.file	37 "/rustc/2c8cc343237b8f7d5a3c3703e3a87f2eb2c54a74/library/core/src" "default.rs"
	.loc	37 197 0 is_stmt 1
	.cfi_startproc
	pushq	%rbp
	.cfi_def_cfa_offset 16
	.cfi_offset %rbp, -16
	movq	%rsp, %rbp
	.cfi_def_cfa_register %rbp
Ltmp416:
	.loc	37 199 14 prologue_end
	xorl	%eax, %eax
	popq	%rbp
	retq
Ltmp417:
Lfunc_end47:
	.cfi_endproc

	.globl	__ZN49_$LT$F$u20$as$u20$core..str..pattern..Pattern$GT$13into_searcher17hfa4d0c10f2ff44caE
	.p2align	4, 0x90
__ZN49_$LT$F$u20$as$u20$core..str..pattern..Pattern$GT$13into_searcher17hfa4d0c10f2ff44caE:
Lfunc_begin48:
	.file	38 "/rustc/2c8cc343237b8f7d5a3c3703e3a87f2eb2c54a74/library/core/src/str" "pattern.rs"
	.loc	38 705 0
	.cfi_startproc
	pushq	%rbp
	.cfi_def_cfa_offset 16
	.cfi_offset %rbp, -16
	movq	%rsp, %rbp
	.cfi_def_cfa_register %rbp
	subq	$96, %rsp
	movq	%rdi, -88(%rbp)
	movq	%rdi, -80(%rbp)
	movq	%rsi, -16(%rbp)
	movq	%rdx, -8(%rbp)
Ltmp418:
	.loc	38 706 21 prologue_end
	leaq	-72(%rbp), %rdi
	callq	__ZN95_$LT$core..str..pattern..MultiCharEqPattern$LT$C$GT$$u20$as$u20$core..str..pattern..Pattern$GT$13into_searcher17h2eec4f6f80485d77E
	movq	-88(%rbp), %rdi
	.loc	38 706 13 is_stmt 0
	leaq	-72(%rbp), %rsi
	movl	$40, %edx
	callq	_memcpy
	movq	-80(%rbp), %rax
	.loc	38 707 10 is_stmt 1
	addq	$96, %rsp
	popq	%rbp
	retq
Ltmp419:
Lfunc_end48:
	.cfi_endproc

	.globl	__ZN4core13const_closure60ConstFnMutClosure$LT$$RF$mut$u20$CapturedData$C$Function$GT$3new17ha8e8a7b0b77d0364E
	.p2align	4, 0x90
__ZN4core13const_closure60ConstFnMutClosure$LT$$RF$mut$u20$CapturedData$C$Function$GT$3new17ha8e8a7b0b77d0364E:
Lfunc_begin49:
	.loc	30 35 0
	.cfi_startproc
	pushq	%rbp
	.cfi_def_cfa_offset 16
	.cfi_offset %rbp, -16
	movq	%rsp, %rbp
	.cfi_def_cfa_register %rbp
	subq	$24, %rsp
	movq	%rdi, -16(%rbp)
Ltmp420:
	.loc	30 42 9 prologue_end
	movq	%rdi, -24(%rbp)
	.loc	30 43 6
	movq	-24(%rbp), %rax
	addq	$24, %rsp
	popq	%rbp
	retq
Ltmp421:
Lfunc_end49:
	.cfi_endproc

	.globl	__ZN4core3any6TypeId2of17he49a83a76f747bf4E
	.p2align	4, 0x90
__ZN4core3any6TypeId2of17he49a83a76f747bf4E:
Lfunc_begin50:
	.loc	33 691 0
	.cfi_startproc
	pushq	%rbp
	.cfi_def_cfa_offset 16
	.cfi_offset %rbp, -16
	movq	%rsp, %rbp
	.cfi_def_cfa_register %rbp
	subq	$16, %rsp
Ltmp422:
	.loc	33 692 21 prologue_end
	movabsq	$1772180177833030937, %rax
	movq	%rax, -8(%rbp)
	movq	-8(%rbp), %rax
	.loc	33 692 9 is_stmt 0
	movq	%rax, -16(%rbp)
	.loc	33 693 6 is_stmt 1
	movq	-16(%rbp), %rax
	addq	$16, %rsp
	popq	%rbp
	retq
Ltmp423:
Lfunc_end50:
	.cfi_endproc

	.globl	__ZN4core3cmp3Ord5clamp17hfdac238e5225be7dE
	.p2align	4, 0x90
__ZN4core3cmp3Ord5clamp17hfdac238e5225be7dE:
Lfunc_begin51:
	.loc	4 861 0
	.cfi_startproc
	.cfi_personality 155, _rust_eh_personality
	.cfi_lsda 16, Lexception8
	pushq	%rbp
	.cfi_def_cfa_offset 16
	.cfi_offset %rbp, -16
	movq	%rsp, %rbp
	.cfi_def_cfa_register %rbp
	subq	$48, %rsp
	movl	%edi, -36(%rbp)
	movl	%esi, -32(%rbp)
	movl	%edx, -28(%rbp)
Ltmp433:
	.loc	4 867 9 prologue_end
	movb	$1, -17(%rbp)
	movb	$1, -18(%rbp)
	movb	$1, -19(%rbp)
Ltmp424:
	leaq	-32(%rbp), %rdi
	leaq	-28(%rbp), %rsi
	.loc	4 867 17 is_stmt 0
	callq	__ZN4core3cmp5impls55_$LT$impl$u20$core..cmp..PartialOrd$u20$for$u20$i32$GT$2le17hee4dbd5c35ec2ea0E
Ltmp425:
	movb	%al, -37(%rbp)
	jmp	LBB51_3
LBB51_1:
	.loc	4 875 5 is_stmt 1
	jmp	LBB51_12
LBB51_2:
Ltmp432:
	.loc	4 0 5 is_stmt 0
	movq	%rax, %rcx
	movl	%edx, %eax
	movq	%rcx, -16(%rbp)
	movl	%eax, -8(%rbp)
	jmp	LBB51_1
LBB51_3:
	movb	-37(%rbp), %al
	.loc	4 867 9 is_stmt 1
	xorb	$-1, %al
	testb	$1, %al
	jne	LBB51_5
Ltmp426:
	.loc	4 0 9 is_stmt 0
	leaq	-36(%rbp), %rdi
	leaq	-32(%rbp), %rsi
	.loc	4 868 12 is_stmt 1
	callq	__ZN4core3cmp5impls55_$LT$impl$u20$core..cmp..PartialOrd$u20$for$u20$i32$GT$2lt17hd70926115c4f86a3E
Ltmp427:
	movb	%al, -38(%rbp)
	jmp	LBB51_7
LBB51_5:
Ltmp430:
	.loc	4 867 9
	leaq	l___unnamed_15(%rip), %rdi
	leaq	l___unnamed_16(%rip), %rdx
	movl	$28, %esi
	callq	__ZN4core9panicking5panic17hc1bc45270cf64b03E
Ltmp431:
	jmp	LBB51_6
LBB51_6:
	.loc	4 0 9 is_stmt 0
	ud2
LBB51_7:
	movb	-38(%rbp), %al
	.loc	4 868 12 is_stmt 1
	testb	$1, %al
	jne	LBB51_9
	jmp	LBB51_8
LBB51_8:
Ltmp428:
	.loc	4 0 12 is_stmt 0
	leaq	-36(%rbp), %rdi
	leaq	-28(%rbp), %rsi
	.loc	4 870 19 is_stmt 1
	callq	__ZN4core3cmp5impls55_$LT$impl$u20$core..cmp..PartialOrd$u20$for$u20$i32$GT$2gt17h79d7f74d68cd0d6dE
Ltmp429:
	movb	%al, -39(%rbp)
	jmp	LBB51_11
LBB51_9:
	.loc	4 869 13
	movb	$0, -18(%rbp)
	movl	-32(%rbp), %eax
	movl	%eax, -24(%rbp)
LBB51_10:
	.loc	4 875 5
	testb	$1, -19(%rbp)
	jne	LBB51_17
	jmp	LBB51_16
LBB51_11:
	.loc	4 0 5 is_stmt 0
	movb	-39(%rbp), %al
	.loc	4 870 19 is_stmt 1
	testb	$1, %al
	jne	LBB51_14
	jmp	LBB51_13
LBB51_12:
	.loc	4 875 5
	testb	$1, -18(%rbp)
	jne	LBB51_19
	jmp	LBB51_18
LBB51_13:
	.loc	4 873 13
	movb	$0, -17(%rbp)
	movl	-36(%rbp), %eax
	movl	%eax, -24(%rbp)
	.loc	4 870 16
	jmp	LBB51_15
LBB51_14:
	.loc	4 871 13
	movb	$0, -19(%rbp)
	movl	-28(%rbp), %eax
	movl	%eax, -24(%rbp)
LBB51_15:
	.loc	4 868 9
	jmp	LBB51_10
LBB51_16:
	.loc	4 875 5
	testb	$1, -18(%rbp)
	jne	LBB51_21
	jmp	LBB51_20
LBB51_17:
	jmp	LBB51_16
LBB51_18:
	testb	$1, -17(%rbp)
	jne	LBB51_23
	jmp	LBB51_22
LBB51_19:
	jmp	LBB51_18
LBB51_20:
	testb	$1, -17(%rbp)
	jne	LBB51_25
	jmp	LBB51_24
LBB51_21:
	jmp	LBB51_20
LBB51_22:
	.loc	4 861 5
	movq	-16(%rbp), %rdi
	callq	__Unwind_Resume
LBB51_23:
	.loc	4 875 5
	jmp	LBB51_22
LBB51_24:
	.loc	4 875 6 is_stmt 0
	movl	-24(%rbp), %eax
	addq	$48, %rsp
	popq	%rbp
	retq
LBB51_25:
	.loc	4 875 5
	jmp	LBB51_24
Ltmp434:
Lfunc_end51:
	.cfi_endproc
	.section	__TEXT,__gcc_except_tab
	.p2align	2
GCC_except_table51:
Lexception8:
	.byte	255
	.byte	255
	.byte	1
	.uleb128 Lcst_end8-Lcst_begin8
Lcst_begin8:
	.uleb128 Ltmp424-Lfunc_begin51
	.uleb128 Ltmp429-Ltmp424
	.uleb128 Ltmp432-Lfunc_begin51
	.byte	0
	.uleb128 Ltmp429-Lfunc_begin51
	.uleb128 Lfunc_end51-Ltmp429
	.byte	0
	.byte	0
Lcst_end8:
	.p2align	2

	.section	__TEXT,__text,regular,pure_instructions
	.p2align	4, 0x90
__ZN4core3cmp5impls54_$LT$impl$u20$core..cmp..PartialEq$u20$for$u20$i32$GT$2ne17h9fac4748d96ec2cbE:
Lfunc_begin52:
	.loc	4 1354 0 is_stmt 1
	.cfi_startproc
	pushq	%rbp
	.cfi_def_cfa_offset 16
	.cfi_offset %rbp, -16
	movq	%rsp, %rbp
	.cfi_def_cfa_register %rbp
	subq	$16, %rsp
	movq	%rdi, -16(%rbp)
	movq	%rsi, -8(%rbp)
Ltmp435:
	.loc	4 1354 52 prologue_end
	movl	(%rdi), %eax
	cmpl	(%rsi), %eax
	setne	%al
	.loc	4 1354 73 is_stmt 0
	andb	$1, %al
	movzbl	%al, %eax
	addq	$16, %rsp
	popq	%rbp
	retq
Ltmp436:
Lfunc_end52:
	.cfi_endproc

	.p2align	4, 0x90
__ZN4core3cmp5impls55_$LT$impl$u20$core..cmp..PartialOrd$u20$for$u20$i32$GT$2gt17h79d7f74d68cd0d6dE:
Lfunc_begin53:
	.loc	4 1447 0 is_stmt 1
	.cfi_startproc
	pushq	%rbp
	.cfi_def_cfa_offset 16
	.cfi_offset %rbp, -16
	movq	%rsp, %rbp
	.cfi_def_cfa_register %rbp
	subq	$16, %rsp
	movq	%rdi, -16(%rbp)
	movq	%rsi, -8(%rbp)
Ltmp437:
	.loc	4 1447 52 prologue_end
	movl	(%rdi), %eax
	cmpl	(%rsi), %eax
	setg	%al
	.loc	4 1447 72 is_stmt 0
	andb	$1, %al
	movzbl	%al, %eax
	addq	$16, %rsp
	popq	%rbp
	retq
Ltmp438:
Lfunc_end53:
	.cfi_endproc

	.p2align	4, 0x90
__ZN4core3cmp5impls55_$LT$impl$u20$core..cmp..PartialOrd$u20$for$u20$i32$GT$2le17hee4dbd5c35ec2ea0E:
Lfunc_begin54:
	.loc	4 1443 0 is_stmt 1
	.cfi_startproc
	pushq	%rbp
	.cfi_def_cfa_offset 16
	.cfi_offset %rbp, -16
	movq	%rsp, %rbp
	.cfi_def_cfa_register %rbp
	subq	$16, %rsp
	movq	%rdi, -16(%rbp)
	movq	%rsi, -8(%rbp)
Ltmp439:
	.loc	4 1443 52 prologue_end
	movl	(%rdi), %eax
	cmpl	(%rsi), %eax
	setle	%al
	.loc	4 1443 73 is_stmt 0
	andb	$1, %al
	movzbl	%al, %eax
	addq	$16, %rsp
	popq	%rbp
	retq
Ltmp440:
Lfunc_end54:
	.cfi_endproc

	.p2align	4, 0x90
__ZN4core3cmp5impls55_$LT$impl$u20$core..cmp..PartialOrd$u20$for$u20$i32$GT$2lt17hd70926115c4f86a3E:
Lfunc_begin55:
	.loc	4 1441 0 is_stmt 1
	.cfi_startproc
	pushq	%rbp
	.cfi_def_cfa_offset 16
	.cfi_offset %rbp, -16
	movq	%rsp, %rbp
	.cfi_def_cfa_register %rbp
	subq	$16, %rsp
	movq	%rdi, -16(%rbp)
	movq	%rsi, -8(%rbp)
Ltmp441:
	.loc	4 1441 52 prologue_end
	movl	(%rdi), %eax
	cmpl	(%rsi), %eax
	setl	%al
	.loc	4 1441 72 is_stmt 0
	andb	$1, %al
	movzbl	%al, %eax
	addq	$16, %rsp
	popq	%rbp
	retq
Ltmp442:
Lfunc_end55:
	.cfi_endproc

	.globl	__ZN4core3fmt10ArgumentV111new_display17h0c75c75b95b2030eE
	.p2align	4, 0x90
__ZN4core3fmt10ArgumentV111new_display17h0c75c75b95b2030eE:
Lfunc_begin56:
	.loc	36 327 0 is_stmt 1
	.cfi_startproc
	pushq	%rbp
	.cfi_def_cfa_offset 16
	.cfi_offset %rbp, -16
	movq	%rsp, %rbp
	.cfi_def_cfa_register %rbp
	subq	$56, %rsp
	movq	%rdi, -40(%rbp)
Ltmp443:
	.loc	36 328 23 prologue_end
	movq	%rdi, -32(%rbp)
	.loc	36 328 26 is_stmt 0
	movq	__ZN61_$LT$bytemuck..PodCastError$u20$as$u20$core..fmt..Display$GT$3fmt17he8a013feeb816bb0E@GOTPCREL(%rip), %rax
	movq	%rax, -24(%rbp)
Ltmp444:
	.loc	36 347 42 is_stmt 1
	movq	%rax, -16(%rbp)
	movq	-16(%rbp), %rax
	.loc	36 347 68 is_stmt 0
	movq	%rdi, -8(%rbp)
	movq	-8(%rbp), %rcx
	.loc	36 347 18
	movq	%rcx, -56(%rbp)
	movq	%rax, -48(%rbp)
Ltmp445:
	.loc	36 329 10 is_stmt 1
	movq	-56(%rbp), %rax
	movq	-48(%rbp), %rdx
	addq	$56, %rsp
	popq	%rbp
	retq
Ltmp446:
Lfunc_end56:
	.cfi_endproc

	.globl	__ZN4core3fmt10ArgumentV113new_upper_hex17h31f0a63508c05023E
	.p2align	4, 0x90
__ZN4core3fmt10ArgumentV113new_upper_hex17h31f0a63508c05023E:
Lfunc_begin57:
	.loc	36 327 0
	.cfi_startproc
	pushq	%rbp
	.cfi_def_cfa_offset 16
	.cfi_offset %rbp, -16
	movq	%rsp, %rbp
	.cfi_def_cfa_register %rbp
	subq	$56, %rsp
	movq	%rdi, -40(%rbp)
Ltmp447:
	.loc	36 328 23 prologue_end
	movq	%rdi, -32(%rbp)
	.loc	36 328 26 is_stmt 0
	movq	__ZN4core3fmt3num53_$LT$impl$u20$core..fmt..UpperHex$u20$for$u20$u32$GT$3fmt17ha96bbefe8f663d11E@GOTPCREL(%rip), %rax
	movq	%rax, -24(%rbp)
Ltmp448:
	.loc	36 347 42 is_stmt 1
	movq	%rax, -16(%rbp)
	movq	-16(%rbp), %rax
	.loc	36 347 68 is_stmt 0
	movq	%rdi, -8(%rbp)
	movq	-8(%rbp), %rcx
	.loc	36 347 18
	movq	%rcx, -56(%rbp)
	movq	%rax, -48(%rbp)
Ltmp449:
	.loc	36 329 10 is_stmt 1
	movq	-56(%rbp), %rax
	movq	-48(%rbp), %rdx
	addq	$56, %rsp
	popq	%rbp
	retq
Ltmp450:
Lfunc_end57:
	.cfi_endproc

	.globl	__ZN4core3fmt10ArgumentV19new_debug17h1d7e9779000a29f0E
	.p2align	4, 0x90
__ZN4core3fmt10ArgumentV19new_debug17h1d7e9779000a29f0E:
Lfunc_begin58:
	.loc	36 327 0
	.cfi_startproc
	pushq	%rbp
	.cfi_def_cfa_offset 16
	.cfi_offset %rbp, -16
	movq	%rsp, %rbp
	.cfi_def_cfa_register %rbp
	subq	$56, %rsp
	movq	%rdi, -40(%rbp)
Ltmp451:
	.loc	36 328 23 prologue_end
	movq	%rdi, -32(%rbp)
	.loc	36 328 26 is_stmt 0
	movq	__ZN54_$LT$epaint..TextureId$u20$as$u20$core..fmt..Debug$GT$3fmt17hfa7516167e456b44E@GOTPCREL(%rip), %rax
	movq	%rax, -24(%rbp)
Ltmp452:
	.loc	36 347 42 is_stmt 1
	movq	%rax, -16(%rbp)
	movq	-16(%rbp), %rax
	.loc	36 347 68 is_stmt 0
	movq	%rdi, -8(%rbp)
	movq	-8(%rbp), %rcx
	.loc	36 347 18
	movq	%rcx, -56(%rbp)
	movq	%rax, -48(%rbp)
Ltmp453:
	.loc	36 329 10 is_stmt 1
	movq	-56(%rbp), %rax
	movq	-48(%rbp), %rdx
	addq	$56, %rsp
	popq	%rbp
	retq
Ltmp454:
Lfunc_end58:
	.cfi_endproc

	.globl	__ZN4core3fmt10ArgumentV19new_debug17h60d1df8b83a1ca74E
	.p2align	4, 0x90
__ZN4core3fmt10ArgumentV19new_debug17h60d1df8b83a1ca74E:
Lfunc_begin59:
	.loc	36 327 0
	.cfi_startproc
	pushq	%rbp
	.cfi_def_cfa_offset 16
	.cfi_offset %rbp, -16
	movq	%rsp, %rbp
	.cfi_def_cfa_register %rbp
	subq	$56, %rsp
	movq	%rdi, -40(%rbp)
Ltmp455:
	.loc	36 328 23 prologue_end
	movq	%rdi, -32(%rbp)
	.loc	36 328 26 is_stmt 0
	leaq	__ZN4core3fmt3num52_$LT$impl$u20$core..fmt..Debug$u20$for$u20$usize$GT$3fmt17hbb46970c6bc17753E(%rip), %rax
	movq	%rax, -24(%rbp)
Ltmp456:
	.loc	36 347 42 is_stmt 1
	movq	%rax, -16(%rbp)
	movq	-16(%rbp), %rax
	.loc	36 347 68 is_stmt 0
	movq	%rdi, -8(%rbp)
	movq	-8(%rbp), %rcx
	.loc	36 347 18
	movq	%rcx, -56(%rbp)
	movq	%rax, -48(%rbp)
Ltmp457:
	.loc	36 329 10 is_stmt 1
	movq	-56(%rbp), %rax
	movq	-48(%rbp), %rdx
	addq	$56, %rsp
	popq	%rbp
	retq
Ltmp458:
Lfunc_end59:
	.cfi_endproc

	.globl	__ZN4core3fmt10ArgumentV19new_debug17hd0f027ee093cd20fE
	.p2align	4, 0x90
__ZN4core3fmt10ArgumentV19new_debug17hd0f027ee093cd20fE:
Lfunc_begin60:
	.loc	36 327 0
	.cfi_startproc
	pushq	%rbp
	.cfi_def_cfa_offset 16
	.cfi_offset %rbp, -16
	movq	%rsp, %rbp
	.cfi_def_cfa_register %rbp
	subq	$56, %rsp
	movq	%rdi, -40(%rbp)
Ltmp459:
	.loc	36 328 23 prologue_end
	movq	%rdi, -32(%rbp)
	.loc	36 328 26 is_stmt 0
	leaq	__ZN77_$LT$egui_glow..shader_version..ShaderVersion$u20$as$u20$core..fmt..Debug$GT$3fmt17hed12810e8c8671b1E(%rip), %rax
	movq	%rax, -24(%rbp)
Ltmp460:
	.loc	36 347 42 is_stmt 1
	movq	%rax, -16(%rbp)
	movq	-16(%rbp), %rax
	.loc	36 347 68 is_stmt 0
	movq	%rdi, -8(%rbp)
	movq	-8(%rbp), %rcx
	.loc	36 347 18
	movq	%rcx, -56(%rbp)
	movq	%rax, -48(%rbp)
Ltmp461:
	.loc	36 329 10 is_stmt 1
	movq	-56(%rbp), %rax
	movq	-48(%rbp), %rdx
	addq	$56, %rsp
	popq	%rbp
	retq
Ltmp462:
Lfunc_end60:
	.cfi_endproc

	.globl	__ZN4core3fmt10ArgumentV19new_debug17hfefb573b3f9fd224E
	.p2align	4, 0x90
__ZN4core3fmt10ArgumentV19new_debug17hfefb573b3f9fd224E:
Lfunc_begin61:
	.loc	36 327 0
	.cfi_startproc
	pushq	%rbp
	.cfi_def_cfa_offset 16
	.cfi_offset %rbp, -16
	movq	%rsp, %rbp
	.cfi_def_cfa_register %rbp
	subq	$56, %rsp
	movq	%rdi, -40(%rbp)
Ltmp463:
	.loc	36 328 23 prologue_end
	movq	%rdi, -32(%rbp)
	.loc	36 328 26 is_stmt 0
	leaq	__ZN42_$LT$$RF$T$u20$as$u20$core..fmt..Debug$GT$3fmt17h535dc5e79a3ab3d3E(%rip), %rax
	movq	%rax, -24(%rbp)
Ltmp464:
	.loc	36 347 42 is_stmt 1
	movq	%rax, -16(%rbp)
	movq	-16(%rbp), %rax
	.loc	36 347 68 is_stmt 0
	movq	%rdi, -8(%rbp)
	movq	-8(%rbp), %rcx
	.loc	36 347 18
	movq	%rcx, -56(%rbp)
	movq	%rax, -48(%rbp)
Ltmp465:
	.loc	36 329 10 is_stmt 1
	movq	-56(%rbp), %rax
	movq	-48(%rbp), %rdx
	addq	$56, %rsp
	popq	%rbp
	retq
Ltmp466:
Lfunc_end61:
	.cfi_endproc

	.p2align	4, 0x90
__ZN4core3fmt3num52_$LT$impl$u20$core..fmt..Debug$u20$for$u20$usize$GT$3fmt17hbb46970c6bc17753E:
Lfunc_begin62:
	.file	39 "/rustc/2c8cc343237b8f7d5a3c3703e3a87f2eb2c54a74/library/core/src/fmt" "num.rs"
	.loc	39 185 0
	.cfi_startproc
	pushq	%rbp
	.cfi_def_cfa_offset 16
	.cfi_offset %rbp, -16
	movq	%rsp, %rbp
	.cfi_def_cfa_register %rbp
	subq	$48, %rsp
	movq	%rsi, -48(%rbp)
	movq	%rdi, %rax
	movq	-48(%rbp), %rdi
	movq	%rax, -40(%rbp)
	movq	%rdi, -32(%rbp)
	movq	%rax, -16(%rbp)
	movq	%rdi, -8(%rbp)
Ltmp467:
	.loc	39 186 20 prologue_end
	callq	__ZN4core3fmt9Formatter15debug_lower_hex17h0921e6b9188d914eE
	testb	$1, %al
	jne	LBB62_2
	.loc	39 0 20 is_stmt 0
	movq	-32(%rbp), %rdi
	.loc	39 188 27 is_stmt 1
	callq	__ZN4core3fmt9Formatter15debug_upper_hex17h8ce487049a6cccf8E
	testb	$1, %al
	jne	LBB62_5
	jmp	LBB62_4
LBB62_2:
	.loc	39 0 27 is_stmt 0
	movq	-32(%rbp), %rsi
	movq	-40(%rbp), %rdi
	.loc	39 187 21 is_stmt 1
	callq	__ZN4core3fmt3num55_$LT$impl$u20$core..fmt..LowerHex$u20$for$u20$usize$GT$3fmt17h84f349805fe63f8dE
	andb	$1, %al
	movb	%al, -17(%rbp)
LBB62_3:
	.loc	39 193 14
	movb	-17(%rbp), %al
	andb	$1, %al
	movzbl	%al, %eax
	addq	$48, %rsp
	popq	%rbp
	retq
LBB62_4:
	.loc	39 0 14 is_stmt 0
	movq	-32(%rbp), %rsi
	movq	-40(%rbp), %rdi
	.loc	39 191 21 is_stmt 1
	callq	__ZN4core3fmt3num3imp54_$LT$impl$u20$core..fmt..Display$u20$for$u20$usize$GT$3fmt17ha5c925fcd7ed33faE
	andb	$1, %al
	movb	%al, -17(%rbp)
	.loc	39 188 24
	jmp	LBB62_6
LBB62_5:
	.loc	39 0 24 is_stmt 0
	movq	-32(%rbp), %rsi
	movq	-40(%rbp), %rdi
	.loc	39 189 21 is_stmt 1
	callq	__ZN4core3fmt3num55_$LT$impl$u20$core..fmt..UpperHex$u20$for$u20$usize$GT$3fmt17h49aa717311edc293E
	andb	$1, %al
	movb	%al, -17(%rbp)
LBB62_6:
	.loc	39 186 17
	jmp	LBB62_3
Ltmp468:
Lfunc_end62:
	.cfi_endproc

	.globl	__ZN4core3fmt8builders8DebugSet7entries17h9202d85d9c65bfb8E
	.p2align	4, 0x90
__ZN4core3fmt8builders8DebugSet7entries17h9202d85d9c65bfb8E:
Lfunc_begin63:
	.file	40 "/rustc/2c8cc343237b8f7d5a3c3703e3a87f2eb2c54a74/library/core/src/fmt" "builders.rs"
	.loc	40 497 0
	.cfi_startproc
	.cfi_personality 155, _rust_eh_personality
	.cfi_lsda 16, Lexception9
	pushq	%rbp
	.cfi_def_cfa_offset 16
	.cfi_offset %rbp, -16
	movq	%rsp, %rbp
	.cfi_def_cfa_register %rbp
	subq	$176, %rsp
	movq	%rdi, -168(%rbp)
	movq	%rdi, -24(%rbp)
Ltmp475:
	.loc	40 502 22 prologue_end
	leaq	-120(%rbp), %rdi
	movl	$40, %edx
	callq	_memcpy
Ltmp476:
	leaq	-160(%rbp), %rdi
	leaq	-120(%rbp), %rsi
	callq	__ZN63_$LT$I$u20$as$u20$core..iter..traits..collect..IntoIterator$GT$9into_iter17h1ccea44b3d930a77E
	leaq	-80(%rbp), %rdi
	leaq	-160(%rbp), %rsi
	movl	$40, %edx
	callq	_memcpy
Ltmp477:
LBB63_1:
Ltmp469:
	.loc	40 0 22 is_stmt 0
	leaq	-80(%rbp), %rdi
Ltmp478:
	.loc	40 502 22
	callq	__ZN101_$LT$std..collections..hash..set..Iter$LT$K$GT$$u20$as$u20$core..iter..traits..iterator..Iterator$GT$4next17h68d61c00b147c3f0E
Ltmp470:
	movq	%rax, -176(%rbp)
	jmp	LBB63_4
Ltmp479:
LBB63_2:
	.loc	40 497 5 is_stmt 1
	movq	-16(%rbp), %rdi
	callq	__Unwind_Resume
Ltmp480:
LBB63_3:
Ltmp471:
	.loc	40 0 5 is_stmt 0
	movq	%rax, %rcx
	movl	%edx, %eax
	movq	%rcx, -16(%rbp)
	movl	%eax, -8(%rbp)
	jmp	LBB63_2
Ltmp481:
LBB63_4:
	movq	-176(%rbp), %rax
Ltmp482:
	.loc	40 502 22 is_stmt 1
	movq	%rax, -40(%rbp)
	movq	-40(%rbp), %rdx
	movl	$1, %eax
	xorl	%ecx, %ecx
	cmpq	$0, %rdx
	cmoveq	%rcx, %rax
	cmpq	$0, %rax
	jne	LBB63_6
Ltmp483:
	.loc	40 0 22 is_stmt 0
	movq	-168(%rbp), %rax
	.loc	40 506 6 is_stmt 1
	addq	$176, %rsp
	popq	%rbp
	retq
Ltmp484:
LBB63_6:
	.loc	40 0 6 is_stmt 0
	movq	-168(%rbp), %rdi
Ltmp485:
	.loc	40 502 13 is_stmt 1
	movq	-40(%rbp), %rax
	movq	%rax, -32(%rbp)
Ltmp472:
Ltmp486:
	.loc	40 503 13
	leaq	l___unnamed_1(%rip), %rdx
	leaq	-32(%rbp), %rsi
	callq	__ZN4core3fmt8builders8DebugSet5entry17hd60fb59ebab587e4E
Ltmp473:
	jmp	LBB63_9
Ltmp487:
LBB63_7:
	.loc	40 504 9
	jmp	LBB63_2
Ltmp488:
LBB63_8:
Ltmp474:
	.loc	40 0 9 is_stmt 0
	movq	%rax, %rcx
	movl	%edx, %eax
	movq	%rcx, -16(%rbp)
	movl	%eax, -8(%rbp)
	jmp	LBB63_7
Ltmp489:
LBB63_9:
	.loc	40 504 9
	jmp	LBB63_10
Ltmp490:
LBB63_10:
	.loc	40 502 9 is_stmt 1
	jmp	LBB63_1
Ltmp491:
Lfunc_end63:
	.cfi_endproc
	.section	__TEXT,__gcc_except_tab
	.p2align	2
GCC_except_table63:
Lexception9:
	.byte	255
	.byte	255
	.byte	1
	.uleb128 Lcst_end9-Lcst_begin9
Lcst_begin9:
	.uleb128 Lfunc_begin63-Lfunc_begin63
	.uleb128 Ltmp469-Lfunc_begin63
	.byte	0
	.byte	0
	.uleb128 Ltmp469-Lfunc_begin63
	.uleb128 Ltmp470-Ltmp469
	.uleb128 Ltmp471-Lfunc_begin63
	.byte	0
	.uleb128 Ltmp470-Lfunc_begin63
	.uleb128 Ltmp472-Ltmp470
	.byte	0
	.byte	0
	.uleb128 Ltmp472-Lfunc_begin63
	.uleb128 Ltmp473-Ltmp472
	.uleb128 Ltmp474-Lfunc_begin63
	.byte	0
Lcst_end9:
	.p2align	2

	.section	__TEXT,__text,regular,pure_instructions
	.p2align	4, 0x90
__ZN4core3fmt9Arguments6as_str17h7a42e198e27b2b48E:
Lfunc_begin64:
	.loc	36 521 0
	.cfi_startproc
	pushq	%rbp
	.cfi_def_cfa_offset 16
	.cfi_offset %rbp, -16
	movq	%rsp, %rbp
	.cfi_def_cfa_register %rbp
	subq	$64, %rsp
	movq	%rdi, -16(%rbp)
Ltmp492:
	.loc	36 522 16 prologue_end
	movq	16(%rdi), %rsi
	movq	24(%rdi), %rdx
	.loc	36 522 29 is_stmt 0
	movq	32(%rdi), %rcx
	movq	40(%rdi), %rax
	.loc	36 522 15
	movq	%rsi, -48(%rbp)
	movq	%rdx, -40(%rbp)
	movq	%rcx, -32(%rbp)
	movq	%rax, -24(%rbp)
	.loc	36 523 14 is_stmt 1
	cmpq	$0, -40(%rbp)
	je	LBB64_2
	.loc	36 524 14
	cmpq	$1, -40(%rbp)
	je	LBB64_6
	jmp	LBB64_3
LBB64_2:
	.loc	36 523 18
	cmpq	$0, -24(%rbp)
	je	LBB64_4
LBB64_3:
	.loc	36 525 18
	movq	$0, -64(%rbp)
	jmp	LBB64_5
LBB64_4:
	.loc	36 523 25
	leaq	l___unnamed_13(%rip), %rax
	movq	%rax, -64(%rbp)
	movq	$0, -56(%rbp)
LBB64_5:
	.loc	36 527 6
	movq	-64(%rbp), %rax
	movq	-56(%rbp), %rdx
	addq	$64, %rsp
	popq	%rbp
	retq
LBB64_6:
	.loc	36 524 19
	cmpq	$0, -24(%rbp)
	jne	LBB64_3
	.loc	36 524 15 is_stmt 0
	movq	-48(%rbp), %rax
	movq	%rax, -8(%rbp)
Ltmp493:
	.loc	36 524 31
	movq	(%rax), %rcx
	movq	8(%rax), %rax
	.loc	36 524 26
	movq	%rcx, -64(%rbp)
	movq	%rax, -56(%rbp)
Ltmp494:
	.loc	36 524 32
	jmp	LBB64_5
Ltmp495:
Lfunc_end64:
	.cfi_endproc

	.p2align	4, 0x90
__ZN4core3fmt9Arguments6new_v117h746c3dd55c20477aE:
Lfunc_begin65:
	.loc	36 399 0 is_stmt 1
	.cfi_startproc
	pushq	%rbp
	.cfi_def_cfa_offset 16
	.cfi_offset %rbp, -16
	movq	%rsp, %rbp
	.cfi_def_cfa_register %rbp
	subq	$160, %rsp
	movq	%r8, -152(%rbp)
	movq	%rcx, -144(%rbp)
	movq	%rdx, -136(%rbp)
	movq	%rsi, -128(%rbp)
	movq	%rdi, -120(%rbp)
	movq	%rdi, -112(%rbp)
	movq	%rsi, -32(%rbp)
	movq	%rdx, -24(%rbp)
	movq	%rcx, -16(%rbp)
	movq	%r8, -8(%rbp)
Ltmp496:
	.loc	36 400 12 prologue_end
	cmpq	%r8, %rdx
	jb	LBB65_2
	.loc	36 0 12 is_stmt 0
	movq	-136(%rbp), %rax
	movq	-152(%rbp), %rcx
	.loc	36 400 56
	addq	$1, %rcx
	.loc	36 400 41
	cmpq	%rcx, %rax
	seta	%al
	.loc	36 400 12
	andb	$1, %al
	movb	%al, -97(%rbp)
	jmp	LBB65_3
LBB65_2:
	movb	$1, -97(%rbp)
LBB65_3:
	testb	$1, -97(%rbp)
	jne	LBB65_5
	.loc	36 0 12
	movq	-112(%rbp), %rax
	movq	-120(%rbp), %rcx
	movq	-152(%rbp), %rdx
	movq	-144(%rbp), %rsi
	movq	-136(%rbp), %rdi
	movq	-128(%rbp), %r8
	.loc	36 403 34 is_stmt 1
	movq	$0, -48(%rbp)
	.loc	36 403 9 is_stmt 0
	movq	%r8, 16(%rcx)
	movq	%rdi, 24(%rcx)
	movq	-48(%rbp), %r8
	movq	-40(%rbp), %rdi
	movq	%r8, (%rcx)
	movq	%rdi, 8(%rcx)
	movq	%rsi, 32(%rcx)
	movq	%rdx, 40(%rcx)
	.loc	36 404 6 is_stmt 1
	addq	$160, %rsp
	popq	%rbp
	retq
LBB65_5:
	.loc	36 401 13
	leaq	l___unnamed_17(%rip), %rsi
	leaq	l___unnamed_13(%rip), %rcx
	xorl	%eax, %eax
	movl	%eax, %r8d
	leaq	-96(%rbp), %rdi
	movq	%rdi, -160(%rbp)
	movl	$1, %edx
	callq	__ZN4core3fmt9Arguments6new_v117h746c3dd55c20477aE
	movq	-160(%rbp), %rdi
	leaq	l___unnamed_18(%rip), %rsi
	callq	__ZN4core9panicking9panic_fmt17h9b5d807e24bcaaedE
Ltmp497:
Lfunc_end65:
	.cfi_endproc

	.globl	__ZN4core3mem11size_of_val17h4cacf3ca1e84a3b4E
	.p2align	4, 0x90
__ZN4core3mem11size_of_val17h4cacf3ca1e84a3b4E:
Lfunc_begin66:
	.file	41 "/rustc/2c8cc343237b8f7d5a3c3703e3a87f2eb2c54a74/library/core/src/mem" "mod.rs"
	.loc	41 336 0
	.cfi_startproc
	pushq	%rbp
	.cfi_def_cfa_offset 16
	.cfi_offset %rbp, -16
	movq	%rsp, %rbp
	.cfi_def_cfa_register %rbp
	subq	$24, %rsp
	movq	%rdi, -24(%rbp)
	movq	%rsi, -16(%rbp)
Ltmp498:
	.loc	41 338 14 prologue_end
	imulq	$20, %rsi, %rax
	movq	%rax, -8(%rbp)
	movq	-8(%rbp), %rax
	.loc	41 339 2
	addq	$24, %rsp
	popq	%rbp
	retq
Ltmp499:
Lfunc_end66:
	.cfi_endproc

	.globl	__ZN4core3mem11size_of_val17ha4175d5fe9487598E
	.p2align	4, 0x90
__ZN4core3mem11size_of_val17ha4175d5fe9487598E:
Lfunc_begin67:
	.loc	41 336 0
	.cfi_startproc
	pushq	%rbp
	.cfi_def_cfa_offset 16
	.cfi_offset %rbp, -16
	movq	%rsp, %rbp
	.cfi_def_cfa_register %rbp
	subq	$24, %rsp
	movq	%rdi, -24(%rbp)
	movq	%rsi, -16(%rbp)
Ltmp500:
	.loc	41 338 14 prologue_end
	shlq	$2, %rsi
	movq	%rsi, -8(%rbp)
	movq	-8(%rbp), %rax
	.loc	41 339 2
	addq	$24, %rsp
	popq	%rbp
	retq
Ltmp501:
Lfunc_end67:
	.cfi_endproc

	.globl	__ZN4core3mem11size_of_val17hc43162ff962ff29aE
	.p2align	4, 0x90
__ZN4core3mem11size_of_val17hc43162ff962ff29aE:
Lfunc_begin68:
	.loc	41 336 0
	.cfi_startproc
	pushq	%rbp
	.cfi_def_cfa_offset 16
	.cfi_offset %rbp, -16
	movq	%rsp, %rbp
	.cfi_def_cfa_register %rbp
	subq	$24, %rsp
	movq	%rdi, -24(%rbp)
	movq	%rsi, -16(%rbp)
Ltmp502:
	.loc	41 338 14 prologue_end
	shlq	$2, %rsi
	movq	%rsi, -8(%rbp)
	movq	-8(%rbp), %rax
	.loc	41 339 2
	addq	$24, %rsp
	popq	%rbp
	retq
Ltmp503:
Lfunc_end68:
	.cfi_endproc

	.globl	__ZN4core3mem11size_of_val17hfd4ccb0ea021d34cE
	.p2align	4, 0x90
__ZN4core3mem11size_of_val17hfd4ccb0ea021d34cE:
Lfunc_begin69:
	.loc	41 336 0
	.cfi_startproc
	pushq	%rbp
	.cfi_def_cfa_offset 16
	.cfi_offset %rbp, -16
	movq	%rsp, %rbp
	.cfi_def_cfa_register %rbp
	subq	$24, %rsp
	movq	%rdi, -24(%rbp)
	movq	%rsi, -16(%rbp)
Ltmp504:
	.loc	41 338 14 prologue_end
	shlq	$2, %rsi
	movq	%rsi, -8(%rbp)
	movq	-8(%rbp), %rax
	.loc	41 339 2
	addq	$24, %rsp
	popq	%rbp
	retq
Ltmp505:
Lfunc_end69:
	.cfi_endproc

	.globl	__ZN4core3mem14transmute_copy17h08c206e16e514a71E
	.p2align	4, 0x90
__ZN4core3mem14transmute_copy17h08c206e16e514a71E:
Lfunc_begin70:
	.loc	41 1048 0
	.cfi_startproc
	pushq	%rbp
	.cfi_def_cfa_offset 16
	.cfi_offset %rbp, -16
	movq	%rsp, %rbp
	.cfi_def_cfa_register %rbp
	subq	$128, %rsp
	movq	%rdi, -120(%rbp)
	movq	%rdi, -32(%rbp)
Ltmp506:
	.loc	41 1049 5 prologue_end
	xorl	%eax, %eax
	testb	$1, %al
	jne	LBB70_2
	.loc	41 1055 8
	xorl	%eax, %eax
	testb	$1, %al
	jne	LBB70_4
	jmp	LBB70_3
LBB70_2:
	.loc	41 1049 5
	leaq	l___unnamed_19(%rip), %rsi
	leaq	l___unnamed_13(%rip), %rcx
	xorl	%eax, %eax
	movl	%eax, %r8d
	leaq	-104(%rbp), %rdi
	movq	%rdi, -128(%rbp)
	movl	$1, %edx
	callq	__ZN4core3fmt9Arguments6new_v117h746c3dd55c20477aE
	movq	-128(%rbp), %rdi
	leaq	l___unnamed_20(%rip), %rsi
	callq	__ZN4core9panicking9panic_fmt17h9b5d807e24bcaaedE
LBB70_3:
	.loc	41 0 5 is_stmt 0
	movq	-120(%rbp), %rax
	.loc	41 1063 28 is_stmt 1
	movq	%rax, -16(%rbp)
Ltmp507:
	.loc	10 1157 34
	leaq	-56(%rbp), %rcx
	movq	%rcx, -8(%rbp)
	.loc	10 1157 9 is_stmt 0
	movl	(%rax), %eax
	movl	%eax, -56(%rbp)
	.loc	10 1158 9 is_stmt 1
	movl	-56(%rbp), %eax
	movl	%eax, -48(%rbp)
Ltmp508:
	.file	42 "/rustc/2c8cc343237b8f7d5a3c3703e3a87f2eb2c54a74/library/core/src/mem" "maybe_uninit.rs"
	.loc	42 627 38
	movl	-48(%rbp), %eax
	movl	%eax, -40(%rbp)
Ltmp509:
	.file	43 "/rustc/2c8cc343237b8f7d5a3c3703e3a87f2eb2c54a74/library/core/src/mem" "manually_drop.rs"
	.loc	43 89 9
	movl	-40(%rbp), %eax
	movl	%eax, -108(%rbp)
Ltmp510:
	.loc	41 1055 5
	jmp	LBB70_5
LBB70_4:
	.loc	41 0 5 is_stmt 0
	movq	-120(%rbp), %rdi
	.loc	41 1058 18 is_stmt 1
	callq	__ZN4core3ptr14read_unaligned17ha256bed972327a59E
	movl	%eax, -20(%rbp)
	movl	-20(%rbp), %eax
	movl	%eax, -108(%rbp)
LBB70_5:
	.loc	41 1065 2
	movl	-108(%rbp), %eax
	addq	$128, %rsp
	popq	%rbp
	retq
Ltmp511:
Lfunc_end70:
	.cfi_endproc

	.globl	__ZN4core3mem7replace17h0ee41de7e9df8ddfE
	.p2align	4, 0x90
__ZN4core3mem7replace17h0ee41de7e9df8ddfE:
Lfunc_begin71:
	.loc	41 905 0
	.cfi_startproc
	pushq	%rbp
	.cfi_def_cfa_offset 16
	.cfi_offset %rbp, -16
	movq	%rsp, %rbp
	.cfi_def_cfa_register %rbp
	subq	$96, %rsp
	movq	%rdi, -96(%rbp)
	movl	%esi, -88(%rbp)
	movq	%rdi, -72(%rbp)
	movl	%esi, -60(%rbp)
Ltmp512:
	.loc	41 910 32 prologue_end
	movq	%rdi, -56(%rbp)
Ltmp513:
	.loc	10 1157 34
	leaq	-76(%rbp), %rax
	movq	%rax, -48(%rbp)
	.loc	10 1157 9 is_stmt 0
	movl	(%rdi), %eax
	movl	%eax, -76(%rbp)
	.loc	10 1158 9 is_stmt 1
	movl	-76(%rbp), %eax
	movl	%eax, -84(%rbp)
	movl	%eax, -36(%rbp)
	.loc	10 0 9 is_stmt 0
	movl	-84(%rbp), %eax
	movq	-96(%rbp), %rcx
	movl	-88(%rbp), %edx
Ltmp514:
	.loc	42 627 38 is_stmt 1
	movl	%eax, -16(%rbp)
Ltmp515:
	.loc	43 89 9
	movl	%eax, -12(%rbp)
Ltmp516:
	.loc	41 911 20
	movq	%rcx, -8(%rbp)
	.loc	41 911 26 is_stmt 0
	movl	%edx, -80(%rbp)
Ltmp517:
	.loc	10 1354 9 is_stmt 1
	movl	-80(%rbp), %edx
	movl	%edx, (%rcx)
Ltmp518:
	.loc	41 914 2
	addq	$96, %rsp
	popq	%rbp
	retq
Ltmp519:
Lfunc_end71:
	.cfi_endproc

	.p2align	4, 0x90
__ZN4core3num23_$LT$impl$u20$usize$GT$11checked_add17ha502dbc81b67a8c4E:
Lfunc_begin72:
	.loc	16 442 0
	.cfi_startproc
	pushq	%rbp
	.cfi_def_cfa_offset 16
	.cfi_offset %rbp, -16
	movq	%rsp, %rbp
	.cfi_def_cfa_register %rbp
	subq	$120, %rsp
	movq	%rdi, -80(%rbp)
	movq	%rsi, -72(%rbp)
Ltmp520:
	.loc	16 443 26 prologue_end
	movq	%rdi, -64(%rbp)
	.loc	16 443 47 is_stmt 0
	movq	%rsi, -56(%rbp)
Ltmp521:
	.loc	16 1479 26 is_stmt 1
	addq	%rsi, %rdi
	setb	%al
	andb	$1, %al
	movq	%rdi, -48(%rbp)
	movb	%al, -40(%rbp)
	movq	-48(%rbp), %rcx
	movb	-40(%rbp), %al
	.loc	16 1479 18 is_stmt 0
	movq	%rcx, -32(%rbp)
	.loc	16 1479 21
	movb	%al, %dl
	andb	$1, %dl
	movb	%dl, -17(%rbp)
Ltmp522:
	.loc	16 1480 13 is_stmt 1
	movq	%rcx, -96(%rbp)
	andb	$1, %al
	movb	%al, -88(%rbp)
Ltmp523:
	.loc	16 443 18
	movq	-96(%rbp), %rax
	movq	%rax, -120(%rbp)
	movq	%rax, -16(%rbp)
	.loc	16 443 21 is_stmt 0
	movb	-88(%rbp), %al
	movb	%al, %cl
	andb	$1, %cl
	movb	%cl, -2(%rbp)
Ltmp524:
	.loc	16 444 16 is_stmt 1
	andb	$1, %al
	movb	%al, -1(%rbp)
	testb	$1, -1(%rbp)
	jne	LBB72_2
	.loc	16 0 16 is_stmt 0
	movq	-120(%rbp), %rax
	.loc	16 444 42
	movq	%rax, -104(%rbp)
	movq	$1, -112(%rbp)
	.loc	16 444 13
	jmp	LBB72_3
LBB72_2:
	.loc	16 444 30
	movq	$0, -112(%rbp)
Ltmp525:
LBB72_3:
	.loc	16 445 10 is_stmt 1
	movq	-112(%rbp), %rax
	movq	-104(%rbp), %rdx
	addq	$120, %rsp
	popq	%rbp
	retq
Ltmp526:
Lfunc_end72:
	.cfi_endproc

	.p2align	4, 0x90
__ZN4core3num23_$LT$impl$u20$usize$GT$11checked_mul17he9122779ab012e3dE:
Lfunc_begin73:
	.loc	16 558 0
	.cfi_startproc
	pushq	%rbp
	.cfi_def_cfa_offset 16
	.cfi_offset %rbp, -16
	movq	%rsp, %rbp
	.cfi_def_cfa_register %rbp
	subq	$120, %rsp
	movq	%rdi, %rax
	movq	%rax, -80(%rbp)
	movq	%rsi, -72(%rbp)
Ltmp527:
	.loc	16 559 26 prologue_end
	movq	%rax, -64(%rbp)
	.loc	16 559 47 is_stmt 0
	movq	%rsi, -56(%rbp)
Ltmp528:
	.loc	16 1677 26 is_stmt 1
	mulq	%rsi
	movq	%rax, %rcx
	seto	%al
	andb	$1, %al
	movq	%rcx, -48(%rbp)
	movb	%al, -40(%rbp)
	movq	-48(%rbp), %rcx
	movb	-40(%rbp), %al
	.loc	16 1677 18 is_stmt 0
	movq	%rcx, -32(%rbp)
	.loc	16 1677 21
	movb	%al, %dl
	andb	$1, %dl
	movb	%dl, -17(%rbp)
Ltmp529:
	.loc	16 1678 13 is_stmt 1
	movq	%rcx, -96(%rbp)
	andb	$1, %al
	movb	%al, -88(%rbp)
Ltmp530:
	.loc	16 559 18
	movq	-96(%rbp), %rax
	movq	%rax, -120(%rbp)
	movq	%rax, -16(%rbp)
	.loc	16 559 21 is_stmt 0
	movb	-88(%rbp), %al
	movb	%al, %cl
	andb	$1, %cl
	movb	%cl, -2(%rbp)
Ltmp531:
	.loc	16 560 16 is_stmt 1
	andb	$1, %al
	movb	%al, -1(%rbp)
	testb	$1, -1(%rbp)
	jne	LBB73_2
	.loc	16 0 16 is_stmt 0
	movq	-120(%rbp), %rax
	.loc	16 560 42
	movq	%rax, -104(%rbp)
	movq	$1, -112(%rbp)
	.loc	16 560 13
	jmp	LBB73_3
LBB73_2:
	.loc	16 560 30
	movq	$0, -112(%rbp)
Ltmp532:
LBB73_3:
	.loc	16 561 10 is_stmt 1
	movq	-112(%rbp), %rax
	movq	-104(%rbp), %rdx
	addq	$120, %rsp
	popq	%rbp
	retq
Ltmp533:
Lfunc_end73:
	.cfi_endproc

	.p2align	4, 0x90
__ZN4core3ops8function2Fn4call17h3960a2bc354dd5e8E:
Lfunc_begin74:
	.file	44 "/rustc/2c8cc343237b8f7d5a3c3703e3a87f2eb2c54a74/library/core/src/ops" "function.rs"
	.loc	44 79 0
	.cfi_startproc
	pushq	%rbp
	.cfi_def_cfa_offset 16
	.cfi_offset %rbp, -16
	movq	%rsp, %rbp
	.cfi_def_cfa_register %rbp
	subq	$32, %rsp
	movq	%rsi, -24(%rbp)
	movq	%rdx, -16(%rbp)
	movq	%rdi, -8(%rbp)
Ltmp534:
	.loc	44 79 5 prologue_end
	movq	-24(%rbp), %rdi
	movq	-16(%rbp), %rsi
	callq	__ZN4core3ops9try_trait26NeverShortCircuit$LT$T$GT$14wrap_mut_2_imp17h71c3e6a0245f8fcfE
	addq	$32, %rsp
	popq	%rbp
	retq
Ltmp535:
Lfunc_end74:
	.cfi_endproc

	.globl	__ZN4core3ops8function5impls79_$LT$impl$u20$core..ops..function..FnMut$LT$A$GT$$u20$for$u20$$RF$mut$u20$F$GT$8call_mut17hf7817b273349ed1cE
	.p2align	4, 0x90
__ZN4core3ops8function5impls79_$LT$impl$u20$core..ops..function..FnMut$LT$A$GT$$u20$for$u20$$RF$mut$u20$F$GT$8call_mut17hf7817b273349ed1cE:
Lfunc_begin75:
	.loc	44 297 0
	.cfi_startproc
	pushq	%rbp
	.cfi_def_cfa_offset 16
	.cfi_offset %rbp, -16
	movq	%rsp, %rbp
	.cfi_def_cfa_register %rbp
	subq	$16, %rsp
	movb	%sil, %al
	movb	%al, -9(%rbp)
	movq	%rdi, -8(%rbp)
Ltmp536:
	.loc	44 298 13 prologue_end
	movq	(%rdi), %rdi
	movzbl	-9(%rbp), %esi
	callq	__ZN4core4iter6traits8iterator8Iterator8for_each4call28_$u7b$$u7b$closure$u7d$$u7d$17h028778fba01f0a84E
	.loc	44 299 10
	addq	$16, %rsp
	popq	%rbp
	retq
Ltmp537:
Lfunc_end75:
	.cfi_endproc

	.globl	__ZN4core3ops8function5impls80_$LT$impl$u20$core..ops..function..FnOnce$LT$A$GT$$u20$for$u20$$RF$mut$u20$F$GT$9call_once17head013ea1b4896c3E
	.p2align	4, 0x90
__ZN4core3ops8function5impls80_$LT$impl$u20$core..ops..function..FnOnce$LT$A$GT$$u20$for$u20$$RF$mut$u20$F$GT$9call_once17head013ea1b4896c3E:
Lfunc_begin76:
	.loc	44 309 0
	.cfi_startproc
	pushq	%rbp
	.cfi_def_cfa_offset 16
	.cfi_offset %rbp, -16
	movq	%rsp, %rbp
	.cfi_def_cfa_register %rbp
	subq	$32, %rsp
	movq	%rsi, -24(%rbp)
	movq	%rdx, -16(%rbp)
	movq	%rdi, -8(%rbp)
Ltmp538:
	.loc	44 310 30 prologue_end
	movq	-24(%rbp), %rsi
	movq	-16(%rbp), %rdx
	.loc	44 310 13 is_stmt 0
	callq	__ZN9egui_glow14shader_version13ShaderVersion5parse28_$u7b$$u7b$closure$u7d$$u7d$17h4934e12096e82ef4E
	.loc	44 311 10 is_stmt 1
	addq	$32, %rsp
	popq	%rbp
	retq
Ltmp539:
Lfunc_end76:
	.cfi_endproc

	.p2align	4, 0x90
__ZN4core3ops8function6FnOnce40call_once$u7b$$u7b$vtable.shim$u7d$$u7d$17h4dd2b314b8bd5f92E:
Lfunc_begin77:
	.loc	44 250 0
	.cfi_startproc
	pushq	%rbp
	.cfi_def_cfa_offset 16
	.cfi_offset %rbp, -16
	movq	%rsp, %rbp
	.cfi_def_cfa_register %rbp
	subq	$32, %rsp
	movq	%rsi, -24(%rbp)
	movq	%rdx, -16(%rbp)
	movq	%rdi, -8(%rbp)
Ltmp540:
	.loc	44 250 5 prologue_end
	movq	(%rdi), %rdi
	movq	-24(%rbp), %rsi
	movq	-16(%rbp), %rdx
	callq	__ZN4core3ops8function6FnOnce9call_once17hdbf9bd8b41abfc1dE
	addq	$32, %rsp
	popq	%rbp
	retq
Ltmp541:
Lfunc_end77:
	.cfi_endproc

	.p2align	4, 0x90
__ZN4core3ops8function6FnOnce40call_once$u7b$$u7b$vtable.shim$u7d$$u7d$17h805b1357b3c9e8fcE:
Lfunc_begin78:
	.loc	44 250 0
	.cfi_startproc
	pushq	%rbp
	.cfi_def_cfa_offset 16
	.cfi_offset %rbp, -16
	movq	%rsp, %rbp
	.cfi_def_cfa_register %rbp
	subq	$16, %rsp
	movq	%rdi, %rax
	movq	%rsi, -16(%rbp)
	movq	%rax, -8(%rbp)
Ltmp542:
	.loc	44 250 5 prologue_end
	movq	(%rax), %rdi
	movq	8(%rax), %rsi
	movq	-16(%rbp), %rdx
	callq	__ZN4core3ops8function6FnOnce9call_once17h8d91f897a2280ec4E
	andb	$1, %al
	movzbl	%al, %eax
	addq	$16, %rsp
	popq	%rbp
	retq
Ltmp543:
Lfunc_end78:
	.cfi_endproc

	.p2align	4, 0x90
__ZN4core3ops8function6FnOnce40call_once$u7b$$u7b$vtable.shim$u7d$$u7d$17hf24ab204291b08e0E:
Lfunc_begin79:
	.loc	44 250 0
	.cfi_startproc
	pushq	%rbp
	.cfi_def_cfa_offset 16
	.cfi_offset %rbp, -16
	movq	%rsp, %rbp
	.cfi_def_cfa_register %rbp
	subq	$16, %rsp
	movq	%rdi, %rax
	movq	%rsi, -16(%rbp)
	movq	%rax, -8(%rbp)
Ltmp544:
	.loc	44 250 5 prologue_end
	movq	(%rax), %rdi
	movq	8(%rax), %rsi
	movq	-16(%rbp), %rdx
	callq	__ZN4core3ops8function6FnOnce9call_once17he63837e133983930E
	andb	$1, %al
	movzbl	%al, %eax
	addq	$16, %rsp
	popq	%rbp
	retq
Ltmp545:
Lfunc_end79:
	.cfi_endproc

	.p2align	4, 0x90
__ZN4core3ops8function6FnOnce9call_once17h8d91f897a2280ec4E:
Lfunc_begin80:
	.loc	44 250 0
	.cfi_startproc
	.cfi_personality 155, _rust_eh_personality
	.cfi_lsda 16, Lexception10
	pushq	%rbp
	.cfi_def_cfa_offset 16
	.cfi_offset %rbp, -16
	movq	%rsp, %rbp
	.cfi_def_cfa_register %rbp
	subq	$48, %rsp
	movq	%rdi, -40(%rbp)
	movq	%rsi, -32(%rbp)
	movq	%rdx, -24(%rbp)
Ltmp549:
	.loc	44 250 5 prologue_end
	movq	-24(%rbp), %rsi
Ltmp546:
	leaq	-40(%rbp), %rdi
	callq	__ZN9hashbrown3raw21RawTable$LT$T$C$A$GT$4find28_$u7b$$u7b$closure$u7d$$u7d$17h847ddbc5b96e3a74E
Ltmp547:
	movb	%al, -41(%rbp)
	jmp	LBB80_3
LBB80_1:
	movq	-16(%rbp), %rdi
	callq	__Unwind_Resume
LBB80_2:
Ltmp548:
	.loc	44 0 5 is_stmt 0
	movq	%rax, %rcx
	movl	%edx, %eax
	movq	%rcx, -16(%rbp)
	movl	%eax, -8(%rbp)
	jmp	LBB80_1
LBB80_3:
	movb	-41(%rbp), %al
	.loc	44 250 5
	andb	$1, %al
	movzbl	%al, %eax
	addq	$48, %rsp
	popq	%rbp
	retq
Ltmp550:
Lfunc_end80:
	.cfi_endproc
	.section	__TEXT,__gcc_except_tab
	.p2align	2
GCC_except_table80:
Lexception10:
	.byte	255
	.byte	255
	.byte	1
	.uleb128 Lcst_end10-Lcst_begin10
Lcst_begin10:
	.uleb128 Ltmp546-Lfunc_begin80
	.uleb128 Ltmp547-Ltmp546
	.uleb128 Ltmp548-Lfunc_begin80
	.byte	0
	.uleb128 Ltmp547-Lfunc_begin80
	.uleb128 Lfunc_end80-Ltmp547
	.byte	0
	.byte	0
Lcst_end10:
	.p2align	2

	.section	__TEXT,__text,regular,pure_instructions
	.p2align	4, 0x90
__ZN4core3ops8function6FnOnce9call_once17hdbf9bd8b41abfc1dE:
Lfunc_begin81:
	.loc	44 250 0 is_stmt 1
	.cfi_startproc
	.cfi_personality 155, _rust_eh_personality
	.cfi_lsda 16, Lexception11
	pushq	%rbp
	.cfi_def_cfa_offset 16
	.cfi_offset %rbp, -16
	movq	%rsp, %rbp
	.cfi_def_cfa_register %rbp
	subq	$48, %rsp
	movq	%rdi, -40(%rbp)
	movq	%rsi, -32(%rbp)
	movq	%rdx, -24(%rbp)
Ltmp554:
	.loc	44 250 5 prologue_end
	movq	-32(%rbp), %rsi
	movq	-24(%rbp), %rdx
Ltmp551:
	leaq	-40(%rbp), %rdi
	callq	__ZN9hashbrown3raw21RawTable$LT$T$C$A$GT$14reserve_rehash28_$u7b$$u7b$closure$u7d$$u7d$17h00c8cce37b4d383fE
Ltmp552:
	movq	%rax, -48(%rbp)
	jmp	LBB81_3
LBB81_1:
	movq	-16(%rbp), %rdi
	callq	__Unwind_Resume
LBB81_2:
Ltmp553:
	.loc	44 0 5 is_stmt 0
	movq	%rax, %rcx
	movl	%edx, %eax
	movq	%rcx, -16(%rbp)
	movl	%eax, -8(%rbp)
	jmp	LBB81_1
LBB81_3:
	movq	-48(%rbp), %rax
	.loc	44 250 5
	addq	$48, %rsp
	popq	%rbp
	retq
Ltmp555:
Lfunc_end81:
	.cfi_endproc
	.section	__TEXT,__gcc_except_tab
	.p2align	2
GCC_except_table81:
Lexception11:
	.byte	255
	.byte	255
	.byte	1
	.uleb128 Lcst_end11-Lcst_begin11
Lcst_begin11:
	.uleb128 Ltmp551-Lfunc_begin81
	.uleb128 Ltmp552-Ltmp551
	.uleb128 Ltmp553-Lfunc_begin81
	.byte	0
	.uleb128 Ltmp552-Lfunc_begin81
	.uleb128 Lfunc_end81-Ltmp552
	.byte	0
	.byte	0
Lcst_end11:
	.p2align	2

	.section	__TEXT,__text,regular,pure_instructions
	.p2align	4, 0x90
__ZN4core3ops8function6FnOnce9call_once17he63837e133983930E:
Lfunc_begin82:
	.loc	44 250 0 is_stmt 1
	.cfi_startproc
	.cfi_personality 155, _rust_eh_personality
	.cfi_lsda 16, Lexception12
	pushq	%rbp
	.cfi_def_cfa_offset 16
	.cfi_offset %rbp, -16
	movq	%rsp, %rbp
	.cfi_def_cfa_register %rbp
	subq	$48, %rsp
	movq	%rdi, -40(%rbp)
	movq	%rsi, -32(%rbp)
	movq	%rdx, -24(%rbp)
Ltmp559:
	.loc	44 250 5 prologue_end
	movq	-24(%rbp), %rsi
Ltmp556:
	leaq	-40(%rbp), %rdi
	callq	__ZN9hashbrown3raw21RawTable$LT$T$C$A$GT$4find28_$u7b$$u7b$closure$u7d$$u7d$17hd5f81a672735d4e9E
Ltmp557:
	movb	%al, -41(%rbp)
	jmp	LBB82_3
LBB82_1:
	movq	-16(%rbp), %rdi
	callq	__Unwind_Resume
LBB82_2:
Ltmp558:
	.loc	44 0 5 is_stmt 0
	movq	%rax, %rcx
	movl	%edx, %eax
	movq	%rcx, -16(%rbp)
	movl	%eax, -8(%rbp)
	jmp	LBB82_1
LBB82_3:
	movb	-41(%rbp), %al
	.loc	44 250 5
	andb	$1, %al
	movzbl	%al, %eax
	addq	$48, %rsp
	popq	%rbp
	retq
Ltmp560:
Lfunc_end82:
	.cfi_endproc
	.section	__TEXT,__gcc_except_tab
	.p2align	2
GCC_except_table82:
Lexception12:
	.byte	255
	.byte	255
	.byte	1
	.uleb128 Lcst_end12-Lcst_begin12
Lcst_begin12:
	.uleb128 Ltmp556-Lfunc_begin82
	.uleb128 Ltmp557-Ltmp556
	.uleb128 Ltmp558-Lfunc_begin82
	.byte	0
	.uleb128 Ltmp557-Lfunc_begin82
	.uleb128 Lfunc_end82-Ltmp557
	.byte	0
	.byte	0
Lcst_end12:
	.p2align	2

	.section	__TEXT,__text,regular,pure_instructions
	.p2align	4, 0x90
__ZN4core3ops8function6FnOnce9call_once17he69a48e31089c644E:
Lfunc_begin83:
	.loc	44 250 0 is_stmt 1
	.cfi_startproc
	pushq	%rbp
	.cfi_def_cfa_offset 16
	.cfi_offset %rbp, -16
	movq	%rsp, %rbp
	.cfi_def_cfa_register %rbp
	subq	$32, %rsp
	movq	%rdi, %rax
	movq	%rax, -24(%rbp)
	movq	%rsi, -16(%rbp)
Ltmp561:
	.loc	44 250 5 prologue_end
	movq	-16(%rbp), %rsi
	callq	__ZN99_$LT$core..array..iter..IntoIter$LT$T$C$_$GT$$u20$as$u20$core..iter..traits..iterator..Iterator$GT$9size_hint17h631cd5428aa42ea1E
	movq	-24(%rbp), %rax
	addq	$32, %rsp
	popq	%rbp
	retq
Ltmp562:
Lfunc_end83:
	.cfi_endproc

	.globl	__ZN4core3ops9try_trait26NeverShortCircuit$LT$T$GT$14wrap_mut_2_imp17h71c3e6a0245f8fcfE
	.p2align	4, 0x90
__ZN4core3ops9try_trait26NeverShortCircuit$LT$T$GT$14wrap_mut_2_imp17h71c3e6a0245f8fcfE:
Lfunc_begin84:
	.file	45 "/rustc/2c8cc343237b8f7d5a3c3703e3a87f2eb2c54a74/library/core/src/ops" "try_trait.rs"
	.loc	45 384 0
	.cfi_startproc
	pushq	%rbp
	.cfi_def_cfa_offset 16
	.cfi_offset %rbp, -16
	movq	%rsp, %rbp
	.cfi_def_cfa_register %rbp
	subq	$48, %rsp
	movq	%rdi, -32(%rbp)
	movq	%rsi, -24(%rbp)
Ltmp563:
	.loc	45 386 13 prologue_end
	movq	%rsi, -8(%rbp)
Ltmp564:
	.loc	45 388 27
	movq	%rsi, -40(%rbp)
	movq	-40(%rbp), %rsi
	callq	__ZN99_$LT$core..array..iter..IntoIter$LT$T$C$_$GT$$u20$as$u20$core..iter..traits..iterator..Iterator$GT$4fold28_$u7b$$u7b$closure$u7d$$u7d$17hd9ddbf8ea764a46fE
Ltmp565:
	.loc	45 389 6
	addq	$48, %rsp
	popq	%rbp
	retq
Ltmp566:
Lfunc_end84:
	.cfi_endproc

	.globl	__ZN4core3ptr108drop_in_place$LT$hashbrown..raw..RawTable$LT$$LP$epaint..TextureId$C$glow..native..NativeTexture$RP$$GT$$GT$17h1aa5b82690a17b93E
	.p2align	4, 0x90
__ZN4core3ptr108drop_in_place$LT$hashbrown..raw..RawTable$LT$$LP$epaint..TextureId$C$glow..native..NativeTexture$RP$$GT$$GT$17h1aa5b82690a17b93E:
Lfunc_begin85:
	.loc	10 490 0
	.cfi_startproc
	pushq	%rbp
	.cfi_def_cfa_offset 16
	.cfi_offset %rbp, -16
	movq	%rsp, %rbp
	.cfi_def_cfa_register %rbp
	subq	$16, %rsp
	movq	%rdi, -8(%rbp)
Ltmp567:
	.loc	10 490 1 prologue_end
	callq	__ZN79_$LT$hashbrown..raw..RawTable$LT$T$C$A$GT$$u20$as$u20$core..ops..drop..Drop$GT$4drop17h9817c2d5b4ef2c26E
	addq	$16, %rsp
	popq	%rbp
	retq
Ltmp568:
Lfunc_end85:
	.cfi_endproc

	.globl	__ZN4core3ptr112drop_in_place$LT$std..collections..hash..map..HashMap$LT$epaint..TextureId$C$glow..native..NativeTexture$GT$$GT$17h9b016e81653daf0bE
	.p2align	4, 0x90
__ZN4core3ptr112drop_in_place$LT$std..collections..hash..map..HashMap$LT$epaint..TextureId$C$glow..native..NativeTexture$GT$$GT$17h9b016e81653daf0bE:
Lfunc_begin86:
	.loc	10 490 0
	.cfi_startproc
	pushq	%rbp
	.cfi_def_cfa_offset 16
	.cfi_offset %rbp, -16
	movq	%rsp, %rbp
	.cfi_def_cfa_register %rbp
	subq	$16, %rsp
	movq	%rdi, -8(%rbp)
Ltmp569:
	.loc	10 490 1 prologue_end
	callq	__ZN4core3ptr142drop_in_place$LT$hashbrown..map..HashMap$LT$epaint..TextureId$C$glow..native..NativeTexture$C$std..collections..hash..map..RandomState$GT$$GT$17h8494f3fa7b373c2dE
	addq	$16, %rsp
	popq	%rbp
	retq
Ltmp570:
Lfunc_end86:
	.cfi_endproc

	.globl	__ZN4core3ptr116drop_in_place$LT$hashbrown..set..HashSet$LT$alloc..string..String$C$std..collections..hash..map..RandomState$GT$$GT$17h5ab902bb53e0715eE
	.p2align	4, 0x90
__ZN4core3ptr116drop_in_place$LT$hashbrown..set..HashSet$LT$alloc..string..String$C$std..collections..hash..map..RandomState$GT$$GT$17h5ab902bb53e0715eE:
Lfunc_begin87:
	.loc	10 490 0
	.cfi_startproc
	pushq	%rbp
	.cfi_def_cfa_offset 16
	.cfi_offset %rbp, -16
	movq	%rsp, %rbp
	.cfi_def_cfa_register %rbp
	subq	$16, %rsp
	movq	%rdi, -8(%rbp)
Ltmp571:
	.loc	10 490 1 prologue_end
	callq	__ZN4core3ptr127drop_in_place$LT$hashbrown..map..HashMap$LT$alloc..string..String$C$$LP$$RP$$C$std..collections..hash..map..RandomState$GT$$GT$17h72f241b05a5e124bE
	addq	$16, %rsp
	popq	%rbp
	retq
Ltmp572:
Lfunc_end87:
	.cfi_endproc

	.globl	__ZN4core3ptr127drop_in_place$LT$hashbrown..map..HashMap$LT$alloc..string..String$C$$LP$$RP$$C$std..collections..hash..map..RandomState$GT$$GT$17h72f241b05a5e124bE
	.p2align	4, 0x90
__ZN4core3ptr127drop_in_place$LT$hashbrown..map..HashMap$LT$alloc..string..String$C$$LP$$RP$$C$std..collections..hash..map..RandomState$GT$$GT$17h72f241b05a5e124bE:
Lfunc_begin88:
	.loc	10 490 0
	.cfi_startproc
	pushq	%rbp
	.cfi_def_cfa_offset 16
	.cfi_offset %rbp, -16
	movq	%rsp, %rbp
	.cfi_def_cfa_register %rbp
	subq	$16, %rsp
	movq	%rdi, -8(%rbp)
Ltmp573:
	.loc	10 490 1 prologue_end
	callq	__ZN4core3ptr93drop_in_place$LT$hashbrown..raw..RawTable$LT$$LP$alloc..string..String$C$$LP$$RP$$RP$$GT$$GT$17h6f897db04032e4f1E
	addq	$16, %rsp
	popq	%rbp
	retq
Ltmp574:
Lfunc_end88:
	.cfi_endproc

	.globl	__ZN4core3ptr142drop_in_place$LT$hashbrown..map..HashMap$LT$epaint..TextureId$C$glow..native..NativeTexture$C$std..collections..hash..map..RandomState$GT$$GT$17h8494f3fa7b373c2dE
	.p2align	4, 0x90
__ZN4core3ptr142drop_in_place$LT$hashbrown..map..HashMap$LT$epaint..TextureId$C$glow..native..NativeTexture$C$std..collections..hash..map..RandomState$GT$$GT$17h8494f3fa7b373c2dE:
Lfunc_begin89:
	.loc	10 490 0
	.cfi_startproc
	pushq	%rbp
	.cfi_def_cfa_offset 16
	.cfi_offset %rbp, -16
	movq	%rsp, %rbp
	.cfi_def_cfa_register %rbp
	subq	$16, %rsp
	movq	%rdi, -8(%rbp)
Ltmp575:
	.loc	10 490 1 prologue_end
	callq	__ZN4core3ptr108drop_in_place$LT$hashbrown..raw..RawTable$LT$$LP$epaint..TextureId$C$glow..native..NativeTexture$RP$$GT$$GT$17h1aa5b82690a17b93E
	addq	$16, %rsp
	popq	%rbp
	retq
Ltmp576:
Lfunc_end89:
	.cfi_endproc

	.globl	__ZN4core3ptr14read_unaligned17ha256bed972327a59E
	.p2align	4, 0x90
__ZN4core3ptr14read_unaligned17ha256bed972327a59E:
Lfunc_begin90:
	.loc	10 1241 0
	.cfi_startproc
	pushq	%rbp
	.cfi_def_cfa_offset 16
	.cfi_offset %rbp, -16
	movq	%rsp, %rbp
	.cfi_def_cfa_register %rbp
	subq	$72, %rsp
	movq	%rdi, -40(%rbp)
Ltmp577:
	.loc	10 1250 29 prologue_end
	movq	%rdi, -32(%rbp)
	.loc	10 1250 47 is_stmt 0
	leaq	-64(%rbp), %rax
	movq	%rax, -24(%rbp)
	leaq	-64(%rbp), %rax
	movq	%rax, -16(%rbp)
Ltmp578:
	.loc	41 309 5 is_stmt 1
	movq	$4, -8(%rbp)
Ltmp579:
	.file	46 "/rustc/2c8cc343237b8f7d5a3c3703e3a87f2eb2c54a74/library/core/src" "intrinsics.rs"
	.loc	46 2372 9
	movl	(%rdi), %eax
	movl	%eax, -64(%rbp)
Ltmp580:
	.loc	10 1251 9
	movl	-64(%rbp), %eax
	movl	%eax, -56(%rbp)
Ltmp581:
	.loc	42 627 38
	movl	-56(%rbp), %eax
	movl	%eax, -48(%rbp)
Ltmp582:
	.loc	43 89 9
	movl	-48(%rbp), %eax
	movl	%eax, -68(%rbp)
Ltmp583:
	.loc	10 1253 2
	movl	-68(%rbp), %eax
	addq	$72, %rsp
	popq	%rbp
	retq
Ltmp584:
Lfunc_end90:
	.cfi_endproc

	.p2align	4, 0x90
__ZN4core3ptr285drop_in_place$LT$hashbrown..raw..RawTable$LT$$LP$epaint..TextureId$C$glow..native..NativeTexture$RP$$GT$..find$LT$hashbrown..map..equivalent_key$LT$epaint..TextureId$C$epaint..TextureId$C$glow..native..NativeTexture$GT$..$u7b$$u7b$closure$u7d$$u7d$$GT$..$u7b$$u7b$closure$u7d$$u7d$$GT$17hae489638323c928aE:
Lfunc_begin91:
	.loc	10 490 0
	.cfi_startproc
	pushq	%rbp
	.cfi_def_cfa_offset 16
	.cfi_offset %rbp, -16
	movq	%rsp, %rbp
	.cfi_def_cfa_register %rbp
	pushq	%rax
	movq	%rdi, -8(%rbp)
Ltmp585:
	.loc	10 490 1 prologue_end
	addq	$8, %rsp
	popq	%rbp
	retq
Ltmp586:
Lfunc_end91:
	.cfi_endproc

	.p2align	4, 0x90
__ZN4core3ptr28drop_in_place$LT$$RF$i32$GT$17h70aa9fe6d14e076dE:
Lfunc_begin92:
	.loc	10 490 0
	.cfi_startproc
	pushq	%rbp
	.cfi_def_cfa_offset 16
	.cfi_offset %rbp, -16
	movq	%rsp, %rbp
	.cfi_def_cfa_register %rbp
	pushq	%rax
	movq	%rdi, -8(%rbp)
Ltmp587:
	.loc	10 490 1 prologue_end
	addq	$8, %rsp
	popq	%rbp
	retq
Ltmp588:
Lfunc_end92:
	.cfi_endproc

	.p2align	4, 0x90
__ZN4core3ptr28drop_in_place$LT$$RF$u32$GT$17h06fe5a5b6efe0493E:
Lfunc_begin93:
	.loc	10 490 0
	.cfi_startproc
	pushq	%rbp
	.cfi_def_cfa_offset 16
	.cfi_offset %rbp, -16
	movq	%rsp, %rbp
	.cfi_def_cfa_register %rbp
	pushq	%rax
	movq	%rdi, -8(%rbp)
Ltmp589:
	.loc	10 490 1 prologue_end
	addq	$8, %rsp
	popq	%rbp
	retq
Ltmp590:
Lfunc_end93:
	.cfi_endproc

	.p2align	4, 0x90
__ZN4core3ptr29drop_in_place$LT$$RF$bool$GT$17hb1b72ee884e00b0fE:
Lfunc_begin94:
	.loc	10 490 0
	.cfi_startproc
	pushq	%rbp
	.cfi_def_cfa_offset 16
	.cfi_offset %rbp, -16
	movq	%rsp, %rbp
	.cfi_def_cfa_register %rbp
	pushq	%rax
	movq	%rdi, -8(%rbp)
Ltmp591:
	.loc	10 490 1 prologue_end
	addq	$8, %rsp
	popq	%rbp
	retq
Ltmp592:
Lfunc_end94:
	.cfi_endproc

	.globl	__ZN4core3ptr307drop_in_place$LT$core..iter..adapters..flatten..FlatMap$LT$core..iter..adapters..map..Map$LT$core..slice..iter..Iter$LT$f32$GT$$C$epaint..image..FontImage..srgba_pixels..$u7b$$u7b$closure$u7d$$u7d$$GT$$C$$u5b$u8$u3b$$u20$4$u5d$$C$egui_glow..painter..Painter..set_texture..$u7b$$u7b$closure$u7d$$u7d$$GT$$GT$17h91cb8ee8e836ca8aE
	.p2align	4, 0x90
__ZN4core3ptr307drop_in_place$LT$core..iter..adapters..flatten..FlatMap$LT$core..iter..adapters..map..Map$LT$core..slice..iter..Iter$LT$f32$GT$$C$epaint..image..FontImage..srgba_pixels..$u7b$$u7b$closure$u7d$$u7d$$GT$$C$$u5b$u8$u3b$$u20$4$u5d$$C$egui_glow..painter..Painter..set_texture..$u7b$$u7b$closure$u7d$$u7d$$GT$$GT$17h91cb8ee8e836ca8aE:
Lfunc_begin95:
	.loc	10 490 0
	.cfi_startproc
	pushq	%rbp
	.cfi_def_cfa_offset 16
	.cfi_offset %rbp, -16
	movq	%rsp, %rbp
	.cfi_def_cfa_register %rbp
	subq	$16, %rsp
	movq	%rdi, -8(%rbp)
Ltmp593:
	.loc	10 490 1 prologue_end
	callq	__ZN4core3ptr375drop_in_place$LT$core..iter..adapters..flatten..FlattenCompat$LT$core..iter..adapters..map..Map$LT$core..iter..adapters..map..Map$LT$core..slice..iter..Iter$LT$f32$GT$$C$epaint..image..FontImage..srgba_pixels..$u7b$$u7b$closure$u7d$$u7d$$GT$$C$egui_glow..painter..Painter..set_texture..$u7b$$u7b$closure$u7d$$u7d$$GT$$C$core..array..iter..IntoIter$LT$u8$C$4_usize$GT$$GT$$GT$17hd2aa108cd0e05d7bE
	addq	$16, %rsp
	popq	%rbp
	retq
Ltmp594:
Lfunc_end95:
	.cfi_endproc

	.p2align	4, 0x90
__ZN4core3ptr335drop_in_place$LT$hashbrown..raw..RawTable$LT$$LP$epaint..TextureId$C$glow..native..NativeTexture$RP$$GT$..reserve_rehash$LT$hashbrown..map..make_hasher$LT$epaint..TextureId$C$epaint..TextureId$C$glow..native..NativeTexture$C$std..collections..hash..map..RandomState$GT$..$u7b$$u7b$closure$u7d$$u7d$$GT$..$u7b$$u7b$closure$u7d$$u7d$$GT$17h7a14d71011db84eaE:
Lfunc_begin96:
	.loc	10 490 0
	.cfi_startproc
	pushq	%rbp
	.cfi_def_cfa_offset 16
	.cfi_offset %rbp, -16
	movq	%rsp, %rbp
	.cfi_def_cfa_register %rbp
	pushq	%rax
	movq	%rdi, -8(%rbp)
Ltmp595:
	.loc	10 490 1 prologue_end
	addq	$8, %rsp
	popq	%rbp
	retq
Ltmp596:
Lfunc_end96:
	.cfi_endproc

	.p2align	4, 0x90
__ZN4core3ptr355drop_in_place$LT$hashbrown..raw..RawTable$LT$$LP$epaint..TextureId$C$glow..native..NativeTexture$RP$$GT$..find$LT$hashbrown..rustc_entry..$LT$impl$u20$hashbrown..map..HashMap$LT$epaint..TextureId$C$glow..native..NativeTexture$C$std..collections..hash..map..RandomState$GT$$GT$..rustc_entry..$u7b$$u7b$closure$u7d$$u7d$$GT$..$u7b$$u7b$closure$u7d$$u7d$$GT$17h59f88ce217f5b0dfE:
Lfunc_begin97:
	.loc	10 490 0
	.cfi_startproc
	pushq	%rbp
	.cfi_def_cfa_offset 16
	.cfi_offset %rbp, -16
	movq	%rsp, %rbp
	.cfi_def_cfa_register %rbp
	pushq	%rax
	movq	%rdi, -8(%rbp)
Ltmp597:
	.loc	10 490 1 prologue_end
	addq	$8, %rsp
	popq	%rbp
	retq
Ltmp598:
Lfunc_end97:
	.cfi_endproc

	.globl	__ZN4core3ptr375drop_in_place$LT$core..iter..adapters..flatten..FlattenCompat$LT$core..iter..adapters..map..Map$LT$core..iter..adapters..map..Map$LT$core..slice..iter..Iter$LT$f32$GT$$C$epaint..image..FontImage..srgba_pixels..$u7b$$u7b$closure$u7d$$u7d$$GT$$C$egui_glow..painter..Painter..set_texture..$u7b$$u7b$closure$u7d$$u7d$$GT$$C$core..array..iter..IntoIter$LT$u8$C$4_usize$GT$$GT$$GT$17hd2aa108cd0e05d7bE
	.p2align	4, 0x90
__ZN4core3ptr375drop_in_place$LT$core..iter..adapters..flatten..FlattenCompat$LT$core..iter..adapters..map..Map$LT$core..iter..adapters..map..Map$LT$core..slice..iter..Iter$LT$f32$GT$$C$epaint..image..FontImage..srgba_pixels..$u7b$$u7b$closure$u7d$$u7d$$GT$$C$egui_glow..painter..Painter..set_texture..$u7b$$u7b$closure$u7d$$u7d$$GT$$C$core..array..iter..IntoIter$LT$u8$C$4_usize$GT$$GT$$GT$17hd2aa108cd0e05d7bE:
Lfunc_begin98:
	.loc	10 490 0
	.cfi_startproc
	.cfi_personality 155, _rust_eh_personality
	.cfi_lsda 16, Lexception13
	pushq	%rbp
	.cfi_def_cfa_offset 16
	.cfi_offset %rbp, -16
	movq	%rsp, %rbp
	.cfi_def_cfa_register %rbp
	subq	$32, %rsp
	movq	%rdi, -32(%rbp)
	movq	%rdi, -24(%rbp)
Ltmp599:
Ltmp605:
	.loc	10 490 1 prologue_end
	callq	__ZN4core3ptr96drop_in_place$LT$core..option..Option$LT$core..array..iter..IntoIter$LT$u8$C$4_usize$GT$$GT$$GT$17h7013da2af27e0b22E
Ltmp600:
	jmp	LBB98_3
LBB98_1:
	.loc	10 0 1 is_stmt 0
	movq	-32(%rbp), %rdi
	.loc	10 490 1
	addq	$32, %rdi
Ltmp602:
	callq	__ZN4core3ptr96drop_in_place$LT$core..option..Option$LT$core..array..iter..IntoIter$LT$u8$C$4_usize$GT$$GT$$GT$17h7013da2af27e0b22E
Ltmp603:
	jmp	LBB98_5
LBB98_2:
Ltmp601:
	.loc	10 0 1
	movq	%rax, %rcx
	movl	%edx, %eax
	movq	%rcx, -16(%rbp)
	movl	%eax, -8(%rbp)
	jmp	LBB98_1
LBB98_3:
	movq	-32(%rbp), %rdi
	.loc	10 490 1
	addq	$32, %rdi
	callq	__ZN4core3ptr96drop_in_place$LT$core..option..Option$LT$core..array..iter..IntoIter$LT$u8$C$4_usize$GT$$GT$$GT$17h7013da2af27e0b22E
	addq	$32, %rsp
	popq	%rbp
	retq
LBB98_4:
Ltmp604:
	callq	__ZN4core9panicking19panic_cannot_unwind17h1fbca7e1d7f56ae1E
LBB98_5:
	movq	-16(%rbp), %rdi
	callq	__Unwind_Resume
Ltmp606:
Lfunc_end98:
	.cfi_endproc
	.section	__TEXT,__gcc_except_tab
	.p2align	2
GCC_except_table98:
Lexception13:
	.byte	255
	.byte	255
	.byte	1
	.uleb128 Lcst_end13-Lcst_begin13
Lcst_begin13:
	.uleb128 Ltmp599-Lfunc_begin98
	.uleb128 Ltmp600-Ltmp599
	.uleb128 Ltmp601-Lfunc_begin98
	.byte	0
	.uleb128 Ltmp602-Lfunc_begin98
	.uleb128 Ltmp603-Ltmp602
	.uleb128 Ltmp604-Lfunc_begin98
	.byte	0
	.uleb128 Ltmp603-Lfunc_begin98
	.uleb128 Lfunc_end98-Ltmp603
	.byte	0
	.byte	0
Lcst_end13:
	.p2align	2

	.section	__TEXT,__text,regular,pure_instructions
	.globl	__ZN4core3ptr385drop_in_place$LT$alloc..vec..Vec$LT$u8$GT$..extend_trusted$LT$core..iter..adapters..flatten..FlatMap$LT$core..iter..adapters..map..Map$LT$core..slice..iter..Iter$LT$f32$GT$$C$epaint..image..FontImage..srgba_pixels..$u7b$$u7b$closure$u7d$$u7d$$GT$$C$$u5b$u8$u3b$$u20$4$u5d$$C$egui_glow..painter..Painter..set_texture..$u7b$$u7b$closure$u7d$$u7d$$GT$$GT$..$u7b$$u7b$closure$u7d$$u7d$$GT$17hc322d676e48b4c10E
	.p2align	4, 0x90
__ZN4core3ptr385drop_in_place$LT$alloc..vec..Vec$LT$u8$GT$..extend_trusted$LT$core..iter..adapters..flatten..FlatMap$LT$core..iter..adapters..map..Map$LT$core..slice..iter..Iter$LT$f32$GT$$C$epaint..image..FontImage..srgba_pixels..$u7b$$u7b$closure$u7d$$u7d$$GT$$C$$u5b$u8$u3b$$u20$4$u5d$$C$egui_glow..painter..Painter..set_texture..$u7b$$u7b$closure$u7d$$u7d$$GT$$GT$..$u7b$$u7b$closure$u7d$$u7d$$GT$17hc322d676e48b4c10E:
Lfunc_begin99:
	.loc	10 490 0 is_stmt 1
	.cfi_startproc
	pushq	%rbp
	.cfi_def_cfa_offset 16
	.cfi_offset %rbp, -16
	movq	%rsp, %rbp
	.cfi_def_cfa_register %rbp
	subq	$16, %rsp
	movq	%rdi, -8(%rbp)
Ltmp607:
	.loc	10 490 1 prologue_end
	callq	__ZN4core3ptr62drop_in_place$LT$alloc..vec..set_len_on_drop..SetLenOnDrop$GT$17ha1222b58a5c6fd84E
	addq	$16, %rsp
	popq	%rbp
	retq
Ltmp608:
Lfunc_end99:
	.cfi_endproc

	.p2align	4, 0x90
__ZN4core3ptr41drop_in_place$LT$core..fmt..Arguments$GT$17hb14da12755d6df95E:
Lfunc_begin100:
	.loc	10 490 0
	.cfi_startproc
	pushq	%rbp
	.cfi_def_cfa_offset 16
	.cfi_offset %rbp, -16
	movq	%rsp, %rbp
	.cfi_def_cfa_register %rbp
	pushq	%rax
	movq	%rdi, -8(%rbp)
Ltmp609:
	.loc	10 490 1 prologue_end
	addq	$8, %rsp
	popq	%rbp
	retq
Ltmp610:
Lfunc_end100:
	.cfi_endproc

	.globl	__ZN4core3ptr42drop_in_place$LT$glow..native..Context$GT$17hbfbc84a36a870aedE
	.p2align	4, 0x90
__ZN4core3ptr42drop_in_place$LT$glow..native..Context$GT$17hbfbc84a36a870aedE:
Lfunc_begin101:
	.loc	10 490 0
	.cfi_startproc
	.cfi_personality 155, _rust_eh_personality
	.cfi_lsda 16, Lexception14
	pushq	%rbp
	.cfi_def_cfa_offset 16
	.cfi_offset %rbp, -16
	movq	%rsp, %rbp
	.cfi_def_cfa_register %rbp
	subq	$32, %rsp
	movq	%rdi, -32(%rbp)
	movq	%rdi, -24(%rbp)
Ltmp617:
	.loc	10 490 1 prologue_end
	addq	$5376, %rdi
Ltmp611:
	callq	__ZN4core3ptr86drop_in_place$LT$std..collections..hash..set..HashSet$LT$alloc..string..String$GT$$GT$17h8fb4f370839266b4E
Ltmp612:
	jmp	LBB101_3
LBB101_1:
	.loc	10 0 1 is_stmt 0
	movq	-32(%rbp), %rdi
	.loc	10 490 1
	addq	$5424, %rdi
Ltmp614:
	callq	__ZN4core3ptr43drop_in_place$LT$glow..version..Version$GT$17h966ff99ae6d1e68aE
Ltmp615:
	jmp	LBB101_5
LBB101_2:
Ltmp613:
	.loc	10 0 1
	movq	%rax, %rcx
	movl	%edx, %eax
	movq	%rcx, -16(%rbp)
	movl	%eax, -8(%rbp)
	jmp	LBB101_1
LBB101_3:
	movq	-32(%rbp), %rdi
	.loc	10 490 1
	addq	$5424, %rdi
	callq	__ZN4core3ptr43drop_in_place$LT$glow..version..Version$GT$17h966ff99ae6d1e68aE
	addq	$32, %rsp
	popq	%rbp
	retq
LBB101_4:
Ltmp616:
	callq	__ZN4core9panicking19panic_cannot_unwind17h1fbca7e1d7f56ae1E
LBB101_5:
	movq	-16(%rbp), %rdi
	callq	__Unwind_Resume
Ltmp618:
Lfunc_end101:
	.cfi_endproc
	.section	__TEXT,__gcc_except_tab
	.p2align	2
GCC_except_table101:
Lexception14:
	.byte	255
	.byte	255
	.byte	1
	.uleb128 Lcst_end14-Lcst_begin14
Lcst_begin14:
	.uleb128 Ltmp611-Lfunc_begin101
	.uleb128 Ltmp612-Ltmp611
	.uleb128 Ltmp613-Lfunc_begin101
	.byte	0
	.uleb128 Ltmp614-Lfunc_begin101
	.uleb128 Ltmp615-Ltmp614
	.uleb128 Ltmp616-Lfunc_begin101
	.byte	0
	.uleb128 Ltmp615-Lfunc_begin101
	.uleb128 Lfunc_end101-Ltmp615
	.byte	0
	.byte	0
Lcst_end14:
	.p2align	2

	.section	__TEXT,__text,regular,pure_instructions
	.globl	__ZN4core3ptr43drop_in_place$LT$glow..version..Version$GT$17h966ff99ae6d1e68aE
	.p2align	4, 0x90
__ZN4core3ptr43drop_in_place$LT$glow..version..Version$GT$17h966ff99ae6d1e68aE:
Lfunc_begin102:
	.loc	10 490 0 is_stmt 1
	.cfi_startproc
	pushq	%rbp
	.cfi_def_cfa_offset 16
	.cfi_offset %rbp, -16
	movq	%rsp, %rbp
	.cfi_def_cfa_register %rbp
	subq	$16, %rsp
	movq	%rdi, -8(%rbp)
Ltmp619:
	.loc	10 490 1 prologue_end
	callq	__ZN4core3ptr42drop_in_place$LT$alloc..string..String$GT$17h30e43f821efcc218E
	addq	$16, %rsp
	popq	%rbp
	retq
Ltmp620:
Lfunc_end102:
	.cfi_endproc

	.p2align	4, 0x90
__ZN4core3ptr46drop_in_place$LT$$RF$alloc..string..String$GT$17h567bda23c260583eE:
Lfunc_begin103:
	.loc	10 490 0
	.cfi_startproc
	pushq	%rbp
	.cfi_def_cfa_offset 16
	.cfi_offset %rbp, -16
	movq	%rsp, %rbp
	.cfi_def_cfa_register %rbp
	pushq	%rax
	movq	%rdi, -8(%rbp)
Ltmp621:
	.loc	10 490 1 prologue_end
	addq	$8, %rsp
	popq	%rbp
	retq
Ltmp622:
Lfunc_end103:
	.cfi_endproc

	.globl	__ZN4core3ptr481drop_in_place$LT$core..iter..traits..iterator..Iterator..for_each..call$LT$u8$C$alloc..vec..Vec$LT$u8$GT$..extend_trusted$LT$core..iter..adapters..flatten..FlatMap$LT$core..iter..adapters..map..Map$LT$core..slice..iter..Iter$LT$f32$GT$$C$epaint..image..FontImage..srgba_pixels..$u7b$$u7b$closure$u7d$$u7d$$GT$$C$$u5b$u8$u3b$$u20$4$u5d$$C$egui_glow..painter..Painter..set_texture..$u7b$$u7b$closure$u7d$$u7d$$GT$$GT$..$u7b$$u7b$closure$u7d$$u7d$$GT$..$u7b$$u7b$closure$u7d$$u7d$$GT$17h979cfe8623729b6cE
	.p2align	4, 0x90
__ZN4core3ptr481drop_in_place$LT$core..iter..traits..iterator..Iterator..for_each..call$LT$u8$C$alloc..vec..Vec$LT$u8$GT$..extend_trusted$LT$core..iter..adapters..flatten..FlatMap$LT$core..iter..adapters..map..Map$LT$core..slice..iter..Iter$LT$f32$GT$$C$epaint..image..FontImage..srgba_pixels..$u7b$$u7b$closure$u7d$$u7d$$GT$$C$$u5b$u8$u3b$$u20$4$u5d$$C$egui_glow..painter..Painter..set_texture..$u7b$$u7b$closure$u7d$$u7d$$GT$$GT$..$u7b$$u7b$closure$u7d$$u7d$$GT$..$u7b$$u7b$closure$u7d$$u7d$$GT$17h979cfe8623729b6cE:
Lfunc_begin104:
	.loc	10 490 0
	.cfi_startproc
	pushq	%rbp
	.cfi_def_cfa_offset 16
	.cfi_offset %rbp, -16
	movq	%rsp, %rbp
	.cfi_def_cfa_register %rbp
	subq	$16, %rsp
	movq	%rdi, -8(%rbp)
Ltmp623:
	.loc	10 490 1 prologue_end
	callq	__ZN4core3ptr385drop_in_place$LT$alloc..vec..Vec$LT$u8$GT$..extend_trusted$LT$core..iter..adapters..flatten..FlatMap$LT$core..iter..adapters..map..Map$LT$core..slice..iter..Iter$LT$f32$GT$$C$epaint..image..FontImage..srgba_pixels..$u7b$$u7b$closure$u7d$$u7d$$GT$$C$$u5b$u8$u3b$$u20$4$u5d$$C$egui_glow..painter..Painter..set_texture..$u7b$$u7b$closure$u7d$$u7d$$GT$$GT$..$u7b$$u7b$closure$u7d$$u7d$$GT$17hc322d676e48b4c10E
	addq	$16, %rsp
	popq	%rbp
	retq
Ltmp624:
Lfunc_end104:
	.cfi_endproc

	.globl	__ZN4core3ptr54drop_in_place$LT$egui_glow..vao..VertexArrayObject$GT$17hca9296c845f313faE
	.p2align	4, 0x90
__ZN4core3ptr54drop_in_place$LT$egui_glow..vao..VertexArrayObject$GT$17hca9296c845f313faE:
Lfunc_begin105:
	.loc	10 490 0
	.cfi_startproc
	pushq	%rbp
	.cfi_def_cfa_offset 16
	.cfi_offset %rbp, -16
	movq	%rsp, %rbp
	.cfi_def_cfa_register %rbp
	subq	$16, %rsp
	movq	%rdi, -8(%rbp)
Ltmp625:
	.loc	10 490 1 prologue_end
	callq	__ZN4core3ptr70drop_in_place$LT$alloc..vec..Vec$LT$egui_glow..vao..BufferInfo$GT$$GT$17hdde0b3cc712e8ffbE
	addq	$16, %rsp
	popq	%rbp
	retq
Ltmp626:
Lfunc_end105:
	.cfi_endproc

	.globl	__ZN4core3ptr57drop_in_place$LT$egui_glow..post_process..PostProcess$GT$17h8e086994aa1a8aeaE
	.p2align	4, 0x90
__ZN4core3ptr57drop_in_place$LT$egui_glow..post_process..PostProcess$GT$17h8e086994aa1a8aeaE:
Lfunc_begin106:
	.loc	10 490 0
	.cfi_startproc
	.cfi_personality 155, _rust_eh_personality
	.cfi_lsda 16, Lexception15
	pushq	%rbp
	.cfi_def_cfa_offset 16
	.cfi_offset %rbp, -16
	movq	%rsp, %rbp
	.cfi_def_cfa_register %rbp
	subq	$32, %rsp
	movq	%rdi, -32(%rbp)
	movq	%rdi, -24(%rbp)
Ltmp633:
	.loc	10 490 1 prologue_end
	addq	$40, %rdi
Ltmp627:
	callq	__ZN4core3ptr66drop_in_place$LT$alloc..sync..Arc$LT$glow..native..Context$GT$$GT$17hbc7d0e4a71da8695E
Ltmp628:
	jmp	LBB106_3
LBB106_1:
Ltmp630:
	.loc	10 0 1 is_stmt 0
	movq	-32(%rbp), %rdi
	.loc	10 490 1
	callq	__ZN4core3ptr54drop_in_place$LT$egui_glow..vao..VertexArrayObject$GT$17hca9296c845f313faE
Ltmp631:
	jmp	LBB106_5
LBB106_2:
Ltmp629:
	.loc	10 0 1
	movq	%rax, %rcx
	movl	%edx, %eax
	movq	%rcx, -16(%rbp)
	movl	%eax, -8(%rbp)
	jmp	LBB106_1
LBB106_3:
	movq	-32(%rbp), %rdi
	.loc	10 490 1
	callq	__ZN4core3ptr54drop_in_place$LT$egui_glow..vao..VertexArrayObject$GT$17hca9296c845f313faE
	addq	$32, %rsp
	popq	%rbp
	retq
LBB106_4:
Ltmp632:
	callq	__ZN4core9panicking19panic_cannot_unwind17h1fbca7e1d7f56ae1E
LBB106_5:
	movq	-16(%rbp), %rdi
	callq	__Unwind_Resume
Ltmp634:
Lfunc_end106:
	.cfi_endproc
	.section	__TEXT,__gcc_except_tab
	.p2align	2
GCC_except_table106:
Lexception15:
	.byte	255
	.byte	255
	.byte	1
	.uleb128 Lcst_end15-Lcst_begin15
Lcst_begin15:
	.uleb128 Ltmp627-Lfunc_begin106
	.uleb128 Ltmp628-Ltmp627
	.uleb128 Ltmp629-Lfunc_begin106
	.byte	0
	.uleb128 Ltmp630-Lfunc_begin106
	.uleb128 Ltmp631-Ltmp630
	.uleb128 Ltmp632-Lfunc_begin106
	.byte	0
	.uleb128 Ltmp631-Lfunc_begin106
	.uleb128 Lfunc_end106-Ltmp631
	.byte	0
	.byte	0
Lcst_end15:
	.p2align	2

	.section	__TEXT,__text,regular,pure_instructions
	.globl	__ZN4core3ptr59drop_in_place$LT$alloc..boxed..Box$LT$$u5b$f32$u5d$$GT$$GT$17h027da6d0ab9f1a1fE
	.p2align	4, 0x90
__ZN4core3ptr59drop_in_place$LT$alloc..boxed..Box$LT$$u5b$f32$u5d$$GT$$GT$17h027da6d0ab9f1a1fE:
Lfunc_begin107:
	.loc	10 490 0 is_stmt 1
	.cfi_startproc
	pushq	%rbp
	.cfi_def_cfa_offset 16
	.cfi_offset %rbp, -16
	movq	%rsp, %rbp
	.cfi_def_cfa_register %rbp
	subq	$32, %rsp
	movq	%rdi, -32(%rbp)
	movq	%rdi, -24(%rbp)
	movq	-32(%rbp), %rax
Ltmp635:
	.loc	10 490 1 prologue_end
	movq	(%rax), %rdi
	movq	8(%rax), %rsi
	callq	__ZN5alloc5alloc8box_free17he8375fdbfd3ee85eE
	addq	$32, %rsp
	popq	%rbp
	retq
Ltmp636:
Lfunc_end107:
	.cfi_endproc

	.p2align	4, 0x90
__ZN4core3ptr60drop_in_place$LT$tracing_core..callsite..DefaultCallsite$GT$17h8b09084dd4704d9bE:
Lfunc_begin108:
	.loc	10 490 0
	.cfi_startproc
	pushq	%rbp
	.cfi_def_cfa_offset 16
	.cfi_offset %rbp, -16
	movq	%rsp, %rbp
	.cfi_def_cfa_register %rbp
	pushq	%rax
	movq	%rdi, -8(%rbp)
Ltmp637:
	.loc	10 490 1 prologue_end
	addq	$8, %rsp
	popq	%rbp
	retq
Ltmp638:
Lfunc_end108:
	.cfi_endproc

	.globl	__ZN4core3ptr66drop_in_place$LT$alloc..sync..Arc$LT$glow..native..Context$GT$$GT$17hbc7d0e4a71da8695E
	.p2align	4, 0x90
__ZN4core3ptr66drop_in_place$LT$alloc..sync..Arc$LT$glow..native..Context$GT$$GT$17hbc7d0e4a71da8695E:
Lfunc_begin109:
	.loc	10 490 0
	.cfi_startproc
	pushq	%rbp
	.cfi_def_cfa_offset 16
	.cfi_offset %rbp, -16
	movq	%rsp, %rbp
	.cfi_def_cfa_register %rbp
	subq	$16, %rsp
	movq	%rdi, -8(%rbp)
Ltmp639:
	.loc	10 490 1 prologue_end
	callq	__ZN67_$LT$alloc..sync..Arc$LT$T$GT$$u20$as$u20$core..ops..drop..Drop$GT$4drop17h9944ea44eb40bc8aE
	addq	$16, %rsp
	popq	%rbp
	retq
Ltmp640:
Lfunc_end109:
	.cfi_endproc

	.globl	__ZN4core3ptr67drop_in_place$LT$alloc..sync..Weak$LT$glow..native..Context$GT$$GT$17h75f952d4c216c03cE
	.p2align	4, 0x90
__ZN4core3ptr67drop_in_place$LT$alloc..sync..Weak$LT$glow..native..Context$GT$$GT$17h75f952d4c216c03cE:
Lfunc_begin110:
	.loc	10 490 0
	.cfi_startproc
	pushq	%rbp
	.cfi_def_cfa_offset 16
	.cfi_offset %rbp, -16
	movq	%rsp, %rbp
	.cfi_def_cfa_register %rbp
	subq	$16, %rsp
	movq	%rdi, -8(%rbp)
Ltmp641:
	.loc	10 490 1 prologue_end
	callq	__ZN68_$LT$alloc..sync..Weak$LT$T$GT$$u20$as$u20$core..ops..drop..Drop$GT$4drop17hdf2eade0dc6bf58dE
	addq	$16, %rsp
	popq	%rbp
	retq
Ltmp642:
Lfunc_end110:
	.cfi_endproc

	.globl	__ZN4core3ptr68drop_in_place$LT$core..array..iter..IntoIter$LT$u8$C$4_usize$GT$$GT$17hcabb7c83e54620d4E
	.p2align	4, 0x90
__ZN4core3ptr68drop_in_place$LT$core..array..iter..IntoIter$LT$u8$C$4_usize$GT$$GT$17hcabb7c83e54620d4E:
Lfunc_begin111:
	.loc	10 490 0
	.cfi_startproc
	pushq	%rbp
	.cfi_def_cfa_offset 16
	.cfi_offset %rbp, -16
	movq	%rsp, %rbp
	.cfi_def_cfa_register %rbp
	subq	$16, %rsp
	movq	%rdi, -8(%rbp)
Ltmp643:
	.loc	10 490 1 prologue_end
	callq	__ZN82_$LT$core..array..iter..IntoIter$LT$T$C$_$GT$$u20$as$u20$core..ops..drop..Drop$GT$4drop17hb2cf930a02ebc31fE
	addq	$16, %rsp
	popq	%rbp
	retq
Ltmp644:
Lfunc_end111:
	.cfi_endproc

	.globl	__ZN4core3ptr709drop_in_place$LT$$LT$core..iter..adapters..flatten..FlattenCompat$LT$I$C$U$GT$$u20$as$u20$core..iter..traits..iterator..Iterator$GT$..fold..flatten$LT$core..array..iter..IntoIter$LT$u8$C$4_usize$GT$$C$$LP$$RP$$C$core..iter..traits..iterator..Iterator..for_each..call$LT$u8$C$alloc..vec..Vec$LT$u8$GT$..extend_trusted$LT$core..iter..adapters..flatten..FlatMap$LT$core..iter..adapters..map..Map$LT$core..slice..iter..Iter$LT$f32$GT$$C$epaint..image..FontImage..srgba_pixels..$u7b$$u7b$closure$u7d$$u7d$$GT$$C$$u5b$u8$u3b$$u20$4$u5d$$C$egui_glow..painter..Painter..set_texture..$u7b$$u7b$closure$u7d$$u7d$$GT$$GT$..$u7b$$u7b$closure$u7d$$u7d$$GT$..$u7b$$u7b$closure$u7d$$u7d$$GT$..$u7b$$u7b$closure$u7d$$u7d$$GT$17hf77fe11757d4dd3bE
	.p2align	4, 0x90
__ZN4core3ptr709drop_in_place$LT$$LT$core..iter..adapters..flatten..FlattenCompat$LT$I$C$U$GT$$u20$as$u20$core..iter..traits..iterator..Iterator$GT$..fold..flatten$LT$core..array..iter..IntoIter$LT$u8$C$4_usize$GT$$C$$LP$$RP$$C$core..iter..traits..iterator..Iterator..for_each..call$LT$u8$C$alloc..vec..Vec$LT$u8$GT$..extend_trusted$LT$core..iter..adapters..flatten..FlatMap$LT$core..iter..adapters..map..Map$LT$core..slice..iter..Iter$LT$f32$GT$$C$epaint..image..FontImage..srgba_pixels..$u7b$$u7b$closure$u7d$$u7d$$GT$$C$$u5b$u8$u3b$$u20$4$u5d$$C$egui_glow..painter..Painter..set_texture..$u7b$$u7b$closure$u7d$$u7d$$GT$$GT$..$u7b$$u7b$closure$u7d$$u7d$$GT$..$u7b$$u7b$closure$u7d$$u7d$$GT$..$u7b$$u7b$closure$u7d$$u7d$$GT$17hf77fe11757d4dd3bE:
Lfunc_begin112:
	.loc	10 490 0
	.cfi_startproc
	pushq	%rbp
	.cfi_def_cfa_offset 16
	.cfi_offset %rbp, -16
	movq	%rsp, %rbp
	.cfi_def_cfa_register %rbp
	subq	$16, %rsp
	movq	%rdi, -8(%rbp)
Ltmp645:
	.loc	10 490 1 prologue_end
	callq	__ZN4core3ptr481drop_in_place$LT$core..iter..traits..iterator..Iterator..for_each..call$LT$u8$C$alloc..vec..Vec$LT$u8$GT$..extend_trusted$LT$core..iter..adapters..flatten..FlatMap$LT$core..iter..adapters..map..Map$LT$core..slice..iter..Iter$LT$f32$GT$$C$epaint..image..FontImage..srgba_pixels..$u7b$$u7b$closure$u7d$$u7d$$GT$$C$$u5b$u8$u3b$$u20$4$u5d$$C$egui_glow..painter..Painter..set_texture..$u7b$$u7b$closure$u7d$$u7d$$GT$$GT$..$u7b$$u7b$closure$u7d$$u7d$$GT$..$u7b$$u7b$closure$u7d$$u7d$$GT$17h979cfe8623729b6cE
	addq	$16, %rsp
	popq	%rbp
	retq
Ltmp646:
Lfunc_end112:
	.cfi_endproc

	.globl	__ZN4core3ptr70drop_in_place$LT$alloc..vec..Vec$LT$egui_glow..vao..BufferInfo$GT$$GT$17hdde0b3cc712e8ffbE
	.p2align	4, 0x90
__ZN4core3ptr70drop_in_place$LT$alloc..vec..Vec$LT$egui_glow..vao..BufferInfo$GT$$GT$17hdde0b3cc712e8ffbE:
Lfunc_begin113:
	.loc	10 490 0
	.cfi_startproc
	.cfi_personality 155, _rust_eh_personality
	.cfi_lsda 16, Lexception16
	pushq	%rbp
	.cfi_def_cfa_offset 16
	.cfi_offset %rbp, -16
	movq	%rsp, %rbp
	.cfi_def_cfa_register %rbp
	subq	$32, %rsp
	movq	%rdi, -32(%rbp)
	movq	%rdi, -24(%rbp)
Ltmp647:
Ltmp653:
	.loc	10 490 1 prologue_end
	callq	__ZN70_$LT$alloc..vec..Vec$LT$T$C$A$GT$$u20$as$u20$core..ops..drop..Drop$GT$4drop17h589b47257d0cedeeE
Ltmp648:
	jmp	LBB113_3
LBB113_1:
Ltmp650:
	.loc	10 0 1 is_stmt 0
	movq	-32(%rbp), %rdi
	.loc	10 490 1
	callq	__ZN4core3ptr77drop_in_place$LT$alloc..raw_vec..RawVec$LT$egui_glow..vao..BufferInfo$GT$$GT$17he18ae5a549463f28E
Ltmp651:
	jmp	LBB113_5
LBB113_2:
Ltmp649:
	.loc	10 0 1
	movq	%rax, %rcx
	movl	%edx, %eax
	movq	%rcx, -16(%rbp)
	movl	%eax, -8(%rbp)
	jmp	LBB113_1
LBB113_3:
	movq	-32(%rbp), %rdi
	.loc	10 490 1
	callq	__ZN4core3ptr77drop_in_place$LT$alloc..raw_vec..RawVec$LT$egui_glow..vao..BufferInfo$GT$$GT$17he18ae5a549463f28E
	addq	$32, %rsp
	popq	%rbp
	retq
LBB113_4:
Ltmp652:
	callq	__ZN4core9panicking19panic_cannot_unwind17h1fbca7e1d7f56ae1E
LBB113_5:
	movq	-16(%rbp), %rdi
	callq	__Unwind_Resume
Ltmp654:
Lfunc_end113:
	.cfi_endproc
	.section	__TEXT,__gcc_except_tab
	.p2align	2
GCC_except_table113:
Lexception16:
	.byte	255
	.byte	255
	.byte	1
	.uleb128 Lcst_end16-Lcst_begin16
Lcst_begin16:
	.uleb128 Ltmp647-Lfunc_begin113
	.uleb128 Ltmp648-Ltmp647
	.uleb128 Ltmp649-Lfunc_begin113
	.byte	0
	.uleb128 Ltmp650-Lfunc_begin113
	.uleb128 Ltmp651-Ltmp650
	.uleb128 Ltmp652-Lfunc_begin113
	.byte	0
	.uleb128 Ltmp651-Lfunc_begin113
	.uleb128 Lfunc_end113-Ltmp651
	.byte	0
	.byte	0
Lcst_end16:
	.p2align	2

	.section	__TEXT,__text,regular,pure_instructions
	.p2align	4, 0x90
__ZN4core3ptr76drop_in_place$LT$$LP$epaint..TextureId$C$glow..native..NativeTexture$RP$$GT$17h7448aec0202a3107E:
Lfunc_begin114:
	.loc	10 490 0 is_stmt 1
	.cfi_startproc
	pushq	%rbp
	.cfi_def_cfa_offset 16
	.cfi_offset %rbp, -16
	movq	%rsp, %rbp
	.cfi_def_cfa_register %rbp
	pushq	%rax
	movq	%rdi, -8(%rbp)
Ltmp655:
	.loc	10 490 1 prologue_end
	addq	$8, %rsp
	popq	%rbp
	retq
Ltmp656:
Lfunc_end114:
	.cfi_endproc

	.globl	__ZN4core3ptr77drop_in_place$LT$alloc..raw_vec..RawVec$LT$egui_glow..vao..BufferInfo$GT$$GT$17he18ae5a549463f28E
	.p2align	4, 0x90
__ZN4core3ptr77drop_in_place$LT$alloc..raw_vec..RawVec$LT$egui_glow..vao..BufferInfo$GT$$GT$17he18ae5a549463f28E:
Lfunc_begin115:
	.loc	10 490 0
	.cfi_startproc
	pushq	%rbp
	.cfi_def_cfa_offset 16
	.cfi_offset %rbp, -16
	movq	%rsp, %rbp
	.cfi_def_cfa_register %rbp
	subq	$16, %rsp
	movq	%rdi, -8(%rbp)
Ltmp657:
	.loc	10 490 1 prologue_end
	callq	__ZN77_$LT$alloc..raw_vec..RawVec$LT$T$C$A$GT$$u20$as$u20$core..ops..drop..Drop$GT$4drop17hb6df8c36c5e1e675E
	addq	$16, %rsp
	popq	%rbp
	retq
Ltmp658:
Lfunc_end115:
	.cfi_endproc

	.globl	__ZN4core3ptr82drop_in_place$LT$alloc..boxed..Box$LT$$u5b$egui_glow..vao..BufferInfo$u5d$$GT$$GT$17hd3e707af175085b8E
	.p2align	4, 0x90
__ZN4core3ptr82drop_in_place$LT$alloc..boxed..Box$LT$$u5b$egui_glow..vao..BufferInfo$u5d$$GT$$GT$17hd3e707af175085b8E:
Lfunc_begin116:
	.loc	10 490 0
	.cfi_startproc
	pushq	%rbp
	.cfi_def_cfa_offset 16
	.cfi_offset %rbp, -16
	movq	%rsp, %rbp
	.cfi_def_cfa_register %rbp
	subq	$32, %rsp
	movq	%rdi, -32(%rbp)
	movq	%rdi, -24(%rbp)
	movq	-32(%rbp), %rax
Ltmp659:
	.loc	10 490 1 prologue_end
	movq	(%rax), %rdi
	movq	8(%rax), %rsi
	callq	__ZN5alloc5alloc8box_free17h9c64fb3a95a87a5dE
	addq	$32, %rsp
	popq	%rbp
	retq
Ltmp660:
Lfunc_end116:
	.cfi_endproc

	.globl	__ZN4core3ptr85drop_in_place$LT$core..option..Option$LT$egui_glow..post_process..PostProcess$GT$$GT$17h415ba65da186b865E
	.p2align	4, 0x90
__ZN4core3ptr85drop_in_place$LT$core..option..Option$LT$egui_glow..post_process..PostProcess$GT$$GT$17h415ba65da186b865E:
Lfunc_begin117:
	.loc	10 490 0
	.cfi_startproc
	pushq	%rbp
	.cfi_def_cfa_offset 16
	.cfi_offset %rbp, -16
	movq	%rsp, %rbp
	.cfi_def_cfa_register %rbp
	subq	$16, %rsp
	movq	%rdi, -16(%rbp)
	movq	%rdi, -8(%rbp)
Ltmp661:
	.loc	10 490 1 prologue_end
	movl	$1, %eax
	xorl	%ecx, %ecx
	cmpb	$2, 68(%rdi)
	cmoveq	%rcx, %rax
	cmpq	$0, %rax
	jne	LBB117_2
LBB117_1:
	addq	$16, %rsp
	popq	%rbp
	retq
LBB117_2:
	.loc	10 0 1 is_stmt 0
	movq	-16(%rbp), %rdi
	.loc	10 490 1
	callq	__ZN4core3ptr57drop_in_place$LT$egui_glow..post_process..PostProcess$GT$17h8e086994aa1a8aeaE
	jmp	LBB117_1
Ltmp662:
Lfunc_end117:
	.cfi_endproc

	.globl	__ZN4core3ptr86drop_in_place$LT$std..collections..hash..set..HashSet$LT$alloc..string..String$GT$$GT$17h8fb4f370839266b4E
	.p2align	4, 0x90
__ZN4core3ptr86drop_in_place$LT$std..collections..hash..set..HashSet$LT$alloc..string..String$GT$$GT$17h8fb4f370839266b4E:
Lfunc_begin118:
	.loc	10 490 0 is_stmt 1
	.cfi_startproc
	pushq	%rbp
	.cfi_def_cfa_offset 16
	.cfi_offset %rbp, -16
	movq	%rsp, %rbp
	.cfi_def_cfa_register %rbp
	subq	$16, %rsp
	movq	%rdi, -8(%rbp)
Ltmp663:
	.loc	10 490 1 prologue_end
	callq	__ZN4core3ptr116drop_in_place$LT$hashbrown..set..HashSet$LT$alloc..string..String$C$std..collections..hash..map..RandomState$GT$$GT$17h5ab902bb53e0715eE
	addq	$16, %rsp
	popq	%rbp
	retq
Ltmp664:
Lfunc_end118:
	.cfi_endproc

	.globl	__ZN4core3ptr96drop_in_place$LT$core..option..Option$LT$core..array..iter..IntoIter$LT$u8$C$4_usize$GT$$GT$$GT$17h7013da2af27e0b22E
	.p2align	4, 0x90
__ZN4core3ptr96drop_in_place$LT$core..option..Option$LT$core..array..iter..IntoIter$LT$u8$C$4_usize$GT$$GT$$GT$17h7013da2af27e0b22E:
Lfunc_begin119:
	.loc	10 490 0
	.cfi_startproc
	pushq	%rbp
	.cfi_def_cfa_offset 16
	.cfi_offset %rbp, -16
	movq	%rsp, %rbp
	.cfi_def_cfa_register %rbp
	subq	$16, %rsp
	movq	%rdi, -16(%rbp)
	movq	%rdi, -8(%rbp)
Ltmp665:
	.loc	10 490 1 prologue_end
	cmpq	$0, (%rdi)
	jne	LBB119_2
LBB119_1:
	addq	$16, %rsp
	popq	%rbp
	retq
LBB119_2:
	.loc	10 0 1 is_stmt 0
	movq	-16(%rbp), %rdi
	.loc	10 490 1
	addq	$8, %rdi
	callq	__ZN4core3ptr68drop_in_place$LT$core..array..iter..IntoIter$LT$u8$C$4_usize$GT$$GT$17hcabb7c83e54620d4E
	jmp	LBB119_1
Ltmp666:
Lfunc_end119:
	.cfi_endproc

	.globl	__ZN4core3ptr9const_ptr33_$LT$impl$u20$$BP$const$u20$T$GT$11offset_from17he32ce506604c6361E
	.p2align	4, 0x90
__ZN4core3ptr9const_ptr33_$LT$impl$u20$$BP$const$u20$T$GT$11offset_from17he32ce506604c6361E:
Lfunc_begin120:
	.file	47 "/rustc/2c8cc343237b8f7d5a3c3703e3a87f2eb2c54a74/library/core/src/ptr" "const_ptr.rs"
	.loc	47 699 0 is_stmt 1
	.cfi_startproc
	pushq	%rbp
	.cfi_def_cfa_offset 16
	.cfi_offset %rbp, -16
	movq	%rsp, %rbp
	.cfi_def_cfa_register %rbp
	subq	$64, %rsp
	movq	%rdi, -56(%rbp)
	movq	%rsi, -48(%rbp)
	movq	%rdi, -32(%rbp)
	movq	%rsi, -24(%rbp)
Ltmp667:
	.loc	41 309 5 prologue_end
	movq	$24, -16(%rbp)
Ltmp668:
	.loc	47 704 17
	movb	$1, %al
	testb	$1, %al
	jne	LBB120_2
	movb	$0, -33(%rbp)
	jmp	LBB120_3
LBB120_2:
	movb	$1, -33(%rbp)
LBB120_3:
	.loc	47 704 9 is_stmt 0
	movb	-33(%rbp), %al
	xorb	$-1, %al
	testb	$1, %al
	jne	LBB120_5
	.loc	47 0 9
	movq	-48(%rbp), %rcx
	movq	-56(%rbp), %rax
	.loc	47 706 18 is_stmt 1
	subq	%rcx, %rax
	movl	$24, %ecx
	cqto
	idivq	%rcx
	movq	%rax, -8(%rbp)
	movq	-8(%rbp), %rax
Ltmp669:
	.loc	47 707 6
	addq	$64, %rsp
	popq	%rbp
	retq
LBB120_5:
Ltmp670:
	.loc	47 704 9
	leaq	l___unnamed_21(%rip), %rdi
	leaq	l___unnamed_22(%rip), %rdx
	movl	$73, %esi
	callq	__ZN4core9panicking5panic17hc1bc45270cf64b03E
Ltmp671:
Lfunc_end120:
	.cfi_endproc

	.globl	__ZN4core3str21_$LT$impl$u20$str$GT$10split_once17h19532b358ba93469E
	.p2align	4, 0x90
__ZN4core3str21_$LT$impl$u20$str$GT$10split_once17h19532b358ba93469E:
Lfunc_begin121:
	.file	48 "/rustc/2c8cc343237b8f7d5a3c3703e3a87f2eb2c54a74/library/core/src/str" "mod.rs"
	.loc	48 1657 0
	.cfi_startproc
	.cfi_personality 155, _rust_eh_personality
	.cfi_lsda 16, Lexception17
	pushq	%rbp
	.cfi_def_cfa_offset 16
	.cfi_offset %rbp, -16
	movq	%rsp, %rbp
	.cfi_def_cfa_register %rbp
	subq	$480, %rsp
	movl	%ecx, -452(%rbp)
	movq	%rdx, %rcx
	movq	%rcx, -464(%rbp)
	movq	%rsi, %rdx
	movl	-452(%rbp), %esi
	movq	%rdx, -448(%rbp)
	movq	%rdi, -440(%rbp)
	movq	%rdi, -432(%rbp)
	movq	%rdx, -240(%rbp)
	movq	%rcx, -232(%rbp)
	movl	%esi, -220(%rbp)
	leaq	-368(%rbp), %rdi
	movq	%rdi, -424(%rbp)
Ltmp675:
	.loc	48 1658 28 prologue_end
	callq	__ZN52_$LT$char$u20$as$u20$core..str..pattern..Pattern$GT$13into_searcher17hde4c4017413ea564E
	movq	-424(%rbp), %rsi
Ltmp672:
	leaq	-392(%rbp), %rdi
	callq	__ZN81_$LT$core..str..pattern..CharSearcher$u20$as$u20$core..str..pattern..Searcher$GT$10next_match17hf1d8c21803235630E
Ltmp673:
	jmp	LBB121_3
LBB121_1:
	.loc	48 1657 5
	movq	-200(%rbp), %rdi
	callq	__Unwind_Resume
LBB121_2:
Ltmp674:
	.loc	48 0 5 is_stmt 0
	movq	%rax, %rcx
	movl	%edx, %eax
	movq	%rcx, -200(%rbp)
	movl	%eax, -192(%rbp)
	jmp	LBB121_1
LBB121_3:
Ltmp676:
	.loc	25 2407 9 is_stmt 1
	cmpq	$0, -392(%rbp)
	jne	LBB121_5
	.loc	25 2409 21
	movq	$1, -416(%rbp)
	.loc	25 2409 44 is_stmt 0
	jmp	LBB121_6
LBB121_5:
	.loc	25 2408 18 is_stmt 1
	movq	-384(%rbp), %rcx
	movq	-376(%rbp), %rax
	movq	%rcx, -184(%rbp)
	movq	%rax, -176(%rbp)
Ltmp677:
	.loc	25 2408 24 is_stmt 0
	movq	%rcx, -408(%rbp)
	movq	%rax, -400(%rbp)
	movq	$0, -416(%rbp)
Ltmp678:
LBB121_6:
	.loc	48 1658 28 is_stmt 1
	cmpq	$0, -416(%rbp)
	jne	LBB121_8
	.loc	48 0 28 is_stmt 0
	movq	-464(%rbp), %rdx
	movq	-448(%rbp), %rsi
	.loc	48 1658 28
	movq	-408(%rbp), %rcx
	movq	-400(%rbp), %rax
	movq	%rcx, -168(%rbp)
	movq	%rax, -160(%rbp)
	.loc	48 1658 14
	movq	%rcx, -152(%rbp)
	.loc	48 1658 21
	movq	%rax, -144(%rbp)
Ltmp679:
	.loc	48 1660 24 is_stmt 1
	movq	%rsi, -136(%rbp)
	movq	%rdx, -128(%rbp)
	.loc	48 1660 43 is_stmt 0
	movq	%rcx, -288(%rbp)
Ltmp680:
	.loc	48 511 20 is_stmt 1
	movq	-288(%rbp), %rcx
	movq	%rcx, -120(%rbp)
	.loc	48 511 36 is_stmt 0
	movq	%rsi, -112(%rbp)
	movq	%rdx, -104(%rbp)
Ltmp681:
	.loc	22 279 21 is_stmt 1
	movq	%rsi, -96(%rbp)
	movq	%rdx, -88(%rbp)
Ltmp682:
	.loc	22 280 19
	movq	%rsi, -80(%rbp)
	movq	%rdx, -72(%rbp)
Ltmp683:
	.loc	47 1650 9
	movq	%rsi, -64(%rbp)
Ltmp684:
	.loc	22 281 35
	movq	%rsi, -56(%rbp)
	.loc	22 281 40 is_stmt 0
	movq	%rcx, -48(%rbp)
Ltmp685:
	.loc	10 734 20 is_stmt 1
	movq	%rsi, -40(%rbp)
Ltmp686:
	.loc	47 61 9
	movq	%rsi, -32(%rbp)
Ltmp687:
	.loc	10 734 33
	movq	%rcx, -24(%rbp)
Ltmp688:
	.loc	11 118 36
	movq	%rsi, -256(%rbp)
	movq	%rcx, -248(%rbp)
	.loc	11 118 14 is_stmt 0
	movq	-256(%rbp), %rdi
	movq	-248(%rbp), %rcx
	movq	%rdi, -272(%rbp)
	movq	%rcx, -264(%rbp)
	movq	-272(%rbp), %rcx
	movq	%rcx, -480(%rbp)
	movq	-264(%rbp), %rcx
	movq	%rcx, -472(%rbp)
Ltmp689:
	.loc	48 1660 53 is_stmt 1
	movq	%rsi, -16(%rbp)
	movq	%rdx, -8(%rbp)
	.loc	48 1660 72 is_stmt 0
	movq	%rax, -280(%rbp)
Ltmp690:
	.loc	48 511 20 is_stmt 1
	movq	-280(%rbp), %rdi
	callq	__ZN4core3str6traits112_$LT$impl$u20$core..slice..index..SliceIndex$LT$str$GT$$u20$for$u20$core..ops..range..RangeFrom$LT$usize$GT$$GT$13get_unchecked17h6e03dc6ed2613679E
	movq	-480(%rbp), %rdi
	movq	-472(%rbp), %rsi
	movq	%rax, %rcx
	movq	-440(%rbp), %rax
Ltmp691:
	.loc	48 1660 23
	movq	%rdi, -320(%rbp)
	movq	%rsi, -312(%rbp)
	movq	%rcx, -304(%rbp)
	movq	%rdx, -296(%rbp)
	.loc	48 1660 18 is_stmt 0
	movq	-320(%rbp), %rcx
	movq	%rcx, (%rax)
	movq	-312(%rbp), %rcx
	movq	%rcx, 8(%rax)
	movq	-304(%rbp), %rcx
	movq	%rcx, 16(%rax)
	movq	-296(%rbp), %rcx
	movq	%rcx, 24(%rax)
Ltmp692:
	.loc	48 1661 5 is_stmt 1
	jmp	LBB121_9
LBB121_8:
	.loc	48 0 5 is_stmt 0
	movq	-440(%rbp), %rax
Ltmp693:
	.loc	25 2420 21 is_stmt 1
	movq	$0, (%rax)
Ltmp694:
LBB121_9:
	.loc	25 0 21 is_stmt 0
	movq	-432(%rbp), %rax
	.loc	48 1661 6 is_stmt 1
	addq	$480, %rsp
	popq	%rbp
	retq
Ltmp695:
Lfunc_end121:
	.cfi_endproc
	.section	__TEXT,__gcc_except_tab
	.p2align	2
GCC_except_table121:
Lexception17:
	.byte	255
	.byte	255
	.byte	1
	.uleb128 Lcst_end17-Lcst_begin17
Lcst_begin17:
	.uleb128 Lfunc_begin121-Lfunc_begin121
	.uleb128 Ltmp672-Lfunc_begin121
	.byte	0
	.byte	0
	.uleb128 Ltmp672-Lfunc_begin121
	.uleb128 Ltmp673-Ltmp672
	.uleb128 Ltmp674-Lfunc_begin121
	.byte	0
	.uleb128 Ltmp673-Lfunc_begin121
	.uleb128 Lfunc_end121-Ltmp673
	.byte	0
	.byte	0
Lcst_end17:
	.p2align	2

	.section	__TEXT,__text,regular,pure_instructions
	.p2align	4, 0x90
__ZN4core3str21_$LT$impl$u20$str$GT$16is_char_boundary17h227d4ef611c719f7E:
Lfunc_begin122:
	.loc	48 211 0
	.cfi_startproc
	pushq	%rbp
	.cfi_def_cfa_offset 16
	.cfi_offset %rbp, -16
	movq	%rsp, %rbp
	.cfi_def_cfa_register %rbp
	subq	$176, %rsp
	movq	%rdi, -176(%rbp)
	movq	%rsi, -168(%rbp)
	movq	%rdx, -160(%rbp)
	movq	%rdi, -136(%rbp)
	movq	%rsi, -128(%rbp)
	movq	%rdx, -120(%rbp)
Ltmp696:
	.loc	48 216 12 prologue_end
	cmpq	$0, %rdx
	jne	LBB122_2
	.loc	48 217 20
	movb	$1, -145(%rbp)
	.loc	48 234 6
	jmp	LBB122_6
LBB122_2:
	.loc	48 0 6 is_stmt 0
	movq	-160(%rbp), %rdi
	movq	-168(%rbp), %rax
	movq	-176(%rbp), %rcx
	.loc	48 220 15 is_stmt 1
	movq	%rcx, -112(%rbp)
	movq	%rax, -104(%rbp)
Ltmp697:
	.loc	48 327 18
	movq	%rcx, -96(%rbp)
	movq	%rax, -88(%rbp)
	movq	-96(%rbp), %rsi
	movq	-88(%rbp), %rdx
Ltmp698:
	.loc	48 220 15
	movq	%rsi, -80(%rbp)
	movq	%rdx, -72(%rbp)
	.loc	48 220 35 is_stmt 0
	movq	%rdi, -64(%rbp)
Ltmp699:
	.file	49 "/rustc/2c8cc343237b8f7d5a3c3703e3a87f2eb2c54a74/library/core/src/slice" "mod.rs"
	.loc	49 343 9 is_stmt 1
	callq	__ZN75_$LT$usize$u20$as$u20$core..slice..index..SliceIndex$LT$$u5b$T$u5d$$GT$$GT$3get17h4a14b9ab2daa2860E
	movq	%rax, -144(%rbp)
Ltmp700:
	.loc	48 220 15
	movq	-144(%rbp), %rdx
	movl	$1, %eax
	xorl	%ecx, %ecx
	cmpq	$0, %rdx
	cmoveq	%rcx, %rax
	.loc	48 220 9 is_stmt 0
	cmpq	$0, %rax
	jne	LBB122_4
	.loc	48 0 9
	movq	-160(%rbp), %rax
	movq	-168(%rbp), %rcx
	movq	-176(%rbp), %rdx
	.loc	48 230 30 is_stmt 1
	movq	%rdx, -48(%rbp)
	movq	%rcx, -40(%rbp)
Ltmp701:
	.loc	48 160 9
	movq	%rdx, -32(%rbp)
	movq	%rcx, -24(%rbp)
Ltmp702:
	.loc	48 327 18
	movq	%rdx, -16(%rbp)
	movq	%rcx, -8(%rbp)
Ltmp703:
	.loc	48 230 21
	cmpq	-8(%rbp), %rax
	sete	%al
	andb	$1, %al
	movb	%al, -145(%rbp)
	.loc	48 230 39 is_stmt 0
	jmp	LBB122_5
LBB122_4:
	.loc	48 232 19 is_stmt 1
	movq	-144(%rbp), %rax
	movb	(%rax), %al
	movb	%al, -50(%rbp)
Ltmp704:
	.loc	48 232 25 is_stmt 0
	movb	%al, -49(%rbp)
Ltmp705:
	.file	50 "/rustc/2c8cc343237b8f7d5a3c3703e3a87f2eb2c54a74/library/core/src/num" "mod.rs"
	.loc	50 885 9 is_stmt 1
	cmpb	$-64, %al
	setge	%al
	andb	$1, %al
	movb	%al, -145(%rbp)
Ltmp706:
LBB122_5:
	.loc	48 234 6
	jmp	LBB122_6
LBB122_6:
	movb	-145(%rbp), %al
	andb	$1, %al
	movzbl	%al, %eax
	addq	$176, %rsp
	popq	%rbp
	retq
Ltmp707:
Lfunc_end122:
	.cfi_endproc

	.p2align	4, 0x90
__ZN4core3str21_$LT$impl$u20$str$GT$3len17h424c43b2f6dd6064E:
Lfunc_begin123:
	.loc	48 159 0
	.cfi_startproc
	pushq	%rbp
	.cfi_def_cfa_offset 16
	.cfi_offset %rbp, -16
	movq	%rsp, %rbp
	.cfi_def_cfa_register %rbp
	subq	$48, %rsp
	movq	%rdi, -48(%rbp)
	movq	%rsi, -40(%rbp)
Ltmp708:
	.loc	48 160 9 prologue_end
	movq	%rdi, -32(%rbp)
	movq	%rsi, -24(%rbp)
Ltmp709:
	.loc	48 327 18
	movq	%rdi, -16(%rbp)
	movq	%rsi, -8(%rbp)
	movq	-8(%rbp), %rax
Ltmp710:
	.loc	48 161 6
	addq	$48, %rsp
	popq	%rbp
	retq
Ltmp711:
Lfunc_end123:
	.cfi_endproc

	.globl	__ZN4core3str21_$LT$impl$u20$str$GT$4find17hbf93485d48e28eeeE
	.p2align	4, 0x90
__ZN4core3str21_$LT$impl$u20$str$GT$4find17hbf93485d48e28eeeE:
Lfunc_begin124:
	.loc	48 1173 0
	.cfi_startproc
	.cfi_personality 155, _rust_eh_personality
	.cfi_lsda 16, Lexception18
	pushq	%rbp
	.cfi_def_cfa_offset 16
	.cfi_offset %rbp, -16
	movq	%rsp, %rbp
	.cfi_def_cfa_register %rbp
	subq	$128, %rsp
	movq	%rsi, %rdx
	movq	%rdi, %rsi
	movq	%rsi, -40(%rbp)
	movq	%rdx, -32(%rbp)
	leaq	-80(%rbp), %rdi
	movq	%rdi, -112(%rbp)
Ltmp717:
	.loc	48 1174 9 prologue_end
	callq	__ZN49_$LT$F$u20$as$u20$core..str..pattern..Pattern$GT$13into_searcher17hfa4d0c10f2ff44caE
	movq	-112(%rbp), %rsi
Ltmp712:
	leaq	-104(%rbp), %rdi
	callq	__ZN99_$LT$core..str..pattern..CharPredicateSearcher$LT$F$GT$$u20$as$u20$core..str..pattern..Searcher$GT$10next_match17hf50a09fdb71e8462E
Ltmp713:
	jmp	LBB124_3
LBB124_1:
	.loc	48 1173 5
	movq	-16(%rbp), %rdi
	callq	__Unwind_Resume
LBB124_2:
Ltmp716:
	.loc	48 0 5 is_stmt 0
	movq	%rax, %rcx
	movl	%edx, %eax
	movq	%rcx, -16(%rbp)
	movl	%eax, -8(%rbp)
	jmp	LBB124_1
LBB124_3:
Ltmp714:
	leaq	-104(%rbp), %rdi
	.loc	48 1174 9 is_stmt 1
	callq	__ZN4core6option15Option$LT$T$GT$3map17hfb1b8393fe330381E
Ltmp715:
	movq	%rdx, -128(%rbp)
	movq	%rax, -120(%rbp)
	jmp	LBB124_4
LBB124_4:
	.loc	48 0 9 is_stmt 0
	movq	-128(%rbp), %rdx
	movq	-120(%rbp), %rax
	.loc	48 1175 6 is_stmt 1
	addq	$128, %rsp
	popq	%rbp
	retq
Ltmp718:
Lfunc_end124:
	.cfi_endproc
	.section	__TEXT,__gcc_except_tab
	.p2align	2
GCC_except_table124:
Lexception18:
	.byte	255
	.byte	255
	.byte	1
	.uleb128 Lcst_end18-Lcst_begin18
Lcst_begin18:
	.uleb128 Lfunc_begin124-Lfunc_begin124
	.uleb128 Ltmp712-Lfunc_begin124
	.byte	0
	.byte	0
	.uleb128 Ltmp712-Lfunc_begin124
	.uleb128 Ltmp713-Ltmp712
	.uleb128 Ltmp716-Lfunc_begin124
	.byte	0
	.uleb128 Ltmp713-Lfunc_begin124
	.uleb128 Ltmp714-Ltmp713
	.byte	0
	.byte	0
	.uleb128 Ltmp714-Lfunc_begin124
	.uleb128 Ltmp715-Ltmp714
	.uleb128 Ltmp716-Lfunc_begin124
	.byte	0
Lcst_end18:
	.p2align	2

	.section	__TEXT,__text,regular,pure_instructions
	.globl	__ZN4core3str21_$LT$impl$u20$str$GT$4find28_$u7b$$u7b$closure$u7d$$u7d$17h3b9807ae2d5969aaE
	.p2align	4, 0x90
__ZN4core3str21_$LT$impl$u20$str$GT$4find28_$u7b$$u7b$closure$u7d$$u7d$17h3b9807ae2d5969aaE:
Lfunc_begin125:
	.loc	48 1174 0
	.cfi_startproc
	pushq	%rbp
	.cfi_def_cfa_offset 16
	.cfi_offset %rbp, -16
	movq	%rsp, %rbp
	.cfi_def_cfa_register %rbp
	subq	$32, %rsp
	movq	%rdi, %rax
	movq	%rax, -24(%rbp)
	movq	%rsi, -16(%rbp)
Ltmp719:
	.loc	48 1174 52 prologue_end
	movq	%rax, -8(%rbp)
	.loc	48 1174 60 is_stmt 0
	addq	$32, %rsp
	popq	%rbp
	retq
Ltmp720:
Lfunc_end125:
	.cfi_endproc

	.globl	__ZN4core3str21_$LT$impl$u20$str$GT$5parse17hcd4d270a6f581802E
	.p2align	4, 0x90
__ZN4core3str21_$LT$impl$u20$str$GT$5parse17hcd4d270a6f581802E:
Lfunc_begin126:
	.loc	48 2352 0 is_stmt 1
	.cfi_startproc
	pushq	%rbp
	.cfi_def_cfa_offset 16
	.cfi_offset %rbp, -16
	movq	%rsp, %rbp
	.cfi_def_cfa_register %rbp
	subq	$16, %rsp
	movq	%rdi, -16(%rbp)
	movq	%rsi, -8(%rbp)
Ltmp721:
	.loc	48 2353 9 prologue_end
	callq	__ZN4core3num59_$LT$impl$u20$core..str..traits..FromStr$u20$for$u20$u8$GT$8from_str17hafb2eb76eefc8559E
	.loc	48 2354 6
	andb	$1, %al
	addq	$16, %rsp
	popq	%rbp
	retq
Ltmp722:
Lfunc_end126:
	.cfi_endproc

	.globl	__ZN4core3str21_$LT$impl$u20$str$GT$6splitn17hc63e1b708152e39bE
	.p2align	4, 0x90
__ZN4core3str21_$LT$impl$u20$str$GT$6splitn17hc63e1b708152e39bE:
Lfunc_begin127:
	.loc	48 1588 0
	.cfi_startproc
	pushq	%rbp
	.cfi_def_cfa_offset 16
	.cfi_offset %rbp, -16
	movq	%rsp, %rbp
	.cfi_def_cfa_register %rbp
	subq	$288, %rsp
	movl	%r8d, -284(%rbp)
	movq	%rcx, %rax
	movl	-284(%rbp), %ecx
	movq	%rax, -280(%rbp)
	movq	%rdi, -272(%rbp)
	movq	%rdi, -264(%rbp)
	movq	%rsi, -32(%rbp)
	movq	%rdx, -24(%rbp)
	movq	%rax, -16(%rbp)
	movl	%ecx, -4(%rbp)
Ltmp723:
	.loc	48 1589 39 prologue_end
	leaq	-104(%rbp), %rdi
	callq	__ZN4core3str21_$LT$impl$u20$str$GT$5split17h590f8b209244316dE
	leaq	-176(%rbp), %rdi
	leaq	-104(%rbp), %rsi
	movl	$72, %edx
	callq	_memcpy
	.loc	48 1589 16 is_stmt 0
	leaq	-256(%rbp), %rdi
	addq	$8, %rdi
	leaq	-176(%rbp), %rsi
	movl	$72, %edx
	callq	_memcpy
	movq	-280(%rbp), %rcx
	movq	-272(%rbp), %rdi
	movq	%rcx, -256(%rbp)
	.loc	48 1589 9
	leaq	-256(%rbp), %rsi
	movl	$80, %edx
	callq	_memcpy
	movq	-264(%rbp), %rax
	.loc	48 1590 6 is_stmt 1
	addq	$288, %rsp
	popq	%rbp
	retq
Ltmp724:
Lfunc_end127:
	.cfi_endproc

	.globl	__ZN4core3str21_$LT$impl$u20$str$GT$8contains17he7e0aaf291f980f4E
	.p2align	4, 0x90
__ZN4core3str21_$LT$impl$u20$str$GT$8contains17he7e0aaf291f980f4E:
Lfunc_begin128:
	.loc	48 1070 0
	.cfi_startproc
	pushq	%rbp
	.cfi_def_cfa_offset 16
	.cfi_offset %rbp, -16
	movq	%rsp, %rbp
	.cfi_def_cfa_register %rbp
	subq	$48, %rsp
	movq	%rcx, -48(%rbp)
	movq	%rdx, -40(%rbp)
	movq	%rsi, %rcx
	movq	-48(%rbp), %rsi
	movq	%rdi, %rdx
	movq	-40(%rbp), %rdi
	movq	%rdx, -32(%rbp)
	movq	%rcx, -24(%rbp)
	movq	%rdi, -16(%rbp)
	movq	%rsi, -8(%rbp)
Ltmp725:
	.loc	48 1071 9 prologue_end
	callq	__ZN55_$LT$$RF$str$u20$as$u20$core..str..pattern..Pattern$GT$15is_contained_in17h804bcd4657486ecaE
	.loc	48 1072 6
	andb	$1, %al
	movzbl	%al, %eax
	addq	$48, %rsp
	popq	%rbp
	retq
Ltmp726:
Lfunc_end128:
	.cfi_endproc

	.p2align	4, 0x90
__ZN4core3str21_$LT$impl$u20$str$GT$8is_empty17hf438d95f81e19813E:
Lfunc_begin129:
	.loc	48 180 0
	.cfi_startproc
	pushq	%rbp
	.cfi_def_cfa_offset 16
	.cfi_offset %rbp, -16
	movq	%rsp, %rbp
	.cfi_def_cfa_register %rbp
	subq	$64, %rsp
	movq	%rdi, -64(%rbp)
	movq	%rsi, -56(%rbp)
Ltmp727:
	.loc	48 181 9 prologue_end
	movq	%rdi, -48(%rbp)
	movq	%rsi, -40(%rbp)
Ltmp728:
	.loc	48 160 9
	movq	%rdi, -32(%rbp)
	movq	%rsi, -24(%rbp)
Ltmp729:
	.loc	48 327 18
	movq	%rdi, -16(%rbp)
	movq	%rsi, -8(%rbp)
Ltmp730:
	.loc	48 181 9
	cmpq	$0, -8(%rbp)
	sete	%al
	.loc	48 182 6
	andb	$1, %al
	movzbl	%al, %eax
	addq	$64, %rsp
	popq	%rbp
	retq
Ltmp731:
Lfunc_end129:
	.cfi_endproc

	.globl	__ZN4core3str4iter23SplitNInternal$LT$P$GT$4next17h3a4f8f3c7306f17eE
	.p2align	4, 0x90
__ZN4core3str4iter23SplitNInternal$LT$P$GT$4next17h3a4f8f3c7306f17eE:
Lfunc_begin130:
	.file	51 "/rustc/2c8cc343237b8f7d5a3c3703e3a87f2eb2c54a74/library/core/src/str" "iter.rs"
	.loc	51 884 0
	.cfi_startproc
	pushq	%rbp
	.cfi_def_cfa_offset 16
	.cfi_offset %rbp, -16
	movq	%rsp, %rbp
	.cfi_def_cfa_register %rbp
	subq	$48, %rsp
	movq	%rdi, -40(%rbp)
	movq	%rdi, -8(%rbp)
Ltmp732:
	.loc	51 885 9 prologue_end
	movq	(%rdi), %rax
	movq	%rax, -32(%rbp)
	testq	%rax, %rax
	je	LBB130_2
	jmp	LBB130_5
LBB130_5:
	.loc	51 0 9 is_stmt 0
	movq	-32(%rbp), %rax
	.loc	51 885 9
	subq	$1, %rax
	je	LBB130_3
	jmp	LBB130_1
LBB130_1:
	.loc	51 0 9
	movq	-40(%rbp), %rdi
	.loc	51 892 17 is_stmt 1
	movq	(%rdi), %rax
	decq	%rax
	movq	%rax, (%rdi)
	.loc	51 893 17
	addq	$8, %rdi
	callq	__ZN4core3str4iter22SplitInternal$LT$P$GT$4next17hc46601141c3c939eE
	movq	%rdx, -16(%rbp)
	movq	%rax, -24(%rbp)
	.loc	51 893 32 is_stmt 0
	jmp	LBB130_4
LBB130_2:
	.loc	51 886 18 is_stmt 1
	movq	$0, -24(%rbp)
	jmp	LBB130_4
LBB130_3:
	.loc	51 0 18 is_stmt 0
	movq	-40(%rbp), %rdi
	.loc	51 888 17 is_stmt 1
	movq	$0, (%rdi)
	.loc	51 889 17
	addq	$8, %rdi
	callq	__ZN4core3str4iter22SplitInternal$LT$P$GT$7get_end17h2f30d259422c6f86E
	movq	%rdx, -16(%rbp)
	movq	%rax, -24(%rbp)
LBB130_4:
	.loc	51 896 6
	movq	-24(%rbp), %rax
	movq	-16(%rbp), %rdx
	addq	$48, %rsp
	popq	%rbp
	retq
Ltmp733:
Lfunc_end130:
	.cfi_endproc

	.p2align	4, 0x90
__ZN4core3str6traits112_$LT$impl$u20$core..slice..index..SliceIndex$LT$str$GT$$u20$for$u20$core..ops..range..RangeFrom$LT$usize$GT$$GT$13get_unchecked17h6e03dc6ed2613679E:
Lfunc_begin131:
	.loc	22 349 0
	.cfi_startproc
	pushq	%rbp
	.cfi_def_cfa_offset 16
	.cfi_offset %rbp, -16
	movq	%rsp, %rbp
	.cfi_def_cfa_register %rbp
	subq	$232, %rsp
	movq	%rdi, -184(%rbp)
	movq	%rsi, -176(%rbp)
	movq	%rdx, -168(%rbp)
Ltmp734:
	.loc	22 350 21 prologue_end
	movq	%rsi, -160(%rbp)
	movq	%rdx, -152(%rbp)
Ltmp735:
	.loc	22 353 28
	movq	%rsi, -144(%rbp)
	movq	%rdx, -136(%rbp)
Ltmp736:
	.loc	47 1650 9
	movq	%rsi, -128(%rbp)
Ltmp737:
	.loc	22 353 47
	movq	%rdi, -120(%rbp)
Ltmp738:
	.loc	47 932 18
	movq	%rsi, -112(%rbp)
	.loc	47 932 30 is_stmt 0
	movq	%rdi, -104(%rbp)
Ltmp739:
	.loc	47 473 18 is_stmt 1
	movq	%rsi, %rax
	addq	%rdi, %rax
	movq	%rax, -96(%rbp)
	movq	-96(%rbp), %rcx
	movq	%rcx, -88(%rbp)
Ltmp740:
	.loc	22 354 19
	movq	%rsi, -80(%rbp)
	movq	%rdx, -72(%rbp)
Ltmp741:
	.loc	47 1630 18
	movq	%rsi, -64(%rbp)
	movq	%rdx, -56(%rbp)
Ltmp742:
	.loc	11 98 14
	movq	%rsi, -232(%rbp)
	movq	%rdx, -224(%rbp)
	movq	-224(%rbp), %rax
Ltmp743:
	.loc	22 354 19
	subq	%rdi, %rax
	movq	%rax, -48(%rbp)
Ltmp744:
	.loc	22 355 35
	movq	%rcx, -40(%rbp)
	.loc	22 355 40 is_stmt 0
	movq	%rax, -32(%rbp)
Ltmp745:
	.loc	10 734 20 is_stmt 1
	movq	%rcx, -24(%rbp)
Ltmp746:
	.loc	47 61 9
	movq	%rcx, -16(%rbp)
Ltmp747:
	.loc	10 734 33
	movq	%rax, -8(%rbp)
Ltmp748:
	.loc	11 118 36
	movq	%rcx, -200(%rbp)
	movq	%rax, -192(%rbp)
	.loc	11 118 14 is_stmt 0
	movq	-200(%rbp), %rcx
	movq	-192(%rbp), %rax
	movq	%rcx, -216(%rbp)
	movq	%rax, -208(%rbp)
	movq	-216(%rbp), %rax
	movq	-208(%rbp), %rdx
Ltmp749:
	.loc	22 356 6 is_stmt 1
	addq	$232, %rsp
	popq	%rbp
	retq
Ltmp750:
Lfunc_end131:
	.cfi_endproc

	.p2align	4, 0x90
__ZN4core3str6traits112_$LT$impl$u20$core..slice..index..SliceIndex$LT$str$GT$$u20$for$u20$core..ops..range..RangeFrom$LT$usize$GT$$GT$3get17hc9191a285a8446f6E:
Lfunc_begin132:
	.loc	22 329 0
	.cfi_startproc
	pushq	%rbp
	.cfi_def_cfa_offset 16
	.cfi_offset %rbp, -16
	movq	%rsp, %rbp
	.cfi_def_cfa_register %rbp
	subq	$80, %rsp
	movq	%rdx, -80(%rbp)
	movq	%rsi, %rax
	movq	-80(%rbp), %rsi
	movq	%rax, -72(%rbp)
	movq	%rdi, %rdx
	movq	-72(%rbp), %rdi
	movq	%rdx, -64(%rbp)
	movq	%rdi, -56(%rbp)
	movq	%rsi, -48(%rbp)
	movq	%rdx, -24(%rbp)
	movq	%rdi, -16(%rbp)
	movq	%rsi, -8(%rbp)
Ltmp751:
	.loc	22 330 12 prologue_end
	callq	__ZN4core3str21_$LT$impl$u20$str$GT$16is_char_boundary17h227d4ef611c719f7E
	testb	$1, %al
	jne	LBB132_2
	.loc	22 335 13
	movq	$0, -40(%rbp)
	.loc	22 330 9
	jmp	LBB132_3
LBB132_2:
	.loc	22 0 9 is_stmt 0
	movq	-48(%rbp), %rdx
	movq	-56(%rbp), %rsi
	movq	-64(%rbp), %rdi
	.loc	22 333 29 is_stmt 1
	callq	__ZN4core3str6traits112_$LT$impl$u20$core..slice..index..SliceIndex$LT$str$GT$$u20$for$u20$core..ops..range..RangeFrom$LT$usize$GT$$GT$13get_unchecked17h6e03dc6ed2613679E
	.loc	22 333 13 is_stmt 0
	movq	%rax, -40(%rbp)
	movq	%rdx, -32(%rbp)
LBB132_3:
	.loc	22 337 6 is_stmt 1
	movq	-40(%rbp), %rax
	movq	-32(%rbp), %rdx
	addq	$80, %rsp
	popq	%rbp
	retq
Ltmp752:
Lfunc_end132:
	.cfi_endproc

	.p2align	4, 0x90
__ZN4core3str6traits112_$LT$impl$u20$core..slice..index..SliceIndex$LT$str$GT$$u20$for$u20$core..ops..range..RangeFrom$LT$usize$GT$$GT$5index17hb5c3648ed4d1e846E:
Lfunc_begin133:
	.loc	22 366 0
	.cfi_startproc
	pushq	%rbp
	.cfi_def_cfa_offset 16
	.cfi_offset %rbp, -16
	movq	%rsp, %rbp
	.cfi_def_cfa_register %rbp
	subq	$176, %rsp
	movq	%rsi, -176(%rbp)
	movq	%rdx, -168(%rbp)
	movq	%rcx, -160(%rbp)
	movq	%rdi, -104(%rbp)
	movq	%rsi, -96(%rbp)
	movq	%rdx, -88(%rbp)
Ltmp753:
	.loc	22 367 41 prologue_end
	movq	%rsi, -80(%rbp)
	movq	%rdx, -72(%rbp)
Ltmp754:
	.loc	48 160 9
	movq	%rsi, -64(%rbp)
	movq	%rdx, -56(%rbp)
Ltmp755:
	.loc	48 327 18
	movq	%rsi, -48(%rbp)
	movq	%rdx, -40(%rbp)
	movq	-40(%rbp), %rax
Ltmp756:
	.loc	22 367 28
	movq	%rdi, -136(%rbp)
	movq	%rax, -128(%rbp)
	.loc	22 367 14 is_stmt 0
	movq	-136(%rbp), %rax
	movq	%rax, -152(%rbp)
	movq	%rax, -32(%rbp)
	.loc	22 367 21
	movq	-128(%rbp), %rax
	movq	%rax, -144(%rbp)
	movq	%rax, -24(%rbp)
Ltmp757:
	.loc	22 368 15 is_stmt 1
	callq	__ZN4core3str6traits112_$LT$impl$u20$core..slice..index..SliceIndex$LT$str$GT$$u20$for$u20$core..ops..range..RangeFrom$LT$usize$GT$$GT$3get17hc9191a285a8446f6E
	movq	%rdx, -112(%rbp)
	movq	%rax, -120(%rbp)
	movq	-120(%rbp), %rdx
	movl	$1, %eax
	xorl	%ecx, %ecx
	cmpq	$0, %rdx
	cmoveq	%rcx, %rax
	.loc	22 368 9 is_stmt 0
	cmpq	$0, %rax
	jne	LBB133_2
	.loc	22 0 9
	movq	-160(%rbp), %r8
	movq	-144(%rbp), %rcx
	movq	-152(%rbp), %rdx
	movq	-168(%rbp), %rsi
	movq	-176(%rbp), %rdi
	.loc	22 370 21 is_stmt 1
	callq	__ZN4core3str16slice_error_fail17h13b85bf03fb2869bE
LBB133_2:
	.loc	22 369 18
	movq	-120(%rbp), %rax
	movq	-112(%rbp), %rdx
	movq	%rax, -16(%rbp)
	movq	%rdx, -8(%rbp)
Ltmp758:
	.loc	22 372 6
	addq	$176, %rsp
	popq	%rbp
	retq
Ltmp759:
Lfunc_end133:
	.cfi_endproc

	.p2align	4, 0x90
__ZN4core3str6traits54_$LT$impl$u20$core..cmp..PartialEq$u20$for$u20$str$GT$2eq17h96c9063fb30a2509E:
Lfunc_begin134:
	.loc	22 28 0
	.cfi_startproc
	pushq	%rbp
	.cfi_def_cfa_offset 16
	.cfi_offset %rbp, -16
	movq	%rsp, %rbp
	.cfi_def_cfa_register %rbp
	subq	$112, %rsp
	movq	%rdi, -80(%rbp)
	movq	%rsi, -72(%rbp)
	movq	%rdx, -64(%rbp)
	movq	%rcx, -56(%rbp)
Ltmp760:
	.loc	22 29 9 prologue_end
	movq	%rdi, -48(%rbp)
	movq	%rsi, -40(%rbp)
Ltmp761:
	.loc	48 327 18
	movq	%rdi, -112(%rbp)
	movq	%rsi, -104(%rbp)
Ltmp762:
	.loc	22 29 9
	leaq	-112(%rbp), %rax
	movq	%rax, -32(%rbp)
	.loc	22 29 28 is_stmt 0
	movq	%rdx, -24(%rbp)
	movq	%rcx, -16(%rbp)
Ltmp763:
	.loc	48 327 18 is_stmt 1
	movq	%rdx, -96(%rbp)
	movq	%rcx, -88(%rbp)
Ltmp764:
	.loc	22 29 28
	leaq	-96(%rbp), %rax
	movq	%rax, -8(%rbp)
Ltmp765:
	.loc	4 1531 27
	movq	-112(%rbp), %rdi
	movq	-104(%rbp), %rsi
	.loc	4 1531 34 is_stmt 0
	movq	-96(%rbp), %rdx
	movq	-88(%rbp), %rcx
	.loc	4 1531 13
	callq	__ZN4core5slice3cmp81_$LT$impl$u20$core..cmp..PartialEq$LT$$u5b$B$u5d$$GT$$u20$for$u20$$u5b$A$u5d$$GT$2eq17h6906462e757b1446E
Ltmp766:
	.loc	22 30 6 is_stmt 1
	andb	$1, %al
	movzbl	%al, %eax
	addq	$112, %rsp
	popq	%rbp
	retq
Ltmp767:
Lfunc_end134:
	.cfi_endproc

	.p2align	4, 0x90
__ZN4core3str7pattern13simd_contains17hb7787f67fdf47750E:
Lfunc_begin135:
	.loc	38 1732 0
	.cfi_startproc
	pushq	%rbp
	.cfi_def_cfa_offset 16
	.cfi_offset %rbp, -16
	movq	%rsp, %rbp
	.cfi_def_cfa_register %rbp
	subq	$864, %rsp
	movq	%rdi, -248(%rbp)
	movq	%rsi, -240(%rbp)
	movq	%rdx, -232(%rbp)
	movq	%rcx, -224(%rbp)
Ltmp768:
	.loc	38 1733 18 prologue_end
	movq	%rdi, -216(%rbp)
	movq	%rsi, -208(%rbp)
Ltmp769:
	.loc	48 327 18
	movq	%rdi, -760(%rbp)
	movq	%rsi, -752(%rbp)
Ltmp770:
	.loc	38 1734 20
	movq	%rdx, -200(%rbp)
	movq	%rcx, -192(%rbp)
Ltmp771:
	.loc	48 327 18
	movq	%rdx, -184(%rbp)
	movq	%rcx, -176(%rbp)
	movq	-184(%rbp), %rcx
	movq	%rcx, -792(%rbp)
	movq	-176(%rbp), %rax
	movq	%rax, -784(%rbp)
	movq	%rcx, -168(%rbp)
	movq	%rax, -160(%rbp)
Ltmp772:
	.loc	38 1743 23
	movq	-752(%rbp), %rcx
	movq	%rcx, -776(%rbp)
	xorl	%eax, %eax
	cmpq	%rcx, %rax
	setb	%al
	testb	$1, %al
	jne	LBB135_1
	jmp	LBB135_2
LBB135_1:
	movq	-760(%rbp), %rax
	movb	(%rax), %al
	movb	%al, -737(%rbp)
Ltmp773:
	.loc	38 1744 28
	movq	-752(%rbp), %rax
	subq	$1, %rax
	movq	%rax, -800(%rbp)
	movq	%rax, -152(%rbp)
Ltmp774:
	.loc	38 1747 34
	cmpq	$2, -752(%rbp)
	je	LBB135_3
	jmp	LBB135_4
Ltmp775:
LBB135_2:
	.loc	38 0 34 is_stmt 0
	movq	-776(%rbp), %rsi
	.loc	38 1743 23 is_stmt 1
	leaq	l___unnamed_23(%rip), %rdx
	xorl	%eax, %eax
	movl	%eax, %edi
	callq	__ZN4core9panicking18panic_bounds_check17hacb8a94866cda541E
LBB135_3:
Ltmp776:
	.loc	38 1750 9
	movq	$1, -736(%rbp)
	.loc	38 1747 31
	jmp	LBB135_11
LBB135_4:
	.loc	38 1753 42
	movq	-752(%rbp), %rax
	movq	%rax, -144(%rbp)
	xorl	%ecx, %ecx
Ltmp777:
	.loc	16 1070 13
	subq	$4, %rax
	cmovbq	%rcx, %rax
	movq	%rax, -136(%rbp)
	movq	-136(%rbp), %rcx
Ltmp778:
	.loc	38 1753 74
	movq	-752(%rbp), %rax
	.loc	38 1753 41 is_stmt 0
	movq	%rcx, -712(%rbp)
	movq	%rax, -704(%rbp)
	leaq	-712(%rbp), %rdi
	movq	%rdi, -128(%rbp)
	.loc	38 1753 94
	movq	-760(%rbp), %rcx
	movq	-752(%rbp), %rax
	movq	%rcx, -696(%rbp)
	movq	%rax, -688(%rbp)
	leaq	-737(%rbp), %rax
	movq	%rax, -680(%rbp)
Ltmp779:
	.file	52 "/rustc/2c8cc343237b8f7d5a3c3703e3a87f2eb2c54a74/library/core/src/iter/traits" "double_ended.rs"
	.loc	52 359 34 is_stmt 1
	movq	-680(%rbp), %rax
	movq	%rax, -272(%rbp)
	movq	-696(%rbp), %rax
	movq	-688(%rbp), %rcx
	movq	%rcx, -280(%rbp)
	movq	%rax, -288(%rbp)
Ltmp780:
	.loc	52 354 13
	movq	-272(%rbp), %rax
	movq	%rax, -296(%rbp)
	movq	-288(%rbp), %rax
	movq	-280(%rbp), %rcx
	movq	%rcx, -304(%rbp)
	movq	%rax, -312(%rbp)
	leaq	-312(%rbp), %rsi
Ltmp781:
	.loc	52 359 9
	callq	__ZN4core4iter6traits12double_ended19DoubleEndedIterator9try_rfold17h686bf65ec35e6290E
	movq	%rdx, -320(%rbp)
	movq	%rax, -328(%rbp)
Ltmp782:
	.file	53 "/rustc/2c8cc343237b8f7d5a3c3703e3a87f2eb2c54a74/library/core/src/ops" "control_flow.rs"
	.loc	53 184 9
	cmpq	$0, -328(%rbp)
	jne	LBB135_6
	.loc	53 185 42
	movq	$0, -728(%rbp)
	jmp	LBB135_7
LBB135_6:
	.loc	53 186 32
	movq	-320(%rbp), %rax
	movq	%rax, -120(%rbp)
Ltmp783:
	.loc	53 186 38 is_stmt 0
	movq	%rax, -720(%rbp)
	movq	$1, -728(%rbp)
Ltmp784:
LBB135_7:
	.loc	38 1753 13 is_stmt 1
	cmpq	$1, -728(%rbp)
	jne	LBB135_9
	.loc	38 1753 18 is_stmt 0
	movq	-720(%rbp), %rax
	movq	%rax, -112(%rbp)
Ltmp785:
	.loc	38 1758 9 is_stmt 1
	movq	%rax, -736(%rbp)
Ltmp786:
	.loc	38 1747 31
	jmp	LBB135_11
LBB135_9:
	.loc	38 1756 20
	movb	$2, -761(%rbp)
Ltmp787:
LBB135_10:
	.loc	38 1851 2
	jmp	LBB135_14
LBB135_11:
	.loc	38 0 2 is_stmt 0
	movq	-784(%rbp), %rax
	movq	-800(%rbp), %rcx
Ltmp788:
	.loc	38 1762 25 is_stmt 1
	addq	$16, %rcx
	.loc	38 1762 8 is_stmt 0
	cmpq	%rcx, %rax
	jb	LBB135_13
	.loc	38 1766 30 is_stmt 1
	leaq	-640(%rbp), %rdi
	movzbl	-737(%rbp), %esi
	callq	__ZN4core9core_simd6vector17Simd$LT$T$C$_$GT$5splat17h5ebb11659d27eb93E
Ltmp789:
	.loc	38 1767 51
	movq	-736(%rbp), %rax
	movq	%rax, -816(%rbp)
	.loc	38 1767 44 is_stmt 0
	movq	-752(%rbp), %rcx
	movq	%rcx, -808(%rbp)
	cmpq	%rcx, %rax
	setb	%al
	testb	$1, %al
	jne	LBB135_15
	jmp	LBB135_16
Ltmp790:
LBB135_13:
	.loc	38 0 44
	movq	-784(%rbp), %rdx
	movq	-792(%rbp), %rsi
	.loc	38 1763 38 is_stmt 1
	movq	-752(%rbp), %rcx
	.loc	38 1763 21 is_stmt 0
	leaq	-672(%rbp), %rdi
	callq	__ZN4core5slice29_$LT$impl$u20$$u5b$T$u5d$$GT$7windows17h06adab8806959891E
	leaq	-672(%rbp), %rax
	movq	%rax, -104(%rbp)
	.loc	38 1763 56
	leaq	-760(%rbp), %rax
	movq	%rax, -648(%rbp)
Ltmp791:
	.file	54 "/rustc/2c8cc343237b8f7d5a3c3703e3a87f2eb2c54a74/library/core/src/iter/traits" "iterator.rs"
	.loc	54 2661 33 is_stmt 1
	movq	-648(%rbp), %rax
	movq	%rax, -96(%rbp)
Ltmp792:
	.loc	54 2656 13
	movq	%rax, -256(%rbp)
Ltmp793:
	.loc	54 2661 9
	movq	-256(%rbp), %rsi
	leaq	-672(%rbp), %rdi
	callq	__ZN4core4iter6traits8iterator8Iterator8try_fold17h637d9153f076f047E
	andb	$1, %al
	movb	%al, -257(%rbp)
	leaq	-257(%rbp), %rdi
	leaq	l___unnamed_24(%rip), %rsi
	callq	__ZN90_$LT$core..ops..control_flow..ControlFlow$LT$B$C$C$GT$$u20$as$u20$core..cmp..PartialEq$GT$2eq17h7c8a7fd574f393abE
Ltmp794:
	.loc	38 1763 16
	andb	$1, %al
	movb	%al, -761(%rbp)
	.loc	26 1 1
	jmp	LBB135_10
Ltmp795:
LBB135_14:
	.loc	38 1851 2
	movb	-761(%rbp), %al
	addq	$864, %rsp
	popq	%rbp
	retq
LBB135_15:
	.loc	38 0 2 is_stmt 0
	movq	-816(%rbp), %rcx
Ltmp796:
	.loc	38 1767 44 is_stmt 1
	movq	-760(%rbp), %rax
	.loc	38 1767 31 is_stmt 0
	leaq	-624(%rbp), %rdi
	movzbl	(%rax,%rcx), %esi
	callq	__ZN4core9core_simd6vector17Simd$LT$T$C$_$GT$5splat17h5ebb11659d27eb93E
Ltmp797:
	.loc	38 1770 27 is_stmt 1
	movq	-760(%rbp), %rsi
	movq	-752(%rbp), %rdx
	movq	%rsi, -88(%rbp)
	movq	%rdx, -80(%rbp)
Ltmp798:
	.loc	7 18 9
	movl	$1, %edi
	leaq	l___unnamed_25(%rip), %rcx
	callq	__ZN110_$LT$core..ops..range..RangeFrom$LT$usize$GT$$u20$as$u20$core..slice..index..SliceIndex$LT$$u5b$T$u5d$$GT$$GT$5index17h5935441f3e1a2be2E
	movq	-792(%rbp), %rcx
	movq	%rax, %rsi
	movq	-784(%rbp), %rax
Ltmp799:
	.loc	38 1770 26
	movq	%rsi, -72(%rbp)
	movq	%rdx, -64(%rbp)
Ltmp800:
	.loc	38 1774 5
	movq	%rcx, -600(%rbp)
	movq	%rax, -592(%rbp)
	movq	%rsi, -584(%rbp)
	movq	%rdx, -576(%rbp)
Ltmp801:
	.loc	38 1798 22
	movq	%rcx, -568(%rbp)
	movq	%rax, -560(%rbp)
	leaq	-736(%rbp), %rax
	movq	%rax, -552(%rbp)
	leaq	-640(%rbp), %rax
	movq	%rax, -544(%rbp)
	leaq	-624(%rbp), %rax
	movq	%rax, -536(%rbp)
Ltmp802:
	.loc	38 1814 17
	movq	$0, -528(%rbp)
Ltmp803:
	.loc	38 1815 22
	movb	$0, -514(%rbp)
Ltmp804:
	.loc	38 1819 5
	jmp	LBB135_17
Ltmp805:
LBB135_16:
	.loc	38 0 5 is_stmt 0
	movq	-808(%rbp), %rsi
	movq	-816(%rbp), %rdi
	.loc	38 1767 44 is_stmt 1
	leaq	l___unnamed_26(%rip), %rdx
	callq	__ZN4core9panicking18panic_bounds_check17hacb8a94866cda541E
LBB135_17:
	.loc	38 0 44 is_stmt 0
	movq	-784(%rbp), %rcx
	movq	-800(%rbp), %rax
Ltmp806:
	.loc	38 1819 11 is_stmt 1
	addq	-528(%rbp), %rax
	addq	$64, %rax
	cmpq	%rcx, %rax
	jb	LBB135_19
	movb	$0, -513(%rbp)
	jmp	LBB135_20
LBB135_19:
	.loc	38 1819 77 is_stmt 0
	movb	-514(%rbp), %al
	.loc	38 1819 76
	xorb	$-1, %al
	.loc	38 1819 11
	andb	$1, %al
	movb	%al, -513(%rbp)
LBB135_20:
	testb	$1, -513(%rbp)
	jne	LBB135_22
	.loc	38 1832 5 is_stmt 1
	jmp	LBB135_35
LBB135_22:
	.loc	38 1820 25
	leaq	-512(%rbp), %rdi
	xorl	%esi, %esi
	movl	$8, %edx
	callq	_memset
Ltmp807:
	.loc	38 1821 18
	movq	$0, -504(%rbp)
	movq	$4, -496(%rbp)
Ltmp808:
	.file	55 "/rustc/2c8cc343237b8f7d5a3c3703e3a87f2eb2c54a74/library/core/src/iter/traits" "collect.rs"
	.loc	55 273 9
	movq	-504(%rbp), %rcx
	movq	-496(%rbp), %rax
Ltmp809:
	.loc	38 1821 18
	movq	%rcx, -488(%rbp)
	movq	%rax, -480(%rbp)
LBB135_23:
	.loc	38 0 18 is_stmt 0
	leaq	-488(%rbp), %rdi
Ltmp810:
	.loc	38 1821 18
	movq	%rdi, -56(%rbp)
Ltmp811:
	.file	56 "/rustc/2c8cc343237b8f7d5a3c3703e3a87f2eb2c54a74/library/core/src/iter" "range.rs"
	.loc	56 711 9 is_stmt 1
	callq	__ZN89_$LT$core..ops..range..Range$LT$T$GT$$u20$as$u20$core..iter..range..RangeIteratorImpl$GT$9spec_next17h4e56ff42bc5d0b85E
	movq	%rdx, -464(%rbp)
	movq	%rax, -472(%rbp)
Ltmp812:
	.loc	38 1821 18
	cmpq	$0, -472(%rbp)
	jne	LBB135_25
Ltmp813:
	.loc	38 1824 18
	movq	$0, -448(%rbp)
	movq	$4, -440(%rbp)
Ltmp814:
	.loc	55 273 9
	movq	-448(%rbp), %rcx
	movq	-440(%rbp), %rax
Ltmp815:
	.loc	38 1824 18
	movq	%rcx, -432(%rbp)
	movq	%rax, -424(%rbp)
Ltmp816:
	.loc	38 1824 9 is_stmt 0
	jmp	LBB135_28
Ltmp817:
LBB135_25:
	.loc	38 1821 13 is_stmt 1
	movq	-464(%rbp), %rcx
	movq	%rcx, -832(%rbp)
	movq	%rcx, -48(%rbp)
Ltmp818:
	.loc	38 1822 35
	movq	-528(%rbp), %rax
	.loc	38 1822 39 is_stmt 0
	shlq	$4, %rcx
	.loc	38 1822 35
	addq	%rcx, %rax
	.loc	38 1822 24
	movq	%rax, -456(%rbp)
	movq	-456(%rbp), %rsi
	leaq	-568(%rbp), %rdi
	callq	__ZN4core3str7pattern13simd_contains28_$u7b$$u7b$closure$u7d$$u7d$17hfba7f7ed9a3c00e6E
	movw	%ax, %cx
	movq	-832(%rbp), %rax
	movw	%cx, -818(%rbp)
	.loc	38 1822 13
	cmpq	$4, %rax
	setb	%al
	testb	$1, %al
	jne	LBB135_26
	jmp	LBB135_27
LBB135_26:
	.loc	38 0 13
	movq	-832(%rbp), %rax
	movw	-818(%rbp), %cx
	.loc	38 1822 13
	movw	%cx, -512(%rbp,%rax,2)
Ltmp819:
	.loc	38 1821 9 is_stmt 1
	jmp	LBB135_23
LBB135_27:
	.loc	38 0 9 is_stmt 0
	movq	-832(%rbp), %rdi
Ltmp820:
	.loc	38 1822 13 is_stmt 1
	leaq	l___unnamed_27(%rip), %rdx
	movl	$4, %esi
	callq	__ZN4core9panicking18panic_bounds_check17hacb8a94866cda541E
Ltmp821:
LBB135_28:
	.loc	38 0 13 is_stmt 0
	leaq	-432(%rbp), %rdi
Ltmp822:
	.loc	38 1824 18 is_stmt 1
	movq	%rdi, -40(%rbp)
Ltmp823:
	.loc	56 711 9
	callq	__ZN89_$LT$core..ops..range..Range$LT$T$GT$$u20$as$u20$core..iter..range..RangeIteratorImpl$GT$9spec_next17h4e56ff42bc5d0b85E
	movq	%rdx, -408(%rbp)
	movq	%rax, -416(%rbp)
Ltmp824:
	.loc	38 1824 18
	cmpq	$0, -416(%rbp)
	jne	LBB135_30
Ltmp825:
	.loc	38 1830 9
	movq	-528(%rbp), %rax
	addq	$64, %rax
	movq	%rax, -528(%rbp)
Ltmp826:
	.loc	38 1819 5
	jmp	LBB135_17
LBB135_30:
Ltmp827:
	.loc	38 1824 13
	movq	-408(%rbp), %rax
	movq	%rax, -840(%rbp)
	movq	%rax, -32(%rbp)
Ltmp828:
	.loc	38 1825 24
	cmpq	$4, %rax
	setb	%al
	testb	$1, %al
	jne	LBB135_31
	jmp	LBB135_32
LBB135_31:
	.loc	38 0 24 is_stmt 0
	movq	-840(%rbp), %rax
	.loc	38 1825 24
	movw	-512(%rbp,%rax,2), %ax
	movw	%ax, -842(%rbp)
	movw	%ax, -20(%rbp)
Ltmp829:
	.loc	38 1826 16 is_stmt 1
	cmpw	$0, %ax
	je	LBB135_33
	jmp	LBB135_34
Ltmp830:
LBB135_32:
	.loc	38 0 16 is_stmt 0
	movq	-840(%rbp), %rdi
	.loc	38 1825 24 is_stmt 1
	leaq	l___unnamed_28(%rip), %rdx
	movl	$4, %esi
	callq	__ZN4core9panicking18panic_bounds_check17hacb8a94866cda541E
Ltmp831:
LBB135_33:
	.loc	38 1824 9
	jmp	LBB135_28
LBB135_34:
	.loc	38 0 9 is_stmt 0
	movw	-842(%rbp), %cx
	movq	-840(%rbp), %rax
Ltmp832:
	.loc	38 1827 38 is_stmt 1
	movq	-528(%rbp), %rdx
	.loc	38 1827 42 is_stmt 0
	shlq	$4, %rax
	.loc	38 1827 38
	addq	%rax, %rdx
	.loc	38 1827 66
	movb	-514(%rbp), %al
	.loc	38 1827 27
	movq	%rdx, -400(%rbp)
	movw	%cx, -392(%rbp)
	andb	$1, %al
	movb	%al, -390(%rbp)
	movq	-400(%rbp), %rsi
	movw	-392(%rbp), %cx
	movb	-390(%rbp), %al
	leaq	-600(%rbp), %rdi
	andb	$1, %al
	movzwl	%cx, %edx
	movzbl	%al, %ecx
	callq	__ZN4core3str7pattern13simd_contains28_$u7b$$u7b$closure$u7d$$u7d$17h0ae4a5630f20228fE
	movb	%al, %cl
	.loc	38 1827 17
	movb	-514(%rbp), %al
	orb	%cl, %al
	andb	$1, %al
	movb	%al, -514(%rbp)
	.loc	38 1826 13 is_stmt 1
	jmp	LBB135_33
Ltmp833:
LBB135_35:
	.loc	38 0 13 is_stmt 0
	movq	-784(%rbp), %rcx
	movq	-800(%rbp), %rax
	.loc	38 1832 11 is_stmt 1
	addq	-528(%rbp), %rax
	addq	$16, %rax
	cmpq	%rcx, %rax
	jb	LBB135_37
	movb	$0, -377(%rbp)
	jmp	LBB135_38
LBB135_37:
	.loc	38 1832 68 is_stmt 0
	movb	-514(%rbp), %al
	.loc	38 1832 67
	xorb	$-1, %al
	.loc	38 1832 11
	andb	$1, %al
	movb	%al, -377(%rbp)
LBB135_38:
	testb	$1, -377(%rbp)
	jne	LBB135_40
	.loc	38 0 11
	movq	-800(%rbp), %rcx
	movq	-784(%rbp), %rax
	.loc	38 1844 13 is_stmt 1
	subq	%rcx, %rax
	subq	$16, %rax
	movq	%rax, -856(%rbp)
	movq	%rax, -16(%rbp)
Ltmp834:
	.loc	38 1845 16
	movq	%rax, -352(%rbp)
	movq	-352(%rbp), %rsi
	leaq	-568(%rbp), %rdi
	callq	__ZN4core3str7pattern13simd_contains28_$u7b$$u7b$closure$u7d$$u7d$17hfba7f7ed9a3c00e6E
	movw	%ax, -844(%rbp)
	movw	%ax, -2(%rbp)
Ltmp835:
	.loc	38 1846 8
	cmpw	$0, %ax
	je	LBB135_43
	jmp	LBB135_44
Ltmp836:
LBB135_40:
	.loc	38 1833 31
	movq	-528(%rbp), %rax
	.loc	38 1833 20 is_stmt 0
	movq	%rax, -376(%rbp)
	movq	-376(%rbp), %rsi
	leaq	-568(%rbp), %rdi
	callq	__ZN4core3str7pattern13simd_contains28_$u7b$$u7b$closure$u7d$$u7d$17hfba7f7ed9a3c00e6E
	movw	%ax, -858(%rbp)
	movw	%ax, -18(%rbp)
Ltmp837:
	.loc	38 1834 12 is_stmt 1
	cmpw	$0, %ax
	jne	LBB135_42
LBB135_41:
	.loc	38 1837 9
	movq	-528(%rbp), %rax
	addq	$16, %rax
	movq	%rax, -528(%rbp)
Ltmp838:
	.loc	38 1832 5
	jmp	LBB135_35
LBB135_42:
	.loc	38 0 5 is_stmt 0
	movw	-858(%rbp), %cx
Ltmp839:
	.loc	38 1835 34 is_stmt 1
	movq	-528(%rbp), %rdx
	.loc	38 1835 43 is_stmt 0
	movb	-514(%rbp), %al
	.loc	38 1835 23
	movq	%rdx, -368(%rbp)
	movw	%cx, -360(%rbp)
	andb	$1, %al
	movb	%al, -358(%rbp)
	movq	-368(%rbp), %rsi
	movw	-360(%rbp), %cx
	movb	-358(%rbp), %al
	leaq	-600(%rbp), %rdi
	andb	$1, %al
	movzwl	%cx, %edx
	movzbl	%al, %ecx
	callq	__ZN4core3str7pattern13simd_contains28_$u7b$$u7b$closure$u7d$$u7d$17h0ae4a5630f20228fE
	movb	%al, %cl
	.loc	38 1835 13
	movb	-514(%rbp), %al
	orb	%cl, %al
	andb	$1, %al
	movb	%al, -514(%rbp)
	.loc	38 1834 9 is_stmt 1
	jmp	LBB135_41
Ltmp840:
LBB135_43:
	.loc	38 1850 10
	movb	-514(%rbp), %al
	.loc	38 1850 5 is_stmt 0
	andb	$1, %al
	movb	%al, -761(%rbp)
Ltmp841:
	.loc	38 1851 2 is_stmt 1
	jmp	LBB135_14
LBB135_44:
	.loc	38 0 2 is_stmt 0
	movw	-844(%rbp), %cx
	movq	-856(%rbp), %rdx
Ltmp842:
	.loc	38 1847 39 is_stmt 1
	movb	-514(%rbp), %al
	.loc	38 1847 19 is_stmt 0
	movq	%rdx, -344(%rbp)
	movw	%cx, -336(%rbp)
	andb	$1, %al
	movb	%al, -334(%rbp)
	movq	-344(%rbp), %rsi
	movw	-336(%rbp), %cx
	movb	-334(%rbp), %al
	leaq	-600(%rbp), %rdi
	andb	$1, %al
	movzwl	%cx, %edx
	movzbl	%al, %ecx
	callq	__ZN4core3str7pattern13simd_contains28_$u7b$$u7b$closure$u7d$$u7d$17h0ae4a5630f20228fE
	movb	%al, %cl
	.loc	38 1847 9
	movb	-514(%rbp), %al
	orb	%cl, %al
	andb	$1, %al
	movb	%al, -514(%rbp)
	.loc	38 1846 5 is_stmt 1
	jmp	LBB135_43
Ltmp843:
Lfunc_end135:
	.cfi_endproc

	.globl	__ZN4core3str7pattern8Searcher10next_match17h2e30d7d2fcfa6ae0E
	.p2align	4, 0x90
__ZN4core3str7pattern8Searcher10next_match17h2e30d7d2fcfa6ae0E:
Lfunc_begin136:
	.loc	38 232 0
	.cfi_startproc
	pushq	%rbp
	.cfi_def_cfa_offset 16
	.cfi_offset %rbp, -16
	movq	%rsp, %rbp
	.cfi_def_cfa_register %rbp
	subq	$96, %rsp
	movq	%rsi, -88(%rbp)
	movq	%rdi, -80(%rbp)
	movq	%rdi, -72(%rbp)
	movq	%rsi, -24(%rbp)
LBB136_1:
	movq	-88(%rbp), %rsi
	leaq	-64(%rbp), %rdi
Ltmp844:
	.loc	38 234 19 prologue_end
	callq	__ZN97_$LT$core..str..pattern..MultiCharEqSearcher$LT$C$GT$$u20$as$u20$core..str..pattern..Searcher$GT$4next17h03260e989fffa3d2E
	movq	-64(%rbp), %rax
	movq	%rax, -96(%rbp)
	.loc	38 234 13 is_stmt 0
	testq	%rax, %rax
	je	LBB136_3
	jmp	LBB136_6
LBB136_6:
	.loc	38 0 13
	movq	-96(%rbp), %rax
	.loc	38 234 13
	subq	$2, %rax
	je	LBB136_4
	jmp	LBB136_2
LBB136_2:
	.loc	26 1 1 is_stmt 1
	jmp	LBB136_1
LBB136_3:
	.loc	26 0 1 is_stmt 0
	movq	-80(%rbp), %rax
	.loc	38 235 35 is_stmt 1
	movq	-56(%rbp), %rdx
	movq	%rdx, -16(%rbp)
	.loc	38 235 38 is_stmt 0
	movq	-48(%rbp), %rcx
	movq	%rcx, -8(%rbp)
Ltmp845:
	.loc	38 235 56
	movq	%rdx, -40(%rbp)
	movq	%rcx, -32(%rbp)
	.loc	38 235 51
	movq	-40(%rbp), %rdx
	movq	-32(%rbp), %rcx
	movq	%rdx, 8(%rax)
	movq	%rcx, 16(%rax)
	movq	$1, (%rax)
Ltmp846:
	.loc	26 1 1 is_stmt 1
	jmp	LBB136_5
LBB136_4:
	.loc	26 0 1 is_stmt 0
	movq	-80(%rbp), %rax
	.loc	38 236 44 is_stmt 1
	movq	$0, (%rax)
LBB136_5:
	.loc	38 0 44 is_stmt 0
	movq	-72(%rbp), %rax
	.loc	38 240 6 is_stmt 1
	addq	$96, %rsp
	popq	%rbp
	retq
Ltmp847:
Lfunc_end136:
	.cfi_endproc

	.p2align	4, 0x90
__ZN4core4char7methods15encode_utf8_raw17hcfa76fceb2716f17E:
Lfunc_begin137:
	.file	57 "/rustc/2c8cc343237b8f7d5a3c3703e3a87f2eb2c54a74/library/core/src/char" "methods.rs"
	.loc	57 1729 0
	.cfi_startproc
	pushq	%rbp
	.cfi_def_cfa_offset 16
	.cfi_offset %rbp, -16
	movq	%rsp, %rbp
	.cfi_def_cfa_register %rbp
	subq	$560, %rsp
	movq	%rsi, -544(%rbp)
	movq	%rdx, -536(%rbp)
	movl	%edi, -516(%rbp)
	movq	%rsi, -304(%rbp)
	movq	%rdx, -296(%rbp)
Ltmp848:
	.loc	57 1730 24 prologue_end
	movl	-516(%rbp), %edi
	.loc	57 1730 15 is_stmt 0
	callq	__ZN4core4char7methods8len_utf817hb54d36425b29e371E
	movq	-544(%rbp), %rsi
	movq	-536(%rbp), %rdx
	movq	%rax, -512(%rbp)
Ltmp849:
	.loc	57 1731 12 is_stmt 1
	movq	-512(%rbp), %rax
	.loc	57 1731 22 is_stmt 0
	movq	%rsi, -272(%rbp)
	movq	%rdx, -264(%rbp)
Ltmp850:
	.loc	7 30 25 is_stmt 1
	movq	%rsi, -256(%rbp)
	movq	%rdx, -248(%rbp)
Ltmp851:
	.loc	57 1731 11
	movq	%rax, -504(%rbp)
	movq	%rsi, -496(%rbp)
	movq	%rdx, -488(%rbp)
	.loc	57 1731 5 is_stmt 0
	movq	-504(%rbp), %rax
	decq	%rax
	movq	%rax, -528(%rbp)
	subq	$3, %rax
	ja	LBB137_1
	.loc	57 0 5
	movq	-528(%rbp), %rax
	leaq	LJTI137_0(%rip), %rcx
	movslq	(%rcx,%rax,4), %rax
	addq	%rcx, %rax
	jmpq	*%rax
LBB137_1:
	movq	-536(%rbp), %rcx
	leaq	-512(%rbp), %rsi
	.loc	57 1750 14 is_stmt 1
	movq	%rsi, -120(%rbp)
Ltmp852:
	.loc	36 328 23
	movq	%rsi, -112(%rbp)
	.loc	36 328 26 is_stmt 0
	movq	__ZN4core3fmt3num3imp54_$LT$impl$u20$core..fmt..Display$u20$for$u20$usize$GT$3fmt17ha5c925fcd7ed33faE@GOTPCREL(%rip), %rax
	movq	%rax, -104(%rbp)
Ltmp853:
	.loc	36 347 42 is_stmt 1
	movq	%rax, -96(%rbp)
	movq	-96(%rbp), %rdx
	.loc	36 347 68 is_stmt 0
	movq	%rsi, -88(%rbp)
	movq	-88(%rbp), %rsi
	.loc	36 347 18
	movq	%rsi, -384(%rbp)
	movq	%rdx, -376(%rbp)
	leaq	-516(%rbp), %rsi
Ltmp854:
	.loc	57 1750 14 is_stmt 1
	movq	%rsi, -80(%rbp)
Ltmp855:
	.loc	36 328 23
	movq	%rsi, -72(%rbp)
	.loc	36 328 26 is_stmt 0
	movq	__ZN4core3fmt3num53_$LT$impl$u20$core..fmt..UpperHex$u20$for$u20$u32$GT$3fmt17ha96bbefe8f663d11E@GOTPCREL(%rip), %rdx
	movq	%rdx, -64(%rbp)
Ltmp856:
	.loc	36 347 42 is_stmt 1
	movq	%rdx, -56(%rbp)
	movq	-56(%rbp), %rdx
	.loc	36 347 68 is_stmt 0
	movq	%rsi, -48(%rbp)
	movq	-48(%rbp), %rsi
	.loc	36 347 18
	movq	%rsi, -368(%rbp)
	movq	%rdx, -360(%rbp)
Ltmp857:
	.loc	57 1754 13 is_stmt 1
	movq	%rcx, -336(%rbp)
	leaq	-336(%rbp), %rcx
	.loc	57 1750 14
	movq	%rcx, -40(%rbp)
Ltmp858:
	.loc	36 328 23
	movq	%rcx, -32(%rbp)
	.loc	36 328 26 is_stmt 0
	movq	%rax, -24(%rbp)
Ltmp859:
	.loc	36 347 42 is_stmt 1
	movq	%rax, -16(%rbp)
	movq	-16(%rbp), %rax
	.loc	36 347 68 is_stmt 0
	movq	%rcx, -8(%rbp)
	movq	-8(%rbp), %rcx
	.loc	36 347 18
	movq	%rcx, -352(%rbp)
	movq	%rax, -344(%rbp)
Ltmp860:
	.loc	57 1750 14 is_stmt 1
	movq	-384(%rbp), %rcx
	movq	-376(%rbp), %rax
	movq	%rcx, -432(%rbp)
	movq	%rax, -424(%rbp)
	movq	-368(%rbp), %rcx
	movq	-360(%rbp), %rax
	movq	%rcx, -416(%rbp)
	movq	%rax, -408(%rbp)
	movq	-352(%rbp), %rcx
	movq	-344(%rbp), %rax
	movq	%rcx, -400(%rbp)
	movq	%rax, -392(%rbp)
	leaq	l___unnamed_29(%rip), %rsi
	leaq	-480(%rbp), %rdi
	movq	%rdi, -552(%rbp)
	leaq	-432(%rbp), %rcx
	movl	$3, %r8d
	movq	%r8, %rdx
	callq	__ZN4core3fmt9Arguments6new_v117h746c3dd55c20477aE
	movq	-552(%rbp), %rdi
	leaq	l___unnamed_30(%rip), %rsi
	callq	__ZN4core9panicking9panic_fmt17h9b5d807e24bcaaedE
LBB137_2:
	.loc	57 1732 13
	cmpq	$1, -488(%rbp)
	jae	LBB137_10
	jmp	LBB137_1
LBB137_3:
	.loc	57 1735 13
	cmpq	$2, -488(%rbp)
	jae	LBB137_9
	jmp	LBB137_1
LBB137_4:
	.loc	57 1739 13
	cmpq	$3, -488(%rbp)
	jae	LBB137_8
	jmp	LBB137_1
LBB137_5:
	.loc	57 1744 13
	cmpq	$4, -488(%rbp)
	jb	LBB137_1
	.loc	57 1744 14 is_stmt 0
	movq	-496(%rbp), %rsi
	movq	%rsi, -240(%rbp)
	.loc	57 1744 17
	movq	-496(%rbp), %rdx
	movq	%rdx, %rax
	addq	$1, %rax
	movq	%rax, -232(%rbp)
	.loc	57 1744 20
	movq	-496(%rbp), %rcx
	movq	%rcx, %rax
	addq	$2, %rax
	movq	%rax, -224(%rbp)
	.loc	57 1744 23
	movq	-496(%rbp), %rax
	movq	%rax, %rdi
	addq	$3, %rdi
	movq	%rdi, -216(%rbp)
Ltmp861:
	.loc	57 1745 19 is_stmt 1
	movl	-516(%rbp), %edi
	shrl	$18, %edi
	.loc	57 1745 18 is_stmt 0
	andl	$7, %edi
	.loc	57 1745 13
	orb	$-16, %dil
	movb	%dil, (%rsi)
	.loc	57 1746 19 is_stmt 1
	movl	-516(%rbp), %esi
	shrl	$12, %esi
	.loc	57 1746 18 is_stmt 0
	andl	$63, %esi
	.loc	57 1746 13
	orb	$-128, %sil
	movb	%sil, 1(%rdx)
	.loc	57 1747 19 is_stmt 1
	movl	-516(%rbp), %edx
	shrl	$6, %edx
	.loc	57 1747 18 is_stmt 0
	andl	$63, %edx
	.loc	57 1747 13
	orb	$-128, %dl
	movb	%dl, 2(%rcx)
	.loc	57 1748 19 is_stmt 1
	movl	-516(%rbp), %ecx
	.loc	57 1748 18 is_stmt 0
	andl	$63, %ecx
	.loc	57 1748 13
	orb	$-128, %cl
	movb	%cl, 3(%rax)
Ltmp862:
LBB137_7:
	.loc	57 0 13
	movq	-536(%rbp), %rcx
	movq	-544(%rbp), %rdx
	.loc	57 1757 10 is_stmt 1
	movq	%rdx, -160(%rbp)
	movq	%rcx, -152(%rbp)
	.loc	57 1757 16 is_stmt 0
	movq	-512(%rbp), %rax
	.loc	57 1757 14
	movq	%rax, -328(%rbp)
Ltmp863:
	.loc	7 30 9 is_stmt 1
	movq	-328(%rbp), %rax
	movq	%rax, -144(%rbp)
	.loc	7 30 25 is_stmt 0
	movq	%rdx, -136(%rbp)
	movq	%rcx, -128(%rbp)
Ltmp864:
	.loc	7 461 9 is_stmt 1
	movq	$0, -320(%rbp)
	movq	%rax, -312(%rbp)
	movq	-320(%rbp), %rdi
	movq	-312(%rbp), %rsi
	leaq	l___unnamed_31(%rip), %r8
	callq	__ZN106_$LT$core..ops..range..Range$LT$usize$GT$$u20$as$u20$core..slice..index..SliceIndex$LT$$u5b$T$u5d$$GT$$GT$9index_mut17h8a7ac6b295edfbdcE
Ltmp865:
	.loc	57 1758 2
	addq	$560, %rsp
	popq	%rbp
	retq
LBB137_8:
Ltmp866:
	.loc	57 1739 14
	movq	-496(%rbp), %rdx
	movq	%rdx, -208(%rbp)
	.loc	57 1739 17 is_stmt 0
	movq	-496(%rbp), %rcx
	movq	%rcx, %rax
	addq	$1, %rax
	movq	%rax, -200(%rbp)
	.loc	57 1739 20
	movq	-496(%rbp), %rax
	movq	%rax, %rsi
	addq	$2, %rsi
	movq	%rsi, -192(%rbp)
Ltmp867:
	.loc	57 1740 19 is_stmt 1
	movl	-516(%rbp), %esi
	shrl	$12, %esi
	.loc	57 1740 18 is_stmt 0
	andl	$15, %esi
	.loc	57 1740 13
	orb	$-32, %sil
	movb	%sil, (%rdx)
	.loc	57 1741 19 is_stmt 1
	movl	-516(%rbp), %edx
	shrl	$6, %edx
	.loc	57 1741 18 is_stmt 0
	andl	$63, %edx
	.loc	57 1741 13
	orb	$-128, %dl
	movb	%dl, 1(%rcx)
	.loc	57 1742 19 is_stmt 1
	movl	-516(%rbp), %ecx
	.loc	57 1742 18 is_stmt 0
	andl	$63, %ecx
	.loc	57 1742 13
	orb	$-128, %cl
	movb	%cl, 2(%rax)
Ltmp868:
	.loc	57 1743 9 is_stmt 1
	jmp	LBB137_7
LBB137_9:
	.loc	57 1735 14
	movq	-496(%rbp), %rcx
	movq	%rcx, -184(%rbp)
	.loc	57 1735 17 is_stmt 0
	movq	-496(%rbp), %rax
	movq	%rax, %rdx
	addq	$1, %rdx
	movq	%rdx, -176(%rbp)
Ltmp869:
	.loc	57 1736 19 is_stmt 1
	movl	-516(%rbp), %edx
	shrl	$6, %edx
	.loc	57 1736 18 is_stmt 0
	andl	$31, %edx
	.loc	57 1736 13
	orb	$-64, %dl
	movb	%dl, (%rcx)
	.loc	57 1737 19 is_stmt 1
	movl	-516(%rbp), %ecx
	.loc	57 1737 18 is_stmt 0
	andl	$63, %ecx
	.loc	57 1737 13
	orb	$-128, %cl
	movb	%cl, 1(%rax)
Ltmp870:
	.loc	57 1738 9 is_stmt 1
	jmp	LBB137_7
LBB137_10:
	.loc	57 1732 14
	movq	-496(%rbp), %rax
	movq	%rax, -168(%rbp)
Ltmp871:
	.loc	57 1733 18
	movl	-516(%rbp), %ecx
	.loc	57 1733 13 is_stmt 0
	movb	%cl, (%rax)
Ltmp872:
	.loc	57 1734 9 is_stmt 1
	jmp	LBB137_7
Ltmp873:
Lfunc_end137:
	.cfi_endproc
	.p2align	2, 0x90
	.data_region jt32
.set L137_0_set_2, LBB137_2-LJTI137_0
.set L137_0_set_3, LBB137_3-LJTI137_0
.set L137_0_set_4, LBB137_4-LJTI137_0
.set L137_0_set_5, LBB137_5-LJTI137_0
LJTI137_0:
	.long	L137_0_set_2
	.long	L137_0_set_3
	.long	L137_0_set_4
	.long	L137_0_set_5
	.end_data_region

	.p2align	4, 0x90
__ZN4core4char7methods22_$LT$impl$u20$char$GT$14is_ascii_digit17h1872714d9ce04b42E:
Lfunc_begin138:
	.loc	57 1448 0
	.cfi_startproc
	pushq	%rbp
	.cfi_def_cfa_offset 16
	.cfi_offset %rbp, -16
	movq	%rsp, %rbp
	.cfi_def_cfa_register %rbp
	subq	$24, %rsp
	movq	%rdi, -24(%rbp)
	movq	%rdi, -8(%rbp)
Ltmp874:
	.loc	57 1449 25 prologue_end
	movl	$48, %eax
	cmpl	(%rdi), %eax
	jbe	LBB138_2
LBB138_1:
	.loc	57 1449 9 is_stmt 0
	movb	$0, -9(%rbp)
	jmp	LBB138_4
LBB138_2:
	.loc	57 0 9
	movq	-24(%rbp), %rax
	.loc	57 1449 25
	cmpl	$57, (%rax)
	ja	LBB138_1
	.loc	57 1449 9
	movb	$1, -9(%rbp)
LBB138_4:
	.loc	57 1450 6 is_stmt 1
	movb	-9(%rbp), %al
	andb	$1, %al
	movzbl	%al, %eax
	addq	$24, %rsp
	popq	%rbp
	retq
Ltmp875:
Lfunc_end138:
	.cfi_endproc

	.p2align	4, 0x90
__ZN4core4char7methods8len_utf817hb54d36425b29e371E:
Lfunc_begin139:
	.loc	57 1701 0
	.cfi_startproc
	pushq	%rbp
	.cfi_def_cfa_offset 16
	.cfi_offset %rbp, -16
	movq	%rsp, %rbp
	.cfi_def_cfa_register %rbp
	subq	$24, %rsp
	movl	%edi, -20(%rbp)
	movl	%edi, -4(%rbp)
Ltmp876:
	.loc	57 1702 8 prologue_end
	cmpl	$128, %edi
	jb	LBB139_2
	.loc	57 0 8 is_stmt 0
	movl	-20(%rbp), %eax
	.loc	57 1704 15 is_stmt 1
	cmpl	$2048, %eax
	jb	LBB139_5
	jmp	LBB139_4
LBB139_2:
	.loc	57 1703 9
	movq	$1, -16(%rbp)
LBB139_3:
	.loc	57 1711 2
	movq	-16(%rbp), %rax
	addq	$24, %rsp
	popq	%rbp
	retq
LBB139_4:
	.loc	57 0 2 is_stmt 0
	movl	-20(%rbp), %eax
	.loc	57 1706 15 is_stmt 1
	cmpl	$65536, %eax
	jb	LBB139_8
	jmp	LBB139_7
LBB139_5:
	.loc	57 1705 9
	movq	$2, -16(%rbp)
LBB139_6:
	.loc	57 1702 5
	jmp	LBB139_3
LBB139_7:
	.loc	57 1709 9
	movq	$4, -16(%rbp)
	.loc	57 1706 12
	jmp	LBB139_9
LBB139_8:
	.loc	57 1707 9
	movq	$3, -16(%rbp)
LBB139_9:
	.loc	57 1704 12
	jmp	LBB139_6
Ltmp877:
Lfunc_end139:
	.cfi_endproc

	.globl	__ZN4core4hash11BuildHasher8hash_one17h7f72b2806f37107cE
	.p2align	4, 0x90
__ZN4core4hash11BuildHasher8hash_one17h7f72b2806f37107cE:
Lfunc_begin140:
	.file	58 "/rustc/2c8cc343237b8f7d5a3c3703e3a87f2eb2c54a74/library/core/src/hash" "mod.rs"
	.loc	58 718 0
	.cfi_startproc
	.cfi_personality 155, _rust_eh_personality
	.cfi_lsda 16, Lexception19
	pushq	%rbp
	.cfi_def_cfa_offset 16
	.cfi_offset %rbp, -16
	movq	%rsp, %rbp
	.cfi_def_cfa_register %rbp
	subq	$112, %rsp
	movq	%rsi, %rax
	movq	%rdi, %rsi
	movq	%rax, -104(%rbp)
	movq	%rsi, -24(%rbp)
Ltmp878:
	leaq	-96(%rbp), %rdi
Ltmp886:
	.loc	58 723 26 prologue_end
	callq	__ZN84_$LT$std..collections..hash..map..RandomState$u20$as$u20$core..hash..BuildHasher$GT$12build_hasher17hba120f3452bb0523E
Ltmp879:
	jmp	LBB140_3
LBB140_1:
	.loc	58 718 5
	movq	-16(%rbp), %rdi
	callq	__Unwind_Resume
LBB140_2:
Ltmp880:
	.loc	58 0 5 is_stmt 0
	movq	%rax, %rcx
	movl	%edx, %eax
	movq	%rcx, -16(%rbp)
	movl	%eax, -8(%rbp)
	jmp	LBB140_1
LBB140_3:
Ltmp881:
	leaq	-104(%rbp), %rdi
	leaq	-96(%rbp), %rsi
Ltmp887:
	.loc	58 724 9 is_stmt 1
	callq	__ZN4core4hash5impls52_$LT$impl$u20$core..hash..Hash$u20$for$u20$$RF$T$GT$4hash17hca6e700dfc511439E
Ltmp882:
	jmp	LBB140_6
Ltmp888:
LBB140_4:
	.loc	58 726 5
	jmp	LBB140_1
LBB140_5:
Ltmp885:
	.loc	58 0 5 is_stmt 0
	movq	%rax, %rcx
	movl	%edx, %eax
	movq	%rcx, -16(%rbp)
	movl	%eax, -8(%rbp)
	jmp	LBB140_4
LBB140_6:
Ltmp883:
	leaq	-96(%rbp), %rdi
Ltmp889:
	.loc	58 725 9 is_stmt 1
	callq	__ZN81_$LT$std..collections..hash..map..DefaultHasher$u20$as$u20$core..hash..Hasher$GT$6finish17h387c78f547d579b0E
Ltmp884:
	movq	%rax, -112(%rbp)
	jmp	LBB140_7
Ltmp890:
LBB140_7:
	.loc	58 726 5
	jmp	LBB140_8
LBB140_8:
	.loc	58 0 5 is_stmt 0
	movq	-112(%rbp), %rax
	.loc	58 726 6
	addq	$112, %rsp
	popq	%rbp
	retq
Ltmp891:
Lfunc_end140:
	.cfi_endproc
	.section	__TEXT,__gcc_except_tab
	.p2align	2
GCC_except_table140:
Lexception19:
	.byte	255
	.byte	255
	.byte	1
	.uleb128 Lcst_end19-Lcst_begin19
Lcst_begin19:
	.uleb128 Ltmp878-Lfunc_begin140
	.uleb128 Ltmp879-Ltmp878
	.uleb128 Ltmp880-Lfunc_begin140
	.byte	0
	.uleb128 Ltmp879-Lfunc_begin140
	.uleb128 Ltmp881-Ltmp879
	.byte	0
	.byte	0
	.uleb128 Ltmp881-Lfunc_begin140
	.uleb128 Ltmp884-Ltmp881
	.uleb128 Ltmp885-Lfunc_begin140
	.byte	0
Lcst_end19:
	.p2align	2

	.section	__TEXT,__text,regular,pure_instructions
	.globl	__ZN4core4hash5impls50_$LT$impl$u20$core..hash..Hash$u20$for$u20$u64$GT$4hash17h7f6196c4715aecc1E
	.p2align	4, 0x90
__ZN4core4hash5impls50_$LT$impl$u20$core..hash..Hash$u20$for$u20$u64$GT$4hash17h7f6196c4715aecc1E:
Lfunc_begin141:
	.loc	58 831 0 is_stmt 1
	.cfi_startproc
	pushq	%rbp
	.cfi_def_cfa_offset 16
	.cfi_offset %rbp, -16
	movq	%rsp, %rbp
	.cfi_def_cfa_register %rbp
	subq	$32, %rsp
	movq	%rsi, -24(%rbp)
	movq	%rdi, %rax
	movq	-24(%rbp), %rdi
	movq	%rax, -16(%rbp)
	movq	%rdi, -8(%rbp)
Ltmp892:
	.loc	58 832 33 prologue_end
	movq	(%rax), %rsi
	.loc	58 832 21 is_stmt 0
	callq	__ZN4core4hash6Hasher9write_u6417h44e79e65521fec43E
	.loc	58 833 18 is_stmt 1
	addq	$32, %rsp
	popq	%rbp
	retq
Ltmp893:
Lfunc_end141:
	.cfi_endproc

	.globl	__ZN4core4hash5impls52_$LT$impl$u20$core..hash..Hash$u20$for$u20$$RF$T$GT$4hash17hca6e700dfc511439E
	.p2align	4, 0x90
__ZN4core4hash5impls52_$LT$impl$u20$core..hash..Hash$u20$for$u20$$RF$T$GT$4hash17hca6e700dfc511439E:
Lfunc_begin142:
	.loc	58 974 0
	.cfi_startproc
	pushq	%rbp
	.cfi_def_cfa_offset 16
	.cfi_offset %rbp, -16
	movq	%rsp, %rbp
	.cfi_def_cfa_register %rbp
	subq	$16, %rsp
	movq	%rdi, -16(%rbp)
	movq	%rsi, -8(%rbp)
Ltmp894:
	.loc	58 975 13 prologue_end
	movq	(%rdi), %rdi
	callq	__ZN54_$LT$epaint..TextureId$u20$as$u20$core..hash..Hash$GT$4hash17h787652572606fbe1E
	.loc	58 976 10
	addq	$16, %rsp
	popq	%rbp
	retq
Ltmp895:
Lfunc_end142:
	.cfi_endproc

	.globl	__ZN4core4hash6Hasher9write_u6417h44e79e65521fec43E
	.p2align	4, 0x90
__ZN4core4hash6Hasher9write_u6417h44e79e65521fec43E:
Lfunc_begin143:
	.loc	58 400 0
	.cfi_startproc
	pushq	%rbp
	.cfi_def_cfa_offset 16
	.cfi_offset %rbp, -16
	movq	%rsp, %rbp
	.cfi_def_cfa_register %rbp
	subq	$32, %rsp
	movq	%rdi, -24(%rbp)
	movq	%rsi, -16(%rbp)
Ltmp896:
	.loc	58 401 21 prologue_end
	movq	%rsi, -8(%rbp)
Ltmp897:
	.loc	16 2316 22
	movq	%rsi, -32(%rbp)
Ltmp898:
	.loc	58 401 9
	leaq	-32(%rbp), %rsi
	movl	$8, %edx
	callq	__ZN81_$LT$std..collections..hash..map..DefaultHasher$u20$as$u20$core..hash..Hasher$GT$5write17h7b306f4ab8de8ddaE
	.loc	58 402 6
	addq	$32, %rsp
	popq	%rbp
	retq
Ltmp899:
Lfunc_end143:
	.cfi_endproc

	.p2align	4, 0x90
__ZN4core4hint21unreachable_unchecked17h73f4d6d1a9cafb0aE:
Lfunc_begin144:
	.file	59 "/rustc/2c8cc343237b8f7d5a3c3703e3a87f2eb2c54a74/library/core/src" "hint.rs"
	.loc	59 100 0
	.cfi_startproc
	pushq	%rbp
	.cfi_def_cfa_offset 16
	.cfi_offset %rbp, -16
	movq	%rsp, %rbp
	.cfi_def_cfa_register %rbp
Ltmp900:
	.loc	59 104 9 prologue_end
	ud2
Ltmp901:
Lfunc_end144:
	.cfi_endproc

	.globl	__ZN4core4iter6traits8iterator8Iterator3map17h265c9caf6bf80540E
	.p2align	4, 0x90
__ZN4core4iter6traits8iterator8Iterator3map17h265c9caf6bf80540E:
Lfunc_begin145:
	.loc	54 782 0
	.cfi_startproc
	pushq	%rbp
	.cfi_def_cfa_offset 16
	.cfi_offset %rbp, -16
	movq	%rsp, %rbp
	.cfi_def_cfa_register %rbp
	subq	$48, %rsp
	movq	%rdi, %rax
	movq	%rax, -40(%rbp)
Ltmp902:
	.loc	54 787 18 prologue_end
	movq	(%rsi), %rax
	movq	%rax, -32(%rbp)
	movq	8(%rsi), %rax
	movq	%rax, -24(%rbp)
	movq	16(%rsi), %rax
	movq	%rax, -16(%rbp)
	.loc	54 787 9 is_stmt 0
	leaq	-32(%rbp), %rsi
Ltmp903:
	callq	__ZN4core4iter8adapters3map16Map$LT$I$C$F$GT$3new17ha7d05d34ddb00dd6E
	movq	-40(%rbp), %rax
	.loc	54 788 6 is_stmt 1
	addq	$48, %rsp
	popq	%rbp
	retq
Ltmp904:
Lfunc_end145:
	.cfi_endproc

	.globl	__ZN4core4iter6traits8iterator8Iterator3map17haa12b9544e19db44E
	.p2align	4, 0x90
__ZN4core4iter6traits8iterator8Iterator3map17haa12b9544e19db44E:
Lfunc_begin146:
	.loc	54 782 0
	.cfi_startproc
	pushq	%rbp
	.cfi_def_cfa_offset 16
	.cfi_offset %rbp, -16
	movq	%rsp, %rbp
	.cfi_def_cfa_register %rbp
	subq	$112, %rsp
	movq	%rdi, -112(%rbp)
	movq	%rdi, -104(%rbp)
Ltmp905:
	.loc	54 787 18 prologue_end
	leaq	-96(%rbp), %rdi
	movl	$88, %edx
	callq	_memcpy
Ltmp906:
	.loc	54 0 18 is_stmt 0
	movq	-112(%rbp), %rdi
	.loc	54 787 9
	leaq	-96(%rbp), %rsi
	callq	__ZN4core4iter8adapters3map16Map$LT$I$C$F$GT$3new17h3dad27b1384f88a0E
	movq	-104(%rbp), %rax
	.loc	54 788 6 is_stmt 1
	addq	$112, %rsp
	popq	%rbp
	retq
Ltmp907:
Lfunc_end146:
	.cfi_endproc

	.globl	__ZN4core4iter6traits8iterator8Iterator4fold17hf8a5759e035fa903E
	.p2align	4, 0x90
__ZN4core4iter6traits8iterator8Iterator4fold17hf8a5759e035fa903E:
Lfunc_begin147:
	.loc	54 2431 0
	.cfi_startproc
	.cfi_personality 155, _rust_eh_personality
	.cfi_lsda 16, Lexception20
	pushq	%rbp
	.cfi_def_cfa_offset 16
	.cfi_offset %rbp, -16
	movq	%rsp, %rbp
	.cfi_def_cfa_register %rbp
	subq	$112, %rsp
	movq	%rdi, -96(%rbp)
	movq	%rsi, -88(%rbp)
	movq	%rdx, -80(%rbp)
	movss	%xmm0, -72(%rbp)
Ltmp913:
	.loc	54 2436 25 prologue_end
	movb	$1, -41(%rbp)
LBB147_1:
Ltmp908:
	.loc	54 0 25 is_stmt 0
	leaq	-96(%rbp), %rdi
Ltmp914:
	.loc	54 2437 29 is_stmt 1
	callq	__ZN91_$LT$core..slice..iter..Iter$LT$T$GT$$u20$as$u20$core..iter..traits..iterator..Iterator$GT$4next17h0e6cd8d31069cd49E
Ltmp909:
	movq	%rax, -104(%rbp)
	jmp	LBB147_4
Ltmp915:
LBB147_2:
	.loc	54 2441 5
	testb	$1, -41(%rbp)
	jne	LBB147_11
	jmp	LBB147_10
LBB147_3:
Ltmp912:
	.loc	54 0 5 is_stmt 0
	movq	%rax, %rcx
	movl	%edx, %eax
	movq	%rcx, -24(%rbp)
	movl	%eax, -16(%rbp)
	jmp	LBB147_2
LBB147_4:
	movq	-104(%rbp), %rax
Ltmp916:
	.loc	54 2437 29 is_stmt 1
	movq	%rax, -64(%rbp)
	.loc	54 2437 19 is_stmt 0
	movq	-64(%rbp), %rdx
	movl	$1, %eax
	xorl	%ecx, %ecx
	cmpq	$0, %rdx
	cmoveq	%rcx, %rax
	cmpq	$1, %rax
	jne	LBB147_6
	.loc	54 2437 24
	movq	-64(%rbp), %rax
	movq	%rax, -8(%rbp)
	.loc	54 2438 23 is_stmt 1
	movb	$0, -41(%rbp)
	.loc	54 2438 21 is_stmt 0
	movq	%rax, -56(%rbp)
	movq	-56(%rbp), %rsi
Ltmp910:
	leaq	-80(%rbp), %rdi
	callq	__ZN4core4iter8adapters3map8map_fold28_$u7b$$u7b$closure$u7d$$u7d$17h6d7ce74e531da0b2E
Ltmp911:
	jmp	LBB147_9
Ltmp917:
LBB147_6:
	.loc	54 2437 9 is_stmt 1
	jmp	LBB147_7
Ltmp918:
LBB147_7:
	.loc	54 2441 5
	jmp	LBB147_8
LBB147_8:
	.loc	54 2441 6 is_stmt 0
	addq	$112, %rsp
	popq	%rbp
	retq
LBB147_9:
Ltmp919:
	.loc	54 2438 13 is_stmt 1
	movb	$1, -41(%rbp)
Ltmp920:
	.loc	54 2437 9
	jmp	LBB147_1
Ltmp921:
LBB147_10:
	.loc	54 2441 5
	jmp	LBB147_12
LBB147_11:
	jmp	LBB147_10
LBB147_12:
	.loc	54 2431 5
	movq	-24(%rbp), %rdi
	callq	__Unwind_Resume
Ltmp922:
Lfunc_end147:
	.cfi_endproc
	.section	__TEXT,__gcc_except_tab
	.p2align	2
GCC_except_table147:
Lexception20:
	.byte	255
	.byte	255
	.byte	1
	.uleb128 Lcst_end20-Lcst_begin20
Lcst_begin20:
	.uleb128 Ltmp908-Lfunc_begin147
	.uleb128 Ltmp911-Ltmp908
	.uleb128 Ltmp912-Lfunc_begin147
	.byte	0
	.uleb128 Ltmp911-Lfunc_begin147
	.uleb128 Lfunc_end147-Ltmp911
	.byte	0
	.byte	0
Lcst_end20:
	.p2align	2

	.section	__TEXT,__text,regular,pure_instructions
	.globl	__ZN4core4iter6traits8iterator8Iterator4fuse17hf14061061153440bE
	.p2align	4, 0x90
__ZN4core4iter6traits8iterator8Iterator4fuse17hf14061061153440bE:
Lfunc_begin148:
	.loc	54 1623 0
	.cfi_startproc
	pushq	%rbp
	.cfi_def_cfa_offset 16
	.cfi_offset %rbp, -16
	movq	%rsp, %rbp
	.cfi_def_cfa_register %rbp
	subq	$32, %rsp
	movq	%rdi, %rax
	movq	%rax, -32(%rbp)
Ltmp923:
	.loc	54 1627 19 prologue_end
	movq	(%rsi), %rax
	movq	%rax, -24(%rbp)
	movq	8(%rsi), %rax
	movq	%rax, -16(%rbp)
	movq	16(%rsi), %rax
	movq	%rax, -8(%rbp)
	.loc	54 1627 9 is_stmt 0
	leaq	-24(%rbp), %rsi
Ltmp924:
	callq	__ZN4core4iter8adapters4fuse13Fuse$LT$I$GT$3new17haeaebf35be8e7f54E
	movq	-32(%rbp), %rax
	.loc	54 1628 6 is_stmt 1
	addq	$32, %rsp
	popq	%rbp
	retq
Ltmp925:
Lfunc_end148:
	.cfi_endproc

	.globl	__ZN4core4iter6traits8iterator8Iterator4take17ha03ca801fd473461E
	.p2align	4, 0x90
__ZN4core4iter6traits8iterator8Iterator4take17ha03ca801fd473461E:
Lfunc_begin149:
	.loc	54 1382 0
	.cfi_startproc
	pushq	%rbp
	.cfi_def_cfa_offset 16
	.cfi_offset %rbp, -16
	movq	%rsp, %rbp
	.cfi_def_cfa_register %rbp
	subq	$112, %rsp
	movq	%rdx, -104(%rbp)
	movq	%rdi, -112(%rbp)
	movq	%rdi, -96(%rbp)
Ltmp926:
	movq	%rdx, -8(%rbp)
Ltmp927:
	.loc	54 1386 19 prologue_end
	leaq	-88(%rbp), %rdi
	movl	$80, %edx
	callq	_memcpy
Ltmp928:
	.loc	54 0 19 is_stmt 0
	movq	-112(%rbp), %rdi
	movq	-104(%rbp), %rdx
	.loc	54 1386 9
	leaq	-88(%rbp), %rsi
	callq	__ZN4core4iter8adapters4take13Take$LT$I$GT$3new17hb4a6024c7e1affd6E
	movq	-96(%rbp), %rax
	.loc	54 1387 6 is_stmt 1
	addq	$112, %rsp
	popq	%rbp
	retq
Ltmp929:
Lfunc_end149:
	.cfi_endproc

	.globl	__ZN4core4iter6traits8iterator8Iterator7collect17h5a9383bfdaeea200E
	.p2align	4, 0x90
__ZN4core4iter6traits8iterator8Iterator7collect17h5a9383bfdaeea200E:
Lfunc_begin150:
	.loc	54 1856 0
	.cfi_startproc
	pushq	%rbp
	.cfi_def_cfa_offset 16
	.cfi_offset %rbp, -16
	movq	%rsp, %rbp
	.cfi_def_cfa_register %rbp
	subq	$112, %rsp
	movq	%rdi, -104(%rbp)
	movq	%rdi, -96(%rbp)
Ltmp930:
	.loc	54 1860 33 prologue_end
	leaq	-88(%rbp), %rdi
	movl	$88, %edx
	callq	_memcpy
Ltmp931:
	.loc	54 0 33 is_stmt 0
	movq	-104(%rbp), %rdi
	.loc	54 1860 9
	leaq	-88(%rbp), %rsi
	callq	__ZN95_$LT$alloc..vec..Vec$LT$T$GT$$u20$as$u20$core..iter..traits..collect..FromIterator$LT$T$GT$$GT$9from_iter17hce81254855ce9f85E
	movq	-96(%rbp), %rax
	.loc	54 1861 6 is_stmt 1
	addq	$112, %rsp
	popq	%rbp
	retq
Ltmp932:
Lfunc_end150:
	.cfi_endproc

	.globl	__ZN4core4iter6traits8iterator8Iterator7collect17he090a228d0cac6faE
	.p2align	4, 0x90
__ZN4core4iter6traits8iterator8Iterator7collect17he090a228d0cac6faE:
Lfunc_begin151:
	.loc	54 1856 0
	.cfi_startproc
	pushq	%rbp
	.cfi_def_cfa_offset 16
	.cfi_offset %rbp, -16
	movq	%rsp, %rbp
	.cfi_def_cfa_register %rbp
	subq	$112, %rsp
	movq	%rdi, -104(%rbp)
	movq	%rdi, -96(%rbp)
Ltmp933:
	.loc	54 1860 33 prologue_end
	leaq	-88(%rbp), %rdi
	movl	$88, %edx
	callq	_memcpy
Ltmp934:
	.loc	54 0 33 is_stmt 0
	movq	-104(%rbp), %rdi
	.loc	54 1860 9
	leaq	-88(%rbp), %rsi
	callq	__ZN95_$LT$alloc..vec..Vec$LT$T$GT$$u20$as$u20$core..iter..traits..collect..FromIterator$LT$T$GT$$GT$9from_iter17h3a80ca4e1bc19b93E
	movq	-96(%rbp), %rax
	.loc	54 1861 6 is_stmt 1
	addq	$112, %rsp
	popq	%rbp
	retq
Ltmp935:
Lfunc_end151:
	.cfi_endproc

	.globl	__ZN4core4iter6traits8iterator8Iterator8flat_map17h144e619ed6f6c653E
	.p2align	4, 0x90
__ZN4core4iter6traits8iterator8Iterator8flat_map17h144e619ed6f6c653E:
Lfunc_begin152:
	.loc	54 1471 0
	.cfi_startproc
	pushq	%rbp
	.cfi_def_cfa_offset 16
	.cfi_offset %rbp, -16
	movq	%rsp, %rbp
	.cfi_def_cfa_register %rbp
	subq	$48, %rsp
	movq	%rdi, %rax
	movq	%rax, -40(%rbp)
Ltmp936:
	.loc	54 1477 22 prologue_end
	movq	(%rsi), %rax
	movq	%rax, -32(%rbp)
	movq	8(%rsi), %rax
	movq	%rax, -24(%rbp)
	movq	16(%rsi), %rax
	movq	%rax, -16(%rbp)
	.loc	54 1477 9 is_stmt 0
	leaq	-32(%rbp), %rsi
Ltmp937:
	callq	__ZN4core4iter8adapters7flatten24FlatMap$LT$I$C$U$C$F$GT$3new17h72ca47a556d25bd9E
	movq	-40(%rbp), %rax
	.loc	54 1478 6 is_stmt 1
	addq	$48, %rsp
	popq	%rbp
	retq
Ltmp938:
Lfunc_end152:
	.cfi_endproc

	.globl	__ZN4core4iter6traits8iterator8Iterator8for_each17h2c04bf099dd106e3E
	.p2align	4, 0x90
__ZN4core4iter6traits8iterator8Iterator8for_each17h2c04bf099dd106e3E:
Lfunc_begin153:
	.loc	54 827 0
	.cfi_startproc
	.cfi_personality 155, _rust_eh_personality
	.cfi_lsda 16, Lexception21
	pushq	%rbp
	.cfi_def_cfa_offset 16
	.cfi_offset %rbp, -16
	movq	%rsp, %rbp
	.cfi_def_cfa_register %rbp
	subq	$176, %rsp
	movq	%rsi, %rax
	movq	%rdi, %rsi
Ltmp945:
	movq	%rax, -168(%rbp)
Ltmp946:
	movl	$11, %ecx
	leaq	-152(%rbp), %rdi
	movq	%rdi, -160(%rbp)
Ltmp947:
	.loc	54 837 9 prologue_end
	rep;movsq (%rsi), %es:(%rdi)
Ltmp948:
	.loc	54 0 9 is_stmt 0
	movq	-168(%rbp), %rsi
	movq	-160(%rbp), %rdi
	.loc	54 837 28
	movq	16(%rsi), %rax
	movq	%rax, -24(%rbp)
	movq	(%rsi), %rax
	movq	8(%rsi), %rcx
	movq	%rcx, -32(%rbp)
	movq	%rax, -40(%rbp)
Ltmp949:
	.loc	54 834 13 is_stmt 1
	movq	-24(%rbp), %rax
	movq	%rax, -48(%rbp)
	movq	-40(%rbp), %rax
	movq	-32(%rbp), %rcx
	movq	%rcx, -56(%rbp)
	movq	%rax, -64(%rbp)
Ltmp939:
	leaq	-64(%rbp), %rsi
Ltmp950:
	.loc	54 837 9
	callq	__ZN114_$LT$core..iter..adapters..flatten..FlatMap$LT$I$C$U$C$F$GT$$u20$as$u20$core..iter..traits..iterator..Iterator$GT$4fold17h5e91dca65dfe8740E
Ltmp940:
	jmp	LBB153_3
Ltmp951:
LBB153_1:
	.loc	54 837 30 is_stmt 0
	xorl	%eax, %eax
	testb	$1, %al
	jne	LBB153_5
	jmp	LBB153_4
Ltmp952:
LBB153_2:
Ltmp941:
	.loc	54 0 30
	movq	%rax, %rcx
	movl	%edx, %eax
	movq	%rcx, -16(%rbp)
	movl	%eax, -8(%rbp)
	jmp	LBB153_1
Ltmp953:
LBB153_3:
	.loc	54 838 6 is_stmt 1
	addq	$176, %rsp
	popq	%rbp
	retq
Ltmp954:
LBB153_4:
	.loc	54 827 5
	movq	-16(%rbp), %rdi
	callq	__Unwind_Resume
Ltmp955:
LBB153_5:
Ltmp942:
	.loc	54 0 5 is_stmt 0
	leaq	-152(%rbp), %rdi
	.loc	54 837 30 is_stmt 1
	callq	__ZN4core3ptr307drop_in_place$LT$core..iter..adapters..flatten..FlatMap$LT$core..iter..adapters..map..Map$LT$core..slice..iter..Iter$LT$f32$GT$$C$epaint..image..FontImage..srgba_pixels..$u7b$$u7b$closure$u7d$$u7d$$GT$$C$$u5b$u8$u3b$$u20$4$u5d$$C$egui_glow..painter..Painter..set_texture..$u7b$$u7b$closure$u7d$$u7d$$GT$$GT$17h91cb8ee8e836ca8aE
Ltmp943:
	jmp	LBB153_4
Ltmp956:
LBB153_6:
Ltmp944:
	.loc	54 827 5
	callq	__ZN4core9panicking19panic_cannot_unwind17h1fbca7e1d7f56ae1E
Ltmp957:
Lfunc_end153:
	.cfi_endproc
	.section	__TEXT,__gcc_except_tab
	.p2align	2
GCC_except_table153:
Lexception21:
	.byte	255
	.byte	255
	.byte	1
	.uleb128 Lcst_end21-Lcst_begin21
Lcst_begin21:
	.uleb128 Ltmp939-Lfunc_begin153
	.uleb128 Ltmp940-Ltmp939
	.uleb128 Ltmp941-Lfunc_begin153
	.byte	0
	.uleb128 Ltmp940-Lfunc_begin153
	.uleb128 Ltmp942-Ltmp940
	.byte	0
	.byte	0
	.uleb128 Ltmp942-Lfunc_begin153
	.uleb128 Ltmp943-Ltmp942
	.uleb128 Ltmp944-Lfunc_begin153
	.byte	0
Lcst_end21:
	.p2align	2

	.section	__TEXT,__text,regular,pure_instructions
	.globl	__ZN4core4iter6traits8iterator8Iterator8for_each4call28_$u7b$$u7b$closure$u7d$$u7d$17h028778fba01f0a84E
	.p2align	4, 0x90
__ZN4core4iter6traits8iterator8Iterator8for_each4call28_$u7b$$u7b$closure$u7d$$u7d$17h028778fba01f0a84E:
Lfunc_begin154:
	.loc	54 834 0
	.cfi_startproc
	pushq	%rbp
	.cfi_def_cfa_offset 16
	.cfi_offset %rbp, -16
	movq	%rsp, %rbp
	.cfi_def_cfa_register %rbp
	subq	$32, %rsp
	movb	%sil, %al
	movq	%rdi, -16(%rbp)
	movb	%al, -1(%rbp)
Ltmp958:
	.loc	54 834 29 prologue_end
	movb	%al, -17(%rbp)
	movzbl	-17(%rbp), %esi
	callq	__ZN5alloc3vec16Vec$LT$T$C$A$GT$14extend_trusted28_$u7b$$u7b$closure$u7d$$u7d$17h045c74e081acefcfE
	.loc	54 834 36 is_stmt 0
	addq	$32, %rsp
	popq	%rbp
	retq
Ltmp959:
Lfunc_end154:
	.cfi_endproc

	.globl	__ZN4core4iter6traits8iterator8Iterator8try_fold17h0cb3c9fbe79fd763E
	.p2align	4, 0x90
__ZN4core4iter6traits8iterator8Iterator8try_fold17h0cb3c9fbe79fd763E:
Lfunc_begin155:
	.loc	54 2254 0 is_stmt 1
	.cfi_startproc
	.cfi_personality 155, _rust_eh_personality
	.cfi_lsda 16, Lexception22
	pushq	%rbp
	.cfi_def_cfa_offset 16
	.cfi_offset %rbp, -16
	movq	%rsp, %rbp
	.cfi_def_cfa_register %rbp
	subq	$144, %rsp
	movq	%rdi, -120(%rbp)
	movq	%rsi, -112(%rbp)
	movq	%rdi, -64(%rbp)
Ltmp971:
	.loc	54 2260 25 prologue_end
	movb	$1, -65(%rbp)
LBB155_1:
Ltmp960:
	.loc	54 0 25 is_stmt 0
	movq	-120(%rbp), %rdi
Ltmp972:
	.loc	54 2261 29 is_stmt 1
	callq	__ZN93_$LT$core..ops..index_range..IndexRange$u20$as$u20$core..iter..traits..iterator..Iterator$GT$4next17h460b9cb70c24fca6E
Ltmp961:
	movq	%rdx, -136(%rbp)
	movq	%rax, -128(%rbp)
	jmp	LBB155_4
Ltmp973:
LBB155_2:
	.loc	54 2265 5
	testb	$1, -65(%rbp)
	jne	LBB155_16
	jmp	LBB155_15
LBB155_3:
Ltmp970:
	.loc	54 0 5 is_stmt 0
	movq	%rax, %rcx
	movl	%edx, %eax
	movq	%rcx, -24(%rbp)
	movl	%eax, -16(%rbp)
	jmp	LBB155_2
LBB155_4:
	movq	-136(%rbp), %rax
	movq	-128(%rbp), %rcx
Ltmp974:
	.loc	54 2261 29 is_stmt 1
	movq	%rcx, -104(%rbp)
	movq	%rax, -96(%rbp)
	.loc	54 2261 19 is_stmt 0
	cmpq	$1, -104(%rbp)
	jne	LBB155_6
	.loc	54 2261 24
	movq	-96(%rbp), %rax
	movq	%rax, -8(%rbp)
	.loc	54 2262 23 is_stmt 1
	movb	$0, -65(%rbp)
	.loc	54 2262 21 is_stmt 0
	movq	%rax, -80(%rbp)
	movq	-80(%rbp), %rsi
Ltmp964:
	leaq	-112(%rbp), %rdi
	callq	__ZN141_$LT$core..const_closure..ConstFnMutClosure$LT$$RF$mut$u20$A$C$Function$GT$$u20$as$u20$core..ops..function..FnMut$LT$ClosureArguments$GT$$GT$8call_mut17h22b32445f392f187E
Ltmp965:
	jmp	LBB155_10
Ltmp975:
LBB155_6:
	.loc	54 2261 9 is_stmt 1
	jmp	LBB155_7
LBB155_7:
	.loc	54 2264 15
	movb	$0, -65(%rbp)
Ltmp962:
	callq	__ZN94_$LT$core..ops..try_trait..NeverShortCircuit$LT$T$GT$$u20$as$u20$core..ops..try_trait..Try$GT$11from_output17h93e7fe20d2878a82E
Ltmp963:
	jmp	LBB155_8
Ltmp976:
LBB155_8:
	.loc	54 2265 5
	jmp	LBB155_9
LBB155_9:
	.loc	54 2265 6 is_stmt 0
	addq	$144, %rsp
	popq	%rbp
	retq
LBB155_10:
Ltmp966:
Ltmp977:
	.loc	54 2262 21 is_stmt 1
	callq	__ZN94_$LT$core..ops..try_trait..NeverShortCircuit$LT$T$GT$$u20$as$u20$core..ops..try_trait..Try$GT$6branch17h63a60a437541883bE
Ltmp967:
	jmp	LBB155_11
LBB155_11:
	movb	$1, %al
	testb	$1, %al
	jne	LBB155_12
	jmp	LBB155_13
LBB155_12:
	.loc	54 2262 13 is_stmt 0
	movb	$1, -65(%rbp)
Ltmp978:
	.loc	54 2261 9 is_stmt 1
	jmp	LBB155_1
LBB155_13:
Ltmp968:
Ltmp979:
	.loc	54 2262 21
	callq	__ZN103_$LT$core..ops..try_trait..NeverShortCircuit$LT$T$GT$$u20$as$u20$core..ops..try_trait..FromResidual$GT$13from_residual17hcc8e7a8f7cf2cd62E
Ltmp969:
	jmp	LBB155_14
Ltmp980:
LBB155_14:
	.loc	54 2265 5
	jmp	LBB155_9
LBB155_15:
	.loc	54 2254 5
	movq	-24(%rbp), %rdi
	callq	__Unwind_Resume
LBB155_16:
	.loc	54 2265 5
	jmp	LBB155_15
Ltmp981:
Lfunc_end155:
	.cfi_endproc
	.section	__TEXT,__gcc_except_tab
	.p2align	2
GCC_except_table155:
Lexception22:
	.byte	255
	.byte	255
	.byte	1
	.uleb128 Lcst_end22-Lcst_begin22
Lcst_begin22:
	.uleb128 Ltmp960-Lfunc_begin155
	.uleb128 Ltmp969-Ltmp960
	.uleb128 Ltmp970-Lfunc_begin155
	.byte	0
	.uleb128 Ltmp969-Lfunc_begin155
	.uleb128 Lfunc_end155-Ltmp969
	.byte	0
	.byte	0
Lcst_end22:
	.p2align	2

	.section	__TEXT,__text,regular,pure_instructions
	.globl	__ZN4core4iter6traits8iterator8Iterator9size_hint17hc11c32a42b3ff490E
	.p2align	4, 0x90
__ZN4core4iter6traits8iterator8Iterator9size_hint17hc11c32a42b3ff490E:
Lfunc_begin156:
	.loc	54 221 0
	.cfi_startproc
	pushq	%rbp
	.cfi_def_cfa_offset 16
	.cfi_offset %rbp, -16
	movq	%rsp, %rbp
	.cfi_def_cfa_register %rbp
	subq	$24, %rsp
	movq	%rdi, %rax
	movq	%rsi, -8(%rbp)
Ltmp982:
	.loc	54 222 13 prologue_end
	movq	$0, -24(%rbp)
	.loc	54 222 9 is_stmt 0
	movq	$0, (%rdi)
	movq	-24(%rbp), %rdx
	movq	-16(%rbp), %rcx
	movq	%rdx, 8(%rdi)
	movq	%rcx, 16(%rdi)
	.loc	54 223 6 is_stmt 1
	addq	$24, %rsp
	popq	%rbp
	retq
Ltmp983:
Lfunc_end156:
	.cfi_endproc

	.globl	__ZN4core4iter8adapters3map16Map$LT$I$C$F$GT$3new17h3dad27b1384f88a0E
	.p2align	4, 0x90
__ZN4core4iter8adapters3map16Map$LT$I$C$F$GT$3new17h3dad27b1384f88a0E:
Lfunc_begin157:
	.loc	6 68 0
	.cfi_startproc
	pushq	%rbp
	.cfi_def_cfa_offset 16
	.cfi_offset %rbp, -16
	movq	%rsp, %rbp
	.cfi_def_cfa_register %rbp
	subq	$112, %rsp
	movq	%rdi, -112(%rbp)
	movq	%rdi, -104(%rbp)
Ltmp984:
	.loc	6 69 15 prologue_end
	leaq	-96(%rbp), %rdi
	movl	$88, %edx
	callq	_memcpy
Ltmp985:
	.loc	6 0 15 is_stmt 0
	movq	-112(%rbp), %rdi
	.loc	6 69 9
	leaq	-96(%rbp), %rsi
	movl	$88, %edx
	callq	_memcpy
	movq	-104(%rbp), %rax
	.loc	6 70 6 is_stmt 1
	addq	$112, %rsp
	popq	%rbp
	retq
Ltmp986:
Lfunc_end157:
	.cfi_endproc

	.globl	__ZN4core4iter8adapters3map16Map$LT$I$C$F$GT$3new17ha7d05d34ddb00dd6E
	.p2align	4, 0x90
__ZN4core4iter8adapters3map16Map$LT$I$C$F$GT$3new17ha7d05d34ddb00dd6E:
Lfunc_begin158:
	.loc	6 68 0
	.cfi_startproc
	pushq	%rbp
	.cfi_def_cfa_offset 16
	.cfi_offset %rbp, -16
	movq	%rsp, %rbp
	.cfi_def_cfa_register %rbp
	subq	$32, %rsp
	movq	%rdi, %rax
Ltmp987:
	.loc	6 69 15 prologue_end
	movq	(%rsi), %rcx
	movq	%rcx, -32(%rbp)
	movq	8(%rsi), %rcx
	movq	%rcx, -24(%rbp)
	movq	16(%rsi), %rcx
	movq	%rcx, -16(%rbp)
	.loc	6 69 9 is_stmt 0
	movq	-32(%rbp), %rcx
	movq	%rcx, (%rdi)
	movq	-24(%rbp), %rcx
	movq	%rcx, 8(%rdi)
	movq	-16(%rbp), %rcx
	movq	%rcx, 16(%rdi)
	.loc	6 70 6 is_stmt 1
	addq	$32, %rsp
	popq	%rbp
	retq
Ltmp988:
Lfunc_end158:
	.cfi_endproc

	.globl	__ZN4core4iter8adapters3map8map_fold17h5a13e8e5827d9e65E
	.p2align	4, 0x90
__ZN4core4iter8adapters3map8map_fold17h5a13e8e5827d9e65E:
Lfunc_begin159:
	.loc	6 80 0
	.cfi_startproc
	pushq	%rbp
	.cfi_def_cfa_offset 16
	.cfi_offset %rbp, -16
	movq	%rsp, %rbp
	.cfi_def_cfa_register %rbp
	subq	$24, %rsp
	movq	%rdi, -8(%rbp)
Ltmp989:
	.loc	6 84 5 prologue_end
	movq	%rdi, -24(%rbp)
	.loc	6 85 2
	movq	-24(%rbp), %rax
	addq	$24, %rsp
	popq	%rbp
	retq
Ltmp990:
Lfunc_end159:
	.cfi_endproc

	.globl	__ZN4core4iter8adapters3map8map_fold17hac7192c099490109E
	.p2align	4, 0x90
__ZN4core4iter8adapters3map8map_fold17hac7192c099490109E:
Lfunc_begin160:
	.loc	6 80 0
	.cfi_startproc
	pushq	%rbp
	.cfi_def_cfa_offset 16
	.cfi_offset %rbp, -16
	movq	%rsp, %rbp
	.cfi_def_cfa_register %rbp
	subq	$32, %rsp
	movss	%xmm0, -12(%rbp)
	movq	%rdi, -8(%rbp)
Ltmp991:
	.loc	6 84 5 prologue_end
	movq	%rdi, -32(%rbp)
	movss	%xmm0, -24(%rbp)
	.loc	6 85 2
	movq	-32(%rbp), %rax
	movss	-24(%rbp), %xmm0
	addq	$32, %rsp
	popq	%rbp
	retq
Ltmp992:
Lfunc_end160:
	.cfi_endproc

	.globl	__ZN4core4iter8adapters3map8map_fold28_$u7b$$u7b$closure$u7d$$u7d$17h6a9e59c5edbd7fa8E
	.p2align	4, 0x90
__ZN4core4iter8adapters3map8map_fold28_$u7b$$u7b$closure$u7d$$u7d$17h6a9e59c5edbd7fa8E:
Lfunc_begin161:
	.loc	6 84 0
	.cfi_startproc
	.cfi_personality 155, _rust_eh_personality
	.cfi_lsda 16, Lexception23
	pushq	%rbp
	.cfi_def_cfa_offset 16
	.cfi_offset %rbp, -16
	movq	%rsp, %rbp
	.cfi_def_cfa_register %rbp
	subq	$96, %rsp
	movq	%rdi, -88(%rbp)
	movl	%esi, -68(%rbp)
	movl	-68(%rbp), %eax
	movl	%eax, -72(%rbp)
	movq	%rdi, -40(%rbp)
Ltmp998:
	.loc	6 84 23 prologue_end
	movb	$1, -41(%rbp)
	.loc	6 84 30 is_stmt 0
	movl	-72(%rbp), %eax
	movl	%eax, -48(%rbp)
	.loc	6 84 28
	movl	-48(%rbp), %eax
	movl	%eax, -56(%rbp)
	movl	-56(%rbp), %esi
Ltmp993:
	callq	__ZN9egui_glow7painter7Painter11set_texture28_$u7b$$u7b$closure$u7d$$u7d$17h4bbadca88da50dcaE
Ltmp994:
	movl	%eax, -76(%rbp)
	jmp	LBB161_3
LBB161_1:
	.loc	6 84 34
	testb	$1, -41(%rbp)
	jne	LBB161_6
	jmp	LBB161_5
LBB161_2:
Ltmp997:
	.loc	6 0 34
	movq	%rax, %rcx
	movl	%edx, %eax
	movq	%rcx, -24(%rbp)
	movl	%eax, -16(%rbp)
	jmp	LBB161_1
LBB161_3:
	movq	-88(%rbp), %rdi
	movl	-76(%rbp), %eax
	.loc	6 84 28
	movl	%eax, -4(%rbp)
	movl	-4(%rbp), %eax
	movl	%eax, -60(%rbp)
	.loc	6 84 21
	movb	$0, -41(%rbp)
	movl	-60(%rbp), %eax
	movl	%eax, -64(%rbp)
	movl	-64(%rbp), %esi
Ltmp995:
	callq	__ZN4core4iter8adapters7flatten26FlattenCompat$LT$I$C$U$GT$9iter_fold7flatten28_$u7b$$u7b$closure$u7d$$u7d$17ha6b3b523db66da03E
Ltmp996:
	jmp	LBB161_4
LBB161_4:
	.loc	6 84 35
	addq	$96, %rsp
	popq	%rbp
	retq
LBB161_5:
	.loc	6 84 5
	movq	-24(%rbp), %rdi
	callq	__Unwind_Resume
LBB161_6:
	.loc	6 84 34
	jmp	LBB161_5
Ltmp999:
Lfunc_end161:
	.cfi_endproc
	.section	__TEXT,__gcc_except_tab
	.p2align	2
GCC_except_table161:
Lexception23:
	.byte	255
	.byte	255
	.byte	1
	.uleb128 Lcst_end23-Lcst_begin23
Lcst_begin23:
	.uleb128 Ltmp993-Lfunc_begin161
	.uleb128 Ltmp996-Ltmp993
	.uleb128 Ltmp997-Lfunc_begin161
	.byte	0
	.uleb128 Ltmp996-Lfunc_begin161
	.uleb128 Lfunc_end161-Ltmp996
	.byte	0
	.byte	0
Lcst_end23:
	.p2align	2

	.section	__TEXT,__text,regular,pure_instructions
	.globl	__ZN4core4iter8adapters3map8map_fold28_$u7b$$u7b$closure$u7d$$u7d$17h6d7ce74e531da0b2E
	.p2align	4, 0x90
__ZN4core4iter8adapters3map8map_fold28_$u7b$$u7b$closure$u7d$$u7d$17h6d7ce74e531da0b2E:
Lfunc_begin162:
	.loc	6 84 0 is_stmt 1
	.cfi_startproc
	.cfi_personality 155, _rust_eh_personality
	.cfi_lsda 16, Lexception24
	pushq	%rbp
	.cfi_def_cfa_offset 16
	.cfi_offset %rbp, -16
	movq	%rsp, %rbp
	.cfi_def_cfa_register %rbp
	subq	$96, %rsp
	movq	%rdi, -96(%rbp)
	movq	%rdi, -48(%rbp)
	movq	%rsi, -32(%rbp)
Ltmp1005:
	.loc	6 84 23 prologue_end
	movb	$1, -49(%rbp)
	.loc	6 84 28 is_stmt 0
	addq	$8, %rdi
	movq	%rsi, -64(%rbp)
	movq	-64(%rbp), %rsi
Ltmp1000:
	callq	__ZN6epaint5image9FontImage12srgba_pixels28_$u7b$$u7b$closure$u7d$$u7d$17h7fbf7a92ffe82eceE
Ltmp1001:
	movl	%eax, -84(%rbp)
	jmp	LBB162_3
LBB162_1:
	.loc	6 84 34
	testb	$1, -49(%rbp)
	jne	LBB162_6
	jmp	LBB162_5
LBB162_2:
Ltmp1004:
	.loc	6 0 34
	movq	%rax, %rcx
	movl	%edx, %eax
	movq	%rcx, -24(%rbp)
	movl	%eax, -16(%rbp)
	jmp	LBB162_1
LBB162_3:
	movq	-96(%rbp), %rdi
	movl	-84(%rbp), %eax
	.loc	6 84 28
	movl	%eax, -4(%rbp)
	movl	-4(%rbp), %eax
	movl	%eax, -72(%rbp)
	.loc	6 84 21
	movb	$0, -49(%rbp)
	movl	-72(%rbp), %eax
	movl	%eax, -80(%rbp)
	movl	-80(%rbp), %esi
Ltmp1002:
	callq	__ZN4core4iter8adapters3map8map_fold28_$u7b$$u7b$closure$u7d$$u7d$17h6a9e59c5edbd7fa8E
Ltmp1003:
	jmp	LBB162_4
LBB162_4:
	.loc	6 84 35
	addq	$96, %rsp
	popq	%rbp
	retq
LBB162_5:
	.loc	6 84 5
	movq	-24(%rbp), %rdi
	callq	__Unwind_Resume
LBB162_6:
	.loc	6 84 34
	jmp	LBB162_5
Ltmp1006:
Lfunc_end162:
	.cfi_endproc
	.section	__TEXT,__gcc_except_tab
	.p2align	2
GCC_except_table162:
Lexception24:
	.byte	255
	.byte	255
	.byte	1
	.uleb128 Lcst_end24-Lcst_begin24
Lcst_begin24:
	.uleb128 Ltmp1000-Lfunc_begin162
	.uleb128 Ltmp1003-Ltmp1000
	.uleb128 Ltmp1004-Lfunc_begin162
	.byte	0
	.uleb128 Ltmp1003-Lfunc_begin162
	.uleb128 Lfunc_end162-Ltmp1003
	.byte	0
	.byte	0
Lcst_end24:
	.p2align	2

	.section	__TEXT,__text,regular,pure_instructions
	.globl	__ZN4core4iter8adapters4fuse13Fuse$LT$I$GT$3new17haeaebf35be8e7f54E
	.p2align	4, 0x90
__ZN4core4iter8adapters4fuse13Fuse$LT$I$GT$3new17haeaebf35be8e7f54E:
Lfunc_begin163:
	.loc	2 24 0 is_stmt 1
	.cfi_startproc
	pushq	%rbp
	.cfi_def_cfa_offset 16
	.cfi_offset %rbp, -16
	movq	%rsp, %rbp
	.cfi_def_cfa_register %rbp
	subq	$48, %rsp
	movq	%rdi, %rax
Ltmp1007:
	.loc	2 25 27 prologue_end
	movq	(%rsi), %rcx
	movq	%rcx, -24(%rbp)
	movq	8(%rsi), %rcx
	movq	%rcx, -16(%rbp)
	movq	16(%rsi), %rcx
	movq	%rcx, -8(%rbp)
	.loc	2 25 22 is_stmt 0
	movq	-24(%rbp), %rcx
	movq	%rcx, -48(%rbp)
	movq	-16(%rbp), %rcx
	movq	%rcx, -40(%rbp)
	movq	-8(%rbp), %rcx
	movq	%rcx, -32(%rbp)
	.loc	2 25 9
	movq	-48(%rbp), %rcx
	movq	%rcx, (%rdi)
	movq	-40(%rbp), %rcx
	movq	%rcx, 8(%rdi)
	movq	-32(%rbp), %rcx
	movq	%rcx, 16(%rdi)
	.loc	2 26 6 is_stmt 1
	addq	$48, %rsp
	popq	%rbp
	retq
Ltmp1008:
Lfunc_end163:
	.cfi_endproc

	.globl	__ZN4core4iter8adapters4take13Take$LT$I$GT$3new17hb4a6024c7e1affd6E
	.p2align	4, 0x90
__ZN4core4iter8adapters4take13Take$LT$I$GT$3new17hb4a6024c7e1affd6E:
Lfunc_begin164:
	.loc	3 21 0
	.cfi_startproc
	pushq	%rbp
	.cfi_def_cfa_offset 16
	.cfi_offset %rbp, -16
	movq	%rsp, %rbp
	.cfi_def_cfa_register %rbp
	subq	$112, %rsp
	movq	%rdx, -112(%rbp)
	movq	%rdi, -104(%rbp)
	movq	%rdi, -96(%rbp)
Ltmp1009:
	movq	%rdx, -8(%rbp)
Ltmp1010:
	.loc	3 22 16 prologue_end
	leaq	-88(%rbp), %rdi
	movl	$80, %edx
	callq	_memcpy
Ltmp1011:
	.loc	3 0 16 is_stmt 0
	movq	-104(%rbp), %rdi
	.loc	3 22 9
	leaq	-88(%rbp), %rsi
	movl	$80, %edx
	callq	_memcpy
	movq	-112(%rbp), %rdx
	movq	-104(%rbp), %rdi
	movq	-96(%rbp), %rax
	movq	%rdx, 80(%rdi)
	.loc	3 23 6 is_stmt 1
	addq	$112, %rsp
	popq	%rbp
	retq
Ltmp1012:
Lfunc_end164:
	.cfi_endproc

	.globl	__ZN4core4iter8adapters7flatten24FlatMap$LT$I$C$U$C$F$GT$3new17h72ca47a556d25bd9E
	.p2align	4, 0x90
__ZN4core4iter8adapters7flatten24FlatMap$LT$I$C$U$C$F$GT$3new17h72ca47a556d25bd9E:
Lfunc_begin165:
	.loc	24 17 0
	.cfi_startproc
	pushq	%rbp
	.cfi_def_cfa_offset 16
	.cfi_offset %rbp, -16
	movq	%rsp, %rbp
	.cfi_def_cfa_register %rbp
	subq	$160, %rsp
	movq	%rdi, -160(%rbp)
	movq	%rdi, -152(%rbp)
Ltmp1013:
	.loc	24 18 45 prologue_end
	movq	(%rsi), %rax
	movq	%rax, -32(%rbp)
	movq	8(%rsi), %rax
	movq	%rax, -24(%rbp)
	movq	16(%rsi), %rax
	movq	%rax, -16(%rbp)
	leaq	-56(%rbp), %rdi
	leaq	-32(%rbp), %rsi
Ltmp1014:
	callq	__ZN4core4iter6traits8iterator8Iterator3map17h265c9caf6bf80540E
	.loc	24 18 26 is_stmt 0
	leaq	-144(%rbp), %rdi
	leaq	-56(%rbp), %rsi
	callq	__ZN4core4iter8adapters7flatten26FlattenCompat$LT$I$C$U$GT$3new17ha38d476b85545edfE
	movq	-160(%rbp), %rdi
	.loc	24 18 9
	leaq	-144(%rbp), %rsi
	movl	$88, %edx
	callq	_memcpy
	movq	-152(%rbp), %rax
	.loc	24 19 6 is_stmt 1
	addq	$160, %rsp
	popq	%rbp
	retq
Ltmp1015:
Lfunc_end165:
	.cfi_endproc

	.globl	__ZN4core4iter8adapters7flatten26FlattenCompat$LT$I$C$U$GT$3new17ha38d476b85545edfE
	.p2align	4, 0x90
__ZN4core4iter8adapters7flatten26FlattenCompat$LT$I$C$U$GT$3new17ha38d476b85545edfE:
Lfunc_begin166:
	.loc	24 318 0
	.cfi_startproc
	pushq	%rbp
	.cfi_def_cfa_offset 16
	.cfi_offset %rbp, -16
	movq	%rsp, %rbp
	.cfi_def_cfa_register %rbp
	subq	$128, %rsp
	movq	%rdi, -128(%rbp)
	movq	%rdi, -120(%rbp)
Ltmp1016:
	.loc	24 319 31 prologue_end
	movq	(%rsi), %rax
	movq	%rax, -88(%rbp)
	movq	8(%rsi), %rax
	movq	%rax, -80(%rbp)
	movq	16(%rsi), %rax
	movq	%rax, -72(%rbp)
	leaq	-112(%rbp), %rdi
	leaq	-88(%rbp), %rsi
Ltmp1017:
	callq	__ZN4core4iter6traits8iterator8Iterator4fuse17hf14061061153440bE
	movq	-128(%rbp), %rdi
	movq	-120(%rbp), %rax
	.loc	24 319 55 is_stmt 0
	movq	$0, -64(%rbp)
	.loc	24 319 71
	movq	$0, -32(%rbp)
	.loc	24 319 9
	movq	-112(%rbp), %rcx
	movq	%rcx, 64(%rdi)
	movq	-104(%rbp), %rcx
	movq	%rcx, 72(%rdi)
	movq	-96(%rbp), %rcx
	movq	%rcx, 80(%rdi)
	movq	-64(%rbp), %rcx
	movq	%rcx, (%rdi)
	movq	-56(%rbp), %rcx
	movq	%rcx, 8(%rdi)
	movq	-48(%rbp), %rcx
	movq	%rcx, 16(%rdi)
	movq	-40(%rbp), %rcx
	movq	%rcx, 24(%rdi)
	movq	-32(%rbp), %rcx
	movq	%rcx, 32(%rdi)
	movq	-24(%rbp), %rcx
	movq	%rcx, 40(%rdi)
	movq	-16(%rbp), %rcx
	movq	%rcx, 48(%rdi)
	movq	-8(%rbp), %rcx
	movq	%rcx, 56(%rdi)
	.loc	24 320 6 is_stmt 1
	addq	$128, %rsp
	popq	%rbp
	retq
Ltmp1018:
Lfunc_end166:
	.cfi_endproc

	.globl	__ZN4core4iter8adapters7flatten26FlattenCompat$LT$I$C$U$GT$9iter_fold17hdf7a3fe8bdb39f53E
	.p2align	4, 0x90
__ZN4core4iter8adapters7flatten26FlattenCompat$LT$I$C$U$GT$9iter_fold17hdf7a3fe8bdb39f53E:
Lfunc_begin167:
	.loc	24 332 0
	.cfi_startproc
	.cfi_personality 155, _rust_eh_personality
	.cfi_lsda 16, Lexception25
	pushq	%rbp
	.cfi_def_cfa_offset 16
	.cfi_offset %rbp, -16
	movq	%rsp, %rbp
	.cfi_def_cfa_register %rbp
	subq	$240, %rsp
	movq	%rdi, -232(%rbp)
Ltmp1042:
	movq	%rsi, -224(%rbp)
Ltmp1043:
	.loc	24 343 9 prologue_end
	movb	$1, -35(%rbp)
	movb	$1, -33(%rbp)
	movb	$1, -34(%rbp)
Ltmp1044:
	.loc	24 343 16 is_stmt 0
	cmpq	$1, (%rdi)
Ltmp1045:
	jne	LBB167_2
Ltmp1046:
	.loc	24 0 16
	movq	-224(%rbp), %rdi
	movq	-232(%rbp), %rcx
	.loc	24 343 21
	movb	$0, -34(%rbp)
	movq	24(%rcx), %rax
	movq	%rax, -200(%rbp)
	movq	8(%rcx), %rax
	movq	16(%rcx), %rcx
	movq	%rcx, -208(%rbp)
	movq	%rax, -216(%rbp)
	.loc	24 344 29 is_stmt 1
	movq	-200(%rbp), %rax
	movq	%rax, -152(%rbp)
	movq	-216(%rbp), %rax
	movq	-208(%rbp), %rcx
	movq	%rcx, -160(%rbp)
	movq	%rax, -168(%rbp)
	.loc	24 344 19 is_stmt 0
	movq	-152(%rbp), %rax
	movq	%rax, -176(%rbp)
	movq	-168(%rbp), %rax
	movq	-160(%rbp), %rcx
	movq	%rcx, -184(%rbp)
	movq	%rax, -192(%rbp)
Ltmp1019:
	leaq	-192(%rbp), %rsi
	callq	__ZN116_$LT$core..iter..adapters..flatten..FlattenCompat$LT$I$C$U$GT$$u20$as$u20$core..iter..traits..iterator..Iterator$GT$4fold7flatten28_$u7b$$u7b$closure$u7d$$u7d$17hd148562e591bdd19E
Ltmp1020:
	jmp	LBB167_5
Ltmp1047:
LBB167_2:
	.loc	24 0 19
	movq	-224(%rbp), %rax
	movq	-232(%rbp), %rdx
	.loc	24 347 15 is_stmt 1
	movb	$0, -33(%rbp)
	movq	80(%rdx), %rcx
	movq	%rcx, -128(%rbp)
	movq	64(%rdx), %rcx
	movq	72(%rdx), %rdx
	movq	%rdx, -136(%rbp)
	movq	%rcx, -144(%rbp)
	.loc	24 347 43 is_stmt 0
	movq	%rax, -8(%rbp)
Ltmp1048:
	.loc	24 340 13 is_stmt 1
	movq	%rax, -120(%rbp)
Ltmp1049:
	.loc	24 347 15
	movq	-120(%rbp), %rsi
Ltmp1021:
	leaq	-144(%rbp), %rdi
	callq	__ZN100_$LT$core..iter..adapters..fuse..Fuse$LT$I$GT$$u20$as$u20$core..iter..traits..iterator..Iterator$GT$4fold17hfb45cbb890bdea14E
Ltmp1022:
	jmp	LBB167_8
Ltmp1050:
LBB167_3:
Ltmp1027:
	.loc	24 0 15 is_stmt 0
	movq	-224(%rbp), %rdi
	.loc	24 354 5 is_stmt 1
	callq	__ZN4core3ptr709drop_in_place$LT$$LT$core..iter..adapters..flatten..FlattenCompat$LT$I$C$U$GT$$u20$as$u20$core..iter..traits..iterator..Iterator$GT$..fold..flatten$LT$core..array..iter..IntoIter$LT$u8$C$4_usize$GT$$C$$LP$$RP$$C$core..iter..traits..iterator..Iterator..for_each..call$LT$u8$C$alloc..vec..Vec$LT$u8$GT$..extend_trusted$LT$core..iter..adapters..flatten..FlatMap$LT$core..iter..adapters..map..Map$LT$core..slice..iter..Iter$LT$f32$GT$$C$epaint..image..FontImage..srgba_pixels..$u7b$$u7b$closure$u7d$$u7d$$GT$$C$$u5b$u8$u3b$$u20$4$u5d$$C$egui_glow..painter..Painter..set_texture..$u7b$$u7b$closure$u7d$$u7d$$GT$$GT$..$u7b$$u7b$closure$u7d$$u7d$$GT$..$u7b$$u7b$closure$u7d$$u7d$$GT$..$u7b$$u7b$closure$u7d$$u7d$$GT$17hf77fe11757d4dd3bE
Ltmp1028:
	jmp	LBB167_16
Ltmp1051:
LBB167_4:
Ltmp1026:
	.loc	24 0 5 is_stmt 0
	movq	%rax, %rcx
	movl	%edx, %eax
	movq	%rcx, -24(%rbp)
	movl	%eax, -16(%rbp)
	jmp	LBB167_3
Ltmp1052:
LBB167_5:
	.loc	24 343 9 is_stmt 1
	jmp	LBB167_2
Ltmp1053:
LBB167_6:
	.loc	24 347 53
	xorl	%eax, %eax
	testb	$1, %al
	jne	LBB167_10
	jmp	LBB167_9
Ltmp1054:
LBB167_7:
Ltmp1023:
	.loc	24 0 53 is_stmt 0
	movq	%rax, %rcx
	movl	%edx, %eax
	movq	%rcx, -24(%rbp)
	movl	%eax, -16(%rbp)
	jmp	LBB167_6
Ltmp1055:
LBB167_8:
	movq	-232(%rbp), %rax
Ltmp1056:
	.loc	24 349 16 is_stmt 1
	cmpq	$1, 32(%rax)
	je	LBB167_12
	jmp	LBB167_13
Ltmp1057:
LBB167_9:
	.loc	24 347 53
	xorl	%eax, %eax
	testb	$1, %al
	jne	LBB167_11
	jmp	LBB167_3
Ltmp1058:
LBB167_10:
	jmp	LBB167_9
Ltmp1059:
LBB167_11:
	jmp	LBB167_3
Ltmp1060:
LBB167_12:
	.loc	24 0 53 is_stmt 0
	movq	-224(%rbp), %rdi
	movq	-232(%rbp), %rcx
Ltmp1061:
	.loc	24 349 21 is_stmt 1
	movb	$0, -35(%rbp)
	movq	56(%rcx), %rax
	movq	%rax, -96(%rbp)
	movq	40(%rcx), %rax
	movq	48(%rcx), %rcx
	movq	%rcx, -104(%rbp)
	movq	%rax, -112(%rbp)
	.loc	24 350 29
	movq	-96(%rbp), %rax
	movq	%rax, -48(%rbp)
	movq	-112(%rbp), %rax
	movq	-104(%rbp), %rcx
	movq	%rcx, -56(%rbp)
	movq	%rax, -64(%rbp)
	.loc	24 350 19 is_stmt 0
	movq	-48(%rbp), %rax
	movq	%rax, -72(%rbp)
	movq	-64(%rbp), %rax
	movq	-56(%rbp), %rcx
	movq	%rcx, -80(%rbp)
	movq	%rax, -88(%rbp)
Ltmp1024:
	leaq	-88(%rbp), %rsi
	callq	__ZN116_$LT$core..iter..adapters..flatten..FlattenCompat$LT$I$C$U$GT$$u20$as$u20$core..iter..traits..iterator..Iterator$GT$4fold7flatten28_$u7b$$u7b$closure$u7d$$u7d$17hd148562e591bdd19E
Ltmp1025:
	jmp	LBB167_14
Ltmp1062:
LBB167_13:
Ltmp1029:
	.loc	24 0 19
	movq	-224(%rbp), %rdi
	.loc	24 354 5 is_stmt 1
	callq	__ZN4core3ptr709drop_in_place$LT$$LT$core..iter..adapters..flatten..FlattenCompat$LT$I$C$U$GT$$u20$as$u20$core..iter..traits..iterator..Iterator$GT$..fold..flatten$LT$core..array..iter..IntoIter$LT$u8$C$4_usize$GT$$C$$LP$$RP$$C$core..iter..traits..iterator..Iterator..for_each..call$LT$u8$C$alloc..vec..Vec$LT$u8$GT$..extend_trusted$LT$core..iter..adapters..flatten..FlatMap$LT$core..iter..adapters..map..Map$LT$core..slice..iter..Iter$LT$f32$GT$$C$epaint..image..FontImage..srgba_pixels..$u7b$$u7b$closure$u7d$$u7d$$GT$$C$$u5b$u8$u3b$$u20$4$u5d$$C$egui_glow..painter..Painter..set_texture..$u7b$$u7b$closure$u7d$$u7d$$GT$$GT$..$u7b$$u7b$closure$u7d$$u7d$$GT$..$u7b$$u7b$closure$u7d$$u7d$$GT$..$u7b$$u7b$closure$u7d$$u7d$$GT$17hf77fe11757d4dd3bE
Ltmp1030:
	jmp	LBB167_18
Ltmp1063:
LBB167_14:
	.loc	24 349 9
	jmp	LBB167_13
Ltmp1064:
LBB167_15:
Ltmp1041:
	.loc	24 332 5
	callq	__ZN4core9panicking19panic_cannot_unwind17h1fbca7e1d7f56ae1E
Ltmp1065:
LBB167_16:
	.loc	24 354 5
	testb	$1, -33(%rbp)
	jne	LBB167_20
	jmp	LBB167_19
Ltmp1066:
LBB167_17:
Ltmp1031:
	.loc	24 0 5 is_stmt 0
	movq	%rax, %rcx
	movl	%edx, %eax
	movq	%rcx, -24(%rbp)
	movl	%eax, -16(%rbp)
	jmp	LBB167_16
Ltmp1067:
LBB167_18:
	movq	-232(%rbp), %rax
	.loc	24 354 5
	cmpq	$1, (%rax)
	je	LBB167_27
	jmp	LBB167_28
Ltmp1068:
LBB167_19:
	.loc	24 0 5
	movq	-232(%rbp), %rax
	.loc	24 354 5
	cmpq	$1, (%rax)
	je	LBB167_21
	jmp	LBB167_22
Ltmp1069:
LBB167_20:
	jmp	LBB167_19
Ltmp1070:
LBB167_21:
	testb	$1, -34(%rbp)
	jne	LBB167_23
Ltmp1071:
LBB167_22:
	.loc	24 0 5
	movq	-232(%rbp), %rax
	.loc	24 354 5
	cmpq	$1, 32(%rax)
	je	LBB167_24
	jmp	LBB167_25
Ltmp1072:
LBB167_23:
	.loc	24 0 5
	movq	-232(%rbp), %rdi
	.loc	24 354 5
	addq	$8, %rdi
Ltmp1032:
	callq	__ZN4core3ptr68drop_in_place$LT$core..array..iter..IntoIter$LT$u8$C$4_usize$GT$$GT$17hcabb7c83e54620d4E
Ltmp1033:
	jmp	LBB167_22
Ltmp1073:
LBB167_24:
	testb	$1, -35(%rbp)
	jne	LBB167_26
Ltmp1074:
LBB167_25:
	.loc	24 332 5 is_stmt 1
	movq	-24(%rbp), %rdi
	callq	__Unwind_Resume
Ltmp1075:
LBB167_26:
	.loc	24 0 5 is_stmt 0
	movq	-232(%rbp), %rdi
	.loc	24 354 5 is_stmt 1
	addq	$40, %rdi
Ltmp1034:
	callq	__ZN4core3ptr68drop_in_place$LT$core..array..iter..IntoIter$LT$u8$C$4_usize$GT$$GT$17hcabb7c83e54620d4E
Ltmp1035:
	jmp	LBB167_25
Ltmp1076:
LBB167_27:
	testb	$1, -34(%rbp)
	jne	LBB167_29
Ltmp1077:
LBB167_28:
	.loc	24 0 5 is_stmt 0
	movq	-232(%rbp), %rax
	.loc	24 354 5
	cmpq	$1, 32(%rax)
	je	LBB167_34
	jmp	LBB167_35
Ltmp1078:
LBB167_29:
	.loc	24 0 5
	movq	-232(%rbp), %rdi
	.loc	24 354 5
	addq	$8, %rdi
Ltmp1036:
	callq	__ZN4core3ptr68drop_in_place$LT$core..array..iter..IntoIter$LT$u8$C$4_usize$GT$$GT$17hcabb7c83e54620d4E
Ltmp1037:
	jmp	LBB167_28
Ltmp1079:
LBB167_30:
	.loc	24 0 5
	movq	-232(%rbp), %rax
	.loc	24 354 5
	cmpq	$1, 32(%rax)
	je	LBB167_32
	jmp	LBB167_25
Ltmp1080:
LBB167_31:
Ltmp1038:
	.loc	24 0 5
	movq	%rax, %rcx
	movl	%edx, %eax
	movq	%rcx, -24(%rbp)
	movl	%eax, -16(%rbp)
	jmp	LBB167_30
Ltmp1081:
LBB167_32:
	.loc	24 354 5
	testb	$1, -35(%rbp)
	je	LBB167_25
Ltmp1082:
	.loc	24 0 5
	movq	-232(%rbp), %rdi
	.loc	24 354 5
	addq	$40, %rdi
Ltmp1039:
	callq	__ZN4core3ptr68drop_in_place$LT$core..array..iter..IntoIter$LT$u8$C$4_usize$GT$$GT$17hcabb7c83e54620d4E
Ltmp1040:
	jmp	LBB167_25
Ltmp1083:
LBB167_34:
	testb	$1, -35(%rbp)
	jne	LBB167_36
Ltmp1084:
LBB167_35:
	.loc	24 354 6
	addq	$240, %rsp
	popq	%rbp
	retq
Ltmp1085:
LBB167_36:
	.loc	24 0 6
	movq	-232(%rbp), %rdi
	.loc	24 354 5
	addq	$32, %rdi
	addq	$8, %rdi
	callq	__ZN4core3ptr68drop_in_place$LT$core..array..iter..IntoIter$LT$u8$C$4_usize$GT$$GT$17hcabb7c83e54620d4E
	jmp	LBB167_35
Ltmp1086:
Lfunc_end167:
	.cfi_endproc
	.section	__TEXT,__gcc_except_tab
	.p2align	2
GCC_except_table167:
Lexception25:
	.byte	255
	.byte	255
	.byte	1
	.uleb128 Lcst_end25-Lcst_begin25
Lcst_begin25:
	.uleb128 Ltmp1019-Lfunc_begin167
	.uleb128 Ltmp1020-Ltmp1019
	.uleb128 Ltmp1026-Lfunc_begin167
	.byte	0
	.uleb128 Ltmp1021-Lfunc_begin167
	.uleb128 Ltmp1022-Ltmp1021
	.uleb128 Ltmp1023-Lfunc_begin167
	.byte	0
	.uleb128 Ltmp1027-Lfunc_begin167
	.uleb128 Ltmp1028-Ltmp1027
	.uleb128 Ltmp1041-Lfunc_begin167
	.byte	0
	.uleb128 Ltmp1024-Lfunc_begin167
	.uleb128 Ltmp1025-Ltmp1024
	.uleb128 Ltmp1026-Lfunc_begin167
	.byte	0
	.uleb128 Ltmp1029-Lfunc_begin167
	.uleb128 Ltmp1030-Ltmp1029
	.uleb128 Ltmp1031-Lfunc_begin167
	.byte	0
	.uleb128 Ltmp1032-Lfunc_begin167
	.uleb128 Ltmp1033-Ltmp1032
	.uleb128 Ltmp1041-Lfunc_begin167
	.byte	0
	.uleb128 Ltmp1033-Lfunc_begin167
	.uleb128 Ltmp1034-Ltmp1033
	.byte	0
	.byte	0
	.uleb128 Ltmp1034-Lfunc_begin167
	.uleb128 Ltmp1035-Ltmp1034
	.uleb128 Ltmp1041-Lfunc_begin167
	.byte	0
	.uleb128 Ltmp1036-Lfunc_begin167
	.uleb128 Ltmp1037-Ltmp1036
	.uleb128 Ltmp1038-Lfunc_begin167
	.byte	0
	.uleb128 Ltmp1039-Lfunc_begin167
	.uleb128 Ltmp1040-Ltmp1039
	.uleb128 Ltmp1041-Lfunc_begin167
	.byte	0
	.uleb128 Ltmp1040-Lfunc_begin167
	.uleb128 Lfunc_end167-Ltmp1040
	.byte	0
	.byte	0
Lcst_end25:
	.p2align	2

	.section	__TEXT,__text,regular,pure_instructions
	.globl	__ZN4core4iter8adapters7flatten26FlattenCompat$LT$I$C$U$GT$9iter_fold7flatten28_$u7b$$u7b$closure$u7d$$u7d$17ha6b3b523db66da03E
	.p2align	4, 0x90
__ZN4core4iter8adapters7flatten26FlattenCompat$LT$I$C$U$GT$9iter_fold7flatten28_$u7b$$u7b$closure$u7d$$u7d$17ha6b3b523db66da03E:
Lfunc_begin168:
	.loc	24 340 0 is_stmt 1
	.cfi_startproc
	.cfi_personality 155, _rust_eh_personality
	.cfi_lsda 16, Lexception26
	pushq	%rbp
	.cfi_def_cfa_offset 16
	.cfi_offset %rbp, -16
	movq	%rsp, %rbp
	.cfi_def_cfa_register %rbp
	subq	$112, %rsp
	movl	%esi, -92(%rbp)
	movl	-92(%rbp), %eax
	movl	%eax, -96(%rbp)
	movq	%rdi, -32(%rbp)
Ltmp1092:
	.loc	24 340 30 prologue_end
	movq	(%rdi), %rax
	movq	%rax, -104(%rbp)
	.loc	24 340 35 is_stmt 0
	movb	$1, -33(%rbp)
	.loc	24 340 40
	movl	-96(%rbp), %eax
	movl	%eax, -40(%rbp)
	movl	-40(%rbp), %esi
Ltmp1087:
	leaq	-64(%rbp), %rdi
	callq	__ZN4core5array4iter94_$LT$impl$u20$core..iter..traits..collect..IntoIterator$u20$for$u20$$u5b$T$u3b$$u20$N$u5d$$GT$9into_iter17h539f19398040abe2E
Ltmp1088:
	jmp	LBB168_3
LBB168_1:
	.loc	24 340 56
	testb	$1, -33(%rbp)
	jne	LBB168_6
	jmp	LBB168_5
LBB168_2:
Ltmp1091:
	.loc	24 0 56
	movq	%rax, %rcx
	movl	%edx, %eax
	movq	%rcx, -16(%rbp)
	movl	%eax, -8(%rbp)
	jmp	LBB168_1
LBB168_3:
	movq	-104(%rbp), %rdi
	.loc	24 340 30
	movb	$0, -33(%rbp)
	movq	-48(%rbp), %rax
	movq	%rax, -72(%rbp)
	movq	-64(%rbp), %rax
	movq	-56(%rbp), %rcx
	movq	%rcx, -80(%rbp)
	movq	%rax, -88(%rbp)
Ltmp1089:
	leaq	-88(%rbp), %rsi
	callq	__ZN116_$LT$core..iter..adapters..flatten..FlattenCompat$LT$I$C$U$GT$$u20$as$u20$core..iter..traits..iterator..Iterator$GT$4fold7flatten28_$u7b$$u7b$closure$u7d$$u7d$17hd148562e591bdd19E
Ltmp1090:
	jmp	LBB168_4
LBB168_4:
	.loc	24 340 57
	addq	$112, %rsp
	popq	%rbp
	retq
LBB168_5:
	.loc	24 340 13
	movq	-16(%rbp), %rdi
	callq	__Unwind_Resume
LBB168_6:
	.loc	24 340 56
	jmp	LBB168_5
Ltmp1093:
Lfunc_end168:
	.cfi_endproc
	.section	__TEXT,__gcc_except_tab
	.p2align	2
GCC_except_table168:
Lexception26:
	.byte	255
	.byte	255
	.byte	1
	.uleb128 Lcst_end26-Lcst_begin26
Lcst_begin26:
	.uleb128 Ltmp1087-Lfunc_begin168
	.uleb128 Ltmp1090-Ltmp1087
	.uleb128 Ltmp1091-Lfunc_begin168
	.byte	0
	.uleb128 Ltmp1090-Lfunc_begin168
	.uleb128 Lfunc_end168-Ltmp1090
	.byte	0
	.byte	0
Lcst_end26:
	.p2align	2

	.section	__TEXT,__text,regular,pure_instructions
	.p2align	4, 0x90
__ZN4core4sync6atomic11AtomicUsize4load17hfb2a3d3798ce0311E:
Lfunc_begin169:
	.file	60 "/rustc/2c8cc343237b8f7d5a3c3703e3a87f2eb2c54a74/library/core/src/sync" "atomic.rs"
	.loc	60 2125 0 is_stmt 1
	.cfi_startproc
	pushq	%rbp
	.cfi_def_cfa_offset 16
	.cfi_offset %rbp, -16
	movq	%rsp, %rbp
	.cfi_def_cfa_register %rbp
	subq	$32, %rsp
	movb	%sil, %al
	movq	%rdi, -24(%rbp)
	movb	%al, -9(%rbp)
Ltmp1094:
	.loc	60 2127 38 prologue_end
	movq	%rdi, -8(%rbp)
	.loc	60 2127 26 is_stmt 0
	movzbl	%al, %esi
	callq	__ZN4core4sync6atomic11atomic_load17h1cc068196a86366eE
	.loc	60 2128 14 is_stmt 1
	addq	$32, %rsp
	popq	%rbp
	retq
Ltmp1095:
Lfunc_end169:
	.cfi_endproc

	.p2align	4, 0x90
__ZN4core4sync6atomic5fence17h092786346c85646cE:
Lfunc_begin170:
	.loc	60 3362 0
	.cfi_startproc
	pushq	%rbp
	.cfi_def_cfa_offset 16
	.cfi_offset %rbp, -16
	movq	%rsp, %rbp
	.cfi_def_cfa_register %rbp
	subq	$80, %rsp
	movb	%dil, %al
	movb	%al, -49(%rbp)
Ltmp1096:
	.loc	60 3365 15 prologue_end
	movzbl	-49(%rbp), %eax
	movq	%rax, -64(%rbp)
	.loc	60 0 15 is_stmt 0
	movq	-64(%rbp), %rax
	leaq	LJTI170_0(%rip), %rcx
	movslq	(%rcx,%rax,4), %rax
	addq	%rcx, %rax
	jmpq	*%rax
	.loc	60 3365 15
	ud2
LBB170_2:
	.loc	60 3370 24 is_stmt 1
	leaq	l___unnamed_32(%rip), %rsi
	leaq	l___unnamed_13(%rip), %rcx
	xorl	%eax, %eax
	movl	%eax, %r8d
	leaq	-48(%rbp), %rdi
	movq	%rdi, -72(%rbp)
	movl	$1, %edx
	callq	__ZN4core3fmt9Arguments6new_v117h746c3dd55c20477aE
	movq	-72(%rbp), %rdi
	leaq	l___unnamed_33(%rip), %rsi
	callq	__ZN4core9panicking9panic_fmt17h9b5d807e24bcaaedE
LBB170_3:
	##MEMBARRIER
	.loc	60 3367 24
	jmp	LBB170_7
LBB170_4:
	##MEMBARRIER
	.loc	60 3366 24
	jmp	LBB170_7
LBB170_5:
	##MEMBARRIER
	.loc	60 3368 23
	jmp	LBB170_7
LBB170_6:
	.loc	60 3369 23
	mfence
LBB170_7:
	.loc	60 3373 2
	addq	$80, %rsp
	popq	%rbp
	retq
Ltmp1097:
Lfunc_end170:
	.cfi_endproc
	.p2align	2, 0x90
	.data_region jt32
.set L170_0_set_2, LBB170_2-LJTI170_0
.set L170_0_set_3, LBB170_3-LJTI170_0
.set L170_0_set_4, LBB170_4-LJTI170_0
.set L170_0_set_5, LBB170_5-LJTI170_0
.set L170_0_set_6, LBB170_6-LJTI170_0
LJTI170_0:
	.long	L170_0_set_2
	.long	L170_0_set_3
	.long	L170_0_set_4
	.long	L170_0_set_5
	.long	L170_0_set_6
	.end_data_region

	.p2align	4, 0x90
__ZN4core4sync6atomic8AtomicU84load17hcfc32c7680aad9c1E:
Lfunc_begin171:
	.loc	60 2125 0
	.cfi_startproc
	pushq	%rbp
	.cfi_def_cfa_offset 16
	.cfi_offset %rbp, -16
	movq	%rsp, %rbp
	.cfi_def_cfa_register %rbp
	subq	$32, %rsp
	movb	%sil, %al
	movq	%rdi, -24(%rbp)
	movb	%al, -9(%rbp)
Ltmp1098:
	.loc	60 2127 38 prologue_end
	movq	%rdi, -8(%rbp)
	.loc	60 2127 26 is_stmt 0
	movzbl	%al, %esi
	callq	__ZN4core4sync6atomic11atomic_load17hbb6eaaad552e2f35E
	.loc	60 2128 14 is_stmt 1
	addq	$32, %rsp
	popq	%rbp
	retq
Ltmp1099:
Lfunc_end171:
	.cfi_endproc

	.globl	__ZN4core5alloc6layout10size_align17h8a59503b8b387f8eE
	.p2align	4, 0x90
__ZN4core5alloc6layout10size_align17h8a59503b8b387f8eE:
Lfunc_begin172:
	.file	61 "/rustc/2c8cc343237b8f7d5a3c3703e3a87f2eb2c54a74/library/core/src/alloc" "layout.rs"
	.loc	61 19 0
	.cfi_startproc
	pushq	%rbp
	.cfi_def_cfa_offset 16
	.cfi_offset %rbp, -16
	movq	%rsp, %rbp
	.cfi_def_cfa_register %rbp
	subq	$16, %rsp
Ltmp1100:
	.loc	61 20 5 prologue_end
	movq	$24, -16(%rbp)
	movq	$8, -8(%rbp)
	.loc	61 21 2
	movq	-16(%rbp), %rax
	movq	-8(%rbp), %rdx
	addq	$16, %rsp
	popq	%rbp
	retq
Ltmp1101:
Lfunc_end172:
	.cfi_endproc

	.globl	__ZN4core5alloc6layout6Layout13for_value_raw17h316e0d8d2ea41403E
	.p2align	4, 0x90
__ZN4core5alloc6layout6Layout13for_value_raw17h316e0d8d2ea41403E:
Lfunc_begin173:
	.loc	61 197 0
	.cfi_startproc
	pushq	%rbp
	.cfi_def_cfa_offset 16
	.cfi_offset %rbp, -16
	movq	%rsp, %rbp
	.cfi_def_cfa_register %rbp
	subq	$120, %rsp
	movq	%rdi, -88(%rbp)
Ltmp1102:
	.loc	61 199 60 prologue_end
	movq	%rdi, -80(%rbp)
Ltmp1103:
	.loc	41 387 14
	movq	$5496, -72(%rbp)
	movq	-72(%rbp), %rcx
Ltmp1104:
	.loc	61 199 86
	movq	%rdi, -64(%rbp)
Ltmp1105:
	.loc	41 529 14
	movq	$8, -56(%rbp)
	movq	-56(%rbp), %rax
Ltmp1106:
	.loc	61 199 38
	movq	%rcx, -104(%rbp)
	movq	%rax, -96(%rbp)
	.loc	61 199 14 is_stmt 0
	movq	-104(%rbp), %rcx
	movq	%rcx, -48(%rbp)
	.loc	61 199 20
	movq	-96(%rbp), %rax
	movq	%rax, -40(%rbp)
Ltmp1107:
	.loc	61 201 52 is_stmt 1
	movq	%rcx, -32(%rbp)
	.loc	61 201 58 is_stmt 0
	movq	%rax, -24(%rbp)
Ltmp1108:
	.loc	61 120 65 is_stmt 1
	movq	%rax, -16(%rbp)
Ltmp1109:
	.file	62 "/rustc/2c8cc343237b8f7d5a3c3703e3a87f2eb2c54a74/library/core/src/ptr" "alignment.rs"
	.loc	62 89 18
	movq	%rax, -8(%rbp)
	movq	-8(%rbp), %rax
Ltmp1110:
	.loc	61 120 18
	movq	%rcx, -120(%rbp)
	movq	%rax, -112(%rbp)
Ltmp1111:
	.loc	61 202 6
	movq	-120(%rbp), %rax
	movq	-112(%rbp), %rdx
	addq	$120, %rsp
	popq	%rbp
	retq
Ltmp1112:
Lfunc_end173:
	.cfi_endproc

	.p2align	4, 0x90
__ZN4core5alloc6layout6Layout5array5inner17h0cb2f815074a6926E:
Lfunc_begin174:
	.loc	61 441 0
	.cfi_startproc
	pushq	%rbp
	.cfi_def_cfa_offset 16
	.cfi_offset %rbp, -16
	movq	%rsp, %rbp
	.cfi_def_cfa_register %rbp
	subq	$176, %rsp
	movq	%rdi, -168(%rbp)
	movq	%rsi, -160(%rbp)
	movq	%rdx, -152(%rbp)
	movq	%rdi, -88(%rbp)
	movq	%rsi, -80(%rbp)
	movq	%rdx, -72(%rbp)
Ltmp1113:
	.loc	61 452 16 prologue_end
	cmpq	$0, %rdi
	jne	LBB174_2
	movb	$0, -121(%rbp)
	jmp	LBB174_5
LBB174_2:
	.loc	61 0 16 is_stmt 0
	movq	-168(%rbp), %rax
	movq	-160(%rbp), %rcx
	.loc	61 452 68
	movq	%rcx, -64(%rbp)
Ltmp1114:
	.loc	61 93 32 is_stmt 1
	movq	%rcx, -56(%rbp)
Ltmp1115:
	.loc	62 97 9
	movq	%rcx, -104(%rbp)
	movq	-104(%rbp), %rdx
Ltmp1116:
	.loc	61 93 31
	subq	$1, %rdx
	.loc	61 93 9 is_stmt 0
	movabsq	$9223372036854775807, %rcx
	subq	%rdx, %rcx
	movq	%rcx, -176(%rbp)
Ltmp1117:
	.loc	61 452 41 is_stmt 1
	cmpq	$0, %rax
	sete	%al
	testb	$1, %al
	jne	LBB174_4
	.loc	61 0 41 is_stmt 0
	movq	-168(%rbp), %rcx
	movq	-176(%rbp), %rax
	.loc	61 452 41
	xorl	%edx, %edx
	divq	%rcx
	movq	%rax, %rcx
	movq	-152(%rbp), %rax
	.loc	61 452 37
	cmpq	%rcx, %rax
	seta	%al
	.loc	61 452 16
	andb	$1, %al
	movb	%al, -121(%rbp)
	jmp	LBB174_5
LBB174_4:
	.loc	61 452 41
	leaq	_str.0(%rip), %rdi
	leaq	l___unnamed_34(%rip), %rdx
	movl	$25, %esi
	callq	__ZN4core9panicking5panic17hc1bc45270cf64b03E
LBB174_5:
	.loc	61 452 16
	testb	$1, -121(%rbp)
	jne	LBB174_7
	.loc	61 0 16
	movq	-160(%rbp), %rax
	movq	-152(%rbp), %rdx
	movq	-168(%rbp), %rcx
	.loc	61 456 30 is_stmt 1
	imulq	%rdx, %rcx
	movq	%rcx, -48(%rbp)
Ltmp1118:
	.loc	61 461 59
	movq	%rcx, -40(%rbp)
	.loc	61 461 71 is_stmt 0
	movq	%rax, -32(%rbp)
Ltmp1119:
	.loc	62 97 9 is_stmt 1
	movq	%rax, -96(%rbp)
	movq	-96(%rbp), %rax
	movq	%rax, -24(%rbp)
Ltmp1120:
	.loc	61 120 65
	movq	%rax, -16(%rbp)
Ltmp1121:
	.loc	62 89 18
	movq	%rax, -8(%rbp)
	movq	-8(%rbp), %rax
Ltmp1122:
	.loc	61 120 18
	movq	%rcx, -120(%rbp)
