	.section	__TEXT,__text,regular,pure_instructions
	.macosx_version_min 10, 7
	.globl	__ZN102_$LT$core..iter..adapters..map..Map$LT$I$C$F$GT$$u20$as$u20$core..iter..traits..iterator..Iterator$GT$4fold17h4fe87721e2ad7320E
	.p2align	4, 0x90
__ZN102_$LT$core..iter..adapters..map..Map$LT$I$C$F$GT$$u20$as$u20$core..iter..traits..iterator..Iterator$GT$4fold17h4fe87721e2ad7320E:
Lfunc_begin0:
	.file	1 "/rustc/2c8cc343237b8f7d5a3c3703e3a87f2eb2c54a74/library/core/src/iter/adapters" "map.rs"
	.loc	1 120 0
	.cfi_startproc
	.cfi_personality 155, _rust_eh_personality
	.cfi_lsda 16, Lexception0
	pushq	%rbp
	.cfi_def_cfa_offset 16
	.cfi_offset %rbp, -16
	movq	%rsp, %rbp
	.cfi_def_cfa_register %rbp
	subq	$112, %rsp
	movq	%rsi, %rcx
Ltmp5:
	.loc	1 124 9 prologue_end
	movb	$1, -25(%rbp)
	movq	(%rdi), %rax
	movq	%rax, -112(%rbp)
	movq	8(%rdi), %rax
	movq	%rax, -104(%rbp)
	.loc	1 124 24 is_stmt 0
	movb	$1, -26(%rbp)
	.loc	1 124 39
	movq	16(%rdi), %rsi
	movq	24(%rdi), %rdx
	.loc	1 124 47
	movq	16(%rcx), %rax
	movq	%rax, -40(%rbp)
	movq	(%rcx), %rax
	movq	8(%rcx), %rcx
Ltmp6:
	movq	%rcx, -48(%rbp)
	movq	%rax, -56(%rbp)
Ltmp0:
	leaq	-96(%rbp), %rdi
Ltmp7:
	.loc	1 0 47
	leaq	-56(%rbp), %rcx
	.loc	1 124 30
	callq	__ZN4core4iter8adapters3map8map_fold17h43a52d248c3a4a42E
Ltmp1:
	jmp	LBB0_3
Ltmp8:
LBB0_1:
	.loc	1 124 49
	testb	$1, -26(%rbp)
	jne	LBB0_6
	jmp	LBB0_5
Ltmp9:
LBB0_2:
Ltmp4:
	.loc	1 0 49
	movq	%rax, %rcx
	movl	%edx, %eax
	movq	%rcx, -16(%rbp)
	movl	%eax, -8(%rbp)
	jmp	LBB0_1
Ltmp10:
LBB0_3:
	movq	-104(%rbp), %rsi
	movq	-112(%rbp), %rdi
	.loc	1 124 9
	movb	$0, -25(%rbp)
	movb	$0, -26(%rbp)
Ltmp2:
	leaq	-96(%rbp), %rdx
	callq	__ZN4core4iter6traits8iterator8Iterator4fold17hb1ffa3837248544cE
Ltmp3:
	jmp	LBB0_4
Ltmp11:
LBB0_4:
	.loc	1 125 6 is_stmt 1
	addq	$112, %rsp
	popq	%rbp
	retq
Ltmp12:
LBB0_5:
	.loc	1 124 49
	testb	$1, -25(%rbp)
	jne	LBB0_8
	jmp	LBB0_7
Ltmp13:
LBB0_6:
	jmp	LBB0_5
Ltmp14:
LBB0_7:
	.loc	1 120 5
	movq	-16(%rbp), %rdi
	callq	__Unwind_Resume
Ltmp15:
LBB0_8:
	.loc	1 124 49
	jmp	LBB0_7
Ltmp16:
Lfunc_end0:
	.cfi_endproc
	.section	__TEXT,__gcc_except_tab
	.p2align	2
GCC_except_table0:
Lexception0:
	.byte	255
	.byte	255
	.byte	1
	.uleb128 Lcst_end0-Lcst_begin0
Lcst_begin0:
	.uleb128 Ltmp0-Lfunc_begin0
	.uleb128 Ltmp3-Ltmp0
	.uleb128 Ltmp4-Lfunc_begin0
	.byte	0
	.uleb128 Ltmp3-Lfunc_begin0
	.uleb128 Lfunc_end0-Ltmp3
	.byte	0
	.byte	0
Lcst_end0:
	.p2align	2

	.section	__TEXT,__text,regular,pure_instructions
	.globl	__ZN102_$LT$core..iter..adapters..map..Map$LT$I$C$F$GT$$u20$as$u20$core..iter..traits..iterator..Iterator$GT$4fold17hb969fb706b949029E
	.p2align	4, 0x90
__ZN102_$LT$core..iter..adapters..map..Map$LT$I$C$F$GT$$u20$as$u20$core..iter..traits..iterator..Iterator$GT$4fold17hb969fb706b949029E:
Lfunc_begin1:
	.loc	1 120 0
	.cfi_startproc
	.cfi_personality 155, _rust_eh_personality
	.cfi_lsda 16, Lexception1
	pushq	%rbp
	.cfi_def_cfa_offset 16
	.cfi_offset %rbp, -16
	movq	%rsp, %rbp
	.cfi_def_cfa_register %rbp
	subq	$80, %rsp
	movq	%rdi, %rax
Ltmp22:
	movss	%xmm0, -68(%rbp)
	movss	%xmm0, -28(%rbp)
Ltmp23:
	.loc	1 124 9 prologue_end
	movb	$1, -29(%rbp)
	movq	(%rax), %rcx
	movq	%rcx, -64(%rbp)
	movq	8(%rax), %rcx
	movq	%rcx, -56(%rbp)
	.loc	1 124 24 is_stmt 0
	movb	$1, -30(%rbp)
	.loc	1 124 39
	movq	16(%rax), %rdi
	movq	24(%rax), %rsi
Ltmp17:
	.loc	1 124 30
	callq	__ZN4core4iter8adapters3map8map_fold17hc61aa5139157e8eaE
Ltmp24:
Ltmp18:
	.loc	1 0 30
	movq	%rdx, -48(%rbp)
	movq	%rax, -40(%rbp)
	.loc	1 124 30
	jmp	LBB1_3
LBB1_1:
	.loc	1 124 49
	testb	$1, -30(%rbp)
	jne	LBB1_6
	jmp	LBB1_5
LBB1_2:
Ltmp21:
	.loc	1 0 49
	movq	%rax, %rcx
	movl	%edx, %eax
	movq	%rcx, -16(%rbp)
	movl	%eax, -8(%rbp)
	jmp	LBB1_1
LBB1_3:
	movq	-48(%rbp), %rcx
	movq	-40(%rbp), %rdx
	movss	-68(%rbp), %xmm0
	movq	-56(%rbp), %rsi
	movq	-64(%rbp), %rdi
	.loc	1 124 9
	movb	$0, -29(%rbp)
	movb	$0, -30(%rbp)
Ltmp19:
	callq	__ZN4core4iter6traits8iterator8Iterator4fold17h19bf7332479c12a6E
Ltmp20:
	movss	%xmm0, -72(%rbp)
	jmp	LBB1_4
LBB1_4:
	.loc	1 0 9
	movss	-72(%rbp), %xmm0
	.loc	1 125 6 is_stmt 1
	addq	$80, %rsp
	popq	%rbp
	retq
LBB1_5:
	.loc	1 124 49
	testb	$1, -29(%rbp)
	jne	LBB1_8
	jmp	LBB1_7
LBB1_6:
	jmp	LBB1_5
LBB1_7:
	.loc	1 120 5
	movq	-16(%rbp), %rdi
	callq	__Unwind_Resume
LBB1_8:
	.loc	1 124 49
	jmp	LBB1_7
Ltmp25:
Lfunc_end1:
	.cfi_endproc
	.section	__TEXT,__gcc_except_tab
	.p2align	2
GCC_except_table1:
Lexception1:
	.byte	255
	.byte	255
	.byte	1
	.uleb128 Lcst_end1-Lcst_begin1
Lcst_begin1:
	.uleb128 Ltmp17-Lfunc_begin1
	.uleb128 Ltmp20-Ltmp17
	.uleb128 Ltmp21-Lfunc_begin1
	.byte	0
	.uleb128 Ltmp20-Lfunc_begin1
	.uleb128 Lfunc_end1-Ltmp20
	.byte	0
	.byte	0
Lcst_end1:
	.p2align	2

	.section	__TEXT,__text,regular,pure_instructions
	.globl	__ZN102_$LT$core..iter..adapters..map..Map$LT$I$C$F$GT$$u20$as$u20$core..iter..traits..iterator..Iterator$GT$9size_hint17h9ca43af30fd5ac4eE
	.p2align	4, 0x90
__ZN102_$LT$core..iter..adapters..map..Map$LT$I$C$F$GT$$u20$as$u20$core..iter..traits..iterator..Iterator$GT$9size_hint17h9ca43af30fd5ac4eE:
Lfunc_begin2:
	.loc	1 107 0
	.cfi_startproc
	pushq	%rbp
	.cfi_def_cfa_offset 16
	.cfi_offset %rbp, -16
	movq	%rsp, %rbp
	.cfi_def_cfa_register %rbp
	subq	$16, %rsp
	movq	%rdi, %rax
	movq	%rax, -16(%rbp)
	movq	%rsi, -8(%rbp)
Ltmp26:
	.loc	1 108 9 prologue_end
	callq	__ZN91_$LT$core..slice..iter..Iter$LT$T$GT$$u20$as$u20$core..iter..traits..iterator..Iterator$GT$9size_hint17h117c9bfb102fc8efE
	movq	-16(%rbp), %rax
	.loc	1 109 6
	addq	$16, %rsp
	popq	%rbp
	retq
Ltmp27:
Lfunc_end2:
	.cfi_endproc

	.globl	__ZN111_$LT$alloc..vec..Vec$LT$T$GT$$u20$as$u20$alloc..vec..spec_from_iter_nested..SpecFromIterNested$LT$T$C$I$GT$$GT$9from_iter17h3baab189fa9e1644E
	.p2align	4, 0x90
__ZN111_$LT$alloc..vec..Vec$LT$T$GT$$u20$as$u20$alloc..vec..spec_from_iter_nested..SpecFromIterNested$LT$T$C$I$GT$$GT$9from_iter17h3baab189fa9e1644E:
Lfunc_begin3:
	.file	2 "/rustc/2c8cc343237b8f7d5a3c3703e3a87f2eb2c54a74/library/alloc/src/vec" "spec_from_iter_nested.rs"
	.loc	2 52 0
	.cfi_startproc
	.cfi_personality 155, _rust_eh_personality
	.cfi_lsda 16, Lexception2
	pushq	%rbp
	.cfi_def_cfa_offset 16
	.cfi_offset %rbp, -16
	movq	%rsp, %rbp
	.cfi_def_cfa_register %rbp
	subq	$224, %rsp
	movq	%rsi, -200(%rbp)
Ltmp43:
	movq	%rdi, -192(%rbp)
	movq	%rdi, -184(%rbp)
Ltmp44:
	.loc	2 53 13 prologue_end
	movb	$1, -66(%rbp)
Ltmp28:
	leaq	-176(%rbp), %rdi
	.loc	2 53 32 is_stmt 0
	callq	__ZN102_$LT$core..iter..adapters..map..Map$LT$I$C$F$GT$$u20$as$u20$core..iter..traits..iterator..Iterator$GT$9size_hint17h9ca43af30fd5ac4eE
Ltmp45:
Ltmp29:
	jmp	LBB3_3
Ltmp46:
LBB3_1:
	.loc	2 64 5 is_stmt 1
	testb	$1, -66(%rbp)
	jne	LBB3_14
	jmp	LBB3_13
Ltmp47:
LBB3_2:
Ltmp36:
	.loc	2 0 5 is_stmt 0
	movq	%rax, %rcx
	movl	%edx, %eax
	movq	%rcx, -48(%rbp)
	movl	%eax, -40(%rbp)
	jmp	LBB3_1
Ltmp48:
LBB3_3:
	.loc	2 53 26 is_stmt 1
	cmpq	$1, -168(%rbp)
	jne	LBB3_5
Ltmp49:
	.loc	2 54 22
	movq	-160(%rbp), %rdi
	movq	%rdi, -32(%rbp)
Ltmp50:
	.loc	2 54 52 is_stmt 0
	movq	%rdi, -24(%rbp)
Ltmp51:
	.file	3 "/rustc/2c8cc343237b8f7d5a3c3703e3a87f2eb2c54a74/library/alloc/src/vec" "mod.rs"
	.loc	3 483 32 is_stmt 1
	movq	%rdi, -16(%rbp)
Ltmp52:
	.loc	3 676 45
	movq	%rdi, -8(%rbp)
Ltmp53:
	.file	4 "/rustc/2c8cc343237b8f7d5a3c3703e3a87f2eb2c54a74/library/alloc/src" "raw_vec.rs"
	.loc	4 131 37
	movb	$0, -65(%rbp)
	.loc	4 131 9 is_stmt 0
	movzbl	-65(%rbp), %esi
Ltmp34:
	callq	__ZN5alloc7raw_vec19RawVec$LT$T$C$A$GT$11allocate_in17hdc31011aa83ccde5E
Ltmp35:
	movq	%rdx, -216(%rbp)
	movq	%rax, -208(%rbp)
	jmp	LBB3_8
Ltmp54:
LBB3_5:
Ltmp30:
	.loc	2 59 18 is_stmt 1
	leaq	l___unnamed_3(%rip), %rsi
	leaq	l___unnamed_4(%rip), %rcx
	xorl	%eax, %eax
	movl	%eax, %r8d
	leaq	-152(%rbp), %rdi
	movl	$1, %edx
	callq	__ZN4core3fmt9Arguments6new_v117h9b2d11adb3179447E
Ltmp31:
	jmp	LBB3_6
Ltmp55:
LBB3_6:
Ltmp32:
	leaq	l___unnamed_5(%rip), %rsi
	leaq	-152(%rbp), %rdi
	callq	__ZN4core9panicking9panic_fmt17h9b5d807e24bcaaedE
Ltmp33:
	jmp	LBB3_7
Ltmp56:
LBB3_7:
	.loc	2 0 18 is_stmt 0
	ud2
Ltmp57:
LBB3_8:
	movq	-192(%rbp), %rdi
	movq	-200(%rbp), %rcx
	movq	-216(%rbp), %rax
	movq	-208(%rbp), %rdx
Ltmp58:
	.loc	3 676 9 is_stmt 1
	movq	%rdx, (%rdi)
	movq	%rax, 8(%rdi)
	movq	$0, 16(%rdi)
Ltmp59:
	.loc	2 62 28
	movb	$0, -66(%rbp)
	movq	24(%rcx), %rax
	movq	%rax, -80(%rbp)
	movq	16(%rcx), %rax
	movq	%rax, -88(%rbp)
	movq	(%rcx), %rax
	movq	8(%rcx), %rcx
	movq	%rcx, -96(%rbp)
	movq	%rax, -104(%rbp)
Ltmp37:
	leaq	-104(%rbp), %rsi
	.loc	2 62 9 is_stmt 0
	callq	__ZN97_$LT$alloc..vec..Vec$LT$T$C$A$GT$$u20$as$u20$alloc..vec..spec_extend..SpecExtend$LT$T$C$I$GT$$GT$11spec_extend17hbb7f0a3625654d75E
Ltmp38:
	jmp	LBB3_11
Ltmp60:
LBB3_9:
Ltmp40:
	.loc	2 0 9
	movq	-192(%rbp), %rdi
	.loc	2 64 5 is_stmt 1
	callq	__ZN4core3ptr47drop_in_place$LT$alloc..vec..Vec$LT$f32$GT$$GT$17h5e42e94b0ac57530E
Ltmp41:
	jmp	LBB3_1
Ltmp61:
LBB3_10:
Ltmp39:
	.loc	2 0 5 is_stmt 0
	movq	%rax, %rcx
	movl	%edx, %eax
	movq	%rcx, -48(%rbp)
	movl	%eax, -40(%rbp)
	jmp	LBB3_9
Ltmp62:
LBB3_11:
	movq	-184(%rbp), %rax
	.loc	2 64 6
	addq	$224, %rsp
	popq	%rbp
	retq
Ltmp63:
LBB3_12:
Ltmp42:
	.loc	2 52 5 is_stmt 1
	callq	__ZN4core9panicking19panic_cannot_unwind17h1fbca7e1d7f56ae1E
Ltmp64:
LBB3_13:
	movq	-48(%rbp), %rdi
	callq	__Unwind_Resume
Ltmp65:
LBB3_14:
	.loc	2 64 5
	jmp	LBB3_13
Ltmp66:
Lfunc_end3:
	.cfi_endproc
	.section	__TEXT,__gcc_except_tab
	.p2align	2
GCC_except_table3:
Lexception2:
	.byte	255
	.byte	255
	.byte	1
	.uleb128 Lcst_end2-Lcst_begin2
Lcst_begin2:
	.uleb128 Ltmp28-Lfunc_begin3
	.uleb128 Ltmp33-Ltmp28
	.uleb128 Ltmp36-Lfunc_begin3
	.byte	0
	.uleb128 Ltmp37-Lfunc_begin3
	.uleb128 Ltmp38-Ltmp37
	.uleb128 Ltmp39-Lfunc_begin3
	.byte	0
	.uleb128 Ltmp40-Lfunc_begin3
	.uleb128 Ltmp41-Ltmp40
	.uleb128 Ltmp42-Lfunc_begin3
	.byte	0
	.uleb128 Ltmp41-Lfunc_begin3
	.uleb128 Lfunc_end3-Ltmp41
	.byte	0
	.byte	0
Lcst_end2:
	.p2align	2

	.section	__TEXT,__text,regular,pure_instructions
	.p2align	4, 0x90
__ZN16parking_lot_core11parking_lot8deadlock16acquire_resource17h43e0f97c019d7419E:
Lfunc_begin4:
	.file	5 "/Users/natalie/.cargo/registry/src/github.com-1ecc6299db9ec823/parking_lot_core-0.9.4/src" "parking_lot.rs"
	.loc	5 1112 0
	.cfi_startproc
	pushq	%rbp
	.cfi_def_cfa_offset 16
	.cfi_offset %rbp, -16
	movq	%rsp, %rbp
	.cfi_def_cfa_register %rbp
	pushq	%rax
	movq	%rdi, -8(%rbp)
Ltmp67:
	.loc	5 1115 6 prologue_end
	addq	$8, %rsp
	popq	%rbp
	retq
Ltmp68:
Lfunc_end4:
	.cfi_endproc

	.p2align	4, 0x90
__ZN16parking_lot_core11parking_lot8deadlock16release_resource17ha280bc3e428d6184E:
Lfunc_begin5:
	.loc	5 1128 0
	.cfi_startproc
	pushq	%rbp
	.cfi_def_cfa_offset 16
	.cfi_offset %rbp, -16
	movq	%rsp, %rbp
	.cfi_def_cfa_register %rbp
	pushq	%rax
	movq	%rdi, -8(%rbp)
Ltmp69:
	.loc	5 1131 6 prologue_end
	addq	$8, %rsp
	popq	%rbp
	retq
Ltmp70:
Lfunc_end5:
	.cfi_endproc

	.globl	__ZN31_$LT$dyn$u20$core..any..Any$GT$12downcast_mut17h130ede7ddfa92863E
	.p2align	4, 0x90
__ZN31_$LT$dyn$u20$core..any..Any$GT$12downcast_mut17h130ede7ddfa92863E:
Lfunc_begin6:
	.file	6 "/rustc/2c8cc343237b8f7d5a3c3703e3a87f2eb2c54a74/library/core/src" "any.rs"
	.loc	6 323 0
	.cfi_startproc
	pushq	%rbp
	.cfi_def_cfa_offset 16
	.cfi_offset %rbp, -16
	movq	%rsp, %rbp
	.cfi_def_cfa_register %rbp
	subq	$112, %rsp
	movq	%rdi, -104(%rbp)
	movq	%rsi, -96(%rbp)
	movq	%rdi, -64(%rbp)
	movq	%rsi, -56(%rbp)
Ltmp71:
	.loc	6 324 12 prologue_end
	movq	%rdi, -48(%rbp)
	movq	%rsi, -40(%rbp)
Ltmp72:
	.loc	6 257 17
	callq	__ZN4core3any6TypeId2of17h3b5256cd7f682471E
	movq	-104(%rbp), %rdi
	movq	-96(%rbp), %rsi
	movq	%rax, -80(%rbp)
Ltmp73:
	.loc	6 260 24
	callq	*24(%rsi)
	movq	%rax, -72(%rbp)
Ltmp74:
	.loc	6 263 9
	leaq	-80(%rbp), %rax
	movq	%rax, -32(%rbp)
	.loc	6 263 14 is_stmt 0
	leaq	-72(%rbp), %rax
	movq	%rax, -24(%rbp)
Ltmp75:
	.loc	6 669 5 is_stmt 1
	movq	-80(%rbp), %rax
	cmpq	-72(%rbp), %rax
Ltmp76:
	.loc	6 324 12
	je	LBB6_2
	.loc	6 330 13
	movq	$0, -88(%rbp)
	.loc	6 324 9
	jmp	LBB6_3
LBB6_2:
	.loc	6 0 9 is_stmt 0
	movq	-104(%rbp), %rax
	movq	-96(%rbp), %rcx
	.loc	6 328 27 is_stmt 1
	movq	%rax, -16(%rbp)
	movq	%rcx, -8(%rbp)
	.loc	6 328 22 is_stmt 0
	movq	%rax, -88(%rbp)
LBB6_3:
	.loc	6 332 6 is_stmt 1
	movq	-88(%rbp), %rax
	addq	$112, %rsp
	popq	%rbp
	retq
Ltmp77:
Lfunc_end6:
	.cfi_endproc

	.p2align	4, 0x90
__ZN3std3f3221_$LT$impl$u20$f32$GT$5floor17h452acc87da2c3d4fE:
Lfunc_begin7:
	.file	7 "/rustc/2c8cc343237b8f7d5a3c3703e3a87f2eb2c54a74/library/std/src" "f32.rs"
	.loc	7 49 0
	.cfi_startproc
	pushq	%rbp
	.cfi_def_cfa_offset 16
	.cfi_offset %rbp, -16
	movq	%rsp, %rbp
	.cfi_def_cfa_register %rbp
	subq	$16, %rsp
	movss	%xmm0, -8(%rbp)
Ltmp78:
	.loc	7 50 18 prologue_end
	callq	_floorf
	movss	%xmm0, -4(%rbp)
	movss	-4(%rbp), %xmm0
	.loc	7 51 6
	addq	$16, %rsp
	popq	%rbp
	retq
Ltmp79:
Lfunc_end7:
	.cfi_endproc

	.globl	__ZN3std6thread5local17LocalKey$LT$T$GT$4with17h00d31a1a87bae8d9E
	.p2align	4, 0x90
__ZN3std6thread5local17LocalKey$LT$T$GT$4with17h00d31a1a87bae8d9E:
Lfunc_begin8:
	.file	8 "/rustc/2c8cc343237b8f7d5a3c3703e3a87f2eb2c54a74/library/std/src/thread" "local.rs"
	.loc	8 418 0
	.cfi_startproc
	pushq	%rbp
	.cfi_def_cfa_offset 16
	.cfi_offset %rbp, -16
	movq	%rsp, %rbp
	.cfi_def_cfa_register %rbp
	subq	$16, %rsp
	movq	%rdi, -16(%rbp)
	movq	%rsi, -8(%rbp)
Ltmp80:
	.loc	8 422 9 prologue_end
	callq	__ZN3std6thread5local17LocalKey$LT$T$GT$8try_with17h57010983991207c8E
	movzbl	%al, %edi
	andl	$1, %edi
	leaq	l___unnamed_6(%rip), %rsi
	leaq	l___unnamed_7(%rip), %rcx
	movl	$70, %edx
	callq	__ZN4core6result19Result$LT$T$C$E$GT$6expect17h7345db98a0c82624E
	.loc	8 426 6
	addq	$16, %rsp
	popq	%rbp
	retq
Ltmp81:
Lfunc_end8:
	.cfi_endproc

	.globl	__ZN3std6thread5local17LocalKey$LT$T$GT$4with17h559a67ad1ec40241E
	.p2align	4, 0x90
__ZN3std6thread5local17LocalKey$LT$T$GT$4with17h559a67ad1ec40241E:
Lfunc_begin9:
	.loc	8 418 0
	.cfi_startproc
	pushq	%rbp
	.cfi_def_cfa_offset 16
	.cfi_offset %rbp, -16
	movq	%rsp, %rbp
	.cfi_def_cfa_register %rbp
	subq	$16, %rsp
	movq	%rdi, -16(%rbp)
	movq	%rsi, -8(%rbp)
Ltmp82:
	.loc	8 422 9 prologue_end
	callq	__ZN3std6thread5local17LocalKey$LT$T$GT$8try_with17h6433d03fd1468332E
	movzbl	%al, %edi
	andl	$1, %edi
	leaq	l___unnamed_6(%rip), %rsi
	leaq	l___unnamed_7(%rip), %rcx
	movl	$70, %edx
	callq	__ZN4core6result19Result$LT$T$C$E$GT$6expect17h7345db98a0c82624E
	.loc	8 426 6
	addq	$16, %rsp
	popq	%rbp
	retq
Ltmp83:
Lfunc_end9:
	.cfi_endproc

	.globl	__ZN3std6thread5local17LocalKey$LT$T$GT$4with17h737fc99f8a1e1112E
	.p2align	4, 0x90
__ZN3std6thread5local17LocalKey$LT$T$GT$4with17h737fc99f8a1e1112E:
Lfunc_begin10:
	.loc	8 418 0
	.cfi_startproc
	pushq	%rbp
	.cfi_def_cfa_offset 16
	.cfi_offset %rbp, -16
	movq	%rsp, %rbp
	.cfi_def_cfa_register %rbp
	subq	$16, %rsp
	movq	%rdi, -16(%rbp)
	movq	%rsi, -8(%rbp)
Ltmp84:
	.loc	8 422 9 prologue_end
	callq	__ZN3std6thread5local17LocalKey$LT$T$GT$8try_with17h27cda1142f175b6fE
	movzbl	%al, %edi
	andl	$1, %edi
	leaq	l___unnamed_6(%rip), %rsi
	leaq	l___unnamed_7(%rip), %rcx
	movl	$70, %edx
	callq	__ZN4core6result19Result$LT$T$C$E$GT$6expect17h7345db98a0c82624E
	.loc	8 426 6
	addq	$16, %rsp
	popq	%rbp
	retq
Ltmp85:
Lfunc_end10:
	.cfi_endproc

	.globl	__ZN3std6thread5local17LocalKey$LT$T$GT$4with17hc4ff26cd6e82039dE
	.p2align	4, 0x90
__ZN3std6thread5local17LocalKey$LT$T$GT$4with17hc4ff26cd6e82039dE:
Lfunc_begin11:
	.loc	8 418 0
	.cfi_startproc
	pushq	%rbp
	.cfi_def_cfa_offset 16
	.cfi_offset %rbp, -16
	movq	%rsp, %rbp
	.cfi_def_cfa_register %rbp
	subq	$16, %rsp
	movq	%rdi, -16(%rbp)
	movq	%rsi, -8(%rbp)
Ltmp86:
	.loc	8 422 9 prologue_end
	callq	__ZN3std6thread5local17LocalKey$LT$T$GT$8try_with17h25b0026ad000e191E
	movzbl	%al, %edi
	andl	$1, %edi
	leaq	l___unnamed_6(%rip), %rsi
	leaq	l___unnamed_7(%rip), %rcx
	movl	$70, %edx
	callq	__ZN4core6result19Result$LT$T$C$E$GT$6expect17h7345db98a0c82624E
	.loc	8 426 6
	addq	$16, %rsp
	popq	%rbp
	retq
Ltmp87:
Lfunc_end11:
	.cfi_endproc

	.globl	__ZN3std6thread5local17LocalKey$LT$T$GT$8try_with17h25b0026ad000e191E
	.p2align	4, 0x90
__ZN3std6thread5local17LocalKey$LT$T$GT$8try_with17h25b0026ad000e191E:
Lfunc_begin12:
	.loc	8 440 0
	.cfi_startproc
	.cfi_personality 155, _rust_eh_personality
	.cfi_lsda 16, Lexception3
	pushq	%rbp
	.cfi_def_cfa_offset 16
	.cfi_offset %rbp, -16
	movq	%rsp, %rbp
	.cfi_def_cfa_register %rbp
	subq	$192, %rsp
	movq	%rsi, -184(%rbp)
	movq	%rdi, -112(%rbp)
	movq	%rsi, -104(%rbp)
Ltmp93:
	.loc	8 445 17 prologue_end
	movb	$1, -113(%rbp)
	.loc	8 445 32 is_stmt 0
	movq	(%rdi), %rax
	.loc	8 445 45
	movq	$0, -136(%rbp)
	.loc	8 445 32
	movq	-136(%rbp), %rdi
Ltmp88:
	callq	*%rax
Ltmp89:
	movq	%rax, -176(%rbp)
	jmp	LBB12_3
LBB12_1:
	.loc	8 448 5 is_stmt 1
	testb	$1, -113(%rbp)
	jne	LBB12_15
	jmp	LBB12_14
LBB12_2:
Ltmp92:
	.loc	8 0 5 is_stmt 0
	movq	%rax, %rcx
	movl	%edx, %eax
	movq	%rcx, -48(%rbp)
	movl	%eax, -40(%rbp)
	jmp	LBB12_1
LBB12_3:
	movq	-176(%rbp), %rax
	.loc	8 445 32 is_stmt 1
	movq	%rax, -144(%rbp)
Ltmp94:
	.file	9 "/rustc/2c8cc343237b8f7d5a3c3703e3a87f2eb2c54a74/library/core/src" "option.rs"
	.loc	9 1096 15
	movq	-144(%rbp), %rdx
	movl	$1, %eax
	xorl	%ecx, %ecx
	cmpq	$0, %rdx
	cmoveq	%rcx, %rax
	.loc	9 1096 9 is_stmt 0
	cmpq	$0, %rax
	jne	LBB12_5
	.loc	9 1098 21 is_stmt 1
	movq	$0, -152(%rbp)
	.loc	9 1098 28 is_stmt 0
	jmp	LBB12_6
LBB12_5:
	.loc	9 1097 18 is_stmt 1
	movq	-144(%rbp), %rax
	movq	%rax, -32(%rbp)
Ltmp95:
	.loc	9 1097 24 is_stmt 0
	movq	%rax, -152(%rbp)
Ltmp96:
LBB12_6:
	.file	10 "/rustc/2c8cc343237b8f7d5a3c3703e3a87f2eb2c54a74/library/core/src" "result.rs"
	.loc	10 2091 15 is_stmt 1
	movq	-152(%rbp), %rdx
	xorl	%eax, %eax
	movl	$1, %ecx
	cmpq	$0, %rdx
	cmoveq	%rcx, %rax
	.loc	10 2091 9 is_stmt 0
	cmpq	$0, %rax
	jne	LBB12_8
	.loc	10 2092 16 is_stmt 1
	movq	-152(%rbp), %rax
	movq	%rax, -24(%rbp)
Ltmp97:
	.loc	10 2092 22 is_stmt 0
	movq	%rax, -160(%rbp)
Ltmp98:
	.loc	10 2092 45
	jmp	LBB12_9
LBB12_8:
Ltmp99:
	.loc	10 2093 23 is_stmt 1
	movq	$0, -160(%rbp)
Ltmp100:
LBB12_9:
	.loc	8 445 32
	movq	-160(%rbp), %rdx
	xorl	%eax, %eax
	movl	$1, %ecx
	cmpq	$0, %rdx
	cmoveq	%rcx, %rax
	cmpq	$0, %rax
	jne	LBB12_11
	.loc	8 0 32 is_stmt 0
	movq	-184(%rbp), %rdi
	.loc	8 445 32
	movq	-160(%rbp), %rax
	movq	%rax, -16(%rbp)
Ltmp101:
	.loc	8 445 32
	movq	%rax, -8(%rbp)
Ltmp102:
	.loc	8 446 16 is_stmt 1
	movb	$0, -113(%rbp)
	movq	%rax, -128(%rbp)
	movq	-128(%rbp), %rsi
Ltmp90:
	callq	__ZN88_$LT$epaint..mutex..mutex_impl..MutexGuard$LT$T$GT$$u20$as$u20$core..ops..drop..Drop$GT$4drop28_$u7b$$u7b$closure$u7d$$u7d$17h9b4b01194d4e458dE
Ltmp91:
	jmp	LBB12_13
Ltmp103:
LBB12_11:
	.loc	10 2107 23
	movb	$1, -161(%rbp)
Ltmp104:
LBB12_12:
	.loc	8 448 6
	movb	-161(%rbp), %al
	andb	$1, %al
	movzbl	%al, %eax
	addq	$192, %rsp
	popq	%rbp
	retq
LBB12_13:
Ltmp105:
	.loc	8 446 13
	movb	$0, -161(%rbp)
Ltmp106:
	.loc	8 448 5
	jmp	LBB12_12
LBB12_14:
	.loc	8 440 5
	movq	-48(%rbp), %rdi
	callq	__Unwind_Resume
LBB12_15:
	.loc	8 448 5
	jmp	LBB12_14
Ltmp107:
Lfunc_end12:
	.cfi_endproc
	.section	__TEXT,__gcc_except_tab
	.p2align	2
GCC_except_table12:
Lexception3:
	.byte	255
	.byte	255
	.byte	1
	.uleb128 Lcst_end3-Lcst_begin3
Lcst_begin3:
	.uleb128 Ltmp88-Lfunc_begin12
	.uleb128 Ltmp91-Ltmp88
	.uleb128 Ltmp92-Lfunc_begin12
	.byte	0
	.uleb128 Ltmp91-Lfunc_begin12
	.uleb128 Lfunc_end12-Ltmp91
	.byte	0
	.byte	0
Lcst_end3:
	.p2align	2

	.section	__TEXT,__text,regular,pure_instructions
	.globl	__ZN3std6thread5local17LocalKey$LT$T$GT$8try_with17h27cda1142f175b6fE
	.p2align	4, 0x90
__ZN3std6thread5local17LocalKey$LT$T$GT$8try_with17h27cda1142f175b6fE:
Lfunc_begin13:
	.loc	8 440 0
	.cfi_startproc
	.cfi_personality 155, _rust_eh_personality
	.cfi_lsda 16, Lexception4
	pushq	%rbp
	.cfi_def_cfa_offset 16
	.cfi_offset %rbp, -16
	movq	%rsp, %rbp
	.cfi_def_cfa_register %rbp
	subq	$192, %rsp
	movq	%rsi, -184(%rbp)
	movq	%rdi, -112(%rbp)
	movq	%rsi, -104(%rbp)
Ltmp113:
	.loc	8 445 17 prologue_end
	movb	$1, -113(%rbp)
	.loc	8 445 32 is_stmt 0
	movq	(%rdi), %rax
	.loc	8 445 45
	movq	$0, -136(%rbp)
	.loc	8 445 32
	movq	-136(%rbp), %rdi
Ltmp108:
	callq	*%rax
Ltmp109:
	movq	%rax, -176(%rbp)
	jmp	LBB13_3
LBB13_1:
	.loc	8 448 5 is_stmt 1
	testb	$1, -113(%rbp)
	jne	LBB13_15
	jmp	LBB13_14
LBB13_2:
Ltmp112:
	.loc	8 0 5 is_stmt 0
	movq	%rax, %rcx
	movl	%edx, %eax
	movq	%rcx, -48(%rbp)
	movl	%eax, -40(%rbp)
	jmp	LBB13_1
LBB13_3:
	movq	-176(%rbp), %rax
	.loc	8 445 32 is_stmt 1
	movq	%rax, -144(%rbp)
Ltmp114:
	.loc	9 1096 15
	movq	-144(%rbp), %rdx
	movl	$1, %eax
	xorl	%ecx, %ecx
	cmpq	$0, %rdx
	cmoveq	%rcx, %rax
	.loc	9 1096 9 is_stmt 0
	cmpq	$0, %rax
	jne	LBB13_5
	.loc	9 1098 21 is_stmt 1
	movq	$0, -152(%rbp)
	.loc	9 1098 28 is_stmt 0
	jmp	LBB13_6
LBB13_5:
	.loc	9 1097 18 is_stmt 1
	movq	-144(%rbp), %rax
	movq	%rax, -32(%rbp)
Ltmp115:
	.loc	9 1097 24 is_stmt 0
	movq	%rax, -152(%rbp)
Ltmp116:
LBB13_6:
	.loc	10 2091 15 is_stmt 1
	movq	-152(%rbp), %rdx
	xorl	%eax, %eax
	movl	$1, %ecx
	cmpq	$0, %rdx
	cmoveq	%rcx, %rax
	.loc	10 2091 9 is_stmt 0
	cmpq	$0, %rax
	jne	LBB13_8
	.loc	10 2092 16 is_stmt 1
	movq	-152(%rbp), %rax
	movq	%rax, -24(%rbp)
Ltmp117:
	.loc	10 2092 22 is_stmt 0
	movq	%rax, -160(%rbp)
Ltmp118:
	.loc	10 2092 45
	jmp	LBB13_9
LBB13_8:
Ltmp119:
	.loc	10 2093 23 is_stmt 1
	movq	$0, -160(%rbp)
Ltmp120:
LBB13_9:
	.loc	8 445 32
	movq	-160(%rbp), %rdx
	xorl	%eax, %eax
	movl	$1, %ecx
	cmpq	$0, %rdx
	cmoveq	%rcx, %rax
	cmpq	$0, %rax
	jne	LBB13_11
	.loc	8 0 32 is_stmt 0
	movq	-184(%rbp), %rdi
	.loc	8 445 32
	movq	-160(%rbp), %rax
	movq	%rax, -16(%rbp)
Ltmp121:
	.loc	8 445 32
	movq	%rax, -8(%rbp)
Ltmp122:
	.loc	8 446 16 is_stmt 1
	movb	$0, -113(%rbp)
	movq	%rax, -128(%rbp)
	movq	-128(%rbp), %rsi
Ltmp110:
	callq	__ZN6epaint5mutex10mutex_impl14Mutex$LT$T$GT$4lock28_$u7b$$u7b$closure$u7d$$u7d$17h16de60eb1e0e13d1E
Ltmp111:
	jmp	LBB13_13
Ltmp123:
LBB13_11:
	.loc	10 2107 23
	movb	$1, -161(%rbp)
Ltmp124:
LBB13_12:
	.loc	8 448 6
	movb	-161(%rbp), %al
	andb	$1, %al
	movzbl	%al, %eax
	addq	$192, %rsp
	popq	%rbp
	retq
LBB13_13:
Ltmp125:
	.loc	8 446 13
	movb	$0, -161(%rbp)
Ltmp126:
	.loc	8 448 5
	jmp	LBB13_12
LBB13_14:
	.loc	8 440 5
	movq	-48(%rbp), %rdi
	callq	__Unwind_Resume
LBB13_15:
	.loc	8 448 5
	jmp	LBB13_14
Ltmp127:
Lfunc_end13:
	.cfi_endproc
	.section	__TEXT,__gcc_except_tab
	.p2align	2
GCC_except_table13:
Lexception4:
	.byte	255
	.byte	255
	.byte	1
	.uleb128 Lcst_end4-Lcst_begin4
Lcst_begin4:
	.uleb128 Ltmp108-Lfunc_begin13
	.uleb128 Ltmp111-Ltmp108
	.uleb128 Ltmp112-Lfunc_begin13
	.byte	0
	.uleb128 Ltmp111-Lfunc_begin13
	.uleb128 Lfunc_end13-Ltmp111
	.byte	0
	.byte	0
Lcst_end4:
	.p2align	2

	.section	__TEXT,__text,regular,pure_instructions
	.globl	__ZN3std6thread5local17LocalKey$LT$T$GT$8try_with17h57010983991207c8E
	.p2align	4, 0x90
__ZN3std6thread5local17LocalKey$LT$T$GT$8try_with17h57010983991207c8E:
Lfunc_begin14:
	.loc	8 440 0
	.cfi_startproc
	.cfi_personality 155, _rust_eh_personality
	.cfi_lsda 16, Lexception5
	pushq	%rbp
	.cfi_def_cfa_offset 16
	.cfi_offset %rbp, -16
	movq	%rsp, %rbp
	.cfi_def_cfa_register %rbp
	subq	$192, %rsp
	movq	%rsi, -184(%rbp)
	movq	%rdi, -112(%rbp)
	movq	%rsi, -104(%rbp)
Ltmp133:
	.loc	8 445 17 prologue_end
	movb	$1, -113(%rbp)
	.loc	8 445 32 is_stmt 0
	movq	(%rdi), %rax
	.loc	8 445 45
	movq	$0, -136(%rbp)
	.loc	8 445 32
	movq	-136(%rbp), %rdi
Ltmp128:
	callq	*%rax
Ltmp129:
	movq	%rax, -176(%rbp)
	jmp	LBB14_3
LBB14_1:
	.loc	8 448 5 is_stmt 1
	testb	$1, -113(%rbp)
	jne	LBB14_15
	jmp	LBB14_14
LBB14_2:
Ltmp132:
	.loc	8 0 5 is_stmt 0
	movq	%rax, %rcx
	movl	%edx, %eax
	movq	%rcx, -48(%rbp)
	movl	%eax, -40(%rbp)
	jmp	LBB14_1
LBB14_3:
	movq	-176(%rbp), %rax
	.loc	8 445 32 is_stmt 1
	movq	%rax, -144(%rbp)
Ltmp134:
	.loc	9 1096 15
	movq	-144(%rbp), %rdx
	movl	$1, %eax
	xorl	%ecx, %ecx
	cmpq	$0, %rdx
	cmoveq	%rcx, %rax
	.loc	9 1096 9 is_stmt 0
	cmpq	$0, %rax
	jne	LBB14_5
	.loc	9 1098 21 is_stmt 1
	movq	$0, -152(%rbp)
	.loc	9 1098 28 is_stmt 0
	jmp	LBB14_6
LBB14_5:
	.loc	9 1097 18 is_stmt 1
	movq	-144(%rbp), %rax
	movq	%rax, -32(%rbp)
Ltmp135:
	.loc	9 1097 24 is_stmt 0
	movq	%rax, -152(%rbp)
Ltmp136:
LBB14_6:
	.loc	10 2091 15 is_stmt 1
	movq	-152(%rbp), %rdx
	xorl	%eax, %eax
	movl	$1, %ecx
	cmpq	$0, %rdx
	cmoveq	%rcx, %rax
	.loc	10 2091 9 is_stmt 0
	cmpq	$0, %rax
	jne	LBB14_8
	.loc	10 2092 16 is_stmt 1
	movq	-152(%rbp), %rax
	movq	%rax, -24(%rbp)
Ltmp137:
	.loc	10 2092 22 is_stmt 0
	movq	%rax, -160(%rbp)
Ltmp138:
	.loc	10 2092 45
	jmp	LBB14_9
LBB14_8:
Ltmp139:
	.loc	10 2093 23 is_stmt 1
	movq	$0, -160(%rbp)
Ltmp140:
LBB14_9:
	.loc	8 445 32
	movq	-160(%rbp), %rdx
	xorl	%eax, %eax
	movl	$1, %ecx
	cmpq	$0, %rdx
	cmoveq	%rcx, %rax
	cmpq	$0, %rax
	jne	LBB14_11
	.loc	8 0 32 is_stmt 0
	movq	-184(%rbp), %rdi
	.loc	8 445 32
	movq	-160(%rbp), %rax
	movq	%rax, -16(%rbp)
Ltmp141:
	.loc	8 445 32
	movq	%rax, -8(%rbp)
Ltmp142:
	.loc	8 446 16 is_stmt 1
	movb	$0, -113(%rbp)
	movq	%rax, -128(%rbp)
	movq	-128(%rbp), %rsi
Ltmp130:
	callq	__ZN6epaint5mutex10mutex_impl14Mutex$LT$T$GT$4lock28_$u7b$$u7b$closure$u7d$$u7d$17h97c32ef425defd67E
Ltmp131:
	jmp	LBB14_13
Ltmp143:
LBB14_11:
	.loc	10 2107 23
	movb	$1, -161(%rbp)
Ltmp144:
LBB14_12:
	.loc	8 448 6
	movb	-161(%rbp), %al
	andb	$1, %al
	movzbl	%al, %eax
	addq	$192, %rsp
	popq	%rbp
	retq
LBB14_13:
Ltmp145:
	.loc	8 446 13
	movb	$0, -161(%rbp)
Ltmp146:
	.loc	8 448 5
	jmp	LBB14_12
LBB14_14:
	.loc	8 440 5
	movq	-48(%rbp), %rdi
	callq	__Unwind_Resume
LBB14_15:
	.loc	8 448 5
	jmp	LBB14_14
Ltmp147:
Lfunc_end14:
	.cfi_endproc
	.section	__TEXT,__gcc_except_tab
	.p2align	2
GCC_except_table14:
Lexception5:
	.byte	255
	.byte	255
	.byte	1
	.uleb128 Lcst_end5-Lcst_begin5
Lcst_begin5:
	.uleb128 Ltmp128-Lfunc_begin14
	.uleb128 Ltmp131-Ltmp128
	.uleb128 Ltmp132-Lfunc_begin14
	.byte	0
	.uleb128 Ltmp131-Lfunc_begin14
	.uleb128 Lfunc_end14-Ltmp131
	.byte	0
	.byte	0
Lcst_end5:
	.p2align	2

	.section	__TEXT,__text,regular,pure_instructions
	.globl	__ZN3std6thread5local17LocalKey$LT$T$GT$8try_with17h6433d03fd1468332E
	.p2align	4, 0x90
__ZN3std6thread5local17LocalKey$LT$T$GT$8try_with17h6433d03fd1468332E:
Lfunc_begin15:
	.loc	8 440 0
	.cfi_startproc
	.cfi_personality 155, _rust_eh_personality
	.cfi_lsda 16, Lexception6
	pushq	%rbp
	.cfi_def_cfa_offset 16
	.cfi_offset %rbp, -16
	movq	%rsp, %rbp
	.cfi_def_cfa_register %rbp
	subq	$192, %rsp
	movq	%rsi, -184(%rbp)
	movq	%rdi, -112(%rbp)
	movq	%rsi, -104(%rbp)
Ltmp153:
	.loc	8 445 17 prologue_end
	movb	$1, -113(%rbp)
	.loc	8 445 32 is_stmt 0
	movq	(%rdi), %rax
	.loc	8 445 45
	movq	$0, -136(%rbp)
	.loc	8 445 32
	movq	-136(%rbp), %rdi
Ltmp148:
	callq	*%rax
Ltmp149:
	movq	%rax, -176(%rbp)
	jmp	LBB15_3
LBB15_1:
	.loc	8 448 5 is_stmt 1
	testb	$1, -113(%rbp)
	jne	LBB15_15
	jmp	LBB15_14
LBB15_2:
Ltmp152:
	.loc	8 0 5 is_stmt 0
	movq	%rax, %rcx
	movl	%edx, %eax
	movq	%rcx, -48(%rbp)
	movl	%eax, -40(%rbp)
	jmp	LBB15_1
LBB15_3:
	movq	-176(%rbp), %rax
	.loc	8 445 32 is_stmt 1
	movq	%rax, -144(%rbp)
Ltmp154:
	.loc	9 1096 15
	movq	-144(%rbp), %rdx
	movl	$1, %eax
	xorl	%ecx, %ecx
	cmpq	$0, %rdx
	cmoveq	%rcx, %rax
	.loc	9 1096 9 is_stmt 0
	cmpq	$0, %rax
	jne	LBB15_5
	.loc	9 1098 21 is_stmt 1
	movq	$0, -152(%rbp)
	.loc	9 1098 28 is_stmt 0
	jmp	LBB15_6
LBB15_5:
	.loc	9 1097 18 is_stmt 1
	movq	-144(%rbp), %rax
	movq	%rax, -32(%rbp)
Ltmp155:
	.loc	9 1097 24 is_stmt 0
	movq	%rax, -152(%rbp)
Ltmp156:
LBB15_6:
	.loc	10 2091 15 is_stmt 1
	movq	-152(%rbp), %rdx
	xorl	%eax, %eax
	movl	$1, %ecx
	cmpq	$0, %rdx
	cmoveq	%rcx, %rax
	.loc	10 2091 9 is_stmt 0
	cmpq	$0, %rax
	jne	LBB15_8
	.loc	10 2092 16 is_stmt 1
	movq	-152(%rbp), %rax
	movq	%rax, -24(%rbp)
Ltmp157:
	.loc	10 2092 22 is_stmt 0
	movq	%rax, -160(%rbp)
Ltmp158:
	.loc	10 2092 45
	jmp	LBB15_9
LBB15_8:
Ltmp159:
	.loc	10 2093 23 is_stmt 1
	movq	$0, -160(%rbp)
Ltmp160:
LBB15_9:
	.loc	8 445 32
	movq	-160(%rbp), %rdx
	xorl	%eax, %eax
	movl	$1, %ecx
	cmpq	$0, %rdx
	cmoveq	%rcx, %rax
	cmpq	$0, %rax
	jne	LBB15_11
	.loc	8 0 32 is_stmt 0
	movq	-184(%rbp), %rdi
	.loc	8 445 32
	movq	-160(%rbp), %rax
	movq	%rax, -16(%rbp)
Ltmp161:
	.loc	8 445 32
	movq	%rax, -8(%rbp)
Ltmp162:
	.loc	8 446 16 is_stmt 1
	movb	$0, -113(%rbp)
	movq	%rax, -128(%rbp)
	movq	-128(%rbp), %rsi
Ltmp150:
	callq	__ZN88_$LT$epaint..mutex..mutex_impl..MutexGuard$LT$T$GT$$u20$as$u20$core..ops..drop..Drop$GT$4drop28_$u7b$$u7b$closure$u7d$$u7d$17h9ca6a36d48089418E
Ltmp151:
	jmp	LBB15_13
Ltmp163:
LBB15_11:
	.loc	10 2107 23
	movb	$1, -161(%rbp)
Ltmp164:
LBB15_12:
	.loc	8 448 6
	movb	-161(%rbp), %al
	andb	$1, %al
	movzbl	%al, %eax
	addq	$192, %rsp
	popq	%rbp
	retq
LBB15_13:
Ltmp165:
	.loc	8 446 13
	movb	$0, -161(%rbp)
Ltmp166:
	.loc	8 448 5
	jmp	LBB15_12
LBB15_14:
	.loc	8 440 5
	movq	-48(%rbp), %rdi
	callq	__Unwind_Resume
LBB15_15:
	.loc	8 448 5
	jmp	LBB15_14
Ltmp167:
Lfunc_end15:
	.cfi_endproc
	.section	__TEXT,__gcc_except_tab
	.p2align	2
GCC_except_table15:
Lexception6:
	.byte	255
	.byte	255
	.byte	1
	.uleb128 Lcst_end6-Lcst_begin6
Lcst_begin6:
	.uleb128 Ltmp148-Lfunc_begin15
	.uleb128 Ltmp151-Ltmp148
	.uleb128 Ltmp152-Lfunc_begin15
	.byte	0
	.uleb128 Ltmp151-Lfunc_begin15
	.uleb128 Lfunc_end15-Ltmp151
	.byte	0
	.byte	0
Lcst_end6:
	.p2align	2

	.section	__TEXT,__text,regular,pure_instructions
	.globl	__ZN42_$LT$$RF$T$u20$as$u20$core..fmt..Debug$GT$3fmt17h9fb1b63e0e98b091E
	.p2align	4, 0x90
__ZN42_$LT$$RF$T$u20$as$u20$core..fmt..Debug$GT$3fmt17h9fb1b63e0e98b091E:
Lfunc_begin16:
	.file	11 "/rustc/2c8cc343237b8f7d5a3c3703e3a87f2eb2c54a74/library/core/src/fmt" "mod.rs"
	.loc	11 2377 0
	.cfi_startproc
	pushq	%rbp
	.cfi_def_cfa_offset 16
	.cfi_offset %rbp, -16
	movq	%rsp, %rbp
	.cfi_def_cfa_register %rbp
	subq	$16, %rsp
	movq	%rdi, -16(%rbp)
	movq	%rsi, -8(%rbp)
Ltmp168:
	.loc	11 2377 71 prologue_end
	movq	(%rdi), %rdi
	.loc	11 2377 62 is_stmt 0
	callq	__ZN50_$LT$$LP$U$C$T$RP$$u20$as$u20$core..fmt..Debug$GT$3fmt17h5b14918087255b50E
	.loc	11 2377 84
	andb	$1, %al
	movzbl	%al, %eax
	addq	$16, %rsp
	popq	%rbp
	retq
Ltmp169:
Lfunc_end16:
	.cfi_endproc

	.p2align	4, 0x90
__ZN48_$LT$usize$u20$as$u20$core..default..Default$GT$7default17hd31dcbec27516a3cE:
Lfunc_begin17:
	.file	12 "/rustc/2c8cc343237b8f7d5a3c3703e3a87f2eb2c54a74/library/core/src" "default.rs"
	.loc	12 197 0 is_stmt 1
	.cfi_startproc
	pushq	%rbp
	.cfi_def_cfa_offset 16
	.cfi_offset %rbp, -16
	movq	%rsp, %rbp
	.cfi_def_cfa_register %rbp
Ltmp170:
	.loc	12 199 14 prologue_end
	xorl	%eax, %eax
	popq	%rbp
	retq
Ltmp171:
Lfunc_end17:
	.cfi_endproc

	.globl	__ZN4core3any6TypeId2of17h3b5256cd7f682471E
	.p2align	4, 0x90
__ZN4core3any6TypeId2of17h3b5256cd7f682471E:
Lfunc_begin18:
	.loc	6 691 0
	.cfi_startproc
	pushq	%rbp
	.cfi_def_cfa_offset 16
	.cfi_offset %rbp, -16
	movq	%rsp, %rbp
	.cfi_def_cfa_register %rbp
	subq	$16, %rsp
Ltmp172:
	.loc	6 692 21 prologue_end
	movabsq	$7561900516789800531, %rax
	movq	%rax, -8(%rbp)
	movq	-8(%rbp), %rax
	.loc	6 692 9 is_stmt 0
	movq	%rax, -16(%rbp)
	.loc	6 693 6 is_stmt 1
	movq	-16(%rbp), %rax
	addq	$16, %rsp
	popq	%rbp
	retq
Ltmp173:
Lfunc_end18:
	.cfi_endproc

	.p2align	4, 0x90
__ZN4core3f3221_$LT$impl$u20$f32$GT$3max17h76729126d51812c6E:
Lfunc_begin19:
	.file	13 "/rustc/2c8cc343237b8f7d5a3c3703e3a87f2eb2c54a74/library/core/src/num" "f32.rs"
	.loc	13 849 0
	.cfi_startproc
	pushq	%rbp
	.cfi_def_cfa_offset 16
	.cfi_offset %rbp, -16
	movq	%rsp, %rbp
	.cfi_def_cfa_register %rbp
	subq	$12, %rsp
	movaps	%xmm1, %xmm2
	movaps	%xmm0, %xmm3
	movss	%xmm3, -12(%rbp)
	movss	%xmm2, -8(%rbp)
Ltmp174:
	.loc	13 850 9 prologue_end
	movaps	%xmm2, %xmm4
	movaps	%xmm3, %xmm0
	cmpunordss	%xmm0, %xmm0
	movaps	%xmm0, %xmm1
	pand	%xmm4, %xmm1
	maxss	%xmm3, %xmm2
	pandn	%xmm2, %xmm0
	por	%xmm1, %xmm0
	movss	%xmm0, -4(%rbp)
	movss	-4(%rbp), %xmm0
	.loc	13 851 6
	addq	$12, %rsp
	popq	%rbp
	retq
Ltmp175:
Lfunc_end19:
	.cfi_endproc

	.p2align	4, 0x90
__ZN4core3f3221_$LT$impl$u20$f32$GT$3min17h7100491f2acdc4c7E:
Lfunc_begin20:
	.loc	13 869 0
	.cfi_startproc
	pushq	%rbp
	.cfi_def_cfa_offset 16
	.cfi_offset %rbp, -16
	movq	%rsp, %rbp
	.cfi_def_cfa_register %rbp
	subq	$12, %rsp
	movaps	%xmm1, %xmm2
	movaps	%xmm0, %xmm3
	movss	%xmm3, -12(%rbp)
	movss	%xmm2, -8(%rbp)
Ltmp176:
	.loc	13 870 9 prologue_end
	movaps	%xmm2, %xmm4
	movaps	%xmm3, %xmm0
	cmpunordss	%xmm0, %xmm0
	movaps	%xmm0, %xmm1
	pand	%xmm4, %xmm1
	minss	%xmm3, %xmm2
	pandn	%xmm2, %xmm0
	por	%xmm1, %xmm0
	movss	%xmm0, -4(%rbp)
	movss	-4(%rbp), %xmm0
	.loc	13 871 6
	addq	$12, %rsp
	popq	%rbp
	retq
Ltmp177:
Lfunc_end20:
	.cfi_endproc

	.p2align	4, 0x90
__ZN4core3f3221_$LT$impl$u20$f32$GT$5clamp17h80091635d4bd8d78E:
Lfunc_begin21:
	.loc	13 1393 0
	.cfi_startproc
	pushq	%rbp
	.cfi_def_cfa_offset 16
	.cfi_offset %rbp, -16
	movq	%rsp, %rbp
	.cfi_def_cfa_register %rbp
	subq	$32, %rsp
	movss	%xmm1, -20(%rbp)
	movss	%xmm2, -16(%rbp)
	movss	%xmm0, -12(%rbp)
	movss	%xmm1, -8(%rbp)
	movss	%xmm2, -4(%rbp)
Ltmp178:
	.loc	13 1394 17 prologue_end
	ucomiss	%xmm1, %xmm2
	setae	%al
	.loc	13 1394 9 is_stmt 0
	xorb	$-1, %al
	testb	$1, %al
	jne	LBB21_2
	.loc	13 0 9
	movss	-20(%rbp), %xmm0
	.loc	13 1395 12 is_stmt 1
	ucomiss	-12(%rbp), %xmm0
	ja	LBB21_4
	jmp	LBB21_3
LBB21_2:
	.loc	13 1394 9
	leaq	l___unnamed_8(%rip), %rdi
	leaq	l___unnamed_9(%rip), %rdx
	movl	$28, %esi
	callq	__ZN4core9panicking5panic17hc1bc45270cf64b03E
LBB21_3:
	.loc	13 0 9 is_stmt 0
	movss	-16(%rbp), %xmm1
	.loc	13 1398 12 is_stmt 1
	movss	-12(%rbp), %xmm0
	ucomiss	%xmm1, %xmm0
	ja	LBB21_6
	jmp	LBB21_5
LBB21_4:
	.loc	13 0 12 is_stmt 0
	movss	-20(%rbp), %xmm0
	.loc	13 1396 13 is_stmt 1
	movss	%xmm0, -12(%rbp)
	.loc	13 1395 9
	jmp	LBB21_3
LBB21_5:
	.loc	13 1401 9
	movss	-12(%rbp), %xmm0
	.loc	13 1402 6
	addq	$32, %rsp
	popq	%rbp
	retq
LBB21_6:
	.loc	13 0 6 is_stmt 0
	movss	-16(%rbp), %xmm0
	.loc	13 1399 13 is_stmt 1
	movss	%xmm0, -12(%rbp)
	.loc	13 1398 9
	jmp	LBB21_5
Ltmp179:
Lfunc_end21:
	.cfi_endproc

	.p2align	4, 0x90
__ZN4core3fmt9Arguments6new_v117h9b2d11adb3179447E:
Lfunc_begin22:
	.loc	11 399 0
	.cfi_startproc
	pushq	%rbp
	.cfi_def_cfa_offset 16
	.cfi_offset %rbp, -16
	movq	%rsp, %rbp
	.cfi_def_cfa_register %rbp
	subq	$160, %rsp
	movq	%r8, -152(%rbp)
	movq	%rcx, -144(%rbp)
	movq	%rdx, -136(%rbp)
	movq	%rsi, -128(%rbp)
	movq	%rdi, -120(%rbp)
	movq	%rdi, -112(%rbp)
	movq	%rsi, -32(%rbp)
	movq	%rdx, -24(%rbp)
	movq	%rcx, -16(%rbp)
	movq	%r8, -8(%rbp)
Ltmp180:
	.loc	11 400 12 prologue_end
	cmpq	%r8, %rdx
	jb	LBB22_2
	.loc	11 0 12 is_stmt 0
	movq	-136(%rbp), %rax
	movq	-152(%rbp), %rcx
	.loc	11 400 56
	addq	$1, %rcx
	.loc	11 400 41
	cmpq	%rcx, %rax
	seta	%al
	.loc	11 400 12
	andb	$1, %al
	movb	%al, -97(%rbp)
	jmp	LBB22_3
LBB22_2:
	movb	$1, -97(%rbp)
LBB22_3:
	testb	$1, -97(%rbp)
	jne	LBB22_5
	.loc	11 0 12
	movq	-112(%rbp), %rax
	movq	-120(%rbp), %rcx
	movq	-152(%rbp), %rdx
	movq	-144(%rbp), %rsi
	movq	-136(%rbp), %rdi
	movq	-128(%rbp), %r8
	.loc	11 403 34 is_stmt 1
	movq	$0, -48(%rbp)
	.loc	11 403 9 is_stmt 0
	movq	%r8, 16(%rcx)
	movq	%rdi, 24(%rcx)
	movq	-48(%rbp), %r8
	movq	-40(%rbp), %rdi
	movq	%r8, (%rcx)
	movq	%rdi, 8(%rcx)
	movq	%rsi, 32(%rcx)
	movq	%rdx, 40(%rcx)
	.loc	11 404 6 is_stmt 1
	addq	$160, %rsp
	popq	%rbp
	retq
LBB22_5:
	.loc	11 401 13
	leaq	l___unnamed_10(%rip), %rsi
	leaq	l___unnamed_4(%rip), %rcx
	xorl	%eax, %eax
	movl	%eax, %r8d
	leaq	-96(%rbp), %rdi
	movq	%rdi, -160(%rbp)
	movl	$1, %edx
	callq	__ZN4core3fmt9Arguments6new_v117h9b2d11adb3179447E
	movq	-160(%rbp), %rdi
	leaq	l___unnamed_11(%rip), %rsi
	callq	__ZN4core9panicking9panic_fmt17h9b5d807e24bcaaedE
Ltmp181:
Lfunc_end22:
	.cfi_endproc

	.globl	__ZN4core3mem4take17h728cee5ddab03d17E
	.p2align	4, 0x90
__ZN4core3mem4take17h728cee5ddab03d17E:
Lfunc_begin23:
	.file	14 "/rustc/2c8cc343237b8f7d5a3c3703e3a87f2eb2c54a74/library/core/src/mem" "mod.rs"
	.loc	14 838 0
	.cfi_startproc
	pushq	%rbp
	.cfi_def_cfa_offset 16
	.cfi_offset %rbp, -16
	movq	%rsp, %rbp
	.cfi_def_cfa_register %rbp
	subq	$80, %rsp
	movq	%rsi, -64(%rbp)
	movq	%rdi, -72(%rbp)
	movq	%rdi, -56(%rbp)
	movq	%rsi, -8(%rbp)
Ltmp182:
	.loc	14 839 19 prologue_end
	leaq	-48(%rbp), %rdi
	callq	__ZN68_$LT$epaint..image..ColorImage$u20$as$u20$core..default..Default$GT$7default17h9f074b4fdd3156d0E
	movq	-72(%rbp), %rdi
	movq	-64(%rbp), %rsi
	.loc	14 839 5 is_stmt 0
	leaq	-48(%rbp), %rdx
	callq	__ZN4core3mem7replace17hbe8bfb7d243f70edE
	movq	-56(%rbp), %rax
	.loc	14 840 2 is_stmt 1
	addq	$80, %rsp
	popq	%rbp
	retq
Ltmp183:
Lfunc_end23:
	.cfi_endproc

	.globl	__ZN4core3mem7replace17hbe8bfb7d243f70edE
	.p2align	4, 0x90
__ZN4core3mem7replace17hbe8bfb7d243f70edE:
Lfunc_begin24:
	.loc	14 905 0
	.cfi_startproc
	pushq	%rbp
	.cfi_def_cfa_offset 16
	.cfi_offset %rbp, -16
	movq	%rsp, %rbp
	.cfi_def_cfa_register %rbp
	subq	$240, %rsp
	movq	%rdx, -240(%rbp)
Ltmp184:
	movq	%rsi, -232(%rbp)
	movq	%rdi, -224(%rbp)
	movq	%rdi, -216(%rbp)
	movq	%rsi, -48(%rbp)
Ltmp185:
	.loc	14 910 32 prologue_end
	movq	%rsi, -40(%rbp)
Ltmp186:
	.file	15 "/rustc/2c8cc343237b8f7d5a3c3703e3a87f2eb2c54a74/library/core/src/ptr" "mod.rs"
	.loc	15 1157 34
	leaq	-168(%rbp), %rax
	movq	%rax, -32(%rbp)
	.loc	15 1157 9 is_stmt 0
	leaq	-168(%rbp), %rdi
	movl	$40, %edx
Ltmp187:
	callq	_memcpy
	.loc	15 1158 9 is_stmt 1
	leaq	-128(%rbp), %rdi
	leaq	-168(%rbp), %rsi
	movl	$40, %edx
	callq	_memcpy
Ltmp188:
	.file	16 "/rustc/2c8cc343237b8f7d5a3c3703e3a87f2eb2c54a74/library/core/src/mem" "maybe_uninit.rs"
	.loc	16 627 38
	leaq	-88(%rbp), %rdi
	leaq	-128(%rbp), %rsi
	movl	$40, %edx
	callq	_memcpy
	movq	-224(%rbp), %rdi
Ltmp189:
	.file	17 "/rustc/2c8cc343237b8f7d5a3c3703e3a87f2eb2c54a74/library/core/src/mem" "manually_drop.rs"
	.loc	17 89 9
	leaq	-88(%rbp), %rsi
	movl	$40, %edx
	callq	_memcpy
	movq	-240(%rbp), %rsi
	movq	-232(%rbp), %rax
Ltmp190:
	.loc	14 911 20
	movq	%rax, -8(%rbp)
	.loc	14 911 26 is_stmt 0
	leaq	-208(%rbp), %rdi
	movl	$40, %edx
	callq	_memcpy
	movq	-232(%rbp), %rdi
Ltmp191:
	.loc	15 1354 9 is_stmt 1
	leaq	-208(%rbp), %rsi
	movl	$40, %edx
	callq	_memcpy
	movq	-216(%rbp), %rax
Ltmp192:
	.loc	14 914 2
	addq	$240, %rsp
	popq	%rbp
	retq
Ltmp193:
Lfunc_end24:
	.cfi_endproc

	.globl	__ZN4core3mem7replace17hccf95aacffeb7314E
	.p2align	4, 0x90
__ZN4core3mem7replace17hccf95aacffeb7314E:
Lfunc_begin25:
	.loc	14 905 0
	.cfi_startproc
	pushq	%rbp
	.cfi_def_cfa_offset 16
	.cfi_offset %rbp, -16
	movq	%rsp, %rbp
	.cfi_def_cfa_register %rbp
	subq	$176, %rsp
	movq	%rdx, -176(%rbp)
Ltmp194:
	movq	%rsi, -168(%rbp)
	movq	%rdi, -160(%rbp)
	movq	%rdi, -152(%rbp)
	movq	%rsi, -48(%rbp)
Ltmp195:
	.loc	14 910 32 prologue_end
	movq	%rsi, -40(%rbp)
Ltmp196:
	.loc	15 1157 34
	leaq	-120(%rbp), %rax
	movq	%rax, -32(%rbp)
	.loc	15 1157 9 is_stmt 0
	movq	(%rsi), %rax
	movq	%rax, -120(%rbp)
	movq	8(%rsi), %rax
	movq	%rax, -112(%rbp)
	movq	16(%rsi), %rax
	movq	%rax, -104(%rbp)
	.loc	15 1158 9 is_stmt 1
	movq	-120(%rbp), %rax
	movq	%rax, -96(%rbp)
	movq	-112(%rbp), %rax
	movq	%rax, -88(%rbp)
	movq	-104(%rbp), %rax
	movq	%rax, -80(%rbp)
Ltmp197:
	.loc	15 0 9 is_stmt 0
	movq	-152(%rbp), %rax
	movq	-168(%rbp), %rcx
	movq	-176(%rbp), %rdx
	movq	-160(%rbp), %rsi
Ltmp198:
	.loc	16 627 38 is_stmt 1
	movq	-96(%rbp), %rdi
	movq	%rdi, -72(%rbp)
	movq	-88(%rbp), %rdi
	movq	%rdi, -64(%rbp)
	movq	-80(%rbp), %rdi
	movq	%rdi, -56(%rbp)
Ltmp199:
	.loc	17 89 9
	movq	-72(%rbp), %rdi
	movq	%rdi, (%rsi)
	movq	-64(%rbp), %rdi
	movq	%rdi, 8(%rsi)
	movq	-56(%rbp), %rdi
	movq	%rdi, 16(%rsi)
Ltmp200:
	.loc	14 911 20
	movq	%rcx, -8(%rbp)
	.loc	14 911 26 is_stmt 0
	movq	(%rdx), %rsi
	movq	%rsi, -144(%rbp)
	movq	8(%rdx), %rsi
	movq	%rsi, -136(%rbp)
	movq	16(%rdx), %rdx
	movq	%rdx, -128(%rbp)
Ltmp201:
	.loc	15 1354 9 is_stmt 1
	movq	-144(%rbp), %rdx
	movq	%rdx, (%rcx)
	movq	-136(%rbp), %rdx
	movq	%rdx, 8(%rcx)
	movq	-128(%rbp), %rdx
	movq	%rdx, 16(%rcx)
Ltmp202:
	.loc	14 914 2
	addq	$176, %rsp
	popq	%rbp
	retq
Ltmp203:
Lfunc_end25:
	.cfi_endproc

	.p2align	4, 0x90
__ZN4core3num23_$LT$impl$u20$usize$GT$11checked_add17hd659a694d90ef8c4E:
Lfunc_begin26:
	.file	18 "/rustc/2c8cc343237b8f7d5a3c3703e3a87f2eb2c54a74/library/core/src/num" "uint_macros.rs"
	.loc	18 442 0
	.cfi_startproc
	pushq	%rbp
	.cfi_def_cfa_offset 16
	.cfi_offset %rbp, -16
	movq	%rsp, %rbp
	.cfi_def_cfa_register %rbp
	subq	$120, %rsp
	movq	%rdi, -80(%rbp)
	movq	%rsi, -72(%rbp)
Ltmp204:
	.loc	18 443 26 prologue_end
	movq	%rdi, -64(%rbp)
	.loc	18 443 47 is_stmt 0
	movq	%rsi, -56(%rbp)
Ltmp205:
	.loc	18 1479 26 is_stmt 1
	addq	%rsi, %rdi
	setb	%al
	andb	$1, %al
	movq	%rdi, -48(%rbp)
	movb	%al, -40(%rbp)
	movq	-48(%rbp), %rcx
	movb	-40(%rbp), %al
	.loc	18 1479 18 is_stmt 0
	movq	%rcx, -32(%rbp)
	.loc	18 1479 21
	movb	%al, %dl
	andb	$1, %dl
	movb	%dl, -17(%rbp)
Ltmp206:
	.loc	18 1480 13 is_stmt 1
	movq	%rcx, -96(%rbp)
	andb	$1, %al
	movb	%al, -88(%rbp)
Ltmp207:
	.loc	18 443 18
	movq	-96(%rbp), %rax
	movq	%rax, -120(%rbp)
	movq	%rax, -16(%rbp)
	.loc	18 443 21 is_stmt 0
	movb	-88(%rbp), %al
	movb	%al, %cl
	andb	$1, %cl
	movb	%cl, -2(%rbp)
Ltmp208:
	.loc	18 444 16 is_stmt 1
	andb	$1, %al
	movb	%al, -1(%rbp)
	testb	$1, -1(%rbp)
	jne	LBB26_2
	.loc	18 0 16 is_stmt 0
	movq	-120(%rbp), %rax
	.loc	18 444 42
	movq	%rax, -104(%rbp)
	movq	$1, -112(%rbp)
	.loc	18 444 13
	jmp	LBB26_3
LBB26_2:
	.loc	18 444 30
	movq	$0, -112(%rbp)
Ltmp209:
LBB26_3:
	.loc	18 445 10 is_stmt 1
	movq	-112(%rbp), %rax
	movq	-104(%rbp), %rdx
	addq	$120, %rsp
	popq	%rbp
	retq
Ltmp210:
Lfunc_end26:
	.cfi_endproc

	.globl	__ZN4core3ptr111drop_in_place$LT$lock_api..mutex..Mutex$LT$parking_lot..raw_mutex..RawMutex$C$epaint..image..ColorImage$GT$$GT$17h2eec578fc95a13b4E
	.p2align	4, 0x90
__ZN4core3ptr111drop_in_place$LT$lock_api..mutex..Mutex$LT$parking_lot..raw_mutex..RawMutex$C$epaint..image..ColorImage$GT$$GT$17h2eec578fc95a13b4E:
Lfunc_begin27:
	.loc	15 490 0
	.cfi_startproc
	pushq	%rbp
	.cfi_def_cfa_offset 16
	.cfi_offset %rbp, -16
	movq	%rsp, %rbp
	.cfi_def_cfa_register %rbp
	subq	$16, %rsp
	movq	%rdi, -8(%rbp)
Ltmp211:
	.loc	15 490 1 prologue_end
	addq	$8, %rdi
	callq	__ZN4core3ptr76drop_in_place$LT$core..cell..UnsafeCell$LT$epaint..image..ColorImage$GT$$GT$17hd571f198420fab38E
	addq	$16, %rsp
	popq	%rbp
	retq
Ltmp212:
Lfunc_end27:
	.cfi_endproc

	.globl	__ZN4core3ptr116drop_in_place$LT$core..cell..UnsafeCell$LT$core..option..Option$LT$epaint..texture_handle..TextureHandle$GT$$GT$$GT$17hef4d8fa4540d8b98E
	.p2align	4, 0x90
__ZN4core3ptr116drop_in_place$LT$core..cell..UnsafeCell$LT$core..option..Option$LT$epaint..texture_handle..TextureHandle$GT$$GT$$GT$17hef4d8fa4540d8b98E:
Lfunc_begin28:
	.loc	15 490 0
	.cfi_startproc
	pushq	%rbp
	.cfi_def_cfa_offset 16
	.cfi_offset %rbp, -16
	movq	%rsp, %rbp
	.cfi_def_cfa_register %rbp
	subq	$16, %rsp
	movq	%rdi, -8(%rbp)
Ltmp213:
	.loc	15 490 1 prologue_end
	callq	__ZN4core3ptr86drop_in_place$LT$core..option..Option$LT$epaint..texture_handle..TextureHandle$GT$$GT$17h16adc8e40e12c782E
	addq	$16, %rsp
	popq	%rbp
	retq
Ltmp214:
Lfunc_end28:
	.cfi_endproc

	.globl	__ZN4core3ptr116drop_in_place$LT$lock_api..mutex..MutexGuard$LT$parking_lot..raw_mutex..RawMutex$C$epaint..image..ColorImage$GT$$GT$17h655d697ac0a44054E
	.p2align	4, 0x90
__ZN4core3ptr116drop_in_place$LT$lock_api..mutex..MutexGuard$LT$parking_lot..raw_mutex..RawMutex$C$epaint..image..ColorImage$GT$$GT$17h655d697ac0a44054E:
Lfunc_begin29:
	.loc	15 490 0
	.cfi_startproc
	pushq	%rbp
	.cfi_def_cfa_offset 16
	.cfi_offset %rbp, -16
	movq	%rsp, %rbp
	.cfi_def_cfa_register %rbp
	subq	$16, %rsp
	movq	%rdi, -8(%rbp)
Ltmp215:
	.loc	15 490 1 prologue_end
	callq	__ZN82_$LT$lock_api..mutex..MutexGuard$LT$R$C$T$GT$$u20$as$u20$core..ops..drop..Drop$GT$4drop17h03ecb75d3eadde92E
	addq	$16, %rsp
	popq	%rbp
	retq
Ltmp216:
Lfunc_end29:
	.cfi_endproc

	.globl	__ZN4core3ptr126drop_in_place$LT$epaint..mutex..mutex_impl..Mutex$LT$core..option..Option$LT$epaint..texture_handle..TextureHandle$GT$$GT$$GT$17hc22f336e1f9f11beE
	.p2align	4, 0x90
__ZN4core3ptr126drop_in_place$LT$epaint..mutex..mutex_impl..Mutex$LT$core..option..Option$LT$epaint..texture_handle..TextureHandle$GT$$GT$$GT$17hc22f336e1f9f11beE:
Lfunc_begin30:
	.loc	15 490 0
	.cfi_startproc
	pushq	%rbp
	.cfi_def_cfa_offset 16
	.cfi_offset %rbp, -16
	movq	%rsp, %rbp
	.cfi_def_cfa_register %rbp
	subq	$16, %rsp
	movq	%rdi, -8(%rbp)
Ltmp217:
	.loc	15 490 1 prologue_end
	callq	__ZN4core3ptr151drop_in_place$LT$lock_api..mutex..Mutex$LT$parking_lot..raw_mutex..RawMutex$C$core..option..Option$LT$epaint..texture_handle..TextureHandle$GT$$GT$$GT$17he82cc42b213b6f69E
	addq	$16, %rsp
	popq	%rbp
	retq
Ltmp218:
Lfunc_end30:
	.cfi_endproc

	.globl	__ZN4core3ptr131drop_in_place$LT$epaint..mutex..mutex_impl..MutexGuard$LT$core..option..Option$LT$epaint..texture_handle..TextureHandle$GT$$GT$$GT$17h9f493e83e0593ce6E
	.p2align	4, 0x90
__ZN4core3ptr131drop_in_place$LT$epaint..mutex..mutex_impl..MutexGuard$LT$core..option..Option$LT$epaint..texture_handle..TextureHandle$GT$$GT$$GT$17h9f493e83e0593ce6E:
Lfunc_begin31:
	.loc	15 490 0
	.cfi_startproc
	.cfi_personality 155, _rust_eh_personality
	.cfi_lsda 16, Lexception7
	pushq	%rbp
	.cfi_def_cfa_offset 16
	.cfi_offset %rbp, -16
	movq	%rsp, %rbp
	.cfi_def_cfa_register %rbp
	subq	$32, %rsp
	movq	%rdi, -32(%rbp)
	movq	%rdi, -24(%rbp)
Ltmp219:
Ltmp225:
	.loc	15 490 1 prologue_end
	callq	__ZN88_$LT$epaint..mutex..mutex_impl..MutexGuard$LT$T$GT$$u20$as$u20$core..ops..drop..Drop$GT$4drop17h2eb89f59dd854b06E
Ltmp220:
	jmp	LBB31_3
LBB31_1:
	.loc	15 0 1 is_stmt 0
	movq	-32(%rbp), %rdi
	.loc	15 490 1
	addq	$8, %rdi
Ltmp222:
	callq	__ZN4core3ptr156drop_in_place$LT$lock_api..mutex..MutexGuard$LT$parking_lot..raw_mutex..RawMutex$C$core..option..Option$LT$epaint..texture_handle..TextureHandle$GT$$GT$$GT$17h51288b1d04ebc892E
Ltmp223:
	jmp	LBB31_5
LBB31_2:
Ltmp221:
	.loc	15 0 1
	movq	%rax, %rcx
	movl	%edx, %eax
	movq	%rcx, -16(%rbp)
	movl	%eax, -8(%rbp)
	jmp	LBB31_1
LBB31_3:
	movq	-32(%rbp), %rdi
	.loc	15 490 1
	addq	$8, %rdi
	callq	__ZN4core3ptr156drop_in_place$LT$lock_api..mutex..MutexGuard$LT$parking_lot..raw_mutex..RawMutex$C$core..option..Option$LT$epaint..texture_handle..TextureHandle$GT$$GT$$GT$17h51288b1d04ebc892E
	addq	$32, %rsp
	popq	%rbp
	retq
LBB31_4:
Ltmp224:
	callq	__ZN4core9panicking19panic_cannot_unwind17h1fbca7e1d7f56ae1E
LBB31_5:
	movq	-16(%rbp), %rdi
	callq	__Unwind_Resume
Ltmp226:
Lfunc_end31:
	.cfi_endproc
	.section	__TEXT,__gcc_except_tab
	.p2align	2
GCC_except_table31:
Lexception7:
	.byte	255
	.byte	255
	.byte	1
	.uleb128 Lcst_end7-Lcst_begin7
Lcst_begin7:
	.uleb128 Ltmp219-Lfunc_begin31
	.uleb128 Ltmp220-Ltmp219
	.uleb128 Ltmp221-Lfunc_begin31
	.byte	0
	.uleb128 Ltmp222-Lfunc_begin31
	.uleb128 Ltmp223-Ltmp222
	.uleb128 Ltmp224-Lfunc_begin31
	.byte	0
	.uleb128 Ltmp223-Lfunc_begin31
	.uleb128 Lfunc_end31-Ltmp223
	.byte	0
	.byte	0
Lcst_end7:
	.p2align	2

	.section	__TEXT,__text,regular,pure_instructions
	.globl	__ZN4core3ptr151drop_in_place$LT$lock_api..mutex..Mutex$LT$parking_lot..raw_mutex..RawMutex$C$core..option..Option$LT$epaint..texture_handle..TextureHandle$GT$$GT$$GT$17he82cc42b213b6f69E
	.p2align	4, 0x90
__ZN4core3ptr151drop_in_place$LT$lock_api..mutex..Mutex$LT$parking_lot..raw_mutex..RawMutex$C$core..option..Option$LT$epaint..texture_handle..TextureHandle$GT$$GT$$GT$17he82cc42b213b6f69E:
Lfunc_begin32:
	.loc	15 490 0 is_stmt 1
	.cfi_startproc
	pushq	%rbp
	.cfi_def_cfa_offset 16
	.cfi_offset %rbp, -16
	movq	%rsp, %rbp
	.cfi_def_cfa_register %rbp
	subq	$16, %rsp
	movq	%rdi, -8(%rbp)
Ltmp227:
	.loc	15 490 1 prologue_end
	addq	$8, %rdi
	callq	__ZN4core3ptr116drop_in_place$LT$core..cell..UnsafeCell$LT$core..option..Option$LT$epaint..texture_handle..TextureHandle$GT$$GT$$GT$17hef4d8fa4540d8b98E
	addq	$16, %rsp
	popq	%rbp
	retq
Ltmp228:
Lfunc_end32:
	.cfi_endproc

	.globl	__ZN4core3ptr156drop_in_place$LT$lock_api..mutex..MutexGuard$LT$parking_lot..raw_mutex..RawMutex$C$core..option..Option$LT$epaint..texture_handle..TextureHandle$GT$$GT$$GT$17h51288b1d04ebc892E
	.p2align	4, 0x90
__ZN4core3ptr156drop_in_place$LT$lock_api..mutex..MutexGuard$LT$parking_lot..raw_mutex..RawMutex$C$core..option..Option$LT$epaint..texture_handle..TextureHandle$GT$$GT$$GT$17h51288b1d04ebc892E:
Lfunc_begin33:
	.loc	15 490 0
	.cfi_startproc
	pushq	%rbp
	.cfi_def_cfa_offset 16
	.cfi_offset %rbp, -16
	movq	%rsp, %rbp
	.cfi_def_cfa_register %rbp
	subq	$16, %rsp
	movq	%rdi, -8(%rbp)
Ltmp229:
	.loc	15 490 1 prologue_end
	callq	__ZN82_$LT$lock_api..mutex..MutexGuard$LT$R$C$T$GT$$u20$as$u20$core..ops..drop..Drop$GT$4drop17h1d2bb3e9c5699fbfE
	addq	$16, %rsp
	popq	%rbp
	retq
Ltmp230:
Lfunc_end33:
	.cfi_endproc

	.globl	__ZN4core3ptr265drop_in_place$LT$alloc..vec..Vec$LT$f32$GT$..extend_trusted$LT$core..iter..adapters..map..Map$LT$core..slice..iter..Iter$LT$egui_extras..sizing..Size$GT$$C$egui_extras..sizing..Sizing..to_lengths..$u7b$$u7b$closure$u7d$$u7d$$GT$$GT$..$u7b$$u7b$closure$u7d$$u7d$$GT$17h5dfa1a9ed7e32f25E
	.p2align	4, 0x90
__ZN4core3ptr265drop_in_place$LT$alloc..vec..Vec$LT$f32$GT$..extend_trusted$LT$core..iter..adapters..map..Map$LT$core..slice..iter..Iter$LT$egui_extras..sizing..Size$GT$$C$egui_extras..sizing..Sizing..to_lengths..$u7b$$u7b$closure$u7d$$u7d$$GT$$GT$..$u7b$$u7b$closure$u7d$$u7d$$GT$17h5dfa1a9ed7e32f25E:
Lfunc_begin34:
	.loc	15 490 0
	.cfi_startproc
	pushq	%rbp
	.cfi_def_cfa_offset 16
	.cfi_offset %rbp, -16
	movq	%rsp, %rbp
	.cfi_def_cfa_register %rbp
	subq	$16, %rsp
	movq	%rdi, -8(%rbp)
Ltmp231:
	.loc	15 490 1 prologue_end
	callq	__ZN4core3ptr62drop_in_place$LT$alloc..vec..set_len_on_drop..SetLenOnDrop$GT$17ha1222b58a5c6fd84E
	addq	$16, %rsp
	popq	%rbp
	retq
Ltmp232:
Lfunc_end34:
	.cfi_endproc

	.p2align	4, 0x90
__ZN4core3ptr28drop_in_place$LT$$RF$f32$GT$17hc08ccff287354621E:
Lfunc_begin35:
	.loc	15 490 0
	.cfi_startproc
	pushq	%rbp
	.cfi_def_cfa_offset 16
	.cfi_offset %rbp, -16
	movq	%rsp, %rbp
	.cfi_def_cfa_register %rbp
	pushq	%rax
	movq	%rdi, -8(%rbp)
Ltmp233:
	.loc	15 490 1 prologue_end
	addq	$8, %rsp
	popq	%rbp
	retq
Ltmp234:
Lfunc_end35:
	.cfi_endproc

	.globl	__ZN4core3ptr362drop_in_place$LT$core..iter..traits..iterator..Iterator..for_each..call$LT$f32$C$alloc..vec..Vec$LT$f32$GT$..extend_trusted$LT$core..iter..adapters..map..Map$LT$core..slice..iter..Iter$LT$egui_extras..sizing..Size$GT$$C$egui_extras..sizing..Sizing..to_lengths..$u7b$$u7b$closure$u7d$$u7d$$GT$$GT$..$u7b$$u7b$closure$u7d$$u7d$$GT$..$u7b$$u7b$closure$u7d$$u7d$$GT$17h2e53260ee3ec9c4cE
	.p2align	4, 0x90
__ZN4core3ptr362drop_in_place$LT$core..iter..traits..iterator..Iterator..for_each..call$LT$f32$C$alloc..vec..Vec$LT$f32$GT$..extend_trusted$LT$core..iter..adapters..map..Map$LT$core..slice..iter..Iter$LT$egui_extras..sizing..Size$GT$$C$egui_extras..sizing..Sizing..to_lengths..$u7b$$u7b$closure$u7d$$u7d$$GT$$GT$..$u7b$$u7b$closure$u7d$$u7d$$GT$..$u7b$$u7b$closure$u7d$$u7d$$GT$17h2e53260ee3ec9c4cE:
Lfunc_begin36:
	.loc	15 490 0
	.cfi_startproc
	pushq	%rbp
	.cfi_def_cfa_offset 16
	.cfi_offset %rbp, -16
	movq	%rsp, %rbp
	.cfi_def_cfa_register %rbp
	subq	$16, %rsp
	movq	%rdi, -8(%rbp)
Ltmp235:
	.loc	15 490 1 prologue_end
	callq	__ZN4core3ptr265drop_in_place$LT$alloc..vec..Vec$LT$f32$GT$..extend_trusted$LT$core..iter..adapters..map..Map$LT$core..slice..iter..Iter$LT$egui_extras..sizing..Size$GT$$C$egui_extras..sizing..Sizing..to_lengths..$u7b$$u7b$closure$u7d$$u7d$$GT$$GT$..$u7b$$u7b$closure$u7d$$u7d$$GT$17h5dfa1a9ed7e32f25E
	addq	$16, %rsp
	popq	%rbp
	retq
Ltmp236:
Lfunc_end36:
	.cfi_endproc

	.p2align	4, 0x90
__ZN4core3ptr42drop_in_place$LT$$RF$$LP$f32$C$f32$RP$$GT$17h83416bdfc354820bE:
Lfunc_begin37:
	.loc	15 490 0
	.cfi_startproc
	pushq	%rbp
	.cfi_def_cfa_offset 16
	.cfi_offset %rbp, -16
	movq	%rsp, %rbp
	.cfi_def_cfa_register %rbp
	pushq	%rax
	movq	%rdi, -8(%rbp)
Ltmp237:
	.loc	15 490 1 prologue_end
	addq	$8, %rsp
	popq	%rbp
	retq
Ltmp238:
Lfunc_end37:
	.cfi_endproc

	.globl	__ZN4core3ptr48drop_in_place$LT$egui_extras..sizing..Sizing$GT$17h9f3307784221eb03E
	.p2align	4, 0x90
__ZN4core3ptr48drop_in_place$LT$egui_extras..sizing..Sizing$GT$17h9f3307784221eb03E:
Lfunc_begin38:
	.loc	15 490 0
	.cfi_startproc
	pushq	%rbp
	.cfi_def_cfa_offset 16
	.cfi_offset %rbp, -16
	movq	%rsp, %rbp
	.cfi_def_cfa_register %rbp
	subq	$16, %rsp
	movq	%rdi, -8(%rbp)
Ltmp239:
	.loc	15 490 1 prologue_end
	callq	__ZN4core3ptr69drop_in_place$LT$alloc..vec..Vec$LT$egui_extras..sizing..Size$GT$$GT$17h02c6a6eff2860de3E
	addq	$16, %rsp
	popq	%rbp
	retq
Ltmp240:
Lfunc_end38:
	.cfi_endproc

	.globl	__ZN4core3ptr53drop_in_place$LT$egui_extras..strip..StripBuilder$GT$17h7dfbdb16c408e4f6E
	.p2align	4, 0x90
__ZN4core3ptr53drop_in_place$LT$egui_extras..strip..StripBuilder$GT$17h7dfbdb16c408e4f6E:
Lfunc_begin39:
	.loc	15 490 0
	.cfi_startproc
	pushq	%rbp
	.cfi_def_cfa_offset 16
	.cfi_offset %rbp, -16
	movq	%rsp, %rbp
	.cfi_def_cfa_register %rbp
	subq	$16, %rsp
	movq	%rdi, -8(%rbp)
Ltmp241:
	.loc	15 490 1 prologue_end
	addq	$8, %rdi
	callq	__ZN4core3ptr48drop_in_place$LT$egui_extras..sizing..Sizing$GT$17h9f3307784221eb03E
	addq	$16, %rsp
	popq	%rbp
	retq
Ltmp242:
Lfunc_end39:
	.cfi_endproc

	.globl	__ZN4core3ptr53drop_in_place$LT$egui_extras..table..TableBuilder$GT$17hffb796c25176c1e7E
	.p2align	4, 0x90
__ZN4core3ptr53drop_in_place$LT$egui_extras..table..TableBuilder$GT$17hffb796c25176c1e7E:
Lfunc_begin40:
	.loc	15 490 0
	.cfi_startproc
	pushq	%rbp
	.cfi_def_cfa_offset 16
	.cfi_offset %rbp, -16
	movq	%rsp, %rbp
	.cfi_def_cfa_register %rbp
	subq	$16, %rsp
	movq	%rdi, -8(%rbp)
Ltmp243:
	.loc	15 490 1 prologue_end
	addq	$8, %rdi
	callq	__ZN4core3ptr48drop_in_place$LT$egui_extras..sizing..Sizing$GT$17h9f3307784221eb03E
	addq	$16, %rsp
	popq	%rbp
	retq
Ltmp244:
Lfunc_end40:
	.cfi_endproc

	.globl	__ZN4core3ptr54drop_in_place$LT$egui_extras..image..RetainedImage$GT$17h95f8ff007267252aE
	.p2align	4, 0x90
__ZN4core3ptr54drop_in_place$LT$egui_extras..image..RetainedImage$GT$17h95f8ff007267252aE:
Lfunc_begin41:
	.loc	15 490 0
	.cfi_startproc
	.cfi_personality 155, _rust_eh_personality
	.cfi_lsda 16, Lexception8
	pushq	%rbp
	.cfi_def_cfa_offset 16
	.cfi_offset %rbp, -16
	movq	%rsp, %rbp
	.cfi_def_cfa_register %rbp
	subq	$32, %rsp
	movq	%rdi, -32(%rbp)
	movq	%rdi, -24(%rbp)
Ltmp256:
	.loc	15 490 1 prologue_end
	addq	$96, %rdi
Ltmp245:
	callq	__ZN4core3ptr42drop_in_place$LT$alloc..string..String$GT$17h4e7059cd6ee9b007E
Ltmp246:
	jmp	LBB41_3
LBB41_1:
	.loc	15 0 1 is_stmt 0
	movq	-32(%rbp), %rdi
	.loc	15 490 1
	addq	$48, %rdi
Ltmp248:
	callq	__ZN4core3ptr86drop_in_place$LT$epaint..mutex..mutex_impl..Mutex$LT$epaint..image..ColorImage$GT$$GT$17he9cffaf7a3419d1dE
Ltmp249:
	jmp	LBB41_5
LBB41_2:
Ltmp247:
	.loc	15 0 1
	movq	%rax, %rcx
	movl	%edx, %eax
	movq	%rcx, -16(%rbp)
	movl	%eax, -8(%rbp)
	jmp	LBB41_1
LBB41_3:
	movq	-32(%rbp), %rdi
	.loc	15 490 1
	addq	$48, %rdi
Ltmp250:
	callq	__ZN4core3ptr86drop_in_place$LT$epaint..mutex..mutex_impl..Mutex$LT$epaint..image..ColorImage$GT$$GT$17he9cffaf7a3419d1dE
Ltmp251:
	jmp	LBB41_7
LBB41_4:
Ltmp255:
	callq	__ZN4core9panicking19panic_cannot_unwind17h1fbca7e1d7f56ae1E
LBB41_5:
Ltmp253:
	.loc	15 0 1
	movq	-32(%rbp), %rdi
	.loc	15 490 1
	callq	__ZN4core3ptr126drop_in_place$LT$epaint..mutex..mutex_impl..Mutex$LT$core..option..Option$LT$epaint..texture_handle..TextureHandle$GT$$GT$$GT$17hc22f336e1f9f11beE
Ltmp254:
	jmp	LBB41_8
LBB41_6:
Ltmp252:
	.loc	15 0 1
	movq	%rax, %rcx
	movl	%edx, %eax
	movq	%rcx, -16(%rbp)
	movl	%eax, -8(%rbp)
	jmp	LBB41_5
LBB41_7:
	movq	-32(%rbp), %rdi
	.loc	15 490 1
	callq	__ZN4core3ptr126drop_in_place$LT$epaint..mutex..mutex_impl..Mutex$LT$core..option..Option$LT$epaint..texture_handle..TextureHandle$GT$$GT$$GT$17hc22f336e1f9f11beE
	addq	$32, %rsp
	popq	%rbp
	retq
LBB41_8:
	movq	-16(%rbp), %rdi
	callq	__Unwind_Resume
Ltmp257:
Lfunc_end41:
	.cfi_endproc
	.section	__TEXT,__gcc_except_tab
	.p2align	2
GCC_except_table41:
Lexception8:
	.byte	255
	.byte	255
	.byte	1
	.uleb128 Lcst_end8-Lcst_begin8
Lcst_begin8:
	.uleb128 Ltmp245-Lfunc_begin41
	.uleb128 Ltmp246-Ltmp245
	.uleb128 Ltmp247-Lfunc_begin41
	.byte	0
	.uleb128 Ltmp248-Lfunc_begin41
	.uleb128 Ltmp249-Ltmp248
	.uleb128 Ltmp255-Lfunc_begin41
	.byte	0
	.uleb128 Ltmp250-Lfunc_begin41
	.uleb128 Ltmp251-Ltmp250
	.uleb128 Ltmp252-Lfunc_begin41
	.byte	0
	.uleb128 Ltmp253-Lfunc_begin41
	.uleb128 Ltmp254-Ltmp253
	.uleb128 Ltmp255-Lfunc_begin41
	.byte	0
	.uleb128 Ltmp254-Lfunc_begin41
	.uleb128 Lfunc_end41-Ltmp254
	.byte	0
	.byte	0
Lcst_end8:
	.p2align	2

	.section	__TEXT,__text,regular,pure_instructions
	.globl	__ZN4core3ptr554drop_in_place$LT$core..iter..adapters..map..map_fold$LT$$RF$egui_extras..sizing..Size$C$f32$C$$LP$$RP$$C$egui_extras..sizing..Sizing..to_lengths..$u7b$$u7b$closure$u7d$$u7d$$C$core..iter..traits..iterator..Iterator..for_each..call$LT$f32$C$alloc..vec..Vec$LT$f32$GT$..extend_trusted$LT$core..iter..adapters..map..Map$LT$core..slice..iter..Iter$LT$egui_extras..sizing..Size$GT$$C$egui_extras..sizing..Sizing..to_lengths..$u7b$$u7b$closure$u7d$$u7d$$GT$$GT$..$u7b$$u7b$closure$u7d$$u7d$$GT$..$u7b$$u7b$closure$u7d$$u7d$$GT$..$u7b$$u7b$closure$u7d$$u7d$$GT$17hc2dab1e2d74b21ceE
	.p2align	4, 0x90
__ZN4core3ptr554drop_in_place$LT$core..iter..adapters..map..map_fold$LT$$RF$egui_extras..sizing..Size$C$f32$C$$LP$$RP$$C$egui_extras..sizing..Sizing..to_lengths..$u7b$$u7b$closure$u7d$$u7d$$C$core..iter..traits..iterator..Iterator..for_each..call$LT$f32$C$alloc..vec..Vec$LT$f32$GT$..extend_trusted$LT$core..iter..adapters..map..Map$LT$core..slice..iter..Iter$LT$egui_extras..sizing..Size$GT$$C$egui_extras..sizing..Sizing..to_lengths..$u7b$$u7b$closure$u7d$$u7d$$GT$$GT$..$u7b$$u7b$closure$u7d$$u7d$$GT$..$u7b$$u7b$closure$u7d$$u7d$$GT$..$u7b$$u7b$closure$u7d$$u7d$$GT$17hc2dab1e2d74b21ceE:
Lfunc_begin42:
	.loc	15 490 0 is_stmt 1
	.cfi_startproc
	pushq	%rbp
	.cfi_def_cfa_offset 16
	.cfi_offset %rbp, -16
	movq	%rsp, %rbp
	.cfi_def_cfa_register %rbp
	subq	$16, %rsp
	movq	%rdi, -8(%rbp)
Ltmp258:
	.loc	15 490 1 prologue_end
	addq	$16, %rdi
	callq	__ZN4core3ptr362drop_in_place$LT$core..iter..traits..iterator..Iterator..for_each..call$LT$f32$C$alloc..vec..Vec$LT$f32$GT$..extend_trusted$LT$core..iter..adapters..map..Map$LT$core..slice..iter..Iter$LT$egui_extras..sizing..Size$GT$$C$egui_extras..sizing..Sizing..to_lengths..$u7b$$u7b$closure$u7d$$u7d$$GT$$GT$..$u7b$$u7b$closure$u7d$$u7d$$GT$..$u7b$$u7b$closure$u7d$$u7d$$GT$17h2e53260ee3ec9c4cE
	addq	$16, %rsp
	popq	%rbp
	retq
Ltmp259:
Lfunc_end42:
	.cfi_endproc

	.globl	__ZN4core3ptr58drop_in_place$LT$epaint..texture_handle..TextureHandle$GT$17h7d85cc1c93965b07E
	.p2align	4, 0x90
__ZN4core3ptr58drop_in_place$LT$epaint..texture_handle..TextureHandle$GT$17h7d85cc1c93965b07E:
Lfunc_begin43:
	.loc	15 490 0
	.cfi_startproc
	.cfi_personality 155, _rust_eh_personality
	.cfi_lsda 16, Lexception9
	pushq	%rbp
	.cfi_def_cfa_offset 16
	.cfi_offset %rbp, -16
	movq	%rsp, %rbp
	.cfi_def_cfa_register %rbp
	subq	$32, %rsp
	movq	%rdi, -32(%rbp)
	movq	%rdi, -24(%rbp)
Ltmp260:
Ltmp266:
	.loc	15 490 1 prologue_end
	callq	__ZN79_$LT$epaint..texture_handle..TextureHandle$u20$as$u20$core..ops..drop..Drop$GT$4drop17ha3376ebed8c4b71fE
Ltmp261:
	jmp	LBB43_3
LBB43_1:
	.loc	15 0 1 is_stmt 0
	movq	-32(%rbp), %rdi
	.loc	15 490 1
	addq	$16, %rdi
Ltmp263:
	callq	__ZN4core3ptr120drop_in_place$LT$alloc..sync..Arc$LT$epaint..mutex..rw_lock_impl..RwLock$LT$epaint..textures..TextureManager$GT$$GT$$GT$17h2541cae3f1ceda80E
Ltmp264:
	jmp	LBB43_5
LBB43_2:
Ltmp262:
	.loc	15 0 1
	movq	%rax, %rcx
	movl	%edx, %eax
	movq	%rcx, -16(%rbp)
	movl	%eax, -8(%rbp)
	jmp	LBB43_1
LBB43_3:
	movq	-32(%rbp), %rdi
	.loc	15 490 1
	addq	$16, %rdi
	callq	__ZN4core3ptr120drop_in_place$LT$alloc..sync..Arc$LT$epaint..mutex..rw_lock_impl..RwLock$LT$epaint..textures..TextureManager$GT$$GT$$GT$17h2541cae3f1ceda80E
	addq	$32, %rsp
	popq	%rbp
	retq
LBB43_4:
Ltmp265:
	callq	__ZN4core9panicking19panic_cannot_unwind17h1fbca7e1d7f56ae1E
LBB43_5:
	movq	-16(%rbp), %rdi
	callq	__Unwind_Resume
Ltmp267:
Lfunc_end43:
	.cfi_endproc
	.section	__TEXT,__gcc_except_tab
	.p2align	2
GCC_except_table43:
Lexception9:
	.byte	255
	.byte	255
	.byte	1
	.uleb128 Lcst_end9-Lcst_begin9
Lcst_begin9:
	.uleb128 Ltmp260-Lfunc_begin43
	.uleb128 Ltmp261-Ltmp260
	.uleb128 Ltmp262-Lfunc_begin43
	.byte	0
	.uleb128 Ltmp263-Lfunc_begin43
	.uleb128 Ltmp264-Ltmp263
	.uleb128 Ltmp265-Lfunc_begin43
	.byte	0
	.uleb128 Ltmp264-Lfunc_begin43
	.uleb128 Lfunc_end43-Ltmp264
	.byte	0
	.byte	0
Lcst_end9:
	.p2align	2

	.section	__TEXT,__text,regular,pure_instructions
	.globl	__ZN4core3ptr69drop_in_place$LT$alloc..vec..Vec$LT$egui_extras..sizing..Size$GT$$GT$17h02c6a6eff2860de3E
	.p2align	4, 0x90
__ZN4core3ptr69drop_in_place$LT$alloc..vec..Vec$LT$egui_extras..sizing..Size$GT$$GT$17h02c6a6eff2860de3E:
Lfunc_begin44:
	.loc	15 490 0 is_stmt 1
	.cfi_startproc
	.cfi_personality 155, _rust_eh_personality
	.cfi_lsda 16, Lexception10
	pushq	%rbp
	.cfi_def_cfa_offset 16
	.cfi_offset %rbp, -16
	movq	%rsp, %rbp
	.cfi_def_cfa_register %rbp
	subq	$32, %rsp
	movq	%rdi, -32(%rbp)
	movq	%rdi, -24(%rbp)
Ltmp268:
Ltmp274:
	.loc	15 490 1 prologue_end
	callq	__ZN70_$LT$alloc..vec..Vec$LT$T$C$A$GT$$u20$as$u20$core..ops..drop..Drop$GT$4drop17hcd12f07aeb88d390E
Ltmp269:
	jmp	LBB44_3
LBB44_1:
Ltmp271:
	.loc	15 0 1 is_stmt 0
	movq	-32(%rbp), %rdi
	.loc	15 490 1
	callq	__ZN4core3ptr76drop_in_place$LT$alloc..raw_vec..RawVec$LT$egui_extras..sizing..Size$GT$$GT$17h41b49fc4dc5000f7E
Ltmp272:
	jmp	LBB44_5
LBB44_2:
Ltmp270:
	.loc	15 0 1
	movq	%rax, %rcx
	movl	%edx, %eax
	movq	%rcx, -16(%rbp)
	movl	%eax, -8(%rbp)
	jmp	LBB44_1
LBB44_3:
	movq	-32(%rbp), %rdi
	.loc	15 490 1
	callq	__ZN4core3ptr76drop_in_place$LT$alloc..raw_vec..RawVec$LT$egui_extras..sizing..Size$GT$$GT$17h41b49fc4dc5000f7E
	addq	$32, %rsp
	popq	%rbp
	retq
LBB44_4:
Ltmp273:
	callq	__ZN4core9panicking19panic_cannot_unwind17h1fbca7e1d7f56ae1E
LBB44_5:
	movq	-16(%rbp), %rdi
	callq	__Unwind_Resume
Ltmp275:
Lfunc_end44:
	.cfi_endproc
	.section	__TEXT,__gcc_except_tab
	.p2align	2
GCC_except_table44:
Lexception10:
	.byte	255
	.byte	255
	.byte	1
	.uleb128 Lcst_end10-Lcst_begin10
Lcst_begin10:
	.uleb128 Ltmp268-Lfunc_begin44
	.uleb128 Ltmp269-Ltmp268
	.uleb128 Ltmp270-Lfunc_begin44
	.byte	0
	.uleb128 Ltmp271-Lfunc_begin44
	.uleb128 Ltmp272-Ltmp271
	.uleb128 Ltmp273-Lfunc_begin44
	.byte	0
	.uleb128 Ltmp272-Lfunc_begin44
	.uleb128 Lfunc_end44-Ltmp272
	.byte	0
	.byte	0
Lcst_end10:
	.p2align	2

	.section	__TEXT,__text,regular,pure_instructions
	.globl	__ZN4core3ptr76drop_in_place$LT$alloc..raw_vec..RawVec$LT$egui_extras..sizing..Size$GT$$GT$17h41b49fc4dc5000f7E
	.p2align	4, 0x90
__ZN4core3ptr76drop_in_place$LT$alloc..raw_vec..RawVec$LT$egui_extras..sizing..Size$GT$$GT$17h41b49fc4dc5000f7E:
Lfunc_begin45:
	.loc	15 490 0 is_stmt 1
	.cfi_startproc
	pushq	%rbp
	.cfi_def_cfa_offset 16
	.cfi_offset %rbp, -16
	movq	%rsp, %rbp
	.cfi_def_cfa_register %rbp
	subq	$16, %rsp
	movq	%rdi, -8(%rbp)
Ltmp276:
	.loc	15 490 1 prologue_end
	callq	__ZN77_$LT$alloc..raw_vec..RawVec$LT$T$C$A$GT$$u20$as$u20$core..ops..drop..Drop$GT$4drop17hde6eaead5a259d87E
	addq	$16, %rsp
	popq	%rbp
	retq
Ltmp277:
Lfunc_end45:
	.cfi_endproc

	.globl	__ZN4core3ptr76drop_in_place$LT$core..cell..UnsafeCell$LT$epaint..image..ColorImage$GT$$GT$17hd571f198420fab38E
	.p2align	4, 0x90
__ZN4core3ptr76drop_in_place$LT$core..cell..UnsafeCell$LT$epaint..image..ColorImage$GT$$GT$17hd571f198420fab38E:
Lfunc_begin46:
	.loc	15 490 0
	.cfi_startproc
	pushq	%rbp
	.cfi_def_cfa_offset 16
	.cfi_offset %rbp, -16
	movq	%rsp, %rbp
	.cfi_def_cfa_register %rbp
	subq	$16, %rsp
	movq	%rdi, -8(%rbp)
Ltmp278:
	.loc	15 490 1 prologue_end
	callq	__ZN4core3ptr46drop_in_place$LT$epaint..image..ColorImage$GT$17h838bfb55476fead7E
	addq	$16, %rsp
	popq	%rbp
	retq
Ltmp279:
Lfunc_end46:
	.cfi_endproc

	.globl	__ZN4core3ptr86drop_in_place$LT$core..option..Option$LT$epaint..texture_handle..TextureHandle$GT$$GT$17h16adc8e40e12c782E
	.p2align	4, 0x90
__ZN4core3ptr86drop_in_place$LT$core..option..Option$LT$epaint..texture_handle..TextureHandle$GT$$GT$17h16adc8e40e12c782E:
Lfunc_begin47:
	.loc	15 490 0
	.cfi_startproc
	pushq	%rbp
	.cfi_def_cfa_offset 16
	.cfi_offset %rbp, -16
	movq	%rsp, %rbp
	.cfi_def_cfa_register %rbp
	subq	$16, %rsp
	movq	%rdi, -16(%rbp)
	movq	%rdi, -8(%rbp)
Ltmp280:
	.loc	15 490 1 prologue_end
	movl	$1, %eax
	xorl	%ecx, %ecx
	cmpq	$2, (%rdi)
	cmoveq	%rcx, %rax
	cmpq	$0, %rax
	jne	LBB47_2
LBB47_1:
	addq	$16, %rsp
	popq	%rbp
	retq
LBB47_2:
	.loc	15 0 1 is_stmt 0
	movq	-16(%rbp), %rdi
	.loc	15 490 1
	callq	__ZN4core3ptr58drop_in_place$LT$epaint..texture_handle..TextureHandle$GT$17h7d85cc1c93965b07E
	jmp	LBB47_1
Ltmp281:
Lfunc_end47:
	.cfi_endproc

	.globl	__ZN4core3ptr86drop_in_place$LT$epaint..mutex..mutex_impl..Mutex$LT$epaint..image..ColorImage$GT$$GT$17he9cffaf7a3419d1dE
	.p2align	4, 0x90
__ZN4core3ptr86drop_in_place$LT$epaint..mutex..mutex_impl..Mutex$LT$epaint..image..ColorImage$GT$$GT$17he9cffaf7a3419d1dE:
Lfunc_begin48:
	.loc	15 490 0 is_stmt 1
	.cfi_startproc
	pushq	%rbp
	.cfi_def_cfa_offset 16
	.cfi_offset %rbp, -16
	movq	%rsp, %rbp
	.cfi_def_cfa_register %rbp
	subq	$16, %rsp
	movq	%rdi, -8(%rbp)
Ltmp282:
	.loc	15 490 1 prologue_end
	callq	__ZN4core3ptr111drop_in_place$LT$lock_api..mutex..Mutex$LT$parking_lot..raw_mutex..RawMutex$C$epaint..image..ColorImage$GT$$GT$17h2eec578fc95a13b4E
	addq	$16, %rsp
	popq	%rbp
	retq
Ltmp283:
Lfunc_end48:
	.cfi_endproc

	.globl	__ZN4core3ptr91drop_in_place$LT$epaint..mutex..mutex_impl..MutexGuard$LT$epaint..image..ColorImage$GT$$GT$17h492686d102254acfE
	.p2align	4, 0x90
__ZN4core3ptr91drop_in_place$LT$epaint..mutex..mutex_impl..MutexGuard$LT$epaint..image..ColorImage$GT$$GT$17h492686d102254acfE:
Lfunc_begin49:
	.loc	15 490 0
	.cfi_startproc
	.cfi_personality 155, _rust_eh_personality
	.cfi_lsda 16, Lexception11
	pushq	%rbp
	.cfi_def_cfa_offset 16
	.cfi_offset %rbp, -16
	movq	%rsp, %rbp
	.cfi_def_cfa_register %rbp
	subq	$32, %rsp
	movq	%rdi, -32(%rbp)
	movq	%rdi, -24(%rbp)
Ltmp284:
Ltmp290:
	.loc	15 490 1 prologue_end
	callq	__ZN88_$LT$epaint..mutex..mutex_impl..MutexGuard$LT$T$GT$$u20$as$u20$core..ops..drop..Drop$GT$4drop17he8cb0d9204ac5dddE
Ltmp285:
	jmp	LBB49_3
LBB49_1:
	.loc	15 0 1 is_stmt 0
	movq	-32(%rbp), %rdi
	.loc	15 490 1
	addq	$8, %rdi
Ltmp287:
	callq	__ZN4core3ptr116drop_in_place$LT$lock_api..mutex..MutexGuard$LT$parking_lot..raw_mutex..RawMutex$C$epaint..image..ColorImage$GT$$GT$17h655d697ac0a44054E
Ltmp288:
	jmp	LBB49_5
LBB49_2:
Ltmp286:
	.loc	15 0 1
	movq	%rax, %rcx
	movl	%edx, %eax
	movq	%rcx, -16(%rbp)
	movl	%eax, -8(%rbp)
	jmp	LBB49_1
LBB49_3:
	movq	-32(%rbp), %rdi
	.loc	15 490 1
	addq	$8, %rdi
	callq	__ZN4core3ptr116drop_in_place$LT$lock_api..mutex..MutexGuard$LT$parking_lot..raw_mutex..RawMutex$C$epaint..image..ColorImage$GT$$GT$17h655d697ac0a44054E
	addq	$32, %rsp
	popq	%rbp
	retq
LBB49_4:
Ltmp289:
	callq	__ZN4core9panicking19panic_cannot_unwind17h1fbca7e1d7f56ae1E
LBB49_5:
	movq	-16(%rbp), %rdi
	callq	__Unwind_Resume
Ltmp291:
Lfunc_end49:
	.cfi_endproc
	.section	__TEXT,__gcc_except_tab
	.p2align	2
GCC_except_table49:
Lexception11:
	.byte	255
	.byte	255
	.byte	1
	.uleb128 Lcst_end11-Lcst_begin11
Lcst_begin11:
	.uleb128 Ltmp284-Lfunc_begin49
	.uleb128 Ltmp285-Ltmp284
	.uleb128 Ltmp286-Lfunc_begin49
	.byte	0
	.uleb128 Ltmp287-Lfunc_begin49
	.uleb128 Ltmp288-Ltmp287
	.uleb128 Ltmp289-Lfunc_begin49
	.byte	0
	.uleb128 Ltmp288-Lfunc_begin49
	.uleb128 Lfunc_end49-Ltmp288
	.byte	0
	.byte	0
Lcst_end11:
	.p2align	2

	.section	__TEXT,__text,regular,pure_instructions
	.globl	__ZN4core3ptr9const_ptr33_$LT$impl$u20$$BP$const$u20$T$GT$7sub_ptr17h151b22af397e47a2E
	.p2align	4, 0x90
__ZN4core3ptr9const_ptr33_$LT$impl$u20$$BP$const$u20$T$GT$7sub_ptr17h151b22af397e47a2E:
Lfunc_begin50:
	.file	19 "/rustc/2c8cc343237b8f7d5a3c3703e3a87f2eb2c54a74/library/core/src/ptr" "const_ptr.rs"
	.loc	19 791 0 is_stmt 1
	.cfi_startproc
	pushq	%rbp
	.cfi_def_cfa_offset 16
	.cfi_offset %rbp, -16
	movq	%rsp, %rbp
	.cfi_def_cfa_register %rbp
	subq	$64, %rsp
	movq	%rdi, -56(%rbp)
	movq	%rsi, -48(%rbp)
	movq	%rdi, -32(%rbp)
	movq	%rsi, -24(%rbp)
Ltmp292:
	.loc	14 309 5 prologue_end
	movq	$16, -16(%rbp)
Ltmp293:
	.loc	19 806 17
	movb	$1, %al
	testb	$1, %al
	jne	LBB50_2
	movb	$0, -33(%rbp)
	jmp	LBB50_3
LBB50_2:
	movb	$1, -33(%rbp)
LBB50_3:
	.loc	19 806 9 is_stmt 0
	movb	-33(%rbp), %al
	xorb	$-1, %al
	testb	$1, %al
	jne	LBB50_5
	.loc	19 0 9
	movq	-48(%rbp), %rcx
	movq	-56(%rbp), %rax
	.loc	19 808 18 is_stmt 1
	subq	%rcx, %rax
	shrq	$4, %rax
	movq	%rax, -8(%rbp)
	movq	-8(%rbp), %rax
Ltmp294:
	.loc	19 809 6
	addq	$64, %rsp
	popq	%rbp
	retq
LBB50_5:
Ltmp295:
	.loc	19 806 9
	leaq	l___unnamed_12(%rip), %rdi
	leaq	l___unnamed_13(%rip), %rdx
	movl	$73, %esi
	callq	__ZN4core9panicking5panic17hc1bc45270cf64b03E
Ltmp296:
Lfunc_end50:
	.cfi_endproc

	.p2align	4, 0x90
__ZN4core4hint21unreachable_unchecked17hc06eb05ad19033faE:
Lfunc_begin51:
	.file	20 "/rustc/2c8cc343237b8f7d5a3c3703e3a87f2eb2c54a74/library/core/src" "hint.rs"
	.loc	20 100 0
	.cfi_startproc
	pushq	%rbp
	.cfi_def_cfa_offset 16
	.cfi_offset %rbp, -16
	movq	%rsp, %rbp
	.cfi_def_cfa_register %rbp
Ltmp297:
	.loc	20 104 9 prologue_end
	ud2
Ltmp298:
Lfunc_end51:
	.cfi_endproc

	.globl	__ZN4core4iter6traits8iterator8Iterator3map17hda9abb4c791312c9E
	.p2align	4, 0x90
__ZN4core4iter6traits8iterator8Iterator3map17hda9abb4c791312c9E:
Lfunc_begin52:
	.file	21 "/rustc/2c8cc343237b8f7d5a3c3703e3a87f2eb2c54a74/library/core/src/iter/traits" "iterator.rs"
	.loc	21 782 0
	.cfi_startproc
	pushq	%rbp
	.cfi_def_cfa_offset 16
	.cfi_offset %rbp, -16
	movq	%rsp, %rbp
	.cfi_def_cfa_register %rbp
	subq	$48, %rsp
	movq	%rdi, %rax
	movq	%rax, -40(%rbp)
	movq	%rsi, -32(%rbp)
	movq	%rdx, -24(%rbp)
	movq	%rcx, -16(%rbp)
	movq	%r8, -8(%rbp)
Ltmp299:
	.loc	21 787 9 prologue_end
	callq	__ZN4core4iter8adapters3map16Map$LT$I$C$F$GT$3new17h1bb57bb56688638fE
	movq	-40(%rbp), %rax
	.loc	21 788 6
	addq	$48, %rsp
	popq	%rbp
	retq
Ltmp300:
Lfunc_end52:
	.cfi_endproc

	.globl	__ZN4core4iter6traits8iterator8Iterator3map17hfe251d91ec385b44E
	.p2align	4, 0x90
__ZN4core4iter6traits8iterator8Iterator3map17hfe251d91ec385b44E:
Lfunc_begin53:
	.loc	21 782 0
	.cfi_startproc
	pushq	%rbp
	.cfi_def_cfa_offset 16
	.cfi_offset %rbp, -16
	movq	%rsp, %rbp
	.cfi_def_cfa_register %rbp
	subq	$48, %rsp
	movq	%rdi, %rax
	movq	%rax, -40(%rbp)
	movq	%rsi, -32(%rbp)
	movq	%rdx, -24(%rbp)
	movq	%rcx, -16(%rbp)
	movq	%r8, -8(%rbp)
Ltmp301:
	.loc	21 787 9 prologue_end
	callq	__ZN4core4iter8adapters3map16Map$LT$I$C$F$GT$3new17hb66fb1d6b8c1b6e5E
	movq	-40(%rbp), %rax
	.loc	21 788 6
	addq	$48, %rsp
	popq	%rbp
	retq
Ltmp302:
Lfunc_end53:
	.cfi_endproc

	.globl	__ZN4core4iter6traits8iterator8Iterator3sum17h9c7b8ac026c431e0E
	.p2align	4, 0x90
__ZN4core4iter6traits8iterator8Iterator3sum17h9c7b8ac026c431e0E:
Lfunc_begin54:
	.loc	21 3403 0
	.cfi_startproc
	pushq	%rbp
	.cfi_def_cfa_offset 16
	.cfi_offset %rbp, -16
	movq	%rsp, %rbp
	.cfi_def_cfa_register %rbp
	subq	$32, %rsp
Ltmp303:
	.loc	21 3408 18 prologue_end
	movq	(%rdi), %rax
	movq	%rax, -32(%rbp)
	movq	8(%rdi), %rax
	movq	%rax, -24(%rbp)
	movq	16(%rdi), %rax
	movq	%rax, -16(%rbp)
	movq	24(%rdi), %rax
	movq	%rax, -8(%rbp)
	.loc	21 3408 9 is_stmt 0
	leaq	-32(%rbp), %rdi
Ltmp304:
	callq	__ZN54_$LT$f32$u20$as$u20$core..iter..traits..accum..Sum$GT$3sum17h5ad137e636e82a0aE
	.loc	21 3409 6 is_stmt 1
	addq	$32, %rsp
	popq	%rbp
	retq
Ltmp305:
Lfunc_end54:
	.cfi_endproc

	.globl	__ZN4core4iter6traits8iterator8Iterator4fold17h19bf7332479c12a6E
	.p2align	4, 0x90
__ZN4core4iter6traits8iterator8Iterator4fold17h19bf7332479c12a6E:
Lfunc_begin55:
	.loc	21 2431 0
	.cfi_startproc
	.cfi_personality 155, _rust_eh_personality
	.cfi_lsda 16, Lexception12
	pushq	%rbp
	.cfi_def_cfa_offset 16
	.cfi_offset %rbp, -16
	movq	%rsp, %rbp
	.cfi_def_cfa_register %rbp
	subq	$112, %rsp
	movq	%rdi, -96(%rbp)
	movq	%rsi, -88(%rbp)
	movq	%rdx, -80(%rbp)
	movq	%rcx, -72(%rbp)
	movss	%xmm0, -28(%rbp)
Ltmp311:
	.loc	21 2436 25 prologue_end
	movb	$1, -29(%rbp)
	movss	%xmm0, -60(%rbp)
LBB55_1:
Ltmp306:
	.loc	21 0 25 is_stmt 0
	leaq	-96(%rbp), %rdi
Ltmp312:
	.loc	21 2437 29 is_stmt 1
	callq	__ZN91_$LT$core..slice..iter..Iter$LT$T$GT$$u20$as$u20$core..iter..traits..iterator..Iterator$GT$4next17h46f6d084e2f2d05bE
Ltmp307:
	movq	%rax, -104(%rbp)
	jmp	LBB55_4
Ltmp313:
LBB55_2:
	.loc	21 2441 5
	testb	$1, -29(%rbp)
	jne	LBB55_11
	jmp	LBB55_10
LBB55_3:
Ltmp310:
	.loc	21 0 5 is_stmt 0
	movq	%rax, %rcx
	movl	%edx, %eax
	movq	%rcx, -24(%rbp)
	movl	%eax, -16(%rbp)
	jmp	LBB55_2
LBB55_4:
	movq	-104(%rbp), %rax
Ltmp314:
	.loc	21 2437 29 is_stmt 1
	movq	%rax, -56(%rbp)
	.loc	21 2437 19 is_stmt 0
	movq	-56(%rbp), %rdx
	movl	$1, %eax
	xorl	%ecx, %ecx
	cmpq	$0, %rdx
	cmoveq	%rcx, %rax
	cmpq	$1, %rax
	jne	LBB55_6
	.loc	21 2437 24
	movq	-56(%rbp), %rax
	movq	%rax, -8(%rbp)
	.loc	21 2438 23 is_stmt 1
	movb	$0, -29(%rbp)
	movss	-60(%rbp), %xmm0
	.loc	21 2438 21 is_stmt 0
	movss	%xmm0, -48(%rbp)
	movq	%rax, -40(%rbp)
	movss	-48(%rbp), %xmm0
	movq	-40(%rbp), %rsi
Ltmp308:
	leaq	-80(%rbp), %rdi
	callq	__ZN4core4iter8adapters3map8map_fold28_$u7b$$u7b$closure$u7d$$u7d$17hcebd91538b4928cbE
Ltmp309:
	movss	%xmm0, -108(%rbp)
	jmp	LBB55_9
Ltmp315:
LBB55_6:
	.loc	21 2437 9 is_stmt 1
	jmp	LBB55_7
Ltmp316:
LBB55_7:
	.loc	21 2441 5
	jmp	LBB55_8
LBB55_8:
	.loc	21 2441 6 is_stmt 0
	movss	-60(%rbp), %xmm0
	addq	$112, %rsp
	popq	%rbp
	retq
LBB55_9:
	.loc	21 0 6
	movss	-108(%rbp), %xmm0
Ltmp317:
	.loc	21 2438 13 is_stmt 1
	movb	$1, -29(%rbp)
	movss	%xmm0, -60(%rbp)
Ltmp318:
	.loc	21 2437 9
	jmp	LBB55_1
Ltmp319:
LBB55_10:
	.loc	21 2441 5
	jmp	LBB55_12
LBB55_11:
	jmp	LBB55_10
LBB55_12:
	.loc	21 2431 5
	movq	-24(%rbp), %rdi
	callq	__Unwind_Resume
Ltmp320:
Lfunc_end55:
	.cfi_endproc
	.section	__TEXT,__gcc_except_tab
	.p2align	2
GCC_except_table55:
Lexception12:
	.byte	255
	.byte	255
	.byte	1
	.uleb128 Lcst_end12-Lcst_begin12
Lcst_begin12:
	.uleb128 Ltmp306-Lfunc_begin55
	.uleb128 Ltmp309-Ltmp306
	.uleb128 Ltmp310-Lfunc_begin55
	.byte	0
	.uleb128 Ltmp309-Lfunc_begin55
	.uleb128 Lfunc_end55-Ltmp309
	.byte	0
	.byte	0
Lcst_end12:
	.p2align	2

	.section	__TEXT,__text,regular,pure_instructions
	.globl	__ZN4core4iter6traits8iterator8Iterator4fold17hb1ffa3837248544cE
	.p2align	4, 0x90
__ZN4core4iter6traits8iterator8Iterator4fold17hb1ffa3837248544cE:
Lfunc_begin56:
	.loc	21 2431 0
	.cfi_startproc
	.cfi_personality 155, _rust_eh_personality
	.cfi_lsda 16, Lexception13
	pushq	%rbp
	.cfi_def_cfa_offset 16
	.cfi_offset %rbp, -16
	movq	%rsp, %rbp
	.cfi_def_cfa_register %rbp
	subq	$96, %rsp
	movq	%rdx, -88(%rbp)
Ltmp332:
	movq	%rdi, -80(%rbp)
	movq	%rsi, -72(%rbp)
Ltmp333:
	.loc	21 2436 25 prologue_end
	movb	$1, -41(%rbp)
Ltmp334:
LBB56_1:
Ltmp321:
	.loc	21 0 25 is_stmt 0
	leaq	-80(%rbp), %rdi
Ltmp335:
	.loc	21 2437 29 is_stmt 1
	callq	__ZN91_$LT$core..slice..iter..Iter$LT$T$GT$$u20$as$u20$core..iter..traits..iterator..Iterator$GT$4next17h46f6d084e2f2d05bE
Ltmp322:
	movq	%rax, -96(%rbp)
	jmp	LBB56_4
Ltmp336:
LBB56_2:
	.loc	21 2441 5
	testb	$1, -41(%rbp)
	jne	LBB56_13
	jmp	LBB56_12
Ltmp337:
LBB56_3:
Ltmp328:
	.loc	21 0 5 is_stmt 0
	movq	%rax, %rcx
	movl	%edx, %eax
	movq	%rcx, -24(%rbp)
	movl	%eax, -16(%rbp)
	jmp	LBB56_2
Ltmp338:
LBB56_4:
	movq	-96(%rbp), %rax
Ltmp339:
	.loc	21 2437 29 is_stmt 1
	movq	%rax, -64(%rbp)
	.loc	21 2437 19 is_stmt 0
	movq	-64(%rbp), %rdx
	movl	$1, %eax
	xorl	%ecx, %ecx
	cmpq	$0, %rdx
	cmoveq	%rcx, %rax
	cmpq	$1, %rax
	jne	LBB56_6
Ltmp340:
	.loc	21 0 19
	movq	-88(%rbp), %rdi
	.loc	21 2437 24
	movq	-64(%rbp), %rax
	movq	%rax, -8(%rbp)
	.loc	21 2438 23 is_stmt 1
	movb	$0, -41(%rbp)
	.loc	21 2438 21 is_stmt 0
	movq	%rax, -56(%rbp)
	movq	-56(%rbp), %rsi
Ltmp326:
	callq	__ZN4core4iter8adapters3map8map_fold28_$u7b$$u7b$closure$u7d$$u7d$17h809f51304aaf4142E
Ltmp327:
	jmp	LBB56_11
Ltmp341:
LBB56_6:
	.loc	21 2437 9 is_stmt 1
	jmp	LBB56_7
Ltmp342:
LBB56_7:
Ltmp323:
	.loc	21 0 9 is_stmt 0
	movq	-88(%rbp), %rdi
	.loc	21 2441 5 is_stmt 1
	callq	__ZN4core3ptr554drop_in_place$LT$core..iter..adapters..map..map_fold$LT$$RF$egui_extras..sizing..Size$C$f32$C$$LP$$RP$$C$egui_extras..sizing..Sizing..to_lengths..$u7b$$u7b$closure$u7d$$u7d$$C$core..iter..traits..iterator..Iterator..for_each..call$LT$f32$C$alloc..vec..Vec$LT$f32$GT$..extend_trusted$LT$core..iter..adapters..map..Map$LT$core..slice..iter..Iter$LT$egui_extras..sizing..Size$GT$$C$egui_extras..sizing..Sizing..to_lengths..$u7b$$u7b$closure$u7d$$u7d$$GT$$GT$..$u7b$$u7b$closure$u7d$$u7d$$GT$..$u7b$$u7b$closure$u7d$$u7d$$GT$..$u7b$$u7b$closure$u7d$$u7d$$GT$17hc2dab1e2d74b21ceE
Ltmp324:
	jmp	LBB56_10
Ltmp343:
LBB56_8:
	.loc	21 2431 5
	movq	-24(%rbp), %rdi
	callq	__Unwind_Resume
Ltmp344:
LBB56_9:
Ltmp325:
	.loc	21 0 5 is_stmt 0
	movq	%rax, %rcx
	movl	%edx, %eax
	movq	%rcx, -24(%rbp)
	movl	%eax, -16(%rbp)
	jmp	LBB56_8
Ltmp345:
LBB56_10:
	.loc	21 2441 6 is_stmt 1
	addq	$96, %rsp
	popq	%rbp
	retq
Ltmp346:
LBB56_11:
	.loc	21 2438 13
	movb	$1, -41(%rbp)
Ltmp347:
	.loc	21 2437 9
	jmp	LBB56_1
Ltmp348:
LBB56_12:
Ltmp329:
	.loc	21 0 9 is_stmt 0
	movq	-88(%rbp), %rdi
	.loc	21 2441 5 is_stmt 1
	callq	__ZN4core3ptr554drop_in_place$LT$core..iter..adapters..map..map_fold$LT$$RF$egui_extras..sizing..Size$C$f32$C$$LP$$RP$$C$egui_extras..sizing..Sizing..to_lengths..$u7b$$u7b$closure$u7d$$u7d$$C$core..iter..traits..iterator..Iterator..for_each..call$LT$f32$C$alloc..vec..Vec$LT$f32$GT$..extend_trusted$LT$core..iter..adapters..map..Map$LT$core..slice..iter..Iter$LT$egui_extras..sizing..Size$GT$$C$egui_extras..sizing..Sizing..to_lengths..$u7b$$u7b$closure$u7d$$u7d$$GT$$GT$..$u7b$$u7b$closure$u7d$$u7d$$GT$..$u7b$$u7b$closure$u7d$$u7d$$GT$..$u7b$$u7b$closure$u7d$$u7d$$GT$17hc2dab1e2d74b21ceE
Ltmp330:
	jmp	LBB56_8
Ltmp349:
LBB56_13:
	jmp	LBB56_12
Ltmp350:
LBB56_14:
Ltmp331:
	.loc	21 2431 5
	callq	__ZN4core9panicking19panic_cannot_unwind17h1fbca7e1d7f56ae1E
Ltmp351:
Lfunc_end56:
	.cfi_endproc
	.section	__TEXT,__gcc_except_tab
	.p2align	2
GCC_except_table56:
Lexception13:
	.byte	255
	.byte	255
	.byte	1
	.uleb128 Lcst_end13-Lcst_begin13
Lcst_begin13:
	.uleb128 Ltmp321-Lfunc_begin56
	.uleb128 Ltmp327-Ltmp321
	.uleb128 Ltmp328-Lfunc_begin56
	.byte	0
	.uleb128 Ltmp323-Lfunc_begin56
	.uleb128 Ltmp324-Ltmp323
	.uleb128 Ltmp325-Lfunc_begin56
	.byte	0
	.uleb128 Ltmp324-Lfunc_begin56
	.uleb128 Ltmp329-Ltmp324
	.byte	0
	.byte	0
	.uleb128 Ltmp329-Lfunc_begin56
	.uleb128 Ltmp330-Ltmp329
	.uleb128 Ltmp331-Lfunc_begin56
	.byte	0
Lcst_end13:
	.p2align	2

	.section	__TEXT,__text,regular,pure_instructions
	.globl	__ZN4core4iter6traits8iterator8Iterator7collect17h5062ca2e999253d9E
	.p2align	4, 0x90
__ZN4core4iter6traits8iterator8Iterator7collect17h5062ca2e999253d9E:
Lfunc_begin57:
	.loc	21 1856 0
	.cfi_startproc
	pushq	%rbp
	.cfi_def_cfa_offset 16
	.cfi_offset %rbp, -16
	movq	%rsp, %rbp
	.cfi_def_cfa_register %rbp
	subq	$48, %rsp
	movq	%rdi, %rax
	movq	%rax, -40(%rbp)
Ltmp352:
	.loc	21 1860 33 prologue_end
	movq	(%rsi), %rax
	movq	%rax, -32(%rbp)
	movq	8(%rsi), %rax
	movq	%rax, -24(%rbp)
	movq	16(%rsi), %rax
	movq	%rax, -16(%rbp)
	movq	24(%rsi), %rax
	movq	%rax, -8(%rbp)
	.loc	21 1860 9 is_stmt 0
	leaq	-32(%rbp), %rsi
Ltmp353:
	callq	__ZN95_$LT$alloc..vec..Vec$LT$T$GT$$u20$as$u20$core..iter..traits..collect..FromIterator$LT$T$GT$$GT$9from_iter17hf5a2ea92a72eb541E
	movq	-40(%rbp), %rax
	.loc	21 1861 6 is_stmt 1
	addq	$48, %rsp
	popq	%rbp
	retq
Ltmp354:
Lfunc_end57:
	.cfi_endproc

	.globl	__ZN4core4iter6traits8iterator8Iterator8for_each17h0609a5ebbd68335eE
	.p2align	4, 0x90
__ZN4core4iter6traits8iterator8Iterator8for_each17h0609a5ebbd68335eE:
Lfunc_begin58:
	.loc	21 827 0
	.cfi_startproc
	.cfi_personality 155, _rust_eh_personality
	.cfi_lsda 16, Lexception14
	pushq	%rbp
	.cfi_def_cfa_offset 16
	.cfi_offset %rbp, -16
	movq	%rsp, %rbp
	.cfi_def_cfa_register %rbp
	subq	$96, %rsp
Ltmp358:
	.loc	21 837 9 prologue_end
	movq	24(%rdi), %rax
	movq	%rax, -72(%rbp)
	movq	16(%rdi), %rax
	movq	%rax, -80(%rbp)
	movq	(%rdi), %rax
	movq	8(%rdi), %rcx
	movq	%rcx, -88(%rbp)
	movq	%rax, -96(%rbp)
	.loc	21 837 28 is_stmt 0
	movq	16(%rsi), %rax
	movq	%rax, -24(%rbp)
	movq	(%rsi), %rax
	movq	8(%rsi), %rcx
	movq	%rcx, -32(%rbp)
	movq	%rax, -40(%rbp)
Ltmp359:
	.loc	21 834 13 is_stmt 1
	movq	-24(%rbp), %rax
	movq	%rax, -48(%rbp)
	movq	-40(%rbp), %rax
	movq	-32(%rbp), %rcx
	movq	%rcx, -56(%rbp)
	movq	%rax, -64(%rbp)
Ltmp355:
	leaq	-96(%rbp), %rdi
Ltmp360:
	.loc	21 0 13 is_stmt 0
	leaq	-64(%rbp), %rsi
Ltmp361:
	.loc	21 837 9 is_stmt 1
	callq	__ZN102_$LT$core..iter..adapters..map..Map$LT$I$C$F$GT$$u20$as$u20$core..iter..traits..iterator..Iterator$GT$4fold17h4fe87721e2ad7320E
Ltmp356:
	jmp	LBB58_3
Ltmp362:
LBB58_1:
	.loc	21 837 30 is_stmt 0
	xorl	%eax, %eax
	testb	$1, %al
	jne	LBB58_5
	jmp	LBB58_4
Ltmp363:
LBB58_2:
Ltmp357:
	.loc	21 0 30
	movq	%rax, %rcx
	movl	%edx, %eax
	movq	%rcx, -16(%rbp)
	movl	%eax, -8(%rbp)
	jmp	LBB58_1
Ltmp364:
LBB58_3:
	.loc	21 838 6 is_stmt 1
	addq	$96, %rsp
	popq	%rbp
	retq
Ltmp365:
LBB58_4:
	.loc	21 827 5
	movq	-16(%rbp), %rdi
	callq	__Unwind_Resume
Ltmp366:
LBB58_5:
	.loc	21 837 30
	jmp	LBB58_4
Ltmp367:
Lfunc_end58:
	.cfi_endproc
	.section	__TEXT,__gcc_except_tab
	.p2align	2
GCC_except_table58:
Lexception14:
	.byte	255
	.byte	255
	.byte	1
	.uleb128 Lcst_end14-Lcst_begin14
Lcst_begin14:
	.uleb128 Ltmp355-Lfunc_begin58
	.uleb128 Ltmp356-Ltmp355
	.uleb128 Ltmp357-Lfunc_begin58
	.byte	0
	.uleb128 Ltmp356-Lfunc_begin58
	.uleb128 Lfunc_end58-Ltmp356
	.byte	0
	.byte	0
Lcst_end14:
	.p2align	2

	.section	__TEXT,__text,regular,pure_instructions
	.globl	__ZN4core4iter6traits8iterator8Iterator8for_each4call28_$u7b$$u7b$closure$u7d$$u7d$17hf9ec61905468910aE
	.p2align	4, 0x90
__ZN4core4iter6traits8iterator8Iterator8for_each4call28_$u7b$$u7b$closure$u7d$$u7d$17hf9ec61905468910aE:
Lfunc_begin59:
	.loc	21 834 0
	.cfi_startproc
	pushq	%rbp
	.cfi_def_cfa_offset 16
	.cfi_offset %rbp, -16
	movq	%rsp, %rbp
	.cfi_def_cfa_register %rbp
	subq	$32, %rsp
	movq	%rdi, -16(%rbp)
	movss	%xmm0, -4(%rbp)
Ltmp368:
	.loc	21 834 29 prologue_end
	movss	%xmm0, -20(%rbp)
	movss	-20(%rbp), %xmm0
	callq	__ZN5alloc3vec16Vec$LT$T$C$A$GT$14extend_trusted28_$u7b$$u7b$closure$u7d$$u7d$17hd568c427e16884a8E
	.loc	21 834 36 is_stmt 0
	addq	$32, %rsp
	popq	%rbp
	retq
Ltmp369:
Lfunc_end59:
	.cfi_endproc

	.globl	__ZN4core4iter8adapters3map16Map$LT$I$C$F$GT$3new17h1bb57bb56688638fE
	.p2align	4, 0x90
__ZN4core4iter8adapters3map16Map$LT$I$C$F$GT$3new17h1bb57bb56688638fE:
Lfunc_begin60:
	.loc	1 68 0 is_stmt 1
	.cfi_startproc
	pushq	%rbp
	.cfi_def_cfa_offset 16
	.cfi_offset %rbp, -16
	movq	%rsp, %rbp
	.cfi_def_cfa_register %rbp
	subq	$32, %rsp
	movq	%rdi, %rax
	movq	%rsi, -32(%rbp)
	movq	%rdx, -24(%rbp)
	movq	%rcx, -16(%rbp)
	movq	%r8, -8(%rbp)
Ltmp370:
	.loc	1 69 9 prologue_end
	movq	%rsi, (%rdi)
	movq	%rdx, 8(%rdi)
	movq	%rcx, 16(%rdi)
	movq	%r8, 24(%rdi)
	.loc	1 70 6
	addq	$32, %rsp
	popq	%rbp
	retq
Ltmp371:
Lfunc_end60:
	.cfi_endproc

	.globl	__ZN4core4iter8adapters3map16Map$LT$I$C$F$GT$3new17hb66fb1d6b8c1b6e5E
	.p2align	4, 0x90
__ZN4core4iter8adapters3map16Map$LT$I$C$F$GT$3new17hb66fb1d6b8c1b6e5E:
Lfunc_begin61:
	.loc	1 68 0
	.cfi_startproc
	pushq	%rbp
	.cfi_def_cfa_offset 16
	.cfi_offset %rbp, -16
	movq	%rsp, %rbp
	.cfi_def_cfa_register %rbp
	subq	$32, %rsp
	movq	%rdi, %rax
	movq	%rsi, -32(%rbp)
	movq	%rdx, -24(%rbp)
	movq	%rcx, -16(%rbp)
	movq	%r8, -8(%rbp)
Ltmp372:
	.loc	1 69 9 prologue_end
	movq	%rsi, (%rdi)
	movq	%rdx, 8(%rdi)
	movq	%rcx, 16(%rdi)
	movq	%r8, 24(%rdi)
	.loc	1 70 6
	addq	$32, %rsp
	popq	%rbp
	retq
Ltmp373:
Lfunc_end61:
	.cfi_endproc

	.globl	__ZN4core4iter8adapters3map8map_fold17h43a52d248c3a4a42E
	.p2align	4, 0x90
__ZN4core4iter8adapters3map8map_fold17h43a52d248c3a4a42E:
Lfunc_begin62:
	.loc	1 80 0
	.cfi_startproc
	pushq	%rbp
	.cfi_def_cfa_offset 16
	.cfi_offset %rbp, -16
	movq	%rsp, %rbp
	.cfi_def_cfa_register %rbp
	subq	$16, %rsp
	movq	%rdi, %rax
	movq	%rsi, -16(%rbp)
	movq	%rdx, -8(%rbp)
Ltmp374:
	.loc	1 84 5 prologue_end
	movq	(%rcx), %r8
	movq	%r8, 16(%rdi)
	movq	8(%rcx), %r8
	movq	%r8, 24(%rdi)
	movq	16(%rcx), %rcx
Ltmp375:
	movq	%rcx, 32(%rdi)
	movq	%rsi, (%rdi)
	movq	%rdx, 8(%rdi)
	.loc	1 85 2
	addq	$16, %rsp
	popq	%rbp
	retq
Ltmp376:
Lfunc_end62:
	.cfi_endproc

	.globl	__ZN4core4iter8adapters3map8map_fold17hc61aa5139157e8eaE
	.p2align	4, 0x90
__ZN4core4iter8adapters3map8map_fold17hc61aa5139157e8eaE:
Lfunc_begin63:
	.loc	1 80 0
	.cfi_startproc
	pushq	%rbp
	.cfi_def_cfa_offset 16
	.cfi_offset %rbp, -16
	movq	%rsp, %rbp
	.cfi_def_cfa_register %rbp
	subq	$40, %rsp
	movq	%rdi, -24(%rbp)
	movq	%rsi, -16(%rbp)
Ltmp377:
	.loc	1 84 5 prologue_end
	movq	%rdi, -40(%rbp)
	movq	%rsi, -32(%rbp)
	.loc	1 85 2
	movq	-40(%rbp), %rax
	movq	-32(%rbp), %rdx
	addq	$40, %rsp
	popq	%rbp
	retq
Ltmp378:
Lfunc_end63:
	.cfi_endproc

	.globl	__ZN4core4iter8adapters3map8map_fold28_$u7b$$u7b$closure$u7d$$u7d$17h809f51304aaf4142E
	.p2align	4, 0x90
__ZN4core4iter8adapters3map8map_fold28_$u7b$$u7b$closure$u7d$$u7d$17h809f51304aaf4142E:
Lfunc_begin64:
	.loc	1 84 0
	.cfi_startproc
	.cfi_personality 155, _rust_eh_personality
	.cfi_lsda 16, Lexception15
	pushq	%rbp
	.cfi_def_cfa_offset 16
	.cfi_offset %rbp, -16
	movq	%rsp, %rbp
	.cfi_def_cfa_register %rbp
	subq	$80, %rsp
	movq	%rdi, -40(%rbp)
	movq	%rsi, -24(%rbp)
Ltmp384:
	.loc	1 84 21 prologue_end
	movq	%rdi, %rax
	addq	$16, %rax
	movq	%rax, -72(%rbp)
	.loc	1 84 23 is_stmt 0
	movb	$1, -41(%rbp)
	.loc	1 84 28
	movq	%rsi, -56(%rbp)
	movq	-56(%rbp), %rsi
Ltmp379:
	callq	__ZN11egui_extras6sizing6Sizing10to_lengths28_$u7b$$u7b$closure$u7d$$u7d$17hda32089642973bb6E
Ltmp380:
	movss	%xmm0, -64(%rbp)
	jmp	LBB64_3
LBB64_1:
	.loc	1 84 34
	testb	$1, -41(%rbp)
	jne	LBB64_6
	jmp	LBB64_5
LBB64_2:
Ltmp383:
	.loc	1 0 34
	movq	%rax, %rcx
	movl	%edx, %eax
	movq	%rcx, -16(%rbp)
	movl	%eax, -8(%rbp)
	jmp	LBB64_1
LBB64_3:
	movq	-72(%rbp), %rdi
	movss	-64(%rbp), %xmm0
	.loc	1 84 21
	movb	$0, -41(%rbp)
	movss	%xmm0, -60(%rbp)
	movss	-60(%rbp), %xmm0
Ltmp381:
	callq	__ZN4core4iter6traits8iterator8Iterator8for_each4call28_$u7b$$u7b$closure$u7d$$u7d$17hf9ec61905468910aE
Ltmp382:
	jmp	LBB64_4
LBB64_4:
	.loc	1 84 35
	addq	$80, %rsp
	popq	%rbp
	retq
LBB64_5:
	.loc	1 84 5
	movq	-16(%rbp), %rdi
	callq	__Unwind_Resume
LBB64_6:
	.loc	1 84 34
	jmp	LBB64_5
Ltmp385:
Lfunc_end64:
	.cfi_endproc
	.section	__TEXT,__gcc_except_tab
	.p2align	2
GCC_except_table64:
Lexception15:
	.byte	255
	.byte	255
	.byte	1
	.uleb128 Lcst_end15-Lcst_begin15
Lcst_begin15:
	.uleb128 Ltmp379-Lfunc_begin64
	.uleb128 Ltmp382-Ltmp379
	.uleb128 Ltmp383-Lfunc_begin64
	.byte	0
	.uleb128 Ltmp382-Lfunc_begin64
	.uleb128 Lfunc_end64-Ltmp382
	.byte	0
	.byte	0
Lcst_end15:
	.p2align	2

	.section	__TEXT,__text,regular,pure_instructions
	.globl	__ZN4core4iter8adapters3map8map_fold28_$u7b$$u7b$closure$u7d$$u7d$17hcebd91538b4928cbE
	.p2align	4, 0x90
__ZN4core4iter8adapters3map8map_fold28_$u7b$$u7b$closure$u7d$$u7d$17hcebd91538b4928cbE:
Lfunc_begin65:
	.loc	1 84 0 is_stmt 1
	.cfi_startproc
	.cfi_personality 155, _rust_eh_personality
	.cfi_lsda 16, Lexception16
	pushq	%rbp
	.cfi_def_cfa_offset 16
	.cfi_offset %rbp, -16
	movq	%rsp, %rbp
	.cfi_def_cfa_register %rbp
	subq	$96, %rsp
	movq	%rdi, -80(%rbp)
	movss	%xmm0, -72(%rbp)
	movq	%rdi, -40(%rbp)
	movss	%xmm0, -28(%rbp)
	movq	%rsi, -24(%rbp)
Ltmp391:
	.loc	1 84 23 prologue_end
	movb	$1, -41(%rbp)
	.loc	1 84 28 is_stmt 0
	movq	%rsi, -56(%rbp)
	movq	-56(%rbp), %rsi
Ltmp386:
	callq	__ZN11egui_extras6sizing6Sizing10to_lengths28_$u7b$$u7b$closure$u7d$$u7d$17h554ca4aeb53dff34E
Ltmp387:
	movss	%xmm0, -68(%rbp)
	jmp	LBB65_3
LBB65_1:
	.loc	1 84 34
	testb	$1, -41(%rbp)
	jne	LBB65_6
	jmp	LBB65_5
LBB65_2:
Ltmp390:
	.loc	1 0 34
	movq	%rax, %rcx
	movl	%edx, %eax
	movq	%rcx, -16(%rbp)
	movl	%eax, -8(%rbp)
	jmp	LBB65_1
LBB65_3:
	movq	-80(%rbp), %rdi
	movss	-68(%rbp), %xmm0
	movss	-72(%rbp), %xmm1
	.loc	1 84 21
	movb	$0, -41(%rbp)
	movss	%xmm1, -64(%rbp)
	movss	%xmm0, -60(%rbp)
	movss	-64(%rbp), %xmm0
	movss	-60(%rbp), %xmm1
Ltmp388:
	callq	__ZN54_$LT$f32$u20$as$u20$core..iter..traits..accum..Sum$GT$3sum28_$u7b$$u7b$closure$u7d$$u7d$17h40a1672e3ccae03cE
Ltmp389:
	movss	%xmm0, -84(%rbp)
	jmp	LBB65_4
LBB65_4:
	.loc	1 0 21
	movss	-84(%rbp), %xmm0
	.loc	1 84 35
	addq	$96, %rsp
	popq	%rbp
	retq
LBB65_5:
	.loc	1 84 5
	movq	-16(%rbp), %rdi
	callq	__Unwind_Resume
LBB65_6:
	.loc	1 84 34
	jmp	LBB65_5
Ltmp392:
Lfunc_end65:
	.cfi_endproc
	.section	__TEXT,__gcc_except_tab
	.p2align	2
GCC_except_table65:
Lexception16:
	.byte	255
	.byte	255
	.byte	1
	.uleb128 Lcst_end16-Lcst_begin16
Lcst_begin16:
	.uleb128 Ltmp386-Lfunc_begin65
	.uleb128 Ltmp389-Ltmp386
	.uleb128 Ltmp390-Lfunc_begin65
	.byte	0
	.uleb128 Ltmp389-Lfunc_begin65
	.uleb128 Lfunc_end65-Ltmp389
	.byte	0
	.byte	0
Lcst_end16:
	.p2align	2

	.section	__TEXT,__text,regular,pure_instructions
	.p2align	4, 0x90
__ZN4core4sync6atomic8AtomicU816compare_exchange17h208277c4cae65f07E:
Lfunc_begin66:
	.file	22 "/rustc/2c8cc343237b8f7d5a3c3703e3a87f2eb2c54a74/library/core/src/sync" "atomic.rs"
	.loc	22 2292 0 is_stmt 1
	.cfi_startproc
	pushq	%rbp
	.cfi_def_cfa_offset 16
	.cfi_offset %rbp, -16
	movq	%rsp, %rbp
	.cfi_def_cfa_register %rbp
	subq	$32, %rsp
	movb	%r8b, %al
	movq	%rdi, -24(%rbp)
	movb	%sil, -12(%rbp)
	movb	%dl, -11(%rbp)
	movb	%cl, -10(%rbp)
	movb	%al, -9(%rbp)
Ltmp393:
	.loc	22 2298 50 prologue_end
	movq	%rdi, -8(%rbp)
	.loc	22 2298 26 is_stmt 0
	movzbl	%sil, %esi
	movzbl	%dl, %edx
	movzbl	%cl, %ecx
	movzbl	%al, %r8d
	callq	__ZN4core4sync6atomic23atomic_compare_exchange17hd0f55ffb96cebe64E
	.loc	22 2299 14 is_stmt 1
	andb	$1, %al
	addq	$32, %rsp
	popq	%rbp
	retq
Ltmp394:
Lfunc_end66:
	.cfi_endproc

	.p2align	4, 0x90
__ZN4core4sync6atomic8AtomicU821compare_exchange_weak17hde7fe9099872fa46E:
Lfunc_begin67:
	.loc	22 2341 0
	.cfi_startproc
	pushq	%rbp
	.cfi_def_cfa_offset 16
	.cfi_offset %rbp, -16
	movq	%rsp, %rbp
	.cfi_def_cfa_register %rbp
	subq	$32, %rsp
	movb	%r8b, %al
	movq	%rdi, -24(%rbp)
	movb	%sil, -12(%rbp)
	movb	%dl, -11(%rbp)
	movb	%cl, -10(%rbp)
	movb	%al, -9(%rbp)
Ltmp395:
	.loc	22 2348 50 prologue_end
	movq	%rdi, -8(%rbp)
	.loc	22 2348 21 is_stmt 0
	movzbl	%sil, %esi
	movzbl	%dl, %edx
	movzbl	%cl, %ecx
	movzbl	%al, %r8d
	callq	__ZN4core4sync6atomic28atomic_compare_exchange_weak17hed2308e4d6a6bed3E
	.loc	22 2350 14 is_stmt 1
	andb	$1, %al
	addq	$32, %rsp
	popq	%rbp
	retq
Ltmp396:
Lfunc_end67:
	.cfi_endproc

	.p2align	4, 0x90
__ZN4core5alloc6layout6Layout5array5inner17h4c27b296a046f729E:
Lfunc_begin68:
	.file	23 "/rustc/2c8cc343237b8f7d5a3c3703e3a87f2eb2c54a74/library/core/src/alloc" "layout.rs"
	.loc	23 441 0
	.cfi_startproc
	pushq	%rbp
	.cfi_def_cfa_offset 16
	.cfi_offset %rbp, -16
	movq	%rsp, %rbp
	.cfi_def_cfa_register %rbp
	subq	$176, %rsp
	movq	%rdi, -168(%rbp)
	movq	%rsi, -160(%rbp)
	movq	%rdx, -152(%rbp)
	movq	%rdi, -88(%rbp)
	movq	%rsi, -80(%rbp)
	movq	%rdx, -72(%rbp)
Ltmp397:
	.loc	23 452 16 prologue_end
	cmpq	$0, %rdi
	jne	LBB68_2
	movb	$0, -121(%rbp)
	jmp	LBB68_5
LBB68_2:
	.loc	23 0 16 is_stmt 0
	movq	-168(%rbp), %rax
	movq	-160(%rbp), %rcx
	.loc	23 452 68
	movq	%rcx, -64(%rbp)
Ltmp398:
	.loc	23 93 32 is_stmt 1
	movq	%rcx, -56(%rbp)
Ltmp399:
	.file	24 "/rustc/2c8cc343237b8f7d5a3c3703e3a87f2eb2c54a74/library/core/src/ptr" "alignment.rs"
	.loc	24 97 9
	movq	%rcx, -104(%rbp)
	movq	-104(%rbp), %rdx
Ltmp400:
	.loc	23 93 31
	subq	$1, %rdx
	.loc	23 93 9 is_stmt 0
	movabsq	$9223372036854775807, %rcx
	subq	%rdx, %rcx
	movq	%rcx, -176(%rbp)
Ltmp401:
	.loc	23 452 41 is_stmt 1
	cmpq	$0, %rax
	sete	%al
	testb	$1, %al
	jne	LBB68_4
	.loc	23 0 41 is_stmt 0
	movq	-168(%rbp), %rcx
	movq	-176(%rbp), %rax
	.loc	23 452 41
	xorl	%edx, %edx
	divq	%rcx
	movq	%rax, %rcx
	movq	-152(%rbp), %rax
	.loc	23 452 37
	cmpq	%rcx, %rax
	seta	%al
	.loc	23 452 16
	andb	$1, %al
	movb	%al, -121(%rbp)
	jmp	LBB68_5
LBB68_4:
	.loc	23 452 41
	leaq	_str.0(%rip), %rdi
	leaq	l___unnamed_14(%rip), %rdx
	movl	$25, %esi
	callq	__ZN4core9panicking5panic17hc1bc45270cf64b03E
LBB68_5:
	.loc	23 452 16
	testb	$1, -121(%rbp)
	jne	LBB68_7
	.loc	23 0 16
	movq	-160(%rbp), %rax
	movq	-152(%rbp), %rdx
	movq	-168(%rbp), %rcx
	.loc	23 456 30 is_stmt 1
	imulq	%rdx, %rcx
	movq	%rcx, -48(%rbp)
Ltmp402:
	.loc	23 461 59
	movq	%rcx, -40(%rbp)
	.loc	23 461 71 is_stmt 0
	movq	%rax, -32(%rbp)
Ltmp403:
	.loc	24 97 9 is_stmt 1
	movq	%rax, -96(%rbp)
	movq	-96(%rbp), %rax
	movq	%rax, -24(%rbp)
Ltmp404:
	.loc	23 120 65
	movq	%rax, -16(%rbp)
Ltmp405:
	.loc	24 89 18
	movq	%rax, -8(%rbp)
	movq	-8(%rbp), %rax
Ltmp406:
	.loc	23 120 18
	movq	%rcx, -120(%rbp)
	movq	%rax, -112(%rbp)
Ltmp407:
	.loc	23 461 22
	movq	-120(%rbp), %rcx
	movq	-112(%rbp), %rax
	movq	%rcx, -144(%rbp)
	movq	%rax, -136(%rbp)
Ltmp408:
	.loc	23 462 10
	jmp	LBB68_8
LBB68_7:
	.loc	23 453 24
	movq	$0, -136(%rbp)
LBB68_8:
	.loc	23 462 10
	movq	-144(%rbp), %rax
	movq	-136(%rbp), %rdx
	addq	$176, %rsp
	popq	%rbp
	retq
Ltmp409:
Lfunc_end68:
	.cfi_endproc

	.globl	__ZN4core5array75_$LT$impl$u20$core..default..Default$u20$for$u20$$u5b$T$u3b$$u20$_$u5d$$GT$7default17h3060e2a72663dd0bE
	.p2align	4, 0x90
__ZN4core5array75_$LT$impl$u20$core..default..Default$u20$for$u20$$u5b$T$u3b$$u20$_$u5d$$GT$7default17h3060e2a72663dd0bE:
Lfunc_begin69:
	.file	25 "/rustc/2c8cc343237b8f7d5a3c3703e3a87f2eb2c54a74/library/core/src/array" "mod.rs"
	.loc	25 452 0
	.cfi_startproc
	.cfi_personality 155, _rust_eh_personality
	.cfi_lsda 16, Lexception17
	pushq	%rbp
	.cfi_def_cfa_offset 16
	.cfi_offset %rbp, -16
	movq	%rsp, %rbp
	.cfi_def_cfa_register %rbp
	subq	$48, %rsp
	movq	%rdi, -48(%rbp)
	movq	%rdi, -40(%rbp)
Ltmp413:
	.loc	25 453 18 prologue_end
	callq	__ZN48_$LT$usize$u20$as$u20$core..default..Default$GT$7default17hd31dcbec27516a3cE
	movq	%rax, -32(%rbp)
Ltmp410:
	.loc	25 453 35 is_stmt 0
	callq	__ZN48_$LT$usize$u20$as$u20$core..default..Default$GT$7default17hd31dcbec27516a3cE
Ltmp411:
	movq	%rax, -24(%rbp)
	jmp	LBB69_3
LBB69_1:
	.loc	25 452 13 is_stmt 1
	movq	-16(%rbp), %rdi
	callq	__Unwind_Resume
LBB69_2:
Ltmp412:
	.loc	25 0 13 is_stmt 0
	movq	%rax, %rcx
	movl	%edx, %eax
	movq	%rcx, -16(%rbp)
	movl	%eax, -8(%rbp)
	jmp	LBB69_1
LBB69_3:
	movq	-40(%rbp), %rax
	movq	-48(%rbp), %rcx
	movq	-24(%rbp), %rdx
	movq	-32(%rbp), %rsi
	.loc	25 453 17 is_stmt 1
	movq	%rsi, (%rcx)
	movq	%rdx, 8(%rcx)
	.loc	25 454 14
	addq	$48, %rsp
	popq	%rbp
	retq
Ltmp414:
Lfunc_end69:
	.cfi_endproc
	.section	__TEXT,__gcc_except_tab
	.p2align	2
GCC_except_table69:
Lexception17:
	.byte	255
	.byte	255
	.byte	1
	.uleb128 Lcst_end17-Lcst_begin17
Lcst_begin17:
	.uleb128 Lfunc_begin69-Lfunc_begin69
	.uleb128 Ltmp410-Lfunc_begin69
	.byte	0
	.byte	0
	.uleb128 Ltmp410-Lfunc_begin69
	.uleb128 Ltmp411-Ltmp410
	.uleb128 Ltmp412-Lfunc_begin69
	.byte	0
	.uleb128 Ltmp411-Lfunc_begin69
	.uleb128 Lfunc_end69-Ltmp411
	.byte	0
	.byte	0
Lcst_end17:
	.p2align	2

	.section	__TEXT,__text,regular,pure_instructions
	.globl	__ZN4core5slice29_$LT$impl$u20$$u5b$T$u5d$$GT$4iter17heacc0e9705f6fbd6E
	.p2align	4, 0x90
__ZN4core5slice29_$LT$impl$u20$$u5b$T$u5d$$GT$4iter17heacc0e9705f6fbd6E:
Lfunc_begin70:
	.file	26 "/rustc/2c8cc343237b8f7d5a3c3703e3a87f2eb2c54a74/library/core/src/slice" "mod.rs"
	.loc	26 741 0
	.cfi_startproc
	pushq	%rbp
	.cfi_def_cfa_offset 16
	.cfi_offset %rbp, -16
	movq	%rsp, %rbp
	.cfi_def_cfa_register %rbp
	subq	$16, %rsp
	movq	%rdi, -16(%rbp)
	movq	%rsi, -8(%rbp)
Ltmp415:
	.loc	26 742 9 prologue_end
	callq	__ZN4core5slice4iter13Iter$LT$T$GT$3new17h100238b2fde5982aE
	.loc	26 743 6
	addq	$16, %rsp
	popq	%rbp
	retq
Ltmp416:
Lfunc_end70:
	.cfi_endproc

	.globl	__ZN4core5slice4iter13Iter$LT$T$GT$3new17h100238b2fde5982aE
	.p2align	4, 0x90
__ZN4core5slice4iter13Iter$LT$T$GT$3new17h100238b2fde5982aE:
Lfunc_begin71:
	.file	27 "/rustc/2c8cc343237b8f7d5a3c3703e3a87f2eb2c54a74/library/core/src/slice" "iter.rs"
	.loc	27 82 0
	.cfi_startproc
	pushq	%rbp
	.cfi_def_cfa_offset 16
	.cfi_offset %rbp, -16
	movq	%rsp, %rbp
	.cfi_def_cfa_register %rbp
	subq	$280, %rsp
	movq	%rdi, -280(%rbp)
	movq	%rsi, -272(%rbp)
	movq	%rdi, -208(%rbp)
	movq	%rsi, -200(%rbp)
Ltmp417:
	.loc	27 83 19 prologue_end
	movq	%rdi, -184(%rbp)
	movq	%rsi, -176(%rbp)
Ltmp418:
	.loc	26 477 9
	movq	%rdi, -168(%rbp)
Ltmp419:
	.loc	27 86 21
	movq	%rdi, -160(%rbp)
Ltmp420:
	.loc	19 53 36
	movq	%rdi, -232(%rbp)
	.loc	19 53 18 is_stmt 0
	movq	-232(%rbp), %rax
	movq	%rax, -152(%rbp)
Ltmp421:
	.loc	19 39 13 is_stmt 1
	movq	%rax, -144(%rbp)
Ltmp422:
	.loc	19 209 33
	movq	%rax, -136(%rbp)
	.loc	19 209 18 is_stmt 0
	movq	%rax, -128(%rbp)
Ltmp423:
	.loc	27 89 20 is_stmt 1
	xorl	%eax, %eax
	testb	$1, %al
	jne	LBB71_2
	.loc	27 0 20 is_stmt 0
	movq	-280(%rbp), %rax
	movq	-272(%rbp), %rcx
	.loc	27 89 76
	movq	%rax, -40(%rbp)
	.loc	27 89 84
	movq	%rcx, -32(%rbp)
Ltmp424:
	.loc	19 932 18 is_stmt 1
	movq	%rax, -24(%rbp)
	.loc	19 932 30 is_stmt 0
	movq	%rcx, -16(%rbp)
Ltmp425:
	.loc	19 473 18 is_stmt 1
	shlq	$4, %rcx
	addq	%rcx, %rax
	movq	%rax, -248(%rbp)
Ltmp426:
	.loc	27 89 17
	jmp	LBB71_3
LBB71_2:
	.loc	27 0 17 is_stmt 0
	movq	-272(%rbp), %rcx
	movq	-280(%rbp), %rax
	.loc	27 89 32
	movq	%rax, -120(%rbp)
	.loc	27 89 54
	movq	%rcx, -112(%rbp)
Ltmp427:
	.loc	19 1118 9 is_stmt 1
	movq	%rax, -104(%rbp)
Ltmp428:
	.loc	19 61 9
	movq	%rax, -96(%rbp)
Ltmp429:
	.loc	19 1118 40
	movq	%rcx, -88(%rbp)
Ltmp430:
	.loc	19 1100 9
	movq	%rax, -80(%rbp)
	.loc	19 1100 30 is_stmt 0
	movq	%rcx, -72(%rbp)
Ltmp431:
	.loc	19 555 18 is_stmt 1
	addq	%rcx, %rax
	movq	%rax, -64(%rbp)
	movq	-64(%rbp), %rax
	movq	%rax, -56(%rbp)
Ltmp432:
	.loc	19 100 29
	movq	%rax, -48(%rbp)
Ltmp433:
	.file	28 "/rustc/2c8cc343237b8f7d5a3c3703e3a87f2eb2c54a74/library/core/src/ptr" "metadata.rs"
	.loc	28 118 36
	movq	%rax, -216(%rbp)
	.loc	28 118 14 is_stmt 0
	movq	-216(%rbp), %rax
	movq	%rax, -224(%rbp)
	movq	-224(%rbp), %rax
	movq	%rax, -248(%rbp)
Ltmp434:
LBB71_3:
	.loc	28 0 14
	movq	-280(%rbp), %rax
Ltmp435:
	.loc	27 91 48 is_stmt 1
	movq	%rax, -8(%rbp)
Ltmp436:
	.file	29 "/rustc/2c8cc343237b8f7d5a3c3703e3a87f2eb2c54a74/library/core/src/ptr" "non_null.rs"
	.loc	29 201 13
	movq	%rax, -240(%rbp)
Ltmp437:
	.loc	27 91 64
	movq	-248(%rbp), %rax
	.loc	27 91 13 is_stmt 0
	movq	-240(%rbp), %rcx
	movq	%rcx, -256(%rbp)
	movq	%rax, -264(%rbp)
Ltmp438:
	.loc	27 93 6 is_stmt 1
	movq	-264(%rbp), %rax
	movq	-256(%rbp), %rdx
	addq	$280, %rsp
	popq	%rbp
	retq
Ltmp439:
Lfunc_end71:
	.cfi_endproc

	.globl	__ZN4core6option15Option$LT$T$GT$16unwrap_unchecked17h43d4c3dda4e35b54E
	.p2align	4, 0x90
__ZN4core6option15Option$LT$T$GT$16unwrap_unchecked17h43d4c3dda4e35b54E:
Lfunc_begin72:
	.loc	9 933 0
	.cfi_startproc
	.cfi_personality 155, _rust_eh_personality
	.cfi_lsda 16, Lexception18
	pushq	%rbp
	.cfi_def_cfa_offset 16
	.cfi_offset %rbp, -16
	movq	%rsp, %rbp
	.cfi_def_cfa_register %rbp
	subq	$32, %rsp
	movq	%rdi, -32(%rbp)
Ltmp443:
	.loc	9 935 15 prologue_end
	movq	-32(%rbp), %rdx
	movl	$1, %eax
	xorl	%ecx, %ecx
	cmpq	$0, %rdx
	cmoveq	%rcx, %rax
	.loc	9 935 9 is_stmt 0
	cmpq	$0, %rax
	jne	LBB72_2
Ltmp440:
	.loc	9 938 30 is_stmt 1
	callq	__ZN4core4hint21unreachable_unchecked17hc06eb05ad19033faE
Ltmp441:
	jmp	LBB72_5
LBB72_2:
	.loc	9 936 18
	movq	-32(%rbp), %rax
	movq	%rax, -24(%rbp)
	.loc	9 940 6
	addq	$32, %rsp
	popq	%rbp
	retq
LBB72_3:
	.loc	9 940 5 is_stmt 0
	movq	-32(%rbp), %rdx
	movl	$1, %eax
	xorl	%ecx, %ecx
	cmpq	$0, %rdx
	cmoveq	%rcx, %rax
	cmpq	$1, %rax
	je	LBB72_6
	jmp	LBB72_7
LBB72_4:
Ltmp442:
	.loc	9 0 5
	movq	%rax, %rcx
	movl	%edx, %eax
	movq	%rcx, -16(%rbp)
	movl	%eax, -8(%rbp)
	jmp	LBB72_3
LBB72_5:
	ud2
LBB72_6:
	.loc	9 940 5
	movb	$1, %al
	testb	$1, %al
	jne	LBB72_8
	jmp	LBB72_7
LBB72_7:
	.loc	9 933 5 is_stmt 1
	movq	-16(%rbp), %rdi
	callq	__Unwind_Resume
LBB72_8:
	.loc	9 940 5
	jmp	LBB72_7
Ltmp444:
Lfunc_end72:
	.cfi_endproc
	.section	__TEXT,__gcc_except_tab
	.p2align	2
GCC_except_table72:
Lexception18:
	.byte	255
	.byte	255
	.byte	1
	.uleb128 Lcst_end18-Lcst_begin18
Lcst_begin18:
	.uleb128 Ltmp440-Lfunc_begin72
	.uleb128 Ltmp441-Ltmp440
	.uleb128 Ltmp442-Lfunc_begin72
	.byte	0
	.uleb128 Ltmp441-Lfunc_begin72
	.uleb128 Lfunc_end72-Ltmp441
	.byte	0
	.byte	0
Lcst_end18:
	.p2align	2

	.section	__TEXT,__text,regular,pure_instructions
	.globl	__ZN4core6option15Option$LT$T$GT$18get_or_insert_with17h44fad7a3d2dcc593E
	.p2align	4, 0x90
__ZN4core6option15Option$LT$T$GT$18get_or_insert_with17h44fad7a3d2dcc593E:
Lfunc_begin73:
	.loc	9 1583 0
	.cfi_startproc
	.cfi_personality 155, _rust_eh_personality
	.cfi_lsda 16, Lexception19
	pushq	%rbp
	.cfi_def_cfa_offset 16
	.cfi_offset %rbp, -16
	movq	%rsp, %rbp
	.cfi_def_cfa_register %rbp
	subq	$208, %rsp
	movq	%rdi, -192(%rbp)
	movq	%rsi, -184(%rbp)
	movq	%rdx, -176(%rbp)
	movq	%rdi, -56(%rbp)
	movq	%rsi, -48(%rbp)
	movq	%rdx, -40(%rbp)
Ltmp452:
	.loc	9 1596 9 prologue_end
	movb	$1, -81(%rbp)
	.loc	9 1588 16
	movl	$1, %eax
	xorl	%ecx, %ecx
	cmpq	$2, (%rdi)
	cmoveq	%rcx, %rax
	cmpq	$0, %rax
	jne	LBB73_2
	.loc	9 0 16 is_stmt 0
	movq	-176(%rbp), %rdx
	movq	-184(%rbp), %rsi
	.loc	9 1591 49 is_stmt 1
	movb	$0, -81(%rbp)
Ltmp445:
	leaq	-120(%rbp), %rdi
	callq	__ZN11egui_extras5image13RetainedImage10texture_id28_$u7b$$u7b$closure$u7d$$u7d$17h081b5438a1225698E
Ltmp446:
	jmp	LBB73_5
LBB73_2:
	.loc	9 0 49 is_stmt 0
	movq	-192(%rbp), %rdx
	.loc	9 1596 18 is_stmt 1
	movq	%rdx, -16(%rbp)
Ltmp453:
	.loc	9 697 15
	movl	$1, %eax
	xorl	%ecx, %ecx
	cmpq	$2, (%rdx)
	cmoveq	%rcx, %rax
	.loc	9 697 9 is_stmt 0
	cmpq	$0, %rax
	je	LBB73_7
	jmp	LBB73_8
Ltmp454:
LBB73_3:
	.loc	9 1597 5 is_stmt 1
	testb	$1, -81(%rbp)
	jne	LBB73_12
	jmp	LBB73_11
LBB73_4:
Ltmp451:
	.loc	9 0 5 is_stmt 0
	movq	%rax, %rcx
	movl	%edx, %eax
	movq	%rcx, -32(%rbp)
	movl	%eax, -24(%rbp)
	jmp	LBB73_3
LBB73_5:
	movq	-192(%rbp), %rsi
	.loc	9 1591 44 is_stmt 1
	movq	-104(%rbp), %rax
	movq	%rax, -128(%rbp)
	movq	-120(%rbp), %rax
	movq	-112(%rbp), %rcx
	movq	%rcx, -136(%rbp)
	movq	%rax, -144(%rbp)
Ltmp447:
	leaq	-168(%rbp), %rdi
	leaq	-144(%rbp), %rdx
	.loc	9 1591 25 is_stmt 0
	callq	__ZN4core3mem7replace17hccf95aacffeb7314E
Ltmp448:
	jmp	LBB73_6
LBB73_6:
	.loc	9 1588 9 is_stmt 1
	jmp	LBB73_2
LBB73_7:
Ltmp455:
	.loc	9 699 21
	movq	$0, -96(%rbp)
	jmp	LBB73_9
LBB73_8:
	.loc	9 0 21 is_stmt 0
	movq	-192(%rbp), %rax
	.loc	9 698 18 is_stmt 1
	movq	%rax, -8(%rbp)
Ltmp456:
	.loc	9 698 32 is_stmt 0
	movq	%rax, -96(%rbp)
Ltmp457:
LBB73_9:
	.loc	9 1596 18 is_stmt 1
	movq	-96(%rbp), %rdi
Ltmp449:
	leaq	l___unnamed_15(%rip), %rsi
	callq	__ZN4core6option15Option$LT$T$GT$16unwrap_unchecked17h43d4c3dda4e35b54E
Ltmp450:
	movq	%rax, -200(%rbp)
	jmp	LBB73_10
LBB73_10:
	.loc	9 1597 5
	testb	$1, -81(%rbp)
	jne	LBB73_14
	jmp	LBB73_13
LBB73_11:
	.loc	9 1583 5
	movq	-32(%rbp), %rdi
	callq	__Unwind_Resume
LBB73_12:
	.loc	9 1597 5
	jmp	LBB73_11
LBB73_13:
	.loc	9 0 5 is_stmt 0
	movq	-200(%rbp), %rax
	.loc	9 1597 6
	addq	$208, %rsp
	popq	%rbp
	retq
LBB73_14:
	.loc	9 1597 5
	jmp	LBB73_13
Ltmp458:
Lfunc_end73:
	.cfi_endproc
	.section	__TEXT,__gcc_except_tab
	.p2align	2
GCC_except_table73:
Lexception19:
	.byte	255
	.byte	255
	.byte	1
	.uleb128 Lcst_end19-Lcst_begin19
Lcst_begin19:
	.uleb128 Ltmp445-Lfunc_begin73
	.uleb128 Ltmp450-Ltmp445
	.uleb128 Ltmp451-Lfunc_begin73
	.byte	0
	.uleb128 Ltmp450-Lfunc_begin73
	.uleb128 Lfunc_end73-Ltmp450
	.byte	0
	.byte	0
Lcst_end19:
	.p2align	2

	.section	__TEXT,__text,regular,pure_instructions
	.globl	__ZN4core6option15Option$LT$T$GT$8and_then17hd7be714ff25b80f6E
	.p2align	4, 0x90
__ZN4core6option15Option$LT$T$GT$8and_then17hd7be714ff25b80f6E:
Lfunc_begin74:
	.loc	9 1303 0 is_stmt 1
	.cfi_startproc
	pushq	%rbp
	.cfi_def_cfa_offset 16
	.cfi_offset %rbp, -16
	movq	%rsp, %rbp
	.cfi_def_cfa_register %rbp
	subq	$48, %rsp
	movq	%rdi, -48(%rbp)
Ltmp459:
	.loc	9 1308 15 prologue_end
	movb	$1, -17(%rbp)
	movq	-48(%rbp), %rdx
	movl	$1, %eax
	xorl	%ecx, %ecx
	cmpq	$0, %rdx
	cmoveq	%rcx, %rax
	.loc	9 1308 9 is_stmt 0
	cmpq	$0, %rax
	jne	LBB74_2
	.loc	9 1310 21 is_stmt 1
	movq	$0, -40(%rbp)
	jmp	LBB74_3
LBB74_2:
	.loc	9 1309 18
	movq	-48(%rbp), %rax
	movq	%rax, -8(%rbp)
Ltmp460:
	.loc	9 1309 24 is_stmt 0
	movb	$0, -17(%rbp)
	movq	%rax, -32(%rbp)
	movq	-32(%rbp), %rdi
	callq	__ZN4egui4util11id_type_map9IdTypeMap13get_persisted28_$u7b$$u7b$closure$u7d$$u7d$17h8c18c41cf6b27bc0E
	movq	%rax, -40(%rbp)
Ltmp461:
LBB74_3:
	.loc	9 1312 5 is_stmt 1
	testb	$1, -17(%rbp)
	jne	LBB74_5
LBB74_4:
	.loc	9 1312 6 is_stmt 0
	movq	-40(%rbp), %rax
	addq	$48, %rsp
	popq	%rbp
	retq
LBB74_5:
	.loc	9 1312 5
	jmp	LBB74_4
Ltmp462:
Lfunc_end74:
	.cfi_endproc

	.globl	__ZN4core6option27Option$LT$$RF$mut$u20$T$GT$6cloned17h71a0d05be3e57e16E
	.p2align	4, 0x90
__ZN4core6option27Option$LT$$RF$mut$u20$T$GT$6cloned17h71a0d05be3e57e16E:
Lfunc_begin75:
	.loc	9 1877 0 is_stmt 1
	.cfi_startproc
	pushq	%rbp
	.cfi_def_cfa_offset 16
	.cfi_offset %rbp, -16
	movq	%rsp, %rbp
	.cfi_def_cfa_register %rbp
	subq	$64, %rsp
	movq	%rdi, -56(%rbp)
	movq	%rdi, -48(%rbp)
	movq	%rsi, -40(%rbp)
Ltmp463:
	.loc	9 1881 15 prologue_end
	movq	-40(%rbp), %rdx
	movl	$1, %eax
	xorl	%ecx, %ecx
	cmpq	$0, %rdx
	cmoveq	%rcx, %rax
	.loc	9 1881 9 is_stmt 0
	cmpq	$0, %rax
	jne	LBB75_2
	.loc	9 0 9
	movq	-56(%rbp), %rax
	.loc	9 1883 21 is_stmt 1
	movq	$0, 8(%rax)
	jmp	LBB75_3
LBB75_2:
	.loc	9 1882 18
	movq	-40(%rbp), %rsi
	movq	%rsi, -8(%rbp)
Ltmp464:
	.loc	9 1882 29 is_stmt 0
	leaq	-32(%rbp), %rdi
	callq	__ZN67_$LT$alloc..vec..Vec$LT$T$C$A$GT$$u20$as$u20$core..clone..Clone$GT$5clone17h73b2cb5cd62bfa0bE
	movq	-56(%rbp), %rax
	.loc	9 1882 24
	movq	-32(%rbp), %rcx
	movq	%rcx, (%rax)
	movq	-24(%rbp), %rcx
	movq	%rcx, 8(%rax)
	movq	-16(%rbp), %rcx
	movq	%rcx, 16(%rax)
Ltmp465:
LBB75_3:
	.loc	9 0 24
	movq	-48(%rbp), %rax
	.loc	9 1885 6 is_stmt 1
	addq	$64, %rsp
	popq	%rbp
	retq
Ltmp466:
Lfunc_end75:
	.cfi_endproc

	.p2align	4, 0x90
__ZN4egui2ui2Ui3ctx17haf47a97d380b4fa8E:
Lfunc_begin76:
	.file	30 "/Users/natalie/.cargo/registry/src/github.com-1ecc6299db9ec823/egui-0.19.0/src" "ui.rs"
	.loc	30 201 0
	.cfi_startproc
	pushq	%rbp
	.cfi_def_cfa_offset 16
	.cfi_offset %rbp, -16
	movq	%rsp, %rbp
	.cfi_def_cfa_register %rbp
	subq	$16, %rsp
	movq	%rdi, %rax
	movq	%rax, -16(%rbp)
Ltmp467:
	.loc	30 202 9 prologue_end
	addq	$256, %rax
	movq	%rax, -8(%rbp)
Ltmp468:
	.file	31 "/Users/natalie/.cargo/registry/src/github.com-1ecc6299db9ec823/egui-0.19.0/src" "painter.rs"
	.loc	31 105 9
	addq	$32, %rax
Ltmp469:
	.loc	30 203 6
	addq	$16, %rsp
	popq	%rbp
	retq
Ltmp470:
Lfunc_end76:
	.cfi_endproc

	.p2align	4, 0x90
__ZN4egui2ui2Ui4data17h972173ef87f3c489E:
Lfunc_begin77:
	.loc	30 367 0
	.cfi_startproc
	pushq	%rbp
	.cfi_def_cfa_offset 16
	.cfi_offset %rbp, -16
	movq	%rsp, %rbp
	.cfi_def_cfa_register %rbp
	subq	$16, %rsp
	movq	%rdi, -8(%rbp)
Ltmp471:
	.loc	30 368 9 prologue_end
	callq	__ZN4egui2ui2Ui3ctx17haf47a97d380b4fa8E
	movq	%rax, %rdi
	callq	__ZN4egui7context7Context4data17h35a28c5489a978eeE
	.loc	30 369 6
	addq	$16, %rsp
	popq	%rbp
	retq
Ltmp472:
Lfunc_end77:
	.cfi_endproc

	.p2align	4, 0x90
__ZN4egui2ui2Ui6layout17h21975d2a5917eeecE:
Lfunc_begin78:
	.loc	30 285 0
	.cfi_startproc
	pushq	%rbp
	.cfi_def_cfa_offset 16
	.cfi_offset %rbp, -16
	movq	%rsp, %rbp
	.cfi_def_cfa_register %rbp
	subq	$16, %rsp
	movq	%rdi, %rax
	movq	%rax, -16(%rbp)
	movq	%rax, -8(%rbp)
Ltmp473:
	.file	32 "/Users/natalie/.cargo/registry/src/github.com-1ecc6299db9ec823/egui-0.19.0/src" "placer.rs"
	.loc	32 43 9 prologue_end
	addq	$248, %rax
Ltmp474:
	.loc	30 287 6
	addq	$16, %rsp
	popq	%rbp
	retq
Ltmp475:
Lfunc_end78:
	.cfi_endproc

	.p2align	4, 0x90
__ZN4egui2ui2Ui7spacing17ha9c0596976390b48E:
Lfunc_begin79:
	.loc	30 160 0
	.cfi_startproc
	pushq	%rbp
	.cfi_def_cfa_offset 16
	.cfi_offset %rbp, -16
	movq	%rsp, %rbp
	.cfi_def_cfa_register %rbp
	subq	$16, %rsp
	movq	%rdi, -8(%rbp)
Ltmp476:
	.loc	30 161 10 prologue_end
	addq	$328, %rdi
	callq	__ZN69_$LT$alloc..sync..Arc$LT$T$GT$$u20$as$u20$core..ops..deref..Deref$GT$5deref17haa4c9a2c68f78ddcE
	.loc	30 161 9 is_stmt 0
	addq	$32, %rax
	.loc	30 162 6 is_stmt 1
	addq	$16, %rsp
	popq	%rbp
	retq
Ltmp477:
Lfunc_end79:
	.cfi_endproc

	.globl	__ZN4egui4util11id_type_map6TypeId2of17h4cb05b192ccc9ff2E
	.p2align	4, 0x90
__ZN4egui4util11id_type_map6TypeId2of17h4cb05b192ccc9ff2E:
Lfunc_begin80:
	.file	33 "/Users/natalie/.cargo/registry/src/github.com-1ecc6299db9ec823/egui-0.19.0/src/util" "id_type_map.rs"
	.loc	33 18 0
	.cfi_startproc
	pushq	%rbp
	.cfi_def_cfa_offset 16
	.cfi_offset %rbp, -16
	movq	%rsp, %rbp
	.cfi_def_cfa_register %rbp
Ltmp478:
	.loc	33 19 9 prologue_end
	callq	__ZN4core3any6TypeId2of17h3b5256cd7f682471E
	movq	%rax, %rdi
	callq	__ZN50_$LT$T$u20$as$u20$core..convert..Into$LT$U$GT$$GT$4into17h7472c12c8aadb936E
	.loc	33 20 6
	popq	%rbp
	retq
Ltmp479:
Lfunc_end80:
	.cfi_endproc

	.globl	__ZN4egui4util11id_type_map7Element17get_mut_persisted17ha55ae60d693d1805E
	.p2align	4, 0x90
__ZN4egui4util11id_type_map7Element17get_mut_persisted17ha55ae60d693d1805E:
Lfunc_begin81:
	.loc	33 231 0
	.cfi_startproc
	pushq	%rbp
	.cfi_def_cfa_offset 16
	.cfi_offset %rbp, -16
	movq	%rsp, %rbp
	.cfi_def_cfa_register %rbp
	subq	$32, %rsp
	movq	%rdi, -32(%rbp)
	movq	%rdi, -16(%rbp)
Ltmp480:
	.loc	33 232 9 prologue_end
	cmpq	$0, (%rdi)
	jne	LBB81_2
	.loc	33 0 9 is_stmt 0
	movq	-32(%rbp), %rax
	.loc	33 233 27 is_stmt 1
	movq	%rax, %rcx
	addq	$16, %rcx
	movq	%rcx, -8(%rbp)
Ltmp481:
	.loc	33 233 42 is_stmt 0
	movq	16(%rax), %rdi
	movq	24(%rax), %rsi
	callq	__ZN77_$LT$dyn$u20$core..any..Any$u2b$core..marker..Send$u2b$core..marker..Sync$GT$12downcast_mut17h87a5c93af4df1931E
	movq	%rax, -24(%rbp)
	jmp	LBB81_3
Ltmp482:
LBB81_2:
	.loc	33 246 40 is_stmt 1
	movq	$0, -24(%rbp)
LBB81_3:
	.loc	33 248 6
	movq	-24(%rbp), %rax
	addq	$32, %rsp
	popq	%rbp
	retq
Ltmp483:
Lfunc_end81:
	.cfi_endproc

	.globl	__ZN4egui4util11id_type_map9IdTypeMap13get_persisted17h0ed591f4bbe601eeE
	.p2align	4, 0x90
__ZN4egui4util11id_type_map9IdTypeMap13get_persisted17h0ed591f4bbe601eeE:
Lfunc_begin82:
	.loc	33 370 0
	.cfi_startproc
	pushq	%rbp
	.cfi_def_cfa_offset 16
	.cfi_offset %rbp, -16
	movq	%rsp, %rbp
	.cfi_def_cfa_register %rbp
	subq	$96, %rsp
	movq	%rdx, -88(%rbp)
	movq	%rsi, -80(%rbp)
	movq	%rdi, -72(%rbp)
	movq	%rdi, -64(%rbp)
	movq	%rsi, -48(%rbp)
	movq	%rdx, -40(%rbp)
Ltmp484:
	.loc	33 371 25 prologue_end
	callq	__ZN4egui4util11id_type_map6TypeId2of17h4cb05b192ccc9ff2E
	movq	-88(%rbp), %rdx
	movq	-80(%rbp), %rdi
	movq	%rax, -32(%rbp)
	movq	%rdx, -24(%rbp)
	leaq	-32(%rbp), %rax
	movq	%rax, -8(%rbp)
Ltmp485:
	.loc	33 24 9
	movq	-32(%rbp), %rax
	leaq	-24(%rbp), %rcx
	movq	%rcx, -16(%rbp)
Ltmp486:
	.loc	33 496 5
	xorq	-24(%rbp), %rax
Ltmp487:
	.loc	33 371 20
	movq	%rax, -56(%rbp)
Ltmp488:
	.loc	33 372 9
	leaq	-56(%rbp), %rsi
	callq	__ZN3std11collections4hash3map24HashMap$LT$K$C$V$C$S$GT$7get_mut17hdcaf71a340946b69E
	movq	%rax, %rdi
	callq	__ZN4core6option15Option$LT$T$GT$8and_then17hd7be714ff25b80f6E
	movq	-72(%rbp), %rdi
	movq	%rax, %rsi
	callq	__ZN4core6option27Option$LT$$RF$mut$u20$T$GT$6cloned17h71a0d05be3e57e16E
	movq	-64(%rbp), %rax
Ltmp489:
	.loc	33 376 6
	addq	$96, %rsp
	popq	%rbp
	retq
Ltmp490:
Lfunc_end82:
	.cfi_endproc

	.globl	__ZN4egui4util11id_type_map9IdTypeMap13get_persisted28_$u7b$$u7b$closure$u7d$$u7d$17h8c18c41cf6b27bc0E
	.p2align	4, 0x90
__ZN4egui4util11id_type_map9IdTypeMap13get_persisted28_$u7b$$u7b$closure$u7d$$u7d$17h8c18c41cf6b27bc0E:
Lfunc_begin83:
	.loc	33 374 0
	.cfi_startproc
	pushq	%rbp
	.cfi_def_cfa_offset 16
	.cfi_offset %rbp, -16
	movq	%rsp, %rbp
	.cfi_def_cfa_register %rbp
	subq	$16, %rsp
	movq	%rdi, -8(%rbp)
Ltmp491:
	.loc	33 374 27 prologue_end
	callq	__ZN4egui4util11id_type_map7Element17get_mut_persisted17ha55ae60d693d1805E
	.loc	33 374 48 is_stmt 0
	addq	$16, %rsp
	popq	%rbp
	retq
Ltmp492:
Lfunc_end83:
	.cfi_endproc

	.globl	__ZN4egui7context7Context12load_texture17h6de5185032808899E
	.p2align	4, 0x90
__ZN4egui7context7Context12load_texture17h6de5185032808899E:
Lfunc_begin84:
	.file	34 "/Users/natalie/.cargo/registry/src/github.com-1ecc6299db9ec823/egui-0.19.0/src" "context.rs"
	.loc	34 747 0 is_stmt 1
	.cfi_startproc
	.cfi_personality 155, _rust_eh_personality
	.cfi_lsda 16, Lexception20
	pushq	%rbp
	.cfi_def_cfa_offset 16
	.cfi_offset %rbp, -16
	movq	%rsp, %rbp
	.cfi_def_cfa_register %rbp
	subq	$464, %rsp
	movq	%rcx, -352(%rbp)
Ltmp538:
	movq	%rdx, -344(%rbp)
	movq	%rsi, %rcx
Ltmp539:
	movq	-344(%rbp), %rsi
	movq	%rcx, -336(%rbp)
	movq	%rdi, -328(%rbp)
	movb	%r8b, %al
	movb	%al, -313(%rbp)
	movq	%rdi, -312(%rbp)
	movq	%rcx, -72(%rbp)
	movq	%rsi, -64(%rbp)
	andb	$1, %al
	movb	%al, -49(%rbp)
Ltmp540:
	.loc	34 753 13 prologue_end
	movb	$0, -76(%rbp)
	movb	$0, -74(%rbp)
	movb	$0, -75(%rbp)
	movb	$0, -73(%rbp)
	movb	$1, -73(%rbp)
Ltmp493:
	leaq	-304(%rbp), %rdi
	.loc	34 753 20 is_stmt 0
	callq	__ZN50_$LT$T$u20$as$u20$core..convert..Into$LT$U$GT$$GT$4into17he7b0018b5dfdb0cbE
Ltmp494:
Ltmp541:
	jmp	LBB84_3
Ltmp542:
LBB84_1:
	.loc	34 767 5 is_stmt 1
	testb	$1, -73(%rbp)
	jne	LBB84_32
	jmp	LBB84_31
Ltmp543:
LBB84_2:
Ltmp495:
	.loc	34 0 5 is_stmt 0
	movq	%rax, %rcx
	movl	%edx, %eax
	movq	%rcx, -48(%rbp)
	movl	%eax, -40(%rbp)
	jmp	LBB84_1
Ltmp544:
LBB84_3:
	movq	-352(%rbp), %rcx
	.loc	34 753 30 is_stmt 1
	movb	$1, -74(%rbp)
Ltmp545:
	.loc	34 754 21
	movb	$0, -73(%rbp)
	movq	32(%rcx), %rax
	movq	%rax, -200(%rbp)
	movq	24(%rcx), %rax
	movq	%rax, -208(%rbp)
	movq	16(%rcx), %rax
	movq	%rax, -216(%rbp)
	movq	(%rcx), %rax
	movq	8(%rcx), %rcx
	movq	%rcx, -224(%rbp)
	movq	%rax, -232(%rbp)
Ltmp496:
	leaq	-280(%rbp), %rdi
	leaq	-232(%rbp), %rsi
	callq	__ZN50_$LT$T$u20$as$u20$core..convert..Into$LT$U$GT$$GT$4into17hbde9f94f0236f986E
Ltmp497:
	jmp	LBB84_6
Ltmp546:
LBB84_4:
	.loc	34 767 5
	testb	$1, -74(%rbp)
	jne	LBB84_30
	jmp	LBB84_1
Ltmp547:
LBB84_5:
Ltmp498:
	.loc	34 0 5 is_stmt 0
	movq	%rax, %rcx
	movl	%edx, %eax
	movq	%rcx, -48(%rbp)
	movl	%eax, -40(%rbp)
	jmp	LBB84_4
Ltmp548:
LBB84_6:
	movq	-336(%rbp), %rdi
Ltmp549:
	.loc	34 754 32 is_stmt 1
	movb	$1, -75(%rbp)
Ltmp499:
Ltmp550:
	.loc	34 755 32
	callq	__ZN4egui7context7Context5input17h91c802a65fda48afE
Ltmp500:
	movq	%rdx, -368(%rbp)
	movq	%rax, -360(%rbp)
	jmp	LBB84_9
Ltmp551:
LBB84_7:
	.loc	34 767 5
	testb	$1, -75(%rbp)
	jne	LBB84_29
	jmp	LBB84_4
Ltmp552:
LBB84_8:
Ltmp510:
	.loc	34 0 5 is_stmt 0
	movq	%rax, %rcx
	movl	%edx, %eax
	movq	%rcx, -48(%rbp)
	movl	%eax, -40(%rbp)
	jmp	LBB84_7
Ltmp553:
LBB84_9:
	movq	-368(%rbp), %rax
	movq	-360(%rbp), %rcx
Ltmp554:
	.loc	34 755 32 is_stmt 1
	movq	%rcx, -192(%rbp)
	movq	%rax, -184(%rbp)
Ltmp501:
	leaq	-192(%rbp), %rdi
	callq	__ZN96_$LT$lock_api..rwlock..MappedRwLockReadGuard$LT$R$C$T$GT$$u20$as$u20$core..ops..deref..Deref$GT$5deref17h7faac3464d20e0d4E
Ltmp502:
	movq	%rax, -376(%rbp)
	jmp	LBB84_12
Ltmp555:
LBB84_10:
Ltmp504:
	.loc	34 0 32 is_stmt 0
	leaq	-192(%rbp), %rdi
	.loc	34 755 61
	callq	__ZN4core3ptr134drop_in_place$LT$lock_api..rwlock..MappedRwLockReadGuard$LT$parking_lot..raw_rwlock..RawRwLock$C$egui..input_state..InputState$GT$$GT$17h79d69c530d11c882E
Ltmp505:
	jmp	LBB84_7
Ltmp556:
LBB84_11:
Ltmp503:
	.loc	34 0 61
	movq	%rax, %rcx
	movl	%edx, %eax
	movq	%rcx, -48(%rbp)
	movl	%eax, -40(%rbp)
	jmp	LBB84_10
Ltmp557:
LBB84_12:
	movq	-376(%rbp), %rax
	.loc	34 755 32
	movq	432(%rax), %rax
	movq	%rax, -32(%rbp)
Ltmp506:
	leaq	-192(%rbp), %rdi
	.loc	34 755 61
	callq	__ZN4core3ptr134drop_in_place$LT$lock_api..rwlock..MappedRwLockReadGuard$LT$parking_lot..raw_rwlock..RawRwLock$C$egui..input_state..InputState$GT$$GT$17h79d69c530d11c882E
Ltmp507:
	jmp	LBB84_14
Ltmp558:
LBB84_13:
Ltmp537:
	.loc	34 747 5 is_stmt 1
	callq	__ZN4core9panicking19panic_cannot_unwind17h1fbca7e1d7f56ae1E
Ltmp559:
LBB84_14:
Ltmp508:
	.loc	34 0 5 is_stmt 0
	movq	-336(%rbp), %rdi
Ltmp560:
	.loc	34 764 24 is_stmt 1
	callq	__ZN4egui7context7Context11tex_manager17hb5ab20e9613d29d8E
Ltmp509:
	movq	%rax, -384(%rbp)
	jmp	LBB84_15
Ltmp561:
LBB84_15:
	.loc	34 0 24 is_stmt 0
	movq	-384(%rbp), %rax
	.loc	34 764 24
	movq	%rax, -176(%rbp)
	.loc	34 764 41
	movb	$1, -76(%rbp)
Ltmp511:
	leaq	-176(%rbp), %rdi
Ltmp562:
	.loc	34 765 22 is_stmt 1
	callq	__ZN69_$LT$alloc..sync..Arc$LT$T$GT$$u20$as$u20$core..ops..deref..Deref$GT$5deref17h507f821304256257E
Ltmp512:
	movq	%rax, -392(%rbp)
	jmp	LBB84_18
Ltmp563:
LBB84_16:
	.loc	34 767 5
	testb	$1, -76(%rbp)
	jne	LBB84_28
	jmp	LBB84_7
Ltmp564:
LBB84_17:
Ltmp528:
	.loc	34 0 5 is_stmt 0
	movq	%rax, %rcx
	movl	%edx, %eax
	movq	%rcx, -48(%rbp)
	movl	%eax, -40(%rbp)
	jmp	LBB84_16
Ltmp565:
LBB84_18:
	movq	-392(%rbp), %rdi
	movq	%rdi, -8(%rbp)
Ltmp513:
Ltmp566:
	.file	35 "/Users/natalie/.cargo/registry/src/github.com-1ecc6299db9ec823/epaint-0.19.0/src" "mutex.rs"
	.loc	35 141 48 is_stmt 1
	callq	__ZN8lock_api6rwlock19RwLock$LT$R$C$T$GT$5write17he1288622246a8c8eE
Ltmp514:
	movq	%rax, -400(%rbp)
	jmp	LBB84_19
Ltmp567:
LBB84_19:
Ltmp515:
	.loc	35 0 48 is_stmt 0
	movq	-400(%rbp), %rdi
	.loc	35 141 13
	callq	__ZN8lock_api6rwlock29RwLockWriteGuard$LT$R$C$T$GT$3map17h215e0b87f74cbc0aE
Ltmp516:
	movq	%rdx, -416(%rbp)
	movq	%rax, -408(%rbp)
	jmp	LBB84_20
Ltmp568:
LBB84_20:
	.loc	35 0 13
	movq	-416(%rbp), %rax
	movq	-408(%rbp), %rcx
	.loc	34 765 22 is_stmt 1
	movq	%rcx, -168(%rbp)
	movq	%rax, -160(%rbp)
Ltmp517:
	leaq	-168(%rbp), %rdi
	callq	__ZN100_$LT$lock_api..rwlock..MappedRwLockWriteGuard$LT$R$C$T$GT$$u20$as$u20$core..ops..deref..DerefMut$GT$9deref_mut17h1ae4ea747afdc349E
Ltmp518:
	movq	%rax, -424(%rbp)
	jmp	LBB84_24
Ltmp569:
LBB84_22:
Ltmp522:
	.loc	34 0 22 is_stmt 0
	leaq	-168(%rbp), %rdi
	.loc	34 765 65
	callq	__ZN4core3ptr138drop_in_place$LT$lock_api..rwlock..MappedRwLockWriteGuard$LT$parking_lot..raw_rwlock..RawRwLock$C$epaint..textures..TextureManager$GT$$GT$17hdef04a01bea65c68E
Ltmp523:
	jmp	LBB84_16
Ltmp570:
LBB84_23:
Ltmp521:
	.loc	34 0 65
	movq	%rax, %rcx
	movl	%edx, %eax
	movq	%rcx, -48(%rbp)
	movl	%eax, -40(%rbp)
	jmp	LBB84_22
Ltmp571:
LBB84_24:
	movq	-424(%rbp), %rdi
	movb	-313(%rbp), %al
	.loc	34 765 45
	movb	$0, -74(%rbp)
	movq	-288(%rbp), %rcx
	movq	%rcx, -136(%rbp)
	movq	-304(%rbp), %rcx
	movq	-296(%rbp), %rdx
	movq	%rdx, -144(%rbp)
	movq	%rcx, -152(%rbp)
	.loc	34 765 51
	movb	$0, -75(%rbp)
	movq	-240(%rbp), %rcx
	movq	%rcx, -88(%rbp)
	movq	-248(%rbp), %rcx
	movq	%rcx, -96(%rbp)
	movq	-256(%rbp), %rcx
	movq	%rcx, -104(%rbp)
	movq	-264(%rbp), %rcx
	movq	%rcx, -112(%rbp)
	movq	-280(%rbp), %rcx
	movq	-272(%rbp), %rdx
	movq	%rdx, -120(%rbp)
	movq	%rcx, -128(%rbp)
Ltmp519:
	.loc	34 765 22
	movzbl	%al, %ecx
	andl	$1, %ecx
	leaq	-152(%rbp), %rsi
	leaq	-128(%rbp), %rdx
	callq	__ZN6epaint8textures14TextureManager5alloc17h799dae4150ba1d0fE
Ltmp520:
	movq	%rdx, -440(%rbp)
	movq	%rax, -432(%rbp)
	jmp	LBB84_25
Ltmp572:
LBB84_25:
	.loc	34 0 22
	movq	-440(%rbp), %rax
	movq	-432(%rbp), %rcx
	.loc	34 765 22
	movq	%rcx, %rdx
	movq	%rdx, -456(%rbp)
	movq	%rax, %rdx
	movq	%rdx, -448(%rbp)
	movq	%rcx, -24(%rbp)
	movq	%rax, -16(%rbp)
Ltmp524:
	leaq	-168(%rbp), %rdi
	.loc	34 765 65
	callq	__ZN4core3ptr138drop_in_place$LT$lock_api..rwlock..MappedRwLockWriteGuard$LT$parking_lot..raw_rwlock..RawRwLock$C$epaint..textures..TextureManager$GT$$GT$17hdef04a01bea65c68E
Ltmp525:
	jmp	LBB84_26
Ltmp573:
LBB84_26:
	.loc	34 0 65
	movq	-448(%rbp), %rcx
	movq	-456(%rbp), %rdx
	movq	-328(%rbp), %rdi
Ltmp574:
	.loc	34 766 28 is_stmt 1
	movb	$0, -76(%rbp)
	movq	-176(%rbp), %rsi
Ltmp526:
	.loc	34 766 9 is_stmt 0
	callq	__ZN6epaint14texture_handle13TextureHandle3new17h7f787299fa66f7beE
Ltmp527:
	jmp	LBB84_27
Ltmp575:
LBB84_27:
	.loc	34 0 9
	movq	-312(%rbp), %rax
	.loc	34 767 5 is_stmt 1
	movb	$0, -76(%rbp)
Ltmp576:
	.loc	34 767 5 is_stmt 0
	movb	$0, -75(%rbp)
Ltmp577:
	.loc	34 767 5
	movb	$0, -74(%rbp)
	.loc	34 767 6
	addq	$464, %rsp
	popq	%rbp
	retq
Ltmp578:
LBB84_28:
Ltmp529:
	.loc	34 0 6
	leaq	-176(%rbp), %rdi
Ltmp579:
	.loc	34 767 5
	callq	__ZN4core3ptr120drop_in_place$LT$alloc..sync..Arc$LT$epaint..mutex..rw_lock_impl..RwLock$LT$epaint..textures..TextureManager$GT$$GT$$GT$17h2541cae3f1ceda80E
Ltmp530:
	jmp	LBB84_7
Ltmp580:
LBB84_29:
Ltmp531:
	.loc	34 0 5
	leaq	-280(%rbp), %rdi
	.loc	34 767 5
	callq	__ZN4core3ptr45drop_in_place$LT$epaint..image..ImageData$GT$17hce6f9f93c23253d1E
Ltmp532:
	jmp	LBB84_4
Ltmp581:
LBB84_30:
Ltmp533:
	.loc	34 0 5
	leaq	-304(%rbp), %rdi
	.loc	34 767 5
	callq	__ZN4core3ptr42drop_in_place$LT$alloc..string..String$GT$17h4e7059cd6ee9b007E
Ltmp534:
	jmp	LBB84_1
Ltmp582:
LBB84_31:
	.loc	34 747 5 is_stmt 1
	movq	-48(%rbp), %rdi
	callq	__Unwind_Resume
Ltmp583:
LBB84_32:
Ltmp535:
	.loc	34 0 5 is_stmt 0
	movq	-352(%rbp), %rdi
	.loc	34 767 5 is_stmt 1
	callq	__ZN4core3ptr46drop_in_place$LT$epaint..image..ColorImage$GT$17h838bfb55476fead7E
Ltmp536:
	jmp	LBB84_31
Ltmp584:
Lfunc_end84:
	.cfi_endproc
	.section	__TEXT,__gcc_except_tab
	.p2align	2
GCC_except_table84:
Lexception20:
	.byte	255
	.byte	255
	.byte	1
	.uleb128 Lcst_end20-Lcst_begin20
Lcst_begin20:
	.uleb128 Ltmp493-Lfunc_begin84
	.uleb128 Ltmp494-Ltmp493
	.uleb128 Ltmp495-Lfunc_begin84
	.byte	0
	.uleb128 Ltmp496-Lfunc_begin84
	.uleb128 Ltmp497-Ltmp496
	.uleb128 Ltmp498-Lfunc_begin84
	.byte	0
	.uleb128 Ltmp499-Lfunc_begin84
	.uleb128 Ltmp500-Ltmp499
	.uleb128 Ltmp510-Lfunc_begin84
	.byte	0
	.uleb128 Ltmp501-Lfunc_begin84
	.uleb128 Ltmp502-Ltmp501
	.uleb128 Ltmp503-Lfunc_begin84
	.byte	0
	.uleb128 Ltmp504-Lfunc_begin84
	.uleb128 Ltmp505-Ltmp504
	.uleb128 Ltmp537-Lfunc_begin84
	.byte	0
	.uleb128 Ltmp506-Lfunc_begin84
	.uleb128 Ltmp509-Ltmp506
	.uleb128 Ltmp510-Lfunc_begin84
	.byte	0
	.uleb128 Ltmp511-Lfunc_begin84
	.uleb128 Ltmp516-Ltmp511
	.uleb128 Ltmp528-Lfunc_begin84
	.byte	0
	.uleb128 Ltmp517-Lfunc_begin84
	.uleb128 Ltmp518-Ltmp517
	.uleb128 Ltmp521-Lfunc_begin84
	.byte	0
	.uleb128 Ltmp522-Lfunc_begin84
	.uleb128 Ltmp523-Ltmp522
	.uleb128 Ltmp537-Lfunc_begin84
	.byte	0
	.uleb128 Ltmp519-Lfunc_begin84
	.uleb128 Ltmp520-Ltmp519
	.uleb128 Ltmp521-Lfunc_begin84
	.byte	0
	.uleb128 Ltmp524-Lfunc_begin84
	.uleb128 Ltmp527-Ltmp524
	.uleb128 Ltmp528-Lfunc_begin84
	.byte	0
	.uleb128 Ltmp529-Lfunc_begin84
	.uleb128 Ltmp534-Ltmp529
	.uleb128 Ltmp537-Lfunc_begin84
	.byte	0
	.uleb128 Ltmp534-Lfunc_begin84
	.uleb128 Ltmp535-Ltmp534
	.byte	0
	.byte	0
	.uleb128 Ltmp535-Lfunc_begin84
	.uleb128 Ltmp536-Ltmp535
	.uleb128 Ltmp537-Lfunc_begin84
	.byte	0
Lcst_end20:
	.p2align	2

	.section	__TEXT,__text,regular,pure_instructions
	.p2align	4, 0x90
__ZN4egui7context7Context4data17h35a28c5489a978eeE:
Lfunc_begin85:
	.loc	34 478 0
	.cfi_startproc
	pushq	%rbp
	.cfi_def_cfa_offset 16
	.cfi_offset %rbp, -16
	movq	%rsp, %rbp
	.cfi_def_cfa_register %rbp
	subq	$16, %rsp
	movq	%rdi, -8(%rbp)
Ltmp585:
	.loc	34 479 31 prologue_end
	callq	__ZN4egui7context7Context5write17hf65a905c70c3be5fE
	movq	%rax, %rdi
	movq	%rdx, %rsi
	.loc	34 479 9 is_stmt 0
	callq	__ZN8lock_api6rwlock35MappedRwLockWriteGuard$LT$R$C$T$GT$3map17h974f2dc56e9c5992E
	.loc	34 480 6 is_stmt 1
	addq	$16, %rsp
	popq	%rbp
	retq
Ltmp586:
Lfunc_end85:
	.cfi_endproc

	.p2align	4, 0x90
__ZN4egui7context7Context5input17h91c802a65fda48afE:
Lfunc_begin86:
	.loc	34 523 0
	.cfi_startproc
	pushq	%rbp
	.cfi_def_cfa_offset 16
	.cfi_offset %rbp, -16
	movq	%rsp, %rbp
	.cfi_def_cfa_register %rbp
	subq	$16, %rsp
	movq	%rdi, -8(%rbp)
Ltmp587:
	.loc	34 524 30 prologue_end
	callq	__ZN4egui7context7Context4read17hca594518ebf559e3E
	movq	%rax, %rdi
	movq	%rdx, %rsi
	.loc	34 524 9 is_stmt 0
	callq	__ZN8lock_api6rwlock34MappedRwLockReadGuard$LT$R$C$T$GT$3map17h9991e1f8752f8148E
	.loc	34 525 6 is_stmt 1
	addq	$16, %rsp
	popq	%rbp
	retq
Ltmp588:
Lfunc_end86:
	.cfi_endproc

	.globl	__ZN50_$LT$$LP$U$C$T$RP$$u20$as$u20$core..fmt..Debug$GT$3fmt17h5b14918087255b50E
	.p2align	4, 0x90
__ZN50_$LT$$LP$U$C$T$RP$$u20$as$u20$core..fmt..Debug$GT$3fmt17h5b14918087255b50E:
Lfunc_begin87:
	.loc	11 2564 0
	.cfi_startproc
	pushq	%rbp
	.cfi_def_cfa_offset 16
	.cfi_offset %rbp, -16
	movq	%rsp, %rbp
	.cfi_def_cfa_register %rbp
	subq	$64, %rsp
	movq	%rdi, -64(%rbp)
	movq	%rdi, -16(%rbp)
	movq	%rsi, -8(%rbp)
Ltmp589:
	.loc	11 2565 39 prologue_end
	leaq	-56(%rbp), %rdi
	leaq	l___unnamed_4(%rip), %rdx
	xorl	%eax, %eax
	movl	%eax, %ecx
	callq	__ZN4core3fmt9Formatter11debug_tuple17h4ded4cadc630b98fE
	movq	-64(%rbp), %rdi
Ltmp590:
	.loc	11 2566 28
	movq	%rdi, -32(%rbp)
	addq	$4, %rdi
	movq	%rdi, -24(%rbp)
Ltmp591:
	.loc	11 2568 25
	leaq	-56(%rbp), %rdi
	leaq	-32(%rbp), %rsi
	leaq	l___unnamed_1(%rip), %rdx
	callq	__ZN4core3fmt8builders10DebugTuple5field17h61e3e4b369fada05E
	leaq	-56(%rbp), %rdi
	leaq	-24(%rbp), %rsi
	leaq	l___unnamed_1(%rip), %rdx
	callq	__ZN4core3fmt8builders10DebugTuple5field17h61e3e4b369fada05E
	.loc	11 2571 21
	leaq	-56(%rbp), %rdi
	callq	__ZN4core3fmt8builders10DebugTuple6finish17h9f18b8701228b16fE
Ltmp592:
	.loc	11 2572 18
	andb	$1, %al
	movzbl	%al, %eax
	addq	$64, %rsp
	popq	%rbp
	retq
Ltmp593:
Lfunc_end87:
	.cfi_endproc

	.globl	__ZN50_$LT$T$u20$as$u20$core..convert..Into$LT$U$GT$$GT$4into17hbde9f94f0236f986E
	.p2align	4, 0x90
__ZN50_$LT$T$u20$as$u20$core..convert..Into$LT$U$GT$$GT$4into17hbde9f94f0236f986E:
Lfunc_begin88:
	.file	36 "/rustc/2c8cc343237b8f7d5a3c3703e3a87f2eb2c54a74/library/core/src/convert" "mod.rs"
	.loc	36 725 0
	.cfi_startproc
	pushq	%rbp
	.cfi_def_cfa_offset 16
	.cfi_offset %rbp, -16
	movq	%rsp, %rbp
	.cfi_def_cfa_register %rbp
	subq	$96, %rsp
	movq	%rdi, -96(%rbp)
	movq	%rdi, -88(%rbp)
Ltmp594:
	.loc	36 726 17 prologue_end
	leaq	-80(%rbp), %rdi
	movl	$40, %edx
	callq	_memcpy
Ltmp595:
	.file	37 "/Users/natalie/.cargo/registry/src/github.com-1ecc6299db9ec823/epaint-0.19.0/src" "image.rs"
	.loc	37 155 21
	leaq	-40(%rbp), %rdi
	leaq	-80(%rbp), %rsi
	movl	$40, %edx
	callq	_memcpy
	movq	-96(%rbp), %rdi
	.loc	37 155 9 is_stmt 0
	leaq	-40(%rbp), %rsi
	callq	__ZN6epaint5image9ImageData5Color17hc7a3d7057d940150E
	movq	-88(%rbp), %rax
Ltmp596:
	.loc	36 727 6 is_stmt 1
	addq	$96, %rsp
	popq	%rbp
	retq
Ltmp597:
Lfunc_end88:
	.cfi_endproc

	.globl	__ZN54_$LT$f32$u20$as$u20$core..iter..traits..accum..Sum$GT$3sum17h5ad137e636e82a0aE
	.p2align	4, 0x90
__ZN54_$LT$f32$u20$as$u20$core..iter..traits..accum..Sum$GT$3sum17h5ad137e636e82a0aE:
Lfunc_begin89:
	.file	38 "/rustc/2c8cc343237b8f7d5a3c3703e3a87f2eb2c54a74/library/core/src/iter/traits" "accum.rs"
	.loc	38 105 0
	.cfi_startproc
	pushq	%rbp
	.cfi_def_cfa_offset 16
	.cfi_offset %rbp, -16
	movq	%rsp, %rbp
	.cfi_def_cfa_register %rbp
	subq	$32, %rsp
Ltmp598:
	.loc	38 106 17 prologue_end
	movq	(%rdi), %rax
	movq	%rax, -32(%rbp)
	movq	8(%rdi), %rax
	movq	%rax, -24(%rbp)
	movq	16(%rdi), %rax
	movq	%rax, -16(%rbp)
	movq	24(%rdi), %rax
	movq	%rax, -8(%rbp)
	leaq	-32(%rbp), %rdi
Ltmp599:
	xorps	%xmm0, %xmm0
	callq	__ZN102_$LT$core..iter..adapters..map..Map$LT$I$C$F$GT$$u20$as$u20$core..iter..traits..iterator..Iterator$GT$4fold17hb969fb706b949029E
	.loc	38 111 14
	addq	$32, %rsp
	popq	%rbp
	retq
Ltmp600:
Lfunc_end89:
	.cfi_endproc

	.globl	__ZN54_$LT$f32$u20$as$u20$core..iter..traits..accum..Sum$GT$3sum28_$u7b$$u7b$closure$u7d$$u7d$17h40a1672e3ccae03cE
	.p2align	4, 0x90
__ZN54_$LT$f32$u20$as$u20$core..iter..traits..accum..Sum$GT$3sum28_$u7b$$u7b$closure$u7d$$u7d$17h40a1672e3ccae03cE:
Lfunc_begin90:
	.loc	38 109 0
	.cfi_startproc
	pushq	%rbp
	.cfi_def_cfa_offset 16
	.cfi_offset %rbp, -16
	movq	%rsp, %rbp
	.cfi_def_cfa_register %rbp
	subq	$16, %rsp
	movq	%rdi, -16(%rbp)
	movss	%xmm0, -8(%rbp)
	movss	%xmm1, -4(%rbp)
Ltmp601:
	.loc	38 109 28 prologue_end
	addss	%xmm1, %xmm0
	.loc	38 109 33 is_stmt 0
	addq	$16, %rsp
	popq	%rbp
	retq
Ltmp602:
Lfunc_end90:
	.cfi_endproc

	.globl	__ZN5alloc3vec12Vec$LT$T$GT$3new17h25a367e7a116895cE
	.p2align	4, 0x90
__ZN5alloc3vec12Vec$LT$T$GT$3new17h25a367e7a116895cE:
Lfunc_begin91:
	.loc	3 424 0 is_stmt 1
	.cfi_startproc
	pushq	%rbp
	.cfi_def_cfa_offset 16
	.cfi_offset %rbp, -16
	movq	%rsp, %rbp
	.cfi_def_cfa_register %rbp
	movq	%rdi, %rax
Ltmp603:
	.loc	3 425 20 prologue_end
	movq	L___unnamed_16(%rip), %rdx
	movq	L___unnamed_16+8(%rip), %rcx
	.loc	3 425 9 is_stmt 0
	movq	%rdx, (%rdi)
	movq	%rcx, 8(%rdi)
	movq	$0, 16(%rdi)
	.loc	3 426 6 is_stmt 1
	popq	%rbp
	retq
Ltmp604:
Lfunc_end91:
	.cfi_endproc

	.globl	__ZN5alloc3vec16Vec$LT$T$C$A$GT$14extend_trusted17h58ff7e02d2aabb6dE
	.p2align	4, 0x90
__ZN5alloc3vec16Vec$LT$T$C$A$GT$14extend_trusted17h58ff7e02d2aabb6dE:
Lfunc_begin92:
	.loc	3 2872 0
	.cfi_startproc
	.cfi_personality 155, _rust_eh_personality
	.cfi_lsda 16, Lexception21
	pushq	%rbp
	.cfi_def_cfa_offset 16
	.cfi_offset %rbp, -16
	movq	%rsp, %rbp
	.cfi_def_cfa_register %rbp
	subq	$336, %rsp
	movq	%rdi, -320(%rbp)
	movq	%rsi, -312(%rbp)
Ltmp616:
	movq	%rdi, -128(%rbp)
Ltmp617:
	.loc	3 2873 27 prologue_end
	movb	$1, -137(%rbp)
Ltmp605:
	leaq	-288(%rbp), %rdi
	callq	__ZN102_$LT$core..iter..adapters..map..Map$LT$I$C$F$GT$$u20$as$u20$core..iter..traits..iterator..Iterator$GT$9size_hint17h9ca43af30fd5ac4eE
Ltmp618:
Ltmp606:
	jmp	LBB92_3
Ltmp619:
LBB92_1:
	.loc	3 2901 5
	testb	$1, -137(%rbp)
	jne	LBB92_12
	jmp	LBB92_11
Ltmp620:
LBB92_2:
Ltmp615:
	.loc	3 0 5 is_stmt 0
	movq	%rax, %rcx
	movl	%edx, %eax
	movq	%rcx, -120(%rbp)
	movl	%eax, -112(%rbp)
	jmp	LBB92_1
Ltmp621:
LBB92_3:
	.loc	3 2873 14 is_stmt 1
	movq	-288(%rbp), %rax
	movq	%rax, -104(%rbp)
	.loc	3 2873 19 is_stmt 0
	movq	-280(%rbp), %rcx
	movq	-272(%rbp), %rax
	movq	%rcx, -304(%rbp)
	movq	%rax, -296(%rbp)
Ltmp622:
	.loc	3 2874 16 is_stmt 1
	cmpq	$1, -304(%rbp)
	jne	LBB92_5
Ltmp623:
	.loc	3 0 16 is_stmt 0
	movq	-320(%rbp), %rdi
	.loc	3 2874 21
	movq	-296(%rbp), %rsi
	movq	%rsi, -96(%rbp)
Ltmp611:
	.loc	3 2881 13 is_stmt 1
	callq	__ZN5alloc3vec16Vec$LT$T$C$A$GT$7reserve17hcd935119c63eb6f4E
Ltmp612:
	jmp	LBB92_8
Ltmp624:
LBB92_5:
Ltmp607:
	.loc	3 2899 13
	leaq	l___unnamed_3(%rip), %rsi
	leaq	l___unnamed_4(%rip), %rcx
	xorl	%eax, %eax
	movl	%eax, %r8d
	leaq	-192(%rbp), %rdi
	movl	$1, %edx
	callq	__ZN4core3fmt9Arguments6new_v117h9b2d11adb3179447E
Ltmp608:
	jmp	LBB92_6
Ltmp625:
LBB92_6:
Ltmp609:
	leaq	l___unnamed_17(%rip), %rsi
	leaq	-192(%rbp), %rdi
	callq	__ZN4core9panicking9panic_fmt17h9b5d807e24bcaaedE
Ltmp610:
	jmp	LBB92_7
Ltmp626:
LBB92_7:
	.loc	3 0 13 is_stmt 0
	ud2
Ltmp627:
LBB92_8:
	movq	-320(%rbp), %rax
Ltmp628:
	.loc	3 2883 27 is_stmt 1
	movq	%rax, -88(%rbp)
Ltmp629:
	.loc	3 1280 19
	movq	%rax, -80(%rbp)
Ltmp630:
	.loc	4 224 9
	movq	8(%rax), %rax
	movq	%rax, -328(%rbp)
	movq	%rax, -72(%rbp)
Ltmp631:
	.file	39 "/rustc/2c8cc343237b8f7d5a3c3703e3a87f2eb2c54a74/library/core/src/ptr" "unique.rs"
	.loc	39 104 9
	movq	%rax, -64(%rbp)
Ltmp632:
	.loc	29 326 9
	movq	%rax, -56(%rbp)
Ltmp633:
	.loc	3 1282 21
	movq	%rax, -48(%rbp)
Ltmp634:
	.file	40 "/rustc/2c8cc343237b8f7d5a3c3703e3a87f2eb2c54a74/library/core/src/ptr" "mut_ptr.rs"
	.loc	40 52 36
	movq	%rax, -136(%rbp)
	.loc	40 52 18 is_stmt 0
	movq	-136(%rbp), %rax
	movq	%rax, -40(%rbp)
Ltmp635:
	.loc	40 38 13 is_stmt 1
	movq	%rax, -32(%rbp)
Ltmp636:
	.loc	40 215 33
	movq	%rax, -24(%rbp)
	.loc	40 215 18 is_stmt 0
	movq	%rax, -16(%rbp)
	movq	-16(%rbp), %rax
Ltmp637:
	.loc	40 0 18
	movq	-328(%rbp), %rax
	movq	-312(%rbp), %rdx
	movq	-320(%rbp), %rcx
Ltmp638:
	.loc	3 2884 55 is_stmt 1
	movq	%rcx, %rsi
	addq	$16, %rsi
	movq	%rsi, -8(%rbp)
Ltmp639:
	.file	41 "/rustc/2c8cc343237b8f7d5a3c3703e3a87f2eb2c54a74/library/alloc/src/vec" "set_len_on_drop.rs"
	.loc	41 14 35
	movq	16(%rcx), %rcx
	.loc	41 14 9 is_stmt 0
	movq	%rsi, -256(%rbp)
	movq	%rcx, -264(%rbp)
Ltmp640:
	.loc	3 2885 17 is_stmt 1
	movb	$0, -137(%rbp)
	movq	24(%rdx), %rcx
	movq	%rcx, -224(%rbp)
	movq	16(%rdx), %rcx
	movq	%rcx, -232(%rbp)
	movq	(%rdx), %rcx
	movq	8(%rdx), %rdx
	movq	%rdx, -240(%rbp)
	movq	%rcx, -248(%rbp)
	.loc	3 2885 35 is_stmt 0
	movq	%rax, -200(%rbp)
	movq	-264(%rbp), %rcx
	movq	-256(%rbp), %rax
	movq	%rcx, -216(%rbp)
	movq	%rax, -208(%rbp)
Ltmp613:
	leaq	-248(%rbp), %rdi
	leaq	-216(%rbp), %rsi
	.loc	3 2885 17
	callq	__ZN4core4iter6traits8iterator8Iterator8for_each17h0609a5ebbd68335eE
Ltmp614:
	jmp	LBB92_10
Ltmp641:
LBB92_10:
	.loc	3 2901 6 is_stmt 1
	addq	$336, %rsp
	popq	%rbp
	retq
Ltmp642:
LBB92_11:
	.loc	3 2872 5
	movq	-120(%rbp), %rdi
	callq	__Unwind_Resume
Ltmp643:
LBB92_12:
	.loc	3 2901 5
	jmp	LBB92_11
Ltmp644:
Lfunc_end92:
	.cfi_endproc
	.section	__TEXT,__gcc_except_tab
	.p2align	2
GCC_except_table92:
Lexception21:
	.byte	255
	.byte	255
	.byte	1
	.uleb128 Lcst_end21-Lcst_begin21
Lcst_begin21:
	.uleb128 Ltmp605-Lfunc_begin92
	.uleb128 Ltmp614-Ltmp605
	.uleb128 Ltmp615-Lfunc_begin92
	.byte	0
	.uleb128 Ltmp614-Lfunc_begin92
	.uleb128 Lfunc_end92-Ltmp614
	.byte	0
	.byte	0
Lcst_end21:
	.p2align	2

	.section	__TEXT,__text,regular,pure_instructions
	.globl	__ZN5alloc3vec16Vec$LT$T$C$A$GT$14extend_trusted28_$u7b$$u7b$closure$u7d$$u7d$17hd568c427e16884a8E
	.p2align	4, 0x90
__ZN5alloc3vec16Vec$LT$T$C$A$GT$14extend_trusted28_$u7b$$u7b$closure$u7d$$u7d$17hd568c427e16884a8E:
Lfunc_begin93:
	.loc	3 2885 0
	.cfi_startproc
	pushq	%rbp
	.cfi_def_cfa_offset 16
	.cfi_offset %rbp, -16
	movq	%rsp, %rbp
	.cfi_def_cfa_register %rbp
	subq	$128, %rsp
	movq	%rdi, -128(%rbp)
	movss	%xmm0, -116(%rbp)
	movq	%rdi, -96(%rbp)
	movss	%xmm0, -84(%rbp)
Ltmp645:
	.loc	3 2886 32 prologue_end
	movq	16(%rdi), %rax
	movq	%rax, -80(%rbp)
	.loc	3 2886 40 is_stmt 0
	movq	%rdi, -72(%rbp)
Ltmp646:
	.loc	41 24 9 is_stmt 1
	movq	(%rdi), %rcx
	movq	%rcx, -64(%rbp)
Ltmp647:
	.loc	40 1034 18
	movq	%rax, -56(%rbp)
	.loc	40 1034 30 is_stmt 0
	movq	%rcx, -48(%rbp)
Ltmp648:
	.loc	40 487 18 is_stmt 1
	shlq	$2, %rcx
	addq	%rcx, %rax
	movq	%rax, -40(%rbp)
	movq	-40(%rbp), %rax
	movq	%rax, -112(%rbp)
	.loc	40 0 18 is_stmt 0
	movq	-128(%rbp), %rax
	movq	-112(%rbp), %rcx
	movss	-116(%rbp), %xmm0
	.loc	40 487 18
	movq	%rcx, -16(%rbp)
Ltmp649:
	.loc	3 2886 66 is_stmt 1
	movss	%xmm0, -100(%rbp)
Ltmp650:
	.loc	15 1354 9
	movl	-100(%rbp), %edx
	movl	%edx, (%rcx)
Ltmp651:
	.loc	3 2890 21
	movq	%rax, -8(%rbp)
Ltmp652:
	.loc	41 19 9
	movq	(%rax), %rcx
	addq	$1, %rcx
	movq	%rcx, (%rax)
Ltmp653:
	.loc	3 2891 18
	addq	$128, %rsp
	popq	%rbp
	retq
Ltmp654:
Lfunc_end93:
	.cfi_endproc

	.globl	__ZN5alloc3vec16Vec$LT$T$C$A$GT$3len17hb5b180391f77ed68E
	.p2align	4, 0x90
__ZN5alloc3vec16Vec$LT$T$C$A$GT$3len17hb5b180391f77ed68E:
Lfunc_begin94:
	.loc	3 2061 0
	.cfi_startproc
	pushq	%rbp
	.cfi_def_cfa_offset 16
	.cfi_offset %rbp, -16
	movq	%rsp, %rbp
	.cfi_def_cfa_register %rbp
	pushq	%rax
	movq	%rdi, -8(%rbp)
Ltmp655:
	.loc	3 2062 9 prologue_end
	movq	16(%rdi), %rax
	.loc	3 2063 6
	addq	$8, %rsp
	popq	%rbp
	retq
Ltmp656:
Lfunc_end94:
	.cfi_endproc

	.globl	__ZN5alloc3vec16Vec$LT$T$C$A$GT$4push17h0b14d4a02aefa65dE
	.p2align	4, 0x90
__ZN5alloc3vec16Vec$LT$T$C$A$GT$4push17h0b14d4a02aefa65dE:
Lfunc_begin95:
	.loc	3 1836 0
	.cfi_startproc
	.cfi_personality 155, _rust_eh_personality
	.cfi_lsda 16, Lexception22
	pushq	%rbp
	.cfi_def_cfa_offset 16
	.cfi_offset %rbp, -16
	movq	%rsp, %rbp
	.cfi_def_cfa_register %rbp
	subq	$240, %rsp
	movq	%rdi, -216(%rbp)
	movq	%rsi, -208(%rbp)
Ltmp660:
	movq	%rdi, -160(%rbp)
Ltmp661:
	.loc	3 1839 12 prologue_end
	movq	16(%rdi), %rax
	movq	%rax, -200(%rbp)
	.loc	3 1839 24 is_stmt 0
	movq	%rdi, -152(%rbp)
Ltmp662:
	.loc	4 232 12 is_stmt 1
	xorl	%eax, %eax
	testb	$1, %al
Ltmp663:
	jne	LBB95_2
Ltmp664:
	.loc	4 0 12 is_stmt 0
	movq	-216(%rbp), %rax
	.loc	4 232 44
	movq	(%rax), %rax
	movq	%rax, -192(%rbp)
	.loc	4 232 9
	jmp	LBB95_3
Ltmp665:
LBB95_2:
	.loc	4 232 24
	movq	$-1, -192(%rbp)
Ltmp666:
LBB95_3:
	.loc	4 0 24
	movq	-200(%rbp), %rax
	.loc	3 1839 12 is_stmt 1
	cmpq	-192(%rbp), %rax
	je	LBB95_5
Ltmp667:
LBB95_4:
	.loc	3 0 12 is_stmt 0
	movq	-216(%rbp), %rax
	.loc	3 1843 23 is_stmt 1
	movq	%rax, -128(%rbp)
Ltmp668:
	.loc	3 1280 19
	movq	%rax, -120(%rbp)
Ltmp669:
	.loc	4 224 9
	movq	8(%rax), %rax
	movq	%rax, -224(%rbp)
	movq	%rax, -112(%rbp)
Ltmp670:
	.loc	39 104 9
	movq	%rax, -104(%rbp)
Ltmp671:
	.loc	29 326 9
	movq	%rax, -96(%rbp)
Ltmp672:
	.loc	3 1282 21
	movq	%rax, -88(%rbp)
Ltmp673:
	.loc	40 52 36
	movq	%rax, -168(%rbp)
	.loc	40 52 18 is_stmt 0
	movq	-168(%rbp), %rax
	movq	%rax, -80(%rbp)
Ltmp674:
	.loc	40 38 13 is_stmt 1
	movq	%rax, -72(%rbp)
Ltmp675:
	.loc	40 215 33
	movq	%rax, -64(%rbp)
	.loc	40 215 18 is_stmt 0
	movq	%rax, -56(%rbp)
	movq	-56(%rbp), %rax
	jmp	LBB95_9
Ltmp676:
LBB95_5:
	.loc	40 0 18
	movq	-216(%rbp), %rdi
	.loc	3 1840 39 is_stmt 1
	movq	16(%rdi), %rsi
Ltmp657:
	.loc	3 1840 13 is_stmt 0
	callq	__ZN5alloc7raw_vec19RawVec$LT$T$C$A$GT$16reserve_for_push17hf4099ed2fbad9ab9E
Ltmp658:
	jmp	LBB95_8
Ltmp677:
LBB95_6:
	.loc	3 1847 5 is_stmt 1
	movb	$1, %al
	testb	$1, %al
	jne	LBB95_12
	jmp	LBB95_11
Ltmp678:
LBB95_7:
Ltmp659:
	.loc	3 0 5 is_stmt 0
	movq	%rax, %rcx
	movl	%edx, %eax
	movq	%rcx, -144(%rbp)
	movl	%eax, -136(%rbp)
	jmp	LBB95_6
Ltmp679:
LBB95_8:
	.loc	3 1839 9 is_stmt 1
	jmp	LBB95_4
Ltmp680:
LBB95_9:
	.loc	3 0 9 is_stmt 0
	movq	-224(%rbp), %rax
	movq	-216(%rbp), %rcx
	.loc	3 1843 45 is_stmt 1
	movq	16(%rcx), %rcx
	movq	%rcx, -48(%rbp)
Ltmp681:
	.loc	40 1034 18
	movq	%rax, -40(%rbp)
	.loc	40 1034 30 is_stmt 0
	movq	%rcx, -32(%rbp)
Ltmp682:
	.loc	40 487 18 is_stmt 1
	shlq	$4, %rcx
	addq	%rcx, %rax
	movq	%rax, -24(%rbp)
	movq	-24(%rbp), %rax
	movq	%rax, -232(%rbp)
Ltmp683:
	.loc	40 0 18 is_stmt 0
	movq	-216(%rbp), %rax
	movq	-232(%rbp), %rcx
	movq	-208(%rbp), %rdx
	.loc	40 487 18
	movq	%rcx, -16(%rbp)
Ltmp684:
	.loc	3 1844 24 is_stmt 1
	movq	%rcx, -8(%rbp)
	.loc	3 1844 29 is_stmt 0
	movq	(%rdx), %rsi
	movq	%rsi, -184(%rbp)
	movq	8(%rdx), %rdx
	movq	%rdx, -176(%rbp)
Ltmp685:
	.loc	15 1354 9 is_stmt 1
	movq	-184(%rbp), %rdx
	movq	%rdx, (%rcx)
	movq	-176(%rbp), %rdx
	movq	%rdx, 8(%rcx)
Ltmp686:
	.loc	3 1845 13
	movq	16(%rax), %rcx
	addq	$1, %rcx
	movq	%rcx, 16(%rax)
Ltmp687:
	.loc	3 1847 6
	addq	$240, %rsp
	popq	%rbp
	retq
Ltmp688:
LBB95_11:
	.loc	3 1836 5
	movq	-144(%rbp), %rdi
	callq	__Unwind_Resume
Ltmp689:
LBB95_12:
	.loc	3 1847 5
	jmp	LBB95_11
Ltmp690:
Lfunc_end95:
	.cfi_endproc
	.section	__TEXT,__gcc_except_tab
	.p2align	2
GCC_except_table95:
Lexception22:
	.byte	255
	.byte	255
	.byte	1
	.uleb128 Lcst_end22-Lcst_begin22
Lcst_begin22:
	.uleb128 Ltmp657-Lfunc_begin95
	.uleb128 Ltmp658-Ltmp657
	.uleb128 Ltmp659-Lfunc_begin95
	.byte	0
	.uleb128 Ltmp658-Lfunc_begin95
	.uleb128 Lfunc_end95-Ltmp658
	.byte	0
	.byte	0
Lcst_end22:
	.p2align	2

	.section	__TEXT,__text,regular,pure_instructions
	.globl	__ZN5alloc3vec16Vec$LT$T$C$A$GT$8is_empty17ha70fdbc872be7461E
	.p2align	4, 0x90
__ZN5alloc3vec16Vec$LT$T$C$A$GT$8is_empty17ha70fdbc872be7461E:
Lfunc_begin96:
	.loc	3 2077 0
	.cfi_startproc
	pushq	%rbp
	.cfi_def_cfa_offset 16
	.cfi_offset %rbp, -16
	movq	%rsp, %rbp
	.cfi_def_cfa_register %rbp
	subq	$16, %rsp
	movq	%rdi, -16(%rbp)
Ltmp691:
	.loc	3 2078 9 prologue_end
	movq	%rdi, -8(%rbp)
	cmpq	$0, 16(%rdi)
	sete	%al
	.loc	3 2079 6
	andb	$1, %al
	movzbl	%al, %eax
	addq	$16, %rsp
	popq	%rbp
	retq
Ltmp692:
Lfunc_end96:
	.cfi_endproc

	.p2align	4, 0x90
__ZN5alloc7raw_vec14handle_reserve17h55691d5db2c53bb3E:
Lfunc_begin97:
	.loc	4 487 0
	.cfi_startproc
	pushq	%rbp
	.cfi_def_cfa_offset 16
	.cfi_offset %rbp, -16
	movq	%rsp, %rbp
	.cfi_def_cfa_register %rbp
	subq	$48, %rsp
	movq	%rdi, -32(%rbp)
	movq	%rsi, -24(%rbp)
Ltmp693:
	.loc	4 488 11 prologue_end
	callq	__ZN4core6result19Result$LT$T$C$E$GT$7map_err17hcc85c8a69a8ee953E
	movq	%rdx, -40(%rbp)
	movq	%rax, -48(%rbp)
	movabsq	$-9223372036854775807, %rdx
	movl	$1, %eax
	xorl	%ecx, %ecx
	cmpq	%rdx, -40(%rbp)
	cmoveq	%rcx, %rax
	.loc	4 488 5 is_stmt 0
	cmpq	$0, %rax
	jne	LBB97_2
	.loc	4 493 2 is_stmt 1
	addq	$48, %rsp
	popq	%rbp
	retq
LBB97_2:
	.loc	4 488 11
	movl	$1, %eax
	xorl	%ecx, %ecx
	cmpq	$0, -40(%rbp)
	cmoveq	%rcx, %rax
	.loc	4 488 5 is_stmt 0
	cmpq	$0, %rax
	jne	LBB97_4
	.loc	4 489 34 is_stmt 1
	callq	__ZN5alloc7raw_vec17capacity_overflow17h082ee8492f253a0eE
LBB97_4:
	.loc	4 490 26
	movq	-48(%rbp), %rdi
	movq	-40(%rbp), %rsi
	movq	%rdi, -16(%rbp)
	movq	%rsi, -8(%rbp)
Ltmp694:
	.loc	4 490 43 is_stmt 0
	callq	__ZN5alloc5alloc18handle_alloc_error17hb5f6ff255f23ea4dE
Ltmp695:
Lfunc_end97:
	.cfi_endproc

	.globl	__ZN5alloc7raw_vec19RawVec$LT$T$C$A$GT$14current_memory17h35ffb96651a2a57fE
	.p2align	4, 0x90
__ZN5alloc7raw_vec19RawVec$LT$T$C$A$GT$14current_memory17h35ffb96651a2a57fE:
Lfunc_begin98:
	.loc	4 240 0 is_stmt 1
	.cfi_startproc
	pushq	%rbp
	.cfi_def_cfa_offset 16
	.cfi_offset %rbp, -16
	movq	%rsp, %rbp
	.cfi_def_cfa_register %rbp
	subq	$176, %rsp
	movq	%rsi, -152(%rbp)
	movq	%rdi, -144(%rbp)
	movq	%rdi, -136(%rbp)
	movq	%rsi, -80(%rbp)
Ltmp696:
	.loc	4 241 12 prologue_end
	xorl	%eax, %eax
	testb	$1, %al
	jne	LBB98_2
	.loc	4 0 12 is_stmt 0
	movq	-152(%rbp), %rax
	.loc	4 241 25
	cmpq	$0, (%rax)
	sete	%al
	.loc	4 241 12
	andb	$1, %al
	movb	%al, -121(%rbp)
	jmp	LBB98_3
LBB98_2:
	movb	$1, -121(%rbp)
LBB98_3:
	testb	$1, -121(%rbp)
	jne	LBB98_5
	.loc	4 0 12
	movq	-152(%rbp), %rax
	.loc	4 247 49 is_stmt 1
	movq	(%rax), %rdx
	movq	%rdx, -72(%rbp)
Ltmp697:
	.loc	14 459 5
	movq	$4, -64(%rbp)
Ltmp698:
	.loc	24 89 18
	movq	$4, -56(%rbp)
	movq	-56(%rbp), %rsi
Ltmp699:
	.loc	23 438 16
	movl	$16, %edi
	callq	__ZN4core5alloc6layout6Layout5array5inner17h4c27b296a046f729E
	movq	%rax, %rdi
	movq	%rdx, %rsi
Ltmp700:
	.loc	4 247 30
	leaq	l___unnamed_18(%rip), %rdx
	callq	__ZN4core6result19Result$LT$T$C$E$GT$16unwrap_unchecked17h4fb7dcdb65ec32d9E
	movq	%rax, %rcx
	movq	-152(%rbp), %rax
	movq	%rcx, -168(%rbp)
	movq	%rdx, -160(%rbp)
	movq	%rcx, -48(%rbp)
	movq	%rdx, -40(%rbp)
Ltmp701:
	.loc	4 248 23
	movq	8(%rax), %rax
	movq	%rax, -32(%rbp)
Ltmp702:
	.loc	39 137 22
	movq	%rax, -24(%rbp)
Ltmp703:
	.loc	29 450 41
	movq	%rax, -16(%rbp)
	movq	%rax, -8(%rbp)
Ltmp704:
	.loc	29 201 13
	movq	%rax, -88(%rbp)
Ltmp705:
	.loc	39 191 18
	movq	-88(%rbp), %rax
	.loc	39 191 9 is_stmt 0
	movq	%rax, -96(%rbp)
Ltmp706:
	.loc	4 248 23 is_stmt 1
	movq	-96(%rbp), %rdi
	callq	__ZN50_$LT$T$u20$as$u20$core..convert..Into$LT$U$GT$$GT$4into17hbfed0220a720c470E
	movq	-168(%rbp), %rcx
	movq	-160(%rbp), %rdx
	movq	%rax, %rsi
	movq	-144(%rbp), %rax
	.loc	4 248 22 is_stmt 0
	movq	%rsi, -120(%rbp)
	movq	%rcx, -112(%rbp)
	movq	%rdx, -104(%rbp)
	.loc	4 248 17
	movq	-120(%rbp), %rcx
	movq	%rcx, (%rax)
	movq	-112(%rbp), %rcx
	movq	%rcx, 8(%rax)
	movq	-104(%rbp), %rcx
	movq	%rcx, 16(%rax)
Ltmp707:
	.loc	4 241 9 is_stmt 1
	jmp	LBB98_6
LBB98_5:
	.loc	4 0 9 is_stmt 0
	movq	-144(%rbp), %rax
	.loc	4 242 13 is_stmt 1
	movq	$0, 16(%rax)
LBB98_6:
	.loc	4 0 13 is_stmt 0
	movq	-136(%rbp), %rax
	.loc	4 251 6 is_stmt 1
	addq	$176, %rsp
	popq	%rbp
	retq
Ltmp708:
Lfunc_end98:
	.cfi_endproc

	.globl	__ZN5alloc7raw_vec19RawVec$LT$T$C$A$GT$14grow_amortized17hf1a8c694ae5ce3e7E
	.p2align	4, 0x90
__ZN5alloc7raw_vec19RawVec$LT$T$C$A$GT$14grow_amortized17hf1a8c694ae5ce3e7E:
Lfunc_begin99:
	.loc	4 379 0
	.cfi_startproc
	pushq	%rbp
	.cfi_def_cfa_offset 16
	.cfi_offset %rbp, -16
	movq	%rsp, %rbp
	.cfi_def_cfa_register %rbp
	subq	$656, %rsp
	movq	%rdi, -624(%rbp)
	movq	%rsi, -616(%rbp)
	movq	%rdx, -608(%rbp)
	movq	%rdi, -352(%rbp)
	movq	%rsi, -344(%rbp)
	movq	%rdx, -336(%rbp)
Ltmp709:
	.loc	4 383 12 prologue_end
	xorl	%eax, %eax
	testb	$1, %al
	jne	LBB99_2
	.loc	4 0 12 is_stmt 0
	movq	-608(%rbp), %rsi
	movq	-616(%rbp), %rdi
	.loc	4 390 28 is_stmt 1
	callq	__ZN4core3num23_$LT$impl$u20$usize$GT$11checked_add17hd659a694d90ef8c4E
	movq	%rdx, -528(%rbp)
	movq	%rax, -536(%rbp)
	.loc	4 390 62 is_stmt 0
	movq	$0, -512(%rbp)
Ltmp710:
	.loc	9 1096 9 is_stmt 1
	cmpq	$0, -536(%rbp)
	je	LBB99_4
	jmp	LBB99_5
Ltmp711:
LBB99_2:
	.loc	4 386 24
	movq	$0, -576(%rbp)
	movq	-584(%rbp), %rdi
	movq	-576(%rbp), %rsi
	callq	__ZN50_$LT$T$u20$as$u20$core..convert..Into$LT$U$GT$$GT$4into17h276f0578ad68406bE
	.loc	4 386 20 is_stmt 0
	movq	%rax, -600(%rbp)
	movq	%rdx, -592(%rbp)
LBB99_3:
	.loc	4 403 6 is_stmt 1
	movq	-600(%rbp), %rax
	movq	-592(%rbp), %rdx
	addq	$656, %rsp
	popq	%rbp
	retq
LBB99_4:
Ltmp712:
	.loc	9 1098 25
	movq	-520(%rbp), %rcx
	movq	-512(%rbp), %rax
	.loc	9 1098 21 is_stmt 0
	movq	%rcx, -552(%rbp)
	movq	%rax, -544(%rbp)
	.loc	9 1098 28
	jmp	LBB99_6
LBB99_5:
	.loc	9 1097 18 is_stmt 1
	movq	-528(%rbp), %rax
	movq	%rax, -328(%rbp)
Ltmp713:
	.loc	9 1097 24 is_stmt 0
	movq	%rax, -552(%rbp)
	movabsq	$-9223372036854775807, %rax
	movq	%rax, -544(%rbp)
Ltmp714:
LBB99_6:
	.loc	10 2091 15 is_stmt 1
	movabsq	$-9223372036854775807, %rdx
	movl	$1, %eax
	xorl	%ecx, %ecx
	cmpq	%rdx, -544(%rbp)
	cmoveq	%rcx, %rax
	.loc	10 2091 9 is_stmt 0
	cmpq	$0, %rax
	jne	LBB99_8
	.loc	10 2092 16 is_stmt 1
	movq	-552(%rbp), %rax
	movq	%rax, -304(%rbp)
Ltmp715:
	.loc	10 2092 22 is_stmt 0
	movq	%rax, -568(%rbp)
	movabsq	$-9223372036854775807, %rax
	movq	%rax, -560(%rbp)
Ltmp716:
	.loc	10 2092 45
	jmp	LBB99_9
LBB99_8:
	.loc	10 2093 17 is_stmt 1
	movq	-552(%rbp), %rcx
	movq	-544(%rbp), %rax
	movq	%rcx, -320(%rbp)
	movq	%rax, -312(%rbp)
Ltmp717:
	.loc	10 2093 42 is_stmt 0
	movq	%rcx, -400(%rbp)
	movq	%rax, -392(%rbp)
	.loc	10 2093 23
	movq	-400(%rbp), %rcx
	movq	-392(%rbp), %rax
	movq	%rcx, -568(%rbp)
	movq	%rax, -560(%rbp)
Ltmp718:
LBB99_9:
	.loc	4 390 28 is_stmt 1
	movabsq	$-9223372036854775807, %rdx
	movl	$1, %eax
	xorl	%ecx, %ecx
	cmpq	%rdx, -560(%rbp)
	cmoveq	%rcx, %rax
	cmpq	$0, %rax
	jne	LBB99_11
	.loc	4 0 28 is_stmt 0
	movq	-624(%rbp), %rax
	.loc	4 390 28
	movq	-568(%rbp), %rsi
	movq	%rsi, -248(%rbp)
Ltmp719:
	.loc	4 390 28
	movq	%rsi, -240(%rbp)
Ltmp720:
	.loc	4 394 28 is_stmt 1
	movq	(%rax), %rdi
	shlq	$1, %rdi
	movq	%rdi, -232(%rbp)
	.loc	4 394 42 is_stmt 0
	movq	%rsi, -224(%rbp)
Ltmp721:
	.file	42 "/rustc/2c8cc343237b8f7d5a3c3703e3a87f2eb2c54a74/library/core/src" "cmp.rs"
	.loc	42 1276 5 is_stmt 1
	movq	%rdi, -216(%rbp)
	.loc	42 1276 12 is_stmt 0
	movq	%rsi, -208(%rbp)
Ltmp722:
	.loc	42 803 13 is_stmt 1
	callq	__ZN4core3cmp6max_by17hb70c5b8946bbfe9fE
	movq	%rax, %rsi
	movq	%rsi, -200(%rbp)
Ltmp723:
	.loc	4 395 52
	movq	%rsi, -192(%rbp)
	.loc	4 395 19 is_stmt 0
	movq	$4, -184(%rbp)
Ltmp724:
	.loc	42 1276 5 is_stmt 1
	movq	$4, -176(%rbp)
	.loc	42 1276 12 is_stmt 0
	movq	%rsi, -168(%rbp)
Ltmp725:
	.loc	42 803 13 is_stmt 1
	movl	$4, %edi
	callq	__ZN4core3cmp6max_by17hb70c5b8946bbfe9fE
	movq	%rax, %rdx
	movq	%rdx, -648(%rbp)
	movq	%rdx, -160(%rbp)
Ltmp726:
	.loc	4 397 45
	movq	%rdx, -152(%rbp)
Ltmp727:
	.loc	14 459 5
	movq	$4, -144(%rbp)
Ltmp728:
	.loc	24 89 18
	movq	$4, -136(%rbp)
	movq	-136(%rbp), %rsi
Ltmp729:
	.loc	23 438 16
	movl	$16, %edi
	callq	__ZN4core5alloc6layout6Layout5array5inner17h4c27b296a046f729E
	movq	-624(%rbp), %rsi
	movq	%rax, -640(%rbp)
	movq	%rdx, -632(%rbp)
	movq	%rax, -128(%rbp)
	movq	%rdx, -120(%rbp)
Ltmp730:
	.loc	4 400 43
	leaq	-440(%rbp), %rdi
	callq	__ZN5alloc7raw_vec19RawVec$LT$T$C$A$GT$14current_memory17h35ffb96651a2a57fE
	movq	-640(%rbp), %rsi
	movq	-632(%rbp), %rdx
	movq	-624(%rbp), %r8
	.loc	4 400 19 is_stmt 0
	leaq	-464(%rbp), %rdi
	leaq	-440(%rbp), %rcx
	callq	__ZN5alloc7raw_vec11finish_grow17h4863bce43e4a13e4E
Ltmp731:
	.loc	10 2091 9 is_stmt 1
	cmpq	$0, -464(%rbp)
	je	LBB99_13
	jmp	LBB99_14
Ltmp732:
LBB99_11:
	.loc	4 390 79
	movq	-568(%rbp), %rcx
	movq	-560(%rbp), %rax
	movq	%rcx, -296(%rbp)
	movq	%rax, -288(%rbp)
Ltmp733:
	.loc	4 390 79 is_stmt 0
	movq	%rcx, -504(%rbp)
	movq	%rax, -496(%rbp)
Ltmp734:
	.loc	10 2107 17 is_stmt 1
	movq	-504(%rbp), %rcx
	movq	-496(%rbp), %rax
	movq	%rcx, -280(%rbp)
	movq	%rax, -272(%rbp)
Ltmp735:
	.loc	10 2107 38 is_stmt 0
	movq	%rcx, -264(%rbp)
	movq	%rax, -256(%rbp)
Ltmp736:
	.file	43 "/rustc/2c8cc343237b8f7d5a3c3703e3a87f2eb2c54a74/library/alloc/src/collections" "mod.rs"
	.loc	43 117 9 is_stmt 1
	movq	%rcx, -384(%rbp)
	movq	%rax, -376(%rbp)
Ltmp737:
	.loc	10 2107 23
	movq	-384(%rbp), %rcx
	movq	-376(%rbp), %rax
	movq	%rcx, -600(%rbp)
	movq	%rax, -592(%rbp)
Ltmp738:
LBB99_12:
	.file	44 "/Users/natalie/.cargo/registry/src/github.com-1ecc6299db9ec823/egui_extras-0.19.0" "src/lib.rs"
	.loc	44 1 1
	jmp	LBB99_3
LBB99_13:
Ltmp739:
	.loc	10 2092 16
	movq	-456(%rbp), %rcx
	movq	-448(%rbp), %rax
	movq	%rcx, -96(%rbp)
	movq	%rax, -88(%rbp)
Ltmp740:
	.loc	10 2092 22 is_stmt 0
	movq	%rcx, -480(%rbp)
	movq	%rax, -472(%rbp)
	movq	$0, -488(%rbp)
Ltmp741:
	.loc	10 2092 45
	jmp	LBB99_15
LBB99_14:
	.loc	10 2093 17 is_stmt 1
	movq	-456(%rbp), %rcx
	movq	-448(%rbp), %rax
	movq	%rcx, -112(%rbp)
	movq	%rax, -104(%rbp)
Ltmp742:
	.loc	10 2093 42 is_stmt 0
	movq	%rcx, -368(%rbp)
	movq	%rax, -360(%rbp)
	.loc	10 2093 23
	movq	-368(%rbp), %rcx
	movq	-360(%rbp), %rax
	movq	%rcx, -480(%rbp)
	movq	%rax, -472(%rbp)
	movq	$1, -488(%rbp)
Ltmp743:
LBB99_15:
	.loc	4 400 19 is_stmt 1
	cmpq	$0, -488(%rbp)
	jne	LBB99_17
	.loc	4 0 19 is_stmt 0
	movq	-648(%rbp), %rcx
	movq	-624(%rbp), %rdi
	.loc	4 400 19
	movq	-480(%rbp), %rsi
	movq	-472(%rbp), %rdx
	movq	%rsi, -32(%rbp)
	movq	%rdx, -24(%rbp)
Ltmp744:
	.loc	4 400 19
	movq	%rsi, -16(%rbp)
	movq	%rdx, -8(%rbp)
Ltmp745:
	.loc	4 401 9 is_stmt 1
	callq	__ZN5alloc7raw_vec19RawVec$LT$T$C$A$GT$15set_ptr_and_cap17hd12c37ff22a78c9fE
	.loc	4 402 9
	movabsq	$-9223372036854775807, %rax
	movq	%rax, -592(%rbp)
Ltmp746:
	.loc	4 403 6
	jmp	LBB99_3
LBB99_17:
Ltmp747:
	.loc	4 400 82
	movq	-480(%rbp), %rcx
	movq	-472(%rbp), %rax
	movq	%rcx, -80(%rbp)
	movq	%rax, -72(%rbp)
Ltmp748:
	.loc	4 400 82 is_stmt 0
	movq	%rcx, -416(%rbp)
	movq	%rax, -408(%rbp)
Ltmp749:
	.loc	10 2107 17 is_stmt 1
	movq	-416(%rbp), %rcx
	movq	-408(%rbp), %rax
	movq	%rcx, -64(%rbp)
	movq	%rax, -56(%rbp)
Ltmp750:
	.loc	10 2107 38 is_stmt 0
	movq	%rcx, -48(%rbp)
	movq	%rax, -40(%rbp)
	.loc	10 2107 23
	movq	%rcx, -600(%rbp)
	movq	%rax, -592(%rbp)
Ltmp751:
	.loc	44 1 1 is_stmt 1
	jmp	LBB99_12
Ltmp752:
Lfunc_end99:
	.cfi_endproc

	.globl	__ZN5alloc7raw_vec19RawVec$LT$T$C$A$GT$15set_ptr_and_cap17hd12c37ff22a78c9fE
	.p2align	4, 0x90
__ZN5alloc7raw_vec19RawVec$LT$T$C$A$GT$15set_ptr_and_cap17hd12c37ff22a78c9fE:
Lfunc_begin100:
	.loc	4 364 0
	.cfi_startproc
	pushq	%rbp
	.cfi_def_cfa_offset 16
	.cfi_offset %rbp, -16
	movq	%rsp, %rbp
	.cfi_def_cfa_register %rbp
	subq	$112, %rsp
	movq	%rdi, -88(%rbp)
	movq	%rsi, -80(%rbp)
	movq	%rdx, -72(%rbp)
	movq	%rcx, -64(%rbp)
Ltmp753:
	.loc	4 368 51 prologue_end
	movq	%rsi, -56(%rbp)
	movq	%rdx, -48(%rbp)
Ltmp754:
	.loc	29 450 41
	movq	%rsi, -40(%rbp)
	movq	%rdx, -32(%rbp)
	movq	%rsi, -24(%rbp)
Ltmp755:
	.loc	29 201 13
	movq	%rsi, -104(%rbp)
Ltmp756:
	.loc	29 326 9
	movq	-104(%rbp), %rax
	movq	%rax, -16(%rbp)
Ltmp757:
	.loc	39 87 59
	movq	%rax, -8(%rbp)
Ltmp758:
	.loc	29 201 13
	movq	%rax, -96(%rbp)
Ltmp759:
	.loc	39 87 18
	movq	-96(%rbp), %rax
	movq	%rax, -112(%rbp)
Ltmp760:
	.loc	4 368 9
	movq	-112(%rbp), %rax
	movq	%rax, 8(%rdi)
	.loc	4 369 9
	movq	%rcx, (%rdi)
	.loc	4 370 6
	addq	$112, %rsp
	popq	%rbp
	retq
Ltmp761:
Lfunc_end100:
	.cfi_endproc

	.globl	__ZN5alloc7raw_vec19RawVec$LT$T$C$A$GT$16reserve_for_push17hf4099ed2fbad9ab9E
	.p2align	4, 0x90
__ZN5alloc7raw_vec19RawVec$LT$T$C$A$GT$16reserve_for_push17hf4099ed2fbad9ab9E:
Lfunc_begin101:
	.loc	4 297 0
	.cfi_startproc
	pushq	%rbp
	.cfi_def_cfa_offset 16
	.cfi_offset %rbp, -16
	movq	%rsp, %rbp
	.cfi_def_cfa_register %rbp
	subq	$16, %rsp
	movq	%rdi, -16(%rbp)
	movq	%rsi, -8(%rbp)
Ltmp762:
	.loc	4 298 24 prologue_end
	movl	$1, %edx
	callq	__ZN5alloc7raw_vec19RawVec$LT$T$C$A$GT$14grow_amortized17hf1a8c694ae5ce3e7E
	movq	%rax, %rdi
	movq	%rdx, %rsi
	.loc	4 298 9 is_stmt 0
	callq	__ZN5alloc7raw_vec14handle_reserve17h55691d5db2c53bb3E
	.loc	4 299 6 is_stmt 1
	addq	$16, %rsp
	popq	%rbp
	retq
Ltmp763:
Lfunc_end101:
	.cfi_endproc

	.p2align	4, 0x90
__ZN5emath4rect4Rect12from_two_pos17hc4a37d6257e08c6aE:
Lfunc_begin102:
	.file	45 "/Users/natalie/.cargo/registry/src/github.com-1ecc6299db9ec823/emath-0.19.0/src" "rect.rs"
	.loc	45 94 0
	.cfi_startproc
	pushq	%rbp
	.cfi_def_cfa_offset 16
	.cfi_offset %rbp, -16
	movq	%rsp, %rbp
	.cfi_def_cfa_register %rbp
	subq	$96, %rsp
	movss	%xmm3, -84(%rbp)
	movss	%xmm2, -92(%rbp)
	movaps	%xmm1, %xmm2
	movss	-92(%rbp), %xmm1
	movss	%xmm2, -80(%rbp)
	movss	%xmm0, -88(%rbp)
	movq	%rdi, -64(%rbp)
	movq	%rdi, -56(%rbp)
	movss	%xmm0, -48(%rbp)
	movss	%xmm2, -44(%rbp)
	movss	%xmm1, -40(%rbp)
	movss	%xmm3, -36(%rbp)
Ltmp764:
	.loc	45 96 23 prologue_end
	callq	__ZN4core3f3221_$LT$impl$u20$f32$GT$3min17h7100491f2acdc4c7E
	movss	-84(%rbp), %xmm1
	movaps	%xmm0, %xmm2
	movss	-80(%rbp), %xmm0
	movss	%xmm2, -96(%rbp)
	.loc	45 96 37 is_stmt 0
	callq	__ZN4core3f3221_$LT$impl$u20$f32$GT$3min17h7100491f2acdc4c7E
	movss	-96(%rbp), %xmm3
	movss	-92(%rbp), %xmm1
	movaps	%xmm0, %xmm2
	movss	-88(%rbp), %xmm0
	movss	%xmm3, -8(%rbp)
	movss	%xmm2, -4(%rbp)
Ltmp765:
	.file	46 "/Users/natalie/.cargo/registry/src/github.com-1ecc6299db9ec823/emath-0.19.0/src" "pos2.rs"
	.loc	46 26 5 is_stmt 1
	movss	%xmm3, -16(%rbp)
	movss	%xmm2, -12(%rbp)
	.loc	46 27 2
	movss	-16(%rbp), %xmm2
	movss	%xmm2, -72(%rbp)
	movss	-12(%rbp), %xmm2
	movss	%xmm2, -68(%rbp)
Ltmp766:
	.loc	45 97 23
	callq	__ZN4core3f3221_$LT$impl$u20$f32$GT$3max17h76729126d51812c6E
	movss	-84(%rbp), %xmm1
	movaps	%xmm0, %xmm2
	movss	-80(%rbp), %xmm0
	movss	%xmm2, -76(%rbp)
	.loc	45 97 37 is_stmt 0
	callq	__ZN4core3f3221_$LT$impl$u20$f32$GT$3max17h76729126d51812c6E
	movss	-76(%rbp), %xmm1
	movss	-72(%rbp), %xmm3
	movss	-68(%rbp), %xmm2
	movq	-64(%rbp), %rdi
	movq	-56(%rbp), %rax
	movss	%xmm1, -24(%rbp)
	movss	%xmm0, -20(%rbp)
Ltmp767:
	.loc	46 26 5 is_stmt 1
	movss	%xmm1, -32(%rbp)
	movss	%xmm0, -28(%rbp)
	.loc	46 27 2
	movss	-32(%rbp), %xmm1
	movss	-28(%rbp), %xmm0
Ltmp768:
	.loc	45 95 9
	movss	%xmm3, (%rdi)
	movss	%xmm2, 4(%rdi)
	movss	%xmm1, 8(%rdi)
	movss	%xmm0, 12(%rdi)
	.loc	45 99 6
	addq	$96, %rsp
	popq	%rbp
	retq
Ltmp769:
Lfunc_end102:
	.cfi_endproc

	.p2align	4, 0x90
__ZN60_$LT$f32$u20$as$u20$core..ops..arith..Add$LT$$RF$f32$GT$$GT$3add17h13ef49b63b3948f7E:
Lfunc_begin103:
	.file	47 "/rustc/2c8cc343237b8f7d5a3c3703e3a87f2eb2c54a74/library/core/src" "internal_macros.rs"
	.loc	47 60 0
	.cfi_startproc
	pushq	%rbp
	.cfi_def_cfa_offset 16
	.cfi_offset %rbp, -16
	movq	%rsp, %rbp
	.cfi_def_cfa_register %rbp
	subq	$24, %rsp
	movss	%xmm0, -20(%rbp)
	movq	%rdi, -16(%rbp)
Ltmp770:
	.loc	47 61 31 prologue_end
	movss	%xmm0, -8(%rbp)
	.loc	47 61 37 is_stmt 0
	movss	(%rdi), %xmm1
	movss	%xmm1, -4(%rbp)
Ltmp771:
	.file	48 "/rustc/2c8cc343237b8f7d5a3c3703e3a87f2eb2c54a74/library/core/src/ops" "arith.rs"
	.loc	48 103 45 is_stmt 1
	addss	%xmm1, %xmm0
Ltmp772:
	.loc	47 62 14
	addq	$24, %rsp
	popq	%rbp
	retq
Ltmp773:
Lfunc_end103:
	.cfi_endproc

	.globl	__ZN63_$LT$I$u20$as$u20$core..iter..traits..collect..IntoIterator$GT$9into_iter17h05c866e4ee3f8e54E
	.p2align	4, 0x90
__ZN63_$LT$I$u20$as$u20$core..iter..traits..collect..IntoIterator$GT$9into_iter17h05c866e4ee3f8e54E:
Lfunc_begin104:
	.file	49 "/rustc/2c8cc343237b8f7d5a3c3703e3a87f2eb2c54a74/library/core/src/iter/traits" "collect.rs"
	.loc	49 272 0
	.cfi_startproc
	pushq	%rbp
	.cfi_def_cfa_offset 16
	.cfi_offset %rbp, -16
	movq	%rsp, %rbp
	.cfi_def_cfa_register %rbp
	movq	%rdi, %rax
Ltmp774:
	.loc	49 273 9 prologue_end
	movq	(%rsi), %rcx
	movq	%rcx, (%rdi)
	movq	8(%rsi), %rcx
	movq	%rcx, 8(%rdi)
	movq	16(%rsi), %rcx
	movq	%rcx, 16(%rdi)
	movq	24(%rsi), %rcx
	movq	%rcx, 24(%rdi)
	.loc	49 274 6
	popq	%rbp
	retq
Ltmp775:
Lfunc_end104:
	.cfi_endproc

	.p2align	4, 0x90
__ZN63_$LT$alloc..alloc..Global$u20$as$u20$core..alloc..Allocator$GT$10deallocate17h54e7c2ab9ab7b23aE:
Lfunc_begin105:
	.file	50 "/rustc/2c8cc343237b8f7d5a3c3703e3a87f2eb2c54a74/library/alloc/src" "alloc.rs"
	.loc	50 246 0
	.cfi_startproc
	pushq	%rbp
	.cfi_def_cfa_offset 16
	.cfi_offset %rbp, -16
	movq	%rsp, %rbp
	.cfi_def_cfa_register %rbp
	subq	$112, %rsp
	movq	%rsi, -112(%rbp)
	movq	%rdx, -104(%rbp)
	movq	%rcx, -96(%rbp)
	movq	%rdi, -64(%rbp)
	movq	%rsi, -56(%rbp)
Ltmp776:
	.loc	50 247 12 prologue_end
	leaq	-104(%rbp), %rax
	movq	%rax, -48(%rbp)
	cmpq	$0, -104(%rbp)
	jne	LBB105_2
	.loc	50 247 9 is_stmt 0
	jmp	LBB105_3
LBB105_2:
	.loc	50 0 9
	movq	-112(%rbp), %rdi
	.loc	50 250 30 is_stmt 1
	movq	%rdi, -40(%rbp)
Ltmp777:
	.loc	29 326 9
	movq	%rdi, -32(%rbp)
Ltmp778:
	.loc	50 250 44
	movq	-104(%rbp), %rcx
	movq	-96(%rbp), %rax
	movq	%rcx, -88(%rbp)
	movq	%rax, -80(%rbp)
Ltmp779:
	.loc	50 113 34
	leaq	-88(%rbp), %rax
	movq	%rax, -24(%rbp)
Ltmp780:
	.loc	23 129 9
	movq	-88(%rbp), %rsi
Ltmp781:
	.loc	50 113 49
	leaq	-88(%rbp), %rax
	movq	%rax, -16(%rbp)
Ltmp782:
	.loc	23 140 9
	movq	-80(%rbp), %rax
	movq	%rax, -8(%rbp)
Ltmp783:
	.loc	24 97 9
	movq	%rax, -72(%rbp)
	movq	-72(%rbp), %rdx
Ltmp784:
	.loc	50 113 14
	callq	___rust_dealloc
Ltmp785:
LBB105_3:
	.loc	50 252 6
	addq	$112, %rsp
	popq	%rbp
	retq
Ltmp786:
Lfunc_end105:
	.cfi_endproc

	.p2align	4, 0x90
__ZN65_$LT$alloc..string..String$u20$as$u20$core..ops..deref..Deref$GT$5deref17hbdba0b9d4f58e656E:
Lfunc_begin106:
	.file	51 "/rustc/2c8cc343237b8f7d5a3c3703e3a87f2eb2c54a74/library/alloc/src" "string.rs"
	.loc	51 2459 0
	.cfi_startproc
	pushq	%rbp
	.cfi_def_cfa_offset 16
	.cfi_offset %rbp, -16
	movq	%rsp, %rbp
	.cfi_def_cfa_register %rbp
	subq	$48, %rsp
	movq	%rdi, -40(%rbp)
Ltmp787:
	.loc	51 2460 43 prologue_end
	callq	__ZN72_$LT$alloc..vec..Vec$LT$T$C$A$GT$$u20$as$u20$core..ops..deref..Deref$GT$5deref17h1a21c0ee10ca1c98E
	movq	%rax, -32(%rbp)
	movq	%rdx, -24(%rbp)
Ltmp788:
	.file	52 "/rustc/2c8cc343237b8f7d5a3c3703e3a87f2eb2c54a74/library/core/src/str" "converts.rs"
	.loc	52 173 14
	movq	%rax, -16(%rbp)
	movq	%rdx, -8(%rbp)
	movq	-16(%rbp), %rax
	movq	-8(%rbp), %rdx
Ltmp789:
	.loc	51 2461 6
	addq	$48, %rsp
	popq	%rbp
	retq
Ltmp790:
Lfunc_end106:
	.cfi_endproc

	.globl	__ZN67_$LT$alloc..vec..Vec$LT$T$GT$$u20$as$u20$core..default..Default$GT$7default17h08e1637581b40403E
	.p2align	4, 0x90
__ZN67_$LT$alloc..vec..Vec$LT$T$GT$$u20$as$u20$core..default..Default$GT$7default17h08e1637581b40403E:
Lfunc_begin107:
	.loc	3 3071 0
	.cfi_startproc
	pushq	%rbp
	.cfi_def_cfa_offset 16
	.cfi_offset %rbp, -16
	movq	%rsp, %rbp
	.cfi_def_cfa_register %rbp
	movq	%rdi, %rax
Ltmp791:
	.loc	3 425 20 prologue_end
	movq	L___unnamed_19(%rip), %rdx
	movq	L___unnamed_19+8(%rip), %rcx
	.loc	3 425 9 is_stmt 0
	movq	%rdx, (%rdi)
	movq	%rcx, 8(%rdi)
	movq	$0, 16(%rdi)
Ltmp792:
	.loc	3 3073 6 is_stmt 1
	popq	%rbp
	retq
Ltmp793:
Lfunc_end107:
	.cfi_endproc

	.globl	__ZN67_$LT$alloc..vec..Vec$LT$T$GT$$u20$as$u20$core..default..Default$GT$7default17heee520b365e8f557E
	.p2align	4, 0x90
__ZN67_$LT$alloc..vec..Vec$LT$T$GT$$u20$as$u20$core..default..Default$GT$7default17heee520b365e8f557E:
Lfunc_begin108:
	.loc	3 3071 0
	.cfi_startproc
	pushq	%rbp
	.cfi_def_cfa_offset 16
	.cfi_offset %rbp, -16
	movq	%rsp, %rbp
	.cfi_def_cfa_register %rbp
	movq	%rdi, %rax
Ltmp794:
	.loc	3 425 20 prologue_end
	movq	L___unnamed_16(%rip), %rdx
	movq	L___unnamed_16+8(%rip), %rcx
	.loc	3 425 9 is_stmt 0
	movq	%rdx, (%rdi)
	movq	%rcx, 8(%rdi)
	movq	$0, 16(%rdi)
Ltmp795:
	.loc	3 3073 6 is_stmt 1
	popq	%rbp
	retq
Ltmp796:
Lfunc_end108:
	.cfi_endproc

	.p2align	4, 0x90
__ZN68_$LT$epaint..image..ColorImage$u20$as$u20$core..default..Default$GT$7default17h9f074b4fdd3156d0E:
Lfunc_begin109:
	.loc	37 46 0
	.cfi_startproc
	pushq	%rbp
	.cfi_def_cfa_offset 16
	.cfi_offset %rbp, -16
	movq	%rsp, %rbp
	.cfi_def_cfa_register %rbp
	subq	$64, %rsp
	movq	%rdi, -56(%rbp)
	movq	%rdi, -48(%rbp)
Ltmp797:
	.loc	37 50 5 prologue_end
	leaq	-40(%rbp), %rdi
	callq	__ZN4core5array75_$LT$impl$u20$core..default..Default$u20$for$u20$$u5b$T$u3b$$u20$_$u5d$$GT$7default17h3060e2a72663dd0bE
	.loc	37 53 5
	leaq	-24(%rbp), %rdi
	callq	__ZN67_$LT$alloc..vec..Vec$LT$T$GT$$u20$as$u20$core..default..Default$GT$7default17h08e1637581b40403E
	movq	-56(%rbp), %rdi
	movq	-48(%rbp), %rax
	.loc	37 46 17
	movq	-40(%rbp), %rcx
	movq	%rcx, (%rdi)
	movq	-32(%rbp), %rcx
	movq	%rcx, 8(%rdi)
	movq	-24(%rbp), %rcx
	movq	%rcx, 16(%rdi)
	movq	-16(%rbp), %rcx
	movq	%rcx, 24(%rdi)
	movq	-8(%rbp), %rcx
	movq	%rcx, 32(%rdi)
	.loc	37 46 24 is_stmt 0
	addq	$64, %rsp
	popq	%rbp
	retq
Ltmp798:
Lfunc_end109:
	.cfi_endproc

	.p2align	4, 0x90
__ZN6epaint14texture_handle13TextureHandle2id17h6467a2641aaa1b94E:
Lfunc_begin110:
	.file	53 "/Users/natalie/.cargo/registry/src/github.com-1ecc6299db9ec823/epaint-0.19.0/src" "texture_handle.rs"
	.loc	53 64 0 is_stmt 1
	.cfi_startproc
	pushq	%rbp
	.cfi_def_cfa_offset 16
	.cfi_offset %rbp, -16
	movq	%rsp, %rbp
	.cfi_def_cfa_register %rbp
	pushq	%rax
	movq	%rdi, -8(%rbp)
Ltmp799:
	.loc	53 65 9 prologue_end
	movq	(%rdi), %rax
	movq	8(%rdi), %rdx
	.loc	53 66 6
	addq	$8, %rsp
	popq	%rbp
	retq
Ltmp800:
Lfunc_end110:
	.cfi_endproc

	.p2align	4, 0x90
__ZN6epaint5image9ImageData5Color17hc7a3d7057d940150E:
Lfunc_begin111:
	.loc	37 14 0
	.cfi_startproc
	pushq	%rbp
	.cfi_def_cfa_offset 16
	.cfi_offset %rbp, -16
	movq	%rsp, %rbp
	.cfi_def_cfa_register %rbp
	subq	$16, %rsp
	movq	%rdi, -16(%rbp)
	movq	%rdi, %rax
	movq	%rax, -8(%rbp)
Ltmp801:
	.loc	37 14 5 prologue_end
	addq	$8, %rdi
	movl	$40, %edx
	callq	_memcpy
Ltmp802:
	.loc	37 0 5 is_stmt 0
	movq	-16(%rbp), %rdi
	movq	-8(%rbp), %rax
	.loc	37 14 5
	movq	$0, (%rdi)
	addq	$16, %rsp
	popq	%rbp
	retq
Ltmp803:
Lfunc_end111:
	.cfi_endproc

	.p2align	4, 0x90
__ZN6epaint5mutex10mutex_impl14HELD_LOCKS_TLS7__getit17h8abb3d40509c12b7E:
Lfunc_begin112:
	.loc	8 319 0 is_stmt 1
	.cfi_startproc
	pushq	%rbp
	.cfi_def_cfa_offset 16
	.cfi_offset %rbp, -16
	movq	%rsp, %rbp
	.cfi_def_cfa_register %rbp
	subq	$16, %rsp
	movq	%rdi, -8(%rbp)
Ltmp804:
	.loc	8 346 31 prologue_end
	movq	%rdi, -16(%rbp)
	.loc	8 346 21 is_stmt 0
	movq	-16(%rbp), %rsi
	movq	__ZN6epaint5mutex10mutex_impl14HELD_LOCKS_TLS7__getit5__KEY17h511c9a7e497926b4E@TLVP(%rip), %rdi
	callq	*(%rdi)
	movq	%rax, %rdi
	callq	__ZN3std6thread5local4fast12Key$LT$T$GT$3get17hc18bd6a95532d5c8E
	.loc	8 357 14 is_stmt 1
	addq	$16, %rsp
	popq	%rbp
	retq
Ltmp805:
Lfunc_end112:
	.cfi_endproc

	.globl	__ZN6epaint5mutex10mutex_impl14Mutex$LT$T$GT$4lock17h4fc3d19868e2e2beE
	.p2align	4, 0x90
__ZN6epaint5mutex10mutex_impl14Mutex$LT$T$GT$4lock17h4fc3d19868e2e2beE:
Lfunc_begin113:
	.loc	35 72 0
	.cfi_startproc
	pushq	%rbp
	.cfi_def_cfa_offset 16
	.cfi_offset %rbp, -16
	movq	%rsp, %rbp
	.cfi_def_cfa_register %rbp
	subq	$64, %rsp
	movq	%rdi, -56(%rbp)
	movq	%rdi, -16(%rbp)
	movq	%rdi, -8(%rbp)
Ltmp806:
	.loc	35 76 23 prologue_end
	movq	%rdi, -32(%rbp)
	leaq	-32(%rbp), %rax
Ltmp807:
	.loc	35 79 33
	movq	%rax, -24(%rbp)
	.loc	35 79 13 is_stmt 0
	movq	-24(%rbp), %rsi
	leaq	l___unnamed_20(%rip), %rdi
	callq	__ZN3std6thread5local17LocalKey$LT$T$GT$4with17h00d31a1a87bae8d9E
	movq	-56(%rbp), %rdi
	.loc	35 83 24 is_stmt 1
	callq	__ZN8lock_api5mutex18Mutex$LT$R$C$T$GT$4lock17h2b3aefb32dad7696E
	movq	%rax, %rcx
	.loc	35 83 39 is_stmt 0
	movq	-32(%rbp), %rax
	.loc	35 83 13
	movq	%rcx, -40(%rbp)
	movq	%rax, -48(%rbp)
Ltmp808:
	.loc	35 84 10 is_stmt 1
	movq	-48(%rbp), %rax
	movq	-40(%rbp), %rdx
	addq	$64, %rsp
	popq	%rbp
	retq
Ltmp809:
Lfunc_end113:
	.cfi_endproc

	.globl	__ZN6epaint5mutex10mutex_impl14Mutex$LT$T$GT$4lock17hdf16e470cb39fe2eE
	.p2align	4, 0x90
__ZN6epaint5mutex10mutex_impl14Mutex$LT$T$GT$4lock17hdf16e470cb39fe2eE:
Lfunc_begin114:
	.loc	35 72 0
	.cfi_startproc
	pushq	%rbp
	.cfi_def_cfa_offset 16
	.cfi_offset %rbp, -16
	movq	%rsp, %rbp
	.cfi_def_cfa_register %rbp
	subq	$64, %rsp
	movq	%rdi, -56(%rbp)
	movq	%rdi, -16(%rbp)
	movq	%rdi, -8(%rbp)
Ltmp810:
	.loc	35 76 23 prologue_end
	movq	%rdi, -32(%rbp)
	leaq	-32(%rbp), %rax
Ltmp811:
	.loc	35 79 33
	movq	%rax, -24(%rbp)
	.loc	35 79 13 is_stmt 0
	movq	-24(%rbp), %rsi
	leaq	l___unnamed_20(%rip), %rdi
	callq	__ZN3std6thread5local17LocalKey$LT$T$GT$4with17h737fc99f8a1e1112E
	movq	-56(%rbp), %rdi
	.loc	35 83 24 is_stmt 1
	callq	__ZN8lock_api5mutex18Mutex$LT$R$C$T$GT$4lock17h4d9faed8f6da5297E
	movq	%rax, %rcx
	.loc	35 83 39 is_stmt 0
	movq	-32(%rbp), %rax
	.loc	35 83 13
	movq	%rcx, -40(%rbp)
	movq	%rax, -48(%rbp)
Ltmp812:
	.loc	35 84 10 is_stmt 1
	movq	-48(%rbp), %rax
	movq	-40(%rbp), %rdx
	addq	$64, %rsp
	popq	%rbp
	retq
Ltmp813:
Lfunc_end114:
	.cfi_endproc

	.globl	__ZN6epaint5mutex10mutex_impl14Mutex$LT$T$GT$4lock28_$u7b$$u7b$closure$u7d$$u7d$17h16de60eb1e0e13d1E
	.p2align	4, 0x90
__ZN6epaint5mutex10mutex_impl14Mutex$LT$T$GT$4lock28_$u7b$$u7b$closure$u7d$$u7d$17h16de60eb1e0e13d1E:
Lfunc_begin115:
	.loc	35 79 0
	.cfi_startproc
	.cfi_personality 155, _rust_eh_personality
	.cfi_lsda 16, Lexception23
	pushq	%rbp
	.cfi_def_cfa_offset 16
	.cfi_offset %rbp, -16
	movq	%rsp, %rbp
	.cfi_def_cfa_register %rbp
	subq	$160, %rsp
	movq	%rsi, -128(%rbp)
	movq	%rdi, %rax
	movq	-128(%rbp), %rdi
	movq	%rax, -112(%rbp)
	movq	%rdi, -88(%rbp)
Ltmp830:
	.loc	35 80 17 prologue_end
	leaq	l___unnamed_21(%rip), %rsi
	callq	__ZN4core4cell16RefCell$LT$T$GT$10borrow_mut17hd70a64fdd5c31491E
	movq	%rdx, -96(%rbp)
	movq	%rax, -104(%rbp)
Ltmp814:
	leaq	-104(%rbp), %rdi
	callq	__ZN74_$LT$core..cell..RefMut$LT$T$GT$$u20$as$u20$core..ops..deref..DerefMut$GT$9deref_mut17hd51807ee23c1e780E
Ltmp815:
	movq	%rax, -120(%rbp)
	jmp	LBB115_3
LBB115_1:
Ltmp827:
	.loc	35 0 17 is_stmt 0
	leaq	-104(%rbp), %rdi
	.loc	35 80 52
	callq	__ZN4core3ptr83drop_in_place$LT$core..cell..RefMut$LT$epaint..mutex..mutex_impl..HeldLocks$GT$$GT$17h9fab35c5c9702e5bE
Ltmp828:
	jmp	LBB115_13
LBB115_2:
Ltmp826:
	.loc	35 0 52
	movq	%rax, %rcx
	movl	%edx, %eax
	movq	%rcx, -80(%rbp)
	movl	%eax, -72(%rbp)
	jmp	LBB115_1
LBB115_3:
	movq	-120(%rbp), %rdi
	.loc	35 80 48
	movq	-112(%rbp), %rax
	movq	(%rax), %rax
	movq	%rax, -64(%rbp)
	movq	%rdi, -8(%rbp)
Ltmp816:
Ltmp831:
	.loc	35 50 18 is_stmt 1
	callq	__ZN72_$LT$alloc..vec..Vec$LT$T$C$A$GT$$u20$as$u20$core..ops..deref..Deref$GT$5deref17h4fd08d3120ed665cE
Ltmp817:
	movq	%rdx, -144(%rbp)
	movq	%rax, -136(%rbp)
	jmp	LBB115_4
LBB115_4:
Ltmp818:
	.loc	35 0 18 is_stmt 0
	movq	-144(%rbp), %rsi
	movq	-136(%rbp), %rdi
	leaq	-64(%rbp), %rdx
	.loc	35 50 18
	callq	__ZN4core5slice29_$LT$impl$u20$$u5b$T$u5d$$GT$8contains17h3d3f3597d9ba99f7E
Ltmp819:
	movb	%al, -145(%rbp)
	jmp	LBB115_5
LBB115_5:
	.loc	35 0 18
	movb	-145(%rbp), %al
	.loc	35 49 13 is_stmt 1
	testb	$1, %al
	jne	LBB115_7
	.loc	35 0 13 is_stmt 0
	movq	-120(%rbp), %rdi
	.loc	35 53 25 is_stmt 1
	movq	-64(%rbp), %rsi
Ltmp820:
	.loc	35 53 13 is_stmt 0
	callq	__ZN5alloc3vec16Vec$LT$T$C$A$GT$4push17hc18505c437e9e066E
Ltmp821:
	jmp	LBB115_10
LBB115_7:
Ltmp822:
	.loc	35 49 13 is_stmt 1
	leaq	l___unnamed_22(%rip), %rsi
	leaq	l___unnamed_4(%rip), %rcx
	xorl	%eax, %eax
	movl	%eax, %r8d
	leaq	-56(%rbp), %rdi
	movl	$1, %edx
	callq	__ZN4core3fmt9Arguments6new_v117h9b2d11adb3179447E
Ltmp823:
	jmp	LBB115_8
LBB115_8:
Ltmp824:
	leaq	l___unnamed_23(%rip), %rsi
	leaq	-56(%rbp), %rdi
	callq	__ZN4core9panicking9panic_fmt17h9b5d807e24bcaaedE
Ltmp825:
	jmp	LBB115_9
LBB115_9:
	ud2
LBB115_10:
	.loc	35 54 10
	jmp	LBB115_11
Ltmp832:
LBB115_11:
	.loc	35 80 52
	leaq	-104(%rbp), %rdi
	callq	__ZN4core3ptr83drop_in_place$LT$core..cell..RefMut$LT$epaint..mutex..mutex_impl..HeldLocks$GT$$GT$17h9fab35c5c9702e5bE
	.loc	35 81 14
	addq	$160, %rsp
	popq	%rbp
	retq
LBB115_12:
Ltmp829:
	.loc	35 79 33
	callq	__ZN4core9panicking19panic_cannot_unwind17h1fbca7e1d7f56ae1E
LBB115_13:
	movq	-80(%rbp), %rdi
	callq	__Unwind_Resume
Ltmp833:
Lfunc_end115:
	.cfi_endproc
	.section	__TEXT,__gcc_except_tab
	.p2align	2
GCC_except_table115:
Lexception23:
	.byte	255
	.byte	255
	.byte	1
	.uleb128 Lcst_end23-Lcst_begin23
Lcst_begin23:
	.uleb128 Lfunc_begin115-Lfunc_begin115
	.uleb128 Ltmp814-Lfunc_begin115
	.byte	0
	.byte	0
	.uleb128 Ltmp814-Lfunc_begin115
	.uleb128 Ltmp815-Ltmp814
	.uleb128 Ltmp826-Lfunc_begin115
	.byte	0
	.uleb128 Ltmp827-Lfunc_begin115
	.uleb128 Ltmp828-Ltmp827
	.uleb128 Ltmp829-Lfunc_begin115
	.byte	0
	.uleb128 Ltmp816-Lfunc_begin115
	.uleb128 Ltmp825-Ltmp816
	.uleb128 Ltmp826-Lfunc_begin115
	.byte	0
	.uleb128 Ltmp825-Lfunc_begin115
	.uleb128 Lfunc_end115-Ltmp825
	.byte	0
	.byte	0
Lcst_end23:
	.p2align	2

	.section	__TEXT,__text,regular,pure_instructions
	.globl	__ZN6epaint5mutex10mutex_impl14Mutex$LT$T$GT$4lock28_$u7b$$u7b$closure$u7d$$u7d$17h97c32ef425defd67E
	.p2align	4, 0x90
__ZN6epaint5mutex10mutex_impl14Mutex$LT$T$GT$4lock28_$u7b$$u7b$closure$u7d$$u7d$17h97c32ef425defd67E:
Lfunc_begin116:
	.loc	35 79 0
	.cfi_startproc
	.cfi_personality 155, _rust_eh_personality
	.cfi_lsda 16, Lexception24
	pushq	%rbp
	.cfi_def_cfa_offset 16
	.cfi_offset %rbp, -16
	movq	%rsp, %rbp
	.cfi_def_cfa_register %rbp
	subq	$160, %rsp
	movq	%rsi, -128(%rbp)
	movq	%rdi, %rax
	movq	-128(%rbp), %rdi
	movq	%rax, -112(%rbp)
	movq	%rdi, -88(%rbp)
Ltmp850:
	.loc	35 80 17 prologue_end
	leaq	l___unnamed_21(%rip), %rsi
	callq	__ZN4core4cell16RefCell$LT$T$GT$10borrow_mut17hd70a64fdd5c31491E
	movq	%rdx, -96(%rbp)
	movq	%rax, -104(%rbp)
Ltmp834:
	leaq	-104(%rbp), %rdi
	callq	__ZN74_$LT$core..cell..RefMut$LT$T$GT$$u20$as$u20$core..ops..deref..DerefMut$GT$9deref_mut17hd51807ee23c1e780E
Ltmp835:
	movq	%rax, -120(%rbp)
	jmp	LBB116_3
LBB116_1:
Ltmp847:
	.loc	35 0 17 is_stmt 0
	leaq	-104(%rbp), %rdi
	.loc	35 80 52
	callq	__ZN4core3ptr83drop_in_place$LT$core..cell..RefMut$LT$epaint..mutex..mutex_impl..HeldLocks$GT$$GT$17h9fab35c5c9702e5bE
Ltmp848:
	jmp	LBB116_13
LBB116_2:
Ltmp846:
	.loc	35 0 52
	movq	%rax, %rcx
	movl	%edx, %eax
	movq	%rcx, -80(%rbp)
	movl	%eax, -72(%rbp)
	jmp	LBB116_1
LBB116_3:
	movq	-120(%rbp), %rdi
	.loc	35 80 48
	movq	-112(%rbp), %rax
	movq	(%rax), %rax
	movq	%rax, -64(%rbp)
	movq	%rdi, -8(%rbp)
Ltmp836:
Ltmp851:
	.loc	35 50 18 is_stmt 1
	callq	__ZN72_$LT$alloc..vec..Vec$LT$T$C$A$GT$$u20$as$u20$core..ops..deref..Deref$GT$5deref17h4fd08d3120ed665cE
Ltmp837:
	movq	%rdx, -144(%rbp)
	movq	%rax, -136(%rbp)
	jmp	LBB116_4
LBB116_4:
Ltmp838:
	.loc	35 0 18 is_stmt 0
	movq	-144(%rbp), %rsi
	movq	-136(%rbp), %rdi
	leaq	-64(%rbp), %rdx
	.loc	35 50 18
	callq	__ZN4core5slice29_$LT$impl$u20$$u5b$T$u5d$$GT$8contains17h3d3f3597d9ba99f7E
Ltmp839:
	movb	%al, -145(%rbp)
	jmp	LBB116_5
LBB116_5:
	.loc	35 0 18
	movb	-145(%rbp), %al
	.loc	35 49 13 is_stmt 1
	testb	$1, %al
	jne	LBB116_7
	.loc	35 0 13 is_stmt 0
	movq	-120(%rbp), %rdi
	.loc	35 53 25 is_stmt 1
	movq	-64(%rbp), %rsi
Ltmp840:
	.loc	35 53 13 is_stmt 0
	callq	__ZN5alloc3vec16Vec$LT$T$C$A$GT$4push17hc18505c437e9e066E
Ltmp841:
	jmp	LBB116_10
LBB116_7:
Ltmp842:
	.loc	35 49 13 is_stmt 1
	leaq	l___unnamed_22(%rip), %rsi
	leaq	l___unnamed_4(%rip), %rcx
	xorl	%eax, %eax
	movl	%eax, %r8d
	leaq	-56(%rbp), %rdi
	movl	$1, %edx
	callq	__ZN4core3fmt9Arguments6new_v117h9b2d11adb3179447E
Ltmp843:
	jmp	LBB116_8
LBB116_8:
Ltmp844:
	leaq	l___unnamed_23(%rip), %rsi
	leaq	-56(%rbp), %rdi
	callq	__ZN4core9panicking9panic_fmt17h9b5d807e24bcaaedE
Ltmp845:
	jmp	LBB116_9
LBB116_9:
	ud2
LBB116_10:
	.loc	35 54 10
	jmp	LBB116_11
Ltmp852:
LBB116_11:
	.loc	35 80 52
	leaq	-104(%rbp), %rdi
	callq	__ZN4core3ptr83drop_in_place$LT$core..cell..RefMut$LT$epaint..mutex..mutex_impl..HeldLocks$GT$$GT$17h9fab35c5c9702e5bE
	.loc	35 81 14
	addq	$160, %rsp
	popq	%rbp
	retq
LBB116_12:
Ltmp849:
	.loc	35 79 33
	callq	__ZN4core9panicking19panic_cannot_unwind17h1fbca7e1d7f56ae1E
LBB116_13:
	movq	-80(%rbp), %rdi
	callq	__Unwind_Resume
Ltmp853:
Lfunc_end116:
	.cfi_endproc
	.section	__TEXT,__gcc_except_tab
	.p2align	2
GCC_except_table116:
Lexception24:
	.byte	255
	.byte	255
	.byte	1
	.uleb128 Lcst_end24-Lcst_begin24
Lcst_begin24:
	.uleb128 Lfunc_begin116-Lfunc_begin116
	.uleb128 Ltmp834-Lfunc_begin116
	.byte	0
	.byte	0
	.uleb128 Ltmp834-Lfunc_begin116
	.uleb128 Ltmp835-Ltmp834
	.uleb128 Ltmp846-Lfunc_begin116
	.byte	0
	.uleb128 Ltmp847-Lfunc_begin116
	.uleb128 Ltmp848-Ltmp847
	.uleb128 Ltmp849-Lfunc_begin116
	.byte	0
	.uleb128 Ltmp836-Lfunc_begin116
	.uleb128 Ltmp845-Ltmp836
	.uleb128 Ltmp846-Lfunc_begin116
	.byte	0
	.uleb128 Ltmp845-Lfunc_begin116
	.uleb128 Lfunc_end116-Ltmp845
	.byte	0
	.byte	0
Lcst_end24:
	.p2align	2

	.section	__TEXT,__text,regular,pure_instructions
	.globl	__ZN70_$LT$alloc..vec..Vec$LT$T$C$A$GT$$u20$as$u20$core..ops..drop..Drop$GT$4drop17hcd12f07aeb88d390E
	.p2align	4, 0x90
__ZN70_$LT$alloc..vec..Vec$LT$T$C$A$GT$$u20$as$u20$core..ops..drop..Drop$GT$4drop17hcd12f07aeb88d390E:
Lfunc_begin117:
	.loc	3 3054 0
	.cfi_startproc
	pushq	%rbp
	.cfi_def_cfa_offset 16
	.cfi_offset %rbp, -16
	movq	%rsp, %rbp
	.cfi_def_cfa_register %rbp
	subq	$160, %rsp
	movq	%rdi, -120(%rbp)
Ltmp854:
	.loc	3 3059 62 prologue_end
	movq	%rdi, -112(%rbp)
Ltmp855:
	.loc	3 1280 19
	movq	%rdi, -104(%rbp)
Ltmp856:
	.loc	4 224 9
	movq	8(%rdi), %rcx
	movq	%rcx, -96(%rbp)
Ltmp857:
	.loc	39 104 9
	movq	%rcx, -88(%rbp)
Ltmp858:
	.loc	29 326 9
	movq	%rcx, -80(%rbp)
Ltmp859:
	.loc	3 1282 21
	movq	%rcx, -72(%rbp)
Ltmp860:
	.loc	40 52 36
	movq	%rcx, -160(%rbp)
	.loc	40 52 18 is_stmt 0
	movq	-160(%rbp), %rax
	movq	%rax, -64(%rbp)
Ltmp861:
	.loc	40 38 13 is_stmt 1
	movq	%rax, -56(%rbp)
Ltmp862:
	.loc	40 215 33
	movq	%rax, -48(%rbp)
	.loc	40 215 18 is_stmt 0
	movq	%rax, -40(%rbp)
Ltmp863:
	.loc	3 3059 81 is_stmt 1
	movq	16(%rdi), %rax
	movq	%rax, -32(%rbp)
Ltmp864:
	.loc	15 766 24
	movq	%rcx, -24(%rbp)
Ltmp865:
	.loc	40 60 9
	movq	%rcx, -16(%rbp)
Ltmp866:
	.loc	15 766 37
	movq	%rax, -8(%rbp)
Ltmp867:
	.loc	28 135 36
	movq	%rcx, -136(%rbp)
	movq	%rax, -128(%rbp)
	.loc	28 135 14 is_stmt 0
	movq	-136(%rbp), %rcx
	movq	-128(%rbp), %rax
	movq	%rcx, -152(%rbp)
	movq	%rax, -144(%rbp)
Ltmp868:
	.loc	3 3062 6 is_stmt 1
	addq	$160, %rsp
	popq	%rbp
	retq
Ltmp869:
Lfunc_end117:
	.cfi_endproc

	.globl	__ZN72_$LT$alloc..vec..Vec$LT$T$C$A$GT$$u20$as$u20$core..ops..deref..Deref$GT$5deref17h76143a89ac7de3beE
	.p2align	4, 0x90
__ZN72_$LT$alloc..vec..Vec$LT$T$C$A$GT$$u20$as$u20$core..ops..deref..Deref$GT$5deref17h76143a89ac7de3beE:
Lfunc_begin118:
	.loc	3 2636 0
	.cfi_startproc
	pushq	%rbp
	.cfi_def_cfa_offset 16
	.cfi_offset %rbp, -16
	movq	%rsp, %rbp
	.cfi_def_cfa_register %rbp
	subq	$184, %rsp
	movq	%rdi, -144(%rbp)
Ltmp870:
	.loc	3 2637 40 prologue_end
	movq	%rdi, -136(%rbp)
Ltmp871:
	.loc	3 1243 19
	movq	%rdi, -128(%rbp)
Ltmp872:
	.loc	4 224 9
	movq	8(%rdi), %rcx
	movq	%rcx, -120(%rbp)
Ltmp873:
	.loc	39 104 9
	movq	%rcx, -112(%rbp)
Ltmp874:
	.loc	29 326 9
	movq	%rcx, -104(%rbp)
Ltmp875:
	.loc	3 1245 21
	movq	%rcx, -96(%rbp)
Ltmp876:
	.loc	40 52 36
	movq	%rcx, -184(%rbp)
	.loc	40 52 18 is_stmt 0
	movq	-184(%rbp), %rax
	movq	%rax, -88(%rbp)
Ltmp877:
	.loc	40 38 13 is_stmt 1
	movq	%rax, -80(%rbp)
Ltmp878:
	.loc	40 215 33
	movq	%rax, -72(%rbp)
	.loc	40 215 18 is_stmt 0
	movq	%rax, -64(%rbp)
Ltmp879:
	.loc	3 1247 9 is_stmt 1
	movq	%rcx, -56(%rbp)
Ltmp880:
	.loc	3 2637 55
	movq	16(%rdi), %rax
	movq	%rax, -48(%rbp)
Ltmp881:
	.file	54 "/rustc/2c8cc343237b8f7d5a3c3703e3a87f2eb2c54a74/library/core/src/slice" "raw.rs"
	.loc	54 100 37
	movq	%rcx, -40(%rbp)
	.loc	54 100 43 is_stmt 0
	movq	%rax, -32(%rbp)
Ltmp882:
	.loc	15 734 20 is_stmt 1
	movq	%rcx, -24(%rbp)
Ltmp883:
	.loc	19 61 9
	movq	%rcx, -16(%rbp)
Ltmp884:
	.loc	15 734 33
	movq	%rax, -8(%rbp)
Ltmp885:
	.loc	28 118 36
	movq	%rcx, -160(%rbp)
	movq	%rax, -152(%rbp)
	.loc	28 118 14 is_stmt 0
	movq	-160(%rbp), %rcx
	movq	-152(%rbp), %rax
	movq	%rcx, -176(%rbp)
	movq	%rax, -168(%rbp)
	movq	-176(%rbp), %rax
	movq	-168(%rbp), %rdx
Ltmp886:
	.loc	3 2638 6 is_stmt 1
	addq	$184, %rsp
	popq	%rbp
	retq
Ltmp887:
Lfunc_end118:
	.cfi_endproc

	.globl	__ZN77_$LT$alloc..raw_vec..RawVec$LT$T$C$A$GT$$u20$as$u20$core..ops..drop..Drop$GT$4drop17hde6eaead5a259d87E
	.p2align	4, 0x90
__ZN77_$LT$alloc..raw_vec..RawVec$LT$T$C$A$GT$$u20$as$u20$core..ops..drop..Drop$GT$4drop17hde6eaead5a259d87E:
Lfunc_begin119:
	.loc	4 477 0
	.cfi_startproc
	pushq	%rbp
	.cfi_def_cfa_offset 16
	.cfi_offset %rbp, -16
	movq	%rsp, %rbp
	.cfi_def_cfa_register %rbp
	subq	$64, %rsp
	movq	%rdi, %rsi
	movq	%rsi, -64(%rbp)
	movq	%rsi, -32(%rbp)
Ltmp888:
	.loc	4 478 38 prologue_end
	leaq	-56(%rbp), %rdi
	callq	__ZN5alloc7raw_vec19RawVec$LT$T$C$A$GT$14current_memory17h35ffb96651a2a57fE
	.loc	4 478 16 is_stmt 0
	movl	$1, %eax
	xorl	%ecx, %ecx
	cmpq	$0, -40(%rbp)
	cmoveq	%rcx, %rax
	cmpq	$1, %rax
	jne	LBB119_2
	.loc	4 0 16
	movq	-64(%rbp), %rdi
	.loc	4 478 22
	movq	-56(%rbp), %rsi
	movq	%rsi, -24(%rbp)
	.loc	4 478 27
	movq	-48(%rbp), %rdx
	movq	-40(%rbp), %rcx
	movq	%rdx, -16(%rbp)
	movq	%rcx, -8(%rbp)
	.loc	4 479 22 is_stmt 1
	callq	__ZN63_$LT$alloc..alloc..Global$u20$as$u20$core..alloc..Allocator$GT$10deallocate17h54e7c2ab9ab7b23aE
Ltmp889:
LBB119_2:
	.loc	4 481 6
	addq	$64, %rsp
	popq	%rbp
	retq
Ltmp890:
Lfunc_end119:
	.cfi_endproc

	.globl	__ZN77_$LT$dyn$u20$core..any..Any$u2b$core..marker..Send$u2b$core..marker..Sync$GT$12downcast_mut17h87a5c93af4df1931E
	.p2align	4, 0x90
__ZN77_$LT$dyn$u20$core..any..Any$u2b$core..marker..Send$u2b$core..marker..Sync$GT$12downcast_mut17h87a5c93af4df1931E:
Lfunc_begin120:
	.loc	6 598 0
	.cfi_startproc
	pushq	%rbp
	.cfi_def_cfa_offset 16
	.cfi_offset %rbp, -16
	movq	%rsp, %rbp
	.cfi_def_cfa_register %rbp
	subq	$16, %rsp
	movq	%rdi, -16(%rbp)
	movq	%rsi, -8(%rbp)
Ltmp891:
	.loc	6 599 9 prologue_end
	callq	__ZN31_$LT$dyn$u20$core..any..Any$GT$12downcast_mut17h130ede7ddfa92863E
	.loc	6 600 6
	addq	$16, %rsp
	popq	%rbp
	retq
Ltmp892:
Lfunc_end120:
	.cfi_endproc

	.p2align	4, 0x90
__ZN78_$LT$parking_lot..raw_mutex..RawMutex$u20$as$u20$lock_api..mutex..RawMutex$GT$4lock17h06757792a71fe239E:
Lfunc_begin121:
	.file	55 "/Users/natalie/.cargo/registry/src/github.com-1ecc6299db9ec823/parking_lot-0.12.1/src" "raw_mutex.rs"
	.loc	55 66 0
	.cfi_startproc
	pushq	%rbp
	.cfi_def_cfa_offset 16
	.cfi_offset %rbp, -16
	movq	%rsp, %rbp
	.cfi_def_cfa_register %rbp
	subq	$48, %rsp
	movq	%rdi, -40(%rbp)
	movq	%rdi, -8(%rbp)
Ltmp893:
	.loc	55 69 51 prologue_end
	movb	$2, -26(%rbp)
	.loc	55 69 70 is_stmt 0
	movb	$0, -25(%rbp)
	.loc	55 67 12 is_stmt 1
	movzbl	-25(%rbp), %r8d
	movzbl	-26(%rbp), %ecx
	xorl	%esi, %esi
	movl	$1, %edx
	callq	__ZN4core4sync6atomic8AtomicU821compare_exchange_weak17hde7fe9099872fa46E
	movb	%dl, -31(%rbp)
	movb	%al, -32(%rbp)
	leaq	-32(%rbp), %rdi
	callq	__ZN4core6result19Result$LT$T$C$E$GT$6is_err17hb84cec2698f3184eE
	testb	$1, %al
	jne	LBB121_2
LBB121_1:
	.loc	55 0 12 is_stmt 0
	movq	-40(%rbp), %rdi
	.loc	55 74 18 is_stmt 1
	callq	__ZN16parking_lot_core11parking_lot8deadlock16acquire_resource17h43e0f97c019d7419E
	.loc	55 75 6
	addq	$48, %rsp
	popq	%rbp
	retq
LBB121_2:
	.loc	55 0 6 is_stmt 0
	movq	-40(%rbp), %rdi
	.loc	55 72 28 is_stmt 1
	movq	$0, -24(%rbp)
	.loc	55 72 13 is_stmt 0
	movq	-24(%rbp), %rsi
	movq	-16(%rbp), %rdx
	callq	__ZN11parking_lot9raw_mutex8RawMutex9lock_slow17h29d8b8a981ee6d19E
	jmp	LBB121_1
Ltmp894:
Lfunc_end121:
	.cfi_endproc

	.p2align	4, 0x90
__ZN78_$LT$parking_lot..raw_mutex..RawMutex$u20$as$u20$lock_api..mutex..RawMutex$GT$6unlock17h95d5e08a6b74d550E:
Lfunc_begin122:
	.loc	55 100 0 is_stmt 1
	.cfi_startproc
	pushq	%rbp
	.cfi_def_cfa_offset 16
	.cfi_offset %rbp, -16
	movq	%rsp, %rbp
	.cfi_def_cfa_register %rbp
	subq	$32, %rsp
	movq	%rdi, -24(%rbp)
	movq	%rdi, -8(%rbp)
Ltmp895:
	.loc	55 101 9 prologue_end
	callq	__ZN16parking_lot_core11parking_lot8deadlock16release_resource17ha280bc3e428d6184E
	movq	-24(%rbp), %rdi
	.loc	55 104 46
	movb	$1, -10(%rbp)
	.loc	55 104 65 is_stmt 0
	movb	$0, -9(%rbp)
	.loc	55 102 12 is_stmt 1
	movzbl	-9(%rbp), %r8d
	movzbl	-10(%rbp), %ecx
	movl	$1, %esi
	xorl	%edx, %edx
	callq	__ZN4core4sync6atomic8AtomicU816compare_exchange17h208277c4cae65f07E
	movb	%dl, -15(%rbp)
	movb	%al, -16(%rbp)
	leaq	-16(%rbp), %rdi
	callq	__ZN4core6result19Result$LT$T$C$E$GT$5is_ok17h284a7591e314e668E
	testb	$1, %al
	jne	LBB122_2
	.loc	55 0 12 is_stmt 0
	movq	-24(%rbp), %rdi
	.loc	55 109 9 is_stmt 1
	xorl	%esi, %esi
	callq	__ZN11parking_lot9raw_mutex8RawMutex11unlock_slow17hb744c5772dffa96eE
LBB122_2:
	.loc	55 110 6
	addq	$32, %rsp
	popq	%rbp
	retq
Ltmp896:
Lfunc_end122:
	.cfi_endproc

	.globl	__ZN82_$LT$lock_api..mutex..MutexGuard$LT$R$C$T$GT$$u20$as$u20$core..ops..drop..Drop$GT$4drop17h03ecb75d3eadde92E
	.p2align	4, 0x90
__ZN82_$LT$lock_api..mutex..MutexGuard$LT$R$C$T$GT$$u20$as$u20$core..ops..drop..Drop$GT$4drop17h03ecb75d3eadde92E:
Lfunc_begin123:
	.file	56 "/Users/natalie/.cargo/registry/src/github.com-1ecc6299db9ec823/lock_api-0.4.9/src" "mutex.rs"
	.loc	56 653 0
	.cfi_startproc
	pushq	%rbp
	.cfi_def_cfa_offset 16
	.cfi_offset %rbp, -16
	movq	%rsp, %rbp
	.cfi_def_cfa_register %rbp
	subq	$16, %rsp
	movq	%rdi, -8(%rbp)
Ltmp897:
	.loc	56 656 13 prologue_end
	movq	(%rdi), %rdi
	callq	__ZN78_$LT$parking_lot..raw_mutex..RawMutex$u20$as$u20$lock_api..mutex..RawMutex$GT$6unlock17h95d5e08a6b74d550E
	.loc	56 658 6
	addq	$16, %rsp
	popq	%rbp
	retq
Ltmp898:
Lfunc_end123:
	.cfi_endproc

	.globl	__ZN82_$LT$lock_api..mutex..MutexGuard$LT$R$C$T$GT$$u20$as$u20$core..ops..drop..Drop$GT$4drop17h1d2bb3e9c5699fbfE
	.p2align	4, 0x90
__ZN82_$LT$lock_api..mutex..MutexGuard$LT$R$C$T$GT$$u20$as$u20$core..ops..drop..Drop$GT$4drop17h1d2bb3e9c5699fbfE:
Lfunc_begin124:
	.loc	56 653 0
	.cfi_startproc
	pushq	%rbp
	.cfi_def_cfa_offset 16
	.cfi_offset %rbp, -16
	movq	%rsp, %rbp
	.cfi_def_cfa_register %rbp
	subq	$16, %rsp
	movq	%rdi, -8(%rbp)
Ltmp899:
	.loc	56 656 13 prologue_end
	movq	(%rdi), %rdi
	callq	__ZN78_$LT$parking_lot..raw_mutex..RawMutex$u20$as$u20$lock_api..mutex..RawMutex$GT$6unlock17h95d5e08a6b74d550E
	.loc	56 658 6
	addq	$16, %rsp
	popq	%rbp
	retq
Ltmp900:
Lfunc_end124:
	.cfi_endproc

	.globl	__ZN87_$LT$lock_api..mutex..MutexGuard$LT$R$C$T$GT$$u20$as$u20$core..ops..deref..DerefMut$GT$9deref_mut17h000ce0fb06dfbf29E
	.p2align	4, 0x90
__ZN87_$LT$lock_api..mutex..MutexGuard$LT$R$C$T$GT$$u20$as$u20$core..ops..deref..DerefMut$GT$9deref_mut17h000ce0fb06dfbf29E:
Lfunc_begin125:
	.loc	56 646 0
	.cfi_startproc
	pushq	%rbp
	.cfi_def_cfa_offset 16
	.cfi_offset %rbp, -16
	movq	%rsp, %rbp
	.cfi_def_cfa_register %rbp
	subq	$16, %rsp
	movq	%rdi, -16(%rbp)
Ltmp901:
	.loc	56 647 24 prologue_end
	movq	(%rdi), %rax
	addq	$8, %rax
	movq	%rax, -8(%rbp)
	.loc	56 648 6
	addq	$16, %rsp
	popq	%rbp
	retq
Ltmp902:
Lfunc_end125:
	.cfi_endproc

	.globl	__ZN87_$LT$lock_api..mutex..MutexGuard$LT$R$C$T$GT$$u20$as$u20$core..ops..deref..DerefMut$GT$9deref_mut17h9341731c2c5b111dE
	.p2align	4, 0x90
__ZN87_$LT$lock_api..mutex..MutexGuard$LT$R$C$T$GT$$u20$as$u20$core..ops..deref..DerefMut$GT$9deref_mut17h9341731c2c5b111dE:
Lfunc_begin126:
	.loc	56 646 0
	.cfi_startproc
	pushq	%rbp
	.cfi_def_cfa_offset 16
	.cfi_offset %rbp, -16
	movq	%rsp, %rbp
	.cfi_def_cfa_register %rbp
	subq	$16, %rsp
	movq	%rdi, -16(%rbp)
Ltmp903:
	.loc	56 647 24 prologue_end
	movq	(%rdi), %rax
	addq	$8, %rax
	movq	%rax, -8(%rbp)
	.loc	56 648 6
	addq	$16, %rsp
	popq	%rbp
	retq
Ltmp904:
Lfunc_end126:
	.cfi_endproc

	.globl	__ZN88_$LT$epaint..mutex..mutex_impl..MutexGuard$LT$T$GT$$u20$as$u20$core..ops..drop..Drop$GT$4drop17h2eb89f59dd854b06E
	.p2align	4, 0x90
__ZN88_$LT$epaint..mutex..mutex_impl..MutexGuard$LT$T$GT$$u20$as$u20$core..ops..drop..Drop$GT$4drop17h2eb89f59dd854b06E:
Lfunc_begin127:
	.loc	35 88 0
	.cfi_startproc
	pushq	%rbp
	.cfi_def_cfa_offset 16
	.cfi_offset %rbp, -16
	movq	%rsp, %rbp
	.cfi_def_cfa_register %rbp
	subq	$32, %rsp
	movq	%rdi, -8(%rbp)
Ltmp905:
	.loc	35 89 23 prologue_end
	movq	(%rdi), %rax
	movq	%rax, -24(%rbp)
Ltmp906:
	.loc	35 90 33
	leaq	-24(%rbp), %rax
	movq	%rax, -16(%rbp)
	.loc	35 90 13 is_stmt 0
	movq	-16(%rbp), %rsi
	leaq	l___unnamed_20(%rip), %rdi
	callq	__ZN3std6thread5local17LocalKey$LT$T$GT$4with17hc4ff26cd6e82039dE
Ltmp907:
	.loc	35 93 10 is_stmt 1
	addq	$32, %rsp
	popq	%rbp
	retq
Ltmp908:
Lfunc_end127:
	.cfi_endproc

	.globl	__ZN88_$LT$epaint..mutex..mutex_impl..MutexGuard$LT$T$GT$$u20$as$u20$core..ops..drop..Drop$GT$4drop17he8cb0d9204ac5dddE
	.p2align	4, 0x90
__ZN88_$LT$epaint..mutex..mutex_impl..MutexGuard$LT$T$GT$$u20$as$u20$core..ops..drop..Drop$GT$4drop17he8cb0d9204ac5dddE:
Lfunc_begin128:
	.loc	35 88 0
	.cfi_startproc
	pushq	%rbp
	.cfi_def_cfa_offset 16
	.cfi_offset %rbp, -16
	movq	%rsp, %rbp
	.cfi_def_cfa_register %rbp
	subq	$32, %rsp
	movq	%rdi, -8(%rbp)
Ltmp909:
	.loc	35 89 23 prologue_end
	movq	(%rdi), %rax
	movq	%rax, -24(%rbp)
Ltmp910:
	.loc	35 90 33
	leaq	-24(%rbp), %rax
	movq	%rax, -16(%rbp)
	.loc	35 90 13 is_stmt 0
	movq	-16(%rbp), %rsi
	leaq	l___unnamed_20(%rip), %rdi
	callq	__ZN3std6thread5local17LocalKey$LT$T$GT$4with17h559a67ad1ec40241E
Ltmp911:
	.loc	35 93 10 is_stmt 1
	addq	$32, %rsp
	popq	%rbp
	retq
Ltmp912:
Lfunc_end128:
	.cfi_endproc

	.globl	__ZN88_$LT$epaint..mutex..mutex_impl..MutexGuard$LT$T$GT$$u20$as$u20$core..ops..drop..Drop$GT$4drop28_$u7b$$u7b$closure$u7d$$u7d$17h9b4b01194d4e458dE
	.p2align	4, 0x90
__ZN88_$LT$epaint..mutex..mutex_impl..MutexGuard$LT$T$GT$$u20$as$u20$core..ops..drop..Drop$GT$4drop28_$u7b$$u7b$closure$u7d$$u7d$17h9b4b01194d4e458dE:
Lfunc_begin129:
	.loc	35 90 0
	.cfi_startproc
	.cfi_personality 155, _rust_eh_personality
	.cfi_lsda 16, Lexception25
	pushq	%rbp
	.cfi_def_cfa_offset 16
	.cfi_offset %rbp, -16
	movq	%rsp, %rbp
	.cfi_def_cfa_register %rbp
	subq	$96, %rsp
	movq	%rsi, -88(%rbp)
	movq	%rdi, %rax
	movq	-88(%rbp), %rdi
	movq	%rax, -72(%rbp)
	movq	%rdi, -48(%rbp)
Ltmp921:
	.loc	35 91 17 prologue_end
	leaq	l___unnamed_24(%rip), %rsi
	callq	__ZN4core4cell16RefCell$LT$T$GT$10borrow_mut17hd70a64fdd5c31491E
	movq	%rdx, -56(%rbp)
	movq	%rax, -64(%rbp)
Ltmp913:
	leaq	-64(%rbp), %rdi
	callq	__ZN74_$LT$core..cell..RefMut$LT$T$GT$$u20$as$u20$core..ops..deref..DerefMut$GT$9deref_mut17hd51807ee23c1e780E
Ltmp914:
	movq	%rax, -80(%rbp)
	jmp	LBB129_3
LBB129_1:
Ltmp918:
	.loc	35 0 17 is_stmt 0
	leaq	-64(%rbp), %rdi
	.loc	35 91 52
	callq	__ZN4core3ptr83drop_in_place$LT$core..cell..RefMut$LT$epaint..mutex..mutex_impl..HeldLocks$GT$$GT$17h9fab35c5c9702e5bE
Ltmp919:
	jmp	LBB129_7
LBB129_2:
Ltmp917:
	.loc	35 0 52
	movq	%rax, %rcx
	movl	%edx, %eax
	movq	%rcx, -40(%rbp)
	movl	%eax, -32(%rbp)
	jmp	LBB129_1
LBB129_3:
	movq	-80(%rbp), %rdi
	.loc	35 91 48
	movq	-72(%rbp), %rax
	movq	(%rax), %rax
	movq	%rax, -24(%rbp)
	movq	%rdi, -8(%rbp)
	leaq	-24(%rbp), %rax
Ltmp922:
	.loc	35 58 27 is_stmt 1
	movq	%rax, -16(%rbp)
	.loc	35 58 13 is_stmt 0
	movq	-16(%rbp), %rsi
Ltmp915:
	callq	__ZN5alloc3vec16Vec$LT$T$C$A$GT$6retain17ha03c711c18cd7125E
Ltmp916:
	jmp	LBB129_4
LBB129_4:
	.loc	35 59 10 is_stmt 1
	jmp	LBB129_5
Ltmp923:
LBB129_5:
	.loc	35 91 52
	leaq	-64(%rbp), %rdi
	callq	__ZN4core3ptr83drop_in_place$LT$core..cell..RefMut$LT$epaint..mutex..mutex_impl..HeldLocks$GT$$GT$17h9fab35c5c9702e5bE
	.loc	35 92 14
	addq	$96, %rsp
	popq	%rbp
	retq
LBB129_6:
Ltmp920:
	.loc	35 90 33
	callq	__ZN4core9panicking19panic_cannot_unwind17h1fbca7e1d7f56ae1E
LBB129_7:
	movq	-40(%rbp), %rdi
	callq	__Unwind_Resume
Ltmp924:
Lfunc_end129:
	.cfi_endproc
	.section	__TEXT,__gcc_except_tab
	.p2align	2
GCC_except_table129:
Lexception25:
	.byte	255
	.byte	255
	.byte	1
	.uleb128 Lcst_end25-Lcst_begin25
Lcst_begin25:
	.uleb128 Lfunc_begin129-Lfunc_begin129
	.uleb128 Ltmp913-Lfunc_begin129
	.byte	0
	.byte	0
	.uleb128 Ltmp913-Lfunc_begin129
	.uleb128 Ltmp914-Ltmp913
	.uleb128 Ltmp917-Lfunc_begin129
	.byte	0
	.uleb128 Ltmp918-Lfunc_begin129
	.uleb128 Ltmp919-Ltmp918
	.uleb128 Ltmp920-Lfunc_begin129
	.byte	0
	.uleb128 Ltmp915-Lfunc_begin129
	.uleb128 Ltmp916-Ltmp915
	.uleb128 Ltmp917-Lfunc_begin129
	.byte	0
	.uleb128 Ltmp916-Lfunc_begin129
	.uleb128 Lfunc_end129-Ltmp916
	.byte	0
	.byte	0
Lcst_end25:
	.p2align	2

	.section	__TEXT,__text,regular,pure_instructions
	.globl	__ZN88_$LT$epaint..mutex..mutex_impl..MutexGuard$LT$T$GT$$u20$as$u20$core..ops..drop..Drop$GT$4drop28_$u7b$$u7b$closure$u7d$$u7d$17h9ca6a36d48089418E
	.p2align	4, 0x90
__ZN88_$LT$epaint..mutex..mutex_impl..MutexGuard$LT$T$GT$$u20$as$u20$core..ops..drop..Drop$GT$4drop28_$u7b$$u7b$closure$u7d$$u7d$17h9ca6a36d48089418E:
Lfunc_begin130:
	.loc	35 90 0
	.cfi_startproc
	.cfi_personality 155, _rust_eh_personality
	.cfi_lsda 16, Lexception26
	pushq	%rbp
	.cfi_def_cfa_offset 16
	.cfi_offset %rbp, -16
	movq	%rsp, %rbp
	.cfi_def_cfa_register %rbp
	subq	$96, %rsp
	movq	%rsi, -88(%rbp)
	movq	%rdi, %rax
	movq	-88(%rbp), %rdi
	movq	%rax, -72(%rbp)
	movq	%rdi, -48(%rbp)
Ltmp933:
	.loc	35 91 17 prologue_end
	leaq	l___unnamed_24(%rip), %rsi
	callq	__ZN4core4cell16RefCell$LT$T$GT$10borrow_mut17hd70a64fdd5c31491E
	movq	%rdx, -56(%rbp)
	movq	%rax, -64(%rbp)
Ltmp925:
	leaq	-64(%rbp), %rdi
	callq	__ZN74_$LT$core..cell..RefMut$LT$T$GT$$u20$as$u20$core..ops..deref..DerefMut$GT$9deref_mut17hd51807ee23c1e780E
Ltmp926:
	movq	%rax, -80(%rbp)
	jmp	LBB130_3
LBB130_1:
Ltmp930:
	.loc	35 0 17 is_stmt 0
	leaq	-64(%rbp), %rdi
	.loc	35 91 52
	callq	__ZN4core3ptr83drop_in_place$LT$core..cell..RefMut$LT$epaint..mutex..mutex_impl..HeldLocks$GT$$GT$17h9fab35c5c9702e5bE
Ltmp931:
	jmp	LBB130_7
LBB130_2:
Ltmp929:
	.loc	35 0 52
	movq	%rax, %rcx
	movl	%edx, %eax
	movq	%rcx, -40(%rbp)
	movl	%eax, -32(%rbp)
	jmp	LBB130_1
LBB130_3:
	movq	-80(%rbp), %rdi
	.loc	35 91 48
	movq	-72(%rbp), %rax
	movq	(%rax), %rax
	movq	%rax, -24(%rbp)
	movq	%rdi, -8(%rbp)
	leaq	-24(%rbp), %rax
Ltmp934:
	.loc	35 58 27 is_stmt 1
	movq	%rax, -16(%rbp)
	.loc	35 58 13 is_stmt 0
	movq	-16(%rbp), %rsi
Ltmp927:
	callq	__ZN5alloc3vec16Vec$LT$T$C$A$GT$6retain17ha03c711c18cd7125E
Ltmp928:
	jmp	LBB130_4
LBB130_4:
	.loc	35 59 10 is_stmt 1
	jmp	LBB130_5
Ltmp935:
LBB130_5:
	.loc	35 91 52
	leaq	-64(%rbp), %rdi
	callq	__ZN4core3ptr83drop_in_place$LT$core..cell..RefMut$LT$epaint..mutex..mutex_impl..HeldLocks$GT$$GT$17h9fab35c5c9702e5bE
	.loc	35 92 14
	addq	$96, %rsp
	popq	%rbp
	retq
LBB130_6:
Ltmp932:
	.loc	35 90 33
	callq	__ZN4core9panicking19panic_cannot_unwind17h1fbca7e1d7f56ae1E
LBB130_7:
	movq	-40(%rbp), %rdi
	callq	__Unwind_Resume
Ltmp936:
Lfunc_end130:
	.cfi_endproc
	.section	__TEXT,__gcc_except_tab
	.p2align	2
GCC_except_table130:
Lexception26:
	.byte	255
	.byte	255
	.byte	1
	.uleb128 Lcst_end26-Lcst_begin26
Lcst_begin26:
	.uleb128 Lfunc_begin130-Lfunc_begin130
	.uleb128 Ltmp925-Lfunc_begin130
	.byte	0
	.byte	0
	.uleb128 Ltmp925-Lfunc_begin130
	.uleb128 Ltmp926-Ltmp925
	.uleb128 Ltmp929-Lfunc_begin130
	.byte	0
	.uleb128 Ltmp930-Lfunc_begin130
	.uleb128 Ltmp931-Ltmp930
	.uleb128 Ltmp932-Lfunc_begin130
	.byte	0
	.uleb128 Ltmp927-Lfunc_begin130
	.uleb128 Ltmp928-Ltmp927
	.uleb128 Ltmp929-Lfunc_begin130
	.byte	0
	.uleb128 Ltmp928-Lfunc_begin130
	.uleb128 Lfunc_end130-Ltmp928
	.byte	0
	.byte	0
Lcst_end26:
	.p2align	2

	.section	__TEXT,__text,regular,pure_instructions
	.globl	__ZN8lock_api5mutex18Mutex$LT$R$C$T$GT$4lock17h2b3aefb32dad7696E
	.p2align	4, 0x90
__ZN8lock_api5mutex18Mutex$LT$R$C$T$GT$4lock17h2b3aefb32dad7696E:
Lfunc_begin131:
	.loc	56 213 0
	.cfi_startproc
	pushq	%rbp
	.cfi_def_cfa_offset 16
	.cfi_offset %rbp, -16
	movq	%rsp, %rbp
	.cfi_def_cfa_register %rbp
	subq	$16, %rsp
	movq	%rdi, -16(%rbp)
	movq	%rdi, -8(%rbp)
Ltmp937:
	.loc	56 214 9 prologue_end
	callq	__ZN78_$LT$parking_lot..raw_mutex..RawMutex$u20$as$u20$lock_api..mutex..RawMutex$GT$4lock17h06757792a71fe239E
	movq	-16(%rbp), %rdi
	.loc	56 216 18
	callq	__ZN8lock_api5mutex18Mutex$LT$R$C$T$GT$5guard17hae1b1a00a6985cfeE
	.loc	56 217 6
	addq	$16, %rsp
	popq	%rbp
	retq
Ltmp938:
Lfunc_end131:
	.cfi_endproc

	.globl	__ZN8lock_api5mutex18Mutex$LT$R$C$T$GT$4lock17h4d9faed8f6da5297E
	.p2align	4, 0x90
__ZN8lock_api5mutex18Mutex$LT$R$C$T$GT$4lock17h4d9faed8f6da5297E:
Lfunc_begin132:
	.loc	56 213 0
	.cfi_startproc
	pushq	%rbp
	.cfi_def_cfa_offset 16
	.cfi_offset %rbp, -16
	movq	%rsp, %rbp
	.cfi_def_cfa_register %rbp
	subq	$16, %rsp
	movq	%rdi, -16(%rbp)
	movq	%rdi, -8(%rbp)
Ltmp939:
	.loc	56 214 9 prologue_end
	callq	__ZN78_$LT$parking_lot..raw_mutex..RawMutex$u20$as$u20$lock_api..mutex..RawMutex$GT$4lock17h06757792a71fe239E
	movq	-16(%rbp), %rdi
	.loc	56 216 18
	callq	__ZN8lock_api5mutex18Mutex$LT$R$C$T$GT$5guard17h35b6fb1336526d8fE
	.loc	56 217 6
	addq	$16, %rsp
	popq	%rbp
	retq
Ltmp940:
Lfunc_end132:
	.cfi_endproc

	.globl	__ZN8lock_api5mutex18Mutex$LT$R$C$T$GT$5guard17h35b6fb1336526d8fE
	.p2align	4, 0x90
__ZN8lock_api5mutex18Mutex$LT$R$C$T$GT$5guard17h35b6fb1336526d8fE:
Lfunc_begin133:
	.loc	56 196 0
	.cfi_startproc
	pushq	%rbp
	.cfi_def_cfa_offset 16
	.cfi_offset %rbp, -16
	movq	%rsp, %rbp
	.cfi_def_cfa_register %rbp
	subq	$16, %rsp
	movq	%rdi, -8(%rbp)
Ltmp941:
	.loc	56 197 9 prologue_end
	movq	%rdi, -16(%rbp)
	.loc	56 201 6
	movq	-16(%rbp), %rax
	addq	$16, %rsp
	popq	%rbp
	retq
Ltmp942:
Lfunc_end133:
	.cfi_endproc

	.globl	__ZN8lock_api5mutex18Mutex$LT$R$C$T$GT$5guard17hae1b1a00a6985cfeE
	.p2align	4, 0x90
__ZN8lock_api5mutex18Mutex$LT$R$C$T$GT$5guard17hae1b1a00a6985cfeE:
Lfunc_begin134:
	.loc	56 196 0
	.cfi_startproc
	pushq	%rbp
	.cfi_def_cfa_offset 16
	.cfi_offset %rbp, -16
	movq	%rsp, %rbp
	.cfi_def_cfa_register %rbp
	subq	$16, %rsp
	movq	%rdi, -8(%rbp)
Ltmp943:
	.loc	56 197 9 prologue_end
	movq	%rdi, -16(%rbp)
	.loc	56 201 6
	movq	-16(%rbp), %rax
	addq	$16, %rsp
	popq	%rbp
	retq
Ltmp944:
Lfunc_end134:
	.cfi_endproc

	.globl	__ZN91_$LT$core..slice..iter..Iter$LT$T$GT$$u20$as$u20$core..iter..traits..iterator..Iterator$GT$4next17h46f6d084e2f2d05bE
	.p2align	4, 0x90
__ZN91_$LT$core..slice..iter..Iter$LT$T$GT$$u20$as$u20$core..iter..traits..iterator..Iterator$GT$4next17h46f6d084e2f2d05bE:
Lfunc_begin135:
	.file	57 "/rustc/2c8cc343237b8f7d5a3c3703e3a87f2eb2c54a74/library/core/src/slice/iter" "macros.rs"
	.loc	57 124 0
	.cfi_startproc
	pushq	%rbp
	.cfi_def_cfa_offset 16
	.cfi_offset %rbp, -16
	movq	%rsp, %rbp
	.cfi_def_cfa_register %rbp
	subq	$304, %rsp
	movq	%rdi, -304(%rbp)
	movq	%rdi, -240(%rbp)
Ltmp945:
	.loc	57 132 29 prologue_end
	movq	8(%rdi), %rax
	movq	%rax, -224(%rbp)
Ltmp946:
	.loc	29 326 9
	movq	%rax, -216(%rbp)
Ltmp947:
	.loc	40 52 36
	movq	%rax, -280(%rbp)
	.loc	40 52 18 is_stmt 0
	movq	-280(%rbp), %rax
	movq	%rax, -208(%rbp)
Ltmp948:
	.loc	40 38 13 is_stmt 1
	movq	%rax, -200(%rbp)
Ltmp949:
	.loc	40 215 33
	movq	%rax, -192(%rbp)
	.loc	40 215 18 is_stmt 0
	movq	%rax, -184(%rbp)
Ltmp950:
	.loc	57 133 24 is_stmt 1
	movb	$1, %al
	testb	$1, %al
	jne	LBB135_2
LBB135_1:
	.loc	57 0 24 is_stmt 0
	movq	-304(%rbp), %rcx
	.loc	57 136 24 is_stmt 1
	movq	8(%rcx), %rax
	movq	%rax, -136(%rbp)
	cmpq	(%rcx), %rax
	je	LBB135_4
	jmp	LBB135_3
LBB135_2:
	.loc	57 0 24 is_stmt 0
	movq	-304(%rbp), %rax
	.loc	57 134 33 is_stmt 1
	movq	(%rax), %rax
	movq	%rax, -176(%rbp)
Ltmp951:
	.loc	19 53 36
	movq	%rax, -272(%rbp)
	.loc	19 53 18 is_stmt 0
	movq	-272(%rbp), %rax
	movq	%rax, -168(%rbp)
Ltmp952:
	.loc	19 39 13 is_stmt 1
	movq	%rax, -160(%rbp)
Ltmp953:
	.loc	19 209 33
	movq	%rax, -152(%rbp)
	.loc	19 209 18 is_stmt 0
	movq	%rax, -144(%rbp)
Ltmp954:
	.loc	57 133 21 is_stmt 1
	jmp	LBB135_1
LBB135_3:
	.loc	57 0 21 is_stmt 0
	movq	-304(%rbp), %rax
	.loc	57 139 30 is_stmt 1
	movq	%rax, -128(%rbp)
Ltmp955:
	.loc	57 76 20
	xorl	%eax, %eax
	testb	$1, %al
	jne	LBB135_6
	jmp	LBB135_7
Ltmp956:
LBB135_4:
	.loc	57 137 25
	movq	$0, -296(%rbp)
LBB135_5:
	.loc	57 142 14
	movq	-296(%rbp), %rax
	addq	$304, %rsp
	popq	%rbp
	retq
LBB135_6:
	.loc	57 0 14 is_stmt 0
	movq	-304(%rbp), %rax
Ltmp957:
	.loc	57 57 29 is_stmt 1
	movq	(%rax), %rcx
	movq	%rcx, -64(%rbp)
Ltmp958:
	.loc	19 1198 9
	movq	%rcx, -56(%rbp)
Ltmp959:
	.loc	19 61 9
	movq	%rcx, -48(%rbp)
Ltmp960:
	.loc	19 1180 9
	movq	%rcx, -40(%rbp)
Ltmp961:
	.loc	19 555 18
	addq	$-1, %rcx
	movq	%rcx, -32(%rbp)
	movq	-32(%rbp), %rcx
	movq	%rcx, -24(%rbp)
Ltmp962:
	.loc	19 100 29
	movq	%rcx, -16(%rbp)
Ltmp963:
	.loc	28 118 36
	movq	%rcx, -248(%rbp)
	.loc	28 118 14 is_stmt 0
	movq	-248(%rbp), %rcx
	movq	%rcx, -256(%rbp)
	movq	-256(%rbp), %rcx
Ltmp964:
	.loc	57 57 17 is_stmt 1
	movq	%rcx, (%rax)
	.loc	57 78 21
	movq	8(%rax), %rax
	movq	%rax, -8(%rbp)
	movq	%rax, -288(%rbp)
	.loc	57 76 17
	jmp	LBB135_8
LBB135_7:
	.loc	57 0 17 is_stmt 0
	movq	-304(%rbp), %rcx
	.loc	57 80 31 is_stmt 1
	movq	8(%rcx), %rax
	movq	%rax, -120(%rbp)
Ltmp965:
	.loc	29 326 9
	movq	%rax, -112(%rbp)
Ltmp966:
	.loc	57 83 64
	movq	8(%rcx), %rdx
	movq	%rdx, -104(%rbp)
Ltmp967:
	.loc	29 326 9
	movq	%rdx, -96(%rbp)
Ltmp968:
	.loc	40 1034 18
	movq	%rdx, -88(%rbp)
Ltmp969:
	.loc	40 487 18
	addq	$16, %rdx
	movq	%rdx, -80(%rbp)
	movq	-80(%rbp), %rdx
	movq	%rdx, -72(%rbp)
Ltmp970:
	.loc	29 201 13
	movq	%rdx, -264(%rbp)
Ltmp971:
	.loc	57 83 21
	movq	-264(%rbp), %rdx
	movq	%rdx, 8(%rcx)
	.loc	57 84 21
	movq	%rax, -288(%rbp)
Ltmp972:
LBB135_8:
	.loc	57 139 30
	movq	-288(%rbp), %rax
	.loc	57 139 25 is_stmt 0
	movq	%rax, -296(%rbp)
	.loc	57 136 21 is_stmt 1
	jmp	LBB135_5
Ltmp973:
Lfunc_end135:
	.cfi_endproc

	.globl	__ZN91_$LT$core..slice..iter..Iter$LT$T$GT$$u20$as$u20$core..iter..traits..iterator..Iterator$GT$8for_each17hb9547911c97cf518E
	.p2align	4, 0x90
__ZN91_$LT$core..slice..iter..Iter$LT$T$GT$$u20$as$u20$core..iter..traits..iterator..Iterator$GT$8for_each17hb9547911c97cf518E:
Lfunc_begin136:
	.loc	57 195 0
	.cfi_startproc
	.cfi_personality 155, _rust_eh_personality
	.cfi_lsda 16, Lexception27
	pushq	%rbp
	.cfi_def_cfa_offset 16
	.cfi_offset %rbp, -16
	movq	%rsp, %rbp
	.cfi_def_cfa_register %rbp
	subq	$80, %rsp
	movq	%rdx, -64(%rbp)
Ltmp979:
	movq	%rdi, -56(%rbp)
	movq	%rsi, -48(%rbp)
Ltmp980:
LBB136_1:
Ltmp974:
	leaq	-56(%rbp), %rdi
Ltmp981:
	.loc	57 200 37 prologue_end
	callq	__ZN91_$LT$core..slice..iter..Iter$LT$T$GT$$u20$as$u20$core..iter..traits..iterator..Iterator$GT$4next17h46f6d084e2f2d05bE
Ltmp975:
	movq	%rax, -72(%rbp)
	jmp	LBB136_4
Ltmp982:
LBB136_2:
	.loc	57 195 13
	movq	-24(%rbp), %rdi
	callq	__Unwind_Resume
Ltmp983:
LBB136_3:
Ltmp978:
	.loc	57 0 13 is_stmt 0
	movq	%rax, %rcx
	movl	%edx, %eax
	movq	%rcx, -24(%rbp)
	movl	%eax, -16(%rbp)
	jmp	LBB136_2
Ltmp984:
LBB136_4:
	movq	-72(%rbp), %rax
Ltmp985:
	.loc	57 200 37 is_stmt 1
	movq	%rax, -40(%rbp)
	.loc	57 200 27 is_stmt 0
	movq	-40(%rbp), %rdx
	movl	$1, %eax
	xorl	%ecx, %ecx
	cmpq	$0, %rdx
	cmoveq	%rcx, %rax
	cmpq	$1, %rax
	jne	LBB136_6
Ltmp986:
	.loc	57 0 27
	movq	-64(%rbp), %rdi
	.loc	57 200 32
	movq	-40(%rbp), %rax
	movq	%rax, -8(%rbp)
	.loc	57 201 21 is_stmt 1
	movq	%rax, -32(%rbp)
	movq	-32(%rbp), %rsi
Ltmp976:
	callq	__ZN11egui_extras6sizing6Sizing10to_lengths28_$u7b$$u7b$closure$u7d$$u7d$17h44c0f3a6fd39b5bdE
Ltmp977:
	jmp	LBB136_7
Ltmp987:
LBB136_6:
	.loc	57 203 14
	addq	$80, %rsp
	popq	%rbp
	retq
Ltmp988:
LBB136_7:
	.loc	57 200 17
	jmp	LBB136_1
Ltmp989:
Lfunc_end136:
	.cfi_endproc
	.section	__TEXT,__gcc_except_tab
	.p2align	2
GCC_except_table136:
Lexception27:
	.byte	255
	.byte	255
	.byte	1
	.uleb128 Lcst_end27-Lcst_begin27
Lcst_begin27:
	.uleb128 Ltmp974-Lfunc_begin136
	.uleb128 Ltmp975-Ltmp974
	.uleb128 Ltmp978-Lfunc_begin136
	.byte	0
	.uleb128 Ltmp975-Lfunc_begin136
	.uleb128 Ltmp976-Ltmp975
	.byte	0
	.byte	0
	.uleb128 Ltmp976-Lfunc_begin136
	.uleb128 Ltmp977-Ltmp976
	.uleb128 Ltmp978-Lfunc_begin136
	.byte	0
Lcst_end27:
	.p2align	2

	.section	__TEXT,__text,regular,pure_instructions
	.globl	__ZN91_$LT$core..slice..iter..Iter$LT$T$GT$$u20$as$u20$core..iter..traits..iterator..Iterator$GT$9size_hint17h117c9bfb102fc8efE
	.p2align	4, 0x90
__ZN91_$LT$core..slice..iter..Iter$LT$T$GT$$u20$as$u20$core..iter..traits..iterator..Iterator$GT$9size_hint17h117c9bfb102fc8efE:
Lfunc_begin137:
	.loc	57 145 0
	.cfi_startproc
	pushq	%rbp
	.cfi_def_cfa_offset 16
	.cfi_offset %rbp, -16
	movq	%rsp, %rbp
	.cfi_def_cfa_register %rbp
	subq	$160, %rsp
	movq	%rsi, -152(%rbp)
	movq	%rdi, -144(%rbp)
	movq	%rdi, -136(%rbp)
	movq	%rsi, -96(%rbp)
Ltmp990:
	.loc	57 146 29 prologue_end
	movq	8(%rsi), %rax
	movq	%rax, -128(%rbp)
	movq	%rax, -88(%rbp)
Ltmp991:
	.loc	57 146 29 is_stmt 0
	xorl	%eax, %eax
	testb	$1, %al
	jne	LBB137_2
	.loc	57 0 29
	movq	-128(%rbp), %rsi
	movq	-152(%rbp), %rax
	.loc	57 146 29
	movq	(%rax), %rdi
	movq	%rsi, -8(%rbp)
	callq	__ZN4core3ptr9const_ptr33_$LT$impl$u20$$BP$const$u20$T$GT$7sub_ptr17h151b22af397e47a2E
	movq	%rax, -120(%rbp)
	jmp	LBB137_3
LBB137_2:
	.loc	57 0 29
	movq	-128(%rbp), %rcx
	movq	-152(%rbp), %rax
	.loc	57 146 29
	movq	(%rax), %rax
	movq	%rax, -80(%rbp)
Ltmp992:
	.loc	19 209 33 is_stmt 1
	movq	%rax, -72(%rbp)
	.loc	19 209 18 is_stmt 0
	movq	%rax, -64(%rbp)
	movq	-64(%rbp), %rax
	movq	%rax, -56(%rbp)
Ltmp993:
	.loc	57 146 29 is_stmt 1
	movq	%rcx, -48(%rbp)
Ltmp994:
	.loc	29 326 9
	movq	%rcx, -40(%rbp)
Ltmp995:
	.loc	40 215 33
	movq	%rcx, -32(%rbp)
	.loc	40 215 18 is_stmt 0
	movq	%rcx, -24(%rbp)
	movq	-24(%rbp), %rcx
	movq	%rcx, -16(%rbp)
Ltmp996:
	.loc	18 1203 13 is_stmt 1
	subq	%rcx, %rax
	movq	%rax, -120(%rbp)
Ltmp997:
LBB137_3:
	.loc	18 0 13 is_stmt 0
	movq	-136(%rbp), %rax
	movq	-144(%rbp), %rcx
Ltmp998:
	.loc	57 147 18 is_stmt 1
	movq	-120(%rbp), %rdx
	.loc	57 147 30 is_stmt 0
	movq	-120(%rbp), %rsi
	.loc	57 147 25
	movq	%rsi, -104(%rbp)
	movq	$1, -112(%rbp)
	.loc	57 147 17
	movq	%rdx, (%rcx)
	movq	-112(%rbp), %rsi
	movq	-104(%rbp), %rdx
	movq	%rsi, 8(%rcx)
	movq	%rdx, 16(%rcx)
Ltmp999:
	.loc	57 148 14 is_stmt 1
	addq	$160, %rsp
	popq	%rbp
	retq
Ltmp1000:
Lfunc_end137:
	.cfi_endproc

	.globl	__ZN95_$LT$alloc..vec..Vec$LT$T$GT$$u20$as$u20$core..iter..traits..collect..FromIterator$LT$T$GT$$GT$9from_iter17hf5a2ea92a72eb541E
	.p2align	4, 0x90
__ZN95_$LT$alloc..vec..Vec$LT$T$GT$$u20$as$u20$core..iter..traits..collect..FromIterator$LT$T$GT$$GT$9from_iter17hf5a2ea92a72eb541E:
Lfunc_begin138:
	.loc	3 2752 0
	.cfi_startproc
	pushq	%rbp
	.cfi_def_cfa_offset 16
	.cfi_offset %rbp, -16
	movq	%rsp, %rbp
	.cfi_def_cfa_register %rbp
	subq	$80, %rsp
	movq	%rdi, -80(%rbp)
	movq	%rdi, -72(%rbp)
Ltmp1001:
	.loc	3 2753 59 prologue_end
	movq	(%rsi), %rax
	movq	%rax, -32(%rbp)
	movq	8(%rsi), %rax
	movq	%rax, -24(%rbp)
	movq	16(%rsi), %rax
	movq	%rax, -16(%rbp)
	movq	24(%rsi), %rax
	movq	%rax, -8(%rbp)
	leaq	-64(%rbp), %rdi
	leaq	-32(%rbp), %rsi
Ltmp1002:
	callq	__ZN63_$LT$I$u20$as$u20$core..iter..traits..collect..IntoIterator$GT$9into_iter17h05c866e4ee3f8e54E
	movq	-80(%rbp), %rdi
	.loc	3 2753 9 is_stmt 0
	leaq	-64(%rbp), %rsi
	callq	__ZN98_$LT$alloc..vec..Vec$LT$T$GT$$u20$as$u20$alloc..vec..spec_from_iter..SpecFromIter$LT$T$C$I$GT$$GT$9from_iter17h7c4e75e55b10c408E
	movq	-72(%rbp), %rax
	.loc	3 2754 6 is_stmt 1
	addq	$80, %rsp
	popq	%rbp
	retq
Ltmp1003:
Lfunc_end138:
	.cfi_endproc

	.globl	__ZN97_$LT$alloc..vec..Vec$LT$T$C$A$GT$$u20$as$u20$alloc..vec..spec_extend..SpecExtend$LT$T$C$I$GT$$GT$11spec_extend17hbb7f0a3625654d75E
	.p2align	4, 0x90
__ZN97_$LT$alloc..vec..Vec$LT$T$C$A$GT$$u20$as$u20$alloc..vec..spec_extend..SpecExtend$LT$T$C$I$GT$$GT$11spec_extend17hbb7f0a3625654d75E:
Lfunc_begin139:
	.file	58 "/rustc/2c8cc343237b8f7d5a3c3703e3a87f2eb2c54a74/library/alloc/src/vec" "spec_extend.rs"
	.loc	58 25 0
	.cfi_startproc
	pushq	%rbp
	.cfi_def_cfa_offset 16
	.cfi_offset %rbp, -16
	movq	%rsp, %rbp
	.cfi_def_cfa_register %rbp
	subq	$48, %rsp
	movq	%rdi, -8(%rbp)
Ltmp1004:
	.loc	58 26 29 prologue_end
	movq	(%rsi), %rax
	movq	%rax, -40(%rbp)
	movq	8(%rsi), %rax
	movq	%rax, -32(%rbp)
	movq	16(%rsi), %rax
	movq	%rax, -24(%rbp)
	movq	24(%rsi), %rax
	movq	%rax, -16(%rbp)
	.loc	58 26 9 is_stmt 0
	leaq	-40(%rbp), %rsi
Ltmp1005:
	callq	__ZN5alloc3vec16Vec$LT$T$C$A$GT$14extend_trusted17h58ff7e02d2aabb6dE
	.loc	58 27 6 is_stmt 1
	addq	$48, %rsp
	popq	%rbp
	retq
Ltmp1006:
Lfunc_end139:
	.cfi_endproc

	.globl	__ZN98_$LT$alloc..vec..Vec$LT$T$GT$$u20$as$u20$alloc..vec..spec_from_iter..SpecFromIter$LT$T$C$I$GT$$GT$9from_iter17h7c4e75e55b10c408E
	.p2align	4, 0x90
__ZN98_$LT$alloc..vec..Vec$LT$T$GT$$u20$as$u20$alloc..vec..spec_from_iter..SpecFromIter$LT$T$C$I$GT$$GT$9from_iter17h7c4e75e55b10c408E:
Lfunc_begin140:
	.file	59 "/rustc/2c8cc343237b8f7d5a3c3703e3a87f2eb2c54a74/library/alloc/src/vec" "spec_from_iter.rs"
	.loc	59 32 0
	.cfi_startproc
	pushq	%rbp
	.cfi_def_cfa_offset 16
	.cfi_offset %rbp, -16
	movq	%rsp, %rbp
	.cfi_def_cfa_register %rbp
	subq	$48, %rsp
	movq	%rdi, %rax
	movq	%rax, -40(%rbp)
Ltmp1007:
	.loc	59 33 39 prologue_end
	movq	(%rsi), %rax
	movq	%rax, -32(%rbp)
	movq	8(%rsi), %rax
	movq	%rax, -24(%rbp)
	movq	16(%rsi), %rax
	movq	%rax, -16(%rbp)
	movq	24(%rsi), %rax
	movq	%rax, -8(%rbp)
	.loc	59 33 9 is_stmt 0
	leaq	-32(%rbp), %rsi
Ltmp1008:
	callq	__ZN111_$LT$alloc..vec..Vec$LT$T$GT$$u20$as$u20$alloc..vec..spec_from_iter_nested..SpecFromIterNested$LT$T$C$I$GT$$GT$9from_iter17h3baab189fa9e1644E
	movq	-40(%rbp), %rax
	.loc	59 34 6 is_stmt 1
	addq	$48, %rsp
	popq	%rbp
	retq
Ltmp1009:
Lfunc_end140:
	.cfi_endproc

	.globl	__ZN11egui_extras5image13RetainedImage19with_texture_filter17hd236b92e5a17ec1eE
	.p2align	4, 0x90
__ZN11egui_extras5image13RetainedImage19with_texture_filter17hd236b92e5a17ec1eE:
Lfunc_begin141:
	.file	60 "/Users/natalie/.cargo/registry/src/github.com-1ecc6299db9ec823/egui_extras-0.19.0" "src/image.rs"
	.loc	60 90 0
	.cfi_startproc
	.cfi_personality 155, _rust_eh_personality
	.cfi_lsda 16, Lexception28
	pushq	%rbp
	.cfi_def_cfa_offset 16
	.cfi_offset %rbp, -16
	movq	%rsp, %rbp
	.cfi_def_cfa_register %rbp
	subq	$128, %rsp
	movq	%rsi, -112(%rbp)
Ltmp1031:
	movq	%rdi, %rcx
	movq	-112(%rbp), %rdi
	movq	%rcx, -104(%rbp)
	movb	%dl, %al
	movq	%rcx, -96(%rbp)
	andb	$1, %al
	movb	%al, -25(%rbp)
Ltmp1032:
	.loc	60 91 23 prologue_end
	movb	$0, -26(%rbp)
	.loc	60 91 9 is_stmt 0
	movb	%al, 120(%rdi)
	.loc	60 95 32 is_stmt 1
	movb	$1, -26(%rbp)
	movq	$2, -72(%rbp)
Ltmp1010:
	.loc	60 95 10 is_stmt 0
	callq	__ZN6epaint5mutex10mutex_impl14Mutex$LT$T$GT$4lock17h4fc3d19868e2e2beE
Ltmp1011:
	movq	%rdx, -88(%rbp)
	movq	%rax, -80(%rbp)
	jmp	LBB141_3
Ltmp1033:
LBB141_1:
Ltmp1013:
	.loc	60 0 10
	leaq	-72(%rbp), %rdi
	.loc	60 95 35
	callq	__ZN4core3ptr86drop_in_place$LT$core..option..Option$LT$epaint..texture_handle..TextureHandle$GT$$GT$17h16adc8e40e12c782E
Ltmp1014:
	jmp	LBB141_6
Ltmp1034:
LBB141_2:
Ltmp1012:
	.loc	60 0 35
	movq	%rax, %rcx
	movl	%edx, %eax
	movq	%rcx, -24(%rbp)
	movl	%eax, -16(%rbp)
	jmp	LBB141_1
Ltmp1035:
LBB141_3:
	movq	-88(%rbp), %rax
	movq	-80(%rbp), %rcx
	.loc	60 95 10
	movq	%rcx, -48(%rbp)
	movq	%rax, -40(%rbp)
	leaq	-40(%rbp), %rdi
	leaq	-48(%rbp), %rax
	movq	%rax, -8(%rbp)
Ltmp1015:
Ltmp1036:
	.loc	35 108 13 is_stmt 1
	callq	__ZN87_$LT$lock_api..mutex..MutexGuard$LT$R$C$T$GT$$u20$as$u20$core..ops..deref..DerefMut$GT$9deref_mut17h9341731c2c5b111dE
Ltmp1016:
	movq	%rax, -120(%rbp)
	jmp	LBB141_4
Ltmp1037:
LBB141_4:
	.loc	35 109 10
	jmp	LBB141_9
Ltmp1038:
LBB141_5:
Ltmp1030:
	.loc	60 90 5
	callq	__ZN4core9panicking19panic_cannot_unwind17h1fbca7e1d7f56ae1E
Ltmp1039:
LBB141_6:
Ltmp1028:
	.loc	60 0 5 is_stmt 0
	movq	-112(%rbp), %rdi
	.loc	60 98 5 is_stmt 1
	callq	__ZN4core3ptr54drop_in_place$LT$egui_extras..image..RetainedImage$GT$17h95f8ff007267252aE
Ltmp1029:
	jmp	LBB141_17
Ltmp1040:
LBB141_7:
	.loc	60 95 35
	testb	$1, -26(%rbp)
	jne	LBB141_14
	jmp	LBB141_13
Ltmp1041:
LBB141_8:
Ltmp1017:
	.loc	60 0 35 is_stmt 0
	movq	%rax, %rcx
	movl	%edx, %eax
	movq	%rcx, -24(%rbp)
	movl	%eax, -16(%rbp)
	jmp	LBB141_7
Ltmp1042:
LBB141_9:
	movq	-120(%rbp), %rdi
	.loc	60 95 9
	movb	$0, -26(%rbp)
Ltmp1018:
	callq	__ZN4core3ptr86drop_in_place$LT$core..option..Option$LT$epaint..texture_handle..TextureHandle$GT$$GT$17h16adc8e40e12c782E
Ltmp1019:
	jmp	LBB141_12
Ltmp1043:
LBB141_10:
	.loc	60 0 9
	movq	-120(%rbp), %rax
	.loc	60 95 9
	movq	-72(%rbp), %rcx
	movq	%rcx, (%rax)
	movq	-64(%rbp), %rcx
	movq	%rcx, 8(%rax)
	movq	-56(%rbp), %rcx
	movq	%rcx, 16(%rax)
	jmp	LBB141_7
Ltmp1044:
LBB141_11:
Ltmp1020:
	.loc	60 0 9
	movq	%rax, %rcx
	movl	%edx, %eax
	movq	%rcx, -24(%rbp)
	movl	%eax, -16(%rbp)
	jmp	LBB141_10
Ltmp1045:
LBB141_12:
	movq	-120(%rbp), %rax
	.loc	60 95 9
	movq	-56(%rbp), %rcx
	movq	%rcx, 16(%rax)
	movq	-72(%rbp), %rcx
	movq	-64(%rbp), %rdx
	movq	%rdx, 8(%rax)
	movq	%rcx, (%rax)
	.loc	60 95 35
	movb	$0, -26(%rbp)
Ltmp1025:
	leaq	-48(%rbp), %rdi
	.loc	60 95 36
	callq	__ZN4core3ptr131drop_in_place$LT$epaint..mutex..mutex_impl..MutexGuard$LT$core..option..Option$LT$epaint..texture_handle..TextureHandle$GT$$GT$$GT$17h9f493e83e0593ce6E
Ltmp1026:
	jmp	LBB141_16
Ltmp1046:
LBB141_13:
Ltmp1023:
	.loc	60 0 36
	leaq	-48(%rbp), %rdi
	.loc	60 95 36
	callq	__ZN4core3ptr131drop_in_place$LT$epaint..mutex..mutex_impl..MutexGuard$LT$core..option..Option$LT$epaint..texture_handle..TextureHandle$GT$$GT$$GT$17h9f493e83e0593ce6E
Ltmp1024:
	jmp	LBB141_6
Ltmp1047:
LBB141_14:
Ltmp1021:
	.loc	60 0 36
	leaq	-72(%rbp), %rdi
	.loc	60 95 35
	callq	__ZN4core3ptr86drop_in_place$LT$core..option..Option$LT$epaint..texture_handle..TextureHandle$GT$$GT$17h16adc8e40e12c782E
Ltmp1022:
	jmp	LBB141_13
Ltmp1048:
LBB141_15:
Ltmp1027:
	.loc	60 0 35
	movq	%rax, %rcx
	movl	%edx, %eax
	movq	%rcx, -24(%rbp)
	movl	%eax, -16(%rbp)
	jmp	LBB141_6
Ltmp1049:
LBB141_16:
	movq	-112(%rbp), %rsi
	movq	-104(%rbp), %rdi
	.loc	60 97 9 is_stmt 1
	movl	$128, %edx
	callq	_memcpy
	movq	-96(%rbp), %rax
	.loc	60 98 6
	addq	$128, %rsp
	popq	%rbp
	retq
Ltmp1050:
LBB141_17:
	.loc	60 90 5
	movq	-24(%rbp), %rdi
	callq	__Unwind_Resume
Ltmp1051:
Lfunc_end141:
	.cfi_endproc
	.section	__TEXT,__gcc_except_tab
	.p2align	2
GCC_except_table141:
Lexception28:
	.byte	255
	.byte	255
	.byte	1
	.uleb128 Lcst_end28-Lcst_begin28
Lcst_begin28:
	.uleb128 Ltmp1010-Lfunc_begin141
	.uleb128 Ltmp1011-Ltmp1010
	.uleb128 Ltmp1012-Lfunc_begin141
	.byte	0
	.uleb128 Ltmp1013-Lfunc_begin141
	.uleb128 Ltmp1014-Ltmp1013
	.uleb128 Ltmp1030-Lfunc_begin141
	.byte	0
	.uleb128 Ltmp1015-Lfunc_begin141
	.uleb128 Ltmp1016-Ltmp1015
	.uleb128 Ltmp1017-Lfunc_begin141
	.byte	0
	.uleb128 Ltmp1028-Lfunc_begin141
	.uleb128 Ltmp1029-Ltmp1028
	.uleb128 Ltmp1030-Lfunc_begin141
	.byte	0
	.uleb128 Ltmp1018-Lfunc_begin141
	.uleb128 Ltmp1019-Ltmp1018
	.uleb128 Ltmp1020-Lfunc_begin141
	.byte	0
	.uleb128 Ltmp1025-Lfunc_begin141
	.uleb128 Ltmp1026-Ltmp1025
	.uleb128 Ltmp1027-Lfunc_begin141
	.byte	0
	.uleb128 Ltmp1023-Lfunc_begin141
	.uleb128 Ltmp1022-Ltmp1023
	.uleb128 Ltmp1030-Lfunc_begin141
	.byte	0
	.uleb128 Ltmp1022-Lfunc_begin141
	.uleb128 Lfunc_end141-Ltmp1022
	.byte	0
	.byte	0
Lcst_end28:
	.p2align	2

	.section	__TEXT,__text,regular,pure_instructions
	.globl	__ZN11egui_extras5image13RetainedImage4size17hf8c235cf6aa82deeE
	.p2align	4, 0x90
__ZN11egui_extras5image13RetainedImage4size17hf8c235cf6aa82deeE:
Lfunc_begin142:
	.loc	60 101 0
	.cfi_startproc
	pushq	%rbp
	.cfi_def_cfa_offset 16
	.cfi_offset %rbp, -16
	movq	%rsp, %rbp
	.cfi_def_cfa_register %rbp
	pushq	%rax
	movq	%rdi, %rax
	movq	%rsi, -8(%rbp)
Ltmp1052:
	.loc	60 102 9 prologue_end
	movq	32(%rsi), %rcx
	movq	%rcx, (%rdi)
	movq	40(%rsi), %rcx
	movq	%rcx, 8(%rdi)
	.loc	60 103 6
	addq	$8, %rsp
	popq	%rbp
	retq
Ltmp1053:
Lfunc_end142:
	.cfi_endproc

	.globl	__ZN11egui_extras5image13RetainedImage5width17h019aa82d1defc576E
	.p2align	4, 0x90
__ZN11egui_extras5image13RetainedImage5width17h019aa82d1defc576E:
Lfunc_begin143:
	.loc	60 106 0
	.cfi_startproc
	pushq	%rbp
	.cfi_def_cfa_offset 16
	.cfi_offset %rbp, -16
	movq	%rsp, %rbp
	.cfi_def_cfa_register %rbp
	pushq	%rax
	movq	%rdi, -8(%rbp)
Ltmp1054:
	.loc	60 107 9 prologue_end
	movq	32(%rdi), %rax
	.loc	60 108 6
	addq	$8, %rsp
	popq	%rbp
	retq
Ltmp1055:
Lfunc_end143:
	.cfi_endproc

	.globl	__ZN11egui_extras5image13RetainedImage6height17hd381814b21d0ea3fE
	.p2align	4, 0x90
__ZN11egui_extras5image13RetainedImage6height17hd381814b21d0ea3fE:
Lfunc_begin144:
	.loc	60 111 0
	.cfi_startproc
	pushq	%rbp
	.cfi_def_cfa_offset 16
	.cfi_offset %rbp, -16
	movq	%rsp, %rbp
	.cfi_def_cfa_register %rbp
	pushq	%rax
	movq	%rdi, -8(%rbp)
Ltmp1056:
	.loc	60 112 9 prologue_end
	movq	40(%rdi), %rax
	.loc	60 113 6
	addq	$8, %rsp
	popq	%rbp
	retq
Ltmp1057:
Lfunc_end144:
	.cfi_endproc

	.globl	__ZN11egui_extras5image13RetainedImage9size_vec217h6eaaf4c0d6d3ea50E
	.p2align	4, 0x90
__ZN11egui_extras5image13RetainedImage9size_vec217h6eaaf4c0d6d3ea50E:
Lfunc_begin145:
	.loc	60 116 0
	.cfi_startproc
	pushq	%rbp
	.cfi_def_cfa_offset 16
	.cfi_offset %rbp, -16
	movq	%rsp, %rbp
	.cfi_def_cfa_register %rbp
	subq	$96, %rsp
	movq	%rdi, %rsi
	movq	%rsi, -40(%rbp)
	leaq	-56(%rbp), %rdi
Ltmp1058:
	.loc	60 117 22 prologue_end
	callq	__ZN11egui_extras5image13RetainedImage4size17hf8c235cf6aa82deeE
	.loc	60 117 14 is_stmt 0
	movq	-56(%rbp), %rax
	movq	%rax, -32(%rbp)
	.loc	60 117 17
	movq	-48(%rbp), %rcx
	movq	%rcx, -72(%rbp)
	movq	%rcx, -24(%rbp)
Ltmp1059:
	.loc	60 118 20 is_stmt 1
	movq	%rax, %rdx
	shrq	%rdx
	movl	%eax, %ecx
	andl	$1, %ecx
	orq	%rdx, %rcx
	cvtsi2ss	%rcx, %xmm0
	addss	%xmm0, %xmm0
	cvtsi2ss	%rax, %xmm1
	movss	%xmm1, -64(%rbp)
	testq	%rax, %rax
	movss	%xmm0, -60(%rbp)
	js	LBB145_2
	.loc	60 0 20 is_stmt 0
	movss	-64(%rbp), %xmm0
	movss	%xmm0, -60(%rbp)
LBB145_2:
	movq	-72(%rbp), %rax
	movss	-60(%rbp), %xmm0
	movss	%xmm0, -84(%rbp)
	.loc	60 118 30
	movq	%rax, %rdx
	shrq	%rdx
	movl	%eax, %ecx
	andl	$1, %ecx
	orq	%rdx, %rcx
	cvtsi2ss	%rcx, %xmm0
	addss	%xmm0, %xmm0
	cvtsi2ss	%rax, %xmm1
	movss	%xmm1, -80(%rbp)
	testq	%rax, %rax
	movss	%xmm0, -76(%rbp)
	js	LBB145_4
	.loc	60 0 30
	movss	-80(%rbp), %xmm0
	movss	%xmm0, -76(%rbp)
LBB145_4:
	movss	-84(%rbp), %xmm1
	movss	-76(%rbp), %xmm0
	movss	%xmm1, -8(%rbp)
	movss	%xmm0, -4(%rbp)
Ltmp1060:
	.file	61 "/Users/natalie/.cargo/registry/src/github.com-1ecc6299db9ec823/emath-0.19.0/src" "vec2.rs"
	.loc	61 24 5 is_stmt 1
	movss	%xmm1, -16(%rbp)
	movss	%xmm0, -12(%rbp)
	.loc	61 25 2
	movss	-16(%rbp), %xmm0
	movss	-12(%rbp), %xmm1
Ltmp1061:
	.loc	60 119 6
	addq	$96, %rsp
	popq	%rbp
	retq
Ltmp1062:
Lfunc_end145:
	.cfi_endproc

	.globl	__ZN11egui_extras5image13RetainedImage10debug_name17h2514add1bb1d51d2E
	.p2align	4, 0x90
__ZN11egui_extras5image13RetainedImage10debug_name17h2514add1bb1d51d2E:
Lfunc_begin146:
	.loc	60 122 0
	.cfi_startproc
	pushq	%rbp
	.cfi_def_cfa_offset 16
	.cfi_offset %rbp, -16
	movq	%rsp, %rbp
	.cfi_def_cfa_register %rbp
	subq	$16, %rsp
	movq	%rdi, -8(%rbp)
Ltmp1063:
	.loc	60 123 9 prologue_end
	addq	$96, %rdi
	callq	__ZN65_$LT$alloc..string..String$u20$as$u20$core..ops..deref..Deref$GT$5deref17hbdba0b9d4f58e656E
	.loc	60 124 6
	addq	$16, %rsp
	popq	%rbp
	retq
Ltmp1064:
Lfunc_end146:
	.cfi_endproc

	.globl	__ZN11egui_extras5image13RetainedImage10texture_id17hcb471efb14f0dd49E
	.p2align	4, 0x90
__ZN11egui_extras5image13RetainedImage10texture_id17hcb471efb14f0dd49E:
Lfunc_begin147:
	.loc	60 127 0
	.cfi_startproc
	.cfi_personality 155, _rust_eh_personality
	.cfi_lsda 16, Lexception29
	pushq	%rbp
	.cfi_def_cfa_offset 16
	.cfi_offset %rbp, -16
	movq	%rsp, %rbp
	.cfi_def_cfa_register %rbp
	subq	$128, %rsp
	movq	%rdi, -96(%rbp)
	movq	%rsi, -88(%rbp)
	movq	%rdi, -40(%rbp)
	movq	%rsi, -32(%rbp)
Ltmp1075:
	.loc	60 128 9 prologue_end
	callq	__ZN6epaint5mutex10mutex_impl14Mutex$LT$T$GT$4lock17h4fc3d19868e2e2beE
	movq	%rdx, -64(%rbp)
	movq	%rax, -72(%rbp)
	leaq	-64(%rbp), %rdi
	leaq	-72(%rbp), %rax
	movq	%rax, -8(%rbp)
Ltmp1065:
Ltmp1076:
	.loc	35 108 13
	callq	__ZN87_$LT$lock_api..mutex..MutexGuard$LT$R$C$T$GT$$u20$as$u20$core..ops..deref..DerefMut$GT$9deref_mut17h9341731c2c5b111dE
Ltmp1066:
	movq	%rax, -80(%rbp)
	jmp	LBB147_1
LBB147_1:
	.loc	35 109 10
	jmp	LBB147_4
Ltmp1077:
LBB147_2:
Ltmp1072:
	.loc	35 0 10 is_stmt 0
	leaq	-72(%rbp), %rdi
	.loc	60 136 5 is_stmt 1
	callq	__ZN4core3ptr131drop_in_place$LT$epaint..mutex..mutex_impl..MutexGuard$LT$core..option..Option$LT$epaint..texture_handle..TextureHandle$GT$$GT$$GT$17h9f493e83e0593ce6E
Ltmp1073:
	jmp	LBB147_8
LBB147_3:
Ltmp1071:
	.loc	60 0 5 is_stmt 0
	movq	%rax, %rcx
	movl	%edx, %eax
	movq	%rcx, -24(%rbp)
	movl	%eax, -16(%rbp)
	jmp	LBB147_2
LBB147_4:
	movq	-80(%rbp), %rdi
	movq	-88(%rbp), %rax
	movq	-96(%rbp), %rcx
	.loc	60 130 33 is_stmt 1
	movq	%rcx, -56(%rbp)
	movq	%rax, -48(%rbp)
	.loc	60 128 9
	movq	-56(%rbp), %rsi
	movq	-48(%rbp), %rdx
Ltmp1067:
	callq	__ZN4core6option15Option$LT$T$GT$18get_or_insert_with17h44fad7a3d2dcc593E
Ltmp1068:
	movq	%rax, -104(%rbp)
	jmp	LBB147_5
LBB147_5:
Ltmp1069:
	.loc	60 0 9 is_stmt 0
	movq	-104(%rbp), %rdi
	.loc	60 128 9
	callq	__ZN6epaint14texture_handle13TextureHandle2id17h6467a2641aaa1b94E
Ltmp1070:
	movq	%rdx, -120(%rbp)
	movq	%rax, -112(%rbp)
	jmp	LBB147_6
LBB147_6:
	.loc	60 0 9
	leaq	-72(%rbp), %rdi
	.loc	60 136 5 is_stmt 1
	callq	__ZN4core3ptr131drop_in_place$LT$epaint..mutex..mutex_impl..MutexGuard$LT$core..option..Option$LT$epaint..texture_handle..TextureHandle$GT$$GT$$GT$17h9f493e83e0593ce6E
	movq	-112(%rbp), %rax
	movq	-120(%rbp), %rdx
	.loc	60 136 6 is_stmt 0
	addq	$128, %rsp
	popq	%rbp
	retq
LBB147_7:
Ltmp1074:
	.loc	60 127 5 is_stmt 1
	callq	__ZN4core9panicking19panic_cannot_unwind17h1fbca7e1d7f56ae1E
LBB147_8:
	movq	-24(%rbp), %rdi
	callq	__Unwind_Resume
Ltmp1078:
Lfunc_end147:
	.cfi_endproc
	.section	__TEXT,__gcc_except_tab
	.p2align	2
GCC_except_table147:
Lexception29:
	.byte	255
	.byte	255
	.byte	1
	.uleb128 Lcst_end29-Lcst_begin29
Lcst_begin29:
	.uleb128 Lfunc_begin147-Lfunc_begin147
	.uleb128 Ltmp1065-Lfunc_begin147
	.byte	0
	.byte	0
	.uleb128 Ltmp1065-Lfunc_begin147
	.uleb128 Ltmp1066-Ltmp1065
	.uleb128 Ltmp1071-Lfunc_begin147
	.byte	0
	.uleb128 Ltmp1072-Lfunc_begin147
	.uleb128 Ltmp1073-Ltmp1072
	.uleb128 Ltmp1074-Lfunc_begin147
	.byte	0
	.uleb128 Ltmp1067-Lfunc_begin147
	.uleb128 Ltmp1070-Ltmp1067
	.uleb128 Ltmp1071-Lfunc_begin147
	.byte	0
	.uleb128 Ltmp1070-Lfunc_begin147
	.uleb128 Lfunc_end147-Ltmp1070
	.byte	0
	.byte	0
Lcst_end29:
	.p2align	2

	.section	__TEXT,__text,regular,pure_instructions
	.p2align	4, 0x90
__ZN11egui_extras5image13RetainedImage10texture_id28_$u7b$$u7b$closure$u7d$$u7d$17h081b5438a1225698E:
Lfunc_begin148:
	.loc	60 130 0
	.cfi_startproc
	.cfi_personality 155, _rust_eh_personality
	.cfi_lsda 16, Lexception30
	pushq	%rbp
	.cfi_def_cfa_offset 16
	.cfi_offset %rbp, -16
	movq	%rsp, %rbp
	.cfi_def_cfa_register %rbp
	subq	$176, %rsp
	movq	%rdi, -168(%rbp)
	movq	%rdi, -160(%rbp)
	movq	%rsi, -144(%rbp)
	movq	%rdx, -136(%rbp)
Ltmp1089:
	.loc	60 131 51 prologue_end
	movq	-144(%rbp), %rdi
	addq	$48, %rdi
	callq	__ZN6epaint5mutex10mutex_impl14Mutex$LT$T$GT$4lock17hdf16e470cb39fe2eE
	movq	%rdx, -120(%rbp)
	movq	%rax, -128(%rbp)
	leaq	-120(%rbp), %rdi
	leaq	-128(%rbp), %rax
	movq	%rax, -8(%rbp)
Ltmp1079:
Ltmp1090:
	.loc	35 108 13
	callq	__ZN87_$LT$lock_api..mutex..MutexGuard$LT$R$C$T$GT$$u20$as$u20$core..ops..deref..DerefMut$GT$9deref_mut17h000ce0fb06dfbf29E
Ltmp1080:
	movq	%rax, -152(%rbp)
	jmp	LBB148_1
LBB148_1:
	.loc	35 109 10
	jmp	LBB148_4
Ltmp1091:
LBB148_2:
Ltmp1086:
	.loc	35 0 10 is_stmt 0
	leaq	-128(%rbp), %rdi
	.loc	60 134 13 is_stmt 1
	callq	__ZN4core3ptr91drop_in_place$LT$epaint..mutex..mutex_impl..MutexGuard$LT$epaint..image..ColorImage$GT$$GT$17h492686d102254acfE
Ltmp1087:
	jmp	LBB148_8
LBB148_3:
Ltmp1085:
	.loc	60 0 13 is_stmt 0
	movq	%rax, %rcx
	movl	%edx, %eax
	movq	%rcx, -32(%rbp)
	movl	%eax, -24(%rbp)
	jmp	LBB148_2
LBB148_4:
	movq	-152(%rbp), %rsi
	.loc	60 131 46 is_stmt 1
	movq	%rsi, -16(%rbp)
Ltmp1081:
	leaq	-112(%rbp), %rdi
Ltmp1092:
	.loc	60 132 29
	callq	__ZN4core3mem4take17h728cee5ddab03d17E
Ltmp1082:
	jmp	LBB148_5
LBB148_5:
	.loc	60 0 29 is_stmt 0
	movq	-168(%rbp), %rdi
Ltmp1093:
	.loc	60 133 34 is_stmt 1
	movq	-144(%rbp), %rdx
	.loc	60 133 17 is_stmt 0
	movq	-136(%rbp), %rsi
	.loc	60 133 34
	addq	$96, %rdx
	.loc	60 133 52
	movq	-80(%rbp), %rax
	movq	%rax, -40(%rbp)
	movq	-88(%rbp), %rax
	movq	%rax, -48(%rbp)
	movq	-96(%rbp), %rax
	movq	%rax, -56(%rbp)
	movq	-112(%rbp), %rax
	movq	-104(%rbp), %rcx
	movq	%rcx, -64(%rbp)
	movq	%rax, -72(%rbp)
	.loc	60 133 59
	movq	-144(%rbp), %rax
	movzbl	120(%rax), %r8d
Ltmp1083:
	leaq	-72(%rbp), %rcx
	.loc	60 133 17
	callq	__ZN4egui7context7Context12load_texture17h6de5185032808899E
Ltmp1084:
	jmp	LBB148_6
Ltmp1094:
LBB148_6:
	.loc	60 134 13 is_stmt 1
	leaq	-128(%rbp), %rdi
	callq	__ZN4core3ptr91drop_in_place$LT$epaint..mutex..mutex_impl..MutexGuard$LT$epaint..image..ColorImage$GT$$GT$17h492686d102254acfE
	movq	-160(%rbp), %rax
	.loc	60 134 14 is_stmt 0
	addq	$176, %rsp
	popq	%rbp
	retq
LBB148_7:
Ltmp1088:
	.loc	60 130 33 is_stmt 1
	callq	__ZN4core9panicking19panic_cannot_unwind17h1fbca7e1d7f56ae1E
LBB148_8:
	movq	-32(%rbp), %rdi
	callq	__Unwind_Resume
Ltmp1095:
Lfunc_end148:
	.cfi_endproc
	.section	__TEXT,__gcc_except_tab
	.p2align	2
GCC_except_table148:
Lexception30:
	.byte	255
	.byte	255
	.byte	1
	.uleb128 Lcst_end30-Lcst_begin30
Lcst_begin30:
	.uleb128 Lfunc_begin148-Lfunc_begin148
	.uleb128 Ltmp1079-Lfunc_begin148
	.byte	0
	.byte	0
	.uleb128 Ltmp1079-Lfunc_begin148
	.uleb128 Ltmp1080-Ltmp1079
	.uleb128 Ltmp1085-Lfunc_begin148
	.byte	0
	.uleb128 Ltmp1086-Lfunc_begin148
	.uleb128 Ltmp1087-Ltmp1086
	.uleb128 Ltmp1088-Lfunc_begin148
	.byte	0
	.uleb128 Ltmp1081-Lfunc_begin148
	.uleb128 Ltmp1084-Ltmp1081
	.uleb128 Ltmp1085-Lfunc_begin148
	.byte	0
	.uleb128 Ltmp1084-Lfunc_begin148
	.uleb128 Lfunc_end148-Ltmp1084
	.byte	0
	.byte	0
Lcst_end30:
	.p2align	2

	.section	__TEXT,__literal4,4byte_literals
	.p2align	2
LCPI149_0:
	.long	0x3f800000
	.section	__TEXT,__text,regular,pure_instructions
	.globl	__ZN11egui_extras5image13RetainedImage13show_max_size17hc29f40fa74ee5477E
	.p2align	4, 0x90
__ZN11egui_extras5image13RetainedImage13show_max_size17hc29f40fa74ee5477E:
Lfunc_begin149:
	.loc	60 139 0
	.cfi_startproc
	pushq	%rbp
	.cfi_def_cfa_offset 16
	.cfi_offset %rbp, -16
	movq	%rsp, %rbp
	.cfi_def_cfa_register %rbp
	subq	$112, %rsp
	movss	%xmm1, -100(%rbp)
	movss	%xmm0, -108(%rbp)
	movq	%rdx, -80(%rbp)
	movq	%rsi, -88(%rbp)
	movq	%rdi, %rax
	movq	-88(%rbp), %rdi
	movq	%rax, -96(%rbp)
	movq	%rax, -72(%rbp)
	movq	%rdi, -56(%rbp)
	movq	%rdx, -48(%rbp)
	movss	%xmm0, -40(%rbp)
	movss	%xmm1, -36(%rbp)
Ltmp1096:
	.loc	60 140 32 prologue_end
	callq	__ZN11egui_extras5image13RetainedImage9size_vec217h6eaaf4c0d6d3ea50E
	movaps	%xmm0, %xmm2
	movss	-108(%rbp), %xmm0
	movss	%xmm2, -104(%rbp)
	movaps	%xmm1, %xmm2
	movss	-104(%rbp), %xmm1
	movss	%xmm2, -60(%rbp)
	movss	%xmm1, -64(%rbp)
Ltmp1097:
	.loc	60 141 25
	divss	-64(%rbp), %xmm0
	movss	LCPI149_0(%rip), %xmm1
	callq	__ZN4core3f3221_$LT$impl$u20$f32$GT$3min17h7100491f2acdc4c7E
	movaps	%xmm0, %xmm1
	movss	-100(%rbp), %xmm0
	leaq	-64(%rbp), %rax
	movq	%rax, -16(%rbp)
	movss	%xmm1, -4(%rbp)
Ltmp1098:
	.loc	61 395 9
	movaps	%xmm1, %xmm2
	mulss	-64(%rbp), %xmm2
	movss	%xmm2, -64(%rbp)
	.loc	61 396 9
	mulss	-60(%rbp), %xmm1
	movss	%xmm1, -60(%rbp)
Ltmp1099:
	.loc	60 142 25
	divss	-60(%rbp), %xmm0
	movss	LCPI149_0(%rip), %xmm1
	callq	__ZN4core3f3221_$LT$impl$u20$f32$GT$3min17h7100491f2acdc4c7E
	movq	-96(%rbp), %rdi
	movq	-88(%rbp), %rsi
	movq	-80(%rbp), %rdx
	leaq	-64(%rbp), %rax
	movq	%rax, -32(%rbp)
	movss	%xmm0, -20(%rbp)
Ltmp1100:
	.loc	61 395 9
	movaps	%xmm0, %xmm1
	mulss	-64(%rbp), %xmm1
	movss	%xmm1, -64(%rbp)
	.loc	61 396 9
	mulss	-60(%rbp), %xmm0
	movss	%xmm0, -60(%rbp)
Ltmp1101:
	.loc	60 143 28
	movss	-64(%rbp), %xmm0
	movss	-60(%rbp), %xmm1
	.loc	60 143 9 is_stmt 0
	callq	__ZN11egui_extras5image13RetainedImage9show_size17h2b807cff706242b5E
	movq	-72(%rbp), %rax
Ltmp1102:
	.loc	60 144 6 is_stmt 1
	addq	$112, %rsp
	popq	%rbp
	retq
Ltmp1103:
Lfunc_end149:
	.cfi_endproc

	.globl	__ZN11egui_extras5image13RetainedImage4show17h4d04aaa2937f2123E
	.p2align	4, 0x90
__ZN11egui_extras5image13RetainedImage4show17h4d04aaa2937f2123E:
Lfunc_begin150:
	.loc	60 147 0
	.cfi_startproc
	pushq	%rbp
	.cfi_def_cfa_offset 16
	.cfi_offset %rbp, -16
	movq	%rsp, %rbp
	.cfi_def_cfa_register %rbp
	subq	$48, %rsp
	movq	%rdx, -32(%rbp)
	movq	%rsi, -40(%rbp)
	movq	%rdi, %rax
	movq	-40(%rbp), %rdi
	movq	%rax, -48(%rbp)
	movq	%rax, -24(%rbp)
	movq	%rdi, -16(%rbp)
	movq	%rdx, -8(%rbp)
Ltmp1104:
	.loc	60 148 28 prologue_end
	callq	__ZN11egui_extras5image13RetainedImage9size_vec217h6eaaf4c0d6d3ea50E
	movq	-48(%rbp), %rdi
	movq	-40(%rbp), %rsi
	movq	-32(%rbp), %rdx
	.loc	60 148 9 is_stmt 0
	callq	__ZN11egui_extras5image13RetainedImage9show_size17h2b807cff706242b5E
	movq	-24(%rbp), %rax
	.loc	60 149 6 is_stmt 1
	addq	$48, %rsp
	popq	%rbp
	retq
Ltmp1105:
Lfunc_end150:
	.cfi_endproc

	.globl	__ZN11egui_extras5image13RetainedImage11show_scaled17h0a24835bc788ec66E
	.p2align	4, 0x90
__ZN11egui_extras5image13RetainedImage11show_scaled17h0a24835bc788ec66E:
Lfunc_begin151:
	.loc	60 152 0
	.cfi_startproc
	pushq	%rbp
	.cfi_def_cfa_offset 16
	.cfi_offset %rbp, -16
	movq	%rsp, %rbp
	.cfi_def_cfa_register %rbp
	subq	$96, %rsp
	movss	%xmm0, -84(%rbp)
	movq	%rdx, -64(%rbp)
	movq	%rsi, -72(%rbp)
	movq	%rdi, %rax
	movq	-72(%rbp), %rdi
	movq	%rax, -80(%rbp)
	movq	%rax, -56(%rbp)
	movq	%rdi, -48(%rbp)
	movq	%rdx, -40(%rbp)
	movss	%xmm0, -28(%rbp)
Ltmp1106:
	.loc	60 153 28 prologue_end
	callq	__ZN11egui_extras5image13RetainedImage9size_vec217h6eaaf4c0d6d3ea50E
	movss	-84(%rbp), %xmm2
	movq	-80(%rbp), %rdi
	movq	-72(%rbp), %rsi
	movq	-64(%rbp), %rdx
	movss	%xmm0, -16(%rbp)
	movss	%xmm1, -12(%rbp)
	movss	%xmm2, -4(%rbp)
Ltmp1107:
	.loc	61 406 16
	mulss	%xmm2, %xmm0
	.loc	61 407 16
	mulss	%xmm2, %xmm1
	.loc	61 405 9
	movss	%xmm0, -24(%rbp)
	movss	%xmm1, -20(%rbp)
	.loc	61 409 6
	movss	-24(%rbp), %xmm0
	movss	-20(%rbp), %xmm1
Ltmp1108:
	.loc	60 153 9
	callq	__ZN11egui_extras5image13RetainedImage9show_size17h2b807cff706242b5E
	movq	-56(%rbp), %rax
	.loc	60 154 6
	addq	$96, %rsp
	popq	%rbp
	retq
Ltmp1109:
Lfunc_end151:
	.cfi_endproc

	.globl	__ZN11egui_extras5image13RetainedImage9show_size17h2b807cff706242b5E
	.p2align	4, 0x90
__ZN11egui_extras5image13RetainedImage9show_size17h2b807cff706242b5E:
Lfunc_begin152:
	.loc	60 157 0
	.cfi_startproc
	pushq	%rbp
	.cfi_def_cfa_offset 16
	.cfi_offset %rbp, -16
	movq	%rsp, %rbp
	.cfi_def_cfa_register %rbp
	subq	$80, %rsp
	movss	%xmm1, -44(%rbp)
	movss	%xmm0, -48(%rbp)
	movq	%rdx, -56(%rbp)
	movq	%rsi, -72(%rbp)
	movq	%rdi, %rax
	movq	-56(%rbp), %rdi
	movq	%rax, -64(%rbp)
	movq	%rax, -32(%rbp)
	movq	%rsi, -24(%rbp)
	movq	%rdi, -16(%rbp)
	movss	%xmm0, -8(%rbp)
	movss	%xmm1, -4(%rbp)
Ltmp1110:
	.loc	60 161 34 prologue_end
	callq	__ZN4egui2ui2Ui3ctx17haf47a97d380b4fa8E
	movq	-72(%rbp), %rdi
	movq	%rax, %rsi
	.loc	60 161 18 is_stmt 0
	callq	__ZN11egui_extras5image13RetainedImage10texture_id17hcb471efb14f0dd49E
	movq	-64(%rbp), %rdi
	movq	-56(%rbp), %rsi
	movss	-48(%rbp), %xmm0
	movss	-44(%rbp), %xmm1
	movq	%rax, -40(%rbp)
	movq	%rdx, %rcx
	movq	-40(%rbp), %rdx
	.loc	60 161 9
	callq	__ZN4egui2ui2Ui5image17h355298279f03fbe0E
	movq	-32(%rbp), %rax
	.loc	60 162 6 is_stmt 1
	addq	$80, %rsp
	popq	%rbp
	retq
Ltmp1111:
Lfunc_end152:
	.cfi_endproc

	.globl	__ZN11egui_extras6layout11StripLayout3new17h9cc869213a0c0179E
	.p2align	4, 0x90
__ZN11egui_extras6layout11StripLayout3new17h9cc869213a0c0179E:
Lfunc_begin153:
	.file	62 "/Users/natalie/.cargo/registry/src/github.com-1ecc6299db9ec823/egui_extras-0.19.0" "src/layout.rs"
	.loc	62 41 0
	.cfi_startproc
	pushq	%rbp
	.cfi_def_cfa_offset 16
	.cfi_offset %rbp, -16
	movq	%rsp, %rbp
	.cfi_def_cfa_register %rbp
	subq	$160, %rsp
	movq	%rsi, -152(%rbp)
	movq	%rdi, -136(%rbp)
	movb	%cl, %al
	movb	%al, -137(%rbp)
	movb	%dl, %cl
	movb	%cl, -138(%rbp)
	movq	%rdi, -128(%rbp)
	movl	%r8d, %edx
	movl	%edx, -112(%rbp)
	shrq	$32, %r8
	movw	%r8w, %dx
	movw	%dx, -108(%rbp)
	movw	-108(%rbp), %dx
	movw	%dx, -116(%rbp)
	movl	-112(%rbp), %edx
	movl	%edx, -120(%rbp)
	movq	%rsi, -64(%rbp)
	andb	$1, %cl
	movb	%cl, -50(%rbp)
	andb	$1, %al
	movb	%al, -49(%rbp)
	leaq	-104(%rbp), %rdi
	movq	%rdi, -160(%rbp)
Ltmp1112:
	.loc	62 47 20 prologue_end
	callq	__ZN4egui2ui2Ui26available_rect_before_wrap17h3f0065784f4a8e2aE
	movq	-160(%rbp), %r8
	movq	-152(%rbp), %rsi
	movb	-138(%rbp), %dl
	movb	-137(%rbp), %cl
	movq	-136(%rbp), %rdi
	movq	-128(%rbp), %rax
	movq	%r8, -40(%rbp)
	movq	%r8, -8(%rbp)
Ltmp1113:
	.loc	45 416 9
	movss	-104(%rbp), %xmm1
	movq	%r8, -16(%rbp)
Ltmp1114:
	.loc	45 452 9
	movss	-100(%rbp), %xmm0
	movss	%xmm1, -24(%rbp)
	movss	%xmm0, -20(%rbp)
Ltmp1115:
	.loc	46 26 5
	movss	%xmm1, -32(%rbp)
	movss	%xmm0, -28(%rbp)
	.loc	46 27 2
	movss	-32(%rbp), %xmm1
	movss	-28(%rbp), %xmm0
Ltmp1116:
	.loc	62 48 19
	movss	%xmm1, -48(%rbp)
	movss	%xmm0, -44(%rbp)
Ltmp1117:
	.loc	62 53 13
	movq	-104(%rbp), %r8
	movq	%r8, -88(%rbp)
	movq	-96(%rbp), %r8
	movq	%r8, -80(%rbp)
	.loc	62 57 13
	movl	-120(%rbp), %r8d
	movl	%r8d, -72(%rbp)
	movw	-116(%rbp), %r8w
	movw	%r8w, -68(%rbp)
	.loc	62 50 9
	movq	%rsi, 32(%rdi)
	andb	$1, %dl
	movb	%dl, 46(%rdi)
	movq	-88(%rbp), %rdx
	movq	%rdx, (%rdi)
	movq	-80(%rbp), %rdx
	movq	%rdx, 8(%rdi)
	movss	%xmm1, 16(%rdi)
	movss	%xmm0, 20(%rdi)
	movss	%xmm1, 24(%rdi)
	movss	%xmm0, 28(%rdi)
	andb	$1, %cl
	movb	%cl, 47(%rdi)
	movl	-72(%rbp), %ecx
	movl	%ecx, 40(%rdi)
	movw	-68(%rbp), %cx
	movw	%cx, 44(%rdi)
Ltmp1118:
	.loc	62 59 6
	addq	$160, %rsp
	popq	%rbp
	retq
Ltmp1119:
Lfunc_end153:
	.cfi_endproc

	.globl	__ZN11egui_extras6layout11StripLayout9cell_rect17h98b248781b8db49fE
	.p2align	4, 0x90
__ZN11egui_extras6layout11StripLayout9cell_rect17h98b248781b8db49fE:
Lfunc_begin154:
	.loc	62 61 0
	.cfi_startproc
	pushq	%rbp
	.cfi_def_cfa_offset 16
	.cfi_offset %rbp, -16
	movq	%rsp, %rbp
	.cfi_def_cfa_register %rbp
	subq	$128, %rsp
	movq	%rcx, -120(%rbp)
	movq	%rdx, -112(%rbp)
	movq	%rsi, -104(%rbp)
	movq	%rdi, -96(%rbp)
	movq	%rdi, -88(%rbp)
	movq	%rsi, -56(%rbp)
	movq	%rdx, -48(%rbp)
	movq	%rcx, -40(%rbp)
Ltmp1120:
	.loc	62 63 18 prologue_end
	movss	16(%rsi), %xmm0
	movss	%xmm0, -80(%rbp)
	movss	20(%rsi), %xmm0
	movss	%xmm0, -76(%rbp)
	.loc	62 65 26
	movl	(%rdx), %eax
	.loc	62 65 20 is_stmt 0
	cmpq	$0, %rax
	jne	LBB154_2
	.loc	62 0 20
	movq	-104(%rbp), %rax
	movq	-112(%rbp), %rdi
	.loc	62 66 40 is_stmt 1
	addq	$4, %rdi
	movq	%rdi, -32(%rbp)
Ltmp1121:
	.loc	62 66 50 is_stmt 0
	movss	16(%rax), %xmm0
	callq	__ZN60_$LT$f32$u20$as$u20$core..ops..arith..Add$LT$$RF$f32$GT$$GT$3add17h13ef49b63b3948f7E
	movss	%xmm0, -64(%rbp)
	jmp	LBB154_3
Ltmp1122:
LBB154_2:
	.loc	62 0 50
	movq	-104(%rbp), %rax
	movq	%rax, -16(%rbp)
Ltmp1123:
	.loc	45 434 9 is_stmt 1
	movss	8(%rax), %xmm0
Ltmp1124:
	.loc	62 67 44
	movss	%xmm0, -64(%rbp)
LBB154_3:
	.loc	62 0 44 is_stmt 0
	movq	-120(%rbp), %rax
	.loc	62 69 26 is_stmt 1
	movl	(%rax), %eax
	.loc	62 69 20 is_stmt 0
	cmpq	$0, %rax
	jne	LBB154_5
	.loc	62 0 20
	movq	-104(%rbp), %rax
	movq	-120(%rbp), %rdi
	.loc	62 70 40 is_stmt 1
	addq	$4, %rdi
	movq	%rdi, -24(%rbp)
Ltmp1125:
	.loc	62 70 51 is_stmt 0
	movss	20(%rax), %xmm0
	callq	__ZN60_$LT$f32$u20$as$u20$core..ops..arith..Add$LT$$RF$f32$GT$$GT$3add17h13ef49b63b3948f7E
	movss	%xmm0, -60(%rbp)
	jmp	LBB154_6
Ltmp1126:
LBB154_5:
	.loc	62 0 51
	movq	-104(%rbp), %rax
	movq	%rax, -8(%rbp)
Ltmp1127:
	.loc	45 470 9 is_stmt 1
	movss	12(%rax), %xmm0
Ltmp1128:
	.loc	62 71 44
	movss	%xmm0, -60(%rbp)
LBB154_6:
	.loc	62 0 44 is_stmt 0
	movq	-88(%rbp), %rax
	movq	-96(%rbp), %rcx
	movss	-76(%rbp), %xmm0
	movss	-80(%rbp), %xmm1
	.loc	62 64 18 is_stmt 1
	movss	-64(%rbp), %xmm2
	movss	%xmm2, -72(%rbp)
	movss	-60(%rbp), %xmm2
	movss	%xmm2, -68(%rbp)
	.loc	62 62 9
	movss	%xmm1, (%rcx)
	movss	%xmm0, 4(%rcx)
	movss	-72(%rbp), %xmm1
	movss	-68(%rbp), %xmm0
	movss	%xmm1, 8(%rcx)
	movss	%xmm0, 12(%rcx)
	.loc	62 75 6
	addq	$128, %rsp
	popq	%rbp
	retq
Ltmp1129:
Lfunc_end154:
	.cfi_endproc

	.globl	__ZN11egui_extras6layout11StripLayout7set_pos17hcd992db5693c4622E
	.p2align	4, 0x90
__ZN11egui_extras6layout11StripLayout7set_pos17hcd992db5693c4622E:
Lfunc_begin155:
	.loc	62 77 0
	.cfi_startproc
	pushq	%rbp
	.cfi_def_cfa_offset 16
	.cfi_offset %rbp, -16
	movq	%rsp, %rbp
	.cfi_def_cfa_register %rbp
	subq	$64, %rsp
	movq	%rdi, -48(%rbp)
	movq	%rsi, -56(%rbp)
	movq	%rdi, -40(%rbp)
Ltmp1130:
	.loc	62 78 22 prologue_end
	movss	24(%rdi), %xmm0
	movq	%rsi, -24(%rbp)
Ltmp1131:
	.loc	45 434 9
	movss	8(%rsi), %xmm1
Ltmp1132:
	.loc	62 78 22
	callq	__ZN4core3f3221_$LT$impl$u20$f32$GT$3max17h76729126d51812c6E
	movq	-56(%rbp), %rsi
	movq	-48(%rbp), %rdi
	.loc	62 78 9 is_stmt 0
	movss	%xmm0, 24(%rdi)
	.loc	62 79 22 is_stmt 1
	movss	28(%rdi), %xmm0
	movq	%rsi, -8(%rbp)
Ltmp1133:
	.loc	45 470 9
	movss	12(%rsi), %xmm1
Ltmp1134:
	.loc	62 79 22
	callq	__ZN4core3f3221_$LT$impl$u20$f32$GT$3max17h76729126d51812c6E
	movq	-48(%rbp), %rdi
	.loc	62 79 9 is_stmt 0
	movss	%xmm0, 28(%rdi)
	.loc	62 81 15 is_stmt 1
	movb	46(%rdi), %al
	andb	$1, %al
	movzbl	%al, %eax
	.loc	62 81 9 is_stmt 0
	cmpq	$0, %rax
	jne	LBB155_2
Ltmp1135:
	.loc	62 0 9
	movq	-48(%rbp), %rax
	movq	-56(%rbp), %rcx
	movq	%rcx, -32(%rbp)
Ltmp1136:
	.loc	45 434 9 is_stmt 1
	movss	8(%rcx), %xmm0
	movss	%xmm0, -60(%rbp)
Ltmp1137:
	.loc	62 83 48
	movq	32(%rax), %rdi
	callq	__ZN4egui2ui2Ui7spacing17ha9c0596976390b48E
	movss	-60(%rbp), %xmm0
	movq	%rax, %rcx
	movq	-48(%rbp), %rax
	.loc	62 83 17 is_stmt 0
	addss	16(%rcx), %xmm0
	movss	%xmm0, 16(%rax)
	.loc	62 82 42 is_stmt 1
	jmp	LBB155_3
Ltmp1138:
LBB155_2:
	.loc	62 0 42 is_stmt 0
	movq	-48(%rbp), %rax
	movq	-56(%rbp), %rcx
	movq	%rcx, -16(%rbp)
Ltmp1139:
	.loc	45 470 9 is_stmt 1
	movss	12(%rcx), %xmm0
	movss	%xmm0, -64(%rbp)
Ltmp1140:
	.loc	62 86 49
	movq	32(%rax), %rdi
	callq	__ZN4egui2ui2Ui7spacing17ha9c0596976390b48E
	movss	-64(%rbp), %xmm0
	movq	%rax, %rcx
	movq	-48(%rbp), %rax
	.loc	62 86 17 is_stmt 0
	addss	20(%rcx), %xmm0
	movss	%xmm0, 20(%rax)
Ltmp1141:
LBB155_3:
	.loc	62 89 6 is_stmt 1
	addq	$64, %rsp
	popq	%rbp
	retq
Ltmp1142:
Lfunc_end155:
	.cfi_endproc

	.p2align	4, 0x90
__ZN11egui_extras6layout11StripLayout5empty17he29e2e6d128cae92E:
Lfunc_begin156:
	.loc	62 91 0
	.cfi_startproc
	pushq	%rbp
	.cfi_def_cfa_offset 16
	.cfi_offset %rbp, -16
	movq	%rsp, %rbp
	.cfi_def_cfa_register %rbp
	subq	$48, %rsp
	movl	%esi, %eax
	movq	%rdi, %rsi
	movq	%rsi, -48(%rbp)
	movl	%eax, -40(%rbp)
	movss	%xmm0, -36(%rbp)
	movl	%edx, -32(%rbp)
	movss	%xmm1, -28(%rbp)
	movq	%rsi, -8(%rbp)
Ltmp1143:
	.loc	62 92 22 prologue_end
	leaq	-24(%rbp), %rdi
	leaq	-40(%rbp), %rdx
	leaq	-32(%rbp), %rcx
	callq	__ZN11egui_extras6layout11StripLayout9cell_rect17h98b248781b8db49fE
	movq	-48(%rbp), %rdi
	.loc	62 92 9 is_stmt 0
	leaq	-24(%rbp), %rsi
	callq	__ZN11egui_extras6layout11StripLayout7set_pos17hcd992db5693c4622E
	.loc	62 93 6 is_stmt 1
	addq	$48, %rsp
	popq	%rbp
	retq
Ltmp1144:
Lfunc_end156:
	.cfi_endproc

	.p2align	4, 0x90
__ZN11egui_extras6layout11StripLayout8end_line17hdc961a1ccee43608E:
Lfunc_begin157:
	.loc	62 126 0
	.cfi_startproc
	pushq	%rbp
	.cfi_def_cfa_offset 16
	.cfi_offset %rbp, -16
	movq	%rsp, %rbp
	.cfi_def_cfa_register %rbp
	subq	$48, %rsp
	movq	%rdi, -32(%rbp)
	movq	%rdi, -24(%rbp)
Ltmp1145:
	.loc	62 127 15 prologue_end
	movb	46(%rdi), %al
	andb	$1, %al
	movzbl	%al, %eax
	.loc	62 127 9 is_stmt 0
	cmpq	$0, %rax
	jne	LBB157_2
	.loc	62 0 9
	movq	-32(%rbp), %rax
	.loc	62 129 33 is_stmt 1
	movss	28(%rax), %xmm0
	movss	%xmm0, -36(%rbp)
	.loc	62 129 46 is_stmt 0
	movq	32(%rax), %rdi
	callq	__ZN4egui2ui2Ui7spacing17ha9c0596976390b48E
	movss	-36(%rbp), %xmm0
	movq	%rax, %rcx
	movq	-32(%rbp), %rax
	.loc	62 129 17
	addss	20(%rcx), %xmm0
	movss	%xmm0, 20(%rax)
	movq	%rax, -8(%rbp)
Ltmp1146:
	.loc	45 416 9 is_stmt 1
	movss	(%rax), %xmm0
Ltmp1147:
	.loc	62 130 17
	movss	%xmm0, 16(%rax)
	.loc	62 128 42
	jmp	LBB157_3
LBB157_2:
	.loc	62 0 42 is_stmt 0
	movq	-32(%rbp), %rax
	.loc	62 133 33 is_stmt 1
	movss	24(%rax), %xmm0
	movss	%xmm0, -40(%rbp)
	.loc	62 133 46 is_stmt 0
	movq	32(%rax), %rdi
	callq	__ZN4egui2ui2Ui7spacing17ha9c0596976390b48E
	movss	-40(%rbp), %xmm0
	movq	%rax, %rcx
	movq	-32(%rbp), %rax
	.loc	62 133 17
	addss	16(%rcx), %xmm0
	movss	%xmm0, 16(%rax)
	movq	%rax, -16(%rbp)
Ltmp1148:
	.loc	45 452 9 is_stmt 1
	movss	4(%rax), %xmm0
Ltmp1149:
	.loc	62 134 17
	movss	%xmm0, 20(%rax)
LBB157_3:
	.loc	62 137 6
	addq	$48, %rsp
	popq	%rbp
	retq
Ltmp1150:
Lfunc_end157:
	.cfi_endproc

	.p2align	4, 0x90
__ZN11egui_extras6layout11StripLayout10skip_space17h5dbaaf7ef263c311E:
Lfunc_begin158:
	.loc	62 140 0
	.cfi_startproc
	pushq	%rbp
	.cfi_def_cfa_offset 16
	.cfi_offset %rbp, -16
	movq	%rsp, %rbp
	.cfi_def_cfa_register %rbp
	subq	$208, %rsp
	movaps	%xmm1, %xmm4
	movaps	%xmm0, %xmm5
	movq	%rdi, -200(%rbp)
	movq	%rdi, -56(%rbp)
	movss	%xmm5, -48(%rbp)
	movss	%xmm4, -44(%rbp)
Ltmp1151:
	.loc	62 141 22 prologue_end
	movq	%rdi, %rax
	addq	$16, %rax
	movss	16(%rdi), %xmm0
	movss	20(%rdi), %xmm1
	movss	%xmm0, -40(%rbp)
	movss	%xmm1, -36(%rbp)
	movq	%rax, -16(%rbp)
	movss	%xmm5, -8(%rbp)
	movss	%xmm4, -4(%rbp)
Ltmp1152:
	.loc	46 222 16
	movss	16(%rdi), %xmm3
	.loc	46 223 16
	movss	20(%rdi), %xmm2
	.loc	46 222 16
	addss	%xmm5, %xmm3
	.loc	46 223 16
	addss	%xmm4, %xmm2
	.loc	46 221 17
	movss	%xmm3, -24(%rbp)
	movss	%xmm2, -20(%rbp)
	.loc	46 221 9 is_stmt 0
	movss	-24(%rbp), %xmm3
	movss	-20(%rbp), %xmm2
	movss	%xmm3, 16(%rdi)
	movss	%xmm2, 20(%rdi)
Ltmp1153:
	.loc	62 143 47 is_stmt 1
	movss	16(%rdi), %xmm2
	movss	20(%rdi), %xmm3
	leaq	-184(%rbp), %rdi
	.loc	62 143 20 is_stmt 0
	callq	__ZN5emath4rect4Rect12from_two_pos17hc4a37d6257e08c6aE
	movq	-200(%rbp), %rdi
Ltmp1154:
	.loc	62 144 9 is_stmt 1
	movq	32(%rdi), %rax
	movq	%rax, -192(%rbp)
	.loc	62 144 31 is_stmt 0
	movq	-184(%rbp), %rax
	movq	-176(%rbp), %rcx
	movq	%rcx, -72(%rbp)
	movq	%rax, -80(%rbp)
	.loc	62 144 37
	callq	__ZN4egui5sense5Sense5hover17hd071a869ae6a16e4E
	movq	-192(%rbp), %rsi
	movw	%ax, %cx
	movw	%cx, -28(%rbp)
	shrl	$16, %eax
	movb	%al, -26(%rbp)
	movb	-26(%rbp), %al
	movb	%al, -62(%rbp)
	movw	-28(%rbp), %ax
	movw	%ax, -64(%rbp)
	.loc	62 144 9
	movzbl	-62(%rbp), %eax
	shll	$16, %eax
	movzwl	-64(%rbp), %ecx
	orl	%eax, %ecx
	leaq	-168(%rbp), %rdi
	leaq	-80(%rbp), %rdx
	callq	__ZN4egui2ui2Ui13allocate_rect17h9b7a99612c88022fE
	.loc	62 144 52
	leaq	-168(%rbp), %rdi
	callq	__ZN4core3ptr45drop_in_place$LT$egui..response..Response$GT$17h3aed4bdacfc12ea4E
Ltmp1155:
	.loc	62 145 6 is_stmt 1
	addq	$208, %rsp
	popq	%rbp
	retq
Ltmp1156:
Lfunc_end158:
	.cfi_endproc

	.globl	__ZN11egui_extras6layout11StripLayout13allocate_rect17hb59a1c0490a694bcE
	.p2align	4, 0x90
__ZN11egui_extras6layout11StripLayout13allocate_rect17hb59a1c0490a694bcE:
Lfunc_begin159:
	.loc	62 162 0
	.cfi_startproc
	pushq	%rbp
	.cfi_def_cfa_offset 16
	.cfi_offset %rbp, -16
	movq	%rsp, %rbp
	.cfi_def_cfa_register %rbp
	subq	$112, %rsp
	movq	%rdi, -112(%rbp)
	movq	%rdi, -96(%rbp)
	movq	%rsi, -48(%rbp)
Ltmp1157:
	.loc	62 163 24 prologue_end
	movq	(%rsi), %rax
	movq	8(%rsi), %rcx
	movq	%rcx, -80(%rbp)
	movq	%rax, -88(%rbp)
Ltmp1158:
	.loc	62 164 24
	movss	24(%rsi), %xmm0
	leaq	-88(%rbp), %rax
	movq	%rax, -16(%rbp)
	movss	%xmm0, -4(%rbp)
Ltmp1159:
	.loc	45 446 9
	movss	%xmm0, -80(%rbp)
Ltmp1160:
	.loc	62 165 25
	movss	28(%rsi), %xmm0
	movq	%rax, -32(%rbp)
	movss	%xmm0, -20(%rbp)
Ltmp1161:
	.loc	45 482 9
	movss	%xmm0, -76(%rbp)
Ltmp1162:
	.loc	62 167 9
	movq	32(%rsi), %rax
	movq	%rax, -104(%rbp)
	.loc	62 167 31 is_stmt 0
	movq	-88(%rbp), %rax
	movq	-80(%rbp), %rcx
	movq	%rcx, -64(%rbp)
	movq	%rax, -72(%rbp)
	.loc	62 167 37
	callq	__ZN4egui5sense5Sense5hover17hd071a869ae6a16e4E
	movq	-112(%rbp), %rdi
	movq	-104(%rbp), %rsi
	movw	%ax, %cx
	movw	%cx, -36(%rbp)
	shrl	$16, %eax
	movb	%al, -34(%rbp)
	movb	-34(%rbp), %al
	movb	%al, -54(%rbp)
	movw	-36(%rbp), %ax
	movw	%ax, -56(%rbp)
	.loc	62 167 9
	movzbl	-54(%rbp), %eax
	shll	$16, %eax
	movzwl	-56(%rbp), %ecx
	orl	%eax, %ecx
	leaq	-72(%rbp), %rdx
	callq	__ZN4egui2ui2Ui13allocate_rect17h9b7a99612c88022fE
	movq	-96(%rbp), %rax
Ltmp1163:
	.loc	62 168 6 is_stmt 1
	addq	$112, %rsp
	popq	%rbp
	retq
Ltmp1164:
Lfunc_end159:
	.cfi_endproc

	.globl	__ZN11egui_extras6sizing4Size5exact17h6f87ae36e7ad0f22E
	.p2align	4, 0x90
__ZN11egui_extras6sizing4Size5exact17h6f87ae36e7ad0f22E:
Lfunc_begin160:
	.file	63 "/Users/natalie/.cargo/registry/src/github.com-1ecc6299db9ec823/egui_extras-0.19.0" "src/sizing.rs"
	.loc	63 16 0
	.cfi_startproc
	pushq	%rbp
	.cfi_def_cfa_offset 16
	.cfi_offset %rbp, -16
	movq	%rsp, %rbp
	.cfi_def_cfa_register %rbp
	subq	$16, %rsp
	movq	%rdi, %rax
	movss	%xmm0, -4(%rbp)
Ltmp1165:
	.loc	63 19 20 prologue_end
	movss	%xmm0, -16(%rbp)
	movss	%xmm0, -12(%rbp)
	.loc	63 17 9
	movss	%xmm0, 4(%rdi)
	movss	-16(%rbp), %xmm1
	movss	-12(%rbp), %xmm0
	movss	%xmm1, 8(%rdi)
	movss	%xmm0, 12(%rdi)
	movl	$0, (%rdi)
	.loc	63 21 6
	addq	$16, %rsp
	popq	%rbp
	retq
Ltmp1166:
Lfunc_end160:
	.cfi_endproc

	.globl	__ZN11egui_extras6sizing4Size7initial17h4c36c84cc1cc06eaE
	.p2align	4, 0x90
__ZN11egui_extras6sizing4Size7initial17h4c36c84cc1cc06eaE:
Lfunc_begin161:
	.loc	63 24 0
	.cfi_startproc
	pushq	%rbp
	.cfi_def_cfa_offset 16
	.cfi_offset %rbp, -16
	movq	%rsp, %rbp
	.cfi_def_cfa_register %rbp
	subq	$4, %rsp
	movq	%rdi, %rax
	movss	%xmm0, -4(%rbp)
Ltmp1167:
	.loc	63 25 9 prologue_end
	movss	%xmm0, 4(%rdi)
	movss	L___unnamed_25(%rip), %xmm1
	movss	L___unnamed_25+4(%rip), %xmm0
	movss	%xmm1, 8(%rdi)
	movss	%xmm0, 12(%rdi)
	movl	$0, (%rdi)
	.loc	63 29 6
	addq	$4, %rsp
	popq	%rbp
	retq
Ltmp1168:
Lfunc_end161:
	.cfi_endproc

	.globl	__ZN11egui_extras6sizing4Size8relative17h2d2b4184e4f0a22fE
	.p2align	4, 0x90
__ZN11egui_extras6sizing4Size8relative17h2d2b4184e4f0a22fE:
Lfunc_begin162:
	.loc	63 32 0
	.cfi_startproc
	pushq	%rbp
	.cfi_def_cfa_offset 16
	.cfi_offset %rbp, -16
	movq	%rsp, %rbp
	.cfi_def_cfa_register %rbp
	subq	$4, %rsp
	movq	%rdi, %rax
	movss	%xmm0, -4(%rbp)
Ltmp1169:
	.loc	63 34 9 prologue_end
	movss	%xmm0, 4(%rdi)
	movss	L___unnamed_25(%rip), %xmm1
	movss	L___unnamed_25+4(%rip), %xmm0
	movss	%xmm1, 8(%rdi)
	movss	%xmm0, 12(%rdi)
	movl	$1, (%rdi)
	.loc	63 38 6
	addq	$4, %rsp
	popq	%rbp
	retq
Ltmp1170:
Lfunc_end162:
	.cfi_endproc

	.globl	__ZN11egui_extras6sizing4Size9remainder17h0cec8ed351ee6102E
	.p2align	4, 0x90
__ZN11egui_extras6sizing4Size9remainder17h0cec8ed351ee6102E:
Lfunc_begin163:
	.loc	63 41 0
	.cfi_startproc
	pushq	%rbp
	.cfi_def_cfa_offset 16
	.cfi_offset %rbp, -16
	movq	%rsp, %rbp
	.cfi_def_cfa_register %rbp
	movq	%rdi, %rax
Ltmp1171:
	.loc	63 42 9 prologue_end
	movss	L___unnamed_25(%rip), %xmm1
	movss	L___unnamed_25+4(%rip), %xmm0
	movss	%xmm1, 4(%rdi)
	movss	%xmm0, 8(%rdi)
	movl	$2, (%rdi)
	.loc	63 45 6
	popq	%rbp
	retq
Ltmp1172:
Lfunc_end163:
	.cfi_endproc

	.globl	__ZN11egui_extras6sizing4Size8at_least17h6b26acec208580a8E
	.p2align	4, 0x90
__ZN11egui_extras6sizing4Size8at_least17h6b26acec208580a8E:
Lfunc_begin164:
	.loc	63 48 0
	.cfi_startproc
	pushq	%rbp
	.cfi_def_cfa_offset 16
	.cfi_offset %rbp, -16
	movq	%rsp, %rbp
	.cfi_def_cfa_register %rbp
	subq	$56, %rsp
	movss	%xmm0, -52(%rbp)
	movq	%rsi, -48(%rbp)
Ltmp1173:
	movq	%rdi, -40(%rbp)
	movq	%rdi, -32(%rbp)
	movss	%xmm0, -4(%rbp)
Ltmp1174:
	.loc	63 49 15 prologue_end
	movl	(%rsi), %eax
	movq	%rax, -24(%rbp)
	testq	%rax, %rax
Ltmp1175:
	.loc	63 49 9 is_stmt 0
	je	LBB164_2
	jmp	LBB164_6
Ltmp1176:
LBB164_6:
	.loc	63 0 9
	movq	-24(%rbp), %rax
	.loc	63 49 9
	subq	$1, %rax
	je	LBB164_3
	jmp	LBB164_7
Ltmp1177:
LBB164_7:
	jmp	LBB164_4
Ltmp1178:
	.loc	63 49 15
	ud2
LBB164_2:
Ltmp1179:
	.loc	63 0 15
	movq	-48(%rbp), %rax
	.loc	63 50 30 is_stmt 1
	addq	$8, %rax
	movq	%rax, -16(%rbp)
	.loc	63 49 9
	jmp	LBB164_5
Ltmp1180:
LBB164_3:
	.loc	63 0 9 is_stmt 0
	movq	-48(%rbp), %rax
	.loc	63 51 32 is_stmt 1
	addq	$8, %rax
	movq	%rax, -16(%rbp)
	.loc	63 49 9
	jmp	LBB164_5
Ltmp1181:
LBB164_4:
	.loc	63 0 9 is_stmt 0
	movq	-48(%rbp), %rax
	.loc	63 52 33 is_stmt 1
	addq	$4, %rax
	movq	%rax, -16(%rbp)
Ltmp1182:
LBB164_5:
	.loc	63 0 33 is_stmt 0
	movq	-32(%rbp), %rax
	movq	-40(%rbp), %rcx
	movq	-48(%rbp), %rdx
	movss	-52(%rbp), %xmm0
Ltmp1183:
	.loc	63 53 17 is_stmt 1
	movq	-16(%rbp), %rsi
	movss	%xmm0, (%rsi)
Ltmp1184:
	.loc	63 56 9
	movq	(%rdx), %rsi
	movq	%rsi, (%rcx)
	movq	8(%rdx), %rdx
	movq	%rdx, 8(%rcx)
	.loc	63 57 6
	addq	$56, %rsp
	popq	%rbp
	retq
Ltmp1185:
Lfunc_end164:
	.cfi_endproc

	.globl	__ZN11egui_extras6sizing4Size7at_most17hb4ff3dc158a3d08dE
	.p2align	4, 0x90
__ZN11egui_extras6sizing4Size7at_most17hb4ff3dc158a3d08dE:
Lfunc_begin165:
	.loc	63 60 0
	.cfi_startproc
	pushq	%rbp
	.cfi_def_cfa_offset 16
	.cfi_offset %rbp, -16
	movq	%rsp, %rbp
	.cfi_def_cfa_register %rbp
	subq	$56, %rsp
	movss	%xmm0, -52(%rbp)
	movq	%rsi, -48(%rbp)
Ltmp1186:
	movq	%rdi, -40(%rbp)
	movq	%rdi, -32(%rbp)
	movss	%xmm0, -4(%rbp)
Ltmp1187:
	.loc	63 61 15 prologue_end
	movl	(%rsi), %eax
	movq	%rax, -24(%rbp)
	testq	%rax, %rax
Ltmp1188:
	.loc	63 61 9 is_stmt 0
	je	LBB165_2
	jmp	LBB165_6
Ltmp1189:
LBB165_6:
	.loc	63 0 9
	movq	-24(%rbp), %rax
	.loc	63 61 9
	subq	$1, %rax
	je	LBB165_3
	jmp	LBB165_7
Ltmp1190:
LBB165_7:
	jmp	LBB165_4
Ltmp1191:
	.loc	63 61 15
	ud2
LBB165_2:
Ltmp1192:
	.loc	63 0 15
	movq	-48(%rbp), %rax
	.loc	63 62 30 is_stmt 1
	addq	$8, %rax
	movq	%rax, -16(%rbp)
	.loc	63 61 9
	jmp	LBB165_5
Ltmp1193:
LBB165_3:
	.loc	63 0 9 is_stmt 0
	movq	-48(%rbp), %rax
	.loc	63 63 32 is_stmt 1
	addq	$8, %rax
	movq	%rax, -16(%rbp)
	.loc	63 61 9
	jmp	LBB165_5
Ltmp1194:
LBB165_4:
	.loc	63 0 9 is_stmt 0
	movq	-48(%rbp), %rax
	.loc	63 64 33 is_stmt 1
	addq	$4, %rax
	movq	%rax, -16(%rbp)
Ltmp1195:
LBB165_5:
	.loc	63 0 33 is_stmt 0
	movq	-32(%rbp), %rax
	movq	-40(%rbp), %rcx
	movq	-48(%rbp), %rdx
	movss	-52(%rbp), %xmm0
Ltmp1196:
	.loc	63 65 17 is_stmt 1
	movq	-16(%rbp), %rsi
	movss	%xmm0, 4(%rsi)
Ltmp1197:
	.loc	63 68 9
	movq	(%rdx), %rsi
	movq	%rsi, (%rcx)
	movq	8(%rdx), %rdx
	movq	%rdx, 8(%rcx)
	.loc	63 69 6
	addq	$56, %rsp
	popq	%rbp
	retq
Ltmp1198:
Lfunc_end165:
	.cfi_endproc

	.globl	__ZN11egui_extras6sizing4Size5range17h51483867c190c29fE
	.p2align	4, 0x90
__ZN11egui_extras6sizing4Size5range17h51483867c190c29fE:
Lfunc_begin166:
	.loc	63 72 0
	.cfi_startproc
	pushq	%rbp
	.cfi_def_cfa_offset 16
	.cfi_offset %rbp, -16
	movq	%rsp, %rbp
	.cfi_def_cfa_register %rbp
	subq	$24, %rsp
	movq	%rdi, -24(%rbp)
Ltmp1199:
	.loc	63 73 15 prologue_end
	movl	(%rdi), %eax
	movq	%rax, -16(%rbp)
	testq	%rax, %rax
Ltmp1200:
	.loc	63 73 9 is_stmt 0
	je	LBB166_2
	jmp	LBB166_6
Ltmp1201:
LBB166_6:
	.loc	63 0 9
	movq	-16(%rbp), %rax
	.loc	63 73 9
	subq	$1, %rax
	je	LBB166_3
	jmp	LBB166_7
Ltmp1202:
LBB166_7:
	jmp	LBB166_4
Ltmp1203:
	.loc	63 73 15
	ud2
LBB166_2:
Ltmp1204:
	.loc	63 0 15
	movq	-24(%rbp), %rax
	.loc	63 74 30 is_stmt 1
	movss	8(%rax), %xmm1
	movss	12(%rax), %xmm0
	movss	%xmm1, -8(%rbp)
	movss	%xmm0, -4(%rbp)
	.loc	63 73 9
	jmp	LBB166_5
Ltmp1205:
LBB166_3:
	.loc	63 0 9 is_stmt 0
	movq	-24(%rbp), %rax
	.loc	63 75 32 is_stmt 1
	movss	8(%rax), %xmm1
	movss	12(%rax), %xmm0
	movss	%xmm1, -8(%rbp)
	movss	%xmm0, -4(%rbp)
	.loc	63 73 9
	jmp	LBB166_5
Ltmp1206:
LBB166_4:
	.loc	63 0 9 is_stmt 0
	movq	-24(%rbp), %rax
	.loc	63 76 33 is_stmt 1
	movss	4(%rax), %xmm1
	movss	8(%rax), %xmm0
	movss	%xmm1, -8(%rbp)
	movss	%xmm0, -4(%rbp)
Ltmp1207:
LBB166_5:
	.loc	63 78 6
	movss	-8(%rbp), %xmm0
	movss	-4(%rbp), %xmm1
	addq	$24, %rsp
	popq	%rbp
	retq
Ltmp1208:
Lfunc_end166:
	.cfi_endproc

	.p2align	4, 0x90
__ZN11egui_extras6sizing6Sizing3add17hc2e75127e4b429ccE:
Lfunc_begin167:
	.loc	63 87 0
	.cfi_startproc
	pushq	%rbp
	.cfi_def_cfa_offset 16
	.cfi_offset %rbp, -16
	movq	%rsp, %rbp
	.cfi_def_cfa_register %rbp
	subq	$32, %rsp
	movq	%rdi, -8(%rbp)
Ltmp1209:
	.loc	63 88 25 prologue_end
	movq	(%rsi), %rax
	movq	%rax, -24(%rbp)
	movq	8(%rsi), %rax
	movq	%rax, -16(%rbp)
	.loc	63 88 9 is_stmt 0
	leaq	-24(%rbp), %rsi
Ltmp1210:
	callq	__ZN5alloc3vec16Vec$LT$T$C$A$GT$4push17h0b14d4a02aefa65dE
	.loc	63 89 6 is_stmt 1
	addq	$32, %rsp
	popq	%rbp
	retq
Ltmp1211:
Lfunc_end167:
	.cfi_endproc

	.globl	__ZN11egui_extras6sizing6Sizing10to_lengths17h8b0ff8d9d68195f4E
	.p2align	4, 0x90
__ZN11egui_extras6sizing6Sizing10to_lengths17h8b0ff8d9d68195f4E:
Lfunc_begin168:
	.loc	63 91 0
	.cfi_startproc
	pushq	%rbp
	.cfi_def_cfa_offset 16
	.cfi_offset %rbp, -16
	movq	%rsp, %rbp
	.cfi_def_cfa_register %rbp
	subq	$224, %rsp
	movss	%xmm1, -188(%rbp)
	movq	%rsi, -184(%rbp)
	movq	%rdi, %rax
	movq	-184(%rbp), %rdi
	movq	%rax, -176(%rbp)
	movq	%rax, -168(%rbp)
	movss	%xmm0, -160(%rbp)
	movq	%rdi, -16(%rbp)
	movss	%xmm1, -8(%rbp)
Ltmp1212:
	.loc	63 92 12 prologue_end
	callq	__ZN5alloc3vec16Vec$LT$T$C$A$GT$8is_empty17ha70fdbc872be7461E
	testb	$1, %al
	jne	LBB168_2
	.loc	63 0 12 is_stmt 0
	movq	-184(%rbp), %rdi
	.loc	63 96 30 is_stmt 1
	movl	$0, -156(%rbp)
Ltmp1213:
	.loc	63 97 33
	callq	__ZN72_$LT$alloc..vec..Vec$LT$T$C$A$GT$$u20$as$u20$core..ops..deref..Deref$GT$5deref17h76143a89ac7de3beE
	movq	%rax, %rdi
	movq	%rdx, %rsi
	callq	__ZN4core5slice29_$LT$impl$u20$$u5b$T$u5d$$GT$4iter17heacc0e9705f6fbd6E
	movq	%rax, %rsi
	.loc	63 100 18
	leaq	-160(%rbp), %rax
	movq	%rax, -120(%rbp)
	leaq	-156(%rbp), %rax
	movq	%rax, -112(%rbp)
	.loc	63 97 33
	movq	-120(%rbp), %rcx
	movq	-112(%rbp), %r8
	leaq	-152(%rbp), %rdi
	callq	__ZN4core4iter6traits8iterator8Iterator3map17hda9abb4c791312c9E
	leaq	-152(%rbp), %rdi
	callq	__ZN4core4iter6traits8iterator8Iterator3sum17h9c7b8ac026c431e0E
	movq	-184(%rbp), %rdi
	movss	%xmm0, -204(%rbp)
	.loc	63 115 26
	callq	__ZN5alloc3vec16Vec$LT$T$C$A$GT$3len17hb5b180391f77ed68E
	.loc	63 115 25 is_stmt 0
	movq	%rax, %rcx
	subq	$1, %rcx
	movq	%rcx, -200(%rbp)
	cmpq	$1, %rax
	setb	%al
	testb	$1, %al
	jne	LBB168_5
	jmp	LBB168_4
Ltmp1214:
LBB168_2:
	.loc	63 0 25
	movq	-176(%rbp), %rdi
	.loc	63 93 20 is_stmt 1
	callq	__ZN5alloc3vec12Vec$LT$T$GT$3new17h25a367e7a116895cE
LBB168_3:
	.loc	63 0 20 is_stmt 0
	movq	-168(%rbp), %rax
	.loc	63 148 6 is_stmt 1
	addq	$224, %rsp
	popq	%rbp
	retq
LBB168_4:
	.loc	63 0 6 is_stmt 0
	movq	-200(%rbp), %rax
Ltmp1215:
	.loc	63 115 25 is_stmt 1
	movq	%rax, %rdx
	shrq	%rdx
	movl	%eax, %ecx
	andl	$1, %ecx
	orq	%rdx, %rcx
	cvtsi2ss	%rcx, %xmm0
	addss	%xmm0, %xmm0
	cvtsi2ss	%rax, %xmm1
	movss	%xmm1, -212(%rbp)
	testq	%rax, %rax
	movss	%xmm0, -208(%rbp)
	js	LBB168_12
	.loc	63 0 25 is_stmt 0
	movss	-212(%rbp), %xmm0
	movss	%xmm0, -208(%rbp)
LBB168_12:
	movss	-204(%rbp), %xmm0
	movss	-188(%rbp), %xmm1
	movss	-208(%rbp), %xmm2
	.loc	63 115 15
	mulss	%xmm2, %xmm1
	.loc	63 97 33 is_stmt 1
	addss	%xmm1, %xmm0
	movss	%xmm0, -216(%rbp)
	movss	%xmm0, -4(%rbp)
Ltmp1216:
	.loc	63 117 39
	cmpl	$0, -156(%rbp)
	je	LBB168_6
	jmp	LBB168_7
Ltmp1217:
LBB168_5:
	.loc	63 115 25
	leaq	_str.1(%rip), %rdi
	leaq	l___unnamed_26(%rip), %rdx
	movl	$33, %esi
	callq	__ZN4core9panicking5panic17hc1bc45270cf64b03E
LBB168_6:
Ltmp1218:
	.loc	63 118 13
	xorps	%xmm0, %xmm0
	movss	%xmm0, -100(%rbp)
	.loc	63 117 36
	jmp	LBB168_10
LBB168_7:
	.loc	63 0 36 is_stmt 0
	movss	-216(%rbp), %xmm1
	.loc	63 120 40 is_stmt 1
	movss	-160(%rbp), %xmm0
	subss	%xmm1, %xmm0
	movss	%xmm0, -96(%rbp)
Ltmp1219:
	.loc	63 121 51
	movss	-96(%rbp), %xmm1
	.loc	63 121 70 is_stmt 0
	cvtsi2ssl	-156(%rbp), %xmm0
	.loc	63 121 51
	divss	%xmm0, %xmm1
	.loc	63 121 40
	xorps	%xmm0, %xmm0
	callq	__ZN4core3f3221_$LT$impl$u20$f32$GT$3max17h76729126d51812c6E
	callq	__ZN3std3f3221_$LT$impl$u20$f32$GT$5floor17h452acc87da2c3d4fE
	movq	-184(%rbp), %rdi
	movss	%xmm0, -92(%rbp)
Ltmp1220:
	.loc	63 122 13 is_stmt 1
	callq	__ZN72_$LT$alloc..vec..Vec$LT$T$C$A$GT$$u20$as$u20$core..ops..deref..Deref$GT$5deref17h76143a89ac7de3beE
	movq	%rax, %rdi
	movq	%rdx, %rsi
	callq	__ZN4core5slice29_$LT$impl$u20$$u5b$T$u5d$$GT$4iter17heacc0e9705f6fbd6E
	movq	%rax, %rdi
	movq	%rdx, %rsi
	.loc	63 122 40 is_stmt 0
	leaq	-92(%rbp), %rax
	movq	%rax, -88(%rbp)
	leaq	-96(%rbp), %rax
	movq	%rax, -80(%rbp)
	leaq	-156(%rbp), %rax
	movq	%rax, -72(%rbp)
	.loc	63 122 13
	leaq	-88(%rbp), %rdx
	callq	__ZN91_$LT$core..slice..iter..Iter$LT$T$GT$$u20$as$u20$core..iter..traits..iterator..Iterator$GT$8for_each17hb9547911c97cf518E
	.loc	63 130 16 is_stmt 1
	cmpl	$0, -156(%rbp)
	jg	LBB168_9
	.loc	63 133 17
	xorps	%xmm0, %xmm0
	movss	%xmm0, -100(%rbp)
	.loc	63 130 13
	jmp	LBB168_10
LBB168_9:
	.loc	63 131 28
	movss	-96(%rbp), %xmm1
	.loc	63 131 47 is_stmt 0
	cvtsi2ssl	-156(%rbp), %xmm0
	.loc	63 131 28
	divss	%xmm0, %xmm1
	.loc	63 131 17
	xorps	%xmm0, %xmm0
	callq	__ZN4core3f3221_$LT$impl$u20$f32$GT$3max17h76729126d51812c6E
	movss	%xmm0, -100(%rbp)
Ltmp1221:
LBB168_10:
	.loc	63 0 17
	movq	-184(%rbp), %rdi
Ltmp1222:
	.loc	63 137 9 is_stmt 1
	callq	__ZN72_$LT$alloc..vec..Vec$LT$T$C$A$GT$$u20$as$u20$core..ops..deref..Deref$GT$5deref17h76143a89ac7de3beE
	movq	%rax, %rdi
	movq	%rdx, %rsi
	callq	__ZN4core5slice29_$LT$impl$u20$$u5b$T$u5d$$GT$4iter17heacc0e9705f6fbd6E
	movq	%rax, %rsi
	.loc	63 139 18
	leaq	-160(%rbp), %rax
	movq	%rax, -32(%rbp)
	leaq	-100(%rbp), %rax
	movq	%rax, -24(%rbp)
	.loc	63 137 9
	movq	-32(%rbp), %rcx
	movq	-24(%rbp), %r8
	leaq	-64(%rbp), %rdi
	callq	__ZN4core4iter6traits8iterator8Iterator3map17hfe251d91ec385b44E
	movq	-176(%rbp), %rdi
	leaq	-64(%rbp), %rsi
	callq	__ZN4core4iter6traits8iterator8Iterator7collect17h5062ca2e999253d9E
	jmp	LBB168_3
Ltmp1223:
Lfunc_end168:
	.cfi_endproc

	.section	__TEXT,__literal4,4byte_literals
	.p2align	2
LCPI169_0:
	.long	0x3f800000
	.section	__TEXT,__text,regular,pure_instructions
	.p2align	4, 0x90
__ZN11egui_extras6sizing6Sizing10to_lengths28_$u7b$$u7b$closure$u7d$$u7d$17h554ca4aeb53dff34E:
Lfunc_begin169:
	.loc	63 100 0
	.cfi_startproc
	pushq	%rbp
	.cfi_def_cfa_offset 16
	.cfi_offset %rbp, -16
	movq	%rsp, %rbp
	.cfi_def_cfa_register %rbp
	subq	$96, %rsp
	movq	%rdi, -80(%rbp)
	movq	%rdi, -32(%rbp)
	movq	%rsi, -24(%rbp)
Ltmp1224:
	.loc	63 100 20 prologue_end
	movq	(%rsi), %rax
	movq	8(%rsi), %rcx
	movq	%rcx, -48(%rbp)
	movq	%rax, -56(%rbp)
Ltmp1225:
	.loc	63 100 32 is_stmt 0
	movl	-56(%rbp), %eax
	movq	%rax, -72(%rbp)
	testq	%rax, %rax
	.loc	63 100 26
	je	LBB169_2
	jmp	LBB169_13
LBB169_13:
	.loc	63 0 26
	movq	-72(%rbp), %rax
	.loc	63 100 26
	subq	$1, %rax
	je	LBB169_3
	jmp	LBB169_14
LBB169_14:
	jmp	LBB169_4
	.loc	63 100 32
	ud2
LBB169_2:
	.loc	63 101 34 is_stmt 1
	movss	-52(%rbp), %xmm0
	movss	%xmm0, -4(%rbp)
Ltmp1226:
	.loc	63 101 51 is_stmt 0
	movss	%xmm0, -60(%rbp)
Ltmp1227:
	.loc	63 101 57
	jmp	LBB169_7
LBB169_3:
	.loc	63 104 29 is_stmt 1
	movss	-48(%rbp), %xmm0
	movss	%xmm0, -92(%rbp)
	movss	%xmm0, -16(%rbp)
	.loc	63 104 34 is_stmt 0
	movss	-44(%rbp), %xmm0
	movss	%xmm0, -88(%rbp)
	movss	%xmm0, -12(%rbp)
	.loc	63 103 21 is_stmt 1
	movss	-52(%rbp), %xmm0
	movss	%xmm0, -84(%rbp)
	movss	%xmm0, -8(%rbp)
Ltmp1228:
	.loc	63 106 29
	xorps	%xmm1, %xmm1
	ucomiss	%xmm1, %xmm0
	jae	LBB169_9
	jmp	LBB169_8
Ltmp1229:
LBB169_4:
	.loc	63 0 29 is_stmt 0
	movq	-80(%rbp), %rax
	.loc	63 110 21 is_stmt 1
	movq	8(%rax), %rax
	movl	(%rax), %eax
	incl	%eax
	movl	%eax, -96(%rbp)
	seto	%al
	testb	$1, %al
	jne	LBB169_6
	.loc	63 0 21 is_stmt 0
	movl	-96(%rbp), %ecx
	movq	-80(%rbp), %rax
	.loc	63 110 21
	movq	8(%rax), %rax
	movl	%ecx, (%rax)
	.loc	63 111 21 is_stmt 1
	xorps	%xmm0, %xmm0
