	.section	__TEXT,__text,regular,pure_instructions
	.macosx_version_min 10, 7
	.file	1 "/Users/natalie/.cargo/registry/src/github.com-1ecc6299db9ec823/tracing-0.1.37/src" "macros.rs"
	.globl	__ZN104_$LT$winit..dpi..Position$u20$as$u20$core..convert..From$LT$winit..dpi..LogicalPosition$LT$P$GT$$GT$$GT$4from17h98282bf27e828a44E
	.p2align	4, 0x90
__ZN104_$LT$winit..dpi..Position$u20$as$u20$core..convert..From$LT$winit..dpi..LogicalPosition$LT$P$GT$$GT$$GT$4from17h98282bf27e828a44E:
Lfunc_begin0:
	.file	2 "/Users/natalie/.cargo/registry/src/github.com-1ecc6299db9ec823/winit-0.27.5/src" "dpi.rs"
	.loc	2 590 0
	.cfi_startproc
	pushq	%rbp
	.cfi_def_cfa_offset 16
	.cfi_offset %rbp, -16
	movq	%rsp, %rbp
	.cfi_def_cfa_register %rbp
	subq	$32, %rsp
	movq	%rdi, -24(%rbp)
	movq	%rdi, -16(%rbp)
	movss	%xmm0, -8(%rbp)
	movss	%xmm1, -4(%rbp)
Ltmp0:
	.loc	2 591 27 prologue_end
	leaq	-8(%rbp), %rdi
	callq	__ZN5winit3dpi24LogicalPosition$LT$P$GT$4cast17h9564ac9a86d5ab49E
	movq	-24(%rbp), %rdi
	movq	-16(%rbp), %rax
	.loc	2 591 9 is_stmt 0
	movsd	%xmm0, 8(%rdi)
	movsd	%xmm1, 16(%rdi)
	movl	$1, (%rdi)
	.loc	2 592 6 is_stmt 1
	addq	$32, %rsp
	popq	%rbp
	retq
Ltmp1:
Lfunc_end0:
	.cfi_endproc

	.globl	__ZN105_$LT$winit..dpi..Position$u20$as$u20$core..convert..From$LT$winit..dpi..PhysicalPosition$LT$P$GT$$GT$$GT$4from17h5306f5b7ccfd5f9cE
	.p2align	4, 0x90
__ZN105_$LT$winit..dpi..Position$u20$as$u20$core..convert..From$LT$winit..dpi..PhysicalPosition$LT$P$GT$$GT$$GT$4from17h5306f5b7ccfd5f9cE:
Lfunc_begin1:
	.loc	2 583 0
	.cfi_startproc
	pushq	%rbp
	.cfi_def_cfa_offset 16
	.cfi_offset %rbp, -16
	movq	%rsp, %rbp
	.cfi_def_cfa_register %rbp
	subq	$32, %rsp
	movq	%rdi, -32(%rbp)
	movq	%rdi, -24(%rbp)
	movsd	%xmm0, -16(%rbp)
	movsd	%xmm1, -8(%rbp)
Ltmp2:
	.loc	2 584 28 prologue_end
	leaq	-16(%rbp), %rdi
	callq	__ZN5winit3dpi25PhysicalPosition$LT$P$GT$4cast17h4fa79f2dc13c7144E
	movq	-32(%rbp), %rdi
	movl	%eax, %ecx
	movq	-24(%rbp), %rax
	.loc	2 584 9 is_stmt 0
	movl	%ecx, 4(%rdi)
	movl	%edx, 8(%rdi)
	movl	$0, (%rdi)
	.loc	2 585 6 is_stmt 1
	addq	$32, %rsp
	popq	%rbp
	retq
Ltmp3:
Lfunc_end1:
	.cfi_endproc

	.p2align	4, 0x90
__ZN105_$LT$winit..platform_impl..platform..window..SharedStateMutexGuard$u20$as$u20$core..ops..deref..Deref$GT$5deref17hf5840352777c0b4cE:
Lfunc_begin2:
	.file	3 "/Users/natalie/.cargo/registry/src/github.com-1ecc6299db9ec823/winit-0.27.5/src/platform_impl/macos" "window.rs"
	.loc	3 363 0
	.cfi_startproc
	pushq	%rbp
	.cfi_def_cfa_offset 16
	.cfi_offset %rbp, -16
	movq	%rsp, %rbp
	.cfi_def_cfa_register %rbp
	subq	$16, %rsp
	movq	%rdi, -8(%rbp)
Ltmp4:
	.loc	3 364 9 prologue_end
	addq	$16, %rdi
	callq	__ZN81_$LT$std..sync..mutex..MutexGuard$LT$T$GT$$u20$as$u20$core..ops..deref..Deref$GT$5deref17h04916dd69311d3feE
	.loc	3 365 6
	addq	$16, %rsp
	popq	%rbp
	retq
Ltmp5:
Lfunc_end2:
	.cfi_endproc

	.p2align	4, 0x90
__ZN12tracing_core10subscriber8Interest5never17h7b605c3e6bf96037E:
Lfunc_begin3:
	.file	4 "/Users/natalie/.cargo/registry/src/github.com-1ecc6299db9ec823/tracing-core-0.1.30/src" "subscriber.rs"
	.loc	4 608 0
	.cfi_startproc
	pushq	%rbp
	.cfi_def_cfa_offset 16
	.cfi_offset %rbp, -16
	movq	%rsp, %rbp
	.cfi_def_cfa_register %rbp
	subq	$1, %rsp
Ltmp6:
	.loc	4 609 9 prologue_end
	movb	$0, -1(%rbp)
	.loc	4 610 6
	movb	-1(%rbp), %al
	addq	$1, %rsp
	popq	%rbp
	retq
Ltmp7:
Lfunc_end3:
	.cfi_endproc

	.p2align	4, 0x90
__ZN12tracing_core10subscriber8Interest6always17h0977b6d4fcc114dcE:
Lfunc_begin4:
	.loc	4 630 0
	.cfi_startproc
	pushq	%rbp
	.cfi_def_cfa_offset 16
	.cfi_offset %rbp, -16
	movq	%rsp, %rbp
	.cfi_def_cfa_register %rbp
	subq	$1, %rsp
Ltmp8:
	.loc	4 631 9 prologue_end
	movb	$2, -1(%rbp)
	.loc	4 632 6
	movb	-1(%rbp), %al
	addq	$1, %rsp
	popq	%rbp
	retq
Ltmp9:
Lfunc_end4:
	.cfi_endproc

	.p2align	4, 0x90
__ZN12tracing_core10subscriber8Interest8is_never17h77b9eb825ad9532fE:
Lfunc_begin5:
	.loc	4 637 0
	.cfi_startproc
	pushq	%rbp
	.cfi_def_cfa_offset 16
	.cfi_offset %rbp, -16
	movq	%rsp, %rbp
	.cfi_def_cfa_register %rbp
	subq	$16, %rsp
	movq	%rdi, -8(%rbp)
Ltmp10:
	.loc	4 638 18 prologue_end
	movzbl	(%rdi), %eax
	.loc	4 638 9 is_stmt 0
	cmpq	$0, %rax
	jne	LBB5_2
	movb	$1, -9(%rbp)
	jmp	LBB5_3
LBB5_2:
	movb	$0, -9(%rbp)
LBB5_3:
	.loc	4 639 6 is_stmt 1
	movb	-9(%rbp), %al
	andb	$1, %al
	movzbl	%al, %eax
	addq	$16, %rsp
	popq	%rbp
	retq
Ltmp11:
Lfunc_end5:
	.cfi_endproc

	.p2align	4, 0x90
__ZN12tracing_core10subscriber8Interest9sometimes17h6251ce556bedeebcE:
Lfunc_begin6:
	.loc	4 620 0
	.cfi_startproc
	pushq	%rbp
	.cfi_def_cfa_offset 16
	.cfi_offset %rbp, -16
	movq	%rsp, %rbp
	.cfi_def_cfa_register %rbp
	subq	$1, %rsp
Ltmp12:
	.loc	4 621 9 prologue_end
	movb	$1, -1(%rbp)
	.loc	4 622 6
	movb	-1(%rbp), %al
	addq	$1, %rsp
	popq	%rbp
	retq
Ltmp13:
Lfunc_end6:
	.cfi_endproc

	.globl	__ZN12tracing_core5field8FieldSet9value_set17hc56630d7d5753bb1E
	.p2align	4, 0x90
__ZN12tracing_core5field8FieldSet9value_set17hc56630d7d5753bb1E:
Lfunc_begin7:
	.file	5 "/Users/natalie/.cargo/registry/src/github.com-1ecc6299db9ec823/tracing-core-0.1.30/src" "field.rs"
	.loc	5 875 0
	.cfi_startproc
	pushq	%rbp
	.cfi_def_cfa_offset 16
	.cfi_offset %rbp, -16
	movq	%rsp, %rbp
	.cfi_def_cfa_register %rbp
	subq	$48, %rsp
	movq	%rdx, -48(%rbp)
	movq	%rsi, -40(%rbp)
	movq	%rdi, %rax
	movq	-48(%rbp), %rdi
	movq	%rax, -32(%rbp)
	movq	%rax, -24(%rbp)
	movq	%rsi, -16(%rbp)
	movq	%rdi, -8(%rbp)
Ltmp14:
	.loc	5 881 21 prologue_end
	callq	__ZN4core5array92_$LT$impl$u20$core..borrow..Borrow$LT$$u5b$T$u5d$$GT$$u20$for$u20$$u5b$T$u3b$$u20$N$u5d$$GT$6borrow17h2275d5cc7ddec735E
	movq	-40(%rbp), %rsi
	movq	-32(%rbp), %rdi
	movq	%rax, %rcx
	movq	-24(%rbp), %rax
	.loc	5 879 9
	movq	%rcx, (%rdi)
	movq	%rdx, 8(%rdi)
	movq	%rsi, 16(%rdi)
	.loc	5 883 6
	addq	$48, %rsp
	popq	%rbp
	retq
Ltmp15:
Lfunc_end7:
	.cfi_endproc

	.p2align	4, 0x90
__ZN12tracing_core8callsite15DefaultCallsite8interest17h432049678a416c4dE:
Lfunc_begin8:
	.file	6 "/Users/natalie/.cargo/registry/src/github.com-1ecc6299db9ec823/tracing-core-0.1.30/src" "callsite.rs"
	.loc	6 351 0
	.cfi_startproc
	pushq	%rbp
	.cfi_def_cfa_offset 16
	.cfi_offset %rbp, -16
	movq	%rsp, %rbp
	.cfi_def_cfa_register %rbp
	subq	$32, %rsp
	movq	%rdi, -24(%rbp)
	movq	%rdi, -8(%rbp)
Ltmp16:
	.loc	6 352 15 prologue_end
	addq	$16, %rdi
	.loc	6 352 34 is_stmt 0
	movb	$0, -9(%rbp)
	.loc	6 352 15
	movzbl	-9(%rbp), %esi
	callq	__ZN4core4sync6atomic8AtomicU84load17hbaa48375fc9801ccE
	.loc	6 352 9
	movb	%al, %cl
	movb	%cl, -11(%rbp)
	testb	%al, %al
	je	LBB8_2
	jmp	LBB8_6
LBB8_6:
	.loc	6 0 9
	movb	-11(%rbp), %al
	.loc	6 352 9
	subb	$1, %al
	je	LBB8_3
	jmp	LBB8_7
LBB8_7:
	.loc	6 0 9
	movb	-11(%rbp), %al
	.loc	6 352 9
	subb	$2, %al
	je	LBB8_4
	jmp	LBB8_1
LBB8_1:
	.loc	6 0 9
	movq	-24(%rbp), %rdi
	.loc	6 356 18 is_stmt 1
	callq	__ZN12tracing_core8callsite15DefaultCallsite8register17h12805c50d0a3a923E
	movb	%al, -10(%rbp)
	jmp	LBB8_5
LBB8_2:
	.loc	6 353 37
	callq	__ZN12tracing_core10subscriber8Interest5never17h7b605c3e6bf96037E
	movb	%al, -10(%rbp)
	jmp	LBB8_5
LBB8_3:
	.loc	6 354 41
	callq	__ZN12tracing_core10subscriber8Interest9sometimes17h6251ce556bedeebcE
	movb	%al, -10(%rbp)
	jmp	LBB8_5
LBB8_4:
	.loc	6 355 38
	callq	__ZN12tracing_core10subscriber8Interest6always17h0977b6d4fcc114dcE
	movb	%al, -10(%rbp)
LBB8_5:
	.loc	6 358 6
	movb	-10(%rbp), %al
	addq	$32, %rsp
	popq	%rbp
	retq
Ltmp17:
Lfunc_end8:
	.cfi_endproc

	.p2align	4, 0x90
__ZN3std3f3221_$LT$impl$u20$f32$GT$3exp17h7b4ef0947d9d5881E:
Lfunc_begin9:
	.file	7 "/rustc/2c8cc343237b8f7d5a3c3703e3a87f2eb2c54a74/library/std/src" "f32.rs"
	.loc	7 386 0
	.cfi_startproc
	pushq	%rbp
	.cfi_def_cfa_offset 16
	.cfi_offset %rbp, -16
	movq	%rsp, %rbp
	.cfi_def_cfa_register %rbp
	subq	$16, %rsp
	movss	%xmm0, -8(%rbp)
Ltmp18:
	.loc	7 387 18 prologue_end
	callq	_expf
	movss	%xmm0, -4(%rbp)
	movss	-4(%rbp), %xmm0
	.loc	7 388 6
	addq	$16, %rsp
	popq	%rbp
	retq
Ltmp19:
Lfunc_end9:
	.cfi_endproc

	.p2align	4, 0x90
__ZN47_$LT$bool$u20$as$u20$core..default..Default$GT$7default17h4832a3d18b74b23aE:
Lfunc_begin10:
	.file	8 "/rustc/2c8cc343237b8f7d5a3c3703e3a87f2eb2c54a74/library/core/src" "default.rs"
	.loc	8 197 0
	.cfi_startproc
	pushq	%rbp
	.cfi_def_cfa_offset 16
	.cfi_offset %rbp, -16
	movq	%rsp, %rbp
	.cfi_def_cfa_register %rbp
Ltmp20:
	.loc	8 199 14 prologue_end
	xorl	%eax, %eax
	andb	$1, %al
	movzbl	%al, %eax
	popq	%rbp
	retq
Ltmp21:
Lfunc_end10:
	.cfi_endproc

	.p2align	4, 0x90
__ZN48_$LT$char$u20$as$u20$alloc..string..ToString$GT$9to_string17h93a0c7499c85122dE:
Lfunc_begin11:
	.file	9 "/rustc/2c8cc343237b8f7d5a3c3703e3a87f2eb2c54a74/library/alloc/src" "string.rs"
	.loc	9 2546 0
	.cfi_startproc
	pushq	%rbp
	.cfi_def_cfa_offset 16
	.cfi_offset %rbp, -16
	movq	%rsp, %rbp
	.cfi_def_cfa_register %rbp
	subq	$192, %rsp
	movq	%rdi, -184(%rbp)
	movq	%rdi, -176(%rbp)
	movq	%rsi, -112(%rbp)
Ltmp22:
	.loc	9 2547 22 prologue_end
	movl	(%rsi), %eax
	movl	%eax, -188(%rbp)
	movl	%eax, -100(%rbp)
	.loc	9 2547 44 is_stmt 0
	leaq	-164(%rbp), %rdi
	xorl	%esi, %esi
	movl	$4, %edx
	callq	_memset
	movl	-188(%rbp), %edi
	.loc	9 2547 39
	leaq	-164(%rbp), %rax
	movq	%rax, -96(%rbp)
	movq	$4, -88(%rbp)
Ltmp23:
	.file	10 "/rustc/2c8cc343237b8f7d5a3c3703e3a87f2eb2c54a74/library/core/src/char" "methods.rs"
	.loc	10 663 42 is_stmt 1
	leaq	-164(%rbp), %rsi
	movl	$4, %edx
	callq	__ZN4core4char7methods15encode_utf8_raw17hed0054a89acd5d50E
	movq	%rax, -80(%rbp)
	movq	%rdx, -72(%rbp)
	.loc	10 663 9 is_stmt 0
	movq	%rax, -64(%rbp)
	movq	%rdx, -56(%rbp)
Ltmp24:
	.loc	9 2674 9 is_stmt 1
	movq	%rax, -48(%rbp)
	movq	%rdx, -40(%rbp)
Ltmp25:
	.file	11 "/rustc/2c8cc343237b8f7d5a3c3703e3a87f2eb2c54a74/library/alloc/src" "str.rs"
	.loc	11 209 46
	movq	%rax, -32(%rbp)
	movq	%rdx, -24(%rbp)
Ltmp26:
	.file	12 "/rustc/2c8cc343237b8f7d5a3c3703e3a87f2eb2c54a74/library/core/src/str" "mod.rs"
	.loc	12 327 18
	movq	%rax, -16(%rbp)
	movq	%rdx, -8(%rbp)
	movq	-16(%rbp), %rsi
	movq	-8(%rbp), %rdx
Ltmp27:
	.loc	11 209 46
	leaq	-160(%rbp), %rdi
	callq	__ZN5alloc5slice64_$LT$impl$u20$alloc..borrow..ToOwned$u20$for$u20$$u5b$T$u5d$$GT$8to_owned17h5b80f0a7badca3f3E
	movq	-184(%rbp), %rdi
	movq	-176(%rbp), %rax
Ltmp28:
	.loc	9 846 23
	movq	-160(%rbp), %rcx
	movq	%rcx, -136(%rbp)
	movq	-152(%rbp), %rcx
	movq	%rcx, -128(%rbp)
	movq	-144(%rbp), %rcx
	movq	%rcx, -120(%rbp)
	.loc	9 846 9 is_stmt 0
	movq	-136(%rbp), %rcx
	movq	%rcx, (%rdi)
	movq	-128(%rbp), %rcx
	movq	%rcx, 8(%rdi)
	movq	-120(%rbp), %rcx
	movq	%rcx, 16(%rdi)
Ltmp29:
	.loc	9 2548 6 is_stmt 1
	addq	$192, %rsp
	popq	%rbp
	retq
Ltmp30:
Lfunc_end11:
	.cfi_endproc

	.p2align	4, 0x90
__ZN4core3f6421_$LT$impl$u20$f64$GT$16is_sign_positive17hca7ed2514d19ec1aE:
Lfunc_begin12:
	.file	13 "/rustc/2c8cc343237b8f7d5a3c3703e3a87f2eb2c54a74/library/core/src/num" "f64.rs"
	.loc	13 644 0
	.cfi_startproc
	pushq	%rbp
	.cfi_def_cfa_offset 16
	.cfi_offset %rbp, -16
	movq	%rsp, %rbp
	.cfi_def_cfa_register %rbp
	subq	$24, %rsp
	movsd	%xmm0, -24(%rbp)
Ltmp31:
	.loc	13 645 10 prologue_end
	movsd	%xmm0, -16(%rbp)
Ltmp32:
	.loc	13 679 18
	movq	%xmm0, %rax
	movq	%rax, -8(%rbp)
	movabsq	$-9223372036854775808, %rax
	andq	-8(%rbp), %rax
	cmpq	$0, %rax
	setne	%al
Ltmp33:
	.loc	13 645 9
	xorb	$-1, %al
	.loc	13 646 6
	andb	$1, %al
	movzbl	%al, %eax
	addq	$24, %rsp
	popq	%rbp
	retq
Ltmp34:
Lfunc_end12:
	.cfi_endproc

	.p2align	4, 0x90
__ZN4core3f6421_$LT$impl$u20$f64$GT$9is_normal17h4babeed1cfb4e90bE:
Lfunc_begin13:
	.loc	13 541 0
	.cfi_startproc
	pushq	%rbp
	.cfi_def_cfa_offset 16
	.cfi_offset %rbp, -16
	movq	%rsp, %rbp
	.cfi_def_cfa_register %rbp
	subq	$16, %rsp
	movsd	%xmm0, -8(%rbp)
Ltmp35:
	.loc	13 542 18 prologue_end
	callq	__ZN4core3f6421_$LT$impl$u20$f64$GT$8classify17h1a7c2b2d7b901510E
	movb	%al, -9(%rbp)
	movzbl	-9(%rbp), %eax
	.loc	13 542 9 is_stmt 0
	cmpq	$4, %rax
	jne	LBB13_2
	movb	$1, -10(%rbp)
	jmp	LBB13_3
LBB13_2:
	movb	$0, -10(%rbp)
LBB13_3:
	.loc	13 543 6 is_stmt 1
	movb	-10(%rbp), %al
	andb	$1, %al
	movzbl	%al, %eax
	addq	$16, %rsp
	popq	%rbp
	retq
Ltmp36:
Lfunc_end13:
	.cfi_endproc

	.globl	__ZN4core3fmt10ArgumentV111new_display17h0b6afb7192500b45E
	.p2align	4, 0x90
__ZN4core3fmt10ArgumentV111new_display17h0b6afb7192500b45E:
Lfunc_begin14:
	.file	14 "/rustc/2c8cc343237b8f7d5a3c3703e3a87f2eb2c54a74/library/core/src/fmt" "mod.rs"
	.loc	14 327 0
	.cfi_startproc
	pushq	%rbp
	.cfi_def_cfa_offset 16
	.cfi_offset %rbp, -16
	movq	%rsp, %rbp
	.cfi_def_cfa_register %rbp
	subq	$56, %rsp
	movq	%rdi, -40(%rbp)
Ltmp37:
	.loc	14 328 23 prologue_end
	movq	%rdi, -32(%rbp)
	.loc	14 328 26 is_stmt 0
	movq	__ZN60_$LT$std..io..error..Error$u20$as$u20$core..fmt..Display$GT$3fmt17h30873c19434b7e15E@GOTPCREL(%rip), %rax
	movq	%rax, -24(%rbp)
Ltmp38:
	.loc	14 347 42 is_stmt 1
	movq	%rax, -16(%rbp)
	movq	-16(%rbp), %rax
	.loc	14 347 68 is_stmt 0
	movq	%rdi, -8(%rbp)
	movq	-8(%rbp), %rcx
	.loc	14 347 18
	movq	%rcx, -56(%rbp)
	movq	%rax, -48(%rbp)
Ltmp39:
	.loc	14 329 10 is_stmt 1
	movq	-56(%rbp), %rax
	movq	-48(%rbp), %rdx
	addq	$56, %rsp
	popq	%rbp
	retq
Ltmp40:
Lfunc_end14:
	.cfi_endproc

	.globl	__ZN4core3fmt10ArgumentV111new_display17h704f10e15f7e0298E
	.p2align	4, 0x90
__ZN4core3fmt10ArgumentV111new_display17h704f10e15f7e0298E:
Lfunc_begin15:
	.loc	14 327 0
	.cfi_startproc
	pushq	%rbp
	.cfi_def_cfa_offset 16
	.cfi_offset %rbp, -16
	movq	%rsp, %rbp
	.cfi_def_cfa_register %rbp
	subq	$56, %rsp
	movq	%rdi, -40(%rbp)
Ltmp41:
	.loc	14 328 23 prologue_end
	movq	%rdi, -32(%rbp)
	.loc	14 328 26 is_stmt 0
	movq	__ZN61_$LT$arboard..common..Error$u20$as$u20$core..fmt..Display$GT$3fmt17h7f40587f9a567995E@GOTPCREL(%rip), %rax
	movq	%rax, -24(%rbp)
Ltmp42:
	.loc	14 347 42 is_stmt 1
	movq	%rax, -16(%rbp)
	movq	-16(%rbp), %rax
	.loc	14 347 68 is_stmt 0
	movq	%rdi, -8(%rbp)
	movq	-8(%rbp), %rcx
	.loc	14 347 18
	movq	%rcx, -56(%rbp)
	movq	%rax, -48(%rbp)
Ltmp43:
	.loc	14 329 10 is_stmt 1
	movq	-56(%rbp), %rax
	movq	-48(%rbp), %rdx
	addq	$56, %rsp
	popq	%rbp
	retq
Ltmp44:
Lfunc_end15:
	.cfi_endproc

	.globl	__ZN4core3fmt10ArgumentV19new_debug17h7c1f97874b7e88ecE
	.p2align	4, 0x90
__ZN4core3fmt10ArgumentV19new_debug17h7c1f97874b7e88ecE:
Lfunc_begin16:
	.loc	14 327 0
	.cfi_startproc
	pushq	%rbp
	.cfi_def_cfa_offset 16
	.cfi_offset %rbp, -16
	movq	%rsp, %rbp
	.cfi_def_cfa_register %rbp
	subq	$56, %rsp
	movq	%rdi, -40(%rbp)
Ltmp45:
	.loc	14 328 23 prologue_end
	movq	%rdi, -32(%rbp)
	.loc	14 328 26 is_stmt 0
	leaq	__ZN4core3fmt3num52_$LT$impl$u20$core..fmt..Debug$u20$for$u20$usize$GT$3fmt17hec8a7c7df90475b9E(%rip), %rax
	movq	%rax, -24(%rbp)
Ltmp46:
	.loc	14 347 42 is_stmt 1
	movq	%rax, -16(%rbp)
	movq	-16(%rbp), %rax
	.loc	14 347 68 is_stmt 0
	movq	%rdi, -8(%rbp)
	movq	-8(%rbp), %rcx
	.loc	14 347 18
	movq	%rcx, -56(%rbp)
	movq	%rax, -48(%rbp)
Ltmp47:
	.loc	14 329 10 is_stmt 1
	movq	-56(%rbp), %rax
	movq	-48(%rbp), %rdx
	addq	$56, %rsp
	popq	%rbp
	retq
Ltmp48:
Lfunc_end16:
	.cfi_endproc

	.p2align	4, 0x90
__ZN4core3fmt3num52_$LT$impl$u20$core..fmt..Debug$u20$for$u20$usize$GT$3fmt17hec8a7c7df90475b9E:
Lfunc_begin17:
	.file	15 "/rustc/2c8cc343237b8f7d5a3c3703e3a87f2eb2c54a74/library/core/src/fmt" "num.rs"
	.loc	15 185 0
	.cfi_startproc
	pushq	%rbp
	.cfi_def_cfa_offset 16
	.cfi_offset %rbp, -16
	movq	%rsp, %rbp
	.cfi_def_cfa_register %rbp
	subq	$48, %rsp
	movq	%rsi, -48(%rbp)
	movq	%rdi, %rax
	movq	-48(%rbp), %rdi
	movq	%rax, -40(%rbp)
	movq	%rdi, -32(%rbp)
	movq	%rax, -16(%rbp)
	movq	%rdi, -8(%rbp)
Ltmp49:
	.loc	15 186 20 prologue_end
	callq	__ZN4core3fmt9Formatter15debug_lower_hex17h0921e6b9188d914eE
	testb	$1, %al
	jne	LBB17_2
	.loc	15 0 20 is_stmt 0
	movq	-32(%rbp), %rdi
	.loc	15 188 27 is_stmt 1
	callq	__ZN4core3fmt9Formatter15debug_upper_hex17h8ce487049a6cccf8E
	testb	$1, %al
	jne	LBB17_5
	jmp	LBB17_4
LBB17_2:
	.loc	15 0 27 is_stmt 0
	movq	-32(%rbp), %rsi
	movq	-40(%rbp), %rdi
	.loc	15 187 21 is_stmt 1
	callq	__ZN4core3fmt3num55_$LT$impl$u20$core..fmt..LowerHex$u20$for$u20$usize$GT$3fmt17h84f349805fe63f8dE
	andb	$1, %al
	movb	%al, -17(%rbp)
LBB17_3:
	.loc	15 193 14
	movb	-17(%rbp), %al
	andb	$1, %al
	movzbl	%al, %eax
	addq	$48, %rsp
	popq	%rbp
	retq
LBB17_4:
	.loc	15 0 14 is_stmt 0
	movq	-32(%rbp), %rsi
	movq	-40(%rbp), %rdi
	.loc	15 191 21 is_stmt 1
	callq	__ZN4core3fmt3num3imp54_$LT$impl$u20$core..fmt..Display$u20$for$u20$usize$GT$3fmt17ha5c925fcd7ed33faE
	andb	$1, %al
	movb	%al, -17(%rbp)
	.loc	15 188 24
	jmp	LBB17_6
LBB17_5:
	.loc	15 0 24 is_stmt 0
	movq	-32(%rbp), %rsi
	movq	-40(%rbp), %rdi
	.loc	15 189 21 is_stmt 1
	callq	__ZN4core3fmt3num55_$LT$impl$u20$core..fmt..UpperHex$u20$for$u20$usize$GT$3fmt17h49aa717311edc293E
	andb	$1, %al
	movb	%al, -17(%rbp)
LBB17_6:
	.loc	15 186 17
	jmp	LBB17_3
Ltmp50:
Lfunc_end17:
	.cfi_endproc

	.p2align	4, 0x90
__ZN4core3fmt9Arguments6new_v117h0377f2ee8509a1aeE:
Lfunc_begin18:
	.loc	14 399 0
	.cfi_startproc
	pushq	%rbp
	.cfi_def_cfa_offset 16
	.cfi_offset %rbp, -16
	movq	%rsp, %rbp
	.cfi_def_cfa_register %rbp
	subq	$160, %rsp
	movq	%r8, -152(%rbp)
	movq	%rcx, -144(%rbp)
	movq	%rdx, -136(%rbp)
	movq	%rsi, -128(%rbp)
	movq	%rdi, -120(%rbp)
	movq	%rdi, -112(%rbp)
	movq	%rsi, -32(%rbp)
	movq	%rdx, -24(%rbp)
	movq	%rcx, -16(%rbp)
	movq	%r8, -8(%rbp)
Ltmp51:
	.loc	14 400 12 prologue_end
	cmpq	%r8, %rdx
	jb	LBB18_2
	.loc	14 0 12 is_stmt 0
	movq	-136(%rbp), %rax
	movq	-152(%rbp), %rcx
	.loc	14 400 56
	addq	$1, %rcx
	.loc	14 400 41
	cmpq	%rcx, %rax
	seta	%al
	.loc	14 400 12
	andb	$1, %al
	movb	%al, -97(%rbp)
	jmp	LBB18_3
LBB18_2:
	movb	$1, -97(%rbp)
LBB18_3:
	testb	$1, -97(%rbp)
	jne	LBB18_5
	.loc	14 0 12
	movq	-112(%rbp), %rax
	movq	-120(%rbp), %rcx
	movq	-152(%rbp), %rdx
	movq	-144(%rbp), %rsi
	movq	-136(%rbp), %rdi
	movq	-128(%rbp), %r8
	.loc	14 403 34 is_stmt 1
	movq	$0, -48(%rbp)
	.loc	14 403 9 is_stmt 0
	movq	%r8, 16(%rcx)
	movq	%rdi, 24(%rcx)
	movq	-48(%rbp), %r8
	movq	-40(%rbp), %rdi
	movq	%r8, (%rcx)
	movq	%rdi, 8(%rcx)
	movq	%rsi, 32(%rcx)
	movq	%rdx, 40(%rcx)
	.loc	14 404 6 is_stmt 1
	addq	$160, %rsp
	popq	%rbp
	retq
LBB18_5:
	.loc	14 401 13
	leaq	l___unnamed_5(%rip), %rsi
	leaq	l___unnamed_6(%rip), %rcx
	xorl	%eax, %eax
	movl	%eax, %r8d
	leaq	-96(%rbp), %rdi
	movq	%rdi, -160(%rbp)
	movl	$1, %edx
	callq	__ZN4core3fmt9Arguments6new_v117h0377f2ee8509a1aeE
	movq	-160(%rbp), %rdi
	leaq	l___unnamed_7(%rip), %rsi
	callq	__ZN4core9panicking9panic_fmt17h9b5d807e24bcaaedE
Ltmp52:
Lfunc_end18:
	.cfi_endproc

	.globl	__ZN4core3mem4drop17hfc57cff1ebe59542E
	.p2align	4, 0x90
__ZN4core3mem4drop17hfc57cff1ebe59542E:
Lfunc_begin19:
	.file	16 "/rustc/2c8cc343237b8f7d5a3c3703e3a87f2eb2c54a74/library/core/src/mem" "mod.rs"
	.loc	16 980 0
	.cfi_startproc
	pushq	%rbp
	.cfi_def_cfa_offset 16
	.cfi_offset %rbp, -16
	movq	%rsp, %rbp
	.cfi_def_cfa_register %rbp
	subq	$16, %rsp
	movb	%sil, %al
	movq	%rdi, -16(%rbp)
	andb	$1, %al
	movb	%al, -8(%rbp)
Ltmp53:
	.loc	16 980 24 prologue_end
	leaq	-16(%rbp), %rdi
	callq	__ZN4core3ptr106drop_in_place$LT$std..sync..mutex..MutexGuard$LT$winit..platform_impl..platform..view..CursorState$GT$$GT$17hc81025d8088cd82bE
	.loc	16 980 25 is_stmt 0
	addq	$16, %rsp
	popq	%rbp
	retq
Ltmp54:
Lfunc_end19:
	.cfi_endproc

	.p2align	4, 0x90
__ZN4core3ptr29drop_in_place$LT$$RF$bool$GT$17h5498647accdac169E:
Lfunc_begin20:
	.file	17 "/rustc/2c8cc343237b8f7d5a3c3703e3a87f2eb2c54a74/library/core/src/ptr" "mod.rs"
	.loc	17 490 0 is_stmt 1
	.cfi_startproc
	pushq	%rbp
	.cfi_def_cfa_offset 16
	.cfi_offset %rbp, -16
	movq	%rsp, %rbp
	.cfi_def_cfa_register %rbp
	pushq	%rax
	movq	%rdi, -8(%rbp)
Ltmp55:
	.loc	17 490 1 prologue_end
	addq	$8, %rsp
	popq	%rbp
	retq
Ltmp56:
Lfunc_end20:
	.cfi_endproc

	.globl	__ZN4core3ptr39drop_in_place$LT$arboard..Clipboard$GT$17hfbb640f6fcada014E
	.p2align	4, 0x90
__ZN4core3ptr39drop_in_place$LT$arboard..Clipboard$GT$17hfbb640f6fcada014E:
Lfunc_begin21:
	.loc	17 490 0
	.cfi_startproc
	pushq	%rbp
	.cfi_def_cfa_offset 16
	.cfi_offset %rbp, -16
	movq	%rsp, %rbp
	.cfi_def_cfa_register %rbp
	subq	$16, %rsp
	movq	%rdi, -8(%rbp)
Ltmp57:
	.loc	17 490 1 prologue_end
	callq	__ZN4core3ptr64drop_in_place$LT$arboard..osx_clipboard..OSXClipboardContext$GT$17hbbba109724322b5aE
	addq	$16, %rsp
	popq	%rbp
	retq
Ltmp58:
Lfunc_end21:
	.cfi_endproc

	.p2align	4, 0x90
__ZN4core3ptr41drop_in_place$LT$core..fmt..Arguments$GT$17hfca891b3e82532f3E:
Lfunc_begin22:
	.loc	17 490 0
	.cfi_startproc
	pushq	%rbp
	.cfi_def_cfa_offset 16
	.cfi_offset %rbp, -16
	movq	%rsp, %rbp
	.cfi_def_cfa_register %rbp
	pushq	%rax
	movq	%rdi, -8(%rbp)
Ltmp59:
	.loc	17 490 1 prologue_end
	addq	$8, %rsp
	popq	%rbp
	retq
Ltmp60:
Lfunc_end22:
	.cfi_endproc

	.globl	__ZN4core3ptr49drop_in_place$LT$winit..window..WindowBuilder$GT$17hb1e4cb01297a8178E
	.p2align	4, 0x90
__ZN4core3ptr49drop_in_place$LT$winit..window..WindowBuilder$GT$17hb1e4cb01297a8178E:
Lfunc_begin23:
	.loc	17 490 0
	.cfi_startproc
	pushq	%rbp
	.cfi_def_cfa_offset 16
	.cfi_offset %rbp, -16
	movq	%rsp, %rbp
	.cfi_def_cfa_register %rbp
	subq	$16, %rsp
	movq	%rdi, -8(%rbp)
Ltmp61:
	.loc	17 490 1 prologue_end
	addq	$32, %rdi
	callq	__ZN4core3ptr52drop_in_place$LT$winit..window..WindowAttributes$GT$17hf4165abc42350618E
	addq	$16, %rsp
	popq	%rbp
	retq
Ltmp62:
Lfunc_end23:
	.cfi_endproc

	.globl	__ZN4core3ptr53drop_in_place$LT$egui_winit..clipboard..Clipboard$GT$17h5c54e60c6c2378c8E
	.p2align	4, 0x90
__ZN4core3ptr53drop_in_place$LT$egui_winit..clipboard..Clipboard$GT$17h5c54e60c6c2378c8E:
Lfunc_begin24:
	.loc	17 490 0
	.cfi_startproc
	.cfi_personality 155, _rust_eh_personality
	.cfi_lsda 16, Lexception0
	pushq	%rbp
	.cfi_def_cfa_offset 16
	.cfi_offset %rbp, -16
	movq	%rsp, %rbp
	.cfi_def_cfa_register %rbp
	subq	$32, %rsp
	movq	%rdi, -32(%rbp)
	movq	%rdi, -24(%rbp)
Ltmp63:
Ltmp69:
	.loc	17 490 1 prologue_end
	callq	__ZN4core3ptr67drop_in_place$LT$core..option..Option$LT$arboard..Clipboard$GT$$GT$17h4605190dbc17997bE
Ltmp64:
	jmp	LBB24_3
LBB24_1:
	.loc	17 0 1 is_stmt 0
	movq	-32(%rbp), %rdi
	.loc	17 490 1
	addq	$16, %rdi
Ltmp66:
	callq	__ZN4core3ptr42drop_in_place$LT$alloc..string..String$GT$17hef0d0483296c488eE
Ltmp67:
	jmp	LBB24_5
LBB24_2:
Ltmp65:
	.loc	17 0 1
	movq	%rax, %rcx
	movl	%edx, %eax
	movq	%rcx, -16(%rbp)
	movl	%eax, -8(%rbp)
	jmp	LBB24_1
LBB24_3:
	movq	-32(%rbp), %rdi
	.loc	17 490 1
	addq	$16, %rdi
	callq	__ZN4core3ptr42drop_in_place$LT$alloc..string..String$GT$17hef0d0483296c488eE
	addq	$32, %rsp
	popq	%rbp
	retq
LBB24_4:
Ltmp68:
	callq	__ZN4core9panicking19panic_cannot_unwind17h1fbca7e1d7f56ae1E
LBB24_5:
	movq	-16(%rbp), %rdi
	callq	__Unwind_Resume
Ltmp70:
Lfunc_end24:
	.cfi_endproc
	.section	__TEXT,__gcc_except_tab
	.p2align	2
GCC_except_table24:
Lexception0:
	.byte	255
	.byte	255
	.byte	1
	.uleb128 Lcst_end0-Lcst_begin0
Lcst_begin0:
	.uleb128 Ltmp63-Lfunc_begin24
	.uleb128 Ltmp64-Ltmp63
	.uleb128 Ltmp65-Lfunc_begin24
	.byte	0
	.uleb128 Ltmp66-Lfunc_begin24
	.uleb128 Ltmp67-Ltmp66
	.uleb128 Ltmp68-Lfunc_begin24
	.byte	0
	.uleb128 Ltmp67-Lfunc_begin24
	.uleb128 Lfunc_end24-Ltmp67
	.byte	0
	.byte	0
Lcst_end0:
	.p2align	2

	.section	__TEXT,__text,regular,pure_instructions
	.p2align	4, 0x90
__ZN4core3ptr60drop_in_place$LT$tracing_core..callsite..DefaultCallsite$GT$17h77405ccf93f557bcE:
Lfunc_begin25:
	.loc	17 490 0 is_stmt 1
	.cfi_startproc
	pushq	%rbp
	.cfi_def_cfa_offset 16
	.cfi_offset %rbp, -16
	movq	%rsp, %rbp
	.cfi_def_cfa_register %rbp
	pushq	%rax
	movq	%rdi, -8(%rbp)
Ltmp71:
	.loc	17 490 1 prologue_end
	addq	$8, %rsp
	popq	%rbp
	retq
Ltmp72:
Lfunc_end25:
	.cfi_endproc

	.globl	__ZN4core3ptr64drop_in_place$LT$arboard..osx_clipboard..OSXClipboardContext$GT$17hbbba109724322b5aE
	.p2align	4, 0x90
__ZN4core3ptr64drop_in_place$LT$arboard..osx_clipboard..OSXClipboardContext$GT$17hbbba109724322b5aE:
Lfunc_begin26:
	.loc	17 490 0
	.cfi_startproc
	pushq	%rbp
	.cfi_def_cfa_offset 16
	.cfi_offset %rbp, -16
	movq	%rsp, %rbp
	.cfi_def_cfa_register %rbp
	subq	$16, %rsp
	movq	%rdi, -8(%rbp)
Ltmp73:
	.loc	17 490 1 prologue_end
	callq	__ZN4core3ptr65drop_in_place$LT$objc_id..id..Id$LT$objc..runtime..Object$GT$$GT$17h4c0b4c0b9d2a06f0E
	addq	$16, %rsp
	popq	%rbp
	retq
Ltmp74:
Lfunc_end26:
	.cfi_endproc

	.globl	__ZN4core3ptr65drop_in_place$LT$objc_id..id..Id$LT$objc..runtime..Object$GT$$GT$17h4c0b4c0b9d2a06f0E
	.p2align	4, 0x90
__ZN4core3ptr65drop_in_place$LT$objc_id..id..Id$LT$objc..runtime..Object$GT$$GT$17h4c0b4c0b9d2a06f0E:
Lfunc_begin27:
	.loc	17 490 0
	.cfi_startproc
	pushq	%rbp
	.cfi_def_cfa_offset 16
	.cfi_offset %rbp, -16
	movq	%rsp, %rbp
	.cfi_def_cfa_register %rbp
	subq	$16, %rsp
	movq	%rdi, -8(%rbp)
Ltmp75:
	.loc	17 490 1 prologue_end
	callq	__ZN4core3ptr48drop_in_place$LT$objc..rc..strong..StrongPtr$GT$17hb33c59f6efb9efe4E
	addq	$16, %rsp
	popq	%rbp
	retq
Ltmp76:
Lfunc_end27:
	.cfi_endproc

	.globl	__ZN4core3ptr67drop_in_place$LT$core..option..Option$LT$arboard..Clipboard$GT$$GT$17h4605190dbc17997bE
	.p2align	4, 0x90
__ZN4core3ptr67drop_in_place$LT$core..option..Option$LT$arboard..Clipboard$GT$$GT$17h4605190dbc17997bE:
Lfunc_begin28:
	.loc	17 490 0
	.cfi_startproc
	pushq	%rbp
	.cfi_def_cfa_offset 16
	.cfi_offset %rbp, -16
	movq	%rsp, %rbp
	.cfi_def_cfa_register %rbp
	subq	$16, %rsp
	movq	%rdi, -16(%rbp)
	movq	%rdi, -8(%rbp)
Ltmp77:
	.loc	17 490 1 prologue_end
	cmpq	$0, (%rdi)
	jne	LBB28_2
LBB28_1:
	addq	$16, %rsp
	popq	%rbp
	retq
LBB28_2:
	.loc	17 0 1 is_stmt 0
	movq	-16(%rbp), %rdi
	.loc	17 490 1
	addq	$8, %rdi
	callq	__ZN4core3ptr39drop_in_place$LT$arboard..Clipboard$GT$17hfbb640f6fcada014E
	jmp	LBB28_1
Ltmp78:
Lfunc_end28:
	.cfi_endproc

	.p2align	4, 0x90
__ZN4core3ptr70drop_in_place$LT$$RF$core..option..Option$LT$emath..pos2..Pos2$GT$$GT$17hdc851acdcdc11150E:
Lfunc_begin29:
	.loc	17 490 0 is_stmt 1
	.cfi_startproc
	pushq	%rbp
	.cfi_def_cfa_offset 16
	.cfi_offset %rbp, -16
	movq	%rsp, %rbp
	.cfi_def_cfa_register %rbp
	pushq	%rax
	movq	%rdi, -8(%rbp)
Ltmp79:
	.loc	17 490 1 prologue_end
	addq	$8, %rsp
	popq	%rbp
	retq
Ltmp80:
Lfunc_end29:
	.cfi_endproc

	.p2align	4, 0x90
__ZN4core3ptr70drop_in_place$LT$$RF$core..option..Option$LT$emath..vec2..Vec2$GT$$GT$17hd4548d30ec918185E:
Lfunc_begin30:
	.loc	17 490 0
	.cfi_startproc
	pushq	%rbp
	.cfi_def_cfa_offset 16
	.cfi_offset %rbp, -16
	movq	%rsp, %rbp
	.cfi_def_cfa_register %rbp
	pushq	%rax
	movq	%rdi, -8(%rbp)
Ltmp81:
	.loc	17 490 1 prologue_end
	addq	$8, %rsp
	popq	%rbp
	retq
Ltmp82:
Lfunc_end30:
	.cfi_endproc

	.p2align	4, 0x90
__ZN4core3str21_$LT$impl$u20$str$GT$16is_char_boundary17h231d71926607b43eE:
Lfunc_begin31:
	.loc	12 211 0
	.cfi_startproc
	pushq	%rbp
	.cfi_def_cfa_offset 16
	.cfi_offset %rbp, -16
	movq	%rsp, %rbp
	.cfi_def_cfa_register %rbp
	subq	$176, %rsp
	movq	%rdi, -176(%rbp)
	movq	%rsi, -168(%rbp)
	movq	%rdx, -160(%rbp)
	movq	%rdi, -136(%rbp)
	movq	%rsi, -128(%rbp)
	movq	%rdx, -120(%rbp)
Ltmp83:
	.loc	12 216 12 prologue_end
	cmpq	$0, %rdx
	jne	LBB31_2
	.loc	12 217 20
	movb	$1, -145(%rbp)
	.loc	12 234 6
	jmp	LBB31_6
LBB31_2:
	.loc	12 0 6 is_stmt 0
	movq	-160(%rbp), %rdi
	movq	-168(%rbp), %rax
	movq	-176(%rbp), %rcx
	.loc	12 220 15 is_stmt 1
	movq	%rcx, -112(%rbp)
	movq	%rax, -104(%rbp)
Ltmp84:
	.loc	12 327 18
	movq	%rcx, -96(%rbp)
	movq	%rax, -88(%rbp)
	movq	-96(%rbp), %rsi
	movq	-88(%rbp), %rdx
Ltmp85:
	.loc	12 220 15
	movq	%rsi, -80(%rbp)
	movq	%rdx, -72(%rbp)
	.loc	12 220 35 is_stmt 0
	movq	%rdi, -64(%rbp)
Ltmp86:
	.file	18 "/rustc/2c8cc343237b8f7d5a3c3703e3a87f2eb2c54a74/library/core/src/slice" "mod.rs"
	.loc	18 343 9 is_stmt 1
	callq	__ZN75_$LT$usize$u20$as$u20$core..slice..index..SliceIndex$LT$$u5b$T$u5d$$GT$$GT$3get17hddf402f3d590b761E
	movq	%rax, -144(%rbp)
Ltmp87:
	.loc	12 220 15
	movq	-144(%rbp), %rdx
	movl	$1, %eax
	xorl	%ecx, %ecx
	cmpq	$0, %rdx
	cmoveq	%rcx, %rax
	.loc	12 220 9 is_stmt 0
	cmpq	$0, %rax
	jne	LBB31_4
	.loc	12 0 9
	movq	-160(%rbp), %rax
	movq	-168(%rbp), %rcx
	movq	-176(%rbp), %rdx
	.loc	12 230 30 is_stmt 1
	movq	%rdx, -48(%rbp)
	movq	%rcx, -40(%rbp)
Ltmp88:
	.loc	12 160 9
	movq	%rdx, -32(%rbp)
	movq	%rcx, -24(%rbp)
Ltmp89:
	.loc	12 327 18
	movq	%rdx, -16(%rbp)
	movq	%rcx, -8(%rbp)
Ltmp90:
	.loc	12 230 21
	cmpq	-8(%rbp), %rax
	sete	%al
	andb	$1, %al
	movb	%al, -145(%rbp)
	.loc	12 230 39 is_stmt 0
	jmp	LBB31_5
LBB31_4:
	.loc	12 232 19 is_stmt 1
	movq	-144(%rbp), %rax
	movb	(%rax), %al
	movb	%al, -50(%rbp)
Ltmp91:
	.loc	12 232 25 is_stmt 0
	movb	%al, -49(%rbp)
Ltmp92:
	.file	19 "/rustc/2c8cc343237b8f7d5a3c3703e3a87f2eb2c54a74/library/core/src/num" "mod.rs"
	.loc	19 885 9 is_stmt 1
	cmpb	$-64, %al
	setge	%al
	andb	$1, %al
	movb	%al, -145(%rbp)
Ltmp93:
LBB31_5:
	.loc	12 234 6
	jmp	LBB31_6
LBB31_6:
	movb	-145(%rbp), %al
	andb	$1, %al
	movzbl	%al, %eax
	addq	$176, %rsp
	popq	%rbp
	retq
Ltmp94:
Lfunc_end31:
	.cfi_endproc

	.globl	__ZN4core3str4iter29MatchIndicesInternal$LT$P$GT$4next28_$u7b$$u7b$closure$u7d$$u7d$17h5e3f7ce3e97c9228E
	.p2align	4, 0x90
__ZN4core3str4iter29MatchIndicesInternal$LT$P$GT$4next28_$u7b$$u7b$closure$u7d$$u7d$17h5e3f7ce3e97c9228E:
Lfunc_begin32:
	.file	20 "/rustc/2c8cc343237b8f7d5a3c3703e3a87f2eb2c54a74/library/core/src/str" "iter.rs"
	.loc	20 1008 0
	.cfi_startproc
	pushq	%rbp
	.cfi_def_cfa_offset 16
	.cfi_offset %rbp, -16
	movq	%rsp, %rbp
	.cfi_def_cfa_register %rbp
	subq	$112, %rsp
	movq	%rcx, -112(%rbp)
	movq	%rdx, -96(%rbp)
	movq	%rdi, -88(%rbp)
	movq	%rdi, -80(%rbp)
	movq	%rsi, -72(%rbp)
	movq	%rdx, -48(%rbp)
	movq	%rcx, -40(%rbp)
Ltmp95:
	.loc	20 1008 20 prologue_end
	movq	%rdx, -32(%rbp)
	.loc	20 1008 27 is_stmt 0
	movq	%rcx, -24(%rbp)
Ltmp96:
	.loc	20 1008 50
	movq	-72(%rbp), %rdi
	callq	__ZN80_$LT$core..str..pattern..StrSearcher$u20$as$u20$core..str..pattern..Searcher$GT$8haystack17hd204a564fc4066e0E
	movq	-96(%rbp), %rsi
	movq	%rax, %rcx
	movq	-112(%rbp), %rax
	movq	%rcx, -104(%rbp)
	movq	%rdx, %rcx
	movq	-104(%rbp), %rdx
	movq	%rdx, -16(%rbp)
	movq	%rcx, -8(%rbp)
	.loc	20 1008 82
	movq	%rsi, -64(%rbp)
	movq	%rax, -56(%rbp)
Ltmp97:
	.loc	12 511 20 is_stmt 1
	movq	-64(%rbp), %rdi
	movq	-56(%rbp), %rsi
	callq	__ZN4core3str6traits108_$LT$impl$u20$core..slice..index..SliceIndex$LT$str$GT$$u20$for$u20$core..ops..range..Range$LT$usize$GT$$GT$13get_unchecked17h011a61260f9c2bb4E
	movq	-96(%rbp), %rsi
	movq	-88(%rbp), %rdi
	movq	%rax, %rcx
	movq	-80(%rbp), %rax
Ltmp98:
	.loc	20 1008 42
	movq	%rsi, (%rdi)
	movq	%rcx, 8(%rdi)
	movq	%rdx, 16(%rdi)
Ltmp99:
	.loc	20 1008 96 is_stmt 0
	addq	$112, %rsp
	popq	%rbp
	retq
Ltmp100:
Lfunc_end32:
	.cfi_endproc

	.p2align	4, 0x90
__ZN4core3str6traits108_$LT$impl$u20$core..slice..index..SliceIndex$LT$str$GT$$u20$for$u20$core..ops..range..Range$LT$usize$GT$$GT$13get_unchecked17h011a61260f9c2bb4E:
Lfunc_begin33:
	.file	21 "/rustc/2c8cc343237b8f7d5a3c3703e3a87f2eb2c54a74/library/core/src/str" "traits.rs"
	.loc	21 197 0 is_stmt 1
	.cfi_startproc
	pushq	%rbp
	.cfi_def_cfa_offset 16
	.cfi_offset %rbp, -16
	movq	%rsp, %rbp
	.cfi_def_cfa_register %rbp
	subq	$192, %rsp
	movq	%rdi, -160(%rbp)
	movq	%rsi, -152(%rbp)
	movq	%rdx, -144(%rbp)
	movq	%rcx, -136(%rbp)
Ltmp101:
	.loc	21 198 21 prologue_end
	movq	%rdx, -128(%rbp)
	movq	%rcx, -120(%rbp)
Ltmp102:
	.loc	21 201 28
	movq	%rdx, -112(%rbp)
	movq	%rcx, -104(%rbp)
Ltmp103:
	.file	22 "/rustc/2c8cc343237b8f7d5a3c3703e3a87f2eb2c54a74/library/core/src/ptr" "const_ptr.rs"
	.loc	22 1650 9
	movq	%rdx, -96(%rbp)
Ltmp104:
	.loc	21 201 47
	movq	%rdi, -88(%rbp)
Ltmp105:
	.loc	22 932 18
	movq	%rdx, -80(%rbp)
	.loc	22 932 30 is_stmt 0
	movq	%rdi, -72(%rbp)
Ltmp106:
	.loc	22 473 18 is_stmt 1
	addq	%rdi, %rdx
	movq	%rdx, -64(%rbp)
	movq	-64(%rbp), %rax
	movq	%rax, -56(%rbp)
Ltmp107:
	.loc	21 202 19
	subq	%rdi, %rsi
	movq	%rsi, -48(%rbp)
Ltmp108:
	.loc	21 203 35
	movq	%rax, -40(%rbp)
	.loc	21 203 40 is_stmt 0
	movq	%rsi, -32(%rbp)
Ltmp109:
	.loc	17 734 20 is_stmt 1
	movq	%rax, -24(%rbp)
Ltmp110:
	.loc	22 61 9
	movq	%rax, -16(%rbp)
Ltmp111:
	.loc	17 734 33
	movq	%rsi, -8(%rbp)
Ltmp112:
	.file	23 "/rustc/2c8cc343237b8f7d5a3c3703e3a87f2eb2c54a74/library/core/src/ptr" "metadata.rs"
	.loc	23 118 36
	movq	%rax, -176(%rbp)
	movq	%rsi, -168(%rbp)
	.loc	23 118 14 is_stmt 0
	movq	-176(%rbp), %rcx
	movq	-168(%rbp), %rax
	movq	%rcx, -192(%rbp)
	movq	%rax, -184(%rbp)
	movq	-192(%rbp), %rax
	movq	-184(%rbp), %rdx
Ltmp113:
	.loc	21 204 6 is_stmt 1
	addq	$192, %rsp
	popq	%rbp
	retq
Ltmp114:
Lfunc_end33:
	.cfi_endproc

	.p2align	4, 0x90
__ZN4core3str6traits112_$LT$impl$u20$core..slice..index..SliceIndex$LT$str$GT$$u20$for$u20$core..ops..range..RangeFrom$LT$usize$GT$$GT$13get_unchecked17h9b03b2dfb3a0c141E:
Lfunc_begin34:
	.loc	21 349 0
	.cfi_startproc
	pushq	%rbp
	.cfi_def_cfa_offset 16
	.cfi_offset %rbp, -16
	movq	%rsp, %rbp
	.cfi_def_cfa_register %rbp
	subq	$232, %rsp
	movq	%rdi, -184(%rbp)
	movq	%rsi, -176(%rbp)
	movq	%rdx, -168(%rbp)
Ltmp115:
	.loc	21 350 21 prologue_end
	movq	%rsi, -160(%rbp)
	movq	%rdx, -152(%rbp)
Ltmp116:
	.loc	21 353 28
	movq	%rsi, -144(%rbp)
	movq	%rdx, -136(%rbp)
Ltmp117:
	.loc	22 1650 9
	movq	%rsi, -128(%rbp)
Ltmp118:
	.loc	21 353 47
	movq	%rdi, -120(%rbp)
Ltmp119:
	.loc	22 932 18
	movq	%rsi, -112(%rbp)
	.loc	22 932 30 is_stmt 0
	movq	%rdi, -104(%rbp)
Ltmp120:
	.loc	22 473 18 is_stmt 1
	movq	%rsi, %rax
	addq	%rdi, %rax
	movq	%rax, -96(%rbp)
	movq	-96(%rbp), %rcx
	movq	%rcx, -88(%rbp)
Ltmp121:
	.loc	21 354 19
	movq	%rsi, -80(%rbp)
	movq	%rdx, -72(%rbp)
Ltmp122:
	.loc	22 1630 18
	movq	%rsi, -64(%rbp)
	movq	%rdx, -56(%rbp)
Ltmp123:
	.loc	23 98 14
	movq	%rsi, -232(%rbp)
	movq	%rdx, -224(%rbp)
	movq	-224(%rbp), %rax
Ltmp124:
	.loc	21 354 19
	subq	%rdi, %rax
	movq	%rax, -48(%rbp)
Ltmp125:
	.loc	21 355 35
	movq	%rcx, -40(%rbp)
	.loc	21 355 40 is_stmt 0
	movq	%rax, -32(%rbp)
Ltmp126:
	.loc	17 734 20 is_stmt 1
	movq	%rcx, -24(%rbp)
Ltmp127:
	.loc	22 61 9
	movq	%rcx, -16(%rbp)
Ltmp128:
	.loc	17 734 33
	movq	%rax, -8(%rbp)
Ltmp129:
	.loc	23 118 36
	movq	%rcx, -200(%rbp)
	movq	%rax, -192(%rbp)
	.loc	23 118 14 is_stmt 0
	movq	-200(%rbp), %rcx
	movq	-192(%rbp), %rax
	movq	%rcx, -216(%rbp)
	movq	%rax, -208(%rbp)
	movq	-216(%rbp), %rax
	movq	-208(%rbp), %rdx
Ltmp130:
	.loc	21 356 6 is_stmt 1
	addq	$232, %rsp
	popq	%rbp
	retq
Ltmp131:
Lfunc_end34:
	.cfi_endproc

	.p2align	4, 0x90
__ZN4core3str6traits112_$LT$impl$u20$core..slice..index..SliceIndex$LT$str$GT$$u20$for$u20$core..ops..range..RangeFrom$LT$usize$GT$$GT$3get17hf459975c13c15a58E:
Lfunc_begin35:
	.loc	21 329 0
	.cfi_startproc
	pushq	%rbp
	.cfi_def_cfa_offset 16
	.cfi_offset %rbp, -16
	movq	%rsp, %rbp
	.cfi_def_cfa_register %rbp
	subq	$80, %rsp
	movq	%rdx, -80(%rbp)
	movq	%rsi, %rax
	movq	-80(%rbp), %rsi
	movq	%rax, -72(%rbp)
	movq	%rdi, %rdx
	movq	-72(%rbp), %rdi
	movq	%rdx, -64(%rbp)
	movq	%rdi, -56(%rbp)
	movq	%rsi, -48(%rbp)
	movq	%rdx, -24(%rbp)
	movq	%rdi, -16(%rbp)
	movq	%rsi, -8(%rbp)
Ltmp132:
	.loc	21 330 12 prologue_end
	callq	__ZN4core3str21_$LT$impl$u20$str$GT$16is_char_boundary17h231d71926607b43eE
	testb	$1, %al
	jne	LBB35_2
	.loc	21 335 13
	movq	$0, -40(%rbp)
	.loc	21 330 9
	jmp	LBB35_3
LBB35_2:
	.loc	21 0 9 is_stmt 0
	movq	-48(%rbp), %rdx
	movq	-56(%rbp), %rsi
	movq	-64(%rbp), %rdi
	.loc	21 333 29 is_stmt 1
	callq	__ZN4core3str6traits112_$LT$impl$u20$core..slice..index..SliceIndex$LT$str$GT$$u20$for$u20$core..ops..range..RangeFrom$LT$usize$GT$$GT$13get_unchecked17h9b03b2dfb3a0c141E
	.loc	21 333 13 is_stmt 0
	movq	%rax, -40(%rbp)
	movq	%rdx, -32(%rbp)
LBB35_3:
	.loc	21 337 6 is_stmt 1
	movq	-40(%rbp), %rax
	movq	-32(%rbp), %rdx
	addq	$80, %rsp
	popq	%rbp
	retq
Ltmp133:
Lfunc_end35:
	.cfi_endproc

	.p2align	4, 0x90
__ZN4core3str6traits112_$LT$impl$u20$core..slice..index..SliceIndex$LT$str$GT$$u20$for$u20$core..ops..range..RangeFrom$LT$usize$GT$$GT$5index17h2f390cea4b2546b0E:
Lfunc_begin36:
	.loc	21 366 0
	.cfi_startproc
	pushq	%rbp
	.cfi_def_cfa_offset 16
	.cfi_offset %rbp, -16
	movq	%rsp, %rbp
	.cfi_def_cfa_register %rbp
	subq	$176, %rsp
	movq	%rsi, -176(%rbp)
	movq	%rdx, -168(%rbp)
	movq	%rcx, -160(%rbp)
	movq	%rdi, -104(%rbp)
	movq	%rsi, -96(%rbp)
	movq	%rdx, -88(%rbp)
Ltmp134:
	.loc	21 367 41 prologue_end
	movq	%rsi, -80(%rbp)
	movq	%rdx, -72(%rbp)
Ltmp135:
	.loc	12 160 9
	movq	%rsi, -64(%rbp)
	movq	%rdx, -56(%rbp)
Ltmp136:
	.loc	12 327 18
	movq	%rsi, -48(%rbp)
	movq	%rdx, -40(%rbp)
	movq	-40(%rbp), %rax
Ltmp137:
	.loc	21 367 28
	movq	%rdi, -136(%rbp)
	movq	%rax, -128(%rbp)
	.loc	21 367 14 is_stmt 0
	movq	-136(%rbp), %rax
	movq	%rax, -152(%rbp)
	movq	%rax, -32(%rbp)
	.loc	21 367 21
	movq	-128(%rbp), %rax
	movq	%rax, -144(%rbp)
	movq	%rax, -24(%rbp)
Ltmp138:
	.loc	21 368 15 is_stmt 1
	callq	__ZN4core3str6traits112_$LT$impl$u20$core..slice..index..SliceIndex$LT$str$GT$$u20$for$u20$core..ops..range..RangeFrom$LT$usize$GT$$GT$3get17hf459975c13c15a58E
	movq	%rdx, -112(%rbp)
	movq	%rax, -120(%rbp)
	movq	-120(%rbp), %rdx
	movl	$1, %eax
	xorl	%ecx, %ecx
	cmpq	$0, %rdx
	cmoveq	%rcx, %rax
	.loc	21 368 9 is_stmt 0
	cmpq	$0, %rax
	jne	LBB36_2
	.loc	21 0 9
	movq	-160(%rbp), %r8
	movq	-144(%rbp), %rcx
	movq	-152(%rbp), %rdx
	movq	-168(%rbp), %rsi
	movq	-176(%rbp), %rdi
	.loc	21 370 21 is_stmt 1
	callq	__ZN4core3str16slice_error_fail17h13b85bf03fb2869bE
LBB36_2:
	.loc	21 369 18
	movq	-120(%rbp), %rax
	movq	-112(%rbp), %rdx
	movq	%rax, -16(%rbp)
	movq	%rdx, -8(%rbp)
Ltmp139:
	.loc	21 372 6
	addq	$176, %rsp
	popq	%rbp
	retq
Ltmp140:
Lfunc_end36:
	.cfi_endproc

	.globl	__ZN4core4bool22_$LT$impl$u20$bool$GT$4then17h1bfef0d5ad705511E
	.p2align	4, 0x90
__ZN4core4bool22_$LT$impl$u20$bool$GT$4then17h1bfef0d5ad705511E:
Lfunc_begin37:
	.file	24 "/rustc/2c8cc343237b8f7d5a3c3703e3a87f2eb2c54a74/library/core/src" "bool.rs"
	.loc	24 66 0
	.cfi_startproc
	pushq	%rbp
	.cfi_def_cfa_offset 16
	.cfi_offset %rbp, -16
	movq	%rsp, %rbp
	.cfi_def_cfa_register %rbp
	subq	$80, %rsp
	movq	%rdi, -72(%rbp)
	movb	%sil, %al
	movq	%rdi, -64(%rbp)
	movb	%al, %cl
	andb	$1, %cl
	movb	%cl, -9(%rbp)
Ltmp141:
	.loc	24 71 12 prologue_end
	movb	$1, -10(%rbp)
	testb	$1, %al
	jne	LBB37_2
	.loc	24 0 12 is_stmt 0
	movq	-72(%rbp), %rax
	.loc	24 71 38
	movl	$2, (%rax)
	.loc	24 71 9
	jmp	LBB37_3
LBB37_2:
	.loc	24 71 24
	movb	$0, -10(%rbp)
	leaq	-56(%rbp), %rdi
	callq	__ZN10egui_winit15window_settings14WindowSettings17initialize_window28_$u7b$$u7b$closure$u7d$$u7d$17h09e84798be556b88E
	movq	-72(%rbp), %rdi
	.loc	24 71 19
	leaq	-56(%rbp), %rsi
	movl	$40, %edx
	callq	_memcpy
LBB37_3:
	.loc	24 72 5 is_stmt 1
	testb	$1, -10(%rbp)
	jne	LBB37_5
LBB37_4:
	.loc	24 0 5 is_stmt 0
	movq	-64(%rbp), %rax
	.loc	24 72 6
	addq	$80, %rsp
	popq	%rbp
	retq
LBB37_5:
	.loc	24 72 5
	jmp	LBB37_4
Ltmp142:
Lfunc_end37:
	.cfi_endproc

	.p2align	4, 0x90
__ZN4core4char7methods15encode_utf8_raw17hed0054a89acd5d50E:
Lfunc_begin38:
	.loc	10 1729 0 is_stmt 1
	.cfi_startproc
	pushq	%rbp
	.cfi_def_cfa_offset 16
	.cfi_offset %rbp, -16
	movq	%rsp, %rbp
	.cfi_def_cfa_register %rbp
	subq	$560, %rsp
	movq	%rsi, -544(%rbp)
	movq	%rdx, -536(%rbp)
	movl	%edi, -516(%rbp)
	movq	%rsi, -304(%rbp)
	movq	%rdx, -296(%rbp)
Ltmp143:
	.loc	10 1730 24 prologue_end
	movl	-516(%rbp), %edi
	.loc	10 1730 15 is_stmt 0
	callq	__ZN4core4char7methods8len_utf817h5d5ed4c13432c489E
	movq	-544(%rbp), %rsi
	movq	-536(%rbp), %rdx
	movq	%rax, -512(%rbp)
Ltmp144:
	.loc	10 1731 12 is_stmt 1
	movq	-512(%rbp), %rax
	.loc	10 1731 22 is_stmt 0
	movq	%rsi, -272(%rbp)
	movq	%rdx, -264(%rbp)
Ltmp145:
	.file	25 "/rustc/2c8cc343237b8f7d5a3c3703e3a87f2eb2c54a74/library/core/src/slice" "index.rs"
	.loc	25 30 25 is_stmt 1
	movq	%rsi, -256(%rbp)
	movq	%rdx, -248(%rbp)
Ltmp146:
	.loc	10 1731 11
	movq	%rax, -504(%rbp)
	movq	%rsi, -496(%rbp)
	movq	%rdx, -488(%rbp)
	.loc	10 1731 5 is_stmt 0
	movq	-504(%rbp), %rax
	decq	%rax
	movq	%rax, -528(%rbp)
	subq	$3, %rax
	ja	LBB38_1
	.loc	10 0 5
	movq	-528(%rbp), %rax
	leaq	LJTI38_0(%rip), %rcx
	movslq	(%rcx,%rax,4), %rax
	addq	%rcx, %rax
	jmpq	*%rax
LBB38_1:
	movq	-536(%rbp), %rcx
	leaq	-512(%rbp), %rsi
	.loc	10 1750 14 is_stmt 1
	movq	%rsi, -120(%rbp)
Ltmp147:
	.loc	14 328 23
	movq	%rsi, -112(%rbp)
	.loc	14 328 26 is_stmt 0
	movq	__ZN4core3fmt3num3imp54_$LT$impl$u20$core..fmt..Display$u20$for$u20$usize$GT$3fmt17ha5c925fcd7ed33faE@GOTPCREL(%rip), %rax
	movq	%rax, -104(%rbp)
Ltmp148:
	.loc	14 347 42 is_stmt 1
	movq	%rax, -96(%rbp)
	movq	-96(%rbp), %rdx
	.loc	14 347 68 is_stmt 0
	movq	%rsi, -88(%rbp)
	movq	-88(%rbp), %rsi
	.loc	14 347 18
	movq	%rsi, -384(%rbp)
	movq	%rdx, -376(%rbp)
	leaq	-516(%rbp), %rsi
Ltmp149:
	.loc	10 1750 14 is_stmt 1
	movq	%rsi, -80(%rbp)
Ltmp150:
	.loc	14 328 23
	movq	%rsi, -72(%rbp)
	.loc	14 328 26 is_stmt 0
	movq	__ZN4core3fmt3num53_$LT$impl$u20$core..fmt..UpperHex$u20$for$u20$u32$GT$3fmt17ha96bbefe8f663d11E@GOTPCREL(%rip), %rdx
	movq	%rdx, -64(%rbp)
Ltmp151:
	.loc	14 347 42 is_stmt 1
	movq	%rdx, -56(%rbp)
	movq	-56(%rbp), %rdx
	.loc	14 347 68 is_stmt 0
	movq	%rsi, -48(%rbp)
	movq	-48(%rbp), %rsi
	.loc	14 347 18
	movq	%rsi, -368(%rbp)
	movq	%rdx, -360(%rbp)
Ltmp152:
	.loc	10 1754 13 is_stmt 1
	movq	%rcx, -336(%rbp)
	leaq	-336(%rbp), %rcx
	.loc	10 1750 14
	movq	%rcx, -40(%rbp)
Ltmp153:
	.loc	14 328 23
	movq	%rcx, -32(%rbp)
	.loc	14 328 26 is_stmt 0
	movq	%rax, -24(%rbp)
Ltmp154:
	.loc	14 347 42 is_stmt 1
	movq	%rax, -16(%rbp)
	movq	-16(%rbp), %rax
	.loc	14 347 68 is_stmt 0
	movq	%rcx, -8(%rbp)
	movq	-8(%rbp), %rcx
	.loc	14 347 18
	movq	%rcx, -352(%rbp)
	movq	%rax, -344(%rbp)
Ltmp155:
	.loc	10 1750 14 is_stmt 1
	movq	-384(%rbp), %rcx
	movq	-376(%rbp), %rax
	movq	%rcx, -432(%rbp)
	movq	%rax, -424(%rbp)
	movq	-368(%rbp), %rcx
	movq	-360(%rbp), %rax
	movq	%rcx, -416(%rbp)
	movq	%rax, -408(%rbp)
	movq	-352(%rbp), %rcx
	movq	-344(%rbp), %rax
	movq	%rcx, -400(%rbp)
	movq	%rax, -392(%rbp)
	leaq	l___unnamed_8(%rip), %rsi
	leaq	-480(%rbp), %rdi
	movq	%rdi, -552(%rbp)
	leaq	-432(%rbp), %rcx
	movl	$3, %r8d
	movq	%r8, %rdx
	callq	__ZN4core3fmt9Arguments6new_v117h0377f2ee8509a1aeE
	movq	-552(%rbp), %rdi
	leaq	l___unnamed_9(%rip), %rsi
	callq	__ZN4core9panicking9panic_fmt17h9b5d807e24bcaaedE
LBB38_2:
	.loc	10 1732 13
	cmpq	$1, -488(%rbp)
	jae	LBB38_10
	jmp	LBB38_1
LBB38_3:
	.loc	10 1735 13
	cmpq	$2, -488(%rbp)
	jae	LBB38_9
	jmp	LBB38_1
LBB38_4:
	.loc	10 1739 13
	cmpq	$3, -488(%rbp)
	jae	LBB38_8
	jmp	LBB38_1
LBB38_5:
	.loc	10 1744 13
	cmpq	$4, -488(%rbp)
	jb	LBB38_1
	.loc	10 1744 14 is_stmt 0
	movq	-496(%rbp), %rsi
	movq	%rsi, -240(%rbp)
	.loc	10 1744 17
	movq	-496(%rbp), %rdx
	movq	%rdx, %rax
	addq	$1, %rax
	movq	%rax, -232(%rbp)
	.loc	10 1744 20
	movq	-496(%rbp), %rcx
	movq	%rcx, %rax
	addq	$2, %rax
	movq	%rax, -224(%rbp)
	.loc	10 1744 23
	movq	-496(%rbp), %rax
	movq	%rax, %rdi
	addq	$3, %rdi
	movq	%rdi, -216(%rbp)
Ltmp156:
	.loc	10 1745 19 is_stmt 1
	movl	-516(%rbp), %edi
	shrl	$18, %edi
	.loc	10 1745 18 is_stmt 0
	andl	$7, %edi
	.loc	10 1745 13
	orb	$-16, %dil
	movb	%dil, (%rsi)
	.loc	10 1746 19 is_stmt 1
	movl	-516(%rbp), %esi
	shrl	$12, %esi
	.loc	10 1746 18 is_stmt 0
	andl	$63, %esi
	.loc	10 1746 13
	orb	$-128, %sil
	movb	%sil, 1(%rdx)
	.loc	10 1747 19 is_stmt 1
	movl	-516(%rbp), %edx
	shrl	$6, %edx
	.loc	10 1747 18 is_stmt 0
	andl	$63, %edx
	.loc	10 1747 13
	orb	$-128, %dl
	movb	%dl, 2(%rcx)
	.loc	10 1748 19 is_stmt 1
	movl	-516(%rbp), %ecx
	.loc	10 1748 18 is_stmt 0
	andl	$63, %ecx
	.loc	10 1748 13
	orb	$-128, %cl
	movb	%cl, 3(%rax)
Ltmp157:
LBB38_7:
	.loc	10 0 13
	movq	-536(%rbp), %rcx
	movq	-544(%rbp), %rdx
	.loc	10 1757 10 is_stmt 1
	movq	%rdx, -160(%rbp)
	movq	%rcx, -152(%rbp)
	.loc	10 1757 16 is_stmt 0
	movq	-512(%rbp), %rax
	.loc	10 1757 14
	movq	%rax, -328(%rbp)
Ltmp158:
	.loc	25 30 9 is_stmt 1
	movq	-328(%rbp), %rax
	movq	%rax, -144(%rbp)
	.loc	25 30 25 is_stmt 0
	movq	%rdx, -136(%rbp)
	movq	%rcx, -128(%rbp)
Ltmp159:
	.loc	25 461 9 is_stmt 1
	movq	$0, -320(%rbp)
	movq	%rax, -312(%rbp)
	movq	-320(%rbp), %rdi
	movq	-312(%rbp), %rsi
	leaq	l___unnamed_10(%rip), %r8
	callq	__ZN106_$LT$core..ops..range..Range$LT$usize$GT$$u20$as$u20$core..slice..index..SliceIndex$LT$$u5b$T$u5d$$GT$$GT$9index_mut17h44d3b1eca3aed9baE
Ltmp160:
	.loc	10 1758 2
	addq	$560, %rsp
	popq	%rbp
	retq
LBB38_8:
Ltmp161:
	.loc	10 1739 14
	movq	-496(%rbp), %rdx
	movq	%rdx, -208(%rbp)
	.loc	10 1739 17 is_stmt 0
	movq	-496(%rbp), %rcx
	movq	%rcx, %rax
	addq	$1, %rax
	movq	%rax, -200(%rbp)
	.loc	10 1739 20
	movq	-496(%rbp), %rax
	movq	%rax, %rsi
	addq	$2, %rsi
	movq	%rsi, -192(%rbp)
Ltmp162:
	.loc	10 1740 19 is_stmt 1
	movl	-516(%rbp), %esi
	shrl	$12, %esi
	.loc	10 1740 18 is_stmt 0
	andl	$15, %esi
	.loc	10 1740 13
	orb	$-32, %sil
	movb	%sil, (%rdx)
	.loc	10 1741 19 is_stmt 1
	movl	-516(%rbp), %edx
	shrl	$6, %edx
	.loc	10 1741 18 is_stmt 0
	andl	$63, %edx
	.loc	10 1741 13
	orb	$-128, %dl
	movb	%dl, 1(%rcx)
	.loc	10 1742 19 is_stmt 1
	movl	-516(%rbp), %ecx
	.loc	10 1742 18 is_stmt 0
	andl	$63, %ecx
	.loc	10 1742 13
	orb	$-128, %cl
	movb	%cl, 2(%rax)
Ltmp163:
	.loc	10 1743 9 is_stmt 1
	jmp	LBB38_7
LBB38_9:
	.loc	10 1735 14
	movq	-496(%rbp), %rcx
	movq	%rcx, -184(%rbp)
	.loc	10 1735 17 is_stmt 0
	movq	-496(%rbp), %rax
	movq	%rax, %rdx
	addq	$1, %rdx
	movq	%rdx, -176(%rbp)
Ltmp164:
	.loc	10 1736 19 is_stmt 1
	movl	-516(%rbp), %edx
	shrl	$6, %edx
	.loc	10 1736 18 is_stmt 0
	andl	$31, %edx
	.loc	10 1736 13
	orb	$-64, %dl
	movb	%dl, (%rcx)
	.loc	10 1737 19 is_stmt 1
	movl	-516(%rbp), %ecx
	.loc	10 1737 18 is_stmt 0
	andl	$63, %ecx
	.loc	10 1737 13
	orb	$-128, %cl
	movb	%cl, 1(%rax)
Ltmp165:
	.loc	10 1738 9 is_stmt 1
	jmp	LBB38_7
LBB38_10:
	.loc	10 1732 14
	movq	-496(%rbp), %rax
	movq	%rax, -168(%rbp)
Ltmp166:
	.loc	10 1733 18
	movl	-516(%rbp), %ecx
	.loc	10 1733 13 is_stmt 0
	movb	%cl, (%rax)
Ltmp167:
	.loc	10 1734 9 is_stmt 1
	jmp	LBB38_7
Ltmp168:
Lfunc_end38:
	.cfi_endproc
	.p2align	2, 0x90
	.data_region jt32
.set L38_0_set_2, LBB38_2-LJTI38_0
.set L38_0_set_3, LBB38_3-LJTI38_0
.set L38_0_set_4, LBB38_4-LJTI38_0
.set L38_0_set_5, LBB38_5-LJTI38_0
LJTI38_0:
	.long	L38_0_set_2
	.long	L38_0_set_3
	.long	L38_0_set_4
	.long	L38_0_set_5
	.end_data_region

	.p2align	4, 0x90
__ZN4core4char7methods22_$LT$impl$u20$char$GT$16is_ascii_control17ha790bfa90ec07627E:
Lfunc_begin39:
	.loc	10 1676 0
	.cfi_startproc
	pushq	%rbp
	.cfi_def_cfa_offset 16
	.cfi_offset %rbp, -16
	movq	%rsp, %rbp
	.cfi_def_cfa_register %rbp
	subq	$24, %rsp
	movq	%rdi, -24(%rbp)
	movq	%rdi, -8(%rbp)
Ltmp169:
	.loc	10 1677 25 prologue_end
	xorl	%eax, %eax
	cmpl	(%rdi), %eax
	jbe	LBB39_2
LBB39_1:
	.loc	10 0 25 is_stmt 0
	movq	-24(%rbp), %rax
	.loc	10 1677 9
	cmpl	$127, (%rax)
	je	LBB39_3
	jmp	LBB39_4
LBB39_2:
	.loc	10 0 9
	movq	-24(%rbp), %rax
	.loc	10 1677 25
	cmpl	$31, (%rax)
	ja	LBB39_1
LBB39_3:
	.loc	10 1677 9
	movb	$1, -9(%rbp)
	jmp	LBB39_5
LBB39_4:
	movb	$0, -9(%rbp)
LBB39_5:
	.loc	10 1678 6 is_stmt 1
	movb	-9(%rbp), %al
	andb	$1, %al
	movzbl	%al, %eax
	addq	$24, %rsp
	popq	%rbp
	retq
Ltmp170:
Lfunc_end39:
	.cfi_endproc

	.p2align	4, 0x90
__ZN4core4char7methods8len_utf817h5d5ed4c13432c489E:
Lfunc_begin40:
	.loc	10 1701 0
	.cfi_startproc
	pushq	%rbp
	.cfi_def_cfa_offset 16
	.cfi_offset %rbp, -16
	movq	%rsp, %rbp
	.cfi_def_cfa_register %rbp
	subq	$24, %rsp
	movl	%edi, -20(%rbp)
	movl	%edi, -4(%rbp)
Ltmp171:
	.loc	10 1702 8 prologue_end
	cmpl	$128, %edi
	jb	LBB40_2
	.loc	10 0 8 is_stmt 0
	movl	-20(%rbp), %eax
	.loc	10 1704 15 is_stmt 1
	cmpl	$2048, %eax
	jb	LBB40_5
	jmp	LBB40_4
LBB40_2:
	.loc	10 1703 9
	movq	$1, -16(%rbp)
LBB40_3:
	.loc	10 1711 2
	movq	-16(%rbp), %rax
	addq	$24, %rsp
	popq	%rbp
	retq
LBB40_4:
	.loc	10 0 2 is_stmt 0
	movl	-20(%rbp), %eax
	.loc	10 1706 15 is_stmt 1
	cmpl	$65536, %eax
	jb	LBB40_8
	jmp	LBB40_7
LBB40_5:
	.loc	10 1705 9
	movq	$2, -16(%rbp)
LBB40_6:
	.loc	10 1702 5
	jmp	LBB40_3
LBB40_7:
	.loc	10 1709 9
	movq	$4, -16(%rbp)
	.loc	10 1706 12
	jmp	LBB40_9
LBB40_8:
	.loc	10 1707 9
	movq	$3, -16(%rbp)
LBB40_9:
	.loc	10 1704 12
	jmp	LBB40_6
Ltmp172:
Lfunc_end40:
	.cfi_endproc

	.p2align	4, 0x90
__ZN4core4sync6atomic11AtomicUsize4load17h194fee622e99db01E:
Lfunc_begin41:
	.file	26 "/rustc/2c8cc343237b8f7d5a3c3703e3a87f2eb2c54a74/library/core/src/sync" "atomic.rs"
	.loc	26 2125 0
	.cfi_startproc
	pushq	%rbp
	.cfi_def_cfa_offset 16
	.cfi_offset %rbp, -16
	movq	%rsp, %rbp
	.cfi_def_cfa_register %rbp
	subq	$32, %rsp
	movb	%sil, %al
	movq	%rdi, -24(%rbp)
	movb	%al, -9(%rbp)
Ltmp173:
	.loc	26 2127 38 prologue_end
	movq	%rdi, -8(%rbp)
	.loc	26 2127 26 is_stmt 0
	movzbl	%al, %esi
	callq	__ZN4core4sync6atomic11atomic_load17h38c27615fc794740E
	.loc	26 2128 14 is_stmt 1
	addq	$32, %rsp
	popq	%rbp
	retq
Ltmp174:
Lfunc_end41:
	.cfi_endproc

	.p2align	4, 0x90
__ZN4core4sync6atomic11AtomicUsize5store17h2d7939fb960cd3fcE:
Lfunc_begin42:
	.loc	26 2152 0
	.cfi_startproc
	pushq	%rbp
	.cfi_def_cfa_offset 16
	.cfi_offset %rbp, -16
	movq	%rsp, %rbp
	.cfi_def_cfa_register %rbp
	subq	$32, %rsp
	movb	%dl, %al
	movq	%rdi, -32(%rbp)
	movq	%rsi, -24(%rbp)
	movb	%al, -9(%rbp)
Ltmp175:
	.loc	26 2154 39 prologue_end
	movq	%rdi, -8(%rbp)
	.loc	26 2154 26 is_stmt 0
	movzbl	%al, %edx
	callq	__ZN4core4sync6atomic12atomic_store17h96a39aea984d4a5dE
	.loc	26 2155 14 is_stmt 1
	addq	$32, %rsp
	popq	%rbp
	retq
Ltmp176:
Lfunc_end42:
	.cfi_endproc

	.p2align	4, 0x90
__ZN4core4sync6atomic8AtomicU84load17hbaa48375fc9801ccE:
Lfunc_begin43:
	.loc	26 2125 0
	.cfi_startproc
	pushq	%rbp
	.cfi_def_cfa_offset 16
	.cfi_offset %rbp, -16
	movq	%rsp, %rbp
	.cfi_def_cfa_register %rbp
	subq	$32, %rsp
	movb	%sil, %al
	movq	%rdi, -24(%rbp)
	movb	%al, -9(%rbp)
Ltmp177:
	.loc	26 2127 38 prologue_end
	movq	%rdi, -8(%rbp)
	.loc	26 2127 26 is_stmt 0
	movzbl	%al, %esi
	callq	__ZN4core4sync6atomic11atomic_load17hbb6eaaad552e2f35E
	.loc	26 2128 14 is_stmt 1
	addq	$32, %rsp
	popq	%rbp
	retq
Ltmp178:
Lfunc_end43:
	.cfi_endproc

	.section	__TEXT,__literal8,8byte_literals
	.p2align	3
LCPI44_0:
	.quad	0x41cdcd6500000000
	.section	__TEXT,__literal16,16byte_literals
	.p2align	4
LCPI44_1:
	.long	1127219200
	.long	1160773632
	.long	0
	.long	0
LCPI44_2:
	.quad	0x4330000000000000
	.quad	0x4530000000000000
	.section	__TEXT,__text,regular,pure_instructions
	.p2align	4, 0x90
__ZN4core4time8Duration11as_secs_f6417h67c25194e8e4d0c5E:
Lfunc_begin44:
	.file	27 "/rustc/2c8cc343237b8f7d5a3c3703e3a87f2eb2c54a74/library/core/src" "time.rs"
	.loc	27 685 0
	.cfi_startproc
	pushq	%rbp
	.cfi_def_cfa_offset 16
	.cfi_offset %rbp, -16
	movq	%rsp, %rbp
	.cfi_def_cfa_register %rbp
	pushq	%rax
	movq	%rdi, -8(%rbp)
Ltmp179:
	.loc	27 686 9 prologue_end
	movq	(%rdi), %xmm0
	movaps	LCPI44_1(%rip), %xmm1
	punpckldq	%xmm1, %xmm0
	movapd	LCPI44_2(%rip), %xmm1
	subpd	%xmm1, %xmm0
	movaps	%xmm0, %xmm1
	unpckhpd	%xmm0, %xmm0
	addsd	%xmm1, %xmm0
	.loc	27 686 31 is_stmt 0
	movl	8(%rdi), %eax
	.loc	27 686 30
	cvtsi2sd	%rax, %xmm1
	movsd	LCPI44_0(%rip), %xmm2
	divsd	%xmm2, %xmm1
	.loc	27 686 9
	addsd	%xmm1, %xmm0
	.loc	27 687 6 is_stmt 1
	addq	$8, %rsp
	popq	%rbp
	retq
Ltmp180:
Lfunc_end44:
	.cfi_endproc

	.globl	__ZN4core5array92_$LT$impl$u20$core..borrow..Borrow$LT$$u5b$T$u5d$$GT$$u20$for$u20$$u5b$T$u3b$$u20$N$u5d$$GT$6borrow17h2275d5cc7ddec735E
	.p2align	4, 0x90
__ZN4core5array92_$LT$impl$u20$core..borrow..Borrow$LT$$u5b$T$u5d$$GT$$u20$for$u20$$u5b$T$u3b$$u20$N$u5d$$GT$6borrow17h2275d5cc7ddec735E:
Lfunc_begin45:
	.file	28 "/rustc/2c8cc343237b8f7d5a3c3703e3a87f2eb2c54a74/library/core/src/array" "mod.rs"
	.loc	28 187 0
	.cfi_startproc
	pushq	%rbp
	.cfi_def_cfa_offset 16
	.cfi_offset %rbp, -16
	movq	%rsp, %rbp
	.cfi_def_cfa_register %rbp
	pushq	%rax
	movq	%rdi, %rax
	movq	%rax, -8(%rbp)
	movl	$1, %edx
Ltmp181:
	.loc	28 189 6 prologue_end
	addq	$8, %rsp
	popq	%rbp
	retq
Ltmp182:
Lfunc_end45:
	.cfi_endproc

	.globl	__ZN4core6option15Option$LT$T$GT$3map17h5622c0e2d0f3bc0aE
	.p2align	4, 0x90
__ZN4core6option15Option$LT$T$GT$3map17h5622c0e2d0f3bc0aE:
Lfunc_begin46:
	.file	29 "/rustc/2c8cc343237b8f7d5a3c3703e3a87f2eb2c54a74/library/core/src" "option.rs"
	.loc	29 964 0
	.cfi_startproc
	pushq	%rbp
	.cfi_def_cfa_offset 16
	.cfi_offset %rbp, -16
	movq	%rsp, %rbp
	.cfi_def_cfa_register %rbp
	subq	$64, %rsp
	movq	%rsi, -56(%rbp)
Ltmp183:
	movq	%rdi, -48(%rbp)
	movq	%rdi, -40(%rbp)
Ltmp184:
	.loc	29 969 15 prologue_end
	movb	$1, -17(%rbp)
	movl	(%rsi), %eax
	.loc	29 969 9 is_stmt 0
	cmpq	$0, %rax
Ltmp185:
	jne	LBB46_2
Ltmp186:
	.loc	29 0 9
	movq	-48(%rbp), %rax
	.loc	29 971 21 is_stmt 1
	movl	$0, (%rax)
	jmp	LBB46_3
Ltmp187:
LBB46_2:
	.loc	29 0 21 is_stmt 0
	movq	-56(%rbp), %rax
	.loc	29 970 18 is_stmt 1
	movl	4(%rax), %ecx
	movl	8(%rax), %eax
	movl	%ecx, -8(%rbp)
	movl	%eax, -4(%rbp)
Ltmp188:
	.loc	29 970 29 is_stmt 0
	movb	$0, -17(%rbp)
	movl	%ecx, -32(%rbp)
	movl	%eax, -28(%rbp)
	movl	-32(%rbp), %edi
	movl	-28(%rbp), %esi
	callq	__ZN10egui_winit15window_settings14WindowSettings12from_display28_$u7b$$u7b$closure$u7d$$u7d$17h6e16dbdcc787b1d0E
	movq	-48(%rbp), %rax
	.loc	29 970 24
	movss	%xmm0, 4(%rax)
	movss	%xmm1, 8(%rax)
	movl	$1, (%rax)
Ltmp189:
LBB46_3:
	.loc	29 973 5 is_stmt 1
	testb	$1, -17(%rbp)
	jne	LBB46_5
Ltmp190:
LBB46_4:
	.loc	29 0 5 is_stmt 0
	movq	-40(%rbp), %rax
	.loc	29 973 6
	addq	$64, %rsp
	popq	%rbp
	retq
Ltmp191:
LBB46_5:
	.loc	29 973 5
	jmp	LBB46_4
Ltmp192:
Lfunc_end46:
	.cfi_endproc

	.globl	__ZN4core6option15Option$LT$T$GT$3map17hc858691f0d1a8361E
	.p2align	4, 0x90
__ZN4core6option15Option$LT$T$GT$3map17hc858691f0d1a8361E:
Lfunc_begin47:
	.loc	29 964 0 is_stmt 1
	.cfi_startproc
	pushq	%rbp
	.cfi_def_cfa_offset 16
	.cfi_offset %rbp, -16
	movq	%rsp, %rbp
	.cfi_def_cfa_register %rbp
	subq	$112, %rsp
	movq	%rdx, -104(%rbp)
	movq	%rsi, -96(%rbp)
Ltmp193:
	movq	%rdi, -88(%rbp)
	movq	%rdi, -80(%rbp)
Ltmp194:
	movq	%rdx, -24(%rbp)
Ltmp195:
	.loc	29 969 15 prologue_end
	movb	$1, -25(%rbp)
	.loc	29 969 9 is_stmt 0
	cmpq	$0, (%rsi)
Ltmp196:
	jne	LBB47_2
Ltmp197:
	.loc	29 0 9
	movq	-88(%rbp), %rax
	.loc	29 971 21 is_stmt 1
	movq	$0, 8(%rax)
	jmp	LBB47_3
Ltmp198:
LBB47_2:
	.loc	29 0 21 is_stmt 0
	movq	-104(%rbp), %rsi
	movq	-96(%rbp), %rax
	.loc	29 970 18 is_stmt 1
	movq	8(%rax), %rcx
	movq	16(%rax), %rax
	movq	%rcx, -16(%rbp)
	movq	%rax, -8(%rbp)
Ltmp199:
	.loc	29 970 29 is_stmt 0
	movb	$0, -25(%rbp)
	movq	%rcx, -48(%rbp)
	movq	%rax, -40(%rbp)
	movq	-48(%rbp), %rdx
	movq	-40(%rbp), %rcx
	leaq	-72(%rbp), %rdi
	callq	__ZN4core3str4iter29MatchIndicesInternal$LT$P$GT$4next28_$u7b$$u7b$closure$u7d$$u7d$17h5e3f7ce3e97c9228E
	movq	-88(%rbp), %rax
	.loc	29 970 24
	movq	-72(%rbp), %rcx
	movq	%rcx, (%rax)
	movq	-64(%rbp), %rcx
	movq	%rcx, 8(%rax)
	movq	-56(%rbp), %rcx
	movq	%rcx, 16(%rax)
Ltmp200:
LBB47_3:
	.loc	29 973 5 is_stmt 1
	testb	$1, -25(%rbp)
	jne	LBB47_5
Ltmp201:
LBB47_4:
	.loc	29 0 5 is_stmt 0
	movq	-80(%rbp), %rax
	.loc	29 973 6
	addq	$112, %rsp
	popq	%rbp
	retq
Ltmp202:
LBB47_5:
	.loc	29 973 5
	jmp	LBB47_4
Ltmp203:
Lfunc_end47:
	.cfi_endproc

	.globl	__ZN4core6option15Option$LT$T$GT$6expect17h6906667bdbb85694E
	.p2align	4, 0x90
__ZN4core6option15Option$LT$T$GT$6expect17h6906667bdbb85694E:
Lfunc_begin48:
	.loc	29 783 0 is_stmt 1
	.cfi_startproc
	pushq	%rbp
	.cfi_def_cfa_offset 16
	.cfi_offset %rbp, -16
	movq	%rsp, %rbp
	.cfi_def_cfa_register %rbp
	subq	$64, %rsp
	movq	%r8, -64(%rbp)
	movq	%rcx, -56(%rbp)
	movq	%rdx, -48(%rbp)
	movq	%rsi, -40(%rbp)
Ltmp204:
	movq	%rdi, -32(%rbp)
Ltmp205:
	movq	%rdi, -24(%rbp)
Ltmp206:
	movq	%rdx, -16(%rbp)
	movq	%rcx, -8(%rbp)
Ltmp207:
	.loc	29 784 15 prologue_end
	movq	(%rsi), %rdx
	movl	$1, %eax
	xorl	%ecx, %ecx
	cmpq	$0, %rdx
	cmoveq	%rcx, %rax
	.loc	29 784 9 is_stmt 0
	cmpq	$0, %rax
Ltmp208:
	jne	LBB48_2
Ltmp209:
	.loc	29 0 9
	movq	-64(%rbp), %rdx
	movq	-56(%rbp), %rsi
	movq	-48(%rbp), %rdi
	.loc	29 786 21 is_stmt 1
	callq	__ZN4core6option13expect_failed17h5792a81bec0ff713E
Ltmp210:
LBB48_2:
	.loc	29 0 21 is_stmt 0
	movq	-40(%rbp), %rsi
	movq	-32(%rbp), %rdi
	.loc	29 785 18 is_stmt 1
	movl	$40, %edx
	callq	_memcpy
	movq	-24(%rbp), %rax
	.loc	29 788 6
	addq	$64, %rsp
	popq	%rbp
	retq
Ltmp211:
Lfunc_end48:
	.cfi_endproc

	.globl	__ZN4core6option15Option$LT$T$GT$6unwrap17h0a33964a3f62f8fcE
	.p2align	4, 0x90
__ZN4core6option15Option$LT$T$GT$6unwrap17h0a33964a3f62f8fcE:
Lfunc_begin49:
	.loc	29 820 0
	.cfi_startproc
	pushq	%rbp
	.cfi_def_cfa_offset 16
	.cfi_offset %rbp, -16
	movq	%rsp, %rbp
	.cfi_def_cfa_register %rbp
	subq	$32, %rsp
	movq	%rdx, -32(%rbp)
	movq	%rdi, -24(%rbp)
	movq	%rsi, -16(%rbp)
Ltmp212:
	.loc	29 821 9 prologue_end
	cmpq	$0, -24(%rbp)
	jne	LBB49_2
	.loc	29 0 9 is_stmt 0
	movq	-32(%rbp), %rdx
	.loc	29 823 21 is_stmt 1
	leaq	l___unnamed_11(%rip), %rdi
	movl	$43, %esi
	callq	__ZN4core9panicking5panic17hc1bc45270cf64b03E
LBB49_2:
	.loc	29 822 18
	movq	-16(%rbp), %rax
	movq	%rax, -8(%rbp)
	.loc	29 825 6
	addq	$32, %rsp
	popq	%rbp
	retq
Ltmp213:
Lfunc_end49:
	.cfi_endproc

	.globl	__ZN4core6option15Option$LT$T$GT$7is_none17h75651772b97112a1E
	.p2align	4, 0x90
__ZN4core6option15Option$LT$T$GT$7is_none17h75651772b97112a1E:
Lfunc_begin50:
	.loc	29 643 0
	.cfi_startproc
	pushq	%rbp
	.cfi_def_cfa_offset 16
	.cfi_offset %rbp, -16
	movq	%rsp, %rbp
	.cfi_def_cfa_register %rbp
	subq	$24, %rsp
	movq	%rdi, -16(%rbp)
Ltmp214:
	.loc	29 644 10 prologue_end
	movq	%rdi, -8(%rbp)
Ltmp215:
	.file	30 "/rustc/2c8cc343237b8f7d5a3c3703e3a87f2eb2c54a74/library/core/src/macros" "mod.rs"
	.loc	30 344 9
	cmpq	$1, (%rdi)
	jne	LBB50_2
	.loc	30 345 48
	movb	$1, -17(%rbp)
	jmp	LBB50_3
LBB50_2:
	.loc	30 346 18
	movb	$0, -17(%rbp)
Ltmp216:
LBB50_3:
	.loc	29 644 9
	movb	-17(%rbp), %al
	xorb	$-1, %al
	.loc	29 645 6
	andb	$1, %al
	movzbl	%al, %eax
	addq	$24, %rsp
	popq	%rbp
	retq
Ltmp217:
Lfunc_end50:
	.cfi_endproc

	.globl	__ZN4core6result19Result$LT$T$C$E$GT$2ok17h669421f784d9b3feE
	.p2align	4, 0x90
__ZN4core6result19Result$LT$T$C$E$GT$2ok17h669421f784d9b3feE:
Lfunc_begin51:
	.file	31 "/rustc/2c8cc343237b8f7d5a3c3703e3a87f2eb2c54a74/library/core/src" "result.rs"
	.loc	31 642 0
	.cfi_startproc
	pushq	%rbp
	.cfi_def_cfa_offset 16
	.cfi_offset %rbp, -16
	movq	%rsp, %rbp
	.cfi_def_cfa_register %rbp
	subq	$40, %rsp
	movq	%rsi, -40(%rbp)
Ltmp218:
	movq	%rdi, -32(%rbp)
	movq	%rdi, -24(%rbp)
Ltmp219:
	.loc	31 646 15 prologue_end
	movl	(%rsi), %eax
	.loc	31 646 9 is_stmt 0
	cmpq	$0, %rax
Ltmp220:
	jne	LBB51_2
Ltmp221:
	.loc	31 0 9
	movq	-32(%rbp), %rax
	movq	-40(%rbp), %rcx
	.loc	31 647 16 is_stmt 1
	movl	4(%rcx), %edx
	movl	8(%rcx), %ecx
	movl	%edx, -8(%rbp)
	movl	%ecx, -4(%rbp)
Ltmp222:
	.loc	31 647 22 is_stmt 0
	movl	%edx, 4(%rax)
	movl	%ecx, 8(%rax)
	movl	$1, (%rax)
Ltmp223:
	.loc	31 647 28
	jmp	LBB51_3
Ltmp224:
LBB51_2:
	.loc	31 0 28
	movq	-32(%rbp), %rax
Ltmp225:
	.loc	31 650 23 is_stmt 1
	movl	$0, (%rax)
Ltmp226:
LBB51_3:
	.loc	31 0 23 is_stmt 0
	movq	-24(%rbp), %rax
	.loc	31 652 6 is_stmt 1
	addq	$40, %rsp
	popq	%rbp
	retq
Ltmp227:
Lfunc_end51:
	.cfi_endproc

	.p2align	4, 0x90
__ZN4egui7context7Context5input17haed2b785f37fbc33E:
Lfunc_begin52:
	.file	32 "/Users/natalie/.cargo/registry/src/github.com-1ecc6299db9ec823/egui-0.19.0/src" "context.rs"
	.loc	32 523 0
	.cfi_startproc
	pushq	%rbp
	.cfi_def_cfa_offset 16
	.cfi_offset %rbp, -16
	movq	%rsp, %rbp
	.cfi_def_cfa_register %rbp
	subq	$16, %rsp
	movq	%rdi, -8(%rbp)
Ltmp228:
	.loc	32 524 30 prologue_end
	callq	__ZN4egui7context7Context4read17hca594518ebf559e3E
	movq	%rax, %rdi
	movq	%rdx, %rsi
	.loc	32 524 9 is_stmt 0
	callq	__ZN8lock_api6rwlock34MappedRwLockReadGuard$LT$R$C$T$GT$3map17h9991e1f8752f8148E
	.loc	32 525 6 is_stmt 1
	addq	$16, %rsp
	popq	%rbp
	retq
Ltmp229:
Lfunc_end52:
	.cfi_endproc

	.p2align	4, 0x90
__ZN4egui7context7Context7options17he429eff080571a67E:
Lfunc_begin53:
	.loc	32 549 0
	.cfi_startproc
	pushq	%rbp
	.cfi_def_cfa_offset 16
	.cfi_offset %rbp, -16
	movq	%rsp, %rbp
	.cfi_def_cfa_register %rbp
	subq	$16, %rsp
	movq	%rdi, -8(%rbp)
Ltmp230:
	.loc	32 550 31 prologue_end
	callq	__ZN4egui7context7Context5write17hf65a905c70c3be5fE
	movq	%rax, %rdi
	movq	%rdx, %rsi
	.loc	32 550 9 is_stmt 0
	callq	__ZN8lock_api6rwlock35MappedRwLockWriteGuard$LT$R$C$T$GT$3map17hd08ddd38636b2085E
	.loc	32 551 6 is_stmt 1
	addq	$16, %rsp
	popq	%rbp
	retq
Ltmp231:
Lfunc_end53:
	.cfi_endproc

	.p2align	4, 0x90
__ZN4objc7runtime3Sel6as_ptr17h779d391fe01f0000E:
Lfunc_begin54:
	.file	33 "/Users/natalie/.cargo/registry/src/github.com-1ecc6299db9ec823/objc-0.2.7/src" "runtime.rs"
	.loc	33 175 0
	.cfi_startproc
	pushq	%rbp
	.cfi_def_cfa_offset 16
	.cfi_offset %rbp, -16
	movq	%rsp, %rbp
	.cfi_def_cfa_register %rbp
	pushq	%rax
	movq	%rdi, -8(%rbp)
Ltmp232:
	.loc	33 176 9 prologue_end
	movq	(%rdi), %rax
	.loc	33 177 6
	addq	$8, %rsp
	popq	%rbp
	retq
Ltmp233:
Lfunc_end54:
	.cfi_endproc

	.p2align	4, 0x90
__ZN4objc7runtime3Sel8from_ptr17he2c9fb08bc5a5224E:
Lfunc_begin55:
	.loc	33 167 0
	.cfi_startproc
	pushq	%rbp
	.cfi_def_cfa_offset 16
	.cfi_offset %rbp, -16
	movq	%rsp, %rbp
	.cfi_def_cfa_register %rbp
	subq	$16, %rsp
	movq	%rdi, -8(%rbp)
Ltmp234:
	.loc	33 168 9 prologue_end
	movq	%rdi, -16(%rbp)
	.loc	33 171 6
	movq	-16(%rbp), %rax
	addq	$16, %rsp
	popq	%rbp
	retq
Ltmp235:
Lfunc_end55:
	.cfi_endproc

	.globl	__ZN50_$LT$T$u20$as$u20$core..convert..Into$LT$U$GT$$GT$4into17h2b5165bfa8a7255aE
	.p2align	4, 0x90
__ZN50_$LT$T$u20$as$u20$core..convert..Into$LT$U$GT$$GT$4into17h2b5165bfa8a7255aE:
Lfunc_begin56:
	.file	34 "/rustc/2c8cc343237b8f7d5a3c3703e3a87f2eb2c54a74/library/core/src/convert" "mod.rs"
	.loc	34 725 0
	.cfi_startproc
	pushq	%rbp
	.cfi_def_cfa_offset 16
	.cfi_offset %rbp, -16
	movq	%rsp, %rbp
	.cfi_def_cfa_register %rbp
	subq	$32, %rsp
	movq	%rdi, %rax
	movq	%rax, -24(%rbp)
	movsd	%xmm0, -16(%rbp)
	movsd	%xmm1, -8(%rbp)
Ltmp236:
	.loc	34 726 9 prologue_end
	callq	__ZN96_$LT$winit..dpi..Size$u20$as$u20$core..convert..From$LT$winit..dpi..LogicalSize$LT$P$GT$$GT$$GT$4from17hdb6621bdbe55724fE
	movq	-24(%rbp), %rax
	.loc	34 727 6
	addq	$32, %rsp
	popq	%rbp
	retq
Ltmp237:
Lfunc_end56:
	.cfi_endproc

	.globl	__ZN50_$LT$T$u20$as$u20$core..convert..Into$LT$U$GT$$GT$4into17h6ce123626bb776a6E
	.p2align	4, 0x90
__ZN50_$LT$T$u20$as$u20$core..convert..Into$LT$U$GT$$GT$4into17h6ce123626bb776a6E:
Lfunc_begin57:
	.loc	34 725 0
	.cfi_startproc
	pushq	%rbp
	.cfi_def_cfa_offset 16
	.cfi_offset %rbp, -16
	movq	%rsp, %rbp
	.cfi_def_cfa_register %rbp
	subq	$16, %rsp
	movq	%rdi, %rax
	movq	%rax, -16(%rbp)
	movss	%xmm0, -8(%rbp)
	movss	%xmm1, -4(%rbp)
Ltmp238:
	.loc	34 726 9 prologue_end
	callq	__ZN104_$LT$winit..dpi..Position$u20$as$u20$core..convert..From$LT$winit..dpi..LogicalPosition$LT$P$GT$$GT$$GT$4from17h98282bf27e828a44E
	movq	-16(%rbp), %rax
	.loc	34 727 6
	addq	$16, %rsp
	popq	%rbp
	retq
Ltmp239:
Lfunc_end57:
	.cfi_endproc

	.globl	__ZN50_$LT$T$u20$as$u20$core..convert..Into$LT$U$GT$$GT$4into17h9394e93cc62ae6b2E
	.p2align	4, 0x90
__ZN50_$LT$T$u20$as$u20$core..convert..Into$LT$U$GT$$GT$4into17h9394e93cc62ae6b2E:
Lfunc_begin58:
	.loc	34 725 0
	.cfi_startproc
	pushq	%rbp
	.cfi_def_cfa_offset 16
	.cfi_offset %rbp, -16
	movq	%rsp, %rbp
	.cfi_def_cfa_register %rbp
	subq	$32, %rsp
	movq	%rdi, %rax
	movq	%rax, -24(%rbp)
	movsd	%xmm0, -16(%rbp)
	movsd	%xmm1, -8(%rbp)
Ltmp240:
	.loc	34 726 9 prologue_end
	callq	__ZN105_$LT$winit..dpi..Position$u20$as$u20$core..convert..From$LT$winit..dpi..PhysicalPosition$LT$P$GT$$GT$$GT$4from17h5306f5b7ccfd5f9cE
	movq	-24(%rbp), %rax
	.loc	34 727 6
	addq	$32, %rsp
	popq	%rbp
	retq
Ltmp241:
Lfunc_end58:
	.cfi_endproc

	.p2align	4, 0x90
__ZN55_$LT$$RF$str$u20$as$u20$core..str..pattern..Pattern$GT$13into_searcher17hf6e7e29c388bc439E:
Lfunc_begin59:
	.file	35 "/rustc/2c8cc343237b8f7d5a3c3703e3a87f2eb2c54a74/library/core/src/str" "pattern.rs"
	.loc	35 940 0
	.cfi_startproc
	pushq	%rbp
	.cfi_def_cfa_offset 16
	.cfi_offset %rbp, -16
	movq	%rsp, %rbp
	.cfi_def_cfa_register %rbp
	subq	$64, %rsp
	movq	%r8, -56(%rbp)
	movq	%rcx, -48(%rbp)
	movq	%rdx, %r8
	movq	-56(%rbp), %rdx
	movq	%rsi, %rcx
	movq	-48(%rbp), %rsi
	movq	%rdi, %rax
	movq	%rax, -40(%rbp)
	movq	%rcx, -32(%rbp)
	movq	%r8, -24(%rbp)
	movq	%rsi, -16(%rbp)
	movq	%rdx, -8(%rbp)
Ltmp242:
	.loc	35 941 9 prologue_end
	callq	__ZN4core3str7pattern11StrSearcher3new17hc12e66730a7a2525E
	movq	-40(%rbp), %rax
	.loc	35 942 6
	addq	$64, %rsp
	popq	%rbp
	retq
Ltmp243:
Lfunc_end59:
	.cfi_endproc

	.p2align	4, 0x90
__ZN57_$LT$std..path..PathBuf$u20$as$u20$core..clone..Clone$GT$5clone17h2ff913e916f6a3d2E:
Lfunc_begin60:
	.file	36 "/rustc/2c8cc343237b8f7d5a3c3703e3a87f2eb2c54a74/library/std/src" "path.rs"
	.loc	36 1623 0
	.cfi_startproc
	pushq	%rbp
	.cfi_def_cfa_offset 16
	.cfi_offset %rbp, -16
	movq	%rsp, %rbp
	.cfi_def_cfa_register %rbp
	subq	$112, %rsp
	movq	%rdi, -112(%rbp)
	movq	%rdi, -104(%rbp)
	movq	%rsi, -24(%rbp)
Ltmp244:
	.loc	36 1624 26 prologue_end
	movq	%rsi, -16(%rbp)
Ltmp245:
	.file	37 "/rustc/2c8cc343237b8f7d5a3c3703e3a87f2eb2c54a74/library/std/src/ffi" "os_str.rs"
	.loc	37 540 27
	movq	%rsi, -8(%rbp)
Ltmp246:
	.file	38 "/rustc/2c8cc343237b8f7d5a3c3703e3a87f2eb2c54a74/library/std/src/sys/unix" "os_str.rs"
	.loc	38 76 22
	leaq	-48(%rbp), %rdi
	callq	__ZN67_$LT$alloc..vec..Vec$LT$T$C$A$GT$$u20$as$u20$core..clone..Clone$GT$5clone17h0d7a6fdc091d0e7aE
	movq	-112(%rbp), %rdi
	movq	-104(%rbp), %rax
	.loc	38 76 9 is_stmt 0
	movq	-48(%rbp), %rcx
	movq	%rcx, -72(%rbp)
	movq	-40(%rbp), %rcx
	movq	%rcx, -64(%rbp)
	movq	-32(%rbp), %rcx
	movq	%rcx, -56(%rbp)
Ltmp247:
	.loc	37 540 9 is_stmt 1
	movq	-72(%rbp), %rcx
	movq	%rcx, -96(%rbp)
	movq	-64(%rbp), %rcx
	movq	%rcx, -88(%rbp)
	movq	-56(%rbp), %rcx
	movq	%rcx, -80(%rbp)
Ltmp248:
	.loc	36 1624 9
	movq	-96(%rbp), %rcx
	movq	%rcx, (%rdi)
	movq	-88(%rbp), %rcx
	movq	%rcx, 8(%rdi)
	movq	-80(%rbp), %rcx
	movq	%rcx, 16(%rdi)
	.loc	36 1625 6
	addq	$112, %rsp
	popq	%rbp
	retq
Ltmp249:
Lfunc_end60:
	.cfi_endproc

	.globl	__ZN59_$LT$winit..event..DeviceId$u20$as$u20$core..hash..Hash$GT$4hash17h3a51a278e659f4fdE
	.p2align	4, 0x90
__ZN59_$LT$winit..event..DeviceId$u20$as$u20$core..hash..Hash$GT$4hash17h3a51a278e659f4fdE:
Lfunc_begin61:
	.file	39 "/Users/natalie/.cargo/registry/src/github.com-1ecc6299db9ec823/winit-0.27.5/src" "event.rs"
	.loc	39 675 0
	.cfi_startproc
	pushq	%rbp
	.cfi_def_cfa_offset 16
	.cfi_offset %rbp, -16
	movq	%rsp, %rbp
	.cfi_def_cfa_register %rbp
	subq	$16, %rsp
	movq	%rdi, -16(%rbp)
	movq	%rsi, -8(%rbp)
Ltmp250:
	.loc	39 676 21 prologue_end
	callq	__ZN77_$LT$winit..platform_impl..platform..DeviceId$u20$as$u20$core..hash..Hash$GT$4hash17h364482563f4963eaE
	.loc	39 675 66
	addq	$16, %rsp
	popq	%rbp
	retq
Ltmp251:
Lfunc_end61:
	.cfi_endproc

	.p2align	4, 0x90
__ZN5ahash12random_state11RandomState15with_fixed_keys17hb2e988baad463220E:
Lfunc_begin62:
	.file	40 "/Users/natalie/.cargo/registry/src/github.com-1ecc6299db9ec823/ahash-0.8.0/src" "random_state.rs"
	.loc	40 249 0
	.cfi_startproc
	pushq	%rbp
	.cfi_def_cfa_offset 16
	.cfi_offset %rbp, -16
	movq	%rsp, %rbp
	.cfi_def_cfa_register %rbp
	subq	$48, %rsp
	movq	%rdi, -48(%rbp)
	movq	%rdi, -40(%rbp)
Ltmp252:
	.loc	40 250 32 prologue_end
	callq	__ZN5ahash12random_state15get_fixed_seeds17h51dba484e79c39b7E
	movq	-48(%rbp), %rdi
	movq	%rax, %rcx
	movq	-40(%rbp), %rax
	.loc	40 250 14 is_stmt 0
	movq	(%rcx), %r8
	movq	%r8, -32(%rbp)
	.loc	40 250 18
	movq	8(%rcx), %rsi
	movq	%rsi, -24(%rbp)
	.loc	40 250 22
	movq	16(%rcx), %rdx
	movq	%rdx, -16(%rbp)
	.loc	40 250 26
	movq	24(%rcx), %rcx
	movq	%rcx, -8(%rbp)
Ltmp253:
	.loc	40 251 9 is_stmt 1
	movq	%r8, (%rdi)
	movq	%rsi, 8(%rdi)
	movq	%rdx, 16(%rdi)
	movq	%rcx, 24(%rdi)
Ltmp254:
	.loc	40 252 6
	addq	$48, %rsp
	popq	%rbp
	retq
Ltmp255:
Lfunc_end62:
	.cfi_endproc

	.p2align	4, 0x90
__ZN5ahash12random_state15get_fixed_seeds17h51dba484e79c39b7E:
Lfunc_begin63:
	.loc	40 70 0
	.cfi_startproc
	pushq	%rbp
	.cfi_def_cfa_offset 16
	.cfi_offset %rbp, -16
	movq	%rsp, %rbp
	.cfi_def_cfa_register %rbp
Ltmp256:
	.loc	40 75 13 prologue_end
	movq	__ZN5ahash12random_state15get_fixed_seeds5SEEDS17ha09cc0e4fc783566E@GOTPCREL(%rip), %rdi
	callq	__ZN9once_cell4race8once_box16OnceBox$LT$T$GT$11get_or_init17he9ab19c80eacc39fE
	.loc	40 80 10
	popq	%rbp
	retq
Ltmp257:
Lfunc_end63:
	.cfi_endproc

	.p2align	4, 0x90
__ZN5ahash13fallback_hash7AHasher17from_random_state17h2e1205d876670c89E:
Lfunc_begin64:
	.file	41 "/Users/natalie/.cargo/registry/src/github.com-1ecc6299db9ec823/ahash-0.8.0/src" "fallback_hash.rs"
	.loc	41 59 0
	.cfi_startproc
	pushq	%rbp
	.cfi_def_cfa_offset 16
	.cfi_offset %rbp, -16
	movq	%rsp, %rbp
	.cfi_def_cfa_register %rbp
	subq	$24, %rsp
	movq	%rdi, %rax
	movq	%rsi, -8(%rbp)
Ltmp258:
	.loc	41 61 21 prologue_end
	movq	(%rsi), %rdx
	.loc	41 62 18
	movq	8(%rsi), %rcx
	.loc	41 63 26
	movq	16(%rsi), %r8
	.loc	41 63 41 is_stmt 0
	movq	24(%rsi), %rsi
	.loc	41 63 25
	movq	%r8, -24(%rbp)
	movq	%rsi, -16(%rbp)
	.loc	41 60 9 is_stmt 1
	movq	%rdx, 16(%rdi)
	movq	%rcx, 24(%rdi)
	movq	-24(%rbp), %rcx
	movq	%rcx, (%rdi)
	movq	-16(%rbp), %rcx
	movq	%rcx, 8(%rdi)
	.loc	41 65 6
	addq	$24, %rsp
	popq	%rbp
	retq
Ltmp259:
Lfunc_end64:
	.cfi_endproc

	.p2align	4, 0x90
__ZN5ahash82_$LT$impl$u20$core..default..Default$u20$for$u20$ahash..fallback_hash..AHasher$GT$7default17h2ff2795e6e2a012aE:
Lfunc_begin65:
	.file	42 "/Users/natalie/.cargo/registry/src/github.com-1ecc6299db9ec823/ahash-0.8.0/src" "lib.rs"
	.loc	42 195 0
	.cfi_startproc
	pushq	%rbp
	.cfi_def_cfa_offset 16
	.cfi_offset %rbp, -16
	movq	%rsp, %rbp
	.cfi_def_cfa_register %rbp
	subq	$48, %rsp
	movq	%rdi, -48(%rbp)
	movq	%rdi, -40(%rbp)
Ltmp260:
	.loc	42 196 9 prologue_end
	leaq	-32(%rbp), %rdi
	callq	__ZN5ahash12random_state11RandomState15with_fixed_keys17hb2e988baad463220E
	movq	-48(%rbp), %rdi
	leaq	-32(%rbp), %rsi
	callq	__ZN76_$LT$ahash..random_state..RandomState$u20$as$u20$core..hash..BuildHasher$GT$12build_hasher17hb357e879c97af19eE
	movq	-40(%rbp), %rax
	.loc	42 197 6
	addq	$48, %rsp
	popq	%rbp
	retq
Ltmp261:
Lfunc_end65:
	.cfi_endproc

	.globl	__ZN5alloc3str21_$LT$impl$u20$str$GT$7replace17hbc97c5609ab369a7E
	.p2align	4, 0x90
__ZN5alloc3str21_$LT$impl$u20$str$GT$7replace17hbc97c5609ab369a7E:
Lfunc_begin66:
	.loc	11 271 0
	.cfi_startproc
	.cfi_personality 155, _rust_eh_personality
	.cfi_lsda 16, Lexception1
	pushq	%rbp
	.cfi_def_cfa_offset 16
	.cfi_offset %rbp, -16
	movq	%rsp, %rbp
	.cfi_def_cfa_register %rbp
	subq	$1264, %rsp
	movq	%r9, -1136(%rbp)
	movq	%r8, -1128(%rbp)
	movq	%rcx, -1112(%rbp)
	movq	%rdx, %r8
	movq	-1128(%rbp), %rdx
	movq	%r8, -1120(%rbp)
	movq	%rsi, %rcx
	movq	-1112(%rbp), %rsi
	movq	%rcx, -1104(%rbp)
	movq	%rdi, -1096(%rbp)
Ltmp283:
	movq	%rdi, %rax
	movq	%rax, -1088(%rbp)
	movq	16(%rbp), %rax
	movq	%rax, -1080(%rbp)
	movq	%rcx, -432(%rbp)
	movq	%r8, -424(%rbp)
	movq	%rsi, -416(%rbp)
	movq	%rdx, -408(%rbp)
	movq	%r9, -400(%rbp)
	movq	%rax, -392(%rbp)
Ltmp284:
	.file	43 "/rustc/2c8cc343237b8f7d5a3c3703e3a87f2eb2c54a74/library/alloc/src/vec" "mod.rs"
	.loc	43 425 20 prologue_end
	movq	L___unnamed_12(%rip), %r9
	movq	L___unnamed_12+8(%rip), %rax
	.loc	43 425 9 is_stmt 0
	movq	%r9, -696(%rbp)
	movq	%rax, -688(%rbp)
	movq	$0, -680(%rbp)
Ltmp285:
	.loc	9 456 9 is_stmt 1
	movq	-680(%rbp), %rax
	movq	%rax, 16(%rdi)
	movq	-696(%rbp), %rax
	movq	-688(%rbp), %r9
	movq	%r9, 8(%rdi)
	movq	%rax, (%rdi)
Ltmp286:
	.loc	11 273 28
	movq	$0, -1072(%rbp)
Ltmp287:
	.loc	11 274 30
	movq	%rcx, -384(%rbp)
	movq	%r8, -376(%rbp)
	.loc	11 274 49 is_stmt 0
	movq	%rsi, -368(%rbp)
	movq	%rdx, -360(%rbp)
Ltmp262:
	leaq	-568(%rbp), %rdi
Ltmp288:
	.loc	12 1800 43 is_stmt 1
	callq	__ZN55_$LT$$RF$str$u20$as$u20$core..str..pattern..Pattern$GT$13into_searcher17hf6e7e29c388bc439E
Ltmp263:
Ltmp289:
	jmp	LBB66_3
Ltmp290:
LBB66_1:
Ltmp280:
	.loc	12 0 43 is_stmt 0
	movq	-1096(%rbp), %rdi
	.loc	11 281 5 is_stmt 1
	callq	__ZN4core3ptr42drop_in_place$LT$alloc..string..String$GT$17hef0d0483296c488eE
Ltmp281:
	jmp	LBB66_23
LBB66_2:
Ltmp279:
	.loc	11 0 5 is_stmt 0
	movq	%rax, %rcx
	movl	%edx, %eax
	movq	%rcx, -352(%rbp)
	movl	%eax, -344(%rbp)
	jmp	LBB66_1
LBB66_3:
Ltmp291:
	.loc	12 1800 22 is_stmt 1
	leaq	-672(%rbp), %rdi
	leaq	-568(%rbp), %rsi
	movl	$104, %edx
	callq	_memcpy
	.loc	12 1800 9 is_stmt 0
	leaq	-960(%rbp), %rdi
	leaq	-672(%rbp), %rsi
	movl	$104, %edx
	callq	_memcpy
Ltmp292:
	.file	44 "/rustc/2c8cc343237b8f7d5a3c3703e3a87f2eb2c54a74/library/core/src/iter/traits" "collect.rs"
	.loc	44 273 9 is_stmt 1
	leaq	-1064(%rbp), %rdi
	leaq	-960(%rbp), %rsi
	movl	$104, %edx
	callq	_memcpy
Ltmp293:
	.loc	11 274 30
	leaq	-856(%rbp), %rdi
	leaq	-1064(%rbp), %rsi
	movl	$104, %edx
	callq	_memcpy
Ltmp294:
LBB66_4:
	.loc	11 0 30 is_stmt 0
	leaq	-856(%rbp), %rsi
Ltmp295:
	.loc	11 274 30
	movq	%rsi, -336(%rbp)
Ltmp296:
	.loc	20 457 17 is_stmt 1
	movq	%rsi, -328(%rbp)
Ltmp264:
	leaq	-464(%rbp), %rdi
Ltmp297:
	.loc	20 1005 9
	callq	__ZN80_$LT$core..str..pattern..StrSearcher$u20$as$u20$core..str..pattern..Searcher$GT$10next_match17h2dc3ffe56d21684fE
Ltmp265:
	jmp	LBB66_7
Ltmp298:
LBB66_5:
	.loc	11 274 9
	jmp	LBB66_1
Ltmp299:
LBB66_6:
Ltmp274:
	.loc	11 0 9 is_stmt 0
	movq	%rax, %rcx
	movl	%edx, %eax
	movq	%rcx, -352(%rbp)
	movl	%eax, -344(%rbp)
	jmp	LBB66_5
Ltmp300:
LBB66_7:
	leaq	-856(%rbp), %rax
Ltmp301:
	.loc	20 1008 18 is_stmt 1
	movq	%rax, -440(%rbp)
	.loc	20 1005 9
	movq	-440(%rbp), %rdx
Ltmp266:
	leaq	-752(%rbp), %rdi
	leaq	-464(%rbp), %rsi
	callq	__ZN4core6option15Option$LT$T$GT$3map17hc858691f0d1a8361E
Ltmp267:
	jmp	LBB66_8
Ltmp302:
LBB66_8:
	.loc	11 274 30
	movq	-744(%rbp), %rdx
	movl	$1, %eax
	xorl	%ecx, %ecx
	cmpq	$0, %rdx
	cmoveq	%rcx, %rax
	cmpq	$0, %rax
	jne	LBB66_10
Ltmp303:
	.loc	11 274 9 is_stmt 0
	jmp	LBB66_17
Ltmp304:
LBB66_10:
	.loc	11 0 9
	movq	-1120(%rbp), %rcx
	movq	-1104(%rbp), %rdx
	movq	-1096(%rbp), %rsi
Ltmp305:
	.loc	11 274 14
	movq	-752(%rbp), %rax
	movq	%rax, -1176(%rbp)
	movq	%rax, -320(%rbp)
	.loc	11 274 21
	movq	-744(%rbp), %r8
	movq	%r8, -1168(%rbp)
	movq	-736(%rbp), %rdi
	movq	%rdi, -1160(%rbp)
	movq	%r8, -312(%rbp)
	movq	%rdi, -304(%rbp)
Ltmp306:
	.loc	11 275 13 is_stmt 1
	movq	%rsi, -296(%rbp)
	.loc	11 275 38 is_stmt 0
	movq	%rdx, -288(%rbp)
	movq	%rcx, -280(%rbp)
	.loc	11 275 57
	movq	-1072(%rbp), %rsi
	movq	%rsi, -728(%rbp)
	movq	%rax, -720(%rbp)
Ltmp307:
	.loc	12 511 20 is_stmt 1
	movq	-728(%rbp), %rdi
	movq	-720(%rbp), %rsi
Ltmp268:
	callq	__ZN4core3str6traits108_$LT$impl$u20$core..slice..index..SliceIndex$LT$str$GT$$u20$for$u20$core..ops..range..Range$LT$usize$GT$$GT$13get_unchecked17h011a61260f9c2bb4E
Ltmp269:
	movq	%rdx, -1152(%rbp)
	movq	%rax, -1144(%rbp)
	jmp	LBB66_11
Ltmp308:
LBB66_11:
	.loc	12 0 20 is_stmt 0
	movq	-1152(%rbp), %rax
	movq	-1144(%rbp), %rcx
	.loc	11 275 38 is_stmt 1
	movq	%rcx, -272(%rbp)
	movq	%rax, -264(%rbp)
Ltmp309:
	.loc	9 926 36
	movq	%rcx, -256(%rbp)
	movq	%rax, -248(%rbp)
Ltmp310:
	.loc	12 327 18
	movq	%rcx, -240(%rbp)
	movq	%rax, -232(%rbp)
	movq	-240(%rbp), %rax
	movq	%rax, -1192(%rbp)
	movq	-232(%rbp), %rax
	movq	%rax, -1184(%rbp)
Ltmp311:
Ltmp270:
	.loc	12 0 18 is_stmt 0
	movq	-1184(%rbp), %rdx
	movq	-1192(%rbp), %rsi
	movq	-1096(%rbp), %rdi
	.loc	9 926 9 is_stmt 1
	callq	__ZN5alloc3vec16Vec$LT$T$C$A$GT$17extend_from_slice17h6513dbf82af746e6E
Ltmp271:
	jmp	LBB66_13
Ltmp312:
LBB66_13:
	.loc	9 0 9 is_stmt 0
	movq	-1080(%rbp), %rax
	movq	-1136(%rbp), %rcx
	movq	-1096(%rbp), %rdx
	.loc	11 276 13 is_stmt 1
	movq	%rdx, -224(%rbp)
	.loc	11 276 29 is_stmt 0
	movq	%rcx, -216(%rbp)
	movq	%rax, -208(%rbp)
Ltmp313:
	.loc	9 926 36 is_stmt 1
	movq	%rcx, -200(%rbp)
	movq	%rax, -192(%rbp)
Ltmp314:
	.loc	12 327 18
	movq	%rcx, -184(%rbp)
	movq	%rax, -176(%rbp)
	movq	-184(%rbp), %rax
	movq	%rax, -1208(%rbp)
	movq	-176(%rbp), %rax
	movq	%rax, -1200(%rbp)
Ltmp315:
Ltmp272:
	.loc	12 0 18 is_stmt 0
	movq	-1200(%rbp), %rdx
	movq	-1208(%rbp), %rsi
	movq	-1096(%rbp), %rdi
	.loc	9 926 9 is_stmt 1
	callq	__ZN5alloc3vec16Vec$LT$T$C$A$GT$17extend_from_slice17h6513dbf82af746e6E
Ltmp273:
	jmp	LBB66_15
Ltmp316:
LBB66_15:
	.loc	9 0 9 is_stmt 0
	movq	-1160(%rbp), %rax
	movq	-1168(%rbp), %rcx
	.loc	11 277 32 is_stmt 1
	movq	%rcx, -168(%rbp)
	movq	%rax, -160(%rbp)
Ltmp317:
	.loc	12 160 9
	movq	%rcx, -152(%rbp)
	movq	%rax, -144(%rbp)
Ltmp318:
	.loc	12 327 18
	movq	%rcx, -136(%rbp)
	movq	%rax, -128(%rbp)
	movq	-128(%rbp), %rax
	movq	%rax, -1216(%rbp)
Ltmp319:
	.loc	12 0 18 is_stmt 0
	movq	-1216(%rbp), %rcx
	movq	-1176(%rbp), %rax
	.loc	11 277 13 is_stmt 1
	addq	%rcx, %rax
	movq	%rax, -1072(%rbp)
Ltmp320:
	.loc	11 274 9
	jmp	LBB66_4
Ltmp321:
LBB66_17:
	.loc	11 0 9 is_stmt 0
	movq	-1120(%rbp), %rax
	movq	-1104(%rbp), %rcx
	movq	-1096(%rbp), %rdx
	.loc	11 279 9 is_stmt 1
	movq	%rdx, -120(%rbp)
	.loc	11 279 34 is_stmt 0
	movq	%rcx, -112(%rbp)
	movq	%rax, -104(%rbp)
	.loc	11 279 53
	movq	-1072(%rbp), %rdx
	movq	%rdx, -1232(%rbp)
	.loc	11 279 63
	movq	%rcx, -96(%rbp)
	movq	%rax, -88(%rbp)
Ltmp322:
	.loc	12 160 9 is_stmt 1
	movq	%rcx, -80(%rbp)
	movq	%rax, -72(%rbp)
Ltmp323:
	.loc	12 327 18
	movq	%rcx, -64(%rbp)
	movq	%rax, -56(%rbp)
	movq	-56(%rbp), %rax
	movq	%rax, -1224(%rbp)
Ltmp324:
	.loc	12 0 18 is_stmt 0
	movq	-1120(%rbp), %rcx
	movq	-1104(%rbp), %rdx
	movq	-1224(%rbp), %rax
	movq	-1232(%rbp), %rsi
	.loc	11 279 53 is_stmt 1
	movq	%rsi, -712(%rbp)
	movq	%rax, -704(%rbp)
Ltmp325:
	.loc	12 511 20
	movq	-712(%rbp), %rdi
	movq	-704(%rbp), %rsi
Ltmp275:
	callq	__ZN4core3str6traits108_$LT$impl$u20$core..slice..index..SliceIndex$LT$str$GT$$u20$for$u20$core..ops..range..Range$LT$usize$GT$$GT$13get_unchecked17h011a61260f9c2bb4E
Ltmp276:
	movq	%rdx, -1248(%rbp)
	movq	%rax, -1240(%rbp)
	jmp	LBB66_19
Ltmp326:
LBB66_19:
	.loc	12 0 20 is_stmt 0
	movq	-1248(%rbp), %rax
	movq	-1240(%rbp), %rcx
	.loc	11 279 34 is_stmt 1
	movq	%rcx, -48(%rbp)
	movq	%rax, -40(%rbp)
Ltmp327:
	.loc	9 926 36
	movq	%rcx, -32(%rbp)
	movq	%rax, -24(%rbp)
Ltmp328:
	.loc	12 327 18
	movq	%rcx, -16(%rbp)
	movq	%rax, -8(%rbp)
	movq	-16(%rbp), %rax
	movq	%rax, -1264(%rbp)
	movq	-8(%rbp), %rax
	movq	%rax, -1256(%rbp)
Ltmp329:
Ltmp277:
	.loc	12 0 18 is_stmt 0
	movq	-1256(%rbp), %rdx
	movq	-1264(%rbp), %rsi
	movq	-1096(%rbp), %rdi
	.loc	9 926 9 is_stmt 1
	callq	__ZN5alloc3vec16Vec$LT$T$C$A$GT$17extend_from_slice17h6513dbf82af746e6E
Ltmp278:
	jmp	LBB66_21
Ltmp330:
LBB66_21:
	.loc	9 0 9 is_stmt 0
	movq	-1088(%rbp), %rax
	.loc	11 281 6 is_stmt 1
	addq	$1264, %rsp
	popq	%rbp
	retq
LBB66_22:
Ltmp282:
	.loc	11 271 5
	callq	__ZN4core9panicking19panic_cannot_unwind17h1fbca7e1d7f56ae1E
LBB66_23:
	.loc	11 281 5
	xorl	%eax, %eax
	testb	$1, %al
	jne	LBB66_25
	jmp	LBB66_24
LBB66_24:
	.loc	11 271 5
	movq	-352(%rbp), %rdi
	callq	__Unwind_Resume
LBB66_25:
	.loc	11 281 5
	jmp	LBB66_24
Ltmp331:
Lfunc_end66:
	.cfi_endproc
	.section	__TEXT,__gcc_except_tab
	.p2align	2
GCC_except_table66:
Lexception1:
	.byte	255
	.byte	255
	.byte	1
	.uleb128 Lcst_end1-Lcst_begin1
Lcst_begin1:
	.uleb128 Ltmp262-Lfunc_begin66
	.uleb128 Ltmp263-Ltmp262
	.uleb128 Ltmp279-Lfunc_begin66
	.byte	0
	.uleb128 Ltmp280-Lfunc_begin66
	.uleb128 Ltmp281-Ltmp280
	.uleb128 Ltmp282-Lfunc_begin66
	.byte	0
	.uleb128 Ltmp281-Lfunc_begin66
	.uleb128 Ltmp264-Ltmp281
	.byte	0
	.byte	0
	.uleb128 Ltmp264-Lfunc_begin66
	.uleb128 Ltmp273-Ltmp264
	.uleb128 Ltmp274-Lfunc_begin66
	.byte	0
	.uleb128 Ltmp275-Lfunc_begin66
	.uleb128 Ltmp278-Ltmp275
	.uleb128 Ltmp279-Lfunc_begin66
	.byte	0
	.uleb128 Ltmp278-Lfunc_begin66
	.uleb128 Lfunc_end66-Ltmp278
	.byte	0
	.byte	0
Lcst_end1:
	.p2align	2

	.section	__TEXT,__text,regular,pure_instructions
	.globl	__ZN5alloc3vec16Vec$LT$T$C$A$GT$4push17h5d704e9cf2d42e92E
	.p2align	4, 0x90
__ZN5alloc3vec16Vec$LT$T$C$A$GT$4push17h5d704e9cf2d42e92E:
Lfunc_begin67:
	.loc	43 1836 0
	.cfi_startproc
	.cfi_personality 155, _rust_eh_personality
	.cfi_lsda 16, Lexception2
	pushq	%rbp
	.cfi_def_cfa_offset 16
	.cfi_offset %rbp, -16
	movq	%rsp, %rbp
	.cfi_def_cfa_register %rbp
	subq	$256, %rsp
	movq	%rdi, -232(%rbp)
	movq	%rsi, -224(%rbp)
Ltmp338:
	movq	%rdi, -160(%rbp)
Ltmp339:
	.loc	43 1839 12 prologue_end
	movq	16(%rdi), %rax
	movq	%rax, -216(%rbp)
	.loc	43 1839 24 is_stmt 0
	movq	%rdi, -152(%rbp)
Ltmp340:
	.file	45 "/rustc/2c8cc343237b8f7d5a3c3703e3a87f2eb2c54a74/library/alloc/src" "raw_vec.rs"
	.loc	45 232 12 is_stmt 1
	xorl	%eax, %eax
	testb	$1, %al
Ltmp341:
	jne	LBB67_2
Ltmp342:
	.loc	45 0 12 is_stmt 0
	movq	-232(%rbp), %rax
	.loc	45 232 44
	movq	(%rax), %rax
	movq	%rax, -208(%rbp)
	.loc	45 232 9
	jmp	LBB67_3
Ltmp343:
LBB67_2:
	.loc	45 232 24
	movq	$-1, -208(%rbp)
Ltmp344:
LBB67_3:
	.loc	45 0 24
	movq	-216(%rbp), %rax
	.loc	43 1839 12 is_stmt 1
	cmpq	-208(%rbp), %rax
	je	LBB67_5
Ltmp345:
LBB67_4:
	.loc	43 0 12 is_stmt 0
	movq	-232(%rbp), %rax
	.loc	43 1843 23 is_stmt 1
	movq	%rax, -128(%rbp)
Ltmp346:
	.loc	43 1280 19
	movq	%rax, -120(%rbp)
Ltmp347:
	.loc	45 224 9
	movq	8(%rax), %rax
	movq	%rax, -240(%rbp)
	movq	%rax, -112(%rbp)
Ltmp348:
	.file	46 "/rustc/2c8cc343237b8f7d5a3c3703e3a87f2eb2c54a74/library/core/src/ptr" "unique.rs"
	.loc	46 104 9
	movq	%rax, -104(%rbp)
Ltmp349:
	.file	47 "/rustc/2c8cc343237b8f7d5a3c3703e3a87f2eb2c54a74/library/core/src/ptr" "non_null.rs"
	.loc	47 326 9
	movq	%rax, -96(%rbp)
Ltmp350:
	.loc	43 1282 21
	movq	%rax, -88(%rbp)
Ltmp351:
	.file	48 "/rustc/2c8cc343237b8f7d5a3c3703e3a87f2eb2c54a74/library/core/src/ptr" "mut_ptr.rs"
	.loc	48 52 36
	movq	%rax, -168(%rbp)
	.loc	48 52 18 is_stmt 0
	movq	-168(%rbp), %rax
	movq	%rax, -80(%rbp)
Ltmp352:
	.loc	48 38 13 is_stmt 1
	movq	%rax, -72(%rbp)
Ltmp353:
	.loc	48 215 33
	movq	%rax, -64(%rbp)
	.loc	48 215 18 is_stmt 0
	movq	%rax, -56(%rbp)
	movq	-56(%rbp), %rax
	jmp	LBB67_9
Ltmp354:
LBB67_5:
	.loc	48 0 18
	movq	-232(%rbp), %rdi
	.loc	43 1840 39 is_stmt 1
	movq	16(%rdi), %rsi
Ltmp332:
	.loc	43 1840 13 is_stmt 0
	callq	__ZN5alloc7raw_vec19RawVec$LT$T$C$A$GT$16reserve_for_push17h7d95b8fd72632c8dE
Ltmp333:
	jmp	LBB67_8
Ltmp355:
LBB67_6:
	.loc	43 1847 5 is_stmt 1
	movb	$1, %al
	testb	$1, %al
	jne	LBB67_12
	jmp	LBB67_11
Ltmp356:
LBB67_7:
Ltmp334:
	.loc	43 0 5 is_stmt 0
	movq	%rax, %rcx
	movl	%edx, %eax
	movq	%rcx, -144(%rbp)
	movl	%eax, -136(%rbp)
	jmp	LBB67_6
Ltmp357:
LBB67_8:
	.loc	43 1839 9 is_stmt 1
	jmp	LBB67_4
Ltmp358:
LBB67_9:
	.loc	43 0 9 is_stmt 0
	movq	-240(%rbp), %rax
	movq	-232(%rbp), %rcx
	.loc	43 1843 45 is_stmt 1
	movq	16(%rcx), %rcx
	movq	%rcx, -48(%rbp)
Ltmp359:
	.loc	48 1034 18
	movq	%rax, -40(%rbp)
	.loc	48 1034 30 is_stmt 0
	movq	%rcx, -32(%rbp)
Ltmp360:
	.loc	48 487 18 is_stmt 1
	shlq	$5, %rcx
	addq	%rcx, %rax
	movq	%rax, -24(%rbp)
	movq	-24(%rbp), %rax
	movq	%rax, -248(%rbp)
Ltmp361:
	.loc	48 0 18 is_stmt 0
	movq	-232(%rbp), %rax
	movq	-248(%rbp), %rcx
	movq	-224(%rbp), %rdx
	.loc	48 487 18
	movq	%rcx, -16(%rbp)
Ltmp362:
	.loc	43 1844 24 is_stmt 1
	movq	%rcx, -8(%rbp)
	.loc	43 1844 29 is_stmt 0
	movq	(%rdx), %rsi
	movq	%rsi, -200(%rbp)
	movq	8(%rdx), %rsi
	movq	%rsi, -192(%rbp)
	movq	16(%rdx), %rsi
	movq	%rsi, -184(%rbp)
	movq	24(%rdx), %rdx
	movq	%rdx, -176(%rbp)
Ltmp363:
	.loc	17 1354 9 is_stmt 1
	movq	-200(%rbp), %rdx
	movq	%rdx, (%rcx)
	movq	-192(%rbp), %rdx
	movq	%rdx, 8(%rcx)
	movq	-184(%rbp), %rdx
	movq	%rdx, 16(%rcx)
	movq	-176(%rbp), %rdx
	movq	%rdx, 24(%rcx)
Ltmp364:
	.loc	43 1845 13
	movq	16(%rax), %rcx
	addq	$1, %rcx
	movq	%rcx, 16(%rax)
Ltmp365:
	.loc	43 1847 6
	addq	$256, %rsp
	popq	%rbp
	retq
Ltmp366:
LBB67_11:
	.loc	43 1836 5
	movq	-144(%rbp), %rdi
	callq	__Unwind_Resume
Ltmp367:
LBB67_12:
Ltmp335:
	.loc	43 0 5 is_stmt 0
	movq	-224(%rbp), %rdi
	.loc	43 1847 5 is_stmt 1
	callq	__ZN4core3ptr45drop_in_place$LT$egui..data..input..Event$GT$17he82bba4d99664017E
Ltmp336:
	jmp	LBB67_11
Ltmp368:
LBB67_13:
Ltmp337:
	.loc	43 1836 5
	callq	__ZN4core9panicking19panic_cannot_unwind17h1fbca7e1d7f56ae1E
Ltmp369:
Lfunc_end67:
	.cfi_endproc
	.section	__TEXT,__gcc_except_tab
	.p2align	2
GCC_except_table67:
Lexception2:
	.byte	255
	.byte	255
	.byte	1
	.uleb128 Lcst_end2-Lcst_begin2
Lcst_begin2:
	.uleb128 Ltmp332-Lfunc_begin67
	.uleb128 Ltmp333-Ltmp332
	.uleb128 Ltmp334-Lfunc_begin67
	.byte	0
	.uleb128 Ltmp333-Lfunc_begin67
	.uleb128 Ltmp335-Ltmp333
	.byte	0
	.byte	0
	.uleb128 Ltmp335-Lfunc_begin67
	.uleb128 Ltmp336-Ltmp335
	.uleb128 Ltmp337-Lfunc_begin67
	.byte	0
Lcst_end2:
	.p2align	2

	.section	__TEXT,__text,regular,pure_instructions
	.globl	__ZN5alloc3vec16Vec$LT$T$C$A$GT$4push17hb776ae03de70f69dE
	.p2align	4, 0x90
__ZN5alloc3vec16Vec$LT$T$C$A$GT$4push17hb776ae03de70f69dE:
Lfunc_begin68:
	.loc	43 1836 0
	.cfi_startproc
	.cfi_personality 155, _rust_eh_personality
	.cfi_lsda 16, Lexception3
	pushq	%rbp
	.cfi_def_cfa_offset 16
	.cfi_offset %rbp, -16
	movq	%rsp, %rbp
	.cfi_def_cfa_register %rbp
	subq	$304, %rsp
	movq	%rdi, -280(%rbp)
	movq	%rsi, -272(%rbp)
Ltmp376:
	movq	%rdi, -160(%rbp)
Ltmp377:
	.loc	43 1839 12 prologue_end
	movq	16(%rdi), %rax
	movq	%rax, -264(%rbp)
	.loc	43 1839 24 is_stmt 0
	movq	%rdi, -152(%rbp)
Ltmp378:
	.loc	45 232 12 is_stmt 1
	xorl	%eax, %eax
	testb	$1, %al
Ltmp379:
	jne	LBB68_2
Ltmp380:
	.loc	45 0 12 is_stmt 0
	movq	-280(%rbp), %rax
	.loc	45 232 44
	movq	(%rax), %rax
	movq	%rax, -256(%rbp)
	.loc	45 232 9
	jmp	LBB68_3
Ltmp381:
LBB68_2:
	.loc	45 232 24
	movq	$-1, -256(%rbp)
Ltmp382:
LBB68_3:
	.loc	45 0 24
	movq	-264(%rbp), %rax
	.loc	43 1839 12 is_stmt 1
	cmpq	-256(%rbp), %rax
	je	LBB68_5
Ltmp383:
LBB68_4:
	.loc	43 0 12 is_stmt 0
	movq	-280(%rbp), %rax
	.loc	43 1843 23 is_stmt 1
	movq	%rax, -128(%rbp)
Ltmp384:
	.loc	43 1280 19
	movq	%rax, -120(%rbp)
Ltmp385:
	.loc	45 224 9
	movq	8(%rax), %rax
	movq	%rax, -288(%rbp)
	movq	%rax, -112(%rbp)
Ltmp386:
	.loc	46 104 9
	movq	%rax, -104(%rbp)
Ltmp387:
	.loc	47 326 9
	movq	%rax, -96(%rbp)
Ltmp388:
	.loc	43 1282 21
	movq	%rax, -88(%rbp)
Ltmp389:
	.loc	48 52 36
	movq	%rax, -168(%rbp)
	.loc	48 52 18 is_stmt 0
	movq	-168(%rbp), %rax
	movq	%rax, -80(%rbp)
Ltmp390:
	.loc	48 38 13 is_stmt 1
	movq	%rax, -72(%rbp)
Ltmp391:
	.loc	48 215 33
	movq	%rax, -64(%rbp)
	.loc	48 215 18 is_stmt 0
	movq	%rax, -56(%rbp)
	movq	-56(%rbp), %rax
	jmp	LBB68_9
Ltmp392:
LBB68_5:
	.loc	48 0 18
	movq	-280(%rbp), %rdi
	.loc	43 1840 39 is_stmt 1
	movq	16(%rdi), %rsi
Ltmp370:
	.loc	43 1840 13 is_stmt 0
	callq	__ZN5alloc7raw_vec19RawVec$LT$T$C$A$GT$16reserve_for_push17hbeada2ae3070c532E
Ltmp371:
	jmp	LBB68_8
Ltmp393:
LBB68_6:
	.loc	43 1847 5 is_stmt 1
	movb	$1, %al
	testb	$1, %al
	jne	LBB68_12
	jmp	LBB68_11
Ltmp394:
LBB68_7:
Ltmp372:
	.loc	43 0 5 is_stmt 0
	movq	%rax, %rcx
	movl	%edx, %eax
	movq	%rcx, -144(%rbp)
	movl	%eax, -136(%rbp)
	jmp	LBB68_6
Ltmp395:
LBB68_8:
	.loc	43 1839 9 is_stmt 1
	jmp	LBB68_4
Ltmp396:
LBB68_9:
	.loc	43 0 9 is_stmt 0
	movq	-288(%rbp), %rax
	movq	-280(%rbp), %rcx
	.loc	43 1843 45 is_stmt 1
	movq	16(%rcx), %rcx
	movq	%rcx, -48(%rbp)
Ltmp397:
	.loc	48 1034 18
	movq	%rax, -40(%rbp)
	.loc	48 1034 30 is_stmt 0
	movq	%rcx, -32(%rbp)
Ltmp398:
	.loc	48 487 18 is_stmt 1
	imulq	$80, %rcx, %rcx
	addq	%rcx, %rax
	movq	%rax, -24(%rbp)
	movq	-24(%rbp), %rax
	movq	%rax, -296(%rbp)
Ltmp399:
	.loc	48 0 18 is_stmt 0
	movq	-296(%rbp), %rax
	movq	-272(%rbp), %rsi
	.loc	48 487 18
	movq	%rax, -16(%rbp)
Ltmp400:
	.loc	43 1844 24 is_stmt 1
	movq	%rax, -8(%rbp)
	.loc	43 1844 29 is_stmt 0
	leaq	-248(%rbp), %rdi
	movl	$80, %edx
	callq	_memcpy
	movq	-296(%rbp), %rdi
Ltmp401:
	.loc	17 1354 9 is_stmt 1
	leaq	-248(%rbp), %rsi
	movl	$80, %edx
	callq	_memcpy
	movq	-280(%rbp), %rax
Ltmp402:
	.loc	43 1845 13
	movq	16(%rax), %rcx
	addq	$1, %rcx
	movq	%rcx, 16(%rax)
Ltmp403:
	.loc	43 1847 6
	addq	$304, %rsp
	popq	%rbp
	retq
Ltmp404:
LBB68_11:
	.loc	43 1836 5
	movq	-144(%rbp), %rdi
	callq	__Unwind_Resume
Ltmp405:
LBB68_12:
Ltmp373:
	.loc	43 0 5 is_stmt 0
	movq	-272(%rbp), %rdi
	.loc	43 1847 5 is_stmt 1
	callq	__ZN4core3ptr51drop_in_place$LT$egui..data..input..DroppedFile$GT$17h71e137fe9b59e8acE
Ltmp374:
	jmp	LBB68_11
Ltmp406:
LBB68_13:
Ltmp375:
	.loc	43 1836 5
	callq	__ZN4core9panicking19panic_cannot_unwind17h1fbca7e1d7f56ae1E
Ltmp407:
Lfunc_end68:
	.cfi_endproc
	.section	__TEXT,__gcc_except_tab
	.p2align	2
GCC_except_table68:
Lexception3:
	.byte	255
	.byte	255
	.byte	1
	.uleb128 Lcst_end3-Lcst_begin3
Lcst_begin3:
	.uleb128 Ltmp370-Lfunc_begin68
	.uleb128 Ltmp371-Ltmp370
	.uleb128 Ltmp372-Lfunc_begin68
	.byte	0
	.uleb128 Ltmp371-Lfunc_begin68
	.uleb128 Ltmp373-Ltmp371
	.byte	0
	.byte	0
	.uleb128 Ltmp373-Lfunc_begin68
	.uleb128 Ltmp374-Ltmp373
	.uleb128 Ltmp375-Lfunc_begin68
	.byte	0
Lcst_end3:
	.p2align	2

	.section	__TEXT,__text,regular,pure_instructions
	.globl	__ZN5alloc3vec16Vec$LT$T$C$A$GT$4push17hdc8aa5149cee496aE
	.p2align	4, 0x90
__ZN5alloc3vec16Vec$LT$T$C$A$GT$4push17hdc8aa5149cee496aE:
Lfunc_begin69:
	.loc	43 1836 0
	.cfi_startproc
	.cfi_personality 155, _rust_eh_personality
	.cfi_lsda 16, Lexception4
	pushq	%rbp
	.cfi_def_cfa_offset 16
	.cfi_offset %rbp, -16
	movq	%rsp, %rbp
	.cfi_def_cfa_register %rbp
	subq	$272, %rsp
	movq	%rdi, -248(%rbp)
	movq	%rsi, -240(%rbp)
Ltmp414:
	movq	%rdi, -160(%rbp)
Ltmp415:
	.loc	43 1839 12 prologue_end
	movq	16(%rdi), %rax
	movq	%rax, -232(%rbp)
	.loc	43 1839 24 is_stmt 0
	movq	%rdi, -152(%rbp)
Ltmp416:
	.loc	45 232 12 is_stmt 1
	xorl	%eax, %eax
	testb	$1, %al
Ltmp417:
	jne	LBB69_2
Ltmp418:
	.loc	45 0 12 is_stmt 0
	movq	-248(%rbp), %rax
	.loc	45 232 44
	movq	(%rax), %rax
	movq	%rax, -224(%rbp)
	.loc	45 232 9
	jmp	LBB69_3
Ltmp419:
LBB69_2:
	.loc	45 232 24
	movq	$-1, -224(%rbp)
Ltmp420:
LBB69_3:
	.loc	45 0 24
	movq	-232(%rbp), %rax
	.loc	43 1839 12 is_stmt 1
	cmpq	-224(%rbp), %rax
	je	LBB69_5
Ltmp421:
LBB69_4:
	.loc	43 0 12 is_stmt 0
	movq	-248(%rbp), %rax
	.loc	43 1843 23 is_stmt 1
	movq	%rax, -128(%rbp)
Ltmp422:
	.loc	43 1280 19
	movq	%rax, -120(%rbp)
Ltmp423:
	.loc	45 224 9
	movq	8(%rax), %rax
	movq	%rax, -256(%rbp)
	movq	%rax, -112(%rbp)
Ltmp424:
	.loc	46 104 9
	movq	%rax, -104(%rbp)
Ltmp425:
	.loc	47 326 9
	movq	%rax, -96(%rbp)
Ltmp426:
	.loc	43 1282 21
	movq	%rax, -88(%rbp)
Ltmp427:
	.loc	48 52 36
	movq	%rax, -168(%rbp)
	.loc	48 52 18 is_stmt 0
	movq	-168(%rbp), %rax
	movq	%rax, -80(%rbp)
Ltmp428:
	.loc	48 38 13 is_stmt 1
	movq	%rax, -72(%rbp)
Ltmp429:
	.loc	48 215 33
	movq	%rax, -64(%rbp)
	.loc	48 215 18 is_stmt 0
	movq	%rax, -56(%rbp)
	movq	-56(%rbp), %rax
	jmp	LBB69_9
Ltmp430:
LBB69_5:
	.loc	48 0 18
	movq	-248(%rbp), %rdi
	.loc	43 1840 39 is_stmt 1
	movq	16(%rdi), %rsi
Ltmp408:
	.loc	43 1840 13 is_stmt 0
	callq	__ZN5alloc7raw_vec19RawVec$LT$T$C$A$GT$16reserve_for_push17h00d5f05358c33014E
Ltmp409:
	jmp	LBB69_8
Ltmp431:
LBB69_6:
	.loc	43 1847 5 is_stmt 1
	movb	$1, %al
	testb	$1, %al
	jne	LBB69_12
	jmp	LBB69_11
Ltmp432:
LBB69_7:
Ltmp410:
	.loc	43 0 5 is_stmt 0
	movq	%rax, %rcx
	movl	%edx, %eax
	movq	%rcx, -144(%rbp)
	movl	%eax, -136(%rbp)
	jmp	LBB69_6
Ltmp433:
LBB69_8:
	.loc	43 1839 9 is_stmt 1
	jmp	LBB69_4
Ltmp434:
LBB69_9:
	.loc	43 0 9 is_stmt 0
	movq	-256(%rbp), %rax
	movq	-248(%rbp), %rcx
	.loc	43 1843 45 is_stmt 1
	movq	16(%rcx), %rcx
	movq	%rcx, -48(%rbp)
Ltmp435:
	.loc	48 1034 18
	movq	%rax, -40(%rbp)
	.loc	48 1034 30 is_stmt 0
	movq	%rcx, -32(%rbp)
Ltmp436:
	.loc	48 487 18 is_stmt 1
	imulq	$48, %rcx, %rcx
	addq	%rcx, %rax
	movq	%rax, -24(%rbp)
	movq	-24(%rbp), %rax
	movq	%rax, -264(%rbp)
Ltmp437:
	.loc	48 0 18 is_stmt 0
	movq	-264(%rbp), %rax
	movq	-240(%rbp), %rsi
	.loc	48 487 18
	movq	%rax, -16(%rbp)
Ltmp438:
	.loc	43 1844 24 is_stmt 1
	movq	%rax, -8(%rbp)
	.loc	43 1844 29 is_stmt 0
	leaq	-216(%rbp), %rdi
	movl	$48, %edx
	callq	_memcpy
	movq	-264(%rbp), %rdi
Ltmp439:
	.loc	17 1354 9 is_stmt 1
	leaq	-216(%rbp), %rsi
	movl	$48, %edx
	callq	_memcpy
	movq	-248(%rbp), %rax
Ltmp440:
	.loc	43 1845 13
	movq	16(%rax), %rcx
	addq	$1, %rcx
	movq	%rcx, 16(%rax)
Ltmp441:
	.loc	43 1847 6
	addq	$272, %rsp
	popq	%rbp
	retq
Ltmp442:
LBB69_11:
	.loc	43 1836 5
	movq	-144(%rbp), %rdi
	callq	__Unwind_Resume
Ltmp443:
LBB69_12:
Ltmp411:
	.loc	43 0 5 is_stmt 0
	movq	-240(%rbp), %rdi
	.loc	43 1847 5 is_stmt 1
	callq	__ZN4core3ptr51drop_in_place$LT$egui..data..input..HoveredFile$GT$17h9b0f1445d8be0e1aE
Ltmp412:
	jmp	LBB69_11
Ltmp444:
LBB69_13:
Ltmp413:
	.loc	43 1836 5
	callq	__ZN4core9panicking19panic_cannot_unwind17h1fbca7e1d7f56ae1E
Ltmp445:
Lfunc_end69:
	.cfi_endproc
	.section	__TEXT,__gcc_except_tab
	.p2align	2
GCC_except_table69:
Lexception4:
	.byte	255
	.byte	255
	.byte	1
	.uleb128 Lcst_end4-Lcst_begin4
Lcst_begin4:
	.uleb128 Ltmp408-Lfunc_begin69
	.uleb128 Ltmp409-Ltmp408
	.uleb128 Ltmp410-Lfunc_begin69
	.byte	0
	.uleb128 Ltmp409-Lfunc_begin69
	.uleb128 Ltmp411-Ltmp409
	.byte	0
	.byte	0
	.uleb128 Ltmp411-Lfunc_begin69
	.uleb128 Ltmp412-Ltmp411
	.uleb128 Ltmp413-Lfunc_begin69
	.byte	0
Lcst_end4:
	.p2align	2

	.section	__TEXT,__text,regular,pure_instructions
	.globl	__ZN5alloc3vec16Vec$LT$T$C$A$GT$5clear17h067fed43725ac3dbE
	.p2align	4, 0x90
__ZN5alloc3vec16Vec$LT$T$C$A$GT$5clear17h067fed43725ac3dbE:
Lfunc_begin70:
	.loc	43 2035 0
	.cfi_startproc
	pushq	%rbp
	.cfi_def_cfa_offset 16
	.cfi_offset %rbp, -16
	movq	%rsp, %rbp
	.cfi_def_cfa_register %rbp
	subq	$48, %rsp
	movq	%rdi, -40(%rbp)
	movq	%rdi, -32(%rbp)
Ltmp446:
	.loc	43 2036 31 prologue_end
	movq	%rdi, -24(%rbp)
Ltmp447:
	.loc	43 1209 9
	callq	__ZN75_$LT$alloc..vec..Vec$LT$T$C$A$GT$$u20$as$u20$core..ops..deref..DerefMut$GT$9deref_mut17hffa0ef0b1a54f6a3E
	movq	%rax, %rdi
	movq	-40(%rbp), %rax
	movq	%rdx, %rsi
Ltmp448:
	.loc	43 2036 31
	movq	%rdi, -16(%rbp)
	movq	%rsi, -8(%rbp)
Ltmp449:
	.loc	43 2045 13
	movq	$0, 16(%rax)
	.loc	43 2046 13
	callq	__ZN4core3ptr61drop_in_place$LT$$u5b$egui..data..input..HoveredFile$u5d$$GT$17he37d3601812bfac7E
Ltmp450:
	.loc	43 2048 6
	addq	$48, %rsp
	popq	%rbp
	retq
Ltmp451:
Lfunc_end70:
	.cfi_endproc

	.p2align	4, 0x90
__ZN5alloc6string6String8is_empty17h0a06c1e8840f9765E:
Lfunc_begin71:
	.loc	9 1656 0
	.cfi_startproc
	pushq	%rbp
	.cfi_def_cfa_offset 16
	.cfi_offset %rbp, -16
	movq	%rsp, %rbp
	.cfi_def_cfa_register %rbp
	subq	$24, %rsp
	movq	%rdi, -24(%rbp)
Ltmp452:
	.loc	9 1657 9 prologue_end
	movq	%rdi, -16(%rbp)
Ltmp453:
	.loc	9 1637 9
	movq	%rdi, -8(%rbp)
Ltmp454:
	.loc	9 1657 9
	cmpq	$0, 16(%rdi)
	sete	%al
	.loc	9 1658 6
	andb	$1, %al
	movzbl	%al, %eax
	addq	$24, %rsp
	popq	%rbp
	retq
Ltmp455:
Lfunc_end71:
	.cfi_endproc

	.p2align	4, 0x90
__ZN5alloc7raw_vec14handle_reserve17h595757c02c5cda9dE:
Lfunc_begin72:
	.loc	45 487 0
	.cfi_startproc
	pushq	%rbp
	.cfi_def_cfa_offset 16
	.cfi_offset %rbp, -16
	movq	%rsp, %rbp
	.cfi_def_cfa_register %rbp
	subq	$48, %rsp
	movq	%rdi, -32(%rbp)
	movq	%rsi, -24(%rbp)
Ltmp456:
	.loc	45 488 11 prologue_end
	callq	__ZN4core6result19Result$LT$T$C$E$GT$7map_err17h7bebee3f42ee7362E
	movq	%rdx, -40(%rbp)
	movq	%rax, -48(%rbp)
	movabsq	$-9223372036854775807, %rdx
	movl	$1, %eax
	xorl	%ecx, %ecx
	cmpq	%rdx, -40(%rbp)
	cmoveq	%rcx, %rax
	.loc	45 488 5 is_stmt 0
	cmpq	$0, %rax
	jne	LBB72_2
	.loc	45 493 2 is_stmt 1
	addq	$48, %rsp
	popq	%rbp
	retq
LBB72_2:
	.loc	45 488 11
	movl	$1, %eax
	xorl	%ecx, %ecx
	cmpq	$0, -40(%rbp)
	cmoveq	%rcx, %rax
	.loc	45 488 5 is_stmt 0
	cmpq	$0, %rax
	jne	LBB72_4
	.loc	45 489 34 is_stmt 1
	callq	__ZN5alloc7raw_vec17capacity_overflow17h082ee8492f253a0eE
LBB72_4:
	.loc	45 490 26
	movq	-48(%rbp), %rdi
	movq	-40(%rbp), %rsi
	movq	%rdi, -16(%rbp)
	movq	%rsi, -8(%rbp)
Ltmp457:
	.loc	45 490 43 is_stmt 0
	callq	__ZN5alloc5alloc18handle_alloc_error17hb5f6ff255f23ea4dE
Ltmp458:
Lfunc_end72:
	.cfi_endproc

	.globl	__ZN5alloc7raw_vec19RawVec$LT$T$C$A$GT$16reserve_for_push17h00d5f05358c33014E
	.p2align	4, 0x90
__ZN5alloc7raw_vec19RawVec$LT$T$C$A$GT$16reserve_for_push17h00d5f05358c33014E:
Lfunc_begin73:
	.loc	45 297 0 is_stmt 1
	.cfi_startproc
	pushq	%rbp
	.cfi_def_cfa_offset 16
	.cfi_offset %rbp, -16
	movq	%rsp, %rbp
	.cfi_def_cfa_register %rbp
	subq	$16, %rsp
	movq	%rdi, -16(%rbp)
	movq	%rsi, -8(%rbp)
Ltmp459:
	.loc	45 298 24 prologue_end
	movl	$1, %edx
	callq	__ZN5alloc7raw_vec19RawVec$LT$T$C$A$GT$14grow_amortized17hc4c66fa82cb5ef0cE
	movq	%rax, %rdi
	movq	%rdx, %rsi
	.loc	45 298 9 is_stmt 0
	callq	__ZN5alloc7raw_vec14handle_reserve17h595757c02c5cda9dE
	.loc	45 299 6 is_stmt 1
	addq	$16, %rsp
	popq	%rbp
	retq
Ltmp460:
Lfunc_end73:
	.cfi_endproc

	.globl	__ZN5alloc7raw_vec19RawVec$LT$T$C$A$GT$16reserve_for_push17h7d95b8fd72632c8dE
	.p2align	4, 0x90
__ZN5alloc7raw_vec19RawVec$LT$T$C$A$GT$16reserve_for_push17h7d95b8fd72632c8dE:
Lfunc_begin74:
	.loc	45 297 0
	.cfi_startproc
	pushq	%rbp
	.cfi_def_cfa_offset 16
	.cfi_offset %rbp, -16
	movq	%rsp, %rbp
	.cfi_def_cfa_register %rbp
	subq	$16, %rsp
	movq	%rdi, -16(%rbp)
	movq	%rsi, -8(%rbp)
Ltmp461:
	.loc	45 298 24 prologue_end
	movl	$1, %edx
	callq	__ZN5alloc7raw_vec19RawVec$LT$T$C$A$GT$14grow_amortized17he69e8be3280b370fE
	movq	%rax, %rdi
	movq	%rdx, %rsi
	.loc	45 298 9 is_stmt 0
	callq	__ZN5alloc7raw_vec14handle_reserve17h595757c02c5cda9dE
	.loc	45 299 6 is_stmt 1
	addq	$16, %rsp
	popq	%rbp
	retq
Ltmp462:
Lfunc_end74:
	.cfi_endproc

	.globl	__ZN5alloc7raw_vec19RawVec$LT$T$C$A$GT$16reserve_for_push17hbeada2ae3070c532E
	.p2align	4, 0x90
__ZN5alloc7raw_vec19RawVec$LT$T$C$A$GT$16reserve_for_push17hbeada2ae3070c532E:
Lfunc_begin75:
	.loc	45 297 0
	.cfi_startproc
	pushq	%rbp
	.cfi_def_cfa_offset 16
	.cfi_offset %rbp, -16
	movq	%rsp, %rbp
	.cfi_def_cfa_register %rbp
	subq	$16, %rsp
	movq	%rdi, -16(%rbp)
	movq	%rsi, -8(%rbp)
Ltmp463:
	.loc	45 298 24 prologue_end
	movl	$1, %edx
	callq	__ZN5alloc7raw_vec19RawVec$LT$T$C$A$GT$14grow_amortized17h6ae73ff65eb9be9cE
	movq	%rax, %rdi
	movq	%rdx, %rsi
	.loc	45 298 9 is_stmt 0
	callq	__ZN5alloc7raw_vec14handle_reserve17h595757c02c5cda9dE
	.loc	45 299 6 is_stmt 1
	addq	$16, %rsp
	popq	%rbp
	retq
Ltmp464:
Lfunc_end75:
	.cfi_endproc

	.p2align	4, 0x90
__ZN5winit13platform_impl8platform6window13UnownedWindow10fullscreen17h8f6c217cb278b44fE:
Lfunc_begin76:
	.loc	3 804 0
	.cfi_startproc
	.cfi_personality 155, _rust_eh_personality
	.cfi_lsda 16, Lexception5
	pushq	%rbp
	.cfi_def_cfa_offset 16
	.cfi_offset %rbp, -16
	movq	%rsp, %rbp
	.cfi_def_cfa_register %rbp
	subq	$96, %rsp
	movq	%rdi, -88(%rbp)
	movq	%rdi, -80(%rbp)
	movq	%rsi, -24(%rbp)
Ltmp473:
	.loc	3 805 33 prologue_end
	leaq	l___unnamed_13(%rip), %rdx
	leaq	l___unnamed_14(%rip), %r8
	leaq	-56(%rbp), %rdi
	movq	%rdi, -72(%rbp)
	movl	$10, %ecx
	callq	__ZN5winit13platform_impl8platform6window13UnownedWindow17lock_shared_state17hd64e1a3bb77b2106E
	movq	-72(%rbp), %rdi
Ltmp465:
Ltmp474:
	.loc	3 806 9
	callq	__ZN105_$LT$winit..platform_impl..platform..window..SharedStateMutexGuard$u20$as$u20$core..ops..deref..Deref$GT$5deref17hf5840352777c0b4cE
Ltmp466:
	movq	%rax, -64(%rbp)
	jmp	LBB76_3
Ltmp475:
LBB76_1:
Ltmp470:
	.loc	3 0 9 is_stmt 0
	leaq	-56(%rbp), %rdi
	.loc	3 807 5 is_stmt 1
	callq	__ZN4core3ptr82drop_in_place$LT$winit..platform_impl..platform..window..SharedStateMutexGuard$GT$17hf0c3b32a031922d3E
Ltmp471:
	jmp	LBB76_6
LBB76_2:
Ltmp469:
	.loc	3 0 5 is_stmt 0
	movq	%rax, %rcx
	movl	%edx, %eax
	movq	%rcx, -16(%rbp)
	movl	%eax, -8(%rbp)
	jmp	LBB76_1
LBB76_3:
	movq	-88(%rbp), %rdi
	movq	-64(%rbp), %rsi
Ltmp476:
	.loc	3 806 9 is_stmt 1
	addq	$72, %rsi
Ltmp467:
	callq	__ZN68_$LT$core..option..Option$LT$T$GT$$u20$as$u20$core..clone..Clone$GT$5clone17hfcecfea691bb5f5cE
Ltmp468:
	jmp	LBB76_4
Ltmp477:
LBB76_4:
	.loc	3 807 5
	leaq	-56(%rbp), %rdi
	callq	__ZN4core3ptr82drop_in_place$LT$winit..platform_impl..platform..window..SharedStateMutexGuard$GT$17hf0c3b32a031922d3E
	movq	-80(%rbp), %rax
	.loc	3 807 6 is_stmt 0
	addq	$96, %rsp
	popq	%rbp
	retq
LBB76_5:
Ltmp472:
	.loc	3 804 5 is_stmt 1
	callq	__ZN4core9panicking19panic_cannot_unwind17h1fbca7e1d7f56ae1E
LBB76_6:
	movq	-16(%rbp), %rdi
	callq	__Unwind_Resume
Ltmp478:
Lfunc_end76:
	.cfi_endproc
	.section	__TEXT,__gcc_except_tab
	.p2align	2
GCC_except_table76:
Lexception5:
	.byte	255
	.byte	255
	.byte	1
	.uleb128 Lcst_end5-Lcst_begin5
Lcst_begin5:
	.uleb128 Lfunc_begin76-Lfunc_begin76
	.uleb128 Ltmp465-Lfunc_begin76
	.byte	0
	.byte	0
	.uleb128 Ltmp465-Lfunc_begin76
	.uleb128 Ltmp466-Ltmp465
	.uleb128 Ltmp469-Lfunc_begin76
	.byte	0
	.uleb128 Ltmp470-Lfunc_begin76
	.uleb128 Ltmp471-Ltmp470
	.uleb128 Ltmp472-Lfunc_begin76
	.byte	0
	.uleb128 Ltmp467-Lfunc_begin76
	.uleb128 Ltmp468-Ltmp467
	.uleb128 Ltmp469-Lfunc_begin76
	.byte	0
	.uleb128 Ltmp468-Lfunc_begin76
	.uleb128 Lfunc_end76-Ltmp468
	.byte	0
	.byte	0
Lcst_end5:
	.p2align	2

	.section	__TEXT,__text,regular,pure_instructions
	.p2align	4, 0x90
__ZN5winit13platform_impl8platform6window13UnownedWindow10inner_size17h1688c2462bc45be3E:
Lfunc_begin77:
	.loc	3 561 0
	.cfi_startproc
	pushq	%rbp
	.cfi_def_cfa_offset 16
	.cfi_offset %rbp, -16
	movq	%rsp, %rbp
	.cfi_def_cfa_register %rbp
	subq	$96, %rsp
	movq	%rdi, -88(%rbp)
	movq	%rdi, -16(%rbp)
Ltmp479:
	.loc	3 562 50 prologue_end
	addq	$8, %rdi
	.loc	3 562 49 is_stmt 0
	callq	__ZN87_$LT$winit..platform_impl..platform..util..IdRef$u20$as$u20$core..ops..deref..Deref$GT$5deref17h7c3b26e1adf56d2fE
	movq	(%rax), %rsi
	leaq	-80(%rbp), %rdi
	.loc	3 562 35
	callq	__ZN75_$LT$$BP$mut$u20$objc..runtime..Object$u20$as$u20$cocoa..appkit..NSView$GT$5frame17haeb1e536cd824113E
Ltmp480:
	.loc	3 564 14 is_stmt 1
	movsd	-64(%rbp), %xmm1
	.loc	3 564 44 is_stmt 0
	movsd	-56(%rbp), %xmm0
	.loc	3 564 13
	movsd	%xmm1, -32(%rbp)
	movsd	%xmm0, -24(%rbp)
	movsd	-32(%rbp), %xmm0
	movsd	-24(%rbp), %xmm1
	callq	__ZN50_$LT$T$u20$as$u20$core..convert..Into$LT$U$GT$$GT$4into17h0a0d5c30d5ebbf71E
	movq	-88(%rbp), %rdi
	movsd	%xmm1, -40(%rbp)
	movsd	%xmm0, -48(%rbp)
Ltmp481:
	.loc	3 565 28 is_stmt 1
	callq	__ZN5winit13platform_impl8platform6window13UnownedWindow12scale_factor17h913f24c934978f01E
	movsd	%xmm0, -8(%rbp)
	leaq	-48(%rbp), %rdi
Ltmp482:
	.loc	3 566 9
	callq	__ZN5winit3dpi20LogicalSize$LT$P$GT$11to_physical17h5dcc8f24678578efE
Ltmp483:
	.loc	3 567 6
	addq	$96, %rsp
	popq	%rbp
	retq
Ltmp484:
Lfunc_end77:
	.cfi_endproc

	.p2align	4, 0x90
__ZN5winit13platform_impl8platform6window13UnownedWindow12scale_factor17h913f24c934978f01E:
Lfunc_begin78:
	.loc	3 676 0
	.cfi_startproc
	pushq	%rbp
	.cfi_def_cfa_offset 16
	.cfi_offset %rbp, -16
	movq	%rsp, %rbp
	.cfi_def_cfa_register %rbp
	subq	$16, %rsp
	movq	%rdi, -8(%rbp)
Ltmp485:
	.loc	3 677 47 prologue_end
	callq	__ZN87_$LT$winit..platform_impl..platform..util..IdRef$u20$as$u20$core..ops..deref..Deref$GT$5deref17h7c3b26e1adf56d2fE
	movq	(%rax), %rdi
	.loc	3 677 18 is_stmt 0
	callq	__ZN77_$LT$$BP$mut$u20$objc..runtime..Object$u20$as$u20$cocoa..appkit..NSWindow$GT$18backingScaleFactor17hdff20128afa4a15fE
	.loc	3 678 6 is_stmt 1
	addq	$16, %rsp
	popq	%rbp
	retq
Ltmp486:
Lfunc_end78:
	.cfi_endproc

	.p2align	4, 0x90
__ZN5winit13platform_impl8platform6window13UnownedWindow16set_ime_position17h2c99f3bae9064429E:
Lfunc_begin79:
	.loc	3 1076 0
	.cfi_startproc
	pushq	%rbp
	.cfi_def_cfa_offset 16
	.cfi_offset %rbp, -16
	movq	%rsp, %rbp
	.cfi_def_cfa_register %rbp
	subq	$64, %rsp
	movq	%rdi, -56(%rbp)
	movq	%rsi, -64(%rbp)
	movq	%rdi, -32(%rbp)
Ltmp487:
	.loc	3 1077 28 prologue_end
	callq	__ZN5winit13platform_impl8platform6window13UnownedWindow12scale_factor17h913f24c934978f01E
	movq	-64(%rbp), %rdi
	movsd	%xmm0, -24(%rbp)
Ltmp488:
	.loc	3 1078 28
	callq	__ZN5winit3dpi8Position10to_logical17h2663aaff397813b3E
	movq	-56(%rbp), %rdi
	movsd	%xmm0, -48(%rbp)
	movsd	%xmm1, -40(%rbp)
	movsd	%xmm0, -16(%rbp)
	movsd	%xmm1, -8(%rbp)
Ltmp489:
	.loc	3 1079 42
	addq	$8, %rdi
	.loc	3 1079 41 is_stmt 0
	callq	__ZN87_$LT$winit..platform_impl..platform..util..IdRef$u20$as$u20$core..ops..deref..Deref$GT$5deref17h7c3b26e1adf56d2fE
	movsd	-48(%rbp), %xmm0
	movsd	-40(%rbp), %xmm1
	movq	(%rax), %rdi
	.loc	3 1079 18
	callq	__ZN5winit13platform_impl8platform4view16set_ime_position17h216245527d372667E
Ltmp490:
	.loc	3 1080 6 is_stmt 1
	addq	$64, %rsp
	popq	%rbp
	retq
Ltmp491:
Lfunc_end79:
	.cfi_endproc

	.p2align	4, 0x90
__ZN5winit13platform_impl8platform6window13UnownedWindow18set_cursor_visible17h257e38aca7229ac8E:
Lfunc_begin80:
	.loc	3 660 0
	.cfi_startproc
	.cfi_personality 155, _rust_eh_personality
	.cfi_lsda 16, Lexception6
	pushq	%rbp
	.cfi_def_cfa_offset 16
	.cfi_offset %rbp, -16
	movq	%rsp, %rbp
	.cfi_def_cfa_register %rbp
	subq	$464, %rsp
	movq	%rdi, -336(%rbp)
	movb	%sil, %al
	movb	%al, -321(%rbp)
	movq	%rdi, -184(%rbp)
	andb	$1, %al
	movb	%al, -169(%rbp)
Ltmp536:
	.loc	3 661 38 prologue_end
	movb	$0, -185(%rbp)
	movb	$0, -186(%rbp)
	addq	$24, %rdi
	movb	$1, -185(%rbp)
	callq	__ZN5alloc4sync13Weak$LT$T$GT$7upgrade17ha2d11aff86469129E
	movq	%rax, -320(%rbp)
	.loc	3 661 16 is_stmt 0
	movq	-320(%rbp), %rdx
	movl	$1, %eax
	xorl	%ecx, %ecx
	cmpq	$0, %rdx
	cmoveq	%rcx, %rax
	cmpq	$1, %rax
	jne	LBB80_2
	.loc	3 661 21
	movb	$0, -185(%rbp)
	movq	-320(%rbp), %rax
	movq	%rax, -312(%rbp)
Ltmp492:
	leaq	-312(%rbp), %rdi
	.loc	3 662 36 is_stmt 1
	callq	__ZN69_$LT$alloc..sync..Arc$LT$T$GT$$u20$as$u20$core..ops..deref..Deref$GT$5deref17he3d38d3fb68e424bE
Ltmp493:
	movq	%rax, -344(%rbp)
	jmp	LBB80_5
Ltmp537:
LBB80_2:
	.loc	3 673 5
	movq	-320(%rbp), %rdx
	movl	$1, %eax
	xorl	%ecx, %ecx
	cmpq	$0, %rdx
	cmoveq	%rcx, %rax
	cmpq	$1, %rax
	je	LBB80_38
	jmp	LBB80_39
LBB80_3:
Ltmp533:
	.loc	3 0 5 is_stmt 0
	leaq	-312(%rbp), %rdi
	.loc	3 672 9 is_stmt 1
	callq	__ZN4core3ptr125drop_in_place$LT$alloc..sync..Arc$LT$std..sync..mutex..Mutex$LT$winit..platform_impl..platform..view..CursorState$GT$$GT$$GT$17h01fccbb94d3c7d5aE
Ltmp534:
	jmp	LBB80_37
LBB80_4:
Ltmp532:
	.loc	3 0 9 is_stmt 0
	movq	%rax, %rcx
	movl	%edx, %eax
	movq	%rcx, -152(%rbp)
	movl	%eax, -144(%rbp)
	jmp	LBB80_3
LBB80_5:
Ltmp494:
	movq	-344(%rbp), %rsi
	leaq	-288(%rbp), %rdi
Ltmp538:
	.loc	3 662 36 is_stmt 1
	callq	__ZN3std4sync5mutex14Mutex$LT$T$GT$4lock17had29eaedda19f208E
Ltmp495:
	jmp	LBB80_6
LBB80_6:
Ltmp496:
	leaq	l___unnamed_15(%rip), %rsi
	leaq	-288(%rbp), %rdi
	callq	__ZN4core6result19Result$LT$T$C$E$GT$6unwrap17hdf3b900d5208dd37E
Ltmp497:
	movb	%dl, -353(%rbp)
	movq	%rax, -352(%rbp)
	jmp	LBB80_7
LBB80_7:
	.loc	3 0 36 is_stmt 0
	movb	-353(%rbp), %al
	movq	-352(%rbp), %rcx
	.loc	3 662 36
	movq	%rcx, -304(%rbp)
	movb	%al, -296(%rbp)
	.loc	3 662 64
	movb	$1, -186(%rbp)
Ltmp498:
	leaq	-304(%rbp), %rdi
Ltmp539:
	.loc	3 663 27 is_stmt 1
	callq	__ZN81_$LT$std..sync..mutex..MutexGuard$LT$T$GT$$u20$as$u20$core..ops..deref..Deref$GT$5deref17h8e0113e8afb71e4eE
Ltmp499:
	movq	%rax, -368(%rbp)
	jmp	LBB80_10
Ltmp540:
LBB80_8:
	.loc	3 672 9
	testb	$1, -186(%rbp)
	jne	LBB80_34
	jmp	LBB80_3
LBB80_9:
Ltmp522:
	.loc	3 0 9 is_stmt 0
	movq	%rax, %rcx
	movl	%edx, %eax
	movq	%rcx, -152(%rbp)
	movl	%eax, -144(%rbp)
	jmp	LBB80_8
LBB80_10:
	movb	-321(%rbp), %al
	movq	-368(%rbp), %rcx
Ltmp541:
	.loc	3 663 27 is_stmt 1
	movb	24(%rcx), %cl
	.loc	3 663 16 is_stmt 0
	andb	$1, %al
	subb	%cl, %al
	jne	LBB80_12
	jmp	LBB80_11
Ltmp542:
LBB80_11:
	.loc	3 672 9 is_stmt 1
	testb	$1, -186(%rbp)
	jne	LBB80_36
	jmp	LBB80_35
LBB80_12:
Ltmp500:
	.loc	3 0 9 is_stmt 0
	leaq	-304(%rbp), %rdi
Ltmp543:
	.loc	3 664 17 is_stmt 1
	callq	__ZN84_$LT$std..sync..mutex..MutexGuard$LT$T$GT$$u20$as$u20$core..ops..deref..DerefMut$GT$9deref_mut17hc7d81f92ac14f39dE
Ltmp501:
	movq	%rax, -376(%rbp)
	jmp	LBB80_13
LBB80_13:
	.loc	3 0 17 is_stmt 0
	movq	-376(%rbp), %rax
	movb	-321(%rbp), %cl
	.loc	3 664 17
	andb	$1, %cl
	movb	%cl, 24(%rax)
	.loc	3 665 22 is_stmt 1
	movb	$0, -186(%rbp)
	movq	-304(%rbp), %rdi
	movzbl	-296(%rbp), %esi
Ltmp502:
	.loc	3 665 17 is_stmt 0
	callq	__ZN4core3mem4drop17hfc57cff1ebe59542E
Ltmp503:
	jmp	LBB80_14
LBB80_14:
	.loc	3 0 17
	leaq	l___unnamed_16(%rip), %rax
	movq	%rax, -56(%rbp)
	movq	$30, -48(%rbp)
Ltmp544:
	.file	49 "/Users/natalie/.cargo/registry/src/github.com-1ecc6299db9ec823/objc-0.2.7/src" "macros.rs"
	.loc	49 54 36 is_stmt 1
	movb	$0, -73(%rbp)
	.loc	49 54 27 is_stmt 0
	movzbl	-73(%rbp), %esi
Ltmp504:
	movq	__ZN5winit13platform_impl8platform6window13UnownedWindow18set_cursor_visible12register_sel3SEL17he34d54bf8ca41d9eE@GOTPCREL(%rip), %rdi
	callq	__ZN4core4sync6atomic11AtomicUsize4load17h194fee622e99db01E
Ltmp505:
	movq	%rax, -384(%rbp)
	jmp	LBB80_15
LBB80_15:
	.loc	49 0 27
	movq	-384(%rbp), %rdi
	.loc	49 54 27
	movq	%rdi, %rax
	movq	%rax, -400(%rbp)
	movq	%rdi, -40(%rbp)
Ltmp506:
Ltmp545:
	.loc	49 57 20 is_stmt 1
	callq	__ZN4core3ptr9const_ptr33_$LT$impl$u20$$BP$const$u20$T$GT$7is_null17ha546985450a90861E
Ltmp507:
	movb	%al, -385(%rbp)
	jmp	LBB80_16
LBB80_16:
	.loc	49 0 20 is_stmt 0
	movb	-385(%rbp), %al
	.loc	49 57 20
	testb	$1, %al
	jne	LBB80_19
	jmp	LBB80_17
LBB80_17:
Ltmp508:
	.loc	49 0 20
	movq	-400(%rbp), %rdi
	.loc	49 62 21 is_stmt 1
	callq	__ZN4objc7runtime3Sel8from_ptr17he2c9fb08bc5a5224E
Ltmp509:
	movq	%rax, -408(%rbp)
	jmp	LBB80_18
LBB80_18:
	.loc	49 0 21 is_stmt 0
	movq	-408(%rbp), %rax
	.loc	49 62 21
	movq	%rax, -24(%rbp)
	movq	-24(%rbp), %rax
	movq	%rax, -88(%rbp)
	jmp	LBB80_23
LBB80_19:
	.loc	49 0 21
	leaq	l___unnamed_16(%rip), %rdi
	movq	%rdi, -16(%rbp)
	movq	$30, -8(%rbp)
Ltmp510:
	.loc	49 58 31 is_stmt 1
	callq	_sel_registerName
Ltmp511:
	movq	%rax, -416(%rbp)
	jmp	LBB80_20
LBB80_20:
	.loc	49 0 31 is_stmt 0
	movq	-416(%rbp), %rax
	.loc	49 58 31
	movq	%rax, -32(%rbp)
	movq	-32(%rbp), %rax
	movq	%rax, -72(%rbp)
Ltmp512:
	leaq	-72(%rbp), %rdi
Ltmp546:
	.loc	49 59 31 is_stmt 1
	callq	__ZN4objc7runtime3Sel6as_ptr17h779d391fe01f0000E
Ltmp513:
	movq	%rax, -424(%rbp)
	jmp	LBB80_21
LBB80_21:
	.loc	49 0 31 is_stmt 0
	movq	-424(%rbp), %rsi
	.loc	49 59 54
	movb	$0, -57(%rbp)
	.loc	49 59 21
	movzbl	-57(%rbp), %edx
Ltmp514:
	movq	__ZN5winit13platform_impl8platform6window13UnownedWindow18set_cursor_visible12register_sel3SEL17he34d54bf8ca41d9eE@GOTPCREL(%rip), %rdi
	callq	__ZN4core4sync6atomic11AtomicUsize5store17h2d7939fb960cd3fcE
Ltmp515:
	jmp	LBB80_22
LBB80_22:
	.loc	49 60 21 is_stmt 1
	movq	-72(%rbp), %rax
	movq	%rax, -88(%rbp)
Ltmp547:
LBB80_23:
	.loc	49 65 10
	movq	-88(%rbp), %rax
	movq	%rax, -432(%rbp)
Ltmp548:
	.loc	49 0 10 is_stmt 0
	movq	-336(%rbp), %rdi
	movq	-432(%rbp), %rax
	.loc	3 667 33 is_stmt 1
	movq	%rax, -136(%rbp)
	movq	-136(%rbp), %rax
	movq	%rax, -264(%rbp)
Ltmp516:
Ltmp549:
	.loc	3 667 43 is_stmt 0
	callq	__ZN87_$LT$winit..platform_impl..platform..util..IdRef$u20$as$u20$core..ops..deref..Deref$GT$5deref17h7c3b26e1adf56d2fE
Ltmp517:
	movq	%rax, -440(%rbp)
	jmp	LBB80_25
LBB80_25:
	.loc	3 0 43
	movq	-336(%rbp), %rdi
	movq	-440(%rbp), %rax
	.loc	3 667 33
	movq	(%rax), %rax
	movq	%rax, -456(%rbp)
	movq	-264(%rbp), %rax
	movq	%rax, -232(%rbp)
	.loc	3 668 55 is_stmt 1
	addq	$8, %rdi
Ltmp518:
	.loc	3 668 54 is_stmt 0
	callq	__ZN87_$LT$winit..platform_impl..platform..util..IdRef$u20$as$u20$core..ops..deref..Deref$GT$5deref17h7c3b26e1adf56d2fE
Ltmp519:
	movq	%rax, -448(%rbp)
	jmp	LBB80_26
LBB80_26:
	.loc	3 0 54
	movq	-456(%rbp), %rsi
	movq	-448(%rbp), %rax
	.loc	3 668 54
	movq	(%rax), %rax
	.loc	3 667 33 is_stmt 1
	movq	%rax, -224(%rbp)
	movq	-232(%rbp), %rax
	movq	-224(%rbp), %rcx
	movq	%rax, -120(%rbp)
	movq	-120(%rbp), %rax
	movq	%rax, -128(%rbp)
	movq	%rsi, -104(%rbp)
	movq	%rcx, -96(%rbp)
Ltmp550:
	.file	50 "/Users/natalie/.cargo/registry/src/github.com-1ecc6299db9ec823/objc-0.2.7/src/message" "mod.rs"
	.loc	50 178 26
	movq	-128(%rbp), %rax
	movq	%rax, -112(%rbp)
	.loc	50 178 5 is_stmt 0
	movq	-112(%rbp), %rdx
Ltmp520:
	leaq	-256(%rbp), %rdi
	callq	__ZN4objc7message8platform15send_unverified17h25eb879e0efe9f28E
Ltmp521:
	jmp	LBB80_27
LBB80_27:
	.loc	50 179 2 is_stmt 1
	jmp	LBB80_28
Ltmp551:
LBB80_28:
	.loc	3 667 33
	movq	-248(%rbp), %rdx
	movl	$1, %eax
	xorl	%ecx, %ecx
	cmpq	$0, %rdx
	cmoveq	%rcx, %rax
	cmpq	$0, %rax
	je	LBB80_11
	movq	-240(%rbp), %rax
	movq	%rax, -200(%rbp)
	movq	-256(%rbp), %rax
	movq	-248(%rbp), %rcx
	movq	%rcx, -208(%rbp)
	movq	%rax, -216(%rbp)
Ltmp523:
Ltmp552:
	.loc	3 667 33 is_stmt 0
	leaq	l___unnamed_17(%rip), %rsi
	leaq	-216(%rbp), %rdi
	callq	__ZN4core9panicking13panic_display17h81363d7cbc62b9a7E
Ltmp524:
	jmp	LBB80_32
Ltmp553:
LBB80_30:
Ltmp526:
	.loc	3 0 33
	leaq	-216(%rbp), %rdi
	.loc	3 667 33
	callq	__ZN4core3ptr48drop_in_place$LT$objc..message..MessageError$GT$17h117e28b25620062aE
Ltmp527:
	jmp	LBB80_8
Ltmp554:
LBB80_31:
Ltmp525:
	.loc	3 0 33
	movq	%rax, %rcx
	movl	%edx, %eax
	movq	%rcx, -152(%rbp)
	movl	%eax, -144(%rbp)
	jmp	LBB80_30
LBB80_32:
	ud2
LBB80_33:
Ltmp535:
	.loc	3 660 5 is_stmt 1
	callq	__ZN4core9panicking19panic_cannot_unwind17h1fbca7e1d7f56ae1E
LBB80_34:
Ltmp528:
	.loc	3 0 5 is_stmt 0
	leaq	-304(%rbp), %rdi
Ltmp555:
	.loc	3 672 9 is_stmt 1
	callq	__ZN4core3ptr106drop_in_place$LT$std..sync..mutex..MutexGuard$LT$winit..platform_impl..platform..view..CursorState$GT$$GT$17hc81025d8088cd82bE
Ltmp529:
	jmp	LBB80_3
LBB80_35:
	movb	$0, -186(%rbp)
Ltmp556:
	.loc	3 672 9 is_stmt 0
	leaq	-312(%rbp), %rdi
	callq	__ZN4core3ptr125drop_in_place$LT$alloc..sync..Arc$LT$std..sync..mutex..Mutex$LT$winit..platform_impl..platform..view..CursorState$GT$$GT$$GT$17h01fccbb94d3c7d5aE
	jmp	LBB80_2
LBB80_36:
Ltmp530:
	.loc	3 0 9
	leaq	-304(%rbp), %rdi
Ltmp557:
	.loc	3 672 9
	callq	__ZN4core3ptr106drop_in_place$LT$std..sync..mutex..MutexGuard$LT$winit..platform_impl..platform..view..CursorState$GT$$GT$17hc81025d8088cd82bE
Ltmp531:
	jmp	LBB80_35
Ltmp558:
LBB80_37:
	.loc	3 660 5 is_stmt 1
	movq	-152(%rbp), %rdi
	callq	__Unwind_Resume
LBB80_38:
	.loc	3 673 5
	testb	$1, -185(%rbp)
	jne	LBB80_40
LBB80_39:
	movb	$0, -185(%rbp)
	.loc	3 673 6 is_stmt 0
	addq	$464, %rsp
	popq	%rbp
	retq
LBB80_40:
	.loc	3 673 5
	leaq	-320(%rbp), %rdi
	callq	__ZN4core3ptr125drop_in_place$LT$alloc..sync..Arc$LT$std..sync..mutex..Mutex$LT$winit..platform_impl..platform..view..CursorState$GT$$GT$$GT$17h01fccbb94d3c7d5aE
	jmp	LBB80_39
Ltmp559:
Lfunc_end80:
	.cfi_endproc
	.section	__TEXT,__gcc_except_tab
	.p2align	2
GCC_except_table80:
Lexception6:
	.byte	255
	.byte	255
	.byte	1
	.uleb128 Lcst_end6-Lcst_begin6
Lcst_begin6:
	.uleb128 Lfunc_begin80-Lfunc_begin80
	.uleb128 Ltmp492-Lfunc_begin80
	.byte	0
	.byte	0
	.uleb128 Ltmp492-Lfunc_begin80
	.uleb128 Ltmp493-Ltmp492
	.uleb128 Ltmp532-Lfunc_begin80
	.byte	0
	.uleb128 Ltmp533-Lfunc_begin80
	.uleb128 Ltmp534-Ltmp533
	.uleb128 Ltmp535-Lfunc_begin80
	.byte	0
	.uleb128 Ltmp494-Lfunc_begin80
	.uleb128 Ltmp497-Ltmp494
	.uleb128 Ltmp532-Lfunc_begin80
	.byte	0
	.uleb128 Ltmp498-Lfunc_begin80
	.uleb128 Ltmp521-Ltmp498
	.uleb128 Ltmp522-Lfunc_begin80
	.byte	0
	.uleb128 Ltmp523-Lfunc_begin80
	.uleb128 Ltmp524-Ltmp523
	.uleb128 Ltmp525-Lfunc_begin80
	.byte	0
	.uleb128 Ltmp526-Lfunc_begin80
	.uleb128 Ltmp529-Ltmp526
	.uleb128 Ltmp535-Lfunc_begin80
	.byte	0
	.uleb128 Ltmp529-Lfunc_begin80
	.uleb128 Ltmp530-Ltmp529
	.byte	0
	.byte	0
	.uleb128 Ltmp530-Lfunc_begin80
	.uleb128 Ltmp531-Ltmp530
	.uleb128 Ltmp532-Lfunc_begin80
	.byte	0
	.uleb128 Ltmp531-Lfunc_begin80
	.uleb128 Lfunc_end80-Ltmp531
	.byte	0
	.byte	0
Lcst_end6:
	.p2align	2

	.section	__TEXT,__text,regular,pure_instructions
	.globl	__ZN5winit3dpi20LogicalSize$LT$P$GT$4cast17h0d1ec1628197bfadE
	.p2align	4, 0x90
__ZN5winit3dpi20LogicalSize$LT$P$GT$4cast17h0d1ec1628197bfadE:
Lfunc_begin81:
	.loc	2 360 0 is_stmt 1
	.cfi_startproc
	pushq	%rbp
	.cfi_def_cfa_offset 16
	.cfi_offset %rbp, -16
	movq	%rsp, %rbp
	.cfi_def_cfa_register %rbp
	subq	$32, %rsp
	movq	%rdi, -32(%rbp)
	movq	%rdi, -8(%rbp)
Ltmp560:
	.loc	2 362 20 prologue_end
	movsd	(%rdi), %xmm0
	callq	__ZN5winit3dpi5Pixel4cast17hf176d798c3e0ffb2E
	movq	-32(%rbp), %rdi
	movss	%xmm0, -20(%rbp)
	.loc	2 363 21
	movsd	8(%rdi), %xmm0
	callq	__ZN5winit3dpi5Pixel4cast17hf176d798c3e0ffb2E
	movss	-20(%rbp), %xmm1
	.loc	2 361 9
	movss	%xmm1, -16(%rbp)
	movss	%xmm0, -12(%rbp)
	.loc	2 365 6
	movss	-16(%rbp), %xmm0
	movss	-12(%rbp), %xmm1
	addq	$32, %rsp
	popq	%rbp
	retq
Ltmp561:
Lfunc_end81:
	.cfi_endproc

	.globl	__ZN5winit3dpi21PhysicalSize$LT$P$GT$10to_logical17h78b507ebbd2b4551E
	.p2align	4, 0x90
__ZN5winit3dpi21PhysicalSize$LT$P$GT$10to_logical17h78b507ebbd2b4551E:
Lfunc_begin82:
	.loc	2 431 0
	.cfi_startproc
	pushq	%rbp
	.cfi_def_cfa_offset 16
	.cfi_offset %rbp, -16
	movq	%rsp, %rbp
	.cfi_def_cfa_register %rbp
	subq	$80, %rsp
	movq	%rdi, -64(%rbp)
	movsd	%xmm0, -56(%rbp)
	movq	%rdi, -32(%rbp)
	movsd	%xmm0, -24(%rbp)
Ltmp562:
	.loc	2 432 17 prologue_end
	callq	__ZN5winit3dpi21validate_scale_factor17h2064c17bb9c58438E
	.loc	2 432 9 is_stmt 0
	xorb	$-1, %al
	testb	$1, %al
	jne	LBB82_2
	.loc	2 0 9
	movq	-64(%rbp), %rax
	.loc	2 433 21 is_stmt 1
	movl	(%rax), %edi
	callq	__ZN50_$LT$T$u20$as$u20$core..convert..Into$LT$U$GT$$GT$4into17h396a634bd9ad48c4E
	movq	-64(%rbp), %rax
	movsd	-56(%rbp), %xmm1
	divsd	%xmm1, %xmm0
	movsd	%xmm0, -72(%rbp)
	movsd	%xmm0, -16(%rbp)
Ltmp563:
	.loc	2 434 22
	movl	4(%rax), %edi
	callq	__ZN50_$LT$T$u20$as$u20$core..convert..Into$LT$U$GT$$GT$4into17h396a634bd9ad48c4E
	movsd	-56(%rbp), %xmm2
	movaps	%xmm0, %xmm1
	movsd	-72(%rbp), %xmm0
	divsd	%xmm2, %xmm1
	movsd	%xmm1, -8(%rbp)
Ltmp564:
	.loc	2 435 9
	callq	__ZN5winit3dpi20LogicalSize$LT$P$GT$3new17h829b5f18b663385cE
	movsd	%xmm1, -40(%rbp)
	movsd	%xmm0, -48(%rbp)
	leaq	-48(%rbp), %rdi
	callq	__ZN5winit3dpi20LogicalSize$LT$P$GT$4cast17h0d1ec1628197bfadE
Ltmp565:
	.loc	2 436 6
	addq	$80, %rsp
	popq	%rbp
	retq
LBB82_2:
	.loc	2 432 9
	leaq	l___unnamed_18(%rip), %rdi
	leaq	l___unnamed_19(%rip), %rdx
	movl	$53, %esi
	callq	__ZN4core9panicking5panic17hc1bc45270cf64b03E
Ltmp566:
Lfunc_end82:
	.cfi_endproc

	.p2align	4, 0x90
__ZN5winit3dpi21validate_scale_factor17h2064c17bb9c58438E:
Lfunc_begin83:
	.loc	2 161 0
	.cfi_startproc
	pushq	%rbp
	.cfi_def_cfa_offset 16
	.cfi_offset %rbp, -16
	movq	%rsp, %rbp
	.cfi_def_cfa_register %rbp
	subq	$32, %rsp
	movsd	%xmm0, -24(%rbp)
	movsd	%xmm0, -8(%rbp)
Ltmp567:
	.loc	2 162 5 prologue_end
	callq	__ZN4core3f6421_$LT$impl$u20$f64$GT$16is_sign_positive17hca7ed2514d19ec1aE
	testb	$1, %al
	jne	LBB83_2
	movb	$0, -9(%rbp)
	jmp	LBB83_3
LBB83_2:
	.loc	2 0 5 is_stmt 0
	movsd	-24(%rbp), %xmm0
	.loc	2 162 40
	callq	__ZN4core3f6421_$LT$impl$u20$f64$GT$9is_normal17h4babeed1cfb4e90bE
	.loc	2 162 5
	andb	$1, %al
	movb	%al, -9(%rbp)
LBB83_3:
	.loc	2 163 2 is_stmt 1
	movb	-9(%rbp), %al
	andb	$1, %al
	movzbl	%al, %eax
	addq	$32, %rsp
	popq	%rbp
	retq
Ltmp568:
Lfunc_end83:
	.cfi_endproc

	.globl	__ZN5winit3dpi24LogicalPosition$LT$P$GT$4cast17h9564ac9a86d5ab49E
	.p2align	4, 0x90
__ZN5winit3dpi24LogicalPosition$LT$P$GT$4cast17h9564ac9a86d5ab49E:
Lfunc_begin84:
	.loc	2 202 0
	.cfi_startproc
	pushq	%rbp
	.cfi_def_cfa_offset 16
	.cfi_offset %rbp, -16
	movq	%rsp, %rbp
	.cfi_def_cfa_register %rbp
	subq	$48, %rsp
	movq	%rdi, -40(%rbp)
	movq	%rdi, -8(%rbp)
Ltmp569:
	.loc	2 204 16 prologue_end
	movss	(%rdi), %xmm0
	callq	__ZN5winit3dpi5Pixel4cast17hb79f40ffff458f1bE
	movq	-40(%rbp), %rdi
	movsd	%xmm0, -32(%rbp)
	.loc	2 205 16
	movss	4(%rdi), %xmm0
	callq	__ZN5winit3dpi5Pixel4cast17hb79f40ffff458f1bE
	movsd	-32(%rbp), %xmm1
	.loc	2 203 9
	movsd	%xmm1, -24(%rbp)
	movsd	%xmm0, -16(%rbp)
	.loc	2 207 6
	movsd	-24(%rbp), %xmm0
	movsd	-16(%rbp), %xmm1
	addq	$48, %rsp
	popq	%rbp
	retq
Ltmp570:
Lfunc_end84:
	.cfi_endproc

	.globl	__ZN5winit3dpi5Pixel4cast17hb79f40ffff458f1bE
	.p2align	4, 0x90
__ZN5winit3dpi5Pixel4cast17hb79f40ffff458f1bE:
Lfunc_begin85:
	.loc	2 109 0
	.cfi_startproc
	pushq	%rbp
	.cfi_def_cfa_offset 16
	.cfi_offset %rbp, -16
	movq	%rsp, %rbp
	.cfi_def_cfa_register %rbp
	subq	$16, %rsp
	movss	%xmm0, -4(%rbp)
Ltmp571:
	.loc	2 110 21 prologue_end
	callq	__ZN50_$LT$T$u20$as$u20$core..convert..Into$LT$U$GT$$GT$4into17h97d94a82a2454853E
	.loc	2 110 9 is_stmt 0
	callq	__ZN41_$LT$f64$u20$as$u20$winit..dpi..Pixel$GT$8from_f6417h61ed53f8385533b4E
	.loc	2 111 6 is_stmt 1
	addq	$16, %rsp
	popq	%rbp
	retq
Ltmp572:
Lfunc_end85:
	.cfi_endproc

	.globl	__ZN5winit3dpi5Pixel4cast17hf176d798c3e0ffb2E
	.p2align	4, 0x90
__ZN5winit3dpi5Pixel4cast17hf176d798c3e0ffb2E:
Lfunc_begin86:
	.loc	2 109 0
	.cfi_startproc
	pushq	%rbp
	.cfi_def_cfa_offset 16
	.cfi_offset %rbp, -16
	movq	%rsp, %rbp
	.cfi_def_cfa_register %rbp
	subq	$16, %rsp
	movsd	%xmm0, -8(%rbp)
Ltmp573:
	.loc	2 110 21 prologue_end
	callq	__ZN50_$LT$T$u20$as$u20$core..convert..Into$LT$U$GT$$GT$4into17hb69b30ddbec5e631E
	.loc	2 110 9 is_stmt 0
	callq	__ZN41_$LT$f32$u20$as$u20$winit..dpi..Pixel$GT$8from_f6417h5b060a75387b09b6E
	.loc	2 111 6 is_stmt 1
	addq	$16, %rsp
	popq	%rbp
	retq
Ltmp574:
Lfunc_end86:
	.cfi_endproc

	.globl	__ZN5winit6window13WindowBuilder13with_position17h2c9e8c6aa348822fE
	.p2align	4, 0x90
__ZN5winit6window13WindowBuilder13with_position17h2c9e8c6aa348822fE:
Lfunc_begin87:
	.file	51 "/Users/natalie/.cargo/registry/src/github.com-1ecc6299db9ec823/winit-0.27.5/src" "window.rs"
	.loc	51 225 0
	.cfi_startproc
	.cfi_personality 155, _rust_eh_personality
	.cfi_lsda 16, Lexception7
	pushq	%rbp
	.cfi_def_cfa_offset 16
	.cfi_offset %rbp, -16
	movq	%rsp, %rbp
	.cfi_def_cfa_register %rbp
	subq	$112, %rsp
	movq	%rsi, -104(%rbp)
Ltmp581:
	movq	%rdi, -96(%rbp)
	movq	%rdi, -88(%rbp)
	movsd	%xmm0, -32(%rbp)
	movsd	%xmm1, -24(%rbp)
Ltmp575:
	leaq	-56(%rbp), %rdi
Ltmp582:
	.loc	51 226 37 prologue_end
	callq	__ZN50_$LT$T$u20$as$u20$core..convert..Into$LT$U$GT$$GT$4into17h9394e93cc62ae6b2E
Ltmp583:
Ltmp576:
	jmp	LBB87_3
Ltmp584:
LBB87_1:
Ltmp578:
	.loc	51 0 37 is_stmt 0
	movq	-104(%rbp), %rdi
	.loc	51 228 5 is_stmt 1
	callq	__ZN4core3ptr49drop_in_place$LT$winit..window..WindowBuilder$GT$17hb1e4cb01297a8178E
Ltmp579:
	jmp	LBB87_5
Ltmp585:
LBB87_2:
Ltmp577:
	.loc	51 0 5 is_stmt 0
	movq	%rax, %rcx
	movl	%edx, %eax
	movq	%rcx, -16(%rbp)
	movl	%eax, -8(%rbp)
	jmp	LBB87_1
Ltmp586:
LBB87_3:
	movq	-104(%rbp), %rsi
	movq	-96(%rbp), %rdi
	.loc	51 226 32 is_stmt 1
	movq	-56(%rbp), %rax
	movq	%rax, -80(%rbp)
	movq	-48(%rbp), %rax
	movq	%rax, -72(%rbp)
	movq	-40(%rbp), %rax
	movq	%rax, -64(%rbp)
	.loc	51 226 9 is_stmt 0
	movq	-80(%rbp), %rax
	movq	%rax, 128(%rsi)
	movq	-72(%rbp), %rax
	movq	%rax, 136(%rsi)
	movq	-64(%rbp), %rax
	movq	%rax, 144(%rsi)
	.loc	51 227 9 is_stmt 1
	movl	$200, %edx
	callq	_memcpy
	movq	-88(%rbp), %rax
	.loc	51 228 6
	addq	$112, %rsp
	popq	%rbp
	retq
Ltmp587:
LBB87_4:
Ltmp580:
	.loc	51 225 5
	callq	__ZN4core9panicking19panic_cannot_unwind17h1fbca7e1d7f56ae1E
Ltmp588:
LBB87_5:
	movq	-16(%rbp), %rdi
	callq	__Unwind_Resume
Ltmp589:
Lfunc_end87:
	.cfi_endproc
	.section	__TEXT,__gcc_except_tab
	.p2align	2
GCC_except_table87:
Lexception7:
	.byte	255
	.byte	255
	.byte	1
	.uleb128 Lcst_end7-Lcst_begin7
Lcst_begin7:
	.uleb128 Ltmp575-Lfunc_begin87
	.uleb128 Ltmp576-Ltmp575
	.uleb128 Ltmp577-Lfunc_begin87
	.byte	0
	.uleb128 Ltmp578-Lfunc_begin87
	.uleb128 Ltmp579-Ltmp578
	.uleb128 Ltmp580-Lfunc_begin87
	.byte	0
	.uleb128 Ltmp579-Lfunc_begin87
	.uleb128 Lfunc_end87-Ltmp579
	.byte	0
	.byte	0
Lcst_end7:
	.p2align	2

	.section	__TEXT,__text,regular,pure_instructions
	.p2align	4, 0x90
__ZN5winit6window13WindowBuilder15with_fullscreen17h57ee8bcd1678e9bdE:
Lfunc_begin88:
	.loc	51 258 0
	.cfi_startproc
	.cfi_personality 155, _rust_eh_personality
	.cfi_lsda 16, Lexception8
	pushq	%rbp
	.cfi_def_cfa_offset 16
	.cfi_offset %rbp, -16
	movq	%rsp, %rbp
	.cfi_def_cfa_register %rbp
	subq	$80, %rsp
	movq	%rsi, -80(%rbp)
Ltmp596:
	movq	%rdi, %rax
	movq	-80(%rbp), %rdi
	movq	%rax, -72(%rbp)
	movq	%rax, -64(%rbp)
Ltmp597:
	.loc	51 259 34 prologue_end
	movq	32(%rdx), %rax
	movq	%rax, -24(%rbp)
	movq	24(%rdx), %rax
	movq	%rax, -32(%rbp)
	movq	16(%rdx), %rax
	movq	%rax, -40(%rbp)
	movq	(%rdx), %rax
	movq	8(%rdx), %rcx
	movq	%rcx, -48(%rbp)
	movq	%rax, -56(%rbp)
	.loc	51 259 9 is_stmt 0
	addq	$152, %rdi
Ltmp590:
	callq	__ZN4core3ptr74drop_in_place$LT$core..option..Option$LT$winit..window..Fullscreen$GT$$GT$17h56e313eddcbdcef3E
Ltmp598:
Ltmp591:
	jmp	LBB88_3
Ltmp599:
LBB88_1:
	.loc	51 0 9
	movq	-80(%rbp), %rdi
	.loc	51 259 9
	movq	-24(%rbp), %rax
	movq	%rax, 184(%rdi)
	movq	-32(%rbp), %rax
	movq	%rax, 176(%rdi)
	movq	-40(%rbp), %rax
	movq	%rax, 168(%rdi)
	movq	-56(%rbp), %rax
	movq	-48(%rbp), %rcx
	movq	%rcx, 160(%rdi)
	movq	%rax, 152(%rdi)
Ltmp593:
	.loc	51 261 5 is_stmt 1
	callq	__ZN4core3ptr49drop_in_place$LT$winit..window..WindowBuilder$GT$17hb1e4cb01297a8178E
Ltmp594:
	jmp	LBB88_5
Ltmp600:
LBB88_2:
Ltmp592:
	.loc	51 0 5 is_stmt 0
	movq	%rax, %rcx
	movl	%edx, %eax
	movq	%rcx, -16(%rbp)
	movl	%eax, -8(%rbp)
	jmp	LBB88_1
Ltmp601:
LBB88_3:
	movq	-80(%rbp), %rdi
	.loc	51 259 9 is_stmt 1
	addq	$32, %rdi
	addq	$120, %rdi
	leaq	-56(%rbp), %rsi
	movl	$40, %edx
	callq	_memcpy
	movq	-72(%rbp), %rdi
	movq	-80(%rbp), %rsi
	.loc	51 260 9
	movl	$200, %edx
	callq	_memcpy
	movq	-64(%rbp), %rax
	.loc	51 261 6
	addq	$80, %rsp
	popq	%rbp
	retq
Ltmp602:
LBB88_4:
Ltmp595:
	.loc	51 258 5
	callq	__ZN4core9panicking19panic_cannot_unwind17h1fbca7e1d7f56ae1E
Ltmp603:
LBB88_5:
	movq	-16(%rbp), %rdi
	callq	__Unwind_Resume
Ltmp604:
Lfunc_end88:
	.cfi_endproc
	.section	__TEXT,__gcc_except_tab
	.p2align	2
GCC_except_table88:
Lexception8:
	.byte	255
	.byte	255
	.byte	1
	.uleb128 Lcst_end8-Lcst_begin8
Lcst_begin8:
	.uleb128 Ltmp590-Lfunc_begin88
	.uleb128 Ltmp591-Ltmp590
	.uleb128 Ltmp592-Lfunc_begin88
	.byte	0
	.uleb128 Ltmp593-Lfunc_begin88
	.uleb128 Ltmp594-Ltmp593
	.uleb128 Ltmp595-Lfunc_begin88
	.byte	0
	.uleb128 Ltmp594-Lfunc_begin88
	.uleb128 Lfunc_end88-Ltmp594
	.byte	0
	.byte	0
Lcst_end8:
	.p2align	2

	.section	__TEXT,__text,regular,pure_instructions
	.globl	__ZN5winit6window13WindowBuilder15with_inner_size17ha5031cbd4f4abeffE
	.p2align	4, 0x90
__ZN5winit6window13WindowBuilder15with_inner_size17ha5031cbd4f4abeffE:
Lfunc_begin89:
	.loc	51 173 0
	.cfi_startproc
	.cfi_personality 155, _rust_eh_personality
	.cfi_lsda 16, Lexception9
	pushq	%rbp
	.cfi_def_cfa_offset 16
	.cfi_offset %rbp, -16
	movq	%rsp, %rbp
	.cfi_def_cfa_register %rbp
	subq	$112, %rsp
	movq	%rsi, -104(%rbp)
Ltmp611:
	movq	%rdi, -96(%rbp)
	movq	%rdi, -88(%rbp)
	movsd	%xmm0, -32(%rbp)
	movsd	%xmm1, -24(%rbp)
Ltmp605:
	leaq	-56(%rbp), %rdi
Ltmp612:
	.loc	51 174 39 prologue_end
	callq	__ZN50_$LT$T$u20$as$u20$core..convert..Into$LT$U$GT$$GT$4into17h2b5165bfa8a7255aE
Ltmp613:
Ltmp606:
	jmp	LBB89_3
Ltmp614:
LBB89_1:
Ltmp608:
	.loc	51 0 39 is_stmt 0
	movq	-104(%rbp), %rdi
	.loc	51 176 5 is_stmt 1
	callq	__ZN4core3ptr49drop_in_place$LT$winit..window..WindowBuilder$GT$17hb1e4cb01297a8178E
Ltmp609:
	jmp	LBB89_5
Ltmp615:
LBB89_2:
Ltmp607:
	.loc	51 0 5 is_stmt 0
	movq	%rax, %rcx
	movl	%edx, %eax
	movq	%rcx, -16(%rbp)
	movl	%eax, -8(%rbp)
	jmp	LBB89_1
Ltmp616:
LBB89_3:
	movq	-104(%rbp), %rsi
	movq	-96(%rbp), %rdi
	.loc	51 174 34 is_stmt 1
	movq	-56(%rbp), %rax
	movq	%rax, -80(%rbp)
	movq	-48(%rbp), %rax
	movq	%rax, -72(%rbp)
	movq	-40(%rbp), %rax
	movq	%rax, -64(%rbp)
	.loc	51 174 9 is_stmt 0
	movq	-80(%rbp), %rax
	movq	%rax, 56(%rsi)
	movq	-72(%rbp), %rax
	movq	%rax, 64(%rsi)
	movq	-64(%rbp), %rax
	movq	%rax, 72(%rsi)
	.loc	51 175 9 is_stmt 1
	movl	$200, %edx
	callq	_memcpy
	movq	-88(%rbp), %rax
	.loc	51 176 6
	addq	$112, %rsp
	popq	%rbp
	retq
Ltmp617:
LBB89_4:
Ltmp610:
	.loc	51 173 5
	callq	__ZN4core9panicking19panic_cannot_unwind17h1fbca7e1d7f56ae1E
Ltmp618:
LBB89_5:
	movq	-16(%rbp), %rdi
	callq	__Unwind_Resume
Ltmp619:
Lfunc_end89:
	.cfi_endproc
	.section	__TEXT,__gcc_except_tab
	.p2align	2
GCC_except_table89:
Lexception9:
	.byte	255
	.byte	255
	.byte	1
	.uleb128 Lcst_end9-Lcst_begin9
Lcst_begin9:
	.uleb128 Ltmp605-Lfunc_begin89
	.uleb128 Ltmp606-Ltmp605
	.uleb128 Ltmp607-Lfunc_begin89
	.byte	0
	.uleb128 Ltmp608-Lfunc_begin89
	.uleb128 Ltmp609-Ltmp608
	.uleb128 Ltmp610-Lfunc_begin89
	.byte	0
	.uleb128 Ltmp609-Lfunc_begin89
	.uleb128 Lfunc_end89-Ltmp609
	.byte	0
	.byte	0
Lcst_end9:
	.p2align	2

	.section	__TEXT,__text,regular,pure_instructions
	.p2align	4, 0x90
__ZN5winit6window6Window10fullscreen17h48e586504e104dc0E:
Lfunc_begin90:
	.loc	51 741 0
	.cfi_startproc
	pushq	%rbp
	.cfi_def_cfa_offset 16
	.cfi_offset %rbp, -16
	movq	%rsp, %rbp
	.cfi_def_cfa_register %rbp
	subq	$32, %rsp
	movq	%rsi, -32(%rbp)
	movq	%rdi, %rax
	movq	-32(%rbp), %rdi
	movq	%rax, -24(%rbp)
	movq	%rax, -16(%rbp)
	movq	%rdi, -8(%rbp)
Ltmp620:
	.loc	51 742 9 prologue_end
	callq	__ZN82_$LT$winit..platform_impl..platform..Window$u20$as$u20$core..ops..deref..Deref$GT$5deref17h89d5c02188de7eedE
	movq	-24(%rbp), %rdi
	movq	%rax, %rsi
	callq	__ZN5winit13platform_impl8platform6window13UnownedWindow10fullscreen17h8f6c217cb278b44fE
	movq	-16(%rbp), %rax
	.loc	51 743 6
	addq	$32, %rsp
	popq	%rbp
	retq
Ltmp621:
Lfunc_end90:
	.cfi_endproc

	.p2align	4, 0x90
__ZN5winit6window6Window10inner_size17h452ccd403df0dfe5E:
Lfunc_begin91:
	.loc	51 515 0
	.cfi_startproc
	pushq	%rbp
	.cfi_def_cfa_offset 16
	.cfi_offset %rbp, -16
	movq	%rsp, %rbp
	.cfi_def_cfa_register %rbp
	subq	$16, %rsp
	movq	%rdi, -8(%rbp)
Ltmp622:
	.loc	51 516 9 prologue_end
	callq	__ZN82_$LT$winit..platform_impl..platform..Window$u20$as$u20$core..ops..deref..Deref$GT$5deref17h89d5c02188de7eedE
	movq	%rax, %rdi
	callq	__ZN5winit13platform_impl8platform6window13UnownedWindow10inner_size17h1688c2462bc45be3E
	.loc	51 517 6
	addq	$16, %rsp
	popq	%rbp
	retq
Ltmp623:
Lfunc_end91:
	.cfi_endproc

	.p2align	4, 0x90
__ZN5winit6window6Window12scale_factor17h94d27855555b4631E:
Lfunc_begin92:
	.loc	51 403 0
	.cfi_startproc
	pushq	%rbp
	.cfi_def_cfa_offset 16
	.cfi_offset %rbp, -16
	movq	%rsp, %rbp
	.cfi_def_cfa_register %rbp
	subq	$16, %rsp
	movq	%rdi, -8(%rbp)
Ltmp624:
	.loc	51 404 9 prologue_end
	callq	__ZN82_$LT$winit..platform_impl..platform..Window$u20$as$u20$core..ops..deref..Deref$GT$5deref17h89d5c02188de7eedE
	movq	%rax, %rdi
	callq	__ZN5winit13platform_impl8platform6window13UnownedWindow12scale_factor17h913f24c934978f01E
	.loc	51 405 6
	addq	$16, %rsp
	popq	%rbp
	retq
Ltmp625:
Lfunc_end92:
	.cfi_endproc

	.p2align	4, 0x90
__ZN5winit6window6Window14outer_position17h0c6b5138e395ce81E:
Lfunc_begin93:
	.loc	51 470 0
	.cfi_startproc
	pushq	%rbp
	.cfi_def_cfa_offset 16
	.cfi_offset %rbp, -16
	movq	%rsp, %rbp
	.cfi_def_cfa_register %rbp
	subq	$32, %rsp
	movq	%rsi, -32(%rbp)
	movq	%rdi, %rax
	movq	-32(%rbp), %rdi
	movq	%rax, -24(%rbp)
	movq	%rax, -16(%rbp)
	movq	%rdi, -8(%rbp)
Ltmp626:
	.loc	51 471 9 prologue_end
	callq	__ZN82_$LT$winit..platform_impl..platform..Window$u20$as$u20$core..ops..deref..Deref$GT$5deref17h89d5c02188de7eedE
	movq	-24(%rbp), %rdi
	movq	%rax, %rsi
	callq	__ZN5winit13platform_impl8platform6window13UnownedWindow14outer_position17h96497762ba1fd49cE
	movq	-16(%rbp), %rax
	.loc	51 472 6
	addq	$32, %rsp
	popq	%rbp
	retq
Ltmp627:
Lfunc_end93:
	.cfi_endproc

	.p2align	4, 0x90
__ZN5winit6window6Window15set_cursor_icon17he825a007316d5a67E:
Lfunc_begin94:
	.loc	51 897 0
	.cfi_startproc
	pushq	%rbp
	.cfi_def_cfa_offset 16
	.cfi_offset %rbp, -16
	movq	%rsp, %rbp
	.cfi_def_cfa_register %rbp
	subq	$32, %rsp
	movb	%sil, %al
	movb	%al, -17(%rbp)
	movq	%rdi, -16(%rbp)
	movb	%al, -1(%rbp)
Ltmp628:
	.loc	51 898 9 prologue_end
	callq	__ZN82_$LT$winit..platform_impl..platform..Window$u20$as$u20$core..ops..deref..Deref$GT$5deref17h89d5c02188de7eedE
	movq	%rax, %rdi
	movb	-17(%rbp), %al
	movzbl	%al, %esi
	callq	__ZN5winit13platform_impl8platform6window13UnownedWindow15set_cursor_icon17h9aba33529aa816fdE
	.loc	51 899 6
	addq	$32, %rsp
	popq	%rbp
	retq
Ltmp629:
Lfunc_end94:
	.cfi_endproc

	.globl	__ZN5winit6window6Window16set_ime_position17h550d80b1f646148bE
	.p2align	4, 0x90
__ZN5winit6window6Window16set_ime_position17h550d80b1f646148bE:
Lfunc_begin95:
	.loc	51 824 0
	.cfi_startproc
	.cfi_personality 155, _rust_eh_personality
	.cfi_lsda 16, Lexception10
	pushq	%rbp
	.cfi_def_cfa_offset 16
	.cfi_offset %rbp, -16
	movq	%rsp, %rbp
	.cfi_def_cfa_register %rbp
	subq	$80, %rsp
	movss	%xmm0, -80(%rbp)
	movss	%xmm1, -76(%rbp)
	movq	%rdi, -32(%rbp)
	movss	%xmm0, -24(%rbp)
	movss	%xmm1, -20(%rbp)
Ltmp637:
	.loc	51 825 9 prologue_end
	movb	$0, -33(%rbp)
	movb	$1, -33(%rbp)
Ltmp630:
	callq	__ZN82_$LT$winit..platform_impl..platform..Window$u20$as$u20$core..ops..deref..Deref$GT$5deref17h89d5c02188de7eedE
Ltmp631:
	movq	%rax, -72(%rbp)
	jmp	LBB95_3
LBB95_1:
	.loc	51 826 5
	testb	$1, -33(%rbp)
	jne	LBB95_7
	jmp	LBB95_6
LBB95_2:
Ltmp636:
	.loc	51 0 5 is_stmt 0
	movq	%rax, %rcx
	movl	%edx, %eax
	movq	%rcx, -16(%rbp)
	movl	%eax, -8(%rbp)
	jmp	LBB95_1
LBB95_3:
	movss	-76(%rbp), %xmm1
	movss	-80(%rbp), %xmm0
	.loc	51 825 38 is_stmt 1
	movb	$0, -33(%rbp)
Ltmp632:
	leaq	-64(%rbp), %rdi
	callq	__ZN50_$LT$T$u20$as$u20$core..convert..Into$LT$U$GT$$GT$4into17h6ce123626bb776a6E
Ltmp633:
	jmp	LBB95_4
LBB95_4:
Ltmp634:
	.loc	51 0 38 is_stmt 0
	movq	-72(%rbp), %rdi
	leaq	-64(%rbp), %rsi
	.loc	51 825 9
	callq	__ZN5winit13platform_impl8platform6window13UnownedWindow16set_ime_position17h2c99f3bae9064429E
Ltmp635:
	jmp	LBB95_5
LBB95_5:
	.loc	51 826 6 is_stmt 1
	addq	$80, %rsp
	popq	%rbp
	retq
LBB95_6:
	.loc	51 824 5
	movq	-16(%rbp), %rdi
	callq	__Unwind_Resume
LBB95_7:
	.loc	51 826 5
	jmp	LBB95_6
Ltmp638:
Lfunc_end95:
	.cfi_endproc
	.section	__TEXT,__gcc_except_tab
	.p2align	2
GCC_except_table95:
Lexception10:
	.byte	255
	.byte	255
	.byte	1
	.uleb128 Lcst_end10-Lcst_begin10
Lcst_begin10:
	.uleb128 Ltmp630-Lfunc_begin95
	.uleb128 Ltmp635-Ltmp630
	.uleb128 Ltmp636-Lfunc_begin95
	.byte	0
	.uleb128 Ltmp635-Lfunc_begin95
	.uleb128 Lfunc_end95-Ltmp635
	.byte	0
	.byte	0
Lcst_end10:
	.p2align	2

	.section	__TEXT,__text,regular,pure_instructions
	.p2align	4, 0x90
__ZN5winit6window6Window18set_cursor_visible17h561c2f7a44e00257E:
Lfunc_begin96:
	.loc	51 957 0
	.cfi_startproc
	pushq	%rbp
	.cfi_def_cfa_offset 16
	.cfi_offset %rbp, -16
	movq	%rsp, %rbp
	.cfi_def_cfa_register %rbp
	subq	$32, %rsp
	movb	%sil, %al
	movb	%al, -17(%rbp)
	movq	%rdi, -16(%rbp)
	andb	$1, %al
	movb	%al, -1(%rbp)
Ltmp639:
	.loc	51 958 9 prologue_end
	callq	__ZN82_$LT$winit..platform_impl..platform..Window$u20$as$u20$core..ops..deref..Deref$GT$5deref17h89d5c02188de7eedE
	movq	%rax, %rdi
	movb	-17(%rbp), %al
	movzbl	%al, %esi
	andl	$1, %esi
	callq	__ZN5winit13platform_impl8platform6window13UnownedWindow18set_cursor_visible17h257e38aca7229ac8E
	.loc	51 959 6
	addq	$32, %rsp
	popq	%rbp
	retq
Ltmp640:
Lfunc_end96:
	.cfi_endproc

	.p2align	4, 0x90
__ZN64_$LT$alloc..string..String$u20$as$u20$core..default..Default$GT$7default17h6dfd034604773b13E:
Lfunc_begin97:
	.loc	9 2266 0
	.cfi_startproc
	pushq	%rbp
	.cfi_def_cfa_offset 16
	.cfi_offset %rbp, -16
	movq	%rsp, %rbp
	.cfi_def_cfa_register %rbp
	subq	$24, %rsp
	movq	%rdi, %rax
Ltmp641:
	.loc	43 425 20 prologue_end
	movq	L___unnamed_12(%rip), %rdx
	movq	L___unnamed_12+8(%rip), %rcx
	.loc	43 425 9 is_stmt 0
	movq	%rdx, -24(%rbp)
	movq	%rcx, -16(%rbp)
	movq	$0, -8(%rbp)
Ltmp642:
	.loc	9 456 9 is_stmt 1
	movq	-24(%rbp), %rcx
	movq	%rcx, (%rdi)
	movq	-16(%rbp), %rcx
	movq	%rcx, 8(%rdi)
	movq	-8(%rbp), %rcx
	movq	%rcx, 16(%rdi)
Ltmp643:
	.loc	9 2268 6
	addq	$24, %rsp
	popq	%rbp
	retq
Ltmp644:
Lfunc_end97:
	.cfi_endproc

	.p2align	4, 0x90
__ZN65_$LT$alloc..string..String$u20$as$u20$core..ops..deref..Deref$GT$5deref17ha51e6eb00887d95aE:
Lfunc_begin98:
	.loc	9 2459 0
	.cfi_startproc
	pushq	%rbp
	.cfi_def_cfa_offset 16
	.cfi_offset %rbp, -16
	movq	%rsp, %rbp
	.cfi_def_cfa_register %rbp
	subq	$48, %rsp
	movq	%rdi, -40(%rbp)
Ltmp645:
	.loc	9 2460 43 prologue_end
	callq	__ZN72_$LT$alloc..vec..Vec$LT$T$C$A$GT$$u20$as$u20$core..ops..deref..Deref$GT$5deref17ha195b773218a2aacE
	movq	%rax, -32(%rbp)
	movq	%rdx, -24(%rbp)
Ltmp646:
	.file	52 "/rustc/2c8cc343237b8f7d5a3c3703e3a87f2eb2c54a74/library/core/src/str" "converts.rs"
	.loc	52 173 14
	movq	%rax, -16(%rbp)
	movq	%rdx, -8(%rbp)
	movq	-16(%rbp), %rax
	movq	-8(%rbp), %rdx
Ltmp647:
	.loc	9 2461 6
	addq	$48, %rsp
	popq	%rbp
	retq
Ltmp648:
Lfunc_end98:
	.cfi_endproc

	.p2align	4, 0x90
__ZN67_$LT$winit..event..ElementState$u20$as$u20$core..cmp..PartialEq$GT$2eq17hcdb85d1741b44fffE:
Lfunc_begin99:
	.loc	39 946 0
	.cfi_startproc
	pushq	%rbp
	.cfi_def_cfa_offset 16
	.cfi_offset %rbp, -16
	movq	%rsp, %rbp
	.cfi_def_cfa_register %rbp
	subq	$32, %rsp
	movq	%rdi, -32(%rbp)
	movq	%rsi, -24(%rbp)
Ltmp649:
	.loc	39 946 23 prologue_end
	movb	(%rdi), %al
	andb	$1, %al
	movzbl	%al, %eax
	movq	%rax, -16(%rbp)
Ltmp650:
	.loc	39 946 23 is_stmt 0
	movb	(%rsi), %cl
	andb	$1, %cl
	movzbl	%cl, %ecx
	movq	%rcx, -8(%rbp)
Ltmp651:
	.loc	39 946 23
	cmpq	%rcx, %rax
	sete	%al
Ltmp652:
	.loc	39 946 32
	andb	$1, %al
	movzbl	%al, %eax
	addq	$32, %rsp
	popq	%rbp
	retq
Ltmp653:
Lfunc_end99:
	.cfi_endproc

	.p2align	4, 0x90
__ZN68_$LT$ahash..fallback_hash..AHasher$u20$as$u20$core..hash..Hasher$GT$6finish17h133d0e89fe2470bbE:
Lfunc_begin100:
	.loc	41 213 0 is_stmt 1
	.cfi_startproc
	pushq	%rbp
	.cfi_def_cfa_offset 16
	.cfi_offset %rbp, -16
	movq	%rsp, %rbp
	.cfi_def_cfa_register %rbp
	subq	$104, %rsp
	movq	%rdi, -104(%rbp)
Ltmp654:
	.loc	41 214 20 prologue_end
	movl	16(%rdi), %ecx
	.loc	41 214 19 is_stmt 0
	andl	$63, %ecx
	movl	%ecx, -92(%rbp)
Ltmp655:
	.loc	41 215 25 is_stmt 1
	movq	16(%rdi), %rax
	.loc	41 215 38 is_stmt 0
	movq	24(%rdi), %rdx
	movq	%rax, -64(%rbp)
	movq	%rdx, -56(%rbp)
	movq	%rax, -32(%rbp)
	movq	$0, -24(%rbp)
	movq	%rdx, -16(%rbp)
	movq	$0, -8(%rbp)
Ltmp656:
	.file	53 "/rustc/2c8cc343237b8f7d5a3c3703e3a87f2eb2c54a74/library/core/src/num" "uint_macros.rs"
	.loc	53 1226 13 is_stmt 1
	mulq	%rdx
Ltmp657:
	.file	54 "/Users/natalie/.cargo/registry/src/github.com-1ecc6299db9ec823/ahash-0.8.0/src" "operations.rs"
	.loc	54 15 18
	movq	%rdx, -40(%rbp)
	movq	%rax, -48(%rbp)
Ltmp658:
	.loc	54 16 5
	xorq	%rdx, %rax
	movq	%rax, -88(%rbp)
	movl	%ecx, -76(%rbp)
Ltmp659:
	.loc	53 217 43
	movl	%ecx, %ecx
	.loc	53 217 13 is_stmt 0
	rolq	%cl, %rax
	movq	%rax, -72(%rbp)
	movq	-72(%rbp), %rax
Ltmp660:
	.loc	41 216 6 is_stmt 1
	addq	$104, %rsp
	popq	%rbp
	retq
Ltmp661:
Lfunc_end100:
	.cfi_endproc

	.p2align	4, 0x90
__ZN69_$LT$winit..event..VirtualKeyCode$u20$as$u20$core..cmp..PartialEq$GT$2eq17h17d208dd7b028f7eE:
Lfunc_begin101:
	.loc	39 991 0
	.cfi_startproc
	pushq	%rbp
	.cfi_def_cfa_offset 16
	.cfi_offset %rbp, -16
	movq	%rsp, %rbp
	.cfi_def_cfa_register %rbp
	subq	$24, %rsp
	movq	%rdi, -24(%rbp)
	movq	%rsi, -16(%rbp)
Ltmp662:
	.loc	39 991 40 prologue_end
	movl	(%rdi), %eax
	movl	%eax, -8(%rbp)
Ltmp663:
	.loc	39 991 40 is_stmt 0
	movl	(%rsi), %ecx
	movl	%ecx, -4(%rbp)
Ltmp664:
	.loc	39 991 40
	cmpl	%ecx, %eax
	sete	%al
Ltmp665:
	.loc	39 991 49
	andb	$1, %al
	movzbl	%al, %eax
	addq	$24, %rsp
	popq	%rbp
	retq
Ltmp666:
Lfunc_end101:
	.cfi_endproc

	.globl	__ZN6epaint4util4hash17he95a0d7953b84d82E
	.p2align	4, 0x90
__ZN6epaint4util4hash17he95a0d7953b84d82E:
Lfunc_begin102:
	.file	55 "/Users/natalie/.cargo/registry/src/github.com-1ecc6299db9ec823/epaint-0.19.0/src/util" "mod.rs"
	.loc	55 7 0 is_stmt 1
	.cfi_startproc
	.cfi_personality 155, _rust_eh_personality
	.cfi_lsda 16, Lexception11
	pushq	%rbp
	.cfi_def_cfa_offset 16
	.cfi_offset %rbp, -16
	movq	%rsp, %rbp
	.cfi_def_cfa_register %rbp
	subq	$64, %rsp
Ltmp667:
	leaq	-48(%rbp), %rdi
Ltmp674:
	.loc	55 9 22 prologue_end
	callq	__ZN5ahash82_$LT$impl$u20$core..default..Default$u20$for$u20$ahash..fallback_hash..AHasher$GT$7default17h2ff2795e6e2a012aE
Ltmp668:
	jmp	LBB102_3
LBB102_1:
	.loc	55 7 1
	movq	-16(%rbp), %rdi
	callq	__Unwind_Resume
LBB102_2:
Ltmp673:
	.loc	55 0 1 is_stmt 0
	movq	%rax, %rcx
	movl	%edx, %eax
	movq	%rcx, -16(%rbp)
	movl	%eax, -8(%rbp)
	jmp	LBB102_1
LBB102_3:
Ltmp669:
	leaq	-56(%rbp), %rdi
	leaq	-48(%rbp), %rsi
Ltmp675:
	.loc	55 10 5 is_stmt 1
	callq	__ZN59_$LT$winit..event..DeviceId$u20$as$u20$core..hash..Hash$GT$4hash17h3a51a278e659f4fdE
Ltmp670:
	jmp	LBB102_4
LBB102_4:
Ltmp671:
	.loc	55 0 5 is_stmt 0
	leaq	-48(%rbp), %rdi
	.loc	55 11 5 is_stmt 1
	callq	__ZN68_$LT$ahash..fallback_hash..AHasher$u20$as$u20$core..hash..Hasher$GT$6finish17h133d0e89fe2470bbE
Ltmp672:
	movq	%rax, -64(%rbp)
	jmp	LBB102_5
Ltmp676:
LBB102_5:
	.loc	55 0 5 is_stmt 0
	movq	-64(%rbp), %rax
	.loc	55 12 2 is_stmt 1
	addq	$64, %rsp
	popq	%rbp
	retq
Ltmp677:
Lfunc_end102:
	.cfi_endproc
	.section	__TEXT,__gcc_except_tab
	.p2align	2
GCC_except_table102:
Lexception11:
	.byte	255
	.byte	255
	.byte	1
	.uleb128 Lcst_end11-Lcst_begin11
Lcst_begin11:
	.uleb128 Ltmp667-Lfunc_begin102
	.uleb128 Ltmp668-Ltmp667
	.uleb128 Ltmp673-Lfunc_begin102
	.byte	0
	.uleb128 Ltmp668-Lfunc_begin102
	.uleb128 Ltmp669-Ltmp668
	.byte	0
	.byte	0
	.uleb128 Ltmp669-Lfunc_begin102
	.uleb128 Ltmp672-Ltmp669
	.uleb128 Ltmp673-Lfunc_begin102
	.byte	0
Lcst_end11:
	.p2align	2

	.section	__TEXT,__text,regular,pure_instructions
	.p2align	4, 0x90
__ZN71_$LT$egui..data..input..Modifiers$u20$as$u20$core..default..Default$GT$7default17h411fc96fe0ea647fE:
Lfunc_begin103:
	.file	56 "/Users/natalie/.cargo/registry/src/github.com-1ecc6299db9ec823/egui-0.19.0/src/data" "input.rs"
	.loc	56 300 0
	.cfi_startproc
	pushq	%rbp
	.cfi_def_cfa_offset 16
	.cfi_offset %rbp, -16
	movq	%rsp, %rbp
	.cfi_def_cfa_register %rbp
	subq	$16, %rsp
Ltmp678:
	.loc	56 304 5 prologue_end
	callq	__ZN47_$LT$bool$u20$as$u20$core..default..Default$GT$7default17h4832a3d18b74b23aE
	movb	%al, -12(%rbp)
	.loc	56 308 5
	callq	__ZN47_$LT$bool$u20$as$u20$core..default..Default$GT$7default17h4832a3d18b74b23aE
	movb	%al, -11(%rbp)
	.loc	56 311 5
	callq	__ZN47_$LT$bool$u20$as$u20$core..default..Default$GT$7default17h4832a3d18b74b23aE
	movb	%al, -10(%rbp)
	.loc	56 314 5
	callq	__ZN47_$LT$bool$u20$as$u20$core..default..Default$GT$7default17h4832a3d18b74b23aE
	movb	%al, -9(%rbp)
	.loc	56 320 5
	callq	__ZN47_$LT$bool$u20$as$u20$core..default..Default$GT$7default17h4832a3d18b74b23aE
	movb	-12(%rbp), %dil
	movb	-11(%rbp), %sil
	movb	-10(%rbp), %dl
	movb	-9(%rbp), %cl
	.loc	56 300 30
	movb	%dil, -8(%rbp)
	movb	%sil, -7(%rbp)
	movb	%dl, -6(%rbp)
	movb	%cl, -5(%rbp)
	movb	%al, -4(%rbp)
	.loc	56 300 37 is_stmt 0
	movl	-8(%rbp), %eax
	movzbl	-4(%rbp), %ecx
	shlq	$32, %rcx
	orq	%rcx, %rax
	addq	$16, %rsp
	popq	%rbp
	retq
Ltmp679:
Lfunc_end103:
	.cfi_endproc

	.globl	__ZN72_$LT$core..option..Option$LT$T$GT$$u20$as$u20$core..default..Default$GT$7default17hb332f8a184d73cb0E
	.p2align	4, 0x90
__ZN72_$LT$core..option..Option$LT$T$GT$$u20$as$u20$core..default..Default$GT$7default17hb332f8a184d73cb0E:
Lfunc_begin104:
	.loc	29 1966 0 is_stmt 1
	.cfi_startproc
	pushq	%rbp
	.cfi_def_cfa_offset 16
	.cfi_offset %rbp, -16
	movq	%rsp, %rbp
	.cfi_def_cfa_register %rbp
	movq	%rdi, %rax
Ltmp680:
	.loc	29 1967 9 prologue_end
	movq	$0, 8(%rdi)
	.loc	29 1968 6
	popq	%rbp
	retq
Ltmp681:
Lfunc_end104:
	.cfi_endproc

	.globl	__ZN72_$LT$core..option..Option$LT$T$GT$$u20$as$u20$core..default..Default$GT$7default17hcfa2692711cd0d78E
	.p2align	4, 0x90
__ZN72_$LT$core..option..Option$LT$T$GT$$u20$as$u20$core..default..Default$GT$7default17hcfa2692711cd0d78E:
Lfunc_begin105:
	.loc	29 1966 0
	.cfi_startproc
	pushq	%rbp
	.cfi_def_cfa_offset 16
	.cfi_offset %rbp, -16
	movq	%rsp, %rbp
	.cfi_def_cfa_register %rbp
	subq	$16, %rsp
Ltmp682:
	.loc	29 1967 9 prologue_end
	movl	$1000000000, -8(%rbp)
	.loc	29 1968 6
	movq	-16(%rbp), %rax
	movl	-8(%rbp), %edx
	addq	$16, %rsp
	popq	%rbp
	retq
Ltmp683:
Lfunc_end105:
	.cfi_endproc

	.globl	__ZN72_$LT$core..option..Option$LT$T$GT$$u20$as$u20$core..default..Default$GT$7default17hffa313be7a7b5a3cE
	.p2align	4, 0x90
__ZN72_$LT$core..option..Option$LT$T$GT$$u20$as$u20$core..default..Default$GT$7default17hffa313be7a7b5a3cE:
Lfunc_begin106:
	.loc	29 1966 0
	.cfi_startproc
	pushq	%rbp
	.cfi_def_cfa_offset 16
	.cfi_offset %rbp, -16
	movq	%rsp, %rbp
	.cfi_def_cfa_register %rbp
	subq	$16, %rsp
Ltmp684:
	.loc	29 1967 9 prologue_end
	movq	$0, -16(%rbp)
	.loc	29 1968 6
	movq	-16(%rbp), %rax
	movq	-8(%rbp), %rdx
	addq	$16, %rsp
	popq	%rbp
	retq
Ltmp685:
Lfunc_end106:
	.cfi_endproc

	.p2align	4, 0x90
__ZN73_$LT$egui..data..input..DroppedFile$u20$as$u20$core..default..Default$GT$7default17h406a212483c9a69eE:
Lfunc_begin107:
	.loc	56 147 0
	.cfi_startproc
	.cfi_personality 155, _rust_eh_personality
	.cfi_lsda 16, Lexception12
	pushq	%rbp
	.cfi_def_cfa_offset 16
	.cfi_offset %rbp, -16
	movq	%rsp, %rbp
	.cfi_def_cfa_register %rbp
	subq	$128, %rsp
	movq	%rdi, -80(%rbp)
	movq	%rdi, -72(%rbp)
	leaq	-64(%rbp), %rdi
Ltmp699:
	.loc	56 151 5 prologue_end
	callq	__ZN72_$LT$core..option..Option$LT$T$GT$$u20$as$u20$core..default..Default$GT$7default17hb332f8a184d73cb0E
Ltmp686:
	leaq	-40(%rbp), %rdi
	.loc	56 154 5
	callq	__ZN64_$LT$alloc..string..String$u20$as$u20$core..default..Default$GT$7default17h6dfd034604773b13E
Ltmp687:
	jmp	LBB107_3
LBB107_1:
Ltmp696:
	.loc	56 0 5 is_stmt 0
	leaq	-64(%rbp), %rdi
	.loc	56 147 30 is_stmt 1
	callq	__ZN4core3ptr67drop_in_place$LT$core..option..Option$LT$std..path..PathBuf$GT$$GT$17h7d478d06c13d598eE
Ltmp697:
	jmp	LBB107_9
LBB107_2:
Ltmp688:
	.loc	56 0 30 is_stmt 0
	movq	%rax, %rcx
	movl	%edx, %eax
	movq	%rcx, -16(%rbp)
	movl	%eax, -8(%rbp)
	jmp	LBB107_1
LBB107_3:
Ltmp689:
	.loc	56 157 5 is_stmt 1
	callq	__ZN72_$LT$core..option..Option$LT$T$GT$$u20$as$u20$core..default..Default$GT$7default17hcfa2692711cd0d78E
Ltmp690:
	movl	%edx, -92(%rbp)
	movq	%rax, -88(%rbp)
	jmp	LBB107_6
LBB107_4:
Ltmp694:
	.loc	56 0 5 is_stmt 0
	leaq	-40(%rbp), %rdi
	.loc	56 147 30 is_stmt 1
	callq	__ZN4core3ptr42drop_in_place$LT$alloc..string..String$GT$17hef0d0483296c488eE
Ltmp695:
	jmp	LBB107_1
LBB107_5:
Ltmp693:
	.loc	56 0 30 is_stmt 0
	movq	%rax, %rcx
	movl	%edx, %eax
	movq	%rcx, -16(%rbp)
	movl	%eax, -8(%rbp)
	jmp	LBB107_4
LBB107_6:
	movl	-92(%rbp), %eax
	movq	-88(%rbp), %rcx
	movq	%rcx, -128(%rbp)
	movl	%eax, -116(%rbp)
Ltmp691:
	.loc	56 160 5 is_stmt 1
	callq	__ZN72_$LT$core..option..Option$LT$T$GT$$u20$as$u20$core..default..Default$GT$7default17hffa313be7a7b5a3cE
Ltmp692:
	movq	%rdx, -112(%rbp)
	movq	%rax, -104(%rbp)
	jmp	LBB107_7
LBB107_7:
	.loc	56 0 5 is_stmt 0
	movq	-72(%rbp), %rax
	movq	-80(%rbp), %rcx
	movq	-112(%rbp), %rdx
	movq	-104(%rbp), %rsi
	movl	-116(%rbp), %edi
	movq	-128(%rbp), %r8
	.loc	56 147 24 is_stmt 1
	movq	-64(%rbp), %r9
	movq	%r9, 32(%rcx)
	movq	-56(%rbp), %r9
	movq	%r9, 40(%rcx)
	movq	-48(%rbp), %r9
	movq	%r9, 48(%rcx)
	movq	-40(%rbp), %r9
	movq	%r9, 56(%rcx)
	movq	-32(%rbp), %r9
	movq	%r9, 64(%rcx)
	movq	-24(%rbp), %r9
	movq	%r9, 72(%rcx)
	movq	%r8, 16(%rcx)
	movl	%edi, 24(%rcx)
	movq	%rsi, (%rcx)
	movq	%rdx, 8(%rcx)
	.loc	56 147 31 is_stmt 0
	addq	$128, %rsp
	popq	%rbp
	retq
LBB107_8:
Ltmp698:
	.loc	56 147 24
	callq	__ZN4core9panicking19panic_cannot_unwind17h1fbca7e1d7f56ae1E
LBB107_9:
	movq	-16(%rbp), %rdi
	callq	__Unwind_Resume
Ltmp700:
Lfunc_end107:
	.cfi_endproc
	.section	__TEXT,__gcc_except_tab
	.p2align	2
GCC_except_table107:
Lexception12:
	.byte	255
	.byte	255
	.byte	1
	.uleb128 Lcst_end12-Lcst_begin12
Lcst_begin12:
	.uleb128 Lfunc_begin107-Lfunc_begin107
	.uleb128 Ltmp686-Lfunc_begin107
	.byte	0
	.byte	0
	.uleb128 Ltmp686-Lfunc_begin107
	.uleb128 Ltmp687-Ltmp686
	.uleb128 Ltmp688-Lfunc_begin107
	.byte	0
	.uleb128 Ltmp696-Lfunc_begin107
	.uleb128 Ltmp697-Ltmp696
	.uleb128 Ltmp698-Lfunc_begin107
	.byte	0
	.uleb128 Ltmp689-Lfunc_begin107
	.uleb128 Ltmp690-Ltmp689
	.uleb128 Ltmp693-Lfunc_begin107
	.byte	0
	.uleb128 Ltmp694-Lfunc_begin107
	.uleb128 Ltmp695-Ltmp694
	.uleb128 Ltmp698-Lfunc_begin107
	.byte	0
	.uleb128 Ltmp691-Lfunc_begin107
	.uleb128 Ltmp692-Ltmp691
	.uleb128 Ltmp693-Lfunc_begin107
	.byte	0
	.uleb128 Ltmp692-Lfunc_begin107
	.uleb128 Lfunc_end107-Ltmp692
	.byte	0
	.byte	0
Lcst_end12:
	.p2align	2

	.section	__TEXT,__text,regular,pure_instructions
	.p2align	4, 0x90
__ZN73_$LT$egui..data..input..HoveredFile$u20$as$u20$core..default..Default$GT$7default17he22154e55748225fE:
Lfunc_begin108:
	.loc	56 136 0 is_stmt 1
	.cfi_startproc
	.cfi_personality 155, _rust_eh_personality
	.cfi_lsda 16, Lexception13
	pushq	%rbp
	.cfi_def_cfa_offset 16
	.cfi_offset %rbp, -16
	movq	%rsp, %rbp
	.cfi_def_cfa_register %rbp
	subq	$80, %rsp
	movq	%rdi, -80(%rbp)
	movq	%rdi, -72(%rbp)
	leaq	-64(%rbp), %rdi
Ltmp707:
	.loc	56 140 5 prologue_end
	callq	__ZN72_$LT$core..option..Option$LT$T$GT$$u20$as$u20$core..default..Default$GT$7default17hb332f8a184d73cb0E
Ltmp701:
	leaq	-40(%rbp), %rdi
	.loc	56 143 5
	callq	__ZN64_$LT$alloc..string..String$u20$as$u20$core..default..Default$GT$7default17h6dfd034604773b13E
Ltmp702:
	jmp	LBB108_3
LBB108_1:
Ltmp704:
	.loc	56 0 5 is_stmt 0
	leaq	-64(%rbp), %rdi
	.loc	56 136 30 is_stmt 1
	callq	__ZN4core3ptr67drop_in_place$LT$core..option..Option$LT$std..path..PathBuf$GT$$GT$17h7d478d06c13d598eE
Ltmp705:
	jmp	LBB108_5
LBB108_2:
Ltmp703:
	.loc	56 0 30 is_stmt 0
	movq	%rax, %rcx
	movl	%edx, %eax
	movq	%rcx, -16(%rbp)
	movl	%eax, -8(%rbp)
	jmp	LBB108_1
LBB108_3:
	movq	-72(%rbp), %rax
	movq	-80(%rbp), %rcx
	.loc	56 136 24
	movq	-64(%rbp), %rdx
	movq	%rdx, (%rcx)
	movq	-56(%rbp), %rdx
	movq	%rdx, 8(%rcx)
	movq	-48(%rbp), %rdx
	movq	%rdx, 16(%rcx)
	movq	-40(%rbp), %rdx
	movq	%rdx, 24(%rcx)
	movq	-32(%rbp), %rdx
	movq	%rdx, 32(%rcx)
	movq	-24(%rbp), %rdx
	movq	%rdx, 40(%rcx)
	.loc	56 136 31
	addq	$80, %rsp
	popq	%rbp
	retq
LBB108_4:
Ltmp706:
	.loc	56 136 24
	callq	__ZN4core9panicking19panic_cannot_unwind17h1fbca7e1d7f56ae1E
LBB108_5:
	movq	-16(%rbp), %rdi
	callq	__Unwind_Resume
Ltmp708:
Lfunc_end108:
	.cfi_endproc
	.section	__TEXT,__gcc_except_tab
	.p2align	2
GCC_except_table108:
Lexception13:
	.byte	255
	.byte	255
	.byte	1
	.uleb128 Lcst_end13-Lcst_begin13
Lcst_begin13:
	.uleb128 Lfunc_begin108-Lfunc_begin108
	.uleb128 Ltmp701-Lfunc_begin108
	.byte	0
	.byte	0
	.uleb128 Ltmp701-Lfunc_begin108
	.uleb128 Ltmp702-Ltmp701
	.uleb128 Ltmp703-Lfunc_begin108
	.byte	0
	.uleb128 Ltmp704-Lfunc_begin108
	.uleb128 Ltmp705-Ltmp704
	.uleb128 Ltmp706-Lfunc_begin108
	.byte	0
	.uleb128 Ltmp705-Lfunc_begin108
	.uleb128 Lfunc_end108-Ltmp705
	.byte	0
	.byte	0
Lcst_end13:
	.p2align	2

	.section	__TEXT,__text,regular,pure_instructions
	.globl	__ZN75_$LT$alloc..vec..Vec$LT$T$C$A$GT$$u20$as$u20$core..ops..deref..DerefMut$GT$9deref_mut17hffa0ef0b1a54f6a3E
	.p2align	4, 0x90
__ZN75_$LT$alloc..vec..Vec$LT$T$C$A$GT$$u20$as$u20$core..ops..deref..DerefMut$GT$9deref_mut17hffa0ef0b1a54f6a3E:
Lfunc_begin109:
	.loc	43 2644 0 is_stmt 1
	.cfi_startproc
	pushq	%rbp
	.cfi_def_cfa_offset 16
	.cfi_offset %rbp, -16
	movq	%rsp, %rbp
	.cfi_def_cfa_register %rbp
	subq	$176, %rsp
	movq	%rdi, -136(%rbp)
Ltmp709:
	.loc	43 2645 44 prologue_end
	movq	%rdi, -128(%rbp)
Ltmp710:
	.loc	43 1280 19
	movq	%rdi, -120(%rbp)
Ltmp711:
	.loc	45 224 9
	movq	8(%rdi), %rcx
	movq	%rcx, -112(%rbp)
Ltmp712:
	.loc	46 104 9
	movq	%rcx, -104(%rbp)
Ltmp713:
	.loc	47 326 9
	movq	%rcx, -96(%rbp)
Ltmp714:
	.loc	43 1282 21
	movq	%rcx, -88(%rbp)
Ltmp715:
	.loc	48 52 36
	movq	%rcx, -176(%rbp)
	.loc	48 52 18 is_stmt 0
	movq	-176(%rbp), %rax
	movq	%rax, -80(%rbp)
Ltmp716:
	.loc	48 38 13 is_stmt 1
	movq	%rax, -72(%rbp)
Ltmp717:
	.loc	48 215 33
	movq	%rax, -64(%rbp)
	.loc	48 215 18 is_stmt 0
	movq	%rax, -56(%rbp)
Ltmp718:
	.loc	43 2645 63 is_stmt 1
	movq	16(%rdi), %rax
	movq	%rax, -48(%rbp)
Ltmp719:
	.file	57 "/rustc/2c8cc343237b8f7d5a3c3703e3a87f2eb2c54a74/library/core/src/slice" "raw.rs"
	.loc	57 145 45
	movq	%rcx, -40(%rbp)
	.loc	57 145 51 is_stmt 0
	movq	%rax, -32(%rbp)
Ltmp720:
	.loc	17 766 24 is_stmt 1
	movq	%rcx, -24(%rbp)
Ltmp721:
	.loc	48 60 9
	movq	%rcx, -16(%rbp)
Ltmp722:
	.loc	17 766 37
	movq	%rax, -8(%rbp)
Ltmp723:
	.loc	23 135 36
	movq	%rcx, -152(%rbp)
	movq	%rax, -144(%rbp)
	.loc	23 135 14 is_stmt 0
	movq	-152(%rbp), %rcx
	movq	-144(%rbp), %rax
	movq	%rcx, -168(%rbp)
	movq	%rax, -160(%rbp)
	movq	-168(%rbp), %rax
	movq	-160(%rbp), %rdx
Ltmp724:
	.loc	43 2646 6 is_stmt 1
	addq	$176, %rsp
	popq	%rbp
	retq
Ltmp725:
Lfunc_end109:
	.cfi_endproc

	.p2align	4, 0x90
__ZN76_$LT$ahash..random_state..RandomState$u20$as$u20$core..hash..BuildHasher$GT$12build_hasher17hb357e879c97af19eE:
Lfunc_begin110:
	.loc	40 330 0
	.cfi_startproc
	pushq	%rbp
	.cfi_def_cfa_offset 16
	.cfi_offset %rbp, -16
	movq	%rsp, %rbp
	.cfi_def_cfa_register %rbp
	subq	$16, %rsp
	movq	%rdi, %rax
	movq	%rax, -16(%rbp)
	movq	%rsi, -8(%rbp)
Ltmp726:
	.loc	40 331 9 prologue_end
	callq	__ZN5ahash13fallback_hash7AHasher17from_random_state17h2e1205d876670c89E
	movq	-16(%rbp), %rax
	.loc	40 332 6
	addq	$16, %rsp
	popq	%rbp
	retq
Ltmp727:
Lfunc_end110:
	.cfi_endproc

	.globl	__ZN77_$LT$winit..platform_impl..platform..DeviceId$u20$as$u20$core..hash..Hash$GT$4hash17h364482563f4963eaE
	.p2align	4, 0x90
__ZN77_$LT$winit..platform_impl..platform..DeviceId$u20$as$u20$core..hash..Hash$GT$4hash17h364482563f4963eaE:
Lfunc_begin111:
	.file	58 "/Users/natalie/.cargo/registry/src/github.com-1ecc6299db9ec823/winit-0.27.5/src/platform_impl/macos" "mod.rs"
	.loc	58 37 0
	.cfi_startproc
	pushq	%rbp
	.cfi_def_cfa_offset 16
	.cfi_offset %rbp, -16
	movq	%rsp, %rbp
	.cfi_def_cfa_register %rbp
	subq	$16, %rsp
	movq	%rdi, -16(%rbp)
	movq	%rsi, -8(%rbp)
Ltmp728:
	.loc	58 37 66 prologue_end
	addq	$16, %rsp
	popq	%rbp
	retq
Ltmp729:
Lfunc_end111:
	.cfi_endproc

	.p2align	4, 0x90
__ZN80_$LT$core..str..pattern..StrSearcher$u20$as$u20$core..str..pattern..Searcher$GT$10next_match17h2dc3ffe56d21684fE:
Lfunc_begin112:
	.loc	35 1121 0
	.cfi_startproc
	pushq	%rbp
	.cfi_def_cfa_offset 16
	.cfi_offset %rbp, -16
	movq	%rsp, %rbp
	.cfi_def_cfa_register %rbp
	subq	$256, %rsp
	movq	%rsi, -232(%rbp)
	movq	%rdi, -224(%rbp)
	movq	%rdi, -216(%rbp)
	movq	%rsi, -168(%rbp)
Ltmp730:
	.loc	35 1122 9 prologue_end
	cmpq	$0, 32(%rsi)
	jne	LBB112_2
LBB112_1:
	.loc	35 0 9 is_stmt 0
	movq	-232(%rbp), %rsi
	leaq	-208(%rbp), %rdi
	.loc	35 1124 23 is_stmt 1
	callq	__ZN80_$LT$core..str..pattern..StrSearcher$u20$as$u20$core..str..pattern..Searcher$GT$4next17h1c59882c3846e74dE
	movq	-208(%rbp), %rax
	movq	%rax, -240(%rbp)
	.loc	35 1124 17 is_stmt 0
	testq	%rax, %rax
	je	LBB112_8
	jmp	LBB112_12
LBB112_12:
	.loc	35 0 17
	movq	-240(%rbp), %rax
	.loc	35 1124 17
	subq	$1, %rax
	je	LBB112_9
	jmp	LBB112_13
LBB112_13:
	jmp	LBB112_10
LBB112_2:
	.loc	35 0 17
	movq	-232(%rbp), %rax
	.loc	35 1130 37 is_stmt 1
	movq	%rax, %rcx
	addq	$32, %rcx
	addq	$8, %rcx
	movq	%rcx, -248(%rbp)
	movq	%rcx, -160(%rbp)
Ltmp731:
	.loc	35 1131 31
	cmpq	$-1, 88(%rax)
	sete	%al
	movb	%al, %cl
	andb	$1, %cl
	movb	%cl, -145(%rbp)
Ltmp732:
	.loc	35 1134 20
	testb	$1, %al
	jne	LBB112_4
	.loc	35 0 20 is_stmt 0
	movq	-248(%rbp), %rsi
	movq	-224(%rbp), %rdi
	movq	-232(%rbp), %rax
	.loc	35 1142 25 is_stmt 1
	movq	(%rax), %rdx
	movq	8(%rax), %rcx
	movq	%rdx, -80(%rbp)
	movq	%rcx, -72(%rbp)
Ltmp733:
	.loc	12 327 18
	movq	%rdx, -64(%rbp)
	movq	%rcx, -56(%rbp)
	movq	-64(%rbp), %rdx
	movq	-56(%rbp), %rcx
Ltmp734:
	.loc	35 1143 25
	movq	16(%rax), %r8
	movq	24(%rax), %rax
	movq	%r8, -48(%rbp)
	movq	%rax, -40(%rbp)
Ltmp735:
	.loc	12 327 18
	movq	%r8, -32(%rbp)
	movq	%rax, -24(%rbp)
	movq	-32(%rbp), %r8
	movq	-24(%rbp), %r9
Ltmp736:
	.loc	35 1141 21
	xorl	%eax, %eax
	movl	$0, (%rsp)
	callq	__ZN4core3str7pattern14TwoWaySearcher4next17h6f400e6de0bb2ed3E
	.loc	35 1134 17
	jmp	LBB112_5
LBB112_4:
	.loc	35 0 17 is_stmt 0
	movq	-248(%rbp), %rsi
	movq	-224(%rbp), %rdi
	movq	-232(%rbp), %rax
	.loc	35 1136 25 is_stmt 1
	movq	(%rax), %rdx
	movq	8(%rax), %rcx
	movq	%rdx, -144(%rbp)
	movq	%rcx, -136(%rbp)
Ltmp737:
	.loc	12 327 18
	movq	%rdx, -128(%rbp)
	movq	%rcx, -120(%rbp)
	movq	-128(%rbp), %rdx
	movq	-120(%rbp), %rcx
Ltmp738:
	.loc	35 1137 25
	movq	16(%rax), %r8
	movq	24(%rax), %rax
	movq	%r8, -112(%rbp)
	movq	%rax, -104(%rbp)
Ltmp739:
	.loc	12 327 18
	movq	%r8, -96(%rbp)
	movq	%rax, -88(%rbp)
	movq	-96(%rbp), %r8
	movq	-88(%rbp), %r9
Ltmp740:
	.loc	35 1135 21
	movl	$1, (%rsp)
	callq	__ZN4core3str7pattern14TwoWaySearcher4next17h6f400e6de0bb2ed3E
Ltmp741:
LBB112_5:
	.loc	35 1147 13
	jmp	LBB112_6
LBB112_6:
	.loc	35 0 13 is_stmt 0
	movq	-216(%rbp), %rax
	.loc	35 1149 6 is_stmt 1
	addq	$256, %rsp
	popq	%rbp
	retq
	.loc	35 1124 23
	ud2
LBB112_8:
	.loc	35 0 23 is_stmt 0
	movq	-224(%rbp), %rax
	.loc	35 1125 39 is_stmt 1
	movq	-200(%rbp), %rdx
	movq	%rdx, -16(%rbp)
	.loc	35 1125 42 is_stmt 0
	movq	-192(%rbp), %rcx
	movq	%rcx, -8(%rbp)
Ltmp742:
	.loc	35 1125 60
	movq	%rdx, -184(%rbp)
	movq	%rcx, -176(%rbp)
	.loc	35 1125 55
	movq	-184(%rbp), %rdx
	movq	-176(%rbp), %rcx
	movq	%rdx, 8(%rax)
	movq	%rcx, 16(%rax)
	movq	$1, (%rax)
Ltmp743:
	.file	59 "/Users/natalie/.cargo/registry/src/github.com-1ecc6299db9ec823/egui-winit-0.19.0" "src/lib.rs"
	.loc	59 1 1 is_stmt 1
	jmp	LBB112_11
LBB112_9:
	.loc	35 1123 43
	jmp	LBB112_1
LBB112_10:
	.loc	35 0 43 is_stmt 0
	movq	-224(%rbp), %rax
	.loc	35 1126 48 is_stmt 1
	movq	$0, (%rax)
LBB112_11:
	.loc	35 1149 6
	jmp	LBB112_6
Ltmp744:
Lfunc_end112:
	.cfi_endproc

	.p2align	4, 0x90
__ZN80_$LT$core..str..pattern..StrSearcher$u20$as$u20$core..str..pattern..Searcher$GT$4next17h1c59882c3846e74dE:
Lfunc_begin113:
	.loc	35 1069 0
	.cfi_startproc
	pushq	%rbp
	.cfi_def_cfa_offset 16
	.cfi_offset %rbp, -16
	movq	%rsp, %rbp
	.cfi_def_cfa_register %rbp
	subq	$464, %rsp
	movq	%rsi, -408(%rbp)
	movq	%rdi, -400(%rbp)
	movq	%rdi, -392(%rbp)
	movq	%rsi, -296(%rbp)
Ltmp745:
	.loc	35 1070 9 prologue_end
	cmpq	$0, 32(%rsi)
	jne	LBB113_2
	.loc	35 0 9 is_stmt 0
	movq	-408(%rbp), %rax
	.loc	35 1071 36 is_stmt 1
	movq	%rax, %rcx
	addq	$32, %rcx
	addq	$8, %rcx
	movq	%rcx, -416(%rbp)
	movq	%rcx, -120(%rbp)
Ltmp746:
	.loc	35 1072 20
	testb	$1, 58(%rax)
	jne	LBB113_13
	jmp	LBB113_12
Ltmp747:
LBB113_2:
	.loc	35 0 20 is_stmt 0
	movq	-408(%rbp), %rcx
	.loc	35 1091 37 is_stmt 1
	movq	%rcx, %rax
	addq	$32, %rax
	addq	$8, %rax
	movq	%rax, -424(%rbp)
	movq	%rax, -288(%rbp)
Ltmp748:
	.loc	35 1097 20
	movq	72(%rcx), %rax
	.loc	35 1097 41 is_stmt 0
	movq	(%rcx), %rdx
	movq	8(%rcx), %rcx
	movq	%rdx, -280(%rbp)
	movq	%rcx, -272(%rbp)
Ltmp749:
	.loc	12 160 9 is_stmt 1
	movq	%rdx, -264(%rbp)
	movq	%rcx, -256(%rbp)
Ltmp750:
	.loc	12 327 18
	movq	%rdx, -248(%rbp)
	movq	%rcx, -240(%rbp)
Ltmp751:
	.loc	35 1097 20
	cmpq	-240(%rbp), %rax
	je	LBB113_4
	.loc	35 0 20 is_stmt 0
	movq	-424(%rbp), %rsi
	movq	-408(%rbp), %rdi
	.loc	35 1100 31 is_stmt 1
	cmpq	$-1, 48(%rsi)
	sete	%al
	movb	%al, %cl
	andb	$1, %cl
	movb	%cl, -225(%rbp)
Ltmp752:
	.loc	35 1102 21
	movq	(%rdi), %rdx
	movq	8(%rdi), %rcx
	movq	%rdx, -224(%rbp)
	movq	%rcx, -216(%rbp)
Ltmp753:
	.loc	12 327 18
	movq	%rdx, -208(%rbp)
	movq	%rcx, -200(%rbp)
	movq	-208(%rbp), %rdx
	movq	-200(%rbp), %rcx
Ltmp754:
	.loc	35 1103 21
	movq	16(%rdi), %r8
	movq	24(%rdi), %rdi
	movq	%r8, -192(%rbp)
	movq	%rdi, -184(%rbp)
Ltmp755:
	.loc	12 327 18
	movq	%r8, -176(%rbp)
	movq	%rdi, -168(%rbp)
	movq	-176(%rbp), %r8
	movq	-168(%rbp), %r9
Ltmp756:
	.loc	35 1101 23
	movzbl	%al, %edi
	andl	$1, %edi
	movq	%rsp, %rax
	movl	%edi, (%rax)
	leaq	-352(%rbp), %rdi
	callq	__ZN4core3str7pattern14TwoWaySearcher4next17h7610b34db4cde085E
	.loc	35 1101 17 is_stmt 0
	cmpq	$1, -352(%rbp)
	je	LBB113_6
	jmp	LBB113_7
Ltmp757:
LBB113_4:
	.loc	35 0 17
	movq	-400(%rbp), %rax
	.loc	35 1098 28 is_stmt 1
	movq	$2, (%rax)
Ltmp758:
LBB113_5:
	.loc	35 0 28 is_stmt 0
	movq	-392(%rbp), %rax
	.loc	35 1118 6 is_stmt 1
	addq	$464, %rsp
	popq	%rbp
	retq
LBB113_6:
Ltmp759:
	.loc	35 1106 40
	movq	-344(%rbp), %rax
	movq	%rax, -432(%rbp)
	movq	%rax, -160(%rbp)
	.loc	35 1106 43 is_stmt 0
	movq	-336(%rbp), %rax
	movq	%rax, -328(%rbp)
Ltmp760:
	.loc	35 1108 25 is_stmt 1
	jmp	LBB113_9
Ltmp761:
LBB113_7:
	.loc	35 0 25 is_stmt 0
	movq	-400(%rbp), %rax
	.loc	35 1114 21 is_stmt 1
	movq	-352(%rbp), %rcx
	movq	%rcx, -320(%rbp)
	movq	-344(%rbp), %rcx
	movq	%rcx, -312(%rbp)
	movq	-336(%rbp), %rcx
	movq	%rcx, -304(%rbp)
Ltmp762:
	.loc	35 1114 34 is_stmt 0
	movq	-320(%rbp), %rcx
	movq	%rcx, (%rax)
	movq	-312(%rbp), %rcx
	movq	%rcx, 8(%rax)
	movq	-304(%rbp), %rcx
	movq	%rcx, 16(%rax)
Ltmp763:
LBB113_8:
	.loc	35 1116 13 is_stmt 1
	jmp	LBB113_5
LBB113_9:
	.loc	35 0 13 is_stmt 0
	movq	-408(%rbp), %rax
Ltmp764:
	.loc	35 1108 32 is_stmt 1
	movq	(%rax), %rdi
	movq	8(%rax), %rsi
	.loc	35 1108 63 is_stmt 0
	movq	-328(%rbp), %rdx
	.loc	35 1108 32
	callq	__ZN4core3str21_$LT$impl$u20$str$GT$16is_char_boundary17h231d71926607b43eE
	.loc	35 1108 31
	xorb	$-1, %al
	testb	$1, %al
	jne	LBB113_11
	.loc	35 0 31
	movq	-424(%rbp), %rax
	.loc	35 1111 54 is_stmt 1
	movq	-328(%rbp), %rdi
	movq	%rdi, -152(%rbp)
	.loc	35 1111 57 is_stmt 0
	movq	32(%rax), %rsi
	movq	%rsi, -144(%rbp)
Ltmp765:
	.file	60 "/rustc/2c8cc343237b8f7d5a3c3703e3a87f2eb2c54a74/library/core/src" "cmp.rs"
	.loc	60 1276 5 is_stmt 1
	movq	%rdi, -136(%rbp)
	.loc	60 1276 12 is_stmt 0
	movq	%rsi, -128(%rbp)
Ltmp766:
	.loc	60 803 13 is_stmt 1
	callq	__ZN4core3cmp6max_by17h25d3f804ab117346E
	movq	-424(%rbp), %rcx
	movq	-432(%rbp), %rdx
	movq	%rax, %rsi
	movq	-400(%rbp), %rax
Ltmp767:
	.loc	35 1111 25
	movq	%rsi, 32(%rcx)
	.loc	35 1112 47
	movq	-328(%rbp), %rcx
	.loc	35 1112 25 is_stmt 0
	movq	%rdx, 8(%rax)
	movq	%rcx, 16(%rax)
	movq	$1, (%rax)
Ltmp768:
	.loc	35 1113 21 is_stmt 1
	jmp	LBB113_8
LBB113_11:
Ltmp769:
	.loc	35 1109 29
	movq	-328(%rbp), %rax
	addq	$1, %rax
	movq	%rax, -328(%rbp)
	.loc	35 1108 25
	jmp	LBB113_9
Ltmp770:
LBB113_12:
	.loc	35 0 25 is_stmt 0
	movq	-408(%rbp), %rcx
	movq	-416(%rbp), %rax
Ltmp771:
	.loc	35 1076 32 is_stmt 1
	movb	16(%rax), %dl
	movb	%dl, -433(%rbp)
	andb	$1, %dl
	movb	%dl, -105(%rbp)
Ltmp772:
	.loc	35 1077 41
	movb	16(%rax), %dl
	.loc	35 1077 17 is_stmt 0
	xorb	$-1, %dl
	andb	$1, %dl
	movb	%dl, 16(%rax)
	.loc	35 1078 27 is_stmt 1
	movq	(%rax), %rax
	movq	%rax, -448(%rbp)
	movq	%rax, -104(%rbp)
Ltmp773:
	.loc	35 1079 23
	movq	(%rcx), %rsi
	movq	8(%rcx), %rdx
	movq	%rsi, -96(%rbp)
	movq	%rdx, -88(%rbp)
	.loc	35 1079 37 is_stmt 0
	movq	%rax, -360(%rbp)
Ltmp774:
	.loc	21 65 9 is_stmt 1
	movq	-360(%rbp), %rdi
	leaq	l___unnamed_20(%rip), %rcx
	callq	__ZN4core3str6traits112_$LT$impl$u20$core..slice..index..SliceIndex$LT$str$GT$$u20$for$u20$core..ops..range..RangeFrom$LT$usize$GT$$GT$5index17h2f390cea4b2546b0E
Ltmp775:
	.loc	35 1079 23
	movq	%rax, -80(%rbp)
	movq	%rdx, -72(%rbp)
Ltmp776:
	.loc	12 783 23
	movq	%rax, -64(%rbp)
	movq	%rdx, -56(%rbp)
Ltmp777:
	.loc	12 327 18
	movq	%rax, -48(%rbp)
	movq	%rdx, -40(%rbp)
	movq	-48(%rbp), %rdi
	movq	-40(%rbp), %rsi
Ltmp778:
	.loc	12 783 23
	movq	%rdi, -32(%rbp)
	movq	%rsi, -24(%rbp)
Ltmp779:
	.loc	18 742 9
	callq	__ZN4core5slice4iter13Iter$LT$T$GT$3new17hc1c791524a04eb27E
Ltmp780:
	.loc	12 783 9
	movq	%rax, -376(%rbp)
	movq	%rdx, -368(%rbp)
Ltmp781:
	.loc	35 1079 23
	leaq	-376(%rbp), %rax
	movq	%rax, -16(%rbp)
Ltmp782:
	.loc	20 44 18
	leaq	-376(%rbp), %rdi
	callq	__ZN4core3str11validations15next_code_point17h828386dbf8709789E
	movl	%eax, %edi
	movl	%edx, %esi
	callq	__ZN4core6option15Option$LT$T$GT$3map17ha65bc0f51c61057aE
	movl	%eax, %ecx
	movb	-433(%rbp), %al
	movl	%ecx, -380(%rbp)
Ltmp783:
	.loc	35 1080 26
	testb	$1, %al
	jne	LBB113_15
	jmp	LBB113_14
Ltmp784:
LBB113_13:
	.loc	35 0 26 is_stmt 0
	movq	-400(%rbp), %rax
	.loc	35 1073 28 is_stmt 1
	movq	$2, (%rax)
Ltmp785:
	.loc	59 1 1
	jmp	LBB113_5
LBB113_14:
Ltmp786:
	.loc	35 1079 23
	movl	$1, %eax
	xorl	%ecx, %ecx
	cmpl	$1114112, -380(%rbp)
	cmoveq	%rcx, %rax
	.loc	35 1079 17 is_stmt 0
	cmpq	$0, %rax
	je	LBB113_17
	jmp	LBB113_18
LBB113_15:
	.loc	35 0 17
	movq	-400(%rbp), %rax
	movq	-448(%rbp), %rcx
	.loc	35 1080 38 is_stmt 1
	movq	%rcx, 8(%rax)
	movq	%rcx, 16(%rax)
	movq	$0, (%rax)
Ltmp787:
LBB113_16:
	.loc	35 1090 13
	jmp	LBB113_5
LBB113_17:
	.loc	35 0 13 is_stmt 0
	movq	-400(%rbp), %rax
	movq	-416(%rbp), %rcx
Ltmp788:
	.loc	35 1082 25 is_stmt 1
	movb	$1, 18(%rcx)
	.loc	35 1083 25
	movq	$2, (%rax)
	jmp	LBB113_16
LBB113_18:
	.loc	35 1085 26
	movl	-380(%rbp), %edi
	movl	%edi, -8(%rbp)
Ltmp789:
	.loc	35 1086 46
	movl	%edi, -4(%rbp)
Ltmp790:
	.loc	10 594 9
	callq	__ZN4core4char7methods8len_utf817h5d5ed4c13432c489E
	movq	-416(%rbp), %rcx
	movq	-448(%rbp), %rdx
	movq	%rax, %rsi
	movq	-400(%rbp), %rax
Ltmp791:
	.loc	35 1086 25
	addq	(%rcx), %rsi
	movq	%rsi, (%rcx)
	.loc	35 1087 49
	movq	(%rcx), %rcx
	.loc	35 1087 25 is_stmt 0
	movq	%rdx, 8(%rax)
	movq	%rcx, 16(%rax)
	movq	$1, (%rax)
Ltmp792:
	.loc	35 1088 21 is_stmt 1
	jmp	LBB113_16
Ltmp793:
Lfunc_end113:
	.cfi_endproc

	.p2align	4, 0x90
__ZN80_$LT$core..str..pattern..StrSearcher$u20$as$u20$core..str..pattern..Searcher$GT$8haystack17hd204a564fc4066e0E:
Lfunc_begin114:
	.loc	35 1064 0
	.cfi_startproc
	pushq	%rbp
	.cfi_def_cfa_offset 16
	.cfi_offset %rbp, -16
	movq	%rsp, %rbp
	.cfi_def_cfa_register %rbp
	pushq	%rax
	movq	%rdi, -8(%rbp)
Ltmp794:
	.loc	35 1065 9 prologue_end
	movq	(%rdi), %rax
	movq	8(%rdi), %rdx
	.loc	35 1066 6
	addq	$8, %rsp
	popq	%rbp
	retq
Ltmp795:
Lfunc_end114:
	.cfi_endproc

	.p2align	4, 0x90
__ZN82_$LT$winit..platform_impl..platform..Window$u20$as$u20$core..ops..deref..Deref$GT$5deref17h89d5c02188de7eedE:
Lfunc_begin115:
	.loc	58 67 0
	.cfi_startproc
	pushq	%rbp
	.cfi_def_cfa_offset 16
	.cfi_offset %rbp, -16
	movq	%rsp, %rbp
	.cfi_def_cfa_register %rbp
	subq	$16, %rsp
	movq	%rdi, -8(%rbp)
Ltmp796:
	.loc	58 68 11 prologue_end
	addq	$8, %rdi
	.loc	58 68 10 is_stmt 0
	callq	__ZN69_$LT$alloc..sync..Arc$LT$T$GT$$u20$as$u20$core..ops..deref..Deref$GT$5deref17h297e2c33b55100fdE
	.loc	58 69 6 is_stmt 1
	addq	$16, %rsp
	popq	%rbp
	retq
Ltmp797:
Lfunc_end115:
	.cfi_endproc

	.p2align	4, 0x90
__ZN92_$LT$tracing_core..callsite..DefaultCallsite$u20$as$u20$tracing_core..callsite..Callsite$GT$8metadata17hc38922d18aaa4685E:
Lfunc_begin116:
	.loc	6 372 0
	.cfi_startproc
	pushq	%rbp
	.cfi_def_cfa_offset 16
	.cfi_offset %rbp, -16
	movq	%rsp, %rbp
	.cfi_def_cfa_register %rbp
	pushq	%rax
	movq	%rdi, -8(%rbp)
Ltmp798:
	.loc	6 373 9 prologue_end
	movq	8(%rdi), %rax
	.loc	6 374 6
	addq	$8, %rsp
	popq	%rbp
	retq
Ltmp799:
Lfunc_end116:
	.cfi_endproc

	.globl	__ZN96_$LT$winit..dpi..Size$u20$as$u20$core..convert..From$LT$winit..dpi..LogicalSize$LT$P$GT$$GT$$GT$4from17hdb6621bdbe55724fE
	.p2align	4, 0x90
__ZN96_$LT$winit..dpi..Size$u20$as$u20$core..convert..From$LT$winit..dpi..LogicalSize$LT$P$GT$$GT$$GT$4from17hdb6621bdbe55724fE:
Lfunc_begin117:
	.loc	2 548 0
	.cfi_startproc
	pushq	%rbp
	.cfi_def_cfa_offset 16
	.cfi_offset %rbp, -16
	movq	%rsp, %rbp
	.cfi_def_cfa_register %rbp
	subq	$32, %rsp
	movq	%rdi, -32(%rbp)
	movq	%rdi, -24(%rbp)
	movsd	%xmm0, -16(%rbp)
	movsd	%xmm1, -8(%rbp)
Ltmp800:
	.loc	2 549 23 prologue_end
	leaq	-16(%rbp), %rdi
	callq	__ZN5winit3dpi20LogicalSize$LT$P$GT$4cast17h44fe2552f7b7f689E
	movq	-32(%rbp), %rdi
	movq	-24(%rbp), %rax
	.loc	2 549 9 is_stmt 0
	movsd	%xmm0, 8(%rdi)
	movsd	%xmm1, 16(%rdi)
	movl	$1, (%rdi)
	.loc	2 550 6 is_stmt 1
	addq	$32, %rsp
	popq	%rbp
	retq
Ltmp801:
Lfunc_end117:
	.cfi_endproc

	.globl	__ZN10egui_winit9clipboard9Clipboard3new17ha3494dcfbc7bdbfdE
	.p2align	4, 0x90
__ZN10egui_winit9clipboard9Clipboard3new17ha3494dcfbc7bdbfdE:
Lfunc_begin118:
	.file	61 "/Users/natalie/.cargo/registry/src/github.com-1ecc6299db9ec823/egui-winit-0.19.0" "src/clipboard.rs"
	.loc	61 29 0
	.cfi_startproc
	.cfi_personality 155, _rust_eh_personality
	.cfi_lsda 16, Lexception14
	pushq	%rbp
	.cfi_def_cfa_offset 16
	.cfi_offset %rbp, -16
	movq	%rsp, %rbp
	.cfi_def_cfa_register %rbp
	subq	$96, %rsp
	movq	%rdi, -88(%rbp)
	movq	%rdi, -80(%rbp)
	movq	%rsi, -32(%rbp)
	movq	%rdx, -24(%rbp)
Ltmp808:
	.loc	61 32 22 prologue_end
	callq	__ZN10egui_winit9clipboard12init_arboard17hd99f6d78743cc1b4E
	movq	%rdx, -64(%rbp)
	movq	%rax, -72(%rbp)
Ltmp802:
	leaq	-56(%rbp), %rdi
	.loc	61 44 24
	callq	__ZN64_$LT$alloc..string..String$u20$as$u20$core..default..Default$GT$7default17h6dfd034604773b13E
Ltmp803:
	jmp	LBB118_3
LBB118_1:
Ltmp805:
	.loc	61 0 24 is_stmt 0
	leaq	-72(%rbp), %rdi
	.loc	61 45 9 is_stmt 1
	callq	__ZN4core3ptr67drop_in_place$LT$core..option..Option$LT$arboard..Clipboard$GT$$GT$17h4605190dbc17997bE
Ltmp806:
	jmp	LBB118_5
LBB118_2:
Ltmp804:
	.loc	61 0 9 is_stmt 0
	movq	%rax, %rcx
	movl	%edx, %eax
	movq	%rcx, -16(%rbp)
	movl	%eax, -8(%rbp)
	jmp	LBB118_1
LBB118_3:
	movq	-80(%rbp), %rax
	movq	-88(%rbp), %rcx
	.loc	61 30 9 is_stmt 1
	movq	-72(%rbp), %rsi
	movq	-64(%rbp), %rdx
	movq	%rsi, (%rcx)
	movq	%rdx, 8(%rcx)
	movq	-56(%rbp), %rdx
	movq	%rdx, 16(%rcx)
	movq	-48(%rbp), %rdx
	movq	%rdx, 24(%rcx)
	movq	-40(%rbp), %rdx
	movq	%rdx, 32(%rcx)
	.loc	61 46 6
	addq	$96, %rsp
	popq	%rbp
	retq
LBB118_4:
Ltmp807:
	.loc	61 29 5
	callq	__ZN4core9panicking19panic_cannot_unwind17h1fbca7e1d7f56ae1E
LBB118_5:
	movq	-16(%rbp), %rdi
	callq	__Unwind_Resume
Ltmp809:
Lfunc_end118:
	.cfi_endproc
	.section	__TEXT,__gcc_except_tab
	.p2align	2
GCC_except_table118:
Lexception14:
	.byte	255
	.byte	255
	.byte	1
	.uleb128 Lcst_end14-Lcst_begin14
Lcst_begin14:
	.uleb128 Lfunc_begin118-Lfunc_begin118
	.uleb128 Ltmp802-Lfunc_begin118
	.byte	0
	.byte	0
	.uleb128 Ltmp802-Lfunc_begin118
	.uleb128 Ltmp803-Ltmp802
	.uleb128 Ltmp804-Lfunc_begin118
	.byte	0
	.uleb128 Ltmp805-Lfunc_begin118
	.uleb128 Ltmp806-Ltmp805
	.uleb128 Ltmp807-Lfunc_begin118
	.byte	0
	.uleb128 Ltmp806-Lfunc_begin118
	.uleb128 Lfunc_end118-Ltmp806
	.byte	0
	.byte	0
Lcst_end14:
	.p2align	2

	.section	__TEXT,__text,regular,pure_instructions
	.globl	__ZN10egui_winit9clipboard9Clipboard3get17hd2c7db655a9d5255E
	.p2align	4, 0x90
__ZN10egui_winit9clipboard9Clipboard3get17hd2c7db655a9d5255E:
Lfunc_begin119:
	.loc	61 48 0
	.cfi_startproc
	.cfi_personality 155, _rust_eh_personality
	.cfi_lsda 16, Lexception15
	pushq	%rbp
	.cfi_def_cfa_offset 16
	.cfi_offset %rbp, -16
	movq	%rsp, %rbp
	.cfi_def_cfa_register %rbp
	subq	$880, %rsp
	movq	%rsi, -744(%rbp)
	movq	%rdi, -736(%rbp)
	movq	%rdi, -728(%rbp)
	movq	%rsi, -256(%rbp)
Ltmp846:
	.loc	61 70 16 prologue_end
	cmpq	$1, (%rsi)
	jne	LBB119_2
	.loc	61 0 16 is_stmt 0
	movq	-744(%rbp), %rsi
	.loc	61 70 21
	addq	$8, %rsi
	movq	%rsi, -248(%rbp)
	.loc	61 71 26 is_stmt 1
	leaq	-720(%rbp), %rdi
	callq	__ZN7arboard9Clipboard8get_text17h814b6e1fc323891bE
	movl	$1, %eax
	xorl	%ecx, %ecx
	cmpq	$5, -720(%rbp)
	cmoveq	%rcx, %rax
	.loc	61 71 20 is_stmt 0
	cmpq	$0, %rax
	je	LBB119_4
	jmp	LBB119_5
Ltmp847:
LBB119_2:
	.loc	61 0 20
	movq	-744(%rbp), %rsi
	.loc	61 80 14 is_stmt 1
	addq	$16, %rsi
	leaq	-280(%rbp), %rdi
	callq	__ZN60_$LT$alloc..string..String$u20$as$u20$core..clone..Clone$GT$5clone17hc71079bfaf42c3b8E
	movq	-736(%rbp), %rax
	.loc	61 80 9 is_stmt 0
	movq	-280(%rbp), %rcx
	movq	%rcx, (%rax)
	movq	-272(%rbp), %rcx
	movq	%rcx, 8(%rax)
	movq	-264(%rbp), %rcx
	movq	%rcx, 16(%rax)
LBB119_3:
	.loc	61 0 9
	movq	-728(%rbp), %rax
	.loc	61 81 6 is_stmt 1
	addq	$880, %rsp
	popq	%rbp
	retq
LBB119_4:
	.loc	61 0 6 is_stmt 0
	movq	-736(%rbp), %rax
Ltmp848:
	.loc	61 72 20 is_stmt 1
	movq	-712(%rbp), %rcx
	movq	%rcx, -688(%rbp)
	movq	-704(%rbp), %rcx
	movq	%rcx, -680(%rbp)
	movq	-696(%rbp), %rcx
	movq	%rcx, -672(%rbp)
Ltmp849:
	.loc	61 72 34 is_stmt 0
	movq	-688(%rbp), %rcx
	movq	%rcx, -664(%rbp)
	movq	-680(%rbp), %rcx
	movq	%rcx, -656(%rbp)
	movq	-672(%rbp), %rcx
	movq	%rcx, -648(%rbp)
	.loc	61 72 29
	movq	-664(%rbp), %rcx
	movq	%rcx, (%rax)
	movq	-656(%rbp), %rcx
	movq	%rcx, 8(%rax)
	movq	-648(%rbp), %rcx
	movq	%rcx, 16(%rax)
Ltmp850:
	.loc	61 72 38
	jmp	LBB119_3
LBB119_5:
	.loc	61 73 21 is_stmt 1
	movq	-720(%rbp), %rax
	movq	%rax, -640(%rbp)
	movq	-712(%rbp), %rax
	movq	%rax, -632(%rbp)
	movq	-704(%rbp), %rax
	movq	%rax, -624(%rbp)
	movq	-696(%rbp), %rax
	movq	%rax, -616(%rbp)
	leaq	L___unnamed_21(%rip), %rax
	movq	%rax, -192(%rbp)
	leaq	L___unnamed_22(%rip), %rax
	movq	%rax, -184(%rbp)
	leaq	L___unnamed_22(%rip), %rax
	movq	%rax, -72(%rbp)
Ltmp851:
	.file	62 "/Users/natalie/.cargo/registry/src/github.com-1ecc6299db9ec823/tracing-core-0.1.30/src" "metadata.rs"
	.loc	62 974 20
	leaq	L___unnamed_22(%rip), %rax
	movq	%rax, -64(%rbp)
Ltmp852:
	.loc	62 974 27 is_stmt 0
	movq	$0, -80(%rbp)
	movq	-80(%rbp), %rax
	movq	%rax, -88(%rbp)
Ltmp853:
	.loc	62 977 2 is_stmt 1
	movq	-88(%rbp), %rax
	movq	%rax, -752(%rbp)
Ltmp854:
	.loc	62 0 2 is_stmt 0
	movq	-752(%rbp), %rax
	.loc	62 957 39 is_stmt 1
	movq	$4, -200(%rbp)
	.loc	62 957 38 is_stmt 0
	movq	-200(%rbp), %rcx
	.loc	62 957 9
	cmpq	%rcx, %rax
	setbe	%al
	movb	%al, -753(%rbp)
	.loc	62 958 6 is_stmt 1
	jmp	LBB119_9
Ltmp855:
LBB119_7:
Ltmp843:
	.loc	62 0 6 is_stmt 0
	leaq	-640(%rbp), %rdi
	.loc	61 76 17 is_stmt 1
	callq	__ZN4core3ptr43drop_in_place$LT$arboard..common..Error$GT$17hb90170ad3a11a3b0E
Ltmp844:
	jmp	LBB119_55
LBB119_8:
Ltmp842:
	.loc	61 0 17 is_stmt 0
	movq	%rax, %rcx
	movl	%edx, %eax
	movq	%rcx, -240(%rbp)
	movl	%eax, -232(%rbp)
	jmp	LBB119_7
LBB119_9:
	movb	-753(%rbp), %al
Ltmp856:
	.loc	61 74 21 is_stmt 1
	testb	$1, %al
	jne	LBB119_11
	jmp	LBB119_10
LBB119_10:
	movb	$0, -601(%rbp)
	jmp	LBB119_30
LBB119_11:
Ltmp857:
	.loc	62 697 30
	movb	$0, -161(%rbp)
	.loc	62 697 15 is_stmt 0
	movzbl	-161(%rbp), %esi
Ltmp810:
	movq	__ZN12tracing_core8metadata9MAX_LEVEL17h860dbc7caee9e546E@GOTPCREL(%rip), %rdi
	callq	__ZN4core4sync6atomic11AtomicUsize4load17h194fee622e99db01E
Ltmp811:
	movq	%rax, -768(%rbp)
	jmp	LBB119_12
LBB119_12:
	.loc	62 0 15
	movq	-768(%rbp), %rax
	.loc	62 697 9
	movq	%rax, %rcx
	movq	%rcx, -776(%rbp)
	subq	$5, %rax
	ja	LBB119_13
	.loc	62 0 9
	movq	-776(%rbp), %rax
	leaq	LJTI119_0(%rip), %rcx
	movslq	(%rcx,%rax,4), %rax
	addq	%rcx, %rax
	jmpq	*%rax
LBB119_13:
	movq	-768(%rbp), %rax
	.loc	62 705 13 is_stmt 1
	movq	%rax, -160(%rbp)
Ltmp836:
	leaq	-160(%rbp), %rdi
Ltmp858:
	.loc	62 705 24 is_stmt 0
	callq	__ZN4core3fmt10ArgumentV19new_debug17h7c1f97874b7e88ecE
Ltmp837:
	movq	%rdx, -792(%rbp)
	movq	%rax, -784(%rbp)
	jmp	LBB119_14
LBB119_14:
	.loc	62 0 24
	movq	-792(%rbp), %rax
	movq	-784(%rbp), %rcx
	.loc	62 705 24
	movq	%rcx, -104(%rbp)
	movq	%rax, -96(%rbp)
Ltmp838:
	leaq	l___unnamed_23(%rip), %rsi
	leaq	-152(%rbp), %rdi
	leaq	-104(%rbp), %rcx
	movl	$1, %r8d
	movq	%r8, %rdx
	callq	__ZN4core3fmt9Arguments6new_v117h0377f2ee8509a1aeE
Ltmp839:
	jmp	LBB119_15
LBB119_15:
Ltmp840:
	leaq	l___unnamed_24(%rip), %rsi
	leaq	-152(%rbp), %rdi
	callq	__ZN4core9panicking9panic_fmt17h9b5d807e24bcaaedE
Ltmp841:
	jmp	LBB119_16
LBB119_16:
	ud2
Ltmp859:
LBB119_17:
	.loc	62 698 34 is_stmt 1
	movq	$4, -176(%rbp)
	jmp	LBB119_23
LBB119_18:
	.loc	62 699 33
	movq	$3, -176(%rbp)
	jmp	LBB119_23
LBB119_19:
	.loc	62 700 33
	movq	$2, -176(%rbp)
	jmp	LBB119_23
LBB119_20:
	.loc	62 701 34
	movq	$1, -176(%rbp)
	jmp	LBB119_23
LBB119_21:
	.loc	62 702 34
	movq	$0, -176(%rbp)
	jmp	LBB119_23
LBB119_22:
	.loc	62 703 32
	movq	$5, -176(%rbp)
LBB119_23:
	.loc	62 735 6
	movq	-176(%rbp), %rax
	movq	%rax, -800(%rbp)
Ltmp860:
	.loc	62 0 6 is_stmt 0
	movq	-800(%rbp), %rax
	.loc	61 74 21 is_stmt 1
	movq	%rax, -600(%rbp)
	leaq	L___unnamed_21(%rip), %rax
	movq	%rax, -216(%rbp)
	leaq	-600(%rbp), %rax
	movq	%rax, -208(%rbp)
	leaq	-600(%rbp), %rax
	movq	%rax, -40(%rbp)
Ltmp861:
	.loc	62 973 11
	cmpq	$5, -600(%rbp)
	sete	%al
	.loc	62 973 5 is_stmt 0
	testb	$1, %al
	jne	LBB119_25
	jmp	LBB119_26
LBB119_25:
	.loc	62 975 17 is_stmt 1
	movq	$5, -56(%rbp)
	jmp	LBB119_27
LBB119_26:
	.loc	62 974 20
	leaq	-600(%rbp), %rax
	movq	%rax, -32(%rbp)
Ltmp862:
	.loc	62 974 27 is_stmt 0
	movq	-600(%rbp), %rax
	movq	%rax, -48(%rbp)
	movq	-48(%rbp), %rax
	movq	%rax, -56(%rbp)
Ltmp863:
LBB119_27:
	.loc	62 977 2 is_stmt 1
	movq	-56(%rbp), %rax
	movq	%rax, -808(%rbp)
Ltmp864:
	.loc	62 0 2 is_stmt 0
	movq	-808(%rbp), %rax
	.loc	62 957 39 is_stmt 1
	movq	$4, -224(%rbp)
	.loc	62 957 38 is_stmt 0
	movq	-224(%rbp), %rcx
	.loc	62 957 9
	cmpq	%rcx, %rax
	setbe	%al
	movb	%al, -809(%rbp)
Ltmp865:
	.loc	62 0 9
	movb	-809(%rbp), %al
	.loc	61 74 21 is_stmt 1
	andb	$1, %al
	movb	%al, -601(%rbp)
LBB119_30:
	testb	$1, -601(%rbp)
	jne	LBB119_32
	movb	$0, -602(%rbp)
	jmp	LBB119_40
LBB119_32:
Ltmp812:
	leaq	__ZN10egui_winit9clipboard9Clipboard3get8CALLSITE17h2761579dc866d582E(%rip), %rdi
	callq	__ZN12tracing_core8callsite15DefaultCallsite8interest17h432049678a416c4dE
Ltmp813:
	movb	%al, -810(%rbp)
	jmp	LBB119_33
LBB119_33:
	.loc	61 0 21 is_stmt 0
	movb	-810(%rbp), %al
	.loc	61 74 21
	movb	%al, -585(%rbp)
Ltmp814:
	leaq	-585(%rbp), %rdi
Ltmp866:
	.loc	61 74 21
	callq	__ZN12tracing_core10subscriber8Interest8is_never17h77b9eb825ad9532fE
Ltmp815:
	movb	%al, -811(%rbp)
	jmp	LBB119_34
LBB119_34:
	.loc	61 0 21
	movb	-811(%rbp), %al
	.loc	61 74 21
	xorb	$-1, %al
	testb	$1, %al
	jne	LBB119_36
	movb	$0, -586(%rbp)
	jmp	LBB119_39
LBB119_36:
	.loc	61 0 21
	leaq	__ZN10egui_winit9clipboard9Clipboard3get8CALLSITE17h2761579dc866d582E(%rip), %rax
	movq	%rax, -8(%rbp)
Ltmp867:
	.loc	6 373 9 is_stmt 1
	movq	__ZN10egui_winit9clipboard9Clipboard3get8CALLSITE17h2761579dc866d582E+8(%rip), %rax
	movq	%rax, -824(%rbp)
Ltmp868:
	.loc	6 0 9 is_stmt 0
	movq	-824(%rbp), %rdi
	.loc	61 74 21 is_stmt 1
	movzbl	-585(%rbp), %esi
Ltmp816:
	callq	__ZN7tracing15__macro_support12__is_enabled17hca875284808c7eecE
Ltmp817:
	movb	%al, -825(%rbp)
	jmp	LBB119_38
LBB119_38:
	.loc	61 0 21 is_stmt 0
	movb	-825(%rbp), %al
	.loc	61 74 21
	andb	$1, %al
	movb	%al, -586(%rbp)
Ltmp869:
LBB119_39:
	.loc	61 74 21
	movb	-586(%rbp), %al
	andb	$1, %al
	movb	%al, -602(%rbp)
LBB119_40:
Ltmp870:
	.loc	61 74 21
	testb	$1, -602(%rbp)
	jne	LBB119_42
Ltmp871:
LBB119_41:
	.loc	61 0 21
	movq	-736(%rbp), %rax
	.loc	61 75 21 is_stmt 1
	movq	$0, 8(%rax)
Ltmp872:
	.loc	61 76 17
	leaq	-640(%rbp), %rdi
	callq	__ZN4core3ptr43drop_in_place$LT$arboard..common..Error$GT$17hb90170ad3a11a3b0E
	jmp	LBB119_3
LBB119_42:
	.loc	61 0 17 is_stmt 0
	leaq	__ZN10egui_winit9clipboard9Clipboard3get8CALLSITE17h2761579dc866d582E(%rip), %rax
	movq	%rax, -16(%rbp)
Ltmp873:
	.loc	6 373 9 is_stmt 1
	movq	__ZN10egui_winit9clipboard9Clipboard3get8CALLSITE17h2761579dc866d582E+8(%rip), %rax
	movq	%rax, -840(%rbp)
Ltmp874:
Ltmp818:
	.loc	6 0 9 is_stmt 0
	movq	-840(%rbp), %rdi
	.loc	61 74 21 is_stmt 1
	callq	__ZN12tracing_core8metadata8Metadata6fields17h0fa6b86fe1c99646E
Ltmp819:
	movq	%rax, -848(%rbp)
	jmp	LBB119_44
LBB119_44:
Ltmp820:
	.loc	61 0 21 is_stmt 0
	movq	-848(%rbp), %rsi
	leaq	-536(%rbp), %rdi
	.loc	61 74 21
	callq	__ZN12tracing_core5field8FieldSet4iter17h73573d644296ec12E
Ltmp821:
	jmp	LBB119_45
LBB119_45:
	.loc	61 0 21
	leaq	__ZN10egui_winit9clipboard9Clipboard3get8CALLSITE17h2761579dc866d582E(%rip), %rax
	movq	%rax, -24(%rbp)
Ltmp875:
	.loc	6 373 9 is_stmt 1
	movq	__ZN10egui_winit9clipboard9Clipboard3get8CALLSITE17h2761579dc866d582E+8(%rip), %rax
	movq	%rax, -856(%rbp)
Ltmp876:
Ltmp822:
	.loc	6 0 9 is_stmt 0
	movq	-856(%rbp), %rdi
	.loc	61 74 21 is_stmt 1
	callq	__ZN12tracing_core8metadata8Metadata6fields17h0fa6b86fe1c99646E
Ltmp823:
	movq	%rax, -864(%rbp)
	jmp	LBB119_47
LBB119_47:
Ltmp824:
	.loc	61 0 21 is_stmt 0
	leaq	-400(%rbp), %rdi
	leaq	-536(%rbp), %rsi
	.loc	61 74 21
	callq	__ZN84_$LT$tracing_core..field..Iter$u20$as$u20$core..iter..traits..iterator..Iterator$GT$4next17h924a66df5efe258dE
Ltmp825:
	jmp	LBB119_48
LBB119_48:
Ltmp826:
	leaq	l___unnamed_25(%rip), %rdx
	leaq	l___unnamed_26(%rip), %r8
	leaq	-440(%rbp), %rdi
	leaq	-400(%rbp), %rsi
	movl	$34, %ecx
	callq	__ZN4core6option15Option$LT$T$GT$6expect17h6906667bdbb85694E
Ltmp827:
	jmp	LBB119_49
LBB119_49:
Ltmp828:
	.loc	61 0 21
	leaq	-640(%rbp), %rdi
	.loc	61 74 21
	callq	__ZN4core3fmt10ArgumentV111new_display17h704f10e15f7e0298E
Ltmp829:
	movq	%rdx, -880(%rbp)
	movq	%rax, -872(%rbp)
	jmp	LBB119_50
LBB119_50:
	.loc	61 0 21
	movq	-880(%rbp), %rax
	movq	-872(%rbp), %rcx
	.loc	61 74 21
	movq	%rcx, -296(%rbp)
	movq	%rax, -288(%rbp)
Ltmp830:
	leaq	l___unnamed_27(%rip), %rsi
	leaq	-344(%rbp), %rdi
	leaq	-296(%rbp), %rcx
	movl	$1, %r8d
	movq	%r8, %rdx
	callq	__ZN4core3fmt9Arguments6new_v117h0377f2ee8509a1aeE
Ltmp831:
	jmp	LBB119_51
LBB119_51:
	.loc	61 0 21
	movq	-864(%rbp), %rsi
	leaq	-344(%rbp), %rax
	.loc	61 74 21
	movq	%rax, -360(%rbp)
	leaq	l___unnamed_1(%rip), %rax
	movq	%rax, -352(%rbp)
	leaq	-440(%rbp), %rax
	movq	%rax, -464(%rbp)
	movq	-360(%rbp), %rcx
	movq	-352(%rbp), %rax
	movq	%rcx, -456(%rbp)
	movq	%rax, -448(%rbp)
	movq	-448(%rbp), %rax
	movq	%rax, -472(%rbp)
	movq	-464(%rbp), %rax
	movq	-456(%rbp), %rcx
	movq	%rcx, -480(%rbp)
	movq	%rax, -488(%rbp)
Ltmp832:
	leaq	-560(%rbp), %rdi
	leaq	-488(%rbp), %rdx
	callq	__ZN12tracing_core5field8FieldSet9value_set17hc56630d7d5753bb1E
Ltmp833:
	jmp	LBB119_52
Ltmp877:
LBB119_52:
	.loc	61 74 21
	movq	-544(%rbp), %rax
	movq	%rax, -568(%rbp)
	movq	-560(%rbp), %rax
	movq	-552(%rbp), %rcx
	movq	%rcx, -576(%rbp)
	movq	%rax, -584(%rbp)
Ltmp834:
	leaq	l___unnamed_6(%rip), %rdi
	leaq	-584(%rbp), %rsi
	callq	__ZN10egui_winit9clipboard9Clipboard3get28_$u7b$$u7b$closure$u7d$$u7d$17ha78f88a8035f9e47E
Ltmp835:
	jmp	LBB119_53
LBB119_53:
	jmp	LBB119_41
Ltmp878:
LBB119_54:
Ltmp845:
	.loc	61 48 5 is_stmt 1
	callq	__ZN4core9panicking19panic_cannot_unwind17h1fbca7e1d7f56ae1E
LBB119_55:
	movq	-240(%rbp), %rdi
	callq	__Unwind_Resume
Ltmp879:
Lfunc_end119:
	.cfi_endproc
	.p2align	2, 0x90
	.data_region jt32
.set L119_0_set_21, LBB119_21-LJTI119_0
.set L119_0_set_20, LBB119_20-LJTI119_0
.set L119_0_set_19, LBB119_19-LJTI119_0
.set L119_0_set_18, LBB119_18-LJTI119_0
.set L119_0_set_17, LBB119_17-LJTI119_0
.set L119_0_set_22, LBB119_22-LJTI119_0
LJTI119_0:
	.long	L119_0_set_21
	.long	L119_0_set_20
	.long	L119_0_set_19
	.long	L119_0_set_18
	.long	L119_0_set_17
	.long	L119_0_set_22
	.end_data_region
	.section	__TEXT,__gcc_except_tab
	.p2align	2
GCC_except_table119:
Lexception15:
	.byte	255
	.byte	255
	.byte	1
	.uleb128 Lcst_end15-Lcst_begin15
Lcst_begin15:
	.uleb128 Lfunc_begin119-Lfunc_begin119
	.uleb128 Ltmp843-Lfunc_begin119
	.byte	0
	.byte	0
	.uleb128 Ltmp843-Lfunc_begin119
	.uleb128 Ltmp844-Ltmp843
	.uleb128 Ltmp845-Lfunc_begin119
	.byte	0
	.uleb128 Ltmp810-Lfunc_begin119
	.uleb128 Ltmp817-Ltmp810
	.uleb128 Ltmp842-Lfunc_begin119
	.byte	0
	.uleb128 Ltmp817-Lfunc_begin119
	.uleb128 Ltmp818-Ltmp817
	.byte	0
	.byte	0
	.uleb128 Ltmp818-Lfunc_begin119
	.uleb128 Ltmp835-Ltmp818
	.uleb128 Ltmp842-Lfunc_begin119
	.byte	0
	.uleb128 Ltmp835-Lfunc_begin119
	.uleb128 Lfunc_end119-Ltmp835
	.byte	0
	.byte	0
Lcst_end15:
	.p2align	2

	.section	__TEXT,__text,regular,pure_instructions
	.globl	__ZN10egui_winit9clipboard9Clipboard3set17h44d4ae9e7d6cea6dE
	.p2align	4, 0x90
__ZN10egui_winit9clipboard9Clipboard3set17h44d4ae9e7d6cea6dE:
Lfunc_begin120:
	.loc	61 83 0
	.cfi_startproc
	.cfi_personality 155, _rust_eh_personality
	.cfi_lsda 16, Lexception16
	pushq	%rbp
	.cfi_def_cfa_offset 16
	.cfi_offset %rbp, -16
	movq	%rsp, %rbp
	.cfi_def_cfa_register %rbp
	subq	$864, %rsp
	movq	%rdi, -720(%rbp)
	movq	%rsi, -712(%rbp)
Ltmp919:
	movq	%rdi, -256(%rbp)
Ltmp920:
	.loc	61 100 9 prologue_end
	movb	$0, -257(%rbp)
Ltmp921:
	.loc	61 100 16 is_stmt 0
	cmpq	$1, (%rdi)
Ltmp922:
	jne	LBB120_2
Ltmp923:
	.loc	61 0 16
	movq	-712(%rbp), %rax
	movq	-720(%rbp), %rsi
	.loc	61 100 21
	addq	$8, %rsi
	movq	%rsi, -232(%rbp)
Ltmp924:
	.loc	61 101 50 is_stmt 1
	movq	(%rax), %rcx
	movq	%rcx, -672(%rbp)
	movq	8(%rax), %rcx
	movq	%rcx, -664(%rbp)
	movq	16(%rax), %rax
	movq	%rax, -656(%rbp)
	.loc	61 101 31 is_stmt 0
	leaq	-704(%rbp), %rdi
	leaq	-672(%rbp), %rdx
	callq	__ZN7arboard9Clipboard8set_text17hc35ce644d224894aE
	.loc	61 101 54
	movb	$1, -257(%rbp)
	.loc	61 101 20
	movl	$1, %eax
	xorl	%ecx, %ecx
	cmpq	$5, -704(%rbp)
	cmoveq	%rcx, %rax
	cmpq	$1, %rax
	je	LBB120_8
	jmp	LBB120_10
Ltmp925:
LBB120_2:
	.loc	61 0 20
	movq	-720(%rbp), %rdi
	movq	-712(%rbp), %rcx
	.loc	61 107 26 is_stmt 1
	movq	16(%rcx), %rax
	movq	%rax, -272(%rbp)
	movq	(%rcx), %rax
	movq	8(%rcx), %rcx
	movq	%rcx, -280(%rbp)
	movq	%rax, -288(%rbp)
	.loc	61 107 9 is_stmt 0
	addq	$16, %rdi
Ltmp880:
	callq	__ZN4core3ptr42drop_in_place$LT$alloc..string..String$GT$17hef0d0483296c488eE
Ltmp881:
	jmp	LBB120_5
Ltmp926:
LBB120_3:
	.loc	61 0 9
	movq	-720(%rbp), %rax
	.loc	61 107 9
	movq	-288(%rbp), %rcx
	movq	%rcx, 16(%rax)
	movq	-280(%rbp), %rcx
	movq	%rcx, 24(%rax)
	movq	-272(%rbp), %rcx
	movq	%rcx, 32(%rax)
	jmp	LBB120_6
Ltmp927:
LBB120_4:
Ltmp882:
	.loc	61 0 9
	movq	%rax, %rcx
	movl	%edx, %eax
	movq	%rcx, -248(%rbp)
	movl	%eax, -240(%rbp)
	jmp	LBB120_3
Ltmp928:
LBB120_5:
	movq	-720(%rbp), %rax
	.loc	61 107 9
	movq	-288(%rbp), %rcx
	movq	%rcx, 16(%rax)
	movq	-280(%rbp), %rcx
	movq	%rcx, 24(%rax)
	movq	-272(%rbp), %rcx
	movq	%rcx, 32(%rax)
	.loc	61 108 5 is_stmt 1
	jmp	LBB120_7
Ltmp929:
LBB120_6:
	.loc	61 83 5
	movq	-248(%rbp), %rdi
	callq	__Unwind_Resume
Ltmp930:
LBB120_7:
	.loc	61 108 6
	addq	$864, %rsp
	popq	%rbp
	retq
Ltmp931:
LBB120_8:
	.loc	61 101 24
	movb	$0, -257(%rbp)
	movq	-704(%rbp), %rax
	movq	%rax, -648(%rbp)
	movq	-696(%rbp), %rax
	movq	%rax, -640(%rbp)
	movq	-688(%rbp), %rax
	movq	%rax, -632(%rbp)
	movq	-680(%rbp), %rax
	movq	%rax, -624(%rbp)
	leaq	L___unnamed_21(%rip), %rax
	movq	%rax, -192(%rbp)
	leaq	L___unnamed_22(%rip), %rax
	movq	%rax, -184(%rbp)
	leaq	L___unnamed_22(%rip), %rax
	movq	%rax, -72(%rbp)
Ltmp932:
	.loc	62 974 20
	leaq	L___unnamed_22(%rip), %rax
	movq	%rax, -64(%rbp)
Ltmp933:
	.loc	62 974 27 is_stmt 0
	movq	$0, -80(%rbp)
	movq	-80(%rbp), %rax
	movq	%rax, -88(%rbp)
Ltmp934:
	.loc	62 977 2 is_stmt 1
	movq	-88(%rbp), %rax
	movq	%rax, -728(%rbp)
Ltmp935:
	.loc	62 0 2 is_stmt 0
	movq	-728(%rbp), %rax
	.loc	62 957 39 is_stmt 1
	movq	$4, -200(%rbp)
	.loc	62 957 38 is_stmt 0
	movq	-200(%rbp), %rcx
	.loc	62 957 9
	cmpq	%rcx, %rax
	setbe	%al
	movb	%al, -729(%rbp)
	.loc	62 958 6 is_stmt 1
	jmp	LBB120_13
Ltmp936:
LBB120_10:
	.loc	61 103 13
	movl	$1, %eax
	xorl	%ecx, %ecx
	cmpq	$5, -704(%rbp)
	cmoveq	%rcx, %rax
	cmpq	$1, %rax
	je	LBB120_59
	jmp	LBB120_60
Ltmp937:
LBB120_11:
Ltmp916:
	.loc	61 0 13 is_stmt 0
	leaq	-648(%rbp), %rdi
	.loc	61 103 13
	callq	__ZN4core3ptr43drop_in_place$LT$arboard..common..Error$GT$17hb90170ad3a11a3b0E
Ltmp917:
	jmp	LBB120_6
Ltmp938:
LBB120_12:
Ltmp915:
	.loc	61 0 13
	movq	%rax, %rcx
	movl	%edx, %eax
	movq	%rcx, -248(%rbp)
	movl	%eax, -240(%rbp)
	jmp	LBB120_11
Ltmp939:
LBB120_13:
	movb	-729(%rbp), %al
Ltmp940:
	.loc	61 102 17 is_stmt 1
	testb	$1, %al
	jne	LBB120_15
	jmp	LBB120_14
Ltmp941:
LBB120_14:
	movb	$0, -609(%rbp)
	jmp	LBB120_34
Ltmp942:
LBB120_15:
	.loc	62 697 30
	movb	$0, -161(%rbp)
	.loc	62 697 15 is_stmt 0
	movzbl	-161(%rbp), %esi
Ltmp883:
	movq	__ZN12tracing_core8metadata9MAX_LEVEL17h860dbc7caee9e546E@GOTPCREL(%rip), %rdi
	callq	__ZN4core4sync6atomic11AtomicUsize4load17h194fee622e99db01E
Ltmp884:
	movq	%rax, -744(%rbp)
	jmp	LBB120_16
Ltmp943:
LBB120_16:
	.loc	62 0 15
	movq	-744(%rbp), %rax
	.loc	62 697 9
	movq	%rax, %rcx
	movq	%rcx, -752(%rbp)
	subq	$5, %rax
	ja	LBB120_17
Ltmp944:
	.loc	62 0 9
	movq	-752(%rbp), %rax
	leaq	LJTI120_0(%rip), %rcx
	movslq	(%rcx,%rax,4), %rax
	addq	%rcx, %rax
	jmpq	*%rax
Ltmp945:
LBB120_17:
	movq	-744(%rbp), %rax
	.loc	62 705 13 is_stmt 1
	movq	%rax, -160(%rbp)
Ltmp909:
	leaq	-160(%rbp), %rdi
Ltmp946:
	.loc	62 705 24 is_stmt 0
	callq	__ZN4core3fmt10ArgumentV19new_debug17h7c1f97874b7e88ecE
Ltmp910:
	movq	%rdx, -768(%rbp)
	movq	%rax, -760(%rbp)
	jmp	LBB120_18
Ltmp947:
LBB120_18:
	.loc	62 0 24
	movq	-768(%rbp), %rax
	movq	-760(%rbp), %rcx
	.loc	62 705 24
	movq	%rcx, -104(%rbp)
	movq	%rax, -96(%rbp)
Ltmp911:
	leaq	l___unnamed_23(%rip), %rsi
	leaq	-152(%rbp), %rdi
	leaq	-104(%rbp), %rcx
	movl	$1, %r8d
	movq	%r8, %rdx
	callq	__ZN4core3fmt9Arguments6new_v117h0377f2ee8509a1aeE
Ltmp912:
	jmp	LBB120_19
Ltmp948:
LBB120_19:
Ltmp913:
	leaq	l___unnamed_24(%rip), %rsi
	leaq	-152(%rbp), %rdi
	callq	__ZN4core9panicking9panic_fmt17h9b5d807e24bcaaedE
Ltmp914:
	jmp	LBB120_20
Ltmp949:
LBB120_20:
	ud2
Ltmp950:
LBB120_21:
	.loc	62 698 34 is_stmt 1
	movq	$4, -176(%rbp)
	jmp	LBB120_27
Ltmp951:
LBB120_22:
	.loc	62 699 33
	movq	$3, -176(%rbp)
	jmp	LBB120_27
Ltmp952:
LBB120_23:
	.loc	62 700 33
	movq	$2, -176(%rbp)
	jmp	LBB120_27
Ltmp953:
LBB120_24:
	.loc	62 701 34
	movq	$1, -176(%rbp)
	jmp	LBB120_27
Ltmp954:
LBB120_25:
	.loc	62 702 34
	movq	$0, -176(%rbp)
	jmp	LBB120_27
Ltmp955:
LBB120_26:
	.loc	62 703 32
	movq	$5, -176(%rbp)
Ltmp956:
LBB120_27:
	.loc	62 735 6
	movq	-176(%rbp), %rax
	movq	%rax, -776(%rbp)
Ltmp957:
	.loc	62 0 6 is_stmt 0
	movq	-776(%rbp), %rax
	.loc	61 102 17 is_stmt 1
	movq	%rax, -608(%rbp)
	leaq	L___unnamed_21(%rip), %rax
	movq	%rax, -216(%rbp)
	leaq	-608(%rbp), %rax
	movq	%rax, -208(%rbp)
	leaq	-608(%rbp), %rax
	movq	%rax, -40(%rbp)
Ltmp958:
	.loc	62 973 11
	cmpq	$5, -608(%rbp)
	sete	%al
	.loc	62 973 5 is_stmt 0
	testb	$1, %al
	jne	LBB120_29
	jmp	LBB120_30
Ltmp959:
LBB120_29:
	.loc	62 975 17 is_stmt 1
	movq	$5, -56(%rbp)
	jmp	LBB120_31
Ltmp960:
LBB120_30:
	.loc	62 974 20
	leaq	-608(%rbp), %rax
	movq	%rax, -32(%rbp)
Ltmp961:
	.loc	62 974 27 is_stmt 0
	movq	-608(%rbp), %rax
	movq	%rax, -48(%rbp)
	movq	-48(%rbp), %rax
	movq	%rax, -56(%rbp)
Ltmp962:
LBB120_31:
	.loc	62 977 2 is_stmt 1
	movq	-56(%rbp), %rax
	movq	%rax, -784(%rbp)
Ltmp963:
	.loc	62 0 2 is_stmt 0
	movq	-784(%rbp), %rax
	.loc	62 957 39 is_stmt 1
	movq	$4, -224(%rbp)
	.loc	62 957 38 is_stmt 0
	movq	-224(%rbp), %rcx
	.loc	62 957 9
	cmpq	%rcx, %rax
	setbe	%al
	movb	%al, -785(%rbp)
Ltmp964:
	.loc	62 0 9
	movb	-785(%rbp), %al
	.loc	61 102 17 is_stmt 1
	andb	$1, %al
	movb	%al, -609(%rbp)
Ltmp965:
LBB120_34:
	testb	$1, -609(%rbp)
	jne	LBB120_36
Ltmp966:
	movb	$0, -610(%rbp)
	jmp	LBB120_44
Ltmp967:
LBB120_36:
Ltmp885:
	leaq	__ZN10egui_winit9clipboard9Clipboard3set8CALLSITE17hb8fdfdc101123a7bE(%rip), %rdi
	callq	__ZN12tracing_core8callsite15DefaultCallsite8interest17h432049678a416c4dE
Ltmp886:
	movb	%al, -786(%rbp)
	jmp	LBB120_37
Ltmp968:
LBB120_37:
	.loc	61 0 17 is_stmt 0
	movb	-786(%rbp), %al
	.loc	61 102 17
	movb	%al, -593(%rbp)
Ltmp887:
	leaq	-593(%rbp), %rdi
Ltmp969:
	.loc	61 102 17
	callq	__ZN12tracing_core10subscriber8Interest8is_never17h77b9eb825ad9532fE
Ltmp888:
	movb	%al, -787(%rbp)
	jmp	LBB120_38
Ltmp970:
LBB120_38:
	.loc	61 0 17
	movb	-787(%rbp), %al
	.loc	61 102 17
	xorb	$-1, %al
	testb	$1, %al
	jne	LBB120_40
Ltmp971:
	movb	$0, -594(%rbp)
	jmp	LBB120_43
Ltmp972:
LBB120_40:
	.loc	61 0 17
	leaq	__ZN10egui_winit9clipboard9Clipboard3set8CALLSITE17hb8fdfdc101123a7bE(%rip), %rax
	movq	%rax, -8(%rbp)
Ltmp973:
	.loc	6 373 9 is_stmt 1
	movq	__ZN10egui_winit9clipboard9Clipboard3set8CALLSITE17hb8fdfdc101123a7bE+8(%rip), %rax
	movq	%rax, -800(%rbp)
Ltmp974:
	.loc	6 0 9 is_stmt 0
	movq	-800(%rbp), %rdi
	.loc	61 102 17 is_stmt 1
	movzbl	-593(%rbp), %esi
Ltmp889:
	callq	__ZN7tracing15__macro_support12__is_enabled17hca875284808c7eecE
Ltmp890:
	movb	%al, -801(%rbp)
	jmp	LBB120_42
Ltmp975:
LBB120_42:
	.loc	61 0 17 is_stmt 0
	movb	-801(%rbp), %al
	.loc	61 102 17
	andb	$1, %al
	movb	%al, -594(%rbp)
Ltmp976:
LBB120_43:
	.loc	61 102 17
	movb	-594(%rbp), %al
	andb	$1, %al
	movb	%al, -610(%rbp)
Ltmp977:
LBB120_44:
	.loc	61 102 17
	testb	$1, -610(%rbp)
	jne	LBB120_46
Ltmp978:
LBB120_45:
	.loc	61 103 13 is_stmt 1
	leaq	-648(%rbp), %rdi
	callq	__ZN4core3ptr43drop_in_place$LT$arboard..common..Error$GT$17hb90170ad3a11a3b0E
	jmp	LBB120_10
Ltmp979:
LBB120_46:
	.loc	61 0 13 is_stmt 0
	leaq	__ZN10egui_winit9clipboard9Clipboard3set8CALLSITE17hb8fdfdc101123a7bE(%rip), %rax
	movq	%rax, -16(%rbp)
Ltmp980:
	.loc	6 373 9 is_stmt 1
	movq	__ZN10egui_winit9clipboard9Clipboard3set8CALLSITE17hb8fdfdc101123a7bE+8(%rip), %rax
	movq	%rax, -816(%rbp)
Ltmp981:
Ltmp891:
	.loc	6 0 9 is_stmt 0
	movq	-816(%rbp), %rdi
	.loc	61 102 17 is_stmt 1
	callq	__ZN12tracing_core8metadata8Metadata6fields17h0fa6b86fe1c99646E
Ltmp892:
	movq	%rax, -824(%rbp)
	jmp	LBB120_48
Ltmp982:
LBB120_48:
Ltmp893:
	.loc	61 0 17 is_stmt 0
	movq	-824(%rbp), %rsi
	leaq	-544(%rbp), %rdi
	.loc	61 102 17
	callq	__ZN12tracing_core5field8FieldSet4iter17h73573d644296ec12E
Ltmp894:
	jmp	LBB120_49
Ltmp983:
LBB120_49:
	.loc	61 0 17
	leaq	__ZN10egui_winit9clipboard9Clipboard3set8CALLSITE17hb8fdfdc101123a7bE(%rip), %rax
	movq	%rax, -24(%rbp)
Ltmp984:
	.loc	6 373 9 is_stmt 1
	movq	__ZN10egui_winit9clipboard9Clipboard3set8CALLSITE17hb8fdfdc101123a7bE+8(%rip), %rax
	movq	%rax, -832(%rbp)
Ltmp985:
Ltmp895:
	.loc	6 0 9 is_stmt 0
	movq	-832(%rbp), %rdi
	.loc	61 102 17 is_stmt 1
	callq	__ZN12tracing_core8metadata8Metadata6fields17h0fa6b86fe1c99646E
Ltmp896:
	movq	%rax, -840(%rbp)
	jmp	LBB120_51
Ltmp986:
LBB120_51:
Ltmp897:
	.loc	61 0 17 is_stmt 0
	leaq	-408(%rbp), %rdi
	leaq	-544(%rbp), %rsi
	.loc	61 102 17
	callq	__ZN84_$LT$tracing_core..field..Iter$u20$as$u20$core..iter..traits..iterator..Iterator$GT$4next17h924a66df5efe258dE
Ltmp898:
	jmp	LBB120_52
Ltmp987:
LBB120_52:
Ltmp899:
	leaq	l___unnamed_25(%rip), %rdx
	leaq	l___unnamed_28(%rip), %r8
	leaq	-448(%rbp), %rdi
	leaq	-408(%rbp), %rsi
	movl	$34, %ecx
	callq	__ZN4core6option15Option$LT$T$GT$6expect17h6906667bdbb85694E
Ltmp900:
	jmp	LBB120_53
Ltmp988:
LBB120_53:
Ltmp901:
	.loc	61 0 17
	leaq	-648(%rbp), %rdi
	.loc	61 102 17
	callq	__ZN4core3fmt10ArgumentV111new_display17h704f10e15f7e0298E
Ltmp902:
	movq	%rdx, -856(%rbp)
	movq	%rax, -848(%rbp)
	jmp	LBB120_54
Ltmp989:
LBB120_54:
	.loc	61 0 17
	movq	-856(%rbp), %rax
	movq	-848(%rbp), %rcx
	.loc	61 102 17
	movq	%rcx, -304(%rbp)
	movq	%rax, -296(%rbp)
Ltmp903:
	leaq	l___unnamed_29(%rip), %rsi
	leaq	-352(%rbp), %rdi
	leaq	-304(%rbp), %rcx
	movl	$1, %r8d
	movq	%r8, %rdx
	callq	__ZN4core3fmt9Arguments6new_v117h0377f2ee8509a1aeE
Ltmp904:
	jmp	LBB120_55
Ltmp990:
LBB120_55:
	.loc	61 0 17
	movq	-840(%rbp), %rsi
	leaq	-352(%rbp), %rax
	.loc	61 102 17
	movq	%rax, -368(%rbp)
	leaq	l___unnamed_1(%rip), %rax
	movq	%rax, -360(%rbp)
	leaq	-448(%rbp), %rax
	movq	%rax, -472(%rbp)
	movq	-368(%rbp), %rcx
	movq	-360(%rbp), %rax
	movq	%rcx, -464(%rbp)
	movq	%rax, -456(%rbp)
	movq	-456(%rbp), %rax
	movq	%rax, -480(%rbp)
	movq	-472(%rbp), %rax
	movq	-464(%rbp), %rcx
	movq	%rcx, -488(%rbp)
	movq	%rax, -496(%rbp)
Ltmp905:
	leaq	-568(%rbp), %rdi
	leaq	-496(%rbp), %rdx
	callq	__ZN12tracing_core5field8FieldSet9value_set17hc56630d7d5753bb1E
Ltmp906:
	jmp	LBB120_56
Ltmp991:
LBB120_56:
	.loc	61 102 17
	movq	-552(%rbp), %rax
	movq	%rax, -576(%rbp)
	movq	-568(%rbp), %rax
	movq	-560(%rbp), %rcx
	movq	%rcx, -584(%rbp)
	movq	%rax, -592(%rbp)
Ltmp907:
	leaq	l___unnamed_6(%rip), %rdi
	leaq	-592(%rbp), %rsi
	callq	__ZN10egui_winit9clipboard9Clipboard3set28_$u7b$$u7b$closure$u7d$$u7d$17hca056a8817b77938E
Ltmp908:
	jmp	LBB120_57
Ltmp992:
LBB120_57:
	jmp	LBB120_45
Ltmp993:
LBB120_58:
Ltmp918:
	.loc	61 83 5 is_stmt 1
	callq	__ZN4core9panicking19panic_cannot_unwind17h1fbca7e1d7f56ae1E
Ltmp994:
LBB120_59:
	.loc	61 103 13
	testb	$1, -257(%rbp)
	jne	LBB120_61
Ltmp995:
LBB120_60:
	movb	$0, -257(%rbp)
Ltmp996:
	.loc	61 108 5
	jmp	LBB120_7
Ltmp997:
LBB120_61:
	.loc	61 103 13
	leaq	-704(%rbp), %rdi
	callq	__ZN4core3ptr43drop_in_place$LT$arboard..common..Error$GT$17hb90170ad3a11a3b0E
	jmp	LBB120_60
Ltmp998:
Lfunc_end120:
	.cfi_endproc
	.p2align	2, 0x90
	.data_region jt32
.set L120_0_set_25, LBB120_25-LJTI120_0
.set L120_0_set_24, LBB120_24-LJTI120_0
.set L120_0_set_23, LBB120_23-LJTI120_0
.set L120_0_set_22, LBB120_22-LJTI120_0
.set L120_0_set_21, LBB120_21-LJTI120_0
.set L120_0_set_26, LBB120_26-LJTI120_0
LJTI120_0:
	.long	L120_0_set_25
	.long	L120_0_set_24
	.long	L120_0_set_23
	.long	L120_0_set_22
	.long	L120_0_set_21
	.long	L120_0_set_26
	.end_data_region
	.section	__TEXT,__gcc_except_tab
	.p2align	2
GCC_except_table120:
Lexception16:
	.byte	255
	.byte	255
	.byte	1
	.uleb128 Lcst_end16-Lcst_begin16
Lcst_begin16:
	.uleb128 Lfunc_begin120-Lfunc_begin120
	.uleb128 Ltmp880-Lfunc_begin120
	.byte	0
	.byte	0
	.uleb128 Ltmp880-Lfunc_begin120
	.uleb128 Ltmp881-Ltmp880
	.uleb128 Ltmp882-Lfunc_begin120
	.byte	0
	.uleb128 Ltmp881-Lfunc_begin120
	.uleb128 Ltmp916-Ltmp881
	.byte	0
	.byte	0
	.uleb128 Ltmp916-Lfunc_begin120
	.uleb128 Ltmp917-Ltmp916
	.uleb128 Ltmp918-Lfunc_begin120
	.byte	0
	.uleb128 Ltmp883-Lfunc_begin120
	.uleb128 Ltmp890-Ltmp883
	.uleb128 Ltmp915-Lfunc_begin120
	.byte	0
	.uleb128 Ltmp890-Lfunc_begin120
	.uleb128 Ltmp891-Ltmp890
	.byte	0
	.byte	0
	.uleb128 Ltmp891-Lfunc_begin120
	.uleb128 Ltmp908-Ltmp891
	.uleb128 Ltmp915-Lfunc_begin120
	.byte	0
	.uleb128 Ltmp908-Lfunc_begin120
	.uleb128 Lfunc_end120-Ltmp908
	.byte	0
	.byte	0
Lcst_end16:
	.p2align	2

	.section	__TEXT,__text,regular,pure_instructions
	.p2align	4, 0x90
__ZN10egui_winit9clipboard12init_arboard17hd99f6d78743cc1b4E:
Lfunc_begin121:
	.loc	61 112 0
	.cfi_startproc
	.cfi_personality 155, _rust_eh_personality
	.cfi_lsda 16, Lexception17
	pushq	%rbp
	.cfi_def_cfa_offset 16
	.cfi_offset %rbp, -16
	movq	%rsp, %rbp
	.cfi_def_cfa_register %rbp
	subq	$800, %rsp
Ltmp1035:
	.loc	61 113 11 prologue_end
	leaq	-640(%rbp), %rdi
	callq	__ZN7arboard9Clipboard3new17h70a3ebf447d25069E
	movl	$1, %eax
	xorl	%ecx, %ecx
	cmpq	$5, -640(%rbp)
	cmoveq	%rcx, %rax
	.loc	61 113 5 is_stmt 0
	cmpq	$0, %rax
	jne	LBB121_2
	.loc	61 114 12 is_stmt 1
	movq	-632(%rbp), %rax
	movq	%rax, -232(%rbp)
Ltmp1036:
	.loc	61 114 26 is_stmt 0
	movq	%rax, -648(%rbp)
	movq	$1, -656(%rbp)
Ltmp1037:
	.loc	61 114 40
	jmp	LBB121_53
LBB121_2:
	.loc	61 115 13 is_stmt 1
	movq	-640(%rbp), %rax
	movq	%rax, -608(%rbp)
	movq	-632(%rbp), %rax
	movq	%rax, -600(%rbp)
	movq	-624(%rbp), %rax
	movq	%rax, -592(%rbp)
	movq	-616(%rbp), %rax
	movq	%rax, -584(%rbp)
	leaq	L___unnamed_21(%rip), %rax
	movq	%rax, -192(%rbp)
	leaq	L___unnamed_22(%rip), %rax
	movq	%rax, -184(%rbp)
	leaq	L___unnamed_22(%rip), %rax
	movq	%rax, -72(%rbp)
Ltmp1038:
	.loc	62 974 20
	leaq	L___unnamed_22(%rip), %rax
	movq	%rax, -64(%rbp)
Ltmp1039:
	.loc	62 974 27 is_stmt 0
	movq	$0, -80(%rbp)
	movq	-80(%rbp), %rax
	movq	%rax, -88(%rbp)
Ltmp1040:
	.loc	62 977 2 is_stmt 1
	movq	-88(%rbp), %rax
	movq	%rax, -664(%rbp)
Ltmp1041:
	.loc	62 0 2 is_stmt 0
	movq	-664(%rbp), %rax
	.loc	62 957 39 is_stmt 1
	movq	$4, -200(%rbp)
	.loc	62 957 38 is_stmt 0
	movq	-200(%rbp), %rcx
	.loc	62 957 9
	cmpq	%rcx, %rax
	setbe	%al
	movb	%al, -665(%rbp)
	.loc	62 958 6 is_stmt 1
	jmp	LBB121_6
Ltmp1042:
LBB121_4:
Ltmp1032:
	.loc	62 0 6 is_stmt 0
	leaq	-608(%rbp), %rdi
	.loc	61 118 9 is_stmt 1
	callq	__ZN4core3ptr43drop_in_place$LT$arboard..common..Error$GT$17hb90170ad3a11a3b0E
Ltmp1033:
	jmp	LBB121_52
LBB121_5:
Ltmp1031:
	.loc	61 0 9 is_stmt 0
	movq	%rax, %rcx
	movl	%edx, %eax
	movq	%rcx, -248(%rbp)
	movl	%eax, -240(%rbp)
	jmp	LBB121_4
LBB121_6:
	movb	-665(%rbp), %al
Ltmp1043:
	.loc	61 116 13 is_stmt 1
	testb	$1, %al
	jne	LBB121_8
	jmp	LBB121_7
LBB121_7:
	movb	$0, -569(%rbp)
	jmp	LBB121_27
LBB121_8:
Ltmp1044:
	.loc	62 697 30
	movb	$0, -161(%rbp)
	.loc	62 697 15 is_stmt 0
	movzbl	-161(%rbp), %esi
Ltmp999:
	movq	__ZN12tracing_core8metadata9MAX_LEVEL17h860dbc7caee9e546E@GOTPCREL(%rip), %rdi
	callq	__ZN4core4sync6atomic11AtomicUsize4load17h194fee622e99db01E
Ltmp1000:
	movq	%rax, -680(%rbp)
	jmp	LBB121_9
LBB121_9:
	.loc	62 0 15
	movq	-680(%rbp), %rax
	.loc	62 697 9
	movq	%rax, %rcx
	movq	%rcx, -688(%rbp)
	subq	$5, %rax
	ja	LBB121_10
	.loc	62 0 9
	movq	-688(%rbp), %rax
	leaq	LJTI121_0(%rip), %rcx
	movslq	(%rcx,%rax,4), %rax
	addq	%rcx, %rax
	jmpq	*%rax
LBB121_10:
	movq	-680(%rbp), %rax
	.loc	62 705 13 is_stmt 1
	movq	%rax, -160(%rbp)
Ltmp1025:
	leaq	-160(%rbp), %rdi
Ltmp1045:
	.loc	62 705 24 is_stmt 0
	callq	__ZN4core3fmt10ArgumentV19new_debug17h7c1f97874b7e88ecE
Ltmp1026:
	movq	%rdx, -704(%rbp)
	movq	%rax, -696(%rbp)
	jmp	LBB121_11
LBB121_11:
	.loc	62 0 24
	movq	-704(%rbp), %rax
	movq	-696(%rbp), %rcx
	.loc	62 705 24
	movq	%rcx, -104(%rbp)
	movq	%rax, -96(%rbp)
Ltmp1027:
	leaq	l___unnamed_23(%rip), %rsi
	leaq	-152(%rbp), %rdi
	leaq	-104(%rbp), %rcx
	movl	$1, %r8d
	movq	%r8, %rdx
	callq	__ZN4core3fmt9Arguments6new_v117h0377f2ee8509a1aeE
Ltmp1028:
	jmp	LBB121_12
LBB121_12:
Ltmp1029:
	leaq	l___unnamed_24(%rip), %rsi
	leaq	-152(%rbp), %rdi
	callq	__ZN4core9panicking9panic_fmt17h9b5d807e24bcaaedE
Ltmp1030:
	jmp	LBB121_13
LBB121_13:
	ud2
Ltmp1046:
LBB121_14:
	.loc	62 698 34 is_stmt 1
	movq	$4, -176(%rbp)
	jmp	LBB121_20
LBB121_15:
	.loc	62 699 33
	movq	$3, -176(%rbp)
	jmp	LBB121_20
LBB121_16:
	.loc	62 700 33
	movq	$2, -176(%rbp)
	jmp	LBB121_20
LBB121_17:
	.loc	62 701 34
	movq	$1, -176(%rbp)
	jmp	LBB121_20
LBB121_18:
	.loc	62 702 34
	movq	$0, -176(%rbp)
	jmp	LBB121_20
LBB121_19:
	.loc	62 703 32
	movq	$5, -176(%rbp)
LBB121_20:
	.loc	62 735 6
	movq	-176(%rbp), %rax
	movq	%rax, -712(%rbp)
Ltmp1047:
	.loc	62 0 6 is_stmt 0
	movq	-712(%rbp), %rax
	.loc	61 116 13 is_stmt 1
	movq	%rax, -568(%rbp)
	leaq	L___unnamed_21(%rip), %rax
	movq	%rax, -216(%rbp)
	leaq	-568(%rbp), %rax
	movq	%rax, -208(%rbp)
	leaq	-568(%rbp), %rax
	movq	%rax, -40(%rbp)
Ltmp1048:
	.loc	62 973 11
	cmpq	$5, -568(%rbp)
	sete	%al
	.loc	62 973 5 is_stmt 0
	testb	$1, %al
	jne	LBB121_22
	jmp	LBB121_23
LBB121_22:
	.loc	62 975 17 is_stmt 1
	movq	$5, -56(%rbp)
	jmp	LBB121_24
LBB121_23:
	.loc	62 974 20
	leaq	-568(%rbp), %rax
	movq	%rax, -32(%rbp)
Ltmp1049:
	.loc	62 974 27 is_stmt 0
	movq	-568(%rbp), %rax
	movq	%rax, -48(%rbp)
	movq	-48(%rbp), %rax
	movq	%rax, -56(%rbp)
Ltmp1050:
LBB121_24:
	.loc	62 977 2 is_stmt 1
	movq	-56(%rbp), %rax
	movq	%rax, -720(%rbp)
Ltmp1051:
	.loc	62 0 2 is_stmt 0
	movq	-720(%rbp), %rax
	.loc	62 957 39 is_stmt 1
	movq	$4, -224(%rbp)
	.loc	62 957 38 is_stmt 0
	movq	-224(%rbp), %rcx
	.loc	62 957 9
	cmpq	%rcx, %rax
	setbe	%al
	movb	%al, -721(%rbp)
Ltmp1052:
	.loc	62 0 9
	movb	-721(%rbp), %al
	.loc	61 116 13 is_stmt 1
	andb	$1, %al
	movb	%al, -569(%rbp)
LBB121_27:
	testb	$1, -569(%rbp)
	jne	LBB121_29
	movb	$0, -570(%rbp)
	jmp	LBB121_37
LBB121_29:
Ltmp1001:
	leaq	__ZN10egui_winit9clipboard12init_arboard8CALLSITE17h8ef0b76015097821E(%rip), %rdi
	callq	__ZN12tracing_core8callsite15DefaultCallsite8interest17h432049678a416c4dE
Ltmp1002:
	movb	%al, -722(%rbp)
	jmp	LBB121_30
LBB121_30:
	.loc	61 0 13 is_stmt 0
	movb	-722(%rbp), %al
	.loc	61 116 13
	movb	%al, -553(%rbp)
Ltmp1003:
	leaq	-553(%rbp), %rdi
Ltmp1053:
	.loc	61 116 13
	callq	__ZN12tracing_core10subscriber8Interest8is_never17h77b9eb825ad9532fE
Ltmp1004:
	movb	%al, -723(%rbp)
	jmp	LBB121_31
LBB121_31:
	.loc	61 0 13
	movb	-723(%rbp), %al
	.loc	61 116 13
	xorb	$-1, %al
	testb	$1, %al
	jne	LBB121_33
	movb	$0, -554(%rbp)
	jmp	LBB121_36
LBB121_33:
	.loc	61 0 13
	leaq	__ZN10egui_winit9clipboard12init_arboard8CALLSITE17h8ef0b76015097821E(%rip), %rax
	movq	%rax, -8(%rbp)
Ltmp1054:
	.loc	6 373 9 is_stmt 1
	movq	__ZN10egui_winit9clipboard12init_arboard8CALLSITE17h8ef0b76015097821E+8(%rip), %rax
	movq	%rax, -736(%rbp)
Ltmp1055:
	.loc	6 0 9 is_stmt 0
	movq	-736(%rbp), %rdi
	.loc	61 116 13 is_stmt 1
	movzbl	-553(%rbp), %esi
Ltmp1005:
	callq	__ZN7tracing15__macro_support12__is_enabled17hca875284808c7eecE
Ltmp1006:
	movb	%al, -737(%rbp)
	jmp	LBB121_35
LBB121_35:
	.loc	61 0 13 is_stmt 0
	movb	-737(%rbp), %al
	.loc	61 116 13
	andb	$1, %al
	movb	%al, -554(%rbp)
Ltmp1056:
LBB121_36:
	.loc	61 116 13
	movb	-554(%rbp), %al
	andb	$1, %al
	movb	%al, -570(%rbp)
LBB121_37:
Ltmp1057:
	.loc	61 116 13
	testb	$1, -570(%rbp)
	jne	LBB121_39
Ltmp1058:
LBB121_38:
	.loc	61 117 13 is_stmt 1
	movq	$0, -656(%rbp)
Ltmp1059:
	.loc	61 118 9
	leaq	-608(%rbp), %rdi
	callq	__ZN4core3ptr43drop_in_place$LT$arboard..common..Error$GT$17hb90170ad3a11a3b0E
	jmp	LBB121_53
LBB121_39:
	.loc	61 0 9 is_stmt 0
	leaq	__ZN10egui_winit9clipboard12init_arboard8CALLSITE17h8ef0b76015097821E(%rip), %rax
	movq	%rax, -16(%rbp)
Ltmp1060:
	.loc	6 373 9 is_stmt 1
	movq	__ZN10egui_winit9clipboard12init_arboard8CALLSITE17h8ef0b76015097821E+8(%rip), %rax
	movq	%rax, -752(%rbp)
Ltmp1061:
Ltmp1007:
	.loc	6 0 9 is_stmt 0
	movq	-752(%rbp), %rdi
	.loc	61 116 13 is_stmt 1
	callq	__ZN12tracing_core8metadata8Metadata6fields17h0fa6b86fe1c99646E
Ltmp1008:
	movq	%rax, -760(%rbp)
	jmp	LBB121_41
LBB121_41:
Ltmp1009:
	.loc	61 0 13 is_stmt 0
	movq	-760(%rbp), %rsi
	leaq	-504(%rbp), %rdi
	.loc	61 116 13
	callq	__ZN12tracing_core5field8FieldSet4iter17h73573d644296ec12E
Ltmp1010:
	jmp	LBB121_42
LBB121_42:
	.loc	61 0 13
	leaq	__ZN10egui_winit9clipboard12init_arboard8CALLSITE17h8ef0b76015097821E(%rip), %rax
	movq	%rax, -24(%rbp)
Ltmp1062:
	.loc	6 373 9 is_stmt 1
	movq	__ZN10egui_winit9clipboard12init_arboard8CALLSITE17h8ef0b76015097821E+8(%rip), %rax
	movq	%rax, -768(%rbp)
Ltmp1063:
Ltmp1011:
	.loc	6 0 9 is_stmt 0
	movq	-768(%rbp), %rdi
	.loc	61 116 13 is_stmt 1
	callq	__ZN12tracing_core8metadata8Metadata6fields17h0fa6b86fe1c99646E
Ltmp1012:
	movq	%rax, -776(%rbp)
	jmp	LBB121_44
LBB121_44:
Ltmp1013:
	.loc	61 0 13 is_stmt 0
	leaq	-368(%rbp), %rdi
	leaq	-504(%rbp), %rsi
	.loc	61 116 13
	callq	__ZN84_$LT$tracing_core..field..Iter$u20$as$u20$core..iter..traits..iterator..Iterator$GT$4next17h924a66df5efe258dE
Ltmp1014:
	jmp	LBB121_45
LBB121_45:
Ltmp1015:
	leaq	l___unnamed_25(%rip), %rdx
	leaq	l___unnamed_30(%rip), %r8
	leaq	-408(%rbp), %rdi
	leaq	-368(%rbp), %rsi
	movl	$34, %ecx
	callq	__ZN4core6option15Option$LT$T$GT$6expect17h6906667bdbb85694E
Ltmp1016:
	jmp	LBB121_46
LBB121_46:
Ltmp1017:
	.loc	61 0 13
	leaq	-608(%rbp), %rdi
	.loc	61 116 13
	callq	__ZN4core3fmt10ArgumentV111new_display17h704f10e15f7e0298E
Ltmp1018:
	movq	%rdx, -792(%rbp)
	movq	%rax, -784(%rbp)
	jmp	LBB121_47
LBB121_47:
	.loc	61 0 13
	movq	-792(%rbp), %rax
	movq	-784(%rbp), %rcx
	.loc	61 116 13
	movq	%rcx, -264(%rbp)
	movq	%rax, -256(%rbp)
Ltmp1019:
	leaq	l___unnamed_31(%rip), %rsi
	leaq	-312(%rbp), %rdi
	leaq	-264(%rbp), %rcx
	movl	$1, %r8d
	movq	%r8, %rdx
	callq	__ZN4core3fmt9Arguments6new_v117h0377f2ee8509a1aeE
Ltmp1020:
	jmp	LBB121_48
LBB121_48:
	.loc	61 0 13
	movq	-776(%rbp), %rsi
	leaq	-312(%rbp), %rax
	.loc	61 116 13
	movq	%rax, -328(%rbp)
	leaq	l___unnamed_1(%rip), %rax
	movq	%rax, -320(%rbp)
	leaq	-408(%rbp), %rax
	movq	%rax, -432(%rbp)
	movq	-328(%rbp), %rcx
	movq	-320(%rbp), %rax
	movq	%rcx, -424(%rbp)
	movq	%rax, -416(%rbp)
	movq	-416(%rbp), %rax
	movq	%rax, -440(%rbp)
	movq	-432(%rbp), %rax
	movq	-424(%rbp), %rcx
	movq	%rcx, -448(%rbp)
	movq	%rax, -456(%rbp)
Ltmp1021:
	leaq	-528(%rbp), %rdi
	leaq	-456(%rbp), %rdx
	callq	__ZN12tracing_core5field8FieldSet9value_set17hc56630d7d5753bb1E
Ltmp1022:
	jmp	LBB121_49
Ltmp1064:
LBB121_49:
	.loc	61 116 13
	movq	-512(%rbp), %rax
	movq	%rax, -536(%rbp)
	movq	-528(%rbp), %rax
	movq	-520(%rbp), %rcx
	movq	%rcx, -544(%rbp)
	movq	%rax, -552(%rbp)
Ltmp1023:
	leaq	l___unnamed_6(%rip), %rdi
	leaq	-552(%rbp), %rsi
	callq	__ZN10egui_winit9clipboard12init_arboard28_$u7b$$u7b$closure$u7d$$u7d$17h2d52d332014243adE
Ltmp1024:
	jmp	LBB121_50
LBB121_50:
	jmp	LBB121_38
Ltmp1065:
LBB121_51:
Ltmp1034:
	.loc	61 112 1 is_stmt 1
	callq	__ZN4core9panicking19panic_cannot_unwind17h1fbca7e1d7f56ae1E
LBB121_52:
	movq	-248(%rbp), %rdi
	callq	__Unwind_Resume
LBB121_53:
	.loc	61 120 2
	movq	-656(%rbp), %rax
	movq	-648(%rbp), %rdx
	addq	$800, %rsp
	popq	%rbp
	retq
Ltmp1066:
Lfunc_end121:
	.cfi_endproc
	.p2align	2, 0x90
	.data_region jt32
.set L121_0_set_18, LBB121_18-LJTI121_0
.set L121_0_set_17, LBB121_17-LJTI121_0
.set L121_0_set_16, LBB121_16-LJTI121_0
.set L121_0_set_15, LBB121_15-LJTI121_0
.set L121_0_set_14, LBB121_14-LJTI121_0
.set L121_0_set_19, LBB121_19-LJTI121_0
LJTI121_0:
	.long	L121_0_set_18
	.long	L121_0_set_17
	.long	L121_0_set_16
	.long	L121_0_set_15
	.long	L121_0_set_14
	.long	L121_0_set_19
	.end_data_region
	.section	__TEXT,__gcc_except_tab
	.p2align	2
GCC_except_table121:
Lexception17:
	.byte	255
	.byte	255
	.byte	1
	.uleb128 Lcst_end17-Lcst_begin17
Lcst_begin17:
	.uleb128 Lfunc_begin121-Lfunc_begin121
	.uleb128 Ltmp1032-Lfunc_begin121
	.byte	0
	.byte	0
	.uleb128 Ltmp1032-Lfunc_begin121
	.uleb128 Ltmp1033-Ltmp1032
	.uleb128 Ltmp1034-Lfunc_begin121
	.byte	0
	.uleb128 Ltmp999-Lfunc_begin121
	.uleb128 Ltmp1006-Ltmp999
	.uleb128 Ltmp1031-Lfunc_begin121
	.byte	0
	.uleb128 Ltmp1006-Lfunc_begin121
	.uleb128 Ltmp1007-Ltmp1006
	.byte	0
	.byte	0
	.uleb128 Ltmp1007-Lfunc_begin121
	.uleb128 Ltmp1024-Ltmp1007
	.uleb128 Ltmp1031-Lfunc_begin121
	.byte	0
	.uleb128 Ltmp1024-Lfunc_begin121
	.uleb128 Lfunc_end121-Ltmp1024
	.byte	0
	.byte	0
Lcst_end17:
	.p2align	2

	.section	__TEXT,__text,regular,pure_instructions
	.globl	__ZN82_$LT$egui_winit..screen_reader..ScreenReader$u20$as$u20$core..default..Default$GT$7default17h72f3b567a647d6faE
	.p2align	4, 0x90
__ZN82_$LT$egui_winit..screen_reader..ScreenReader$u20$as$u20$core..default..Default$GT$7default17h72f3b567a647d6faE:
Lfunc_begin122:
	.file	63 "/Users/natalie/.cargo/registry/src/github.com-1ecc6299db9ec823/egui-winit-0.19.0" "src/screen_reader.rs"
	.loc	63 9 0
	.cfi_startproc
	pushq	%rbp
	.cfi_def_cfa_offset 16
	.cfi_offset %rbp, -16
	movq	%rsp, %rbp
	.cfi_def_cfa_register %rbp
Ltmp1067:
	.loc	63 11 6 prologue_end
	popq	%rbp
	retq
Ltmp1068:
Lfunc_end122:
	.cfi_endproc

	.globl	__ZN10egui_winit13screen_reader12ScreenReader5speak17hddf330304eead4d6E
	.p2align	4, 0x90
__ZN10egui_winit13screen_reader12ScreenReader5speak17hddf330304eead4d6E:
Lfunc_begin123:
	.loc	63 34 0
	.cfi_startproc
	pushq	%rbp
	.cfi_def_cfa_offset 16
	.cfi_offset %rbp, -16
	movq	%rsp, %rbp
	.cfi_def_cfa_register %rbp
	subq	$24, %rsp
	movq	%rdi, -24(%rbp)
	movq	%rsi, -16(%rbp)
	movq	%rdx, -8(%rbp)
Ltmp1069:
	.loc	63 34 44 prologue_end
	addq	$24, %rsp
	popq	%rbp
	retq
Ltmp1070:
Lfunc_end123:
	.cfi_endproc

	.globl	__ZN10egui_winit15window_settings14WindowSettings12from_display17h3cb785712f515ff8E
	.p2align	4, 0x90
__ZN10egui_winit15window_settings14WindowSettings12from_display17h3cb785712f515ff8E:
Lfunc_begin124:
	.file	64 "/Users/natalie/.cargo/registry/src/github.com-1ecc6299db9ec823/egui-winit-0.19.0" "src/window_settings.rs"
	.loc	64 17 0
	.cfi_startproc
	.cfi_personality 155, _rust_eh_personality
	.cfi_lsda 16, Lexception18
	pushq	%rbp
	.cfi_def_cfa_offset 16
	.cfi_offset %rbp, -16
	movq	%rsp, %rbp
	.cfi_def_cfa_register %rbp
	subq	$256, %rsp
	movq	%rsi, -200(%rbp)
	movq	%rdi, %rax
	movq	-200(%rbp), %rdi
	movq	%rax, -240(%rbp)
	movq	%rax, -232(%rbp)
	movq	%rdi, -48(%rbp)
Ltmp1077:
	.loc	64 18 33 prologue_end
	callq	__ZN5winit6window6Window10inner_size17h452ccd403df0dfe5E
	movq	-200(%rbp), %rdi
	movl	%edx, -172(%rbp)
	movl	%eax, -176(%rbp)
	.loc	64 18 71 is_stmt 0
	callq	__ZN5winit6window6Window12scale_factor17h94d27855555b4631E
	leaq	-176(%rbp), %rdi
	.loc	64 18 33
	callq	__ZN5winit3dpi21PhysicalSize$LT$P$GT$10to_logical17h78b507ebbd2b4551E
	movq	-200(%rbp), %rsi
	movaps	%xmm0, %xmm2
	movss	%xmm2, -224(%rbp)
	movaps	%xmm1, %xmm2
	movss	%xmm2, -220(%rbp)
	movss	%xmm0, -40(%rbp)
	movss	%xmm1, -36(%rbp)
	leaq	-136(%rbp), %rdi
	movq	%rdi, -216(%rbp)
Ltmp1078:
	.loc	64 27 13 is_stmt 1
	callq	__ZN5winit6window6Window14outer_position17h0c6b5138e395ce81E
	movq	-216(%rbp), %rsi
	leaq	-152(%rbp), %rdi
	movq	%rdi, -208(%rbp)
	callq	__ZN4core6result19Result$LT$T$C$E$GT$2ok17h669421f784d9b3feE
	movq	-208(%rbp), %rsi
	leaq	-168(%rbp), %rdi
	callq	__ZN4core6option15Option$LT$T$GT$3map17h5622c0e2d0f3bc0aE
	movq	-200(%rbp), %rsi
Ltmp1079:
	.loc	64 34 13
	movl	-160(%rbp), %eax
	movl	%eax, -112(%rbp)
	movq	-168(%rbp), %rax
	movq	%rax, -120(%rbp)
	leaq	-104(%rbp), %rdi
	movq	%rdi, -192(%rbp)
	.loc	64 36 25
	callq	__ZN5winit6window6Window10fullscreen17h48e586504e104dc0E
	movq	-192(%rbp), %rdi
Ltmp1071:
	callq	__ZN4core6option15Option$LT$T$GT$7is_some17hb544e4a365149c11E
Ltmp1072:
	movb	%al, -177(%rbp)
	jmp	LBB124_3
Ltmp1080:
LBB124_1:
Ltmp1074:
	.loc	64 0 25 is_stmt 0
	leaq	-104(%rbp), %rdi
	.loc	64 43 5 is_stmt 1
	callq	__ZN4core3ptr74drop_in_place$LT$core..option..Option$LT$winit..window..Fullscreen$GT$$GT$17h56e313eddcbdcef3E
Ltmp1075:
	jmp	LBB124_6
LBB124_2:
Ltmp1073:
	.loc	64 0 5 is_stmt 0
	movq	%rax, %rcx
	movl	%edx, %eax
	movq	%rcx, -32(%rbp)
	movl	%eax, -24(%rbp)
	jmp	LBB124_1
LBB124_3:
	movss	-220(%rbp), %xmm0
	movss	-224(%rbp), %xmm1
	movss	%xmm1, -8(%rbp)
	movss	%xmm0, -4(%rbp)
Ltmp1081:
	.file	65 "/Users/natalie/.cargo/registry/src/github.com-1ecc6299db9ec823/emath-0.19.0/src" "vec2.rs"
	.loc	65 24 5 is_stmt 1
	movss	%xmm1, -16(%rbp)
	movss	%xmm0, -12(%rbp)
	.loc	65 25 2
	movss	-16(%rbp), %xmm0
	movss	%xmm0, -248(%rbp)
	movss	-12(%rbp), %xmm0
	movss	%xmm0, -244(%rbp)
Ltmp1082:
	.loc	65 0 2 is_stmt 0
	movq	-240(%rbp), %rax
	movb	-177(%rbp), %cl
	movss	-244(%rbp), %xmm0
	movss	-248(%rbp), %xmm1
	.loc	64 38 32 is_stmt 1
	movss	%xmm1, -60(%rbp)
	movss	%xmm0, -56(%rbp)
	movl	$1, -64(%rbp)
	.loc	64 33 9
	movq	-120(%rbp), %rdx
	movq	%rdx, (%rax)
	movl	-112(%rbp), %edx
	movl	%edx, 8(%rax)
	andb	$1, %cl
	movb	%cl, 24(%rax)
	movq	-64(%rbp), %rcx
	movq	%rcx, 12(%rax)
	movl	-56(%rbp), %ecx
	movl	%ecx, 20(%rax)
Ltmp1083:
	.loc	64 43 5
	leaq	-104(%rbp), %rdi
	callq	__ZN4core3ptr74drop_in_place$LT$core..option..Option$LT$winit..window..Fullscreen$GT$$GT$17h56e313eddcbdcef3E
	movq	-232(%rbp), %rax
	.loc	64 43 6 is_stmt 0
	addq	$256, %rsp
	popq	%rbp
	retq
LBB124_5:
Ltmp1076:
	.loc	64 17 5 is_stmt 1
	callq	__ZN4core9panicking19panic_cannot_unwind17h1fbca7e1d7f56ae1E
LBB124_6:
	movq	-32(%rbp), %rdi
	callq	__Unwind_Resume
Ltmp1084:
Lfunc_end124:
	.cfi_endproc
	.section	__TEXT,__gcc_except_tab
	.p2align	2
GCC_except_table124:
Lexception18:
	.byte	255
	.byte	255
	.byte	1
	.uleb128 Lcst_end18-Lcst_begin18
Lcst_begin18:
	.uleb128 Lfunc_begin124-Lfunc_begin124
	.uleb128 Ltmp1071-Lfunc_begin124
	.byte	0
	.byte	0
	.uleb128 Ltmp1071-Lfunc_begin124
	.uleb128 Ltmp1072-Ltmp1071
	.uleb128 Ltmp1073-Lfunc_begin124
	.byte	0
	.uleb128 Ltmp1074-Lfunc_begin124
	.uleb128 Ltmp1075-Ltmp1074
	.uleb128 Ltmp1076-Lfunc_begin124
	.byte	0
	.uleb128 Ltmp1075-Lfunc_begin124
	.uleb128 Lfunc_end124-Ltmp1075
	.byte	0
	.byte	0
Lcst_end18:
	.p2align	2

	.section	__TEXT,__text,regular,pure_instructions
	.p2align	4, 0x90
__ZN10egui_winit15window_settings14WindowSettings12from_display28_$u7b$$u7b$closure$u7d$$u7d$17h6e16dbdcc787b1d0E:
Lfunc_begin125:
	.loc	64 30 0
	.cfi_startproc
	pushq	%rbp
	.cfi_def_cfa_offset 16
	.cfi_offset %rbp, -16
	movq	%rsp, %rbp
	.cfi_def_cfa_register %rbp
	subq	$32, %rsp
	movl	%edi, -24(%rbp)
	movl	%esi, -20(%rbp)
Ltmp1085:
	.loc	64 30 37 prologue_end
	cvtsi2ss	%edi, %xmm1
	.loc	64 30 49 is_stmt 0
	cvtsi2ss	%esi, %xmm0
	movss	%xmm1, -8(%rbp)
	movss	%xmm0, -4(%rbp)
Ltmp1086:
	.file	66 "/Users/natalie/.cargo/registry/src/github.com-1ecc6299db9ec823/emath-0.19.0/src" "pos2.rs"
	.loc	66 26 5 is_stmt 1
	movss	%xmm1, -16(%rbp)
	movss	%xmm0, -12(%rbp)
	.loc	66 27 2
	movss	-16(%rbp), %xmm0
	movss	-12(%rbp), %xmm1
Ltmp1087:
	.loc	64 30 60
	addq	$32, %rsp
	popq	%rbp
	retq
Ltmp1088:
Lfunc_end125:
	.cfi_endproc

	.globl	__ZN10egui_winit15window_settings14WindowSettings17initialize_window17h5b7c4cd0297f8439E
	.p2align	4, 0x90
__ZN10egui_winit15window_settings14WindowSettings17initialize_window17h5b7c4cd0297f8439E:
Lfunc_begin126:
	.loc	64 45 0
	.cfi_startproc
	.cfi_personality 155, _rust_eh_personality
	.cfi_lsda 16, Lexception19
	pushq	%rbp
	.cfi_def_cfa_offset 16
	.cfi_offset %rbp, -16
	movq	%rsp, %rbp
	.cfi_def_cfa_register %rbp
	subq	$976, %rsp
	movq	%rdx, -952(%rbp)
Ltmp1097:
	movq	%rsi, -944(%rbp)
	movq	%rdi, -936(%rbp)
	movq	%rdi, -928(%rbp)
	movq	%rsi, -40(%rbp)
Ltmp1098:
	.loc	64 49 9 prologue_end
	movb	$0, -41(%rbp)
Ltmp1099:
	.loc	64 55 20
	movl	(%rsi), %eax
	cmpq	$1, %rax
Ltmp1100:
	jne	LBB126_2
Ltmp1101:
	.loc	64 0 20 is_stmt 0
	movq	-952(%rbp), %rsi
	movq	-944(%rbp), %rax
	.loc	64 55 25
	movss	4(%rax), %xmm1
	movss	%xmm1, -960(%rbp)
	movss	8(%rax), %xmm0
	movss	%xmm0, -956(%rbp)
	movss	%xmm1, -32(%rbp)
	movss	%xmm0, -28(%rbp)
	.loc	64 56 26 is_stmt 1
	leaq	-720(%rbp), %rdi
	movl	$200, %edx
	callq	_memcpy
	movss	-960(%rbp), %xmm1
	movss	-956(%rbp), %xmm0
	.loc	64 57 24
	cvtss2sd	%xmm1, %xmm1
	.loc	64 58 24
	cvtss2sd	%xmm0, %xmm0
	.loc	64 56 47
	movsd	%xmm1, -520(%rbp)
	movsd	%xmm0, -512(%rbp)
	.loc	64 56 26 is_stmt 0
	movsd	-520(%rbp), %xmm0
	movsd	-512(%rbp), %xmm1
	leaq	-920(%rbp), %rdi
	leaq	-720(%rbp), %rsi
	callq	__ZN5winit6window13WindowBuilder13with_position17h2c9e8c6aa348822fE
	movq	-952(%rbp), %rdi
	.loc	64 56 17
	leaq	-920(%rbp), %rsi
	movl	$200, %edx
	callq	_memcpy
Ltmp1102:
LBB126_2:
	.loc	64 0 17
	movq	-944(%rbp), %rax
Ltmp1103:
	.loc	64 63 16 is_stmt 1
	movl	12(%rax), %eax
	cmpq	$1, %rax
	jne	LBB126_4
Ltmp1104:
	.loc	64 0 16 is_stmt 0
	movq	-944(%rbp), %rax
	movq	-952(%rbp), %rsi
	.loc	64 63 21
	movss	16(%rax), %xmm1
	movss	%xmm1, -976(%rbp)
	movss	20(%rax), %xmm0
	movss	%xmm0, -972(%rbp)
	movss	%xmm1, -24(%rbp)
	movss	%xmm0, -20(%rbp)
	leaq	-304(%rbp), %rdi
	movq	%rdi, -968(%rbp)
	movl	$200, %edx
	.loc	64 64 13 is_stmt 1
	callq	_memcpy
	movss	-976(%rbp), %xmm1
	movss	-972(%rbp), %xmm0
	movq	-968(%rbp), %rsi
	.loc	64 66 28
	cvtss2sd	%xmm1, %xmm1
	.loc	64 67 29
	cvtss2sd	%xmm0, %xmm0
	.loc	64 65 34
	movsd	%xmm1, -104(%rbp)
	movsd	%xmm0, -96(%rbp)
	.loc	64 64 13
	movsd	-104(%rbp), %xmm0
	movsd	-96(%rbp), %xmm1
	leaq	-504(%rbp), %rdi
	callq	__ZN5winit6window13WindowBuilder15with_inner_size17ha5031cbd4f4abeffE
	movq	-944(%rbp), %rax
	.loc	64 68 18
	movb	$1, -41(%rbp)
	.loc	64 70 21
	movzbl	24(%rax), %esi
Ltmp1089:
	leaq	-88(%rbp), %rdi
	callq	__ZN4core4bool22_$LT$impl$u20$bool$GT$4then17h1bfef0d5ad705511E
Ltmp1090:
	jmp	LBB126_8
Ltmp1105:
LBB126_4:
	.loc	64 0 21 is_stmt 0
	movq	-952(%rbp), %rsi
	movq	-936(%rbp), %rdi
	.loc	64 74 13 is_stmt 1
	movl	$200, %edx
	callq	_memcpy
Ltmp1106:
LBB126_5:
	.loc	64 0 13 is_stmt 0
	movq	-928(%rbp), %rax
	.loc	64 76 6 is_stmt 1
	addq	$976, %rsp
	popq	%rbp
	retq
Ltmp1107:
LBB126_6:
	.loc	64 72 17
	testb	$1, -41(%rbp)
	jne	LBB126_11
	jmp	LBB126_10
Ltmp1108:
LBB126_7:
Ltmp1093:
	.loc	64 0 17 is_stmt 0
	movq	%rax, %rcx
	movl	%edx, %eax
	movq	%rcx, -16(%rbp)
	movl	%eax, -8(%rbp)
	jmp	LBB126_6
Ltmp1109:
LBB126_8:
	movq	-936(%rbp), %rdi
	.loc	64 64 13 is_stmt 1
	movb	$0, -41(%rbp)
Ltmp1091:
	leaq	-504(%rbp), %rsi
	leaq	-88(%rbp), %rdx
	callq	__ZN5winit6window13WindowBuilder15with_fullscreen17h57ee8bcd1678e9bdE
Ltmp1092:
	jmp	LBB126_9
Ltmp1110:
LBB126_9:
	.loc	64 72 17
	movb	$0, -41(%rbp)
Ltmp1111:
	.loc	64 63 9
	jmp	LBB126_5
Ltmp1112:
LBB126_10:
	.loc	64 45 5
	movq	-16(%rbp), %rdi
	callq	__Unwind_Resume
Ltmp1113:
LBB126_11:
Ltmp1094:
	.loc	64 0 5 is_stmt 0
	leaq	-504(%rbp), %rdi
Ltmp1114:
	.loc	64 72 17 is_stmt 1
	callq	__ZN4core3ptr49drop_in_place$LT$winit..window..WindowBuilder$GT$17hb1e4cb01297a8178E
Ltmp1095:
	jmp	LBB126_10
Ltmp1115:
LBB126_12:
Ltmp1096:
	.loc	64 45 5
	callq	__ZN4core9panicking19panic_cannot_unwind17h1fbca7e1d7f56ae1E
Ltmp1116:
Lfunc_end126:
	.cfi_endproc
	.section	__TEXT,__gcc_except_tab
	.p2align	2
GCC_except_table126:
Lexception19:
	.byte	255
	.byte	255
	.byte	1
	.uleb128 Lcst_end19-Lcst_begin19
Lcst_begin19:
	.uleb128 Lfunc_begin126-Lfunc_begin126
	.uleb128 Ltmp1089-Lfunc_begin126
	.byte	0
	.byte	0
	.uleb128 Ltmp1089-Lfunc_begin126
	.uleb128 Ltmp1090-Ltmp1089
	.uleb128 Ltmp1093-Lfunc_begin126
	.byte	0
	.uleb128 Ltmp1090-Lfunc_begin126
	.uleb128 Ltmp1091-Ltmp1090
	.byte	0
	.byte	0
	.uleb128 Ltmp1091-Lfunc_begin126
	.uleb128 Ltmp1092-Ltmp1091
	.uleb128 Ltmp1093-Lfunc_begin126
	.byte	0
	.uleb128 Ltmp1092-Lfunc_begin126
	.uleb128 Ltmp1094-Ltmp1092
	.byte	0
	.byte	0
	.uleb128 Ltmp1094-Lfunc_begin126
	.uleb128 Ltmp1095-Ltmp1094
	.uleb128 Ltmp1096-Lfunc_begin126
	.byte	0
Lcst_end19:
	.p2align	2

	.section	__TEXT,__text,regular,pure_instructions
	.p2align	4, 0x90
__ZN10egui_winit15window_settings14WindowSettings17initialize_window28_$u7b$$u7b$closure$u7d$$u7d$17h09e84798be556b88E:
Lfunc_begin127:
	.loc	64 71 0
	.cfi_startproc
	pushq	%rbp
	.cfi_def_cfa_offset 16
	.cfi_offset %rbp, -16
	movq	%rsp, %rbp
	.cfi_def_cfa_register %rbp
	subq	$16, %rsp
	movq	%rdi, %rax
Ltmp1117:
	.loc	64 71 72 prologue_end
	movl	$0, -16(%rbp)
	.loc	64 71 34 is_stmt 0
	movl	-16(%rbp), %edx
	movl	-12(%rbp), %ecx
	movl	%edx, 4(%rdi)
	movl	%ecx, 8(%rdi)
	movl	$1, (%rdi)
	.loc	64 71 77
	addq	$16, %rsp
	popq	%rbp
	retq
Ltmp1118:
Lfunc_end127:
	.cfi_endproc

	.globl	__ZN10egui_winit23native_pixels_per_point17h3afa0c95bcc9f810E
	.p2align	4, 0x90
__ZN10egui_winit23native_pixels_per_point17h3afa0c95bcc9f810E:
Lfunc_begin128:
	.loc	59 33 0 is_stmt 1
	.cfi_startproc
	pushq	%rbp
	.cfi_def_cfa_offset 16
	.cfi_offset %rbp, -16
	movq	%rsp, %rbp
	.cfi_def_cfa_register %rbp
	subq	$16, %rsp
	movq	%rdi, -8(%rbp)
Ltmp1119:
	.loc	59 34 5 prologue_end
	callq	__ZN5winit6window6Window12scale_factor17h94d27855555b4631E
	cvtsd2ss	%xmm0, %xmm0
	.loc	59 35 2
	addq	$16, %rsp
	popq	%rbp
	retq
Ltmp1120:
Lfunc_end128:
	.cfi_endproc

	.globl	__ZN10egui_winit21screen_size_in_pixels17h7a7327def3b878e1E
	.p2align	4, 0x90
__ZN10egui_winit21screen_size_in_pixels17h7a7327def3b878e1E:
Lfunc_begin129:
	.loc	59 37 0
	.cfi_startproc
	pushq	%rbp
	.cfi_def_cfa_offset 16
	.cfi_offset %rbp, -16
	movq	%rsp, %rbp
	.cfi_def_cfa_register %rbp
	subq	$32, %rsp
	movq	%rdi, -32(%rbp)
Ltmp1121:
	.loc	59 38 16 prologue_end
	callq	__ZN5winit6window6Window10inner_size17h452ccd403df0dfe5E
	movl	%eax, -24(%rbp)
	movl	%edx, -20(%rbp)
Ltmp1122:
	.loc	59 39 16
	movl	%eax, %eax
	cvtsi2ss	%rax, %xmm1
	.loc	59 39 35 is_stmt 0
	movl	%edx, %eax
	cvtsi2ss	%rax, %xmm0
	movss	%xmm1, -8(%rbp)
	movss	%xmm0, -4(%rbp)
Ltmp1123:
	.loc	65 24 5 is_stmt 1
	movss	%xmm1, -16(%rbp)
	movss	%xmm0, -12(%rbp)
	.loc	65 25 2
	movss	-16(%rbp), %xmm0
	movss	-12(%rbp), %xmm1
Ltmp1124:
	.loc	59 40 2
	addq	$32, %rsp
	popq	%rbp
	retq
Ltmp1125:
Lfunc_end129:
	.cfi_endproc

	.section	__TEXT,__literal4,4byte_literals
	.p2align	2
LCPI130_0:
	.long	0x3f800000
	.section	__TEXT,__text,regular,pure_instructions
	.globl	__ZN10egui_winit5State24new_with_wayland_display17h5f6627c9788e3b86E
	.p2align	4, 0x90
__ZN10egui_winit5State24new_with_wayland_display17h5f6627c9788e3b86E:
Lfunc_begin130:
	.loc	59 72 0
	.cfi_startproc
	.cfi_personality 155, _rust_eh_personality
	.cfi_lsda 16, Lexception20
	pushq	%rbp
	.cfi_def_cfa_offset 16
	.cfi_offset %rbp, -16
	movq	%rsp, %rbp
	.cfi_def_cfa_register %rbp
	subq	$592, %rsp
	movq	%rdx, -584(%rbp)
	movq	%rsi, -576(%rbp)
	movq	%rdi, -568(%rbp)
	movq	%rdi, -560(%rbp)
	movq	%rsi, -32(%rbp)
	movq	%rdx, -24(%rbp)
Ltmp1142:
	.loc	59 73 13 prologue_end
	movb	$0, -33(%rbp)
	leaq	-400(%rbp), %rdi
	.loc	59 75 15
	callq	__ZN70_$LT$egui..data..input..RawInput$u20$as$u20$core..default..Default$GT$7default17h135f4b5876214ed0E
	.loc	59 73 26
	movb	$1, -33(%rbp)
	movl	-268(%rbp), %eax
	movl	%eax, -412(%rbp)
	movq	-284(%rbp), %rax
	movq	-276(%rbp), %rcx
	movq	%rcx, -420(%rbp)
	movq	%rax, -428(%rbp)
	movl	-296(%rbp), %eax
	movss	-292(%rbp), %xmm0
	movl	%eax, -440(%rbp)
	movss	%xmm0, -436(%rbp)
	movq	-400(%rbp), %rcx
	movq	-392(%rbp), %rax
	movq	%rcx, -544(%rbp)
	movq	%rax, -536(%rbp)
	movq	-384(%rbp), %rax
	movsd	-376(%rbp), %xmm0
	movq	%rax, -528(%rbp)
	movsd	%xmm0, -520(%rbp)
	movss	-288(%rbp), %xmm0
	movss	%xmm0, -432(%rbp)
	movb	-260(%rbp), %al
	movb	%al, -404(%rbp)
	movl	-264(%rbp), %eax
	movl	%eax, -408(%rbp)
	movq	-352(%rbp), %rax
	movq	%rax, -496(%rbp)
	movq	-368(%rbp), %rax
	movq	-360(%rbp), %rcx
	movq	%rcx, -504(%rbp)
	movq	%rax, -512(%rbp)
	movq	-328(%rbp), %rax
	movq	%rax, -472(%rbp)
	movq	-344(%rbp), %rax
	movq	-336(%rbp), %rcx
	movq	%rcx, -480(%rbp)
	movq	%rax, -488(%rbp)
	movq	-304(%rbp), %rax
	movq	%rax, -448(%rbp)
	movq	-320(%rbp), %rax
	movq	-312(%rbp), %rcx
	movq	%rcx, -456(%rbp)
	movq	%rax, -464(%rbp)
	movb	$0, -403(%rbp)
Ltmp1126:
Ltmp1143:
	.loc	59 79 25
	callq	__ZN3std4time7Instant3now17h325ddce48db31cf2E
Ltmp1127:
	movq	%rax, -552(%rbp)
	jmp	LBB130_3
Ltmp1144:
LBB130_1:
	.loc	59 92 5
	testb	$1, -33(%rbp)
	jne	LBB130_12
	jmp	LBB130_11
LBB130_2:
Ltmp1128:
	.loc	59 0 5 is_stmt 0
	movq	%rax, %rcx
	movl	%edx, %eax
	movq	%rcx, -16(%rbp)
	movl	%eax, -8(%rbp)
	jmp	LBB130_1
LBB130_3:
Ltmp1145:
	.loc	59 80 13 is_stmt 1
	movb	$0, -33(%rbp)
	leaq	-256(%rbp), %rdi
	leaq	-544(%rbp), %rsi
	movl	$144, %edx
	callq	_memcpy
	movq	-576(%rbp), %rsi
	movq	-584(%rbp), %rdx
	.loc	59 81 36
	movl	$0, -112(%rbp)
	.loc	59 83 34
	movb	$0, -97(%rbp)
Ltmp1129:
	leaq	-96(%rbp), %rdi
	.loc	59 86 24
	callq	__ZN10egui_winit9clipboard9Clipboard3new17ha3494dcfbc7bdbfdE
Ltmp1130:
	jmp	LBB130_6
LBB130_4:
Ltmp1137:
	.loc	59 0 24 is_stmt 0
	leaq	-256(%rbp), %rdi
	.loc	59 91 9 is_stmt 1
	callq	__ZN4core3ptr48drop_in_place$LT$egui..data..input..RawInput$GT$17h46ea13639c011badE
Ltmp1138:
	jmp	LBB130_1
LBB130_5:
Ltmp1131:
	.loc	59 0 9 is_stmt 0
	movq	%rax, %rcx
	movl	%edx, %eax
	movq	%rcx, -16(%rbp)
	movl	%eax, -8(%rbp)
	jmp	LBB130_4
LBB130_6:
Ltmp1132:
	.loc	59 87 28 is_stmt 1
	callq	__ZN82_$LT$egui_winit..screen_reader..ScreenReader$u20$as$u20$core..default..Default$GT$7default17h72f3b567a647d6faE
Ltmp1133:
	jmp	LBB130_9
LBB130_7:
Ltmp1135:
	.loc	59 0 28 is_stmt 0
	leaq	-96(%rbp), %rdi
	.loc	59 91 9 is_stmt 1
	callq	__ZN4core3ptr53drop_in_place$LT$egui_winit..clipboard..Clipboard$GT$17h5c54e60c6c2378c8E
Ltmp1136:
	jmp	LBB130_4
LBB130_8:
Ltmp1134:
	.loc	59 0 9 is_stmt 0
	movq	%rax, %rcx
	movl	%edx, %eax
	movq	%rcx, -16(%rbp)
	movl	%eax, -8(%rbp)
	jmp	LBB130_7
LBB130_9:
	movq	-568(%rbp), %rdi
	movq	-552(%rbp), %rax
	.loc	59 90 31 is_stmt 1
	movq	$0, -56(%rbp)
	.loc	59 78 9
	movq	%rax, 160(%rdi)
	leaq	-256(%rbp), %rsi
	movl	$144, %edx
	callq	_memcpy
	movq	-568(%rbp), %rdi
	movq	-112(%rbp), %rax
	movq	%rax, 212(%rdi)
	movl	-104(%rbp), %eax
	movl	%eax, 220(%rdi)
	movb	$0, 225(%rdi)
	movb	-97(%rbp), %al
	movb	%al, 224(%rdi)
	movss	LCPI130_0(%rip), %xmm0
	movss	%xmm0, 208(%rdi)
	addq	$168, %rdi
	leaq	-96(%rbp), %rsi
	movl	$40, %edx
	callq	_memcpy
	movq	-568(%rbp), %rcx
	movq	-560(%rbp), %rax
	movb	$0, 226(%rcx)
	movq	-56(%rbp), %rsi
	movq	-48(%rbp), %rdx
	movq	%rsi, 144(%rcx)
	movq	%rdx, 152(%rcx)
Ltmp1146:
	.loc	59 92 5
	movb	$0, -33(%rbp)
	.loc	59 92 6 is_stmt 0
	addq	$592, %rsp
	popq	%rbp
	retq
LBB130_10:
Ltmp1141:
	.loc	59 72 5 is_stmt 1
	callq	__ZN4core9panicking19panic_cannot_unwind17h1fbca7e1d7f56ae1E
LBB130_11:
	movq	-16(%rbp), %rdi
	callq	__Unwind_Resume
LBB130_12:
Ltmp1139:
	.loc	59 0 5 is_stmt 0
	leaq	-544(%rbp), %rdi
	.loc	59 92 5 is_stmt 1
	callq	__ZN4core3ptr48drop_in_place$LT$egui..data..input..RawInput$GT$17h46ea13639c011badE
Ltmp1140:
	jmp	LBB130_11
Ltmp1147:
Lfunc_end130:
	.cfi_endproc
	.section	__TEXT,__gcc_except_tab
	.p2align	2
GCC_except_table130:
Lexception20:
	.byte	255
	.byte	255
	.byte	1
	.uleb128 Lcst_end20-Lcst_begin20
Lcst_begin20:
	.uleb128 Lfunc_begin130-Lfunc_begin130
	.uleb128 Ltmp1126-Lfunc_begin130
	.byte	0
	.byte	0
	.uleb128 Ltmp1126-Lfunc_begin130
	.uleb128 Ltmp1127-Ltmp1126
	.uleb128 Ltmp1128-Lfunc_begin130
	.byte	0
	.uleb128 Ltmp1127-Lfunc_begin130
	.uleb128 Ltmp1129-Ltmp1127
	.byte	0
	.byte	0
	.uleb128 Ltmp1129-Lfunc_begin130
	.uleb128 Ltmp1130-Ltmp1129
	.uleb128 Ltmp1131-Lfunc_begin130
	.byte	0
	.uleb128 Ltmp1137-Lfunc_begin130
	.uleb128 Ltmp1138-Ltmp1137
	.uleb128 Ltmp1141-Lfunc_begin130
	.byte	0
	.uleb128 Ltmp1132-Lfunc_begin130
	.uleb128 Ltmp1133-Ltmp1132
	.uleb128 Ltmp1134-Lfunc_begin130
	.byte	0
	.uleb128 Ltmp1135-Lfunc_begin130
	.uleb128 Ltmp1136-Ltmp1135
	.uleb128 Ltmp1141-Lfunc_begin130
	.byte	0
	.uleb128 Ltmp1136-Lfunc_begin130
	.uleb128 Ltmp1139-Ltmp1136
	.byte	0
	.byte	0
	.uleb128 Ltmp1139-Lfunc_begin130
	.uleb128 Ltmp1140-Ltmp1139
	.uleb128 Ltmp1141-Lfunc_begin130
	.byte	0
Lcst_end20:
	.p2align	2

	.section	__TEXT,__text,regular,pure_instructions
	.globl	__ZN10egui_winit5State20set_max_texture_side17hbd678c3f0aa0cfaaE
	.p2align	4, 0x90
__ZN10egui_winit5State20set_max_texture_side17hbd678c3f0aa0cfaaE:
Lfunc_begin131:
	.loc	59 96 0
	.cfi_startproc
	pushq	%rbp
	.cfi_def_cfa_offset 16
	.cfi_offset %rbp, -16
	movq	%rsp, %rbp
	.cfi_def_cfa_register %rbp
	subq	$32, %rsp
	movq	%rdi, -16(%rbp)
	movq	%rsi, -8(%rbp)
Ltmp1148:
	.loc	59 97 44 prologue_end
	movq	%rsi, -24(%rbp)
	movq	$1, -32(%rbp)
	.loc	59 97 9 is_stmt 0
	movq	-32(%rbp), %rcx
	movq	-24(%rbp), %rax
	movq	%rcx, (%rdi)
	movq	%rax, 8(%rdi)
	.loc	59 98 6 is_stmt 1
	addq	$32, %rsp
	popq	%rbp
	retq
Ltmp1149:
Lfunc_end131:
	.cfi_endproc

	.globl	__ZN10egui_winit5State20set_pixels_per_point17h5aaafbe310fe4c93E
	.p2align	4, 0x90
__ZN10egui_winit5State20set_pixels_per_point17h5aaafbe310fe4c93E:
Lfunc_begin132:
	.loc	59 108 0
	.cfi_startproc
	pushq	%rbp
	.cfi_def_cfa_offset 16
	.cfi_offset %rbp, -16
	movq	%rsp, %rbp
	.cfi_def_cfa_register %rbp
	subq	$24, %rsp
	movq	%rdi, -16(%rbp)
	movss	%xmm0, -4(%rbp)
Ltmp1150:
	.loc	59 109 44 prologue_end
	movss	%xmm0, -20(%rbp)
	movl	$1, -24(%rbp)
	.loc	59 109 9 is_stmt 0
	movl	-24(%rbp), %eax
	movss	-20(%rbp), %xmm1
	movl	%eax, 104(%rdi)
	movss	%xmm1, 108(%rdi)
	.loc	59 110 9 is_stmt 1
	movss	%xmm0, 208(%rdi)
	.loc	59 111 6
	addq	$24, %rsp
	popq	%rbp
	retq
Ltmp1151:
Lfunc_end132:
	.cfi_endproc

	.p2align	4, 0x90
__ZN10egui_winit5State16pixels_per_point17hb86b38e0553759daE:
Lfunc_begin133:
	.loc	59 116 0
	.cfi_startproc
	pushq	%rbp
	.cfi_def_cfa_offset 16
	.cfi_offset %rbp, -16
	movq	%rsp, %rbp
	.cfi_def_cfa_register %rbp
	pushq	%rax
	movq	%rdi, -8(%rbp)
Ltmp1152:
	.loc	59 117 9 prologue_end
	movss	208(%rdi), %xmm0
	.loc	59 118 6
	addq	$8, %rsp
	popq	%rbp
	retq
Ltmp1153:
Lfunc_end133:
	.cfi_endproc

	.globl	__ZN10egui_winit5State15take_egui_input17h9770cec182b642d4E
	.p2align	4, 0x90
__ZN10egui_winit5State15take_egui_input17h9770cec182b642d4E:
Lfunc_begin134:
	.loc	59 129 0
	.cfi_startproc
	pushq	%rbp
	.cfi_def_cfa_offset 16
	.cfi_offset %rbp, -16
	movq	%rsp, %rbp
	.cfi_def_cfa_register %rbp
	subq	$224, %rsp
	movq	%rdx, -200(%rbp)
	movq	%rsi, -208(%rbp)
	movq	%rdi, %rax
	movq	-208(%rbp), %rdi
	movq	%rax, -224(%rbp)
	movq	%rax, -216(%rbp)
	movq	%rdi, -104(%rbp)
	movq	%rdx, -96(%rbp)
Ltmp1154:
	.loc	59 130 32 prologue_end
	callq	__ZN10egui_winit5State16pixels_per_point17hb86b38e0553759daE
	movq	-208(%rbp), %rdi
	movss	%xmm0, -188(%rbp)
	movss	%xmm0, -84(%rbp)
Ltmp1155:
	.loc	59 132 37
	addq	$160, %rdi
	callq	__ZN3std4time7Instant7elapsed17ha6a40aae4044d032E
	movl	%edx, -152(%rbp)
	movq	%rax, -160(%rbp)
	leaq	-160(%rbp), %rdi
	callq	__ZN4core4time8Duration11as_secs_f6417h67c25194e8e4d0c5E
	movq	-208(%rbp), %rsi
	movq	-200(%rbp), %rdi
	.loc	59 132 32 is_stmt 0
	movsd	%xmm0, -168(%rbp)
	movq	$1, -176(%rbp)
	.loc	59 132 9
	movq	-176(%rbp), %rax
	movsd	-168(%rbp), %xmm0
	movq	%rax, 16(%rsi)
	movsd	%xmm0, 24(%rsi)
	.loc	59 137 37 is_stmt 1
	callq	__ZN10egui_winit21screen_size_in_pixels17h7a7327def3b878e1E
	movss	-188(%rbp), %xmm2
	movss	%xmm0, -80(%rbp)
	movss	%xmm1, -76(%rbp)
	movss	%xmm0, -40(%rbp)
	movss	%xmm1, -36(%rbp)
	movss	%xmm2, -28(%rbp)
Ltmp1156:
	.loc	65 430 16
	divss	%xmm2, %xmm0
	.loc	65 431 16
	divss	%xmm2, %xmm1
	.loc	65 429 9
	movss	%xmm0, -48(%rbp)
	movss	%xmm1, -44(%rbp)
	.loc	65 433 6
	movss	-48(%rbp), %xmm0
	movss	%xmm0, -184(%rbp)
	movss	-44(%rbp), %xmm1
	movss	%xmm1, -180(%rbp)
Ltmp1157:
	.loc	59 138 37
	movss	%xmm0, -72(%rbp)
	movss	%xmm1, -68(%rbp)
Ltmp1158:
	.loc	59 140 16
	xorps	%xmm1, %xmm1
	ucomiss	%xmm1, %xmm0
	ja	LBB134_2
	movb	$0, -121(%rbp)
	jmp	LBB134_3
LBB134_2:
	.loc	59 0 16 is_stmt 0
	movss	-180(%rbp), %xmm0
	.loc	59 140 49
	xorps	%xmm1, %xmm1
	ucomiss	%xmm1, %xmm0
	seta	%al
	.loc	59 140 16
	andb	$1, %al
	movb	%al, -121(%rbp)
LBB134_3:
	testb	$1, -121(%rbp)
	jne	LBB134_5
	.loc	59 146 17 is_stmt 1
	movl	$0, -144(%rbp)
	.loc	59 140 13
	jmp	LBB134_6
LBB134_5:
	.loc	59 0 13 is_stmt 0
	movss	-180(%rbp), %xmm4
	movss	-184(%rbp), %xmm0
	.loc	59 141 22 is_stmt 1
	movss	L___unnamed_22(%rip), %xmm3
	movss	L___unnamed_22+4(%rip), %xmm2
	movss	%xmm3, -64(%rbp)
	movss	%xmm2, -60(%rbp)
	movss	%xmm0, -56(%rbp)
	movss	%xmm4, -52(%rbp)
	movss	%xmm3, -16(%rbp)
	movss	%xmm2, -12(%rbp)
	movss	%xmm0, -8(%rbp)
	movss	%xmm4, -4(%rbp)
Ltmp1159:
	.loc	66 244 16
	movaps	%xmm3, %xmm1
	addss	%xmm0, %xmm1
	.loc	66 245 16
	movaps	%xmm2, %xmm0
	addss	%xmm4, %xmm0
	.loc	66 243 9
	movss	%xmm1, -24(%rbp)
	movss	%xmm0, -20(%rbp)
	.loc	66 247 6
	movss	-24(%rbp), %xmm1
	movss	-20(%rbp), %xmm0
Ltmp1160:
	.file	67 "/Users/natalie/.cargo/registry/src/github.com-1ecc6299db9ec823/emath-0.19.0/src" "rect.rs"
	.loc	67 70 9
	movss	%xmm3, -120(%rbp)
	movss	%xmm2, -116(%rbp)
	movss	%xmm1, -112(%rbp)
	movss	%xmm0, -108(%rbp)
Ltmp1161:
	.loc	59 141 17
	movq	-120(%rbp), %rax
	movq	%rax, -140(%rbp)
	movq	-112(%rbp), %rax
	movq	%rax, -132(%rbp)
	movl	$1, -144(%rbp)
LBB134_6:
	.loc	59 0 17 is_stmt 0
	movq	-208(%rbp), %rsi
	movq	-224(%rbp), %rdi
	.loc	59 139 9 is_stmt 1
	movq	-144(%rbp), %rax
	movq	%rax, 116(%rsi)
	movq	-136(%rbp), %rax
	movq	%rax, 124(%rsi)
	movl	-128(%rbp), %eax
	movl	%eax, 132(%rsi)
	.loc	59 149 9
	callq	__ZN4egui4data5input8RawInput4take17h90d3ce2c2541ec55E
	movq	-216(%rbp), %rax
Ltmp1162:
	.loc	59 150 6
	addq	$224, %rsp
	popq	%rbp
	retq
Ltmp1163:
Lfunc_end134:
	.cfi_endproc

	.globl	__ZN10egui_winit5State8on_event17h27930f979c3198fcE
	.p2align	4, 0x90
__ZN10egui_winit5State8on_event17h27930f979c3198fcE:
Lfunc_begin135:
	.loc	59 162 0
	.cfi_startproc
	.cfi_personality 155, _rust_eh_personality
	.cfi_lsda 16, Lexception21
	pushq	%rbp
	.cfi_def_cfa_offset 16
	.cfi_offset %rbp, -16
	movq	%rsp, %rbp
	.cfi_def_cfa_register %rbp
	subq	$784, %rsp
	movq	%rdi, -704(%rbp)
	movq	%rsi, -696(%rbp)
	movq	%rdx, -688(%rbp)
	movq	%rdi, -160(%rbp)
	movq	%rsi, -152(%rbp)
	movq	%rdx, -144(%rbp)
Ltmp1185:
	.loc	59 168 15 prologue_end
	movq	(%rdx), %rax
	movq	%rax, %rcx
	addq	$-4, %rcx
	subq	$4, %rax
	movl	$19, %eax
	cmovaeq	%rcx, %rax
	.loc	59 168 9 is_stmt 0
	addq	$-4, %rax
	movq	%rax, -680(%rbp)
	subq	$16, %rax
	ja	LBB135_1
	.loc	59 0 9
	movq	-680(%rbp), %rax
	leaq	LJTI135_0(%rip), %rcx
	movslq	(%rcx,%rax,4), %rax
	addq	%rcx, %rax
	jmpq	*%rax
LBB135_1:
	.loc	59 262 17 is_stmt 1
	movb	$0, -665(%rbp)
	jmp	LBB135_15
LBB135_2:
	.loc	59 0 17 is_stmt 0
	movq	-704(%rbp), %rdi
	movq	-688(%rbp), %rax
	.loc	59 240 38 is_stmt 1
	addq	$8, %rax
	movq	%rax, -720(%rbp)
	movq	%rax, -8(%rbp)
Ltmp1186:
	.loc	59 241 17
	addq	$56, %rdi
	callq	__ZN5alloc3vec16Vec$LT$T$C$A$GT$5clear17h067fed43725ac3dbE
	movq	-704(%rbp), %rax
	movq	-720(%rbp), %rsi
	.loc	59 242 17
	addq	$80, %rax
	movq	%rax, -712(%rbp)
	leaq	-264(%rbp), %rdi
	.loc	59 243 32
	callq	__ZN57_$LT$std..path..PathBuf$u20$as$u20$core..clone..Clone$GT$5clone17h2ff913e916f6a3d2E
	.loc	59 243 27 is_stmt 0
	movq	-248(%rbp), %rax
	movq	%rax, -272(%rbp)
	movq	-264(%rbp), %rax
	movq	-256(%rbp), %rcx
	movq	%rcx, -280(%rbp)
	movq	%rax, -288(%rbp)
Ltmp1174:
	leaq	-240(%rbp), %rdi
	.loc	59 244 23 is_stmt 1
	callq	__ZN73_$LT$egui..data..input..DroppedFile$u20$as$u20$core..default..Default$GT$7default17h406a212483c9a69eE
Ltmp1175:
	jmp	LBB135_39
Ltmp1187:
LBB135_3:
	.loc	59 0 23 is_stmt 0
	movq	-704(%rbp), %rax
	movq	-688(%rbp), %rsi
	.loc	59 229 38 is_stmt 1
	addq	$8, %rsi
	movq	%rsi, -32(%rbp)
Ltmp1188:
	.loc	59 230 17
	addq	$56, %rax
	movq	%rax, -728(%rbp)
	leaq	-440(%rbp), %rdi
	.loc	59 231 32
	callq	__ZN57_$LT$std..path..PathBuf$u20$as$u20$core..clone..Clone$GT$5clone17h2ff913e916f6a3d2E
	.loc	59 231 27 is_stmt 0
	movq	-424(%rbp), %rax
	movq	%rax, -448(%rbp)
	movq	-440(%rbp), %rax
	movq	-432(%rbp), %rcx
	movq	%rcx, -456(%rbp)
	movq	%rax, -464(%rbp)
Ltmp1164:
	leaq	-416(%rbp), %rdi
	.loc	59 232 23 is_stmt 1
	callq	__ZN73_$LT$egui..data..input..HoveredFile$u20$as$u20$core..default..Default$GT$7default17he22154e55748225fE
Ltmp1165:
	jmp	LBB135_31
Ltmp1189:
LBB135_4:
	.loc	59 0 23 is_stmt 0
	movq	-704(%rbp), %rdi
	.loc	59 237 17 is_stmt 1
	addq	$56, %rdi
	callq	__ZN5alloc3vec16Vec$LT$T$C$A$GT$5clear17h067fed43725ac3dbE
	.loc	59 238 17
	movb	$0, -665(%rbp)
	jmp	LBB135_15
LBB135_5:
	.loc	59 0 17 is_stmt 0
	movq	-704(%rbp), %rax
	movq	-688(%rbp), %rcx
	.loc	59 202 44 is_stmt 1
	addq	$8, %rcx
	movq	%rcx, -736(%rbp)
	movq	%rcx, -48(%rbp)
Ltmp1190:
	.loc	59 206 24
	testb	$1, 137(%rax)
	jne	LBB135_22
	jmp	LBB135_21
Ltmp1191:
LBB135_6:
	.loc	59 0 24 is_stmt 0
	movq	-704(%rbp), %rax
	movq	-688(%rbp), %rcx
	.loc	59 222 34 is_stmt 1
	movq	%rcx, %rdx
	addq	$8, %rdx
	movq	%rdx, -64(%rbp)
Ltmp1192:
	.loc	59 223 45
	movb	8(%rcx), %cl
	.loc	59 223 17 is_stmt 0
	movb	%cl, 141(%rax)
	.loc	59 226 45 is_stmt 1
	callq	__ZN71_$LT$egui..data..input..Modifiers$u20$as$u20$core..default..Default$GT$7default17h411fc96fe0ea647fE
	movq	%rax, %rcx
	movq	-704(%rbp), %rax
	movl	%ecx, %edx
	movl	%edx, -56(%rbp)
	shrq	$32, %rcx
	movb	%cl, -52(%rbp)
	movl	-56(%rbp), %ecx
	movl	%ecx, -520(%rbp)
	movb	-52(%rbp), %cl
	movb	%cl, -516(%rbp)
	.loc	59 226 17 is_stmt 0
	movl	-520(%rbp), %ecx
	movl	%ecx, 136(%rax)
	movb	-516(%rbp), %cl
	movb	%cl, 140(%rax)
	.loc	59 227 17 is_stmt 1
	movb	$0, -665(%rbp)
Ltmp1193:
	.loc	59 228 13
	jmp	LBB135_15
LBB135_7:
	.loc	59 0 13 is_stmt 0
	movq	-704(%rbp), %rdi
	movq	-688(%rbp), %rsi
	.loc	59 217 42 is_stmt 1
	addq	$8, %rsi
	movq	%rsi, -744(%rbp)
	movq	%rsi, -72(%rbp)
Ltmp1194:
	.loc	59 218 17
	callq	__ZN10egui_winit5State17on_keyboard_input17hb4484a84a59e4188E
	movq	-696(%rbp), %rdi
	.loc	59 219 17
	callq	__ZN4egui7context7Context20wants_keyboard_input17h6e9ebdcfe7d5568fE
	testb	$1, %al
	jne	LBB135_20
	jmp	LBB135_19
Ltmp1195:
LBB135_8:
	.loc	59 0 17 is_stmt 0
	movq	-688(%rbp), %rdi
	.loc	59 248 43 is_stmt 1
	addq	$8, %rdi
	movq	%rdi, -752(%rbp)
	movq	%rdi, -80(%rbp)
Ltmp1196:
	.loc	59 249 49
	callq	__ZN5winit5event14ModifiersState3alt17h89c857b94ea58cffE
	movq	-752(%rbp), %rdi
	movb	%al, %cl
	movq	-704(%rbp), %rax
	.loc	59 249 17 is_stmt 0
	andb	$1, %cl
	movb	%cl, 136(%rax)
	.loc	59 250 50 is_stmt 1
	callq	__ZN5winit5event14ModifiersState4ctrl17h079a79f0690eaa8dE
	movq	-752(%rbp), %rdi
	movb	%al, %cl
	movq	-704(%rbp), %rax
	.loc	59 250 17 is_stmt 0
	andb	$1, %cl
	movb	%cl, 137(%rax)
	.loc	59 251 51 is_stmt 1
	callq	__ZN5winit5event14ModifiersState5shift17h8d777d513d401d11E
	movq	-752(%rbp), %rdi
	movb	%al, %cl
	movq	-704(%rbp), %rax
	.loc	59 251 17 is_stmt 0
	andb	$1, %cl
	movb	%cl, 138(%rax)
	.loc	59 252 82 is_stmt 1
	callq	__ZN5winit5event14ModifiersState4logo17h4e4f9482000c50f3E
	movq	-752(%rbp), %rdi
	movb	%al, %cl
	movq	-704(%rbp), %rax
	.loc	59 252 17 is_stmt 0
	andb	$1, %cl
	movb	%cl, 139(%rax)
	.loc	59 254 21 is_stmt 1
	callq	__ZN5winit5event14ModifiersState4logo17h4e4f9482000c50f3E
	movb	%al, %cl
	movq	-704(%rbp), %rax
	.loc	59 253 17
	andb	$1, %cl
	movb	%cl, 140(%rax)
	.loc	59 258 17
	movb	$0, -665(%rbp)
Ltmp1197:
	.loc	59 259 13
	jmp	LBB135_15
LBB135_9:
	.loc	59 0 13 is_stmt 0
	movq	-704(%rbp), %rdi
	movq	-688(%rbp), %rax
	.loc	59 183 40 is_stmt 1
	movq	%rax, %rcx
	addq	$8, %rcx
	movq	%rcx, -88(%rbp)
Ltmp1198:
	.loc	59 184 38
	movsd	8(%rax), %xmm0
	movsd	16(%rax), %xmm1
	.loc	59 184 17 is_stmt 0
	callq	__ZN10egui_winit5State15on_cursor_moved17h434c877a8535d40eE
	movq	-696(%rbp), %rdi
	.loc	59 185 17 is_stmt 1
	callq	__ZN4egui7context7Context16is_using_pointer17h5bb6d98cf43189b8E
	andb	$1, %al
	movb	%al, -665(%rbp)
	jmp	LBB135_15
Ltmp1199:
LBB135_10:
	.loc	59 0 17 is_stmt 0
	movq	-704(%rbp), %rdi
	.loc	59 188 46 is_stmt 1
	movl	$0, -632(%rbp)
	.loc	59 188 17 is_stmt 0
	movq	-632(%rbp), %rax
	movq	%rax, 212(%rdi)
	movl	-624(%rbp), %eax
	movl	%eax, 220(%rdi)
	.loc	59 189 17 is_stmt 1
	addq	$32, %rdi
	.loc	59 189 45 is_stmt 0
	movb	$7, -616(%rbp)
	.loc	59 189 17
	leaq	-616(%rbp), %rsi
	callq	__ZN5alloc3vec16Vec$LT$T$C$A$GT$4push17h5d704e9cf2d42e92E
	.loc	59 190 17 is_stmt 1
	movb	$0, -665(%rbp)
	jmp	LBB135_15
LBB135_11:
	.loc	59 0 17 is_stmt 0
	movq	-704(%rbp), %rdi
	movq	-688(%rbp), %rax
	.loc	59 179 39 is_stmt 1
	movq	%rax, %rcx
	addq	$8, %rcx
	movq	%rcx, -96(%rbp)
Ltmp1200:
	.loc	59 180 37
	movq	8(%rax), %rcx
	movq	%rcx, -656(%rbp)
	movq	16(%rax), %rcx
	movq	%rcx, -648(%rbp)
	movq	24(%rax), %rax
	movq	%rax, -640(%rbp)
	.loc	59 180 17 is_stmt 0
	leaq	-656(%rbp), %rsi
	callq	__ZN10egui_winit5State14on_mouse_wheel17h64ba78ed0b1292caE
	movq	-696(%rbp), %rdi
	.loc	59 181 17 is_stmt 1
	callq	__ZN4egui7context7Context19wants_pointer_input17hf993589c202ee9a0E
	andb	$1, %al
	movb	%al, -665(%rbp)
	jmp	LBB135_15
Ltmp1201:
LBB135_12:
	.loc	59 0 17 is_stmt 0
	movq	-688(%rbp), %rax
	movq	-704(%rbp), %rdi
	.loc	59 175 39 is_stmt 1
	movq	%rax, %rcx
	addq	$16, %rcx
	movq	%rcx, -112(%rbp)
	.loc	59 175 46 is_stmt 0
	movq	%rax, %rcx
	addq	$12, %rcx
	movq	%rcx, -104(%rbp)
Ltmp1202:
	.loc	59 176 44 is_stmt 1
	movb	16(%rax), %dl
	.loc	59 176 52 is_stmt 0
	movw	12(%rax), %cx
	.loc	59 176 17
	andb	$1, %dl
	movzbl	%dl, %esi
	movzwl	%cx, %edx
	movzwl	14(%rax), %ecx
	callq	__ZN10egui_winit5State21on_mouse_button_input17h434a19b7dffbd2c0E
	movq	-696(%rbp), %rdi
	.loc	59 177 17 is_stmt 1
	callq	__ZN4egui7context7Context19wants_pointer_input17hf993589c202ee9a0E
	andb	$1, %al
	movb	%al, -665(%rbp)
	jmp	LBB135_15
Ltmp1203:
LBB135_13:
	.loc	59 0 17 is_stmt 0
	movq	-688(%rbp), %rsi
	movq	-704(%rbp), %rdi
	.loc	59 193 32 is_stmt 1
	movq	%rsi, -120(%rbp)
Ltmp1204:
	.loc	59 194 17
	callq	__ZN10egui_winit5State8on_touch17heefecb9995a52976E
	movq	-688(%rbp), %rax
	.loc	59 195 23
	movzbl	56(%rax), %eax
	movq	%rax, -760(%rbp)
	testq	%rax, %rax
	.loc	59 195 17 is_stmt 0
	je	LBB135_17
	jmp	LBB135_44
LBB135_44:
	.loc	59 0 17
	movq	-760(%rbp), %rax
	.loc	59 195 17
	subq	$1, %rax
	je	LBB135_18
	jmp	LBB135_45
LBB135_45:
	jmp	LBB135_17
Ltmp1205:
LBB135_14:
	.loc	59 0 17
	movq	-704(%rbp), %rax
	movq	-688(%rbp), %rcx
	.loc	59 169 47 is_stmt 1
	movq	%rcx, %rdx
	addq	$8, %rdx
	movq	%rdx, -136(%rbp)
Ltmp1206:
	.loc	59 170 40
	movsd	8(%rcx), %xmm0
	cvtsd2ss	%xmm0, %xmm0
	movss	%xmm0, -124(%rbp)
Ltmp1207:
	.loc	59 171 52
	movss	%xmm0, -660(%rbp)
	movl	$1, -664(%rbp)
	.loc	59 171 17 is_stmt 0
	movl	-664(%rbp), %ecx
	movss	-660(%rbp), %xmm1
	movl	%ecx, 104(%rax)
	movss	%xmm1, 108(%rax)
	.loc	59 172 17 is_stmt 1
	movss	%xmm0, 208(%rax)
	.loc	59 173 17
	movb	$0, -665(%rbp)
Ltmp1208:
LBB135_15:
	.loc	59 265 6
	movb	-665(%rbp), %al
	andb	$1, %al
	movzbl	%al, %eax
	addq	$784, %rsp
	popq	%rbp
	retq
Ltmp1209:
	.loc	59 195 23
	ud2
LBB135_17:
	.loc	59 0 23 is_stmt 0
	movq	-696(%rbp), %rdi
	.loc	59 198 62 is_stmt 1
	callq	__ZN4egui7context7Context19wants_pointer_input17hf993589c202ee9a0E
	andb	$1, %al
	movb	%al, -665(%rbp)
	jmp	LBB135_15
LBB135_18:
	.loc	59 0 62 is_stmt 0
	movq	-696(%rbp), %rdi
	.loc	59 199 56 is_stmt 1
	callq	__ZN4egui7context7Context16is_using_pointer17h5bb6d98cf43189b8E
	andb	$1, %al
	movb	%al, -665(%rbp)
	jmp	LBB135_15
Ltmp1210:
LBB135_19:
	.loc	59 0 56 is_stmt 0
	movq	-744(%rbp), %rdi
Ltmp1211:
	.loc	59 220 24 is_stmt 1
	addq	$8, %rdi
	leaq	L___unnamed_32(%rip), %rsi
	callq	__ZN70_$LT$core..option..Option$LT$T$GT$$u20$as$u20$core..cmp..PartialEq$GT$2eq17h44936ea9b86ed855E
	.loc	59 219 17
	andb	$1, %al
	movb	%al, -665(%rbp)
	jmp	LBB135_15
LBB135_20:
	movb	$1, -665(%rbp)
	jmp	LBB135_15
Ltmp1212:
LBB135_21:
	.loc	59 0 17 is_stmt 0
	movq	-704(%rbp), %rax
Ltmp1213:
	.loc	59 206 59 is_stmt 1
	movb	139(%rax), %al
	.loc	59 206 24 is_stmt 0
	andb	$1, %al
	movb	%al, -578(%rbp)
	jmp	LBB135_23
LBB135_22:
	movb	$1, -578(%rbp)
LBB135_23:
	.loc	59 0 24
	movq	-736(%rbp), %rax
	.loc	59 205 34 is_stmt 1
	movb	-578(%rbp), %cl
	movb	%cl, -761(%rbp)
	andb	$1, %cl
	movb	%cl, -33(%rbp)
Ltmp1214:
	.loc	59 208 38
	movl	(%rax), %edi
	.loc	59 208 20 is_stmt 0
	callq	__ZN10egui_winit17is_printable_char17h1f2a15706b6efa15E
	testb	$1, %al
	jne	LBB135_25
	movb	$0, -577(%rbp)
	jmp	LBB135_26
LBB135_25:
	.loc	59 0 20
	movb	-761(%rbp), %al
	.loc	59 208 46
	xorb	$-1, %al
	.loc	59 208 20
	andb	$1, %al
	movb	%al, -577(%rbp)
LBB135_26:
	testb	$1, -577(%rbp)
	jne	LBB135_28
	.loc	59 214 21 is_stmt 1
	movb	$0, -665(%rbp)
	.loc	59 208 17
	jmp	LBB135_15
LBB135_28:
	.loc	59 0 17 is_stmt 0
	movq	-736(%rbp), %rsi
	movq	-704(%rbp), %rax
	.loc	59 209 21 is_stmt 1
	addq	$32, %rax
	movq	%rax, -776(%rbp)
	.loc	59 211 49
	leaq	-544(%rbp), %rdi
	callq	__ZN48_$LT$char$u20$as$u20$alloc..string..ToString$GT$9to_string17h93a0c7499c85122dE
	movq	-776(%rbp), %rdi
	.loc	59 211 31 is_stmt 0
	movq	-544(%rbp), %rax
	movq	%rax, -568(%rbp)
	movq	-536(%rbp), %rax
	movq	%rax, -560(%rbp)
	movq	-528(%rbp), %rax
	movq	%rax, -552(%rbp)
	movb	$3, -576(%rbp)
	.loc	59 209 21 is_stmt 1
	leaq	-576(%rbp), %rsi
	callq	__ZN5alloc3vec16Vec$LT$T$C$A$GT$4push17h5d704e9cf2d42e92E
	movq	-696(%rbp), %rdi
	.loc	59 212 21
	callq	__ZN4egui7context7Context20wants_keyboard_input17h6e9ebdcfe7d5568fE
	andb	$1, %al
	movb	%al, -665(%rbp)
	jmp	LBB135_15
Ltmp1215:
LBB135_29:
Ltmp1167:
	.loc	59 0 21 is_stmt 0
	leaq	-464(%rbp), %rdi
Ltmp1216:
	.loc	59 233 17 is_stmt 1
	callq	__ZN4core3ptr67drop_in_place$LT$core..option..Option$LT$std..path..PathBuf$GT$$GT$17h7d478d06c13d598eE
Ltmp1168:
	jmp	LBB135_33
LBB135_30:
Ltmp1166:
	.loc	59 0 17 is_stmt 0
	movq	%rax, %rcx
	movl	%edx, %eax
	movq	%rcx, -24(%rbp)
	movl	%eax, -16(%rbp)
	jmp	LBB135_29
LBB135_31:
	movq	-728(%rbp), %rdi
	.loc	59 230 52 is_stmt 1
	movq	-448(%rbp), %rax
	movq	%rax, -496(%rbp)
	movq	-464(%rbp), %rax
	movq	-456(%rbp), %rcx
	movq	%rcx, -504(%rbp)
	movq	%rax, -512(%rbp)
	movq	-376(%rbp), %rax
	movq	%rax, -472(%rbp)
	movq	-392(%rbp), %rax
	movq	-384(%rbp), %rcx
	movq	%rcx, -480(%rbp)
	movq	%rax, -488(%rbp)
Ltmp1169:
	leaq	-512(%rbp), %rsi
	.loc	59 230 17 is_stmt 0
	callq	__ZN5alloc3vec16Vec$LT$T$C$A$GT$4push17hdc8aa5149cee496aE
Ltmp1170:
	jmp	LBB135_36
Ltmp1217:
LBB135_32:
Ltmp1184:
	.loc	59 162 5 is_stmt 1
	callq	__ZN4core9panicking19panic_cannot_unwind17h1fbca7e1d7f56ae1E
LBB135_33:
	movq	-24(%rbp), %rdi
	callq	__Unwind_Resume
LBB135_34:
Ltmp1172:
	.loc	59 0 5 is_stmt 0
	leaq	-416(%rbp), %rdi
Ltmp1218:
	.loc	59 233 19 is_stmt 1
	callq	__ZN4core3ptr67drop_in_place$LT$core..option..Option$LT$std..path..PathBuf$GT$$GT$17h7d478d06c13d598eE
Ltmp1173:
	jmp	LBB135_33
LBB135_35:
Ltmp1171:
	.loc	59 0 19 is_stmt 0
	movq	%rax, %rcx
	movl	%edx, %eax
	movq	%rcx, -24(%rbp)
	movl	%eax, -16(%rbp)
	jmp	LBB135_34
LBB135_36:
	.loc	59 233 19
	leaq	-416(%rbp), %rdi
	callq	__ZN4core3ptr67drop_in_place$LT$core..option..Option$LT$std..path..PathBuf$GT$$GT$17h7d478d06c13d598eE
	.loc	59 234 17 is_stmt 1
	movb	$0, -665(%rbp)
Ltmp1219:
	.loc	59 235 13
	jmp	LBB135_15
LBB135_37:
Ltmp1177:
	.loc	59 0 13 is_stmt 0
	leaq	-288(%rbp), %rdi
Ltmp1220:
	.loc	59 245 17 is_stmt 1
	callq	__ZN4core3ptr67drop_in_place$LT$core..option..Option$LT$std..path..PathBuf$GT$$GT$17h7d478d06c13d598eE
Ltmp1178:
	jmp	LBB135_33
LBB135_38:
Ltmp1176:
	.loc	59 0 17 is_stmt 0
	movq	%rax, %rcx
	movl	%edx, %eax
	movq	%rcx, -24(%rbp)
	movl	%eax, -16(%rbp)
	jmp	LBB135_37
LBB135_39:
	movq	-712(%rbp), %rdi
	.loc	59 242 52 is_stmt 1
	movq	-272(%rbp), %rax
	movq	%rax, -320(%rbp)
	movq	-288(%rbp), %rax
	movq	-280(%rbp), %rcx
	movq	%rcx, -328(%rbp)
	movq	%rax, -336(%rbp)
	movq	-168(%rbp), %rax
	movq	%rax, -296(%rbp)
	movq	-184(%rbp), %rax
	movq	-176(%rbp), %rcx
	movq	%rcx, -304(%rbp)
	movq	%rax, -312(%rbp)
	movq	-224(%rbp), %rcx
	movl	-216(%rbp), %eax
	movq	%rcx, -352(%rbp)
	movl	%eax, -344(%rbp)
	movq	-240(%rbp), %rcx
	movq	-232(%rbp), %rax
	movq	%rcx, -368(%rbp)
	movq	%rax, -360(%rbp)
Ltmp1179:
	leaq	-368(%rbp), %rsi
	.loc	59 242 17 is_stmt 0
	callq	__ZN5alloc3vec16Vec$LT$T$C$A$GT$4push17hb776ae03de70f69dE
Ltmp1180:
	jmp	LBB135_42
LBB135_40:
	.loc	59 245 19 is_stmt 1
	leaq	-208(%rbp), %rdi
Ltmp1182:
	callq	__ZN4core3ptr67drop_in_place$LT$core..option..Option$LT$std..path..PathBuf$GT$$GT$17h7d478d06c13d598eE
Ltmp1183:
	jmp	LBB135_33
LBB135_41:
Ltmp1181:
	.loc	59 0 19 is_stmt 0
	movq	%rax, %rcx
	movl	%edx, %eax
	movq	%rcx, -24(%rbp)
	movl	%eax, -16(%rbp)
	jmp	LBB135_40
LBB135_42:
	.loc	59 245 19
	leaq	-240(%rbp), %rdi
	addq	$32, %rdi
	callq	__ZN4core3ptr67drop_in_place$LT$core..option..Option$LT$std..path..PathBuf$GT$$GT$17h7d478d06c13d598eE
	.loc	59 246 17 is_stmt 1
	movb	$0, -665(%rbp)
Ltmp1221:
	.loc	59 247 13
	jmp	LBB135_15
Ltmp1222:
Lfunc_end135:
	.cfi_endproc
	.p2align	2, 0x90
	.data_region jt32
.set L135_0_set_2, LBB135_2-LJTI135_0
.set L135_0_set_3, LBB135_3-LJTI135_0
.set L135_0_set_4, LBB135_4-LJTI135_0
.set L135_0_set_5, LBB135_5-LJTI135_0
.set L135_0_set_6, LBB135_6-LJTI135_0
.set L135_0_set_7, LBB135_7-LJTI135_0
.set L135_0_set_8, LBB135_8-LJTI135_0
.set L135_0_set_1, LBB135_1-LJTI135_0
.set L135_0_set_9, LBB135_9-LJTI135_0
.set L135_0_set_10, LBB135_10-LJTI135_0
.set L135_0_set_11, LBB135_11-LJTI135_0
.set L135_0_set_12, LBB135_12-LJTI135_0
.set L135_0_set_13, LBB135_13-LJTI135_0
.set L135_0_set_14, LBB135_14-LJTI135_0
LJTI135_0:
	.long	L135_0_set_2
	.long	L135_0_set_3
	.long	L135_0_set_4
	.long	L135_0_set_5
	.long	L135_0_set_6
	.long	L135_0_set_7
	.long	L135_0_set_8
	.long	L135_0_set_1
	.long	L135_0_set_9
	.long	L135_0_set_1
	.long	L135_0_set_10
	.long	L135_0_set_11
	.long	L135_0_set_12
	.long	L135_0_set_1
	.long	L135_0_set_1
	.long	L135_0_set_13
	.long	L135_0_set_14
	.end_data_region
	.section	__TEXT,__gcc_except_tab
	.p2align	2
GCC_except_table135:
Lexception21:
	.byte	255
	.byte	255
	.byte	1
	.uleb128 Lcst_end21-Lcst_begin21
Lcst_begin21:
	.uleb128 Lfunc_begin135-Lfunc_begin135
	.uleb128 Ltmp1174-Lfunc_begin135
	.byte	0
	.byte	0
	.uleb128 Ltmp1174-Lfunc_begin135
	.uleb128 Ltmp1175-Ltmp1174
	.uleb128 Ltmp1176-Lfunc_begin135
	.byte	0
	.uleb128 Ltmp1175-Lfunc_begin135
	.uleb128 Ltmp1164-Ltmp1175
	.byte	0
	.byte	0
	.uleb128 Ltmp1164-Lfunc_begin135
	.uleb128 Ltmp1165-Ltmp1164
	.uleb128 Ltmp1166-Lfunc_begin135
	.byte	0
	.uleb128 Ltmp1165-Lfunc_begin135
	.uleb128 Ltmp1167-Ltmp1165
	.byte	0
	.byte	0
	.uleb128 Ltmp1167-Lfunc_begin135
	.uleb128 Ltmp1168-Ltmp1167
	.uleb128 Ltmp1184-Lfunc_begin135
	.byte	0
	.uleb128 Ltmp1169-Lfunc_begin135
	.uleb128 Ltmp1170-Ltmp1169
	.uleb128 Ltmp1171-Lfunc_begin135
	.byte	0
	.uleb128 Ltmp1170-Lfunc_begin135
	.uleb128 Ltmp1172-Ltmp1170
	.byte	0
	.byte	0
	.uleb128 Ltmp1172-Lfunc_begin135
	.uleb128 Ltmp1173-Ltmp1172
	.uleb128 Ltmp1184-Lfunc_begin135
	.byte	0
	.uleb128 Ltmp1173-Lfunc_begin135
	.uleb128 Ltmp1177-Ltmp1173
	.byte	0
	.byte	0
	.uleb128 Ltmp1177-Lfunc_begin135
	.uleb128 Ltmp1178-Ltmp1177
	.uleb128 Ltmp1184-Lfunc_begin135
	.byte	0
	.uleb128 Ltmp1179-Lfunc_begin135
	.uleb128 Ltmp1180-Ltmp1179
	.uleb128 Ltmp1181-Lfunc_begin135
	.byte	0
	.uleb128 Ltmp1182-Lfunc_begin135
	.uleb128 Ltmp1183-Ltmp1182
	.uleb128 Ltmp1184-Lfunc_begin135
	.byte	0
	.uleb128 Ltmp1183-Lfunc_begin135
	.uleb128 Lfunc_end135-Ltmp1183
	.byte	0
	.byte	0
Lcst_end21:
	.p2align	2

	.section	__TEXT,__text,regular,pure_instructions
	.p2align	4, 0x90
__ZN10egui_winit5State21on_mouse_button_input17h434a19b7dffbd2c0E:
Lfunc_begin136:
	.loc	59 267 0
	.cfi_startproc
	pushq	%rbp
	.cfi_def_cfa_offset 16
	.cfi_offset %rbp, -16
	movq	%rsp, %rbp
	.cfi_def_cfa_register %rbp
	subq	$208, %rsp
	movq	%rdi, -184(%rbp)
	movw	%cx, %ax
	movw	%ax, -174(%rbp)
	movw	%dx, %cx
	movw	%cx, -172(%rbp)
	movb	%sil, %dl
	andb	$1, %dl
	movb	%dl, -170(%rbp)
	movq	%rdi, -32(%rbp)
	movw	%cx, -24(%rbp)
	movw	%ax, -22(%rbp)
Ltmp1223:
	.loc	59 272 16 prologue_end
	movl	212(%rdi), %eax
	cmpq	$1, %rax
	jne	LBB136_2
	.loc	59 0 16 is_stmt 0
	movw	-174(%rbp), %ax
	movw	-172(%rbp), %cx
	movq	-184(%rbp), %rdx
	.loc	59 272 21
	movss	216(%rdx), %xmm1
	movss	%xmm1, -192(%rbp)
	movss	220(%rdx), %xmm0
	movss	%xmm0, -188(%rbp)
	movss	%xmm1, -16(%rbp)
	movss	%xmm0, -12(%rbp)
Ltmp1224:
	.loc	59 273 35 is_stmt 1
	movzwl	%cx, %edi
	movzwl	%ax, %esi
	callq	__ZN10egui_winit22translate_mouse_button17h085dca86d7d57689E
	movb	%al, -169(%rbp)
	.loc	59 273 20 is_stmt 0
	movl	$1, %eax
	xorl	%ecx, %ecx
	cmpb	$5, -169(%rbp)
	cmoveq	%rcx, %rax
	cmpq	$1, %rax
	je	LBB136_3
Ltmp1225:
LBB136_2:
	.loc	59 310 6 is_stmt 1
	addq	$208, %rsp
	popq	%rbp
	retq
LBB136_3:
Ltmp1226:
	.loc	59 273 25
	movb	-169(%rbp), %al
	movb	%al, -194(%rbp)
	movb	%al, -2(%rbp)
	.loc	59 274 31
	leaq	-170(%rbp), %rdi
	leaq	l___unnamed_33(%rip), %rsi
	callq	__ZN67_$LT$winit..event..ElementState$u20$as$u20$core..cmp..PartialEq$GT$2eq17hcdb85d1741b44fffE
	movss	-192(%rbp), %xmm1
	movss	-188(%rbp), %xmm0
	movb	-194(%rbp), %cl
	movq	-184(%rbp), %rdx
	movb	%al, -193(%rbp)
	movb	%al, %sil
	andb	$1, %sil
	movb	%sil, -1(%rbp)
Ltmp1227:
	.loc	59 276 17
	movq	%rdx, %rdi
	addq	$32, %rdi
	.loc	59 280 32
	movl	136(%rdx), %esi
	movl	%esi, -136(%rbp)
	movb	140(%rdx), %dl
	movb	%dl, -132(%rbp)
	.loc	59 276 45
	movss	%xmm1, -160(%rbp)
	movss	%xmm0, -156(%rbp)
	movb	%cl, -167(%rbp)
	andb	$1, %al
	movb	%al, -166(%rbp)
	movl	-136(%rbp), %eax
	movl	%eax, -165(%rbp)
	movb	-132(%rbp), %al
	movb	%al, -161(%rbp)
	movb	$6, -168(%rbp)
	.loc	59 276 17 is_stmt 0
	leaq	-168(%rbp), %rsi
	callq	__ZN5alloc3vec16Vec$LT$T$C$A$GT$4push17h5d704e9cf2d42e92E
	movq	-184(%rbp), %rax
	.loc	59 283 20 is_stmt 1
	testb	$1, 226(%rax)
	je	LBB136_2
	.loc	59 0 20 is_stmt 0
	movb	-193(%rbp), %al
	.loc	59 284 24 is_stmt 1
	testb	$1, %al
	jne	LBB136_6
	jmp	LBB136_5
LBB136_5:
	.loc	59 0 24 is_stmt 0
	movq	-184(%rbp), %rdi
	.loc	59 295 25 is_stmt 1
	movb	$0, 225(%rdi)
	.loc	59 297 25
	addq	$32, %rdi
	.loc	59 297 53 is_stmt 0
	movb	$7, -96(%rbp)
	.loc	59 297 25
	leaq	-96(%rbp), %rsi
	callq	__ZN5alloc3vec16Vec$LT$T$C$A$GT$4push17h5d704e9cf2d42e92E
	movq	-184(%rbp), %rdi
	movss	-192(%rbp), %xmm1
	movss	-188(%rbp), %xmm0
	.loc	59 299 25 is_stmt 1
	addq	$32, %rdi
	.loc	59 299 53 is_stmt 0
	movq	$0, -56(%rbp)
	movq	$0, -48(%rbp)
	movb	$2, -63(%rbp)
	movss	%xmm1, -40(%rbp)
	movss	%xmm0, -36(%rbp)
	xorps	%xmm0, %xmm0
	movss	%xmm0, -60(%rbp)
	movb	$13, -64(%rbp)
	.loc	59 299 25
	leaq	-64(%rbp), %rsi
	callq	__ZN5alloc3vec16Vec$LT$T$C$A$GT$4push17h5d704e9cf2d42e92E
	jmp	LBB136_2
LBB136_6:
	.loc	59 0 25
	movss	-188(%rbp), %xmm0
	movss	-192(%rbp), %xmm1
	movq	-184(%rbp), %rdi
	.loc	59 285 25 is_stmt 1
	movb	$1, 225(%rdi)
	.loc	59 287 25
	addq	$32, %rdi
	.loc	59 287 53 is_stmt 0
	movq	$0, -120(%rbp)
	movq	$0, -112(%rbp)
	movb	$0, -127(%rbp)
	movss	%xmm1, -104(%rbp)
	movss	%xmm0, -100(%rbp)
	xorps	%xmm0, %xmm0
	movss	%xmm0, -124(%rbp)
	movb	$13, -128(%rbp)
	.loc	59 287 25
	leaq	-128(%rbp), %rsi
	callq	__ZN5alloc3vec16Vec$LT$T$C$A$GT$4push17h5d704e9cf2d42e92E
	jmp	LBB136_2
Ltmp1228:
Lfunc_end136:
	.cfi_endproc

	.p2align	4, 0x90
__ZN10egui_winit5State15on_cursor_moved17h434c877a8535d40eE:
Lfunc_begin137:
	.loc	59 312 0 is_stmt 1
	.cfi_startproc
	pushq	%rbp
	.cfi_def_cfa_offset 16
	.cfi_offset %rbp, -16
	movq	%rsp, %rbp
	.cfi_def_cfa_register %rbp
	subq	$208, %rsp
	movq	%rdi, -184(%rbp)
	movsd	%xmm1, -200(%rbp)
	movq	%rdi, -48(%rbp)
	movsd	%xmm0, -40(%rbp)
	movsd	%xmm1, -32(%rbp)
Ltmp1229:
	.loc	59 314 13 prologue_end
	cvtsd2ss	%xmm0, %xmm0
	movss	%xmm0, -192(%rbp)
	.loc	59 314 38 is_stmt 0
	callq	__ZN10egui_winit5State16pixels_per_point17hb86b38e0553759daE
	movsd	-200(%rbp), %xmm1
	movq	-184(%rbp), %rdi
	movaps	%xmm0, %xmm2
	movss	-192(%rbp), %xmm0
	.loc	59 314 13
	divss	%xmm2, %xmm0
	movss	%xmm0, -188(%rbp)
	.loc	59 315 13 is_stmt 1
	cvtsd2ss	%xmm1, %xmm0
	movss	%xmm0, -172(%rbp)
	.loc	59 315 38 is_stmt 0
	callq	__ZN10egui_winit5State16pixels_per_point17hb86b38e0553759daE
	movss	-188(%rbp), %xmm1
	movq	-184(%rbp), %rdi
	movaps	%xmm0, %xmm2
	movss	-172(%rbp), %xmm0
	.loc	59 315 13
	divss	%xmm2, %xmm0
	movss	%xmm1, -8(%rbp)
	movss	%xmm0, -4(%rbp)
Ltmp1230:
	.loc	66 26 5 is_stmt 1
	movss	%xmm1, -16(%rbp)
	movss	%xmm0, -12(%rbp)
	.loc	66 27 2
