	.section	__TEXT,__text,regular,pure_instructions
	.macosx_version_min 10, 7
	.globl	__ZN102_$LT$core..iter..adapters..zip..Zip$LT$A$C$B$GT$$u20$as$u20$core..iter..traits..iterator..Iterator$GT$4next17ha5fd7db1827a4099E
	.p2align	4, 0x90
__ZN102_$LT$core..iter..adapters..zip..Zip$LT$A$C$B$GT$$u20$as$u20$core..iter..traits..iterator..Iterator$GT$4next17ha5fd7db1827a4099E:
Lfunc_begin0:
	.file	1 "/rustc/2c8cc343237b8f7d5a3c3703e3a87f2eb2c54a74/library/core/src/iter/adapters" "zip.rs"
	.loc	1 83 0
	.cfi_startproc
	pushq	%rbp
	.cfi_def_cfa_offset 16
	.cfi_offset %rbp, -16
	movq	%rsp, %rbp
	.cfi_def_cfa_register %rbp
	subq	$16, %rsp
	movq	%rdi, -8(%rbp)
Ltmp0:
	.loc	1 84 9 prologue_end
	callq	__ZN111_$LT$core..iter..adapters..zip..Zip$LT$A$C$B$GT$$u20$as$u20$core..iter..adapters..zip..ZipImpl$LT$A$C$B$GT$$GT$4next17hc37e8a604dcc1411E
	.loc	1 85 6
	addq	$16, %rsp
	popq	%rbp
	retq
Ltmp1:
Lfunc_end0:
	.cfi_endproc

	.globl	__ZN106_$LT$core..ops..range..Range$LT$usize$GT$$u20$as$u20$core..slice..index..SliceIndex$LT$$u5b$T$u5d$$GT$$GT$13get_unchecked17h662e1c206bc2ea44E
	.p2align	4, 0x90
__ZN106_$LT$core..ops..range..Range$LT$usize$GT$$u20$as$u20$core..slice..index..SliceIndex$LT$$u5b$T$u5d$$GT$$GT$13get_unchecked17h662e1c206bc2ea44E:
Lfunc_begin1:
	.file	2 "/rustc/2c8cc343237b8f7d5a3c3703e3a87f2eb2c54a74/library/core/src/slice" "index.rs"
	.loc	2 373 0
	.cfi_startproc
	pushq	%rbp
	.cfi_def_cfa_offset 16
	.cfi_offset %rbp, -16
	movq	%rsp, %rbp
	.cfi_def_cfa_register %rbp
	subq	$160, %rsp
	movq	%rdi, -128(%rbp)
	movq	%rsi, -120(%rbp)
	movq	%rdx, -112(%rbp)
	movq	%rcx, -104(%rbp)
Ltmp2:
	.loc	2 386 39 prologue_end
	movq	%rdx, -96(%rbp)
	movq	%rcx, -88(%rbp)
Ltmp3:
	.file	3 "/rustc/2c8cc343237b8f7d5a3c3703e3a87f2eb2c54a74/library/core/src/ptr" "const_ptr.rs"
	.loc	3 1650 9
	movq	%rdx, -80(%rbp)
Ltmp4:
	.loc	2 386 58
	movq	%rdi, -72(%rbp)
Ltmp5:
	.loc	3 932 18
	movq	%rdx, -64(%rbp)
	.loc	3 932 30 is_stmt 0
	movq	%rdi, -56(%rbp)
Ltmp6:
	.loc	3 473 18 is_stmt 1
	addq	%rdi, %rdx
	movq	%rdx, -48(%rbp)
	movq	-48(%rbp), %rax
	movq	%rax, -40(%rbp)
Ltmp7:
	.loc	2 386 71
	subq	%rdi, %rsi
	movq	%rsi, -32(%rbp)
Ltmp8:
	.file	4 "/rustc/2c8cc343237b8f7d5a3c3703e3a87f2eb2c54a74/library/core/src/ptr" "mod.rs"
	.loc	4 734 20
	movq	%rax, -24(%rbp)
Ltmp9:
	.loc	3 61 9
	movq	%rax, -16(%rbp)
Ltmp10:
	.loc	4 734 33
	movq	%rsi, -8(%rbp)
Ltmp11:
	.file	5 "/rustc/2c8cc343237b8f7d5a3c3703e3a87f2eb2c54a74/library/core/src/ptr" "metadata.rs"
	.loc	5 118 36
	movq	%rax, -144(%rbp)
	movq	%rsi, -136(%rbp)
	.loc	5 118 14 is_stmt 0
	movq	-144(%rbp), %rcx
	movq	-136(%rbp), %rax
	movq	%rcx, -160(%rbp)
	movq	%rax, -152(%rbp)
	movq	-160(%rbp), %rax
	movq	-152(%rbp), %rdx
Ltmp12:
	.loc	2 388 6 is_stmt 1
	addq	$160, %rsp
	popq	%rbp
	retq
Ltmp13:
Lfunc_end1:
	.cfi_endproc

	.globl	__ZN110_$LT$core..iter..adapters..enumerate..Enumerate$LT$I$GT$$u20$as$u20$core..iter..traits..iterator..Iterator$GT$4next17hafdd9c227eae0803E
	.p2align	4, 0x90
__ZN110_$LT$core..iter..adapters..enumerate..Enumerate$LT$I$GT$$u20$as$u20$core..iter..traits..iterator..Iterator$GT$4next17hafdd9c227eae0803E:
Lfunc_begin2:
	.file	6 "/rustc/2c8cc343237b8f7d5a3c3703e3a87f2eb2c54a74/library/core/src/iter/adapters" "enumerate.rs"
	.loc	6 45 0
	.cfi_startproc
	.cfi_personality 155, _rust_eh_personality
	.cfi_lsda 16, Lexception0
	pushq	%rbp
	.cfi_def_cfa_offset 16
	.cfi_offset %rbp, -16
	movq	%rsp, %rbp
	.cfi_def_cfa_register %rbp
	subq	$160, %rsp
	movq	%rdi, -128(%rbp)
	movq	%rdi, -72(%rbp)
Ltmp17:
	.loc	6 46 17 prologue_end
	callq	__ZN91_$LT$core..slice..iter..Iter$LT$T$GT$$u20$as$u20$core..iter..traits..iterator..Iterator$GT$4next17hde1d22fd23733bf2E
	movq	%rax, -96(%rbp)
Ltmp18:
	.file	7 "/rustc/2c8cc343237b8f7d5a3c3703e3a87f2eb2c54a74/library/core/src" "option.rs"
	.loc	7 2407 15
	movq	-96(%rbp), %rdx
	movl	$1, %eax
	xorl	%ecx, %ecx
	cmpq	$0, %rdx
	cmoveq	%rcx, %rax
	.loc	7 2407 9 is_stmt 0
	cmpq	$0, %rax
	jne	LBB2_2
	.loc	7 2409 21 is_stmt 1
	movq	$0, -104(%rbp)
	.loc	7 2409 44 is_stmt 0
	jmp	LBB2_3
LBB2_2:
	.loc	7 2408 18 is_stmt 1
	movq	-96(%rbp), %rax
	movq	%rax, -48(%rbp)
Ltmp19:
	.loc	7 2408 24 is_stmt 0
	movq	%rax, -104(%rbp)
Ltmp20:
LBB2_3:
	.loc	6 46 17 is_stmt 1
	movq	-104(%rbp), %rdx
	xorl	%eax, %eax
	movl	$1, %ecx
	cmpq	$0, %rdx
	cmoveq	%rcx, %rax
	cmpq	$0, %rax
	jne	LBB2_5
	.loc	6 0 17 is_stmt 0
	movq	-128(%rbp), %rax
	.loc	6 46 17
	movq	-104(%rbp), %rcx
	movq	%rcx, -152(%rbp)
	movq	%rcx, -40(%rbp)
Ltmp21:
	.loc	6 46 17
	movq	%rcx, -32(%rbp)
Ltmp22:
	.loc	6 47 17 is_stmt 1
	movq	16(%rax), %rcx
	movq	%rcx, -144(%rbp)
	movq	%rcx, -24(%rbp)
Ltmp23:
	.loc	6 48 9
	movq	16(%rax), %rax
	addq	$1, %rax
	movq	%rax, -136(%rbp)
	setb	%al
	testb	$1, %al
	jne	LBB2_8
	jmp	LBB2_7
Ltmp24:
LBB2_5:
	.loc	7 2420 21
	movq	$0, -112(%rbp)
Ltmp25:
LBB2_6:
	.loc	6 50 6
	movq	-120(%rbp), %rax
	movq	-112(%rbp), %rdx
	addq	$160, %rsp
	popq	%rbp
	retq
LBB2_7:
	.loc	6 0 6 is_stmt 0
	movq	-152(%rbp), %rax
	movq	-144(%rbp), %rcx
	movq	-128(%rbp), %rdx
	movq	-136(%rbp), %rsi
Ltmp26:
	.loc	6 48 9 is_stmt 1
	movq	%rsi, 16(%rdx)
	.loc	6 49 14
	movq	%rcx, -88(%rbp)
	movq	%rax, -80(%rbp)
	.loc	6 49 9 is_stmt 0
	movq	-88(%rbp), %rcx
	movq	-80(%rbp), %rax
	movq	%rcx, -120(%rbp)
	movq	%rax, -112(%rbp)
Ltmp27:
	.loc	6 50 6 is_stmt 1
	jmp	LBB2_6
LBB2_8:
Ltmp14:
Ltmp28:
	.loc	6 48 9
	leaq	_str.0(%rip), %rdi
	leaq	l___unnamed_5(%rip), %rdx
	movl	$28, %esi
	callq	__ZN4core9panicking5panic17hc1bc45270cf64b03E
Ltmp15:
	jmp	LBB2_11
Ltmp29:
LBB2_9:
	.loc	6 45 5
	movq	-16(%rbp), %rdi
	callq	__Unwind_Resume
Ltmp30:
LBB2_10:
Ltmp16:
	.loc	6 0 5 is_stmt 0
	movq	%rax, %rcx
	movl	%edx, %eax
	movq	%rcx, -16(%rbp)
	movl	%eax, -8(%rbp)
	jmp	LBB2_9
LBB2_11:
	ud2
Lfunc_end2:
	.cfi_endproc
	.section	__TEXT,__gcc_except_tab
	.p2align	2
GCC_except_table2:
Lexception0:
	.byte	255
	.byte	255
	.byte	1
	.uleb128 Lcst_end0-Lcst_begin0
Lcst_begin0:
	.uleb128 Lfunc_begin2-Lfunc_begin2
	.uleb128 Ltmp14-Lfunc_begin2
	.byte	0
	.byte	0
	.uleb128 Ltmp14-Lfunc_begin2
	.uleb128 Ltmp15-Ltmp14
	.uleb128 Ltmp16-Lfunc_begin2
	.byte	0
	.uleb128 Ltmp15-Lfunc_begin2
	.uleb128 Lfunc_end2-Ltmp15
	.byte	0
	.byte	0
Lcst_end0:
	.p2align	2

	.section	__TEXT,__text,regular,pure_instructions
	.globl	__ZN110_$LT$core..ops..range..RangeFrom$LT$usize$GT$$u20$as$u20$core..slice..index..SliceIndex$LT$$u5b$T$u5d$$GT$$GT$5index17h80ce35b19bb43d06E
	.p2align	4, 0x90
__ZN110_$LT$core..ops..range..RangeFrom$LT$usize$GT$$u20$as$u20$core..slice..index..SliceIndex$LT$$u5b$T$u5d$$GT$$GT$5index17h80ce35b19bb43d06E:
Lfunc_begin3:
	.loc	2 493 0 is_stmt 1
	.cfi_startproc
	pushq	%rbp
	.cfi_def_cfa_offset 16
	.cfi_offset %rbp, -16
	movq	%rsp, %rbp
	.cfi_def_cfa_register %rbp
	subq	$144, %rsp
	movq	%rdi, -144(%rbp)
	movq	%rsi, -136(%rbp)
	movq	%rdx, -128(%rbp)
	movq	%rcx, -120(%rbp)
	movq	%rdi, -80(%rbp)
	movq	%rsi, -72(%rbp)
	movq	%rdx, -64(%rbp)
Ltmp31:
	.loc	2 494 12 prologue_end
	cmpq	%rdx, %rdi
	ja	LBB3_2
	.loc	2 0 12 is_stmt 0
	movq	-128(%rbp), %rcx
	movq	-136(%rbp), %rdx
	movq	-144(%rbp), %rsi
	.loc	2 498 20 is_stmt 1
	movq	%rsi, -56(%rbp)
	.loc	2 498 39 is_stmt 0
	movq	%rdx, -48(%rbp)
	movq	%rcx, -40(%rbp)
Ltmp32:
	.loc	2 483 31 is_stmt 1
	movq	%rdx, -32(%rbp)
	movq	%rcx, -24(%rbp)
Ltmp33:
	.loc	3 1630 18
	movq	%rdx, -16(%rbp)
	movq	%rcx, -8(%rbp)
Ltmp34:
	.loc	5 98 14
	movq	%rdx, -96(%rbp)
	movq	%rcx, -88(%rbp)
	movq	-88(%rbp), %rax
Ltmp35:
	.loc	2 483 18
	movq	%rsi, -112(%rbp)
	movq	%rax, -104(%rbp)
	movq	-112(%rbp), %rdi
	movq	-104(%rbp), %rsi
	callq	__ZN106_$LT$core..ops..range..Range$LT$usize$GT$$u20$as$u20$core..slice..index..SliceIndex$LT$$u5b$T$u5d$$GT$$GT$13get_unchecked17h662e1c206bc2ea44E
Ltmp36:
	.loc	2 499 6
	addq	$144, %rsp
	popq	%rbp
	retq
LBB3_2:
	.loc	2 0 6 is_stmt 0
	movq	-120(%rbp), %rdx
	movq	-128(%rbp), %rsi
	movq	-144(%rbp), %rdi
	.loc	2 495 13 is_stmt 1
	callq	__ZN4core5slice5index26slice_start_index_len_fail17h9d301bb51ec3e351E
Ltmp37:
Lfunc_end3:
	.cfi_endproc

	.globl	__ZN111_$LT$core..iter..adapters..zip..Zip$LT$A$C$B$GT$$u20$as$u20$core..iter..adapters..zip..ZipImpl$LT$A$C$B$GT$$GT$3new17h5af1451ae0076e45E
	.p2align	4, 0x90
__ZN111_$LT$core..iter..adapters..zip..Zip$LT$A$C$B$GT$$u20$as$u20$core..iter..adapters..zip..ZipImpl$LT$A$C$B$GT$$GT$3new17h5af1451ae0076e45E:
Lfunc_begin4:
	.loc	1 262 0
	.cfi_startproc
	.cfi_personality 155, _rust_eh_personality
	.cfi_lsda 16, Lexception1
	pushq	%rbp
	.cfi_def_cfa_offset 16
	.cfi_offset %rbp, -16
	movq	%rsp, %rbp
	.cfi_def_cfa_register %rbp
	subq	$144, %rsp
	movq	%rdi, -120(%rbp)
	movq	%rdi, -112(%rbp)
	movq	%rsi, -96(%rbp)
	movq	%rdx, -88(%rbp)
	movq	%rcx, -80(%rbp)
	movq	%r8, -72(%rbp)
Ltmp38:
	leaq	-96(%rbp), %rdi
Ltmp45:
	.loc	1 263 21 prologue_end
	callq	__ZN4core4iter8adapters3zip27TrustedRandomAccessNoCoerce4size17h2d1609098a88e88bE
Ltmp39:
	movq	%rax, -104(%rbp)
	jmp	LBB4_3
LBB4_1:
	.loc	1 262 5
	movq	-64(%rbp), %rdi
	callq	__Unwind_Resume
LBB4_2:
Ltmp44:
	.loc	1 0 5 is_stmt 0
	movq	%rax, %rcx
	movl	%edx, %eax
	movq	%rcx, -64(%rbp)
	movl	%eax, -56(%rbp)
	jmp	LBB4_1
LBB4_3:
	movq	-104(%rbp), %rax
	.loc	1 263 21 is_stmt 1
	movq	%rax, -48(%rbp)
Ltmp46:
	.loc	1 264 28
	movq	%rax, -40(%rbp)
Ltmp40:
	leaq	-80(%rbp), %rdi
	.loc	1 264 35 is_stmt 0
	callq	__ZN4core4iter8adapters3zip27TrustedRandomAccessNoCoerce4size17h2d1609098a88e88bE
Ltmp41:
	movq	%rax, -128(%rbp)
	jmp	LBB4_4
LBB4_4:
	.loc	1 0 35
	movq	-128(%rbp), %rsi
	movq	-104(%rbp), %rdi
	.loc	1 264 35
	movq	%rsi, -32(%rbp)
Ltmp47:
	.file	8 "/rustc/2c8cc343237b8f7d5a3c3703e3a87f2eb2c54a74/library/core/src" "cmp.rs"
	.loc	8 1185 5 is_stmt 1
	movq	%rdi, -24(%rbp)
	.loc	8 1185 12 is_stmt 0
	movq	%rsi, -16(%rbp)
Ltmp42:
Ltmp48:
	.loc	8 833 13 is_stmt 1
	callq	__ZN4core3cmp6min_by17h9427959fce4983b6E
Ltmp43:
	movq	%rax, -136(%rbp)
	jmp	LBB4_5
LBB4_5:
	.loc	8 0 13 is_stmt 0
	movq	-112(%rbp), %rax
	movq	-120(%rbp), %rcx
	movq	-104(%rbp), %rdx
	movq	-136(%rbp), %rsi
	.loc	8 833 13
	movq	%rsi, -8(%rbp)
Ltmp49:
	.loc	1 265 15 is_stmt 1
	movq	-96(%rbp), %r10
	movq	-88(%rbp), %r9
	.loc	1 265 18 is_stmt 0
	movq	-80(%rbp), %r8
	movq	-72(%rbp), %rdi
	.loc	1 265 9
	movq	%r10, (%rcx)
	movq	%r9, 8(%rcx)
	movq	%r8, 16(%rcx)
	movq	%rdi, 24(%rcx)
	movq	$0, 32(%rcx)
	movq	%rsi, 40(%rcx)
	movq	%rdx, 48(%rcx)
Ltmp50:
	.loc	1 266 6 is_stmt 1
	addq	$144, %rsp
	popq	%rbp
	retq
Ltmp51:
Lfunc_end4:
	.cfi_endproc
	.section	__TEXT,__gcc_except_tab
	.p2align	2
GCC_except_table4:
Lexception1:
	.byte	255
	.byte	255
	.byte	1
	.uleb128 Lcst_end1-Lcst_begin1
Lcst_begin1:
	.uleb128 Ltmp38-Lfunc_begin4
	.uleb128 Ltmp39-Ltmp38
	.uleb128 Ltmp44-Lfunc_begin4
	.byte	0
	.uleb128 Ltmp39-Lfunc_begin4
	.uleb128 Ltmp40-Ltmp39
	.byte	0
	.byte	0
	.uleb128 Ltmp40-Lfunc_begin4
	.uleb128 Ltmp43-Ltmp40
	.uleb128 Ltmp44-Lfunc_begin4
	.byte	0
Lcst_end1:
	.p2align	2

	.section	__TEXT,__text,regular,pure_instructions
	.globl	__ZN111_$LT$core..iter..adapters..zip..Zip$LT$A$C$B$GT$$u20$as$u20$core..iter..adapters..zip..ZipImpl$LT$A$C$B$GT$$GT$4next17hc37e8a604dcc1411E
	.p2align	4, 0x90
__ZN111_$LT$core..iter..adapters..zip..Zip$LT$A$C$B$GT$$u20$as$u20$core..iter..adapters..zip..ZipImpl$LT$A$C$B$GT$$GT$4next17hc37e8a604dcc1411E:
Lfunc_begin5:
	.loc	1 269 0
	.cfi_startproc
	.cfi_personality 155, _rust_eh_personality
	.cfi_lsda 16, Lexception2
	pushq	%rbp
	.cfi_def_cfa_offset 16
	.cfi_offset %rbp, -16
	movq	%rsp, %rbp
	.cfi_def_cfa_register %rbp
	subq	$112, %rsp
	movq	%rdi, -88(%rbp)
	movq	%rdi, -40(%rbp)
Ltmp55:
	.loc	1 270 12 prologue_end
	movq	32(%rdi), %rax
	cmpq	40(%rdi), %rax
	jb	LBB5_2
	.loc	1 279 19
	xorl	%eax, %eax
	testb	$1, %al
	jne	LBB5_8
	jmp	LBB5_7
LBB5_2:
	.loc	1 0 19 is_stmt 0
	movq	-88(%rbp), %rdi
	.loc	1 271 21 is_stmt 1
	movq	32(%rdi), %rsi
	movq	%rsi, -112(%rbp)
	movq	%rsi, -32(%rbp)
Ltmp56:
	.loc	1 274 13
	movq	32(%rdi), %rax
	incq	%rax
	movq	%rax, 32(%rdi)
	.loc	1 277 23
	callq	__ZN91_$LT$core..slice..iter..Iter$LT$T$GT$$u20$as$u20$core..iter..traits..iterator..Iterator$GT$24__iterator_get_unchecked17h7d1feeab87e0e724E
	movq	-88(%rbp), %rdi
	movq	-112(%rbp), %rsi
	movq	%rax, -104(%rbp)
	.loc	1 277 59 is_stmt 0
	addq	$16, %rdi
Ltmp52:
	callq	__ZN91_$LT$core..slice..iter..Iter$LT$T$GT$$u20$as$u20$core..iter..traits..iterator..Iterator$GT$24__iterator_get_unchecked17h7d1feeab87e0e724E
Ltmp53:
	movq	%rax, -96(%rbp)
	jmp	LBB5_5
Ltmp57:
LBB5_3:
	.loc	1 269 5 is_stmt 1
	movq	-24(%rbp), %rdi
	callq	__Unwind_Resume
LBB5_4:
Ltmp54:
	.loc	1 0 5 is_stmt 0
	movq	%rax, %rcx
	movl	%edx, %eax
	movq	%rcx, -24(%rbp)
	movl	%eax, -16(%rbp)
	jmp	LBB5_3
LBB5_5:
	movq	-96(%rbp), %rax
	movq	-104(%rbp), %rcx
Ltmp58:
	.loc	1 277 22 is_stmt 1
	movq	%rcx, -64(%rbp)
	movq	%rax, -56(%rbp)
	.loc	1 277 17 is_stmt 0
	movq	-64(%rbp), %rcx
	movq	-56(%rbp), %rax
	movq	%rcx, -80(%rbp)
	movq	%rax, -72(%rbp)
Ltmp59:
LBB5_6:
	.loc	1 293 6 is_stmt 1
	movq	-80(%rbp), %rax
	movq	-72(%rbp), %rdx
	addq	$112, %rsp
	popq	%rbp
	retq
LBB5_7:
	.loc	1 279 19
	movb	$0, -41(%rbp)
	jmp	LBB5_9
LBB5_8:
	.loc	1 0 19 is_stmt 0
	movq	-88(%rbp), %rcx
	.loc	1 279 46
	movq	32(%rcx), %rax
	cmpq	48(%rcx), %rax
	setb	%al
	.loc	1 279 19
	andb	$1, %al
	movb	%al, -41(%rbp)
LBB5_9:
	testb	$1, -41(%rbp)
	jne	LBB5_11
	.loc	1 291 13 is_stmt 1
	movq	$0, -80(%rbp)
	.loc	1 279 16
	jmp	LBB5_12
LBB5_11:
	.loc	1 0 16 is_stmt 0
	movq	-88(%rbp), %rdi
	.loc	1 280 21 is_stmt 1
	movq	32(%rdi), %rsi
	movq	%rsi, -8(%rbp)
Ltmp60:
	.loc	1 282 13
	movq	32(%rdi), %rax
	addq	$1, %rax
	movq	%rax, 32(%rdi)
	.loc	1 283 13
	movq	40(%rdi), %rax
	addq	$1, %rax
	movq	%rax, 40(%rdi)
	.loc	1 287 17
	callq	__ZN91_$LT$core..slice..iter..Iter$LT$T$GT$$u20$as$u20$core..iter..traits..iterator..Iterator$GT$24__iterator_get_unchecked17h7d1feeab87e0e724E
	.loc	1 289 13
	movq	$0, -80(%rbp)
Ltmp61:
LBB5_12:
	.loc	1 270 9
	jmp	LBB5_6
Ltmp62:
Lfunc_end5:
	.cfi_endproc
	.section	__TEXT,__gcc_except_tab
	.p2align	2
GCC_except_table5:
Lexception2:
	.byte	255
	.byte	255
	.byte	1
	.uleb128 Lcst_end2-Lcst_begin2
Lcst_begin2:
	.uleb128 Lfunc_begin5-Lfunc_begin5
	.uleb128 Ltmp52-Lfunc_begin5
	.byte	0
	.byte	0
	.uleb128 Ltmp52-Lfunc_begin5
	.uleb128 Ltmp53-Ltmp52
	.uleb128 Ltmp54-Lfunc_begin5
	.byte	0
	.uleb128 Ltmp53-Lfunc_begin5
	.uleb128 Lfunc_end5-Ltmp53
	.byte	0
	.byte	0
Lcst_end2:
	.p2align	2

	.section	__TEXT,__text,regular,pure_instructions
	.globl	__ZN119_$LT$core..ptr..non_null..NonNull$LT$T$GT$$u20$as$u20$core..convert..From$LT$core..ptr..unique..Unique$LT$T$GT$$GT$$GT$4from17h528381143f68961aE
	.p2align	4, 0x90
__ZN119_$LT$core..ptr..non_null..NonNull$LT$T$GT$$u20$as$u20$core..convert..From$LT$core..ptr..unique..Unique$LT$T$GT$$GT$$GT$4from17h528381143f68961aE:
Lfunc_begin6:
	.file	9 "/rustc/2c8cc343237b8f7d5a3c3703e3a87f2eb2c54a74/library/core/src/ptr" "non_null.rs"
	.loc	9 765 0
	.cfi_startproc
	pushq	%rbp
	.cfi_def_cfa_offset 16
	.cfi_offset %rbp, -16
	movq	%rsp, %rbp
	.cfi_def_cfa_register %rbp
	subq	$40, %rsp
	movq	%rdi, -32(%rbp)
Ltmp63:
	.loc	9 768 41 prologue_end
	movq	%rdi, -24(%rbp)
Ltmp64:
	.file	10 "/rustc/2c8cc343237b8f7d5a3c3703e3a87f2eb2c54a74/library/core/src/ptr" "unique.rs"
	.loc	10 104 9
	movq	%rdi, -16(%rbp)
Ltmp65:
	.loc	9 326 9
	movq	%rdi, -8(%rbp)
Ltmp66:
	.loc	9 201 13
	movq	%rdi, -40(%rbp)
Ltmp67:
	.loc	9 769 6
	movq	-40(%rbp), %rax
	addq	$40, %rsp
	popq	%rbp
	retq
Ltmp68:
Lfunc_end6:
	.cfi_endproc

	.section	__TEXT,__literal16,16byte_literals
	.p2align	4
LCPI7_0:
	.long	0x7fffffff
	.long	0x7fffffff
	.long	0x7fffffff
	.long	0x7fffffff
	.section	__TEXT,__text,regular,pure_instructions
	.p2align	4, 0x90
__ZN3std3f3221_$LT$impl$u20$f32$GT$3abs17h1d2f9ec5a443289bE:
Lfunc_begin7:
	.file	11 "/rustc/2c8cc343237b8f7d5a3c3703e3a87f2eb2c54a74/library/std/src" "f32.rs"
	.loc	11 157 0
	.cfi_startproc
	pushq	%rbp
	.cfi_def_cfa_offset 16
	.cfi_offset %rbp, -16
	movq	%rsp, %rbp
	.cfi_def_cfa_register %rbp
	pushq	%rax
	movss	%xmm0, -8(%rbp)
Ltmp69:
	.loc	11 158 18 prologue_end
	movaps	LCPI7_0(%rip), %xmm1
	pand	%xmm1, %xmm0
	movss	%xmm0, -4(%rbp)
	movss	-4(%rbp), %xmm0
	.loc	11 159 6
	addq	$8, %rsp
	popq	%rbp
	retq
Ltmp70:
Lfunc_end7:
	.cfi_endproc

	.p2align	4, 0x90
__ZN3std3f3221_$LT$impl$u20$f32$GT$4powf17h038c1b6fd9fb9c3cE:
Lfunc_begin8:
	.loc	11 339 0
	.cfi_startproc
	pushq	%rbp
	.cfi_def_cfa_offset 16
	.cfi_offset %rbp, -16
	movq	%rsp, %rbp
	.cfi_def_cfa_register %rbp
	subq	$16, %rsp
	movss	%xmm0, -12(%rbp)
	movss	%xmm1, -8(%rbp)
Ltmp71:
	.loc	11 340 18 prologue_end
	callq	_powf
	movss	%xmm0, -4(%rbp)
	movss	-4(%rbp), %xmm0
	.loc	11 341 6
	addq	$16, %rsp
	popq	%rbp
	retq
Ltmp72:
Lfunc_end8:
	.cfi_endproc

	.p2align	4, 0x90
__ZN3std3f3221_$LT$impl$u20$f32$GT$4powi17hd80472a6abaa4f94E:
Lfunc_begin9:
	.loc	11 321 0
	.cfi_startproc
	pushq	%rbp
	.cfi_def_cfa_offset 16
	.cfi_offset %rbp, -16
	movq	%rsp, %rbp
	.cfi_def_cfa_register %rbp
	subq	$16, %rsp
	movss	%xmm0, -12(%rbp)
	movl	%edi, -8(%rbp)
Ltmp73:
	.loc	11 322 18 prologue_end
	callq	___powisf2
	movss	%xmm0, -4(%rbp)
	movss	-4(%rbp), %xmm0
	.loc	11 323 6
	addq	$16, %rsp
	popq	%rbp
	retq
Ltmp74:
Lfunc_end9:
	.cfi_endproc

	.p2align	4, 0x90
__ZN3std3f3221_$LT$impl$u20$f32$GT$5atan217hc7466fcb2d19e01aE:
Lfunc_begin10:
	.loc	11 727 0
	.cfi_startproc
	pushq	%rbp
	.cfi_def_cfa_offset 16
	.cfi_offset %rbp, -16
	movq	%rsp, %rbp
	.cfi_def_cfa_register %rbp
	subq	$16, %rsp
	movss	%xmm0, -8(%rbp)
	movss	%xmm1, -4(%rbp)
Ltmp75:
	.loc	11 728 18 prologue_end
	callq	_atan2f
	.loc	11 729 6
	addq	$16, %rsp
	popq	%rbp
	retq
Ltmp76:
Lfunc_end10:
	.cfi_endproc

	.p2align	4, 0x90
__ZN3std3f3221_$LT$impl$u20$f32$GT$5hypot17h59a02e7ce4d16da7E:
Lfunc_begin11:
	.loc	11 572 0
	.cfi_startproc
	pushq	%rbp
	.cfi_def_cfa_offset 16
	.cfi_offset %rbp, -16
	movq	%rsp, %rbp
	.cfi_def_cfa_register %rbp
	subq	$16, %rsp
	movss	%xmm0, -8(%rbp)
	movss	%xmm1, -4(%rbp)
Ltmp77:
	.loc	11 573 18 prologue_end
	callq	_hypotf
	.loc	11 574 6
	addq	$16, %rsp
	popq	%rbp
	retq
Ltmp78:
Lfunc_end11:
	.cfi_endproc

	.p2align	4, 0x90
__ZN3std3f3221_$LT$impl$u20$f32$GT$7sin_cos17h26a60bc9bd9db555E:
Lfunc_begin12:
	.loc	11 749 0
	.cfi_startproc
	pushq	%rbp
	.cfi_def_cfa_offset 16
	.cfi_offset %rbp, -16
	movq	%rsp, %rbp
	.cfi_def_cfa_register %rbp
	subq	$48, %rsp
	movss	%xmm0, -40(%rbp)
	movss	%xmm0, -20(%rbp)
Ltmp79:
	.loc	11 750 10 prologue_end
	movss	%xmm0, -16(%rbp)
Ltmp80:
	.loc	11 592 18
	callq	_sinf
	movaps	%xmm0, %xmm1
	movss	-40(%rbp), %xmm0
	movss	%xmm1, -12(%rbp)
	movss	-12(%rbp), %xmm1
	movss	%xmm1, -36(%rbp)
Ltmp81:
	.loc	11 750 22
	movss	%xmm0, -8(%rbp)
Ltmp82:
	.loc	11 611 18
	callq	_cosf
	movss	-36(%rbp), %xmm1
	movss	%xmm0, -4(%rbp)
	movss	-4(%rbp), %xmm0
Ltmp83:
	.loc	11 750 9
	movss	%xmm1, -32(%rbp)
	movss	%xmm0, -28(%rbp)
	.loc	11 751 6
	movss	-32(%rbp), %xmm0
	movss	-28(%rbp), %xmm1
	addq	$48, %rsp
	popq	%rbp
	retq
Ltmp84:
Lfunc_end12:
	.cfi_endproc

	.globl	__ZN3std3f6421_$LT$impl$u20$f64$GT$11log_wrapper17hc1c046daceb7416dE
	.p2align	4, 0x90
__ZN3std3f6421_$LT$impl$u20$f64$GT$11log_wrapper17hc1c046daceb7416dE:
Lfunc_begin13:
	.file	12 "/rustc/2c8cc343237b8f7d5a3c3703e3a87f2eb2c54a74/library/std/src" "f64.rs"
	.loc	12 938 0
	.cfi_startproc
	.cfi_personality 155, _rust_eh_personality
	.cfi_lsda 16, Lexception3
	pushq	%rbp
	.cfi_def_cfa_offset 16
	.cfi_offset %rbp, -16
	movq	%rsp, %rbp
	.cfi_def_cfa_register %rbp
	subq	$48, %rsp
	movsd	%xmm0, -24(%rbp)
Ltmp88:
	.loc	12 940 13 prologue_end
	movsd	%xmm0, -32(%rbp)
	movsd	-32(%rbp), %xmm0
Ltmp85:
	leaq	-40(%rbp), %rdi
	callq	__ZN3std3f6421_$LT$impl$u20$f64$GT$5log1028_$u7b$$u7b$closure$u7d$$u7d$17hc90da5afdc73f1ebE
Ltmp86:
	movsd	%xmm0, -48(%rbp)
	jmp	LBB13_3
LBB13_1:
	.loc	12 938 5
	movq	-16(%rbp), %rdi
	callq	__Unwind_Resume
LBB13_2:
Ltmp87:
	.loc	12 0 5 is_stmt 0
	movq	%rax, %rcx
	movl	%edx, %eax
	movq	%rcx, -16(%rbp)
	movl	%eax, -8(%rbp)
	jmp	LBB13_1
LBB13_3:
	movsd	-48(%rbp), %xmm0
	.loc	12 956 6 is_stmt 1
	addq	$48, %rsp
	popq	%rbp
	retq
Ltmp89:
Lfunc_end13:
	.cfi_endproc
	.section	__TEXT,__gcc_except_tab
	.p2align	2
GCC_except_table13:
Lexception3:
	.byte	255
	.byte	255
	.byte	1
	.uleb128 Lcst_end3-Lcst_begin3
Lcst_begin3:
	.uleb128 Ltmp85-Lfunc_begin13
	.uleb128 Ltmp86-Ltmp85
	.uleb128 Ltmp87-Lfunc_begin13
	.byte	0
	.uleb128 Ltmp86-Lfunc_begin13
	.uleb128 Lfunc_end13-Ltmp86
	.byte	0
	.byte	0
Lcst_end3:
	.p2align	2

	.section	__TEXT,__literal16,16byte_literals
	.p2align	4
LCPI14_0:
	.quad	0x7fffffffffffffff
	.quad	0x7fffffffffffffff
	.section	__TEXT,__text,regular,pure_instructions
	.p2align	4, 0x90
__ZN3std3f6421_$LT$impl$u20$f64$GT$3abs17he59c1f93ccc3f639E:
Lfunc_begin14:
	.loc	12 157 0
	.cfi_startproc
	pushq	%rbp
	.cfi_def_cfa_offset 16
	.cfi_offset %rbp, -16
	movq	%rsp, %rbp
	.cfi_def_cfa_register %rbp
	subq	$16, %rsp
	movsd	%xmm0, -16(%rbp)
Ltmp90:
	.loc	12 158 18 prologue_end
	movaps	LCPI14_0(%rip), %xmm1
	pand	%xmm1, %xmm0
	movsd	%xmm0, -8(%rbp)
	movsd	-8(%rbp), %xmm0
	.loc	12 159 6
	addq	$16, %rsp
	popq	%rbp
	retq
Ltmp91:
Lfunc_end14:
	.cfi_endproc

	.p2align	4, 0x90
__ZN3std3f6421_$LT$impl$u20$f64$GT$4powf17h2483b10f703b07dfE:
Lfunc_begin15:
	.loc	12 339 0
	.cfi_startproc
	pushq	%rbp
	.cfi_def_cfa_offset 16
	.cfi_offset %rbp, -16
	movq	%rsp, %rbp
	.cfi_def_cfa_register %rbp
	subq	$32, %rsp
	movsd	%xmm0, -24(%rbp)
	movsd	%xmm1, -16(%rbp)
Ltmp92:
	.loc	12 340 18 prologue_end
	callq	_pow
	movsd	%xmm0, -8(%rbp)
	movsd	-8(%rbp), %xmm0
	.loc	12 341 6
	addq	$32, %rsp
	popq	%rbp
	retq
Ltmp93:
Lfunc_end15:
	.cfi_endproc

	.p2align	4, 0x90
__ZN3std3f6421_$LT$impl$u20$f64$GT$4powi17hdcfd0d7be2a2efe8E:
Lfunc_begin16:
	.loc	12 321 0
	.cfi_startproc
	pushq	%rbp
	.cfi_def_cfa_offset 16
	.cfi_offset %rbp, -16
	movq	%rsp, %rbp
	.cfi_def_cfa_register %rbp
	subq	$32, %rsp
	movsd	%xmm0, -24(%rbp)
	movl	%edi, -12(%rbp)
Ltmp94:
	.loc	12 322 18 prologue_end
	callq	___powidf2
	movsd	%xmm0, -8(%rbp)
	movsd	-8(%rbp), %xmm0
	.loc	12 323 6
	addq	$32, %rsp
	popq	%rbp
	retq
Ltmp95:
Lfunc_end16:
	.cfi_endproc

	.p2align	4, 0x90
__ZN3std3f6421_$LT$impl$u20$f64$GT$5floor17hc99b62278e459031E:
Lfunc_begin17:
	.loc	12 49 0
	.cfi_startproc
	pushq	%rbp
	.cfi_def_cfa_offset 16
	.cfi_offset %rbp, -16
	movq	%rsp, %rbp
	.cfi_def_cfa_register %rbp
	subq	$16, %rsp
	movsd	%xmm0, -16(%rbp)
Ltmp96:
	.loc	12 50 18 prologue_end
	callq	_floor
	movsd	%xmm0, -8(%rbp)
	movsd	-8(%rbp), %xmm0
	.loc	12 51 6
	addq	$16, %rsp
	popq	%rbp
	retq
Ltmp97:
Lfunc_end17:
	.cfi_endproc

	.p2align	4, 0x90
__ZN3std3f6421_$LT$impl$u20$f64$GT$5log1017h7b7bf3d97d835114E:
Lfunc_begin18:
	.loc	12 497 0
	.cfi_startproc
	pushq	%rbp
	.cfi_def_cfa_offset 16
	.cfi_offset %rbp, -16
	movq	%rsp, %rbp
	.cfi_def_cfa_register %rbp
	subq	$16, %rsp
	movsd	%xmm0, -8(%rbp)
Ltmp98:
	.loc	12 498 9 prologue_end
	callq	__ZN3std3f6421_$LT$impl$u20$f64$GT$11log_wrapper17hc1c046daceb7416dE
	.loc	12 499 6
	addq	$16, %rsp
	popq	%rbp
	retq
Ltmp99:
Lfunc_end18:
	.cfi_endproc

	.globl	__ZN3std3f6421_$LT$impl$u20$f64$GT$5log1028_$u7b$$u7b$closure$u7d$$u7d$17hc90da5afdc73f1ebE
	.p2align	4, 0x90
__ZN3std3f6421_$LT$impl$u20$f64$GT$5log1028_$u7b$$u7b$closure$u7d$$u7d$17hc90da5afdc73f1ebE:
Lfunc_begin19:
	.loc	12 498 0
	.cfi_startproc
	pushq	%rbp
	.cfi_def_cfa_offset 16
	.cfi_offset %rbp, -16
	movq	%rsp, %rbp
	.cfi_def_cfa_register %rbp
	subq	$32, %rsp
	movq	%rdi, -24(%rbp)
	movsd	%xmm0, -16(%rbp)
Ltmp100:
	.loc	12 498 39 prologue_end
	callq	_log10
	movsd	%xmm0, -8(%rbp)
	movsd	-8(%rbp), %xmm0
	.loc	12 498 64 is_stmt 0
	addq	$32, %rsp
	popq	%rbp
	retq
Ltmp101:
Lfunc_end19:
	.cfi_endproc

	.p2align	4, 0x90
__ZN3std3f6421_$LT$impl$u20$f64$GT$5round17h6b21fb48e8f202f2E:
Lfunc_begin20:
	.loc	12 90 0 is_stmt 1
	.cfi_startproc
	pushq	%rbp
	.cfi_def_cfa_offset 16
	.cfi_offset %rbp, -16
	movq	%rsp, %rbp
	.cfi_def_cfa_register %rbp
	subq	$16, %rsp
	movsd	%xmm0, -16(%rbp)
Ltmp102:
	.loc	12 91 18 prologue_end
	callq	_round
	movsd	%xmm0, -8(%rbp)
	movsd	-8(%rbp), %xmm0
	.loc	12 92 6
	addq	$16, %rsp
	popq	%rbp
	retq
Ltmp103:
Lfunc_end20:
	.cfi_endproc

	.globl	__ZN42_$LT$$RF$T$u20$as$u20$core..fmt..Debug$GT$3fmt17h5ec4f94fb7814b84E
	.p2align	4, 0x90
__ZN42_$LT$$RF$T$u20$as$u20$core..fmt..Debug$GT$3fmt17h5ec4f94fb7814b84E:
Lfunc_begin21:
	.file	13 "/rustc/2c8cc343237b8f7d5a3c3703e3a87f2eb2c54a74/library/core/src/fmt" "mod.rs"
	.loc	13 2377 0
	.cfi_startproc
	pushq	%rbp
	.cfi_def_cfa_offset 16
	.cfi_offset %rbp, -16
	movq	%rsp, %rbp
	.cfi_def_cfa_register %rbp
	subq	$16, %rsp
	movq	%rsi, %rdx
	movq	%rdi, %rax
	movq	%rax, -16(%rbp)
	movq	%rdx, -8(%rbp)
Ltmp104:
	.loc	13 2377 71 prologue_end
	movq	(%rax), %rdi
	movq	8(%rax), %rsi
	.loc	13 2377 62 is_stmt 0
	callq	__ZN48_$LT$$u5b$T$u5d$$u20$as$u20$core..fmt..Debug$GT$3fmt17ha4dc28900b1598ecE
	.loc	13 2377 84
	andb	$1, %al
	movzbl	%al, %eax
	addq	$16, %rsp
	popq	%rbp
	retq
Ltmp105:
Lfunc_end21:
	.cfi_endproc

	.globl	__ZN42_$LT$$RF$T$u20$as$u20$core..fmt..Debug$GT$3fmt17h6b5840c00fb446f3E
	.p2align	4, 0x90
__ZN42_$LT$$RF$T$u20$as$u20$core..fmt..Debug$GT$3fmt17h6b5840c00fb446f3E:
Lfunc_begin22:
	.loc	13 2377 0 is_stmt 1
	.cfi_startproc
	pushq	%rbp
	.cfi_def_cfa_offset 16
	.cfi_offset %rbp, -16
	movq	%rsp, %rbp
	.cfi_def_cfa_register %rbp
	subq	$16, %rsp
	movq	%rdi, -16(%rbp)
	movq	%rsi, -8(%rbp)
Ltmp106:
	.loc	13 2377 71 prologue_end
	movq	(%rdi), %rdi
	.loc	13 2377 62 is_stmt 0
	callq	__ZN56_$LT$emath..align..Align$u20$as$u20$core..fmt..Debug$GT$3fmt17h7158d2fe0eb5a5cfE
	.loc	13 2377 84
	andb	$1, %al
	movzbl	%al, %eax
	addq	$16, %rsp
	popq	%rbp
	retq
Ltmp107:
Lfunc_end22:
	.cfi_endproc

	.globl	__ZN42_$LT$$RF$T$u20$as$u20$core..fmt..Debug$GT$3fmt17h8548a2e98f8b68faE
	.p2align	4, 0x90
__ZN42_$LT$$RF$T$u20$as$u20$core..fmt..Debug$GT$3fmt17h8548a2e98f8b68faE:
Lfunc_begin23:
	.loc	13 2377 0 is_stmt 1
	.cfi_startproc
	pushq	%rbp
	.cfi_def_cfa_offset 16
	.cfi_offset %rbp, -16
	movq	%rsp, %rbp
	.cfi_def_cfa_register %rbp
	subq	$16, %rsp
	movq	%rdi, -16(%rbp)
	movq	%rsi, -8(%rbp)
Ltmp108:
	.loc	13 2377 71 prologue_end
	movq	(%rdi), %rdi
	.loc	13 2377 62 is_stmt 0
	callq	__ZN4core5array69_$LT$impl$u20$core..fmt..Debug$u20$for$u20$$u5b$T$u3b$$u20$N$u5d$$GT$3fmt17h968d68b56ed736deE
	.loc	13 2377 84
	andb	$1, %al
	movzbl	%al, %eax
	addq	$16, %rsp
	popq	%rbp
	retq
Ltmp109:
Lfunc_end23:
	.cfi_endproc

	.globl	__ZN42_$LT$$RF$T$u20$as$u20$core..fmt..Debug$GT$3fmt17hf70c4be989f12ca4E
	.p2align	4, 0x90
__ZN42_$LT$$RF$T$u20$as$u20$core..fmt..Debug$GT$3fmt17hf70c4be989f12ca4E:
Lfunc_begin24:
	.loc	13 2377 0 is_stmt 1
	.cfi_startproc
	pushq	%rbp
	.cfi_def_cfa_offset 16
	.cfi_offset %rbp, -16
	movq	%rsp, %rbp
	.cfi_def_cfa_register %rbp
	subq	$16, %rsp
	movq	%rdi, -16(%rbp)
	movq	%rsi, -8(%rbp)
Ltmp110:
	.loc	13 2377 71 prologue_end
	movq	(%rdi), %rdi
	.loc	13 2377 62 is_stmt 0
	callq	__ZN54_$LT$emath..rect..Rect$u20$as$u20$core..fmt..Debug$GT$3fmt17h784d41785a69bbccE
	.loc	13 2377 84
	andb	$1, %al
	movzbl	%al, %eax
	addq	$16, %rsp
	popq	%rbp
	retq
Ltmp111:
Lfunc_end24:
	.cfi_endproc

	.p2align	4, 0x90
__ZN45_$LT$f32$u20$as$u20$core..ops..arith..Add$GT$3add17h21ad2ab2ad0f314dE:
Lfunc_begin25:
	.file	14 "/rustc/2c8cc343237b8f7d5a3c3703e3a87f2eb2c54a74/library/core/src/ops" "arith.rs"
	.loc	14 103 0 is_stmt 1
	.cfi_startproc
	pushq	%rbp
	.cfi_def_cfa_offset 16
	.cfi_offset %rbp, -16
	movq	%rsp, %rbp
	.cfi_def_cfa_register %rbp
	pushq	%rax
	movss	%xmm0, -8(%rbp)
	movss	%xmm1, -4(%rbp)
Ltmp112:
	.loc	14 103 45 prologue_end
	addss	%xmm1, %xmm0
	.loc	14 103 59 is_stmt 0
	addq	$8, %rsp
	popq	%rbp
	retq
Ltmp113:
Lfunc_end25:
	.cfi_endproc

	.p2align	4, 0x90
__ZN45_$LT$f32$u20$as$u20$core..ops..arith..Div$GT$3div17hd47b090839c2e487E:
Lfunc_begin26:
	.loc	14 501 0 is_stmt 1
	.cfi_startproc
	pushq	%rbp
	.cfi_def_cfa_offset 16
	.cfi_offset %rbp, -16
	movq	%rsp, %rbp
	.cfi_def_cfa_register %rbp
	pushq	%rax
	movss	%xmm0, -8(%rbp)
	movss	%xmm1, -4(%rbp)
Ltmp114:
	.loc	14 501 45 prologue_end
	divss	%xmm1, %xmm0
	.loc	14 501 59 is_stmt 0
	addq	$8, %rsp
	popq	%rbp
	retq
Ltmp115:
Lfunc_end26:
	.cfi_endproc

	.p2align	4, 0x90
__ZN45_$LT$f32$u20$as$u20$core..ops..arith..Mul$GT$3mul17h2463567e790684fcE:
Lfunc_begin27:
	.loc	14 342 0 is_stmt 1
	.cfi_startproc
	pushq	%rbp
	.cfi_def_cfa_offset 16
	.cfi_offset %rbp, -16
	movq	%rsp, %rbp
	.cfi_def_cfa_register %rbp
	pushq	%rax
	movss	%xmm0, -8(%rbp)
	movss	%xmm1, -4(%rbp)
Ltmp116:
	.loc	14 342 45 prologue_end
	mulss	%xmm1, %xmm0
	.loc	14 342 59 is_stmt 0
	addq	$8, %rsp
	popq	%rbp
	retq
Ltmp117:
Lfunc_end27:
	.cfi_endproc

	.p2align	4, 0x90
__ZN45_$LT$f32$u20$as$u20$core..ops..arith..Neg$GT$3neg17hc141b93b5740ed36E:
Lfunc_begin28:
	.loc	14 695 0 is_stmt 1
	.cfi_startproc
	pushq	%rbp
	.cfi_def_cfa_offset 16
	.cfi_offset %rbp, -16
	movq	%rsp, %rbp
	.cfi_def_cfa_register %rbp
	subq	$4, %rsp
	movss	%xmm0, -4(%rbp)
Ltmp118:
	.loc	14 695 34 prologue_end
	movd	%xmm0, %eax
	xorl	$2147483648, %eax
	movd	%eax, %xmm0
	.loc	14 695 41 is_stmt 0
	addq	$4, %rsp
	popq	%rbp
	retq
Ltmp119:
Lfunc_end28:
	.cfi_endproc

	.p2align	4, 0x90
__ZN45_$LT$f32$u20$as$u20$core..ops..arith..Sub$GT$3sub17hfdb864465c7d3db3E:
Lfunc_begin29:
	.loc	14 212 0 is_stmt 1
	.cfi_startproc
	pushq	%rbp
	.cfi_def_cfa_offset 16
	.cfi_offset %rbp, -16
	movq	%rsp, %rbp
	.cfi_def_cfa_register %rbp
	pushq	%rax
	movss	%xmm0, -8(%rbp)
	movss	%xmm1, -4(%rbp)
Ltmp120:
	.loc	14 212 45 prologue_end
	subss	%xmm1, %xmm0
	.loc	14 212 59 is_stmt 0
	addq	$8, %rsp
	popq	%rbp
	retq
Ltmp121:
Lfunc_end29:
	.cfi_endproc

	.p2align	4, 0x90
__ZN45_$LT$f64$u20$as$u20$core..ops..arith..Div$GT$3div17h40b8bb8ded67bbe7E:
Lfunc_begin30:
	.loc	14 501 0 is_stmt 1
	.cfi_startproc
	pushq	%rbp
	.cfi_def_cfa_offset 16
	.cfi_offset %rbp, -16
	movq	%rsp, %rbp
	.cfi_def_cfa_register %rbp
	subq	$16, %rsp
	movsd	%xmm0, -16(%rbp)
	movsd	%xmm1, -8(%rbp)
Ltmp122:
	.loc	14 501 45 prologue_end
	divsd	%xmm1, %xmm0
	.loc	14 501 59 is_stmt 0
	addq	$16, %rsp
	popq	%rbp
	retq
Ltmp123:
Lfunc_end30:
	.cfi_endproc

	.p2align	4, 0x90
__ZN45_$LT$f64$u20$as$u20$core..ops..arith..Mul$GT$3mul17h94ae589edb17d6cfE:
Lfunc_begin31:
	.loc	14 342 0 is_stmt 1
	.cfi_startproc
	pushq	%rbp
	.cfi_def_cfa_offset 16
	.cfi_offset %rbp, -16
	movq	%rsp, %rbp
	.cfi_def_cfa_register %rbp
	subq	$16, %rsp
	movsd	%xmm0, -16(%rbp)
	movsd	%xmm1, -8(%rbp)
Ltmp124:
	.loc	14 342 45 prologue_end
	mulsd	%xmm1, %xmm0
	.loc	14 342 59 is_stmt 0
	addq	$16, %rsp
	popq	%rbp
	retq
Ltmp125:
Lfunc_end31:
	.cfi_endproc

	.p2align	4, 0x90
__ZN45_$LT$f64$u20$as$u20$core..ops..arith..Neg$GT$3neg17he7b77e308e81a0d5E:
Lfunc_begin32:
	.loc	14 695 0 is_stmt 1
	.cfi_startproc
	pushq	%rbp
	.cfi_def_cfa_offset 16
	.cfi_offset %rbp, -16
	movq	%rsp, %rbp
	.cfi_def_cfa_register %rbp
	pushq	%rax
	movsd	%xmm0, -8(%rbp)
Ltmp126:
	.loc	14 695 34 prologue_end
	movq	%xmm0, %rax
	movabsq	$-9223372036854775808, %rcx
	xorq	%rcx, %rax
	movq	%rax, %xmm0
	.loc	14 695 41 is_stmt 0
	addq	$8, %rsp
	popq	%rbp
	retq
Ltmp127:
Lfunc_end32:
	.cfi_endproc

	.globl	__ZN48_$LT$$u5b$T$u5d$$u20$as$u20$core..fmt..Debug$GT$3fmt17ha4dc28900b1598ecE
	.p2align	4, 0x90
__ZN48_$LT$$u5b$T$u5d$$u20$as$u20$core..fmt..Debug$GT$3fmt17ha4dc28900b1598ecE:
Lfunc_begin33:
	.loc	13 2602 0 is_stmt 1
	.cfi_startproc
	pushq	%rbp
	.cfi_def_cfa_offset 16
	.cfi_offset %rbp, -16
	movq	%rsp, %rbp
	.cfi_def_cfa_register %rbp
	subq	$80, %rsp
	movq	%rdx, -80(%rbp)
	movq	%rsi, %rax
	movq	-80(%rbp), %rsi
	movq	%rdi, -72(%rbp)
	movq	%rax, -64(%rbp)
	movq	%rdi, -40(%rbp)
	movq	%rax, -32(%rbp)
	movq	%rsi, -24(%rbp)
Ltmp128:
	.loc	13 2603 9 prologue_end
	leaq	-56(%rbp), %rdi
	callq	__ZN4core3fmt9Formatter10debug_list17hc648f6f2ff865c45E
	movq	-72(%rbp), %rdi
	movq	-64(%rbp), %rsi
	.loc	13 2603 32 is_stmt 0
	movq	%rdi, -16(%rbp)
	movq	%rsi, -8(%rbp)
Ltmp129:
	.file	15 "/rustc/2c8cc343237b8f7d5a3c3703e3a87f2eb2c54a74/library/core/src/slice" "mod.rs"
	.loc	15 742 9 is_stmt 1
	callq	__ZN4core5slice4iter13Iter$LT$T$GT$3new17h454de8a9909defc9E
	movq	%rax, %rsi
Ltmp130:
	.loc	13 2603 9
	leaq	-56(%rbp), %rdi
	callq	__ZN4core3fmt8builders9DebugList7entries17h234cb893f20d2bf3E
	movq	%rax, %rdi
	callq	__ZN4core3fmt8builders9DebugList6finish17hed399f470c25b4b2E
	.loc	13 2604 6
	andb	$1, %al
	movzbl	%al, %eax
	addq	$80, %rsp
	popq	%rbp
	retq
Ltmp131:
Lfunc_end33:
	.cfi_endproc

	.p2align	4, 0x90
__ZN49_$LT$usize$u20$as$u20$core..iter..range..Step$GT$17forward_unchecked17h6f7b2c380ab03904E:
Lfunc_begin34:
	.file	16 "/rustc/2c8cc343237b8f7d5a3c3703e3a87f2eb2c54a74/library/core/src/iter" "range.rs"
	.loc	16 189 0
	.cfi_startproc
	pushq	%rbp
	.cfi_def_cfa_offset 16
	.cfi_offset %rbp, -16
	movq	%rsp, %rbp
	.cfi_def_cfa_register %rbp
	subq	$40, %rsp
	movq	%rdi, -40(%rbp)
	movq	%rsi, -32(%rbp)
Ltmp132:
	.loc	16 191 22 prologue_end
	movq	%rdi, -24(%rbp)
	.loc	16 191 42 is_stmt 0
	movq	%rsi, -16(%rbp)
Ltmp133:
	.file	17 "/rustc/2c8cc343237b8f7d5a3c3703e3a87f2eb2c54a74/library/core/src/num" "uint_macros.rs"
	.loc	17 470 22 is_stmt 1
	addq	%rsi, %rdi
	movq	%rdi, -8(%rbp)
	movq	-8(%rbp), %rax
Ltmp134:
	.loc	16 192 10
	addq	$40, %rsp
	popq	%rbp
	retq
Ltmp135:
Lfunc_end34:
	.cfi_endproc

	.globl	__ZN4core3cmp3Ord3min17hc1e4ab2887d71035E
	.p2align	4, 0x90
__ZN4core3cmp3Ord3min17hc1e4ab2887d71035E:
Lfunc_begin35:
	.loc	8 826 0
	.cfi_startproc
	pushq	%rbp
	.cfi_def_cfa_offset 16
	.cfi_offset %rbp, -16
	movq	%rsp, %rbp
	.cfi_def_cfa_register %rbp
	subq	$16, %rsp
	movq	%rdi, -16(%rbp)
	movq	%rsi, -8(%rbp)
Ltmp136:
	.loc	8 833 13 prologue_end
	callq	__ZN4core3cmp6min_by17h9427959fce4983b6E
	.loc	8 841 6
	addq	$16, %rsp
	popq	%rbp
	retq
Ltmp137:
Lfunc_end35:
	.cfi_endproc

	.p2align	4, 0x90
__ZN4core3cmp5impls50_$LT$impl$u20$core..cmp..Ord$u20$for$u20$usize$GT$3cmp17hf58f7493a5dc44e8E:
Lfunc_begin36:
	.loc	8 1454 0
	.cfi_startproc
	pushq	%rbp
	.cfi_def_cfa_offset 16
	.cfi_offset %rbp, -16
	movq	%rsp, %rbp
	.cfi_def_cfa_register %rbp
	subq	$40, %rsp
	movq	%rdi, -40(%rbp)
	movq	%rsi, -32(%rbp)
	movq	%rdi, -16(%rbp)
	movq	%rsi, -8(%rbp)
Ltmp138:
	.loc	8 1457 24 prologue_end
	movq	(%rdi), %rax
	cmpq	(%rsi), %rax
	jb	LBB36_2
	.loc	8 0 24 is_stmt 0
	movq	-32(%rbp), %rcx
	movq	-40(%rbp), %rax
	.loc	8 1458 29 is_stmt 1
	movq	(%rax), %rax
	cmpq	(%rcx), %rax
	je	LBB36_5
	jmp	LBB36_4
LBB36_2:
	.loc	8 1457 41
	movb	$-1, -17(%rbp)
LBB36_3:
	.loc	8 1460 18
	movb	-17(%rbp), %al
	addq	$40, %rsp
	popq	%rbp
	retq
LBB36_4:
	.loc	8 1459 28
	movb	$1, -17(%rbp)
	.loc	8 1458 26
	jmp	LBB36_6
LBB36_5:
	.loc	8 1458 47 is_stmt 0
	movb	$0, -17(%rbp)
LBB36_6:
	.loc	8 1457 21 is_stmt 1
	jmp	LBB36_3
Ltmp139:
Lfunc_end36:
	.cfi_endproc

	.p2align	4, 0x90
__ZN4core3cmp5impls55_$LT$impl$u20$core..cmp..PartialOrd$u20$for$u20$f32$GT$2le17h4c234c05b507e7b1E:
Lfunc_begin37:
	.loc	8 1402 0
	.cfi_startproc
	pushq	%rbp
	.cfi_def_cfa_offset 16
	.cfi_offset %rbp, -16
	movq	%rsp, %rbp
	.cfi_def_cfa_register %rbp
	subq	$16, %rsp
	movq	%rdi, -16(%rbp)
	movq	%rsi, -8(%rbp)
Ltmp140:
	.loc	8 1402 52 prologue_end
	movss	(%rdi), %xmm1
	.loc	8 1402 63 is_stmt 0
	movss	(%rsi), %xmm0
	.loc	8 1402 52
	ucomiss	%xmm1, %xmm0
	setae	%al
	.loc	8 1402 73
	andb	$1, %al
	movzbl	%al, %eax
	addq	$16, %rsp
	popq	%rbp
	retq
Ltmp141:
Lfunc_end37:
	.cfi_endproc

	.p2align	4, 0x90
__ZN4core3cmp5impls55_$LT$impl$u20$core..cmp..PartialOrd$u20$for$u20$f32$GT$2lt17h72713680f9d7d758E:
Lfunc_begin38:
	.loc	8 1400 0 is_stmt 1
	.cfi_startproc
	pushq	%rbp
	.cfi_def_cfa_offset 16
	.cfi_offset %rbp, -16
	movq	%rsp, %rbp
	.cfi_def_cfa_register %rbp
	subq	$16, %rsp
	movq	%rdi, -16(%rbp)
	movq	%rsi, -8(%rbp)
Ltmp142:
	.loc	8 1400 52 prologue_end
	movss	(%rdi), %xmm1
	.loc	8 1400 62 is_stmt 0
	movss	(%rsi), %xmm0
	.loc	8 1400 52
	ucomiss	%xmm1, %xmm0
	seta	%al
	.loc	8 1400 72
	andb	$1, %al
	movzbl	%al, %eax
	addq	$16, %rsp
	popq	%rbp
	retq
Ltmp143:
Lfunc_end38:
	.cfi_endproc

	.p2align	4, 0x90
__ZN4core3cmp5impls57_$LT$impl$u20$core..cmp..PartialOrd$u20$for$u20$usize$GT$2lt17hfaf5405b2d31cfcbE:
Lfunc_begin39:
	.loc	8 1441 0 is_stmt 1
	.cfi_startproc
	pushq	%rbp
	.cfi_def_cfa_offset 16
	.cfi_offset %rbp, -16
	movq	%rsp, %rbp
	.cfi_def_cfa_register %rbp
	subq	$16, %rsp
	movq	%rdi, -16(%rbp)
	movq	%rsi, -8(%rbp)
Ltmp144:
	.loc	8 1441 52 prologue_end
	movq	(%rdi), %rax
	cmpq	(%rsi), %rax
	setb	%al
	.loc	8 1441 72 is_stmt 0
	andb	$1, %al
	movzbl	%al, %eax
	addq	$16, %rsp
	popq	%rbp
	retq
Ltmp145:
Lfunc_end39:
	.cfi_endproc

	.globl	__ZN4core3cmp5impls70_$LT$impl$u20$core..cmp..PartialOrd$LT$$RF$B$GT$$u20$for$u20$$RF$A$GT$2lt17h559600fe11fe434dE
	.p2align	4, 0x90
__ZN4core3cmp5impls70_$LT$impl$u20$core..cmp..PartialOrd$LT$$RF$B$GT$$u20$for$u20$$RF$A$GT$2lt17h559600fe11fe434dE:
Lfunc_begin40:
	.loc	8 1548 0 is_stmt 1
	.cfi_startproc
	pushq	%rbp
	.cfi_def_cfa_offset 16
	.cfi_offset %rbp, -16
	movq	%rsp, %rbp
	.cfi_def_cfa_register %rbp
	subq	$16, %rsp
	movq	%rdi, -16(%rbp)
	movq	%rsi, -8(%rbp)
Ltmp146:
	.loc	8 1549 28 prologue_end
	movq	(%rdi), %rdi
	.loc	8 1549 35 is_stmt 0
	movq	(%rsi), %rsi
	.loc	8 1549 13
	callq	__ZN4core3cmp5impls55_$LT$impl$u20$core..cmp..PartialOrd$u20$for$u20$f32$GT$2lt17h72713680f9d7d758E
	.loc	8 1550 10 is_stmt 1
	andb	$1, %al
	movzbl	%al, %eax
	addq	$16, %rsp
	popq	%rbp
	retq
Ltmp147:
Lfunc_end40:
	.cfi_endproc

	.globl	__ZN4core3cmp6min_by17h9427959fce4983b6E
	.p2align	4, 0x90
__ZN4core3cmp6min_by17h9427959fce4983b6E:
Lfunc_begin41:
	.loc	8 1204 0
	.cfi_startproc
	.cfi_personality 155, _rust_eh_personality
	.cfi_lsda 16, Lexception4
	pushq	%rbp
	.cfi_def_cfa_offset 16
	.cfi_offset %rbp, -16
	movq	%rsp, %rbp
	.cfi_def_cfa_register %rbp
	subq	$96, %rsp
	movq	%rdi, -80(%rbp)
	movq	%rsi, -72(%rbp)
Ltmp151:
	.loc	8 1209 11 prologue_end
	movb	$1, -25(%rbp)
	movb	$1, -26(%rbp)
	leaq	-80(%rbp), %rax
	movq	%rax, -48(%rbp)
	leaq	-72(%rbp), %rax
	movq	%rax, -40(%rbp)
	movq	-48(%rbp), %rdi
	movq	-40(%rbp), %rsi
Ltmp148:
	callq	__ZN4core3ops8function6FnOnce9call_once17hb264f9736e8bc8ebE
Ltmp149:
	movb	%al, -81(%rbp)
	jmp	LBB41_3
LBB41_1:
	.loc	8 1213 1
	jmp	LBB41_4
LBB41_2:
Ltmp150:
	.loc	8 0 1 is_stmt 0
	movq	%rax, %rcx
	movl	%edx, %eax
	movq	%rcx, -16(%rbp)
	movl	%eax, -8(%rbp)
	jmp	LBB41_1
LBB41_3:
	movb	-81(%rbp), %al
	.loc	8 1209 11 is_stmt 1
	movb	%al, -49(%rbp)
	movb	-49(%rbp), %al
	.loc	8 1209 5 is_stmt 0
	incb	%al
	subb	$2, %al
	jb	LBB41_6
	jmp	LBB41_15
LBB41_15:
	jmp	LBB41_7
LBB41_4:
	.loc	8 1213 1 is_stmt 1
	testb	$1, -25(%rbp)
	jne	LBB41_12
	jmp	LBB41_11
	.loc	8 1209 11
	ud2
LBB41_6:
	.loc	8 1210 45
	movb	$0, -25(%rbp)
	movq	-80(%rbp), %rax
	movq	%rax, -64(%rbp)
	jmp	LBB41_8
LBB41_7:
	.loc	8 1211 30
	movb	$0, -26(%rbp)
	movq	-72(%rbp), %rax
	movq	%rax, -64(%rbp)
LBB41_8:
	.loc	8 1213 1
	testb	$1, -26(%rbp)
	jne	LBB41_10
LBB41_9:
	testb	$1, -25(%rbp)
	jne	LBB41_14
	jmp	LBB41_13
LBB41_10:
	jmp	LBB41_9
LBB41_11:
	.loc	8 1204 1
	movq	-16(%rbp), %rdi
	callq	__Unwind_Resume
LBB41_12:
	.loc	8 1213 1
	jmp	LBB41_11
LBB41_13:
	.loc	8 1213 2 is_stmt 0
	movq	-64(%rbp), %rax
	addq	$96, %rsp
	popq	%rbp
	retq
LBB41_14:
	.loc	8 1213 1
	jmp	LBB41_13
Ltmp152:
Lfunc_end41:
	.cfi_endproc
	.section	__TEXT,__gcc_except_tab
	.p2align	2
GCC_except_table41:
Lexception4:
	.byte	255
	.byte	255
	.byte	1
	.uleb128 Lcst_end4-Lcst_begin4
Lcst_begin4:
	.uleb128 Ltmp148-Lfunc_begin41
	.uleb128 Ltmp149-Ltmp148
	.uleb128 Ltmp150-Lfunc_begin41
	.byte	0
	.uleb128 Ltmp149-Lfunc_begin41
	.uleb128 Lfunc_end41-Ltmp149
	.byte	0
	.byte	0
Lcst_end4:
	.p2align	2

	.section	__TEXT,__literal4,4byte_literals
	.p2align	2
LCPI42_0:
	.long	0x42652ee1
	.section	__TEXT,__text,regular,pure_instructions
	.p2align	4, 0x90
__ZN4core3f3221_$LT$impl$u20$f32$GT$10to_degrees17hbc4db5f208b32e49E:
Lfunc_begin42:
	.file	18 "/rustc/2c8cc343237b8f7d5a3c3703e3a87f2eb2c54a74/library/core/src/num" "f32.rs"
	.loc	18 809 0 is_stmt 1
	.cfi_startproc
	pushq	%rbp
	.cfi_def_cfa_offset 16
	.cfi_offset %rbp, -16
	movq	%rsp, %rbp
	.cfi_def_cfa_register %rbp
	subq	$4, %rsp
	movss	%xmm0, -4(%rbp)
Ltmp153:
	.loc	18 812 9 prologue_end
	movss	LCPI42_0(%rip), %xmm1
	mulss	%xmm1, %xmm0
	.loc	18 813 6
	addq	$4, %rsp
	popq	%rbp
	retq
Ltmp154:
Lfunc_end42:
	.cfi_endproc

	.p2align	4, 0x90
__ZN4core3f3221_$LT$impl$u20$f32$GT$3max17hb50cdf28d4d8e230E:
Lfunc_begin43:
	.loc	18 849 0
	.cfi_startproc
	pushq	%rbp
	.cfi_def_cfa_offset 16
	.cfi_offset %rbp, -16
	movq	%rsp, %rbp
	.cfi_def_cfa_register %rbp
	subq	$12, %rsp
	movaps	%xmm1, %xmm2
	movaps	%xmm0, %xmm3
	movss	%xmm3, -12(%rbp)
	movss	%xmm2, -8(%rbp)
Ltmp155:
	.loc	18 850 9 prologue_end
	movaps	%xmm2, %xmm4
	movaps	%xmm3, %xmm0
	cmpunordss	%xmm0, %xmm0
	movaps	%xmm0, %xmm1
	pand	%xmm4, %xmm1
	maxss	%xmm3, %xmm2
	pandn	%xmm2, %xmm0
	por	%xmm1, %xmm0
	movss	%xmm0, -4(%rbp)
	movss	-4(%rbp), %xmm0
	.loc	18 851 6
	addq	$12, %rsp
	popq	%rbp
	retq
Ltmp156:
Lfunc_end43:
	.cfi_endproc

	.p2align	4, 0x90
__ZN4core3f3221_$LT$impl$u20$f32$GT$3min17hf218f2567f6ca754E:
Lfunc_begin44:
	.loc	18 869 0
	.cfi_startproc
	pushq	%rbp
	.cfi_def_cfa_offset 16
	.cfi_offset %rbp, -16
	movq	%rsp, %rbp
	.cfi_def_cfa_register %rbp
	subq	$12, %rsp
	movaps	%xmm1, %xmm2
	movaps	%xmm0, %xmm3
	movss	%xmm3, -12(%rbp)
	movss	%xmm2, -8(%rbp)
Ltmp157:
	.loc	18 870 9 prologue_end
	movaps	%xmm2, %xmm4
	movaps	%xmm3, %xmm0
	cmpunordss	%xmm0, %xmm0
	movaps	%xmm0, %xmm1
	pand	%xmm4, %xmm1
	minss	%xmm3, %xmm2
	pandn	%xmm2, %xmm0
	por	%xmm1, %xmm0
	movss	%xmm0, -4(%rbp)
	movss	-4(%rbp), %xmm0
	.loc	18 871 6
	addq	$12, %rsp
	popq	%rbp
	retq
Ltmp158:
Lfunc_end44:
	.cfi_endproc

	.p2align	4, 0x90
__ZN4core3f3221_$LT$impl$u20$f32$GT$5clamp17hdf61fa04822b200bE:
Lfunc_begin45:
	.loc	18 1393 0
	.cfi_startproc
	pushq	%rbp
	.cfi_def_cfa_offset 16
	.cfi_offset %rbp, -16
	movq	%rsp, %rbp
	.cfi_def_cfa_register %rbp
	subq	$32, %rsp
	movss	%xmm1, -20(%rbp)
	movss	%xmm2, -16(%rbp)
	movss	%xmm0, -12(%rbp)
	movss	%xmm1, -8(%rbp)
	movss	%xmm2, -4(%rbp)
Ltmp159:
	.loc	18 1394 17 prologue_end
	ucomiss	%xmm1, %xmm2
	setae	%al
	.loc	18 1394 9 is_stmt 0
	xorb	$-1, %al
	testb	$1, %al
	jne	LBB45_2
	.loc	18 0 9
	movss	-20(%rbp), %xmm0
	.loc	18 1395 12 is_stmt 1
	ucomiss	-12(%rbp), %xmm0
	ja	LBB45_4
	jmp	LBB45_3
LBB45_2:
	.loc	18 1394 9
	leaq	l___unnamed_6(%rip), %rdi
	leaq	l___unnamed_7(%rip), %rdx
	movl	$28, %esi
	callq	__ZN4core9panicking5panic17hc1bc45270cf64b03E
LBB45_3:
	.loc	18 0 9 is_stmt 0
	movss	-16(%rbp), %xmm1
	.loc	18 1398 12 is_stmt 1
	movss	-12(%rbp), %xmm0
	ucomiss	%xmm1, %xmm0
	ja	LBB45_6
	jmp	LBB45_5
LBB45_4:
	.loc	18 0 12 is_stmt 0
	movss	-20(%rbp), %xmm0
	.loc	18 1396 13 is_stmt 1
	movss	%xmm0, -12(%rbp)
	.loc	18 1395 9
	jmp	LBB45_3
LBB45_5:
	.loc	18 1401 9
	movss	-12(%rbp), %xmm0
	.loc	18 1402 6
	addq	$32, %rsp
	popq	%rbp
	retq
LBB45_6:
	.loc	18 0 6 is_stmt 0
	movss	-16(%rbp), %xmm0
	.loc	18 1399 13 is_stmt 1
	movss	%xmm0, -12(%rbp)
	.loc	18 1398 9
	jmp	LBB45_5
Ltmp160:
Lfunc_end45:
	.cfi_endproc

	.section	__TEXT,__literal4,4byte_literals
	.p2align	2
LCPI46_0:
	.long	0x7f800000
	.section	__TEXT,__text,regular,pure_instructions
	.p2align	4, 0x90
__ZN4core3f3221_$LT$impl$u20$f32$GT$9is_finite17h44f0479f830fc98fE:
Lfunc_begin46:
	.loc	18 485 0
	.cfi_startproc
	pushq	%rbp
	.cfi_def_cfa_offset 16
	.cfi_offset %rbp, -16
	movq	%rsp, %rbp
	.cfi_def_cfa_register %rbp
	subq	$16, %rsp
	movss	%xmm0, -16(%rbp)
Ltmp161:
	.loc	18 488 9 prologue_end
	movss	%xmm0, -12(%rbp)
Ltmp162:
	.loc	18 438 45
	movd	%xmm0, %eax
	movl	%eax, -8(%rbp)
	movl	-8(%rbp), %eax
	andl	$2147483647, %eax
	.loc	18 438 18 is_stmt 0
	movd	%eax, %xmm0
	movss	%xmm0, -4(%rbp)
Ltmp163:
	.loc	18 488 9 is_stmt 1
	movss	LCPI46_0(%rip), %xmm0
	ucomiss	-4(%rbp), %xmm0
	seta	%al
	.loc	18 489 6
	andb	$1, %al
	movzbl	%al, %eax
	addq	$16, %rsp
	popq	%rbp
	retq
Ltmp164:
Lfunc_end46:
	.cfi_endproc

	.p2align	4, 0x90
__ZN4core3f6421_$LT$impl$u20$f64$GT$6is_nan17h77faa9e6ee2eb2f7E:
Lfunc_begin47:
	.file	19 "/rustc/2c8cc343237b8f7d5a3c3703e3a87f2eb2c54a74/library/core/src/num" "f64.rs"
	.loc	19 426 0
	.cfi_startproc
	pushq	%rbp
	.cfi_def_cfa_offset 16
	.cfi_offset %rbp, -16
	movq	%rsp, %rbp
	.cfi_def_cfa_register %rbp
	pushq	%rax
	movsd	%xmm0, -8(%rbp)
Ltmp165:
	.loc	19 427 9 prologue_end
	ucomisd	%xmm0, %xmm0
	setp	%al
	.loc	19 428 6
	andb	$1, %al
	movzbl	%al, %eax
	addq	$8, %rsp
	popq	%rbp
	retq
Ltmp166:
Lfunc_end47:
	.cfi_endproc

	.section	__TEXT,__literal8,8byte_literals
	.p2align	3
LCPI48_0:
	.quad	0x7ff0000000000000
	.section	__TEXT,__text,regular,pure_instructions
	.p2align	4, 0x90
__ZN4core3f6421_$LT$impl$u20$f64$GT$9is_finite17h52ddfaa7c57d0f4aE:
Lfunc_begin48:
	.loc	19 486 0
	.cfi_startproc
	pushq	%rbp
	.cfi_def_cfa_offset 16
	.cfi_offset %rbp, -16
	movq	%rsp, %rbp
	.cfi_def_cfa_register %rbp
	subq	$32, %rsp
	movsd	%xmm0, -32(%rbp)
Ltmp167:
	.loc	19 489 9 prologue_end
	movsd	%xmm0, -24(%rbp)
Ltmp168:
	.loc	19 438 40
	movq	%xmm0, %rax
	movq	%rax, -16(%rbp)
	movabsq	$9223372036854775807, %rax
	andq	-16(%rbp), %rax
	.loc	19 438 13 is_stmt 0
	movq	%rax, %xmm0
	movsd	%xmm0, -8(%rbp)
Ltmp169:
	.loc	19 489 9 is_stmt 1
	movsd	LCPI48_0(%rip), %xmm0
	ucomisd	-8(%rbp), %xmm0
	seta	%al
	.loc	19 490 6
	andb	$1, %al
	movzbl	%al, %eax
	addq	$32, %rsp
	popq	%rbp
	retq
Ltmp170:
Lfunc_end48:
	.cfi_endproc

	.globl	__ZN4core3fmt10ArgumentV111new_display17h32492fb72dd18737E
	.p2align	4, 0x90
__ZN4core3fmt10ArgumentV111new_display17h32492fb72dd18737E:
Lfunc_begin49:
	.loc	13 327 0
	.cfi_startproc
	pushq	%rbp
	.cfi_def_cfa_offset 16
	.cfi_offset %rbp, -16
	movq	%rsp, %rbp
	.cfi_def_cfa_register %rbp
	subq	$56, %rsp
	movq	%rdi, -40(%rbp)
Ltmp171:
	.loc	13 328 23 prologue_end
	movq	%rdi, -32(%rbp)
	.loc	13 328 26 is_stmt 0
	movq	__ZN4core3fmt5float52_$LT$impl$u20$core..fmt..Display$u20$for$u20$f64$GT$3fmt17hf5b5b3a71761a451E@GOTPCREL(%rip), %rax
	movq	%rax, -24(%rbp)
Ltmp172:
	.loc	13 347 42 is_stmt 1
	movq	%rax, -16(%rbp)
	movq	-16(%rbp), %rax
	.loc	13 347 68 is_stmt 0
	movq	%rdi, -8(%rbp)
	movq	-8(%rbp), %rcx
	.loc	13 347 18
	movq	%rcx, -56(%rbp)
	movq	%rax, -48(%rbp)
Ltmp173:
	.loc	13 329 10 is_stmt 1
	movq	-56(%rbp), %rax
	movq	-48(%rbp), %rdx
	addq	$56, %rsp
	popq	%rbp
	retq
Ltmp174:
Lfunc_end49:
	.cfi_endproc

	.globl	__ZN4core3fmt10ArgumentV111new_display17h83e0a6371b8401e6E
	.p2align	4, 0x90
__ZN4core3fmt10ArgumentV111new_display17h83e0a6371b8401e6E:
Lfunc_begin50:
	.loc	13 327 0
	.cfi_startproc
	pushq	%rbp
	.cfi_def_cfa_offset 16
	.cfi_offset %rbp, -16
	movq	%rsp, %rbp
	.cfi_def_cfa_register %rbp
	subq	$56, %rsp
	movq	%rdi, -40(%rbp)
Ltmp175:
	.loc	13 328 23 prologue_end
	movq	%rdi, -32(%rbp)
	.loc	13 328 26 is_stmt 0
	movq	__ZN4core3fmt5float52_$LT$impl$u20$core..fmt..Display$u20$for$u20$f32$GT$3fmt17h9a60df429edb12f4E@GOTPCREL(%rip), %rax
	movq	%rax, -24(%rbp)
Ltmp176:
	.loc	13 347 42 is_stmt 1
	movq	%rax, -16(%rbp)
	movq	-16(%rbp), %rax
	.loc	13 347 68 is_stmt 0
	movq	%rdi, -8(%rbp)
	movq	-8(%rbp), %rcx
	.loc	13 347 18
	movq	%rcx, -56(%rbp)
	movq	%rax, -48(%rbp)
Ltmp177:
	.loc	13 329 10 is_stmt 1
	movq	-56(%rbp), %rax
	movq	-48(%rbp), %rdx
	addq	$56, %rsp
	popq	%rbp
	retq
Ltmp178:
Lfunc_end50:
	.cfi_endproc

	.globl	__ZN4core3fmt10ArgumentV19new_debug17h6c7ab3b3a2491539E
	.p2align	4, 0x90
__ZN4core3fmt10ArgumentV19new_debug17h6c7ab3b3a2491539E:
Lfunc_begin51:
	.loc	13 327 0
	.cfi_startproc
	pushq	%rbp
	.cfi_def_cfa_offset 16
	.cfi_offset %rbp, -16
	movq	%rsp, %rbp
	.cfi_def_cfa_register %rbp
	subq	$56, %rsp
	movq	%rdi, -40(%rbp)
Ltmp179:
	.loc	13 328 23 prologue_end
	movq	%rdi, -32(%rbp)
	.loc	13 328 26 is_stmt 0
	leaq	__ZN54_$LT$emath..pos2..Pos2$u20$as$u20$core..fmt..Debug$GT$3fmt17h6fbe9bacd20c472fE(%rip), %rax
	movq	%rax, -24(%rbp)
Ltmp180:
	.loc	13 347 42 is_stmt 1
	movq	%rax, -16(%rbp)
	movq	-16(%rbp), %rax
	.loc	13 347 68 is_stmt 0
	movq	%rdi, -8(%rbp)
	movq	-8(%rbp), %rcx
	.loc	13 347 18
	movq	%rcx, -56(%rbp)
	movq	%rax, -48(%rbp)
Ltmp181:
	.loc	13 329 10 is_stmt 1
	movq	-56(%rbp), %rax
	movq	-48(%rbp), %rdx
	addq	$56, %rsp
	popq	%rbp
	retq
Ltmp182:
Lfunc_end51:
	.cfi_endproc

	.globl	__ZN4core3fmt8builders9DebugList7entries17h234cb893f20d2bf3E
	.p2align	4, 0x90
__ZN4core3fmt8builders9DebugList7entries17h234cb893f20d2bf3E:
Lfunc_begin52:
	.file	20 "/rustc/2c8cc343237b8f7d5a3c3703e3a87f2eb2c54a74/library/core/src/fmt" "builders.rs"
	.loc	20 627 0
	.cfi_startproc
	.cfi_personality 155, _rust_eh_personality
	.cfi_lsda 16, Lexception5
	pushq	%rbp
	.cfi_def_cfa_offset 16
	.cfi_offset %rbp, -16
	movq	%rsp, %rbp
	.cfi_def_cfa_register %rbp
	subq	$112, %rsp
	movq	%rdx, -96(%rbp)
	movq	%rsi, %rax
	movq	-96(%rbp), %rsi
	movq	%rax, -88(%rbp)
	movq	%rdi, %rax
	movq	-88(%rbp), %rdi
	movq	%rax, -80(%rbp)
	movq	%rax, -40(%rbp)
	movq	%rdi, -32(%rbp)
	movq	%rsi, -24(%rbp)
Ltmp189:
	.loc	20 632 22 prologue_end
	callq	__ZN63_$LT$I$u20$as$u20$core..iter..traits..collect..IntoIterator$GT$9into_iter17h84e7f094ab1f7f8bE
	movq	%rax, -72(%rbp)
	movq	%rdx, -64(%rbp)
LBB52_1:
Ltmp183:
	.loc	20 0 22 is_stmt 0
	leaq	-72(%rbp), %rdi
Ltmp190:
	.loc	20 632 22
	callq	__ZN91_$LT$core..slice..iter..Iter$LT$T$GT$$u20$as$u20$core..iter..traits..iterator..Iterator$GT$4next17haacbaceb519a2885E
Ltmp184:
	movq	%rax, -104(%rbp)
	jmp	LBB52_4
Ltmp191:
LBB52_2:
	.loc	20 627 5 is_stmt 1
	movq	-16(%rbp), %rdi
	callq	__Unwind_Resume
LBB52_3:
Ltmp185:
	.loc	20 0 5 is_stmt 0
	movq	%rax, %rcx
	movl	%edx, %eax
	movq	%rcx, -16(%rbp)
	movl	%eax, -8(%rbp)
	jmp	LBB52_2
LBB52_4:
	movq	-104(%rbp), %rax
Ltmp192:
	.loc	20 632 22 is_stmt 1
	movq	%rax, -56(%rbp)
	movq	-56(%rbp), %rdx
	movl	$1, %eax
	xorl	%ecx, %ecx
	cmpq	$0, %rdx
	cmoveq	%rcx, %rax
	cmpq	$0, %rax
	jne	LBB52_6
Ltmp193:
	.loc	20 0 22 is_stmt 0
	movq	-80(%rbp), %rax
	.loc	20 636 6 is_stmt 1
	addq	$112, %rsp
	popq	%rbp
	retq
LBB52_6:
	.loc	20 0 6 is_stmt 0
	movq	-80(%rbp), %rdi
Ltmp194:
	.loc	20 632 13 is_stmt 1
	movq	-56(%rbp), %rax
	movq	%rax, -48(%rbp)
Ltmp186:
Ltmp195:
	.loc	20 633 13
	leaq	l___unnamed_1(%rip), %rdx
	leaq	-48(%rbp), %rsi
	callq	__ZN4core3fmt8builders9DebugList5entry17h90e9fab3d6cede22E
Ltmp187:
	jmp	LBB52_9
Ltmp196:
LBB52_7:
	.loc	20 634 9
	jmp	LBB52_2
LBB52_8:
Ltmp188:
	.loc	20 0 9 is_stmt 0
	movq	%rax, %rcx
	movl	%edx, %eax
	movq	%rcx, -16(%rbp)
	movl	%eax, -8(%rbp)
	jmp	LBB52_7
LBB52_9:
	.loc	20 634 9
	jmp	LBB52_10
LBB52_10:
	.loc	20 632 9 is_stmt 1
	jmp	LBB52_1
Ltmp197:
Lfunc_end52:
	.cfi_endproc
	.section	__TEXT,__gcc_except_tab
	.p2align	2
GCC_except_table52:
Lexception5:
	.byte	255
	.byte	255
	.byte	1
	.uleb128 Lcst_end5-Lcst_begin5
Lcst_begin5:
	.uleb128 Lfunc_begin52-Lfunc_begin52
	.uleb128 Ltmp183-Lfunc_begin52
	.byte	0
	.byte	0
	.uleb128 Ltmp183-Lfunc_begin52
	.uleb128 Ltmp184-Ltmp183
	.uleb128 Ltmp185-Lfunc_begin52
	.byte	0
	.uleb128 Ltmp184-Lfunc_begin52
	.uleb128 Ltmp186-Ltmp184
	.byte	0
	.byte	0
	.uleb128 Ltmp186-Lfunc_begin52
	.uleb128 Ltmp187-Ltmp186
	.uleb128 Ltmp188-Lfunc_begin52
	.byte	0
Lcst_end5:
	.p2align	2

	.section	__TEXT,__text,regular,pure_instructions
	.p2align	4, 0x90
__ZN4core3fmt9Arguments16new_v1_formatted17h71ccae248fc19fb0E:
Lfunc_begin53:
	.loc	13 419 0
	.cfi_startproc
	pushq	%rbp
	.cfi_def_cfa_offset 16
	.cfi_offset %rbp, -16
	movq	%rsp, %rbp
	.cfi_def_cfa_register %rbp
	subq	$72, %rsp
	movq	%r9, %r10
	movq	%rdi, %rax
	movq	16(%rbp), %r9
	movq	%rsi, -56(%rbp)
	movq	%rdx, -48(%rbp)
	movq	%rcx, -40(%rbp)
	movq	%r8, -32(%rbp)
	movq	%r10, -24(%rbp)
	movq	%r9, -16(%rbp)
Ltmp198:
	.loc	13 425 34 prologue_end
	movq	%r10, -72(%rbp)
	movq	%r9, -64(%rbp)
	.loc	13 425 9 is_stmt 0
	movq	%rsi, 16(%rdi)
	movq	%rdx, 24(%rdi)
	movq	-72(%rbp), %rsi
	movq	-64(%rbp), %rdx
	movq	%rsi, (%rdi)
	movq	%rdx, 8(%rdi)
	movq	%rcx, 32(%rdi)
	movq	%r8, 40(%rdi)
	.loc	13 426 6 is_stmt 1
	addq	$72, %rsp
	popq	%rbp
	retq
Ltmp199:
Lfunc_end53:
	.cfi_endproc

	.p2align	4, 0x90
__ZN4core3fmt9Arguments6as_str17hf29644ea0421be4aE:
Lfunc_begin54:
	.loc	13 521 0
	.cfi_startproc
	pushq	%rbp
	.cfi_def_cfa_offset 16
	.cfi_offset %rbp, -16
	movq	%rsp, %rbp
	.cfi_def_cfa_register %rbp
	subq	$64, %rsp
	movq	%rdi, -16(%rbp)
Ltmp200:
	.loc	13 522 16 prologue_end
	movq	16(%rdi), %rsi
	movq	24(%rdi), %rdx
	.loc	13 522 29 is_stmt 0
	movq	32(%rdi), %rcx
	movq	40(%rdi), %rax
	.loc	13 522 15
	movq	%rsi, -48(%rbp)
	movq	%rdx, -40(%rbp)
	movq	%rcx, -32(%rbp)
	movq	%rax, -24(%rbp)
	.loc	13 523 14 is_stmt 1
	cmpq	$0, -40(%rbp)
	je	LBB54_2
	.loc	13 524 14
	cmpq	$1, -40(%rbp)
	je	LBB54_6
	jmp	LBB54_3
LBB54_2:
	.loc	13 523 18
	cmpq	$0, -24(%rbp)
	je	LBB54_4
LBB54_3:
	.loc	13 525 18
	movq	$0, -64(%rbp)
	jmp	LBB54_5
LBB54_4:
	.loc	13 523 25
	leaq	l___unnamed_8(%rip), %rax
	movq	%rax, -64(%rbp)
	movq	$0, -56(%rbp)
LBB54_5:
	.loc	13 527 6
	movq	-64(%rbp), %rax
	movq	-56(%rbp), %rdx
	addq	$64, %rsp
	popq	%rbp
	retq
LBB54_6:
	.loc	13 524 19
	cmpq	$0, -24(%rbp)
	jne	LBB54_3
	.loc	13 524 15 is_stmt 0
	movq	-48(%rbp), %rax
	movq	%rax, -8(%rbp)
Ltmp201:
	.loc	13 524 31
	movq	(%rax), %rcx
	movq	8(%rax), %rax
	.loc	13 524 26
	movq	%rcx, -64(%rbp)
	movq	%rax, -56(%rbp)
Ltmp202:
	.loc	13 524 32
	jmp	LBB54_5
Ltmp203:
Lfunc_end54:
	.cfi_endproc

	.p2align	4, 0x90
__ZN4core3fmt9Arguments6new_v117h0011c9ba1915e910E:
Lfunc_begin55:
	.loc	13 399 0 is_stmt 1
	.cfi_startproc
	pushq	%rbp
	.cfi_def_cfa_offset 16
	.cfi_offset %rbp, -16
	movq	%rsp, %rbp
	.cfi_def_cfa_register %rbp
	subq	$160, %rsp
	movq	%r8, -152(%rbp)
	movq	%rcx, -144(%rbp)
	movq	%rdx, -136(%rbp)
	movq	%rsi, -128(%rbp)
	movq	%rdi, -120(%rbp)
	movq	%rdi, -112(%rbp)
	movq	%rsi, -32(%rbp)
	movq	%rdx, -24(%rbp)
	movq	%rcx, -16(%rbp)
	movq	%r8, -8(%rbp)
Ltmp204:
	.loc	13 400 12 prologue_end
	cmpq	%r8, %rdx
	jb	LBB55_2
	.loc	13 0 12 is_stmt 0
	movq	-136(%rbp), %rax
	movq	-152(%rbp), %rcx
	.loc	13 400 56
	addq	$1, %rcx
	.loc	13 400 41
	cmpq	%rcx, %rax
	seta	%al
	.loc	13 400 12
	andb	$1, %al
	movb	%al, -97(%rbp)
	jmp	LBB55_3
LBB55_2:
	movb	$1, -97(%rbp)
LBB55_3:
	testb	$1, -97(%rbp)
	jne	LBB55_5
	.loc	13 0 12
	movq	-112(%rbp), %rax
	movq	-120(%rbp), %rcx
	movq	-152(%rbp), %rdx
	movq	-144(%rbp), %rsi
	movq	-136(%rbp), %rdi
	movq	-128(%rbp), %r8
	.loc	13 403 34 is_stmt 1
	movq	$0, -48(%rbp)
	.loc	13 403 9 is_stmt 0
	movq	%r8, 16(%rcx)
	movq	%rdi, 24(%rcx)
	movq	-48(%rbp), %r8
	movq	-40(%rbp), %rdi
	movq	%r8, (%rcx)
	movq	%rdi, 8(%rcx)
	movq	%rsi, 32(%rcx)
	movq	%rdx, 40(%rcx)
	.loc	13 404 6 is_stmt 1
	addq	$160, %rsp
	popq	%rbp
	retq
LBB55_5:
	.loc	13 401 13
	leaq	l___unnamed_9(%rip), %rsi
	leaq	l___unnamed_8(%rip), %rcx
	xorl	%eax, %eax
	movl	%eax, %r8d
	leaq	-96(%rbp), %rdi
	movq	%rdi, -160(%rbp)
	movl	$1, %edx
	callq	__ZN4core3fmt9Arguments6new_v117h0011c9ba1915e910E
	movq	-160(%rbp), %rdi
	leaq	l___unnamed_10(%rip), %rsi
	callq	__ZN4core9panicking9panic_fmt17h9b5d807e24bcaaedE
Ltmp205:
Lfunc_end55:
	.cfi_endproc

	.globl	__ZN4core3mem7replace17h7f7ad0bd3c0e1e96E
	.p2align	4, 0x90
__ZN4core3mem7replace17h7f7ad0bd3c0e1e96E:
Lfunc_begin56:
	.file	21 "/rustc/2c8cc343237b8f7d5a3c3703e3a87f2eb2c54a74/library/core/src/mem" "mod.rs"
	.loc	21 905 0
	.cfi_startproc
	pushq	%rbp
	.cfi_def_cfa_offset 16
	.cfi_offset %rbp, -16
	movq	%rsp, %rbp
	.cfi_def_cfa_register %rbp
	subq	$120, %rsp
	movq	%rdi, -120(%rbp)
	movq	%rsi, -112(%rbp)
	movq	%rdi, -80(%rbp)
	movq	%rsi, -72(%rbp)
Ltmp206:
	.loc	21 910 32 prologue_end
	movq	%rdi, -64(%rbp)
Ltmp207:
	.loc	4 1157 34
	leaq	-88(%rbp), %rax
	movq	%rax, -56(%rbp)
	.loc	4 1157 9 is_stmt 0
	movq	(%rdi), %rax
	movq	%rax, -88(%rbp)
	.loc	4 1158 9 is_stmt 1
	movq	-88(%rbp), %rax
	movq	%rax, -104(%rbp)
	movq	%rax, -48(%rbp)
	.loc	4 0 9 is_stmt 0
	movq	-104(%rbp), %rax
	movq	-120(%rbp), %rcx
	movq	-112(%rbp), %rdx
Ltmp208:
	.file	22 "/rustc/2c8cc343237b8f7d5a3c3703e3a87f2eb2c54a74/library/core/src/mem" "maybe_uninit.rs"
	.loc	22 627 38 is_stmt 1
	movq	%rax, -24(%rbp)
Ltmp209:
	.file	23 "/rustc/2c8cc343237b8f7d5a3c3703e3a87f2eb2c54a74/library/core/src/mem" "manually_drop.rs"
	.loc	23 89 9
	movq	%rax, -16(%rbp)
Ltmp210:
	.loc	21 911 20
	movq	%rcx, -8(%rbp)
	.loc	21 911 26 is_stmt 0
	movq	%rdx, -96(%rbp)
Ltmp211:
	.loc	4 1354 9 is_stmt 1
	movq	-96(%rbp), %rdx
	movq	%rdx, (%rcx)
Ltmp212:
	.loc	21 914 2
	addq	$120, %rsp
	popq	%rbp
	retq
Ltmp213:
Lfunc_end56:
	.cfi_endproc

	.p2align	4, 0x90
__ZN4core3num21_$LT$impl$u20$u64$GT$11checked_mul17hbc0ae05554e950f4E:
Lfunc_begin57:
	.loc	17 558 0
	.cfi_startproc
	pushq	%rbp
	.cfi_def_cfa_offset 16
	.cfi_offset %rbp, -16
	movq	%rsp, %rbp
	.cfi_def_cfa_register %rbp
	subq	$120, %rsp
	movq	%rdi, %rax
	movq	%rax, -80(%rbp)
	movq	%rsi, -72(%rbp)
Ltmp214:
	.loc	17 559 26 prologue_end
	movq	%rax, -64(%rbp)
	.loc	17 559 47 is_stmt 0
	movq	%rsi, -56(%rbp)
Ltmp215:
	.loc	17 1677 26 is_stmt 1
	mulq	%rsi
	movq	%rax, %rcx
	seto	%al
	andb	$1, %al
	movq	%rcx, -48(%rbp)
	movb	%al, -40(%rbp)
	movq	-48(%rbp), %rcx
	movb	-40(%rbp), %al
	.loc	17 1677 18 is_stmt 0
	movq	%rcx, -32(%rbp)
	.loc	17 1677 21
	movb	%al, %dl
	andb	$1, %dl
	movb	%dl, -17(%rbp)
Ltmp216:
	.loc	17 1678 13 is_stmt 1
	movq	%rcx, -96(%rbp)
	andb	$1, %al
	movb	%al, -88(%rbp)
Ltmp217:
	.loc	17 559 18
	movq	-96(%rbp), %rax
	movq	%rax, -120(%rbp)
	movq	%rax, -16(%rbp)
	.loc	17 559 21 is_stmt 0
	movb	-88(%rbp), %al
	movb	%al, %cl
	andb	$1, %cl
	movb	%cl, -2(%rbp)
Ltmp218:
	.loc	17 560 16 is_stmt 1
	andb	$1, %al
	movb	%al, -1(%rbp)
	testb	$1, -1(%rbp)
	jne	LBB57_2
	.loc	17 0 16 is_stmt 0
	movq	-120(%rbp), %rax
	.loc	17 560 42
	movq	%rax, -104(%rbp)
	movq	$1, -112(%rbp)
	.loc	17 560 13
	jmp	LBB57_3
LBB57_2:
	.loc	17 560 30
	movq	$0, -112(%rbp)
Ltmp219:
LBB57_3:
	.loc	17 561 10 is_stmt 1
	movq	-112(%rbp), %rax
	movq	-104(%rbp), %rdx
	addq	$120, %rsp
	popq	%rbp
	retq
Ltmp220:
Lfunc_end57:
	.cfi_endproc

	.globl	__ZN4core3num7dec2flt18biased_fp_to_float17h12268a908eaf3d34E
	.p2align	4, 0x90
__ZN4core3num7dec2flt18biased_fp_to_float17h12268a908eaf3d34E:
Lfunc_begin58:
	.file	24 "/rustc/2c8cc343237b8f7d5a3c3703e3a87f2eb2c54a74/library/core/src/num/dec2flt" "mod.rs"
	.loc	24 219 0
	.cfi_startproc
	pushq	%rbp
	.cfi_def_cfa_offset 16
	.cfi_offset %rbp, -16
	movq	%rsp, %rbp
	.cfi_def_cfa_register %rbp
	subq	$32, %rsp
	movq	%rdi, -16(%rbp)
	movl	%esi, -8(%rbp)
Ltmp221:
	.loc	24 220 20 prologue_end
	movq	%rdi, -24(%rbp)
Ltmp222:
	.loc	24 221 13
	movslq	%esi, %rax
	shlq	$23, %rax
	.loc	24 221 5 is_stmt 0
	orq	-24(%rbp), %rax
	movq	%rax, -24(%rbp)
	.loc	24 222 22 is_stmt 1
	movq	-24(%rbp), %rdi
	.loc	24 222 5 is_stmt 0
	callq	__ZN59_$LT$f32$u20$as$u20$core..num..dec2flt..float..RawFloat$GT$13from_u64_bits17h45ad9b13b18410efE
Ltmp223:
	.loc	24 223 2 is_stmt 1
	addq	$32, %rsp
	popq	%rbp
	retq
Ltmp224:
Lfunc_end58:
	.cfi_endproc

	.globl	__ZN4core3num7dec2flt18biased_fp_to_float17h13e1861a153642ffE
	.p2align	4, 0x90
__ZN4core3num7dec2flt18biased_fp_to_float17h13e1861a153642ffE:
Lfunc_begin59:
	.loc	24 219 0
	.cfi_startproc
	pushq	%rbp
	.cfi_def_cfa_offset 16
	.cfi_offset %rbp, -16
	movq	%rsp, %rbp
	.cfi_def_cfa_register %rbp
	subq	$32, %rsp
	movq	%rdi, -16(%rbp)
	movl	%esi, -8(%rbp)
Ltmp225:
	.loc	24 220 20 prologue_end
	movq	%rdi, -24(%rbp)
Ltmp226:
	.loc	24 221 13
	movslq	%esi, %rax
	shlq	$52, %rax
	.loc	24 221 5 is_stmt 0
	orq	-24(%rbp), %rax
	movq	%rax, -24(%rbp)
	.loc	24 222 22 is_stmt 1
	movq	-24(%rbp), %rdi
	.loc	24 222 5 is_stmt 0
	callq	__ZN59_$LT$f64$u20$as$u20$core..num..dec2flt..float..RawFloat$GT$13from_u64_bits17h26574e41f4991a58E
Ltmp227:
	.loc	24 223 2 is_stmt 1
	addq	$32, %rsp
	popq	%rbp
	retq
Ltmp228:
Lfunc_end59:
	.cfi_endproc

	.globl	__ZN4core3num7dec2flt3fpu13fpu_precision13set_precision17h8a45c53a2efc2e67E
	.p2align	4, 0x90
__ZN4core3num7dec2flt3fpu13fpu_precision13set_precision17h8a45c53a2efc2e67E:
Lfunc_begin60:
	.file	25 "/rustc/2c8cc343237b8f7d5a3c3703e3a87f2eb2c54a74/library/core/src/num/dec2flt" "fpu.rs"
	.loc	25 89 0
	.cfi_startproc
	pushq	%rbp
	.cfi_def_cfa_offset 16
	.cfi_offset %rbp, -16
	movq	%rsp, %rbp
	.cfi_def_cfa_register %rbp
Ltmp229:
	.loc	25 89 33 prologue_end
	popq	%rbp
	retq
Ltmp230:
Lfunc_end60:
	.cfi_endproc

	.globl	__ZN4core3num7dec2flt3fpu13fpu_precision13set_precision17ha3dc2711bc205cb7E
	.p2align	4, 0x90
__ZN4core3num7dec2flt3fpu13fpu_precision13set_precision17ha3dc2711bc205cb7E:
Lfunc_begin61:
	.loc	25 89 0
	.cfi_startproc
	pushq	%rbp
	.cfi_def_cfa_offset 16
	.cfi_offset %rbp, -16
	movq	%rsp, %rbp
	.cfi_def_cfa_register %rbp
Ltmp231:
	.loc	25 89 33 prologue_end
	popq	%rbp
	retq
Ltmp232:
Lfunc_end61:
	.cfi_endproc

	.globl	__ZN4core3num7dec2flt4slow19parse_long_mantissa17h72c214cd1f404e7aE
	.p2align	4, 0x90
__ZN4core3num7dec2flt4slow19parse_long_mantissa17h72c214cd1f404e7aE:
Lfunc_begin62:
	.file	26 "/rustc/2c8cc343237b8f7d5a3c3703e3a87f2eb2c54a74/library/core/src/num/dec2flt" "slow.rs"
	.loc	26 26 0
	.cfi_startproc
	pushq	%rbp
	.cfi_def_cfa_offset 16
	.cfi_offset %rbp, -16
	movq	%rsp, %rbp
	.cfi_def_cfa_register %rbp
	subq	$992, %rsp
	movq	%rdi, -968(%rbp)
	movq	%rsi, -952(%rbp)
	movq	%rdi, -72(%rbp)
	movq	%rsi, -64(%rbp)
Ltmp233:
	.loc	26 36 19 prologue_end
	xorl	%edi, %edi
	callq	__ZN4core3num7dec2flt6common8BiasedFp9zero_pow217hd9d409e4688b21a5E
	movq	%rax, -984(%rbp)
	movl	%edx, -972(%rbp)
	movq	%rax, -56(%rbp)
	movl	%edx, -48(%rbp)
Ltmp234:
	.loc	26 37 18
	movl	$255, %edi
	callq	__ZN4core3num7dec2flt6common8BiasedFp9zero_pow217hd9d409e4688b21a5E
	movq	-968(%rbp), %rsi
	movq	%rax, %rcx
	movq	%rcx, -960(%rbp)
	movl	%edx, %eax
	movq	-952(%rbp), %rdx
	movl	%eax, -940(%rbp)
	movq	%rcx, -40(%rbp)
	movl	%eax, -32(%rbp)
Ltmp235:
	.loc	26 39 17
	leaq	-912(%rbp), %rdi
	callq	__ZN4core3num7dec2flt7decimal13parse_decimal17he94b4e052923b1b6E
Ltmp236:
	.loc	26 42 8
	cmpq	$0, -144(%rbp)
	jne	LBB62_2
	movb	$1, -125(%rbp)
	jmp	LBB62_3
LBB62_2:
	.loc	26 42 29 is_stmt 0
	cmpl	$-324, -136(%rbp)
	setl	%al
	.loc	26 42 8
	andb	$1, %al
	movb	%al, -125(%rbp)
LBB62_3:
	testb	$1, -125(%rbp)
	jne	LBB62_5
	.loc	26 44 15 is_stmt 1
	cmpl	$310, -136(%rbp)
	jge	LBB62_8
	jmp	LBB62_7
LBB62_5:
	.loc	26 0 15 is_stmt 0
	movl	-972(%rbp), %eax
	movq	-984(%rbp), %rcx
	.loc	26 43 16 is_stmt 1
	movq	%rcx, -936(%rbp)
	movl	%eax, -928(%rbp)
LBB62_6:
	.file	27 "/Users/natalie/.cargo/registry/src/github.com-1ecc6299db9ec823/emath-0.19.0" "src/lib.rs"
	.loc	27 1 1
	jmp	LBB62_9
LBB62_7:
	.loc	26 47 20
	movl	$0, -124(%rbp)
Ltmp237:
	.loc	26 49 5
	jmp	LBB62_10
Ltmp238:
LBB62_8:
	.loc	26 0 5 is_stmt 0
	movl	-940(%rbp), %eax
	movq	-960(%rbp), %rcx
	.loc	26 45 16 is_stmt 1
	movq	%rcx, -936(%rbp)
	movl	%eax, -928(%rbp)
	.loc	27 1 1
	jmp	LBB62_6
Ltmp239:
LBB62_9:
	.loc	26 109 2
	jmp	LBB62_40
LBB62_10:
Ltmp240:
	.loc	26 49 11
	cmpl	$0, -136(%rbp)
	jg	LBB62_12
	.loc	26 59 5
	jmp	LBB62_16
LBB62_12:
	.loc	26 50 17
	movslq	-136(%rbp), %rax
	movq	%rax, -24(%rbp)
Ltmp241:
	.loc	26 51 21
	movq	%rax, -120(%rbp)
	movq	-120(%rbp), %rsi
	leaq	-920(%rbp), %rdi
	callq	__ZN4core3num7dec2flt4slow19parse_long_mantissa28_$u7b$$u7b$closure$u7d$$u7d$17h688f7607e6d6e933E
	movq	%rax, %rsi
	movq	%rsi, -992(%rbp)
	movq	%rsi, -16(%rbp)
Ltmp242:
	.loc	26 52 9
	leaq	-912(%rbp), %rdi
	callq	__ZN4core3num7dec2flt7decimal7Decimal11right_shift17hbef7261b911e484eE
	.loc	26 53 12
	cmpl	$-2047, -136(%rbp)
	jl	LBB62_14
	.loc	26 0 12 is_stmt 0
	movq	-992(%rbp), %rax
	.loc	26 56 9 is_stmt 1
	addl	-124(%rbp), %eax
	movl	%eax, -124(%rbp)
Ltmp243:
	.loc	26 49 5
	jmp	LBB62_10
LBB62_14:
	.loc	26 0 5 is_stmt 0
	movl	-972(%rbp), %eax
	movq	-984(%rbp), %rcx
Ltmp244:
	.loc	26 54 20 is_stmt 1
	movq	%rcx, -936(%rbp)
	movl	%eax, -928(%rbp)
Ltmp245:
LBB62_15:
	.loc	27 1 1
	jmp	LBB62_9
LBB62_16:
Ltmp246:
	.loc	26 59 11
	cmpl	$0, -136(%rbp)
	jle	LBB62_18
LBB62_17:
	.loc	26 76 5
	movl	-124(%rbp), %eax
	subl	$1, %eax
	movl	%eax, -124(%rbp)
	.loc	26 77 5
	jmp	LBB62_29
LBB62_18:
	.loc	26 60 24
	cmpl	$0, -136(%rbp)
	jne	LBB62_20
	.loc	26 62 17
	leaq	-912(%rbp), %rax
	movq	%rax, -8(%rbp)
	.loc	26 62 26 is_stmt 0
	cmpb	$5, -912(%rbp)
	jae	LBB62_23
	jmp	LBB62_22
LBB62_20:
	.loc	26 67 23 is_stmt 1
	xorl	%eax, %eax
	subl	-136(%rbp), %eax
	cltq
	.loc	26 67 13 is_stmt 0
	movq	%rax, -104(%rbp)
	movq	-104(%rbp), %rsi
	leaq	-920(%rbp), %rdi
	callq	__ZN4core3num7dec2flt4slow19parse_long_mantissa28_$u7b$$u7b$closure$u7d$$u7d$17h688f7607e6d6e933E
	movq	%rax, -112(%rbp)
LBB62_21:
Ltmp247:
	.loc	26 69 22 is_stmt 1
	movq	-112(%rbp), %rsi
	.loc	26 69 9 is_stmt 0
	leaq	-912(%rbp), %rdi
	callq	__ZN4core3num7dec2flt7decimal7Decimal10left_shift17hb49663691319c6cbE
	.loc	26 70 12 is_stmt 1
	cmpl	$2047, -136(%rbp)
	jg	LBB62_28
	jmp	LBB62_27
Ltmp248:
LBB62_22:
	.loc	26 61 13
	movb	-912(%rbp), %al
	subb	$2, %al
	jb	LBB62_25
	jmp	LBB62_24
LBB62_23:
	.loc	27 1 1
	jmp	LBB62_17
LBB62_24:
	.loc	26 64 22
	movq	$1, -112(%rbp)
	jmp	LBB62_26
LBB62_25:
	.loc	26 63 26
	movq	$2, -112(%rbp)
LBB62_26:
	.loc	26 60 21
	jmp	LBB62_21
LBB62_27:
Ltmp249:
	.loc	26 73 17
	movq	-112(%rbp), %rax
	movl	%eax, %ecx
	.loc	26 73 9 is_stmt 0
	movl	-124(%rbp), %eax
	subl	%ecx, %eax
	movl	%eax, -124(%rbp)
Ltmp250:
	.loc	26 59 5 is_stmt 1
	jmp	LBB62_16
LBB62_28:
	.loc	26 0 5 is_stmt 0
	movl	-940(%rbp), %eax
	movq	-960(%rbp), %rcx
Ltmp251:
	.loc	26 71 20 is_stmt 1
	movq	%rcx, -936(%rbp)
	movl	%eax, -928(%rbp)
Ltmp252:
	.loc	27 1 1
	jmp	LBB62_15
LBB62_29:
	.loc	26 77 11
	movl	$4294967170, %eax
	cmpl	-124(%rbp), %eax
	jg	LBB62_31
	.loc	26 85 9
	movl	-124(%rbp), %eax
	.loc	26 85 8 is_stmt 0
	subl	$-127, %eax
	cmpl	$255, %eax
	jge	LBB62_35
	jmp	LBB62_34
LBB62_31:
	.loc	26 78 21 is_stmt 1
	movl	$4294967170, %eax
	subl	-124(%rbp), %eax
	cltq
	movq	%rax, -96(%rbp)
Ltmp253:
	.loc	26 79 12
	cmpq	$60, -96(%rbp)
	ja	LBB62_33
LBB62_32:
	.loc	26 82 23
	movq	-96(%rbp), %rsi
	.loc	26 82 9 is_stmt 0
	leaq	-912(%rbp), %rdi
	callq	__ZN4core3num7dec2flt7decimal7Decimal11right_shift17hbef7261b911e484eE
	.loc	26 83 17 is_stmt 1
	movq	-96(%rbp), %rax
	.loc	26 83 9 is_stmt 0
	addl	-124(%rbp), %eax
	movl	%eax, -124(%rbp)
Ltmp254:
	.loc	26 77 5 is_stmt 1
	jmp	LBB62_29
LBB62_33:
Ltmp255:
	.loc	26 80 13
	movq	$60, -96(%rbp)
	.loc	26 79 9
	jmp	LBB62_32
Ltmp256:
LBB62_34:
	.loc	26 90 5
	leaq	-912(%rbp), %rdi
	movl	$24, %esi
	callq	__ZN4core3num7dec2flt7decimal7Decimal10left_shift17hb49663691319c6cbE
	.loc	26 91 24
	leaq	-912(%rbp), %rdi
	callq	__ZN4core3num7dec2flt7decimal7Decimal5round17h01e343917b97ddb0E
	movq	%rax, -88(%rbp)
Ltmp257:
	.loc	26 92 8
	cmpq	$16777216, -88(%rbp)
	jae	LBB62_37
	jmp	LBB62_36
Ltmp258:
LBB62_35:
	.loc	26 0 8 is_stmt 0
	movl	-940(%rbp), %eax
	movq	-960(%rbp), %rcx
	.loc	26 86 16 is_stmt 1
	movq	%rcx, -936(%rbp)
	movl	%eax, -928(%rbp)
	.loc	27 1 1
	jmp	LBB62_15
LBB62_36:
Ltmp259:
	.loc	26 102 22
	movl	-124(%rbp), %eax
	subl	$-127, %eax
	movl	%eax, -76(%rbp)
Ltmp260:
	.loc	26 103 8
	cmpq	$8388608, -88(%rbp)
	jb	LBB62_42
	jmp	LBB62_41
Ltmp261:
LBB62_37:
	.loc	26 95 9
	leaq	-912(%rbp), %rdi
	movl	$1, %esi
	callq	__ZN4core3num7dec2flt7decimal7Decimal11right_shift17hbef7261b911e484eE
	.loc	26 96 9
	movl	-124(%rbp), %eax
	addl	$1, %eax
	movl	%eax, -124(%rbp)
	.loc	26 97 20
	leaq	-912(%rbp), %rdi
	callq	__ZN4core3num7dec2flt7decimal7Decimal5round17h01e343917b97ddb0E
	.loc	26 97 9 is_stmt 0
	movq	%rax, -88(%rbp)
	.loc	26 98 13 is_stmt 1
	movl	-124(%rbp), %eax
	.loc	26 98 12 is_stmt 0
	subl	$-127, %eax
	cmpl	$255, %eax
	jge	LBB62_39
	.loc	26 92 5 is_stmt 1
	jmp	LBB62_36
LBB62_39:
	.loc	26 0 5 is_stmt 0
	movl	-940(%rbp), %eax
	movq	-960(%rbp), %rcx
	.loc	26 99 20 is_stmt 1
	movq	%rcx, -936(%rbp)
	movl	%eax, -928(%rbp)
Ltmp262:
	.loc	27 1 1
	jmp	LBB62_15
Ltmp263:
LBB62_40:
	.loc	26 109 2
	movq	-936(%rbp), %rax
	movl	-928(%rbp), %edx
	addq	$992, %rsp
	popq	%rbp
	retq
LBB62_41:
Ltmp264:
	.loc	26 107 5
	movq	-88(%rbp), %rax
	andq	$8388607, %rax
	movq	%rax, -88(%rbp)
	.loc	26 108 19
	movq	-88(%rbp), %rcx
	.loc	26 108 32 is_stmt 0
	movl	-76(%rbp), %eax
	.loc	26 108 5
	movq	%rcx, -936(%rbp)
	movl	%eax, -928(%rbp)
Ltmp265:
	.loc	26 109 2 is_stmt 1
	jmp	LBB62_40
LBB62_42:
Ltmp266:
	.loc	26 104 9
	movl	-76(%rbp), %eax
	subl	$1, %eax
	movl	%eax, -76(%rbp)
	.loc	26 103 5
	jmp	LBB62_41
Ltmp267:
Lfunc_end62:
	.cfi_endproc

	.globl	__ZN4core3num7dec2flt4slow19parse_long_mantissa17h8285ac20c953a661E
	.p2align	4, 0x90
__ZN4core3num7dec2flt4slow19parse_long_mantissa17h8285ac20c953a661E:
Lfunc_begin63:
	.loc	26 26 0
	.cfi_startproc
	pushq	%rbp
	.cfi_def_cfa_offset 16
	.cfi_offset %rbp, -16
	movq	%rsp, %rbp
	.cfi_def_cfa_register %rbp
	subq	$992, %rsp
	movq	%rdi, -968(%rbp)
	movq	%rsi, -952(%rbp)
	movq	%rdi, -72(%rbp)
	movq	%rsi, -64(%rbp)
Ltmp268:
	.loc	26 36 19 prologue_end
	xorl	%edi, %edi
	callq	__ZN4core3num7dec2flt6common8BiasedFp9zero_pow217hd9d409e4688b21a5E
	movq	%rax, -984(%rbp)
	movl	%edx, -972(%rbp)
	movq	%rax, -56(%rbp)
	movl	%edx, -48(%rbp)
Ltmp269:
	.loc	26 37 18
	movl	$2047, %edi
	callq	__ZN4core3num7dec2flt6common8BiasedFp9zero_pow217hd9d409e4688b21a5E
	movq	-968(%rbp), %rsi
	movq	%rax, %rcx
	movq	%rcx, -960(%rbp)
	movl	%edx, %eax
	movq	-952(%rbp), %rdx
	movl	%eax, -940(%rbp)
	movq	%rcx, -40(%rbp)
	movl	%eax, -32(%rbp)
Ltmp270:
	.loc	26 39 17
	leaq	-912(%rbp), %rdi
	callq	__ZN4core3num7dec2flt7decimal13parse_decimal17he94b4e052923b1b6E
Ltmp271:
	.loc	26 42 8
	cmpq	$0, -144(%rbp)
	jne	LBB63_2
	movb	$1, -125(%rbp)
	jmp	LBB63_3
LBB63_2:
	.loc	26 42 29 is_stmt 0
	cmpl	$-324, -136(%rbp)
	setl	%al
	.loc	26 42 8
	andb	$1, %al
	movb	%al, -125(%rbp)
LBB63_3:
	testb	$1, -125(%rbp)
	jne	LBB63_5
	.loc	26 44 15 is_stmt 1
	cmpl	$310, -136(%rbp)
	jge	LBB63_8
	jmp	LBB63_7
LBB63_5:
	.loc	26 0 15 is_stmt 0
	movl	-972(%rbp), %eax
	movq	-984(%rbp), %rcx
	.loc	26 43 16 is_stmt 1
	movq	%rcx, -936(%rbp)
	movl	%eax, -928(%rbp)
LBB63_6:
	.loc	27 1 1
	jmp	LBB63_9
LBB63_7:
	.loc	26 47 20
	movl	$0, -124(%rbp)
Ltmp272:
	.loc	26 49 5
	jmp	LBB63_10
Ltmp273:
LBB63_8:
	.loc	26 0 5 is_stmt 0
	movl	-940(%rbp), %eax
	movq	-960(%rbp), %rcx
	.loc	26 45 16 is_stmt 1
	movq	%rcx, -936(%rbp)
	movl	%eax, -928(%rbp)
	.loc	27 1 1
	jmp	LBB63_6
Ltmp274:
LBB63_9:
	.loc	26 109 2
	jmp	LBB63_40
LBB63_10:
Ltmp275:
	.loc	26 49 11
	cmpl	$0, -136(%rbp)
	jg	LBB63_12
	.loc	26 59 5
	jmp	LBB63_16
LBB63_12:
	.loc	26 50 17
	movslq	-136(%rbp), %rax
	movq	%rax, -24(%rbp)
Ltmp276:
	.loc	26 51 21
	movq	%rax, -120(%rbp)
	movq	-120(%rbp), %rsi
	leaq	-920(%rbp), %rdi
	callq	__ZN4core3num7dec2flt4slow19parse_long_mantissa28_$u7b$$u7b$closure$u7d$$u7d$17h815a40ca7c7abe62E
	movq	%rax, %rsi
	movq	%rsi, -992(%rbp)
	movq	%rsi, -16(%rbp)
Ltmp277:
	.loc	26 52 9
	leaq	-912(%rbp), %rdi
	callq	__ZN4core3num7dec2flt7decimal7Decimal11right_shift17hbef7261b911e484eE
	.loc	26 53 12
	cmpl	$-2047, -136(%rbp)
	jl	LBB63_14
	.loc	26 0 12 is_stmt 0
	movq	-992(%rbp), %rax
	.loc	26 56 9 is_stmt 1
	addl	-124(%rbp), %eax
	movl	%eax, -124(%rbp)
Ltmp278:
	.loc	26 49 5
	jmp	LBB63_10
LBB63_14:
	.loc	26 0 5 is_stmt 0
	movl	-972(%rbp), %eax
	movq	-984(%rbp), %rcx
Ltmp279:
	.loc	26 54 20 is_stmt 1
	movq	%rcx, -936(%rbp)
	movl	%eax, -928(%rbp)
Ltmp280:
LBB63_15:
	.loc	27 1 1
	jmp	LBB63_9
LBB63_16:
Ltmp281:
	.loc	26 59 11
	cmpl	$0, -136(%rbp)
	jle	LBB63_18
LBB63_17:
	.loc	26 76 5
	movl	-124(%rbp), %eax
	subl	$1, %eax
	movl	%eax, -124(%rbp)
	.loc	26 77 5
	jmp	LBB63_29
LBB63_18:
	.loc	26 60 24
	cmpl	$0, -136(%rbp)
	jne	LBB63_20
	.loc	26 62 17
	leaq	-912(%rbp), %rax
	movq	%rax, -8(%rbp)
	.loc	26 62 26 is_stmt 0
	cmpb	$5, -912(%rbp)
	jae	LBB63_23
	jmp	LBB63_22
LBB63_20:
	.loc	26 67 23 is_stmt 1
	xorl	%eax, %eax
	subl	-136(%rbp), %eax
	cltq
	.loc	26 67 13 is_stmt 0
	movq	%rax, -104(%rbp)
	movq	-104(%rbp), %rsi
	leaq	-920(%rbp), %rdi
	callq	__ZN4core3num7dec2flt4slow19parse_long_mantissa28_$u7b$$u7b$closure$u7d$$u7d$17h815a40ca7c7abe62E
	movq	%rax, -112(%rbp)
LBB63_21:
Ltmp282:
	.loc	26 69 22 is_stmt 1
	movq	-112(%rbp), %rsi
	.loc	26 69 9 is_stmt 0
	leaq	-912(%rbp), %rdi
	callq	__ZN4core3num7dec2flt7decimal7Decimal10left_shift17hb49663691319c6cbE
	.loc	26 70 12 is_stmt 1
	cmpl	$2047, -136(%rbp)
	jg	LBB63_28
	jmp	LBB63_27
Ltmp283:
LBB63_22:
	.loc	26 61 13
	movb	-912(%rbp), %al
	subb	$2, %al
	jb	LBB63_25
	jmp	LBB63_24
LBB63_23:
	.loc	27 1 1
	jmp	LBB63_17
LBB63_24:
	.loc	26 64 22
	movq	$1, -112(%rbp)
	jmp	LBB63_26
LBB63_25:
	.loc	26 63 26
	movq	$2, -112(%rbp)
LBB63_26:
	.loc	26 60 21
	jmp	LBB63_21
LBB63_27:
Ltmp284:
	.loc	26 73 17
	movq	-112(%rbp), %rax
	movl	%eax, %ecx
	.loc	26 73 9 is_stmt 0
	movl	-124(%rbp), %eax
	subl	%ecx, %eax
	movl	%eax, -124(%rbp)
Ltmp285:
	.loc	26 59 5 is_stmt 1
	jmp	LBB63_16
LBB63_28:
	.loc	26 0 5 is_stmt 0
	movl	-940(%rbp), %eax
	movq	-960(%rbp), %rcx
Ltmp286:
	.loc	26 71 20 is_stmt 1
	movq	%rcx, -936(%rbp)
	movl	%eax, -928(%rbp)
Ltmp287:
	.loc	27 1 1
	jmp	LBB63_15
LBB63_29:
	.loc	26 77 11
	movl	$4294966274, %eax
	cmpl	-124(%rbp), %eax
	jg	LBB63_31
	.loc	26 85 9
	movl	-124(%rbp), %eax
	.loc	26 85 8 is_stmt 0
	subl	$-1023, %eax
	cmpl	$2047, %eax
	jge	LBB63_35
	jmp	LBB63_34
LBB63_31:
	.loc	26 78 21 is_stmt 1
	movl	$4294966274, %eax
	subl	-124(%rbp), %eax
	cltq
	movq	%rax, -96(%rbp)
Ltmp288:
	.loc	26 79 12
	cmpq	$60, -96(%rbp)
	ja	LBB63_33
LBB63_32:
	.loc	26 82 23
	movq	-96(%rbp), %rsi
	.loc	26 82 9 is_stmt 0
	leaq	-912(%rbp), %rdi
	callq	__ZN4core3num7dec2flt7decimal7Decimal11right_shift17hbef7261b911e484eE
	.loc	26 83 17 is_stmt 1
	movq	-96(%rbp), %rax
	.loc	26 83 9 is_stmt 0
	addl	-124(%rbp), %eax
	movl	%eax, -124(%rbp)
Ltmp289:
	.loc	26 77 5 is_stmt 1
	jmp	LBB63_29
LBB63_33:
Ltmp290:
	.loc	26 80 13
	movq	$60, -96(%rbp)
	.loc	26 79 9
	jmp	LBB63_32
Ltmp291:
LBB63_34:
	.loc	26 90 5
	leaq	-912(%rbp), %rdi
	movl	$53, %esi
	callq	__ZN4core3num7dec2flt7decimal7Decimal10left_shift17hb49663691319c6cbE
	.loc	26 91 24
	leaq	-912(%rbp), %rdi
	callq	__ZN4core3num7dec2flt7decimal7Decimal5round17h01e343917b97ddb0E
	movq	%rax, -88(%rbp)
Ltmp292:
	.loc	26 92 8
	movabsq	$9007199254740992, %rax
	cmpq	%rax, -88(%rbp)
	jae	LBB63_37
	jmp	LBB63_36
Ltmp293:
LBB63_35:
	.loc	26 0 8 is_stmt 0
	movl	-940(%rbp), %eax
	movq	-960(%rbp), %rcx
	.loc	26 86 16 is_stmt 1
	movq	%rcx, -936(%rbp)
	movl	%eax, -928(%rbp)
	.loc	27 1 1
	jmp	LBB63_15
LBB63_36:
Ltmp294:
	.loc	26 102 22
	movl	-124(%rbp), %eax
	subl	$-1023, %eax
	movl	%eax, -76(%rbp)
Ltmp295:
	.loc	26 103 8
	movabsq	$4503599627370496, %rax
	cmpq	%rax, -88(%rbp)
	jb	LBB63_42
	jmp	LBB63_41
Ltmp296:
LBB63_37:
	.loc	26 95 9
	leaq	-912(%rbp), %rdi
	movl	$1, %esi
	callq	__ZN4core3num7dec2flt7decimal7Decimal11right_shift17hbef7261b911e484eE
	.loc	26 96 9
	movl	-124(%rbp), %eax
	addl	$1, %eax
	movl	%eax, -124(%rbp)
	.loc	26 97 20
	leaq	-912(%rbp), %rdi
	callq	__ZN4core3num7dec2flt7decimal7Decimal5round17h01e343917b97ddb0E
	.loc	26 97 9 is_stmt 0
	movq	%rax, -88(%rbp)
	.loc	26 98 13 is_stmt 1
	movl	-124(%rbp), %eax
	.loc	26 98 12 is_stmt 0
	subl	$-1023, %eax
	cmpl	$2047, %eax
	jge	LBB63_39
	.loc	26 92 5 is_stmt 1
	jmp	LBB63_36
LBB63_39:
	.loc	26 0 5 is_stmt 0
	movl	-940(%rbp), %eax
	movq	-960(%rbp), %rcx
	.loc	26 99 20 is_stmt 1
	movq	%rcx, -936(%rbp)
	movl	%eax, -928(%rbp)
Ltmp297:
	.loc	27 1 1
	jmp	LBB63_15
Ltmp298:
LBB63_40:
	.loc	26 109 2
	movq	-936(%rbp), %rax
	movl	-928(%rbp), %edx
	addq	$992, %rsp
	popq	%rbp
	retq
LBB63_41:
Ltmp299:
	.loc	26 107 5
	movabsq	$4503599627370495, %rax
	andq	-88(%rbp), %rax
	movq	%rax, -88(%rbp)
	.loc	26 108 19
	movq	-88(%rbp), %rcx
	.loc	26 108 32 is_stmt 0
	movl	-76(%rbp), %eax
	.loc	26 108 5
	movq	%rcx, -936(%rbp)
	movl	%eax, -928(%rbp)
Ltmp300:
	.loc	26 109 2 is_stmt 1
	jmp	LBB63_40
LBB63_42:
Ltmp301:
	.loc	26 104 9
	movl	-76(%rbp), %eax
	subl	$1, %eax
	movl	%eax, -76(%rbp)
	.loc	26 103 5
	jmp	LBB63_41
Ltmp302:
Lfunc_end63:
	.cfi_endproc

	.globl	__ZN4core3num7dec2flt4slow19parse_long_mantissa28_$u7b$$u7b$closure$u7d$$u7d$17h688f7607e6d6e933E
	.p2align	4, 0x90
__ZN4core3num7dec2flt4slow19parse_long_mantissa28_$u7b$$u7b$closure$u7d$$u7d$17h688f7607e6d6e933E:
Lfunc_begin64:
	.loc	26 32 0
	.cfi_startproc
	pushq	%rbp
	.cfi_def_cfa_offset 16
	.cfi_offset %rbp, -16
	movq	%rsp, %rbp
	.cfi_def_cfa_register %rbp
	subq	$64, %rsp
	movq	%rsi, -56(%rbp)
	movq	%rdi, -16(%rbp)
	movq	%rsi, -8(%rbp)
Ltmp303:
	.loc	26 33 12 prologue_end
	cmpq	$19, %rsi
	jb	LBB64_2
	.loc	26 33 57 is_stmt 0
	movq	$60, -48(%rbp)
	.loc	26 33 9
	jmp	LBB64_5
LBB64_2:
	.loc	26 0 9
	movq	-56(%rbp), %rax
	.loc	26 33 29
	movq	l___unnamed_11(%rip), %rcx
	movq	%rcx, -35(%rbp)
	movq	l___unnamed_11+8(%rip), %rcx
	movq	%rcx, -27(%rbp)
	movw	l___unnamed_11+16(%rip), %cx
	movw	%cx, -19(%rbp)
	movb	l___unnamed_11+18(%rip), %cl
	movb	%cl, -17(%rbp)
	cmpq	$19, %rax
	setb	%al
	testb	$1, %al
	jne	LBB64_3
	jmp	LBB64_4
LBB64_3:
	.loc	26 0 29
	movq	-56(%rbp), %rax
	.loc	26 33 29
	movzbl	-35(%rbp,%rax), %eax
	movq	%rax, -48(%rbp)
	.loc	26 33 9
	jmp	LBB64_5
LBB64_4:
	.loc	26 0 9
	movq	-56(%rbp), %rdi
	.loc	26 33 29
	leaq	l___unnamed_12(%rip), %rdx
	movl	$19, %esi
	callq	__ZN4core9panicking18panic_bounds_check17hacb8a94866cda541E
LBB64_5:
	.loc	26 34 6 is_stmt 1
	movq	-48(%rbp), %rax
	addq	$64, %rsp
	popq	%rbp
	retq
Ltmp304:
Lfunc_end64:
	.cfi_endproc

	.globl	__ZN4core3num7dec2flt4slow19parse_long_mantissa28_$u7b$$u7b$closure$u7d$$u7d$17h815a40ca7c7abe62E
	.p2align	4, 0x90
__ZN4core3num7dec2flt4slow19parse_long_mantissa28_$u7b$$u7b$closure$u7d$$u7d$17h815a40ca7c7abe62E:
Lfunc_begin65:
	.loc	26 32 0
	.cfi_startproc
	pushq	%rbp
	.cfi_def_cfa_offset 16
	.cfi_offset %rbp, -16
	movq	%rsp, %rbp
	.cfi_def_cfa_register %rbp
	subq	$64, %rsp
	movq	%rsi, -56(%rbp)
	movq	%rdi, -16(%rbp)
	movq	%rsi, -8(%rbp)
Ltmp305:
	.loc	26 33 12 prologue_end
	cmpq	$19, %rsi
	jb	LBB65_2
	.loc	26 33 57 is_stmt 0
	movq	$60, -48(%rbp)
	.loc	26 33 9
	jmp	LBB65_5
LBB65_2:
	.loc	26 0 9
	movq	-56(%rbp), %rax
	.loc	26 33 29
	movq	l___unnamed_11(%rip), %rcx
	movq	%rcx, -35(%rbp)
	movq	l___unnamed_11+8(%rip), %rcx
	movq	%rcx, -27(%rbp)
	movw	l___unnamed_11+16(%rip), %cx
	movw	%cx, -19(%rbp)
	movb	l___unnamed_11+18(%rip), %cl
	movb	%cl, -17(%rbp)
	cmpq	$19, %rax
	setb	%al
	testb	$1, %al
	jne	LBB65_3
	jmp	LBB65_4
LBB65_3:
	.loc	26 0 29
	movq	-56(%rbp), %rax
	.loc	26 33 29
	movzbl	-35(%rbp,%rax), %eax
	movq	%rax, -48(%rbp)
	.loc	26 33 9
	jmp	LBB65_5
LBB65_4:
	.loc	26 0 9
	movq	-56(%rbp), %rdi
	.loc	26 33 29
	leaq	l___unnamed_12(%rip), %rdx
	movl	$19, %esi
	callq	__ZN4core9panicking18panic_bounds_check17hacb8a94866cda541E
LBB65_5:
	.loc	26 34 6 is_stmt 1
	movq	-48(%rbp), %rax
	addq	$64, %rsp
	popq	%rbp
	retq
Ltmp306:
Lfunc_end65:
	.cfi_endproc

	.globl	__ZN4core3num7dec2flt5parse13parse_inf_nan17h8f921e58e55cd1e0E
	.p2align	4, 0x90
__ZN4core3num7dec2flt5parse13parse_inf_nan17h8f921e58e55cd1e0E:
Lfunc_begin66:
	.file	28 "/rustc/2c8cc343237b8f7d5a3c3703e3a87f2eb2c54a74/library/core/src/num/dec2flt" "parse.rs"
	.loc	28 223 0
	.cfi_startproc
	pushq	%rbp
	.cfi_def_cfa_offset 16
	.cfi_offset %rbp, -16
	movq	%rsp, %rbp
	.cfi_def_cfa_register %rbp
	subq	$96, %rsp
	movl	%edx, %eax
	movq	%rsi, %rdx
	movq	%rdx, -96(%rbp)
	movq	%rdi, %rsi
	movb	%al, -81(%rbp)
	movq	%rsi, -32(%rbp)
	movq	%rdx, -24(%rbp)
	andb	$1, %al
	movb	%al, -9(%rbp)
Ltmp307:
	.loc	28 224 38 prologue_end
	leaq	-64(%rbp), %rdi
	callq	__ZN4core3num7dec2flt5parse21parse_partial_inf_nan17h8d5c3949d1052838E
	.loc	28 224 12 is_stmt 0
	cmpq	$1, -64(%rbp)
	jne	LBB66_2
	.loc	28 0 12
	movq	-96(%rbp), %rcx
	.loc	28 224 18
	movsd	-56(%rbp), %xmm0
	movsd	%xmm0, -40(%rbp)
	.loc	28 224 29
	movq	-48(%rbp), %rax
	movq	%rax, -8(%rbp)
	.loc	28 225 12 is_stmt 1
	cmpq	%rcx, %rax
	je	LBB66_4
	jmp	LBB66_3
Ltmp308:
LBB66_2:
	.loc	28 232 5
	movq	$0, -80(%rbp)
	.loc	28 233 2
	jmp	LBB66_7
LBB66_3:
	.loc	28 224 5
	jmp	LBB66_2
LBB66_4:
	.loc	28 0 5 is_stmt 0
	movb	-81(%rbp), %al
Ltmp309:
	.loc	28 226 16 is_stmt 1
	testb	$1, %al
	jne	LBB66_6
	jmp	LBB66_5
LBB66_5:
	.loc	28 229 25
	movsd	-40(%rbp), %xmm0
	.loc	28 229 20 is_stmt 0
	movsd	%xmm0, -72(%rbp)
	movq	$1, -80(%rbp)
Ltmp310:
	.loc	28 233 2 is_stmt 1
	jmp	LBB66_7
LBB66_6:
Ltmp311:
	.loc	28 227 26
	movsd	-40(%rbp), %xmm0
	.loc	28 227 25 is_stmt 0
	callq	__ZN45_$LT$f64$u20$as$u20$core..ops..arith..Neg$GT$3neg17he7b77e308e81a0d5E
	.loc	28 227 17
	movsd	%xmm0, -40(%rbp)
	.loc	28 226 13 is_stmt 1
	jmp	LBB66_5
Ltmp312:
LBB66_7:
	.loc	28 233 2
	movq	-80(%rbp), %rax
	movsd	-72(%rbp), %xmm0
	addq	$96, %rsp
	popq	%rbp
	retq
Ltmp313:
Lfunc_end66:
	.cfi_endproc

	.globl	__ZN4core3num7dec2flt5parse13parse_inf_nan17he31f8c3c433bfaf0E
	.p2align	4, 0x90
__ZN4core3num7dec2flt5parse13parse_inf_nan17he31f8c3c433bfaf0E:
Lfunc_begin67:
	.loc	28 223 0
	.cfi_startproc
	pushq	%rbp
	.cfi_def_cfa_offset 16
	.cfi_offset %rbp, -16
	movq	%rsp, %rbp
	.cfi_def_cfa_register %rbp
	subq	$96, %rsp
	movl	%edx, %eax
	movq	%rsi, %rdx
	movq	%rdx, -88(%rbp)
	movq	%rdi, %rsi
	movb	%al, -73(%rbp)
	movq	%rsi, -32(%rbp)
	movq	%rdx, -24(%rbp)
	andb	$1, %al
	movb	%al, -9(%rbp)
Ltmp314:
	.loc	28 224 38 prologue_end
	leaq	-64(%rbp), %rdi
	callq	__ZN4core3num7dec2flt5parse21parse_partial_inf_nan17h723b2f4619235b98E
	.loc	28 224 12 is_stmt 0
	cmpq	$1, -64(%rbp)
	jne	LBB67_2
	.loc	28 0 12
	movq	-88(%rbp), %rcx
	.loc	28 224 18
	movss	-56(%rbp), %xmm0
	movss	%xmm0, -36(%rbp)
	.loc	28 224 29
	movq	-48(%rbp), %rax
	movq	%rax, -8(%rbp)
	.loc	28 225 12 is_stmt 1
	cmpq	%rcx, %rax
	je	LBB67_4
	jmp	LBB67_3
Ltmp315:
LBB67_2:
	.loc	28 232 5
	movl	$0, -72(%rbp)
	.loc	28 233 2
	jmp	LBB67_7
LBB67_3:
	.loc	28 224 5
	jmp	LBB67_2
LBB67_4:
	.loc	28 0 5 is_stmt 0
	movb	-73(%rbp), %al
Ltmp316:
	.loc	28 226 16 is_stmt 1
	testb	$1, %al
	jne	LBB67_6
	jmp	LBB67_5
LBB67_5:
	.loc	28 229 25
	movss	-36(%rbp), %xmm0
	.loc	28 229 20 is_stmt 0
	movss	%xmm0, -68(%rbp)
	movl	$1, -72(%rbp)
Ltmp317:
	.loc	28 233 2 is_stmt 1
	jmp	LBB67_7
LBB67_6:
Ltmp318:
	.loc	28 227 26
	movss	-36(%rbp), %xmm0
	.loc	28 227 25 is_stmt 0
	callq	__ZN45_$LT$f32$u20$as$u20$core..ops..arith..Neg$GT$3neg17hc141b93b5740ed36E
	.loc	28 227 17
	movss	%xmm0, -36(%rbp)
	.loc	28 226 13 is_stmt 1
	jmp	LBB67_5
Ltmp319:
LBB67_7:
	.loc	28 233 2
	movl	-72(%rbp), %eax
	movss	-68(%rbp), %xmm0
	addq	$96, %rsp
	popq	%rbp
	retq
Ltmp320:
Lfunc_end67:
	.cfi_endproc

	.section	__TEXT,__literal4,4byte_literals
	.p2align	2
LCPI68_0:
	.long	0x7f800000
LCPI68_1:
	.long	0x7fc00000
	.section	__TEXT,__text,regular,pure_instructions
	.globl	__ZN4core3num7dec2flt5parse21parse_partial_inf_nan17h723b2f4619235b98E
	.p2align	4, 0x90
__ZN4core3num7dec2flt5parse21parse_partial_inf_nan17h723b2f4619235b98E:
Lfunc_begin68:
	.loc	28 208 0
	.cfi_startproc
	pushq	%rbp
	.cfi_def_cfa_offset 16
	.cfi_offset %rbp, -16
	movq	%rsp, %rbp
	.cfi_def_cfa_register %rbp
	subq	$80, %rsp
	movq	%rdx, -80(%rbp)
	movq	%rsi, -72(%rbp)
	movq	%rdi, -64(%rbp)
	movq	%rdi, -56(%rbp)
	movq	%rsi, -16(%rbp)
	movq	%rdx, -8(%rbp)
Ltmp321:
	.loc	28 212 8 prologue_end
	cmpq	$3, %rdx
	jae	LBB68_2
LBB68_1:
	.loc	28 0 8 is_stmt 0
	movq	-64(%rbp), %rax
	.loc	28 219 5 is_stmt 1
	movq	$0, (%rax)
	.loc	28 220 2
	jmp	LBB68_8
LBB68_2:
	.loc	28 0 2 is_stmt 0
	movq	-80(%rbp), %rsi
	movq	-72(%rbp), %rdi
	.loc	28 213 12 is_stmt 1
	leaq	l___unnamed_13(%rip), %rdx
	movl	$3, %ecx
	callq	__ZN4core3num7dec2flt6common9ByteSlice23starts_with_ignore_case17h7fb0561836c3bc82E
	testb	$1, %al
	jne	LBB68_4
	.loc	28 0 12 is_stmt 0
	movq	-80(%rbp), %rsi
	movq	-72(%rbp), %rdi
	.loc	28 215 19 is_stmt 1
	leaq	l___unnamed_14(%rip), %rdx
	movl	$3, %ecx
	callq	__ZN4core3num7dec2flt6common9ByteSlice23starts_with_ignore_case17h7fb0561836c3bc82E
	testb	$1, %al
	jne	LBB68_7
	jmp	LBB68_6
LBB68_4:
	.loc	28 0 19 is_stmt 0
	movq	-64(%rbp), %rax
	.loc	28 214 25 is_stmt 1
	movss	LCPI68_1(%rip), %xmm0
	movss	%xmm0, -48(%rbp)
	movq	$3, -40(%rbp)
	.loc	28 214 20 is_stmt 0
	movss	-48(%rbp), %xmm0
	movq	-40(%rbp), %rcx
	movss	%xmm0, 8(%rax)
	movq	%rcx, 16(%rax)
	movq	$1, (%rax)
LBB68_5:
	.loc	28 220 2 is_stmt 1
	jmp	LBB68_8
LBB68_6:
	.loc	28 212 5
	jmp	LBB68_1
LBB68_7:
	.loc	28 0 5 is_stmt 0
	movq	-80(%rbp), %rsi
	movq	-72(%rbp), %rdi
	.loc	28 216 39 is_stmt 1
	callq	__ZN4core3num7dec2flt5parse21parse_partial_inf_nan14parse_inf_rest17h81ecac827a6c4cdaE
	movq	%rax, %rcx
	movq	-64(%rbp), %rax
	.loc	28 216 25 is_stmt 0
	movss	LCPI68_0(%rip), %xmm0
	movss	%xmm0, -32(%rbp)
	movq	%rcx, -24(%rbp)
	.loc	28 216 20
	movss	-32(%rbp), %xmm0
	movq	-24(%rbp), %rcx
	movss	%xmm0, 8(%rax)
	movq	%rcx, 16(%rax)
	movq	$1, (%rax)
	.loc	27 1 1 is_stmt 1
	jmp	LBB68_5
LBB68_8:
	.loc	27 0 1 is_stmt 0
	movq	-56(%rbp), %rax
	.loc	28 220 2 is_stmt 1
	addq	$80, %rsp
	popq	%rbp
	retq
Ltmp322:
Lfunc_end68:
	.cfi_endproc

	.section	__TEXT,__literal8,8byte_literals
	.p2align	3
LCPI69_0:
	.quad	0x7ff0000000000000
LCPI69_1:
	.quad	0x7ff8000000000000
	.section	__TEXT,__text,regular,pure_instructions
	.globl	__ZN4core3num7dec2flt5parse21parse_partial_inf_nan17h8d5c3949d1052838E
	.p2align	4, 0x90
__ZN4core3num7dec2flt5parse21parse_partial_inf_nan17h8d5c3949d1052838E:
Lfunc_begin69:
	.loc	28 208 0
	.cfi_startproc
	pushq	%rbp
	.cfi_def_cfa_offset 16
	.cfi_offset %rbp, -16
	movq	%rsp, %rbp
	.cfi_def_cfa_register %rbp
	subq	$80, %rsp
	movq	%rdx, -80(%rbp)
	movq	%rsi, -72(%rbp)
	movq	%rdi, -64(%rbp)
	movq	%rdi, -56(%rbp)
	movq	%rsi, -16(%rbp)
	movq	%rdx, -8(%rbp)
Ltmp323:
	.loc	28 212 8 prologue_end
	cmpq	$3, %rdx
	jae	LBB69_2
LBB69_1:
	.loc	28 0 8 is_stmt 0
	movq	-64(%rbp), %rax
	.loc	28 219 5 is_stmt 1
	movq	$0, (%rax)
	.loc	28 220 2
	jmp	LBB69_8
LBB69_2:
	.loc	28 0 2 is_stmt 0
	movq	-80(%rbp), %rsi
	movq	-72(%rbp), %rdi
	.loc	28 213 12 is_stmt 1
	leaq	l___unnamed_13(%rip), %rdx
	movl	$3, %ecx
	callq	__ZN4core3num7dec2flt6common9ByteSlice23starts_with_ignore_case17h7fb0561836c3bc82E
	testb	$1, %al
	jne	LBB69_4
	.loc	28 0 12 is_stmt 0
	movq	-80(%rbp), %rsi
	movq	-72(%rbp), %rdi
	.loc	28 215 19 is_stmt 1
	leaq	l___unnamed_14(%rip), %rdx
	movl	$3, %ecx
	callq	__ZN4core3num7dec2flt6common9ByteSlice23starts_with_ignore_case17h7fb0561836c3bc82E
	testb	$1, %al
	jne	LBB69_7
	jmp	LBB69_6
LBB69_4:
	.loc	28 0 19 is_stmt 0
	movq	-64(%rbp), %rax
	.loc	28 214 25 is_stmt 1
	movsd	LCPI69_1(%rip), %xmm0
	movsd	%xmm0, -48(%rbp)
	movq	$3, -40(%rbp)
	.loc	28 214 20 is_stmt 0
	movsd	-48(%rbp), %xmm0
	movq	-40(%rbp), %rcx
	movsd	%xmm0, 8(%rax)
	movq	%rcx, 16(%rax)
	movq	$1, (%rax)
LBB69_5:
	.loc	28 220 2 is_stmt 1
	jmp	LBB69_8
LBB69_6:
	.loc	28 212 5
	jmp	LBB69_1
LBB69_7:
	.loc	28 0 5 is_stmt 0
	movq	-80(%rbp), %rsi
	movq	-72(%rbp), %rdi
	.loc	28 216 39 is_stmt 1
	callq	__ZN4core3num7dec2flt5parse21parse_partial_inf_nan14parse_inf_rest17h81ecac827a6c4cdaE
	movq	%rax, %rcx
	movq	-64(%rbp), %rax
	.loc	28 216 25 is_stmt 0
	movsd	LCPI69_0(%rip), %xmm0
	movsd	%xmm0, -32(%rbp)
	movq	%rcx, -24(%rbp)
	.loc	28 216 20
	movsd	-32(%rbp), %xmm0
	movq	-24(%rbp), %rcx
	movsd	%xmm0, 8(%rax)
	movq	%rcx, 16(%rax)
	movq	$1, (%rax)
	.loc	27 1 1 is_stmt 1
	jmp	LBB69_5
LBB69_8:
	.loc	27 0 1 is_stmt 0
	movq	-56(%rbp), %rax
	.loc	28 220 2 is_stmt 1
	addq	$80, %rsp
	popq	%rbp
	retq
Ltmp324:
Lfunc_end69:
	.cfi_endproc

	.p2align	4, 0x90
__ZN4core3num7dec2flt60_$LT$impl$u20$core..str..traits..FromStr$u20$for$u20$f32$GT$8from_str17h7a39130c2b8ac47aE:
Lfunc_begin70:
	.loc	24 150 0
	.cfi_startproc
	pushq	%rbp
	.cfi_def_cfa_offset 16
	.cfi_offset %rbp, -16
	movq	%rsp, %rbp
	.cfi_def_cfa_register %rbp
	subq	$32, %rsp
	movq	%rdi, -24(%rbp)
	movq	%rsi, -16(%rbp)
Ltmp325:
	.loc	24 151 17 prologue_end
	callq	__ZN4core3num7dec2flt7dec2flt17hdc6800cd3185c8ddE
	movq	%rax, -8(%rbp)
	movq	-8(%rbp), %rax
	movq	%rax, -32(%rbp)
	.loc	24 152 14
	movq	-32(%rbp), %rax
	addq	$32, %rsp
	popq	%rbp
	retq
Ltmp326:
Lfunc_end70:
	.cfi_endproc

	.p2align	4, 0x90
__ZN4core3num7dec2flt60_$LT$impl$u20$core..str..traits..FromStr$u20$for$u20$f64$GT$8from_str17h3a98c52ba8e37b05E:
Lfunc_begin71:
	.loc	24 150 0
	.cfi_startproc
	pushq	%rbp
	.cfi_def_cfa_offset 16
	.cfi_offset %rbp, -16
	movq	%rsp, %rbp
	.cfi_def_cfa_register %rbp
	subq	$32, %rsp
	movq	%rdi, %rax
	movq	%rax, -24(%rbp)
	movq	%rsi, -16(%rbp)
	movq	%rdx, -8(%rbp)
Ltmp327:
	.loc	24 151 17 prologue_end
	callq	__ZN4core3num7dec2flt7dec2flt17h532eaae2136ac2f0E
	movq	-24(%rbp), %rax
	.loc	24 152 14
	addq	$32, %rsp
	popq	%rbp
	retq
Ltmp328:
Lfunc_end71:
	.cfi_endproc

	.globl	__ZN4core3num7dec2flt6common9ByteSlice23starts_with_ignore_case17h7fb0561836c3bc82E
	.p2align	4, 0x90
__ZN4core3num7dec2flt6common9ByteSlice23starts_with_ignore_case17h7fb0561836c3bc82E:
Lfunc_begin72:
	.file	29 "/rustc/2c8cc343237b8f7d5a3c3703e3a87f2eb2c54a74/library/core/src/num/dec2flt" "common.rs"
	.loc	29 39 0
	.cfi_startproc
	pushq	%rbp
	.cfi_def_cfa_offset 16
	.cfi_offset %rbp, -16
	movq	%rsp, %rbp
	.cfi_def_cfa_register %rbp
	subq	$240, %rsp
	movq	%rdx, -240(%rbp)
	movq	%rcx, -232(%rbp)
	movq	%rdi, -88(%rbp)
	movq	%rsi, -80(%rbp)
	movq	%rdx, -72(%rbp)
	movq	%rcx, -64(%rbp)
	movq	%rdi, -16(%rbp)
	movq	%rsi, -8(%rbp)
Ltmp329:
	.loc	29 41 20 prologue_end
	movq	%rdi, -56(%rbp)
	movq	%rsi, -48(%rbp)
Ltmp330:
	.loc	15 742 9
	callq	__ZN4core5slice4iter13Iter$LT$T$GT$3new17haf1ca6d9fb1babb7E
	movq	-240(%rbp), %rdi
	movq	-232(%rbp), %rsi
	movq	%rax, -224(%rbp)
	movq	%rdx, -216(%rbp)
Ltmp331:
	.loc	29 41 45
	movq	%rdi, -40(%rbp)
	movq	%rsi, -32(%rbp)
Ltmp332:
	.loc	15 742 9
	callq	__ZN4core5slice4iter13Iter$LT$T$GT$3new17haf1ca6d9fb1babb7E
	movq	-224(%rbp), %rsi
	movq	%rax, %rcx
	movq	%rdx, %r8
	movq	-216(%rbp), %rdx
Ltmp333:
	.loc	29 41 20
	leaq	-200(%rbp), %rdi
	callq	__ZN4core4iter6traits8iterator8Iterator3zip17hd3ac416dfeafe650E
Ltmp334:
	.loc	29 42 17
	leaq	-144(%rbp), %rdi
	leaq	-200(%rbp), %rsi
	movl	$56, %edx
	callq	_memcpy
	leaq	-144(%rbp), %rdi
	xorl	%esi, %esi
	callq	__ZN4core4iter6traits8iterator8Iterator4fold17h4b122f0d610ed5dfE
	movb	%al, -202(%rbp)
	movb	%al, -17(%rbp)
Ltmp335:
	.loc	29 43 9
	cmpb	$0, %al
	jne	LBB72_2
	movb	$1, -201(%rbp)
	jmp	LBB72_3
LBB72_2:
	.loc	29 0 9 is_stmt 0
	movb	-202(%rbp), %al
	.loc	29 43 19
	cmpb	$32, %al
	sete	%al
	.loc	29 43 9
	andb	$1, %al
	movb	%al, -201(%rbp)
Ltmp336:
LBB72_3:
	.loc	29 44 6 is_stmt 1
	movb	-201(%rbp), %al
	andb	$1, %al
	movzbl	%al, %eax
	addq	$240, %rsp
	popq	%rbp
	retq
Ltmp337:
Lfunc_end72:
	.cfi_endproc

	.globl	__ZN4core3num7dec2flt6common9ByteSlice23starts_with_ignore_case28_$u7b$$u7b$closure$u7d$$u7d$17ha8cd2b194722dfa0E
	.p2align	4, 0x90
__ZN4core3num7dec2flt6common9ByteSlice23starts_with_ignore_case28_$u7b$$u7b$closure$u7d$$u7d$17ha8cd2b194722dfa0E:
Lfunc_begin73:
	.loc	29 42 0
	.cfi_startproc
	pushq	%rbp
	.cfi_def_cfa_offset 16
	.cfi_offset %rbp, -16
	movq	%rsp, %rbp
	.cfi_def_cfa_register %rbp
	subq	$32, %rsp
	movb	%sil, %al
	movq	%rdx, -32(%rbp)
	movq	%rcx, -24(%rbp)
	movq	%rdi, -16(%rbp)
	movb	%al, -3(%rbp)
Ltmp338:
	.loc	29 42 36 prologue_end
	movq	-32(%rbp), %rcx
	movb	(%rcx), %cl
	movb	%cl, -2(%rbp)
	.loc	29 42 40 is_stmt 0
	movq	-24(%rbp), %rdx
	movb	(%rdx), %dl
	movb	%dl, -1(%rbp)
Ltmp339:
	.loc	29 42 48
	xorb	%dl, %cl
	.loc	29 42 44
	orb	%cl, %al
Ltmp340:
	.loc	29 42 55
	addq	$32, %rsp
	popq	%rbp
	retq
Ltmp341:
Lfunc_end73:
	.cfi_endproc

	.globl	__ZN4core3num7dec2flt6common9ByteSlice7advance17hfce5503ac6cd1499E
	.p2align	4, 0x90
__ZN4core3num7dec2flt6common9ByteSlice7advance17hfce5503ac6cd1499E:
Lfunc_begin74:
	.loc	29 47 0 is_stmt 1
	.cfi_startproc
	pushq	%rbp
	.cfi_def_cfa_offset 16
	.cfi_offset %rbp, -16
	movq	%rsp, %rbp
	.cfi_def_cfa_register %rbp
	subq	$64, %rsp
	movq	%rdx, %rax
	movq	%rsi, %rdx
	movq	%rdi, %rsi
	movq	%rsi, -56(%rbp)
	movq	%rdx, -48(%rbp)
	movq	%rax, -40(%rbp)
	movq	%rsi, -16(%rbp)
	movq	%rdx, -8(%rbp)
Ltmp342:
	.loc	29 48 10 prologue_end
	movq	%rsi, -32(%rbp)
	movq	%rdx, -24(%rbp)
	.loc	29 48 24 is_stmt 0
	movq	%rax, -64(%rbp)
Ltmp343:
	.loc	2 18 9 is_stmt 1
	movq	-64(%rbp), %rdi
	leaq	l___unnamed_15(%rip), %rcx
	callq	__ZN110_$LT$core..ops..range..RangeFrom$LT$usize$GT$$u20$as$u20$core..slice..index..SliceIndex$LT$$u5b$T$u5d$$GT$$GT$5index17h80ce35b19bb43d06E
Ltmp344:
	.loc	29 49 6
	addq	$64, %rsp
	popq	%rbp
	retq
Ltmp345:
Lfunc_end74:
	.cfi_endproc

	.globl	__ZN4core3num7dec2flt6lemire13compute_float17h703c5f2859e19d27E
	.p2align	4, 0x90
__ZN4core3num7dec2flt6lemire13compute_float17h703c5f2859e19d27E:
Lfunc_begin75:
	.file	30 "/rustc/2c8cc343237b8f7d5a3c3703e3a87f2eb2c54a74/library/core/src/num/dec2flt" "lemire.rs"
	.loc	30 27 0
	.cfi_startproc
	pushq	%rbp
	.cfi_def_cfa_offset 16
	.cfi_offset %rbp, -16
	movq	%rsp, %rbp
	.cfi_def_cfa_register %rbp
	subq	$240, %rsp
	movq	%rdi, -208(%rbp)
	movq	%rsi, -152(%rbp)
	movq	%rdi, -104(%rbp)
Ltmp346:
	.loc	30 28 19 prologue_end
	xorl	%edi, %edi
	callq	__ZN4core3num7dec2flt6common8BiasedFp9zero_pow217hd9d409e4688b21a5E
	movq	%rax, -200(%rbp)
	movl	%edx, -188(%rbp)
	movq	%rax, -96(%rbp)
	movl	%edx, -88(%rbp)
Ltmp347:
	.loc	30 29 18
	movl	$255, %edi
	callq	__ZN4core3num7dec2flt6common8BiasedFp9zero_pow217hd9d409e4688b21a5E
	movq	%rax, -184(%rbp)
	movl	%edx, -172(%rbp)
	movq	%rax, -80(%rbp)
	movl	%edx, -72(%rbp)
Ltmp348:
	.loc	30 30 20
	movl	$4294967295, %edi
	callq	__ZN4core3num7dec2flt6common8BiasedFp9zero_pow217hd9d409e4688b21a5E
	movq	%rax, -168(%rbp)
	movl	%edx, -156(%rbp)
	movq	%rax, -64(%rbp)
	movl	%edx, -56(%rbp)
Ltmp349:
	.loc	30 33 8
	cmpq	$0, -152(%rbp)
	jne	LBB75_2
	movb	$1, -122(%rbp)
	jmp	LBB75_3
LBB75_2:
	.loc	30 0 8 is_stmt 0
	movq	-208(%rbp), %rax
	.loc	30 33 18
	cmpq	$-65, %rax
	setl	%al
	.loc	30 33 8
	andb	$1, %al
	movb	%al, -122(%rbp)
LBB75_3:
	testb	$1, -122(%rbp)
	jne	LBB75_5
	.loc	30 0 8
	movq	-208(%rbp), %rax
	.loc	30 35 15 is_stmt 1
	cmpq	$38, %rax
	jg	LBB75_8
	jmp	LBB75_7
LBB75_5:
	.loc	30 0 15 is_stmt 0
	movl	-188(%rbp), %eax
	movq	-200(%rbp), %rcx
	.loc	30 34 16 is_stmt 1
	movq	%rcx, -144(%rbp)
	movl	%eax, -136(%rbp)
LBB75_6:
	.loc	27 1 1
	jmp	LBB75_9
LBB75_7:
	.loc	27 0 1 is_stmt 0
	movq	-208(%rbp), %rdi
	.loc	30 39 14 is_stmt 1
	movq	-152(%rbp), %rax
	movq	%rax, -48(%rbp)
Ltmp350:
	.loc	17 131 13
	bsrq	%rax, %rax
	movl	$127, %ecx
	cmoveq	%rcx, %rax
	xorq	$63, %rax
	movq	%rax, -40(%rbp)
	movq	-40(%rbp), %rax
	movl	%eax, %ecx
	movl	%ecx, -228(%rbp)
	movl	%ecx, -28(%rbp)
Ltmp351:
	.loc	30 40 5
	movq	-152(%rbp), %rax
	movl	%ecx, %ecx
	andq	$63, %rcx
	shlq	%cl, %rax
	movq	%rax, -152(%rbp)
	.loc	30 41 46
	movq	-152(%rbp), %rsi
	.loc	30 41 20 is_stmt 0
	movl	$26, %edx
	callq	__ZN4core3num7dec2flt6lemire22compute_product_approx17h28295bc1e7622852E
	movq	%rax, -224(%rbp)
	movq	%rdx, -216(%rbp)
	.loc	30 41 10
	movq	%rax, -24(%rbp)
	.loc	30 41 14
	movq	%rdx, -16(%rbp)
Ltmp352:
	.loc	30 42 8 is_stmt 1
	cmpq	$-1, %rax
	je	LBB75_10
	jmp	LBB75_11
Ltmp353:
LBB75_8:
	.loc	30 0 8 is_stmt 0
	movl	-172(%rbp), %eax
	movq	-184(%rbp), %rcx
	.loc	30 36 16 is_stmt 1
	movq	%rcx, -144(%rbp)
	movl	%eax, -136(%rbp)
	.loc	27 1 1
	jmp	LBB75_6
Ltmp354:
LBB75_9:
	.loc	30 115 2
	jmp	LBB75_43
LBB75_10:
	.loc	30 0 2 is_stmt 0
	movq	-208(%rbp), %rax
Ltmp355:
	.loc	30 58 36 is_stmt 1
	cmpq	$-27, %rax
	jge	LBB75_14
	jmp	LBB75_13
LBB75_11:
	.loc	30 42 5
	jmp	LBB75_12
LBB75_12:
	.loc	30 0 5 is_stmt 0
	movq	-208(%rbp), %rax
	movq	-216(%rbp), %rdx
	.loc	30 63 20 is_stmt 1
	movq	%rdx, %rcx
	shrq	$63, %rcx
	movl	%ecx, -232(%rbp)
	movl	%ecx, -4(%rbp)
Ltmp356:
	.loc	30 64 31
	addl	$64, %ecx
	subl	$23, %ecx
	.loc	30 64 30 is_stmt 0
	subl	$3, %ecx
	.loc	30 64 24
	movl	%ecx, %ecx
	andq	$63, %rcx
	shrq	%cl, %rdx
	movq	%rdx, %rcx
	movq	%rcx, -120(%rbp)
Ltmp357:
	.loc	30 65 28 is_stmt 1
	movl	%eax, %edi
	.loc	30 65 22 is_stmt 0
	callq	__ZN4core3num7dec2flt6lemire5power17h1f9ed2a2f25e8bb8E
	movl	-232(%rbp), %edx
	movl	-228(%rbp), %ecx
	addl	%edx, %eax
	subl	%ecx, %eax
	subl	$-127, %eax
	movl	%eax, -112(%rbp)
Ltmp358:
	.loc	30 66 8 is_stmt 1
	cmpl	$0, -112(%rbp)
	jle	LBB75_20
	jmp	LBB75_19
Ltmp359:
LBB75_13:
	.loc	30 58 36
	movb	$0, -121(%rbp)
	jmp	LBB75_15
LBB75_14:
	.loc	30 0 36 is_stmt 0
	movq	-208(%rbp), %rax
	.loc	30 58 50
	cmpq	$55, %rax
	setle	%al
	.loc	30 58 36
	andb	$1, %al
	movb	%al, -121(%rbp)
LBB75_15:
Ltmp360:
	.loc	30 59 13 is_stmt 1
	movb	-121(%rbp), %al
	.loc	30 59 12 is_stmt 0
	xorb	$-1, %al
	testb	$1, %al
	jne	LBB75_17
Ltmp361:
	.loc	30 42 5 is_stmt 1
	jmp	LBB75_12
LBB75_17:
	.loc	30 0 5 is_stmt 0
	movl	-156(%rbp), %eax
	movq	-168(%rbp), %rcx
Ltmp362:
	.loc	30 60 20 is_stmt 1
	movq	%rcx, -144(%rbp)
	movl	%eax, -136(%rbp)
Ltmp363:
LBB75_18:
	.loc	27 1 1
	jmp	LBB75_9
LBB75_19:
	.loc	27 0 1 is_stmt 0
	movq	-224(%rbp), %rax
Ltmp364:
	.loc	30 89 8 is_stmt 1
	cmpq	$1, %rax
	jbe	LBB75_26
	jmp	LBB75_25
LBB75_20:
	.loc	30 67 12
	xorl	%eax, %eax
	subl	-112(%rbp), %eax
	addl	$1, %eax
	cmpl	$64, %eax
	jge	LBB75_22
	.loc	30 72 22
	xorl	%ecx, %ecx
	subl	-112(%rbp), %ecx
	addl	$1, %ecx
	.loc	30 72 9 is_stmt 0
	movq	-120(%rbp), %rax
	movl	%ecx, %ecx
	andq	$63, %rcx
	shrq	%cl, %rax
	movq	%rax, -120(%rbp)
	.loc	30 73 21 is_stmt 1
	movq	-120(%rbp), %rax
	andq	$1, %rax
	.loc	30 73 9 is_stmt 0
	addq	-120(%rbp), %rax
	movq	%rax, -120(%rbp)
	.loc	30 74 9 is_stmt 1
	movq	-120(%rbp), %rax
	shrq	$1, %rax
	movq	%rax, -120(%rbp)
	.loc	30 75 18
	cmpq	$8388608, -120(%rbp)
	setae	%al
	.loc	30 75 9 is_stmt 0
	andb	$1, %al
	movzbl	%al, %eax
	movl	%eax, -112(%rbp)
	.loc	30 76 30 is_stmt 1
	movq	-120(%rbp), %rcx
	.loc	30 76 43 is_stmt 0
	movl	-112(%rbp), %eax
	.loc	30 76 16
	movq	%rcx, -144(%rbp)
	movl	%eax, -136(%rbp)
	.loc	30 76 9
	jmp	LBB75_23
LBB75_22:
	.loc	30 0 9
	movl	-188(%rbp), %eax
	movq	-200(%rbp), %rcx
	.loc	30 69 20 is_stmt 1
	movq	%rcx, -144(%rbp)
	movl	%eax, -136(%rbp)
LBB75_23:
	.loc	27 1 1
	jmp	LBB75_24
Ltmp365:
LBB75_24:
	.loc	27 1 1 is_stmt 0
	jmp	LBB75_18
LBB75_25:
Ltmp366:
	.loc	30 89 8 is_stmt 1
	movb	$0, -105(%rbp)
	jmp	LBB75_27
LBB75_26:
	.loc	30 0 8 is_stmt 0
	movq	-208(%rbp), %rax
	.loc	30 90 12 is_stmt 1
	cmpq	$-17, %rax
	setge	%al
	.loc	30 89 8
	andb	$1, %al
	movb	%al, -105(%rbp)
LBB75_27:
	testb	$1, -105(%rbp)
	jne	LBB75_29
	movb	$0, -106(%rbp)
	jmp	LBB75_30
LBB75_29:
	.loc	30 0 8 is_stmt 0
	movq	-208(%rbp), %rax
	.loc	30 91 12 is_stmt 1
	cmpq	$10, %rax
	setle	%al
	.loc	30 89 8
	andb	$1, %al
	movb	%al, -106(%rbp)
LBB75_30:
	testb	$1, -106(%rbp)
	jne	LBB75_32
	movb	$0, -107(%rbp)
	jmp	LBB75_33
LBB75_32:
	.loc	30 92 12
	movq	-120(%rbp), %rax
	andq	$3, %rax
	cmpq	$1, %rax
	sete	%al
	.loc	30 89 8
	andb	$1, %al
	movb	%al, -107(%rbp)
LBB75_33:
	testb	$1, -107(%rbp)
	jne	LBB75_35
	movb	$0, -108(%rbp)
	jmp	LBB75_36
LBB75_35:
	.loc	30 0 8 is_stmt 0
	movl	-232(%rbp), %ecx
	.loc	30 93 13 is_stmt 1
	movq	-120(%rbp), %rax
	.loc	30 93 26 is_stmt 0
	addl	$64, %ecx
	subl	$23, %ecx
	.loc	30 93 25
	subl	$3, %ecx
	.loc	30 93 12
	movl	%ecx, %ecx
	andq	$63, %rcx
	shlq	%cl, %rax
	movq	-216(%rbp), %rcx
	cmpq	%rcx, %rax
	sete	%al
	.loc	30 89 8 is_stmt 1
	andb	$1, %al
	movb	%al, -108(%rbp)
LBB75_36:
	testb	$1, -108(%rbp)
	jne	LBB75_38
LBB75_37:
	.loc	30 99 17
	movq	-120(%rbp), %rax
	andq	$1, %rax
	.loc	30 99 5 is_stmt 0
	addq	-120(%rbp), %rax
	movq	%rax, -120(%rbp)
	.loc	30 100 5 is_stmt 1
	movq	-120(%rbp), %rax
	shrq	$1, %rax
	movq	%rax, -120(%rbp)
	.loc	30 101 8
	cmpq	$16777216, -120(%rbp)
	jae	LBB75_40
	jmp	LBB75_39
LBB75_38:
	.loc	30 96 9
	movq	-120(%rbp), %rax
	andq	$-2, %rax
	movq	%rax, -120(%rbp)
	.loc	30 89 5
	jmp	LBB75_37
LBB75_39:
	.loc	30 109 5
	movq	-120(%rbp), %rax
	andq	$-8388609, %rax
	movq	%rax, -120(%rbp)
	.loc	30 110 8
	cmpl	$255, -112(%rbp)
	jge	LBB75_42
	jmp	LBB75_41
LBB75_40:
	.loc	30 105 9
	movq	$8388608, -120(%rbp)
	.loc	30 106 9
	movl	-112(%rbp), %eax
	addl	$1, %eax
	movl	%eax, -112(%rbp)
	.loc	30 101 5
	jmp	LBB75_39
LBB75_41:
	.loc	30 114 19
	movq	-120(%rbp), %rcx
	.loc	30 114 32 is_stmt 0
	movl	-112(%rbp), %eax
	.loc	30 114 5
	movq	%rcx, -144(%rbp)
	movl	%eax, -136(%rbp)
Ltmp367:
	.loc	30 115 2 is_stmt 1
	jmp	LBB75_43
LBB75_42:
	.loc	30 0 2 is_stmt 0
	movl	-172(%rbp), %eax
	movq	-184(%rbp), %rcx
Ltmp368:
	.loc	30 112 16 is_stmt 1
	movq	%rcx, -144(%rbp)
	movl	%eax, -136(%rbp)
	.loc	27 1 1
	jmp	LBB75_24
Ltmp369:
LBB75_43:
	.loc	30 115 2
	movq	-144(%rbp), %rax
	movl	-136(%rbp), %edx
	addq	$240, %rsp
	popq	%rbp
	retq
Ltmp370:
Lfunc_end75:
	.cfi_endproc

	.globl	__ZN4core3num7dec2flt6lemire13compute_float17hd6e5ab83097f95b2E
	.p2align	4, 0x90
__ZN4core3num7dec2flt6lemire13compute_float17hd6e5ab83097f95b2E:
Lfunc_begin76:
	.loc	30 27 0
	.cfi_startproc
	pushq	%rbp
	.cfi_def_cfa_offset 16
	.cfi_offset %rbp, -16
	movq	%rsp, %rbp
	.cfi_def_cfa_register %rbp
	subq	$240, %rsp
	movq	%rdi, -208(%rbp)
	movq	%rsi, -152(%rbp)
	movq	%rdi, -104(%rbp)
Ltmp371:
	.loc	30 28 19 prologue_end
	xorl	%edi, %edi
	callq	__ZN4core3num7dec2flt6common8BiasedFp9zero_pow217hd9d409e4688b21a5E
	movq	%rax, -200(%rbp)
	movl	%edx, -188(%rbp)
	movq	%rax, -96(%rbp)
	movl	%edx, -88(%rbp)
Ltmp372:
	.loc	30 29 18
	movl	$2047, %edi
	callq	__ZN4core3num7dec2flt6common8BiasedFp9zero_pow217hd9d409e4688b21a5E
	movq	%rax, -184(%rbp)
	movl	%edx, -172(%rbp)
	movq	%rax, -80(%rbp)
	movl	%edx, -72(%rbp)
Ltmp373:
	.loc	30 30 20
	movl	$4294967295, %edi
	callq	__ZN4core3num7dec2flt6common8BiasedFp9zero_pow217hd9d409e4688b21a5E
	movq	%rax, -168(%rbp)
	movl	%edx, -156(%rbp)
	movq	%rax, -64(%rbp)
	movl	%edx, -56(%rbp)
Ltmp374:
	.loc	30 33 8
	cmpq	$0, -152(%rbp)
	jne	LBB76_2
	movb	$1, -122(%rbp)
	jmp	LBB76_3
LBB76_2:
	.loc	30 0 8 is_stmt 0
	movq	-208(%rbp), %rax
	.loc	30 33 18
	cmpq	$-342, %rax
	setl	%al
	.loc	30 33 8
	andb	$1, %al
	movb	%al, -122(%rbp)
LBB76_3:
	testb	$1, -122(%rbp)
	jne	LBB76_5
	.loc	30 0 8
	movq	-208(%rbp), %rax
	.loc	30 35 15 is_stmt 1
	cmpq	$308, %rax
	jg	LBB76_8
	jmp	LBB76_7
LBB76_5:
	.loc	30 0 15 is_stmt 0
	movl	-188(%rbp), %eax
	movq	-200(%rbp), %rcx
	.loc	30 34 16 is_stmt 1
	movq	%rcx, -144(%rbp)
	movl	%eax, -136(%rbp)
LBB76_6:
	.loc	27 1 1
	jmp	LBB76_9
LBB76_7:
	.loc	27 0 1 is_stmt 0
	movq	-208(%rbp), %rdi
	.loc	30 39 14 is_stmt 1
	movq	-152(%rbp), %rax
	movq	%rax, -48(%rbp)
Ltmp375:
	.loc	17 131 13
	bsrq	%rax, %rax
	movl	$127, %ecx
	cmoveq	%rcx, %rax
	xorq	$63, %rax
	movq	%rax, -40(%rbp)
	movq	-40(%rbp), %rax
	movl	%eax, %ecx
	movl	%ecx, -228(%rbp)
	movl	%ecx, -28(%rbp)
Ltmp376:
	.loc	30 40 5
	movq	-152(%rbp), %rax
	movl	%ecx, %ecx
	andq	$63, %rcx
	shlq	%cl, %rax
	movq	%rax, -152(%rbp)
	.loc	30 41 46
	movq	-152(%rbp), %rsi
	.loc	30 41 20 is_stmt 0
	movl	$55, %edx
	callq	__ZN4core3num7dec2flt6lemire22compute_product_approx17h28295bc1e7622852E
	movq	%rax, -224(%rbp)
	movq	%rdx, -216(%rbp)
	.loc	30 41 10
	movq	%rax, -24(%rbp)
	.loc	30 41 14
	movq	%rdx, -16(%rbp)
Ltmp377:
	.loc	30 42 8 is_stmt 1
	cmpq	$-1, %rax
	je	LBB76_10
	jmp	LBB76_11
Ltmp378:
LBB76_8:
	.loc	30 0 8 is_stmt 0
	movl	-172(%rbp), %eax
	movq	-184(%rbp), %rcx
	.loc	30 36 16 is_stmt 1
	movq	%rcx, -144(%rbp)
	movl	%eax, -136(%rbp)
	.loc	27 1 1
	jmp	LBB76_6
Ltmp379:
LBB76_9:
	.loc	30 115 2
	jmp	LBB76_43
LBB76_10:
	.loc	30 0 2 is_stmt 0
	movq	-208(%rbp), %rax
Ltmp380:
	.loc	30 58 36 is_stmt 1
	cmpq	$-27, %rax
	jge	LBB76_14
	jmp	LBB76_13
LBB76_11:
	.loc	30 42 5
	jmp	LBB76_12
LBB76_12:
	.loc	30 0 5 is_stmt 0
	movq	-208(%rbp), %rax
	movq	-216(%rbp), %rdx
	.loc	30 63 20 is_stmt 1
	movq	%rdx, %rcx
	shrq	$63, %rcx
	movl	%ecx, -232(%rbp)
	movl	%ecx, -4(%rbp)
Ltmp381:
	.loc	30 64 31
	addl	$64, %ecx
	subl	$52, %ecx
	.loc	30 64 30 is_stmt 0
	subl	$3, %ecx
	.loc	30 64 24
	movl	%ecx, %ecx
	andq	$63, %rcx
	shrq	%cl, %rdx
	movq	%rdx, %rcx
	movq	%rcx, -120(%rbp)
Ltmp382:
	.loc	30 65 28 is_stmt 1
	movl	%eax, %edi
	.loc	30 65 22 is_stmt 0
	callq	__ZN4core3num7dec2flt6lemire5power17h1f9ed2a2f25e8bb8E
	movl	-232(%rbp), %edx
	movl	-228(%rbp), %ecx
	addl	%edx, %eax
	subl	%ecx, %eax
	subl	$-1023, %eax
	movl	%eax, -112(%rbp)
Ltmp383:
	.loc	30 66 8 is_stmt 1
	cmpl	$0, -112(%rbp)
	jle	LBB76_20
	jmp	LBB76_19
Ltmp384:
LBB76_13:
	.loc	30 58 36
	movb	$0, -121(%rbp)
	jmp	LBB76_15
LBB76_14:
	.loc	30 0 36 is_stmt 0
	movq	-208(%rbp), %rax
	.loc	30 58 50
	cmpq	$55, %rax
	setle	%al
	.loc	30 58 36
	andb	$1, %al
	movb	%al, -121(%rbp)
LBB76_15:
Ltmp385:
	.loc	30 59 13 is_stmt 1
	movb	-121(%rbp), %al
	.loc	30 59 12 is_stmt 0
	xorb	$-1, %al
	testb	$1, %al
	jne	LBB76_17
Ltmp386:
	.loc	30 42 5 is_stmt 1
	jmp	LBB76_12
LBB76_17:
	.loc	30 0 5 is_stmt 0
	movl	-156(%rbp), %eax
	movq	-168(%rbp), %rcx
Ltmp387:
	.loc	30 60 20 is_stmt 1
	movq	%rcx, -144(%rbp)
	movl	%eax, -136(%rbp)
Ltmp388:
LBB76_18:
	.loc	27 1 1
	jmp	LBB76_9
LBB76_19:
	.loc	27 0 1 is_stmt 0
	movq	-224(%rbp), %rax
Ltmp389:
	.loc	30 89 8 is_stmt 1
	cmpq	$1, %rax
	jbe	LBB76_26
	jmp	LBB76_25
LBB76_20:
	.loc	30 67 12
	xorl	%eax, %eax
	subl	-112(%rbp), %eax
	addl	$1, %eax
	cmpl	$64, %eax
	jge	LBB76_22
	.loc	30 72 22
	xorl	%ecx, %ecx
	subl	-112(%rbp), %ecx
	addl	$1, %ecx
	.loc	30 72 9 is_stmt 0
	movq	-120(%rbp), %rax
	movl	%ecx, %ecx
	andq	$63, %rcx
	shrq	%cl, %rax
	movq	%rax, -120(%rbp)
	.loc	30 73 21 is_stmt 1
	movq	-120(%rbp), %rax
	andq	$1, %rax
	.loc	30 73 9 is_stmt 0
	addq	-120(%rbp), %rax
	movq	%rax, -120(%rbp)
	.loc	30 74 9 is_stmt 1
	movq	-120(%rbp), %rax
	shrq	$1, %rax
	movq	%rax, -120(%rbp)
	.loc	30 75 18
	movabsq	$4503599627370496, %rax
	cmpq	%rax, -120(%rbp)
	setae	%al
	.loc	30 75 9 is_stmt 0
	andb	$1, %al
	movzbl	%al, %eax
	movl	%eax, -112(%rbp)
	.loc	30 76 30 is_stmt 1
	movq	-120(%rbp), %rcx
	.loc	30 76 43 is_stmt 0
	movl	-112(%rbp), %eax
	.loc	30 76 16
	movq	%rcx, -144(%rbp)
	movl	%eax, -136(%rbp)
	.loc	30 76 9
	jmp	LBB76_23
LBB76_22:
	.loc	30 0 9
	movl	-188(%rbp), %eax
	movq	-200(%rbp), %rcx
	.loc	30 69 20 is_stmt 1
	movq	%rcx, -144(%rbp)
	movl	%eax, -136(%rbp)
LBB76_23:
	.loc	27 1 1
	jmp	LBB76_24
Ltmp390:
LBB76_24:
	.loc	27 1 1 is_stmt 0
	jmp	LBB76_18
LBB76_25:
Ltmp391:
	.loc	30 89 8 is_stmt 1
	movb	$0, -105(%rbp)
	jmp	LBB76_27
LBB76_26:
	.loc	30 0 8 is_stmt 0
	movq	-208(%rbp), %rax
	.loc	30 90 12 is_stmt 1
	cmpq	$-4, %rax
	setge	%al
	.loc	30 89 8
	andb	$1, %al
	movb	%al, -105(%rbp)
LBB76_27:
	testb	$1, -105(%rbp)
	jne	LBB76_29
	movb	$0, -106(%rbp)
	jmp	LBB76_30
LBB76_29:
	.loc	30 0 8 is_stmt 0
	movq	-208(%rbp), %rax
	.loc	30 91 12 is_stmt 1
	cmpq	$23, %rax
	setle	%al
	.loc	30 89 8
	andb	$1, %al
	movb	%al, -106(%rbp)
LBB76_30:
	testb	$1, -106(%rbp)
	jne	LBB76_32
	movb	$0, -107(%rbp)
	jmp	LBB76_33
LBB76_32:
	.loc	30 92 12
	movq	-120(%rbp), %rax
	andq	$3, %rax
	cmpq	$1, %rax
	sete	%al
	.loc	30 89 8
	andb	$1, %al
	movb	%al, -107(%rbp)
LBB76_33:
	testb	$1, -107(%rbp)
	jne	LBB76_35
	movb	$0, -108(%rbp)
	jmp	LBB76_36
LBB76_35:
	.loc	30 0 8 is_stmt 0
	movl	-232(%rbp), %ecx
	.loc	30 93 13 is_stmt 1
	movq	-120(%rbp), %rax
	.loc	30 93 26 is_stmt 0
	addl	$64, %ecx
	subl	$52, %ecx
	.loc	30 93 25
	subl	$3, %ecx
	.loc	30 93 12
	movl	%ecx, %ecx
	andq	$63, %rcx
	shlq	%cl, %rax
	movq	-216(%rbp), %rcx
	cmpq	%rcx, %rax
	sete	%al
	.loc	30 89 8 is_stmt 1
	andb	$1, %al
	movb	%al, -108(%rbp)
LBB76_36:
	testb	$1, -108(%rbp)
	jne	LBB76_38
LBB76_37:
	.loc	30 99 17
	movq	-120(%rbp), %rax
	andq	$1, %rax
	.loc	30 99 5 is_stmt 0
	addq	-120(%rbp), %rax
	movq	%rax, -120(%rbp)
	.loc	30 100 5 is_stmt 1
	movq	-120(%rbp), %rax
	shrq	$1, %rax
	movq	%rax, -120(%rbp)
	.loc	30 101 8
	movabsq	$9007199254740992, %rax
	cmpq	%rax, -120(%rbp)
	jae	LBB76_40
	jmp	LBB76_39
LBB76_38:
	.loc	30 96 9
	movq	-120(%rbp), %rax
	andq	$-2, %rax
	movq	%rax, -120(%rbp)
	.loc	30 89 5
	jmp	LBB76_37
LBB76_39:
	.loc	30 109 5
	movabsq	$-4503599627370497, %rax
	andq	-120(%rbp), %rax
	movq	%rax, -120(%rbp)
	.loc	30 110 8
	cmpl	$2047, -112(%rbp)
	jge	LBB76_42
	jmp	LBB76_41
LBB76_40:
	.loc	30 105 9
	movabsq	$4503599627370496, %rax
	movq	%rax, -120(%rbp)
	.loc	30 106 9
	movl	-112(%rbp), %eax
	addl	$1, %eax
	movl	%eax, -112(%rbp)
	.loc	30 101 5
	jmp	LBB76_39
LBB76_41:
	.loc	30 114 19
	movq	-120(%rbp), %rcx
	.loc	30 114 32 is_stmt 0
	movl	-112(%rbp), %eax
	.loc	30 114 5
	movq	%rcx, -144(%rbp)
	movl	%eax, -136(%rbp)
Ltmp392:
	.loc	30 115 2 is_stmt 1
	jmp	LBB76_43
LBB76_42:
	.loc	30 0 2 is_stmt 0
	movl	-172(%rbp), %eax
	movq	-184(%rbp), %rcx
Ltmp393:
	.loc	30 112 16 is_stmt 1
	movq	%rcx, -144(%rbp)
	movl	%eax, -136(%rbp)
	.loc	27 1 1
	jmp	LBB76_24
Ltmp394:
LBB76_43:
	.loc	30 115 2
	movq	-144(%rbp), %rax
	movl	-136(%rbp), %edx
	addq	$240, %rsp
	popq	%rbp
	retq
Ltmp395:
Lfunc_end76:
	.cfi_endproc

	.globl	__ZN4core3num7dec2flt6number6Number12is_fast_path17h383c83c24e6c590aE
	.p2align	4, 0x90
__ZN4core3num7dec2flt6number6Number12is_fast_path17h383c83c24e6c590aE:
Lfunc_begin77:
	.file	31 "/rustc/2c8cc343237b8f7d5a3c3703e3a87f2eb2c54a74/library/core/src/num/dec2flt" "number.rs"
	.loc	31 36 0
	.cfi_startproc
	pushq	%rbp
	.cfi_def_cfa_offset 16
	.cfi_offset %rbp, -16
	movq	%rsp, %rbp
	.cfi_def_cfa_register %rbp
	subq	$24, %rsp
	movq	%rdi, -24(%rbp)
	movq	%rdi, -8(%rbp)
Ltmp396:
	.loc	31 37 9 prologue_end
	movq	$-10, %rax
	cmpq	(%rdi), %rax
	jle	LBB77_2
	movb	$0, -9(%rbp)
	jmp	LBB77_3
LBB77_2:
	.loc	31 0 9 is_stmt 0
	movq	-24(%rbp), %rax
	.loc	31 38 16 is_stmt 1
	cmpq	$17, (%rax)
	setle	%al
	.loc	31 37 9
	andb	$1, %al
	movb	%al, -9(%rbp)
LBB77_3:
	testb	$1, -9(%rbp)
	jne	LBB77_5
	movb	$0, -10(%rbp)
	jmp	LBB77_6
LBB77_5:
	.loc	31 0 9 is_stmt 0
	movq	-24(%rbp), %rax
	.loc	31 39 16 is_stmt 1
	cmpq	$16777216, 8(%rax)
	setbe	%al
	.loc	31 37 9
	andb	$1, %al
	movb	%al, -10(%rbp)
LBB77_6:
	testb	$1, -10(%rbp)
	jne	LBB77_8
	movb	$0, -11(%rbp)
	jmp	LBB77_9
LBB77_8:
	.loc	31 0 9 is_stmt 0
	movq	-24(%rbp), %rax
	.loc	31 40 17 is_stmt 1
	movb	17(%rax), %al
	.loc	31 40 16 is_stmt 0
	xorb	$-1, %al
	.loc	31 37 9 is_stmt 1
	andb	$1, %al
	movb	%al, -11(%rbp)
LBB77_9:
	.loc	31 41 6
	movb	-11(%rbp), %al
	andb	$1, %al
	movzbl	%al, %eax
	addq	$24, %rsp
	popq	%rbp
	retq
Ltmp397:
Lfunc_end77:
	.cfi_endproc

	.globl	__ZN4core3num7dec2flt6number6Number12is_fast_path17h62f7086992cc6a13E
	.p2align	4, 0x90
__ZN4core3num7dec2flt6number6Number12is_fast_path17h62f7086992cc6a13E:
Lfunc_begin78:
	.loc	31 36 0
	.cfi_startproc
	pushq	%rbp
	.cfi_def_cfa_offset 16
	.cfi_offset %rbp, -16
	movq	%rsp, %rbp
	.cfi_def_cfa_register %rbp
	subq	$24, %rsp
	movq	%rdi, -24(%rbp)
	movq	%rdi, -8(%rbp)
Ltmp398:
	.loc	31 37 9 prologue_end
	movq	$-22, %rax
	cmpq	(%rdi), %rax
	jle	LBB78_2
	movb	$0, -9(%rbp)
	jmp	LBB78_3
LBB78_2:
	.loc	31 0 9 is_stmt 0
	movq	-24(%rbp), %rax
	.loc	31 38 16 is_stmt 1
	cmpq	$37, (%rax)
	setle	%al
	.loc	31 37 9
	andb	$1, %al
	movb	%al, -9(%rbp)
LBB78_3:
	testb	$1, -9(%rbp)
	jne	LBB78_5
	movb	$0, -10(%rbp)
	jmp	LBB78_6
LBB78_5:
	.loc	31 0 9 is_stmt 0
	movq	-24(%rbp), %rax
	.loc	31 39 16 is_stmt 1
	movabsq	$9007199254740992, %rcx
	cmpq	%rcx, 8(%rax)
	setbe	%al
	.loc	31 37 9
	andb	$1, %al
	movb	%al, -10(%rbp)
LBB78_6:
	testb	$1, -10(%rbp)
	jne	LBB78_8
	movb	$0, -11(%rbp)
	jmp	LBB78_9
LBB78_8:
	.loc	31 0 9 is_stmt 0
	movq	-24(%rbp), %rax
	.loc	31 40 17 is_stmt 1
	movb	17(%rax), %al
	.loc	31 40 16 is_stmt 0
	xorb	$-1, %al
	.loc	31 37 9 is_stmt 1
	andb	$1, %al
	movb	%al, -11(%rbp)
LBB78_9:
	.loc	31 41 6
	movb	-11(%rbp), %al
	andb	$1, %al
	movzbl	%al, %eax
	addq	$24, %rsp
	popq	%rbp
	retq
Ltmp399:
Lfunc_end78:
	.cfi_endproc

	.globl	__ZN4core3num7dec2flt6number6Number13try_fast_path17h3c2aa83b767784d0E
	.p2align	4, 0x90
__ZN4core3num7dec2flt6number6Number13try_fast_path17h3c2aa83b767784d0E:
Lfunc_begin79:
	.loc	31 52 0
	.cfi_startproc
	pushq	%rbp
	.cfi_def_cfa_offset 16
	.cfi_offset %rbp, -16
	movq	%rsp, %rbp
	.cfi_def_cfa_register %rbp
	subq	$304, %rsp
	movq	%rdi, -264(%rbp)
	movq	%rdi, -72(%rbp)
Ltmp400:
	.loc	31 58 19 prologue_end
	callq	__ZN4core3num7dec2flt3fpu13fpu_precision13set_precision17ha3dc2711bc205cb7E
	movq	-264(%rbp), %rdi
Ltmp401:
	.loc	31 60 12
	callq	__ZN4core3num7dec2flt6number6Number12is_fast_path17h62f7086992cc6a13E
	testb	$1, %al
	jne	LBB79_2
	.loc	31 83 13
	movq	$0, -256(%rbp)
	.loc	31 60 9
	jmp	LBB79_22
LBB79_2:
	.loc	31 0 9 is_stmt 0
	movq	-264(%rbp), %rax
	.loc	31 61 32 is_stmt 1
	cmpq	$22, (%rax)
	jle	LBB79_4
	.loc	31 0 32 is_stmt 0
	movq	-264(%rbp), %rax
	.loc	31 71 29 is_stmt 1
	movq	(%rax), %rcx
	subq	$22, %rcx
	movq	%rcx, -272(%rbp)
	movq	%rcx, -32(%rbp)
Ltmp402:
	.loc	31 72 32
	movq	8(%rax), %rax
	movq	%rax, -280(%rbp)
	.loc	31 72 58 is_stmt 0
	leaq	-200(%rbp), %rdi
	leaq	l___unnamed_16(%rip), %rsi
	movl	$128, %edx
	callq	_memcpy
	movq	-272(%rbp), %rax
	cmpq	$16, %rax
	setb	%al
	testb	$1, %al
	jne	LBB79_9
	jmp	LBB79_10
Ltmp403:
LBB79_4:
	.loc	31 0 58
	movq	-264(%rbp), %rax
	.loc	31 63 41 is_stmt 1
	movq	8(%rax), %rdi
	.loc	31 63 29 is_stmt 0
	callq	__ZN59_$LT$f64$u20$as$u20$core..num..dec2flt..float..RawFloat$GT$8from_u6417h505ed9c61d1235f8E
	movq	-264(%rbp), %rax
	movsd	%xmm0, -288(%rbp)
	movsd	%xmm0, -40(%rbp)
Ltmp404:
	.loc	31 64 20 is_stmt 1
	cmpq	$0, (%rax)
	jl	LBB79_6
	.loc	31 0 20 is_stmt 0
	movq	-264(%rbp), %rax
	.loc	31 67 48 is_stmt 1
	movq	(%rax), %rdi
	.loc	31 67 29 is_stmt 0
	callq	__ZN59_$LT$f64$u20$as$u20$core..num..dec2flt..float..RawFloat$GT$15pow10_fast_path17h457191cc6c7095fcE
	movaps	%xmm0, %xmm1
	movsd	-288(%rbp), %xmm0
	.loc	31 67 21
	callq	__ZN45_$LT$f64$u20$as$u20$core..ops..arith..Mul$GT$3mul17h94ae589edb17d6cfE
	movsd	%xmm0, -240(%rbp)
	.loc	31 64 17 is_stmt 1
	jmp	LBB79_7
LBB79_6:
	.loc	31 0 17 is_stmt 0
	movq	-264(%rbp), %rax
	.loc	31 65 48 is_stmt 1
	xorl	%ecx, %ecx
	movl	%ecx, %edi
	subq	(%rax), %rdi
	.loc	31 65 29 is_stmt 0
	callq	__ZN59_$LT$f64$u20$as$u20$core..num..dec2flt..float..RawFloat$GT$15pow10_fast_path17h457191cc6c7095fcE
	movaps	%xmm0, %xmm1
	movsd	-288(%rbp), %xmm0
	.loc	31 65 21
	callq	__ZN45_$LT$f64$u20$as$u20$core..ops..arith..Div$GT$3div17h40b8bb8ded67bbe7E
	movsd	%xmm0, -240(%rbp)
Ltmp405:
LBB79_7:
	.loc	31 61 29 is_stmt 1
	jmp	LBB79_8
LBB79_8:
	.loc	31 0 29 is_stmt 0
	movq	-264(%rbp), %rax
Ltmp406:
	.loc	31 78 16 is_stmt 1
	testb	$1, 16(%rax)
	jne	LBB79_21
	jmp	LBB79_20
Ltmp407:
LBB79_9:
	.loc	31 0 16 is_stmt 0
	movq	-280(%rbp), %rdi
	movq	-272(%rbp), %rax
Ltmp408:
	.loc	31 72 58 is_stmt 1
	movq	-200(%rbp,%rax,8), %rsi
	.loc	31 72 32 is_stmt 0
	callq	__ZN4core3num21_$LT$impl$u20$u64$GT$11checked_mul17hbc0ae05554e950f4E
	movq	%rdx, -208(%rbp)
	movq	%rax, -216(%rbp)
Ltmp409:
	.loc	7 2407 9 is_stmt 1
	cmpq	$0, -216(%rbp)
	je	LBB79_11
	jmp	LBB79_12
Ltmp410:
LBB79_10:
	.loc	7 0 9 is_stmt 0
	movq	-272(%rbp), %rdi
	.loc	31 72 58 is_stmt 1
	leaq	l___unnamed_17(%rip), %rdx
	movl	$16, %esi
	callq	__ZN4core9panicking18panic_bounds_check17hacb8a94866cda541E
LBB79_11:
Ltmp411:
	.loc	7 2409 21
	movq	$1, -232(%rbp)
	.loc	7 2409 44 is_stmt 0
	jmp	LBB79_13
LBB79_12:
	.loc	7 2408 18 is_stmt 1
	movq	-208(%rbp), %rax
	movq	%rax, -24(%rbp)
Ltmp412:
	.loc	7 2408 24 is_stmt 0
	movq	%rax, -224(%rbp)
	movq	$0, -232(%rbp)
Ltmp413:
LBB79_13:
	.loc	31 72 32 is_stmt 1
	cmpq	$0, -232(%rbp)
	jne	LBB79_15
	movq	-224(%rbp), %rax
	movq	%rax, -296(%rbp)
	movq	%rax, -16(%rbp)
Ltmp414:
	.loc	31 72 32 is_stmt 0
	movq	%rax, -8(%rbp)
Ltmp415:
	.loc	31 73 20 is_stmt 1
	movabsq	$9007199254740992, %rcx
	cmpq	%rcx, %rax
	ja	LBB79_18
	jmp	LBB79_17
Ltmp416:
LBB79_15:
	.loc	7 2420 21
	movq	$0, -256(%rbp)
Ltmp417:
LBB79_16:
	.loc	31 85 6
	jmp	LBB79_19
LBB79_17:
	.loc	31 0 6 is_stmt 0
	movq	-296(%rbp), %rdi
Ltmp418:
	.loc	31 76 17 is_stmt 1
	callq	__ZN59_$LT$f64$u20$as$u20$core..num..dec2flt..float..RawFloat$GT$8from_u6417h505ed9c61d1235f8E
	movsd	%xmm0, -304(%rbp)
	.loc	31 76 41 is_stmt 0
	movl	$22, %edi
	callq	__ZN59_$LT$f64$u20$as$u20$core..num..dec2flt..float..RawFloat$GT$15pow10_fast_path17h457191cc6c7095fcE
	movaps	%xmm0, %xmm1
	movsd	-304(%rbp), %xmm0
	.loc	31 76 17
	callq	__ZN45_$LT$f64$u20$as$u20$core..ops..arith..Mul$GT$3mul17h94ae589edb17d6cfE
	movsd	%xmm0, -240(%rbp)
Ltmp419:
	.loc	31 61 29 is_stmt 1
	jmp	LBB79_8
LBB79_18:
Ltmp420:
	.loc	31 74 28
	movq	$0, -256(%rbp)
	.loc	27 1 1
	jmp	LBB79_16
Ltmp421:
LBB79_19:
	.loc	31 85 6
	movq	-256(%rbp), %rax
	movsd	-248(%rbp), %xmm0
	addq	$304, %rsp
	popq	%rbp
	retq
LBB79_20:
Ltmp422:
	.loc	31 81 18
	movsd	-240(%rbp), %xmm0
	.loc	31 81 13 is_stmt 0
	movsd	%xmm0, -248(%rbp)
	movq	$1, -256(%rbp)
Ltmp423:
	.loc	31 60 9 is_stmt 1
	jmp	LBB79_22
LBB79_21:
Ltmp424:
	.loc	31 79 26
	movsd	-240(%rbp), %xmm0
	.loc	31 79 25 is_stmt 0
	callq	__ZN45_$LT$f64$u20$as$u20$core..ops..arith..Neg$GT$3neg17he7b77e308e81a0d5E
	.loc	31 79 17
	movsd	%xmm0, -240(%rbp)
	.loc	31 78 13 is_stmt 1
	jmp	LBB79_20
Ltmp425:
LBB79_22:
	.loc	31 85 6
	jmp	LBB79_19
Ltmp426:
Lfunc_end79:
	.cfi_endproc

	.globl	__ZN4core3num7dec2flt6number6Number13try_fast_path17hc98d6f9d1bfdb814E
	.p2align	4, 0x90
__ZN4core3num7dec2flt6number6Number13try_fast_path17hc98d6f9d1bfdb814E:
Lfunc_begin80:
	.loc	31 52 0
	.cfi_startproc
	pushq	%rbp
	.cfi_def_cfa_offset 16
	.cfi_offset %rbp, -16
	movq	%rsp, %rbp
	.cfi_def_cfa_register %rbp
	subq	$288, %rsp
	movq	%rdi, -248(%rbp)
	movq	%rdi, -64(%rbp)
Ltmp427:
	.loc	31 58 19 prologue_end
	callq	__ZN4core3num7dec2flt3fpu13fpu_precision13set_precision17h8a45c53a2efc2e67E
	movq	-248(%rbp), %rdi
Ltmp428:
	.loc	31 60 12
	callq	__ZN4core3num7dec2flt6number6Number12is_fast_path17h383c83c24e6c590aE
	testb	$1, %al
	jne	LBB80_2
	.loc	31 83 13
	movl	$0, -240(%rbp)
	.loc	31 60 9
	jmp	LBB80_22
LBB80_2:
	.loc	31 0 9 is_stmt 0
	movq	-248(%rbp), %rax
	.loc	31 61 32 is_stmt 1
	cmpq	$10, (%rax)
	jle	LBB80_4
	.loc	31 0 32 is_stmt 0
	movq	-248(%rbp), %rax
	.loc	31 71 29 is_stmt 1
	movq	(%rax), %rcx
	subq	$10, %rcx
	movq	%rcx, -256(%rbp)
	movq	%rcx, -32(%rbp)
Ltmp429:
	.loc	31 72 32
	movq	8(%rax), %rax
	movq	%rax, -264(%rbp)
	.loc	31 72 58 is_stmt 0
	leaq	-192(%rbp), %rdi
	leaq	l___unnamed_16(%rip), %rsi
	movl	$128, %edx
	callq	_memcpy
	movq	-256(%rbp), %rax
	cmpq	$16, %rax
	setb	%al
	testb	$1, %al
	jne	LBB80_9
	jmp	LBB80_10
Ltmp430:
LBB80_4:
	.loc	31 0 58
	movq	-248(%rbp), %rax
	.loc	31 63 41 is_stmt 1
	movq	8(%rax), %rdi
	.loc	31 63 29 is_stmt 0
	callq	__ZN59_$LT$f32$u20$as$u20$core..num..dec2flt..float..RawFloat$GT$8from_u6417hc392f1016dcac6f9E
	movq	-248(%rbp), %rax
	movss	%xmm0, -268(%rbp)
	movss	%xmm0, -36(%rbp)
Ltmp431:
	.loc	31 64 20 is_stmt 1
	cmpq	$0, (%rax)
	jl	LBB80_6
	.loc	31 0 20 is_stmt 0
	movq	-248(%rbp), %rax
	.loc	31 67 48 is_stmt 1
	movq	(%rax), %rdi
	.loc	31 67 29 is_stmt 0
	callq	__ZN59_$LT$f32$u20$as$u20$core..num..dec2flt..float..RawFloat$GT$15pow10_fast_path17h64d2ea7948862f37E
	movaps	%xmm0, %xmm1
	movss	-268(%rbp), %xmm0
	.loc	31 67 21
	callq	__ZN45_$LT$f32$u20$as$u20$core..ops..arith..Mul$GT$3mul17h2463567e790684fcE
	movss	%xmm0, -228(%rbp)
	.loc	31 64 17 is_stmt 1
	jmp	LBB80_7
LBB80_6:
	.loc	31 0 17 is_stmt 0
	movq	-248(%rbp), %rax
	.loc	31 65 48 is_stmt 1
	xorl	%ecx, %ecx
	movl	%ecx, %edi
	subq	(%rax), %rdi
	.loc	31 65 29 is_stmt 0
	callq	__ZN59_$LT$f32$u20$as$u20$core..num..dec2flt..float..RawFloat$GT$15pow10_fast_path17h64d2ea7948862f37E
	movaps	%xmm0, %xmm1
	movss	-268(%rbp), %xmm0
	.loc	31 65 21
	callq	__ZN45_$LT$f32$u20$as$u20$core..ops..arith..Div$GT$3div17hd47b090839c2e487E
	movss	%xmm0, -228(%rbp)
Ltmp432:
LBB80_7:
	.loc	31 61 29 is_stmt 1
	jmp	LBB80_8
LBB80_8:
	.loc	31 0 29 is_stmt 0
	movq	-248(%rbp), %rax
Ltmp433:
	.loc	31 78 16 is_stmt 1
	testb	$1, 16(%rax)
	jne	LBB80_21
	jmp	LBB80_20
Ltmp434:
LBB80_9:
	.loc	31 0 16 is_stmt 0
	movq	-264(%rbp), %rdi
	movq	-256(%rbp), %rax
Ltmp435:
	.loc	31 72 58 is_stmt 1
	movq	-192(%rbp,%rax,8), %rsi
	.loc	31 72 32 is_stmt 0
	callq	__ZN4core3num21_$LT$impl$u20$u64$GT$11checked_mul17hbc0ae05554e950f4E
	movq	%rdx, -200(%rbp)
	movq	%rax, -208(%rbp)
Ltmp436:
	.loc	7 2407 9 is_stmt 1
	cmpq	$0, -208(%rbp)
	je	LBB80_11
	jmp	LBB80_12
Ltmp437:
LBB80_10:
	.loc	7 0 9 is_stmt 0
	movq	-256(%rbp), %rdi
	.loc	31 72 58 is_stmt 1
	leaq	l___unnamed_17(%rip), %rdx
	movl	$16, %esi
	callq	__ZN4core9panicking18panic_bounds_check17hacb8a94866cda541E
LBB80_11:
Ltmp438:
	.loc	7 2409 21
	movq	$1, -224(%rbp)
	.loc	7 2409 44 is_stmt 0
	jmp	LBB80_13
LBB80_12:
	.loc	7 2408 18 is_stmt 1
	movq	-200(%rbp), %rax
	movq	%rax, -24(%rbp)
Ltmp439:
	.loc	7 2408 24 is_stmt 0
	movq	%rax, -216(%rbp)
	movq	$0, -224(%rbp)
Ltmp440:
LBB80_13:
	.loc	31 72 32 is_stmt 1
	cmpq	$0, -224(%rbp)
	jne	LBB80_15
	movq	-216(%rbp), %rax
	movq	%rax, -280(%rbp)
	movq	%rax, -16(%rbp)
Ltmp441:
	.loc	31 72 32 is_stmt 0
	movq	%rax, -8(%rbp)
Ltmp442:
	.loc	31 73 20 is_stmt 1
	cmpq	$16777216, %rax
	ja	LBB80_18
	jmp	LBB80_17
Ltmp443:
LBB80_15:
	.loc	7 2420 21
	movl	$0, -240(%rbp)
Ltmp444:
LBB80_16:
	.loc	31 85 6
	jmp	LBB80_19
LBB80_17:
	.loc	31 0 6 is_stmt 0
	movq	-280(%rbp), %rdi
Ltmp445:
	.loc	31 76 17 is_stmt 1
	callq	__ZN59_$LT$f32$u20$as$u20$core..num..dec2flt..float..RawFloat$GT$8from_u6417hc392f1016dcac6f9E
	movss	%xmm0, -284(%rbp)
	.loc	31 76 41 is_stmt 0
	movl	$10, %edi
	callq	__ZN59_$LT$f32$u20$as$u20$core..num..dec2flt..float..RawFloat$GT$15pow10_fast_path17h64d2ea7948862f37E
	movaps	%xmm0, %xmm1
	movss	-284(%rbp), %xmm0
	.loc	31 76 17
	callq	__ZN45_$LT$f32$u20$as$u20$core..ops..arith..Mul$GT$3mul17h2463567e790684fcE
	movss	%xmm0, -228(%rbp)
Ltmp446:
	.loc	31 61 29 is_stmt 1
	jmp	LBB80_8
LBB80_18:
Ltmp447:
	.loc	31 74 28
	movl	$0, -240(%rbp)
	.loc	27 1 1
	jmp	LBB80_16
Ltmp448:
LBB80_19:
	.loc	31 85 6
	movl	-240(%rbp), %eax
	movss	-236(%rbp), %xmm0
	addq	$288, %rsp
	popq	%rbp
	retq
LBB80_20:
Ltmp449:
	.loc	31 81 18
	movss	-228(%rbp), %xmm0
	.loc	31 81 13 is_stmt 0
	movss	%xmm0, -236(%rbp)
	movl	$1, -240(%rbp)
Ltmp450:
	.loc	31 60 9 is_stmt 1
	jmp	LBB80_22
LBB80_21:
Ltmp451:
	.loc	31 79 26
	movss	-228(%rbp), %xmm0
	.loc	31 79 25 is_stmt 0
	callq	__ZN45_$LT$f32$u20$as$u20$core..ops..arith..Neg$GT$3neg17hc141b93b5740ed36E
	.loc	31 79 17
	movss	%xmm0, -228(%rbp)
	.loc	31 78 13 is_stmt 1
	jmp	LBB80_20
Ltmp452:
LBB80_22:
	.loc	31 85 6
	jmp	LBB80_19
Ltmp453:
Lfunc_end80:
	.cfi_endproc

	.globl	__ZN4core3num7dec2flt7dec2flt17h532eaae2136ac2f0E
	.p2align	4, 0x90
__ZN4core3num7dec2flt7dec2flt17h532eaae2136ac2f0E:
Lfunc_begin81:
	.loc	24 226 0
	.cfi_startproc
	pushq	%rbp
	.cfi_def_cfa_offset 16
	.cfi_offset %rbp, -16
	movq	%rsp, %rbp
	.cfi_def_cfa_register %rbp
	subq	$352, %rsp
	movq	%rdi, -344(%rbp)
	movq	%rdi, -336(%rbp)
	movq	%rsi, -128(%rbp)
	movq	%rdx, -120(%rbp)
Ltmp454:
	.loc	24 227 17 prologue_end
	movq	%rsi, -112(%rbp)
	movq	%rdx, -104(%rbp)
Ltmp455:
	.file	32 "/rustc/2c8cc343237b8f7d5a3c3703e3a87f2eb2c54a74/library/core/src/str" "mod.rs"
	.loc	32 327 18
	movq	%rsi, -320(%rbp)
	movq	%rdx, -312(%rbp)
Ltmp456:
	.loc	24 228 31
	movq	-320(%rbp), %rcx
	movq	%rcx, -328(%rbp)
	movq	-312(%rbp), %rax
	movq	%rcx, -96(%rbp)
	movq	%rax, -88(%rbp)
Ltmp457:
	.loc	15 172 16
	cmpq	$1, %rax
	jae	LBB81_2
Ltmp458:
	.loc	15 172 58 is_stmt 0
	movq	$0, -304(%rbp)
	.loc	15 172 9
	jmp	LBB81_3
LBB81_2:
	.loc	15 0 9
	movq	-328(%rbp), %rax
Ltmp459:
	.loc	15 172 17
	movq	%rax, -80(%rbp)
	.loc	15 172 37
	movq	%rax, -304(%rbp)
Ltmp460:
LBB81_3:
	.loc	24 228 20 is_stmt 1
	movq	-304(%rbp), %rdx
	movl	$1, %eax
	xorl	%ecx, %ecx
	cmpq	$0, %rdx
	cmoveq	%rcx, %rax
	cmpq	$1, %rax
	jne	LBB81_5
	.loc	24 228 26 is_stmt 0
	movq	-304(%rbp), %rax
	movb	(%rax), %al
	movb	%al, -346(%rbp)
	movb	%al, -67(%rbp)
	.loc	24 229 9 is_stmt 1
	movb	%al, -66(%rbp)
Ltmp461:
	.loc	24 233 20
	cmpb	$45, %al
	sete	%cl
	movb	%cl, -345(%rbp)
	andb	$1, %cl
	movb	%cl, -65(%rbp)
Ltmp462:
	.loc	24 234 8
	cmpb	$45, %al
	je	LBB81_7
	jmp	LBB81_8
Ltmp463:
LBB81_5:
	.loc	24 231 20
	callq	__ZN4core3num7dec2flt9pfe_empty17h65b711c4091896cbE
	movb	%al, %cl
	movq	-344(%rbp), %rax
	.loc	24 231 16 is_stmt 0
	andb	$1, %cl
	movb	%cl, 1(%rax)
	movb	$1, (%rax)
Ltmp464:
LBB81_6:
	.loc	24 269 2 is_stmt 1
	jmp	LBB81_33
LBB81_7:
Ltmp465:
	.loc	24 234 8
	movb	$1, -289(%rbp)
	jmp	LBB81_9
LBB81_8:
	.loc	24 0 8 is_stmt 0
	movb	-346(%rbp), %al
	.loc	24 234 21
	cmpb	$43, %al
	sete	%al
	.loc	24 234 8
	andb	$1, %al
	movb	%al, -289(%rbp)
LBB81_9:
	testb	$1, -289(%rbp)
	jne	LBB81_11
LBB81_10:
	.loc	24 237 8 is_stmt 1
	movq	-320(%rbp), %rcx
	movq	-312(%rbp), %rax
	movq	%rcx, -64(%rbp)
	movq	%rax, -56(%rbp)
	cmpq	$0, %rax
	je	LBB81_12
	jmp	LBB81_13
LBB81_11:
	.loc	24 235 13
	movq	-320(%rbp), %rdi
	movq	-312(%rbp), %rsi
	movl	$1, %edx
	callq	__ZN4core3num7dec2flt6common9ByteSlice7advance17hfce5503ac6cd1499E
	.loc	24 235 9 is_stmt 0
	movq	%rax, -320(%rbp)
	movq	%rdx, -312(%rbp)
	.loc	24 234 5 is_stmt 1
	jmp	LBB81_10
LBB81_12:
	.loc	24 238 20
	callq	__ZN4core3num7dec2flt11pfe_invalid17h6187b0d3badda816E
	movb	%al, %cl
	movq	-344(%rbp), %rax
	.loc	24 238 16 is_stmt 0
	andb	$1, %cl
	movb	%cl, 1(%rax)
	movb	$1, (%rax)
	.loc	27 1 1 is_stmt 1
	jmp	LBB81_38
LBB81_13:
	.loc	27 0 1 is_stmt 0
	movb	-345(%rbp), %al
	.loc	24 241 34 is_stmt 1
	movq	-320(%rbp), %rsi
	movq	-312(%rbp), %rdx
	.loc	24 241 21 is_stmt 0
	movzbl	%al, %ecx
	andl	$1, %ecx
	leaq	-264(%rbp), %rdi
	callq	__ZN4core3num7dec2flt5parse12parse_number17hfa6ce7b57663b7e3E
	movl	$1, %eax
	xorl	%ecx, %ecx
	cmpb	$2, -248(%rbp)
	cmoveq	%rcx, %rax
	.loc	24 241 15
	cmpq	$0, %rax
	jne	LBB81_15
	.loc	24 0 15
	movb	-345(%rbp), %al
	.loc	24 243 49 is_stmt 1
	movq	-320(%rbp), %rdi
	movq	-312(%rbp), %rsi
	.loc	24 243 35 is_stmt 0
	movzbl	%al, %edx
	andl	$1, %edx
	callq	__ZN4core3num7dec2flt5parse13parse_inf_nan17h8f921e58e55cd1e0E
	movsd	%xmm0, -208(%rbp)
	movq	%rax, -216(%rbp)
	.loc	24 243 21
	cmpq	$1, -216(%rbp)
	je	LBB81_35
	jmp	LBB81_36
LBB81_15:
	.loc	24 242 14 is_stmt 1
	movq	-248(%rbp), %rax
	movq	%rax, -224(%rbp)
	movq	-264(%rbp), %rax
	movq	-256(%rbp), %rcx
	movq	%rcx, -232(%rbp)
	movq	%rax, -240(%rbp)
Ltmp466:
	.loc	24 242 20 is_stmt 0
	movq	-224(%rbp), %rax
	movq	%rax, -272(%rbp)
	movq	-240(%rbp), %rax
	movq	-232(%rbp), %rcx
	movq	%rcx, -280(%rbp)
	movq	%rax, -288(%rbp)
	leaq	-288(%rbp), %rdi
Ltmp467:
	.loc	24 246 26 is_stmt 1
	callq	__ZN4core3num7dec2flt6number6Number13try_fast_path17h3c2aa83b767784d0E
	movsd	%xmm0, -192(%rbp)
	movq	%rax, -200(%rbp)
	.loc	24 246 12 is_stmt 0
	cmpq	$1, -200(%rbp)
	jne	LBB81_17
	.loc	24 0 12
	movq	-344(%rbp), %rax
	.loc	24 246 17
	movsd	-192(%rbp), %xmm0
	movsd	%xmm0, -16(%rbp)
	.loc	24 247 16 is_stmt 1
	movsd	%xmm0, 8(%rax)
	movb	$0, (%rax)
Ltmp468:
	.loc	27 1 1
	jmp	LBB81_34
LBB81_17:
	.loc	24 254 37
	movq	-288(%rbp), %rdi
	.loc	24 254 51 is_stmt 0
	movq	-280(%rbp), %rsi
	.loc	24 254 18
	callq	__ZN4core3num7dec2flt6lemire13compute_float17hd6e5ab83097f95b2E
	movl	%edx, -176(%rbp)
	movq	%rax, -184(%rbp)
Ltmp469:
	.loc	24 255 8 is_stmt 1
	testb	$1, -271(%rbp)
	jne	LBB81_19
	movb	$0, -161(%rbp)
	jmp	LBB81_20
LBB81_19:
	.loc	24 255 27 is_stmt 0
	cmpl	$0, -176(%rbp)
	setge	%al
	.loc	24 255 8
	andb	$1, %al
	movb	%al, -161(%rbp)
LBB81_20:
	testb	$1, -161(%rbp)
	jne	LBB81_22
	movb	$0, -162(%rbp)
	jmp	LBB81_26
LBB81_22:
	.loc	24 0 8
	leaq	-184(%rbp), %rax
	.loc	24 255 40
	movq	%rax, -48(%rbp)
	.loc	24 255 65
	movq	-288(%rbp), %rdi
	.loc	24 255 79
	movq	-280(%rbp), %rsi
	incq	%rsi
	.loc	24 255 46
	callq	__ZN4core3num7dec2flt6lemire13compute_float17hd6e5ab83097f95b2E
	movl	%edx, -152(%rbp)
	movq	%rax, -160(%rbp)
	leaq	-160(%rbp), %rax
	movq	%rax, -40(%rbp)
Ltmp470:
	.loc	8 228 10 is_stmt 1
	leaq	-184(%rbp), %rax
	movq	%rax, -32(%rbp)
	.loc	8 228 18 is_stmt 0
	leaq	-160(%rbp), %rax
	movq	%rax, -24(%rbp)
Ltmp471:
	.loc	29 189 5 is_stmt 1
	movq	-184(%rbp), %rax
	cmpq	-160(%rbp), %rax
	.loc	29 191 5
	je	LBB81_24
	movb	$0, -129(%rbp)
	jmp	LBB81_25
LBB81_24:
	movl	-176(%rbp), %eax
	cmpl	-152(%rbp), %eax
	sete	%al
	andb	$1, %al
	movb	%al, -129(%rbp)
Ltmp472:
LBB81_25:
	.loc	8 228 9
	movb	-129(%rbp), %al
	xorb	$-1, %al
Ltmp473:
	.loc	24 255 8
	andb	$1, %al
	movb	%al, -162(%rbp)
LBB81_26:
	testb	$1, -162(%rbp)
	jne	LBB81_28
LBB81_27:
	.loc	24 260 8
	cmpl	$0, -176(%rbp)
	jl	LBB81_30
	jmp	LBB81_29
LBB81_28:
	.loc	24 256 9
	movl	$-1, -176(%rbp)
	.loc	24 255 5
	jmp	LBB81_27
LBB81_29:
	.loc	24 264 45
	movq	-184(%rbp), %rdi
	movl	-176(%rbp), %esi
	.loc	24 264 21 is_stmt 0
	callq	__ZN4core3num7dec2flt18biased_fp_to_float17h13e1861a153642ffE
	movsd	%xmm0, -144(%rbp)
Ltmp474:
	.loc	24 265 8 is_stmt 1
	testb	$1, -272(%rbp)
	jne	LBB81_32
	jmp	LBB81_31
Ltmp475:
LBB81_30:
	.loc	24 261 39
	movq	-320(%rbp), %rdi
	movq	-312(%rbp), %rsi
	.loc	24 261 14 is_stmt 0
	callq	__ZN4core3num7dec2flt4slow19parse_long_mantissa17h8285ac20c953a661E
	.loc	24 261 9
	movq	%rax, -184(%rbp)
	movl	%edx, -176(%rbp)
	.loc	24 260 5 is_stmt 1
	jmp	LBB81_29
LBB81_31:
	.loc	24 0 5 is_stmt 0
	movq	-344(%rbp), %rax
Ltmp476:
	.loc	24 268 8 is_stmt 1
	movsd	-144(%rbp), %xmm0
	.loc	24 268 5 is_stmt 0
	movsd	%xmm0, 8(%rax)
	movb	$0, (%rax)
Ltmp477:
	.loc	24 269 2 is_stmt 1
	jmp	LBB81_33
LBB81_32:
Ltmp478:
	.loc	24 266 18
	movsd	-144(%rbp), %xmm0
	.loc	24 266 17 is_stmt 0
	callq	__ZN45_$LT$f64$u20$as$u20$core..ops..arith..Neg$GT$3neg17he7b77e308e81a0d5E
	.loc	24 266 9
	movsd	%xmm0, -144(%rbp)
	.loc	24 265 5 is_stmt 1
	jmp	LBB81_31
Ltmp479:
LBB81_33:
	.loc	24 0 5 is_stmt 0
	movq	-336(%rbp), %rax
	.loc	24 269 2 is_stmt 1
	addq	$352, %rsp
	popq	%rbp
	retq
LBB81_34:
Ltmp480:
	.loc	27 1 1
	jmp	LBB81_38
LBB81_35:
	.loc	27 0 1 is_stmt 0
	movq	-344(%rbp), %rax
	.loc	24 243 26 is_stmt 1
	movsd	-208(%rbp), %xmm0
	movsd	%xmm0, -8(%rbp)
	.loc	24 243 72 is_stmt 0
	movsd	%xmm0, 8(%rax)
	movb	$0, (%rax)
	.loc	27 1 1 is_stmt 1
	jmp	LBB81_37
LBB81_36:
	.loc	24 244 28
	callq	__ZN4core3num7dec2flt11pfe_invalid17h6187b0d3badda816E
	movb	%al, %cl
	movq	-344(%rbp), %rax
	.loc	24 244 24 is_stmt 0
	andb	$1, %cl
	movb	%cl, 1(%rax)
	movb	$1, (%rax)
LBB81_37:
	.loc	27 1 1 is_stmt 1
	jmp	LBB81_34
Ltmp481:
LBB81_38:
	.loc	27 1 1 is_stmt 0
	jmp	LBB81_6
Ltmp482:
Lfunc_end81:
	.cfi_endproc

	.globl	__ZN4core3num7dec2flt7dec2flt17hdc6800cd3185c8ddE
	.p2align	4, 0x90
__ZN4core3num7dec2flt7dec2flt17hdc6800cd3185c8ddE:
Lfunc_begin82:
	.loc	24 226 0 is_stmt 1
	.cfi_startproc
	pushq	%rbp
	.cfi_def_cfa_offset 16
	.cfi_offset %rbp, -16
	movq	%rsp, %rbp
	.cfi_def_cfa_register %rbp
	subq	$320, %rsp
	movq	%rdi, -120(%rbp)
	movq	%rsi, -112(%rbp)
Ltmp483:
	.loc	24 227 17 prologue_end
	movq	%rdi, -104(%rbp)
	movq	%rsi, -96(%rbp)
Ltmp484:
	.loc	32 327 18
	movq	%rdi, -288(%rbp)
	movq	%rsi, -280(%rbp)
Ltmp485:
	.loc	24 228 31
	movq	-288(%rbp), %rcx
	movq	%rcx, -304(%rbp)
	movq	-280(%rbp), %rax
	movq	%rcx, -88(%rbp)
	movq	%rax, -80(%rbp)
Ltmp486:
	.loc	15 172 16
	cmpq	$1, %rax
	jae	LBB82_2
Ltmp487:
	.loc	15 172 58 is_stmt 0
	movq	$0, -272(%rbp)
	.loc	15 172 9
	jmp	LBB82_3
LBB82_2:
	.loc	15 0 9
	movq	-304(%rbp), %rax
Ltmp488:
	.loc	15 172 17
	movq	%rax, -72(%rbp)
	.loc	15 172 37
	movq	%rax, -272(%rbp)
Ltmp489:
LBB82_3:
	.loc	24 228 20 is_stmt 1
	movq	-272(%rbp), %rdx
	movl	$1, %eax
	xorl	%ecx, %ecx
	cmpq	$0, %rdx
	cmoveq	%rcx, %rax
	cmpq	$1, %rax
	jne	LBB82_5
	.loc	24 228 26 is_stmt 0
	movq	-272(%rbp), %rax
	movb	(%rax), %al
	movb	%al, -306(%rbp)
	movb	%al, -59(%rbp)
	.loc	24 229 9 is_stmt 1
	movb	%al, -58(%rbp)
Ltmp490:
	.loc	24 233 20
	cmpb	$45, %al
	sete	%cl
	movb	%cl, -305(%rbp)
	andb	$1, %cl
	movb	%cl, -57(%rbp)
Ltmp491:
	.loc	24 234 8
	cmpb	$45, %al
	je	LBB82_7
	jmp	LBB82_8
Ltmp492:
LBB82_5:
	.loc	24 231 20
	callq	__ZN4core3num7dec2flt9pfe_empty17h65b711c4091896cbE
	.loc	24 231 16 is_stmt 0
	andb	$1, %al
	movb	%al, -295(%rbp)
	movb	$1, -296(%rbp)
Ltmp493:
LBB82_6:
	.loc	24 269 2 is_stmt 1
	jmp	LBB82_33
LBB82_7:
Ltmp494:
	.loc	24 234 8
	movb	$1, -257(%rbp)
	jmp	LBB82_9
LBB82_8:
	.loc	24 0 8 is_stmt 0
	movb	-306(%rbp), %al
	.loc	24 234 21
	cmpb	$43, %al
	sete	%al
	.loc	24 234 8
	andb	$1, %al
	movb	%al, -257(%rbp)
LBB82_9:
	testb	$1, -257(%rbp)
	jne	LBB82_11
LBB82_10:
	.loc	24 237 8 is_stmt 1
	movq	-288(%rbp), %rcx
	movq	-280(%rbp), %rax
	movq	%rcx, -56(%rbp)
	movq	%rax, -48(%rbp)
	cmpq	$0, %rax
	je	LBB82_12
	jmp	LBB82_13
LBB82_11:
	.loc	24 235 13
	movq	-288(%rbp), %rdi
	movq	-280(%rbp), %rsi
	movl	$1, %edx
	callq	__ZN4core3num7dec2flt6common9ByteSlice7advance17hfce5503ac6cd1499E
	.loc	24 235 9 is_stmt 0
	movq	%rax, -288(%rbp)
	movq	%rdx, -280(%rbp)
	.loc	24 234 5 is_stmt 1
	jmp	LBB82_10
LBB82_12:
	.loc	24 238 20
	callq	__ZN4core3num7dec2flt11pfe_invalid17h6187b0d3badda816E
	.loc	24 238 16 is_stmt 0
	andb	$1, %al
	movb	%al, -295(%rbp)
	movb	$1, -296(%rbp)
	.loc	27 1 1 is_stmt 1
	jmp	LBB82_38
LBB82_13:
	.loc	27 0 1 is_stmt 0
	movb	-305(%rbp), %al
	.loc	24 241 34 is_stmt 1
	movq	-288(%rbp), %rsi
	movq	-280(%rbp), %rdx
	.loc	24 241 21 is_stmt 0
	movzbl	%al, %ecx
	andl	$1, %ecx
	leaq	-232(%rbp), %rdi
	callq	__ZN4core3num7dec2flt5parse12parse_number17hfa6ce7b57663b7e3E
	movl	$1, %eax
	xorl	%ecx, %ecx
	cmpb	$2, -216(%rbp)
	cmoveq	%rcx, %rax
	.loc	24 241 15
	cmpq	$0, %rax
	jne	LBB82_15
	.loc	24 0 15
	movb	-305(%rbp), %al
	.loc	24 243 49 is_stmt 1
	movq	-288(%rbp), %rdi
	movq	-280(%rbp), %rsi
	.loc	24 243 35 is_stmt 0
	movzbl	%al, %edx
	andl	$1, %edx
	callq	__ZN4core3num7dec2flt5parse13parse_inf_nan17he31f8c3c433bfaf0E
	movss	%xmm0, -180(%rbp)
	movl	%eax, -184(%rbp)
	.loc	24 243 21
	movl	-184(%rbp), %eax
	cmpq	$1, %rax
	je	LBB82_35
	jmp	LBB82_36
LBB82_15:
	.loc	24 242 14 is_stmt 1
	movq	-216(%rbp), %rax
	movq	%rax, -192(%rbp)
	movq	-232(%rbp), %rax
	movq	-224(%rbp), %rcx
	movq	%rcx, -200(%rbp)
	movq	%rax, -208(%rbp)
Ltmp495:
	.loc	24 242 20 is_stmt 0
	movq	-192(%rbp), %rax
	movq	%rax, -240(%rbp)
	movq	-208(%rbp), %rax
	movq	-200(%rbp), %rcx
	movq	%rcx, -248(%rbp)
	movq	%rax, -256(%rbp)
	leaq	-256(%rbp), %rdi
Ltmp496:
	.loc	24 246 26 is_stmt 1
	callq	__ZN4core3num7dec2flt6number6Number13try_fast_path17hc98d6f9d1bfdb814E
	movss	%xmm0, -172(%rbp)
	movl	%eax, -176(%rbp)
	.loc	24 246 12 is_stmt 0
	movl	-176(%rbp), %eax
	cmpq	$1, %rax
	jne	LBB82_17
	.loc	24 246 17
	movss	-172(%rbp), %xmm0
	movss	%xmm0, -8(%rbp)
	.loc	24 247 16 is_stmt 1
	movss	%xmm0, -292(%rbp)
	movb	$0, -296(%rbp)
Ltmp497:
	.loc	27 1 1
	jmp	LBB82_34
LBB82_17:
	.loc	24 254 37
	movq	-256(%rbp), %rdi
	.loc	24 254 51 is_stmt 0
	movq	-248(%rbp), %rsi
	.loc	24 254 18
	callq	__ZN4core3num7dec2flt6lemire13compute_float17h703c5f2859e19d27E
	movl	%edx, -160(%rbp)
	movq	%rax, -168(%rbp)
Ltmp498:
	.loc	24 255 8 is_stmt 1
	testb	$1, -239(%rbp)
	jne	LBB82_19
	movb	$0, -145(%rbp)
	jmp	LBB82_20
LBB82_19:
	.loc	24 255 27 is_stmt 0
	cmpl	$0, -160(%rbp)
	setge	%al
	.loc	24 255 8
	andb	$1, %al
	movb	%al, -145(%rbp)
LBB82_20:
	testb	$1, -145(%rbp)
	jne	LBB82_22
	movb	$0, -146(%rbp)
	jmp	LBB82_26
LBB82_22:
	.loc	24 0 8
	leaq	-168(%rbp), %rax
	.loc	24 255 40
	movq	%rax, -40(%rbp)
	.loc	24 255 65
	movq	-256(%rbp), %rdi
	.loc	24 255 79
	movq	-248(%rbp), %rsi
	incq	%rsi
	.loc	24 255 46
	callq	__ZN4core3num7dec2flt6lemire13compute_float17h703c5f2859e19d27E
	movl	%edx, -136(%rbp)
	movq	%rax, -144(%rbp)
	leaq	-144(%rbp), %rax
	movq	%rax, -32(%rbp)
Ltmp499:
	.loc	8 228 10 is_stmt 1
	leaq	-168(%rbp), %rax
	movq	%rax, -24(%rbp)
	.loc	8 228 18 is_stmt 0
	leaq	-144(%rbp), %rax
	movq	%rax, -16(%rbp)
Ltmp500:
	.loc	29 189 5 is_stmt 1
	movq	-168(%rbp), %rax
	cmpq	-144(%rbp), %rax
	.loc	29 191 5
	je	LBB82_24
	movb	$0, -121(%rbp)
	jmp	LBB82_25
LBB82_24:
	movl	-160(%rbp), %eax
	cmpl	-136(%rbp), %eax
	sete	%al
	andb	$1, %al
	movb	%al, -121(%rbp)
Ltmp501:
LBB82_25:
	.loc	8 228 9
	movb	-121(%rbp), %al
	xorb	$-1, %al
Ltmp502:
	.loc	24 255 8
	andb	$1, %al
	movb	%al, -146(%rbp)
LBB82_26:
	testb	$1, -146(%rbp)
	jne	LBB82_28
LBB82_27:
	.loc	24 260 8
	cmpl	$0, -160(%rbp)
	jl	LBB82_30
	jmp	LBB82_29
LBB82_28:
	.loc	24 256 9
	movl	$-1, -160(%rbp)
	.loc	24 255 5
	jmp	LBB82_27
LBB82_29:
	.loc	24 264 45
	movq	-168(%rbp), %rdi
	movl	-160(%rbp), %esi
	.loc	24 264 21 is_stmt 0
	callq	__ZN4core3num7dec2flt18biased_fp_to_float17h12268a908eaf3d34E
	movss	%xmm0, -128(%rbp)
Ltmp503:
	.loc	24 265 8 is_stmt 1
	testb	$1, -240(%rbp)
	jne	LBB82_32
	jmp	LBB82_31
Ltmp504:
LBB82_30:
	.loc	24 261 39
	movq	-288(%rbp), %rdi
	movq	-280(%rbp), %rsi
	.loc	24 261 14 is_stmt 0
	callq	__ZN4core3num7dec2flt4slow19parse_long_mantissa17h72c214cd1f404e7aE
	.loc	24 261 9
	movq	%rax, -168(%rbp)
	movl	%edx, -160(%rbp)
	.loc	24 260 5 is_stmt 1
	jmp	LBB82_29
LBB82_31:
Ltmp505:
	.loc	24 268 8
	movss	-128(%rbp), %xmm0
	.loc	24 268 5 is_stmt 0
	movss	%xmm0, -292(%rbp)
	movb	$0, -296(%rbp)
Ltmp506:
	.loc	24 269 2 is_stmt 1
	jmp	LBB82_33
LBB82_32:
Ltmp507:
	.loc	24 266 18
	movss	-128(%rbp), %xmm0
	.loc	24 266 17 is_stmt 0
	callq	__ZN45_$LT$f32$u20$as$u20$core..ops..arith..Neg$GT$3neg17hc141b93b5740ed36E
	.loc	24 266 9
	movss	%xmm0, -128(%rbp)
	.loc	24 265 5 is_stmt 1
	jmp	LBB82_31
Ltmp508:
LBB82_33:
	.loc	24 269 2
	movq	-296(%rbp), %rax
	addq	$320, %rsp
	popq	%rbp
	retq
LBB82_34:
Ltmp509:
	.loc	27 1 1
	jmp	LBB82_38
LBB82_35:
	.loc	24 243 26
	movss	-180(%rbp), %xmm0
	movss	%xmm0, -4(%rbp)
	.loc	24 243 72 is_stmt 0
	movss	%xmm0, -292(%rbp)
	movb	$0, -296(%rbp)
	.loc	27 1 1 is_stmt 1
	jmp	LBB82_37
LBB82_36:
	.loc	24 244 28
	callq	__ZN4core3num7dec2flt11pfe_invalid17h6187b0d3badda816E
	.loc	24 244 24 is_stmt 0
	andb	$1, %al
	movb	%al, -295(%rbp)
	movb	$1, -296(%rbp)
LBB82_37:
	.loc	27 1 1 is_stmt 1
	jmp	LBB82_34
Ltmp510:
LBB82_38:
	.loc	27 1 1 is_stmt 0
	jmp	LBB82_6
Ltmp511:
Lfunc_end82:
	.cfi_endproc

	.globl	__ZN4core3ops5range25RangeInclusive$LT$Idx$GT$3end17ha84f70c20534dd94E
	.p2align	4, 0x90
__ZN4core3ops5range25RangeInclusive$LT$Idx$GT$3end17ha84f70c20534dd94E:
Lfunc_begin83:
	.file	33 "/rustc/2c8cc343237b8f7d5a3c3703e3a87f2eb2c54a74/library/core/src/ops" "range.rs"
	.loc	33 424 0 is_stmt 1
	.cfi_startproc
	pushq	%rbp
	.cfi_def_cfa_offset 16
	.cfi_offset %rbp, -16
	movq	%rsp, %rbp
	.cfi_def_cfa_register %rbp
	pushq	%rax
	movq	%rdi, %rax
	movq	%rax, -8(%rbp)
Ltmp512:
	.loc	33 425 9 prologue_end
	addq	$4, %rax
	.loc	33 426 6
	addq	$8, %rsp
	popq	%rbp
	retq
Ltmp513:
Lfunc_end83:
	.cfi_endproc

	.globl	__ZN4core3ops5range25RangeInclusive$LT$Idx$GT$3end17hc8a4bc073bf8c4c0E
	.p2align	4, 0x90
__ZN4core3ops5range25RangeInclusive$LT$Idx$GT$3end17hc8a4bc073bf8c4c0E:
Lfunc_begin84:
	.loc	33 424 0
	.cfi_startproc
	pushq	%rbp
	.cfi_def_cfa_offset 16
	.cfi_offset %rbp, -16
	movq	%rsp, %rbp
	.cfi_def_cfa_register %rbp
	pushq	%rax
	movq	%rdi, %rax
	movq	%rax, -8(%rbp)
Ltmp514:
	.loc	33 425 9 prologue_end
	addq	$8, %rax
	.loc	33 426 6
	addq	$8, %rsp
	popq	%rbp
	retq
Ltmp515:
Lfunc_end84:
	.cfi_endproc

	.globl	__ZN4core3ops5range25RangeInclusive$LT$Idx$GT$3new17h234f695048d5a036E
	.p2align	4, 0x90
__ZN4core3ops5range25RangeInclusive$LT$Idx$GT$3new17h234f695048d5a036E:
Lfunc_begin85:
	.loc	33 374 0
	.cfi_startproc
	pushq	%rbp
	.cfi_def_cfa_offset 16
	.cfi_offset %rbp, -16
	movq	%rsp, %rbp
	.cfi_def_cfa_register %rbp
	pushq	%rax
	movq	%rdi, %rax
	movss	%xmm0, -8(%rbp)
	movss	%xmm1, -4(%rbp)
Ltmp516:
	.loc	33 375 9 prologue_end
	movss	%xmm0, (%rdi)
	movss	%xmm1, 4(%rdi)
	movb	$0, 8(%rdi)
	.loc	33 376 6
	addq	$8, %rsp
	popq	%rbp
	retq
Ltmp517:
Lfunc_end85:
	.cfi_endproc

	.globl	__ZN4core3ops5range25RangeInclusive$LT$Idx$GT$3new17h2f9fbd696f21a7a0E
	.p2align	4, 0x90
__ZN4core3ops5range25RangeInclusive$LT$Idx$GT$3new17h2f9fbd696f21a7a0E:
Lfunc_begin86:
	.loc	33 374 0
	.cfi_startproc
	pushq	%rbp
	.cfi_def_cfa_offset 16
	.cfi_offset %rbp, -16
	movq	%rsp, %rbp
	.cfi_def_cfa_register %rbp
	subq	$16, %rsp
	movq	%rdi, %rax
	movq	%rsi, -16(%rbp)
	movq	%rdx, -8(%rbp)
Ltmp518:
	.loc	33 375 9 prologue_end
	movq	%rsi, (%rdi)
	movq	%rdx, 8(%rdi)
	movb	$0, 16(%rdi)
	.loc	33 376 6
	addq	$16, %rsp
	popq	%rbp
	retq
Ltmp519:
Lfunc_end86:
	.cfi_endproc

	.globl	__ZN4core3ops5range25RangeInclusive$LT$Idx$GT$5start17h8756ec3a4695980eE
	.p2align	4, 0x90
__ZN4core3ops5range25RangeInclusive$LT$Idx$GT$5start17h8756ec3a4695980eE:
Lfunc_begin87:
	.loc	33 399 0
	.cfi_startproc
	pushq	%rbp
	.cfi_def_cfa_offset 16
	.cfi_offset %rbp, -16
	movq	%rsp, %rbp
	.cfi_def_cfa_register %rbp
	pushq	%rax
	movq	%rdi, %rax
	movq	%rax, -8(%rbp)
Ltmp520:
	.loc	33 401 6 prologue_end
	addq	$8, %rsp
	popq	%rbp
	retq
Ltmp521:
Lfunc_end87:
	.cfi_endproc

	.globl	__ZN4core3ops5range25RangeInclusive$LT$Idx$GT$5start17hf9e7a7e3fe4e9cd7E
	.p2align	4, 0x90
__ZN4core3ops5range25RangeInclusive$LT$Idx$GT$5start17hf9e7a7e3fe4e9cd7E:
Lfunc_begin88:
	.loc	33 399 0
	.cfi_startproc
	pushq	%rbp
	.cfi_def_cfa_offset 16
	.cfi_offset %rbp, -16
	movq	%rsp, %rbp
	.cfi_def_cfa_register %rbp
	pushq	%rax
	movq	%rdi, %rax
	movq	%rax, -8(%rbp)
Ltmp522:
	.loc	33 401 6 prologue_end
	addq	$8, %rsp
	popq	%rbp
	retq
Ltmp523:
Lfunc_end88:
	.cfi_endproc

	.p2align	4, 0x90
__ZN4core3ops8function6FnOnce9call_once17h074946f356fbd92dE:
Lfunc_begin89:
	.file	34 "/rustc/2c8cc343237b8f7d5a3c3703e3a87f2eb2c54a74/library/core/src/ops" "function.rs"
	.loc	34 250 0
	.cfi_startproc
	.cfi_personality 155, _rust_eh_personality
	.cfi_lsda 16, Lexception6
	pushq	%rbp
	.cfi_def_cfa_offset 16
	.cfi_offset %rbp, -16
	movq	%rsp, %rbp
	.cfi_def_cfa_register %rbp
	subq	$32, %rsp
Ltmp524:
	leaq	-32(%rbp), %rdi
Ltmp527:
	.loc	34 250 5 prologue_end
	callq	__ZN5emath4rect1_28_$u7b$$u7b$closure$u7d$$u7d$17h24903c98b3bc3ea5E
Ltmp525:
	jmp	LBB89_3
LBB89_1:
	movq	-16(%rbp), %rdi
	callq	__Unwind_Resume
LBB89_2:
Ltmp526:
	.loc	34 0 5 is_stmt 0
	movq	%rax, %rcx
	movl	%edx, %eax
	movq	%rcx, -16(%rbp)
	movl	%eax, -8(%rbp)
	jmp	LBB89_1
LBB89_3:
	.loc	34 250 5
	addq	$32, %rsp
	popq	%rbp
	retq
Ltmp528:
Lfunc_end89:
	.cfi_endproc
	.section	__TEXT,__gcc_except_tab
	.p2align	2
GCC_except_table89:
Lexception6:
	.byte	255
	.byte	255
	.byte	1
	.uleb128 Lcst_end6-Lcst_begin6
Lcst_begin6:
	.uleb128 Ltmp524-Lfunc_begin89
	.uleb128 Ltmp525-Ltmp524
	.uleb128 Ltmp526-Lfunc_begin89
	.byte	0
	.uleb128 Ltmp525-Lfunc_begin89
	.uleb128 Lfunc_end89-Ltmp525
	.byte	0
	.byte	0
Lcst_end6:
	.p2align	2

	.section	__TEXT,__text,regular,pure_instructions
	.p2align	4, 0x90
__ZN4core3ops8function6FnOnce9call_once17h2248bd873ce1b12dE:
Lfunc_begin90:
	.loc	34 250 0 is_stmt 1
	.cfi_startproc
	.cfi_personality 155, _rust_eh_personality
	.cfi_lsda 16, Lexception7
	pushq	%rbp
	.cfi_def_cfa_offset 16
	.cfi_offset %rbp, -16
	movq	%rsp, %rbp
	.cfi_def_cfa_register %rbp
	subq	$32, %rsp
Ltmp529:
	leaq	-32(%rbp), %rdi
Ltmp532:
	.loc	34 250 5 prologue_end
	callq	__ZN5emath4pos21_28_$u7b$$u7b$closure$u7d$$u7d$17h0daf061cfdba7482E
Ltmp530:
	jmp	LBB90_3
LBB90_1:
	movq	-16(%rbp), %rdi
	callq	__Unwind_Resume
LBB90_2:
Ltmp531:
	.loc	34 0 5 is_stmt 0
	movq	%rax, %rcx
	movl	%edx, %eax
	movq	%rcx, -16(%rbp)
	movl	%eax, -8(%rbp)
	jmp	LBB90_1
LBB90_3:
	.loc	34 250 5
	addq	$32, %rsp
	popq	%rbp
	retq
Ltmp533:
Lfunc_end90:
	.cfi_endproc
	.section	__TEXT,__gcc_except_tab
	.p2align	2
GCC_except_table90:
Lexception7:
	.byte	255
	.byte	255
	.byte	1
	.uleb128 Lcst_end7-Lcst_begin7
Lcst_begin7:
	.uleb128 Ltmp529-Lfunc_begin90
	.uleb128 Ltmp530-Ltmp529
	.uleb128 Ltmp531-Lfunc_begin90
	.byte	0
	.uleb128 Ltmp530-Lfunc_begin90
	.uleb128 Lfunc_end90-Ltmp530
	.byte	0
	.byte	0
Lcst_end7:
	.p2align	2

	.section	__TEXT,__text,regular,pure_instructions
	.p2align	4, 0x90
__ZN4core3ops8function6FnOnce9call_once17h22798b9ebdddacb1E:
Lfunc_begin91:
	.loc	34 250 0 is_stmt 1
	.cfi_startproc
	.cfi_personality 155, _rust_eh_personality
	.cfi_lsda 16, Lexception8
	pushq	%rbp
	.cfi_def_cfa_offset 16
	.cfi_offset %rbp, -16
	movq	%rsp, %rbp
	.cfi_def_cfa_register %rbp
	subq	$32, %rsp
Ltmp534:
	leaq	-32(%rbp), %rdi
Ltmp537:
	.loc	34 250 5 prologue_end
	callq	__ZN5emath4rot21_28_$u7b$$u7b$closure$u7d$$u7d$17hee17754e2dcc17d0E
Ltmp535:
	jmp	LBB91_3
LBB91_1:
	movq	-16(%rbp), %rdi
	callq	__Unwind_Resume
LBB91_2:
Ltmp536:
	.loc	34 0 5 is_stmt 0
	movq	%rax, %rcx
	movl	%edx, %eax
	movq	%rcx, -16(%rbp)
	movl	%eax, -8(%rbp)
	jmp	LBB91_1
LBB91_3:
	.loc	34 250 5
	addq	$32, %rsp
	popq	%rbp
	retq
Ltmp538:
Lfunc_end91:
	.cfi_endproc
	.section	__TEXT,__gcc_except_tab
	.p2align	2
GCC_except_table91:
Lexception8:
	.byte	255
	.byte	255
	.byte	1
	.uleb128 Lcst_end8-Lcst_begin8
Lcst_begin8:
	.uleb128 Ltmp534-Lfunc_begin91
	.uleb128 Ltmp535-Ltmp534
	.uleb128 Ltmp536-Lfunc_begin91
	.byte	0
	.uleb128 Ltmp535-Lfunc_begin91
	.uleb128 Lfunc_end91-Ltmp535
	.byte	0
	.byte	0
Lcst_end8:
	.p2align	2

	.section	__TEXT,__text,regular,pure_instructions
	.p2align	4, 0x90
__ZN4core3ops8function6FnOnce9call_once17h45a6a0c610dfc794E:
Lfunc_begin92:
	.loc	34 250 0 is_stmt 1
	.cfi_startproc
	.cfi_personality 155, _rust_eh_personality
	.cfi_lsda 16, Lexception9
	pushq	%rbp
	.cfi_def_cfa_offset 16
	.cfi_offset %rbp, -16
	movq	%rsp, %rbp
	.cfi_def_cfa_register %rbp
	subq	$32, %rsp
Ltmp539:
	leaq	-32(%rbp), %rdi
Ltmp542:
	.loc	34 250 5 prologue_end
	callq	__ZN5emath4pos21_28_$u7b$$u7b$closure$u7d$$u7d$17h3d65931a69c562a3E
Ltmp540:
	jmp	LBB92_3
LBB92_1:
	movq	-16(%rbp), %rdi
	callq	__Unwind_Resume
LBB92_2:
Ltmp541:
	.loc	34 0 5 is_stmt 0
	movq	%rax, %rcx
	movl	%edx, %eax
	movq	%rcx, -16(%rbp)
	movl	%eax, -8(%rbp)
	jmp	LBB92_1
LBB92_3:
	.loc	34 250 5
	addq	$32, %rsp
	popq	%rbp
	retq
Ltmp543:
Lfunc_end92:
	.cfi_endproc
	.section	__TEXT,__gcc_except_tab
	.p2align	2
GCC_except_table92:
Lexception9:
	.byte	255
	.byte	255
	.byte	1
	.uleb128 Lcst_end9-Lcst_begin9
Lcst_begin9:
	.uleb128 Ltmp539-Lfunc_begin92
	.uleb128 Ltmp540-Ltmp539
	.uleb128 Ltmp541-Lfunc_begin92
	.byte	0
	.uleb128 Ltmp540-Lfunc_begin92
	.uleb128 Lfunc_end92-Ltmp540
	.byte	0
	.byte	0
Lcst_end9:
	.p2align	2

	.section	__TEXT,__text,regular,pure_instructions
	.p2align	4, 0x90
__ZN4core3ops8function6FnOnce9call_once17h4a4934da25991034E:
Lfunc_begin93:
	.loc	34 250 0 is_stmt 1
	.cfi_startproc
	.cfi_personality 155, _rust_eh_personality
	.cfi_lsda 16, Lexception10
	pushq	%rbp
	.cfi_def_cfa_offset 16
	.cfi_offset %rbp, -16
	movq	%rsp, %rbp
	.cfi_def_cfa_register %rbp
	subq	$32, %rsp
Ltmp544:
	leaq	-32(%rbp), %rdi
Ltmp547:
	.loc	34 250 5 prologue_end
	callq	__ZN5emath4vec21_28_$u7b$$u7b$closure$u7d$$u7d$17h65825d9a7d70d8a8E
Ltmp545:
	jmp	LBB93_3
LBB93_1:
	movq	-16(%rbp), %rdi
	callq	__Unwind_Resume
LBB93_2:
Ltmp546:
	.loc	34 0 5 is_stmt 0
	movq	%rax, %rcx
	movl	%edx, %eax
	movq	%rcx, -16(%rbp)
	movl	%eax, -8(%rbp)
	jmp	LBB93_1
LBB93_3:
	.loc	34 250 5
	addq	$32, %rsp
	popq	%rbp
	retq
Ltmp548:
Lfunc_end93:
	.cfi_endproc
	.section	__TEXT,__gcc_except_tab
	.p2align	2
GCC_except_table93:
Lexception10:
	.byte	255
	.byte	255
	.byte	1
	.uleb128 Lcst_end10-Lcst_begin10
Lcst_begin10:
	.uleb128 Ltmp544-Lfunc_begin93
	.uleb128 Ltmp545-Ltmp544
	.uleb128 Ltmp546-Lfunc_begin93
	.byte	0
	.uleb128 Ltmp545-Lfunc_begin93
	.uleb128 Lfunc_end93-Ltmp545
	.byte	0
	.byte	0
Lcst_end10:
	.p2align	2

	.section	__TEXT,__text,regular,pure_instructions
	.p2align	4, 0x90
__ZN4core3ops8function6FnOnce9call_once17h555911ac7005a1daE:
Lfunc_begin94:
	.loc	34 250 0 is_stmt 1
	.cfi_startproc
	.cfi_personality 155, _rust_eh_personality
	.cfi_lsda 16, Lexception11
	pushq	%rbp
	.cfi_def_cfa_offset 16
	.cfi_offset %rbp, -16
	movq	%rsp, %rbp
	.cfi_def_cfa_register %rbp
	subq	$32, %rsp
Ltmp549:
	leaq	-32(%rbp), %rdi
Ltmp552:
	.loc	34 250 5 prologue_end
	callq	__ZN5emath4rect1_28_$u7b$$u7b$closure$u7d$$u7d$17h1c6f1e9f204f7193E
Ltmp550:
	jmp	LBB94_3
LBB94_1:
	movq	-16(%rbp), %rdi
	callq	__Unwind_Resume
LBB94_2:
Ltmp551:
	.loc	34 0 5 is_stmt 0
	movq	%rax, %rcx
	movl	%edx, %eax
	movq	%rcx, -16(%rbp)
	movl	%eax, -8(%rbp)
	jmp	LBB94_1
LBB94_3:
	.loc	34 250 5
	addq	$32, %rsp
	popq	%rbp
	retq
Ltmp553:
Lfunc_end94:
	.cfi_endproc
	.section	__TEXT,__gcc_except_tab
	.p2align	2
GCC_except_table94:
Lexception11:
	.byte	255
	.byte	255
	.byte	1
	.uleb128 Lcst_end11-Lcst_begin11
Lcst_begin11:
	.uleb128 Ltmp549-Lfunc_begin94
	.uleb128 Ltmp550-Ltmp549
	.uleb128 Ltmp551-Lfunc_begin94
	.byte	0
	.uleb128 Ltmp550-Lfunc_begin94
	.uleb128 Lfunc_end94-Ltmp550
	.byte	0
	.byte	0
Lcst_end11:
	.p2align	2

	.section	__TEXT,__text,regular,pure_instructions
	.p2align	4, 0x90
__ZN4core3ops8function6FnOnce9call_once17h58b8c259e6dd006fE:
Lfunc_begin95:
	.loc	34 250 0 is_stmt 1
	.cfi_startproc
	.cfi_personality 155, _rust_eh_personality
	.cfi_lsda 16, Lexception12
	pushq	%rbp
	.cfi_def_cfa_offset 16
	.cfi_offset %rbp, -16
	movq	%rsp, %rbp
	.cfi_def_cfa_register %rbp
	subq	$32, %rsp
Ltmp554:
	leaq	-32(%rbp), %rdi
Ltmp557:
	.loc	34 250 5 prologue_end
	callq	__ZN5emath4rot21_28_$u7b$$u7b$closure$u7d$$u7d$17h915da08af0c6bc39E
Ltmp555:
	jmp	LBB95_3
LBB95_1:
	movq	-16(%rbp), %rdi
	callq	__Unwind_Resume
LBB95_2:
Ltmp556:
	.loc	34 0 5 is_stmt 0
	movq	%rax, %rcx
	movl	%edx, %eax
	movq	%rcx, -16(%rbp)
	movl	%eax, -8(%rbp)
	jmp	LBB95_1
LBB95_3:
	.loc	34 250 5
	addq	$32, %rsp
	popq	%rbp
	retq
Ltmp558:
Lfunc_end95:
	.cfi_endproc
	.section	__TEXT,__gcc_except_tab
	.p2align	2
GCC_except_table95:
Lexception12:
	.byte	255
	.byte	255
	.byte	1
	.uleb128 Lcst_end12-Lcst_begin12
Lcst_begin12:
	.uleb128 Ltmp554-Lfunc_begin95
	.uleb128 Ltmp555-Ltmp554
	.uleb128 Ltmp556-Lfunc_begin95
	.byte	0
	.uleb128 Ltmp555-Lfunc_begin95
	.uleb128 Lfunc_end95-Ltmp555
	.byte	0
	.byte	0
Lcst_end12:
	.p2align	2

	.section	__TEXT,__text,regular,pure_instructions
	.p2align	4, 0x90
__ZN4core3ops8function6FnOnce9call_once17h6ed4fc620e594521E:
Lfunc_begin96:
	.loc	34 250 0 is_stmt 1
	.cfi_startproc
	.cfi_personality 155, _rust_eh_personality
	.cfi_lsda 16, Lexception13
	pushq	%rbp
	.cfi_def_cfa_offset 16
	.cfi_offset %rbp, -16
	movq	%rsp, %rbp
	.cfi_def_cfa_register %rbp
	subq	$32, %rsp
Ltmp559:
	leaq	-32(%rbp), %rdi
Ltmp562:
	.loc	34 250 5 prologue_end
	callq	__ZN5emath4rot21_28_$u7b$$u7b$closure$u7d$$u7d$17h10fc85c28e1364b8E
Ltmp560:
	jmp	LBB96_3
LBB96_1:
	movq	-16(%rbp), %rdi
	callq	__Unwind_Resume
LBB96_2:
Ltmp561:
	.loc	34 0 5 is_stmt 0
	movq	%rax, %rcx
	movl	%edx, %eax
	movq	%rcx, -16(%rbp)
	movl	%eax, -8(%rbp)
	jmp	LBB96_1
LBB96_3:
	.loc	34 250 5
	addq	$32, %rsp
	popq	%rbp
	retq
Ltmp563:
Lfunc_end96:
	.cfi_endproc
	.section	__TEXT,__gcc_except_tab
	.p2align	2
GCC_except_table96:
Lexception13:
	.byte	255
	.byte	255
	.byte	1
	.uleb128 Lcst_end13-Lcst_begin13
Lcst_begin13:
	.uleb128 Ltmp559-Lfunc_begin96
	.uleb128 Ltmp560-Ltmp559
	.uleb128 Ltmp561-Lfunc_begin96
	.byte	0
	.uleb128 Ltmp560-Lfunc_begin96
	.uleb128 Lfunc_end96-Ltmp560
	.byte	0
	.byte	0
Lcst_end13:
	.p2align	2

	.section	__TEXT,__text,regular,pure_instructions
	.p2align	4, 0x90
__ZN4core3ops8function6FnOnce9call_once17h70475a39c1c64219E:
Lfunc_begin97:
	.loc	34 250 0 is_stmt 1
	.cfi_startproc
	.cfi_personality 155, _rust_eh_personality
	.cfi_lsda 16, Lexception14
	pushq	%rbp
	.cfi_def_cfa_offset 16
	.cfi_offset %rbp, -16
	movq	%rsp, %rbp
	.cfi_def_cfa_register %rbp
	subq	$32, %rsp
Ltmp564:
	leaq	-32(%rbp), %rdi
Ltmp567:
	.loc	34 250 5 prologue_end
	callq	__ZN5emath4pos21_28_$u7b$$u7b$closure$u7d$$u7d$17hbc85c36997722d6cE
Ltmp565:
	jmp	LBB97_3
LBB97_1:
	movq	-16(%rbp), %rdi
	callq	__Unwind_Resume
LBB97_2:
Ltmp566:
	.loc	34 0 5 is_stmt 0
	movq	%rax, %rcx
	movl	%edx, %eax
	movq	%rcx, -16(%rbp)
	movl	%eax, -8(%rbp)
	jmp	LBB97_1
LBB97_3:
	.loc	34 250 5
	addq	$32, %rsp
	popq	%rbp
	retq
Ltmp568:
Lfunc_end97:
	.cfi_endproc
	.section	__TEXT,__gcc_except_tab
	.p2align	2
GCC_except_table97:
Lexception14:
	.byte	255
	.byte	255
	.byte	1
	.uleb128 Lcst_end14-Lcst_begin14
Lcst_begin14:
	.uleb128 Ltmp564-Lfunc_begin97
	.uleb128 Ltmp565-Ltmp564
	.uleb128 Ltmp566-Lfunc_begin97
	.byte	0
	.uleb128 Ltmp565-Lfunc_begin97
	.uleb128 Lfunc_end97-Ltmp565
	.byte	0
	.byte	0
Lcst_end14:
	.p2align	2

	.section	__TEXT,__text,regular,pure_instructions
	.p2align	4, 0x90
__ZN4core3ops8function6FnOnce9call_once17h719cb1a622c531aeE:
Lfunc_begin98:
	.loc	34 250 0 is_stmt 1
	.cfi_startproc
	.cfi_personality 155, _rust_eh_personality
	.cfi_lsda 16, Lexception15
	pushq	%rbp
	.cfi_def_cfa_offset 16
	.cfi_offset %rbp, -16
	movq	%rsp, %rbp
	.cfi_def_cfa_register %rbp
	subq	$32, %rsp
Ltmp569:
	leaq	-32(%rbp), %rdi
Ltmp572:
	.loc	34 250 5 prologue_end
	callq	__ZN5emath14rect_transform1_28_$u7b$$u7b$closure$u7d$$u7d$17h71315eccc068a39aE
Ltmp570:
	jmp	LBB98_3
LBB98_1:
	movq	-16(%rbp), %rdi
	callq	__Unwind_Resume
LBB98_2:
Ltmp571:
	.loc	34 0 5 is_stmt 0
	movq	%rax, %rcx
	movl	%edx, %eax
	movq	%rcx, -16(%rbp)
	movl	%eax, -8(%rbp)
	jmp	LBB98_1
LBB98_3:
	.loc	34 250 5
	addq	$32, %rsp
	popq	%rbp
	retq
Ltmp573:
Lfunc_end98:
	.cfi_endproc
	.section	__TEXT,__gcc_except_tab
	.p2align	2
GCC_except_table98:
Lexception15:
	.byte	255
	.byte	255
	.byte	1
	.uleb128 Lcst_end15-Lcst_begin15
Lcst_begin15:
	.uleb128 Ltmp569-Lfunc_begin98
	.uleb128 Ltmp570-Ltmp569
	.uleb128 Ltmp571-Lfunc_begin98
	.byte	0
	.uleb128 Ltmp570-Lfunc_begin98
	.uleb128 Lfunc_end98-Ltmp570
	.byte	0
	.byte	0
Lcst_end15:
	.p2align	2

	.section	__TEXT,__text,regular,pure_instructions
	.p2align	4, 0x90
__ZN4core3ops8function6FnOnce9call_once17h7a98b91068f3b0d7E:
Lfunc_begin99:
	.loc	34 250 0 is_stmt 1
	.cfi_startproc
	.cfi_personality 155, _rust_eh_personality
	.cfi_lsda 16, Lexception16
	pushq	%rbp
	.cfi_def_cfa_offset 16
	.cfi_offset %rbp, -16
	movq	%rsp, %rbp
	.cfi_def_cfa_register %rbp
	subq	$32, %rsp
Ltmp574:
	leaq	-32(%rbp), %rdi
Ltmp577:
	.loc	34 250 5 prologue_end
	callq	__ZN5emath4pos21_28_$u7b$$u7b$closure$u7d$$u7d$17h13a51a57267f7148E
Ltmp575:
	jmp	LBB99_3
LBB99_1:
	movq	-16(%rbp), %rdi
	callq	__Unwind_Resume
LBB99_2:
Ltmp576:
	.loc	34 0 5 is_stmt 0
	movq	%rax, %rcx
	movl	%edx, %eax
	movq	%rcx, -16(%rbp)
	movl	%eax, -8(%rbp)
	jmp	LBB99_1
LBB99_3:
	.loc	34 250 5
	addq	$32, %rsp
	popq	%rbp
	retq
Ltmp578:
Lfunc_end99:
	.cfi_endproc
	.section	__TEXT,__gcc_except_tab
	.p2align	2
GCC_except_table99:
Lexception16:
	.byte	255
	.byte	255
	.byte	1
	.uleb128 Lcst_end16-Lcst_begin16
Lcst_begin16:
	.uleb128 Ltmp574-Lfunc_begin99
	.uleb128 Ltmp575-Ltmp574
	.uleb128 Ltmp576-Lfunc_begin99
	.byte	0
	.uleb128 Ltmp575-Lfunc_begin99
	.uleb128 Lfunc_end99-Ltmp575
	.byte	0
	.byte	0
Lcst_end16:
	.p2align	2

	.section	__TEXT,__text,regular,pure_instructions
	.p2align	4, 0x90
__ZN4core3ops8function6FnOnce9call_once17h835b77209bc8bd33E:
Lfunc_begin100:
	.loc	34 250 0 is_stmt 1
	.cfi_startproc
	.cfi_personality 155, _rust_eh_personality
	.cfi_lsda 16, Lexception17
	pushq	%rbp
	.cfi_def_cfa_offset 16
	.cfi_offset %rbp, -16
	movq	%rsp, %rbp
	.cfi_def_cfa_register %rbp
	subq	$32, %rsp
Ltmp579:
	leaq	-32(%rbp), %rdi
Ltmp582:
	.loc	34 250 5 prologue_end
	callq	__ZN5emath4rot21_28_$u7b$$u7b$closure$u7d$$u7d$17h742e3d00bee49ad8E
Ltmp580:
	jmp	LBB100_3
LBB100_1:
	movq	-16(%rbp), %rdi
	callq	__Unwind_Resume
LBB100_2:
Ltmp581:
	.loc	34 0 5 is_stmt 0
	movq	%rax, %rcx
	movl	%edx, %eax
	movq	%rcx, -16(%rbp)
	movl	%eax, -8(%rbp)
	jmp	LBB100_1
LBB100_3:
	.loc	34 250 5
	addq	$32, %rsp
	popq	%rbp
	retq
Ltmp583:
Lfunc_end100:
	.cfi_endproc
	.section	__TEXT,__gcc_except_tab
	.p2align	2
GCC_except_table100:
Lexception17:
	.byte	255
	.byte	255
	.byte	1
	.uleb128 Lcst_end17-Lcst_begin17
Lcst_begin17:
	.uleb128 Ltmp579-Lfunc_begin100
	.uleb128 Ltmp580-Ltmp579
	.uleb128 Ltmp581-Lfunc_begin100
	.byte	0
	.uleb128 Ltmp580-Lfunc_begin100
	.uleb128 Lfunc_end100-Ltmp580
	.byte	0
	.byte	0
Lcst_end17:
	.p2align	2

	.section	__TEXT,__text,regular,pure_instructions
	.p2align	4, 0x90
__ZN4core3ops8function6FnOnce9call_once17h94fc50973274ffa9E:
Lfunc_begin101:
	.loc	34 250 0 is_stmt 1
	.cfi_startproc
	.cfi_personality 155, _rust_eh_personality
	.cfi_lsda 16, Lexception18
	pushq	%rbp
	.cfi_def_cfa_offset 16
	.cfi_offset %rbp, -16
	movq	%rsp, %rbp
	.cfi_def_cfa_register %rbp
	subq	$32, %rsp
Ltmp584:
	leaq	-32(%rbp), %rdi
Ltmp587:
	.loc	34 250 5 prologue_end
	callq	__ZN5emath4rect1_28_$u7b$$u7b$closure$u7d$$u7d$17h4d559596500e419eE
Ltmp585:
	jmp	LBB101_3
LBB101_1:
	movq	-16(%rbp), %rdi
	callq	__Unwind_Resume
LBB101_2:
Ltmp586:
	.loc	34 0 5 is_stmt 0
	movq	%rax, %rcx
	movl	%edx, %eax
	movq	%rcx, -16(%rbp)
	movl	%eax, -8(%rbp)
	jmp	LBB101_1
LBB101_3:
	.loc	34 250 5
	addq	$32, %rsp
	popq	%rbp
	retq
Ltmp588:
Lfunc_end101:
	.cfi_endproc
	.section	__TEXT,__gcc_except_tab
	.p2align	2
GCC_except_table101:
Lexception18:
	.byte	255
	.byte	255
	.byte	1
	.uleb128 Lcst_end18-Lcst_begin18
Lcst_begin18:
	.uleb128 Ltmp584-Lfunc_begin101
	.uleb128 Ltmp585-Ltmp584
	.uleb128 Ltmp586-Lfunc_begin101
	.byte	0
	.uleb128 Ltmp585-Lfunc_begin101
	.uleb128 Lfunc_end101-Ltmp585
	.byte	0
	.byte	0
Lcst_end18:
	.p2align	2

	.section	__TEXT,__text,regular,pure_instructions
	.p2align	4, 0x90
__ZN4core3ops8function6FnOnce9call_once17h96bf8c1470e9fe3dE:
Lfunc_begin102:
	.loc	34 250 0 is_stmt 1
	.cfi_startproc
	.cfi_personality 155, _rust_eh_personality
	.cfi_lsda 16, Lexception19
	pushq	%rbp
	.cfi_def_cfa_offset 16
	.cfi_offset %rbp, -16
	movq	%rsp, %rbp
	.cfi_def_cfa_register %rbp
	subq	$32, %rsp
Ltmp589:
	leaq	-32(%rbp), %rdi
Ltmp592:
	.loc	34 250 5 prologue_end
	callq	__ZN5emath4rect1_28_$u7b$$u7b$closure$u7d$$u7d$17h4bb1aa0ddfc3fbc2E
Ltmp590:
	jmp	LBB102_3
LBB102_1:
	movq	-16(%rbp), %rdi
	callq	__Unwind_Resume
LBB102_2:
Ltmp591:
	.loc	34 0 5 is_stmt 0
	movq	%rax, %rcx
	movl	%edx, %eax
	movq	%rcx, -16(%rbp)
	movl	%eax, -8(%rbp)
	jmp	LBB102_1
LBB102_3:
	.loc	34 250 5
	addq	$32, %rsp
	popq	%rbp
	retq
Ltmp593:
Lfunc_end102:
	.cfi_endproc
	.section	__TEXT,__gcc_except_tab
	.p2align	2
GCC_except_table102:
Lexception19:
	.byte	255
	.byte	255
	.byte	1
	.uleb128 Lcst_end19-Lcst_begin19
Lcst_begin19:
	.uleb128 Ltmp589-Lfunc_begin102
	.uleb128 Ltmp590-Ltmp589
	.uleb128 Ltmp591-Lfunc_begin102
	.byte	0
	.uleb128 Ltmp590-Lfunc_begin102
	.uleb128 Lfunc_end102-Ltmp590
	.byte	0
	.byte	0
Lcst_end19:
	.p2align	2

	.section	__TEXT,__text,regular,pure_instructions
	.p2align	4, 0x90
__ZN4core3ops8function6FnOnce9call_once17ha0a55ee86243c1daE:
Lfunc_begin103:
	.loc	34 250 0 is_stmt 1
	.cfi_startproc
	.cfi_personality 155, _rust_eh_personality
	.cfi_lsda 16, Lexception20
	pushq	%rbp
	.cfi_def_cfa_offset 16
	.cfi_offset %rbp, -16
	movq	%rsp, %rbp
	.cfi_def_cfa_register %rbp
	subq	$32, %rsp
Ltmp594:
	leaq	-32(%rbp), %rdi
Ltmp597:
	.loc	34 250 5 prologue_end
	callq	__ZN5emath14rect_transform1_28_$u7b$$u7b$closure$u7d$$u7d$17h265be773a4b14266E
Ltmp595:
	jmp	LBB103_3
LBB103_1:
	movq	-16(%rbp), %rdi
	callq	__Unwind_Resume
LBB103_2:
Ltmp596:
	.loc	34 0 5 is_stmt 0
	movq	%rax, %rcx
	movl	%edx, %eax
	movq	%rcx, -16(%rbp)
	movl	%eax, -8(%rbp)
	jmp	LBB103_1
LBB103_3:
	.loc	34 250 5
	addq	$32, %rsp
	popq	%rbp
	retq
Ltmp598:
Lfunc_end103:
	.cfi_endproc
	.section	__TEXT,__gcc_except_tab
	.p2align	2
GCC_except_table103:
Lexception20:
	.byte	255
	.byte	255
	.byte	1
	.uleb128 Lcst_end20-Lcst_begin20
Lcst_begin20:
	.uleb128 Ltmp594-Lfunc_begin103
	.uleb128 Ltmp595-Ltmp594
	.uleb128 Ltmp596-Lfunc_begin103
	.byte	0
	.uleb128 Ltmp595-Lfunc_begin103
	.uleb128 Lfunc_end103-Ltmp595
	.byte	0
	.byte	0
Lcst_end20:
	.p2align	2

	.section	__TEXT,__text,regular,pure_instructions
	.p2align	4, 0x90
__ZN4core3ops8function6FnOnce9call_once17hb2139a43d8a0a3a0E:
Lfunc_begin104:
	.loc	34 250 0 is_stmt 1
	.cfi_startproc
	.cfi_personality 155, _rust_eh_personality
	.cfi_lsda 16, Lexception21
	pushq	%rbp
	.cfi_def_cfa_offset 16
	.cfi_offset %rbp, -16
	movq	%rsp, %rbp
	.cfi_def_cfa_register %rbp
	subq	$32, %rsp
Ltmp599:
	leaq	-32(%rbp), %rdi
Ltmp602:
	.loc	34 250 5 prologue_end
	callq	__ZN5emath4pos21_28_$u7b$$u7b$closure$u7d$$u7d$17h961ab2a25cba30d3E
Ltmp600:
	jmp	LBB104_3
LBB104_1:
	movq	-16(%rbp), %rdi
	callq	__Unwind_Resume
LBB104_2:
Ltmp601:
	.loc	34 0 5 is_stmt 0
	movq	%rax, %rcx
	movl	%edx, %eax
	movq	%rcx, -16(%rbp)
	movl	%eax, -8(%rbp)
	jmp	LBB104_1
LBB104_3:
	.loc	34 250 5
	addq	$32, %rsp
	popq	%rbp
	retq
Ltmp603:
Lfunc_end104:
	.cfi_endproc
	.section	__TEXT,__gcc_except_tab
	.p2align	2
GCC_except_table104:
Lexception21:
	.byte	255
	.byte	255
	.byte	1
	.uleb128 Lcst_end21-Lcst_begin21
Lcst_begin21:
	.uleb128 Ltmp599-Lfunc_begin104
	.uleb128 Ltmp600-Ltmp599
	.uleb128 Ltmp601-Lfunc_begin104
	.byte	0
	.uleb128 Ltmp600-Lfunc_begin104
	.uleb128 Lfunc_end104-Ltmp600
	.byte	0
	.byte	0
Lcst_end21:
	.p2align	2

	.section	__TEXT,__text,regular,pure_instructions
	.p2align	4, 0x90
__ZN4core3ops8function6FnOnce9call_once17hb264f9736e8bc8ebE:
Lfunc_begin105:
	.loc	34 250 0 is_stmt 1
	.cfi_startproc
	pushq	%rbp
	.cfi_def_cfa_offset 16
	.cfi_offset %rbp, -16
	movq	%rsp, %rbp
	.cfi_def_cfa_register %rbp
	subq	$32, %rsp
	movq	%rdi, -24(%rbp)
	movq	%rsi, -16(%rbp)
Ltmp604:
	.loc	34 250 5 prologue_end
	movq	-24(%rbp), %rdi
	movq	-16(%rbp), %rsi
	callq	__ZN4core3cmp5impls50_$LT$impl$u20$core..cmp..Ord$u20$for$u20$usize$GT$3cmp17hf58f7493a5dc44e8E
	addq	$32, %rsp
	popq	%rbp
	retq
Ltmp605:
Lfunc_end105:
	.cfi_endproc

	.p2align	4, 0x90
__ZN4core3ops8function6FnOnce9call_once17hb28890359b106337E:
Lfunc_begin106:
	.loc	34 250 0
	.cfi_startproc
	.cfi_personality 155, _rust_eh_personality
	.cfi_lsda 16, Lexception22
	pushq	%rbp
	.cfi_def_cfa_offset 16
	.cfi_offset %rbp, -16
	movq	%rsp, %rbp
	.cfi_def_cfa_register %rbp
	subq	$32, %rsp
Ltmp606:
	leaq	-32(%rbp), %rdi
Ltmp609:
	.loc	34 250 5 prologue_end
	callq	__ZN5emath4vec21_28_$u7b$$u7b$closure$u7d$$u7d$17h15b504d8c3d5ff7dE
Ltmp607:
	jmp	LBB106_3
LBB106_1:
	movq	-16(%rbp), %rdi
	callq	__Unwind_Resume
LBB106_2:
Ltmp608:
	.loc	34 0 5 is_stmt 0
	movq	%rax, %rcx
	movl	%edx, %eax
	movq	%rcx, -16(%rbp)
	movl	%eax, -8(%rbp)
	jmp	LBB106_1
LBB106_3:
	.loc	34 250 5
	addq	$32, %rsp
	popq	%rbp
	retq
Ltmp610:
Lfunc_end106:
	.cfi_endproc
	.section	__TEXT,__gcc_except_tab
	.p2align	2
GCC_except_table106:
Lexception22:
	.byte	255
	.byte	255
	.byte	1
	.uleb128 Lcst_end22-Lcst_begin22
Lcst_begin22:
	.uleb128 Ltmp606-Lfunc_begin106
	.uleb128 Ltmp607-Ltmp606
	.uleb128 Ltmp608-Lfunc_begin106
	.byte	0
	.uleb128 Ltmp607-Lfunc_begin106
	.uleb128 Lfunc_end106-Ltmp607
	.byte	0
	.byte	0
Lcst_end22:
	.p2align	2

	.section	__TEXT,__text,regular,pure_instructions
	.p2align	4, 0x90
__ZN4core3ops8function6FnOnce9call_once17hb3509a822c508977E:
Lfunc_begin107:
	.loc	34 250 0 is_stmt 1
	.cfi_startproc
	.cfi_personality 155, _rust_eh_personality
	.cfi_lsda 16, Lexception23
	pushq	%rbp
	.cfi_def_cfa_offset 16
	.cfi_offset %rbp, -16
	movq	%rsp, %rbp
	.cfi_def_cfa_register %rbp
	subq	$32, %rsp
Ltmp611:
	leaq	-32(%rbp), %rdi
Ltmp614:
	.loc	34 250 5 prologue_end
	callq	__ZN5emath14rect_transform1_28_$u7b$$u7b$closure$u7d$$u7d$17hbc3fe0f1d33cf12fE
Ltmp612:
	jmp	LBB107_3
LBB107_1:
	movq	-16(%rbp), %rdi
	callq	__Unwind_Resume
LBB107_2:
Ltmp613:
	.loc	34 0 5 is_stmt 0
	movq	%rax, %rcx
	movl	%edx, %eax
	movq	%rcx, -16(%rbp)
	movl	%eax, -8(%rbp)
	jmp	LBB107_1
LBB107_3:
	.loc	34 250 5
	addq	$32, %rsp
	popq	%rbp
	retq
Ltmp615:
Lfunc_end107:
	.cfi_endproc
	.section	__TEXT,__gcc_except_tab
	.p2align	2
GCC_except_table107:
Lexception23:
	.byte	255
	.byte	255
	.byte	1
	.uleb128 Lcst_end23-Lcst_begin23
Lcst_begin23:
	.uleb128 Ltmp611-Lfunc_begin107
	.uleb128 Ltmp612-Ltmp611
	.uleb128 Ltmp613-Lfunc_begin107
	.byte	0
	.uleb128 Ltmp612-Lfunc_begin107
	.uleb128 Lfunc_end107-Ltmp612
	.byte	0
	.byte	0
Lcst_end23:
	.p2align	2

	.section	__TEXT,__text,regular,pure_instructions
	.p2align	4, 0x90
__ZN4core3ops8function6FnOnce9call_once17hbc47b21d8a2ab9faE:
Lfunc_begin108:
	.loc	34 250 0 is_stmt 1
	.cfi_startproc
	.cfi_personality 155, _rust_eh_personality
	.cfi_lsda 16, Lexception24
	pushq	%rbp
	.cfi_def_cfa_offset 16
	.cfi_offset %rbp, -16
	movq	%rsp, %rbp
	.cfi_def_cfa_register %rbp
	subq	$32, %rsp
Ltmp616:
	leaq	-32(%rbp), %rdi
Ltmp619:
	.loc	34 250 5 prologue_end
	callq	__ZN5emath4vec21_28_$u7b$$u7b$closure$u7d$$u7d$17h7f3d676c62be3496E
Ltmp617:
	jmp	LBB108_3
LBB108_1:
	movq	-16(%rbp), %rdi
	callq	__Unwind_Resume
LBB108_2:
Ltmp618:
	.loc	34 0 5 is_stmt 0
	movq	%rax, %rcx
	movl	%edx, %eax
	movq	%rcx, -16(%rbp)
	movl	%eax, -8(%rbp)
	jmp	LBB108_1
LBB108_3:
	.loc	34 250 5
	addq	$32, %rsp
	popq	%rbp
	retq
Ltmp620:
Lfunc_end108:
	.cfi_endproc
	.section	__TEXT,__gcc_except_tab
	.p2align	2
GCC_except_table108:
Lexception24:
	.byte	255
	.byte	255
	.byte	1
	.uleb128 Lcst_end24-Lcst_begin24
Lcst_begin24:
	.uleb128 Ltmp616-Lfunc_begin108
	.uleb128 Ltmp617-Ltmp616
	.uleb128 Ltmp618-Lfunc_begin108
	.byte	0
	.uleb128 Ltmp617-Lfunc_begin108
	.uleb128 Lfunc_end108-Ltmp617
	.byte	0
	.byte	0
Lcst_end24:
	.p2align	2

	.section	__TEXT,__text,regular,pure_instructions
	.p2align	4, 0x90
__ZN4core3ops8function6FnOnce9call_once17hbc68bb1a8006e153E:
Lfunc_begin109:
	.loc	34 250 0 is_stmt 1
	.cfi_startproc
	.cfi_personality 155, _rust_eh_personality
	.cfi_lsda 16, Lexception25
	pushq	%rbp
	.cfi_def_cfa_offset 16
	.cfi_offset %rbp, -16
	movq	%rsp, %rbp
	.cfi_def_cfa_register %rbp
	subq	$32, %rsp
Ltmp621:
	leaq	-32(%rbp), %rdi
Ltmp624:
	.loc	34 250 5 prologue_end
	callq	__ZN5emath4vec21_28_$u7b$$u7b$closure$u7d$$u7d$17hed25826ca7cc1f25E
Ltmp622:
	jmp	LBB109_3
LBB109_1:
	movq	-16(%rbp), %rdi
	callq	__Unwind_Resume
LBB109_2:
Ltmp623:
	.loc	34 0 5 is_stmt 0
	movq	%rax, %rcx
	movl	%edx, %eax
	movq	%rcx, -16(%rbp)
	movl	%eax, -8(%rbp)
	jmp	LBB109_1
LBB109_3:
	.loc	34 250 5
	addq	$32, %rsp
	popq	%rbp
	retq
Ltmp625:
Lfunc_end109:
	.cfi_endproc
	.section	__TEXT,__gcc_except_tab
	.p2align	2
GCC_except_table109:
Lexception25:
	.byte	255
	.byte	255
	.byte	1
	.uleb128 Lcst_end25-Lcst_begin25
Lcst_begin25:
	.uleb128 Ltmp621-Lfunc_begin109
	.uleb128 Ltmp622-Ltmp621
	.uleb128 Ltmp623-Lfunc_begin109
	.byte	0
	.uleb128 Ltmp622-Lfunc_begin109
	.uleb128 Lfunc_end109-Ltmp622
	.byte	0
	.byte	0
Lcst_end25:
	.p2align	2

	.section	__TEXT,__text,regular,pure_instructions
	.p2align	4, 0x90
__ZN4core3ops8function6FnOnce9call_once17hbf31c691bcb4e207E:
Lfunc_begin110:
	.loc	34 250 0 is_stmt 1
	.cfi_startproc
	.cfi_personality 155, _rust_eh_personality
	.cfi_lsda 16, Lexception26
	pushq	%rbp
	.cfi_def_cfa_offset 16
	.cfi_offset %rbp, -16
	movq	%rsp, %rbp
	.cfi_def_cfa_register %rbp
	subq	$32, %rsp
Ltmp626:
	leaq	-32(%rbp), %rdi
Ltmp629:
	.loc	34 250 5 prologue_end
	callq	__ZN5emath14rect_transform1_28_$u7b$$u7b$closure$u7d$$u7d$17h7d8aba749803fb35E
Ltmp627:
	jmp	LBB110_3
LBB110_1:
	movq	-16(%rbp), %rdi
	callq	__Unwind_Resume
LBB110_2:
Ltmp628:
	.loc	34 0 5 is_stmt 0
	movq	%rax, %rcx
	movl	%edx, %eax
	movq	%rcx, -16(%rbp)
	movl	%eax, -8(%rbp)
	jmp	LBB110_1
LBB110_3:
	.loc	34 250 5
	addq	$32, %rsp
	popq	%rbp
	retq
Ltmp630:
Lfunc_end110:
	.cfi_endproc
	.section	__TEXT,__gcc_except_tab
	.p2align	2
GCC_except_table110:
Lexception26:
	.byte	255
	.byte	255
	.byte	1
	.uleb128 Lcst_end26-Lcst_begin26
Lcst_begin26:
	.uleb128 Ltmp626-Lfunc_begin110
	.uleb128 Ltmp627-Ltmp626
	.uleb128 Ltmp628-Lfunc_begin110
	.byte	0
	.uleb128 Ltmp627-Lfunc_begin110
	.uleb128 Lfunc_end110-Ltmp627
	.byte	0
	.byte	0
Lcst_end26:
	.p2align	2

	.section	__TEXT,__text,regular,pure_instructions
	.p2align	4, 0x90
__ZN4core3ops8function6FnOnce9call_once17hc6db7768786f5a07E:
Lfunc_begin111:
	.loc	34 250 0 is_stmt 1
	.cfi_startproc
	pushq	%rbp
	.cfi_def_cfa_offset 16
	.cfi_offset %rbp, -16
	movq	%rsp, %rbp
	.cfi_def_cfa_register %rbp
	subq	$32, %rsp
	movq	%rdi, %rax
	movq	%rax, -32(%rbp)
	movq	%rsi, -24(%rbp)
	movq	%rdx, -16(%rbp)
Ltmp631:
	.loc	34 250 5 prologue_end
	movq	-24(%rbp), %rsi
	movq	-16(%rbp), %rdx
	callq	__ZN5alloc3str56_$LT$impl$u20$alloc..borrow..ToOwned$u20$for$u20$str$GT$8to_owned17h6e04941bf133a121E
	movq	-32(%rbp), %rax
	addq	$32, %rsp
	popq	%rbp
	retq
Ltmp632:
Lfunc_end111:
	.cfi_endproc

	.p2align	4, 0x90
__ZN4core3ops8function6FnOnce9call_once17hc91a4eb8debe1f86E:
Lfunc_begin112:
	.loc	34 250 0
	.cfi_startproc
	.cfi_personality 155, _rust_eh_personality
	.cfi_lsda 16, Lexception27
	pushq	%rbp
	.cfi_def_cfa_offset 16
	.cfi_offset %rbp, -16
	movq	%rsp, %rbp
	.cfi_def_cfa_register %rbp
	subq	$32, %rsp
Ltmp633:
	leaq	-32(%rbp), %rdi
Ltmp636:
	.loc	34 250 5 prologue_end
	callq	__ZN5emath4rect1_28_$u7b$$u7b$closure$u7d$$u7d$17h26d40bafcee68a55E
Ltmp634:
	jmp	LBB112_3
LBB112_1:
	movq	-16(%rbp), %rdi
	callq	__Unwind_Resume
LBB112_2:
Ltmp635:
	.loc	34 0 5 is_stmt 0
	movq	%rax, %rcx
	movl	%edx, %eax
	movq	%rcx, -16(%rbp)
	movl	%eax, -8(%rbp)
	jmp	LBB112_1
LBB112_3:
	.loc	34 250 5
	addq	$32, %rsp
	popq	%rbp
	retq
Ltmp637:
Lfunc_end112:
	.cfi_endproc
	.section	__TEXT,__gcc_except_tab
	.p2align	2
GCC_except_table112:
Lexception27:
	.byte	255
	.byte	255
	.byte	1
	.uleb128 Lcst_end27-Lcst_begin27
Lcst_begin27:
	.uleb128 Ltmp633-Lfunc_begin112
	.uleb128 Ltmp634-Ltmp633
	.uleb128 Ltmp635-Lfunc_begin112
	.byte	0
	.uleb128 Ltmp634-Lfunc_begin112
	.uleb128 Lfunc_end112-Ltmp634
	.byte	0
	.byte	0
Lcst_end27:
	.p2align	2

	.section	__TEXT,__text,regular,pure_instructions
	.p2align	4, 0x90
__ZN4core3ops8function6FnOnce9call_once17hdbac58b89d46b4caE:
Lfunc_begin113:
	.loc	34 250 0 is_stmt 1
	.cfi_startproc
	.cfi_personality 155, _rust_eh_personality
	.cfi_lsda 16, Lexception28
	pushq	%rbp
	.cfi_def_cfa_offset 16
	.cfi_offset %rbp, -16
	movq	%rsp, %rbp
	.cfi_def_cfa_register %rbp
	subq	$32, %rsp
Ltmp638:
	leaq	-32(%rbp), %rdi
Ltmp641:
	.loc	34 250 5 prologue_end
	callq	__ZN5emath4rot21_28_$u7b$$u7b$closure$u7d$$u7d$17h791f450566c0319bE
Ltmp639:
	jmp	LBB113_3
LBB113_1:
	movq	-16(%rbp), %rdi
	callq	__Unwind_Resume
LBB113_2:
Ltmp640:
	.loc	34 0 5 is_stmt 0
	movq	%rax, %rcx
	movl	%edx, %eax
	movq	%rcx, -16(%rbp)
	movl	%eax, -8(%rbp)
	jmp	LBB113_1
LBB113_3:
	.loc	34 250 5
	addq	$32, %rsp
	popq	%rbp
	retq
Ltmp642:
Lfunc_end113:
	.cfi_endproc
	.section	__TEXT,__gcc_except_tab
	.p2align	2
GCC_except_table113:
Lexception28:
	.byte	255
	.byte	255
	.byte	1
	.uleb128 Lcst_end28-Lcst_begin28
Lcst_begin28:
	.uleb128 Ltmp638-Lfunc_begin113
	.uleb128 Ltmp639-Ltmp638
	.uleb128 Ltmp640-Lfunc_begin113
	.byte	0
	.uleb128 Ltmp639-Lfunc_begin113
	.uleb128 Lfunc_end113-Ltmp639
	.byte	0
	.byte	0
Lcst_end28:
	.p2align	2

	.section	__TEXT,__text,regular,pure_instructions
	.p2align	4, 0x90
__ZN4core3ops8function6FnOnce9call_once17hf3fb6a01f0ed0c85E:
Lfunc_begin114:
	.loc	34 250 0 is_stmt 1
	.cfi_startproc
	.cfi_personality 155, _rust_eh_personality
	.cfi_lsda 16, Lexception29
	pushq	%rbp
	.cfi_def_cfa_offset 16
	.cfi_offset %rbp, -16
	movq	%rsp, %rbp
	.cfi_def_cfa_register %rbp
	subq	$32, %rsp
Ltmp643:
	leaq	-32(%rbp), %rdi
Ltmp646:
	.loc	34 250 5 prologue_end
	callq	__ZN5emath4vec21_28_$u7b$$u7b$closure$u7d$$u7d$17h81ee6b47547709f7E
Ltmp644:
	jmp	LBB114_3
LBB114_1:
	movq	-16(%rbp), %rdi
	callq	__Unwind_Resume
LBB114_2:
Ltmp645:
	.loc	34 0 5 is_stmt 0
	movq	%rax, %rcx
	movl	%edx, %eax
	movq	%rcx, -16(%rbp)
	movl	%eax, -8(%rbp)
	jmp	LBB114_1
LBB114_3:
	.loc	34 250 5
	addq	$32, %rsp
	popq	%rbp
	retq
Ltmp647:
Lfunc_end114:
	.cfi_endproc
	.section	__TEXT,__gcc_except_tab
	.p2align	2
GCC_except_table114:
Lexception29:
	.byte	255
	.byte	255
	.byte	1
	.uleb128 Lcst_end29-Lcst_begin29
Lcst_begin29:
	.uleb128 Ltmp643-Lfunc_begin114
	.uleb128 Ltmp644-Ltmp643
	.uleb128 Ltmp645-Lfunc_begin114
	.byte	0
	.uleb128 Ltmp644-Lfunc_begin114
	.uleb128 Lfunc_end114-Ltmp644
	.byte	0
	.byte	0
Lcst_end29:
	.p2align	2

	.section	__TEXT,__text,regular,pure_instructions
	.p2align	4, 0x90
__ZN4core3ops8function6FnOnce9call_once17hfe06b669f32fdf7eE:
Lfunc_begin115:
	.loc	34 250 0 is_stmt 1
	.cfi_startproc
	.cfi_personality 155, _rust_eh_personality
	.cfi_lsda 16, Lexception30
	pushq	%rbp
	.cfi_def_cfa_offset 16
	.cfi_offset %rbp, -16
	movq	%rsp, %rbp
	.cfi_def_cfa_register %rbp
	subq	$32, %rsp
Ltmp648:
	leaq	-32(%rbp), %rdi
Ltmp651:
	.loc	34 250 5 prologue_end
	callq	__ZN5emath14rect_transform1_28_$u7b$$u7b$closure$u7d$$u7d$17h655660abe7df16a0E
Ltmp649:
	jmp	LBB115_3
LBB115_1:
	movq	-16(%rbp), %rdi
	callq	__Unwind_Resume
LBB115_2:
Ltmp650:
	.loc	34 0 5 is_stmt 0
	movq	%rax, %rcx
	movl	%edx, %eax
	movq	%rcx, -16(%rbp)
	movl	%eax, -8(%rbp)
	jmp	LBB115_1
LBB115_3:
	.loc	34 250 5
	addq	$32, %rsp
	popq	%rbp
	retq
Ltmp652:
Lfunc_end115:
	.cfi_endproc
	.section	__TEXT,__gcc_except_tab
	.p2align	2
GCC_except_table115:
Lexception30:
	.byte	255
	.byte	255
	.byte	1
	.uleb128 Lcst_end30-Lcst_begin30
Lcst_begin30:
	.uleb128 Ltmp648-Lfunc_begin115
	.uleb128 Ltmp649-Ltmp648
	.uleb128 Ltmp650-Lfunc_begin115
	.byte	0
	.uleb128 Ltmp649-Lfunc_begin115
	.uleb128 Lfunc_end115-Ltmp649
	.byte	0
	.byte	0
Lcst_end30:
	.p2align	2

	.section	__TEXT,__text,regular,pure_instructions
	.p2align	4, 0x90
__ZN4core3ptr42drop_in_place$LT$$RF$emath..rect..Rect$GT$17h00f5f22bfa607ac9E:
Lfunc_begin116:
	.loc	4 490 0 is_stmt 1
	.cfi_startproc
	pushq	%rbp
	.cfi_def_cfa_offset 16
	.cfi_offset %rbp, -16
	movq	%rsp, %rbp
	.cfi_def_cfa_register %rbp
	pushq	%rax
	movq	%rdi, -8(%rbp)
Ltmp653:
	.loc	4 490 1 prologue_end
	addq	$8, %rsp
	popq	%rbp
	retq
Ltmp654:
Lfunc_end116:
	.cfi_endproc

	.globl	__ZN4core3ptr42drop_in_place$LT$alloc..string..String$GT$17h5272d2381716d95dE
	.p2align	4, 0x90
__ZN4core3ptr42drop_in_place$LT$alloc..string..String$GT$17h5272d2381716d95dE:
Lfunc_begin117:
	.loc	4 490 0
	.cfi_startproc
	pushq	%rbp
	.cfi_def_cfa_offset 16
	.cfi_offset %rbp, -16
	movq	%rsp, %rbp
	.cfi_def_cfa_register %rbp
	subq	$16, %rsp
	movq	%rdi, -8(%rbp)
Ltmp655:
	.loc	4 490 1 prologue_end
	callq	__ZN4core3ptr46drop_in_place$LT$alloc..vec..Vec$LT$u8$GT$$GT$17h5d1d9eeb4efe287bE
	addq	$16, %rsp
	popq	%rbp
	retq
Ltmp656:
Lfunc_end117:
	.cfi_endproc

	.p2align	4, 0x90
__ZN4core3ptr44drop_in_place$LT$$RF$emath..align..Align$GT$17h6a58f3d5b5954271E:
Lfunc_begin118:
	.loc	4 490 0
	.cfi_startproc
	pushq	%rbp
	.cfi_def_cfa_offset 16
	.cfi_offset %rbp, -16
	movq	%rsp, %rbp
	.cfi_def_cfa_register %rbp
	pushq	%rax
	movq	%rdi, -8(%rbp)
Ltmp657:
	.loc	4 490 1 prologue_end
	addq	$8, %rsp
	popq	%rbp
	retq
Ltmp658:
Lfunc_end118:
	.cfi_endproc

	.globl	__ZN4core3ptr46drop_in_place$LT$alloc..vec..Vec$LT$u8$GT$$GT$17h5d1d9eeb4efe287bE
	.p2align	4, 0x90
__ZN4core3ptr46drop_in_place$LT$alloc..vec..Vec$LT$u8$GT$$GT$17h5d1d9eeb4efe287bE:
Lfunc_begin119:
	.loc	4 490 0
	.cfi_startproc
	.cfi_personality 155, _rust_eh_personality
	.cfi_lsda 16, Lexception31
	pushq	%rbp
	.cfi_def_cfa_offset 16
	.cfi_offset %rbp, -16
	movq	%rsp, %rbp
	.cfi_def_cfa_register %rbp
	subq	$32, %rsp
	movq	%rdi, -32(%rbp)
	movq	%rdi, -24(%rbp)
Ltmp659:
Ltmp665:
	.loc	4 490 1 prologue_end
	callq	__ZN70_$LT$alloc..vec..Vec$LT$T$C$A$GT$$u20$as$u20$core..ops..drop..Drop$GT$4drop17h00e1f5d31f3a09fbE
Ltmp660:
	jmp	LBB119_3
LBB119_1:
Ltmp662:
	.loc	4 0 1 is_stmt 0
	movq	-32(%rbp), %rdi
	.loc	4 490 1
	callq	__ZN4core3ptr53drop_in_place$LT$alloc..raw_vec..RawVec$LT$u8$GT$$GT$17hd400adbfcd2b2cc6E
Ltmp663:
	jmp	LBB119_5
LBB119_2:
Ltmp661:
	.loc	4 0 1
	movq	%rax, %rcx
	movl	%edx, %eax
	movq	%rcx, -16(%rbp)
	movl	%eax, -8(%rbp)
	jmp	LBB119_1
LBB119_3:
	movq	-32(%rbp), %rdi
	.loc	4 490 1
	callq	__ZN4core3ptr53drop_in_place$LT$alloc..raw_vec..RawVec$LT$u8$GT$$GT$17hd400adbfcd2b2cc6E
	addq	$32, %rsp
	popq	%rbp
	retq
LBB119_4:
Ltmp664:
	callq	__ZN4core9panicking19panic_cannot_unwind17h1fbca7e1d7f56ae1E
LBB119_5:
	movq	-16(%rbp), %rdi
	callq	__Unwind_Resume
Ltmp666:
Lfunc_end119:
	.cfi_endproc
	.section	__TEXT,__gcc_except_tab
	.p2align	2
GCC_except_table119:
Lexception31:
	.byte	255
	.byte	255
	.byte	1
	.uleb128 Lcst_end31-Lcst_begin31
Lcst_begin31:
	.uleb128 Ltmp659-Lfunc_begin119
	.uleb128 Ltmp660-Ltmp659
	.uleb128 Ltmp661-Lfunc_begin119
	.byte	0
	.uleb128 Ltmp662-Lfunc_begin119
	.uleb128 Ltmp663-Ltmp662
	.uleb128 Ltmp664-Lfunc_begin119
	.byte	0
	.uleb128 Ltmp663-Lfunc_begin119
	.uleb128 Lfunc_end119-Ltmp663
	.byte	0
	.byte	0
Lcst_end31:
	.p2align	2

	.section	__TEXT,__text,regular,pure_instructions
	.globl	__ZN4core3ptr53drop_in_place$LT$alloc..raw_vec..RawVec$LT$u8$GT$$GT$17hd400adbfcd2b2cc6E
	.p2align	4, 0x90
__ZN4core3ptr53drop_in_place$LT$alloc..raw_vec..RawVec$LT$u8$GT$$GT$17hd400adbfcd2b2cc6E:
Lfunc_begin120:
	.loc	4 490 0 is_stmt 1
	.cfi_startproc
	pushq	%rbp
	.cfi_def_cfa_offset 16
	.cfi_offset %rbp, -16
	movq	%rsp, %rbp
	.cfi_def_cfa_register %rbp
	subq	$16, %rsp
	movq	%rdi, -8(%rbp)
Ltmp667:
	.loc	4 490 1 prologue_end
	callq	__ZN77_$LT$alloc..raw_vec..RawVec$LT$T$C$A$GT$$u20$as$u20$core..ops..drop..Drop$GT$4drop17h40bfc15dc95f7d70E
	addq	$16, %rsp
	popq	%rbp
	retq
Ltmp668:
Lfunc_end120:
	.cfi_endproc

	.p2align	4, 0x90
__ZN4core3ptr56drop_in_place$LT$core..num..dec2flt..ParseFloatError$GT$17h6e032d9728c5927bE:
Lfunc_begin121:
	.loc	4 490 0
	.cfi_startproc
	pushq	%rbp
	.cfi_def_cfa_offset 16
	.cfi_offset %rbp, -16
	movq	%rsp, %rbp
	.cfi_def_cfa_register %rbp
	pushq	%rax
	movq	%rdi, -8(%rbp)
Ltmp669:
	.loc	4 490 1 prologue_end
	addq	$8, %rsp
	popq	%rbp
	retq
Ltmp670:
Lfunc_end121:
	.cfi_endproc

	.p2align	4, 0x90
__ZN4core3ptr65drop_in_place$LT$$RF$$u5b$emath..align..Align$u3b$$u20$2$u5d$$GT$17he5c4bc3e3e762c5aE:
Lfunc_begin122:
	.loc	4 490 0
	.cfi_startproc
	pushq	%rbp
	.cfi_def_cfa_offset 16
	.cfi_offset %rbp, -16
	movq	%rsp, %rbp
	.cfi_def_cfa_register %rbp
	pushq	%rax
	movq	%rdi, -8(%rbp)
Ltmp671:
	.loc	4 490 1 prologue_end
	addq	$8, %rsp
	popq	%rbp
	retq
Ltmp672:
Lfunc_end122:
	.cfi_endproc

	.globl	__ZN4core3ptr8non_null16NonNull$LT$T$GT$3new17h6b681fc35919bbbbE
	.p2align	4, 0x90
__ZN4core3ptr8non_null16NonNull$LT$T$GT$3new17h6b681fc35919bbbbE:
Lfunc_begin123:
	.loc	9 222 0
	.cfi_startproc
	pushq	%rbp
	.cfi_def_cfa_offset 16
	.cfi_offset %rbp, -16
	movq	%rsp, %rbp
	.cfi_def_cfa_register %rbp
	subq	$88, %rsp
	movq	%rdi, -88(%rbp)
	movq	%rdi, -56(%rbp)
Ltmp673:
	.loc	9 223 13 prologue_end
	movq	%rdi, -48(%rbp)
Ltmp674:
	.file	35 "/rustc/2c8cc343237b8f7d5a3c3703e3a87f2eb2c54a74/library/core/src/ptr" "mut_ptr.rs"
	.loc	35 52 36
	movq	%rdi, -64(%rbp)
	.loc	35 52 18 is_stmt 0
	movq	-64(%rbp), %rax
	movq	%rax, -40(%rbp)
Ltmp675:
	.loc	35 38 13 is_stmt 1
	movq	%rax, -32(%rbp)
Ltmp676:
	.loc	35 215 33
	movq	%rax, -24(%rbp)
	.loc	35 215 18 is_stmt 0
	movq	%rax, -16(%rbp)
Ltmp677:
	.loc	35 38 13 is_stmt 1
	cmpq	$0, -16(%rbp)
	sete	%al
Ltmp678:
	.loc	9 223 12
	xorb	$-1, %al
	testb	$1, %al
	jne	LBB123_2
	.loc	9 227 13
	movq	$0, -80(%rbp)
	.loc	9 223 9
	jmp	LBB123_3
LBB123_2:
	.loc	9 0 9 is_stmt 0
	movq	-88(%rbp), %rax
	.loc	9 225 47 is_stmt 1
	movq	%rax, -8(%rbp)
Ltmp679:
	.loc	9 201 13
	movq	%rax, -72(%rbp)
Ltmp680:
	.loc	9 225 13
	movq	-72(%rbp), %rax
	movq	%rax, -80(%rbp)
LBB123_3:
	.loc	9 229 6
	movq	-80(%rbp), %rax
	addq	$88, %rsp
	popq	%rbp
	retq
Ltmp681:
Lfunc_end123:
	.cfi_endproc

	.globl	__ZN4core3ptr8non_null26NonNull$LT$$u5b$T$u5d$$GT$20slice_from_raw_parts17h4fc8e3745b36481dE
	.p2align	4, 0x90
__ZN4core3ptr8non_null26NonNull$LT$$u5b$T$u5d$$GT$20slice_from_raw_parts17h4fc8e3745b36481dE:
Lfunc_begin124:
	.loc	9 482 0
	.cfi_startproc
	pushq	%rbp
	.cfi_def_cfa_offset 16
	.cfi_offset %rbp, -16
	movq	%rsp, %rbp
	.cfi_def_cfa_register %rbp
	subq	$128, %rsp
	movq	%rdi, -80(%rbp)
	movq	%rsi, -72(%rbp)
Ltmp682:
	.loc	9 484 70 prologue_end
	movq	%rdi, -64(%rbp)
Ltmp683:
	.loc	9 326 9
	movq	%rdi, -56(%rbp)
Ltmp684:
	.loc	9 484 85
	movq	%rsi, -48(%rbp)
Ltmp685:
	.loc	4 766 24
	movq	%rdi, -40(%rbp)
Ltmp686:
	.loc	35 60 9
	movq	%rdi, -32(%rbp)
Ltmp687:
	.loc	4 766 37
	movq	%rsi, -24(%rbp)
Ltmp688:
	.loc	5 135 36
	movq	%rdi, -96(%rbp)
	movq	%rsi, -88(%rbp)
	.loc	5 135 14 is_stmt 0
	movq	-96(%rbp), %rcx
	movq	-88(%rbp), %rax
	movq	%rcx, -112(%rbp)
	movq	%rax, -104(%rbp)
	movq	-112(%rbp), %rcx
	movq	-104(%rbp), %rax
	movq	%rcx, -16(%rbp)
	movq	%rax, -8(%rbp)
Ltmp689:
	.loc	9 201 13 is_stmt 1
	movq	%rcx, -128(%rbp)
	movq	%rax, -120(%rbp)
Ltmp690:
	.loc	9 485 6
	movq	-128(%rbp), %rax
	movq	-120(%rbp), %rdx
	addq	$128, %rsp
	popq	%rbp
	retq
Ltmp691:
Lfunc_end124:
	.cfi_endproc

	.globl	__ZN4core3ptr9const_ptr33_$LT$impl$u20$$BP$const$u20$T$GT$7sub_ptr17hd68ee9e08528c6cdE
	.p2align	4, 0x90
__ZN4core3ptr9const_ptr33_$LT$impl$u20$$BP$const$u20$T$GT$7sub_ptr17hd68ee9e08528c6cdE:
Lfunc_begin125:
	.loc	3 791 0
	.cfi_startproc
	pushq	%rbp
	.cfi_def_cfa_offset 16
	.cfi_offset %rbp, -16
	movq	%rsp, %rbp
	.cfi_def_cfa_register %rbp
	subq	$64, %rsp
	movq	%rdi, -56(%rbp)
	movq	%rsi, -48(%rbp)
	movq	%rdi, -32(%rbp)
	movq	%rsi, -24(%rbp)
Ltmp692:
	.loc	21 309 5 prologue_end
	movq	$1, -16(%rbp)
Ltmp693:
	.loc	3 806 17
	movb	$1, %al
	testb	$1, %al
	jne	LBB125_2
	movb	$0, -33(%rbp)
	jmp	LBB125_3
LBB125_2:
	movb	$1, -33(%rbp)
LBB125_3:
	.loc	3 806 9 is_stmt 0
	movb	-33(%rbp), %al
	xorb	$-1, %al
	testb	$1, %al
	jne	LBB125_5
	.loc	3 0 9
	movq	-48(%rbp), %rcx
	movq	-56(%rbp), %rax
	.loc	3 808 18 is_stmt 1
	subq	%rcx, %rax
	shrq	$0, %rax
	movq	%rax, -8(%rbp)
	movq	-8(%rbp), %rax
Ltmp694:
	.loc	3 809 6
	addq	$64, %rsp
	popq	%rbp
	retq
LBB125_5:
Ltmp695:
	.loc	3 806 9
	leaq	l___unnamed_18(%rip), %rdi
	leaq	l___unnamed_19(%rip), %rdx
	movl	$73, %esi
	callq	__ZN4core9panicking5panic17hc1bc45270cf64b03E
Ltmp696:
Lfunc_end125:
	.cfi_endproc

	.globl	__ZN4core3str21_$LT$impl$u20$str$GT$5parse17ha7134282aaeb6856E
	.p2align	4, 0x90
__ZN4core3str21_$LT$impl$u20$str$GT$5parse17ha7134282aaeb6856E:
Lfunc_begin126:
	.loc	32 2352 0
	.cfi_startproc
	pushq	%rbp
	.cfi_def_cfa_offset 16
	.cfi_offset %rbp, -16
	movq	%rsp, %rbp
	.cfi_def_cfa_register %rbp
	subq	$32, %rsp
	movq	%rdi, -24(%rbp)
	movq	%rsi, -16(%rbp)
Ltmp697:
	.loc	32 2353 9 prologue_end
	callq	__ZN4core3num7dec2flt60_$LT$impl$u20$core..str..traits..FromStr$u20$for$u20$f32$GT$8from_str17h7a39130c2b8ac47aE
	movq	%rax, -8(%rbp)
	movq	-8(%rbp), %rax
	movq	%rax, -32(%rbp)
	.loc	32 2354 6
	movq	-32(%rbp), %rax
	addq	$32, %rsp
	popq	%rbp
	retq
Ltmp698:
Lfunc_end126:
	.cfi_endproc

	.globl	__ZN4core3str21_$LT$impl$u20$str$GT$5parse17hc5bfead43656ec59E
	.p2align	4, 0x90
__ZN4core3str21_$LT$impl$u20$str$GT$5parse17hc5bfead43656ec59E:
Lfunc_begin127:
	.loc	32 2352 0
	.cfi_startproc
	pushq	%rbp
	.cfi_def_cfa_offset 16
	.cfi_offset %rbp, -16
	movq	%rsp, %rbp
	.cfi_def_cfa_register %rbp
	subq	$32, %rsp
	movq	%rdi, %rax
	movq	%rax, -24(%rbp)
	movq	%rsi, -16(%rbp)
	movq	%rdx, -8(%rbp)
Ltmp699:
	.loc	32 2353 9 prologue_end
	callq	__ZN4core3num7dec2flt60_$LT$impl$u20$core..str..traits..FromStr$u20$for$u20$f64$GT$8from_str17h3a98c52ba8e37b05E
	movq	-24(%rbp), %rax
	.loc	32 2354 6
	addq	$32, %rsp
	popq	%rbp
	retq
Ltmp700:
Lfunc_end127:
	.cfi_endproc

	.p2align	4, 0x90
__ZN4core4hint21unreachable_unchecked17haba66997e3d0f11dE:
Lfunc_begin128:
	.file	36 "/rustc/2c8cc343237b8f7d5a3c3703e3a87f2eb2c54a74/library/core/src" "hint.rs"
	.loc	36 100 0
	.cfi_startproc
	pushq	%rbp
	.cfi_def_cfa_offset 16
	.cfi_offset %rbp, -16
	movq	%rsp, %rbp
	.cfi_def_cfa_register %rbp
Ltmp701:
	.loc	36 104 9 prologue_end
	ud2
Ltmp702:
Lfunc_end128:
	.cfi_endproc

	.globl	__ZN4core4iter5range101_$LT$impl$u20$core..iter..traits..iterator..Iterator$u20$for$u20$core..ops..range..Range$LT$A$GT$$GT$4next17hd8b48c465be04312E
	.p2align	4, 0x90
__ZN4core4iter5range101_$LT$impl$u20$core..iter..traits..iterator..Iterator$u20$for$u20$core..ops..range..Range$LT$A$GT$$GT$4next17hd8b48c465be04312E:
Lfunc_begin129:
	.loc	16 710 0
	.cfi_startproc
	pushq	%rbp
	.cfi_def_cfa_offset 16
	.cfi_offset %rbp, -16
	movq	%rsp, %rbp
	.cfi_def_cfa_register %rbp
	subq	$16, %rsp
	movq	%rdi, -8(%rbp)
Ltmp703:
	.loc	16 711 9 prologue_end
	callq	__ZN89_$LT$core..ops..range..Range$LT$T$GT$$u20$as$u20$core..iter..range..RangeIteratorImpl$GT$9spec_next17h123bd04ac89813bfE
	.loc	16 712 6
	addq	$16, %rsp
	popq	%rbp
	retq
Ltmp704:
Lfunc_end129:
	.cfi_endproc

	.globl	__ZN4core4iter6traits8iterator8Iterator3zip17hd3ac416dfeafe650E
	.p2align	4, 0x90
__ZN4core4iter6traits8iterator8Iterator3zip17hd3ac416dfeafe650E:
Lfunc_begin130:
	.file	37 "/rustc/2c8cc343237b8f7d5a3c3703e3a87f2eb2c54a74/library/core/src/iter/traits" "iterator.rs"
	.loc	37 623 0
	.cfi_startproc
	.cfi_personality 155, _rust_eh_personality
	.cfi_lsda 16, Lexception32
	pushq	%rbp
	.cfi_def_cfa_offset 16
	.cfi_offset %rbp, -16
	movq	%rsp, %rbp
	.cfi_def_cfa_register %rbp
	subq	$128, %rsp
	movq	%r8, -112(%rbp)
	movq	%rcx, -96(%rbp)
	movq	%rdx, -120(%rbp)
	movq	%rsi, %rax
	movq	-112(%rbp), %rsi
	movq	%rax, -104(%rbp)
	movq	%rdi, %rcx
	movq	-96(%rbp), %rdi
	movq	%rcx, -88(%rbp)
	movq	%rcx, -80(%rbp)
	movq	%rax, -48(%rbp)
	movq	%rdx, -40(%rbp)
	movq	%rdi, -32(%rbp)
	movq	%rsi, -24(%rbp)
Ltmp710:
	.loc	37 628 18 prologue_end
	movb	$1, -49(%rbp)
Ltmp705:
	.loc	37 628 24 is_stmt 0
	callq	__ZN63_$LT$I$u20$as$u20$core..iter..traits..collect..IntoIterator$GT$9into_iter17hce6c64c981f1ef36E
Ltmp706:
	movq	%rdx, -72(%rbp)
	movq	%rax, -64(%rbp)
	jmp	LBB130_3
LBB130_1:
	.loc	37 628 41
	testb	$1, -49(%rbp)
	jne	LBB130_6
	jmp	LBB130_5
LBB130_2:
Ltmp709:
	.loc	37 0 41
	movq	%rax, %rcx
	movl	%edx, %eax
	movq	%rcx, -16(%rbp)
	movl	%eax, -8(%rbp)
	jmp	LBB130_1
LBB130_3:
	movq	-72(%rbp), %r8
	movq	-64(%rbp), %rcx
	movq	-120(%rbp), %rdx
	movq	-104(%rbp), %rsi
	movq	-88(%rbp), %rdi
	.loc	37 628 9
	movb	$0, -49(%rbp)
Ltmp707:
	callq	__ZN4core4iter8adapters3zip16Zip$LT$A$C$B$GT$3new17h86602303582178b7E
Ltmp708:
	jmp	LBB130_4
LBB130_4:
	.loc	37 0 9
	movq	-80(%rbp), %rax
	.loc	37 629 6 is_stmt 1
	addq	$128, %rsp
	popq	%rbp
	retq
LBB130_5:
	.loc	37 623 5
	movq	-16(%rbp), %rdi
	callq	__Unwind_Resume
LBB130_6:
	.loc	37 628 41
	jmp	LBB130_5
Ltmp711:
Lfunc_end130:
	.cfi_endproc
	.section	__TEXT,__gcc_except_tab
	.p2align	2
GCC_except_table130:
Lexception32:
	.byte	255
	.byte	255
	.byte	1
	.uleb128 Lcst_end32-Lcst_begin32
Lcst_begin32:
	.uleb128 Ltmp705-Lfunc_begin130
	.uleb128 Ltmp708-Ltmp705
	.uleb128 Ltmp709-Lfunc_begin130
	.byte	0
	.uleb128 Ltmp708-Lfunc_begin130
	.uleb128 Lfunc_end130-Ltmp708
	.byte	0
	.byte	0
Lcst_end32:
	.p2align	2

	.section	__TEXT,__text,regular,pure_instructions
	.globl	__ZN4core4iter6traits8iterator8Iterator4fold17h4b122f0d610ed5dfE
	.p2align	4, 0x90
__ZN4core4iter6traits8iterator8Iterator4fold17h4b122f0d610ed5dfE:
Lfunc_begin131:
	.loc	37 2431 0
	.cfi_startproc
	.cfi_personality 155, _rust_eh_personality
	.cfi_lsda 16, Lexception33
	pushq	%rbp
	.cfi_def_cfa_offset 16
	.cfi_offset %rbp, -16
	movq	%rsp, %rbp
	.cfi_def_cfa_register %rbp
	subq	$128, %rsp
	movq	%rdi, -96(%rbp)
Ltmp717:
	movb	%sil, %al
Ltmp718:
	movb	%al, -33(%rbp)
Ltmp719:
	.loc	37 2436 25 prologue_end
	movb	$1, -34(%rbp)
	movb	%al, -81(%rbp)
Ltmp720:
LBB131_1:
Ltmp712:
	.loc	37 0 25 is_stmt 0
	movq	-96(%rbp), %rdi
Ltmp721:
	.loc	37 2437 29 is_stmt 1
	callq	__ZN102_$LT$core..iter..adapters..zip..Zip$LT$A$C$B$GT$$u20$as$u20$core..iter..traits..iterator..Iterator$GT$4next17ha5fd7db1827a4099E
Ltmp713:
	movq	%rdx, -112(%rbp)
	movq	%rax, -104(%rbp)
	jmp	LBB131_4
Ltmp722:
LBB131_2:
	.loc	37 2441 5
	testb	$1, -34(%rbp)
	jne	LBB131_11
	jmp	LBB131_10
Ltmp723:
LBB131_3:
Ltmp716:
	.loc	37 0 5 is_stmt 0
	movq	%rax, %rcx
	movl	%edx, %eax
	movq	%rcx, -32(%rbp)
	movl	%eax, -24(%rbp)
	jmp	LBB131_2
Ltmp724:
LBB131_4:
	movq	-112(%rbp), %rax
	movq	-104(%rbp), %rcx
Ltmp725:
	.loc	37 2437 29 is_stmt 1
	movq	%rcx, -80(%rbp)
	movq	%rax, -72(%rbp)
	.loc	37 2437 19 is_stmt 0
	movq	-80(%rbp), %rdx
	movl	$1, %eax
	xorl	%ecx, %ecx
	cmpq	$0, %rdx
	cmoveq	%rcx, %rax
	cmpq	$1, %rax
	jne	LBB131_6
Ltmp726:
	.loc	37 2437 24
	movq	-80(%rbp), %rcx
	movq	-72(%rbp), %rax
	movq	%rcx, -16(%rbp)
	movq	%rax, -8(%rbp)
	.loc	37 2438 23 is_stmt 1
	movb	$0, -34(%rbp)
	movb	-81(%rbp), %dl
	.loc	37 2438 21 is_stmt 0
	movb	%dl, -64(%rbp)
	movq	%rcx, -56(%rbp)
	movq	%rax, -48(%rbp)
	movq	-56(%rbp), %rdx
	movq	-48(%rbp), %rcx
	movl	-64(%rbp), %esi
Ltmp714:
	leaq	-88(%rbp), %rdi
	callq	__ZN4core3num7dec2flt6common9ByteSlice23starts_with_ignore_case28_$u7b$$u7b$closure$u7d$$u7d$17ha8cd2b194722dfa0E
Ltmp715:
	movb	%al, -113(%rbp)
	jmp	LBB131_9
Ltmp727:
LBB131_6:
	.loc	37 2437 9 is_stmt 1
	jmp	LBB131_7
Ltmp728:
LBB131_7:
	.loc	37 2441 5
	jmp	LBB131_8
Ltmp729:
LBB131_8:
	.loc	37 2441 6 is_stmt 0
	movb	-81(%rbp), %al
	addq	$128, %rsp
	popq	%rbp
	retq
Ltmp730:
LBB131_9:
	.loc	37 0 6
	movb	-113(%rbp), %al
Ltmp731:
	.loc	37 2438 13 is_stmt 1
	movb	$1, -34(%rbp)
	movb	%al, -81(%rbp)
Ltmp732:
	.loc	37 2437 9
	jmp	LBB131_1
Ltmp733:
LBB131_10:
	.loc	37 2441 5
	jmp	LBB131_12
Ltmp734:
LBB131_11:
	jmp	LBB131_10
Ltmp735:
LBB131_12:
	.loc	37 2431 5
	movq	-32(%rbp), %rdi
	callq	__Unwind_Resume
Ltmp736:
Lfunc_end131:
	.cfi_endproc
	.section	__TEXT,__gcc_except_tab
	.p2align	2
GCC_except_table131:
Lexception33:
	.byte	255
	.byte	255
	.byte	1
	.uleb128 Lcst_end33-Lcst_begin33
Lcst_begin33:
	.uleb128 Ltmp712-Lfunc_begin131
	.uleb128 Ltmp715-Ltmp712
	.uleb128 Ltmp716-Lfunc_begin131
	.byte	0
	.uleb128 Ltmp715-Lfunc_begin131
	.uleb128 Lfunc_end131-Ltmp715
	.byte	0
	.byte	0
Lcst_end33:
	.p2align	2

	.section	__TEXT,__text,regular,pure_instructions
	.globl	__ZN4core4iter6traits8iterator8Iterator9enumerate17ha4191d4228a0b5bdE
	.p2align	4, 0x90
__ZN4core4iter6traits8iterator8Iterator9enumerate17ha4191d4228a0b5bdE:
Lfunc_begin132:
	.loc	37 993 0
	.cfi_startproc
	pushq	%rbp
	.cfi_def_cfa_offset 16
	.cfi_offset %rbp, -16
	movq	%rsp, %rbp
	.cfi_def_cfa_register %rbp
	subq	$32, %rsp
	movq	%rdi, %rax
	movq	%rax, -24(%rbp)
	movq	%rsi, -16(%rbp)
	movq	%rdx, -8(%rbp)
Ltmp737:
	.loc	37 997 9 prologue_end
	callq	__ZN4core4iter8adapters9enumerate18Enumerate$LT$I$GT$3new17hfd106a31c8681a97E
	movq	-24(%rbp), %rax
	.loc	37 998 6
	addq	$32, %rsp
	popq	%rbp
	retq
Ltmp738:
Lfunc_end132:
	.cfi_endproc

	.globl	__ZN4core4iter8adapters3zip16Zip$LT$A$C$B$GT$3new17h86602303582178b7E
	.p2align	4, 0x90
__ZN4core4iter8adapters3zip16Zip$LT$A$C$B$GT$3new17h86602303582178b7E:
Lfunc_begin133:
	.loc	1 22 0
	.cfi_startproc
	pushq	%rbp
	.cfi_def_cfa_offset 16
	.cfi_offset %rbp, -16
	movq	%rsp, %rbp
	.cfi_def_cfa_register %rbp
	subq	$48, %rsp
	movq	%rdi, %rax
	movq	%rax, -40(%rbp)
	movq	%rsi, -32(%rbp)
	movq	%rdx, -24(%rbp)
	movq	%rcx, -16(%rbp)
	movq	%r8, -8(%rbp)
Ltmp739:
	.loc	1 23 9 prologue_end
	callq	__ZN111_$LT$core..iter..adapters..zip..Zip$LT$A$C$B$GT$$u20$as$u20$core..iter..adapters..zip..ZipImpl$LT$A$C$B$GT$$GT$3new17h5af1451ae0076e45E
	movq	-40(%rbp), %rax
	.loc	1 24 6
	addq	$48, %rsp
	popq	%rbp
	retq
Ltmp740:
Lfunc_end133:
	.cfi_endproc

	.globl	__ZN4core4iter8adapters3zip27TrustedRandomAccessNoCoerce4size17h2d1609098a88e88bE
	.p2align	4, 0x90
__ZN4core4iter8adapters3zip27TrustedRandomAccessNoCoerce4size17h2d1609098a88e88bE:
Lfunc_begin134:
	.loc	1 538 0
	.cfi_startproc
	pushq	%rbp
	.cfi_def_cfa_offset 16
	.cfi_offset %rbp, -16
	movq	%rsp, %rbp
	.cfi_def_cfa_register %rbp
	subq	$32, %rsp
	movq	%rdi, %rsi
	movq	%rsi, -8(%rbp)
Ltmp741:
	.loc	1 542 9 prologue_end
	leaq	-32(%rbp), %rdi
	callq	__ZN91_$LT$core..slice..iter..Iter$LT$T$GT$$u20$as$u20$core..iter..traits..iterator..Iterator$GT$9size_hint17hfa62176670bea47bE
	movq	-32(%rbp), %rax
	.loc	1 543 6
	addq	$32, %rsp
	popq	%rbp
	retq
Ltmp742:
Lfunc_end134:
	.cfi_endproc

	.globl	__ZN4core4iter8adapters9enumerate18Enumerate$LT$I$GT$3new17hfd106a31c8681a97E
	.p2align	4, 0x90
__ZN4core4iter8adapters9enumerate18Enumerate$LT$I$GT$3new17hfd106a31c8681a97E:
Lfunc_begin135:
	.loc	6 22 0
	.cfi_startproc
	pushq	%rbp
	.cfi_def_cfa_offset 16
	.cfi_offset %rbp, -16
	movq	%rsp, %rbp
	.cfi_def_cfa_register %rbp
	subq	$16, %rsp
	movq	%rdi, %rax
	movq	%rsi, -16(%rbp)
	movq	%rdx, -8(%rbp)
Ltmp743:
	.loc	6 23 9 prologue_end
	movq	%rsi, (%rdi)
	movq	%rdx, 8(%rdi)
	movq	$0, 16(%rdi)
	.loc	6 24 6
	addq	$16, %rsp
	popq	%rbp
	retq
Ltmp744:
Lfunc_end135:
	.cfi_endproc

	.p2align	4, 0x90
__ZN4core5alloc6layout6Layout5array5inner17h78a3a71ed3c11f51E:
Lfunc_begin136:
	.file	38 "/rustc/2c8cc343237b8f7d5a3c3703e3a87f2eb2c54a74/library/core/src/alloc" "layout.rs"
	.loc	38 441 0
	.cfi_startproc
	pushq	%rbp
	.cfi_def_cfa_offset 16
	.cfi_offset %rbp, -16
	movq	%rsp, %rbp
	.cfi_def_cfa_register %rbp
	subq	$176, %rsp
	movq	%rdi, -168(%rbp)
	movq	%rsi, -160(%rbp)
	movq	%rdx, -152(%rbp)
	movq	%rdi, -88(%rbp)
	movq	%rsi, -80(%rbp)
	movq	%rdx, -72(%rbp)
Ltmp745:
	.loc	38 452 16 prologue_end
	cmpq	$0, %rdi
	jne	LBB136_2
	movb	$0, -121(%rbp)
	jmp	LBB136_5
LBB136_2:
	.loc	38 0 16 is_stmt 0
	movq	-168(%rbp), %rax
	movq	-160(%rbp), %rcx
	.loc	38 452 68
	movq	%rcx, -64(%rbp)
Ltmp746:
	.loc	38 93 32 is_stmt 1
	movq	%rcx, -56(%rbp)
Ltmp747:
	.file	39 "/rustc/2c8cc343237b8f7d5a3c3703e3a87f2eb2c54a74/library/core/src/ptr" "alignment.rs"
	.loc	39 97 9
	movq	%rcx, -104(%rbp)
	movq	-104(%rbp), %rdx
Ltmp748:
	.loc	38 93 31
	subq	$1, %rdx
	.loc	38 93 9 is_stmt 0
	movabsq	$9223372036854775807, %rcx
	subq	%rdx, %rcx
	movq	%rcx, -176(%rbp)
Ltmp749:
	.loc	38 452 41 is_stmt 1
	cmpq	$0, %rax
	sete	%al
	testb	$1, %al
	jne	LBB136_4
	.loc	38 0 41 is_stmt 0
	movq	-168(%rbp), %rcx
	movq	-176(%rbp), %rax
	.loc	38 452 41
	xorl	%edx, %edx
	divq	%rcx
	movq	%rax, %rcx
	movq	-152(%rbp), %rax
	.loc	38 452 37
	cmpq	%rcx, %rax
	seta	%al
	.loc	38 452 16
	andb	$1, %al
	movb	%al, -121(%rbp)
	jmp	LBB136_5
LBB136_4:
	.loc	38 452 41
	leaq	_str.1(%rip), %rdi
	leaq	l___unnamed_20(%rip), %rdx
	movl	$25, %esi
	callq	__ZN4core9panicking5panic17hc1bc45270cf64b03E
LBB136_5:
	.loc	38 452 16
	testb	$1, -121(%rbp)
	jne	LBB136_7
	.loc	38 0 16
	movq	-160(%rbp), %rax
	movq	-152(%rbp), %rdx
	movq	-168(%rbp), %rcx
	.loc	38 456 30 is_stmt 1
	imulq	%rdx, %rcx
	movq	%rcx, -48(%rbp)
Ltmp750:
	.loc	38 461 59
	movq	%rcx, -40(%rbp)
	.loc	38 461 71 is_stmt 0
	movq	%rax, -32(%rbp)
Ltmp751:
	.loc	39 97 9 is_stmt 1
	movq	%rax, -96(%rbp)
	movq	-96(%rbp), %rax
	movq	%rax, -24(%rbp)
Ltmp752:
	.loc	38 120 65
	movq	%rax, -16(%rbp)
Ltmp753:
	.loc	39 89 18
	movq	%rax, -8(%rbp)
	movq	-8(%rbp), %rax
Ltmp754:
	.loc	38 120 18
	movq	%rcx, -120(%rbp)
	movq	%rax, -112(%rbp)
Ltmp755:
	.loc	38 461 22
	movq	-120(%rbp), %rcx
	movq	-112(%rbp), %rax
	movq	%rcx, -144(%rbp)
	movq	%rax, -136(%rbp)
Ltmp756:
	.loc	38 462 10
	jmp	LBB136_8
LBB136_7:
	.loc	38 453 24
	movq	$0, -136(%rbp)
LBB136_8:
	.loc	38 462 10
	movq	-144(%rbp), %rax
	movq	-136(%rbp), %rdx
	addq	$176, %rsp
	popq	%rbp
	retq
Ltmp757:
Lfunc_end136:
	.cfi_endproc

	.globl	__ZN4core5array106_$LT$impl$u20$core..iter..traits..collect..IntoIterator$u20$for$u20$$RF$mut$u20$$u5b$T$u3b$$u20$N$u5d$$GT$9into_iter17h2150bdb80ae71714E
	.p2align	4, 0x90
__ZN4core5array106_$LT$impl$u20$core..iter..traits..collect..IntoIterator$u20$for$u20$$RF$mut$u20$$u5b$T$u3b$$u20$N$u5d$$GT$9into_iter17h2150bdb80ae71714E:
Lfunc_begin137:
	.file	40 "/rustc/2c8cc343237b8f7d5a3c3703e3a87f2eb2c54a74/library/core/src/array" "mod.rs"
	.loc	40 343 0
	.cfi_startproc
	pushq	%rbp
	.cfi_def_cfa_offset 16
	.cfi_offset %rbp, -16
	movq	%rsp, %rbp
	.cfi_def_cfa_register %rbp
	subq	$32, %rsp
	movq	%rdi, -24(%rbp)
Ltmp758:
	.loc	40 344 9 prologue_end
	movq	%rdi, -16(%rbp)
	movq	$15, -8(%rbp)
	movl	$15, %esi
Ltmp759:
	.loc	15 761 9
	callq	__ZN4core5slice4iter16IterMut$LT$T$GT$3new17hd8d27c2d9cfdaf35E
Ltmp760:
	.loc	40 345 6
	addq	$32, %rsp
	popq	%rbp
	retq
Ltmp761:
Lfunc_end137:
	.cfi_endproc

	.globl	__ZN4core5array69_$LT$impl$u20$core..fmt..Debug$u20$for$u20$$u5b$T$u3b$$u20$N$u5d$$GT$3fmt17h968d68b56ed736deE
	.p2align	4, 0x90
__ZN4core5array69_$LT$impl$u20$core..fmt..Debug$u20$for$u20$$u5b$T$u3b$$u20$N$u5d$$GT$3fmt17h968d68b56ed736deE:
Lfunc_begin138:
	.loc	40 323 0
	.cfi_startproc
	pushq	%rbp
	.cfi_def_cfa_offset 16
	.cfi_offset %rbp, -16
	movq	%rsp, %rbp
	.cfi_def_cfa_register %rbp
	subq	$80, %rsp
	movq	%rsi, -80(%rbp)
	movq	%rdi, -56(%rbp)
	movq	%rsi, -48(%rbp)
Ltmp762:
	.loc	40 324 27 prologue_end
	movq	%rdi, -24(%rbp)
Ltmp763:
	.loc	40 358 22
	movq	%rdi, -16(%rbp)
	movq	$2, -8(%rbp)
Ltmp764:
	.loc	2 18 9
	movl	$2, %esi
	leaq	l___unnamed_21(%rip), %rdx
	callq	__ZN97_$LT$core..ops..range..RangeFull$u20$as$u20$core..slice..index..SliceIndex$LT$$u5b$T$u5d$$GT$$GT$5index17h96418feac60fede1E
	movq	-80(%rbp), %rsi
Ltmp765:
	.loc	40 324 26
	movq	%rax, -72(%rbp)
	movq	%rdx, -64(%rbp)
	.loc	40 324 9 is_stmt 0
	leaq	-72(%rbp), %rdi
	callq	__ZN42_$LT$$RF$T$u20$as$u20$core..fmt..Debug$GT$3fmt17h5ec4f94fb7814b84E
	.loc	40 325 6 is_stmt 1
	andb	$1, %al
	movzbl	%al, %eax
	addq	$80, %rsp
	popq	%rbp
	retq
Ltmp766:
Lfunc_end138:
	.cfi_endproc

	.globl	__ZN4core5slice29_$LT$impl$u20$$u5b$T$u5d$$GT$4iter17he35d407d60064e75E
	.p2align	4, 0x90
__ZN4core5slice29_$LT$impl$u20$$u5b$T$u5d$$GT$4iter17he35d407d60064e75E:
Lfunc_begin139:
	.loc	15 741 0
	.cfi_startproc
	pushq	%rbp
	.cfi_def_cfa_offset 16
	.cfi_offset %rbp, -16
	movq	%rsp, %rbp
	.cfi_def_cfa_register %rbp
	subq	$16, %rsp
	movq	%rdi, -16(%rbp)
	movq	%rsi, -8(%rbp)
Ltmp767:
	.loc	15 742 9 prologue_end
	callq	__ZN4core5slice4iter13Iter$LT$T$GT$3new17hb9ec07b20f63a1f0E
	.loc	15 743 6
	addq	$16, %rsp
	popq	%rbp
	retq
Ltmp768:
Lfunc_end139:
	.cfi_endproc

	.globl	__ZN4core5slice4iter13Iter$LT$T$GT$3new17h454de8a9909defc9E
	.p2align	4, 0x90
__ZN4core5slice4iter13Iter$LT$T$GT$3new17h454de8a9909defc9E:
Lfunc_begin140:
	.file	41 "/rustc/2c8cc343237b8f7d5a3c3703e3a87f2eb2c54a74/library/core/src/slice" "iter.rs"
	.loc	41 82 0
	.cfi_startproc
	pushq	%rbp
	.cfi_def_cfa_offset 16
	.cfi_offset %rbp, -16
	movq	%rsp, %rbp
	.cfi_def_cfa_register %rbp
	subq	$280, %rsp
	movq	%rdi, -280(%rbp)
	movq	%rsi, -272(%rbp)
	movq	%rdi, -208(%rbp)
	movq	%rsi, -200(%rbp)
Ltmp769:
	.loc	41 83 19 prologue_end
	movq	%rdi, -184(%rbp)
	movq	%rsi, -176(%rbp)
Ltmp770:
	.loc	15 477 9
	movq	%rdi, -168(%rbp)
Ltmp771:
	.loc	41 86 21
	movq	%rdi, -160(%rbp)
Ltmp772:
	.loc	3 53 36
	movq	%rdi, -232(%rbp)
	.loc	3 53 18 is_stmt 0
	movq	-232(%rbp), %rax
	movq	%rax, -152(%rbp)
Ltmp773:
	.loc	3 39 13 is_stmt 1
	movq	%rax, -144(%rbp)
Ltmp774:
	.loc	3 209 33
	movq	%rax, -136(%rbp)
	.loc	3 209 18 is_stmt 0
	movq	%rax, -128(%rbp)
Ltmp775:
	.loc	41 89 20 is_stmt 1
	xorl	%eax, %eax
	testb	$1, %al
	jne	LBB140_2
	.loc	41 0 20 is_stmt 0
	movq	-272(%rbp), %rcx
	movq	-280(%rbp), %rax
	.loc	41 89 76
	movq	%rax, -40(%rbp)
	.loc	41 89 84
	movq	%rcx, -32(%rbp)
Ltmp776:
	.loc	3 932 18 is_stmt 1
	movq	%rax, -24(%rbp)
	.loc	3 932 30 is_stmt 0
	movq	%rcx, -16(%rbp)
Ltmp777:
	.loc	3 473 18 is_stmt 1
	addq	%rcx, %rax
	movq	%rax, -248(%rbp)
Ltmp778:
	.loc	41 89 17
	jmp	LBB140_3
LBB140_2:
	.loc	41 0 17 is_stmt 0
	movq	-272(%rbp), %rcx
	movq	-280(%rbp), %rax
	.loc	41 89 32
	movq	%rax, -120(%rbp)
	.loc	41 89 54
	movq	%rcx, -112(%rbp)
Ltmp779:
	.loc	3 1118 9 is_stmt 1
	movq	%rax, -104(%rbp)
Ltmp780:
	.loc	3 61 9
	movq	%rax, -96(%rbp)
Ltmp781:
	.loc	3 1118 40
	movq	%rcx, -88(%rbp)
Ltmp782:
	.loc	3 1100 9
	movq	%rax, -80(%rbp)
	.loc	3 1100 30 is_stmt 0
	movq	%rcx, -72(%rbp)
Ltmp783:
	.loc	3 555 18 is_stmt 1
	addq	%rcx, %rax
	movq	%rax, -64(%rbp)
	movq	-64(%rbp), %rax
	movq	%rax, -56(%rbp)
Ltmp784:
	.loc	3 100 29
	movq	%rax, -48(%rbp)
Ltmp785:
	.loc	5 118 36
	movq	%rax, -216(%rbp)
	.loc	5 118 14 is_stmt 0
	movq	-216(%rbp), %rax
	movq	%rax, -224(%rbp)
	movq	-224(%rbp), %rax
	movq	%rax, -248(%rbp)
Ltmp786:
LBB140_3:
	.loc	5 0 14
	movq	-280(%rbp), %rax
Ltmp787:
	.loc	41 91 48 is_stmt 1
	movq	%rax, -8(%rbp)
Ltmp788:
	.loc	9 201 13
	movq	%rax, -240(%rbp)
Ltmp789:
	.loc	41 91 64
	movq	-248(%rbp), %rax
	.loc	41 91 13 is_stmt 0
	movq	-240(%rbp), %rcx
	movq	%rcx, -256(%rbp)
	movq	%rax, -264(%rbp)
Ltmp790:
	.loc	41 93 6 is_stmt 1
	movq	-264(%rbp), %rax
	movq	-256(%rbp), %rdx
	addq	$280, %rsp
	popq	%rbp
	retq
Ltmp791:
Lfunc_end140:
	.cfi_endproc

	.globl	__ZN4core5slice4iter13Iter$LT$T$GT$3new17h46d5ea04fd13a0b7E
	.p2align	4, 0x90
__ZN4core5slice4iter13Iter$LT$T$GT$3new17h46d5ea04fd13a0b7E:
Lfunc_begin141:
	.loc	41 82 0
	.cfi_startproc
	pushq	%rbp
	.cfi_def_cfa_offset 16
	.cfi_offset %rbp, -16
	movq	%rsp, %rbp
	.cfi_def_cfa_register %rbp
	subq	$280, %rsp
	movq	%rdi, -280(%rbp)
	movq	%rsi, -272(%rbp)
	movq	%rdi, -208(%rbp)
	movq	%rsi, -200(%rbp)
Ltmp792:
	.loc	41 83 19 prologue_end
	movq	%rdi, -184(%rbp)
	movq	%rsi, -176(%rbp)
Ltmp793:
	.loc	15 477 9
	movq	%rdi, -168(%rbp)
Ltmp794:
	.loc	41 86 21
	movq	%rdi, -160(%rbp)
Ltmp795:
	.loc	3 53 36
	movq	%rdi, -232(%rbp)
	.loc	3 53 18 is_stmt 0
	movq	-232(%rbp), %rax
	movq	%rax, -152(%rbp)
Ltmp796:
	.loc	3 39 13 is_stmt 1
	movq	%rax, -144(%rbp)
Ltmp797:
	.loc	3 209 33
	movq	%rax, -136(%rbp)
	.loc	3 209 18 is_stmt 0
	movq	%rax, -128(%rbp)
Ltmp798:
	.loc	41 89 20 is_stmt 1
	xorl	%eax, %eax
	testb	$1, %al
	jne	LBB141_2
	.loc	41 0 20 is_stmt 0
	movq	-280(%rbp), %rax
	movq	-272(%rbp), %rcx
	.loc	41 89 76
	movq	%rax, -40(%rbp)
	.loc	41 89 84
	movq	%rcx, -32(%rbp)
Ltmp799:
	.loc	3 932 18 is_stmt 1
	movq	%rax, -24(%rbp)
	.loc	3 932 30 is_stmt 0
	movq	%rcx, -16(%rbp)
Ltmp800:
	.loc	3 473 18 is_stmt 1
	shlq	$3, %rcx
	addq	%rcx, %rax
	movq	%rax, -248(%rbp)
Ltmp801:
	.loc	41 89 17
	jmp	LBB141_3
LBB141_2:
	.loc	41 0 17 is_stmt 0
	movq	-272(%rbp), %rcx
	movq	-280(%rbp), %rax
	.loc	41 89 32
	movq	%rax, -120(%rbp)
	.loc	41 89 54
	movq	%rcx, -112(%rbp)
Ltmp802:
	.loc	3 1118 9 is_stmt 1
	movq	%rax, -104(%rbp)
Ltmp803:
	.loc	3 61 9
	movq	%rax, -96(%rbp)
Ltmp804:
	.loc	3 1118 40
	movq	%rcx, -88(%rbp)
Ltmp805:
	.loc	3 1100 9
	movq	%rax, -80(%rbp)
	.loc	3 1100 30 is_stmt 0
	movq	%rcx, -72(%rbp)
Ltmp806:
	.loc	3 555 18 is_stmt 1
	addq	%rcx, %rax
	movq	%rax, -64(%rbp)
	movq	-64(%rbp), %rax
	movq	%rax, -56(%rbp)
Ltmp807:
	.loc	3 100 29
	movq	%rax, -48(%rbp)
Ltmp808:
	.loc	5 118 36
	movq	%rax, -216(%rbp)
	.loc	5 118 14 is_stmt 0
	movq	-216(%rbp), %rax
	movq	%rax, -224(%rbp)
	movq	-224(%rbp), %rax
	movq	%rax, -248(%rbp)
Ltmp809:
LBB141_3:
	.loc	5 0 14
	movq	-280(%rbp), %rax
Ltmp810:
	.loc	41 91 48 is_stmt 1
	movq	%rax, -8(%rbp)
Ltmp811:
	.loc	9 201 13
	movq	%rax, -240(%rbp)
Ltmp812:
	.loc	41 91 64
	movq	-248(%rbp), %rax
	.loc	41 91 13 is_stmt 0
	movq	-240(%rbp), %rcx
	movq	%rcx, -256(%rbp)
	movq	%rax, -264(%rbp)
Ltmp813:
	.loc	41 93 6 is_stmt 1
	movq	-264(%rbp), %rax
	movq	-256(%rbp), %rdx
	addq	$280, %rsp
	popq	%rbp
	retq
Ltmp814:
Lfunc_end141:
	.cfi_endproc

	.globl	__ZN4core5slice4iter13Iter$LT$T$GT$3new17haf1ca6d9fb1babb7E
	.p2align	4, 0x90
__ZN4core5slice4iter13Iter$LT$T$GT$3new17haf1ca6d9fb1babb7E:
Lfunc_begin142:
	.loc	41 82 0
	.cfi_startproc
	pushq	%rbp
	.cfi_def_cfa_offset 16
	.cfi_offset %rbp, -16
	movq	%rsp, %rbp
	.cfi_def_cfa_register %rbp
	subq	$280, %rsp
	movq	%rdi, -280(%rbp)
	movq	%rsi, -272(%rbp)
	movq	%rdi, -208(%rbp)
	movq	%rsi, -200(%rbp)
Ltmp815:
	.loc	41 83 19 prologue_end
	movq	%rdi, -184(%rbp)
	movq	%rsi, -176(%rbp)
Ltmp816:
	.loc	15 477 9
	movq	%rdi, -168(%rbp)
Ltmp817:
	.loc	41 86 21
	movq	%rdi, -160(%rbp)
Ltmp818:
	.loc	3 53 36
	movq	%rdi, -232(%rbp)
	.loc	3 53 18 is_stmt 0
	movq	-232(%rbp), %rax
	movq	%rax, -152(%rbp)
Ltmp819:
	.loc	3 39 13 is_stmt 1
	movq	%rax, -144(%rbp)
Ltmp820:
	.loc	3 209 33
	movq	%rax, -136(%rbp)
	.loc	3 209 18 is_stmt 0
	movq	%rax, -128(%rbp)
Ltmp821:
	.loc	41 89 20 is_stmt 1
	xorl	%eax, %eax
	testb	$1, %al
	jne	LBB142_2
	.loc	41 0 20 is_stmt 0
	movq	-272(%rbp), %rcx
	movq	-280(%rbp), %rax
	.loc	41 89 76
	movq	%rax, -40(%rbp)
	.loc	41 89 84
	movq	%rcx, -32(%rbp)
Ltmp822:
	.loc	3 932 18 is_stmt 1
	movq	%rax, -24(%rbp)
	.loc	3 932 30 is_stmt 0
	movq	%rcx, -16(%rbp)
Ltmp823:
	.loc	3 473 18 is_stmt 1
	addq	%rcx, %rax
	movq	%rax, -248(%rbp)
Ltmp824:
	.loc	41 89 17
	jmp	LBB142_3
LBB142_2:
	.loc	41 0 17 is_stmt 0
	movq	-272(%rbp), %rcx
	movq	-280(%rbp), %rax
	.loc	41 89 32
	movq	%rax, -120(%rbp)
	.loc	41 89 54
	movq	%rcx, -112(%rbp)
Ltmp825:
	.loc	3 1118 9 is_stmt 1
	movq	%rax, -104(%rbp)
Ltmp826:
	.loc	3 61 9
	movq	%rax, -96(%rbp)
Ltmp827:
	.loc	3 1118 40
	movq	%rcx, -88(%rbp)
Ltmp828:
	.loc	3 1100 9
	movq	%rax, -80(%rbp)
	.loc	3 1100 30 is_stmt 0
	movq	%rcx, -72(%rbp)
Ltmp829:
	.loc	3 555 18 is_stmt 1
	addq	%rcx, %rax
	movq	%rax, -64(%rbp)
	movq	-64(%rbp), %rax
	movq	%rax, -56(%rbp)
Ltmp830:
	.loc	3 100 29
	movq	%rax, -48(%rbp)
Ltmp831:
	.loc	5 118 36
	movq	%rax, -216(%rbp)
	.loc	5 118 14 is_stmt 0
	movq	-216(%rbp), %rax
	movq	%rax, -224(%rbp)
	movq	-224(%rbp), %rax
	movq	%rax, -248(%rbp)
Ltmp832:
LBB142_3:
	.loc	5 0 14
	movq	-280(%rbp), %rax
Ltmp833:
	.loc	41 91 48 is_stmt 1
	movq	%rax, -8(%rbp)
Ltmp834:
	.loc	9 201 13
	movq	%rax, -240(%rbp)
Ltmp835:
	.loc	41 91 64
	movq	-248(%rbp), %rax
	.loc	41 91 13 is_stmt 0
	movq	-240(%rbp), %rcx
	movq	%rcx, -256(%rbp)
	movq	%rax, -264(%rbp)
Ltmp836:
	.loc	41 93 6 is_stmt 1
	movq	-264(%rbp), %rax
	movq	-256(%rbp), %rdx
	addq	$280, %rsp
	popq	%rbp
	retq
Ltmp837:
Lfunc_end142:
	.cfi_endproc

	.globl	__ZN4core5slice4iter13Iter$LT$T$GT$3new17hb9ec07b20f63a1f0E
	.p2align	4, 0x90
__ZN4core5slice4iter13Iter$LT$T$GT$3new17hb9ec07b20f63a1f0E:
Lfunc_begin143:
	.loc	41 82 0
	.cfi_startproc
	pushq	%rbp
	.cfi_def_cfa_offset 16
	.cfi_offset %rbp, -16
	movq	%rsp, %rbp
	.cfi_def_cfa_register %rbp
	subq	$280, %rsp
	movq	%rdi, -280(%rbp)
	movq	%rsi, -272(%rbp)
	movq	%rdi, -208(%rbp)
	movq	%rsi, -200(%rbp)
Ltmp838:
	.loc	41 83 19 prologue_end
	movq	%rdi, -184(%rbp)
	movq	%rsi, -176(%rbp)
Ltmp839:
	.loc	15 477 9
	movq	%rdi, -168(%rbp)
Ltmp840:
	.loc	41 86 21
	movq	%rdi, -160(%rbp)
Ltmp841:
	.loc	3 53 36
	movq	%rdi, -232(%rbp)
	.loc	3 53 18 is_stmt 0
	movq	-232(%rbp), %rax
	movq	%rax, -152(%rbp)
Ltmp842:
	.loc	3 39 13 is_stmt 1
	movq	%rax, -144(%rbp)
Ltmp843:
	.loc	3 209 33
	movq	%rax, -136(%rbp)
	.loc	3 209 18 is_stmt 0
	movq	%rax, -128(%rbp)
Ltmp844:
	.loc	41 89 20 is_stmt 1
	xorl	%eax, %eax
	testb	$1, %al
	jne	LBB143_2
	.loc	41 0 20 is_stmt 0
	movq	-280(%rbp), %rax
	movq	-272(%rbp), %rcx
	.loc	41 89 76
	movq	%rax, -40(%rbp)
	.loc	41 89 84
	movq	%rcx, -32(%rbp)
Ltmp845:
	.loc	3 932 18 is_stmt 1
	movq	%rax, -24(%rbp)
	.loc	3 932 30 is_stmt 0
	movq	%rcx, -16(%rbp)
Ltmp846:
	.loc	3 473 18 is_stmt 1
	shlq	$2, %rcx
	addq	%rcx, %rax
	movq	%rax, -248(%rbp)
Ltmp847:
	.loc	41 89 17
	jmp	LBB143_3
LBB143_2:
	.loc	41 0 17 is_stmt 0
	movq	-272(%rbp), %rcx
	movq	-280(%rbp), %rax
	.loc	41 89 32
	movq	%rax, -120(%rbp)
	.loc	41 89 54
	movq	%rcx, -112(%rbp)
Ltmp848:
	.loc	3 1118 9 is_stmt 1
	movq	%rax, -104(%rbp)
Ltmp849:
	.loc	3 61 9
	movq	%rax, -96(%rbp)
Ltmp850:
	.loc	3 1118 40
	movq	%rcx, -88(%rbp)
Ltmp851:
	.loc	3 1100 9
	movq	%rax, -80(%rbp)
	.loc	3 1100 30 is_stmt 0
	movq	%rcx, -72(%rbp)
Ltmp852:
	.loc	3 555 18 is_stmt 1
	addq	%rcx, %rax
	movq	%rax, -64(%rbp)
	movq	-64(%rbp), %rax
	movq	%rax, -56(%rbp)
Ltmp853:
	.loc	3 100 29
	movq	%rax, -48(%rbp)
Ltmp854:
	.loc	5 118 36
	movq	%rax, -216(%rbp)
	.loc	5 118 14 is_stmt 0
	movq	-216(%rbp), %rax
	movq	%rax, -224(%rbp)
	movq	-224(%rbp), %rax
	movq	%rax, -248(%rbp)
Ltmp855:
LBB143_3:
	.loc	5 0 14
	movq	-280(%rbp), %rax
Ltmp856:
	.loc	41 91 48 is_stmt 1
	movq	%rax, -8(%rbp)
Ltmp857:
	.loc	9 201 13
	movq	%rax, -240(%rbp)
Ltmp858:
	.loc	41 91 64
	movq	-248(%rbp), %rax
	.loc	41 91 13 is_stmt 0
	movq	-240(%rbp), %rcx
	movq	%rcx, -256(%rbp)
	movq	%rax, -264(%rbp)
Ltmp859:
	.loc	41 93 6 is_stmt 1
	movq	-264(%rbp), %rax
	movq	-256(%rbp), %rdx
	addq	$280, %rsp
	popq	%rbp
	retq
Ltmp860:
Lfunc_end143:
	.cfi_endproc

	.globl	__ZN4core5slice4iter16IterMut$LT$T$GT$3new17hd8d27c2d9cfdaf35E
	.p2align	4, 0x90
__ZN4core5slice4iter16IterMut$LT$T$GT$3new17hd8d27c2d9cfdaf35E:
Lfunc_begin144:
	.loc	41 203 0
	.cfi_startproc
	pushq	%rbp
	.cfi_def_cfa_offset 16
	.cfi_offset %rbp, -16
	movq	%rsp, %rbp
	.cfi_def_cfa_register %rbp
	subq	$288, %rsp
	movq	%rdi, -288(%rbp)
	movq	%rsi, -280(%rbp)
	movq	%rdi, -216(%rbp)
	movq	%rsi, -208(%rbp)
Ltmp861:
	.loc	41 204 19 prologue_end
	movq	%rdi, -192(%rbp)
	movq	%rsi, -184(%rbp)
Ltmp862:
	.loc	15 507 9
	movq	%rdi, -176(%rbp)
Ltmp863:
	.loc	41 222 21
	movq	%rdi, -168(%rbp)
Ltmp864:
	.loc	35 52 36
	movq	%rdi, -240(%rbp)
	.loc	35 52 18 is_stmt 0
	movq	-240(%rbp), %rax
	movq	%rax, -160(%rbp)
Ltmp865:
	.loc	35 38 13 is_stmt 1
	movq	%rax, -152(%rbp)
Ltmp866:
	.loc	35 215 33
	movq	%rax, -144(%rbp)
	.loc	35 215 18 is_stmt 0
	movq	%rax, -136(%rbp)
Ltmp867:
	.loc	41 225 20 is_stmt 1
	xorl	%eax, %eax
	testb	$1, %al
	jne	LBB144_2
	.loc	41 0 20 is_stmt 0
	movq	-288(%rbp), %rax
	movq	-280(%rbp), %rcx
	.loc	41 225 76
	movq	%rax, -48(%rbp)
	.loc	41 225 84
	movq	%rcx, -40(%rbp)
Ltmp868:
	.loc	35 1034 18 is_stmt 1
	movq	%rax, -32(%rbp)
	.loc	35 1034 30 is_stmt 0
	movq	%rcx, -24(%rbp)
Ltmp869:
	.loc	35 487 18 is_stmt 1
	shlq	$2, %rcx
	addq	%rcx, %rax
	movq	%rax, -16(%rbp)
	movq	-16(%rbp), %rax
	movq	%rax, -256(%rbp)
Ltmp870:
	.loc	41 225 17
	jmp	LBB144_3
LBB144_2:
	.loc	41 0 17 is_stmt 0
	movq	-280(%rbp), %rcx
	movq	-288(%rbp), %rax
	.loc	41 225 32
	movq	%rax, -128(%rbp)
	.loc	41 225 54
	movq	%rcx, -120(%rbp)
Ltmp871:
	.loc	35 1220 9 is_stmt 1
	movq	%rax, -112(%rbp)
Ltmp872:
	.loc	35 60 9
	movq	%rax, -104(%rbp)
Ltmp873:
	.loc	35 1220 40
	movq	%rcx, -96(%rbp)
Ltmp874:
	.loc	35 1202 9
	movq	%rax, -88(%rbp)
	.loc	35 1202 30 is_stmt 0
	movq	%rcx, -80(%rbp)
Ltmp875:
	.loc	35 568 18 is_stmt 1
	addq	%rcx, %rax
	movq	%rax, -72(%rbp)
	movq	-72(%rbp), %rax
	movq	%rax, -64(%rbp)
Ltmp876:
	.loc	35 99 33
	movq	%rax, -56(%rbp)
Ltmp877:
	.loc	5 135 36
	movq	%rax, -224(%rbp)
	.loc	5 135 14 is_stmt 0
	movq	-224(%rbp), %rax
	movq	%rax, -232(%rbp)
	movq	-232(%rbp), %rax
	movq	%rax, -256(%rbp)
Ltmp878:
LBB144_3:
	.loc	5 0 14
	movq	-288(%rbp), %rax
Ltmp879:
	.loc	41 227 48 is_stmt 1
	movq	%rax, -8(%rbp)
Ltmp880:
	.loc	9 201 13
	movq	%rax, -248(%rbp)
Ltmp881:
	.loc	41 227 54
	movq	-256(%rbp), %rax
	.loc	41 227 13 is_stmt 0
	movq	-248(%rbp), %rcx
	movq	%rcx, -264(%rbp)
	movq	%rax, -272(%rbp)
Ltmp882:
	.loc	41 229 6 is_stmt 1
	movq	-272(%rbp), %rax
	movq	-264(%rbp), %rdx
	addq	$288, %rsp
	popq	%rbp
	retq
Ltmp883:
Lfunc_end144:
	.cfi_endproc

	.globl	__ZN4core5slice4iter87_$LT$impl$u20$core..iter..traits..collect..IntoIterator$u20$for$u20$$RF$$u5b$T$u5d$$GT$9into_iter17h2808855cfa86abc4E
	.p2align	4, 0x90
__ZN4core5slice4iter87_$LT$impl$u20$core..iter..traits..collect..IntoIterator$u20$for$u20$$RF$$u5b$T$u5d$$GT$9into_iter17h2808855cfa86abc4E:
Lfunc_begin145:
	.loc	41 23 0
	.cfi_startproc
	pushq	%rbp
	.cfi_def_cfa_offset 16
	.cfi_offset %rbp, -16
	movq	%rsp, %rbp
	.cfi_def_cfa_register %rbp
	subq	$32, %rsp
	movq	%rdi, -32(%rbp)
	movq	%rsi, -24(%rbp)
Ltmp884:
	.loc	41 24 9 prologue_end
	movq	%rdi, -16(%rbp)
	movq	%rsi, -8(%rbp)
Ltmp885:
	.loc	15 742 9
	callq	__ZN4core5slice4iter13Iter$LT$T$GT$3new17h46d5ea04fd13a0b7E
Ltmp886:
	.loc	41 25 6
	addq	$32, %rsp
	popq	%rbp
	retq
Ltmp887:
Lfunc_end145:
	.cfi_endproc

	.globl	__ZN4core6option15Option$LT$T$GT$11map_or_else17h2087ee9aa7c4fc9bE
	.p2align	4, 0x90
__ZN4core6option15Option$LT$T$GT$11map_or_else17h2087ee9aa7c4fc9bE:
Lfunc_begin146:
	.loc	7 1055 0
	.cfi_startproc
	.cfi_personality 155, _rust_eh_personality
	.cfi_lsda 16, Lexception34
	pushq	%rbp
	.cfi_def_cfa_offset 16
	.cfi_offset %rbp, -16
	movq	%rsp, %rbp
	.cfi_def_cfa_register %rbp
	subq	$112, %rsp
	movq	%rcx, -112(%rbp)
	movq	%rdi, -104(%rbp)
	movq	%rdi, -96(%rbp)
	movq	%rsi, -88(%rbp)
	movq	%rdx, -80(%rbp)
	movq	%rcx, -48(%rbp)
Ltmp893:
	.loc	7 1062 15 prologue_end
	movb	$1, -49(%rbp)
	movb	$1, -50(%rbp)
	movq	-88(%rbp), %rdx
	movl	$1, %eax
	xorl	%ecx, %ecx
	cmpq	$0, %rdx
	cmoveq	%rcx, %rax
	.loc	7 1062 9 is_stmt 0
	cmpq	$0, %rax
	jne	LBB146_2
	.loc	7 0 9
	movq	-112(%rbp), %rsi
	movq	-104(%rbp), %rdi
	.loc	7 1064 21 is_stmt 1
	movb	$0, -49(%rbp)
Ltmp890:
	callq	__ZN5alloc3fmt6format28_$u7b$$u7b$closure$u7d$$u7d$17hb4d9d8314c1b0441E
Ltmp891:
	jmp	LBB146_7
LBB146_2:
	.loc	7 0 21 is_stmt 0
	movq	-104(%rbp), %rdi
	.loc	7 1063 18 is_stmt 1
	movq	-88(%rbp), %rcx
	movq	-80(%rbp), %rax
	movq	%rcx, -32(%rbp)
	movq	%rax, -24(%rbp)
Ltmp894:
	.loc	7 1063 24 is_stmt 0
	movb	$0, -50(%rbp)
	movq	%rcx, -72(%rbp)
	movq	%rax, -64(%rbp)
	movq	-72(%rbp), %rsi
	movq	-64(%rbp), %rdx
Ltmp888:
	callq	__ZN4core3ops8function6FnOnce9call_once17hc6db7768786f5a07E
Ltmp889:
	jmp	LBB146_5
Ltmp895:
LBB146_3:
	.loc	7 1066 5 is_stmt 1
	testb	$1, -50(%rbp)
	jne	LBB146_9
	jmp	LBB146_8
LBB146_4:
Ltmp892:
	.loc	7 0 5 is_stmt 0
	movq	%rax, %rcx
	movl	%edx, %eax
	movq	%rcx, -16(%rbp)
	movl	%eax, -8(%rbp)
	jmp	LBB146_3
LBB146_5:
	.loc	7 1063 27 is_stmt 1
	jmp	LBB146_6
LBB146_6:
	.loc	7 1066 5
	testb	$1, -50(%rbp)
	jne	LBB146_11
	jmp	LBB146_10
LBB146_7:
	.loc	7 1064 29
	jmp	LBB146_6
LBB146_8:
	.loc	7 1066 5
	testb	$1, -49(%rbp)
	jne	LBB146_13
	jmp	LBB146_12
LBB146_9:
	jmp	LBB146_8
LBB146_10:
	testb	$1, -49(%rbp)
	jne	LBB146_15
	jmp	LBB146_14
LBB146_11:
	jmp	LBB146_10
LBB146_12:
	.loc	7 1055 5
	movq	-16(%rbp), %rdi
	callq	__Unwind_Resume
LBB146_13:
	.loc	7 1066 5
	jmp	LBB146_12
LBB146_14:
	.loc	7 0 5 is_stmt 0
	movq	-96(%rbp), %rax
	.loc	7 1066 6
	addq	$112, %rsp
	popq	%rbp
	retq
LBB146_15:
	.loc	7 1066 5
	jmp	LBB146_14
Ltmp896:
Lfunc_end146:
	.cfi_endproc
	.section	__TEXT,__gcc_except_tab
	.p2align	2
GCC_except_table146:
Lexception34:
	.byte	255
	.byte	255
	.byte	1
	.uleb128 Lcst_end34-Lcst_begin34
Lcst_begin34:
	.uleb128 Ltmp890-Lfunc_begin146
	.uleb128 Ltmp889-Ltmp890
	.uleb128 Ltmp892-Lfunc_begin146
	.byte	0
	.uleb128 Ltmp889-Lfunc_begin146
	.uleb128 Lfunc_end146-Ltmp889
	.byte	0
	.byte	0
Lcst_end34:
	.p2align	2

	.section	__TEXT,__text,regular,pure_instructions
	.globl	__ZN4core6result19Result$LT$T$C$E$GT$16unwrap_unchecked17h961d47ec67ef8464E
	.p2align	4, 0x90
__ZN4core6result19Result$LT$T$C$E$GT$16unwrap_unchecked17h961d47ec67ef8464E:
Lfunc_begin147:
	.file	42 "/rustc/2c8cc343237b8f7d5a3c3703e3a87f2eb2c54a74/library/core/src" "result.rs"
	.loc	42 1530 0 is_stmt 1
	.cfi_startproc
	.cfi_personality 155, _rust_eh_personality
	.cfi_lsda 16, Lexception35
	pushq	%rbp
	.cfi_def_cfa_offset 16
	.cfi_offset %rbp, -16
	movq	%rsp, %rbp
	.cfi_def_cfa_register %rbp
	subq	$64, %rsp
	movq	%rdi, -48(%rbp)
	movq	%rsi, -40(%rbp)
Ltmp900:
	.loc	42 1532 15 prologue_end
	xorl	%eax, %eax
	movl	$1, %ecx
	cmpq	$0, -40(%rbp)
	cmoveq	%rcx, %rax
	.loc	42 1532 9 is_stmt 0
	cmpq	$0, %rax
	jne	LBB147_2
	.loc	42 1533 16 is_stmt 1
	movq	-48(%rbp), %rcx
	movq	%rcx, -64(%rbp)
	movq	-40(%rbp), %rax
	movq	%rax, -56(%rbp)
	movq	%rcx, -16(%rbp)
	movq	%rax, -8(%rbp)
	.loc	42 1537 5
	xorl	%eax, %eax
	movl	$1, %ecx
	cmpq	$0, -40(%rbp)
	cmoveq	%rcx, %rax
	cmpq	$0, %rax
	je	LBB147_10
	jmp	LBB147_11
LBB147_2:
Ltmp897:
	.loc	42 1535 32
	callq	__ZN4core4hint21unreachable_unchecked17haba66997e3d0f11dE
Ltmp898:
	jmp	LBB147_5
LBB147_3:
	.loc	42 1537 5
	xorl	%eax, %eax
	movl	$1, %ecx
	cmpq	$0, -40(%rbp)
	cmoveq	%rcx, %rax
	cmpq	$0, %rax
	je	LBB147_6
	jmp	LBB147_7
LBB147_4:
Ltmp899:
	.loc	42 0 5 is_stmt 0
	movq	%rax, %rcx
	movl	%edx, %eax
	movq	%rcx, -32(%rbp)
	movl	%eax, -24(%rbp)
	jmp	LBB147_3
LBB147_5:
	ud2
LBB147_6:
	.loc	42 1537 5
	movb	$1, %al
	testb	$1, %al
	jne	LBB147_9
	jmp	LBB147_8
LBB147_7:
	jmp	LBB147_8
LBB147_8:
	.loc	42 1530 5 is_stmt 1
	movq	-32(%rbp), %rdi
	callq	__Unwind_Resume
LBB147_9:
	.loc	42 1537 5
	jmp	LBB147_8
LBB147_10:
	.loc	42 0 5 is_stmt 0
	movq	-56(%rbp), %rdx
	movq	-64(%rbp), %rax
	.loc	42 1537 6
	addq	$64, %rsp
	popq	%rbp
	retq
LBB147_11:
	.loc	42 1537 5
	jmp	LBB147_10
Ltmp901:
Lfunc_end147:
	.cfi_endproc
	.section	__TEXT,__gcc_except_tab
	.p2align	2
GCC_except_table147:
Lexception35:
	.byte	255
	.byte	255
	.byte	1
	.uleb128 Lcst_end35-Lcst_begin35
Lcst_begin35:
	.uleb128 Ltmp897-Lfunc_begin147
	.uleb128 Ltmp898-Ltmp897
	.uleb128 Ltmp899-Lfunc_begin147
	.byte	0
	.uleb128 Ltmp898-Lfunc_begin147
	.uleb128 Lfunc_end147-Ltmp898
	.byte	0
	.byte	0
Lcst_end35:
	.p2align	2

	.section	__TEXT,__text,regular,pure_instructions
	.globl	__ZN4core6result19Result$LT$T$C$E$GT$6unwrap17h7a0ec24e9f0c042bE
	.p2align	4, 0x90
__ZN4core6result19Result$LT$T$C$E$GT$6unwrap17h7a0ec24e9f0c042bE:
Lfunc_begin148:
	.loc	42 1106 0 is_stmt 1
	.cfi_startproc
	.cfi_personality 155, _rust_eh_personality
	.cfi_lsda 16, Lexception36
	pushq	%rbp
	.cfi_def_cfa_offset 16
	.cfi_offset %rbp, -16
	movq	%rsp, %rbp
	.cfi_def_cfa_register %rbp
	subq	$64, %rsp
	movq	%rsi, -56(%rbp)
	movq	%rdi, -40(%rbp)
	movq	-40(%rbp), %rax
	movq	%rax, -48(%rbp)
Ltmp905:
	.loc	42 1110 15 prologue_end
	movb	-48(%rbp), %al
	andb	$1, %al
	movzbl	%al, %eax
	.loc	42 1110 9 is_stmt 0
	cmpq	$0, %rax
	jne	LBB148_2
	.loc	42 1111 16 is_stmt 1
	movss	-44(%rbp), %xmm0
	movss	%xmm0, -4(%rbp)
	.loc	42 1114 6
	addq	$64, %rsp
	popq	%rbp
	retq
LBB148_2:
	.loc	42 0 6 is_stmt 0
	movq	-56(%rbp), %r8
	.loc	42 1112 17 is_stmt 1
	movb	-47(%rbp), %al
	movb	%al, -25(%rbp)
Ltmp902:
Ltmp906:
	.loc	42 1112 23 is_stmt 0
	leaq	l___unnamed_22(%rip), %rdi
	leaq	l___unnamed_2(%rip), %rcx
	movl	$43, %esi
	leaq	-25(%rbp), %rdx
	callq	__ZN4core6result13unwrap_failed17h533573e6d3b6061cE
Ltmp903:
	jmp	LBB148_5
Ltmp907:
LBB148_3:
	.loc	42 1106 5 is_stmt 1
	movq	-24(%rbp), %rdi
	callq	__Unwind_Resume
Ltmp908:
LBB148_4:
Ltmp904:
	.loc	42 0 5 is_stmt 0
	movq	%rax, %rcx
	movl	%edx, %eax
	movq	%rcx, -24(%rbp)
	movl	%eax, -16(%rbp)
	jmp	LBB148_3
LBB148_5:
	ud2
Lfunc_end148:
	.cfi_endproc
	.section	__TEXT,__gcc_except_tab
	.p2align	2
GCC_except_table148:
Lexception36:
	.byte	255
	.byte	255
	.byte	1
	.uleb128 Lcst_end36-Lcst_begin36
Lcst_begin36:
	.uleb128 Ltmp902-Lfunc_begin148
	.uleb128 Ltmp903-Ltmp902
	.uleb128 Ltmp904-Lfunc_begin148
	.byte	0
	.uleb128 Ltmp903-Lfunc_begin148
	.uleb128 Lfunc_end148-Ltmp903
	.byte	0
	.byte	0
Lcst_end36:
	.p2align	2

	.section	__TEXT,__text,regular,pure_instructions
	.globl	__ZN4core6result19Result$LT$T$C$E$GT$9unwrap_or17h2a2c1c5a90abcba4E
	.p2align	4, 0x90
__ZN4core6result19Result$LT$T$C$E$GT$9unwrap_or17h2a2c1c5a90abcba4E:
Lfunc_begin149:
	.loc	42 1472 0 is_stmt 1
	.cfi_startproc
	pushq	%rbp
	.cfi_def_cfa_offset 16
	.cfi_offset %rbp, -16
	movq	%rsp, %rbp
	.cfi_def_cfa_register %rbp
	subq	$56, %rsp
	movq	%rdi, -56(%rbp)
Ltmp909:
	movsd	%xmm0, -48(%rbp)
Ltmp910:
	movsd	%xmm0, -24(%rbp)
Ltmp911:
	.loc	42 1477 15 prologue_end
	movb	$1, -25(%rbp)
	movb	(%rdi), %al
	andb	$1, %al
	movzbl	%al, %eax
	.loc	42 1477 9 is_stmt 0
	cmpq	$0, %rax
Ltmp912:
	jne	LBB149_2
Ltmp913:
	.loc	42 0 9
	movq	-56(%rbp), %rax
	.loc	42 1478 16 is_stmt 1
	movsd	8(%rax), %xmm0
	movsd	%xmm0, -8(%rbp)
Ltmp914:
	.loc	42 1478 22 is_stmt 0
	movsd	%xmm0, -40(%rbp)
Ltmp915:
	.loc	42 1478 22
	jmp	LBB149_3
Ltmp916:
LBB149_2:
	.loc	42 0 22
	movsd	-48(%rbp), %xmm0
	movq	-56(%rbp), %rax
	.loc	42 1481 17 is_stmt 1
	movb	1(%rax), %al
	andb	$1, %al
	movb	%al, -9(%rbp)
Ltmp917:
	.loc	42 1481 23 is_stmt 0
	movb	$0, -25(%rbp)
	movsd	%xmm0, -40(%rbp)
Ltmp918:
LBB149_3:
	.loc	42 1483 5 is_stmt 1
	testb	$1, -25(%rbp)
	jne	LBB149_5
Ltmp919:
LBB149_4:
	.loc	42 1483 6 is_stmt 0
	movsd	-40(%rbp), %xmm0
	addq	$56, %rsp
	popq	%rbp
	retq
Ltmp920:
LBB149_5:
	.loc	42 1483 5
	jmp	LBB149_4
Ltmp921:
Lfunc_end149:
	.cfi_endproc

	.globl	__ZN50_$LT$T$u20$as$u20$core..convert..Into$LT$U$GT$$GT$4into17h38caed117bd605adE
	.p2align	4, 0x90
__ZN50_$LT$T$u20$as$u20$core..convert..Into$LT$U$GT$$GT$4into17h38caed117bd605adE:
Lfunc_begin150:
	.file	43 "/rustc/2c8cc343237b8f7d5a3c3703e3a87f2eb2c54a74/library/core/src/convert" "mod.rs"
	.loc	43 725 0 is_stmt 1
	.cfi_startproc
	pushq	%rbp
	.cfi_def_cfa_offset 16
	.cfi_offset %rbp, -16
	movq	%rsp, %rbp
	.cfi_def_cfa_register %rbp
	subq	$16, %rsp
	movq	%rdi, -8(%rbp)
Ltmp922:
	.loc	43 726 9 prologue_end
	callq	__ZN119_$LT$core..ptr..non_null..NonNull$LT$T$GT$$u20$as$u20$core..convert..From$LT$core..ptr..unique..Unique$LT$T$GT$$GT$$GT$4from17h528381143f68961aE
	.loc	43 727 6
	addq	$16, %rsp
	popq	%rbp
	retq
Ltmp923:
Lfunc_end150:
	.cfi_endproc

	.globl	__ZN52_$LT$T$u20$as$u20$alloc..slice..hack..ConvertVec$GT$6to_vec17h5a81a37f7accfb1eE
	.p2align	4, 0x90
__ZN52_$LT$T$u20$as$u20$alloc..slice..hack..ConvertVec$GT$6to_vec17h5a81a37f7accfb1eE:
Lfunc_begin151:
	.file	44 "/rustc/2c8cc343237b8f7d5a3c3703e3a87f2eb2c54a74/library/alloc/src" "slice.rs"
	.loc	44 161 0
	.cfi_startproc
	.cfi_personality 155, _rust_eh_personality
	.cfi_lsda 16, Lexception37
	pushq	%rbp
	.cfi_def_cfa_offset 16
	.cfi_offset %rbp, -16
	movq	%rsp, %rbp
	.cfi_def_cfa_register %rbp
	subq	$448, %rsp
	movq	%rdx, -432(%rbp)
	movq	%rsi, -424(%rbp)
	movq	%rdi, -416(%rbp)
	movq	%rdi, -408(%rbp)
	movq	%rsi, -320(%rbp)
	movq	%rdx, -312(%rbp)
Ltmp927:
	.loc	44 162 47 prologue_end
	movq	%rsi, -280(%rbp)
	movq	%rdx, -272(%rbp)
Ltmp928:
	.loc	15 137 23
	movq	%rsi, -264(%rbp)
	movq	%rdx, -256(%rbp)
Ltmp929:
	.loc	5 98 14
	movq	%rsi, -384(%rbp)
	movq	%rdx, -376(%rbp)
	movq	-376(%rbp), %rdi
	movq	%rdi, -248(%rbp)
Ltmp930:
	.file	45 "/rustc/2c8cc343237b8f7d5a3c3703e3a87f2eb2c54a74/library/alloc/src/vec" "mod.rs"
	.loc	45 676 45
	movq	%rdi, -240(%rbp)
Ltmp931:
	.file	46 "/rustc/2c8cc343237b8f7d5a3c3703e3a87f2eb2c54a74/library/alloc/src" "raw_vec.rs"
	.loc	46 131 37
	movb	$0, -361(%rbp)
	.loc	46 131 9 is_stmt 0
	movzbl	-361(%rbp), %esi
Ltmp924:
	callq	__ZN5alloc7raw_vec19RawVec$LT$T$C$A$GT$11allocate_in17h6d0a60ea14039117E
Ltmp925:
	movq	%rdx, -400(%rbp)
	movq	%rax, -392(%rbp)
	jmp	LBB151_3
Ltmp932:
LBB151_1:
	.loc	44 171 9 is_stmt 1
	xorl	%eax, %eax
	testb	$1, %al
	jne	LBB151_6
	jmp	LBB151_5
LBB151_2:
Ltmp926:
	.loc	44 0 9 is_stmt 0
	movq	%rax, %rcx
	movl	%edx, %eax
	movq	%rcx, -232(%rbp)
	movl	%eax, -224(%rbp)
	jmp	LBB151_1
LBB151_3:
Ltmp933:
	movq	-416(%rbp), %rax
	movq	-424(%rbp), %rcx
	movq	-432(%rbp), %rdx
	movq	-400(%rbp), %rsi
	movq	-392(%rbp), %rdi
Ltmp934:
	.loc	45 676 9 is_stmt 1
	movq	%rdi, (%rax)
	movq	%rsi, 8(%rax)
	movq	$0, 16(%rax)
Ltmp935:
	.loc	44 167 17
	movq	%rcx, -216(%rbp)
	movq	%rdx, -208(%rbp)
Ltmp936:
	.loc	15 477 9
	movq	%rcx, -200(%rbp)
Ltmp937:
	.loc	44 167 51
	movq	%rax, -192(%rbp)
Ltmp938:
	.loc	45 1280 19
	movq	%rax, -184(%rbp)
Ltmp939:
	.loc	46 224 9
	movq	8(%rax), %rax
	movq	%rax, -440(%rbp)
	movq	%rax, -176(%rbp)
Ltmp940:
	.loc	10 104 9
	movq	%rax, -168(%rbp)
Ltmp941:
	.loc	9 326 9
	movq	%rax, -160(%rbp)
Ltmp942:
	.loc	45 1282 21
	movq	%rax, -152(%rbp)
Ltmp943:
	.loc	35 52 36
	movq	%rax, -360(%rbp)
	.loc	35 52 18 is_stmt 0
	movq	-360(%rbp), %rax
	movq	%rax, -144(%rbp)
Ltmp944:
	.loc	35 38 13 is_stmt 1
	movq	%rax, -136(%rbp)
Ltmp945:
	.loc	35 215 33
	movq	%rax, -128(%rbp)
	.loc	35 215 18 is_stmt 0
	movq	%rax, -120(%rbp)
	movq	-120(%rbp), %rax
Ltmp946:
	.loc	35 0 18
	movq	-432(%rbp), %rax
	movq	-424(%rbp), %rsi
	movq	-440(%rbp), %rdi
	.loc	44 167 67 is_stmt 1
	movq	%rsi, -112(%rbp)
	movq	%rax, -104(%rbp)
Ltmp947:
	.loc	15 137 23
	movq	%rsi, -96(%rbp)
	movq	%rax, -88(%rbp)
Ltmp948:
	.loc	5 98 14
	movq	%rsi, -352(%rbp)
	movq	%rax, -344(%rbp)
	movq	-344(%rbp), %rdx
	movq	%rdx, -80(%rbp)
Ltmp949:
	.loc	3 1297 38
	movq	%rsi, -72(%rbp)
	.loc	3 1297 44 is_stmt 0
	movq	%rdi, -64(%rbp)
	.loc	3 1297 50
	movq	%rdx, -56(%rbp)
Ltmp950:
	.file	47 "/rustc/2c8cc343237b8f7d5a3c3703e3a87f2eb2c54a74/library/core/src" "intrinsics.rs"
	.loc	47 2372 9 is_stmt 1
	shlq	$0, %rdx
	callq	_memcpy
	movq	-424(%rbp), %rsi
	movq	-432(%rbp), %rdx
	movq	-416(%rbp), %rcx
	movq	-408(%rbp), %rax
Ltmp951:
	.loc	44 168 17
	movq	%rcx, -48(%rbp)
	.loc	44 168 27 is_stmt 0
	movq	%rsi, -40(%rbp)
	movq	%rdx, -32(%rbp)
Ltmp952:
	.loc	15 137 23 is_stmt 1
	movq	%rsi, -24(%rbp)
	movq	%rdx, -16(%rbp)
Ltmp953:
	.loc	5 98 14
	movq	%rsi, -336(%rbp)
	movq	%rdx, -328(%rbp)
	movq	-328(%rbp), %rdx
	movq	%rdx, -8(%rbp)
Ltmp954:
	.loc	45 1377 9
	movq	%rdx, 16(%rcx)
Ltmp955:
	.loc	44 171 10
	addq	$448, %rsp
	popq	%rbp
	retq
Ltmp956:
LBB151_5:
	.loc	44 161 9
	movq	-232(%rbp), %rdi
	callq	__Unwind_Resume
LBB151_6:
	.loc	44 171 9
	jmp	LBB151_5
Ltmp957:
Lfunc_end151:
	.cfi_endproc
	.section	__TEXT,__gcc_except_tab
	.p2align	2
GCC_except_table151:
Lexception37:
	.byte	255
	.byte	255
	.byte	1
	.uleb128 Lcst_end37-Lcst_begin37
Lcst_begin37:
	.uleb128 Ltmp924-Lfunc_begin151
	.uleb128 Ltmp925-Ltmp924
	.uleb128 Ltmp926-Lfunc_begin151
	.byte	0
	.uleb128 Ltmp925-Lfunc_begin151
	.uleb128 Lfunc_end151-Ltmp925
	.byte	0
	.byte	0
Lcst_end37:
	.p2align	2

	.section	__TEXT,__text,regular,pure_instructions
	.p2align	4, 0x90
__ZN5alloc3fmt6format17heabb873bfaa4b5f9E:
Lfunc_begin152:
	.file	48 "/rustc/2c8cc343237b8f7d5a3c3703e3a87f2eb2c54a74/library/alloc/src" "fmt.rs"
	.loc	48 608 0
	.cfi_startproc
	pushq	%rbp
	.cfi_def_cfa_offset 16
	.cfi_offset %rbp, -16
	movq	%rsp, %rbp
	.cfi_def_cfa_register %rbp
	subq	$32, %rsp
	movq	%rsi, -24(%rbp)
	movq	%rdi, %rax
	movq	-24(%rbp), %rdi
	movq	%rax, -32(%rbp)
	movq	%rax, -16(%rbp)
Ltmp958:
	.loc	48 616 5 prologue_end
	callq	__ZN4core3fmt9Arguments6as_str17hf29644ea0421be4aE
	movq	-32(%rbp), %rdi
	movq	%rax, %rsi
	movq	-24(%rbp), %rax
	.loc	48 616 31 is_stmt 0
	movq	%rax, -8(%rbp)
	.loc	48 616 5
	movq	-8(%rbp), %rcx
	callq	__ZN4core6option15Option$LT$T$GT$11map_or_else17h2087ee9aa7c4fc9bE
	movq	-16(%rbp), %rax
	.loc	48 617 2 is_stmt 1
	addq	$32, %rsp
	popq	%rbp
	retq
Ltmp959:
Lfunc_end152:
	.cfi_endproc

	.globl	__ZN5alloc3fmt6format28_$u7b$$u7b$closure$u7d$$u7d$17hb4d9d8314c1b0441E
	.p2align	4, 0x90
__ZN5alloc3fmt6format28_$u7b$$u7b$closure$u7d$$u7d$17hb4d9d8314c1b0441E:
Lfunc_begin153:
	.loc	48 616 0
	.cfi_startproc
	pushq	%rbp
	.cfi_def_cfa_offset 16
	.cfi_offset %rbp, -16
	movq	%rsp, %rbp
	.cfi_def_cfa_register %rbp
	subq	$80, %rsp
	movq	%rdi, -72(%rbp)
	movq	%rdi, -64(%rbp)
	movq	%rsi, -56(%rbp)
Ltmp960:
	.loc	48 616 47 prologue_end
	movq	-56(%rbp), %rsi
	leaq	-48(%rbp), %rdi
	movl	$48, %edx
	callq	_memcpy
	movq	-72(%rbp), %rdi
	.loc	48 616 34 is_stmt 0
	leaq	-48(%rbp), %rsi
	callq	__ZN5alloc3fmt6format12format_inner17h5f9de3df5d2b13c6E
	movq	-64(%rbp), %rax
	.loc	48 616 52
	addq	$80, %rsp
	popq	%rbp
	retq
Ltmp961:
Lfunc_end153:
	.cfi_endproc

	.p2align	4, 0x90
__ZN5alloc3str56_$LT$impl$u20$alloc..borrow..ToOwned$u20$for$u20$str$GT$8to_owned17h6e04941bf133a121E:
Lfunc_begin154:
	.file	49 "/rustc/2c8cc343237b8f7d5a3c3703e3a87f2eb2c54a74/library/alloc/src" "str.rs"
	.loc	49 208 0 is_stmt 1
	.cfi_startproc
	pushq	%rbp
	.cfi_def_cfa_offset 16
	.cfi_offset %rbp, -16
	movq	%rsp, %rbp
	.cfi_def_cfa_register %rbp
	subq	$112, %rsp
	movq	%rdi, -112(%rbp)
	movq	%rdi, -104(%rbp)
	movq	%rsi, -48(%rbp)
	movq	%rdx, -40(%rbp)
Ltmp962:
	.loc	49 209 46 prologue_end
	movq	%rsi, -32(%rbp)
	movq	%rdx, -24(%rbp)
Ltmp963:
	.loc	32 327 18
	movq	%rsi, -16(%rbp)
	movq	%rdx, -8(%rbp)
	movq	-16(%rbp), %rsi
	movq	-8(%rbp), %rdx
Ltmp964:
	.loc	49 209 46
	leaq	-96(%rbp), %rdi
	callq	__ZN5alloc5slice64_$LT$impl$u20$alloc..borrow..ToOwned$u20$for$u20$$u5b$T$u5d$$GT$8to_owned17h300779e38a80b2b2E
	movq	-112(%rbp), %rdi
	movq	-104(%rbp), %rax
Ltmp965:
	.file	50 "/rustc/2c8cc343237b8f7d5a3c3703e3a87f2eb2c54a74/library/alloc/src" "string.rs"
	.loc	50 846 23
	movq	-96(%rbp), %rcx
	movq	%rcx, -72(%rbp)
	movq	-88(%rbp), %rcx
	movq	%rcx, -64(%rbp)
	movq	-80(%rbp), %rcx
	movq	%rcx, -56(%rbp)
	.loc	50 846 9 is_stmt 0
	movq	-72(%rbp), %rcx
	movq	%rcx, (%rdi)
	movq	-64(%rbp), %rcx
	movq	%rcx, 8(%rdi)
	movq	-56(%rbp), %rcx
	movq	%rcx, 16(%rdi)
Ltmp966:
	.loc	49 210 6 is_stmt 1
	addq	$112, %rsp
	popq	%rbp
	retq
Ltmp967:
Lfunc_end154:
	.cfi_endproc

	.p2align	4, 0x90
__ZN5alloc5alloc6Global10alloc_impl17h2252a27d3b5fa2acE:
Lfunc_begin155:
	.file	51 "/rustc/2c8cc343237b8f7d5a3c3703e3a87f2eb2c54a74/library/alloc/src" "alloc.rs"
	.loc	51 172 0
	.cfi_startproc
	pushq	%rbp
	.cfi_def_cfa_offset 16
	.cfi_offset %rbp, -16
	movq	%rsp, %rbp
	.cfi_def_cfa_register %rbp
	subq	$352, %rsp
	movb	%cl, %al
	movb	%al, -345(%rbp)
	movq	%rsi, -336(%rbp)
	movq	%rdx, -328(%rbp)
	movq	%rdi, -208(%rbp)
	andb	$1, %al
	movb	%al, -193(%rbp)
Ltmp968:
	.loc	51 173 15 prologue_end
	leaq	-336(%rbp), %rax
	movq	%rax, -144(%rbp)
Ltmp969:
	.loc	38 129 9
	movq	-336(%rbp), %rax
	movq	%rax, -344(%rbp)
Ltmp970:
	.loc	51 173 9
	cmpq	$0, %rax
	jne	LBB155_2
	.loc	51 174 51
	leaq	-336(%rbp), %rax
	movq	%rax, -48(%rbp)
Ltmp971:
	.loc	38 216 71
	leaq	-336(%rbp), %rax
	movq	%rax, -40(%rbp)
Ltmp972:
	.loc	38 140 9
	movq	-328(%rbp), %rax
	movq	%rax, -32(%rbp)
Ltmp973:
	.loc	39 97 9
	movq	%rax, -232(%rbp)
	movq	-232(%rbp), %rax
	movq	%rax, -24(%rbp)
Ltmp974:
	.loc	4 599 14
	movq	%rax, -16(%rbp)
	movq	-16(%rbp), %rax
	movq	%rax, -8(%rbp)
Ltmp975:
	.loc	9 201 13
	movq	%rax, -304(%rbp)
Ltmp976:
	.loc	51 174 21
	movq	-304(%rbp), %rdi
	xorl	%eax, %eax
	movl	%eax, %esi
	callq	__ZN4core3ptr8non_null26NonNull$LT$$u5b$T$u5d$$GT$20slice_from_raw_parts17h4fc8e3745b36481dE
	.loc	51 174 18 is_stmt 0
	movq	%rax, -320(%rbp)
	movq	%rdx, -312(%rbp)
	.loc	51 174 72
	jmp	LBB155_15
LBB155_2:
	.loc	51 0 72
	movb	-345(%rbp), %al
	movq	-344(%rbp), %rcx
	.loc	51 176 13 is_stmt 1
	movq	%rcx, -136(%rbp)
Ltmp977:
	.loc	51 177 34
	testb	$1, %al
	jne	LBB155_4
	.loc	51 177 79 is_stmt 0
	movq	-336(%rbp), %rcx
	movq	-328(%rbp), %rax
	movq	%rcx, -272(%rbp)
	movq	%rax, -264(%rbp)
Ltmp978:
	.loc	51 95 27 is_stmt 1
	leaq	-272(%rbp), %rax
	movq	%rax, -104(%rbp)
Ltmp979:
	.loc	38 129 9
	movq	-272(%rbp), %rdi
Ltmp980:
	.loc	51 95 42
	leaq	-272(%rbp), %rax
	movq	%rax, -96(%rbp)
Ltmp981:
	.loc	38 140 9
	movq	-264(%rbp), %rax
	movq	%rax, -88(%rbp)
Ltmp982:
	.loc	39 97 9
	movq	%rax, -216(%rbp)
	movq	-216(%rbp), %rsi
Ltmp983:
	.loc	51 95 14
	callq	___rust_alloc
	movq	%rax, -296(%rbp)
Ltmp984:
	.loc	51 177 31
	jmp	LBB155_5
LBB155_4:
	.loc	51 177 56 is_stmt 0
	movq	-336(%rbp), %rcx
	movq	-328(%rbp), %rax
	movq	%rcx, -288(%rbp)
	movq	%rax, -280(%rbp)
Ltmp985:
	.loc	51 166 34 is_stmt 1
	leaq	-288(%rbp), %rax
	movq	%rax, -128(%rbp)
Ltmp986:
	.loc	38 129 9
	movq	-288(%rbp), %rdi
Ltmp987:
	.loc	51 166 49
	leaq	-288(%rbp), %rax
	movq	%rax, -120(%rbp)
Ltmp988:
	.loc	38 140 9
	movq	-280(%rbp), %rax
	movq	%rax, -112(%rbp)
Ltmp989:
	.loc	39 97 9
	movq	%rax, -224(%rbp)
	movq	-224(%rbp), %rsi
Ltmp990:
	.loc	51 166 14
	callq	___rust_alloc_zeroed
	movq	%rax, -296(%rbp)
Ltmp991:
LBB155_5:
	.loc	51 178 40
	movq	-296(%rbp), %rdi
	.loc	51 178 27 is_stmt 0
	callq	__ZN4core3ptr8non_null16NonNull$LT$T$GT$3new17h6b681fc35919bbbbE
	movq	%rax, -240(%rbp)
Ltmp992:
	.loc	7 1096 15 is_stmt 1
	movq	-240(%rbp), %rdx
	movl	$1, %eax
	xorl	%ecx, %ecx
	cmpq	$0, %rdx
	cmoveq	%rcx, %rax
	.loc	7 1096 9 is_stmt 0
	cmpq	$0, %rax
	jne	LBB155_7
	.loc	7 1098 21 is_stmt 1
	movq	$0, -248(%rbp)
	.loc	7 1098 28 is_stmt 0
	jmp	LBB155_8
LBB155_7:
	.loc	7 1097 18 is_stmt 1
	movq	-240(%rbp), %rax
	movq	%rax, -80(%rbp)
Ltmp993:
	.loc	7 1097 24 is_stmt 0
	movq	%rax, -248(%rbp)
Ltmp994:
LBB155_8:
	.loc	42 2091 15 is_stmt 1
	movq	-248(%rbp), %rdx
	xorl	%eax, %eax
	movl	$1, %ecx
	cmpq	$0, %rdx
	cmoveq	%rcx, %rax
	.loc	42 2091 9 is_stmt 0
	cmpq	$0, %rax
	jne	LBB155_10
	.loc	42 2092 16 is_stmt 1
	movq	-248(%rbp), %rax
	movq	%rax, -72(%rbp)
Ltmp995:
	.loc	42 2092 22 is_stmt 0
	movq	%rax, -256(%rbp)
Ltmp996:
	.loc	42 2092 45
	jmp	LBB155_11
LBB155_10:
Ltmp997:
	.loc	42 2093 23 is_stmt 1
	movq	$0, -256(%rbp)
Ltmp998:
LBB155_11:
	.loc	51 178 27
	movq	-256(%rbp), %rdx
	xorl	%eax, %eax
	movl	$1, %ecx
	cmpq	$0, %rdx
	cmoveq	%rcx, %rax
	cmpq	$0, %rax
	jne	LBB155_13
	.loc	51 0 27 is_stmt 0
	movq	-344(%rbp), %rsi
	.loc	51 178 27
	movq	-256(%rbp), %rdi
	movq	%rdi, -64(%rbp)
Ltmp999:
	.loc	51 178 27
	movq	%rdi, -56(%rbp)
Ltmp1000:
	.loc	51 179 20 is_stmt 1
	callq	__ZN4core3ptr8non_null26NonNull$LT$$u5b$T$u5d$$GT$20slice_from_raw_parts17h4fc8e3745b36481dE
	.loc	51 179 17 is_stmt 0
	movq	%rax, -320(%rbp)
	movq	%rdx, -312(%rbp)
Ltmp1001:
	.loc	51 180 13 is_stmt 1
	jmp	LBB155_15
LBB155_13:
Ltmp1002:
	.loc	42 2107 23
	movq	$0, -320(%rbp)
Ltmp1003:
LBB155_14:
	.loc	51 182 6
	movq	-320(%rbp), %rax
	movq	-312(%rbp), %rdx
	addq	$352, %rsp
	popq	%rbp
	retq
LBB155_15:
	jmp	LBB155_14
Ltmp1004:
Lfunc_end155:
	.cfi_endproc

	.globl	__ZN5alloc5slice64_$LT$impl$u20$alloc..borrow..ToOwned$u20$for$u20$$u5b$T$u5d$$GT$8to_owned17h300779e38a80b2b2E
	.p2align	4, 0x90
__ZN5alloc5slice64_$LT$impl$u20$alloc..borrow..ToOwned$u20$for$u20$$u5b$T$u5d$$GT$8to_owned17h300779e38a80b2b2E:
Lfunc_begin156:
	.loc	44 790 0
	.cfi_startproc
	pushq	%rbp
	.cfi_def_cfa_offset 16
	.cfi_offset %rbp, -16
	movq	%rsp, %rbp
	.cfi_def_cfa_register %rbp
	subq	$96, %rsp
	movq	%rdi, %rax
	movq	%rax, -88(%rbp)
	movq	%rsi, -80(%rbp)
	movq	%rdx, -72(%rbp)
Ltmp1005:
	.loc	44 791 9 prologue_end
	movq	%rsi, -48(%rbp)
	movq	%rdx, -40(%rbp)
Ltmp1006:
	.loc	44 416 9
	movq	%rsi, -32(%rbp)
	movq	%rdx, -24(%rbp)
Ltmp1007:
	.loc	44 441 22
	movq	%rsi, -16(%rbp)
	movq	%rdx, -8(%rbp)
Ltmp1008:
	.loc	44 111 9
	callq	__ZN52_$LT$T$u20$as$u20$alloc..slice..hack..ConvertVec$GT$6to_vec17h5a81a37f7accfb1eE
	movq	-88(%rbp), %rax
Ltmp1009:
	.loc	44 792 6
	addq	$96, %rsp
	popq	%rbp
	retq
Ltmp1010:
Lfunc_end156:
	.cfi_endproc

	.globl	__ZN5alloc7raw_vec19RawVec$LT$T$C$A$GT$11allocate_in17h6d0a60ea14039117E
	.p2align	4, 0x90
__ZN5alloc7raw_vec19RawVec$LT$T$C$A$GT$11allocate_in17h6d0a60ea14039117E:
Lfunc_begin157:
	.loc	46 169 0
	.cfi_startproc
	.cfi_personality 155, _rust_eh_personality
	.cfi_lsda 16, Lexception38
	pushq	%rbp
	.cfi_def_cfa_offset 16
	.cfi_offset %rbp, -16
	movq	%rsp, %rbp
	.cfi_def_cfa_register %rbp
	subq	$384, %rsp
	movq	%rdi, -296(%rbp)
	movb	%sil, %al
	andb	$1, %al
	movb	%al, -281(%rbp)
	movq	%rdi, -168(%rbp)
Ltmp1026:
	.loc	46 171 12 prologue_end
	movb	$1, -177(%rbp)
	xorl	%eax, %eax
	testb	$1, %al
	jne	LBB157_2
	.loc	46 0 12 is_stmt 0
	movq	-296(%rbp), %rax
	.loc	46 171 25
	cmpq	$0, %rax
	sete	%al
	.loc	46 171 12
	andb	$1, %al
	movb	%al, -249(%rbp)
	jmp	LBB157_3
LBB157_2:
	movb	$1, -249(%rbp)
LBB157_3:
	testb	$1, -249(%rbp)
	jne	LBB157_5
	.loc	46 0 12
	movq	-296(%rbp), %rax
	.loc	46 176 51 is_stmt 1
	movq	%rax, -144(%rbp)
Ltmp1027:
	.loc	21 459 5
	movq	$1, -136(%rbp)
Ltmp1028:
	.loc	39 89 18
	movq	$1, -128(%rbp)
	movq	-128(%rbp), %rax
	movq	%rax, -304(%rbp)
	jmp	LBB157_10
Ltmp1029:
LBB157_5:
	.loc	46 172 26
	movb	$0, -177(%rbp)
Ltmp1023:
	.loc	46 172 13 is_stmt 0
	callq	__ZN5alloc7raw_vec19RawVec$LT$T$C$A$GT$6new_in17h98f79cabcd82f759E
Ltmp1024:
	movq	%rdx, -320(%rbp)
	movq	%rax, -312(%rbp)
	jmp	LBB157_8
LBB157_6:
	.loc	46 202 5 is_stmt 1
	testb	$1, -177(%rbp)
	jne	LBB157_25
	jmp	LBB157_24
LBB157_7:
Ltmp1025:
	.loc	46 0 5 is_stmt 0
	movq	%rax, %rcx
	movl	%edx, %eax
	movq	%rcx, -160(%rbp)
	movl	%eax, -152(%rbp)
	jmp	LBB157_6
LBB157_8:
	movq	-320(%rbp), %rax
	movq	-312(%rbp), %rcx
	.loc	46 172 13 is_stmt 1
	movq	%rcx, -272(%rbp)
	movq	%rax, -264(%rbp)
LBB157_9:
	.loc	46 202 6
	movq	-272(%rbp), %rax
	movq	-264(%rbp), %rdx
	addq	$384, %rsp
	popq	%rbp
	retq
LBB157_10:
Ltmp1011:
	.loc	46 0 6 is_stmt 0
	movq	-296(%rbp), %rdx
	movq	-304(%rbp), %rsi
	movl	$1, %edi
Ltmp1030:
	.loc	38 438 16 is_stmt 1
	callq	__ZN4core5alloc6layout6Layout5array5inner17h78a3a71ed3c11f51E
Ltmp1012:
	movq	%rdx, -336(%rbp)
	movq	%rax, -328(%rbp)
	jmp	LBB157_11
LBB157_11:
	.loc	38 0 16 is_stmt 0
	movq	-336(%rbp), %rax
	movq	-328(%rbp), %rcx
	.loc	38 438 16
	movq	%rcx, -248(%rbp)
	movq	%rax, -240(%rbp)
Ltmp1031:
	.loc	46 176 32 is_stmt 1
	xorl	%eax, %eax
	movl	$1, %ecx
	cmpq	$0, -240(%rbp)
	cmoveq	%rcx, %rax
	.loc	46 176 26 is_stmt 0
	cmpq	$0, %rax
	jne	LBB157_13
	.loc	46 177 20 is_stmt 1
	movq	-248(%rbp), %rcx
	movq	%rcx, -352(%rbp)
	movq	-240(%rbp), %rax
	movq	%rax, -344(%rbp)
	movq	%rcx, -120(%rbp)
	movq	%rax, -112(%rbp)
Ltmp1032:
	.loc	46 177 31 is_stmt 0
	movq	%rcx, -104(%rbp)
	movq	%rax, -96(%rbp)
Ltmp1033:
	.loc	46 509 9 is_stmt 1
	movabsq	$-9223372036854775807, %rax
	movq	%rax, -224(%rbp)
Ltmp1034:
	.loc	46 180 19
	movabsq	$-9223372036854775807, %rdx
	movl	$1, %eax
	xorl	%ecx, %ecx
	cmpq	%rdx, -224(%rbp)
	cmoveq	%rcx, %rax
	.loc	46 180 13 is_stmt 0
	cmpq	$0, %rax
	je	LBB157_15
	jmp	LBB157_16
Ltmp1035:
LBB157_13:
Ltmp1013:
	.loc	46 178 27 is_stmt 1
	callq	__ZN5alloc7raw_vec17capacity_overflow17h082ee8492f253a0eE
Ltmp1014:
	jmp	LBB157_14
LBB157_14:
	.loc	46 0 27 is_stmt 0
	ud2
LBB157_15:
Ltmp1036:
	.loc	46 184 32 is_stmt 1
	movb	-281(%rbp), %al
	andb	$1, %al
	movzbl	%al, %eax
	.loc	46 184 26 is_stmt 0
	cmpq	$0, %rax
	je	LBB157_17
	jmp	LBB157_18
LBB157_16:
Ltmp1015:
	.loc	46 182 27 is_stmt 1
	callq	__ZN5alloc7raw_vec17capacity_overflow17h082ee8492f253a0eE
Ltmp1016:
	jmp	LBB157_14
LBB157_17:
Ltmp1019:
	.loc	46 0 27 is_stmt 0
	movq	-344(%rbp), %rdx
	movq	-352(%rbp), %rsi
	leaq	-280(%rbp), %rdi
	.loc	46 185 45 is_stmt 1
	callq	__ZN63_$LT$alloc..alloc..Global$u20$as$u20$core..alloc..Allocator$GT$8allocate17hfd74fef0d7e52a16E
Ltmp1020:
	movq	%rdx, -368(%rbp)
	movq	%rax, -360(%rbp)
	jmp	LBB157_21
LBB157_18:
Ltmp1017:
	.loc	46 0 45 is_stmt 0
	movq	-344(%rbp), %rdx
	movq	-352(%rbp), %rsi
	leaq	-280(%rbp), %rdi
	.loc	46 186 38 is_stmt 1
	callq	__ZN63_$LT$alloc..alloc..Global$u20$as$u20$core..alloc..Allocator$GT$15allocate_zeroed17h8b1288dc810f52b7E
Ltmp1018:
	movq	%rdx, -384(%rbp)
	movq	%rax, -376(%rbp)
	jmp	LBB157_19
LBB157_19:
	.loc	46 0 38 is_stmt 0
	movq	-384(%rbp), %rax
	movq	-376(%rbp), %rcx
	.loc	46 186 38
	movq	%rcx, -216(%rbp)
	movq	%rax, -208(%rbp)
LBB157_20:
Ltmp1037:
	.loc	46 188 29 is_stmt 1
	movq	-216(%rbp), %rdx
	xorl	%eax, %eax
	movl	$1, %ecx
	cmpq	$0, %rdx
	cmoveq	%rcx, %rax
	.loc	46 188 23 is_stmt 0
	cmpq	$0, %rax
	je	LBB157_22
	jmp	LBB157_23
Ltmp1038:
LBB157_21:
	.loc	46 0 23
	movq	-368(%rbp), %rax
	movq	-360(%rbp), %rcx
	.loc	46 185 45 is_stmt 1
	movq	%rcx, -216(%rbp)
	movq	%rax, -208(%rbp)
	.loc	46 185 66 is_stmt 0
	jmp	LBB157_20
LBB157_22:
	.loc	46 0 66
	movq	-296(%rbp), %rax
Ltmp1039:
	.loc	46 189 20 is_stmt 1
	movq	-216(%rbp), %rcx
	movq	-208(%rbp), %rdx
	movq	%rcx, -88(%rbp)
	movq	%rdx, -80(%rbp)
Ltmp1040:
	.loc	46 189 28 is_stmt 0
	movq	%rcx, -72(%rbp)
	movq	%rdx, -64(%rbp)
Ltmp1041:
	.loc	46 197 53 is_stmt 1
	movq	%rcx, -56(%rbp)
	movq	%rdx, -48(%rbp)
Ltmp1042:
	.loc	9 450 41
	movq	%rcx, -40(%rbp)
	movq	%rdx, -32(%rbp)
	movq	%rcx, -24(%rbp)
Ltmp1043:
	.loc	9 201 13
	movq	%rcx, -192(%rbp)
Ltmp1044:
	.loc	9 326 9
	movq	-192(%rbp), %rcx
	movq	%rcx, -16(%rbp)
Ltmp1045:
	.loc	10 87 59
	movq	%rcx, -8(%rbp)
Ltmp1046:
	.loc	9 201 13
	movq	%rcx, -176(%rbp)
Ltmp1047:
	.loc	10 87 18
	movq	-176(%rbp), %rcx
	movq	%rcx, -200(%rbp)
Ltmp1048:
	.loc	46 196 13
	movq	-200(%rbp), %rcx
	movq	%rcx, -264(%rbp)
	movq	%rax, -272(%rbp)
Ltmp1049:
	.loc	46 171 9
	jmp	LBB157_9
LBB157_23:
Ltmp1021:
	.loc	46 0 9 is_stmt 0
	movq	-344(%rbp), %rsi
	movq	-352(%rbp), %rdi
Ltmp1050:
	.loc	46 190 27 is_stmt 1
	callq	__ZN5alloc5alloc18handle_alloc_error17hb5f6ff255f23ea4dE
Ltmp1022:
	jmp	LBB157_14
Ltmp1051:
LBB157_24:
	.loc	46 169 5
	movq	-160(%rbp), %rdi
	callq	__Unwind_Resume
LBB157_25:
	.loc	46 202 5
	jmp	LBB157_24
Ltmp1052:
Lfunc_end157:
	.cfi_endproc
	.section	__TEXT,__gcc_except_tab
	.p2align	2
GCC_except_table157:
Lexception38:
	.byte	255
	.byte	255
	.byte	1
	.uleb128 Lcst_end38-Lcst_begin38
Lcst_begin38:
	.uleb128 Ltmp1023-Lfunc_begin157
	.uleb128 Ltmp1022-Ltmp1023
	.uleb128 Ltmp1025-Lfunc_begin157
	.byte	0
	.uleb128 Ltmp1022-Lfunc_begin157
	.uleb128 Lfunc_end157-Ltmp1022
	.byte	0
	.byte	0
Lcst_end38:
	.p2align	2

	.section	__TEXT,__text,regular,pure_instructions
	.globl	__ZN5alloc7raw_vec19RawVec$LT$T$C$A$GT$14current_memory17h62deadf3bc8aa9e1E
	.p2align	4, 0x90
__ZN5alloc7raw_vec19RawVec$LT$T$C$A$GT$14current_memory17h62deadf3bc8aa9e1E:
Lfunc_begin158:
	.loc	46 240 0
	.cfi_startproc
	pushq	%rbp
	.cfi_def_cfa_offset 16
	.cfi_offset %rbp, -16
	movq	%rsp, %rbp
	.cfi_def_cfa_register %rbp
	subq	$176, %rsp
	movq	%rsi, -152(%rbp)
	movq	%rdi, -144(%rbp)
	movq	%rdi, -136(%rbp)
	movq	%rsi, -80(%rbp)
Ltmp1053:
	.loc	46 241 12 prologue_end
	xorl	%eax, %eax
	testb	$1, %al
	jne	LBB158_2
	.loc	46 0 12 is_stmt 0
	movq	-152(%rbp), %rax
	.loc	46 241 25
	cmpq	$0, (%rax)
	sete	%al
	.loc	46 241 12
	andb	$1, %al
	movb	%al, -121(%rbp)
	jmp	LBB158_3
LBB158_2:
	movb	$1, -121(%rbp)
LBB158_3:
	testb	$1, -121(%rbp)
	jne	LBB158_5
	.loc	46 0 12
	movq	-152(%rbp), %rax
	.loc	46 247 49 is_stmt 1
	movq	(%rax), %rdx
	movq	%rdx, -72(%rbp)
Ltmp1054:
	.loc	21 459 5
	movq	$1, -64(%rbp)
Ltmp1055:
	.loc	39 89 18
	movq	$1, -56(%rbp)
	movq	-56(%rbp), %rsi
Ltmp1056:
	.loc	38 438 16
	movl	$1, %edi
	callq	__ZN4core5alloc6layout6Layout5array5inner17h78a3a71ed3c11f51E
	movq	%rax, %rdi
	movq	%rdx, %rsi
Ltmp1057:
	.loc	46 247 30
	leaq	l___unnamed_23(%rip), %rdx
	callq	__ZN4core6result19Result$LT$T$C$E$GT$16unwrap_unchecked17h961d47ec67ef8464E
	movq	%rax, %rcx
	movq	-152(%rbp), %rax
	movq	%rcx, -168(%rbp)
	movq	%rdx, -160(%rbp)
	movq	%rcx, -48(%rbp)
	movq	%rdx, -40(%rbp)
Ltmp1058:
	.loc	46 248 23
	movq	8(%rax), %rax
	movq	%rax, -32(%rbp)
Ltmp1059:
	.loc	10 137 22
	movq	%rax, -24(%rbp)
Ltmp1060:
	.loc	9 450 41
	movq	%rax, -16(%rbp)
	movq	%rax, -8(%rbp)
Ltmp1061:
	.loc	9 201 13
	movq	%rax, -88(%rbp)
Ltmp1062:
	.loc	10 191 18
	movq	-88(%rbp), %rax
	.loc	10 191 9 is_stmt 0
	movq	%rax, -96(%rbp)
Ltmp1063:
	.loc	46 248 23 is_stmt 1
	movq	-96(%rbp), %rdi
	callq	__ZN50_$LT$T$u20$as$u20$core..convert..Into$LT$U$GT$$GT$4into17h38caed117bd605adE
	movq	-168(%rbp), %rcx
	movq	-160(%rbp), %rdx
	movq	%rax, %rsi
	movq	-144(%rbp), %rax
	.loc	46 248 22 is_stmt 0
	movq	%rsi, -120(%rbp)
	movq	%rcx, -112(%rbp)
	movq	%rdx, -104(%rbp)
	.loc	46 248 17
	movq	-120(%rbp), %rcx
	movq	%rcx, (%rax)
	movq	-112(%rbp), %rcx
	movq	%rcx, 8(%rax)
	movq	-104(%rbp), %rcx
	movq	%rcx, 16(%rax)
Ltmp1064:
	.loc	46 241 9 is_stmt 1
	jmp	LBB158_6
LBB158_5:
	.loc	46 0 9 is_stmt 0
	movq	-144(%rbp), %rax
	.loc	46 242 13 is_stmt 1
	movq	$0, 16(%rax)
LBB158_6:
	.loc	46 0 13 is_stmt 0
	movq	-136(%rbp), %rax
	.loc	46 251 6 is_stmt 1
	addq	$176, %rsp
	popq	%rbp
	retq
Ltmp1065:
Lfunc_end158:
	.cfi_endproc

	.globl	__ZN5alloc7raw_vec19RawVec$LT$T$C$A$GT$6new_in17h98f79cabcd82f759E
	.p2align	4, 0x90
__ZN5alloc7raw_vec19RawVec$LT$T$C$A$GT$6new_in17h98f79cabcd82f759E:
Lfunc_begin159:
	.loc	46 121 0
	.cfi_startproc
	pushq	%rbp
	.cfi_def_cfa_offset 16
	.cfi_offset %rbp, -16
	movq	%rsp, %rbp
	.cfi_def_cfa_register %rbp
	subq	$96, %rsp
Ltmp1066:
	.loc	21 459 5 prologue_end
	movq	$1, -48(%rbp)
Ltmp1067:
	.loc	4 599 14
	movq	$1, -40(%rbp)
	movq	-40(%rbp), %rax
	movq	%rax, -96(%rbp)
	movq	%rax, -32(%rbp)
Ltmp1068:
	.loc	4 0 14 is_stmt 0
	movq	-96(%rbp), %rax
Ltmp1069:
	.loc	9 97 36 is_stmt 1
	movq	%rax, -8(%rbp)
Ltmp1070:
	.loc	9 201 13
	movq	%rax, -64(%rbp)
Ltmp1071:
	.loc	10 191 18
	movq	-64(%rbp), %rax
	.loc	10 191 9 is_stmt 0
	movq	%rax, -72(%rbp)
Ltmp1072:
	.loc	46 123 9 is_stmt 1
	movq	-72(%rbp), %rax
	movq	%rax, -80(%rbp)
	movq	$0, -88(%rbp)
	.loc	46 124 6
	movq	-88(%rbp), %rax
	movq	-80(%rbp), %rdx
	addq	$96, %rsp
	popq	%rbp
	retq
Ltmp1073:
Lfunc_end159:
	.cfi_endproc

	.globl	__ZN63_$LT$I$u20$as$u20$core..iter..traits..collect..IntoIterator$GT$9into_iter17h477569299cb08b59E
	.p2align	4, 0x90
__ZN63_$LT$I$u20$as$u20$core..iter..traits..collect..IntoIterator$GT$9into_iter17h477569299cb08b59E:
Lfunc_begin160:
	.file	52 "/rustc/2c8cc343237b8f7d5a3c3703e3a87f2eb2c54a74/library/core/src/iter/traits" "collect.rs"
	.loc	52 272 0
	.cfi_startproc
	pushq	%rbp
	.cfi_def_cfa_offset 16
	.cfi_offset %rbp, -16
	movq	%rsp, %rbp
	.cfi_def_cfa_register %rbp
	subq	$16, %rsp
	movq	%rsi, %rdx
	movq	%rdi, %rax
	movq	%rax, -16(%rbp)
	movq	%rdx, -8(%rbp)
Ltmp1074:
	.loc	52 274 6 prologue_end
	addq	$16, %rsp
	popq	%rbp
	retq
Ltmp1075:
Lfunc_end160:
	.cfi_endproc

	.globl	__ZN63_$LT$I$u20$as$u20$core..iter..traits..collect..IntoIterator$GT$9into_iter17h84e7f094ab1f7f8bE
	.p2align	4, 0x90
__ZN63_$LT$I$u20$as$u20$core..iter..traits..collect..IntoIterator$GT$9into_iter17h84e7f094ab1f7f8bE:
Lfunc_begin161:
	.loc	52 272 0
	.cfi_startproc
	pushq	%rbp
	.cfi_def_cfa_offset 16
	.cfi_offset %rbp, -16
	movq	%rsp, %rbp
	.cfi_def_cfa_register %rbp
	subq	$16, %rsp
	movq	%rsi, %rdx
	movq	%rdi, %rax
	movq	%rax, -16(%rbp)
	movq	%rdx, -8(%rbp)
Ltmp1076:
	.loc	52 274 6 prologue_end
	addq	$16, %rsp
	popq	%rbp
	retq
Ltmp1077:
Lfunc_end161:
	.cfi_endproc

	.globl	__ZN63_$LT$I$u20$as$u20$core..iter..traits..collect..IntoIterator$GT$9into_iter17ha2b6c6706e0ea743E
	.p2align	4, 0x90
__ZN63_$LT$I$u20$as$u20$core..iter..traits..collect..IntoIterator$GT$9into_iter17ha2b6c6706e0ea743E:
Lfunc_begin162:
	.loc	52 272 0
	.cfi_startproc
	pushq	%rbp
	.cfi_def_cfa_offset 16
	.cfi_offset %rbp, -16
	movq	%rsp, %rbp
	.cfi_def_cfa_register %rbp
	movq	%rdi, %rax
Ltmp1078:
	.loc	52 273 9 prologue_end
	movq	(%rsi), %rcx
	movq	%rcx, (%rdi)
	movq	8(%rsi), %rcx
	movq	%rcx, 8(%rdi)
	movq	16(%rsi), %rcx
	movq	%rcx, 16(%rdi)
	.loc	52 274 6
	popq	%rbp
	retq
Ltmp1079:
Lfunc_end162:
	.cfi_endproc

	.globl	__ZN63_$LT$I$u20$as$u20$core..iter..traits..collect..IntoIterator$GT$9into_iter17hce6c64c981f1ef36E
	.p2align	4, 0x90
__ZN63_$LT$I$u20$as$u20$core..iter..traits..collect..IntoIterator$GT$9into_iter17hce6c64c981f1ef36E:
Lfunc_begin163:
	.loc	52 272 0
	.cfi_startproc
	pushq	%rbp
	.cfi_def_cfa_offset 16
	.cfi_offset %rbp, -16
	movq	%rsp, %rbp
	.cfi_def_cfa_register %rbp
	subq	$16, %rsp
	movq	%rsi, %rdx
	movq	%rdi, %rax
	movq	%rax, -16(%rbp)
	movq	%rdx, -8(%rbp)
Ltmp1080:
	.loc	52 274 6 prologue_end
	addq	$16, %rsp
	popq	%rbp
	retq
Ltmp1081:
Lfunc_end163:
	.cfi_endproc

	.p2align	4, 0x90
__ZN63_$LT$alloc..alloc..Global$u20$as$u20$core..alloc..Allocator$GT$10deallocate17hf831817d9f642ff7E:
Lfunc_begin164:
	.loc	51 246 0
	.cfi_startproc
	pushq	%rbp
	.cfi_def_cfa_offset 16
	.cfi_offset %rbp, -16
	movq	%rsp, %rbp
	.cfi_def_cfa_register %rbp
	subq	$112, %rsp
	movq	%rsi, -112(%rbp)
	movq	%rdx, -104(%rbp)
	movq	%rcx, -96(%rbp)
	movq	%rdi, -64(%rbp)
	movq	%rsi, -56(%rbp)
Ltmp1082:
	.loc	51 247 12 prologue_end
	leaq	-104(%rbp), %rax
	movq	%rax, -48(%rbp)
	cmpq	$0, -104(%rbp)
	jne	LBB164_2
	.loc	51 247 9 is_stmt 0
	jmp	LBB164_3
LBB164_2:
	.loc	51 0 9
	movq	-112(%rbp), %rdi
	.loc	51 250 30 is_stmt 1
	movq	%rdi, -40(%rbp)
Ltmp1083:
	.loc	9 326 9
	movq	%rdi, -32(%rbp)
Ltmp1084:
	.loc	51 250 44
	movq	-104(%rbp), %rcx
	movq	-96(%rbp), %rax
	movq	%rcx, -88(%rbp)
	movq	%rax, -80(%rbp)
Ltmp1085:
	.loc	51 113 34
	leaq	-88(%rbp), %rax
	movq	%rax, -24(%rbp)
Ltmp1086:
	.loc	38 129 9
	movq	-88(%rbp), %rsi
Ltmp1087:
	.loc	51 113 49
	leaq	-88(%rbp), %rax
	movq	%rax, -16(%rbp)
Ltmp1088:
	.loc	38 140 9
	movq	-80(%rbp), %rax
	movq	%rax, -8(%rbp)
Ltmp1089:
	.loc	39 97 9
	movq	%rax, -72(%rbp)
	movq	-72(%rbp), %rdx
Ltmp1090:
	.loc	51 113 14
	callq	___rust_dealloc
Ltmp1091:
LBB164_3:
	.loc	51 252 6
	addq	$112, %rsp
	popq	%rbp
	retq
Ltmp1092:
Lfunc_end164:
	.cfi_endproc

	.p2align	4, 0x90
__ZN63_$LT$alloc..alloc..Global$u20$as$u20$core..alloc..Allocator$GT$15allocate_zeroed17h8b1288dc810f52b7E:
Lfunc_begin165:
	.loc	51 241 0
	.cfi_startproc
	pushq	%rbp
	.cfi_def_cfa_offset 16
	.cfi_offset %rbp, -16
	movq	%rsp, %rbp
	.cfi_def_cfa_register %rbp
	subq	$32, %rsp
	movq	%rdi, -24(%rbp)
	movq	%rsi, -16(%rbp)
	movq	%rdx, -8(%rbp)
	movl	$1, %ecx
Ltmp1093:
	.loc	51 242 9 prologue_end
	callq	__ZN5alloc5alloc6Global10alloc_impl17h2252a27d3b5fa2acE
	.loc	51 243 6
	addq	$32, %rsp
	popq	%rbp
	retq
Ltmp1094:
Lfunc_end165:
	.cfi_endproc

	.p2align	4, 0x90
__ZN63_$LT$alloc..alloc..Global$u20$as$u20$core..alloc..Allocator$GT$8allocate17hfd74fef0d7e52a16E:
Lfunc_begin166:
	.loc	51 236 0
	.cfi_startproc
	pushq	%rbp
	.cfi_def_cfa_offset 16
	.cfi_offset %rbp, -16
	movq	%rsp, %rbp
	.cfi_def_cfa_register %rbp
	subq	$32, %rsp
	movq	%rdi, -24(%rbp)
	movq	%rsi, -16(%rbp)
	movq	%rdx, -8(%rbp)
	xorl	%ecx, %ecx
Ltmp1095:
	.loc	51 237 9 prologue_end
	callq	__ZN5alloc5alloc6Global10alloc_impl17h2252a27d3b5fa2acE
	.loc	51 238 6
	addq	$32, %rsp
	popq	%rbp
	retq
Ltmp1096:
Lfunc_end166:
	.cfi_endproc

	.p2align	4, 0x90
__ZN65_$LT$alloc..string..String$u20$as$u20$core..ops..deref..Deref$GT$5deref17h7e62f2cc44b232d1E:
Lfunc_begin167:
	.loc	50 2459 0
	.cfi_startproc
	pushq	%rbp
	.cfi_def_cfa_offset 16
	.cfi_offset %rbp, -16
	movq	%rsp, %rbp
	.cfi_def_cfa_register %rbp
	subq	$48, %rsp
	movq	%rdi, -40(%rbp)
Ltmp1097:
	.loc	50 2460 43 prologue_end
	callq	__ZN72_$LT$alloc..vec..Vec$LT$T$C$A$GT$$u20$as$u20$core..ops..deref..Deref$GT$5deref17h50481819251b6e58E
	movq	%rax, -32(%rbp)
	movq	%rdx, -24(%rbp)
Ltmp1098:
	.file	53 "/rustc/2c8cc343237b8f7d5a3c3703e3a87f2eb2c54a74/library/core/src/str" "converts.rs"
	.loc	53 173 14
	movq	%rax, -16(%rbp)
	movq	%rdx, -8(%rbp)
	movq	-16(%rbp), %rax
	movq	-8(%rbp), %rdx
Ltmp1099:
	.loc	50 2461 6
	addq	$48, %rsp
	popq	%rbp
	retq
Ltmp1100:
Lfunc_end167:
	.cfi_endproc

	.globl	__ZN70_$LT$alloc..vec..Vec$LT$T$C$A$GT$$u20$as$u20$core..ops..drop..Drop$GT$4drop17h00e1f5d31f3a09fbE
	.p2align	4, 0x90
__ZN70_$LT$alloc..vec..Vec$LT$T$C$A$GT$$u20$as$u20$core..ops..drop..Drop$GT$4drop17h00e1f5d31f3a09fbE:
Lfunc_begin168:
	.loc	45 3054 0
	.cfi_startproc
	pushq	%rbp
	.cfi_def_cfa_offset 16
	.cfi_offset %rbp, -16
	movq	%rsp, %rbp
	.cfi_def_cfa_register %rbp
	subq	$160, %rsp
	movq	%rdi, -120(%rbp)
Ltmp1101:
	.loc	45 3059 62 prologue_end
	movq	%rdi, -112(%rbp)
Ltmp1102:
	.loc	45 1280 19
	movq	%rdi, -104(%rbp)
Ltmp1103:
	.loc	46 224 9
	movq	8(%rdi), %rcx
	movq	%rcx, -96(%rbp)
Ltmp1104:
	.loc	10 104 9
	movq	%rcx, -88(%rbp)
Ltmp1105:
	.loc	9 326 9
	movq	%rcx, -80(%rbp)
Ltmp1106:
	.loc	45 1282 21
	movq	%rcx, -72(%rbp)
Ltmp1107:
	.loc	35 52 36
	movq	%rcx, -160(%rbp)
	.loc	35 52 18 is_stmt 0
	movq	-160(%rbp), %rax
	movq	%rax, -64(%rbp)
Ltmp1108:
	.loc	35 38 13 is_stmt 1
	movq	%rax, -56(%rbp)
Ltmp1109:
	.loc	35 215 33
	movq	%rax, -48(%rbp)
	.loc	35 215 18 is_stmt 0
	movq	%rax, -40(%rbp)
Ltmp1110:
	.loc	45 3059 81 is_stmt 1
	movq	16(%rdi), %rax
	movq	%rax, -32(%rbp)
Ltmp1111:
	.loc	4 766 24
	movq	%rcx, -24(%rbp)
Ltmp1112:
	.loc	35 60 9
	movq	%rcx, -16(%rbp)
Ltmp1113:
	.loc	4 766 37
	movq	%rax, -8(%rbp)
Ltmp1114:
	.loc	5 135 36
	movq	%rcx, -136(%rbp)
	movq	%rax, -128(%rbp)
	.loc	5 135 14 is_stmt 0
	movq	-136(%rbp), %rcx
	movq	-128(%rbp), %rax
	movq	%rcx, -152(%rbp)
	movq	%rax, -144(%rbp)
Ltmp1115:
	.loc	45 3062 6 is_stmt 1
	addq	$160, %rsp
	popq	%rbp
	retq
Ltmp1116:
Lfunc_end168:
	.cfi_endproc

	.globl	__ZN72_$LT$alloc..vec..Vec$LT$T$C$A$GT$$u20$as$u20$core..ops..deref..Deref$GT$5deref17h50481819251b6e58E
	.p2align	4, 0x90
__ZN72_$LT$alloc..vec..Vec$LT$T$C$A$GT$$u20$as$u20$core..ops..deref..Deref$GT$5deref17h50481819251b6e58E:
Lfunc_begin169:
	.loc	45 2636 0
	.cfi_startproc
	pushq	%rbp
	.cfi_def_cfa_offset 16
	.cfi_offset %rbp, -16
	movq	%rsp, %rbp
	.cfi_def_cfa_register %rbp
	subq	$184, %rsp
	movq	%rdi, -144(%rbp)
Ltmp1117:
	.loc	45 2637 40 prologue_end
	movq	%rdi, -136(%rbp)
Ltmp1118:
	.loc	45 1243 19
	movq	%rdi, -128(%rbp)
Ltmp1119:
	.loc	46 224 9
	movq	8(%rdi), %rcx
	movq	%rcx, -120(%rbp)
Ltmp1120:
	.loc	10 104 9
	movq	%rcx, -112(%rbp)
Ltmp1121:
	.loc	9 326 9
	movq	%rcx, -104(%rbp)
Ltmp1122:
	.loc	45 1245 21
	movq	%rcx, -96(%rbp)
Ltmp1123:
	.loc	35 52 36
	movq	%rcx, -184(%rbp)
	.loc	35 52 18 is_stmt 0
	movq	-184(%rbp), %rax
	movq	%rax, -88(%rbp)
Ltmp1124:
	.loc	35 38 13 is_stmt 1
	movq	%rax, -80(%rbp)
Ltmp1125:
	.loc	35 215 33
	movq	%rax, -72(%rbp)
	.loc	35 215 18 is_stmt 0
	movq	%rax, -64(%rbp)
Ltmp1126:
	.loc	45 1247 9 is_stmt 1
	movq	%rcx, -56(%rbp)
Ltmp1127:
	.loc	45 2637 55
	movq	16(%rdi), %rax
	movq	%rax, -48(%rbp)
Ltmp1128:
	.file	54 "/rustc/2c8cc343237b8f7d5a3c3703e3a87f2eb2c54a74/library/core/src/slice" "raw.rs"
	.loc	54 100 37
	movq	%rcx, -40(%rbp)
	.loc	54 100 43 is_stmt 0
	movq	%rax, -32(%rbp)
Ltmp1129:
	.loc	4 734 20 is_stmt 1
	movq	%rcx, -24(%rbp)
Ltmp1130:
	.loc	3 61 9
	movq	%rcx, -16(%rbp)
Ltmp1131:
	.loc	4 734 33
	movq	%rax, -8(%rbp)
Ltmp1132:
	.loc	5 118 36
	movq	%rcx, -160(%rbp)
	movq	%rax, -152(%rbp)
	.loc	5 118 14 is_stmt 0
	movq	-160(%rbp), %rcx
	movq	-152(%rbp), %rax
	movq	%rcx, -176(%rbp)
	movq	%rax, -168(%rbp)
	movq	-176(%rbp), %rax
	movq	-168(%rbp), %rdx
Ltmp1133:
	.loc	45 2638 6 is_stmt 1
	addq	$184, %rsp
	popq	%rbp
	retq
Ltmp1134:
Lfunc_end169:
	.cfi_endproc

	.globl	__ZN77_$LT$alloc..raw_vec..RawVec$LT$T$C$A$GT$$u20$as$u20$core..ops..drop..Drop$GT$4drop17h40bfc15dc95f7d70E
	.p2align	4, 0x90
__ZN77_$LT$alloc..raw_vec..RawVec$LT$T$C$A$GT$$u20$as$u20$core..ops..drop..Drop$GT$4drop17h40bfc15dc95f7d70E:
Lfunc_begin170:
	.loc	46 477 0
	.cfi_startproc
	pushq	%rbp
	.cfi_def_cfa_offset 16
	.cfi_offset %rbp, -16
	movq	%rsp, %rbp
	.cfi_def_cfa_register %rbp
	subq	$64, %rsp
	movq	%rdi, %rsi
	movq	%rsi, -64(%rbp)
	movq	%rsi, -32(%rbp)
Ltmp1135:
	.loc	46 478 38 prologue_end
	leaq	-56(%rbp), %rdi
	callq	__ZN5alloc7raw_vec19RawVec$LT$T$C$A$GT$14current_memory17h62deadf3bc8aa9e1E
	.loc	46 478 16 is_stmt 0
	movl	$1, %eax
	xorl	%ecx, %ecx
	cmpq	$0, -40(%rbp)
	cmoveq	%rcx, %rax
	cmpq	$1, %rax
	jne	LBB170_2
	.loc	46 0 16
	movq	-64(%rbp), %rdi
	.loc	46 478 22
	movq	-56(%rbp), %rsi
	movq	%rsi, -24(%rbp)
	.loc	46 478 27
	movq	-48(%rbp), %rdx
	movq	-40(%rbp), %rcx
	movq	%rdx, -16(%rbp)
	movq	%rcx, -8(%rbp)
	.loc	46 479 22 is_stmt 1
	callq	__ZN63_$LT$alloc..alloc..Global$u20$as$u20$core..alloc..Allocator$GT$10deallocate17hf831817d9f642ff7E
Ltmp1136:
LBB170_2:
	.loc	46 481 6
	addq	$64, %rsp
	popq	%rbp
	retq
Ltmp1137:
Lfunc_end170:
	.cfi_endproc

	.globl	__ZN89_$LT$core..ops..range..Range$LT$T$GT$$u20$as$u20$core..iter..range..RangeIteratorImpl$GT$9spec_next17h123bd04ac89813bfE
	.p2align	4, 0x90
__ZN89_$LT$core..ops..range..Range$LT$T$GT$$u20$as$u20$core..iter..range..RangeIteratorImpl$GT$9spec_next17h123bd04ac89813bfE:
Lfunc_begin171:
	.loc	16 620 0
	.cfi_startproc
	pushq	%rbp
	.cfi_def_cfa_offset 16
	.cfi_offset %rbp, -16
	movq	%rsp, %rbp
	.cfi_def_cfa_register %rbp
	subq	$48, %rsp
	movq	%rdi, -48(%rbp)
	movq	%rdi, -24(%rbp)
Ltmp1138:
	.loc	16 621 25 prologue_end
	movq	%rdi, %rsi
	addq	$8, %rsi
	.loc	16 621 12 is_stmt 0
	callq	__ZN4core3cmp5impls57_$LT$impl$u20$core..cmp..PartialOrd$u20$for$u20$usize$GT$2lt17hfaf5405b2d31cfcbE
	testb	$1, %al
	jne	LBB171_2
	.loc	16 626 13 is_stmt 1
	movq	$0, -40(%rbp)
	.loc	16 621 9
	jmp	LBB171_3
LBB171_2:
	.loc	16 0 9 is_stmt 0
	movq	-48(%rbp), %rax
	movq	%rax, -8(%rbp)
Ltmp1139:
	.file	55 "/rustc/2c8cc343237b8f7d5a3c3703e3a87f2eb2c54a74/library/core/src" "clone.rs"
	.loc	55 189 25 is_stmt 1
	movq	(%rax), %rdi
Ltmp1140:
	.loc	16 623 30
	movl	$1, %esi
	callq	__ZN49_$LT$usize$u20$as$u20$core..iter..range..Step$GT$17forward_unchecked17h6f7b2c380ab03904E
	movq	-48(%rbp), %rdi
	movq	%rax, %rsi
	movq	%rsi, -16(%rbp)
Ltmp1141:
	.loc	16 624 18
	callq	__ZN4core3mem7replace17h7f7ad0bd3c0e1e96E
	.loc	16 624 13 is_stmt 0
	movq	%rax, -32(%rbp)
	movq	$1, -40(%rbp)
Ltmp1142:
LBB171_3:
	.loc	16 628 6 is_stmt 1
	movq	-40(%rbp), %rax
	movq	-32(%rbp), %rdx
	addq	$48, %rsp
	popq	%rbp
	retq
Ltmp1143:
Lfunc_end171:
	.cfi_endproc

	.globl	__ZN91_$LT$core..slice..iter..Iter$LT$T$GT$$u20$as$u20$core..iter..traits..iterator..Iterator$GT$24__iterator_get_unchecked17h7d1feeab87e0e724E
	.p2align	4, 0x90
__ZN91_$LT$core..slice..iter..Iter$LT$T$GT$$u20$as$u20$core..iter..traits..iterator..Iterator$GT$24__iterator_get_unchecked17h7d1feeab87e0e724E:
Lfunc_begin172:
	.file	56 "/rustc/2c8cc343237b8f7d5a3c3703e3a87f2eb2c54a74/library/core/src/slice/iter" "macros.rs"
	.loc	56 319 0
	.cfi_startproc
	pushq	%rbp
	.cfi_def_cfa_offset 16
	.cfi_offset %rbp, -16
	movq	%rsp, %rbp
	.cfi_def_cfa_register %rbp
	subq	$64, %rsp
	movq	%rdi, -64(%rbp)
	movq	%rsi, -56(%rbp)
Ltmp1144:
	.loc	56 330 42 prologue_end
	movq	8(%rdi), %rax
	movq	%rax, -48(%rbp)
Ltmp1145:
	.loc	9 326 9
	movq	%rax, -40(%rbp)
Ltmp1146:
	.loc	56 330 64
	movq	%rsi, -32(%rbp)
Ltmp1147:
	.loc	35 1034 18
	movq	%rax, -24(%rbp)
	.loc	35 1034 30 is_stmt 0
	movq	%rsi, -16(%rbp)
Ltmp1148:
	.loc	35 487 18 is_stmt 1
	addq	%rsi, %rax
	movq	%rax, -8(%rbp)
	movq	-8(%rbp), %rax
Ltmp1149:
	.loc	56 331 14
	addq	$64, %rsp
	popq	%rbp
	retq
Ltmp1150:
Lfunc_end172:
	.cfi_endproc

	.globl	__ZN91_$LT$core..slice..iter..Iter$LT$T$GT$$u20$as$u20$core..iter..traits..iterator..Iterator$GT$4next17h76871fcb78e59cd9E
	.p2align	4, 0x90
__ZN91_$LT$core..slice..iter..Iter$LT$T$GT$$u20$as$u20$core..iter..traits..iterator..Iterator$GT$4next17h76871fcb78e59cd9E:
Lfunc_begin173:
	.loc	56 124 0
	.cfi_startproc
	pushq	%rbp
	.cfi_def_cfa_offset 16
	.cfi_offset %rbp, -16
	movq	%rsp, %rbp
	.cfi_def_cfa_register %rbp
	subq	$304, %rsp
	movq	%rdi, -304(%rbp)
	movq	%rdi, -240(%rbp)
Ltmp1151:
	.loc	56 132 29 prologue_end
	movq	8(%rdi), %rax
	movq	%rax, -224(%rbp)
Ltmp1152:
	.loc	9 326 9
