	.section	__TEXT,__text,regular,pure_instructions
	.macosx_version_min 10, 7
	.file	1 "/Users/natalie/.cargo/registry/src/github.com-1ecc6299db9ec823/flate2-1.0.24" "src/gz/mod.rs"
	.p2align	4, 0x90
__ZN101_$LT$miniz_oxide..inflate..stream..FullReset$u20$as$u20$miniz_oxide..inflate..stream..ResetPolicy$GT$5reset17h1f5594cec0f5fa91E:
Lfunc_begin0:
	.file	2 "/Users/natalie/.cargo/registry/src/github.com-1ecc6299db9ec823/miniz_oxide-0.5.4/src/inflate" "stream.rs"
	.loc	2 51 0
	.cfi_startproc
	pushq	%rbp
	.cfi_def_cfa_offset 16
	.cfi_offset %rbp, -16
	movq	%rsp, %rbp
	.cfi_def_cfa_register %rbp
	subq	$32, %rsp
	movq	%rdi, -32(%rbp)
	movq	%rsi, -24(%rbp)
	movq	%rdi, -16(%rbp)
	movq	%rsi, -8(%rbp)
Ltmp0:
	.loc	2 52 9 prologue_end
	leaq	l___unnamed_28(%rip), %rdi
	callq	__ZN101_$LT$miniz_oxide..inflate..stream..ZeroReset$u20$as$u20$miniz_oxide..inflate..stream..ResetPolicy$GT$5reset17heaa9ebddf7860117E
	movq	-32(%rbp), %rdi
	movq	-24(%rbp), %rsi
	.loc	2 53 29
	movb	(%rdi), %al
	.loc	2 53 9 is_stmt 0
	movb	%al, 43777(%rsi)
	.loc	2 54 6 is_stmt 1
	addq	$32, %rsp
	popq	%rbp
	retq
Ltmp1:
Lfunc_end0:
	.cfi_endproc

	.p2align	4, 0x90
__ZN101_$LT$miniz_oxide..inflate..stream..ZeroReset$u20$as$u20$miniz_oxide..inflate..stream..ResetPolicy$GT$5reset17heaa9ebddf7860117E:
Lfunc_begin1:
	.loc	2 38 0
	.cfi_startproc
	pushq	%rbp
	.cfi_def_cfa_offset 16
	.cfi_offset %rbp, -16
	movq	%rsp, %rbp
	.cfi_def_cfa_register %rbp
	subq	$32, %rsp
	movq	%rsi, -24(%rbp)
	movq	%rdi, -16(%rbp)
	movq	%rsi, -8(%rbp)
Ltmp2:
	.loc	2 39 9 prologue_end
	leaq	l___unnamed_28(%rip), %rdi
	callq	__ZN100_$LT$miniz_oxide..inflate..stream..MinReset$u20$as$u20$miniz_oxide..inflate..stream..ResetPolicy$GT$5reset17h7cf96a8299c81008E
	movq	-24(%rbp), %rdi
	.loc	2 40 9
	xorl	%esi, %esi
	movl	$32768, %edx
	callq	_memset
	.loc	2 41 6
	addq	$32, %rsp
	popq	%rbp
	retq
Ltmp3:
Lfunc_end1:
	.cfi_endproc

	.globl	__ZN102_$LT$core..iter..adapters..map..Map$LT$I$C$F$GT$$u20$as$u20$core..iter..traits..iterator..Iterator$GT$4fold17h5ff019532e4d4654E
	.p2align	4, 0x90
__ZN102_$LT$core..iter..adapters..map..Map$LT$I$C$F$GT$$u20$as$u20$core..iter..traits..iterator..Iterator$GT$4fold17h5ff019532e4d4654E:
Lfunc_begin2:
	.file	3 "/rustc/2c8cc343237b8f7d5a3c3703e3a87f2eb2c54a74/library/core/src/iter/adapters" "map.rs"
	.loc	3 120 0
	.cfi_startproc
	.cfi_personality 155, _rust_eh_personality
	.cfi_lsda 16, Lexception0
	pushq	%rbp
	.cfi_def_cfa_offset 16
	.cfi_offset %rbp, -16
	movq	%rsp, %rbp
	.cfi_def_cfa_register %rbp
	subq	$112, %rsp
	movq	%rdi, -112(%rbp)
	movq	%rsi, -104(%rbp)
Ltmp9:
	movq	%rdi, -40(%rbp)
	movq	%rsi, -32(%rbp)
Ltmp10:
	.loc	3 124 9 prologue_end
	movb	$1, -41(%rbp)
	.loc	3 124 24 is_stmt 0
	movb	$1, -42(%rbp)
	.loc	3 124 47
	movq	16(%rdx), %rax
	movq	%rax, -56(%rbp)
	movq	(%rdx), %rax
	movq	8(%rdx), %rcx
	movq	%rcx, -64(%rbp)
	movq	%rax, -72(%rbp)
Ltmp4:
	leaq	-96(%rbp), %rdi
	leaq	-72(%rbp), %rsi
	.loc	3 124 30
	callq	__ZN4core4iter8adapters3map8map_fold17h7a2833a2b6d19191E
Ltmp11:
Ltmp5:
	jmp	LBB2_3
Ltmp12:
LBB2_1:
	.loc	3 124 49
	testb	$1, -42(%rbp)
	jne	LBB2_6
	jmp	LBB2_5
Ltmp13:
LBB2_2:
Ltmp8:
	.loc	3 0 49
	movq	%rax, %rcx
	movl	%edx, %eax
	movq	%rcx, -16(%rbp)
	movl	%eax, -8(%rbp)
	jmp	LBB2_1
Ltmp14:
LBB2_3:
	movq	-104(%rbp), %rsi
	movq	-112(%rbp), %rdi
	.loc	3 124 9
	movb	$0, -41(%rbp)
	movb	$0, -42(%rbp)
Ltmp6:
	leaq	-96(%rbp), %rdx
	callq	__ZN4core4iter6traits8iterator8Iterator4fold17haf2d8c3c772dea1fE
Ltmp7:
	jmp	LBB2_4
Ltmp15:
LBB2_4:
	.loc	3 125 6 is_stmt 1
	addq	$112, %rsp
	popq	%rbp
	retq
Ltmp16:
LBB2_5:
	.loc	3 124 49
	testb	$1, -41(%rbp)
	jne	LBB2_8
	jmp	LBB2_7
Ltmp17:
LBB2_6:
	jmp	LBB2_5
Ltmp18:
LBB2_7:
	.loc	3 120 5
	movq	-16(%rbp), %rdi
	callq	__Unwind_Resume
Ltmp19:
LBB2_8:
	.loc	3 124 49
	jmp	LBB2_7
Ltmp20:
Lfunc_end2:
	.cfi_endproc
	.section	__TEXT,__gcc_except_tab
	.p2align	2
GCC_except_table2:
Lexception0:
	.byte	255
	.byte	255
	.byte	1
	.uleb128 Lcst_end0-Lcst_begin0
Lcst_begin0:
	.uleb128 Ltmp4-Lfunc_begin2
	.uleb128 Ltmp7-Ltmp4
	.uleb128 Ltmp8-Lfunc_begin2
	.byte	0
	.uleb128 Ltmp7-Lfunc_begin2
	.uleb128 Lfunc_end2-Ltmp7
	.byte	0
	.byte	0
Lcst_end0:
	.p2align	2

	.section	__TEXT,__text,regular,pure_instructions
	.globl	__ZN102_$LT$core..iter..adapters..map..Map$LT$I$C$F$GT$$u20$as$u20$core..iter..traits..iterator..Iterator$GT$4fold17hce8e7374d217e4ecE
	.p2align	4, 0x90
__ZN102_$LT$core..iter..adapters..map..Map$LT$I$C$F$GT$$u20$as$u20$core..iter..traits..iterator..Iterator$GT$4fold17hce8e7374d217e4ecE:
Lfunc_begin3:
	.loc	3 120 0
	.cfi_startproc
	.cfi_personality 155, _rust_eh_personality
	.cfi_lsda 16, Lexception1
	pushq	%rbp
	.cfi_def_cfa_offset 16
	.cfi_offset %rbp, -16
	movq	%rsp, %rbp
	.cfi_def_cfa_register %rbp
	subq	$112, %rsp
	movq	%rdi, -112(%rbp)
	movq	%rsi, -104(%rbp)
Ltmp26:
	movq	%rdi, -40(%rbp)
	movq	%rsi, -32(%rbp)
Ltmp27:
	.loc	3 124 9 prologue_end
	movb	$1, -41(%rbp)
	.loc	3 124 24 is_stmt 0
	movb	$1, -42(%rbp)
	.loc	3 124 47
	movq	16(%rdx), %rax
	movq	%rax, -56(%rbp)
	movq	(%rdx), %rax
	movq	8(%rdx), %rcx
	movq	%rcx, -64(%rbp)
	movq	%rax, -72(%rbp)
Ltmp21:
	leaq	-96(%rbp), %rdi
	leaq	-72(%rbp), %rsi
	.loc	3 124 30
	callq	__ZN4core4iter8adapters3map8map_fold17h03d487722147395eE
Ltmp28:
Ltmp22:
	jmp	LBB3_3
Ltmp29:
LBB3_1:
	.loc	3 124 49
	testb	$1, -42(%rbp)
	jne	LBB3_6
	jmp	LBB3_5
Ltmp30:
LBB3_2:
Ltmp25:
	.loc	3 0 49
	movq	%rax, %rcx
	movl	%edx, %eax
	movq	%rcx, -16(%rbp)
	movl	%eax, -8(%rbp)
	jmp	LBB3_1
Ltmp31:
LBB3_3:
	movq	-104(%rbp), %rsi
	movq	-112(%rbp), %rdi
	.loc	3 124 9
	movb	$0, -41(%rbp)
	movb	$0, -42(%rbp)
Ltmp23:
	leaq	-96(%rbp), %rdx
	callq	__ZN4core4iter6traits8iterator8Iterator4fold17hf449e33c3b3bdbb9E
Ltmp24:
	jmp	LBB3_4
Ltmp32:
LBB3_4:
	.loc	3 125 6 is_stmt 1
	addq	$112, %rsp
	popq	%rbp
	retq
Ltmp33:
LBB3_5:
	.loc	3 124 49
	testb	$1, -41(%rbp)
	jne	LBB3_8
	jmp	LBB3_7
Ltmp34:
LBB3_6:
	jmp	LBB3_5
Ltmp35:
LBB3_7:
	.loc	3 120 5
	movq	-16(%rbp), %rdi
	callq	__Unwind_Resume
Ltmp36:
LBB3_8:
	.loc	3 124 49
	jmp	LBB3_7
Ltmp37:
Lfunc_end3:
	.cfi_endproc
	.section	__TEXT,__gcc_except_tab
	.p2align	2
GCC_except_table3:
Lexception1:
	.byte	255
	.byte	255
	.byte	1
	.uleb128 Lcst_end1-Lcst_begin1
Lcst_begin1:
	.uleb128 Ltmp21-Lfunc_begin3
	.uleb128 Ltmp24-Ltmp21
	.uleb128 Ltmp25-Lfunc_begin3
	.byte	0
	.uleb128 Ltmp24-Lfunc_begin3
	.uleb128 Lfunc_end3-Ltmp24
	.byte	0
	.byte	0
Lcst_end1:
	.p2align	2

	.section	__TEXT,__text,regular,pure_instructions
	.globl	__ZN102_$LT$core..iter..adapters..map..Map$LT$I$C$F$GT$$u20$as$u20$core..iter..traits..iterator..Iterator$GT$9size_hint17h75e01191f337989aE
	.p2align	4, 0x90
__ZN102_$LT$core..iter..adapters..map..Map$LT$I$C$F$GT$$u20$as$u20$core..iter..traits..iterator..Iterator$GT$9size_hint17h75e01191f337989aE:
Lfunc_begin4:
	.loc	3 107 0
	.cfi_startproc
	pushq	%rbp
	.cfi_def_cfa_offset 16
	.cfi_offset %rbp, -16
	movq	%rsp, %rbp
	.cfi_def_cfa_register %rbp
	subq	$16, %rsp
	movq	%rdi, %rax
	movq	%rax, -16(%rbp)
	movq	%rsi, -8(%rbp)
Ltmp38:
	.loc	3 108 9 prologue_end
	callq	__ZN91_$LT$core..slice..iter..Iter$LT$T$GT$$u20$as$u20$core..iter..traits..iterator..Iterator$GT$9size_hint17h51ca7f77d2e7144cE
	movq	-16(%rbp), %rax
	.loc	3 109 6
	addq	$16, %rsp
	popq	%rbp
	retq
Ltmp39:
Lfunc_end4:
	.cfi_endproc

	.globl	__ZN102_$LT$core..iter..adapters..map..Map$LT$I$C$F$GT$$u20$as$u20$core..iter..traits..iterator..Iterator$GT$9size_hint17he9ae6486d1075c26E
	.p2align	4, 0x90
__ZN102_$LT$core..iter..adapters..map..Map$LT$I$C$F$GT$$u20$as$u20$core..iter..traits..iterator..Iterator$GT$9size_hint17he9ae6486d1075c26E:
Lfunc_begin5:
	.loc	3 107 0
	.cfi_startproc
	pushq	%rbp
	.cfi_def_cfa_offset 16
	.cfi_offset %rbp, -16
	movq	%rsp, %rbp
	.cfi_def_cfa_register %rbp
	subq	$16, %rsp
	movq	%rdi, %rax
	movq	%rax, -16(%rbp)
	movq	%rsi, -8(%rbp)
Ltmp40:
	.loc	3 108 9 prologue_end
	callq	__ZN91_$LT$core..slice..iter..Iter$LT$T$GT$$u20$as$u20$core..iter..traits..iterator..Iterator$GT$9size_hint17h51ca7f77d2e7144cE
	movq	-16(%rbp), %rax
	.loc	3 109 6
	addq	$16, %rsp
	popq	%rbp
	retq
Ltmp41:
Lfunc_end5:
	.cfi_endproc

	.globl	__ZN102_$LT$core..iter..adapters..zip..Zip$LT$A$C$B$GT$$u20$as$u20$core..iter..traits..iterator..Iterator$GT$4next17he0cf1a3a9a59a53dE
	.p2align	4, 0x90
__ZN102_$LT$core..iter..adapters..zip..Zip$LT$A$C$B$GT$$u20$as$u20$core..iter..traits..iterator..Iterator$GT$4next17he0cf1a3a9a59a53dE:
Lfunc_begin6:
	.file	4 "/rustc/2c8cc343237b8f7d5a3c3703e3a87f2eb2c54a74/library/core/src/iter/adapters" "zip.rs"
	.loc	4 83 0
	.cfi_startproc
	pushq	%rbp
	.cfi_def_cfa_offset 16
	.cfi_offset %rbp, -16
	movq	%rsp, %rbp
	.cfi_def_cfa_register %rbp
	subq	$16, %rsp
	movq	%rdi, -8(%rbp)
Ltmp42:
	.loc	4 84 9 prologue_end
	callq	__ZN111_$LT$core..iter..adapters..zip..Zip$LT$A$C$B$GT$$u20$as$u20$core..iter..adapters..zip..ZipImpl$LT$A$C$B$GT$$GT$4next17h246b9da1110c0477E
	.loc	4 85 6
	addq	$16, %rsp
	popq	%rbp
	retq
Ltmp43:
Lfunc_end6:
	.cfi_endproc

	.globl	__ZN103_$LT$alloc..vec..into_iter..IntoIter$LT$T$C$A$GT$$u20$as$u20$core..iter..traits..iterator..Iterator$GT$9size_hint17h657fdee441c1caaaE
	.p2align	4, 0x90
__ZN103_$LT$alloc..vec..into_iter..IntoIter$LT$T$C$A$GT$$u20$as$u20$core..iter..traits..iterator..Iterator$GT$9size_hint17h657fdee441c1caaaE:
Lfunc_begin7:
	.file	5 "/rustc/2c8cc343237b8f7d5a3c3703e3a87f2eb2c54a74/library/alloc/src/vec" "into_iter.rs"
	.loc	5 206 0
	.cfi_startproc
	pushq	%rbp
	.cfi_def_cfa_offset 16
	.cfi_offset %rbp, -16
	movq	%rsp, %rbp
	.cfi_def_cfa_register %rbp
	subq	$128, %rsp
	movq	%rsi, -120(%rbp)
	movq	%rdi, -112(%rbp)
	movq	%rdi, -104(%rbp)
	movq	%rsi, -72(%rbp)
Ltmp44:
	.loc	5 207 24 prologue_end
	xorl	%eax, %eax
	testb	$1, %al
	jne	LBB7_2
	.loc	5 0 24 is_stmt 0
	movq	-120(%rbp), %rax
	.loc	5 210 22 is_stmt 1
	movq	16(%rax), %rdi
	.loc	5 210 39 is_stmt 0
	movq	8(%rax), %rsi
	.loc	5 210 22
	callq	__ZN4core3ptr9const_ptr33_$LT$impl$u20$$BP$const$u20$T$GT$7sub_ptr17h2868ad094cab90bbE
	movq	%rax, -96(%rbp)
	.loc	5 207 21 is_stmt 1
	jmp	LBB7_3
LBB7_2:
	.loc	5 0 21 is_stmt 0
	movq	-120(%rbp), %rcx
	.loc	5 208 13 is_stmt 1
	movq	16(%rcx), %rax
	movq	%rax, -64(%rbp)
Ltmp45:
	.file	6 "/rustc/2c8cc343237b8f7d5a3c3703e3a87f2eb2c54a74/library/core/src/ptr" "const_ptr.rs"
	.loc	6 209 33
	movq	%rax, -56(%rbp)
	.loc	6 209 18 is_stmt 0
	movq	%rax, -48(%rbp)
	movq	-48(%rbp), %rax
	movq	%rax, -40(%rbp)
Ltmp46:
	.loc	5 208 42 is_stmt 1
	movq	8(%rcx), %rcx
	movq	%rcx, -32(%rbp)
Ltmp47:
	.loc	6 209 33
	movq	%rcx, -24(%rbp)
	.loc	6 209 18 is_stmt 0
	movq	%rcx, -16(%rbp)
	movq	-16(%rbp), %rcx
	movq	%rcx, -8(%rbp)
Ltmp48:
	.file	7 "/rustc/2c8cc343237b8f7d5a3c3703e3a87f2eb2c54a74/library/core/src/num" "uint_macros.rs"
	.loc	7 1203 13 is_stmt 1
	subq	%rcx, %rax
	movq	%rax, -96(%rbp)
Ltmp49:
LBB7_3:
	.loc	7 0 13 is_stmt 0
	movq	-104(%rbp), %rax
	movq	-112(%rbp), %rcx
Ltmp50:
	.loc	5 212 10 is_stmt 1
	movq	-96(%rbp), %rdx
	.loc	5 212 22 is_stmt 0
	movq	-96(%rbp), %rsi
	.loc	5 212 17
	movq	%rsi, -80(%rbp)
	movq	$1, -88(%rbp)
	.loc	5 212 9
	movq	%rdx, (%rcx)
	movq	-88(%rbp), %rsi
	movq	-80(%rbp), %rdx
	movq	%rsi, 8(%rcx)
	movq	%rdx, 16(%rcx)
Ltmp51:
	.loc	5 213 6 is_stmt 1
	addq	$128, %rsp
	popq	%rbp
	retq
Ltmp52:
Lfunc_end7:
	.cfi_endproc

	.globl	__ZN111_$LT$core..iter..adapters..zip..Zip$LT$A$C$B$GT$$u20$as$u20$core..iter..adapters..zip..ZipImpl$LT$A$C$B$GT$$GT$3new17hf05150d4287218cfE
	.p2align	4, 0x90
__ZN111_$LT$core..iter..adapters..zip..Zip$LT$A$C$B$GT$$u20$as$u20$core..iter..adapters..zip..ZipImpl$LT$A$C$B$GT$$GT$3new17hf05150d4287218cfE:
Lfunc_begin8:
	.loc	4 262 0
	.cfi_startproc
	.cfi_personality 155, _rust_eh_personality
	.cfi_lsda 16, Lexception2
	pushq	%rbp
	.cfi_def_cfa_offset 16
	.cfi_offset %rbp, -16
	movq	%rsp, %rbp
	.cfi_def_cfa_register %rbp
	subq	$144, %rsp
	movq	%rdi, -120(%rbp)
	movq	%rdi, -112(%rbp)
	movq	%rsi, -96(%rbp)
	movq	%rdx, -88(%rbp)
	movq	%rcx, -80(%rbp)
	movq	%r8, -72(%rbp)
Ltmp53:
	leaq	-96(%rbp), %rdi
Ltmp60:
	.loc	4 263 21 prologue_end
	callq	__ZN4core4iter8adapters3zip27TrustedRandomAccessNoCoerce4size17h17c1b5e10b566167E
Ltmp54:
	movq	%rax, -104(%rbp)
	jmp	LBB8_3
LBB8_1:
	.loc	4 262 5
	movq	-64(%rbp), %rdi
	callq	__Unwind_Resume
LBB8_2:
Ltmp59:
	.loc	4 0 5 is_stmt 0
	movq	%rax, %rcx
	movl	%edx, %eax
	movq	%rcx, -64(%rbp)
	movl	%eax, -56(%rbp)
	jmp	LBB8_1
LBB8_3:
	movq	-104(%rbp), %rax
	.loc	4 263 21 is_stmt 1
	movq	%rax, -48(%rbp)
Ltmp61:
	.loc	4 264 28
	movq	%rax, -40(%rbp)
Ltmp55:
	leaq	-80(%rbp), %rdi
	.loc	4 264 35 is_stmt 0
	callq	__ZN4core4iter8adapters3zip27TrustedRandomAccessNoCoerce4size17h5aee078de7cf220fE
Ltmp56:
	movq	%rax, -128(%rbp)
	jmp	LBB8_4
LBB8_4:
	.loc	4 0 35
	movq	-128(%rbp), %rsi
	movq	-104(%rbp), %rdi
	.loc	4 264 35
	movq	%rsi, -32(%rbp)
Ltmp62:
	.file	8 "/rustc/2c8cc343237b8f7d5a3c3703e3a87f2eb2c54a74/library/core/src" "cmp.rs"
	.loc	8 1185 5 is_stmt 1
	movq	%rdi, -24(%rbp)
	.loc	8 1185 12 is_stmt 0
	movq	%rsi, -16(%rbp)
Ltmp57:
Ltmp63:
	.loc	8 833 13 is_stmt 1
	callq	__ZN4core3cmp6min_by17h8d2bddb5692d7b3eE
Ltmp58:
	movq	%rax, -136(%rbp)
	jmp	LBB8_5
LBB8_5:
	.loc	8 0 13 is_stmt 0
	movq	-112(%rbp), %rax
	movq	-120(%rbp), %rcx
	movq	-104(%rbp), %rdx
	movq	-136(%rbp), %rsi
	.loc	8 833 13
	movq	%rsi, -8(%rbp)
Ltmp64:
	.loc	4 265 15 is_stmt 1
	movq	-96(%rbp), %r10
	movq	-88(%rbp), %r9
	.loc	4 265 18 is_stmt 0
	movq	-80(%rbp), %r8
	movq	-72(%rbp), %rdi
	.loc	4 265 9
	movq	%r10, (%rcx)
	movq	%r9, 8(%rcx)
	movq	%r8, 16(%rcx)
	movq	%rdi, 24(%rcx)
	movq	$0, 32(%rcx)
	movq	%rsi, 40(%rcx)
	movq	%rdx, 48(%rcx)
Ltmp65:
	.loc	4 266 6 is_stmt 1
	addq	$144, %rsp
	popq	%rbp
	retq
Ltmp66:
Lfunc_end8:
	.cfi_endproc
	.section	__TEXT,__gcc_except_tab
	.p2align	2
GCC_except_table8:
Lexception2:
	.byte	255
	.byte	255
	.byte	1
	.uleb128 Lcst_end2-Lcst_begin2
Lcst_begin2:
	.uleb128 Ltmp53-Lfunc_begin8
	.uleb128 Ltmp54-Ltmp53
	.uleb128 Ltmp59-Lfunc_begin8
	.byte	0
	.uleb128 Ltmp54-Lfunc_begin8
	.uleb128 Ltmp55-Ltmp54
	.byte	0
	.byte	0
	.uleb128 Ltmp55-Lfunc_begin8
	.uleb128 Ltmp58-Ltmp55
	.uleb128 Ltmp59-Lfunc_begin8
	.byte	0
Lcst_end2:
	.p2align	2

	.section	__TEXT,__text,regular,pure_instructions
	.globl	__ZN111_$LT$core..iter..adapters..zip..Zip$LT$A$C$B$GT$$u20$as$u20$core..iter..adapters..zip..ZipImpl$LT$A$C$B$GT$$GT$4next17h246b9da1110c0477E
	.p2align	4, 0x90
__ZN111_$LT$core..iter..adapters..zip..Zip$LT$A$C$B$GT$$u20$as$u20$core..iter..adapters..zip..ZipImpl$LT$A$C$B$GT$$GT$4next17h246b9da1110c0477E:
Lfunc_begin9:
	.loc	4 269 0
	.cfi_startproc
	.cfi_personality 155, _rust_eh_personality
	.cfi_lsda 16, Lexception3
	pushq	%rbp
	.cfi_def_cfa_offset 16
	.cfi_offset %rbp, -16
	movq	%rsp, %rbp
	.cfi_def_cfa_register %rbp
	subq	$112, %rsp
	movq	%rdi, -88(%rbp)
	movq	%rdi, -40(%rbp)
Ltmp70:
	.loc	4 270 12 prologue_end
	movq	32(%rdi), %rax
	cmpq	40(%rdi), %rax
	jb	LBB9_2
	.loc	4 279 19
	xorl	%eax, %eax
	testb	$1, %al
	jne	LBB9_8
	jmp	LBB9_7
LBB9_2:
	.loc	4 0 19 is_stmt 0
	movq	-88(%rbp), %rdi
	.loc	4 271 21 is_stmt 1
	movq	32(%rdi), %rsi
	movq	%rsi, -112(%rbp)
	movq	%rsi, -32(%rbp)
Ltmp71:
	.loc	4 274 13
	movq	32(%rdi), %rax
	incq	%rax
	movq	%rax, 32(%rdi)
	.loc	4 277 23
	callq	__ZN94_$LT$core..slice..iter..IterMut$LT$T$GT$$u20$as$u20$core..iter..traits..iterator..Iterator$GT$24__iterator_get_unchecked17hc2756028d4f4ef9fE
	movq	-88(%rbp), %rdi
	movq	-112(%rbp), %rsi
	movq	%rax, -104(%rbp)
	.loc	4 277 59 is_stmt 0
	addq	$16, %rdi
Ltmp67:
	callq	__ZN91_$LT$core..slice..iter..Iter$LT$T$GT$$u20$as$u20$core..iter..traits..iterator..Iterator$GT$24__iterator_get_unchecked17ha288b869ea4757c0E
Ltmp68:
	movq	%rax, -96(%rbp)
	jmp	LBB9_5
Ltmp72:
LBB9_3:
	.loc	4 269 5 is_stmt 1
	movq	-24(%rbp), %rdi
	callq	__Unwind_Resume
LBB9_4:
Ltmp69:
	.loc	4 0 5 is_stmt 0
	movq	%rax, %rcx
	movl	%edx, %eax
	movq	%rcx, -24(%rbp)
	movl	%eax, -16(%rbp)
	jmp	LBB9_3
LBB9_5:
	movq	-96(%rbp), %rax
	movq	-104(%rbp), %rcx
Ltmp73:
	.loc	4 277 22 is_stmt 1
	movq	%rcx, -64(%rbp)
	movq	%rax, -56(%rbp)
	.loc	4 277 17 is_stmt 0
	movq	-64(%rbp), %rcx
	movq	-56(%rbp), %rax
	movq	%rcx, -80(%rbp)
	movq	%rax, -72(%rbp)
Ltmp74:
LBB9_6:
	.loc	4 293 6 is_stmt 1
	movq	-80(%rbp), %rax
	movq	-72(%rbp), %rdx
	addq	$112, %rsp
	popq	%rbp
	retq
LBB9_7:
	.loc	4 279 19
	movb	$0, -41(%rbp)
	jmp	LBB9_9
LBB9_8:
	.loc	4 0 19 is_stmt 0
	movq	-88(%rbp), %rcx
	.loc	4 279 46
	movq	32(%rcx), %rax
	cmpq	48(%rcx), %rax
	setb	%al
	.loc	4 279 19
	andb	$1, %al
	movb	%al, -41(%rbp)
LBB9_9:
	testb	$1, -41(%rbp)
	jne	LBB9_11
	.loc	4 291 13 is_stmt 1
	movq	$0, -80(%rbp)
	.loc	4 279 16
	jmp	LBB9_12
LBB9_11:
	.loc	4 0 16 is_stmt 0
	movq	-88(%rbp), %rdi
	.loc	4 280 21 is_stmt 1
	movq	32(%rdi), %rsi
	movq	%rsi, -8(%rbp)
Ltmp75:
	.loc	4 282 13
	movq	32(%rdi), %rax
	addq	$1, %rax
	movq	%rax, 32(%rdi)
	.loc	4 283 13
	movq	40(%rdi), %rax
	addq	$1, %rax
	movq	%rax, 40(%rdi)
	.loc	4 287 17
	callq	__ZN94_$LT$core..slice..iter..IterMut$LT$T$GT$$u20$as$u20$core..iter..traits..iterator..Iterator$GT$24__iterator_get_unchecked17hc2756028d4f4ef9fE
	.loc	4 289 13
	movq	$0, -80(%rbp)
Ltmp76:
LBB9_12:
	.loc	4 270 9
	jmp	LBB9_6
Ltmp77:
Lfunc_end9:
	.cfi_endproc
	.section	__TEXT,__gcc_except_tab
	.p2align	2
GCC_except_table9:
Lexception3:
	.byte	255
	.byte	255
	.byte	1
	.uleb128 Lcst_end3-Lcst_begin3
Lcst_begin3:
	.uleb128 Lfunc_begin9-Lfunc_begin9
	.uleb128 Ltmp67-Lfunc_begin9
	.byte	0
	.byte	0
	.uleb128 Ltmp67-Lfunc_begin9
	.uleb128 Ltmp68-Ltmp67
	.uleb128 Ltmp69-Lfunc_begin9
	.byte	0
	.uleb128 Ltmp68-Lfunc_begin9
	.uleb128 Lfunc_end9-Ltmp68
	.byte	0
	.byte	0
Lcst_end3:
	.p2align	2

	.section	__TEXT,__text,regular,pure_instructions
	.p2align	4, 0x90
__ZN11miniz_oxide7inflate4core17DecompressorOxide7adler3217h3620498be3c7b733E:
Lfunc_begin10:
	.file	9 "/Users/natalie/.cargo/registry/src/github.com-1ecc6299db9ec823/miniz_oxide-0.5.4/src/inflate" "core.rs"
	.loc	9 214 0
	.cfi_startproc
	pushq	%rbp
	.cfi_def_cfa_offset 16
	.cfi_offset %rbp, -16
	movq	%rsp, %rbp
	.cfi_def_cfa_register %rbp
	subq	$32, %rsp
	movq	%rdi, -32(%rbp)
	movq	%rdi, -8(%rbp)
Ltmp78:
	.loc	9 215 12 prologue_end
	addq	$10985, %rdi
	leaq	l___unnamed_29(%rip), %rsi
	callq	__ZN4core3cmp9PartialEq2ne17hcbadfa28133f386fE
	testb	$1, %al
	jne	LBB10_2
	movb	$0, -9(%rbp)
	jmp	LBB10_3
LBB10_2:
	.loc	9 0 12 is_stmt 0
	movq	-32(%rbp), %rax
	.loc	9 215 43
	movzbl	10985(%rax), %edi
	callq	__ZN11miniz_oxide7inflate4core5State10is_failure17h0fb647a8d6e3db58E
	.loc	9 215 42
	xorb	$-1, %al
	.loc	9 215 12
	andb	$1, %al
	movb	%al, -9(%rbp)
LBB10_3:
	testb	$1, -9(%rbp)
	jne	LBB10_5
	movb	$0, -10(%rbp)
	jmp	LBB10_6
LBB10_5:
	.loc	9 0 12
	movq	-32(%rbp), %rax
	.loc	9 215 70
	cmpl	$0, 10476(%rax)
	setne	%al
	.loc	9 215 12
	andb	$1, %al
	movb	%al, -10(%rbp)
LBB10_6:
	testb	$1, -10(%rbp)
	jne	LBB10_8
	.loc	9 218 13 is_stmt 1
	movl	$0, -24(%rbp)
	.loc	9 215 9
	jmp	LBB10_9
LBB10_8:
	.loc	9 0 9 is_stmt 0
	movq	-32(%rbp), %rax
	.loc	9 216 18 is_stmt 1
	movl	10496(%rax), %eax
	.loc	9 216 13 is_stmt 0
	movl	%eax, -20(%rbp)
	movl	$1, -24(%rbp)
LBB10_9:
	.loc	9 220 6 is_stmt 1
	movl	-24(%rbp), %eax
	movl	-20(%rbp), %edx
	addq	$32, %rsp
	popq	%rbp
	retq
Ltmp79:
Lfunc_end10:
	.cfi_endproc

	.p2align	4, 0x90
__ZN11miniz_oxide7inflate6stream12InflateState5reset17h5000a44ae93c5921E:
Lfunc_begin11:
	.loc	2 148 0
	.cfi_startproc
	pushq	%rbp
	.cfi_def_cfa_offset 16
	.cfi_offset %rbp, -16
	movq	%rsp, %rbp
	.cfi_def_cfa_register %rbp
	subq	$32, %rsp
	movb	%sil, %al
	movq	%rdi, -16(%rbp)
	movb	%al, -1(%rbp)
Ltmp80:
	.loc	2 149 23 prologue_end
	movb	%al, -17(%rbp)
	.loc	2 149 9 is_stmt 0
	movzbl	-17(%rbp), %esi
	callq	__ZN11miniz_oxide7inflate6stream12InflateState8reset_as17hcb054860c09a2687E
	.loc	2 150 6 is_stmt 1
	addq	$32, %rsp
	popq	%rbp
	retq
Ltmp81:
Lfunc_end11:
	.cfi_endproc

	.globl	__ZN11miniz_oxide7inflate6stream12InflateState8reset_as17hcb054860c09a2687E
	.p2align	4, 0x90
__ZN11miniz_oxide7inflate6stream12InflateState8reset_as17hcb054860c09a2687E:
Lfunc_begin12:
	.loc	2 154 0
	.cfi_startproc
	.cfi_personality 155, _rust_eh_personality
	.cfi_lsda 16, Lexception4
	pushq	%rbp
	.cfi_def_cfa_offset 16
	.cfi_offset %rbp, -16
	movq	%rsp, %rbp
	.cfi_def_cfa_register %rbp
	subq	$32, %rsp
	movl	%esi, %eax
	movq	%rdi, %rsi
	movb	%al, -25(%rbp)
	movq	%rsi, -24(%rbp)
Ltmp82:
	leaq	-25(%rbp), %rdi
Ltmp85:
	.loc	2 155 9 prologue_end
	callq	__ZN101_$LT$miniz_oxide..inflate..stream..FullReset$u20$as$u20$miniz_oxide..inflate..stream..ResetPolicy$GT$5reset17h1f5594cec0f5fa91E
Ltmp83:
	jmp	LBB12_3
LBB12_1:
	.loc	2 154 5
	movq	-16(%rbp), %rdi
	callq	__Unwind_Resume
LBB12_2:
Ltmp84:
	.loc	2 0 5 is_stmt 0
	movq	%rax, %rcx
	movl	%edx, %eax
	movq	%rcx, -16(%rbp)
	movl	%eax, -8(%rbp)
	jmp	LBB12_1
LBB12_3:
	.loc	2 156 6 is_stmt 1
	addq	$32, %rsp
	popq	%rbp
	retq
Ltmp86:
Lfunc_end12:
	.cfi_endproc
	.section	__TEXT,__gcc_except_tab
	.p2align	2
GCC_except_table12:
Lexception4:
	.byte	255
	.byte	255
	.byte	1
	.uleb128 Lcst_end4-Lcst_begin4
Lcst_begin4:
	.uleb128 Ltmp82-Lfunc_begin12
	.uleb128 Ltmp83-Ltmp82
	.uleb128 Ltmp84-Lfunc_begin12
	.byte	0
	.uleb128 Ltmp83-Lfunc_begin12
	.uleb128 Lfunc_end12-Ltmp83
	.byte	0
	.byte	0
Lcst_end4:
	.p2align	2

	.section	__TEXT,__text,regular,pure_instructions
	.globl	__ZN136_$LT$alloc..vec..Vec$LT$T$C$A$GT$$u20$as$u20$alloc..vec..spec_extend..SpecExtend$LT$T$C$alloc..vec..into_iter..IntoIter$LT$T$GT$$GT$$GT$11spec_extend17haeadc3ba071d56afE
	.p2align	4, 0x90
__ZN136_$LT$alloc..vec..Vec$LT$T$C$A$GT$$u20$as$u20$alloc..vec..spec_extend..SpecExtend$LT$T$C$alloc..vec..into_iter..IntoIter$LT$T$GT$$GT$$GT$11spec_extend17haeadc3ba071d56afE:
Lfunc_begin13:
	.file	10 "/rustc/2c8cc343237b8f7d5a3c3703e3a87f2eb2c54a74/library/alloc/src/vec" "spec_extend.rs"
	.loc	10 31 0
	.cfi_startproc
	.cfi_personality 155, _rust_eh_personality
	.cfi_lsda 16, Lexception5
	pushq	%rbp
	.cfi_def_cfa_offset 16
	.cfi_offset %rbp, -16
	movq	%rsp, %rbp
	.cfi_def_cfa_register %rbp
	subq	$64, %rsp
	movq	%rsi, -64(%rbp)
	movq	%rdi, %rax
	movq	-64(%rbp), %rdi
	movq	%rax, -56(%rbp)
	movq	%rdi, -48(%rbp)
Ltmp97:
	movq	%rax, -24(%rbp)
Ltmp87:
Ltmp98:
	.loc	10 33 34 prologue_end
	callq	__ZN5alloc3vec9into_iter21IntoIter$LT$T$C$A$GT$8as_slice17h1f8ee66a973b860fE
Ltmp99:
Ltmp88:
	.loc	10 0 34 is_stmt 0
	movq	%rdx, -40(%rbp)
	movq	%rax, -32(%rbp)
Ltmp100:
	.loc	10 33 34
	jmp	LBB13_3
Ltmp101:
LBB13_1:
Ltmp94:
	.loc	10 0 34
	movq	-48(%rbp), %rdi
	.loc	10 36 5 is_stmt 1
	callq	__ZN4core3ptr62drop_in_place$LT$alloc..vec..into_iter..IntoIter$LT$u8$GT$$GT$17he7275239158d5030E
Ltmp95:
	jmp	LBB13_7
Ltmp102:
LBB13_2:
Ltmp93:
	.loc	10 0 5 is_stmt 0
	movq	%rax, %rcx
	movl	%edx, %eax
	movq	%rcx, -16(%rbp)
	movl	%eax, -8(%rbp)
	jmp	LBB13_1
Ltmp103:
LBB13_3:
Ltmp89:
	movq	-40(%rbp), %rdx
	movq	-32(%rbp), %rsi
	movq	-56(%rbp), %rdi
	.loc	10 33 13 is_stmt 1
	callq	__ZN5alloc3vec16Vec$LT$T$C$A$GT$15append_elements17ha2043eb8b693b166E
Ltmp90:
	jmp	LBB13_4
Ltmp104:
LBB13_4:
Ltmp91:
	.loc	10 0 13 is_stmt 0
	movq	-48(%rbp), %rdi
	.loc	10 35 9 is_stmt 1
	callq	__ZN5alloc3vec9into_iter21IntoIter$LT$T$C$A$GT$25forget_remaining_elements17h28cac6150b4649e0E
Ltmp92:
	jmp	LBB13_5
Ltmp105:
LBB13_5:
	.loc	10 0 9 is_stmt 0
	movq	-48(%rbp), %rdi
	.loc	10 36 5 is_stmt 1
	callq	__ZN4core3ptr62drop_in_place$LT$alloc..vec..into_iter..IntoIter$LT$u8$GT$$GT$17he7275239158d5030E
	.loc	10 36 6 is_stmt 0
	addq	$64, %rsp
	popq	%rbp
	retq
Ltmp106:
LBB13_6:
Ltmp96:
	.loc	10 31 5 is_stmt 1
	callq	__ZN4core9panicking19panic_cannot_unwind17h1fbca7e1d7f56ae1E
Ltmp107:
LBB13_7:
	movq	-16(%rbp), %rdi
	callq	__Unwind_Resume
Ltmp108:
Lfunc_end13:
	.cfi_endproc
	.section	__TEXT,__gcc_except_tab
	.p2align	2
GCC_except_table13:
Lexception5:
	.byte	255
	.byte	255
	.byte	1
	.uleb128 Lcst_end5-Lcst_begin5
Lcst_begin5:
	.uleb128 Ltmp87-Lfunc_begin13
	.uleb128 Ltmp88-Ltmp87
	.uleb128 Ltmp93-Lfunc_begin13
	.byte	0
	.uleb128 Ltmp94-Lfunc_begin13
	.uleb128 Ltmp95-Ltmp94
	.uleb128 Ltmp96-Lfunc_begin13
	.byte	0
	.uleb128 Ltmp89-Lfunc_begin13
	.uleb128 Ltmp92-Ltmp89
	.uleb128 Ltmp93-Lfunc_begin13
	.byte	0
	.uleb128 Ltmp92-Lfunc_begin13
	.uleb128 Lfunc_end13-Ltmp92
	.byte	0
	.byte	0
Lcst_end5:
	.p2align	2

	.section	__TEXT,__text,regular,pure_instructions
	.globl	__ZN146_$LT$alloc..boxed..Box$LT$dyn$u20$core..error..Error$u2b$core..marker..Send$u2b$core..marker..Sync$GT$$u20$as$u20$core..convert..From$LT$E$GT$$GT$4from17h41ce7640f5a81220E
	.p2align	4, 0x90
__ZN146_$LT$alloc..boxed..Box$LT$dyn$u20$core..error..Error$u2b$core..marker..Send$u2b$core..marker..Sync$GT$$u20$as$u20$core..convert..From$LT$E$GT$$GT$4from17h41ce7640f5a81220E:
Lfunc_begin14:
	.file	11 "/rustc/2c8cc343237b8f7d5a3c3703e3a87f2eb2c54a74/library/alloc/src" "boxed.rs"
	.loc	11 2253 0
	.cfi_startproc
	.cfi_personality 155, _rust_eh_personality
	.cfi_lsda 16, Lexception6
	pushq	%rbp
	.cfi_def_cfa_offset 16
	.cfi_offset %rbp, -16
	movq	%rsp, %rbp
	.cfi_def_cfa_register %rbp
	subq	$48, %rsp
Ltmp109:
	xorl	%eax, %eax
	movl	%eax, %edi
	movl	$1, %esi
Ltmp112:
	.loc	11 219 9 prologue_end
	callq	__ZN5alloc5alloc15exchange_malloc17hc91cc4764a934030E
Ltmp110:
	movq	%rax, -40(%rbp)
	jmp	LBB14_3
Ltmp113:
LBB14_1:
	.loc	11 2253 5
	movq	-16(%rbp), %rdi
	callq	__Unwind_Resume
LBB14_2:
Ltmp111:
	.loc	11 0 5 is_stmt 0
	movq	%rax, %rcx
	movl	%edx, %eax
	movq	%rcx, -16(%rbp)
	movl	%eax, -8(%rbp)
	jmp	LBB14_1
LBB14_3:
	movq	-40(%rbp), %rax
	.loc	11 2255 6 is_stmt 1
	leaq	l___unnamed_1(%rip), %rdx
	addq	$48, %rsp
	popq	%rbp
	retq
Ltmp114:
Lfunc_end14:
	.cfi_endproc
	.section	__TEXT,__gcc_except_tab
	.p2align	2
GCC_except_table14:
Lexception6:
	.byte	255
	.byte	255
	.byte	1
	.uleb128 Lcst_end6-Lcst_begin6
Lcst_begin6:
	.uleb128 Ltmp109-Lfunc_begin14
	.uleb128 Ltmp110-Ltmp109
	.uleb128 Ltmp111-Lfunc_begin14
	.byte	0
	.uleb128 Ltmp110-Lfunc_begin14
	.uleb128 Lfunc_end14-Ltmp110
	.byte	0
	.byte	0
Lcst_end6:
	.p2align	2

	.section	__TEXT,__text,regular,pure_instructions
	.globl	__ZN146_$LT$alloc..boxed..Box$LT$dyn$u20$core..error..Error$u2b$core..marker..Send$u2b$core..marker..Sync$GT$$u20$as$u20$core..convert..From$LT$E$GT$$GT$4from17hd4652596607d6f05E
	.p2align	4, 0x90
__ZN146_$LT$alloc..boxed..Box$LT$dyn$u20$core..error..Error$u2b$core..marker..Send$u2b$core..marker..Sync$GT$$u20$as$u20$core..convert..From$LT$E$GT$$GT$4from17hd4652596607d6f05E:
Lfunc_begin15:
	.loc	11 2253 0
	.cfi_startproc
	.cfi_personality 155, _rust_eh_personality
	.cfi_lsda 16, Lexception7
	pushq	%rbp
	.cfi_def_cfa_offset 16
	.cfi_offset %rbp, -16
	movq	%rsp, %rbp
	.cfi_def_cfa_register %rbp
	subq	$48, %rsp
	movl	%edi, -48(%rbp)
	movl	%esi, -44(%rbp)
	movl	%edi, -32(%rbp)
	movl	%esi, -28(%rbp)
Ltmp118:
	.loc	11 2254 18 prologue_end
	movl	%edi, -24(%rbp)
	movl	%esi, -20(%rbp)
Ltmp115:
	movl	$8, %edi
	movl	$4, %esi
Ltmp119:
	.loc	11 219 9
	callq	__ZN5alloc5alloc15exchange_malloc17hc91cc4764a934030E
Ltmp116:
	movq	%rax, -40(%rbp)
	jmp	LBB15_3
Ltmp120:
LBB15_1:
	.loc	11 2253 5
	movq	-16(%rbp), %rdi
	callq	__Unwind_Resume
LBB15_2:
Ltmp117:
	.loc	11 0 5 is_stmt 0
	movq	%rax, %rcx
	movl	%edx, %eax
	movq	%rcx, -16(%rbp)
	movl	%eax, -8(%rbp)
	jmp	LBB15_1
LBB15_3:
	movq	-40(%rbp), %rax
	movl	-44(%rbp), %ecx
	movl	-48(%rbp), %edx
Ltmp121:
	.loc	11 219 18 is_stmt 1
	movl	%edx, (%rax)
	movl	%ecx, 4(%rax)
Ltmp122:
	.loc	11 2255 6
	leaq	l___unnamed_2(%rip), %rdx
	addq	$48, %rsp
	popq	%rbp
	retq
Ltmp123:
Lfunc_end15:
	.cfi_endproc
	.section	__TEXT,__gcc_except_tab
	.p2align	2
GCC_except_table15:
Lexception7:
	.byte	255
	.byte	255
	.byte	1
	.uleb128 Lcst_end7-Lcst_begin7
Lcst_begin7:
	.uleb128 Ltmp115-Lfunc_begin15
	.uleb128 Ltmp116-Ltmp115
	.uleb128 Ltmp117-Lfunc_begin15
	.byte	0
	.uleb128 Ltmp116-Lfunc_begin15
	.uleb128 Lfunc_end15-Ltmp116
	.byte	0
	.byte	0
Lcst_end7:
	.p2align	2

	.section	__TEXT,__text,regular,pure_instructions
	.p2align	4, 0x90
__ZN152_$LT$alloc..boxed..Box$LT$dyn$u20$core..error..Error$u2b$core..marker..Send$u2b$core..marker..Sync$GT$$u20$as$u20$core..convert..From$LT$$RF$str$GT$$GT$4from17h87ecb4e944a9bc28E:
Lfunc_begin16:
	.loc	11 2343 0
	.cfi_startproc
	pushq	%rbp
	.cfi_def_cfa_offset 16
	.cfi_offset %rbp, -16
	movq	%rsp, %rbp
	.cfi_def_cfa_register %rbp
	subq	$160, %rsp
	movq	%rdi, -80(%rbp)
	movq	%rsi, -72(%rbp)
Ltmp124:
	.loc	11 2344 33 prologue_end
	movq	%rdi, -64(%rbp)
	movq	%rsi, -56(%rbp)
Ltmp125:
	.file	12 "/rustc/2c8cc343237b8f7d5a3c3703e3a87f2eb2c54a74/library/alloc/src" "string.rs"
	.loc	12 2662 9
	movq	%rdi, -48(%rbp)
	movq	%rsi, -40(%rbp)
Ltmp126:
	.file	13 "/rustc/2c8cc343237b8f7d5a3c3703e3a87f2eb2c54a74/library/alloc/src" "str.rs"
	.loc	13 209 46
	movq	%rdi, -32(%rbp)
	movq	%rsi, -24(%rbp)
Ltmp127:
	.file	14 "/rustc/2c8cc343237b8f7d5a3c3703e3a87f2eb2c54a74/library/core/src/str" "mod.rs"
	.loc	14 327 18
	movq	%rdi, -16(%rbp)
	movq	%rsi, -8(%rbp)
	movq	-16(%rbp), %rsi
	movq	-8(%rbp), %rdx
	leaq	-128(%rbp), %rdi
Ltmp128:
	.loc	13 209 46
	callq	__ZN5alloc5slice64_$LT$impl$u20$alloc..borrow..ToOwned$u20$for$u20$$u5b$T$u5d$$GT$8to_owned17h34cdf07ca6e98f92E
Ltmp129:
	.loc	12 846 23
	movq	-112(%rbp), %rax
	movq	%rax, -88(%rbp)
	movq	-128(%rbp), %rax
	movq	-120(%rbp), %rcx
	movq	%rcx, -96(%rbp)
	movq	%rax, -104(%rbp)
	.loc	12 846 9 is_stmt 0
	movq	-88(%rbp), %rax
	movq	%rax, -136(%rbp)
	movq	-104(%rbp), %rax
	movq	-96(%rbp), %rcx
	movq	%rcx, -144(%rbp)
	movq	%rax, -152(%rbp)
	leaq	-152(%rbp), %rdi
Ltmp130:
	.loc	11 2344 9 is_stmt 1
	callq	__ZN166_$LT$alloc..boxed..Box$LT$dyn$u20$core..error..Error$u2b$core..marker..Send$u2b$core..marker..Sync$GT$$u20$as$u20$core..convert..From$LT$alloc..string..String$GT$$GT$4from17hf46be0d9ebe14c06E
	.loc	11 2345 6
	addq	$160, %rsp
	popq	%rbp
	retq
Ltmp131:
Lfunc_end16:
	.cfi_endproc

	.globl	__ZN157_$LT$$LT$alloc..vec..into_iter..IntoIter$LT$T$C$A$GT$$u20$as$u20$core..ops..drop..Drop$GT$..drop..DropGuard$LT$T$C$A$GT$$u20$as$u20$core..ops..drop..Drop$GT$4drop17hbc35e05de5511d7bE
	.p2align	4, 0x90
__ZN157_$LT$$LT$alloc..vec..into_iter..IntoIter$LT$T$C$A$GT$$u20$as$u20$core..ops..drop..Drop$GT$..drop..DropGuard$LT$T$C$A$GT$$u20$as$u20$core..ops..drop..Drop$GT$4drop17hbc35e05de5511d7bE:
Lfunc_begin17:
	.loc	5 390 0
	.cfi_startproc
	.cfi_personality 155, _rust_eh_personality
	.cfi_lsda 16, Lexception8
	pushq	%rbp
	.cfi_def_cfa_offset 16
	.cfi_offset %rbp, -16
	movq	%rsp, %rbp
	.cfi_def_cfa_register %rbp
	subq	$160, %rsp
	movq	%rdi, -120(%rbp)
Ltmp135:
	.loc	5 393 52 prologue_end
	movq	(%rdi), %rax
	movq	%rax, -80(%rbp)
Ltmp136:
	.file	15 "/rustc/2c8cc343237b8f7d5a3c3703e3a87f2eb2c54a74/library/core/src/mem" "manually_drop.rs"
	.loc	15 113 28
	movq	%rax, -72(%rbp)
	leaq	-144(%rbp), %rax
Ltmp137:
	.file	16 "/rustc/2c8cc343237b8f7d5a3c3703e3a87f2eb2c54a74/library/core/src/ptr" "mod.rs"
	.loc	16 1157 34
	movq	%rax, -64(%rbp)
Ltmp138:
	.loc	5 395 55
	movq	(%rdi), %rax
	movq	24(%rax), %rcx
	movq	%rcx, -56(%rbp)
Ltmp139:
	.file	17 "/rustc/2c8cc343237b8f7d5a3c3703e3a87f2eb2c54a74/library/core/src/ptr" "non_null.rs"
	.loc	17 326 9
	movq	%rcx, -48(%rbp)
Ltmp140:
	.loc	5 395 76
	movq	(%rdi), %rax
	movq	(%rax), %rax
	movq	%rax, -40(%rbp)
Ltmp141:
	.file	18 "/rustc/2c8cc343237b8f7d5a3c3703e3a87f2eb2c54a74/library/alloc/src" "raw_vec.rs"
	.loc	18 216 52
	movq	%rcx, -32(%rbp)
Ltmp142:
	.file	19 "/rustc/2c8cc343237b8f7d5a3c3703e3a87f2eb2c54a74/library/core/src/ptr" "unique.rs"
	.loc	19 87 59
	movq	%rcx, -24(%rbp)
Ltmp143:
	.loc	17 201 13
	movq	%rcx, -128(%rbp)
Ltmp144:
	.loc	19 87 18
	movq	-128(%rbp), %rcx
	movq	%rcx, -136(%rbp)
Ltmp145:
	.loc	18 216 9
	movq	-136(%rbp), %rcx
	movq	%rcx, -152(%rbp)
	movq	%rax, -160(%rbp)
Ltmp132:
	leaq	-160(%rbp), %rdi
Ltmp146:
	.loc	5 395 94
	callq	__ZN4core3ptr53drop_in_place$LT$alloc..raw_vec..RawVec$LT$u8$GT$$GT$17h203204aeb1a2b5b2E
Ltmp133:
	jmp	LBB17_3
Ltmp147:
LBB17_1:
	.loc	5 396 17
	xorl	%eax, %eax
	testb	$1, %al
	jne	LBB17_5
	jmp	LBB17_4
LBB17_2:
Ltmp134:
	.loc	5 0 17 is_stmt 0
	movq	%rax, %rcx
	movl	%edx, %eax
	movq	%rcx, -16(%rbp)
	movl	%eax, -8(%rbp)
	jmp	LBB17_1
LBB17_3:
	.loc	5 397 14 is_stmt 1
	addq	$160, %rsp
	popq	%rbp
	retq
LBB17_4:
	.loc	5 390 13
	movq	-16(%rbp), %rdi
	callq	__Unwind_Resume
LBB17_5:
	.loc	5 396 17
	jmp	LBB17_4
Ltmp148:
Lfunc_end17:
	.cfi_endproc
	.section	__TEXT,__gcc_except_tab
	.p2align	2
GCC_except_table17:
Lexception8:
	.byte	255
	.byte	255
	.byte	1
	.uleb128 Lcst_end8-Lcst_begin8
Lcst_begin8:
	.uleb128 Ltmp132-Lfunc_begin17
	.uleb128 Ltmp133-Ltmp132
	.uleb128 Ltmp134-Lfunc_begin17
	.byte	0
	.uleb128 Ltmp133-Lfunc_begin17
	.uleb128 Lfunc_end17-Ltmp133
	.byte	0
	.byte	0
Lcst_end8:
	.p2align	2

	.section	__TEXT,__text,regular,pure_instructions
	.p2align	4, 0x90
__ZN166_$LT$alloc..boxed..Box$LT$dyn$u20$core..error..Error$u2b$core..marker..Send$u2b$core..marker..Sync$GT$$u20$as$u20$core..convert..From$LT$alloc..string..String$GT$$GT$4from17hf46be0d9ebe14c06E:
Lfunc_begin18:
	.loc	11 2275 0
	.cfi_startproc
	.cfi_personality 155, _rust_eh_personality
	.cfi_lsda 16, Lexception9
	pushq	%rbp
	.cfi_def_cfa_offset 16
	.cfi_offset %rbp, -16
	movq	%rsp, %rbp
	.cfi_def_cfa_register %rbp
	subq	$80, %rsp
Ltmp155:
	.loc	11 2298 30 prologue_end
	movq	16(%rdi), %rax
	movq	%rax, -24(%rbp)
	movq	(%rdi), %rax
	movq	8(%rdi), %rcx
	movq	%rcx, -32(%rbp)
	movq	%rax, -40(%rbp)
	.loc	11 2298 18 is_stmt 0
	movq	-24(%rbp), %rax
	movq	%rax, -48(%rbp)
	movq	-40(%rbp), %rax
	movq	-32(%rbp), %rcx
	movq	%rcx, -56(%rbp)
	movq	%rax, -64(%rbp)
Ltmp149:
	movl	$24, %edi
Ltmp156:
	.loc	11 0 18
	movl	$8, %esi
Ltmp157:
	.loc	11 219 9 is_stmt 1
	callq	__ZN5alloc5alloc15exchange_malloc17hc91cc4764a934030E
Ltmp150:
	movq	%rax, -72(%rbp)
	jmp	LBB18_3
Ltmp158:
LBB18_1:
Ltmp152:
	.loc	11 0 9 is_stmt 0
	leaq	-64(%rbp), %rdi
	.loc	11 220 5 is_stmt 1
	callq	__ZN4core3ptr205drop_in_place$LT$$LT$alloc..boxed..Box$LT$dyn$u20$core..error..Error$u2b$core..marker..Send$u2b$core..marker..Sync$GT$$u20$as$u20$core..convert..From$LT$alloc..string..String$GT$$GT$..from..StringError$GT$17h87534402a1d034abE
Ltmp153:
	jmp	LBB18_5
Ltmp159:
LBB18_2:
Ltmp151:
	.loc	11 0 5 is_stmt 0
	movq	%rax, %rcx
	movl	%edx, %eax
	movq	%rcx, -16(%rbp)
	movl	%eax, -8(%rbp)
	jmp	LBB18_1
Ltmp160:
LBB18_3:
	movq	-72(%rbp), %rax
	.loc	11 219 18 is_stmt 1
	movq	-48(%rbp), %rcx
	movq	%rcx, 16(%rax)
	movq	-64(%rbp), %rcx
	movq	-56(%rbp), %rdx
	movq	%rdx, 8(%rax)
	movq	%rcx, (%rax)
Ltmp161:
	.loc	11 2299 6
	leaq	l___unnamed_3(%rip), %rdx
	addq	$80, %rsp
	popq	%rbp
	retq
Ltmp162:
LBB18_4:
Ltmp154:
	.loc	11 2275 5
	callq	__ZN4core9panicking19panic_cannot_unwind17h1fbca7e1d7f56ae1E
Ltmp163:
LBB18_5:
	movq	-16(%rbp), %rdi
	callq	__Unwind_Resume
Ltmp164:
Lfunc_end18:
	.cfi_endproc
	.section	__TEXT,__gcc_except_tab
	.p2align	2
GCC_except_table18:
Lexception9:
	.byte	255
	.byte	255
	.byte	1
	.uleb128 Lcst_end9-Lcst_begin9
Lcst_begin9:
	.uleb128 Ltmp149-Lfunc_begin18
	.uleb128 Ltmp150-Ltmp149
	.uleb128 Ltmp151-Lfunc_begin18
	.byte	0
	.uleb128 Ltmp152-Lfunc_begin18
	.uleb128 Ltmp153-Ltmp152
	.uleb128 Ltmp154-Lfunc_begin18
	.byte	0
	.uleb128 Ltmp153-Lfunc_begin18
	.uleb128 Lfunc_end18-Ltmp153
	.byte	0
	.byte	0
Lcst_end9:
	.p2align	2

	.section	__TEXT,__text,regular,pure_instructions
	.globl	__ZN3std2io5error5Error3new17h8acc39e583c2e273E
	.p2align	4, 0x90
__ZN3std2io5error5Error3new17h8acc39e583c2e273E:
Lfunc_begin19:
	.file	20 "/rustc/2c8cc343237b8f7d5a3c3703e3a87f2eb2c54a74/library/std/src/io" "error.rs"
	.loc	20 504 0
	.cfi_startproc
	pushq	%rbp
	.cfi_def_cfa_offset 16
	.cfi_offset %rbp, -16
	movq	%rsp, %rbp
	.cfi_def_cfa_register %rbp
	subq	$16, %rsp
	movb	%dil, %al
	movb	%al, -10(%rbp)
	movb	%al, -9(%rbp)
Ltmp165:
	.loc	20 508 26 prologue_end
	callq	__ZN50_$LT$T$u20$as$u20$core..convert..Into$LT$U$GT$$GT$4into17h0120430f318ee537E
	movq	%rax, %rsi
	movb	-10(%rbp), %al
	.loc	20 508 9 is_stmt 0
	movzbl	%al, %edi
	callq	__ZN3std2io5error5Error4_new17h9d67976371b8512fE
	.loc	20 509 6 is_stmt 1
	addq	$16, %rsp
	popq	%rbp
	retq
Ltmp166:
Lfunc_end19:
	.cfi_endproc

	.globl	__ZN3std2io5error5Error3new17hd1c8ed383e47d18fE
	.p2align	4, 0x90
__ZN3std2io5error5Error3new17hd1c8ed383e47d18fE:
Lfunc_begin20:
	.loc	20 504 0
	.cfi_startproc
	pushq	%rbp
	.cfi_def_cfa_offset 16
	.cfi_offset %rbp, -16
	movq	%rsp, %rbp
	.cfi_def_cfa_register %rbp
	subq	$48, %rsp
	movq	%rdx, -40(%rbp)
	movq	%rsi, %rax
	movq	-40(%rbp), %rsi
	movq	%rax, -32(%rbp)
	movl	%edi, %eax
	movq	-32(%rbp), %rdi
	movb	%al, -18(%rbp)
	movb	%al, -17(%rbp)
	movq	%rdi, -16(%rbp)
	movq	%rsi, -8(%rbp)
Ltmp167:
	.loc	20 508 26 prologue_end
	callq	__ZN50_$LT$T$u20$as$u20$core..convert..Into$LT$U$GT$$GT$4into17hd0d7e38bcf78b174E
	movq	%rax, %rsi
	movb	-18(%rbp), %al
	.loc	20 508 9 is_stmt 0
	movzbl	%al, %edi
	callq	__ZN3std2io5error5Error4_new17h9d67976371b8512fE
	.loc	20 509 6 is_stmt 1
	addq	$48, %rsp
	popq	%rbp
	retq
Ltmp168:
Lfunc_end20:
	.cfi_endproc

	.globl	__ZN3std2io5error5Error3new17hec695dea52289738E
	.p2align	4, 0x90
__ZN3std2io5error5Error3new17hec695dea52289738E:
Lfunc_begin21:
	.loc	20 504 0
	.cfi_startproc
	pushq	%rbp
	.cfi_def_cfa_offset 16
	.cfi_offset %rbp, -16
	movq	%rsp, %rbp
	.cfi_def_cfa_register %rbp
	subq	$32, %rsp
	movl	%edx, -20(%rbp)
	movl	%esi, %eax
	movl	-20(%rbp), %esi
	movl	%eax, -16(%rbp)
	movl	%edi, %eax
	movl	-16(%rbp), %edi
	movb	%al, -10(%rbp)
	movb	%al, -9(%rbp)
	movl	%edi, -8(%rbp)
	movl	%esi, -4(%rbp)
Ltmp169:
	.loc	20 508 26 prologue_end
	callq	__ZN50_$LT$T$u20$as$u20$core..convert..Into$LT$U$GT$$GT$4into17hfce94c898e436373E
	movq	%rax, %rsi
	movb	-10(%rbp), %al
	.loc	20 508 9 is_stmt 0
	movzbl	%al, %edi
	callq	__ZN3std2io5error5Error4_new17h9d67976371b8512fE
	.loc	20 509 6 is_stmt 1
	addq	$32, %rsp
	popq	%rbp
	retq
Ltmp170:
Lfunc_end21:
	.cfi_endproc

	.globl	__ZN42_$LT$$RF$T$u20$as$u20$core..fmt..Debug$GT$3fmt17h161cfa300b4089a7E
	.p2align	4, 0x90
__ZN42_$LT$$RF$T$u20$as$u20$core..fmt..Debug$GT$3fmt17h161cfa300b4089a7E:
Lfunc_begin22:
	.file	21 "/rustc/2c8cc343237b8f7d5a3c3703e3a87f2eb2c54a74/library/core/src/fmt" "mod.rs"
	.loc	21 2377 0
	.cfi_startproc
	pushq	%rbp
	.cfi_def_cfa_offset 16
	.cfi_offset %rbp, -16
	movq	%rsp, %rbp
	.cfi_def_cfa_register %rbp
	subq	$16, %rsp
	movq	%rdi, -16(%rbp)
	movq	%rsi, -8(%rbp)
Ltmp171:
	.loc	21 2377 71 prologue_end
	movq	(%rdi), %rdi
	.loc	21 2377 62 is_stmt 0
	callq	__ZN63_$LT$alloc..ffi..c_str..CString$u20$as$u20$core..fmt..Debug$GT$3fmt17h1641a90c0745d603E
	.loc	21 2377 84
	andb	$1, %al
	movzbl	%al, %eax
	addq	$16, %rsp
	popq	%rbp
	retq
Ltmp172:
Lfunc_end22:
	.cfi_endproc

	.globl	__ZN42_$LT$$RF$T$u20$as$u20$core..fmt..Debug$GT$3fmt17h2064137033d0d028E
	.p2align	4, 0x90
__ZN42_$LT$$RF$T$u20$as$u20$core..fmt..Debug$GT$3fmt17h2064137033d0d028E:
Lfunc_begin23:
	.loc	21 2377 0 is_stmt 1
	.cfi_startproc
	pushq	%rbp
	.cfi_def_cfa_offset 16
	.cfi_offset %rbp, -16
	movq	%rsp, %rbp
	.cfi_def_cfa_register %rbp
	subq	$16, %rsp
	movq	%rdi, -16(%rbp)
	movq	%rsi, -8(%rbp)
Ltmp173:
	.loc	21 2377 71 prologue_end
	movq	(%rdi), %rdi
	.loc	21 2377 62 is_stmt 0
	callq	__ZN63_$LT$flate2..ffi..rust..Deflate$u20$as$u20$core..fmt..Debug$GT$3fmt17h4b9fb6afd0cd9023E
	.loc	21 2377 84
	andb	$1, %al
	movzbl	%al, %eax
	addq	$16, %rsp
	popq	%rbp
	retq
Ltmp174:
Lfunc_end23:
	.cfi_endproc

	.globl	__ZN42_$LT$$RF$T$u20$as$u20$core..fmt..Debug$GT$3fmt17h2d3c7154159f15e9E
	.p2align	4, 0x90
__ZN42_$LT$$RF$T$u20$as$u20$core..fmt..Debug$GT$3fmt17h2d3c7154159f15e9E:
Lfunc_begin24:
	.loc	21 2377 0 is_stmt 1
	.cfi_startproc
	pushq	%rbp
	.cfi_def_cfa_offset 16
	.cfi_offset %rbp, -16
	movq	%rsp, %rbp
	.cfi_def_cfa_register %rbp
	subq	$16, %rsp
	movq	%rdi, -16(%rbp)
	movq	%rsi, -8(%rbp)
Ltmp175:
	.loc	21 2377 71 prologue_end
	movq	(%rdi), %rdi
	.loc	21 2377 62 is_stmt 0
	callq	__ZN6flate23ffi78_$LT$impl$u20$core..fmt..Debug$u20$for$u20$flate2..ffi..rust..ErrorMessage$GT$3fmt17h032e1ce557b49696E
	.loc	21 2377 84
	andb	$1, %al
	movzbl	%al, %eax
	addq	$16, %rsp
	popq	%rbp
	retq
Ltmp176:
Lfunc_end24:
	.cfi_endproc

	.globl	__ZN42_$LT$$RF$T$u20$as$u20$core..fmt..Debug$GT$3fmt17h39568f960d8e77a8E
	.p2align	4, 0x90
__ZN42_$LT$$RF$T$u20$as$u20$core..fmt..Debug$GT$3fmt17h39568f960d8e77a8E:
Lfunc_begin25:
	.loc	21 2377 0 is_stmt 1
	.cfi_startproc
	pushq	%rbp
	.cfi_def_cfa_offset 16
	.cfi_offset %rbp, -16
	movq	%rsp, %rbp
	.cfi_def_cfa_register %rbp
	subq	$16, %rsp
	movq	%rdi, -16(%rbp)
	movq	%rsi, -8(%rbp)
Ltmp177:
	.loc	21 2377 71 prologue_end
	movq	(%rdi), %rdi
	.loc	21 2377 62 is_stmt 0
	callq	__ZN4core3fmt3num49_$LT$impl$u20$core..fmt..Debug$u20$for$u20$u8$GT$3fmt17he311cb1322fe7bcdE
	.loc	21 2377 84
	andb	$1, %al
	movzbl	%al, %eax
	addq	$16, %rsp
	popq	%rbp
	retq
Ltmp178:
Lfunc_end25:
	.cfi_endproc

	.globl	__ZN42_$LT$$RF$T$u20$as$u20$core..fmt..Debug$GT$3fmt17h43483c20b385a084E
	.p2align	4, 0x90
__ZN42_$LT$$RF$T$u20$as$u20$core..fmt..Debug$GT$3fmt17h43483c20b385a084E:
Lfunc_begin26:
	.loc	21 2377 0 is_stmt 1
	.cfi_startproc
	pushq	%rbp
	.cfi_def_cfa_offset 16
	.cfi_offset %rbp, -16
	movq	%rsp, %rbp
	.cfi_def_cfa_register %rbp
	subq	$16, %rsp
	movq	%rdi, -16(%rbp)
	movq	%rsi, -8(%rbp)
Ltmp179:
	.loc	21 2377 71 prologue_end
	movq	(%rdi), %rdi
	.loc	21 2377 62 is_stmt 0
	callq	__ZN4core5array69_$LT$impl$u20$core..fmt..Debug$u20$for$u20$$u5b$T$u3b$$u20$N$u5d$$GT$3fmt17h7702644aa48a291bE
	.loc	21 2377 84
	andb	$1, %al
	movzbl	%al, %eax
	addq	$16, %rsp
	popq	%rbp
	retq
Ltmp180:
Lfunc_end26:
	.cfi_endproc

	.globl	__ZN42_$LT$$RF$T$u20$as$u20$core..fmt..Debug$GT$3fmt17h60d967a0ca7bbd5fE
	.p2align	4, 0x90
__ZN42_$LT$$RF$T$u20$as$u20$core..fmt..Debug$GT$3fmt17h60d967a0ca7bbd5fE:
Lfunc_begin27:
	.loc	21 2377 0 is_stmt 1
	.cfi_startproc
	pushq	%rbp
	.cfi_def_cfa_offset 16
	.cfi_offset %rbp, -16
	movq	%rsp, %rbp
	.cfi_def_cfa_register %rbp
	subq	$16, %rsp
	movq	%rdi, -16(%rbp)
	movq	%rsi, -8(%rbp)
Ltmp181:
	.loc	21 2377 71 prologue_end
	movq	(%rdi), %rdi
	.loc	21 2377 62 is_stmt 0
	callq	__ZN54_$LT$crc32fast..Hasher$u20$as$u20$core..fmt..Debug$GT$3fmt17h1b7c7ea8d87fb50eE
	.loc	21 2377 84
	andb	$1, %al
	movzbl	%al, %eax
	addq	$16, %rsp
	popq	%rbp
	retq
Ltmp182:
Lfunc_end27:
	.cfi_endproc

	.globl	__ZN42_$LT$$RF$T$u20$as$u20$core..fmt..Debug$GT$3fmt17h62db1c3c4dbcbcf7E
	.p2align	4, 0x90
__ZN42_$LT$$RF$T$u20$as$u20$core..fmt..Debug$GT$3fmt17h62db1c3c4dbcbcf7E:
Lfunc_begin28:
	.loc	21 2377 0 is_stmt 1
	.cfi_startproc
	pushq	%rbp
	.cfi_def_cfa_offset 16
	.cfi_offset %rbp, -16
	movq	%rsp, %rbp
	.cfi_def_cfa_register %rbp
	subq	$16, %rsp
	movq	%rsi, %rdx
	movq	%rdi, %rax
	movq	%rax, -16(%rbp)
	movq	%rdx, -8(%rbp)
Ltmp183:
	.loc	21 2377 71 prologue_end
	movq	(%rax), %rdi
	movq	8(%rax), %rsi
	.loc	21 2377 62 is_stmt 0
	callq	__ZN48_$LT$$u5b$T$u5d$$u20$as$u20$core..fmt..Debug$GT$3fmt17he60f13eeec887ee9E
	.loc	21 2377 84
	andb	$1, %al
	movzbl	%al, %eax
	addq	$16, %rsp
	popq	%rbp
	retq
Ltmp184:
Lfunc_end28:
	.cfi_endproc

	.globl	__ZN42_$LT$$RF$T$u20$as$u20$core..fmt..Debug$GT$3fmt17h7568c6162b7d5137E
	.p2align	4, 0x90
__ZN42_$LT$$RF$T$u20$as$u20$core..fmt..Debug$GT$3fmt17h7568c6162b7d5137E:
Lfunc_begin29:
	.loc	21 2377 0 is_stmt 1
	.cfi_startproc
	pushq	%rbp
	.cfi_def_cfa_offset 16
	.cfi_offset %rbp, -16
	movq	%rsp, %rbp
	.cfi_def_cfa_register %rbp
	subq	$16, %rsp
	movq	%rdi, -16(%rbp)
	movq	%rsi, -8(%rbp)
Ltmp185:
	.loc	21 2377 71 prologue_end
	movq	(%rdi), %rdi
	.loc	21 2377 62 is_stmt 0
	callq	__ZN78_$LT$flate2..gz..bufread..GzHeaderParsingState$u20$as$u20$core..fmt..Debug$GT$3fmt17hcf4b61ba53589673E
	.loc	21 2377 84
	andb	$1, %al
	movzbl	%al, %eax
	addq	$16, %rsp
	popq	%rbp
	retq
Ltmp186:
Lfunc_end29:
	.cfi_endproc

	.globl	__ZN42_$LT$$RF$T$u20$as$u20$core..fmt..Debug$GT$3fmt17h76160d78829036d3E
	.p2align	4, 0x90
__ZN42_$LT$$RF$T$u20$as$u20$core..fmt..Debug$GT$3fmt17h76160d78829036d3E:
Lfunc_begin30:
	.loc	21 2377 0 is_stmt 1
	.cfi_startproc
	pushq	%rbp
	.cfi_def_cfa_offset 16
	.cfi_offset %rbp, -16
	movq	%rsp, %rbp
	.cfi_def_cfa_register %rbp
	subq	$16, %rsp
	movq	%rdi, -16(%rbp)
	movq	%rsi, -8(%rbp)
Ltmp187:
	.loc	21 2377 71 prologue_end
	movq	(%rdi), %rdi
	.loc	21 2377 62 is_stmt 0
	callq	__ZN70_$LT$flate2..mem..DecompressErrorInner$u20$as$u20$core..fmt..Debug$GT$3fmt17hd9f607b0ea7ad2a7E
	.loc	21 2377 84
	andb	$1, %al
	movzbl	%al, %eax
	addq	$16, %rsp
	popq	%rbp
	retq
Ltmp188:
Lfunc_end30:
	.cfi_endproc

	.globl	__ZN42_$LT$$RF$T$u20$as$u20$core..fmt..Debug$GT$3fmt17h8df18b3a7a15f1f3E
	.p2align	4, 0x90
__ZN42_$LT$$RF$T$u20$as$u20$core..fmt..Debug$GT$3fmt17h8df18b3a7a15f1f3E:
Lfunc_begin31:
	.loc	21 2377 0 is_stmt 1
	.cfi_startproc
	pushq	%rbp
	.cfi_def_cfa_offset 16
	.cfi_offset %rbp, -16
	movq	%rsp, %rbp
	.cfi_def_cfa_register %rbp
	subq	$16, %rsp
	movq	%rdi, -16(%rbp)
	movq	%rsi, -8(%rbp)
Ltmp189:
	.loc	21 2377 71 prologue_end
	movq	(%rdi), %rdi
	.loc	21 2377 62 is_stmt 0
	callq	__ZN73_$LT$flate2..gz..bufread..GzHeaderPartial$u20$as$u20$core..fmt..Debug$GT$3fmt17h2b18d8f70b77e329E
	.loc	21 2377 84
	andb	$1, %al
	movzbl	%al, %eax
	addq	$16, %rsp
	popq	%rbp
	retq
Ltmp190:
Lfunc_end31:
	.cfi_endproc

	.globl	__ZN42_$LT$$RF$T$u20$as$u20$core..fmt..Debug$GT$3fmt17h916c3bf55f31e8b9E
	.p2align	4, 0x90
__ZN42_$LT$$RF$T$u20$as$u20$core..fmt..Debug$GT$3fmt17h916c3bf55f31e8b9E:
Lfunc_begin32:
	.loc	21 2377 0 is_stmt 1
	.cfi_startproc
	pushq	%rbp
	.cfi_def_cfa_offset 16
	.cfi_offset %rbp, -16
	movq	%rsp, %rbp
	.cfi_def_cfa_register %rbp
	subq	$16, %rsp
	movq	%rdi, -16(%rbp)
	movq	%rsi, -8(%rbp)
Ltmp191:
	.loc	21 2377 71 prologue_end
	movq	(%rdi), %rdi
	.loc	21 2377 62 is_stmt 0
	callq	__ZN42_$LT$$RF$T$u20$as$u20$core..fmt..Debug$GT$3fmt17hfbb0540ef4e6feb7E
	.loc	21 2377 84
	andb	$1, %al
	movzbl	%al, %eax
	addq	$16, %rsp
	popq	%rbp
	retq
Ltmp192:
Lfunc_end32:
	.cfi_endproc

	.globl	__ZN42_$LT$$RF$T$u20$as$u20$core..fmt..Debug$GT$3fmt17ha1ff019ab03bb384E
	.p2align	4, 0x90
__ZN42_$LT$$RF$T$u20$as$u20$core..fmt..Debug$GT$3fmt17ha1ff019ab03bb384E:
Lfunc_begin33:
	.loc	21 2377 0 is_stmt 1
	.cfi_startproc
	pushq	%rbp
	.cfi_def_cfa_offset 16
	.cfi_offset %rbp, -16
	movq	%rsp, %rbp
	.cfi_def_cfa_register %rbp
	subq	$16, %rsp
	movq	%rdi, -16(%rbp)
	movq	%rsi, -8(%rbp)
Ltmp193:
	.loc	21 2377 71 prologue_end
	movq	(%rdi), %rdi
	.loc	21 2377 62 is_stmt 0
	callq	__ZN66_$LT$core..option..Option$LT$T$GT$$u20$as$u20$core..fmt..Debug$GT$3fmt17h9af58a0a5e11e99cE
	.loc	21 2377 84
	andb	$1, %al
	movzbl	%al, %eax
	addq	$16, %rsp
	popq	%rbp
	retq
Ltmp194:
Lfunc_end33:
	.cfi_endproc

	.globl	__ZN42_$LT$$RF$T$u20$as$u20$core..fmt..Debug$GT$3fmt17hc85113abee7c5684E
	.p2align	4, 0x90
__ZN42_$LT$$RF$T$u20$as$u20$core..fmt..Debug$GT$3fmt17hc85113abee7c5684E:
Lfunc_begin34:
	.loc	21 2377 0 is_stmt 1
	.cfi_startproc
	pushq	%rbp
	.cfi_def_cfa_offset 16
	.cfi_offset %rbp, -16
	movq	%rsp, %rbp
	.cfi_def_cfa_register %rbp
	subq	$16, %rsp
	movq	%rdi, -16(%rbp)
	movq	%rsi, -8(%rbp)
Ltmp195:
	.loc	21 2377 71 prologue_end
	movq	(%rdi), %rdi
	.loc	21 2377 62 is_stmt 0
	callq	__ZN53_$LT$flate2..crc..Crc$u20$as$u20$core..fmt..Debug$GT$3fmt17h1a91a2ac120a08beE
	.loc	21 2377 84
	andb	$1, %al
	movzbl	%al, %eax
	addq	$16, %rsp
	popq	%rbp
	retq
Ltmp196:
Lfunc_end34:
	.cfi_endproc

	.globl	__ZN42_$LT$$RF$T$u20$as$u20$core..fmt..Debug$GT$3fmt17hcc141fb34ee17010E
	.p2align	4, 0x90
__ZN42_$LT$$RF$T$u20$as$u20$core..fmt..Debug$GT$3fmt17hcc141fb34ee17010E:
Lfunc_begin35:
	.loc	21 2377 0 is_stmt 1
	.cfi_startproc
	pushq	%rbp
	.cfi_def_cfa_offset 16
	.cfi_offset %rbp, -16
	movq	%rsp, %rbp
	.cfi_def_cfa_register %rbp
	subq	$16, %rsp
	movq	%rdi, -16(%rbp)
	movq	%rsi, -8(%rbp)
Ltmp197:
	.loc	21 2377 71 prologue_end
	movq	(%rdi), %rdi
	.loc	21 2377 62 is_stmt 0
	callq	__ZN66_$LT$core..option..Option$LT$T$GT$$u20$as$u20$core..fmt..Debug$GT$3fmt17ha4e19e887345be08E
	.loc	21 2377 84
	andb	$1, %al
	movzbl	%al, %eax
	addq	$16, %rsp
	popq	%rbp
	retq
Ltmp198:
Lfunc_end35:
	.cfi_endproc

	.globl	__ZN42_$LT$$RF$T$u20$as$u20$core..fmt..Debug$GT$3fmt17hdf874009e69ccdc3E
	.p2align	4, 0x90
__ZN42_$LT$$RF$T$u20$as$u20$core..fmt..Debug$GT$3fmt17hdf874009e69ccdc3E:
Lfunc_begin36:
	.loc	21 2377 0 is_stmt 1
	.cfi_startproc
	pushq	%rbp
	.cfi_def_cfa_offset 16
	.cfi_offset %rbp, -16
	movq	%rsp, %rbp
	.cfi_def_cfa_register %rbp
	subq	$16, %rsp
	movq	%rdi, -16(%rbp)
	movq	%rsi, -8(%rbp)
Ltmp199:
	.loc	21 2377 71 prologue_end
	movq	(%rdi), %rdi
	.loc	21 2377 62 is_stmt 0
	callq	__ZN57_$LT$flate2..gz..GzHeader$u20$as$u20$core..fmt..Debug$GT$3fmt17hb8d2351ee173190aE
	.loc	21 2377 84
	andb	$1, %al
	movzbl	%al, %eax
	addq	$16, %rsp
	popq	%rbp
	retq
Ltmp200:
Lfunc_end36:
	.cfi_endproc

	.globl	__ZN42_$LT$$RF$T$u20$as$u20$core..fmt..Debug$GT$3fmt17he6655b26521b7e95E
	.p2align	4, 0x90
__ZN42_$LT$$RF$T$u20$as$u20$core..fmt..Debug$GT$3fmt17he6655b26521b7e95E:
Lfunc_begin37:
	.loc	21 2377 0 is_stmt 1
	.cfi_startproc
	pushq	%rbp
	.cfi_def_cfa_offset 16
	.cfi_offset %rbp, -16
	movq	%rsp, %rbp
	.cfi_def_cfa_register %rbp
	subq	$16, %rsp
	movq	%rdi, -16(%rbp)
	movq	%rsi, -8(%rbp)
Ltmp201:
	.loc	21 2377 71 prologue_end
	movq	(%rdi), %rdi
	.loc	21 2377 62 is_stmt 0
	callq	__ZN66_$LT$core..option..Option$LT$T$GT$$u20$as$u20$core..fmt..Debug$GT$3fmt17h4ebd66c1b6b67c19E
	.loc	21 2377 84
	andb	$1, %al
	movzbl	%al, %eax
	addq	$16, %rsp
	popq	%rbp
	retq
Ltmp202:
Lfunc_end37:
	.cfi_endproc

	.globl	__ZN42_$LT$$RF$T$u20$as$u20$core..fmt..Debug$GT$3fmt17hf2ad5705bd7f0f76E
	.p2align	4, 0x90
__ZN42_$LT$$RF$T$u20$as$u20$core..fmt..Debug$GT$3fmt17hf2ad5705bd7f0f76E:
Lfunc_begin38:
	.loc	21 2377 0 is_stmt 1
	.cfi_startproc
	pushq	%rbp
	.cfi_def_cfa_offset 16
	.cfi_offset %rbp, -16
	movq	%rsp, %rbp
	.cfi_def_cfa_register %rbp
	subq	$16, %rsp
	movq	%rdi, -16(%rbp)
	movq	%rsi, -8(%rbp)
Ltmp203:
	.loc	21 2377 71 prologue_end
	movq	(%rdi), %rdi
	.loc	21 2377 62 is_stmt 0
	callq	__ZN65_$LT$alloc..vec..Vec$LT$T$C$A$GT$$u20$as$u20$core..fmt..Debug$GT$3fmt17h6f448635d1c93270E
	.loc	21 2377 84
	andb	$1, %al
	movzbl	%al, %eax
	addq	$16, %rsp
	popq	%rbp
	retq
Ltmp204:
Lfunc_end38:
	.cfi_endproc

	.globl	__ZN42_$LT$$RF$T$u20$as$u20$core..fmt..Debug$GT$3fmt17hf3e4fba655ec5feeE
	.p2align	4, 0x90
__ZN42_$LT$$RF$T$u20$as$u20$core..fmt..Debug$GT$3fmt17hf3e4fba655ec5feeE:
Lfunc_begin39:
	.loc	21 2377 0 is_stmt 1
	.cfi_startproc
	pushq	%rbp
	.cfi_def_cfa_offset 16
	.cfi_offset %rbp, -16
	movq	%rsp, %rbp
	.cfi_def_cfa_register %rbp
	subq	$16, %rsp
	movq	%rdi, -16(%rbp)
	movq	%rsi, -8(%rbp)
Ltmp205:
	.loc	21 2377 71 prologue_end
	movq	(%rdi), %rdi
	.loc	21 2377 62 is_stmt 0
	callq	__ZN58_$LT$std..io..error..Error$u20$as$u20$core..fmt..Debug$GT$3fmt17h0f690fff27c65905E
	.loc	21 2377 84
	andb	$1, %al
	movzbl	%al, %eax
	addq	$16, %rsp
	popq	%rbp
	retq
Ltmp206:
Lfunc_end39:
	.cfi_endproc

	.globl	__ZN42_$LT$$RF$T$u20$as$u20$core..fmt..Debug$GT$3fmt17hf6b9612850cfa8e7E
	.p2align	4, 0x90
__ZN42_$LT$$RF$T$u20$as$u20$core..fmt..Debug$GT$3fmt17hf6b9612850cfa8e7E:
Lfunc_begin40:
	.loc	21 2377 0 is_stmt 1
	.cfi_startproc
	pushq	%rbp
	.cfi_def_cfa_offset 16
	.cfi_offset %rbp, -16
	movq	%rsp, %rbp
	.cfi_def_cfa_register %rbp
	subq	$16, %rsp
	movq	%rdi, -16(%rbp)
	movq	%rsi, -8(%rbp)
Ltmp207:
	.loc	21 2377 71 prologue_end
	movq	(%rdi), %rdi
	.loc	21 2377 62 is_stmt 0
	callq	__ZN63_$LT$flate2..ffi..rust..Inflate$u20$as$u20$core..fmt..Debug$GT$3fmt17had8286d6745ee581E
	.loc	21 2377 84
	andb	$1, %al
	movzbl	%al, %eax
	addq	$16, %rsp
	popq	%rbp
	retq
Ltmp208:
Lfunc_end40:
	.cfi_endproc

	.globl	__ZN42_$LT$$RF$T$u20$as$u20$core..fmt..Debug$GT$3fmt17hfbb0540ef4e6feb7E
	.p2align	4, 0x90
__ZN42_$LT$$RF$T$u20$as$u20$core..fmt..Debug$GT$3fmt17hfbb0540ef4e6feb7E:
Lfunc_begin41:
	.loc	21 2377 0 is_stmt 1
	.cfi_startproc
	pushq	%rbp
	.cfi_def_cfa_offset 16
	.cfi_offset %rbp, -16
	movq	%rsp, %rbp
	.cfi_def_cfa_register %rbp
	subq	$16, %rsp
	movq	%rsi, %rdx
	movq	%rdi, %rax
	movq	%rax, -16(%rbp)
	movq	%rdx, -8(%rbp)
Ltmp209:
	.loc	21 2377 71 prologue_end
	movq	(%rax), %rdi
	movq	8(%rax), %rsi
	.loc	21 2377 62 is_stmt 0
	callq	__ZN40_$LT$str$u20$as$u20$core..fmt..Debug$GT$3fmt17h4564f13343f2ac60E
	.loc	21 2377 84
	andb	$1, %al
	movzbl	%al, %eax
	addq	$16, %rsp
	popq	%rbp
	retq
Ltmp210:
Lfunc_end41:
	.cfi_endproc

	.globl	__ZN42_$LT$$RF$T$u20$as$u20$core..fmt..Debug$GT$3fmt17hfd2e1e0161715952E
	.p2align	4, 0x90
__ZN42_$LT$$RF$T$u20$as$u20$core..fmt..Debug$GT$3fmt17hfd2e1e0161715952E:
Lfunc_begin42:
	.loc	21 2377 0 is_stmt 1
	.cfi_startproc
	pushq	%rbp
	.cfi_def_cfa_offset 16
	.cfi_offset %rbp, -16
	movq	%rsp, %rbp
	.cfi_def_cfa_register %rbp
	subq	$16, %rsp
	movq	%rdi, -16(%rbp)
	movq	%rsi, -8(%rbp)
Ltmp211:
	.loc	21 2377 71 prologue_end
	movq	(%rdi), %rdi
	.loc	21 2377 62 is_stmt 0
	callq	__ZN66_$LT$core..option..Option$LT$T$GT$$u20$as$u20$core..fmt..Debug$GT$3fmt17h0797c7cebb40709cE
	.loc	21 2377 84
	andb	$1, %al
	movzbl	%al, %eax
	addq	$16, %rsp
	popq	%rbp
	retq
Ltmp212:
Lfunc_end42:
	.cfi_endproc

	.globl	__ZN44_$LT$$RF$T$u20$as$u20$core..fmt..Display$GT$3fmt17h393c0ef44e1fb47cE
	.p2align	4, 0x90
__ZN44_$LT$$RF$T$u20$as$u20$core..fmt..Display$GT$3fmt17h393c0ef44e1fb47cE:
Lfunc_begin43:
	.loc	21 2377 0 is_stmt 1
	.cfi_startproc
	pushq	%rbp
	.cfi_def_cfa_offset 16
	.cfi_offset %rbp, -16
	movq	%rsp, %rbp
	.cfi_def_cfa_register %rbp
	subq	$16, %rsp
	movq	%rsi, %rdx
	movq	%rdi, %rax
	movq	%rax, -16(%rbp)
	movq	%rdx, -8(%rbp)
Ltmp213:
	.loc	21 2377 71 prologue_end
	movq	(%rax), %rdi
	movq	8(%rax), %rsi
	.loc	21 2377 62 is_stmt 0
	callq	__ZN42_$LT$str$u20$as$u20$core..fmt..Display$GT$3fmt17hd1cabce055ea2fbdE
	.loc	21 2377 84
	andb	$1, %al
	movzbl	%al, %eax
	addq	$16, %rsp
	popq	%rbp
	retq
Ltmp214:
Lfunc_end43:
	.cfi_endproc

	.globl	__ZN48_$LT$$u5b$T$u5d$$u20$as$u20$core..fmt..Debug$GT$3fmt17he60f13eeec887ee9E
	.p2align	4, 0x90
__ZN48_$LT$$u5b$T$u5d$$u20$as$u20$core..fmt..Debug$GT$3fmt17he60f13eeec887ee9E:
Lfunc_begin44:
	.loc	21 2602 0 is_stmt 1
	.cfi_startproc
	pushq	%rbp
	.cfi_def_cfa_offset 16
	.cfi_offset %rbp, -16
	movq	%rsp, %rbp
	.cfi_def_cfa_register %rbp
	subq	$80, %rsp
	movq	%rdx, -80(%rbp)
	movq	%rsi, %rax
	movq	-80(%rbp), %rsi
	movq	%rdi, -72(%rbp)
	movq	%rax, -64(%rbp)
	movq	%rdi, -40(%rbp)
	movq	%rax, -32(%rbp)
	movq	%rsi, -24(%rbp)
Ltmp215:
	.loc	21 2603 9 prologue_end
	leaq	-56(%rbp), %rdi
	callq	__ZN4core3fmt9Formatter10debug_list17hc648f6f2ff865c45E
	movq	-72(%rbp), %rdi
	movq	-64(%rbp), %rsi
	.loc	21 2603 32 is_stmt 0
	movq	%rdi, -16(%rbp)
	movq	%rsi, -8(%rbp)
Ltmp216:
	.file	22 "/rustc/2c8cc343237b8f7d5a3c3703e3a87f2eb2c54a74/library/core/src/slice" "mod.rs"
	.loc	22 742 9 is_stmt 1
	callq	__ZN4core5slice4iter13Iter$LT$T$GT$3new17h86dbdec1b531053dE
	movq	%rax, %rsi
Ltmp217:
	.loc	21 2603 9
	leaq	-56(%rbp), %rdi
	callq	__ZN4core3fmt8builders9DebugList7entries17hf3bd054954d6ca51E
	movq	%rax, %rdi
	callq	__ZN4core3fmt8builders9DebugList6finish17hed399f470c25b4b2E
	.loc	21 2604 6
	andb	$1, %al
	movzbl	%al, %eax
	addq	$80, %rsp
	popq	%rbp
	retq
Ltmp218:
Lfunc_end44:
	.cfi_endproc

	.globl	__ZN4core3any6TypeId2of17h258ad1891560b64fE
	.p2align	4, 0x90
__ZN4core3any6TypeId2of17h258ad1891560b64fE:
Lfunc_begin45:
	.file	23 "/rustc/2c8cc343237b8f7d5a3c3703e3a87f2eb2c54a74/library/core/src" "any.rs"
	.loc	23 691 0
	.cfi_startproc
	pushq	%rbp
	.cfi_def_cfa_offset 16
	.cfi_offset %rbp, -16
	movq	%rsp, %rbp
	.cfi_def_cfa_register %rbp
	subq	$16, %rsp
Ltmp219:
	.loc	23 692 21 prologue_end
	movabsq	$844992704448899127, %rax
	movq	%rax, -8(%rbp)
	movq	-8(%rbp), %rax
	.loc	23 692 9 is_stmt 0
	movq	%rax, -16(%rbp)
	.loc	23 693 6 is_stmt 1
	movq	-16(%rbp), %rax
	addq	$16, %rsp
	popq	%rbp
	retq
Ltmp220:
Lfunc_end45:
	.cfi_endproc

	.globl	__ZN4core3any6TypeId2of17h44e082e74c8b7a42E
	.p2align	4, 0x90
__ZN4core3any6TypeId2of17h44e082e74c8b7a42E:
Lfunc_begin46:
	.loc	23 691 0
	.cfi_startproc
	pushq	%rbp
	.cfi_def_cfa_offset 16
	.cfi_offset %rbp, -16
	movq	%rsp, %rbp
	.cfi_def_cfa_register %rbp
	subq	$16, %rsp
Ltmp221:
	.loc	23 692 21 prologue_end
	movabsq	$2951208664568890871, %rax
	movq	%rax, -8(%rbp)
	movq	-8(%rbp), %rax
	.loc	23 692 9 is_stmt 0
	movq	%rax, -16(%rbp)
	.loc	23 693 6 is_stmt 1
	movq	-16(%rbp), %rax
	addq	$16, %rsp
	popq	%rbp
	retq
Ltmp222:
Lfunc_end46:
	.cfi_endproc

	.globl	__ZN4core3any6TypeId2of17h81282e75a13512c0E
	.p2align	4, 0x90
__ZN4core3any6TypeId2of17h81282e75a13512c0E:
Lfunc_begin47:
	.loc	23 691 0
	.cfi_startproc
	pushq	%rbp
	.cfi_def_cfa_offset 16
	.cfi_offset %rbp, -16
	movq	%rsp, %rbp
	.cfi_def_cfa_register %rbp
	subq	$16, %rsp
Ltmp223:
	.loc	23 692 21 prologue_end
	movabsq	$7347052152418787836, %rax
	movq	%rax, -8(%rbp)
	movq	-8(%rbp), %rax
	.loc	23 692 9 is_stmt 0
	movq	%rax, -16(%rbp)
	.loc	23 693 6 is_stmt 1
	movq	-16(%rbp), %rax
	addq	$16, %rsp
	popq	%rbp
	retq
Ltmp224:
Lfunc_end47:
	.cfi_endproc

	.p2align	4, 0x90
__ZN4core3cmp5impls56_$LT$impl$u20$core..cmp..PartialEq$u20$for$u20$usize$GT$2eq17h33a2bb3ec6290e9cE:
Lfunc_begin48:
	.loc	8 1352 0
	.cfi_startproc
	pushq	%rbp
	.cfi_def_cfa_offset 16
	.cfi_offset %rbp, -16
	movq	%rsp, %rbp
	.cfi_def_cfa_register %rbp
	subq	$16, %rsp
	movq	%rdi, -16(%rbp)
	movq	%rsi, -8(%rbp)
Ltmp225:
	.loc	8 1352 52 prologue_end
	movq	(%rdi), %rax
	cmpq	(%rsi), %rax
	sete	%al
	.loc	8 1352 73 is_stmt 0
	andb	$1, %al
	movzbl	%al, %eax
	addq	$16, %rsp
	popq	%rbp
	retq
Ltmp226:
Lfunc_end48:
	.cfi_endproc

	.globl	__ZN4core3fmt10ArgumentV111new_display17h6d49ba18f27026caE
	.p2align	4, 0x90
__ZN4core3fmt10ArgumentV111new_display17h6d49ba18f27026caE:
Lfunc_begin49:
	.loc	21 327 0 is_stmt 1
	.cfi_startproc
	pushq	%rbp
	.cfi_def_cfa_offset 16
	.cfi_offset %rbp, -16
	movq	%rsp, %rbp
	.cfi_def_cfa_register %rbp
	subq	$56, %rsp
	movq	%rdi, -40(%rbp)
Ltmp227:
	.loc	21 328 23 prologue_end
	movq	%rdi, -32(%rbp)
	.loc	21 328 26 is_stmt 0
	movq	__ZN4core3fmt3num3imp52_$LT$impl$u20$core..fmt..Display$u20$for$u20$u64$GT$3fmt17hc0b393b21668e9bfE@GOTPCREL(%rip), %rax
	movq	%rax, -24(%rbp)
Ltmp228:
	.loc	21 347 42 is_stmt 1
	movq	%rax, -16(%rbp)
	movq	-16(%rbp), %rax
	.loc	21 347 68 is_stmt 0
	movq	%rdi, -8(%rbp)
	movq	-8(%rbp), %rcx
	.loc	21 347 18
	movq	%rcx, -56(%rbp)
	movq	%rax, -48(%rbp)
Ltmp229:
	.loc	21 329 10 is_stmt 1
	movq	-56(%rbp), %rax
	movq	-48(%rbp), %rdx
	addq	$56, %rsp
	popq	%rbp
	retq
Ltmp230:
Lfunc_end49:
	.cfi_endproc

	.globl	__ZN4core3fmt10ArgumentV111new_display17hc4dd03c72c7ef868E
	.p2align	4, 0x90
__ZN4core3fmt10ArgumentV111new_display17hc4dd03c72c7ef868E:
Lfunc_begin50:
	.loc	21 327 0
	.cfi_startproc
	pushq	%rbp
	.cfi_def_cfa_offset 16
	.cfi_offset %rbp, -16
	movq	%rsp, %rbp
	.cfi_def_cfa_register %rbp
	subq	$56, %rsp
	movq	%rdi, -40(%rbp)
Ltmp231:
	.loc	21 328 23 prologue_end
	movq	%rdi, -32(%rbp)
	.loc	21 328 26 is_stmt 0
	leaq	__ZN44_$LT$$RF$T$u20$as$u20$core..fmt..Display$GT$3fmt17h393c0ef44e1fb47cE(%rip), %rax
	movq	%rax, -24(%rbp)
Ltmp232:
	.loc	21 347 42 is_stmt 1
	movq	%rax, -16(%rbp)
	movq	-16(%rbp), %rax
	.loc	21 347 68 is_stmt 0
	movq	%rdi, -8(%rbp)
	movq	-8(%rbp), %rcx
	.loc	21 347 18
	movq	%rcx, -56(%rbp)
	movq	%rax, -48(%rbp)
Ltmp233:
	.loc	21 329 10 is_stmt 1
	movq	-56(%rbp), %rax
	movq	-48(%rbp), %rdx
	addq	$56, %rsp
	popq	%rbp
	retq
Ltmp234:
Lfunc_end50:
	.cfi_endproc

	.p2align	4, 0x90
__ZN4core3fmt3num49_$LT$impl$u20$core..fmt..Debug$u20$for$u20$u8$GT$3fmt17he311cb1322fe7bcdE:
Lfunc_begin51:
	.file	24 "/rustc/2c8cc343237b8f7d5a3c3703e3a87f2eb2c54a74/library/core/src/fmt" "num.rs"
	.loc	24 185 0
	.cfi_startproc
	pushq	%rbp
	.cfi_def_cfa_offset 16
	.cfi_offset %rbp, -16
	movq	%rsp, %rbp
	.cfi_def_cfa_register %rbp
	subq	$48, %rsp
	movq	%rsi, -48(%rbp)
	movq	%rdi, %rax
	movq	-48(%rbp), %rdi
	movq	%rax, -40(%rbp)
	movq	%rdi, -32(%rbp)
	movq	%rax, -16(%rbp)
	movq	%rdi, -8(%rbp)
Ltmp235:
	.loc	24 186 20 prologue_end
	callq	__ZN4core3fmt9Formatter15debug_lower_hex17h0921e6b9188d914eE
	testb	$1, %al
	jne	LBB51_2
	.loc	24 0 20 is_stmt 0
	movq	-32(%rbp), %rdi
	.loc	24 188 27 is_stmt 1
	callq	__ZN4core3fmt9Formatter15debug_upper_hex17h8ce487049a6cccf8E
	testb	$1, %al
	jne	LBB51_5
	jmp	LBB51_4
LBB51_2:
	.loc	24 0 27 is_stmt 0
	movq	-32(%rbp), %rsi
	movq	-40(%rbp), %rdi
	.loc	24 187 21 is_stmt 1
	callq	__ZN4core3fmt3num52_$LT$impl$u20$core..fmt..LowerHex$u20$for$u20$u8$GT$3fmt17h5cfdcd8eebabca5eE
	andb	$1, %al
	movb	%al, -17(%rbp)
LBB51_3:
	.loc	24 193 14
	movb	-17(%rbp), %al
	andb	$1, %al
	movzbl	%al, %eax
	addq	$48, %rsp
	popq	%rbp
	retq
LBB51_4:
	.loc	24 0 14 is_stmt 0
	movq	-32(%rbp), %rsi
	movq	-40(%rbp), %rdi
	.loc	24 191 21 is_stmt 1
	callq	__ZN4core3fmt3num3imp51_$LT$impl$u20$core..fmt..Display$u20$for$u20$u8$GT$3fmt17he2a0798a745fb926E
	andb	$1, %al
	movb	%al, -17(%rbp)
	.loc	24 188 24
	jmp	LBB51_6
LBB51_5:
	.loc	24 0 24 is_stmt 0
	movq	-32(%rbp), %rsi
	movq	-40(%rbp), %rdi
	.loc	24 189 21 is_stmt 1
	callq	__ZN4core3fmt3num52_$LT$impl$u20$core..fmt..UpperHex$u20$for$u20$u8$GT$3fmt17h0d44eda8e53b13dbE
	andb	$1, %al
	movb	%al, -17(%rbp)
LBB51_6:
	.loc	24 186 17
	jmp	LBB51_3
Ltmp236:
Lfunc_end51:
	.cfi_endproc

	.globl	__ZN4core3fmt8builders9DebugList7entries17hf3bd054954d6ca51E
	.p2align	4, 0x90
__ZN4core3fmt8builders9DebugList7entries17hf3bd054954d6ca51E:
Lfunc_begin52:
	.file	25 "/rustc/2c8cc343237b8f7d5a3c3703e3a87f2eb2c54a74/library/core/src/fmt" "builders.rs"
	.loc	25 627 0
	.cfi_startproc
	.cfi_personality 155, _rust_eh_personality
	.cfi_lsda 16, Lexception10
	pushq	%rbp
	.cfi_def_cfa_offset 16
	.cfi_offset %rbp, -16
	movq	%rsp, %rbp
	.cfi_def_cfa_register %rbp
	subq	$112, %rsp
	movq	%rdx, -96(%rbp)
	movq	%rsi, %rax
	movq	-96(%rbp), %rsi
	movq	%rax, -88(%rbp)
	movq	%rdi, %rax
	movq	-88(%rbp), %rdi
	movq	%rax, -80(%rbp)
	movq	%rax, -40(%rbp)
	movq	%rdi, -32(%rbp)
	movq	%rsi, -24(%rbp)
Ltmp243:
	.loc	25 632 22 prologue_end
	callq	__ZN63_$LT$I$u20$as$u20$core..iter..traits..collect..IntoIterator$GT$9into_iter17h2268046556220883E
	movq	%rax, -72(%rbp)
	movq	%rdx, -64(%rbp)
LBB52_1:
Ltmp237:
	.loc	25 0 22 is_stmt 0
	leaq	-72(%rbp), %rdi
Ltmp244:
	.loc	25 632 22
	callq	__ZN91_$LT$core..slice..iter..Iter$LT$T$GT$$u20$as$u20$core..iter..traits..iterator..Iterator$GT$4next17h63cfc4ed932084d7E
Ltmp238:
	movq	%rax, -104(%rbp)
	jmp	LBB52_4
Ltmp245:
LBB52_2:
	.loc	25 627 5 is_stmt 1
	movq	-16(%rbp), %rdi
	callq	__Unwind_Resume
LBB52_3:
Ltmp239:
	.loc	25 0 5 is_stmt 0
	movq	%rax, %rcx
	movl	%edx, %eax
	movq	%rcx, -16(%rbp)
	movl	%eax, -8(%rbp)
	jmp	LBB52_2
LBB52_4:
	movq	-104(%rbp), %rax
Ltmp246:
	.loc	25 632 22 is_stmt 1
	movq	%rax, -56(%rbp)
	movq	-56(%rbp), %rdx
	movl	$1, %eax
	xorl	%ecx, %ecx
	cmpq	$0, %rdx
	cmoveq	%rcx, %rax
	cmpq	$0, %rax
	jne	LBB52_6
Ltmp247:
	.loc	25 0 22 is_stmt 0
	movq	-80(%rbp), %rax
	.loc	25 636 6 is_stmt 1
	addq	$112, %rsp
	popq	%rbp
	retq
LBB52_6:
	.loc	25 0 6 is_stmt 0
	movq	-80(%rbp), %rdi
Ltmp248:
	.loc	25 632 13 is_stmt 1
	movq	-56(%rbp), %rax
	movq	%rax, -48(%rbp)
Ltmp240:
Ltmp249:
	.loc	25 633 13
	leaq	l___unnamed_4(%rip), %rdx
	leaq	-48(%rbp), %rsi
	callq	__ZN4core3fmt8builders9DebugList5entry17h90e9fab3d6cede22E
Ltmp241:
	jmp	LBB52_9
Ltmp250:
LBB52_7:
	.loc	25 634 9
	jmp	LBB52_2
LBB52_8:
Ltmp242:
	.loc	25 0 9 is_stmt 0
	movq	%rax, %rcx
	movl	%edx, %eax
	movq	%rcx, -16(%rbp)
	movl	%eax, -8(%rbp)
	jmp	LBB52_7
LBB52_9:
	.loc	25 634 9
	jmp	LBB52_10
LBB52_10:
	.loc	25 632 9 is_stmt 1
	jmp	LBB52_1
Ltmp251:
Lfunc_end52:
	.cfi_endproc
	.section	__TEXT,__gcc_except_tab
	.p2align	2
GCC_except_table52:
Lexception10:
	.byte	255
	.byte	255
	.byte	1
	.uleb128 Lcst_end10-Lcst_begin10
Lcst_begin10:
	.uleb128 Lfunc_begin52-Lfunc_begin52
	.uleb128 Ltmp237-Lfunc_begin52
	.byte	0
	.byte	0
	.uleb128 Ltmp237-Lfunc_begin52
	.uleb128 Ltmp238-Ltmp237
	.uleb128 Ltmp239-Lfunc_begin52
	.byte	0
	.uleb128 Ltmp238-Lfunc_begin52
	.uleb128 Ltmp240-Ltmp238
	.byte	0
	.byte	0
	.uleb128 Ltmp240-Lfunc_begin52
	.uleb128 Ltmp241-Ltmp240
	.uleb128 Ltmp242-Lfunc_begin52
	.byte	0
Lcst_end10:
	.p2align	2

	.section	__TEXT,__text,regular,pure_instructions
	.p2align	4, 0x90
__ZN4core3fmt9Arguments6new_v117hb53b1d19cf10d3f3E:
Lfunc_begin53:
	.loc	21 399 0
	.cfi_startproc
	pushq	%rbp
	.cfi_def_cfa_offset 16
	.cfi_offset %rbp, -16
	movq	%rsp, %rbp
	.cfi_def_cfa_register %rbp
	subq	$160, %rsp
	movq	%r8, -152(%rbp)
	movq	%rcx, -144(%rbp)
	movq	%rdx, -136(%rbp)
	movq	%rsi, -128(%rbp)
	movq	%rdi, -120(%rbp)
	movq	%rdi, -112(%rbp)
	movq	%rsi, -32(%rbp)
	movq	%rdx, -24(%rbp)
	movq	%rcx, -16(%rbp)
	movq	%r8, -8(%rbp)
Ltmp252:
	.loc	21 400 12 prologue_end
	cmpq	%r8, %rdx
	jb	LBB53_2
	.loc	21 0 12 is_stmt 0
	movq	-136(%rbp), %rax
	movq	-152(%rbp), %rcx
	.loc	21 400 56
	addq	$1, %rcx
	.loc	21 400 41
	cmpq	%rcx, %rax
	seta	%al
	.loc	21 400 12
	andb	$1, %al
	movb	%al, -97(%rbp)
	jmp	LBB53_3
LBB53_2:
	movb	$1, -97(%rbp)
LBB53_3:
	testb	$1, -97(%rbp)
	jne	LBB53_5
	.loc	21 0 12
	movq	-112(%rbp), %rax
	movq	-120(%rbp), %rcx
	movq	-152(%rbp), %rdx
	movq	-144(%rbp), %rsi
	movq	-136(%rbp), %rdi
	movq	-128(%rbp), %r8
	.loc	21 403 34 is_stmt 1
	movq	$0, -48(%rbp)
	.loc	21 403 9 is_stmt 0
	movq	%r8, 16(%rcx)
	movq	%rdi, 24(%rcx)
	movq	-48(%rbp), %r8
	movq	-40(%rbp), %rdi
	movq	%r8, (%rcx)
	movq	%rdi, 8(%rcx)
	movq	%rsi, 32(%rcx)
	movq	%rdx, 40(%rcx)
	.loc	21 404 6 is_stmt 1
	addq	$160, %rsp
	popq	%rbp
	retq
LBB53_5:
	.loc	21 401 13
	leaq	l___unnamed_30(%rip), %rsi
	leaq	l___unnamed_28(%rip), %rcx
	xorl	%eax, %eax
	movl	%eax, %r8d
	leaq	-96(%rbp), %rdi
	movq	%rdi, -160(%rbp)
	movl	$1, %edx
	callq	__ZN4core3fmt9Arguments6new_v117hb53b1d19cf10d3f3E
	movq	-160(%rbp), %rdi
	leaq	l___unnamed_31(%rip), %rsi
	callq	__ZN4core9panicking9panic_fmt17h9b5d807e24bcaaedE
Ltmp253:
Lfunc_end53:
	.cfi_endproc

	.p2align	4, 0x90
__ZN4core3num21_$LT$impl$u20$u64$GT$11checked_add17h48fc9f201fc9c409E:
Lfunc_begin54:
	.loc	7 442 0
	.cfi_startproc
	pushq	%rbp
	.cfi_def_cfa_offset 16
	.cfi_offset %rbp, -16
	movq	%rsp, %rbp
	.cfi_def_cfa_register %rbp
	subq	$120, %rsp
	movq	%rdi, -80(%rbp)
	movq	%rsi, -72(%rbp)
Ltmp254:
	.loc	7 443 26 prologue_end
	movq	%rdi, -64(%rbp)
	.loc	7 443 47 is_stmt 0
	movq	%rsi, -56(%rbp)
Ltmp255:
	.loc	7 1479 26 is_stmt 1
	addq	%rsi, %rdi
	setb	%al
	andb	$1, %al
	movq	%rdi, -48(%rbp)
	movb	%al, -40(%rbp)
	movq	-48(%rbp), %rcx
	movb	-40(%rbp), %al
	.loc	7 1479 18 is_stmt 0
	movq	%rcx, -32(%rbp)
	.loc	7 1479 21
	movb	%al, %dl
	andb	$1, %dl
	movb	%dl, -17(%rbp)
Ltmp256:
	.loc	7 1480 13 is_stmt 1
	movq	%rcx, -96(%rbp)
	andb	$1, %al
	movb	%al, -88(%rbp)
Ltmp257:
	.loc	7 443 18
	movq	-96(%rbp), %rax
	movq	%rax, -120(%rbp)
	movq	%rax, -16(%rbp)
	.loc	7 443 21 is_stmt 0
	movb	-88(%rbp), %al
	movb	%al, %cl
	andb	$1, %cl
	movb	%cl, -2(%rbp)
Ltmp258:
	.loc	7 444 16 is_stmt 1
	andb	$1, %al
	movb	%al, -1(%rbp)
	testb	$1, -1(%rbp)
	jne	LBB54_2
	.loc	7 0 16 is_stmt 0
	movq	-120(%rbp), %rax
	.loc	7 444 42
	movq	%rax, -104(%rbp)
	movq	$1, -112(%rbp)
	.loc	7 444 13
	jmp	LBB54_3
LBB54_2:
	.loc	7 444 30
	movq	$0, -112(%rbp)
Ltmp259:
LBB54_3:
	.loc	7 445 10 is_stmt 1
	movq	-112(%rbp), %rax
	movq	-104(%rbp), %rdx
	addq	$120, %rsp
	popq	%rbp
	retq
Ltmp260:
Lfunc_end54:
	.cfi_endproc

	.globl	__ZN4core3ptr156drop_in_place$LT$$LT$alloc..vec..into_iter..IntoIter$LT$T$C$A$GT$$u20$as$u20$core..ops..drop..Drop$GT$..drop..DropGuard$LT$u8$C$alloc..alloc..Global$GT$$GT$17hca07e86dbc7eadafE
	.p2align	4, 0x90
__ZN4core3ptr156drop_in_place$LT$$LT$alloc..vec..into_iter..IntoIter$LT$T$C$A$GT$$u20$as$u20$core..ops..drop..Drop$GT$..drop..DropGuard$LT$u8$C$alloc..alloc..Global$GT$$GT$17hca07e86dbc7eadafE:
Lfunc_begin55:
	.loc	16 490 0
	.cfi_startproc
	pushq	%rbp
	.cfi_def_cfa_offset 16
	.cfi_offset %rbp, -16
	movq	%rsp, %rbp
	.cfi_def_cfa_register %rbp
	subq	$16, %rsp
	movq	%rdi, -8(%rbp)
Ltmp261:
	.loc	16 490 1 prologue_end
	callq	__ZN157_$LT$$LT$alloc..vec..into_iter..IntoIter$LT$T$C$A$GT$$u20$as$u20$core..ops..drop..Drop$GT$..drop..DropGuard$LT$T$C$A$GT$$u20$as$u20$core..ops..drop..Drop$GT$4drop17hbc35e05de5511d7bE
	addq	$16, %rsp
	popq	%rbp
	retq
Ltmp262:
Lfunc_end55:
	.cfi_endproc

	.globl	__ZN4core3ptr205drop_in_place$LT$$LT$alloc..boxed..Box$LT$dyn$u20$core..error..Error$u2b$core..marker..Send$u2b$core..marker..Sync$GT$$u20$as$u20$core..convert..From$LT$alloc..string..String$GT$$GT$..from..StringError$GT$17h87534402a1d034abE
	.p2align	4, 0x90
__ZN4core3ptr205drop_in_place$LT$$LT$alloc..boxed..Box$LT$dyn$u20$core..error..Error$u2b$core..marker..Send$u2b$core..marker..Sync$GT$$u20$as$u20$core..convert..From$LT$alloc..string..String$GT$$GT$..from..StringError$GT$17h87534402a1d034abE:
Lfunc_begin56:
	.loc	16 490 0
	.cfi_startproc
	pushq	%rbp
	.cfi_def_cfa_offset 16
	.cfi_offset %rbp, -16
	movq	%rsp, %rbp
	.cfi_def_cfa_register %rbp
	subq	$16, %rsp
	movq	%rdi, -8(%rbp)
Ltmp263:
	.loc	16 490 1 prologue_end
	callq	__ZN4core3ptr42drop_in_place$LT$alloc..string..String$GT$17h6644db695df79427E
	addq	$16, %rsp
	popq	%rbp
	retq
Ltmp264:
Lfunc_end56:
	.cfi_endproc

	.globl	__ZN4core3ptr236drop_in_place$LT$alloc..vec..Vec$LT$u8$GT$..extend_trusted$LT$core..iter..adapters..map..Map$LT$core..slice..iter..Iter$LT$u8$GT$$C$flate2..gz..GzBuilder..into_header..$u7b$$u7b$closure$u7d$$u7d$$GT$$GT$..$u7b$$u7b$closure$u7d$$u7d$$GT$17h4a6a9de66c14ba6eE
	.p2align	4, 0x90
__ZN4core3ptr236drop_in_place$LT$alloc..vec..Vec$LT$u8$GT$..extend_trusted$LT$core..iter..adapters..map..Map$LT$core..slice..iter..Iter$LT$u8$GT$$C$flate2..gz..GzBuilder..into_header..$u7b$$u7b$closure$u7d$$u7d$$GT$$GT$..$u7b$$u7b$closure$u7d$$u7d$$GT$17h4a6a9de66c14ba6eE:
Lfunc_begin57:
	.loc	16 490 0
	.cfi_startproc
	pushq	%rbp
	.cfi_def_cfa_offset 16
	.cfi_offset %rbp, -16
	movq	%rsp, %rbp
	.cfi_def_cfa_register %rbp
	subq	$16, %rsp
	movq	%rdi, -8(%rbp)
Ltmp265:
	.loc	16 490 1 prologue_end
	callq	__ZN4core3ptr62drop_in_place$LT$alloc..vec..set_len_on_drop..SetLenOnDrop$GT$17h7841796942d24fe9E
	addq	$16, %rsp
	popq	%rbp
	retq
Ltmp266:
Lfunc_end57:
	.cfi_endproc

	.globl	__ZN4core3ptr236drop_in_place$LT$alloc..vec..Vec$LT$u8$GT$..extend_trusted$LT$core..iter..adapters..map..Map$LT$core..slice..iter..Iter$LT$u8$GT$$C$flate2..gz..GzBuilder..into_header..$u7b$$u7b$closure$u7d$$u7d$$GT$$GT$..$u7b$$u7b$closure$u7d$$u7d$$GT$17h5794640ddd961216E
	.p2align	4, 0x90
__ZN4core3ptr236drop_in_place$LT$alloc..vec..Vec$LT$u8$GT$..extend_trusted$LT$core..iter..adapters..map..Map$LT$core..slice..iter..Iter$LT$u8$GT$$C$flate2..gz..GzBuilder..into_header..$u7b$$u7b$closure$u7d$$u7d$$GT$$GT$..$u7b$$u7b$closure$u7d$$u7d$$GT$17h5794640ddd961216E:
Lfunc_begin58:
	.loc	16 490 0
	.cfi_startproc
	pushq	%rbp
	.cfi_def_cfa_offset 16
	.cfi_offset %rbp, -16
	movq	%rsp, %rbp
	.cfi_def_cfa_register %rbp
	subq	$16, %rsp
	movq	%rdi, -8(%rbp)
Ltmp267:
	.loc	16 490 1 prologue_end
	callq	__ZN4core3ptr62drop_in_place$LT$alloc..vec..set_len_on_drop..SetLenOnDrop$GT$17h7841796942d24fe9E
	addq	$16, %rsp
	popq	%rbp
	retq
Ltmp268:
Lfunc_end58:
	.cfi_endproc

	.p2align	4, 0x90
__ZN4core3ptr27drop_in_place$LT$$RF$u8$GT$17hbe0a09b10522b8f8E:
Lfunc_begin59:
	.loc	16 490 0
	.cfi_startproc
	pushq	%rbp
	.cfi_def_cfa_offset 16
	.cfi_offset %rbp, -16
	movq	%rsp, %rbp
	.cfi_def_cfa_register %rbp
	pushq	%rax
	movq	%rdi, -8(%rbp)
Ltmp269:
	.loc	16 490 1 prologue_end
	addq	$8, %rsp
	popq	%rbp
	retq
Ltmp270:
Lfunc_end59:
	.cfi_endproc

	.p2align	4, 0x90
__ZN4core3ptr28drop_in_place$LT$$RF$u16$GT$17h30d362de864a83a8E:
Lfunc_begin60:
	.loc	16 490 0
	.cfi_startproc
	pushq	%rbp
	.cfi_def_cfa_offset 16
	.cfi_offset %rbp, -16
	movq	%rsp, %rbp
	.cfi_def_cfa_register %rbp
	pushq	%rax
	movq	%rdi, -8(%rbp)
Ltmp271:
	.loc	16 490 1 prologue_end
	addq	$8, %rsp
	popq	%rbp
	retq
Ltmp272:
Lfunc_end60:
	.cfi_endproc

	.p2align	4, 0x90
__ZN4core3ptr28drop_in_place$LT$$RF$u32$GT$17hcf4bf2e8e23fd24bE:
Lfunc_begin61:
	.loc	16 490 0
	.cfi_startproc
	pushq	%rbp
	.cfi_def_cfa_offset 16
	.cfi_offset %rbp, -16
	movq	%rsp, %rbp
	.cfi_def_cfa_register %rbp
	pushq	%rax
	movq	%rdi, -8(%rbp)
Ltmp273:
	.loc	16 490 1 prologue_end
	addq	$8, %rsp
	popq	%rbp
	retq
Ltmp274:
Lfunc_end61:
	.cfi_endproc

	.p2align	4, 0x90
__ZN4core3ptr30drop_in_place$LT$$RF$usize$GT$17h7a8fbfc533d85fe7E:
Lfunc_begin62:
	.loc	16 490 0
	.cfi_startproc
	pushq	%rbp
	.cfi_def_cfa_offset 16
	.cfi_offset %rbp, -16
	movq	%rsp, %rbp
	.cfi_def_cfa_register %rbp
	pushq	%rax
	movq	%rdi, -8(%rbp)
Ltmp275:
	.loc	16 490 1 prologue_end
	addq	$8, %rsp
	popq	%rbp
	retq
Ltmp276:
Lfunc_end62:
	.cfi_endproc

	.p2align	4, 0x90
__ZN4core3ptr32drop_in_place$LT$$RF$$RF$str$GT$17he5b26394acb99d5aE:
Lfunc_begin63:
	.loc	16 490 0
	.cfi_startproc
	pushq	%rbp
	.cfi_def_cfa_offset 16
	.cfi_offset %rbp, -16
	movq	%rsp, %rbp
	.cfi_def_cfa_register %rbp
	pushq	%rax
	movq	%rdi, -8(%rbp)
Ltmp277:
	.loc	16 490 1 prologue_end
	addq	$8, %rsp
	popq	%rbp
	retq
Ltmp278:
Lfunc_end63:
	.cfi_endproc

	.globl	__ZN4core3ptr332drop_in_place$LT$core..iter..traits..iterator..Iterator..for_each..call$LT$u8$C$alloc..vec..Vec$LT$u8$GT$..extend_trusted$LT$core..iter..adapters..map..Map$LT$core..slice..iter..Iter$LT$u8$GT$$C$flate2..gz..GzBuilder..into_header..$u7b$$u7b$closure$u7d$$u7d$$GT$$GT$..$u7b$$u7b$closure$u7d$$u7d$$GT$..$u7b$$u7b$closure$u7d$$u7d$$GT$17h3803e2ea6b630ea9E
	.p2align	4, 0x90
__ZN4core3ptr332drop_in_place$LT$core..iter..traits..iterator..Iterator..for_each..call$LT$u8$C$alloc..vec..Vec$LT$u8$GT$..extend_trusted$LT$core..iter..adapters..map..Map$LT$core..slice..iter..Iter$LT$u8$GT$$C$flate2..gz..GzBuilder..into_header..$u7b$$u7b$closure$u7d$$u7d$$GT$$GT$..$u7b$$u7b$closure$u7d$$u7d$$GT$..$u7b$$u7b$closure$u7d$$u7d$$GT$17h3803e2ea6b630ea9E:
Lfunc_begin64:
	.loc	16 490 0
	.cfi_startproc
	pushq	%rbp
	.cfi_def_cfa_offset 16
	.cfi_offset %rbp, -16
	movq	%rsp, %rbp
	.cfi_def_cfa_register %rbp
	subq	$16, %rsp
	movq	%rdi, -8(%rbp)
Ltmp279:
	.loc	16 490 1 prologue_end
	callq	__ZN4core3ptr236drop_in_place$LT$alloc..vec..Vec$LT$u8$GT$..extend_trusted$LT$core..iter..adapters..map..Map$LT$core..slice..iter..Iter$LT$u8$GT$$C$flate2..gz..GzBuilder..into_header..$u7b$$u7b$closure$u7d$$u7d$$GT$$GT$..$u7b$$u7b$closure$u7d$$u7d$$GT$17h5794640ddd961216E
	addq	$16, %rsp
	popq	%rbp
	retq
Ltmp280:
Lfunc_end64:
	.cfi_endproc

	.globl	__ZN4core3ptr332drop_in_place$LT$core..iter..traits..iterator..Iterator..for_each..call$LT$u8$C$alloc..vec..Vec$LT$u8$GT$..extend_trusted$LT$core..iter..adapters..map..Map$LT$core..slice..iter..Iter$LT$u8$GT$$C$flate2..gz..GzBuilder..into_header..$u7b$$u7b$closure$u7d$$u7d$$GT$$GT$..$u7b$$u7b$closure$u7d$$u7d$$GT$..$u7b$$u7b$closure$u7d$$u7d$$GT$17h63b8cecb096b45feE
	.p2align	4, 0x90
__ZN4core3ptr332drop_in_place$LT$core..iter..traits..iterator..Iterator..for_each..call$LT$u8$C$alloc..vec..Vec$LT$u8$GT$..extend_trusted$LT$core..iter..adapters..map..Map$LT$core..slice..iter..Iter$LT$u8$GT$$C$flate2..gz..GzBuilder..into_header..$u7b$$u7b$closure$u7d$$u7d$$GT$$GT$..$u7b$$u7b$closure$u7d$$u7d$$GT$..$u7b$$u7b$closure$u7d$$u7d$$GT$17h63b8cecb096b45feE:
Lfunc_begin65:
	.loc	16 490 0
	.cfi_startproc
	pushq	%rbp
	.cfi_def_cfa_offset 16
	.cfi_offset %rbp, -16
	movq	%rsp, %rbp
	.cfi_def_cfa_register %rbp
	subq	$16, %rsp
	movq	%rdi, -8(%rbp)
Ltmp281:
	.loc	16 490 1 prologue_end
	callq	__ZN4core3ptr236drop_in_place$LT$alloc..vec..Vec$LT$u8$GT$..extend_trusted$LT$core..iter..adapters..map..Map$LT$core..slice..iter..Iter$LT$u8$GT$$C$flate2..gz..GzBuilder..into_header..$u7b$$u7b$closure$u7d$$u7d$$GT$$GT$..$u7b$$u7b$closure$u7d$$u7d$$GT$17h4a6a9de66c14ba6eE
	addq	$16, %rsp
	popq	%rbp
	retq
Ltmp282:
Lfunc_end65:
	.cfi_endproc

	.p2align	4, 0x90
__ZN4core3ptr41drop_in_place$LT$$RF$flate2..crc..Crc$GT$17he1de368e17e9e472E:
Lfunc_begin66:
	.loc	16 490 0
	.cfi_startproc
	pushq	%rbp
	.cfi_def_cfa_offset 16
	.cfi_offset %rbp, -16
	movq	%rsp, %rbp
	.cfi_def_cfa_register %rbp
	pushq	%rax
	movq	%rdi, -8(%rbp)
Ltmp283:
	.loc	16 490 1 prologue_end
	addq	$8, %rsp
	popq	%rbp
	retq
Ltmp284:
Lfunc_end66:
	.cfi_endproc

	.p2align	4, 0x90
__ZN4core3ptr41drop_in_place$LT$miniz_oxide..MZError$GT$17h1b850248c5d8ef49E:
Lfunc_begin67:
	.loc	16 490 0
	.cfi_startproc
	pushq	%rbp
	.cfi_def_cfa_offset 16
	.cfi_offset %rbp, -16
	movq	%rsp, %rbp
	.cfi_def_cfa_register %rbp
	pushq	%rax
	movq	%rdi, -8(%rbp)
Ltmp285:
	.loc	16 490 1 prologue_end
	addq	$8, %rsp
	popq	%rbp
	retq
Ltmp286:
Lfunc_end67:
	.cfi_endproc

	.p2align	4, 0x90
__ZN4core3ptr42drop_in_place$LT$$RF$crc32fast..Hasher$GT$17h21f86c2d7c73cbc3E:
Lfunc_begin68:
	.loc	16 490 0
	.cfi_startproc
	pushq	%rbp
	.cfi_def_cfa_offset 16
	.cfi_offset %rbp, -16
	movq	%rsp, %rbp
	.cfi_def_cfa_register %rbp
	pushq	%rax
	movq	%rdi, -8(%rbp)
Ltmp287:
	.loc	16 490 1 prologue_end
	addq	$8, %rsp
	popq	%rbp
	retq
Ltmp288:
Lfunc_end68:
	.cfi_endproc

	.globl	__ZN4core3ptr42drop_in_place$LT$alloc..string..String$GT$17h6644db695df79427E
	.p2align	4, 0x90
__ZN4core3ptr42drop_in_place$LT$alloc..string..String$GT$17h6644db695df79427E:
Lfunc_begin69:
	.loc	16 490 0
	.cfi_startproc
	pushq	%rbp
	.cfi_def_cfa_offset 16
	.cfi_offset %rbp, -16
	movq	%rsp, %rbp
	.cfi_def_cfa_register %rbp
	subq	$16, %rsp
	movq	%rdi, -8(%rbp)
Ltmp289:
	.loc	16 490 1 prologue_end
	callq	__ZN4core3ptr46drop_in_place$LT$alloc..vec..Vec$LT$u8$GT$$GT$17h06fc9091b04823a5E
	addq	$16, %rsp
	popq	%rbp
	retq
Ltmp290:
Lfunc_end69:
	.cfi_endproc

	.p2align	4, 0x90
__ZN4core3ptr45drop_in_place$LT$$RF$flate2..gz..GzHeader$GT$17h24cc9aa6250416c9E:
Lfunc_begin70:
	.loc	16 490 0
	.cfi_startproc
	pushq	%rbp
	.cfi_def_cfa_offset 16
	.cfi_offset %rbp, -16
	movq	%rsp, %rbp
	.cfi_def_cfa_register %rbp
	pushq	%rax
	movq	%rdi, -8(%rbp)
Ltmp291:
	.loc	16 490 1 prologue_end
	addq	$8, %rsp
	popq	%rbp
	retq
Ltmp292:
Lfunc_end70:
	.cfi_endproc

	.p2align	4, 0x90
__ZN4core3ptr46drop_in_place$LT$$RF$std..io..error..Error$GT$17h3b5bea419f589fd0E:
Lfunc_begin71:
	.loc	16 490 0
	.cfi_startproc
	pushq	%rbp
	.cfi_def_cfa_offset 16
	.cfi_offset %rbp, -16
	movq	%rsp, %rbp
	.cfi_def_cfa_register %rbp
	pushq	%rax
	movq	%rdi, -8(%rbp)
Ltmp293:
	.loc	16 490 1 prologue_end
	addq	$8, %rsp
	popq	%rbp
	retq
Ltmp294:
Lfunc_end71:
	.cfi_endproc

	.globl	__ZN4core3ptr47drop_in_place$LT$alloc..ffi..c_str..CString$GT$17hdd9c525f4151550dE
	.p2align	4, 0x90
__ZN4core3ptr47drop_in_place$LT$alloc..ffi..c_str..CString$GT$17hdd9c525f4151550dE:
Lfunc_begin72:
	.loc	16 490 0
	.cfi_startproc
	.cfi_personality 155, _rust_eh_personality
	.cfi_lsda 16, Lexception11
	pushq	%rbp
	.cfi_def_cfa_offset 16
	.cfi_offset %rbp, -16
	movq	%rsp, %rbp
	.cfi_def_cfa_register %rbp
	subq	$32, %rsp
	movq	%rdi, -32(%rbp)
	movq	%rdi, -24(%rbp)
Ltmp295:
Ltmp301:
	.loc	16 490 1 prologue_end
	callq	__ZN68_$LT$alloc..ffi..c_str..CString$u20$as$u20$core..ops..drop..Drop$GT$4drop17h6eebf986fb4ebeb4E
Ltmp296:
	jmp	LBB72_3
LBB72_1:
Ltmp298:
	.loc	16 0 1 is_stmt 0
	movq	-32(%rbp), %rdi
	.loc	16 490 1
	callq	__ZN4core3ptr58drop_in_place$LT$alloc..boxed..Box$LT$$u5b$u8$u5d$$GT$$GT$17h22f05c47fea3d3f4E
Ltmp299:
	jmp	LBB72_5
LBB72_2:
Ltmp297:
	.loc	16 0 1
	movq	%rax, %rcx
	movl	%edx, %eax
	movq	%rcx, -16(%rbp)
	movl	%eax, -8(%rbp)
	jmp	LBB72_1
LBB72_3:
	movq	-32(%rbp), %rdi
	.loc	16 490 1
	callq	__ZN4core3ptr58drop_in_place$LT$alloc..boxed..Box$LT$$u5b$u8$u5d$$GT$$GT$17h22f05c47fea3d3f4E
	addq	$32, %rsp
	popq	%rbp
	retq
LBB72_4:
Ltmp300:
	callq	__ZN4core9panicking19panic_cannot_unwind17h1fbca7e1d7f56ae1E
LBB72_5:
	movq	-16(%rbp), %rdi
	callq	__Unwind_Resume
Ltmp302:
Lfunc_end72:
	.cfi_endproc
	.section	__TEXT,__gcc_except_tab
	.p2align	2
GCC_except_table72:
Lexception11:
	.byte	255
	.byte	255
	.byte	1
	.uleb128 Lcst_end11-Lcst_begin11
Lcst_begin11:
	.uleb128 Ltmp295-Lfunc_begin72
	.uleb128 Ltmp296-Ltmp295
	.uleb128 Ltmp297-Lfunc_begin72
	.byte	0
	.uleb128 Ltmp298-Lfunc_begin72
	.uleb128 Ltmp299-Ltmp298
	.uleb128 Ltmp300-Lfunc_begin72
	.byte	0
	.uleb128 Ltmp299-Lfunc_begin72
	.uleb128 Lfunc_end72-Ltmp299
	.byte	0
	.byte	0
Lcst_end11:
	.p2align	2

	.section	__TEXT,__text,regular,pure_instructions
	.p2align	4, 0x90
__ZN4core3ptr47drop_in_place$LT$flate2..mem..CompressError$GT$17hfbb9b2550b7f2ff6E:
Lfunc_begin73:
	.loc	16 490 0 is_stmt 1
	.cfi_startproc
	pushq	%rbp
	.cfi_def_cfa_offset 16
	.cfi_offset %rbp, -16
	movq	%rsp, %rbp
	.cfi_def_cfa_register %rbp
	pushq	%rax
	movq	%rdi, -8(%rbp)
Ltmp303:
	.loc	16 490 1 prologue_end
	addq	$8, %rsp
	popq	%rbp
	retq
Ltmp304:
Lfunc_end73:
	.cfi_endproc

	.p2align	4, 0x90
__ZN4core3ptr48drop_in_place$LT$$RF$$u5b$u8$u3b$$u20$8$u5d$$GT$17hce47f6a30958a9bdE:
Lfunc_begin74:
	.loc	16 490 0
	.cfi_startproc
	pushq	%rbp
	.cfi_def_cfa_offset 16
	.cfi_offset %rbp, -16
	movq	%rsp, %rbp
	.cfi_def_cfa_register %rbp
	pushq	%rax
	movq	%rdi, -8(%rbp)
Ltmp305:
	.loc	16 490 1 prologue_end
	addq	$8, %rsp
	popq	%rbp
	retq
Ltmp306:
Lfunc_end74:
	.cfi_endproc

	.globl	__ZN4core3ptr495drop_in_place$LT$core..iter..adapters..map..map_fold$LT$$RF$u8$C$u8$C$$LP$$RP$$C$flate2..gz..GzBuilder..into_header..$u7b$$u7b$closure$u7d$$u7d$$C$core..iter..traits..iterator..Iterator..for_each..call$LT$u8$C$alloc..vec..Vec$LT$u8$GT$..extend_trusted$LT$core..iter..adapters..map..Map$LT$core..slice..iter..Iter$LT$u8$GT$$C$flate2..gz..GzBuilder..into_header..$u7b$$u7b$closure$u7d$$u7d$$GT$$GT$..$u7b$$u7b$closure$u7d$$u7d$$GT$..$u7b$$u7b$closure$u7d$$u7d$$GT$..$u7b$$u7b$closure$u7d$$u7d$$GT$17h81b280d850a1cc89E
	.p2align	4, 0x90
__ZN4core3ptr495drop_in_place$LT$core..iter..adapters..map..map_fold$LT$$RF$u8$C$u8$C$$LP$$RP$$C$flate2..gz..GzBuilder..into_header..$u7b$$u7b$closure$u7d$$u7d$$C$core..iter..traits..iterator..Iterator..for_each..call$LT$u8$C$alloc..vec..Vec$LT$u8$GT$..extend_trusted$LT$core..iter..adapters..map..Map$LT$core..slice..iter..Iter$LT$u8$GT$$C$flate2..gz..GzBuilder..into_header..$u7b$$u7b$closure$u7d$$u7d$$GT$$GT$..$u7b$$u7b$closure$u7d$$u7d$$GT$..$u7b$$u7b$closure$u7d$$u7d$$GT$..$u7b$$u7b$closure$u7d$$u7d$$GT$17h81b280d850a1cc89E:
Lfunc_begin75:
	.loc	16 490 0
	.cfi_startproc
	pushq	%rbp
	.cfi_def_cfa_offset 16
	.cfi_offset %rbp, -16
	movq	%rsp, %rbp
	.cfi_def_cfa_register %rbp
	subq	$16, %rsp
	movq	%rdi, -8(%rbp)
Ltmp307:
	.loc	16 490 1 prologue_end
	callq	__ZN4core3ptr332drop_in_place$LT$core..iter..traits..iterator..Iterator..for_each..call$LT$u8$C$alloc..vec..Vec$LT$u8$GT$..extend_trusted$LT$core..iter..adapters..map..Map$LT$core..slice..iter..Iter$LT$u8$GT$$C$flate2..gz..GzBuilder..into_header..$u7b$$u7b$closure$u7d$$u7d$$GT$$GT$..$u7b$$u7b$closure$u7d$$u7d$$GT$..$u7b$$u7b$closure$u7d$$u7d$$GT$17h63b8cecb096b45feE
	addq	$16, %rsp
	popq	%rbp
	retq
Ltmp308:
Lfunc_end75:
	.cfi_endproc

	.globl	__ZN4core3ptr495drop_in_place$LT$core..iter..adapters..map..map_fold$LT$$RF$u8$C$u8$C$$LP$$RP$$C$flate2..gz..GzBuilder..into_header..$u7b$$u7b$closure$u7d$$u7d$$C$core..iter..traits..iterator..Iterator..for_each..call$LT$u8$C$alloc..vec..Vec$LT$u8$GT$..extend_trusted$LT$core..iter..adapters..map..Map$LT$core..slice..iter..Iter$LT$u8$GT$$C$flate2..gz..GzBuilder..into_header..$u7b$$u7b$closure$u7d$$u7d$$GT$$GT$..$u7b$$u7b$closure$u7d$$u7d$$GT$..$u7b$$u7b$closure$u7d$$u7d$$GT$..$u7b$$u7b$closure$u7d$$u7d$$GT$17h82efac9ad8ee2b5dE
	.p2align	4, 0x90
__ZN4core3ptr495drop_in_place$LT$core..iter..adapters..map..map_fold$LT$$RF$u8$C$u8$C$$LP$$RP$$C$flate2..gz..GzBuilder..into_header..$u7b$$u7b$closure$u7d$$u7d$$C$core..iter..traits..iterator..Iterator..for_each..call$LT$u8$C$alloc..vec..Vec$LT$u8$GT$..extend_trusted$LT$core..iter..adapters..map..Map$LT$core..slice..iter..Iter$LT$u8$GT$$C$flate2..gz..GzBuilder..into_header..$u7b$$u7b$closure$u7d$$u7d$$GT$$GT$..$u7b$$u7b$closure$u7d$$u7d$$GT$..$u7b$$u7b$closure$u7d$$u7d$$GT$..$u7b$$u7b$closure$u7d$$u7d$$GT$17h82efac9ad8ee2b5dE:
Lfunc_begin76:
	.loc	16 490 0
	.cfi_startproc
	pushq	%rbp
	.cfi_def_cfa_offset 16
	.cfi_offset %rbp, -16
	movq	%rsp, %rbp
	.cfi_def_cfa_register %rbp
	subq	$16, %rsp
	movq	%rdi, -8(%rbp)
Ltmp309:
	.loc	16 490 1 prologue_end
	callq	__ZN4core3ptr332drop_in_place$LT$core..iter..traits..iterator..Iterator..for_each..call$LT$u8$C$alloc..vec..Vec$LT$u8$GT$..extend_trusted$LT$core..iter..adapters..map..Map$LT$core..slice..iter..Iter$LT$u8$GT$$C$flate2..gz..GzBuilder..into_header..$u7b$$u7b$closure$u7d$$u7d$$GT$$GT$..$u7b$$u7b$closure$u7d$$u7d$$GT$..$u7b$$u7b$closure$u7d$$u7d$$GT$17h3803e2ea6b630ea9E
	addq	$16, %rsp
	popq	%rbp
	retq
Ltmp310:
Lfunc_end76:
	.cfi_endproc

	.p2align	4, 0x90
__ZN4core3ptr49drop_in_place$LT$flate2..mem..DecompressError$GT$17h82b4ea56c8ffddebE:
Lfunc_begin77:
	.loc	16 490 0
	.cfi_startproc
	pushq	%rbp
	.cfi_def_cfa_offset 16
	.cfi_offset %rbp, -16
	movq	%rsp, %rbp
	.cfi_def_cfa_register %rbp
	pushq	%rax
	movq	%rdi, -8(%rbp)
Ltmp311:
	.loc	16 490 1 prologue_end
	addq	$8, %rsp
	popq	%rbp
	retq
Ltmp312:
Lfunc_end77:
	.cfi_endproc

	.p2align	4, 0x90
__ZN4core3ptr50drop_in_place$LT$$RF$alloc..vec..Vec$LT$u8$GT$$GT$17h408827a5542d6eabE:
Lfunc_begin78:
	.loc	16 490 0
	.cfi_startproc
	pushq	%rbp
	.cfi_def_cfa_offset 16
	.cfi_offset %rbp, -16
	movq	%rsp, %rbp
	.cfi_def_cfa_register %rbp
	pushq	%rax
	movq	%rdi, -8(%rbp)
Ltmp313:
	.loc	16 490 1 prologue_end
	addq	$8, %rsp
	popq	%rbp
	retq
Ltmp314:
Lfunc_end78:
	.cfi_endproc

	.p2align	4, 0x90
__ZN4core3ptr51drop_in_place$LT$$RF$alloc..ffi..c_str..CString$GT$17hcf13059d9452eab9E:
Lfunc_begin79:
	.loc	16 490 0
	.cfi_startproc
	pushq	%rbp
	.cfi_def_cfa_offset 16
	.cfi_offset %rbp, -16
	movq	%rsp, %rbp
	.cfi_def_cfa_register %rbp
	pushq	%rax
	movq	%rdi, -8(%rbp)
Ltmp315:
	.loc	16 490 1 prologue_end
	addq	$8, %rsp
	popq	%rbp
	retq
Ltmp316:
Lfunc_end79:
	.cfi_endproc

	.p2align	4, 0x90
__ZN4core3ptr51drop_in_place$LT$$RF$flate2..ffi..rust..Deflate$GT$17h07dd65b1d371170cE:
Lfunc_begin80:
	.loc	16 490 0
	.cfi_startproc
	pushq	%rbp
	.cfi_def_cfa_offset 16
	.cfi_offset %rbp, -16
	movq	%rsp, %rbp
	.cfi_def_cfa_register %rbp
	pushq	%rax
	movq	%rdi, -8(%rbp)
Ltmp317:
	.loc	16 490 1 prologue_end
	addq	$8, %rsp
	popq	%rbp
	retq
Ltmp318:
Lfunc_end80:
	.cfi_endproc

	.p2align	4, 0x90
__ZN4core3ptr51drop_in_place$LT$$RF$flate2..ffi..rust..Inflate$GT$17h99d7f588f5a13f61E:
Lfunc_begin81:
	.loc	16 490 0
	.cfi_startproc
	pushq	%rbp
	.cfi_def_cfa_offset 16
	.cfi_offset %rbp, -16
	movq	%rsp, %rbp
	.cfi_def_cfa_register %rbp
	pushq	%rax
	movq	%rdi, -8(%rbp)
Ltmp319:
	.loc	16 490 1 prologue_end
	addq	$8, %rsp
	popq	%rbp
	retq
Ltmp320:
Lfunc_end81:
	.cfi_endproc

	.p2align	4, 0x90
__ZN4core3ptr55drop_in_place$LT$$RF$core..option..Option$LT$u8$GT$$GT$17h2ecea5d5de825a34E:
Lfunc_begin82:
	.loc	16 490 0
	.cfi_startproc
	pushq	%rbp
	.cfi_def_cfa_offset 16
	.cfi_offset %rbp, -16
	movq	%rsp, %rbp
	.cfi_def_cfa_register %rbp
	pushq	%rax
	movq	%rdi, -8(%rbp)
Ltmp321:
	.loc	16 490 1 prologue_end
	addq	$8, %rsp
	popq	%rbp
	retq
Ltmp322:
Lfunc_end82:
	.cfi_endproc

	.p2align	4, 0x90
__ZN4core3ptr56drop_in_place$LT$$RF$flate2..ffi..rust..ErrorMessage$GT$17h0b85aac2e5663772E:
Lfunc_begin83:
	.loc	16 490 0
	.cfi_startproc
	pushq	%rbp
	.cfi_def_cfa_offset 16
	.cfi_offset %rbp, -16
	movq	%rsp, %rbp
	.cfi_def_cfa_register %rbp
	pushq	%rax
	movq	%rdi, -8(%rbp)
Ltmp323:
	.loc	16 490 1 prologue_end
	addq	$8, %rsp
	popq	%rbp
	retq
Ltmp324:
Lfunc_end83:
	.cfi_endproc

	.p2align	4, 0x90
__ZN4core3ptr58drop_in_place$LT$$RF$core..option..Option$LT$usize$GT$$GT$17haaa917d12704f168E:
Lfunc_begin84:
	.loc	16 490 0
	.cfi_startproc
	pushq	%rbp
	.cfi_def_cfa_offset 16
	.cfi_offset %rbp, -16
	movq	%rsp, %rbp
	.cfi_def_cfa_register %rbp
	pushq	%rax
	movq	%rdi, -8(%rbp)
Ltmp325:
	.loc	16 490 1 prologue_end
	addq	$8, %rsp
	popq	%rbp
	retq
Ltmp326:
Lfunc_end84:
	.cfi_endproc

	.p2align	4, 0x90
__ZN4core3ptr58drop_in_place$LT$$RF$flate2..mem..DecompressErrorInner$GT$17hc4b4de909d532605E:
Lfunc_begin85:
	.loc	16 490 0
	.cfi_startproc
	pushq	%rbp
	.cfi_def_cfa_offset 16
	.cfi_offset %rbp, -16
	movq	%rsp, %rbp
	.cfi_def_cfa_register %rbp
	pushq	%rax
	movq	%rdi, -8(%rbp)
Ltmp327:
	.loc	16 490 1 prologue_end
	addq	$8, %rsp
	popq	%rbp
	retq
Ltmp328:
Lfunc_end85:
	.cfi_endproc

	.globl	__ZN4core3ptr58drop_in_place$LT$alloc..boxed..Box$LT$$u5b$u8$u5d$$GT$$GT$17h22f05c47fea3d3f4E
	.p2align	4, 0x90
__ZN4core3ptr58drop_in_place$LT$alloc..boxed..Box$LT$$u5b$u8$u5d$$GT$$GT$17h22f05c47fea3d3f4E:
Lfunc_begin86:
	.loc	16 490 0
	.cfi_startproc
	pushq	%rbp
	.cfi_def_cfa_offset 16
	.cfi_offset %rbp, -16
	movq	%rsp, %rbp
	.cfi_def_cfa_register %rbp
	subq	$32, %rsp
	movq	%rdi, -32(%rbp)
	movq	%rdi, -24(%rbp)
	movq	-32(%rbp), %rax
Ltmp329:
	.loc	16 490 1 prologue_end
	movq	(%rax), %rdi
	movq	8(%rax), %rsi
	callq	__ZN5alloc5alloc8box_free17h506db95b3f8a1a16E
	addq	$32, %rsp
	popq	%rbp
	retq
Ltmp330:
Lfunc_end86:
	.cfi_endproc

	.p2align	4, 0x90
__ZN4core3ptr61drop_in_place$LT$$RF$flate2..gz..bufread..GzHeaderPartial$GT$17h9b9deccfbbafc8cbE:
Lfunc_begin87:
	.loc	16 490 0
	.cfi_startproc
	pushq	%rbp
	.cfi_def_cfa_offset 16
	.cfi_offset %rbp, -16
	movq	%rsp, %rbp
	.cfi_def_cfa_register %rbp
	pushq	%rax
	movq	%rdi, -8(%rbp)
Ltmp331:
	.loc	16 490 1 prologue_end
	addq	$8, %rsp
	popq	%rbp
	retq
Ltmp332:
Lfunc_end87:
	.cfi_endproc

	.globl	__ZN4core3ptr62drop_in_place$LT$alloc..vec..into_iter..IntoIter$LT$u8$GT$$GT$17he7275239158d5030E
	.p2align	4, 0x90
__ZN4core3ptr62drop_in_place$LT$alloc..vec..into_iter..IntoIter$LT$u8$GT$$GT$17he7275239158d5030E:
Lfunc_begin88:
	.loc	16 490 0
	.cfi_startproc
	pushq	%rbp
	.cfi_def_cfa_offset 16
	.cfi_offset %rbp, -16
	movq	%rsp, %rbp
	.cfi_def_cfa_register %rbp
	subq	$16, %rsp
	movq	%rdi, -8(%rbp)
Ltmp333:
	.loc	16 490 1 prologue_end
	callq	__ZN86_$LT$alloc..vec..into_iter..IntoIter$LT$T$C$A$GT$$u20$as$u20$core..ops..drop..Drop$GT$4drop17h4010b96170f9f7b4E
	addq	$16, %rsp
	popq	%rbp
	retq
Ltmp334:
Lfunc_end88:
	.cfi_endproc

	.p2align	4, 0x90
__ZN4core3ptr66drop_in_place$LT$$RF$flate2..gz..bufread..GzHeaderParsingState$GT$17h2668465d4654a876E:
Lfunc_begin89:
	.loc	16 490 0
	.cfi_startproc
	pushq	%rbp
	.cfi_def_cfa_offset 16
	.cfi_offset %rbp, -16
	movq	%rsp, %rbp
	.cfi_def_cfa_register %rbp
	pushq	%rax
	movq	%rdi, -8(%rbp)
Ltmp335:
	.loc	16 490 1 prologue_end
	addq	$8, %rsp
	popq	%rbp
	retq
Ltmp336:
Lfunc_end89:
	.cfi_endproc

	.p2align	4, 0x90
__ZN4core3ptr78drop_in_place$LT$$RF$core..option..Option$LT$alloc..vec..Vec$LT$u8$GT$$GT$$GT$17hb2849233676f0e11E:
Lfunc_begin90:
	.loc	16 490 0
	.cfi_startproc
	pushq	%rbp
	.cfi_def_cfa_offset 16
	.cfi_offset %rbp, -16
	movq	%rsp, %rbp
	.cfi_def_cfa_register %rbp
	pushq	%rax
	movq	%rdi, -8(%rbp)
Ltmp337:
	.loc	16 490 1 prologue_end
	addq	$8, %rsp
	popq	%rbp
	retq
Ltmp338:
Lfunc_end90:
	.cfi_endproc

	.p2align	4, 0x90
__ZN4core3ptr79drop_in_place$LT$$RF$core..option..Option$LT$alloc..ffi..c_str..CString$GT$$GT$17h0b7c543ece8492bfE:
Lfunc_begin91:
	.loc	16 490 0
	.cfi_startproc
	pushq	%rbp
	.cfi_def_cfa_offset 16
	.cfi_offset %rbp, -16
	movq	%rsp, %rbp
	.cfi_def_cfa_register %rbp
	pushq	%rax
	movq	%rdi, -8(%rbp)
Ltmp339:
	.loc	16 490 1 prologue_end
	addq	$8, %rsp
	popq	%rbp
	retq
Ltmp340:
Lfunc_end91:
	.cfi_endproc

	.globl	__ZN4core3ptr89drop_in_place$LT$alloc..boxed..Box$LT$miniz_oxide..deflate..core..CompressorOxide$GT$$GT$17h8d47efc1794a9411E
	.p2align	4, 0x90
__ZN4core3ptr89drop_in_place$LT$alloc..boxed..Box$LT$miniz_oxide..deflate..core..CompressorOxide$GT$$GT$17h8d47efc1794a9411E:
Lfunc_begin92:
	.loc	16 490 0
	.cfi_startproc
	.cfi_personality 155, _rust_eh_personality
	.cfi_lsda 16, Lexception12
	pushq	%rbp
	.cfi_def_cfa_offset 16
	.cfi_offset %rbp, -16
	movq	%rsp, %rbp
	.cfi_def_cfa_register %rbp
	subq	$32, %rsp
	movq	%rdi, -32(%rbp)
	movq	%rdi, -24(%rbp)
Ltmp347:
	.loc	16 490 1 prologue_end
	movq	(%rdi), %rdi
Ltmp341:
	callq	__ZN4core3ptr64drop_in_place$LT$miniz_oxide..deflate..core..CompressorOxide$GT$17h62551c0be77a89aeE
Ltmp342:
	jmp	LBB92_3
LBB92_1:
	.loc	16 0 1 is_stmt 0
	movq	-32(%rbp), %rax
	.loc	16 490 1
	movq	(%rax), %rdi
Ltmp344:
	callq	__ZN5alloc5alloc8box_free17hfc0f3f690e27e9ebE
Ltmp345:
	jmp	LBB92_5
LBB92_2:
Ltmp343:
	.loc	16 0 1
	movq	%rax, %rcx
	movl	%edx, %eax
	movq	%rcx, -16(%rbp)
	movl	%eax, -8(%rbp)
	jmp	LBB92_1
LBB92_3:
	movq	-32(%rbp), %rax
	.loc	16 490 1
	movq	(%rax), %rdi
	callq	__ZN5alloc5alloc8box_free17hfc0f3f690e27e9ebE
	addq	$32, %rsp
	popq	%rbp
	retq
LBB92_4:
Ltmp346:
	callq	__ZN4core9panicking19panic_cannot_unwind17h1fbca7e1d7f56ae1E
LBB92_5:
	movq	-16(%rbp), %rdi
	callq	__Unwind_Resume
Ltmp348:
Lfunc_end92:
	.cfi_endproc
	.section	__TEXT,__gcc_except_tab
	.p2align	2
GCC_except_table92:
Lexception12:
	.byte	255
	.byte	255
	.byte	1
	.uleb128 Lcst_end12-Lcst_begin12
Lcst_begin12:
	.uleb128 Ltmp341-Lfunc_begin92
	.uleb128 Ltmp342-Ltmp341
	.uleb128 Ltmp343-Lfunc_begin92
	.byte	0
	.uleb128 Ltmp344-Lfunc_begin92
	.uleb128 Ltmp345-Ltmp344
	.uleb128 Ltmp346-Lfunc_begin92
	.byte	0
	.uleb128 Ltmp345-Lfunc_begin92
	.uleb128 Lfunc_end92-Ltmp345
	.byte	0
	.byte	0
Lcst_end12:
	.p2align	2

	.section	__TEXT,__text,regular,pure_instructions
	.globl	__ZN4core4iter6traits10exact_size17ExactSizeIterator3len17h8554cae86ffd609dE
	.p2align	4, 0x90
__ZN4core4iter6traits10exact_size17ExactSizeIterator3len17h8554cae86ffd609dE:
Lfunc_begin93:
	.file	26 "/rustc/2c8cc343237b8f7d5a3c3703e3a87f2eb2c54a74/library/core/src/iter/traits" "exact_size.rs"
	.loc	26 106 0 is_stmt 1
	.cfi_startproc
	pushq	%rbp
	.cfi_def_cfa_offset 16
	.cfi_offset %rbp, -16
	movq	%rsp, %rbp
	.cfi_def_cfa_register %rbp
	subq	$192, %rsp
	movq	%rdi, %rsi
	movq	%rsi, -48(%rbp)
Ltmp349:
	.loc	26 107 30 prologue_end
	leaq	-152(%rbp), %rdi
	callq	__ZN103_$LT$alloc..vec..into_iter..IntoIter$LT$T$C$A$GT$$u20$as$u20$core..iter..traits..iterator..Iterator$GT$9size_hint17h657fdee441c1caaaE
	.loc	26 107 14 is_stmt 0
	movq	-152(%rbp), %rax
	movq	%rax, -192(%rbp)
	movq	%rax, -40(%rbp)
	.loc	26 107 21
	movq	-144(%rbp), %rdx
	movq	-136(%rbp), %rcx
	movq	%rdx, -168(%rbp)
	movq	%rcx, -160(%rbp)
Ltmp350:
	.loc	26 112 27 is_stmt 1
	movq	%rax, -104(%rbp)
	movq	$1, -112(%rbp)
	.loc	26 112 9 is_stmt 0
	leaq	-168(%rbp), %rax
	movq	%rax, -128(%rbp)
	leaq	-112(%rbp), %rax
	movq	%rax, -120(%rbp)
	movq	-128(%rbp), %rdi
	movq	%rdi, -184(%rbp)
	movq	%rdi, -32(%rbp)
	movq	-120(%rbp), %rsi
	movq	%rsi, -176(%rbp)
	movq	%rsi, -24(%rbp)
Ltmp351:
	.loc	26 112 9
	movq	%rdi, -16(%rbp)
	movq	%rsi, -8(%rbp)
Ltmp352:
	.file	27 "/rustc/2c8cc343237b8f7d5a3c3703e3a87f2eb2c54a74/library/core/src" "option.rs"
	.loc	27 2089 9 is_stmt 1
	callq	__ZN55_$LT$T$u20$as$u20$core..option..SpecOptionPartialEq$GT$2eq17h3ad6971a26a3f384E
Ltmp353:
	.loc	26 112 9
	xorb	$-1, %al
	testb	$1, %al
	jne	LBB93_2
Ltmp354:
	.loc	26 0 9 is_stmt 0
	movq	-192(%rbp), %rax
	.loc	26 114 6 is_stmt 1
	addq	$192, %rsp
	popq	%rbp
	retq
LBB93_2:
	.loc	26 0 6 is_stmt 0
	movq	-176(%rbp), %rdx
	movq	-184(%rbp), %rsi
Ltmp355:
	.loc	26 112 9 is_stmt 1
	movq	$0, -80(%rbp)
	leaq	l___unnamed_32(%rip), %r8
	xorl	%edi, %edi
	leaq	-96(%rbp), %rcx
	callq	__ZN4core9panicking13assert_failed17h8cac7d7db09fc3a9E
Ltmp356:
Lfunc_end93:
	.cfi_endproc
	.file	28 "/rustc/2c8cc343237b8f7d5a3c3703e3a87f2eb2c54a74/library/core/src/macros" "mod.rs"

	.globl	__ZN4core4iter6traits8iterator8Iterator3map17h294c3d1f171460c9E
	.p2align	4, 0x90
__ZN4core4iter6traits8iterator8Iterator3map17h294c3d1f171460c9E:
Lfunc_begin94:
	.file	29 "/rustc/2c8cc343237b8f7d5a3c3703e3a87f2eb2c54a74/library/core/src/iter/traits" "iterator.rs"
	.loc	29 782 0
	.cfi_startproc
	pushq	%rbp
	.cfi_def_cfa_offset 16
	.cfi_offset %rbp, -16
	movq	%rsp, %rbp
	.cfi_def_cfa_register %rbp
	subq	$32, %rsp
	movq	%rdi, -24(%rbp)
	movq	%rsi, -16(%rbp)
Ltmp357:
	.loc	29 787 9 prologue_end
	callq	__ZN4core4iter8adapters3map16Map$LT$I$C$F$GT$3new17hdf8ae8d219529cf8E
	.loc	29 788 6
	addq	$32, %rsp
	popq	%rbp
	retq
Ltmp358:
Lfunc_end94:
	.cfi_endproc

	.globl	__ZN4core4iter6traits8iterator8Iterator3map17ha2edd51122c69cffE
	.p2align	4, 0x90
__ZN4core4iter6traits8iterator8Iterator3map17ha2edd51122c69cffE:
Lfunc_begin95:
	.loc	29 782 0
	.cfi_startproc
	pushq	%rbp
	.cfi_def_cfa_offset 16
	.cfi_offset %rbp, -16
	movq	%rsp, %rbp
	.cfi_def_cfa_register %rbp
	subq	$32, %rsp
	movq	%rdi, -24(%rbp)
	movq	%rsi, -16(%rbp)
Ltmp359:
	.loc	29 787 9 prologue_end
	callq	__ZN4core4iter8adapters3map16Map$LT$I$C$F$GT$3new17h4894c864b67baeb3E
	.loc	29 788 6
	addq	$32, %rsp
	popq	%rbp
	retq
Ltmp360:
Lfunc_end95:
	.cfi_endproc

	.globl	__ZN4core4iter6traits8iterator8Iterator3zip17hf903c3f9be6ee329E
	.p2align	4, 0x90
__ZN4core4iter6traits8iterator8Iterator3zip17hf903c3f9be6ee329E:
Lfunc_begin96:
	.loc	29 623 0
	.cfi_startproc
	.cfi_personality 155, _rust_eh_personality
	.cfi_lsda 16, Lexception13
	pushq	%rbp
	.cfi_def_cfa_offset 16
	.cfi_offset %rbp, -16
	movq	%rsp, %rbp
	.cfi_def_cfa_register %rbp
	subq	$128, %rsp
	movq	%r8, -112(%rbp)
	movq	%rcx, -96(%rbp)
	movq	%rdx, -120(%rbp)
	movq	%rsi, %rax
	movq	-112(%rbp), %rsi
	movq	%rax, -104(%rbp)
	movq	%rdi, %rcx
	movq	-96(%rbp), %rdi
	movq	%rcx, -88(%rbp)
	movq	%rcx, -80(%rbp)
	movq	%rax, -48(%rbp)
	movq	%rdx, -40(%rbp)
	movq	%rdi, -32(%rbp)
	movq	%rsi, -24(%rbp)
Ltmp366:
	.loc	29 628 18 prologue_end
	movb	$1, -49(%rbp)
Ltmp361:
	.loc	29 628 24 is_stmt 0
	callq	__ZN63_$LT$I$u20$as$u20$core..iter..traits..collect..IntoIterator$GT$9into_iter17h2268046556220883E
Ltmp362:
	movq	%rdx, -72(%rbp)
	movq	%rax, -64(%rbp)
	jmp	LBB96_3
LBB96_1:
	.loc	29 628 41
	testb	$1, -49(%rbp)
	jne	LBB96_6
	jmp	LBB96_5
LBB96_2:
Ltmp365:
	.loc	29 0 41
	movq	%rax, %rcx
	movl	%edx, %eax
	movq	%rcx, -16(%rbp)
	movl	%eax, -8(%rbp)
	jmp	LBB96_1
LBB96_3:
	movq	-72(%rbp), %r8
	movq	-64(%rbp), %rcx
	movq	-120(%rbp), %rdx
	movq	-104(%rbp), %rsi
	movq	-88(%rbp), %rdi
	.loc	29 628 9
	movb	$0, -49(%rbp)
Ltmp363:
	callq	__ZN4core4iter8adapters3zip16Zip$LT$A$C$B$GT$3new17hc8f247209810fb1fE
Ltmp364:
	jmp	LBB96_4
LBB96_4:
	.loc	29 0 9
	movq	-80(%rbp), %rax
	.loc	29 629 6 is_stmt 1
	addq	$128, %rsp
	popq	%rbp
	retq
LBB96_5:
	.loc	29 623 5
	movq	-16(%rbp), %rdi
	callq	__Unwind_Resume
LBB96_6:
	.loc	29 628 41
	jmp	LBB96_5
Ltmp367:
Lfunc_end96:
	.cfi_endproc
	.section	__TEXT,__gcc_except_tab
	.p2align	2
GCC_except_table96:
Lexception13:
	.byte	255
	.byte	255
	.byte	1
	.uleb128 Lcst_end13-Lcst_begin13
Lcst_begin13:
	.uleb128 Ltmp361-Lfunc_begin96
	.uleb128 Ltmp364-Ltmp361
	.uleb128 Ltmp365-Lfunc_begin96
	.byte	0
	.uleb128 Ltmp364-Lfunc_begin96
	.uleb128 Lfunc_end96-Ltmp364
	.byte	0
	.byte	0
Lcst_end13:
	.p2align	2

	.section	__TEXT,__text,regular,pure_instructions
	.globl	__ZN4core4iter6traits8iterator8Iterator4fold17haf2d8c3c772dea1fE
	.p2align	4, 0x90
__ZN4core4iter6traits8iterator8Iterator4fold17haf2d8c3c772dea1fE:
Lfunc_begin97:
	.loc	29 2431 0
	.cfi_startproc
	.cfi_personality 155, _rust_eh_personality
	.cfi_lsda 16, Lexception14
	pushq	%rbp
	.cfi_def_cfa_offset 16
	.cfi_offset %rbp, -16
	movq	%rsp, %rbp
	.cfi_def_cfa_register %rbp
	subq	$96, %rsp
	movq	%rdx, -88(%rbp)
Ltmp379:
	movq	%rdi, -80(%rbp)
	movq	%rsi, -72(%rbp)
Ltmp380:
	.loc	29 2436 25 prologue_end
	movb	$1, -41(%rbp)
Ltmp381:
LBB97_1:
Ltmp368:
	.loc	29 0 25 is_stmt 0
	leaq	-80(%rbp), %rdi
Ltmp382:
	.loc	29 2437 29 is_stmt 1
	callq	__ZN91_$LT$core..slice..iter..Iter$LT$T$GT$$u20$as$u20$core..iter..traits..iterator..Iterator$GT$4next17h63cfc4ed932084d7E
Ltmp369:
	movq	%rax, -96(%rbp)
	jmp	LBB97_4
Ltmp383:
LBB97_2:
	.loc	29 2441 5
	testb	$1, -41(%rbp)
	jne	LBB97_13
	jmp	LBB97_12
Ltmp384:
LBB97_3:
Ltmp375:
	.loc	29 0 5 is_stmt 0
	movq	%rax, %rcx
	movl	%edx, %eax
	movq	%rcx, -24(%rbp)
	movl	%eax, -16(%rbp)
	jmp	LBB97_2
Ltmp385:
LBB97_4:
	movq	-96(%rbp), %rax
Ltmp386:
	.loc	29 2437 29 is_stmt 1
	movq	%rax, -64(%rbp)
	.loc	29 2437 19 is_stmt 0
	movq	-64(%rbp), %rdx
	movl	$1, %eax
	xorl	%ecx, %ecx
	cmpq	$0, %rdx
	cmoveq	%rcx, %rax
	cmpq	$1, %rax
	jne	LBB97_6
Ltmp387:
	.loc	29 0 19
	movq	-88(%rbp), %rdi
	.loc	29 2437 24
	movq	-64(%rbp), %rax
	movq	%rax, -8(%rbp)
	.loc	29 2438 23 is_stmt 1
	movb	$0, -41(%rbp)
	.loc	29 2438 21 is_stmt 0
	movq	%rax, -56(%rbp)
	movq	-56(%rbp), %rsi
Ltmp373:
	callq	__ZN4core4iter8adapters3map8map_fold28_$u7b$$u7b$closure$u7d$$u7d$17h0e0d994f91119539E
Ltmp374:
	jmp	LBB97_11
Ltmp388:
LBB97_6:
	.loc	29 2437 9 is_stmt 1
	jmp	LBB97_7
Ltmp389:
LBB97_7:
Ltmp370:
	.loc	29 0 9 is_stmt 0
	movq	-88(%rbp), %rdi
	.loc	29 2441 5 is_stmt 1
	callq	__ZN4core3ptr495drop_in_place$LT$core..iter..adapters..map..map_fold$LT$$RF$u8$C$u8$C$$LP$$RP$$C$flate2..gz..GzBuilder..into_header..$u7b$$u7b$closure$u7d$$u7d$$C$core..iter..traits..iterator..Iterator..for_each..call$LT$u8$C$alloc..vec..Vec$LT$u8$GT$..extend_trusted$LT$core..iter..adapters..map..Map$LT$core..slice..iter..Iter$LT$u8$GT$$C$flate2..gz..GzBuilder..into_header..$u7b$$u7b$closure$u7d$$u7d$$GT$$GT$..$u7b$$u7b$closure$u7d$$u7d$$GT$..$u7b$$u7b$closure$u7d$$u7d$$GT$..$u7b$$u7b$closure$u7d$$u7d$$GT$17h81b280d850a1cc89E
Ltmp371:
	jmp	LBB97_10
Ltmp390:
LBB97_8:
	.loc	29 2431 5
	movq	-24(%rbp), %rdi
	callq	__Unwind_Resume
Ltmp391:
LBB97_9:
Ltmp372:
	.loc	29 0 5 is_stmt 0
	movq	%rax, %rcx
	movl	%edx, %eax
	movq	%rcx, -24(%rbp)
	movl	%eax, -16(%rbp)
	jmp	LBB97_8
Ltmp392:
LBB97_10:
	.loc	29 2441 6 is_stmt 1
	addq	$96, %rsp
	popq	%rbp
	retq
Ltmp393:
LBB97_11:
	.loc	29 2438 13
	movb	$1, -41(%rbp)
Ltmp394:
	.loc	29 2437 9
	jmp	LBB97_1
Ltmp395:
LBB97_12:
Ltmp376:
	.loc	29 0 9 is_stmt 0
	movq	-88(%rbp), %rdi
	.loc	29 2441 5 is_stmt 1
	callq	__ZN4core3ptr495drop_in_place$LT$core..iter..adapters..map..map_fold$LT$$RF$u8$C$u8$C$$LP$$RP$$C$flate2..gz..GzBuilder..into_header..$u7b$$u7b$closure$u7d$$u7d$$C$core..iter..traits..iterator..Iterator..for_each..call$LT$u8$C$alloc..vec..Vec$LT$u8$GT$..extend_trusted$LT$core..iter..adapters..map..Map$LT$core..slice..iter..Iter$LT$u8$GT$$C$flate2..gz..GzBuilder..into_header..$u7b$$u7b$closure$u7d$$u7d$$GT$$GT$..$u7b$$u7b$closure$u7d$$u7d$$GT$..$u7b$$u7b$closure$u7d$$u7d$$GT$..$u7b$$u7b$closure$u7d$$u7d$$GT$17h81b280d850a1cc89E
Ltmp377:
	jmp	LBB97_8
Ltmp396:
LBB97_13:
	jmp	LBB97_12
Ltmp397:
LBB97_14:
Ltmp378:
	.loc	29 2431 5
	callq	__ZN4core9panicking19panic_cannot_unwind17h1fbca7e1d7f56ae1E
Ltmp398:
Lfunc_end97:
	.cfi_endproc
	.section	__TEXT,__gcc_except_tab
	.p2align	2
GCC_except_table97:
Lexception14:
	.byte	255
	.byte	255
	.byte	1
	.uleb128 Lcst_end14-Lcst_begin14
Lcst_begin14:
	.uleb128 Ltmp368-Lfunc_begin97
	.uleb128 Ltmp374-Ltmp368
	.uleb128 Ltmp375-Lfunc_begin97
	.byte	0
	.uleb128 Ltmp370-Lfunc_begin97
	.uleb128 Ltmp371-Ltmp370
	.uleb128 Ltmp372-Lfunc_begin97
	.byte	0
	.uleb128 Ltmp371-Lfunc_begin97
	.uleb128 Ltmp376-Ltmp371
	.byte	0
	.byte	0
	.uleb128 Ltmp376-Lfunc_begin97
	.uleb128 Ltmp377-Ltmp376
	.uleb128 Ltmp378-Lfunc_begin97
	.byte	0
Lcst_end14:
	.p2align	2

	.section	__TEXT,__text,regular,pure_instructions
	.globl	__ZN4core4iter6traits8iterator8Iterator4fold17hf449e33c3b3bdbb9E
	.p2align	4, 0x90
__ZN4core4iter6traits8iterator8Iterator4fold17hf449e33c3b3bdbb9E:
Lfunc_begin98:
	.loc	29 2431 0
	.cfi_startproc
	.cfi_personality 155, _rust_eh_personality
	.cfi_lsda 16, Lexception15
	pushq	%rbp
	.cfi_def_cfa_offset 16
	.cfi_offset %rbp, -16
	movq	%rsp, %rbp
	.cfi_def_cfa_register %rbp
	subq	$96, %rsp
	movq	%rdx, -88(%rbp)
Ltmp410:
	movq	%rdi, -80(%rbp)
	movq	%rsi, -72(%rbp)
Ltmp411:
	.loc	29 2436 25 prologue_end
	movb	$1, -41(%rbp)
Ltmp412:
LBB98_1:
Ltmp399:
	.loc	29 0 25 is_stmt 0
	leaq	-80(%rbp), %rdi
Ltmp413:
	.loc	29 2437 29 is_stmt 1
	callq	__ZN91_$LT$core..slice..iter..Iter$LT$T$GT$$u20$as$u20$core..iter..traits..iterator..Iterator$GT$4next17h63cfc4ed932084d7E
Ltmp400:
	movq	%rax, -96(%rbp)
	jmp	LBB98_4
Ltmp414:
LBB98_2:
	.loc	29 2441 5
	testb	$1, -41(%rbp)
	jne	LBB98_13
	jmp	LBB98_12
Ltmp415:
LBB98_3:
Ltmp406:
	.loc	29 0 5 is_stmt 0
	movq	%rax, %rcx
	movl	%edx, %eax
	movq	%rcx, -24(%rbp)
	movl	%eax, -16(%rbp)
	jmp	LBB98_2
Ltmp416:
LBB98_4:
	movq	-96(%rbp), %rax
Ltmp417:
	.loc	29 2437 29 is_stmt 1
	movq	%rax, -64(%rbp)
	.loc	29 2437 19 is_stmt 0
	movq	-64(%rbp), %rdx
	movl	$1, %eax
	xorl	%ecx, %ecx
	cmpq	$0, %rdx
	cmoveq	%rcx, %rax
	cmpq	$1, %rax
	jne	LBB98_6
Ltmp418:
	.loc	29 0 19
	movq	-88(%rbp), %rdi
	.loc	29 2437 24
	movq	-64(%rbp), %rax
	movq	%rax, -8(%rbp)
	.loc	29 2438 23 is_stmt 1
	movb	$0, -41(%rbp)
	.loc	29 2438 21 is_stmt 0
	movq	%rax, -56(%rbp)
	movq	-56(%rbp), %rsi
Ltmp404:
	callq	__ZN4core4iter8adapters3map8map_fold28_$u7b$$u7b$closure$u7d$$u7d$17hcca52ddec46fde42E
Ltmp405:
	jmp	LBB98_11
Ltmp419:
LBB98_6:
	.loc	29 2437 9 is_stmt 1
	jmp	LBB98_7
Ltmp420:
LBB98_7:
Ltmp401:
	.loc	29 0 9 is_stmt 0
	movq	-88(%rbp), %rdi
	.loc	29 2441 5 is_stmt 1
	callq	__ZN4core3ptr495drop_in_place$LT$core..iter..adapters..map..map_fold$LT$$RF$u8$C$u8$C$$LP$$RP$$C$flate2..gz..GzBuilder..into_header..$u7b$$u7b$closure$u7d$$u7d$$C$core..iter..traits..iterator..Iterator..for_each..call$LT$u8$C$alloc..vec..Vec$LT$u8$GT$..extend_trusted$LT$core..iter..adapters..map..Map$LT$core..slice..iter..Iter$LT$u8$GT$$C$flate2..gz..GzBuilder..into_header..$u7b$$u7b$closure$u7d$$u7d$$GT$$GT$..$u7b$$u7b$closure$u7d$$u7d$$GT$..$u7b$$u7b$closure$u7d$$u7d$$GT$..$u7b$$u7b$closure$u7d$$u7d$$GT$17h82efac9ad8ee2b5dE
Ltmp402:
	jmp	LBB98_10
Ltmp421:
LBB98_8:
	.loc	29 2431 5
	movq	-24(%rbp), %rdi
	callq	__Unwind_Resume
Ltmp422:
LBB98_9:
Ltmp403:
	.loc	29 0 5 is_stmt 0
	movq	%rax, %rcx
	movl	%edx, %eax
	movq	%rcx, -24(%rbp)
	movl	%eax, -16(%rbp)
	jmp	LBB98_8
Ltmp423:
LBB98_10:
	.loc	29 2441 6 is_stmt 1
	addq	$96, %rsp
	popq	%rbp
	retq
Ltmp424:
LBB98_11:
	.loc	29 2438 13
	movb	$1, -41(%rbp)
Ltmp425:
	.loc	29 2437 9
	jmp	LBB98_1
Ltmp426:
LBB98_12:
Ltmp407:
	.loc	29 0 9 is_stmt 0
	movq	-88(%rbp), %rdi
	.loc	29 2441 5 is_stmt 1
	callq	__ZN4core3ptr495drop_in_place$LT$core..iter..adapters..map..map_fold$LT$$RF$u8$C$u8$C$$LP$$RP$$C$flate2..gz..GzBuilder..into_header..$u7b$$u7b$closure$u7d$$u7d$$C$core..iter..traits..iterator..Iterator..for_each..call$LT$u8$C$alloc..vec..Vec$LT$u8$GT$..extend_trusted$LT$core..iter..adapters..map..Map$LT$core..slice..iter..Iter$LT$u8$GT$$C$flate2..gz..GzBuilder..into_header..$u7b$$u7b$closure$u7d$$u7d$$GT$$GT$..$u7b$$u7b$closure$u7d$$u7d$$GT$..$u7b$$u7b$closure$u7d$$u7d$$GT$..$u7b$$u7b$closure$u7d$$u7d$$GT$17h82efac9ad8ee2b5dE
Ltmp408:
	jmp	LBB98_8
Ltmp427:
LBB98_13:
	jmp	LBB98_12
Ltmp428:
LBB98_14:
Ltmp409:
	.loc	29 2431 5
	callq	__ZN4core9panicking19panic_cannot_unwind17h1fbca7e1d7f56ae1E
Ltmp429:
Lfunc_end98:
	.cfi_endproc
	.section	__TEXT,__gcc_except_tab
	.p2align	2
GCC_except_table98:
Lexception15:
	.byte	255
	.byte	255
	.byte	1
	.uleb128 Lcst_end15-Lcst_begin15
Lcst_begin15:
	.uleb128 Ltmp399-Lfunc_begin98
	.uleb128 Ltmp405-Ltmp399
	.uleb128 Ltmp406-Lfunc_begin98
	.byte	0
	.uleb128 Ltmp401-Lfunc_begin98
	.uleb128 Ltmp402-Ltmp401
	.uleb128 Ltmp403-Lfunc_begin98
	.byte	0
	.uleb128 Ltmp402-Lfunc_begin98
	.uleb128 Ltmp407-Ltmp402
	.byte	0
	.byte	0
	.uleb128 Ltmp407-Lfunc_begin98
	.uleb128 Ltmp408-Ltmp407
	.uleb128 Ltmp409-Lfunc_begin98
	.byte	0
Lcst_end15:
	.p2align	2

	.section	__TEXT,__text,regular,pure_instructions
	.globl	__ZN4core4iter6traits8iterator8Iterator8for_each17h5ba02e40254cc738E
	.p2align	4, 0x90
__ZN4core4iter6traits8iterator8Iterator8for_each17h5ba02e40254cc738E:
Lfunc_begin99:
	.loc	29 827 0
	.cfi_startproc
	.cfi_personality 155, _rust_eh_personality
	.cfi_lsda 16, Lexception16
	pushq	%rbp
	.cfi_def_cfa_offset 16
	.cfi_offset %rbp, -16
	movq	%rsp, %rbp
	.cfi_def_cfa_register %rbp
	subq	$80, %rsp
	movq	%rdi, -32(%rbp)
	movq	%rsi, -24(%rbp)
Ltmp433:
	.loc	29 837 28 prologue_end
	movq	16(%rdx), %rax
	movq	%rax, -40(%rbp)
	movq	(%rdx), %rax
	movq	8(%rdx), %rcx
	movq	%rcx, -48(%rbp)
	movq	%rax, -56(%rbp)
Ltmp434:
	.loc	29 834 13
	movq	-40(%rbp), %rax
	movq	%rax, -64(%rbp)
	movq	-56(%rbp), %rax
	movq	-48(%rbp), %rcx
	movq	%rcx, -72(%rbp)
	movq	%rax, -80(%rbp)
Ltmp430:
	leaq	-80(%rbp), %rdx
Ltmp435:
	.loc	29 837 9
	callq	__ZN102_$LT$core..iter..adapters..map..Map$LT$I$C$F$GT$$u20$as$u20$core..iter..traits..iterator..Iterator$GT$4fold17hce8e7374d217e4ecE
Ltmp431:
	jmp	LBB99_3
Ltmp436:
LBB99_1:
	.loc	29 837 30 is_stmt 0
	xorl	%eax, %eax
	testb	$1, %al
	jne	LBB99_5
	jmp	LBB99_4
Ltmp437:
LBB99_2:
Ltmp432:
	.loc	29 0 30
	movq	%rax, %rcx
	movl	%edx, %eax
	movq	%rcx, -16(%rbp)
	movl	%eax, -8(%rbp)
	jmp	LBB99_1
Ltmp438:
LBB99_3:
	.loc	29 838 6 is_stmt 1
	addq	$80, %rsp
	popq	%rbp
	retq
Ltmp439:
LBB99_4:
	.loc	29 827 5
	movq	-16(%rbp), %rdi
	callq	__Unwind_Resume
Ltmp440:
LBB99_5:
	.loc	29 837 30
	jmp	LBB99_4
Ltmp441:
Lfunc_end99:
	.cfi_endproc
	.section	__TEXT,__gcc_except_tab
	.p2align	2
GCC_except_table99:
Lexception16:
	.byte	255
	.byte	255
	.byte	1
	.uleb128 Lcst_end16-Lcst_begin16
Lcst_begin16:
	.uleb128 Ltmp430-Lfunc_begin99
	.uleb128 Ltmp431-Ltmp430
	.uleb128 Ltmp432-Lfunc_begin99
	.byte	0
	.uleb128 Ltmp431-Lfunc_begin99
	.uleb128 Lfunc_end99-Ltmp431
	.byte	0
	.byte	0
Lcst_end16:
	.p2align	2

	.section	__TEXT,__text,regular,pure_instructions
	.globl	__ZN4core4iter6traits8iterator8Iterator8for_each17hb2cca7c187f485f4E
	.p2align	4, 0x90
__ZN4core4iter6traits8iterator8Iterator8for_each17hb2cca7c187f485f4E:
Lfunc_begin100:
	.loc	29 827 0
	.cfi_startproc
	.cfi_personality 155, _rust_eh_personality
	.cfi_lsda 16, Lexception17
	pushq	%rbp
	.cfi_def_cfa_offset 16
	.cfi_offset %rbp, -16
	movq	%rsp, %rbp
	.cfi_def_cfa_register %rbp
	subq	$80, %rsp
	movq	%rdi, -32(%rbp)
	movq	%rsi, -24(%rbp)
Ltmp445:
	.loc	29 837 28 prologue_end
	movq	16(%rdx), %rax
	movq	%rax, -40(%rbp)
	movq	(%rdx), %rax
	movq	8(%rdx), %rcx
	movq	%rcx, -48(%rbp)
	movq	%rax, -56(%rbp)
Ltmp446:
	.loc	29 834 13
	movq	-40(%rbp), %rax
	movq	%rax, -64(%rbp)
	movq	-56(%rbp), %rax
	movq	-48(%rbp), %rcx
	movq	%rcx, -72(%rbp)
	movq	%rax, -80(%rbp)
Ltmp442:
	leaq	-80(%rbp), %rdx
Ltmp447:
	.loc	29 837 9
	callq	__ZN102_$LT$core..iter..adapters..map..Map$LT$I$C$F$GT$$u20$as$u20$core..iter..traits..iterator..Iterator$GT$4fold17h5ff019532e4d4654E
Ltmp443:
	jmp	LBB100_3
Ltmp448:
LBB100_1:
	.loc	29 837 30 is_stmt 0
	xorl	%eax, %eax
	testb	$1, %al
	jne	LBB100_5
	jmp	LBB100_4
Ltmp449:
LBB100_2:
Ltmp444:
	.loc	29 0 30
	movq	%rax, %rcx
	movl	%edx, %eax
	movq	%rcx, -16(%rbp)
	movl	%eax, -8(%rbp)
	jmp	LBB100_1
Ltmp450:
LBB100_3:
	.loc	29 838 6 is_stmt 1
	addq	$80, %rsp
	popq	%rbp
	retq
Ltmp451:
LBB100_4:
	.loc	29 827 5
	movq	-16(%rbp), %rdi
	callq	__Unwind_Resume
Ltmp452:
LBB100_5:
	.loc	29 837 30
	jmp	LBB100_4
Ltmp453:
Lfunc_end100:
	.cfi_endproc
	.section	__TEXT,__gcc_except_tab
	.p2align	2
GCC_except_table100:
Lexception17:
	.byte	255
	.byte	255
	.byte	1
	.uleb128 Lcst_end17-Lcst_begin17
Lcst_begin17:
	.uleb128 Ltmp442-Lfunc_begin100
	.uleb128 Ltmp443-Ltmp442
	.uleb128 Ltmp444-Lfunc_begin100
	.byte	0
	.uleb128 Ltmp443-Lfunc_begin100
	.uleb128 Lfunc_end100-Ltmp443
	.byte	0
	.byte	0
Lcst_end17:
	.p2align	2

	.section	__TEXT,__text,regular,pure_instructions
	.globl	__ZN4core4iter6traits8iterator8Iterator8for_each4call28_$u7b$$u7b$closure$u7d$$u7d$17h9787d77a71b1ecfeE
	.p2align	4, 0x90
__ZN4core4iter6traits8iterator8Iterator8for_each4call28_$u7b$$u7b$closure$u7d$$u7d$17h9787d77a71b1ecfeE:
Lfunc_begin101:
	.loc	29 834 0
	.cfi_startproc
	pushq	%rbp
	.cfi_def_cfa_offset 16
	.cfi_offset %rbp, -16
	movq	%rsp, %rbp
	.cfi_def_cfa_register %rbp
	subq	$32, %rsp
	movb	%sil, %al
	movq	%rdi, -16(%rbp)
	movb	%al, -1(%rbp)
Ltmp454:
	.loc	29 834 29 prologue_end
	movb	%al, -17(%rbp)
	movzbl	-17(%rbp), %esi
	callq	__ZN5alloc3vec16Vec$LT$T$C$A$GT$14extend_trusted28_$u7b$$u7b$closure$u7d$$u7d$17h3294d4f8bd23e7cfE
	.loc	29 834 36 is_stmt 0
	addq	$32, %rsp
	popq	%rbp
	retq
Ltmp455:
Lfunc_end101:
	.cfi_endproc

	.globl	__ZN4core4iter6traits8iterator8Iterator8for_each4call28_$u7b$$u7b$closure$u7d$$u7d$17hc7d99611d1948b04E
	.p2align	4, 0x90
__ZN4core4iter6traits8iterator8Iterator8for_each4call28_$u7b$$u7b$closure$u7d$$u7d$17hc7d99611d1948b04E:
Lfunc_begin102:
	.loc	29 834 0 is_stmt 1
	.cfi_startproc
	pushq	%rbp
	.cfi_def_cfa_offset 16
	.cfi_offset %rbp, -16
	movq	%rsp, %rbp
	.cfi_def_cfa_register %rbp
	subq	$32, %rsp
	movb	%sil, %al
	movq	%rdi, -16(%rbp)
	movb	%al, -1(%rbp)
Ltmp456:
	.loc	29 834 29 prologue_end
	movb	%al, -17(%rbp)
	movzbl	-17(%rbp), %esi
	callq	__ZN5alloc3vec16Vec$LT$T$C$A$GT$14extend_trusted28_$u7b$$u7b$closure$u7d$$u7d$17ha0b84341bb253073E
	.loc	29 834 36 is_stmt 0
	addq	$32, %rsp
	popq	%rbp
	retq
Ltmp457:
Lfunc_end102:
	.cfi_endproc

	.globl	__ZN4core4iter8adapters3map16Map$LT$I$C$F$GT$3new17h4894c864b67baeb3E
	.p2align	4, 0x90
__ZN4core4iter8adapters3map16Map$LT$I$C$F$GT$3new17h4894c864b67baeb3E:
Lfunc_begin103:
	.loc	3 68 0 is_stmt 1
	.cfi_startproc
	pushq	%rbp
	.cfi_def_cfa_offset 16
	.cfi_offset %rbp, -16
	movq	%rsp, %rbp
	.cfi_def_cfa_register %rbp
	subq	$40, %rsp
	movq	%rdi, -24(%rbp)
	movq	%rsi, -16(%rbp)
Ltmp458:
	.loc	3 69 9 prologue_end
	movq	%rdi, -40(%rbp)
	movq	%rsi, -32(%rbp)
	.loc	3 70 6
	movq	-40(%rbp), %rax
	movq	-32(%rbp), %rdx
	addq	$40, %rsp
	popq	%rbp
	retq
Ltmp459:
Lfunc_end103:
	.cfi_endproc

	.globl	__ZN4core4iter8adapters3map16Map$LT$I$C$F$GT$3new17hdf8ae8d219529cf8E
	.p2align	4, 0x90
__ZN4core4iter8adapters3map16Map$LT$I$C$F$GT$3new17hdf8ae8d219529cf8E:
Lfunc_begin104:
	.loc	3 68 0
	.cfi_startproc
	pushq	%rbp
	.cfi_def_cfa_offset 16
	.cfi_offset %rbp, -16
	movq	%rsp, %rbp
	.cfi_def_cfa_register %rbp
	subq	$40, %rsp
	movq	%rdi, -24(%rbp)
	movq	%rsi, -16(%rbp)
Ltmp460:
	.loc	3 69 9 prologue_end
	movq	%rdi, -40(%rbp)
	movq	%rsi, -32(%rbp)
	.loc	3 70 6
	movq	-40(%rbp), %rax
	movq	-32(%rbp), %rdx
	addq	$40, %rsp
	popq	%rbp
	retq
Ltmp461:
Lfunc_end104:
	.cfi_endproc

	.globl	__ZN4core4iter8adapters3map8map_fold17h03d487722147395eE
	.p2align	4, 0x90
__ZN4core4iter8adapters3map8map_fold17h03d487722147395eE:
Lfunc_begin105:
	.loc	3 80 0
	.cfi_startproc
	pushq	%rbp
	.cfi_def_cfa_offset 16
	.cfi_offset %rbp, -16
	movq	%rsp, %rbp
	.cfi_def_cfa_register %rbp
	pushq	%rax
	movq	%rdi, %rax
Ltmp462:
	.loc	3 84 5 prologue_end
	movq	(%rsi), %rcx
	movq	%rcx, (%rdi)
	movq	8(%rsi), %rcx
	movq	%rcx, 8(%rdi)
	movq	16(%rsi), %rcx
	movq	%rcx, 16(%rdi)
	.loc	3 85 2
	addq	$8, %rsp
	popq	%rbp
	retq
Ltmp463:
Lfunc_end105:
	.cfi_endproc

	.globl	__ZN4core4iter8adapters3map8map_fold17h7a2833a2b6d19191E
	.p2align	4, 0x90
__ZN4core4iter8adapters3map8map_fold17h7a2833a2b6d19191E:
Lfunc_begin106:
	.loc	3 80 0
	.cfi_startproc
	pushq	%rbp
	.cfi_def_cfa_offset 16
	.cfi_offset %rbp, -16
	movq	%rsp, %rbp
	.cfi_def_cfa_register %rbp
	pushq	%rax
	movq	%rdi, %rax
Ltmp464:
	.loc	3 84 5 prologue_end
	movq	(%rsi), %rcx
	movq	%rcx, (%rdi)
	movq	8(%rsi), %rcx
	movq	%rcx, 8(%rdi)
	movq	16(%rsi), %rcx
	movq	%rcx, 16(%rdi)
	.loc	3 85 2
	addq	$8, %rsp
	popq	%rbp
	retq
Ltmp465:
Lfunc_end106:
	.cfi_endproc

	.globl	__ZN4core4iter8adapters3map8map_fold28_$u7b$$u7b$closure$u7d$$u7d$17h0e0d994f91119539E
	.p2align	4, 0x90
__ZN4core4iter8adapters3map8map_fold28_$u7b$$u7b$closure$u7d$$u7d$17h0e0d994f91119539E:
Lfunc_begin107:
	.loc	3 84 0
	.cfi_startproc
	.cfi_personality 155, _rust_eh_personality
	.cfi_lsda 16, Lexception18
	pushq	%rbp
	.cfi_def_cfa_offset 16
	.cfi_offset %rbp, -16
	movq	%rsp, %rbp
	.cfi_def_cfa_register %rbp
	subq	$80, %rsp
	movq	%rdi, -72(%rbp)
	movq	%rdi, -40(%rbp)
	movq	%rsi, -24(%rbp)
Ltmp471:
	.loc	3 84 23 prologue_end
	movb	$1, -41(%rbp)
	.loc	3 84 28 is_stmt 0
	movq	%rsi, -56(%rbp)
	movq	-56(%rbp), %rsi
Ltmp466:
	callq	__ZN6flate22gz9GzBuilder11into_header28_$u7b$$u7b$closure$u7d$$u7d$17h918ecd25a356ddf8E
Ltmp467:
	movb	%al, -58(%rbp)
	jmp	LBB107_3
LBB107_1:
	.loc	3 84 34
	testb	$1, -41(%rbp)
	jne	LBB107_6
	jmp	LBB107_5
LBB107_2:
Ltmp470:
	.loc	3 0 34
	movq	%rax, %rcx
	movl	%edx, %eax
	movq	%rcx, -16(%rbp)
	movl	%eax, -8(%rbp)
	jmp	LBB107_1
LBB107_3:
	movq	-72(%rbp), %rdi
	movb	-58(%rbp), %al
	.loc	3 84 21
	movb	$0, -41(%rbp)
	movb	%al, -57(%rbp)
	movzbl	-57(%rbp), %esi
Ltmp468:
	callq	__ZN4core4iter6traits8iterator8Iterator8for_each4call28_$u7b$$u7b$closure$u7d$$u7d$17h9787d77a71b1ecfeE
Ltmp469:
	jmp	LBB107_4
LBB107_4:
	.loc	3 84 35
	addq	$80, %rsp
	popq	%rbp
	retq
LBB107_5:
	.loc	3 84 5
	movq	-16(%rbp), %rdi
	callq	__Unwind_Resume
LBB107_6:
	.loc	3 84 34
	jmp	LBB107_5
Ltmp472:
Lfunc_end107:
	.cfi_endproc
	.section	__TEXT,__gcc_except_tab
	.p2align	2
GCC_except_table107:
Lexception18:
	.byte	255
	.byte	255
	.byte	1
	.uleb128 Lcst_end18-Lcst_begin18
Lcst_begin18:
	.uleb128 Ltmp466-Lfunc_begin107
	.uleb128 Ltmp469-Ltmp466
	.uleb128 Ltmp470-Lfunc_begin107
	.byte	0
	.uleb128 Ltmp469-Lfunc_begin107
	.uleb128 Lfunc_end107-Ltmp469
	.byte	0
	.byte	0
Lcst_end18:
	.p2align	2

	.section	__TEXT,__text,regular,pure_instructions
	.globl	__ZN4core4iter8adapters3map8map_fold28_$u7b$$u7b$closure$u7d$$u7d$17hcca52ddec46fde42E
	.p2align	4, 0x90
__ZN4core4iter8adapters3map8map_fold28_$u7b$$u7b$closure$u7d$$u7d$17hcca52ddec46fde42E:
Lfunc_begin108:
	.loc	3 84 0 is_stmt 1
	.cfi_startproc
	.cfi_personality 155, _rust_eh_personality
	.cfi_lsda 16, Lexception19
	pushq	%rbp
	.cfi_def_cfa_offset 16
	.cfi_offset %rbp, -16
	movq	%rsp, %rbp
	.cfi_def_cfa_register %rbp
	subq	$80, %rsp
	movq	%rdi, -72(%rbp)
	movq	%rdi, -40(%rbp)
	movq	%rsi, -24(%rbp)
Ltmp478:
	.loc	3 84 23 prologue_end
	movb	$1, -41(%rbp)
	.loc	3 84 28 is_stmt 0
	movq	%rsi, -56(%rbp)
	movq	-56(%rbp), %rsi
Ltmp473:
	callq	__ZN6flate22gz9GzBuilder11into_header28_$u7b$$u7b$closure$u7d$$u7d$17hb9de228fe38e63b4E
Ltmp474:
	movb	%al, -58(%rbp)
	jmp	LBB108_3
LBB108_1:
	.loc	3 84 34
	testb	$1, -41(%rbp)
	jne	LBB108_6
	jmp	LBB108_5
LBB108_2:
Ltmp477:
	.loc	3 0 34
	movq	%rax, %rcx
	movl	%edx, %eax
	movq	%rcx, -16(%rbp)
	movl	%eax, -8(%rbp)
	jmp	LBB108_1
LBB108_3:
	movq	-72(%rbp), %rdi
	movb	-58(%rbp), %al
	.loc	3 84 21
	movb	$0, -41(%rbp)
	movb	%al, -57(%rbp)
	movzbl	-57(%rbp), %esi
Ltmp475:
	callq	__ZN4core4iter6traits8iterator8Iterator8for_each4call28_$u7b$$u7b$closure$u7d$$u7d$17hc7d99611d1948b04E
Ltmp476:
	jmp	LBB108_4
LBB108_4:
	.loc	3 84 35
	addq	$80, %rsp
	popq	%rbp
	retq
LBB108_5:
	.loc	3 84 5
	movq	-16(%rbp), %rdi
	callq	__Unwind_Resume
LBB108_6:
	.loc	3 84 34
	jmp	LBB108_5
Ltmp479:
Lfunc_end108:
	.cfi_endproc
	.section	__TEXT,__gcc_except_tab
	.p2align	2
GCC_except_table108:
Lexception19:
	.byte	255
	.byte	255
	.byte	1
	.uleb128 Lcst_end19-Lcst_begin19
Lcst_begin19:
	.uleb128 Ltmp473-Lfunc_begin108
	.uleb128 Ltmp476-Ltmp473
	.uleb128 Ltmp477-Lfunc_begin108
	.byte	0
	.uleb128 Ltmp476-Lfunc_begin108
	.uleb128 Lfunc_end108-Ltmp476
	.byte	0
	.byte	0
Lcst_end19:
	.p2align	2

	.section	__TEXT,__text,regular,pure_instructions
	.globl	__ZN4core4iter8adapters3zip16Zip$LT$A$C$B$GT$3new17hc8f247209810fb1fE
	.p2align	4, 0x90
__ZN4core4iter8adapters3zip16Zip$LT$A$C$B$GT$3new17hc8f247209810fb1fE:
Lfunc_begin109:
	.loc	4 22 0 is_stmt 1
	.cfi_startproc
	pushq	%rbp
	.cfi_def_cfa_offset 16
	.cfi_offset %rbp, -16
	movq	%rsp, %rbp
	.cfi_def_cfa_register %rbp
	subq	$48, %rsp
	movq	%rdi, %rax
	movq	%rax, -40(%rbp)
	movq	%rsi, -32(%rbp)
	movq	%rdx, -24(%rbp)
	movq	%rcx, -16(%rbp)
	movq	%r8, -8(%rbp)
Ltmp480:
	.loc	4 23 9 prologue_end
	callq	__ZN111_$LT$core..iter..adapters..zip..Zip$LT$A$C$B$GT$$u20$as$u20$core..iter..adapters..zip..ZipImpl$LT$A$C$B$GT$$GT$3new17hf05150d4287218cfE
	movq	-40(%rbp), %rax
	.loc	4 24 6
	addq	$48, %rsp
	popq	%rbp
	retq
Ltmp481:
Lfunc_end109:
	.cfi_endproc

	.globl	__ZN4core4iter8adapters3zip27TrustedRandomAccessNoCoerce4size17h17c1b5e10b566167E
	.p2align	4, 0x90
__ZN4core4iter8adapters3zip27TrustedRandomAccessNoCoerce4size17h17c1b5e10b566167E:
Lfunc_begin110:
	.loc	4 538 0
	.cfi_startproc
	pushq	%rbp
	.cfi_def_cfa_offset 16
	.cfi_offset %rbp, -16
	movq	%rsp, %rbp
	.cfi_def_cfa_register %rbp
	subq	$32, %rsp
	movq	%rdi, %rsi
	movq	%rsi, -8(%rbp)
Ltmp482:
	.loc	4 542 9 prologue_end
	leaq	-32(%rbp), %rdi
	callq	__ZN94_$LT$core..slice..iter..IterMut$LT$T$GT$$u20$as$u20$core..iter..traits..iterator..Iterator$GT$9size_hint17hcf9505d0fac8cb8fE
	movq	-32(%rbp), %rax
	.loc	4 543 6
	addq	$32, %rsp
	popq	%rbp
	retq
Ltmp483:
Lfunc_end110:
	.cfi_endproc

	.globl	__ZN4core4iter8adapters3zip27TrustedRandomAccessNoCoerce4size17h5aee078de7cf220fE
	.p2align	4, 0x90
__ZN4core4iter8adapters3zip27TrustedRandomAccessNoCoerce4size17h5aee078de7cf220fE:
Lfunc_begin111:
	.loc	4 538 0
	.cfi_startproc
	pushq	%rbp
	.cfi_def_cfa_offset 16
	.cfi_offset %rbp, -16
	movq	%rsp, %rbp
	.cfi_def_cfa_register %rbp
	subq	$32, %rsp
	movq	%rdi, %rsi
	movq	%rsi, -8(%rbp)
Ltmp484:
	.loc	4 542 9 prologue_end
	leaq	-32(%rbp), %rdi
	callq	__ZN91_$LT$core..slice..iter..Iter$LT$T$GT$$u20$as$u20$core..iter..traits..iterator..Iterator$GT$9size_hint17h51ca7f77d2e7144cE
	movq	-32(%rbp), %rax
	.loc	4 543 6
	addq	$32, %rsp
	popq	%rbp
	retq
Ltmp485:
Lfunc_end111:
	.cfi_endproc

	.p2align	4, 0x90
__ZN4core4time8Duration3new17h430979795ffb287dE:
Lfunc_begin112:
	.file	30 "/rustc/2c8cc343237b8f7d5a3c3703e3a87f2eb2c54a74/library/core/src" "time.rs"
	.loc	30 199 0
	.cfi_startproc
	pushq	%rbp
	.cfi_def_cfa_offset 16
	.cfi_offset %rbp, -16
	movq	%rsp, %rbp
	.cfi_def_cfa_register %rbp
	subq	$144, %rsp
	movl	%esi, -132(%rbp)
	movq	%rdi, -40(%rbp)
	movl	%esi, -28(%rbp)
Ltmp486:
	.loc	30 200 43 prologue_end
	shrl	$9, %esi
	movl	%esi, %eax
	imulq	$281475, %rax, %rsi
	shrq	$39, %rsi
	.loc	30 200 26 is_stmt 0
	callq	__ZN4core3num21_$LT$impl$u20$u64$GT$11checked_add17h48fc9f201fc9c409E
	movq	%rdx, -104(%rbp)
	movq	%rax, -112(%rbp)
	.loc	30 200 20
	cmpq	$0, -112(%rbp)
	jne	LBB112_2
	.loc	30 202 21 is_stmt 1
	leaq	l___unnamed_33(%rip), %rsi
	leaq	l___unnamed_28(%rip), %rcx
	xorl	%eax, %eax
	movl	%eax, %r8d
	leaq	-96(%rbp), %rdi
	movq	%rdi, -144(%rbp)
	movl	$1, %edx
	callq	__ZN4core3fmt9Arguments6new_v117hb53b1d19cf10d3f3E
	movq	-144(%rbp), %rdi
	leaq	l___unnamed_34(%rip), %rsi
	callq	__ZN4core9panicking9panic_fmt17h9b5d807e24bcaaedE
LBB112_2:
	.loc	30 0 21 is_stmt 0
	movl	-132(%rbp), %ecx
	.loc	30 201 18 is_stmt 1
	movq	-104(%rbp), %rax
	movq	%rax, -24(%rbp)
Ltmp487:
	.loc	30 201 27 is_stmt 0
	movq	%rax, -16(%rbp)
Ltmp488:
	.loc	30 204 21 is_stmt 1
	movl	%ecx, %edx
	shrl	$9, %edx
	imulq	$281475, %rdx, %rdx
	shrq	$39, %rdx
	imull	$1000000000, %edx, %edx
	subl	%edx, %ecx
	movl	%ecx, -4(%rbp)
Ltmp489:
	.loc	30 206 42
	movl	%ecx, -44(%rbp)
	.loc	30 206 9 is_stmt 0
	movq	%rax, -128(%rbp)
	movl	-44(%rbp), %eax
	movl	%eax, -120(%rbp)
Ltmp490:
	.loc	30 207 6 is_stmt 1
	movq	-128(%rbp), %rax
	movl	-120(%rbp), %edx
	addq	$144, %rsp
	popq	%rbp
	retq
Ltmp491:
Lfunc_end112:
	.cfi_endproc

	.globl	__ZN4core5array69_$LT$impl$u20$core..fmt..Debug$u20$for$u20$$u5b$T$u3b$$u20$N$u5d$$GT$3fmt17h7702644aa48a291bE
	.p2align	4, 0x90
__ZN4core5array69_$LT$impl$u20$core..fmt..Debug$u20$for$u20$$u5b$T$u3b$$u20$N$u5d$$GT$3fmt17h7702644aa48a291bE:
Lfunc_begin113:
	.file	31 "/rustc/2c8cc343237b8f7d5a3c3703e3a87f2eb2c54a74/library/core/src/array" "mod.rs"
	.loc	31 323 0
	.cfi_startproc
	pushq	%rbp
	.cfi_def_cfa_offset 16
	.cfi_offset %rbp, -16
	movq	%rsp, %rbp
	.cfi_def_cfa_register %rbp
	subq	$80, %rsp
	movq	%rsi, -80(%rbp)
	movq	%rdi, -56(%rbp)
	movq	%rsi, -48(%rbp)
Ltmp492:
	.loc	31 324 27 prologue_end
	movq	%rdi, -24(%rbp)
Ltmp493:
	.loc	31 358 22
	movq	%rdi, -16(%rbp)
	movq	$8, -8(%rbp)
Ltmp494:
	.file	32 "/rustc/2c8cc343237b8f7d5a3c3703e3a87f2eb2c54a74/library/core/src/slice" "index.rs"
	.loc	32 18 9
	movl	$8, %esi
	leaq	l___unnamed_35(%rip), %rdx
	callq	__ZN97_$LT$core..ops..range..RangeFull$u20$as$u20$core..slice..index..SliceIndex$LT$$u5b$T$u5d$$GT$$GT$5index17he6406894a655e26cE
	movq	-80(%rbp), %rsi
Ltmp495:
	.loc	31 324 26
	movq	%rax, -72(%rbp)
	movq	%rdx, -64(%rbp)
	.loc	31 324 9 is_stmt 0
	leaq	-72(%rbp), %rdi
	callq	__ZN42_$LT$$RF$T$u20$as$u20$core..fmt..Debug$GT$3fmt17h62db1c3c4dbcbcf7E
	.loc	31 325 6 is_stmt 1
	andb	$1, %al
	movzbl	%al, %eax
	addq	$80, %rsp
	popq	%rbp
	retq
Ltmp496:
Lfunc_end113:
	.cfi_endproc

	.globl	__ZN4core5error5Error11description17h09eff028d315735dE
	.p2align	4, 0x90
__ZN4core5error5Error11description17h09eff028d315735dE:
Lfunc_begin114:
	.file	33 "/rustc/2c8cc343237b8f7d5a3c3703e3a87f2eb2c54a74/library/core/src" "error.rs"
	.loc	33 109 0
	.cfi_startproc
	pushq	%rbp
	.cfi_def_cfa_offset 16
	.cfi_offset %rbp, -16
	movq	%rsp, %rbp
	.cfi_def_cfa_register %rbp
	pushq	%rax
	movq	%rdi, -8(%rbp)
Ltmp497:
	.loc	33 111 6 prologue_end
	leaq	l___unnamed_36(%rip), %rax
	movl	$40, %edx
	addq	$8, %rsp
	popq	%rbp
	retq
Ltmp498:
Lfunc_end114:
	.cfi_endproc

	.globl	__ZN4core5error5Error11description17hda218b0859905c14E
	.p2align	4, 0x90
__ZN4core5error5Error11description17hda218b0859905c14E:
Lfunc_begin115:
	.loc	33 109 0
	.cfi_startproc
	pushq	%rbp
	.cfi_def_cfa_offset 16
	.cfi_offset %rbp, -16
	movq	%rsp, %rbp
	.cfi_def_cfa_register %rbp
	pushq	%rax
	movq	%rdi, -8(%rbp)
Ltmp499:
	.loc	33 111 6 prologue_end
	leaq	l___unnamed_36(%rip), %rax
	movl	$40, %edx
	addq	$8, %rsp
	popq	%rbp
	retq
Ltmp500:
Lfunc_end115:
	.cfi_endproc

	.globl	__ZN4core5error5Error5cause17h7115dcfb751549a2E
	.p2align	4, 0x90
__ZN4core5error5Error5cause17h7115dcfb751549a2E:
Lfunc_begin116:
	.loc	33 119 0
	.cfi_startproc
	pushq	%rbp
	.cfi_def_cfa_offset 16
	.cfi_offset %rbp, -16
	movq	%rsp, %rbp
	.cfi_def_cfa_register %rbp
	subq	$16, %rsp
	movq	%rdi, -8(%rbp)
Ltmp501:
	.loc	33 120 9 prologue_end
	callq	__ZN4core5error5Error6source17hc524e1adbe46e36bE
	.loc	33 121 6
	addq	$16, %rsp
	popq	%rbp
	retq
Ltmp502:
Lfunc_end116:
	.cfi_endproc

	.globl	__ZN4core5error5Error5cause17he0a40d7460a4e065E
	.p2align	4, 0x90
__ZN4core5error5Error5cause17he0a40d7460a4e065E:
Lfunc_begin117:
	.loc	33 119 0
	.cfi_startproc
	pushq	%rbp
	.cfi_def_cfa_offset 16
	.cfi_offset %rbp, -16
	movq	%rsp, %rbp
	.cfi_def_cfa_register %rbp
	subq	$16, %rsp
	movq	%rdi, -8(%rbp)
Ltmp503:
	.loc	33 120 9 prologue_end
	callq	__ZN4core5error5Error6source17h4813c6edec3936b2E
	.loc	33 121 6
	addq	$16, %rsp
	popq	%rbp
	retq
Ltmp504:
Lfunc_end117:
	.cfi_endproc

	.globl	__ZN4core5error5Error5cause17hf9dc4483232af4acE
	.p2align	4, 0x90
__ZN4core5error5Error5cause17hf9dc4483232af4acE:
Lfunc_begin118:
	.loc	33 119 0
	.cfi_startproc
	pushq	%rbp
	.cfi_def_cfa_offset 16
	.cfi_offset %rbp, -16
	movq	%rsp, %rbp
	.cfi_def_cfa_register %rbp
	subq	$16, %rsp
	movq	%rdi, -8(%rbp)
Ltmp505:
	.loc	33 120 9 prologue_end
	callq	__ZN4core5error5Error6source17h77de4e6b669d67e0E
	.loc	33 121 6
	addq	$16, %rsp
	popq	%rbp
	retq
Ltmp506:
Lfunc_end118:
	.cfi_endproc

	.globl	__ZN4core5error5Error6source17h4813c6edec3936b2E
	.p2align	4, 0x90
__ZN4core5error5Error6source17h4813c6edec3936b2E:
Lfunc_begin119:
	.loc	33 83 0
	.cfi_startproc
	pushq	%rbp
	.cfi_def_cfa_offset 16
	.cfi_offset %rbp, -16
	movq	%rsp, %rbp
	.cfi_def_cfa_register %rbp
	subq	$24, %rsp
	movq	%rdi, -8(%rbp)
Ltmp507:
	.loc	33 84 9 prologue_end
	movq	$0, -24(%rbp)
	.loc	33 85 6
	movq	-24(%rbp), %rax
	movq	-16(%rbp), %rdx
	addq	$24, %rsp
	popq	%rbp
	retq
Ltmp508:
Lfunc_end119:
	.cfi_endproc

	.globl	__ZN4core5error5Error6source17h77de4e6b669d67e0E
	.p2align	4, 0x90
__ZN4core5error5Error6source17h77de4e6b669d67e0E:
Lfunc_begin120:
	.loc	33 83 0
	.cfi_startproc
	pushq	%rbp
	.cfi_def_cfa_offset 16
	.cfi_offset %rbp, -16
	movq	%rsp, %rbp
	.cfi_def_cfa_register %rbp
	subq	$24, %rsp
	movq	%rdi, -8(%rbp)
Ltmp509:
	.loc	33 84 9 prologue_end
	movq	$0, -24(%rbp)
	.loc	33 85 6
	movq	-24(%rbp), %rax
	movq	-16(%rbp), %rdx
	addq	$24, %rsp
	popq	%rbp
	retq
Ltmp510:
Lfunc_end120:
	.cfi_endproc

	.globl	__ZN4core5error5Error6source17hc524e1adbe46e36bE
	.p2align	4, 0x90
__ZN4core5error5Error6source17hc524e1adbe46e36bE:
Lfunc_begin121:
	.loc	33 83 0
	.cfi_startproc
	pushq	%rbp
	.cfi_def_cfa_offset 16
	.cfi_offset %rbp, -16
	movq	%rsp, %rbp
	.cfi_def_cfa_register %rbp
	subq	$24, %rsp
	movq	%rdi, -8(%rbp)
Ltmp511:
	.loc	33 84 9 prologue_end
	movq	$0, -24(%rbp)
	.loc	33 85 6
	movq	-24(%rbp), %rax
	movq	-16(%rbp), %rdx
	addq	$24, %rsp
	popq	%rbp
	retq
Ltmp512:
Lfunc_end121:
	.cfi_endproc

	.globl	__ZN4core5error5Error7provide17h1f300ea70ad98057E
	.p2align	4, 0x90
__ZN4core5error5Error7provide17h1f300ea70ad98057E:
Lfunc_begin122:
	.loc	33 193 0
	.cfi_startproc
	pushq	%rbp
	.cfi_def_cfa_offset 16
	.cfi_offset %rbp, -16
	movq	%rsp, %rbp
	.cfi_def_cfa_register %rbp
	subq	$24, %rsp
	movq	%rdi, -24(%rbp)
	movq	%rsi, -16(%rbp)
	movq	%rdx, -8(%rbp)
Ltmp513:
	.loc	33 193 57 prologue_end
	addq	$24, %rsp
	popq	%rbp
	retq
Ltmp514:
Lfunc_end122:
	.cfi_endproc

	.globl	__ZN4core5error5Error7provide17h2244e87ddfbbe647E
	.p2align	4, 0x90
__ZN4core5error5Error7provide17h2244e87ddfbbe647E:
Lfunc_begin123:
	.loc	33 193 0
	.cfi_startproc
	pushq	%rbp
	.cfi_def_cfa_offset 16
	.cfi_offset %rbp, -16
	movq	%rsp, %rbp
	.cfi_def_cfa_register %rbp
	subq	$24, %rsp
	movq	%rdi, -24(%rbp)
	movq	%rsi, -16(%rbp)
	movq	%rdx, -8(%rbp)
Ltmp515:
	.loc	33 193 57 prologue_end
	addq	$24, %rsp
	popq	%rbp
	retq
Ltmp516:
Lfunc_end123:
	.cfi_endproc

	.globl	__ZN4core5error5Error7provide17ha0b649c23f72c6f5E
	.p2align	4, 0x90
__ZN4core5error5Error7provide17ha0b649c23f72c6f5E:
Lfunc_begin124:
	.loc	33 193 0
	.cfi_startproc
	pushq	%rbp
	.cfi_def_cfa_offset 16
	.cfi_offset %rbp, -16
	movq	%rsp, %rbp
	.cfi_def_cfa_register %rbp
	subq	$24, %rsp
	movq	%rdi, -24(%rbp)
	movq	%rsi, -16(%rbp)
	movq	%rdx, -8(%rbp)
Ltmp517:
	.loc	33 193 57 prologue_end
	addq	$24, %rsp
	popq	%rbp
	retq
Ltmp518:
Lfunc_end124:
	.cfi_endproc

	.globl	__ZN4core5error5Error7type_id17h20146dbc9a34b4b2E
	.p2align	4, 0x90
__ZN4core5error5Error7type_id17h20146dbc9a34b4b2E:
Lfunc_begin125:
	.loc	33 94 0
	.cfi_startproc
	pushq	%rbp
	.cfi_def_cfa_offset 16
	.cfi_offset %rbp, -16
	movq	%rsp, %rbp
	.cfi_def_cfa_register %rbp
	subq	$16, %rsp
	movq	%rdi, -16(%rbp)
Ltmp519:
	.loc	33 98 9 prologue_end
	callq	__ZN4core3any6TypeId2of17h258ad1891560b64fE
	.loc	33 99 6
	addq	$16, %rsp
	popq	%rbp
	retq
Ltmp520:
Lfunc_end125:
	.cfi_endproc

	.globl	__ZN4core5error5Error7type_id17h4a9b377d4fc9c56aE
	.p2align	4, 0x90
__ZN4core5error5Error7type_id17h4a9b377d4fc9c56aE:
Lfunc_begin126:
	.loc	33 94 0
	.cfi_startproc
	pushq	%rbp
	.cfi_def_cfa_offset 16
	.cfi_offset %rbp, -16
	movq	%rsp, %rbp
	.cfi_def_cfa_register %rbp
	subq	$16, %rsp
	movq	%rdi, -16(%rbp)
Ltmp521:
	.loc	33 98 9 prologue_end
	callq	__ZN4core3any6TypeId2of17h81282e75a13512c0E
	.loc	33 99 6
	addq	$16, %rsp
	popq	%rbp
	retq
Ltmp522:
Lfunc_end126:
	.cfi_endproc

	.globl	__ZN4core5error5Error7type_id17hf4062f0cbe2c5c25E
	.p2align	4, 0x90
__ZN4core5error5Error7type_id17hf4062f0cbe2c5c25E:
Lfunc_begin127:
	.loc	33 94 0
	.cfi_startproc
	pushq	%rbp
	.cfi_def_cfa_offset 16
	.cfi_offset %rbp, -16
	movq	%rsp, %rbp
	.cfi_def_cfa_register %rbp
	subq	$16, %rsp
	movq	%rdi, -16(%rbp)
Ltmp523:
	.loc	33 98 9 prologue_end
	callq	__ZN4core3any6TypeId2of17h44e082e74c8b7a42E
	.loc	33 99 6
	addq	$16, %rsp
	popq	%rbp
	retq
Ltmp524:
Lfunc_end127:
	.cfi_endproc

	.globl	__ZN4core5slice29_$LT$impl$u20$$u5b$T$u5d$$GT$8iter_mut17hb589ab311e1d6e4dE
	.p2align	4, 0x90
__ZN4core5slice29_$LT$impl$u20$$u5b$T$u5d$$GT$8iter_mut17hb589ab311e1d6e4dE:
Lfunc_begin128:
	.loc	22 760 0
	.cfi_startproc
	pushq	%rbp
	.cfi_def_cfa_offset 16
	.cfi_offset %rbp, -16
	movq	%rsp, %rbp
	.cfi_def_cfa_register %rbp
	subq	$16, %rsp
	movq	%rdi, -16(%rbp)
	movq	%rsi, -8(%rbp)
Ltmp525:
	.loc	22 761 9 prologue_end
	callq	__ZN4core5slice4iter16IterMut$LT$T$GT$3new17hbf978d39c49c4b20E
	.loc	22 762 6
	addq	$16, %rsp
	popq	%rbp
	retq
Ltmp526:
Lfunc_end128:
	.cfi_endproc

	.globl	__ZN4core5slice3raw18from_raw_parts_mut17h0072a9bd34e1de52E
	.p2align	4, 0x90
__ZN4core5slice3raw18from_raw_parts_mut17h0072a9bd34e1de52E:
Lfunc_begin129:
	.file	34 "/rustc/2c8cc343237b8f7d5a3c3703e3a87f2eb2c54a74/library/core/src/slice" "raw.rs"
	.loc	34 137 0
	.cfi_startproc
	pushq	%rbp
	.cfi_def_cfa_offset 16
	.cfi_offset %rbp, -16
	movq	%rsp, %rbp
	.cfi_def_cfa_register %rbp
	subq	$88, %rsp
	movq	%rdi, -56(%rbp)
	movq	%rsi, -48(%rbp)
Ltmp527:
	.loc	34 145 45 prologue_end
	movq	%rdi, -40(%rbp)
	.loc	34 145 51 is_stmt 0
	movq	%rsi, -32(%rbp)
Ltmp528:
	.loc	16 766 24 is_stmt 1
	movq	%rdi, -24(%rbp)
Ltmp529:
	.file	35 "/rustc/2c8cc343237b8f7d5a3c3703e3a87f2eb2c54a74/library/core/src/ptr" "mut_ptr.rs"
	.loc	35 60 9
	movq	%rdi, -16(%rbp)
Ltmp530:
	.loc	16 766 37
	movq	%rsi, -8(%rbp)
Ltmp531:
	.file	36 "/rustc/2c8cc343237b8f7d5a3c3703e3a87f2eb2c54a74/library/core/src/ptr" "metadata.rs"
	.loc	36 135 36
	movq	%rdi, -72(%rbp)
	movq	%rsi, -64(%rbp)
	.loc	36 135 14 is_stmt 0
	movq	-72(%rbp), %rcx
	movq	-64(%rbp), %rax
	movq	%rcx, -88(%rbp)
	movq	%rax, -80(%rbp)
	movq	-88(%rbp), %rax
	movq	-80(%rbp), %rdx
Ltmp532:
	.loc	34 147 2 is_stmt 1
	addq	$88, %rsp
	popq	%rbp
	retq
Ltmp533:
Lfunc_end129:
	.cfi_endproc

	.globl	__ZN4core6option15Option$LT$T$GT$3map17h07bc6fdc51db2211E
	.p2align	4, 0x90
__ZN4core6option15Option$LT$T$GT$3map17h07bc6fdc51db2211E:
Lfunc_begin130:
	.loc	27 964 0
	.cfi_startproc
	pushq	%rbp
	.cfi_def_cfa_offset 16
	.cfi_offset %rbp, -16
	movq	%rsp, %rbp
	.cfi_def_cfa_register %rbp
	subq	$64, %rsp
	movq	%rdi, -56(%rbp)
Ltmp534:
	.loc	27 969 15 prologue_end
	movb	$1, -17(%rbp)
	movq	-56(%rbp), %rdx
	movl	$1, %eax
	xorl	%ecx, %ecx
	cmpq	$0, %rdx
	cmoveq	%rcx, %rax
	.loc	27 969 9 is_stmt 0
	cmpq	$0, %rax
	jne	LBB130_2
	.loc	27 971 21 is_stmt 1
	movq	$0, -48(%rbp)
	jmp	LBB130_3
LBB130_2:
	.loc	27 970 18
	movq	-56(%rbp), %rax
	movq	%rax, -8(%rbp)
Ltmp535:
	.loc	27 970 29 is_stmt 0
	movb	$0, -17(%rbp)
	movq	%rax, -32(%rbp)
	movq	-32(%rbp), %rdi
	callq	__ZN6flate22gz8GzHeader7comment28_$u7b$$u7b$closure$u7d$$u7d$17h4597169c78e124cfE
	.loc	27 970 24
	movq	%rax, -48(%rbp)
	movq	%rdx, -40(%rbp)
Ltmp536:
LBB130_3:
	.loc	27 973 5 is_stmt 1
	testb	$1, -17(%rbp)
	jne	LBB130_5
LBB130_4:
	.loc	27 973 6 is_stmt 0
	movq	-48(%rbp), %rax
	movq	-40(%rbp), %rdx
	addq	$64, %rsp
	popq	%rbp
	retq
LBB130_5:
	.loc	27 973 5
	jmp	LBB130_4
Ltmp537:
Lfunc_end130:
	.cfi_endproc

	.globl	__ZN4core6option15Option$LT$T$GT$3map17hb069ac68433daf65E
	.p2align	4, 0x90
__ZN4core6option15Option$LT$T$GT$3map17hb069ac68433daf65E:
Lfunc_begin131:
	.loc	27 964 0 is_stmt 1
	.cfi_startproc
	pushq	%rbp
	.cfi_def_cfa_offset 16
	.cfi_offset %rbp, -16
	movq	%rsp, %rbp
	.cfi_def_cfa_register %rbp
	subq	$64, %rsp
	movq	%rdi, -56(%rbp)
Ltmp538:
	.loc	27 969 15 prologue_end
	movb	$1, -17(%rbp)
	movq	-56(%rbp), %rdx
	movl	$1, %eax
	xorl	%ecx, %ecx
	cmpq	$0, %rdx
	cmoveq	%rcx, %rax
	.loc	27 969 9 is_stmt 0
	cmpq	$0, %rax
	jne	LBB131_2
	.loc	27 971 21 is_stmt 1
	movq	$0, -48(%rbp)
	jmp	LBB131_3
LBB131_2:
	.loc	27 970 18
	movq	-56(%rbp), %rax
	movq	%rax, -8(%rbp)
Ltmp539:
	.loc	27 970 29 is_stmt 0
	movb	$0, -17(%rbp)
	movq	%rax, -32(%rbp)
	movq	-32(%rbp), %rdi
	callq	__ZN6flate22gz8GzHeader5extra28_$u7b$$u7b$closure$u7d$$u7d$17h261915d75b219d99E
	.loc	27 970 24
	movq	%rax, -48(%rbp)
	movq	%rdx, -40(%rbp)
Ltmp540:
LBB131_3:
	.loc	27 973 5 is_stmt 1
	testb	$1, -17(%rbp)
	jne	LBB131_5
LBB131_4:
	.loc	27 973 6 is_stmt 0
	movq	-48(%rbp), %rax
	movq	-40(%rbp), %rdx
	addq	$64, %rsp
	popq	%rbp
	retq
LBB131_5:
	.loc	27 973 5
	jmp	LBB131_4
Ltmp541:
Lfunc_end131:
	.cfi_endproc

	.globl	__ZN4core6option15Option$LT$T$GT$3map17hf915a610c6e0ca1eE
	.p2align	4, 0x90
__ZN4core6option15Option$LT$T$GT$3map17hf915a610c6e0ca1eE:
Lfunc_begin132:
	.loc	27 964 0 is_stmt 1
	.cfi_startproc
	pushq	%rbp
	.cfi_def_cfa_offset 16
	.cfi_offset %rbp, -16
	movq	%rsp, %rbp
	.cfi_def_cfa_register %rbp
	subq	$64, %rsp
	movq	%rdi, -56(%rbp)
Ltmp542:
	.loc	27 969 15 prologue_end
	movb	$1, -17(%rbp)
	movq	-56(%rbp), %rdx
	movl	$1, %eax
	xorl	%ecx, %ecx
	cmpq	$0, %rdx
	cmoveq	%rcx, %rax
	.loc	27 969 9 is_stmt 0
	cmpq	$0, %rax
	jne	LBB132_2
	.loc	27 971 21 is_stmt 1
	movq	$0, -48(%rbp)
	jmp	LBB132_3
LBB132_2:
	.loc	27 970 18
	movq	-56(%rbp), %rax
	movq	%rax, -8(%rbp)
Ltmp543:
	.loc	27 970 29 is_stmt 0
	movb	$0, -17(%rbp)
	movq	%rax, -32(%rbp)
	movq	-32(%rbp), %rdi
	callq	__ZN6flate22gz8GzHeader8filename28_$u7b$$u7b$closure$u7d$$u7d$17h068642fceaa70138E
	.loc	27 970 24
	movq	%rax, -48(%rbp)
	movq	%rdx, -40(%rbp)
Ltmp544:
LBB132_3:
	.loc	27 973 5 is_stmt 1
	testb	$1, -17(%rbp)
	jne	LBB132_5
LBB132_4:
	.loc	27 973 6 is_stmt 0
	movq	-48(%rbp), %rax
	movq	-40(%rbp), %rdx
	addq	$64, %rsp
	popq	%rbp
	retq
LBB132_5:
	.loc	27 973 5
	jmp	LBB132_4
Ltmp545:
Lfunc_end132:
	.cfi_endproc

	.globl	__ZN4core6option15Option$LT$T$GT$6as_ref17hf408271ba2a8f61eE
	.p2align	4, 0x90
__ZN4core6option15Option$LT$T$GT$6as_ref17hf408271ba2a8f61eE:
Lfunc_begin133:
	.loc	27 674 0 is_stmt 1
	.cfi_startproc
	pushq	%rbp
	.cfi_def_cfa_offset 16
	.cfi_offset %rbp, -16
	movq	%rsp, %rbp
	.cfi_def_cfa_register %rbp
	subq	$32, %rsp
	movq	%rdi, -32(%rbp)
	movq	%rdi, -16(%rbp)
Ltmp546:
	.loc	27 675 15 prologue_end
	movq	8(%rdi), %rdx
	movl	$1, %eax
	xorl	%ecx, %ecx
	cmpq	$0, %rdx
	cmoveq	%rcx, %rax
	.loc	27 675 9 is_stmt 0
	cmpq	$0, %rax
	jne	LBB133_2
	.loc	27 677 21 is_stmt 1
	movq	$0, -24(%rbp)
	jmp	LBB133_3
LBB133_2:
	.loc	27 0 21 is_stmt 0
	movq	-32(%rbp), %rax
	.loc	27 676 18 is_stmt 1
	movq	%rax, -8(%rbp)
Ltmp547:
	.loc	27 676 28 is_stmt 0
	movq	%rax, -24(%rbp)
Ltmp548:
LBB133_3:
	.loc	27 679 6 is_stmt 1
	movq	-24(%rbp), %rax
	addq	$32, %rsp
	popq	%rbp
	retq
Ltmp549:
Lfunc_end133:
	.cfi_endproc

	.globl	__ZN4core6option15Option$LT$T$GT$9unwrap_or17h171f124fc31a9b42E
	.p2align	4, 0x90
__ZN4core6option15Option$LT$T$GT$9unwrap_or17h171f124fc31a9b42E:
Lfunc_begin134:
	.loc	27 844 0
	.cfi_startproc
	pushq	%rbp
	.cfi_def_cfa_offset 16
	.cfi_offset %rbp, -16
	movq	%rsp, %rbp
	.cfi_def_cfa_register %rbp
	subq	$16, %rsp
	movb	%dl, %al
	movb	%al, -9(%rbp)
	movb	%sil, %cl
	movb	%dil, %dl
	andb	$1, %dl
	movb	%dl, -8(%rbp)
	movb	%cl, -7(%rbp)
	movb	%al, -2(%rbp)
Ltmp550:
	.loc	27 848 15 prologue_end
	movb	$1, -3(%rbp)
	movb	-8(%rbp), %al
	andb	$1, %al
	movzbl	%al, %eax
	.loc	27 848 9 is_stmt 0
	cmpq	$0, %rax
	jne	LBB134_2
	.loc	27 0 9
	movb	-9(%rbp), %al
	.loc	27 850 21 is_stmt 1
	movb	$0, -3(%rbp)
	movb	%al, -4(%rbp)
	jmp	LBB134_3
LBB134_2:
	.loc	27 849 18
	movb	-7(%rbp), %al
	movb	%al, -1(%rbp)
Ltmp551:
	.loc	27 849 24 is_stmt 0
	movb	%al, -4(%rbp)
Ltmp552:
LBB134_3:
	.loc	27 852 5 is_stmt 1
	testb	$1, -3(%rbp)
	jne	LBB134_5
LBB134_4:
	.loc	27 852 6 is_stmt 0
	movb	-4(%rbp), %al
	addq	$16, %rsp
	popq	%rbp
	retq
LBB134_5:
	.loc	27 852 5
	jmp	LBB134_4
Ltmp553:
Lfunc_end134:
	.cfi_endproc

	.globl	__ZN4core6option15Option$LT$T$GT$9unwrap_or17h545a040f93be734eE
	.p2align	4, 0x90
__ZN4core6option15Option$LT$T$GT$9unwrap_or17h545a040f93be734eE:
Lfunc_begin135:
	.loc	27 844 0 is_stmt 1
	.cfi_startproc
	pushq	%rbp
	.cfi_def_cfa_offset 16
	.cfi_offset %rbp, -16
	movq	%rsp, %rbp
	.cfi_def_cfa_register %rbp
	subq	$32, %rsp
	movl	%edx, -28(%rbp)
	movl	%edi, -24(%rbp)
	movl	%esi, -20(%rbp)
	movl	%edx, -8(%rbp)
Ltmp554:
	.loc	27 848 15 prologue_end
	movb	$1, -9(%rbp)
	movl	-24(%rbp), %eax
	.loc	27 848 9 is_stmt 0
	cmpq	$0, %rax
	jne	LBB135_2
	.loc	27 0 9
	movl	-28(%rbp), %eax
	.loc	27 850 21 is_stmt 1
	movb	$0, -9(%rbp)
	movl	%eax, -16(%rbp)
	jmp	LBB135_3
LBB135_2:
	.loc	27 849 18
	movl	-20(%rbp), %eax
	movl	%eax, -4(%rbp)
Ltmp555:
	.loc	27 849 24 is_stmt 0
	movl	%eax, -16(%rbp)
Ltmp556:
LBB135_3:
	.loc	27 852 5 is_stmt 1
	testb	$1, -9(%rbp)
	jne	LBB135_5
LBB135_4:
	.loc	27 852 6 is_stmt 0
	movl	-16(%rbp), %eax
	addq	$32, %rsp
	popq	%rbp
	retq
LBB135_5:
	.loc	27 852 5
	jmp	LBB135_4
Ltmp557:
Lfunc_end135:
	.cfi_endproc

	.globl	__ZN4core6result19Result$LT$T$C$E$GT$6unwrap17hf19d4925366c257aE
	.p2align	4, 0x90
__ZN4core6result19Result$LT$T$C$E$GT$6unwrap17hf19d4925366c257aE:
Lfunc_begin136:
	.file	37 "/rustc/2c8cc343237b8f7d5a3c3703e3a87f2eb2c54a74/library/core/src" "result.rs"
	.loc	37 1106 0 is_stmt 1
	.cfi_startproc
	.cfi_personality 155, _rust_eh_personality
	.cfi_lsda 16, Lexception20
	pushq	%rbp
	.cfi_def_cfa_offset 16
	.cfi_offset %rbp, -16
	movq	%rsp, %rbp
	.cfi_def_cfa_register %rbp
	subq	$48, %rsp
	movq	%rsi, -48(%rbp)
	movb	%dil, %al
	movb	%al, -33(%rbp)
Ltmp561:
	.loc	37 1110 15 prologue_end
	xorl	%eax, %eax
	movl	$1, %ecx
	cmpb	$3, -33(%rbp)
	cmoveq	%rcx, %rax
	.loc	37 1110 9 is_stmt 0
	cmpq	$0, %rax
	jne	LBB136_2
	.loc	37 1111 16 is_stmt 1
	movb	-33(%rbp), %al
	movb	%al, -1(%rbp)
	.loc	37 1114 6
	addq	$48, %rsp
	popq	%rbp
	retq
LBB136_2:
Ltmp558:
	.loc	37 0 6 is_stmt 0
	movq	-48(%rbp), %r8
Ltmp562:
	.loc	37 1112 23 is_stmt 1
	leaq	l___unnamed_37(%rip), %rdi
	leaq	l___unnamed_5(%rip), %rcx
	movl	$43, %esi
	leaq	-32(%rbp), %rdx
	callq	__ZN4core6result13unwrap_failed17h533573e6d3b6061cE
Ltmp559:
	jmp	LBB136_5
Ltmp563:
LBB136_3:
	.loc	37 1106 5
	movq	-24(%rbp), %rdi
	callq	__Unwind_Resume
Ltmp564:
LBB136_4:
Ltmp560:
	.loc	37 0 5 is_stmt 0
	movq	%rax, %rcx
	movl	%edx, %eax
	movq	%rcx, -24(%rbp)
	movl	%eax, -16(%rbp)
	jmp	LBB136_3
LBB136_5:
	ud2
Lfunc_end136:
	.cfi_endproc
	.section	__TEXT,__gcc_except_tab
	.p2align	2
GCC_except_table136:
Lexception20:
	.byte	255
	.byte	255
	.byte	1
	.uleb128 Lcst_end20-Lcst_begin20
Lcst_begin20:
	.uleb128 Ltmp558-Lfunc_begin136
	.uleb128 Ltmp559-Ltmp558
	.uleb128 Ltmp560-Lfunc_begin136
	.byte	0
	.uleb128 Ltmp559-Lfunc_begin136
	.uleb128 Lfunc_end136-Ltmp559
	.byte	0
	.byte	0
Lcst_end20:
	.p2align	2

	.section	__TEXT,__text,regular,pure_instructions
	.globl	__ZN4core6result19Result$LT$T$C$E$GT$6unwrap17hfb7e2faa81b61651E
	.p2align	4, 0x90
__ZN4core6result19Result$LT$T$C$E$GT$6unwrap17hfb7e2faa81b61651E:
Lfunc_begin137:
	.loc	37 1106 0 is_stmt 1
	.cfi_startproc
	.cfi_personality 155, _rust_eh_personality
	.cfi_lsda 16, Lexception21
	pushq	%rbp
	.cfi_def_cfa_offset 16
	.cfi_offset %rbp, -16
	movq	%rsp, %rbp
	.cfi_def_cfa_register %rbp
	subq	$48, %rsp
	movq	%rdx, -48(%rbp)
	movl	%edi, -40(%rbp)
	movl	%esi, -36(%rbp)
Ltmp568:
	.loc	37 1110 15 prologue_end
	movl	-40(%rbp), %eax
	.loc	37 1110 9 is_stmt 0
	cmpq	$0, %rax
	jne	LBB137_2
	.loc	37 1111 16 is_stmt 1
	movl	-36(%rbp), %eax
	movl	%eax, -4(%rbp)
	.loc	37 1114 6
	addq	$48, %rsp
	popq	%rbp
	retq
LBB137_2:
	.loc	37 0 6 is_stmt 0
	movq	-48(%rbp), %r8
	.loc	37 1112 17 is_stmt 1
	movl	-36(%rbp), %eax
	movl	%eax, -28(%rbp)
Ltmp565:
Ltmp569:
	.loc	37 1112 23 is_stmt 0
	leaq	l___unnamed_37(%rip), %rdi
	leaq	l___unnamed_6(%rip), %rcx
	movl	$43, %esi
	leaq	-28(%rbp), %rdx
	callq	__ZN4core6result13unwrap_failed17h533573e6d3b6061cE
Ltmp566:
	jmp	LBB137_5
Ltmp570:
LBB137_3:
	.loc	37 1106 5 is_stmt 1
	movq	-24(%rbp), %rdi
	callq	__Unwind_Resume
Ltmp571:
LBB137_4:
Ltmp567:
	.loc	37 0 5 is_stmt 0
	movq	%rax, %rcx
	movl	%edx, %eax
	movq	%rcx, -24(%rbp)
	movl	%eax, -16(%rbp)
	jmp	LBB137_3
LBB137_5:
	ud2
Lfunc_end137:
	.cfi_endproc
	.section	__TEXT,__gcc_except_tab
	.p2align	2
GCC_except_table137:
Lexception21:
	.byte	255
	.byte	255
	.byte	1
	.uleb128 Lcst_end21-Lcst_begin21
Lcst_begin21:
	.uleb128 Ltmp565-Lfunc_begin137
	.uleb128 Ltmp566-Ltmp565
	.uleb128 Ltmp567-Lfunc_begin137
	.byte	0
	.uleb128 Ltmp566-Lfunc_begin137
	.uleb128 Lfunc_end137-Ltmp566
	.byte	0
	.byte	0
Lcst_end21:
	.p2align	2

	.section	__TEXT,__text,regular,pure_instructions
	.globl	__ZN4core6result19Result$LT$T$C$E$GT$9unwrap_or17h2cb87ed3f9ce004cE
	.p2align	4, 0x90
__ZN4core6result19Result$LT$T$C$E$GT$9unwrap_or17h2cb87ed3f9ce004cE:
Lfunc_begin138:
	.loc	37 1472 0 is_stmt 1
	.cfi_startproc
	pushq	%rbp
	.cfi_def_cfa_offset 16
	.cfi_offset %rbp, -16
	movq	%rsp, %rbp
	.cfi_def_cfa_register %rbp
	subq	$24, %rsp
	movb	%dl, %al
	movb	%al, -17(%rbp)
	movb	%sil, %cl
	movb	%dil, %dl
	andb	$1, %dl
	movb	%dl, -16(%rbp)
	movb	%cl, -15(%rbp)
	movb	%al, -9(%rbp)
Ltmp572:
	.loc	37 1477 15 prologue_end
	movb	$1, -10(%rbp)
	movb	-16(%rbp), %al
	andb	$1, %al
	movzbl	%al, %eax
	.loc	37 1477 9 is_stmt 0
	cmpq	$0, %rax
	jne	LBB138_2
	.loc	37 1478 16 is_stmt 1
	movb	-15(%rbp), %al
	movb	%al, -1(%rbp)
Ltmp573:
	.loc	37 1478 22 is_stmt 0
	movb	%al, -11(%rbp)
Ltmp574:
	.loc	37 1478 22
	jmp	LBB138_3
LBB138_2:
	.loc	37 0 22
	movb	-17(%rbp), %al
Ltmp575:
	.loc	37 1481 23 is_stmt 1
	movb	$0, -10(%rbp)
	movb	%al, -11(%rbp)
Ltmp576:
LBB138_3:
	.loc	37 1483 5
	testb	$1, -10(%rbp)
	jne	LBB138_5
LBB138_4:
	.loc	37 1483 6 is_stmt 0
	movb	-11(%rbp), %al
	addq	$24, %rsp
	popq	%rbp
	retq
LBB138_5:
	.loc	37 1483 5
	jmp	LBB138_4
Ltmp577:
Lfunc_end138:
	.cfi_endproc

	.p2align	4, 0x90
__ZN4core7convert3num66_$LT$impl$u20$core..convert..TryFrom$LT$u32$GT$$u20$for$u20$u8$GT$8try_from17h415cecebc1217aaaE:
Lfunc_begin139:
	.file	38 "/rustc/2c8cc343237b8f7d5a3c3703e3a87f2eb2c54a74/library/core/src/convert" "num.rs"
	.loc	38 245 0 is_stmt 1
	.cfi_startproc
	pushq	%rbp
	.cfi_def_cfa_offset 16
	.cfi_offset %rbp, -16
	movq	%rsp, %rbp
	.cfi_def_cfa_register %rbp
	subq	$16, %rsp
	movl	%edi, -12(%rbp)
	movl	%edi, -4(%rbp)
Ltmp578:
	.loc	38 246 20 prologue_end
	cmpl	$255, %edi
	ja	LBB139_2
	.loc	38 0 20 is_stmt 0
	movl	-12(%rbp), %eax
	.loc	38 249 21 is_stmt 1
	movb	%al, -7(%rbp)
	movb	$0, -8(%rbp)
	.loc	38 246 17
	jmp	LBB139_3
LBB139_2:
	.loc	38 247 21
	movb	$1, -8(%rbp)
LBB139_3:
	.loc	38 251 14
	movb	-8(%rbp), %al
	movb	-7(%rbp), %dl
	addq	$16, %rsp
	popq	%rbp
	retq
Ltmp579:
Lfunc_end139:
	.cfi_endproc

	.globl	__ZN4core9panicking13assert_failed17h8cac7d7db09fc3a9E
	.p2align	4, 0x90
__ZN4core9panicking13assert_failed17h8cac7d7db09fc3a9E:
Lfunc_begin140:
	.file	39 "/rustc/2c8cc343237b8f7d5a3c3703e3a87f2eb2c54a74/library/core/src" "panicking.rs"
	.loc	39 202 0
	.cfi_startproc
	pushq	%rbp
	.cfi_def_cfa_offset 16
	.cfi_offset %rbp, -16
	movq	%rsp, %rbp
	.cfi_def_cfa_register %rbp
	subq	$96, %rsp
	movq	%rcx, -80(%rbp)
Ltmp580:
	movq	%rdx, %rcx
	movq	-80(%rbp), %rdx
	movb	%dil, %al
	movq	%rsi, -72(%rbp)
	movq	%rcx, -64(%rbp)
	movb	%al, -1(%rbp)
Ltmp581:
	.loc	39 212 46 prologue_end
	movq	40(%rdx), %rcx
	movq	%rcx, -16(%rbp)
	movq	32(%rdx), %rcx
	movq	%rcx, -24(%rbp)
	movq	24(%rdx), %rcx
	movq	%rcx, -32(%rbp)
	movq	16(%rdx), %rcx
	movq	%rcx, -40(%rbp)
	movq	(%rdx), %rcx
	movq	8(%rdx), %rdx
	movq	%rdx, -48(%rbp)
	movq	%rcx, -56(%rbp)
	.loc	39 212 5 is_stmt 0
	movq	%rsp, %rcx
	movq	%r8, (%rcx)
	movzbl	%al, %edi
	leaq	l___unnamed_7(%rip), %r8
	leaq	-72(%rbp), %rsi
	leaq	-64(%rbp), %rcx
	leaq	-56(%rbp), %r9
	movq	%r8, %rdx
	callq	__ZN4core9panicking19assert_failed_inner17hccca5a268c0d7621E
Ltmp582:
Lfunc_end140:
	.cfi_endproc

	.globl	__ZN50_$LT$T$u20$as$u20$core..convert..Into$LT$U$GT$$GT$4into17h0120430f318ee537E
	.p2align	4, 0x90
__ZN50_$LT$T$u20$as$u20$core..convert..Into$LT$U$GT$$GT$4into17h0120430f318ee537E:
Lfunc_begin141:
	.file	40 "/rustc/2c8cc343237b8f7d5a3c3703e3a87f2eb2c54a74/library/core/src/convert" "mod.rs"
	.loc	40 725 0 is_stmt 1
	.cfi_startproc
	pushq	%rbp
	.cfi_def_cfa_offset 16
	.cfi_offset %rbp, -16
	movq	%rsp, %rbp
	.cfi_def_cfa_register %rbp
	subq	$16, %rsp
Ltmp583:
	.loc	40 726 9 prologue_end
	callq	__ZN146_$LT$alloc..boxed..Box$LT$dyn$u20$core..error..Error$u2b$core..marker..Send$u2b$core..marker..Sync$GT$$u20$as$u20$core..convert..From$LT$E$GT$$GT$4from17h41ce7640f5a81220E
	.loc	40 727 6
	addq	$16, %rsp
	popq	%rbp
	retq
Ltmp584:
Lfunc_end141:
	.cfi_endproc

	.globl	__ZN50_$LT$T$u20$as$u20$core..convert..Into$LT$U$GT$$GT$4into17hd0d7e38bcf78b174E
	.p2align	4, 0x90
__ZN50_$LT$T$u20$as$u20$core..convert..Into$LT$U$GT$$GT$4into17hd0d7e38bcf78b174E:
Lfunc_begin142:
	.loc	40 725 0
	.cfi_startproc
	pushq	%rbp
	.cfi_def_cfa_offset 16
	.cfi_offset %rbp, -16
	movq	%rsp, %rbp
	.cfi_def_cfa_register %rbp
	subq	$16, %rsp
	movq	%rdi, -16(%rbp)
	movq	%rsi, -8(%rbp)
Ltmp585:
	.loc	40 726 9 prologue_end
	callq	__ZN152_$LT$alloc..boxed..Box$LT$dyn$u20$core..error..Error$u2b$core..marker..Send$u2b$core..marker..Sync$GT$$u20$as$u20$core..convert..From$LT$$RF$str$GT$$GT$4from17h87ecb4e944a9bc28E
	.loc	40 727 6
	addq	$16, %rsp
	popq	%rbp
	retq
Ltmp586:
Lfunc_end142:
	.cfi_endproc

	.globl	__ZN50_$LT$T$u20$as$u20$core..convert..Into$LT$U$GT$$GT$4into17hfce94c898e436373E
	.p2align	4, 0x90
__ZN50_$LT$T$u20$as$u20$core..convert..Into$LT$U$GT$$GT$4into17hfce94c898e436373E:
Lfunc_begin143:
	.loc	40 725 0
	.cfi_startproc
	pushq	%rbp
	.cfi_def_cfa_offset 16
	.cfi_offset %rbp, -16
	movq	%rsp, %rbp
	.cfi_def_cfa_register %rbp
	subq	$16, %rsp
	movl	%edi, -8(%rbp)
	movl	%esi, -4(%rbp)
Ltmp587:
	.loc	40 726 9 prologue_end
	callq	__ZN146_$LT$alloc..boxed..Box$LT$dyn$u20$core..error..Error$u2b$core..marker..Send$u2b$core..marker..Sync$GT$$u20$as$u20$core..convert..From$LT$E$GT$$GT$4from17hd4652596607d6f05E
	.loc	40 727 6
	addq	$16, %rsp
	popq	%rbp
	retq
Ltmp588:
Lfunc_end143:
	.cfi_endproc

	.globl	__ZN52_$LT$T$u20$as$u20$alloc..slice..hack..ConvertVec$GT$6to_vec17h777d513707a10ea9E
	.p2align	4, 0x90
__ZN52_$LT$T$u20$as$u20$alloc..slice..hack..ConvertVec$GT$6to_vec17h777d513707a10ea9E:
Lfunc_begin144:
	.file	41 "/rustc/2c8cc343237b8f7d5a3c3703e3a87f2eb2c54a74/library/alloc/src" "slice.rs"
	.loc	41 161 0
	.cfi_startproc
	.cfi_personality 155, _rust_eh_personality
	.cfi_lsda 16, Lexception22
	pushq	%rbp
	.cfi_def_cfa_offset 16
	.cfi_offset %rbp, -16
	movq	%rsp, %rbp
	.cfi_def_cfa_register %rbp
	subq	$448, %rsp
	movq	%rdx, -432(%rbp)
	movq	%rsi, -424(%rbp)
	movq	%rdi, -416(%rbp)
	movq	%rdi, -408(%rbp)
	movq	%rsi, -320(%rbp)
	movq	%rdx, -312(%rbp)
Ltmp592:
	.loc	41 162 47 prologue_end
	movq	%rsi, -280(%rbp)
	movq	%rdx, -272(%rbp)
Ltmp593:
	.loc	22 137 23
	movq	%rsi, -264(%rbp)
	movq	%rdx, -256(%rbp)
Ltmp594:
	.loc	36 98 14
	movq	%rsi, -384(%rbp)
	movq	%rdx, -376(%rbp)
	movq	-376(%rbp), %rdi
	movq	%rdi, -248(%rbp)
Ltmp595:
	.file	42 "/rustc/2c8cc343237b8f7d5a3c3703e3a87f2eb2c54a74/library/alloc/src/vec" "mod.rs"
	.loc	42 676 45
	movq	%rdi, -240(%rbp)
Ltmp596:
	.loc	18 131 37
	movb	$0, -361(%rbp)
	.loc	18 131 9 is_stmt 0
	movzbl	-361(%rbp), %esi
Ltmp589:
	callq	__ZN5alloc7raw_vec19RawVec$LT$T$C$A$GT$11allocate_in17h17bc80503c940516E
Ltmp590:
	movq	%rdx, -400(%rbp)
	movq	%rax, -392(%rbp)
	jmp	LBB144_3
Ltmp597:
LBB144_1:
	.loc	41 171 9 is_stmt 1
	xorl	%eax, %eax
	testb	$1, %al
	jne	LBB144_6
	jmp	LBB144_5
LBB144_2:
Ltmp591:
	.loc	41 0 9 is_stmt 0
	movq	%rax, %rcx
	movl	%edx, %eax
	movq	%rcx, -232(%rbp)
	movl	%eax, -224(%rbp)
	jmp	LBB144_1
LBB144_3:
Ltmp598:
	movq	-416(%rbp), %rax
	movq	-424(%rbp), %rcx
	movq	-432(%rbp), %rdx
	movq	-400(%rbp), %rsi
	movq	-392(%rbp), %rdi
Ltmp599:
	.loc	42 676 9 is_stmt 1
	movq	%rdi, (%rax)
	movq	%rsi, 8(%rax)
	movq	$0, 16(%rax)
Ltmp600:
	.loc	41 167 17
	movq	%rcx, -216(%rbp)
	movq	%rdx, -208(%rbp)
Ltmp601:
	.loc	22 477 9
	movq	%rcx, -200(%rbp)
Ltmp602:
	.loc	41 167 51
	movq	%rax, -192(%rbp)
Ltmp603:
	.loc	42 1280 19
	movq	%rax, -184(%rbp)
Ltmp604:
	.loc	18 224 9
	movq	8(%rax), %rax
	movq	%rax, -440(%rbp)
	movq	%rax, -176(%rbp)
Ltmp605:
	.loc	19 104 9
	movq	%rax, -168(%rbp)
Ltmp606:
	.loc	17 326 9
	movq	%rax, -160(%rbp)
Ltmp607:
	.loc	42 1282 21
	movq	%rax, -152(%rbp)
Ltmp608:
	.loc	35 52 36
	movq	%rax, -360(%rbp)
	.loc	35 52 18 is_stmt 0
	movq	-360(%rbp), %rax
	movq	%rax, -144(%rbp)
Ltmp609:
	.loc	35 38 13 is_stmt 1
	movq	%rax, -136(%rbp)
Ltmp610:
	.loc	35 215 33
	movq	%rax, -128(%rbp)
	.loc	35 215 18 is_stmt 0
	movq	%rax, -120(%rbp)
	movq	-120(%rbp), %rax
Ltmp611:
	.loc	35 0 18
	movq	-432(%rbp), %rax
	movq	-424(%rbp), %rsi
	movq	-440(%rbp), %rdi
	.loc	41 167 67 is_stmt 1
	movq	%rsi, -112(%rbp)
	movq	%rax, -104(%rbp)
Ltmp612:
	.loc	22 137 23
	movq	%rsi, -96(%rbp)
	movq	%rax, -88(%rbp)
Ltmp613:
	.loc	36 98 14
	movq	%rsi, -352(%rbp)
	movq	%rax, -344(%rbp)
	movq	-344(%rbp), %rdx
	movq	%rdx, -80(%rbp)
Ltmp614:
	.loc	6 1297 38
	movq	%rsi, -72(%rbp)
	.loc	6 1297 44 is_stmt 0
	movq	%rdi, -64(%rbp)
	.loc	6 1297 50
	movq	%rdx, -56(%rbp)
Ltmp615:
	.file	43 "/rustc/2c8cc343237b8f7d5a3c3703e3a87f2eb2c54a74/library/core/src" "intrinsics.rs"
	.loc	43 2372 9 is_stmt 1
	shlq	$0, %rdx
	callq	_memcpy
	movq	-424(%rbp), %rsi
	movq	-432(%rbp), %rdx
	movq	-416(%rbp), %rcx
	movq	-408(%rbp), %rax
Ltmp616:
	.loc	41 168 17
	movq	%rcx, -48(%rbp)
	.loc	41 168 27 is_stmt 0
	movq	%rsi, -40(%rbp)
	movq	%rdx, -32(%rbp)
Ltmp617:
	.loc	22 137 23 is_stmt 1
	movq	%rsi, -24(%rbp)
	movq	%rdx, -16(%rbp)
Ltmp618:
	.loc	36 98 14
	movq	%rsi, -336(%rbp)
	movq	%rdx, -328(%rbp)
	movq	-328(%rbp), %rdx
	movq	%rdx, -8(%rbp)
Ltmp619:
	.loc	42 1377 9
	movq	%rdx, 16(%rcx)
Ltmp620:
	.loc	41 171 10
	addq	$448, %rsp
	popq	%rbp
	retq
Ltmp621:
LBB144_5:
	.loc	41 161 9
	movq	-232(%rbp), %rdi
	callq	__Unwind_Resume
LBB144_6:
	.loc	41 171 9
	jmp	LBB144_5
Ltmp622:
Lfunc_end144:
	.cfi_endproc
	.section	__TEXT,__gcc_except_tab
	.p2align	2
GCC_except_table144:
Lexception22:
	.byte	255
	.byte	255
	.byte	1
	.uleb128 Lcst_end22-Lcst_begin22
Lcst_begin22:
	.uleb128 Ltmp589-Lfunc_begin144
	.uleb128 Ltmp590-Ltmp589
	.uleb128 Ltmp591-Lfunc_begin144
	.byte	0
	.uleb128 Ltmp590-Lfunc_begin144
	.uleb128 Lfunc_end144-Ltmp590
	.byte	0
	.byte	0
Lcst_end22:
	.p2align	2

	.section	__TEXT,__text,regular,pure_instructions
	.globl	__ZN53_$LT$T$u20$as$u20$core..convert..TryInto$LT$U$GT$$GT$8try_into17h620868cff13d48ddE
	.p2align	4, 0x90
__ZN53_$LT$T$u20$as$u20$core..convert..TryInto$LT$U$GT$$GT$8try_into17h620868cff13d48ddE:
Lfunc_begin145:
	.loc	40 766 0
	.cfi_startproc
	pushq	%rbp
	.cfi_def_cfa_offset 16
	.cfi_offset %rbp, -16
	movq	%rsp, %rbp
	.cfi_def_cfa_register %rbp
	subq	$16, %rsp
	movl	%edi, -4(%rbp)
Ltmp623:
	.loc	40 767 9 prologue_end
	callq	__ZN4core7convert3num66_$LT$impl$u20$core..convert..TryFrom$LT$u32$GT$$u20$for$u20$u8$GT$8try_from17h415cecebc1217aaaE
	.loc	40 768 6
	andb	$1, %al
	addq	$16, %rsp
	popq	%rbp
	retq
Ltmp624:
Lfunc_end145:
	.cfi_endproc

	.globl	__ZN55_$LT$T$u20$as$u20$core..option..SpecOptionPartialEq$GT$2eq17h3ad6971a26a3f384E
	.p2align	4, 0x90
__ZN55_$LT$T$u20$as$u20$core..option..SpecOptionPartialEq$GT$2eq17h3ad6971a26a3f384E:
Lfunc_begin146:
	.loc	27 2102 0
	.cfi_startproc
	pushq	%rbp
	.cfi_def_cfa_offset 16
	.cfi_offset %rbp, -16
	movq	%rsp, %rbp
	.cfi_def_cfa_register %rbp
	subq	$64, %rsp
	movq	%rdi, -32(%rbp)
	movq	%rsi, -24(%rbp)
Ltmp625:
	.loc	27 2103 15 prologue_end
	movq	%rdi, -48(%rbp)
	movq	%rsi, -40(%rbp)
	movq	-48(%rbp), %rax
	movq	(%rax), %rax
	movq	%rax, -64(%rbp)
	.loc	27 2103 9 is_stmt 0
	testq	%rax, %rax
	je	LBB146_2
	jmp	LBB146_7
LBB146_7:
	.loc	27 0 9
	movq	-64(%rbp), %rax
	.loc	27 2103 9
	subq	$1, %rax
	je	LBB146_3
	jmp	LBB146_1
LBB146_1:
	.loc	27 2106 18 is_stmt 1
	movb	$0, -49(%rbp)
	jmp	LBB146_5
LBB146_2:
	.loc	27 2103 15
	movq	-40(%rbp), %rax
	.loc	27 2103 9 is_stmt 0
	cmpq	$0, (%rax)
	je	LBB146_6
	jmp	LBB146_1
LBB146_3:
	.loc	27 2103 15
	movq	-40(%rbp), %rax
	.loc	27 2103 9
	cmpq	$1, (%rax)
	jne	LBB146_1
	.loc	27 2104 19 is_stmt 1
	movq	-48(%rbp), %rdi
	addq	$8, %rdi
	movq	%rdi, -16(%rbp)
	.loc	27 2104 28 is_stmt 0
	movq	-40(%rbp), %rsi
	addq	$8, %rsi
	movq	%rsi, -8(%rbp)
Ltmp626:
	.loc	27 2104 35
	callq	__ZN4core3cmp5impls56_$LT$impl$u20$core..cmp..PartialEq$u20$for$u20$usize$GT$2eq17h33a2bb3ec6290e9cE
	andb	$1, %al
	movb	%al, -49(%rbp)
Ltmp627:
LBB146_5:
	.loc	27 2108 6 is_stmt 1
	movb	-49(%rbp), %al
	andb	$1, %al
	movzbl	%al, %eax
	addq	$64, %rsp
	popq	%rbp
	retq
LBB146_6:
	.loc	27 2105 29
	movb	$1, -49(%rbp)
	jmp	LBB146_5
Ltmp628:
Lfunc_end146:
	.cfi_endproc

	.p2align	4, 0x90
__ZN55_$LT$crc32fast..State$u20$as$u20$core..clone..Clone$GT$5clone17h885d5bf49c57c058E:
Lfunc_begin147:
	.file	44 "/Users/natalie/.cargo/registry/src/github.com-1ecc6299db9ec823/crc32fast-1.3.2/src" "lib.rs"
	.loc	44 71 0
	.cfi_startproc
	pushq	%rbp
	.cfi_def_cfa_offset 16
	.cfi_offset %rbp, -16
	movq	%rsp, %rbp
	.cfi_def_cfa_register %rbp
	subq	$48, %rsp
	movq	%rdi, -40(%rbp)
	movq	%rdi, -24(%rbp)
Ltmp629:
	.loc	44 71 10 prologue_end
	movl	(%rdi), %eax
	cmpq	$0, %rax
	jne	LBB147_2
	.loc	44 0 10 is_stmt 0
	movq	-40(%rbp), %rdi
	.loc	44 73 14 is_stmt 1
	addq	$4, %rdi
	movq	%rdi, -8(%rbp)
Ltmp630:
	.loc	44 73 14 is_stmt 0
	callq	__ZN65_$LT$crc32fast..baseline..State$u20$as$u20$core..clone..Clone$GT$5clone17h60f1ab4f958705ecE
	.loc	44 71 10 is_stmt 1
	movl	%eax, -28(%rbp)
	movl	$0, -32(%rbp)
Ltmp631:
	.loc	44 71 14 is_stmt 0
	jmp	LBB147_3
LBB147_2:
	.loc	44 0 14
	movq	-40(%rbp), %rdi
	.loc	44 74 17 is_stmt 1
	addq	$4, %rdi
	movq	%rdi, -16(%rbp)
Ltmp632:
	.loc	44 74 17 is_stmt 0
	callq	__ZN79_$LT$crc32fast..specialized..pclmulqdq..State$u20$as$u20$core..clone..Clone$GT$5clone17h5fde61a519d0f77fE
	.loc	44 71 10 is_stmt 1
	movl	%eax, -28(%rbp)
	movl	$1, -32(%rbp)
Ltmp633:
LBB147_3:
	.loc	44 71 15 is_stmt 0
	movl	-32(%rbp), %eax
	movl	-28(%rbp), %edx
	addq	$48, %rsp
	popq	%rbp
	retq
Ltmp634:
Lfunc_end147:
	.cfi_endproc

	.p2align	4, 0x90
__ZN56_$LT$crc32fast..Hasher$u20$as$u20$core..clone..Clone$GT$5clone17h5ab77419a717a8bcE:
Lfunc_begin148:
	.loc	44 77 0 is_stmt 1
	.cfi_startproc
	pushq	%rbp
	.cfi_def_cfa_offset 16
	.cfi_offset %rbp, -16
	movq	%rsp, %rbp
	.cfi_def_cfa_register %rbp
	subq	$48, %rsp
	movq	%rsi, -40(%rbp)
	movq	%rdi, %rax
	movq	-40(%rbp), %rdi
	movq	%rax, -24(%rbp)
	movq	%rax, -16(%rbp)
	movq	%rdi, -8(%rbp)
Ltmp635:
	.loc	44 80 5 prologue_end
	movq	(%rdi), %rax
	movq	%rax, -32(%rbp)
	.loc	44 81 5
	addq	$8, %rdi
	callq	__ZN55_$LT$crc32fast..State$u20$as$u20$core..clone..Clone$GT$5clone17h885d5bf49c57c058E
	movq	-32(%rbp), %rsi
	movq	-24(%rbp), %rdi
	movl	%eax, %ecx
	movq	-16(%rbp), %rax
	.loc	44 77 10
	movq	%rsi, (%rdi)
	movl	%ecx, 8(%rdi)
	movl	%edx, 12(%rdi)
	.loc	44 77 15 is_stmt 0
	addq	$48, %rsp
	popq	%rbp
	retq
Ltmp636:
Lfunc_end148:
	.cfi_endproc

	.p2align	4, 0x90
__ZN5alloc3ffi5c_str7CString17as_bytes_with_nul17hdc0b0eab4907c401E:
Lfunc_begin149:
	.file	45 "/rustc/2c8cc343237b8f7d5a3c3703e3a87f2eb2c54a74/library/alloc/src/ffi" "c_str.rs"
	.loc	45 561 0 is_stmt 1
	.cfi_startproc
	pushq	%rbp
	.cfi_def_cfa_offset 16
	.cfi_offset %rbp, -16
	movq	%rsp, %rbp
	.cfi_def_cfa_register %rbp
	pushq	%rax
	movq	%rdi, -8(%rbp)
Ltmp637:
	.loc	45 562 9 prologue_end
	movq	(%rdi), %rax
	movq	8(%rdi), %rdx
	.loc	45 563 6
	addq	$8, %rsp
	popq	%rbp
	retq
Ltmp638:
Lfunc_end149:
	.cfi_endproc

	.globl	__ZN5alloc3vec12Vec$LT$T$GT$13with_capacity17h6f02b55dae4323e2E
	.p2align	4, 0x90
__ZN5alloc3vec12Vec$LT$T$GT$13with_capacity17h6f02b55dae4323e2E:
Lfunc_begin150:
	.loc	42 482 0
	.cfi_startproc
	pushq	%rbp
	.cfi_def_cfa_offset 16
	.cfi_offset %rbp, -16
	movq	%rsp, %rbp
	.cfi_def_cfa_register %rbp
	subq	$80, %rsp
	movq	%rsi, -72(%rbp)
	movq	%rdi, %rax
	movq	-72(%rbp), %rdi
	movq	%rax, -64(%rbp)
	movq	%rax, -56(%rbp)
	movq	%rdi, -40(%rbp)
Ltmp639:
	.loc	42 483 32 prologue_end
	movq	%rdi, -16(%rbp)
Ltmp640:
	.loc	42 676 45
	movq	%rdi, -8(%rbp)
Ltmp641:
	.loc	18 131 37
	movb	$0, -41(%rbp)
	.loc	18 131 9 is_stmt 0
	movb	-41(%rbp), %al
	andb	$1, %al
	movzbl	%al, %esi
	callq	__ZN5alloc7raw_vec19RawVec$LT$T$C$A$GT$11allocate_in17h17bc80503c940516E
	movq	-64(%rbp), %rdi
	movq	%rax, %rcx
	movq	-56(%rbp), %rax
Ltmp642:
	.loc	42 676 9 is_stmt 1
	movq	%rcx, (%rdi)
	movq	%rdx, 8(%rdi)
	movq	$0, 16(%rdi)
Ltmp643:
	.loc	42 484 6
	addq	$80, %rsp
	popq	%rbp
	retq
Ltmp644:
Lfunc_end150:
	.cfi_endproc

	.globl	__ZN5alloc3vec16Vec$LT$T$C$A$GT$10as_mut_ptr17hda6cd2a72e7d8b63E
	.p2align	4, 0x90
__ZN5alloc3vec16Vec$LT$T$C$A$GT$10as_mut_ptr17hda6cd2a72e7d8b63E:
Lfunc_begin151:
	.loc	42 1277 0
	.cfi_startproc
	pushq	%rbp
	.cfi_def_cfa_offset 16
	.cfi_offset %rbp, -16
	movq	%rsp, %rbp
	.cfi_def_cfa_register %rbp
	subq	$88, %rsp
	movq	%rdi, -80(%rbp)
Ltmp645:
	.loc	42 1280 19 prologue_end
	movq	%rdi, -72(%rbp)
Ltmp646:
	.loc	18 224 9
	movq	8(%rdi), %rax
	movq	%rax, -64(%rbp)
Ltmp647:
	.loc	19 104 9
	movq	%rax, -56(%rbp)
Ltmp648:
	.loc	17 326 9
	movq	%rax, -48(%rbp)
Ltmp649:
	.loc	42 1282 21
	movq	%rax, -40(%rbp)
Ltmp650:
	.loc	35 52 36
	movq	%rax, -88(%rbp)
	.loc	35 52 18 is_stmt 0
	movq	-88(%rbp), %rcx
	movq	%rcx, -32(%rbp)
Ltmp651:
	.loc	35 38 13 is_stmt 1
	movq	%rcx, -24(%rbp)
Ltmp652:
	.loc	35 215 33
	movq	%rcx, -16(%rbp)
	.loc	35 215 18 is_stmt 0
	movq	%rcx, -8(%rbp)
Ltmp653:
	.loc	42 1285 6 is_stmt 1
	addq	$88, %rsp
	popq	%rbp
	retq
Ltmp654:
Lfunc_end151:
	.cfi_endproc

	.globl	__ZN5alloc3vec16Vec$LT$T$C$A$GT$14extend_trusted17h3b2b2ff236832d3eE
	.p2align	4, 0x90
__ZN5alloc3vec16Vec$LT$T$C$A$GT$14extend_trusted17h3b2b2ff236832d3eE:
Lfunc_begin152:
	.loc	42 2872 0
	.cfi_startproc
	.cfi_personality 155, _rust_eh_personality
	.cfi_lsda 16, Lexception23
	pushq	%rbp
	.cfi_def_cfa_offset 16
	.cfi_offset %rbp, -16
	movq	%rsp, %rbp
	.cfi_def_cfa_register %rbp
	subq	$304, %rsp
	movq	%rdi, -296(%rbp)
	movq	%rsi, -288(%rbp)
	movq	%rdx, -280(%rbp)
	movq	%rdi, -128(%rbp)
Ltmp666:
	.loc	42 2873 27 prologue_end
	movb	$1, -137(%rbp)
Ltmp655:
	leaq	-256(%rbp), %rdi
	leaq	-288(%rbp), %rsi
	callq	__ZN102_$LT$core..iter..adapters..map..Map$LT$I$C$F$GT$$u20$as$u20$core..iter..traits..iterator..Iterator$GT$9size_hint17he9ae6486d1075c26E
Ltmp656:
	jmp	LBB152_3
LBB152_1:
	.loc	42 2901 5
	testb	$1, -137(%rbp)
	jne	LBB152_12
	jmp	LBB152_11
LBB152_2:
Ltmp665:
	.loc	42 0 5 is_stmt 0
	movq	%rax, %rcx
	movl	%edx, %eax
	movq	%rcx, -120(%rbp)
	movl	%eax, -112(%rbp)
	jmp	LBB152_1
LBB152_3:
	.loc	42 2873 14 is_stmt 1
	movq	-256(%rbp), %rax
	movq	%rax, -104(%rbp)
	.loc	42 2873 19 is_stmt 0
	movq	-248(%rbp), %rcx
	movq	-240(%rbp), %rax
	movq	%rcx, -272(%rbp)
	movq	%rax, -264(%rbp)
Ltmp667:
	.loc	42 2874 16 is_stmt 1
	cmpq	$1, -272(%rbp)
	jne	LBB152_5
	.loc	42 0 16 is_stmt 0
	movq	-296(%rbp), %rdi
	.loc	42 2874 21
	movq	-264(%rbp), %rsi
	movq	%rsi, -96(%rbp)
Ltmp661:
	.loc	42 2881 13 is_stmt 1
	callq	__ZN5alloc3vec16Vec$LT$T$C$A$GT$7reserve17h3136961ac8d3f9a3E
Ltmp662:
	jmp	LBB152_8
Ltmp668:
LBB152_5:
Ltmp657:
	.loc	42 2899 13
	leaq	l___unnamed_38(%rip), %rsi
	leaq	l___unnamed_28(%rip), %rcx
	xorl	%eax, %eax
	movl	%eax, %r8d
	leaq	-192(%rbp), %rdi
	movl	$1, %edx
	callq	__ZN4core3fmt9Arguments6new_v117hb53b1d19cf10d3f3E
Ltmp658:
	jmp	LBB152_6
LBB152_6:
Ltmp659:
	leaq	l___unnamed_39(%rip), %rsi
	leaq	-192(%rbp), %rdi
	callq	__ZN4core9panicking9panic_fmt17h9b5d807e24bcaaedE
Ltmp660:
	jmp	LBB152_7
LBB152_7:
	.loc	42 0 13 is_stmt 0
	ud2
LBB152_8:
	movq	-296(%rbp), %rax
Ltmp669:
	.loc	42 2883 27 is_stmt 1
	movq	%rax, -88(%rbp)
Ltmp670:
	.loc	42 1280 19
	movq	%rax, -80(%rbp)
Ltmp671:
	.loc	18 224 9
	movq	8(%rax), %rax
	movq	%rax, -304(%rbp)
	movq	%rax, -72(%rbp)
Ltmp672:
	.loc	19 104 9
	movq	%rax, -64(%rbp)
Ltmp673:
	.loc	17 326 9
	movq	%rax, -56(%rbp)
Ltmp674:
	.loc	42 1282 21
	movq	%rax, -48(%rbp)
Ltmp675:
	.loc	35 52 36
	movq	%rax, -136(%rbp)
	.loc	35 52 18 is_stmt 0
	movq	-136(%rbp), %rax
	movq	%rax, -40(%rbp)
Ltmp676:
	.loc	35 38 13 is_stmt 1
	movq	%rax, -32(%rbp)
Ltmp677:
	.loc	35 215 33
	movq	%rax, -24(%rbp)
	.loc	35 215 18 is_stmt 0
	movq	%rax, -16(%rbp)
	movq	-16(%rbp), %rax
Ltmp678:
	.loc	35 0 18
	movq	-304(%rbp), %rax
	movq	-296(%rbp), %rcx
Ltmp679:
	.loc	42 2884 55 is_stmt 1
	movq	%rcx, %rdx
	addq	$16, %rdx
	movq	%rdx, -8(%rbp)
Ltmp680:
	.file	46 "/rustc/2c8cc343237b8f7d5a3c3703e3a87f2eb2c54a74/library/alloc/src/vec" "set_len_on_drop.rs"
	.loc	46 14 35
	movq	16(%rcx), %rcx
	.loc	46 14 9 is_stmt 0
	movq	%rdx, -224(%rbp)
	movq	%rcx, -232(%rbp)
Ltmp681:
	.loc	42 2885 17 is_stmt 1
	movb	$0, -137(%rbp)
	movq	-288(%rbp), %rdi
	movq	-280(%rbp), %rsi
	.loc	42 2885 35 is_stmt 0
	movq	%rax, -200(%rbp)
	movq	-232(%rbp), %rcx
	movq	-224(%rbp), %rax
	movq	%rcx, -216(%rbp)
	movq	%rax, -208(%rbp)
Ltmp663:
	leaq	-216(%rbp), %rdx
	.loc	42 2885 17
	callq	__ZN4core4iter6traits8iterator8Iterator8for_each17hb2cca7c187f485f4E
Ltmp664:
	jmp	LBB152_10
Ltmp682:
LBB152_10:
	.loc	42 2901 6 is_stmt 1
	addq	$304, %rsp
	popq	%rbp
	retq
LBB152_11:
	.loc	42 2872 5
	movq	-120(%rbp), %rdi
	callq	__Unwind_Resume
LBB152_12:
	.loc	42 2901 5
	jmp	LBB152_11
Ltmp683:
Lfunc_end152:
	.cfi_endproc
	.section	__TEXT,__gcc_except_tab
	.p2align	2
GCC_except_table152:
Lexception23:
	.byte	255
	.byte	255
	.byte	1
	.uleb128 Lcst_end23-Lcst_begin23
Lcst_begin23:
	.uleb128 Ltmp655-Lfunc_begin152
	.uleb128 Ltmp664-Ltmp655
	.uleb128 Ltmp665-Lfunc_begin152
	.byte	0
	.uleb128 Ltmp664-Lfunc_begin152
	.uleb128 Lfunc_end152-Ltmp664
	.byte	0
	.byte	0
Lcst_end23:
	.p2align	2

	.section	__TEXT,__text,regular,pure_instructions
	.globl	__ZN5alloc3vec16Vec$LT$T$C$A$GT$14extend_trusted17hd5dcf83819d5c6d0E
	.p2align	4, 0x90
__ZN5alloc3vec16Vec$LT$T$C$A$GT$14extend_trusted17hd5dcf83819d5c6d0E:
Lfunc_begin153:
	.loc	42 2872 0
	.cfi_startproc
	.cfi_personality 155, _rust_eh_personality
	.cfi_lsda 16, Lexception24
	pushq	%rbp
	.cfi_def_cfa_offset 16
	.cfi_offset %rbp, -16
	movq	%rsp, %rbp
	.cfi_def_cfa_register %rbp
	subq	$304, %rsp
	movq	%rdi, -296(%rbp)
	movq	%rsi, -288(%rbp)
	movq	%rdx, -280(%rbp)
	movq	%rdi, -128(%rbp)
Ltmp695:
	.loc	42 2873 27 prologue_end
	movb	$1, -137(%rbp)
Ltmp684:
	leaq	-256(%rbp), %rdi
	leaq	-288(%rbp), %rsi
	callq	__ZN102_$LT$core..iter..adapters..map..Map$LT$I$C$F$GT$$u20$as$u20$core..iter..traits..iterator..Iterator$GT$9size_hint17h75e01191f337989aE
Ltmp685:
	jmp	LBB153_3
LBB153_1:
	.loc	42 2901 5
	testb	$1, -137(%rbp)
	jne	LBB153_12
	jmp	LBB153_11
LBB153_2:
Ltmp694:
	.loc	42 0 5 is_stmt 0
	movq	%rax, %rcx
	movl	%edx, %eax
	movq	%rcx, -120(%rbp)
	movl	%eax, -112(%rbp)
	jmp	LBB153_1
LBB153_3:
	.loc	42 2873 14 is_stmt 1
	movq	-256(%rbp), %rax
	movq	%rax, -104(%rbp)
	.loc	42 2873 19 is_stmt 0
	movq	-248(%rbp), %rcx
	movq	-240(%rbp), %rax
	movq	%rcx, -272(%rbp)
	movq	%rax, -264(%rbp)
Ltmp696:
	.loc	42 2874 16 is_stmt 1
	cmpq	$1, -272(%rbp)
	jne	LBB153_5
	.loc	42 0 16 is_stmt 0
	movq	-296(%rbp), %rdi
	.loc	42 2874 21
	movq	-264(%rbp), %rsi
	movq	%rsi, -96(%rbp)
Ltmp690:
	.loc	42 2881 13 is_stmt 1
	callq	__ZN5alloc3vec16Vec$LT$T$C$A$GT$7reserve17h3136961ac8d3f9a3E
Ltmp691:
	jmp	LBB153_8
Ltmp697:
LBB153_5:
Ltmp686:
	.loc	42 2899 13
	leaq	l___unnamed_38(%rip), %rsi
	leaq	l___unnamed_28(%rip), %rcx
	xorl	%eax, %eax
	movl	%eax, %r8d
	leaq	-192(%rbp), %rdi
	movl	$1, %edx
	callq	__ZN4core3fmt9Arguments6new_v117hb53b1d19cf10d3f3E
Ltmp687:
	jmp	LBB153_6
LBB153_6:
Ltmp688:
	leaq	l___unnamed_39(%rip), %rsi
	leaq	-192(%rbp), %rdi
	callq	__ZN4core9panicking9panic_fmt17h9b5d807e24bcaaedE
Ltmp689:
	jmp	LBB153_7
LBB153_7:
	.loc	42 0 13 is_stmt 0
	ud2
LBB153_8:
	movq	-296(%rbp), %rax
Ltmp698:
	.loc	42 2883 27 is_stmt 1
	movq	%rax, -88(%rbp)
Ltmp699:
	.loc	42 1280 19
	movq	%rax, -80(%rbp)
Ltmp700:
	.loc	18 224 9
	movq	8(%rax), %rax
	movq	%rax, -304(%rbp)
	movq	%rax, -72(%rbp)
Ltmp701:
	.loc	19 104 9
	movq	%rax, -64(%rbp)
Ltmp702:
	.loc	17 326 9
	movq	%rax, -56(%rbp)
Ltmp703:
	.loc	42 1282 21
	movq	%rax, -48(%rbp)
Ltmp704:
	.loc	35 52 36
	movq	%rax, -136(%rbp)
	.loc	35 52 18 is_stmt 0
	movq	-136(%rbp), %rax
	movq	%rax, -40(%rbp)
Ltmp705:
	.loc	35 38 13 is_stmt 1
	movq	%rax, -32(%rbp)
Ltmp706:
	.loc	35 215 33
	movq	%rax, -24(%rbp)
	.loc	35 215 18 is_stmt 0
	movq	%rax, -16(%rbp)
	movq	-16(%rbp), %rax
Ltmp707:
	.loc	35 0 18
	movq	-304(%rbp), %rax
	movq	-296(%rbp), %rcx
Ltmp708:
	.loc	42 2884 55 is_stmt 1
	movq	%rcx, %rdx
	addq	$16, %rdx
	movq	%rdx, -8(%rbp)
Ltmp709:
	.loc	46 14 35
	movq	16(%rcx), %rcx
	.loc	46 14 9 is_stmt 0
	movq	%rdx, -224(%rbp)
	movq	%rcx, -232(%rbp)
Ltmp710:
	.loc	42 2885 17 is_stmt 1
	movb	$0, -137(%rbp)
	movq	-288(%rbp), %rdi
	movq	-280(%rbp), %rsi
	.loc	42 2885 35 is_stmt 0
	movq	%rax, -200(%rbp)
	movq	-232(%rbp), %rcx
	movq	-224(%rbp), %rax
	movq	%rcx, -216(%rbp)
	movq	%rax, -208(%rbp)
Ltmp692:
	leaq	-216(%rbp), %rdx
	.loc	42 2885 17
	callq	__ZN4core4iter6traits8iterator8Iterator8for_each17h5ba02e40254cc738E
Ltmp693:
	jmp	LBB153_10
Ltmp711:
LBB153_10:
	.loc	42 2901 6 is_stmt 1
	addq	$304, %rsp
	popq	%rbp
	retq
LBB153_11:
	.loc	42 2872 5
	movq	-120(%rbp), %rdi
	callq	__Unwind_Resume
LBB153_12:
	.loc	42 2901 5
	jmp	LBB153_11
Ltmp712:
Lfunc_end153:
	.cfi_endproc
	.section	__TEXT,__gcc_except_tab
	.p2align	2
GCC_except_table153:
Lexception24:
	.byte	255
	.byte	255
	.byte	1
	.uleb128 Lcst_end24-Lcst_begin24
Lcst_begin24:
	.uleb128 Ltmp684-Lfunc_begin153
	.uleb128 Ltmp693-Ltmp684
	.uleb128 Ltmp694-Lfunc_begin153
	.byte	0
	.uleb128 Ltmp693-Lfunc_begin153
	.uleb128 Lfunc_end153-Ltmp693
	.byte	0
	.byte	0
Lcst_end24:
	.p2align	2

	.section	__TEXT,__text,regular,pure_instructions
	.globl	__ZN5alloc3vec16Vec$LT$T$C$A$GT$14extend_trusted28_$u7b$$u7b$closure$u7d$$u7d$17h3294d4f8bd23e7cfE
	.p2align	4, 0x90
__ZN5alloc3vec16Vec$LT$T$C$A$GT$14extend_trusted28_$u7b$$u7b$closure$u7d$$u7d$17h3294d4f8bd23e7cfE:
Lfunc_begin154:
	.loc	42 2885 0
	.cfi_startproc
	pushq	%rbp
	.cfi_def_cfa_offset 16
	.cfi_offset %rbp, -16
	movq	%rsp, %rbp
	.cfi_def_cfa_register %rbp
	subq	$128, %rsp
	movq	%rdi, -128(%rbp)
	movb	%sil, %al
	movb	%al, -113(%rbp)
	movq	%rdi, -96(%rbp)
	movb	%al, -81(%rbp)
Ltmp713:
	.loc	42 2886 32 prologue_end
	movq	16(%rdi), %rax
	movq	%rax, -80(%rbp)
	.loc	42 2886 40 is_stmt 0
	movq	%rdi, -72(%rbp)
Ltmp714:
	.loc	46 24 9 is_stmt 1
	movq	(%rdi), %rcx
	movq	%rcx, -64(%rbp)
Ltmp715:
	.loc	35 1034 18
	movq	%rax, -56(%rbp)
	.loc	35 1034 30 is_stmt 0
	movq	%rcx, -48(%rbp)
Ltmp716:
	.loc	35 487 18 is_stmt 1
	addq	%rcx, %rax
	movq	%rax, -40(%rbp)
	movq	-40(%rbp), %rax
	movq	%rax, -112(%rbp)
	.loc	35 0 18 is_stmt 0
	movq	-128(%rbp), %rax
	movq	-112(%rbp), %rcx
	movb	-113(%rbp), %dl
	.loc	35 487 18
	movq	%rcx, -16(%rbp)
Ltmp717:
	.loc	42 2886 66 is_stmt 1
	movb	%dl, -97(%rbp)
Ltmp718:
	.loc	16 1354 9
	movb	-97(%rbp), %dl
	movb	%dl, (%rcx)
Ltmp719:
	.loc	42 2890 21
	movq	%rax, -8(%rbp)
Ltmp720:
	.loc	46 19 9
	movq	(%rax), %rcx
	addq	$1, %rcx
	movq	%rcx, (%rax)
Ltmp721:
	.loc	42 2891 18
	addq	$128, %rsp
	popq	%rbp
	retq
Ltmp722:
Lfunc_end154:
	.cfi_endproc

	.globl	__ZN5alloc3vec16Vec$LT$T$C$A$GT$14extend_trusted28_$u7b$$u7b$closure$u7d$$u7d$17ha0b84341bb253073E
	.p2align	4, 0x90
__ZN5alloc3vec16Vec$LT$T$C$A$GT$14extend_trusted28_$u7b$$u7b$closure$u7d$$u7d$17ha0b84341bb253073E:
Lfunc_begin155:
	.loc	42 2885 0
	.cfi_startproc
	pushq	%rbp
	.cfi_def_cfa_offset 16
	.cfi_offset %rbp, -16
	movq	%rsp, %rbp
	.cfi_def_cfa_register %rbp
	subq	$128, %rsp
	movq	%rdi, -128(%rbp)
	movb	%sil, %al
	movb	%al, -113(%rbp)
	movq	%rdi, -96(%rbp)
	movb	%al, -81(%rbp)
Ltmp723:
	.loc	42 2886 32 prologue_end
	movq	16(%rdi), %rax
	movq	%rax, -80(%rbp)
	.loc	42 2886 40 is_stmt 0
	movq	%rdi, -72(%rbp)
Ltmp724:
	.loc	46 24 9 is_stmt 1
	movq	(%rdi), %rcx
	movq	%rcx, -64(%rbp)
Ltmp725:
	.loc	35 1034 18
	movq	%rax, -56(%rbp)
	.loc	35 1034 30 is_stmt 0
	movq	%rcx, -48(%rbp)
Ltmp726:
	.loc	35 487 18 is_stmt 1
	addq	%rcx, %rax
	movq	%rax, -40(%rbp)
	movq	-40(%rbp), %rax
	movq	%rax, -112(%rbp)
	.loc	35 0 18 is_stmt 0
	movq	-128(%rbp), %rax
	movq	-112(%rbp), %rcx
	movb	-113(%rbp), %dl
	.loc	35 487 18
	movq	%rcx, -16(%rbp)
Ltmp727:
	.loc	42 2886 66 is_stmt 1
	movb	%dl, -97(%rbp)
Ltmp728:
	.loc	16 1354 9
	movb	-97(%rbp), %dl
	movb	%dl, (%rcx)
Ltmp729:
	.loc	42 2890 21
	movq	%rax, -8(%rbp)
Ltmp730:
	.loc	46 19 9
	movq	(%rax), %rcx
	addq	$1, %rcx
	movq	%rcx, (%rax)
Ltmp731:
	.loc	42 2891 18
	addq	$128, %rsp
	popq	%rbp
	retq
Ltmp732:
Lfunc_end155:
	.cfi_endproc

	.globl	__ZN5alloc3vec16Vec$LT$T$C$A$GT$15append_elements17ha2043eb8b693b166E
	.p2align	4, 0x90
__ZN5alloc3vec16Vec$LT$T$C$A$GT$15append_elements17ha2043eb8b693b166E:
Lfunc_begin156:
	.loc	42 1950 0
	.cfi_startproc
	pushq	%rbp
	.cfi_def_cfa_offset 16
	.cfi_offset %rbp, -16
	movq	%rsp, %rbp
	.cfi_def_cfa_register %rbp
	subq	$224, %rsp
	movq	%rdx, -224(%rbp)
	movq	%rsi, %rax
	movq	-224(%rbp), %rsi
	movq	%rdi, -200(%rbp)
	movq	%rax, -216(%rbp)
	movq	%rsi, -208(%rbp)
	movq	%rdi, -184(%rbp)
	movq	%rax, -176(%rbp)
	movq	%rsi, -168(%rbp)
Ltmp733:
	.loc	42 1951 30 prologue_end
	movq	%rsi, -160(%rbp)
Ltmp734:
	.loc	42 1952 9
	callq	__ZN5alloc3vec16Vec$LT$T$C$A$GT$7reserve17h3136961ac8d3f9a3E
	movq	-216(%rbp), %rsi
	movq	-208(%rbp), %rdx
	movq	-200(%rbp), %rdi
	.loc	42 1953 19
	movq	%rdi, -152(%rbp)
Ltmp735:
	.loc	42 2062 9
	movq	16(%rdi), %rcx
	movq	%rcx, -144(%rbp)
Ltmp736:
	.loc	42 1954 43
	movq	%rsi, -136(%rbp)
	.loc	42 1954 62 is_stmt 0
	movq	%rdi, -128(%rbp)
Ltmp737:
	.loc	42 1280 19 is_stmt 1
	movq	%rdi, -120(%rbp)
Ltmp738:
	.loc	18 224 9
	movq	8(%rdi), %rax
	movq	%rax, -112(%rbp)
Ltmp739:
	.loc	19 104 9
	movq	%rax, -104(%rbp)
Ltmp740:
	.loc	17 326 9
	movq	%rax, -96(%rbp)
Ltmp741:
	.loc	42 1282 21
	movq	%rax, -88(%rbp)
Ltmp742:
	.loc	35 52 36
	movq	%rax, -192(%rbp)
	.loc	35 52 18 is_stmt 0
	movq	-192(%rbp), %rdi
	movq	%rdi, -80(%rbp)
Ltmp743:
	.loc	35 38 13 is_stmt 1
	movq	%rdi, -72(%rbp)
Ltmp744:
	.loc	35 215 33
	movq	%rdi, -64(%rbp)
	.loc	35 215 18 is_stmt 0
	movq	%rdi, -56(%rbp)
Ltmp745:
	.loc	42 1954 84 is_stmt 1
	movq	%rcx, -48(%rbp)
Ltmp746:
	.loc	35 1034 18
	movq	%rax, -40(%rbp)
	.loc	35 1034 30 is_stmt 0
	movq	%rcx, -32(%rbp)
Ltmp747:
	.loc	35 487 18 is_stmt 1
	addq	%rcx, %rax
	movq	%rax, -24(%rbp)
	movq	-24(%rbp), %rdi
	movq	%rdi, -16(%rbp)
Ltmp748:
	.loc	42 1954 90
	movq	%rdx, -8(%rbp)
Ltmp749:
	.loc	43 2372 9
	shlq	$0, %rdx
	callq	_memcpy
	movq	-208(%rbp), %rdx
	movq	-200(%rbp), %rdi
Ltmp750:
	.loc	42 1955 9
	addq	16(%rdi), %rdx
	movq	%rdx, 16(%rdi)
Ltmp751:
	.loc	42 1956 6
	addq	$224, %rsp
	popq	%rbp
	retq
Ltmp752:
Lfunc_end156:
	.cfi_endproc

	.globl	__ZN5alloc3vec16Vec$LT$T$C$A$GT$4push17hc29298df5b4d2fdbE
	.p2align	4, 0x90
__ZN5alloc3vec16Vec$LT$T$C$A$GT$4push17hc29298df5b4d2fdbE:
Lfunc_begin157:
	.loc	42 1836 0
	.cfi_startproc
	.cfi_personality 155, _rust_eh_personality
	.cfi_lsda 16, Lexception25
	pushq	%rbp
	.cfi_def_cfa_offset 16
	.cfi_offset %rbp, -16
	movq	%rsp, %rbp
	.cfi_def_cfa_register %rbp
	subq	$240, %rsp
	movq	%rdi, -216(%rbp)
	movb	%sil, %al
	movb	%al, -201(%rbp)
	movq	%rdi, -168(%rbp)
	movb	%al, -153(%rbp)
Ltmp756:
	.loc	42 1839 12 prologue_end
	movq	16(%rdi), %rax
	movq	%rax, -200(%rbp)
	.loc	42 1839 24 is_stmt 0
	movq	%rdi, -152(%rbp)
Ltmp757:
	.loc	18 232 12 is_stmt 1
	xorl	%eax, %eax
	testb	$1, %al
	jne	LBB157_2
	.loc	18 0 12 is_stmt 0
	movq	-216(%rbp), %rax
	.loc	18 232 44
	movq	(%rax), %rax
	movq	%rax, -192(%rbp)
	.loc	18 232 9
	jmp	LBB157_3
LBB157_2:
	.loc	18 232 24
	movq	$-1, -192(%rbp)
Ltmp758:
LBB157_3:
	.loc	18 0 24
	movq	-200(%rbp), %rax
	.loc	42 1839 12 is_stmt 1
	cmpq	-192(%rbp), %rax
	je	LBB157_5
LBB157_4:
	.loc	42 0 12 is_stmt 0
	movq	-216(%rbp), %rax
	.loc	42 1843 23 is_stmt 1
	movq	%rax, -128(%rbp)
Ltmp759:
	.loc	42 1280 19
	movq	%rax, -120(%rbp)
Ltmp760:
	.loc	18 224 9
	movq	8(%rax), %rax
	movq	%rax, -224(%rbp)
	movq	%rax, -112(%rbp)
Ltmp761:
	.loc	19 104 9
	movq	%rax, -104(%rbp)
Ltmp762:
	.loc	17 326 9
	movq	%rax, -96(%rbp)
Ltmp763:
	.loc	42 1282 21
	movq	%rax, -88(%rbp)
Ltmp764:
	.loc	35 52 36
	movq	%rax, -176(%rbp)
	.loc	35 52 18 is_stmt 0
	movq	-176(%rbp), %rax
	movq	%rax, -80(%rbp)
Ltmp765:
	.loc	35 38 13 is_stmt 1
	movq	%rax, -72(%rbp)
Ltmp766:
	.loc	35 215 33
	movq	%rax, -64(%rbp)
	.loc	35 215 18 is_stmt 0
	movq	%rax, -56(%rbp)
	movq	-56(%rbp), %rax
	jmp	LBB157_9
Ltmp767:
LBB157_5:
	.loc	35 0 18
	movq	-216(%rbp), %rdi
	.loc	42 1840 39 is_stmt 1
	movq	16(%rdi), %rsi
Ltmp753:
	.loc	42 1840 13 is_stmt 0
	callq	__ZN5alloc7raw_vec19RawVec$LT$T$C$A$GT$16reserve_for_push17hf1a612a9b9b7e5d0E
Ltmp754:
	jmp	LBB157_8
LBB157_6:
	.loc	42 1847 5 is_stmt 1
	movb	$1, %al
	testb	$1, %al
	jne	LBB157_12
	jmp	LBB157_11
LBB157_7:
Ltmp755:
	.loc	42 0 5 is_stmt 0
	movq	%rax, %rcx
	movl	%edx, %eax
	movq	%rcx, -144(%rbp)
	movl	%eax, -136(%rbp)
	jmp	LBB157_6
LBB157_8:
	.loc	42 1839 9 is_stmt 1
	jmp	LBB157_4
LBB157_9:
	.loc	42 0 9 is_stmt 0
	movq	-224(%rbp), %rax
	movq	-216(%rbp), %rcx
	.loc	42 1843 45 is_stmt 1
	movq	16(%rcx), %rcx
	movq	%rcx, -48(%rbp)
Ltmp768:
	.loc	35 1034 18
	movq	%rax, -40(%rbp)
	.loc	35 1034 30 is_stmt 0
	movq	%rcx, -32(%rbp)
Ltmp769:
	.loc	35 487 18 is_stmt 1
	addq	%rcx, %rax
	movq	%rax, -24(%rbp)
	movq	-24(%rbp), %rax
	movq	%rax, -232(%rbp)
	.loc	35 0 18 is_stmt 0
	movq	-216(%rbp), %rax
	movq	-232(%rbp), %rcx
	movb	-201(%rbp), %dl
	.loc	35 487 18
	movq	%rcx, -16(%rbp)
Ltmp770:
	.loc	42 1844 24 is_stmt 1
	movq	%rcx, -8(%rbp)
	.loc	42 1844 29 is_stmt 0
	movb	%dl, -177(%rbp)
Ltmp771:
	.loc	16 1354 9 is_stmt 1
	movb	-177(%rbp), %dl
	movb	%dl, (%rcx)
Ltmp772:
	.loc	42 1845 13
	movq	16(%rax), %rcx
	addq	$1, %rcx
	movq	%rcx, 16(%rax)
Ltmp773:
	.loc	42 1847 6
	addq	$240, %rsp
	popq	%rbp
	retq
LBB157_11:
	.loc	42 1836 5
	movq	-144(%rbp), %rdi
	callq	__Unwind_Resume
LBB157_12:
	.loc	42 1847 5
	jmp	LBB157_11
Ltmp774:
Lfunc_end157:
	.cfi_endproc
	.section	__TEXT,__gcc_except_tab
	.p2align	2
GCC_except_table157:
Lexception25:
	.byte	255
	.byte	255
	.byte	1
	.uleb128 Lcst_end25-Lcst_begin25
Lcst_begin25:
	.uleb128 Ltmp753-Lfunc_begin157
	.uleb128 Ltmp754-Ltmp753
	.uleb128 Ltmp755-Lfunc_begin157
	.byte	0
	.uleb128 Ltmp754-Lfunc_begin157
	.uleb128 Lfunc_end157-Ltmp754
	.byte	0
	.byte	0
Lcst_end25:
	.p2align	2

	.section	__TEXT,__text,regular,pure_instructions
	.globl	__ZN5alloc3vec16Vec$LT$T$C$A$GT$7set_len17ha8136813ee08fabdE
	.p2align	4, 0x90
__ZN5alloc3vec16Vec$LT$T$C$A$GT$7set_len17ha8136813ee08fabdE:
Lfunc_begin158:
	.loc	42 1374 0
	.cfi_startproc
	pushq	%rbp
	.cfi_def_cfa_offset 16
	.cfi_offset %rbp, -16
	movq	%rsp, %rbp
	.cfi_def_cfa_register %rbp
	subq	$16, %rsp
	movq	%rdi, -16(%rbp)
	movq	%rsi, -8(%rbp)
Ltmp775:
	.loc	42 1377 9 prologue_end
	movq	%rsi, 16(%rdi)
	.loc	42 1378 6
	addq	$16, %rsp
	popq	%rbp
	retq
Ltmp776:
Lfunc_end158:
	.cfi_endproc

	.globl	__ZN5alloc3vec16Vec$LT$T$C$A$GT$8capacity17hfcb1e72085d74fc2E
	.p2align	4, 0x90
__ZN5alloc3vec16Vec$LT$T$C$A$GT$8capacity17hfcb1e72085d74fc2E:
Lfunc_begin159:
	.loc	42 888 0
	.cfi_startproc
	pushq	%rbp
	.cfi_def_cfa_offset 16
	.cfi_offset %rbp, -16
	movq	%rsp, %rbp
	.cfi_def_cfa_register %rbp
	subq	$32, %rsp
	movq	%rdi, -32(%rbp)
	movq	%rdi, -16(%rbp)
Ltmp777:
	.loc	42 889 9 prologue_end
	movq	%rdi, -8(%rbp)
Ltmp778:
	.loc	18 232 12
	xorl	%eax, %eax
	testb	$1, %al
	jne	LBB159_2
	.loc	18 0 12 is_stmt 0
	movq	-32(%rbp), %rax
	.loc	18 232 44
	movq	(%rax), %rax
	movq	%rax, -24(%rbp)
	.loc	18 232 9
	jmp	LBB159_3
LBB159_2:
	.loc	18 232 24
	movq	$-1, -24(%rbp)
Ltmp779:
LBB159_3:
	.loc	42 890 6 is_stmt 1
	movq	-24(%rbp), %rax
	addq	$32, %rsp
	popq	%rbp
	retq
Ltmp780:
Lfunc_end159:
	.cfi_endproc

	.globl	__ZN5alloc3vec9into_iter21IntoIter$LT$T$C$A$GT$16as_raw_mut_slice17h11e5646c41481a84E
	.p2align	4, 0x90
__ZN5alloc3vec9into_iter21IntoIter$LT$T$C$A$GT$16as_raw_mut_slice17h11e5646c41481a84E:
Lfunc_begin160:
	.loc	5 97 0
	.cfi_startproc
	pushq	%rbp
	.cfi_def_cfa_offset 16
	.cfi_offset %rbp, -16
	movq	%rsp, %rbp
	.cfi_def_cfa_register %rbp
	subq	$96, %rsp
	movq	%rdi, -80(%rbp)
Ltmp781:
	.loc	5 98 39 prologue_end
	movq	-80(%rbp), %rax
	movq	8(%rax), %rax
	movq	%rax, -88(%rbp)
	movq	%rax, -40(%rbp)
	leaq	-80(%rbp), %rdi
	.loc	5 98 59 is_stmt 0
	callq	__ZN83_$LT$$RF$mut$u20$I$u20$as$u20$core..iter..traits..exact_size..ExactSizeIterator$GT$3len17h64c0178339f69010E
	movq	-88(%rbp), %rcx
	movq	%rax, -32(%rbp)
Ltmp782:
	.loc	16 766 24 is_stmt 1
	movq	%rcx, -24(%rbp)
Ltmp783:
	.loc	35 60 9
	movq	%rcx, -16(%rbp)
Ltmp784:
	.loc	16 766 37
	movq	%rax, -8(%rbp)
Ltmp785:
	.loc	36 135 36
	movq	%rcx, -56(%rbp)
	movq	%rax, -48(%rbp)
	.loc	36 135 14 is_stmt 0
	movq	-56(%rbp), %rcx
	movq	-48(%rbp), %rax
	movq	%rcx, -72(%rbp)
	movq	%rax, -64(%rbp)
	movq	-72(%rbp), %rax
	movq	-64(%rbp), %rdx
Ltmp786:
	.loc	5 99 6 is_stmt 1
	addq	$96, %rsp
	popq	%rbp
	retq
Ltmp787:
Lfunc_end160:
	.cfi_endproc

	.globl	__ZN5alloc3vec9into_iter21IntoIter$LT$T$C$A$GT$25forget_remaining_elements17h28cac6150b4649e0E
	.p2align	4, 0x90
__ZN5alloc3vec9into_iter21IntoIter$LT$T$C$A$GT$25forget_remaining_elements17h28cac6150b4649e0E:
Lfunc_begin161:
	.loc	5 136 0
	.cfi_startproc
	pushq	%rbp
	.cfi_def_cfa_offset 16
	.cfi_offset %rbp, -16
	movq	%rsp, %rbp
	.cfi_def_cfa_register %rbp
	pushq	%rax
	movq	%rdi, -8(%rbp)
Ltmp788:
	.loc	5 139 20 prologue_end
	movq	8(%rdi), %rax
	.loc	5 139 9 is_stmt 0
	movq	%rax, 16(%rdi)
	.loc	5 140 6 is_stmt 1
	addq	$8, %rsp
	popq	%rbp
	retq
Ltmp789:
Lfunc_end161:
	.cfi_endproc

	.globl	__ZN5alloc3vec9into_iter21IntoIter$LT$T$C$A$GT$8as_slice17h1f8ee66a973b860fE
	.p2align	4, 0x90
__ZN5alloc3vec9into_iter21IntoIter$LT$T$C$A$GT$8as_slice17h1f8ee66a973b860fE:
Lfunc_begin162:
	.loc	5 68 0
	.cfi_startproc
	pushq	%rbp
	.cfi_def_cfa_offset 16
	.cfi_offset %rbp, -16
	movq	%rsp, %rbp
	.cfi_def_cfa_register %rbp
	subq	$112, %rsp
	movq	%rdi, -64(%rbp)
Ltmp790:
	.loc	5 69 40 prologue_end
	movq	8(%rdi), %rax
	movq	%rax, -104(%rbp)
	movq	%rax, -56(%rbp)
	.loc	5 69 50 is_stmt 0
	callq	__ZN4core4iter6traits10exact_size17ExactSizeIterator3len17h8554cae86ffd609dE
	movq	-104(%rbp), %rcx
	movq	%rax, -48(%rbp)
Ltmp791:
	.loc	34 100 37 is_stmt 1
	movq	%rcx, -40(%rbp)
	.loc	34 100 43 is_stmt 0
	movq	%rax, -32(%rbp)
Ltmp792:
	.loc	16 734 20 is_stmt 1
	movq	%rcx, -24(%rbp)
Ltmp793:
	.loc	6 61 9
	movq	%rcx, -16(%rbp)
Ltmp794:
	.loc	16 734 33
	movq	%rax, -8(%rbp)
Ltmp795:
	.loc	36 118 36
	movq	%rcx, -80(%rbp)
	movq	%rax, -72(%rbp)
	.loc	36 118 14 is_stmt 0
	movq	-80(%rbp), %rcx
	movq	-72(%rbp), %rax
	movq	%rcx, -96(%rbp)
	movq	%rax, -88(%rbp)
	movq	-96(%rbp), %rax
	movq	-88(%rbp), %rdx
Ltmp796:
	.loc	5 70 6 is_stmt 1
	addq	$112, %rsp
	popq	%rbp
	retq
Ltmp797:
Lfunc_end162:
	.cfi_endproc

	.p2align	4, 0x90
__ZN5alloc5alloc15exchange_malloc17hc91cc4764a934030E:
Lfunc_begin163:
	.file	47 "/rustc/2c8cc343237b8f7d5a3c3703e3a87f2eb2c54a74/library/alloc/src" "alloc.rs"
	.loc	47 324 0
	.cfi_startproc
	pushq	%rbp
	.cfi_def_cfa_offset 16
	.cfi_offset %rbp, -16
	movq	%rsp, %rbp
	.cfi_def_cfa_register %rbp
	subq	$208, %rsp
	movq	%rdi, -160(%rbp)
	movq	%rsi, -152(%rbp)
Ltmp798:
	.loc	47 325 61 prologue_end
	movq	%rdi, -144(%rbp)
	.loc	47 325 67 is_stmt 0
	movq	%rsi, -136(%rbp)
Ltmp799:
	.file	48 "/rustc/2c8cc343237b8f7d5a3c3703e3a87f2eb2c54a74/library/core/src/alloc" "layout.rs"
	.loc	48 120 65 is_stmt 1
	movq	%rsi, -128(%rbp)
Ltmp800:
	.file	49 "/rustc/2c8cc343237b8f7d5a3c3703e3a87f2eb2c54a74/library/core/src/ptr" "alignment.rs"
	.loc	49 89 18
	movq	%rsi, -120(%rbp)
	movq	-120(%rbp), %rax
Ltmp801:
	.loc	48 120 18
	movq	%rdi, -200(%rbp)
	movq	%rax, -192(%rbp)
Ltmp802:
	.loc	47 326 11
	leaq	l___unnamed_28(%rip), %rdi
	movq	%rdi, -112(%rbp)
	.loc	47 326 27 is_stmt 0
	movq	-200(%rbp), %rsi
	movq	-192(%rbp), %rdx
	movq	%rsi, -104(%rbp)
	movq	%rdx, -96(%rbp)
	xorl	%ecx, %ecx
Ltmp803:
	.loc	47 237 9 is_stmt 1
	callq	__ZN5alloc5alloc6Global10alloc_impl17haa8a6848305075adE
	movq	%rdx, -176(%rbp)
	movq	%rax, -184(%rbp)
Ltmp804:
	.loc	47 326 11
	movq	-184(%rbp), %rdx
	xorl	%eax, %eax
	movl	$1, %ecx
	cmpq	$0, %rdx
	cmoveq	%rcx, %rax
	.loc	47 326 5 is_stmt 0
	cmpq	$0, %rax
	jne	LBB163_2
	.loc	47 327 12 is_stmt 1
	movq	-184(%rbp), %rax
	movq	-176(%rbp), %rcx
	movq	%rax, -88(%rbp)
	movq	%rcx, -80(%rbp)
Ltmp805:
	.loc	47 327 20 is_stmt 0
	movq	%rax, -72(%rbp)
	movq	%rcx, -64(%rbp)
Ltmp806:
	.loc	17 548 9 is_stmt 1
	movq	%rax, -56(%rbp)
	movq	%rcx, -48(%rbp)
Ltmp807:
	.loc	17 529 41
	movq	%rax, -40(%rbp)
	movq	%rcx, -32(%rbp)
Ltmp808:
	.loc	17 326 9
	movq	%rax, -24(%rbp)
	movq	%rcx, -16(%rbp)
Ltmp809:
	.loc	35 2037 9
	movq	%rax, -8(%rbp)
Ltmp810:
	.loc	17 201 13
	movq	%rax, -168(%rbp)
Ltmp811:
	.loc	17 326 9
	movq	-168(%rbp), %rax
Ltmp812:
	.loc	47 330 2
	addq	$208, %rsp
	popq	%rbp
	retq
LBB163_2:
Ltmp813:
	.loc	47 328 38
	movq	-200(%rbp), %rdi
	movq	-192(%rbp), %rsi
	.loc	47 328 19 is_stmt 0
	callq	__ZN5alloc5alloc18handle_alloc_error17hb5f6ff255f23ea4dE
Ltmp814:
Lfunc_end163:
	.cfi_endproc

	.p2align	4, 0x90
__ZN5alloc5alloc6Global10alloc_impl17haa8a6848305075adE:
Lfunc_begin164:
	.loc	47 172 0 is_stmt 1
	.cfi_startproc
	pushq	%rbp
	.cfi_def_cfa_offset 16
	.cfi_offset %rbp, -16
	movq	%rsp, %rbp
	.cfi_def_cfa_register %rbp
	subq	$352, %rsp
	movb	%cl, %al
	movb	%al, -345(%rbp)
	movq	%rsi, -336(%rbp)
	movq	%rdx, -328(%rbp)
	movq	%rdi, -208(%rbp)
	andb	$1, %al
	movb	%al, -193(%rbp)
Ltmp815:
	.loc	47 173 15 prologue_end
	leaq	-336(%rbp), %rax
	movq	%rax, -144(%rbp)
Ltmp816:
	.loc	48 129 9
	movq	-336(%rbp), %rax
	movq	%rax, -344(%rbp)
Ltmp817:
	.loc	47 173 9
	cmpq	$0, %rax
	jne	LBB164_2
	.loc	47 174 51
	leaq	-336(%rbp), %rax
	movq	%rax, -48(%rbp)
Ltmp818:
	.loc	48 216 71
	leaq	-336(%rbp), %rax
	movq	%rax, -40(%rbp)
Ltmp819:
	.loc	48 140 9
	movq	-328(%rbp), %rax
	movq	%rax, -32(%rbp)
Ltmp820:
	.loc	49 97 9
	movq	%rax, -232(%rbp)
	movq	-232(%rbp), %rax
	movq	%rax, -24(%rbp)
Ltmp821:
	.loc	16 599 14
	movq	%rax, -16(%rbp)
	movq	-16(%rbp), %rax
	movq	%rax, -8(%rbp)
Ltmp822:
	.loc	17 201 13
	movq	%rax, -304(%rbp)
Ltmp823:
	.loc	47 174 21
	movq	-304(%rbp), %rdi
	xorl	%eax, %eax
	movl	%eax, %esi
	callq	__ZN4core3ptr8non_null26NonNull$LT$$u5b$T$u5d$$GT$20slice_from_raw_parts17hbf324c6726652e0aE
	.loc	47 174 18 is_stmt 0
	movq	%rax, -320(%rbp)
	movq	%rdx, -312(%rbp)
	.loc	47 174 72
	jmp	LBB164_15
LBB164_2:
	.loc	47 0 72
	movb	-345(%rbp), %al
	movq	-344(%rbp), %rcx
	.loc	47 176 13 is_stmt 1
	movq	%rcx, -136(%rbp)
Ltmp824:
	.loc	47 177 34
	testb	$1, %al
	jne	LBB164_4
	.loc	47 177 79 is_stmt 0
	movq	-336(%rbp), %rcx
	movq	-328(%rbp), %rax
	movq	%rcx, -272(%rbp)
	movq	%rax, -264(%rbp)
Ltmp825:
	.loc	47 95 27 is_stmt 1
	leaq	-272(%rbp), %rax
	movq	%rax, -104(%rbp)
Ltmp826:
	.loc	48 129 9
	movq	-272(%rbp), %rdi
Ltmp827:
	.loc	47 95 42
	leaq	-272(%rbp), %rax
	movq	%rax, -96(%rbp)
Ltmp828:
	.loc	48 140 9
	movq	-264(%rbp), %rax
	movq	%rax, -88(%rbp)
Ltmp829:
	.loc	49 97 9
	movq	%rax, -216(%rbp)
	movq	-216(%rbp), %rsi
Ltmp830:
	.loc	47 95 14
	callq	___rust_alloc
	movq	%rax, -296(%rbp)
Ltmp831:
	.loc	47 177 31
	jmp	LBB164_5
LBB164_4:
	.loc	47 177 56 is_stmt 0
	movq	-336(%rbp), %rcx
	movq	-328(%rbp), %rax
	movq	%rcx, -288(%rbp)
	movq	%rax, -280(%rbp)
Ltmp832:
	.loc	47 166 34 is_stmt 1
	leaq	-288(%rbp), %rax
	movq	%rax, -128(%rbp)
Ltmp833:
	.loc	48 129 9
	movq	-288(%rbp), %rdi
Ltmp834:
	.loc	47 166 49
	leaq	-288(%rbp), %rax
	movq	%rax, -120(%rbp)
Ltmp835:
	.loc	48 140 9
	movq	-280(%rbp), %rax
	movq	%rax, -112(%rbp)
Ltmp836:
	.loc	49 97 9
	movq	%rax, -224(%rbp)
	movq	-224(%rbp), %rsi
Ltmp837:
	.loc	47 166 14
	callq	___rust_alloc_zeroed
	movq	%rax, -296(%rbp)
Ltmp838:
LBB164_5:
	.loc	47 178 40
	movq	-296(%rbp), %rdi
	.loc	47 178 27 is_stmt 0
	callq	__ZN4core3ptr8non_null16NonNull$LT$T$GT$3new17hfd1336a55fef0a55E
	movq	%rax, -240(%rbp)
Ltmp839:
	.loc	27 1096 15 is_stmt 1
	movq	-240(%rbp), %rdx
	movl	$1, %eax
	xorl	%ecx, %ecx
	cmpq	$0, %rdx
	cmoveq	%rcx, %rax
	.loc	27 1096 9 is_stmt 0
	cmpq	$0, %rax
	jne	LBB164_7
	.loc	27 1098 21 is_stmt 1
	movq	$0, -248(%rbp)
	.loc	27 1098 28 is_stmt 0
	jmp	LBB164_8
LBB164_7:
	.loc	27 1097 18 is_stmt 1
	movq	-240(%rbp), %rax
	movq	%rax, -80(%rbp)
Ltmp840:
	.loc	27 1097 24 is_stmt 0
	movq	%rax, -248(%rbp)
Ltmp841:
LBB164_8:
	.loc	37 2091 15 is_stmt 1
	movq	-248(%rbp), %rdx
	xorl	%eax, %eax
	movl	$1, %ecx
	cmpq	$0, %rdx
	cmoveq	%rcx, %rax
	.loc	37 2091 9 is_stmt 0
	cmpq	$0, %rax
	jne	LBB164_10
	.loc	37 2092 16 is_stmt 1
	movq	-248(%rbp), %rax
	movq	%rax, -72(%rbp)
Ltmp842:
	.loc	37 2092 22 is_stmt 0
	movq	%rax, -256(%rbp)
Ltmp843:
	.loc	37 2092 45
	jmp	LBB164_11
LBB164_10:
Ltmp844:
	.loc	37 2093 23 is_stmt 1
	movq	$0, -256(%rbp)
Ltmp845:
LBB164_11:
	.loc	47 178 27
	movq	-256(%rbp), %rdx
	xorl	%eax, %eax
	movl	$1, %ecx
	cmpq	$0, %rdx
	cmoveq	%rcx, %rax
	cmpq	$0, %rax
	jne	LBB164_13
	.loc	47 0 27 is_stmt 0
	movq	-344(%rbp), %rsi
	.loc	47 178 27
	movq	-256(%rbp), %rdi
	movq	%rdi, -64(%rbp)
Ltmp846:
	.loc	47 178 27
	movq	%rdi, -56(%rbp)
Ltmp847:
	.loc	47 179 20 is_stmt 1
	callq	__ZN4core3ptr8non_null26NonNull$LT$$u5b$T$u5d$$GT$20slice_from_raw_parts17hbf324c6726652e0aE
	.loc	47 179 17 is_stmt 0
	movq	%rax, -320(%rbp)
	movq	%rdx, -312(%rbp)
Ltmp848:
	.loc	47 180 13 is_stmt 1
	jmp	LBB164_15
LBB164_13:
Ltmp849:
	.loc	37 2107 23
	movq	$0, -320(%rbp)
Ltmp850:
LBB164_14:
	.loc	47 182 6
	movq	-320(%rbp), %rax
	movq	-312(%rbp), %rdx
	addq	$352, %rsp
	popq	%rbp
	retq
LBB164_15:
	jmp	LBB164_14
Ltmp851:
Lfunc_end164:
	.cfi_endproc

	.globl	__ZN5alloc5alloc8box_free17h506db95b3f8a1a16E
	.p2align	4, 0x90
__ZN5alloc5alloc8box_free17h506db95b3f8a1a16E:
Lfunc_begin165:
	.loc	47 340 0
	.cfi_startproc
	.cfi_personality 155, _rust_eh_personality
	.cfi_lsda 16, Lexception26
	pushq	%rbp
	.cfi_def_cfa_offset 16
	.cfi_offset %rbp, -16
	movq	%rsp, %rbp
	.cfi_def_cfa_register %rbp
	subq	$304, %rsp
	movq	%rdi, -288(%rbp)
	movq	%rsi, -280(%rbp)
Ltmp855:
	.loc	47 345 32 prologue_end
	leaq	-288(%rbp), %rax
	movq	%rax, -224(%rbp)
Ltmp856:
	.loc	19 117 18
	leaq	-288(%rbp), %rax
	movq	%rax, -216(%rbp)
Ltmp857:
	.loc	17 376 20
	movq	-288(%rbp), %rcx
	movq	-280(%rbp), %rax
	movq	%rcx, -208(%rbp)
	movq	%rax, -200(%rbp)
Ltmp858:
	.loc	47 345 20
	shlq	$0, %rax
	movq	%rax, -192(%rbp)
	movq	-192(%rbp), %rcx
	movq	%rcx, -304(%rbp)
	movq	%rcx, -184(%rbp)
Ltmp859:
	.loc	47 346 38
	leaq	-288(%rbp), %rax
	movq	%rax, -176(%rbp)
Ltmp860:
	.loc	19 117 18
	leaq	-288(%rbp), %rax
	movq	%rax, -168(%rbp)
Ltmp861:
	.loc	17 376 20
	movq	-288(%rbp), %rdx
	movq	-280(%rbp), %rax
	movq	%rdx, -160(%rbp)
	movq	%rax, -152(%rbp)
Ltmp862:
	.loc	47 346 21
	movq	$1, -144(%rbp)
	movq	-144(%rbp), %rax
	movq	%rax, -136(%rbp)
Ltmp863:
	.loc	47 347 56
	movq	%rcx, -128(%rbp)
	.loc	47 347 62 is_stmt 0
	movq	%rax, -120(%rbp)
Ltmp864:
	.loc	48 120 65 is_stmt 1
	movq	%rax, -112(%rbp)
Ltmp865:
	.loc	49 89 18
	movq	%rax, -104(%rbp)
	movq	-104(%rbp), %rax
	movq	%rax, -296(%rbp)
Ltmp866:
	.loc	49 0 18 is_stmt 0
	movq	-296(%rbp), %rax
	movq	-304(%rbp), %rcx
	.loc	48 120 18 is_stmt 1
	movq	%rcx, -264(%rbp)
	movq	%rax, -256(%rbp)
Ltmp867:
	.loc	47 348 37
	movq	-288(%rbp), %rax
	movq	-280(%rbp), %rcx
	movq	%rax, -96(%rbp)
	movq	%rcx, -88(%rbp)
Ltmp868:
	.loc	19 137 22
	movq	%rax, -80(%rbp)
	movq	%rcx, -72(%rbp)
Ltmp869:
	.loc	17 450 41
	movq	%rax, -64(%rbp)
	movq	%rcx, -56(%rbp)
	movq	%rax, -48(%rbp)
Ltmp870:
	.loc	17 201 13
	movq	%rax, -232(%rbp)
Ltmp871:
	.loc	19 191 18
	movq	-232(%rbp), %rax
	.loc	19 191 9 is_stmt 0
	movq	%rax, -240(%rbp)
Ltmp872:
	.loc	17 768 41 is_stmt 1
	movq	-240(%rbp), %rax
	movq	%rax, -40(%rbp)
Ltmp873:
	.loc	19 104 9
	movq	%rax, -32(%rbp)
Ltmp874:
	.loc	17 326 9
	movq	%rax, -24(%rbp)
Ltmp875:
	.loc	17 201 13
	movq	%rax, -248(%rbp)
Ltmp876:
	.loc	47 348 50
	movq	-264(%rbp), %rdx
	movq	-256(%rbp), %rcx
	.loc	47 348 9 is_stmt 0
	movq	-248(%rbp), %rsi
Ltmp852:
	leaq	-272(%rbp), %rdi
	callq	__ZN63_$LT$alloc..alloc..Global$u20$as$u20$core..alloc..Allocator$GT$10deallocate17he7b231ac730dd472E
Ltmp853:
	jmp	LBB165_4
Ltmp877:
LBB165_2:
	.loc	47 340 1 is_stmt 1
	movq	-16(%rbp), %rdi
	callq	__Unwind_Resume
LBB165_3:
Ltmp854:
	.loc	47 0 1 is_stmt 0
	movq	%rax, %rcx
	movl	%edx, %eax
	movq	%rcx, -16(%rbp)
	movl	%eax, -8(%rbp)
	jmp	LBB165_2
LBB165_4:
	.loc	47 350 2 is_stmt 1
	addq	$304, %rsp
	popq	%rbp
	retq
Ltmp878:
Lfunc_end165:
	.cfi_endproc
	.section	__TEXT,__gcc_except_tab
	.p2align	2
GCC_except_table165:
Lexception26:
	.byte	255
	.byte	255
	.byte	1
	.uleb128 Lcst_end26-Lcst_begin26
Lcst_begin26:
	.uleb128 Ltmp852-Lfunc_begin165
	.uleb128 Ltmp853-Ltmp852
	.uleb128 Ltmp854-Lfunc_begin165
	.byte	0
	.uleb128 Ltmp853-Lfunc_begin165
	.uleb128 Lfunc_end165-Ltmp853
	.byte	0
	.byte	0
Lcst_end26:
	.p2align	2

	.section	__TEXT,__text,regular,pure_instructions
	.globl	__ZN5alloc5alloc8box_free17hfc0f3f690e27e9ebE
	.p2align	4, 0x90
__ZN5alloc5alloc8box_free17hfc0f3f690e27e9ebE:
Lfunc_begin166:
	.loc	47 340 0
	.cfi_startproc
	.cfi_personality 155, _rust_eh_personality
	.cfi_lsda 16, Lexception27
	pushq	%rbp
	.cfi_def_cfa_offset 16
	.cfi_offset %rbp, -16
	movq	%rsp, %rbp
	.cfi_def_cfa_register %rbp
	subq	$256, %rsp
	movq	%rdi, -240(%rbp)
Ltmp882:
	.loc	47 345 32 prologue_end
	leaq	-240(%rbp), %rax
	movq	%rax, -184(%rbp)
Ltmp883:
	.loc	19 117 18
	leaq	-240(%rbp), %rax
	movq	%rax, -176(%rbp)
Ltmp884:
	.loc	17 376 20
	movq	-240(%rbp), %rax
	movq	%rax, -168(%rbp)
Ltmp885:
	.loc	47 345 20
	movq	$65688, -160(%rbp)
	movq	-160(%rbp), %rcx
	movq	%rcx, -256(%rbp)
	movq	%rcx, -152(%rbp)
Ltmp886:
	.loc	47 346 38
	leaq	-240(%rbp), %rax
	movq	%rax, -144(%rbp)
Ltmp887:
	.loc	19 117 18
	leaq	-240(%rbp), %rax
	movq	%rax, -136(%rbp)
Ltmp888:
	.loc	17 376 20
	movq	-240(%rbp), %rax
	movq	%rax, -128(%rbp)
Ltmp889:
	.loc	47 346 21
	movq	$8, -120(%rbp)
	movq	-120(%rbp), %rax
	movq	%rax, -112(%rbp)
Ltmp890:
	.loc	47 347 56
	movq	%rcx, -104(%rbp)
	.loc	47 347 62 is_stmt 0
	movq	%rax, -96(%rbp)
Ltmp891:
	.loc	48 120 65 is_stmt 1
	movq	%rax, -88(%rbp)
Ltmp892:
	.loc	49 89 18
	movq	%rax, -80(%rbp)
	movq	-80(%rbp), %rax
	movq	%rax, -248(%rbp)
Ltmp893:
	.loc	49 0 18 is_stmt 0
	movq	-248(%rbp), %rax
	movq	-256(%rbp), %rcx
	.loc	48 120 18 is_stmt 1
	movq	%rcx, -224(%rbp)
	movq	%rax, -216(%rbp)
Ltmp894:
	.loc	47 348 37
	movq	-240(%rbp), %rax
	movq	%rax, -72(%rbp)
Ltmp895:
	.loc	19 137 22
	movq	%rax, -64(%rbp)
Ltmp896:
	.loc	17 450 41
	movq	%rax, -56(%rbp)
	movq	%rax, -48(%rbp)
Ltmp897:
	.loc	17 201 13
	movq	%rax, -192(%rbp)
Ltmp898:
	.loc	19 191 18
	movq	-192(%rbp), %rax
	.loc	19 191 9 is_stmt 0
	movq	%rax, -200(%rbp)
Ltmp899:
	.loc	17 768 41 is_stmt 1
	movq	-200(%rbp), %rax
	movq	%rax, -40(%rbp)
Ltmp900:
	.loc	19 104 9
	movq	%rax, -32(%rbp)
Ltmp901:
	.loc	17 326 9
	movq	%rax, -24(%rbp)
Ltmp902:
	.loc	17 201 13
	movq	%rax, -208(%rbp)
Ltmp903:
	.loc	47 348 50
	movq	-224(%rbp), %rdx
	movq	-216(%rbp), %rcx
	.loc	47 348 9 is_stmt 0
	movq	-208(%rbp), %rsi
Ltmp879:
	leaq	-232(%rbp), %rdi
	callq	__ZN63_$LT$alloc..alloc..Global$u20$as$u20$core..alloc..Allocator$GT$10deallocate17he7b231ac730dd472E
Ltmp880:
	jmp	LBB166_4
Ltmp904:
LBB166_2:
	.loc	47 340 1 is_stmt 1
	movq	-16(%rbp), %rdi
	callq	__Unwind_Resume
LBB166_3:
Ltmp881:
	.loc	47 0 1 is_stmt 0
	movq	%rax, %rcx
	movl	%edx, %eax
	movq	%rcx, -16(%rbp)
	movl	%eax, -8(%rbp)
	jmp	LBB166_2
LBB166_4:
	.loc	47 350 2 is_stmt 1
	addq	$256, %rsp
	popq	%rbp
	retq
Ltmp905:
Lfunc_end166:
	.cfi_endproc
	.section	__TEXT,__gcc_except_tab
	.p2align	2
GCC_except_table166:
Lexception27:
	.byte	255
	.byte	255
	.byte	1
	.uleb128 Lcst_end27-Lcst_begin27
Lcst_begin27:
	.uleb128 Ltmp879-Lfunc_begin166
	.uleb128 Ltmp880-Ltmp879
	.uleb128 Ltmp881-Lfunc_begin166
	.byte	0
	.uleb128 Ltmp880-Lfunc_begin166
	.uleb128 Lfunc_end166-Ltmp880
	.byte	0
	.byte	0
Lcst_end27:
	.p2align	2

	.section	__TEXT,__text,regular,pure_instructions
	.globl	__ZN5alloc5slice64_$LT$impl$u20$alloc..borrow..ToOwned$u20$for$u20$$u5b$T$u5d$$GT$8to_owned17h34cdf07ca6e98f92E
	.p2align	4, 0x90
__ZN5alloc5slice64_$LT$impl$u20$alloc..borrow..ToOwned$u20$for$u20$$u5b$T$u5d$$GT$8to_owned17h34cdf07ca6e98f92E:
Lfunc_begin167:
	.loc	41 790 0
	.cfi_startproc
	pushq	%rbp
	.cfi_def_cfa_offset 16
	.cfi_offset %rbp, -16
	movq	%rsp, %rbp
	.cfi_def_cfa_register %rbp
	subq	$96, %rsp
	movq	%rdi, %rax
	movq	%rax, -88(%rbp)
	movq	%rsi, -80(%rbp)
	movq	%rdx, -72(%rbp)
Ltmp906:
	.loc	41 791 9 prologue_end
	movq	%rsi, -48(%rbp)
	movq	%rdx, -40(%rbp)
Ltmp907:
	.loc	41 416 9
	movq	%rsi, -32(%rbp)
	movq	%rdx, -24(%rbp)
Ltmp908:
	.loc	41 441 22
	movq	%rsi, -16(%rbp)
	movq	%rdx, -8(%rbp)
Ltmp909:
	.loc	41 111 9
	callq	__ZN52_$LT$T$u20$as$u20$alloc..slice..hack..ConvertVec$GT$6to_vec17h777d513707a10ea9E
	movq	-88(%rbp), %rax
Ltmp910:
	.loc	41 792 6
	addq	$96, %rsp
	popq	%rbp
	retq
Ltmp911:
Lfunc_end167:
	.cfi_endproc

	.p2align	4, 0x90
__ZN5alloc7raw_vec14handle_reserve17h4f9caf88add44144E:
Lfunc_begin168:
	.loc	18 487 0
	.cfi_startproc
	pushq	%rbp
	.cfi_def_cfa_offset 16
	.cfi_offset %rbp, -16
	movq	%rsp, %rbp
	.cfi_def_cfa_register %rbp
	subq	$48, %rsp
	movq	%rdi, -32(%rbp)
	movq	%rsi, -24(%rbp)
Ltmp912:
	.loc	18 488 11 prologue_end
	callq	__ZN4core6result19Result$LT$T$C$E$GT$7map_err17h57b4cceda24d020fE
	movq	%rdx, -40(%rbp)
	movq	%rax, -48(%rbp)
	movabsq	$-9223372036854775807, %rdx
	movl	$1, %eax
	xorl	%ecx, %ecx
	cmpq	%rdx, -40(%rbp)
	cmoveq	%rcx, %rax
	.loc	18 488 5 is_stmt 0
	cmpq	$0, %rax
	jne	LBB168_2
	.loc	18 493 2 is_stmt 1
	addq	$48, %rsp
	popq	%rbp
	retq
LBB168_2:
	.loc	18 488 11
	movl	$1, %eax
	xorl	%ecx, %ecx
	cmpq	$0, -40(%rbp)
	cmoveq	%rcx, %rax
	.loc	18 488 5 is_stmt 0
	cmpq	$0, %rax
	jne	LBB168_4
	.loc	18 489 34 is_stmt 1
	callq	__ZN5alloc7raw_vec17capacity_overflow17h082ee8492f253a0eE
LBB168_4:
	.loc	18 490 26
	movq	-48(%rbp), %rdi
	movq	-40(%rbp), %rsi
	movq	%rdi, -16(%rbp)
	movq	%rsi, -8(%rbp)
Ltmp913:
	.loc	18 490 43 is_stmt 0
	callq	__ZN5alloc5alloc18handle_alloc_error17hb5f6ff255f23ea4dE
Ltmp914:
Lfunc_end168:
	.cfi_endproc

	.globl	__ZN5alloc7raw_vec19RawVec$LT$T$C$A$GT$16reserve_for_push17hf1a612a9b9b7e5d0E
	.p2align	4, 0x90
__ZN5alloc7raw_vec19RawVec$LT$T$C$A$GT$16reserve_for_push17hf1a612a9b9b7e5d0E:
Lfunc_begin169:
	.loc	18 297 0 is_stmt 1
	.cfi_startproc
	pushq	%rbp
	.cfi_def_cfa_offset 16
	.cfi_offset %rbp, -16
	movq	%rsp, %rbp
	.cfi_def_cfa_register %rbp
	subq	$16, %rsp
	movq	%rdi, -16(%rbp)
	movq	%rsi, -8(%rbp)
Ltmp915:
	.loc	18 298 24 prologue_end
	movl	$1, %edx
	callq	__ZN5alloc7raw_vec19RawVec$LT$T$C$A$GT$14grow_amortized17hb5448b30bb8a2c9aE
	movq	%rax, %rdi
	movq	%rdx, %rsi
	.loc	18 298 9 is_stmt 0
	callq	__ZN5alloc7raw_vec14handle_reserve17h4f9caf88add44144E
	.loc	18 299 6 is_stmt 1
	addq	$16, %rsp
	popq	%rbp
	retq
Ltmp916:
Lfunc_end169:
	.cfi_endproc

	.globl	__ZN5alloc7raw_vec19RawVec$LT$T$C$A$GT$9allocator17h7a715ac5decf4d0eE
	.p2align	4, 0x90
__ZN5alloc7raw_vec19RawVec$LT$T$C$A$GT$9allocator17h7a715ac5decf4d0eE:
Lfunc_begin170:
	.loc	18 236 0
	.cfi_startproc
	pushq	%rbp
	.cfi_def_cfa_offset 16
	.cfi_offset %rbp, -16
	movq	%rsp, %rbp
	.cfi_def_cfa_register %rbp
	pushq	%rax
	movq	%rdi, %rax
	movq	%rax, -8(%rbp)
Ltmp917:
	.loc	18 238 6 prologue_end
	addq	$8, %rsp
	popq	%rbp
	retq
Ltmp918:
Lfunc_end170:
	.cfi_endproc

	.globl	__ZN63_$LT$I$u20$as$u20$core..iter..traits..collect..IntoIterator$GT$9into_iter17h41bbe67cfe2b2d62E
	.p2align	4, 0x90
__ZN63_$LT$I$u20$as$u20$core..iter..traits..collect..IntoIterator$GT$9into_iter17h41bbe67cfe2b2d62E:
Lfunc_begin171:
	.file	50 "/rustc/2c8cc343237b8f7d5a3c3703e3a87f2eb2c54a74/library/core/src/iter/traits" "collect.rs"
	.loc	50 272 0
	.cfi_startproc
	pushq	%rbp
	.cfi_def_cfa_offset 16
	.cfi_offset %rbp, -16
	movq	%rsp, %rbp
	.cfi_def_cfa_register %rbp
	subq	$16, %rsp
	movq	%rsi, %rdx
	movq	%rdi, %rax
	movq	%rax, -16(%rbp)
	movq	%rdx, -8(%rbp)
Ltmp919:
	.loc	50 274 6 prologue_end
	addq	$16, %rsp
	popq	%rbp
	retq
Ltmp920:
Lfunc_end171:
	.cfi_endproc

	.globl	__ZN63_$LT$I$u20$as$u20$core..iter..traits..collect..IntoIterator$GT$9into_iter17hd0e586c164816077E
	.p2align	4, 0x90
__ZN63_$LT$I$u20$as$u20$core..iter..traits..collect..IntoIterator$GT$9into_iter17hd0e586c164816077E:
Lfunc_begin172:
	.loc	50 272 0
	.cfi_startproc
	pushq	%rbp
	.cfi_def_cfa_offset 16
	.cfi_offset %rbp, -16
	movq	%rsp, %rbp
	.cfi_def_cfa_register %rbp
	subq	$16, %rsp
	movq	%rdi, %rax
	movq	%rax, -8(%rbp)
Ltmp921:
	.loc	50 273 9 prologue_end
	movl	$56, %edx
	callq	_memcpy
Ltmp922:
	.loc	50 0 9 is_stmt 0
	movq	-8(%rbp), %rax
	.loc	50 274 6 is_stmt 1
	addq	$16, %rsp
	popq	%rbp
	retq
Ltmp923:
Lfunc_end172:
	.cfi_endproc

	.globl	__ZN63_$LT$I$u20$as$u20$core..iter..traits..collect..IntoIterator$GT$9into_iter17hdfca47ce19c0dbefE
	.p2align	4, 0x90
__ZN63_$LT$I$u20$as$u20$core..iter..traits..collect..IntoIterator$GT$9into_iter17hdfca47ce19c0dbefE:
Lfunc_begin173:
	.loc	50 272 0
	.cfi_startproc
	pushq	%rbp
	.cfi_def_cfa_offset 16
	.cfi_offset %rbp, -16
	movq	%rsp, %rbp
	.cfi_def_cfa_register %rbp
	subq	$16, %rsp
	movq	%rsi, %rdx
	movq	%rdi, %rax
	movq	%rax, -16(%rbp)
	movq	%rdx, -8(%rbp)
Ltmp924:
	.loc	50 274 6 prologue_end
	addq	$16, %rsp
	popq	%rbp
	retq
Ltmp925:
Lfunc_end173:
	.cfi_endproc

	.p2align	4, 0x90
__ZN63_$LT$alloc..alloc..Global$u20$as$u20$core..alloc..Allocator$GT$10deallocate17he7b231ac730dd472E:
Lfunc_begin174:
	.loc	47 246 0
	.cfi_startproc
	pushq	%rbp
	.cfi_def_cfa_offset 16
	.cfi_offset %rbp, -16
	movq	%rsp, %rbp
	.cfi_def_cfa_register %rbp
	subq	$112, %rsp
	movq	%rsi, -112(%rbp)
	movq	%rdx, -104(%rbp)
	movq	%rcx, -96(%rbp)
	movq	%rdi, -64(%rbp)
	movq	%rsi, -56(%rbp)
Ltmp926:
	.loc	47 247 12 prologue_end
	leaq	-104(%rbp), %rax
	movq	%rax, -48(%rbp)
	cmpq	$0, -104(%rbp)
	jne	LBB174_2
	.loc	47 247 9 is_stmt 0
	jmp	LBB174_3
LBB174_2:
	.loc	47 0 9
	movq	-112(%rbp), %rdi
	.loc	47 250 30 is_stmt 1
	movq	%rdi, -40(%rbp)
Ltmp927:
	.loc	17 326 9
	movq	%rdi, -32(%rbp)
Ltmp928:
	.loc	47 250 44
	movq	-104(%rbp), %rcx
	movq	-96(%rbp), %rax
	movq	%rcx, -88(%rbp)
	movq	%rax, -80(%rbp)
Ltmp929:
	.loc	47 113 34
	leaq	-88(%rbp), %rax
	movq	%rax, -24(%rbp)
Ltmp930:
	.loc	48 129 9
	movq	-88(%rbp), %rsi
Ltmp931:
	.loc	47 113 49
	leaq	-88(%rbp), %rax
	movq	%rax, -16(%rbp)
Ltmp932:
	.loc	48 140 9
	movq	-80(%rbp), %rax
	movq	%rax, -8(%rbp)
Ltmp933:
	.loc	49 97 9
	movq	%rax, -72(%rbp)
	movq	-72(%rbp), %rdx
Ltmp934:
	.loc	47 113 14
	callq	___rust_dealloc
Ltmp935:
LBB174_3:
	.loc	47 252 6
	addq	$112, %rsp
	popq	%rbp
	retq
Ltmp936:
Lfunc_end174:
	.cfi_endproc

	.globl	__ZN65_$LT$alloc..vec..Vec$LT$T$C$A$GT$$u20$as$u20$core..fmt..Debug$GT$3fmt17h6f448635d1c93270E
	.p2align	4, 0x90
__ZN65_$LT$alloc..vec..Vec$LT$T$C$A$GT$$u20$as$u20$core..fmt..Debug$GT$3fmt17h6f448635d1c93270E:
Lfunc_begin175:
	.loc	42 3078 0
	.cfi_startproc
	pushq	%rbp
	.cfi_def_cfa_offset 16
	.cfi_offset %rbp, -16
	movq	%rsp, %rbp
	.cfi_def_cfa_register %rbp
	subq	$32, %rsp
	movq	%rsi, -24(%rbp)
	movq	%rdi, -16(%rbp)
	movq	%rsi, -8(%rbp)
Ltmp937:
	.loc	42 3079 26 prologue_end
	callq	__ZN72_$LT$alloc..vec..Vec$LT$T$C$A$GT$$u20$as$u20$core..ops..deref..Deref$GT$5deref17h5243720630d7ad0fE
	movq	%rax, %rdi
	movq	%rdx, %rsi
	movq	-24(%rbp), %rdx
	.loc	42 3079 9 is_stmt 0
	callq	__ZN48_$LT$$u5b$T$u5d$$u20$as$u20$core..fmt..Debug$GT$3fmt17he60f13eeec887ee9E
	.loc	42 3080 6 is_stmt 1
	andb	$1, %al
	movzbl	%al, %eax
	addq	$32, %rsp
	popq	%rbp
	retq
Ltmp938:
Lfunc_end175:
	.cfi_endproc

	.p2align	4, 0x90
__ZN65_$LT$crc32fast..baseline..State$u20$as$u20$core..clone..Clone$GT$5clone17h60f1ab4f958705ecE:
Lfunc_begin176:
	.file	51 "/Users/natalie/.cargo/registry/src/github.com-1ecc6299db9ec823/crc32fast-1.3.2/src" "baseline.rs"
	.loc	51 3 0
	.cfi_startproc
	pushq	%rbp
	.cfi_def_cfa_offset 16
	.cfi_offset %rbp, -16
	movq	%rsp, %rbp
	.cfi_def_cfa_register %rbp
	subq	$16, %rsp
	movq	%rdi, -8(%rbp)
Ltmp939:
	.loc	51 5 5 prologue_end
	movl	(%rdi), %eax
	.loc	51 3 10
	movl	%eax, -12(%rbp)
	.loc	51 3 15 is_stmt 0
	movl	-12(%rbp), %eax
	addq	$16, %rsp
	popq	%rbp
	retq
Ltmp940:
Lfunc_end176:
	.cfi_endproc

	.globl	__ZN66_$LT$core..option..Option$LT$T$GT$$u20$as$u20$core..fmt..Debug$GT$3fmt17h0797c7cebb40709cE
	.p2align	4, 0x90
__ZN66_$LT$core..option..Option$LT$T$GT$$u20$as$u20$core..fmt..Debug$GT$3fmt17h0797c7cebb40709cE:
Lfunc_begin177:
	.loc	27 559 0 is_stmt 1
	.cfi_startproc
	pushq	%rbp
	.cfi_def_cfa_offset 16
	.cfi_offset %rbp, -16
	movq	%rsp, %rbp
	.cfi_def_cfa_register %rbp
	subq	$48, %rsp
	movq	%rdi, -48(%rbp)
	movq	%rsi, -40(%rbp)
	movq	%rdi, -16(%rbp)
	movq	%rsi, -8(%rbp)
Ltmp941:
	.loc	27 559 37 prologue_end
	cmpq	$0, (%rdi)
	jne	LBB177_2
	.loc	27 0 37 is_stmt 0
	movq	-40(%rbp), %rdi
	.loc	27 559 37
	leaq	L___unnamed_40(%rip), %rsi
	movl	$4, %edx
	callq	__ZN4core3fmt9Formatter9write_str17hb029d9999327a35fE
	andb	$1, %al
	movb	%al, -25(%rbp)
	.loc	27 559 41
	jmp	LBB177_3
LBB177_2:
	.loc	27 0 41
	movq	-40(%rbp), %rdi
	movq	-48(%rbp), %rax
	.loc	27 570 56 is_stmt 1
	addq	$8, %rax
	movq	%rax, -24(%rbp)
Ltmp942:
	.loc	27 559 37
	leaq	L___unnamed_41(%rip), %rsi
	movl	$4, %edx
	leaq	-24(%rbp), %rcx
	leaq	l___unnamed_8(%rip), %r8
	callq	__ZN4core3fmt9Formatter25debug_tuple_field1_finish17h7c0e485bb1c7676eE
	andb	$1, %al
	movb	%al, -25(%rbp)
Ltmp943:
LBB177_3:
	.loc	27 559 42 is_stmt 0
	movb	-25(%rbp), %al
	andb	$1, %al
	movzbl	%al, %eax
	addq	$48, %rsp
	popq	%rbp
	retq
Ltmp944:
Lfunc_end177:
	.cfi_endproc

	.globl	__ZN66_$LT$core..option..Option$LT$T$GT$$u20$as$u20$core..fmt..Debug$GT$3fmt17h4ebd66c1b6b67c19E
	.p2align	4, 0x90
__ZN66_$LT$core..option..Option$LT$T$GT$$u20$as$u20$core..fmt..Debug$GT$3fmt17h4ebd66c1b6b67c19E:
Lfunc_begin178:
	.loc	27 559 0 is_stmt 1
	.cfi_startproc
	pushq	%rbp
	.cfi_def_cfa_offset 16
	.cfi_offset %rbp, -16
	movq	%rsp, %rbp
	.cfi_def_cfa_register %rbp
	subq	$48, %rsp
	movq	%rdi, -48(%rbp)
	movq	%rsi, -40(%rbp)
	movq	%rdi, -16(%rbp)
	movq	%rsi, -8(%rbp)
Ltmp945:
	.loc	27 559 37 prologue_end
	movq	(%rdi), %rdx
	movl	$1, %eax
	xorl	%ecx, %ecx
	cmpq	$0, %rdx
	cmoveq	%rcx, %rax
	cmpq	$0, %rax
	jne	LBB178_2
	.loc	27 0 37 is_stmt 0
	movq	-40(%rbp), %rdi
	.loc	27 559 37
	leaq	L___unnamed_40(%rip), %rsi
	movl	$4, %edx
	callq	__ZN4core3fmt9Formatter9write_str17hb029d9999327a35fE
	andb	$1, %al
	movb	%al, -25(%rbp)
	.loc	27 559 41
	jmp	LBB178_3
LBB178_2:
	.loc	27 0 41
	movq	-40(%rbp), %rdi
	movq	-48(%rbp), %rax
	.loc	27 570 56 is_stmt 1
	movq	%rax, -24(%rbp)
Ltmp946:
	.loc	27 559 37
	leaq	L___unnamed_41(%rip), %rsi
	movl	$4, %edx
	leaq	-24(%rbp), %rcx
	leaq	l___unnamed_9(%rip), %r8
	callq	__ZN4core3fmt9Formatter25debug_tuple_field1_finish17h7c0e485bb1c7676eE
	andb	$1, %al
	movb	%al, -25(%rbp)
Ltmp947:
LBB178_3:
	.loc	27 559 42 is_stmt 0
	movb	-25(%rbp), %al
	andb	$1, %al
	movzbl	%al, %eax
	addq	$48, %rsp
	popq	%rbp
	retq
Ltmp948:
Lfunc_end178:
	.cfi_endproc

	.globl	__ZN66_$LT$core..option..Option$LT$T$GT$$u20$as$u20$core..fmt..Debug$GT$3fmt17h9af58a0a5e11e99cE
	.p2align	4, 0x90
__ZN66_$LT$core..option..Option$LT$T$GT$$u20$as$u20$core..fmt..Debug$GT$3fmt17h9af58a0a5e11e99cE:
Lfunc_begin179:
	.loc	27 559 0 is_stmt 1
	.cfi_startproc
	pushq	%rbp
	.cfi_def_cfa_offset 16
	.cfi_offset %rbp, -16
	movq	%rsp, %rbp
	.cfi_def_cfa_register %rbp
	subq	$48, %rsp
	movq	%rdi, -48(%rbp)
	movq	%rsi, -40(%rbp)
	movq	%rdi, -16(%rbp)
	movq	%rsi, -8(%rbp)
Ltmp949:
	.loc	27 559 37 prologue_end
	movq	8(%rdi), %rdx
	movl	$1, %eax
	xorl	%ecx, %ecx
	cmpq	$0, %rdx
	cmoveq	%rcx, %rax
	cmpq	$0, %rax
	jne	LBB179_2
	.loc	27 0 37 is_stmt 0
	movq	-40(%rbp), %rdi
	.loc	27 559 37
	leaq	L___unnamed_40(%rip), %rsi
	movl	$4, %edx
	callq	__ZN4core3fmt9Formatter9write_str17hb029d9999327a35fE
	andb	$1, %al
	movb	%al, -25(%rbp)
	.loc	27 559 41
	jmp	LBB179_3
LBB179_2:
	.loc	27 0 41
	movq	-40(%rbp), %rdi
	movq	-48(%rbp), %rax
	.loc	27 570 56 is_stmt 1
	movq	%rax, -24(%rbp)
Ltmp950:
	.loc	27 559 37
	leaq	L___unnamed_41(%rip), %rsi
	movl	$4, %edx
	leaq	-24(%rbp), %rcx
	leaq	l___unnamed_10(%rip), %r8
	callq	__ZN4core3fmt9Formatter25debug_tuple_field1_finish17h7c0e485bb1c7676eE
	andb	$1, %al
	movb	%al, -25(%rbp)
Ltmp951:
LBB179_3:
	.loc	27 559 42 is_stmt 0
	movb	-25(%rbp), %al
	andb	$1, %al
	movzbl	%al, %eax
	addq	$48, %rsp
	popq	%rbp
	retq
Ltmp952:
Lfunc_end179:
	.cfi_endproc

	.globl	__ZN66_$LT$core..option..Option$LT$T$GT$$u20$as$u20$core..fmt..Debug$GT$3fmt17ha4e19e887345be08E
	.p2align	4, 0x90
__ZN66_$LT$core..option..Option$LT$T$GT$$u20$as$u20$core..fmt..Debug$GT$3fmt17ha4e19e887345be08E:
Lfunc_begin180:
	.loc	27 559 0 is_stmt 1
	.cfi_startproc
	pushq	%rbp
	.cfi_def_cfa_offset 16
	.cfi_offset %rbp, -16
	movq	%rsp, %rbp
	.cfi_def_cfa_register %rbp
	subq	$48, %rsp
	movq	%rdi, -48(%rbp)
	movq	%rsi, -40(%rbp)
	movq	%rdi, -16(%rbp)
	movq	%rsi, -8(%rbp)
Ltmp953:
	.loc	27 559 37 prologue_end
	movb	(%rdi), %al
	andb	$1, %al
	movzbl	%al, %eax
	cmpq	$0, %rax
	jne	LBB180_2
	.loc	27 0 37 is_stmt 0
	movq	-40(%rbp), %rdi
	.loc	27 559 37
	leaq	L___unnamed_40(%rip), %rsi
	movl	$4, %edx
	callq	__ZN4core3fmt9Formatter9write_str17hb029d9999327a35fE
	andb	$1, %al
	movb	%al, -25(%rbp)
	.loc	27 559 41
	jmp	LBB180_3
LBB180_2:
	.loc	27 0 41
	movq	-40(%rbp), %rdi
	movq	-48(%rbp), %rax
	.loc	27 570 56 is_stmt 1
	addq	$1, %rax
	movq	%rax, -24(%rbp)
Ltmp954:
	.loc	27 559 37
	leaq	L___unnamed_41(%rip), %rsi
	movl	$4, %edx
	leaq	-24(%rbp), %rcx
	leaq	l___unnamed_4(%rip), %r8
	callq	__ZN4core3fmt9Formatter25debug_tuple_field1_finish17h7c0e485bb1c7676eE
	andb	$1, %al
	movb	%al, -25(%rbp)
Ltmp955:
LBB180_3:
	.loc	27 559 42 is_stmt 0
	movb	-25(%rbp), %al
	andb	$1, %al
	movzbl	%al, %eax
	addq	$48, %rsp
	popq	%rbp
	retq
Ltmp956:
Lfunc_end180:
	.cfi_endproc

	.globl	__ZN66_$LT$core..option..Option$LT$T$GT$$u20$as$u20$core..fmt..Debug$GT$3fmt17hf615b820266c2417E
	.p2align	4, 0x90
__ZN66_$LT$core..option..Option$LT$T$GT$$u20$as$u20$core..fmt..Debug$GT$3fmt17hf615b820266c2417E:
Lfunc_begin181:
	.loc	27 559 0 is_stmt 1
	.cfi_startproc
	pushq	%rbp
	.cfi_def_cfa_offset 16
	.cfi_offset %rbp, -16
	movq	%rsp, %rbp
	.cfi_def_cfa_register %rbp
	subq	$48, %rsp
	movq	%rdi, -48(%rbp)
	movq	%rsi, -40(%rbp)
	movq	%rdi, -16(%rbp)
	movq	%rsi, -8(%rbp)
Ltmp957:
	.loc	27 559 37 prologue_end
	movq	(%rdi), %rdx
	movl	$1, %eax
	xorl	%ecx, %ecx
	cmpq	$0, %rdx
	cmoveq	%rcx, %rax
	cmpq	$0, %rax
	jne	LBB181_2
	.loc	27 0 37 is_stmt 0
	movq	-40(%rbp), %rdi
	.loc	27 559 37
	leaq	L___unnamed_40(%rip), %rsi
	movl	$4, %edx
	callq	__ZN4core3fmt9Formatter9write_str17hb029d9999327a35fE
	andb	$1, %al
	movb	%al, -25(%rbp)
	.loc	27 559 41
	jmp	LBB181_3
LBB181_2:
	.loc	27 0 41
	movq	-40(%rbp), %rdi
	movq	-48(%rbp), %rax
	.loc	27 570 56 is_stmt 1
	movq	%rax, -24(%rbp)
Ltmp958:
	.loc	27 559 37
	leaq	L___unnamed_41(%rip), %rsi
	movl	$4, %edx
	leaq	-24(%rbp), %rcx
	leaq	l___unnamed_11(%rip), %r8
	callq	__ZN4core3fmt9Formatter25debug_tuple_field1_finish17h7c0e485bb1c7676eE
	andb	$1, %al
	movb	%al, -25(%rbp)
Ltmp959:
LBB181_3:
	.loc	27 559 42 is_stmt 0
	movb	-25(%rbp), %al
	andb	$1, %al
	movzbl	%al, %eax
	addq	$48, %rsp
	popq	%rbp
	retq
Ltmp960:
Lfunc_end181:
	.cfi_endproc

	.p2align	4, 0x90
__ZN68_$LT$alloc..ffi..c_str..CString$u20$as$u20$core..ops..drop..Drop$GT$4drop17h6eebf986fb4ebeb4E:
Lfunc_begin182:
	.loc	45 701 0 is_stmt 1
	.cfi_startproc
	pushq	%rbp
	.cfi_def_cfa_offset 16
	.cfi_offset %rbp, -16
	movq	%rsp, %rbp
	.cfi_def_cfa_register %rbp
	subq	$80, %rsp
	movq	%rdi, -80(%rbp)
Ltmp961:
	.loc	45 703 14 prologue_end
	movq	(%rdi), %rax
	movq	8(%rdi), %rcx
	movq	%rax, -72(%rbp)
	movq	%rcx, -64(%rbp)
Ltmp962:
	.loc	22 443 48
	movq	%rax, -56(%rbp)
	movq	%rcx, -48(%rbp)
Ltmp963:
	.loc	32 253 13
	movq	%rax, -40(%rbp)
	movq	%rcx, -32(%rbp)
Ltmp964:
	.loc	35 2037 9
	movq	%rax, -24(%rbp)
Ltmp965:
	.loc	35 1034 18
	movq	%rax, -16(%rbp)
Ltmp966:
	.loc	35 487 18
	movq	%rax, -8(%rbp)
	movq	-8(%rbp), %rax
Ltmp967:
	.loc	45 703 13
	movb	$0, (%rax)
	.loc	45 705 6
	addq	$80, %rsp
	popq	%rbp
	retq
Ltmp968:
Lfunc_end182:
	.cfi_endproc

	.globl	__ZN69_$LT$alloc..boxed..Box$LT$T$GT$$u20$as$u20$core..default..Default$GT$7default17h3607751ddff03786E
	.p2align	4, 0x90
__ZN69_$LT$alloc..boxed..Box$LT$T$GT$$u20$as$u20$core..default..Default$GT$7default17h3607751ddff03786E:
Lfunc_begin183:
	.loc	11 1245 0
	.cfi_startproc
	.cfi_personality 155, _rust_eh_personality
	.cfi_lsda 16, Lexception28
	pushq	%rbp
	.cfi_def_cfa_offset 16
	.cfi_offset %rbp, -16
	movq	%rsp, %rbp
	.cfi_def_cfa_register %rbp
	movl	$65760, %eax
	callq	___rust_probestack
	subq	%rax, %rsp
	movl	$65688, %edi
	movl	$8, %esi
Ltmp988:
	.loc	11 1247 9 prologue_end
	callq	__ZN5alloc5alloc15exchange_malloc17hc91cc4764a934030E
	movq	%rax, -65728(%rbp)
Ltmp969:
	leaq	-65704(%rbp), %rdi
Ltmp989:
	.file	52 "/Users/natalie/.cargo/registry/src/github.com-1ecc6299db9ec823/miniz_oxide-0.5.4/src/deflate" "core.rs"
	.loc	52 523 17
	callq	__ZN11miniz_oxide7deflate4core7LZOxide3new17h72d23e0d8135763fE
Ltmp970:
	jmp	LBB183_1
LBB183_1:
Ltmp971:
	.loc	52 0 17 is_stmt 0
	leaq	-144(%rbp), %rdi
	movl	$4112, %esi
	.loc	52 524 21 is_stmt 1
	callq	__ZN11miniz_oxide7deflate4core11ParamsOxide3new17h9e72285316272dfaE
Ltmp972:
	jmp	LBB183_2
LBB183_2:
Ltmp974:
	.loc	52 527 19
	callq	__ZN69_$LT$alloc..boxed..Box$LT$T$GT$$u20$as$u20$core..default..Default$GT$7default17h94f1b2f84ff7c1d7E
Ltmp975:
	movq	%rax, -65736(%rbp)
	jmp	LBB183_5
LBB183_3:
Ltmp982:
	.loc	52 0 19 is_stmt 0
	leaq	-144(%rbp), %rdi
	.loc	52 529 9 is_stmt 1
	callq	__ZN4core3ptr60drop_in_place$LT$miniz_oxide..deflate..core..ParamsOxide$GT$17h4353df33d03d05ebE
Ltmp983:
	jmp	LBB183_8
LBB183_4:
Ltmp976:
	.loc	52 0 9 is_stmt 0
	movq	%rax, %rcx
	movl	%edx, %eax
	movq	%rcx, -16(%rbp)
	movl	%eax, -8(%rbp)
	jmp	LBB183_3
LBB183_5:
	movq	-65736(%rbp), %rax
	.loc	52 527 19 is_stmt 1
	movq	%rax, -72(%rbp)
Ltmp977:
	leaq	-64(%rbp), %rdi
	movl	$4112, %esi
	.loc	52 528 19
	callq	__ZN11miniz_oxide7deflate4core9DictOxide3new17h2b7faa34e2c6daf4E
Ltmp978:
	jmp	LBB183_9
LBB183_6:
Ltmp979:
	.loc	52 0 19 is_stmt 0
	movq	%rax, %rcx
	movl	%edx, %eax
	movq	%rcx, -16(%rbp)
	movl	%eax, -8(%rbp)
Ltmp980:
	leaq	-72(%rbp), %rdi
	.loc	52 529 9 is_stmt 1
	callq	__ZN4core3ptr86drop_in_place$LT$alloc..boxed..Box$LT$miniz_oxide..deflate..core..HuffmanOxide$GT$$GT$17h154c755a16a0ca44E
Ltmp981:
	jmp	LBB183_3
LBB183_7:
Ltmp984:
	.loc	52 521 5
	callq	__ZN4core9panicking19panic_cannot_unwind17h1fbca7e1d7f56ae1E
LBB183_8:
	movq	-16(%rbp), %rcx
	movl	-8(%rbp), %eax
	movq	%rcx, -65752(%rbp)
	movl	%eax, -65740(%rbp)
	jmp	LBB183_12
LBB183_9:
	.loc	52 0 5 is_stmt 0
	movq	-65728(%rbp), %rdi
	.loc	52 522 9 is_stmt 1
	addq	$48, %rdi
	leaq	-65704(%rbp), %rsi
	movl	$65560, %edx
	callq	_memcpy
	movq	-65728(%rbp), %rdi
	addq	$65616, %rdi
	leaq	-144(%rbp), %rsi
	movl	$72, %edx
	callq	_memcpy
	movq	-65728(%rbp), %rdi
	movq	-72(%rbp), %rax
	movq	%rax, 65608(%rdi)
	leaq	-64(%rbp), %rsi
	movl	$48, %edx
	callq	_memcpy
	.loc	52 530 6
	jmp	LBB183_13
Ltmp990:
LBB183_10:
Ltmp985:
	.loc	52 0 6 is_stmt 0
	movq	-65728(%rbp), %rdi
	.loc	11 1247 30 is_stmt 1
	callq	__ZN5alloc5alloc8box_free17hfc0f3f690e27e9ebE
Ltmp986:
	jmp	LBB183_15
LBB183_11:
Ltmp973:
	.loc	11 0 30 is_stmt 0
	movq	%rax, %rcx
	movl	%edx, %eax
	movq	%rcx, -65752(%rbp)
	movl	%eax, -65740(%rbp)
	jmp	LBB183_12
LBB183_12:
	movq	-65752(%rbp), %rcx
	movl	-65740(%rbp), %eax
	movq	%rcx, -65720(%rbp)
	movl	%eax, -65712(%rbp)
	jmp	LBB183_10
LBB183_13:
	movq	-65728(%rbp), %rax
	.loc	11 1248 6 is_stmt 1
	addq	$65760, %rsp
	popq	%rbp
	retq
LBB183_14:
Ltmp987:
	.loc	11 1245 5
	callq	__ZN4core9panicking19panic_cannot_unwind17h1fbca7e1d7f56ae1E
LBB183_15:
	movq	-65720(%rbp), %rdi
	callq	__Unwind_Resume
Ltmp991:
Lfunc_end183:
	.cfi_endproc
	.section	__TEXT,__gcc_except_tab
	.p2align	2
GCC_except_table183:
Lexception28:
	.byte	255
	.byte	255
	.byte	1
	.uleb128 Lcst_end28-Lcst_begin28
Lcst_begin28:
	.uleb128 Lfunc_begin183-Lfunc_begin183
	.uleb128 Ltmp969-Lfunc_begin183
	.byte	0
	.byte	0
	.uleb128 Ltmp969-Lfunc_begin183
	.uleb128 Ltmp972-Ltmp969
	.uleb128 Ltmp973-Lfunc_begin183
	.byte	0
	.uleb128 Ltmp974-Lfunc_begin183
	.uleb128 Ltmp975-Ltmp974
	.uleb128 Ltmp976-Lfunc_begin183
	.byte	0
	.uleb128 Ltmp982-Lfunc_begin183
	.uleb128 Ltmp983-Ltmp982
	.uleb128 Ltmp984-Lfunc_begin183
	.byte	0
	.uleb128 Ltmp977-Lfunc_begin183
	.uleb128 Ltmp978-Ltmp977
	.uleb128 Ltmp979-Lfunc_begin183
	.byte	0
	.uleb128 Ltmp980-Lfunc_begin183
	.uleb128 Ltmp981-Ltmp980
	.uleb128 Ltmp984-Lfunc_begin183
	.byte	0
	.uleb128 Ltmp981-Lfunc_begin183
	.uleb128 Ltmp985-Ltmp981
	.byte	0
	.byte	0
	.uleb128 Ltmp985-Lfunc_begin183
	.uleb128 Ltmp986-Ltmp985
	.uleb128 Ltmp987-Lfunc_begin183
	.byte	0
	.uleb128 Ltmp986-Lfunc_begin183
	.uleb128 Lfunc_end183-Ltmp986
	.byte	0
	.byte	0
Lcst_end28:
	.p2align	2

	.section	__TEXT,__text,regular,pure_instructions
	.globl	__ZN72_$LT$alloc..vec..Vec$LT$T$C$A$GT$$u20$as$u20$core..ops..deref..Deref$GT$5deref17h5243720630d7ad0fE
	.p2align	4, 0x90
__ZN72_$LT$alloc..vec..Vec$LT$T$C$A$GT$$u20$as$u20$core..ops..deref..Deref$GT$5deref17h5243720630d7ad0fE:
Lfunc_begin184:
	.loc	42 2636 0
	.cfi_startproc
	pushq	%rbp
	.cfi_def_cfa_offset 16
	.cfi_offset %rbp, -16
	movq	%rsp, %rbp
	.cfi_def_cfa_register %rbp
	subq	$184, %rsp
	movq	%rdi, -144(%rbp)
Ltmp992:
	.loc	42 2637 40 prologue_end
	movq	%rdi, -136(%rbp)
Ltmp993:
	.loc	42 1243 19
	movq	%rdi, -128(%rbp)
Ltmp994:
	.loc	18 224 9
	movq	8(%rdi), %rcx
	movq	%rcx, -120(%rbp)
Ltmp995:
	.loc	19 104 9
	movq	%rcx, -112(%rbp)
Ltmp996:
	.loc	17 326 9
	movq	%rcx, -104(%rbp)
Ltmp997:
	.loc	42 1245 21
	movq	%rcx, -96(%rbp)
Ltmp998:
	.loc	35 52 36
	movq	%rcx, -184(%rbp)
	.loc	35 52 18 is_stmt 0
	movq	-184(%rbp), %rax
	movq	%rax, -88(%rbp)
Ltmp999:
	.loc	35 38 13 is_stmt 1
	movq	%rax, -80(%rbp)
Ltmp1000:
	.loc	35 215 33
	movq	%rax, -72(%rbp)
	.loc	35 215 18 is_stmt 0
	movq	%rax, -64(%rbp)
Ltmp1001:
	.loc	42 1247 9 is_stmt 1
	movq	%rcx, -56(%rbp)
Ltmp1002:
	.loc	42 2637 55
	movq	16(%rdi), %rax
	movq	%rax, -48(%rbp)
Ltmp1003:
	.loc	34 100 37
	movq	%rcx, -40(%rbp)
	.loc	34 100 43 is_stmt 0
	movq	%rax, -32(%rbp)
Ltmp1004:
	.loc	16 734 20 is_stmt 1
	movq	%rcx, -24(%rbp)
Ltmp1005:
	.loc	6 61 9
	movq	%rcx, -16(%rbp)
Ltmp1006:
	.loc	16 734 33
	movq	%rax, -8(%rbp)
Ltmp1007:
	.loc	36 118 36
	movq	%rcx, -160(%rbp)
	movq	%rax, -152(%rbp)
	.loc	36 118 14 is_stmt 0
	movq	-160(%rbp), %rcx
	movq	-152(%rbp), %rax
	movq	%rcx, -176(%rbp)
	movq	%rax, -168(%rbp)
	movq	-176(%rbp), %rax
	movq	-168(%rbp), %rdx
Ltmp1008:
	.loc	42 2638 6 is_stmt 1
	addq	$184, %rsp
	popq	%rbp
	retq
Ltmp1009:
Lfunc_end184:
	.cfi_endproc

	.globl	__ZN75_$LT$usize$u20$as$u20$core..slice..index..SliceIndex$LT$$u5b$T$u5d$$GT$$GT$9index_mut17ha76337435cf42823E
	.p2align	4, 0x90
__ZN75_$LT$usize$u20$as$u20$core..slice..index..SliceIndex$LT$$u5b$T$u5d$$GT$$GT$9index_mut17ha76337435cf42823E:
Lfunc_begin185:
	.loc	32 264 0
	.cfi_startproc
	pushq	%rbp
	.cfi_def_cfa_offset 16
	.cfi_offset %rbp, -16
	movq	%rsp, %rbp
	.cfi_def_cfa_register %rbp
	subq	$64, %rsp
	movq	%rdi, -56(%rbp)
	movq	%rsi, -48(%rbp)
	movq	%rdx, -40(%rbp)
	movq	%rcx, -32(%rbp)
	movq	%rdi, -24(%rbp)
	movq	%rsi, -16(%rbp)
	movq	%rdx, -8(%rbp)
Ltmp1010:
	.loc	32 266 14 prologue_end
	cmpq	%rdx, %rdi
	setb	%al
	testb	$1, %al
	jne	LBB185_1
	jmp	LBB185_2
LBB185_1:
	.loc	32 0 14 is_stmt 0
	movq	-56(%rbp), %rcx
	movq	-48(%rbp), %rax
	.loc	32 266 9
	addq	%rcx, %rax
	.loc	32 267 6 is_stmt 1
	addq	$64, %rsp
	popq	%rbp
	retq
LBB185_2:
	.loc	32 0 6 is_stmt 0
	movq	-32(%rbp), %rdx
	movq	-40(%rbp), %rsi
	movq	-56(%rbp), %rdi
	.loc	32 266 14 is_stmt 1
	callq	__ZN4core9panicking18panic_bounds_check17hacb8a94866cda541E
Ltmp1011:
Lfunc_end185:
	.cfi_endproc

	.p2align	4, 0x90
__ZN79_$LT$crc32fast..specialized..pclmulqdq..State$u20$as$u20$core..clone..Clone$GT$5clone17h5fde61a519d0f77fE:
Lfunc_begin186:
	.file	53 "/Users/natalie/.cargo/registry/src/github.com-1ecc6299db9ec823/crc32fast-1.3.2/src/specialized" "pclmulqdq.rs"
	.loc	53 6 0
	.cfi_startproc
	pushq	%rbp
	.cfi_def_cfa_offset 16
	.cfi_offset %rbp, -16
	movq	%rsp, %rbp
	.cfi_def_cfa_register %rbp
	subq	$16, %rsp
	movq	%rdi, -8(%rbp)
Ltmp1012:
	.loc	53 8 5 prologue_end
	movl	(%rdi), %eax
	.loc	53 6 10
	movl	%eax, -12(%rbp)
	.loc	53 6 15 is_stmt 0
	movl	-12(%rbp), %eax
	addq	$16, %rsp
	popq	%rbp
	retq
Ltmp1013:
Lfunc_end186:
	.cfi_endproc

	.globl	__ZN81_$LT$alloc..vec..Vec$LT$T$C$A$GT$$u20$as$u20$core..ops..index..Index$LT$I$GT$$GT$5index17h57a725491f5dfaf4E
	.p2align	4, 0x90
__ZN81_$LT$alloc..vec..Vec$LT$T$C$A$GT$$u20$as$u20$core..ops..index..Index$LT$I$GT$$GT$5index17h57a725491f5dfaf4E:
Lfunc_begin187:
	.loc	42 2731 0 is_stmt 1
	.cfi_startproc
	.cfi_personality 155, _rust_eh_personality
	.cfi_lsda 16, Lexception29
	pushq	%rbp
	.cfi_def_cfa_offset 16
	.cfi_offset %rbp, -16
	movq	%rsp, %rbp
	.cfi_def_cfa_register %rbp
	subq	$112, %rsp
	movq	%rsi, -88(%rbp)
	movq	%rdi, -56(%rbp)
Ltmp1019:
	.loc	42 2732 9 prologue_end
	movb	$1, -57(%rbp)
Ltmp1014:
	.loc	42 2732 23 is_stmt 0
	callq	__ZN72_$LT$alloc..vec..Vec$LT$T$C$A$GT$$u20$as$u20$core..ops..deref..Deref$GT$5deref17h5243720630d7ad0fE
Ltmp1015:
	movq	%rdx, -80(%rbp)
	movq	%rax, -72(%rbp)
	jmp	LBB187_3
LBB187_1:
	.loc	42 2733 5 is_stmt 1
	testb	$1, -57(%rbp)
	jne	LBB187_6
	jmp	LBB187_5
LBB187_2:
Ltmp1018:
	.loc	42 0 5 is_stmt 0
	movq	%rax, %rcx
	movl	%edx, %eax
	movq	%rcx, -32(%rbp)
	movl	%eax, -24(%rbp)
	jmp	LBB187_1
LBB187_3:
	movq	-88(%rbp), %rdx
	movq	-80(%rbp), %rsi
	movq	-72(%rbp), %rdi
	.loc	42 2732 22 is_stmt 1
	movq	%rdi, -16(%rbp)
	movq	%rsi, -8(%rbp)
	.loc	42 2732 31 is_stmt 0
	movb	$0, -57(%rbp)
Ltmp1016:
Ltmp1020:
	.loc	32 18 9 is_stmt 1
	callq	__ZN97_$LT$core..ops..range..RangeFull$u20$as$u20$core..slice..index..SliceIndex$LT$$u5b$T$u5d$$GT$$GT$5index17he6406894a655e26cE
Ltmp1017:
	movq	%rdx, -104(%rbp)
	movq	%rax, -96(%rbp)
	jmp	LBB187_4
Ltmp1021:
LBB187_4:
	.loc	32 0 9 is_stmt 0
	movq	-104(%rbp), %rdx
	movq	-96(%rbp), %rax
	.loc	42 2733 6 is_stmt 1
	addq	$112, %rsp
	popq	%rbp
	retq
LBB187_5:
	.loc	42 2731 5
	movq	-32(%rbp), %rdi
	callq	__Unwind_Resume
LBB187_6:
	.loc	42 2733 5
	jmp	LBB187_5
Ltmp1022:
Lfunc_end187:
	.cfi_endproc
	.section	__TEXT,__gcc_except_tab
	.p2align	2
GCC_except_table187:
Lexception29:
	.byte	255
	.byte	255
	.byte	1
	.uleb128 Lcst_end29-Lcst_begin29
Lcst_begin29:
	.uleb128 Ltmp1014-Lfunc_begin187
	.uleb128 Ltmp1017-Ltmp1014
	.uleb128 Ltmp1018-Lfunc_begin187
	.byte	0
	.uleb128 Ltmp1017-Lfunc_begin187
	.uleb128 Lfunc_end187-Ltmp1017
	.byte	0
	.byte	0
Lcst_end29:
	.p2align	2

	.section	__TEXT,__text,regular,pure_instructions
	.globl	__ZN83_$LT$$RF$mut$u20$I$u20$as$u20$core..iter..traits..exact_size..ExactSizeIterator$GT$3len17h64c0178339f69010E
	.p2align	4, 0x90
__ZN83_$LT$$RF$mut$u20$I$u20$as$u20$core..iter..traits..exact_size..ExactSizeIterator$GT$3len17h64c0178339f69010E:
Lfunc_begin188:
	.loc	26 145 0
	.cfi_startproc
	pushq	%rbp
	.cfi_def_cfa_offset 16
	.cfi_offset %rbp, -16
	movq	%rsp, %rbp
	.cfi_def_cfa_register %rbp
	subq	$16, %rsp
	movq	%rdi, -8(%rbp)
Ltmp1023:
	.loc	26 146 9 prologue_end
	movq	(%rdi), %rdi
	callq	__ZN4core4iter6traits10exact_size17ExactSizeIterator3len17h8554cae86ffd609dE
	.loc	26 147 6
	addq	$16, %rsp
	popq	%rbp
	retq
Ltmp1024:
Lfunc_end188:
	.cfi_endproc

	.globl	__ZN84_$LT$alloc..vec..Vec$LT$T$C$A$GT$$u20$as$u20$core..ops..index..IndexMut$LT$I$GT$$GT$9index_mut17h02cdb25743af4455E
	.p2align	4, 0x90
__ZN84_$LT$alloc..vec..Vec$LT$T$C$A$GT$$u20$as$u20$core..ops..index..IndexMut$LT$I$GT$$GT$9index_mut17h02cdb25743af4455E:
Lfunc_begin189:
	.loc	42 2743 0
	.cfi_startproc
	.cfi_personality 155, _rust_eh_personality
	.cfi_lsda 16, Lexception30
	pushq	%rbp
	.cfi_def_cfa_offset 16
	.cfi_offset %rbp, -16
	movq	%rsp, %rbp
	.cfi_def_cfa_register %rbp
	subq	$112, %rsp
	movq	%rsi, -96(%rbp)
	movq	%rdx, -88(%rbp)
	movq	%rdi, -56(%rbp)
	movq	%rsi, -48(%rbp)
Ltmp1030:
	.loc	42 2744 9 prologue_end
	movb	$1, -57(%rbp)
Ltmp1025:
	.loc	42 2744 34 is_stmt 0
	callq	__ZN75_$LT$alloc..vec..Vec$LT$T$C$A$GT$$u20$as$u20$core..ops..deref..DerefMut$GT$9deref_mut17h81070c7e241e4411E
Ltmp1026:
	movq	%rdx, -80(%rbp)
	movq	%rax, -72(%rbp)
	jmp	LBB189_3
LBB189_1:
	.loc	42 2745 5 is_stmt 1
	testb	$1, -57(%rbp)
	jne	LBB189_6
	jmp	LBB189_5
LBB189_2:
Ltmp1029:
	.loc	42 0 5 is_stmt 0
	movq	%rax, %rcx
	movl	%edx, %eax
	movq	%rcx, -40(%rbp)
	movl	%eax, -32(%rbp)
	jmp	LBB189_1
LBB189_3:
	movq	-88(%rbp), %rcx
	movq	-80(%rbp), %rdx
	movq	-72(%rbp), %rsi
	movq	-96(%rbp), %rdi
	.loc	42 2744 29 is_stmt 1
	movq	%rsi, -24(%rbp)
	movq	%rdx, -16(%rbp)
	.loc	42 2744 42 is_stmt 0
	movb	$0, -57(%rbp)
	movq	%rdi, -8(%rbp)
Ltmp1027:
Ltmp1031:
	.loc	32 30 9 is_stmt 1
	callq	__ZN75_$LT$usize$u20$as$u20$core..slice..index..SliceIndex$LT$$u5b$T$u5d$$GT$$GT$9index_mut17ha76337435cf42823E
Ltmp1028:
	movq	%rax, -104(%rbp)
	jmp	LBB189_4
Ltmp1032:
LBB189_4:
	.loc	32 0 9 is_stmt 0
	movq	-104(%rbp), %rax
	.loc	42 2745 6 is_stmt 1
	addq	$112, %rsp
	popq	%rbp
	retq
LBB189_5:
	.loc	42 2743 5
	movq	-40(%rbp), %rdi
	callq	__Unwind_Resume
LBB189_6:
	.loc	42 2745 5
	jmp	LBB189_5
Ltmp1033:
Lfunc_end189:
	.cfi_endproc
	.section	__TEXT,__gcc_except_tab
	.p2align	2
GCC_except_table189:
Lexception30:
	.byte	255
	.byte	255
	.byte	1
	.uleb128 Lcst_end30-Lcst_begin30
Lcst_begin30:
	.uleb128 Ltmp1025-Lfunc_begin189
	.uleb128 Ltmp1028-Ltmp1025
	.uleb128 Ltmp1029-Lfunc_begin189
	.byte	0
	.uleb128 Ltmp1028-Lfunc_begin189
	.uleb128 Lfunc_end189-Ltmp1028
	.byte	0
	.byte	0
Lcst_end30:
	.p2align	2

	.section	__TEXT,__text,regular,pure_instructions
	.globl	__ZN86_$LT$alloc..vec..into_iter..IntoIter$LT$T$C$A$GT$$u20$as$u20$core..ops..drop..Drop$GT$4drop17h4010b96170f9f7b4E
	.p2align	4, 0x90
__ZN86_$LT$alloc..vec..into_iter..IntoIter$LT$T$C$A$GT$$u20$as$u20$core..ops..drop..Drop$GT$4drop17h4010b96170f9f7b4E:
Lfunc_begin190:
	.loc	5 386 0
	.cfi_startproc
	.cfi_personality 155, _rust_eh_personality
	.cfi_lsda 16, Lexception31
	pushq	%rbp
	.cfi_def_cfa_offset 16
	.cfi_offset %rbp, -16
	movq	%rsp, %rbp
	.cfi_def_cfa_register %rbp
	subq	$32, %rsp
	movq	%rdi, -24(%rbp)
Ltmp1040:
	.loc	5 400 21 prologue_end
	movq	%rdi, -32(%rbp)
Ltmp1041:
	.loc	5 403 32
	movq	-32(%rbp), %rdi
Ltmp1034:
	callq	__ZN5alloc3vec9into_iter21IntoIter$LT$T$C$A$GT$16as_raw_mut_slice17h11e5646c41481a84E
Ltmp1035:
	jmp	LBB190_3
Ltmp1042:
LBB190_1:
Ltmp1037:
	.loc	5 0 32 is_stmt 0
	leaq	-32(%rbp), %rdi
	.loc	5 406 5 is_stmt 1
	callq	__ZN4core3ptr156drop_in_place$LT$$LT$alloc..vec..into_iter..IntoIter$LT$T$C$A$GT$$u20$as$u20$core..ops..drop..Drop$GT$..drop..DropGuard$LT$u8$C$alloc..alloc..Global$GT$$GT$17hca07e86dbc7eadafE
Ltmp1038:
	jmp	LBB190_6
LBB190_2:
Ltmp1036:
	.loc	5 0 5 is_stmt 0
	movq	%rax, %rcx
	movl	%edx, %eax
	movq	%rcx, -16(%rbp)
	movl	%eax, -8(%rbp)
	jmp	LBB190_1
LBB190_3:
	.loc	5 406 5
	leaq	-32(%rbp), %rdi
	callq	__ZN4core3ptr156drop_in_place$LT$$LT$alloc..vec..into_iter..IntoIter$LT$T$C$A$GT$$u20$as$u20$core..ops..drop..Drop$GT$..drop..DropGuard$LT$u8$C$alloc..alloc..Global$GT$$GT$17hca07e86dbc7eadafE
	.loc	5 406 6
	addq	$32, %rsp
	popq	%rbp
	retq
LBB190_5:
Ltmp1039:
	.loc	5 386 5 is_stmt 1
	callq	__ZN4core9panicking19panic_cannot_unwind17h1fbca7e1d7f56ae1E
LBB190_6:
	movq	-16(%rbp), %rdi
	callq	__Unwind_Resume
Ltmp1043:
Lfunc_end190:
	.cfi_endproc
	.section	__TEXT,__gcc_except_tab
	.p2align	2
GCC_except_table190:
Lexception31:
	.byte	255
	.byte	255
	.byte	1
	.uleb128 Lcst_end31-Lcst_begin31
Lcst_begin31:
	.uleb128 Ltmp1034-Lfunc_begin190
	.uleb128 Ltmp1035-Ltmp1034
	.uleb128 Ltmp1036-Lfunc_begin190
	.byte	0
	.uleb128 Ltmp1037-Lfunc_begin190
	.uleb128 Ltmp1038-Ltmp1037
	.uleb128 Ltmp1039-Lfunc_begin190
	.byte	0
	.uleb128 Ltmp1038-Lfunc_begin190
	.uleb128 Lfunc_end190-Ltmp1038
	.byte	0
	.byte	0
Lcst_end31:
	.p2align	2

	.section	__TEXT,__text,regular,pure_instructions
	.globl	__ZN90_$LT$alloc..vec..Vec$LT$T$C$A$GT$$u20$as$u20$core..iter..traits..collect..IntoIterator$GT$9into_iter17h95c08980d1ced675E
	.p2align	4, 0x90
__ZN90_$LT$alloc..vec..Vec$LT$T$C$A$GT$$u20$as$u20$core..iter..traits..collect..IntoIterator$GT$9into_iter17h95c08980d1ced675E:
Lfunc_begin191:
	.loc	42 2779 0
	.cfi_startproc
	pushq	%rbp
	.cfi_def_cfa_offset 16
	.cfi_offset %rbp, -16
	movq	%rsp, %rbp
	.cfi_def_cfa_register %rbp
	subq	$496, %rsp
	movq	%rdi, -488(%rbp)
	movq	%rdi, -480(%rbp)
Ltmp1044:
	.loc	42 2781 44 prologue_end
	movq	(%rsi), %rax
	movq	%rax, -440(%rbp)
	movq	8(%rsi), %rax
	movq	%rax, -432(%rbp)
	movq	16(%rsi), %rax
	movq	%rax, -424(%rbp)
Ltmp1045:
	.loc	15 71 24
	movq	-440(%rbp), %rax
	movq	%rax, -384(%rbp)
	movq	-432(%rbp), %rax
	movq	%rax, -376(%rbp)
	movq	-424(%rbp), %rax
	movq	%rax, -368(%rbp)
	.loc	15 71 9 is_stmt 0
	movq	-384(%rbp), %rax
	movq	%rax, -464(%rbp)
	movq	-376(%rbp), %rax
	movq	%rax, -456(%rbp)
	movq	-368(%rbp), %rax
	movq	%rax, -448(%rbp)
Ltmp1046:
	.loc	42 2782 53 is_stmt 1
	leaq	-464(%rbp), %rax
	movq	%rax, -296(%rbp)
	leaq	-464(%rbp), %rax
	movq	%rax, -288(%rbp)
Ltmp1047:
	.loc	42 1291 9
	leaq	-464(%rbp), %rdi
	callq	__ZN5alloc7raw_vec19RawVec$LT$T$C$A$GT$9allocator17h7a715ac5decf4d0eE
Ltmp1048:
	.loc	42 2782 53
	movq	%rax, -280(%rbp)
Ltmp1049:
	.loc	16 1157 34
	leaq	-360(%rbp), %rax
	movq	%rax, -272(%rbp)
Ltmp1050:
	.loc	42 2783 25
	leaq	-464(%rbp), %rax
	movq	%rax, -264(%rbp)
	leaq	-464(%rbp), %rax
	movq	%rax, -256(%rbp)
Ltmp1051:
	.loc	42 1280 19
	leaq	-464(%rbp), %rax
	movq	%rax, -248(%rbp)
Ltmp1052:
	.loc	18 224 9
	movq	-456(%rbp), %rax
	movq	%rax, -472(%rbp)
	movq	%rax, -240(%rbp)
Ltmp1053:
	.loc	19 104 9
	movq	%rax, -232(%rbp)
Ltmp1054:
	.loc	17 326 9
	movq	%rax, -224(%rbp)
Ltmp1055:
	.loc	42 1282 21
	movq	%rax, -216(%rbp)
Ltmp1056:
	.loc	35 52 36
	movq	%rax, -352(%rbp)
	.loc	35 52 18 is_stmt 0
	movq	-352(%rbp), %rax
	movq	%rax, -208(%rbp)
Ltmp1057:
	.loc	35 38 13 is_stmt 1
	movq	%rax, -200(%rbp)
Ltmp1058:
	.loc	35 215 33
	movq	%rax, -192(%rbp)
	.loc	35 215 18 is_stmt 0
	movq	%rax, -184(%rbp)
Ltmp1059:
	.loc	42 2784 26 is_stmt 1
	xorl	%eax, %eax
	testb	$1, %al
	jne	LBB191_2
Ltmp1060:
	.loc	42 0 26 is_stmt 0
	movq	-472(%rbp), %rax
	.loc	42 2787 17 is_stmt 1
	movq	%rax, -80(%rbp)
	.loc	42 2787 27 is_stmt 0
	leaq	-464(%rbp), %rcx
	movq	%rcx, -72(%rbp)
	leaq	-464(%rbp), %rcx
	movq	%rcx, -64(%rbp)
Ltmp1061:
	.loc	42 2062 9 is_stmt 1
	movq	-448(%rbp), %rcx
	movq	%rcx, -56(%rbp)
Ltmp1062:
	.loc	35 1034 18
	movq	%rax, -48(%rbp)
	.loc	35 1034 30 is_stmt 0
	movq	%rcx, -40(%rbp)
Ltmp1063:
	.loc	35 487 18 is_stmt 1
	addq	%rcx, %rax
	movq	%rax, -32(%rbp)
	movq	-32(%rbp), %rax
Ltmp1064:
	.loc	42 2787 17
	movq	%rax, -408(%rbp)
	.loc	42 2784 23
	jmp	LBB191_3
Ltmp1065:
LBB191_2:
	.loc	42 0 23 is_stmt 0
	movq	-472(%rbp), %rax
	.loc	42 2785 17 is_stmt 1
	movq	%rax, -176(%rbp)
	.loc	42 2785 41 is_stmt 0
	leaq	-464(%rbp), %rcx
	movq	%rcx, -168(%rbp)
	leaq	-464(%rbp), %rcx
	movq	%rcx, -160(%rbp)
Ltmp1066:
	.loc	42 2062 9 is_stmt 1
	movq	-448(%rbp), %rcx
	movq	%rcx, -152(%rbp)
Ltmp1067:
	.loc	35 1220 9
	movq	%rax, -144(%rbp)
Ltmp1068:
	.loc	35 60 9
	movq	%rax, -136(%rbp)
Ltmp1069:
	.loc	35 1220 40
	movq	%rcx, -128(%rbp)
Ltmp1070:
	.loc	35 1202 9
	movq	%rax, -120(%rbp)
	.loc	35 1202 30 is_stmt 0
	movq	%rcx, -112(%rbp)
Ltmp1071:
	.loc	35 568 18 is_stmt 1
	addq	%rcx, %rax
	movq	%rax, -104(%rbp)
	movq	-104(%rbp), %rax
	movq	%rax, -96(%rbp)
Ltmp1072:
	.loc	35 99 33
	movq	%rax, -88(%rbp)
Ltmp1073:
	.loc	36 135 36
	movq	%rax, -336(%rbp)
	.loc	36 135 14 is_stmt 0
	movq	-336(%rbp), %rax
	movq	%rax, -344(%rbp)
	movq	-344(%rbp), %rax
Ltmp1074:
	.loc	42 2784 36 is_stmt 1
	movq	%rax, -408(%rbp)
Ltmp1075:
LBB191_3:
	.loc	42 2789 23
	leaq	-464(%rbp), %rax
	movq	%rax, -24(%rbp)
	leaq	-464(%rbp), %rax
	movq	%rax, -16(%rbp)
Ltmp1076:
	.loc	18 232 12
	xorl	%eax, %eax
	testb	$1, %al
	jne	LBB191_5
Ltmp1077:
	.loc	18 232 44 is_stmt 0
	movq	-464(%rbp), %rax
	movq	%rax, -400(%rbp)
	.loc	18 232 9
	jmp	LBB191_6
Ltmp1078:
LBB191_5:
	.loc	18 232 24
	movq	$-1, -400(%rbp)
Ltmp1079:
LBB191_6:
	.loc	18 0 24
	movq	-480(%rbp), %rax
	movq	-488(%rbp), %rcx
	movq	-472(%rbp), %rsi
Ltmp1080:
	.loc	42 2791 45 is_stmt 1
	movq	%rsi, -8(%rbp)
Ltmp1081:
	.loc	17 201 13
	movq	%rsi, -392(%rbp)
Ltmp1082:
	.loc	42 2793 17
	movq	-400(%rbp), %rdi
	.loc	42 2796 17
	movq	-408(%rbp), %rdx
	.loc	42 2790 13
	movq	-392(%rbp), %r8
	movq	%r8, 24(%rcx)
	movq	%rdi, (%rcx)
	movq	%rsi, 8(%rcx)
	movq	%rdx, 16(%rcx)
Ltmp1083:
	.loc	42 2799 6
	addq	$496, %rsp
	popq	%rbp
	retq
Ltmp1084:
Lfunc_end191:
	.cfi_endproc

	.globl	__ZN91_$LT$core..slice..iter..Iter$LT$T$GT$$u20$as$u20$core..iter..traits..iterator..Iterator$GT$24__iterator_get_unchecked17ha288b869ea4757c0E
	.p2align	4, 0x90
__ZN91_$LT$core..slice..iter..Iter$LT$T$GT$$u20$as$u20$core..iter..traits..iterator..Iterator$GT$24__iterator_get_unchecked17ha288b869ea4757c0E:
Lfunc_begin192:
	.file	54 "/rustc/2c8cc343237b8f7d5a3c3703e3a87f2eb2c54a74/library/core/src/slice/iter" "macros.rs"
	.loc	54 319 0
	.cfi_startproc
	pushq	%rbp
	.cfi_def_cfa_offset 16
	.cfi_offset %rbp, -16
	movq	%rsp, %rbp
	.cfi_def_cfa_register %rbp
	subq	$64, %rsp
	movq	%rdi, -64(%rbp)
	movq	%rsi, -56(%rbp)
Ltmp1085:
	.loc	54 330 42 prologue_end
	movq	8(%rdi), %rax
	movq	%rax, -48(%rbp)
Ltmp1086:
	.loc	17 326 9
	movq	%rax, -40(%rbp)
Ltmp1087:
	.loc	54 330 64
	movq	%rsi, -32(%rbp)
Ltmp1088:
	.loc	35 1034 18
	movq	%rax, -24(%rbp)
	.loc	35 1034 30 is_stmt 0
	movq	%rsi, -16(%rbp)
Ltmp1089:
	.loc	35 487 18 is_stmt 1
	addq	%rsi, %rax
	movq	%rax, -8(%rbp)
	movq	-8(%rbp), %rax
Ltmp1090:
	.loc	54 331 14
	addq	$64, %rsp
	popq	%rbp
	retq
Ltmp1091:
Lfunc_end192:
	.cfi_endproc

	.globl	__ZN91_$LT$core..slice..iter..Iter$LT$T$GT$$u20$as$u20$core..iter..traits..iterator..Iterator$GT$9size_hint17h51ca7f77d2e7144cE
	.p2align	4, 0x90
__ZN91_$LT$core..slice..iter..Iter$LT$T$GT$$u20$as$u20$core..iter..traits..iterator..Iterator$GT$9size_hint17h51ca7f77d2e7144cE:
Lfunc_begin193:
	.loc	54 145 0
	.cfi_startproc
	pushq	%rbp
	.cfi_def_cfa_offset 16
	.cfi_offset %rbp, -16
	movq	%rsp, %rbp
	.cfi_def_cfa_register %rbp
	subq	$160, %rsp
	movq	%rsi, -152(%rbp)
	movq	%rdi, -144(%rbp)
	movq	%rdi, -136(%rbp)
	movq	%rsi, -96(%rbp)
Ltmp1092:
	.loc	54 146 29 prologue_end
	movq	8(%rsi), %rax
	movq	%rax, -128(%rbp)
	movq	%rax, -88(%rbp)
Ltmp1093:
	.loc	54 146 29 is_stmt 0
	xorl	%eax, %eax
	testb	$1, %al
	jne	LBB193_2
	.loc	54 0 29
	movq	-128(%rbp), %rsi
	movq	-152(%rbp), %rax
	.loc	54 146 29
	movq	(%rax), %rdi
	movq	%rsi, -8(%rbp)
	callq	__ZN4core3ptr9const_ptr33_$LT$impl$u20$$BP$const$u20$T$GT$7sub_ptr17h2868ad094cab90bbE
	movq	%rax, -120(%rbp)
	jmp	LBB193_3
LBB193_2:
	.loc	54 0 29
	movq	-128(%rbp), %rcx
	movq	-152(%rbp), %rax
	.loc	54 146 29
	movq	(%rax), %rax
	movq	%rax, -80(%rbp)
Ltmp1094:
	.loc	6 209 33 is_stmt 1
	movq	%rax, -72(%rbp)
	.loc	6 209 18 is_stmt 0
	movq	%rax, -64(%rbp)
	movq	-64(%rbp), %rax
	movq	%rax, -56(%rbp)
Ltmp1095:
	.loc	54 146 29 is_stmt 1
	movq	%rcx, -48(%rbp)
Ltmp1096:
	.loc	17 326 9
	movq	%rcx, -40(%rbp)
Ltmp1097:
	.loc	35 215 33
	movq	%rcx, -32(%rbp)
	.loc	35 215 18 is_stmt 0
	movq	%rcx, -24(%rbp)
	movq	-24(%rbp), %rcx
	movq	%rcx, -16(%rbp)
Ltmp1098:
	.loc	7 1203 13 is_stmt 1
	subq	%rcx, %rax
	movq	%rax, -120(%rbp)
Ltmp1099:
LBB193_3:
	.loc	7 0 13 is_stmt 0
	movq	-136(%rbp), %rax
	movq	-144(%rbp), %rcx
Ltmp1100:
	.loc	54 147 18 is_stmt 1
	movq	-120(%rbp), %rdx
	.loc	54 147 30 is_stmt 0
	movq	-120(%rbp), %rsi
	.loc	54 147 25
	movq	%rsi, -104(%rbp)
	movq	$1, -112(%rbp)
	.loc	54 147 17
	movq	%rdx, (%rcx)
	movq	-112(%rbp), %rsi
	movq	-104(%rbp), %rdx
	movq	%rsi, 8(%rcx)
	movq	%rdx, 16(%rcx)
Ltmp1101:
	.loc	54 148 14 is_stmt 1
	addq	$160, %rsp
	popq	%rbp
	retq
Ltmp1102:
Lfunc_end193:
	.cfi_endproc

	.globl	__ZN93_$LT$alloc..vec..Vec$LT$T$C$A$GT$$u20$as$u20$core..iter..traits..collect..Extend$LT$T$GT$$GT$6extend17h8a504e875e294ee3E
	.p2align	4, 0x90
__ZN93_$LT$alloc..vec..Vec$LT$T$C$A$GT$$u20$as$u20$core..iter..traits..collect..Extend$LT$T$GT$$GT$6extend17h8a504e875e294ee3E:
Lfunc_begin194:
	.loc	42 2826 0
	.cfi_startproc
	pushq	%rbp
	.cfi_def_cfa_offset 16
	.cfi_offset %rbp, -16
	movq	%rsp, %rbp
	.cfi_def_cfa_register %rbp
	subq	$48, %rsp
	movq	%rdx, -48(%rbp)
	movq	%rsi, %rax
	movq	-48(%rbp), %rsi
	movq	%rax, -40(%rbp)
	movq	%rdi, %rax
	movq	-40(%rbp), %rdi
	movq	%rax, -32(%rbp)
	movq	%rax, -24(%rbp)
	movq	%rdi, -16(%rbp)
	movq	%rsi, -8(%rbp)
Ltmp1103:
	.loc	42 2827 65 prologue_end
	callq	__ZN63_$LT$I$u20$as$u20$core..iter..traits..collect..IntoIterator$GT$9into_iter17h41bbe67cfe2b2d62E
	movq	-32(%rbp), %rdi
	movq	%rax, %rsi
	.loc	42 2827 9 is_stmt 0
	callq	__ZN97_$LT$alloc..vec..Vec$LT$T$C$A$GT$$u20$as$u20$alloc..vec..spec_extend..SpecExtend$LT$T$C$I$GT$$GT$11spec_extend17he7a4b3b4358d1bd3E
	.loc	42 2828 6 is_stmt 1
	addq	$48, %rsp
	popq	%rbp
	retq
Ltmp1104:
Lfunc_end194:
	.cfi_endproc

	.globl	__ZN93_$LT$alloc..vec..Vec$LT$T$C$A$GT$$u20$as$u20$core..iter..traits..collect..Extend$LT$T$GT$$GT$6extend17he36b4414bc27a157E
	.p2align	4, 0x90
__ZN93_$LT$alloc..vec..Vec$LT$T$C$A$GT$$u20$as$u20$core..iter..traits..collect..Extend$LT$T$GT$$GT$6extend17he36b4414bc27a157E:
Lfunc_begin195:
	.loc	42 2826 0
	.cfi_startproc
	pushq	%rbp
	.cfi_def_cfa_offset 16
	.cfi_offset %rbp, -16
	movq	%rsp, %rbp
	.cfi_def_cfa_register %rbp
	subq	$80, %rsp
	movq	%rdi, -72(%rbp)
	movq	%rdi, -8(%rbp)
Ltmp1105:
	.loc	42 2827 65 prologue_end
	movq	(%rsi), %rax
	movq	%rax, -32(%rbp)
	movq	8(%rsi), %rax
	movq	%rax, -24(%rbp)
	movq	16(%rsi), %rax
	movq	%rax, -16(%rbp)
	leaq	-64(%rbp), %rdi
	leaq	-32(%rbp), %rsi
Ltmp1106:
	callq	__ZN90_$LT$alloc..vec..Vec$LT$T$C$A$GT$$u20$as$u20$core..iter..traits..collect..IntoIterator$GT$9into_iter17h95c08980d1ced675E
	movq	-72(%rbp), %rdi
	.loc	42 2827 9 is_stmt 0
	leaq	-64(%rbp), %rsi
	callq	__ZN136_$LT$alloc..vec..Vec$LT$T$C$A$GT$$u20$as$u20$alloc..vec..spec_extend..SpecExtend$LT$T$C$alloc..vec..into_iter..IntoIter$LT$T$GT$$GT$$GT$11spec_extend17haeadc3ba071d56afE
	.loc	42 2828 6 is_stmt 1
	addq	$80, %rsp
	popq	%rbp
	retq
Ltmp1107:
Lfunc_end195:
	.cfi_endproc

	.globl	__ZN93_$LT$alloc..vec..Vec$LT$T$C$A$GT$$u20$as$u20$core..iter..traits..collect..Extend$LT$T$GT$$GT$6extend17hf4fe6c5e8131d0e3E
	.p2align	4, 0x90
__ZN93_$LT$alloc..vec..Vec$LT$T$C$A$GT$$u20$as$u20$core..iter..traits..collect..Extend$LT$T$GT$$GT$6extend17hf4fe6c5e8131d0e3E:
Lfunc_begin196:
	.loc	42 2826 0
	.cfi_startproc
	pushq	%rbp
	.cfi_def_cfa_offset 16
	.cfi_offset %rbp, -16
	movq	%rsp, %rbp
	.cfi_def_cfa_register %rbp
	subq	$48, %rsp
	movq	%rdx, -48(%rbp)
	movq	%rsi, %rax
	movq	-48(%rbp), %rsi
	movq	%rax, -40(%rbp)
	movq	%rdi, %rax
	movq	-40(%rbp), %rdi
	movq	%rax, -32(%rbp)
	movq	%rax, -24(%rbp)
	movq	%rdi, -16(%rbp)
	movq	%rsi, -8(%rbp)
Ltmp1108:
	.loc	42 2827 65 prologue_end
	callq	__ZN63_$LT$I$u20$as$u20$core..iter..traits..collect..IntoIterator$GT$9into_iter17hdfca47ce19c0dbefE
	movq	-32(%rbp), %rdi
	movq	%rax, %rsi
	.loc	42 2827 9 is_stmt 0
	callq	__ZN97_$LT$alloc..vec..Vec$LT$T$C$A$GT$$u20$as$u20$alloc..vec..spec_extend..SpecExtend$LT$T$C$I$GT$$GT$11spec_extend17h2767dc19e6d90a99E
	.loc	42 2828 6 is_stmt 1
	addq	$48, %rsp
	popq	%rbp
	retq
Ltmp1109:
Lfunc_end196:
	.cfi_endproc

	.globl	__ZN94_$LT$core..slice..iter..IterMut$LT$T$GT$$u20$as$u20$core..iter..traits..iterator..Iterator$GT$24__iterator_get_unchecked17hc2756028d4f4ef9fE
	.p2align	4, 0x90
__ZN94_$LT$core..slice..iter..IterMut$LT$T$GT$$u20$as$u20$core..iter..traits..iterator..Iterator$GT$24__iterator_get_unchecked17hc2756028d4f4ef9fE:
Lfunc_begin197:
	.loc	54 319 0
	.cfi_startproc
	pushq	%rbp
	.cfi_def_cfa_offset 16
	.cfi_offset %rbp, -16
	movq	%rsp, %rbp
	.cfi_def_cfa_register %rbp
	subq	$64, %rsp
	movq	%rdi, -64(%rbp)
	movq	%rsi, -56(%rbp)
Ltmp1110:
	.loc	54 330 42 prologue_end
	movq	8(%rdi), %rax
	movq	%rax, -48(%rbp)
Ltmp1111:
	.loc	17 326 9
	movq	%rax, -40(%rbp)
Ltmp1112:
	.loc	54 330 64
	movq	%rsi, -32(%rbp)
Ltmp1113:
	.loc	35 1034 18
	movq	%rax, -24(%rbp)
	.loc	35 1034 30 is_stmt 0
	movq	%rsi, -16(%rbp)
Ltmp1114:
	.loc	35 487 18 is_stmt 1
	addq	%rsi, %rax
	movq	%rax, -8(%rbp)
	movq	-8(%rbp), %rax
Ltmp1115:
	.loc	54 331 14
	addq	$64, %rsp
	popq	%rbp
	retq
Ltmp1116:
Lfunc_end197:
	.cfi_endproc

	.globl	__ZN94_$LT$core..slice..iter..IterMut$LT$T$GT$$u20$as$u20$core..iter..traits..iterator..Iterator$GT$9size_hint17hcf9505d0fac8cb8fE
	.p2align	4, 0x90
__ZN94_$LT$core..slice..iter..IterMut$LT$T$GT$$u20$as$u20$core..iter..traits..iterator..Iterator$GT$9size_hint17hcf9505d0fac8cb8fE:
Lfunc_begin198:
	.loc	54 145 0
	.cfi_startproc
	pushq	%rbp
	.cfi_def_cfa_offset 16
	.cfi_offset %rbp, -16
	movq	%rsp, %rbp
	.cfi_def_cfa_register %rbp
	subq	$176, %rsp
	movq	%rsi, -168(%rbp)
	movq	%rdi, -160(%rbp)
	movq	%rdi, -152(%rbp)
	movq	%rsi, -112(%rbp)
Ltmp1117:
	.loc	54 146 29 prologue_end
	movq	8(%rsi), %rax
	movq	%rax, -144(%rbp)
	movq	%rax, -104(%rbp)
Ltmp1118:
	.loc	54 146 29 is_stmt 0
	xorl	%eax, %eax
	testb	$1, %al
	jne	LBB198_2
	.loc	54 0 29
	movq	-144(%rbp), %rsi
	movq	-168(%rbp), %rax
	.loc	54 146 29
	movq	(%rax), %rdi
	movq	%rdi, -24(%rbp)
	movq	%rsi, -16(%rbp)
	movq	%rsi, -8(%rbp)
Ltmp1119:
	.loc	35 970 18 is_stmt 1
	callq	__ZN4core3ptr9const_ptr33_$LT$impl$u20$$BP$const$u20$T$GT$7sub_ptr17h2868ad094cab90bbE
	movq	%rax, -136(%rbp)
Ltmp1120:
	.loc	54 146 29
	jmp	LBB198_3
LBB198_2:
	.loc	54 0 29 is_stmt 0
	movq	-144(%rbp), %rcx
	movq	-168(%rbp), %rax
	.loc	54 146 29
	movq	(%rax), %rax
	movq	%rax, -96(%rbp)
Ltmp1121:
	.loc	35 215 33 is_stmt 1
	movq	%rax, -88(%rbp)
	.loc	35 215 18 is_stmt 0
	movq	%rax, -80(%rbp)
	movq	-80(%rbp), %rax
	movq	%rax, -72(%rbp)
Ltmp1122:
	.loc	54 146 29 is_stmt 1
	movq	%rcx, -64(%rbp)
Ltmp1123:
	.loc	17 326 9
	movq	%rcx, -56(%rbp)
Ltmp1124:
	.loc	35 215 33
	movq	%rcx, -48(%rbp)
	.loc	35 215 18 is_stmt 0
	movq	%rcx, -40(%rbp)
	movq	-40(%rbp), %rcx
	movq	%rcx, -32(%rbp)
Ltmp1125:
	.loc	7 1203 13 is_stmt 1
	subq	%rcx, %rax
	movq	%rax, -136(%rbp)
Ltmp1126:
LBB198_3:
	.loc	7 0 13 is_stmt 0
	movq	-152(%rbp), %rax
	movq	-160(%rbp), %rcx
Ltmp1127:
	.loc	54 147 18 is_stmt 1
	movq	-136(%rbp), %rdx
	.loc	54 147 30 is_stmt 0
	movq	-136(%rbp), %rsi
	.loc	54 147 25
	movq	%rsi, -120(%rbp)
	movq	$1, -128(%rbp)
	.loc	54 147 17
	movq	%rdx, (%rcx)
	movq	-128(%rbp), %rsi
	movq	-120(%rbp), %rdx
	movq	%rsi, 8(%rcx)
	movq	%rdx, 16(%rcx)
Ltmp1128:
	.loc	54 148 14 is_stmt 1
	addq	$176, %rsp
	popq	%rbp
	retq
Ltmp1129:
Lfunc_end198:
	.cfi_endproc

	.globl	__ZN97_$LT$alloc..vec..Vec$LT$T$C$A$GT$$u20$as$u20$alloc..vec..spec_extend..SpecExtend$LT$T$C$I$GT$$GT$11spec_extend17h2767dc19e6d90a99E
	.p2align	4, 0x90
__ZN97_$LT$alloc..vec..Vec$LT$T$C$A$GT$$u20$as$u20$alloc..vec..spec_extend..SpecExtend$LT$T$C$I$GT$$GT$11spec_extend17h2767dc19e6d90a99E:
Lfunc_begin199:
	.loc	10 25 0
	.cfi_startproc
	pushq	%rbp
	.cfi_def_cfa_offset 16
	.cfi_offset %rbp, -16
	movq	%rsp, %rbp
	.cfi_def_cfa_register %rbp
	subq	$32, %rsp
	movq	%rdi, -24(%rbp)
	movq	%rsi, -16(%rbp)
	movq	%rdx, -8(%rbp)
Ltmp1130:
	.loc	10 26 9 prologue_end
	callq	__ZN5alloc3vec16Vec$LT$T$C$A$GT$14extend_trusted17hd5dcf83819d5c6d0E
	.loc	10 27 6
	addq	$32, %rsp
	popq	%rbp
	retq
Ltmp1131:
Lfunc_end199:
	.cfi_endproc

	.globl	__ZN97_$LT$alloc..vec..Vec$LT$T$C$A$GT$$u20$as$u20$alloc..vec..spec_extend..SpecExtend$LT$T$C$I$GT$$GT$11spec_extend17he7a4b3b4358d1bd3E
	.p2align	4, 0x90
__ZN97_$LT$alloc..vec..Vec$LT$T$C$A$GT$$u20$as$u20$alloc..vec..spec_extend..SpecExtend$LT$T$C$I$GT$$GT$11spec_extend17he7a4b3b4358d1bd3E:
Lfunc_begin200:
	.loc	10 25 0
	.cfi_startproc
	pushq	%rbp
	.cfi_def_cfa_offset 16
	.cfi_offset %rbp, -16
	movq	%rsp, %rbp
	.cfi_def_cfa_register %rbp
	subq	$32, %rsp
	movq	%rdi, -24(%rbp)
	movq	%rsi, -16(%rbp)
	movq	%rdx, -8(%rbp)
Ltmp1132:
	.loc	10 26 9 prologue_end
	callq	__ZN5alloc3vec16Vec$LT$T$C$A$GT$14extend_trusted17h3b2b2ff236832d3eE
	.loc	10 27 6
	addq	$32, %rsp
	popq	%rbp
	retq
Ltmp1133:
Lfunc_end200:
	.cfi_endproc

	.globl	__ZN59_$LT$flate2..crc..Crc$u20$as$u20$core..default..Default$GT$7default17h36e857681a329d41E
	.p2align	4, 0x90
__ZN59_$LT$flate2..crc..Crc$u20$as$u20$core..default..Default$GT$7default17h36e857681a329d41E:
Lfunc_begin201:
	.file	55 "/Users/natalie/.cargo/registry/src/github.com-1ecc6299db9ec823/flate2-1.0.24" "src/crc.rs"
	.loc	55 27 0
	.cfi_startproc
	pushq	%rbp
	.cfi_def_cfa_offset 16
	.cfi_offset %rbp, -16
	movq	%rsp, %rbp
	.cfi_def_cfa_register %rbp
	subq	$16, %rsp
	movq	%rdi, %rax
	movq	%rax, -8(%rbp)
Ltmp1134:
	.loc	55 28 9 prologue_end
	callq	__ZN6flate23crc3Crc3new17hcc514b41259dc73cE
	movq	-8(%rbp), %rax
	.loc	55 29 6
	addq	$16, %rsp
	popq	%rbp
	retq
Ltmp1135:
Lfunc_end201:
	.cfi_endproc

	.globl	__ZN6flate23crc3Crc3new17hcc514b41259dc73cE
	.p2align	4, 0x90
__ZN6flate23crc3Crc3new17hcc514b41259dc73cE:
Lfunc_begin202:
	.loc	55 34 0
	.cfi_startproc
	pushq	%rbp
	.cfi_def_cfa_offset 16
	.cfi_offset %rbp, -16
	movq	%rsp, %rbp
	.cfi_def_cfa_register %rbp
	subq	$32, %rsp
	movq	%rdi, -32(%rbp)
	movq	%rdi, -24(%rbp)
Ltmp1136:
	.loc	55 37 21 prologue_end
	leaq	-16(%rbp), %rdi
	callq	__ZN9crc32fast6Hasher3new17hb7754383210b257aE
	movq	-32(%rbp), %rdi
	movq	-24(%rbp), %rax
	.loc	55 35 9
	movl	$0, 16(%rdi)
	movq	-16(%rbp), %rcx
	movq	%rcx, (%rdi)
	movq	-8(%rbp), %rcx
	movq	%rcx, 8(%rdi)
	.loc	55 39 6
	addq	$32, %rsp
	popq	%rbp
	retq
Ltmp1137:
Lfunc_end202:
	.cfi_endproc

	.globl	__ZN6flate23crc3Crc3sum17h9e4dab634327e073E
	.p2align	4, 0x90
__ZN6flate23crc3Crc3sum17h9e4dab634327e073E:
Lfunc_begin203:
	.loc	55 42 0
	.cfi_startproc
	pushq	%rbp
	.cfi_def_cfa_offset 16
	.cfi_offset %rbp, -16
	movq	%rsp, %rbp
	.cfi_def_cfa_register %rbp
	subq	$32, %rsp
	movq	%rdi, %rsi
	movq	%rsi, -8(%rbp)
Ltmp1138:
	.loc	55 43 9 prologue_end
	leaq	-24(%rbp), %rdi
	callq	__ZN56_$LT$crc32fast..Hasher$u20$as$u20$core..clone..Clone$GT$5clone17h5ab77419a717a8bcE
	leaq	-24(%rbp), %rdi
	callq	__ZN9crc32fast6Hasher8finalize17hb8154d50c7a38a99E
	.loc	55 44 6
	addq	$32, %rsp
	popq	%rbp
	retq
Ltmp1139:
Lfunc_end203:
	.cfi_endproc

	.globl	__ZN6flate23crc3Crc6amount17h05007612b6a6d7b4E
	.p2align	4, 0x90
__ZN6flate23crc3Crc6amount17h05007612b6a6d7b4E:
Lfunc_begin204:
	.loc	55 48 0
	.cfi_startproc
	pushq	%rbp
	.cfi_def_cfa_offset 16
	.cfi_offset %rbp, -16
	movq	%rsp, %rbp
	.cfi_def_cfa_register %rbp
	pushq	%rax
	movq	%rdi, -8(%rbp)
Ltmp1140:
	.loc	55 49 9 prologue_end
	movl	16(%rdi), %eax
	.loc	55 50 6
	addq	$8, %rsp
	popq	%rbp
	retq
Ltmp1141:
Lfunc_end204:
	.cfi_endproc

	.globl	__ZN6flate23crc3Crc6update17h940eacd4bad717f9E
	.p2align	4, 0x90
__ZN6flate23crc3Crc6update17h940eacd4bad717f9E:
Lfunc_begin205:
	.loc	55 53 0
	.cfi_startproc
	pushq	%rbp
	.cfi_def_cfa_offset 16
	.cfi_offset %rbp, -16
	movq	%rsp, %rbp
	.cfi_def_cfa_register %rbp
	subq	$32, %rsp
	movq	%rdi, -32(%rbp)
	movq	%rsi, -24(%rbp)
	movq	%rdx, -16(%rbp)
Ltmp1142:
	.loc	55 54 20 prologue_end
	movl	16(%rdi), %eax
	.loc	55 54 42 is_stmt 0
	movl	%edx, %ecx
	movl	%eax, -8(%rbp)
	movl	%ecx, -4(%rbp)
Ltmp1143:
	.loc	7 1162 13 is_stmt 1
	addl	%ecx, %eax
Ltmp1144:
	.loc	55 54 9
	movl	%eax, 16(%rdi)
	.loc	55 55 9
	callq	__ZN9crc32fast6Hasher6update17h54ed0e5ca59770d3E
	.loc	55 56 6
	addq	$32, %rsp
	popq	%rbp
	retq
Ltmp1145:
Lfunc_end205:
	.cfi_endproc

	.globl	__ZN6flate23crc3Crc5reset17h903c6a5682705146E
	.p2align	4, 0x90
__ZN6flate23crc3Crc5reset17h903c6a5682705146E:
Lfunc_begin206:
	.loc	55 59 0
	.cfi_startproc
	pushq	%rbp
	.cfi_def_cfa_offset 16
	.cfi_offset %rbp, -16
	movq	%rsp, %rbp
	.cfi_def_cfa_register %rbp
	subq	$16, %rsp
	movq	%rdi, -8(%rbp)
Ltmp1146:
	.loc	55 60 9 prologue_end
	movl	$0, 16(%rdi)
	.loc	55 61 9
	callq	__ZN9crc32fast6Hasher5reset17h720918fc631464d5E
	.loc	55 62 6
	addq	$16, %rsp
	popq	%rbp
	retq
Ltmp1147:
Lfunc_end206:
	.cfi_endproc

	.globl	__ZN6flate23crc3Crc7combine17h1bb9a7f9dd6fcfbaE
	.p2align	4, 0x90
__ZN6flate23crc3Crc7combine17h1bb9a7f9dd6fcfbaE:
Lfunc_begin207:
	.loc	55 65 0
	.cfi_startproc
	pushq	%rbp
	.cfi_def_cfa_offset 16
	.cfi_offset %rbp, -16
	movq	%rsp, %rbp
	.cfi_def_cfa_register %rbp
	subq	$48, %rsp
	movq	%rdi, -40(%rbp)
	movq	%rsi, -32(%rbp)
	movq	%rdi, -16(%rbp)
	movq	%rsi, -8(%rbp)
Ltmp1148:
	.loc	55 66 21 prologue_end
	movl	16(%rsi), %eax
	.loc	55 66 9 is_stmt 0
	addl	16(%rdi), %eax
	movl	%eax, -20(%rbp)
	setb	%al
	testb	$1, %al
	jne	LBB207_2
	.loc	55 0 9
	movq	-32(%rbp), %rsi
	movq	-40(%rbp), %rdi
	movl	-20(%rbp), %eax
	.loc	55 66 9
	movl	%eax, 16(%rdi)
	.loc	55 67 9 is_stmt 1
	callq	__ZN9crc32fast6Hasher7combine17h39c1850ac89d0d39E
	.loc	55 68 6
	addq	$48, %rsp
	popq	%rbp
	retq
LBB207_2:
	.loc	55 66 9
	leaq	_str.0(%rip), %rdi
	leaq	l___unnamed_42(%rip), %rdx
	movl	$28, %esi
	callq	__ZN4core9panicking5panic17hc1bc45270cf64b03E
Ltmp1149:
Lfunc_end207:
	.cfi_endproc

	.p2align	4, 0x90
__ZN6flate23ffi4rust12ErrorMessage3get17h7f6e5ee6201489a3E:
Lfunc_begin208:
	.file	56 "/Users/natalie/.cargo/registry/src/github.com-1ecc6299db9ec823/flate2-1.0.24" "src/ffi/rust.rs"
	.loc	56 24 0
	.cfi_startproc
	pushq	%rbp
	.cfi_def_cfa_offset 16
	.cfi_offset %rbp, -16
	movq	%rsp, %rbp
	.cfi_def_cfa_register %rbp
	subq	$24, %rsp
	movq	%rdi, -8(%rbp)
Ltmp1150:
	.loc	56 25 9 prologue_end
	movq	$0, -24(%rbp)
	.loc	56 26 6
	movq	-24(%rbp), %rax
	movq	-16(%rbp), %rdx
	addq	$24, %rsp
	popq	%rbp
	retq
Ltmp1151:
Lfunc_end208:
	.cfi_endproc

	.p2align	4, 0x90
__ZN6flate23ffi4rust16format_from_bool17ha2d942e0f949860fE:
Lfunc_begin209:
	.loc	56 29 0
	.cfi_startproc
	pushq	%rbp
	.cfi_def_cfa_offset 16
	.cfi_offset %rbp, -16
	movq	%rsp, %rbp
	.cfi_def_cfa_register %rbp
	subq	$2, %rsp
	movb	%dil, %al
	movb	%al, %cl
	andb	$1, %cl
	movb	%cl, -1(%rbp)
Ltmp1152:
	.loc	56 30 8 prologue_end
	testb	$1, %al
	jne	LBB209_2
	.loc	56 33 9
	movb	$2, -2(%rbp)
	.loc	56 30 5
	jmp	LBB209_3
LBB209_2:
	.loc	56 31 9
	movb	$0, -2(%rbp)
LBB209_3:
	.loc	56 35 2
	movb	-2(%rbp), %al
	addq	$2, %rsp
	popq	%rbp
	retq
Ltmp1153:
Lfunc_end209:
	.cfi_endproc

	.globl	__ZN63_$LT$flate2..ffi..rust..Inflate$u20$as$u20$core..fmt..Debug$GT$3fmt17had8286d6745ee581E
	.p2align	4, 0x90
__ZN63_$LT$flate2..ffi..rust..Inflate$u20$as$u20$core..fmt..Debug$GT$3fmt17had8286d6745ee581E:
Lfunc_begin210:
	.loc	56 44 0
	.cfi_startproc
	pushq	%rbp
	.cfi_def_cfa_offset 16
	.cfi_offset %rbp, -16
	movq	%rsp, %rbp
	.cfi_def_cfa_register %rbp
	subq	$128, %rsp
	movq	%rdi, -128(%rbp)
	movq	%rsi, -104(%rbp)
	movq	%rdi, -16(%rbp)
	movq	%rsi, -8(%rbp)
Ltmp1154:
	.loc	56 45 9 prologue_end
	callq	__ZN4core3fmt10ArgumentV111new_display17h6d49ba18f27026caE
	movq	-128(%rbp), %rdi
	movq	%rax, -120(%rbp)
	movq	%rdx, -112(%rbp)
	addq	$8, %rdi
	callq	__ZN4core3fmt10ArgumentV111new_display17h6d49ba18f27026caE
	movq	-120(%rbp), %rsi
	movq	-112(%rbp), %rcx
	movq	%rsi, -48(%rbp)
	movq	%rcx, -40(%rbp)
	movq	%rax, -32(%rbp)
	movq	%rdx, -24(%rbp)
	leaq	-96(%rbp), %rdi
	leaq	l___unnamed_43(%rip), %rsi
	movl	$2, %r8d
	leaq	-48(%rbp), %rcx
	movq	%r8, %rdx
	callq	__ZN4core3fmt9Arguments6new_v117hb53b1d19cf10d3f3E
	movq	-104(%rbp), %rdi
	leaq	-96(%rbp), %rsi
	callq	__ZN4core3fmt9Formatter9write_fmt17h9bb7721c944aee26E
	.loc	56 50 6
	andb	$1, %al
	movzbl	%al, %eax
	addq	$128, %rsp
	popq	%rbp
	retq
Ltmp1155:
Lfunc_end210:
	.cfi_endproc

	.globl	__ZN74_$LT$flate2..ffi..rust..Inflate$u20$as$u20$flate2..ffi..InflateBackend$GT$4make17h896241c78371d757E
	.p2align	4, 0x90
__ZN74_$LT$flate2..ffi..rust..Inflate$u20$as$u20$flate2..ffi..InflateBackend$GT$4make17h896241c78371d757E:
Lfunc_begin211:
	.loc	56 54 0
	.cfi_startproc
	pushq	%rbp
	.cfi_def_cfa_offset 16
	.cfi_offset %rbp, -16
	movq	%rsp, %rbp
	.cfi_def_cfa_register %rbp
	subq	$32, %rsp
	movq	%rdi, -24(%rbp)
	movb	%dl, %cl
	movb	%sil, %al
	movq	%rdi, -16(%rbp)
	movb	%al, %dl
	andb	$1, %dl
	movb	%dl, -3(%rbp)
	movb	%cl, -2(%rbp)
Ltmp1156:
	.loc	56 55 22 prologue_end
	movzbl	%al, %edi
	andl	$1, %edi
	callq	__ZN6flate23ffi4rust16format_from_bool17ha2d942e0f949860fE
	movb	%al, -1(%rbp)
Ltmp1157:
	.loc	56 58 20
	movzbl	%al, %edi
	callq	__ZN11miniz_oxide7inflate6stream12InflateState9new_boxed17h6aa01abc5109fac5E
	movq	-24(%rbp), %rdi
	movq	%rax, %rcx
	movq	-16(%rbp), %rax
	.loc	56 57 9
	movq	%rcx, 16(%rdi)
	movq	$0, (%rdi)
	movq	$0, 8(%rdi)
Ltmp1158:
	.loc	56 62 6
	addq	$32, %rsp
	popq	%rbp
	retq
Ltmp1159:
Lfunc_end211:
	.cfi_endproc

	.globl	__ZN74_$LT$flate2..ffi..rust..Inflate$u20$as$u20$flate2..ffi..InflateBackend$GT$10decompress17h994db1558bfd73a1E
	.p2align	4, 0x90
__ZN74_$LT$flate2..ffi..rust..Inflate$u20$as$u20$flate2..ffi..InflateBackend$GT$10decompress17h994db1558bfd73a1E:
Lfunc_begin212:
	.loc	56 64 0
	.cfi_startproc
	pushq	%rbp
	.cfi_def_cfa_offset 16
	.cfi_offset %rbp, -16
	movq	%rsp, %rbp
	.cfi_def_cfa_register %rbp
	subq	$192, %rsp
	movq	%r8, -136(%rbp)
	movq	%rcx, -144(%rbp)
	movq	%rdx, -152(%rbp)
	movq	%rsi, -160(%rbp)
	movq	%rdi, -128(%rbp)
	movb	%r9b, %al
	movq	%rdi, -64(%rbp)
	movq	%rsi, -56(%rbp)
	movq	%rdx, -48(%rbp)
	movq	%rcx, -40(%rbp)
	movq	%r8, -32(%rbp)
	movb	%al, -21(%rbp)
Ltmp1160:
	.loc	56 70 34 prologue_end
	movb	%al, -97(%rbp)
	movzbl	-97(%rbp), %eax
	movl	%eax, %edi
	.loc	56 70 21 is_stmt 0
	callq	__ZN11miniz_oxide7MZFlush3new17hc62f57136624a423E
	movl	%eax, %edi
	movl	%edx, %esi
	leaq	l___unnamed_44(%rip), %rdx
	callq	__ZN4core6result19Result$LT$T$C$E$GT$6unwrap17hfb7e2faa81b61651E
	movq	-160(%rbp), %rdx
	movq	-152(%rbp), %rcx
	movq	-144(%rbp), %r8
	movq	-136(%rbp), %r9
	movq	-128(%rbp), %rdi
	movl	%eax, -20(%rbp)
Ltmp1161:
	.loc	56 72 44 is_stmt 1
	movq	16(%rdi), %rsi
	.loc	56 72 19 is_stmt 0
	leaq	-96(%rbp), %rdi
	movl	%eax, (%rsp)
	callq	__ZN11miniz_oxide7inflate6stream7inflate17h48031fe4d8193c7fE
	movq	-128(%rbp), %rdi
Ltmp1162:
	.loc	56 73 26 is_stmt 1
	movq	-96(%rbp), %rax
	.loc	56 73 9 is_stmt 0
	addq	(%rdi), %rax
	movq	%rax, -120(%rbp)
	setb	%al
	testb	$1, %al
	jne	LBB212_2
	.loc	56 0 9
	movq	-128(%rbp), %rcx
	movq	-120(%rbp), %rax
	.loc	56 73 9
	movq	%rax, (%rcx)
	.loc	56 74 27 is_stmt 1
	movq	-88(%rbp), %rax
	.loc	56 74 9 is_stmt 0
	addq	8(%rcx), %rax
	movq	%rax, -168(%rbp)
	setb	%al
	testb	$1, %al
	jne	LBB212_4
	jmp	LBB212_3
LBB212_2:
	.loc	56 73 9 is_stmt 1
	leaq	_str.0(%rip), %rdi
	leaq	l___unnamed_45(%rip), %rdx
	movl	$28, %esi
	callq	__ZN4core9panicking5panic17hc1bc45270cf64b03E
LBB212_3:
	.loc	56 0 9 is_stmt 0
	movq	-128(%rbp), %rax
	movq	-168(%rbp), %rcx
	.loc	56 74 9 is_stmt 1
	movq	%rcx, 8(%rax)
	.loc	56 76 15
	movl	-80(%rbp), %eax
	.loc	56 76 9 is_stmt 0
	cmpq	$0, %rax
	je	LBB212_5
	jmp	LBB212_6
LBB212_4:
	.loc	56 74 9 is_stmt 1
	leaq	_str.0(%rip), %rdi
	leaq	l___unnamed_46(%rip), %rdx
	movl	$28, %esi
	callq	__ZN4core9panicking5panic17hc1bc45270cf64b03E
LBB212_5:
	.loc	56 77 16
	movl	-76(%rbp), %eax
	movl	%eax, -72(%rbp)
Ltmp1163:
	.loc	56 77 33 is_stmt 0
	movl	-72(%rbp), %eax
	movl	%eax, -172(%rbp)
	.loc	56 77 27
	testl	%eax, %eax
	je	LBB212_11
	jmp	LBB212_14
LBB212_14:
	.loc	56 0 27
	movl	-172(%rbp), %eax
	.loc	56 77 27
	subl	$1, %eax
	je	LBB212_12
	jmp	LBB212_15
LBB212_15:
	jmp	LBB212_13
Ltmp1164:
LBB212_6:
	.loc	56 84 17 is_stmt 1
	movl	-76(%rbp), %eax
	movl	%eax, -68(%rbp)
Ltmp1165:
	.loc	56 84 28 is_stmt 0
	cmpl	$-5, -68(%rbp)
	jne	LBB212_8
	.loc	56 85 33 is_stmt 1
	movb	$1, -108(%rbp)
	movl	$2, -112(%rbp)
	.loc	56 85 52 is_stmt 0
	jmp	LBB212_9
LBB212_8:
	.loc	56 86 22 is_stmt 1
	callq	__ZN6flate23mem17decompress_failed17hf92fed727de056bfE
	movq	%rax, -16(%rbp)
	movq	-16(%rbp), %rax
	movq	%rax, -112(%rbp)
Ltmp1166:
LBB212_9:
	.loc	56 89 6
	movq	-112(%rbp), %rax
	addq	$192, %rsp
	popq	%rbp
	retq
Ltmp1167:
	.loc	56 77 33
	ud2
LBB212_11:
	.loc	56 78 33
	movb	$0, -108(%rbp)
	movl	$2, -112(%rbp)
	.loc	56 78 46 is_stmt 0
	jmp	LBB212_9
LBB212_12:
	.loc	56 79 40 is_stmt 1
	movb	$2, -108(%rbp)
	movl	$2, -112(%rbp)
	.loc	56 79 60 is_stmt 0
	jmp	LBB212_9
LBB212_13:
	.loc	56 0 60
	movq	-128(%rbp), %rax
	.loc	56 81 47 is_stmt 1
	movq	16(%rax), %rdi
	callq	__ZN11miniz_oxide7inflate6stream12InflateState12decompressor17h57c1e79647f8aa64E
	movq	%rax, %rdi
	callq	__ZN11miniz_oxide7inflate4core17DecompressorOxide7adler3217h3620498be3c7b733E
	movl	%eax, %edi
	movl	%edx, %esi
	xorl	%edx, %edx
	callq	__ZN4core6option15Option$LT$T$GT$9unwrap_or17h545a040f93be734eE
	movl	%eax, %edi
	.loc	56 81 21 is_stmt 0
	callq	__ZN6flate23mem20decompress_need_dict17hb64a2bdd67ec9416E
	movq	%rax, -8(%rbp)
	movq	-8(%rbp), %rax
	movq	%rax, -112(%rbp)
	jmp	LBB212_9
Ltmp1168:
Lfunc_end212:
	.cfi_endproc

	.globl	__ZN74_$LT$flate2..ffi..rust..Inflate$u20$as$u20$flate2..ffi..InflateBackend$GT$5reset17ha4fbf12e681cb837E
