	.section	__TEXT,__text,regular,pure_instructions
	.macosx_version_min 10, 7
	.globl	__ZN119_$LT$core..ptr..non_null..NonNull$LT$T$GT$$u20$as$u20$core..convert..From$LT$core..ptr..unique..Unique$LT$T$GT$$GT$$GT$4from17h30fc08b44a14137dE
	.p2align	4, 0x90
__ZN119_$LT$core..ptr..non_null..NonNull$LT$T$GT$$u20$as$u20$core..convert..From$LT$core..ptr..unique..Unique$LT$T$GT$$GT$$GT$4from17h30fc08b44a14137dE:
Lfunc_begin0:
	.file	1 "/rustc/2c8cc343237b8f7d5a3c3703e3a87f2eb2c54a74/library/core/src/ptr" "non_null.rs"
	.loc	1 765 0
	.cfi_startproc
	pushq	%rbp
	.cfi_def_cfa_offset 16
	.cfi_offset %rbp, -16
	movq	%rsp, %rbp
	.cfi_def_cfa_register %rbp
	subq	$40, %rsp
	movq	%rdi, -32(%rbp)
Ltmp0:
	.loc	1 768 41 prologue_end
	movq	%rdi, -24(%rbp)
Ltmp1:
	.file	2 "/rustc/2c8cc343237b8f7d5a3c3703e3a87f2eb2c54a74/library/core/src/ptr" "unique.rs"
	.loc	2 104 9
	movq	%rdi, -16(%rbp)
Ltmp2:
	.loc	1 326 9
	movq	%rdi, -8(%rbp)
Ltmp3:
	.loc	1 201 13
	movq	%rdi, -40(%rbp)
Ltmp4:
	.loc	1 769 6
	movq	-40(%rbp), %rax
	addq	$40, %rsp
	popq	%rbp
	retq
Ltmp5:
Lfunc_end0:
	.cfi_endproc

	.p2align	4, 0x90
__ZN122_$LT$alloc..collections..TryReserveError$u20$as$u20$core..convert..From$LT$alloc..collections..TryReserveErrorKind$GT$$GT$4from17h15d703edbd304aebE:
Lfunc_begin1:
	.file	3 "/rustc/2c8cc343237b8f7d5a3c3703e3a87f2eb2c54a74/library/alloc/src/collections" "mod.rs"
	.loc	3 116 0
	.cfi_startproc
	pushq	%rbp
	.cfi_def_cfa_offset 16
	.cfi_offset %rbp, -16
	movq	%rsp, %rbp
	.cfi_def_cfa_register %rbp
	subq	$32, %rsp
	movq	%rdi, -16(%rbp)
	movq	%rsi, -8(%rbp)
Ltmp6:
	.loc	3 117 9 prologue_end
	movq	%rdi, -32(%rbp)
	movq	%rsi, -24(%rbp)
	.loc	3 118 6
	movq	-32(%rbp), %rax
	movq	-24(%rbp), %rdx
	addq	$32, %rsp
	popq	%rbp
	retq
Ltmp7:
Lfunc_end1:
	.cfi_endproc

	.globl	__ZN159_$LT$$LT$alloc..collections..vec_deque..VecDeque$LT$T$C$A$GT$$u20$as$u20$core..ops..drop..Drop$GT$..drop..Dropper$LT$T$GT$$u20$as$u20$core..ops..drop..Drop$GT$4drop17hd73c454bd33919a9E
	.p2align	4, 0x90
__ZN159_$LT$$LT$alloc..collections..vec_deque..VecDeque$LT$T$C$A$GT$$u20$as$u20$core..ops..drop..Drop$GT$..drop..Dropper$LT$T$GT$$u20$as$u20$core..ops..drop..Drop$GT$4drop17hd73c454bd33919a9E:
Lfunc_begin2:
	.file	4 "/rustc/2c8cc343237b8f7d5a3c3703e3a87f2eb2c54a74/library/alloc/src/collections/vec_deque" "mod.rs"
	.loc	4 130 0
	.cfi_startproc
	pushq	%rbp
	.cfi_def_cfa_offset 16
	.cfi_offset %rbp, -16
	movq	%rsp, %rbp
	.cfi_def_cfa_register %rbp
	pushq	%rax
	movq	%rdi, -8(%rbp)
Ltmp8:
	.loc	4 134 14 prologue_end
	addq	$8, %rsp
	popq	%rbp
	retq
Ltmp9:
Lfunc_end2:
	.cfi_endproc

	.globl	__ZN36_$LT$T$u20$as$u20$core..any..Any$GT$7type_id17h1a23ca549b3c7bd8E
	.p2align	4, 0x90
__ZN36_$LT$T$u20$as$u20$core..any..Any$GT$7type_id17h1a23ca549b3c7bd8E:
Lfunc_begin3:
	.file	5 "/rustc/2c8cc343237b8f7d5a3c3703e3a87f2eb2c54a74/library/core/src" "any.rs"
	.loc	5 201 0
	.cfi_startproc
	pushq	%rbp
	.cfi_def_cfa_offset 16
	.cfi_offset %rbp, -16
	movq	%rsp, %rbp
	.cfi_def_cfa_register %rbp
	subq	$16, %rsp
	movq	%rdi, -8(%rbp)
Ltmp10:
	.loc	5 202 9 prologue_end
	callq	__ZN4core3any6TypeId2of17h50f7d3b5d61c2dd1E
	.loc	5 203 6
	addq	$16, %rsp
	popq	%rbp
	retq
Ltmp11:
Lfunc_end3:
	.cfi_endproc

	.globl	__ZN36_$LT$T$u20$as$u20$core..any..Any$GT$7type_id17h2b97a15ab126bf95E
	.p2align	4, 0x90
__ZN36_$LT$T$u20$as$u20$core..any..Any$GT$7type_id17h2b97a15ab126bf95E:
Lfunc_begin4:
	.loc	5 201 0
	.cfi_startproc
	pushq	%rbp
	.cfi_def_cfa_offset 16
	.cfi_offset %rbp, -16
	movq	%rsp, %rbp
	.cfi_def_cfa_register %rbp
	subq	$16, %rsp
	movq	%rdi, -8(%rbp)
Ltmp12:
	.loc	5 202 9 prologue_end
	callq	__ZN4core3any6TypeId2of17h4447e4f7032702c2E
	.loc	5 203 6
	addq	$16, %rsp
	popq	%rbp
	retq
Ltmp13:
Lfunc_end4:
	.cfi_endproc

	.globl	__ZN36_$LT$T$u20$as$u20$core..any..Any$GT$7type_id17had31f02b0d63e930E
	.p2align	4, 0x90
__ZN36_$LT$T$u20$as$u20$core..any..Any$GT$7type_id17had31f02b0d63e930E:
Lfunc_begin5:
	.loc	5 201 0
	.cfi_startproc
	pushq	%rbp
	.cfi_def_cfa_offset 16
	.cfi_offset %rbp, -16
	movq	%rsp, %rbp
	.cfi_def_cfa_register %rbp
	subq	$16, %rsp
	movq	%rdi, -8(%rbp)
Ltmp14:
	.loc	5 202 9 prologue_end
	callq	__ZN4core3any6TypeId2of17he7805dab4b566056E
	.loc	5 203 6
	addq	$16, %rsp
	popq	%rbp
	retq
Ltmp15:
Lfunc_end5:
	.cfi_endproc

	.p2align	4, 0x90
__ZN3std6thread6Thread6unpark17hbbd7c10a5f4fbec7E:
Lfunc_begin6:
	.file	6 "/rustc/2c8cc343237b8f7d5a3c3703e3a87f2eb2c54a74/library/std/src/thread" "mod.rs"
	.loc	6 1266 0
	.cfi_startproc
	pushq	%rbp
	.cfi_def_cfa_offset 16
	.cfi_offset %rbp, -16
	movq	%rsp, %rbp
	.cfi_def_cfa_register %rbp
	subq	$64, %rsp
	movq	%rdi, -56(%rbp)
Ltmp16:
	.loc	6 1267 9 prologue_end
	movq	%rdi, -48(%rbp)
Ltmp17:
	.file	7 "/rustc/2c8cc343237b8f7d5a3c3703e3a87f2eb2c54a74/library/core/src" "pin.rs"
	.loc	7 667 39
	movq	%rdi, -40(%rbp)
Ltmp18:
	.file	8 "/rustc/2c8cc343237b8f7d5a3c3703e3a87f2eb2c54a74/library/alloc/src" "sync.rs"
	.loc	8 1391 10
	movq	%rdi, -32(%rbp)
Ltmp19:
	.loc	8 1115 18
	movq	%rdi, -24(%rbp)
Ltmp20:
	.loc	1 376 20
	movq	(%rdi), %rax
	movq	%rax, -16(%rbp)
Ltmp21:
	.loc	8 1391 9
	addq	$16, %rax
Ltmp22:
	.loc	7 667 37
	movq	%rax, -8(%rbp)
Ltmp23:
	.loc	7 653 9
	movq	%rax, -64(%rbp)
Ltmp24:
	.loc	6 1267 9
	movq	-64(%rbp), %rdi
	callq	__ZN3std6thread5Inner6parker17h9ed24f2a52f27ed9E
	movq	%rax, %rdi
	callq	__ZN3std3sys4unix14thread_parking6darwin6Parker6unpark17hf9f8f62ccf2600e9E
	.loc	6 1268 6
	addq	$64, %rsp
	popq	%rbp
	retq
Ltmp25:
Lfunc_end6:
	.cfi_endproc

	.globl	__ZN4core3any6TypeId2of17h4447e4f7032702c2E
	.p2align	4, 0x90
__ZN4core3any6TypeId2of17h4447e4f7032702c2E:
Lfunc_begin7:
	.loc	5 691 0
	.cfi_startproc
	pushq	%rbp
	.cfi_def_cfa_offset 16
	.cfi_offset %rbp, -16
	movq	%rsp, %rbp
	.cfi_def_cfa_register %rbp
	subq	$16, %rsp
Ltmp26:
	.loc	5 692 21 prologue_end
	movabsq	$3533206151729275169, %rax
	movq	%rax, -8(%rbp)
	movq	-8(%rbp), %rax
	.loc	5 692 9 is_stmt 0
	movq	%rax, -16(%rbp)
	.loc	5 693 6 is_stmt 1
	movq	-16(%rbp), %rax
	addq	$16, %rsp
	popq	%rbp
	retq
Ltmp27:
Lfunc_end7:
	.cfi_endproc

	.globl	__ZN4core3any6TypeId2of17h50f7d3b5d61c2dd1E
	.p2align	4, 0x90
__ZN4core3any6TypeId2of17h50f7d3b5d61c2dd1E:
Lfunc_begin8:
	.loc	5 691 0
	.cfi_startproc
	pushq	%rbp
	.cfi_def_cfa_offset 16
	.cfi_offset %rbp, -16
	movq	%rsp, %rbp
	.cfi_def_cfa_register %rbp
	subq	$16, %rsp
Ltmp28:
	.loc	5 692 21 prologue_end
	movabsq	$6459017550841224649, %rax
	movq	%rax, -8(%rbp)
	movq	-8(%rbp), %rax
	.loc	5 692 9 is_stmt 0
	movq	%rax, -16(%rbp)
	.loc	5 693 6 is_stmt 1
	movq	-16(%rbp), %rax
	addq	$16, %rsp
	popq	%rbp
	retq
Ltmp29:
Lfunc_end8:
	.cfi_endproc

	.globl	__ZN4core3any6TypeId2of17he7805dab4b566056E
	.p2align	4, 0x90
__ZN4core3any6TypeId2of17he7805dab4b566056E:
Lfunc_begin9:
	.loc	5 691 0
	.cfi_startproc
	pushq	%rbp
	.cfi_def_cfa_offset 16
	.cfi_offset %rbp, -16
	movq	%rsp, %rbp
	.cfi_def_cfa_register %rbp
	subq	$16, %rsp
Ltmp30:
	.loc	5 692 21 prologue_end
	movabsq	$-13864715877273748, %rax
	movq	%rax, -8(%rbp)
	movq	-8(%rbp), %rax
	.loc	5 692 9 is_stmt 0
	movq	%rax, -16(%rbp)
	.loc	5 693 6 is_stmt 1
	movq	-16(%rbp), %rax
	addq	$16, %rsp
	popq	%rbp
	retq
Ltmp31:
Lfunc_end9:
	.cfi_endproc

	.p2align	4, 0x90
__ZN4core3cmp5impls50_$LT$impl$u20$core..cmp..Ord$u20$for$u20$usize$GT$3cmp17h87700a5ca43ea870E:
Lfunc_begin10:
	.file	9 "/rustc/2c8cc343237b8f7d5a3c3703e3a87f2eb2c54a74/library/core/src" "cmp.rs"
	.loc	9 1454 0
	.cfi_startproc
	pushq	%rbp
	.cfi_def_cfa_offset 16
	.cfi_offset %rbp, -16
	movq	%rsp, %rbp
	.cfi_def_cfa_register %rbp
	subq	$40, %rsp
	movq	%rdi, -40(%rbp)
	movq	%rsi, -32(%rbp)
	movq	%rdi, -16(%rbp)
	movq	%rsi, -8(%rbp)
Ltmp32:
	.loc	9 1457 24 prologue_end
	movq	(%rdi), %rax
	cmpq	(%rsi), %rax
	jb	LBB10_2
	.loc	9 0 24 is_stmt 0
	movq	-32(%rbp), %rcx
	movq	-40(%rbp), %rax
	.loc	9 1458 29 is_stmt 1
	movq	(%rax), %rax
	cmpq	(%rcx), %rax
	je	LBB10_5
	jmp	LBB10_4
LBB10_2:
	.loc	9 1457 41
	movb	$-1, -17(%rbp)
LBB10_3:
	.loc	9 1460 18
	movb	-17(%rbp), %al
	addq	$40, %rsp
	popq	%rbp
	retq
LBB10_4:
	.loc	9 1459 28
	movb	$1, -17(%rbp)
	.loc	9 1458 26
	jmp	LBB10_6
LBB10_5:
	.loc	9 1458 47 is_stmt 0
	movb	$0, -17(%rbp)
LBB10_6:
	.loc	9 1457 21 is_stmt 1
	jmp	LBB10_3
Ltmp33:
Lfunc_end10:
	.cfi_endproc

	.globl	__ZN4core3cmp6max_by17h80d9e1d4bf011604E
	.p2align	4, 0x90
__ZN4core3cmp6max_by17h80d9e1d4bf011604E:
Lfunc_begin11:
	.loc	9 1295 0
	.cfi_startproc
	.cfi_personality 155, _rust_eh_personality
	.cfi_lsda 16, Lexception0
	pushq	%rbp
	.cfi_def_cfa_offset 16
	.cfi_offset %rbp, -16
	movq	%rsp, %rbp
	.cfi_def_cfa_register %rbp
	subq	$96, %rsp
	movq	%rdi, -80(%rbp)
	movq	%rsi, -72(%rbp)
Ltmp37:
	.loc	9 1300 11 prologue_end
	movb	$1, -25(%rbp)
	movb	$1, -26(%rbp)
	leaq	-80(%rbp), %rax
	movq	%rax, -48(%rbp)
	leaq	-72(%rbp), %rax
	movq	%rax, -40(%rbp)
	movq	-48(%rbp), %rdi
	movq	-40(%rbp), %rsi
Ltmp34:
	callq	__ZN4core3ops8function6FnOnce9call_once17h0983f3268b0b4f9eE
Ltmp35:
	movb	%al, -81(%rbp)
	jmp	LBB11_3
LBB11_1:
	.loc	9 1304 1
	jmp	LBB11_4
LBB11_2:
Ltmp36:
	.loc	9 0 1 is_stmt 0
	movq	%rax, %rcx
	movl	%edx, %eax
	movq	%rcx, -16(%rbp)
	movl	%eax, -8(%rbp)
	jmp	LBB11_1
LBB11_3:
	movb	-81(%rbp), %al
	.loc	9 1300 11 is_stmt 1
	movb	%al, -49(%rbp)
	movb	-49(%rbp), %al
	.loc	9 1300 5 is_stmt 0
	incb	%al
	subb	$2, %al
	jb	LBB11_6
	jmp	LBB11_15
LBB11_15:
	jmp	LBB11_7
LBB11_4:
	.loc	9 1304 1 is_stmt 1
	testb	$1, -25(%rbp)
	jne	LBB11_12
	jmp	LBB11_11
	.loc	9 1300 11
	ud2
LBB11_6:
	.loc	9 1301 45
	movb	$0, -26(%rbp)
	movq	-72(%rbp), %rax
	movq	%rax, -64(%rbp)
	jmp	LBB11_8
LBB11_7:
	.loc	9 1302 30
	movb	$0, -25(%rbp)
	movq	-80(%rbp), %rax
	movq	%rax, -64(%rbp)
LBB11_8:
	.loc	9 1304 1
	testb	$1, -26(%rbp)
	jne	LBB11_10
LBB11_9:
	testb	$1, -25(%rbp)
	jne	LBB11_14
	jmp	LBB11_13
LBB11_10:
	jmp	LBB11_9
LBB11_11:
	.loc	9 1295 1
	movq	-16(%rbp), %rdi
	callq	__Unwind_Resume
LBB11_12:
	.loc	9 1304 1
	jmp	LBB11_11
LBB11_13:
	.loc	9 1304 2 is_stmt 0
	movq	-64(%rbp), %rax
	addq	$96, %rsp
	popq	%rbp
	retq
LBB11_14:
	.loc	9 1304 1
	jmp	LBB11_13
Ltmp38:
Lfunc_end11:
	.cfi_endproc
	.section	__TEXT,__gcc_except_tab
	.p2align	2
GCC_except_table11:
Lexception0:
	.byte	255
	.byte	255
	.byte	1
	.uleb128 Lcst_end0-Lcst_begin0
Lcst_begin0:
	.uleb128 Ltmp34-Lfunc_begin11
	.uleb128 Ltmp35-Ltmp34
	.uleb128 Ltmp36-Lfunc_begin11
	.byte	0
	.uleb128 Ltmp35-Lfunc_begin11
	.uleb128 Lfunc_end11-Ltmp35
	.byte	0
	.byte	0
Lcst_end0:
	.p2align	2

	.section	__TEXT,__text,regular,pure_instructions
	.p2align	4, 0x90
__ZN4core3fmt9Arguments6new_v117h07098be78706d600E:
Lfunc_begin12:
	.file	10 "/rustc/2c8cc343237b8f7d5a3c3703e3a87f2eb2c54a74/library/core/src/fmt" "mod.rs"
	.loc	10 399 0 is_stmt 1
	.cfi_startproc
	pushq	%rbp
	.cfi_def_cfa_offset 16
	.cfi_offset %rbp, -16
	movq	%rsp, %rbp
	.cfi_def_cfa_register %rbp
	subq	$160, %rsp
	movq	%r8, -152(%rbp)
	movq	%rcx, -144(%rbp)
	movq	%rdx, -136(%rbp)
	movq	%rsi, -128(%rbp)
	movq	%rdi, -120(%rbp)
	movq	%rdi, -112(%rbp)
	movq	%rsi, -32(%rbp)
	movq	%rdx, -24(%rbp)
	movq	%rcx, -16(%rbp)
	movq	%r8, -8(%rbp)
Ltmp39:
	.loc	10 400 12 prologue_end
	cmpq	%r8, %rdx
	jb	LBB12_2
	.loc	10 0 12 is_stmt 0
	movq	-136(%rbp), %rax
	movq	-152(%rbp), %rcx
	.loc	10 400 56
	addq	$1, %rcx
	.loc	10 400 41
	cmpq	%rcx, %rax
	seta	%al
	.loc	10 400 12
	andb	$1, %al
	movb	%al, -97(%rbp)
	jmp	LBB12_3
LBB12_2:
	movb	$1, -97(%rbp)
LBB12_3:
	testb	$1, -97(%rbp)
	jne	LBB12_5
	.loc	10 0 12
	movq	-112(%rbp), %rax
	movq	-120(%rbp), %rcx
	movq	-152(%rbp), %rdx
	movq	-144(%rbp), %rsi
	movq	-136(%rbp), %rdi
	movq	-128(%rbp), %r8
	.loc	10 403 34 is_stmt 1
	movq	$0, -48(%rbp)
	.loc	10 403 9 is_stmt 0
	movq	%r8, 16(%rcx)
	movq	%rdi, 24(%rcx)
	movq	-48(%rbp), %r8
	movq	-40(%rbp), %rdi
	movq	%r8, (%rcx)
	movq	%rdi, 8(%rcx)
	movq	%rsi, 32(%rcx)
	movq	%rdx, 40(%rcx)
	.loc	10 404 6 is_stmt 1
	addq	$160, %rsp
	popq	%rbp
	retq
LBB12_5:
	.loc	10 401 13
	leaq	l___unnamed_4(%rip), %rsi
	leaq	l___unnamed_5(%rip), %rcx
	xorl	%eax, %eax
	movl	%eax, %r8d
	leaq	-96(%rbp), %rdi
	movq	%rdi, -160(%rbp)
	movl	$1, %edx
	callq	__ZN4core3fmt9Arguments6new_v117h07098be78706d600E
	movq	-160(%rbp), %rdi
	leaq	l___unnamed_6(%rip), %rsi
	callq	__ZN4core9panicking9panic_fmt17h9b5d807e24bcaaedE
Ltmp40:
Lfunc_end12:
	.cfi_endproc

	.p2align	4, 0x90
__ZN4core3num23_$LT$impl$u20$usize$GT$11checked_add17hf01bf6d25dccb75fE:
Lfunc_begin13:
	.file	11 "/rustc/2c8cc343237b8f7d5a3c3703e3a87f2eb2c54a74/library/core/src/num" "uint_macros.rs"
	.loc	11 442 0
	.cfi_startproc
	pushq	%rbp
	.cfi_def_cfa_offset 16
	.cfi_offset %rbp, -16
	movq	%rsp, %rbp
	.cfi_def_cfa_register %rbp
	subq	$120, %rsp
	movq	%rdi, -80(%rbp)
	movq	%rsi, -72(%rbp)
Ltmp41:
	.loc	11 443 26 prologue_end
	movq	%rdi, -64(%rbp)
	.loc	11 443 47 is_stmt 0
	movq	%rsi, -56(%rbp)
Ltmp42:
	.loc	11 1479 26 is_stmt 1
	addq	%rsi, %rdi
	setb	%al
	andb	$1, %al
	movq	%rdi, -48(%rbp)
	movb	%al, -40(%rbp)
	movq	-48(%rbp), %rcx
	movb	-40(%rbp), %al
	.loc	11 1479 18 is_stmt 0
	movq	%rcx, -32(%rbp)
	.loc	11 1479 21
	movb	%al, %dl
	andb	$1, %dl
	movb	%dl, -17(%rbp)
Ltmp43:
	.loc	11 1480 13 is_stmt 1
	movq	%rcx, -96(%rbp)
	andb	$1, %al
	movb	%al, -88(%rbp)
Ltmp44:
	.loc	11 443 18
	movq	-96(%rbp), %rax
	movq	%rax, -120(%rbp)
	movq	%rax, -16(%rbp)
	.loc	11 443 21 is_stmt 0
	movb	-88(%rbp), %al
	movb	%al, %cl
	andb	$1, %cl
	movb	%cl, -2(%rbp)
Ltmp45:
	.loc	11 444 16 is_stmt 1
	andb	$1, %al
	movb	%al, -1(%rbp)
	testb	$1, -1(%rbp)
	jne	LBB13_2
	.loc	11 0 16 is_stmt 0
	movq	-120(%rbp), %rax
	.loc	11 444 42
	movq	%rax, -104(%rbp)
	movq	$1, -112(%rbp)
	.loc	11 444 13
	jmp	LBB13_3
LBB13_2:
	.loc	11 444 30
	movq	$0, -112(%rbp)
Ltmp46:
LBB13_3:
	.loc	11 445 10 is_stmt 1
	movq	-112(%rbp), %rax
	movq	-104(%rbp), %rdx
	addq	$120, %rsp
	popq	%rbp
	retq
Ltmp47:
Lfunc_end13:
	.cfi_endproc

	.p2align	4, 0x90
__ZN4core3ops8function6FnOnce9call_once17h0983f3268b0b4f9eE:
Lfunc_begin14:
	.file	12 "/rustc/2c8cc343237b8f7d5a3c3703e3a87f2eb2c54a74/library/core/src/ops" "function.rs"
	.loc	12 250 0
	.cfi_startproc
	pushq	%rbp
	.cfi_def_cfa_offset 16
	.cfi_offset %rbp, -16
	movq	%rsp, %rbp
	.cfi_def_cfa_register %rbp
	subq	$32, %rsp
	movq	%rdi, -24(%rbp)
	movq	%rsi, -16(%rbp)
Ltmp48:
	.loc	12 250 5 prologue_end
	movq	-24(%rbp), %rdi
	movq	-16(%rbp), %rsi
	callq	__ZN4core3cmp5impls50_$LT$impl$u20$core..cmp..Ord$u20$for$u20$usize$GT$3cmp17h87700a5ca43ea870E
	addq	$32, %rsp
	popq	%rbp
	retq
Ltmp49:
Lfunc_end14:
	.cfi_endproc

	.globl	__ZN4core3ptr103drop_in_place$LT$core..cell..UnsafeCell$LT$alloc..collections..vec_deque..VecDeque$LT$usize$GT$$GT$$GT$17hfa5d7330eefec688E
	.p2align	4, 0x90
__ZN4core3ptr103drop_in_place$LT$core..cell..UnsafeCell$LT$alloc..collections..vec_deque..VecDeque$LT$usize$GT$$GT$$GT$17hfa5d7330eefec688E:
Lfunc_begin15:
	.file	13 "/rustc/2c8cc343237b8f7d5a3c3703e3a87f2eb2c54a74/library/core/src/ptr" "mod.rs"
	.loc	13 490 0
	.cfi_startproc
	pushq	%rbp
	.cfi_def_cfa_offset 16
	.cfi_offset %rbp, -16
	movq	%rsp, %rbp
	.cfi_def_cfa_register %rbp
	subq	$16, %rsp
	movq	%rdi, -8(%rbp)
Ltmp50:
	.loc	13 490 1 prologue_end
	callq	__ZN4core3ptr73drop_in_place$LT$alloc..collections..vec_deque..VecDeque$LT$usize$GT$$GT$17h888403ff2c2a5c83E
	addq	$16, %rsp
	popq	%rbp
	retq
Ltmp51:
Lfunc_end15:
	.cfi_endproc

	.globl	__ZN4core3ptr104drop_in_place$LT$spin..mutex..MutexGuard$LT$alloc..collections..vec_deque..VecDeque$LT$usize$GT$$GT$$GT$17h119adfbeff6ca824E
	.p2align	4, 0x90
__ZN4core3ptr104drop_in_place$LT$spin..mutex..MutexGuard$LT$alloc..collections..vec_deque..VecDeque$LT$usize$GT$$GT$$GT$17h119adfbeff6ca824E:
Lfunc_begin16:
	.loc	13 490 0
	.cfi_startproc
	pushq	%rbp
	.cfi_def_cfa_offset 16
	.cfi_offset %rbp, -16
	movq	%rsp, %rbp
	.cfi_def_cfa_register %rbp
	subq	$16, %rsp
	movq	%rdi, -8(%rbp)
Ltmp52:
	.loc	13 490 1 prologue_end
	callq	__ZN4core3ptr114drop_in_place$LT$spin..mutex..spin..SpinMutexGuard$LT$alloc..collections..vec_deque..VecDeque$LT$usize$GT$$GT$$GT$17hcc67a006ebaf5fc0E
	addq	$16, %rsp
	popq	%rbp
	retq
Ltmp53:
Lfunc_end16:
	.cfi_endproc

	.globl	__ZN4core3ptr109drop_in_place$LT$spin..mutex..spin..SpinMutex$LT$alloc..collections..vec_deque..VecDeque$LT$usize$GT$$GT$$GT$17h257def6536f42b68E
	.p2align	4, 0x90
__ZN4core3ptr109drop_in_place$LT$spin..mutex..spin..SpinMutex$LT$alloc..collections..vec_deque..VecDeque$LT$usize$GT$$GT$$GT$17h257def6536f42b68E:
Lfunc_begin17:
	.loc	13 490 0
	.cfi_startproc
	pushq	%rbp
	.cfi_def_cfa_offset 16
	.cfi_offset %rbp, -16
	movq	%rsp, %rbp
	.cfi_def_cfa_register %rbp
	subq	$16, %rsp
	movq	%rdi, -8(%rbp)
Ltmp54:
	.loc	13 490 1 prologue_end
	addq	$8, %rdi
	callq	__ZN4core3ptr103drop_in_place$LT$core..cell..UnsafeCell$LT$alloc..collections..vec_deque..VecDeque$LT$usize$GT$$GT$$GT$17hfa5d7330eefec688E
	addq	$16, %rsp
	popq	%rbp
	retq
Ltmp55:
Lfunc_end17:
	.cfi_endproc

	.globl	__ZN4core3ptr114drop_in_place$LT$spin..mutex..spin..SpinMutexGuard$LT$alloc..collections..vec_deque..VecDeque$LT$usize$GT$$GT$$GT$17hcc67a006ebaf5fc0E
	.p2align	4, 0x90
__ZN4core3ptr114drop_in_place$LT$spin..mutex..spin..SpinMutexGuard$LT$alloc..collections..vec_deque..VecDeque$LT$usize$GT$$GT$$GT$17hcc67a006ebaf5fc0E:
Lfunc_begin18:
	.loc	13 490 0
	.cfi_startproc
	pushq	%rbp
	.cfi_def_cfa_offset 16
	.cfi_offset %rbp, -16
	movq	%rsp, %rbp
	.cfi_def_cfa_register %rbp
	subq	$16, %rsp
	movq	%rdi, -8(%rbp)
Ltmp56:
	.loc	13 490 1 prologue_end
	callq	__ZN84_$LT$spin..mutex..spin..SpinMutexGuard$LT$T$GT$$u20$as$u20$core..ops..drop..Drop$GT$4drop17hbad29f40dc227fb6E
	addq	$16, %rsp
	popq	%rbp
	retq
Ltmp57:
Lfunc_end18:
	.cfi_endproc

	.globl	__ZN4core3ptr123drop_in_place$LT$alloc..sync..Arc$LT$spin..mutex..Mutex$LT$alloc..collections..vec_deque..VecDeque$LT$usize$GT$$GT$$GT$$GT$17hb4423adca979f04fE
	.p2align	4, 0x90
__ZN4core3ptr123drop_in_place$LT$alloc..sync..Arc$LT$spin..mutex..Mutex$LT$alloc..collections..vec_deque..VecDeque$LT$usize$GT$$GT$$GT$$GT$17hb4423adca979f04fE:
Lfunc_begin19:
	.loc	13 490 0
	.cfi_startproc
	pushq	%rbp
	.cfi_def_cfa_offset 16
	.cfi_offset %rbp, -16
	movq	%rsp, %rbp
	.cfi_def_cfa_register %rbp
	subq	$16, %rsp
	movq	%rdi, -8(%rbp)
Ltmp58:
	.loc	13 490 1 prologue_end
	callq	__ZN67_$LT$alloc..sync..Arc$LT$T$GT$$u20$as$u20$core..ops..drop..Drop$GT$4drop17hb528d067c410f08eE
	addq	$16, %rsp
	popq	%rbp
	retq
Ltmp59:
Lfunc_end19:
	.cfi_endproc

	.globl	__ZN4core3ptr124drop_in_place$LT$alloc..sync..Weak$LT$spin..mutex..Mutex$LT$alloc..collections..vec_deque..VecDeque$LT$usize$GT$$GT$$GT$$GT$17h06848d4c0d322782E
	.p2align	4, 0x90
__ZN4core3ptr124drop_in_place$LT$alloc..sync..Weak$LT$spin..mutex..Mutex$LT$alloc..collections..vec_deque..VecDeque$LT$usize$GT$$GT$$GT$$GT$17h06848d4c0d322782E:
Lfunc_begin20:
	.loc	13 490 0
	.cfi_startproc
	pushq	%rbp
	.cfi_def_cfa_offset 16
	.cfi_offset %rbp, -16
	movq	%rsp, %rbp
	.cfi_def_cfa_register %rbp
	subq	$16, %rsp
	movq	%rdi, -8(%rbp)
Ltmp60:
	.loc	13 490 1 prologue_end
	callq	__ZN68_$LT$alloc..sync..Weak$LT$T$GT$$u20$as$u20$core..ops..drop..Drop$GT$4drop17h576bafc40a3003dfE
	addq	$16, %rsp
	popq	%rbp
	retq
Ltmp61:
Lfunc_end20:
	.cfi_endproc

	.globl	__ZN4core3ptr142drop_in_place$LT$$LT$alloc..collections..vec_deque..VecDeque$LT$T$C$A$GT$$u20$as$u20$core..ops..drop..Drop$GT$..drop..Dropper$LT$usize$GT$$GT$17h9ab9374b07277c34E
	.p2align	4, 0x90
__ZN4core3ptr142drop_in_place$LT$$LT$alloc..collections..vec_deque..VecDeque$LT$T$C$A$GT$$u20$as$u20$core..ops..drop..Drop$GT$..drop..Dropper$LT$usize$GT$$GT$17h9ab9374b07277c34E:
Lfunc_begin21:
	.loc	13 490 0
	.cfi_startproc
	pushq	%rbp
	.cfi_def_cfa_offset 16
	.cfi_offset %rbp, -16
	movq	%rsp, %rbp
	.cfi_def_cfa_register %rbp
	subq	$16, %rsp
	movq	%rdi, -8(%rbp)
Ltmp62:
	.loc	13 490 1 prologue_end
	callq	__ZN159_$LT$$LT$alloc..collections..vec_deque..VecDeque$LT$T$C$A$GT$$u20$as$u20$core..ops..drop..Drop$GT$..drop..Dropper$LT$T$GT$$u20$as$u20$core..ops..drop..Drop$GT$4drop17hd73c454bd33919a9E
	addq	$16, %rsp
	popq	%rbp
	retq
Ltmp63:
Lfunc_end21:
	.cfi_endproc

	.globl	__ZN4core3ptr39drop_in_place$LT$std..thread..Inner$GT$17hc93b844cf9a6dabaE
	.p2align	4, 0x90
__ZN4core3ptr39drop_in_place$LT$std..thread..Inner$GT$17hc93b844cf9a6dabaE:
Lfunc_begin22:
	.loc	13 490 0
	.cfi_startproc
	.cfi_personality 155, _rust_eh_personality
	.cfi_lsda 16, Lexception1
	pushq	%rbp
	.cfi_def_cfa_offset 16
	.cfi_offset %rbp, -16
	movq	%rsp, %rbp
	.cfi_def_cfa_register %rbp
	subq	$32, %rsp
	movq	%rdi, -32(%rbp)
	movq	%rdi, -24(%rbp)
Ltmp64:
Ltmp70:
	.loc	13 490 1 prologue_end
	callq	__ZN4core3ptr75drop_in_place$LT$core..option..Option$LT$alloc..ffi..c_str..CString$GT$$GT$17h7714ebb380dfae27E
Ltmp65:
	jmp	LBB22_3
LBB22_1:
	.loc	13 0 1 is_stmt 0
	movq	-32(%rbp), %rdi
	.loc	13 490 1
	addq	$16, %rdi
Ltmp67:
	callq	__ZN4core3ptr67drop_in_place$LT$std..sys..unix..thread_parking..darwin..Parker$GT$17h0064fa508abc8561E
Ltmp68:
	jmp	LBB22_5
LBB22_2:
Ltmp66:
	.loc	13 0 1
	movq	%rax, %rcx
	movl	%edx, %eax
	movq	%rcx, -16(%rbp)
	movl	%eax, -8(%rbp)
	jmp	LBB22_1
LBB22_3:
	movq	-32(%rbp), %rdi
	.loc	13 490 1
	addq	$16, %rdi
	callq	__ZN4core3ptr67drop_in_place$LT$std..sys..unix..thread_parking..darwin..Parker$GT$17h0064fa508abc8561E
	addq	$32, %rsp
	popq	%rbp
	retq
LBB22_4:
Ltmp69:
	callq	__ZN4core9panicking19panic_cannot_unwind17h1fbca7e1d7f56ae1E
LBB22_5:
	movq	-16(%rbp), %rdi
	callq	__Unwind_Resume
Ltmp71:
Lfunc_end22:
	.cfi_endproc
	.section	__TEXT,__gcc_except_tab
	.p2align	2
GCC_except_table22:
Lexception1:
	.byte	255
	.byte	255
	.byte	1
	.uleb128 Lcst_end1-Lcst_begin1
Lcst_begin1:
	.uleb128 Ltmp64-Lfunc_begin22
	.uleb128 Ltmp65-Ltmp64
	.uleb128 Ltmp66-Lfunc_begin22
	.byte	0
	.uleb128 Ltmp67-Lfunc_begin22
	.uleb128 Ltmp68-Ltmp67
	.uleb128 Ltmp69-Lfunc_begin22
	.byte	0
	.uleb128 Ltmp68-Lfunc_begin22
	.uleb128 Lfunc_end22-Ltmp68
	.byte	0
	.byte	0
Lcst_end1:
	.p2align	2

	.section	__TEXT,__text,regular,pure_instructions
	.globl	__ZN4core3ptr40drop_in_place$LT$std..thread..Thread$GT$17h38fda83f3f5a726bE
	.p2align	4, 0x90
__ZN4core3ptr40drop_in_place$LT$std..thread..Thread$GT$17h38fda83f3f5a726bE:
Lfunc_begin23:
	.loc	13 490 0 is_stmt 1
	.cfi_startproc
	pushq	%rbp
	.cfi_def_cfa_offset 16
	.cfi_offset %rbp, -16
	movq	%rsp, %rbp
	.cfi_def_cfa_register %rbp
	subq	$16, %rsp
	movq	%rdi, -8(%rbp)
Ltmp72:
	.loc	13 490 1 prologue_end
	callq	__ZN4core3ptr85drop_in_place$LT$core..pin..Pin$LT$alloc..sync..Arc$LT$std..thread..Inner$GT$$GT$$GT$17h9daa49e937c0558cE
	addq	$16, %rsp
	popq	%rbp
	retq
Ltmp73:
Lfunc_end23:
	.cfi_endproc

	.globl	__ZN4core3ptr46drop_in_place$LT$flume..async..AsyncSignal$GT$17h091adcfcdbe805e2E
	.p2align	4, 0x90
__ZN4core3ptr46drop_in_place$LT$flume..async..AsyncSignal$GT$17h091adcfcdbe805e2E:
Lfunc_begin24:
	.loc	13 490 0
	.cfi_startproc
	pushq	%rbp
	.cfi_def_cfa_offset 16
	.cfi_offset %rbp, -16
	movq	%rsp, %rbp
	.cfi_def_cfa_register %rbp
	subq	$16, %rsp
	movq	%rdi, -8(%rbp)
Ltmp74:
	.loc	13 490 1 prologue_end
	callq	__ZN4core3ptr70drop_in_place$LT$spin..mutex..Mutex$LT$core..task..wake..Waker$GT$$GT$17h92d793461ac08d83E
	addq	$16, %rsp
	popq	%rbp
	retq
Ltmp75:
Lfunc_end24:
	.cfi_endproc

	.globl	__ZN4core3ptr46drop_in_place$LT$flume..signal..SyncSignal$GT$17h9d3f99cea7a37b99E
	.p2align	4, 0x90
__ZN4core3ptr46drop_in_place$LT$flume..signal..SyncSignal$GT$17h9d3f99cea7a37b99E:
Lfunc_begin25:
	.loc	13 490 0
	.cfi_startproc
	pushq	%rbp
	.cfi_def_cfa_offset 16
	.cfi_offset %rbp, -16
	movq	%rsp, %rbp
	.cfi_def_cfa_register %rbp
	subq	$16, %rsp
	movq	%rdi, -8(%rbp)
Ltmp76:
	.loc	13 490 1 prologue_end
	callq	__ZN4core3ptr40drop_in_place$LT$std..thread..Thread$GT$17h38fda83f3f5a726bE
	addq	$16, %rsp
	popq	%rbp
	retq
Ltmp77:
Lfunc_end25:
	.cfi_endproc

	.globl	__ZN4core3ptr47drop_in_place$LT$alloc..ffi..c_str..CString$GT$17hcd123ddcd4d0a3ccE
	.p2align	4, 0x90
__ZN4core3ptr47drop_in_place$LT$alloc..ffi..c_str..CString$GT$17hcd123ddcd4d0a3ccE:
Lfunc_begin26:
	.loc	13 490 0
	.cfi_startproc
	.cfi_personality 155, _rust_eh_personality
	.cfi_lsda 16, Lexception2
	pushq	%rbp
	.cfi_def_cfa_offset 16
	.cfi_offset %rbp, -16
	movq	%rsp, %rbp
	.cfi_def_cfa_register %rbp
	subq	$32, %rsp
	movq	%rdi, -32(%rbp)
	movq	%rdi, -24(%rbp)
Ltmp78:
Ltmp84:
	.loc	13 490 1 prologue_end
	callq	__ZN68_$LT$alloc..ffi..c_str..CString$u20$as$u20$core..ops..drop..Drop$GT$4drop17heda68c8c754d381fE
Ltmp79:
	jmp	LBB26_3
LBB26_1:
Ltmp81:
	.loc	13 0 1 is_stmt 0
	movq	-32(%rbp), %rdi
	.loc	13 490 1
	callq	__ZN4core3ptr58drop_in_place$LT$alloc..boxed..Box$LT$$u5b$u8$u5d$$GT$$GT$17h833290eae866458dE
Ltmp82:
	jmp	LBB26_5
LBB26_2:
Ltmp80:
	.loc	13 0 1
	movq	%rax, %rcx
	movl	%edx, %eax
	movq	%rcx, -16(%rbp)
	movl	%eax, -8(%rbp)
	jmp	LBB26_1
LBB26_3:
	movq	-32(%rbp), %rdi
	.loc	13 490 1
	callq	__ZN4core3ptr58drop_in_place$LT$alloc..boxed..Box$LT$$u5b$u8$u5d$$GT$$GT$17h833290eae866458dE
	addq	$32, %rsp
	popq	%rbp
	retq
LBB26_4:
Ltmp83:
	callq	__ZN4core9panicking19panic_cannot_unwind17h1fbca7e1d7f56ae1E
LBB26_5:
	movq	-16(%rbp), %rdi
	callq	__Unwind_Resume
Ltmp85:
Lfunc_end26:
	.cfi_endproc
	.section	__TEXT,__gcc_except_tab
	.p2align	2
GCC_except_table26:
Lexception2:
	.byte	255
	.byte	255
	.byte	1
	.uleb128 Lcst_end2-Lcst_begin2
Lcst_begin2:
	.uleb128 Ltmp78-Lfunc_begin26
	.uleb128 Ltmp79-Ltmp78
	.uleb128 Ltmp80-Lfunc_begin26
	.byte	0
	.uleb128 Ltmp81-Lfunc_begin26
	.uleb128 Ltmp82-Ltmp81
	.uleb128 Ltmp83-Lfunc_begin26
	.byte	0
	.uleb128 Ltmp82-Lfunc_begin26
	.uleb128 Lfunc_end26-Ltmp82
	.byte	0
	.byte	0
Lcst_end2:
	.p2align	2

	.section	__TEXT,__text,regular,pure_instructions
	.globl	__ZN4core3ptr48drop_in_place$LT$flume..select..SelectSignal$GT$17h4d264cd98a4ab18aE
	.p2align	4, 0x90
__ZN4core3ptr48drop_in_place$LT$flume..select..SelectSignal$GT$17h4d264cd98a4ab18aE:
Lfunc_begin27:
	.loc	13 490 0 is_stmt 1
	.cfi_startproc
	.cfi_personality 155, _rust_eh_personality
	.cfi_lsda 16, Lexception3
	pushq	%rbp
	.cfi_def_cfa_offset 16
	.cfi_offset %rbp, -16
	movq	%rsp, %rbp
	.cfi_def_cfa_register %rbp
	subq	$32, %rsp
	movq	%rdi, -32(%rbp)
	movq	%rdi, -24(%rbp)
Ltmp92:
	.loc	13 490 1 prologue_end
	addq	$8, %rdi
Ltmp86:
	callq	__ZN4core3ptr40drop_in_place$LT$std..thread..Thread$GT$17h38fda83f3f5a726bE
Ltmp87:
	jmp	LBB27_3
LBB27_1:
	.loc	13 0 1 is_stmt 0
	movq	-32(%rbp), %rdi
	.loc	13 490 1
	addq	$16, %rdi
Ltmp89:
	callq	__ZN4core3ptr123drop_in_place$LT$alloc..sync..Arc$LT$spin..mutex..Mutex$LT$alloc..collections..vec_deque..VecDeque$LT$usize$GT$$GT$$GT$$GT$17hb4423adca979f04fE
Ltmp90:
	jmp	LBB27_5
LBB27_2:
Ltmp88:
	.loc	13 0 1
	movq	%rax, %rcx
	movl	%edx, %eax
	movq	%rcx, -16(%rbp)
	movl	%eax, -8(%rbp)
	jmp	LBB27_1
LBB27_3:
	movq	-32(%rbp), %rdi
	.loc	13 490 1
	addq	$16, %rdi
	callq	__ZN4core3ptr123drop_in_place$LT$alloc..sync..Arc$LT$spin..mutex..Mutex$LT$alloc..collections..vec_deque..VecDeque$LT$usize$GT$$GT$$GT$$GT$17hb4423adca979f04fE
	addq	$32, %rsp
	popq	%rbp
	retq
LBB27_4:
Ltmp91:
	callq	__ZN4core9panicking19panic_cannot_unwind17h1fbca7e1d7f56ae1E
LBB27_5:
	movq	-16(%rbp), %rdi
	callq	__Unwind_Resume
Ltmp93:
Lfunc_end27:
	.cfi_endproc
	.section	__TEXT,__gcc_except_tab
	.p2align	2
GCC_except_table27:
Lexception3:
	.byte	255
	.byte	255
	.byte	1
	.uleb128 Lcst_end3-Lcst_begin3
Lcst_begin3:
	.uleb128 Ltmp86-Lfunc_begin27
	.uleb128 Ltmp87-Ltmp86
	.uleb128 Ltmp88-Lfunc_begin27
	.byte	0
	.uleb128 Ltmp89-Lfunc_begin27
	.uleb128 Ltmp90-Ltmp89
	.uleb128 Ltmp91-Lfunc_begin27
	.byte	0
	.uleb128 Ltmp90-Lfunc_begin27
	.uleb128 Lfunc_end27-Ltmp90
	.byte	0
	.byte	0
Lcst_end3:
	.p2align	2

	.section	__TEXT,__text,regular,pure_instructions
	.globl	__ZN4core3ptr56drop_in_place$LT$alloc..raw_vec..RawVec$LT$usize$GT$$GT$17h3e503c8fb3e51524E
	.p2align	4, 0x90
__ZN4core3ptr56drop_in_place$LT$alloc..raw_vec..RawVec$LT$usize$GT$$GT$17h3e503c8fb3e51524E:
Lfunc_begin28:
	.loc	13 490 0 is_stmt 1
	.cfi_startproc
	pushq	%rbp
	.cfi_def_cfa_offset 16
	.cfi_offset %rbp, -16
	movq	%rsp, %rbp
	.cfi_def_cfa_register %rbp
	subq	$16, %rsp
	movq	%rdi, -8(%rbp)
Ltmp94:
	.loc	13 490 1 prologue_end
	callq	__ZN77_$LT$alloc..raw_vec..RawVec$LT$T$C$A$GT$$u20$as$u20$core..ops..drop..Drop$GT$4drop17hc1dc7cf17c55b33fE
	addq	$16, %rsp
	popq	%rbp
	retq
Ltmp95:
Lfunc_end28:
	.cfi_endproc

	.globl	__ZN4core3ptr58drop_in_place$LT$alloc..boxed..Box$LT$$u5b$u8$u5d$$GT$$GT$17h833290eae866458dE
	.p2align	4, 0x90
__ZN4core3ptr58drop_in_place$LT$alloc..boxed..Box$LT$$u5b$u8$u5d$$GT$$GT$17h833290eae866458dE:
Lfunc_begin29:
	.loc	13 490 0
	.cfi_startproc
	pushq	%rbp
	.cfi_def_cfa_offset 16
	.cfi_offset %rbp, -16
	movq	%rsp, %rbp
	.cfi_def_cfa_register %rbp
	subq	$32, %rsp
	movq	%rdi, -32(%rbp)
	movq	%rdi, -24(%rbp)
	movq	-32(%rbp), %rax
Ltmp96:
	.loc	13 490 1 prologue_end
	movq	(%rax), %rdi
	movq	8(%rax), %rsi
	callq	__ZN5alloc5alloc8box_free17h4c67e0a86a8a9f3dE
	addq	$32, %rsp
	popq	%rbp
	retq
Ltmp97:
Lfunc_end29:
	.cfi_endproc

	.globl	__ZN4core3ptr63drop_in_place$LT$alloc..sync..Arc$LT$std..thread..Inner$GT$$GT$17hf910de652363456cE
	.p2align	4, 0x90
__ZN4core3ptr63drop_in_place$LT$alloc..sync..Arc$LT$std..thread..Inner$GT$$GT$17hf910de652363456cE:
Lfunc_begin30:
	.loc	13 490 0
	.cfi_startproc
	pushq	%rbp
	.cfi_def_cfa_offset 16
	.cfi_offset %rbp, -16
	movq	%rsp, %rbp
	.cfi_def_cfa_register %rbp
	subq	$16, %rsp
	movq	%rdi, -8(%rbp)
Ltmp98:
	.loc	13 490 1 prologue_end
	callq	__ZN67_$LT$alloc..sync..Arc$LT$T$GT$$u20$as$u20$core..ops..drop..Drop$GT$4drop17h36fde21f65d0b9faE
	addq	$16, %rsp
	popq	%rbp
	retq
Ltmp99:
Lfunc_end30:
	.cfi_endproc

	.globl	__ZN4core3ptr64drop_in_place$LT$alloc..sync..Weak$LT$std..thread..Inner$GT$$GT$17ha299649708851979E
	.p2align	4, 0x90
__ZN4core3ptr64drop_in_place$LT$alloc..sync..Weak$LT$std..thread..Inner$GT$$GT$17ha299649708851979E:
Lfunc_begin31:
	.loc	13 490 0
	.cfi_startproc
	pushq	%rbp
	.cfi_def_cfa_offset 16
	.cfi_offset %rbp, -16
	movq	%rsp, %rbp
	.cfi_def_cfa_register %rbp
	subq	$16, %rsp
	movq	%rdi, -8(%rbp)
Ltmp100:
	.loc	13 490 1 prologue_end
	callq	__ZN68_$LT$alloc..sync..Weak$LT$T$GT$$u20$as$u20$core..ops..drop..Drop$GT$4drop17h92faf7496fc14f4fE
	addq	$16, %rsp
	popq	%rbp
	retq
Ltmp101:
Lfunc_end31:
	.cfi_endproc

	.globl	__ZN4core3ptr67drop_in_place$LT$std..sys..unix..thread_parking..darwin..Parker$GT$17h0064fa508abc8561E
	.p2align	4, 0x90
__ZN4core3ptr67drop_in_place$LT$std..sys..unix..thread_parking..darwin..Parker$GT$17h0064fa508abc8561E:
Lfunc_begin32:
	.loc	13 490 0
	.cfi_startproc
	pushq	%rbp
	.cfi_def_cfa_offset 16
	.cfi_offset %rbp, -16
	movq	%rsp, %rbp
	.cfi_def_cfa_register %rbp
	subq	$16, %rsp
	movq	%rdi, -8(%rbp)
Ltmp102:
	.loc	13 490 1 prologue_end
	callq	__ZN88_$LT$std..sys..unix..thread_parking..darwin..Parker$u20$as$u20$core..ops..drop..Drop$GT$4drop17h35b9841f27a0bb12E
	addq	$16, %rsp
	popq	%rbp
	retq
Ltmp103:
Lfunc_end32:
	.cfi_endproc

	.globl	__ZN4core3ptr70drop_in_place$LT$spin..mutex..Mutex$LT$core..task..wake..Waker$GT$$GT$17h92d793461ac08d83E
	.p2align	4, 0x90
__ZN4core3ptr70drop_in_place$LT$spin..mutex..Mutex$LT$core..task..wake..Waker$GT$$GT$17h92d793461ac08d83E:
Lfunc_begin33:
	.loc	13 490 0
	.cfi_startproc
	pushq	%rbp
	.cfi_def_cfa_offset 16
	.cfi_offset %rbp, -16
	movq	%rsp, %rbp
	.cfi_def_cfa_register %rbp
	subq	$16, %rsp
	movq	%rdi, -8(%rbp)
Ltmp104:
	.loc	13 490 1 prologue_end
	callq	__ZN4core3ptr80drop_in_place$LT$spin..mutex..spin..SpinMutex$LT$core..task..wake..Waker$GT$$GT$17hcb60119fe2698b74E
	addq	$16, %rsp
	popq	%rbp
	retq
Ltmp105:
Lfunc_end33:
	.cfi_endproc

	.globl	__ZN4core3ptr73drop_in_place$LT$alloc..collections..vec_deque..VecDeque$LT$usize$GT$$GT$17h888403ff2c2a5c83E
	.p2align	4, 0x90
__ZN4core3ptr73drop_in_place$LT$alloc..collections..vec_deque..VecDeque$LT$usize$GT$$GT$17h888403ff2c2a5c83E:
Lfunc_begin34:
	.loc	13 490 0
	.cfi_startproc
	.cfi_personality 155, _rust_eh_personality
	.cfi_lsda 16, Lexception4
	pushq	%rbp
	.cfi_def_cfa_offset 16
	.cfi_offset %rbp, -16
	movq	%rsp, %rbp
	.cfi_def_cfa_register %rbp
	subq	$32, %rsp
	movq	%rdi, -32(%rbp)
	movq	%rdi, -24(%rbp)
Ltmp106:
Ltmp112:
	.loc	13 490 1 prologue_end
	callq	__ZN94_$LT$alloc..collections..vec_deque..VecDeque$LT$T$C$A$GT$$u20$as$u20$core..ops..drop..Drop$GT$4drop17h4db9697781abe51eE
Ltmp107:
	jmp	LBB34_3
LBB34_1:
Ltmp109:
	.loc	13 0 1 is_stmt 0
	movq	-32(%rbp), %rdi
	.loc	13 490 1
	callq	__ZN4core3ptr56drop_in_place$LT$alloc..raw_vec..RawVec$LT$usize$GT$$GT$17h3e503c8fb3e51524E
Ltmp110:
	jmp	LBB34_5
LBB34_2:
Ltmp108:
	.loc	13 0 1
	movq	%rax, %rcx
	movl	%edx, %eax
	movq	%rcx, -16(%rbp)
	movl	%eax, -8(%rbp)
	jmp	LBB34_1
LBB34_3:
	movq	-32(%rbp), %rdi
	.loc	13 490 1
	callq	__ZN4core3ptr56drop_in_place$LT$alloc..raw_vec..RawVec$LT$usize$GT$$GT$17h3e503c8fb3e51524E
	addq	$32, %rsp
	popq	%rbp
	retq
LBB34_4:
Ltmp111:
	callq	__ZN4core9panicking19panic_cannot_unwind17h1fbca7e1d7f56ae1E
LBB34_5:
	movq	-16(%rbp), %rdi
	callq	__Unwind_Resume
Ltmp113:
Lfunc_end34:
	.cfi_endproc
	.section	__TEXT,__gcc_except_tab
	.p2align	2
GCC_except_table34:
Lexception4:
	.byte	255
	.byte	255
	.byte	1
	.uleb128 Lcst_end4-Lcst_begin4
Lcst_begin4:
	.uleb128 Ltmp106-Lfunc_begin34
	.uleb128 Ltmp107-Ltmp106
	.uleb128 Ltmp108-Lfunc_begin34
	.byte	0
	.uleb128 Ltmp109-Lfunc_begin34
	.uleb128 Ltmp110-Ltmp109
	.uleb128 Ltmp111-Lfunc_begin34
	.byte	0
	.uleb128 Ltmp110-Lfunc_begin34
	.uleb128 Lfunc_end34-Ltmp110
	.byte	0
	.byte	0
Lcst_end4:
	.p2align	2

	.section	__TEXT,__text,regular,pure_instructions
	.globl	__ZN4core3ptr74drop_in_place$LT$core..cell..UnsafeCell$LT$core..task..wake..Waker$GT$$GT$17hc12e717e4881ab2eE
	.p2align	4, 0x90
__ZN4core3ptr74drop_in_place$LT$core..cell..UnsafeCell$LT$core..task..wake..Waker$GT$$GT$17hc12e717e4881ab2eE:
Lfunc_begin35:
	.loc	13 490 0 is_stmt 1
	.cfi_startproc
	pushq	%rbp
	.cfi_def_cfa_offset 16
	.cfi_offset %rbp, -16
	movq	%rsp, %rbp
	.cfi_def_cfa_register %rbp
	subq	$16, %rsp
	movq	%rdi, -8(%rbp)
Ltmp114:
	.loc	13 490 1 prologue_end
	callq	__ZN4core3ptr44drop_in_place$LT$core..task..wake..Waker$GT$17h5eab3db7c153ad20E
	addq	$16, %rsp
	popq	%rbp
	retq
Ltmp115:
Lfunc_end35:
	.cfi_endproc

	.globl	__ZN4core3ptr75drop_in_place$LT$core..option..Option$LT$alloc..ffi..c_str..CString$GT$$GT$17h7714ebb380dfae27E
	.p2align	4, 0x90
__ZN4core3ptr75drop_in_place$LT$core..option..Option$LT$alloc..ffi..c_str..CString$GT$$GT$17h7714ebb380dfae27E:
Lfunc_begin36:
	.loc	13 490 0
	.cfi_startproc
	pushq	%rbp
	.cfi_def_cfa_offset 16
	.cfi_offset %rbp, -16
	movq	%rsp, %rbp
	.cfi_def_cfa_register %rbp
	subq	$16, %rsp
	movq	%rdi, -16(%rbp)
	movq	%rdi, -8(%rbp)
Ltmp116:
	.loc	13 490 1 prologue_end
	movq	(%rdi), %rdx
	movl	$1, %eax
	xorl	%ecx, %ecx
	cmpq	$0, %rdx
	cmoveq	%rcx, %rax
	cmpq	$0, %rax
	jne	LBB36_2
LBB36_1:
	addq	$16, %rsp
	popq	%rbp
	retq
LBB36_2:
	.loc	13 0 1 is_stmt 0
	movq	-16(%rbp), %rdi
	.loc	13 490 1
	callq	__ZN4core3ptr47drop_in_place$LT$alloc..ffi..c_str..CString$GT$17hcd123ddcd4d0a3ccE
	jmp	LBB36_1
Ltmp117:
Lfunc_end36:
	.cfi_endproc

	.globl	__ZN4core3ptr75drop_in_place$LT$spin..mutex..MutexGuard$LT$core..task..wake..Waker$GT$$GT$17h5ecc82204e6b4f53E
	.p2align	4, 0x90
__ZN4core3ptr75drop_in_place$LT$spin..mutex..MutexGuard$LT$core..task..wake..Waker$GT$$GT$17h5ecc82204e6b4f53E:
Lfunc_begin37:
	.loc	13 490 0 is_stmt 1
	.cfi_startproc
	pushq	%rbp
	.cfi_def_cfa_offset 16
	.cfi_offset %rbp, -16
	movq	%rsp, %rbp
	.cfi_def_cfa_register %rbp
	subq	$16, %rsp
	movq	%rdi, -8(%rbp)
Ltmp118:
	.loc	13 490 1 prologue_end
	callq	__ZN4core3ptr85drop_in_place$LT$spin..mutex..spin..SpinMutexGuard$LT$core..task..wake..Waker$GT$$GT$17h75e508f1b7df95a7E
	addq	$16, %rsp
	popq	%rbp
	retq
Ltmp119:
Lfunc_end37:
	.cfi_endproc

	.globl	__ZN4core3ptr80drop_in_place$LT$spin..mutex..spin..SpinMutex$LT$core..task..wake..Waker$GT$$GT$17hcb60119fe2698b74E
	.p2align	4, 0x90
__ZN4core3ptr80drop_in_place$LT$spin..mutex..spin..SpinMutex$LT$core..task..wake..Waker$GT$$GT$17hcb60119fe2698b74E:
Lfunc_begin38:
	.loc	13 490 0
	.cfi_startproc
	pushq	%rbp
	.cfi_def_cfa_offset 16
	.cfi_offset %rbp, -16
	movq	%rsp, %rbp
	.cfi_def_cfa_register %rbp
	subq	$16, %rsp
	movq	%rdi, -8(%rbp)
Ltmp120:
	.loc	13 490 1 prologue_end
	addq	$8, %rdi
	callq	__ZN4core3ptr74drop_in_place$LT$core..cell..UnsafeCell$LT$core..task..wake..Waker$GT$$GT$17hc12e717e4881ab2eE
	addq	$16, %rsp
	popq	%rbp
	retq
Ltmp121:
Lfunc_end38:
	.cfi_endproc

	.globl	__ZN4core3ptr85drop_in_place$LT$core..pin..Pin$LT$alloc..sync..Arc$LT$std..thread..Inner$GT$$GT$$GT$17h9daa49e937c0558cE
	.p2align	4, 0x90
__ZN4core3ptr85drop_in_place$LT$core..pin..Pin$LT$alloc..sync..Arc$LT$std..thread..Inner$GT$$GT$$GT$17h9daa49e937c0558cE:
Lfunc_begin39:
	.loc	13 490 0
	.cfi_startproc
	pushq	%rbp
	.cfi_def_cfa_offset 16
	.cfi_offset %rbp, -16
	movq	%rsp, %rbp
	.cfi_def_cfa_register %rbp
	subq	$16, %rsp
	movq	%rdi, -8(%rbp)
Ltmp122:
	.loc	13 490 1 prologue_end
	callq	__ZN4core3ptr63drop_in_place$LT$alloc..sync..Arc$LT$std..thread..Inner$GT$$GT$17hf910de652363456cE
	addq	$16, %rsp
	popq	%rbp
	retq
Ltmp123:
Lfunc_end39:
	.cfi_endproc

	.globl	__ZN4core3ptr85drop_in_place$LT$spin..mutex..spin..SpinMutexGuard$LT$core..task..wake..Waker$GT$$GT$17h75e508f1b7df95a7E
	.p2align	4, 0x90
__ZN4core3ptr85drop_in_place$LT$spin..mutex..spin..SpinMutexGuard$LT$core..task..wake..Waker$GT$$GT$17h75e508f1b7df95a7E:
Lfunc_begin40:
	.loc	13 490 0
	.cfi_startproc
	pushq	%rbp
	.cfi_def_cfa_offset 16
	.cfi_offset %rbp, -16
	movq	%rsp, %rbp
	.cfi_def_cfa_register %rbp
	subq	$16, %rsp
	movq	%rdi, -8(%rbp)
Ltmp124:
	.loc	13 490 1 prologue_end
	callq	__ZN84_$LT$spin..mutex..spin..SpinMutexGuard$LT$T$GT$$u20$as$u20$core..ops..drop..Drop$GT$4drop17had36f64b938556d2E
	addq	$16, %rsp
	popq	%rbp
	retq
Ltmp125:
Lfunc_end40:
	.cfi_endproc

	.globl	__ZN4core3ptr99drop_in_place$LT$spin..mutex..Mutex$LT$alloc..collections..vec_deque..VecDeque$LT$usize$GT$$GT$$GT$17h06b4dd98e0831b1cE
	.p2align	4, 0x90
__ZN4core3ptr99drop_in_place$LT$spin..mutex..Mutex$LT$alloc..collections..vec_deque..VecDeque$LT$usize$GT$$GT$$GT$17h06b4dd98e0831b1cE:
Lfunc_begin41:
	.loc	13 490 0
	.cfi_startproc
	pushq	%rbp
	.cfi_def_cfa_offset 16
	.cfi_offset %rbp, -16
	movq	%rsp, %rbp
	.cfi_def_cfa_register %rbp
	subq	$16, %rsp
	movq	%rdi, -8(%rbp)
Ltmp126:
	.loc	13 490 1 prologue_end
	callq	__ZN4core3ptr109drop_in_place$LT$spin..mutex..spin..SpinMutex$LT$alloc..collections..vec_deque..VecDeque$LT$usize$GT$$GT$$GT$17h257def6536f42b68E
	addq	$16, %rsp
	popq	%rbp
	retq
Ltmp127:
Lfunc_end41:
	.cfi_endproc

	.p2align	4, 0x90
__ZN4core4hint21unreachable_unchecked17h8e62aa67d218318bE:
Lfunc_begin42:
	.file	14 "/rustc/2c8cc343237b8f7d5a3c3703e3a87f2eb2c54a74/library/core/src" "hint.rs"
	.loc	14 100 0
	.cfi_startproc
	pushq	%rbp
	.cfi_def_cfa_offset 16
	.cfi_offset %rbp, -16
	movq	%rsp, %rbp
	.cfi_def_cfa_register %rbp
Ltmp128:
	.loc	14 104 9 prologue_end
	ud2
Ltmp129:
Lfunc_end42:
	.cfi_endproc

	.p2align	4, 0x90
__ZN4core4sync6atomic10AtomicBool21compare_exchange_weak17h53c5525738b3d37fE:
Lfunc_begin43:
	.file	15 "/rustc/2c8cc343237b8f7d5a3c3703e3a87f2eb2c54a74/library/core/src/sync" "atomic.rs"
	.loc	15 673 0
	.cfi_startproc
	pushq	%rbp
	.cfi_def_cfa_offset 16
	.cfi_offset %rbp, -16
	movq	%rsp, %rbp
	.cfi_def_cfa_register %rbp
	subq	$48, %rsp
	movl	%edx, %eax
	movl	%esi, %edx
	movb	%r8b, %sil
	movq	%rdi, -32(%rbp)
	movb	%dl, %r8b
	andb	$1, %r8b
	movb	%r8b, -20(%rbp)
	movb	%al, %r8b
	andb	$1, %r8b
	movb	%r8b, -19(%rbp)
	movb	%cl, -18(%rbp)
	movb	%sil, -17(%rbp)
Ltmp130:
	.loc	15 682 42 prologue_end
	movq	%rdi, -16(%rbp)
	.loc	15 682 13 is_stmt 0
	movzbl	%cl, %ecx
	movzbl	%sil, %r8d
	movzbl	%dl, %esi
	andl	$1, %esi
	movzbl	%al, %edx
	andl	$1, %edx
	callq	__ZN4core4sync6atomic28atomic_compare_exchange_weak17h1f344d06f5f8d085E
	movb	%dl, -39(%rbp)
	movb	%al, -40(%rbp)
	.loc	15 681 15 is_stmt 1
	movb	-40(%rbp), %al
	andb	$1, %al
	movzbl	%al, %eax
	.loc	15 681 9 is_stmt 0
	cmpq	$0, %rax
	jne	LBB43_2
	.loc	15 684 16 is_stmt 1
	movb	-39(%rbp), %al
	movb	%al, -1(%rbp)
Ltmp131:
	.loc	15 684 25 is_stmt 0
	cmpb	$0, %al
	setne	%al
	.loc	15 684 22
	andb	$1, %al
	movb	%al, -47(%rbp)
	movb	$0, -48(%rbp)
Ltmp132:
	.loc	15 684 31
	jmp	LBB43_3
LBB43_2:
	.loc	15 685 17 is_stmt 1
	movb	-39(%rbp), %al
	movb	%al, -2(%rbp)
Ltmp133:
	.loc	15 685 27 is_stmt 0
	cmpb	$0, %al
	setne	%al
	.loc	15 685 23
	andb	$1, %al
	movb	%al, -47(%rbp)
	movb	$1, -48(%rbp)
Ltmp134:
LBB43_3:
	.loc	15 687 6 is_stmt 1
	movb	-48(%rbp), %al
	movb	-47(%rbp), %dl
	addq	$48, %rsp
	popq	%rbp
	retq
Ltmp135:
Lfunc_end43:
	.cfi_endproc

	.p2align	4, 0x90
__ZN4core4sync6atomic10AtomicBool3new17hdf44c530a51cbc17E:
Lfunc_begin44:
	.loc	15 304 0
	.cfi_startproc
	pushq	%rbp
	.cfi_def_cfa_offset 16
	.cfi_offset %rbp, -16
	movq	%rsp, %rbp
	.cfi_def_cfa_register %rbp
	pushq	%rax
	movb	%dil, %al
	movb	%al, %cl
	andb	$1, %cl
	movb	%cl, -2(%rbp)
Ltmp136:
	.loc	15 305 41 prologue_end
	andb	$1, %al
	movb	%al, -1(%rbp)
Ltmp137:
	.file	16 "/rustc/2c8cc343237b8f7d5a3c3703e3a87f2eb2c54a74/library/core/src" "cell.rs"
	.loc	16 1953 9
	movb	%al, -3(%rbp)
Ltmp138:
	.loc	15 305 9
	movb	-3(%rbp), %al
	movb	%al, -8(%rbp)
	.loc	15 306 6
	movb	-8(%rbp), %al
	addq	$8, %rsp
	popq	%rbp
	retq
Ltmp139:
Lfunc_end44:
	.cfi_endproc

	.p2align	4, 0x90
__ZN4core4sync6atomic10AtomicBool4load17hb7966b53ae1032fcE:
Lfunc_begin45:
	.loc	15 453 0
	.cfi_startproc
	pushq	%rbp
	.cfi_def_cfa_offset 16
	.cfi_offset %rbp, -16
	movq	%rsp, %rbp
	.cfi_def_cfa_register %rbp
	subq	$32, %rsp
	movb	%sil, %al
	movq	%rdi, -24(%rbp)
	movb	%al, -9(%rbp)
Ltmp140:
	.loc	15 456 30 prologue_end
	movq	%rdi, -8(%rbp)
	.loc	15 456 18 is_stmt 0
	movzbl	%al, %esi
	callq	__ZN4core4sync6atomic11atomic_load17haea3012a39874ec4E
	cmpb	$0, %al
	setne	%al
	.loc	15 457 6 is_stmt 1
	andb	$1, %al
	movzbl	%al, %eax
	addq	$32, %rsp
	popq	%rbp
	retq
Ltmp141:
Lfunc_end45:
	.cfi_endproc

	.p2align	4, 0x90
__ZN4core4sync6atomic10AtomicBool5store17h5a00f92a0913708fE:
Lfunc_begin46:
	.loc	15 481 0
	.cfi_startproc
	pushq	%rbp
	.cfi_def_cfa_offset 16
	.cfi_offset %rbp, -16
	movq	%rsp, %rbp
	.cfi_def_cfa_register %rbp
	subq	$32, %rsp
	movb	%dl, %al
	movb	%sil, %cl
	movq	%rdi, -24(%rbp)
	movb	%cl, %dl
	andb	$1, %dl
	movb	%dl, -10(%rbp)
	movb	%al, -9(%rbp)
Ltmp142:
	.loc	15 485 26 prologue_end
	movq	%rdi, -8(%rbp)
	.loc	15 485 40 is_stmt 0
	andb	$1, %cl
	.loc	15 485 13
	movzbl	%cl, %esi
	movzbl	%al, %edx
	callq	__ZN4core4sync6atomic12atomic_store17h22d857bacb7d39cbE
	.loc	15 487 6 is_stmt 1
	addq	$32, %rsp
	popq	%rbp
	retq
Ltmp143:
Lfunc_end46:
	.cfi_endproc

	.globl	__ZN4core4sync6atomic10atomic_sub17h13b9151db60adef2E
	.p2align	4, 0x90
__ZN4core4sync6atomic10atomic_sub17h13b9151db60adef2E:
Lfunc_begin47:
	.loc	15 3069 0
	.cfi_startproc
	pushq	%rbp
	.cfi_def_cfa_offset 16
	.cfi_offset %rbp, -16
	movq	%rsp, %rbp
	.cfi_def_cfa_register %rbp
	subq	$56, %rsp
	movq	%rsi, -56(%rbp)
	movq	%rdi, -48(%rbp)
	movb	%dl, %al
	movb	%al, -25(%rbp)
	movq	%rdi, -16(%rbp)
	movq	%rsi, -8(%rbp)
Ltmp144:
	.loc	15 3072 15 prologue_end
	movzbl	-25(%rbp), %eax
	movq	%rax, -40(%rbp)
	.loc	15 0 15 is_stmt 0
	movq	-40(%rbp), %rax
	leaq	LJTI47_0(%rip), %rcx
	movslq	(%rcx,%rax,4), %rax
	addq	%rcx, %rax
	jmpq	*%rax
	.loc	15 3072 15
	ud2
LBB47_2:
	.loc	15 0 15
	movq	-48(%rbp), %rcx
	movq	-56(%rbp), %rax
	.loc	15 3073 24 is_stmt 1
	negq	%rax
	lock		xaddq	%rax, (%rcx)
	movq	%rax, -24(%rbp)
	.loc	15 3073 64 is_stmt 0
	jmp	LBB47_7
LBB47_3:
	.loc	15 0 64
	movq	-48(%rbp), %rcx
	movq	-56(%rbp), %rax
	.loc	15 3075 24 is_stmt 1
	negq	%rax
	lock		xaddq	%rax, (%rcx)
	movq	%rax, -24(%rbp)
	.loc	15 3075 64 is_stmt 0
	jmp	LBB47_7
LBB47_4:
	.loc	15 0 64
	movq	-48(%rbp), %rcx
	movq	-56(%rbp), %rax
	.loc	15 3074 24 is_stmt 1
	negq	%rax
	lock		xaddq	%rax, (%rcx)
	movq	%rax, -24(%rbp)
	.loc	15 3074 64 is_stmt 0
	jmp	LBB47_7
LBB47_5:
	.loc	15 0 64
	movq	-48(%rbp), %rcx
	movq	-56(%rbp), %rax
	.loc	15 3076 23 is_stmt 1
	negq	%rax
	lock		xaddq	%rax, (%rcx)
	movq	%rax, -24(%rbp)
	.loc	15 3076 62 is_stmt 0
	jmp	LBB47_7
LBB47_6:
	.loc	15 0 62
	movq	-48(%rbp), %rcx
	movq	-56(%rbp), %rax
	.loc	15 3077 23 is_stmt 1
	negq	%rax
	lock		xaddq	%rax, (%rcx)
	movq	%rax, -24(%rbp)
LBB47_7:
	.loc	15 3080 2
	movq	-24(%rbp), %rax
	addq	$56, %rsp
	popq	%rbp
	retq
Ltmp145:
Lfunc_end47:
	.cfi_endproc
	.p2align	2, 0x90
	.data_region jt32
.set L47_0_set_2, LBB47_2-LJTI47_0
.set L47_0_set_3, LBB47_3-LJTI47_0
.set L47_0_set_4, LBB47_4-LJTI47_0
.set L47_0_set_5, LBB47_5-LJTI47_0
.set L47_0_set_6, LBB47_6-LJTI47_0
LJTI47_0:
	.long	L47_0_set_2
	.long	L47_0_set_3
	.long	L47_0_set_4
	.long	L47_0_set_5
	.long	L47_0_set_6
	.end_data_region

	.globl	__ZN4core4sync6atomic11atomic_load17haea3012a39874ec4E
	.p2align	4, 0x90
__ZN4core4sync6atomic11atomic_load17haea3012a39874ec4E:
Lfunc_begin48:
	.loc	15 3019 0
	.cfi_startproc
	pushq	%rbp
	.cfi_def_cfa_offset 16
	.cfi_offset %rbp, -16
	movq	%rsp, %rbp
	.cfi_def_cfa_register %rbp
	subq	$144, %rsp
	movq	%rdi, -128(%rbp)
	movb	%sil, %al
	movb	%al, -106(%rbp)
	movq	%rdi, -8(%rbp)
Ltmp146:
	.loc	15 3022 15 prologue_end
	movzbl	-106(%rbp), %eax
	movq	%rax, -120(%rbp)
	.loc	15 0 15 is_stmt 0
	movq	-120(%rbp), %rax
	leaq	LJTI48_0(%rip), %rcx
	movslq	(%rcx,%rax,4), %rax
	addq	%rcx, %rax
	jmpq	*%rax
	.loc	15 3022 15
	ud2
LBB48_2:
	.loc	15 0 15
	movq	-128(%rbp), %rax
	.loc	15 3023 24 is_stmt 1
	movb	(%rax), %al
	movb	%al, -105(%rbp)
	.loc	15 3023 59 is_stmt 0
	jmp	LBB48_7
LBB48_3:
	.loc	15 3026 24 is_stmt 1
	leaq	l___unnamed_7(%rip), %rsi
	leaq	l___unnamed_5(%rip), %rcx
	xorl	%eax, %eax
	movl	%eax, %r8d
	leaq	-104(%rbp), %rdi
	movq	%rdi, -136(%rbp)
	movl	$1, %edx
	callq	__ZN4core3fmt9Arguments6new_v117h07098be78706d600E
	movq	-136(%rbp), %rdi
	leaq	l___unnamed_8(%rip), %rsi
	callq	__ZN4core9panicking9panic_fmt17h9b5d807e24bcaaedE
LBB48_4:
	.loc	15 0 24 is_stmt 0
	movq	-128(%rbp), %rax
	.loc	15 3024 24 is_stmt 1
	movb	(%rax), %al
	movb	%al, -105(%rbp)
	.loc	15 3024 59 is_stmt 0
	jmp	LBB48_7
LBB48_5:
	.loc	15 3027 23 is_stmt 1
	leaq	l___unnamed_9(%rip), %rsi
	leaq	l___unnamed_5(%rip), %rcx
	xorl	%eax, %eax
	movl	%eax, %r8d
	leaq	-56(%rbp), %rdi
	movq	%rdi, -144(%rbp)
	movl	$1, %edx
	callq	__ZN4core3fmt9Arguments6new_v117h07098be78706d600E
	movq	-144(%rbp), %rdi
	leaq	l___unnamed_10(%rip), %rsi
	callq	__ZN4core9panicking9panic_fmt17h9b5d807e24bcaaedE
LBB48_6:
	.loc	15 0 23 is_stmt 0
	movq	-128(%rbp), %rax
	.loc	15 3025 23 is_stmt 1
	movb	(%rax), %al
	movb	%al, -105(%rbp)
LBB48_7:
	.loc	15 3030 2
	movb	-105(%rbp), %al
	addq	$144, %rsp
	popq	%rbp
	retq
Ltmp147:
Lfunc_end48:
	.cfi_endproc
	.p2align	2, 0x90
	.data_region jt32
.set L48_0_set_2, LBB48_2-LJTI48_0
.set L48_0_set_3, LBB48_3-LJTI48_0
.set L48_0_set_4, LBB48_4-LJTI48_0
.set L48_0_set_5, LBB48_5-LJTI48_0
.set L48_0_set_6, LBB48_6-LJTI48_0
LJTI48_0:
	.long	L48_0_set_2
	.long	L48_0_set_3
	.long	L48_0_set_4
	.long	L48_0_set_5
	.long	L48_0_set_6
	.end_data_region

	.globl	__ZN4core4sync6atomic28atomic_compare_exchange_weak17h1f344d06f5f8d085E
	.p2align	4, 0x90
__ZN4core4sync6atomic28atomic_compare_exchange_weak17h1f344d06f5f8d085E:
Lfunc_begin49:
	.loc	15 3120 0
	.cfi_startproc
	pushq	%rbp
	.cfi_def_cfa_offset 16
	.cfi_offset %rbp, -16
	movq	%rsp, %rbp
	.cfi_def_cfa_register %rbp
	subq	$224, %rsp
	movq	%rdi, -160(%rbp)
	movb	%r8b, %al
	movb	%dl, -146(%rbp)
	movb	%sil, -145(%rbp)
	movq	%rdi, -16(%rbp)
	movb	%sil, -6(%rbp)
	movb	%dl, -5(%rbp)
	movb	%cl, -4(%rbp)
	movb	%al, -3(%rbp)
Ltmp148:
	.loc	15 3129 15 prologue_end
	movb	%cl, -120(%rbp)
	movb	%al, -119(%rbp)
	movzbl	-120(%rbp), %eax
	movq	%rax, -144(%rbp)
	.loc	15 0 15 is_stmt 0
	movq	-144(%rbp), %rax
	leaq	LJTI49_0(%rip), %rcx
	movslq	(%rcx,%rax,4), %rax
	addq	%rcx, %rax
	jmpq	*%rax
	.loc	15 3129 9
	ud2
LBB49_2:
	.loc	15 3129 15
	movzbl	-119(%rbp), %eax
	movq	%rax, -168(%rbp)
	testq	%rax, %rax
	.loc	15 3129 9
	je	LBB49_21
	jmp	LBB49_38
LBB49_38:
	.loc	15 0 9
	movq	-168(%rbp), %rax
	.loc	15 3129 9
	subq	$2, %rax
	je	LBB49_22
	jmp	LBB49_39
LBB49_39:
	.loc	15 0 9
	movq	-168(%rbp), %rax
	.loc	15 3129 9
	subq	$4, %rax
	je	LBB49_23
	jmp	LBB49_7
LBB49_3:
	.loc	15 3129 15
	movzbl	-119(%rbp), %eax
	movq	%rax, -176(%rbp)
	testq	%rax, %rax
	.loc	15 3129 9
	je	LBB49_18
	jmp	LBB49_36
LBB49_36:
	.loc	15 0 9
	movq	-176(%rbp), %rax
	.loc	15 3129 9
	subq	$2, %rax
	je	LBB49_19
	jmp	LBB49_37
LBB49_37:
	.loc	15 0 9
	movq	-176(%rbp), %rax
	.loc	15 3129 9
	subq	$4, %rax
	je	LBB49_20
	jmp	LBB49_7
LBB49_4:
	.loc	15 3129 15
	movzbl	-119(%rbp), %eax
	movq	%rax, -184(%rbp)
	testq	%rax, %rax
	.loc	15 3129 9
	je	LBB49_15
	jmp	LBB49_34
LBB49_34:
	.loc	15 0 9
	movq	-184(%rbp), %rax
	.loc	15 3129 9
	subq	$2, %rax
	je	LBB49_16
	jmp	LBB49_35
LBB49_35:
	.loc	15 0 9
	movq	-184(%rbp), %rax
	.loc	15 3129 9
	subq	$4, %rax
	je	LBB49_17
	jmp	LBB49_7
LBB49_5:
	.loc	15 3129 15
	movzbl	-119(%rbp), %eax
	movq	%rax, -192(%rbp)
	testq	%rax, %rax
	.loc	15 3129 9
	je	LBB49_12
	jmp	LBB49_32
LBB49_32:
	.loc	15 0 9
	movq	-192(%rbp), %rax
	.loc	15 3129 9
	subq	$2, %rax
	je	LBB49_13
	jmp	LBB49_33
LBB49_33:
	.loc	15 0 9
	movq	-192(%rbp), %rax
	.loc	15 3129 9
	subq	$4, %rax
	je	LBB49_14
	jmp	LBB49_7
LBB49_6:
	.loc	15 3129 15
	movzbl	-119(%rbp), %eax
	movq	%rax, -200(%rbp)
	testq	%rax, %rax
	.loc	15 3129 9
	je	LBB49_8
	jmp	LBB49_30
LBB49_30:
	.loc	15 0 9
	movq	-200(%rbp), %rax
	.loc	15 3129 9
	subq	$2, %rax
	je	LBB49_9
	jmp	LBB49_31
LBB49_31:
	.loc	15 0 9
	movq	-200(%rbp), %rax
	.loc	15 3129 9
	subq	$4, %rax
	je	LBB49_10
	jmp	LBB49_7
LBB49_7:
	.loc	15 3129 15
	movzbl	-119(%rbp), %eax
	.loc	15 3129 9
	cmpq	$1, %rax
	je	LBB49_24
	jmp	LBB49_25
LBB49_8:
	.loc	15 0 9
	movq	-160(%rbp), %rcx
	movb	-146(%rbp), %dl
	movb	-145(%rbp), %al
	.loc	15 3142 34 is_stmt 1
	lock		cmpxchgb	%dl, (%rcx)
	movb	%al, %cl
	sete	%al
	andb	$1, %al
	movb	%cl, -128(%rbp)
	movb	%al, -127(%rbp)
	.loc	15 3142 91 is_stmt 0
	jmp	LBB49_11
LBB49_9:
	.loc	15 0 91
	movq	-160(%rbp), %rcx
	movb	-146(%rbp), %dl
	movb	-145(%rbp), %al
	.loc	15 3143 34 is_stmt 1
	lock		cmpxchgb	%dl, (%rcx)
	movb	%al, %cl
	sete	%al
	andb	$1, %al
	movb	%cl, -128(%rbp)
	movb	%al, -127(%rbp)
	.loc	15 3143 91 is_stmt 0
	jmp	LBB49_11
LBB49_10:
	.loc	15 0 91
	movq	-160(%rbp), %rcx
	movb	-146(%rbp), %dl
	movb	-145(%rbp), %al
	.loc	15 3144 33 is_stmt 1
	lock		cmpxchgb	%dl, (%rcx)
	movb	%al, %cl
	sete	%al
	andb	$1, %al
	movb	%cl, -128(%rbp)
	movb	%al, -127(%rbp)
LBB49_11:
	.loc	15 3128 10
	movb	-128(%rbp), %al
	movb	%al, -201(%rbp)
	movb	%al, -2(%rbp)
	.loc	15 3128 15 is_stmt 0
	movb	-127(%rbp), %al
	movb	%al, %cl
	andb	$1, %cl
	movb	%cl, -1(%rbp)
Ltmp149:
	.loc	15 3149 8 is_stmt 1
	testb	$1, %al
	jne	LBB49_27
	jmp	LBB49_26
Ltmp150:
LBB49_12:
	.loc	15 0 8 is_stmt 0
	movq	-160(%rbp), %rcx
	movb	-146(%rbp), %dl
	movb	-145(%rbp), %al
	.loc	15 3139 34 is_stmt 1
	lock		cmpxchgb	%dl, (%rcx)
	movb	%al, %cl
	sete	%al
	andb	$1, %al
	movb	%cl, -128(%rbp)
	movb	%al, -127(%rbp)
	.loc	15 3139 91 is_stmt 0
	jmp	LBB49_11
LBB49_13:
	.loc	15 0 91
	movq	-160(%rbp), %rcx
	movb	-146(%rbp), %dl
	movb	-145(%rbp), %al
	.loc	15 3140 34 is_stmt 1
	lock		cmpxchgb	%dl, (%rcx)
	movb	%al, %cl
	sete	%al
	andb	$1, %al
	movb	%cl, -128(%rbp)
	movb	%al, -127(%rbp)
	.loc	15 3140 91 is_stmt 0
	jmp	LBB49_11
LBB49_14:
	.loc	15 0 91
	movq	-160(%rbp), %rcx
	movb	-146(%rbp), %dl
	movb	-145(%rbp), %al
	.loc	15 3141 33 is_stmt 1
	lock		cmpxchgb	%dl, (%rcx)
	movb	%al, %cl
	sete	%al
	andb	$1, %al
	movb	%cl, -128(%rbp)
	movb	%al, -127(%rbp)
	.loc	15 3141 89 is_stmt 0
	jmp	LBB49_11
LBB49_15:
	.loc	15 0 89
	movq	-160(%rbp), %rcx
	movb	-146(%rbp), %dl
	movb	-145(%rbp), %al
	.loc	15 3133 35 is_stmt 1
	lock		cmpxchgb	%dl, (%rcx)
	movb	%al, %cl
	sete	%al
	andb	$1, %al
	movb	%cl, -128(%rbp)
	movb	%al, -127(%rbp)
	.loc	15 3133 93 is_stmt 0
	jmp	LBB49_11
LBB49_16:
	.loc	15 0 93
	movq	-160(%rbp), %rcx
	movb	-146(%rbp), %dl
	movb	-145(%rbp), %al
	.loc	15 3134 35 is_stmt 1
	lock		cmpxchgb	%dl, (%rcx)
	movb	%al, %cl
	sete	%al
	andb	$1, %al
	movb	%cl, -128(%rbp)
	movb	%al, -127(%rbp)
	.loc	15 3134 93 is_stmt 0
	jmp	LBB49_11
LBB49_17:
	.loc	15 0 93
	movq	-160(%rbp), %rcx
	movb	-146(%rbp), %dl
	movb	-145(%rbp), %al
	.loc	15 3135 34 is_stmt 1
	lock		cmpxchgb	%dl, (%rcx)
	movb	%al, %cl
	sete	%al
	andb	$1, %al
	movb	%cl, -128(%rbp)
	movb	%al, -127(%rbp)
	.loc	15 3135 91 is_stmt 0
	jmp	LBB49_11
LBB49_18:
	.loc	15 0 91
	movq	-160(%rbp), %rcx
	movb	-146(%rbp), %dl
	movb	-145(%rbp), %al
	.loc	15 3136 35 is_stmt 1
	lock		cmpxchgb	%dl, (%rcx)
	movb	%al, %cl
	sete	%al
	andb	$1, %al
	movb	%cl, -128(%rbp)
	movb	%al, -127(%rbp)
	.loc	15 3136 93 is_stmt 0
	jmp	LBB49_11
LBB49_19:
	.loc	15 0 93
	movq	-160(%rbp), %rcx
	movb	-146(%rbp), %dl
	movb	-145(%rbp), %al
	.loc	15 3137 35 is_stmt 1
	lock		cmpxchgb	%dl, (%rcx)
	movb	%al, %cl
	sete	%al
	andb	$1, %al
	movb	%cl, -128(%rbp)
	movb	%al, -127(%rbp)
	.loc	15 3137 93 is_stmt 0
	jmp	LBB49_11
LBB49_20:
	.loc	15 0 93
	movq	-160(%rbp), %rcx
	movb	-146(%rbp), %dl
	movb	-145(%rbp), %al
	.loc	15 3138 34 is_stmt 1
	lock		cmpxchgb	%dl, (%rcx)
	movb	%al, %cl
	sete	%al
	andb	$1, %al
	movb	%cl, -128(%rbp)
	movb	%al, -127(%rbp)
	.loc	15 3138 91 is_stmt 0
	jmp	LBB49_11
LBB49_21:
	.loc	15 0 91
	movq	-160(%rbp), %rcx
	movb	-146(%rbp), %dl
	movb	-145(%rbp), %al
	.loc	15 3130 35 is_stmt 1
	lock		cmpxchgb	%dl, (%rcx)
	movb	%al, %cl
	sete	%al
	andb	$1, %al
	movb	%cl, -128(%rbp)
	movb	%al, -127(%rbp)
	.loc	15 3130 93 is_stmt 0
	jmp	LBB49_11
LBB49_22:
	.loc	15 0 93
	movq	-160(%rbp), %rcx
	movb	-146(%rbp), %dl
	movb	-145(%rbp), %al
	.loc	15 3131 35 is_stmt 1
	lock		cmpxchgb	%dl, (%rcx)
	movb	%al, %cl
	sete	%al
	andb	$1, %al
	movb	%cl, -128(%rbp)
	movb	%al, -127(%rbp)
	.loc	15 3131 93 is_stmt 0
	jmp	LBB49_11
LBB49_23:
	.loc	15 0 93
	movq	-160(%rbp), %rcx
	movb	-146(%rbp), %dl
	movb	-145(%rbp), %al
	.loc	15 3132 34 is_stmt 1
	lock		cmpxchgb	%dl, (%rcx)
	movb	%al, %cl
	sete	%al
	andb	$1, %al
	movb	%cl, -128(%rbp)
	movb	%al, -127(%rbp)
	.loc	15 3132 91 is_stmt 0
	jmp	LBB49_11
LBB49_24:
	.loc	15 3146 29 is_stmt 1
	leaq	l___unnamed_11(%rip), %rsi
	leaq	l___unnamed_5(%rip), %rcx
	xorl	%eax, %eax
	movl	%eax, %r8d
	leaq	-64(%rbp), %rdi
	movq	%rdi, -216(%rbp)
	movl	$1, %edx
	callq	__ZN4core3fmt9Arguments6new_v117h07098be78706d600E
	movq	-216(%rbp), %rdi
	leaq	l___unnamed_12(%rip), %rsi
	callq	__ZN4core9panicking9panic_fmt17h9b5d807e24bcaaedE
LBB49_25:
	.loc	15 3145 28
	leaq	l___unnamed_13(%rip), %rsi
	leaq	l___unnamed_5(%rip), %rcx
	xorl	%eax, %eax
	movl	%eax, %r8d
	leaq	-112(%rbp), %rdi
	movq	%rdi, -224(%rbp)
	movl	$1, %edx
	callq	__ZN4core3fmt9Arguments6new_v117h07098be78706d600E
	movq	-224(%rbp), %rdi
	leaq	l___unnamed_14(%rip), %rsi
	callq	__ZN4core9panicking9panic_fmt17h9b5d807e24bcaaedE
LBB49_26:
	.loc	15 0 28 is_stmt 0
	movb	-201(%rbp), %al
Ltmp151:
	.loc	15 3149 30 is_stmt 1
	movb	%al, -135(%rbp)
	movb	$1, -136(%rbp)
	.loc	15 3149 5 is_stmt 0
	jmp	LBB49_28
LBB49_27:
	.loc	15 0 5
	movb	-201(%rbp), %al
	.loc	15 3149 13
	movb	%al, -135(%rbp)
	movb	$0, -136(%rbp)
Ltmp152:
LBB49_28:
	.loc	15 3150 2 is_stmt 1
	movb	-136(%rbp), %al
	movb	-135(%rbp), %dl
	addq	$224, %rsp
	popq	%rbp
	retq
Ltmp153:
Lfunc_end49:
	.cfi_endproc
	.p2align	2, 0x90
	.data_region jt32
.set L49_0_set_2, LBB49_2-LJTI49_0
.set L49_0_set_3, LBB49_3-LJTI49_0
.set L49_0_set_4, LBB49_4-LJTI49_0
.set L49_0_set_5, LBB49_5-LJTI49_0
.set L49_0_set_6, LBB49_6-LJTI49_0
LJTI49_0:
	.long	L49_0_set_2
	.long	L49_0_set_3
	.long	L49_0_set_4
	.long	L49_0_set_5
	.long	L49_0_set_6
	.end_data_region

	.p2align	4, 0x90
__ZN4core4sync6atomic5fence17he84140d37999db3bE:
Lfunc_begin50:
	.loc	15 3362 0
	.cfi_startproc
	pushq	%rbp
	.cfi_def_cfa_offset 16
	.cfi_offset %rbp, -16
	movq	%rsp, %rbp
	.cfi_def_cfa_register %rbp
	subq	$80, %rsp
	movb	%dil, %al
	movb	%al, -49(%rbp)
Ltmp154:
	.loc	15 3365 15 prologue_end
	movzbl	-49(%rbp), %eax
	movq	%rax, -64(%rbp)
	.loc	15 0 15 is_stmt 0
	movq	-64(%rbp), %rax
	leaq	LJTI50_0(%rip), %rcx
	movslq	(%rcx,%rax,4), %rax
	addq	%rcx, %rax
	jmpq	*%rax
	.loc	15 3365 15
	ud2
LBB50_2:
	.loc	15 3370 24 is_stmt 1
	leaq	l___unnamed_15(%rip), %rsi
	leaq	l___unnamed_5(%rip), %rcx
	xorl	%eax, %eax
	movl	%eax, %r8d
	leaq	-48(%rbp), %rdi
	movq	%rdi, -72(%rbp)
	movl	$1, %edx
	callq	__ZN4core3fmt9Arguments6new_v117h07098be78706d600E
	movq	-72(%rbp), %rdi
	leaq	l___unnamed_16(%rip), %rsi
	callq	__ZN4core9panicking9panic_fmt17h9b5d807e24bcaaedE
LBB50_3:
	##MEMBARRIER
	.loc	15 3367 24
	jmp	LBB50_7
LBB50_4:
	##MEMBARRIER
	.loc	15 3366 24
	jmp	LBB50_7
LBB50_5:
	##MEMBARRIER
	.loc	15 3368 23
	jmp	LBB50_7
LBB50_6:
	.loc	15 3369 23
	mfence
LBB50_7:
	.loc	15 3373 2
	addq	$80, %rsp
	popq	%rbp
	retq
Ltmp155:
Lfunc_end50:
	.cfi_endproc
	.p2align	2, 0x90
	.data_region jt32
.set L50_0_set_2, LBB50_2-LJTI50_0
.set L50_0_set_3, LBB50_3-LJTI50_0
.set L50_0_set_4, LBB50_4-LJTI50_0
.set L50_0_set_5, LBB50_5-LJTI50_0
.set L50_0_set_6, LBB50_6-LJTI50_0
LJTI50_0:
	.long	L50_0_set_2
	.long	L50_0_set_3
	.long	L50_0_set_4
	.long	L50_0_set_5
	.long	L50_0_set_6
	.end_data_region

	.p2align	4, 0x90
__ZN4core4task4wake5Waker11wake_by_ref17h9c70a957a94e6b13E:
Lfunc_begin51:
	.file	17 "/rustc/2c8cc343237b8f7d5a3c3703e3a87f2eb2c54a74/library/core/src/task" "wake.rs"
	.loc	17 290 0
	.cfi_startproc
	pushq	%rbp
	.cfi_def_cfa_offset 16
	.cfi_offset %rbp, -16
	movq	%rsp, %rbp
	.cfi_def_cfa_register %rbp
	subq	$16, %rsp
	movq	%rdi, -8(%rbp)
Ltmp156:
	.loc	17 295 18 prologue_end
	movq	8(%rdi), %rax
	movq	16(%rax), %rax
	.loc	17 295 50 is_stmt 0
	movq	(%rdi), %rdi
	.loc	17 295 18
	callq	*%rax
	.loc	17 296 6 is_stmt 1
	addq	$16, %rsp
	popq	%rbp
	retq
Ltmp157:
Lfunc_end51:
	.cfi_endproc

	.p2align	4, 0x90
__ZN4core4task4wake7Context5waker17h4dc4480b4142aff2E:
Lfunc_begin52:
	.loc	17 205 0
	.cfi_startproc
	pushq	%rbp
	.cfi_def_cfa_offset 16
	.cfi_offset %rbp, -16
	movq	%rsp, %rbp
	.cfi_def_cfa_register %rbp
	pushq	%rax
	movq	%rdi, -8(%rbp)
Ltmp158:
	.loc	17 206 9 prologue_end
	movq	(%rdi), %rax
	.loc	17 207 6
	addq	$8, %rsp
	popq	%rbp
	retq
Ltmp159:
Lfunc_end52:
	.cfi_endproc

	.globl	__ZN4core5alloc6layout6Layout13for_value_raw17h6cb72e71601b132fE
	.p2align	4, 0x90
__ZN4core5alloc6layout6Layout13for_value_raw17h6cb72e71601b132fE:
Lfunc_begin53:
	.file	18 "/rustc/2c8cc343237b8f7d5a3c3703e3a87f2eb2c54a74/library/core/src/alloc" "layout.rs"
	.loc	18 197 0
	.cfi_startproc
	pushq	%rbp
	.cfi_def_cfa_offset 16
	.cfi_offset %rbp, -16
	movq	%rsp, %rbp
	.cfi_def_cfa_register %rbp
	subq	$120, %rsp
	movq	%rdi, -88(%rbp)
Ltmp160:
	.loc	18 199 60 prologue_end
	movq	%rdi, -80(%rbp)
Ltmp161:
	.file	19 "/rustc/2c8cc343237b8f7d5a3c3703e3a87f2eb2c54a74/library/core/src/mem" "mod.rs"
	.loc	19 387 14
	movq	$56, -72(%rbp)
	movq	-72(%rbp), %rcx
Ltmp162:
	.loc	18 199 86
	movq	%rdi, -64(%rbp)
Ltmp163:
	.loc	19 529 14
	movq	$8, -56(%rbp)
	movq	-56(%rbp), %rax
Ltmp164:
	.loc	18 199 38
	movq	%rcx, -104(%rbp)
	movq	%rax, -96(%rbp)
	.loc	18 199 14 is_stmt 0
	movq	-104(%rbp), %rcx
	movq	%rcx, -48(%rbp)
	.loc	18 199 20
	movq	-96(%rbp), %rax
	movq	%rax, -40(%rbp)
Ltmp165:
	.loc	18 201 52 is_stmt 1
	movq	%rcx, -32(%rbp)
	.loc	18 201 58 is_stmt 0
	movq	%rax, -24(%rbp)
Ltmp166:
	.loc	18 120 65 is_stmt 1
	movq	%rax, -16(%rbp)
Ltmp167:
	.file	20 "/rustc/2c8cc343237b8f7d5a3c3703e3a87f2eb2c54a74/library/core/src/ptr" "alignment.rs"
	.loc	20 89 18
	movq	%rax, -8(%rbp)
	movq	-8(%rbp), %rax
Ltmp168:
	.loc	18 120 18
	movq	%rcx, -120(%rbp)
	movq	%rax, -112(%rbp)
Ltmp169:
	.loc	18 202 6
	movq	-120(%rbp), %rax
	movq	-112(%rbp), %rdx
	addq	$120, %rsp
	popq	%rbp
	retq
Ltmp170:
Lfunc_end53:
	.cfi_endproc

	.globl	__ZN4core5alloc6layout6Layout13for_value_raw17h799f8f37a630d32cE
	.p2align	4, 0x90
__ZN4core5alloc6layout6Layout13for_value_raw17h799f8f37a630d32cE:
Lfunc_begin54:
	.loc	18 197 0
	.cfi_startproc
	pushq	%rbp
	.cfi_def_cfa_offset 16
	.cfi_offset %rbp, -16
	movq	%rsp, %rbp
	.cfi_def_cfa_register %rbp
	subq	$120, %rsp
	movq	%rdi, -88(%rbp)
Ltmp171:
	.loc	18 199 60 prologue_end
	movq	%rdi, -80(%rbp)
Ltmp172:
	.loc	19 387 14
	movq	$56, -72(%rbp)
	movq	-72(%rbp), %rcx
Ltmp173:
	.loc	18 199 86
	movq	%rdi, -64(%rbp)
Ltmp174:
	.loc	19 529 14
	movq	$8, -56(%rbp)
	movq	-56(%rbp), %rax
Ltmp175:
	.loc	18 199 38
	movq	%rcx, -104(%rbp)
	movq	%rax, -96(%rbp)
	.loc	18 199 14 is_stmt 0
	movq	-104(%rbp), %rcx
	movq	%rcx, -48(%rbp)
	.loc	18 199 20
	movq	-96(%rbp), %rax
	movq	%rax, -40(%rbp)
Ltmp176:
	.loc	18 201 52 is_stmt 1
	movq	%rcx, -32(%rbp)
	.loc	18 201 58 is_stmt 0
	movq	%rax, -24(%rbp)
Ltmp177:
	.loc	18 120 65 is_stmt 1
	movq	%rax, -16(%rbp)
Ltmp178:
	.loc	20 89 18
	movq	%rax, -8(%rbp)
	movq	-8(%rbp), %rax
Ltmp179:
	.loc	18 120 18
	movq	%rcx, -120(%rbp)
	movq	%rax, -112(%rbp)
Ltmp180:
	.loc	18 202 6
	movq	-120(%rbp), %rax
	movq	-112(%rbp), %rdx
	addq	$120, %rsp
	popq	%rbp
	retq
Ltmp181:
Lfunc_end54:
	.cfi_endproc

	.p2align	4, 0x90
__ZN4core5alloc6layout6Layout5array5inner17h67d46bb1970fa79fE:
Lfunc_begin55:
	.loc	18 441 0
	.cfi_startproc
	pushq	%rbp
	.cfi_def_cfa_offset 16
	.cfi_offset %rbp, -16
	movq	%rsp, %rbp
	.cfi_def_cfa_register %rbp
	subq	$176, %rsp
	movq	%rdi, -168(%rbp)
	movq	%rsi, -160(%rbp)
	movq	%rdx, -152(%rbp)
	movq	%rdi, -88(%rbp)
	movq	%rsi, -80(%rbp)
	movq	%rdx, -72(%rbp)
Ltmp182:
	.loc	18 452 16 prologue_end
	cmpq	$0, %rdi
	jne	LBB55_2
	movb	$0, -121(%rbp)
	jmp	LBB55_5
LBB55_2:
	.loc	18 0 16 is_stmt 0
	movq	-168(%rbp), %rax
	movq	-160(%rbp), %rcx
	.loc	18 452 68
	movq	%rcx, -64(%rbp)
Ltmp183:
	.loc	18 93 32 is_stmt 1
	movq	%rcx, -56(%rbp)
Ltmp184:
	.loc	20 97 9
	movq	%rcx, -104(%rbp)
	movq	-104(%rbp), %rdx
Ltmp185:
	.loc	18 93 31
	subq	$1, %rdx
	.loc	18 93 9 is_stmt 0
	movabsq	$9223372036854775807, %rcx
	subq	%rdx, %rcx
	movq	%rcx, -176(%rbp)
Ltmp186:
	.loc	18 452 41 is_stmt 1
	cmpq	$0, %rax
	sete	%al
	testb	$1, %al
	jne	LBB55_4
	.loc	18 0 41 is_stmt 0
	movq	-168(%rbp), %rcx
	movq	-176(%rbp), %rax
	.loc	18 452 41
	xorl	%edx, %edx
	divq	%rcx
	movq	%rax, %rcx
	movq	-152(%rbp), %rax
	.loc	18 452 37
	cmpq	%rcx, %rax
	seta	%al
	.loc	18 452 16
	andb	$1, %al
	movb	%al, -121(%rbp)
	jmp	LBB55_5
LBB55_4:
	.loc	18 452 41
	leaq	_str.0(%rip), %rdi
	leaq	l___unnamed_17(%rip), %rdx
	movl	$25, %esi
	callq	__ZN4core9panicking5panic17hc1bc45270cf64b03E
LBB55_5:
	.loc	18 452 16
	testb	$1, -121(%rbp)
	jne	LBB55_7
	.loc	18 0 16
	movq	-160(%rbp), %rax
	movq	-152(%rbp), %rdx
	movq	-168(%rbp), %rcx
	.loc	18 456 30 is_stmt 1
	imulq	%rdx, %rcx
	movq	%rcx, -48(%rbp)
Ltmp187:
	.loc	18 461 59
	movq	%rcx, -40(%rbp)
	.loc	18 461 71 is_stmt 0
	movq	%rax, -32(%rbp)
Ltmp188:
	.loc	20 97 9 is_stmt 1
	movq	%rax, -96(%rbp)
	movq	-96(%rbp), %rax
	movq	%rax, -24(%rbp)
Ltmp189:
	.loc	18 120 65
	movq	%rax, -16(%rbp)
Ltmp190:
	.loc	20 89 18
	movq	%rax, -8(%rbp)
	movq	-8(%rbp), %rax
Ltmp191:
	.loc	18 120 18
	movq	%rcx, -120(%rbp)
	movq	%rax, -112(%rbp)
Ltmp192:
	.loc	18 461 22
	movq	-120(%rbp), %rcx
	movq	-112(%rbp), %rax
	movq	%rcx, -144(%rbp)
	movq	%rax, -136(%rbp)
Ltmp193:
	.loc	18 462 10
	jmp	LBB55_8
LBB55_7:
	.loc	18 453 24
	movq	$0, -136(%rbp)
LBB55_8:
	.loc	18 462 10
	movq	-144(%rbp), %rax
	movq	-136(%rbp), %rdx
	addq	$176, %rsp
	popq	%rbp
	retq
Ltmp194:
Lfunc_end55:
	.cfi_endproc

	.globl	__ZN4core5slice5index5range17h27f443396e9f7d1aE
	.p2align	4, 0x90
__ZN4core5slice5index5range17h27f443396e9f7d1aE:
Lfunc_begin56:
	.file	21 "/rustc/2c8cc343237b8f7d5a3c3703e3a87f2eb2c54a74/library/core/src/slice" "index.rs"
	.loc	21 693 0
	.cfi_startproc
	.cfi_personality 155, _rust_eh_personality
	.cfi_lsda 16, Lexception5
	pushq	%rbp
	.cfi_def_cfa_offset 16
	.cfi_offset %rbp, -16
	movq	%rsp, %rbp
	.cfi_def_cfa_register %rbp
	subq	$320, %rsp
	movq	%rdi, -232(%rbp)
	movq	%rsi, -224(%rbp)
	movq	%rdi, -96(%rbp)
Ltmp212:
	.loc	21 697 15 prologue_end
	movq	%rdi, -72(%rbp)
Ltmp195:
	leaq	-200(%rbp), %rdi
Ltmp213:
	.loc	21 699 37
	callq	__ZN86_$LT$core..ops..range..RangeFull$u20$as$u20$core..ops..range..RangeBounds$LT$T$GT$$GT$11start_bound17h8bbe4418b275d7d5E
Ltmp196:
	movq	%rdx, -216(%rbp)
	movq	%rax, -208(%rbp)
	jmp	LBB56_3
Ltmp214:
LBB56_1:
	.loc	21 693 1
	movq	-64(%rbp), %rdi
	callq	__Unwind_Resume
LBB56_2:
Ltmp211:
	.loc	21 0 1 is_stmt 0
	movq	%rax, %rcx
	movl	%edx, %eax
	movq	%rcx, -64(%rbp)
	movl	%eax, -56(%rbp)
	jmp	LBB56_1
LBB56_3:
	movq	-216(%rbp), %rax
	movq	-208(%rbp), %rcx
Ltmp215:
	.loc	21 699 37 is_stmt 1
	movq	%rcx, -176(%rbp)
	movq	%rax, -168(%rbp)
Ltmp216:
	.loc	21 700 23
	movq	-176(%rbp), %rax
	movq	%rax, -240(%rbp)
	.loc	21 700 17 is_stmt 0
	testq	%rax, %rax
	je	LBB56_5
	jmp	LBB56_30
LBB56_30:
	.loc	21 0 17
	movq	-240(%rbp), %rax
	.loc	21 700 17
	subq	$1, %rax
	je	LBB56_6
	jmp	LBB56_31
LBB56_31:
	jmp	LBB56_7
	.loc	21 700 23
	ud2
LBB56_5:
	.loc	21 701 31 is_stmt 1
	movq	-168(%rbp), %rax
	movq	(%rax), %rax
	movq	%rax, -32(%rbp)
Ltmp217:
	.loc	21 701 41 is_stmt 0
	movq	%rax, -160(%rbp)
Ltmp218:
	.loc	21 701 45
	jmp	LBB56_8
LBB56_6:
	.loc	21 702 30 is_stmt 1
	movq	-168(%rbp), %rax
	movq	%rax, -48(%rbp)
Ltmp219:
	.loc	21 703 13
	movq	(%rax), %rdi
Ltmp197:
	movl	$1, %esi
	callq	__ZN4core3num23_$LT$impl$u20$usize$GT$11checked_add17hf01bf6d25dccb75fE
Ltmp198:
	movq	%rdx, -256(%rbp)
	movq	%rax, -248(%rbp)
	jmp	LBB56_9
Ltmp220:
LBB56_7:
	.loc	21 705 34
	movq	$0, -160(%rbp)
LBB56_8:
Ltmp201:
	.loc	21 0 34 is_stmt 0
	leaq	-200(%rbp), %rdi
Ltmp221:
	.loc	21 708 35 is_stmt 1
	callq	__ZN86_$LT$core..ops..range..RangeFull$u20$as$u20$core..ops..range..RangeBounds$LT$T$GT$$GT$9end_bound17h0360d6bacec5a83dE
Ltmp202:
	movq	%rdx, -272(%rbp)
	movq	%rax, -264(%rbp)
	jmp	LBB56_14
Ltmp222:
LBB56_9:
	.loc	21 0 35 is_stmt 0
	movq	-256(%rbp), %rax
	movq	-248(%rbp), %rcx
Ltmp223:
	.loc	21 703 13 is_stmt 1
	movq	%rcx, -152(%rbp)
	movq	%rax, -144(%rbp)
Ltmp224:
	.file	22 "/rustc/2c8cc343237b8f7d5a3c3703e3a87f2eb2c54a74/library/core/src" "option.rs"
	.loc	22 871 9
	cmpq	$0, -152(%rbp)
	jne	LBB56_11
Ltmp199:
	.loc	22 873 21
	callq	__ZN4core5slice5index5range28_$u7b$$u7b$closure$u7d$$u7d$17h951693d754a95637E
Ltmp200:
	movq	%rax, -280(%rbp)
	jmp	LBB56_13
LBB56_11:
	.loc	22 872 18
	movq	-144(%rbp), %rax
	movq	%rax, -40(%rbp)
Ltmp225:
	.loc	22 872 24 is_stmt 0
	movq	%rax, -160(%rbp)
Ltmp226:
LBB56_12:
	.loc	21 704 9 is_stmt 1
	jmp	LBB56_8
LBB56_13:
	.loc	21 0 9 is_stmt 0
	movq	-280(%rbp), %rax
Ltmp227:
	.loc	22 873 21 is_stmt 1
	movq	%rax, -160(%rbp)
	.loc	22 873 23 is_stmt 0
	jmp	LBB56_12
Ltmp228:
LBB56_14:
	.loc	22 0 23
	movq	-272(%rbp), %rax
	movq	-264(%rbp), %rcx
Ltmp229:
	.loc	21 708 35 is_stmt 1
	movq	%rcx, -136(%rbp)
	movq	%rax, -128(%rbp)
Ltmp230:
	.loc	21 709 21
	movq	-136(%rbp), %rax
	movq	%rax, -288(%rbp)
	.loc	21 709 15 is_stmt 0
	testq	%rax, %rax
	je	LBB56_16
	jmp	LBB56_32
LBB56_32:
	.loc	21 0 15
	movq	-288(%rbp), %rax
	.loc	21 709 15
	subq	$1, %rax
	je	LBB56_17
	jmp	LBB56_33
LBB56_33:
	jmp	LBB56_18
	.loc	21 709 21
	ud2
LBB56_16:
	.loc	21 710 30 is_stmt 1
	movq	-128(%rbp), %rax
	movq	%rax, -16(%rbp)
Ltmp231:
	.loc	21 711 13
	movq	(%rax), %rdi
Ltmp203:
	movl	$1, %esi
	callq	__ZN4core3num23_$LT$impl$u20$usize$GT$11checked_add17hf01bf6d25dccb75fE
Ltmp204:
	movq	%rdx, -304(%rbp)
	movq	%rax, -296(%rbp)
	jmp	LBB56_20
Ltmp232:
LBB56_17:
	.loc	21 713 31
	movq	-128(%rbp), %rax
	movq	(%rax), %rax
	movq	%rax, -24(%rbp)
Ltmp233:
	.loc	21 713 39 is_stmt 0
	movq	%rax, -120(%rbp)
Ltmp234:
	.loc	21 713 41
	jmp	LBB56_19
LBB56_18:
	.loc	21 0 41
	movq	-232(%rbp), %rax
	.loc	21 714 34 is_stmt 1
	movq	%rax, -120(%rbp)
LBB56_19:
Ltmp235:
	.loc	21 717 8
	movq	-160(%rbp), %rax
	cmpq	-120(%rbp), %rax
	ja	LBB56_26
	jmp	LBB56_25
Ltmp236:
LBB56_20:
	.loc	21 0 8 is_stmt 0
	movq	-304(%rbp), %rax
	movq	-296(%rbp), %rcx
Ltmp237:
	.loc	21 711 13 is_stmt 1
	movq	%rcx, -112(%rbp)
	movq	%rax, -104(%rbp)
Ltmp238:
	.loc	22 871 9
	cmpq	$0, -112(%rbp)
	jne	LBB56_22
Ltmp205:
	.loc	22 873 21
	callq	__ZN4core5slice5index5range28_$u7b$$u7b$closure$u7d$$u7d$17hfb4401fe0e3982c5E
Ltmp206:
	movq	%rax, -312(%rbp)
	jmp	LBB56_24
LBB56_22:
	.loc	22 872 18
	movq	-104(%rbp), %rax
	movq	%rax, -8(%rbp)
Ltmp239:
	.loc	22 872 24 is_stmt 0
	movq	%rax, -120(%rbp)
Ltmp240:
LBB56_23:
	.loc	21 712 9 is_stmt 1
	jmp	LBB56_19
LBB56_24:
	.loc	21 0 9 is_stmt 0
	movq	-312(%rbp), %rax
Ltmp241:
	.loc	22 873 21 is_stmt 1
	movq	%rax, -120(%rbp)
	.loc	22 873 23 is_stmt 0
	jmp	LBB56_23
Ltmp242:
LBB56_25:
	.loc	22 0 23
	movq	-232(%rbp), %rax
Ltmp243:
	.loc	21 720 8 is_stmt 1
	cmpq	%rax, -120(%rbp)
	ja	LBB56_29
	jmp	LBB56_28
LBB56_26:
	.loc	21 0 8 is_stmt 0
	movq	-224(%rbp), %rdx
	.loc	21 718 32 is_stmt 1
	movq	-160(%rbp), %rdi
	.loc	21 718 39 is_stmt 0
	movq	-120(%rbp), %rsi
Ltmp209:
	.loc	21 718 9
	callq	__ZN4core5slice5index22slice_index_order_fail17h0d8f800a07d5f26eE
Ltmp210:
	jmp	LBB56_27
LBB56_27:
	.loc	21 0 9
	ud2
LBB56_28:
	.loc	21 724 18 is_stmt 1
	movq	-160(%rbp), %rcx
	.loc	21 724 25 is_stmt 0
	movq	-120(%rbp), %rax
	.loc	21 724 5
	movq	%rcx, -192(%rbp)
	movq	%rax, -184(%rbp)
Ltmp244:
	.loc	21 725 2 is_stmt 1
	movq	-192(%rbp), %rax
	movq	-184(%rbp), %rdx
	addq	$320, %rsp
	popq	%rbp
	retq
LBB56_29:
	.loc	21 0 2 is_stmt 0
	movq	-224(%rbp), %rdx
	movq	-232(%rbp), %rsi
Ltmp245:
	.loc	21 721 34 is_stmt 1
	movq	-120(%rbp), %rdi
Ltmp207:
	.loc	21 721 9 is_stmt 0
	callq	__ZN4core5slice5index24slice_end_index_len_fail17hc921cb2f1513645aE
Ltmp208:
	jmp	LBB56_27
Ltmp246:
Lfunc_end56:
	.cfi_endproc
	.section	__TEXT,__gcc_except_tab
	.p2align	2
GCC_except_table56:
Lexception5:
	.byte	255
	.byte	255
	.byte	1
	.uleb128 Lcst_end5-Lcst_begin5
Lcst_begin5:
	.uleb128 Ltmp195-Lfunc_begin56
	.uleb128 Ltmp196-Ltmp195
	.uleb128 Ltmp211-Lfunc_begin56
	.byte	0
	.uleb128 Ltmp196-Lfunc_begin56
	.uleb128 Ltmp197-Ltmp196
	.byte	0
	.byte	0
	.uleb128 Ltmp197-Lfunc_begin56
	.uleb128 Ltmp208-Ltmp197
	.uleb128 Ltmp211-Lfunc_begin56
	.byte	0
Lcst_end5:
	.p2align	2

	.section	__TEXT,__text,regular,pure_instructions
	.globl	__ZN4core5slice5index5range28_$u7b$$u7b$closure$u7d$$u7d$17h951693d754a95637E
	.p2align	4, 0x90
__ZN4core5slice5index5range28_$u7b$$u7b$closure$u7d$$u7d$17h951693d754a95637E:
Lfunc_begin57:
	.loc	21 703 0 is_stmt 1
	.cfi_startproc
	pushq	%rbp
	.cfi_def_cfa_offset 16
	.cfi_offset %rbp, -16
	movq	%rsp, %rbp
	.cfi_def_cfa_register %rbp
	subq	$16, %rsp
Ltmp247:
	.loc	21 703 52 prologue_end
	leaq	l___unnamed_18(%rip), %rdi
	callq	__ZN4core5slice5index31slice_start_index_overflow_fail17hc7b0075dfb7ecc80E
Ltmp248:
Lfunc_end57:
	.cfi_endproc

	.globl	__ZN4core5slice5index5range28_$u7b$$u7b$closure$u7d$$u7d$17hfb4401fe0e3982c5E
	.p2align	4, 0x90
__ZN4core5slice5index5range28_$u7b$$u7b$closure$u7d$$u7d$17hfb4401fe0e3982c5E:
Lfunc_begin58:
	.loc	21 711 0
	.cfi_startproc
	pushq	%rbp
	.cfi_def_cfa_offset 16
	.cfi_offset %rbp, -16
	movq	%rsp, %rbp
	.cfi_def_cfa_register %rbp
	subq	$16, %rsp
Ltmp249:
	.loc	21 711 50 prologue_end
	leaq	l___unnamed_19(%rip), %rdi
	callq	__ZN4core5slice5index29slice_end_index_overflow_fail17h1d13ef50abb383daE
Ltmp250:
Lfunc_end58:
	.cfi_endproc

	.globl	__ZN4core6result19Result$LT$T$C$E$GT$16unwrap_unchecked17h61d897d688a6df3fE
	.p2align	4, 0x90
__ZN4core6result19Result$LT$T$C$E$GT$16unwrap_unchecked17h61d897d688a6df3fE:
Lfunc_begin59:
	.file	23 "/rustc/2c8cc343237b8f7d5a3c3703e3a87f2eb2c54a74/library/core/src" "result.rs"
	.loc	23 1530 0
	.cfi_startproc
	.cfi_personality 155, _rust_eh_personality
	.cfi_lsda 16, Lexception6
	pushq	%rbp
	.cfi_def_cfa_offset 16
	.cfi_offset %rbp, -16
	movq	%rsp, %rbp
	.cfi_def_cfa_register %rbp
	subq	$64, %rsp
	movq	%rdi, -48(%rbp)
	movq	%rsi, -40(%rbp)
Ltmp254:
	.loc	23 1532 15 prologue_end
	xorl	%eax, %eax
	movl	$1, %ecx
	cmpq	$0, -40(%rbp)
	cmoveq	%rcx, %rax
	.loc	23 1532 9 is_stmt 0
	cmpq	$0, %rax
	jne	LBB59_2
	.loc	23 1533 16 is_stmt 1
	movq	-48(%rbp), %rcx
	movq	%rcx, -64(%rbp)
	movq	-40(%rbp), %rax
	movq	%rax, -56(%rbp)
	movq	%rcx, -16(%rbp)
	movq	%rax, -8(%rbp)
	.loc	23 1537 5
	xorl	%eax, %eax
	movl	$1, %ecx
	cmpq	$0, -40(%rbp)
	cmoveq	%rcx, %rax
	cmpq	$0, %rax
	je	LBB59_10
	jmp	LBB59_11
LBB59_2:
Ltmp251:
	.loc	23 1535 32
	callq	__ZN4core4hint21unreachable_unchecked17h8e62aa67d218318bE
Ltmp252:
	jmp	LBB59_5
LBB59_3:
	.loc	23 1537 5
	xorl	%eax, %eax
	movl	$1, %ecx
	cmpq	$0, -40(%rbp)
	cmoveq	%rcx, %rax
	cmpq	$0, %rax
	je	LBB59_6
	jmp	LBB59_7
LBB59_4:
Ltmp253:
	.loc	23 0 5 is_stmt 0
	movq	%rax, %rcx
	movl	%edx, %eax
	movq	%rcx, -32(%rbp)
	movl	%eax, -24(%rbp)
	jmp	LBB59_3
LBB59_5:
	ud2
LBB59_6:
	.loc	23 1537 5
	movb	$1, %al
	testb	$1, %al
	jne	LBB59_9
	jmp	LBB59_8
LBB59_7:
	jmp	LBB59_8
LBB59_8:
	.loc	23 1530 5 is_stmt 1
	movq	-32(%rbp), %rdi
	callq	__Unwind_Resume
LBB59_9:
	.loc	23 1537 5
	jmp	LBB59_8
LBB59_10:
	.loc	23 0 5 is_stmt 0
	movq	-56(%rbp), %rdx
	movq	-64(%rbp), %rax
	.loc	23 1537 6
	addq	$64, %rsp
	popq	%rbp
	retq
LBB59_11:
	.loc	23 1537 5
	jmp	LBB59_10
Ltmp255:
Lfunc_end59:
	.cfi_endproc
	.section	__TEXT,__gcc_except_tab
	.p2align	2
GCC_except_table59:
Lexception6:
	.byte	255
	.byte	255
	.byte	1
	.uleb128 Lcst_end6-Lcst_begin6
Lcst_begin6:
	.uleb128 Ltmp251-Lfunc_begin59
	.uleb128 Ltmp252-Ltmp251
	.uleb128 Ltmp253-Lfunc_begin59
	.byte	0
	.uleb128 Ltmp252-Lfunc_begin59
	.uleb128 Lfunc_end59-Ltmp252
	.byte	0
	.byte	0
Lcst_end6:
	.p2align	2

	.section	__TEXT,__text,regular,pure_instructions
	.globl	__ZN4core6result19Result$LT$T$C$E$GT$6is_err17hfc15432e9a6d02baE
	.p2align	4, 0x90
__ZN4core6result19Result$LT$T$C$E$GT$6is_err17hfc15432e9a6d02baE:
Lfunc_begin60:
	.loc	23 588 0 is_stmt 1
	.cfi_startproc
	pushq	%rbp
	.cfi_def_cfa_offset 16
	.cfi_offset %rbp, -16
	movq	%rsp, %rbp
	.cfi_def_cfa_register %rbp
	subq	$24, %rsp
	movq	%rdi, -16(%rbp)
Ltmp256:
	.loc	23 589 10 prologue_end
	movq	%rdi, -8(%rbp)
Ltmp257:
	.loc	23 542 18
	movb	(%rdi), %al
	andb	$1, %al
	movzbl	%al, %eax
	.file	24 "/rustc/2c8cc343237b8f7d5a3c3703e3a87f2eb2c54a74/library/core/src/macros" "mod.rs"
	.loc	24 344 9
	cmpq	$0, %rax
	jne	LBB60_2
	.loc	24 345 48
	movb	$1, -17(%rbp)
	jmp	LBB60_3
LBB60_2:
	.loc	24 346 18
	movb	$0, -17(%rbp)
Ltmp258:
LBB60_3:
	.loc	23 589 9
	movb	-17(%rbp), %al
	xorb	$-1, %al
	.loc	23 590 6
	andb	$1, %al
	movzbl	%al, %eax
	addq	$24, %rsp
	popq	%rbp
	retq
Ltmp259:
Lfunc_end60:
	.cfi_endproc

	.globl	__ZN4core6result19Result$LT$T$C$E$GT$7map_err17h2906176cdb5aeb9fE
	.p2align	4, 0x90
__ZN4core6result19Result$LT$T$C$E$GT$7map_err17h2906176cdb5aeb9fE:
Lfunc_begin61:
	.loc	23 857 0
	.cfi_startproc
	pushq	%rbp
	.cfi_def_cfa_offset 16
	.cfi_offset %rbp, -16
	movq	%rsp, %rbp
	.cfi_def_cfa_register %rbp
	subq	$96, %rsp
	movq	%rdi, -88(%rbp)
	movq	%rsi, -80(%rbp)
Ltmp260:
	.loc	23 858 15 prologue_end
	movb	$1, -33(%rbp)
	movabsq	$-9223372036854775807, %rdx
	movl	$1, %eax
	xorl	%ecx, %ecx
	cmpq	%rdx, -80(%rbp)
	cmoveq	%rcx, %rax
	.loc	23 858 9 is_stmt 0
	cmpq	$0, %rax
	jne	LBB61_2
Ltmp261:
	.loc	23 859 22 is_stmt 1
	movabsq	$-9223372036854775807, %rax
	movq	%rax, -64(%rbp)
Ltmp262:
	.loc	23 859 26 is_stmt 0
	jmp	LBB61_3
LBB61_2:
	.loc	23 860 17 is_stmt 1
	movq	-88(%rbp), %rcx
	movq	-80(%rbp), %rax
	movq	%rcx, -16(%rbp)
	movq	%rax, -8(%rbp)
Ltmp263:
	.loc	23 860 27 is_stmt 0
	movb	$0, -33(%rbp)
	movq	%rcx, -56(%rbp)
	movq	%rax, -48(%rbp)
	movq	-56(%rbp), %rdi
	movq	-48(%rbp), %rsi
	callq	__ZN5alloc7raw_vec14handle_reserve28_$u7b$$u7b$closure$u7d$$u7d$17h7bddd7f0e1873e28E
	.loc	23 860 23
	movq	%rax, -72(%rbp)
	movq	%rdx, -64(%rbp)
Ltmp264:
LBB61_3:
	.loc	23 862 5 is_stmt 1
	testb	$1, -33(%rbp)
	jne	LBB61_5
LBB61_4:
	.loc	23 862 6 is_stmt 0
	movq	-72(%rbp), %rax
	movq	-64(%rbp), %rdx
	addq	$96, %rsp
	popq	%rbp
	retq
LBB61_5:
	.loc	23 862 5
	jmp	LBB61_4
Ltmp265:
Lfunc_end61:
	.cfi_endproc

	.globl	__ZN4core6result19Result$LT$T$C$E$GT$7map_err17hb685433c72cb0b6cE
	.p2align	4, 0x90
__ZN4core6result19Result$LT$T$C$E$GT$7map_err17hb685433c72cb0b6cE:
Lfunc_begin62:
	.loc	23 857 0 is_stmt 1
	.cfi_startproc
	pushq	%rbp
	.cfi_def_cfa_offset 16
	.cfi_offset %rbp, -16
	movq	%rsp, %rbp
	.cfi_def_cfa_register %rbp
	subq	$80, %rsp
	movq	%rdi, -72(%rbp)
	movq	%rdi, -64(%rbp)
	movq	%rsi, -56(%rbp)
	movq	%rdx, -48(%rbp)
Ltmp266:
	.loc	23 858 15 prologue_end
	movb	$1, -33(%rbp)
	xorl	%eax, %eax
	movl	$1, %ecx
	cmpq	$0, -48(%rbp)
	cmoveq	%rcx, %rax
	.loc	23 858 9 is_stmt 0
	cmpq	$0, %rax
	jne	LBB62_2
	.loc	23 0 9
	movq	-72(%rbp), %rax
	.loc	23 859 16 is_stmt 1
	movq	-56(%rbp), %rdx
	movq	-48(%rbp), %rcx
	movq	%rdx, -16(%rbp)
	movq	%rcx, -8(%rbp)
Ltmp267:
	.loc	23 859 22 is_stmt 0
	movq	%rdx, 8(%rax)
	movq	%rcx, 16(%rax)
	movq	$0, (%rax)
Ltmp268:
	.loc	23 859 26
	jmp	LBB62_3
LBB62_2:
Ltmp269:
	.loc	23 860 27 is_stmt 1
	movb	$0, -33(%rbp)
	callq	__ZN5alloc7raw_vec11finish_grow28_$u7b$$u7b$closure$u7d$$u7d$17h0f33f35c747253d6E
	movq	%rax, %rcx
	movq	-72(%rbp), %rax
	.loc	23 860 23 is_stmt 0
	movq	%rcx, 8(%rax)
	movq	%rdx, 16(%rax)
	movq	$1, (%rax)
Ltmp270:
LBB62_3:
	.loc	23 862 5 is_stmt 1
	testb	$1, -33(%rbp)
	jne	LBB62_5
LBB62_4:
	.loc	23 0 5 is_stmt 0
	movq	-64(%rbp), %rax
	.loc	23 862 6
	addq	$80, %rsp
	popq	%rbp
	retq
LBB62_5:
	.loc	23 862 5
	jmp	LBB62_4
Ltmp271:
Lfunc_end62:
	.cfi_endproc

	.globl	__ZN4core6result19Result$LT$T$C$E$GT$7map_err17he08d83c3009ca583E
	.p2align	4, 0x90
__ZN4core6result19Result$LT$T$C$E$GT$7map_err17he08d83c3009ca583E:
Lfunc_begin63:
	.loc	23 857 0 is_stmt 1
	.cfi_startproc
	pushq	%rbp
	.cfi_def_cfa_offset 16
	.cfi_offset %rbp, -16
	movq	%rsp, %rbp
	.cfi_def_cfa_register %rbp
	subq	$80, %rsp
	movq	%rcx, -80(%rbp)
	movq	%rdi, -72(%rbp)
	movq	%rdi, -64(%rbp)
	movq	%rsi, -56(%rbp)
	movq	%rdx, -48(%rbp)
	movq	%rcx, -32(%rbp)
Ltmp272:
	.loc	23 858 15 prologue_end
	movb	$1, -33(%rbp)
	movq	-56(%rbp), %rdx
	xorl	%eax, %eax
	movl	$1, %ecx
	cmpq	$0, %rdx
	cmoveq	%rcx, %rax
	.loc	23 858 9 is_stmt 0
	cmpq	$0, %rax
	jne	LBB63_2
	.loc	23 0 9
	movq	-72(%rbp), %rax
	.loc	23 859 16 is_stmt 1
	movq	-56(%rbp), %rdx
	movq	-48(%rbp), %rcx
	movq	%rdx, -16(%rbp)
	movq	%rcx, -8(%rbp)
Ltmp273:
	.loc	23 859 22 is_stmt 0
	movq	%rdx, 8(%rax)
	movq	%rcx, 16(%rax)
	movq	$0, (%rax)
Ltmp274:
	.loc	23 859 26
	jmp	LBB63_3
LBB63_2:
	.loc	23 0 26
	movq	-80(%rbp), %rdi
Ltmp275:
	.loc	23 860 27 is_stmt 1
	movb	$0, -33(%rbp)
	callq	__ZN5alloc7raw_vec11finish_grow28_$u7b$$u7b$closure$u7d$$u7d$17hcda9275624d8cc5eE
	movq	%rax, %rcx
	movq	-72(%rbp), %rax
	.loc	23 860 23 is_stmt 0
	movq	%rcx, 8(%rax)
	movq	%rdx, 16(%rax)
	movq	$1, (%rax)
Ltmp276:
LBB63_3:
	.loc	23 862 5 is_stmt 1
	testb	$1, -33(%rbp)
	jne	LBB63_5
LBB63_4:
	.loc	23 0 5 is_stmt 0
	movq	-64(%rbp), %rax
	.loc	23 862 6
	addq	$80, %rsp
	popq	%rbp
	retq
LBB63_5:
	.loc	23 862 5
	jmp	LBB63_4
Ltmp277:
Lfunc_end63:
	.cfi_endproc

	.globl	__ZN50_$LT$T$u20$as$u20$core..convert..Into$LT$U$GT$$GT$4into17h2f60ca27a87f7d13E
	.p2align	4, 0x90
__ZN50_$LT$T$u20$as$u20$core..convert..Into$LT$U$GT$$GT$4into17h2f60ca27a87f7d13E:
Lfunc_begin64:
	.file	25 "/rustc/2c8cc343237b8f7d5a3c3703e3a87f2eb2c54a74/library/core/src/convert" "mod.rs"
	.loc	25 725 0 is_stmt 1
	.cfi_startproc
	pushq	%rbp
	.cfi_def_cfa_offset 16
	.cfi_offset %rbp, -16
	movq	%rsp, %rbp
	.cfi_def_cfa_register %rbp
	subq	$16, %rsp
	movq	%rdi, -8(%rbp)
Ltmp278:
	.loc	25 726 9 prologue_end
	callq	__ZN119_$LT$core..ptr..non_null..NonNull$LT$T$GT$$u20$as$u20$core..convert..From$LT$core..ptr..unique..Unique$LT$T$GT$$GT$$GT$4from17h30fc08b44a14137dE
	.loc	25 727 6
	addq	$16, %rsp
	popq	%rbp
	retq
Ltmp279:
Lfunc_end64:
	.cfi_endproc

	.globl	__ZN50_$LT$T$u20$as$u20$core..convert..Into$LT$U$GT$$GT$4into17h6ce082ea9dbaee01E
	.p2align	4, 0x90
__ZN50_$LT$T$u20$as$u20$core..convert..Into$LT$U$GT$$GT$4into17h6ce082ea9dbaee01E:
Lfunc_begin65:
	.loc	25 725 0
	.cfi_startproc
	pushq	%rbp
	.cfi_def_cfa_offset 16
	.cfi_offset %rbp, -16
	movq	%rsp, %rbp
	.cfi_def_cfa_register %rbp
	subq	$16, %rsp
	movq	%rdi, -16(%rbp)
	movq	%rsi, -8(%rbp)
Ltmp280:
	.loc	25 726 9 prologue_end
	callq	__ZN122_$LT$alloc..collections..TryReserveError$u20$as$u20$core..convert..From$LT$alloc..collections..TryReserveErrorKind$GT$$GT$4from17h15d703edbd304aebE
	.loc	25 727 6
	addq	$16, %rsp
	popq	%rbp
	retq
Ltmp281:
Lfunc_end65:
	.cfi_endproc

	.globl	__ZN5alloc11collections9vec_deque21VecDeque$LT$T$C$A$GT$12buffer_range17h8034441413d14d73E
	.p2align	4, 0x90
__ZN5alloc11collections9vec_deque21VecDeque$LT$T$C$A$GT$12buffer_range17h8034441413d14d73E:
Lfunc_begin66:
	.loc	4 180 0
	.cfi_startproc
	pushq	%rbp
	.cfi_def_cfa_offset 16
	.cfi_offset %rbp, -16
	movq	%rsp, %rbp
	.cfi_def_cfa_register %rbp
	subq	$168, %rsp
	movq	%rdi, -136(%rbp)
	movq	%rsi, -128(%rbp)
	movq	%rdx, -120(%rbp)
Ltmp282:
	.loc	4 182 43 prologue_end
	movq	%rdi, -112(%rbp)
Ltmp283:
	.loc	4 160 9
	movq	%rdi, -104(%rbp)
Ltmp284:
	.file	26 "/rustc/2c8cc343237b8f7d5a3c3703e3a87f2eb2c54a74/library/alloc/src" "raw_vec.rs"
	.loc	26 224 9
	movq	8(%rdi), %rax
	movq	%rax, -96(%rbp)
Ltmp285:
	.loc	2 104 9
	movq	%rax, -88(%rbp)
Ltmp286:
	.loc	1 326 9
	movq	%rax, -80(%rbp)
Ltmp287:
	.loc	4 182 58
	movq	%rsi, -72(%rbp)
Ltmp288:
	.file	27 "/rustc/2c8cc343237b8f7d5a3c3703e3a87f2eb2c54a74/library/core/src/ptr" "mut_ptr.rs"
	.loc	27 1034 18
	movq	%rax, -64(%rbp)
	.loc	27 1034 30 is_stmt 0
	movq	%rsi, -56(%rbp)
Ltmp289:
	.loc	27 487 18 is_stmt 1
	leaq	(%rax,%rsi,8), %rax
	movq	%rax, -48(%rbp)
	movq	-48(%rbp), %rax
	movq	%rax, -40(%rbp)
Ltmp290:
	.loc	4 182 72
	subq	%rsi, %rdx
	movq	%rdx, -32(%rbp)
Ltmp291:
	.loc	13 766 24
	movq	%rax, -24(%rbp)
Ltmp292:
	.loc	27 60 9
	movq	%rax, -16(%rbp)
Ltmp293:
	.loc	13 766 37
	movq	%rdx, -8(%rbp)
Ltmp294:
	.file	28 "/rustc/2c8cc343237b8f7d5a3c3703e3a87f2eb2c54a74/library/core/src/ptr" "metadata.rs"
	.loc	28 135 36
	movq	%rax, -152(%rbp)
	movq	%rdx, -144(%rbp)
	.loc	28 135 14 is_stmt 0
	movq	-152(%rbp), %rcx
	movq	-144(%rbp), %rax
	movq	%rcx, -168(%rbp)
	movq	%rax, -160(%rbp)
	movq	-168(%rbp), %rax
	movq	-160(%rbp), %rdx
Ltmp295:
	.loc	4 184 6 is_stmt 1
	addq	$168, %rsp
	popq	%rbp
	retq
Ltmp296:
Lfunc_end66:
	.cfi_endproc

	.globl	__ZN5alloc11collections9vec_deque21VecDeque$LT$T$C$A$GT$12buffer_write17h8ba19d8e818f0da1E
	.p2align	4, 0x90
__ZN5alloc11collections9vec_deque21VecDeque$LT$T$C$A$GT$12buffer_write17h8ba19d8e818f0da1E:
Lfunc_begin67:
	.loc	4 171 0
	.cfi_startproc
	pushq	%rbp
	.cfi_def_cfa_offset 16
	.cfi_offset %rbp, -16
	movq	%rsp, %rbp
	.cfi_def_cfa_register %rbp
	subq	$144, %rsp
	movq	%rdx, -144(%rbp)
	movq	%rdi, -120(%rbp)
	movq	%rsi, -112(%rbp)
	movq	%rdx, -104(%rbp)
Ltmp297:
	.loc	4 173 24 prologue_end
	movq	%rdi, -96(%rbp)
Ltmp298:
	.loc	4 160 9
	movq	%rdi, -88(%rbp)
Ltmp299:
	.loc	26 224 9
	movq	8(%rdi), %rax
	movq	%rax, -80(%rbp)
Ltmp300:
	.loc	2 104 9
	movq	%rax, -72(%rbp)
Ltmp301:
	.loc	1 326 9
	movq	%rax, -64(%rbp)
Ltmp302:
	.loc	4 173 39
	movq	%rsi, -56(%rbp)
Ltmp303:
	.loc	27 1034 18
	movq	%rax, -48(%rbp)
	.loc	27 1034 30 is_stmt 0
	movq	%rsi, -40(%rbp)
Ltmp304:
	.loc	27 487 18 is_stmt 1
	shlq	$3, %rsi
	addq	%rsi, %rax
	movq	%rax, -32(%rbp)
	movq	-32(%rbp), %rax
	movq	%rax, -136(%rbp)
	.loc	27 0 18 is_stmt 0
	movq	-136(%rbp), %rax
	movq	-144(%rbp), %rcx
	.loc	27 487 18
	movq	%rax, -8(%rbp)
Ltmp305:
	.loc	4 173 45 is_stmt 1
	movq	%rcx, -128(%rbp)
Ltmp306:
	.loc	13 1354 9
	movq	-128(%rbp), %rcx
	movq	%rcx, (%rax)
Ltmp307:
	.loc	4 175 6
	addq	$144, %rsp
	popq	%rbp
	retq
Ltmp308:
Lfunc_end67:
	.cfi_endproc

	.globl	__ZN5alloc11collections9vec_deque21VecDeque$LT$T$C$A$GT$12slice_ranges17h5392620ebaf84d0eE
	.p2align	4, 0x90
__ZN5alloc11collections9vec_deque21VecDeque$LT$T$C$A$GT$12slice_ranges17h5392620ebaf84d0eE:
Lfunc_begin68:
	.loc	4 1236 0
	.cfi_startproc
	pushq	%rbp
	.cfi_def_cfa_offset 16
	.cfi_offset %rbp, -16
	movq	%rsp, %rbp
	.cfi_def_cfa_register %rbp
	subq	$304, %rsp
	movq	%rsi, -272(%rbp)
	movq	%rdi, -264(%rbp)
	movq	%rdi, -256(%rbp)
	movq	%rsi, -112(%rbp)
Ltmp309:
	.loc	4 1240 58 prologue_end
	movq	24(%rsi), %rax
	.loc	4 1240 56 is_stmt 0
	movq	%rax, -232(%rbp)
	.loc	4 1240 36
	movq	-232(%rbp), %rdi
	leaq	l___unnamed_20(%rip), %rsi
	callq	__ZN4core5slice5index5range17h27f443396e9f7d1aE
	movq	%rax, -248(%rbp)
	.loc	4 1240 21
	movq	%rax, -96(%rbp)
	.loc	4 1240 28
	movq	%rdx, -88(%rbp)
Ltmp310:
	.loc	4 1241 19 is_stmt 1
	subq	%rax, %rdx
	movq	%rdx, -240(%rbp)
	movq	%rdx, -80(%rbp)
Ltmp311:
	.loc	4 1243 12
	cmpq	$0, %rdx
	jne	LBB68_2
	.loc	4 0 12 is_stmt 0
	movq	-264(%rbp), %rax
	.loc	4 1244 14 is_stmt 1
	movq	$0, -224(%rbp)
	movq	$0, -216(%rbp)
	.loc	4 1244 20 is_stmt 0
	movq	$0, -208(%rbp)
	movq	$0, -200(%rbp)
	.loc	4 1244 13
	movq	-224(%rbp), %rdx
	movq	-216(%rbp), %rcx
	movq	%rdx, (%rax)
	movq	%rcx, 8(%rax)
	movq	-208(%rbp), %rdx
	movq	-200(%rbp), %rcx
	movq	%rdx, 16(%rax)
	movq	%rcx, 24(%rax)
	.loc	4 1243 9 is_stmt 1
	jmp	LBB68_18
LBB68_2:
	.loc	4 0 9 is_stmt 0
	movq	-272(%rbp), %rdi
	movq	-248(%rbp), %rdx
	.loc	4 1249 33 is_stmt 1
	movq	%rdi, -72(%rbp)
	.loc	4 1249 54 is_stmt 0
	movq	%rdx, -64(%rbp)
Ltmp312:
	.loc	4 201 23 is_stmt 1
	movq	16(%rdi), %rsi
	.loc	4 201 9 is_stmt 0
	callq	__ZN5alloc11collections9vec_deque21VecDeque$LT$T$C$A$GT$8wrap_add17hf239d652f2aae92bE
	movq	%rax, %rcx
	movq	-272(%rbp), %rax
	movq	%rcx, -280(%rbp)
	movq	%rcx, -56(%rbp)
Ltmp313:
	.loc	4 1254 28 is_stmt 1
	movq	%rax, -48(%rbp)
Ltmp314:
	.loc	4 728 12
	xorl	%eax, %eax
	testb	$1, %al
	jne	LBB68_4
	.loc	4 0 12 is_stmt 0
	movq	-272(%rbp), %rax
	.loc	4 728 44
	movq	%rax, -40(%rbp)
Ltmp315:
	.loc	26 232 12 is_stmt 1
	xorl	%eax, %eax
	testb	$1, %al
	jne	LBB68_7
	jmp	LBB68_6
Ltmp316:
LBB68_4:
	.loc	4 728 24
	movq	$-1, -192(%rbp)
Ltmp317:
LBB68_5:
	.loc	4 0 24 is_stmt 0
	movq	-240(%rbp), %rcx
	movq	-280(%rbp), %rdx
	.loc	4 1254 28 is_stmt 1
	movq	-192(%rbp), %rax
	subq	%rdx, %rax
	movq	%rax, -288(%rbp)
	movq	%rax, -32(%rbp)
Ltmp318:
	.loc	4 1256 16
	cmpq	%rcx, %rax
	jae	LBB68_10
	jmp	LBB68_9
Ltmp319:
LBB68_6:
	.loc	4 0 16 is_stmt 0
	movq	-272(%rbp), %rax
Ltmp320:
	.loc	26 232 44 is_stmt 1
	movq	(%rax), %rax
	movq	%rax, -192(%rbp)
	.loc	26 232 9 is_stmt 0
	jmp	LBB68_8
LBB68_7:
	.loc	26 232 24
	movq	$-1, -192(%rbp)
Ltmp321:
LBB68_8:
	.loc	4 728 9 is_stmt 1
	jmp	LBB68_5
Ltmp322:
LBB68_9:
	.loc	4 0 9 is_stmt 0
	movq	-272(%rbp), %rax
	movq	-288(%rbp), %rdx
	movq	-240(%rbp), %rcx
Ltmp323:
	.loc	4 1261 32 is_stmt 1
	subq	%rdx, %rcx
	movq	%rcx, -296(%rbp)
	movq	%rcx, -24(%rbp)
Ltmp324:
	.loc	4 1262 33
	movq	%rax, -16(%rbp)
Ltmp325:
	.loc	4 728 12
	xorl	%eax, %eax
	testb	$1, %al
	jne	LBB68_13
	jmp	LBB68_12
Ltmp326:
LBB68_10:
	.loc	4 0 12 is_stmt 0
	movq	-264(%rbp), %rax
	movq	-280(%rbp), %rdx
	movq	-240(%rbp), %rsi
	.loc	4 1258 33 is_stmt 1
	movq	%rdx, %rcx
	addq	%rsi, %rcx
	.loc	4 1258 18 is_stmt 0
	movq	%rdx, -184(%rbp)
	movq	%rcx, -176(%rbp)
	.loc	4 1258 54
	movq	$0, -168(%rbp)
	movq	$0, -160(%rbp)
	.loc	4 1258 17
	movq	-184(%rbp), %rdx
	movq	-176(%rbp), %rcx
	movq	%rdx, (%rax)
	movq	%rcx, 8(%rax)
	movq	-168(%rbp), %rdx
	movq	-160(%rbp), %rcx
	movq	%rdx, 16(%rax)
	movq	%rcx, 24(%rax)
Ltmp327:
LBB68_11:
	.loc	4 1243 9 is_stmt 1
	jmp	LBB68_18
LBB68_12:
	.loc	4 0 9 is_stmt 0
	movq	-272(%rbp), %rax
Ltmp328:
	.loc	4 728 44 is_stmt 1
	movq	%rax, -8(%rbp)
Ltmp329:
	.loc	26 232 12
	xorl	%eax, %eax
	testb	$1, %al
	jne	LBB68_16
	jmp	LBB68_15
Ltmp330:
LBB68_13:
	.loc	4 728 24
	movq	$-1, -136(%rbp)
Ltmp331:
LBB68_14:
	.loc	4 0 24 is_stmt 0
	movq	-264(%rbp), %rax
	movq	-296(%rbp), %rcx
	movq	-280(%rbp), %rdx
	.loc	4 1262 18 is_stmt 1
	movq	%rdx, -152(%rbp)
	movq	-136(%rbp), %rdx
	movq	%rdx, -144(%rbp)
	.loc	4 1262 50 is_stmt 0
	movq	$0, -128(%rbp)
	movq	%rcx, -120(%rbp)
	.loc	4 1262 17
	movq	-152(%rbp), %rdx
	movq	-144(%rbp), %rcx
	movq	%rdx, (%rax)
	movq	%rcx, 8(%rax)
	movq	-128(%rbp), %rdx
	movq	-120(%rbp), %rcx
	movq	%rdx, 16(%rax)
	movq	%rcx, 24(%rax)
Ltmp332:
	.loc	4 1256 13 is_stmt 1
	jmp	LBB68_11
LBB68_15:
	.loc	4 0 13 is_stmt 0
	movq	-272(%rbp), %rax
Ltmp333:
	.loc	26 232 44 is_stmt 1
	movq	(%rax), %rax
	movq	%rax, -136(%rbp)
	.loc	26 232 9 is_stmt 0
	jmp	LBB68_17
LBB68_16:
	.loc	26 232 24
	movq	$-1, -136(%rbp)
Ltmp334:
LBB68_17:
	.loc	4 728 9 is_stmt 1
	jmp	LBB68_14
Ltmp335:
LBB68_18:
	.loc	4 0 9 is_stmt 0
	movq	-256(%rbp), %rax
	.loc	4 1265 6 is_stmt 1
	addq	$304, %rsp
	popq	%rbp
	retq
Ltmp336:
Lfunc_end68:
	.cfi_endproc

	.globl	__ZN5alloc11collections9vec_deque21VecDeque$LT$T$C$A$GT$13as_mut_slices17hccf0a72ceed3a39bE
	.p2align	4, 0x90
__ZN5alloc11collections9vec_deque21VecDeque$LT$T$C$A$GT$13as_mut_slices17hccf0a72ceed3a39bE:
Lfunc_begin69:
	.loc	4 1192 0
	.cfi_startproc
	pushq	%rbp
	.cfi_def_cfa_offset 16
	.cfi_offset %rbp, -16
	movq	%rsp, %rbp
	.cfi_def_cfa_register %rbp
	subq	$128, %rsp
	movq	%rsi, -128(%rbp)
	movq	%rdi, -88(%rbp)
	movq	%rdi, -80(%rbp)
	movq	%rsi, -40(%rbp)
Ltmp337:
	.loc	4 1193 34 prologue_end
	leaq	-72(%rbp), %rdi
	callq	__ZN5alloc11collections9vec_deque21VecDeque$LT$T$C$A$GT$12slice_ranges17h5392620ebaf84d0eE
	movq	-128(%rbp), %rdi
	.loc	4 1193 14 is_stmt 0
	movq	-72(%rbp), %rsi
	movq	-64(%rbp), %rdx
	movq	%rsi, -32(%rbp)
	movq	%rdx, -24(%rbp)
	.loc	4 1193 23
	movq	-56(%rbp), %rcx
	movq	%rcx, -120(%rbp)
	movq	-48(%rbp), %rax
	movq	%rax, -112(%rbp)
	movq	%rcx, -16(%rbp)
	movq	%rax, -8(%rbp)
Ltmp338:
	.loc	4 1196 25 is_stmt 1
	callq	__ZN5alloc11collections9vec_deque21VecDeque$LT$T$C$A$GT$12buffer_range17h8034441413d14d73E
	movq	-128(%rbp), %rdi
	movq	-120(%rbp), %rsi
	movq	%rax, -104(%rbp)
	movq	%rdx, %rax
	movq	-112(%rbp), %rdx
	movq	%rax, -96(%rbp)
	.loc	4 1196 59 is_stmt 0
	callq	__ZN5alloc11collections9vec_deque21VecDeque$LT$T$C$A$GT$12buffer_range17h8034441413d14d73E
	movq	-104(%rbp), %r8
	movq	-96(%rbp), %rsi
	movq	-88(%rbp), %rdi
	movq	%rax, %rcx
	movq	-80(%rbp), %rax
	.loc	4 1196 18
	movq	%r8, (%rdi)
	movq	%rsi, 8(%rdi)
	movq	%rcx, 16(%rdi)
	movq	%rdx, 24(%rdi)
Ltmp339:
	.loc	4 1197 6 is_stmt 1
	addq	$128, %rsp
	popq	%rbp
	retq
Ltmp340:
Lfunc_end69:
	.cfi_endproc

	.globl	__ZN5alloc11collections9vec_deque21VecDeque$LT$T$C$A$GT$19copy_nonoverlapping17h246ca0e4c04b644fE
	.p2align	4, 0x90
__ZN5alloc11collections9vec_deque21VecDeque$LT$T$C$A$GT$19copy_nonoverlapping17h246ca0e4c04b644fE:
Lfunc_begin70:
	.loc	4 237 0
	.cfi_startproc
	pushq	%rbp
	.cfi_def_cfa_offset 16
	.cfi_offset %rbp, -16
	movq	%rsp, %rbp
	.cfi_def_cfa_register %rbp
	subq	$208, %rsp
	movq	%rcx, -208(%rbp)
	movq	%rdx, %rcx
	movq	-208(%rbp), %rdx
	movq	%rdi, -200(%rbp)
	movq	%rsi, -192(%rbp)
	movq	%rcx, -184(%rbp)
	movq	%rdx, -176(%rbp)
Ltmp341:
	.loc	4 255 38 prologue_end
	movq	%rdi, -168(%rbp)
Ltmp342:
	.loc	4 160 9
	movq	%rdi, -160(%rbp)
Ltmp343:
	.loc	26 224 9
	movq	8(%rdi), %rax
	movq	%rax, -152(%rbp)
Ltmp344:
	.loc	2 104 9
	movq	%rax, -144(%rbp)
Ltmp345:
	.loc	1 326 9
	movq	%rax, -136(%rbp)
Ltmp346:
	.loc	4 255 53
	movq	%rsi, -128(%rbp)
Ltmp347:
	.loc	27 1034 18
	movq	%rax, -120(%rbp)
	.loc	27 1034 30 is_stmt 0
	movq	%rsi, -112(%rbp)
Ltmp348:
	.loc	27 487 18 is_stmt 1
	shlq	$3, %rsi
	addq	%rsi, %rax
	movq	%rax, -104(%rbp)
	movq	-104(%rbp), %rsi
Ltmp349:
	.loc	4 255 38
	movq	%rsi, -96(%rbp)
	.loc	4 255 59 is_stmt 0
	movq	%rdi, -88(%rbp)
Ltmp350:
	.loc	4 160 9 is_stmt 1
	movq	%rdi, -80(%rbp)
Ltmp351:
	.loc	26 224 9
	movq	8(%rdi), %rax
	movq	%rax, -72(%rbp)
Ltmp352:
	.loc	2 104 9
	movq	%rax, -64(%rbp)
Ltmp353:
	.loc	1 326 9
	movq	%rax, -56(%rbp)
Ltmp354:
	.loc	4 255 74
	movq	%rcx, -48(%rbp)
Ltmp355:
	.loc	27 1034 18
	movq	%rax, -40(%rbp)
	.loc	27 1034 30 is_stmt 0
	movq	%rcx, -32(%rbp)
Ltmp356:
	.loc	27 487 18 is_stmt 1
	shlq	$3, %rcx
	addq	%rcx, %rax
	movq	%rax, -24(%rbp)
	movq	-24(%rbp), %rdi
	movq	%rdi, -16(%rbp)
Ltmp357:
	.loc	4 255 80
	movq	%rdx, -8(%rbp)
Ltmp358:
	.file	29 "/rustc/2c8cc343237b8f7d5a3c3703e3a87f2eb2c54a74/library/core/src" "intrinsics.rs"
	.loc	29 2372 9
	shlq	$3, %rdx
	callq	_memcpy
Ltmp359:
	.loc	4 257 6
	addq	$208, %rsp
	popq	%rbp
	retq
Ltmp360:
Lfunc_end70:
	.cfi_endproc

	.globl	__ZN5alloc11collections9vec_deque21VecDeque$LT$T$C$A$GT$24handle_capacity_increase17h74643506f567bc25E
	.p2align	4, 0x90
__ZN5alloc11collections9vec_deque21VecDeque$LT$T$C$A$GT$24handle_capacity_increase17h74643506f567bc25E:
Lfunc_begin71:
	.loc	4 479 0
	.cfi_startproc
	pushq	%rbp
	.cfi_def_cfa_offset 16
	.cfi_offset %rbp, -16
	movq	%rsp, %rbp
	.cfi_def_cfa_register %rbp
	subq	$112, %rsp
	movq	%rdi, -88(%rbp)
	movq	%rsi, -80(%rbp)
	movq	%rdi, -56(%rbp)
	movq	%rsi, -48(%rbp)
Ltmp361:
	.loc	4 480 28 prologue_end
	movq	%rdi, -40(%rbp)
Ltmp362:
	.loc	4 728 12
	xorl	%eax, %eax
	testb	$1, %al
	jne	LBB71_2
	.loc	4 0 12 is_stmt 0
	movq	-88(%rbp), %rax
	.loc	4 728 44
	movq	%rax, -32(%rbp)
Ltmp363:
	.loc	26 232 12 is_stmt 1
	xorl	%eax, %eax
	testb	$1, %al
	jne	LBB71_5
	jmp	LBB71_4
Ltmp364:
LBB71_2:
	.loc	4 728 24
	movq	$-1, -72(%rbp)
Ltmp365:
LBB71_3:
	.loc	4 0 24 is_stmt 0
	movq	-88(%rbp), %rdx
	movq	-80(%rbp), %rcx
Ltmp366:
	.loc	4 502 12 is_stmt 1
	movq	16(%rdx), %rax
	.loc	4 502 25 is_stmt 0
	subq	24(%rdx), %rcx
	.loc	4 502 12
	cmpq	%rcx, %rax
	jbe	LBB71_8
	jmp	LBB71_7
Ltmp367:
LBB71_4:
	.loc	4 0 12
	movq	-88(%rbp), %rax
Ltmp368:
	.loc	26 232 44 is_stmt 1
	movq	(%rax), %rax
	movq	%rax, -72(%rbp)
	.loc	26 232 9 is_stmt 0
	jmp	LBB71_6
LBB71_5:
	.loc	26 232 24
	movq	$-1, -72(%rbp)
Ltmp369:
LBB71_6:
	.loc	4 728 9 is_stmt 1
	jmp	LBB71_3
Ltmp370:
LBB71_7:
	.loc	4 0 9 is_stmt 0
	movq	-88(%rbp), %rcx
	movq	-80(%rbp), %rax
Ltmp371:
	.loc	4 506 28 is_stmt 1
	subq	16(%rcx), %rax
	movq	%rax, -104(%rbp)
	movq	%rax, -24(%rbp)
Ltmp372:
	.loc	4 507 28
	movq	24(%rcx), %rcx
	subq	%rax, %rcx
	movq	%rcx, -96(%rbp)
	movq	%rcx, -16(%rbp)
Ltmp373:
	.loc	4 508 16
	cmpq	%rcx, %rax
	ja	LBB71_10
	jmp	LBB71_9
Ltmp374:
LBB71_8:
	.loc	4 525 6
	addq	$112, %rsp
	popq	%rbp
	retq
LBB71_9:
Ltmp375:
	.loc	4 508 16
	movb	$0, -57(%rbp)
	jmp	LBB71_11
LBB71_10:
	.loc	4 0 16 is_stmt 0
	movq	-96(%rbp), %rcx
	movq	-80(%rbp), %rdx
	.loc	4 508 39
	movq	-72(%rbp), %rax
	subq	%rdx, %rax
	cmpq	%rcx, %rax
	setae	%al
	.loc	4 508 16
	andb	$1, %al
	movb	%al, -57(%rbp)
LBB71_11:
	testb	$1, -57(%rbp)
	jne	LBB71_13
	.loc	4 0 16
	movq	-88(%rbp), %rdi
	movq	-104(%rbp), %rcx
	.loc	4 515 32 is_stmt 1
	movq	-72(%rbp), %rdx
	subq	%rcx, %rdx
	movq	%rdx, -112(%rbp)
	movq	%rdx, -8(%rbp)
Ltmp376:
	.loc	4 519 31
	movq	16(%rdi), %rsi
	.loc	4 519 21 is_stmt 0
	callq	__ZN5alloc11collections9vec_deque21VecDeque$LT$T$C$A$GT$4copy17h1685331d21ca0eb5E
	movq	-112(%rbp), %rcx
	movq	-88(%rbp), %rax
	.loc	4 521 17 is_stmt 1
	movq	%rcx, 16(%rax)
Ltmp377:
	.loc	4 508 13
	jmp	LBB71_14
LBB71_13:
	.loc	4 0 13 is_stmt 0
	movq	-96(%rbp), %rcx
	movq	-80(%rbp), %rdx
	movq	-88(%rbp), %rdi
	.loc	4 511 21 is_stmt 1
	xorl	%eax, %eax
	movl	%eax, %esi
	callq	__ZN5alloc11collections9vec_deque21VecDeque$LT$T$C$A$GT$19copy_nonoverlapping17h246ca0e4c04b644fE
Ltmp378:
LBB71_14:
	.loc	4 502 9
	jmp	LBB71_8
Ltmp379:
Lfunc_end71:
	.cfi_endproc

	.globl	__ZN5alloc11collections9vec_deque21VecDeque$LT$T$C$A$GT$4copy17h1685331d21ca0eb5E
	.p2align	4, 0x90
__ZN5alloc11collections9vec_deque21VecDeque$LT$T$C$A$GT$4copy17h1685331d21ca0eb5E:
Lfunc_begin72:
	.loc	4 213 0
	.cfi_startproc
	pushq	%rbp
	.cfi_def_cfa_offset 16
	.cfi_offset %rbp, -16
	movq	%rsp, %rbp
	.cfi_def_cfa_register %rbp
	subq	$208, %rsp
	movq	%rcx, -208(%rbp)
	movq	%rdx, %rcx
	movq	-208(%rbp), %rdx
	movq	%rdi, -200(%rbp)
	movq	%rsi, -192(%rbp)
	movq	%rcx, -184(%rbp)
	movq	%rdx, -176(%rbp)
Ltmp380:
	.loc	4 231 23 prologue_end
	movq	%rdi, -168(%rbp)
Ltmp381:
	.loc	4 160 9
	movq	%rdi, -160(%rbp)
Ltmp382:
	.loc	26 224 9
	movq	8(%rdi), %rax
	movq	%rax, -152(%rbp)
Ltmp383:
	.loc	2 104 9
	movq	%rax, -144(%rbp)
Ltmp384:
	.loc	1 326 9
	movq	%rax, -136(%rbp)
Ltmp385:
	.loc	4 231 38
	movq	%rsi, -128(%rbp)
Ltmp386:
	.loc	27 1034 18
	movq	%rax, -120(%rbp)
	.loc	27 1034 30 is_stmt 0
	movq	%rsi, -112(%rbp)
Ltmp387:
	.loc	27 487 18 is_stmt 1
	shlq	$3, %rsi
	addq	%rsi, %rax
	movq	%rax, -104(%rbp)
	movq	-104(%rbp), %rsi
Ltmp388:
	.loc	4 231 23
	movq	%rsi, -96(%rbp)
	.loc	4 231 44 is_stmt 0
	movq	%rdi, -88(%rbp)
Ltmp389:
	.loc	4 160 9 is_stmt 1
	movq	%rdi, -80(%rbp)
Ltmp390:
	.loc	26 224 9
	movq	8(%rdi), %rax
	movq	%rax, -72(%rbp)
Ltmp391:
	.loc	2 104 9
	movq	%rax, -64(%rbp)
Ltmp392:
	.loc	1 326 9
	movq	%rax, -56(%rbp)
Ltmp393:
	.loc	4 231 59
	movq	%rcx, -48(%rbp)
Ltmp394:
	.loc	27 1034 18
	movq	%rax, -40(%rbp)
	.loc	27 1034 30 is_stmt 0
	movq	%rcx, -32(%rbp)
Ltmp395:
	.loc	27 487 18 is_stmt 1
	shlq	$3, %rcx
	addq	%rcx, %rax
	movq	%rax, -24(%rbp)
	movq	-24(%rbp), %rdi
	movq	%rdi, -16(%rbp)
Ltmp396:
	.loc	4 231 65
	movq	%rdx, -8(%rbp)
Ltmp397:
	.loc	29 2458 9
	shlq	$3, %rdx
	callq	_memmove
Ltmp398:
	.loc	4 233 6
	addq	$208, %rsp
	popq	%rbp
	retq
Ltmp399:
Lfunc_end72:
	.cfi_endproc

	.globl	__ZN5alloc11collections9vec_deque21VecDeque$LT$T$C$A$GT$4grow17h5e703b0c008ffc0aE
	.p2align	4, 0x90
__ZN5alloc11collections9vec_deque21VecDeque$LT$T$C$A$GT$4grow17h5e703b0c008ffc0aE:
Lfunc_begin73:
	.loc	4 2047 0
	.cfi_startproc
	pushq	%rbp
	.cfi_def_cfa_offset 16
	.cfi_offset %rbp, -16
	movq	%rsp, %rbp
	.cfi_def_cfa_register %rbp
	subq	$48, %rsp
	movq	%rdi, -40(%rbp)
	movq	%rdi, -24(%rbp)
Ltmp400:
	.loc	4 2051 23 prologue_end
	movq	%rdi, -16(%rbp)
Ltmp401:
	.loc	4 728 12
	xorl	%eax, %eax
	testb	$1, %al
	jne	LBB73_2
	.loc	4 0 12 is_stmt 0
	movq	-40(%rbp), %rax
	.loc	4 728 44
	movq	%rax, -8(%rbp)
Ltmp402:
	.loc	26 232 12 is_stmt 1
	xorl	%eax, %eax
	testb	$1, %al
	jne	LBB73_5
	jmp	LBB73_4
Ltmp403:
LBB73_2:
	.loc	4 728 24
	movq	$-1, -32(%rbp)
Ltmp404:
LBB73_3:
	.loc	4 0 24 is_stmt 0
	movq	-40(%rbp), %rdi
Ltmp405:
	.loc	4 2052 35 is_stmt 1
	movq	-32(%rbp), %rsi
	.loc	4 2052 9 is_stmt 0
	callq	__ZN5alloc7raw_vec19RawVec$LT$T$C$A$GT$16reserve_for_push17h512c50160fe019adE
	movq	-40(%rbp), %rdi
	.loc	4 2054 43 is_stmt 1
	movq	-32(%rbp), %rsi
	.loc	4 2054 13 is_stmt 0
	callq	__ZN5alloc11collections9vec_deque21VecDeque$LT$T$C$A$GT$24handle_capacity_increase17h74643506f567bc25E
Ltmp406:
	.loc	4 2057 6 is_stmt 1
	addq	$48, %rsp
	popq	%rbp
	retq
LBB73_4:
	.loc	4 0 6 is_stmt 0
	movq	-40(%rbp), %rax
Ltmp407:
	.loc	26 232 44 is_stmt 1
	movq	(%rax), %rax
	movq	%rax, -32(%rbp)
	.loc	26 232 9 is_stmt 0
	jmp	LBB73_6
LBB73_5:
	.loc	26 232 24
	movq	$-1, -32(%rbp)
Ltmp408:
LBB73_6:
	.loc	4 728 9 is_stmt 1
	jmp	LBB73_3
Ltmp409:
Lfunc_end73:
	.cfi_endproc

	.globl	__ZN5alloc11collections9vec_deque21VecDeque$LT$T$C$A$GT$8wrap_add17hf239d652f2aae92bE
	.p2align	4, 0x90
__ZN5alloc11collections9vec_deque21VecDeque$LT$T$C$A$GT$8wrap_add17hf239d652f2aae92bE:
Lfunc_begin74:
	.loc	4 195 0
	.cfi_startproc
	pushq	%rbp
	.cfi_def_cfa_offset 16
	.cfi_offset %rbp, -16
	movq	%rsp, %rbp
	.cfi_def_cfa_register %rbp
	subq	$96, %rsp
	movq	%rdi, -96(%rbp)
	movq	%rdi, -64(%rbp)
	movq	%rsi, -56(%rbp)
	movq	%rdx, -48(%rbp)
Ltmp410:
	.loc	4 196 20 prologue_end
	movq	%rsi, -40(%rbp)
	.loc	4 196 37 is_stmt 0
	movq	%rdx, -32(%rbp)
Ltmp411:
	.loc	11 1162 13 is_stmt 1
	addq	%rdx, %rsi
	movq	%rsi, -88(%rbp)
	movq	%rsi, -24(%rbp)
Ltmp412:
	.loc	4 196 46
	movq	%rdi, -16(%rbp)
Ltmp413:
	.loc	4 728 12
	xorl	%eax, %eax
	testb	$1, %al
	jne	LBB74_2
	.loc	4 0 12 is_stmt 0
	movq	-96(%rbp), %rax
	.loc	4 728 44
	movq	%rax, -8(%rbp)
Ltmp414:
	.loc	26 232 12 is_stmt 1
	xorl	%eax, %eax
	testb	$1, %al
	jne	LBB74_5
	jmp	LBB74_4
Ltmp415:
LBB74_2:
	.loc	4 728 24
	movq	$-1, -72(%rbp)
Ltmp416:
LBB74_3:
	.loc	4 0 24 is_stmt 0
	movq	-88(%rbp), %rax
Ltmp417:
	.loc	4 2647 8 is_stmt 1
	cmpq	-72(%rbp), %rax
	jae	LBB74_8
	jmp	LBB74_7
Ltmp418:
LBB74_4:
	.loc	4 0 8 is_stmt 0
	movq	-96(%rbp), %rax
Ltmp419:
	.loc	26 232 44 is_stmt 1
	movq	(%rax), %rax
	movq	%rax, -72(%rbp)
	.loc	26 232 9 is_stmt 0
	jmp	LBB74_6
LBB74_5:
	.loc	26 232 24
	movq	$-1, -72(%rbp)
Ltmp420:
LBB74_6:
	.loc	4 728 9 is_stmt 1
	jmp	LBB74_3
Ltmp421:
LBB74_7:
	.loc	4 0 9 is_stmt 0
	movq	-88(%rbp), %rax
Ltmp422:
	.loc	4 2647 70 is_stmt 1
	movq	%rax, -80(%rbp)
	.loc	4 2647 5 is_stmt 0
	jmp	LBB74_9
LBB74_8:
	.loc	4 0 5
	movq	-88(%rbp), %rax
	.loc	4 2647 36
	subq	-72(%rbp), %rax
	movq	%rax, -80(%rbp)
Ltmp423:
LBB74_9:
	.loc	4 197 6 is_stmt 1
	movq	-80(%rbp), %rax
	addq	$96, %rsp
	popq	%rbp
	retq
Ltmp424:
Lfunc_end74:
	.cfi_endproc

	.globl	__ZN5alloc11collections9vec_deque21VecDeque$LT$T$C$A$GT$9push_back17hf31a21dc3589dfe8E
	.p2align	4, 0x90
__ZN5alloc11collections9vec_deque21VecDeque$LT$T$C$A$GT$9push_back17hf31a21dc3589dfe8E:
Lfunc_begin75:
	.loc	4 1648 0
	.cfi_startproc
	.cfi_personality 155, _rust_eh_personality
	.cfi_lsda 16, Lexception7
	pushq	%rbp
	.cfi_def_cfa_offset 16
	.cfi_offset %rbp, -16
	movq	%rsp, %rbp
	.cfi_def_cfa_register %rbp
	subq	$128, %rsp
	movq	%rdi, -112(%rbp)
	movq	%rsi, -104(%rbp)
	movq	%rdi, -72(%rbp)
	movq	%rsi, -64(%rbp)
Ltmp432:
	.loc	4 1649 9 prologue_end
	movb	$1, -81(%rbp)
	.loc	4 1649 12 is_stmt 0
	movq	%rdi, -56(%rbp)
Ltmp433:
	.loc	4 189 9 is_stmt 1
	movq	24(%rdi), %rax
	movq	%rax, -96(%rbp)
	.loc	4 189 21 is_stmt 0
	movq	%rdi, -48(%rbp)
Ltmp434:
	.loc	4 728 12 is_stmt 1
	xorl	%eax, %eax
	testb	$1, %al
	jne	LBB75_2
	.loc	4 0 12 is_stmt 0
	movq	-112(%rbp), %rax
	.loc	4 728 44
	movq	%rax, -40(%rbp)
Ltmp435:
	.loc	26 232 12 is_stmt 1
	xorl	%eax, %eax
	testb	$1, %al
	jne	LBB75_5
	jmp	LBB75_4
Ltmp436:
LBB75_2:
	.loc	4 728 24
	movq	$-1, -80(%rbp)
Ltmp437:
LBB75_3:
	.loc	4 0 24 is_stmt 0
	movq	-96(%rbp), %rax
	.loc	4 189 9 is_stmt 1
	cmpq	-80(%rbp), %rax
Ltmp438:
	.loc	4 1649 12
	je	LBB75_8
	jmp	LBB75_7
LBB75_4:
	.loc	4 0 12 is_stmt 0
	movq	-112(%rbp), %rax
Ltmp439:
	.loc	26 232 44 is_stmt 1
	movq	(%rax), %rax
	movq	%rax, -80(%rbp)
	.loc	26 232 9 is_stmt 0
	jmp	LBB75_6
LBB75_5:
	.loc	26 232 24
	movq	$-1, -80(%rbp)
Ltmp440:
LBB75_6:
	.loc	4 728 9 is_stmt 1
	jmp	LBB75_3
Ltmp441:
LBB75_7:
	.loc	4 0 9 is_stmt 0
	movq	-112(%rbp), %rdi
	.loc	4 1653 36 is_stmt 1
	movq	%rdi, -16(%rbp)
	.loc	4 1653 57 is_stmt 0
	movq	24(%rdi), %rdx
	movq	%rdx, -8(%rbp)
Ltmp442:
	.loc	4 201 23 is_stmt 1
	movq	16(%rdi), %rsi
Ltmp427:
	.loc	4 201 9 is_stmt 0
	callq	__ZN5alloc11collections9vec_deque21VecDeque$LT$T$C$A$GT$8wrap_add17hf239d652f2aae92bE
Ltmp428:
	movq	%rax, -120(%rbp)
	jmp	LBB75_12
Ltmp443:
LBB75_8:
Ltmp425:
	.loc	4 0 9
	movq	-112(%rbp), %rdi
	.loc	4 1650 13 is_stmt 1
	callq	__ZN5alloc11collections9vec_deque21VecDeque$LT$T$C$A$GT$4grow17h5e703b0c008ffc0aE
Ltmp426:
	jmp	LBB75_11
LBB75_9:
	.loc	4 1655 5
	testb	$1, -81(%rbp)
	jne	LBB75_15
	jmp	LBB75_14
LBB75_10:
Ltmp431:
	.loc	4 0 5 is_stmt 0
	movq	%rax, %rcx
	movl	%edx, %eax
	movq	%rcx, -32(%rbp)
	movl	%eax, -24(%rbp)
	jmp	LBB75_9
LBB75_11:
	.loc	4 1649 9 is_stmt 1
	jmp	LBB75_7
LBB75_12:
	.loc	4 0 9 is_stmt 0
	movq	-104(%rbp), %rdx
	movq	-120(%rbp), %rsi
	movq	-112(%rbp), %rdi
	.loc	4 1653 68 is_stmt 1
	movb	$0, -81(%rbp)
Ltmp429:
	.loc	4 1653 18 is_stmt 0
	callq	__ZN5alloc11collections9vec_deque21VecDeque$LT$T$C$A$GT$12buffer_write17h8ba19d8e818f0da1E
Ltmp430:
	jmp	LBB75_13
LBB75_13:
	.loc	4 0 18
	movq	-112(%rbp), %rax
	.loc	4 1654 9 is_stmt 1
	movq	24(%rax), %rcx
	addq	$1, %rcx
	movq	%rcx, 24(%rax)
	.loc	4 1655 6
	addq	$128, %rsp
	popq	%rbp
	retq
LBB75_14:
	.loc	4 1648 5
	movq	-32(%rbp), %rdi
	callq	__Unwind_Resume
LBB75_15:
	.loc	4 1655 5
	jmp	LBB75_14
Ltmp444:
Lfunc_end75:
	.cfi_endproc
	.section	__TEXT,__gcc_except_tab
	.p2align	2
GCC_except_table75:
Lexception7:
	.byte	255
	.byte	255
	.byte	1
	.uleb128 Lcst_end7-Lcst_begin7
Lcst_begin7:
	.uleb128 Ltmp427-Lfunc_begin75
	.uleb128 Ltmp430-Ltmp427
	.uleb128 Ltmp431-Lfunc_begin75
	.byte	0
	.uleb128 Ltmp430-Lfunc_begin75
	.uleb128 Lfunc_end75-Ltmp430
	.byte	0
	.byte	0
Lcst_end7:
	.p2align	2

	.section	__TEXT,__text,regular,pure_instructions
	.globl	__ZN5alloc2rc11is_dangling17h57837009ab585c8dE
	.p2align	4, 0x90
__ZN5alloc2rc11is_dangling17h57837009ab585c8dE:
Lfunc_begin76:
	.file	30 "/rustc/2c8cc343237b8f7d5a3c3703e3a87f2eb2c54a74/library/alloc/src" "rc.rs"
	.loc	30 2221 0
	.cfi_startproc
	pushq	%rbp
	.cfi_def_cfa_offset 16
	.cfi_offset %rbp, -16
	movq	%rsp, %rbp
	.cfi_def_cfa_register %rbp
	subq	$32, %rsp
	movq	%rdi, -32(%rbp)
Ltmp445:
	.loc	30 2222 5 prologue_end
	movq	%rdi, -24(%rbp)
Ltmp446:
	.loc	27 215 33
	movq	%rdi, -16(%rbp)
	.loc	27 215 18 is_stmt 0
	movq	%rdi, -8(%rbp)
Ltmp447:
	.loc	30 2222 5 is_stmt 1
	cmpq	$-1, -8(%rbp)
	sete	%al
	.loc	30 2223 2
	andb	$1, %al
	movzbl	%al, %eax
	addq	$32, %rsp
	popq	%rbp
	retq
Ltmp448:
Lfunc_end76:
	.cfi_endproc

	.globl	__ZN5alloc2rc11is_dangling17ha755bb3d890dac29E
	.p2align	4, 0x90
__ZN5alloc2rc11is_dangling17ha755bb3d890dac29E:
Lfunc_begin77:
	.loc	30 2221 0
	.cfi_startproc
	pushq	%rbp
	.cfi_def_cfa_offset 16
	.cfi_offset %rbp, -16
	movq	%rsp, %rbp
	.cfi_def_cfa_register %rbp
	subq	$32, %rsp
	movq	%rdi, -32(%rbp)
Ltmp449:
	.loc	30 2222 5 prologue_end
	movq	%rdi, -24(%rbp)
Ltmp450:
	.loc	27 215 33
	movq	%rdi, -16(%rbp)
	.loc	27 215 18 is_stmt 0
	movq	%rdi, -8(%rbp)
Ltmp451:
	.loc	30 2222 5 is_stmt 1
	cmpq	$-1, -8(%rbp)
	sete	%al
	.loc	30 2223 2
	andb	$1, %al
	movzbl	%al, %eax
	addq	$32, %rsp
	popq	%rbp
	retq
Ltmp452:
Lfunc_end77:
	.cfi_endproc

	.globl	__ZN5alloc4sync12Arc$LT$T$GT$9drop_slow17h1006defa189f2e85E
	.p2align	4, 0x90
__ZN5alloc4sync12Arc$LT$T$GT$9drop_slow17h1006defa189f2e85E:
Lfunc_begin78:
	.loc	8 1120 0
	.cfi_startproc
	pushq	%rbp
	.cfi_def_cfa_offset 16
	.cfi_offset %rbp, -16
	movq	%rsp, %rbp
	.cfi_def_cfa_register %rbp
	subq	$48, %rsp
	movq	%rdi, -40(%rbp)
	movq	%rdi, -24(%rbp)
Ltmp453:
	.loc	8 1123 61 prologue_end
	movq	%rdi, -16(%rbp)
Ltmp454:
	.loc	8 1646 25
	movq	(%rdi), %rdi
	movq	%rdi, -8(%rbp)
	.loc	8 1646 18 is_stmt 0
	addq	$16, %rdi
Ltmp455:
	.loc	8 1123 18 is_stmt 1
	callq	__ZN4core3ptr99drop_in_place$LT$spin..mutex..Mutex$LT$alloc..collections..vec_deque..VecDeque$LT$usize$GT$$GT$$GT$17h06b4dd98e0831b1cE
	movq	-40(%rbp), %rdi
	.loc	8 1126 26
	movq	(%rdi), %rax
	.loc	8 1126 14 is_stmt 0
	movq	%rax, -32(%rbp)
Ltmp456:
	.loc	19 980 24 is_stmt 1
	leaq	-32(%rbp), %rdi
	callq	__ZN4core3ptr124drop_in_place$LT$alloc..sync..Weak$LT$spin..mutex..Mutex$LT$alloc..collections..vec_deque..VecDeque$LT$usize$GT$$GT$$GT$$GT$17h06848d4c0d322782E
Ltmp457:
	.loc	8 1127 6
	addq	$48, %rsp
	popq	%rbp
	retq
Ltmp458:
Lfunc_end78:
	.cfi_endproc

	.globl	__ZN5alloc4sync12Arc$LT$T$GT$9drop_slow17h666071a4bee4b414E
	.p2align	4, 0x90
__ZN5alloc4sync12Arc$LT$T$GT$9drop_slow17h666071a4bee4b414E:
Lfunc_begin79:
	.loc	8 1120 0
	.cfi_startproc
	pushq	%rbp
	.cfi_def_cfa_offset 16
	.cfi_offset %rbp, -16
	movq	%rsp, %rbp
	.cfi_def_cfa_register %rbp
	subq	$48, %rsp
	movq	%rdi, -40(%rbp)
	movq	%rdi, -24(%rbp)
Ltmp459:
	.loc	8 1123 61 prologue_end
	movq	%rdi, -16(%rbp)
Ltmp460:
	.loc	8 1646 25
	movq	(%rdi), %rdi
	movq	%rdi, -8(%rbp)
	.loc	8 1646 18 is_stmt 0
	addq	$16, %rdi
Ltmp461:
	.loc	8 1123 18 is_stmt 1
	callq	__ZN4core3ptr39drop_in_place$LT$std..thread..Inner$GT$17hc93b844cf9a6dabaE
	movq	-40(%rbp), %rdi
	.loc	8 1126 26
	movq	(%rdi), %rax
	.loc	8 1126 14 is_stmt 0
	movq	%rax, -32(%rbp)
Ltmp462:
	.loc	19 980 24 is_stmt 1
	leaq	-32(%rbp), %rdi
	callq	__ZN4core3ptr64drop_in_place$LT$alloc..sync..Weak$LT$std..thread..Inner$GT$$GT$17ha299649708851979E
Ltmp463:
	.loc	8 1127 6
	addq	$48, %rsp
	popq	%rbp
	retq
Ltmp464:
Lfunc_end79:
	.cfi_endproc

	.globl	__ZN5alloc4sync13Weak$LT$T$GT$5inner17h5341e46637c969c7E
	.p2align	4, 0x90
__ZN5alloc4sync13Weak$LT$T$GT$5inner17h5341e46637c969c7E:
Lfunc_begin80:
	.loc	8 2092 0
	.cfi_startproc
	pushq	%rbp
	.cfi_def_cfa_offset 16
	.cfi_offset %rbp, -16
	movq	%rsp, %rbp
	.cfi_def_cfa_register %rbp
	subq	$80, %rsp
	movq	%rdi, -72(%rbp)
	movq	%rdi, -32(%rbp)
Ltmp465:
	.loc	8 2093 24 prologue_end
	movq	(%rdi), %rdi
	movq	%rdi, -24(%rbp)
	.loc	8 2093 12 is_stmt 0
	callq	__ZN5alloc2rc11is_dangling17h57837009ab585c8dE
	testb	$1, %al
	jne	LBB80_2
	.loc	8 0 12
	movq	-72(%rbp), %rax
	.loc	8 2100 27 is_stmt 1
	movq	(%rax), %rax
	movq	%rax, -16(%rbp)
Ltmp466:
	.loc	1 326 9
	movq	%rax, -8(%rbp)
Ltmp467:
	.loc	8 2101 59
	movq	%rax, %rcx
	addq	$8, %rcx
	.loc	8 2101 17 is_stmt 0
	movq	%rcx, -48(%rbp)
	movq	%rax, -40(%rbp)
Ltmp468:
	.loc	8 2099 13 is_stmt 1
	movq	-48(%rbp), %rcx
	movq	-40(%rbp), %rax
	movq	%rcx, -64(%rbp)
	movq	%rax, -56(%rbp)
	.loc	8 2093 9
	jmp	LBB80_3
LBB80_2:
	.loc	8 2094 13
	movq	$0, -64(%rbp)
LBB80_3:
	.loc	8 2104 6
	movq	-64(%rbp), %rax
	movq	-56(%rbp), %rdx
	addq	$80, %rsp
	popq	%rbp
	retq
Ltmp469:
Lfunc_end80:
	.cfi_endproc

	.globl	__ZN5alloc4sync13Weak$LT$T$GT$5inner17hac8f640a6268bf96E
	.p2align	4, 0x90
__ZN5alloc4sync13Weak$LT$T$GT$5inner17hac8f640a6268bf96E:
Lfunc_begin81:
	.loc	8 2092 0
	.cfi_startproc
	pushq	%rbp
	.cfi_def_cfa_offset 16
	.cfi_offset %rbp, -16
	movq	%rsp, %rbp
	.cfi_def_cfa_register %rbp
	subq	$80, %rsp
	movq	%rdi, -72(%rbp)
	movq	%rdi, -32(%rbp)
Ltmp470:
	.loc	8 2093 24 prologue_end
	movq	(%rdi), %rdi
	movq	%rdi, -24(%rbp)
	.loc	8 2093 12 is_stmt 0
	callq	__ZN5alloc2rc11is_dangling17ha755bb3d890dac29E
	testb	$1, %al
	jne	LBB81_2
	.loc	8 0 12
	movq	-72(%rbp), %rax
	.loc	8 2100 27 is_stmt 1
	movq	(%rax), %rax
	movq	%rax, -16(%rbp)
Ltmp471:
	.loc	1 326 9
	movq	%rax, -8(%rbp)
Ltmp472:
	.loc	8 2101 59
	movq	%rax, %rcx
	addq	$8, %rcx
	.loc	8 2101 17 is_stmt 0
	movq	%rcx, -48(%rbp)
	movq	%rax, -40(%rbp)
Ltmp473:
	.loc	8 2099 13 is_stmt 1
	movq	-48(%rbp), %rcx
	movq	-40(%rbp), %rax
	movq	%rcx, -64(%rbp)
	movq	%rax, -56(%rbp)
	.loc	8 2093 9
	jmp	LBB81_3
LBB81_2:
	.loc	8 2094 13
	movq	$0, -64(%rbp)
LBB81_3:
	.loc	8 2104 6
	movq	-64(%rbp), %rax
	movq	-56(%rbp), %rdx
	addq	$80, %rsp
	popq	%rbp
	retq
Ltmp474:
Lfunc_end81:
	.cfi_endproc

	.p2align	4, 0x90
__ZN5alloc5alloc6Global10alloc_impl17h1107654df0bc5c07E:
Lfunc_begin82:
	.file	31 "/rustc/2c8cc343237b8f7d5a3c3703e3a87f2eb2c54a74/library/alloc/src" "alloc.rs"
	.loc	31 172 0
	.cfi_startproc
	pushq	%rbp
	.cfi_def_cfa_offset 16
	.cfi_offset %rbp, -16
	movq	%rsp, %rbp
	.cfi_def_cfa_register %rbp
	subq	$352, %rsp
	movb	%cl, %al
	movb	%al, -345(%rbp)
	movq	%rsi, -336(%rbp)
	movq	%rdx, -328(%rbp)
	movq	%rdi, -208(%rbp)
	andb	$1, %al
	movb	%al, -193(%rbp)
Ltmp475:
	.loc	31 173 15 prologue_end
	leaq	-336(%rbp), %rax
	movq	%rax, -144(%rbp)
Ltmp476:
	.loc	18 129 9
	movq	-336(%rbp), %rax
	movq	%rax, -344(%rbp)
Ltmp477:
	.loc	31 173 9
	cmpq	$0, %rax
	jne	LBB82_2
	.loc	31 174 51
	leaq	-336(%rbp), %rax
	movq	%rax, -48(%rbp)
Ltmp478:
	.loc	18 216 71
	leaq	-336(%rbp), %rax
	movq	%rax, -40(%rbp)
Ltmp479:
	.loc	18 140 9
	movq	-328(%rbp), %rax
	movq	%rax, -32(%rbp)
Ltmp480:
	.loc	20 97 9
	movq	%rax, -232(%rbp)
	movq	-232(%rbp), %rax
	movq	%rax, -24(%rbp)
Ltmp481:
	.loc	13 599 14
	movq	%rax, -16(%rbp)
	movq	-16(%rbp), %rax
	movq	%rax, -8(%rbp)
Ltmp482:
	.loc	1 201 13
	movq	%rax, -304(%rbp)
Ltmp483:
	.loc	31 174 21
	movq	-304(%rbp), %rdi
	xorl	%eax, %eax
	movl	%eax, %esi
	callq	__ZN4core3ptr8non_null26NonNull$LT$$u5b$T$u5d$$GT$20slice_from_raw_parts17hf373049caee609eaE
	.loc	31 174 18 is_stmt 0
	movq	%rax, -320(%rbp)
	movq	%rdx, -312(%rbp)
	.loc	31 174 72
	jmp	LBB82_15
LBB82_2:
	.loc	31 0 72
	movb	-345(%rbp), %al
	movq	-344(%rbp), %rcx
	.loc	31 176 13 is_stmt 1
	movq	%rcx, -136(%rbp)
Ltmp484:
	.loc	31 177 34
	testb	$1, %al
	jne	LBB82_4
	.loc	31 177 79 is_stmt 0
	movq	-336(%rbp), %rcx
	movq	-328(%rbp), %rax
	movq	%rcx, -272(%rbp)
	movq	%rax, -264(%rbp)
Ltmp485:
	.loc	31 95 27 is_stmt 1
	leaq	-272(%rbp), %rax
	movq	%rax, -104(%rbp)
Ltmp486:
	.loc	18 129 9
	movq	-272(%rbp), %rdi
Ltmp487:
	.loc	31 95 42
	leaq	-272(%rbp), %rax
	movq	%rax, -96(%rbp)
Ltmp488:
	.loc	18 140 9
	movq	-264(%rbp), %rax
	movq	%rax, -88(%rbp)
Ltmp489:
	.loc	20 97 9
	movq	%rax, -216(%rbp)
	movq	-216(%rbp), %rsi
Ltmp490:
	.loc	31 95 14
	callq	___rust_alloc
	movq	%rax, -296(%rbp)
Ltmp491:
	.loc	31 177 31
	jmp	LBB82_5
LBB82_4:
	.loc	31 177 56 is_stmt 0
	movq	-336(%rbp), %rcx
	movq	-328(%rbp), %rax
	movq	%rcx, -288(%rbp)
	movq	%rax, -280(%rbp)
Ltmp492:
	.loc	31 166 34 is_stmt 1
	leaq	-288(%rbp), %rax
	movq	%rax, -128(%rbp)
Ltmp493:
	.loc	18 129 9
	movq	-288(%rbp), %rdi
Ltmp494:
	.loc	31 166 49
	leaq	-288(%rbp), %rax
	movq	%rax, -120(%rbp)
Ltmp495:
	.loc	18 140 9
	movq	-280(%rbp), %rax
	movq	%rax, -112(%rbp)
Ltmp496:
	.loc	20 97 9
	movq	%rax, -224(%rbp)
	movq	-224(%rbp), %rsi
Ltmp497:
	.loc	31 166 14
	callq	___rust_alloc_zeroed
	movq	%rax, -296(%rbp)
Ltmp498:
LBB82_5:
	.loc	31 178 40
	movq	-296(%rbp), %rdi
	.loc	31 178 27 is_stmt 0
	callq	__ZN4core3ptr8non_null16NonNull$LT$T$GT$3new17hdfc4653b11aeed17E
	movq	%rax, -240(%rbp)
Ltmp499:
	.loc	22 1096 15 is_stmt 1
	movq	-240(%rbp), %rdx
	movl	$1, %eax
	xorl	%ecx, %ecx
	cmpq	$0, %rdx
	cmoveq	%rcx, %rax
	.loc	22 1096 9 is_stmt 0
	cmpq	$0, %rax
	jne	LBB82_7
	.loc	22 1098 21 is_stmt 1
	movq	$0, -248(%rbp)
	.loc	22 1098 28 is_stmt 0
	jmp	LBB82_8
LBB82_7:
	.loc	22 1097 18 is_stmt 1
	movq	-240(%rbp), %rax
	movq	%rax, -80(%rbp)
Ltmp500:
	.loc	22 1097 24 is_stmt 0
	movq	%rax, -248(%rbp)
Ltmp501:
LBB82_8:
	.loc	23 2091 15 is_stmt 1
	movq	-248(%rbp), %rdx
	xorl	%eax, %eax
	movl	$1, %ecx
	cmpq	$0, %rdx
	cmoveq	%rcx, %rax
	.loc	23 2091 9 is_stmt 0
	cmpq	$0, %rax
	jne	LBB82_10
	.loc	23 2092 16 is_stmt 1
	movq	-248(%rbp), %rax
	movq	%rax, -72(%rbp)
Ltmp502:
	.loc	23 2092 22 is_stmt 0
	movq	%rax, -256(%rbp)
Ltmp503:
	.loc	23 2092 45
	jmp	LBB82_11
LBB82_10:
Ltmp504:
	.loc	23 2093 23 is_stmt 1
	movq	$0, -256(%rbp)
Ltmp505:
LBB82_11:
	.loc	31 178 27
	movq	-256(%rbp), %rdx
	xorl	%eax, %eax
	movl	$1, %ecx
	cmpq	$0, %rdx
	cmoveq	%rcx, %rax
	cmpq	$0, %rax
	jne	LBB82_13
	.loc	31 0 27 is_stmt 0
	movq	-344(%rbp), %rsi
	.loc	31 178 27
	movq	-256(%rbp), %rdi
	movq	%rdi, -64(%rbp)
Ltmp506:
	.loc	31 178 27
	movq	%rdi, -56(%rbp)
Ltmp507:
	.loc	31 179 20 is_stmt 1
	callq	__ZN4core3ptr8non_null26NonNull$LT$$u5b$T$u5d$$GT$20slice_from_raw_parts17hf373049caee609eaE
	.loc	31 179 17 is_stmt 0
	movq	%rax, -320(%rbp)
	movq	%rdx, -312(%rbp)
Ltmp508:
	.loc	31 180 13 is_stmt 1
	jmp	LBB82_15
LBB82_13:
Ltmp509:
	.loc	23 2107 23
	movq	$0, -320(%rbp)
Ltmp510:
LBB82_14:
	.loc	31 182 6
	movq	-320(%rbp), %rax
	movq	-312(%rbp), %rdx
	addq	$352, %rsp
	popq	%rbp
	retq
LBB82_15:
	jmp	LBB82_14
Ltmp511:
Lfunc_end82:
	.cfi_endproc

	.p2align	4, 0x90
__ZN5alloc5alloc6Global9grow_impl17ha5ff240ff0df44cdE:
Lfunc_begin83:
	.loc	31 186 0
	.cfi_startproc
	pushq	%rbp
	.cfi_def_cfa_offset 16
	.cfi_offset %rbp, -16
	movq	%rsp, %rbp
	.cfi_def_cfa_register %rbp
	subq	$736, %rsp
	movq	%rsi, -688(%rbp)
	movq	%rdi, -680(%rbp)
	movb	16(%rbp), %al
	movb	%al, -665(%rbp)
	movq	%rdx, -656(%rbp)
	movq	%rcx, -648(%rbp)
	movq	%r8, -640(%rbp)
	movq	%r9, -632(%rbp)
	movq	%rdi, -504(%rbp)
	movq	%rsi, -496(%rbp)
	andb	$1, %al
	movb	%al, -481(%rbp)
Ltmp512:
	.loc	31 198 15 prologue_end
	leaq	-656(%rbp), %rax
	movq	%rax, -392(%rbp)
Ltmp513:
	.loc	18 129 9
	movq	-656(%rbp), %rax
	movq	%rax, -664(%rbp)
Ltmp514:
	.loc	31 198 9
	cmpq	$0, %rax
	jne	LBB83_2
	.loc	31 0 9 is_stmt 0
	movq	-680(%rbp), %rdi
	movb	-665(%rbp), %al
	.loc	31 199 34 is_stmt 1
	movq	-640(%rbp), %rsi
	movq	-632(%rbp), %rdx
	.loc	31 199 18 is_stmt 0
	movzbl	%al, %ecx
	andl	$1, %ecx
	callq	__ZN5alloc5alloc6Global10alloc_impl17h1107654df0bc5c07E
	movq	%rdx, -616(%rbp)
	movq	%rax, -624(%rbp)
	.loc	31 199 52
	jmp	LBB83_16
LBB83_2:
	.loc	31 203 25 is_stmt 1
	leaq	-656(%rbp), %rax
	movq	%rax, -384(%rbp)
Ltmp515:
	.loc	18 140 9
	movq	-648(%rbp), %rax
	movq	%rax, -376(%rbp)
Ltmp516:
	.loc	20 97 9
	movq	%rax, -536(%rbp)
	movq	-536(%rbp), %rax
Ltmp517:
	.loc	31 203 47
	leaq	-640(%rbp), %rcx
	movq	%rcx, -368(%rbp)
Ltmp518:
	.loc	18 140 9
	movq	-632(%rbp), %rcx
	movq	%rcx, -360(%rbp)
Ltmp519:
	.loc	20 97 9
	movq	%rcx, -528(%rbp)
	movq	-528(%rbp), %rcx
Ltmp520:
	.loc	31 203 25
	cmpq	%rcx, %rax
	je	LBB83_4
	.loc	31 0 25 is_stmt 0
	movq	-680(%rbp), %rdi
	movb	-665(%rbp), %al
	movq	-664(%rbp), %rcx
	.loc	31 222 13 is_stmt 1
	movq	%rcx, -160(%rbp)
Ltmp521:
	.loc	31 223 47
	movq	-640(%rbp), %rsi
	movq	-632(%rbp), %rdx
	.loc	31 223 31 is_stmt 0
	movzbl	%al, %ecx
	andl	$1, %ecx
	callq	__ZN5alloc5alloc6Global10alloc_impl17h1107654df0bc5c07E
	movq	%rdx, -544(%rbp)
	movq	%rax, -552(%rbp)
Ltmp522:
	.loc	23 2091 15 is_stmt 1
	movq	-552(%rbp), %rdx
	xorl	%eax, %eax
	movl	$1, %ecx
	cmpq	$0, %rdx
	cmoveq	%rcx, %rax
	.loc	23 2091 9 is_stmt 0
	cmpq	$0, %rax
	je	LBB83_17
	jmp	LBB83_18
Ltmp523:
LBB83_4:
	.loc	23 0 9
	movq	-688(%rbp), %rdi
	movq	-664(%rbp), %rax
	.loc	31 203 13 is_stmt 1
	movq	%rax, -352(%rbp)
Ltmp524:
	.loc	31 204 32
	leaq	-640(%rbp), %rax
	movq	%rax, -344(%rbp)
Ltmp525:
	.loc	18 129 9
	movq	-640(%rbp), %rcx
	movq	%rcx, -704(%rbp)
	movq	%rcx, -336(%rbp)
Ltmp526:
	.loc	31 207 48
	leaq	-656(%rbp), %rax
	movq	%rax, -328(%rbp)
	.loc	31 209 39
	movq	%rdi, -320(%rbp)
Ltmp527:
	.loc	1 326 9
	movq	%rdi, -312(%rbp)
Ltmp528:
	.loc	31 209 53
	movq	-656(%rbp), %rdx
	movq	-648(%rbp), %rax
	movq	%rdx, -608(%rbp)
	movq	%rax, -600(%rbp)
	.loc	31 209 65 is_stmt 0
	movq	%rcx, -304(%rbp)
Ltmp529:
	.loc	31 132 34 is_stmt 1
	leaq	-608(%rbp), %rax
	movq	%rax, -296(%rbp)
Ltmp530:
	.loc	18 129 9
	movq	-608(%rbp), %rsi
Ltmp531:
	.loc	31 132 49
	leaq	-608(%rbp), %rax
	movq	%rax, -288(%rbp)
Ltmp532:
	.loc	18 140 9
	movq	-600(%rbp), %rax
	movq	%rax, -280(%rbp)
Ltmp533:
	.loc	20 97 9
	movq	%rax, -520(%rbp)
	movq	-520(%rbp), %rdx
Ltmp534:
	.loc	31 132 14
	callq	___rust_realloc
	movq	%rax, %rdi
	movq	%rdi, -696(%rbp)
	movq	%rdi, -272(%rbp)
Ltmp535:
	.loc	31 210 27
	callq	__ZN4core3ptr8non_null16NonNull$LT$T$GT$3new17hdfc4653b11aeed17E
	movq	%rax, -576(%rbp)
Ltmp536:
	.loc	22 1096 15
	movq	-576(%rbp), %rdx
	movl	$1, %eax
	xorl	%ecx, %ecx
	cmpq	$0, %rdx
	cmoveq	%rcx, %rax
	.loc	22 1096 9 is_stmt 0
	cmpq	$0, %rax
	jne	LBB83_6
	.loc	22 1098 21 is_stmt 1
	movq	$0, -584(%rbp)
	.loc	22 1098 28 is_stmt 0
	jmp	LBB83_7
LBB83_6:
	.loc	22 1097 18 is_stmt 1
	movq	-576(%rbp), %rax
	movq	%rax, -264(%rbp)
Ltmp537:
	.loc	22 1097 24 is_stmt 0
	movq	%rax, -584(%rbp)
Ltmp538:
LBB83_7:
	.loc	23 2091 15 is_stmt 1
	movq	-584(%rbp), %rdx
	xorl	%eax, %eax
	movl	$1, %ecx
	cmpq	$0, %rdx
	cmoveq	%rcx, %rax
	.loc	23 2091 9 is_stmt 0
	cmpq	$0, %rax
	jne	LBB83_9
	.loc	23 2092 16 is_stmt 1
	movq	-584(%rbp), %rax
	movq	%rax, -256(%rbp)
Ltmp539:
	.loc	23 2092 22 is_stmt 0
	movq	%rax, -592(%rbp)
Ltmp540:
	.loc	23 2092 45
	jmp	LBB83_10
LBB83_9:
Ltmp541:
	.loc	23 2093 23 is_stmt 1
	movq	$0, -592(%rbp)
Ltmp542:
LBB83_10:
	.loc	31 210 27
	movq	-592(%rbp), %rdx
	xorl	%eax, %eax
	movl	$1, %ecx
	cmpq	$0, %rdx
	cmoveq	%rcx, %rax
	cmpq	$0, %rax
	jne	LBB83_12
	.loc	31 0 27 is_stmt 0
	movb	-665(%rbp), %al
	.loc	31 210 27
	movq	-592(%rbp), %rcx
	movq	%rcx, -712(%rbp)
	movq	%rcx, -248(%rbp)
Ltmp543:
	.loc	31 210 27
	movq	%rcx, -240(%rbp)
Ltmp544:
	.loc	31 211 20 is_stmt 1
	testb	$1, %al
	jne	LBB83_15
	jmp	LBB83_14
Ltmp545:
LBB83_12:
	.loc	23 2107 23
	movq	$0, -624(%rbp)
Ltmp546:
LBB83_13:
	.loc	31 229 6
	jmp	LBB83_22
LBB83_14:
	.loc	31 0 6 is_stmt 0
	movq	-704(%rbp), %rsi
	movq	-712(%rbp), %rdi
Ltmp547:
	.loc	31 214 20 is_stmt 1
	callq	__ZN4core3ptr8non_null26NonNull$LT$$u5b$T$u5d$$GT$20slice_from_raw_parts17hf373049caee609eaE
	.loc	31 214 17 is_stmt 0
	movq	%rax, -624(%rbp)
	movq	%rdx, -616(%rbp)
Ltmp548:
	.loc	31 215 13 is_stmt 1
	jmp	LBB83_16
LBB83_15:
	.loc	31 0 13 is_stmt 0
	movq	-664(%rbp), %rax
	movq	-704(%rbp), %rdx
	movq	-696(%rbp), %rcx
Ltmp549:
	.loc	31 212 21 is_stmt 1
	movq	%rcx, -232(%rbp)
	.loc	31 212 33 is_stmt 0
	movq	%rax, -224(%rbp)
Ltmp550:
	.loc	27 1034 18 is_stmt 1
	movq	%rcx, -216(%rbp)
	.loc	27 1034 30 is_stmt 0
	movq	%rax, -208(%rbp)
Ltmp551:
	.loc	27 487 18 is_stmt 1
	addq	%rax, %rcx
	movq	%rcx, -200(%rbp)
	movq	-200(%rbp), %rdi
	movq	%rdi, -192(%rbp)
Ltmp552:
	.loc	31 212 58
	subq	%rax, %rdx
	movq	%rdx, -184(%rbp)
Ltmp553:
	.loc	27 1488 30
	movq	%rdi, -176(%rbp)
	.loc	27 1488 41 is_stmt 0
	movq	%rdx, -168(%rbp)
Ltmp554:
	.loc	29 2529 9 is_stmt 1
	shlq	$0, %rdx
	xorl	%esi, %esi
	callq	_memset
Ltmp555:
	.loc	31 211 17
	jmp	LBB83_14
Ltmp556:
LBB83_16:
	.loc	31 229 6
	jmp	LBB83_22
LBB83_17:
Ltmp557:
	.loc	23 2092 16
	movq	-552(%rbp), %rcx
	movq	-544(%rbp), %rax
	movq	%rcx, -152(%rbp)
	movq	%rax, -144(%rbp)
Ltmp558:
	.loc	23 2092 22 is_stmt 0
	movq	%rcx, -568(%rbp)
	movq	%rax, -560(%rbp)
Ltmp559:
	.loc	23 2092 45
	jmp	LBB83_19
LBB83_18:
Ltmp560:
	.loc	23 2093 23 is_stmt 1
	movq	$0, -568(%rbp)
Ltmp561:
LBB83_19:
	.loc	31 223 31
	movq	-568(%rbp), %rdx
	xorl	%eax, %eax
	movl	$1, %ecx
	cmpq	$0, %rdx
	cmoveq	%rcx, %rax
	cmpq	$0, %rax
	jne	LBB83_21
	.loc	31 0 31 is_stmt 0
	movq	-688(%rbp), %rsi
	movq	-664(%rbp), %rdx
	.loc	31 223 31
	movq	-568(%rbp), %rax
	movq	%rax, -728(%rbp)
	movq	-560(%rbp), %rcx
	movq	%rcx, -720(%rbp)
	movq	%rax, -136(%rbp)
	movq	%rcx, -128(%rbp)
Ltmp562:
	.loc	31 223 31
	movq	%rax, -120(%rbp)
	movq	%rcx, -112(%rbp)
Ltmp563:
	.loc	31 224 42 is_stmt 1
	movq	%rsi, -104(%rbp)
	movq	%rsi, -96(%rbp)
	.loc	31 224 56 is_stmt 0
	movq	%rax, -88(%rbp)
	movq	%rcx, -80(%rbp)
Ltmp564:
	.loc	1 548 9 is_stmt 1
	movq	%rax, -72(%rbp)
	movq	%rcx, -64(%rbp)
Ltmp565:
	.loc	1 529 41
	movq	%rax, -56(%rbp)
	movq	%rcx, -48(%rbp)
Ltmp566:
	.loc	1 326 9
	movq	%rax, -40(%rbp)
	movq	%rcx, -32(%rbp)
Ltmp567:
	.loc	27 2037 9
	movq	%rax, -24(%rbp)
Ltmp568:
	.loc	1 201 13
	movq	%rax, -512(%rbp)
Ltmp569:
	.loc	1 326 9
	movq	-512(%rbp), %rdi
	movq	%rdi, -16(%rbp)
Ltmp570:
	.loc	31 224 78
	movq	%rdx, -8(%rbp)
Ltmp571:
	.loc	29 2372 9
	shlq	$0, %rdx
	callq	_memcpy
	movq	-680(%rbp), %rdi
	movq	-688(%rbp), %rsi
Ltmp572:
	.loc	31 225 38
	movq	-656(%rbp), %rdx
	movq	-648(%rbp), %rcx
	.loc	31 225 17 is_stmt 0
	callq	__ZN63_$LT$alloc..alloc..Global$u20$as$u20$core..alloc..Allocator$GT$10deallocate17h65473adc79f1a29bE
	movq	-728(%rbp), %rcx
	movq	-720(%rbp), %rax
	.loc	31 226 17 is_stmt 1
	movq	%rcx, -624(%rbp)
	movq	%rax, -616(%rbp)
Ltmp573:
	.loc	31 227 13
	jmp	LBB83_16
LBB83_21:
Ltmp574:
	.loc	23 2107 23
	movq	$0, -624(%rbp)
Ltmp575:
	.file	32 "/Users/natalie/.cargo/registry/src/github.com-1ecc6299db9ec823/flume-0.10.14" "src/lib.rs"
	.loc	32 1 1
	jmp	LBB83_13
LBB83_22:
	.loc	31 229 6
	movq	-624(%rbp), %rax
	movq	-616(%rbp), %rdx
	addq	$736, %rsp
	popq	%rbp
	retq
Ltmp576:
Lfunc_end83:
	.cfi_endproc

	.globl	__ZN5alloc5alloc8box_free17h4c67e0a86a8a9f3dE
	.p2align	4, 0x90
__ZN5alloc5alloc8box_free17h4c67e0a86a8a9f3dE:
Lfunc_begin84:
	.loc	31 340 0
	.cfi_startproc
	.cfi_personality 155, _rust_eh_personality
	.cfi_lsda 16, Lexception8
	pushq	%rbp
	.cfi_def_cfa_offset 16
	.cfi_offset %rbp, -16
	movq	%rsp, %rbp
	.cfi_def_cfa_register %rbp
	subq	$304, %rsp
	movq	%rdi, -288(%rbp)
	movq	%rsi, -280(%rbp)
Ltmp580:
	.loc	31 345 32 prologue_end
	leaq	-288(%rbp), %rax
	movq	%rax, -224(%rbp)
Ltmp581:
	.loc	2 117 18
	leaq	-288(%rbp), %rax
	movq	%rax, -216(%rbp)
Ltmp582:
	.loc	1 376 20
	movq	-288(%rbp), %rcx
	movq	-280(%rbp), %rax
	movq	%rcx, -208(%rbp)
	movq	%rax, -200(%rbp)
Ltmp583:
	.loc	31 345 20
	shlq	$0, %rax
	movq	%rax, -192(%rbp)
	movq	-192(%rbp), %rcx
	movq	%rcx, -304(%rbp)
	movq	%rcx, -184(%rbp)
Ltmp584:
	.loc	31 346 38
	leaq	-288(%rbp), %rax
	movq	%rax, -176(%rbp)
Ltmp585:
	.loc	2 117 18
	leaq	-288(%rbp), %rax
	movq	%rax, -168(%rbp)
Ltmp586:
	.loc	1 376 20
	movq	-288(%rbp), %rdx
	movq	-280(%rbp), %rax
	movq	%rdx, -160(%rbp)
	movq	%rax, -152(%rbp)
Ltmp587:
	.loc	31 346 21
	movq	$1, -144(%rbp)
	movq	-144(%rbp), %rax
	movq	%rax, -136(%rbp)
Ltmp588:
	.loc	31 347 56
	movq	%rcx, -128(%rbp)
	.loc	31 347 62 is_stmt 0
	movq	%rax, -120(%rbp)
Ltmp589:
	.loc	18 120 65 is_stmt 1
	movq	%rax, -112(%rbp)
Ltmp590:
	.loc	20 89 18
	movq	%rax, -104(%rbp)
	movq	-104(%rbp), %rax
	movq	%rax, -296(%rbp)
Ltmp591:
	.loc	20 0 18 is_stmt 0
	movq	-296(%rbp), %rax
	movq	-304(%rbp), %rcx
	.loc	18 120 18 is_stmt 1
	movq	%rcx, -264(%rbp)
	movq	%rax, -256(%rbp)
Ltmp592:
	.loc	31 348 37
	movq	-288(%rbp), %rax
	movq	-280(%rbp), %rcx
	movq	%rax, -96(%rbp)
	movq	%rcx, -88(%rbp)
Ltmp593:
	.loc	2 137 22
	movq	%rax, -80(%rbp)
	movq	%rcx, -72(%rbp)
Ltmp594:
	.loc	1 450 41
	movq	%rax, -64(%rbp)
	movq	%rcx, -56(%rbp)
	movq	%rax, -48(%rbp)
Ltmp595:
	.loc	1 201 13
	movq	%rax, -232(%rbp)
Ltmp596:
	.loc	2 191 18
	movq	-232(%rbp), %rax
	.loc	2 191 9 is_stmt 0
	movq	%rax, -240(%rbp)
Ltmp597:
	.loc	1 768 41 is_stmt 1
	movq	-240(%rbp), %rax
	movq	%rax, -40(%rbp)
Ltmp598:
	.loc	2 104 9
	movq	%rax, -32(%rbp)
Ltmp599:
	.loc	1 326 9
	movq	%rax, -24(%rbp)
Ltmp600:
	.loc	1 201 13
	movq	%rax, -248(%rbp)
Ltmp601:
	.loc	31 348 50
	movq	-264(%rbp), %rdx
	movq	-256(%rbp), %rcx
	.loc	31 348 9 is_stmt 0
	movq	-248(%rbp), %rsi
Ltmp577:
	leaq	-272(%rbp), %rdi
	callq	__ZN63_$LT$alloc..alloc..Global$u20$as$u20$core..alloc..Allocator$GT$10deallocate17h65473adc79f1a29bE
Ltmp578:
	jmp	LBB84_4
Ltmp602:
LBB84_2:
	.loc	31 340 1 is_stmt 1
	movq	-16(%rbp), %rdi
	callq	__Unwind_Resume
LBB84_3:
Ltmp579:
	.loc	31 0 1 is_stmt 0
	movq	%rax, %rcx
	movl	%edx, %eax
	movq	%rcx, -16(%rbp)
	movl	%eax, -8(%rbp)
	jmp	LBB84_2
LBB84_4:
	.loc	31 350 2 is_stmt 1
	addq	$304, %rsp
	popq	%rbp
	retq
Ltmp603:
Lfunc_end84:
	.cfi_endproc
	.section	__TEXT,__gcc_except_tab
	.p2align	2
GCC_except_table84:
Lexception8:
	.byte	255
	.byte	255
	.byte	1
	.uleb128 Lcst_end8-Lcst_begin8
Lcst_begin8:
	.uleb128 Ltmp577-Lfunc_begin84
	.uleb128 Ltmp578-Ltmp577
	.uleb128 Ltmp579-Lfunc_begin84
	.byte	0
	.uleb128 Ltmp578-Lfunc_begin84
	.uleb128 Lfunc_end84-Ltmp578
	.byte	0
	.byte	0
Lcst_end8:
	.p2align	2

	.section	__TEXT,__text,regular,pure_instructions
	.globl	__ZN5alloc7raw_vec11finish_grow17h661799426036748dE
	.p2align	4, 0x90
__ZN5alloc7raw_vec11finish_grow17h661799426036748dE:
Lfunc_begin85:
	.loc	26 448 0
	.cfi_startproc
	pushq	%rbp
	.cfi_def_cfa_offset 16
	.cfi_offset %rbp, -16
	movq	%rsp, %rbp
	.cfi_def_cfa_register %rbp
	subq	$512, %rsp
	movq	%r8, -504(%rbp)
	movq	%rcx, -496(%rbp)
Ltmp604:
	movq	%rdi, -488(%rbp)
	movq	%rdi, -480(%rbp)
	movq	%rsi, -240(%rbp)
	movq	%rdx, -232(%rbp)
Ltmp605:
	movq	%r8, -224(%rbp)
Ltmp606:
	.loc	26 457 22 prologue_end
	leaq	-432(%rbp), %rdi
	callq	__ZN4core6result19Result$LT$T$C$E$GT$7map_err17hb685433c72cb0b6cE
Ltmp607:
	.loc	23 2091 9
	cmpq	$0, -432(%rbp)
Ltmp608:
	jne	LBB85_2
Ltmp609:
	.loc	23 2092 16
	movq	-424(%rbp), %rcx
	movq	-416(%rbp), %rax
	movq	%rcx, -184(%rbp)
	movq	%rax, -176(%rbp)
Ltmp610:
	.loc	23 2092 22 is_stmt 0
	movq	%rcx, -448(%rbp)
	movq	%rax, -440(%rbp)
	movq	$0, -456(%rbp)
Ltmp611:
	.loc	23 2092 45
	jmp	LBB85_3
Ltmp612:
LBB85_2:
	.loc	23 2093 17 is_stmt 1
	movq	-424(%rbp), %rcx
	movq	-416(%rbp), %rax
	movq	%rcx, -200(%rbp)
	movq	%rax, -192(%rbp)
Ltmp613:
	.loc	23 2093 42 is_stmt 0
	movq	%rcx, -304(%rbp)
	movq	%rax, -296(%rbp)
	.loc	23 2093 23
	movq	-304(%rbp), %rcx
	movq	-296(%rbp), %rax
	movq	%rcx, -448(%rbp)
	movq	%rax, -440(%rbp)
	movq	$1, -456(%rbp)
Ltmp614:
LBB85_3:
	.loc	26 457 22 is_stmt 1
	cmpq	$0, -456(%rbp)
	jne	LBB85_5
Ltmp615:
	movq	-448(%rbp), %rcx
	movq	-440(%rbp), %rax
	movq	%rcx, -120(%rbp)
	movq	%rax, -112(%rbp)
Ltmp616:
	.loc	26 457 22 is_stmt 0
	movq	%rcx, -472(%rbp)
	movq	%rax, -464(%rbp)
Ltmp617:
	.loc	26 509 9 is_stmt 1
	movabsq	$-9223372036854775807, %rax
	movq	%rax, -368(%rbp)
Ltmp618:
	.loc	23 2091 15
	movabsq	$-9223372036854775807, %rdx
	movl	$1, %eax
	xorl	%ecx, %ecx
	cmpq	%rdx, -368(%rbp)
	cmoveq	%rcx, %rax
	.loc	23 2091 9 is_stmt 0
	cmpq	$0, %rax
	je	LBB85_7
	jmp	LBB85_8
Ltmp619:
LBB85_5:
	.loc	23 0 9
	movq	-488(%rbp), %rax
	.loc	26 457 62 is_stmt 1
	movq	-448(%rbp), %rdx
	movq	-440(%rbp), %rcx
	movq	%rdx, -168(%rbp)
	movq	%rcx, -160(%rbp)
Ltmp620:
	.loc	26 457 62 is_stmt 0
	movq	%rdx, -408(%rbp)
	movq	%rcx, -400(%rbp)
Ltmp621:
	.loc	23 2107 17 is_stmt 1
	movq	-408(%rbp), %rdx
	movq	-400(%rbp), %rcx
	movq	%rdx, -152(%rbp)
	movq	%rcx, -144(%rbp)
Ltmp622:
	.loc	23 2107 38 is_stmt 0
	movq	%rdx, -136(%rbp)
	movq	%rcx, -128(%rbp)
Ltmp623:
	.loc	3 117 9 is_stmt 1
	movq	%rdx, -288(%rbp)
	movq	%rcx, -280(%rbp)
Ltmp624:
	.loc	23 2107 23
	movq	-288(%rbp), %rdx
	movq	-280(%rbp), %rcx
	movq	%rdx, 8(%rax)
	movq	%rcx, 16(%rax)
	movq	$1, (%rax)
Ltmp625:
LBB85_6:
	.loc	26 473 2
	jmp	LBB85_12
Ltmp626:
LBB85_7:
	.loc	23 2092 22
	movabsq	$-9223372036854775807, %rax
	movq	%rax, -384(%rbp)
Ltmp627:
	.loc	23 2092 45 is_stmt 0
	jmp	LBB85_9
Ltmp628:
LBB85_8:
	.loc	23 2093 17 is_stmt 1
	movq	-376(%rbp), %rcx
	movq	-368(%rbp), %rax
	movq	%rcx, -104(%rbp)
	movq	%rax, -96(%rbp)
Ltmp629:
	.loc	23 2093 42 is_stmt 0
	movq	%rcx, -272(%rbp)
	movq	%rax, -264(%rbp)
	.loc	23 2093 23
	movq	-272(%rbp), %rcx
	movq	-264(%rbp), %rax
	movq	%rcx, -392(%rbp)
	movq	%rax, -384(%rbp)
Ltmp630:
LBB85_9:
	.loc	26 459 5 is_stmt 1
	movabsq	$-9223372036854775807, %rdx
	movl	$1, %eax
	xorl	%ecx, %ecx
	cmpq	%rdx, -384(%rbp)
	cmoveq	%rcx, %rax
	cmpq	$0, %rax
	jne	LBB85_11
Ltmp631:
	.loc	26 0 5 is_stmt 0
	movq	-496(%rbp), %rdx
Ltmp632:
	.loc	26 461 25 is_stmt 1
	movl	$1, %eax
	xorl	%ecx, %ecx
	cmpq	$0, 16(%rdx)
	cmoveq	%rcx, %rax
	cmpq	$1, %rax
	je	LBB85_13
	jmp	LBB85_14
Ltmp633:
LBB85_11:
	.loc	26 0 25 is_stmt 0
	movq	-488(%rbp), %rax
	.loc	26 459 35 is_stmt 1
	movq	-392(%rbp), %rdx
	movq	-384(%rbp), %rcx
	movq	%rdx, -88(%rbp)
	movq	%rcx, -80(%rbp)
Ltmp634:
	.loc	26 459 35 is_stmt 0
	movq	%rdx, -360(%rbp)
	movq	%rcx, -352(%rbp)
Ltmp635:
	.loc	23 2107 17 is_stmt 1
	movq	-360(%rbp), %rdx
	movq	-352(%rbp), %rcx
	movq	%rdx, -72(%rbp)
	movq	%rcx, -64(%rbp)
Ltmp636:
	.loc	23 2107 38 is_stmt 0
	movq	%rdx, -56(%rbp)
	movq	%rcx, -48(%rbp)
	.loc	23 2107 23
	movq	%rdx, 8(%rax)
	movq	%rcx, 16(%rax)
	movq	$1, (%rax)
Ltmp637:
	.loc	32 1 1 is_stmt 1
	jmp	LBB85_6
Ltmp638:
LBB85_12:
	.loc	32 0 1 is_stmt 0
	movq	-480(%rbp), %rax
	.loc	26 473 2 is_stmt 1
	addq	$512, %rsp
	popq	%rbp
	retq
Ltmp639:
LBB85_13:
	.loc	26 0 2 is_stmt 0
	movq	-504(%rbp), %rdi
	movq	-496(%rbp), %rax
Ltmp640:
	.loc	26 461 31 is_stmt 1
	movq	(%rax), %rsi
	movq	%rsi, -40(%rbp)
	.loc	26 461 36 is_stmt 0
	movq	8(%rax), %rcx
	movq	16(%rax), %rax
	movq	%rcx, -328(%rbp)
	movq	%rax, -320(%rbp)
	leaq	-328(%rbp), %rax
	.loc	26 465 32 is_stmt 1
	movq	%rax, -32(%rbp)
Ltmp641:
	.loc	18 140 9
	movq	-320(%rbp), %rax
	movq	%rax, -24(%rbp)
Ltmp642:
	.loc	20 97 9
	movq	%rax, -256(%rbp)
	leaq	-472(%rbp), %rax
Ltmp643:
	.loc	26 465 54
	movq	%rax, -16(%rbp)
Ltmp644:
	.loc	18 140 9
	movq	-464(%rbp), %rax
	movq	%rax, -8(%rbp)
Ltmp645:
	.loc	20 97 9
	movq	%rax, -248(%rbp)
Ltmp646:
	.loc	26 466 29
	movq	-328(%rbp), %rdx
	movq	-320(%rbp), %rcx
	.loc	26 466 41 is_stmt 0
	movq	-472(%rbp), %r8
	movq	-464(%rbp), %r9
	.loc	26 466 13
	callq	__ZN63_$LT$alloc..alloc..Global$u20$as$u20$core..alloc..Allocator$GT$4grow17h356618e592ff146eE
	movq	%rdx, -336(%rbp)
	movq	%rax, -344(%rbp)
Ltmp647:
	.loc	26 461 18 is_stmt 1
	jmp	LBB85_15
Ltmp648:
LBB85_14:
	.loc	26 0 18 is_stmt 0
	movq	-504(%rbp), %rdi
	.loc	26 469 24 is_stmt 1
	movq	-472(%rbp), %rsi
	movq	-464(%rbp), %rdx
	.loc	26 469 9 is_stmt 0
	callq	__ZN63_$LT$alloc..alloc..Global$u20$as$u20$core..alloc..Allocator$GT$8allocate17h25431ae4106916c7E
	movq	%rdx, -336(%rbp)
	movq	%rax, -344(%rbp)
Ltmp649:
LBB85_15:
	.loc	26 0 9
	movq	-488(%rbp), %rdi
Ltmp650:
	.loc	26 472 5 is_stmt 1
	movq	-344(%rbp), %rsi
	movq	-336(%rbp), %rdx
	.loc	26 472 20 is_stmt 0
	leaq	-472(%rbp), %rax
	movq	%rax, -312(%rbp)
	.loc	26 472 5
	movq	-312(%rbp), %rcx
	callq	__ZN4core6result19Result$LT$T$C$E$GT$7map_err17he08d83c3009ca583E
Ltmp651:
	.loc	26 473 2 is_stmt 1
	jmp	LBB85_12
Ltmp652:
Lfunc_end85:
	.cfi_endproc

	.globl	__ZN5alloc7raw_vec11finish_grow28_$u7b$$u7b$closure$u7d$$u7d$17h0f33f35c747253d6E
	.p2align	4, 0x90
__ZN5alloc7raw_vec11finish_grow28_$u7b$$u7b$closure$u7d$$u7d$17h0f33f35c747253d6E:
Lfunc_begin86:
	.loc	26 457 0
	.cfi_startproc
	pushq	%rbp
	.cfi_def_cfa_offset 16
	.cfi_offset %rbp, -16
	movq	%rsp, %rbp
	.cfi_def_cfa_register %rbp
	subq	$32, %rsp
Ltmp653:
	.loc	26 457 45 prologue_end
	movq	$0, -24(%rbp)
	.loc	26 457 61 is_stmt 0
	movq	-32(%rbp), %rax
	movq	-24(%rbp), %rdx
	addq	$32, %rsp
	popq	%rbp
	retq
Ltmp654:
Lfunc_end86:
	.cfi_endproc

	.globl	__ZN5alloc7raw_vec11finish_grow28_$u7b$$u7b$closure$u7d$$u7d$17hcda9275624d8cc5eE
	.p2align	4, 0x90
__ZN5alloc7raw_vec11finish_grow28_$u7b$$u7b$closure$u7d$$u7d$17hcda9275624d8cc5eE:
Lfunc_begin87:
	.loc	26 472 0 is_stmt 1
	.cfi_startproc
	pushq	%rbp
	.cfi_def_cfa_offset 16
	.cfi_offset %rbp, -16
	movq	%rsp, %rbp
	.cfi_def_cfa_register %rbp
	subq	$32, %rsp
	movq	%rdi, -32(%rbp)
Ltmp655:
	.loc	26 472 45 prologue_end
	movq	-32(%rbp), %rax
	movq	(%rax), %rcx
	movq	8(%rax), %rax
	.loc	26 472 24 is_stmt 0
	movq	%rcx, -24(%rbp)
	movq	%rax, -16(%rbp)
	movq	-24(%rbp), %rdi
	movq	-16(%rbp), %rsi
	callq	__ZN50_$LT$T$u20$as$u20$core..convert..Into$LT$U$GT$$GT$4into17h6ce082ea9dbaee01E
	.loc	26 472 84
	addq	$32, %rsp
	popq	%rbp
	retq
Ltmp656:
Lfunc_end87:
	.cfi_endproc

	.p2align	4, 0x90
__ZN5alloc7raw_vec14handle_reserve17h914a063798cf90cfE:
Lfunc_begin88:
	.loc	26 487 0 is_stmt 1
	.cfi_startproc
	pushq	%rbp
	.cfi_def_cfa_offset 16
	.cfi_offset %rbp, -16
	movq	%rsp, %rbp
	.cfi_def_cfa_register %rbp
	subq	$48, %rsp
	movq	%rdi, -32(%rbp)
	movq	%rsi, -24(%rbp)
Ltmp657:
	.loc	26 488 11 prologue_end
	callq	__ZN4core6result19Result$LT$T$C$E$GT$7map_err17h2906176cdb5aeb9fE
	movq	%rdx, -40(%rbp)
	movq	%rax, -48(%rbp)
	movabsq	$-9223372036854775807, %rdx
	movl	$1, %eax
	xorl	%ecx, %ecx
	cmpq	%rdx, -40(%rbp)
	cmoveq	%rcx, %rax
	.loc	26 488 5 is_stmt 0
	cmpq	$0, %rax
	jne	LBB88_2
	.loc	26 493 2 is_stmt 1
	addq	$48, %rsp
	popq	%rbp
	retq
LBB88_2:
	.loc	26 488 11
	movl	$1, %eax
	xorl	%ecx, %ecx
	cmpq	$0, -40(%rbp)
	cmoveq	%rcx, %rax
	.loc	26 488 5 is_stmt 0
	cmpq	$0, %rax
	jne	LBB88_4
	.loc	26 489 34 is_stmt 1
	callq	__ZN5alloc7raw_vec17capacity_overflow17h082ee8492f253a0eE
LBB88_4:
	.loc	26 490 26
	movq	-48(%rbp), %rdi
	movq	-40(%rbp), %rsi
	movq	%rdi, -16(%rbp)
	movq	%rsi, -8(%rbp)
Ltmp658:
	.loc	26 490 43 is_stmt 0
	callq	__ZN5alloc5alloc18handle_alloc_error17hb5f6ff255f23ea4dE
Ltmp659:
Lfunc_end88:
	.cfi_endproc

	.globl	__ZN5alloc7raw_vec14handle_reserve28_$u7b$$u7b$closure$u7d$$u7d$17h7bddd7f0e1873e28E
	.p2align	4, 0x90
__ZN5alloc7raw_vec14handle_reserve28_$u7b$$u7b$closure$u7d$$u7d$17h7bddd7f0e1873e28E:
Lfunc_begin89:
	.loc	26 488 0 is_stmt 1
	.cfi_startproc
	pushq	%rbp
	.cfi_def_cfa_offset 16
	.cfi_offset %rbp, -16
	movq	%rsp, %rbp
	.cfi_def_cfa_register %rbp
	subq	$72, %rsp
	movq	%rdi, -72(%rbp)
	movq	%rsi, -64(%rbp)
Ltmp660:
	.loc	26 488 30 prologue_end
	leaq	-72(%rbp), %rax
	movq	%rax, -32(%rbp)
Ltmp661:
	.loc	3 75 9
	leaq	-72(%rbp), %rax
	movq	%rax, -24(%rbp)
Ltmp662:
	.loc	3 80 10
	movl	$1, %eax
	xorl	%ecx, %ecx
	cmpq	$0, -64(%rbp)
	cmoveq	%rcx, %rax
	cmpq	$0, %rax
	jne	LBB89_2
	movq	$0, -48(%rbp)
	jmp	LBB89_3
LBB89_2:
	.loc	3 94 9
	leaq	-72(%rbp), %rax
	movq	%rax, -16(%rbp)
Ltmp663:
	.loc	3 94 9 is_stmt 0
	leaq	-72(%rbp), %rax
	movq	%rax, -8(%rbp)
Ltmp664:
	.loc	18 36 16 is_stmt 1
	movq	-72(%rbp), %rcx
	movq	-64(%rbp), %rax
Ltmp665:
	.loc	3 80 10
	movq	%rcx, -56(%rbp)
	movq	%rax, -48(%rbp)
Ltmp666:
LBB89_3:
	.loc	26 488 38
	movq	-56(%rbp), %rax
	movq	-48(%rbp), %rdx
	addq	$72, %rsp
	popq	%rbp
	retq
Ltmp667:
Lfunc_end89:
	.cfi_endproc

	.globl	__ZN5alloc7raw_vec19RawVec$LT$T$C$A$GT$14current_memory17hd641e52fa1ee8e28E
	.p2align	4, 0x90
__ZN5alloc7raw_vec19RawVec$LT$T$C$A$GT$14current_memory17hd641e52fa1ee8e28E:
Lfunc_begin90:
	.loc	26 240 0
	.cfi_startproc
	pushq	%rbp
	.cfi_def_cfa_offset 16
	.cfi_offset %rbp, -16
	movq	%rsp, %rbp
	.cfi_def_cfa_register %rbp
	subq	$176, %rsp
	movq	%rsi, -152(%rbp)
	movq	%rdi, -144(%rbp)
	movq	%rdi, -136(%rbp)
	movq	%rsi, -80(%rbp)
Ltmp668:
	.loc	26 241 12 prologue_end
	xorl	%eax, %eax
	testb	$1, %al
	jne	LBB90_2
	.loc	26 0 12 is_stmt 0
	movq	-152(%rbp), %rax
	.loc	26 241 25
	cmpq	$0, (%rax)
	sete	%al
	.loc	26 241 12
	andb	$1, %al
	movb	%al, -121(%rbp)
	jmp	LBB90_3
LBB90_2:
	movb	$1, -121(%rbp)
LBB90_3:
	testb	$1, -121(%rbp)
	jne	LBB90_5
	.loc	26 0 12
	movq	-152(%rbp), %rax
	.loc	26 247 49 is_stmt 1
	movq	(%rax), %rdx
	movq	%rdx, -72(%rbp)
Ltmp669:
	.loc	19 459 5
	movq	$8, -64(%rbp)
Ltmp670:
	.loc	20 89 18
	movq	$8, -56(%rbp)
	movq	-56(%rbp), %rsi
Ltmp671:
	.loc	18 438 16
	movl	$8, %edi
	callq	__ZN4core5alloc6layout6Layout5array5inner17h67d46bb1970fa79fE
	movq	%rax, %rdi
	movq	%rdx, %rsi
Ltmp672:
	.loc	26 247 30
	leaq	l___unnamed_21(%rip), %rdx
	callq	__ZN4core6result19Result$LT$T$C$E$GT$16unwrap_unchecked17h61d897d688a6df3fE
	movq	%rax, %rcx
	movq	-152(%rbp), %rax
	movq	%rcx, -168(%rbp)
	movq	%rdx, -160(%rbp)
	movq	%rcx, -48(%rbp)
	movq	%rdx, -40(%rbp)
Ltmp673:
	.loc	26 248 23
	movq	8(%rax), %rax
	movq	%rax, -32(%rbp)
Ltmp674:
	.loc	2 137 22
	movq	%rax, -24(%rbp)
Ltmp675:
	.loc	1 450 41
	movq	%rax, -16(%rbp)
	movq	%rax, -8(%rbp)
Ltmp676:
	.loc	1 201 13
	movq	%rax, -88(%rbp)
Ltmp677:
	.loc	2 191 18
	movq	-88(%rbp), %rax
	.loc	2 191 9 is_stmt 0
	movq	%rax, -96(%rbp)
Ltmp678:
	.loc	26 248 23 is_stmt 1
	movq	-96(%rbp), %rdi
	callq	__ZN50_$LT$T$u20$as$u20$core..convert..Into$LT$U$GT$$GT$4into17h2f60ca27a87f7d13E
	movq	-168(%rbp), %rcx
	movq	-160(%rbp), %rdx
	movq	%rax, %rsi
	movq	-144(%rbp), %rax
	.loc	26 248 22 is_stmt 0
	movq	%rsi, -120(%rbp)
	movq	%rcx, -112(%rbp)
	movq	%rdx, -104(%rbp)
	.loc	26 248 17
	movq	-120(%rbp), %rcx
	movq	%rcx, (%rax)
	movq	-112(%rbp), %rcx
	movq	%rcx, 8(%rax)
	movq	-104(%rbp), %rcx
	movq	%rcx, 16(%rax)
Ltmp679:
	.loc	26 241 9 is_stmt 1
	jmp	LBB90_6
LBB90_5:
	.loc	26 0 9 is_stmt 0
	movq	-144(%rbp), %rax
	.loc	26 242 13 is_stmt 1
	movq	$0, 16(%rax)
LBB90_6:
	.loc	26 0 13 is_stmt 0
	movq	-136(%rbp), %rax
	.loc	26 251 6 is_stmt 1
	addq	$176, %rsp
	popq	%rbp
	retq
Ltmp680:
Lfunc_end90:
	.cfi_endproc

	.globl	__ZN5alloc7raw_vec19RawVec$LT$T$C$A$GT$14grow_amortized17hf7a0770d43ee2bcfE
	.p2align	4, 0x90
__ZN5alloc7raw_vec19RawVec$LT$T$C$A$GT$14grow_amortized17hf7a0770d43ee2bcfE:
Lfunc_begin91:
	.loc	26 379 0
	.cfi_startproc
	pushq	%rbp
	.cfi_def_cfa_offset 16
	.cfi_offset %rbp, -16
	movq	%rsp, %rbp
	.cfi_def_cfa_register %rbp
	subq	$656, %rsp
	movq	%rdi, -624(%rbp)
	movq	%rsi, -616(%rbp)
	movq	%rdx, -608(%rbp)
	movq	%rdi, -352(%rbp)
	movq	%rsi, -344(%rbp)
	movq	%rdx, -336(%rbp)
Ltmp681:
	.loc	26 383 12 prologue_end
	xorl	%eax, %eax
	testb	$1, %al
	jne	LBB91_2
	.loc	26 0 12 is_stmt 0
	movq	-608(%rbp), %rsi
	movq	-616(%rbp), %rdi
	.loc	26 390 28 is_stmt 1
	callq	__ZN4core3num23_$LT$impl$u20$usize$GT$11checked_add17hf01bf6d25dccb75fE
	movq	%rdx, -528(%rbp)
	movq	%rax, -536(%rbp)
	.loc	26 390 62 is_stmt 0
	movq	$0, -512(%rbp)
Ltmp682:
	.loc	22 1096 9 is_stmt 1
	cmpq	$0, -536(%rbp)
	je	LBB91_4
	jmp	LBB91_5
Ltmp683:
LBB91_2:
	.loc	26 386 24
	movq	$0, -576(%rbp)
	movq	-584(%rbp), %rdi
	movq	-576(%rbp), %rsi
	callq	__ZN50_$LT$T$u20$as$u20$core..convert..Into$LT$U$GT$$GT$4into17h6ce082ea9dbaee01E
	.loc	26 386 20 is_stmt 0
	movq	%rax, -600(%rbp)
	movq	%rdx, -592(%rbp)
LBB91_3:
	.loc	26 403 6 is_stmt 1
	movq	-600(%rbp), %rax
	movq	-592(%rbp), %rdx
	addq	$656, %rsp
	popq	%rbp
	retq
LBB91_4:
Ltmp684:
	.loc	22 1098 25
	movq	-520(%rbp), %rcx
	movq	-512(%rbp), %rax
	.loc	22 1098 21 is_stmt 0
	movq	%rcx, -552(%rbp)
	movq	%rax, -544(%rbp)
	.loc	22 1098 28
	jmp	LBB91_6
LBB91_5:
	.loc	22 1097 18 is_stmt 1
	movq	-528(%rbp), %rax
	movq	%rax, -328(%rbp)
Ltmp685:
	.loc	22 1097 24 is_stmt 0
	movq	%rax, -552(%rbp)
	movabsq	$-9223372036854775807, %rax
	movq	%rax, -544(%rbp)
Ltmp686:
LBB91_6:
	.loc	23 2091 15 is_stmt 1
	movabsq	$-9223372036854775807, %rdx
	movl	$1, %eax
	xorl	%ecx, %ecx
	cmpq	%rdx, -544(%rbp)
	cmoveq	%rcx, %rax
	.loc	23 2091 9 is_stmt 0
	cmpq	$0, %rax
	jne	LBB91_8
	.loc	23 2092 16 is_stmt 1
	movq	-552(%rbp), %rax
	movq	%rax, -304(%rbp)
Ltmp687:
	.loc	23 2092 22 is_stmt 0
	movq	%rax, -568(%rbp)
	movabsq	$-9223372036854775807, %rax
	movq	%rax, -560(%rbp)
Ltmp688:
	.loc	23 2092 45
	jmp	LBB91_9
LBB91_8:
	.loc	23 2093 17 is_stmt 1
	movq	-552(%rbp), %rcx
	movq	-544(%rbp), %rax
	movq	%rcx, -320(%rbp)
	movq	%rax, -312(%rbp)
Ltmp689:
	.loc	23 2093 42 is_stmt 0
	movq	%rcx, -400(%rbp)
	movq	%rax, -392(%rbp)
	.loc	23 2093 23
	movq	-400(%rbp), %rcx
	movq	-392(%rbp), %rax
	movq	%rcx, -568(%rbp)
	movq	%rax, -560(%rbp)
Ltmp690:
LBB91_9:
	.loc	26 390 28 is_stmt 1
	movabsq	$-9223372036854775807, %rdx
	movl	$1, %eax
	xorl	%ecx, %ecx
	cmpq	%rdx, -560(%rbp)
	cmoveq	%rcx, %rax
	cmpq	$0, %rax
	jne	LBB91_11
	.loc	26 0 28 is_stmt 0
	movq	-624(%rbp), %rax
	.loc	26 390 28
	movq	-568(%rbp), %rsi
	movq	%rsi, -248(%rbp)
Ltmp691:
	.loc	26 390 28
	movq	%rsi, -240(%rbp)
Ltmp692:
	.loc	26 394 28 is_stmt 1
	movq	(%rax), %rdi
	shlq	$1, %rdi
	movq	%rdi, -232(%rbp)
	.loc	26 394 42 is_stmt 0
	movq	%rsi, -224(%rbp)
Ltmp693:
	.loc	9 1276 5 is_stmt 1
	movq	%rdi, -216(%rbp)
	.loc	9 1276 12 is_stmt 0
	movq	%rsi, -208(%rbp)
Ltmp694:
	.loc	9 803 13 is_stmt 1
	callq	__ZN4core3cmp6max_by17h80d9e1d4bf011604E
	movq	%rax, %rsi
	movq	%rsi, -200(%rbp)
Ltmp695:
	.loc	26 395 52
	movq	%rsi, -192(%rbp)
	.loc	26 395 19 is_stmt 0
	movq	$4, -184(%rbp)
Ltmp696:
	.loc	9 1276 5 is_stmt 1
	movq	$4, -176(%rbp)
	.loc	9 1276 12 is_stmt 0
	movq	%rsi, -168(%rbp)
Ltmp697:
	.loc	9 803 13 is_stmt 1
	movl	$4, %edi
	callq	__ZN4core3cmp6max_by17h80d9e1d4bf011604E
	movq	%rax, %rdx
	movq	%rdx, -648(%rbp)
	movq	%rdx, -160(%rbp)
Ltmp698:
	.loc	26 397 45
	movq	%rdx, -152(%rbp)
Ltmp699:
	.loc	19 459 5
	movq	$8, -144(%rbp)
Ltmp700:
	.loc	20 89 18
	movq	$8, -136(%rbp)
	movq	-136(%rbp), %rsi
Ltmp701:
	.loc	18 438 16
	movl	$8, %edi
	callq	__ZN4core5alloc6layout6Layout5array5inner17h67d46bb1970fa79fE
	movq	-624(%rbp), %rsi
	movq	%rax, -640(%rbp)
	movq	%rdx, -632(%rbp)
	movq	%rax, -128(%rbp)
	movq	%rdx, -120(%rbp)
Ltmp702:
	.loc	26 400 43
	leaq	-440(%rbp), %rdi
	callq	__ZN5alloc7raw_vec19RawVec$LT$T$C$A$GT$14current_memory17hd641e52fa1ee8e28E
	movq	-640(%rbp), %rsi
	movq	-632(%rbp), %rdx
	movq	-624(%rbp), %r8
	.loc	26 400 19 is_stmt 0
	leaq	-464(%rbp), %rdi
	leaq	-440(%rbp), %rcx
	callq	__ZN5alloc7raw_vec11finish_grow17h661799426036748dE
Ltmp703:
	.loc	23 2091 9 is_stmt 1
	cmpq	$0, -464(%rbp)
	je	LBB91_13
	jmp	LBB91_14
Ltmp704:
LBB91_11:
	.loc	26 390 79
	movq	-568(%rbp), %rcx
	movq	-560(%rbp), %rax
	movq	%rcx, -296(%rbp)
	movq	%rax, -288(%rbp)
Ltmp705:
	.loc	26 390 79 is_stmt 0
	movq	%rcx, -504(%rbp)
	movq	%rax, -496(%rbp)
Ltmp706:
	.loc	23 2107 17 is_stmt 1
	movq	-504(%rbp), %rcx
	movq	-496(%rbp), %rax
	movq	%rcx, -280(%rbp)
	movq	%rax, -272(%rbp)
Ltmp707:
	.loc	23 2107 38 is_stmt 0
	movq	%rcx, -264(%rbp)
	movq	%rax, -256(%rbp)
Ltmp708:
	.loc	3 117 9 is_stmt 1
	movq	%rcx, -384(%rbp)
	movq	%rax, -376(%rbp)
Ltmp709:
	.loc	23 2107 23
	movq	-384(%rbp), %rcx
	movq	-376(%rbp), %rax
	movq	%rcx, -600(%rbp)
	movq	%rax, -592(%rbp)
Ltmp710:
LBB91_12:
	.loc	32 1 1
	jmp	LBB91_3
LBB91_13:
Ltmp711:
	.loc	23 2092 16
	movq	-456(%rbp), %rcx
	movq	-448(%rbp), %rax
	movq	%rcx, -96(%rbp)
	movq	%rax, -88(%rbp)
Ltmp712:
	.loc	23 2092 22 is_stmt 0
	movq	%rcx, -480(%rbp)
	movq	%rax, -472(%rbp)
	movq	$0, -488(%rbp)
Ltmp713:
	.loc	23 2092 45
	jmp	LBB91_15
LBB91_14:
	.loc	23 2093 17 is_stmt 1
	movq	-456(%rbp), %rcx
	movq	-448(%rbp), %rax
	movq	%rcx, -112(%rbp)
	movq	%rax, -104(%rbp)
Ltmp714:
	.loc	23 2093 42 is_stmt 0
	movq	%rcx, -368(%rbp)
	movq	%rax, -360(%rbp)
	.loc	23 2093 23
	movq	-368(%rbp), %rcx
	movq	-360(%rbp), %rax
	movq	%rcx, -480(%rbp)
	movq	%rax, -472(%rbp)
	movq	$1, -488(%rbp)
Ltmp715:
LBB91_15:
	.loc	26 400 19 is_stmt 1
	cmpq	$0, -488(%rbp)
	jne	LBB91_17
	.loc	26 0 19 is_stmt 0
	movq	-648(%rbp), %rcx
	movq	-624(%rbp), %rdi
	.loc	26 400 19
	movq	-480(%rbp), %rsi
	movq	-472(%rbp), %rdx
	movq	%rsi, -32(%rbp)
	movq	%rdx, -24(%rbp)
Ltmp716:
	.loc	26 400 19
	movq	%rsi, -16(%rbp)
	movq	%rdx, -8(%rbp)
Ltmp717:
	.loc	26 401 9 is_stmt 1
	callq	__ZN5alloc7raw_vec19RawVec$LT$T$C$A$GT$15set_ptr_and_cap17h5ea9dfa3b78c9a0cE
	.loc	26 402 9
	movabsq	$-9223372036854775807, %rax
	movq	%rax, -592(%rbp)
Ltmp718:
	.loc	26 403 6
	jmp	LBB91_3
LBB91_17:
Ltmp719:
	.loc	26 400 82
	movq	-480(%rbp), %rcx
	movq	-472(%rbp), %rax
	movq	%rcx, -80(%rbp)
	movq	%rax, -72(%rbp)
Ltmp720:
	.loc	26 400 82 is_stmt 0
	movq	%rcx, -416(%rbp)
	movq	%rax, -408(%rbp)
Ltmp721:
	.loc	23 2107 17 is_stmt 1
	movq	-416(%rbp), %rcx
	movq	-408(%rbp), %rax
	movq	%rcx, -64(%rbp)
	movq	%rax, -56(%rbp)
Ltmp722:
	.loc	23 2107 38 is_stmt 0
	movq	%rcx, -48(%rbp)
	movq	%rax, -40(%rbp)
	.loc	23 2107 23
	movq	%rcx, -600(%rbp)
	movq	%rax, -592(%rbp)
Ltmp723:
	.loc	32 1 1 is_stmt 1
	jmp	LBB91_12
Ltmp724:
Lfunc_end91:
	.cfi_endproc

	.globl	__ZN5alloc7raw_vec19RawVec$LT$T$C$A$GT$15set_ptr_and_cap17h5ea9dfa3b78c9a0cE
	.p2align	4, 0x90
__ZN5alloc7raw_vec19RawVec$LT$T$C$A$GT$15set_ptr_and_cap17h5ea9dfa3b78c9a0cE:
Lfunc_begin92:
	.loc	26 364 0
	.cfi_startproc
	pushq	%rbp
	.cfi_def_cfa_offset 16
	.cfi_offset %rbp, -16
	movq	%rsp, %rbp
	.cfi_def_cfa_register %rbp
	subq	$112, %rsp
	movq	%rdi, -88(%rbp)
	movq	%rsi, -80(%rbp)
	movq	%rdx, -72(%rbp)
	movq	%rcx, -64(%rbp)
Ltmp725:
	.loc	26 368 51 prologue_end
	movq	%rsi, -56(%rbp)
	movq	%rdx, -48(%rbp)
Ltmp726:
	.loc	1 450 41
	movq	%rsi, -40(%rbp)
	movq	%rdx, -32(%rbp)
	movq	%rsi, -24(%rbp)
Ltmp727:
	.loc	1 201 13
	movq	%rsi, -104(%rbp)
Ltmp728:
	.loc	1 326 9
	movq	-104(%rbp), %rax
	movq	%rax, -16(%rbp)
Ltmp729:
	.loc	2 87 59
	movq	%rax, -8(%rbp)
Ltmp730:
	.loc	1 201 13
	movq	%rax, -96(%rbp)
Ltmp731:
	.loc	2 87 18
	movq	-96(%rbp), %rax
	movq	%rax, -112(%rbp)
Ltmp732:
	.loc	26 368 9
	movq	-112(%rbp), %rax
	movq	%rax, 8(%rdi)
	.loc	26 369 9
	movq	%rcx, (%rdi)
	.loc	26 370 6
	addq	$112, %rsp
	popq	%rbp
	retq
Ltmp733:
Lfunc_end92:
	.cfi_endproc

	.globl	__ZN5alloc7raw_vec19RawVec$LT$T$C$A$GT$16reserve_for_push17h512c50160fe019adE
	.p2align	4, 0x90
__ZN5alloc7raw_vec19RawVec$LT$T$C$A$GT$16reserve_for_push17h512c50160fe019adE:
Lfunc_begin93:
	.loc	26 297 0
	.cfi_startproc
	pushq	%rbp
	.cfi_def_cfa_offset 16
	.cfi_offset %rbp, -16
	movq	%rsp, %rbp
	.cfi_def_cfa_register %rbp
	subq	$16, %rsp
	movq	%rdi, -16(%rbp)
	movq	%rsi, -8(%rbp)
Ltmp734:
	.loc	26 298 24 prologue_end
	movl	$1, %edx
	callq	__ZN5alloc7raw_vec19RawVec$LT$T$C$A$GT$14grow_amortized17hf7a0770d43ee2bcfE
	movq	%rax, %rdi
	movq	%rdx, %rsi
	.loc	26 298 9 is_stmt 0
	callq	__ZN5alloc7raw_vec14handle_reserve17h914a063798cf90cfE
	.loc	26 299 6 is_stmt 1
	addq	$16, %rsp
	popq	%rbp
	retq
Ltmp735:
Lfunc_end93:
	.cfi_endproc

	.p2align	4, 0x90
__ZN62_$LT$core..task..wake..Waker$u20$as$u20$core..clone..Clone$GT$5clone17hc70fee6cdbdd2261E:
Lfunc_begin94:
	.loc	17 337 0
	.cfi_startproc
	pushq	%rbp
	.cfi_def_cfa_offset 16
	.cfi_offset %rbp, -16
	movq	%rsp, %rbp
	.cfi_def_cfa_register %rbp
	subq	$32, %rsp
	movq	%rdi, %rax
	movq	%rax, -8(%rbp)
Ltmp736:
	.loc	17 342 55 prologue_end
	movq	(%rax), %rdi
	.loc	17 342 29 is_stmt 0
	movq	8(%rax), %rax
	movq	(%rax), %rax
	callq	*%rax
	.loc	17 338 9 is_stmt 1
	movq	%rax, -24(%rbp)
	movq	%rdx, -16(%rbp)
	.loc	17 344 6
	movq	-24(%rbp), %rax
	movq	-16(%rbp), %rdx
	addq	$32, %rsp
	popq	%rbp
	retq
Ltmp737:
Lfunc_end94:
	.cfi_endproc

	.p2align	4, 0x90
__ZN63_$LT$alloc..alloc..Global$u20$as$u20$core..alloc..Allocator$GT$10deallocate17h65473adc79f1a29bE:
Lfunc_begin95:
	.loc	31 246 0
	.cfi_startproc
	pushq	%rbp
	.cfi_def_cfa_offset 16
	.cfi_offset %rbp, -16
	movq	%rsp, %rbp
	.cfi_def_cfa_register %rbp
	subq	$112, %rsp
	movq	%rsi, -112(%rbp)
	movq	%rdx, -104(%rbp)
	movq	%rcx, -96(%rbp)
	movq	%rdi, -64(%rbp)
	movq	%rsi, -56(%rbp)
Ltmp738:
	.loc	31 247 12 prologue_end
	leaq	-104(%rbp), %rax
	movq	%rax, -48(%rbp)
	cmpq	$0, -104(%rbp)
	jne	LBB95_2
	.loc	31 247 9 is_stmt 0
	jmp	LBB95_3
LBB95_2:
	.loc	31 0 9
	movq	-112(%rbp), %rdi
	.loc	31 250 30 is_stmt 1
	movq	%rdi, -40(%rbp)
Ltmp739:
	.loc	1 326 9
	movq	%rdi, -32(%rbp)
Ltmp740:
	.loc	31 250 44
	movq	-104(%rbp), %rcx
	movq	-96(%rbp), %rax
	movq	%rcx, -88(%rbp)
	movq	%rax, -80(%rbp)
Ltmp741:
	.loc	31 113 34
	leaq	-88(%rbp), %rax
	movq	%rax, -24(%rbp)
Ltmp742:
	.loc	18 129 9
	movq	-88(%rbp), %rsi
Ltmp743:
	.loc	31 113 49
	leaq	-88(%rbp), %rax
	movq	%rax, -16(%rbp)
Ltmp744:
	.loc	18 140 9
	movq	-80(%rbp), %rax
	movq	%rax, -8(%rbp)
Ltmp745:
	.loc	20 97 9
	movq	%rax, -72(%rbp)
	movq	-72(%rbp), %rdx
Ltmp746:
	.loc	31 113 14
	callq	___rust_dealloc
Ltmp747:
LBB95_3:
	.loc	31 252 6
	addq	$112, %rsp
	popq	%rbp
	retq
Ltmp748:
Lfunc_end95:
	.cfi_endproc

	.p2align	4, 0x90
__ZN63_$LT$alloc..alloc..Global$u20$as$u20$core..alloc..Allocator$GT$4grow17h356618e592ff146eE:
Lfunc_begin96:
	.loc	31 255 0
	.cfi_startproc
	pushq	%rbp
	.cfi_def_cfa_offset 16
	.cfi_offset %rbp, -16
	movq	%rsp, %rbp
	.cfi_def_cfa_register %rbp
	subq	$64, %rsp
	movq	%rdi, -48(%rbp)
	movq	%rsi, -40(%rbp)
	movq	%rdx, -32(%rbp)
	movq	%rcx, -24(%rbp)
	movq	%r8, -16(%rbp)
	movq	%r9, -8(%rbp)
Ltmp749:
	.loc	31 262 18 prologue_end
	movq	%rsp, %rax
	movl	$0, (%rax)
	callq	__ZN5alloc5alloc6Global9grow_impl17ha5ff240ff0df44cdE
	.loc	31 263 6
	addq	$64, %rsp
	popq	%rbp
	retq
Ltmp750:
Lfunc_end96:
	.cfi_endproc

	.p2align	4, 0x90
__ZN63_$LT$alloc..alloc..Global$u20$as$u20$core..alloc..Allocator$GT$8allocate17h25431ae4106916c7E:
Lfunc_begin97:
	.loc	31 236 0
	.cfi_startproc
	pushq	%rbp
	.cfi_def_cfa_offset 16
	.cfi_offset %rbp, -16
	movq	%rsp, %rbp
	.cfi_def_cfa_register %rbp
	subq	$32, %rsp
	movq	%rdi, -24(%rbp)
	movq	%rsi, -16(%rbp)
	movq	%rdx, -8(%rbp)
	xorl	%ecx, %ecx
Ltmp751:
	.loc	31 237 9 prologue_end
	callq	__ZN5alloc5alloc6Global10alloc_impl17h1107654df0bc5c07E
	.loc	31 238 6
	addq	$32, %rsp
	popq	%rbp
	retq
Ltmp752:
Lfunc_end97:
	.cfi_endproc

	.globl	__ZN67_$LT$alloc..sync..Arc$LT$T$GT$$u20$as$u20$core..ops..drop..Drop$GT$4drop17h36fde21f65d0b9faE
	.p2align	4, 0x90
__ZN67_$LT$alloc..sync..Arc$LT$T$GT$$u20$as$u20$core..ops..drop..Drop$GT$4drop17h36fde21f65d0b9faE:
Lfunc_begin98:
	.loc	8 1706 0
	.cfi_startproc
	pushq	%rbp
	.cfi_def_cfa_offset 16
	.cfi_offset %rbp, -16
	movq	%rsp, %rbp
	.cfi_def_cfa_register %rbp
	subq	$64, %rsp
	movq	%rdi, -64(%rbp)
	movq	%rdi, -48(%rbp)
Ltmp753:
	.loc	8 1710 12 prologue_end
	movq	%rdi, -40(%rbp)
Ltmp754:
	.loc	8 1115 18
	movq	%rdi, -32(%rbp)
Ltmp755:
	.loc	1 376 20
	movq	(%rdi), %rdi
	movq	%rdi, -24(%rbp)
Ltmp756:
	.loc	8 1710 12
	movq	%rdi, -16(%rbp)
Ltmp757:
	.loc	15 2409 37
	movq	%rdi, -8(%rbp)
	.loc	15 2409 26 is_stmt 0
	movl	$1, %esi
	movl	$1, %edx
	callq	__ZN4core4sync6atomic10atomic_sub17h13b9151db60adef2E
Ltmp758:
	.loc	8 1710 12 is_stmt 1
	cmpq	$1, %rax
	jne	LBB98_2
	.loc	8 1742 9
	movb	$2, -49(%rbp)
	movzbl	-49(%rbp), %edi
	callq	__ZN4core4sync6atomic5fence17he84140d37999db3bE
	movq	-64(%rbp), %rdi
	.loc	8 1745 13
	callq	__ZN5alloc4sync12Arc$LT$T$GT$9drop_slow17h666071a4bee4b414E
	.loc	8 1747 6
	jmp	LBB98_3
LBB98_2:
	jmp	LBB98_3
LBB98_3:
	addq	$64, %rsp
	popq	%rbp
	retq
Ltmp759:
Lfunc_end98:
	.cfi_endproc

	.globl	__ZN67_$LT$alloc..sync..Arc$LT$T$GT$$u20$as$u20$core..ops..drop..Drop$GT$4drop17hb528d067c410f08eE
	.p2align	4, 0x90
__ZN67_$LT$alloc..sync..Arc$LT$T$GT$$u20$as$u20$core..ops..drop..Drop$GT$4drop17hb528d067c410f08eE:
Lfunc_begin99:
	.loc	8 1706 0
	.cfi_startproc
	pushq	%rbp
	.cfi_def_cfa_offset 16
	.cfi_offset %rbp, -16
	movq	%rsp, %rbp
	.cfi_def_cfa_register %rbp
	subq	$64, %rsp
	movq	%rdi, -64(%rbp)
	movq	%rdi, -48(%rbp)
Ltmp760:
	.loc	8 1710 12 prologue_end
	movq	%rdi, -40(%rbp)
Ltmp761:
	.loc	8 1115 18
	movq	%rdi, -32(%rbp)
Ltmp762:
	.loc	1 376 20
	movq	(%rdi), %rdi
	movq	%rdi, -24(%rbp)
Ltmp763:
	.loc	8 1710 12
	movq	%rdi, -16(%rbp)
Ltmp764:
	.loc	15 2409 37
	movq	%rdi, -8(%rbp)
	.loc	15 2409 26 is_stmt 0
	movl	$1, %esi
	movl	$1, %edx
	callq	__ZN4core4sync6atomic10atomic_sub17h13b9151db60adef2E
Ltmp765:
	.loc	8 1710 12 is_stmt 1
	cmpq	$1, %rax
	jne	LBB99_2
	.loc	8 1742 9
	movb	$2, -49(%rbp)
	movzbl	-49(%rbp), %edi
	callq	__ZN4core4sync6atomic5fence17he84140d37999db3bE
	movq	-64(%rbp), %rdi
	.loc	8 1745 13
	callq	__ZN5alloc4sync12Arc$LT$T$GT$9drop_slow17h1006defa189f2e85E
	.loc	8 1747 6
	jmp	LBB99_3
LBB99_2:
	jmp	LBB99_3
LBB99_3:
	addq	$64, %rsp
	popq	%rbp
	retq
Ltmp766:
Lfunc_end99:
	.cfi_endproc

	.p2align	4, 0x90
__ZN68_$LT$alloc..ffi..c_str..CString$u20$as$u20$core..ops..drop..Drop$GT$4drop17heda68c8c754d381fE:
Lfunc_begin100:
	.file	33 "/rustc/2c8cc343237b8f7d5a3c3703e3a87f2eb2c54a74/library/alloc/src/ffi" "c_str.rs"
	.loc	33 701 0
	.cfi_startproc
	pushq	%rbp
	.cfi_def_cfa_offset 16
	.cfi_offset %rbp, -16
	movq	%rsp, %rbp
	.cfi_def_cfa_register %rbp
	subq	$80, %rsp
	movq	%rdi, -80(%rbp)
Ltmp767:
	.loc	33 703 14 prologue_end
	movq	(%rdi), %rax
	movq	8(%rdi), %rcx
	movq	%rax, -72(%rbp)
	movq	%rcx, -64(%rbp)
Ltmp768:
	.file	34 "/rustc/2c8cc343237b8f7d5a3c3703e3a87f2eb2c54a74/library/core/src/slice" "mod.rs"
	.loc	34 443 48
	movq	%rax, -56(%rbp)
	movq	%rcx, -48(%rbp)
Ltmp769:
	.loc	21 253 13
	movq	%rax, -40(%rbp)
	movq	%rcx, -32(%rbp)
Ltmp770:
	.loc	27 2037 9
	movq	%rax, -24(%rbp)
Ltmp771:
	.loc	27 1034 18
	movq	%rax, -16(%rbp)
Ltmp772:
	.loc	27 487 18
	movq	%rax, -8(%rbp)
	movq	-8(%rbp), %rax
Ltmp773:
	.loc	33 703 13
	movb	$0, (%rax)
	.loc	33 705 6
	addq	$80, %rsp
	popq	%rbp
	retq
Ltmp774:
Lfunc_end100:
	.cfi_endproc

	.globl	__ZN68_$LT$alloc..sync..Weak$LT$T$GT$$u20$as$u20$core..ops..drop..Drop$GT$4drop17h576bafc40a3003dfE
	.p2align	4, 0x90
__ZN68_$LT$alloc..sync..Weak$LT$T$GT$$u20$as$u20$core..ops..drop..Drop$GT$4drop17h576bafc40a3003dfE:
Lfunc_begin101:
	.loc	8 2237 0
	.cfi_startproc
	pushq	%rbp
	.cfi_def_cfa_offset 16
	.cfi_offset %rbp, -16
	movq	%rsp, %rbp
	.cfi_def_cfa_register %rbp
	subq	$144, %rsp
	movq	%rdi, -128(%rbp)
	movq	%rdi, -72(%rbp)
Ltmp775:
	.loc	8 2246 42 prologue_end
	callq	__ZN5alloc4sync13Weak$LT$T$GT$5inner17h5341e46637c969c7E
	movq	%rdx, -96(%rbp)
	movq	%rax, -104(%rbp)
	.loc	8 2246 28 is_stmt 0
	movq	-104(%rbp), %rdx
	movl	$1, %eax
	xorl	%ecx, %ecx
	cmpq	$0, %rdx
	cmoveq	%rcx, %rax
	cmpq	$1, %rax
	jne	LBB101_2
	.loc	8 2246 33
	movq	-104(%rbp), %rcx
	movq	-96(%rbp), %rax
	movq	%rcx, -64(%rbp)
	movq	%rax, -56(%rbp)
	.loc	8 2246 57
	movq	%rcx, -120(%rbp)
	movq	%rax, -112(%rbp)
Ltmp776:
	.loc	8 2248 12 is_stmt 1
	movq	-120(%rbp), %rdi
	movq	%rdi, -48(%rbp)
Ltmp777:
	.loc	15 2409 37
	movq	%rdi, -40(%rbp)
	.loc	15 2409 26 is_stmt 0
	movl	$1, %esi
	movl	$1, %edx
	callq	__ZN4core4sync6atomic10atomic_sub17h13b9151db60adef2E
Ltmp778:
	.loc	8 2248 12 is_stmt 1
	cmpq	$1, %rax
	je	LBB101_4
	jmp	LBB101_5
Ltmp779:
LBB101_2:
	.loc	8 2252 6
	jmp	LBB101_3
LBB101_3:
	addq	$144, %rsp
	popq	%rbp
	retq
LBB101_4:
Ltmp780:
	.loc	8 2249 13
	movb	$2, -81(%rbp)
	movzbl	-81(%rbp), %edi
	callq	__ZN4core4sync6atomic5fence17he84140d37999db3bE
	movq	-128(%rbp), %rax
	.loc	8 2250 40
	movq	(%rax), %rcx
	movq	%rcx, -32(%rbp)
Ltmp781:
	.loc	1 450 41
	movq	%rcx, -24(%rbp)
	movq	%rcx, -16(%rbp)
Ltmp782:
	.loc	1 201 13
	movq	%rcx, -80(%rbp)
Ltmp783:
	.loc	8 2250 79
	movq	(%rax), %rdi
	movq	%rdi, -8(%rbp)
	.loc	8 2250 57 is_stmt 0
	callq	__ZN4core5alloc6layout6Layout13for_value_raw17h6cb72e71601b132fE
	movq	%rax, -136(%rbp)
	movq	%rdx, %rcx
	movq	-136(%rbp), %rdx
	.loc	8 2250 22
	movq	-80(%rbp), %rsi
	leaq	l___unnamed_5(%rip), %rdi
	callq	__ZN63_$LT$alloc..alloc..Global$u20$as$u20$core..alloc..Allocator$GT$10deallocate17h65473adc79f1a29bE
	.loc	8 2248 9 is_stmt 1
	jmp	LBB101_6
LBB101_5:
	jmp	LBB101_6
Ltmp784:
LBB101_6:
	.loc	8 2252 6
	jmp	LBB101_3
Ltmp785:
Lfunc_end101:
	.cfi_endproc

	.globl	__ZN68_$LT$alloc..sync..Weak$LT$T$GT$$u20$as$u20$core..ops..drop..Drop$GT$4drop17h92faf7496fc14f4fE
	.p2align	4, 0x90
__ZN68_$LT$alloc..sync..Weak$LT$T$GT$$u20$as$u20$core..ops..drop..Drop$GT$4drop17h92faf7496fc14f4fE:
Lfunc_begin102:
	.loc	8 2237 0
	.cfi_startproc
	pushq	%rbp
	.cfi_def_cfa_offset 16
	.cfi_offset %rbp, -16
	movq	%rsp, %rbp
	.cfi_def_cfa_register %rbp
	subq	$144, %rsp
	movq	%rdi, -128(%rbp)
	movq	%rdi, -72(%rbp)
Ltmp786:
	.loc	8 2246 42 prologue_end
	callq	__ZN5alloc4sync13Weak$LT$T$GT$5inner17hac8f640a6268bf96E
	movq	%rdx, -96(%rbp)
	movq	%rax, -104(%rbp)
	.loc	8 2246 28 is_stmt 0
	movq	-104(%rbp), %rdx
	movl	$1, %eax
	xorl	%ecx, %ecx
	cmpq	$0, %rdx
	cmoveq	%rcx, %rax
	cmpq	$1, %rax
	jne	LBB102_2
	.loc	8 2246 33
	movq	-104(%rbp), %rcx
	movq	-96(%rbp), %rax
	movq	%rcx, -64(%rbp)
	movq	%rax, -56(%rbp)
	.loc	8 2246 57
	movq	%rcx, -120(%rbp)
	movq	%rax, -112(%rbp)
Ltmp787:
	.loc	8 2248 12 is_stmt 1
	movq	-120(%rbp), %rdi
	movq	%rdi, -48(%rbp)
Ltmp788:
	.loc	15 2409 37
	movq	%rdi, -40(%rbp)
	.loc	15 2409 26 is_stmt 0
	movl	$1, %esi
	movl	$1, %edx
	callq	__ZN4core4sync6atomic10atomic_sub17h13b9151db60adef2E
Ltmp789:
	.loc	8 2248 12 is_stmt 1
	cmpq	$1, %rax
	je	LBB102_4
	jmp	LBB102_5
Ltmp790:
LBB102_2:
	.loc	8 2252 6
	jmp	LBB102_3
LBB102_3:
	addq	$144, %rsp
	popq	%rbp
	retq
LBB102_4:
Ltmp791:
	.loc	8 2249 13
	movb	$2, -81(%rbp)
	movzbl	-81(%rbp), %edi
	callq	__ZN4core4sync6atomic5fence17he84140d37999db3bE
	movq	-128(%rbp), %rax
	.loc	8 2250 40
	movq	(%rax), %rcx
	movq	%rcx, -32(%rbp)
Ltmp792:
	.loc	1 450 41
	movq	%rcx, -24(%rbp)
	movq	%rcx, -16(%rbp)
Ltmp793:
	.loc	1 201 13
	movq	%rcx, -80(%rbp)
Ltmp794:
	.loc	8 2250 79
	movq	(%rax), %rdi
	movq	%rdi, -8(%rbp)
	.loc	8 2250 57 is_stmt 0
	callq	__ZN4core5alloc6layout6Layout13for_value_raw17h799f8f37a630d32cE
	movq	%rax, -136(%rbp)
	movq	%rdx, %rcx
	movq	-136(%rbp), %rdx
	.loc	8 2250 22
	movq	-80(%rbp), %rsi
	leaq	l___unnamed_5(%rip), %rdi
	callq	__ZN63_$LT$alloc..alloc..Global$u20$as$u20$core..alloc..Allocator$GT$10deallocate17h65473adc79f1a29bE
	.loc	8 2248 9 is_stmt 1
	jmp	LBB102_6
LBB102_5:
	jmp	LBB102_6
Ltmp795:
LBB102_6:
	.loc	8 2252 6
	jmp	LBB102_3
Ltmp796:
Lfunc_end102:
	.cfi_endproc

	.globl	__ZN69_$LT$alloc..sync..Arc$LT$T$GT$$u20$as$u20$core..ops..deref..Deref$GT$5deref17hc3dc4cadad0e5cfdE
	.p2align	4, 0x90
__ZN69_$LT$alloc..sync..Arc$LT$T$GT$$u20$as$u20$core..ops..deref..Deref$GT$5deref17hc3dc4cadad0e5cfdE:
Lfunc_begin103:
	.loc	8 1390 0
	.cfi_startproc
	pushq	%rbp
	.cfi_def_cfa_offset 16
	.cfi_offset %rbp, -16
	movq	%rsp, %rbp
	.cfi_def_cfa_register %rbp
	subq	$32, %rsp
	movq	%rdi, -32(%rbp)
Ltmp797:
	.loc	8 1391 10 prologue_end
	movq	%rdi, -24(%rbp)
Ltmp798:
	.loc	8 1115 18
	movq	%rdi, -16(%rbp)
Ltmp799:
	.loc	1 376 20
	movq	(%rdi), %rax
	movq	%rax, -8(%rbp)
Ltmp800:
	.loc	8 1391 9
	addq	$16, %rax
	.loc	8 1392 6
	addq	$32, %rsp
	popq	%rbp
	retq
Ltmp801:
Lfunc_end103:
	.cfi_endproc

	.globl	__ZN76_$LT$spin..mutex..MutexGuard$LT$T$GT$$u20$as$u20$core..ops..deref..Deref$GT$5deref17h54da0d45908d67b0E
	.p2align	4, 0x90
__ZN76_$LT$spin..mutex..MutexGuard$LT$T$GT$$u20$as$u20$core..ops..deref..Deref$GT$5deref17h54da0d45908d67b0E:
Lfunc_begin104:
	.file	35 "/Users/natalie/.cargo/registry/src/github.com-1ecc6299db9ec823/spin-0.9.4/src" "mutex.rs"
	.loc	35 290 0
	.cfi_startproc
	pushq	%rbp
	.cfi_def_cfa_offset 16
	.cfi_offset %rbp, -16
	movq	%rsp, %rbp
	.cfi_def_cfa_register %rbp
	subq	$16, %rsp
	movq	%rdi, -8(%rbp)
Ltmp802:
	.loc	35 291 10 prologue_end
	callq	__ZN86_$LT$spin..mutex..spin..SpinMutexGuard$LT$T$GT$$u20$as$u20$core..ops..deref..Deref$GT$5deref17hecc57dce0d06331fE
	.loc	35 292 6
	addq	$16, %rsp
	popq	%rbp
	retq
Ltmp803:
Lfunc_end104:
	.cfi_endproc

	.globl	__ZN77_$LT$alloc..raw_vec..RawVec$LT$T$C$A$GT$$u20$as$u20$core..ops..drop..Drop$GT$4drop17hc1dc7cf17c55b33fE
	.p2align	4, 0x90
__ZN77_$LT$alloc..raw_vec..RawVec$LT$T$C$A$GT$$u20$as$u20$core..ops..drop..Drop$GT$4drop17hc1dc7cf17c55b33fE:
Lfunc_begin105:
	.loc	26 477 0
	.cfi_startproc
	pushq	%rbp
	.cfi_def_cfa_offset 16
	.cfi_offset %rbp, -16
	movq	%rsp, %rbp
	.cfi_def_cfa_register %rbp
	subq	$64, %rsp
	movq	%rdi, %rsi
	movq	%rsi, -64(%rbp)
	movq	%rsi, -32(%rbp)
Ltmp804:
	.loc	26 478 38 prologue_end
	leaq	-56(%rbp), %rdi
	callq	__ZN5alloc7raw_vec19RawVec$LT$T$C$A$GT$14current_memory17hd641e52fa1ee8e28E
	.loc	26 478 16 is_stmt 0
	movl	$1, %eax
	xorl	%ecx, %ecx
	cmpq	$0, -40(%rbp)
	cmoveq	%rcx, %rax
	cmpq	$1, %rax
	jne	LBB105_2
	.loc	26 0 16
	movq	-64(%rbp), %rdi
	.loc	26 478 22
	movq	-56(%rbp), %rsi
	movq	%rsi, -24(%rbp)
	.loc	26 478 27
	movq	-48(%rbp), %rdx
	movq	-40(%rbp), %rcx
	movq	%rdx, -16(%rbp)
	movq	%rcx, -8(%rbp)
	.loc	26 479 22 is_stmt 1
	callq	__ZN63_$LT$alloc..alloc..Global$u20$as$u20$core..alloc..Allocator$GT$10deallocate17h65473adc79f1a29bE
Ltmp805:
LBB105_2:
	.loc	26 481 6
	addq	$64, %rsp
	popq	%rbp
	retq
Ltmp806:
Lfunc_end105:
	.cfi_endproc

	.globl	__ZN79_$LT$spin..mutex..MutexGuard$LT$T$GT$$u20$as$u20$core..ops..deref..DerefMut$GT$9deref_mut17h9f08c92d38071e25E
	.p2align	4, 0x90
__ZN79_$LT$spin..mutex..MutexGuard$LT$T$GT$$u20$as$u20$core..ops..deref..DerefMut$GT$9deref_mut17h9f08c92d38071e25E:
Lfunc_begin106:
	.loc	35 296 0
	.cfi_startproc
	pushq	%rbp
	.cfi_def_cfa_offset 16
	.cfi_offset %rbp, -16
	movq	%rsp, %rbp
	.cfi_def_cfa_register %rbp
	subq	$16, %rsp
	movq	%rdi, -8(%rbp)
Ltmp807:
	.loc	35 297 14 prologue_end
	callq	__ZN89_$LT$spin..mutex..spin..SpinMutexGuard$LT$T$GT$$u20$as$u20$core..ops..deref..DerefMut$GT$9deref_mut17ha119a8367ad4dd19E
	.loc	35 298 6
	addq	$16, %rsp
	popq	%rbp
	retq
Ltmp808:
Lfunc_end106:
	.cfi_endproc

	.globl	__ZN84_$LT$spin..mutex..spin..SpinMutexGuard$LT$T$GT$$u20$as$u20$core..ops..drop..Drop$GT$4drop17had36f64b938556d2E
	.p2align	4, 0x90
__ZN84_$LT$spin..mutex..spin..SpinMutexGuard$LT$T$GT$$u20$as$u20$core..ops..drop..Drop$GT$4drop17had36f64b938556d2E:
Lfunc_begin107:
	.file	36 "/Users/natalie/.cargo/registry/src/github.com-1ecc6299db9ec823/spin-0.9.4/src/mutex" "spin.rs"
	.loc	36 327 0
	.cfi_startproc
	pushq	%rbp
	.cfi_def_cfa_offset 16
	.cfi_offset %rbp, -16
	movq	%rsp, %rbp
	.cfi_def_cfa_register %rbp
	subq	$16, %rsp
	movq	%rdi, -8(%rbp)
Ltmp809:
	.loc	36 328 9 prologue_end
	movq	(%rdi), %rdi
	.loc	36 328 32 is_stmt 0
	movb	$1, -9(%rbp)
	.loc	36 328 9
	xorl	%esi, %esi
	movzbl	-9(%rbp), %edx
	callq	__ZN4core4sync6atomic10AtomicBool5store17h5a00f92a0913708fE
	.loc	36 329 6 is_stmt 1
	addq	$16, %rsp
	popq	%rbp
	retq
Ltmp810:
Lfunc_end107:
	.cfi_endproc

	.globl	__ZN84_$LT$spin..mutex..spin..SpinMutexGuard$LT$T$GT$$u20$as$u20$core..ops..drop..Drop$GT$4drop17hbad29f40dc227fb6E
	.p2align	4, 0x90
__ZN84_$LT$spin..mutex..spin..SpinMutexGuard$LT$T$GT$$u20$as$u20$core..ops..drop..Drop$GT$4drop17hbad29f40dc227fb6E:
Lfunc_begin108:
	.loc	36 327 0
	.cfi_startproc
	pushq	%rbp
	.cfi_def_cfa_offset 16
	.cfi_offset %rbp, -16
	movq	%rsp, %rbp
	.cfi_def_cfa_register %rbp
	subq	$16, %rsp
	movq	%rdi, -8(%rbp)
Ltmp811:
	.loc	36 328 9 prologue_end
	movq	(%rdi), %rdi
	.loc	36 328 32 is_stmt 0
	movb	$1, -9(%rbp)
	.loc	36 328 9
	xorl	%esi, %esi
	movzbl	-9(%rbp), %edx
	callq	__ZN4core4sync6atomic10AtomicBool5store17h5a00f92a0913708fE
	.loc	36 329 6 is_stmt 1
	addq	$16, %rsp
	popq	%rbp
	retq
Ltmp812:
Lfunc_end108:
	.cfi_endproc

	.globl	__ZN86_$LT$core..ops..range..RangeFull$u20$as$u20$core..ops..range..RangeBounds$LT$T$GT$$GT$11start_bound17h8bbe4418b275d7d5E
	.p2align	4, 0x90
__ZN86_$LT$core..ops..range..RangeFull$u20$as$u20$core..ops..range..RangeBounds$LT$T$GT$$GT$11start_bound17h8bbe4418b275d7d5E:
Lfunc_begin109:
	.file	37 "/rustc/2c8cc343237b8f7d5a3c3703e3a87f2eb2c54a74/library/core/src/ops" "range.rs"
	.loc	37 831 0
	.cfi_startproc
	pushq	%rbp
	.cfi_def_cfa_offset 16
	.cfi_offset %rbp, -16
	movq	%rsp, %rbp
	.cfi_def_cfa_register %rbp
	subq	$24, %rsp
	movq	%rdi, -8(%rbp)
Ltmp813:
	.loc	37 832 9 prologue_end
	movq	$2, -24(%rbp)
	.loc	37 833 6
	movq	-24(%rbp), %rax
	movq	-16(%rbp), %rdx
	addq	$24, %rsp
	popq	%rbp
	retq
Ltmp814:
Lfunc_end109:
	.cfi_endproc

	.globl	__ZN86_$LT$core..ops..range..RangeFull$u20$as$u20$core..ops..range..RangeBounds$LT$T$GT$$GT$9end_bound17h0360d6bacec5a83dE
	.p2align	4, 0x90
__ZN86_$LT$core..ops..range..RangeFull$u20$as$u20$core..ops..range..RangeBounds$LT$T$GT$$GT$9end_bound17h0360d6bacec5a83dE:
Lfunc_begin110:
	.loc	37 834 0
	.cfi_startproc
	pushq	%rbp
	.cfi_def_cfa_offset 16
	.cfi_offset %rbp, -16
	movq	%rsp, %rbp
	.cfi_def_cfa_register %rbp
	subq	$24, %rsp
	movq	%rdi, -8(%rbp)
Ltmp815:
	.loc	37 835 9 prologue_end
	movq	$2, -24(%rbp)
	.loc	37 836 6
	movq	-24(%rbp), %rax
	movq	-16(%rbp), %rdx
	addq	$24, %rsp
	popq	%rbp
	retq
Ltmp816:
Lfunc_end110:
	.cfi_endproc

	.globl	__ZN86_$LT$spin..mutex..spin..SpinMutexGuard$LT$T$GT$$u20$as$u20$core..ops..deref..Deref$GT$5deref17hecc57dce0d06331fE
	.p2align	4, 0x90
__ZN86_$LT$spin..mutex..spin..SpinMutexGuard$LT$T$GT$$u20$as$u20$core..ops..deref..Deref$GT$5deref17hecc57dce0d06331fE:
Lfunc_begin111:
	.loc	36 314 0
	.cfi_startproc
	pushq	%rbp
	.cfi_def_cfa_offset 16
	.cfi_offset %rbp, -16
	movq	%rsp, %rbp
	.cfi_def_cfa_register %rbp
	pushq	%rax
	movq	%rdi, -8(%rbp)
Ltmp817:
	.loc	36 315 9 prologue_end
	movq	8(%rdi), %rax
	.loc	36 316 6
	addq	$8, %rsp
	popq	%rbp
	retq
Ltmp818:
Lfunc_end111:
	.cfi_endproc

	.globl	__ZN89_$LT$spin..mutex..spin..SpinMutexGuard$LT$T$GT$$u20$as$u20$core..ops..deref..DerefMut$GT$9deref_mut17ha119a8367ad4dd19E
	.p2align	4, 0x90
__ZN89_$LT$spin..mutex..spin..SpinMutexGuard$LT$T$GT$$u20$as$u20$core..ops..deref..DerefMut$GT$9deref_mut17ha119a8367ad4dd19E:
Lfunc_begin112:
	.loc	36 320 0
	.cfi_startproc
	pushq	%rbp
	.cfi_def_cfa_offset 16
	.cfi_offset %rbp, -16
	movq	%rsp, %rbp
	.cfi_def_cfa_register %rbp
	pushq	%rax
	movq	%rdi, -8(%rbp)
Ltmp819:
	.loc	36 321 9 prologue_end
	movq	8(%rdi), %rax
	.loc	36 322 6
	addq	$8, %rsp
	popq	%rbp
	retq
Ltmp820:
Lfunc_end112:
	.cfi_endproc

	.globl	__ZN94_$LT$alloc..collections..vec_deque..VecDeque$LT$T$C$A$GT$$u20$as$u20$core..ops..drop..Drop$GT$4drop17h4db9697781abe51eE
	.p2align	4, 0x90
__ZN94_$LT$alloc..collections..vec_deque..VecDeque$LT$T$C$A$GT$$u20$as$u20$core..ops..drop..Drop$GT$4drop17h4db9697781abe51eE:
Lfunc_begin113:
	.loc	4 124 0
	.cfi_startproc
	pushq	%rbp
	.cfi_def_cfa_offset 16
	.cfi_offset %rbp, -16
	movq	%rsp, %rbp
	.cfi_def_cfa_register %rbp
	subq	$112, %rsp
	movq	%rdi, %rsi
	movq	%rsi, -56(%rbp)
Ltmp821:
	.loc	4 137 29 prologue_end
	leaq	-104(%rbp), %rdi
	callq	__ZN5alloc11collections9vec_deque21VecDeque$LT$T$C$A$GT$13as_mut_slices17hccf0a72ceed3a39bE
	.loc	4 137 14 is_stmt 0
	movq	-104(%rbp), %rcx
	movq	-96(%rbp), %rax
	movq	%rcx, -48(%rbp)
	movq	%rax, -40(%rbp)
	.loc	4 137 21
	movq	-88(%rbp), %rcx
	movq	-80(%rbp), %rax
	movq	%rcx, -32(%rbp)
	movq	%rax, -24(%rbp)
Ltmp822:
	.loc	4 139 33 is_stmt 1
	movq	%rcx, -72(%rbp)
	movq	%rax, -64(%rbp)
	.loc	4 142 9
	leaq	-72(%rbp), %rdi
	callq	__ZN4core3ptr142drop_in_place$LT$$LT$alloc..collections..vec_deque..VecDeque$LT$T$C$A$GT$$u20$as$u20$core..ops..drop..Drop$GT$..drop..Dropper$LT$usize$GT$$GT$17h9ab9374b07277c34E
Ltmp823:
	.loc	4 144 6
	addq	$112, %rsp
	popq	%rbp
	retq
Ltmp824:
Lfunc_end113:
	.cfi_endproc

	.globl	__ZN69_$LT$flume..select..SelectSignal$u20$as$u20$flume..signal..Signal$GT$4fire17h865a846c0e23084cE
	.p2align	4, 0x90
__ZN69_$LT$flume..select..SelectSignal$u20$as$u20$flume..signal..Signal$GT$4fire17h865a846c0e23084cE:
Lfunc_begin114:
	.file	38 "/Users/natalie/.cargo/registry/src/github.com-1ecc6299db9ec823/flume-0.10.14" "src/select.rs"
	.loc	38 20 0
	.cfi_startproc
	.cfi_personality 155, _rust_eh_personality
	.cfi_lsda 16, Lexception9
	pushq	%rbp
	.cfi_def_cfa_offset 16
	.cfi_offset %rbp, -16
	movq	%rsp, %rbp
	.cfi_def_cfa_register %rbp
	subq	$160, %rsp
	movq	%rdi, -144(%rbp)
	movq	%rdi, -104(%rbp)
Ltmp833:
	.loc	38 21 9 prologue_end
	addq	$24, %rdi
	.loc	38 21 28 is_stmt 0
	movb	$4, -121(%rbp)
	.loc	38 21 9
	movl	$1, %esi
	movzbl	-121(%rbp), %edx
	callq	__ZN4core4sync6atomic10AtomicBool5store17h5a00f92a0913708fE
	movq	-144(%rbp), %rdi
	.loc	38 22 9 is_stmt 1
	addq	$16, %rdi
	callq	__ZN69_$LT$alloc..sync..Arc$LT$T$GT$$u20$as$u20$core..ops..deref..Deref$GT$5deref17hc3dc4cadad0e5cfdE
	movq	%rax, -136(%rbp)
	movq	%rax, -64(%rbp)
	movq	%rax, -32(%rbp)
LBB114_1:
	.loc	38 0 9 is_stmt 0
	movq	-136(%rbp), %rdi
Ltmp834:
	.loc	36 169 60 is_stmt 1
	movb	$2, -34(%rbp)
	.loc	36 169 79 is_stmt 0
	movb	$0, -33(%rbp)
	.loc	36 169 15
	movzbl	-33(%rbp), %r8d
	movzbl	-34(%rbp), %ecx
	xorl	%esi, %esi
	movl	$1, %edx
	callq	__ZN4core4sync6atomic10AtomicBool21compare_exchange_weak17h53c5525738b3d37fE
	movb	%dl, -39(%rbp)
	movb	%al, -40(%rbp)
	leaq	-40(%rbp), %rdi
	callq	__ZN4core6result19Result$LT$T$C$E$GT$6is_err17hfc15432e9a6d02baE
	testb	$1, %al
	jne	LBB114_2
	jmp	LBB114_4
LBB114_2:
	.loc	36 0 15
	movq	-136(%rbp), %rdi
	movq	%rdi, -8(%rbp)
Ltmp835:
	.loc	36 192 24 is_stmt 1
	movb	$0, -9(%rbp)
	.loc	36 192 9 is_stmt 0
	movzbl	-9(%rbp), %esi
	callq	__ZN4core4sync6atomic10AtomicBool4load17hb7966b53ae1032fcE
Ltmp836:
	.loc	36 171 19 is_stmt 1
	testb	$1, %al
	jne	LBB114_3
	jmp	LBB114_1
LBB114_3:
Ltmp837:
	.file	39 "/rustc/2c8cc343237b8f7d5a3c3703e3a87f2eb2c54a74/library/core/src/../../stdarch/crates/core_arch/src/x86" "sse2.rs"
	.loc	39 25 5
	pause
Ltmp838:
	.loc	36 172 17
	jmp	LBB114_2
LBB114_4:
	.loc	36 0 17 is_stmt 0
	movq	-136(%rbp), %rcx
	.loc	36 178 34 is_stmt 1
	movq	%rcx, %rax
	addq	$8, %rax
	movq	%rax, -24(%rbp)
	.loc	36 176 9
	movq	%rcx, -56(%rbp)
	movq	%rax, -48(%rbp)
	.loc	36 180 6
	movq	-56(%rbp), %rcx
	movq	-48(%rbp), %rax
Ltmp839:
	.loc	35 169 9
	movq	%rcx, -80(%rbp)
	movq	%rax, -72(%rbp)
	.loc	35 172 6
	movq	-80(%rbp), %rax
	movq	-72(%rbp), %rcx
Ltmp840:
	.loc	38 22 9
	movq	%rcx, -112(%rbp)
	movq	%rax, -120(%rbp)
Ltmp825:
	leaq	-120(%rbp), %rdi
	callq	__ZN79_$LT$spin..mutex..MutexGuard$LT$T$GT$$u20$as$u20$core..ops..deref..DerefMut$GT$9deref_mut17h9f08c92d38071e25E
Ltmp826:
	movq	%rax, -152(%rbp)
	jmp	LBB114_7
LBB114_5:
Ltmp830:
	.loc	38 0 9 is_stmt 0
	leaq	-120(%rbp), %rdi
	.loc	38 22 40
	callq	__ZN4core3ptr104drop_in_place$LT$spin..mutex..MutexGuard$LT$alloc..collections..vec_deque..VecDeque$LT$usize$GT$$GT$$GT$17h119adfbeff6ca824E
Ltmp831:
	jmp	LBB114_10
LBB114_6:
Ltmp829:
	.loc	38 0 40
	movq	%rax, %rcx
	movl	%edx, %eax
	movq	%rcx, -96(%rbp)
	movl	%eax, -88(%rbp)
	jmp	LBB114_5
LBB114_7:
	movq	-152(%rbp), %rdi
	movq	-144(%rbp), %rax
	.loc	38 22 33
	movq	(%rax), %rsi
Ltmp827:
	.loc	38 22 9
	callq	__ZN5alloc11collections9vec_deque21VecDeque$LT$T$C$A$GT$9push_back17hf31a21dc3589dfe8E
Ltmp828:
	jmp	LBB114_8
LBB114_8:
	.loc	38 22 40
	leaq	-120(%rbp), %rdi
	callq	__ZN4core3ptr104drop_in_place$LT$spin..mutex..MutexGuard$LT$alloc..collections..vec_deque..VecDeque$LT$usize$GT$$GT$$GT$17h119adfbeff6ca824E
	movq	-144(%rbp), %rdi
	.loc	38 23 9 is_stmt 1
	addq	$8, %rdi
	callq	__ZN3std6thread6Thread6unpark17hbbd7c10a5f4fbec7E
	.loc	38 25 6
	xorl	%eax, %eax
	andb	$1, %al
	movzbl	%al, %eax
	addq	$160, %rsp
	popq	%rbp
	retq
LBB114_9:
Ltmp832:
	.loc	38 20 5
	callq	__ZN4core9panicking19panic_cannot_unwind17h1fbca7e1d7f56ae1E
LBB114_10:
	movq	-96(%rbp), %rdi
	callq	__Unwind_Resume
Ltmp841:
Lfunc_end114:
	.cfi_endproc
	.file	40 "/Users/natalie/.cargo/registry/src/github.com-1ecc6299db9ec823/spin-0.9.4/src" "relax.rs"
	.section	__TEXT,__gcc_except_tab
	.p2align	2
GCC_except_table114:
Lexception9:
	.byte	255
	.byte	255
	.byte	1
	.uleb128 Lcst_end9-Lcst_begin9
Lcst_begin9:
	.uleb128 Lfunc_begin114-Lfunc_begin114
	.uleb128 Ltmp825-Lfunc_begin114
	.byte	0
	.byte	0
	.uleb128 Ltmp825-Lfunc_begin114
	.uleb128 Ltmp826-Ltmp825
	.uleb128 Ltmp829-Lfunc_begin114
	.byte	0
	.uleb128 Ltmp830-Lfunc_begin114
	.uleb128 Ltmp831-Ltmp830
	.uleb128 Ltmp832-Lfunc_begin114
	.byte	0
	.uleb128 Ltmp827-Lfunc_begin114
	.uleb128 Ltmp828-Ltmp827
	.uleb128 Ltmp829-Lfunc_begin114
	.byte	0
	.uleb128 Ltmp828-Lfunc_begin114
	.uleb128 Lfunc_end114-Ltmp828
	.byte	0
	.byte	0
Lcst_end9:
	.p2align	2

	.section	__TEXT,__text,regular,pure_instructions
	.globl	__ZN69_$LT$flume..select..SelectSignal$u20$as$u20$flume..signal..Signal$GT$6as_any17hfdadd17a61eff4f8E
	.p2align	4, 0x90
__ZN69_$LT$flume..select..SelectSignal$u20$as$u20$flume..signal..Signal$GT$6as_any17hfdadd17a61eff4f8E:
Lfunc_begin115:
	.loc	38 27 0
	.cfi_startproc
	pushq	%rbp
	.cfi_def_cfa_offset 16
	.cfi_offset %rbp, -16
	movq	%rsp, %rbp
	.cfi_def_cfa_register %rbp
	pushq	%rax
	movq	%rdi, %rax
	movq	%rax, -8(%rbp)
Ltmp842:
	.loc	38 29 6 prologue_end
	leaq	l___unnamed_1(%rip), %rdx
	addq	$8, %rsp
	popq	%rbp
	retq
Ltmp843:
Lfunc_end115:
	.cfi_endproc

	.globl	__ZN69_$LT$flume..select..SelectSignal$u20$as$u20$flume..signal..Signal$GT$6as_ptr17ha970e5c4a5421898E
	.p2align	4, 0x90
__ZN69_$LT$flume..select..SelectSignal$u20$as$u20$flume..signal..Signal$GT$6as_ptr17ha970e5c4a5421898E:
Lfunc_begin116:
	.loc	38 30 0
	.cfi_startproc
	pushq	%rbp
	.cfi_def_cfa_offset 16
	.cfi_offset %rbp, -16
	movq	%rsp, %rbp
	.cfi_def_cfa_register %rbp
	pushq	%rax
	movq	%rdi, %rax
	movq	%rax, -8(%rbp)
Ltmp844:
	.loc	38 32 6 prologue_end
	addq	$8, %rsp
	popq	%rbp
	retq
Ltmp845:
Lfunc_end116:
	.cfi_endproc

	.globl	__ZN65_$LT$flume..select..SelectError$u20$as$u20$core..fmt..Display$GT$3fmt17hab0f9ba467a103c3E
	.p2align	4, 0x90
__ZN65_$LT$flume..select..SelectError$u20$as$u20$core..fmt..Display$GT$3fmt17hab0f9ba467a103c3E:
Lfunc_begin117:
	.loc	38 49 0
	.cfi_startproc
	pushq	%rbp
	.cfi_def_cfa_offset 16
	.cfi_offset %rbp, -16
	movq	%rsp, %rbp
	.cfi_def_cfa_register %rbp
	subq	$16, %rsp
	movq	%rsi, %rdx
	movq	%rdi, -16(%rbp)
	movq	%rdx, -8(%rbp)
Ltmp846:
	.loc	38 51 37 prologue_end
	leaq	L___unnamed_22(%rip), %rdi
	movl	$16, %esi
	callq	__ZN42_$LT$str$u20$as$u20$core..fmt..Display$GT$3fmt17hd1cabce055ea2fbdE
	.loc	38 53 6
	andb	$1, %al
	movzbl	%al, %eax
	addq	$16, %rsp
	popq	%rbp
	retq
Ltmp847:
Lfunc_end117:
	.cfi_endproc

	.globl	__ZN5flume5async11AsyncSignal3new17hbe85b10281e366b3E
	.p2align	4, 0x90
__ZN5flume5async11AsyncSignal3new17hbe85b10281e366b3E:
Lfunc_begin118:
	.file	41 "/Users/natalie/.cargo/registry/src/github.com-1ecc6299db9ec823/flume-0.10.14" "src/async.rs"
	.loc	41 22 0
	.cfi_startproc
	.cfi_personality 155, _rust_eh_personality
	.cfi_lsda 16, Lexception10
	pushq	%rbp
	.cfi_def_cfa_offset 16
	.cfi_offset %rbp, -16
	movq	%rsp, %rbp
	.cfi_def_cfa_register %rbp
	subq	$256, %rsp
	movq	%rsi, -232(%rbp)
	movq	%rdi, %rcx
	movq	-232(%rbp), %rdi
	movq	%rcx, -224(%rbp)
	movb	%dl, %al
	movb	%al, -209(%rbp)
	movq	%rcx, -208(%rbp)
	movq	%rdi, -160(%rbp)
	andb	$1, %al
	movb	%al, -145(%rbp)
Ltmp860:
	.loc	41 24 34 prologue_end
	callq	__ZN4core4task4wake7Context5waker17h4dc4480b4142aff2E
	movq	%rax, %rdi
	callq	__ZN62_$LT$core..task..wake..Waker$u20$as$u20$core..clone..Clone$GT$5clone17hc70fee6cdbdd2261E
	movq	%rax, -96(%rbp)
	movq	%rdx, -88(%rbp)
	movq	%rax, -80(%rbp)
	movq	%rdx, -72(%rbp)
Ltmp861:
	.loc	36 101 19
	movb	$0, -57(%rbp)
	movb	$1, -57(%rbp)
Ltmp848:
	xorl	%edi, %edi
	callq	__ZN4core4sync6atomic10AtomicBool3new17hdf44c530a51cbc17E
Ltmp849:
	movb	%al, -193(%rbp)
	jmp	LBB118_5
LBB118_1:
Ltmp850:
	.loc	36 0 19 is_stmt 0
	movq	%rax, %rcx
	movl	%edx, %eax
	movq	%rcx, -56(%rbp)
	movl	%eax, -48(%rbp)
	.loc	36 105 5 is_stmt 1
	testb	$1, -57(%rbp)
	jne	LBB118_3
LBB118_2:
	.loc	36 99 5
	movq	-56(%rbp), %rax
	movq	%rax, -240(%rbp)
	jmp	LBB118_11
LBB118_3:
Ltmp851:
	.loc	36 0 5 is_stmt 0
	leaq	-80(%rbp), %rdi
	.loc	36 105 5 is_stmt 1
	callq	__ZN4core3ptr44drop_in_place$LT$core..task..wake..Waker$GT$17h5eab3db7c153ad20E
Ltmp852:
	jmp	LBB118_2
LBB118_4:
Ltmp853:
	.loc	36 99 5
	callq	__ZN4core9panicking19panic_cannot_unwind17h1fbca7e1d7f56ae1E
LBB118_5:
	.loc	36 0 5 is_stmt 0
	movb	-193(%rbp), %al
	.loc	36 101 19 is_stmt 1
	movb	%al, -33(%rbp)
	movb	-33(%rbp), %al
	movb	%al, -64(%rbp)
	.loc	36 102 35
	movb	$0, -57(%rbp)
	movq	-80(%rbp), %rcx
	movq	-72(%rbp), %rax
	movq	%rcx, -16(%rbp)
	movq	%rax, -8(%rbp)
Ltmp862:
	.loc	16 1953 9
	movq	%rcx, -32(%rbp)
	movq	%rax, -24(%rbp)
	.loc	16 1954 6
	movq	-32(%rbp), %rcx
	movq	-24(%rbp), %rax
Ltmp863:
	.loc	36 100 9
	movb	-64(%rbp), %dl
	movb	%dl, -120(%rbp)
	movq	%rcx, -112(%rbp)
	movq	%rax, -104(%rbp)
Ltmp864:
	.loc	35 135 9
	movq	-104(%rbp), %rax
	movq	%rax, -176(%rbp)
	movq	-120(%rbp), %rax
	movq	-112(%rbp), %rcx
	movq	%rcx, -184(%rbp)
	movq	%rax, -192(%rbp)
Ltmp854:
	xorl	%edi, %edi
Ltmp865:
	.loc	41 25 20
	callq	__ZN4core4sync6atomic10AtomicBool3new17hdf44c530a51cbc17E
Ltmp855:
	movb	%al, -241(%rbp)
	jmp	LBB118_8
LBB118_6:
Ltmp857:
	.loc	41 0 20 is_stmt 0
	leaq	-192(%rbp), %rdi
	.loc	41 27 9 is_stmt 1
	callq	__ZN4core3ptr70drop_in_place$LT$spin..mutex..Mutex$LT$core..task..wake..Waker$GT$$GT$17h92d793461ac08d83E
Ltmp858:
	jmp	LBB118_10
LBB118_7:
Ltmp856:
	.loc	41 0 9 is_stmt 0
	movq	%rax, %rcx
	movl	%edx, %eax
	movq	%rcx, -144(%rbp)
	movl	%eax, -136(%rbp)
	jmp	LBB118_6
LBB118_8:
	movq	-208(%rbp), %rax
	movq	-224(%rbp), %rcx
	movb	-209(%rbp), %dl
	movb	-241(%rbp), %sil
	.loc	41 25 20 is_stmt 1
	movb	%sil, -121(%rbp)
	movb	-121(%rbp), %sil
	movb	%sil, -168(%rbp)
	.loc	41 23 9
	movq	-192(%rbp), %rsi
	movq	%rsi, (%rcx)
	movq	-184(%rbp), %rsi
	movq	%rsi, 8(%rcx)
	movq	-176(%rbp), %rsi
	movq	%rsi, 16(%rcx)
	movb	-168(%rbp), %sil
	movb	%sil, 24(%rcx)
	andb	$1, %dl
	movb	%dl, 25(%rcx)
	.loc	41 28 6
	addq	$256, %rsp
	popq	%rbp
	retq
LBB118_9:
Ltmp859:
	.loc	41 22 5
	callq	__ZN4core9panicking19panic_cannot_unwind17h1fbca7e1d7f56ae1E
LBB118_10:
	movq	-144(%rbp), %rax
	movq	%rax, -240(%rbp)
Ltmp866:
LBB118_11:
	.loc	41 0 5 is_stmt 0
	movq	-240(%rbp), %rdi
	callq	__Unwind_Resume
Lfunc_end118:
	.cfi_endproc
	.section	__TEXT,__gcc_except_tab
	.p2align	2
GCC_except_table118:
Lexception10:
	.byte	255
	.byte	255
	.byte	1
	.uleb128 Lcst_end10-Lcst_begin10
Lcst_begin10:
	.uleb128 Lfunc_begin118-Lfunc_begin118
	.uleb128 Ltmp848-Lfunc_begin118
	.byte	0
	.byte	0
	.uleb128 Ltmp848-Lfunc_begin118
	.uleb128 Ltmp849-Ltmp848
	.uleb128 Ltmp850-Lfunc_begin118
	.byte	0
	.uleb128 Ltmp851-Lfunc_begin118
	.uleb128 Ltmp852-Ltmp851
	.uleb128 Ltmp853-Lfunc_begin118
	.byte	0
	.uleb128 Ltmp854-Lfunc_begin118
	.uleb128 Ltmp855-Ltmp854
	.uleb128 Ltmp856-Lfunc_begin118
	.byte	0
	.uleb128 Ltmp857-Lfunc_begin118
	.uleb128 Ltmp858-Ltmp857
	.uleb128 Ltmp859-Lfunc_begin118
	.byte	0
	.uleb128 Ltmp858-Lfunc_begin118
	.uleb128 Lfunc_end118-Ltmp858
	.byte	0
	.byte	0
Lcst_end10:
	.p2align	2

	.section	__TEXT,__text,regular,pure_instructions
	.globl	__ZN67_$LT$flume..async..AsyncSignal$u20$as$u20$flume..signal..Signal$GT$4fire17h7186c498cf8e4219E
	.p2align	4, 0x90
__ZN67_$LT$flume..async..AsyncSignal$u20$as$u20$flume..signal..Signal$GT$4fire17h7186c498cf8e4219E:
Lfunc_begin119:
	.loc	41 32 0 is_stmt 1
	.cfi_startproc
	.cfi_personality 155, _rust_eh_personality
	.cfi_lsda 16, Lexception11
	pushq	%rbp
	.cfi_def_cfa_offset 16
	.cfi_offset %rbp, -16
	movq	%rsp, %rbp
	.cfi_def_cfa_register %rbp
	subq	$144, %rsp
	movq	%rdi, -136(%rbp)
	movq	%rdi, -104(%rbp)
Ltmp875:
	.loc	41 33 9 prologue_end
	addq	$24, %rdi
	.loc	41 33 32 is_stmt 0
	movb	$4, -121(%rbp)
	.loc	41 33 9
	movl	$1, %esi
	movzbl	-121(%rbp), %edx
	callq	__ZN4core4sync6atomic10AtomicBool5store17h5a00f92a0913708fE
	movq	-136(%rbp), %rdi
	movq	%rdi, -64(%rbp)
	movq	%rdi, -32(%rbp)
LBB119_1:
	.loc	41 0 9
	movq	-136(%rbp), %rdi
Ltmp876:
	.loc	36 169 60 is_stmt 1
	movb	$2, -34(%rbp)
	.loc	36 169 79 is_stmt 0
	movb	$0, -33(%rbp)
	.loc	36 169 15
	movzbl	-33(%rbp), %r8d
	movzbl	-34(%rbp), %ecx
	xorl	%esi, %esi
	movl	$1, %edx
	callq	__ZN4core4sync6atomic10AtomicBool21compare_exchange_weak17h53c5525738b3d37fE
	movb	%dl, -39(%rbp)
	movb	%al, -40(%rbp)
	leaq	-40(%rbp), %rdi
	callq	__ZN4core6result19Result$LT$T$C$E$GT$6is_err17hfc15432e9a6d02baE
	testb	$1, %al
	jne	LBB119_2
	jmp	LBB119_4
LBB119_2:
	.loc	36 0 15
	movq	-136(%rbp), %rdi
	movq	%rdi, -8(%rbp)
Ltmp877:
	.loc	36 192 24 is_stmt 1
	movb	$0, -9(%rbp)
	.loc	36 192 9 is_stmt 0
	movzbl	-9(%rbp), %esi
	callq	__ZN4core4sync6atomic10AtomicBool4load17hb7966b53ae1032fcE
Ltmp878:
	.loc	36 171 19 is_stmt 1
	testb	$1, %al
	jne	LBB119_3
	jmp	LBB119_1
LBB119_3:
Ltmp879:
	.loc	39 25 5
	pause
Ltmp880:
	.loc	36 172 17
	jmp	LBB119_2
LBB119_4:
	.loc	36 0 17 is_stmt 0
	movq	-136(%rbp), %rcx
	.loc	36 178 34 is_stmt 1
	movq	%rcx, %rax
	addq	$8, %rax
	movq	%rax, -24(%rbp)
	.loc	36 176 9
	movq	%rcx, -56(%rbp)
	movq	%rax, -48(%rbp)
	.loc	36 180 6
	movq	-56(%rbp), %rcx
	movq	-48(%rbp), %rax
Ltmp881:
	.loc	35 169 9
	movq	%rcx, -80(%rbp)
	movq	%rax, -72(%rbp)
	.loc	35 172 6
	movq	-80(%rbp), %rax
	movq	-72(%rbp), %rcx
Ltmp882:
	.loc	41 34 9
	movq	%rcx, -112(%rbp)
	movq	%rax, -120(%rbp)
Ltmp867:
	leaq	-120(%rbp), %rdi
	callq	__ZN76_$LT$spin..mutex..MutexGuard$LT$T$GT$$u20$as$u20$core..ops..deref..Deref$GT$5deref17h54da0d45908d67b0E
Ltmp868:
	movq	%rax, -144(%rbp)
	jmp	LBB119_7
LBB119_5:
Ltmp872:
	.loc	41 0 9 is_stmt 0
	leaq	-120(%rbp), %rdi
	.loc	41 34 40
	callq	__ZN4core3ptr75drop_in_place$LT$spin..mutex..MutexGuard$LT$core..task..wake..Waker$GT$$GT$17h5ecc82204e6b4f53E
Ltmp873:
	jmp	LBB119_10
LBB119_6:
Ltmp871:
	.loc	41 0 40
	movq	%rax, %rcx
	movl	%edx, %eax
	movq	%rcx, -96(%rbp)
	movl	%eax, -88(%rbp)
	jmp	LBB119_5
LBB119_7:
Ltmp869:
	movq	-144(%rbp), %rdi
	.loc	41 34 9
	callq	__ZN4core4task4wake5Waker11wake_by_ref17h9c70a957a94e6b13E
Ltmp870:
	jmp	LBB119_8
LBB119_8:
	.loc	41 34 40
	leaq	-120(%rbp), %rdi
	callq	__ZN4core3ptr75drop_in_place$LT$spin..mutex..MutexGuard$LT$core..task..wake..Waker$GT$$GT$17h5ecc82204e6b4f53E
	movq	-136(%rbp), %rax
	.loc	41 35 9 is_stmt 1
	movb	25(%rax), %al
	.loc	41 36 6
	andb	$1, %al
	movzbl	%al, %eax
	addq	$144, %rsp
	popq	%rbp
	retq
LBB119_9:
Ltmp874:
	.loc	41 32 5
	callq	__ZN4core9panicking19panic_cannot_unwind17h1fbca7e1d7f56ae1E
LBB119_10:
	movq	-96(%rbp), %rdi
	callq	__Unwind_Resume
Ltmp883:
Lfunc_end119:
	.cfi_endproc
	.section	__TEXT,__gcc_except_tab
	.p2align	2
GCC_except_table119:
Lexception11:
	.byte	255
	.byte	255
	.byte	1
	.uleb128 Lcst_end11-Lcst_begin11
Lcst_begin11:
	.uleb128 Lfunc_begin119-Lfunc_begin119
	.uleb128 Ltmp867-Lfunc_begin119
	.byte	0
	.byte	0
	.uleb128 Ltmp867-Lfunc_begin119
	.uleb128 Ltmp868-Ltmp867
	.uleb128 Ltmp871-Lfunc_begin119
	.byte	0
	.uleb128 Ltmp872-Lfunc_begin119
	.uleb128 Ltmp873-Ltmp872
	.uleb128 Ltmp874-Lfunc_begin119
	.byte	0
	.uleb128 Ltmp869-Lfunc_begin119
	.uleb128 Ltmp870-Ltmp869
	.uleb128 Ltmp871-Lfunc_begin119
	.byte	0
	.uleb128 Ltmp870-Lfunc_begin119
	.uleb128 Lfunc_end119-Ltmp870
	.byte	0
	.byte	0
Lcst_end11:
	.p2align	2

	.section	__TEXT,__text,regular,pure_instructions
	.globl	__ZN67_$LT$flume..async..AsyncSignal$u20$as$u20$flume..signal..Signal$GT$6as_any17h58d63bb6f66bae37E
	.p2align	4, 0x90
__ZN67_$LT$flume..async..AsyncSignal$u20$as$u20$flume..signal..Signal$GT$6as_any17h58d63bb6f66bae37E:
Lfunc_begin120:
	.loc	41 38 0
	.cfi_startproc
	pushq	%rbp
	.cfi_def_cfa_offset 16
	.cfi_offset %rbp, -16
	movq	%rsp, %rbp
	.cfi_def_cfa_register %rbp
	pushq	%rax
	movq	%rdi, %rax
	movq	%rax, -8(%rbp)
Ltmp884:
	.loc	41 38 54 prologue_end
	leaq	l___unnamed_2(%rip), %rdx
	addq	$8, %rsp
	popq	%rbp
	retq
Ltmp885:
Lfunc_end120:
	.cfi_endproc

	.globl	__ZN67_$LT$flume..async..AsyncSignal$u20$as$u20$flume..signal..Signal$GT$6as_ptr17h96a4592cde8771e1E
	.p2align	4, 0x90
__ZN67_$LT$flume..async..AsyncSignal$u20$as$u20$flume..signal..Signal$GT$6as_ptr17h96a4592cde8771e1E:
Lfunc_begin121:
	.loc	41 39 0
	.cfi_startproc
	pushq	%rbp
	.cfi_def_cfa_offset 16
	.cfi_offset %rbp, -16
	movq	%rsp, %rbp
	.cfi_def_cfa_register %rbp
	pushq	%rax
	movq	%rdi, %rax
	movq	%rax, -8(%rbp)
Ltmp886:
	.loc	41 39 68 prologue_end
	addq	$8, %rsp
	popq	%rbp
	retq
Ltmp887:
Lfunc_end121:
	.cfi_endproc

	.globl	__ZN68_$LT$flume..signal..SyncSignal$u20$as$u20$core..default..Default$GT$7default17hdb10c24e03f6fe9cE
	.p2align	4, 0x90
__ZN68_$LT$flume..signal..SyncSignal$u20$as$u20$core..default..Default$GT$7default17hdb10c24e03f6fe9cE:
Lfunc_begin122:
	.file	42 "/Users/natalie/.cargo/registry/src/github.com-1ecc6299db9ec823/flume-0.10.14" "src/signal.rs"
	.loc	42 16 0
	.cfi_startproc
	pushq	%rbp
	.cfi_def_cfa_offset 16
	.cfi_offset %rbp, -16
	movq	%rsp, %rbp
	.cfi_def_cfa_register %rbp
	subq	$16, %rsp
Ltmp888:
	.loc	42 17 14 prologue_end
	callq	__ZN3std6thread7current17h98b7ef0e4909251eE
	.loc	42 17 9 is_stmt 0
	movq	%rax, -8(%rbp)
	.loc	42 18 6 is_stmt 1
	movq	-8(%rbp), %rax
	addq	$16, %rsp
	popq	%rbp
	retq
Ltmp889:
Lfunc_end122:
	.cfi_endproc

	.globl	__ZN67_$LT$flume..signal..SyncSignal$u20$as$u20$flume..signal..Signal$GT$4fire17hcaa9a5e98cd43aeeE
	.p2align	4, 0x90
__ZN67_$LT$flume..signal..SyncSignal$u20$as$u20$flume..signal..Signal$GT$4fire17hcaa9a5e98cd43aeeE:
Lfunc_begin123:
	.loc	42 22 0
	.cfi_startproc
	pushq	%rbp
	.cfi_def_cfa_offset 16
	.cfi_offset %rbp, -16
	movq	%rsp, %rbp
	.cfi_def_cfa_register %rbp
	subq	$16, %rsp
	movq	%rdi, -8(%rbp)
Ltmp890:
	.loc	42 23 9 prologue_end
	callq	__ZN3std6thread6Thread6unpark17hbbd7c10a5f4fbec7E
	.loc	42 25 6
	xorl	%eax, %eax
	andb	$1, %al
	movzbl	%al, %eax
	addq	$16, %rsp
	popq	%rbp
	retq
Ltmp891:
Lfunc_end123:
	.cfi_endproc

	.globl	__ZN67_$LT$flume..signal..SyncSignal$u20$as$u20$flume..signal..Signal$GT$6as_any17hbcb9227c3c343b5fE
	.p2align	4, 0x90
__ZN67_$LT$flume..signal..SyncSignal$u20$as$u20$flume..signal..Signal$GT$6as_any17hbcb9227c3c343b5fE:
Lfunc_begin124:
	.loc	42 26 0
	.cfi_startproc
	pushq	%rbp
	.cfi_def_cfa_offset 16
	.cfi_offset %rbp, -16
	movq	%rsp, %rbp
	.cfi_def_cfa_register %rbp
	pushq	%rax
	movq	%rdi, %rax
	movq	%rax, -8(%rbp)
Ltmp892:
	.loc	42 26 54 prologue_end
	leaq	l___unnamed_3(%rip), %rdx
	addq	$8, %rsp
	popq	%rbp
	retq
Ltmp893:
Lfunc_end124:
	.cfi_endproc

	.globl	__ZN67_$LT$flume..signal..SyncSignal$u20$as$u20$flume..signal..Signal$GT$6as_ptr17hf0d31efe2769ce5aE
	.p2align	4, 0x90
__ZN67_$LT$flume..signal..SyncSignal$u20$as$u20$flume..signal..Signal$GT$6as_ptr17hf0d31efe2769ce5aE:
Lfunc_begin125:
	.loc	42 27 0
	.cfi_startproc
	pushq	%rbp
	.cfi_def_cfa_offset 16
	.cfi_offset %rbp, -16
	movq	%rsp, %rbp
	.cfi_def_cfa_register %rbp
	pushq	%rax
	movq	%rdi, %rax
	movq	%rax, -8(%rbp)
Ltmp894:
	.loc	42 27 68 prologue_end
	addq	$8, %rsp
	popq	%rbp
	retq
Ltmp895:
Lfunc_end125:
	.cfi_endproc

	.globl	__ZN5flume6signal10SyncSignal4wait17hb3c806aae2f454dbE
	.p2align	4, 0x90
__ZN5flume6signal10SyncSignal4wait17hb3c806aae2f454dbE:
Lfunc_begin126:
	.loc	42 31 0
	.cfi_startproc
	pushq	%rbp
	.cfi_def_cfa_offset 16
	.cfi_offset %rbp, -16
	movq	%rsp, %rbp
	.cfi_def_cfa_register %rbp
	subq	$16, %rsp
	movq	%rdi, -8(%rbp)
Ltmp896:
	.loc	42 31 26 prologue_end
	callq	__ZN3std6thread4park17h06945b24b7e50112E
	.loc	42 31 43 is_stmt 0
	addq	$16, %rsp
	popq	%rbp
	retq
Ltmp897:
Lfunc_end126:
	.cfi_endproc

	.globl	__ZN5flume6signal10SyncSignal12wait_timeout17h695f2ec084f0785aE
	.p2align	4, 0x90
__ZN5flume6signal10SyncSignal12wait_timeout17h695f2ec084f0785aE:
Lfunc_begin127:
	.loc	42 32 0 is_stmt 1
	.cfi_startproc
	pushq	%rbp
	.cfi_def_cfa_offset 16
	.cfi_offset %rbp, -16
	movq	%rsp, %rbp
	.cfi_def_cfa_register %rbp
	subq	$48, %rsp
	movl	%edx, -36(%rbp)
	movq	%rsi, %rax
	movl	-36(%rbp), %esi
	movq	%rax, -32(%rbp)
	movq	%rdi, %rax
	movq	-32(%rbp), %rdi
	movq	%rax, -24(%rbp)
	movq	%rdi, -16(%rbp)
	movl	%esi, -8(%rbp)
Ltmp898:
	.loc	42 32 49 prologue_end
	callq	__ZN3std6thread12park_timeout17h8a335830497dfac5E
	.loc	42 32 77 is_stmt 0
	addq	$48, %rsp
	popq	%rbp
	retq
Ltmp899:
Lfunc_end127:
	.cfi_endproc

	.globl	__ZN55_$LT$flume..RecvError$u20$as$u20$core..fmt..Display$GT$3fmt17hc2167152c61fad73E
	.p2align	4, 0x90
__ZN55_$LT$flume..RecvError$u20$as$u20$core..fmt..Display$GT$3fmt17hc2167152c61fad73E:
Lfunc_begin128:
	.loc	32 183 0 is_stmt 1
	.cfi_startproc
	pushq	%rbp
	.cfi_def_cfa_offset 16
	.cfi_offset %rbp, -16
	movq	%rsp, %rbp
	.cfi_def_cfa_register %rbp
	subq	$16, %rsp
	movq	%rsi, %rdx
	movq	%rdi, -16(%rbp)
	movq	%rdx, -8(%rbp)
Ltmp900:
	.loc	32 185 40 prologue_end
	leaq	l___unnamed_23(%rip), %rdi
	movl	$29, %esi
	callq	__ZN42_$LT$str$u20$as$u20$core..fmt..Display$GT$3fmt17hd1cabce055ea2fbdE
	.loc	32 187 6
	andb	$1, %al
	movzbl	%al, %eax
	addq	$16, %rsp
	popq	%rbp
	retq
Ltmp901:
Lfunc_end128:
	.cfi_endproc

	.globl	__ZN58_$LT$flume..TryRecvError$u20$as$u20$core..fmt..Display$GT$3fmt17h5c68d89a0e857076E
	.p2align	4, 0x90
__ZN58_$LT$flume..TryRecvError$u20$as$u20$core..fmt..Display$GT$3fmt17h5c68d89a0e857076E:
Lfunc_begin129:
	.loc	32 204 0
	.cfi_startproc
	pushq	%rbp
	.cfi_def_cfa_offset 16
	.cfi_offset %rbp, -16
	movq	%rsp, %rbp
	.cfi_def_cfa_register %rbp
	subq	$32, %rsp
	movq	%rsi, -32(%rbp)
	movq	%rdi, -16(%rbp)
	movq	%rsi, -8(%rbp)
Ltmp902:
	.loc	32 205 15 prologue_end
	movb	(%rdi), %al
	andb	$1, %al
	movzbl	%al, %eax
	.loc	32 205 9 is_stmt 0
	cmpq	$0, %rax
	jne	LBB129_2
	.loc	32 0 9
	movq	-32(%rbp), %rdx
	.loc	32 206 36 is_stmt 1
	leaq	l___unnamed_24(%rip), %rdi
	movl	$29, %esi
	callq	__ZN42_$LT$str$u20$as$u20$core..fmt..Display$GT$3fmt17hd1cabce055ea2fbdE
	andb	$1, %al
	movb	%al, -17(%rbp)
	jmp	LBB129_3
LBB129_2:
	.loc	32 0 36 is_stmt 0
	movq	-32(%rbp), %rdx
	.loc	32 207 43 is_stmt 1
	leaq	l___unnamed_25(%rip), %rdi
	movl	$27, %esi
	callq	__ZN42_$LT$str$u20$as$u20$core..fmt..Display$GT$3fmt17hd1cabce055ea2fbdE
	andb	$1, %al
	movb	%al, -17(%rbp)
LBB129_3:
	.loc	32 209 6
	movb	-17(%rbp), %al
	andb	$1, %al
	movzbl	%al, %eax
	addq	$32, %rsp
	popq	%rbp
	retq
Ltmp903:
Lfunc_end129:
	.cfi_endproc

	.globl	__ZN83_$LT$flume..TryRecvError$u20$as$u20$core..convert..From$LT$flume..RecvError$GT$$GT$4from17h9b802ac1d2886430E
	.p2align	4, 0x90
__ZN83_$LT$flume..TryRecvError$u20$as$u20$core..convert..From$LT$flume..RecvError$GT$$GT$4from17h9b802ac1d2886430E:
Lfunc_begin130:
	.loc	32 215 0
	.cfi_startproc
	pushq	%rbp
	.cfi_def_cfa_offset 16
	.cfi_offset %rbp, -16
	movq	%rsp, %rbp
	.cfi_def_cfa_register %rbp
	subq	$16, %rsp
Ltmp904:
	.loc	32 217 40 prologue_end
	movb	$1, -9(%rbp)
	.loc	32 219 6
	movb	-9(%rbp), %al
	andb	$1, %al
	movzbl	%al, %eax
	addq	$16, %rsp
	popq	%rbp
	retq
Ltmp905:
Lfunc_end130:
	.cfi_endproc

	.globl	__ZN62_$LT$flume..RecvTimeoutError$u20$as$u20$core..fmt..Display$GT$3fmt17hb688d1363cdea63aE
	.p2align	4, 0x90
__ZN62_$LT$flume..RecvTimeoutError$u20$as$u20$core..fmt..Display$GT$3fmt17hb688d1363cdea63aE:
Lfunc_begin131:
	.loc	32 234 0
	.cfi_startproc
	pushq	%rbp
	.cfi_def_cfa_offset 16
	.cfi_offset %rbp, -16
	movq	%rsp, %rbp
	.cfi_def_cfa_register %rbp
	subq	$32, %rsp
	movq	%rsi, -32(%rbp)
	movq	%rdi, -16(%rbp)
	movq	%rsi, -8(%rbp)
Ltmp906:
	.loc	32 235 15 prologue_end
	movb	(%rdi), %al
	andb	$1, %al
	movzbl	%al, %eax
	.loc	32 235 9 is_stmt 0
	cmpq	$0, %rax
	jne	LBB131_2
	.loc	32 0 9
	movq	-32(%rbp), %rdx
	.loc	32 236 42 is_stmt 1
	leaq	l___unnamed_26(%rip), %rdi
	movl	$30, %esi
	callq	__ZN42_$LT$str$u20$as$u20$core..fmt..Display$GT$3fmt17hd1cabce055ea2fbdE
	andb	$1, %al
	movb	%al, -17(%rbp)
	jmp	LBB131_3
LBB131_2:
	.loc	32 0 42 is_stmt 0
	movq	-32(%rbp), %rdx
	.loc	32 237 47 is_stmt 1
	leaq	l___unnamed_25(%rip), %rdi
	movl	$27, %esi
	callq	__ZN42_$LT$str$u20$as$u20$core..fmt..Display$GT$3fmt17hd1cabce055ea2fbdE
	andb	$1, %al
	movb	%al, -17(%rbp)
LBB131_3:
	.loc	32 239 6
	movb	-17(%rbp), %al
	andb	$1, %al
	movzbl	%al, %eax
	addq	$32, %rsp
	popq	%rbp
	retq
Ltmp907:
Lfunc_end131:
	.cfi_endproc

	.globl	__ZN87_$LT$flume..RecvTimeoutError$u20$as$u20$core..convert..From$LT$flume..RecvError$GT$$GT$4from17h9a1add123357ea11E
	.p2align	4, 0x90
__ZN87_$LT$flume..RecvTimeoutError$u20$as$u20$core..convert..From$LT$flume..RecvError$GT$$GT$4from17h9a1add123357ea11E:
Lfunc_begin132:
	.loc	32 245 0
	.cfi_startproc
	pushq	%rbp
	.cfi_def_cfa_offset 16
	.cfi_offset %rbp, -16
	movq	%rsp, %rbp
	.cfi_def_cfa_register %rbp
	subq	$16, %rsp
Ltmp908:
	.loc	32 247 40 prologue_end
	movb	$1, -9(%rbp)
	.loc	32 249 6
	movb	-9(%rbp), %al
	andb	$1, %al
	movzbl	%al, %eax
	addq	$16, %rsp
	popq	%rbp
	retq
Ltmp909:
Lfunc_end132:
	.cfi_endproc

	.globl	__ZN63_$LT$flume..select..SelectError$u20$as$u20$core..fmt..Debug$GT$3fmt17hc3a3beb563600442E
	.p2align	4, 0x90
__ZN63_$LT$flume..select..SelectError$u20$as$u20$core..fmt..Debug$GT$3fmt17hc3a3beb563600442E:
Lfunc_begin133:
	.loc	38 42 0
	.cfi_startproc
	pushq	%rbp
	.cfi_def_cfa_offset 16
	.cfi_offset %rbp, -16
	movq	%rsp, %rbp
	.cfi_def_cfa_register %rbp
	subq	$32, %rsp
	movq	%rsi, -24(%rbp)
	movq	%rdi, %rax
	movq	-24(%rbp), %rdi
	movq	%rax, -16(%rbp)
	movq	%rdi, -8(%rbp)
Ltmp910:
	.loc	38 42 23 prologue_end
	leaq	l___unnamed_27(%rip), %rsi
	movl	$7, %edx
	callq	__ZN4core3fmt9Formatter9write_str17hb029d9999327a35fE
	.loc	38 42 28 is_stmt 0
	andb	$1, %al
	movzbl	%al, %eax
	addq	$32, %rsp
	popq	%rbp
	retq
Ltmp911:
Lfunc_end133:
	.cfi_endproc

	.globl	__ZN53_$LT$flume..RecvError$u20$as$u20$core..fmt..Debug$GT$3fmt17h9f428d1247117dbbE
	.p2align	4, 0x90
__ZN53_$LT$flume..RecvError$u20$as$u20$core..fmt..Debug$GT$3fmt17h9f428d1247117dbbE:
Lfunc_begin134:
	.loc	32 176 0 is_stmt 1
	.cfi_startproc
	pushq	%rbp
	.cfi_def_cfa_offset 16
	.cfi_offset %rbp, -16
	movq	%rsp, %rbp
	.cfi_def_cfa_register %rbp
	subq	$32, %rsp
	movq	%rsi, -24(%rbp)
	movq	%rdi, %rax
	movq	-24(%rbp), %rdi
	movq	%rax, -16(%rbp)
	movq	%rdi, -8(%rbp)
Ltmp912:
	.loc	32 176 23 prologue_end
	leaq	l___unnamed_28(%rip), %rsi
	movl	$12, %edx
	callq	__ZN4core3fmt9Formatter9write_str17hb029d9999327a35fE
	.loc	32 176 28 is_stmt 0
	andb	$1, %al
	movzbl	%al, %eax
	addq	$32, %rsp
	popq	%rbp
	retq
Ltmp913:
Lfunc_end134:
	.cfi_endproc

	.globl	__ZN56_$LT$flume..TryRecvError$u20$as$u20$core..fmt..Debug$GT$3fmt17h449eeb57ec0b40d6E
	.p2align	4, 0x90
__ZN56_$LT$flume..TryRecvError$u20$as$u20$core..fmt..Debug$GT$3fmt17h449eeb57ec0b40d6E:
Lfunc_begin135:
	.loc	32 195 0 is_stmt 1
	.cfi_startproc
	pushq	%rbp
	.cfi_def_cfa_offset 16
	.cfi_offset %rbp, -16
	movq	%rsp, %rbp
	.cfi_def_cfa_register %rbp
	subq	$48, %rsp
	movq	%rsi, -40(%rbp)
	movq	%rdi, -16(%rbp)
	movq	%rsi, -8(%rbp)
Ltmp914:
	.loc	32 195 23 prologue_end
	movb	(%rdi), %al
	andb	$1, %al
	movzbl	%al, %eax
	cmpq	$0, %rax
	jne	LBB135_2
	leaq	l___unnamed_29(%rip), %rax
	movq	%rax, -32(%rbp)
	movq	$5, -24(%rbp)
	.loc	32 195 27 is_stmt 0
	jmp	LBB135_3
LBB135_2:
	.loc	32 195 23
	leaq	l___unnamed_28(%rip), %rax
	movq	%rax, -32(%rbp)
	movq	$12, -24(%rbp)
LBB135_3:
	.loc	32 0 23
	movq	-40(%rbp), %rdi
	.loc	32 195 23
	movq	-32(%rbp), %rsi
	movq	-24(%rbp), %rdx
	callq	__ZN4core3fmt9Formatter9write_str17hb029d9999327a35fE
	.loc	32 195 28
	andb	$1, %al
	movzbl	%al, %eax
	addq	$48, %rsp
	popq	%rbp
	retq
Ltmp915:
Lfunc_end135:
	.cfi_endproc

	.globl	__ZN60_$LT$flume..RecvTimeoutError$u20$as$u20$core..fmt..Debug$GT$3fmt17h649773999ca42c8cE
	.p2align	4, 0x90
__ZN60_$LT$flume..RecvTimeoutError$u20$as$u20$core..fmt..Debug$GT$3fmt17h649773999ca42c8cE:
Lfunc_begin136:
	.loc	32 225 0 is_stmt 1
	.cfi_startproc
	pushq	%rbp
	.cfi_def_cfa_offset 16
	.cfi_offset %rbp, -16
	movq	%rsp, %rbp
	.cfi_def_cfa_register %rbp
	subq	$48, %rsp
	movq	%rsi, -40(%rbp)
	movq	%rdi, -16(%rbp)
	movq	%rsi, -8(%rbp)
Ltmp916:
	.loc	32 225 23 prologue_end
	movb	(%rdi), %al
	andb	$1, %al
	movzbl	%al, %eax
	cmpq	$0, %rax
	jne	LBB136_2
	leaq	l___unnamed_27(%rip), %rax
	movq	%rax, -32(%rbp)
	movq	$7, -24(%rbp)
	.loc	32 225 27 is_stmt 0
	jmp	LBB136_3
LBB136_2:
	.loc	32 225 23
	leaq	l___unnamed_28(%rip), %rax
	movq	%rax, -32(%rbp)
	movq	$12, -24(%rbp)
LBB136_3:
	.loc	32 0 23
	movq	-40(%rbp), %rdi
	.loc	32 225 23
	movq	-32(%rbp), %rsi
	movq	-24(%rbp), %rdx
	callq	__ZN4core3fmt9Formatter9write_str17hb029d9999327a35fE
	.loc	32 225 28
	andb	$1, %al
	movzbl	%al, %eax
	addq	$48, %rsp
	popq	%rbp
	retq
Ltmp917:
Lfunc_end136:
	.cfi_endproc

	.section	__TEXT,__const
l___unnamed_30:
	.ascii	"invalid args"

	.section	__DATA,__const
	.p2align	3
l___unnamed_4:
	.quad	l___unnamed_30
	.asciz	"\f\000\000\000\000\000\000"

	.section	__TEXT,__const
	.p2align	3
l___unnamed_5:
	.byte	0

l___unnamed_31:
	.ascii	"/rustc/2c8cc343237b8f7d5a3c3703e3a87f2eb2c54a74/library/core/src/fmt/mod.rs"

	.section	__DATA,__const
	.p2align	3
l___unnamed_6:
	.quad	l___unnamed_31
	.asciz	"K\000\000\000\000\000\000\000\221\001\000\000\r\000\000"

	.section	__TEXT,__const
l___unnamed_32:
	.ascii	"there is no such thing as an acquire-release load"

	.section	__DATA,__const
	.p2align	3
l___unnamed_9:
	.quad	l___unnamed_32
	.asciz	"1\000\000\000\000\000\000"

	.section	__TEXT,__const
l___unnamed_33:
	.ascii	"/rustc/2c8cc343237b8f7d5a3c3703e3a87f2eb2c54a74/library/core/src/sync/atomic.rs"

	.section	__DATA,__const
	.p2align	3
l___unnamed_10:
	.quad	l___unnamed_33
	.asciz	"O\000\000\000\000\000\000\000\323\013\000\000\027\000\000"

	.section	__TEXT,__const
l___unnamed_34:
	.ascii	"there is no such thing as a release load"

	.section	__DATA,__const
	.p2align	3
l___unnamed_7:
	.quad	l___unnamed_34
	.asciz	"(\000\000\000\000\000\000"

	.p2align	3
l___unnamed_8:
	.quad	l___unnamed_33
	.asciz	"O\000\000\000\000\000\000\000\322\013\000\000\030\000\000"

	.section	__TEXT,__const
l___unnamed_35:
	.ascii	"there is no such thing as an acquire-release failure ordering"

	.section	__DATA,__const
	.p2align	3
l___unnamed_13:
	.quad	l___unnamed_35
	.asciz	"=\000\000\000\000\000\000"

	.p2align	3
l___unnamed_14:
	.quad	l___unnamed_33
	.asciz	"O\000\000\000\000\000\000\000I\f\000\000\034\000\000"

	.section	__TEXT,__const
l___unnamed_36:
	.ascii	"there is no such thing as a release failure ordering"

	.section	__DATA,__const
	.p2align	3
l___unnamed_11:
	.quad	l___unnamed_36
	.asciz	"4\000\000\000\000\000\000"

	.p2align	3
l___unnamed_12:
	.quad	l___unnamed_33
	.asciz	"O\000\000\000\000\000\000\000J\f\000\000\035\000\000"

	.section	__TEXT,__const
l___unnamed_37:
	.ascii	"there is no such thing as a relaxed fence"

	.section	__DATA,__const
	.p2align	3
l___unnamed_15:
	.quad	l___unnamed_37
	.asciz	")\000\000\000\000\000\000"

	.p2align	3
l___unnamed_16:
	.quad	l___unnamed_33
	.asciz	"O\000\000\000\000\000\000\000*\r\000\000\030\000\000"

	.section	__TEXT,__const
l___unnamed_38:
	.ascii	"/rustc/2c8cc343237b8f7d5a3c3703e3a87f2eb2c54a74/library/core/src/alloc/layout.rs"

	.section	__DATA,__const
	.p2align	3
l___unnamed_17:
	.quad	l___unnamed_38
	.asciz	"P\000\000\000\000\000\000\000\304\001\000\000)\000\000"

	.section	__TEXT,__const
	.p2align	4
_str.0:
	.ascii	"attempt to divide by zero"

l___unnamed_39:
	.ascii	"/rustc/2c8cc343237b8f7d5a3c3703e3a87f2eb2c54a74/library/core/src/slice/index.rs"

	.section	__DATA,__const
	.p2align	3
l___unnamed_18:
	.quad	l___unnamed_39
	.asciz	"O\000\000\000\000\000\000\000\277\002\000\0004\000\000"

	.p2align	3
l___unnamed_19:
	.quad	l___unnamed_39
	.asciz	"O\000\000\000\000\000\000\000\307\002\000\0002\000\000"

	.section	__TEXT,__const
l___unnamed_40:
	.ascii	"/rustc/2c8cc343237b8f7d5a3c3703e3a87f2eb2c54a74/library/alloc/src/collections/vec_deque/mod.rs"

	.section	__DATA,__const
	.p2align	3
l___unnamed_20:
	.quad	l___unnamed_40
	.asciz	"^\000\000\000\000\000\000\000\330\004\000\000$\000\000"

	.section	__TEXT,__const
l___unnamed_41:
	.ascii	"/rustc/2c8cc343237b8f7d5a3c3703e3a87f2eb2c54a74/library/alloc/src/raw_vec.rs"

	.section	__DATA,__const
	.p2align	3
l___unnamed_21:
	.quad	l___unnamed_41
	.asciz	"L\000\000\000\000\000\000\000\367\000\000\000;\000\000"

	.p2align	3
l___unnamed_1:
	.quad	__ZN4core3ptr48drop_in_place$LT$flume..select..SelectSignal$GT$17h4d264cd98a4ab18aE
	.asciz	" \000\000\000\000\000\000\000\b\000\000\000\000\000\000"
	.quad	__ZN36_$LT$T$u20$as$u20$core..any..Any$GT$7type_id17had31f02b0d63e930E

	.section	__TEXT,__literal16,16byte_literals
L___unnamed_22:
	.ascii	"timeout occurred"

	.section	__DATA,__const
	.p2align	3
l___unnamed_2:
	.quad	__ZN4core3ptr46drop_in_place$LT$flume..async..AsyncSignal$GT$17h091adcfcdbe805e2E
	.asciz	" \000\000\000\000\000\000\000\b\000\000\000\000\000\000"
	.quad	__ZN36_$LT$T$u20$as$u20$core..any..Any$GT$7type_id17h2b97a15ab126bf95E

	.p2align	3
l___unnamed_3:
	.quad	__ZN4core3ptr46drop_in_place$LT$flume..signal..SyncSignal$GT$17h9d3f99cea7a37b99E
	.asciz	"\b\000\000\000\000\000\000\000\b\000\000\000\000\000\000"
	.quad	__ZN36_$LT$T$u20$as$u20$core..any..Any$GT$7type_id17h1a23ca549b3c7bd8E

	.section	__TEXT,__const
l___unnamed_23:
	.ascii	"receiving on a closed channel"

l___unnamed_25:
	.ascii	"channel is empty and closed"

l___unnamed_24:
	.ascii	"receiving on an empty channel"

l___unnamed_26:
	.ascii	"timed out waiting on a channel"

l___unnamed_27:
	.ascii	"Timeout"

l___unnamed_28:
	.ascii	"Disconnected"

l___unnamed_29:
	.ascii	"Empty"

	.section	__DATA,__const
Lsec_end0:
	.section	__TEXT,__text,regular,pure_instructions
Lsec_end1: