	.section	__TEXT,__text,regular,pure_instructions
	.macosx_version_min 10, 7
	.globl	__ZN100_$LT$core..slice..iter..GenericSplitN$LT$I$GT$$u20$as$u20$core..iter..traits..iterator..Iterator$GT$4next17h7f69e33c9d554041E
	.p2align	4, 0x90
__ZN100_$LT$core..slice..iter..GenericSplitN$LT$I$GT$$u20$as$u20$core..iter..traits..iterator..Iterator$GT$4next17h7f69e33c9d554041E:
Lfunc_begin0:
	.file	1 "/rustc/2c8cc343237b8f7d5a3c3703e3a87f2eb2c54a74/library/core/src/slice" "iter.rs"
	.loc	1 1085 0
	.cfi_startproc
	pushq	%rbp
	.cfi_def_cfa_offset 16
	.cfi_offset %rbp, -16
	movq	%rsp, %rbp
	.cfi_def_cfa_register %rbp
	subq	$48, %rsp
	movq	%rdi, -40(%rbp)
	movq	%rdi, -8(%rbp)
Ltmp0:
	.loc	1 1086 9 prologue_end
	movq	(%rdi), %rax
	movq	%rax, -32(%rbp)
	testq	%rax, %rax
	je	LBB0_2
	jmp	LBB0_5
LBB0_5:
	.loc	1 0 9 is_stmt 0
	movq	-32(%rbp), %rax
	.loc	1 1086 9
	subq	$1, %rax
	je	LBB0_3
	jmp	LBB0_1
LBB0_1:
	.loc	1 0 9
	movq	-40(%rbp), %rdi
	.loc	1 1093 17 is_stmt 1
	movq	(%rdi), %rax
	decq	%rax
	movq	%rax, (%rdi)
	.loc	1 1094 17
	addq	$8, %rdi
	callq	__ZN96_$LT$core..slice..iter..Split$LT$T$C$P$GT$$u20$as$u20$core..iter..traits..iterator..Iterator$GT$4next17h5479c7b44eaa60a0E
	movq	%rdx, -16(%rbp)
	movq	%rax, -24(%rbp)
	.loc	1 1094 32 is_stmt 0
	jmp	LBB0_4
LBB0_2:
	.loc	1 1087 18 is_stmt 1
	movq	$0, -24(%rbp)
	jmp	LBB0_4
LBB0_3:
	.loc	1 0 18 is_stmt 0
	movq	-40(%rbp), %rdi
	.loc	1 1089 17 is_stmt 1
	movq	(%rdi), %rax
	decq	%rax
	movq	%rax, (%rdi)
	.loc	1 1090 17
	addq	$8, %rdi
	callq	__ZN86_$LT$core..slice..iter..Split$LT$T$C$P$GT$$u20$as$u20$core..slice..iter..SplitIter$GT$6finish17h305597282f20ebc1E
	movq	%rdx, -16(%rbp)
	movq	%rax, -24(%rbp)
LBB0_4:
	.loc	1 1097 6
	movq	-24(%rbp), %rax
	movq	-16(%rbp), %rdx
	addq	$48, %rsp
	popq	%rbp
	retq
Ltmp1:
Lfunc_end0:
	.cfi_endproc

	.globl	__ZN100_$LT$core..slice..iter..GenericSplitN$LT$I$GT$$u20$as$u20$core..iter..traits..iterator..Iterator$GT$4next17hd82ebeb34c5d2b98E
	.p2align	4, 0x90
__ZN100_$LT$core..slice..iter..GenericSplitN$LT$I$GT$$u20$as$u20$core..iter..traits..iterator..Iterator$GT$4next17hd82ebeb34c5d2b98E:
Lfunc_begin1:
	.loc	1 1085 0
	.cfi_startproc
	pushq	%rbp
	.cfi_def_cfa_offset 16
	.cfi_offset %rbp, -16
	movq	%rsp, %rbp
	.cfi_def_cfa_register %rbp
	subq	$48, %rsp
	movq	%rdi, -40(%rbp)
	movq	%rdi, -8(%rbp)
Ltmp2:
	.loc	1 1086 9 prologue_end
	movq	(%rdi), %rax
	movq	%rax, -32(%rbp)
	testq	%rax, %rax
	je	LBB1_2
	jmp	LBB1_5
LBB1_5:
	.loc	1 0 9 is_stmt 0
	movq	-32(%rbp), %rax
	.loc	1 1086 9
	subq	$1, %rax
	je	LBB1_3
	jmp	LBB1_1
LBB1_1:
	.loc	1 0 9
	movq	-40(%rbp), %rdi
	.loc	1 1093 17 is_stmt 1
	movq	(%rdi), %rax
	decq	%rax
	movq	%rax, (%rdi)
	.loc	1 1094 17
	addq	$8, %rdi
	callq	__ZN96_$LT$core..slice..iter..Split$LT$T$C$P$GT$$u20$as$u20$core..iter..traits..iterator..Iterator$GT$4next17hf3cd0a4420659664E
	movq	%rdx, -16(%rbp)
	movq	%rax, -24(%rbp)
	.loc	1 1094 32 is_stmt 0
	jmp	LBB1_4
LBB1_2:
	.loc	1 1087 18 is_stmt 1
	movq	$0, -24(%rbp)
	jmp	LBB1_4
LBB1_3:
	.loc	1 0 18 is_stmt 0
	movq	-40(%rbp), %rdi
	.loc	1 1089 17 is_stmt 1
	movq	(%rdi), %rax
	decq	%rax
	movq	%rax, (%rdi)
	.loc	1 1090 17
	addq	$8, %rdi
	callq	__ZN86_$LT$core..slice..iter..Split$LT$T$C$P$GT$$u20$as$u20$core..slice..iter..SplitIter$GT$6finish17h45af4e93b3b9c5f2E
	movq	%rdx, -16(%rbp)
	movq	%rax, -24(%rbp)
LBB1_4:
	.loc	1 1097 6
	movq	-24(%rbp), %rax
	movq	-16(%rbp), %rdx
	addq	$48, %rsp
	popq	%rbp
	retq
Ltmp3:
Lfunc_end1:
	.cfi_endproc

	.globl	__ZN106_$LT$core..ops..range..Range$LT$usize$GT$$u20$as$u20$core..slice..index..SliceIndex$LT$$u5b$T$u5d$$GT$$GT$17get_unchecked_mut17h96ec12efd6153d7fE
	.p2align	4, 0x90
__ZN106_$LT$core..ops..range..Range$LT$usize$GT$$u20$as$u20$core..slice..index..SliceIndex$LT$$u5b$T$u5d$$GT$$GT$17get_unchecked_mut17h96ec12efd6153d7fE:
Lfunc_begin2:
	.file	2 "/rustc/2c8cc343237b8f7d5a3c3703e3a87f2eb2c54a74/library/core/src/slice" "index.rs"
	.loc	2 391 0
	.cfi_startproc
	pushq	%rbp
	.cfi_def_cfa_offset 16
	.cfi_offset %rbp, -16
	movq	%rsp, %rbp
	.cfi_def_cfa_register %rbp
	subq	$160, %rsp
	movq	%rdi, -128(%rbp)
	movq	%rsi, -120(%rbp)
	movq	%rdx, -112(%rbp)
	movq	%rcx, -104(%rbp)
Ltmp4:
	.loc	2 400 43 prologue_end
	movq	%rdx, -96(%rbp)
	movq	%rcx, -88(%rbp)
Ltmp5:
	.file	3 "/rustc/2c8cc343237b8f7d5a3c3703e3a87f2eb2c54a74/library/core/src/ptr" "mut_ptr.rs"
	.loc	3 2037 9
	movq	%rdx, -80(%rbp)
Ltmp6:
	.loc	2 400 66
	movq	%rdi, -72(%rbp)
Ltmp7:
	.loc	3 1034 18
	movq	%rdx, -64(%rbp)
	.loc	3 1034 30 is_stmt 0
	movq	%rdi, -56(%rbp)
Ltmp8:
	.loc	3 487 18 is_stmt 1
	addq	%rdi, %rdx
	movq	%rdx, -48(%rbp)
	movq	-48(%rbp), %rax
	movq	%rax, -40(%rbp)
Ltmp9:
	.loc	2 400 79
	subq	%rdi, %rsi
	movq	%rsi, -32(%rbp)
Ltmp10:
	.file	4 "/rustc/2c8cc343237b8f7d5a3c3703e3a87f2eb2c54a74/library/core/src/ptr" "mod.rs"
	.loc	4 766 24
	movq	%rax, -24(%rbp)
Ltmp11:
	.loc	3 60 9
	movq	%rax, -16(%rbp)
Ltmp12:
	.loc	4 766 37
	movq	%rsi, -8(%rbp)
Ltmp13:
	.file	5 "/rustc/2c8cc343237b8f7d5a3c3703e3a87f2eb2c54a74/library/core/src/ptr" "metadata.rs"
	.loc	5 135 36
	movq	%rax, -144(%rbp)
	movq	%rsi, -136(%rbp)
	.loc	5 135 14 is_stmt 0
	movq	-144(%rbp), %rcx
	movq	-136(%rbp), %rax
	movq	%rcx, -160(%rbp)
	movq	%rax, -152(%rbp)
	movq	-160(%rbp), %rax
	movq	-152(%rbp), %rdx
Ltmp14:
	.loc	2 402 6 is_stmt 1
	addq	$160, %rsp
	popq	%rbp
	retq
Ltmp15:
Lfunc_end2:
	.cfi_endproc

	.globl	__ZN106_$LT$core..ops..range..Range$LT$usize$GT$$u20$as$u20$core..slice..index..SliceIndex$LT$$u5b$T$u5d$$GT$$GT$9index_mut17hd064cf546f31c6daE
	.p2align	4, 0x90
__ZN106_$LT$core..ops..range..Range$LT$usize$GT$$u20$as$u20$core..slice..index..SliceIndex$LT$$u5b$T$u5d$$GT$$GT$9index_mut17hd064cf546f31c6daE:
Lfunc_begin3:
	.loc	2 416 0
	.cfi_startproc
	pushq	%rbp
	.cfi_def_cfa_offset 16
	.cfi_offset %rbp, -16
	movq	%rsp, %rbp
	.cfi_def_cfa_register %rbp
	subq	$80, %rsp
	movq	%rdi, -72(%rbp)
	movq	%rsi, -64(%rbp)
	movq	%rdx, -56(%rbp)
	movq	%rcx, -48(%rbp)
	movq	%r8, -40(%rbp)
	movq	%rdi, -32(%rbp)
	movq	%rsi, -24(%rbp)
	movq	%rdx, -16(%rbp)
	movq	%rcx, -8(%rbp)
Ltmp16:
	.loc	2 417 12 prologue_end
	cmpq	%rsi, %rdi
	ja	LBB3_2
	.loc	2 0 12 is_stmt 0
	movq	-64(%rbp), %rax
	movq	-48(%rbp), %rcx
	.loc	2 419 19 is_stmt 1
	cmpq	%rcx, %rax
	ja	LBB3_4
	jmp	LBB3_3
LBB3_2:
	.loc	2 0 19 is_stmt 0
	movq	-40(%rbp), %rdx
	movq	-64(%rbp), %rsi
	movq	-72(%rbp), %rdi
	.loc	2 418 13 is_stmt 1
	callq	__ZN4core5slice5index22slice_index_order_fail17h0d8f800a07d5f26eE
LBB3_3:
	.loc	2 0 13 is_stmt 0
	movq	-48(%rbp), %rcx
	movq	-56(%rbp), %rdx
	movq	-64(%rbp), %rsi
	movq	-72(%rbp), %rdi
	.loc	2 423 24 is_stmt 1
	callq	__ZN106_$LT$core..ops..range..Range$LT$usize$GT$$u20$as$u20$core..slice..index..SliceIndex$LT$$u5b$T$u5d$$GT$$GT$17get_unchecked_mut17h96ec12efd6153d7fE
	.loc	2 424 6
	addq	$80, %rsp
	popq	%rbp
	retq
LBB3_4:
	.loc	2 0 6 is_stmt 0
	movq	-40(%rbp), %rdx
	movq	-48(%rbp), %rsi
	movq	-64(%rbp), %rdi
	.loc	2 420 13 is_stmt 1
	callq	__ZN4core5slice5index24slice_end_index_len_fail17hc921cb2f1513645aE
Ltmp17:
Lfunc_end3:
	.cfi_endproc

	.globl	__ZN110_$LT$core..ops..range..RangeFrom$LT$usize$GT$$u20$as$u20$core..slice..index..SliceIndex$LT$$u5b$T$u5d$$GT$$GT$5index17hc800db50a3ed0669E
	.p2align	4, 0x90
__ZN110_$LT$core..ops..range..RangeFrom$LT$usize$GT$$u20$as$u20$core..slice..index..SliceIndex$LT$$u5b$T$u5d$$GT$$GT$5index17hc800db50a3ed0669E:
Lfunc_begin4:
	.loc	2 493 0
	.cfi_startproc
	pushq	%rbp
	.cfi_def_cfa_offset 16
	.cfi_offset %rbp, -16
	movq	%rsp, %rbp
	.cfi_def_cfa_register %rbp
	subq	$144, %rsp
	movq	%rdi, -144(%rbp)
	movq	%rsi, -136(%rbp)
	movq	%rdx, -128(%rbp)
	movq	%rcx, -120(%rbp)
	movq	%rdi, -80(%rbp)
	movq	%rsi, -72(%rbp)
	movq	%rdx, -64(%rbp)
Ltmp18:
	.loc	2 494 12 prologue_end
	cmpq	%rdx, %rdi
	ja	LBB4_2
	.loc	2 0 12 is_stmt 0
	movq	-128(%rbp), %rcx
	movq	-136(%rbp), %rdx
	movq	-144(%rbp), %rsi
	.loc	2 498 20 is_stmt 1
	movq	%rsi, -56(%rbp)
	.loc	2 498 39 is_stmt 0
	movq	%rdx, -48(%rbp)
	movq	%rcx, -40(%rbp)
Ltmp19:
	.loc	2 483 31 is_stmt 1
	movq	%rdx, -32(%rbp)
	movq	%rcx, -24(%rbp)
Ltmp20:
	.file	6 "/rustc/2c8cc343237b8f7d5a3c3703e3a87f2eb2c54a74/library/core/src/ptr" "const_ptr.rs"
	.loc	6 1630 18
	movq	%rdx, -16(%rbp)
	movq	%rcx, -8(%rbp)
Ltmp21:
	.loc	5 98 14
	movq	%rdx, -96(%rbp)
	movq	%rcx, -88(%rbp)
	movq	-88(%rbp), %rax
Ltmp22:
	.loc	2 483 18
	movq	%rsi, -112(%rbp)
	movq	%rax, -104(%rbp)
	movq	-112(%rbp), %rdi
	movq	-104(%rbp), %rsi
	callq	__ZN106_$LT$core..ops..range..Range$LT$usize$GT$$u20$as$u20$core..slice..index..SliceIndex$LT$$u5b$T$u5d$$GT$$GT$13get_unchecked17hda2805288b6cb9e5E
Ltmp23:
	.loc	2 499 6
	addq	$144, %rsp
	popq	%rbp
	retq
LBB4_2:
	.loc	2 0 6 is_stmt 0
	movq	-120(%rbp), %rdx
	movq	-128(%rbp), %rsi
	movq	-144(%rbp), %rdi
	.loc	2 495 13 is_stmt 1
	callq	__ZN4core5slice5index26slice_start_index_len_fail17h9d301bb51ec3e351E
Ltmp24:
Lfunc_end4:
	.cfi_endproc

	.globl	__ZN110_$LT$core..ops..range..RangeFrom$LT$usize$GT$$u20$as$u20$core..slice..index..SliceIndex$LT$$u5b$T$u5d$$GT$$GT$9index_mut17h4602c5a7a09083b7E
	.p2align	4, 0x90
__ZN110_$LT$core..ops..range..RangeFrom$LT$usize$GT$$u20$as$u20$core..slice..index..SliceIndex$LT$$u5b$T$u5d$$GT$$GT$9index_mut17h4602c5a7a09083b7E:
Lfunc_begin5:
	.loc	2 502 0
	.cfi_startproc
	pushq	%rbp
	.cfi_def_cfa_offset 16
	.cfi_offset %rbp, -16
	movq	%rsp, %rbp
	.cfi_def_cfa_register %rbp
	subq	$144, %rsp
	movq	%rdi, -144(%rbp)
	movq	%rsi, -136(%rbp)
	movq	%rdx, -128(%rbp)
	movq	%rcx, -120(%rbp)
	movq	%rdi, -80(%rbp)
	movq	%rsi, -72(%rbp)
	movq	%rdx, -64(%rbp)
Ltmp25:
	.loc	2 503 12 prologue_end
	cmpq	%rdx, %rdi
	ja	LBB5_2
	.loc	2 0 12 is_stmt 0
	movq	-128(%rbp), %rcx
	movq	-136(%rbp), %rdx
	movq	-144(%rbp), %rsi
	.loc	2 507 24 is_stmt 1
	movq	%rsi, -56(%rbp)
	.loc	2 507 47 is_stmt 0
	movq	%rdx, -48(%rbp)
	movq	%rcx, -40(%rbp)
Ltmp26:
	.loc	2 489 31 is_stmt 1
	movq	%rdx, -32(%rbp)
	movq	%rcx, -24(%rbp)
Ltmp27:
	.loc	3 1901 18
	movq	%rdx, -16(%rbp)
	movq	%rcx, -8(%rbp)
Ltmp28:
	.loc	5 98 14
	movq	%rdx, -96(%rbp)
	movq	%rcx, -88(%rbp)
	movq	-88(%rbp), %rax
Ltmp29:
	.loc	2 489 18
	movq	%rsi, -112(%rbp)
	movq	%rax, -104(%rbp)
	movq	-112(%rbp), %rdi
	movq	-104(%rbp), %rsi
	callq	__ZN106_$LT$core..ops..range..Range$LT$usize$GT$$u20$as$u20$core..slice..index..SliceIndex$LT$$u5b$T$u5d$$GT$$GT$17get_unchecked_mut17h96ec12efd6153d7fE
Ltmp30:
	.loc	2 508 6
	addq	$144, %rsp
	popq	%rbp
	retq
LBB5_2:
	.loc	2 0 6 is_stmt 0
	movq	-120(%rbp), %rdx
	movq	-128(%rbp), %rsi
	movq	-144(%rbp), %rdi
	.loc	2 504 13 is_stmt 1
	callq	__ZN4core5slice5index26slice_start_index_len_fail17h9d301bb51ec3e351E
Ltmp31:
Lfunc_end5:
	.cfi_endproc

	.p2align	4, 0x90
__ZN16percent_encoding14percent_decode17h5a416899498a90c6E:
Lfunc_begin6:
	.file	7 "/Users/natalie/.cargo/registry/src/github.com-1ecc6299db9ec823/percent-encoding-2.2.0/src" "lib.rs"
	.loc	7 346 0
	.cfi_startproc
	pushq	%rbp
	.cfi_def_cfa_offset 16
	.cfi_offset %rbp, -16
	movq	%rsp, %rbp
	.cfi_def_cfa_register %rbp
	subq	$32, %rsp
	movq	%rdi, -16(%rbp)
	movq	%rsi, -8(%rbp)
Ltmp32:
	.loc	7 348 16 prologue_end
	callq	__ZN4core5slice29_$LT$impl$u20$$u5b$T$u5d$$GT$4iter17h1373bfcc6c1ed715E
	.loc	7 347 5
	movq	%rax, -32(%rbp)
	movq	%rdx, -24(%rbp)
	.loc	7 350 2
	movq	-32(%rbp), %rax
	movq	-24(%rbp), %rdx
	addq	$32, %rsp
	popq	%rbp
	retq
Ltmp33:
Lfunc_end6:
	.cfi_endproc

	.globl	__ZN42_$LT$$RF$T$u20$as$u20$core..fmt..Debug$GT$3fmt17ha550b60a0478e550E
	.p2align	4, 0x90
__ZN42_$LT$$RF$T$u20$as$u20$core..fmt..Debug$GT$3fmt17ha550b60a0478e550E:
Lfunc_begin7:
	.file	8 "/rustc/2c8cc343237b8f7d5a3c3703e3a87f2eb2c54a74/library/core/src/fmt" "mod.rs"
	.loc	8 2377 0
	.cfi_startproc
	pushq	%rbp
	.cfi_def_cfa_offset 16
	.cfi_offset %rbp, -16
	movq	%rsp, %rbp
	.cfi_def_cfa_register %rbp
	subq	$16, %rsp
	movq	%rdi, -16(%rbp)
	movq	%rsi, -8(%rbp)
Ltmp34:
	.loc	8 2377 71 prologue_end
	movq	(%rdi), %rdi
	.loc	8 2377 62 is_stmt 0
	callq	__ZN42_$LT$$RF$T$u20$as$u20$core..fmt..Debug$GT$3fmt17h531f7dce34f264d7E
	.loc	8 2377 84
	andb	$1, %al
	movzbl	%al, %eax
	addq	$16, %rsp
	popq	%rbp
	retq
Ltmp35:
Lfunc_end7:
	.cfi_endproc

	.p2align	4, 0x90
__ZN4core3fmt9Arguments6new_v117h844f993c35a11adcE:
Lfunc_begin8:
	.loc	8 399 0 is_stmt 1
	.cfi_startproc
	pushq	%rbp
	.cfi_def_cfa_offset 16
	.cfi_offset %rbp, -16
	movq	%rsp, %rbp
	.cfi_def_cfa_register %rbp
	subq	$160, %rsp
	movq	%r8, -152(%rbp)
	movq	%rcx, -144(%rbp)
	movq	%rdx, -136(%rbp)
	movq	%rsi, -128(%rbp)
	movq	%rdi, -120(%rbp)
	movq	%rdi, -112(%rbp)
	movq	%rsi, -32(%rbp)
	movq	%rdx, -24(%rbp)
	movq	%rcx, -16(%rbp)
	movq	%r8, -8(%rbp)
Ltmp36:
	.loc	8 400 12 prologue_end
	cmpq	%r8, %rdx
	jb	LBB8_2
	.loc	8 0 12 is_stmt 0
	movq	-136(%rbp), %rax
	movq	-152(%rbp), %rcx
	.loc	8 400 56
	addq	$1, %rcx
	.loc	8 400 41
	cmpq	%rcx, %rax
	seta	%al
	.loc	8 400 12
	andb	$1, %al
	movb	%al, -97(%rbp)
	jmp	LBB8_3
LBB8_2:
	movb	$1, -97(%rbp)
LBB8_3:
	testb	$1, -97(%rbp)
	jne	LBB8_5
	.loc	8 0 12
	movq	-112(%rbp), %rax
	movq	-120(%rbp), %rcx
	movq	-152(%rbp), %rdx
	movq	-144(%rbp), %rsi
	movq	-136(%rbp), %rdi
	movq	-128(%rbp), %r8
	.loc	8 403 34 is_stmt 1
	movq	$0, -48(%rbp)
	.loc	8 403 9 is_stmt 0
	movq	%r8, 16(%rcx)
	movq	%rdi, 24(%rcx)
	movq	-48(%rbp), %r8
	movq	-40(%rbp), %rdi
	movq	%r8, (%rcx)
	movq	%rdi, 8(%rcx)
	movq	%rsi, 32(%rcx)
	movq	%rdx, 40(%rcx)
	.loc	8 404 6 is_stmt 1
	addq	$160, %rsp
	popq	%rbp
	retq
LBB8_5:
	.loc	8 401 13
	leaq	l___unnamed_2(%rip), %rsi
	leaq	l___unnamed_3(%rip), %rcx
	xorl	%eax, %eax
	movl	%eax, %r8d
	leaq	-96(%rbp), %rdi
	movq	%rdi, -160(%rbp)
	movl	$1, %edx
	callq	__ZN4core3fmt9Arguments6new_v117h844f993c35a11adcE
	movq	-160(%rbp), %rdi
	leaq	l___unnamed_4(%rip), %rsi
	callq	__ZN4core9panicking9panic_fmt17h9b5d807e24bcaaedE
Ltmp37:
Lfunc_end8:
	.cfi_endproc

	.p2align	4, 0x90
__ZN4core3ptr41drop_in_place$LT$$RF$$RF$$u5b$u8$u5d$$GT$17h3619bf1f9ffeeb06E:
Lfunc_begin9:
	.loc	4 490 0
	.cfi_startproc
	pushq	%rbp
	.cfi_def_cfa_offset 16
	.cfi_offset %rbp, -16
	movq	%rsp, %rbp
	.cfi_def_cfa_register %rbp
	pushq	%rax
	movq	%rdi, -8(%rbp)
Ltmp38:
	.loc	4 490 1 prologue_end
	addq	$8, %rsp
	popq	%rbp
	retq
Ltmp39:
Lfunc_end9:
	.cfi_endproc

	.globl	__ZN4core3ptr50drop_in_place$LT$alloc..borrow..Cow$LT$str$GT$$GT$17hd788a57a5813a73cE
	.p2align	4, 0x90
__ZN4core3ptr50drop_in_place$LT$alloc..borrow..Cow$LT$str$GT$$GT$17hd788a57a5813a73cE:
Lfunc_begin10:
	.loc	4 490 0
	.cfi_startproc
	pushq	%rbp
	.cfi_def_cfa_offset 16
	.cfi_offset %rbp, -16
	movq	%rsp, %rbp
	.cfi_def_cfa_register %rbp
	subq	$16, %rsp
	movq	%rdi, -16(%rbp)
	movq	%rdi, -8(%rbp)
Ltmp40:
	.loc	4 490 1 prologue_end
	cmpq	$0, (%rdi)
	jne	LBB10_2
LBB10_1:
	addq	$16, %rsp
	popq	%rbp
	retq
LBB10_2:
	.loc	4 0 1 is_stmt 0
	movq	-16(%rbp), %rdi
	.loc	4 490 1
	addq	$8, %rdi
	callq	__ZN4core3ptr42drop_in_place$LT$alloc..string..String$GT$17h1b3e09bcaf33a849E
	jmp	LBB10_1
Ltmp41:
Lfunc_end10:
	.cfi_endproc

	.globl	__ZN4core3ptr59drop_in_place$LT$alloc..borrow..Cow$LT$$u5b$u8$u5d$$GT$$GT$17hb669d988d0285d6cE
	.p2align	4, 0x90
__ZN4core3ptr59drop_in_place$LT$alloc..borrow..Cow$LT$$u5b$u8$u5d$$GT$$GT$17hb669d988d0285d6cE:
Lfunc_begin11:
	.loc	4 490 0 is_stmt 1
	.cfi_startproc
	pushq	%rbp
	.cfi_def_cfa_offset 16
	.cfi_offset %rbp, -16
	movq	%rsp, %rbp
	.cfi_def_cfa_register %rbp
	subq	$16, %rsp
	movq	%rdi, -16(%rbp)
	movq	%rdi, -8(%rbp)
Ltmp42:
	.loc	4 490 1 prologue_end
	cmpq	$0, (%rdi)
	jne	LBB11_2
LBB11_1:
	addq	$16, %rsp
	popq	%rbp
	retq
LBB11_2:
	.loc	4 0 1 is_stmt 0
	movq	-16(%rbp), %rdi
	.loc	4 490 1
	addq	$8, %rdi
	callq	__ZN4core3ptr46drop_in_place$LT$alloc..vec..Vec$LT$u8$GT$$GT$17h83e90276065d94e4E
	jmp	LBB11_1
Ltmp43:
Lfunc_end11:
	.cfi_endproc

	.p2align	4, 0x90
__ZN4core3str8converts19from_utf8_unchecked17he17b8db7364c13f5E:
Lfunc_begin12:
	.file	9 "/rustc/2c8cc343237b8f7d5a3c3703e3a87f2eb2c54a74/library/core/src/str" "converts.rs"
	.loc	9 170 0 is_stmt 1
	.cfi_startproc
	pushq	%rbp
	.cfi_def_cfa_offset 16
	.cfi_offset %rbp, -16
	movq	%rsp, %rbp
	.cfi_def_cfa_register %rbp
	subq	$32, %rsp
	movq	%rdi, -32(%rbp)
	movq	%rsi, -24(%rbp)
Ltmp44:
	.loc	9 173 14 prologue_end
	movq	%rdi, -16(%rbp)
	movq	%rsi, -8(%rbp)
	movq	-16(%rbp), %rax
	movq	-8(%rbp), %rdx
	.loc	9 174 2
	addq	$32, %rsp
	popq	%rbp
	retq
Ltmp45:
Lfunc_end12:
	.cfi_endproc

	.p2align	4, 0x90
__ZN4core4char7methods15encode_utf8_raw17h1655ab99caba59eeE:
Lfunc_begin13:
	.file	10 "/rustc/2c8cc343237b8f7d5a3c3703e3a87f2eb2c54a74/library/core/src/char" "methods.rs"
	.loc	10 1729 0
	.cfi_startproc
	pushq	%rbp
	.cfi_def_cfa_offset 16
	.cfi_offset %rbp, -16
	movq	%rsp, %rbp
	.cfi_def_cfa_register %rbp
	subq	$560, %rsp
	movq	%rsi, -544(%rbp)
	movq	%rdx, -536(%rbp)
	movl	%edi, -516(%rbp)
	movq	%rsi, -304(%rbp)
	movq	%rdx, -296(%rbp)
Ltmp46:
	.loc	10 1730 24 prologue_end
	movl	-516(%rbp), %edi
	.loc	10 1730 15 is_stmt 0
	callq	__ZN4core4char7methods8len_utf817hc09464d234c573b3E
	movq	-544(%rbp), %rsi
	movq	-536(%rbp), %rdx
	movq	%rax, -512(%rbp)
Ltmp47:
	.loc	10 1731 12 is_stmt 1
	movq	-512(%rbp), %rax
	.loc	10 1731 22 is_stmt 0
	movq	%rsi, -272(%rbp)
	movq	%rdx, -264(%rbp)
Ltmp48:
	.loc	2 30 25 is_stmt 1
	movq	%rsi, -256(%rbp)
	movq	%rdx, -248(%rbp)
Ltmp49:
	.loc	10 1731 11
	movq	%rax, -504(%rbp)
	movq	%rsi, -496(%rbp)
	movq	%rdx, -488(%rbp)
	.loc	10 1731 5 is_stmt 0
	movq	-504(%rbp), %rax
	decq	%rax
	movq	%rax, -528(%rbp)
	subq	$3, %rax
	ja	LBB13_1
	.loc	10 0 5
	movq	-528(%rbp), %rax
	leaq	LJTI13_0(%rip), %rcx
	movslq	(%rcx,%rax,4), %rax
	addq	%rcx, %rax
	jmpq	*%rax
LBB13_1:
	movq	-536(%rbp), %rcx
	leaq	-512(%rbp), %rsi
	.loc	10 1750 14 is_stmt 1
	movq	%rsi, -120(%rbp)
Ltmp50:
	.loc	8 328 23
	movq	%rsi, -112(%rbp)
	.loc	8 328 26 is_stmt 0
	movq	__ZN4core3fmt3num3imp54_$LT$impl$u20$core..fmt..Display$u20$for$u20$usize$GT$3fmt17ha5c925fcd7ed33faE@GOTPCREL(%rip), %rax
	movq	%rax, -104(%rbp)
Ltmp51:
	.loc	8 347 42 is_stmt 1
	movq	%rax, -96(%rbp)
	movq	-96(%rbp), %rdx
	.loc	8 347 68 is_stmt 0
	movq	%rsi, -88(%rbp)
	movq	-88(%rbp), %rsi
	.loc	8 347 18
	movq	%rsi, -384(%rbp)
	movq	%rdx, -376(%rbp)
	leaq	-516(%rbp), %rsi
Ltmp52:
	.loc	10 1750 14 is_stmt 1
	movq	%rsi, -80(%rbp)
Ltmp53:
	.loc	8 328 23
	movq	%rsi, -72(%rbp)
	.loc	8 328 26 is_stmt 0
	movq	__ZN4core3fmt3num53_$LT$impl$u20$core..fmt..UpperHex$u20$for$u20$u32$GT$3fmt17ha96bbefe8f663d11E@GOTPCREL(%rip), %rdx
	movq	%rdx, -64(%rbp)
Ltmp54:
	.loc	8 347 42 is_stmt 1
	movq	%rdx, -56(%rbp)
	movq	-56(%rbp), %rdx
	.loc	8 347 68 is_stmt 0
	movq	%rsi, -48(%rbp)
	movq	-48(%rbp), %rsi
	.loc	8 347 18
	movq	%rsi, -368(%rbp)
	movq	%rdx, -360(%rbp)
Ltmp55:
	.loc	10 1754 13 is_stmt 1
	movq	%rcx, -336(%rbp)
	leaq	-336(%rbp), %rcx
	.loc	10 1750 14
	movq	%rcx, -40(%rbp)
Ltmp56:
	.loc	8 328 23
	movq	%rcx, -32(%rbp)
	.loc	8 328 26 is_stmt 0
	movq	%rax, -24(%rbp)
Ltmp57:
	.loc	8 347 42 is_stmt 1
	movq	%rax, -16(%rbp)
	movq	-16(%rbp), %rax
	.loc	8 347 68 is_stmt 0
	movq	%rcx, -8(%rbp)
	movq	-8(%rbp), %rcx
	.loc	8 347 18
	movq	%rcx, -352(%rbp)
	movq	%rax, -344(%rbp)
Ltmp58:
	.loc	10 1750 14 is_stmt 1
	movq	-384(%rbp), %rcx
	movq	-376(%rbp), %rax
	movq	%rcx, -432(%rbp)
	movq	%rax, -424(%rbp)
	movq	-368(%rbp), %rcx
	movq	-360(%rbp), %rax
	movq	%rcx, -416(%rbp)
	movq	%rax, -408(%rbp)
	movq	-352(%rbp), %rcx
	movq	-344(%rbp), %rax
	movq	%rcx, -400(%rbp)
	movq	%rax, -392(%rbp)
	leaq	l___unnamed_5(%rip), %rsi
	leaq	-480(%rbp), %rdi
	movq	%rdi, -552(%rbp)
	leaq	-432(%rbp), %rcx
	movl	$3, %r8d
	movq	%r8, %rdx
	callq	__ZN4core3fmt9Arguments6new_v117h844f993c35a11adcE
	movq	-552(%rbp), %rdi
	leaq	l___unnamed_6(%rip), %rsi
	callq	__ZN4core9panicking9panic_fmt17h9b5d807e24bcaaedE
LBB13_2:
	.loc	10 1732 13
	cmpq	$1, -488(%rbp)
	jae	LBB13_10
	jmp	LBB13_1
LBB13_3:
	.loc	10 1735 13
	cmpq	$2, -488(%rbp)
	jae	LBB13_9
	jmp	LBB13_1
LBB13_4:
	.loc	10 1739 13
	cmpq	$3, -488(%rbp)
	jae	LBB13_8
	jmp	LBB13_1
LBB13_5:
	.loc	10 1744 13
	cmpq	$4, -488(%rbp)
	jb	LBB13_1
	.loc	10 1744 14 is_stmt 0
	movq	-496(%rbp), %rsi
	movq	%rsi, -240(%rbp)
	.loc	10 1744 17
	movq	-496(%rbp), %rdx
	movq	%rdx, %rax
	addq	$1, %rax
	movq	%rax, -232(%rbp)
	.loc	10 1744 20
	movq	-496(%rbp), %rcx
	movq	%rcx, %rax
	addq	$2, %rax
	movq	%rax, -224(%rbp)
	.loc	10 1744 23
	movq	-496(%rbp), %rax
	movq	%rax, %rdi
	addq	$3, %rdi
	movq	%rdi, -216(%rbp)
Ltmp59:
	.loc	10 1745 19 is_stmt 1
	movl	-516(%rbp), %edi
	shrl	$18, %edi
	.loc	10 1745 18 is_stmt 0
	andl	$7, %edi
	.loc	10 1745 13
	orb	$-16, %dil
	movb	%dil, (%rsi)
	.loc	10 1746 19 is_stmt 1
	movl	-516(%rbp), %esi
	shrl	$12, %esi
	.loc	10 1746 18 is_stmt 0
	andl	$63, %esi
	.loc	10 1746 13
	orb	$-128, %sil
	movb	%sil, 1(%rdx)
	.loc	10 1747 19 is_stmt 1
	movl	-516(%rbp), %edx
	shrl	$6, %edx
	.loc	10 1747 18 is_stmt 0
	andl	$63, %edx
	.loc	10 1747 13
	orb	$-128, %dl
	movb	%dl, 2(%rcx)
	.loc	10 1748 19 is_stmt 1
	movl	-516(%rbp), %ecx
	.loc	10 1748 18 is_stmt 0
	andl	$63, %ecx
	.loc	10 1748 13
	orb	$-128, %cl
	movb	%cl, 3(%rax)
Ltmp60:
LBB13_7:
	.loc	10 0 13
	movq	-536(%rbp), %rcx
	movq	-544(%rbp), %rdx
	.loc	10 1757 10 is_stmt 1
	movq	%rdx, -160(%rbp)
	movq	%rcx, -152(%rbp)
	.loc	10 1757 16 is_stmt 0
	movq	-512(%rbp), %rax
	.loc	10 1757 14
	movq	%rax, -328(%rbp)
Ltmp61:
	.loc	2 30 9 is_stmt 1
	movq	-328(%rbp), %rax
	movq	%rax, -144(%rbp)
	.loc	2 30 25 is_stmt 0
	movq	%rdx, -136(%rbp)
	movq	%rcx, -128(%rbp)
Ltmp62:
	.loc	2 461 9 is_stmt 1
	movq	$0, -320(%rbp)
	movq	%rax, -312(%rbp)
	movq	-320(%rbp), %rdi
	movq	-312(%rbp), %rsi
	leaq	l___unnamed_7(%rip), %r8
	callq	__ZN106_$LT$core..ops..range..Range$LT$usize$GT$$u20$as$u20$core..slice..index..SliceIndex$LT$$u5b$T$u5d$$GT$$GT$9index_mut17hd064cf546f31c6daE
Ltmp63:
	.loc	10 1758 2
	addq	$560, %rsp
	popq	%rbp
	retq
LBB13_8:
Ltmp64:
	.loc	10 1739 14
	movq	-496(%rbp), %rdx
	movq	%rdx, -208(%rbp)
	.loc	10 1739 17 is_stmt 0
	movq	-496(%rbp), %rcx
	movq	%rcx, %rax
	addq	$1, %rax
	movq	%rax, -200(%rbp)
	.loc	10 1739 20
	movq	-496(%rbp), %rax
	movq	%rax, %rsi
	addq	$2, %rsi
	movq	%rsi, -192(%rbp)
Ltmp65:
	.loc	10 1740 19 is_stmt 1
	movl	-516(%rbp), %esi
	shrl	$12, %esi
	.loc	10 1740 18 is_stmt 0
	andl	$15, %esi
	.loc	10 1740 13
	orb	$-32, %sil
	movb	%sil, (%rdx)
	.loc	10 1741 19 is_stmt 1
	movl	-516(%rbp), %edx
	shrl	$6, %edx
	.loc	10 1741 18 is_stmt 0
	andl	$63, %edx
	.loc	10 1741 13
	orb	$-128, %dl
	movb	%dl, 1(%rcx)
	.loc	10 1742 19 is_stmt 1
	movl	-516(%rbp), %ecx
	.loc	10 1742 18 is_stmt 0
	andl	$63, %ecx
	.loc	10 1742 13
	orb	$-128, %cl
	movb	%cl, 2(%rax)
Ltmp66:
	.loc	10 1743 9 is_stmt 1
	jmp	LBB13_7
LBB13_9:
	.loc	10 1735 14
	movq	-496(%rbp), %rcx
	movq	%rcx, -184(%rbp)
	.loc	10 1735 17 is_stmt 0
	movq	-496(%rbp), %rax
	movq	%rax, %rdx
	addq	$1, %rdx
	movq	%rdx, -176(%rbp)
Ltmp67:
	.loc	10 1736 19 is_stmt 1
	movl	-516(%rbp), %edx
	shrl	$6, %edx
	.loc	10 1736 18 is_stmt 0
	andl	$31, %edx
	.loc	10 1736 13
	orb	$-64, %dl
	movb	%dl, (%rcx)
	.loc	10 1737 19 is_stmt 1
	movl	-516(%rbp), %ecx
	.loc	10 1737 18 is_stmt 0
	andl	$63, %ecx
	.loc	10 1737 13
	orb	$-128, %cl
	movb	%cl, 1(%rax)
Ltmp68:
	.loc	10 1738 9 is_stmt 1
	jmp	LBB13_7
LBB13_10:
	.loc	10 1732 14
	movq	-496(%rbp), %rax
	movq	%rax, -168(%rbp)
Ltmp69:
	.loc	10 1733 18
	movl	-516(%rbp), %ecx
	.loc	10 1733 13 is_stmt 0
	movb	%cl, (%rax)
Ltmp70:
	.loc	10 1734 9 is_stmt 1
	jmp	LBB13_7
Ltmp71:
Lfunc_end13:
	.cfi_endproc
	.p2align	2, 0x90
	.data_region jt32
.set L13_0_set_2, LBB13_2-LJTI13_0
.set L13_0_set_3, LBB13_3-LJTI13_0
.set L13_0_set_4, LBB13_4-LJTI13_0
.set L13_0_set_5, LBB13_5-LJTI13_0
LJTI13_0:
	.long	L13_0_set_2
	.long	L13_0_set_3
	.long	L13_0_set_4
	.long	L13_0_set_5
	.end_data_region

	.p2align	4, 0x90
__ZN4core4char7methods8len_utf817hc09464d234c573b3E:
Lfunc_begin14:
	.loc	10 1701 0
	.cfi_startproc
	pushq	%rbp
	.cfi_def_cfa_offset 16
	.cfi_offset %rbp, -16
	movq	%rsp, %rbp
	.cfi_def_cfa_register %rbp
	subq	$24, %rsp
	movl	%edi, -20(%rbp)
	movl	%edi, -4(%rbp)
Ltmp72:
	.loc	10 1702 8 prologue_end
	cmpl	$128, %edi
	jb	LBB14_2
	.loc	10 0 8 is_stmt 0
	movl	-20(%rbp), %eax
	.loc	10 1704 15 is_stmt 1
	cmpl	$2048, %eax
	jb	LBB14_5
	jmp	LBB14_4
LBB14_2:
	.loc	10 1703 9
	movq	$1, -16(%rbp)
LBB14_3:
	.loc	10 1711 2
	movq	-16(%rbp), %rax
	addq	$24, %rsp
	popq	%rbp
	retq
LBB14_4:
	.loc	10 0 2 is_stmt 0
	movl	-20(%rbp), %eax
	.loc	10 1706 15 is_stmt 1
	cmpl	$65536, %eax
	jb	LBB14_8
	jmp	LBB14_7
LBB14_5:
	.loc	10 1705 9
	movq	$2, -16(%rbp)
LBB14_6:
	.loc	10 1702 5
	jmp	LBB14_3
LBB14_7:
	.loc	10 1709 9
	movq	$4, -16(%rbp)
	.loc	10 1706 12
	jmp	LBB14_9
LBB14_8:
	.loc	10 1707 9
	movq	$3, -16(%rbp)
LBB14_9:
	.loc	10 1704 12
	jmp	LBB14_6
Ltmp73:
Lfunc_end14:
	.cfi_endproc

	.globl	__ZN4core4iter6traits8iterator8Iterator4fold17h46b5b8bb27ffd0a1E
	.p2align	4, 0x90
__ZN4core4iter6traits8iterator8Iterator4fold17h46b5b8bb27ffd0a1E:
Lfunc_begin15:
	.file	11 "/rustc/2c8cc343237b8f7d5a3c3703e3a87f2eb2c54a74/library/core/src/iter/traits" "iterator.rs"
	.loc	11 2431 0
	.cfi_startproc
	.cfi_personality 155, _rust_eh_personality
	.cfi_lsda 16, Lexception0
	pushq	%rbp
	.cfi_def_cfa_offset 16
	.cfi_offset %rbp, -16
	movq	%rsp, %rbp
	.cfi_def_cfa_register %rbp
	subq	$128, %rsp
	movq	%rdi, -112(%rbp)
	movq	%rsi, -104(%rbp)
	movq	%rdx, -96(%rbp)
Ltmp79:
	.loc	11 2436 25 prologue_end
	movb	$1, -49(%rbp)
LBB15_1:
Ltmp74:
	.loc	11 0 25 is_stmt 0
	leaq	-112(%rbp), %rdi
Ltmp80:
	.loc	11 2437 29 is_stmt 1
	callq	__ZN89_$LT$form_urlencoded..ByteSerialize$u20$as$u20$core..iter..traits..iterator..Iterator$GT$4next17h170ae6d6ec624338E
Ltmp75:
	movq	%rdx, -128(%rbp)
	movq	%rax, -120(%rbp)
	jmp	LBB15_4
Ltmp81:
LBB15_2:
	.loc	11 2441 5
	testb	$1, -49(%rbp)
	jne	LBB15_11
	jmp	LBB15_10
LBB15_3:
Ltmp78:
	.loc	11 0 5 is_stmt 0
	movq	%rax, %rcx
	movl	%edx, %eax
	movq	%rcx, -32(%rbp)
	movl	%eax, -24(%rbp)
	jmp	LBB15_2
LBB15_4:
	movq	-128(%rbp), %rax
	movq	-120(%rbp), %rcx
Ltmp82:
	.loc	11 2437 29 is_stmt 1
	movq	%rcx, -88(%rbp)
	movq	%rax, -80(%rbp)
	.loc	11 2437 19 is_stmt 0
	movq	-88(%rbp), %rdx
	movl	$1, %eax
	xorl	%ecx, %ecx
	cmpq	$0, %rdx
	cmoveq	%rcx, %rax
	cmpq	$1, %rax
	jne	LBB15_6
	.loc	11 2437 24
	movq	-88(%rbp), %rcx
	movq	-80(%rbp), %rax
	movq	%rcx, -16(%rbp)
	movq	%rax, -8(%rbp)
	.loc	11 2438 23 is_stmt 1
	movb	$0, -49(%rbp)
	.loc	11 2438 21 is_stmt 0
	movq	%rcx, -72(%rbp)
	movq	%rax, -64(%rbp)
	movq	-72(%rbp), %rsi
	movq	-64(%rbp), %rdx
Ltmp76:
	leaq	-96(%rbp), %rdi
	callq	__ZN4core4iter6traits8iterator8Iterator8for_each4call28_$u7b$$u7b$closure$u7d$$u7d$17h5ed82fda6d0b9cbbE
Ltmp77:
	jmp	LBB15_9
Ltmp83:
LBB15_6:
	.loc	11 2437 9 is_stmt 1
	jmp	LBB15_7
Ltmp84:
LBB15_7:
	.loc	11 2441 5
	jmp	LBB15_8
LBB15_8:
	.loc	11 2441 6 is_stmt 0
	addq	$128, %rsp
	popq	%rbp
	retq
LBB15_9:
Ltmp85:
	.loc	11 2438 13 is_stmt 1
	movb	$1, -49(%rbp)
Ltmp86:
	.loc	11 2437 9
	jmp	LBB15_1
Ltmp87:
LBB15_10:
	.loc	11 2441 5
	jmp	LBB15_12
LBB15_11:
	jmp	LBB15_10
LBB15_12:
	.loc	11 2431 5
	movq	-32(%rbp), %rdi
	callq	__Unwind_Resume
Ltmp88:
Lfunc_end15:
	.cfi_endproc
	.section	__TEXT,__gcc_except_tab
	.p2align	2
GCC_except_table15:
Lexception0:
	.byte	255
	.byte	255
	.byte	1
	.uleb128 Lcst_end0-Lcst_begin0
Lcst_begin0:
	.uleb128 Ltmp74-Lfunc_begin15
	.uleb128 Ltmp77-Ltmp74
	.uleb128 Ltmp78-Lfunc_begin15
	.byte	0
	.uleb128 Ltmp77-Lfunc_begin15
	.uleb128 Lfunc_end15-Ltmp77
	.byte	0
	.byte	0
Lcst_end0:
	.p2align	2

	.section	__TEXT,__text,regular,pure_instructions
	.globl	__ZN4core4iter6traits8iterator8Iterator8for_each17hbaad31a1ec83e275E
	.p2align	4, 0x90
__ZN4core4iter6traits8iterator8Iterator8for_each17hbaad31a1ec83e275E:
Lfunc_begin16:
	.loc	11 827 0
	.cfi_startproc
	.cfi_personality 155, _rust_eh_personality
	.cfi_lsda 16, Lexception1
	pushq	%rbp
	.cfi_def_cfa_offset 16
	.cfi_offset %rbp, -16
	movq	%rsp, %rbp
	.cfi_def_cfa_register %rbp
	subq	$64, %rsp
	movq	%rdi, -48(%rbp)
	movq	%rsi, -40(%rbp)
	movq	%rdx, -32(%rbp)
Ltmp92:
	.loc	11 837 28 prologue_end
	movq	%rdx, -24(%rbp)
Ltmp93:
	.loc	11 834 13
	movq	%rdx, -56(%rbp)
Ltmp94:
	.loc	11 837 9
	movq	-56(%rbp), %rdx
Ltmp89:
	callq	__ZN4core4iter6traits8iterator8Iterator4fold17h46b5b8bb27ffd0a1E
Ltmp90:
	jmp	LBB16_3
LBB16_1:
	.loc	11 837 30 is_stmt 0
	xorl	%eax, %eax
	testb	$1, %al
	jne	LBB16_5
	jmp	LBB16_4
LBB16_2:
Ltmp91:
	.loc	11 0 30
	movq	%rax, %rcx
	movl	%edx, %eax
	movq	%rcx, -16(%rbp)
	movl	%eax, -8(%rbp)
	jmp	LBB16_1
LBB16_3:
	.loc	11 838 6 is_stmt 1
	addq	$64, %rsp
	popq	%rbp
	retq
LBB16_4:
	.loc	11 827 5
	movq	-16(%rbp), %rdi
	callq	__Unwind_Resume
LBB16_5:
	.loc	11 837 30
	jmp	LBB16_4
Ltmp95:
Lfunc_end16:
	.cfi_endproc
	.section	__TEXT,__gcc_except_tab
	.p2align	2
GCC_except_table16:
Lexception1:
	.byte	255
	.byte	255
	.byte	1
	.uleb128 Lcst_end1-Lcst_begin1
Lcst_begin1:
	.uleb128 Ltmp89-Lfunc_begin16
	.uleb128 Ltmp90-Ltmp89
	.uleb128 Ltmp91-Lfunc_begin16
	.byte	0
	.uleb128 Ltmp90-Lfunc_begin16
	.uleb128 Lfunc_end16-Ltmp90
	.byte	0
	.byte	0
Lcst_end1:
	.p2align	2

	.section	__TEXT,__text,regular,pure_instructions
	.globl	__ZN4core4iter6traits8iterator8Iterator8for_each4call28_$u7b$$u7b$closure$u7d$$u7d$17h5ed82fda6d0b9cbbE
	.p2align	4, 0x90
__ZN4core4iter6traits8iterator8Iterator8for_each4call28_$u7b$$u7b$closure$u7d$$u7d$17h5ed82fda6d0b9cbbE:
Lfunc_begin17:
	.loc	11 834 0
	.cfi_startproc
	pushq	%rbp
	.cfi_def_cfa_offset 16
	.cfi_offset %rbp, -16
	movq	%rsp, %rbp
	.cfi_def_cfa_register %rbp
	subq	$48, %rsp
	movq	%rdi, -32(%rbp)
	movq	%rsi, -16(%rbp)
	movq	%rdx, -8(%rbp)
Ltmp96:
	.loc	11 834 29 prologue_end
	movq	%rsi, -48(%rbp)
	movq	%rdx, -40(%rbp)
	movq	-48(%rbp), %rsi
	movq	-40(%rbp), %rdx
	callq	__ZN92_$LT$alloc..string..String$u20$as$u20$core..iter..traits..collect..Extend$LT$$RF$str$GT$$GT$6extend28_$u7b$$u7b$closure$u7d$$u7d$17hc82d3777988dd120E
	.loc	11 834 36 is_stmt 0
	addq	$48, %rsp
	popq	%rbp
	retq
Ltmp97:
Lfunc_end17:
	.cfi_endproc

	.globl	__ZN4core5slice29_$LT$impl$u20$$u5b$T$u5d$$GT$6splitn17h531d5fb14a9b9fdfE
	.p2align	4, 0x90
__ZN4core5slice29_$LT$impl$u20$$u5b$T$u5d$$GT$6splitn17h531d5fb14a9b9fdfE:
Lfunc_begin18:
	.file	12 "/rustc/2c8cc343237b8f7d5a3c3703e3a87f2eb2c54a74/library/core/src/slice" "mod.rs"
	.loc	12 2111 0 is_stmt 1
	.cfi_startproc
	pushq	%rbp
	.cfi_def_cfa_offset 16
	.cfi_offset %rbp, -16
	movq	%rsp, %rbp
	.cfi_def_cfa_register %rbp
	subq	$168, %rsp
	movq	%rdi, %rax
	movq	%rsi, -88(%rbp)
	movq	%rdx, -80(%rbp)
	movq	%rcx, -72(%rbp)
Ltmp98:
	.loc	12 2115 21 prologue_end
	movq	%rsi, -40(%rbp)
	movq	%rdx, -32(%rbp)
Ltmp99:
	.loc	12 1943 20
	movq	%rsi, -24(%rbp)
	movq	%rdx, -16(%rbp)
Ltmp100:
	.loc	1 400 9
	movq	%rsi, -168(%rbp)
	movq	%rdx, -160(%rbp)
	movb	$0, -152(%rbp)
Ltmp101:
	.loc	12 2115 39
	movq	%rcx, -8(%rbp)
Ltmp102:
	.loc	1 1135 45
	movq	-168(%rbp), %rdx
	movq	%rdx, -112(%rbp)
	movq	-160(%rbp), %rdx
	movq	%rdx, -104(%rbp)
	movq	-152(%rbp), %rdx
	movq	%rdx, -96(%rbp)
	.loc	1 1135 23 is_stmt 0
	movq	-112(%rbp), %rdx
	movq	%rdx, -136(%rbp)
	movq	-104(%rbp), %rdx
	movq	%rdx, -128(%rbp)
	movq	-96(%rbp), %rdx
	movq	%rdx, -120(%rbp)
	movq	%rcx, -144(%rbp)
	.loc	1 1135 9
	movq	-144(%rbp), %rcx
	movq	%rcx, (%rdi)
	movq	-136(%rbp), %rcx
	movq	%rcx, 8(%rdi)
	movq	-128(%rbp), %rcx
	movq	%rcx, 16(%rdi)
	movq	-120(%rbp), %rcx
	movq	%rcx, 24(%rdi)
Ltmp103:
	.loc	12 2116 6 is_stmt 1
	addq	$168, %rsp
	popq	%rbp
	retq
Ltmp104:
Lfunc_end18:
	.cfi_endproc

	.globl	__ZN4core5slice29_$LT$impl$u20$$u5b$T$u5d$$GT$6splitn17hdf8e2102ea33cb15E
	.p2align	4, 0x90
__ZN4core5slice29_$LT$impl$u20$$u5b$T$u5d$$GT$6splitn17hdf8e2102ea33cb15E:
Lfunc_begin19:
	.loc	12 2111 0
	.cfi_startproc
	pushq	%rbp
	.cfi_def_cfa_offset 16
	.cfi_offset %rbp, -16
	movq	%rsp, %rbp
	.cfi_def_cfa_register %rbp
	subq	$168, %rsp
	movq	%rdi, %rax
	movq	%rsi, -88(%rbp)
	movq	%rdx, -80(%rbp)
	movq	%rcx, -72(%rbp)
Ltmp105:
	.loc	12 2115 21 prologue_end
	movq	%rsi, -40(%rbp)
	movq	%rdx, -32(%rbp)
Ltmp106:
	.loc	12 1943 20
	movq	%rsi, -24(%rbp)
	movq	%rdx, -16(%rbp)
Ltmp107:
	.loc	1 400 9
	movq	%rsi, -168(%rbp)
	movq	%rdx, -160(%rbp)
	movb	$0, -152(%rbp)
Ltmp108:
	.loc	12 2115 39
	movq	%rcx, -8(%rbp)
Ltmp109:
	.loc	1 1135 45
	movq	-168(%rbp), %rdx
	movq	%rdx, -112(%rbp)
	movq	-160(%rbp), %rdx
	movq	%rdx, -104(%rbp)
	movq	-152(%rbp), %rdx
	movq	%rdx, -96(%rbp)
	.loc	1 1135 23 is_stmt 0
	movq	-112(%rbp), %rdx
	movq	%rdx, -136(%rbp)
	movq	-104(%rbp), %rdx
	movq	%rdx, -128(%rbp)
	movq	-96(%rbp), %rdx
	movq	%rdx, -120(%rbp)
	movq	%rcx, -144(%rbp)
	.loc	1 1135 9
	movq	-144(%rbp), %rcx
	movq	%rcx, (%rdi)
	movq	-136(%rbp), %rcx
	movq	%rcx, 8(%rdi)
	movq	-128(%rbp), %rcx
	movq	%rcx, 16(%rdi)
	movq	-120(%rbp), %rcx
	movq	%rcx, 24(%rdi)
Ltmp110:
	.loc	12 2116 6 is_stmt 1
	addq	$168, %rsp
	popq	%rbp
	retq
Ltmp111:
Lfunc_end19:
	.cfi_endproc

	.globl	__ZN4core5slice4iter16IterMut$LT$T$GT$3new17h8e49c63fa5b951e9E
	.p2align	4, 0x90
__ZN4core5slice4iter16IterMut$LT$T$GT$3new17h8e49c63fa5b951e9E:
Lfunc_begin20:
	.loc	1 203 0
	.cfi_startproc
	pushq	%rbp
	.cfi_def_cfa_offset 16
	.cfi_offset %rbp, -16
	movq	%rsp, %rbp
	.cfi_def_cfa_register %rbp
	subq	$288, %rsp
	movq	%rdi, -288(%rbp)
	movq	%rsi, -280(%rbp)
	movq	%rdi, -216(%rbp)
	movq	%rsi, -208(%rbp)
Ltmp112:
	.loc	1 204 19 prologue_end
	movq	%rdi, -192(%rbp)
	movq	%rsi, -184(%rbp)
Ltmp113:
	.loc	12 507 9
	movq	%rdi, -176(%rbp)
Ltmp114:
	.loc	1 222 21
	movq	%rdi, -168(%rbp)
Ltmp115:
	.loc	3 52 36
	movq	%rdi, -240(%rbp)
	.loc	3 52 18 is_stmt 0
	movq	-240(%rbp), %rax
	movq	%rax, -160(%rbp)
Ltmp116:
	.loc	3 38 13 is_stmt 1
	movq	%rax, -152(%rbp)
Ltmp117:
	.loc	3 215 33
	movq	%rax, -144(%rbp)
	.loc	3 215 18 is_stmt 0
	movq	%rax, -136(%rbp)
Ltmp118:
	.loc	1 225 20 is_stmt 1
	xorl	%eax, %eax
	testb	$1, %al
	jne	LBB20_2
	.loc	1 0 20 is_stmt 0
	movq	-280(%rbp), %rcx
	movq	-288(%rbp), %rax
	.loc	1 225 76
	movq	%rax, -48(%rbp)
	.loc	1 225 84
	movq	%rcx, -40(%rbp)
Ltmp119:
	.loc	3 1034 18 is_stmt 1
	movq	%rax, -32(%rbp)
	.loc	3 1034 30 is_stmt 0
	movq	%rcx, -24(%rbp)
Ltmp120:
	.loc	3 487 18 is_stmt 1
	addq	%rcx, %rax
	movq	%rax, -16(%rbp)
	movq	-16(%rbp), %rax
	movq	%rax, -256(%rbp)
Ltmp121:
	.loc	1 225 17
	jmp	LBB20_3
LBB20_2:
	.loc	1 0 17 is_stmt 0
	movq	-280(%rbp), %rcx
	movq	-288(%rbp), %rax
	.loc	1 225 32
	movq	%rax, -128(%rbp)
	.loc	1 225 54
	movq	%rcx, -120(%rbp)
Ltmp122:
	.loc	3 1220 9 is_stmt 1
	movq	%rax, -112(%rbp)
Ltmp123:
	.loc	3 60 9
	movq	%rax, -104(%rbp)
Ltmp124:
	.loc	3 1220 40
	movq	%rcx, -96(%rbp)
Ltmp125:
	.loc	3 1202 9
	movq	%rax, -88(%rbp)
	.loc	3 1202 30 is_stmt 0
	movq	%rcx, -80(%rbp)
Ltmp126:
	.loc	3 568 18 is_stmt 1
	addq	%rcx, %rax
	movq	%rax, -72(%rbp)
	movq	-72(%rbp), %rax
	movq	%rax, -64(%rbp)
Ltmp127:
	.loc	3 99 33
	movq	%rax, -56(%rbp)
Ltmp128:
	.loc	5 135 36
	movq	%rax, -224(%rbp)
	.loc	5 135 14 is_stmt 0
	movq	-224(%rbp), %rax
	movq	%rax, -232(%rbp)
	movq	-232(%rbp), %rax
	movq	%rax, -256(%rbp)
Ltmp129:
LBB20_3:
	.loc	5 0 14
	movq	-288(%rbp), %rax
Ltmp130:
	.loc	1 227 48 is_stmt 1
	movq	%rax, -8(%rbp)
Ltmp131:
	.file	13 "/rustc/2c8cc343237b8f7d5a3c3703e3a87f2eb2c54a74/library/core/src/ptr" "non_null.rs"
	.loc	13 201 13
	movq	%rax, -248(%rbp)
Ltmp132:
	.loc	1 227 54
	movq	-256(%rbp), %rax
	.loc	1 227 13 is_stmt 0
	movq	-248(%rbp), %rcx
	movq	%rcx, -264(%rbp)
	movq	%rax, -272(%rbp)
Ltmp133:
	.loc	1 229 6 is_stmt 1
	movq	-272(%rbp), %rax
	movq	-264(%rbp), %rdx
	addq	$288, %rsp
	popq	%rbp
	retq
Ltmp134:
Lfunc_end20:
	.cfi_endproc

	.globl	__ZN4core5slice4iter95_$LT$impl$u20$core..iter..traits..collect..IntoIterator$u20$for$u20$$RF$mut$u20$$u5b$T$u5d$$GT$9into_iter17hafa16b484d8fa05bE
	.p2align	4, 0x90
__ZN4core5slice4iter95_$LT$impl$u20$core..iter..traits..collect..IntoIterator$u20$for$u20$$RF$mut$u20$$u5b$T$u5d$$GT$9into_iter17hafa16b484d8fa05bE:
Lfunc_begin21:
	.loc	1 33 0
	.cfi_startproc
	pushq	%rbp
	.cfi_def_cfa_offset 16
	.cfi_offset %rbp, -16
	movq	%rsp, %rbp
	.cfi_def_cfa_register %rbp
	subq	$32, %rsp
	movq	%rdi, -32(%rbp)
	movq	%rsi, -24(%rbp)
Ltmp135:
	.loc	1 34 9 prologue_end
	movq	%rdi, -16(%rbp)
	movq	%rsi, -8(%rbp)
Ltmp136:
	.loc	12 761 9
	callq	__ZN4core5slice4iter16IterMut$LT$T$GT$3new17h8e49c63fa5b951e9E
Ltmp137:
	.loc	1 35 6
	addq	$32, %rsp
	popq	%rbp
	retq
Ltmp138:
Lfunc_end21:
	.cfi_endproc

	.globl	__ZN4core6option15Option$LT$T$GT$3map17h504d9ef4b16ba0c9E
	.p2align	4, 0x90
__ZN4core6option15Option$LT$T$GT$3map17h504d9ef4b16ba0c9E:
Lfunc_begin22:
	.file	14 "/rustc/2c8cc343237b8f7d5a3c3703e3a87f2eb2c54a74/library/core/src" "option.rs"
	.loc	14 964 0
	.cfi_startproc
	pushq	%rbp
	.cfi_def_cfa_offset 16
	.cfi_offset %rbp, -16
	movq	%rsp, %rbp
	.cfi_def_cfa_register %rbp
	subq	$288, %rsp
	movq	%rsi, -280(%rbp)
Ltmp139:
	movq	%rdi, -272(%rbp)
	movq	%rdi, -264(%rbp)
Ltmp140:
	.loc	14 969 15 prologue_end
	movb	$1, -9(%rbp)
	movl	$1, %eax
	xorl	%ecx, %ecx
	cmpq	$2, (%rsi)
	cmoveq	%rcx, %rax
	.loc	14 969 9 is_stmt 0
	cmpq	$0, %rax
Ltmp141:
	jne	LBB22_2
Ltmp142:
	.loc	14 0 9
	movq	-272(%rbp), %rax
	.loc	14 971 21 is_stmt 1
	movq	$0, 8(%rax)
	jmp	LBB22_3
Ltmp143:
LBB22_2:
	.loc	14 0 21 is_stmt 0
	movq	-280(%rbp), %rsi
	.loc	14 970 18 is_stmt 1
	leaq	-256(%rbp), %rdi
	movl	$64, %edx
	callq	_memcpy
Ltmp144:
	.loc	14 970 29 is_stmt 0
	movb	$0, -9(%rbp)
	.loc	14 970 31
	leaq	-80(%rbp), %rdi
	leaq	-256(%rbp), %rsi
	movl	$64, %edx
	callq	_memcpy
	.loc	14 970 29
	leaq	-144(%rbp), %rdi
	leaq	-80(%rbp), %rsi
	movl	$64, %edx
	callq	_memcpy
	leaq	-192(%rbp), %rdi
	leaq	-144(%rbp), %rsi
	callq	__ZN90_$LT$form_urlencoded..ParseIntoOwned$u20$as$u20$core..iter..traits..iterator..Iterator$GT$4next28_$u7b$$u7b$closure$u7d$$u7d$17h3d82151a423ba02dE
	movq	-272(%rbp), %rdi
	.loc	14 970 24
	leaq	-192(%rbp), %rsi
	movl	$48, %edx
	callq	_memcpy
Ltmp145:
LBB22_3:
	.loc	14 973 5 is_stmt 1
	testb	$1, -9(%rbp)
	jne	LBB22_5
Ltmp146:
LBB22_4:
	.loc	14 0 5 is_stmt 0
	movq	-264(%rbp), %rax
	.loc	14 973 6
	addq	$288, %rsp
	popq	%rbp
	retq
Ltmp147:
LBB22_5:
	.loc	14 973 5
	jmp	LBB22_4
Ltmp148:
Lfunc_end22:
	.cfi_endproc

	.globl	__ZN4core6option15Option$LT$T$GT$6unwrap17h3f2edb45ef5e3787E
	.p2align	4, 0x90
__ZN4core6option15Option$LT$T$GT$6unwrap17h3f2edb45ef5e3787E:
Lfunc_begin23:
	.loc	14 820 0 is_stmt 1
	.cfi_startproc
	pushq	%rbp
	.cfi_def_cfa_offset 16
	.cfi_offset %rbp, -16
	movq	%rsp, %rbp
	.cfi_def_cfa_register %rbp
	subq	$48, %rsp
	movq	%rdx, -40(%rbp)
	movq	%rdi, -32(%rbp)
	movq	%rsi, -24(%rbp)
Ltmp149:
	.loc	14 821 15 prologue_end
	movq	-32(%rbp), %rdx
	movl	$1, %eax
	xorl	%ecx, %ecx
	cmpq	$0, %rdx
	cmoveq	%rcx, %rax
	.loc	14 821 9 is_stmt 0
	cmpq	$0, %rax
	jne	LBB23_2
	.loc	14 0 9
	movq	-40(%rbp), %rdx
	.loc	14 823 21 is_stmt 1
	leaq	l___unnamed_8(%rip), %rdi
	movl	$43, %esi
	callq	__ZN4core9panicking5panic17hc1bc45270cf64b03E
LBB23_2:
	.loc	14 822 18
	movq	-32(%rbp), %rax
	movq	-24(%rbp), %rdx
	movq	%rax, -16(%rbp)
	movq	%rdx, -8(%rbp)
	.loc	14 825 6
	addq	$48, %rsp
	popq	%rbp
	retq
Ltmp150:
Lfunc_end23:
	.cfi_endproc

	.globl	__ZN4core6option15Option$LT$T$GT$9unwrap_or17h42c777968288e6f1E
	.p2align	4, 0x90
__ZN4core6option15Option$LT$T$GT$9unwrap_or17h42c777968288e6f1E:
Lfunc_begin24:
	.loc	14 844 0
	.cfi_startproc
	pushq	%rbp
	.cfi_def_cfa_offset 16
	.cfi_offset %rbp, -16
	movq	%rsp, %rbp
	.cfi_def_cfa_register %rbp
	subq	$88, %rsp
	movq	%rdx, -88(%rbp)
	movq	%rcx, -80(%rbp)
	movq	%rdi, -72(%rbp)
	movq	%rsi, -64(%rbp)
	movq	%rdx, -32(%rbp)
	movq	%rcx, -24(%rbp)
Ltmp151:
	.loc	14 848 15 prologue_end
	movb	$1, -33(%rbp)
	movq	-72(%rbp), %rdx
	movl	$1, %eax
	xorl	%ecx, %ecx
	cmpq	$0, %rdx
	cmoveq	%rcx, %rax
	.loc	14 848 9 is_stmt 0
	cmpq	$0, %rax
	jne	LBB24_2
	.loc	14 0 9
	movq	-80(%rbp), %rax
	movq	-88(%rbp), %rcx
	.loc	14 850 21 is_stmt 1
	movb	$0, -33(%rbp)
	movq	%rcx, -56(%rbp)
	movq	%rax, -48(%rbp)
	jmp	LBB24_3
LBB24_2:
	.loc	14 849 18
	movq	-72(%rbp), %rcx
	movq	-64(%rbp), %rax
	movq	%rcx, -16(%rbp)
	movq	%rax, -8(%rbp)
Ltmp152:
	.loc	14 849 24 is_stmt 0
	movq	%rcx, -56(%rbp)
	movq	%rax, -48(%rbp)
Ltmp153:
LBB24_3:
	.loc	14 852 5 is_stmt 1
	testb	$1, -33(%rbp)
	jne	LBB24_5
LBB24_4:
	.loc	14 852 6 is_stmt 0
	movq	-56(%rbp), %rax
	movq	-48(%rbp), %rdx
	addq	$88, %rsp
	popq	%rbp
	retq
LBB24_5:
	.loc	14 852 5
	jmp	LBB24_4
Ltmp154:
Lfunc_end24:
	.cfi_endproc

	.globl	__ZN50_$LT$T$u20$as$u20$core..convert..Into$LT$U$GT$$GT$4into17h21b0f7513033702eE
	.p2align	4, 0x90
__ZN50_$LT$T$u20$as$u20$core..convert..Into$LT$U$GT$$GT$4into17h21b0f7513033702eE:
Lfunc_begin25:
	.file	15 "/rustc/2c8cc343237b8f7d5a3c3703e3a87f2eb2c54a74/library/core/src/convert" "mod.rs"
	.loc	15 725 0 is_stmt 1
	.cfi_startproc
	pushq	%rbp
	.cfi_def_cfa_offset 16
	.cfi_offset %rbp, -16
	movq	%rsp, %rbp
	.cfi_def_cfa_register %rbp
	subq	$32, %rsp
	movq	%rdi, %rax
	movq	%rax, -24(%rbp)
	movq	%rsi, -16(%rbp)
	movq	%rdx, -8(%rbp)
Ltmp155:
	.loc	15 726 9 prologue_end
	callq	__ZN5alloc3vec3cow110_$LT$impl$u20$core..convert..From$LT$$RF$$u5b$T$u5d$$GT$$u20$for$u20$alloc..borrow..Cow$LT$$u5b$T$u5d$$GT$$GT$4from17h2b39a2f79642e344E
	movq	-24(%rbp), %rax
	.loc	15 727 6
	addq	$32, %rsp
	popq	%rbp
	retq
Ltmp156:
Lfunc_end25:
	.cfi_endproc

	.p2align	4, 0x90
__ZN5alloc3str56_$LT$impl$u20$alloc..borrow..ToOwned$u20$for$u20$str$GT$8to_owned17h31f79b9e7d5e5cb2E:
Lfunc_begin26:
	.file	16 "/rustc/2c8cc343237b8f7d5a3c3703e3a87f2eb2c54a74/library/alloc/src" "str.rs"
	.loc	16 208 0
	.cfi_startproc
	pushq	%rbp
	.cfi_def_cfa_offset 16
	.cfi_offset %rbp, -16
	movq	%rsp, %rbp
	.cfi_def_cfa_register %rbp
	subq	$112, %rsp
	movq	%rdi, -112(%rbp)
	movq	%rdi, -104(%rbp)
	movq	%rsi, -48(%rbp)
	movq	%rdx, -40(%rbp)
Ltmp157:
	.loc	16 209 46 prologue_end
	movq	%rsi, -32(%rbp)
	movq	%rdx, -24(%rbp)
Ltmp158:
	.file	17 "/rustc/2c8cc343237b8f7d5a3c3703e3a87f2eb2c54a74/library/core/src/str" "mod.rs"
	.loc	17 327 18
	movq	%rsi, -16(%rbp)
	movq	%rdx, -8(%rbp)
	movq	-16(%rbp), %rsi
	movq	-8(%rbp), %rdx
Ltmp159:
	.loc	16 209 46
	leaq	-96(%rbp), %rdi
	callq	__ZN5alloc5slice64_$LT$impl$u20$alloc..borrow..ToOwned$u20$for$u20$$u5b$T$u5d$$GT$8to_owned17h607b302c8a77fb8aE
	movq	-112(%rbp), %rdi
	movq	-104(%rbp), %rax
Ltmp160:
	.file	18 "/rustc/2c8cc343237b8f7d5a3c3703e3a87f2eb2c54a74/library/alloc/src" "string.rs"
	.loc	18 846 23
	movq	-96(%rbp), %rcx
	movq	%rcx, -72(%rbp)
	movq	-88(%rbp), %rcx
	movq	%rcx, -64(%rbp)
	movq	-80(%rbp), %rcx
	movq	%rcx, -56(%rbp)
	.loc	18 846 9 is_stmt 0
	movq	-72(%rbp), %rcx
	movq	%rcx, (%rdi)
	movq	-64(%rbp), %rcx
	movq	%rcx, 8(%rdi)
	movq	-56(%rbp), %rcx
	movq	%rcx, 16(%rdi)
Ltmp161:
	.loc	16 210 6 is_stmt 1
	addq	$112, %rsp
	popq	%rbp
	retq
Ltmp162:
Lfunc_end26:
	.cfi_endproc

	.globl	__ZN5alloc3vec3cow110_$LT$impl$u20$core..convert..From$LT$$RF$$u5b$T$u5d$$GT$$u20$for$u20$alloc..borrow..Cow$LT$$u5b$T$u5d$$GT$$GT$4from17h2b39a2f79642e344E
	.p2align	4, 0x90
__ZN5alloc3vec3cow110_$LT$impl$u20$core..convert..From$LT$$RF$$u5b$T$u5d$$GT$$u20$for$u20$alloc..borrow..Cow$LT$$u5b$T$u5d$$GT$$GT$4from17h2b39a2f79642e344E:
Lfunc_begin27:
	.file	19 "/rustc/2c8cc343237b8f7d5a3c3703e3a87f2eb2c54a74/library/alloc/src/vec" "cow.rs"
	.loc	19 14 0
	.cfi_startproc
	pushq	%rbp
	.cfi_def_cfa_offset 16
	.cfi_offset %rbp, -16
	movq	%rsp, %rbp
	.cfi_def_cfa_register %rbp
	subq	$16, %rsp
	movq	%rdi, %rax
	movq	%rsi, -16(%rbp)
	movq	%rdx, -8(%rbp)
Ltmp163:
	.loc	19 15 9 prologue_end
	movq	%rsi, 8(%rdi)
	movq	%rdx, 16(%rdi)
	movq	$0, (%rdi)
	.loc	19 16 6
	addq	$16, %rsp
	popq	%rbp
	retq
Ltmp164:
Lfunc_end27:
	.cfi_endproc

	.globl	__ZN5alloc5slice98_$LT$impl$u20$core..borrow..Borrow$LT$$u5b$T$u5d$$GT$$u20$for$u20$alloc..vec..Vec$LT$T$C$A$GT$$GT$6borrow17h5f560cbf28975c98E
	.p2align	4, 0x90
__ZN5alloc5slice98_$LT$impl$u20$core..borrow..Borrow$LT$$u5b$T$u5d$$GT$$u20$for$u20$alloc..vec..Vec$LT$T$C$A$GT$$GT$6borrow17h5f560cbf28975c98E:
Lfunc_begin28:
	.file	20 "/rustc/2c8cc343237b8f7d5a3c3703e3a87f2eb2c54a74/library/alloc/src" "slice.rs"
	.loc	20 773 0
	.cfi_startproc
	pushq	%rbp
	.cfi_def_cfa_offset 16
	.cfi_offset %rbp, -16
	movq	%rsp, %rbp
	.cfi_def_cfa_register %rbp
	subq	$16, %rsp
	movq	%rdi, -8(%rbp)
Ltmp165:
	.loc	20 774 10 prologue_end
	leaq	l___unnamed_9(%rip), %rsi
	callq	__ZN81_$LT$alloc..vec..Vec$LT$T$C$A$GT$$u20$as$u20$core..ops..index..Index$LT$I$GT$$GT$5index17h0f36cb1f862f907fE
	.loc	20 775 6
	addq	$16, %rsp
	popq	%rbp
	retq
Ltmp166:
Lfunc_end28:
	.cfi_endproc

	.globl	__ZN5alloc6borrow12Cow$LT$B$GT$10into_owned17hd7c5e18536026b35E
	.p2align	4, 0x90
__ZN5alloc6borrow12Cow$LT$B$GT$10into_owned17hd7c5e18536026b35E:
Lfunc_begin29:
	.file	21 "/rustc/2c8cc343237b8f7d5a3c3703e3a87f2eb2c54a74/library/alloc/src" "borrow.rs"
	.loc	21 322 0
	.cfi_startproc
	pushq	%rbp
	.cfi_def_cfa_offset 16
	.cfi_offset %rbp, -16
	movq	%rsp, %rbp
	.cfi_def_cfa_register %rbp
	subq	$64, %rsp
	movq	%rsi, -64(%rbp)
Ltmp167:
	movq	%rdi, -56(%rbp)
	movq	%rdi, -48(%rbp)
Ltmp168:
	.loc	21 323 9 prologue_end
	cmpq	$0, (%rsi)
Ltmp169:
	jne	LBB29_2
Ltmp170:
	.loc	21 0 9 is_stmt 0
	movq	-56(%rbp), %rdi
	movq	-64(%rbp), %rax
	.loc	21 324 22 is_stmt 1
	movq	8(%rax), %rsi
	movq	16(%rax), %rdx
	movq	%rsi, -16(%rbp)
	movq	%rdx, -8(%rbp)
Ltmp171:
	.loc	21 324 35 is_stmt 0
	callq	__ZN5alloc3str56_$LT$impl$u20$alloc..borrow..ToOwned$u20$for$u20$str$GT$8to_owned17h31f79b9e7d5e5cb2E
Ltmp172:
	.loc	21 324 53
	jmp	LBB29_3
Ltmp173:
LBB29_2:
	.loc	21 0 53
	movq	-56(%rbp), %rax
	movq	-64(%rbp), %rcx
	.loc	21 325 19 is_stmt 1
	movq	8(%rcx), %rdx
	movq	%rdx, -40(%rbp)
	movq	16(%rcx), %rdx
	movq	%rdx, -32(%rbp)
	movq	24(%rcx), %rcx
	movq	%rcx, -24(%rbp)
Ltmp174:
	.loc	21 325 29 is_stmt 0
	movq	-40(%rbp), %rcx
	movq	%rcx, (%rax)
	movq	-32(%rbp), %rcx
	movq	%rcx, 8(%rax)
	movq	-24(%rbp), %rcx
	movq	%rcx, 16(%rax)
Ltmp175:
LBB29_3:
	.loc	21 0 29
	movq	-48(%rbp), %rax
	.loc	21 327 6 is_stmt 1
	addq	$64, %rsp
	popq	%rbp
	retq
Ltmp176:
Lfunc_end29:
	.cfi_endproc

	.p2align	4, 0x90
__ZN5alloc6string6String19from_utf8_unchecked17hbbcb211b99e6e546E:
Lfunc_begin30:
	.loc	18 845 0
	.cfi_startproc
	pushq	%rbp
	.cfi_def_cfa_offset 16
	.cfi_offset %rbp, -16
	movq	%rsp, %rbp
	.cfi_def_cfa_register %rbp
	subq	$24, %rsp
	movq	%rdi, %rax
Ltmp177:
	.loc	18 846 23 prologue_end
	movq	(%rsi), %rcx
	movq	%rcx, -24(%rbp)
	movq	8(%rsi), %rcx
	movq	%rcx, -16(%rbp)
	movq	16(%rsi), %rcx
	movq	%rcx, -8(%rbp)
	.loc	18 846 9 is_stmt 0
	movq	-24(%rbp), %rcx
	movq	%rcx, (%rdi)
	movq	-16(%rbp), %rcx
	movq	%rcx, 8(%rdi)
	movq	-8(%rbp), %rcx
	movq	%rcx, 16(%rdi)
	.loc	18 847 6 is_stmt 1
	addq	$24, %rsp
	popq	%rbp
	retq
Ltmp178:
Lfunc_end30:
	.cfi_endproc

	.p2align	4, 0x90
__ZN5alloc6string6String3len17hc63c040bbb40553bE:
Lfunc_begin31:
	.loc	18 1636 0
	.cfi_startproc
	pushq	%rbp
	.cfi_def_cfa_offset 16
	.cfi_offset %rbp, -16
	movq	%rsp, %rbp
	.cfi_def_cfa_register %rbp
	subq	$16, %rsp
	movq	%rdi, -16(%rbp)
Ltmp179:
	.loc	18 1637 9 prologue_end
	movq	%rdi, -8(%rbp)
Ltmp180:
	.file	22 "/rustc/2c8cc343237b8f7d5a3c3703e3a87f2eb2c54a74/library/alloc/src/vec" "mod.rs"
	.loc	22 2062 9
	movq	16(%rdi), %rax
Ltmp181:
	.loc	18 1638 6
	addq	$16, %rsp
	popq	%rbp
	retq
Ltmp182:
Lfunc_end31:
	.cfi_endproc

	.p2align	4, 0x90
__ZN5alloc6string6String4push17h9ed39937b12f5c11E:
Lfunc_begin32:
	.loc	18 1223 0
	.cfi_startproc
	pushq	%rbp
	.cfi_def_cfa_offset 16
	.cfi_offset %rbp, -16
	movq	%rsp, %rbp
	.cfi_def_cfa_register %rbp
	subq	$112, %rsp
	movl	%esi, -108(%rbp)
	movq	%rdi, %rax
	movl	-108(%rbp), %edi
	movq	%rax, -104(%rbp)
	movl	%edi, -96(%rbp)
	movq	%rax, -88(%rbp)
	movl	%edi, -76(%rbp)
Ltmp183:
	.loc	18 1224 15 prologue_end
	movl	%edi, -72(%rbp)
Ltmp184:
	.loc	10 594 9
	callq	__ZN4core4char7methods8len_utf817hc09464d234c573b3E
Ltmp185:
	.loc	18 1224 9
	cmpq	$1, %rax
	jne	LBB32_2
	.loc	18 0 9 is_stmt 0
	movq	-104(%rbp), %rdi
	movl	-96(%rbp), %eax
	.loc	18 1225 18 is_stmt 1
	movzbl	%al, %esi
	callq	__ZN5alloc3vec16Vec$LT$T$C$A$GT$4push17h5b26a73daf2eef37E
	.loc	18 1225 40 is_stmt 0
	jmp	LBB32_3
LBB32_2:
	.loc	18 0 40
	movl	-96(%rbp), %eax
	.loc	18 1226 45 is_stmt 1
	movl	%eax, -68(%rbp)
	.loc	18 1226 65 is_stmt 0
	leaq	-92(%rbp), %rdi
	xorl	%esi, %esi
	movl	$4, %edx
	callq	_memset
	movl	-96(%rbp), %edi
	.loc	18 1226 60
	leaq	-92(%rbp), %rax
	movq	%rax, -64(%rbp)
	movq	$4, -56(%rbp)
Ltmp186:
	.loc	10 663 42 is_stmt 1
	leaq	-92(%rbp), %rsi
	movl	$4, %edx
	callq	__ZN4core4char7methods15encode_utf8_raw17h1655ab99caba59eeE
	movq	-104(%rbp), %rdi
	movq	%rax, -48(%rbp)
	movq	%rdx, -40(%rbp)
Ltmp187:
	.loc	18 1226 45
	movq	%rax, -32(%rbp)
	movq	%rdx, -24(%rbp)
Ltmp188:
	.loc	17 327 18
	movq	%rax, -16(%rbp)
	movq	%rdx, -8(%rbp)
	movq	-16(%rbp), %rsi
	movq	-8(%rbp), %rdx
Ltmp189:
	.loc	18 1226 18
	callq	__ZN5alloc3vec16Vec$LT$T$C$A$GT$17extend_from_slice17haa8f2ee62292ceaaE
LBB32_3:
	.loc	18 1228 6
	addq	$112, %rsp
	popq	%rbp
	retq
Ltmp190:
Lfunc_end32:
	.cfi_endproc

	.globl	__ZN63_$LT$I$u20$as$u20$core..iter..traits..collect..IntoIterator$GT$9into_iter17h59be5e989770a322E
	.p2align	4, 0x90
__ZN63_$LT$I$u20$as$u20$core..iter..traits..collect..IntoIterator$GT$9into_iter17h59be5e989770a322E:
Lfunc_begin33:
	.file	23 "/rustc/2c8cc343237b8f7d5a3c3703e3a87f2eb2c54a74/library/core/src/iter/traits" "collect.rs"
	.loc	23 272 0
	.cfi_startproc
	pushq	%rbp
	.cfi_def_cfa_offset 16
	.cfi_offset %rbp, -16
	movq	%rsp, %rbp
	.cfi_def_cfa_register %rbp
	subq	$16, %rsp
	movq	%rsi, %rdx
	movq	%rdi, %rax
	movq	%rax, -16(%rbp)
	movq	%rdx, -8(%rbp)
Ltmp191:
	.loc	23 274 6 prologue_end
	addq	$16, %rsp
	popq	%rbp
	retq
Ltmp192:
Lfunc_end33:
	.cfi_endproc

	.globl	__ZN71_$LT$alloc..borrow..Cow$LT$B$GT$$u20$as$u20$core..ops..deref..Deref$GT$5deref17hda8a4c072267bce4E
	.p2align	4, 0x90
__ZN71_$LT$alloc..borrow..Cow$LT$B$GT$$u20$as$u20$core..ops..deref..Deref$GT$5deref17hda8a4c072267bce4E:
Lfunc_begin34:
	.loc	21 338 0
	.cfi_startproc
	pushq	%rbp
	.cfi_def_cfa_offset 16
	.cfi_offset %rbp, -16
	movq	%rsp, %rbp
	.cfi_def_cfa_register %rbp
	subq	$64, %rsp
	movq	%rdi, -56(%rbp)
	movq	%rdi, -32(%rbp)
Ltmp193:
	.loc	21 339 9 prologue_end
	cmpq	$0, (%rdi)
	jne	LBB34_2
	.loc	21 0 9 is_stmt 0
	movq	-56(%rbp), %rax
	.loc	21 340 22 is_stmt 1
	movq	8(%rax), %rcx
	movq	16(%rax), %rax
	movq	%rcx, -16(%rbp)
	movq	%rax, -8(%rbp)
Ltmp194:
	.loc	21 340 35 is_stmt 0
	movq	%rcx, -48(%rbp)
	movq	%rax, -40(%rbp)
Ltmp195:
	.loc	21 340 42
	jmp	LBB34_3
LBB34_2:
	.loc	21 0 42
	movq	-56(%rbp), %rdi
	.loc	21 341 19 is_stmt 1
	addq	$8, %rdi
	movq	%rdi, -24(%rbp)
Ltmp196:
	.loc	21 341 33 is_stmt 0
	callq	__ZN5alloc5slice98_$LT$impl$u20$core..borrow..Borrow$LT$$u5b$T$u5d$$GT$$u20$for$u20$alloc..vec..Vec$LT$T$C$A$GT$$GT$6borrow17h5f560cbf28975c98E
	movq	%rax, -48(%rbp)
	movq	%rdx, -40(%rbp)
Ltmp197:
LBB34_3:
	.loc	21 343 6 is_stmt 1
	movq	-48(%rbp), %rax
	movq	-40(%rbp), %rdx
	addq	$64, %rsp
	popq	%rbp
	retq
Ltmp198:
Lfunc_end34:
	.cfi_endproc

	.globl	__ZN75_$LT$alloc..vec..Vec$LT$T$C$A$GT$$u20$as$u20$core..ops..deref..DerefMut$GT$9deref_mut17h5a0eccb03053887cE
	.p2align	4, 0x90
__ZN75_$LT$alloc..vec..Vec$LT$T$C$A$GT$$u20$as$u20$core..ops..deref..DerefMut$GT$9deref_mut17h5a0eccb03053887cE:
Lfunc_begin35:
	.loc	22 2644 0
	.cfi_startproc
	pushq	%rbp
	.cfi_def_cfa_offset 16
	.cfi_offset %rbp, -16
	movq	%rsp, %rbp
	.cfi_def_cfa_register %rbp
	subq	$176, %rsp
	movq	%rdi, -136(%rbp)
Ltmp199:
	.loc	22 2645 44 prologue_end
	movq	%rdi, -128(%rbp)
Ltmp200:
	.loc	22 1280 19
	movq	%rdi, -120(%rbp)
Ltmp201:
	.file	24 "/rustc/2c8cc343237b8f7d5a3c3703e3a87f2eb2c54a74/library/alloc/src" "raw_vec.rs"
	.loc	24 224 9
	movq	8(%rdi), %rcx
	movq	%rcx, -112(%rbp)
Ltmp202:
	.file	25 "/rustc/2c8cc343237b8f7d5a3c3703e3a87f2eb2c54a74/library/core/src/ptr" "unique.rs"
	.loc	25 104 9
	movq	%rcx, -104(%rbp)
Ltmp203:
	.loc	13 326 9
	movq	%rcx, -96(%rbp)
Ltmp204:
	.loc	22 1282 21
	movq	%rcx, -88(%rbp)
Ltmp205:
	.loc	3 52 36
	movq	%rcx, -176(%rbp)
	.loc	3 52 18 is_stmt 0
	movq	-176(%rbp), %rax
	movq	%rax, -80(%rbp)
Ltmp206:
	.loc	3 38 13 is_stmt 1
	movq	%rax, -72(%rbp)
Ltmp207:
	.loc	3 215 33
	movq	%rax, -64(%rbp)
	.loc	3 215 18 is_stmt 0
	movq	%rax, -56(%rbp)
Ltmp208:
	.loc	22 2645 63 is_stmt 1
	movq	16(%rdi), %rax
	movq	%rax, -48(%rbp)
Ltmp209:
	.file	26 "/rustc/2c8cc343237b8f7d5a3c3703e3a87f2eb2c54a74/library/core/src/slice" "raw.rs"
	.loc	26 145 45
	movq	%rcx, -40(%rbp)
	.loc	26 145 51 is_stmt 0
	movq	%rax, -32(%rbp)
Ltmp210:
	.loc	4 766 24 is_stmt 1
	movq	%rcx, -24(%rbp)
Ltmp211:
	.loc	3 60 9
	movq	%rcx, -16(%rbp)
Ltmp212:
	.loc	4 766 37
	movq	%rax, -8(%rbp)
Ltmp213:
	.loc	5 135 36
	movq	%rcx, -152(%rbp)
	movq	%rax, -144(%rbp)
	.loc	5 135 14 is_stmt 0
	movq	-152(%rbp), %rcx
	movq	-144(%rbp), %rax
	movq	%rcx, -168(%rbp)
	movq	%rax, -160(%rbp)
	movq	-168(%rbp), %rax
	movq	-160(%rbp), %rdx
Ltmp214:
	.loc	22 2646 6 is_stmt 1
	addq	$176, %rsp
	popq	%rbp
	retq
Ltmp215:
Lfunc_end35:
	.cfi_endproc

	.globl	__ZN75_$LT$usize$u20$as$u20$core..slice..index..SliceIndex$LT$$u5b$T$u5d$$GT$$GT$9index_mut17hd81c17c7b6fe0b8eE
	.p2align	4, 0x90
__ZN75_$LT$usize$u20$as$u20$core..slice..index..SliceIndex$LT$$u5b$T$u5d$$GT$$GT$9index_mut17hd81c17c7b6fe0b8eE:
Lfunc_begin36:
	.loc	2 264 0
	.cfi_startproc
	pushq	%rbp
	.cfi_def_cfa_offset 16
	.cfi_offset %rbp, -16
	movq	%rsp, %rbp
	.cfi_def_cfa_register %rbp
	subq	$64, %rsp
	movq	%rdi, -56(%rbp)
	movq	%rsi, -48(%rbp)
	movq	%rdx, -40(%rbp)
	movq	%rcx, -32(%rbp)
	movq	%rdi, -24(%rbp)
	movq	%rsi, -16(%rbp)
	movq	%rdx, -8(%rbp)
Ltmp216:
	.loc	2 266 14 prologue_end
	cmpq	%rdx, %rdi
	setb	%al
	testb	$1, %al
	jne	LBB36_1
	jmp	LBB36_2
LBB36_1:
	.loc	2 0 14 is_stmt 0
	movq	-56(%rbp), %rcx
	movq	-48(%rbp), %rax
	.loc	2 266 9
	addq	%rcx, %rax
	.loc	2 267 6 is_stmt 1
	addq	$64, %rsp
	popq	%rbp
	retq
LBB36_2:
	.loc	2 0 6 is_stmt 0
	movq	-32(%rbp), %rdx
	movq	-40(%rbp), %rsi
	movq	-56(%rbp), %rdi
	.loc	2 266 14 is_stmt 1
	callq	__ZN4core9panicking18panic_bounds_check17hacb8a94866cda541E
Ltmp217:
Lfunc_end36:
	.cfi_endproc

	.globl	__ZN81_$LT$alloc..vec..Vec$LT$T$C$A$GT$$u20$as$u20$core..ops..index..Index$LT$I$GT$$GT$5index17h0f36cb1f862f907fE
	.p2align	4, 0x90
__ZN81_$LT$alloc..vec..Vec$LT$T$C$A$GT$$u20$as$u20$core..ops..index..Index$LT$I$GT$$GT$5index17h0f36cb1f862f907fE:
Lfunc_begin37:
	.loc	22 2731 0
	.cfi_startproc
	.cfi_personality 155, _rust_eh_personality
	.cfi_lsda 16, Lexception2
	pushq	%rbp
	.cfi_def_cfa_offset 16
	.cfi_offset %rbp, -16
	movq	%rsp, %rbp
	.cfi_def_cfa_register %rbp
	subq	$112, %rsp
	movq	%rsi, -88(%rbp)
	movq	%rdi, -56(%rbp)
Ltmp223:
	.loc	22 2732 9 prologue_end
	movb	$1, -57(%rbp)
Ltmp218:
	.loc	22 2732 23 is_stmt 0
	callq	__ZN72_$LT$alloc..vec..Vec$LT$T$C$A$GT$$u20$as$u20$core..ops..deref..Deref$GT$5deref17h7a5c131a8ce8beeeE
Ltmp219:
	movq	%rdx, -80(%rbp)
	movq	%rax, -72(%rbp)
	jmp	LBB37_3
LBB37_1:
	.loc	22 2733 5 is_stmt 1
	testb	$1, -57(%rbp)
	jne	LBB37_6
	jmp	LBB37_5
LBB37_2:
Ltmp222:
	.loc	22 0 5 is_stmt 0
	movq	%rax, %rcx
	movl	%edx, %eax
	movq	%rcx, -32(%rbp)
	movl	%eax, -24(%rbp)
	jmp	LBB37_1
LBB37_3:
	movq	-88(%rbp), %rdx
	movq	-80(%rbp), %rsi
	movq	-72(%rbp), %rdi
	.loc	22 2732 22 is_stmt 1
	movq	%rdi, -16(%rbp)
	movq	%rsi, -8(%rbp)
	.loc	22 2732 31 is_stmt 0
	movb	$0, -57(%rbp)
Ltmp220:
Ltmp224:
	.loc	2 18 9 is_stmt 1
	callq	__ZN97_$LT$core..ops..range..RangeFull$u20$as$u20$core..slice..index..SliceIndex$LT$$u5b$T$u5d$$GT$$GT$5index17h72fc98fcc13f5d57E
Ltmp221:
	movq	%rdx, -104(%rbp)
	movq	%rax, -96(%rbp)
	jmp	LBB37_4
Ltmp225:
LBB37_4:
	.loc	2 0 9 is_stmt 0
	movq	-104(%rbp), %rdx
	movq	-96(%rbp), %rax
	.loc	22 2733 6 is_stmt 1
	addq	$112, %rsp
	popq	%rbp
	retq
LBB37_5:
	.loc	22 2731 5
	movq	-32(%rbp), %rdi
	callq	__Unwind_Resume
LBB37_6:
	.loc	22 2733 5
	jmp	LBB37_5
Ltmp226:
Lfunc_end37:
	.cfi_endproc
	.section	__TEXT,__gcc_except_tab
	.p2align	2
GCC_except_table37:
Lexception2:
	.byte	255
	.byte	255
	.byte	1
	.uleb128 Lcst_end2-Lcst_begin2
Lcst_begin2:
	.uleb128 Ltmp218-Lfunc_begin37
	.uleb128 Ltmp221-Ltmp218
	.uleb128 Ltmp222-Lfunc_begin37
	.byte	0
	.uleb128 Ltmp221-Lfunc_begin37
	.uleb128 Lfunc_end37-Ltmp221
	.byte	0
	.byte	0
Lcst_end2:
	.p2align	2

	.section	__TEXT,__text,regular,pure_instructions
	.globl	__ZN84_$LT$alloc..vec..Vec$LT$T$C$A$GT$$u20$as$u20$core..ops..index..IndexMut$LT$I$GT$$GT$9index_mut17h52568073eaa09689E
	.p2align	4, 0x90
__ZN84_$LT$alloc..vec..Vec$LT$T$C$A$GT$$u20$as$u20$core..ops..index..IndexMut$LT$I$GT$$GT$9index_mut17h52568073eaa09689E:
Lfunc_begin38:
	.loc	22 2743 0
	.cfi_startproc
	.cfi_personality 155, _rust_eh_personality
	.cfi_lsda 16, Lexception3
	pushq	%rbp
	.cfi_def_cfa_offset 16
	.cfi_offset %rbp, -16
	movq	%rsp, %rbp
	.cfi_def_cfa_register %rbp
	subq	$112, %rsp
	movq	%rsi, -96(%rbp)
	movq	%rdx, -88(%rbp)
	movq	%rdi, -56(%rbp)
	movq	%rsi, -48(%rbp)
Ltmp232:
	.loc	22 2744 9 prologue_end
	movb	$1, -57(%rbp)
Ltmp227:
	.loc	22 2744 34 is_stmt 0
	callq	__ZN75_$LT$alloc..vec..Vec$LT$T$C$A$GT$$u20$as$u20$core..ops..deref..DerefMut$GT$9deref_mut17h5a0eccb03053887cE
Ltmp228:
	movq	%rdx, -80(%rbp)
	movq	%rax, -72(%rbp)
	jmp	LBB38_3
LBB38_1:
	.loc	22 2745 5 is_stmt 1
	testb	$1, -57(%rbp)
	jne	LBB38_6
	jmp	LBB38_5
LBB38_2:
Ltmp231:
	.loc	22 0 5 is_stmt 0
	movq	%rax, %rcx
	movl	%edx, %eax
	movq	%rcx, -40(%rbp)
	movl	%eax, -32(%rbp)
	jmp	LBB38_1
LBB38_3:
	movq	-88(%rbp), %rcx
	movq	-80(%rbp), %rdx
	movq	-72(%rbp), %rsi
	movq	-96(%rbp), %rdi
	.loc	22 2744 29 is_stmt 1
	movq	%rsi, -24(%rbp)
	movq	%rdx, -16(%rbp)
	.loc	22 2744 42 is_stmt 0
	movb	$0, -57(%rbp)
	movq	%rdi, -8(%rbp)
Ltmp229:
Ltmp233:
	.loc	2 30 9 is_stmt 1
	callq	__ZN110_$LT$core..ops..range..RangeFrom$LT$usize$GT$$u20$as$u20$core..slice..index..SliceIndex$LT$$u5b$T$u5d$$GT$$GT$9index_mut17h4602c5a7a09083b7E
Ltmp230:
	movq	%rdx, -112(%rbp)
	movq	%rax, -104(%rbp)
	jmp	LBB38_4
Ltmp234:
LBB38_4:
	.loc	2 0 9 is_stmt 0
	movq	-112(%rbp), %rdx
	movq	-104(%rbp), %rax
	.loc	22 2745 6 is_stmt 1
	addq	$112, %rsp
	popq	%rbp
	retq
LBB38_5:
	.loc	22 2743 5
	movq	-40(%rbp), %rdi
	callq	__Unwind_Resume
LBB38_6:
	.loc	22 2745 5
	jmp	LBB38_5
Ltmp235:
Lfunc_end38:
	.cfi_endproc
	.section	__TEXT,__gcc_except_tab
	.p2align	2
GCC_except_table38:
Lexception3:
	.byte	255
	.byte	255
	.byte	1
	.uleb128 Lcst_end3-Lcst_begin3
Lcst_begin3:
	.uleb128 Ltmp227-Lfunc_begin38
	.uleb128 Ltmp230-Ltmp227
	.uleb128 Ltmp231-Lfunc_begin38
	.byte	0
	.uleb128 Ltmp230-Lfunc_begin38
	.uleb128 Lfunc_end38-Ltmp230
	.byte	0
	.byte	0
Lcst_end3:
	.p2align	2

	.section	__TEXT,__text,regular,pure_instructions
	.globl	__ZN84_$LT$alloc..vec..Vec$LT$T$C$A$GT$$u20$as$u20$core..ops..index..IndexMut$LT$I$GT$$GT$9index_mut17hf7cb61022b43fe12E
	.p2align	4, 0x90
__ZN84_$LT$alloc..vec..Vec$LT$T$C$A$GT$$u20$as$u20$core..ops..index..IndexMut$LT$I$GT$$GT$9index_mut17hf7cb61022b43fe12E:
Lfunc_begin39:
	.loc	22 2743 0
	.cfi_startproc
	.cfi_personality 155, _rust_eh_personality
	.cfi_lsda 16, Lexception4
	pushq	%rbp
	.cfi_def_cfa_offset 16
	.cfi_offset %rbp, -16
	movq	%rsp, %rbp
	.cfi_def_cfa_register %rbp
	subq	$112, %rsp
	movq	%rsi, -96(%rbp)
	movq	%rdx, -88(%rbp)
	movq	%rdi, -56(%rbp)
	movq	%rsi, -48(%rbp)
Ltmp241:
	.loc	22 2744 9 prologue_end
	movb	$1, -57(%rbp)
Ltmp236:
	.loc	22 2744 34 is_stmt 0
	callq	__ZN75_$LT$alloc..vec..Vec$LT$T$C$A$GT$$u20$as$u20$core..ops..deref..DerefMut$GT$9deref_mut17h5a0eccb03053887cE
Ltmp237:
	movq	%rdx, -80(%rbp)
	movq	%rax, -72(%rbp)
	jmp	LBB39_3
LBB39_1:
	.loc	22 2745 5 is_stmt 1
	testb	$1, -57(%rbp)
	jne	LBB39_6
	jmp	LBB39_5
LBB39_2:
Ltmp240:
	.loc	22 0 5 is_stmt 0
	movq	%rax, %rcx
	movl	%edx, %eax
	movq	%rcx, -40(%rbp)
	movl	%eax, -32(%rbp)
	jmp	LBB39_1
LBB39_3:
	movq	-88(%rbp), %rcx
	movq	-80(%rbp), %rdx
	movq	-72(%rbp), %rsi
	movq	-96(%rbp), %rdi
	.loc	22 2744 29 is_stmt 1
	movq	%rsi, -24(%rbp)
	movq	%rdx, -16(%rbp)
	.loc	22 2744 42 is_stmt 0
	movb	$0, -57(%rbp)
	movq	%rdi, -8(%rbp)
Ltmp238:
Ltmp242:
	.loc	2 30 9 is_stmt 1
	callq	__ZN75_$LT$usize$u20$as$u20$core..slice..index..SliceIndex$LT$$u5b$T$u5d$$GT$$GT$9index_mut17hd81c17c7b6fe0b8eE
Ltmp239:
	movq	%rax, -104(%rbp)
	jmp	LBB39_4
Ltmp243:
LBB39_4:
	.loc	2 0 9 is_stmt 0
	movq	-104(%rbp), %rax
	.loc	22 2745 6 is_stmt 1
	addq	$112, %rsp
	popq	%rbp
	retq
LBB39_5:
	.loc	22 2743 5
	movq	-40(%rbp), %rdi
	callq	__Unwind_Resume
LBB39_6:
	.loc	22 2745 5
	jmp	LBB39_5
Ltmp244:
Lfunc_end39:
	.cfi_endproc
	.section	__TEXT,__gcc_except_tab
	.p2align	2
GCC_except_table39:
Lexception4:
	.byte	255
	.byte	255
	.byte	1
	.uleb128 Lcst_end4-Lcst_begin4
Lcst_begin4:
	.uleb128 Ltmp236-Lfunc_begin39
	.uleb128 Ltmp239-Ltmp236
	.uleb128 Ltmp240-Lfunc_begin39
	.byte	0
	.uleb128 Ltmp239-Lfunc_begin39
	.uleb128 Lfunc_end39-Ltmp239
	.byte	0
	.byte	0
Lcst_end4:
	.p2align	2

	.section	__TEXT,__text,regular,pure_instructions
	.globl	__ZN86_$LT$core..slice..iter..Split$LT$T$C$P$GT$$u20$as$u20$core..slice..iter..SplitIter$GT$6finish17h305597282f20ebc1E
	.p2align	4, 0x90
__ZN86_$LT$core..slice..iter..Split$LT$T$C$P$GT$$u20$as$u20$core..slice..iter..SplitIter$GT$6finish17h305597282f20ebc1E:
Lfunc_begin40:
	.loc	1 501 0
	.cfi_startproc
	pushq	%rbp
	.cfi_def_cfa_offset 16
	.cfi_offset %rbp, -16
	movq	%rsp, %rbp
	.cfi_def_cfa_register %rbp
	subq	$32, %rsp
	movq	%rdi, -32(%rbp)
	movq	%rdi, -8(%rbp)
Ltmp245:
	.loc	1 502 12 prologue_end
	testb	$1, 16(%rdi)
	jne	LBB40_2
	.loc	1 0 12 is_stmt 0
	movq	-32(%rbp), %rax
	.loc	1 505 13 is_stmt 1
	movb	$1, 16(%rax)
	.loc	1 506 18
	movq	(%rax), %rcx
	movq	8(%rax), %rax
	.loc	1 506 13 is_stmt 0
	movq	%rcx, -24(%rbp)
	movq	%rax, -16(%rbp)
	.loc	1 502 9 is_stmt 1
	jmp	LBB40_3
LBB40_2:
	.loc	1 503 13
	movq	$0, -24(%rbp)
LBB40_3:
	.loc	1 508 6
	movq	-24(%rbp), %rax
	movq	-16(%rbp), %rdx
	addq	$32, %rsp
	popq	%rbp
	retq
Ltmp246:
Lfunc_end40:
	.cfi_endproc

	.globl	__ZN86_$LT$core..slice..iter..Split$LT$T$C$P$GT$$u20$as$u20$core..slice..iter..SplitIter$GT$6finish17h45af4e93b3b9c5f2E
	.p2align	4, 0x90
__ZN86_$LT$core..slice..iter..Split$LT$T$C$P$GT$$u20$as$u20$core..slice..iter..SplitIter$GT$6finish17h45af4e93b3b9c5f2E:
Lfunc_begin41:
	.loc	1 501 0
	.cfi_startproc
	pushq	%rbp
	.cfi_def_cfa_offset 16
	.cfi_offset %rbp, -16
	movq	%rsp, %rbp
	.cfi_def_cfa_register %rbp
	subq	$32, %rsp
	movq	%rdi, -32(%rbp)
	movq	%rdi, -8(%rbp)
Ltmp247:
	.loc	1 502 12 prologue_end
	testb	$1, 16(%rdi)
	jne	LBB41_2
	.loc	1 0 12 is_stmt 0
	movq	-32(%rbp), %rax
	.loc	1 505 13 is_stmt 1
	movb	$1, 16(%rax)
	.loc	1 506 18
	movq	(%rax), %rcx
	movq	8(%rax), %rax
	.loc	1 506 13 is_stmt 0
	movq	%rcx, -24(%rbp)
	movq	%rax, -16(%rbp)
	.loc	1 502 9 is_stmt 1
	jmp	LBB41_3
LBB41_2:
	.loc	1 503 13
	movq	$0, -24(%rbp)
LBB41_3:
	.loc	1 508 6
	movq	-24(%rbp), %rax
	movq	-16(%rbp), %rdx
	addq	$32, %rsp
	popq	%rbp
	retq
Ltmp248:
Lfunc_end41:
	.cfi_endproc

	.globl	__ZN91_$LT$core..slice..iter..Iter$LT$T$GT$$u20$as$u20$core..iter..traits..iterator..Iterator$GT$8position17h58edbe6c5873dccfE
	.p2align	4, 0x90
__ZN91_$LT$core..slice..iter..Iter$LT$T$GT$$u20$as$u20$core..iter..traits..iterator..Iterator$GT$8position17h58edbe6c5873dccfE:
Lfunc_begin42:
	.file	27 "/rustc/2c8cc343237b8f7d5a3c3703e3a87f2eb2c54a74/library/core/src/slice/iter" "macros.rs"
	.loc	27 278 0
	.cfi_startproc
	.cfi_personality 155, _rust_eh_personality
	.cfi_lsda 16, Lexception5
	pushq	%rbp
	.cfi_def_cfa_offset 16
	.cfi_offset %rbp, -16
	movq	%rsp, %rbp
	.cfi_def_cfa_register %rbp
	subq	$240, %rsp
	movq	%rdi, -192(%rbp)
	movq	%rsi, -176(%rbp)
	movq	%rdi, -120(%rbp)
Ltmp258:
	.loc	27 282 25 prologue_end
	movq	8(%rdi), %rax
	movq	%rax, -184(%rbp)
	movq	%rax, -112(%rbp)
Ltmp259:
	.loc	27 282 25 is_stmt 0
	xorl	%eax, %eax
	testb	$1, %al
	jne	LBB42_2
	.loc	27 0 25
	movq	-184(%rbp), %rsi
	movq	-192(%rbp), %rax
	.loc	27 282 25
	movq	(%rax), %rdi
	movq	%rsi, -32(%rbp)
Ltmp249:
	callq	__ZN4core3ptr9const_ptr33_$LT$impl$u20$$BP$const$u20$T$GT$7sub_ptr17he4351ea9308b09d0E
Ltmp250:
	movq	%rax, -200(%rbp)
	jmp	LBB42_8
LBB42_2:
	.loc	27 0 25
	movq	-192(%rbp), %rax
	.loc	27 282 25
	movq	(%rax), %rax
	movq	%rax, -104(%rbp)
Ltmp260:
	.loc	6 209 33 is_stmt 1
	movq	%rax, -96(%rbp)
	.loc	6 209 18 is_stmt 0
	movq	%rax, -88(%rbp)
	movq	-88(%rbp), %rax
	movq	%rax, -208(%rbp)
	movq	%rax, -80(%rbp)
Ltmp261:
	.loc	6 0 18
	movq	-184(%rbp), %rax
	.loc	27 282 25 is_stmt 1
	movq	%rax, -72(%rbp)
Ltmp262:
	.loc	13 326 9
	movq	%rax, -64(%rbp)
Ltmp263:
	.loc	3 215 33
	movq	%rax, -56(%rbp)
	.loc	3 215 18 is_stmt 0
	movq	%rax, -48(%rbp)
	movq	-48(%rbp), %rax
	movq	%rax, -216(%rbp)
	movq	%rax, -40(%rbp)
Ltmp264:
	.loc	3 0 18
	movq	-216(%rbp), %rcx
	movq	-208(%rbp), %rax
Ltmp265:
	.file	28 "/rustc/2c8cc343237b8f7d5a3c3703e3a87f2eb2c54a74/library/core/src/num" "uint_macros.rs"
	.loc	28 1203 13 is_stmt 1
	subq	%rcx, %rax
	movq	%rax, -152(%rbp)
Ltmp266:
LBB42_5:
	.loc	27 283 29
	movq	$0, -144(%rbp)
Ltmp267:
	.loc	27 284 17
	jmp	LBB42_9
Ltmp268:
LBB42_6:
	.loc	27 278 13
	movq	-24(%rbp), %rdi
	callq	__Unwind_Resume
LBB42_7:
Ltmp257:
	.loc	27 0 13 is_stmt 0
	movq	%rax, %rcx
	movl	%edx, %eax
	movq	%rcx, -24(%rbp)
	movl	%eax, -16(%rbp)
	jmp	LBB42_6
LBB42_8:
	movq	-200(%rbp), %rax
Ltmp269:
	.loc	27 282 25 is_stmt 1
	movq	%rax, -152(%rbp)
	jmp	LBB42_5
Ltmp270:
LBB42_9:
Ltmp251:
	.loc	27 0 25 is_stmt 0
	movq	-192(%rbp), %rdi
Ltmp271:
	.loc	27 284 37 is_stmt 1
	callq	__ZN91_$LT$core..slice..iter..Iter$LT$T$GT$$u20$as$u20$core..iter..traits..iterator..Iterator$GT$4next17h31666222c3d0f2eeE
Ltmp252:
	movq	%rax, -224(%rbp)
	jmp	LBB42_10
LBB42_10:
	.loc	27 0 37 is_stmt 0
	movq	-224(%rbp), %rax
	.loc	27 284 37
	movq	%rax, -136(%rbp)
	.loc	27 284 27
	movq	-136(%rbp), %rdx
	movl	$1, %eax
	xorl	%ecx, %ecx
	cmpq	$0, %rdx
	cmoveq	%rcx, %rax
	cmpq	$1, %rax
	jne	LBB42_12
	.loc	27 284 32
	movq	-136(%rbp), %rax
	movq	%rax, -8(%rbp)
	.loc	27 285 24 is_stmt 1
	movq	%rax, -128(%rbp)
	movq	-128(%rbp), %rsi
Ltmp253:
	leaq	-176(%rbp), %rdi
	callq	__ZN96_$LT$core..slice..iter..Split$LT$T$C$P$GT$$u20$as$u20$core..iter..traits..iterator..Iterator$GT$4next28_$u7b$$u7b$closure$u7d$$u7d$17hb7fad2781749a41aE
Ltmp254:
	movb	%al, -225(%rbp)
	jmp	LBB42_14
Ltmp272:
LBB42_12:
	.loc	27 293 17
	movq	$0, -168(%rbp)
Ltmp273:
LBB42_13:
	.loc	27 294 14
	movq	-168(%rbp), %rax
	movq	-160(%rbp), %rdx
	addq	$240, %rsp
	popq	%rbp
	retq
LBB42_14:
	.loc	27 0 14 is_stmt 0
	movb	-225(%rbp), %al
Ltmp274:
	.loc	27 285 24 is_stmt 1
	testb	$1, %al
	jne	LBB42_16
	jmp	LBB42_15
LBB42_15:
	.loc	27 291 21
	movq	-144(%rbp), %rax
	addq	$1, %rax
	movq	%rax, -240(%rbp)
	setb	%al
	testb	$1, %al
	jne	LBB42_18
	jmp	LBB42_17
LBB42_16:
	.loc	27 288 41
	movq	-144(%rbp), %rax
	.loc	27 289 37
	movq	-144(%rbp), %rax
	.loc	27 289 32 is_stmt 0
	movq	%rax, -160(%rbp)
	movq	$1, -168(%rbp)
Ltmp275:
	.loc	27 294 13 is_stmt 1
	jmp	LBB42_13
LBB42_17:
	.loc	27 0 13 is_stmt 0
	movq	-240(%rbp), %rax
Ltmp276:
	.loc	27 291 21 is_stmt 1
	movq	%rax, -144(%rbp)
Ltmp277:
	.loc	27 284 17
	jmp	LBB42_9
LBB42_18:
Ltmp255:
Ltmp278:
	.loc	27 291 21
	leaq	_str.0(%rip), %rdi
	leaq	l___unnamed_10(%rip), %rdx
	movl	$28, %esi
	callq	__ZN4core9panicking5panic17hc1bc45270cf64b03E
Ltmp256:
	jmp	LBB42_19
Ltmp279:
LBB42_19:
	.loc	27 0 21 is_stmt 0
	ud2
Lfunc_end42:
	.cfi_endproc
	.section	__TEXT,__gcc_except_tab
	.p2align	2
GCC_except_table42:
Lexception5:
	.byte	255
	.byte	255
	.byte	1
	.uleb128 Lcst_end5-Lcst_begin5
Lcst_begin5:
	.uleb128 Ltmp249-Lfunc_begin42
	.uleb128 Ltmp250-Ltmp249
	.uleb128 Ltmp257-Lfunc_begin42
	.byte	0
	.uleb128 Ltmp250-Lfunc_begin42
	.uleb128 Ltmp251-Ltmp250
	.byte	0
	.byte	0
	.uleb128 Ltmp251-Lfunc_begin42
	.uleb128 Ltmp256-Ltmp251
	.uleb128 Ltmp257-Lfunc_begin42
	.byte	0
Lcst_end5:
	.p2align	2

	.section	__TEXT,__text,regular,pure_instructions
	.globl	__ZN91_$LT$core..slice..iter..Iter$LT$T$GT$$u20$as$u20$core..iter..traits..iterator..Iterator$GT$8position17hb7fb7ce150d57e3aE
	.p2align	4, 0x90
__ZN91_$LT$core..slice..iter..Iter$LT$T$GT$$u20$as$u20$core..iter..traits..iterator..Iterator$GT$8position17hb7fb7ce150d57e3aE:
Lfunc_begin43:
	.loc	27 278 0 is_stmt 1
	.cfi_startproc
	.cfi_personality 155, _rust_eh_personality
	.cfi_lsda 16, Lexception6
	pushq	%rbp
	.cfi_def_cfa_offset 16
	.cfi_offset %rbp, -16
	movq	%rsp, %rbp
	.cfi_def_cfa_register %rbp
	subq	$240, %rsp
	movq	%rdi, -192(%rbp)
	movq	%rsi, -176(%rbp)
	movq	%rdi, -120(%rbp)
Ltmp289:
	.loc	27 282 25 prologue_end
	movq	8(%rdi), %rax
	movq	%rax, -184(%rbp)
	movq	%rax, -112(%rbp)
Ltmp290:
	.loc	27 282 25 is_stmt 0
	xorl	%eax, %eax
	testb	$1, %al
	jne	LBB43_2
	.loc	27 0 25
	movq	-184(%rbp), %rsi
	movq	-192(%rbp), %rax
	.loc	27 282 25
	movq	(%rax), %rdi
	movq	%rsi, -32(%rbp)
Ltmp280:
	callq	__ZN4core3ptr9const_ptr33_$LT$impl$u20$$BP$const$u20$T$GT$7sub_ptr17he4351ea9308b09d0E
Ltmp281:
	movq	%rax, -200(%rbp)
	jmp	LBB43_8
LBB43_2:
	.loc	27 0 25
	movq	-192(%rbp), %rax
	.loc	27 282 25
	movq	(%rax), %rax
	movq	%rax, -104(%rbp)
Ltmp291:
	.loc	6 209 33 is_stmt 1
	movq	%rax, -96(%rbp)
	.loc	6 209 18 is_stmt 0
	movq	%rax, -88(%rbp)
	movq	-88(%rbp), %rax
	movq	%rax, -208(%rbp)
	movq	%rax, -80(%rbp)
Ltmp292:
	.loc	6 0 18
	movq	-184(%rbp), %rax
	.loc	27 282 25 is_stmt 1
	movq	%rax, -72(%rbp)
Ltmp293:
	.loc	13 326 9
	movq	%rax, -64(%rbp)
Ltmp294:
	.loc	3 215 33
	movq	%rax, -56(%rbp)
	.loc	3 215 18 is_stmt 0
	movq	%rax, -48(%rbp)
	movq	-48(%rbp), %rax
	movq	%rax, -216(%rbp)
	movq	%rax, -40(%rbp)
Ltmp295:
	.loc	3 0 18
	movq	-216(%rbp), %rcx
	movq	-208(%rbp), %rax
Ltmp296:
	.loc	28 1203 13 is_stmt 1
	subq	%rcx, %rax
	movq	%rax, -152(%rbp)
Ltmp297:
LBB43_5:
	.loc	27 283 29
	movq	$0, -144(%rbp)
Ltmp298:
	.loc	27 284 17
	jmp	LBB43_9
Ltmp299:
LBB43_6:
	.loc	27 278 13
	movq	-24(%rbp), %rdi
	callq	__Unwind_Resume
LBB43_7:
Ltmp288:
	.loc	27 0 13 is_stmt 0
	movq	%rax, %rcx
	movl	%edx, %eax
	movq	%rcx, -24(%rbp)
	movl	%eax, -16(%rbp)
	jmp	LBB43_6
LBB43_8:
	movq	-200(%rbp), %rax
Ltmp300:
	.loc	27 282 25 is_stmt 1
	movq	%rax, -152(%rbp)
	jmp	LBB43_5
Ltmp301:
LBB43_9:
Ltmp282:
	.loc	27 0 25 is_stmt 0
	movq	-192(%rbp), %rdi
Ltmp302:
	.loc	27 284 37 is_stmt 1
	callq	__ZN91_$LT$core..slice..iter..Iter$LT$T$GT$$u20$as$u20$core..iter..traits..iterator..Iterator$GT$4next17h31666222c3d0f2eeE
Ltmp283:
	movq	%rax, -224(%rbp)
	jmp	LBB43_10
LBB43_10:
	.loc	27 0 37 is_stmt 0
	movq	-224(%rbp), %rax
	.loc	27 284 37
	movq	%rax, -136(%rbp)
	.loc	27 284 27
	movq	-136(%rbp), %rdx
	movl	$1, %eax
	xorl	%ecx, %ecx
	cmpq	$0, %rdx
	cmoveq	%rcx, %rax
	cmpq	$1, %rax
	jne	LBB43_12
	.loc	27 284 32
	movq	-136(%rbp), %rax
	movq	%rax, -8(%rbp)
	.loc	27 285 24 is_stmt 1
	movq	%rax, -128(%rbp)
	movq	-128(%rbp), %rsi
Ltmp284:
	leaq	-176(%rbp), %rdi
	callq	__ZN96_$LT$core..slice..iter..Split$LT$T$C$P$GT$$u20$as$u20$core..iter..traits..iterator..Iterator$GT$4next28_$u7b$$u7b$closure$u7d$$u7d$17h068b5974e96d1f67E
Ltmp285:
	movb	%al, -225(%rbp)
	jmp	LBB43_14
Ltmp303:
LBB43_12:
	.loc	27 293 17
	movq	$0, -168(%rbp)
Ltmp304:
LBB43_13:
	.loc	27 294 14
	movq	-168(%rbp), %rax
	movq	-160(%rbp), %rdx
	addq	$240, %rsp
	popq	%rbp
	retq
LBB43_14:
	.loc	27 0 14 is_stmt 0
	movb	-225(%rbp), %al
Ltmp305:
	.loc	27 285 24 is_stmt 1
	testb	$1, %al
	jne	LBB43_16
	jmp	LBB43_15
LBB43_15:
	.loc	27 291 21
	movq	-144(%rbp), %rax
	addq	$1, %rax
	movq	%rax, -240(%rbp)
	setb	%al
	testb	$1, %al
	jne	LBB43_18
	jmp	LBB43_17
LBB43_16:
	.loc	27 288 41
	movq	-144(%rbp), %rax
	.loc	27 289 37
	movq	-144(%rbp), %rax
	.loc	27 289 32 is_stmt 0
	movq	%rax, -160(%rbp)
	movq	$1, -168(%rbp)
Ltmp306:
	.loc	27 294 13 is_stmt 1
	jmp	LBB43_13
LBB43_17:
	.loc	27 0 13 is_stmt 0
	movq	-240(%rbp), %rax
Ltmp307:
	.loc	27 291 21 is_stmt 1
	movq	%rax, -144(%rbp)
Ltmp308:
	.loc	27 284 17
	jmp	LBB43_9
LBB43_18:
Ltmp286:
Ltmp309:
	.loc	27 291 21
	leaq	_str.0(%rip), %rdi
	leaq	l___unnamed_10(%rip), %rdx
	movl	$28, %esi
	callq	__ZN4core9panicking5panic17hc1bc45270cf64b03E
Ltmp287:
	jmp	LBB43_19
Ltmp310:
LBB43_19:
	.loc	27 0 21 is_stmt 0
	ud2
Lfunc_end43:
	.cfi_endproc
	.section	__TEXT,__gcc_except_tab
	.p2align	2
GCC_except_table43:
Lexception6:
	.byte	255
	.byte	255
	.byte	1
	.uleb128 Lcst_end6-Lcst_begin6
Lcst_begin6:
	.uleb128 Ltmp280-Lfunc_begin43
	.uleb128 Ltmp281-Ltmp280
	.uleb128 Ltmp288-Lfunc_begin43
	.byte	0
	.uleb128 Ltmp281-Lfunc_begin43
	.uleb128 Ltmp282-Ltmp281
	.byte	0
	.byte	0
	.uleb128 Ltmp282-Lfunc_begin43
	.uleb128 Ltmp287-Ltmp282
	.uleb128 Ltmp288-Lfunc_begin43
	.byte	0
Lcst_end6:
	.p2align	2

	.section	__TEXT,__text,regular,pure_instructions
	.globl	__ZN91_$LT$core..slice..iter..Iter$LT$T$GT$$u20$as$u20$core..iter..traits..iterator..Iterator$GT$8position17hca1c7ab8838b5651E
	.p2align	4, 0x90
__ZN91_$LT$core..slice..iter..Iter$LT$T$GT$$u20$as$u20$core..iter..traits..iterator..Iterator$GT$8position17hca1c7ab8838b5651E:
Lfunc_begin44:
	.loc	27 278 0 is_stmt 1
	.cfi_startproc
	.cfi_personality 155, _rust_eh_personality
	.cfi_lsda 16, Lexception7
	pushq	%rbp
	.cfi_def_cfa_offset 16
	.cfi_offset %rbp, -16
	movq	%rsp, %rbp
	.cfi_def_cfa_register %rbp
	subq	$240, %rsp
	movq	%rdi, -192(%rbp)
	movq	%rdi, -120(%rbp)
Ltmp320:
	.loc	27 282 25 prologue_end
	movq	8(%rdi), %rax
	movq	%rax, -184(%rbp)
	movq	%rax, -112(%rbp)
Ltmp321:
	.loc	27 282 25 is_stmt 0
	xorl	%eax, %eax
	testb	$1, %al
	jne	LBB44_2
	.loc	27 0 25
	movq	-184(%rbp), %rsi
	movq	-192(%rbp), %rax
	.loc	27 282 25
	movq	(%rax), %rdi
	movq	%rsi, -32(%rbp)
Ltmp311:
	callq	__ZN4core3ptr9const_ptr33_$LT$impl$u20$$BP$const$u20$T$GT$7sub_ptr17he4351ea9308b09d0E
Ltmp312:
	movq	%rax, -200(%rbp)
	jmp	LBB44_8
LBB44_2:
	.loc	27 0 25
	movq	-192(%rbp), %rax
	.loc	27 282 25
	movq	(%rax), %rax
	movq	%rax, -104(%rbp)
Ltmp322:
	.loc	6 209 33 is_stmt 1
	movq	%rax, -96(%rbp)
	.loc	6 209 18 is_stmt 0
	movq	%rax, -88(%rbp)
	movq	-88(%rbp), %rax
	movq	%rax, -208(%rbp)
	movq	%rax, -80(%rbp)
Ltmp323:
	.loc	6 0 18
	movq	-184(%rbp), %rax
	.loc	27 282 25 is_stmt 1
	movq	%rax, -72(%rbp)
Ltmp324:
	.loc	13 326 9
	movq	%rax, -64(%rbp)
Ltmp325:
	.loc	3 215 33
	movq	%rax, -56(%rbp)
	.loc	3 215 18 is_stmt 0
	movq	%rax, -48(%rbp)
	movq	-48(%rbp), %rax
	movq	%rax, -216(%rbp)
	movq	%rax, -40(%rbp)
Ltmp326:
	.loc	3 0 18
	movq	-216(%rbp), %rcx
	movq	-208(%rbp), %rax
Ltmp327:
	.loc	28 1203 13 is_stmt 1
	subq	%rcx, %rax
	movq	%rax, -152(%rbp)
Ltmp328:
LBB44_5:
	.loc	27 283 29
	movq	$0, -144(%rbp)
Ltmp329:
	.loc	27 284 17
	jmp	LBB44_9
Ltmp330:
LBB44_6:
	.loc	27 278 13
	movq	-24(%rbp), %rdi
	callq	__Unwind_Resume
LBB44_7:
Ltmp319:
	.loc	27 0 13 is_stmt 0
	movq	%rax, %rcx
	movl	%edx, %eax
	movq	%rcx, -24(%rbp)
	movl	%eax, -16(%rbp)
	jmp	LBB44_6
LBB44_8:
	movq	-200(%rbp), %rax
Ltmp331:
	.loc	27 282 25 is_stmt 1
	movq	%rax, -152(%rbp)
	jmp	LBB44_5
Ltmp332:
LBB44_9:
Ltmp313:
	.loc	27 0 25 is_stmt 0
	movq	-192(%rbp), %rdi
Ltmp333:
	.loc	27 284 37 is_stmt 1
	callq	__ZN91_$LT$core..slice..iter..Iter$LT$T$GT$$u20$as$u20$core..iter..traits..iterator..Iterator$GT$4next17h31666222c3d0f2eeE
Ltmp314:
	movq	%rax, -224(%rbp)
	jmp	LBB44_10
LBB44_10:
	.loc	27 0 37 is_stmt 0
	movq	-224(%rbp), %rax
	.loc	27 284 37
	movq	%rax, -136(%rbp)
	.loc	27 284 27
	movq	-136(%rbp), %rdx
	movl	$1, %eax
	xorl	%ecx, %ecx
	cmpq	$0, %rdx
	cmoveq	%rcx, %rax
	cmpq	$1, %rax
	jne	LBB44_12
	.loc	27 284 32
	movq	-136(%rbp), %rax
	movq	%rax, -8(%rbp)
	.loc	27 285 24 is_stmt 1
	movq	%rax, -128(%rbp)
	movq	-128(%rbp), %rsi
Ltmp315:
	leaq	-176(%rbp), %rdi
	callq	__ZN89_$LT$form_urlencoded..ByteSerialize$u20$as$u20$core..iter..traits..iterator..Iterator$GT$4next28_$u7b$$u7b$closure$u7d$$u7d$17hd844807c19c97ec8E
Ltmp316:
	movb	%al, -225(%rbp)
	jmp	LBB44_14
Ltmp334:
LBB44_12:
	.loc	27 293 17
	movq	$0, -168(%rbp)
Ltmp335:
LBB44_13:
	.loc	27 294 14
	movq	-168(%rbp), %rax
	movq	-160(%rbp), %rdx
	addq	$240, %rsp
	popq	%rbp
	retq
LBB44_14:
	.loc	27 0 14 is_stmt 0
	movb	-225(%rbp), %al
Ltmp336:
	.loc	27 285 24 is_stmt 1
	testb	$1, %al
	jne	LBB44_16
	jmp	LBB44_15
LBB44_15:
	.loc	27 291 21
	movq	-144(%rbp), %rax
	addq	$1, %rax
	movq	%rax, -240(%rbp)
	setb	%al
	testb	$1, %al
	jne	LBB44_18
	jmp	LBB44_17
LBB44_16:
	.loc	27 288 41
	movq	-144(%rbp), %rax
	.loc	27 289 37
	movq	-144(%rbp), %rax
	.loc	27 289 32 is_stmt 0
	movq	%rax, -160(%rbp)
	movq	$1, -168(%rbp)
Ltmp337:
	.loc	27 294 13 is_stmt 1
	jmp	LBB44_13
LBB44_17:
	.loc	27 0 13 is_stmt 0
	movq	-240(%rbp), %rax
Ltmp338:
	.loc	27 291 21 is_stmt 1
	movq	%rax, -144(%rbp)
Ltmp339:
	.loc	27 284 17
	jmp	LBB44_9
LBB44_18:
Ltmp317:
Ltmp340:
	.loc	27 291 21
	leaq	_str.0(%rip), %rdi
	leaq	l___unnamed_10(%rip), %rdx
	movl	$28, %esi
	callq	__ZN4core9panicking5panic17hc1bc45270cf64b03E
Ltmp318:
	jmp	LBB44_19
Ltmp341:
LBB44_19:
	.loc	27 0 21 is_stmt 0
	ud2
Lfunc_end44:
	.cfi_endproc
	.section	__TEXT,__gcc_except_tab
	.p2align	2
GCC_except_table44:
Lexception7:
	.byte	255
	.byte	255
	.byte	1
	.uleb128 Lcst_end7-Lcst_begin7
Lcst_begin7:
	.uleb128 Ltmp311-Lfunc_begin44
	.uleb128 Ltmp312-Ltmp311
	.uleb128 Ltmp319-Lfunc_begin44
	.byte	0
	.uleb128 Ltmp312-Lfunc_begin44
	.uleb128 Ltmp313-Ltmp312
	.byte	0
	.byte	0
	.uleb128 Ltmp313-Lfunc_begin44
	.uleb128 Ltmp318-Ltmp313
	.uleb128 Ltmp319-Lfunc_begin44
	.byte	0
Lcst_end7:
	.p2align	2

	.section	__TEXT,__text,regular,pure_instructions
	.globl	__ZN91_$LT$core..slice..iter..Iter$LT$T$GT$$u20$as$u20$core..iter..traits..iterator..Iterator$GT$8position17hd1686ac89dd76030E
	.p2align	4, 0x90
__ZN91_$LT$core..slice..iter..Iter$LT$T$GT$$u20$as$u20$core..iter..traits..iterator..Iterator$GT$8position17hd1686ac89dd76030E:
Lfunc_begin45:
	.loc	27 278 0 is_stmt 1
	.cfi_startproc
	.cfi_personality 155, _rust_eh_personality
	.cfi_lsda 16, Lexception8
	pushq	%rbp
	.cfi_def_cfa_offset 16
	.cfi_offset %rbp, -16
	movq	%rsp, %rbp
	.cfi_def_cfa_register %rbp
	subq	$240, %rsp
	movq	%rdi, -192(%rbp)
	movq	%rdi, -120(%rbp)
Ltmp351:
	.loc	27 282 25 prologue_end
	movq	8(%rdi), %rax
	movq	%rax, -184(%rbp)
	movq	%rax, -112(%rbp)
Ltmp352:
	.loc	27 282 25 is_stmt 0
	xorl	%eax, %eax
	testb	$1, %al
	jne	LBB45_2
	.loc	27 0 25
	movq	-184(%rbp), %rsi
	movq	-192(%rbp), %rax
	.loc	27 282 25
	movq	(%rax), %rdi
	movq	%rsi, -32(%rbp)
Ltmp342:
	callq	__ZN4core3ptr9const_ptr33_$LT$impl$u20$$BP$const$u20$T$GT$7sub_ptr17he4351ea9308b09d0E
Ltmp343:
	movq	%rax, -200(%rbp)
	jmp	LBB45_8
LBB45_2:
	.loc	27 0 25
	movq	-192(%rbp), %rax
	.loc	27 282 25
	movq	(%rax), %rax
	movq	%rax, -104(%rbp)
Ltmp353:
	.loc	6 209 33 is_stmt 1
	movq	%rax, -96(%rbp)
	.loc	6 209 18 is_stmt 0
	movq	%rax, -88(%rbp)
	movq	-88(%rbp), %rax
	movq	%rax, -208(%rbp)
	movq	%rax, -80(%rbp)
Ltmp354:
	.loc	6 0 18
	movq	-184(%rbp), %rax
	.loc	27 282 25 is_stmt 1
	movq	%rax, -72(%rbp)
Ltmp355:
	.loc	13 326 9
	movq	%rax, -64(%rbp)
Ltmp356:
	.loc	3 215 33
	movq	%rax, -56(%rbp)
	.loc	3 215 18 is_stmt 0
	movq	%rax, -48(%rbp)
	movq	-48(%rbp), %rax
	movq	%rax, -216(%rbp)
	movq	%rax, -40(%rbp)
Ltmp357:
	.loc	3 0 18
	movq	-216(%rbp), %rcx
	movq	-208(%rbp), %rax
Ltmp358:
	.loc	28 1203 13 is_stmt 1
	subq	%rcx, %rax
	movq	%rax, -152(%rbp)
Ltmp359:
LBB45_5:
	.loc	27 283 29
	movq	$0, -144(%rbp)
Ltmp360:
	.loc	27 284 17
	jmp	LBB45_9
Ltmp361:
LBB45_6:
	.loc	27 278 13
	movq	-24(%rbp), %rdi
	callq	__Unwind_Resume
LBB45_7:
Ltmp350:
	.loc	27 0 13 is_stmt 0
	movq	%rax, %rcx
	movl	%edx, %eax
	movq	%rcx, -24(%rbp)
	movl	%eax, -16(%rbp)
	jmp	LBB45_6
LBB45_8:
	movq	-200(%rbp), %rax
Ltmp362:
	.loc	27 282 25 is_stmt 1
	movq	%rax, -152(%rbp)
	jmp	LBB45_5
Ltmp363:
LBB45_9:
Ltmp344:
	.loc	27 0 25 is_stmt 0
	movq	-192(%rbp), %rdi
Ltmp364:
	.loc	27 284 37 is_stmt 1
	callq	__ZN91_$LT$core..slice..iter..Iter$LT$T$GT$$u20$as$u20$core..iter..traits..iterator..Iterator$GT$4next17h31666222c3d0f2eeE
Ltmp345:
	movq	%rax, -224(%rbp)
	jmp	LBB45_10
LBB45_10:
	.loc	27 0 37 is_stmt 0
	movq	-224(%rbp), %rax
	.loc	27 284 37
	movq	%rax, -136(%rbp)
	.loc	27 284 27
	movq	-136(%rbp), %rdx
	movl	$1, %eax
	xorl	%ecx, %ecx
	cmpq	$0, %rdx
	cmoveq	%rcx, %rax
	cmpq	$1, %rax
	jne	LBB45_12
	.loc	27 284 32
	movq	-136(%rbp), %rax
	movq	%rax, -8(%rbp)
	.loc	27 285 24 is_stmt 1
	movq	%rax, -128(%rbp)
	movq	-128(%rbp), %rsi
Ltmp346:
	leaq	-176(%rbp), %rdi
	callq	__ZN15form_urlencoded12replace_plus28_$u7b$$u7b$closure$u7d$$u7d$17hae3239a01e147b26E
Ltmp347:
	movb	%al, -225(%rbp)
	jmp	LBB45_14
Ltmp365:
LBB45_12:
	.loc	27 293 17
	movq	$0, -168(%rbp)
Ltmp366:
LBB45_13:
	.loc	27 294 14
	movq	-168(%rbp), %rax
	movq	-160(%rbp), %rdx
	addq	$240, %rsp
	popq	%rbp
	retq
LBB45_14:
	.loc	27 0 14 is_stmt 0
	movb	-225(%rbp), %al
Ltmp367:
	.loc	27 285 24 is_stmt 1
	testb	$1, %al
	jne	LBB45_16
	jmp	LBB45_15
LBB45_15:
	.loc	27 291 21
	movq	-144(%rbp), %rax
	addq	$1, %rax
	movq	%rax, -240(%rbp)
	setb	%al
	testb	$1, %al
	jne	LBB45_18
	jmp	LBB45_17
LBB45_16:
	.loc	27 288 41
	movq	-144(%rbp), %rax
	.loc	27 289 37
	movq	-144(%rbp), %rax
	.loc	27 289 32 is_stmt 0
	movq	%rax, -160(%rbp)
	movq	$1, -168(%rbp)
Ltmp368:
	.loc	27 294 13 is_stmt 1
	jmp	LBB45_13
LBB45_17:
	.loc	27 0 13 is_stmt 0
	movq	-240(%rbp), %rax
Ltmp369:
	.loc	27 291 21 is_stmt 1
	movq	%rax, -144(%rbp)
Ltmp370:
	.loc	27 284 17
	jmp	LBB45_9
LBB45_18:
Ltmp348:
Ltmp371:
	.loc	27 291 21
	leaq	_str.0(%rip), %rdi
	leaq	l___unnamed_10(%rip), %rdx
	movl	$28, %esi
	callq	__ZN4core9panicking5panic17hc1bc45270cf64b03E
Ltmp349:
	jmp	LBB45_19
Ltmp372:
LBB45_19:
	.loc	27 0 21 is_stmt 0
	ud2
Lfunc_end45:
	.cfi_endproc
	.section	__TEXT,__gcc_except_tab
	.p2align	2
GCC_except_table45:
Lexception8:
	.byte	255
	.byte	255
	.byte	1
	.uleb128 Lcst_end8-Lcst_begin8
Lcst_begin8:
	.uleb128 Ltmp342-Lfunc_begin45
	.uleb128 Ltmp343-Ltmp342
	.uleb128 Ltmp350-Lfunc_begin45
	.byte	0
	.uleb128 Ltmp343-Lfunc_begin45
	.uleb128 Ltmp344-Ltmp343
	.byte	0
	.byte	0
	.uleb128 Ltmp344-Lfunc_begin45
	.uleb128 Ltmp349-Ltmp344
	.uleb128 Ltmp350-Lfunc_begin45
	.byte	0
Lcst_end8:
	.p2align	2

	.section	__TEXT,__text,regular,pure_instructions
	.globl	__ZN92_$LT$alloc..string..String$u20$as$u20$core..iter..traits..collect..Extend$LT$$RF$str$GT$$GT$6extend17h1df5f1dc47126117E
	.p2align	4, 0x90
__ZN92_$LT$alloc..string..String$u20$as$u20$core..iter..traits..collect..Extend$LT$$RF$str$GT$$GT$6extend17h1df5f1dc47126117E:
Lfunc_begin46:
	.loc	18 2121 0 is_stmt 1
	.cfi_startproc
	pushq	%rbp
	.cfi_def_cfa_offset 16
	.cfi_offset %rbp, -16
	movq	%rsp, %rbp
	.cfi_def_cfa_register %rbp
	subq	$64, %rsp
	movq	%rdx, -56(%rbp)
	movq	%rsi, %rax
	movq	-56(%rbp), %rsi
	movq	%rax, -48(%rbp)
	movq	%rdi, %rax
	movq	-48(%rbp), %rdi
	movq	%rax, -40(%rbp)
	movq	%rax, -24(%rbp)
	movq	%rdi, -16(%rbp)
	movq	%rsi, -8(%rbp)
Ltmp373:
	.loc	18 2122 9 prologue_end
	callq	__ZN63_$LT$I$u20$as$u20$core..iter..traits..collect..IntoIterator$GT$9into_iter17h59be5e989770a322E
	movq	%rax, %rdi
	movq	-40(%rbp), %rax
	movq	%rdx, %rsi
	.loc	18 2122 35 is_stmt 0
	movq	%rax, -32(%rbp)
	.loc	18 2122 9
	movq	-32(%rbp), %rdx
	callq	__ZN4core4iter6traits8iterator8Iterator8for_each17hbaad31a1ec83e275E
	.loc	18 2123 6 is_stmt 1
	addq	$64, %rsp
	popq	%rbp
	retq
Ltmp374:
Lfunc_end46:
	.cfi_endproc

	.globl	__ZN92_$LT$alloc..string..String$u20$as$u20$core..iter..traits..collect..Extend$LT$$RF$str$GT$$GT$6extend28_$u7b$$u7b$closure$u7d$$u7d$17hc82d3777988dd120E
	.p2align	4, 0x90
__ZN92_$LT$alloc..string..String$u20$as$u20$core..iter..traits..collect..Extend$LT$$RF$str$GT$$GT$6extend28_$u7b$$u7b$closure$u7d$$u7d$17hc82d3777988dd120E:
Lfunc_begin47:
	.loc	18 2122 0
	.cfi_startproc
	pushq	%rbp
	.cfi_def_cfa_offset 16
	.cfi_offset %rbp, -16
	movq	%rsp, %rbp
	.cfi_def_cfa_register %rbp
	subq	$80, %rsp
	movq	%rdi, -80(%rbp)
	movq	%rsi, -72(%rbp)
	movq	%rdx, -64(%rbp)
Ltmp375:
	.loc	18 2122 44 prologue_end
	movq	(%rdi), %rdi
	movq	%rdi, -56(%rbp)
	.loc	18 2122 58 is_stmt 0
	movq	%rsi, -48(%rbp)
	movq	%rdx, -40(%rbp)
Ltmp376:
	.loc	18 926 36 is_stmt 1
	movq	%rsi, -32(%rbp)
	movq	%rdx, -24(%rbp)
Ltmp377:
	.loc	17 327 18
	movq	%rsi, -16(%rbp)
	movq	%rdx, -8(%rbp)
	movq	-16(%rbp), %rsi
	movq	-8(%rbp), %rdx
Ltmp378:
	.loc	18 926 9
	callq	__ZN5alloc3vec16Vec$LT$T$C$A$GT$17extend_from_slice17haa8f2ee62292ceaaE
Ltmp379:
	.loc	18 2122 60
	addq	$80, %rsp
	popq	%rbp
	retq
Ltmp380:
Lfunc_end47:
	.cfi_endproc

	.globl	__ZN94_$LT$core..slice..iter..IterMut$LT$T$GT$$u20$as$u20$core..iter..traits..iterator..Iterator$GT$4next17ha8eb5c451bc0948bE
	.p2align	4, 0x90
__ZN94_$LT$core..slice..iter..IterMut$LT$T$GT$$u20$as$u20$core..iter..traits..iterator..Iterator$GT$4next17ha8eb5c451bc0948bE:
Lfunc_begin48:
	.loc	27 124 0
	.cfi_startproc
	pushq	%rbp
	.cfi_def_cfa_offset 16
	.cfi_offset %rbp, -16
	movq	%rsp, %rbp
	.cfi_def_cfa_register %rbp
	subq	$304, %rsp
	movq	%rdi, -304(%rbp)
	movq	%rdi, -240(%rbp)
Ltmp381:
	.loc	27 132 29 prologue_end
	movq	8(%rdi), %rax
	movq	%rax, -224(%rbp)
Ltmp382:
	.loc	13 326 9
	movq	%rax, -216(%rbp)
Ltmp383:
	.loc	3 52 36
	movq	%rax, -280(%rbp)
	.loc	3 52 18 is_stmt 0
	movq	-280(%rbp), %rax
	movq	%rax, -208(%rbp)
Ltmp384:
	.loc	3 38 13 is_stmt 1
	movq	%rax, -200(%rbp)
Ltmp385:
	.loc	3 215 33
	movq	%rax, -192(%rbp)
	.loc	3 215 18 is_stmt 0
	movq	%rax, -184(%rbp)
Ltmp386:
	.loc	27 133 24 is_stmt 1
	movb	$1, %al
	testb	$1, %al
	jne	LBB48_2
LBB48_1:
	.loc	27 0 24 is_stmt 0
	movq	-304(%rbp), %rcx
	.loc	27 136 24 is_stmt 1
	movq	8(%rcx), %rax
	movq	%rax, -136(%rbp)
	cmpq	(%rcx), %rax
	je	LBB48_4
	jmp	LBB48_3
LBB48_2:
	.loc	27 0 24 is_stmt 0
	movq	-304(%rbp), %rax
	.loc	27 134 33 is_stmt 1
	movq	(%rax), %rax
	movq	%rax, -176(%rbp)
Ltmp387:
	.loc	3 52 36
	movq	%rax, -272(%rbp)
	.loc	3 52 18 is_stmt 0
	movq	-272(%rbp), %rax
	movq	%rax, -168(%rbp)
Ltmp388:
	.loc	3 38 13 is_stmt 1
	movq	%rax, -160(%rbp)
Ltmp389:
	.loc	3 215 33
	movq	%rax, -152(%rbp)
	.loc	3 215 18 is_stmt 0
	movq	%rax, -144(%rbp)
Ltmp390:
	.loc	27 133 21 is_stmt 1
	jmp	LBB48_1
LBB48_3:
	.loc	27 0 21 is_stmt 0
	movq	-304(%rbp), %rax
	.loc	27 139 30 is_stmt 1
	movq	%rax, -128(%rbp)
Ltmp391:
	.loc	27 76 20
	xorl	%eax, %eax
	testb	$1, %al
	jne	LBB48_6
	jmp	LBB48_7
Ltmp392:
LBB48_4:
	.loc	27 137 25
	movq	$0, -296(%rbp)
LBB48_5:
	.loc	27 142 14
	movq	-296(%rbp), %rax
	addq	$304, %rsp
	popq	%rbp
	retq
LBB48_6:
	.loc	27 0 14 is_stmt 0
	movq	-304(%rbp), %rax
Ltmp393:
	.loc	27 57 29 is_stmt 1
	movq	(%rax), %rcx
	movq	%rcx, -64(%rbp)
Ltmp394:
	.loc	3 1300 9
	movq	%rcx, -56(%rbp)
Ltmp395:
	.loc	3 60 9
	movq	%rcx, -48(%rbp)
Ltmp396:
	.loc	3 1282 9
	movq	%rcx, -40(%rbp)
Ltmp397:
	.loc	3 568 18
	addq	$-1, %rcx
	movq	%rcx, -32(%rbp)
	movq	-32(%rbp), %rcx
	movq	%rcx, -24(%rbp)
Ltmp398:
	.loc	3 99 33
	movq	%rcx, -16(%rbp)
Ltmp399:
	.loc	5 135 36
	movq	%rcx, -248(%rbp)
	.loc	5 135 14 is_stmt 0
	movq	-248(%rbp), %rcx
	movq	%rcx, -256(%rbp)
	movq	-256(%rbp), %rcx
Ltmp400:
	.loc	27 57 17 is_stmt 1
	movq	%rcx, (%rax)
	.loc	27 78 21
	movq	8(%rax), %rax
	movq	%rax, -8(%rbp)
Ltmp401:
	.loc	13 326 9
	movq	%rax, -288(%rbp)
Ltmp402:
	.loc	27 76 17
	jmp	LBB48_8
LBB48_7:
	.loc	27 0 17 is_stmt 0
	movq	-304(%rbp), %rcx
	.loc	27 80 31 is_stmt 1
	movq	8(%rcx), %rax
	movq	%rax, -120(%rbp)
Ltmp403:
	.loc	13 326 9
	movq	%rax, -112(%rbp)
Ltmp404:
	.loc	27 83 64
	movq	8(%rcx), %rdx
	movq	%rdx, -104(%rbp)
Ltmp405:
	.loc	13 326 9
	movq	%rdx, -96(%rbp)
Ltmp406:
	.loc	3 1034 18
	movq	%rdx, -88(%rbp)
Ltmp407:
	.loc	3 487 18
	addq	$1, %rdx
	movq	%rdx, -80(%rbp)
	movq	-80(%rbp), %rdx
	movq	%rdx, -72(%rbp)
Ltmp408:
	.loc	13 201 13
	movq	%rdx, -264(%rbp)
Ltmp409:
	.loc	27 83 21
	movq	-264(%rbp), %rdx
	movq	%rdx, 8(%rcx)
	.loc	27 84 21
	movq	%rax, -288(%rbp)
Ltmp410:
LBB48_8:
	.loc	27 139 30
	movq	-288(%rbp), %rax
	.loc	27 139 25 is_stmt 0
	movq	%rax, -296(%rbp)
	.loc	27 136 21 is_stmt 1
	jmp	LBB48_5
Ltmp411:
Lfunc_end48:
	.cfi_endproc

	.globl	__ZN96_$LT$core..slice..iter..Split$LT$T$C$P$GT$$u20$as$u20$core..iter..traits..iterator..Iterator$GT$4next17h5479c7b44eaa60a0E
	.p2align	4, 0x90
__ZN96_$LT$core..slice..iter..Split$LT$T$C$P$GT$$u20$as$u20$core..iter..traits..iterator..Iterator$GT$4next17h5479c7b44eaa60a0E:
Lfunc_begin49:
	.loc	1 447 0
	.cfi_startproc
	pushq	%rbp
	.cfi_def_cfa_offset 16
	.cfi_offset %rbp, -16
	movq	%rsp, %rbp
	.cfi_def_cfa_register %rbp
	subq	$224, %rsp
	movq	%rdi, -208(%rbp)
	movq	%rdi, -96(%rbp)
Ltmp412:
	.loc	1 448 12 prologue_end
	testb	$1, 16(%rdi)
	jne	LBB49_2
	.loc	1 0 12 is_stmt 0
	movq	-208(%rbp), %rax
	.loc	1 452 15 is_stmt 1
	movq	(%rax), %rdi
	movq	8(%rax), %rsi
	movq	%rdi, -88(%rbp)
	movq	%rsi, -80(%rbp)
Ltmp413:
	.loc	12 742 9
	callq	__ZN4core5slice4iter13Iter$LT$T$GT$3new17h94c64fc37df14715E
	movq	%rax, %rcx
	movq	-208(%rbp), %rax
	movq	%rdx, -160(%rbp)
	movq	%rcx, -168(%rbp)
Ltmp414:
	.loc	1 452 38
	movq	%rax, -152(%rbp)
	.loc	1 452 15 is_stmt 0
	movq	-152(%rbp), %rsi
	leaq	-168(%rbp), %rdi
	callq	__ZN91_$LT$core..slice..iter..Iter$LT$T$GT$$u20$as$u20$core..iter..traits..iterator..Iterator$GT$8position17h58edbe6c5873dccfE
	movq	%rdx, -176(%rbp)
	movq	%rax, -184(%rbp)
	.loc	1 452 9
	cmpq	$0, -184(%rbp)
	je	LBB49_4
	jmp	LBB49_5
LBB49_2:
	.loc	1 449 20 is_stmt 1
	movq	$0, -200(%rbp)
LBB49_3:
	.loc	1 460 6
	movq	-200(%rbp), %rax
	movq	-192(%rbp), %rdx
	addq	$224, %rsp
	popq	%rbp
	retq
LBB49_4:
	.loc	1 0 6 is_stmt 0
	movq	-208(%rbp), %rax
	.loc	1 453 21 is_stmt 1
	movq	%rax, -8(%rbp)
Ltmp415:
	.loc	1 502 12
	testb	$1, 16(%rax)
	jne	LBB49_8
	jmp	LBB49_7
Ltmp416:
LBB49_5:
	.loc	1 0 12 is_stmt 0
	movq	-208(%rbp), %rcx
	.loc	1 454 18 is_stmt 1
	movq	-176(%rbp), %rax
	movq	%rax, -216(%rbp)
	movq	%rax, -72(%rbp)
Ltmp417:
	.loc	1 455 33
	movq	(%rcx), %rdx
	movq	8(%rcx), %rcx
	movq	%rdx, -64(%rbp)
	movq	%rcx, -56(%rbp)
	.loc	1 455 40 is_stmt 0
	movq	%rax, -128(%rbp)
Ltmp418:
	.loc	2 18 9 is_stmt 1
	movq	-128(%rbp), %rax
	movq	%rax, -48(%rbp)
	.loc	2 18 21 is_stmt 0
	movq	%rdx, -40(%rbp)
	movq	%rcx, -32(%rbp)
Ltmp419:
	.loc	2 456 9 is_stmt 1
	movq	$0, -112(%rbp)
	movq	%rax, -104(%rbp)
	movq	-112(%rbp), %rdi
	movq	-104(%rbp), %rsi
	leaq	l___unnamed_11(%rip), %r8
	callq	__ZN106_$LT$core..ops..range..Range$LT$usize$GT$$u20$as$u20$core..slice..index..SliceIndex$LT$$u5b$T$u5d$$GT$$GT$5index17h7363df975fb64a45E
	movq	-208(%rbp), %rcx
	movq	%rax, %rsi
	movq	-216(%rbp), %rax
Ltmp420:
	.loc	1 455 27
	movq	%rsi, -144(%rbp)
	movq	%rdx, -136(%rbp)
Ltmp421:
	.loc	1 456 27
	movq	(%rcx), %rsi
	movq	8(%rcx), %rdx
	movq	%rsi, -24(%rbp)
	movq	%rdx, -16(%rbp)
	.loc	1 456 34 is_stmt 0
	addq	$1, %rax
	movq	%rax, -120(%rbp)
Ltmp422:
	.loc	2 18 9 is_stmt 1
	movq	-120(%rbp), %rdi
	leaq	l___unnamed_12(%rip), %rcx
	callq	__ZN110_$LT$core..ops..range..RangeFrom$LT$usize$GT$$u20$as$u20$core..slice..index..SliceIndex$LT$$u5b$T$u5d$$GT$$GT$5index17hc800db50a3ed0669E
	movq	%rax, %rcx
	movq	-208(%rbp), %rax
Ltmp423:
	.loc	1 456 17
	movq	%rcx, (%rax)
	movq	%rdx, 8(%rax)
	.loc	1 457 17
	movq	-144(%rbp), %rcx
	movq	-136(%rbp), %rax
	movq	%rcx, -200(%rbp)
	movq	%rax, -192(%rbp)
Ltmp424:
LBB49_6:
	.loc	1 460 6
	jmp	LBB49_3
LBB49_7:
	.loc	1 0 6 is_stmt 0
	movq	-208(%rbp), %rax
Ltmp425:
	.loc	1 505 13 is_stmt 1
	movb	$1, 16(%rax)
	.loc	1 506 18
	movq	(%rax), %rcx
	movq	8(%rax), %rax
	.loc	1 506 13 is_stmt 0
	movq	%rcx, -200(%rbp)
	movq	%rax, -192(%rbp)
	.loc	1 502 9 is_stmt 1
	jmp	LBB49_9
LBB49_8:
	.loc	1 503 13
	movq	$0, -200(%rbp)
Ltmp426:
LBB49_9:
	.loc	1 453 33
	jmp	LBB49_6
Ltmp427:
Lfunc_end49:
	.cfi_endproc

	.globl	__ZN96_$LT$core..slice..iter..Split$LT$T$C$P$GT$$u20$as$u20$core..iter..traits..iterator..Iterator$GT$4next17hf3cd0a4420659664E
	.p2align	4, 0x90
__ZN96_$LT$core..slice..iter..Split$LT$T$C$P$GT$$u20$as$u20$core..iter..traits..iterator..Iterator$GT$4next17hf3cd0a4420659664E:
Lfunc_begin50:
	.loc	1 447 0
	.cfi_startproc
	pushq	%rbp
	.cfi_def_cfa_offset 16
	.cfi_offset %rbp, -16
	movq	%rsp, %rbp
	.cfi_def_cfa_register %rbp
	subq	$224, %rsp
	movq	%rdi, -208(%rbp)
	movq	%rdi, -96(%rbp)
Ltmp428:
	.loc	1 448 12 prologue_end
	testb	$1, 16(%rdi)
	jne	LBB50_2
	.loc	1 0 12 is_stmt 0
	movq	-208(%rbp), %rax
	.loc	1 452 15 is_stmt 1
	movq	(%rax), %rdi
	movq	8(%rax), %rsi
	movq	%rdi, -88(%rbp)
	movq	%rsi, -80(%rbp)
Ltmp429:
	.loc	12 742 9
	callq	__ZN4core5slice4iter13Iter$LT$T$GT$3new17h94c64fc37df14715E
	movq	%rax, %rcx
	movq	-208(%rbp), %rax
	movq	%rdx, -160(%rbp)
	movq	%rcx, -168(%rbp)
Ltmp430:
	.loc	1 452 38
	movq	%rax, -152(%rbp)
	.loc	1 452 15 is_stmt 0
	movq	-152(%rbp), %rsi
	leaq	-168(%rbp), %rdi
	callq	__ZN91_$LT$core..slice..iter..Iter$LT$T$GT$$u20$as$u20$core..iter..traits..iterator..Iterator$GT$8position17hb7fb7ce150d57e3aE
	movq	%rdx, -176(%rbp)
	movq	%rax, -184(%rbp)
	.loc	1 452 9
	cmpq	$0, -184(%rbp)
	je	LBB50_4
	jmp	LBB50_5
LBB50_2:
	.loc	1 449 20 is_stmt 1
	movq	$0, -200(%rbp)
LBB50_3:
	.loc	1 460 6
	movq	-200(%rbp), %rax
	movq	-192(%rbp), %rdx
	addq	$224, %rsp
	popq	%rbp
	retq
LBB50_4:
	.loc	1 0 6 is_stmt 0
	movq	-208(%rbp), %rax
	.loc	1 453 21 is_stmt 1
	movq	%rax, -8(%rbp)
Ltmp431:
	.loc	1 502 12
	testb	$1, 16(%rax)
	jne	LBB50_8
	jmp	LBB50_7
Ltmp432:
LBB50_5:
	.loc	1 0 12 is_stmt 0
	movq	-208(%rbp), %rcx
	.loc	1 454 18 is_stmt 1
	movq	-176(%rbp), %rax
	movq	%rax, -216(%rbp)
	movq	%rax, -72(%rbp)
Ltmp433:
	.loc	1 455 33
	movq	(%rcx), %rdx
	movq	8(%rcx), %rcx
	movq	%rdx, -64(%rbp)
	movq	%rcx, -56(%rbp)
	.loc	1 455 40 is_stmt 0
	movq	%rax, -128(%rbp)
Ltmp434:
	.loc	2 18 9 is_stmt 1
	movq	-128(%rbp), %rax
	movq	%rax, -48(%rbp)
	.loc	2 18 21 is_stmt 0
	movq	%rdx, -40(%rbp)
	movq	%rcx, -32(%rbp)
Ltmp435:
	.loc	2 456 9 is_stmt 1
	movq	$0, -112(%rbp)
	movq	%rax, -104(%rbp)
	movq	-112(%rbp), %rdi
	movq	-104(%rbp), %rsi
	leaq	l___unnamed_11(%rip), %r8
	callq	__ZN106_$LT$core..ops..range..Range$LT$usize$GT$$u20$as$u20$core..slice..index..SliceIndex$LT$$u5b$T$u5d$$GT$$GT$5index17h7363df975fb64a45E
	movq	-208(%rbp), %rcx
	movq	%rax, %rsi
	movq	-216(%rbp), %rax
Ltmp436:
	.loc	1 455 27
	movq	%rsi, -144(%rbp)
	movq	%rdx, -136(%rbp)
Ltmp437:
	.loc	1 456 27
	movq	(%rcx), %rsi
	movq	8(%rcx), %rdx
	movq	%rsi, -24(%rbp)
	movq	%rdx, -16(%rbp)
	.loc	1 456 34 is_stmt 0
	addq	$1, %rax
	movq	%rax, -120(%rbp)
Ltmp438:
	.loc	2 18 9 is_stmt 1
	movq	-120(%rbp), %rdi
	leaq	l___unnamed_12(%rip), %rcx
	callq	__ZN110_$LT$core..ops..range..RangeFrom$LT$usize$GT$$u20$as$u20$core..slice..index..SliceIndex$LT$$u5b$T$u5d$$GT$$GT$5index17hc800db50a3ed0669E
	movq	%rax, %rcx
	movq	-208(%rbp), %rax
Ltmp439:
	.loc	1 456 17
	movq	%rcx, (%rax)
	movq	%rdx, 8(%rax)
	.loc	1 457 17
	movq	-144(%rbp), %rcx
	movq	-136(%rbp), %rax
	movq	%rcx, -200(%rbp)
	movq	%rax, -192(%rbp)
Ltmp440:
LBB50_6:
	.loc	1 460 6
	jmp	LBB50_3
LBB50_7:
	.loc	1 0 6 is_stmt 0
	movq	-208(%rbp), %rax
Ltmp441:
	.loc	1 505 13 is_stmt 1
	movb	$1, 16(%rax)
	.loc	1 506 18
	movq	(%rax), %rcx
	movq	8(%rax), %rax
	.loc	1 506 13 is_stmt 0
	movq	%rcx, -200(%rbp)
	movq	%rax, -192(%rbp)
	.loc	1 502 9 is_stmt 1
	jmp	LBB50_9
LBB50_8:
	.loc	1 503 13
	movq	$0, -200(%rbp)
Ltmp442:
LBB50_9:
	.loc	1 453 33
	jmp	LBB50_6
Ltmp443:
Lfunc_end50:
	.cfi_endproc

	.globl	__ZN96_$LT$core..slice..iter..Split$LT$T$C$P$GT$$u20$as$u20$core..iter..traits..iterator..Iterator$GT$4next28_$u7b$$u7b$closure$u7d$$u7d$17h068b5974e96d1f67E
	.p2align	4, 0x90
__ZN96_$LT$core..slice..iter..Split$LT$T$C$P$GT$$u20$as$u20$core..iter..traits..iterator..Iterator$GT$4next28_$u7b$$u7b$closure$u7d$$u7d$17h068b5974e96d1f67E:
Lfunc_begin51:
	.loc	1 452 0
	.cfi_startproc
	pushq	%rbp
	.cfi_def_cfa_offset 16
	.cfi_offset %rbp, -16
	movq	%rsp, %rbp
	.cfi_def_cfa_register %rbp
	subq	$32, %rsp
	movq	%rdi, -16(%rbp)
	movq	%rsi, -8(%rbp)
Ltmp444:
	.loc	1 452 42 prologue_end
	movq	(%rdi), %rdi
	movq	%rsi, -24(%rbp)
	movq	-24(%rbp), %rsi
	callq	__ZN81_$LT$form_urlencoded..Parse$u20$as$u20$core..iter..traits..iterator..Iterator$GT$4next28_$u7b$$u7b$closure$u7d$$u7d$17h8250b4323b48991aE
	.loc	1 452 56 is_stmt 0
	andb	$1, %al
	movzbl	%al, %eax
	addq	$32, %rsp
	popq	%rbp
	retq
Ltmp445:
Lfunc_end51:
	.cfi_endproc

	.globl	__ZN96_$LT$core..slice..iter..Split$LT$T$C$P$GT$$u20$as$u20$core..iter..traits..iterator..Iterator$GT$4next28_$u7b$$u7b$closure$u7d$$u7d$17hb7fad2781749a41aE
	.p2align	4, 0x90
__ZN96_$LT$core..slice..iter..Split$LT$T$C$P$GT$$u20$as$u20$core..iter..traits..iterator..Iterator$GT$4next28_$u7b$$u7b$closure$u7d$$u7d$17hb7fad2781749a41aE:
Lfunc_begin52:
	.loc	1 452 0 is_stmt 1
	.cfi_startproc
	pushq	%rbp
	.cfi_def_cfa_offset 16
	.cfi_offset %rbp, -16
	movq	%rsp, %rbp
	.cfi_def_cfa_register %rbp
	subq	$32, %rsp
	movq	%rdi, -16(%rbp)
	movq	%rsi, -8(%rbp)
Ltmp446:
	.loc	1 452 42 prologue_end
	movq	(%rdi), %rdi
	movq	%rsi, -24(%rbp)
	movq	-24(%rbp), %rsi
	callq	__ZN81_$LT$form_urlencoded..Parse$u20$as$u20$core..iter..traits..iterator..Iterator$GT$4next28_$u7b$$u7b$closure$u7d$$u7d$17he5feec9a526c060bE
	.loc	1 452 56 is_stmt 0
	andb	$1, %al
	movzbl	%al, %eax
	addq	$32, %rsp
	popq	%rbp
	retq
Ltmp447:
Lfunc_end52:
	.cfi_endproc

	.globl	__ZN97_$LT$core..slice..iter..SplitN$LT$T$C$P$GT$$u20$as$u20$core..iter..traits..iterator..Iterator$GT$4next17h005dfaeae51e49bcE
	.p2align	4, 0x90
__ZN97_$LT$core..slice..iter..SplitN$LT$T$C$P$GT$$u20$as$u20$core..iter..traits..iterator..Iterator$GT$4next17h005dfaeae51e49bcE:
Lfunc_begin53:
	.loc	27 400 0 is_stmt 1
	.cfi_startproc
	pushq	%rbp
	.cfi_def_cfa_offset 16
	.cfi_offset %rbp, -16
	movq	%rsp, %rbp
	.cfi_def_cfa_register %rbp
	subq	$16, %rsp
	movq	%rdi, -8(%rbp)
Ltmp448:
	.loc	27 401 17 prologue_end
	callq	__ZN100_$LT$core..slice..iter..GenericSplitN$LT$I$GT$$u20$as$u20$core..iter..traits..iterator..Iterator$GT$4next17hd82ebeb34c5d2b98E
	.loc	27 402 14
	addq	$16, %rsp
	popq	%rbp
	retq
Ltmp449:
Lfunc_end53:
	.cfi_endproc

	.globl	__ZN97_$LT$core..slice..iter..SplitN$LT$T$C$P$GT$$u20$as$u20$core..iter..traits..iterator..Iterator$GT$4next17h50b8789b7940515aE
	.p2align	4, 0x90
__ZN97_$LT$core..slice..iter..SplitN$LT$T$C$P$GT$$u20$as$u20$core..iter..traits..iterator..Iterator$GT$4next17h50b8789b7940515aE:
Lfunc_begin54:
	.loc	27 400 0
	.cfi_startproc
	pushq	%rbp
	.cfi_def_cfa_offset 16
	.cfi_offset %rbp, -16
	movq	%rsp, %rbp
	.cfi_def_cfa_register %rbp
	subq	$16, %rsp
	movq	%rdi, -8(%rbp)
Ltmp450:
	.loc	27 401 17 prologue_end
	callq	__ZN100_$LT$core..slice..iter..GenericSplitN$LT$I$GT$$u20$as$u20$core..iter..traits..iterator..Iterator$GT$4next17h7f69e33c9d554041E
	.loc	27 402 14
	addq	$16, %rsp
	popq	%rbp
	retq
Ltmp451:
Lfunc_end54:
	.cfi_endproc

	.globl	__ZN81_$LT$form_urlencoded..Parse$u20$as$u20$core..iter..traits..iterator..Iterator$GT$4next17hee0625d8748dae8fE
	.p2align	4, 0x90
__ZN81_$LT$form_urlencoded..Parse$u20$as$u20$core..iter..traits..iterator..Iterator$GT$4next17hee0625d8748dae8fE:
Lfunc_begin55:
	.file	29 "/Users/natalie/.cargo/registry/src/github.com-1ecc6299db9ec823/form_urlencoded-1.1.0" "src/lib.rs"
	.loc	29 40 0
	.cfi_startproc
	.cfi_personality 155, _rust_eh_personality
	.cfi_lsda 16, Lexception9
	pushq	%rbp
	.cfi_def_cfa_offset 16
	.cfi_offset %rbp, -16
	movq	%rsp, %rbp
	.cfi_def_cfa_register %rbp
	subq	$400, %rsp
	movq	%rsi, -288(%rbp)
	movq	%rdi, -280(%rbp)
	movq	%rdi, -272(%rbp)
	movq	%rsi, -72(%rbp)
LBB55_1:
	movq	-288(%rbp), %rax
Ltmp458:
	.loc	29 42 16 prologue_end
	movq	(%rax), %rdi
	movq	8(%rax), %rsi
	callq	__ZN4core5slice29_$LT$impl$u20$$u5b$T$u5d$$GT$8is_empty17h8aa58562f21d44fcE
	testb	$1, %al
	jne	LBB55_3
	.loc	29 0 16 is_stmt 0
	movq	-288(%rbp), %rax
	.loc	29 45 30 is_stmt 1
	movq	(%rax), %rsi
	movq	8(%rax), %rdx
	leaq	-264(%rbp), %rdi
	movl	$2, %ecx
	callq	__ZN4core5slice29_$LT$impl$u20$$u5b$T$u5d$$GT$6splitn17h531d5fb14a9b9fdfE
Ltmp459:
	.loc	29 46 28
	leaq	-264(%rbp), %rdi
	callq	__ZN97_$LT$core..slice..iter..SplitN$LT$T$C$P$GT$$u20$as$u20$core..iter..traits..iterator..Iterator$GT$4next17h50b8789b7940515aE
	movq	%rax, %rdi
	movq	%rdx, %rsi
	leaq	l___unnamed_13(%rip), %rdx
	callq	__ZN4core6option15Option$LT$T$GT$6unwrap17h3f2edb45ef5e3787E
	movq	%rax, -304(%rbp)
	movq	%rdx, -296(%rbp)
	movq	%rax, -64(%rbp)
	movq	%rdx, -56(%rbp)
Ltmp460:
	.loc	29 47 26
	leaq	-264(%rbp), %rdi
	callq	__ZN97_$LT$core..slice..iter..SplitN$LT$T$C$P$GT$$u20$as$u20$core..iter..traits..iterator..Iterator$GT$4next17h50b8789b7940515aE
	movq	%rax, -328(%rbp)
	movq	%rdx, -320(%rbp)
	.loc	29 47 51 is_stmt 0
	leaq	l___unnamed_3(%rip), %rdi
	leaq	l___unnamed_14(%rip), %rsi
	callq	__ZN4core5array85_$LT$impl$u20$core..ops..index..Index$LT$I$GT$$u20$for$u20$$u5b$T$u3b$$u20$N$u5d$$GT$5index17hb401778b1f09aa78E
	movq	-328(%rbp), %rdi
	movq	-320(%rbp), %rsi
	movq	%rax, -312(%rbp)
	movq	%rdx, %rcx
	movq	-312(%rbp), %rdx
	.loc	29 47 26
	callq	__ZN4core6option15Option$LT$T$GT$9unwrap_or17h42c777968288e6f1E
	movq	-304(%rbp), %rdi
	movq	-296(%rbp), %rsi
	movq	%rax, %rcx
	movq	-288(%rbp), %rax
	.loc	29 47 13
	movq	%rcx, (%rax)
	movq	%rdx, 8(%rax)
	.loc	29 48 16 is_stmt 1
	callq	__ZN4core5slice29_$LT$impl$u20$$u5b$T$u5d$$GT$8is_empty17h8aa58562f21d44fcE
	testb	$1, %al
	jne	LBB55_1
	jmp	LBB55_5
Ltmp461:
LBB55_3:
	.loc	29 0 16 is_stmt 0
	movq	-280(%rbp), %rax
	.loc	29 43 24 is_stmt 1
	movq	$2, (%rax)
LBB55_4:
	.loc	29 0 24 is_stmt 0
	movq	-272(%rbp), %rax
	.loc	29 56 6 is_stmt 1
	addq	$400, %rsp
	popq	%rbp
	retq
LBB55_5:
	.loc	29 0 6 is_stmt 0
	movq	-296(%rbp), %rdx
	movq	-304(%rbp), %rsi
	leaq	-232(%rbp), %rdi
	movq	%rdi, -392(%rbp)
	movl	$2, %ecx
Ltmp462:
	.loc	29 51 30 is_stmt 1
	callq	__ZN4core5slice29_$LT$impl$u20$$u5b$T$u5d$$GT$6splitn17hdf8e2102ea33cb15E
	movq	-392(%rbp), %rdi
Ltmp463:
	.loc	29 52 24
	callq	__ZN97_$LT$core..slice..iter..SplitN$LT$T$C$P$GT$$u20$as$u20$core..iter..traits..iterator..Iterator$GT$4next17h005dfaeae51e49bcE
	movq	%rax, %rdi
	movq	%rdx, %rsi
	leaq	l___unnamed_15(%rip), %rdx
	callq	__ZN4core6option15Option$LT$T$GT$6unwrap17h3f2edb45ef5e3787E
	movq	-392(%rbp), %rdi
	movq	%rax, -360(%rbp)
	movq	%rdx, -352(%rbp)
	movq	%rax, -48(%rbp)
	movq	%rdx, -40(%rbp)
Ltmp464:
	.loc	29 53 25
	callq	__ZN97_$LT$core..slice..iter..SplitN$LT$T$C$P$GT$$u20$as$u20$core..iter..traits..iterator..Iterator$GT$4next17h005dfaeae51e49bcE
	movq	%rax, -384(%rbp)
	movq	%rdx, -376(%rbp)
	.loc	29 53 50 is_stmt 0
	leaq	l___unnamed_3(%rip), %rdi
	leaq	l___unnamed_16(%rip), %rsi
	callq	__ZN4core5array85_$LT$impl$u20$core..ops..index..Index$LT$I$GT$$u20$for$u20$$u5b$T$u3b$$u20$N$u5d$$GT$5index17hb401778b1f09aa78E
	movq	-384(%rbp), %rdi
	movq	-376(%rbp), %rsi
	movq	%rax, -368(%rbp)
	movq	%rdx, %rcx
	movq	-368(%rbp), %rdx
	.loc	29 53 25
	callq	__ZN4core6option15Option$LT$T$GT$9unwrap_or17h42c777968288e6f1E
	movq	-360(%rbp), %rsi
	movq	%rax, %rcx
	movq	%rcx, -344(%rbp)
	movq	%rdx, %rax
	movq	-352(%rbp), %rdx
	movq	%rax, -336(%rbp)
	movq	%rcx, -32(%rbp)
	movq	%rax, -24(%rbp)
	leaq	-136(%rbp), %rdi
Ltmp465:
	.loc	29 54 26 is_stmt 1
	callq	__ZN15form_urlencoded6decode17h2a0671b46158d32cE
	movq	-344(%rbp), %rsi
	movq	-336(%rbp), %rdx
Ltmp452:
	leaq	-104(%rbp), %rdi
	.loc	29 54 40 is_stmt 0
	callq	__ZN15form_urlencoded6decode17h2a0671b46158d32cE
Ltmp453:
	jmp	LBB55_8
LBB55_6:
Ltmp455:
	.loc	29 0 40
	leaq	-136(%rbp), %rdi
	.loc	29 54 53
	callq	__ZN4core3ptr50drop_in_place$LT$alloc..borrow..Cow$LT$str$GT$$GT$17hd788a57a5813a73cE
Ltmp456:
	jmp	LBB55_10
LBB55_7:
Ltmp454:
	.loc	29 0 53
	movq	%rax, %rcx
	movl	%edx, %eax
	movq	%rcx, -16(%rbp)
	movl	%eax, -8(%rbp)
	jmp	LBB55_6
LBB55_8:
	movq	-280(%rbp), %rdi
	.loc	29 54 25
	movq	-136(%rbp), %rax
	movq	%rax, -200(%rbp)
	movq	-128(%rbp), %rax
	movq	%rax, -192(%rbp)
	movq	-120(%rbp), %rax
	movq	%rax, -184(%rbp)
	movq	-112(%rbp), %rax
	movq	%rax, -176(%rbp)
	movq	-104(%rbp), %rax
	movq	%rax, -168(%rbp)
	movq	-96(%rbp), %rax
	movq	%rax, -160(%rbp)
	movq	-88(%rbp), %rax
	movq	%rax, -152(%rbp)
	movq	-80(%rbp), %rax
	movq	%rax, -144(%rbp)
	.loc	29 54 20
	leaq	-200(%rbp), %rsi
	movl	$64, %edx
	callq	_memcpy
Ltmp466:
	.loc	29 1 1 is_stmt 1
	jmp	LBB55_4
LBB55_9:
Ltmp457:
	.loc	29 40 5
	callq	__ZN4core9panicking19panic_cannot_unwind17h1fbca7e1d7f56ae1E
LBB55_10:
	movq	-16(%rbp), %rdi
	callq	__Unwind_Resume
Ltmp467:
Lfunc_end55:
	.cfi_endproc
	.section	__TEXT,__gcc_except_tab
	.p2align	2
GCC_except_table55:
Lexception9:
	.byte	255
	.byte	255
	.byte	1
	.uleb128 Lcst_end9-Lcst_begin9
Lcst_begin9:
	.uleb128 Lfunc_begin55-Lfunc_begin55
	.uleb128 Ltmp452-Lfunc_begin55
	.byte	0
	.byte	0
	.uleb128 Ltmp452-Lfunc_begin55
	.uleb128 Ltmp453-Ltmp452
	.uleb128 Ltmp454-Lfunc_begin55
	.byte	0
	.uleb128 Ltmp455-Lfunc_begin55
	.uleb128 Ltmp456-Ltmp455
	.uleb128 Ltmp457-Lfunc_begin55
	.byte	0
	.uleb128 Ltmp456-Lfunc_begin55
	.uleb128 Lfunc_end55-Ltmp456
	.byte	0
	.byte	0
Lcst_end9:
	.p2align	2

	.section	__TEXT,__text,regular,pure_instructions
	.p2align	4, 0x90
__ZN81_$LT$form_urlencoded..Parse$u20$as$u20$core..iter..traits..iterator..Iterator$GT$4next28_$u7b$$u7b$closure$u7d$$u7d$17he5feec9a526c060bE:
Lfunc_begin56:
	.loc	29 45 0
	.cfi_startproc
	pushq	%rbp
	.cfi_def_cfa_offset 16
	.cfi_offset %rbp, -16
	movq	%rsp, %rbp
	.cfi_def_cfa_register %rbp
	subq	$24, %rsp
	movq	%rdi, -24(%rbp)
	movq	%rsi, -16(%rbp)
Ltmp468:
	.loc	29 45 53 prologue_end
	movb	(%rsi), %al
	movb	%al, -1(%rbp)
Ltmp469:
	.loc	29 45 56 is_stmt 0
	cmpb	$38, %al
	sete	%al
Ltmp470:
	.loc	29 45 65
	andb	$1, %al
	movzbl	%al, %eax
	addq	$24, %rsp
	popq	%rbp
	retq
Ltmp471:
Lfunc_end56:
	.cfi_endproc

	.p2align	4, 0x90
__ZN81_$LT$form_urlencoded..Parse$u20$as$u20$core..iter..traits..iterator..Iterator$GT$4next28_$u7b$$u7b$closure$u7d$$u7d$17h8250b4323b48991aE:
Lfunc_begin57:
	.loc	29 51 0 is_stmt 1
	.cfi_startproc
	pushq	%rbp
	.cfi_def_cfa_offset 16
	.cfi_offset %rbp, -16
	movq	%rsp, %rbp
	.cfi_def_cfa_register %rbp
	subq	$24, %rsp
	movq	%rdi, -24(%rbp)
	movq	%rsi, -16(%rbp)
Ltmp472:
	.loc	29 51 51 prologue_end
	movb	(%rsi), %al
	movb	%al, -1(%rbp)
Ltmp473:
	.loc	29 51 54 is_stmt 0
	cmpb	$61, %al
	sete	%al
Ltmp474:
	.loc	29 51 63
	andb	$1, %al
	movzbl	%al, %eax
	addq	$24, %rsp
	popq	%rbp
	retq
Ltmp475:
Lfunc_end57:
	.cfi_endproc

	.p2align	4, 0x90
__ZN15form_urlencoded6decode17h2a0671b46158d32cE:
Lfunc_begin58:
	.loc	29 59 0 is_stmt 1
	.cfi_startproc
	.cfi_personality 155, _rust_eh_personality
	.cfi_lsda 16, Lexception10
	pushq	%rbp
	.cfi_def_cfa_offset 16
	.cfi_offset %rbp, -16
	movq	%rsp, %rbp
	.cfi_def_cfa_register %rbp
	subq	$240, %rsp
	movq	%rdi, -224(%rbp)
	movq	%rdi, -216(%rbp)
	movq	%rsi, -32(%rbp)
	movq	%rdx, -24(%rbp)
Ltmp491:
	.loc	29 60 9 prologue_end
	movb	$0, -33(%rbp)
	.loc	29 60 20 is_stmt 0
	movb	$1, -33(%rbp)
	leaq	-184(%rbp), %rdi
	movq	%rdi, -208(%rbp)
	callq	__ZN15form_urlencoded12replace_plus17h5fdc60a622fca41bE
	movq	-208(%rbp), %rdi
Ltmp476:
Ltmp492:
	.loc	29 61 44 is_stmt 1
	callq	__ZN71_$LT$alloc..borrow..Cow$LT$B$GT$$u20$as$u20$core..ops..deref..Deref$GT$5deref17hda8a4c072267bce4E
Ltmp477:
	movq	%rdx, -200(%rbp)
	movq	%rax, -192(%rbp)
	jmp	LBB58_3
Ltmp493:
LBB58_1:
Ltmp483:
	.loc	29 0 44 is_stmt 0
	leaq	-184(%rbp), %rdi
	.loc	29 65 1 is_stmt 1
	callq	__ZN4core3ptr59drop_in_place$LT$alloc..borrow..Cow$LT$$u5b$u8$u5d$$GT$$GT$17hb669d988d0285d6cE
Ltmp484:
	jmp	LBB58_7
LBB58_2:
Ltmp482:
	.loc	29 0 1 is_stmt 0
	movq	%rax, %rcx
	movl	%edx, %eax
	movq	%rcx, -16(%rbp)
	movl	%eax, -8(%rbp)
	jmp	LBB58_1
LBB58_3:
Ltmp478:
	movq	-200(%rbp), %rsi
	movq	-192(%rbp), %rdi
Ltmp494:
	.loc	29 61 29 is_stmt 1
	callq	__ZN16percent_encoding14percent_decode17h5a416899498a90c6E
Ltmp479:
	movq	%rdx, -240(%rbp)
	movq	%rax, -232(%rbp)
	jmp	LBB58_4
LBB58_4:
Ltmp480:
	.loc	29 0 29 is_stmt 0
	movq	-240(%rbp), %rdx
	movq	-232(%rbp), %rsi
	leaq	-120(%rbp), %rdi
	.loc	29 61 29
	callq	__ZN50_$LT$T$u20$as$u20$core..convert..Into$LT$U$GT$$GT$4into17h16234ee799c76780E
Ltmp481:
	jmp	LBB58_5
LBB58_5:
	.loc	29 61 23
	cmpq	$0, -120(%rbp)
	je	LBB58_8
	jmp	LBB58_9
Ltmp495:
LBB58_6:
Ltmp490:
	.loc	29 59 1 is_stmt 1
	callq	__ZN4core9panicking19panic_cannot_unwind17h1fbca7e1d7f56ae1E
LBB58_7:
	movq	-16(%rbp), %rdi
	callq	__Unwind_Resume
LBB58_8:
Ltmp496:
	.loc	29 63 29
	movb	$0, -33(%rbp)
	movq	-184(%rbp), %rax
	movq	%rax, -152(%rbp)
	movq	-176(%rbp), %rax
	movq	%rax, -144(%rbp)
	movq	-168(%rbp), %rax
	movq	%rax, -136(%rbp)
	movq	-160(%rbp), %rax
	movq	%rax, -128(%rbp)
	jmp	LBB58_10
LBB58_9:
	.loc	29 62 20
	movq	-112(%rbp), %rax
	movq	%rax, -88(%rbp)
	movq	-104(%rbp), %rax
	movq	%rax, -80(%rbp)
	movq	-96(%rbp), %rax
	movq	%rax, -72(%rbp)
Ltmp497:
	.loc	29 62 39 is_stmt 0
	movq	-88(%rbp), %rax
	movq	%rax, -64(%rbp)
	movq	-80(%rbp), %rax
	movq	%rax, -56(%rbp)
	movq	-72(%rbp), %rax
	movq	%rax, -48(%rbp)
	.loc	29 62 28
	movq	-64(%rbp), %rax
	movq	%rax, -144(%rbp)
	movq	-56(%rbp), %rax
	movq	%rax, -136(%rbp)
	movq	-48(%rbp), %rax
	movq	%rax, -128(%rbp)
	movq	$1, -152(%rbp)
Ltmp498:
LBB58_10:
Ltmp485:
	.loc	29 0 28
	movq	-224(%rbp), %rdi
	leaq	-152(%rbp), %rsi
	.loc	29 61 5 is_stmt 1
	callq	__ZN15form_urlencoded17decode_utf8_lossy17hadd902181760ee49E
Ltmp486:
	jmp	LBB58_13
Ltmp499:
LBB58_11:
	.loc	29 65 1
	testb	$1, -33(%rbp)
	jne	LBB58_14
	jmp	LBB58_7
LBB58_12:
Ltmp487:
	.loc	29 0 1 is_stmt 0
	movq	%rax, %rcx
	movl	%edx, %eax
	movq	%rcx, -16(%rbp)
	movl	%eax, -8(%rbp)
	jmp	LBB58_11
LBB58_13:
	.loc	29 65 1
	testb	$1, -33(%rbp)
	jne	LBB58_16
	jmp	LBB58_15
LBB58_14:
Ltmp488:
	.loc	29 0 1
	leaq	-184(%rbp), %rdi
	.loc	29 65 1
	callq	__ZN4core3ptr59drop_in_place$LT$alloc..borrow..Cow$LT$$u5b$u8$u5d$$GT$$GT$17hb669d988d0285d6cE
Ltmp489:
	jmp	LBB58_7
LBB58_15:
	.loc	29 0 1
	movq	-216(%rbp), %rax
	.loc	29 65 1
	movb	$0, -33(%rbp)
	.loc	29 65 2
	addq	$240, %rsp
	popq	%rbp
	retq
LBB58_16:
	.loc	29 65 1
	leaq	-184(%rbp), %rdi
	callq	__ZN4core3ptr59drop_in_place$LT$alloc..borrow..Cow$LT$$u5b$u8$u5d$$GT$$GT$17hb669d988d0285d6cE
	jmp	LBB58_15
Ltmp500:
Lfunc_end58:
	.cfi_endproc
	.section	__TEXT,__gcc_except_tab
	.p2align	2
GCC_except_table58:
Lexception10:
	.byte	255
	.byte	255
	.byte	1
	.uleb128 Lcst_end10-Lcst_begin10
Lcst_begin10:
	.uleb128 Lfunc_begin58-Lfunc_begin58
	.uleb128 Ltmp476-Lfunc_begin58
	.byte	0
	.byte	0
	.uleb128 Ltmp476-Lfunc_begin58
	.uleb128 Ltmp477-Ltmp476
	.uleb128 Ltmp482-Lfunc_begin58
	.byte	0
	.uleb128 Ltmp483-Lfunc_begin58
	.uleb128 Ltmp484-Ltmp483
	.uleb128 Ltmp490-Lfunc_begin58
	.byte	0
	.uleb128 Ltmp478-Lfunc_begin58
	.uleb128 Ltmp481-Ltmp478
	.uleb128 Ltmp482-Lfunc_begin58
	.byte	0
	.uleb128 Ltmp481-Lfunc_begin58
	.uleb128 Ltmp485-Ltmp481
	.byte	0
	.byte	0
	.uleb128 Ltmp485-Lfunc_begin58
	.uleb128 Ltmp486-Ltmp485
	.uleb128 Ltmp487-Lfunc_begin58
	.byte	0
	.uleb128 Ltmp488-Lfunc_begin58
	.uleb128 Ltmp489-Ltmp488
	.uleb128 Ltmp490-Lfunc_begin58
	.byte	0
	.uleb128 Ltmp489-Lfunc_begin58
	.uleb128 Lfunc_end58-Ltmp489
	.byte	0
	.byte	0
Lcst_end10:
	.p2align	2

	.section	__TEXT,__text,regular,pure_instructions
	.p2align	4, 0x90
__ZN15form_urlencoded12replace_plus17h5fdc60a622fca41bE:
Lfunc_begin59:
	.loc	29 68 0 is_stmt 1
	.cfi_startproc
	.cfi_personality 155, _rust_eh_personality
	.cfi_lsda 16, Lexception11
	pushq	%rbp
	.cfi_def_cfa_offset 16
	.cfi_offset %rbp, -16
	movq	%rsp, %rbp
	.cfi_def_cfa_register %rbp
	subq	$272, %rsp
	movq	%rdx, -192(%rbp)
	movq	%rsi, %rax
	movq	-192(%rbp), %rsi
	movq	%rax, -184(%rbp)
	movq	%rdi, %rax
	movq	-184(%rbp), %rdi
	movq	%rax, -176(%rbp)
	movq	%rax, -168(%rbp)
	movq	%rdi, -48(%rbp)
	movq	%rsi, -40(%rbp)
Ltmp515:
	.loc	29 69 11 prologue_end
	callq	__ZN4core5slice29_$LT$impl$u20$$u5b$T$u5d$$GT$4iter17h1373bfcc6c1ed715E
	movq	%rdx, -136(%rbp)
	movq	%rax, -144(%rbp)
	leaq	-144(%rbp), %rdi
	callq	__ZN91_$LT$core..slice..iter..Iter$LT$T$GT$$u20$as$u20$core..iter..traits..iterator..Iterator$GT$8position17hd1686ac89dd76030E
	movq	%rdx, -152(%rbp)
	movq	%rax, -160(%rbp)
	.loc	29 69 5 is_stmt 0
	cmpq	$0, -160(%rbp)
	jne	LBB59_2
	.loc	29 0 5
	movq	-176(%rbp), %rax
	movq	-192(%rbp), %rcx
	movq	-184(%rbp), %rdx
	.loc	29 70 17 is_stmt 1
	movq	%rdx, 8(%rax)
	movq	%rcx, 16(%rax)
	movq	$0, (%rax)
	.loc	29 70 36 is_stmt 0
	jmp	LBB59_18
LBB59_2:
	.loc	29 0 36
	movq	-192(%rbp), %rdx
	movq	-184(%rbp), %rsi
	.loc	29 71 14 is_stmt 1
	movq	-152(%rbp), %rax
	movq	%rax, -208(%rbp)
	movq	%rax, -32(%rbp)
	leaq	-128(%rbp), %rdi
	movq	%rdi, -216(%rbp)
Ltmp516:
	.loc	29 72 32
	callq	__ZN5alloc5slice64_$LT$impl$u20$alloc..borrow..ToOwned$u20$for$u20$$u5b$T$u5d$$GT$8to_owned17h607b302c8a77fb8aE
	movq	-216(%rbp), %rdi
	movq	-208(%rbp), %rsi
Ltmp501:
Ltmp517:
	.loc	29 73 13
	leaq	l___unnamed_17(%rip), %rdx
	callq	__ZN84_$LT$alloc..vec..Vec$LT$T$C$A$GT$$u20$as$u20$core..ops..index..IndexMut$LT$I$GT$$GT$9index_mut17hf7cb61022b43fe12E
Ltmp502:
	movq	%rax, -200(%rbp)
	jmp	LBB59_5
Ltmp518:
LBB59_3:
Ltmp512:
	.loc	29 0 13 is_stmt 0
	leaq	-128(%rbp), %rdi
	.loc	29 80 9 is_stmt 1
	callq	__ZN4core3ptr46drop_in_place$LT$alloc..vec..Vec$LT$u8$GT$$GT$17h83e90276065d94e4E
Ltmp513:
	jmp	LBB59_14
LBB59_4:
Ltmp511:
	.loc	29 0 9 is_stmt 0
	movq	%rax, %rcx
	movl	%edx, %eax
	movq	%rcx, -24(%rbp)
	movl	%eax, -16(%rbp)
	jmp	LBB59_3
LBB59_5:
	movq	-208(%rbp), %rax
	movq	-200(%rbp), %rcx
Ltmp519:
	.loc	29 73 13 is_stmt 1
	movb	$32, (%rcx)
	.loc	29 74 39
	addq	$1, %rax
	movq	%rax, -224(%rbp)
	setb	%al
	testb	$1, %al
	jne	LBB59_7
	.loc	29 0 39 is_stmt 0
	movq	-224(%rbp), %rax
	.loc	29 74 39
	movq	%rax, -104(%rbp)
	.loc	29 74 30
	movq	-104(%rbp), %rsi
Ltmp503:
	leaq	l___unnamed_18(%rip), %rdx
	leaq	-128(%rbp), %rdi
	callq	__ZN84_$LT$alloc..vec..Vec$LT$T$C$A$GT$$u20$as$u20$core..ops..index..IndexMut$LT$I$GT$$GT$9index_mut17h52568073eaa09689E
Ltmp504:
	movq	%rdx, -240(%rbp)
	movq	%rax, -232(%rbp)
	jmp	LBB59_9
LBB59_7:
Ltmp509:
	.loc	29 74 39
	leaq	_str.0(%rip), %rdi
	leaq	l___unnamed_19(%rip), %rdx
	movl	$28, %esi
	callq	__ZN4core9panicking5panic17hc1bc45270cf64b03E
Ltmp510:
	jmp	LBB59_8
LBB59_8:
	.loc	29 0 39
	ud2
LBB59_9:
Ltmp505:
	movq	-240(%rbp), %rsi
	movq	-232(%rbp), %rdi
	.loc	29 74 25
	callq	__ZN4core5slice4iter95_$LT$impl$u20$core..iter..traits..collect..IntoIterator$u20$for$u20$$RF$mut$u20$$u5b$T$u5d$$GT$9into_iter17hafa16b484d8fa05bE
Ltmp506:
	movq	%rdx, -256(%rbp)
	movq	%rax, -248(%rbp)
	jmp	LBB59_10
LBB59_10:
	.loc	29 0 25
	movq	-256(%rbp), %rax
	movq	-248(%rbp), %rcx
	.loc	29 74 25
	movq	%rcx, -96(%rbp)
	movq	%rax, -88(%rbp)
LBB59_11:
Ltmp507:
	.loc	29 0 25
	leaq	-96(%rbp), %rdi
Ltmp520:
	.loc	29 74 25
	callq	__ZN94_$LT$core..slice..iter..IterMut$LT$T$GT$$u20$as$u20$core..iter..traits..iterator..Iterator$GT$4next17ha8eb5c451bc0948bE
Ltmp508:
	movq	%rax, -264(%rbp)
	jmp	LBB59_12
LBB59_12:
	.loc	29 0 25
	movq	-264(%rbp), %rax
	.loc	29 74 25
	movq	%rax, -80(%rbp)
	movq	-80(%rbp), %rdx
	movl	$1, %eax
	xorl	%ecx, %ecx
	cmpq	$0, %rdx
	cmoveq	%rcx, %rax
	cmpq	$0, %rax
	je	LBB59_15
	jmp	LBB59_16
Ltmp521:
LBB59_13:
Ltmp514:
	.loc	29 68 1 is_stmt 1
	callq	__ZN4core9panicking19panic_cannot_unwind17h1fbca7e1d7f56ae1E
LBB59_14:
	movq	-24(%rbp), %rdi
	callq	__Unwind_Resume
LBB59_15:
	.loc	29 0 1 is_stmt 0
	movq	-176(%rbp), %rax
Ltmp522:
	.loc	29 79 24 is_stmt 1
	movq	-128(%rbp), %rcx
	movq	%rcx, -72(%rbp)
	movq	-120(%rbp), %rcx
	movq	%rcx, -64(%rbp)
	movq	-112(%rbp), %rcx
	movq	%rcx, -56(%rbp)
	.loc	29 79 13 is_stmt 0
	movq	-72(%rbp), %rcx
	movq	%rcx, 8(%rax)
	movq	-64(%rbp), %rcx
	movq	%rcx, 16(%rax)
	movq	-56(%rbp), %rcx
	movq	%rcx, 24(%rax)
	movq	$1, (%rax)
Ltmp523:
	.loc	29 80 9 is_stmt 1
	jmp	LBB59_18
LBB59_16:
Ltmp524:
	.loc	29 74 17
	movq	-80(%rbp), %rax
	movq	%rax, -272(%rbp)
	movq	%rax, -8(%rbp)
Ltmp525:
	.loc	29 75 20
	cmpb	$43, (%rax)
	jne	LBB59_11
	.loc	29 0 20 is_stmt 0
	movq	-272(%rbp), %rax
	.loc	29 76 21 is_stmt 1
	movb	$32, (%rax)
	.loc	29 75 17
	jmp	LBB59_11
Ltmp526:
LBB59_18:
	.loc	29 0 17 is_stmt 0
	movq	-168(%rbp), %rax
	.loc	29 82 2 is_stmt 1
	addq	$272, %rsp
	popq	%rbp
	retq
Ltmp527:
Lfunc_end59:
	.cfi_endproc
	.section	__TEXT,__gcc_except_tab
	.p2align	2
GCC_except_table59:
Lexception11:
	.byte	255
	.byte	255
	.byte	1
	.uleb128 Lcst_end11-Lcst_begin11
Lcst_begin11:
	.uleb128 Lfunc_begin59-Lfunc_begin59
	.uleb128 Ltmp501-Lfunc_begin59
	.byte	0
	.byte	0
	.uleb128 Ltmp501-Lfunc_begin59
	.uleb128 Ltmp502-Ltmp501
	.uleb128 Ltmp511-Lfunc_begin59
	.byte	0
	.uleb128 Ltmp512-Lfunc_begin59
	.uleb128 Ltmp513-Ltmp512
	.uleb128 Ltmp514-Lfunc_begin59
	.byte	0
	.uleb128 Ltmp503-Lfunc_begin59
	.uleb128 Ltmp508-Ltmp503
	.uleb128 Ltmp511-Lfunc_begin59
	.byte	0
	.uleb128 Ltmp508-Lfunc_begin59
	.uleb128 Lfunc_end59-Ltmp508
	.byte	0
	.byte	0
Lcst_end11:
	.p2align	2

	.section	__TEXT,__text,regular,pure_instructions
	.p2align	4, 0x90
__ZN15form_urlencoded12replace_plus28_$u7b$$u7b$closure$u7d$$u7d$17hae3239a01e147b26E:
Lfunc_begin60:
	.loc	29 69 0
	.cfi_startproc
	pushq	%rbp
	.cfi_def_cfa_offset 16
	.cfi_offset %rbp, -16
	movq	%rsp, %rbp
	.cfi_def_cfa_register %rbp
	subq	$24, %rsp
	movq	%rdi, -24(%rbp)
	movq	%rsi, -16(%rbp)
Ltmp528:
	.loc	29 69 35 prologue_end
	movb	(%rsi), %al
	movb	%al, -1(%rbp)
Ltmp529:
	.loc	29 69 38 is_stmt 0
	cmpb	$43, %al
	sete	%al
Ltmp530:
	.loc	29 69 47
	andb	$1, %al
	movzbl	%al, %eax
	addq	$24, %rsp
	popq	%rbp
	retq
Ltmp531:
Lfunc_end60:
	.cfi_endproc

	.globl	__ZN15form_urlencoded5Parse10into_owned17he46c7812ed4d6b7eE
	.p2align	4, 0x90
__ZN15form_urlencoded5Parse10into_owned17he46c7812ed4d6b7eE:
Lfunc_begin61:
	.loc	29 86 0 is_stmt 1
	.cfi_startproc
	pushq	%rbp
	.cfi_def_cfa_offset 16
	.cfi_offset %rbp, -16
	movq	%rsp, %rbp
	.cfi_def_cfa_register %rbp
	subq	$32, %rsp
	movq	%rdi, -16(%rbp)
	movq	%rsi, -8(%rbp)
Ltmp532:
	.loc	29 87 9 prologue_end
	movq	%rdi, -32(%rbp)
	movq	%rsi, -24(%rbp)
	.loc	29 88 6
	movq	-32(%rbp), %rax
	movq	-24(%rbp), %rdx
	addq	$32, %rsp
	popq	%rbp
	retq
Ltmp533:
Lfunc_end61:
	.cfi_endproc

	.globl	__ZN90_$LT$form_urlencoded..ParseIntoOwned$u20$as$u20$core..iter..traits..iterator..Iterator$GT$4next17h92c4be73f2035ed4E
	.p2align	4, 0x90
__ZN90_$LT$form_urlencoded..ParseIntoOwned$u20$as$u20$core..iter..traits..iterator..Iterator$GT$4next17h92c4be73f2035ed4E:
Lfunc_begin62:
	.loc	29 99 0
	.cfi_startproc
	pushq	%rbp
	.cfi_def_cfa_offset 16
	.cfi_offset %rbp, -16
	movq	%rsp, %rbp
	.cfi_def_cfa_register %rbp
	subq	$96, %rsp
	movq	%rdi, -88(%rbp)
	movq	%rdi, -80(%rbp)
	movq	%rsi, -8(%rbp)
Ltmp534:
	.loc	29 100 9 prologue_end
	leaq	-72(%rbp), %rdi
	callq	__ZN81_$LT$form_urlencoded..Parse$u20$as$u20$core..iter..traits..iterator..Iterator$GT$4next17hee0625d8748dae8fE
	movq	-88(%rbp), %rdi
	leaq	-72(%rbp), %rsi
	callq	__ZN4core6option15Option$LT$T$GT$3map17h504d9ef4b16ba0c9E
	movq	-80(%rbp), %rax
	.loc	29 103 6
	addq	$96, %rsp
	popq	%rbp
	retq
Ltmp535:
Lfunc_end62:
	.cfi_endproc

	.p2align	4, 0x90
__ZN90_$LT$form_urlencoded..ParseIntoOwned$u20$as$u20$core..iter..traits..iterator..Iterator$GT$4next28_$u7b$$u7b$closure$u7d$$u7d$17h3d82151a423ba02dE:
Lfunc_begin63:
	.loc	29 102 0
	.cfi_startproc
	.cfi_personality 155, _rust_eh_personality
	.cfi_lsda 16, Lexception12
	pushq	%rbp
	.cfi_def_cfa_offset 16
	.cfi_offset %rbp, -16
	movq	%rsp, %rbp
	.cfi_def_cfa_register %rbp
	subq	$240, %rsp
	movq	%rsi, -232(%rbp)
Ltmp547:
	movq	%rdi, -224(%rbp)
	movq	%rdi, -216(%rbp)
Ltmp548:
	.loc	29 102 20 prologue_end
	movb	$0, -25(%rbp)
	movq	24(%rsi), %rax
	movq	%rax, -184(%rbp)
	movq	16(%rsi), %rax
	movq	%rax, -192(%rbp)
	movq	(%rsi), %rax
	movq	8(%rsi), %rcx
	movq	%rcx, -200(%rbp)
	movq	%rax, -208(%rbp)
	.loc	29 102 23 is_stmt 0
	movb	$1, -25(%rbp)
	movq	56(%rsi), %rax
	movq	%rax, -152(%rbp)
	movq	48(%rsi), %rax
	movq	%rax, -160(%rbp)
	movq	32(%rsi), %rax
	movq	40(%rsi), %rcx
	movq	%rcx, -168(%rbp)
	movq	%rax, -176(%rbp)
Ltmp549:
	.loc	29 102 28
	movq	-184(%rbp), %rax
	movq	%rax, -96(%rbp)
	movq	-192(%rbp), %rax
	movq	%rax, -104(%rbp)
	movq	-208(%rbp), %rax
	movq	-200(%rbp), %rcx
	movq	%rcx, -112(%rbp)
	movq	%rax, -120(%rbp)
Ltmp536:
	leaq	-144(%rbp), %rdi
	leaq	-120(%rbp), %rsi
Ltmp550:
	callq	__ZN5alloc6borrow12Cow$LT$B$GT$10into_owned17hd7c5e18536026b35E
Ltmp537:
Ltmp551:
	jmp	LBB63_3
Ltmp552:
LBB63_1:
	.loc	29 102 58
	testb	$1, -25(%rbp)
	jne	LBB63_9
	jmp	LBB63_8
Ltmp553:
LBB63_2:
Ltmp538:
	.loc	29 0 58
	movq	%rax, %rcx
	movl	%edx, %eax
	movq	%rcx, -16(%rbp)
	movl	%eax, -8(%rbp)
	jmp	LBB63_1
Ltmp554:
LBB63_3:
	.loc	29 102 44
	movb	$0, -25(%rbp)
	movq	-152(%rbp), %rax
	movq	%rax, -40(%rbp)
	movq	-160(%rbp), %rax
	movq	%rax, -48(%rbp)
	movq	-176(%rbp), %rax
	movq	-168(%rbp), %rcx
	movq	%rcx, -56(%rbp)
	movq	%rax, -64(%rbp)
Ltmp539:
	leaq	-88(%rbp), %rdi
	leaq	-64(%rbp), %rsi
	callq	__ZN5alloc6borrow12Cow$LT$B$GT$10into_owned17hd7c5e18536026b35E
Ltmp540:
	jmp	LBB63_6
Ltmp555:
LBB63_4:
Ltmp542:
	.loc	29 0 44
	leaq	-144(%rbp), %rdi
	.loc	29 102 58
	callq	__ZN4core3ptr42drop_in_place$LT$alloc..string..String$GT$17h1b3e09bcaf33a849E
Ltmp543:
	jmp	LBB63_1
Ltmp556:
LBB63_5:
Ltmp541:
	.loc	29 0 58
	movq	%rax, %rcx
	movl	%edx, %eax
	movq	%rcx, -16(%rbp)
	movl	%eax, -8(%rbp)
	jmp	LBB63_4
Ltmp557:
LBB63_6:
	movq	-216(%rbp), %rax
	movq	-224(%rbp), %rcx
	.loc	29 102 27
	movq	-144(%rbp), %rdx
	movq	%rdx, (%rcx)
	movq	-136(%rbp), %rdx
	movq	%rdx, 8(%rcx)
	movq	-128(%rbp), %rdx
	movq	%rdx, 16(%rcx)
	movq	-88(%rbp), %rdx
	movq	%rdx, 24(%rcx)
	movq	-80(%rbp), %rdx
	movq	%rdx, 32(%rcx)
	movq	-72(%rbp), %rdx
	movq	%rdx, 40(%rcx)
Ltmp558:
	.loc	29 102 58
	movb	$0, -25(%rbp)
	.loc	29 102 59
	addq	$240, %rsp
	popq	%rbp
	retq
Ltmp559:
LBB63_7:
Ltmp546:
	.loc	29 102 18
	callq	__ZN4core9panicking19panic_cannot_unwind17h1fbca7e1d7f56ae1E
Ltmp560:
LBB63_8:
	movq	-16(%rbp), %rdi
	callq	__Unwind_Resume
Ltmp561:
LBB63_9:
Ltmp544:
	.loc	29 0 18
	leaq	-176(%rbp), %rdi
	.loc	29 102 58
	callq	__ZN4core3ptr50drop_in_place$LT$alloc..borrow..Cow$LT$str$GT$$GT$17hd788a57a5813a73cE
Ltmp545:
	jmp	LBB63_8
Ltmp562:
Lfunc_end63:
	.cfi_endproc
	.section	__TEXT,__gcc_except_tab
	.p2align	2
GCC_except_table63:
Lexception12:
	.byte	255
	.byte	255
	.byte	1
	.uleb128 Lcst_end12-Lcst_begin12
Lcst_begin12:
	.uleb128 Ltmp536-Lfunc_begin63
	.uleb128 Ltmp537-Ltmp536
	.uleb128 Ltmp538-Lfunc_begin63
	.byte	0
	.uleb128 Ltmp539-Lfunc_begin63
	.uleb128 Ltmp540-Ltmp539
	.uleb128 Ltmp541-Lfunc_begin63
	.byte	0
	.uleb128 Ltmp542-Lfunc_begin63
	.uleb128 Ltmp543-Ltmp542
	.uleb128 Ltmp546-Lfunc_begin63
	.byte	0
	.uleb128 Ltmp543-Lfunc_begin63
	.uleb128 Ltmp544-Ltmp543
	.byte	0
	.byte	0
	.uleb128 Ltmp544-Lfunc_begin63
	.uleb128 Ltmp545-Ltmp544
	.uleb128 Ltmp546-Lfunc_begin63
	.byte	0
Lcst_end12:
	.p2align	2

	.section	__TEXT,__text,regular,pure_instructions
	.globl	__ZN15form_urlencoded14byte_serialize17h6df46ece84f5f09eE
	.p2align	4, 0x90
__ZN15form_urlencoded14byte_serialize17h6df46ece84f5f09eE:
Lfunc_begin64:
	.loc	29 110 0 is_stmt 1
	.cfi_startproc
	pushq	%rbp
	.cfi_def_cfa_offset 16
	.cfi_offset %rbp, -16
	movq	%rsp, %rbp
	.cfi_def_cfa_register %rbp
	subq	$32, %rsp
	movq	%rdi, -16(%rbp)
	movq	%rsi, -8(%rbp)
Ltmp563:
	.loc	29 111 5 prologue_end
	movq	%rdi, -32(%rbp)
	movq	%rsi, -24(%rbp)
	.loc	29 112 2
	movq	-32(%rbp), %rax
	movq	-24(%rbp), %rdx
	addq	$32, %rsp
	popq	%rbp
	retq
Ltmp564:
Lfunc_end64:
	.cfi_endproc

	.p2align	4, 0x90
__ZN15form_urlencoded25byte_serialized_unchanged17he46f747512ec68d0E:
Lfunc_begin65:
	.loc	29 120 0
	.cfi_startproc
	pushq	%rbp
	.cfi_def_cfa_offset 16
	.cfi_offset %rbp, -16
	movq	%rsp, %rbp
	.cfi_def_cfa_register %rbp
	subq	$3, %rsp
	movb	%dil, %al
	movb	%al, -3(%rbp)
	movb	%al, -1(%rbp)
Ltmp565:
	.loc	29 121 5 prologue_end
	subb	$42, %al
	je	LBB65_2
	jmp	LBB65_10
LBB65_10:
	.loc	29 0 5 is_stmt 0
	movb	-3(%rbp), %al
	.loc	29 121 5
	addb	$-45, %al
	subb	$2, %al
	jb	LBB65_2
	jmp	LBB65_11
LBB65_11:
	.loc	29 0 5
	movb	-3(%rbp), %al
	.loc	29 121 5
	subb	$95, %al
	je	LBB65_2
	jmp	LBB65_1
LBB65_1:
	.loc	29 0 5
	movb	-3(%rbp), %cl
	.loc	29 121 41
	movb	$48, %al
	cmpb	%cl, %al
	jbe	LBB65_4
	jmp	LBB65_3
LBB65_2:
	.loc	29 121 5
	movb	$1, -2(%rbp)
	jmp	LBB65_9
LBB65_3:
	.loc	29 0 5
	movb	-3(%rbp), %cl
	.loc	29 121 57
	movb	$65, %al
	cmpb	%cl, %al
	jbe	LBB65_6
	jmp	LBB65_5
LBB65_4:
	.loc	29 0 57
	movb	-3(%rbp), %al
	.loc	29 121 41
	cmpb	$57, %al
	jbe	LBB65_2
	jmp	LBB65_3
LBB65_5:
	.loc	29 0 41
	movb	-3(%rbp), %cl
	.loc	29 121 80
	movb	$97, %al
	cmpb	%cl, %al
	jbe	LBB65_8
	jmp	LBB65_7
LBB65_6:
	.loc	29 0 80
	movb	-3(%rbp), %al
	.loc	29 121 57
	cmpb	$90, %al
	jbe	LBB65_2
	jmp	LBB65_5
LBB65_7:
	.loc	29 121 5
	movb	$0, -2(%rbp)
	jmp	LBB65_9
LBB65_8:
	.loc	29 0 5
	movb	-3(%rbp), %al
	.loc	29 121 80
	cmpb	$122, %al
	jbe	LBB65_2
	jmp	LBB65_7
LBB65_9:
	.loc	29 122 2 is_stmt 1
	movb	-2(%rbp), %al
	andb	$1, %al
	movzbl	%al, %eax
	addq	$3, %rsp
	popq	%rbp
	retq
Ltmp566:
Lfunc_end65:
	.cfi_endproc

	.globl	__ZN89_$LT$form_urlencoded..ByteSerialize$u20$as$u20$core..iter..traits..iterator..Iterator$GT$4next17h170ae6d6ec624338E
	.p2align	4, 0x90
__ZN89_$LT$form_urlencoded..ByteSerialize$u20$as$u20$core..iter..traits..iterator..Iterator$GT$4next17h170ae6d6ec624338E:
Lfunc_begin66:
	.loc	29 127 0
	.cfi_startproc
	pushq	%rbp
	.cfi_def_cfa_offset 16
	.cfi_offset %rbp, -16
	movq	%rsp, %rbp
	.cfi_def_cfa_register %rbp
	subq	$272, %rsp
	movq	%rdi, -200(%rbp)
	movq	%rdi, -72(%rbp)
Ltmp567:
	.loc	29 128 39 prologue_end
	movq	(%rdi), %rsi
	movq	8(%rdi), %rdx
	leaq	-176(%rbp), %rdi
	callq	__ZN4core5slice29_$LT$impl$u20$$u5b$T$u5d$$GT$11split_first17h43a60c7175bc96fbE
	.loc	29 128 16 is_stmt 0
	movq	-176(%rbp), %rdx
	movl	$1, %eax
	xorl	%ecx, %ecx
	cmpq	$0, %rdx
	cmoveq	%rcx, %rax
	cmpq	$1, %rax
	jne	LBB66_2
	.loc	29 128 23
	movq	-176(%rbp), %rax
	movb	(%rax), %al
	movb	%al, -217(%rbp)
	movb	%al, -57(%rbp)
	.loc	29 128 30
	movq	-168(%rbp), %rdx
	movq	%rdx, -216(%rbp)
	movq	-160(%rbp), %rcx
	movq	%rcx, -208(%rbp)
	movq	%rdx, -56(%rbp)
	movq	%rcx, -48(%rbp)
	.loc	29 129 17 is_stmt 1
	movzbl	%al, %edi
	callq	__ZN15form_urlencoded25byte_serialized_unchanged17he46f747512ec68d0E
	.loc	29 129 16 is_stmt 0
	xorb	$-1, %al
	testb	$1, %al
	jne	LBB66_5
	jmp	LBB66_4
Ltmp568:
LBB66_2:
	.loc	29 150 13 is_stmt 1
	movq	$0, -192(%rbp)
LBB66_3:
	.loc	29 152 6
	movq	-192(%rbp), %rax
	movq	-184(%rbp), %rdx
	addq	$272, %rsp
	popq	%rbp
	retq
LBB66_4:
	.loc	29 0 6 is_stmt 0
	movq	-208(%rbp), %rsi
	movq	-216(%rbp), %rdi
Ltmp569:
	.loc	29 137 28 is_stmt 1
	callq	__ZN4core5slice29_$LT$impl$u20$$u5b$T$u5d$$GT$4iter17h1373bfcc6c1ed715E
	movq	%rdx, -112(%rbp)
	movq	%rax, -120(%rbp)
	leaq	-120(%rbp), %rdi
	callq	__ZN91_$LT$core..slice..iter..Iter$LT$T$GT$$u20$as$u20$core..iter..traits..iterator..Iterator$GT$8position17hca1c7ab8838b5651E
	movq	%rdx, -128(%rbp)
	movq	%rax, -136(%rbp)
Ltmp570:
	.loc	29 138 48
	cmpq	$0, -136(%rbp)
	je	LBB66_9
	jmp	LBB66_10
Ltmp571:
LBB66_5:
	.loc	29 0 48 is_stmt 0
	movb	-217(%rbp), %al
	movq	-200(%rbp), %rcx
	movq	-208(%rbp), %rdx
	movq	-216(%rbp), %rsi
	.loc	29 130 17 is_stmt 1
	movq	%rsi, (%rcx)
	movq	%rdx, 8(%rcx)
	.loc	29 131 32
	cmpb	$32, %al
	jne	LBB66_7
	.loc	29 132 21
	leaq	l___unnamed_20(%rip), %rax
	movq	%rax, -152(%rbp)
	movq	$1, -144(%rbp)
	.loc	29 131 29
	jmp	LBB66_8
LBB66_7:
	.loc	29 0 29 is_stmt 0
	movb	-217(%rbp), %al
	.loc	29 134 21 is_stmt 1
	movzbl	%al, %edi
	callq	__ZN16percent_encoding19percent_encode_byte17h45ffa065ce18242aE
	movq	%rax, -152(%rbp)
	movq	%rdx, -144(%rbp)
LBB66_8:
	.loc	29 131 24
	movq	-152(%rbp), %rcx
	movq	-144(%rbp), %rax
	movq	%rcx, -192(%rbp)
	movq	%rax, -184(%rbp)
Ltmp572:
	.loc	29 152 6
	jmp	LBB66_3
LBB66_9:
	.loc	29 0 6 is_stmt 0
	movq	-200(%rbp), %rax
Ltmp573:
	.loc	29 141 26 is_stmt 1
	movq	(%rax), %rcx
	movq	%rcx, -240(%rbp)
	movq	8(%rax), %rax
	movq	%rax, -232(%rbp)
	.loc	29 141 39 is_stmt 0
	leaq	l___unnamed_3(%rip), %rdi
	leaq	l___unnamed_21(%rip), %rsi
	callq	__ZN4core5array85_$LT$impl$u20$core..ops..index..Index$LT$I$GT$$u20$for$u20$$u5b$T$u3b$$u20$N$u5d$$GT$5index17hb401778b1f09aa78E
	movq	-240(%rbp), %rsi
	movq	-232(%rbp), %rcx
	.loc	29 141 25
	movq	%rsi, -104(%rbp)
	movq	%rcx, -96(%rbp)
	movq	%rax, -88(%rbp)
	movq	%rdx, -80(%rbp)
	.loc	29 141 45
	jmp	LBB66_13
LBB66_10:
	.loc	29 0 45
	movq	-200(%rbp), %rcx
	.loc	29 140 22 is_stmt 1
	movq	-128(%rbp), %rax
	movq	%rax, -40(%rbp)
Ltmp574:
	.loc	29 140 28 is_stmt 0
	movq	(%rcx), %rdx
	movq	%rdx, -264(%rbp)
	movq	8(%rcx), %rcx
	movq	%rcx, -256(%rbp)
	.loc	29 140 48
	addq	$1, %rax
	movq	%rax, -248(%rbp)
	setb	%al
	testb	$1, %al
	jne	LBB66_12
	.loc	29 0 48
	movq	-248(%rbp), %rcx
	movq	-256(%rbp), %rdx
	movq	-264(%rbp), %rsi
	.loc	29 140 28
	leaq	-104(%rbp), %rdi
	leaq	l___unnamed_22(%rip), %r8
	callq	__ZN4core5slice29_$LT$impl$u20$$u5b$T$u5d$$GT$8split_at17h5f55f17495745eb8E
	jmp	LBB66_13
LBB66_12:
	.loc	29 140 48
	leaq	_str.0(%rip), %rdi
	leaq	l___unnamed_23(%rip), %rdx
	movl	$28, %esi
	callq	__ZN4core9panicking5panic17hc1bc45270cf64b03E
Ltmp575:
LBB66_13:
	.loc	29 0 48
	movq	-200(%rbp), %rax
	.loc	29 138 18 is_stmt 1
	movq	-104(%rbp), %rdi
	movq	-96(%rbp), %rsi
	movq	%rdi, -32(%rbp)
	movq	%rsi, -24(%rbp)
	.loc	29 138 35 is_stmt 0
	movq	-88(%rbp), %rdx
	movq	-80(%rbp), %rcx
	movq	%rdx, -16(%rbp)
	movq	%rcx, -8(%rbp)
Ltmp576:
	.loc	29 143 13 is_stmt 1
	movq	%rdx, (%rax)
	movq	%rcx, 8(%rax)
	.loc	29 148 27
	callq	__ZN4core3str8converts19from_utf8_unchecked17he17b8db7364c13f5E
	.loc	29 148 13 is_stmt 0
	movq	%rax, -192(%rbp)
	movq	%rdx, -184(%rbp)
Ltmp577:
	.loc	29 128 9 is_stmt 1
	jmp	LBB66_3
Ltmp578:
Lfunc_end66:
	.cfi_endproc

	.p2align	4, 0x90
__ZN89_$LT$form_urlencoded..ByteSerialize$u20$as$u20$core..iter..traits..iterator..Iterator$GT$4next28_$u7b$$u7b$closure$u7d$$u7d$17hd844807c19c97ec8E:
Lfunc_begin67:
	.loc	29 137 0
	.cfi_startproc
	pushq	%rbp
	.cfi_def_cfa_offset 16
	.cfi_offset %rbp, -16
	movq	%rsp, %rbp
	.cfi_def_cfa_register %rbp
	subq	$32, %rsp
	movq	%rdi, -24(%rbp)
	movq	%rsi, -16(%rbp)
Ltmp579:
	.loc	29 137 51 prologue_end
	movb	(%rsi), %al
	movb	%al, -1(%rbp)
Ltmp580:
	.loc	29 137 55 is_stmt 0
	movzbl	%al, %edi
	callq	__ZN15form_urlencoded25byte_serialized_unchanged17he46f747512ec68d0E
	.loc	29 137 54
	xorb	$-1, %al
Ltmp581:
	.loc	29 137 83
	andb	$1, %al
	movzbl	%al, %eax
	addq	$32, %rsp
	popq	%rbp
	retq
Ltmp582:
Lfunc_end67:
	.cfi_endproc

	.globl	__ZN89_$LT$form_urlencoded..ByteSerialize$u20$as$u20$core..iter..traits..iterator..Iterator$GT$9size_hint17hc97d8424991f0270E
	.p2align	4, 0x90
__ZN89_$LT$form_urlencoded..ByteSerialize$u20$as$u20$core..iter..traits..iterator..Iterator$GT$9size_hint17hc97d8424991f0270E:
Lfunc_begin68:
	.loc	29 154 0 is_stmt 1
	.cfi_startproc
	pushq	%rbp
	.cfi_def_cfa_offset 16
	.cfi_offset %rbp, -16
	movq	%rsp, %rbp
	.cfi_def_cfa_register %rbp
	subq	$64, %rsp
	movq	%rsi, -64(%rbp)
	movq	%rdi, -56(%rbp)
	movq	%rdi, -48(%rbp)
	movq	%rsi, -8(%rbp)
Ltmp583:
	.loc	29 155 12 prologue_end
	movq	(%rsi), %rdi
	movq	8(%rsi), %rsi
	callq	__ZN4core5slice29_$LT$impl$u20$$u5b$T$u5d$$GT$8is_empty17h8aa58562f21d44fcE
	testb	$1, %al
	jne	LBB68_2
	.loc	29 0 12 is_stmt 0
	movq	-56(%rbp), %rax
	movq	-64(%rbp), %rcx
	.loc	29 158 22 is_stmt 1
	movq	8(%rcx), %rcx
	.loc	29 158 17 is_stmt 0
	movq	%rcx, -16(%rbp)
	movq	$1, -24(%rbp)
	.loc	29 158 13
	movq	$1, (%rax)
	movq	-24(%rbp), %rdx
	movq	-16(%rbp), %rcx
	movq	%rdx, 8(%rax)
	movq	%rcx, 16(%rax)
	.loc	29 155 9 is_stmt 1
	jmp	LBB68_3
LBB68_2:
	.loc	29 0 9 is_stmt 0
	movq	-56(%rbp), %rax
	.loc	29 156 17 is_stmt 1
	movq	$0, -32(%rbp)
	movq	$1, -40(%rbp)
	.loc	29 156 13 is_stmt 0
	movq	$0, (%rax)
	movq	-40(%rbp), %rdx
	movq	-32(%rbp), %rcx
	movq	%rdx, 8(%rax)
	movq	%rcx, 16(%rax)
LBB68_3:
	.loc	29 0 13
	movq	-48(%rbp), %rax
	.loc	29 160 6 is_stmt 1
	addq	$64, %rsp
	popq	%rbp
	retq
Ltmp584:
Lfunc_end68:
	.cfi_endproc

	.globl	__ZN65_$LT$alloc..string..String$u20$as$u20$form_urlencoded..Target$GT$13as_mut_string17hebc33e673079dda1E
	.p2align	4, 0x90
__ZN65_$LT$alloc..string..String$u20$as$u20$form_urlencoded..Target$GT$13as_mut_string17hebc33e673079dda1E:
Lfunc_begin69:
	.loc	29 178 0
	.cfi_startproc
	pushq	%rbp
	.cfi_def_cfa_offset 16
	.cfi_offset %rbp, -16
	movq	%rsp, %rbp
	.cfi_def_cfa_register %rbp
	pushq	%rax
	movq	%rdi, %rax
	movq	%rax, -8(%rbp)
Ltmp585:
	.loc	29 180 6 prologue_end
	addq	$8, %rsp
	popq	%rbp
	retq
Ltmp586:
Lfunc_end69:
	.cfi_endproc

	.globl	__ZN65_$LT$alloc..string..String$u20$as$u20$form_urlencoded..Target$GT$6finish17h005d8bcd0b525853E
	.p2align	4, 0x90
__ZN65_$LT$alloc..string..String$u20$as$u20$form_urlencoded..Target$GT$6finish17h005d8bcd0b525853E:
Lfunc_begin70:
	.loc	29 181 0
	.cfi_startproc
	pushq	%rbp
	.cfi_def_cfa_offset 16
	.cfi_offset %rbp, -16
	movq	%rsp, %rbp
	.cfi_def_cfa_register %rbp
	movq	%rdi, %rax
Ltmp587:
	.loc	29 182 9 prologue_end
	movq	(%rsi), %rcx
	movq	%rcx, (%rdi)
	movq	8(%rsi), %rcx
	movq	%rcx, 8(%rdi)
	movq	16(%rsi), %rcx
	movq	%rcx, 16(%rdi)
	.loc	29 183 6
	popq	%rbp
	retq
Ltmp588:
Lfunc_end70:
	.cfi_endproc

	.globl	__ZN77_$LT$$RF$mut$u20$alloc..string..String$u20$as$u20$form_urlencoded..Target$GT$13as_mut_string17hffecfead75c4ea9cE
	.p2align	4, 0x90
__ZN77_$LT$$RF$mut$u20$alloc..string..String$u20$as$u20$form_urlencoded..Target$GT$13as_mut_string17hffecfead75c4ea9cE:
Lfunc_begin71:
	.loc	29 188 0
	.cfi_startproc
	pushq	%rbp
	.cfi_def_cfa_offset 16
	.cfi_offset %rbp, -16
	movq	%rsp, %rbp
	.cfi_def_cfa_register %rbp
	pushq	%rax
	movq	%rdi, -8(%rbp)
Ltmp589:
	.loc	29 189 9 prologue_end
	movq	(%rdi), %rax
	.loc	29 190 6
	addq	$8, %rsp
	popq	%rbp
	retq
Ltmp590:
Lfunc_end71:
	.cfi_endproc

	.globl	__ZN77_$LT$$RF$mut$u20$alloc..string..String$u20$as$u20$form_urlencoded..Target$GT$6finish17h6269ff4cd64c515cE
	.p2align	4, 0x90
__ZN77_$LT$$RF$mut$u20$alloc..string..String$u20$as$u20$form_urlencoded..Target$GT$6finish17h6269ff4cd64c515cE:
Lfunc_begin72:
	.loc	29 191 0
	.cfi_startproc
	pushq	%rbp
	.cfi_def_cfa_offset 16
	.cfi_offset %rbp, -16
	movq	%rsp, %rbp
	.cfi_def_cfa_register %rbp
	pushq	%rax
	movq	%rdi, %rax
	movq	%rax, -8(%rbp)
Ltmp591:
	.loc	29 193 6 prologue_end
	addq	$8, %rsp
	popq	%rbp
	retq
Ltmp592:
Lfunc_end72:
	.cfi_endproc

	.p2align	4, 0x90
__ZN15form_urlencoded26append_separator_if_needed17hfa004826b72ef554E:
Lfunc_begin73:
	.loc	29 341 0
	.cfi_startproc
	pushq	%rbp
	.cfi_def_cfa_offset 16
	.cfi_offset %rbp, -16
	movq	%rsp, %rbp
	.cfi_def_cfa_register %rbp
	subq	$32, %rsp
	movq	%rdi, -32(%rbp)
	movq	%rsi, -24(%rbp)
	movq	%rdi, -16(%rbp)
	movq	%rsi, -8(%rbp)
Ltmp593:
	.loc	29 342 8 prologue_end
	callq	__ZN5alloc6string6String3len17hc63c040bbb40553bE
	movq	-24(%rbp), %rsi
	cmpq	%rsi, %rax
	ja	LBB73_2
LBB73_1:
	.loc	29 345 2
	addq	$32, %rsp
	popq	%rbp
	retq
LBB73_2:
	.loc	29 0 2 is_stmt 0
	movq	-32(%rbp), %rdi
	.loc	29 343 9 is_stmt 1
	movl	$38, %esi
	callq	__ZN5alloc6string6String4push17h9ed39937b12f5c11E
	jmp	LBB73_1
Ltmp594:
Lfunc_end73:
	.cfi_endproc

	.globl	__ZN15form_urlencoded11append_pair17h9173bde1bfe4e75cE
	.p2align	4, 0x90
__ZN15form_urlencoded11append_pair17h9173bde1bfe4e75cE:
Lfunc_begin74:
	.loc	29 354 0
	.cfi_startproc
	pushq	%rbp
	.cfi_def_cfa_offset 16
	.cfi_offset %rbp, -16
	movq	%rsp, %rbp
	.cfi_def_cfa_register %rbp
	subq	$128, %rsp
	movq	%r9, -112(%rbp)
	movq	%r8, -120(%rbp)
	movq	%rcx, -72(%rbp)
	movq	%rdx, %r10
	movq	-72(%rbp), %rdx
	movq	%r10, -80(%rbp)
	movq	%rdi, -88(%rbp)
	movq	24(%rbp), %rax
	movq	%rax, -96(%rbp)
	movq	16(%rbp), %rcx
	movq	%rcx, -104(%rbp)
	movq	%rdi, -64(%rbp)
	movq	%rsi, -56(%rbp)
	movq	%r10, -48(%rbp)
	movq	%rdx, -40(%rbp)
	movq	%r8, -32(%rbp)
	movq	%r9, -24(%rbp)
	movq	%rcx, -16(%rbp)
	movq	%rax, -8(%rbp)
Ltmp595:
	.loc	29 361 5 prologue_end
	callq	__ZN15form_urlencoded26append_separator_if_needed17hfa004826b72ef554E
	movq	-120(%rbp), %rdi
	movq	-112(%rbp), %rsi
	movq	-88(%rbp), %rdx
	movq	-80(%rbp), %rcx
	movq	-72(%rbp), %r8
	.loc	29 362 5
	callq	__ZN15form_urlencoded14append_encoded17h4e4713a3a6c9d5beE
	movq	-88(%rbp), %rdi
	.loc	29 363 5
	movl	$61, %esi
	callq	__ZN5alloc6string6String4push17h9ed39937b12f5c11E
	movq	-104(%rbp), %rdi
	movq	-96(%rbp), %rsi
	movq	-88(%rbp), %rdx
	movq	-80(%rbp), %rcx
	movq	-72(%rbp), %r8
	.loc	29 364 5
	callq	__ZN15form_urlencoded14append_encoded17h4e4713a3a6c9d5beE
	.loc	29 365 2
	addq	$128, %rsp
	popq	%rbp
	retq
Ltmp596:
Lfunc_end74:
	.cfi_endproc

	.globl	__ZN15form_urlencoded15append_key_only17h9ab169453298af7fE
	.p2align	4, 0x90
__ZN15form_urlencoded15append_key_only17h9ab169453298af7fE:
Lfunc_begin75:
	.loc	29 367 0
	.cfi_startproc
	pushq	%rbp
	.cfi_def_cfa_offset 16
	.cfi_offset %rbp, -16
	movq	%rsp, %rbp
	.cfi_def_cfa_register %rbp
	subq	$96, %rsp
	movq	%rdi, -72(%rbp)
	movq	%rdx, -64(%rbp)
	movq	%rcx, -56(%rbp)
	movq	%r8, -88(%rbp)
	movq	%r9, -80(%rbp)
	movq	%rdi, -48(%rbp)
	movq	%rsi, -40(%rbp)
	movq	%rdx, -32(%rbp)
	movq	%rcx, -24(%rbp)
	movq	%r8, -16(%rbp)
	movq	%r9, -8(%rbp)
Ltmp597:
	.loc	29 373 5 prologue_end
	callq	__ZN15form_urlencoded26append_separator_if_needed17hfa004826b72ef554E
	movq	-88(%rbp), %rdi
	movq	-80(%rbp), %rsi
	movq	-72(%rbp), %rdx
	movq	-64(%rbp), %rcx
	movq	-56(%rbp), %r8
	.loc	29 374 5
	callq	__ZN15form_urlencoded14append_encoded17h4e4713a3a6c9d5beE
	.loc	29 375 2
	addq	$96, %rsp
	popq	%rbp
	retq
Ltmp598:
Lfunc_end75:
	.cfi_endproc

	.p2align	4, 0x90
__ZN15form_urlencoded14append_encoded17h4e4713a3a6c9d5beE:
Lfunc_begin76:
	.loc	29 377 0
	.cfi_startproc
	.cfi_personality 155, _rust_eh_personality
	.cfi_lsda 16, Lexception13
	pushq	%rbp
	.cfi_def_cfa_offset 16
	.cfi_offset %rbp, -16
	movq	%rsp, %rbp
	.cfi_def_cfa_register %rbp
	subq	$160, %rsp
	movq	%r8, -136(%rbp)
	movq	%rcx, -128(%rbp)
	movq	%rdx, %rax
	movq	-136(%rbp), %rdx
	movq	%rsi, %r8
	movq	-128(%rbp), %rsi
	movq	%rdi, %rcx
	movq	%rax, -120(%rbp)
	movq	%rcx, -56(%rbp)
	movq	%r8, -48(%rbp)
	movq	%rax, -40(%rbp)
	movq	%rsi, -32(%rbp)
	movq	%rdx, -24(%rbp)
	leaq	-88(%rbp), %rdi
	movq	%rdi, -112(%rbp)
Ltmp609:
	.loc	29 378 35 prologue_end
	callq	__ZN15form_urlencoded6encode17hf20cad62418263a4E
	movq	-112(%rbp), %rdi
Ltmp599:
	.loc	29 378 34 is_stmt 0
	callq	__ZN71_$LT$alloc..borrow..Cow$LT$B$GT$$u20$as$u20$core..ops..deref..Deref$GT$5deref17hda8a4c072267bce4E
Ltmp600:
	movq	%rdx, -104(%rbp)
	movq	%rax, -96(%rbp)
	jmp	LBB76_3
LBB76_1:
Ltmp606:
	.loc	29 0 34
	leaq	-88(%rbp), %rdi
	.loc	29 379 1 is_stmt 1
	callq	__ZN4core3ptr59drop_in_place$LT$alloc..borrow..Cow$LT$$u5b$u8$u5d$$GT$$GT$17hb669d988d0285d6cE
Ltmp607:
	jmp	LBB76_7
LBB76_2:
Ltmp605:
	.loc	29 0 1 is_stmt 0
	movq	%rax, %rcx
	movl	%edx, %eax
	movq	%rcx, -16(%rbp)
	movl	%eax, -8(%rbp)
	jmp	LBB76_1
LBB76_3:
Ltmp601:
	movq	-104(%rbp), %rsi
	movq	-96(%rbp), %rdi
	.loc	29 378 19 is_stmt 1
	callq	__ZN15form_urlencoded14byte_serialize17h6df46ece84f5f09eE
Ltmp602:
	movq	%rdx, -152(%rbp)
	movq	%rax, -144(%rbp)
	jmp	LBB76_4
LBB76_4:
Ltmp603:
	.loc	29 0 19 is_stmt 0
	movq	-152(%rbp), %rdx
	movq	-144(%rbp), %rsi
	movq	-120(%rbp), %rdi
	.loc	29 378 5
	callq	__ZN92_$LT$alloc..string..String$u20$as$u20$core..iter..traits..collect..Extend$LT$$RF$str$GT$$GT$6extend17h1df5f1dc47126117E
Ltmp604:
	jmp	LBB76_5
LBB76_5:
	.loc	29 379 1 is_stmt 1
	leaq	-88(%rbp), %rdi
	callq	__ZN4core3ptr59drop_in_place$LT$alloc..borrow..Cow$LT$$u5b$u8$u5d$$GT$$GT$17hb669d988d0285d6cE
	.loc	29 379 2 is_stmt 0
	addq	$160, %rsp
	popq	%rbp
	retq
LBB76_6:
Ltmp608:
	.loc	29 377 1 is_stmt 1
	callq	__ZN4core9panicking19panic_cannot_unwind17h1fbca7e1d7f56ae1E
LBB76_7:
	movq	-16(%rbp), %rdi
	callq	__Unwind_Resume
Ltmp610:
Lfunc_end76:
	.cfi_endproc
	.section	__TEXT,__gcc_except_tab
	.p2align	2
GCC_except_table76:
Lexception13:
	.byte	255
	.byte	255
	.byte	1
	.uleb128 Lcst_end13-Lcst_begin13
Lcst_begin13:
	.uleb128 Lfunc_begin76-Lfunc_begin76
	.uleb128 Ltmp599-Lfunc_begin76
	.byte	0
	.byte	0
	.uleb128 Ltmp599-Lfunc_begin76
	.uleb128 Ltmp600-Ltmp599
	.uleb128 Ltmp605-Lfunc_begin76
	.byte	0
	.uleb128 Ltmp606-Lfunc_begin76
	.uleb128 Ltmp607-Ltmp606
	.uleb128 Ltmp608-Lfunc_begin76
	.byte	0
	.uleb128 Ltmp601-Lfunc_begin76
	.uleb128 Ltmp604-Ltmp601
	.uleb128 Ltmp605-Lfunc_begin76
	.byte	0
	.uleb128 Ltmp604-Lfunc_begin76
	.uleb128 Lfunc_end76-Ltmp604
	.byte	0
	.byte	0
Lcst_end13:
	.p2align	2

	.section	__TEXT,__text,regular,pure_instructions
	.p2align	4, 0x90
__ZN15form_urlencoded6encode17hf20cad62418263a4E:
Lfunc_begin77:
	.loc	29 381 0
	.cfi_startproc
	pushq	%rbp
	.cfi_def_cfa_offset 16
	.cfi_offset %rbp, -16
	movq	%rsp, %rbp
	.cfi_def_cfa_register %rbp
	subq	$128, %rsp
	movq	%r8, -128(%rbp)
	movq	%rcx, -120(%rbp)
	movq	%rdi, -112(%rbp)
	movq	%rdi, -104(%rbp)
	movq	%rsi, -96(%rbp)
	movq	%rdx, -88(%rbp)
	movq	%rcx, -64(%rbp)
	movq	%r8, -56(%rbp)
Ltmp611:
	.loc	29 382 12 prologue_end
	movq	-96(%rbp), %rdx
	movl	$1, %eax
	xorl	%ecx, %ecx
	cmpq	$0, %rdx
	cmoveq	%rcx, %rax
	cmpq	$1, %rax
	jne	LBB77_2
	.loc	29 0 12 is_stmt 0
	movq	-112(%rbp), %rdi
	movq	-128(%rbp), %rcx
	movq	-120(%rbp), %rdx
	.loc	29 382 17
	movq	-96(%rbp), %rsi
	movq	-88(%rbp), %rax
	movq	%rsi, -48(%rbp)
	movq	%rax, -40(%rbp)
	.loc	29 383 16 is_stmt 1
	movq	%rdx, -80(%rbp)
	movq	%rcx, -72(%rbp)
	movq	40(%rax), %rax
	movq	-80(%rbp), %rdx
	movq	-72(%rbp), %rcx
	callq	*%rax
	jmp	LBB77_3
Ltmp612:
LBB77_2:
	.loc	29 0 16 is_stmt 0
	movq	-112(%rbp), %rdi
	movq	-128(%rbp), %rax
	movq	-120(%rbp), %rcx
	movq	%rcx, -32(%rbp)
	movq	%rax, -24(%rbp)
Ltmp613:
	.loc	17 327 18 is_stmt 1
	movq	%rcx, -16(%rbp)
	movq	%rax, -8(%rbp)
	movq	-16(%rbp), %rsi
	movq	-8(%rbp), %rdx
Ltmp614:
	.loc	29 385 5
	callq	__ZN50_$LT$T$u20$as$u20$core..convert..Into$LT$U$GT$$GT$4into17h21b0f7513033702eE
LBB77_3:
	.loc	29 0 5 is_stmt 0
	movq	-104(%rbp), %rax
	.loc	29 386 2 is_stmt 1
	addq	$128, %rsp
	popq	%rbp
	retq
Ltmp615:
Lfunc_end77:
	.cfi_endproc

	.p2align	4, 0x90
__ZN15form_urlencoded17decode_utf8_lossy17hadd902181760ee49E:
Lfunc_begin78:
	.loc	29 388 0
	.cfi_startproc
	.cfi_personality 155, _rust_eh_personality
	.cfi_lsda 16, Lexception14
	pushq	%rbp
	.cfi_def_cfa_offset 16
	.cfi_offset %rbp, -16
	movq	%rsp, %rbp
	.cfi_def_cfa_register %rbp
	subq	$352, %rsp
	movq	%rsi, -280(%rbp)
Ltmp630:
	movq	%rdi, -272(%rbp)
	movq	%rdi, -264(%rbp)
Ltmp631:
	.loc	29 390 11 prologue_end
	movb	$0, -97(%rbp)
	.loc	29 390 5 is_stmt 0
	cmpq	$0, (%rsi)
Ltmp632:
	jne	LBB78_2
Ltmp633:
	.loc	29 0 5
	movq	-272(%rbp), %rdi
	movq	-280(%rbp), %rax
	.loc	29 391 23 is_stmt 1
	movq	8(%rax), %rsi
	movq	16(%rax), %rdx
	movq	%rsi, -48(%rbp)
	movq	%rdx, -40(%rbp)
Ltmp634:
	.loc	29 391 33 is_stmt 0
	callq	__ZN5alloc6string6String15from_utf8_lossy17haeafe2df5b8457e4E
	jmp	LBB78_21
Ltmp635:
LBB78_2:
	.loc	29 0 33
	movq	-280(%rbp), %rcx
	.loc	29 392 20 is_stmt 1
	movb	$1, -97(%rbp)
	movq	24(%rcx), %rax
	movq	%rax, -240(%rbp)
	movq	8(%rcx), %rax
	movq	16(%rcx), %rcx
	movq	%rcx, -248(%rbp)
	movq	%rax, -256(%rbp)
Ltmp616:
	leaq	-256(%rbp), %rdi
Ltmp636:
	.loc	29 393 43
	callq	__ZN72_$LT$alloc..vec..Vec$LT$T$C$A$GT$$u20$as$u20$core..ops..deref..Deref$GT$5deref17h7a5c131a8ce8beeeE
Ltmp617:
	movq	%rdx, -296(%rbp)
	movq	%rax, -288(%rbp)
	jmp	LBB78_5
Ltmp637:
LBB78_3:
	.loc	29 412 9
	testb	$1, -97(%rbp)
	jne	LBB78_17
	jmp	LBB78_16
Ltmp638:
LBB78_4:
Ltmp626:
	.loc	29 0 9 is_stmt 0
	movq	%rax, %rcx
	movl	%edx, %eax
	movq	%rcx, -96(%rbp)
	movl	%eax, -88(%rbp)
	jmp	LBB78_3
Ltmp639:
LBB78_5:
Ltmp618:
	movq	-296(%rbp), %rdx
	movq	-288(%rbp), %rsi
	leaq	-232(%rbp), %rdi
Ltmp640:
	.loc	29 393 19 is_stmt 1
	callq	__ZN5alloc6string6String15from_utf8_lossy17haeafe2df5b8457e4E
Ltmp619:
	jmp	LBB78_6
Ltmp641:
LBB78_6:
	.loc	29 393 13 is_stmt 0
	cmpq	$0, -232(%rbp)
	jne	LBB78_8
Ltmp642:
	.loc	29 394 31 is_stmt 1
	movq	-224(%rbp), %rcx
	movq	-216(%rbp), %rax
	movq	%rcx, -80(%rbp)
	movq	%rax, -72(%rbp)
	movq	%rcx, -32(%rbp)
	movq	%rax, -24(%rbp)
Ltmp643:
	.loc	17 327 18
	movq	%rcx, -16(%rbp)
	movq	%rax, -8(%rbp)
	movq	-16(%rbp), %rax
	movq	%rax, -312(%rbp)
	movq	-8(%rbp), %rax
	movq	%rax, -304(%rbp)
	.loc	17 328 6
	jmp	LBB78_10
Ltmp644:
LBB78_8:
	.loc	17 0 6 is_stmt 0
	movq	-272(%rbp), %rax
	.loc	29 410 28 is_stmt 1
	movq	-224(%rbp), %rcx
	movq	%rcx, -152(%rbp)
	movq	-216(%rbp), %rcx
	movq	%rcx, -144(%rbp)
	movq	-208(%rbp), %rcx
	movq	%rcx, -136(%rbp)
Ltmp645:
	.loc	29 410 45 is_stmt 0
	movq	-152(%rbp), %rcx
	movq	%rcx, -128(%rbp)
	movq	-144(%rbp), %rcx
	movq	%rcx, -120(%rbp)
	movq	-136(%rbp), %rcx
	movq	%rcx, -112(%rbp)
	.loc	29 410 34
	movq	-128(%rbp), %rcx
	movq	%rcx, 8(%rax)
	movq	-120(%rbp), %rcx
	movq	%rcx, 16(%rax)
	movq	-112(%rbp), %rcx
	movq	%rcx, 24(%rax)
	movq	$1, (%rax)
Ltmp646:
LBB78_9:
	.loc	29 412 9 is_stmt 1
	testb	$1, -97(%rbp)
	jne	LBB78_20
	jmp	LBB78_19
Ltmp647:
LBB78_10:
	.loc	29 0 9 is_stmt 0
	movq	-304(%rbp), %rax
	movq	-312(%rbp), %rcx
Ltmp648:
	.loc	29 402 49 is_stmt 1
	movq	%rcx, %rdx
	movq	%rdx, -344(%rbp)
	movq	%rax, %rdx
	movq	%rdx, -336(%rbp)
	movq	%rcx, -64(%rbp)
	movq	%rax, -56(%rbp)
Ltmp620:
	leaq	-256(%rbp), %rdi
Ltmp649:
	.loc	29 403 48
	callq	__ZN72_$LT$alloc..vec..Vec$LT$T$C$A$GT$$u20$as$u20$core..ops..deref..Deref$GT$5deref17h7a5c131a8ce8beeeE
Ltmp621:
	movq	%rdx, -328(%rbp)
	movq	%rax, -320(%rbp)
	jmp	LBB78_11
Ltmp650:
LBB78_11:
	.loc	29 0 48 is_stmt 0
	movq	-336(%rbp), %rcx
	movq	-328(%rbp), %rdx
	movq	-344(%rbp), %rax
	movq	-320(%rbp), %rsi
	.loc	29 403 35
	cmpq	%rsi, %rax
	sete	%al
	cmpq	%rdx, %rcx
	sete	%cl
	andb	%cl, %al
	.loc	29 403 21
	xorb	$-1, %al
	testb	$1, %al
	jne	LBB78_13
Ltmp651:
	.loc	29 408 69 is_stmt 1
	movb	$0, -97(%rbp)
	movq	-240(%rbp), %rax
	movq	%rax, -160(%rbp)
	movq	-256(%rbp), %rax
	movq	-248(%rbp), %rcx
	movq	%rcx, -168(%rbp)
	movq	%rax, -176(%rbp)
Ltmp622:
	leaq	-200(%rbp), %rdi
	leaq	-176(%rbp), %rsi
	.loc	29 408 41 is_stmt 0
	callq	__ZN5alloc6string6String19from_utf8_unchecked17hbbcb211b99e6e546E
Ltmp623:
	jmp	LBB78_15
Ltmp652:
LBB78_13:
Ltmp624:
	.loc	29 403 21 is_stmt 1
	leaq	l___unnamed_24(%rip), %rdi
	leaq	l___unnamed_25(%rip), %rdx
	movl	$52, %esi
	callq	__ZN4core9panicking5panic17hc1bc45270cf64b03E
Ltmp625:
	jmp	LBB78_14
Ltmp653:
LBB78_14:
	.loc	29 0 21 is_stmt 0
	ud2
Ltmp654:
LBB78_15:
	movq	-272(%rbp), %rax
	.loc	29 408 21 is_stmt 1
	movq	-200(%rbp), %rcx
	movq	%rcx, 8(%rax)
	movq	-192(%rbp), %rcx
	movq	%rcx, 16(%rax)
	movq	-184(%rbp), %rcx
	movq	%rcx, 24(%rax)
	movq	$1, (%rax)
Ltmp655:
	.loc	29 409 17
	jmp	LBB78_9
Ltmp656:
LBB78_16:
	.loc	29 388 1
	movq	-96(%rbp), %rdi
	callq	__Unwind_Resume
Ltmp657:
LBB78_17:
Ltmp627:
	.loc	29 0 1 is_stmt 0
	leaq	-256(%rbp), %rdi
	.loc	29 412 9 is_stmt 1
	callq	__ZN4core3ptr46drop_in_place$LT$alloc..vec..Vec$LT$u8$GT$$GT$17h83e90276065d94e4E
Ltmp628:
	jmp	LBB78_16
Ltmp658:
LBB78_18:
Ltmp629:
	.loc	29 388 1
	callq	__ZN4core9panicking19panic_cannot_unwind17h1fbca7e1d7f56ae1E
Ltmp659:
LBB78_19:
	.loc	29 412 9
	movb	$0, -97(%rbp)
	jmp	LBB78_21
Ltmp660:
LBB78_20:
	leaq	-256(%rbp), %rdi
	callq	__ZN4core3ptr46drop_in_place$LT$alloc..vec..Vec$LT$u8$GT$$GT$17h83e90276065d94e4E
	jmp	LBB78_19
Ltmp661:
LBB78_21:
	.loc	29 0 9 is_stmt 0
	movq	-264(%rbp), %rax
	.loc	29 414 2 is_stmt 1
	addq	$352, %rsp
	popq	%rbp
	retq
Ltmp662:
Lfunc_end78:
	.cfi_endproc
	.section	__TEXT,__gcc_except_tab
	.p2align	2
GCC_except_table78:
Lexception14:
	.byte	255
	.byte	255
	.byte	1
	.uleb128 Lcst_end14-Lcst_begin14
Lcst_begin14:
	.uleb128 Lfunc_begin78-Lfunc_begin78
	.uleb128 Ltmp616-Lfunc_begin78
	.byte	0
	.byte	0
	.uleb128 Ltmp616-Lfunc_begin78
	.uleb128 Ltmp625-Ltmp616
	.uleb128 Ltmp626-Lfunc_begin78
	.byte	0
	.uleb128 Ltmp625-Lfunc_begin78
	.uleb128 Ltmp627-Ltmp625
	.byte	0
	.byte	0
	.uleb128 Ltmp627-Lfunc_begin78
	.uleb128 Ltmp628-Ltmp627
	.uleb128 Ltmp629-Lfunc_begin78
	.byte	0
	.uleb128 Ltmp628-Lfunc_begin78
	.uleb128 Lfunc_end78-Ltmp628
	.byte	0
	.byte	0
Lcst_end14:
	.p2align	2

	.section	__TEXT,__text,regular,pure_instructions
	.globl	__ZN67_$LT$form_urlencoded..ByteSerialize$u20$as$u20$core..fmt..Debug$GT$3fmt17hc60191f97e5860ffE
	.p2align	4, 0x90
__ZN67_$LT$form_urlencoded..ByteSerialize$u20$as$u20$core..fmt..Debug$GT$3fmt17hc60191f97e5860ffE:
Lfunc_begin79:
	.loc	29 115 0
	.cfi_startproc
	pushq	%rbp
	.cfi_def_cfa_offset 16
	.cfi_offset %rbp, -16
	movq	%rsp, %rbp
	.cfi_def_cfa_register %rbp
	subq	$48, %rsp
	movq	%rsi, -32(%rbp)
	movq	%rdi, %rax
	movq	-32(%rbp), %rdi
	movq	%rax, -16(%rbp)
	movq	%rdi, -8(%rbp)
Ltmp663:
	.loc	29 117 5 prologue_end
	movq	%rax, -24(%rbp)
	.loc	29 115 10
	leaq	l___unnamed_26(%rip), %rsi
	movl	$13, %edx
	leaq	l___unnamed_27(%rip), %rcx
	movl	$5, %r8d
	leaq	-24(%rbp), %r9
	leaq	l___unnamed_1(%rip), %rax
	movq	%rax, (%rsp)
	callq	__ZN4core3fmt9Formatter26debug_struct_field1_finish17ha7aba2fd90afbefeE
	.loc	29 115 15 is_stmt 0
	andb	$1, %al
	movzbl	%al, %eax
	addq	$48, %rsp
	popq	%rbp
	retq
Ltmp664:
Lfunc_end79:
	.cfi_endproc

	.section	__TEXT,__const
l___unnamed_28:
	.ascii	"invalid args"

	.section	__DATA,__const
	.p2align	3
l___unnamed_2:
	.quad	l___unnamed_28
	.asciz	"\f\000\000\000\000\000\000"

	.section	__TEXT,__const
	.p2align	3
l___unnamed_3:
	.byte	0

l___unnamed_29:
	.ascii	"/rustc/2c8cc343237b8f7d5a3c3703e3a87f2eb2c54a74/library/core/src/fmt/mod.rs"

	.section	__DATA,__const
	.p2align	3
l___unnamed_4:
	.quad	l___unnamed_29
	.asciz	"K\000\000\000\000\000\000\000\221\001\000\000\r\000\000"

	.section	__TEXT,__const
l___unnamed_30:
	.ascii	"/rustc/2c8cc343237b8f7d5a3c3703e3a87f2eb2c54a74/library/core/src/char/methods.rs"

	.section	__DATA,__const
	.p2align	3
l___unnamed_7:
	.quad	l___unnamed_30
	.asciz	"P\000\000\000\000\000\000\000\335\006\000\000\n\000\000"

	.section	__TEXT,__const
l___unnamed_31:
	.ascii	"encode_utf8: need "

l___unnamed_32:
	.ascii	" bytes to encode U+"

l___unnamed_33:
	.ascii	", but the buffer has "

	.section	__DATA,__const
	.p2align	3
l___unnamed_5:
	.quad	l___unnamed_31
	.asciz	"\022\000\000\000\000\000\000"
	.quad	l___unnamed_32
	.asciz	"\023\000\000\000\000\000\000"
	.quad	l___unnamed_33
	.asciz	"\025\000\000\000\000\000\000"

	.p2align	3
l___unnamed_6:
	.quad	l___unnamed_30
	.asciz	"P\000\000\000\000\000\000\000\326\006\000\000\016\000\000"

	.section	__TEXT,__const
l___unnamed_8:
	.ascii	"called `Option::unwrap()` on a `None` value"

l___unnamed_34:
	.ascii	"/rustc/2c8cc343237b8f7d5a3c3703e3a87f2eb2c54a74/library/alloc/src/slice.rs"

	.section	__DATA,__const
	.p2align	3
l___unnamed_9:
	.quad	l___unnamed_34
	.asciz	"J\000\000\000\000\000\000\000\006\003\000\000\n\000\000"

	.section	__TEXT,__const
l___unnamed_35:
	.ascii	"/rustc/2c8cc343237b8f7d5a3c3703e3a87f2eb2c54a74/library/core/src/slice/iter.rs"

	.section	__DATA,__const
	.p2align	3
l___unnamed_10:
	.quad	l___unnamed_35
	.asciz	"N\000\000\000\000\000\000\000\177\000\000\000\001\000\000"

	.section	__TEXT,__const
	.p2align	4
_str.0:
	.ascii	"attempt to add with overflow"

	.section	__DATA,__const
	.p2align	3
l___unnamed_11:
	.quad	l___unnamed_35
	.asciz	"N\000\000\000\000\000\000\000\307\001\000\000!\000\000"

	.p2align	3
l___unnamed_12:
	.quad	l___unnamed_35
	.asciz	"N\000\000\000\000\000\000\000\310\001\000\000\033\000\000"

	.section	__TEXT,__const
l___unnamed_36:
	.ascii	"/Users/natalie/.cargo/registry/src/github.com-1ecc6299db9ec823/form_urlencoded-1.1.0/src/lib.rs"

	.section	__DATA,__const
	.p2align	3
l___unnamed_13:
	.quad	l___unnamed_36
	.asciz	"_\000\000\000\000\000\000\000.\000\000\000*\000\000"

	.p2align	3
l___unnamed_14:
	.quad	l___unnamed_36
	.asciz	"_\000\000\000\000\000\000\000/\000\000\0003\000\000"

	.p2align	3
l___unnamed_15:
	.quad	l___unnamed_36
	.asciz	"_\000\000\000\000\000\000\0004\000\000\000&\000\000"

	.p2align	3
l___unnamed_16:
	.quad	l___unnamed_36
	.asciz	"_\000\000\000\000\000\000\0005\000\000\0002\000\000"

	.p2align	3
l___unnamed_17:
	.quad	l___unnamed_36
	.asciz	"_\000\000\000\000\000\000\000I\000\000\000\r\000\000"

	.p2align	3
l___unnamed_19:
	.quad	l___unnamed_36
	.asciz	"_\000\000\000\000\000\000\000J\000\000\000'\000\000"

	.p2align	3
l___unnamed_18:
	.quad	l___unnamed_36
	.asciz	"_\000\000\000\000\000\000\000J\000\000\000\036\000\000"

	.section	__TEXT,__const
l___unnamed_20:
	.byte	43

	.section	__DATA,__const
	.p2align	3
l___unnamed_23:
	.quad	l___unnamed_36
	.asciz	"_\000\000\000\000\000\000\000\214\000\000\0000\000\000"

	.p2align	3
l___unnamed_22:
	.quad	l___unnamed_36
	.asciz	"_\000\000\000\000\000\000\000\214\000\000\000'\000\000"

	.p2align	3
l___unnamed_21:
	.quad	l___unnamed_36
	.asciz	"_\000\000\000\000\000\000\000\215\000\000\000'\000\000"

	.section	__TEXT,__const
l___unnamed_24:
	.ascii	"assertion failed: raw_utf8 == &*bytes as *const [u8]"

	.section	__DATA,__const
	.p2align	3
l___unnamed_25:
	.quad	l___unnamed_36
	.asciz	"_\000\000\000\000\000\000\000\223\001\000\000\025\000\000"

	.section	__TEXT,__const
l___unnamed_26:
	.ascii	"ByteSerialize"

l___unnamed_27:
	.ascii	"bytes"

	.section	__DATA,__const
	.p2align	3
l___unnamed_1:
	.quad	__ZN4core3ptr41drop_in_place$LT$$RF$$RF$$u5b$u8$u5d$$GT$17h3619bf1f9ffeeb06E
	.asciz	"\b\000\000\000\000\000\000\000\b\000\000\000\000\000\000"
	.quad	__ZN42_$LT$$RF$T$u20$as$u20$core..fmt..Debug$GT$3fmt17ha550b60a0478e550E

	.section	__DATA,__const
Lsec_end0:
	.section	__TEXT,__text,regular,pure_instructions
Lsec_end1: