	.section	__TEXT,__text,regular,pure_instructions
	.macosx_version_min 10, 7
	.globl	__ZN42_$LT$$RF$T$u20$as$u20$core..fmt..Debug$GT$3fmt17h5869db04750d2e8cE
	.p2align	4, 0x90
__ZN42_$LT$$RF$T$u20$as$u20$core..fmt..Debug$GT$3fmt17h5869db04750d2e8cE:
Lfunc_begin0:
	.file	1 "/rustc/2c8cc343237b8f7d5a3c3703e3a87f2eb2c54a74/library/core/src/fmt" "mod.rs"
	.loc	1 2377 0
	.cfi_startproc
	pushq	%rbp
	.cfi_def_cfa_offset 16
	.cfi_offset %rbp, -16
	movq	%rsp, %rbp
	.cfi_def_cfa_register %rbp
	subq	$16, %rsp
	movq	%rdi, -16(%rbp)
	movq	%rsi, -8(%rbp)
Ltmp0:
	.loc	1 2377 71 prologue_end
	movq	(%rdi), %rdi
	.loc	1 2377 62 is_stmt 0
	callq	__ZN4core3fmt3num52_$LT$impl$u20$core..fmt..Debug$u20$for$u20$usize$GT$3fmt17he0465f874929ef4bE
	.loc	1 2377 84
	andb	$1, %al
	movzbl	%al, %eax
	addq	$16, %rsp
	popq	%rbp
	retq
Ltmp1:
Lfunc_end0:
	.cfi_endproc

	.p2align	4, 0x90
__ZN4core3fmt3num52_$LT$impl$u20$core..fmt..Debug$u20$for$u20$usize$GT$3fmt17he0465f874929ef4bE:
Lfunc_begin1:
	.file	2 "/rustc/2c8cc343237b8f7d5a3c3703e3a87f2eb2c54a74/library/core/src/fmt" "num.rs"
	.loc	2 185 0 is_stmt 1
	.cfi_startproc
	pushq	%rbp
	.cfi_def_cfa_offset 16
	.cfi_offset %rbp, -16
	movq	%rsp, %rbp
	.cfi_def_cfa_register %rbp
	subq	$48, %rsp
	movq	%rsi, -48(%rbp)
	movq	%rdi, %rax
	movq	-48(%rbp), %rdi
	movq	%rax, -40(%rbp)
	movq	%rdi, -32(%rbp)
	movq	%rax, -16(%rbp)
	movq	%rdi, -8(%rbp)
Ltmp2:
	.loc	2 186 20 prologue_end
	callq	__ZN4core3fmt9Formatter15debug_lower_hex17h0921e6b9188d914eE
	testb	$1, %al
	jne	LBB1_2
	.loc	2 0 20 is_stmt 0
	movq	-32(%rbp), %rdi
	.loc	2 188 27 is_stmt 1
	callq	__ZN4core3fmt9Formatter15debug_upper_hex17h8ce487049a6cccf8E
	testb	$1, %al
	jne	LBB1_5
	jmp	LBB1_4
LBB1_2:
	.loc	2 0 27 is_stmt 0
	movq	-32(%rbp), %rsi
	movq	-40(%rbp), %rdi
	.loc	2 187 21 is_stmt 1
	callq	__ZN4core3fmt3num55_$LT$impl$u20$core..fmt..LowerHex$u20$for$u20$usize$GT$3fmt17h84f349805fe63f8dE
	andb	$1, %al
	movb	%al, -17(%rbp)
LBB1_3:
	.loc	2 193 14
	movb	-17(%rbp), %al
	andb	$1, %al
	movzbl	%al, %eax
	addq	$48, %rsp
	popq	%rbp
	retq
LBB1_4:
	.loc	2 0 14 is_stmt 0
	movq	-32(%rbp), %rsi
	movq	-40(%rbp), %rdi
	.loc	2 191 21 is_stmt 1
	callq	__ZN4core3fmt3num3imp54_$LT$impl$u20$core..fmt..Display$u20$for$u20$usize$GT$3fmt17ha5c925fcd7ed33faE
	andb	$1, %al
	movb	%al, -17(%rbp)
	.loc	2 188 24
	jmp	LBB1_6
LBB1_5:
	.loc	2 0 24 is_stmt 0
	movq	-32(%rbp), %rsi
	movq	-40(%rbp), %rdi
	.loc	2 189 21 is_stmt 1
	callq	__ZN4core3fmt3num55_$LT$impl$u20$core..fmt..UpperHex$u20$for$u20$usize$GT$3fmt17h49aa717311edc293E
	andb	$1, %al
	movb	%al, -17(%rbp)
LBB1_6:
	.loc	2 186 17
	jmp	LBB1_3
Ltmp3:
Lfunc_end1:
	.cfi_endproc

	.p2align	4, 0x90
__ZN4core3fmt9Arguments6new_v117h2274fa8631b41203E:
Lfunc_begin2:
	.loc	1 399 0
	.cfi_startproc
	pushq	%rbp
	.cfi_def_cfa_offset 16
	.cfi_offset %rbp, -16
	movq	%rsp, %rbp
	.cfi_def_cfa_register %rbp
	subq	$160, %rsp
	movq	%r8, -152(%rbp)
	movq	%rcx, -144(%rbp)
	movq	%rdx, -136(%rbp)
	movq	%rsi, -128(%rbp)
	movq	%rdi, -120(%rbp)
	movq	%rdi, -112(%rbp)
	movq	%rsi, -32(%rbp)
	movq	%rdx, -24(%rbp)
	movq	%rcx, -16(%rbp)
	movq	%r8, -8(%rbp)
Ltmp4:
	.loc	1 400 12 prologue_end
	cmpq	%r8, %rdx
	jb	LBB2_2
	.loc	1 0 12 is_stmt 0
	movq	-136(%rbp), %rax
	movq	-152(%rbp), %rcx
	.loc	1 400 56
	addq	$1, %rcx
	.loc	1 400 41
	cmpq	%rcx, %rax
	seta	%al
	.loc	1 400 12
	andb	$1, %al
	movb	%al, -97(%rbp)
	jmp	LBB2_3
LBB2_2:
	movb	$1, -97(%rbp)
LBB2_3:
	testb	$1, -97(%rbp)
	jne	LBB2_5
	.loc	1 0 12
	movq	-112(%rbp), %rax
	movq	-120(%rbp), %rcx
	movq	-152(%rbp), %rdx
	movq	-144(%rbp), %rsi
	movq	-136(%rbp), %rdi
	movq	-128(%rbp), %r8
	.loc	1 403 34 is_stmt 1
	movq	$0, -48(%rbp)
	.loc	1 403 9 is_stmt 0
	movq	%r8, 16(%rcx)
	movq	%rdi, 24(%rcx)
	movq	-48(%rbp), %r8
	movq	-40(%rbp), %rdi
	movq	%r8, (%rcx)
	movq	%rdi, 8(%rcx)
	movq	%rsi, 32(%rcx)
	movq	%rdx, 40(%rcx)
	.loc	1 404 6 is_stmt 1
	addq	$160, %rsp
	popq	%rbp
	retq
LBB2_5:
	.loc	1 401 13
	leaq	l___unnamed_2(%rip), %rsi
	leaq	l___unnamed_3(%rip), %rcx
	xorl	%eax, %eax
	movl	%eax, %r8d
	leaq	-96(%rbp), %rdi
	movq	%rdi, -160(%rbp)
	movl	$1, %edx
	callq	__ZN4core3fmt9Arguments6new_v117h2274fa8631b41203E
	movq	-160(%rbp), %rdi
	leaq	l___unnamed_4(%rip), %rsi
	callq	__ZN4core9panicking9panic_fmt17h9b5d807e24bcaaedE
Ltmp5:
Lfunc_end2:
	.cfi_endproc

	.globl	__ZN4core3mem7replace17h1b9a9406a2606322E
	.p2align	4, 0x90
__ZN4core3mem7replace17h1b9a9406a2606322E:
Lfunc_begin3:
	.file	3 "/rustc/2c8cc343237b8f7d5a3c3703e3a87f2eb2c54a74/library/core/src/mem" "mod.rs"
	.loc	3 905 0
	.cfi_startproc
	pushq	%rbp
	.cfi_def_cfa_offset 16
	.cfi_offset %rbp, -16
	movq	%rsp, %rbp
	.cfi_def_cfa_register %rbp
	subq	$168, %rsp
	movq	%rdi, -168(%rbp)
	movq	%rsi, -144(%rbp)
	movq	%rdx, -136(%rbp)
	movq	%rdi, -96(%rbp)
Ltmp6:
	.loc	3 910 32 prologue_end
	movq	%rdi, -88(%rbp)
Ltmp7:
	.file	4 "/rustc/2c8cc343237b8f7d5a3c3703e3a87f2eb2c54a74/library/core/src/ptr" "mod.rs"
	.loc	4 1157 34
	leaq	-112(%rbp), %rax
	movq	%rax, -80(%rbp)
	.loc	4 1157 9 is_stmt 0
	movq	(%rdi), %rax
	movq	%rax, -112(%rbp)
	movq	8(%rdi), %rax
	movq	%rax, -104(%rbp)
	.loc	4 1158 9 is_stmt 1
	movq	-112(%rbp), %rcx
	movq	%rcx, -160(%rbp)
	movq	-104(%rbp), %rax
	movq	%rax, -152(%rbp)
	movq	%rcx, -72(%rbp)
	movq	%rax, -64(%rbp)
	.loc	4 0 9 is_stmt 0
	movq	-152(%rbp), %rdx
	movq	-160(%rbp), %rax
	movq	-168(%rbp), %rcx
Ltmp8:
	.file	5 "/rustc/2c8cc343237b8f7d5a3c3703e3a87f2eb2c54a74/library/core/src/mem" "maybe_uninit.rs"
	.loc	5 627 38 is_stmt 1
	movq	%rax, -40(%rbp)
	movq	%rdx, -32(%rbp)
Ltmp9:
	.file	6 "/rustc/2c8cc343237b8f7d5a3c3703e3a87f2eb2c54a74/library/core/src/mem" "manually_drop.rs"
	.loc	6 89 9
	movq	%rax, -24(%rbp)
	movq	%rdx, -16(%rbp)
Ltmp10:
	.loc	3 911 20
	movq	%rcx, -8(%rbp)
	.loc	3 911 26 is_stmt 0
	movq	-144(%rbp), %rdi
	movq	-136(%rbp), %rsi
	movq	%rdi, -128(%rbp)
	movq	%rsi, -120(%rbp)
Ltmp11:
	.loc	4 1354 9 is_stmt 1
	movq	-128(%rbp), %rsi
	movq	-120(%rbp), %rdi
	movq	%rdi, 8(%rcx)
	movq	%rsi, (%rcx)
Ltmp12:
	.loc	3 914 2
	addq	$168, %rsp
	popq	%rbp
	retq
Ltmp13:
Lfunc_end3:
	.cfi_endproc

	.p2align	4, 0x90
__ZN4core3ptr30drop_in_place$LT$$RF$usize$GT$17hb26c6b5444408a0eE:
Lfunc_begin4:
	.loc	4 490 0
	.cfi_startproc
	pushq	%rbp
	.cfi_def_cfa_offset 16
	.cfi_offset %rbp, -16
	movq	%rsp, %rbp
	.cfi_def_cfa_register %rbp
	pushq	%rax
	movq	%rdi, -8(%rbp)
Ltmp14:
	.loc	4 490 1 prologue_end
	addq	$8, %rsp
	popq	%rbp
	retq
Ltmp15:
Lfunc_end4:
	.cfi_endproc

	.globl	__ZN4core3ptr44drop_in_place$LT$core..task..wake..Waker$GT$17h5eab3db7c153ad20E
	.p2align	4, 0x90
__ZN4core3ptr44drop_in_place$LT$core..task..wake..Waker$GT$17h5eab3db7c153ad20E:
Lfunc_begin5:
	.loc	4 490 0
	.cfi_startproc
	pushq	%rbp
	.cfi_def_cfa_offset 16
	.cfi_offset %rbp, -16
	movq	%rsp, %rbp
	.cfi_def_cfa_register %rbp
	subq	$16, %rsp
	movq	%rdi, -8(%rbp)
Ltmp16:
	.loc	4 490 1 prologue_end
	callq	__ZN65_$LT$core..task..wake..Waker$u20$as$u20$core..ops..drop..Drop$GT$4drop17h07ab0692a3b247c9E
	addq	$16, %rsp
	popq	%rbp
	retq
Ltmp17:
Lfunc_end5:
	.cfi_endproc

	.globl	__ZN4core3ptr72drop_in_place$LT$core..option..Option$LT$core..task..wake..Waker$GT$$GT$17hfd84fb1a00780cceE
	.p2align	4, 0x90
__ZN4core3ptr72drop_in_place$LT$core..option..Option$LT$core..task..wake..Waker$GT$$GT$17hfd84fb1a00780cceE:
Lfunc_begin6:
	.loc	4 490 0
	.cfi_startproc
	pushq	%rbp
	.cfi_def_cfa_offset 16
	.cfi_offset %rbp, -16
	movq	%rsp, %rbp
	.cfi_def_cfa_register %rbp
	subq	$16, %rsp
	movq	%rdi, -16(%rbp)
	movq	%rdi, -8(%rbp)
Ltmp18:
	.loc	4 490 1 prologue_end
	movq	8(%rdi), %rdx
	movl	$1, %eax
	xorl	%ecx, %ecx
	cmpq	$0, %rdx
	cmoveq	%rcx, %rax
	cmpq	$0, %rax
	jne	LBB6_2
LBB6_1:
	addq	$16, %rsp
	popq	%rbp
	retq
LBB6_2:
	.loc	4 0 1 is_stmt 0
	movq	-16(%rbp), %rdi
	.loc	4 490 1
	callq	__ZN4core3ptr44drop_in_place$LT$core..task..wake..Waker$GT$17h5eab3db7c153ad20E
	jmp	LBB6_1
Ltmp19:
Lfunc_end6:
	.cfi_endproc

	.globl	__ZN4core4sync6atomic10atomic_and17hf83076c708520b33E
	.p2align	4, 0x90
__ZN4core4sync6atomic10atomic_and17hf83076c708520b33E:
Lfunc_begin7:
	.file	7 "/rustc/2c8cc343237b8f7d5a3c3703e3a87f2eb2c54a74/library/core/src/sync" "atomic.rs"
	.loc	7 3155 0 is_stmt 1
	.cfi_startproc
	pushq	%rbp
	.cfi_def_cfa_offset 16
	.cfi_offset %rbp, -16
	movq	%rsp, %rbp
	.cfi_def_cfa_register %rbp
	subq	$136, %rsp
	movq	%rsi, -56(%rbp)
	movq	%rdi, -48(%rbp)
	movb	%dl, %al
	movb	%al, -25(%rbp)
	movq	%rdi, -16(%rbp)
	movq	%rsi, -8(%rbp)
Ltmp20:
	.loc	7 3158 15 prologue_end
	movzbl	-25(%rbp), %eax
	movq	%rax, -40(%rbp)
	.loc	7 0 15 is_stmt 0
	movq	-40(%rbp), %rax
	leaq	LJTI7_0(%rip), %rcx
	movslq	(%rcx,%rax,4), %rax
	addq	%rcx, %rax
	jmpq	*%rax
	.loc	7 3158 15
	ud2
LBB7_2:
	.loc	7 0 15
	movq	-48(%rbp), %rax
	.loc	7 3159 24 is_stmt 1
	movq	(%rax), %rax
	movq	%rax, -64(%rbp)
LBB7_3:
	.loc	7 0 24 is_stmt 0
	movq	-64(%rbp), %rax
	movq	-48(%rbp), %rcx
	movq	-56(%rbp), %rsi
	.loc	7 3159 24
	movq	%rax, %rdx
	andq	%rsi, %rdx
	lock		cmpxchgq	%rdx, (%rcx)
	sete	%cl
	movq	%rax, -72(%rbp)
	testb	$1, %cl
	movq	%rax, -64(%rbp)
	jne	LBB7_4
	jmp	LBB7_3
LBB7_4:
	.loc	7 0 24
	movq	-72(%rbp), %rax
	.loc	7 3159 24
	movq	%rax, -24(%rbp)
	.loc	7 3159 63
	jmp	LBB7_17
LBB7_5:
	.loc	7 0 63
	movq	-48(%rbp), %rax
	.loc	7 3161 24 is_stmt 1
	movq	(%rax), %rax
	movq	%rax, -80(%rbp)
LBB7_6:
	.loc	7 0 24 is_stmt 0
	movq	-80(%rbp), %rax
	movq	-48(%rbp), %rcx
	movq	-56(%rbp), %rsi
	.loc	7 3161 24
	movq	%rax, %rdx
	andq	%rsi, %rdx
	lock		cmpxchgq	%rdx, (%rcx)
	sete	%cl
	movq	%rax, -88(%rbp)
	testb	$1, %cl
	movq	%rax, -80(%rbp)
	jne	LBB7_7
	jmp	LBB7_6
LBB7_7:
	.loc	7 0 24
	movq	-88(%rbp), %rax
	.loc	7 3161 24
	movq	%rax, -24(%rbp)
	.loc	7 3161 63
	jmp	LBB7_17
LBB7_8:
	.loc	7 0 63
	movq	-48(%rbp), %rax
	.loc	7 3160 24 is_stmt 1
	movq	(%rax), %rax
	movq	%rax, -96(%rbp)
LBB7_9:
	.loc	7 0 24 is_stmt 0
	movq	-96(%rbp), %rax
	movq	-48(%rbp), %rcx
	movq	-56(%rbp), %rsi
	.loc	7 3160 24
	movq	%rax, %rdx
	andq	%rsi, %rdx
	lock		cmpxchgq	%rdx, (%rcx)
	sete	%cl
	movq	%rax, -104(%rbp)
	testb	$1, %cl
	movq	%rax, -96(%rbp)
	jne	LBB7_10
	jmp	LBB7_9
LBB7_10:
	.loc	7 0 24
	movq	-104(%rbp), %rax
	.loc	7 3160 24
	movq	%rax, -24(%rbp)
	.loc	7 3160 63
	jmp	LBB7_17
LBB7_11:
	.loc	7 0 63
	movq	-48(%rbp), %rax
	.loc	7 3162 23 is_stmt 1
	movq	(%rax), %rax
	movq	%rax, -112(%rbp)
LBB7_12:
	.loc	7 0 23 is_stmt 0
	movq	-112(%rbp), %rax
	movq	-48(%rbp), %rcx
	movq	-56(%rbp), %rsi
	.loc	7 3162 23
	movq	%rax, %rdx
	andq	%rsi, %rdx
	lock		cmpxchgq	%rdx, (%rcx)
	sete	%cl
	movq	%rax, -120(%rbp)
	testb	$1, %cl
	movq	%rax, -112(%rbp)
	jne	LBB7_13
	jmp	LBB7_12
LBB7_13:
	.loc	7 0 23
	movq	-120(%rbp), %rax
	.loc	7 3162 23
	movq	%rax, -24(%rbp)
	.loc	7 3162 61
	jmp	LBB7_17
LBB7_14:
	.loc	7 0 61
	movq	-48(%rbp), %rax
	.loc	7 3163 23 is_stmt 1
	movq	(%rax), %rax
	movq	%rax, -128(%rbp)
LBB7_15:
	.loc	7 0 23 is_stmt 0
	movq	-128(%rbp), %rax
	movq	-48(%rbp), %rcx
	movq	-56(%rbp), %rsi
	.loc	7 3163 23
	movq	%rax, %rdx
	andq	%rsi, %rdx
	lock		cmpxchgq	%rdx, (%rcx)
	sete	%cl
	movq	%rax, -136(%rbp)
	testb	$1, %cl
	movq	%rax, -128(%rbp)
	jne	LBB7_16
	jmp	LBB7_15
LBB7_16:
	.loc	7 0 23
	movq	-136(%rbp), %rax
	.loc	7 3163 23
	movq	%rax, -24(%rbp)
LBB7_17:
	.loc	7 3166 2 is_stmt 1
	movq	-24(%rbp), %rax
	addq	$136, %rsp
	popq	%rbp
	retq
Ltmp21:
Lfunc_end7:
	.cfi_endproc
	.p2align	2, 0x90
	.data_region jt32
.set L7_0_set_2, LBB7_2-LJTI7_0
.set L7_0_set_5, LBB7_5-LJTI7_0
.set L7_0_set_8, LBB7_8-LJTI7_0
.set L7_0_set_11, LBB7_11-LJTI7_0
.set L7_0_set_14, LBB7_14-LJTI7_0
LJTI7_0:
	.long	L7_0_set_2
	.long	L7_0_set_5
	.long	L7_0_set_8
	.long	L7_0_set_11
	.long	L7_0_set_14
	.end_data_region

	.p2align	4, 0x90
__ZN4core4sync6atomic11AtomicUsize16compare_exchange17h45d7fc73872d8c4cE:
Lfunc_begin8:
	.loc	7 2292 0
	.cfi_startproc
	pushq	%rbp
	.cfi_def_cfa_offset 16
	.cfi_offset %rbp, -16
	movq	%rsp, %rbp
	.cfi_def_cfa_register %rbp
	subq	$48, %rsp
	movb	%r8b, %al
	movq	%rdi, -40(%rbp)
	movq	%rsi, -32(%rbp)
	movq	%rdx, -24(%rbp)
	movb	%cl, -10(%rbp)
	movb	%al, -9(%rbp)
Ltmp22:
	.loc	7 2298 50 prologue_end
	movq	%rdi, -8(%rbp)
	.loc	7 2298 26 is_stmt 0
	movzbl	%cl, %ecx
	movzbl	%al, %r8d
	callq	__ZN4core4sync6atomic23atomic_compare_exchange17h7dfe5adc9eef0b8eE
	.loc	7 2299 14 is_stmt 1
	addq	$48, %rsp
	popq	%rbp
	retq
Ltmp23:
Lfunc_end8:
	.cfi_endproc

	.p2align	4, 0x90
__ZN4core4sync6atomic11AtomicUsize3new17h1f79c17f0be1cdcbE:
Lfunc_begin9:
	.loc	7 1956 0
	.cfi_startproc
	pushq	%rbp
	.cfi_def_cfa_offset 16
	.cfi_offset %rbp, -16
	movq	%rsp, %rbp
	.cfi_def_cfa_register %rbp
	subq	$32, %rsp
	movq	%rdi, -16(%rbp)
Ltmp24:
	.loc	7 1957 42 prologue_end
	movq	%rdi, -8(%rbp)
Ltmp25:
	.file	8 "/rustc/2c8cc343237b8f7d5a3c3703e3a87f2eb2c54a74/library/core/src" "cell.rs"
	.loc	8 1953 9
	movq	%rdi, -24(%rbp)
Ltmp26:
	.loc	7 1957 17
	movq	-24(%rbp), %rax
	movq	%rax, -32(%rbp)
	.loc	7 1958 14
	movq	-32(%rbp), %rax
	addq	$32, %rsp
	popq	%rbp
	retq
Ltmp27:
Lfunc_end9:
	.cfi_endproc

	.p2align	4, 0x90
__ZN4core4sync6atomic11AtomicUsize4swap17hf15772fca7957c65E:
Lfunc_begin10:
	.loc	7 2180 0
	.cfi_startproc
	pushq	%rbp
	.cfi_def_cfa_offset 16
	.cfi_offset %rbp, -16
	movq	%rsp, %rbp
	.cfi_def_cfa_register %rbp
	subq	$32, %rsp
	movb	%dl, %al
	movq	%rdi, -32(%rbp)
	movq	%rsi, -24(%rbp)
	movb	%al, -9(%rbp)
Ltmp28:
	.loc	7 2182 38 prologue_end
	movq	%rdi, -8(%rbp)
	.loc	7 2182 26 is_stmt 0
	movzbl	%al, %edx
	callq	__ZN4core4sync6atomic11atomic_swap17h794d4f1413c419eaE
	.loc	7 2183 14 is_stmt 1
	addq	$32, %rsp
	popq	%rbp
	retq
Ltmp29:
Lfunc_end10:
	.cfi_endproc

	.p2align	4, 0x90
__ZN4core4sync6atomic11AtomicUsize8fetch_or17h48c70ad082382c1eE:
Lfunc_begin11:
	.loc	7 2506 0
	.cfi_startproc
	pushq	%rbp
	.cfi_def_cfa_offset 16
	.cfi_offset %rbp, -16
	movq	%rsp, %rbp
	.cfi_def_cfa_register %rbp
	subq	$32, %rsp
	movb	%dl, %al
	movq	%rdi, -32(%rbp)
	movq	%rsi, -24(%rbp)
	movb	%al, -9(%rbp)
Ltmp30:
	.loc	7 2508 36 prologue_end
	movq	%rdi, -8(%rbp)
	.loc	7 2508 26 is_stmt 0
	movzbl	%al, %edx
	callq	__ZN4core4sync6atomic9atomic_or17hc593908f3734c4d7E
	.loc	7 2509 14 is_stmt 1
	addq	$32, %rsp
	popq	%rbp
	retq
Ltmp31:
Lfunc_end11:
	.cfi_endproc

	.p2align	4, 0x90
__ZN4core4sync6atomic11AtomicUsize9fetch_and17h0ca88538d46d5b7eE:
Lfunc_begin12:
	.loc	7 2440 0
	.cfi_startproc
	pushq	%rbp
	.cfi_def_cfa_offset 16
	.cfi_offset %rbp, -16
	movq	%rsp, %rbp
	.cfi_def_cfa_register %rbp
	subq	$32, %rsp
	movb	%dl, %al
	movq	%rdi, -32(%rbp)
	movq	%rsi, -24(%rbp)
	movb	%al, -9(%rbp)
Ltmp32:
	.loc	7 2442 37 prologue_end
	movq	%rdi, -8(%rbp)
	.loc	7 2442 26 is_stmt 0
	movzbl	%al, %edx
	callq	__ZN4core4sync6atomic10atomic_and17hf83076c708520b33E
	.loc	7 2443 14 is_stmt 1
	addq	$32, %rsp
	popq	%rbp
	retq
Ltmp33:
Lfunc_end12:
	.cfi_endproc

	.globl	__ZN4core4sync6atomic11atomic_swap17h794d4f1413c419eaE
	.p2align	4, 0x90
__ZN4core4sync6atomic11atomic_swap17h794d4f1413c419eaE:
Lfunc_begin13:
	.loc	7 3035 0
	.cfi_startproc
	pushq	%rbp
	.cfi_def_cfa_offset 16
	.cfi_offset %rbp, -16
	movq	%rsp, %rbp
	.cfi_def_cfa_register %rbp
	subq	$56, %rsp
	movq	%rsi, -56(%rbp)
	movq	%rdi, -48(%rbp)
	movb	%dl, %al
	movb	%al, -25(%rbp)
	movq	%rdi, -16(%rbp)
	movq	%rsi, -8(%rbp)
Ltmp34:
	.loc	7 3038 15 prologue_end
	movzbl	-25(%rbp), %eax
	movq	%rax, -40(%rbp)
	.loc	7 0 15 is_stmt 0
	movq	-40(%rbp), %rax
	leaq	LJTI13_0(%rip), %rcx
	movslq	(%rcx,%rax,4), %rax
	addq	%rcx, %rax
	jmpq	*%rax
	.loc	7 3038 15
	ud2
LBB13_2:
	.loc	7 0 15
	movq	-48(%rbp), %rcx
	movq	-56(%rbp), %rax
	.loc	7 3039 24 is_stmt 1
	xchgq	%rax, (%rcx)
	movq	%rax, -24(%rbp)
	.loc	7 3039 64 is_stmt 0
	jmp	LBB13_7
LBB13_3:
	.loc	7 0 64
	movq	-48(%rbp), %rcx
	movq	-56(%rbp), %rax
	.loc	7 3041 24 is_stmt 1
	xchgq	%rax, (%rcx)
	movq	%rax, -24(%rbp)
	.loc	7 3041 64 is_stmt 0
	jmp	LBB13_7
LBB13_4:
	.loc	7 0 64
	movq	-48(%rbp), %rcx
	movq	-56(%rbp), %rax
	.loc	7 3040 24 is_stmt 1
	xchgq	%rax, (%rcx)
	movq	%rax, -24(%rbp)
	.loc	7 3040 64 is_stmt 0
	jmp	LBB13_7
LBB13_5:
	.loc	7 0 64
	movq	-48(%rbp), %rcx
	movq	-56(%rbp), %rax
	.loc	7 3042 23 is_stmt 1
	xchgq	%rax, (%rcx)
	movq	%rax, -24(%rbp)
	.loc	7 3042 62 is_stmt 0
	jmp	LBB13_7
LBB13_6:
	.loc	7 0 62
	movq	-48(%rbp), %rcx
	movq	-56(%rbp), %rax
	.loc	7 3043 23 is_stmt 1
	xchgq	%rax, (%rcx)
	movq	%rax, -24(%rbp)
LBB13_7:
	.loc	7 3046 2
	movq	-24(%rbp), %rax
	addq	$56, %rsp
	popq	%rbp
	retq
Ltmp35:
Lfunc_end13:
	.cfi_endproc
	.p2align	2, 0x90
	.data_region jt32
.set L13_0_set_2, LBB13_2-LJTI13_0
.set L13_0_set_3, LBB13_3-LJTI13_0
.set L13_0_set_4, LBB13_4-LJTI13_0
.set L13_0_set_5, LBB13_5-LJTI13_0
.set L13_0_set_6, LBB13_6-LJTI13_0
LJTI13_0:
	.long	L13_0_set_2
	.long	L13_0_set_3
	.long	L13_0_set_4
	.long	L13_0_set_5
	.long	L13_0_set_6
	.end_data_region

	.globl	__ZN4core4sync6atomic23atomic_compare_exchange17h7dfe5adc9eef0b8eE
	.p2align	4, 0x90
__ZN4core4sync6atomic23atomic_compare_exchange17h7dfe5adc9eef0b8eE:
Lfunc_begin14:
	.loc	7 3085 0
	.cfi_startproc
	pushq	%rbp
	.cfi_def_cfa_offset 16
	.cfi_offset %rbp, -16
	movq	%rsp, %rbp
	.cfi_def_cfa_register %rbp
	subq	$288, %rsp
	movq	%rdx, -216(%rbp)
	movq	%rsi, -208(%rbp)
	movq	%rdi, -200(%rbp)
	movb	%r8b, %al
	movq	%rdi, -48(%rbp)
	movq	%rsi, -40(%rbp)
	movq	%rdx, -32(%rbp)
	movb	%cl, -18(%rbp)
	movb	%al, -17(%rbp)
Ltmp36:
	.loc	7 3094 15 prologue_end
	movb	%cl, -152(%rbp)
	movb	%al, -151(%rbp)
	movzbl	-152(%rbp), %eax
	movq	%rax, -192(%rbp)
	.loc	7 0 15 is_stmt 0
	movq	-192(%rbp), %rax
	leaq	LJTI14_0(%rip), %rcx
	movslq	(%rcx,%rax,4), %rax
	addq	%rcx, %rax
	jmpq	*%rax
	.loc	7 3094 9
	ud2
LBB14_2:
	.loc	7 3094 15
	movzbl	-151(%rbp), %eax
	movq	%rax, -224(%rbp)
	testq	%rax, %rax
	.loc	7 3094 9
	je	LBB14_21
	jmp	LBB14_38
LBB14_38:
	.loc	7 0 9
	movq	-224(%rbp), %rax
	.loc	7 3094 9
	subq	$2, %rax
	je	LBB14_22
	jmp	LBB14_39
LBB14_39:
	.loc	7 0 9
	movq	-224(%rbp), %rax
	.loc	7 3094 9
	subq	$4, %rax
	je	LBB14_23
	jmp	LBB14_7
LBB14_3:
	.loc	7 3094 15
	movzbl	-151(%rbp), %eax
	movq	%rax, -232(%rbp)
	testq	%rax, %rax
	.loc	7 3094 9
	je	LBB14_18
	jmp	LBB14_36
LBB14_36:
	.loc	7 0 9
	movq	-232(%rbp), %rax
	.loc	7 3094 9
	subq	$2, %rax
	je	LBB14_19
	jmp	LBB14_37
LBB14_37:
	.loc	7 0 9
	movq	-232(%rbp), %rax
	.loc	7 3094 9
	subq	$4, %rax
	je	LBB14_20
	jmp	LBB14_7
LBB14_4:
	.loc	7 3094 15
	movzbl	-151(%rbp), %eax
	movq	%rax, -240(%rbp)
	testq	%rax, %rax
	.loc	7 3094 9
	je	LBB14_15
	jmp	LBB14_34
LBB14_34:
	.loc	7 0 9
	movq	-240(%rbp), %rax
	.loc	7 3094 9
	subq	$2, %rax
	je	LBB14_16
	jmp	LBB14_35
LBB14_35:
	.loc	7 0 9
	movq	-240(%rbp), %rax
	.loc	7 3094 9
	subq	$4, %rax
	je	LBB14_17
	jmp	LBB14_7
LBB14_5:
	.loc	7 3094 15
	movzbl	-151(%rbp), %eax
	movq	%rax, -248(%rbp)
	testq	%rax, %rax
	.loc	7 3094 9
	je	LBB14_12
	jmp	LBB14_32
LBB14_32:
	.loc	7 0 9
	movq	-248(%rbp), %rax
	.loc	7 3094 9
	subq	$2, %rax
	je	LBB14_13
	jmp	LBB14_33
LBB14_33:
	.loc	7 0 9
	movq	-248(%rbp), %rax
	.loc	7 3094 9
	subq	$4, %rax
	je	LBB14_14
	jmp	LBB14_7
LBB14_6:
	.loc	7 3094 15
	movzbl	-151(%rbp), %eax
	movq	%rax, -256(%rbp)
	testq	%rax, %rax
	.loc	7 3094 9
	je	LBB14_8
	jmp	LBB14_30
LBB14_30:
	.loc	7 0 9
	movq	-256(%rbp), %rax
	.loc	7 3094 9
	subq	$2, %rax
	je	LBB14_9
	jmp	LBB14_31
LBB14_31:
	.loc	7 0 9
	movq	-256(%rbp), %rax
	.loc	7 3094 9
	subq	$4, %rax
	je	LBB14_10
	jmp	LBB14_7
LBB14_7:
	.loc	7 3094 15
	movzbl	-151(%rbp), %eax
	.loc	7 3094 9
	cmpq	$1, %rax
	je	LBB14_24
	jmp	LBB14_25
LBB14_8:
	.loc	7 0 9
	movq	-200(%rbp), %rcx
	movq	-216(%rbp), %rdx
	movq	-208(%rbp), %rax
	.loc	7 3107 34 is_stmt 1
	lock		cmpxchgq	%rdx, (%rcx)
	movq	%rax, %rcx
	sete	%al
	andb	$1, %al
	movq	%rcx, -168(%rbp)
	movb	%al, -160(%rbp)
	.loc	7 3107 87 is_stmt 0
	jmp	LBB14_11
LBB14_9:
	.loc	7 0 87
	movq	-200(%rbp), %rcx
	movq	-216(%rbp), %rdx
	movq	-208(%rbp), %rax
	.loc	7 3108 34 is_stmt 1
	lock		cmpxchgq	%rdx, (%rcx)
	movq	%rax, %rcx
	sete	%al
	andb	$1, %al
	movq	%rcx, -168(%rbp)
	movb	%al, -160(%rbp)
	.loc	7 3108 87 is_stmt 0
	jmp	LBB14_11
LBB14_10:
	.loc	7 0 87
	movq	-200(%rbp), %rcx
	movq	-216(%rbp), %rdx
	movq	-208(%rbp), %rax
	.loc	7 3109 33 is_stmt 1
	lock		cmpxchgq	%rdx, (%rcx)
	movq	%rax, %rcx
	sete	%al
	andb	$1, %al
	movq	%rcx, -168(%rbp)
	movb	%al, -160(%rbp)
LBB14_11:
	.loc	7 3093 10
	movq	-168(%rbp), %rax
	movq	%rax, -264(%rbp)
	movq	%rax, -16(%rbp)
	.loc	7 3093 15 is_stmt 0
	movb	-160(%rbp), %al
	movb	%al, %cl
	andb	$1, %cl
	movb	%cl, -1(%rbp)
Ltmp37:
	.loc	7 3114 8 is_stmt 1
	testb	$1, %al
	jne	LBB14_27
	jmp	LBB14_26
Ltmp38:
LBB14_12:
	.loc	7 0 8 is_stmt 0
	movq	-200(%rbp), %rcx
	movq	-216(%rbp), %rdx
	movq	-208(%rbp), %rax
	.loc	7 3104 34 is_stmt 1
	lock		cmpxchgq	%rdx, (%rcx)
	movq	%rax, %rcx
	sete	%al
	andb	$1, %al
	movq	%rcx, -168(%rbp)
	movb	%al, -160(%rbp)
	.loc	7 3104 87 is_stmt 0
	jmp	LBB14_11
LBB14_13:
	.loc	7 0 87
	movq	-200(%rbp), %rcx
	movq	-216(%rbp), %rdx
	movq	-208(%rbp), %rax
	.loc	7 3105 34 is_stmt 1
	lock		cmpxchgq	%rdx, (%rcx)
	movq	%rax, %rcx
	sete	%al
	andb	$1, %al
	movq	%rcx, -168(%rbp)
	movb	%al, -160(%rbp)
	.loc	7 3105 87 is_stmt 0
	jmp	LBB14_11
LBB14_14:
	.loc	7 0 87
	movq	-200(%rbp), %rcx
	movq	-216(%rbp), %rdx
	movq	-208(%rbp), %rax
	.loc	7 3106 33 is_stmt 1
	lock		cmpxchgq	%rdx, (%rcx)
	movq	%rax, %rcx
	sete	%al
	andb	$1, %al
	movq	%rcx, -168(%rbp)
	movb	%al, -160(%rbp)
	.loc	7 3106 85 is_stmt 0
	jmp	LBB14_11
LBB14_15:
	.loc	7 0 85
	movq	-200(%rbp), %rcx
	movq	-216(%rbp), %rdx
	movq	-208(%rbp), %rax
	.loc	7 3098 35 is_stmt 1
	lock		cmpxchgq	%rdx, (%rcx)
	movq	%rax, %rcx
	sete	%al
	andb	$1, %al
	movq	%rcx, -168(%rbp)
	movb	%al, -160(%rbp)
	.loc	7 3098 89 is_stmt 0
	jmp	LBB14_11
LBB14_16:
	.loc	7 0 89
	movq	-200(%rbp), %rcx
	movq	-216(%rbp), %rdx
	movq	-208(%rbp), %rax
	.loc	7 3099 35 is_stmt 1
	lock		cmpxchgq	%rdx, (%rcx)
	movq	%rax, %rcx
	sete	%al
	andb	$1, %al
	movq	%rcx, -168(%rbp)
	movb	%al, -160(%rbp)
	.loc	7 3099 89 is_stmt 0
	jmp	LBB14_11
LBB14_17:
	.loc	7 0 89
	movq	-200(%rbp), %rcx
	movq	-216(%rbp), %rdx
	movq	-208(%rbp), %rax
	.loc	7 3100 34 is_stmt 1
	lock		cmpxchgq	%rdx, (%rcx)
	movq	%rax, %rcx
	sete	%al
	andb	$1, %al
	movq	%rcx, -168(%rbp)
	movb	%al, -160(%rbp)
	.loc	7 3100 87 is_stmt 0
	jmp	LBB14_11
LBB14_18:
	.loc	7 0 87
	movq	-200(%rbp), %rcx
	movq	-216(%rbp), %rdx
	movq	-208(%rbp), %rax
	.loc	7 3101 35 is_stmt 1
	lock		cmpxchgq	%rdx, (%rcx)
	movq	%rax, %rcx
	sete	%al
	andb	$1, %al
	movq	%rcx, -168(%rbp)
	movb	%al, -160(%rbp)
	.loc	7 3101 89 is_stmt 0
	jmp	LBB14_11
LBB14_19:
	.loc	7 0 89
	movq	-200(%rbp), %rcx
	movq	-216(%rbp), %rdx
	movq	-208(%rbp), %rax
	.loc	7 3102 35 is_stmt 1
	lock		cmpxchgq	%rdx, (%rcx)
	movq	%rax, %rcx
	sete	%al
	andb	$1, %al
	movq	%rcx, -168(%rbp)
	movb	%al, -160(%rbp)
	.loc	7 3102 89 is_stmt 0
	jmp	LBB14_11
LBB14_20:
	.loc	7 0 89
	movq	-200(%rbp), %rcx
	movq	-216(%rbp), %rdx
	movq	-208(%rbp), %rax
	.loc	7 3103 34 is_stmt 1
	lock		cmpxchgq	%rdx, (%rcx)
	movq	%rax, %rcx
	sete	%al
	andb	$1, %al
	movq	%rcx, -168(%rbp)
	movb	%al, -160(%rbp)
	.loc	7 3103 87 is_stmt 0
	jmp	LBB14_11
LBB14_21:
	.loc	7 0 87
	movq	-200(%rbp), %rcx
	movq	-216(%rbp), %rdx
	movq	-208(%rbp), %rax
	.loc	7 3095 35 is_stmt 1
	lock		cmpxchgq	%rdx, (%rcx)
	movq	%rax, %rcx
	sete	%al
	andb	$1, %al
	movq	%rcx, -168(%rbp)
	movb	%al, -160(%rbp)
	.loc	7 3095 89 is_stmt 0
	jmp	LBB14_11
LBB14_22:
	.loc	7 0 89
	movq	-200(%rbp), %rcx
	movq	-216(%rbp), %rdx
	movq	-208(%rbp), %rax
	.loc	7 3096 35 is_stmt 1
	lock		cmpxchgq	%rdx, (%rcx)
	movq	%rax, %rcx
	sete	%al
	andb	$1, %al
	movq	%rcx, -168(%rbp)
	movb	%al, -160(%rbp)
	.loc	7 3096 89 is_stmt 0
	jmp	LBB14_11
LBB14_23:
	.loc	7 0 89
	movq	-200(%rbp), %rcx
	movq	-216(%rbp), %rdx
	movq	-208(%rbp), %rax
	.loc	7 3097 34 is_stmt 1
	lock		cmpxchgq	%rdx, (%rcx)
	movq	%rax, %rcx
	sete	%al
	andb	$1, %al
	movq	%rcx, -168(%rbp)
	movb	%al, -160(%rbp)
	.loc	7 3097 87 is_stmt 0
	jmp	LBB14_11
LBB14_24:
	.loc	7 3111 29 is_stmt 1
	leaq	l___unnamed_5(%rip), %rsi
	leaq	l___unnamed_3(%rip), %rcx
	xorl	%eax, %eax
	movl	%eax, %r8d
	leaq	-96(%rbp), %rdi
	movq	%rdi, -272(%rbp)
	movl	$1, %edx
	callq	__ZN4core3fmt9Arguments6new_v117h2274fa8631b41203E
	movq	-272(%rbp), %rdi
	leaq	l___unnamed_6(%rip), %rsi
	callq	__ZN4core9panicking9panic_fmt17h9b5d807e24bcaaedE
LBB14_25:
	.loc	7 3110 28
	leaq	l___unnamed_7(%rip), %rsi
	leaq	l___unnamed_3(%rip), %rcx
	xorl	%eax, %eax
	movl	%eax, %r8d
	leaq	-144(%rbp), %rdi
	movq	%rdi, -280(%rbp)
	movl	$1, %edx
	callq	__ZN4core3fmt9Arguments6new_v117h2274fa8631b41203E
	movq	-280(%rbp), %rdi
	leaq	l___unnamed_8(%rip), %rsi
	callq	__ZN4core9panicking9panic_fmt17h9b5d807e24bcaaedE
LBB14_26:
	.loc	7 0 28 is_stmt 0
	movq	-264(%rbp), %rax
Ltmp39:
	.loc	7 3114 30 is_stmt 1
	movq	%rax, -176(%rbp)
	movq	$1, -184(%rbp)
	.loc	7 3114 5 is_stmt 0
	jmp	LBB14_28
LBB14_27:
	.loc	7 0 5
	movq	-264(%rbp), %rax
	.loc	7 3114 13
	movq	%rax, -176(%rbp)
	movq	$0, -184(%rbp)
Ltmp40:
LBB14_28:
	.loc	7 3115 2 is_stmt 1
	movq	-184(%rbp), %rax
	movq	-176(%rbp), %rdx
	addq	$288, %rsp
	popq	%rbp
	retq
Ltmp41:
Lfunc_end14:
	.cfi_endproc
	.p2align	2, 0x90
	.data_region jt32
.set L14_0_set_2, LBB14_2-LJTI14_0
.set L14_0_set_3, LBB14_3-LJTI14_0
.set L14_0_set_4, LBB14_4-LJTI14_0
.set L14_0_set_5, LBB14_5-LJTI14_0
.set L14_0_set_6, LBB14_6-LJTI14_0
LJTI14_0:
	.long	L14_0_set_2
	.long	L14_0_set_3
	.long	L14_0_set_4
	.long	L14_0_set_5
	.long	L14_0_set_6
	.end_data_region

	.globl	__ZN4core4sync6atomic9atomic_or17hc593908f3734c4d7E
	.p2align	4, 0x90
__ZN4core4sync6atomic9atomic_or17hc593908f3734c4d7E:
Lfunc_begin15:
	.loc	7 3187 0
	.cfi_startproc
	pushq	%rbp
	.cfi_def_cfa_offset 16
	.cfi_offset %rbp, -16
	movq	%rsp, %rbp
	.cfi_def_cfa_register %rbp
	subq	$136, %rsp
	movq	%rsi, -56(%rbp)
	movq	%rdi, -48(%rbp)
	movb	%dl, %al
	movb	%al, -25(%rbp)
	movq	%rdi, -16(%rbp)
	movq	%rsi, -8(%rbp)
Ltmp42:
	.loc	7 3190 15 prologue_end
	movzbl	-25(%rbp), %eax
	movq	%rax, -40(%rbp)
	.loc	7 0 15 is_stmt 0
	movq	-40(%rbp), %rax
	leaq	LJTI15_0(%rip), %rcx
	movslq	(%rcx,%rax,4), %rax
	addq	%rcx, %rax
	jmpq	*%rax
	.loc	7 3190 15
	ud2
LBB15_2:
	.loc	7 0 15
	movq	-48(%rbp), %rax
	.loc	7 3195 24 is_stmt 1
	movq	(%rax), %rax
	movq	%rax, -64(%rbp)
LBB15_3:
	.loc	7 0 24 is_stmt 0
	movq	-64(%rbp), %rax
	movq	-48(%rbp), %rcx
	movq	-56(%rbp), %rsi
	.loc	7 3195 24
	movq	%rax, %rdx
	orq	%rsi, %rdx
	lock		cmpxchgq	%rdx, (%rcx)
	sete	%cl
	movq	%rax, -72(%rbp)
	testb	$1, %cl
	movq	%rax, -64(%rbp)
	jne	LBB15_4
	jmp	LBB15_3
LBB15_4:
	.loc	7 0 24
	movq	-72(%rbp), %rax
	.loc	7 3195 24
	movq	%rax, -24(%rbp)
	.loc	7 3195 62
	jmp	LBB15_17
LBB15_5:
	.loc	7 0 62
	movq	-48(%rbp), %rax
	.loc	7 3193 24 is_stmt 1
	movq	(%rax), %rax
	movq	%rax, -80(%rbp)
LBB15_6:
	.loc	7 0 24 is_stmt 0
	movq	-80(%rbp), %rax
	movq	-48(%rbp), %rcx
	movq	-56(%rbp), %rsi
	.loc	7 3193 24
	movq	%rax, %rdx
	orq	%rsi, %rdx
	lock		cmpxchgq	%rdx, (%rcx)
	sete	%cl
	movq	%rax, -88(%rbp)
	testb	$1, %cl
	movq	%rax, -80(%rbp)
	jne	LBB15_7
	jmp	LBB15_6
LBB15_7:
	.loc	7 0 24
	movq	-88(%rbp), %rax
	.loc	7 3193 24
	movq	%rax, -24(%rbp)
	.loc	7 3193 62
	jmp	LBB15_17
LBB15_8:
	.loc	7 0 62
	movq	-48(%rbp), %rax
	.loc	7 3192 24 is_stmt 1
	movq	(%rax), %rax
	movq	%rax, -96(%rbp)
LBB15_9:
	.loc	7 0 24 is_stmt 0
	movq	-96(%rbp), %rax
	movq	-48(%rbp), %rcx
	movq	-56(%rbp), %rsi
	.loc	7 3192 24
	movq	%rax, %rdx
	orq	%rsi, %rdx
	lock		cmpxchgq	%rdx, (%rcx)
	sete	%cl
	movq	%rax, -104(%rbp)
	testb	$1, %cl
	movq	%rax, -96(%rbp)
	jne	LBB15_10
	jmp	LBB15_9
LBB15_10:
	.loc	7 0 24
	movq	-104(%rbp), %rax
	.loc	7 3192 24
	movq	%rax, -24(%rbp)
	.loc	7 3192 62
	jmp	LBB15_17
LBB15_11:
	.loc	7 0 62
	movq	-48(%rbp), %rax
	.loc	7 3194 23 is_stmt 1
	movq	(%rax), %rax
	movq	%rax, -112(%rbp)
LBB15_12:
	.loc	7 0 23 is_stmt 0
	movq	-112(%rbp), %rax
	movq	-48(%rbp), %rcx
	movq	-56(%rbp), %rsi
	.loc	7 3194 23
	movq	%rax, %rdx
	orq	%rsi, %rdx
	lock		cmpxchgq	%rdx, (%rcx)
	sete	%cl
	movq	%rax, -120(%rbp)
	testb	$1, %cl
	movq	%rax, -112(%rbp)
	jne	LBB15_13
	jmp	LBB15_12
LBB15_13:
	.loc	7 0 23
	movq	-120(%rbp), %rax
	.loc	7 3194 23
	movq	%rax, -24(%rbp)
	.loc	7 3194 60
	jmp	LBB15_17
LBB15_14:
	.loc	7 0 60
	movq	-48(%rbp), %rax
	.loc	7 3191 23 is_stmt 1
	movq	(%rax), %rax
	movq	%rax, -128(%rbp)
LBB15_15:
	.loc	7 0 23 is_stmt 0
	movq	-128(%rbp), %rax
	movq	-48(%rbp), %rcx
	movq	-56(%rbp), %rsi
	.loc	7 3191 23
	movq	%rax, %rdx
	orq	%rsi, %rdx
	lock		cmpxchgq	%rdx, (%rcx)
	sete	%cl
	movq	%rax, -136(%rbp)
	testb	$1, %cl
	movq	%rax, -128(%rbp)
	jne	LBB15_16
	jmp	LBB15_15
LBB15_16:
	.loc	7 0 23
	movq	-136(%rbp), %rax
	.loc	7 3191 23
	movq	%rax, -24(%rbp)
LBB15_17:
	.loc	7 3198 2 is_stmt 1
	movq	-24(%rbp), %rax
	addq	$136, %rsp
	popq	%rbp
	retq
Ltmp43:
Lfunc_end15:
	.cfi_endproc
	.p2align	2, 0x90
	.data_region jt32
.set L15_0_set_2, LBB15_2-LJTI15_0
.set L15_0_set_5, LBB15_5-LJTI15_0
.set L15_0_set_8, LBB15_8-LJTI15_0
.set L15_0_set_11, LBB15_11-LJTI15_0
.set L15_0_set_14, LBB15_14-LJTI15_0
LJTI15_0:
	.long	L15_0_set_2
	.long	L15_0_set_5
	.long	L15_0_set_8
	.long	L15_0_set_11
	.long	L15_0_set_14
	.end_data_region

	.p2align	4, 0x90
__ZN4core4task4wake5Waker11wake_by_ref17hbd7595dabe3815adE:
Lfunc_begin16:
	.file	9 "/rustc/2c8cc343237b8f7d5a3c3703e3a87f2eb2c54a74/library/core/src/task" "wake.rs"
	.loc	9 290 0
	.cfi_startproc
	pushq	%rbp
	.cfi_def_cfa_offset 16
	.cfi_offset %rbp, -16
	movq	%rsp, %rbp
	.cfi_def_cfa_register %rbp
	subq	$16, %rsp
	movq	%rdi, -8(%rbp)
Ltmp44:
	.loc	9 295 18 prologue_end
	movq	8(%rdi), %rax
	movq	16(%rax), %rax
	.loc	9 295 50 is_stmt 0
	movq	(%rdi), %rdi
	.loc	9 295 18
	callq	*%rax
	.loc	9 296 6 is_stmt 1
	addq	$16, %rsp
	popq	%rbp
	retq
Ltmp45:
Lfunc_end16:
	.cfi_endproc

	.p2align	4, 0x90
__ZN4core4task4wake5Waker4wake17hd397d901e3862351E:
Lfunc_begin17:
	.loc	9 268 0
	.cfi_startproc
	pushq	%rbp
	.cfi_def_cfa_offset 16
	.cfi_offset %rbp, -16
	movq	%rsp, %rbp
	.cfi_def_cfa_register %rbp
	subq	$32, %rsp
	movq	%rdi, -32(%rbp)
	movq	%rsi, -24(%rbp)
Ltmp46:
	.loc	9 271 20 prologue_end
	movq	-24(%rbp), %rax
	movq	8(%rax), %rax
	movq	%rax, -16(%rbp)
Ltmp47:
	.loc	9 272 20
	movq	-32(%rbp), %rdi
	movq	%rdi, -8(%rbp)
Ltmp48:
	.loc	9 280 18
	callq	*%rax
Ltmp49:
	.loc	9 281 6
	addq	$32, %rsp
	popq	%rbp
	retq
Ltmp50:
Lfunc_end17:
	.cfi_endproc

	.globl	__ZN4core6option15Option$LT$T$GT$4take17h5eaee58db11ffc06E
	.p2align	4, 0x90
__ZN4core6option15Option$LT$T$GT$4take17h5eaee58db11ffc06E:
Lfunc_begin18:
	.file	10 "/rustc/2c8cc343237b8f7d5a3c3703e3a87f2eb2c54a74/library/core/src" "option.rs"
	.loc	10 1621 0
	.cfi_startproc
	pushq	%rbp
	.cfi_def_cfa_offset 16
	.cfi_offset %rbp, -16
	movq	%rsp, %rbp
	.cfi_def_cfa_register %rbp
	subq	$32, %rsp
	movq	%rdi, -8(%rbp)
Ltmp51:
	.loc	10 1623 28 prologue_end
	movq	$0, -16(%rbp)
	.loc	10 1623 9 is_stmt 0
	movq	-24(%rbp), %rsi
	movq	-16(%rbp), %rdx
	callq	__ZN4core3mem7replace17h1b9a9406a2606322E
	.loc	10 1624 6 is_stmt 1
	addq	$32, %rsp
	popq	%rbp
	retq
Ltmp52:
Lfunc_end18:
	.cfi_endproc

	.globl	__ZN4core6option15Option$LT$T$GT$6unwrap17h52a0a52736e1994bE
	.p2align	4, 0x90
__ZN4core6option15Option$LT$T$GT$6unwrap17h52a0a52736e1994bE:
Lfunc_begin19:
	.loc	10 820 0
	.cfi_startproc
	pushq	%rbp
	.cfi_def_cfa_offset 16
	.cfi_offset %rbp, -16
	movq	%rsp, %rbp
	.cfi_def_cfa_register %rbp
	subq	$48, %rsp
	movq	%rdx, -40(%rbp)
	movq	%rdi, -32(%rbp)
	movq	%rsi, -24(%rbp)
Ltmp53:
	.loc	10 821 15 prologue_end
	movq	-24(%rbp), %rdx
	movl	$1, %eax
	xorl	%ecx, %ecx
	cmpq	$0, %rdx
	cmoveq	%rcx, %rax
	.loc	10 821 9 is_stmt 0
	cmpq	$0, %rax
	jne	LBB19_2
	.loc	10 0 9
	movq	-40(%rbp), %rdx
	.loc	10 823 21 is_stmt 1
	leaq	l___unnamed_9(%rip), %rdi
	movl	$43, %esi
	callq	__ZN4core9panicking5panic17hc1bc45270cf64b03E
LBB19_2:
	.loc	10 822 18
	movq	-32(%rbp), %rax
	movq	-24(%rbp), %rdx
	movq	%rax, -16(%rbp)
	movq	%rdx, -8(%rbp)
	.loc	10 825 6
	addq	$48, %rsp
	popq	%rbp
	retq
Ltmp54:
Lfunc_end19:
	.cfi_endproc

	.globl	__ZN4core6result19Result$LT$T$C$E$GT$14unwrap_or_else17h54ebafec0d8ad57bE
	.p2align	4, 0x90
__ZN4core6result19Result$LT$T$C$E$GT$14unwrap_or_else17h54ebafec0d8ad57bE:
Lfunc_begin20:
	.file	11 "/rustc/2c8cc343237b8f7d5a3c3703e3a87f2eb2c54a74/library/core/src" "result.rs"
	.loc	11 1500 0
	.cfi_startproc
	pushq	%rbp
	.cfi_def_cfa_offset 16
	.cfi_offset %rbp, -16
	movq	%rsp, %rbp
	.cfi_def_cfa_register %rbp
	subq	$64, %rsp
	movq	%rdi, -64(%rbp)
	movq	%rsi, -56(%rbp)
Ltmp55:
	.loc	11 1501 15 prologue_end
	movb	$1, -25(%rbp)
	.loc	11 1501 9 is_stmt 0
	cmpq	$0, -64(%rbp)
	jne	LBB20_2
	.loc	11 1502 16 is_stmt 1
	movq	-56(%rbp), %rax
	movq	%rax, -8(%rbp)
Ltmp56:
	.loc	11 1502 22 is_stmt 0
	movq	%rax, -48(%rbp)
Ltmp57:
	.loc	11 1502 22
	jmp	LBB20_3
LBB20_2:
	.loc	11 1503 17 is_stmt 1
	movq	-56(%rbp), %rax
	movq	%rax, -16(%rbp)
Ltmp58:
	.loc	11 1503 23 is_stmt 0
	movb	$0, -25(%rbp)
	movq	%rax, -40(%rbp)
	movq	-40(%rbp), %rdi
	callq	__ZN12futures_core4task10__internal12atomic_waker11AtomicWaker8register28_$u7b$$u7b$closure$u7d$$u7d$17hbb7d40866218a9ebE
	movq	%rax, -48(%rbp)
Ltmp59:
LBB20_3:
	.loc	11 1505 5 is_stmt 1
	testb	$1, -25(%rbp)
	jne	LBB20_5
LBB20_4:
	.loc	11 1505 6 is_stmt 0
	movq	-48(%rbp), %rax
	addq	$64, %rsp
	popq	%rbp
	retq
LBB20_5:
	.loc	11 1505 5
	jmp	LBB20_4
Ltmp60:
Lfunc_end20:
	.cfi_endproc

	.globl	__ZN4core9panicking13assert_failed17hfe459dd0289cad8aE
	.p2align	4, 0x90
__ZN4core9panicking13assert_failed17hfe459dd0289cad8aE:
Lfunc_begin21:
	.file	12 "/rustc/2c8cc343237b8f7d5a3c3703e3a87f2eb2c54a74/library/core/src" "panicking.rs"
	.loc	12 202 0 is_stmt 1
	.cfi_startproc
	pushq	%rbp
	.cfi_def_cfa_offset 16
	.cfi_offset %rbp, -16
	movq	%rsp, %rbp
	.cfi_def_cfa_register %rbp
	subq	$96, %rsp
	movq	%rcx, -80(%rbp)
Ltmp61:
	movq	%rdx, %rcx
	movq	-80(%rbp), %rdx
	movb	%dil, %al
	movq	%rsi, -72(%rbp)
	movq	%rcx, -64(%rbp)
	movb	%al, -1(%rbp)
Ltmp62:
	.loc	12 212 46 prologue_end
	movq	40(%rdx), %rcx
	movq	%rcx, -16(%rbp)
	movq	32(%rdx), %rcx
	movq	%rcx, -24(%rbp)
	movq	24(%rdx), %rcx
	movq	%rcx, -32(%rbp)
	movq	16(%rdx), %rcx
	movq	%rcx, -40(%rbp)
	movq	(%rdx), %rcx
	movq	8(%rdx), %rdx
	movq	%rdx, -48(%rbp)
	movq	%rcx, -56(%rbp)
	.loc	12 212 5 is_stmt 0
	movq	%rsp, %rcx
	movq	%r8, (%rcx)
	movzbl	%al, %edi
	leaq	l___unnamed_1(%rip), %r8
	leaq	-72(%rbp), %rsi
	leaq	-64(%rbp), %rcx
	leaq	-56(%rbp), %r9
	movq	%r8, %rdx
	callq	__ZN4core9panicking19assert_failed_inner17hccca5a268c0d7621E
Ltmp63:
Lfunc_end21:
	.cfi_endproc

	.p2align	4, 0x90
__ZN62_$LT$core..task..wake..Waker$u20$as$u20$core..clone..Clone$GT$5clone17h282d27d750a97db1E:
Lfunc_begin22:
	.loc	9 337 0 is_stmt 1
	.cfi_startproc
	pushq	%rbp
	.cfi_def_cfa_offset 16
	.cfi_offset %rbp, -16
	movq	%rsp, %rbp
	.cfi_def_cfa_register %rbp
	subq	$32, %rsp
	movq	%rdi, %rax
	movq	%rax, -8(%rbp)
Ltmp64:
	.loc	9 342 55 prologue_end
	movq	(%rax), %rdi
	.loc	9 342 29 is_stmt 0
	movq	8(%rax), %rax
	movq	(%rax), %rax
	callq	*%rax
	.loc	9 338 9 is_stmt 1
	movq	%rax, -24(%rbp)
	movq	%rdx, -16(%rbp)
	.loc	9 344 6
	movq	-24(%rbp), %rax
	movq	-16(%rbp), %rdx
	addq	$32, %rsp
	popq	%rbp
	retq
Ltmp65:
Lfunc_end22:
	.cfi_endproc

	.p2align	4, 0x90
__ZN65_$LT$core..task..wake..Waker$u20$as$u20$core..ops..drop..Drop$GT$4drop17h07ab0692a3b247c9E:
Lfunc_begin23:
	.loc	9 350 0
	.cfi_startproc
	pushq	%rbp
	.cfi_def_cfa_offset 16
	.cfi_offset %rbp, -16
	movq	%rsp, %rbp
	.cfi_def_cfa_register %rbp
	subq	$16, %rsp
	movq	%rdi, -8(%rbp)
Ltmp66:
	.loc	9 354 18 prologue_end
	movq	8(%rdi), %rax
	movq	24(%rax), %rax
	.loc	9 354 43 is_stmt 0
	movq	(%rdi), %rdi
	.loc	9 354 18
	callq	*%rax
	.loc	9 355 6 is_stmt 1
	addq	$16, %rsp
	popq	%rbp
	retq
Ltmp67:
Lfunc_end23:
	.cfi_endproc

	.globl	__ZN12futures_core4task10__internal12atomic_waker11AtomicWaker3new17h295af804d69fb63bE
	.p2align	4, 0x90
__ZN12futures_core4task10__internal12atomic_waker11AtomicWaker3new17h295af804d69fb63bE:
Lfunc_begin24:
	.file	13 "/Users/natalie/.cargo/registry/src/github.com-1ecc6299db9ec823/futures-core-0.3.25" "src/task/__internal/atomic_waker.rs"
	.loc	13 200 0
	.cfi_startproc
	pushq	%rbp
	.cfi_def_cfa_offset 16
	.cfi_offset %rbp, -16
	movq	%rsp, %rbp
	.cfi_def_cfa_register %rbp
	subq	$80, %rsp
	movq	%rdi, -80(%rbp)
	movq	%rdi, -72(%rbp)
	xorl	%eax, %eax
	movl	%eax, %edi
Ltmp68:
	.loc	13 205 23 prologue_end
	callq	__ZN4core4sync6atomic11AtomicUsize3new17h1f79c17f0be1cdcbE
	movq	-80(%rbp), %rdi
	movq	%rax, %rcx
	movq	-72(%rbp), %rax
	movq	%rcx, -40(%rbp)
	movq	-40(%rbp), %rcx
	movq	%rcx, -64(%rbp)
	.loc	13 205 73 is_stmt 0
	movq	$0, -48(%rbp)
	.loc	13 205 57
	movq	-56(%rbp), %rdx
	movq	-48(%rbp), %rcx
	movq	%rdx, -16(%rbp)
	movq	%rcx, -8(%rbp)
Ltmp69:
	.loc	8 1953 9 is_stmt 1
	movq	%rdx, -32(%rbp)
	movq	%rcx, -24(%rbp)
	.loc	8 1954 6
	movq	-32(%rbp), %rdx
	movq	-24(%rbp), %rcx
Ltmp70:
	.loc	13 205 9
	movq	-64(%rbp), %rsi
	movq	%rsi, 16(%rdi)
	movq	%rdx, (%rdi)
	movq	%rcx, 8(%rdi)
	.loc	13 206 6
	addq	$80, %rsp
	popq	%rbp
	retq
Ltmp71:
Lfunc_end24:
	.cfi_endproc

	.globl	__ZN12futures_core4task10__internal12atomic_waker11AtomicWaker8register17h1ffa94ce2597cd64E
	.p2align	4, 0x90
__ZN12futures_core4task10__internal12atomic_waker11AtomicWaker8register17h1ffa94ce2597cd64E:
Lfunc_begin25:
	.loc	13 258 0
	.cfi_startproc
	.cfi_personality 155, _rust_eh_personality
	.cfi_lsda 16, Lexception0
	pushq	%rbp
	.cfi_def_cfa_offset 16
	.cfi_offset %rbp, -16
	movq	%rsp, %rbp
	.cfi_def_cfa_register %rbp
	subq	$272, %rsp
	movq	%rdi, -248(%rbp)
	movq	%rsi, -240(%rbp)
	movq	%rdi, -72(%rbp)
	movq	%rsi, -64(%rbp)
Ltmp85:
	.loc	13 259 15 prologue_end
	movb	$0, -73(%rbp)
	movb	$0, -74(%rbp)
	addq	$16, %rdi
	.loc	13 261 53
	movb	$2, -218(%rbp)
	.loc	13 261 62 is_stmt 0
	movb	$2, -217(%rbp)
	.loc	13 259 15 is_stmt 1
	movzbl	-217(%rbp), %r8d
	movzbl	-218(%rbp), %ecx
	xorl	%eax, %eax
	movl	%eax, %esi
	movl	$1, %edx
	callq	__ZN4core4sync6atomic11AtomicUsize16compare_exchange17h45d7fc73872d8c4cE
	movq	%rax, %rdi
	movq	%rdx, %rsi
	callq	__ZN4core6result19Result$LT$T$C$E$GT$14unwrap_or_else17h54ebafec0d8ad57bE
	movq	%rax, %rcx
	movq	%rcx, -232(%rbp)
	.loc	13 259 9 is_stmt 0
	testq	%rax, %rax
	je	LBB25_2
	jmp	LBB25_25
LBB25_25:
	.loc	13 0 9
	movq	-232(%rbp), %rax
	.loc	13 259 9
	subq	$2, %rax
	je	LBB25_3
	jmp	LBB25_1
LBB25_1:
	.loc	13 0 9
	movq	-232(%rbp), %rax
	.loc	13 332 13 is_stmt 1
	movq	%rax, -56(%rbp)
Ltmp86:
	.loc	13 343 31
	cmpq	$1, %rax
	je	LBB25_5
	jmp	LBB25_4
Ltmp87:
LBB25_2:
	.loc	13 0 31 is_stmt 0
	movq	-240(%rbp), %rdi
	.loc	13 267 46 is_stmt 1
	callq	__ZN62_$LT$core..task..wake..Waker$u20$as$u20$core..clone..Clone$GT$5clone17h282d27d750a97db1E
	movq	%rax, %rcx
	movq	-248(%rbp), %rax
	.loc	13 267 41 is_stmt 0
	movb	$1, -73(%rbp)
	movq	%rcx, -216(%rbp)
	movq	%rdx, -208(%rbp)
	movq	%rax, -8(%rbp)
Ltmp88:
	.loc	8 2000 6 is_stmt 1
	jmp	LBB25_10
Ltmp89:
LBB25_3:
	.loc	8 0 6 is_stmt 0
	movq	-240(%rbp), %rdi
	.loc	13 330 17 is_stmt 1
	callq	__ZN4core4task4wake5Waker11wake_by_ref17hbd7595dabe3815adE
	jmp	LBB25_7
LBB25_4:
	.loc	13 0 17 is_stmt 0
	movq	-232(%rbp), %rax
Ltmp90:
	.loc	13 343 55 is_stmt 1
	cmpq	$3, %rax
	sete	%al
	.loc	13 343 31 is_stmt 0
	andb	$1, %al
	movb	%al, -75(%rbp)
	jmp	LBB25_6
LBB25_5:
	movb	$1, -75(%rbp)
LBB25_6:
	.loc	13 343 17
	movb	-75(%rbp), %al
	xorb	$-1, %al
	testb	$1, %al
	jne	LBB25_8
Ltmp91:
LBB25_7:
	.loc	13 346 6 is_stmt 1
	addq	$272, %rsp
	popq	%rbp
	retq
LBB25_8:
Ltmp92:
	.loc	13 343 17
	leaq	l___unnamed_10(%rip), %rdi
	leaq	l___unnamed_11(%rip), %rdx
	movl	$71, %esi
	callq	__ZN4core9panicking5panic17hc1bc45270cf64b03E
Ltmp93:
LBB25_9:
	.loc	13 267 59
	testb	$1, -73(%rbp)
	jne	LBB25_15
	jmp	LBB25_14
LBB25_10:
	.loc	13 0 59 is_stmt 0
	movq	-248(%rbp), %rdi
	.loc	13 267 21
	movb	$0, -73(%rbp)
Ltmp72:
	callq	__ZN4core3ptr72drop_in_place$LT$core..option..Option$LT$core..task..wake..Waker$GT$$GT$17hfd84fb1a00780cceE
Ltmp73:
	jmp	LBB25_13
LBB25_11:
	.loc	13 0 21
	movq	-248(%rbp), %rax
	.loc	13 267 21
	movq	-216(%rbp), %rdx
	movq	-208(%rbp), %rcx
	movq	%rdx, (%rax)
	movq	%rcx, 8(%rax)
	jmp	LBB25_9
LBB25_12:
Ltmp74:
	.loc	13 0 21
	movq	%rax, %rcx
	movl	%edx, %eax
	movq	%rcx, -48(%rbp)
	movl	%eax, -40(%rbp)
	jmp	LBB25_11
LBB25_13:
	movq	-248(%rbp), %rdi
	.loc	13 267 21
	movq	-216(%rbp), %rcx
	movq	-208(%rbp), %rax
	movq	%rcx, (%rdi)
	movq	%rax, 8(%rdi)
	.loc	13 267 59
	movb	$0, -73(%rbp)
	.loc	13 279 31 is_stmt 1
	addq	$16, %rdi
	.loc	13 279 81 is_stmt 0
	movb	$3, -178(%rbp)
	.loc	13 279 89
	movb	$2, -177(%rbp)
	.loc	13 279 31
	movzbl	-177(%rbp), %r8d
	movzbl	-178(%rbp), %ecx
	xorl	%eax, %eax
	movl	%eax, %edx
	movl	$1, %esi
	callq	__ZN4core4sync6atomic11AtomicUsize16compare_exchange17h45d7fc73872d8c4cE
	movq	%rdx, -192(%rbp)
	movq	%rax, -200(%rbp)
Ltmp94:
	.loc	13 281 21 is_stmt 1
	cmpq	$0, -200(%rbp)
	je	LBB25_7
	jmp	LBB25_17
Ltmp95:
LBB25_14:
	.loc	13 258 5
	movq	-48(%rbp), %rdi
	callq	__Unwind_Resume
LBB25_15:
Ltmp75:
	.loc	13 0 5 is_stmt 0
	leaq	-216(%rbp), %rdi
	.loc	13 267 59 is_stmt 1
	callq	__ZN4core3ptr72drop_in_place$LT$core..option..Option$LT$core..task..wake..Waker$GT$$GT$17hfd84fb1a00780cceE
Ltmp76:
	jmp	LBB25_14
LBB25_16:
Ltmp84:
	.loc	13 258 5
	callq	__ZN4core9panicking19panic_cannot_unwind17h1fbca7e1d7f56ae1E
LBB25_17:
Ltmp96:
	.loc	13 289 29
	movq	-192(%rbp), %rax
	movq	%rax, -176(%rbp)
Ltmp97:
	.loc	13 294 29
	leaq	-176(%rbp), %rax
	movq	%rax, -168(%rbp)
	leaq	L___unnamed_12(%rip), %rax
	movq	%rax, -160(%rbp)
	movq	-168(%rbp), %rax
	movq	%rax, -264(%rbp)
	movq	%rax, -32(%rbp)
	movq	-160(%rbp), %rcx
	movq	%rcx, -256(%rbp)
	movq	%rcx, -24(%rbp)
Ltmp98:
	.loc	13 294 29 is_stmt 0
	cmpq	$3, (%rax)
	sete	%al
	xorb	$-1, %al
	testb	$1, %al
	jne	LBB25_19
Ltmp99:
	.loc	13 0 29
	movq	-248(%rbp), %rdi
	movq	%rdi, -16(%rbp)
	.loc	13 298 41 is_stmt 1
	callq	__ZN4core6option15Option$LT$T$GT$4take17h5eaee58db11ffc06E
	movq	%rax, %rdi
	movq	%rdx, %rsi
	leaq	l___unnamed_13(%rip), %rdx
	callq	__ZN4core6option15Option$LT$T$GT$6unwrap17h52a0a52736e1994bE
	movq	-248(%rbp), %rdi
	movq	%rdx, -88(%rbp)
	movq	%rax, -96(%rbp)
	.loc	13 298 75 is_stmt 0
	movb	$1, -74(%rbp)
Ltmp100:
	.loc	13 304 29 is_stmt 1
	addq	$16, %rdi
	.loc	13 304 54 is_stmt 0
	movb	$3, -76(%rbp)
	.loc	13 304 29
	movzbl	-76(%rbp), %edx
Ltmp77:
	xorl	%eax, %eax
	movl	%eax, %esi
	callq	__ZN4core4sync6atomic11AtomicUsize4swap17hf15772fca7957c65E
Ltmp78:
	jmp	LBB25_22
Ltmp101:
LBB25_19:
	.loc	13 0 29
	movq	-256(%rbp), %rdx
	movq	-264(%rbp), %rsi
Ltmp102:
	.loc	13 294 29 is_stmt 1
	movb	$0, -145(%rbp)
Ltmp103:
	.loc	13 294 29 is_stmt 0
	movq	$0, -128(%rbp)
	leaq	l___unnamed_14(%rip), %r8
	xorl	%edi, %edi
	leaq	-144(%rbp), %rcx
	callq	__ZN4core9panicking13assert_failed17hfe459dd0289cad8aE
Ltmp104:
LBB25_20:
	.loc	13 314 25 is_stmt 1
	testb	$1, -74(%rbp)
	jne	LBB25_24
	jmp	LBB25_14
LBB25_21:
Ltmp81:
	.loc	13 0 25 is_stmt 0
	movq	%rax, %rcx
	movl	%edx, %eax
	movq	%rcx, -48(%rbp)
	movl	%eax, -40(%rbp)
	jmp	LBB25_20
LBB25_22:
Ltmp105:
	.loc	13 313 29 is_stmt 1
	movb	$0, -74(%rbp)
	movq	-96(%rbp), %rdi
	movq	-88(%rbp), %rsi
Ltmp79:
	callq	__ZN4core4task4wake5Waker4wake17hd397d901e3862351E
Ltmp80:
	jmp	LBB25_23
Ltmp106:
LBB25_23:
	.loc	13 314 25
	movb	$0, -74(%rbp)
Ltmp107:
	.loc	13 314 25 is_stmt 0
	jmp	LBB25_7
LBB25_24:
Ltmp82:
	.loc	13 0 25
	leaq	-96(%rbp), %rdi
Ltmp108:
	.loc	13 314 25
	callq	__ZN4core3ptr44drop_in_place$LT$core..task..wake..Waker$GT$17h5eab3db7c153ad20E
Ltmp83:
	jmp	LBB25_14
Ltmp109:
Lfunc_end25:
	.cfi_endproc
	.section	__TEXT,__gcc_except_tab
	.p2align	2
GCC_except_table25:
Lexception0:
	.byte	255
	.byte	255
	.byte	1
	.uleb128 Lcst_end0-Lcst_begin0
Lcst_begin0:
	.uleb128 Lfunc_begin25-Lfunc_begin25
	.uleb128 Ltmp72-Lfunc_begin25
	.byte	0
	.byte	0
	.uleb128 Ltmp72-Lfunc_begin25
	.uleb128 Ltmp73-Ltmp72
	.uleb128 Ltmp74-Lfunc_begin25
	.byte	0
	.uleb128 Ltmp73-Lfunc_begin25
	.uleb128 Ltmp75-Ltmp73
	.byte	0
	.byte	0
	.uleb128 Ltmp75-Lfunc_begin25
	.uleb128 Ltmp76-Ltmp75
	.uleb128 Ltmp84-Lfunc_begin25
	.byte	0
	.uleb128 Ltmp76-Lfunc_begin25
	.uleb128 Ltmp77-Ltmp76
	.byte	0
	.byte	0
	.uleb128 Ltmp77-Lfunc_begin25
	.uleb128 Ltmp78-Ltmp77
	.uleb128 Ltmp81-Lfunc_begin25
	.byte	0
	.uleb128 Ltmp78-Lfunc_begin25
	.uleb128 Ltmp79-Ltmp78
	.byte	0
	.byte	0
	.uleb128 Ltmp79-Lfunc_begin25
	.uleb128 Ltmp80-Ltmp79
	.uleb128 Ltmp81-Lfunc_begin25
	.byte	0
	.uleb128 Ltmp82-Lfunc_begin25
	.uleb128 Ltmp83-Ltmp82
	.uleb128 Ltmp84-Lfunc_begin25
	.byte	0
Lcst_end0:
	.p2align	2

	.section	__TEXT,__text,regular,pure_instructions
	.p2align	4, 0x90
__ZN12futures_core4task10__internal12atomic_waker11AtomicWaker8register28_$u7b$$u7b$closure$u7d$$u7d$17hbb7d40866218a9ebE:
Lfunc_begin26:
	.loc	13 262 0 is_stmt 1
	.cfi_startproc
	pushq	%rbp
	.cfi_def_cfa_offset 16
	.cfi_offset %rbp, -16
	movq	%rsp, %rbp
	.cfi_def_cfa_register %rbp
	subq	$16, %rsp
	movq	%rdi, %rax
	movq	%rax, -8(%rbp)
Ltmp110:
	.loc	13 262 34 prologue_end
	addq	$16, %rsp
	popq	%rbp
	retq
Ltmp111:
Lfunc_end26:
	.cfi_endproc

	.globl	__ZN12futures_core4task10__internal12atomic_waker11AtomicWaker4wake17h6698fccf195b13a5E
	.p2align	4, 0x90
__ZN12futures_core4task10__internal12atomic_waker11AtomicWaker4wake17h6698fccf195b13a5E:
Lfunc_begin27:
	.loc	13 351 0
	.cfi_startproc
	pushq	%rbp
	.cfi_def_cfa_offset 16
	.cfi_offset %rbp, -16
	movq	%rsp, %rbp
	.cfi_def_cfa_register %rbp
	subq	$48, %rsp
	movq	%rdi, -24(%rbp)
Ltmp112:
	.loc	13 352 30 prologue_end
	movb	$0, -25(%rbp)
	movb	$1, -25(%rbp)
	callq	__ZN12futures_core4task10__internal12atomic_waker11AtomicWaker4take17hc9bfdb80b05cc41dE
	movq	%rdx, -40(%rbp)
	movq	%rax, -48(%rbp)
	.loc	13 352 16 is_stmt 0
	movq	-40(%rbp), %rdx
	movl	$1, %eax
	xorl	%ecx, %ecx
	cmpq	$0, %rdx
	cmoveq	%rcx, %rax
	cmpq	$1, %rax
	jne	LBB27_2
	.loc	13 352 21
	movb	$0, -25(%rbp)
	movq	-48(%rbp), %rdi
	movq	-40(%rbp), %rsi
	movq	%rdi, -16(%rbp)
	movq	%rsi, -8(%rbp)
	.loc	13 353 13 is_stmt 1
	callq	__ZN4core4task4wake5Waker4wake17hd397d901e3862351E
Ltmp113:
LBB27_2:
	.loc	13 355 5
	movq	-40(%rbp), %rdx
	movl	$1, %eax
	xorl	%ecx, %ecx
	cmpq	$0, %rdx
	cmoveq	%rcx, %rax
	cmpq	$1, %rax
	jne	LBB27_4
	testb	$1, -25(%rbp)
	jne	LBB27_5
LBB27_4:
	movb	$0, -25(%rbp)
	.loc	13 355 6 is_stmt 0
	addq	$48, %rsp
	popq	%rbp
	retq
LBB27_5:
	.loc	13 355 5
	leaq	-48(%rbp), %rdi
	callq	__ZN4core3ptr44drop_in_place$LT$core..task..wake..Waker$GT$17h5eab3db7c153ad20E
	jmp	LBB27_4
Ltmp114:
Lfunc_end27:
	.cfi_endproc

	.globl	__ZN12futures_core4task10__internal12atomic_waker11AtomicWaker4take17hc9bfdb80b05cc41dE
	.p2align	4, 0x90
__ZN12futures_core4task10__internal12atomic_waker11AtomicWaker4take17hc9bfdb80b05cc41dE:
Lfunc_begin28:
	.loc	13 365 0 is_stmt 1
	.cfi_startproc
	.cfi_personality 155, _rust_eh_personality
	.cfi_lsda 16, Lexception1
	pushq	%rbp
	.cfi_def_cfa_offset 16
	.cfi_offset %rbp, -16
	movq	%rsp, %rbp
	.cfi_def_cfa_register %rbp
	subq	$112, %rsp
	movq	%rdi, -104(%rbp)
	movq	%rdi, -40(%rbp)
Ltmp121:
	.loc	13 369 15 prologue_end
	addq	$16, %rdi
	.loc	13 369 43 is_stmt 0
	movb	$3, -65(%rbp)
	.loc	13 369 15
	movl	$2, %esi
	movzbl	-65(%rbp), %edx
	callq	__ZN4core4sync6atomic11AtomicUsize8fetch_or17h48c70ad082382c1eE
	movq	%rax, -96(%rbp)
	.loc	13 369 9
	cmpq	$0, %rax
	jne	LBB28_2
	.loc	13 0 9
	movq	-104(%rbp), %rdi
	movq	%rdi, -8(%rbp)
	.loc	13 372 38 is_stmt 1
	callq	__ZN4core6option15Option$LT$T$GT$4take17h5eaee58db11ffc06E
	movq	-104(%rbp), %rdi
	movq	%rdx, -56(%rbp)
	movq	%rax, -64(%rbp)
Ltmp122:
	.loc	13 375 17
	addq	$16, %rdi
	.loc	13 375 47 is_stmt 0
	movb	$1, -43(%rbp)
	.loc	13 375 17
	movzbl	-43(%rbp), %edx
Ltmp115:
	movq	$-3, %rsi
	callq	__ZN4core4sync6atomic11AtomicUsize9fetch_and17h0ca88538d46d5b7eE
Ltmp116:
	jmp	LBB28_14
Ltmp123:
LBB28_2:
	.loc	13 0 17
	movq	-96(%rbp), %rax
	.loc	13 379 13 is_stmt 1
	movq	%rax, -32(%rbp)
Ltmp124:
	.loc	13 388 21
	cmpq	$1, %rax
	je	LBB28_4
	.loc	13 0 21 is_stmt 0
	movq	-96(%rbp), %rax
	.loc	13 388 45
	cmpq	$3, %rax
	sete	%al
	.loc	13 388 21
	andb	$1, %al
	movb	%al, -41(%rbp)
	jmp	LBB28_5
LBB28_4:
	movb	$1, -41(%rbp)
LBB28_5:
	testb	$1, -41(%rbp)
	jne	LBB28_7
	.loc	13 0 21
	movq	-96(%rbp), %rax
	.loc	13 388 78
	cmpq	$2, %rax
	sete	%al
	.loc	13 388 21
	andb	$1, %al
	movb	%al, -42(%rbp)
	jmp	LBB28_8
LBB28_7:
	movb	$1, -42(%rbp)
LBB28_8:
	.loc	13 387 17 is_stmt 1
	movb	-42(%rbp), %al
	xorb	$-1, %al
	testb	$1, %al
	jne	LBB28_10
	.loc	13 390 17
	movq	$0, -80(%rbp)
Ltmp125:
	.loc	13 391 13
	jmp	LBB28_11
LBB28_10:
Ltmp126:
	.loc	13 387 17
	leaq	l___unnamed_15(%rip), %rdi
	leaq	l___unnamed_16(%rip), %rdx
	movl	$90, %esi
	callq	__ZN4core9panicking5panic17hc1bc45270cf64b03E
Ltmp127:
LBB28_11:
	.loc	13 393 6
	movq	-88(%rbp), %rax
	movq	-80(%rbp), %rdx
	addq	$112, %rsp
	popq	%rbp
	retq
LBB28_12:
Ltmp118:
	.loc	13 0 6 is_stmt 0
	leaq	-64(%rbp), %rdi
	.loc	13 378 13 is_stmt 1
	callq	__ZN4core3ptr72drop_in_place$LT$core..option..Option$LT$core..task..wake..Waker$GT$$GT$17hfd84fb1a00780cceE
Ltmp119:
	jmp	LBB28_16
LBB28_13:
Ltmp117:
	.loc	13 0 13 is_stmt 0
	movq	%rax, %rcx
	movl	%edx, %eax
	movq	%rcx, -24(%rbp)
	movl	%eax, -16(%rbp)
	jmp	LBB28_12
LBB28_14:
Ltmp128:
	.loc	13 377 17 is_stmt 1
	movq	-64(%rbp), %rcx
	movq	-56(%rbp), %rax
	movq	%rcx, -88(%rbp)
	movq	%rax, -80(%rbp)
Ltmp129:
	.loc	13 378 13
	jmp	LBB28_11
LBB28_15:
Ltmp120:
	.loc	13 365 5
	callq	__ZN4core9panicking19panic_cannot_unwind17h1fbca7e1d7f56ae1E
LBB28_16:
	movq	-24(%rbp), %rdi
	callq	__Unwind_Resume
Ltmp130:
Lfunc_end28:
	.cfi_endproc
	.section	__TEXT,__gcc_except_tab
	.p2align	2
GCC_except_table28:
Lexception1:
	.byte	255
	.byte	255
	.byte	1
	.uleb128 Lcst_end1-Lcst_begin1
Lcst_begin1:
	.uleb128 Lfunc_begin28-Lfunc_begin28
	.uleb128 Ltmp115-Lfunc_begin28
	.byte	0
	.byte	0
	.uleb128 Ltmp115-Lfunc_begin28
	.uleb128 Ltmp116-Ltmp115
	.uleb128 Ltmp117-Lfunc_begin28
	.byte	0
	.uleb128 Ltmp116-Lfunc_begin28
	.uleb128 Ltmp118-Ltmp116
	.byte	0
	.byte	0
	.uleb128 Ltmp118-Lfunc_begin28
	.uleb128 Ltmp119-Ltmp118
	.uleb128 Ltmp120-Lfunc_begin28
	.byte	0
	.uleb128 Ltmp119-Lfunc_begin28
	.uleb128 Lfunc_end28-Ltmp119
	.byte	0
	.byte	0
Lcst_end1:
	.p2align	2

	.section	__TEXT,__text,regular,pure_instructions
	.globl	__ZN100_$LT$futures_core..task..__internal..atomic_waker..AtomicWaker$u20$as$u20$core..default..Default$GT$7default17h2b9b4d2c59611e54E
	.p2align	4, 0x90
__ZN100_$LT$futures_core..task..__internal..atomic_waker..AtomicWaker$u20$as$u20$core..default..Default$GT$7default17h2b9b4d2c59611e54E:
Lfunc_begin29:
	.loc	13 397 0
	.cfi_startproc
	pushq	%rbp
	.cfi_def_cfa_offset 16
	.cfi_offset %rbp, -16
	movq	%rsp, %rbp
	.cfi_def_cfa_register %rbp
	subq	$16, %rsp
	movq	%rdi, %rax
	movq	%rax, -8(%rbp)
Ltmp131:
	.loc	13 398 9 prologue_end
	callq	__ZN12futures_core4task10__internal12atomic_waker11AtomicWaker3new17h295af804d69fb63bE
	movq	-8(%rbp), %rax
	.loc	13 399 6
	addq	$16, %rsp
	popq	%rbp
	retq
Ltmp132:
Lfunc_end29:
	.cfi_endproc

	.globl	__ZN94_$LT$futures_core..task..__internal..atomic_waker..AtomicWaker$u20$as$u20$core..fmt..Debug$GT$3fmt17h08b24b21a7be7970E
	.p2align	4, 0x90
__ZN94_$LT$futures_core..task..__internal..atomic_waker..AtomicWaker$u20$as$u20$core..fmt..Debug$GT$3fmt17h08b24b21a7be7970E:
Lfunc_begin30:
	.loc	13 403 0
	.cfi_startproc
	pushq	%rbp
	.cfi_def_cfa_offset 16
	.cfi_offset %rbp, -16
	movq	%rsp, %rbp
	.cfi_def_cfa_register %rbp
	subq	$80, %rsp
	movq	%rsi, -72(%rbp)
	movq	%rdi, -16(%rbp)
	movq	%rsi, -8(%rbp)
Ltmp133:
	.loc	13 404 9 prologue_end
	leaq	-64(%rbp), %rdi
	leaq	l___unnamed_17(%rip), %rsi
	movl	$1, %edx
	leaq	l___unnamed_3(%rip), %rcx
	xorl	%eax, %eax
	movl	%eax, %r8d
	callq	__ZN4core3fmt9Arguments6new_v117h2274fa8631b41203E
	movq	-72(%rbp), %rdi
	leaq	-64(%rbp), %rsi
	callq	__ZN4core3fmt9Formatter9write_fmt17h9bb7721c944aee26E
	.loc	13 405 6
	andb	$1, %al
	movzbl	%al, %eax
	addq	$80, %rsp
	popq	%rbp
	retq
Ltmp134:
Lfunc_end30:
	.cfi_endproc

	.section	__TEXT,__const
l___unnamed_18:
	.ascii	"invalid args"

	.section	__DATA,__const
	.p2align	3
l___unnamed_2:
	.quad	l___unnamed_18
	.asciz	"\f\000\000\000\000\000\000"

	.section	__TEXT,__const
	.p2align	3
l___unnamed_3:
	.byte	0

l___unnamed_19:
	.ascii	"/rustc/2c8cc343237b8f7d5a3c3703e3a87f2eb2c54a74/library/core/src/fmt/mod.rs"

	.section	__DATA,__const
	.p2align	3
l___unnamed_4:
	.quad	l___unnamed_19
	.asciz	"K\000\000\000\000\000\000\000\221\001\000\000\r\000\000"

	.section	__TEXT,__const
l___unnamed_20:
	.ascii	"there is no such thing as an acquire-release failure ordering"

	.section	__DATA,__const
	.p2align	3
l___unnamed_7:
	.quad	l___unnamed_20
	.asciz	"=\000\000\000\000\000\000"

	.section	__TEXT,__const
l___unnamed_21:
	.ascii	"/rustc/2c8cc343237b8f7d5a3c3703e3a87f2eb2c54a74/library/core/src/sync/atomic.rs"

	.section	__DATA,__const
	.p2align	3
l___unnamed_8:
	.quad	l___unnamed_21
	.asciz	"O\000\000\000\000\000\000\000&\f\000\000\034\000\000"

	.section	__TEXT,__const
l___unnamed_22:
	.ascii	"there is no such thing as a release failure ordering"

	.section	__DATA,__const
	.p2align	3
l___unnamed_5:
	.quad	l___unnamed_22
	.asciz	"4\000\000\000\000\000\000"

	.p2align	3
l___unnamed_6:
	.quad	l___unnamed_21
	.asciz	"O\000\000\000\000\000\000\000'\f\000\000\035\000\000"

	.section	__TEXT,__const
l___unnamed_9:
	.ascii	"called `Option::unwrap()` on a `None` value"

	.section	__DATA,__const
	.p2align	3
l___unnamed_1:
	.quad	__ZN4core3ptr30drop_in_place$LT$$RF$usize$GT$17hb26c6b5444408a0eE
	.asciz	"\b\000\000\000\000\000\000\000\b\000\000\000\000\000\000"
	.quad	__ZN42_$LT$$RF$T$u20$as$u20$core..fmt..Debug$GT$3fmt17h5869db04750d2e8cE

	.section	__TEXT,__const
l___unnamed_10:
	.ascii	"assertion failed: state == REGISTERING || state == REGISTERING | WAKING"

l___unnamed_23:
	.ascii	"/Users/natalie/.cargo/registry/src/github.com-1ecc6299db9ec823/futures-core-0.3.25/src/task/__internal/atomic_waker.rs"

	.section	__DATA,__const
	.p2align	3
l___unnamed_11:
	.quad	l___unnamed_23
	.asciz	"v\000\000\000\000\000\000\000W\001\000\000\021\000\000"

	.section	__TEXT,__literal8,8byte_literals
	.p2align	3
L___unnamed_12:
	.asciz	"\003\000\000\000\000\000\000"

	.section	__DATA,__const
	.p2align	3
l___unnamed_14:
	.quad	l___unnamed_23
	.asciz	"v\000\000\000\000\000\000\000&\001\000\000\035\000\000"

	.p2align	3
l___unnamed_13:
	.quad	l___unnamed_23
	.asciz	"v\000\000\000\000\000\000\000*\001\000\000D\000\000"

	.section	__TEXT,__const
l___unnamed_15:
	.ascii	"assertion failed: state == REGISTERING || state == REGISTERING | WAKING || state == WAKING"

	.section	__DATA,__const
	.p2align	3
l___unnamed_16:
	.quad	l___unnamed_23
	.asciz	"v\000\000\000\000\000\000\000\203\001\000\000\021\000\000"

	.section	__TEXT,__const
l___unnamed_24:
	.ascii	"AtomicWaker"

	.section	__DATA,__const
	.p2align	3
l___unnamed_17:
	.quad	l___unnamed_24
	.asciz	"\013\000\000\000\000\000\000"

	.section	__DATA,__const
Lsec_end0:
	.section	__TEXT,__text,regular,pure_instructions
Lsec_end1: