	.section	__TEXT,__text,regular,pure_instructions
	.macosx_version_min 10, 7
	.file	1 "/Users/natalie/.cargo/registry/src/github.com-1ecc6299db9ec823/getrandom-0.2.8" "src/use_file.rs"
	.file	2 "/Users/natalie/.cargo/registry/src/github.com-1ecc6299db9ec823/getrandom-0.2.8" "src/macos.rs"
	.globl	__ZN106_$LT$core..ops..range..Range$LT$usize$GT$$u20$as$u20$core..slice..index..SliceIndex$LT$$u5b$T$u5d$$GT$$GT$13get_unchecked17h94cfdd5354f8ee24E
	.p2align	4, 0x90
__ZN106_$LT$core..ops..range..Range$LT$usize$GT$$u20$as$u20$core..slice..index..SliceIndex$LT$$u5b$T$u5d$$GT$$GT$13get_unchecked17h94cfdd5354f8ee24E:
Lfunc_begin0:
	.file	3 "/rustc/2c8cc343237b8f7d5a3c3703e3a87f2eb2c54a74/library/core/src/slice" "index.rs"
	.loc	3 373 0
	.cfi_startproc
	pushq	%rbp
	.cfi_def_cfa_offset 16
	.cfi_offset %rbp, -16
	movq	%rsp, %rbp
	.cfi_def_cfa_register %rbp
	subq	$160, %rsp
	movq	%rdi, -128(%rbp)
	movq	%rsi, -120(%rbp)
	movq	%rdx, -112(%rbp)
	movq	%rcx, -104(%rbp)
Ltmp0:
	.loc	3 386 39 prologue_end
	movq	%rdx, -96(%rbp)
	movq	%rcx, -88(%rbp)
Ltmp1:
	.file	4 "/rustc/2c8cc343237b8f7d5a3c3703e3a87f2eb2c54a74/library/core/src/ptr" "const_ptr.rs"
	.loc	4 1650 9
	movq	%rdx, -80(%rbp)
Ltmp2:
	.loc	3 386 58
	movq	%rdi, -72(%rbp)
Ltmp3:
	.loc	4 932 18
	movq	%rdx, -64(%rbp)
	.loc	4 932 30 is_stmt 0
	movq	%rdi, -56(%rbp)
Ltmp4:
	.loc	4 473 18 is_stmt 1
	addq	%rdi, %rdx
	movq	%rdx, -48(%rbp)
	movq	-48(%rbp), %rax
	movq	%rax, -40(%rbp)
Ltmp5:
	.loc	3 386 71
	subq	%rdi, %rsi
	movq	%rsi, -32(%rbp)
Ltmp6:
	.file	5 "/rustc/2c8cc343237b8f7d5a3c3703e3a87f2eb2c54a74/library/core/src/ptr" "mod.rs"
	.loc	5 734 20
	movq	%rax, -24(%rbp)
Ltmp7:
	.loc	4 61 9
	movq	%rax, -16(%rbp)
Ltmp8:
	.loc	5 734 33
	movq	%rsi, -8(%rbp)
Ltmp9:
	.file	6 "/rustc/2c8cc343237b8f7d5a3c3703e3a87f2eb2c54a74/library/core/src/ptr" "metadata.rs"
	.loc	6 118 36
	movq	%rax, -144(%rbp)
	movq	%rsi, -136(%rbp)
	.loc	6 118 14 is_stmt 0
	movq	-144(%rbp), %rcx
	movq	-136(%rbp), %rax
	movq	%rcx, -160(%rbp)
	movq	%rax, -152(%rbp)
	movq	-160(%rbp), %rax
	movq	-152(%rbp), %rdx
Ltmp10:
	.loc	3 388 6 is_stmt 1
	addq	$160, %rsp
	popq	%rbp
	retq
Ltmp11:
Lfunc_end0:
	.cfi_endproc

	.globl	__ZN106_$LT$core..ops..range..Range$LT$usize$GT$$u20$as$u20$core..slice..index..SliceIndex$LT$$u5b$T$u5d$$GT$$GT$17get_unchecked_mut17hc0bd031a82140048E
	.p2align	4, 0x90
__ZN106_$LT$core..ops..range..Range$LT$usize$GT$$u20$as$u20$core..slice..index..SliceIndex$LT$$u5b$T$u5d$$GT$$GT$17get_unchecked_mut17hc0bd031a82140048E:
Lfunc_begin1:
	.loc	3 391 0
	.cfi_startproc
	pushq	%rbp
	.cfi_def_cfa_offset 16
	.cfi_offset %rbp, -16
	movq	%rsp, %rbp
	.cfi_def_cfa_register %rbp
	subq	$160, %rsp
	movq	%rdi, -128(%rbp)
	movq	%rsi, -120(%rbp)
	movq	%rdx, -112(%rbp)
	movq	%rcx, -104(%rbp)
Ltmp12:
	.loc	3 400 43 prologue_end
	movq	%rdx, -96(%rbp)
	movq	%rcx, -88(%rbp)
Ltmp13:
	.file	7 "/rustc/2c8cc343237b8f7d5a3c3703e3a87f2eb2c54a74/library/core/src/ptr" "mut_ptr.rs"
	.loc	7 2037 9
	movq	%rdx, -80(%rbp)
Ltmp14:
	.loc	3 400 66
	movq	%rdi, -72(%rbp)
Ltmp15:
	.loc	7 1034 18
	movq	%rdx, -64(%rbp)
	.loc	7 1034 30 is_stmt 0
	movq	%rdi, -56(%rbp)
Ltmp16:
	.loc	7 487 18 is_stmt 1
	addq	%rdi, %rdx
	movq	%rdx, -48(%rbp)
	movq	-48(%rbp), %rax
	movq	%rax, -40(%rbp)
Ltmp17:
	.loc	3 400 79
	subq	%rdi, %rsi
	movq	%rsi, -32(%rbp)
Ltmp18:
	.loc	5 766 24
	movq	%rax, -24(%rbp)
Ltmp19:
	.loc	7 60 9
	movq	%rax, -16(%rbp)
Ltmp20:
	.loc	5 766 37
	movq	%rsi, -8(%rbp)
Ltmp21:
	.loc	6 135 36
	movq	%rax, -144(%rbp)
	movq	%rsi, -136(%rbp)
	.loc	6 135 14 is_stmt 0
	movq	-144(%rbp), %rcx
	movq	-136(%rbp), %rax
	movq	%rcx, -160(%rbp)
	movq	%rax, -152(%rbp)
	movq	-160(%rbp), %rax
	movq	-152(%rbp), %rdx
Ltmp22:
	.loc	3 402 6 is_stmt 1
	addq	$160, %rsp
	popq	%rbp
	retq
Ltmp23:
Lfunc_end1:
	.cfi_endproc

	.globl	__ZN106_$LT$core..ops..range..Range$LT$usize$GT$$u20$as$u20$core..slice..index..SliceIndex$LT$$u5b$T$u5d$$GT$$GT$5index17he2a2923a3086004dE
	.p2align	4, 0x90
__ZN106_$LT$core..ops..range..Range$LT$usize$GT$$u20$as$u20$core..slice..index..SliceIndex$LT$$u5b$T$u5d$$GT$$GT$5index17he2a2923a3086004dE:
Lfunc_begin2:
	.loc	3 405 0
	.cfi_startproc
	pushq	%rbp
	.cfi_def_cfa_offset 16
	.cfi_offset %rbp, -16
	movq	%rsp, %rbp
	.cfi_def_cfa_register %rbp
	subq	$80, %rsp
	movq	%rdi, -72(%rbp)
	movq	%rsi, -64(%rbp)
	movq	%rdx, -56(%rbp)
	movq	%rcx, -48(%rbp)
	movq	%r8, -40(%rbp)
	movq	%rdi, -32(%rbp)
	movq	%rsi, -24(%rbp)
	movq	%rdx, -16(%rbp)
	movq	%rcx, -8(%rbp)
Ltmp24:
	.loc	3 406 12 prologue_end
	cmpq	%rsi, %rdi
	ja	LBB2_2
	.loc	3 0 12 is_stmt 0
	movq	-64(%rbp), %rax
	movq	-48(%rbp), %rcx
	.loc	3 408 19 is_stmt 1
	cmpq	%rcx, %rax
	ja	LBB2_4
	jmp	LBB2_3
LBB2_2:
	.loc	3 0 19 is_stmt 0
	movq	-40(%rbp), %rdx
	movq	-64(%rbp), %rsi
	movq	-72(%rbp), %rdi
	.loc	3 407 13 is_stmt 1
	callq	__ZN4core5slice5index22slice_index_order_fail17h0d8f800a07d5f26eE
LBB2_3:
	.loc	3 0 13 is_stmt 0
	movq	-48(%rbp), %rcx
	movq	-56(%rbp), %rdx
	movq	-64(%rbp), %rsi
	movq	-72(%rbp), %rdi
	.loc	3 412 20 is_stmt 1
	callq	__ZN106_$LT$core..ops..range..Range$LT$usize$GT$$u20$as$u20$core..slice..index..SliceIndex$LT$$u5b$T$u5d$$GT$$GT$13get_unchecked17h94cfdd5354f8ee24E
	.loc	3 413 6
	addq	$80, %rsp
	popq	%rbp
	retq
LBB2_4:
	.loc	3 0 6 is_stmt 0
	movq	-40(%rbp), %rdx
	movq	-48(%rbp), %rsi
	movq	-64(%rbp), %rdi
	.loc	3 409 13 is_stmt 1
	callq	__ZN4core5slice5index24slice_end_index_len_fail17hc921cb2f1513645aE
Ltmp25:
Lfunc_end2:
	.cfi_endproc

	.globl	__ZN108_$LT$core..ops..range..RangeTo$LT$usize$GT$$u20$as$u20$core..slice..index..SliceIndex$LT$$u5b$T$u5d$$GT$$GT$5index17h60cbf199da103e56E
	.p2align	4, 0x90
__ZN108_$LT$core..ops..range..RangeTo$LT$usize$GT$$u20$as$u20$core..slice..index..SliceIndex$LT$$u5b$T$u5d$$GT$$GT$5index17h60cbf199da103e56E:
Lfunc_begin3:
	.loc	3 455 0
	.cfi_startproc
	pushq	%rbp
	.cfi_def_cfa_offset 16
	.cfi_offset %rbp, -16
	movq	%rsp, %rbp
	.cfi_def_cfa_register %rbp
	subq	$48, %rsp
	movq	%rcx, %r8
	movq	%rdx, %rcx
	movq	%rsi, %rdx
	movq	%rdi, -24(%rbp)
	movq	%rdx, -16(%rbp)
	movq	%rcx, -8(%rbp)
Ltmp26:
	.loc	3 456 9 prologue_end
	movq	$0, -40(%rbp)
	movq	%rdi, -32(%rbp)
	movq	-40(%rbp), %rdi
	movq	-32(%rbp), %rsi
	callq	__ZN106_$LT$core..ops..range..Range$LT$usize$GT$$u20$as$u20$core..slice..index..SliceIndex$LT$$u5b$T$u5d$$GT$$GT$5index17he2a2923a3086004dE
	.loc	3 457 6
	addq	$48, %rsp
	popq	%rbp
	retq
Ltmp27:
Lfunc_end3:
	.cfi_endproc

	.globl	__ZN110_$LT$core..ops..range..RangeFrom$LT$usize$GT$$u20$as$u20$core..slice..index..SliceIndex$LT$$u5b$T$u5d$$GT$$GT$9index_mut17hfdafee1eb1edc9f1E
	.p2align	4, 0x90
__ZN110_$LT$core..ops..range..RangeFrom$LT$usize$GT$$u20$as$u20$core..slice..index..SliceIndex$LT$$u5b$T$u5d$$GT$$GT$9index_mut17hfdafee1eb1edc9f1E:
Lfunc_begin4:
	.loc	3 502 0
	.cfi_startproc
	pushq	%rbp
	.cfi_def_cfa_offset 16
	.cfi_offset %rbp, -16
	movq	%rsp, %rbp
	.cfi_def_cfa_register %rbp
	subq	$144, %rsp
	movq	%rdi, -144(%rbp)
	movq	%rsi, -136(%rbp)
	movq	%rdx, -128(%rbp)
	movq	%rcx, -120(%rbp)
	movq	%rdi, -80(%rbp)
	movq	%rsi, -72(%rbp)
	movq	%rdx, -64(%rbp)
Ltmp28:
	.loc	3 503 12 prologue_end
	cmpq	%rdx, %rdi
	ja	LBB4_2
	.loc	3 0 12 is_stmt 0
	movq	-128(%rbp), %rcx
	movq	-136(%rbp), %rdx
	movq	-144(%rbp), %rsi
	.loc	3 507 24 is_stmt 1
	movq	%rsi, -56(%rbp)
	.loc	3 507 47 is_stmt 0
	movq	%rdx, -48(%rbp)
	movq	%rcx, -40(%rbp)
Ltmp29:
	.loc	3 489 31 is_stmt 1
	movq	%rdx, -32(%rbp)
	movq	%rcx, -24(%rbp)
Ltmp30:
	.loc	7 1901 18
	movq	%rdx, -16(%rbp)
	movq	%rcx, -8(%rbp)
Ltmp31:
	.loc	6 98 14
	movq	%rdx, -96(%rbp)
	movq	%rcx, -88(%rbp)
	movq	-88(%rbp), %rax
Ltmp32:
	.loc	3 489 18
	movq	%rsi, -112(%rbp)
	movq	%rax, -104(%rbp)
	movq	-112(%rbp), %rdi
	movq	-104(%rbp), %rsi
	callq	__ZN106_$LT$core..ops..range..Range$LT$usize$GT$$u20$as$u20$core..slice..index..SliceIndex$LT$$u5b$T$u5d$$GT$$GT$17get_unchecked_mut17hc0bd031a82140048E
Ltmp33:
	.loc	3 508 6
	addq	$144, %rsp
	popq	%rbp
	retq
LBB4_2:
	.loc	3 0 6 is_stmt 0
	movq	-120(%rbp), %rdx
	movq	-128(%rbp), %rsi
	movq	-144(%rbp), %rdi
	.loc	3 504 13 is_stmt 1
	callq	__ZN4core5slice5index26slice_start_index_len_fail17h9d301bb51ec3e351E
Ltmp34:
Lfunc_end4:
	.cfi_endproc

	.globl	__ZN153_$LT$core..result..Result$LT$T$C$F$GT$$u20$as$u20$core..ops..try_trait..FromResidual$LT$core..result..Result$LT$core..convert..Infallible$C$E$GT$$GT$$GT$13from_residual17h393e10220314ff31E
	.p2align	4, 0x90
__ZN153_$LT$core..result..Result$LT$T$C$F$GT$$u20$as$u20$core..ops..try_trait..FromResidual$LT$core..result..Result$LT$core..convert..Infallible$C$E$GT$$GT$$GT$13from_residual17h393e10220314ff31E:
Lfunc_begin5:
	.file	8 "/rustc/2c8cc343237b8f7d5a3c3703e3a87f2eb2c54a74/library/core/src" "result.rs"
	.loc	8 2105 0
	.cfi_startproc
	pushq	%rbp
	.cfi_def_cfa_offset 16
	.cfi_offset %rbp, -16
	movq	%rsp, %rbp
	.cfi_def_cfa_register %rbp
	subq	$16, %rsp
	movl	%edi, -16(%rbp)
Ltmp35:
	.loc	8 2107 17 prologue_end
	movl	-16(%rbp), %eax
	movl	%eax, -8(%rbp)
	movl	%eax, -4(%rbp)
Ltmp36:
	.loc	8 2107 23 is_stmt 0
	movl	%eax, -12(%rbp)
Ltmp37:
	.loc	8 2109 6 is_stmt 1
	movl	-12(%rbp), %eax
	addq	$16, %rsp
	popq	%rbp
	retq
Ltmp38:
Lfunc_end5:
	.cfi_endproc

	.globl	__ZN153_$LT$core..result..Result$LT$T$C$F$GT$$u20$as$u20$core..ops..try_trait..FromResidual$LT$core..result..Result$LT$core..convert..Infallible$C$E$GT$$GT$$GT$13from_residual17he1111eab35d04143E
	.p2align	4, 0x90
__ZN153_$LT$core..result..Result$LT$T$C$F$GT$$u20$as$u20$core..ops..try_trait..FromResidual$LT$core..result..Result$LT$core..convert..Infallible$C$E$GT$$GT$$GT$13from_residual17he1111eab35d04143E:
Lfunc_begin6:
	.loc	8 2105 0
	.cfi_startproc
	pushq	%rbp
	.cfi_def_cfa_offset 16
	.cfi_offset %rbp, -16
	movq	%rsp, %rbp
	.cfi_def_cfa_register %rbp
	subq	$24, %rsp
	movl	%edi, -20(%rbp)
Ltmp39:
	.loc	8 2107 17 prologue_end
	movl	-20(%rbp), %eax
	movl	%eax, -8(%rbp)
	movl	%eax, -4(%rbp)
Ltmp40:
	.loc	8 2107 23 is_stmt 0
	movl	%eax, -12(%rbp)
	movl	$1, -16(%rbp)
Ltmp41:
	.loc	8 2109 6 is_stmt 1
	movq	-16(%rbp), %rax
	addq	$24, %rsp
	popq	%rbp
	retq
Ltmp42:
Lfunc_end6:
	.cfi_endproc

	.globl	__ZN42_$LT$$RF$T$u20$as$u20$core..fmt..Debug$GT$3fmt17h2727e59726ae2e06E
	.p2align	4, 0x90
__ZN42_$LT$$RF$T$u20$as$u20$core..fmt..Debug$GT$3fmt17h2727e59726ae2e06E:
Lfunc_begin7:
	.file	9 "/rustc/2c8cc343237b8f7d5a3c3703e3a87f2eb2c54a74/library/core/src/fmt" "mod.rs"
	.loc	9 2377 0
	.cfi_startproc
	pushq	%rbp
	.cfi_def_cfa_offset 16
	.cfi_offset %rbp, -16
	movq	%rsp, %rbp
	.cfi_def_cfa_register %rbp
	subq	$16, %rsp
	movq	%rdi, -16(%rbp)
	movq	%rsi, -8(%rbp)
Ltmp43:
	.loc	9 2377 71 prologue_end
	movq	(%rdi), %rdi
	.loc	9 2377 62 is_stmt 0
	callq	__ZN4core3fmt3num50_$LT$impl$u20$core..fmt..Debug$u20$for$u20$i32$GT$3fmt17h22fce873314336a6E
	.loc	9 2377 84
	andb	$1, %al
	movzbl	%al, %eax
	addq	$16, %rsp
	popq	%rbp
	retq
Ltmp44:
Lfunc_end7:
	.cfi_endproc

	.globl	__ZN42_$LT$$RF$T$u20$as$u20$core..fmt..Debug$GT$3fmt17h7f2b0d596068d254E
	.p2align	4, 0x90
__ZN42_$LT$$RF$T$u20$as$u20$core..fmt..Debug$GT$3fmt17h7f2b0d596068d254E:
Lfunc_begin8:
	.loc	9 2377 0 is_stmt 1
	.cfi_startproc
	pushq	%rbp
	.cfi_def_cfa_offset 16
	.cfi_offset %rbp, -16
	movq	%rsp, %rbp
	.cfi_def_cfa_register %rbp
	subq	$16, %rsp
	movq	%rdi, -16(%rbp)
	movq	%rsi, -8(%rbp)
Ltmp45:
	.loc	9 2377 71 prologue_end
	movq	(%rdi), %rdi
	.loc	9 2377 62 is_stmt 0
	callq	__ZN4core3fmt3num52_$LT$impl$u20$core..fmt..Debug$u20$for$u20$usize$GT$3fmt17hc4c4afd62453e1edE
	.loc	9 2377 84
	andb	$1, %al
	movzbl	%al, %eax
	addq	$16, %rsp
	popq	%rbp
	retq
Ltmp46:
Lfunc_end8:
	.cfi_endproc

	.globl	__ZN42_$LT$$RF$T$u20$as$u20$core..fmt..Debug$GT$3fmt17h86a7fa9b6c3f6e11E
	.p2align	4, 0x90
__ZN42_$LT$$RF$T$u20$as$u20$core..fmt..Debug$GT$3fmt17h86a7fa9b6c3f6e11E:
Lfunc_begin9:
	.loc	9 2377 0 is_stmt 1
	.cfi_startproc
	pushq	%rbp
	.cfi_def_cfa_offset 16
	.cfi_offset %rbp, -16
	movq	%rsp, %rbp
	.cfi_def_cfa_register %rbp
	subq	$16, %rsp
	movq	%rdi, -16(%rbp)
	movq	%rsi, -8(%rbp)
Ltmp47:
	.loc	9 2377 71 prologue_end
	movq	(%rdi), %rdi
	.loc	9 2377 62 is_stmt 0
	callq	__ZN66_$LT$core..option..Option$LT$T$GT$$u20$as$u20$core..fmt..Debug$GT$3fmt17h76ed66c42087db20E
	.loc	9 2377 84
	andb	$1, %al
	movzbl	%al, %eax
	addq	$16, %rsp
	popq	%rbp
	retq
Ltmp48:
Lfunc_end9:
	.cfi_endproc

	.globl	__ZN42_$LT$$RF$T$u20$as$u20$core..fmt..Debug$GT$3fmt17h9d1e4bf8f177f6c9E
	.p2align	4, 0x90
__ZN42_$LT$$RF$T$u20$as$u20$core..fmt..Debug$GT$3fmt17h9d1e4bf8f177f6c9E:
Lfunc_begin10:
	.loc	9 2377 0 is_stmt 1
	.cfi_startproc
	pushq	%rbp
	.cfi_def_cfa_offset 16
	.cfi_offset %rbp, -16
	movq	%rsp, %rbp
	.cfi_def_cfa_register %rbp
	subq	$16, %rsp
	movq	%rdi, -16(%rbp)
	movq	%rsi, -8(%rbp)
Ltmp49:
	.loc	9 2377 71 prologue_end
	movq	(%rdi), %rdi
	.loc	9 2377 62 is_stmt 0
	callq	__ZN42_$LT$$RF$T$u20$as$u20$core..fmt..Debug$GT$3fmt17heb2fccbf5bc5d6aaE
	.loc	9 2377 84
	andb	$1, %al
	movzbl	%al, %eax
	addq	$16, %rsp
	popq	%rbp
	retq
Ltmp50:
Lfunc_end10:
	.cfi_endproc

	.globl	__ZN42_$LT$$RF$T$u20$as$u20$core..fmt..Debug$GT$3fmt17hb270fdf436bfcf72E
	.p2align	4, 0x90
__ZN42_$LT$$RF$T$u20$as$u20$core..fmt..Debug$GT$3fmt17hb270fdf436bfcf72E:
Lfunc_begin11:
	.loc	9 2377 0 is_stmt 1
	.cfi_startproc
	pushq	%rbp
	.cfi_def_cfa_offset 16
	.cfi_offset %rbp, -16
	movq	%rsp, %rbp
	.cfi_def_cfa_register %rbp
	subq	$16, %rsp
	movq	%rsi, %rdx
	movq	%rdi, %rax
	movq	%rax, -16(%rbp)
	movq	%rdx, -8(%rbp)
Ltmp51:
	.loc	9 2377 71 prologue_end
	movq	(%rax), %rdi
	movq	8(%rax), %rsi
	.loc	9 2377 62 is_stmt 0
	callq	__ZN40_$LT$str$u20$as$u20$core..fmt..Debug$GT$3fmt17h4564f13343f2ac60E
	.loc	9 2377 84
	andb	$1, %al
	movzbl	%al, %eax
	addq	$16, %rsp
	popq	%rbp
	retq
Ltmp52:
Lfunc_end11:
	.cfi_endproc

	.globl	__ZN42_$LT$$RF$T$u20$as$u20$core..fmt..Debug$GT$3fmt17heb2fccbf5bc5d6aaE
	.p2align	4, 0x90
__ZN42_$LT$$RF$T$u20$as$u20$core..fmt..Debug$GT$3fmt17heb2fccbf5bc5d6aaE:
Lfunc_begin12:
	.loc	9 2377 0 is_stmt 1
	.cfi_startproc
	pushq	%rbp
	.cfi_def_cfa_offset 16
	.cfi_offset %rbp, -16
	movq	%rsp, %rbp
	.cfi_def_cfa_register %rbp
	subq	$16, %rsp
	movq	%rdi, -16(%rbp)
	movq	%rsi, -8(%rbp)
Ltmp53:
	.loc	9 2377 71 prologue_end
	movq	(%rdi), %rdi
	.loc	9 2377 62 is_stmt 0
	callq	__ZN4core3fmt3num49_$LT$impl$u20$core..fmt..Debug$u20$for$u20$u8$GT$3fmt17hfc03c4ac3250204aE
	.loc	9 2377 84
	andb	$1, %al
	movzbl	%al, %eax
	addq	$16, %rsp
	popq	%rbp
	retq
Ltmp54:
Lfunc_end12:
	.cfi_endproc

	.p2align	4, 0x90
__ZN4core3cmp5impls50_$LT$impl$u20$core..cmp..Ord$u20$for$u20$usize$GT$3cmp17he1c906e292832493E:
Lfunc_begin13:
	.file	10 "/rustc/2c8cc343237b8f7d5a3c3703e3a87f2eb2c54a74/library/core/src" "cmp.rs"
	.loc	10 1454 0 is_stmt 1
	.cfi_startproc
	pushq	%rbp
	.cfi_def_cfa_offset 16
	.cfi_offset %rbp, -16
	movq	%rsp, %rbp
	.cfi_def_cfa_register %rbp
	subq	$40, %rsp
	movq	%rdi, -40(%rbp)
	movq	%rsi, -32(%rbp)
	movq	%rdi, -16(%rbp)
	movq	%rsi, -8(%rbp)
Ltmp55:
	.loc	10 1457 24 prologue_end
	movq	(%rdi), %rax
	cmpq	(%rsi), %rax
	jb	LBB13_2
	.loc	10 0 24 is_stmt 0
	movq	-32(%rbp), %rcx
	movq	-40(%rbp), %rax
	.loc	10 1458 29 is_stmt 1
	movq	(%rax), %rax
	cmpq	(%rcx), %rax
	je	LBB13_5
	jmp	LBB13_4
LBB13_2:
	.loc	10 1457 41
	movb	$-1, -17(%rbp)
LBB13_3:
	.loc	10 1460 18
	movb	-17(%rbp), %al
	addq	$40, %rsp
	popq	%rbp
	retq
LBB13_4:
	.loc	10 1459 28
	movb	$1, -17(%rbp)
	.loc	10 1458 26
	jmp	LBB13_6
LBB13_5:
	.loc	10 1458 47 is_stmt 0
	movb	$0, -17(%rbp)
LBB13_6:
	.loc	10 1457 21 is_stmt 1
	jmp	LBB13_3
Ltmp56:
Lfunc_end13:
	.cfi_endproc

	.p2align	4, 0x90
__ZN4core3cmp5impls53_$LT$impl$u20$core..cmp..PartialEq$u20$for$u20$u8$GT$2eq17hef0093da43901245E:
Lfunc_begin14:
	.loc	10 1352 0
	.cfi_startproc
	pushq	%rbp
	.cfi_def_cfa_offset 16
	.cfi_offset %rbp, -16
	movq	%rsp, %rbp
	.cfi_def_cfa_register %rbp
	subq	$16, %rsp
	movq	%rdi, -16(%rbp)
	movq	%rsi, -8(%rbp)
Ltmp57:
	.loc	10 1352 52 prologue_end
	movb	(%rdi), %al
	cmpb	(%rsi), %al
	sete	%al
	.loc	10 1352 73 is_stmt 0
	andb	$1, %al
	movzbl	%al, %eax
	addq	$16, %rsp
	popq	%rbp
	retq
Ltmp58:
Lfunc_end14:
	.cfi_endproc

	.p2align	4, 0x90
__ZN4core3cmp5impls54_$LT$impl$u20$core..cmp..PartialEq$u20$for$u20$i32$GT$2eq17he62c8ade4676da24E:
Lfunc_begin15:
	.loc	10 1352 0 is_stmt 1
	.cfi_startproc
	pushq	%rbp
	.cfi_def_cfa_offset 16
	.cfi_offset %rbp, -16
	movq	%rsp, %rbp
	.cfi_def_cfa_register %rbp
	subq	$16, %rsp
	movq	%rdi, -16(%rbp)
	movq	%rsi, -8(%rbp)
Ltmp59:
	.loc	10 1352 52 prologue_end
	movl	(%rdi), %eax
	cmpl	(%rsi), %eax
	sete	%al
	.loc	10 1352 73 is_stmt 0
	andb	$1, %al
	movzbl	%al, %eax
	addq	$16, %rsp
	popq	%rbp
	retq
Ltmp60:
Lfunc_end15:
	.cfi_endproc

	.globl	__ZN4core3cmp5impls69_$LT$impl$u20$core..cmp..PartialEq$LT$$RF$B$GT$$u20$for$u20$$RF$A$GT$2eq17h2bc722e36dc8cad7E
	.p2align	4, 0x90
__ZN4core3cmp5impls69_$LT$impl$u20$core..cmp..PartialEq$LT$$RF$B$GT$$u20$for$u20$$RF$A$GT$2eq17h2bc722e36dc8cad7E:
Lfunc_begin16:
	.loc	10 1530 0 is_stmt 1
	.cfi_startproc
	pushq	%rbp
	.cfi_def_cfa_offset 16
	.cfi_offset %rbp, -16
	movq	%rsp, %rbp
	.cfi_def_cfa_register %rbp
	subq	$16, %rsp
	movq	%rdi, -16(%rbp)
	movq	%rsi, -8(%rbp)
Ltmp61:
	.loc	10 1531 27 prologue_end
	movq	(%rdi), %rdi
	.loc	10 1531 34 is_stmt 0
	movq	(%rsi), %rsi
	.loc	10 1531 13
	callq	__ZN4core3cmp5impls53_$LT$impl$u20$core..cmp..PartialEq$u20$for$u20$u8$GT$2eq17hef0093da43901245E
	.loc	10 1532 10 is_stmt 1
	andb	$1, %al
	movzbl	%al, %eax
	addq	$16, %rsp
	popq	%rbp
	retq
Ltmp62:
Lfunc_end16:
	.cfi_endproc

	.globl	__ZN4core3cmp6min_by17h5b85f2698915b6a9E
	.p2align	4, 0x90
__ZN4core3cmp6min_by17h5b85f2698915b6a9E:
Lfunc_begin17:
	.loc	10 1204 0
	.cfi_startproc
	.cfi_personality 155, _rust_eh_personality
	.cfi_lsda 16, Lexception0
	pushq	%rbp
	.cfi_def_cfa_offset 16
	.cfi_offset %rbp, -16
	movq	%rsp, %rbp
	.cfi_def_cfa_register %rbp
	subq	$96, %rsp
	movq	%rdi, -80(%rbp)
	movq	%rsi, -72(%rbp)
Ltmp66:
	.loc	10 1209 11 prologue_end
	movb	$1, -25(%rbp)
	movb	$1, -26(%rbp)
	leaq	-80(%rbp), %rax
	movq	%rax, -48(%rbp)
	leaq	-72(%rbp), %rax
	movq	%rax, -40(%rbp)
	movq	-48(%rbp), %rdi
	movq	-40(%rbp), %rsi
Ltmp63:
	callq	__ZN4core3ops8function6FnOnce9call_once17h6bf4e62b63288c81E
Ltmp64:
	movb	%al, -81(%rbp)
	jmp	LBB17_3
LBB17_1:
	.loc	10 1213 1
	jmp	LBB17_4
LBB17_2:
Ltmp65:
	.loc	10 0 1 is_stmt 0
	movq	%rax, %rcx
	movl	%edx, %eax
	movq	%rcx, -16(%rbp)
	movl	%eax, -8(%rbp)
	jmp	LBB17_1
LBB17_3:
	movb	-81(%rbp), %al
	.loc	10 1209 11 is_stmt 1
	movb	%al, -49(%rbp)
	movb	-49(%rbp), %al
	.loc	10 1209 5 is_stmt 0
	incb	%al
	subb	$2, %al
	jb	LBB17_6
	jmp	LBB17_15
LBB17_15:
	jmp	LBB17_7
LBB17_4:
	.loc	10 1213 1 is_stmt 1
	testb	$1, -25(%rbp)
	jne	LBB17_12
	jmp	LBB17_11
	.loc	10 1209 11
	ud2
LBB17_6:
	.loc	10 1210 45
	movb	$0, -25(%rbp)
	movq	-80(%rbp), %rax
	movq	%rax, -64(%rbp)
	jmp	LBB17_8
LBB17_7:
	.loc	10 1211 30
	movb	$0, -26(%rbp)
	movq	-72(%rbp), %rax
	movq	%rax, -64(%rbp)
LBB17_8:
	.loc	10 1213 1
	testb	$1, -26(%rbp)
	jne	LBB17_10
LBB17_9:
	testb	$1, -25(%rbp)
	jne	LBB17_14
	jmp	LBB17_13
LBB17_10:
	jmp	LBB17_9
LBB17_11:
	.loc	10 1204 1
	movq	-16(%rbp), %rdi
	callq	__Unwind_Resume
LBB17_12:
	.loc	10 1213 1
	jmp	LBB17_11
LBB17_13:
	.loc	10 1213 2 is_stmt 0
	movq	-64(%rbp), %rax
	addq	$96, %rsp
	popq	%rbp
	retq
LBB17_14:
	.loc	10 1213 1
	jmp	LBB17_13
Ltmp67:
Lfunc_end17:
	.cfi_endproc
	.section	__TEXT,__gcc_except_tab
	.p2align	2
GCC_except_table17:
Lexception0:
	.byte	255
	.byte	255
	.byte	1
	.uleb128 Lcst_end0-Lcst_begin0
Lcst_begin0:
	.uleb128 Ltmp63-Lfunc_begin17
	.uleb128 Ltmp64-Ltmp63
	.uleb128 Ltmp65-Lfunc_begin17
	.byte	0
	.uleb128 Ltmp64-Lfunc_begin17
	.uleb128 Lfunc_end17-Ltmp64
	.byte	0
	.byte	0
Lcst_end0:
	.p2align	2

	.section	__TEXT,__text,regular,pure_instructions
	.globl	__ZN4core3cmp9PartialEq2ne17h2895f2938a801e32E
	.p2align	4, 0x90
__ZN4core3cmp9PartialEq2ne17h2895f2938a801e32E:
Lfunc_begin18:
	.loc	10 227 0 is_stmt 1
	.cfi_startproc
	pushq	%rbp
	.cfi_def_cfa_offset 16
	.cfi_offset %rbp, -16
	movq	%rsp, %rbp
	.cfi_def_cfa_register %rbp
	subq	$16, %rsp
	movq	%rdi, -16(%rbp)
	movq	%rsi, -8(%rbp)
Ltmp68:
	.loc	10 228 10 prologue_end
	callq	__ZN70_$LT$core..option..Option$LT$T$GT$$u20$as$u20$core..cmp..PartialEq$GT$2eq17h07957863c370535aE
	.loc	10 228 9 is_stmt 0
	xorb	$-1, %al
	.loc	10 229 6 is_stmt 1
	andb	$1, %al
	movzbl	%al, %eax
	addq	$16, %rsp
	popq	%rbp
	retq
Ltmp69:
Lfunc_end18:
	.cfi_endproc

	.globl	__ZN4core3fmt10ArgumentV111new_display17h0fe82e2e3493ebf2E
	.p2align	4, 0x90
__ZN4core3fmt10ArgumentV111new_display17h0fe82e2e3493ebf2E:
Lfunc_begin19:
	.loc	9 327 0
	.cfi_startproc
	pushq	%rbp
	.cfi_def_cfa_offset 16
	.cfi_offset %rbp, -16
	movq	%rsp, %rbp
	.cfi_def_cfa_register %rbp
	subq	$56, %rsp
	movq	%rdi, -40(%rbp)
Ltmp70:
	.loc	9 328 23 prologue_end
	movq	%rdi, -32(%rbp)
	.loc	9 328 26 is_stmt 0
	movq	__ZN4core3fmt3num3imp52_$LT$impl$u20$core..fmt..Display$u20$for$u20$u32$GT$3fmt17h081c917b2ee7d4e9E@GOTPCREL(%rip), %rax
	movq	%rax, -24(%rbp)
Ltmp71:
	.loc	9 347 42 is_stmt 1
	movq	%rax, -16(%rbp)
	movq	-16(%rbp), %rax
	.loc	9 347 68 is_stmt 0
	movq	%rdi, -8(%rbp)
	movq	-8(%rbp), %rcx
	.loc	9 347 18
	movq	%rcx, -56(%rbp)
	movq	%rax, -48(%rbp)
Ltmp72:
	.loc	9 329 10 is_stmt 1
	movq	-56(%rbp), %rax
	movq	-48(%rbp), %rdx
	addq	$56, %rsp
	popq	%rbp
	retq
Ltmp73:
Lfunc_end19:
	.cfi_endproc

	.globl	__ZN4core3fmt10ArgumentV111new_display17h21e459089db4f4d8E
	.p2align	4, 0x90
__ZN4core3fmt10ArgumentV111new_display17h21e459089db4f4d8E:
Lfunc_begin20:
	.loc	9 327 0
	.cfi_startproc
	pushq	%rbp
	.cfi_def_cfa_offset 16
	.cfi_offset %rbp, -16
	movq	%rsp, %rbp
	.cfi_def_cfa_register %rbp
	subq	$56, %rsp
	movq	%rdi, -40(%rbp)
Ltmp74:
	.loc	9 328 23 prologue_end
	movq	%rdi, -32(%rbp)
	.loc	9 328 26 is_stmt 0
	movq	__ZN4core3fmt3num3imp52_$LT$impl$u20$core..fmt..Display$u20$for$u20$i32$GT$3fmt17hd51e25ed68474bbaE@GOTPCREL(%rip), %rax
	movq	%rax, -24(%rbp)
Ltmp75:
	.loc	9 347 42 is_stmt 1
	movq	%rax, -16(%rbp)
	movq	-16(%rbp), %rax
	.loc	9 347 68 is_stmt 0
	movq	%rdi, -8(%rbp)
	movq	-8(%rbp), %rcx
	.loc	9 347 18
	movq	%rcx, -56(%rbp)
	movq	%rax, -48(%rbp)
Ltmp76:
	.loc	9 329 10 is_stmt 1
	movq	-56(%rbp), %rax
	movq	-48(%rbp), %rdx
	addq	$56, %rsp
	popq	%rbp
	retq
Ltmp77:
Lfunc_end20:
	.cfi_endproc

	.p2align	4, 0x90
__ZN4core3fmt3num49_$LT$impl$u20$core..fmt..Debug$u20$for$u20$u8$GT$3fmt17hfc03c4ac3250204aE:
Lfunc_begin21:
	.file	11 "/rustc/2c8cc343237b8f7d5a3c3703e3a87f2eb2c54a74/library/core/src/fmt" "num.rs"
	.loc	11 185 0
	.cfi_startproc
	pushq	%rbp
	.cfi_def_cfa_offset 16
	.cfi_offset %rbp, -16
	movq	%rsp, %rbp
	.cfi_def_cfa_register %rbp
	subq	$48, %rsp
	movq	%rsi, -48(%rbp)
	movq	%rdi, %rax
	movq	-48(%rbp), %rdi
	movq	%rax, -40(%rbp)
	movq	%rdi, -32(%rbp)
	movq	%rax, -16(%rbp)
	movq	%rdi, -8(%rbp)
Ltmp78:
	.loc	11 186 20 prologue_end
	callq	__ZN4core3fmt9Formatter15debug_lower_hex17h0921e6b9188d914eE
	testb	$1, %al
	jne	LBB21_2
	.loc	11 0 20 is_stmt 0
	movq	-32(%rbp), %rdi
	.loc	11 188 27 is_stmt 1
	callq	__ZN4core3fmt9Formatter15debug_upper_hex17h8ce487049a6cccf8E
	testb	$1, %al
	jne	LBB21_5
	jmp	LBB21_4
LBB21_2:
	.loc	11 0 27 is_stmt 0
	movq	-32(%rbp), %rsi
	movq	-40(%rbp), %rdi
	.loc	11 187 21 is_stmt 1
	callq	__ZN4core3fmt3num52_$LT$impl$u20$core..fmt..LowerHex$u20$for$u20$u8$GT$3fmt17h5cfdcd8eebabca5eE
	andb	$1, %al
	movb	%al, -17(%rbp)
LBB21_3:
	.loc	11 193 14
	movb	-17(%rbp), %al
	andb	$1, %al
	movzbl	%al, %eax
	addq	$48, %rsp
	popq	%rbp
	retq
LBB21_4:
	.loc	11 0 14 is_stmt 0
	movq	-32(%rbp), %rsi
	movq	-40(%rbp), %rdi
	.loc	11 191 21 is_stmt 1
	callq	__ZN4core3fmt3num3imp51_$LT$impl$u20$core..fmt..Display$u20$for$u20$u8$GT$3fmt17he2a0798a745fb926E
	andb	$1, %al
	movb	%al, -17(%rbp)
	.loc	11 188 24
	jmp	LBB21_6
LBB21_5:
	.loc	11 0 24 is_stmt 0
	movq	-32(%rbp), %rsi
	movq	-40(%rbp), %rdi
	.loc	11 189 21 is_stmt 1
	callq	__ZN4core3fmt3num52_$LT$impl$u20$core..fmt..UpperHex$u20$for$u20$u8$GT$3fmt17h0d44eda8e53b13dbE
	andb	$1, %al
	movb	%al, -17(%rbp)
LBB21_6:
	.loc	11 186 17
	jmp	LBB21_3
Ltmp79:
Lfunc_end21:
	.cfi_endproc

	.p2align	4, 0x90
__ZN4core3fmt3num50_$LT$impl$u20$core..fmt..Debug$u20$for$u20$i32$GT$3fmt17h22fce873314336a6E:
Lfunc_begin22:
	.loc	11 185 0
	.cfi_startproc
	pushq	%rbp
	.cfi_def_cfa_offset 16
	.cfi_offset %rbp, -16
	movq	%rsp, %rbp
	.cfi_def_cfa_register %rbp
	subq	$48, %rsp
	movq	%rsi, -48(%rbp)
	movq	%rdi, %rax
	movq	-48(%rbp), %rdi
	movq	%rax, -40(%rbp)
	movq	%rdi, -32(%rbp)
	movq	%rax, -16(%rbp)
	movq	%rdi, -8(%rbp)
Ltmp80:
	.loc	11 186 20 prologue_end
	callq	__ZN4core3fmt9Formatter15debug_lower_hex17h0921e6b9188d914eE
	testb	$1, %al
	jne	LBB22_2
	.loc	11 0 20 is_stmt 0
	movq	-32(%rbp), %rdi
	.loc	11 188 27 is_stmt 1
	callq	__ZN4core3fmt9Formatter15debug_upper_hex17h8ce487049a6cccf8E
	testb	$1, %al
	jne	LBB22_5
	jmp	LBB22_4
LBB22_2:
	.loc	11 0 27 is_stmt 0
	movq	-32(%rbp), %rsi
	movq	-40(%rbp), %rdi
	.loc	11 187 21 is_stmt 1
	callq	__ZN4core3fmt3num53_$LT$impl$u20$core..fmt..LowerHex$u20$for$u20$i32$GT$3fmt17hd6250c25a4eb7bb1E
	andb	$1, %al
	movb	%al, -17(%rbp)
LBB22_3:
	.loc	11 193 14
	movb	-17(%rbp), %al
	andb	$1, %al
	movzbl	%al, %eax
	addq	$48, %rsp
	popq	%rbp
	retq
LBB22_4:
	.loc	11 0 14 is_stmt 0
	movq	-32(%rbp), %rsi
	movq	-40(%rbp), %rdi
	.loc	11 191 21 is_stmt 1
	callq	__ZN4core3fmt3num3imp52_$LT$impl$u20$core..fmt..Display$u20$for$u20$i32$GT$3fmt17hd51e25ed68474bbaE
	andb	$1, %al
	movb	%al, -17(%rbp)
	.loc	11 188 24
	jmp	LBB22_6
LBB22_5:
	.loc	11 0 24 is_stmt 0
	movq	-32(%rbp), %rsi
	movq	-40(%rbp), %rdi
	.loc	11 189 21 is_stmt 1
	callq	__ZN4core3fmt3num53_$LT$impl$u20$core..fmt..UpperHex$u20$for$u20$i32$GT$3fmt17hfa20a470c47e8721E
	andb	$1, %al
	movb	%al, -17(%rbp)
LBB22_6:
	.loc	11 186 17
	jmp	LBB22_3
Ltmp81:
Lfunc_end22:
	.cfi_endproc

	.p2align	4, 0x90
__ZN4core3fmt3num50_$LT$impl$u20$core..fmt..Debug$u20$for$u20$u32$GT$3fmt17he51f7304c811c82aE:
Lfunc_begin23:
	.loc	11 185 0
	.cfi_startproc
	pushq	%rbp
	.cfi_def_cfa_offset 16
	.cfi_offset %rbp, -16
	movq	%rsp, %rbp
	.cfi_def_cfa_register %rbp
	subq	$48, %rsp
	movq	%rsi, -48(%rbp)
	movq	%rdi, %rax
	movq	-48(%rbp), %rdi
	movq	%rax, -40(%rbp)
	movq	%rdi, -32(%rbp)
	movq	%rax, -16(%rbp)
	movq	%rdi, -8(%rbp)
Ltmp82:
	.loc	11 186 20 prologue_end
	callq	__ZN4core3fmt9Formatter15debug_lower_hex17h0921e6b9188d914eE
	testb	$1, %al
	jne	LBB23_2
	.loc	11 0 20 is_stmt 0
	movq	-32(%rbp), %rdi
	.loc	11 188 27 is_stmt 1
	callq	__ZN4core3fmt9Formatter15debug_upper_hex17h8ce487049a6cccf8E
	testb	$1, %al
	jne	LBB23_5
	jmp	LBB23_4
LBB23_2:
	.loc	11 0 27 is_stmt 0
	movq	-32(%rbp), %rsi
	movq	-40(%rbp), %rdi
	.loc	11 187 21 is_stmt 1
	callq	__ZN4core3fmt3num53_$LT$impl$u20$core..fmt..LowerHex$u20$for$u20$u32$GT$3fmt17h794cf20b87700632E
	andb	$1, %al
	movb	%al, -17(%rbp)
LBB23_3:
	.loc	11 193 14
	movb	-17(%rbp), %al
	andb	$1, %al
	movzbl	%al, %eax
	addq	$48, %rsp
	popq	%rbp
	retq
LBB23_4:
	.loc	11 0 14 is_stmt 0
	movq	-32(%rbp), %rsi
	movq	-40(%rbp), %rdi
	.loc	11 191 21 is_stmt 1
	callq	__ZN4core3fmt3num3imp52_$LT$impl$u20$core..fmt..Display$u20$for$u20$u32$GT$3fmt17h081c917b2ee7d4e9E
	andb	$1, %al
	movb	%al, -17(%rbp)
	.loc	11 188 24
	jmp	LBB23_6
LBB23_5:
	.loc	11 0 24 is_stmt 0
	movq	-32(%rbp), %rsi
	movq	-40(%rbp), %rdi
	.loc	11 189 21 is_stmt 1
	callq	__ZN4core3fmt3num53_$LT$impl$u20$core..fmt..UpperHex$u20$for$u20$u32$GT$3fmt17ha96bbefe8f663d11E
	andb	$1, %al
	movb	%al, -17(%rbp)
LBB23_6:
	.loc	11 186 17
	jmp	LBB23_3
Ltmp83:
Lfunc_end23:
	.cfi_endproc

	.p2align	4, 0x90
__ZN4core3fmt3num52_$LT$impl$u20$core..fmt..Debug$u20$for$u20$usize$GT$3fmt17hc4c4afd62453e1edE:
Lfunc_begin24:
	.loc	11 185 0
	.cfi_startproc
	pushq	%rbp
	.cfi_def_cfa_offset 16
	.cfi_offset %rbp, -16
	movq	%rsp, %rbp
	.cfi_def_cfa_register %rbp
	subq	$48, %rsp
	movq	%rsi, -48(%rbp)
	movq	%rdi, %rax
	movq	-48(%rbp), %rdi
	movq	%rax, -40(%rbp)
	movq	%rdi, -32(%rbp)
	movq	%rax, -16(%rbp)
	movq	%rdi, -8(%rbp)
Ltmp84:
	.loc	11 186 20 prologue_end
	callq	__ZN4core3fmt9Formatter15debug_lower_hex17h0921e6b9188d914eE
	testb	$1, %al
	jne	LBB24_2
	.loc	11 0 20 is_stmt 0
	movq	-32(%rbp), %rdi
	.loc	11 188 27 is_stmt 1
	callq	__ZN4core3fmt9Formatter15debug_upper_hex17h8ce487049a6cccf8E
	testb	$1, %al
	jne	LBB24_5
	jmp	LBB24_4
LBB24_2:
	.loc	11 0 27 is_stmt 0
	movq	-32(%rbp), %rsi
	movq	-40(%rbp), %rdi
	.loc	11 187 21 is_stmt 1
	callq	__ZN4core3fmt3num55_$LT$impl$u20$core..fmt..LowerHex$u20$for$u20$usize$GT$3fmt17h84f349805fe63f8dE
	andb	$1, %al
	movb	%al, -17(%rbp)
LBB24_3:
	.loc	11 193 14
	movb	-17(%rbp), %al
	andb	$1, %al
	movzbl	%al, %eax
	addq	$48, %rsp
	popq	%rbp
	retq
LBB24_4:
	.loc	11 0 14 is_stmt 0
	movq	-32(%rbp), %rsi
	movq	-40(%rbp), %rdi
	.loc	11 191 21 is_stmt 1
	callq	__ZN4core3fmt3num3imp54_$LT$impl$u20$core..fmt..Display$u20$for$u20$usize$GT$3fmt17ha5c925fcd7ed33faE
	andb	$1, %al
	movb	%al, -17(%rbp)
	.loc	11 188 24
	jmp	LBB24_6
LBB24_5:
	.loc	11 0 24 is_stmt 0
	movq	-32(%rbp), %rsi
	movq	-40(%rbp), %rdi
	.loc	11 189 21 is_stmt 1
	callq	__ZN4core3fmt3num55_$LT$impl$u20$core..fmt..UpperHex$u20$for$u20$usize$GT$3fmt17h49aa717311edc293E
	andb	$1, %al
	movb	%al, -17(%rbp)
LBB24_6:
	.loc	11 186 17
	jmp	LBB24_3
Ltmp85:
Lfunc_end24:
	.cfi_endproc

	.p2align	4, 0x90
__ZN4core3fmt9Arguments6new_v117hee1b54895eb69abfE:
Lfunc_begin25:
	.loc	9 399 0
	.cfi_startproc
	pushq	%rbp
	.cfi_def_cfa_offset 16
	.cfi_offset %rbp, -16
	movq	%rsp, %rbp
	.cfi_def_cfa_register %rbp
	subq	$160, %rsp
	movq	%r8, -152(%rbp)
	movq	%rcx, -144(%rbp)
	movq	%rdx, -136(%rbp)
	movq	%rsi, -128(%rbp)
	movq	%rdi, -120(%rbp)
	movq	%rdi, -112(%rbp)
	movq	%rsi, -32(%rbp)
	movq	%rdx, -24(%rbp)
	movq	%rcx, -16(%rbp)
	movq	%r8, -8(%rbp)
Ltmp86:
	.loc	9 400 12 prologue_end
	cmpq	%r8, %rdx
	jb	LBB25_2
	.loc	9 0 12 is_stmt 0
	movq	-136(%rbp), %rax
	movq	-152(%rbp), %rcx
	.loc	9 400 56
	addq	$1, %rcx
	.loc	9 400 41
	cmpq	%rcx, %rax
	seta	%al
	.loc	9 400 12
	andb	$1, %al
	movb	%al, -97(%rbp)
	jmp	LBB25_3
LBB25_2:
	movb	$1, -97(%rbp)
LBB25_3:
	testb	$1, -97(%rbp)
	jne	LBB25_5
	.loc	9 0 12
	movq	-112(%rbp), %rax
	movq	-120(%rbp), %rcx
	movq	-152(%rbp), %rdx
	movq	-144(%rbp), %rsi
	movq	-136(%rbp), %rdi
	movq	-128(%rbp), %r8
	.loc	9 403 34 is_stmt 1
	movq	$0, -48(%rbp)
	.loc	9 403 9 is_stmt 0
	movq	%r8, 16(%rcx)
	movq	%rdi, 24(%rcx)
	movq	-48(%rbp), %r8
	movq	-40(%rbp), %rdi
	movq	%r8, (%rcx)
	movq	%rdi, 8(%rcx)
	movq	%rsi, 32(%rcx)
	movq	%rdx, 40(%rcx)
	.loc	9 404 6 is_stmt 1
	addq	$160, %rsp
	popq	%rbp
	retq
LBB25_5:
	.loc	9 401 13
	leaq	l___unnamed_8(%rip), %rsi
	leaq	l___unnamed_9(%rip), %rcx
	xorl	%eax, %eax
	movl	%eax, %r8d
	leaq	-96(%rbp), %rdi
	movq	%rdi, -160(%rbp)
	movl	$1, %edx
	callq	__ZN4core3fmt9Arguments6new_v117hee1b54895eb69abfE
	movq	-160(%rbp), %rdi
	leaq	l___unnamed_10(%rip), %rsi
	callq	__ZN4core9panicking9panic_fmt17h9b5d807e24bcaaedE
Ltmp87:
Lfunc_end25:
	.cfi_endproc

	.p2align	4, 0x90
__ZN4core3num7nonzero10NonZeroU3213new_unchecked17h0ba766819e54a404E:
Lfunc_begin26:
	.file	12 "/rustc/2c8cc343237b8f7d5a3c3703e3a87f2eb2c54a74/library/core/src/num" "nonzero.rs"
	.loc	12 56 0
	.cfi_startproc
	pushq	%rbp
	.cfi_def_cfa_offset 16
	.cfi_offset %rbp, -16
	movq	%rsp, %rbp
	.cfi_def_cfa_register %rbp
	pushq	%rax
	movl	%edi, -4(%rbp)
Ltmp88:
	.loc	12 63 25 prologue_end
	movl	%edi, -8(%rbp)
	.loc	12 65 18
	movl	-8(%rbp), %eax
	addq	$8, %rsp
	popq	%rbp
	retq
Ltmp89:
Lfunc_end26:
	.cfi_endproc

	.p2align	4, 0x90
__ZN4core3num7nonzero10NonZeroU323get17hd7fb81afec63d2a5E:
Lfunc_begin27:
	.loc	12 85 0
	.cfi_startproc
	pushq	%rbp
	.cfi_def_cfa_offset 16
	.cfi_offset %rbp, -16
	movq	%rsp, %rbp
	.cfi_def_cfa_register %rbp
	subq	$4, %rsp
	movl	%edi, %eax
	movl	%eax, -4(%rbp)
Ltmp90:
	.loc	12 87 18 prologue_end
	addq	$4, %rsp
	popq	%rbp
	retq
Ltmp91:
Lfunc_end27:
	.cfi_endproc

	.p2align	4, 0x90
__ZN4core3num7nonzero10NonZeroU323new17hf37357f701431e1dE:
Lfunc_begin28:
	.loc	12 72 0
	.cfi_startproc
	pushq	%rbp
	.cfi_def_cfa_offset 16
	.cfi_offset %rbp, -16
	movq	%rsp, %rbp
	.cfi_def_cfa_register %rbp
	subq	$16, %rsp
	movl	%edi, -16(%rbp)
	movl	%edi, -4(%rbp)
Ltmp92:
	.loc	12 73 24 prologue_end
	cmpl	$0, %edi
	jne	LBB28_2
	.loc	12 77 25
	movl	$0, -12(%rbp)
	.loc	12 73 21
	jmp	LBB28_3
LBB28_2:
	.loc	12 0 21 is_stmt 0
	movl	-16(%rbp), %eax
	.loc	12 75 39 is_stmt 1
	movl	%eax, -8(%rbp)
	.loc	12 75 25 is_stmt 0
	movl	-8(%rbp), %eax
	movl	%eax, -12(%rbp)
LBB28_3:
	.loc	12 79 18 is_stmt 1
	movl	-12(%rbp), %eax
	addq	$16, %rsp
	popq	%rbp
	retq
Ltmp93:
Lfunc_end28:
	.cfi_endproc

	.p2align	4, 0x90
__ZN4core3ops8function6FnOnce9call_once17h6bf4e62b63288c81E:
Lfunc_begin29:
	.file	13 "/rustc/2c8cc343237b8f7d5a3c3703e3a87f2eb2c54a74/library/core/src/ops" "function.rs"
	.loc	13 250 0
	.cfi_startproc
	pushq	%rbp
	.cfi_def_cfa_offset 16
	.cfi_offset %rbp, -16
	movq	%rsp, %rbp
	.cfi_def_cfa_register %rbp
	subq	$32, %rsp
	movq	%rdi, -24(%rbp)
	movq	%rsi, -16(%rbp)
Ltmp94:
	.loc	13 250 5 prologue_end
	movq	-24(%rbp), %rdi
	movq	-16(%rbp), %rsi
	callq	__ZN4core3cmp5impls50_$LT$impl$u20$core..cmp..Ord$u20$for$u20$usize$GT$3cmp17he1c906e292832493E
	addq	$32, %rsp
	popq	%rbp
	retq
Ltmp95:
Lfunc_end29:
	.cfi_endproc

	.globl	__ZN4core3ptr119drop_in_place$LT$getrandom..use_file..DropGuard$LT$getrandom..use_file..get_rng_fd..$u7b$$u7b$closure$u7d$$u7d$$GT$$GT$17hbee9a4f6f6618547E
	.p2align	4, 0x90
__ZN4core3ptr119drop_in_place$LT$getrandom..use_file..DropGuard$LT$getrandom..use_file..get_rng_fd..$u7b$$u7b$closure$u7d$$u7d$$GT$$GT$17hbee9a4f6f6618547E:
Lfunc_begin30:
	.loc	5 490 0
	.cfi_startproc
	pushq	%rbp
	.cfi_def_cfa_offset 16
	.cfi_offset %rbp, -16
	movq	%rsp, %rbp
	.cfi_def_cfa_register %rbp
	subq	$16, %rsp
	movq	%rdi, -8(%rbp)
Ltmp96:
	.loc	5 490 1 prologue_end
	callq	__ZN81_$LT$getrandom..use_file..DropGuard$LT$F$GT$$u20$as$u20$core..ops..drop..Drop$GT$4drop17hc6437b439c58b0a2E
	addq	$16, %rsp
	popq	%rbp
	retq
Ltmp97:
Lfunc_end30:
	.cfi_endproc

	.p2align	4, 0x90
__ZN4core3ptr24drop_in_place$LT$i32$GT$17h32704f44a75e9189E:
Lfunc_begin31:
	.loc	5 490 0
	.cfi_startproc
	pushq	%rbp
	.cfi_def_cfa_offset 16
	.cfi_offset %rbp, -16
	movq	%rsp, %rbp
	.cfi_def_cfa_register %rbp
	pushq	%rax
	movq	%rdi, -8(%rbp)
Ltmp98:
	.loc	5 490 1 prologue_end
	addq	$8, %rsp
	popq	%rbp
	retq
Ltmp99:
Lfunc_end31:
	.cfi_endproc

	.p2align	4, 0x90
__ZN4core3ptr24drop_in_place$LT$u32$GT$17hee01451603e2f99cE:
Lfunc_begin32:
	.loc	5 490 0
	.cfi_startproc
	pushq	%rbp
	.cfi_def_cfa_offset 16
	.cfi_offset %rbp, -16
	movq	%rsp, %rbp
	.cfi_def_cfa_register %rbp
	pushq	%rax
	movq	%rdi, -8(%rbp)
Ltmp100:
	.loc	5 490 1 prologue_end
	addq	$8, %rsp
	popq	%rbp
	retq
Ltmp101:
Lfunc_end32:
	.cfi_endproc

	.p2align	4, 0x90
__ZN4core3ptr28drop_in_place$LT$$RF$i32$GT$17he447b4f812bed938E:
Lfunc_begin33:
	.loc	5 490 0
	.cfi_startproc
	pushq	%rbp
	.cfi_def_cfa_offset 16
	.cfi_offset %rbp, -16
	movq	%rsp, %rbp
	.cfi_def_cfa_register %rbp
	pushq	%rax
	movq	%rdi, -8(%rbp)
Ltmp102:
	.loc	5 490 1 prologue_end
	addq	$8, %rsp
	popq	%rbp
	retq
Ltmp103:
Lfunc_end33:
	.cfi_endproc

	.p2align	4, 0x90
__ZN4core3ptr28drop_in_place$LT$$RF$str$GT$17h3a5471e12702bd48E:
Lfunc_begin34:
	.loc	5 490 0
	.cfi_startproc
	pushq	%rbp
	.cfi_def_cfa_offset 16
	.cfi_offset %rbp, -16
	movq	%rsp, %rbp
	.cfi_def_cfa_register %rbp
	pushq	%rax
	movq	%rdi, -8(%rbp)
Ltmp104:
	.loc	5 490 1 prologue_end
	addq	$8, %rsp
	popq	%rbp
	retq
Ltmp105:
Lfunc_end34:
	.cfi_endproc

	.p2align	4, 0x90
__ZN4core3ptr30drop_in_place$LT$$RF$usize$GT$17hfd09b1ca3fa36639E:
Lfunc_begin35:
	.loc	5 490 0
	.cfi_startproc
	pushq	%rbp
	.cfi_def_cfa_offset 16
	.cfi_offset %rbp, -16
	movq	%rsp, %rbp
	.cfi_def_cfa_register %rbp
	pushq	%rax
	movq	%rdi, -8(%rbp)
Ltmp106:
	.loc	5 490 1 prologue_end
	addq	$8, %rsp
	popq	%rbp
	retq
Ltmp107:
Lfunc_end35:
	.cfi_endproc

	.p2align	4, 0x90
__ZN4core3ptr31drop_in_place$LT$$RF$$RF$u8$GT$17h29a7abca7e936987E:
Lfunc_begin36:
	.loc	5 490 0
	.cfi_startproc
	pushq	%rbp
	.cfi_def_cfa_offset 16
	.cfi_offset %rbp, -16
	movq	%rsp, %rbp
	.cfi_def_cfa_register %rbp
	pushq	%rax
	movq	%rdi, -8(%rbp)
Ltmp108:
	.loc	5 490 1 prologue_end
	addq	$8, %rsp
	popq	%rbp
	retq
Ltmp109:
Lfunc_end36:
	.cfi_endproc

	.p2align	4, 0x90
__ZN4core3ptr59drop_in_place$LT$$RF$core..option..Option$LT$$RF$u8$GT$$GT$17hb4dee78363aea7a4E:
Lfunc_begin37:
	.loc	5 490 0
	.cfi_startproc
	pushq	%rbp
	.cfi_def_cfa_offset 16
	.cfi_offset %rbp, -16
	movq	%rsp, %rbp
	.cfi_def_cfa_register %rbp
	pushq	%rax
	movq	%rdi, -8(%rbp)
Ltmp110:
	.loc	5 490 1 prologue_end
	addq	$8, %rsp
	popq	%rbp
	retq
Ltmp111:
Lfunc_end37:
	.cfi_endproc

	.globl	__ZN4core3ptr8non_null16NonNull$LT$T$GT$3new17h702500211d9dd449E
	.p2align	4, 0x90
__ZN4core3ptr8non_null16NonNull$LT$T$GT$3new17h702500211d9dd449E:
Lfunc_begin38:
	.file	14 "/rustc/2c8cc343237b8f7d5a3c3703e3a87f2eb2c54a74/library/core/src/ptr" "non_null.rs"
	.loc	14 222 0
	.cfi_startproc
	pushq	%rbp
	.cfi_def_cfa_offset 16
	.cfi_offset %rbp, -16
	movq	%rsp, %rbp
	.cfi_def_cfa_register %rbp
	subq	$88, %rsp
	movq	%rdi, -88(%rbp)
	movq	%rdi, -56(%rbp)
Ltmp112:
	.loc	14 223 13 prologue_end
	movq	%rdi, -48(%rbp)
Ltmp113:
	.loc	7 52 36
	movq	%rdi, -64(%rbp)
	.loc	7 52 18 is_stmt 0
	movq	-64(%rbp), %rax
	movq	%rax, -40(%rbp)
Ltmp114:
	.loc	7 38 13 is_stmt 1
	movq	%rax, -32(%rbp)
Ltmp115:
	.loc	7 215 33
	movq	%rax, -24(%rbp)
	.loc	7 215 18 is_stmt 0
	movq	%rax, -16(%rbp)
Ltmp116:
	.loc	7 38 13 is_stmt 1
	cmpq	$0, -16(%rbp)
	sete	%al
Ltmp117:
	.loc	14 223 12
	xorb	$-1, %al
	testb	$1, %al
	jne	LBB38_2
	.loc	14 227 13
	movq	$0, -80(%rbp)
	.loc	14 223 9
	jmp	LBB38_3
LBB38_2:
	.loc	14 0 9 is_stmt 0
	movq	-88(%rbp), %rax
	.loc	14 225 47 is_stmt 1
	movq	%rax, -8(%rbp)
Ltmp118:
	.loc	14 201 13
	movq	%rax, -72(%rbp)
Ltmp119:
	.loc	14 225 13
	movq	-72(%rbp), %rax
	movq	%rax, -80(%rbp)
LBB38_3:
	.loc	14 229 6
	movq	-80(%rbp), %rax
	addq	$88, %rsp
	popq	%rbp
	retq
Ltmp120:
Lfunc_end38:
	.cfi_endproc

	.globl	__ZN4core3ptr9const_ptr33_$LT$impl$u20$$BP$const$u20$T$GT$7sub_ptr17h42b0ea912565ad6aE
	.p2align	4, 0x90
__ZN4core3ptr9const_ptr33_$LT$impl$u20$$BP$const$u20$T$GT$7sub_ptr17h42b0ea912565ad6aE:
Lfunc_begin39:
	.loc	4 791 0
	.cfi_startproc
	pushq	%rbp
	.cfi_def_cfa_offset 16
	.cfi_offset %rbp, -16
	movq	%rsp, %rbp
	.cfi_def_cfa_register %rbp
	subq	$64, %rsp
	movq	%rdi, -56(%rbp)
	movq	%rsi, -48(%rbp)
	movq	%rdi, -32(%rbp)
	movq	%rsi, -24(%rbp)
Ltmp121:
	.file	15 "/rustc/2c8cc343237b8f7d5a3c3703e3a87f2eb2c54a74/library/core/src/mem" "mod.rs"
	.loc	15 309 5 prologue_end
	movq	$1, -16(%rbp)
Ltmp122:
	.loc	4 806 17
	movb	$1, %al
	testb	$1, %al
	jne	LBB39_2
	movb	$0, -33(%rbp)
	jmp	LBB39_3
LBB39_2:
	movb	$1, -33(%rbp)
LBB39_3:
	.loc	4 806 9 is_stmt 0
	movb	-33(%rbp), %al
	xorb	$-1, %al
	testb	$1, %al
	jne	LBB39_5
	.loc	4 0 9
	movq	-48(%rbp), %rcx
	movq	-56(%rbp), %rax
	.loc	4 808 18 is_stmt 1
	subq	%rcx, %rax
	shrq	$0, %rax
	movq	%rax, -8(%rbp)
	movq	-8(%rbp), %rax
Ltmp123:
	.loc	4 809 6
	addq	$64, %rsp
	popq	%rbp
	retq
LBB39_5:
Ltmp124:
	.loc	4 806 9
	leaq	l___unnamed_11(%rip), %rdi
	leaq	l___unnamed_12(%rip), %rdx
	movl	$73, %esi
	callq	__ZN4core9panicking5panic17hc1bc45270cf64b03E
Ltmp125:
Lfunc_end39:
	.cfi_endproc

	.p2align	4, 0x90
__ZN4core4sync6atomic11AtomicUsize4load17hbce0fe8a76cede88E:
Lfunc_begin40:
	.file	16 "/rustc/2c8cc343237b8f7d5a3c3703e3a87f2eb2c54a74/library/core/src/sync" "atomic.rs"
	.loc	16 2125 0
	.cfi_startproc
	pushq	%rbp
	.cfi_def_cfa_offset 16
	.cfi_offset %rbp, -16
	movq	%rsp, %rbp
	.cfi_def_cfa_register %rbp
	subq	$32, %rsp
	movb	%sil, %al
	movq	%rdi, -24(%rbp)
	movb	%al, -9(%rbp)
Ltmp126:
	.loc	16 2127 38 prologue_end
	movq	%rdi, -8(%rbp)
	.loc	16 2127 26 is_stmt 0
	movzbl	%al, %esi
	callq	__ZN4core4sync6atomic11atomic_load17hd5a39553985aa857E
	.loc	16 2128 14 is_stmt 1
	addq	$32, %rsp
	popq	%rbp
	retq
Ltmp127:
Lfunc_end40:
	.cfi_endproc

	.p2align	4, 0x90
__ZN4core4sync6atomic11AtomicUsize5store17hc8c34bba484d9761E:
Lfunc_begin41:
	.loc	16 2152 0
	.cfi_startproc
	pushq	%rbp
	.cfi_def_cfa_offset 16
	.cfi_offset %rbp, -16
	movq	%rsp, %rbp
	.cfi_def_cfa_register %rbp
	subq	$32, %rsp
	movb	%dl, %al
	movq	%rdi, -32(%rbp)
	movq	%rsi, -24(%rbp)
	movb	%al, -9(%rbp)
Ltmp128:
	.loc	16 2154 39 prologue_end
	movq	%rdi, -8(%rbp)
	.loc	16 2154 26 is_stmt 0
	movzbl	%al, %edx
	callq	__ZN4core4sync6atomic12atomic_store17h7e350a62f79228e4E
	.loc	16 2155 14 is_stmt 1
	addq	$32, %rsp
	popq	%rbp
	retq
Ltmp129:
Lfunc_end41:
	.cfi_endproc

	.globl	__ZN4core4sync6atomic11atomic_load17h29aab114c1da5f63E
	.p2align	4, 0x90
__ZN4core4sync6atomic11atomic_load17h29aab114c1da5f63E:
Lfunc_begin42:
	.loc	16 3019 0
	.cfi_startproc
	pushq	%rbp
	.cfi_def_cfa_offset 16
	.cfi_offset %rbp, -16
	movq	%rsp, %rbp
	.cfi_def_cfa_register %rbp
	subq	$160, %rsp
	movq	%rdi, -136(%rbp)
	movb	%sil, %al
	movb	%al, -113(%rbp)
	movq	%rdi, -8(%rbp)
Ltmp130:
	.loc	16 3022 15 prologue_end
	movzbl	-113(%rbp), %eax
	movq	%rax, -128(%rbp)
	.loc	16 0 15 is_stmt 0
	movq	-128(%rbp), %rax
	leaq	LJTI42_0(%rip), %rcx
	movslq	(%rcx,%rax,4), %rax
	addq	%rcx, %rax
	jmpq	*%rax
	.loc	16 3022 15
	ud2
LBB42_2:
	.loc	16 0 15
	movq	-136(%rbp), %rax
	.loc	16 3023 24 is_stmt 1
	movq	(%rax), %rax
	movq	%rax, -112(%rbp)
	.loc	16 3023 59 is_stmt 0
	jmp	LBB42_7
LBB42_3:
	.loc	16 3026 24 is_stmt 1
	leaq	l___unnamed_13(%rip), %rsi
	leaq	l___unnamed_9(%rip), %rcx
	xorl	%eax, %eax
	movl	%eax, %r8d
	leaq	-104(%rbp), %rdi
	movq	%rdi, -144(%rbp)
	movl	$1, %edx
	callq	__ZN4core3fmt9Arguments6new_v117hee1b54895eb69abfE
	movq	-144(%rbp), %rdi
	leaq	l___unnamed_14(%rip), %rsi
	callq	__ZN4core9panicking9panic_fmt17h9b5d807e24bcaaedE
LBB42_4:
	.loc	16 0 24 is_stmt 0
	movq	-136(%rbp), %rax
	.loc	16 3024 24 is_stmt 1
	movq	(%rax), %rax
	movq	%rax, -112(%rbp)
	.loc	16 3024 59 is_stmt 0
	jmp	LBB42_7
LBB42_5:
	.loc	16 3027 23 is_stmt 1
	leaq	l___unnamed_15(%rip), %rsi
	leaq	l___unnamed_9(%rip), %rcx
	xorl	%eax, %eax
	movl	%eax, %r8d
	leaq	-56(%rbp), %rdi
	movq	%rdi, -152(%rbp)
	movl	$1, %edx
	callq	__ZN4core3fmt9Arguments6new_v117hee1b54895eb69abfE
	movq	-152(%rbp), %rdi
	leaq	l___unnamed_16(%rip), %rsi
	callq	__ZN4core9panicking9panic_fmt17h9b5d807e24bcaaedE
LBB42_6:
	.loc	16 0 23 is_stmt 0
	movq	-136(%rbp), %rax
	.loc	16 3025 23 is_stmt 1
	movq	(%rax), %rax
	movq	%rax, -112(%rbp)
LBB42_7:
	.loc	16 3030 2
	movq	-112(%rbp), %rax
	addq	$160, %rsp
	popq	%rbp
	retq
Ltmp131:
Lfunc_end42:
	.cfi_endproc
	.p2align	2, 0x90
	.data_region jt32
.set L42_0_set_2, LBB42_2-LJTI42_0
.set L42_0_set_3, LBB42_3-LJTI42_0
.set L42_0_set_4, LBB42_4-LJTI42_0
.set L42_0_set_5, LBB42_5-LJTI42_0
.set L42_0_set_6, LBB42_6-LJTI42_0
LJTI42_0:
	.long	L42_0_set_2
	.long	L42_0_set_3
	.long	L42_0_set_4
	.long	L42_0_set_5
	.long	L42_0_set_6
	.end_data_region

	.globl	__ZN4core4sync6atomic11atomic_load17hd5a39553985aa857E
	.p2align	4, 0x90
__ZN4core4sync6atomic11atomic_load17hd5a39553985aa857E:
Lfunc_begin43:
	.loc	16 3019 0
	.cfi_startproc
	pushq	%rbp
	.cfi_def_cfa_offset 16
	.cfi_offset %rbp, -16
	movq	%rsp, %rbp
	.cfi_def_cfa_register %rbp
	subq	$160, %rsp
	movq	%rdi, -136(%rbp)
	movb	%sil, %al
	movb	%al, -113(%rbp)
	movq	%rdi, -8(%rbp)
Ltmp132:
	.loc	16 3022 15 prologue_end
	movzbl	-113(%rbp), %eax
	movq	%rax, -128(%rbp)
	.loc	16 0 15 is_stmt 0
	movq	-128(%rbp), %rax
	leaq	LJTI43_0(%rip), %rcx
	movslq	(%rcx,%rax,4), %rax
	addq	%rcx, %rax
	jmpq	*%rax
	.loc	16 3022 15
	ud2
LBB43_2:
	.loc	16 0 15
	movq	-136(%rbp), %rax
	.loc	16 3023 24 is_stmt 1
	movq	(%rax), %rax
	movq	%rax, -112(%rbp)
	.loc	16 3023 59 is_stmt 0
	jmp	LBB43_7
LBB43_3:
	.loc	16 3026 24 is_stmt 1
	leaq	l___unnamed_13(%rip), %rsi
	leaq	l___unnamed_9(%rip), %rcx
	xorl	%eax, %eax
	movl	%eax, %r8d
	leaq	-104(%rbp), %rdi
	movq	%rdi, -144(%rbp)
	movl	$1, %edx
	callq	__ZN4core3fmt9Arguments6new_v117hee1b54895eb69abfE
	movq	-144(%rbp), %rdi
	leaq	l___unnamed_14(%rip), %rsi
	callq	__ZN4core9panicking9panic_fmt17h9b5d807e24bcaaedE
LBB43_4:
	.loc	16 0 24 is_stmt 0
	movq	-136(%rbp), %rax
	.loc	16 3024 24 is_stmt 1
	movq	(%rax), %rax
	movq	%rax, -112(%rbp)
	.loc	16 3024 59 is_stmt 0
	jmp	LBB43_7
LBB43_5:
	.loc	16 3027 23 is_stmt 1
	leaq	l___unnamed_15(%rip), %rsi
	leaq	l___unnamed_9(%rip), %rcx
	xorl	%eax, %eax
	movl	%eax, %r8d
	leaq	-56(%rbp), %rdi
	movq	%rdi, -152(%rbp)
	movl	$1, %edx
	callq	__ZN4core3fmt9Arguments6new_v117hee1b54895eb69abfE
	movq	-152(%rbp), %rdi
	leaq	l___unnamed_16(%rip), %rsi
	callq	__ZN4core9panicking9panic_fmt17h9b5d807e24bcaaedE
LBB43_6:
	.loc	16 0 23 is_stmt 0
	movq	-136(%rbp), %rax
	.loc	16 3025 23 is_stmt 1
	movq	(%rax), %rax
	movq	%rax, -112(%rbp)
LBB43_7:
	.loc	16 3030 2
	movq	-112(%rbp), %rax
	addq	$160, %rsp
	popq	%rbp
	retq
Ltmp133:
Lfunc_end43:
	.cfi_endproc
	.p2align	2, 0x90
	.data_region jt32
.set L43_0_set_2, LBB43_2-LJTI43_0
.set L43_0_set_3, LBB43_3-LJTI43_0
.set L43_0_set_4, LBB43_4-LJTI43_0
.set L43_0_set_5, LBB43_5-LJTI43_0
.set L43_0_set_6, LBB43_6-LJTI43_0
LJTI43_0:
	.long	L43_0_set_2
	.long	L43_0_set_3
	.long	L43_0_set_4
	.long	L43_0_set_5
	.long	L43_0_set_6
	.end_data_region

	.globl	__ZN4core4sync6atomic12atomic_store17h7e350a62f79228e4E
	.p2align	4, 0x90
__ZN4core4sync6atomic12atomic_store17h7e350a62f79228e4E:
Lfunc_begin44:
	.loc	16 3004 0
	.cfi_startproc
	pushq	%rbp
	.cfi_def_cfa_offset 16
	.cfi_offset %rbp, -16
	movq	%rsp, %rbp
	.cfi_def_cfa_register %rbp
	subq	$160, %rsp
	movq	%rsi, -144(%rbp)
	movq	%rdi, -136(%rbp)
	movb	%dl, %al
	movb	%al, -113(%rbp)
	movq	%rdi, -16(%rbp)
	movq	%rsi, -8(%rbp)
Ltmp134:
	.loc	16 3007 15 prologue_end
	movzbl	-113(%rbp), %eax
	movq	%rax, -128(%rbp)
	.loc	16 0 15 is_stmt 0
	movq	-128(%rbp), %rax
	leaq	LJTI44_0(%rip), %rcx
	movslq	(%rcx,%rax,4), %rax
	addq	%rcx, %rax
	jmpq	*%rax
	.loc	16 3007 15
	ud2
LBB44_2:
	.loc	16 0 15
	movq	-136(%rbp), %rax
	movq	-144(%rbp), %rcx
	.loc	16 3008 24 is_stmt 1
	movq	%rcx, (%rax)
	.loc	16 3008 65 is_stmt 0
	jmp	LBB44_7
LBB44_3:
	.loc	16 0 65
	movq	-136(%rbp), %rax
	movq	-144(%rbp), %rcx
	.loc	16 3009 24 is_stmt 1
	movq	%rcx, (%rax)
	.loc	16 3009 65 is_stmt 0
	jmp	LBB44_7
LBB44_4:
	.loc	16 3011 24 is_stmt 1
	leaq	l___unnamed_17(%rip), %rsi
	leaq	l___unnamed_9(%rip), %rcx
	xorl	%eax, %eax
	movl	%eax, %r8d
	leaq	-112(%rbp), %rdi
	movq	%rdi, -152(%rbp)
	movl	$1, %edx
	callq	__ZN4core3fmt9Arguments6new_v117hee1b54895eb69abfE
	movq	-152(%rbp), %rdi
	leaq	l___unnamed_18(%rip), %rsi
	callq	__ZN4core9panicking9panic_fmt17h9b5d807e24bcaaedE
LBB44_5:
	.loc	16 3012 23
	leaq	l___unnamed_19(%rip), %rsi
	leaq	l___unnamed_9(%rip), %rcx
	xorl	%eax, %eax
	movl	%eax, %r8d
	leaq	-64(%rbp), %rdi
	movq	%rdi, -160(%rbp)
	movl	$1, %edx
	callq	__ZN4core3fmt9Arguments6new_v117hee1b54895eb69abfE
	movq	-160(%rbp), %rdi
	leaq	l___unnamed_20(%rip), %rsi
	callq	__ZN4core9panicking9panic_fmt17h9b5d807e24bcaaedE
LBB44_6:
	.loc	16 0 23 is_stmt 0
	movq	-136(%rbp), %rcx
	movq	-144(%rbp), %rax
	.loc	16 3010 23 is_stmt 1
	xchgq	%rax, (%rcx)
LBB44_7:
	.loc	16 3015 2
	addq	$160, %rsp
	popq	%rbp
	retq
Ltmp135:
Lfunc_end44:
	.cfi_endproc
	.p2align	2, 0x90
	.data_region jt32
.set L44_0_set_2, LBB44_2-LJTI44_0
.set L44_0_set_3, LBB44_3-LJTI44_0
.set L44_0_set_4, LBB44_4-LJTI44_0
.set L44_0_set_5, LBB44_5-LJTI44_0
.set L44_0_set_6, LBB44_6-LJTI44_0
LJTI44_0:
	.long	L44_0_set_2
	.long	L44_0_set_3
	.long	L44_0_set_4
	.long	L44_0_set_5
	.long	L44_0_set_6
	.end_data_region

	.globl	__ZN4core4sync6atomic12atomic_store17hf504a6047c92f2e2E
	.p2align	4, 0x90
__ZN4core4sync6atomic12atomic_store17hf504a6047c92f2e2E:
Lfunc_begin45:
	.loc	16 3004 0
	.cfi_startproc
	pushq	%rbp
	.cfi_def_cfa_offset 16
	.cfi_offset %rbp, -16
	movq	%rsp, %rbp
	.cfi_def_cfa_register %rbp
	subq	$160, %rsp
	movq	%rsi, -144(%rbp)
	movq	%rdi, -136(%rbp)
	movb	%dl, %al
	movb	%al, -113(%rbp)
	movq	%rdi, -16(%rbp)
	movq	%rsi, -8(%rbp)
Ltmp136:
	.loc	16 3007 15 prologue_end
	movzbl	-113(%rbp), %eax
	movq	%rax, -128(%rbp)
	.loc	16 0 15 is_stmt 0
	movq	-128(%rbp), %rax
	leaq	LJTI45_0(%rip), %rcx
	movslq	(%rcx,%rax,4), %rax
	addq	%rcx, %rax
	jmpq	*%rax
	.loc	16 3007 15
	ud2
LBB45_2:
	.loc	16 0 15
	movq	-136(%rbp), %rax
	movq	-144(%rbp), %rcx
	.loc	16 3008 24 is_stmt 1
	movq	%rcx, (%rax)
	.loc	16 3008 65 is_stmt 0
	jmp	LBB45_7
LBB45_3:
	.loc	16 0 65
	movq	-136(%rbp), %rax
	movq	-144(%rbp), %rcx
	.loc	16 3009 24 is_stmt 1
	movq	%rcx, (%rax)
	.loc	16 3009 65 is_stmt 0
	jmp	LBB45_7
LBB45_4:
	.loc	16 3011 24 is_stmt 1
	leaq	l___unnamed_17(%rip), %rsi
	leaq	l___unnamed_9(%rip), %rcx
	xorl	%eax, %eax
	movl	%eax, %r8d
	leaq	-112(%rbp), %rdi
	movq	%rdi, -152(%rbp)
	movl	$1, %edx
	callq	__ZN4core3fmt9Arguments6new_v117hee1b54895eb69abfE
	movq	-152(%rbp), %rdi
	leaq	l___unnamed_18(%rip), %rsi
	callq	__ZN4core9panicking9panic_fmt17h9b5d807e24bcaaedE
LBB45_5:
	.loc	16 3012 23
	leaq	l___unnamed_19(%rip), %rsi
	leaq	l___unnamed_9(%rip), %rcx
	xorl	%eax, %eax
	movl	%eax, %r8d
	leaq	-64(%rbp), %rdi
	movq	%rdi, -160(%rbp)
	movl	$1, %edx
	callq	__ZN4core3fmt9Arguments6new_v117hee1b54895eb69abfE
	movq	-160(%rbp), %rdi
	leaq	l___unnamed_20(%rip), %rsi
	callq	__ZN4core9panicking9panic_fmt17h9b5d807e24bcaaedE
LBB45_6:
	.loc	16 0 23 is_stmt 0
	movq	-136(%rbp), %rcx
	movq	-144(%rbp), %rax
	.loc	16 3010 23 is_stmt 1
	xchgq	%rax, (%rcx)
LBB45_7:
	.loc	16 3015 2
	addq	$160, %rsp
	popq	%rbp
	retq
Ltmp137:
Lfunc_end45:
	.cfi_endproc
	.p2align	2, 0x90
	.data_region jt32
.set L45_0_set_2, LBB45_2-LJTI45_0
.set L45_0_set_3, LBB45_3-LJTI45_0
.set L45_0_set_4, LBB45_4-LJTI45_0
.set L45_0_set_5, LBB45_5-LJTI45_0
.set L45_0_set_6, LBB45_6-LJTI45_0
LJTI45_0:
	.long	L45_0_set_2
	.long	L45_0_set_3
	.long	L45_0_set_4
	.long	L45_0_set_5
	.long	L45_0_set_6
	.end_data_region

	.globl	__ZN4core4sync6atomic18AtomicPtr$LT$T$GT$4load17h5b566fd2a0b120e3E
	.p2align	4, 0x90
__ZN4core4sync6atomic18AtomicPtr$LT$T$GT$4load17h5b566fd2a0b120e3E:
Lfunc_begin46:
	.loc	16 1189 0
	.cfi_startproc
	pushq	%rbp
	.cfi_def_cfa_offset 16
	.cfi_offset %rbp, -16
	movq	%rsp, %rbp
	.cfi_def_cfa_register %rbp
	subq	$32, %rsp
	movb	%sil, %al
	movq	%rdi, -24(%rbp)
	movb	%al, -9(%rbp)
Ltmp138:
	.loc	16 1191 30 prologue_end
	movq	%rdi, -8(%rbp)
	.loc	16 1191 18 is_stmt 0
	movzbl	%al, %esi
	callq	__ZN4core4sync6atomic11atomic_load17h29aab114c1da5f63E
	.loc	16 1192 6 is_stmt 1
	addq	$32, %rsp
	popq	%rbp
	retq
Ltmp139:
Lfunc_end46:
	.cfi_endproc

	.globl	__ZN4core4sync6atomic18AtomicPtr$LT$T$GT$5store17hbad4f27eee096f74E
	.p2align	4, 0x90
__ZN4core4sync6atomic18AtomicPtr$LT$T$GT$5store17hbad4f27eee096f74E:
Lfunc_begin47:
	.loc	16 1218 0
	.cfi_startproc
	pushq	%rbp
	.cfi_def_cfa_offset 16
	.cfi_offset %rbp, -16
	movq	%rsp, %rbp
	.cfi_def_cfa_register %rbp
	subq	$32, %rsp
	movb	%dl, %al
	movq	%rdi, -32(%rbp)
	movq	%rsi, -24(%rbp)
	movb	%al, -9(%rbp)
Ltmp140:
	.loc	16 1221 26 prologue_end
	movq	%rdi, -8(%rbp)
	.loc	16 1221 13 is_stmt 0
	movzbl	%al, %edx
	callq	__ZN4core4sync6atomic12atomic_store17hf504a6047c92f2e2E
	.loc	16 1223 6 is_stmt 1
	addq	$32, %rsp
	popq	%rbp
	retq
Ltmp141:
Lfunc_end47:
	.cfi_endproc

	.p2align	4, 0x90
__ZN4core4sync6atomic5fence17h16c9cb8d9976afdeE:
Lfunc_begin48:
	.loc	16 3362 0
	.cfi_startproc
	pushq	%rbp
	.cfi_def_cfa_offset 16
	.cfi_offset %rbp, -16
	movq	%rsp, %rbp
	.cfi_def_cfa_register %rbp
	subq	$80, %rsp
	movb	%dil, %al
	movb	%al, -49(%rbp)
Ltmp142:
	.loc	16 3365 15 prologue_end
	movzbl	-49(%rbp), %eax
	movq	%rax, -64(%rbp)
	.loc	16 0 15 is_stmt 0
	movq	-64(%rbp), %rax
	leaq	LJTI48_0(%rip), %rcx
	movslq	(%rcx,%rax,4), %rax
	addq	%rcx, %rax
	jmpq	*%rax
	.loc	16 3365 15
	ud2
LBB48_2:
	.loc	16 3370 24 is_stmt 1
	leaq	l___unnamed_21(%rip), %rsi
	leaq	l___unnamed_9(%rip), %rcx
	xorl	%eax, %eax
	movl	%eax, %r8d
	leaq	-48(%rbp), %rdi
	movq	%rdi, -72(%rbp)
	movl	$1, %edx
	callq	__ZN4core3fmt9Arguments6new_v117hee1b54895eb69abfE
	movq	-72(%rbp), %rdi
	leaq	l___unnamed_22(%rip), %rsi
	callq	__ZN4core9panicking9panic_fmt17h9b5d807e24bcaaedE
LBB48_3:
	##MEMBARRIER
	.loc	16 3367 24
	jmp	LBB48_7
LBB48_4:
	##MEMBARRIER
	.loc	16 3366 24
	jmp	LBB48_7
LBB48_5:
	##MEMBARRIER
	.loc	16 3368 23
	jmp	LBB48_7
LBB48_6:
	.loc	16 3369 23
	mfence
LBB48_7:
	.loc	16 3373 2
	addq	$80, %rsp
	popq	%rbp
	retq
Ltmp143:
Lfunc_end48:
	.cfi_endproc
	.p2align	2, 0x90
	.data_region jt32
.set L48_0_set_2, LBB48_2-LJTI48_0
.set L48_0_set_3, LBB48_3-LJTI48_0
.set L48_0_set_4, LBB48_4-LJTI48_0
.set L48_0_set_5, LBB48_5-LJTI48_0
.set L48_0_set_6, LBB48_6-LJTI48_0
LJTI48_0:
	.long	L48_0_set_2
	.long	L48_0_set_3
	.long	L48_0_set_4
	.long	L48_0_set_5
	.long	L48_0_set_6
	.end_data_region

	.globl	__ZN4core5slice29_$LT$impl$u20$$u5b$T$u5d$$GT$10chunks_mut17h3360df23a45b5716E
	.p2align	4, 0x90
__ZN4core5slice29_$LT$impl$u20$$u5b$T$u5d$$GT$10chunks_mut17h3360df23a45b5716E:
Lfunc_begin49:
	.file	17 "/rustc/2c8cc343237b8f7d5a3c3703e3a87f2eb2c54a74/library/core/src/slice" "mod.rs"
	.loc	17 880 0
	.cfi_startproc
	pushq	%rbp
	.cfi_def_cfa_offset 16
	.cfi_offset %rbp, -16
	movq	%rsp, %rbp
	.cfi_def_cfa_register %rbp
	subq	$224, %rsp
	movq	%rdx, -224(%rbp)
	movq	%rsi, -216(%rbp)
	movq	%rdi, -208(%rbp)
	movq	%rdi, -200(%rbp)
	movq	%rcx, -176(%rbp)
	movq	%rsi, -56(%rbp)
	movq	%rdx, -48(%rbp)
Ltmp144:
	.loc	17 881 9 prologue_end
	leaq	-176(%rbp), %rax
	movq	%rax, -168(%rbp)
	leaq	L___unnamed_23(%rip), %rax
	movq	%rax, -160(%rbp)
	movq	-168(%rbp), %rax
	movq	%rax, -192(%rbp)
	movq	%rax, -40(%rbp)
	movq	-160(%rbp), %rcx
	movq	%rcx, -184(%rbp)
	movq	%rcx, -32(%rbp)
Ltmp145:
	.loc	17 881 9 is_stmt 0
	movq	(%rax), %rax
	cmpq	(%rcx), %rax
	je	LBB49_2
Ltmp146:
	.loc	17 0 9
	movq	-200(%rbp), %rax
	movq	-208(%rbp), %rcx
	movq	-224(%rbp), %rsi
	movq	-216(%rbp), %rdi
	.loc	17 882 24 is_stmt 1
	movq	%rdi, -24(%rbp)
	movq	%rsi, -16(%rbp)
	.loc	17 882 30 is_stmt 0
	movq	-176(%rbp), %rdx
	movq	%rdx, -8(%rbp)
Ltmp147:
	.file	18 "/rustc/2c8cc343237b8f7d5a3c3703e3a87f2eb2c54a74/library/core/src/slice" "iter.rs"
	.loc	18 1638 9 is_stmt 1
	movq	%rdi, (%rcx)
	movq	%rsi, 8(%rcx)
	movq	%rdx, 16(%rcx)
Ltmp148:
	.loc	17 883 6
	addq	$224, %rsp
	popq	%rbp
	retq
LBB49_2:
Ltmp149:
	.loc	17 881 9
	leaq	l___unnamed_24(%rip), %rsi
	leaq	l___unnamed_9(%rip), %rcx
	xorl	%eax, %eax
	movl	%eax, %r8d
	leaq	-104(%rbp), %rdi
	movl	$1, %edx
	callq	__ZN4core3fmt9Arguments6new_v117hee1b54895eb69abfE
	movq	-192(%rbp), %rsi
	movq	-184(%rbp), %rdx
	movq	-64(%rbp), %rax
	movq	%rax, -112(%rbp)
	movq	-72(%rbp), %rax
	movq	%rax, -120(%rbp)
	movq	-80(%rbp), %rax
	movq	%rax, -128(%rbp)
	movq	-88(%rbp), %rax
	movq	%rax, -136(%rbp)
	movq	-104(%rbp), %rax
	movq	-96(%rbp), %rcx
	movq	%rcx, -144(%rbp)
	movq	%rax, -152(%rbp)
	leaq	l___unnamed_25(%rip), %r8
	movl	$1, %edi
	leaq	-152(%rbp), %rcx
	callq	__ZN4core9panicking13assert_failed17h33354867fc44509bE
Ltmp150:
Lfunc_end49:
	.cfi_endproc

	.globl	__ZN4core5slice29_$LT$impl$u20$$u5b$T$u5d$$GT$4iter17hae4c238216b82a62E
	.p2align	4, 0x90
__ZN4core5slice29_$LT$impl$u20$$u5b$T$u5d$$GT$4iter17hae4c238216b82a62E:
Lfunc_begin50:
	.loc	17 741 0
	.cfi_startproc
	pushq	%rbp
	.cfi_def_cfa_offset 16
	.cfi_offset %rbp, -16
	movq	%rsp, %rbp
	.cfi_def_cfa_register %rbp
	subq	$16, %rsp
	movq	%rdi, -16(%rbp)
	movq	%rsi, -8(%rbp)
Ltmp151:
	.loc	17 742 9 prologue_end
	callq	__ZN4core5slice4iter13Iter$LT$T$GT$3new17ha7dceedb5587d523E
	.loc	17 743 6
	addq	$16, %rsp
	popq	%rbp
	retq
Ltmp152:
Lfunc_end50:
	.cfi_endproc

	.globl	__ZN4core5slice29_$LT$impl$u20$$u5b$T$u5d$$GT$4last17h989e049a420b69dcE
	.p2align	4, 0x90
__ZN4core5slice29_$LT$impl$u20$$u5b$T$u5d$$GT$4last17h989e049a420b69dcE:
Lfunc_begin51:
	.loc	17 294 0
	.cfi_startproc
	pushq	%rbp
	.cfi_def_cfa_offset 16
	.cfi_offset %rbp, -16
	movq	%rsp, %rbp
	.cfi_def_cfa_register %rbp
	subq	$48, %rsp
	movq	%rdi, -48(%rbp)
	movq	%rsi, -40(%rbp)
	movq	%rdi, -24(%rbp)
	movq	%rsi, -16(%rbp)
Ltmp153:
	.loc	17 295 16 prologue_end
	cmpq	$1, %rsi
	jae	LBB51_2
Ltmp154:
	.loc	17 295 56 is_stmt 0
	movq	$0, -32(%rbp)
	.loc	17 295 9
	jmp	LBB51_3
LBB51_2:
	.loc	17 0 9
	movq	-48(%rbp), %rax
	movq	-40(%rbp), %rcx
Ltmp155:
	.loc	17 295 21
	subq	$1, %rcx
	addq	%rcx, %rax
	movq	%rax, -8(%rbp)
	.loc	17 295 36
	movq	%rax, -32(%rbp)
Ltmp156:
LBB51_3:
	.loc	17 296 6 is_stmt 1
	movq	-32(%rbp), %rax
	addq	$48, %rsp
	popq	%rbp
	retq
Ltmp157:
Lfunc_end51:
	.cfi_endproc

	.globl	__ZN4core5slice29_$LT$impl$u20$$u5b$T$u5d$$GT$8is_empty17h4fb005d555be1434E
	.p2align	4, 0x90
__ZN4core5slice29_$LT$impl$u20$$u5b$T$u5d$$GT$8is_empty17h4fb005d555be1434E:
Lfunc_begin52:
	.loc	17 152 0
	.cfi_startproc
	pushq	%rbp
	.cfi_def_cfa_offset 16
	.cfi_offset %rbp, -16
	movq	%rsp, %rbp
	.cfi_def_cfa_register %rbp
	subq	$16, %rsp
	movq	%rdi, -16(%rbp)
	movq	%rsi, -8(%rbp)
Ltmp158:
	.loc	17 153 9 prologue_end
	cmpq	$0, %rsi
	sete	%al
	.loc	17 154 6
	andb	$1, %al
	movzbl	%al, %eax
	addq	$16, %rsp
	popq	%rbp
	retq
Ltmp159:
Lfunc_end52:
	.cfi_endproc

	.globl	__ZN4core5slice4iter13Iter$LT$T$GT$3new17ha7dceedb5587d523E
	.p2align	4, 0x90
__ZN4core5slice4iter13Iter$LT$T$GT$3new17ha7dceedb5587d523E:
Lfunc_begin53:
	.loc	18 82 0
	.cfi_startproc
	pushq	%rbp
	.cfi_def_cfa_offset 16
	.cfi_offset %rbp, -16
	movq	%rsp, %rbp
	.cfi_def_cfa_register %rbp
	subq	$280, %rsp
	movq	%rdi, -280(%rbp)
	movq	%rsi, -272(%rbp)
	movq	%rdi, -208(%rbp)
	movq	%rsi, -200(%rbp)
Ltmp160:
	.loc	18 83 19 prologue_end
	movq	%rdi, -184(%rbp)
	movq	%rsi, -176(%rbp)
Ltmp161:
	.loc	17 477 9
	movq	%rdi, -168(%rbp)
Ltmp162:
	.loc	18 86 21
	movq	%rdi, -160(%rbp)
Ltmp163:
	.loc	4 53 36
	movq	%rdi, -232(%rbp)
	.loc	4 53 18 is_stmt 0
	movq	-232(%rbp), %rax
	movq	%rax, -152(%rbp)
Ltmp164:
	.loc	4 39 13 is_stmt 1
	movq	%rax, -144(%rbp)
Ltmp165:
	.loc	4 209 33
	movq	%rax, -136(%rbp)
	.loc	4 209 18 is_stmt 0
	movq	%rax, -128(%rbp)
Ltmp166:
	.loc	18 89 20 is_stmt 1
	xorl	%eax, %eax
	testb	$1, %al
	jne	LBB53_2
	.loc	18 0 20 is_stmt 0
	movq	-272(%rbp), %rcx
	movq	-280(%rbp), %rax
	.loc	18 89 76
	movq	%rax, -40(%rbp)
	.loc	18 89 84
	movq	%rcx, -32(%rbp)
Ltmp167:
	.loc	4 932 18 is_stmt 1
	movq	%rax, -24(%rbp)
	.loc	4 932 30 is_stmt 0
	movq	%rcx, -16(%rbp)
Ltmp168:
	.loc	4 473 18 is_stmt 1
	addq	%rcx, %rax
	movq	%rax, -248(%rbp)
Ltmp169:
	.loc	18 89 17
	jmp	LBB53_3
LBB53_2:
	.loc	18 0 17 is_stmt 0
	movq	-272(%rbp), %rcx
	movq	-280(%rbp), %rax
	.loc	18 89 32
	movq	%rax, -120(%rbp)
	.loc	18 89 54
	movq	%rcx, -112(%rbp)
Ltmp170:
	.loc	4 1118 9 is_stmt 1
	movq	%rax, -104(%rbp)
Ltmp171:
	.loc	4 61 9
	movq	%rax, -96(%rbp)
Ltmp172:
	.loc	4 1118 40
	movq	%rcx, -88(%rbp)
Ltmp173:
	.loc	4 1100 9
	movq	%rax, -80(%rbp)
	.loc	4 1100 30 is_stmt 0
	movq	%rcx, -72(%rbp)
Ltmp174:
	.loc	4 555 18 is_stmt 1
	addq	%rcx, %rax
	movq	%rax, -64(%rbp)
	movq	-64(%rbp), %rax
	movq	%rax, -56(%rbp)
Ltmp175:
	.loc	4 100 29
	movq	%rax, -48(%rbp)
Ltmp176:
	.loc	6 118 36
	movq	%rax, -216(%rbp)
	.loc	6 118 14 is_stmt 0
	movq	-216(%rbp), %rax
	movq	%rax, -224(%rbp)
	movq	-224(%rbp), %rax
	movq	%rax, -248(%rbp)
Ltmp177:
LBB53_3:
	.loc	6 0 14
	movq	-280(%rbp), %rax
Ltmp178:
	.loc	18 91 48 is_stmt 1
	movq	%rax, -8(%rbp)
Ltmp179:
	.loc	14 201 13
	movq	%rax, -240(%rbp)
Ltmp180:
	.loc	18 91 64
	movq	-248(%rbp), %rax
	.loc	18 91 13 is_stmt 0
	movq	-240(%rbp), %rcx
	movq	%rcx, -256(%rbp)
	movq	%rax, -264(%rbp)
Ltmp181:
	.loc	18 93 6 is_stmt 1
	movq	-264(%rbp), %rax
	movq	-256(%rbp), %rdx
	addq	$280, %rsp
	popq	%rbp
	retq
Ltmp182:
Lfunc_end53:
	.cfi_endproc

	.globl	__ZN4core5slice5index74_$LT$impl$u20$core..ops..index..Index$LT$I$GT$$u20$for$u20$$u5b$T$u5d$$GT$5index17h68becb1ab44e2d7dE
	.p2align	4, 0x90
__ZN4core5slice5index74_$LT$impl$u20$core..ops..index..Index$LT$I$GT$$u20$for$u20$$u5b$T$u5d$$GT$5index17h68becb1ab44e2d7dE:
Lfunc_begin54:
	.loc	3 17 0
	.cfi_startproc
	pushq	%rbp
	.cfi_def_cfa_offset 16
	.cfi_offset %rbp, -16
	movq	%rsp, %rbp
	.cfi_def_cfa_register %rbp
	subq	$32, %rsp
	movq	%rdx, -32(%rbp)
	movq	%rsi, %rdx
	movq	%rdi, %rsi
	movq	-32(%rbp), %rdi
	movq	%rsi, -24(%rbp)
	movq	%rdx, -16(%rbp)
	movq	%rdi, -8(%rbp)
Ltmp183:
	.loc	3 18 9 prologue_end
	callq	__ZN108_$LT$core..ops..range..RangeTo$LT$usize$GT$$u20$as$u20$core..slice..index..SliceIndex$LT$$u5b$T$u5d$$GT$$GT$5index17h60cbf199da103e56E
	.loc	3 19 6
	addq	$32, %rsp
	popq	%rbp
	retq
Ltmp184:
Lfunc_end54:
	.cfi_endproc

	.globl	__ZN4core5slice5index77_$LT$impl$u20$core..ops..index..IndexMut$LT$I$GT$$u20$for$u20$$u5b$T$u5d$$GT$9index_mut17h00e187157a9ac534E
	.p2align	4, 0x90
__ZN4core5slice5index77_$LT$impl$u20$core..ops..index..IndexMut$LT$I$GT$$u20$for$u20$$u5b$T$u5d$$GT$9index_mut17h00e187157a9ac534E:
Lfunc_begin55:
	.loc	3 29 0
	.cfi_startproc
	pushq	%rbp
	.cfi_def_cfa_offset 16
	.cfi_offset %rbp, -16
	movq	%rsp, %rbp
	.cfi_def_cfa_register %rbp
	subq	$32, %rsp
	movq	%rdx, -32(%rbp)
	movq	%rsi, %rdx
	movq	%rdi, %rsi
	movq	-32(%rbp), %rdi
	movq	%rsi, -24(%rbp)
	movq	%rdx, -16(%rbp)
	movq	%rdi, -8(%rbp)
Ltmp185:
	.loc	3 30 9 prologue_end
	callq	__ZN110_$LT$core..ops..range..RangeFrom$LT$usize$GT$$u20$as$u20$core..slice..index..SliceIndex$LT$$u5b$T$u5d$$GT$$GT$9index_mut17hfdafee1eb1edc9f1E
	.loc	3 31 6
	addq	$32, %rsp
	popq	%rbp
	retq
Ltmp186:
Lfunc_end55:
	.cfi_endproc

	.globl	__ZN4core6option15Option$LT$T$GT$6unwrap17hf9819d1aeab78f49E
	.p2align	4, 0x90
__ZN4core6option15Option$LT$T$GT$6unwrap17hf9819d1aeab78f49E:
Lfunc_begin56:
	.file	19 "/rustc/2c8cc343237b8f7d5a3c3703e3a87f2eb2c54a74/library/core/src" "option.rs"
	.loc	19 820 0
	.cfi_startproc
	pushq	%rbp
	.cfi_def_cfa_offset 16
	.cfi_offset %rbp, -16
	movq	%rsp, %rbp
	.cfi_def_cfa_register %rbp
	subq	$16, %rsp
	movq	%rsi, -16(%rbp)
	movl	%edi, -8(%rbp)
Ltmp187:
	.loc	19 821 15 prologue_end
	movl	$1, %eax
	xorl	%ecx, %ecx
	cmpl	$0, -8(%rbp)
	cmoveq	%rcx, %rax
	.loc	19 821 9 is_stmt 0
	cmpq	$0, %rax
	jne	LBB56_2
	.loc	19 0 9
	movq	-16(%rbp), %rdx
	.loc	19 823 21 is_stmt 1
	leaq	l___unnamed_26(%rip), %rdi
	movl	$43, %esi
	callq	__ZN4core9panicking5panic17hc1bc45270cf64b03E
LBB56_2:
	.loc	19 822 18
	movl	-8(%rbp), %eax
	movl	%eax, -4(%rbp)
	.loc	19 825 6
	addq	$16, %rsp
	popq	%rbp
	retq
Ltmp188:
Lfunc_end56:
	.cfi_endproc

	.globl	__ZN4core6option15Option$LT$T$GT$9unwrap_or17h58c2bf2094b785f8E
	.p2align	4, 0x90
__ZN4core6option15Option$LT$T$GT$9unwrap_or17h58c2bf2094b785f8E:
Lfunc_begin57:
	.loc	19 844 0
	.cfi_startproc
	pushq	%rbp
	.cfi_def_cfa_offset 16
	.cfi_offset %rbp, -16
	movq	%rsp, %rbp
	.cfi_def_cfa_register %rbp
	subq	$56, %rsp
	movq	%rdx, -56(%rbp)
	movq	%rdi, -48(%rbp)
	movq	%rsi, -40(%rbp)
	movq	%rdx, -16(%rbp)
Ltmp189:
	.loc	19 848 15 prologue_end
	movb	$1, -17(%rbp)
	.loc	19 848 9 is_stmt 0
	cmpq	$0, -48(%rbp)
	jne	LBB57_2
	.loc	19 0 9
	movq	-56(%rbp), %rax
	.loc	19 850 21 is_stmt 1
	movb	$0, -17(%rbp)
	movq	%rax, -32(%rbp)
	jmp	LBB57_3
LBB57_2:
	.loc	19 849 18
	movq	-40(%rbp), %rax
	movq	%rax, -8(%rbp)
Ltmp190:
	.loc	19 849 24 is_stmt 0
	movq	%rax, -32(%rbp)
Ltmp191:
LBB57_3:
	.loc	19 852 5 is_stmt 1
	testb	$1, -17(%rbp)
	jne	LBB57_5
LBB57_4:
	.loc	19 852 6 is_stmt 0
	movq	-32(%rbp), %rax
	addq	$56, %rsp
	popq	%rbp
	retq
LBB57_5:
	.loc	19 852 5
	jmp	LBB57_4
Ltmp192:
Lfunc_end57:
	.cfi_endproc

	.globl	__ZN4core6result19Result$LT$T$C$E$GT$2ok17ha1c31f3c79abf553E
	.p2align	4, 0x90
__ZN4core6result19Result$LT$T$C$E$GT$2ok17ha1c31f3c79abf553E:
Lfunc_begin58:
	.loc	8 642 0 is_stmt 1
	.cfi_startproc
	pushq	%rbp
	.cfi_def_cfa_offset 16
	.cfi_offset %rbp, -16
	movq	%rsp, %rbp
	.cfi_def_cfa_register %rbp
	subq	$56, %rsp
	movq	%rdi, -56(%rbp)
Ltmp193:
	.loc	8 646 9 prologue_end
	cmpq	$0, (%rdi)
Ltmp194:
	jne	LBB58_2
Ltmp195:
	.loc	8 0 9 is_stmt 0
	movq	-56(%rbp), %rax
	.loc	8 647 16 is_stmt 1
	movq	8(%rax), %rcx
	movq	16(%rax), %rax
	movq	%rcx, -16(%rbp)
	movq	%rax, -8(%rbp)
Ltmp196:
	.loc	8 647 22 is_stmt 0
	movq	%rcx, -48(%rbp)
	movq	%rax, -40(%rbp)
Ltmp197:
	.loc	8 647 28
	jmp	LBB58_3
Ltmp198:
LBB58_2:
	.loc	8 0 28
	movq	-56(%rbp), %rax
	.loc	8 650 17 is_stmt 1
	movq	8(%rax), %rcx
	movq	%rcx, -32(%rbp)
	movq	16(%rax), %rax
	movq	%rax, -24(%rbp)
Ltmp199:
	.loc	8 650 23 is_stmt 0
	movq	$0, -48(%rbp)
Ltmp200:
LBB58_3:
	.loc	8 652 6 is_stmt 1
	movq	-48(%rbp), %rax
	movq	-40(%rbp), %rdx
	addq	$56, %rsp
	popq	%rbp
	retq
Ltmp201:
Lfunc_end58:
	.cfi_endproc

	.globl	__ZN4core9panicking13assert_failed17h33354867fc44509bE
	.p2align	4, 0x90
__ZN4core9panicking13assert_failed17h33354867fc44509bE:
Lfunc_begin59:
	.file	20 "/rustc/2c8cc343237b8f7d5a3c3703e3a87f2eb2c54a74/library/core/src" "panicking.rs"
	.loc	20 202 0
	.cfi_startproc
	pushq	%rbp
	.cfi_def_cfa_offset 16
	.cfi_offset %rbp, -16
	movq	%rsp, %rbp
	.cfi_def_cfa_register %rbp
	subq	$96, %rsp
	movq	%rcx, -80(%rbp)
Ltmp202:
	movq	%rdx, %rcx
	movq	-80(%rbp), %rdx
	movb	%dil, %al
	movq	%rsi, -72(%rbp)
	movq	%rcx, -64(%rbp)
	movb	%al, -1(%rbp)
Ltmp203:
	.loc	20 212 46 prologue_end
	movq	40(%rdx), %rcx
	movq	%rcx, -16(%rbp)
	movq	32(%rdx), %rcx
	movq	%rcx, -24(%rbp)
	movq	24(%rdx), %rcx
	movq	%rcx, -32(%rbp)
	movq	16(%rdx), %rcx
	movq	%rcx, -40(%rbp)
	movq	(%rdx), %rcx
	movq	8(%rdx), %rdx
	movq	%rdx, -48(%rbp)
	movq	%rcx, -56(%rbp)
	.loc	20 212 5 is_stmt 0
	movq	%rsp, %rcx
	movq	%r8, (%rcx)
	movzbl	%al, %edi
	leaq	l___unnamed_1(%rip), %r8
	leaq	-72(%rbp), %rsi
	leaq	-64(%rbp), %rcx
	leaq	-56(%rbp), %r9
	movq	%r8, %rdx
	callq	__ZN4core9panicking19assert_failed_inner17hccca5a268c0d7621E
Ltmp204:
Lfunc_end59:
	.cfi_endproc

	.globl	__ZN4core9panicking13assert_failed17h774f7756cd570abeE
	.p2align	4, 0x90
__ZN4core9panicking13assert_failed17h774f7756cd570abeE:
Lfunc_begin60:
	.loc	20 202 0 is_stmt 1
	.cfi_startproc
	pushq	%rbp
	.cfi_def_cfa_offset 16
	.cfi_offset %rbp, -16
	movq	%rsp, %rbp
	.cfi_def_cfa_register %rbp
	subq	$96, %rsp
	movq	%rcx, -80(%rbp)
Ltmp205:
	movq	%rdx, %rcx
	movq	-80(%rbp), %rdx
	movb	%dil, %al
	movq	%rsi, -72(%rbp)
	movq	%rcx, -64(%rbp)
	movb	%al, -1(%rbp)
Ltmp206:
	.loc	20 212 46 prologue_end
	movq	40(%rdx), %rcx
	movq	%rcx, -16(%rbp)
	movq	32(%rdx), %rcx
	movq	%rcx, -24(%rbp)
	movq	24(%rdx), %rcx
	movq	%rcx, -32(%rbp)
	movq	16(%rdx), %rcx
	movq	%rcx, -40(%rbp)
	movq	(%rdx), %rcx
	movq	8(%rdx), %rdx
	movq	%rdx, -48(%rbp)
	movq	%rcx, -56(%rbp)
	.loc	20 212 5 is_stmt 0
	movq	%rsp, %rcx
	movq	%r8, (%rcx)
	movzbl	%al, %edi
	leaq	l___unnamed_2(%rip), %r8
	leaq	-72(%rbp), %rsi
	leaq	-64(%rbp), %rcx
	leaq	-56(%rbp), %r9
	movq	%r8, %rdx
	callq	__ZN4core9panicking19assert_failed_inner17hccca5a268c0d7621E
Ltmp207:
Lfunc_end60:
	.cfi_endproc

	.globl	__ZN4core9panicking13assert_failed17ha474d651ad444535E
	.p2align	4, 0x90
__ZN4core9panicking13assert_failed17ha474d651ad444535E:
Lfunc_begin61:
	.loc	20 202 0 is_stmt 1
	.cfi_startproc
	pushq	%rbp
	.cfi_def_cfa_offset 16
	.cfi_offset %rbp, -16
	movq	%rsp, %rbp
	.cfi_def_cfa_register %rbp
	subq	$96, %rsp
	movq	%rcx, -80(%rbp)
Ltmp208:
	movq	%rdx, %rcx
	movq	-80(%rbp), %rdx
	movb	%dil, %al
	movq	%rsi, -72(%rbp)
	movq	%rcx, -64(%rbp)
	movb	%al, -1(%rbp)
Ltmp209:
	.loc	20 212 46 prologue_end
	movq	40(%rdx), %rcx
	movq	%rcx, -16(%rbp)
	movq	32(%rdx), %rcx
	movq	%rcx, -24(%rbp)
	movq	24(%rdx), %rcx
	movq	%rcx, -32(%rbp)
	movq	16(%rdx), %rcx
	movq	%rcx, -40(%rbp)
	movq	(%rdx), %rcx
	movq	8(%rdx), %rdx
	movq	%rdx, -48(%rbp)
	movq	%rcx, -56(%rbp)
	.loc	20 212 5 is_stmt 0
	movq	%rsp, %rcx
	movq	%r8, (%rcx)
	movzbl	%al, %edi
	leaq	l___unnamed_3(%rip), %r8
	leaq	-72(%rbp), %rsi
	leaq	-64(%rbp), %rcx
	leaq	-56(%rbp), %r9
	movq	%r8, %rdx
	callq	__ZN4core9panicking19assert_failed_inner17hccca5a268c0d7621E
Ltmp210:
Lfunc_end61:
	.cfi_endproc

	.globl	__ZN55_$LT$T$u20$as$u20$core..option..SpecOptionPartialEq$GT$2eq17h18f189d1855f0924E
	.p2align	4, 0x90
__ZN55_$LT$T$u20$as$u20$core..option..SpecOptionPartialEq$GT$2eq17h18f189d1855f0924E:
Lfunc_begin62:
	.loc	19 2102 0 is_stmt 1
	.cfi_startproc
	pushq	%rbp
	.cfi_def_cfa_offset 16
	.cfi_offset %rbp, -16
	movq	%rsp, %rbp
	.cfi_def_cfa_register %rbp
	subq	$64, %rsp
	movq	%rdi, -32(%rbp)
	movq	%rsi, -24(%rbp)
Ltmp211:
	.loc	19 2103 15 prologue_end
	movq	%rdi, -48(%rbp)
	movq	%rsi, -40(%rbp)
	movq	-48(%rbp), %rax
	movq	(%rax), %rax
	testq	%rax, %rax
	setne	%al
	movzbl	%al, %eax
	movq	%rax, -64(%rbp)
	.loc	19 2103 9 is_stmt 0
	je	LBB62_2
	jmp	LBB62_7
LBB62_7:
	.loc	19 0 9
	movq	-64(%rbp), %rax
	.loc	19 2103 9
	subq	$1, %rax
	je	LBB62_3
	jmp	LBB62_1
LBB62_1:
	.loc	19 2106 18 is_stmt 1
	movb	$0, -49(%rbp)
	jmp	LBB62_5
LBB62_2:
	.loc	19 2103 15
	movq	-40(%rbp), %rax
	movq	(%rax), %rdx
	movl	$1, %eax
	xorl	%ecx, %ecx
	cmpq	$0, %rdx
	cmoveq	%rcx, %rax
	.loc	19 2103 9 is_stmt 0
	cmpq	$0, %rax
	je	LBB62_6
	jmp	LBB62_1
LBB62_3:
	.loc	19 2103 15
	movq	-40(%rbp), %rax
	movq	(%rax), %rdx
	movl	$1, %eax
	xorl	%ecx, %ecx
	cmpq	$0, %rdx
	cmoveq	%rcx, %rax
	.loc	19 2103 9
	cmpq	$1, %rax
	jne	LBB62_1
	.loc	19 2104 19 is_stmt 1
	movq	-48(%rbp), %rdi
	movq	%rdi, -16(%rbp)
	.loc	19 2104 28 is_stmt 0
	movq	-40(%rbp), %rsi
	movq	%rsi, -8(%rbp)
Ltmp212:
	.loc	19 2104 35
	callq	__ZN4core3cmp5impls69_$LT$impl$u20$core..cmp..PartialEq$LT$$RF$B$GT$$u20$for$u20$$RF$A$GT$2eq17h2bc722e36dc8cad7E
	andb	$1, %al
	movb	%al, -49(%rbp)
Ltmp213:
LBB62_5:
	.loc	19 2108 6 is_stmt 1
	movb	-49(%rbp), %al
	andb	$1, %al
	movzbl	%al, %eax
	addq	$64, %rsp
	popq	%rbp
	retq
LBB62_6:
	.loc	19 2105 29
	movb	$1, -49(%rbp)
	jmp	LBB62_5
Ltmp214:
Lfunc_end62:
	.cfi_endproc

	.globl	__ZN55_$LT$T$u20$as$u20$core..option..SpecOptionPartialEq$GT$2eq17h6fe60981feaa33ffE
	.p2align	4, 0x90
__ZN55_$LT$T$u20$as$u20$core..option..SpecOptionPartialEq$GT$2eq17h6fe60981feaa33ffE:
Lfunc_begin63:
	.loc	19 2102 0
	.cfi_startproc
	pushq	%rbp
	.cfi_def_cfa_offset 16
	.cfi_offset %rbp, -16
	movq	%rsp, %rbp
	.cfi_def_cfa_register %rbp
	subq	$64, %rsp
	movq	%rdi, -32(%rbp)
	movq	%rsi, -24(%rbp)
Ltmp215:
	.loc	19 2103 15 prologue_end
	movq	%rdi, -48(%rbp)
	movq	%rsi, -40(%rbp)
	movq	-48(%rbp), %rax
	movl	(%rax), %eax
	movq	%rax, -64(%rbp)
	testq	%rax, %rax
	.loc	19 2103 9 is_stmt 0
	je	LBB63_2
	jmp	LBB63_7
LBB63_7:
	.loc	19 0 9
	movq	-64(%rbp), %rax
	.loc	19 2103 9
	subq	$1, %rax
	je	LBB63_3
	jmp	LBB63_1
LBB63_1:
	.loc	19 2106 18 is_stmt 1
	movb	$0, -49(%rbp)
	jmp	LBB63_5
LBB63_2:
	.loc	19 2103 15
	movq	-40(%rbp), %rax
	movl	(%rax), %eax
	.loc	19 2103 9 is_stmt 0
	cmpq	$0, %rax
	je	LBB63_6
	jmp	LBB63_1
LBB63_3:
	.loc	19 2103 15
	movq	-40(%rbp), %rax
	movl	(%rax), %eax
	.loc	19 2103 9
	cmpq	$1, %rax
	jne	LBB63_1
	.loc	19 2104 19 is_stmt 1
	movq	-48(%rbp), %rdi
	addq	$4, %rdi
	movq	%rdi, -16(%rbp)
	.loc	19 2104 28 is_stmt 0
	movq	-40(%rbp), %rsi
	addq	$4, %rsi
	movq	%rsi, -8(%rbp)
Ltmp216:
	.loc	19 2104 35
	callq	__ZN4core3cmp5impls54_$LT$impl$u20$core..cmp..PartialEq$u20$for$u20$i32$GT$2eq17he62c8ade4676da24E
	andb	$1, %al
	movb	%al, -49(%rbp)
Ltmp217:
LBB63_5:
	.loc	19 2108 6 is_stmt 1
	movb	-49(%rbp), %al
	andb	$1, %al
	movzbl	%al, %eax
	addq	$64, %rsp
	popq	%rbp
	retq
LBB63_6:
	.loc	19 2105 29
	movb	$1, -49(%rbp)
	jmp	LBB63_5
Ltmp218:
Lfunc_end63:
	.cfi_endproc

	.globl	__ZN63_$LT$I$u20$as$u20$core..iter..traits..collect..IntoIterator$GT$9into_iter17h8a2b27e476b3e5a9E
	.p2align	4, 0x90
__ZN63_$LT$I$u20$as$u20$core..iter..traits..collect..IntoIterator$GT$9into_iter17h8a2b27e476b3e5a9E:
Lfunc_begin64:
	.file	21 "/rustc/2c8cc343237b8f7d5a3c3703e3a87f2eb2c54a74/library/core/src/iter/traits" "collect.rs"
	.loc	21 272 0
	.cfi_startproc
	pushq	%rbp
	.cfi_def_cfa_offset 16
	.cfi_offset %rbp, -16
	movq	%rsp, %rbp
	.cfi_def_cfa_register %rbp
	movq	%rdi, %rax
Ltmp219:
	.loc	21 273 9 prologue_end
	movq	(%rsi), %rcx
	movq	%rcx, (%rdi)
	movq	8(%rsi), %rcx
	movq	%rcx, 8(%rdi)
	movq	16(%rsi), %rcx
	movq	%rcx, 16(%rdi)
	.loc	21 274 6
	popq	%rbp
	retq
Ltmp220:
Lfunc_end64:
	.cfi_endproc

	.globl	__ZN66_$LT$core..option..Option$LT$T$GT$$u20$as$u20$core..fmt..Debug$GT$3fmt17h76ed66c42087db20E
	.p2align	4, 0x90
__ZN66_$LT$core..option..Option$LT$T$GT$$u20$as$u20$core..fmt..Debug$GT$3fmt17h76ed66c42087db20E:
Lfunc_begin65:
	.loc	19 559 0
	.cfi_startproc
	pushq	%rbp
	.cfi_def_cfa_offset 16
	.cfi_offset %rbp, -16
	movq	%rsp, %rbp
	.cfi_def_cfa_register %rbp
	subq	$48, %rsp
	movq	%rdi, -48(%rbp)
	movq	%rsi, -40(%rbp)
	movq	%rdi, -16(%rbp)
	movq	%rsi, -8(%rbp)
Ltmp221:
	.loc	19 559 37 prologue_end
	movq	(%rdi), %rdx
	movl	$1, %eax
	xorl	%ecx, %ecx
	cmpq	$0, %rdx
	cmoveq	%rcx, %rax
	cmpq	$0, %rax
	jne	LBB65_2
	.loc	19 0 37 is_stmt 0
	movq	-40(%rbp), %rdi
	.loc	19 559 37
	leaq	L___unnamed_27(%rip), %rsi
	movl	$4, %edx
	callq	__ZN4core3fmt9Formatter9write_str17hb029d9999327a35fE
	andb	$1, %al
	movb	%al, -25(%rbp)
	.loc	19 559 41
	jmp	LBB65_3
LBB65_2:
	.loc	19 0 41
	movq	-40(%rbp), %rdi
	movq	-48(%rbp), %rax
	.loc	19 570 56 is_stmt 1
	movq	%rax, -24(%rbp)
Ltmp222:
	.loc	19 559 37
	leaq	L___unnamed_28(%rip), %rsi
	movl	$4, %edx
	leaq	-24(%rbp), %rcx
	leaq	l___unnamed_4(%rip), %r8
	callq	__ZN4core3fmt9Formatter25debug_tuple_field1_finish17h7c0e485bb1c7676eE
	andb	$1, %al
	movb	%al, -25(%rbp)
Ltmp223:
LBB65_3:
	.loc	19 559 42 is_stmt 0
	movb	-25(%rbp), %al
	andb	$1, %al
	movzbl	%al, %eax
	addq	$48, %rsp
	popq	%rbp
	retq
Ltmp224:
Lfunc_end65:
	.cfi_endproc

	.globl	__ZN70_$LT$core..option..Option$LT$T$GT$$u20$as$u20$core..cmp..PartialEq$GT$2eq17h07957863c370535aE
	.p2align	4, 0x90
__ZN70_$LT$core..option..Option$LT$T$GT$$u20$as$u20$core..cmp..PartialEq$GT$2eq17h07957863c370535aE:
Lfunc_begin66:
	.loc	19 2088 0 is_stmt 1
	.cfi_startproc
	pushq	%rbp
	.cfi_def_cfa_offset 16
	.cfi_offset %rbp, -16
	movq	%rsp, %rbp
	.cfi_def_cfa_register %rbp
	subq	$16, %rsp
	movq	%rdi, -16(%rbp)
	movq	%rsi, -8(%rbp)
Ltmp225:
	.loc	19 2089 9 prologue_end
	callq	__ZN55_$LT$T$u20$as$u20$core..option..SpecOptionPartialEq$GT$2eq17h6fe60981feaa33ffE
	.loc	19 2090 6
	andb	$1, %al
	movzbl	%al, %eax
	addq	$16, %rsp
	popq	%rbp
	retq
Ltmp226:
Lfunc_end66:
	.cfi_endproc

	.globl	__ZN70_$LT$core..option..Option$LT$T$GT$$u20$as$u20$core..cmp..PartialEq$GT$2eq17h75b42e3ebe074ddbE
	.p2align	4, 0x90
__ZN70_$LT$core..option..Option$LT$T$GT$$u20$as$u20$core..cmp..PartialEq$GT$2eq17h75b42e3ebe074ddbE:
Lfunc_begin67:
	.loc	19 2088 0
	.cfi_startproc
	pushq	%rbp
	.cfi_def_cfa_offset 16
	.cfi_offset %rbp, -16
	movq	%rsp, %rbp
	.cfi_def_cfa_register %rbp
	subq	$16, %rsp
	movq	%rdi, -16(%rbp)
	movq	%rsi, -8(%rbp)
Ltmp227:
	.loc	19 2089 9 prologue_end
	callq	__ZN55_$LT$T$u20$as$u20$core..option..SpecOptionPartialEq$GT$2eq17h18f189d1855f0924E
	.loc	19 2090 6
	andb	$1, %al
	movzbl	%al, %eax
	addq	$16, %rsp
	popq	%rbp
	retq
Ltmp228:
Lfunc_end67:
	.cfi_endproc

	.globl	__ZN75_$LT$core..option..Option$LT$T$GT$$u20$as$u20$core..ops..try_trait..Try$GT$6branch17h713c5166bbbefe96E
	.p2align	4, 0x90
__ZN75_$LT$core..option..Option$LT$T$GT$$u20$as$u20$core..ops..try_trait..Try$GT$6branch17h713c5166bbbefe96E:
Lfunc_begin68:
	.loc	19 2406 0
	.cfi_startproc
	pushq	%rbp
	.cfi_def_cfa_offset 16
	.cfi_offset %rbp, -16
	movq	%rsp, %rbp
	.cfi_def_cfa_register %rbp
	subq	$24, %rsp
	movq	%rdi, -24(%rbp)
Ltmp229:
	.loc	19 2407 15 prologue_end
	movq	-24(%rbp), %rdx
	movl	$1, %eax
	xorl	%ecx, %ecx
	cmpq	$0, %rdx
	cmoveq	%rcx, %rax
	.loc	19 2407 9 is_stmt 0
	cmpq	$0, %rax
	jne	LBB68_2
	.loc	19 2409 21 is_stmt 1
	movq	$0, -16(%rbp)
	.loc	19 2409 44 is_stmt 0
	jmp	LBB68_3
LBB68_2:
	.loc	19 2408 18 is_stmt 1
	movq	-24(%rbp), %rax
	movq	%rax, -8(%rbp)
Ltmp230:
	.loc	19 2408 24 is_stmt 0
	movq	%rax, -16(%rbp)
Ltmp231:
LBB68_3:
	.loc	19 2411 6 is_stmt 1
	movq	-16(%rbp), %rax
	addq	$24, %rsp
	popq	%rbp
	retq
Ltmp232:
Lfunc_end68:
	.cfi_endproc

	.globl	__ZN79_$LT$core..result..Result$LT$T$C$E$GT$$u20$as$u20$core..ops..try_trait..Try$GT$6branch17h2696aea5d6887619E
	.p2align	4, 0x90
__ZN79_$LT$core..result..Result$LT$T$C$E$GT$$u20$as$u20$core..ops..try_trait..Try$GT$6branch17h2696aea5d6887619E:
Lfunc_begin69:
	.loc	8 2090 0
	.cfi_startproc
	pushq	%rbp
	.cfi_def_cfa_offset 16
	.cfi_offset %rbp, -16
	movq	%rsp, %rbp
	.cfi_def_cfa_register %rbp
	subq	$40, %rsp
	movq	%rdi, -32(%rbp)
	movq	-32(%rbp), %rax
	movq	%rax, -40(%rbp)
Ltmp233:
	.loc	8 2091 15 prologue_end
	movl	-40(%rbp), %eax
	.loc	8 2091 9 is_stmt 0
	cmpq	$0, %rax
	jne	LBB69_2
	.loc	8 2092 16 is_stmt 1
	movl	-36(%rbp), %eax
	movl	%eax, -4(%rbp)
Ltmp234:
	.loc	8 2092 22 is_stmt 0
	movl	%eax, -20(%rbp)
	movl	$0, -24(%rbp)
Ltmp235:
	.loc	8 2092 45
	jmp	LBB69_3
LBB69_2:
	.loc	8 2093 17 is_stmt 1
	movl	-36(%rbp), %eax
	movl	%eax, -8(%rbp)
Ltmp236:
	.loc	8 2093 42 is_stmt 0
	movl	%eax, -12(%rbp)
	.loc	8 2093 23
	movl	-12(%rbp), %eax
	movl	%eax, -20(%rbp)
	movl	$1, -24(%rbp)
Ltmp237:
LBB69_3:
	.loc	8 2095 6 is_stmt 1
	movq	-24(%rbp), %rax
	addq	$40, %rsp
	popq	%rbp
	retq
Ltmp238:
Lfunc_end69:
	.cfi_endproc

	.globl	__ZN79_$LT$core..result..Result$LT$T$C$E$GT$$u20$as$u20$core..ops..try_trait..Try$GT$6branch17h2abb6f3e78601b74E
	.p2align	4, 0x90
__ZN79_$LT$core..result..Result$LT$T$C$E$GT$$u20$as$u20$core..ops..try_trait..Try$GT$6branch17h2abb6f3e78601b74E:
Lfunc_begin70:
	.loc	8 2090 0
	.cfi_startproc
	pushq	%rbp
	.cfi_def_cfa_offset 16
	.cfi_offset %rbp, -16
	movq	%rsp, %rbp
	.cfi_def_cfa_register %rbp
	subq	$24, %rsp
	movl	%edi, -20(%rbp)
Ltmp239:
	.loc	8 2091 15 prologue_end
	movl	$1, %eax
	xorl	%ecx, %ecx
	cmpl	$0, -20(%rbp)
	cmoveq	%rcx, %rax
	.loc	8 2091 9 is_stmt 0
	cmpq	$0, %rax
	jne	LBB70_2
Ltmp240:
	.loc	8 2092 22 is_stmt 1
	movl	$0, -16(%rbp)
Ltmp241:
	.loc	8 2092 45 is_stmt 0
	jmp	LBB70_3
LBB70_2:
	.loc	8 2093 17 is_stmt 1
	movl	-20(%rbp), %eax
	movl	%eax, -4(%rbp)
Ltmp242:
	.loc	8 2093 42 is_stmt 0
	movl	%eax, -12(%rbp)
	.loc	8 2093 23
	movl	-12(%rbp), %eax
	movl	%eax, -16(%rbp)
Ltmp243:
LBB70_3:
	.loc	8 2095 6 is_stmt 1
	movl	-16(%rbp), %eax
	addq	$24, %rsp
	popq	%rbp
	retq
Ltmp244:
Lfunc_end70:
	.cfi_endproc

	.globl	__ZN84_$LT$core..option..Option$LT$T$GT$$u20$as$u20$core..ops..try_trait..FromResidual$GT$13from_residual17h91e729d1f52522e1E
	.p2align	4, 0x90
__ZN84_$LT$core..option..Option$LT$T$GT$$u20$as$u20$core..ops..try_trait..FromResidual$GT$13from_residual17h91e729d1f52522e1E:
Lfunc_begin71:
	.loc	19 2418 0
	.cfi_startproc
	pushq	%rbp
	.cfi_def_cfa_offset 16
	.cfi_offset %rbp, -16
	movq	%rsp, %rbp
	.cfi_def_cfa_register %rbp
	subq	$16, %rsp
Ltmp245:
	.loc	19 2420 21 prologue_end
	movq	$0, -16(%rbp)
	.loc	19 2422 6
	movq	-16(%rbp), %rax
	addq	$16, %rsp
	popq	%rbp
	retq
Ltmp246:
Lfunc_end71:
	.cfi_endproc

	.globl	__ZN91_$LT$core..slice..iter..Iter$LT$T$GT$$u20$as$u20$core..iter..traits..iterator..Iterator$GT$4next17h5a0e8e6801925c48E
	.p2align	4, 0x90
__ZN91_$LT$core..slice..iter..Iter$LT$T$GT$$u20$as$u20$core..iter..traits..iterator..Iterator$GT$4next17h5a0e8e6801925c48E:
Lfunc_begin72:
	.file	22 "/rustc/2c8cc343237b8f7d5a3c3703e3a87f2eb2c54a74/library/core/src/slice/iter" "macros.rs"
	.loc	22 124 0
	.cfi_startproc
	pushq	%rbp
	.cfi_def_cfa_offset 16
	.cfi_offset %rbp, -16
	movq	%rsp, %rbp
	.cfi_def_cfa_register %rbp
	subq	$304, %rsp
	movq	%rdi, -304(%rbp)
	movq	%rdi, -240(%rbp)
Ltmp247:
	.loc	22 132 29 prologue_end
	movq	8(%rdi), %rax
	movq	%rax, -224(%rbp)
Ltmp248:
	.loc	14 326 9
	movq	%rax, -216(%rbp)
Ltmp249:
	.loc	7 52 36
	movq	%rax, -280(%rbp)
	.loc	7 52 18 is_stmt 0
	movq	-280(%rbp), %rax
	movq	%rax, -208(%rbp)
Ltmp250:
	.loc	7 38 13 is_stmt 1
	movq	%rax, -200(%rbp)
Ltmp251:
	.loc	7 215 33
	movq	%rax, -192(%rbp)
	.loc	7 215 18 is_stmt 0
	movq	%rax, -184(%rbp)
Ltmp252:
	.loc	22 133 24 is_stmt 1
	movb	$1, %al
	testb	$1, %al
	jne	LBB72_2
LBB72_1:
	.loc	22 0 24 is_stmt 0
	movq	-304(%rbp), %rcx
	.loc	22 136 24 is_stmt 1
	movq	8(%rcx), %rax
	movq	%rax, -136(%rbp)
	cmpq	(%rcx), %rax
	je	LBB72_4
	jmp	LBB72_3
LBB72_2:
	.loc	22 0 24 is_stmt 0
	movq	-304(%rbp), %rax
	.loc	22 134 33 is_stmt 1
	movq	(%rax), %rax
	movq	%rax, -176(%rbp)
Ltmp253:
	.loc	4 53 36
	movq	%rax, -272(%rbp)
	.loc	4 53 18 is_stmt 0
	movq	-272(%rbp), %rax
	movq	%rax, -168(%rbp)
Ltmp254:
	.loc	4 39 13 is_stmt 1
	movq	%rax, -160(%rbp)
Ltmp255:
	.loc	4 209 33
	movq	%rax, -152(%rbp)
	.loc	4 209 18 is_stmt 0
	movq	%rax, -144(%rbp)
Ltmp256:
	.loc	22 133 21 is_stmt 1
	jmp	LBB72_1
LBB72_3:
	.loc	22 0 21 is_stmt 0
	movq	-304(%rbp), %rax
	.loc	22 139 30 is_stmt 1
	movq	%rax, -128(%rbp)
Ltmp257:
	.loc	22 76 20
	xorl	%eax, %eax
	testb	$1, %al
	jne	LBB72_6
	jmp	LBB72_7
Ltmp258:
LBB72_4:
	.loc	22 137 25
	movq	$0, -296(%rbp)
LBB72_5:
	.loc	22 142 14
	movq	-296(%rbp), %rax
	addq	$304, %rsp
	popq	%rbp
	retq
LBB72_6:
	.loc	22 0 14 is_stmt 0
	movq	-304(%rbp), %rax
Ltmp259:
	.loc	22 57 29 is_stmt 1
	movq	(%rax), %rcx
	movq	%rcx, -64(%rbp)
Ltmp260:
	.loc	4 1198 9
	movq	%rcx, -56(%rbp)
Ltmp261:
	.loc	4 61 9
	movq	%rcx, -48(%rbp)
Ltmp262:
	.loc	4 1180 9
	movq	%rcx, -40(%rbp)
Ltmp263:
	.loc	4 555 18
	addq	$-1, %rcx
	movq	%rcx, -32(%rbp)
	movq	-32(%rbp), %rcx
	movq	%rcx, -24(%rbp)
Ltmp264:
	.loc	4 100 29
	movq	%rcx, -16(%rbp)
Ltmp265:
	.loc	6 118 36
	movq	%rcx, -248(%rbp)
	.loc	6 118 14 is_stmt 0
	movq	-248(%rbp), %rcx
	movq	%rcx, -256(%rbp)
	movq	-256(%rbp), %rcx
Ltmp266:
	.loc	22 57 17 is_stmt 1
	movq	%rcx, (%rax)
	.loc	22 78 21
	movq	8(%rax), %rax
	movq	%rax, -8(%rbp)
	movq	%rax, -288(%rbp)
	.loc	22 76 17
	jmp	LBB72_8
LBB72_7:
	.loc	22 0 17 is_stmt 0
	movq	-304(%rbp), %rcx
	.loc	22 80 31 is_stmt 1
	movq	8(%rcx), %rax
	movq	%rax, -120(%rbp)
Ltmp267:
	.loc	14 326 9
	movq	%rax, -112(%rbp)
Ltmp268:
	.loc	22 83 64
	movq	8(%rcx), %rdx
	movq	%rdx, -104(%rbp)
Ltmp269:
	.loc	14 326 9
	movq	%rdx, -96(%rbp)
Ltmp270:
	.loc	7 1034 18
	movq	%rdx, -88(%rbp)
Ltmp271:
	.loc	7 487 18
	addq	$1, %rdx
	movq	%rdx, -80(%rbp)
	movq	-80(%rbp), %rdx
	movq	%rdx, -72(%rbp)
Ltmp272:
	.loc	14 201 13
	movq	%rdx, -264(%rbp)
Ltmp273:
	.loc	22 83 21
	movq	-264(%rbp), %rdx
	movq	%rdx, 8(%rcx)
	.loc	22 84 21
	movq	%rax, -288(%rbp)
Ltmp274:
LBB72_8:
	.loc	22 139 30
	movq	-288(%rbp), %rax
	.loc	22 139 25 is_stmt 0
	movq	%rax, -296(%rbp)
	.loc	22 136 21 is_stmt 1
	jmp	LBB72_5
Ltmp275:
Lfunc_end72:
	.cfi_endproc

	.globl	__ZN91_$LT$core..slice..iter..Iter$LT$T$GT$$u20$as$u20$core..iter..traits..iterator..Iterator$GT$8position17hfbabad509167e12dE
	.p2align	4, 0x90
__ZN91_$LT$core..slice..iter..Iter$LT$T$GT$$u20$as$u20$core..iter..traits..iterator..Iterator$GT$8position17hfbabad509167e12dE:
Lfunc_begin73:
	.loc	22 278 0
	.cfi_startproc
	.cfi_personality 155, _rust_eh_personality
	.cfi_lsda 16, Lexception1
	pushq	%rbp
	.cfi_def_cfa_offset 16
	.cfi_offset %rbp, -16
	movq	%rsp, %rbp
	.cfi_def_cfa_register %rbp
	subq	$240, %rsp
	movq	%rdi, -192(%rbp)
	movq	%rdi, -120(%rbp)
Ltmp285:
	.loc	22 282 25 prologue_end
	movq	8(%rdi), %rax
	movq	%rax, -184(%rbp)
	movq	%rax, -112(%rbp)
Ltmp286:
	.loc	22 282 25 is_stmt 0
	xorl	%eax, %eax
	testb	$1, %al
	jne	LBB73_2
	.loc	22 0 25
	movq	-184(%rbp), %rsi
	movq	-192(%rbp), %rax
	.loc	22 282 25
	movq	(%rax), %rdi
	movq	%rsi, -32(%rbp)
Ltmp276:
	callq	__ZN4core3ptr9const_ptr33_$LT$impl$u20$$BP$const$u20$T$GT$7sub_ptr17h42b0ea912565ad6aE
Ltmp277:
	movq	%rax, -200(%rbp)
	jmp	LBB73_8
LBB73_2:
	.loc	22 0 25
	movq	-192(%rbp), %rax
	.loc	22 282 25
	movq	(%rax), %rax
	movq	%rax, -104(%rbp)
Ltmp287:
	.loc	4 209 33 is_stmt 1
	movq	%rax, -96(%rbp)
	.loc	4 209 18 is_stmt 0
	movq	%rax, -88(%rbp)
	movq	-88(%rbp), %rax
	movq	%rax, -208(%rbp)
	movq	%rax, -80(%rbp)
Ltmp288:
	.loc	4 0 18
	movq	-184(%rbp), %rax
	.loc	22 282 25 is_stmt 1
	movq	%rax, -72(%rbp)
Ltmp289:
	.loc	14 326 9
	movq	%rax, -64(%rbp)
Ltmp290:
	.loc	7 215 33
	movq	%rax, -56(%rbp)
	.loc	7 215 18 is_stmt 0
	movq	%rax, -48(%rbp)
	movq	-48(%rbp), %rax
	movq	%rax, -216(%rbp)
	movq	%rax, -40(%rbp)
Ltmp291:
	.loc	7 0 18
	movq	-216(%rbp), %rcx
	movq	-208(%rbp), %rax
Ltmp292:
	.file	23 "/rustc/2c8cc343237b8f7d5a3c3703e3a87f2eb2c54a74/library/core/src/num" "uint_macros.rs"
	.loc	23 1203 13 is_stmt 1
	subq	%rcx, %rax
	movq	%rax, -152(%rbp)
Ltmp293:
LBB73_5:
	.loc	22 283 29
	movq	$0, -144(%rbp)
Ltmp294:
	.loc	22 284 17
	jmp	LBB73_9
Ltmp295:
LBB73_6:
	.loc	22 278 13
	movq	-24(%rbp), %rdi
	callq	__Unwind_Resume
LBB73_7:
Ltmp284:
	.loc	22 0 13 is_stmt 0
	movq	%rax, %rcx
	movl	%edx, %eax
	movq	%rcx, -24(%rbp)
	movl	%eax, -16(%rbp)
	jmp	LBB73_6
LBB73_8:
	movq	-200(%rbp), %rax
Ltmp296:
	.loc	22 282 25 is_stmt 1
	movq	%rax, -152(%rbp)
	jmp	LBB73_5
Ltmp297:
LBB73_9:
Ltmp278:
	.loc	22 0 25 is_stmt 0
	movq	-192(%rbp), %rdi
Ltmp298:
	.loc	22 284 37 is_stmt 1
	callq	__ZN91_$LT$core..slice..iter..Iter$LT$T$GT$$u20$as$u20$core..iter..traits..iterator..Iterator$GT$4next17h5a0e8e6801925c48E
Ltmp279:
	movq	%rax, -224(%rbp)
	jmp	LBB73_10
LBB73_10:
	.loc	22 0 37 is_stmt 0
	movq	-224(%rbp), %rax
	.loc	22 284 37
	movq	%rax, -136(%rbp)
	.loc	22 284 27
	movq	-136(%rbp), %rdx
	movl	$1, %eax
	xorl	%ecx, %ecx
	cmpq	$0, %rdx
	cmoveq	%rcx, %rax
	cmpq	$1, %rax
	jne	LBB73_12
	.loc	22 284 32
	movq	-136(%rbp), %rax
	movq	%rax, -8(%rbp)
	.loc	22 285 24 is_stmt 1
	movq	%rax, -128(%rbp)
	movq	-128(%rbp), %rsi
Ltmp280:
	leaq	-176(%rbp), %rdi
	callq	__ZN9getrandom5error6os_err28_$u7b$$u7b$closure$u7d$$u7d$17hd6441424f31c238cE
Ltmp281:
	movb	%al, -225(%rbp)
	jmp	LBB73_14
Ltmp299:
LBB73_12:
	.loc	22 293 17
	movq	$0, -168(%rbp)
Ltmp300:
LBB73_13:
	.loc	22 294 14
	movq	-168(%rbp), %rax
	movq	-160(%rbp), %rdx
	addq	$240, %rsp
	popq	%rbp
	retq
LBB73_14:
	.loc	22 0 14 is_stmt 0
	movb	-225(%rbp), %al
Ltmp301:
	.loc	22 285 24 is_stmt 1
	testb	$1, %al
	jne	LBB73_16
	jmp	LBB73_15
LBB73_15:
	.loc	22 291 21
	movq	-144(%rbp), %rax
	addq	$1, %rax
	movq	%rax, -240(%rbp)
	setb	%al
	testb	$1, %al
	jne	LBB73_18
	jmp	LBB73_17
LBB73_16:
	.loc	22 288 41
	movq	-144(%rbp), %rax
	.loc	22 289 37
	movq	-144(%rbp), %rax
	.loc	22 289 32 is_stmt 0
	movq	%rax, -160(%rbp)
	movq	$1, -168(%rbp)
Ltmp302:
	.loc	22 294 13 is_stmt 1
	jmp	LBB73_13
LBB73_17:
	.loc	22 0 13 is_stmt 0
	movq	-240(%rbp), %rax
Ltmp303:
	.loc	22 291 21 is_stmt 1
	movq	%rax, -144(%rbp)
Ltmp304:
	.loc	22 284 17
	jmp	LBB73_9
LBB73_18:
Ltmp282:
Ltmp305:
	.loc	22 291 21
	leaq	_str.0(%rip), %rdi
	leaq	l___unnamed_29(%rip), %rdx
	movl	$28, %esi
	callq	__ZN4core9panicking5panic17hc1bc45270cf64b03E
Ltmp283:
	jmp	LBB73_19
Ltmp306:
LBB73_19:
	.loc	22 0 21 is_stmt 0
	ud2
Lfunc_end73:
	.cfi_endproc
	.section	__TEXT,__gcc_except_tab
	.p2align	2
GCC_except_table73:
Lexception1:
	.byte	255
	.byte	255
	.byte	1
	.uleb128 Lcst_end1-Lcst_begin1
Lcst_begin1:
	.uleb128 Ltmp276-Lfunc_begin73
	.uleb128 Ltmp277-Ltmp276
	.uleb128 Ltmp284-Lfunc_begin73
	.byte	0
	.uleb128 Ltmp277-Lfunc_begin73
	.uleb128 Ltmp278-Ltmp277
	.byte	0
	.byte	0
	.uleb128 Ltmp278-Lfunc_begin73
	.uleb128 Ltmp283-Ltmp278
	.uleb128 Ltmp284-Lfunc_begin73
	.byte	0
Lcst_end1:
	.p2align	2

	.section	__TEXT,__text,regular,pure_instructions
	.globl	__ZN96_$LT$core..slice..iter..ChunksMut$LT$T$GT$$u20$as$u20$core..iter..traits..iterator..Iterator$GT$4next17h301204211cd18a5dE
	.p2align	4, 0x90
__ZN96_$LT$core..slice..iter..ChunksMut$LT$T$GT$$u20$as$u20$core..iter..traits..iterator..Iterator$GT$4next17h301204211cd18a5dE:
Lfunc_begin74:
	.loc	18 1647 0 is_stmt 1
	.cfi_startproc
	pushq	%rbp
	.cfi_def_cfa_offset 16
	.cfi_offset %rbp, -16
	movq	%rsp, %rbp
	.cfi_def_cfa_register %rbp
	subq	$640, %rsp
	movq	%rdi, -616(%rbp)
	movq	%rdi, -432(%rbp)
Ltmp307:
	.loc	18 1648 12 prologue_end
	movq	(%rdi), %rcx
	movq	8(%rdi), %rax
	movq	%rcx, -424(%rbp)
	movq	%rax, -416(%rbp)
Ltmp308:
	.loc	7 1919 9
	movq	%rcx, -408(%rbp)
	movq	%rax, -400(%rbp)
Ltmp309:
	.loc	7 1901 18
	movq	%rcx, -392(%rbp)
	movq	%rax, -384(%rbp)
Ltmp310:
	.loc	6 98 14
	movq	%rcx, -560(%rbp)
	movq	%rax, -552(%rbp)
Ltmp311:
	.loc	18 1648 12
	cmpq	$0, -552(%rbp)
	jne	LBB74_2
	.loc	18 1649 13
	movq	$0, -608(%rbp)
	.loc	18 1648 9
	jmp	LBB74_5
LBB74_2:
	.loc	18 0 9 is_stmt 0
	movq	-616(%rbp), %rax
	.loc	18 1651 31 is_stmt 1
	movq	(%rax), %rdx
	movq	8(%rax), %rcx
	movq	%rdx, -376(%rbp)
	movq	%rcx, -368(%rbp)
Ltmp312:
	.loc	7 1901 18
	movq	%rdx, -360(%rbp)
	movq	%rcx, -352(%rbp)
Ltmp313:
	.loc	6 98 14
	movq	%rdx, -544(%rbp)
	movq	%rcx, -536(%rbp)
	movq	-536(%rbp), %rdi
	movq	%rdi, -344(%rbp)
Ltmp314:
	.loc	18 1651 45
	movq	16(%rax), %rsi
	movq	%rsi, -336(%rbp)
Ltmp315:
	.loc	10 1185 5
	movq	%rdi, -328(%rbp)
	.loc	10 1185 12 is_stmt 0
	movq	%rsi, -320(%rbp)
Ltmp316:
	.loc	10 833 13 is_stmt 1
	callq	__ZN4core3cmp6min_by17h5b85f2698915b6a9E
	movq	-616(%rbp), %rcx
	movq	%rax, -640(%rbp)
	movq	%rax, -312(%rbp)
Ltmp317:
	.loc	18 1653 41
	movq	(%rcx), %rdx
	movq	%rdx, -632(%rbp)
	movq	8(%rcx), %rcx
	movq	%rcx, -624(%rbp)
	movq	%rdx, -304(%rbp)
	movq	%rcx, -296(%rbp)
	.loc	18 1653 61 is_stmt 0
	movq	%rax, -288(%rbp)
Ltmp318:
	.loc	7 1966 24 is_stmt 1
	movq	%rdx, -280(%rbp)
	movq	%rcx, -272(%rbp)
Ltmp319:
	.loc	7 1901 18
	movq	%rdx, -264(%rbp)
	movq	%rcx, -256(%rbp)
Ltmp320:
	.loc	6 98 14
	movq	%rdx, -528(%rbp)
	movq	%rcx, -520(%rbp)
Ltmp321:
	.loc	7 1966 17
	cmpq	-520(%rbp), %rax
	setbe	%al
	.loc	7 1966 9 is_stmt 0
	xorb	$-1, %al
	testb	$1, %al
	jne	LBB74_4
	.loc	7 0 9
	movq	-616(%rbp), %rdx
	movq	-640(%rbp), %r8
	movq	-632(%rbp), %rsi
	movq	-624(%rbp), %rcx
	.loc	7 1969 18 is_stmt 1
	movq	%rsi, -248(%rbp)
	movq	%rcx, -240(%rbp)
	.loc	7 1969 46 is_stmt 0
	movq	%r8, -232(%rbp)
Ltmp322:
	.loc	7 2009 19 is_stmt 1
	movq	%rsi, -224(%rbp)
	movq	%rcx, -216(%rbp)
Ltmp323:
	.loc	7 1901 18
	movq	%rsi, -208(%rbp)
	movq	%rcx, -200(%rbp)
Ltmp324:
	.loc	6 98 14
	movq	%rsi, -512(%rbp)
	movq	%rcx, -504(%rbp)
	movq	-504(%rbp), %rax
	movq	%rax, -192(%rbp)
Ltmp325:
	.loc	7 2010 19
	movq	%rsi, -184(%rbp)
	movq	%rcx, -176(%rbp)
Ltmp326:
	.loc	7 2037 9
	movq	%rsi, -168(%rbp)
Ltmp327:
	.loc	7 2013 29
	movq	%rsi, -160(%rbp)
	.loc	7 2013 37 is_stmt 0
	movq	%r8, -152(%rbp)
Ltmp328:
	.loc	7 1034 18 is_stmt 1
	movq	%rsi, -144(%rbp)
	.loc	7 1034 30 is_stmt 0
	movq	%r8, -136(%rbp)
Ltmp329:
	.loc	7 487 18 is_stmt 1
	movq	%rsi, %rcx
	addq	%r8, %rcx
	movq	%rcx, -128(%rbp)
	movq	-128(%rbp), %rcx
	movq	%rcx, -120(%rbp)
Ltmp330:
	.loc	7 2015 50
	movq	%rsi, -112(%rbp)
	.loc	7 2015 55 is_stmt 0
	movq	%r8, -104(%rbp)
Ltmp331:
	.loc	5 766 24 is_stmt 1
	movq	%rsi, -96(%rbp)
Ltmp332:
	.loc	7 60 9
	movq	%rsi, -88(%rbp)
Ltmp333:
	.loc	5 766 37
	movq	%r8, -80(%rbp)
Ltmp334:
	.loc	6 135 36
	movq	%rsi, -480(%rbp)
	movq	%r8, -472(%rbp)
	.loc	6 135 14 is_stmt 0
	movq	-480(%rbp), %rdi
	movq	-472(%rbp), %rsi
	movq	%rdi, -496(%rbp)
	movq	%rsi, -488(%rbp)
	movq	-496(%rbp), %rdi
	movq	-488(%rbp), %rsi
Ltmp335:
	.loc	7 2016 50 is_stmt 1
	movq	%rcx, -72(%rbp)
	.loc	7 2016 56 is_stmt 0
	subq	%r8, %rax
	movq	%rax, -64(%rbp)
Ltmp336:
	.loc	5 766 24 is_stmt 1
	movq	%rcx, -56(%rbp)
Ltmp337:
	.loc	7 60 9
	movq	%rcx, -48(%rbp)
Ltmp338:
	.loc	5 766 37
	movq	%rax, -40(%rbp)
Ltmp339:
	.loc	6 135 36
	movq	%rcx, -448(%rbp)
	movq	%rax, -440(%rbp)
	.loc	6 135 14 is_stmt 0
	movq	-448(%rbp), %rcx
	movq	-440(%rbp), %rax
	movq	%rcx, -464(%rbp)
	movq	%rax, -456(%rbp)
	movq	-464(%rbp), %rcx
	movq	-456(%rbp), %rax
Ltmp340:
	.loc	7 2014 9 is_stmt 1
	movq	%rdi, -592(%rbp)
	movq	%rsi, -584(%rbp)
	movq	%rcx, -576(%rbp)
	movq	%rax, -568(%rbp)
Ltmp341:
	.loc	18 1653 18
	movq	-592(%rbp), %rcx
	movq	-584(%rbp), %rax
	movq	%rcx, -32(%rbp)
	movq	%rax, -24(%rbp)
	.loc	18 1653 24 is_stmt 0
	movq	-576(%rbp), %rdi
	movq	-568(%rbp), %rsi
	movq	%rdi, -16(%rbp)
	movq	%rsi, -8(%rbp)
Ltmp342:
	.loc	18 1654 13 is_stmt 1
	movq	%rdi, (%rdx)
	movq	%rsi, 8(%rdx)
	.loc	18 1656 13
	movq	%rcx, -608(%rbp)
	movq	%rax, -600(%rbp)
Ltmp343:
	.loc	18 1648 9
	jmp	LBB74_5
LBB74_4:
Ltmp344:
	.loc	7 1966 9
	leaq	l___unnamed_30(%rip), %rdi
	leaq	l___unnamed_31(%rip), %rdx
	movl	$35, %esi
	callq	__ZN4core9panicking5panic17hc1bc45270cf64b03E
Ltmp345:
LBB74_5:
	.loc	18 1658 6
	movq	-608(%rbp), %rax
	movq	-600(%rbp), %rdx
	addq	$640, %rsp
	popq	%rbp
	retq
Ltmp346:
Lfunc_end74:
	.cfi_endproc

	.globl	__ZN9getrandom5error14internal_error17h695fab74a07bda01E
	.p2align	4, 0x90
__ZN9getrandom5error14internal_error17h695fab74a07bda01E:
Lfunc_begin75:
	.file	24 "/Users/natalie/.cargo/registry/src/github.com-1ecc6299db9ec823/getrandom-0.2.8" "src/error.rs"
	.loc	24 27 0
	.cfi_startproc
	pushq	%rbp
	.cfi_def_cfa_offset 16
	.cfi_offset %rbp, -16
	movq	%rsp, %rbp
	.cfi_def_cfa_register %rbp
	subq	$16, %rsp
	movw	%di, %ax
	movw	%ax, -6(%rbp)
Ltmp347:
	.loc	24 29 40 prologue_end
	movzwl	%ax, %eax
	.loc	24 29 16 is_stmt 0
	addl	$2147483648, %eax
	movl	%eax, -16(%rbp)
	setb	%al
	testb	$1, %al
	jne	LBB75_2
	.loc	24 0 16
	movl	-16(%rbp), %edi
	.loc	24 29 16
	movl	%edi, -4(%rbp)
Ltmp348:
	.loc	24 30 20 is_stmt 1
	callq	__ZN4core3num7nonzero10NonZeroU3213new_unchecked17h0ba766819e54a404E
	.loc	24 30 5 is_stmt 0
	movl	%eax, -12(%rbp)
Ltmp349:
	.loc	24 31 2 is_stmt 1
	movl	-12(%rbp), %eax
	addq	$16, %rsp
	popq	%rbp
	retq
LBB75_2:
	.loc	24 29 16
	leaq	_str.0(%rip), %rdi
	leaq	l___unnamed_32(%rip), %rdx
	movl	$28, %esi
	callq	__ZN4core9panicking5panic17hc1bc45270cf64b03E
Ltmp350:
Lfunc_end75:
	.cfi_endproc

	.p2align	4, 0x90
__ZN9getrandom5error5Error12raw_os_error17h6cded34efc8fdf5fE:
Lfunc_begin76:
	.loc	24 77 0
	.cfi_startproc
	pushq	%rbp
	.cfi_def_cfa_offset 16
	.cfi_offset %rbp, -16
	movq	%rsp, %rbp
	.cfi_def_cfa_register %rbp
	subq	$32, %rsp
	movl	%edi, -20(%rbp)
	movl	%edi, -4(%rbp)
Ltmp351:
	.loc	24 78 12 prologue_end
	callq	__ZN4core3num7nonzero10NonZeroU323get17hd7fb81afec63d2a5E
	cmpl	$-2147483648, %eax
	jb	LBB76_2
	.loc	24 88 13
	movl	$0, -16(%rbp)
	.loc	24 78 9
	jmp	LBB76_3
LBB76_2:
	.loc	24 0 9 is_stmt 0
	movl	-20(%rbp), %edi
	.loc	24 85 28 is_stmt 1
	callq	__ZN4core3num7nonzero10NonZeroU323get17hd7fb81afec63d2a5E
	.loc	24 85 23 is_stmt 0
	movl	%eax, -12(%rbp)
	movl	$1, -16(%rbp)
LBB76_3:
	.loc	24 90 6 is_stmt 1
	movl	-16(%rbp), %eax
	movl	-12(%rbp), %edx
	addq	$32, %rsp
	popq	%rbp
	retq
Ltmp352:
Lfunc_end76:
	.cfi_endproc

	.globl	__ZN60_$LT$getrandom..error..Error$u20$as$u20$core..fmt..Debug$GT$3fmt17hadeb158b83ef992dE
	.p2align	4, 0x90
__ZN60_$LT$getrandom..error..Error$u20$as$u20$core..fmt..Debug$GT$3fmt17hadeb158b83ef992dE:
Lfunc_begin77:
	.loc	24 123 0
	.cfi_startproc
	pushq	%rbp
	.cfi_def_cfa_offset 16
	.cfi_offset %rbp, -16
	movq	%rsp, %rbp
	.cfi_def_cfa_register %rbp
	subq	$288, %rsp
	movq	%rdi, -264(%rbp)
	movq	%rdi, -16(%rbp)
	movq	%rsi, -8(%rbp)
Ltmp353:
	.loc	24 124 23 prologue_end
	leaq	l___unnamed_33(%rip), %rdx
	leaq	-256(%rbp), %rdi
	movl	$5, %ecx
	callq	__ZN4core3fmt9Formatter12debug_struct17hb330e0caa577ed3dE
	movq	-264(%rbp), %rdi
Ltmp354:
	.loc	24 125 30
	movl	(%rdi), %edi
	callq	__ZN9getrandom5error5Error12raw_os_error17h6cded34efc8fdf5fE
	movl	%edx, -236(%rbp)
	movl	%eax, -240(%rbp)
	.loc	24 125 16 is_stmt 0
	movl	-240(%rbp), %eax
	cmpq	$1, %rax
	jne	LBB77_2
	.loc	24 125 21
	movl	-236(%rbp), %eax
	movl	%eax, -228(%rbp)
	.loc	24 126 13 is_stmt 1
	leaq	L___unnamed_34(%rip), %rsi
	leaq	l___unnamed_7(%rip), %r8
	leaq	-256(%rbp), %rdi
	movl	$8, %edx
	leaq	-228(%rbp), %rcx
	callq	__ZN4core3fmt8builders11DebugStruct5field17h2147d02d385887f6E
	.loc	24 127 27
	xorps	%xmm0, %xmm0
	movaps	%xmm0, -288(%rbp)
	movaps	%xmm0, -112(%rbp)
	movaps	%xmm0, -128(%rbp)
	movaps	%xmm0, -144(%rbp)
	movaps	%xmm0, -160(%rbp)
	movaps	%xmm0, -176(%rbp)
	movaps	%xmm0, -192(%rbp)
	movaps	%xmm0, -208(%rbp)
	movaps	%xmm0, -224(%rbp)
Ltmp355:
	.loc	24 128 39
	movl	-228(%rbp), %edi
	leaq	-224(%rbp), %rsi
	movl	$128, %edx
	.loc	24 128 32 is_stmt 0
	callq	__ZN9getrandom5error6os_err17ha0eaa7cf4bc4a265E
	movq	%rdx, -80(%rbp)
	movq	%rax, -88(%rbp)
	.loc	24 128 20
	movq	-88(%rbp), %rdx
	movl	$1, %eax
	xorl	%ecx, %ecx
	cmpq	$0, %rdx
	cmoveq	%rcx, %rax
	cmpq	$1, %rax
	je	LBB77_6
	jmp	LBB77_5
Ltmp356:
LBB77_2:
	.loc	24 0 20
	movq	-264(%rbp), %rax
Ltmp357:
	.loc	24 131 50 is_stmt 1
	movl	(%rax), %edi
	.loc	24 131 36 is_stmt 0
	callq	__ZN9getrandom5error13internal_desc17h741d201078f13903E
	movq	%rdx, -48(%rbp)
	movq	%rax, -56(%rbp)
	.loc	24 131 23
	movq	-56(%rbp), %rdx
	movl	$1, %eax
	xorl	%ecx, %ecx
	cmpq	$0, %rdx
	cmoveq	%rcx, %rax
	cmpq	$1, %rax
	jne	LBB77_4
	.loc	24 0 23
	movq	-264(%rbp), %rax
	.loc	24 131 28
	movq	-56(%rbp), %rdx
	movq	-48(%rbp), %rcx
	movq	%rdx, -40(%rbp)
	movq	%rcx, -32(%rbp)
	.loc	24 132 41 is_stmt 1
	movl	(%rax), %edi
	callq	__ZN4core3num7nonzero10NonZeroU323get17hd7fb81afec63d2a5E
	movl	%eax, -24(%rbp)
	.loc	24 132 13 is_stmt 0
	leaq	-256(%rbp), %rdi
	leaq	l___unnamed_35(%rip), %rsi
	movl	$13, %edx
	leaq	-24(%rbp), %rcx
	leaq	l___unnamed_5(%rip), %r8
	callq	__ZN4core3fmt8builders11DebugStruct5field17h2147d02d385887f6E
	.loc	24 133 13 is_stmt 1
	leaq	-256(%rbp), %rdi
	leaq	l___unnamed_36(%rip), %rsi
	movl	$11, %edx
	leaq	-40(%rbp), %rcx
	leaq	l___unnamed_6(%rip), %r8
	callq	__ZN4core3fmt8builders11DebugStruct5field17h2147d02d385887f6E
	jmp	LBB77_5
Ltmp358:
LBB77_4:
	.loc	24 0 13 is_stmt 0
	movq	-264(%rbp), %rax
	.loc	24 135 40 is_stmt 1
	movl	(%rax), %edi
	callq	__ZN4core3num7nonzero10NonZeroU323get17hd7fb81afec63d2a5E
	movl	%eax, -20(%rbp)
	.loc	24 135 13 is_stmt 0
	leaq	-256(%rbp), %rdi
	leaq	l___unnamed_37(%rip), %rsi
	movl	$12, %edx
	leaq	-20(%rbp), %rcx
	leaq	l___unnamed_5(%rip), %r8
	callq	__ZN4core3fmt8builders11DebugStruct5field17h2147d02d385887f6E
LBB77_5:
	.loc	24 137 9 is_stmt 1
	leaq	-256(%rbp), %rdi
	callq	__ZN4core3fmt8builders11DebugStruct6finish17h081d244274ea39b1E
Ltmp359:
	.loc	24 138 6
	andb	$1, %al
	movzbl	%al, %eax
	addq	$288, %rsp
	popq	%rbp
	retq
LBB77_6:
Ltmp360:
	.loc	24 128 25
	movq	-88(%rbp), %rcx
	movq	-80(%rbp), %rax
	movq	%rcx, -72(%rbp)
	movq	%rax, -64(%rbp)
	.loc	24 129 17
	leaq	-256(%rbp), %rdi
	leaq	l___unnamed_36(%rip), %rsi
	movl	$11, %edx
	leaq	-72(%rbp), %rcx
	leaq	l___unnamed_6(%rip), %r8
	callq	__ZN4core3fmt8builders11DebugStruct5field17h2147d02d385887f6E
	jmp	LBB77_5
Ltmp361:
Lfunc_end77:
	.cfi_endproc

	.globl	__ZN62_$LT$getrandom..error..Error$u20$as$u20$core..fmt..Display$GT$3fmt17ha89f5e54bb831299E
	.p2align	4, 0x90
__ZN62_$LT$getrandom..error..Error$u20$as$u20$core..fmt..Display$GT$3fmt17ha89f5e54bb831299E:
Lfunc_begin78:
	.loc	24 142 0
	.cfi_startproc
	pushq	%rbp
	.cfi_def_cfa_offset 16
	.cfi_offset %rbp, -16
	movq	%rsp, %rbp
	.cfi_def_cfa_register %rbp
	subq	$416, %rsp
	movq	%rdi, -392(%rbp)
	movq	%rsi, -384(%rbp)
	movq	%rdi, -48(%rbp)
	movq	%rsi, -40(%rbp)
Ltmp362:
	.loc	24 143 30 prologue_end
	movl	(%rdi), %edi
	callq	__ZN9getrandom5error5Error12raw_os_error17h6cded34efc8fdf5fE
	movl	%edx, -364(%rbp)
	movl	%eax, -368(%rbp)
	.loc	24 143 16 is_stmt 0
	movl	-368(%rbp), %eax
	cmpq	$1, %rax
	jne	LBB78_2
	.loc	24 143 21
	movl	-364(%rbp), %eax
	movl	%eax, -356(%rbp)
	.loc	24 144 27 is_stmt 1
	xorps	%xmm0, %xmm0
	movaps	%xmm0, -416(%rbp)
	movaps	%xmm0, -240(%rbp)
	movaps	%xmm0, -256(%rbp)
	movaps	%xmm0, -272(%rbp)
	movaps	%xmm0, -288(%rbp)
	movaps	%xmm0, -304(%rbp)
	movaps	%xmm0, -320(%rbp)
	movaps	%xmm0, -336(%rbp)
	movaps	%xmm0, -352(%rbp)
Ltmp363:
	.loc	24 145 26
	movl	-356(%rbp), %edi
	leaq	-352(%rbp), %rsi
	movl	$128, %edx
	.loc	24 145 19 is_stmt 0
	callq	__ZN9getrandom5error6os_err17ha0eaa7cf4bc4a265E
	movq	%rdx, -208(%rbp)
	movq	%rax, -216(%rbp)
	movq	-216(%rbp), %rdx
	movl	$1, %eax
	xorl	%ecx, %ecx
	cmpq	$0, %rdx
	cmoveq	%rcx, %rax
	.loc	24 145 13
	cmpq	$0, %rax
	je	LBB78_6
	jmp	LBB78_7
Ltmp364:
LBB78_2:
	.loc	24 0 13
	movq	-392(%rbp), %rax
Ltmp365:
	.loc	24 149 50 is_stmt 1
	movl	(%rax), %edi
	.loc	24 149 36 is_stmt 0
	callq	__ZN9getrandom5error13internal_desc17h741d201078f13903E
	movq	%rdx, -128(%rbp)
	movq	%rax, -136(%rbp)
	.loc	24 149 23
	movq	-136(%rbp), %rdx
	movl	$1, %eax
	xorl	%ecx, %ecx
	cmpq	$0, %rdx
	cmoveq	%rcx, %rax
	cmpq	$1, %rax
	jne	LBB78_4
	.loc	24 0 23
	movq	-384(%rbp), %rdi
	.loc	24 149 28
	movq	-136(%rbp), %rsi
	movq	-128(%rbp), %rdx
	movq	%rsi, -32(%rbp)
	movq	%rdx, -24(%rbp)
	.loc	24 150 13 is_stmt 1
	callq	__ZN4core3fmt9Formatter9write_str17hb029d9999327a35fE
	andb	$1, %al
	movb	%al, -369(%rbp)
	jmp	LBB78_5
Ltmp366:
LBB78_4:
	.loc	24 0 13 is_stmt 0
	movq	-392(%rbp), %rax
	.loc	24 152 44 is_stmt 1
	movl	(%rax), %edi
	callq	__ZN4core3num7nonzero10NonZeroU323get17hd7fb81afec63d2a5E
	movl	%eax, -52(%rbp)
	.loc	24 152 13 is_stmt 0
	leaq	-52(%rbp), %rdi
	callq	__ZN4core3fmt10ArgumentV111new_display17h0fe82e2e3493ebf2E
	movq	%rax, -72(%rbp)
	movq	%rdx, -64(%rbp)
	leaq	-120(%rbp), %rdi
	leaq	l___unnamed_38(%rip), %rsi
	movl	$1, %r8d
	leaq	-72(%rbp), %rcx
	movq	%r8, %rdx
	callq	__ZN4core3fmt9Arguments6new_v117hee1b54895eb69abfE
	movq	-384(%rbp), %rdi
	leaq	-120(%rbp), %rsi
	callq	__ZN4core3fmt9Formatter9write_fmt17h9bb7721c944aee26E
	andb	$1, %al
	movb	%al, -369(%rbp)
LBB78_5:
	.loc	24 154 6 is_stmt 1
	movb	-369(%rbp), %al
	andb	$1, %al
	movzbl	%al, %eax
	addq	$416, %rsp
	popq	%rbp
	retq
LBB78_6:
Ltmp367:
	.loc	24 147 25
	leaq	-356(%rbp), %rdi
	callq	__ZN4core3fmt10ArgumentV111new_display17h21e459089db4f4d8E
	movq	%rax, -152(%rbp)
	movq	%rdx, -144(%rbp)
	leaq	-200(%rbp), %rdi
	leaq	l___unnamed_39(%rip), %rsi
	movl	$1, %r8d
	leaq	-152(%rbp), %rcx
	movq	%r8, %rdx
	callq	__ZN4core3fmt9Arguments6new_v117hee1b54895eb69abfE
	movq	-384(%rbp), %rdi
	leaq	-200(%rbp), %rsi
	callq	__ZN4core3fmt9Formatter9write_fmt17h9bb7721c944aee26E
	andb	$1, %al
	movb	%al, -369(%rbp)
	jmp	LBB78_5
LBB78_7:
	.loc	24 0 25 is_stmt 0
	movq	-384(%rbp), %rdx
	.loc	24 146 22 is_stmt 1
	movq	-216(%rbp), %rdi
	movq	-208(%rbp), %rsi
	movq	%rdi, -16(%rbp)
	movq	%rsi, -8(%rbp)
Ltmp368:
	.loc	24 146 30 is_stmt 0
	callq	__ZN42_$LT$str$u20$as$u20$core..fmt..Display$GT$3fmt17hd1cabce055ea2fbdE
	andb	$1, %al
	movb	%al, -369(%rbp)
	jmp	LBB78_5
Ltmp369:
Lfunc_end78:
	.cfi_endproc

	.globl	__ZN101_$LT$getrandom..error..Error$u20$as$u20$core..convert..From$LT$core..num..nonzero..NonZeroU32$GT$$GT$4from17hf5b207d3c44f37deE
	.p2align	4, 0x90
__ZN101_$LT$getrandom..error..Error$u20$as$u20$core..convert..From$LT$core..num..nonzero..NonZeroU32$GT$$GT$4from17hf5b207d3c44f37deE:
Lfunc_begin79:
	.loc	24 158 0 is_stmt 1
	.cfi_startproc
	pushq	%rbp
	.cfi_def_cfa_offset 16
	.cfi_offset %rbp, -16
	movq	%rsp, %rbp
	.cfi_def_cfa_register %rbp
	pushq	%rax
	movl	%edi, -4(%rbp)
Ltmp370:
	.loc	24 159 9 prologue_end
	movl	%edi, -8(%rbp)
	.loc	24 160 6
	movl	-8(%rbp), %eax
	addq	$8, %rsp
	popq	%rbp
	retq
Ltmp371:
Lfunc_end79:
	.cfi_endproc

	.p2align	4, 0x90
__ZN9getrandom5error13internal_desc17h741d201078f13903E:
Lfunc_begin80:
	.loc	24 163 0
	.cfi_startproc
	pushq	%rbp
	.cfi_def_cfa_offset 16
	.cfi_offset %rbp, -16
	movq	%rsp, %rbp
	.cfi_def_cfa_register %rbp
	subq	$32, %rsp
	movl	%edi, %eax
	movl	%eax, -4(%rbp)
Ltmp372:
	.loc	24 164 5 prologue_end
	addl	$-2147483648, %eax
	movl	%eax, %ecx
	movq	%rcx, -32(%rbp)
	subl	$14, %eax
	ja	LBB80_1
	.loc	24 0 5 is_stmt 0
	movq	-32(%rbp), %rax
	leaq	LJTI80_0(%rip), %rcx
	movslq	(%rcx,%rax,4), %rax
	addq	%rcx, %rax
	jmpq	*%rax
LBB80_1:
	.loc	24 177 14 is_stmt 1
	movq	$0, -24(%rbp)
	jmp	LBB80_14
LBB80_2:
	.loc	24 165 31
	leaq	l___unnamed_40(%rip), %rax
	movq	%rax, -24(%rbp)
	movq	$39, -16(%rbp)
	.loc	24 165 77 is_stmt 0
	jmp	LBB80_14
LBB80_3:
	.loc	24 166 38 is_stmt 1
	leaq	l___unnamed_41(%rip), %rax
	movq	%rax, -24(%rbp)
	movq	$38, -16(%rbp)
	.loc	24 166 83 is_stmt 0
	jmp	LBB80_14
LBB80_4:
	.loc	24 167 34 is_stmt 1
	leaq	l___unnamed_42(%rip), %rax
	movq	%rax, -24(%rbp)
	movq	$50, -16(%rbp)
	.loc	24 167 91 is_stmt 0
	jmp	LBB80_14
LBB80_5:
	.loc	24 168 42 is_stmt 1
	leaq	l___unnamed_43(%rip), %rax
	movq	%rax, -24(%rbp)
	movq	$45, -16(%rbp)
	.loc	24 168 94 is_stmt 0
	jmp	LBB80_14
LBB80_6:
	.loc	24 169 33 is_stmt 1
	leaq	l___unnamed_44(%rip), %rax
	movq	%rax, -24(%rbp)
	movq	$47, -16(%rbp)
	.loc	24 169 87 is_stmt 0
	jmp	LBB80_14
LBB80_7:
	.loc	24 170 29 is_stmt 1
	leaq	l___unnamed_45(%rip), %rax
	movq	%rax, -24(%rbp)
	movq	$33, -16(%rbp)
	.loc	24 170 69 is_stmt 0
	jmp	LBB80_14
LBB80_8:
	.loc	24 171 30 is_stmt 1
	leaq	l___unnamed_46(%rip), %rax
	movq	%rax, -24(%rbp)
	movq	$29, -16(%rbp)
	.loc	24 171 66 is_stmt 0
	jmp	LBB80_14
LBB80_9:
	.loc	24 172 41 is_stmt 1
	leaq	l___unnamed_47(%rip), %rax
	movq	%rax, -24(%rbp)
	movq	$45, -16(%rbp)
	.loc	24 172 93 is_stmt 0
	jmp	LBB80_14
LBB80_10:
	.loc	24 173 39 is_stmt 1
	leaq	l___unnamed_48(%rip), %rax
	movq	%rax, -24(%rbp)
	movq	$49, -16(%rbp)
	.loc	24 173 95 is_stmt 0
	jmp	LBB80_14
LBB80_11:
	.loc	24 174 31 is_stmt 1
	leaq	l___unnamed_49(%rip), %rax
	movq	%rax, -24(%rbp)
	movq	$45, -16(%rbp)
	.loc	24 174 83 is_stmt 0
	jmp	LBB80_14
LBB80_12:
	.loc	24 175 41 is_stmt 1
	leaq	l___unnamed_50(%rip), %rax
	movq	%rax, -24(%rbp)
	movq	$48, -16(%rbp)
	.loc	24 175 96 is_stmt 0
	jmp	LBB80_14
LBB80_13:
	.loc	24 176 34 is_stmt 1
	leaq	l___unnamed_51(%rip), %rax
	movq	%rax, -24(%rbp)
	movq	$101, -16(%rbp)
LBB80_14:
	.loc	24 179 2
	movq	-24(%rbp), %rax
	movq	-16(%rbp), %rdx
	addq	$32, %rsp
	popq	%rbp
	retq
Ltmp373:
Lfunc_end80:
	.cfi_endproc
	.p2align	2, 0x90
	.data_region jt32
.set L80_0_set_2, LBB80_2-LJTI80_0
.set L80_0_set_3, LBB80_3-LJTI80_0
.set L80_0_set_1, LBB80_1-LJTI80_0
.set L80_0_set_4, LBB80_4-LJTI80_0
.set L80_0_set_5, LBB80_5-LJTI80_0
.set L80_0_set_6, LBB80_6-LJTI80_0
.set L80_0_set_7, LBB80_7-LJTI80_0
.set L80_0_set_8, LBB80_8-LJTI80_0
.set L80_0_set_9, LBB80_9-LJTI80_0
.set L80_0_set_10, LBB80_10-LJTI80_0
.set L80_0_set_11, LBB80_11-LJTI80_0
.set L80_0_set_12, LBB80_12-LJTI80_0
.set L80_0_set_13, LBB80_13-LJTI80_0
LJTI80_0:
	.long	L80_0_set_2
	.long	L80_0_set_3
	.long	L80_0_set_1
	.long	L80_0_set_4
	.long	L80_0_set_5
	.long	L80_0_set_6
	.long	L80_0_set_7
	.long	L80_0_set_8
	.long	L80_0_set_9
	.long	L80_0_set_1
	.long	L80_0_set_1
	.long	L80_0_set_10
	.long	L80_0_set_11
	.long	L80_0_set_12
	.long	L80_0_set_13
	.end_data_region

	.globl	__ZN9getrandom9getrandom17h1364b98d5de34595E
	.p2align	4, 0x90
__ZN9getrandom9getrandom17h1364b98d5de34595E:
Lfunc_begin81:
	.file	25 "/Users/natalie/.cargo/registry/src/github.com-1ecc6299db9ec823/getrandom-0.2.8" "src/lib.rs"
	.loc	25 286 0
	.cfi_startproc
	pushq	%rbp
	.cfi_def_cfa_offset 16
	.cfi_offset %rbp, -16
	movq	%rsp, %rbp
	.cfi_def_cfa_register %rbp
	subq	$48, %rsp
	movq	%rdi, -40(%rbp)
	movq	%rsi, -32(%rbp)
	movq	%rdi, -16(%rbp)
	movq	%rsi, -8(%rbp)
Ltmp374:
	.loc	25 287 8 prologue_end
	callq	__ZN4core5slice29_$LT$impl$u20$$u5b$T$u5d$$GT$8is_empty17h4fb005d555be1434E
	testb	$1, %al
	jne	LBB81_2
	.loc	25 0 8 is_stmt 0
	movq	-32(%rbp), %rsi
	movq	-40(%rbp), %rdi
	.loc	25 290 5 is_stmt 1
	callq	__ZN9getrandom3imp15getrandom_inner17h94d7ad3a6766f5ecE
	movl	%eax, -20(%rbp)
	jmp	LBB81_3
LBB81_2:
	.loc	25 288 16
	movl	$0, -20(%rbp)
LBB81_3:
	.loc	25 291 2
	movl	-20(%rbp), %eax
	addq	$48, %rsp
	popq	%rbp
	retq
Ltmp375:
Lfunc_end81:
	.cfi_endproc

	.p2align	4, 0x90
__ZN9getrandom5error6os_err17ha0eaa7cf4bc4a265E:
Lfunc_begin82:
	.loc	24 104 0
	.cfi_startproc
	pushq	%rbp
	.cfi_def_cfa_offset 16
	.cfi_offset %rbp, -16
	movq	%rsp, %rbp
	.cfi_def_cfa_register %rbp
	subq	$160, %rsp
	movq	%rsi, -144(%rbp)
	movq	%rdx, -136(%rbp)
	movl	%edi, -60(%rbp)
	movq	%rsi, -56(%rbp)
	movq	%rdx, -48(%rbp)
	movq	%rsi, -16(%rbp)
	movq	%rdx, -8(%rbp)
Ltmp376:
	.loc	24 105 27 prologue_end
	movq	%rsi, -40(%rbp)
Ltmp377:
	.loc	24 106 25
	callq	_strerror_r
	.loc	24 106 16 is_stmt 0
	cmpl	$0, %eax
	jne	LBB82_2
	.loc	24 0 16
	movq	-136(%rbp), %rsi
	movq	-144(%rbp), %rdi
	.loc	24 111 21 is_stmt 1
	movq	%rsi, -32(%rbp)
Ltmp378:
	.loc	24 112 23
	callq	__ZN4core5slice29_$LT$impl$u20$$u5b$T$u5d$$GT$4iter17hae4c238216b82a62E
	movq	%rdx, -104(%rbp)
	movq	%rax, -112(%rbp)
	leaq	-112(%rbp), %rdi
	callq	__ZN91_$LT$core..slice..iter..Iter$LT$T$GT$$u20$as$u20$core..iter..traits..iterator..Iterator$GT$8position17hfbabad509167e12dE
	movq	%rax, %rdi
	movq	%rdx, %rsi
	movq	-136(%rbp), %rdx
	callq	__ZN4core6option15Option$LT$T$GT$9unwrap_or17h58c2bf2094b785f8E
	movq	-144(%rbp), %rdi
	movq	-136(%rbp), %rsi
	movq	%rax, -24(%rbp)
Ltmp379:
	.loc	24 113 39
	movq	%rax, -72(%rbp)
	.loc	24 113 35 is_stmt 0
	movq	-72(%rbp), %rdx
	leaq	l___unnamed_52(%rip), %rcx
	callq	__ZN4core5slice5index74_$LT$impl$u20$core..ops..index..Index$LT$I$GT$$u20$for$u20$$u5b$T$u5d$$GT$5index17h68becb1ab44e2d7dE
	movq	%rax, %rsi
	leaq	-96(%rbp), %rdi
	movq	%rdi, -152(%rbp)
	.loc	24 113 13
	callq	__ZN4core3str8converts9from_utf817h97544f31e939b049E
	movq	-152(%rbp), %rdi
	callq	__ZN4core6result19Result$LT$T$C$E$GT$2ok17ha1c31f3c79abf553E
	movq	%rdx, -120(%rbp)
	movq	%rax, -128(%rbp)
	jmp	LBB82_3
Ltmp380:
LBB82_2:
	.loc	24 107 24 is_stmt 1
	movq	$0, -128(%rbp)
Ltmp381:
LBB82_3:
	.loc	24 114 10
	movq	-128(%rbp), %rax
	movq	-120(%rbp), %rdx
	addq	$160, %rsp
	popq	%rbp
	retq
Ltmp382:
Lfunc_end82:
	.cfi_endproc

	.p2align	4, 0x90
__ZN9getrandom5error6os_err28_$u7b$$u7b$closure$u7d$$u7d$17hd6441424f31c238cE:
Lfunc_begin83:
	.loc	24 112 0
	.cfi_startproc
	pushq	%rbp
	.cfi_def_cfa_offset 16
	.cfi_offset %rbp, -16
	movq	%rsp, %rbp
	.cfi_def_cfa_register %rbp
	subq	$24, %rsp
	movq	%rdi, -24(%rbp)
	movq	%rsi, -16(%rbp)
Ltmp383:
	.loc	24 112 45 prologue_end
	movb	(%rsi), %al
	movb	%al, -1(%rbp)
Ltmp384:
	.loc	24 112 48 is_stmt 0
	cmpb	$0, %al
	sete	%al
Ltmp385:
	.loc	24 112 54
	andb	$1, %al
	movzbl	%al, %eax
	addq	$24, %rsp
	popq	%rbp
	retq
Ltmp386:
Lfunc_end83:
	.cfi_endproc

	.p2align	4, 0x90
__ZN9getrandom9util_libc13last_os_error17hac00c6582dcff2c6E:
Lfunc_begin84:
	.file	26 "/Users/natalie/.cargo/registry/src/github.com-1ecc6299db9ec823/getrandom-0.2.8" "src/util_libc.rs"
	.loc	26 49 0 is_stmt 1
	.cfi_startproc
	pushq	%rbp
	.cfi_def_cfa_offset 16
	.cfi_offset %rbp, -16
	movq	%rsp, %rbp
	.cfi_def_cfa_register %rbp
	subq	$16, %rsp
Ltmp387:
	.loc	26 50 26 prologue_end
	callq	__ZN9getrandom9util_libc9get_errno17hac4ca4354ee5828aE
	movl	%eax, -12(%rbp)
	movl	%eax, -4(%rbp)
Ltmp388:
	.loc	26 51 8
	cmpl	$0, %eax
	jg	LBB84_2
	.loc	26 54 9
	movl	$-2147483647, -8(%rbp)
	.loc	26 51 5
	jmp	LBB84_3
LBB84_2:
	.loc	26 0 5 is_stmt 0
	movl	-12(%rbp), %edi
	.loc	26 52 21 is_stmt 1
	callq	__ZN4core3num7nonzero10NonZeroU323new17hf37357f701431e1dE
	movl	%eax, %edi
	leaq	l___unnamed_53(%rip), %rsi
	callq	__ZN4core6option15Option$LT$T$GT$6unwrap17hf9819d1aeab78f49E
	movl	%eax, %edi
	.loc	26 52 9 is_stmt 0
	callq	__ZN101_$LT$getrandom..error..Error$u20$as$u20$core..convert..From$LT$core..num..nonzero..NonZeroU32$GT$$GT$4from17hf5b207d3c44f37deE
	movl	%eax, -8(%rbp)
Ltmp389:
LBB84_3:
	.loc	26 56 2 is_stmt 1
	movl	-8(%rbp), %eax
	addq	$16, %rsp
	popq	%rbp
	retq
Ltmp390:
Lfunc_end84:
	.cfi_endproc

	.p2align	4, 0x90
__ZN9getrandom9util_libc14sys_fill_exact17h88e0d6a6f4bcb6dbE:
Lfunc_begin85:
	.loc	26 61 0
	.cfi_startproc
	.cfi_personality 155, _rust_eh_personality
	.cfi_lsda 16, Lexception2
	pushq	%rbp
	.cfi_def_cfa_offset 16
	.cfi_offset %rbp, -16
	movq	%rsp, %rbp
	.cfi_def_cfa_register %rbp
	subq	$144, %rsp
	movq	%rdi, -96(%rbp)
	movq	%rsi, -88(%rbp)
	movq	%rdx, -80(%rbp)
LBB85_1:
Ltmp404:
	.loc	26 65 12 prologue_end
	movq	-96(%rbp), %rdi
	movq	-88(%rbp), %rsi
Ltmp391:
	callq	__ZN4core5slice29_$LT$impl$u20$$u5b$T$u5d$$GT$8is_empty17h4fb005d555be1434E
Ltmp392:
	movb	%al, -97(%rbp)
	jmp	LBB85_4
LBB85_2:
	.loc	26 61 1
	movq	-32(%rbp), %rdi
	callq	__Unwind_Resume
LBB85_3:
Ltmp403:
	.loc	26 0 1 is_stmt 0
	movq	%rax, %rcx
	movl	%edx, %eax
	movq	%rcx, -32(%rbp)
	movl	%eax, -24(%rbp)
	jmp	LBB85_2
LBB85_4:
	movb	-97(%rbp), %al
	.loc	26 65 11 is_stmt 1
	xorb	$-1, %al
	testb	$1, %al
	jne	LBB85_6
	.loc	26 79 5
	movl	$0, -68(%rbp)
	.loc	26 80 1
	jmp	LBB85_14
LBB85_6:
	.loc	26 66 28
	movq	-96(%rbp), %rcx
	movq	-88(%rbp), %rax
	.loc	26 66 19 is_stmt 0
	movq	%rcx, -64(%rbp)
	movq	%rax, -56(%rbp)
	movq	-64(%rbp), %rsi
	movq	-56(%rbp), %rdx
Ltmp393:
	leaq	-80(%rbp), %rdi
	callq	__ZN9getrandom8use_file15getrandom_inner28_$u7b$$u7b$closure$u7d$$u7d$17h42e153355da92e6eE
Ltmp394:
	movq	%rax, -112(%rbp)
	jmp	LBB85_7
LBB85_7:
	.loc	26 0 19
	movq	-112(%rbp), %rax
	.loc	26 66 19
	movq	%rax, -16(%rbp)
Ltmp405:
	.loc	26 67 12 is_stmt 1
	cmpq	$0, %rax
	jl	LBB85_9
	.loc	26 0 12 is_stmt 0
	movq	-112(%rbp), %rax
	.loc	26 76 24 is_stmt 1
	movq	-96(%rbp), %rdi
	movq	-88(%rbp), %rsi
	.loc	26 76 28 is_stmt 0
	movq	%rax, -40(%rbp)
	.loc	26 76 24
	movq	-40(%rbp), %rdx
Ltmp395:
	leaq	l___unnamed_54(%rip), %rcx
	callq	__ZN4core5slice5index77_$LT$impl$u20$core..ops..index..IndexMut$LT$I$GT$$u20$for$u20$$u5b$T$u5d$$GT$9index_mut17h00e187157a9ac534E
Ltmp396:
	movq	%rdx, -128(%rbp)
	movq	%rax, -120(%rbp)
	jmp	LBB85_15
LBB85_9:
Ltmp397:
	.loc	26 68 23 is_stmt 1
	callq	__ZN9getrandom9util_libc13last_os_error17hac00c6582dcff2c6E
Ltmp398:
	movl	%eax, -132(%rbp)
	jmp	LBB85_10
LBB85_10:
	.loc	26 0 23 is_stmt 0
	movl	-132(%rbp), %edi
	.loc	26 68 23
	movl	%edi, -4(%rbp)
Ltmp399:
Ltmp406:
	.loc	26 70 16 is_stmt 1
	callq	__ZN9getrandom5error5Error12raw_os_error17h6cded34efc8fdf5fE
Ltmp400:
	movl	%edx, -140(%rbp)
	movl	%eax, -136(%rbp)
	jmp	LBB85_11
LBB85_11:
	.loc	26 0 16 is_stmt 0
	movl	-140(%rbp), %eax
	movl	-136(%rbp), %ecx
	.loc	26 70 16
	movl	%ecx, -48(%rbp)
	movl	%eax, -44(%rbp)
Ltmp401:
	leaq	L___unnamed_55(%rip), %rsi
	leaq	-48(%rbp), %rdi
	callq	__ZN4core3cmp9PartialEq2ne17h2895f2938a801e32E
Ltmp402:
	movb	%al, -141(%rbp)
	jmp	LBB85_12
LBB85_12:
	.loc	26 0 16
	movb	-141(%rbp), %al
	.loc	26 70 16
	testb	$1, %al
	jne	LBB85_13
	jmp	LBB85_1
LBB85_13:
	.loc	26 0 16
	movl	-132(%rbp), %eax
	.loc	26 71 24 is_stmt 1
	movl	%eax, -68(%rbp)
Ltmp407:
LBB85_14:
	.loc	26 80 2
	movl	-68(%rbp), %eax
	addq	$144, %rsp
	popq	%rbp
	retq
LBB85_15:
	.loc	26 0 2 is_stmt 0
	movq	-128(%rbp), %rax
	movq	-120(%rbp), %rcx
Ltmp408:
	.loc	26 76 13 is_stmt 1
	movq	%rcx, -96(%rbp)
	movq	%rax, -88(%rbp)
	.loc	26 67 9
	jmp	LBB85_1
Ltmp409:
Lfunc_end85:
	.cfi_endproc
	.section	__TEXT,__gcc_except_tab
	.p2align	2
GCC_except_table85:
Lexception2:
	.byte	255
	.byte	255
	.byte	1
	.uleb128 Lcst_end2-Lcst_begin2
Lcst_begin2:
	.uleb128 Ltmp391-Lfunc_begin85
	.uleb128 Ltmp392-Ltmp391
	.uleb128 Ltmp403-Lfunc_begin85
	.byte	0
	.uleb128 Ltmp392-Lfunc_begin85
	.uleb128 Ltmp393-Ltmp392
	.byte	0
	.byte	0
	.uleb128 Ltmp393-Lfunc_begin85
	.uleb128 Ltmp402-Ltmp393
	.uleb128 Ltmp403-Lfunc_begin85
	.byte	0
Lcst_end2:
	.p2align	2

	.section	__TEXT,__text,regular,pure_instructions
	.p2align	4, 0x90
__ZN9getrandom9util_libc4Weak3ptr17h966842af75ebdf96E:
Lfunc_begin86:
	.loc	26 114 0
	.cfi_startproc
	pushq	%rbp
	.cfi_def_cfa_offset 16
	.cfi_offset %rbp, -16
	movq	%rsp, %rbp
	.cfi_def_cfa_register %rbp
	subq	$144, %rsp
	movq	%rdi, -120(%rbp)
	movq	%rdi, -72(%rbp)
Ltmp410:
	.loc	26 121 15 prologue_end
	addq	$16, %rdi
	.loc	26 121 30 is_stmt 0
	movb	$0, -90(%rbp)
	.loc	26 121 15
	movzbl	-90(%rbp), %esi
	callq	__ZN4core4sync6atomic18AtomicPtr$LT$T$GT$4load17h5b566fd2a0b120e3E
	movq	%rax, %rcx
	movq	%rcx, -112(%rbp)
	.loc	26 122 13 is_stmt 1
	movl	$1, %eax
	cmpq	%rcx, %rax
	je	LBB86_2
	.loc	26 0 13 is_stmt 0
	movq	-112(%rbp), %rdi
	.loc	26 129 13 is_stmt 1
	movq	%rdi, -40(%rbp)
Ltmp411:
	.loc	26 130 28
	callq	__ZN4core3ptr8non_null16NonNull$LT$T$GT$3new17h702500211d9dd449E
	movq	%rax, %rdi
	callq	__ZN75_$LT$core..option..Option$LT$T$GT$$u20$as$u20$core..ops..try_trait..Try$GT$6branch17h713c5166bbbefe96E
	movq	%rax, -88(%rbp)
	movq	-88(%rbp), %rdx
	xorl	%eax, %eax
	movl	$1, %ecx
	cmpq	$0, %rdx
	cmoveq	%rcx, %rax
	cmpq	$0, %rax
	je	LBB86_4
	jmp	LBB86_5
Ltmp412:
LBB86_2:
	.loc	26 0 28 is_stmt 0
	movq	-120(%rbp), %rax
	.loc	26 123 30 is_stmt 1
	movq	(%rax), %rsi
	movq	8(%rax), %rax
	movq	%rsi, -16(%rbp)
	movq	%rax, -8(%rbp)
	movq	%rsi, -56(%rbp)
Ltmp413:
	.loc	26 124 37
	movq	$-2, %rdi
	callq	_dlsym
	movq	-120(%rbp), %rdi
	movq	%rax, %rsi
	movq	%rsi, -128(%rbp)
	movq	%rsi, -48(%rbp)
Ltmp414:
	.loc	26 126 17
	addq	$16, %rdi
	.loc	26 126 39 is_stmt 0
	movb	$1, -89(%rbp)
	.loc	26 126 17
	movzbl	-89(%rbp), %edx
	callq	__ZN4core4sync6atomic18AtomicPtr$LT$T$GT$5store17hbad4f27eee096f74E
	movq	-128(%rbp), %rdi
	.loc	26 127 17 is_stmt 1
	callq	__ZN4core3ptr8non_null16NonNull$LT$T$GT$3new17h702500211d9dd449E
	movq	%rax, -104(%rbp)
Ltmp415:
LBB86_3:
	.loc	26 135 6
	movq	-104(%rbp), %rax
	addq	$144, %rsp
	popq	%rbp
	retq
LBB86_4:
Ltmp416:
	.loc	26 130 28
	movq	-88(%rbp), %rax
	movq	%rax, -136(%rbp)
	movq	%rax, -32(%rbp)
Ltmp417:
	.loc	26 130 28 is_stmt 0
	movq	%rax, -24(%rbp)
Ltmp418:
	.loc	26 131 23 is_stmt 1
	movb	$2, -73(%rbp)
	.loc	26 131 17 is_stmt 0
	movzbl	-73(%rbp), %edi
	callq	__ZN4core4sync6atomic5fence17h16c9cb8d9976afdeE
	movq	-136(%rbp), %rax
	.loc	26 132 17 is_stmt 1
	movq	%rax, -104(%rbp)
Ltmp419:
	.loc	26 133 13
	jmp	LBB86_3
LBB86_5:
Ltmp420:
	.loc	26 130 28
	callq	__ZN84_$LT$core..option..Option$LT$T$GT$$u20$as$u20$core..ops..try_trait..FromResidual$GT$13from_residual17h91e729d1f52522e1E
	movq	%rax, -104(%rbp)
	jmp	LBB86_3
Ltmp421:
Lfunc_end86:
	.cfi_endproc

	.p2align	4, 0x90
__ZN9getrandom9util_libc13open_readonly17h9ede18cd92df369bE:
Lfunc_begin87:
	.loc	26 147 0
	.cfi_startproc
	pushq	%rbp
	.cfi_def_cfa_offset 16
	.cfi_offset %rbp, -16
	movq	%rsp, %rbp
	.cfi_def_cfa_register %rbp
	subq	$224, %rsp
	movq	%rdi, -216(%rbp)
	movq	%rsi, -208(%rbp)
	movq	%rdi, -88(%rbp)
	movq	%rsi, -80(%rbp)
	movq	%rdi, -32(%rbp)
	movq	%rsi, -24(%rbp)
Ltmp422:
	.file	27 "/rustc/2c8cc343237b8f7d5a3c3703e3a87f2eb2c54a74/library/core/src/str" "mod.rs"
	.loc	27 327 18 prologue_end
	movq	%rdi, -16(%rbp)
	movq	%rsi, -8(%rbp)
	movq	-16(%rbp), %rdi
	movq	-8(%rbp), %rsi
Ltmp423:
	.loc	26 148 22
	callq	__ZN4core5slice29_$LT$impl$u20$$u5b$T$u5d$$GT$4last17h989e049a420b69dcE
	movq	%rax, -160(%rbp)
	.loc	26 148 5 is_stmt 0
	leaq	-160(%rbp), %rax
	movq	%rax, -176(%rbp)
	leaq	l___unnamed_56(%rip), %rax
	movq	%rax, -168(%rbp)
	movq	-176(%rbp), %rdi
	movq	%rdi, -200(%rbp)
	movq	%rdi, -72(%rbp)
	movq	-168(%rbp), %rsi
	movq	%rsi, -192(%rbp)
	movq	%rsi, -64(%rbp)
Ltmp424:
	.loc	26 148 5
	callq	__ZN70_$LT$core..option..Option$LT$T$GT$$u20$as$u20$core..cmp..PartialEq$GT$2eq17h75b42e3ebe074ddbE
	xorb	$-1, %al
	testb	$1, %al
	jne	LBB87_2
Ltmp425:
LBB87_1:
	.loc	26 0 5
	movq	-216(%rbp), %rdi
	movq	-208(%rbp), %rax
	movq	%rdi, -48(%rbp)
	movq	%rax, -40(%rbp)
	.loc	26 150 18 is_stmt 1
	movl	$16777216, %esi
	movb	$0, %al
	callq	_open
	movl	%eax, -220(%rbp)
	movl	%eax, -56(%rbp)
Ltmp426:
	.loc	26 151 12
	cmpl	$0, %eax
	jge	LBB87_4
	jmp	LBB87_3
Ltmp427:
LBB87_2:
	.loc	26 0 12 is_stmt 0
	movq	-192(%rbp), %rdx
	movq	-200(%rbp), %rsi
Ltmp428:
	.loc	26 148 5 is_stmt 1
	movb	$0, -145(%rbp)
Ltmp429:
	.loc	26 148 5 is_stmt 0
	movq	$0, -128(%rbp)
	leaq	l___unnamed_57(%rip), %r8
	xorl	%edi, %edi
	leaq	-144(%rbp), %rcx
	callq	__ZN4core9panicking13assert_failed17h774f7756cd570abeE
Ltmp430:
LBB87_3:
	.loc	26 154 19 is_stmt 1
	callq	__ZN9getrandom9util_libc13last_os_error17hac00c6582dcff2c6E
	movl	%eax, %edi
	movl	%edi, %eax
	movl	%eax, -224(%rbp)
	movl	%edi, -52(%rbp)
Ltmp431:
	.loc	26 156 12
	callq	__ZN9getrandom5error5Error12raw_os_error17h6cded34efc8fdf5fE
	movl	%edx, -92(%rbp)
	movl	%eax, -96(%rbp)
	leaq	-96(%rbp), %rdi
	leaq	L___unnamed_55(%rip), %rsi
	callq	__ZN4core3cmp9PartialEq2ne17h2895f2938a801e32E
	testb	$1, %al
	jne	LBB87_6
	jmp	LBB87_1
Ltmp432:
LBB87_4:
	.loc	26 0 12 is_stmt 0
	movl	-220(%rbp), %eax
	.loc	26 152 20 is_stmt 1
	movl	%eax, -180(%rbp)
	movl	$0, -184(%rbp)
Ltmp433:
LBB87_5:
	.loc	26 160 2
	movq	-184(%rbp), %rax
	addq	$224, %rsp
	popq	%rbp
	retq
LBB87_6:
	.loc	26 0 2 is_stmt 0
	movl	-224(%rbp), %eax
Ltmp434:
	.loc	26 157 20 is_stmt 1
	movl	%eax, -180(%rbp)
	movl	$1, -184(%rbp)
Ltmp435:
	.loc	25 1 1
	jmp	LBB87_5
Ltmp436:
Lfunc_end87:
	.cfi_endproc

	.p2align	4, 0x90
__ZN9getrandom8use_file15getrandom_inner17h0969a2a6855312aeE:
Lfunc_begin88:
	.loc	1 32 0
	.cfi_startproc
	pushq	%rbp
	.cfi_def_cfa_offset 16
	.cfi_offset %rbp, -16
	movq	%rsp, %rbp
	.cfi_def_cfa_register %rbp
	subq	$144, %rsp
	movq	%rdi, -144(%rbp)
	movq	%rsi, -136(%rbp)
	movq	%rdi, -64(%rbp)
	movq	%rsi, -56(%rbp)
Ltmp437:
	.loc	1 33 14 prologue_end
	callq	__ZN9getrandom8use_file10get_rng_fd17hb76be055ca766f5fE
	movq	%rax, -32(%rbp)
	movq	-32(%rbp), %rax
	movq	%rax, -112(%rbp)
	movq	-112(%rbp), %rdi
	callq	__ZN79_$LT$core..result..Result$LT$T$C$E$GT$$u20$as$u20$core..ops..try_trait..Try$GT$6branch17h2696aea5d6887619E
	movq	%rax, -24(%rbp)
	movq	-24(%rbp), %rax
	movq	%rax, -120(%rbp)
	movl	-120(%rbp), %eax
	cmpq	$0, %rax
	jne	LBB88_2
	.loc	1 0 14 is_stmt 0
	movq	-136(%rbp), %rsi
	movq	-144(%rbp), %rdi
	.loc	1 33 14
	movl	-116(%rbp), %eax
	movl	%eax, -8(%rbp)
Ltmp438:
	.loc	1 33 14
	movl	%eax, -124(%rbp)
Ltmp439:
	.loc	1 34 16 is_stmt 1
	leaq	-124(%rbp), %rax
	movq	%rax, -104(%rbp)
Ltmp440:
	.loc	1 42 30
	movq	-104(%rbp), %rdx
	.loc	1 42 9 is_stmt 0
	callq	__ZN9getrandom9util_libc14sys_fill_exact17h88e0d6a6f4bcb6dbE
	movl	%eax, %edi
	callq	__ZN79_$LT$core..result..Result$LT$T$C$E$GT$$u20$as$u20$core..ops..try_trait..Try$GT$6branch17h2abb6f3e78601b74E
	movl	%eax, -68(%rbp)
	movl	$1, %eax
	xorl	%ecx, %ecx
	cmpl	$0, -68(%rbp)
	cmoveq	%rcx, %rax
	cmpq	$0, %rax
	je	LBB88_4
	jmp	LBB88_5
Ltmp441:
LBB88_2:
	.loc	1 33 26 is_stmt 1
	movl	-116(%rbp), %edi
	movl	%edi, -12(%rbp)
Ltmp442:
	.loc	1 33 14 is_stmt 0
	leaq	l___unnamed_58(%rip), %rsi
	callq	__ZN153_$LT$core..result..Result$LT$T$C$F$GT$$u20$as$u20$core..ops..try_trait..FromResidual$LT$core..result..Result$LT$core..convert..Infallible$C$E$GT$$GT$$GT$13from_residual17h393e10220314ff31E
	movl	%eax, -128(%rbp)
Ltmp443:
LBB88_3:
	.loc	1 45 2 is_stmt 1
	movl	-128(%rbp), %eax
	addq	$144, %rsp
	popq	%rbp
	retq
LBB88_4:
Ltmp444:
	.loc	1 44 5
	movl	$0, -128(%rbp)
Ltmp445:
	.loc	1 45 2
	jmp	LBB88_3
LBB88_5:
Ltmp446:
	.loc	1 42 35
	movl	-68(%rbp), %edi
	movl	%edi, -4(%rbp)
Ltmp447:
	.loc	1 42 9 is_stmt 0
	leaq	l___unnamed_59(%rip), %rsi
	callq	__ZN153_$LT$core..result..Result$LT$T$C$F$GT$$u20$as$u20$core..ops..try_trait..FromResidual$LT$core..result..Result$LT$core..convert..Infallible$C$E$GT$$GT$$GT$13from_residual17h393e10220314ff31E
	movl	%eax, -128(%rbp)
	jmp	LBB88_3
Ltmp448:
Lfunc_end88:
	.cfi_endproc

	.p2align	4, 0x90
__ZN9getrandom8use_file15getrandom_inner28_$u7b$$u7b$closure$u7d$$u7d$17h42e153355da92e6eE:
Lfunc_begin89:
	.loc	1 34 0 is_stmt 1
	.cfi_startproc
	pushq	%rbp
	.cfi_def_cfa_offset 16
	.cfi_offset %rbp, -16
	movq	%rsp, %rbp
	.cfi_def_cfa_register %rbp
	subq	$48, %rsp
	movq	%rdi, -40(%rbp)
	movq	%rsi, -32(%rbp)
	movq	%rdx, -24(%rbp)
Ltmp449:
	.loc	1 34 53 prologue_end
	movq	(%rdi), %rax
	movl	(%rax), %edi
	movq	%rsi, -16(%rbp)
	movq	%rdx, -8(%rbp)
	.loc	1 34 42 is_stmt 0
	callq	_read
	.loc	1 34 97
	addq	$48, %rsp
	popq	%rbp
	retq
Ltmp450:
Lfunc_end89:
	.cfi_endproc

	.p2align	4, 0x90
__ZN9getrandom8use_file10get_rng_fd17hb76be055ca766f5fE:
Lfunc_begin90:
	.loc	1 50 0 is_stmt 1
	.cfi_startproc
	.cfi_personality 155, _rust_eh_personality
	.cfi_lsda 16, Lexception3
	pushq	%rbp
	.cfi_def_cfa_offset 16
	.cfi_offset %rbp, -16
	movq	%rsp, %rbp
	.cfi_def_cfa_register %rbp
	subq	$160, %rsp
Ltmp467:
	.loc	1 60 23 prologue_end
	callq	__ZN9getrandom8use_file10get_rng_fd6get_fd17h67cf35c9f073e5b9E
	movl	%edx, -108(%rbp)
	movl	%eax, -112(%rbp)
	.loc	1 60 12 is_stmt 0
	movl	-112(%rbp), %eax
	cmpq	$1, %rax
	jne	LBB90_2
	.loc	1 60 17
	movl	-108(%rbp), %eax
	movl	%eax, -4(%rbp)
	.loc	1 61 16 is_stmt 1
	movl	%eax, -116(%rbp)
	movl	$0, -120(%rbp)
Ltmp468:
	.loc	25 1 1
	jmp	LBB90_23
LBB90_2:
	.loc	1 67 14
	leaq	__ZN9getrandom8use_file10get_rng_fd5MUTEX17h6547527c8c1c780dE(%rip), %rdi
	callq	__ZN9getrandom8use_file5Mutex4lock17h2c63e8f76e986f56E
Ltmp451:
Ltmp469:
	.loc	1 70 23
	callq	__ZN9getrandom8use_file10get_rng_fd6get_fd17h67cf35c9f073e5b9E
Ltmp452:
	movl	%edx, -128(%rbp)
	movl	%eax, -124(%rbp)
	jmp	LBB90_5
Ltmp470:
LBB90_3:
Ltmp464:
	.loc	1 0 23 is_stmt 0
	leaq	-104(%rbp), %rdi
	.loc	1 84 1 is_stmt 1
	callq	__ZN4core3ptr119drop_in_place$LT$getrandom..use_file..DropGuard$LT$getrandom..use_file..get_rng_fd..$u7b$$u7b$closure$u7d$$u7d$$GT$$GT$17hbee9a4f6f6618547E
Ltmp465:
	jmp	LBB90_22
LBB90_4:
Ltmp463:
	.loc	1 0 1 is_stmt 0
	movq	%rax, %rcx
	movl	%edx, %eax
	movq	%rcx, -64(%rbp)
	movl	%eax, -56(%rbp)
	jmp	LBB90_3
LBB90_5:
	movl	-128(%rbp), %eax
	movl	-124(%rbp), %ecx
Ltmp471:
	.loc	1 70 23 is_stmt 1
	movl	%ecx, -96(%rbp)
	movl	%eax, -92(%rbp)
	.loc	1 70 12 is_stmt 0
	movl	-96(%rbp), %eax
	cmpq	$1, %rax
	jne	LBB90_7
	.loc	1 70 17
	movl	-92(%rbp), %eax
	movl	%eax, -8(%rbp)
	.loc	1 71 16 is_stmt 1
	movl	%eax, -116(%rbp)
	movl	$0, -120(%rbp)
Ltmp472:
	.loc	25 1 1
	jmp	LBB90_13
LBB90_7:
Ltmp453:
	.loc	1 78 23
	leaq	l___unnamed_60(%rip), %rdi
	movl	$12, %esi
	callq	__ZN9getrandom9util_libc13open_readonly17h9ede18cd92df369bE
Ltmp454:
	movq	%rax, -136(%rbp)
	jmp	LBB90_8
LBB90_8:
	.loc	1 0 23 is_stmt 0
	movq	-136(%rbp), %rax
	.loc	1 78 23
	movq	%rax, -48(%rbp)
	movq	-48(%rbp), %rax
	movq	%rax, -80(%rbp)
	movq	-80(%rbp), %rdi
Ltmp455:
	callq	__ZN79_$LT$core..result..Result$LT$T$C$E$GT$$u20$as$u20$core..ops..try_trait..Try$GT$6branch17h2696aea5d6887619E
Ltmp456:
	movq	%rax, -144(%rbp)
	jmp	LBB90_9
LBB90_9:
	.loc	1 0 23
	movq	-144(%rbp), %rax
	.loc	1 78 23
	movq	%rax, -40(%rbp)
	movq	-40(%rbp), %rax
	movq	%rax, -88(%rbp)
	movl	-88(%rbp), %eax
	cmpq	$0, %rax
	jne	LBB90_11
	movl	-84(%rbp), %eax
	movl	%eax, -148(%rbp)
	movl	%eax, -16(%rbp)
Ltmp473:
	.loc	1 78 23
	movl	%eax, -12(%rbp)
Ltmp474:
	.loc	1 80 19 is_stmt 1
	cmpl	$0, %eax
	jge	LBB90_15
	jmp	LBB90_14
Ltmp475:
LBB90_11:
	.loc	1 78 47
	movl	-84(%rbp), %edi
	movl	%edi, -28(%rbp)
Ltmp457:
Ltmp476:
	.loc	1 78 23 is_stmt 0
	leaq	l___unnamed_61(%rip), %rsi
	callq	__ZN153_$LT$core..result..Result$LT$T$C$F$GT$$u20$as$u20$core..ops..try_trait..FromResidual$LT$core..result..Result$LT$core..convert..Infallible$C$E$GT$$GT$$GT$13from_residual17he1111eab35d04143E
Ltmp458:
	movq	%rax, -160(%rbp)
	jmp	LBB90_12
LBB90_12:
	.loc	1 0 23
	movq	-160(%rbp), %rax
	.loc	1 78 23
	movq	%rax, -24(%rbp)
	movq	-24(%rbp), %rax
	movq	%rax, -120(%rbp)
Ltmp477:
LBB90_13:
	.loc	1 84 1 is_stmt 1
	leaq	-104(%rbp), %rdi
	callq	__ZN4core3ptr119drop_in_place$LT$getrandom..use_file..DropGuard$LT$getrandom..use_file..get_rng_fd..$u7b$$u7b$closure$u7d$$u7d$$GT$$GT$17hbee9a4f6f6618547E
	jmp	LBB90_23
LBB90_14:
Ltmp478:
	.loc	1 80 19
	movb	$0, -66(%rbp)
	jmp	LBB90_16
LBB90_15:
	.loc	1 0 19 is_stmt 0
	movl	-148(%rbp), %eax
	.loc	1 80 30
	cltq
	cmpq	$-1, %rax
	setb	%al
	.loc	1 80 19
	andb	$1, %al
	movb	%al, -66(%rbp)
LBB90_16:
	.loc	1 80 5
	movb	-66(%rbp), %al
	xorb	$-1, %al
	testb	$1, %al
	jne	LBB90_18
	.loc	1 0 5
	movl	-148(%rbp), %eax
	.loc	1 81 14 is_stmt 1
	movslq	%eax, %rsi
	.loc	1 81 27 is_stmt 0
	movb	$0, -65(%rbp)
	.loc	1 81 5
	movzbl	-65(%rbp), %edx
Ltmp459:
	leaq	__ZN9getrandom8use_file10get_rng_fd2FD17hb90ef05803fc3537E(%rip), %rdi
	callq	__ZN4core4sync6atomic11AtomicUsize5store17hc8c34bba484d9761E
Ltmp460:
	jmp	LBB90_20
LBB90_18:
Ltmp461:
	.loc	1 80 5 is_stmt 1
	leaq	l___unnamed_62(%rip), %rdi
	leaq	l___unnamed_63(%rip), %rdx
	movl	$62, %esi
	callq	__ZN4core9panicking5panic17hc1bc45270cf64b03E
Ltmp462:
	jmp	LBB90_19
LBB90_19:
	.loc	1 0 5 is_stmt 0
	ud2
LBB90_20:
	movl	-148(%rbp), %eax
	.loc	1 83 5 is_stmt 1
	movl	%eax, -116(%rbp)
	movl	$0, -120(%rbp)
Ltmp479:
	.loc	1 84 1
	leaq	-104(%rbp), %rdi
	callq	__ZN4core3ptr119drop_in_place$LT$getrandom..use_file..DropGuard$LT$getrandom..use_file..get_rng_fd..$u7b$$u7b$closure$u7d$$u7d$$GT$$GT$17hbee9a4f6f6618547E
	jmp	LBB90_23
LBB90_21:
Ltmp466:
	.loc	1 50 1
	callq	__ZN4core9panicking19panic_cannot_unwind17h1fbca7e1d7f56ae1E
LBB90_22:
	movq	-64(%rbp), %rdi
	callq	__Unwind_Resume
LBB90_23:
	.loc	1 84 2
	movq	-120(%rbp), %rax
	addq	$160, %rsp
	popq	%rbp
	retq
Ltmp480:
Lfunc_end90:
	.cfi_endproc
	.section	__TEXT,__gcc_except_tab
	.p2align	2
GCC_except_table90:
Lexception3:
	.byte	255
	.byte	255
	.byte	1
	.uleb128 Lcst_end3-Lcst_begin3
Lcst_begin3:
	.uleb128 Lfunc_begin90-Lfunc_begin90
	.uleb128 Ltmp451-Lfunc_begin90
	.byte	0
	.byte	0
	.uleb128 Ltmp451-Lfunc_begin90
	.uleb128 Ltmp452-Ltmp451
	.uleb128 Ltmp463-Lfunc_begin90
	.byte	0
	.uleb128 Ltmp464-Lfunc_begin90
	.uleb128 Ltmp465-Ltmp464
	.uleb128 Ltmp466-Lfunc_begin90
	.byte	0
	.uleb128 Ltmp453-Lfunc_begin90
	.uleb128 Ltmp458-Ltmp453
	.uleb128 Ltmp463-Lfunc_begin90
	.byte	0
	.uleb128 Ltmp458-Lfunc_begin90
	.uleb128 Ltmp459-Ltmp458
	.byte	0
	.byte	0
	.uleb128 Ltmp459-Lfunc_begin90
	.uleb128 Ltmp462-Ltmp459
	.uleb128 Ltmp463-Lfunc_begin90
	.byte	0
	.uleb128 Ltmp462-Lfunc_begin90
	.uleb128 Lfunc_end90-Ltmp462
	.byte	0
	.byte	0
Lcst_end3:
	.p2align	2

	.section	__TEXT,__text,regular,pure_instructions
	.p2align	4, 0x90
__ZN9getrandom8use_file10get_rng_fd6get_fd17h67cf35c9f073e5b9E:
Lfunc_begin91:
	.loc	1 52 0
	.cfi_startproc
	pushq	%rbp
	.cfi_def_cfa_offset 16
	.cfi_offset %rbp, -16
	movq	%rsp, %rbp
	.cfi_def_cfa_register %rbp
	subq	$32, %rsp
Ltmp481:
	.loc	1 53 23 prologue_end
	movb	$0, -9(%rbp)
	.loc	1 53 15 is_stmt 0
	leaq	__ZN9getrandom8use_file10get_rng_fd2FD17hb90ef05803fc3537E(%rip), %rdi
	movzbl	-9(%rbp), %esi
	callq	__ZN4core4sync6atomic11AtomicUsize4load17hbce0fe8a76cede88E
	movq	%rax, -32(%rbp)
	.loc	1 53 9
	cmpq	$-1, %rax
	jne	LBB91_2
	.loc	1 54 34 is_stmt 1
	movl	$0, -24(%rbp)
	jmp	LBB91_3
LBB91_2:
	.loc	1 0 34 is_stmt 0
	movq	-32(%rbp), %rax
	.loc	1 55 13 is_stmt 1
	movq	%rax, -8(%rbp)
Ltmp482:
	.loc	1 55 20 is_stmt 0
	movl	%eax, -20(%rbp)
	movl	$1, -24(%rbp)
Ltmp483:
LBB91_3:
	.loc	1 57 6 is_stmt 1
	movl	-24(%rbp), %eax
	movl	-20(%rbp), %edx
	addq	$32, %rsp
	popq	%rbp
	retq
Ltmp484:
Lfunc_end91:
	.cfi_endproc

	.p2align	4, 0x90
__ZN9getrandom8use_file10get_rng_fd28_$u7b$$u7b$closure$u7d$$u7d$17heb2ea38de991447eE:
Lfunc_begin92:
	.loc	1 68 0
	.cfi_startproc
	pushq	%rbp
	.cfi_def_cfa_offset 16
	.cfi_offset %rbp, -16
	movq	%rsp, %rbp
	.cfi_def_cfa_register %rbp
	subq	$16, %rsp
	movq	%rdi, -8(%rbp)
Ltmp485:
	.loc	1 68 40 prologue_end
	leaq	__ZN9getrandom8use_file10get_rng_fd5MUTEX17h6547527c8c1c780dE(%rip), %rdi
	callq	__ZN9getrandom8use_file5Mutex6unlock17hd1a78fa37f5e301fE
	.loc	1 68 56 is_stmt 0
	addq	$16, %rsp
	popq	%rbp
	retq
Ltmp486:
Lfunc_end92:
	.cfi_endproc

	.p2align	4, 0x90
__ZN9getrandom8use_file5Mutex4lock17h2c63e8f76e986f56E:
Lfunc_begin93:
	.loc	1 121 0 is_stmt 1
	.cfi_startproc
	pushq	%rbp
	.cfi_def_cfa_offset 16
	.cfi_offset %rbp, -16
	movq	%rsp, %rbp
	.cfi_def_cfa_register %rbp
	subq	$128, %rsp
	movq	%rdi, -32(%rbp)
	movq	%rdi, -8(%rbp)
Ltmp487:
	.loc	1 122 17 prologue_end
	callq	_pthread_mutex_lock
	movl	%eax, -108(%rbp)
Ltmp488:
	.loc	1 123 9
	leaq	-108(%rbp), %rax
	movq	%rax, -104(%rbp)
	leaq	L___unnamed_64(%rip), %rax
	movq	%rax, -96(%rbp)
	movq	-104(%rbp), %rax
	movq	%rax, -128(%rbp)
	movq	%rax, -24(%rbp)
	movq	-96(%rbp), %rcx
	movq	%rcx, -120(%rbp)
	movq	%rcx, -16(%rbp)
Ltmp489:
	.loc	1 123 9 is_stmt 0
	cmpl	$0, (%rax)
	sete	%al
	xorb	$-1, %al
	testb	$1, %al
	jne	LBB93_2
Ltmp490:
	.loc	1 124 6 is_stmt 1
	addq	$128, %rsp
	popq	%rbp
	retq
LBB93_2:
	.loc	1 0 6 is_stmt 0
	movq	-120(%rbp), %rdx
	movq	-128(%rbp), %rsi
Ltmp491:
	.loc	1 123 9 is_stmt 1
	movb	$0, -81(%rbp)
Ltmp492:
	.loc	1 123 9 is_stmt 0
	movq	$0, -64(%rbp)
	leaq	l___unnamed_65(%rip), %r8
	xorl	%edi, %edi
	leaq	-80(%rbp), %rcx
	callq	__ZN4core9panicking13assert_failed17ha474d651ad444535E
Ltmp493:
Lfunc_end93:
	.cfi_endproc

	.p2align	4, 0x90
__ZN9getrandom8use_file5Mutex6unlock17hd1a78fa37f5e301fE:
Lfunc_begin94:
	.loc	1 125 0 is_stmt 1
	.cfi_startproc
	pushq	%rbp
	.cfi_def_cfa_offset 16
	.cfi_offset %rbp, -16
	movq	%rsp, %rbp
	.cfi_def_cfa_register %rbp
	subq	$128, %rsp
	movq	%rdi, -32(%rbp)
	movq	%rdi, -8(%rbp)
Ltmp494:
	.loc	1 126 17 prologue_end
	callq	_pthread_mutex_unlock
	movl	%eax, -108(%rbp)
Ltmp495:
	.loc	1 127 9
	leaq	-108(%rbp), %rax
	movq	%rax, -104(%rbp)
	leaq	L___unnamed_64(%rip), %rax
	movq	%rax, -96(%rbp)
	movq	-104(%rbp), %rax
	movq	%rax, -128(%rbp)
	movq	%rax, -24(%rbp)
	movq	-96(%rbp), %rcx
	movq	%rcx, -120(%rbp)
	movq	%rcx, -16(%rbp)
Ltmp496:
	.loc	1 127 9 is_stmt 0
	cmpl	$0, (%rax)
	sete	%al
	xorb	$-1, %al
	testb	$1, %al
	jne	LBB94_2
Ltmp497:
	.loc	1 128 6 is_stmt 1
	addq	$128, %rsp
	popq	%rbp
	retq
LBB94_2:
	.loc	1 0 6 is_stmt 0
	movq	-120(%rbp), %rdx
	movq	-128(%rbp), %rsi
Ltmp498:
	.loc	1 127 9 is_stmt 1
	movb	$0, -81(%rbp)
Ltmp499:
	.loc	1 127 9 is_stmt 0
	movq	$0, -64(%rbp)
	leaq	l___unnamed_66(%rip), %r8
	xorl	%edi, %edi
	leaq	-80(%rbp), %rcx
	callq	__ZN4core9panicking13assert_failed17ha474d651ad444535E
Ltmp500:
Lfunc_end94:
	.cfi_endproc

	.globl	__ZN81_$LT$getrandom..use_file..DropGuard$LT$F$GT$$u20$as$u20$core..ops..drop..Drop$GT$4drop17hc6437b439c58b0a2E
	.p2align	4, 0x90
__ZN81_$LT$getrandom..use_file..DropGuard$LT$F$GT$$u20$as$u20$core..ops..drop..Drop$GT$4drop17hc6437b439c58b0a2E:
Lfunc_begin95:
	.loc	1 136 0 is_stmt 1
	.cfi_startproc
	pushq	%rbp
	.cfi_def_cfa_offset 16
	.cfi_offset %rbp, -16
	movq	%rsp, %rbp
	.cfi_def_cfa_register %rbp
	subq	$16, %rsp
	movq	%rdi, -8(%rbp)
Ltmp501:
	.loc	1 137 9 prologue_end
	callq	__ZN9getrandom8use_file10get_rng_fd28_$u7b$$u7b$closure$u7d$$u7d$17heb2ea38de991447eE
	.loc	1 138 6
	addq	$16, %rsp
	popq	%rbp
	retq
Ltmp502:
Lfunc_end95:
	.cfi_endproc

	.p2align	4, 0x90
__ZN9getrandom3imp15getrandom_inner17h94d7ad3a6766f5ecE:
Lfunc_begin96:
	.loc	2 19 0
	.cfi_startproc
	pushq	%rbp
	.cfi_def_cfa_offset 16
	.cfi_offset %rbp, -16
	movq	%rsp, %rbp
	.cfi_def_cfa_register %rbp
	subq	$208, %rsp
	movq	%rdi, -200(%rbp)
	movq	%rsi, -192(%rbp)
	movq	%rdi, -80(%rbp)
	movq	%rsi, -72(%rbp)
Ltmp503:
	.loc	2 22 25 prologue_end
	leaq	__ZN9getrandom3imp15getrandom_inner10GETENTROPY17h5c39869884847348E(%rip), %rdi
	callq	__ZN9getrandom9util_libc4Weak3ptr17h966842af75ebdf96E
	movq	%rax, -176(%rbp)
	.loc	2 22 12 is_stmt 0
	movq	-176(%rbp), %rdx
	movl	$1, %eax
	xorl	%ecx, %ecx
	cmpq	$0, %rdx
	cmoveq	%rcx, %rax
	cmpq	$1, %rax
	jne	LBB96_2
	.loc	2 0 12
	movq	-192(%rbp), %rdx
	movq	-200(%rbp), %rsi
	.loc	2 22 17
	movq	-176(%rbp), %rax
	movq	%rax, -64(%rbp)
	.loc	2 23 43 is_stmt 1
	movq	%rax, -56(%rbp)
	movq	-56(%rbp), %rax
	movq	%rax, -208(%rbp)
	movq	%rax, -48(%rbp)
Ltmp504:
	.loc	2 24 22
	leaq	-144(%rbp), %rdi
	movl	$256, %ecx
	callq	__ZN4core5slice29_$LT$impl$u20$$u5b$T$u5d$$GT$10chunks_mut17h3360df23a45b5716E
	leaq	-168(%rbp), %rdi
	leaq	-144(%rbp), %rsi
	callq	__ZN63_$LT$I$u20$as$u20$core..iter..traits..collect..IntoIterator$GT$9into_iter17h8a2b27e476b3e5a9E
	movq	-168(%rbp), %rax
	movq	%rax, -120(%rbp)
	movq	-160(%rbp), %rax
	movq	%rax, -112(%rbp)
	movq	-152(%rbp), %rax
	movq	%rax, -104(%rbp)
Ltmp505:
	.loc	2 24 9 is_stmt 0
	jmp	LBB96_4
Ltmp506:
LBB96_2:
	.loc	2 0 9
	movq	-192(%rbp), %rsi
	movq	-200(%rbp), %rdi
	.loc	2 34 9 is_stmt 1
	callq	__ZN9getrandom8use_file15getrandom_inner17h0969a2a6855312aeE
	movl	%eax, -180(%rbp)
LBB96_3:
	.loc	2 36 2
	movl	-180(%rbp), %eax
	addq	$208, %rsp
	popq	%rbp
	retq
LBB96_4:
	.loc	2 0 2 is_stmt 0
	leaq	-120(%rbp), %rdi
Ltmp507:
	.loc	2 24 22 is_stmt 1
	callq	__ZN96_$LT$core..slice..iter..ChunksMut$LT$T$GT$$u20$as$u20$core..iter..traits..iterator..Iterator$GT$4next17h301204211cd18a5dE
	movq	%rdx, -88(%rbp)
	movq	%rax, -96(%rbp)
	movq	-96(%rbp), %rdx
	movl	$1, %eax
	xorl	%ecx, %ecx
	cmpq	$0, %rdx
	cmoveq	%rcx, %rax
	cmpq	$0, %rax
	jne	LBB96_6
Ltmp508:
	.loc	2 30 9
	movl	$0, -180(%rbp)
Ltmp509:
	.loc	2 22 5
	jmp	LBB96_3
LBB96_6:
	.loc	2 0 5 is_stmt 0
	movq	-208(%rbp), %rax
Ltmp510:
	.loc	2 24 13 is_stmt 1
	movq	-96(%rbp), %rdi
	movq	-88(%rbp), %rsi
	movq	%rdi, -40(%rbp)
	movq	%rsi, -32(%rbp)
	movq	%rdi, -16(%rbp)
	movq	%rsi, -8(%rbp)
Ltmp511:
	.loc	2 25 32
	callq	*%rax
	movl	%eax, -20(%rbp)
Ltmp512:
	.loc	2 26 16
	cmpl	$0, %eax
	je	LBB96_4
	.loc	2 27 28
	callq	__ZN9getrandom9util_libc13last_os_error17hac00c6582dcff2c6E
	.loc	2 27 24 is_stmt 0
	movl	%eax, -180(%rbp)
Ltmp513:
	.loc	2 36 2 is_stmt 1
	jmp	LBB96_3
Ltmp514:
Lfunc_end96:
	.cfi_endproc

	.p2align	4, 0x90
__ZN9getrandom9util_libc9get_errno17hac4ca4354ee5828aE:
Lfunc_begin97:
	.loc	26 45 0
	.cfi_startproc
	pushq	%rbp
	.cfi_def_cfa_offset 16
	.cfi_offset %rbp, -16
	movq	%rsp, %rbp
	.cfi_def_cfa_register %rbp
Ltmp515:
	.loc	26 45 49 prologue_end
	callq	___error
	.loc	26 45 48 is_stmt 0
	movl	(%rax), %eax
	.loc	26 45 67
	popq	%rbp
	retq
Ltmp516:
Lfunc_end97:
	.cfi_endproc

	.section	__TEXT,__const
l___unnamed_67:
	.ascii	"invalid args"

	.section	__DATA,__const
	.p2align	3
l___unnamed_8:
	.quad	l___unnamed_67
	.asciz	"\f\000\000\000\000\000\000"

	.section	__TEXT,__const
	.p2align	3
l___unnamed_9:
	.byte	0

l___unnamed_68:
	.ascii	"/rustc/2c8cc343237b8f7d5a3c3703e3a87f2eb2c54a74/library/core/src/fmt/mod.rs"

	.section	__DATA,__const
	.p2align	3
l___unnamed_10:
	.quad	l___unnamed_68
	.asciz	"K\000\000\000\000\000\000\000\221\001\000\000\r\000\000"

	.section	__TEXT,__const
l___unnamed_11:
	.ascii	"assertion failed: 0 < pointee_size && pointee_size <= isize::MAX as usize"

l___unnamed_69:
	.ascii	"/rustc/2c8cc343237b8f7d5a3c3703e3a87f2eb2c54a74/library/core/src/ptr/const_ptr.rs"

	.section	__DATA,__const
	.p2align	3
l___unnamed_12:
	.quad	l___unnamed_69
	.asciz	"Q\000\000\000\000\000\000\000&\003\000\000\t\000\000"

	.section	__TEXT,__const
l___unnamed_70:
	.ascii	"there is no such thing as an acquire-release load"

	.section	__DATA,__const
	.p2align	3
l___unnamed_15:
	.quad	l___unnamed_70
	.asciz	"1\000\000\000\000\000\000"

	.section	__TEXT,__const
l___unnamed_71:
	.ascii	"/rustc/2c8cc343237b8f7d5a3c3703e3a87f2eb2c54a74/library/core/src/sync/atomic.rs"

	.section	__DATA,__const
	.p2align	3
l___unnamed_16:
	.quad	l___unnamed_71
	.asciz	"O\000\000\000\000\000\000\000\323\013\000\000\027\000\000"

	.section	__TEXT,__const
l___unnamed_72:
	.ascii	"there is no such thing as a release load"

	.section	__DATA,__const
	.p2align	3
l___unnamed_13:
	.quad	l___unnamed_72
	.asciz	"(\000\000\000\000\000\000"

	.p2align	3
l___unnamed_14:
	.quad	l___unnamed_71
	.asciz	"O\000\000\000\000\000\000\000\322\013\000\000\030\000\000"

	.section	__TEXT,__const
l___unnamed_73:
	.ascii	"there is no such thing as an acquire-release store"

	.section	__DATA,__const
	.p2align	3
l___unnamed_19:
	.quad	l___unnamed_73
	.asciz	"2\000\000\000\000\000\000"

	.p2align	3
l___unnamed_20:
	.quad	l___unnamed_71
	.asciz	"O\000\000\000\000\000\000\000\304\013\000\000\027\000\000"

	.section	__TEXT,__const
l___unnamed_74:
	.ascii	"there is no such thing as an acquire store"

	.section	__DATA,__const
	.p2align	3
l___unnamed_17:
	.quad	l___unnamed_74
	.asciz	"*\000\000\000\000\000\000"

	.p2align	3
l___unnamed_18:
	.quad	l___unnamed_71
	.asciz	"O\000\000\000\000\000\000\000\303\013\000\000\030\000\000"

	.section	__TEXT,__const
l___unnamed_75:
	.ascii	"there is no such thing as a relaxed fence"

	.section	__DATA,__const
	.p2align	3
l___unnamed_21:
	.quad	l___unnamed_75
	.asciz	")\000\000\000\000\000\000"

	.p2align	3
l___unnamed_22:
	.quad	l___unnamed_71
	.asciz	"O\000\000\000\000\000\000\000*\r\000\000\030\000\000"

	.section	__TEXT,__literal8,8byte_literals
	.p2align	3
L___unnamed_23:
	.space	8

	.section	__TEXT,__const
l___unnamed_76:
	.ascii	"chunks cannot have a size of zero"

	.section	__DATA,__const
	.p2align	3
l___unnamed_24:
	.quad	l___unnamed_76
	.asciz	"!\000\000\000\000\000\000"

	.section	__TEXT,__const
l___unnamed_77:
	.ascii	"/rustc/2c8cc343237b8f7d5a3c3703e3a87f2eb2c54a74/library/core/src/slice/mod.rs"

	.section	__DATA,__const
	.p2align	3
l___unnamed_25:
	.quad	l___unnamed_77
	.asciz	"M\000\000\000\000\000\000\000q\003\000\000\t\000\000"

	.section	__TEXT,__const
l___unnamed_26:
	.ascii	"called `Option::unwrap()` on a `None` value"

	.section	__DATA,__const
	.p2align	3
l___unnamed_1:
	.quad	__ZN4core3ptr30drop_in_place$LT$$RF$usize$GT$17hfd09b1ca3fa36639E
	.asciz	"\b\000\000\000\000\000\000\000\b\000\000\000\000\000\000"
	.quad	__ZN42_$LT$$RF$T$u20$as$u20$core..fmt..Debug$GT$3fmt17h7f2b0d596068d254E

	.p2align	3
l___unnamed_2:
	.quad	__ZN4core3ptr59drop_in_place$LT$$RF$core..option..Option$LT$$RF$u8$GT$$GT$17hb4dee78363aea7a4E
	.asciz	"\b\000\000\000\000\000\000\000\b\000\000\000\000\000\000"
	.quad	__ZN42_$LT$$RF$T$u20$as$u20$core..fmt..Debug$GT$3fmt17h86a7fa9b6c3f6e11E

	.p2align	3
l___unnamed_3:
	.quad	__ZN4core3ptr28drop_in_place$LT$$RF$i32$GT$17he447b4f812bed938E
	.asciz	"\b\000\000\000\000\000\000\000\b\000\000\000\000\000\000"
	.quad	__ZN42_$LT$$RF$T$u20$as$u20$core..fmt..Debug$GT$3fmt17h2727e59726ae2e06E

	.section	__TEXT,__literal4,4byte_literals
L___unnamed_28:
	.ascii	"Some"

	.section	__DATA,__const
	.p2align	3
l___unnamed_4:
	.quad	__ZN4core3ptr31drop_in_place$LT$$RF$$RF$u8$GT$17h29a7abca7e936987E
	.asciz	"\b\000\000\000\000\000\000\000\b\000\000\000\000\000\000"
	.quad	__ZN42_$LT$$RF$T$u20$as$u20$core..fmt..Debug$GT$3fmt17h9d1e4bf8f177f6c9E

	.section	__TEXT,__literal4,4byte_literals
L___unnamed_27:
	.ascii	"None"

	.section	__TEXT,__const
l___unnamed_78:
	.ascii	"/rustc/2c8cc343237b8f7d5a3c3703e3a87f2eb2c54a74/library/core/src/slice/iter.rs"

	.section	__DATA,__const
	.p2align	3
l___unnamed_29:
	.quad	l___unnamed_78
	.asciz	"N\000\000\000\000\000\000\000\177\000\000\000\001\000\000"

	.section	__TEXT,__const
	.p2align	4
_str.0:
	.ascii	"attempt to add with overflow"

l___unnamed_30:
	.ascii	"assertion failed: mid <= self.len()"

	.section	__DATA,__const
	.p2align	3
l___unnamed_31:
	.quad	l___unnamed_78
	.asciz	"N\000\000\000\000\000\000\000u\006\000\0000\000\000"

	.section	__TEXT,__const
l___unnamed_79:
	.ascii	"/Users/natalie/.cargo/registry/src/github.com-1ecc6299db9ec823/getrandom-0.2.8/src/error.rs"

	.section	__DATA,__const
	.p2align	3
l___unnamed_32:
	.quad	l___unnamed_79
	.asciz	"[\000\000\000\000\000\000\000\035\000\000\000\020\000\000"

	.section	__TEXT,__const
l___unnamed_33:
	.ascii	"Error"

l___unnamed_37:
	.ascii	"unknown_code"

	.section	__DATA,__const
	.p2align	3
l___unnamed_5:
	.quad	__ZN4core3ptr24drop_in_place$LT$u32$GT$17hee01451603e2f99cE
	.asciz	"\004\000\000\000\000\000\000\000\004\000\000\000\000\000\000"
	.quad	__ZN4core3fmt3num50_$LT$impl$u20$core..fmt..Debug$u20$for$u20$u32$GT$3fmt17he51f7304c811c82aE

	.section	__TEXT,__const
l___unnamed_35:
	.ascii	"internal_code"

l___unnamed_36:
	.ascii	"description"

	.section	__DATA,__const
	.p2align	3
l___unnamed_6:
	.quad	__ZN4core3ptr28drop_in_place$LT$$RF$str$GT$17h3a5471e12702bd48E
	.asciz	"\020\000\000\000\000\000\000\000\b\000\000\000\000\000\000"
	.quad	__ZN42_$LT$$RF$T$u20$as$u20$core..fmt..Debug$GT$3fmt17hb270fdf436bfcf72E

	.section	__TEXT,__literal8,8byte_literals
L___unnamed_34:
	.ascii	"os_error"

	.section	__DATA,__const
	.p2align	3
l___unnamed_7:
	.quad	__ZN4core3ptr24drop_in_place$LT$i32$GT$17h32704f44a75e9189E
	.asciz	"\004\000\000\000\000\000\000\000\004\000\000\000\000\000\000"
	.quad	__ZN4core3fmt3num50_$LT$impl$u20$core..fmt..Debug$u20$for$u20$i32$GT$3fmt17h22fce873314336a6E

	.section	__TEXT,__const
l___unnamed_80:
	.ascii	"Unknown Error: "

	.section	__DATA,__const
	.p2align	3
l___unnamed_38:
	.quad	l___unnamed_80
	.asciz	"\017\000\000\000\000\000\000"

	.section	__TEXT,__const
l___unnamed_81:
	.ascii	"OS Error: "

	.section	__DATA,__const
	.p2align	3
l___unnamed_39:
	.quad	l___unnamed_81
	.asciz	"\n\000\000\000\000\000\000"

	.section	__TEXT,__const
l___unnamed_51:
	.ascii	"Node.js ES modules are not directly supported, see https://docs.rs/getrandom#nodejs-es-module-support"

l___unnamed_50:
	.ascii	"Calling Node.js API crypto.randomFillSync failed"

l___unnamed_49:
	.ascii	"Node.js crypto CommonJS module is unavailable"

l___unnamed_48:
	.ascii	"randSecure: VxWorks RNG module is not initialized"

l___unnamed_47:
	.ascii	"Calling Web API crypto.getRandomValues failed"

l___unnamed_46:
	.ascii	"Web Crypto API is unavailable"

l___unnamed_45:
	.ascii	"RDRAND: instruction not supported"

l___unnamed_44:
	.ascii	"RDRAND: failed multiple times: CPU issue likely"

l___unnamed_43:
	.ascii	"RtlGenRandom: Windows system function failure"

l___unnamed_42:
	.ascii	"SecRandomCopyBytes: iOS Security framework failure"

l___unnamed_41:
	.ascii	"errno: did not return a positive value"

l___unnamed_40:
	.ascii	"getrandom: this target is not supported"

	.section	__DATA,__const
	.p2align	3
l___unnamed_52:
	.quad	l___unnamed_79
	.asciz	"[\000\000\000\000\000\000\000q\000\000\000#\000\000"

	.section	__TEXT,__const
l___unnamed_82:
	.ascii	"/Users/natalie/.cargo/registry/src/github.com-1ecc6299db9ec823/getrandom-0.2.8/src/util_libc.rs"

	.section	__DATA,__const
	.p2align	3
l___unnamed_53:
	.quad	l___unnamed_82
	.asciz	"_\000\000\000\000\000\000\0004\000\000\0003\000\000"

	.section	__TEXT,__literal8,8byte_literals
	.p2align	2
L___unnamed_55:
	.asciz	"\001\000\000\000\004\000\000"

	.section	__DATA,__const
	.p2align	3
l___unnamed_54:
	.quad	l___unnamed_82
	.asciz	"_\000\000\000\000\000\000\000L\000\000\000\030\000\000"

	.section	__TEXT,__const
l___unnamed_83:
	.space	1

	.section	__DATA,__const
	.p2align	3
l___unnamed_56:
	.quad	l___unnamed_83

	.p2align	3
l___unnamed_57:
	.quad	l___unnamed_82
	.asciz	"_\000\000\000\000\000\000\000\224\000\000\000\005\000\000"

	.section	__TEXT,__const
l___unnamed_84:
	.ascii	"/Users/natalie/.cargo/registry/src/github.com-1ecc6299db9ec823/getrandom-0.2.8/src/use_file.rs"

	.section	__DATA,__const
	.p2align	3
l___unnamed_58:
	.quad	l___unnamed_84
	.asciz	"^\000\000\000\000\000\000\000!\000\000\000\016\000\000"

	.p2align	3
l___unnamed_59:
	.quad	l___unnamed_84
	.asciz	"^\000\000\000\000\000\000\000*\000\000\000\t\000\000"

	.section	__TEXT,__const
l___unnamed_60:
	.asciz	"/dev/random"

	.section	__DATA,__const
	.p2align	3
l___unnamed_61:
	.quad	l___unnamed_84
	.asciz	"^\000\000\000\000\000\000\000N\000\000\000\027\000\000"

	.section	__TEXT,__const
l___unnamed_62:
	.ascii	"assertion failed: fd >= 0 && (fd as usize) < LazyUsize::UNINIT"

	.section	__DATA,__const
	.p2align	3
l___unnamed_63:
	.quad	l___unnamed_84
	.asciz	"^\000\000\000\000\000\000\000P\000\000\000\005\000\000"

	.section	__DATA,__data
	.p2align	3
__ZN9getrandom8use_file10get_rng_fd2FD17hb90ef05803fc3537E:
	.space	8,255

	.p2align	3
__ZN9getrandom8use_file10get_rng_fd5MUTEX17h6547527c8c1c780dE:
	.asciz	"\247\253\2522\000\000\000\000\000\000\000\000\000\000\000\000\000\000\000\000\000\000\000\000\000\000\000\000\000\000\000\000\000\000\000\000\000\000\000\000\000\000\000\000\000\000\000\000\000\000\000\000\000\000\000\000\000\000\000\000\000\000\000"

	.section	__TEXT,__literal4,4byte_literals
	.p2align	2
L___unnamed_64:
	.space	4

	.section	__DATA,__const
	.p2align	3
l___unnamed_65:
	.quad	l___unnamed_84
	.asciz	"^\000\000\000\000\000\000\000{\000\000\000\t\000\000"

	.p2align	3
l___unnamed_66:
	.quad	l___unnamed_84
	.asciz	"^\000\000\000\000\000\000\000\177\000\000\000\t\000\000"

	.section	__TEXT,__const
l___unnamed_85:
	.asciz	"getentropy"

	.section	__DATA,__data
	.p2align	3
__ZN9getrandom3imp15getrandom_inner10GETENTROPY17h5c39869884847348E:
	.quad	l___unnamed_85
	.asciz	"\013\000\000\000\000\000\000\000\001\000\000\000\000\000\000"

	.section	__DATA,__const
Lsec_end0:
	.section	__DATA,__data
Lsec_end1:
	.section	__TEXT,__text,regular,pure_instructions
Lsec_end2: