	.section	__TEXT,__text,regular,pure_instructions
	.macosx_version_min 10, 7
	.globl	__ZN100_$LT$hashbrown..map..IntoIter$LT$K$C$V$C$A$GT$$u20$as$u20$core..iter..traits..iterator..Iterator$GT$4next17he6e9f4611fa2b172E
	.p2align	4, 0x90
__ZN100_$LT$hashbrown..map..IntoIter$LT$K$C$V$C$A$GT$$u20$as$u20$core..iter..traits..iterator..Iterator$GT$4next17he6e9f4611fa2b172E:
Lfunc_begin0:
	.file	1 "/Users/runner/.cargo/registry/src/github.com-1ecc6299db9ec823/hashbrown-0.12.3/src" "map.rs"
	.loc	1 4738 0
	.cfi_startproc
	pushq	%rbp
	.cfi_def_cfa_offset 16
	.cfi_offset %rbp, -16
	movq	%rsp, %rbp
	.cfi_def_cfa_register %rbp
	subq	$32, %rsp
	movq	%rdi, -16(%rbp)
Ltmp0:
	.loc	1 4739 9 prologue_end
	callq	__ZN99_$LT$hashbrown..raw..RawIntoIter$LT$T$C$A$GT$$u20$as$u20$core..iter..traits..iterator..Iterator$GT$4next17h5be9f06c7dccacf1E
	movl	%eax, %ecx
	movl	%ecx, -8(%rbp)
	shrq	$32, %rax
	movb	%al, -4(%rbp)
	movb	-4(%rbp), %al
	movb	%al, -20(%rbp)
	movl	-8(%rbp), %eax
	movl	%eax, -24(%rbp)
	.loc	1 4740 6
	movl	-24(%rbp), %eax
	movzbl	-20(%rbp), %ecx
	shlq	$32, %rcx
	orq	%rcx, %rax
	addq	$32, %rsp
	popq	%rbp
	retq
Ltmp1:
Lfunc_end0:
	.cfi_endproc

	.globl	__ZN100_$LT$hashbrown..map..IntoIter$LT$K$C$V$C$A$GT$$u20$as$u20$core..iter..traits..iterator..Iterator$GT$9size_hint17hc90a21b9b955d124E
	.p2align	4, 0x90
__ZN100_$LT$hashbrown..map..IntoIter$LT$K$C$V$C$A$GT$$u20$as$u20$core..iter..traits..iterator..Iterator$GT$9size_hint17hc90a21b9b955d124E:
Lfunc_begin1:
	.loc	1 4742 0
	.cfi_startproc
	pushq	%rbp
	.cfi_def_cfa_offset 16
	.cfi_offset %rbp, -16
	movq	%rsp, %rbp
	.cfi_def_cfa_register %rbp
	subq	$40, %rsp
	movq	%rdi, %rax
	movq	%rsi, -24(%rbp)
Ltmp2:
	.loc	1 4743 9 prologue_end
	movq	%rsi, -16(%rbp)
Ltmp3:
	.file	2 "/Users/runner/.cargo/registry/src/github.com-1ecc6299db9ec823/hashbrown-0.12.3/src/raw" "mod.rs"
	.loc	2 2247 9
	movq	%rsi, -8(%rbp)
Ltmp4:
	.loc	2 2171 10
	movq	32(%rsi), %rcx
	.loc	2 2171 27 is_stmt 0
	movq	32(%rsi), %rdx
	.loc	2 2171 22
	movq	%rdx, -32(%rbp)
	movq	$1, -40(%rbp)
	.loc	2 2171 9
	movq	%rcx, (%rdi)
	movq	-40(%rbp), %rdx
	movq	-32(%rbp), %rcx
	movq	%rdx, 8(%rdi)
	movq	%rcx, 16(%rdi)
Ltmp5:
	.loc	1 4744 6 is_stmt 1
	addq	$40, %rsp
	popq	%rbp
	retq
Ltmp6:
Lfunc_end1:
	.cfi_endproc

	.globl	__ZN101_$LT$core..slice..iter..ChunksExactMut$LT$T$GT$$u20$as$u20$core..iter..traits..iterator..Iterator$GT$4next17h0064d49fabb4ddffE
	.p2align	4, 0x90
__ZN101_$LT$core..slice..iter..ChunksExactMut$LT$T$GT$$u20$as$u20$core..iter..traits..iterator..Iterator$GT$4next17h0064d49fabb4ddffE:
Lfunc_begin2:
	.file	3 "/rustc/2c8cc343237b8f7d5a3c3703e3a87f2eb2c54a74/library/core/src/slice" "iter.rs"
	.loc	3 2023 0
	.cfi_startproc
	pushq	%rbp
	.cfi_def_cfa_offset 16
	.cfi_offset %rbp, -16
	movq	%rsp, %rbp
	.cfi_def_cfa_register %rbp
	subq	$544, %rsp
	movq	%rdi, -512(%rbp)
	movq	%rdi, -344(%rbp)
Ltmp7:
	.loc	3 2024 12 prologue_end
	movq	(%rdi), %rcx
	movq	8(%rdi), %rax
	movq	%rcx, -336(%rbp)
	movq	%rax, -328(%rbp)
Ltmp8:
	.file	4 "/rustc/2c8cc343237b8f7d5a3c3703e3a87f2eb2c54a74/library/core/src/ptr" "mut_ptr.rs"
	.loc	4 1901 18
	movq	%rcx, -320(%rbp)
	movq	%rax, -312(%rbp)
Ltmp9:
	.file	5 "/rustc/2c8cc343237b8f7d5a3c3703e3a87f2eb2c54a74/library/core/src/ptr" "metadata.rs"
	.loc	5 98 14
	movq	%rcx, -456(%rbp)
	movq	%rax, -448(%rbp)
	movq	-448(%rbp), %rax
Ltmp10:
	.loc	3 2024 12
	cmpq	32(%rdi), %rax
	jb	LBB2_2
	.loc	3 0 12 is_stmt 0
	movq	-512(%rbp), %rax
	.loc	3 2028 41 is_stmt 1
	movq	(%rax), %rdx
	movq	%rdx, -536(%rbp)
	movq	8(%rax), %rcx
	movq	%rcx, -528(%rbp)
	movq	%rdx, -304(%rbp)
	movq	%rcx, -296(%rbp)
	.loc	3 2028 61 is_stmt 0
	movq	32(%rax), %rax
	movq	%rax, -520(%rbp)
	movq	%rax, -288(%rbp)
Ltmp11:
	.loc	4 1966 24 is_stmt 1
	movq	%rdx, -280(%rbp)
	movq	%rcx, -272(%rbp)
Ltmp12:
	.loc	4 1901 18
	movq	%rdx, -264(%rbp)
	movq	%rcx, -256(%rbp)
Ltmp13:
	.loc	5 98 14
	movq	%rdx, -440(%rbp)
	movq	%rcx, -432(%rbp)
Ltmp14:
	.loc	4 1966 17
	cmpq	-432(%rbp), %rax
	setbe	%al
	.loc	4 1966 9 is_stmt 0
	xorb	$-1, %al
	testb	$1, %al
	jne	LBB2_5
	jmp	LBB2_4
Ltmp15:
LBB2_2:
	.loc	3 2025 13 is_stmt 1
	movq	$0, -504(%rbp)
LBB2_3:
	.loc	3 2033 6
	movq	-504(%rbp), %rax
	movq	-496(%rbp), %rdx
	addq	$544, %rsp
	popq	%rbp
	retq
LBB2_4:
	.loc	3 0 6 is_stmt 0
	movq	-512(%rbp), %rdx
	movq	-520(%rbp), %r8
	movq	-536(%rbp), %rsi
	movq	-528(%rbp), %rcx
Ltmp16:
	.loc	4 1969 18 is_stmt 1
	movq	%rsi, -248(%rbp)
	movq	%rcx, -240(%rbp)
	.loc	4 1969 46 is_stmt 0
	movq	%r8, -232(%rbp)
Ltmp17:
	.loc	4 2009 19 is_stmt 1
	movq	%rsi, -224(%rbp)
	movq	%rcx, -216(%rbp)
Ltmp18:
	.loc	4 1901 18
	movq	%rsi, -208(%rbp)
	movq	%rcx, -200(%rbp)
Ltmp19:
	.loc	5 98 14
	movq	%rsi, -424(%rbp)
	movq	%rcx, -416(%rbp)
	movq	-416(%rbp), %rax
	movq	%rax, -192(%rbp)
Ltmp20:
	.loc	4 2010 19
	movq	%rsi, -184(%rbp)
	movq	%rcx, -176(%rbp)
Ltmp21:
	.loc	4 2037 9
	movq	%rsi, -168(%rbp)
Ltmp22:
	.loc	4 2013 29
	movq	%rsi, -160(%rbp)
	.loc	4 2013 37 is_stmt 0
	movq	%r8, -152(%rbp)
Ltmp23:
	.loc	4 1034 18 is_stmt 1
	movq	%rsi, -144(%rbp)
	.loc	4 1034 30 is_stmt 0
	movq	%r8, -136(%rbp)
Ltmp24:
	.loc	4 487 18 is_stmt 1
	movq	%rsi, %rcx
	addq	%r8, %rcx
	movq	%rcx, -128(%rbp)
	movq	-128(%rbp), %rcx
	movq	%rcx, -120(%rbp)
Ltmp25:
	.loc	4 2015 50
	movq	%rsi, -112(%rbp)
	.loc	4 2015 55 is_stmt 0
	movq	%r8, -104(%rbp)
Ltmp26:
	.file	6 "/rustc/2c8cc343237b8f7d5a3c3703e3a87f2eb2c54a74/library/core/src/ptr" "mod.rs"
	.loc	6 766 24 is_stmt 1
	movq	%rsi, -96(%rbp)
Ltmp27:
	.loc	4 60 9
	movq	%rsi, -88(%rbp)
Ltmp28:
	.loc	6 766 37
	movq	%r8, -80(%rbp)
Ltmp29:
	.loc	5 135 36
	movq	%rsi, -392(%rbp)
	movq	%r8, -384(%rbp)
	.loc	5 135 14 is_stmt 0
	movq	-392(%rbp), %rdi
	movq	-384(%rbp), %rsi
	movq	%rdi, -408(%rbp)
	movq	%rsi, -400(%rbp)
	movq	-408(%rbp), %rdi
	movq	-400(%rbp), %rsi
Ltmp30:
	.loc	4 2016 50 is_stmt 1
	movq	%rcx, -72(%rbp)
	.loc	4 2016 56 is_stmt 0
	subq	%r8, %rax
	movq	%rax, -64(%rbp)
Ltmp31:
	.loc	6 766 24 is_stmt 1
	movq	%rcx, -56(%rbp)
Ltmp32:
	.loc	4 60 9
	movq	%rcx, -48(%rbp)
Ltmp33:
	.loc	6 766 37
	movq	%rax, -40(%rbp)
Ltmp34:
	.loc	5 135 36
	movq	%rcx, -360(%rbp)
	movq	%rax, -352(%rbp)
	.loc	5 135 14 is_stmt 0
	movq	-360(%rbp), %rcx
	movq	-352(%rbp), %rax
	movq	%rcx, -376(%rbp)
	movq	%rax, -368(%rbp)
	movq	-376(%rbp), %rcx
	movq	-368(%rbp), %rax
Ltmp35:
	.loc	4 2014 9 is_stmt 1
	movq	%rdi, -488(%rbp)
	movq	%rsi, -480(%rbp)
	movq	%rcx, -472(%rbp)
	movq	%rax, -464(%rbp)
Ltmp36:
	.loc	3 2028 18
	movq	-488(%rbp), %rcx
	movq	-480(%rbp), %rax
	movq	%rcx, -32(%rbp)
	movq	%rax, -24(%rbp)
	.loc	3 2028 24 is_stmt 0
	movq	-472(%rbp), %rdi
	movq	-464(%rbp), %rsi
	movq	%rdi, -16(%rbp)
	movq	%rsi, -8(%rbp)
Ltmp37:
	.loc	3 2029 13 is_stmt 1
	movq	%rdi, (%rdx)
	movq	%rsi, 8(%rdx)
	.loc	3 2031 13
	movq	%rcx, -504(%rbp)
	movq	%rax, -496(%rbp)
Ltmp38:
	.loc	3 2024 9
	jmp	LBB2_3
LBB2_5:
Ltmp39:
	.loc	4 1966 9
	leaq	l___unnamed_40(%rip), %rdi
	leaq	l___unnamed_41(%rip), %rdx
	movl	$35, %esi
	callq	__ZN4core9panicking5panic17hc1bc45270cf64b03E
Ltmp40:
Lfunc_end2:
	.cfi_endproc

	.globl	__ZN102_$LT$core..iter..adapters..map..Map$LT$I$C$F$GT$$u20$as$u20$core..iter..traits..iterator..Iterator$GT$4fold17h4e74b9e8b971ad61E
	.p2align	4, 0x90
__ZN102_$LT$core..iter..adapters..map..Map$LT$I$C$F$GT$$u20$as$u20$core..iter..traits..iterator..Iterator$GT$4fold17h4e74b9e8b971ad61E:
Lfunc_begin3:
	.file	7 "/rustc/2c8cc343237b8f7d5a3c3703e3a87f2eb2c54a74/library/core/src/iter/adapters" "map.rs"
	.loc	7 120 0
	.cfi_startproc
	.cfi_personality 155, _rust_eh_personality
	.cfi_lsda 16, Lexception0
	pushq	%rbp
	.cfi_def_cfa_offset 16
	.cfi_offset %rbp, -16
	movq	%rsp, %rbp
	.cfi_def_cfa_register %rbp
	subq	$128, %rsp
	movq	%rsi, %rcx
Ltmp46:
	.loc	7 124 9 prologue_end
	movb	$1, -25(%rbp)
	movq	32(%rdi), %rax
	movq	%rax, -96(%rbp)
	movq	24(%rdi), %rax
	movq	%rax, -104(%rbp)
	movq	16(%rdi), %rax
	movq	%rax, -112(%rbp)
	movq	(%rdi), %rax
	movq	8(%rdi), %rdx
	movq	%rdx, -120(%rbp)
	movq	%rax, -128(%rbp)
	.loc	7 124 24 is_stmt 0
	movb	$1, -26(%rbp)
	.loc	7 124 39
	movq	40(%rdi), %rsi
	.loc	7 124 47
	movq	16(%rcx), %rax
	movq	%rax, -40(%rbp)
	movq	(%rcx), %rax
	movq	8(%rcx), %rcx
Ltmp47:
	movq	%rcx, -48(%rbp)
	movq	%rax, -56(%rbp)
Ltmp41:
	leaq	-88(%rbp), %rdi
Ltmp48:
	.loc	7 0 47
	leaq	-56(%rbp), %rdx
	.loc	7 124 30
	callq	__ZN4core4iter8adapters3map8map_fold17h565d6671d1d416d7E
Ltmp42:
	jmp	LBB3_3
Ltmp49:
LBB3_1:
	.loc	7 124 49
	testb	$1, -26(%rbp)
	jne	LBB3_6
	jmp	LBB3_5
Ltmp50:
LBB3_2:
Ltmp45:
	.loc	7 0 49
	movq	%rax, %rcx
	movl	%edx, %eax
	movq	%rcx, -16(%rbp)
	movl	%eax, -8(%rbp)
	jmp	LBB3_1
Ltmp51:
LBB3_3:
	.loc	7 124 9
	movb	$0, -25(%rbp)
	movb	$0, -26(%rbp)
Ltmp43:
	leaq	-128(%rbp), %rdi
	leaq	-88(%rbp), %rsi
	callq	__ZN4core4iter6traits8iterator8Iterator4fold17h3a983d56a004064dE
Ltmp44:
	jmp	LBB3_4
Ltmp52:
LBB3_4:
	.loc	7 125 6 is_stmt 1
	addq	$128, %rsp
	popq	%rbp
	retq
Ltmp53:
LBB3_5:
	.loc	7 124 49
	testb	$1, -25(%rbp)
	jne	LBB3_8
	jmp	LBB3_7
Ltmp54:
LBB3_6:
	jmp	LBB3_5
Ltmp55:
LBB3_7:
	.loc	7 120 5
	movq	-16(%rbp), %rdi
	callq	__Unwind_Resume
Ltmp56:
LBB3_8:
	.loc	7 124 49
	jmp	LBB3_7
Ltmp57:
Lfunc_end3:
	.cfi_endproc
	.section	__TEXT,__gcc_except_tab
	.p2align	2
GCC_except_table3:
Lexception0:
	.byte	255
	.byte	255
	.byte	1
	.uleb128 Lcst_end0-Lcst_begin0
Lcst_begin0:
	.uleb128 Ltmp41-Lfunc_begin3
	.uleb128 Ltmp44-Ltmp41
	.uleb128 Ltmp45-Lfunc_begin3
	.byte	0
	.uleb128 Ltmp44-Lfunc_begin3
	.uleb128 Lfunc_end3-Ltmp44
	.byte	0
	.byte	0
Lcst_end0:
	.p2align	2

	.section	__TEXT,__text,regular,pure_instructions
	.globl	__ZN102_$LT$core..iter..adapters..map..Map$LT$I$C$F$GT$$u20$as$u20$core..iter..traits..iterator..Iterator$GT$4fold17he1f34b1abe6e990eE
	.p2align	4, 0x90
__ZN102_$LT$core..iter..adapters..map..Map$LT$I$C$F$GT$$u20$as$u20$core..iter..traits..iterator..Iterator$GT$4fold17he1f34b1abe6e990eE:
Lfunc_begin4:
	.loc	7 120 0
	.cfi_startproc
	.cfi_personality 155, _rust_eh_personality
	.cfi_lsda 16, Lexception1
	pushq	%rbp
	.cfi_def_cfa_offset 16
	.cfi_offset %rbp, -16
	movq	%rsp, %rbp
	.cfi_def_cfa_register %rbp
	subq	$112, %rsp
	movq	%rdi, -112(%rbp)
	movq	%rsi, -104(%rbp)
Ltmp63:
	movq	%rdi, -40(%rbp)
	movq	%rsi, -32(%rbp)
Ltmp64:
	.loc	7 124 9 prologue_end
	movb	$1, -41(%rbp)
	.loc	7 124 24 is_stmt 0
	movb	$1, -42(%rbp)
	.loc	7 124 47
	movq	16(%rdx), %rax
	movq	%rax, -56(%rbp)
	movq	(%rdx), %rax
	movq	8(%rdx), %rcx
	movq	%rcx, -64(%rbp)
	movq	%rax, -72(%rbp)
Ltmp58:
	leaq	-96(%rbp), %rdi
	leaq	-72(%rbp), %rsi
	.loc	7 124 30
	callq	__ZN4core4iter8adapters3map8map_fold17hd1a37ef71ead9911E
Ltmp65:
Ltmp59:
	jmp	LBB4_3
Ltmp66:
LBB4_1:
	.loc	7 124 49
	testb	$1, -42(%rbp)
	jne	LBB4_6
	jmp	LBB4_5
Ltmp67:
LBB4_2:
Ltmp62:
	.loc	7 0 49
	movq	%rax, %rcx
	movl	%edx, %eax
	movq	%rcx, -16(%rbp)
	movl	%eax, -8(%rbp)
	jmp	LBB4_1
Ltmp68:
LBB4_3:
	movq	-104(%rbp), %rsi
	movq	-112(%rbp), %rdi
	.loc	7 124 9
	movb	$0, -41(%rbp)
	movb	$0, -42(%rbp)
Ltmp60:
	leaq	-96(%rbp), %rdx
	callq	__ZN4core4iter6traits8iterator8Iterator4fold17hab40c6d5698b3e90E
Ltmp61:
	jmp	LBB4_4
Ltmp69:
LBB4_4:
	.loc	7 125 6 is_stmt 1
	addq	$112, %rsp
	popq	%rbp
	retq
Ltmp70:
LBB4_5:
	.loc	7 124 49
	testb	$1, -41(%rbp)
	jne	LBB4_8
	jmp	LBB4_7
Ltmp71:
LBB4_6:
	jmp	LBB4_5
Ltmp72:
LBB4_7:
	.loc	7 120 5
	movq	-16(%rbp), %rdi
	callq	__Unwind_Resume
Ltmp73:
LBB4_8:
	.loc	7 124 49
	jmp	LBB4_7
Ltmp74:
Lfunc_end4:
	.cfi_endproc
	.section	__TEXT,__gcc_except_tab
	.p2align	2
GCC_except_table4:
Lexception1:
	.byte	255
	.byte	255
	.byte	1
	.uleb128 Lcst_end1-Lcst_begin1
Lcst_begin1:
	.uleb128 Ltmp58-Lfunc_begin4
	.uleb128 Ltmp61-Ltmp58
	.uleb128 Ltmp62-Lfunc_begin4
	.byte	0
	.uleb128 Ltmp61-Lfunc_begin4
	.uleb128 Lfunc_end4-Ltmp61
	.byte	0
	.byte	0
Lcst_end1:
	.p2align	2

	.section	__TEXT,__text,regular,pure_instructions
	.globl	__ZN102_$LT$core..iter..adapters..map..Map$LT$I$C$F$GT$$u20$as$u20$core..iter..traits..iterator..Iterator$GT$4fold17hf7f488fbd5a62379E
	.p2align	4, 0x90
__ZN102_$LT$core..iter..adapters..map..Map$LT$I$C$F$GT$$u20$as$u20$core..iter..traits..iterator..Iterator$GT$4fold17hf7f488fbd5a62379E:
Lfunc_begin5:
	.loc	7 120 0
	.cfi_startproc
	.cfi_personality 155, _rust_eh_personality
	.cfi_lsda 16, Lexception2
	pushq	%rbp
	.cfi_def_cfa_offset 16
	.cfi_offset %rbp, -16
	movq	%rsp, %rbp
	.cfi_def_cfa_register %rbp
	subq	$128, %rsp
	movq	%rsi, %rcx
Ltmp80:
	.loc	7 124 9 prologue_end
	movb	$1, -25(%rbp)
	movq	32(%rdi), %rax
	movq	%rax, -96(%rbp)
	movq	24(%rdi), %rax
	movq	%rax, -104(%rbp)
	movq	16(%rdi), %rax
	movq	%rax, -112(%rbp)
	movq	(%rdi), %rax
	movq	8(%rdi), %rdx
	movq	%rdx, -120(%rbp)
	movq	%rax, -128(%rbp)
	.loc	7 124 24 is_stmt 0
	movb	$1, -26(%rbp)
	.loc	7 124 39
	movq	40(%rdi), %rsi
	.loc	7 124 47
	movq	16(%rcx), %rax
	movq	%rax, -40(%rbp)
	movq	(%rcx), %rax
	movq	8(%rcx), %rcx
Ltmp81:
	movq	%rcx, -48(%rbp)
	movq	%rax, -56(%rbp)
Ltmp75:
	leaq	-88(%rbp), %rdi
Ltmp82:
	.loc	7 0 47
	leaq	-56(%rbp), %rdx
	.loc	7 124 30
	callq	__ZN4core4iter8adapters3map8map_fold17hda4db597166c9098E
Ltmp76:
	jmp	LBB5_3
Ltmp83:
LBB5_1:
	.loc	7 124 49
	testb	$1, -26(%rbp)
	jne	LBB5_6
	jmp	LBB5_5
Ltmp84:
LBB5_2:
Ltmp79:
	.loc	7 0 49
	movq	%rax, %rcx
	movl	%edx, %eax
	movq	%rcx, -16(%rbp)
	movl	%eax, -8(%rbp)
	jmp	LBB5_1
Ltmp85:
LBB5_3:
	.loc	7 124 9
	movb	$0, -25(%rbp)
	movb	$0, -26(%rbp)
Ltmp77:
	leaq	-128(%rbp), %rdi
	leaq	-88(%rbp), %rsi
	callq	__ZN4core4iter6traits8iterator8Iterator4fold17hee46a797a25a87e1E
Ltmp78:
	jmp	LBB5_4
Ltmp86:
LBB5_4:
	.loc	7 125 6 is_stmt 1
	addq	$128, %rsp
	popq	%rbp
	retq
Ltmp87:
LBB5_5:
	.loc	7 124 49
	testb	$1, -25(%rbp)
	jne	LBB5_8
	jmp	LBB5_7
Ltmp88:
LBB5_6:
	jmp	LBB5_5
Ltmp89:
LBB5_7:
	.loc	7 120 5
	movq	-16(%rbp), %rdi
	callq	__Unwind_Resume
Ltmp90:
LBB5_8:
	.loc	7 124 49
	jmp	LBB5_7
Ltmp91:
Lfunc_end5:
	.cfi_endproc
	.section	__TEXT,__gcc_except_tab
	.p2align	2
GCC_except_table5:
Lexception2:
	.byte	255
	.byte	255
	.byte	1
	.uleb128 Lcst_end2-Lcst_begin2
Lcst_begin2:
	.uleb128 Ltmp75-Lfunc_begin5
	.uleb128 Ltmp78-Ltmp75
	.uleb128 Ltmp79-Lfunc_begin5
	.byte	0
	.uleb128 Ltmp78-Lfunc_begin5
	.uleb128 Lfunc_end5-Ltmp78
	.byte	0
	.byte	0
Lcst_end2:
	.p2align	2

	.section	__TEXT,__text,regular,pure_instructions
	.globl	__ZN102_$LT$core..iter..adapters..map..Map$LT$I$C$F$GT$$u20$as$u20$core..iter..traits..iterator..Iterator$GT$4next17h4108f0fbd84514b1E
	.p2align	4, 0x90
__ZN102_$LT$core..iter..adapters..map..Map$LT$I$C$F$GT$$u20$as$u20$core..iter..traits..iterator..Iterator$GT$4next17h4108f0fbd84514b1E:
Lfunc_begin6:
	.loc	7 102 0
	.cfi_startproc
	pushq	%rbp
	.cfi_def_cfa_offset 16
	.cfi_offset %rbp, -16
	movq	%rsp, %rbp
	.cfi_def_cfa_register %rbp
	subq	$32, %rsp
	movq	%rsi, -24(%rbp)
	movq	%rdi, %rax
	movq	-24(%rbp), %rdi
	movq	%rax, -32(%rbp)
	movq	%rax, -16(%rbp)
	movq	%rdi, -8(%rbp)
Ltmp92:
	.loc	7 103 9 prologue_end
	callq	__ZN91_$LT$core..slice..iter..Iter$LT$T$GT$$u20$as$u20$core..iter..traits..iterator..Iterator$GT$4next17ha0312b505ece1462E
	movq	-32(%rbp), %rdi
	movq	-24(%rbp), %rdx
	movq	%rax, %rsi
	callq	__ZN4core6option15Option$LT$T$GT$3map17h1e2f5a175629b5b4E
	movq	-16(%rbp), %rax
	.loc	7 104 6
	addq	$32, %rsp
	popq	%rbp
	retq
Ltmp93:
Lfunc_end6:
	.cfi_endproc

	.globl	__ZN102_$LT$core..iter..adapters..map..Map$LT$I$C$F$GT$$u20$as$u20$core..iter..traits..iterator..Iterator$GT$9size_hint17h77454a64590e17d3E
	.p2align	4, 0x90
__ZN102_$LT$core..iter..adapters..map..Map$LT$I$C$F$GT$$u20$as$u20$core..iter..traits..iterator..Iterator$GT$9size_hint17h77454a64590e17d3E:
Lfunc_begin7:
	.loc	7 107 0
	.cfi_startproc
	pushq	%rbp
	.cfi_def_cfa_offset 16
	.cfi_offset %rbp, -16
	movq	%rsp, %rbp
	.cfi_def_cfa_register %rbp
	subq	$16, %rsp
	movq	%rdi, %rax
	movq	%rax, -16(%rbp)
	movq	%rsi, -8(%rbp)
Ltmp94:
	.loc	7 108 9 prologue_end
	callq	__ZN91_$LT$core..slice..iter..Iter$LT$T$GT$$u20$as$u20$core..iter..traits..iterator..Iterator$GT$9size_hint17h61531989bcf3c98fE
	movq	-16(%rbp), %rax
	.loc	7 109 6
	addq	$16, %rsp
	popq	%rbp
	retq
Ltmp95:
Lfunc_end7:
	.cfi_endproc

	.globl	__ZN102_$LT$core..iter..adapters..map..Map$LT$I$C$F$GT$$u20$as$u20$core..iter..traits..iterator..Iterator$GT$9size_hint17h96a402e92fbe10d3E
	.p2align	4, 0x90
__ZN102_$LT$core..iter..adapters..map..Map$LT$I$C$F$GT$$u20$as$u20$core..iter..traits..iterator..Iterator$GT$9size_hint17h96a402e92fbe10d3E:
Lfunc_begin8:
	.loc	7 107 0
	.cfi_startproc
	pushq	%rbp
	.cfi_def_cfa_offset 16
	.cfi_offset %rbp, -16
	movq	%rsp, %rbp
	.cfi_def_cfa_register %rbp
	subq	$16, %rsp
	movq	%rdi, %rax
	movq	%rax, -16(%rbp)
	movq	%rsi, -8(%rbp)
Ltmp96:
	.loc	7 108 9 prologue_end
	callq	__ZN98_$LT$core..slice..iter..ChunksExact$LT$T$GT$$u20$as$u20$core..iter..traits..iterator..Iterator$GT$9size_hint17h6e74c4ccacf098eeE
	movq	-16(%rbp), %rax
	.loc	7 109 6
	addq	$16, %rsp
	popq	%rbp
	retq
Ltmp97:
Lfunc_end8:
	.cfi_endproc

	.globl	__ZN102_$LT$core..iter..adapters..map..Map$LT$I$C$F$GT$$u20$as$u20$core..iter..traits..iterator..Iterator$GT$9size_hint17ha492fe490d436dbaE
	.p2align	4, 0x90
__ZN102_$LT$core..iter..adapters..map..Map$LT$I$C$F$GT$$u20$as$u20$core..iter..traits..iterator..Iterator$GT$9size_hint17ha492fe490d436dbaE:
Lfunc_begin9:
	.loc	7 107 0
	.cfi_startproc
	pushq	%rbp
	.cfi_def_cfa_offset 16
	.cfi_offset %rbp, -16
	movq	%rsp, %rbp
	.cfi_def_cfa_register %rbp
	subq	$16, %rsp
	movq	%rdi, %rax
	movq	%rax, -16(%rbp)
	movq	%rsi, -8(%rbp)
Ltmp98:
	.loc	7 108 9 prologue_end
	callq	__ZN98_$LT$core..slice..iter..ChunksExact$LT$T$GT$$u20$as$u20$core..iter..traits..iterator..Iterator$GT$9size_hint17h6e74c4ccacf098eeE
	movq	-16(%rbp), %rax
	.loc	7 109 6
	addq	$16, %rsp
	popq	%rbp
	retq
Ltmp99:
Lfunc_end9:
	.cfi_endproc

	.globl	__ZN102_$LT$core..iter..adapters..zip..Zip$LT$A$C$B$GT$$u20$as$u20$core..iter..traits..iterator..Iterator$GT$4next17hb7b6f9b0b5de4932E
	.p2align	4, 0x90
__ZN102_$LT$core..iter..adapters..zip..Zip$LT$A$C$B$GT$$u20$as$u20$core..iter..traits..iterator..Iterator$GT$4next17hb7b6f9b0b5de4932E:
Lfunc_begin10:
	.file	8 "/rustc/2c8cc343237b8f7d5a3c3703e3a87f2eb2c54a74/library/core/src/iter/adapters" "zip.rs"
	.loc	8 83 0
	.cfi_startproc
	pushq	%rbp
	.cfi_def_cfa_offset 16
	.cfi_offset %rbp, -16
	movq	%rsp, %rbp
	.cfi_def_cfa_register %rbp
	subq	$32, %rsp
	movq	%rdi, -16(%rbp)
Ltmp100:
	.loc	8 84 9 prologue_end
	callq	__ZN111_$LT$core..iter..adapters..zip..Zip$LT$A$C$B$GT$$u20$as$u20$core..iter..adapters..zip..ZipImpl$LT$A$C$B$GT$$GT$4next17hdd29acca610f6c49E
	movl	%eax, %ecx
	movl	%ecx, -8(%rbp)
	shrq	$32, %rax
	movw	%ax, -4(%rbp)
	movw	-4(%rbp), %ax
	movw	%ax, -20(%rbp)
	movl	-8(%rbp), %eax
	movl	%eax, -24(%rbp)
	.loc	8 85 6
	movl	-24(%rbp), %eax
	movzwl	-20(%rbp), %ecx
	shlq	$32, %rcx
	orq	%rcx, %rax
	addq	$32, %rsp
	popq	%rbp
	retq
Ltmp101:
Lfunc_end10:
	.cfi_endproc

	.globl	__ZN102_$LT$core..iter..adapters..zip..Zip$LT$A$C$B$GT$$u20$as$u20$core..iter..traits..iterator..Iterator$GT$9size_hint17hc0fb3de1f8b001ecE
	.p2align	4, 0x90
__ZN102_$LT$core..iter..adapters..zip..Zip$LT$A$C$B$GT$$u20$as$u20$core..iter..traits..iterator..Iterator$GT$9size_hint17hc0fb3de1f8b001ecE:
Lfunc_begin11:
	.loc	8 88 0
	.cfi_startproc
	pushq	%rbp
	.cfi_def_cfa_offset 16
	.cfi_offset %rbp, -16
	movq	%rsp, %rbp
	.cfi_def_cfa_register %rbp
	subq	$16, %rsp
	movq	%rdi, %rax
	movq	%rax, -16(%rbp)
	movq	%rsi, -8(%rbp)
Ltmp102:
	.loc	8 89 9 prologue_end
	callq	__ZN111_$LT$core..iter..adapters..zip..Zip$LT$A$C$B$GT$$u20$as$u20$core..iter..adapters..zip..ZipImpl$LT$A$C$B$GT$$GT$9size_hint17h1100d8206b91d448E
	movq	-16(%rbp), %rax
	.loc	8 90 6
	addq	$16, %rsp
	popq	%rbp
	retq
Ltmp103:
Lfunc_end11:
	.cfi_endproc

	.globl	__ZN102_$LT$hashbrown..set..HashSet$LT$T$C$S$C$A$GT$$u20$as$u20$core..iter..traits..collect..IntoIterator$GT$9into_iter17h3bd7b0f21485ffa7E
	.p2align	4, 0x90
__ZN102_$LT$hashbrown..set..HashSet$LT$T$C$S$C$A$GT$$u20$as$u20$core..iter..traits..collect..IntoIterator$GT$9into_iter17h3bd7b0f21485ffa7E:
Lfunc_begin12:
	.file	9 "/Users/runner/.cargo/registry/src/github.com-1ecc6299db9ec823/hashbrown-0.12.3/src" "set.rs"
	.loc	9 1549 0
	.cfi_startproc
	pushq	%rbp
	.cfi_def_cfa_offset 16
	.cfi_offset %rbp, -16
	movq	%rsp, %rbp
	.cfi_def_cfa_register %rbp
	subq	$128, %rsp
	movq	%rdi, -128(%rbp)
	movq	%rdi, -120(%rbp)
Ltmp104:
	.loc	9 1551 19 prologue_end
	leaq	-48(%rbp), %rdi
	movl	$48, %edx
	callq	_memcpy
Ltmp105:
	leaq	-112(%rbp), %rdi
	leaq	-48(%rbp), %rsi
	callq	__ZN106_$LT$hashbrown..map..HashMap$LT$K$C$V$C$S$C$A$GT$$u20$as$u20$core..iter..traits..collect..IntoIterator$GT$9into_iter17h78f4974efe085a52E
	movq	-128(%rbp), %rdi
	.loc	9 1550 9
	leaq	-112(%rbp), %rsi
	movl	$64, %edx
	callq	_memcpy
	movq	-120(%rbp), %rax
	.loc	9 1553 6
	addq	$128, %rsp
	popq	%rbp
	retq
Ltmp106:
Lfunc_end12:
	.cfi_endproc

	.globl	__ZN103_$LT$alloc..vec..into_iter..IntoIter$LT$T$C$A$GT$$u20$as$u20$core..iter..traits..iterator..Iterator$GT$4next17h717a49c048af60f9E
	.p2align	4, 0x90
__ZN103_$LT$alloc..vec..into_iter..IntoIter$LT$T$C$A$GT$$u20$as$u20$core..iter..traits..iterator..Iterator$GT$4next17h717a49c048af60f9E:
Lfunc_begin13:
	.file	10 "/rustc/2c8cc343237b8f7d5a3c3703e3a87f2eb2c54a74/library/alloc/src/vec" "into_iter.rs"
	.loc	10 187 0
	.cfi_startproc
	pushq	%rbp
	.cfi_def_cfa_offset 16
	.cfi_offset %rbp, -16
	movq	%rsp, %rbp
	.cfi_def_cfa_register %rbp
	subq	$240, %rsp
	movq	%rdi, -232(%rbp)
	movq	%rdi, -144(%rbp)
Ltmp107:
	.loc	10 188 12 prologue_end
	movq	8(%rdi), %rax
	cmpq	16(%rdi), %rax
	je	LBB13_2
	.loc	10 190 19
	xorl	%eax, %eax
	testb	$1, %al
	jne	LBB13_5
	jmp	LBB13_4
LBB13_2:
	.loc	10 189 13
	movb	$0, -224(%rbp)
LBB13_3:
	.loc	10 203 6
	movl	-224(%rbp), %eax
	movzbl	-220(%rbp), %ecx
	shlq	$32, %rcx
	orq	%rcx, %rax
	addq	$240, %rsp
	popq	%rbp
	retq
LBB13_4:
	.loc	10 0 6 is_stmt 0
	movq	-232(%rbp), %rcx
	.loc	10 198 23 is_stmt 1
	movq	8(%rcx), %rax
	movq	%rax, -48(%rbp)
Ltmp108:
	.loc	10 199 33
	movq	8(%rcx), %rdx
	movq	%rdx, -40(%rbp)
Ltmp109:
	.file	11 "/rustc/2c8cc343237b8f7d5a3c3703e3a87f2eb2c54a74/library/core/src/ptr" "const_ptr.rs"
	.loc	11 932 18
	movq	%rdx, -32(%rbp)
Ltmp110:
	.loc	11 473 18
	addq	$4, %rdx
	movq	%rdx, -24(%rbp)
	movq	-24(%rbp), %rdx
Ltmp111:
	.loc	10 199 13
	movq	%rdx, 8(%rcx)
	.loc	10 201 37
	movq	%rax, -16(%rbp)
Ltmp112:
	.loc	6 1157 34
	leaq	-168(%rbp), %rcx
	movq	%rcx, -8(%rbp)
	.loc	6 1157 9 is_stmt 0
	movl	(%rax), %eax
	movl	%eax, -168(%rbp)
	.loc	6 1158 9 is_stmt 1
	movl	-168(%rbp), %eax
	movl	%eax, -160(%rbp)
Ltmp113:
	.file	12 "/rustc/2c8cc343237b8f7d5a3c3703e3a87f2eb2c54a74/library/core/src/mem" "maybe_uninit.rs"
	.loc	12 627 38
	movl	-160(%rbp), %eax
	movl	%eax, -152(%rbp)
Ltmp114:
	.file	13 "/rustc/2c8cc343237b8f7d5a3c3703e3a87f2eb2c54a74/library/core/src/mem" "manually_drop.rs"
	.loc	13 89 9
	movl	-152(%rbp), %eax
	movl	%eax, -208(%rbp)
Ltmp115:
	.loc	10 201 13
	movl	-208(%rbp), %eax
	movl	%eax, -223(%rbp)
	movb	$1, -224(%rbp)
Ltmp116:
	.loc	10 190 16
	jmp	LBB13_6
LBB13_5:
	.loc	10 0 16 is_stmt 0
	movq	-232(%rbp), %rax
	.loc	10 193 24 is_stmt 1
	movq	16(%rax), %rcx
	movq	%rcx, -128(%rbp)
Ltmp117:
	.loc	11 1198 9
	movq	%rcx, -120(%rbp)
Ltmp118:
	.loc	11 61 9
	movq	%rcx, -112(%rbp)
Ltmp119:
	.loc	11 1180 9
	movq	%rcx, -104(%rbp)
Ltmp120:
	.loc	11 555 18
	addq	$-1, %rcx
	movq	%rcx, -96(%rbp)
	movq	-96(%rbp), %rcx
	movq	%rcx, -88(%rbp)
Ltmp121:
	.loc	11 100 29
	movq	%rcx, -80(%rbp)
Ltmp122:
	.loc	5 118 36
	movq	%rcx, -192(%rbp)
	.loc	5 118 14 is_stmt 0
	movq	-192(%rbp), %rcx
	movq	%rcx, -200(%rbp)
	movq	-200(%rbp), %rcx
Ltmp123:
	.loc	10 193 13 is_stmt 1
	movq	%rcx, 16(%rax)
Ltmp124:
	.loc	12 399 13
	leaq	-184(%rbp), %rax
	movq	%rax, -72(%rbp)
Ltmp125:
	.loc	12 569 9
	leaq	-184(%rbp), %rax
	movq	%rax, -64(%rbp)
Ltmp126:
	.loc	4 1488 30
	leaq	-184(%rbp), %rax
	movq	%rax, -56(%rbp)
Ltmp127:
	.file	14 "/rustc/2c8cc343237b8f7d5a3c3703e3a87f2eb2c54a74/library/core/src" "intrinsics.rs"
	.loc	14 2529 9
	leaq	-184(%rbp), %rdi
	xorl	%esi, %esi
	movl	$4, %edx
	callq	_memset
Ltmp128:
	.loc	12 627 38
	movl	-184(%rbp), %eax
	movl	%eax, -176(%rbp)
Ltmp129:
	.loc	13 89 9
	movl	-176(%rbp), %eax
	movl	%eax, -216(%rbp)
Ltmp130:
	.loc	10 196 13
	movl	-216(%rbp), %eax
	movl	%eax, -223(%rbp)
	movb	$1, -224(%rbp)
LBB13_6:
	.loc	10 188 9
	jmp	LBB13_3
Ltmp131:
Lfunc_end13:
	.cfi_endproc
	.file	15 "/rustc/2c8cc343237b8f7d5a3c3703e3a87f2eb2c54a74/library/core/src/mem" "mod.rs"

	.globl	__ZN103_$LT$alloc..vec..into_iter..IntoIter$LT$T$C$A$GT$$u20$as$u20$core..iter..traits..iterator..Iterator$GT$4next17he89af44f4c770516E
	.p2align	4, 0x90
__ZN103_$LT$alloc..vec..into_iter..IntoIter$LT$T$C$A$GT$$u20$as$u20$core..iter..traits..iterator..Iterator$GT$4next17he89af44f4c770516E:
Lfunc_begin14:
	.loc	10 187 0
	.cfi_startproc
	pushq	%rbp
	.cfi_def_cfa_offset 16
	.cfi_offset %rbp, -16
	movq	%rsp, %rbp
	.cfi_def_cfa_register %rbp
	subq	$208, %rsp
	movq	%rdi, -200(%rbp)
	movq	%rdi, -160(%rbp)
Ltmp132:
	.loc	10 188 12 prologue_end
	movq	8(%rdi), %rax
	cmpq	16(%rdi), %rax
	je	LBB14_2
	.loc	10 190 19
	xorl	%eax, %eax
	testb	$1, %al
	jne	LBB14_5
	jmp	LBB14_4
LBB14_2:
	.loc	10 189 13
	movb	$0, -192(%rbp)
LBB14_3:
	.loc	10 203 6
	movb	-192(%rbp), %al
	movb	-191(%rbp), %dl
	addq	$208, %rsp
	popq	%rbp
	retq
LBB14_4:
	.loc	10 0 6 is_stmt 0
	movq	-200(%rbp), %rcx
	.loc	10 198 23 is_stmt 1
	movq	8(%rcx), %rax
	movq	%rax, -56(%rbp)
Ltmp133:
	.loc	10 199 33
	movq	8(%rcx), %rdx
	movq	%rdx, -48(%rbp)
Ltmp134:
	.loc	11 932 18
	movq	%rdx, -40(%rbp)
Ltmp135:
	.loc	11 473 18
	addq	$1, %rdx
	movq	%rdx, -32(%rbp)
	movq	-32(%rbp), %rdx
Ltmp136:
	.loc	10 199 13
	movq	%rdx, 8(%rcx)
	.loc	10 201 37
	movq	%rax, -24(%rbp)
Ltmp137:
	.loc	6 1157 34
	leaq	-161(%rbp), %rcx
	movq	%rcx, -16(%rbp)
	.loc	6 1157 9 is_stmt 0
	movb	(%rax), %al
	movb	%al, -161(%rbp)
	.loc	6 1158 9 is_stmt 1
	movb	-161(%rbp), %al
	movb	%al, -2(%rbp)
Ltmp138:
	.loc	12 627 38
	movb	%al, -1(%rbp)
Ltmp139:
	.loc	10 201 13
	movb	%al, -191(%rbp)
	movb	$1, -192(%rbp)
Ltmp140:
	.loc	10 190 16
	jmp	LBB14_6
LBB14_5:
	.loc	10 0 16 is_stmt 0
	movq	-200(%rbp), %rax
	.loc	10 193 24 is_stmt 1
	movq	16(%rax), %rcx
	movq	%rcx, -144(%rbp)
Ltmp141:
	.loc	11 1198 9
	movq	%rcx, -136(%rbp)
Ltmp142:
	.loc	11 61 9
	movq	%rcx, -128(%rbp)
Ltmp143:
	.loc	11 1180 9
	movq	%rcx, -120(%rbp)
Ltmp144:
	.loc	11 555 18
	addq	$-1, %rcx
	movq	%rcx, -112(%rbp)
	movq	-112(%rbp), %rcx
	movq	%rcx, -104(%rbp)
Ltmp145:
	.loc	11 100 29
	movq	%rcx, -96(%rbp)
Ltmp146:
	.loc	5 118 36
	movq	%rcx, -176(%rbp)
	.loc	5 118 14 is_stmt 0
	movq	-176(%rbp), %rcx
	movq	%rcx, -184(%rbp)
	movq	-184(%rbp), %rcx
Ltmp147:
	.loc	10 193 13 is_stmt 1
	movq	%rcx, 16(%rax)
Ltmp148:
	.loc	12 399 13
	leaq	-162(%rbp), %rax
	movq	%rax, -88(%rbp)
Ltmp149:
	.loc	12 569 9
	leaq	-162(%rbp), %rax
	movq	%rax, -80(%rbp)
Ltmp150:
	.loc	4 1488 30
	leaq	-162(%rbp), %rax
	movq	%rax, -72(%rbp)
Ltmp151:
	.loc	14 2529 9
	leaq	-162(%rbp), %rdi
	xorl	%esi, %esi
	movl	$1, %edx
	callq	_memset
Ltmp152:
	.loc	12 627 38
	movb	-162(%rbp), %al
	movb	%al, -57(%rbp)
Ltmp153:
	.loc	10 196 13
	movb	%al, -191(%rbp)
	movb	$1, -192(%rbp)
LBB14_6:
	.loc	10 188 9
	jmp	LBB14_3
Ltmp154:
Lfunc_end14:
	.cfi_endproc

	.globl	__ZN103_$LT$alloc..vec..into_iter..IntoIter$LT$T$C$A$GT$$u20$as$u20$core..iter..traits..iterator..Iterator$GT$9size_hint17h72263eb912602235E
	.p2align	4, 0x90
__ZN103_$LT$alloc..vec..into_iter..IntoIter$LT$T$C$A$GT$$u20$as$u20$core..iter..traits..iterator..Iterator$GT$9size_hint17h72263eb912602235E:
Lfunc_begin15:
	.loc	10 206 0
	.cfi_startproc
	pushq	%rbp
	.cfi_def_cfa_offset 16
	.cfi_offset %rbp, -16
	movq	%rsp, %rbp
	.cfi_def_cfa_register %rbp
	subq	$128, %rsp
	movq	%rsi, -120(%rbp)
	movq	%rdi, -112(%rbp)
	movq	%rdi, -104(%rbp)
	movq	%rsi, -72(%rbp)
Ltmp155:
	.loc	10 207 24 prologue_end
	xorl	%eax, %eax
	testb	$1, %al
	jne	LBB15_2
	.loc	10 0 24 is_stmt 0
	movq	-120(%rbp), %rax
	.loc	10 210 22 is_stmt 1
	movq	16(%rax), %rdi
	.loc	10 210 39 is_stmt 0
	movq	8(%rax), %rsi
	.loc	10 210 22
	callq	__ZN4core3ptr9const_ptr33_$LT$impl$u20$$BP$const$u20$T$GT$7sub_ptr17h8af3e718fbc912aaE
	movq	%rax, -96(%rbp)
	.loc	10 207 21 is_stmt 1
	jmp	LBB15_3
LBB15_2:
	.loc	10 0 21 is_stmt 0
	movq	-120(%rbp), %rcx
	.loc	10 208 13 is_stmt 1
	movq	16(%rcx), %rax
	movq	%rax, -64(%rbp)
Ltmp156:
	.loc	11 209 33
	movq	%rax, -56(%rbp)
	.loc	11 209 18 is_stmt 0
	movq	%rax, -48(%rbp)
	movq	-48(%rbp), %rax
	movq	%rax, -40(%rbp)
Ltmp157:
	.loc	10 208 42 is_stmt 1
	movq	8(%rcx), %rcx
	movq	%rcx, -32(%rbp)
Ltmp158:
	.loc	11 209 33
	movq	%rcx, -24(%rbp)
	.loc	11 209 18 is_stmt 0
	movq	%rcx, -16(%rbp)
	movq	-16(%rbp), %rcx
	movq	%rcx, -8(%rbp)
Ltmp159:
	.file	16 "/rustc/2c8cc343237b8f7d5a3c3703e3a87f2eb2c54a74/library/core/src/num" "uint_macros.rs"
	.loc	16 1203 13 is_stmt 1
	subq	%rcx, %rax
	movq	%rax, -96(%rbp)
Ltmp160:
LBB15_3:
	.loc	16 0 13 is_stmt 0
	movq	-104(%rbp), %rax
	movq	-112(%rbp), %rcx
Ltmp161:
	.loc	10 212 10 is_stmt 1
	movq	-96(%rbp), %rdx
	.loc	10 212 22 is_stmt 0
	movq	-96(%rbp), %rsi
	.loc	10 212 17
	movq	%rsi, -80(%rbp)
	movq	$1, -88(%rbp)
	.loc	10 212 9
	movq	%rdx, (%rcx)
	movq	-88(%rbp), %rsi
	movq	-80(%rbp), %rdx
	movq	%rsi, 8(%rcx)
	movq	%rdx, 16(%rcx)
Ltmp162:
	.loc	10 213 6 is_stmt 1
	addq	$128, %rsp
	popq	%rbp
	retq
Ltmp163:
Lfunc_end15:
	.cfi_endproc

	.globl	__ZN103_$LT$alloc..vec..into_iter..IntoIter$LT$T$C$A$GT$$u20$as$u20$core..iter..traits..iterator..Iterator$GT$9size_hint17hb7f7242072a8b56fE
	.p2align	4, 0x90
__ZN103_$LT$alloc..vec..into_iter..IntoIter$LT$T$C$A$GT$$u20$as$u20$core..iter..traits..iterator..Iterator$GT$9size_hint17hb7f7242072a8b56fE:
Lfunc_begin16:
	.loc	10 206 0
	.cfi_startproc
	pushq	%rbp
	.cfi_def_cfa_offset 16
	.cfi_offset %rbp, -16
	movq	%rsp, %rbp
	.cfi_def_cfa_register %rbp
	subq	$128, %rsp
	movq	%rsi, -120(%rbp)
	movq	%rdi, -112(%rbp)
	movq	%rdi, -104(%rbp)
	movq	%rsi, -72(%rbp)
Ltmp164:
	.loc	10 207 24 prologue_end
	xorl	%eax, %eax
	testb	$1, %al
	jne	LBB16_2
	.loc	10 0 24 is_stmt 0
	movq	-120(%rbp), %rax
	.loc	10 210 22 is_stmt 1
	movq	16(%rax), %rdi
	.loc	10 210 39 is_stmt 0
	movq	8(%rax), %rsi
	.loc	10 210 22
	callq	__ZN4core3ptr9const_ptr33_$LT$impl$u20$$BP$const$u20$T$GT$7sub_ptr17h2d1864f5d80205d4E
	movq	%rax, -96(%rbp)
	.loc	10 207 21 is_stmt 1
	jmp	LBB16_3
LBB16_2:
	.loc	10 0 21 is_stmt 0
	movq	-120(%rbp), %rcx
	.loc	10 208 13 is_stmt 1
	movq	16(%rcx), %rax
	movq	%rax, -64(%rbp)
Ltmp165:
	.loc	11 209 33
	movq	%rax, -56(%rbp)
	.loc	11 209 18 is_stmt 0
	movq	%rax, -48(%rbp)
	movq	-48(%rbp), %rax
	movq	%rax, -40(%rbp)
Ltmp166:
	.loc	10 208 42 is_stmt 1
	movq	8(%rcx), %rcx
	movq	%rcx, -32(%rbp)
Ltmp167:
	.loc	11 209 33
	movq	%rcx, -24(%rbp)
	.loc	11 209 18 is_stmt 0
	movq	%rcx, -16(%rbp)
	movq	-16(%rbp), %rcx
	movq	%rcx, -8(%rbp)
Ltmp168:
	.loc	16 1203 13 is_stmt 1
	subq	%rcx, %rax
	movq	%rax, -96(%rbp)
Ltmp169:
LBB16_3:
	.loc	16 0 13 is_stmt 0
	movq	-104(%rbp), %rax
	movq	-112(%rbp), %rcx
Ltmp170:
	.loc	10 212 10 is_stmt 1
	movq	-96(%rbp), %rdx
	.loc	10 212 22 is_stmt 0
	movq	-96(%rbp), %rsi
	.loc	10 212 17
	movq	%rsi, -80(%rbp)
	movq	$1, -88(%rbp)
	.loc	10 212 9
	movq	%rdx, (%rcx)
	movq	-88(%rbp), %rsi
	movq	-80(%rbp), %rdx
	movq	%rsi, 8(%rcx)
	movq	%rdx, 16(%rcx)
Ltmp171:
	.loc	10 213 6 is_stmt 1
	addq	$128, %rsp
	popq	%rbp
	retq
Ltmp172:
Lfunc_end16:
	.cfi_endproc

	.globl	__ZN104_$LT$core..iter..adapters..cloned..Cloned$LT$I$GT$$u20$as$u20$core..iter..traits..iterator..Iterator$GT$4fold17h8a53ae01893c50afE
	.p2align	4, 0x90
__ZN104_$LT$core..iter..adapters..cloned..Cloned$LT$I$GT$$u20$as$u20$core..iter..traits..iterator..Iterator$GT$4fold17h8a53ae01893c50afE:
Lfunc_begin17:
	.file	17 "/rustc/2c8cc343237b8f7d5a3c3703e3a87f2eb2c54a74/library/core/src/iter/adapters" "cloned.rs"
	.loc	17 56 0
	.cfi_startproc
	.cfi_personality 155, _rust_eh_personality
	.cfi_lsda 16, Lexception3
	pushq	%rbp
	.cfi_def_cfa_offset 16
	.cfi_offset %rbp, -16
	movq	%rsp, %rbp
	.cfi_def_cfa_register %rbp
	subq	$96, %rsp
	movq	%rdx, -96(%rbp)
Ltmp181:
	movq	%rdi, -40(%rbp)
	movq	%rsi, -32(%rbp)
Ltmp182:
	.loc	17 60 9 prologue_end
	movb	$1, -41(%rbp)
	movb	$1, -42(%rbp)
Ltmp173:
	callq	__ZN4core4iter6traits8iterator8Iterator3map17h4cb7b00dd7cbd276E
Ltmp183:
Ltmp174:
	.loc	17 0 9 is_stmt 0
	movq	%rdx, -88(%rbp)
	movq	%rax, -80(%rbp)
Ltmp184:
	.loc	17 60 9
	jmp	LBB17_3
Ltmp185:
LBB17_1:
	.loc	17 61 5 is_stmt 1
	testb	$1, -42(%rbp)
	jne	LBB17_6
	jmp	LBB17_5
Ltmp186:
LBB17_2:
Ltmp177:
	.loc	17 0 5 is_stmt 0
	movq	%rax, %rcx
	movl	%edx, %eax
	movq	%rcx, -16(%rbp)
	movl	%eax, -8(%rbp)
	jmp	LBB17_1
Ltmp187:
LBB17_3:
	movq	-88(%rbp), %rsi
	movq	-80(%rbp), %rdi
	movq	-96(%rbp), %rcx
	.loc	17 60 36 is_stmt 1
	movb	$0, -41(%rbp)
	.loc	17 60 42 is_stmt 0
	movb	$0, -42(%rbp)
	movq	16(%rcx), %rax
	movq	%rax, -56(%rbp)
	movq	(%rcx), %rax
	movq	8(%rcx), %rcx
	movq	%rcx, -64(%rbp)
	movq	%rax, -72(%rbp)
Ltmp175:
	leaq	-72(%rbp), %rdx
	.loc	17 60 9
	callq	__ZN102_$LT$core..iter..adapters..map..Map$LT$I$C$F$GT$$u20$as$u20$core..iter..traits..iterator..Iterator$GT$4fold17he1f34b1abe6e990eE
Ltmp176:
	jmp	LBB17_4
Ltmp188:
LBB17_4:
	.loc	17 61 6 is_stmt 1
	addq	$96, %rsp
	popq	%rbp
	retq
Ltmp189:
LBB17_5:
	.loc	17 61 5 is_stmt 0
	testb	$1, -41(%rbp)
	jne	LBB17_9
	jmp	LBB17_8
Ltmp190:
LBB17_6:
Ltmp178:
	.loc	17 0 5
	movq	-96(%rbp), %rdi
	.loc	17 61 5
	callq	__ZN4core3ptr272drop_in_place$LT$core..iter..traits..iterator..Iterator..for_each..call$LT$u8$C$alloc..vec..Vec$LT$u8$GT$..extend_trusted$LT$core..iter..adapters..cloned..Cloned$LT$core..slice..iter..Iter$LT$u8$GT$$GT$$GT$..$u7b$$u7b$closure$u7d$$u7d$$GT$..$u7b$$u7b$closure$u7d$$u7d$$GT$17hd879ea53421d17ecE
Ltmp179:
	jmp	LBB17_5
Ltmp191:
LBB17_7:
Ltmp180:
	.loc	17 56 5 is_stmt 1
	callq	__ZN4core9panicking19panic_cannot_unwind17h1fbca7e1d7f56ae1E
Ltmp192:
LBB17_8:
	movq	-16(%rbp), %rdi
	callq	__Unwind_Resume
Ltmp193:
LBB17_9:
	.loc	17 61 5
	jmp	LBB17_8
Ltmp194:
Lfunc_end17:
	.cfi_endproc
	.section	__TEXT,__gcc_except_tab
	.p2align	2
GCC_except_table17:
Lexception3:
	.byte	255
	.byte	255
	.byte	1
	.uleb128 Lcst_end3-Lcst_begin3
Lcst_begin3:
	.uleb128 Ltmp173-Lfunc_begin17
	.uleb128 Ltmp176-Ltmp173
	.uleb128 Ltmp177-Lfunc_begin17
	.byte	0
	.uleb128 Ltmp178-Lfunc_begin17
	.uleb128 Ltmp179-Ltmp178
	.uleb128 Ltmp180-Lfunc_begin17
	.byte	0
	.uleb128 Ltmp179-Lfunc_begin17
	.uleb128 Lfunc_end17-Ltmp179
	.byte	0
	.byte	0
Lcst_end3:
	.p2align	2

	.section	__TEXT,__text,regular,pure_instructions
	.globl	__ZN104_$LT$core..iter..adapters..cloned..Cloned$LT$I$GT$$u20$as$u20$core..iter..traits..iterator..Iterator$GT$9size_hint17h8d277600c4624965E
	.p2align	4, 0x90
__ZN104_$LT$core..iter..adapters..cloned..Cloned$LT$I$GT$$u20$as$u20$core..iter..traits..iterator..Iterator$GT$9size_hint17h8d277600c4624965E:
Lfunc_begin18:
	.loc	17 43 0
	.cfi_startproc
	pushq	%rbp
	.cfi_def_cfa_offset 16
	.cfi_offset %rbp, -16
	movq	%rsp, %rbp
	.cfi_def_cfa_register %rbp
	subq	$16, %rsp
	movq	%rdi, %rax
	movq	%rax, -16(%rbp)
	movq	%rsi, -8(%rbp)
Ltmp195:
	.loc	17 44 9 prologue_end
	callq	__ZN91_$LT$core..slice..iter..Iter$LT$T$GT$$u20$as$u20$core..iter..traits..iterator..Iterator$GT$9size_hint17h18579111099571dbE
	movq	-16(%rbp), %rax
	.loc	17 45 6
	addq	$16, %rsp
	popq	%rbp
	retq
Ltmp196:
Lfunc_end18:
	.cfi_endproc

	.globl	__ZN105_$LT$core..slice..sort..merge_sort..BufGuard$LT$T$C$ElemDeallocF$GT$$u20$as$u20$core..ops..drop..Drop$GT$4drop17h53d859622657dcdaE
	.p2align	4, 0x90
__ZN105_$LT$core..slice..sort..merge_sort..BufGuard$LT$T$C$ElemDeallocF$GT$$u20$as$u20$core..ops..drop..Drop$GT$4drop17h53d859622657dcdaE:
Lfunc_begin19:
	.file	18 "/rustc/2c8cc343237b8f7d5a3c3703e3a87f2eb2c54a74/library/core/src/slice" "sort.rs"
	.loc	18 1326 0
	.cfi_startproc
	pushq	%rbp
	.cfi_def_cfa_offset 16
	.cfi_offset %rbp, -16
	movq	%rsp, %rbp
	.cfi_def_cfa_register %rbp
	subq	$32, %rsp
	movq	%rdi, -8(%rbp)
Ltmp197:
	.loc	18 1327 36 prologue_end
	movq	(%rdi), %rcx
	.loc	18 1327 50 is_stmt 0
	movq	8(%rdi), %rax
	.loc	18 1327 13
	movq	%rcx, -24(%rbp)
	movq	%rax, -16(%rbp)
	movq	-24(%rbp), %rsi
	movq	-16(%rbp), %rdx
	callq	__ZN5alloc5slice11stable_sort28_$u7b$$u7b$closure$u7d$$u7d$17hc3875c321924e868E
	.loc	18 1328 10 is_stmt 1
	addq	$32, %rsp
	popq	%rbp
	retq
Ltmp198:
Lfunc_end19:
	.cfi_endproc

	.globl	__ZN105_$LT$std..collections..hash..set..IntoIter$LT$K$GT$$u20$as$u20$core..iter..traits..iterator..Iterator$GT$4next17h1a10db296ddbd76cE
	.p2align	4, 0x90
__ZN105_$LT$std..collections..hash..set..IntoIter$LT$K$GT$$u20$as$u20$core..iter..traits..iterator..Iterator$GT$4next17h1a10db296ddbd76cE:
Lfunc_begin20:
	.file	19 "/rustc/2c8cc343237b8f7d5a3c3703e3a87f2eb2c54a74/library/std/src/collections/hash" "set.rs"
	.loc	19 1532 0
	.cfi_startproc
	pushq	%rbp
	.cfi_def_cfa_offset 16
	.cfi_offset %rbp, -16
	movq	%rsp, %rbp
	.cfi_def_cfa_register %rbp
	subq	$32, %rsp
	movq	%rdi, -16(%rbp)
Ltmp199:
	.loc	19 1533 9 prologue_end
	callq	__ZN96_$LT$hashbrown..set..IntoIter$LT$K$C$A$GT$$u20$as$u20$core..iter..traits..iterator..Iterator$GT$4next17h024ea88732b2598aE
	movl	%eax, %ecx
	movl	%ecx, -8(%rbp)
	shrq	$32, %rax
	movb	%al, -4(%rbp)
	movb	-4(%rbp), %al
	movb	%al, -20(%rbp)
	movl	-8(%rbp), %eax
	movl	%eax, -24(%rbp)
	.loc	19 1534 6
	movl	-24(%rbp), %eax
	movzbl	-20(%rbp), %ecx
	shlq	$32, %rcx
	orq	%rcx, %rax
	addq	$32, %rsp
	popq	%rbp
	retq
Ltmp200:
Lfunc_end20:
	.cfi_endproc

	.globl	__ZN105_$LT$std..collections..hash..set..IntoIter$LT$K$GT$$u20$as$u20$core..iter..traits..iterator..Iterator$GT$9size_hint17h9552d155031672a7E
	.p2align	4, 0x90
__ZN105_$LT$std..collections..hash..set..IntoIter$LT$K$GT$$u20$as$u20$core..iter..traits..iterator..Iterator$GT$9size_hint17h9552d155031672a7E:
Lfunc_begin21:
	.loc	19 1536 0
	.cfi_startproc
	pushq	%rbp
	.cfi_def_cfa_offset 16
	.cfi_offset %rbp, -16
	movq	%rsp, %rbp
	.cfi_def_cfa_register %rbp
	subq	$16, %rsp
	movq	%rdi, %rax
	movq	%rax, -16(%rbp)
	movq	%rsi, -8(%rbp)
Ltmp201:
	.loc	19 1537 9 prologue_end
	callq	__ZN96_$LT$hashbrown..set..IntoIter$LT$K$C$A$GT$$u20$as$u20$core..iter..traits..iterator..Iterator$GT$9size_hint17hadda3c5345697349E
	movq	-16(%rbp), %rax
	.loc	19 1538 6
	addq	$16, %rsp
	popq	%rbp
	retq
Ltmp202:
Lfunc_end21:
	.cfi_endproc

	.globl	__ZN106_$LT$core..iter..adapters..flatten..Flatten$LT$I$GT$$u20$as$u20$core..iter..traits..iterator..Iterator$GT$4next17h1b95cb6ce69506d4E
	.p2align	4, 0x90
__ZN106_$LT$core..iter..adapters..flatten..Flatten$LT$I$GT$$u20$as$u20$core..iter..traits..iterator..Iterator$GT$4next17h1b95cb6ce69506d4E:
Lfunc_begin22:
	.file	20 "/rustc/2c8cc343237b8f7d5a3c3703e3a87f2eb2c54a74/library/core/src/iter/adapters" "flatten.rs"
	.loc	20 211 0
	.cfi_startproc
	pushq	%rbp
	.cfi_def_cfa_offset 16
	.cfi_offset %rbp, -16
	movq	%rsp, %rbp
	.cfi_def_cfa_register %rbp
	subq	$16, %rsp
	movq	%rdi, -8(%rbp)
Ltmp203:
	.loc	20 212 9 prologue_end
	callq	__ZN116_$LT$core..iter..adapters..flatten..FlattenCompat$LT$I$C$U$GT$$u20$as$u20$core..iter..traits..iterator..Iterator$GT$4next17h3fb1e7839770eba0E
	.loc	20 213 6
	andb	$1, %al
	addq	$16, %rsp
	popq	%rbp
	retq
Ltmp204:
Lfunc_end22:
	.cfi_endproc

	.globl	__ZN106_$LT$core..iter..adapters..flatten..Flatten$LT$I$GT$$u20$as$u20$core..iter..traits..iterator..Iterator$GT$9size_hint17hf1de793694f7f170E
	.p2align	4, 0x90
__ZN106_$LT$core..iter..adapters..flatten..Flatten$LT$I$GT$$u20$as$u20$core..iter..traits..iterator..Iterator$GT$9size_hint17hf1de793694f7f170E:
Lfunc_begin23:
	.loc	20 216 0
	.cfi_startproc
	pushq	%rbp
	.cfi_def_cfa_offset 16
	.cfi_offset %rbp, -16
	movq	%rsp, %rbp
	.cfi_def_cfa_register %rbp
	subq	$16, %rsp
	movq	%rdi, %rax
	movq	%rax, -16(%rbp)
	movq	%rsi, -8(%rbp)
Ltmp205:
	.loc	20 217 9 prologue_end
	callq	__ZN116_$LT$core..iter..adapters..flatten..FlattenCompat$LT$I$C$U$GT$$u20$as$u20$core..iter..traits..iterator..Iterator$GT$9size_hint17h2f1ae10ac7a28dc1E
	movq	-16(%rbp), %rax
	.loc	20 218 6
	addq	$16, %rsp
	popq	%rbp
	retq
Ltmp206:
Lfunc_end23:
	.cfi_endproc

	.globl	__ZN106_$LT$core..ops..range..Range$LT$usize$GT$$u20$as$u20$core..slice..index..SliceIndex$LT$$u5b$T$u5d$$GT$$GT$17get_unchecked_mut17h51a2293e26557f25E
	.p2align	4, 0x90
__ZN106_$LT$core..ops..range..Range$LT$usize$GT$$u20$as$u20$core..slice..index..SliceIndex$LT$$u5b$T$u5d$$GT$$GT$17get_unchecked_mut17h51a2293e26557f25E:
Lfunc_begin24:
	.file	21 "/rustc/2c8cc343237b8f7d5a3c3703e3a87f2eb2c54a74/library/core/src/slice" "index.rs"
	.loc	21 391 0
	.cfi_startproc
	pushq	%rbp
	.cfi_def_cfa_offset 16
	.cfi_offset %rbp, -16
	movq	%rsp, %rbp
	.cfi_def_cfa_register %rbp
	subq	$160, %rsp
	movq	%rdi, -128(%rbp)
	movq	%rsi, -120(%rbp)
	movq	%rdx, -112(%rbp)
	movq	%rcx, -104(%rbp)
Ltmp207:
	.loc	21 400 43 prologue_end
	movq	%rdx, -96(%rbp)
	movq	%rcx, -88(%rbp)
Ltmp208:
	.loc	4 2037 9
	movq	%rdx, -80(%rbp)
Ltmp209:
	.loc	21 400 66
	movq	%rdi, -72(%rbp)
Ltmp210:
	.loc	4 1034 18
	movq	%rdx, -64(%rbp)
	.loc	4 1034 30 is_stmt 0
	movq	%rdi, -56(%rbp)
Ltmp211:
	.loc	4 487 18 is_stmt 1
	leaq	(%rdx,%rdi,4), %rax
	movq	%rax, -48(%rbp)
	movq	-48(%rbp), %rax
	movq	%rax, -40(%rbp)
Ltmp212:
	.loc	21 400 79
	subq	%rdi, %rsi
	movq	%rsi, -32(%rbp)
Ltmp213:
	.loc	6 766 24
	movq	%rax, -24(%rbp)
Ltmp214:
	.loc	4 60 9
	movq	%rax, -16(%rbp)
Ltmp215:
	.loc	6 766 37
	movq	%rsi, -8(%rbp)
Ltmp216:
	.loc	5 135 36
	movq	%rax, -144(%rbp)
	movq	%rsi, -136(%rbp)
	.loc	5 135 14 is_stmt 0
	movq	-144(%rbp), %rcx
	movq	-136(%rbp), %rax
	movq	%rcx, -160(%rbp)
	movq	%rax, -152(%rbp)
	movq	-160(%rbp), %rax
	movq	-152(%rbp), %rdx
Ltmp217:
	.loc	21 402 6 is_stmt 1
	addq	$160, %rsp
	popq	%rbp
	retq
Ltmp218:
Lfunc_end24:
	.cfi_endproc

	.globl	__ZN106_$LT$core..ops..range..Range$LT$usize$GT$$u20$as$u20$core..slice..index..SliceIndex$LT$$u5b$T$u5d$$GT$$GT$9index_mut17h0867a90530776d0aE
	.p2align	4, 0x90
__ZN106_$LT$core..ops..range..Range$LT$usize$GT$$u20$as$u20$core..slice..index..SliceIndex$LT$$u5b$T$u5d$$GT$$GT$9index_mut17h0867a90530776d0aE:
Lfunc_begin25:
	.loc	21 416 0
	.cfi_startproc
	pushq	%rbp
	.cfi_def_cfa_offset 16
	.cfi_offset %rbp, -16
	movq	%rsp, %rbp
	.cfi_def_cfa_register %rbp
	subq	$80, %rsp
	movq	%rdi, -72(%rbp)
	movq	%rsi, -64(%rbp)
	movq	%rdx, -56(%rbp)
	movq	%rcx, -48(%rbp)
	movq	%r8, -40(%rbp)
	movq	%rdi, -32(%rbp)
	movq	%rsi, -24(%rbp)
	movq	%rdx, -16(%rbp)
	movq	%rcx, -8(%rbp)
Ltmp219:
	.loc	21 417 12 prologue_end
	cmpq	%rsi, %rdi
	ja	LBB25_2
	.loc	21 0 12 is_stmt 0
	movq	-64(%rbp), %rax
	movq	-48(%rbp), %rcx
	.loc	21 419 19 is_stmt 1
	cmpq	%rcx, %rax
	ja	LBB25_4
	jmp	LBB25_3
LBB25_2:
	.loc	21 0 19 is_stmt 0
	movq	-40(%rbp), %rdx
	movq	-64(%rbp), %rsi
	movq	-72(%rbp), %rdi
	.loc	21 418 13 is_stmt 1
	callq	__ZN4core5slice5index22slice_index_order_fail17h0d8f800a07d5f26eE
LBB25_3:
	.loc	21 0 13 is_stmt 0
	movq	-48(%rbp), %rcx
	movq	-56(%rbp), %rdx
	movq	-64(%rbp), %rsi
	movq	-72(%rbp), %rdi
	.loc	21 423 24 is_stmt 1
	callq	__ZN106_$LT$core..ops..range..Range$LT$usize$GT$$u20$as$u20$core..slice..index..SliceIndex$LT$$u5b$T$u5d$$GT$$GT$17get_unchecked_mut17h51a2293e26557f25E
	.loc	21 424 6
	addq	$80, %rsp
	popq	%rbp
	retq
LBB25_4:
	.loc	21 0 6 is_stmt 0
	movq	-40(%rbp), %rdx
	movq	-48(%rbp), %rsi
	movq	-64(%rbp), %rdi
	.loc	21 420 13 is_stmt 1
	callq	__ZN4core5slice5index24slice_end_index_len_fail17hc921cb2f1513645aE
Ltmp220:
Lfunc_end25:
	.cfi_endproc

	.globl	__ZN106_$LT$hashbrown..map..HashMap$LT$K$C$V$C$S$C$A$GT$$u20$as$u20$core..iter..traits..collect..IntoIterator$GT$9into_iter17h78f4974efe085a52E
	.p2align	4, 0x90
__ZN106_$LT$hashbrown..map..HashMap$LT$K$C$V$C$S$C$A$GT$$u20$as$u20$core..iter..traits..collect..IntoIterator$GT$9into_iter17h78f4974efe085a52E:
Lfunc_begin26:
	.loc	1 4662 0
	.cfi_startproc
	.cfi_personality 155, _rust_eh_personality
	.cfi_lsda 16, Lexception4
	pushq	%rbp
	.cfi_def_cfa_offset 16
	.cfi_offset %rbp, -16
	movq	%rsp, %rbp
	.cfi_def_cfa_register %rbp
	subq	$128, %rsp
	movq	%rdi, -128(%rbp)
	movq	%rdi, -120(%rbp)
Ltmp224:
	.loc	1 4664 20 prologue_end
	movq	24(%rsi), %rax
	movq	%rax, -24(%rbp)
	movq	16(%rsi), %rax
	movq	%rax, -32(%rbp)
	movq	(%rsi), %rax
	movq	8(%rsi), %rcx
	movq	%rcx, -40(%rbp)
	movq	%rax, -48(%rbp)
Ltmp221:
	leaq	-112(%rbp), %rdi
	leaq	-48(%rbp), %rsi
Ltmp225:
	callq	__ZN99_$LT$hashbrown..raw..RawTable$LT$T$C$A$GT$$u20$as$u20$core..iter..traits..collect..IntoIterator$GT$9into_iter17hc12183c9acd8fcecE
Ltmp222:
	jmp	LBB26_3
Ltmp226:
LBB26_1:
	.loc	1 4662 5
	movq	-16(%rbp), %rdi
	callq	__Unwind_Resume
Ltmp227:
LBB26_2:
Ltmp223:
	.loc	1 0 5 is_stmt 0
	movq	%rax, %rcx
	movl	%edx, %eax
	movq	%rcx, -16(%rbp)
	movl	%eax, -8(%rbp)
	jmp	LBB26_1
Ltmp228:
LBB26_3:
	movq	-128(%rbp), %rdi
	.loc	1 4663 9 is_stmt 1
	leaq	-112(%rbp), %rsi
	movl	$64, %edx
	callq	_memcpy
	movq	-120(%rbp), %rax
	.loc	1 4666 6
	addq	$128, %rsp
	popq	%rbp
	retq
Ltmp229:
Lfunc_end26:
	.cfi_endproc
	.section	__TEXT,__gcc_except_tab
	.p2align	2
GCC_except_table26:
Lexception4:
	.byte	255
	.byte	255
	.byte	1
	.uleb128 Lcst_end4-Lcst_begin4
Lcst_begin4:
	.uleb128 Ltmp221-Lfunc_begin26
	.uleb128 Ltmp222-Ltmp221
	.uleb128 Ltmp223-Lfunc_begin26
	.byte	0
	.uleb128 Ltmp222-Lfunc_begin26
	.uleb128 Lfunc_end26-Ltmp222
	.byte	0
	.byte	0
Lcst_end4:
	.p2align	2

	.section	__TEXT,__text,regular,pure_instructions
	.globl	__ZN107_$LT$core..iter..adapters..fuse..Fuse$LT$I$GT$$u20$as$u20$core..iter..adapters..fuse..FuseImpl$LT$I$GT$$GT$4next17hcae2d19c7100ae70E
	.p2align	4, 0x90
__ZN107_$LT$core..iter..adapters..fuse..Fuse$LT$I$GT$$u20$as$u20$core..iter..adapters..fuse..FuseImpl$LT$I$GT$$GT$4next17hcae2d19c7100ae70E:
Lfunc_begin27:
	.file	22 "/rustc/2c8cc343237b8f7d5a3c3703e3a87f2eb2c54a74/library/core/src/iter/adapters" "fuse.rs"
	.loc	22 336 0
	.cfi_startproc
	pushq	%rbp
	.cfi_def_cfa_offset 16
	.cfi_offset %rbp, -16
	movq	%rsp, %rbp
	.cfi_def_cfa_register %rbp
	subq	$96, %rsp
	movq	%rsi, -96(%rbp)
	movq	%rdi, -88(%rbp)
	movq	%rdi, -80(%rbp)
	movq	%rsi, -56(%rbp)
Ltmp230:
	.loc	22 337 9 prologue_end
	movq	%rsi, -32(%rbp)
Ltmp231:
	.file	23 "/rustc/2c8cc343237b8f7d5a3c3703e3a87f2eb2c54a74/library/core/src" "option.rs"
	.loc	23 697 15
	movq	8(%rsi), %rdx
	movl	$1, %eax
	xorl	%ecx, %ecx
	cmpq	$0, %rdx
	cmoveq	%rcx, %rax
	.loc	23 697 9 is_stmt 0
	cmpq	$0, %rax
	jne	LBB27_2
	.loc	23 699 21 is_stmt 1
	movq	$0, -64(%rbp)
	jmp	LBB27_3
LBB27_2:
	.loc	23 0 21 is_stmt 0
	movq	-96(%rbp), %rax
	.loc	23 698 18 is_stmt 1
	movq	%rax, -24(%rbp)
Ltmp232:
	.loc	23 698 32 is_stmt 0
	movq	%rax, -64(%rbp)
Ltmp233:
LBB27_3:
	.loc	23 2407 15 is_stmt 1
	movq	-64(%rbp), %rdx
	movl	$1, %eax
	xorl	%ecx, %ecx
	cmpq	$0, %rdx
	cmoveq	%rcx, %rax
	.loc	23 2407 9 is_stmt 0
	cmpq	$0, %rax
	jne	LBB27_5
	.loc	23 2409 21 is_stmt 1
	movq	$0, -72(%rbp)
	.loc	23 2409 44 is_stmt 0
	jmp	LBB27_6
LBB27_5:
	.loc	23 2408 18 is_stmt 1
	movq	-64(%rbp), %rax
	movq	%rax, -16(%rbp)
Ltmp234:
	.loc	23 2408 24 is_stmt 0
	movq	%rax, -72(%rbp)
Ltmp235:
LBB27_6:
	.loc	22 337 9 is_stmt 1
	movq	-72(%rbp), %rdx
	xorl	%eax, %eax
	movl	$1, %ecx
	cmpq	$0, %rdx
	cmoveq	%rcx, %rax
	cmpq	$0, %rax
	jne	LBB27_8
	.loc	22 0 9 is_stmt 0
	movq	-88(%rbp), %rdi
	.loc	22 337 9
	movq	-72(%rbp), %rsi
	movq	%rsi, -8(%rbp)
	callq	__ZN102_$LT$core..iter..adapters..map..Map$LT$I$C$F$GT$$u20$as$u20$core..iter..traits..iterator..Iterator$GT$4next17h4108f0fbd84514b1E
	.loc	22 338 6 is_stmt 1
	jmp	LBB27_9
LBB27_8:
	.loc	22 0 6 is_stmt 0
	movq	-88(%rbp), %rax
Ltmp236:
	.loc	23 2420 21 is_stmt 1
	movq	$0, 8(%rax)
Ltmp237:
LBB27_9:
	.loc	23 0 21 is_stmt 0
	movq	-80(%rbp), %rax
	.loc	22 338 6 is_stmt 1
	addq	$96, %rsp
	popq	%rbp
	retq
Ltmp238:
Lfunc_end27:
	.cfi_endproc

	.globl	__ZN107_$LT$core..ops..range..RangeInclusive$LT$T$GT$$u20$as$u20$core..iter..range..RangeInclusiveIteratorImpl$GT$9spec_next17h1d6b23a6cdf75a57E
	.p2align	4, 0x90
__ZN107_$LT$core..ops..range..RangeInclusive$LT$T$GT$$u20$as$u20$core..iter..range..RangeInclusiveIteratorImpl$GT$9spec_next17h1d6b23a6cdf75a57E:
Lfunc_begin28:
	.file	24 "/rustc/2c8cc343237b8f7d5a3c3703e3a87f2eb2c54a74/library/core/src/iter" "range.rs"
	.loc	24 1004 0
	.cfi_startproc
	pushq	%rbp
	.cfi_def_cfa_offset 16
	.cfi_offset %rbp, -16
	movq	%rsp, %rbp
	.cfi_def_cfa_register %rbp
	subq	$64, %rsp
	movq	%rdi, -56(%rbp)
	movq	%rdi, -40(%rbp)
Ltmp239:
	.loc	24 1005 12 prologue_end
	movq	%rdi, -32(%rbp)
Ltmp240:
	.file	25 "/rustc/2c8cc343237b8f7d5a3c3703e3a87f2eb2c54a74/library/core/src/ops" "range.rs"
	.loc	25 540 9
	testb	$1, 2(%rdi)
	jne	LBB28_2
	.loc	25 0 9 is_stmt 0
	movq	-56(%rbp), %rdi
	.loc	25 540 43
	movq	%rdi, %rsi
	addq	$1, %rsi
	.loc	25 540 28
	callq	__ZN4core3cmp5impls54_$LT$impl$u20$core..cmp..PartialOrd$u20$for$u20$u8$GT$2le17hcb4c8e542b06eef4E
	.loc	25 540 27
	xorb	$-1, %al
	.loc	25 540 9
	andb	$1, %al
	movb	%al, -42(%rbp)
	jmp	LBB28_3
LBB28_2:
	movb	$1, -42(%rbp)
Ltmp241:
LBB28_3:
	.loc	24 1005 12 is_stmt 1
	testb	$1, -42(%rbp)
	jne	LBB28_5
	.loc	24 0 12 is_stmt 0
	movq	-56(%rbp), %rdi
	.loc	24 1008 41 is_stmt 1
	movq	%rdi, %rsi
	addq	$1, %rsi
	.loc	24 1008 28 is_stmt 0
	callq	__ZN4core3cmp5impls54_$LT$impl$u20$core..cmp..PartialOrd$u20$for$u20$u8$GT$2lt17h43f9aee9b3e7d18eE
	movb	%al, %cl
	andb	$1, %cl
	movb	%cl, -18(%rbp)
Ltmp242:
	.loc	24 1009 17 is_stmt 1
	testb	$1, %al
	jne	LBB28_8
	jmp	LBB28_7
Ltmp243:
LBB28_5:
	.loc	24 1006 20
	movb	$0, -48(%rbp)
LBB28_6:
	.loc	24 1017 6
	movb	-48(%rbp), %al
	movb	-47(%rbp), %dl
	addq	$64, %rsp
	popq	%rbp
	retq
LBB28_7:
	.loc	24 0 6 is_stmt 0
	movq	-56(%rbp), %rax
Ltmp244:
	.loc	24 1014 13 is_stmt 1
	movb	$1, 2(%rax)
	movq	%rax, -16(%rbp)
Ltmp245:
	.file	26 "/rustc/2c8cc343237b8f7d5a3c3703e3a87f2eb2c54a74/library/core/src" "clone.rs"
	.loc	26 189 25
	movb	(%rax), %al
Ltmp246:
	.loc	24 1015 13
	movb	%al, -41(%rbp)
	.loc	24 1009 14
	jmp	LBB28_9
LBB28_8:
	.loc	24 0 14 is_stmt 0
	movq	-56(%rbp), %rax
	movq	%rax, -8(%rbp)
	.loc	24 1011 30 is_stmt 1
	movl	$1, %esi
	movzbl	(%rax), %edi
	callq	__ZN46_$LT$u8$u20$as$u20$core..iter..range..Step$GT$17forward_unchecked17h91466df17e177f49E
	movq	-56(%rbp), %rdi
	movb	%al, -17(%rbp)
Ltmp247:
	.loc	24 1012 13
	movzbl	%al, %esi
	callq	__ZN4core3mem7replace17he684d57cd6dc5fa5E
	movb	%al, -41(%rbp)
Ltmp248:
LBB28_9:
	.loc	24 1009 9
	movb	-41(%rbp), %al
	movb	%al, -47(%rbp)
	movb	$1, -48(%rbp)
Ltmp249:
	.loc	24 1017 6
	jmp	LBB28_6
Ltmp250:
Lfunc_end28:
	.cfi_endproc

	.globl	__ZN110_$LT$core..ops..range..RangeFrom$LT$usize$GT$$u20$as$u20$core..slice..index..SliceIndex$LT$$u5b$T$u5d$$GT$$GT$9index_mut17hbf742e33fd1c8a10E
	.p2align	4, 0x90
__ZN110_$LT$core..ops..range..RangeFrom$LT$usize$GT$$u20$as$u20$core..slice..index..SliceIndex$LT$$u5b$T$u5d$$GT$$GT$9index_mut17hbf742e33fd1c8a10E:
Lfunc_begin29:
	.loc	21 502 0
	.cfi_startproc
	pushq	%rbp
	.cfi_def_cfa_offset 16
	.cfi_offset %rbp, -16
	movq	%rsp, %rbp
	.cfi_def_cfa_register %rbp
	subq	$144, %rsp
	movq	%rdi, -144(%rbp)
	movq	%rsi, -136(%rbp)
	movq	%rdx, -128(%rbp)
	movq	%rcx, -120(%rbp)
	movq	%rdi, -80(%rbp)
	movq	%rsi, -72(%rbp)
	movq	%rdx, -64(%rbp)
Ltmp251:
	.loc	21 503 12 prologue_end
	cmpq	%rdx, %rdi
	ja	LBB29_2
	.loc	21 0 12 is_stmt 0
	movq	-128(%rbp), %rcx
	movq	-136(%rbp), %rdx
	movq	-144(%rbp), %rsi
	.loc	21 507 24 is_stmt 1
	movq	%rsi, -56(%rbp)
	.loc	21 507 47 is_stmt 0
	movq	%rdx, -48(%rbp)
	movq	%rcx, -40(%rbp)
Ltmp252:
	.loc	21 489 31 is_stmt 1
	movq	%rdx, -32(%rbp)
	movq	%rcx, -24(%rbp)
Ltmp253:
	.loc	4 1901 18
	movq	%rdx, -16(%rbp)
	movq	%rcx, -8(%rbp)
Ltmp254:
	.loc	5 98 14
	movq	%rdx, -96(%rbp)
	movq	%rcx, -88(%rbp)
	movq	-88(%rbp), %rax
Ltmp255:
	.loc	21 489 18
	movq	%rsi, -112(%rbp)
	movq	%rax, -104(%rbp)
	movq	-112(%rbp), %rdi
	movq	-104(%rbp), %rsi
	callq	__ZN106_$LT$core..ops..range..Range$LT$usize$GT$$u20$as$u20$core..slice..index..SliceIndex$LT$$u5b$T$u5d$$GT$$GT$17get_unchecked_mut17h51a2293e26557f25E
Ltmp256:
	.loc	21 508 6
	addq	$144, %rsp
	popq	%rbp
	retq
LBB29_2:
	.loc	21 0 6 is_stmt 0
	movq	-120(%rbp), %rdx
	movq	-128(%rbp), %rsi
	movq	-144(%rbp), %rdi
	.loc	21 504 13 is_stmt 1
	callq	__ZN4core5slice5index26slice_start_index_len_fail17h9d301bb51ec3e351E
Ltmp257:
Lfunc_end29:
	.cfi_endproc

	.globl	__ZN110_$LT$core..slice..sort..merge_sort..RunVec$LT$RunAllocF$C$RunDeallocF$GT$$u20$as$u20$core..ops..drop..Drop$GT$4drop17h997c3bbd0e2ea2aeE
	.p2align	4, 0x90
__ZN110_$LT$core..slice..sort..merge_sort..RunVec$LT$RunAllocF$C$RunDeallocF$GT$$u20$as$u20$core..ops..drop..Drop$GT$4drop17h997c3bbd0e2ea2aeE:
Lfunc_begin30:
	.loc	18 1452 0
	.cfi_startproc
	pushq	%rbp
	.cfi_def_cfa_offset 16
	.cfi_offset %rbp, -16
	movq	%rsp, %rbp
	.cfi_def_cfa_register %rbp
	subq	$32, %rsp
	movq	%rdi, -8(%rbp)
Ltmp258:
	.loc	18 1455 35 prologue_end
	movq	(%rdi), %rcx
	.loc	18 1455 49 is_stmt 0
	movq	8(%rdi), %rax
	.loc	18 1455 13
	movq	%rcx, -24(%rbp)
	movq	%rax, -16(%rbp)
	movq	-24(%rbp), %rsi
	movq	-16(%rbp), %rdx
	callq	__ZN5alloc5slice11stable_sort28_$u7b$$u7b$closure$u7d$$u7d$17h88a6b903eedb5bfaE
	.loc	18 1456 10 is_stmt 1
	addq	$32, %rsp
	popq	%rbp
	retq
Ltmp259:
Lfunc_end30:
	.cfi_endproc

	.globl	__ZN111_$LT$alloc..vec..Vec$LT$T$GT$$u20$as$u20$alloc..vec..spec_from_iter_nested..SpecFromIterNested$LT$T$C$I$GT$$GT$9from_iter17h262e6361f7e3851eE
	.p2align	4, 0x90
__ZN111_$LT$alloc..vec..Vec$LT$T$GT$$u20$as$u20$alloc..vec..spec_from_iter_nested..SpecFromIterNested$LT$T$C$I$GT$$GT$9from_iter17h262e6361f7e3851eE:
Lfunc_begin31:
	.file	27 "/rustc/2c8cc343237b8f7d5a3c3703e3a87f2eb2c54a74/library/alloc/src/vec" "spec_from_iter_nested.rs"
	.loc	27 52 0
	.cfi_startproc
	.cfi_personality 155, _rust_eh_personality
	.cfi_lsda 16, Lexception5
	pushq	%rbp
	.cfi_def_cfa_offset 16
	.cfi_offset %rbp, -16
	movq	%rsp, %rbp
	.cfi_def_cfa_register %rbp
	subq	$240, %rsp
	movq	%rsi, -216(%rbp)
Ltmp275:
	movq	%rdi, -208(%rbp)
	movq	%rdi, -200(%rbp)
Ltmp276:
	.loc	27 53 13 prologue_end
	movb	$1, -66(%rbp)
Ltmp260:
	leaq	-192(%rbp), %rdi
	.loc	27 53 32 is_stmt 0
	callq	__ZN102_$LT$core..iter..adapters..map..Map$LT$I$C$F$GT$$u20$as$u20$core..iter..traits..iterator..Iterator$GT$9size_hint17ha492fe490d436dbaE
Ltmp277:
Ltmp261:
	jmp	LBB31_3
Ltmp278:
LBB31_1:
	.loc	27 64 5 is_stmt 1
	testb	$1, -66(%rbp)
	jne	LBB31_14
	jmp	LBB31_13
Ltmp279:
LBB31_2:
Ltmp268:
	.loc	27 0 5 is_stmt 0
	movq	%rax, %rcx
	movl	%edx, %eax
	movq	%rcx, -48(%rbp)
	movl	%eax, -40(%rbp)
	jmp	LBB31_1
Ltmp280:
LBB31_3:
	.loc	27 53 26 is_stmt 1
	cmpq	$1, -184(%rbp)
	jne	LBB31_5
Ltmp281:
	.loc	27 54 22
	movq	-176(%rbp), %rdi
	movq	%rdi, -32(%rbp)
Ltmp282:
	.loc	27 54 52 is_stmt 0
	movq	%rdi, -24(%rbp)
Ltmp283:
	.file	28 "/rustc/2c8cc343237b8f7d5a3c3703e3a87f2eb2c54a74/library/alloc/src/vec" "mod.rs"
	.loc	28 483 32 is_stmt 1
	movq	%rdi, -16(%rbp)
Ltmp284:
	.loc	28 676 45
	movq	%rdi, -8(%rbp)
Ltmp285:
	.file	29 "/rustc/2c8cc343237b8f7d5a3c3703e3a87f2eb2c54a74/library/alloc/src" "raw_vec.rs"
	.loc	29 131 37
	movb	$0, -65(%rbp)
	.loc	29 131 9 is_stmt 0
	movzbl	-65(%rbp), %esi
Ltmp266:
	callq	__ZN5alloc7raw_vec19RawVec$LT$T$C$A$GT$11allocate_in17hc4bd183bc3d4b59dE
Ltmp267:
	movq	%rdx, -232(%rbp)
	movq	%rax, -224(%rbp)
	jmp	LBB31_8
Ltmp286:
LBB31_5:
Ltmp262:
	.loc	27 59 18 is_stmt 1
	leaq	l___unnamed_42(%rip), %rsi
	leaq	l___unnamed_43(%rip), %rcx
	xorl	%eax, %eax
	movl	%eax, %r8d
	leaq	-168(%rbp), %rdi
	movl	$1, %edx
	callq	__ZN4core3fmt9Arguments6new_v117h691bb837e824d048E
Ltmp263:
	jmp	LBB31_6
Ltmp287:
LBB31_6:
Ltmp264:
	leaq	l___unnamed_44(%rip), %rsi
	leaq	-168(%rbp), %rdi
	callq	__ZN4core9panicking9panic_fmt17h9b5d807e24bcaaedE
Ltmp265:
	jmp	LBB31_7
Ltmp288:
LBB31_7:
	.loc	27 0 18 is_stmt 0
	ud2
Ltmp289:
LBB31_8:
	movq	-208(%rbp), %rdi
	movq	-216(%rbp), %rcx
	movq	-232(%rbp), %rax
	movq	-224(%rbp), %rdx
Ltmp290:
	.loc	28 676 9 is_stmt 1
	movq	%rdx, (%rdi)
	movq	%rax, 8(%rdi)
	movq	$0, 16(%rdi)
Ltmp291:
	.loc	27 62 28
	movb	$0, -66(%rbp)
	movq	40(%rcx), %rax
	movq	%rax, -80(%rbp)
	movq	32(%rcx), %rax
	movq	%rax, -88(%rbp)
	movq	24(%rcx), %rax
	movq	%rax, -96(%rbp)
	movq	16(%rcx), %rax
	movq	%rax, -104(%rbp)
	movq	(%rcx), %rax
	movq	8(%rcx), %rcx
	movq	%rcx, -112(%rbp)
	movq	%rax, -120(%rbp)
Ltmp269:
	leaq	-120(%rbp), %rsi
	.loc	27 62 9 is_stmt 0
	callq	__ZN97_$LT$alloc..vec..Vec$LT$T$C$A$GT$$u20$as$u20$alloc..vec..spec_extend..SpecExtend$LT$T$C$I$GT$$GT$11spec_extend17he0f9307368d6d9daE
Ltmp270:
	jmp	LBB31_11
Ltmp292:
LBB31_9:
Ltmp272:
	.loc	27 0 9
	movq	-208(%rbp), %rdi
	.loc	27 64 5 is_stmt 1
	callq	__ZN4core3ptr46drop_in_place$LT$alloc..vec..Vec$LT$u8$GT$$GT$17h35b49b463314a270E
Ltmp273:
	jmp	LBB31_1
Ltmp293:
LBB31_10:
Ltmp271:
	.loc	27 0 5 is_stmt 0
	movq	%rax, %rcx
	movl	%edx, %eax
	movq	%rcx, -48(%rbp)
	movl	%eax, -40(%rbp)
	jmp	LBB31_9
Ltmp294:
LBB31_11:
	movq	-200(%rbp), %rax
	.loc	27 64 6
	addq	$240, %rsp
	popq	%rbp
	retq
Ltmp295:
LBB31_12:
Ltmp274:
	.loc	27 52 5 is_stmt 1
	callq	__ZN4core9panicking19panic_cannot_unwind17h1fbca7e1d7f56ae1E
Ltmp296:
LBB31_13:
	movq	-48(%rbp), %rdi
	callq	__Unwind_Resume
Ltmp297:
LBB31_14:
	.loc	27 64 5
	jmp	LBB31_13
Ltmp298:
Lfunc_end31:
	.cfi_endproc
	.section	__TEXT,__gcc_except_tab
	.p2align	2
GCC_except_table31:
Lexception5:
	.byte	255
	.byte	255
	.byte	1
	.uleb128 Lcst_end5-Lcst_begin5
Lcst_begin5:
	.uleb128 Ltmp260-Lfunc_begin31
	.uleb128 Ltmp265-Ltmp260
	.uleb128 Ltmp268-Lfunc_begin31
	.byte	0
	.uleb128 Ltmp269-Lfunc_begin31
	.uleb128 Ltmp270-Ltmp269
	.uleb128 Ltmp271-Lfunc_begin31
	.byte	0
	.uleb128 Ltmp272-Lfunc_begin31
	.uleb128 Ltmp273-Ltmp272
	.uleb128 Ltmp274-Lfunc_begin31
	.byte	0
	.uleb128 Ltmp273-Lfunc_begin31
	.uleb128 Lfunc_end31-Ltmp273
	.byte	0
	.byte	0
Lcst_end5:
	.p2align	2

	.section	__TEXT,__text,regular,pure_instructions
	.globl	__ZN111_$LT$alloc..vec..Vec$LT$T$GT$$u20$as$u20$alloc..vec..spec_from_iter_nested..SpecFromIterNested$LT$T$C$I$GT$$GT$9from_iter17h26d91f39d50cf139E
	.p2align	4, 0x90
__ZN111_$LT$alloc..vec..Vec$LT$T$GT$$u20$as$u20$alloc..vec..spec_from_iter_nested..SpecFromIterNested$LT$T$C$I$GT$$GT$9from_iter17h26d91f39d50cf139E:
Lfunc_begin32:
	.loc	27 52 0
	.cfi_startproc
	.cfi_personality 155, _rust_eh_personality
	.cfi_lsda 16, Lexception6
	pushq	%rbp
	.cfi_def_cfa_offset 16
	.cfi_offset %rbp, -16
	movq	%rsp, %rbp
	.cfi_def_cfa_register %rbp
	subq	$240, %rsp
	movq	%rsi, -216(%rbp)
Ltmp314:
	movq	%rdi, -208(%rbp)
	movq	%rdi, -200(%rbp)
Ltmp315:
	.loc	27 53 13 prologue_end
	movb	$1, -66(%rbp)
Ltmp299:
	leaq	-192(%rbp), %rdi
	.loc	27 53 32 is_stmt 0
	callq	__ZN102_$LT$core..iter..adapters..map..Map$LT$I$C$F$GT$$u20$as$u20$core..iter..traits..iterator..Iterator$GT$9size_hint17h96a402e92fbe10d3E
Ltmp316:
Ltmp300:
	jmp	LBB32_3
Ltmp317:
LBB32_1:
	.loc	27 64 5 is_stmt 1
	testb	$1, -66(%rbp)
	jne	LBB32_14
	jmp	LBB32_13
Ltmp318:
LBB32_2:
Ltmp307:
	.loc	27 0 5 is_stmt 0
	movq	%rax, %rcx
	movl	%edx, %eax
	movq	%rcx, -48(%rbp)
	movl	%eax, -40(%rbp)
	jmp	LBB32_1
Ltmp319:
LBB32_3:
	.loc	27 53 26 is_stmt 1
	cmpq	$1, -184(%rbp)
	jne	LBB32_5
Ltmp320:
	.loc	27 54 22
	movq	-176(%rbp), %rdi
	movq	%rdi, -32(%rbp)
Ltmp321:
	.loc	27 54 52 is_stmt 0
	movq	%rdi, -24(%rbp)
Ltmp322:
	.loc	28 483 32 is_stmt 1
	movq	%rdi, -16(%rbp)
Ltmp323:
	.loc	28 676 45
	movq	%rdi, -8(%rbp)
Ltmp324:
	.loc	29 131 37
	movb	$0, -65(%rbp)
	.loc	29 131 9 is_stmt 0
	movzbl	-65(%rbp), %esi
Ltmp305:
	callq	__ZN5alloc7raw_vec19RawVec$LT$T$C$A$GT$11allocate_in17hc4bd183bc3d4b59dE
Ltmp306:
	movq	%rdx, -232(%rbp)
	movq	%rax, -224(%rbp)
	jmp	LBB32_8
Ltmp325:
LBB32_5:
Ltmp301:
	.loc	27 59 18 is_stmt 1
	leaq	l___unnamed_42(%rip), %rsi
	leaq	l___unnamed_43(%rip), %rcx
	xorl	%eax, %eax
	movl	%eax, %r8d
	leaq	-168(%rbp), %rdi
	movl	$1, %edx
	callq	__ZN4core3fmt9Arguments6new_v117h691bb837e824d048E
Ltmp302:
	jmp	LBB32_6
Ltmp326:
LBB32_6:
Ltmp303:
	leaq	l___unnamed_44(%rip), %rsi
	leaq	-168(%rbp), %rdi
	callq	__ZN4core9panicking9panic_fmt17h9b5d807e24bcaaedE
Ltmp304:
	jmp	LBB32_7
Ltmp327:
LBB32_7:
	.loc	27 0 18 is_stmt 0
	ud2
Ltmp328:
LBB32_8:
	movq	-208(%rbp), %rdi
	movq	-216(%rbp), %rcx
	movq	-232(%rbp), %rax
	movq	-224(%rbp), %rdx
Ltmp329:
	.loc	28 676 9 is_stmt 1
	movq	%rdx, (%rdi)
	movq	%rax, 8(%rdi)
	movq	$0, 16(%rdi)
Ltmp330:
	.loc	27 62 28
	movb	$0, -66(%rbp)
	movq	40(%rcx), %rax
	movq	%rax, -80(%rbp)
	movq	32(%rcx), %rax
	movq	%rax, -88(%rbp)
	movq	24(%rcx), %rax
	movq	%rax, -96(%rbp)
	movq	16(%rcx), %rax
	movq	%rax, -104(%rbp)
	movq	(%rcx), %rax
	movq	8(%rcx), %rcx
	movq	%rcx, -112(%rbp)
	movq	%rax, -120(%rbp)
Ltmp308:
	leaq	-120(%rbp), %rsi
	.loc	27 62 9 is_stmt 0
	callq	__ZN97_$LT$alloc..vec..Vec$LT$T$C$A$GT$$u20$as$u20$alloc..vec..spec_extend..SpecExtend$LT$T$C$I$GT$$GT$11spec_extend17h78eec56fdace3e90E
Ltmp309:
	jmp	LBB32_11
Ltmp331:
LBB32_9:
Ltmp311:
	.loc	27 0 9
	movq	-208(%rbp), %rdi
	.loc	27 64 5 is_stmt 1
	callq	__ZN4core3ptr46drop_in_place$LT$alloc..vec..Vec$LT$u8$GT$$GT$17h35b49b463314a270E
Ltmp312:
	jmp	LBB32_1
Ltmp332:
LBB32_10:
Ltmp310:
	.loc	27 0 5 is_stmt 0
	movq	%rax, %rcx
	movl	%edx, %eax
	movq	%rcx, -48(%rbp)
	movl	%eax, -40(%rbp)
	jmp	LBB32_9
Ltmp333:
LBB32_11:
	movq	-200(%rbp), %rax
	.loc	27 64 6
	addq	$240, %rsp
	popq	%rbp
	retq
Ltmp334:
LBB32_12:
Ltmp313:
	.loc	27 52 5 is_stmt 1
	callq	__ZN4core9panicking19panic_cannot_unwind17h1fbca7e1d7f56ae1E
Ltmp335:
LBB32_13:
	movq	-48(%rbp), %rdi
	callq	__Unwind_Resume
Ltmp336:
LBB32_14:
	.loc	27 64 5
	jmp	LBB32_13
Ltmp337:
Lfunc_end32:
	.cfi_endproc
	.section	__TEXT,__gcc_except_tab
	.p2align	2
GCC_except_table32:
Lexception6:
	.byte	255
	.byte	255
	.byte	1
	.uleb128 Lcst_end6-Lcst_begin6
Lcst_begin6:
	.uleb128 Ltmp299-Lfunc_begin32
	.uleb128 Ltmp304-Ltmp299
	.uleb128 Ltmp307-Lfunc_begin32
	.byte	0
	.uleb128 Ltmp308-Lfunc_begin32
	.uleb128 Ltmp309-Ltmp308
	.uleb128 Ltmp310-Lfunc_begin32
	.byte	0
	.uleb128 Ltmp311-Lfunc_begin32
	.uleb128 Ltmp312-Ltmp311
	.uleb128 Ltmp313-Lfunc_begin32
	.byte	0
	.uleb128 Ltmp312-Lfunc_begin32
	.uleb128 Lfunc_end32-Ltmp312
	.byte	0
	.byte	0
Lcst_end6:
	.p2align	2

	.section	__TEXT,__text,regular,pure_instructions
	.globl	__ZN111_$LT$alloc..vec..Vec$LT$T$GT$$u20$as$u20$alloc..vec..spec_from_iter_nested..SpecFromIterNested$LT$T$C$I$GT$$GT$9from_iter17h9c707f21abcd8d93E
	.p2align	4, 0x90
__ZN111_$LT$alloc..vec..Vec$LT$T$GT$$u20$as$u20$alloc..vec..spec_from_iter_nested..SpecFromIterNested$LT$T$C$I$GT$$GT$9from_iter17h9c707f21abcd8d93E:
Lfunc_begin33:
	.loc	27 20 0
	.cfi_startproc
	.cfi_personality 155, _rust_eh_personality
	.cfi_lsda 16, Lexception7
	pushq	%rbp
	.cfi_def_cfa_offset 16
	.cfi_offset %rbp, -16
	movq	%rsp, %rbp
	.cfi_def_cfa_register %rbp
	subq	$464, %rsp
	movq	%rsi, -424(%rbp)
Ltmp356:
	movq	%rdi, %rax
	movq	-424(%rbp), %rdi
	movq	%rax, -416(%rbp)
	movq	%rax, -408(%rbp)
Ltmp357:
	.loc	27 26 13 prologue_end
	movb	$1, -226(%rbp)
Ltmp338:
	.loc	27 26 32 is_stmt 0
	callq	__ZN105_$LT$std..collections..hash..set..IntoIter$LT$K$GT$$u20$as$u20$core..iter..traits..iterator..Iterator$GT$4next17h1a10db296ddbd76cE
Ltmp339:
	movq	%rax, -400(%rbp)
	jmp	LBB33_3
Ltmp358:
LBB33_1:
	.loc	27 45 5 is_stmt 1
	testb	$1, -226(%rbp)
	jne	LBB33_19
	jmp	LBB33_18
Ltmp359:
LBB33_2:
Ltmp340:
	.loc	27 0 5 is_stmt 0
	movq	%rax, %rcx
	movl	%edx, %eax
	movq	%rcx, -200(%rbp)
	movl	%eax, -192(%rbp)
	jmp	LBB33_1
Ltmp360:
LBB33_3:
	movq	-400(%rbp), %rax
	.loc	27 26 32 is_stmt 1
	movl	%eax, %ecx
	movl	%ecx, -184(%rbp)
	shrq	$32, %rax
	movb	%al, -180(%rbp)
	movl	-184(%rbp), %eax
	movl	%eax, -368(%rbp)
	movb	-180(%rbp), %al
	movb	%al, -364(%rbp)
	movb	-368(%rbp), %al
	andb	$1, %al
	movzbl	%al, %eax
	.loc	27 26 26 is_stmt 0
	cmpq	$0, %rax
	jne	LBB33_5
Ltmp361:
	.loc	27 0 26
	movq	-424(%rbp), %rdi
	movq	-416(%rbp), %rax
Ltmp362:
	.loc	28 425 20 is_stmt 1
	movq	L___unnamed_45(%rip), %rdx
	movq	L___unnamed_45+8(%rip), %rcx
	.loc	28 425 9 is_stmt 0
	movq	%rdx, (%rax)
	movq	%rcx, 8(%rax)
	movq	$0, 16(%rax)
Ltmp363:
	.loc	27 45 5 is_stmt 1
	callq	__ZN4core3ptr91drop_in_place$LT$std..collections..hash..set..IntoIter$LT$$LP$u8$C$u8$C$u8$C$u8$RP$$GT$$GT$17h6fa48633b57d1223E
	jmp	LBB33_20
Ltmp364:
LBB33_5:
	.loc	27 0 5 is_stmt 0
	movq	-424(%rbp), %rsi
	.loc	27 28 18 is_stmt 1
	movl	-367(%rbp), %eax
	movl	%eax, -360(%rbp)
Ltmp341:
	leaq	-352(%rbp), %rdi
Ltmp365:
	.loc	27 29 34
	callq	__ZN105_$LT$std..collections..hash..set..IntoIter$LT$K$GT$$u20$as$u20$core..iter..traits..iterator..Iterator$GT$9size_hint17h9552d155031672a7E
Ltmp342:
	jmp	LBB33_8
Ltmp366:
LBB33_6:
	.loc	27 39 13
	movb	$1, %al
	testb	$1, %al
	jne	LBB33_14
	jmp	LBB33_1
Ltmp367:
LBB33_7:
Ltmp347:
	.loc	27 0 13 is_stmt 0
	movq	%rax, %rcx
	movl	%edx, %eax
	movq	%rcx, -200(%rbp)
	movl	%eax, -192(%rbp)
	jmp	LBB33_6
Ltmp368:
LBB33_8:
	.loc	27 29 22 is_stmt 1
	movq	-352(%rbp), %rax
	movq	%rax, -176(%rbp)
Ltmp369:
	.loc	27 31 61
	movq	%rax, -168(%rbp)
Ltmp370:
	.loc	16 1022 13
	incq	%rax
	movq	$-1, %rcx
	cmoveq	%rcx, %rax
	movq	%rax, -160(%rbp)
	movq	-160(%rbp), %rax
	movq	%rax, -432(%rbp)
	movq	%rax, -152(%rbp)
Ltmp371:
	.loc	16 0 13 is_stmt 0
	movq	-432(%rbp), %rsi
	.loc	27 31 21 is_stmt 1
	movq	$4, -144(%rbp)
Ltmp372:
	.file	30 "/rustc/2c8cc343237b8f7d5a3c3703e3a87f2eb2c54a74/library/core/src" "cmp.rs"
	.loc	30 1276 5
	movq	$4, -136(%rbp)
	.loc	30 1276 12 is_stmt 0
	movq	%rsi, -128(%rbp)
Ltmp343:
	movl	$4, %edi
Ltmp373:
	.loc	30 803 13 is_stmt 1
	callq	__ZN4core3cmp6max_by17h09cf754b63bbb628E
Ltmp344:
	movq	%rax, -440(%rbp)
	jmp	LBB33_10
Ltmp374:
LBB33_10:
	.loc	30 0 13 is_stmt 0
	movq	-440(%rbp), %rdi
	.loc	30 803 13
	movq	%rdi, -120(%rbp)
Ltmp375:
	.loc	27 32 53 is_stmt 1
	movq	%rdi, -112(%rbp)
Ltmp376:
	.loc	28 483 32
	movq	%rdi, -104(%rbp)
Ltmp377:
	.loc	28 676 45
	movq	%rdi, -96(%rbp)
Ltmp378:
	.loc	29 131 37
	movb	$0, -225(%rbp)
	.loc	29 131 9 is_stmt 0
	movzbl	-225(%rbp), %esi
Ltmp345:
	callq	__ZN5alloc7raw_vec19RawVec$LT$T$C$A$GT$11allocate_in17hd3b486f3c6134910E
Ltmp346:
	movq	%rdx, -456(%rbp)
	movq	%rax, -448(%rbp)
	jmp	LBB33_11
Ltmp379:
LBB33_11:
	.loc	29 0 9
	movq	-456(%rbp), %rax
	movq	-448(%rbp), %rcx
	.loc	28 676 9 is_stmt 1
	movq	%rcx, -328(%rbp)
	movq	%rax, -320(%rbp)
	movq	$0, -312(%rbp)
Ltmp380:
	.loc	27 35 32
	leaq	-328(%rbp), %rax
	movq	%rax, -88(%rbp)
Ltmp381:
	.loc	28 1280 19
	leaq	-328(%rbp), %rax
	movq	%rax, -80(%rbp)
Ltmp382:
	.loc	29 224 9
	movq	-320(%rbp), %rax
	movq	%rax, -464(%rbp)
	movq	%rax, -72(%rbp)
Ltmp383:
	.file	31 "/rustc/2c8cc343237b8f7d5a3c3703e3a87f2eb2c54a74/library/core/src/ptr" "unique.rs"
	.loc	31 104 9
	movq	%rax, -64(%rbp)
Ltmp384:
	.file	32 "/rustc/2c8cc343237b8f7d5a3c3703e3a87f2eb2c54a74/library/core/src/ptr" "non_null.rs"
	.loc	32 326 9
	movq	%rax, -56(%rbp)
Ltmp385:
	.loc	28 1282 21
	movq	%rax, -48(%rbp)
Ltmp386:
	.loc	4 52 36
	movq	%rax, -224(%rbp)
	.loc	4 52 18 is_stmt 0
	movq	-224(%rbp), %rax
	movq	%rax, -40(%rbp)
Ltmp387:
	.loc	4 38 13 is_stmt 1
	movq	%rax, -32(%rbp)
Ltmp388:
	.loc	4 215 33
	movq	%rax, -24(%rbp)
	.loc	4 215 18 is_stmt 0
	movq	%rax, -16(%rbp)
	movq	-16(%rbp), %rax
Ltmp389:
	.loc	4 0 18
	movq	-424(%rbp), %rcx
	movq	-464(%rbp), %rax
	.loc	27 35 53 is_stmt 1
	movl	-360(%rbp), %edx
	movl	%edx, -304(%rbp)
Ltmp390:
	.loc	6 1354 9
	movl	-304(%rbp), %edx
	movl	%edx, (%rax)
	leaq	-328(%rbp), %rax
Ltmp391:
	.loc	27 36 21
	movq	%rax, -8(%rbp)
Ltmp392:
	.loc	28 1377 9
	movq	$1, -312(%rbp)
Ltmp393:
	.loc	27 38 17
	movq	-312(%rbp), %rax
	movq	%rax, -376(%rbp)
	movq	-328(%rbp), %rax
	movq	-320(%rbp), %rdx
	movq	%rdx, -384(%rbp)
	movq	%rax, -392(%rbp)
Ltmp394:
	.loc	27 43 64
	movb	$0, -226(%rbp)
	movq	56(%rcx), %rax
	movq	%rax, -240(%rbp)
	movq	48(%rcx), %rax
	movq	%rax, -248(%rbp)
	movq	40(%rcx), %rax
	movq	%rax, -256(%rbp)
	movq	32(%rcx), %rax
	movq	%rax, -264(%rbp)
	movq	24(%rcx), %rax
	movq	%rax, -272(%rbp)
	movq	16(%rcx), %rax
	movq	%rax, -280(%rbp)
	movq	(%rcx), %rax
	movq	8(%rcx), %rcx
	movq	%rcx, -288(%rbp)
	movq	%rax, -296(%rbp)
Ltmp348:
	leaq	-392(%rbp), %rdi
	leaq	-296(%rbp), %rsi
	.loc	27 43 9 is_stmt 0
	callq	__ZN97_$LT$alloc..vec..Vec$LT$T$C$A$GT$$u20$as$u20$alloc..vec..spec_extend..SpecExtend$LT$T$C$I$GT$$GT$11spec_extend17h8854fb853c2ed906E
Ltmp349:
	jmp	LBB33_17
Ltmp395:
LBB33_13:
Ltmp355:
	.loc	27 20 5 is_stmt 1
	callq	__ZN4core9panicking19panic_cannot_unwind17h1fbca7e1d7f56ae1E
Ltmp396:
LBB33_14:
	.loc	27 39 13
	jmp	LBB33_1
Ltmp397:
LBB33_15:
Ltmp351:
	.loc	27 0 13 is_stmt 0
	leaq	-392(%rbp), %rdi
	.loc	27 45 5 is_stmt 1
	callq	__ZN4core3ptr69drop_in_place$LT$alloc..vec..Vec$LT$$LP$u8$C$u8$C$u8$C$u8$RP$$GT$$GT$17hcde824ae7d60684fE
Ltmp352:
	jmp	LBB33_1
Ltmp398:
LBB33_16:
Ltmp350:
	.loc	27 0 5 is_stmt 0
	movq	%rax, %rcx
	movl	%edx, %eax
	movq	%rcx, -200(%rbp)
	movl	%eax, -192(%rbp)
	jmp	LBB33_15
Ltmp399:
LBB33_17:
	movq	-416(%rbp), %rax
Ltmp400:
	.loc	27 44 9 is_stmt 1
	movq	-392(%rbp), %rcx
	movq	%rcx, (%rax)
	movq	-384(%rbp), %rcx
	movq	%rcx, 8(%rax)
	movq	-376(%rbp), %rcx
	movq	%rcx, 16(%rax)
Ltmp401:
	.loc	27 45 5
	jmp	LBB33_20
Ltmp402:
LBB33_18:
	.loc	27 20 5
	movq	-200(%rbp), %rdi
	callq	__Unwind_Resume
Ltmp403:
LBB33_19:
Ltmp353:
	.loc	27 0 5 is_stmt 0
	movq	-424(%rbp), %rdi
	.loc	27 45 5 is_stmt 1
	callq	__ZN4core3ptr91drop_in_place$LT$std..collections..hash..set..IntoIter$LT$$LP$u8$C$u8$C$u8$C$u8$RP$$GT$$GT$17h6fa48633b57d1223E
Ltmp354:
	jmp	LBB33_18
Ltmp404:
LBB33_20:
	.loc	27 0 5 is_stmt 0
	movq	-408(%rbp), %rax
	.loc	27 45 6
	addq	$464, %rsp
	popq	%rbp
	retq
Ltmp405:
Lfunc_end33:
	.cfi_endproc
	.section	__TEXT,__gcc_except_tab
	.p2align	2
GCC_except_table33:
Lexception7:
	.byte	255
	.byte	255
	.byte	1
	.uleb128 Lcst_end7-Lcst_begin7
Lcst_begin7:
	.uleb128 Ltmp338-Lfunc_begin33
	.uleb128 Ltmp339-Ltmp338
	.uleb128 Ltmp340-Lfunc_begin33
	.byte	0
	.uleb128 Ltmp339-Lfunc_begin33
	.uleb128 Ltmp341-Ltmp339
	.byte	0
	.byte	0
	.uleb128 Ltmp341-Lfunc_begin33
	.uleb128 Ltmp346-Ltmp341
	.uleb128 Ltmp347-Lfunc_begin33
	.byte	0
	.uleb128 Ltmp348-Lfunc_begin33
	.uleb128 Ltmp349-Ltmp348
	.uleb128 Ltmp350-Lfunc_begin33
	.byte	0
	.uleb128 Ltmp351-Lfunc_begin33
	.uleb128 Ltmp352-Ltmp351
	.uleb128 Ltmp355-Lfunc_begin33
	.byte	0
	.uleb128 Ltmp352-Lfunc_begin33
	.uleb128 Ltmp353-Ltmp352
	.byte	0
	.byte	0
	.uleb128 Ltmp353-Lfunc_begin33
	.uleb128 Ltmp354-Ltmp353
	.uleb128 Ltmp355-Lfunc_begin33
	.byte	0
Lcst_end7:
	.p2align	2

	.section	__TEXT,__text,regular,pure_instructions
	.globl	__ZN111_$LT$alloc..vec..Vec$LT$T$GT$$u20$as$u20$alloc..vec..spec_from_iter_nested..SpecFromIterNested$LT$T$C$I$GT$$GT$9from_iter17hd9dd298b21061b82E
	.p2align	4, 0x90
__ZN111_$LT$alloc..vec..Vec$LT$T$GT$$u20$as$u20$alloc..vec..spec_from_iter_nested..SpecFromIterNested$LT$T$C$I$GT$$GT$9from_iter17hd9dd298b21061b82E:
Lfunc_begin34:
	.loc	27 20 0 is_stmt 1
	.cfi_startproc
	.cfi_personality 155, _rust_eh_personality
	.cfi_lsda 16, Lexception8
	pushq	%rbp
	.cfi_def_cfa_offset 16
	.cfi_offset %rbp, -16
	movq	%rsp, %rbp
	.cfi_def_cfa_register %rbp
	subq	$496, %rsp
	movq	%rsi, -432(%rbp)
Ltmp424:
	movq	%rdi, %rax
	movq	-432(%rbp), %rdi
	movq	%rax, -424(%rbp)
	movq	%rax, -416(%rbp)
Ltmp425:
	.loc	27 26 13 prologue_end
	movb	$1, -226(%rbp)
Ltmp406:
	.loc	27 26 32 is_stmt 0
	callq	__ZN106_$LT$core..iter..adapters..flatten..Flatten$LT$I$GT$$u20$as$u20$core..iter..traits..iterator..Iterator$GT$4next17h1b95cb6ce69506d4E
Ltmp407:
	movb	%dl, -402(%rbp)
	movb	%al, -401(%rbp)
	jmp	LBB34_3
Ltmp426:
LBB34_1:
	.loc	27 45 5 is_stmt 1
	testb	$1, -226(%rbp)
	jne	LBB34_19
	jmp	LBB34_18
Ltmp427:
LBB34_2:
Ltmp408:
	.loc	27 0 5 is_stmt 0
	movq	%rax, %rcx
	movl	%edx, %eax
	movq	%rcx, -200(%rbp)
	movl	%eax, -192(%rbp)
	jmp	LBB34_1
Ltmp428:
LBB34_3:
	movb	-402(%rbp), %al
	movb	-401(%rbp), %cl
	.loc	27 26 32 is_stmt 1
	movb	%cl, -376(%rbp)
	movb	%al, -375(%rbp)
	movb	-376(%rbp), %al
	andb	$1, %al
	movzbl	%al, %eax
	.loc	27 26 26 is_stmt 0
	cmpq	$0, %rax
	jne	LBB34_5
Ltmp429:
	.loc	27 0 26
	movq	-432(%rbp), %rdi
	movq	-424(%rbp), %rax
Ltmp430:
	.loc	28 425 20 is_stmt 1
	movq	L___unnamed_45(%rip), %rdx
	movq	L___unnamed_45+8(%rip), %rcx
	.loc	28 425 9 is_stmt 0
	movq	%rdx, (%rax)
	movq	%rcx, 8(%rax)
	movq	$0, 16(%rax)
Ltmp431:
	.loc	27 45 5 is_stmt 1
	callq	__ZN4core3ptr228drop_in_place$LT$core..iter..adapters..flatten..Flatten$LT$core..iter..adapters..map..Map$LT$core..slice..iter..Iter$LT$$LP$u8$C$u8$C$u8$C$u8$RP$$GT$$C$gif..common..Frame..from_rgba_speed..$u7b$$u7b$closure$u7d$$u7d$$GT$$GT$$GT$17h3a4e7b0c8a8f5833E
	jmp	LBB34_20
Ltmp432:
LBB34_5:
	.loc	27 0 5 is_stmt 0
	movq	-432(%rbp), %rsi
	.loc	27 28 18 is_stmt 1
	movb	-375(%rbp), %al
	movb	%al, -433(%rbp)
	movb	%al, -177(%rbp)
Ltmp409:
	leaq	-368(%rbp), %rdi
Ltmp433:
	.loc	27 29 34
	callq	__ZN106_$LT$core..iter..adapters..flatten..Flatten$LT$I$GT$$u20$as$u20$core..iter..traits..iterator..Iterator$GT$9size_hint17hf1de793694f7f170E
Ltmp410:
	jmp	LBB34_8
Ltmp434:
LBB34_6:
	.loc	27 39 13
	movb	$1, %al
	testb	$1, %al
	jne	LBB34_14
	jmp	LBB34_1
Ltmp435:
LBB34_7:
Ltmp415:
	.loc	27 0 13 is_stmt 0
	movq	%rax, %rcx
	movl	%edx, %eax
	movq	%rcx, -200(%rbp)
	movl	%eax, -192(%rbp)
	jmp	LBB34_6
Ltmp436:
LBB34_8:
	.loc	27 29 22 is_stmt 1
	movq	-368(%rbp), %rax
	movq	%rax, -176(%rbp)
Ltmp437:
	.loc	27 31 61
	movq	%rax, -168(%rbp)
Ltmp438:
	.loc	16 1022 13
	incq	%rax
	movq	$-1, %rcx
	cmoveq	%rcx, %rax
	movq	%rax, -160(%rbp)
	movq	-160(%rbp), %rax
	movq	%rax, -448(%rbp)
	movq	%rax, -152(%rbp)
Ltmp439:
	.loc	16 0 13 is_stmt 0
	movq	-448(%rbp), %rsi
	.loc	27 31 21 is_stmt 1
	movq	$8, -144(%rbp)
Ltmp440:
	.loc	30 1276 5
	movq	$8, -136(%rbp)
	.loc	30 1276 12 is_stmt 0
	movq	%rsi, -128(%rbp)
Ltmp411:
	movl	$8, %edi
Ltmp441:
	.loc	30 803 13 is_stmt 1
	callq	__ZN4core3cmp6max_by17h09cf754b63bbb628E
Ltmp412:
	movq	%rax, -456(%rbp)
	jmp	LBB34_10
Ltmp442:
LBB34_10:
	.loc	30 0 13 is_stmt 0
	movq	-456(%rbp), %rdi
	.loc	30 803 13
	movq	%rdi, -120(%rbp)
Ltmp443:
	.loc	27 32 53 is_stmt 1
	movq	%rdi, -112(%rbp)
Ltmp444:
	.loc	28 483 32
	movq	%rdi, -104(%rbp)
Ltmp445:
	.loc	28 676 45
	movq	%rdi, -96(%rbp)
Ltmp446:
	.loc	29 131 37
	movb	$0, -225(%rbp)
	.loc	29 131 9 is_stmt 0
	movzbl	-225(%rbp), %esi
Ltmp413:
	callq	__ZN5alloc7raw_vec19RawVec$LT$T$C$A$GT$11allocate_in17hc4bd183bc3d4b59dE
Ltmp414:
	movq	%rdx, -472(%rbp)
	movq	%rax, -464(%rbp)
	jmp	LBB34_11
Ltmp447:
LBB34_11:
	.loc	29 0 9
	movq	-472(%rbp), %rax
	movq	-464(%rbp), %rcx
	.loc	28 676 9 is_stmt 1
	movq	%rcx, -344(%rbp)
	movq	%rax, -336(%rbp)
	movq	$0, -328(%rbp)
Ltmp448:
	.loc	27 35 32
	leaq	-344(%rbp), %rax
	movq	%rax, -88(%rbp)
Ltmp449:
	.loc	28 1280 19
	leaq	-344(%rbp), %rax
	movq	%rax, -80(%rbp)
Ltmp450:
	.loc	29 224 9
	movq	-336(%rbp), %rax
	movq	%rax, -480(%rbp)
	movq	%rax, -72(%rbp)
Ltmp451:
	.loc	31 104 9
	movq	%rax, -64(%rbp)
Ltmp452:
	.loc	32 326 9
	movq	%rax, -56(%rbp)
Ltmp453:
	.loc	28 1282 21
	movq	%rax, -48(%rbp)
Ltmp454:
	.loc	4 52 36
	movq	%rax, -224(%rbp)
	.loc	4 52 18 is_stmt 0
	movq	-224(%rbp), %rax
	movq	%rax, -40(%rbp)
Ltmp455:
	.loc	4 38 13 is_stmt 1
	movq	%rax, -32(%rbp)
Ltmp456:
	.loc	4 215 33
	movq	%rax, -24(%rbp)
	.loc	4 215 18 is_stmt 0
	movq	%rax, -16(%rbp)
	movq	-16(%rbp), %rax
Ltmp457:
	.loc	4 0 18
	movq	-432(%rbp), %rsi
	movq	-480(%rbp), %rax
	movb	-433(%rbp), %cl
	.loc	27 35 53 is_stmt 1
	movb	%cl, -313(%rbp)
Ltmp458:
	.loc	6 1354 9
	movb	-313(%rbp), %cl
	movb	%cl, (%rax)
	leaq	-344(%rbp), %rax
Ltmp459:
	.loc	27 36 21
	movq	%rax, -8(%rbp)
Ltmp460:
	.loc	28 1377 9
	movq	$1, -328(%rbp)
Ltmp461:
	.loc	27 38 17
	movq	-328(%rbp), %rax
	movq	%rax, -384(%rbp)
	movq	-344(%rbp), %rax
	movq	-336(%rbp), %rcx
	movq	%rcx, -392(%rbp)
	movq	%rax, -400(%rbp)
Ltmp462:
	.loc	27 43 64
	movb	$0, -226(%rbp)
	movl	$10, %ecx
	leaq	-312(%rbp), %rdi
	movq	%rdi, -488(%rbp)
	rep;movsq (%rsi), %es:(%rdi)
	movq	-488(%rbp), %rsi
Ltmp416:
	leaq	-400(%rbp), %rdi
	.loc	27 43 9 is_stmt 0
	callq	__ZN97_$LT$alloc..vec..Vec$LT$T$C$A$GT$$u20$as$u20$alloc..vec..spec_extend..SpecExtend$LT$T$C$I$GT$$GT$11spec_extend17h5818d96aa27d3c04E
Ltmp417:
	jmp	LBB34_17
Ltmp463:
LBB34_13:
Ltmp423:
	.loc	27 20 5 is_stmt 1
	callq	__ZN4core9panicking19panic_cannot_unwind17h1fbca7e1d7f56ae1E
Ltmp464:
LBB34_14:
	.loc	27 39 13
	jmp	LBB34_1
Ltmp465:
LBB34_15:
Ltmp419:
	.loc	27 0 13 is_stmt 0
	leaq	-400(%rbp), %rdi
	.loc	27 45 5 is_stmt 1
	callq	__ZN4core3ptr46drop_in_place$LT$alloc..vec..Vec$LT$u8$GT$$GT$17h35b49b463314a270E
Ltmp420:
	jmp	LBB34_1
Ltmp466:
LBB34_16:
Ltmp418:
	.loc	27 0 5 is_stmt 0
	movq	%rax, %rcx
	movl	%edx, %eax
	movq	%rcx, -200(%rbp)
	movl	%eax, -192(%rbp)
	jmp	LBB34_15
Ltmp467:
LBB34_17:
	movq	-424(%rbp), %rax
Ltmp468:
	.loc	27 44 9 is_stmt 1
	movq	-400(%rbp), %rcx
	movq	%rcx, (%rax)
	movq	-392(%rbp), %rcx
	movq	%rcx, 8(%rax)
	movq	-384(%rbp), %rcx
	movq	%rcx, 16(%rax)
Ltmp469:
	.loc	27 45 5
	jmp	LBB34_20
Ltmp470:
LBB34_18:
	.loc	27 20 5
	movq	-200(%rbp), %rdi
	callq	__Unwind_Resume
Ltmp471:
LBB34_19:
Ltmp421:
	.loc	27 0 5 is_stmt 0
	movq	-432(%rbp), %rdi
	.loc	27 45 5 is_stmt 1
	callq	__ZN4core3ptr228drop_in_place$LT$core..iter..adapters..flatten..Flatten$LT$core..iter..adapters..map..Map$LT$core..slice..iter..Iter$LT$$LP$u8$C$u8$C$u8$C$u8$RP$$GT$$C$gif..common..Frame..from_rgba_speed..$u7b$$u7b$closure$u7d$$u7d$$GT$$GT$$GT$17h3a4e7b0c8a8f5833E
Ltmp422:
	jmp	LBB34_18
Ltmp472:
LBB34_20:
	.loc	27 0 5 is_stmt 0
	movq	-416(%rbp), %rax
	.loc	27 45 6
	addq	$496, %rsp
	popq	%rbp
	retq
Ltmp473:
Lfunc_end34:
	.cfi_endproc
	.section	__TEXT,__gcc_except_tab
	.p2align	2
GCC_except_table34:
Lexception8:
	.byte	255
	.byte	255
	.byte	1
	.uleb128 Lcst_end8-Lcst_begin8
Lcst_begin8:
	.uleb128 Ltmp406-Lfunc_begin34
	.uleb128 Ltmp407-Ltmp406
	.uleb128 Ltmp408-Lfunc_begin34
	.byte	0
	.uleb128 Ltmp407-Lfunc_begin34
	.uleb128 Ltmp409-Ltmp407
	.byte	0
	.byte	0
	.uleb128 Ltmp409-Lfunc_begin34
	.uleb128 Ltmp414-Ltmp409
	.uleb128 Ltmp415-Lfunc_begin34
	.byte	0
	.uleb128 Ltmp416-Lfunc_begin34
	.uleb128 Ltmp417-Ltmp416
	.uleb128 Ltmp418-Lfunc_begin34
	.byte	0
	.uleb128 Ltmp419-Lfunc_begin34
	.uleb128 Ltmp420-Ltmp419
	.uleb128 Ltmp423-Lfunc_begin34
	.byte	0
	.uleb128 Ltmp420-Lfunc_begin34
	.uleb128 Ltmp421-Ltmp420
	.byte	0
	.byte	0
	.uleb128 Ltmp421-Lfunc_begin34
	.uleb128 Ltmp422-Ltmp421
	.uleb128 Ltmp423-Lfunc_begin34
	.byte	0
Lcst_end8:
	.p2align	2

	.section	__TEXT,__text,regular,pure_instructions
	.globl	__ZN111_$LT$core..iter..adapters..zip..Zip$LT$A$C$B$GT$$u20$as$u20$core..iter..adapters..zip..ZipImpl$LT$A$C$B$GT$$GT$3new17h11e3340983bd83d6E
	.p2align	4, 0x90
__ZN111_$LT$core..iter..adapters..zip..Zip$LT$A$C$B$GT$$u20$as$u20$core..iter..adapters..zip..ZipImpl$LT$A$C$B$GT$$GT$3new17h11e3340983bd83d6E:
Lfunc_begin35:
	.loc	8 142 0 is_stmt 1
	.cfi_startproc
	pushq	%rbp
	.cfi_def_cfa_offset 16
	.cfi_offset %rbp, -16
	movq	%rsp, %rbp
	.cfi_def_cfa_register %rbp
	subq	$48, %rsp
	movq	%rdi, %rax
	movw	%dx, %cx
	movw	%cx, -44(%rbp)
	shrl	$16, %edx
	movb	%dl, %cl
	movb	%cl, -42(%rbp)
	movw	-44(%rbp), %cx
	movw	%cx, -48(%rbp)
	movb	-42(%rbp), %cl
	movb	%cl, -46(%rbp)
Ltmp474:
	.loc	8 144 17 prologue_end
	movq	(%rsi), %rcx
	movq	%rcx, -40(%rbp)
	movq	8(%rsi), %rcx
	movq	%rcx, -32(%rbp)
	movq	16(%rsi), %rcx
	movq	%rcx, -24(%rbp)
	movq	24(%rsi), %rcx
	movq	%rcx, -16(%rbp)
	.loc	8 145 17
	movw	-48(%rbp), %cx
	movw	%cx, -8(%rbp)
	movb	-46(%rbp), %cl
	movb	%cl, -6(%rbp)
	.loc	8 143 13
	movq	-40(%rbp), %rcx
	movq	%rcx, (%rdi)
	movq	-32(%rbp), %rcx
	movq	%rcx, 8(%rdi)
	movq	-24(%rbp), %rcx
	movq	%rcx, 16(%rdi)
	movq	-16(%rbp), %rcx
	movq	%rcx, 24(%rdi)
	movw	-8(%rbp), %cx
	movw	%cx, 56(%rdi)
	movb	-6(%rbp), %cl
	movb	%cl, 58(%rdi)
	movq	$0, 32(%rdi)
	movq	$0, 40(%rdi)
	movq	$0, 48(%rdi)
	.loc	8 150 10
	addq	$48, %rsp
	popq	%rbp
	retq
Ltmp475:
Lfunc_end35:
	.cfi_endproc

	.globl	__ZN111_$LT$core..iter..adapters..zip..Zip$LT$A$C$B$GT$$u20$as$u20$core..iter..adapters..zip..ZipImpl$LT$A$C$B$GT$$GT$4next17hdd29acca610f6c49E
	.p2align	4, 0x90
__ZN111_$LT$core..iter..adapters..zip..Zip$LT$A$C$B$GT$$u20$as$u20$core..iter..adapters..zip..ZipImpl$LT$A$C$B$GT$$GT$4next17hdd29acca610f6c49E:
Lfunc_begin36:
	.loc	8 153 0
	.cfi_startproc
	.cfi_personality 155, _rust_eh_personality
	.cfi_lsda 16, Lexception9
	pushq	%rbp
	.cfi_def_cfa_offset 16
	.cfi_offset %rbp, -16
	movq	%rsp, %rbp
	.cfi_def_cfa_register %rbp
	subq	$176, %rsp
	movq	%rdi, -168(%rbp)
	movq	%rdi, -72(%rbp)
Ltmp479:
	.loc	8 154 21 prologue_end
	callq	__ZN103_$LT$alloc..vec..into_iter..IntoIter$LT$T$C$A$GT$$u20$as$u20$core..iter..traits..iterator..Iterator$GT$4next17h717a49c048af60f9E
	movl	%eax, %ecx
	movl	%ecx, -32(%rbp)
	shrq	$32, %rax
	movb	%al, -28(%rbp)
	movl	-32(%rbp), %eax
	movl	%eax, -136(%rbp)
	movb	-28(%rbp), %al
	movb	%al, -132(%rbp)
Ltmp480:
	.loc	23 2407 15
	movb	-136(%rbp), %al
	andb	$1, %al
	movzbl	%al, %eax
	.loc	23 2407 9 is_stmt 0
	cmpq	$0, %rax
	jne	LBB36_2
	.loc	23 2409 21 is_stmt 1
	movb	$1, -144(%rbp)
	.loc	23 2409 44 is_stmt 0
	jmp	LBB36_3
LBB36_2:
	.loc	23 2408 18 is_stmt 1
	movl	-135(%rbp), %eax
	movl	%eax, -88(%rbp)
Ltmp481:
	.loc	23 2408 46 is_stmt 0
	movl	-88(%rbp), %eax
	movl	%eax, -80(%rbp)
	.loc	23 2408 24
	movl	-80(%rbp), %eax
	movl	%eax, -143(%rbp)
	movb	$0, -144(%rbp)
Ltmp482:
LBB36_3:
	.loc	8 154 21 is_stmt 1
	movb	-144(%rbp), %al
	andb	$1, %al
	movzbl	%al, %eax
	cmpq	$0, %rax
	jne	LBB36_5
	.loc	8 0 21 is_stmt 0
	movq	-168(%rbp), %rdi
	.loc	8 154 21
	movl	-143(%rbp), %eax
	movl	%eax, -128(%rbp)
Ltmp483:
	.loc	8 154 21
	movl	-128(%rbp), %eax
	movl	%eax, -152(%rbp)
Ltmp484:
	.loc	8 155 21 is_stmt 1
	addq	$56, %rdi
Ltmp476:
	callq	__ZN4core4iter5range110_$LT$impl$u20$core..iter..traits..iterator..Iterator$u20$for$u20$core..ops..range..RangeInclusive$LT$A$GT$$GT$4next17ha152cdde55b300e2E
Ltmp477:
	movb	%dl, -170(%rbp)
	movb	%al, -169(%rbp)
	jmp	LBB36_9
Ltmp485:
LBB36_5:
	.loc	23 2420 21
	movb	$0, -160(%rbp)
Ltmp486:
LBB36_6:
	.loc	8 157 10
	jmp	LBB36_15
LBB36_7:
	.loc	8 153 9
	movq	-24(%rbp), %rdi
	callq	__Unwind_Resume
LBB36_8:
Ltmp478:
	.loc	8 0 9 is_stmt 0
	movq	%rax, %rcx
	movl	%edx, %eax
	movq	%rcx, -24(%rbp)
	movl	%eax, -16(%rbp)
	jmp	LBB36_7
LBB36_9:
	movb	-170(%rbp), %al
	movb	-169(%rbp), %cl
Ltmp487:
	.loc	8 155 21 is_stmt 1
	movb	%cl, -112(%rbp)
	movb	%al, -111(%rbp)
Ltmp488:
	.loc	23 2407 15
	movb	-112(%rbp), %al
	andb	$1, %al
	movzbl	%al, %eax
	.loc	23 2407 9 is_stmt 0
	cmpq	$0, %rax
	jne	LBB36_11
	.loc	23 2409 21 is_stmt 1
	movb	$1, -120(%rbp)
	.loc	23 2409 44 is_stmt 0
	jmp	LBB36_12
LBB36_11:
	.loc	23 2408 18 is_stmt 1
	movb	-111(%rbp), %al
	movb	%al, -3(%rbp)
Ltmp489:
	.loc	23 2408 24 is_stmt 0
	movb	%al, -119(%rbp)
	movb	$0, -120(%rbp)
Ltmp490:
LBB36_12:
	.loc	8 155 21 is_stmt 1
	movb	-120(%rbp), %al
	andb	$1, %al
	movzbl	%al, %eax
	cmpq	$0, %rax
	jne	LBB36_14
	movb	-119(%rbp), %al
	movb	%al, -2(%rbp)
Ltmp491:
	.loc	8 155 21 is_stmt 0
	movb	%al, -1(%rbp)
Ltmp492:
	.loc	8 156 19 is_stmt 1
	movl	-152(%rbp), %ecx
	movl	%ecx, -96(%rbp)
	.loc	8 156 18 is_stmt 0
	movl	-96(%rbp), %ecx
	movl	%ecx, -104(%rbp)
	movb	%al, -100(%rbp)
	.loc	8 156 13
	movl	-104(%rbp), %eax
	movl	%eax, -159(%rbp)
	movb	-100(%rbp), %al
	movb	%al, -155(%rbp)
	movb	$1, -160(%rbp)
Ltmp493:
	.loc	8 157 10 is_stmt 1
	jmp	LBB36_15
LBB36_14:
Ltmp494:
	.loc	23 2420 21
	movb	$0, -160(%rbp)
Ltmp495:
	.loc	8 157 9
	jmp	LBB36_6
LBB36_15:
	.loc	8 157 10 is_stmt 0
	movl	-160(%rbp), %eax
	movzwl	-156(%rbp), %ecx
	shlq	$32, %rcx
	orq	%rcx, %rax
	addq	$176, %rsp
	popq	%rbp
	retq
Ltmp496:
Lfunc_end36:
	.cfi_endproc
	.section	__TEXT,__gcc_except_tab
	.p2align	2
GCC_except_table36:
Lexception9:
	.byte	255
	.byte	255
	.byte	1
	.uleb128 Lcst_end9-Lcst_begin9
Lcst_begin9:
	.uleb128 Lfunc_begin36-Lfunc_begin36
	.uleb128 Ltmp476-Lfunc_begin36
	.byte	0
	.byte	0
	.uleb128 Ltmp476-Lfunc_begin36
	.uleb128 Ltmp477-Ltmp476
	.uleb128 Ltmp478-Lfunc_begin36
	.byte	0
	.uleb128 Ltmp477-Lfunc_begin36
	.uleb128 Lfunc_end36-Ltmp477
	.byte	0
	.byte	0
Lcst_end9:
	.p2align	2

	.section	__TEXT,__text,regular,pure_instructions
	.globl	__ZN111_$LT$core..iter..adapters..zip..Zip$LT$A$C$B$GT$$u20$as$u20$core..iter..adapters..zip..ZipImpl$LT$A$C$B$GT$$GT$9size_hint17h1100d8206b91d448E
	.p2align	4, 0x90
__ZN111_$LT$core..iter..adapters..zip..Zip$LT$A$C$B$GT$$u20$as$u20$core..iter..adapters..zip..ZipImpl$LT$A$C$B$GT$$GT$9size_hint17h1100d8206b91d448E:
Lfunc_begin37:
	.loc	8 209 0 is_stmt 1
	.cfi_startproc
	pushq	%rbp
	.cfi_def_cfa_offset 16
	.cfi_offset %rbp, -16
	movq	%rsp, %rbp
	.cfi_def_cfa_register %rbp
	subq	$336, %rsp
	movq	%rsi, -312(%rbp)
	movq	%rdi, -328(%rbp)
	movq	%rdi, -320(%rbp)
	movq	%rsi, -160(%rbp)
Ltmp497:
	.loc	8 210 34 prologue_end
	leaq	-256(%rbp), %rdi
	callq	__ZN103_$LT$alloc..vec..into_iter..IntoIter$LT$T$C$A$GT$$u20$as$u20$core..iter..traits..iterator..Iterator$GT$9size_hint17h72263eb912602235E
	movq	-312(%rbp), %rsi
	.loc	8 210 14 is_stmt 0
	movq	-256(%rbp), %rax
	movq	%rax, -304(%rbp)
	movq	%rax, -152(%rbp)
	.loc	8 210 23
	movq	-248(%rbp), %rcx
	movq	%rcx, -296(%rbp)
	movq	-240(%rbp), %rax
	movq	%rax, -288(%rbp)
	movq	%rcx, -144(%rbp)
	movq	%rax, -136(%rbp)
Ltmp498:
	.loc	8 211 34 is_stmt 1
	addq	$56, %rsi
	leaq	-232(%rbp), %rdi
	callq	__ZN4core4iter5range110_$LT$impl$u20$core..iter..traits..iterator..Iterator$u20$for$u20$core..ops..range..RangeInclusive$LT$A$GT$$GT$9size_hint17hd7b7a79af12a290fE
	movq	-304(%rbp), %rdi
	.loc	8 211 14 is_stmt 0
	movq	-232(%rbp), %rsi
	movq	%rsi, -128(%rbp)
	.loc	8 211 23
	movq	-224(%rbp), %rcx
	movq	%rcx, -280(%rbp)
	movq	-216(%rbp), %rax
	movq	%rax, -272(%rbp)
	movq	%rcx, -120(%rbp)
	movq	%rax, -112(%rbp)
Ltmp499:
	.loc	8 213 30 is_stmt 1
	movq	%rdi, -104(%rbp)
	.loc	8 213 39 is_stmt 0
	movq	%rsi, -96(%rbp)
Ltmp500:
	.loc	30 1185 5 is_stmt 1
	movq	%rdi, -88(%rbp)
	.loc	30 1185 12 is_stmt 0
	movq	%rsi, -80(%rbp)
Ltmp501:
	.loc	30 833 13 is_stmt 1
	callq	__ZN4core3cmp6min_by17h23b429a2bbedd5fbE
	movq	-296(%rbp), %rsi
	movq	-288(%rbp), %rdx
	movq	-280(%rbp), %rcx
	movq	%rax, %rdi
	movq	-272(%rbp), %rax
	movq	%rdi, -264(%rbp)
	movq	%rdi, -72(%rbp)
Ltmp502:
	.loc	8 215 27
	movq	%rsi, -192(%rbp)
	movq	%rdx, -184(%rbp)
	movq	%rcx, -176(%rbp)
	movq	%rax, -168(%rbp)
	.loc	8 215 21 is_stmt 0
	cmpq	$0, -192(%rbp)
	jne	LBB37_2
	cmpq	$0, -176(%rbp)
	je	LBB37_6
	jmp	LBB37_7
LBB37_2:
	cmpq	$0, -176(%rbp)
	jne	LBB37_4
	.loc	8 217 19 is_stmt 1
	movq	-184(%rbp), %rax
	movq	%rax, -16(%rbp)
Ltmp503:
	.loc	8 217 32 is_stmt 0
	movq	%rax, -200(%rbp)
	movq	$1, -208(%rbp)
Ltmp504:
	.loc	8 217 38
	jmp	LBB37_5
LBB37_4:
	.loc	8 216 19 is_stmt 1
	movq	-184(%rbp), %rdi
	movq	%rdi, -64(%rbp)
	.loc	8 216 28 is_stmt 0
	movq	-168(%rbp), %rsi
	movq	%rsi, -56(%rbp)
Ltmp505:
	.loc	8 216 49
	movq	%rdi, -48(%rbp)
	.loc	8 216 52
	movq	%rsi, -40(%rbp)
Ltmp506:
	.loc	30 1185 5 is_stmt 1
	movq	%rdi, -32(%rbp)
	.loc	30 1185 12 is_stmt 0
	movq	%rsi, -24(%rbp)
Ltmp507:
	.loc	30 833 13 is_stmt 1
	callq	__ZN4core3cmp6min_by17h23b429a2bbedd5fbE
Ltmp508:
	.loc	8 216 35
	movq	%rax, -200(%rbp)
	movq	$1, -208(%rbp)
Ltmp509:
LBB37_5:
	.loc	8 0 35 is_stmt 0
	movq	-320(%rbp), %rax
	movq	-328(%rbp), %rcx
	movq	-264(%rbp), %rdi
Ltmp510:
	.loc	8 222 17 is_stmt 1
	movq	-208(%rbp), %rsi
	movq	-200(%rbp), %rdx
	.loc	8 222 9 is_stmt 0
	movq	%rdi, (%rcx)
	movq	%rsi, 8(%rcx)
	movq	%rdx, 16(%rcx)
Ltmp511:
	.loc	8 223 6 is_stmt 1
	addq	$336, %rsp
	popq	%rbp
	retq
LBB37_6:
Ltmp512:
	.loc	8 219 29
	movq	$0, -208(%rbp)
	jmp	LBB37_5
LBB37_7:
	.loc	8 218 25
	movq	-168(%rbp), %rax
	movq	%rax, -8(%rbp)
Ltmp513:
	.loc	8 218 32 is_stmt 0
	movq	%rax, -200(%rbp)
	movq	$1, -208(%rbp)
Ltmp514:
	.loc	8 218 38
	jmp	LBB37_5
Ltmp515:
Lfunc_end37:
	.cfi_endproc

	.globl	__ZN111_$LT$std..collections..hash..set..HashSet$LT$T$C$S$GT$$u20$as$u20$core..iter..traits..collect..IntoIterator$GT$9into_iter17h37da4ee1d527dfd4E
	.p2align	4, 0x90
__ZN111_$LT$std..collections..hash..set..HashSet$LT$T$C$S$GT$$u20$as$u20$core..iter..traits..collect..IntoIterator$GT$9into_iter17h37da4ee1d527dfd4E:
Lfunc_begin38:
	.loc	19 1485 0 is_stmt 1
	.cfi_startproc
	pushq	%rbp
	.cfi_def_cfa_offset 16
	.cfi_offset %rbp, -16
	movq	%rsp, %rbp
	.cfi_def_cfa_register %rbp
	subq	$128, %rsp
	movq	%rdi, -128(%rbp)
	movq	%rdi, -120(%rbp)
Ltmp516:
	.loc	19 1486 26 prologue_end
	leaq	-48(%rbp), %rdi
	movl	$48, %edx
	callq	_memcpy
Ltmp517:
	leaq	-112(%rbp), %rdi
	leaq	-48(%rbp), %rsi
	callq	__ZN102_$LT$hashbrown..set..HashSet$LT$T$C$S$C$A$GT$$u20$as$u20$core..iter..traits..collect..IntoIterator$GT$9into_iter17h3bd7b0f21485ffa7E
	movq	-128(%rbp), %rdi
	.loc	19 1486 9 is_stmt 0
	leaq	-112(%rbp), %rsi
	movl	$64, %edx
	callq	_memcpy
	movq	-120(%rbp), %rax
	.loc	19 1487 6 is_stmt 1
	addq	$128, %rsp
	popq	%rbp
	retq
Ltmp518:
Lfunc_end38:
	.cfi_endproc

	.globl	__ZN115_$LT$core..panic..unwind_safe..AssertUnwindSafe$LT$F$GT$$u20$as$u20$core..ops..function..FnOnce$LT$$LP$$RP$$GT$$GT$9call_once17hed007adcaf26a226E
	.p2align	4, 0x90
__ZN115_$LT$core..panic..unwind_safe..AssertUnwindSafe$LT$F$GT$$u20$as$u20$core..ops..function..FnOnce$LT$$LP$$RP$$GT$$GT$9call_once17hed007adcaf26a226E:
Lfunc_begin39:
	.file	33 "/rustc/2c8cc343237b8f7d5a3c3703e3a87f2eb2c54a74/library/core/src/panic" "unwind_safe.rs"
	.loc	33 270 0
	.cfi_startproc
	pushq	%rbp
	.cfi_def_cfa_offset 16
	.cfi_offset %rbp, -16
	movq	%rsp, %rbp
	.cfi_def_cfa_register %rbp
	subq	$16, %rsp
	movq	%rdi, -8(%rbp)
Ltmp519:
	.loc	33 271 9 prologue_end
	callq	__ZN4core3ops8function6FnOnce9call_once17ha864981504174362E
	.loc	33 272 6
	addq	$16, %rsp
	popq	%rbp
	retq
Ltmp520:
Lfunc_end39:
	.cfi_endproc

	.globl	__ZN116_$LT$core..iter..adapters..flatten..FlattenCompat$LT$I$C$U$GT$$u20$as$u20$core..iter..traits..iterator..Iterator$GT$4next17h3fb1e7839770eba0E
	.p2align	4, 0x90
__ZN116_$LT$core..iter..adapters..flatten..FlattenCompat$LT$I$C$U$GT$$u20$as$u20$core..iter..traits..iterator..Iterator$GT$4next17h3fb1e7839770eba0E:
Lfunc_begin40:
	.loc	20 469 0
	.cfi_startproc
	.cfi_personality 155, _rust_eh_personality
	.cfi_lsda 16, Lexception10
	pushq	%rbp
	.cfi_def_cfa_offset 16
	.cfi_offset %rbp, -16
	movq	%rsp, %rbp
	.cfi_def_cfa_register %rbp
	subq	$208, %rsp
	movq	%rdi, -200(%rbp)
	movq	%rdi, -40(%rbp)
LBB40_1:
	movq	-200(%rbp), %rdi
Ltmp524:
	.loc	20 471 36 prologue_end
	callq	__ZN4core4iter8adapters7flatten17and_then_or_clear17h25d685c3f4d2d740E
	movb	%dl, -183(%rbp)
	movb	%al, -184(%rbp)
	.loc	20 471 20 is_stmt 0
	movb	-184(%rbp), %al
	andb	$1, %al
	movzbl	%al, %eax
	cmpq	$1, %rax
	jne	LBB40_3
	movb	-184(%rbp), %cl
	movb	-183(%rbp), %al
	movb	%cl, %dl
	andb	$1, %dl
	movb	%dl, -8(%rbp)
	movb	%al, -7(%rbp)
	.loc	20 472 24 is_stmt 1
	andb	$1, %cl
	movb	%cl, -192(%rbp)
	movb	%al, -191(%rbp)
Ltmp525:
	.file	34 "/Users/natalie/.cargo/registry/src/github.com-1ecc6299db9ec823/gif-0.11.4" "src/lib.rs"
	.loc	34 1 1
	jmp	LBB40_9
LBB40_3:
	.loc	34 0 1 is_stmt 0
	movq	-200(%rbp), %rsi
	.loc	20 474 19 is_stmt 1
	addq	$64, %rsi
	movq	%rsi, -32(%rbp)
Ltmp526:
	.loc	22 43 9
	leaq	-176(%rbp), %rdi
	callq	__ZN107_$LT$core..iter..adapters..fuse..Fuse$LT$I$GT$$u20$as$u20$core..iter..adapters..fuse..FuseImpl$LT$I$GT$$GT$4next17hcae2d19c7100ae70E
Ltmp527:
	.loc	20 474 19
	movq	-168(%rbp), %rdx
	movl	$1, %eax
	xorl	%ecx, %ecx
	cmpq	$0, %rdx
	cmoveq	%rcx, %rax
	.loc	20 474 13 is_stmt 0
	cmpq	$0, %rax
	jne	LBB40_5
	.loc	20 0 13
	movq	-200(%rbp), %rdi
	.loc	20 475 50 is_stmt 1
	addq	$32, %rdi
	.loc	20 475 32 is_stmt 0
	callq	__ZN4core4iter8adapters7flatten17and_then_or_clear17h25d685c3f4d2d740E
	movb	%dl, -191(%rbp)
	movb	%al, -192(%rbp)
	.loc	34 1 1 is_stmt 1
	jmp	LBB40_9
LBB40_5:
	.loc	20 476 22
	movq	-160(%rbp), %rax
	movq	%rax, -136(%rbp)
	movq	-176(%rbp), %rax
	movq	-168(%rbp), %rcx
	movq	%rcx, -144(%rbp)
	movq	%rax, -152(%rbp)
Ltmp528:
	.loc	20 476 54 is_stmt 0
	movq	-136(%rbp), %rax
	movq	%rax, -48(%rbp)
	movq	-152(%rbp), %rax
	movq	-144(%rbp), %rcx
	movq	%rcx, -56(%rbp)
	movq	%rax, -64(%rbp)
	leaq	-96(%rbp), %rdi
	leaq	-64(%rbp), %rsi
	callq	__ZN90_$LT$alloc..vec..Vec$LT$T$C$A$GT$$u20$as$u20$core..iter..traits..collect..IntoIterator$GT$9into_iter17h174c9952e74b0fc2E
	movq	-200(%rbp), %rdi
	.loc	20 476 49
	movq	-72(%rbp), %rax
	movq	%rax, -104(%rbp)
	movq	-80(%rbp), %rax
	movq	%rax, -112(%rbp)
	movq	-96(%rbp), %rax
	movq	-88(%rbp), %rcx
	movq	%rcx, -120(%rbp)
	movq	%rax, -128(%rbp)
Ltmp521:
	.loc	20 476 32
	callq	__ZN4core3ptr90drop_in_place$LT$core..option..Option$LT$alloc..vec..into_iter..IntoIter$LT$u8$GT$$GT$$GT$17h6038362e1a7af1c4E
Ltmp522:
	jmp	LBB40_8
LBB40_6:
	.loc	20 0 32
	movq	-200(%rbp), %rax
	.loc	20 476 32
	movq	-104(%rbp), %rcx
	movq	%rcx, 24(%rax)
	movq	-112(%rbp), %rcx
	movq	%rcx, 16(%rax)
	movq	-128(%rbp), %rcx
	movq	-120(%rbp), %rdx
	movq	%rdx, 8(%rax)
	movq	%rcx, (%rax)
Ltmp529:
	.loc	20 469 5 is_stmt 1
	movq	-24(%rbp), %rdi
	callq	__Unwind_Resume
LBB40_7:
Ltmp523:
	.loc	20 0 5 is_stmt 0
	movq	%rax, %rcx
	movl	%edx, %eax
	movq	%rcx, -24(%rbp)
	movl	%eax, -16(%rbp)
	jmp	LBB40_6
LBB40_8:
	movq	-200(%rbp), %rax
Ltmp530:
	.loc	20 476 32 is_stmt 1
	movq	-128(%rbp), %rcx
	movq	%rcx, (%rax)
	movq	-120(%rbp), %rcx
	movq	%rcx, 8(%rax)
	movq	-112(%rbp), %rcx
	movq	%rcx, 16(%rax)
	movq	-104(%rbp), %rcx
	movq	%rcx, 24(%rax)
Ltmp531:
	.loc	20 470 9
	jmp	LBB40_1
LBB40_9:
	.loc	20 479 6
	movb	-192(%rbp), %al
	movb	-191(%rbp), %dl
	addq	$208, %rsp
	popq	%rbp
	retq
Ltmp532:
Lfunc_end40:
	.cfi_endproc
	.section	__TEXT,__gcc_except_tab
	.p2align	2
GCC_except_table40:
Lexception10:
	.byte	255
	.byte	255
	.byte	1
	.uleb128 Lcst_end10-Lcst_begin10
Lcst_begin10:
	.uleb128 Lfunc_begin40-Lfunc_begin40
	.uleb128 Ltmp521-Lfunc_begin40
	.byte	0
	.byte	0
	.uleb128 Ltmp521-Lfunc_begin40
	.uleb128 Ltmp522-Ltmp521
	.uleb128 Ltmp523-Lfunc_begin40
	.byte	0
	.uleb128 Ltmp522-Lfunc_begin40
	.uleb128 Lfunc_end40-Ltmp522
	.byte	0
	.byte	0
Lcst_end10:
	.p2align	2

	.section	__TEXT,__text,regular,pure_instructions
	.globl	__ZN116_$LT$core..iter..adapters..flatten..FlattenCompat$LT$I$C$U$GT$$u20$as$u20$core..iter..traits..iterator..Iterator$GT$9size_hint17h2f1ae10ac7a28dc1E
	.p2align	4, 0x90
__ZN116_$LT$core..iter..adapters..flatten..FlattenCompat$LT$I$C$U$GT$$u20$as$u20$core..iter..traits..iterator..Iterator$GT$9size_hint17h2f1ae10ac7a28dc1E:
Lfunc_begin41:
	.loc	20 482 0
	.cfi_startproc
	pushq	%rbp
	.cfi_def_cfa_offset 16
	.cfi_offset %rbp, -16
	movq	%rsp, %rbp
	.cfi_def_cfa_register %rbp
	subq	$1136, %rsp
	movq	%rsi, -1016(%rbp)
	movq	%rdi, -1008(%rbp)
	movq	%rdi, -1000(%rbp)
	movq	%rsi, -448(%rbp)
Ltmp533:
	.loc	20 483 26 prologue_end
	movq	%rsi, -344(%rbp)
Ltmp534:
	.loc	23 675 15
	movq	24(%rsi), %rdx
	movl	$1, %eax
	xorl	%ecx, %ecx
	cmpq	$0, %rdx
	cmoveq	%rcx, %rax
	.loc	23 675 9 is_stmt 0
	cmpq	$0, %rax
	jne	LBB41_2
	.loc	23 677 21 is_stmt 1
	movq	$0, -968(%rbp)
	jmp	LBB41_3
LBB41_2:
	.loc	23 0 21 is_stmt 0
	movq	-1016(%rbp), %rax
	.loc	23 676 18 is_stmt 1
	movq	%rax, -336(%rbp)
Ltmp535:
	.loc	23 676 28 is_stmt 0
	movq	%rax, -968(%rbp)
Ltmp536:
LBB41_3:
	.loc	20 483 61 is_stmt 1
	movq	$0, -928(%rbp)
	movq	$1, -936(%rbp)
	.loc	20 483 57 is_stmt 0
	movq	$0, -960(%rbp)
	movq	-936(%rbp), %rcx
	movq	-928(%rbp), %rax
	movq	%rcx, -952(%rbp)
	movq	%rax, -944(%rbp)
	.loc	20 483 26
	movq	-968(%rbp), %rsi
	leaq	-992(%rbp), %rdi
	leaq	-960(%rbp), %rdx
	callq	__ZN4core6option15Option$LT$T$GT$6map_or17heb254b0713bd1cd1E
	movq	-1016(%rbp), %rax
	.loc	20 483 14
	movq	-992(%rbp), %rcx
	movq	%rcx, -1048(%rbp)
	movq	%rcx, -328(%rbp)
	.loc	20 483 19
	movq	-984(%rbp), %rdx
	movq	%rdx, -1040(%rbp)
	movq	-976(%rbp), %rcx
	movq	%rcx, -1032(%rbp)
	movq	%rdx, -320(%rbp)
	movq	%rcx, -312(%rbp)
Ltmp537:
	.loc	20 484 26 is_stmt 1
	movq	%rax, %rcx
	addq	$32, %rcx
	movq	%rcx, -1024(%rbp)
	movq	%rcx, -304(%rbp)
Ltmp538:
	.loc	23 675 15
	movq	56(%rax), %rdx
	movl	$1, %eax
	xorl	%ecx, %ecx
	cmpq	$0, %rdx
	cmoveq	%rcx, %rax
	.loc	23 675 9 is_stmt 0
	cmpq	$0, %rax
	jne	LBB41_5
	.loc	23 677 21 is_stmt 1
	movq	$0, -896(%rbp)
	jmp	LBB41_6
LBB41_5:
	.loc	23 0 21 is_stmt 0
	movq	-1024(%rbp), %rax
	.loc	23 676 18 is_stmt 1
	movq	%rax, -296(%rbp)
Ltmp539:
	.loc	23 676 28 is_stmt 0
	movq	%rax, -896(%rbp)
Ltmp540:
LBB41_6:
	.loc	20 484 60 is_stmt 1
	movq	$0, -856(%rbp)
	movq	$1, -864(%rbp)
	.loc	20 484 56 is_stmt 0
	movq	$0, -888(%rbp)
	movq	-864(%rbp), %rcx
	movq	-856(%rbp), %rax
	movq	%rcx, -880(%rbp)
	movq	%rax, -872(%rbp)
	.loc	20 484 26
	movq	-896(%rbp), %rsi
	leaq	-920(%rbp), %rdi
	leaq	-888(%rbp), %rdx
	callq	__ZN4core6option15Option$LT$T$GT$6map_or17heb254b0713bd1cd1E
	movq	-1048(%rbp), %rax
	.loc	20 484 14
	movq	-920(%rbp), %rcx
	movq	%rcx, -288(%rbp)
	.loc	20 484 19
	movq	-912(%rbp), %rsi
	movq	%rsi, -1072(%rbp)
	movq	-904(%rbp), %rdx
	movq	%rdx, -1064(%rbp)
	movq	%rsi, -280(%rbp)
	movq	%rdx, -272(%rbp)
Ltmp541:
	.loc	20 485 18 is_stmt 1
	movq	%rax, -264(%rbp)
	.loc	20 485 37 is_stmt 0
	movq	%rcx, -256(%rbp)
Ltmp542:
	.loc	16 1022 13 is_stmt 1
	addq	%rcx, %rax
	movq	$-1, %rcx
	cmovbq	%rcx, %rax
	movq	%rax, -248(%rbp)
	movq	-248(%rbp), %rax
	movq	%rax, -1056(%rbp)
	movq	%rax, -240(%rbp)
Ltmp543:
	.loc	20 487 35
	callq	__ZN74_$LT$T$u20$as$u20$core..iter..adapters..flatten..ConstSizeIntoIterator$GT$4size17hc564dcde0560391cE
	movq	%rdx, -840(%rbp)
	movq	%rax, -848(%rbp)
	.loc	20 487 16 is_stmt 0
	cmpq	$1, -848(%rbp)
	jne	LBB41_8
	.loc	20 0 16
	movq	-1016(%rbp), %rax
	.loc	20 487 21
	movq	-840(%rbp), %rcx
	movq	%rcx, -1088(%rbp)
	movq	%rcx, -200(%rbp)
	.loc	20 488 34 is_stmt 1
	movq	%rax, %rcx
	addq	$64, %rcx
	movq	%rcx, -1080(%rbp)
	movq	%rcx, -192(%rbp)
Ltmp544:
	.loc	22 69 15
	movq	72(%rax), %rdx
	movl	$1, %eax
	xorl	%ecx, %ecx
	cmpq	$0, %rdx
	cmoveq	%rcx, %rax
	.loc	22 69 9 is_stmt 0
	cmpq	$0, %rax
	je	LBB41_20
	jmp	LBB41_21
Ltmp545:
LBB41_8:
	.loc	22 0 9
	movq	-1016(%rbp), %rax
	.loc	20 497 16 is_stmt 1
	movq	%rax, %rcx
	addq	$64, %rcx
	movq	%rcx, -1096(%rbp)
	movq	%rcx, -232(%rbp)
Ltmp546:
	.loc	22 69 15
	movq	72(%rax), %rdx
	movl	$1, %eax
	xorl	%ecx, %ecx
	cmpq	$0, %rdx
	cmoveq	%rcx, %rax
	.loc	22 69 9 is_stmt 0
	cmpq	$0, %rax
	jne	LBB41_10
	.loc	22 71 25 is_stmt 1
	movq	$0, -456(%rbp)
	movq	$1, -464(%rbp)
	.loc	22 71 21 is_stmt 0
	movq	$0, -536(%rbp)
	movq	-464(%rbp), %rcx
	movq	-456(%rbp), %rax
	movq	%rcx, -528(%rbp)
	movq	%rax, -520(%rbp)
	.loc	22 71 32
	jmp	LBB41_11
LBB41_10:
	.loc	22 0 32
	movq	-1096(%rbp), %rsi
	.loc	22 70 18 is_stmt 1
	movq	%rsi, -224(%rbp)
Ltmp547:
	.loc	22 70 31 is_stmt 0
	leaq	-536(%rbp), %rdi
	callq	__ZN102_$LT$core..iter..adapters..map..Map$LT$I$C$F$GT$$u20$as$u20$core..iter..traits..iterator..Iterator$GT$9size_hint17h77454a64590e17d3E
Ltmp548:
LBB41_11:
	.loc	22 0 31
	movq	-1064(%rbp), %rax
	movq	-1072(%rbp), %rcx
	movq	-1032(%rbp), %rdx
	movq	-1040(%rbp), %rsi
	.loc	20 497 15 is_stmt 1
	movq	-536(%rbp), %rdi
	movq	%rdi, -576(%rbp)
	movq	-528(%rbp), %rdi
	movq	%rdi, -568(%rbp)
	movq	-520(%rbp), %rdi
	movq	%rdi, -560(%rbp)
	movq	%rsi, -592(%rbp)
	movq	%rdx, -584(%rbp)
	movq	%rcx, -552(%rbp)
	movq	%rax, -544(%rbp)
	.loc	20 497 9 is_stmt 0
	cmpq	$0, -576(%rbp)
	jne	LBB41_13
	cmpq	$1, -568(%rbp)
	je	LBB41_14
LBB41_13:
	.loc	20 0 9
	movq	-1008(%rbp), %rax
	movq	-1056(%rbp), %rcx
	.loc	20 499 23 is_stmt 1
	movq	$0, -512(%rbp)
	.loc	20 499 18 is_stmt 0
	movq	%rcx, (%rax)
	movq	-512(%rbp), %rdx
	movq	-504(%rbp), %rcx
	movq	%rdx, 8(%rax)
	movq	%rcx, 16(%rax)
	.loc	20 499 27
	jmp	LBB41_18
LBB41_14:
	.loc	20 497 9 is_stmt 1
	cmpq	$1, -592(%rbp)
	jne	LBB41_13
	cmpq	$1, -552(%rbp)
	jne	LBB41_13
	cmpq	$0, -560(%rbp)
	jne	LBB41_13
	.loc	20 498 33
	movq	-584(%rbp), %rdi
	movq	%rdi, -216(%rbp)
	.loc	20 498 42 is_stmt 0
	movq	-544(%rbp), %rsi
	movq	%rsi, -208(%rbp)
Ltmp549:
	.loc	20 498 54
	callq	__ZN4core3num23_$LT$impl$u20$usize$GT$11checked_add17hcb38116b3f46a607E
	movq	-1056(%rbp), %rsi
	movq	%rax, %rcx
	movq	-1008(%rbp), %rax
	.loc	20 498 49
	movq	%rsi, (%rax)
	movq	%rcx, 8(%rax)
	movq	%rdx, 16(%rax)
Ltmp550:
LBB41_18:
	.loc	20 501 6 is_stmt 1
	jmp	LBB41_19
LBB41_19:
	.loc	20 0 6 is_stmt 0
	movq	-1000(%rbp), %rax
	.loc	20 501 6
	addq	$1136, %rsp
	popq	%rbp
	retq
LBB41_20:
Ltmp551:
	.loc	22 71 25 is_stmt 1
	movq	$0, -488(%rbp)
	movq	$1, -496(%rbp)
	.loc	22 71 21 is_stmt 0
	movq	$0, -832(%rbp)
	movq	-496(%rbp), %rcx
	movq	-488(%rbp), %rax
	movq	%rcx, -824(%rbp)
	movq	%rax, -816(%rbp)
	.loc	22 71 32
	jmp	LBB41_22
LBB41_21:
	.loc	22 0 32
	movq	-1080(%rbp), %rsi
	.loc	22 70 18 is_stmt 1
	movq	%rsi, -184(%rbp)
Ltmp552:
	.loc	22 70 31 is_stmt 0
	leaq	-832(%rbp), %rdi
	callq	__ZN102_$LT$core..iter..adapters..map..Map$LT$I$C$F$GT$$u20$as$u20$core..iter..traits..iterator..Iterator$GT$9size_hint17h77454a64590e17d3E
Ltmp553:
LBB41_22:
	.loc	22 0 31
	movq	-1088(%rbp), %rsi
	.loc	20 488 18 is_stmt 1
	movq	-832(%rbp), %rdi
	movq	%rdi, -176(%rbp)
	.loc	20 488 25 is_stmt 0
	movq	-824(%rbp), %rcx
	movq	%rcx, -1112(%rbp)
	movq	-816(%rbp), %rax
	movq	%rax, -1104(%rbp)
	movq	%rcx, -168(%rbp)
	movq	%rax, -160(%rbp)
Ltmp554:
	.loc	20 490 25 is_stmt 1
	movq	%rdi, -152(%rbp)
	.loc	20 490 46 is_stmt 0
	movq	%rsi, -144(%rbp)
Ltmp555:
	.loc	16 1090 19 is_stmt 1
	callq	__ZN4core3num23_$LT$impl$u20$usize$GT$11checked_mul17hb58cedb5f68d0a2dE
	movq	%rdx, -472(%rbp)
	movq	%rax, -480(%rbp)
	.loc	16 1090 13 is_stmt 0
	cmpq	$0, -480(%rbp)
	jne	LBB41_24
	.loc	16 1092 25 is_stmt 1
	movq	$-1, -808(%rbp)
	jmp	LBB41_25
LBB41_24:
	.loc	16 1091 22
	movq	-472(%rbp), %rax
	movq	%rax, -136(%rbp)
Ltmp556:
	.loc	16 1091 28 is_stmt 0
	movq	%rax, -808(%rbp)
Ltmp557:
LBB41_25:
	.loc	16 0 28
	movq	-1032(%rbp), %rax
	movq	-1040(%rbp), %rcx
	movq	-1056(%rbp), %rsi
	.loc	20 490 73 is_stmt 1
	movq	%rsi, -128(%rbp)
Ltmp558:
	.loc	16 1022 40
	movq	-808(%rbp), %rdx
	.loc	16 1022 13 is_stmt 0
	addq	%rsi, %rdx
	movq	$-1, %rsi
	cmovbq	%rsi, %rdx
	movq	%rdx, -120(%rbp)
	movq	-120(%rbp), %rdx
	movq	%rdx, -1120(%rbp)
	movq	%rdx, -112(%rbp)
Ltmp559:
	.loc	20 492 23 is_stmt 1
	movq	%rcx, -704(%rbp)
	movq	%rax, -696(%rbp)
Ltmp560:
	.loc	23 2407 9
	cmpq	$0, -704(%rbp)
	jne	LBB41_27
	.loc	23 2409 21
	movq	$1, -720(%rbp)
	.loc	23 2409 44 is_stmt 0
	jmp	LBB41_28
LBB41_27:
	.loc	23 2408 18 is_stmt 1
	movq	-696(%rbp), %rax
	movq	%rax, -104(%rbp)
Ltmp561:
	.loc	23 2408 24 is_stmt 0
	movq	%rax, -712(%rbp)
	movq	$0, -720(%rbp)
Ltmp562:
LBB41_28:
	.loc	20 492 23 is_stmt 1
	cmpq	$0, -720(%rbp)
	jne	LBB41_30
	.loc	20 0 23 is_stmt 0
	movq	-1064(%rbp), %rax
	movq	-1072(%rbp), %rcx
	.loc	20 492 23
	movq	-712(%rbp), %rdx
	movq	%rdx, -1128(%rbp)
	movq	%rdx, -96(%rbp)
	.loc	20 492 40
	movq	%rcx, -672(%rbp)
	movq	%rax, -664(%rbp)
Ltmp563:
	.loc	23 2407 9 is_stmt 1
	cmpq	$0, -672(%rbp)
	je	LBB41_32
	jmp	LBB41_33
Ltmp564:
LBB41_30:
	.loc	23 2420 21
	movq	$0, -800(%rbp)
Ltmp565:
LBB41_31:
	.loc	34 1 1
	jmp	LBB41_37
LBB41_32:
Ltmp566:
	.loc	23 2409 21
	movq	$1, -688(%rbp)
	.loc	23 2409 44 is_stmt 0
	jmp	LBB41_34
LBB41_33:
	.loc	23 2408 18 is_stmt 1
	movq	-664(%rbp), %rax
	movq	%rax, -88(%rbp)
Ltmp567:
	.loc	23 2408 24 is_stmt 0
	movq	%rax, -680(%rbp)
	movq	$0, -688(%rbp)
Ltmp568:
LBB41_34:
	.loc	20 492 40 is_stmt 1
	cmpq	$0, -688(%rbp)
	jne	LBB41_36
	.loc	20 0 40 is_stmt 0
	movq	-1128(%rbp), %rdi
	.loc	20 492 40
	movq	-680(%rbp), %rsi
	movq	%rsi, -80(%rbp)
	.loc	20 492 23
	callq	__ZN4core3num23_$LT$impl$u20$usize$GT$11checked_add17hcb38116b3f46a607E
	movq	%rdx, -728(%rbp)
	movq	%rax, -736(%rbp)
Ltmp569:
	.loc	23 2407 9 is_stmt 1
	cmpq	$0, -736(%rbp)
	je	LBB41_38
	jmp	LBB41_39
Ltmp570:
LBB41_36:
	.loc	23 2420 21
	movq	$0, -800(%rbp)
Ltmp571:
	.loc	34 1 1
	jmp	LBB41_31
LBB41_37:
	jmp	LBB41_54
LBB41_38:
Ltmp572:
	.loc	23 2409 21
	movq	$1, -752(%rbp)
	.loc	23 2409 44 is_stmt 0
	jmp	LBB41_40
LBB41_39:
	.loc	23 2408 18 is_stmt 1
	movq	-728(%rbp), %rax
	movq	%rax, -72(%rbp)
Ltmp573:
	.loc	23 2408 24 is_stmt 0
	movq	%rax, -744(%rbp)
	movq	$0, -752(%rbp)
Ltmp574:
LBB41_40:
	.loc	20 492 23 is_stmt 1
	cmpq	$0, -752(%rbp)
	jne	LBB41_42
	.loc	20 0 23 is_stmt 0
	movq	-1104(%rbp), %rax
	movq	-1112(%rbp), %rcx
	.loc	20 492 23
	movq	-744(%rbp), %rdx
	movq	%rdx, -1136(%rbp)
	movq	%rdx, -64(%rbp)
	.loc	20 492 82
	movq	%rcx, -608(%rbp)
	movq	%rax, -600(%rbp)
Ltmp575:
	.loc	23 2407 9 is_stmt 1
	cmpq	$0, -608(%rbp)
	je	LBB41_43
	jmp	LBB41_44
Ltmp576:
LBB41_42:
	.loc	23 2420 21
	movq	$0, -800(%rbp)
Ltmp577:
	.loc	34 1 1
	jmp	LBB41_37
LBB41_43:
Ltmp578:
	.loc	23 2409 21
	movq	$1, -624(%rbp)
	.loc	23 2409 44 is_stmt 0
	jmp	LBB41_45
LBB41_44:
	.loc	23 2408 18 is_stmt 1
	movq	-600(%rbp), %rax
	movq	%rax, -56(%rbp)
Ltmp579:
	.loc	23 2408 24 is_stmt 0
	movq	%rax, -616(%rbp)
	movq	$0, -624(%rbp)
Ltmp580:
LBB41_45:
	.loc	20 492 82 is_stmt 1
	cmpq	$0, -624(%rbp)
	jne	LBB41_47
	.loc	20 0 82 is_stmt 0
	movq	-1088(%rbp), %rdi
	.loc	20 492 82
	movq	-616(%rbp), %rsi
	movq	%rsi, -48(%rbp)
	.loc	20 492 59
	callq	__ZN4core3num23_$LT$impl$u20$usize$GT$11checked_mul17hb58cedb5f68d0a2dE
	movq	%rdx, -632(%rbp)
	movq	%rax, -640(%rbp)
Ltmp581:
	.loc	23 2407 9 is_stmt 1
	cmpq	$0, -640(%rbp)
	je	LBB41_49
	jmp	LBB41_50
Ltmp582:
LBB41_47:
	.loc	23 2420 21
	movq	$0, -800(%rbp)
Ltmp583:
LBB41_48:
	.loc	34 1 1
	jmp	LBB41_37
LBB41_49:
Ltmp584:
	.loc	23 2409 21
	movq	$1, -656(%rbp)
	.loc	23 2409 44 is_stmt 0
	jmp	LBB41_51
LBB41_50:
	.loc	23 2408 18 is_stmt 1
	movq	-632(%rbp), %rax
	movq	%rax, -40(%rbp)
Ltmp585:
	.loc	23 2408 24 is_stmt 0
	movq	%rax, -648(%rbp)
	movq	$0, -656(%rbp)
Ltmp586:
LBB41_51:
	.loc	20 492 59 is_stmt 1
	cmpq	$0, -656(%rbp)
	jne	LBB41_53
	.loc	20 0 59 is_stmt 0
	movq	-1136(%rbp), %rdi
	.loc	20 492 59
	movq	-648(%rbp), %rsi
	movq	%rsi, -32(%rbp)
	.loc	20 492 23
	callq	__ZN4core3num23_$LT$impl$u20$usize$GT$11checked_add17hcb38116b3f46a607E
	movq	%rdx, -760(%rbp)
	movq	%rax, -768(%rbp)
Ltmp587:
	.loc	23 2407 9 is_stmt 1
	cmpq	$0, -768(%rbp)
	je	LBB41_55
	jmp	LBB41_56
Ltmp588:
LBB41_53:
	.loc	23 2420 21
	movq	$0, -800(%rbp)
Ltmp589:
	.loc	34 1 1
	jmp	LBB41_48
LBB41_54:
	.loc	20 492 21
	jmp	LBB41_60
LBB41_55:
Ltmp590:
	.loc	23 2409 21
	movq	$1, -784(%rbp)
	.loc	23 2409 44 is_stmt 0
	jmp	LBB41_57
LBB41_56:
	.loc	23 2408 18 is_stmt 1
	movq	-760(%rbp), %rax
	movq	%rax, -24(%rbp)
Ltmp591:
	.loc	23 2408 24 is_stmt 0
	movq	%rax, -776(%rbp)
	movq	$0, -784(%rbp)
Ltmp592:
LBB41_57:
	.loc	20 492 23 is_stmt 1
	cmpq	$0, -784(%rbp)
	jne	LBB41_59
	movq	-776(%rbp), %rax
	movq	%rax, -16(%rbp)
Ltmp593:
	.loc	20 492 23 is_stmt 0
	movq	%rax, -8(%rbp)
Ltmp594:
	.loc	23 2402 9 is_stmt 1
	movq	%rax, -792(%rbp)
	movq	$1, -800(%rbp)
Ltmp595:
	.loc	20 492 21
	jmp	LBB41_60
LBB41_59:
Ltmp596:
	.loc	23 2420 21
	movq	$0, -800(%rbp)
Ltmp597:
	.loc	34 1 1
	jmp	LBB41_54
LBB41_60:
	.loc	34 0 1 is_stmt 0
	movq	-1008(%rbp), %rax
	movq	-1120(%rbp), %rsi
Ltmp598:
	.loc	20 494 28 is_stmt 1
	movq	-800(%rbp), %rdx
	movq	-792(%rbp), %rcx
	.loc	20 494 20 is_stmt 0
	movq	%rsi, (%rax)
	movq	%rdx, 8(%rax)
	movq	%rcx, 16(%rax)
Ltmp599:
	.loc	20 501 6 is_stmt 1
	jmp	LBB41_19
Ltmp600:
Lfunc_end41:
	.cfi_endproc

	.globl	__ZN121_$LT$hashbrown..map..HashMap$LT$K$C$V$C$S$C$A$GT$$u20$as$u20$core..iter..traits..collect..Extend$LT$$LP$K$C$V$RP$$GT$$GT$6extend17he60074d1d581486fE
	.p2align	4, 0x90
__ZN121_$LT$hashbrown..map..HashMap$LT$K$C$V$C$S$C$A$GT$$u20$as$u20$core..iter..traits..collect..Extend$LT$$LP$K$C$V$RP$$GT$$GT$6extend17he60074d1d581486fE:
Lfunc_begin42:
	.loc	1 6395 0
	.cfi_startproc
	.cfi_personality 155, _rust_eh_personality
	.cfi_lsda 16, Lexception11
	pushq	%rbp
	.cfi_def_cfa_offset 16
	.cfi_offset %rbp, -16
	movq	%rsp, %rbp
	.cfi_def_cfa_register %rbp
	subq	$320, %rsp
	movq	%rdi, -304(%rbp)
	movq	%rsi, -312(%rbp)
Ltmp615:
	movq	%rdi, -24(%rbp)
Ltmp616:
	.loc	1 6400 20 prologue_end
	movq	56(%rsi), %rax
	movq	%rax, -168(%rbp)
	movq	48(%rsi), %rax
	movq	%rax, -176(%rbp)
	movq	40(%rsi), %rax
	movq	%rax, -184(%rbp)
	movq	32(%rsi), %rax
	movq	%rax, -192(%rbp)
	movq	24(%rsi), %rax
	movq	%rax, -200(%rbp)
	movq	16(%rsi), %rax
	movq	%rax, -208(%rbp)
	movq	(%rsi), %rax
	movq	8(%rsi), %rcx
	movq	%rcx, -216(%rbp)
	movq	%rax, -224(%rbp)
	leaq	-288(%rbp), %rdi
	leaq	-224(%rbp), %rsi
Ltmp617:
	callq	__ZN63_$LT$I$u20$as$u20$core..iter..traits..collect..IntoIterator$GT$9into_iter17hf8ec31724ac6c957E
	movq	-304(%rbp), %rdi
	.loc	1 6400 35 is_stmt 0
	movb	$1, -25(%rbp)
Ltmp601:
Ltmp618:
	.loc	1 6401 26 is_stmt 1
	callq	__ZN9hashbrown3map28HashMap$LT$K$C$V$C$S$C$A$GT$8is_empty17hcb74470b2cf28a4bE
Ltmp602:
	movb	%al, -289(%rbp)
Ltmp619:
	jmp	LBB42_3
Ltmp620:
LBB42_1:
	.loc	1 6410 5
	testb	$1, -25(%rbp)
	jne	LBB42_12
	jmp	LBB42_11
Ltmp621:
LBB42_2:
Ltmp611:
	.loc	1 0 5 is_stmt 0
	movq	%rax, %rcx
	movl	%edx, %eax
	movq	%rcx, -16(%rbp)
	movl	%eax, -8(%rbp)
	jmp	LBB42_1
Ltmp622:
LBB42_3:
	movb	-289(%rbp), %al
Ltmp623:
	.loc	1 6401 26 is_stmt 1
	testb	$1, %al
	jne	LBB42_5
	jmp	LBB42_4
Ltmp624:
LBB42_4:
Ltmp603:
	.loc	1 0 26 is_stmt 0
	leaq	-128(%rbp), %rdi
	leaq	-288(%rbp), %rsi
	.loc	1 6404 14 is_stmt 1
	callq	__ZN102_$LT$core..iter..adapters..zip..Zip$LT$A$C$B$GT$$u20$as$u20$core..iter..traits..iterator..Iterator$GT$9size_hint17hc0fb3de1f8b001ecE
Ltmp604:
	jmp	LBB42_8
Ltmp625:
LBB42_5:
Ltmp605:
	.loc	1 0 14 is_stmt 0
	leaq	-152(%rbp), %rdi
	leaq	-288(%rbp), %rsi
	.loc	1 6402 13 is_stmt 1
	callq	__ZN102_$LT$core..iter..adapters..zip..Zip$LT$A$C$B$GT$$u20$as$u20$core..iter..traits..iterator..Iterator$GT$9size_hint17hc0fb3de1f8b001ecE
Ltmp606:
	jmp	LBB42_6
Ltmp626:
LBB42_6:
	movq	-152(%rbp), %rax
	movq	%rax, -160(%rbp)
Ltmp627:
LBB42_7:
	.loc	1 0 13 is_stmt 0
	movq	-304(%rbp), %rdi
Ltmp628:
	.loc	1 6406 22 is_stmt 1
	movq	-160(%rbp), %rsi
Ltmp607:
	.loc	1 6406 9 is_stmt 0
	callq	__ZN9hashbrown3map28HashMap$LT$K$C$V$C$S$C$A$GT$7reserve17ha175fadea4d7d087E
Ltmp608:
	jmp	LBB42_9
Ltmp629:
LBB42_8:
	.loc	1 6404 14 is_stmt 1
	movq	-128(%rbp), %rax
	.loc	1 6404 13 is_stmt 0
	addq	$1, %rax
	shrq	$1, %rax
	movq	%rax, -160(%rbp)
	.loc	1 6401 23 is_stmt 1
	jmp	LBB42_7
Ltmp630:
LBB42_9:
	.loc	1 0 23 is_stmt 0
	movq	-304(%rbp), %rax
Ltmp631:
	.loc	1 6407 9 is_stmt 1
	movb	$0, -25(%rbp)
	movq	-232(%rbp), %rcx
	movq	%rcx, -48(%rbp)
	movq	-240(%rbp), %rcx
	movq	%rcx, -56(%rbp)
	movq	-248(%rbp), %rcx
	movq	%rcx, -64(%rbp)
	movq	-256(%rbp), %rcx
	movq	%rcx, -72(%rbp)
	movq	-264(%rbp), %rcx
	movq	%rcx, -80(%rbp)
	movq	-272(%rbp), %rcx
	movq	%rcx, -88(%rbp)
	movq	-288(%rbp), %rcx
	movq	-280(%rbp), %rdx
	movq	%rdx, -96(%rbp)
	movq	%rcx, -104(%rbp)
	.loc	1 6407 23 is_stmt 0
	movq	%rax, -40(%rbp)
	.loc	1 6407 9
	movq	-40(%rbp), %rsi
Ltmp609:
	leaq	-104(%rbp), %rdi
	callq	__ZN4core4iter6traits8iterator8Iterator8for_each17hd0cbe1c97d73bfa9E
Ltmp610:
	jmp	LBB42_10
Ltmp632:
LBB42_10:
	.loc	1 6410 6 is_stmt 1
	addq	$320, %rsp
	popq	%rbp
	retq
Ltmp633:
LBB42_11:
	.loc	1 6395 5
	movq	-16(%rbp), %rdi
	callq	__Unwind_Resume
Ltmp634:
LBB42_12:
Ltmp612:
	.loc	1 0 5 is_stmt 0
	leaq	-288(%rbp), %rdi
	.loc	1 6410 5 is_stmt 1
	callq	__ZN4core3ptr168drop_in_place$LT$core..iter..adapters..zip..Zip$LT$alloc..vec..into_iter..IntoIter$LT$$LP$u8$C$u8$C$u8$C$u8$RP$$GT$$C$core..ops..range..RangeInclusive$LT$u8$GT$$GT$$GT$17h2dc94183861a3dd3E
Ltmp613:
	jmp	LBB42_11
Ltmp635:
LBB42_13:
Ltmp614:
	.loc	1 6395 5
	callq	__ZN4core9panicking19panic_cannot_unwind17h1fbca7e1d7f56ae1E
Ltmp636:
Lfunc_end42:
	.cfi_endproc
	.section	__TEXT,__gcc_except_tab
	.p2align	2
GCC_except_table42:
Lexception11:
	.byte	255
	.byte	255
	.byte	1
	.uleb128 Lcst_end11-Lcst_begin11
Lcst_begin11:
	.uleb128 Lfunc_begin42-Lfunc_begin42
	.uleb128 Ltmp601-Lfunc_begin42
	.byte	0
	.byte	0
	.uleb128 Ltmp601-Lfunc_begin42
	.uleb128 Ltmp610-Ltmp601
	.uleb128 Ltmp611-Lfunc_begin42
	.byte	0
	.uleb128 Ltmp610-Lfunc_begin42
	.uleb128 Ltmp612-Ltmp610
	.byte	0
	.byte	0
	.uleb128 Ltmp612-Lfunc_begin42
	.uleb128 Ltmp613-Ltmp612
	.uleb128 Ltmp614-Lfunc_begin42
	.byte	0
Lcst_end11:
	.p2align	2

	.section	__TEXT,__text,regular,pure_instructions
	.globl	__ZN121_$LT$hashbrown..map..HashMap$LT$K$C$V$C$S$C$A$GT$$u20$as$u20$core..iter..traits..collect..Extend$LT$$LP$K$C$V$RP$$GT$$GT$6extend28_$u7b$$u7b$closure$u7d$$u7d$17h0c665494deae2ed1E
	.p2align	4, 0x90
__ZN121_$LT$hashbrown..map..HashMap$LT$K$C$V$C$S$C$A$GT$$u20$as$u20$core..iter..traits..collect..Extend$LT$$LP$K$C$V$RP$$GT$$GT$6extend28_$u7b$$u7b$closure$u7d$$u7d$17h0c665494deae2ed1E:
Lfunc_begin43:
	.loc	1 6407 0
	.cfi_startproc
	pushq	%rbp
	.cfi_def_cfa_offset 16
	.cfi_offset %rbp, -16
	movq	%rsp, %rbp
	.cfi_def_cfa_register %rbp
	subq	$48, %rsp
	movl	%esi, %eax
	movl	%eax, -40(%rbp)
	shrq	$32, %rsi
	movb	%sil, %al
	movb	%al, -36(%rbp)
	movl	-40(%rbp), %eax
	movl	%eax, -48(%rbp)
	movb	-36(%rbp), %al
	movb	%al, -44(%rbp)
	movq	%rdi, -16(%rbp)
Ltmp637:
	.loc	1 6407 30 prologue_end
	movl	-48(%rbp), %eax
	movl	%eax, -32(%rbp)
	.loc	1 6407 33 is_stmt 0
	movb	-44(%rbp), %al
	movb	%al, -1(%rbp)
Ltmp638:
	.loc	1 6408 13 is_stmt 1
	movq	(%rdi), %rdi
	.loc	1 6408 25 is_stmt 0
	movl	-32(%rbp), %ecx
	movl	%ecx, -24(%rbp)
	.loc	1 6408 13
	movl	-24(%rbp), %esi
	movzbl	%al, %edx
	callq	__ZN9hashbrown3map28HashMap$LT$K$C$V$C$S$C$A$GT$6insert17hb7bbc91cacd543c0E
Ltmp639:
	.loc	1 6409 10 is_stmt 1
	addq	$48, %rsp
	popq	%rbp
	retq
Ltmp640:
Lfunc_end43:
	.cfi_endproc

	.globl	__ZN125_$LT$core..slice..sort..merge_sort..RunVec$LT$RunAllocF$C$RunDeallocF$GT$$u20$as$u20$core..ops..index..Index$LT$usize$GT$$GT$5index17h0275355a24f43dffE
	.p2align	4, 0x90
__ZN125_$LT$core..slice..sort..merge_sort..RunVec$LT$RunAllocF$C$RunDeallocF$GT$$u20$as$u20$core..ops..index..Index$LT$usize$GT$$GT$5index17h0275355a24f43dffE:
Lfunc_begin44:
	.loc	18 1418 0
	.cfi_startproc
	pushq	%rbp
	.cfi_def_cfa_offset 16
	.cfi_offset %rbp, -16
	movq	%rsp, %rbp
	.cfi_def_cfa_register %rbp
	subq	$144, %rsp
	movq	%rdi, -128(%rbp)
	movq	%rsi, -120(%rbp)
	movq	%rdx, -112(%rbp)
	movq	%rdi, -56(%rbp)
	movq	%rsi, -48(%rbp)
Ltmp641:
	.loc	18 1419 16 prologue_end
	cmpq	16(%rdi), %rsi
	jb	LBB44_2
	.loc	18 1426 13
	leaq	l___unnamed_46(%rip), %rsi
	leaq	l___unnamed_43(%rip), %rcx
	xorl	%eax, %eax
	movl	%eax, %r8d
	leaq	-104(%rbp), %rdi
	movq	%rdi, -136(%rbp)
	movl	$1, %edx
	callq	__ZN4core3fmt9Arguments6new_v117h691bb837e824d048E
	movq	-136(%rbp), %rdi
	movq	-112(%rbp), %rsi
	callq	__ZN4core9panicking9panic_fmt17h9b5d807e24bcaaedE
LBB44_2:
	.loc	18 0 13 is_stmt 0
	movq	-120(%rbp), %rcx
	movq	-128(%rbp), %rax
	.loc	18 1422 31 is_stmt 1
	movq	(%rax), %rax
	movq	%rax, -40(%rbp)
	.loc	18 1422 48 is_stmt 0
	movq	%rcx, -32(%rbp)
Ltmp642:
	.loc	4 1034 18 is_stmt 1
	movq	%rax, -24(%rbp)
	.loc	4 1034 30 is_stmt 0
	movq	%rcx, -16(%rbp)
Ltmp643:
	.loc	4 487 18 is_stmt 1
	shlq	$4, %rcx
	addq	%rcx, %rax
	movq	%rax, -8(%rbp)
	movq	-8(%rbp), %rax
Ltmp644:
	.loc	18 1427 10
	addq	$144, %rsp
	popq	%rbp
	retq
Ltmp645:
Lfunc_end44:
	.cfi_endproc

	.globl	__ZN128_$LT$core..slice..sort..merge_sort..RunVec$LT$RunAllocF$C$RunDeallocF$GT$$u20$as$u20$core..ops..index..IndexMut$LT$usize$GT$$GT$9index_mut17h43a82b2637d8a074E
	.p2align	4, 0x90
__ZN128_$LT$core..slice..sort..merge_sort..RunVec$LT$RunAllocF$C$RunDeallocF$GT$$u20$as$u20$core..ops..index..IndexMut$LT$usize$GT$$GT$9index_mut17h43a82b2637d8a074E:
Lfunc_begin45:
	.loc	18 1435 0
	.cfi_startproc
	pushq	%rbp
	.cfi_def_cfa_offset 16
	.cfi_offset %rbp, -16
	movq	%rsp, %rbp
	.cfi_def_cfa_register %rbp
	subq	$144, %rsp
	movq	%rdi, -128(%rbp)
	movq	%rsi, -120(%rbp)
	movq	%rdx, -112(%rbp)
	movq	%rdi, -56(%rbp)
	movq	%rsi, -48(%rbp)
Ltmp646:
	.loc	18 1436 16 prologue_end
	cmpq	16(%rdi), %rsi
	jb	LBB45_2
	.loc	18 1443 13
	leaq	l___unnamed_46(%rip), %rsi
	leaq	l___unnamed_43(%rip), %rcx
	xorl	%eax, %eax
	movl	%eax, %r8d
	leaq	-104(%rbp), %rdi
	movq	%rdi, -136(%rbp)
	movl	$1, %edx
	callq	__ZN4core3fmt9Arguments6new_v117h691bb837e824d048E
	movq	-136(%rbp), %rdi
	movq	-112(%rbp), %rsi
	callq	__ZN4core9panicking9panic_fmt17h9b5d807e24bcaaedE
LBB45_2:
	.loc	18 0 13 is_stmt 0
	movq	-120(%rbp), %rcx
	movq	-128(%rbp), %rax
	.loc	18 1439 35 is_stmt 1
	movq	(%rax), %rax
	movq	%rax, -40(%rbp)
	.loc	18 1439 52 is_stmt 0
	movq	%rcx, -32(%rbp)
Ltmp647:
	.loc	4 1034 18 is_stmt 1
	movq	%rax, -24(%rbp)
	.loc	4 1034 30 is_stmt 0
	movq	%rcx, -16(%rbp)
Ltmp648:
	.loc	4 487 18 is_stmt 1
	shlq	$4, %rcx
	addq	%rcx, %rax
	movq	%rax, -8(%rbp)
	movq	-8(%rbp), %rax
Ltmp649:
	.loc	18 1444 10
	addq	$144, %rsp
	popq	%rbp
	retq
Ltmp650:
Lfunc_end45:
	.cfi_endproc

	.globl	__ZN132_$LT$alloc..vec..Vec$LT$T$C$A$GT$$u20$as$u20$alloc..vec..spec_extend..SpecExtend$LT$$RF$T$C$core..slice..iter..Iter$LT$T$GT$$GT$$GT$11spec_extend17h9810916003955957E
	.p2align	4, 0x90
__ZN132_$LT$alloc..vec..Vec$LT$T$C$A$GT$$u20$as$u20$alloc..vec..spec_extend..SpecExtend$LT$$RF$T$C$core..slice..iter..Iter$LT$T$GT$$GT$$GT$11spec_extend17h9810916003955957E:
Lfunc_begin46:
	.file	35 "/rustc/2c8cc343237b8f7d5a3c3703e3a87f2eb2c54a74/library/alloc/src/vec" "spec_extend.rs"
	.loc	35 53 0
	.cfi_startproc
	pushq	%rbp
	.cfi_def_cfa_offset 16
	.cfi_offset %rbp, -16
	movq	%rsp, %rbp
	.cfi_def_cfa_register %rbp
	subq	$48, %rsp
	movq	%rdi, -48(%rbp)
	movq	%rsi, -40(%rbp)
	movq	%rdx, -32(%rbp)
	movq	%rdi, -24(%rbp)
Ltmp651:
	.loc	35 54 21 prologue_end
	leaq	-40(%rbp), %rdi
	callq	__ZN4core5slice4iter13Iter$LT$T$GT$8as_slice17hc51f84184f4260aaE
	movq	-48(%rbp), %rdi
	movq	%rax, %rsi
	movq	%rsi, -16(%rbp)
	movq	%rdx, -8(%rbp)
Ltmp652:
	.loc	35 55 18
	callq	__ZN5alloc3vec16Vec$LT$T$C$A$GT$15append_elements17h222c4c2db8193d59E
Ltmp653:
	.loc	35 56 6
	addq	$48, %rsp
	popq	%rbp
	retq
Ltmp654:
Lfunc_end46:
	.cfi_endproc

	.globl	__ZN136_$LT$std..collections..hash..map..HashMap$LT$K$C$V$C$S$GT$$u20$as$u20$core..iter..traits..collect..FromIterator$LT$$LP$K$C$V$RP$$GT$$GT$9from_iter17hd6b4d3564a59830aE
	.p2align	4, 0x90
__ZN136_$LT$std..collections..hash..map..HashMap$LT$K$C$V$C$S$GT$$u20$as$u20$core..iter..traits..collect..FromIterator$LT$$LP$K$C$V$RP$$GT$$GT$9from_iter17hd6b4d3564a59830aE:
Lfunc_begin47:
	.file	36 "/rustc/2c8cc343237b8f7d5a3c3703e3a87f2eb2c54a74/library/std/src/collections/hash" "map.rs"
	.loc	36 3020 0
	.cfi_startproc
	.cfi_personality 155, _rust_eh_personality
	.cfi_lsda 16, Lexception12
	pushq	%rbp
	.cfi_def_cfa_offset 16
	.cfi_offset %rbp, -16
	movq	%rsp, %rbp
	.cfi_def_cfa_register %rbp
	subq	$272, %rsp
	movq	%rsi, -264(%rbp)
Ltmp668:
	movq	%rdi, -256(%rbp)
	movq	%rdi, -248(%rbp)
Ltmp669:
	.loc	36 3021 13 prologue_end
	movb	$1, -153(%rbp)
Ltmp655:
	.loc	36 3021 44 is_stmt 0
	callq	__ZN83_$LT$std..collections..hash..map..RandomState$u20$as$u20$core..default..Default$GT$7default17h54568050457508fbE
Ltmp670:
Ltmp656:
	.loc	36 0 44
	movq	%rdx, -240(%rbp)
	movq	%rax, -232(%rbp)
Ltmp671:
	.loc	36 3021 44
	jmp	LBB47_3
Ltmp672:
LBB47_1:
	.loc	36 3024 5 is_stmt 1
	testb	$1, -153(%rbp)
	jne	LBB47_10
	jmp	LBB47_9
Ltmp673:
LBB47_2:
Ltmp659:
	.loc	36 0 5 is_stmt 0
	movq	%rax, %rcx
	movl	%edx, %eax
	movq	%rcx, -40(%rbp)
	movl	%eax, -32(%rbp)
	jmp	LBB47_1
Ltmp674:
LBB47_3:
	movq	-240(%rbp), %rdx
	movq	-232(%rbp), %rsi
	.loc	36 3021 44 is_stmt 1
	movq	%rsi, -24(%rbp)
	movq	%rdx, -16(%rbp)
Ltmp657:
	leaq	-152(%rbp), %rdi
Ltmp675:
	.loc	36 285 25
	callq	__ZN9hashbrown3map24HashMap$LT$K$C$V$C$S$GT$11with_hasher17h72af3b02e95fe934E
Ltmp658:
	jmp	LBB47_4
Ltmp676:
LBB47_4:
	.loc	36 0 25 is_stmt 0
	movq	-256(%rbp), %rdi
	movq	-264(%rbp), %rcx
	.loc	36 285 9
	movq	-112(%rbp), %rax
	movq	%rax, 40(%rdi)
	movq	-120(%rbp), %rax
	movq	%rax, 32(%rdi)
	movq	-128(%rbp), %rax
	movq	%rax, 24(%rdi)
	movq	-136(%rbp), %rax
	movq	%rax, 16(%rdi)
	movq	-152(%rbp), %rax
	movq	-144(%rbp), %rdx
	movq	%rdx, 8(%rdi)
	movq	%rax, (%rdi)
Ltmp677:
	.loc	36 3022 9 is_stmt 1
	movq	%rdi, -8(%rbp)
	.loc	36 3022 20 is_stmt 0
	movb	$0, -153(%rbp)
	movq	56(%rcx), %rax
	movq	%rax, -168(%rbp)
	movq	48(%rcx), %rax
	movq	%rax, -176(%rbp)
	movq	40(%rcx), %rax
	movq	%rax, -184(%rbp)
	movq	32(%rcx), %rax
	movq	%rax, -192(%rbp)
	movq	24(%rcx), %rax
	movq	%rax, -200(%rbp)
	movq	16(%rcx), %rax
	movq	%rax, -208(%rbp)
	movq	(%rcx), %rax
	movq	8(%rcx), %rcx
	movq	%rcx, -216(%rbp)
	movq	%rax, -224(%rbp)
Ltmp678:
	.loc	36 3037 26 is_stmt 1
	movq	-168(%rbp), %rax
	movq	%rax, -48(%rbp)
	movq	-176(%rbp), %rax
	movq	%rax, -56(%rbp)
	movq	-184(%rbp), %rax
	movq	%rax, -64(%rbp)
	movq	-192(%rbp), %rax
	movq	%rax, -72(%rbp)
	movq	-200(%rbp), %rax
	movq	%rax, -80(%rbp)
	movq	-208(%rbp), %rax
	movq	%rax, -88(%rbp)
	movq	-224(%rbp), %rax
	movq	-216(%rbp), %rcx
	movq	%rcx, -96(%rbp)
	movq	%rax, -104(%rbp)
Ltmp660:
	leaq	-104(%rbp), %rsi
	.loc	36 3037 9 is_stmt 0
	callq	__ZN121_$LT$hashbrown..map..HashMap$LT$K$C$V$C$S$C$A$GT$$u20$as$u20$core..iter..traits..collect..Extend$LT$$LP$K$C$V$RP$$GT$$GT$6extend17he60074d1d581486fE
Ltmp661:
	jmp	LBB47_7
Ltmp679:
LBB47_5:
Ltmp663:
	.loc	36 0 9
	movq	-256(%rbp), %rdi
	.loc	36 3024 5 is_stmt 1
	callq	__ZN4core3ptr95drop_in_place$LT$std..collections..hash..map..HashMap$LT$$LP$u8$C$u8$C$u8$C$u8$RP$$C$u8$GT$$GT$17h89d884b6a0a730f5E
Ltmp664:
	jmp	LBB47_1
Ltmp680:
LBB47_6:
Ltmp662:
	.loc	36 0 5 is_stmt 0
	movq	%rax, %rcx
	movl	%edx, %eax
	movq	%rcx, -40(%rbp)
	movl	%eax, -32(%rbp)
	jmp	LBB47_5
Ltmp681:
LBB47_7:
	movq	-248(%rbp), %rax
	.loc	36 3024 6
	addq	$272, %rsp
	popq	%rbp
	retq
Ltmp682:
LBB47_8:
Ltmp667:
	.loc	36 3020 5 is_stmt 1
	callq	__ZN4core9panicking19panic_cannot_unwind17h1fbca7e1d7f56ae1E
Ltmp683:
LBB47_9:
	movq	-40(%rbp), %rdi
	callq	__Unwind_Resume
Ltmp684:
LBB47_10:
Ltmp665:
	.loc	36 0 5 is_stmt 0
	movq	-264(%rbp), %rdi
	.loc	36 3024 5 is_stmt 1
	callq	__ZN4core3ptr168drop_in_place$LT$core..iter..adapters..zip..Zip$LT$alloc..vec..into_iter..IntoIter$LT$$LP$u8$C$u8$C$u8$C$u8$RP$$GT$$C$core..ops..range..RangeInclusive$LT$u8$GT$$GT$$GT$17h2dc94183861a3dd3E
Ltmp666:
	jmp	LBB47_9
Ltmp685:
Lfunc_end47:
	.cfi_endproc
	.section	__TEXT,__gcc_except_tab
	.p2align	2
GCC_except_table47:
Lexception12:
	.byte	255
	.byte	255
	.byte	1
	.uleb128 Lcst_end12-Lcst_begin12
Lcst_begin12:
	.uleb128 Ltmp655-Lfunc_begin47
	.uleb128 Ltmp658-Ltmp655
	.uleb128 Ltmp659-Lfunc_begin47
	.byte	0
	.uleb128 Ltmp660-Lfunc_begin47
	.uleb128 Ltmp661-Ltmp660
	.uleb128 Ltmp662-Lfunc_begin47
	.byte	0
	.uleb128 Ltmp663-Lfunc_begin47
	.uleb128 Ltmp664-Ltmp663
	.uleb128 Ltmp667-Lfunc_begin47
	.byte	0
	.uleb128 Ltmp664-Lfunc_begin47
	.uleb128 Ltmp665-Ltmp664
	.byte	0
	.byte	0
	.uleb128 Ltmp665-Lfunc_begin47
	.uleb128 Ltmp666-Ltmp665
	.uleb128 Ltmp667-Lfunc_begin47
	.byte	0
Lcst_end12:
	.p2align	2

	.section	__TEXT,__text,regular,pure_instructions
	.p2align	4, 0x90
__ZN152_$LT$alloc..boxed..Box$LT$dyn$u20$core..error..Error$u2b$core..marker..Send$u2b$core..marker..Sync$GT$$u20$as$u20$core..convert..From$LT$$RF$str$GT$$GT$4from17hb1690d4651c09e83E:
Lfunc_begin48:
	.file	37 "/rustc/2c8cc343237b8f7d5a3c3703e3a87f2eb2c54a74/library/alloc/src" "boxed.rs"
	.loc	37 2343 0
	.cfi_startproc
	pushq	%rbp
	.cfi_def_cfa_offset 16
	.cfi_offset %rbp, -16
	movq	%rsp, %rbp
	.cfi_def_cfa_register %rbp
	subq	$160, %rsp
	movq	%rdi, -80(%rbp)
	movq	%rsi, -72(%rbp)
Ltmp686:
	.loc	37 2344 33 prologue_end
	movq	%rdi, -64(%rbp)
	movq	%rsi, -56(%rbp)
Ltmp687:
	.file	38 "/rustc/2c8cc343237b8f7d5a3c3703e3a87f2eb2c54a74/library/alloc/src" "string.rs"
	.loc	38 2662 9
	movq	%rdi, -48(%rbp)
	movq	%rsi, -40(%rbp)
Ltmp688:
	.file	39 "/rustc/2c8cc343237b8f7d5a3c3703e3a87f2eb2c54a74/library/alloc/src" "str.rs"
	.loc	39 209 46
	movq	%rdi, -32(%rbp)
	movq	%rsi, -24(%rbp)
Ltmp689:
	.file	40 "/rustc/2c8cc343237b8f7d5a3c3703e3a87f2eb2c54a74/library/core/src/str" "mod.rs"
	.loc	40 327 18
	movq	%rdi, -16(%rbp)
	movq	%rsi, -8(%rbp)
	movq	-16(%rbp), %rsi
	movq	-8(%rbp), %rdx
	leaq	-128(%rbp), %rdi
Ltmp690:
	.loc	39 209 46
	callq	__ZN5alloc5slice64_$LT$impl$u20$alloc..borrow..ToOwned$u20$for$u20$$u5b$T$u5d$$GT$8to_owned17ha90ce5b03c5883bdE
Ltmp691:
	.loc	38 846 23
	movq	-112(%rbp), %rax
	movq	%rax, -88(%rbp)
	movq	-128(%rbp), %rax
	movq	-120(%rbp), %rcx
	movq	%rcx, -96(%rbp)
	movq	%rax, -104(%rbp)
	.loc	38 846 9 is_stmt 0
	movq	-88(%rbp), %rax
	movq	%rax, -136(%rbp)
	movq	-104(%rbp), %rax
	movq	-96(%rbp), %rcx
	movq	%rcx, -144(%rbp)
	movq	%rax, -152(%rbp)
	leaq	-152(%rbp), %rdi
Ltmp692:
	.loc	37 2344 9 is_stmt 1
	callq	__ZN166_$LT$alloc..boxed..Box$LT$dyn$u20$core..error..Error$u2b$core..marker..Send$u2b$core..marker..Sync$GT$$u20$as$u20$core..convert..From$LT$alloc..string..String$GT$$GT$4from17h36fc4f7a0d4d427bE
	.loc	37 2345 6
	addq	$160, %rsp
	popq	%rbp
	retq
Ltmp693:
Lfunc_end48:
	.cfi_endproc

	.globl	__ZN153_$LT$core..result..Result$LT$T$C$F$GT$$u20$as$u20$core..ops..try_trait..FromResidual$LT$core..result..Result$LT$core..convert..Infallible$C$E$GT$$GT$$GT$13from_residual17h192b1441b04e4b79E
	.p2align	4, 0x90
__ZN153_$LT$core..result..Result$LT$T$C$F$GT$$u20$as$u20$core..ops..try_trait..FromResidual$LT$core..result..Result$LT$core..convert..Infallible$C$E$GT$$GT$$GT$13from_residual17h192b1441b04e4b79E:
Lfunc_begin49:
	.file	41 "/rustc/2c8cc343237b8f7d5a3c3703e3a87f2eb2c54a74/library/core/src" "result.rs"
	.loc	41 2105 0
	.cfi_startproc
	pushq	%rbp
	.cfi_def_cfa_offset 16
	.cfi_offset %rbp, -16
	movq	%rsp, %rbp
	.cfi_def_cfa_register %rbp
	subq	$48, %rsp
	movq	%rdi, %rax
Ltmp694:
	.loc	41 2107 17 prologue_end
	movq	(%rsi), %rcx
	movq	%rcx, -48(%rbp)
	movq	8(%rsi), %rcx
	movq	%rcx, -40(%rbp)
Ltmp695:
	.loc	41 2107 38 is_stmt 0
	movq	-48(%rbp), %rcx
	movq	%rcx, -16(%rbp)
	movq	-40(%rbp), %rcx
	movq	%rcx, -8(%rbp)
Ltmp696:
	.file	42 "/rustc/2c8cc343237b8f7d5a3c3703e3a87f2eb2c54a74/library/core/src/convert" "mod.rs"
	.loc	42 737 9 is_stmt 1
	movq	-16(%rbp), %rcx
	movq	%rcx, -32(%rbp)
	movq	-8(%rbp), %rcx
	movq	%rcx, -24(%rbp)
Ltmp697:
	.loc	41 2107 23
	movq	-32(%rbp), %rcx
	movq	%rcx, 16(%rdi)
	movq	-24(%rbp), %rcx
	movq	%rcx, 24(%rdi)
	movb	$10, 8(%rdi)
Ltmp698:
	.loc	41 2109 6
	addq	$48, %rsp
	popq	%rbp
	retq
Ltmp699:
Lfunc_end49:
	.cfi_endproc

	.globl	__ZN157_$LT$$LT$alloc..vec..into_iter..IntoIter$LT$T$C$A$GT$$u20$as$u20$core..ops..drop..Drop$GT$..drop..DropGuard$LT$T$C$A$GT$$u20$as$u20$core..ops..drop..Drop$GT$4drop17hae267518192d1292E
	.p2align	4, 0x90
__ZN157_$LT$$LT$alloc..vec..into_iter..IntoIter$LT$T$C$A$GT$$u20$as$u20$core..ops..drop..Drop$GT$..drop..DropGuard$LT$T$C$A$GT$$u20$as$u20$core..ops..drop..Drop$GT$4drop17hae267518192d1292E:
Lfunc_begin50:
	.loc	10 390 0
	.cfi_startproc
	.cfi_personality 155, _rust_eh_personality
	.cfi_lsda 16, Lexception13
	pushq	%rbp
	.cfi_def_cfa_offset 16
	.cfi_offset %rbp, -16
	movq	%rsp, %rbp
	.cfi_def_cfa_register %rbp
	subq	$160, %rsp
	movq	%rdi, -120(%rbp)
Ltmp703:
	.loc	10 393 52 prologue_end
	movq	(%rdi), %rax
	movq	%rax, -80(%rbp)
Ltmp704:
	.loc	13 113 28
	movq	%rax, -72(%rbp)
	leaq	-144(%rbp), %rax
Ltmp705:
	.loc	6 1157 34
	movq	%rax, -64(%rbp)
Ltmp706:
	.loc	10 395 55
	movq	(%rdi), %rax
	movq	24(%rax), %rcx
	movq	%rcx, -56(%rbp)
Ltmp707:
	.loc	32 326 9
	movq	%rcx, -48(%rbp)
Ltmp708:
	.loc	10 395 76
	movq	(%rdi), %rax
	movq	(%rax), %rax
	movq	%rax, -40(%rbp)
Ltmp709:
	.loc	29 216 52
	movq	%rcx, -32(%rbp)
Ltmp710:
	.loc	31 87 59
	movq	%rcx, -24(%rbp)
Ltmp711:
	.loc	32 201 13
	movq	%rcx, -128(%rbp)
Ltmp712:
	.loc	31 87 18
	movq	-128(%rbp), %rcx
	movq	%rcx, -136(%rbp)
Ltmp713:
	.loc	29 216 9
	movq	-136(%rbp), %rcx
	movq	%rcx, -152(%rbp)
	movq	%rax, -160(%rbp)
Ltmp700:
	leaq	-160(%rbp), %rdi
Ltmp714:
	.loc	10 395 94
	callq	__ZN4core3ptr53drop_in_place$LT$alloc..raw_vec..RawVec$LT$u8$GT$$GT$17hf0044cf486ed61feE
Ltmp701:
	jmp	LBB50_3
Ltmp715:
LBB50_1:
	.loc	10 396 17
	xorl	%eax, %eax
	testb	$1, %al
	jne	LBB50_5
	jmp	LBB50_4
LBB50_2:
Ltmp702:
	.loc	10 0 17 is_stmt 0
	movq	%rax, %rcx
	movl	%edx, %eax
	movq	%rcx, -16(%rbp)
	movl	%eax, -8(%rbp)
	jmp	LBB50_1
LBB50_3:
	.loc	10 397 14 is_stmt 1
	addq	$160, %rsp
	popq	%rbp
	retq
LBB50_4:
	.loc	10 390 13
	movq	-16(%rbp), %rdi
	callq	__Unwind_Resume
LBB50_5:
	.loc	10 396 17
	jmp	LBB50_4
Ltmp716:
Lfunc_end50:
	.cfi_endproc
	.section	__TEXT,__gcc_except_tab
	.p2align	2
GCC_except_table50:
Lexception13:
	.byte	255
	.byte	255
	.byte	1
	.uleb128 Lcst_end13-Lcst_begin13
Lcst_begin13:
	.uleb128 Ltmp700-Lfunc_begin50
	.uleb128 Ltmp701-Ltmp700
	.uleb128 Ltmp702-Lfunc_begin50
	.byte	0
	.uleb128 Ltmp701-Lfunc_begin50
	.uleb128 Lfunc_end50-Ltmp701
	.byte	0
	.byte	0
Lcst_end13:
	.p2align	2

	.section	__TEXT,__text,regular,pure_instructions
	.globl	__ZN157_$LT$$LT$alloc..vec..into_iter..IntoIter$LT$T$C$A$GT$$u20$as$u20$core..ops..drop..Drop$GT$..drop..DropGuard$LT$T$C$A$GT$$u20$as$u20$core..ops..drop..Drop$GT$4drop17hcc4d9639e59b45e5E
	.p2align	4, 0x90
__ZN157_$LT$$LT$alloc..vec..into_iter..IntoIter$LT$T$C$A$GT$$u20$as$u20$core..ops..drop..Drop$GT$..drop..DropGuard$LT$T$C$A$GT$$u20$as$u20$core..ops..drop..Drop$GT$4drop17hcc4d9639e59b45e5E:
Lfunc_begin51:
	.loc	10 390 0
	.cfi_startproc
	.cfi_personality 155, _rust_eh_personality
	.cfi_lsda 16, Lexception14
	pushq	%rbp
	.cfi_def_cfa_offset 16
	.cfi_offset %rbp, -16
	movq	%rsp, %rbp
	.cfi_def_cfa_register %rbp
	subq	$160, %rsp
	movq	%rdi, -120(%rbp)
Ltmp720:
	.loc	10 393 52 prologue_end
	movq	(%rdi), %rax
	movq	%rax, -80(%rbp)
Ltmp721:
	.loc	13 113 28
	movq	%rax, -72(%rbp)
	leaq	-144(%rbp), %rax
Ltmp722:
	.loc	6 1157 34
	movq	%rax, -64(%rbp)
Ltmp723:
	.loc	10 395 55
	movq	(%rdi), %rax
	movq	24(%rax), %rcx
	movq	%rcx, -56(%rbp)
Ltmp724:
	.loc	32 326 9
	movq	%rcx, -48(%rbp)
Ltmp725:
	.loc	10 395 76
	movq	(%rdi), %rax
	movq	(%rax), %rax
	movq	%rax, -40(%rbp)
Ltmp726:
	.loc	29 216 52
	movq	%rcx, -32(%rbp)
Ltmp727:
	.loc	31 87 59
	movq	%rcx, -24(%rbp)
Ltmp728:
	.loc	32 201 13
	movq	%rcx, -128(%rbp)
Ltmp729:
	.loc	31 87 18
	movq	-128(%rbp), %rcx
	movq	%rcx, -136(%rbp)
Ltmp730:
	.loc	29 216 9
	movq	-136(%rbp), %rcx
	movq	%rcx, -152(%rbp)
	movq	%rax, -160(%rbp)
Ltmp717:
	leaq	-160(%rbp), %rdi
Ltmp731:
	.loc	10 395 94
	callq	__ZN4core3ptr76drop_in_place$LT$alloc..raw_vec..RawVec$LT$$LP$u8$C$u8$C$u8$C$u8$RP$$GT$$GT$17h654f0c8e10a1ba51E
Ltmp718:
	jmp	LBB51_3
Ltmp732:
LBB51_1:
	.loc	10 396 17
	xorl	%eax, %eax
	testb	$1, %al
	jne	LBB51_5
	jmp	LBB51_4
LBB51_2:
Ltmp719:
	.loc	10 0 17 is_stmt 0
	movq	%rax, %rcx
	movl	%edx, %eax
	movq	%rcx, -16(%rbp)
	movl	%eax, -8(%rbp)
	jmp	LBB51_1
LBB51_3:
	.loc	10 397 14 is_stmt 1
	addq	$160, %rsp
	popq	%rbp
	retq
LBB51_4:
	.loc	10 390 13
	movq	-16(%rbp), %rdi
	callq	__Unwind_Resume
LBB51_5:
	.loc	10 396 17
	jmp	LBB51_4
Ltmp733:
Lfunc_end51:
	.cfi_endproc
	.section	__TEXT,__gcc_except_tab
	.p2align	2
GCC_except_table51:
Lexception14:
	.byte	255
	.byte	255
	.byte	1
	.uleb128 Lcst_end14-Lcst_begin14
Lcst_begin14:
	.uleb128 Ltmp717-Lfunc_begin51
	.uleb128 Ltmp718-Ltmp717
	.uleb128 Ltmp719-Lfunc_begin51
	.byte	0
	.uleb128 Ltmp718-Lfunc_begin51
	.uleb128 Lfunc_end51-Ltmp718
	.byte	0
	.byte	0
Lcst_end14:
	.p2align	2

	.section	__TEXT,__text,regular,pure_instructions
	.p2align	4, 0x90
__ZN166_$LT$alloc..boxed..Box$LT$dyn$u20$core..error..Error$u2b$core..marker..Send$u2b$core..marker..Sync$GT$$u20$as$u20$core..convert..From$LT$alloc..string..String$GT$$GT$4from17h36fc4f7a0d4d427bE:
Lfunc_begin52:
	.loc	37 2275 0
	.cfi_startproc
	.cfi_personality 155, _rust_eh_personality
	.cfi_lsda 16, Lexception15
	pushq	%rbp
	.cfi_def_cfa_offset 16
	.cfi_offset %rbp, -16
	movq	%rsp, %rbp
	.cfi_def_cfa_register %rbp
	subq	$80, %rsp
Ltmp740:
	.loc	37 2298 30 prologue_end
	movq	16(%rdi), %rax
	movq	%rax, -24(%rbp)
	movq	(%rdi), %rax
	movq	8(%rdi), %rcx
	movq	%rcx, -32(%rbp)
	movq	%rax, -40(%rbp)
	.loc	37 2298 18 is_stmt 0
	movq	-24(%rbp), %rax
	movq	%rax, -48(%rbp)
	movq	-40(%rbp), %rax
	movq	-32(%rbp), %rcx
	movq	%rcx, -56(%rbp)
	movq	%rax, -64(%rbp)
Ltmp734:
	movl	$24, %edi
Ltmp741:
	.loc	37 0 18
	movl	$8, %esi
Ltmp742:
	.loc	37 219 9 is_stmt 1
	callq	__ZN5alloc5alloc15exchange_malloc17hcd5563924476ba3fE
Ltmp735:
	movq	%rax, -72(%rbp)
	jmp	LBB52_3
Ltmp743:
LBB52_1:
Ltmp737:
	.loc	37 0 9 is_stmt 0
	leaq	-64(%rbp), %rdi
	.loc	37 220 5 is_stmt 1
	callq	__ZN4core3ptr205drop_in_place$LT$$LT$alloc..boxed..Box$LT$dyn$u20$core..error..Error$u2b$core..marker..Send$u2b$core..marker..Sync$GT$$u20$as$u20$core..convert..From$LT$alloc..string..String$GT$$GT$..from..StringError$GT$17h69b2664dbeb55855E
Ltmp738:
	jmp	LBB52_5
Ltmp744:
LBB52_2:
Ltmp736:
	.loc	37 0 5 is_stmt 0
	movq	%rax, %rcx
	movl	%edx, %eax
	movq	%rcx, -16(%rbp)
	movl	%eax, -8(%rbp)
	jmp	LBB52_1
Ltmp745:
LBB52_3:
	movq	-72(%rbp), %rax
	.loc	37 219 18 is_stmt 1
	movq	-48(%rbp), %rcx
	movq	%rcx, 16(%rax)
	movq	-64(%rbp), %rcx
	movq	-56(%rbp), %rdx
	movq	%rdx, 8(%rax)
	movq	%rcx, (%rax)
Ltmp746:
	.loc	37 2299 6
	leaq	l___unnamed_1(%rip), %rdx
	addq	$80, %rsp
	popq	%rbp
	retq
Ltmp747:
LBB52_4:
Ltmp739:
	.loc	37 2275 5
	callq	__ZN4core9panicking19panic_cannot_unwind17h1fbca7e1d7f56ae1E
Ltmp748:
LBB52_5:
	movq	-16(%rbp), %rdi
	callq	__Unwind_Resume
Ltmp749:
Lfunc_end52:
	.cfi_endproc
	.section	__TEXT,__gcc_except_tab
	.p2align	2
GCC_except_table52:
Lexception15:
	.byte	255
	.byte	255
	.byte	1
	.uleb128 Lcst_end15-Lcst_begin15
Lcst_begin15:
	.uleb128 Ltmp734-Lfunc_begin52
	.uleb128 Ltmp735-Ltmp734
	.uleb128 Ltmp736-Lfunc_begin52
	.byte	0
	.uleb128 Ltmp737-Lfunc_begin52
	.uleb128 Ltmp738-Ltmp737
	.uleb128 Ltmp739-Lfunc_begin52
	.byte	0
	.uleb128 Ltmp738-Lfunc_begin52
	.uleb128 Lfunc_end52-Ltmp738
	.byte	0
	.byte	0
Lcst_end15:
	.p2align	2

	.section	__TEXT,__text,regular,pure_instructions
	.globl	__ZN36_$LT$T$u20$as$u20$core..any..Any$GT$7type_id17h7b0a78fdd34b09c3E
	.p2align	4, 0x90
__ZN36_$LT$T$u20$as$u20$core..any..Any$GT$7type_id17h7b0a78fdd34b09c3E:
Lfunc_begin53:
	.file	43 "/rustc/2c8cc343237b8f7d5a3c3703e3a87f2eb2c54a74/library/core/src" "any.rs"
	.loc	43 201 0
	.cfi_startproc
	pushq	%rbp
	.cfi_def_cfa_offset 16
	.cfi_offset %rbp, -16
	movq	%rsp, %rbp
	.cfi_def_cfa_register %rbp
	subq	$16, %rsp
	movq	%rdi, -8(%rbp)
Ltmp750:
	.loc	43 202 9 prologue_end
	callq	__ZN4core3any6TypeId2of17hc886910344c7850cE
	.loc	43 203 6
	addq	$16, %rsp
	popq	%rbp
	retq
Ltmp751:
Lfunc_end53:
	.cfi_endproc

	.globl	__ZN3std10sys_common9backtrace26__rust_end_short_backtrace17h60ce4a205ef39fb6E
	.p2align	4, 0x90
__ZN3std10sys_common9backtrace26__rust_end_short_backtrace17h60ce4a205ef39fb6E:
Lfunc_begin54:
	.file	44 "/rustc/2c8cc343237b8f7d5a3c3703e3a87f2eb2c54a74/library/std/src/sys_common" "backtrace.rs"
	.loc	44 133 0
	.cfi_startproc
	pushq	%rbp
	.cfi_def_cfa_offset 16
	.cfi_offset %rbp, -16
	movq	%rsp, %rbp
	.cfi_def_cfa_register %rbp
	subq	$64, %rsp
Ltmp752:
	.loc	44 137 18 prologue_end
	movq	(%rdi), %rax
	movq	%rax, -56(%rbp)
	movq	8(%rdi), %rax
	movq	%rax, -48(%rbp)
	movq	16(%rdi), %rax
	movq	%rax, -40(%rbp)
	leaq	-56(%rbp), %rdi
Ltmp753:
	callq	__ZN3std9panicking11begin_panic28_$u7b$$u7b$closure$u7d$$u7d$17h7f479dc5e396b53dE
Ltmp754:
	.file	45 "/rustc/2c8cc343237b8f7d5a3c3703e3a87f2eb2c54a74/library/core/src" "hint.rs"
	.loc	45 295 5
	## InlineAsm Start
	## InlineAsm End
Ltmp755:
	.loc	44 143 2
	ud2
Ltmp756:
Lfunc_end54:
	.cfi_endproc

	.globl	__ZN3std11collections4hash3map11RandomState3new28_$u7b$$u7b$closure$u7d$$u7d$17hc003ec155a169866E
	.p2align	4, 0x90
__ZN3std11collections4hash3map11RandomState3new28_$u7b$$u7b$closure$u7d$$u7d$17hc003ec155a169866E:
Lfunc_begin55:
	.loc	36 3128 0
	.cfi_startproc
	pushq	%rbp
	.cfi_def_cfa_offset 16
	.cfi_offset %rbp, -16
	movq	%rsp, %rbp
	.cfi_def_cfa_register %rbp
	subq	$128, %rsp
	movq	%rdi, -72(%rbp)
Ltmp757:
	.loc	36 3129 28 prologue_end
	movq	%rdi, -64(%rbp)
Ltmp758:
	.file	46 "/rustc/2c8cc343237b8f7d5a3c3703e3a87f2eb2c54a74/library/core/src" "cell.rs"
	.loc	46 452 19
	movq	%rdi, -56(%rbp)
	.loc	46 452 18 is_stmt 0
	movq	(%rdi), %rcx
	movq	%rcx, -128(%rbp)
	movq	8(%rdi), %rax
	movq	%rax, -120(%rbp)
Ltmp759:
	.loc	36 3129 18 is_stmt 1
	movq	%rcx, -48(%rbp)
	.loc	36 3129 22 is_stmt 0
	movq	%rax, -40(%rbp)
Ltmp760:
	.loc	36 3130 13 is_stmt 1
	movq	%rdi, -32(%rbp)
	.loc	36 3130 23 is_stmt 0
	movq	%rcx, -24(%rbp)
Ltmp761:
	.loc	16 1162 13 is_stmt 1
	incq	%rcx
Ltmp762:
	.loc	36 3130 22
	movq	%rcx, -96(%rbp)
	movq	%rax, -88(%rbp)
Ltmp763:
	.loc	46 363 32
	movq	-96(%rbp), %rsi
	movq	-88(%rbp), %rdx
	.loc	46 363 19 is_stmt 0
	callq	__ZN4core4cell13Cell$LT$T$GT$7replace17h79441422b3f799ceE
	movq	-128(%rbp), %rcx
	movq	%rax, %rsi
	movq	-120(%rbp), %rax
	movq	%rsi, -16(%rbp)
	movq	%rdx, -8(%rbp)
Ltmp764:
	.loc	36 3131 13 is_stmt 1
	movq	%rcx, -112(%rbp)
	movq	%rax, -104(%rbp)
Ltmp765:
	.loc	36 3132 10
	movq	-112(%rbp), %rax
	movq	-104(%rbp), %rdx
	addq	$128, %rsp
	popq	%rbp
	retq
Ltmp766:
Lfunc_end55:
	.cfi_endproc

	.p2align	4, 0x90
__ZN3std11collections4hash3map11RandomState3new4KEYS7__getit17h3695aada727a00b0E:
Lfunc_begin56:
	.file	47 "/rustc/2c8cc343237b8f7d5a3c3703e3a87f2eb2c54a74/library/std/src/thread" "local.rs"
	.loc	47 319 0
	.cfi_startproc
	pushq	%rbp
	.cfi_def_cfa_offset 16
	.cfi_offset %rbp, -16
	movq	%rsp, %rbp
	.cfi_def_cfa_register %rbp
	subq	$16, %rsp
	movq	%rdi, -8(%rbp)
Ltmp767:
	.loc	47 346 31 prologue_end
	movq	%rdi, -16(%rbp)
	.loc	47 346 21 is_stmt 0
	movq	-16(%rbp), %rsi
	movq	__ZN3std11collections4hash3map11RandomState3new4KEYS7__getit5__KEY17hc7d79347407182b9E@TLVP(%rip), %rdi
	callq	*(%rdi)
	movq	%rax, %rdi
	callq	__ZN3std6thread5local4fast12Key$LT$T$GT$3get17h07ff038446ad9943E
	.loc	47 357 14 is_stmt 1
	addq	$16, %rsp
	popq	%rbp
	retq
Ltmp768:
Lfunc_end56:
	.cfi_endproc

	.globl	__ZN3std11collections4hash3map11RandomState3new4KEYS7__getit28_$u7b$$u7b$closure$u7d$$u7d$17h4a676b500d92a975E
	.p2align	4, 0x90
__ZN3std11collections4hash3map11RandomState3new4KEYS7__getit28_$u7b$$u7b$closure$u7d$$u7d$17h4a676b500d92a975E:
Lfunc_begin57:
	.loc	47 346 0
	.cfi_startproc
	pushq	%rbp
	.cfi_def_cfa_offset 16
	.cfi_offset %rbp, -16
	movq	%rsp, %rbp
	.cfi_def_cfa_register %rbp
	subq	$160, %rsp
	movq	%rdi, -152(%rbp)
Ltmp769:
	.loc	47 347 32 prologue_end
	movq	-152(%rbp), %rdx
	movl	$1, %eax
	xorl	%ecx, %ecx
	cmpq	$0, %rdx
	cmoveq	%rcx, %rax
	cmpq	$1, %rax
	jne	LBB57_2
	.loc	47 347 61 is_stmt 0
	movq	-152(%rbp), %rsi
	movq	%rsi, -64(%rbp)
Ltmp770:
	.loc	47 348 74 is_stmt 1
	movq	%rsi, -56(%rbp)
Ltmp771:
	.loc	23 1623 28
	movq	$0, -104(%rbp)
	.loc	23 1623 9 is_stmt 0
	leaq	-128(%rbp), %rdi
	leaq	-104(%rbp), %rdx
	callq	__ZN4core3mem7replace17heeccec5d29467bbcE
Ltmp772:
	.loc	47 348 36 is_stmt 1
	cmpq	$1, -128(%rbp)
	je	LBB57_3
	jmp	LBB57_4
Ltmp773:
LBB57_2:
	.loc	36 3125 23
	callq	__ZN3std3sys4unix4rand19hashmap_random_keys17h35d4ee264ea8f1ebE
	movq	%rax, -48(%rbp)
	movq	%rdx, -40(%rbp)
Ltmp774:
	.loc	46 346 39
	movq	%rax, -32(%rbp)
	movq	%rdx, -24(%rbp)
Ltmp775:
	.loc	46 1953 9
	movq	%rax, -80(%rbp)
	movq	%rdx, -72(%rbp)
Ltmp776:
	.loc	46 346 9
	movq	-80(%rbp), %rcx
	movq	-72(%rbp), %rax
	movq	%rcx, -144(%rbp)
	movq	%rax, -136(%rbp)
Ltmp777:
	.loc	47 294 40
	jmp	LBB57_5
LBB57_3:
Ltmp778:
	.loc	47 348 65
	movq	-120(%rbp), %rcx
	movq	-112(%rbp), %rax
	movq	%rcx, -16(%rbp)
	movq	%rax, -8(%rbp)
	.loc	47 349 40
	movq	%rcx, -144(%rbp)
	movq	%rax, -136(%rbp)
Ltmp779:
	.loc	47 355 22
	jmp	LBB57_5
LBB57_4:
	.loc	47 347 25
	jmp	LBB57_2
LBB57_5:
	.loc	47 355 22
	movq	-144(%rbp), %rax
	movq	-136(%rbp), %rdx
	addq	$160, %rsp
	popq	%rbp
	retq
Ltmp780:
Lfunc_end57:
	.cfi_endproc

	.globl	__ZN3std11collections4hash3map24HashMap$LT$K$C$V$C$S$GT$3get17h9ca680f4bffab813E
	.p2align	4, 0x90
__ZN3std11collections4hash3map24HashMap$LT$K$C$V$C$S$GT$3get17h9ca680f4bffab813E:
Lfunc_begin58:
	.loc	36 876 0
	.cfi_startproc
	pushq	%rbp
	.cfi_def_cfa_offset 16
	.cfi_offset %rbp, -16
	movq	%rsp, %rbp
	.cfi_def_cfa_register %rbp
	subq	$16, %rsp
	movq	%rdi, -16(%rbp)
	movq	%rsi, -8(%rbp)
Ltmp781:
	.loc	36 881 9 prologue_end
	callq	__ZN9hashbrown3map28HashMap$LT$K$C$V$C$S$C$A$GT$3get17ha4a02541202f2785E
	.loc	36 882 6
	addq	$16, %rsp
	popq	%rbp
	retq
Ltmp782:
Lfunc_end58:
	.cfi_endproc

	.globl	__ZN3std11collections4hash3set16HashSet$LT$T$GT$3new17h3287bfde543ef834E
	.p2align	4, 0x90
__ZN3std11collections4hash3set16HashSet$LT$T$GT$3new17h3287bfde543ef834E:
Lfunc_begin59:
	.loc	19 132 0
	.cfi_startproc
	pushq	%rbp
	.cfi_def_cfa_offset 16
	.cfi_offset %rbp, -16
	movq	%rsp, %rbp
	.cfi_def_cfa_register %rbp
	subq	$64, %rsp
	movq	%rdi, -64(%rbp)
	movq	%rdi, -56(%rbp)
Ltmp783:
	.loc	19 1119 25 prologue_end
	leaq	-48(%rbp), %rdi
	callq	__ZN83_$LT$hashbrown..set..HashSet$LT$T$C$S$C$A$GT$$u20$as$u20$core..default..Default$GT$7default17hf4096944dc8727f7E
	movq	-64(%rbp), %rdi
	.loc	19 1119 9 is_stmt 0
	leaq	-48(%rbp), %rsi
	movl	$48, %edx
	callq	_memcpy
	movq	-56(%rbp), %rax
Ltmp784:
	.loc	19 134 6 is_stmt 1
	addq	$64, %rsp
	popq	%rbp
	retq
Ltmp785:
Lfunc_end59:
	.cfi_endproc

	.globl	__ZN3std11collections4hash3set20HashSet$LT$T$C$S$GT$3len17hf0d1683a9092bf06E
	.p2align	4, 0x90
__ZN3std11collections4hash3set20HashSet$LT$T$C$S$GT$3len17hf0d1683a9092bf06E:
Lfunc_begin60:
	.loc	19 215 0
	.cfi_startproc
	pushq	%rbp
	.cfi_def_cfa_offset 16
	.cfi_offset %rbp, -16
	movq	%rsp, %rbp
	.cfi_def_cfa_register %rbp
	subq	$16, %rsp
	movq	%rdi, -8(%rbp)
Ltmp786:
	.loc	19 216 9 prologue_end
	callq	__ZN9hashbrown3set24HashSet$LT$T$C$S$C$A$GT$3len17h8378405872bbefb6E
	.loc	19 217 6
	addq	$16, %rsp
	popq	%rbp
	retq
Ltmp787:
Lfunc_end60:
	.cfi_endproc

	.globl	__ZN3std11collections4hash3set20HashSet$LT$T$C$S$GT$6insert17h0903093f6b317560E
	.p2align	4, 0x90
__ZN3std11collections4hash3set20HashSet$LT$T$C$S$GT$6insert17h0903093f6b317560E:
Lfunc_begin61:
	.loc	19 893 0
	.cfi_startproc
	pushq	%rbp
	.cfi_def_cfa_offset 16
	.cfi_offset %rbp, -16
	movq	%rsp, %rbp
	.cfi_def_cfa_register %rbp
	subq	$32, %rsp
	movl	%esi, -20(%rbp)
	movl	-20(%rbp), %eax
	movl	%eax, -24(%rbp)
	movq	%rdi, -8(%rbp)
Ltmp788:
	.loc	19 894 26 prologue_end
	movl	-24(%rbp), %eax
	movl	%eax, -16(%rbp)
	.loc	19 894 9 is_stmt 0
	movl	-16(%rbp), %esi
	callq	__ZN9hashbrown3set24HashSet$LT$T$C$S$C$A$GT$6insert17he75143641c8f4e04E
	.loc	19 895 6 is_stmt 1
	andb	$1, %al
	movzbl	%al, %eax
	addq	$32, %rsp
	popq	%rbp
	retq
Ltmp789:
Lfunc_end61:
	.cfi_endproc

	.globl	__ZN3std2io5Write9write_all17h0f2afe9f248684edE
	.p2align	4, 0x90
__ZN3std2io5Write9write_all17h0f2afe9f248684edE:
Lfunc_begin62:
	.file	48 "/rustc/2c8cc343237b8f7d5a3c3703e3a87f2eb2c54a74/library/std/src/io" "mod.rs"
	.loc	48 1540 0
	.cfi_startproc
	.cfi_personality 155, _rust_eh_personality
	.cfi_lsda 16, Lexception16
	pushq	%rbp
	.cfi_def_cfa_offset 16
	.cfi_offset %rbp, -16
	movq	%rsp, %rbp
	.cfi_def_cfa_register %rbp
	subq	$256, %rsp
	movq	%rdi, -232(%rbp)
	movq	%rsi, -224(%rbp)
	movq	%rdx, -216(%rbp)
	movq	%rdi, -136(%rbp)
LBB62_1:
Ltmp798:
	.loc	48 1541 16 prologue_end
	movq	-224(%rbp), %rcx
	movq	-216(%rbp), %rax
	movq	%rcx, -128(%rbp)
	movq	%rax, -120(%rbp)
Ltmp799:
	.file	49 "/rustc/2c8cc343237b8f7d5a3c3703e3a87f2eb2c54a74/library/core/src/slice" "mod.rs"
	.loc	49 153 9
	cmpq	$0, %rax
	sete	%al
Ltmp800:
	.loc	48 1541 15
	xorb	$-1, %al
	testb	$1, %al
	jne	LBB62_3
	.loc	48 1554 9
	movq	$0, -208(%rbp)
	.loc	48 1555 6
	jmp	LBB62_23
LBB62_3:
	.loc	48 0 6 is_stmt 0
	movq	-232(%rbp), %rsi
	.loc	48 1542 30 is_stmt 1
	movq	-224(%rbp), %rdx
	movq	-216(%rbp), %rcx
	.loc	48 1542 19 is_stmt 0
	leaq	-200(%rbp), %rdi
	callq	__ZN64_$LT$std..sys..unix..stdio..Stderr$u20$as$u20$std..io..Write$GT$5write17hfeaf20e5669f7ee8E
	.loc	48 1542 13
	cmpq	$0, -200(%rbp)
	jne	LBB62_5
	cmpq	$0, -192(%rbp)
	je	LBB62_13
	jmp	LBB62_14
LBB62_5:
	.loc	48 1550 21 is_stmt 1
	leaq	-192(%rbp), %rax
	movq	%rax, -168(%rbp)
	leaq	-168(%rbp), %rax
	movq	%rax, -112(%rbp)
	.loc	48 1550 31 is_stmt 0
	movq	-168(%rbp), %rdi
Ltmp790:
	callq	__ZN3std2io5error5Error4kind17h70721337c4ddbfc9E
Ltmp791:
	movb	%al, -233(%rbp)
	jmp	LBB62_8
LBB62_6:
	.loc	48 1553 9 is_stmt 1
	cmpq	$1, -200(%rbp)
	je	LBB62_16
	jmp	LBB62_17
LBB62_7:
Ltmp794:
	.loc	48 0 9 is_stmt 0
	movq	%rax, %rcx
	movl	%edx, %eax
	movq	%rcx, -104(%rbp)
	movl	%eax, -96(%rbp)
	jmp	LBB62_6
LBB62_8:
	movb	-233(%rbp), %al
	.loc	48 1550 31 is_stmt 1
	movb	%al, -153(%rbp)
	leaq	-153(%rbp), %rax
	movq	%rax, -88(%rbp)
	.loc	48 1550 43 is_stmt 0
	leaq	l___unnamed_47(%rip), %rax
	movq	%rax, -80(%rbp)
Ltmp801:
	.file	50 "/rustc/2c8cc343237b8f7d5a3c3703e3a87f2eb2c54a74/library/std/src/io" "error.rs"
	.loc	50 165 45 is_stmt 1
	movzbl	-153(%rbp), %eax
	movq	%rax, -72(%rbp)
Ltmp802:
	.loc	50 165 45 is_stmt 0
	movzbl	l___unnamed_47(%rip), %ecx
	movq	%rcx, -64(%rbp)
Ltmp803:
	.loc	50 165 45
	cmpq	%rcx, %rax
Ltmp804:
	.loc	48 1550 31 is_stmt 1
	je	LBB62_10
	.loc	48 1551 21
	movq	-192(%rbp), %rax
	movq	%rax, -56(%rbp)
Ltmp805:
	.loc	48 1551 34 is_stmt 0
	movq	%rax, -208(%rbp)
Ltmp806:
	.loc	34 1 1 is_stmt 1
	jmp	LBB62_12
LBB62_10:
	.loc	48 1550 70
	jmp	LBB62_11
LBB62_11:
	.loc	48 1553 9
	cmpq	$1, -200(%rbp)
	je	LBB62_20
	jmp	LBB62_21
LBB62_12:
	.loc	48 1555 6
	jmp	LBB62_23
LBB62_13:
	.loc	48 1544 32
	leaq	l___unnamed_48(%rip), %rax
	movq	%rax, -24(%rbp)
Ltmp807:
	.loc	50 554 47
	leaq	l___unnamed_48(%rip), %rax
	movq	%rax, -16(%rbp)
Ltmp808:
	.file	51 "/rustc/2c8cc343237b8f7d5a3c3703e3a87f2eb2c54a74/library/std/src/io/error" "repr_bitpacked.rs"
	.loc	51 206 46
	leaq	l___unnamed_48(%rip), %rax
	movq	%rax, -8(%rbp)
Ltmp809:
	.loc	32 201 13
	leaq	l___unnamed_48(%rip), %rax
	movq	%rax, -144(%rbp)
Ltmp810:
	.loc	51 206 9
	movq	-144(%rbp), %rax
	movq	%rax, -152(%rbp)
Ltmp811:
	.loc	50 554 9
	movq	-152(%rbp), %rax
	movq	%rax, -184(%rbp)
Ltmp812:
	.loc	48 1544 28
	movq	-184(%rbp), %rax
	movq	%rax, -208(%rbp)
	.loc	34 1 1
	jmp	LBB62_12
LBB62_14:
	.loc	48 1549 20
	movq	-192(%rbp), %rax
	movq	%rax, -48(%rbp)
Ltmp813:
	.loc	48 1549 33 is_stmt 0
	movq	-224(%rbp), %rsi
	movq	-216(%rbp), %rdx
	movq	%rsi, -40(%rbp)
	movq	%rdx, -32(%rbp)
	.loc	48 1549 37
	movq	%rax, -176(%rbp)
Ltmp814:
	.loc	21 18 9 is_stmt 1
	movq	-176(%rbp), %rdi
Ltmp792:
	leaq	l___unnamed_49(%rip), %rcx
	callq	__ZN110_$LT$core..ops..range..RangeFrom$LT$usize$GT$$u20$as$u20$core..slice..index..SliceIndex$LT$$u5b$T$u5d$$GT$$GT$5index17h3bf9b124ca007c89E
Ltmp793:
	movq	%rdx, -256(%rbp)
	movq	%rax, -248(%rbp)
	jmp	LBB62_15
Ltmp815:
LBB62_15:
	.loc	21 0 9 is_stmt 0
	movq	-256(%rbp), %rax
	movq	-248(%rbp), %rcx
	.loc	48 1549 26 is_stmt 1
	movq	%rcx, -224(%rbp)
	movq	%rax, -216(%rbp)
Ltmp816:
	.loc	48 1549 40 is_stmt 0
	jmp	LBB62_11
LBB62_16:
	.loc	48 1553 9 is_stmt 1
	movb	$1, %al
	testb	$1, %al
	jne	LBB62_18
	jmp	LBB62_17
LBB62_17:
	.loc	48 1540 5
	movq	-104(%rbp), %rdi
	callq	__Unwind_Resume
LBB62_18:
	.loc	48 1553 9
	leaq	-192(%rbp), %rdi
Ltmp795:
	callq	__ZN4core3ptr42drop_in_place$LT$std..io..error..Error$GT$17heb2a28e1042efdc1E
Ltmp796:
	jmp	LBB62_17
LBB62_19:
Ltmp797:
	.loc	48 1540 5
	callq	__ZN4core9panicking19panic_cannot_unwind17h1fbca7e1d7f56ae1E
LBB62_20:
	.loc	48 1553 9
	movb	$1, %al
	testb	$1, %al
	jne	LBB62_22
	jmp	LBB62_21
LBB62_21:
	.loc	48 1541 9
	jmp	LBB62_1
LBB62_22:
	.loc	48 1553 9
	leaq	-200(%rbp), %rdi
	addq	$8, %rdi
	callq	__ZN4core3ptr42drop_in_place$LT$std..io..error..Error$GT$17heb2a28e1042efdc1E
	jmp	LBB62_21
LBB62_23:
	.loc	48 1555 6
	movq	-208(%rbp), %rax
	addq	$256, %rsp
	popq	%rbp
	retq
Ltmp817:
Lfunc_end62:
	.cfi_endproc
	.section	__TEXT,__gcc_except_tab
	.p2align	2
GCC_except_table62:
Lexception16:
	.byte	255
	.byte	255
	.byte	1
	.uleb128 Lcst_end16-Lcst_begin16
Lcst_begin16:
	.uleb128 Lfunc_begin62-Lfunc_begin62
	.uleb128 Ltmp790-Lfunc_begin62
	.byte	0
	.byte	0
	.uleb128 Ltmp790-Lfunc_begin62
	.uleb128 Ltmp793-Ltmp790
	.uleb128 Ltmp794-Lfunc_begin62
	.byte	0
	.uleb128 Ltmp793-Lfunc_begin62
	.uleb128 Ltmp795-Ltmp793
	.byte	0
	.byte	0
	.uleb128 Ltmp795-Lfunc_begin62
	.uleb128 Ltmp796-Ltmp795
	.uleb128 Ltmp797-Lfunc_begin62
	.byte	0
	.uleb128 Ltmp796-Lfunc_begin62
	.uleb128 Lfunc_end62-Ltmp796
	.byte	0
	.byte	0
Lcst_end16:
	.p2align	2

	.section	__TEXT,__text,regular,pure_instructions
	.globl	__ZN3std2io5Write9write_fmt17h84165f7cbd3daa7dE
	.p2align	4, 0x90
__ZN3std2io5Write9write_fmt17h84165f7cbd3daa7dE:
Lfunc_begin63:
	.loc	48 1661 0
	.cfi_startproc
	.cfi_personality 155, _rust_eh_personality
	.cfi_lsda 16, Lexception17
	pushq	%rbp
	.cfi_def_cfa_offset 16
	.cfi_offset %rbp, -16
	movq	%rsp, %rbp
	.cfi_def_cfa_register %rbp
	subq	$192, %rsp
	movq	%rdi, -64(%rbp)
Ltmp824:
	.loc	48 1681 56 prologue_end
	movq	$0, -160(%rbp)
	.loc	48 1681 26 is_stmt 0
	movb	$1, -82(%rbp)
	movq	%rdi, -168(%rbp)
	movq	-160(%rbp), %rax
	movq	%rax, -176(%rbp)
Ltmp825:
	.loc	48 1682 39 is_stmt 1
	movq	40(%rsi), %rax
	movq	%rax, -104(%rbp)
	movq	32(%rsi), %rax
	movq	%rax, -112(%rbp)
	movq	24(%rsi), %rax
	movq	%rax, -120(%rbp)
	movq	16(%rsi), %rax
	movq	%rax, -128(%rbp)
	movq	(%rsi), %rax
	movq	8(%rsi), %rcx
	movq	%rcx, -136(%rbp)
	movq	%rax, -144(%rbp)
Ltmp818:
	.loc	48 1682 15 is_stmt 0
	leaq	l___unnamed_2(%rip), %rsi
Ltmp826:
	.loc	48 0 15
	leaq	-176(%rbp), %rdi
	leaq	-144(%rbp), %rdx
	.loc	48 1682 15
	callq	__ZN4core3fmt5write17hfa389e524187f2c6E
Ltmp819:
	movb	%al, -185(%rbp)
	jmp	LBB63_3
Ltmp827:
LBB63_1:
Ltmp821:
	.loc	48 0 15
	leaq	-176(%rbp), %rdi
	.loc	48 1693 5 is_stmt 1
	callq	__ZN4core3ptr92drop_in_place$LT$std..io..Write..write_fmt..Adapter$LT$std..sys..unix..stdio..Stderr$GT$$GT$17h8c86dadd59a05017E
Ltmp822:
	jmp	LBB63_5
Ltmp828:
LBB63_2:
Ltmp820:
	.loc	48 0 5 is_stmt 0
	movq	%rax, %rcx
	movl	%edx, %eax
	movq	%rcx, -56(%rbp)
	movl	%eax, -48(%rbp)
	jmp	LBB63_1
Ltmp829:
LBB63_3:
	movb	-185(%rbp), %al
Ltmp830:
	.loc	48 1682 15 is_stmt 1
	andb	$1, %al
	movb	%al, -145(%rbp)
	movb	-145(%rbp), %al
	andb	$1, %al
	movzbl	%al, %eax
	.loc	48 1682 9 is_stmt 0
	cmpq	$0, %rax
	je	LBB63_6
	jmp	LBB63_7
Ltmp831:
LBB63_4:
Ltmp823:
	.loc	48 1661 5 is_stmt 1
	callq	__ZN4core9panicking19panic_cannot_unwind17h1fbca7e1d7f56ae1E
Ltmp832:
LBB63_5:
	movq	-56(%rbp), %rdi
	callq	__Unwind_Resume
Ltmp833:
LBB63_6:
	.loc	48 1683 23
	movq	$0, -184(%rbp)
	.loc	48 1683 28 is_stmt 0
	jmp	LBB63_14
Ltmp834:
LBB63_7:
	.loc	48 1686 20 is_stmt 1
	leaq	-176(%rbp), %rax
	movq	%rax, -40(%rbp)
Ltmp835:
	.loc	41 589 10
	leaq	-176(%rbp), %rax
	movq	%rax, -32(%rbp)
Ltmp836:
	.loc	41 542 18
	movq	-176(%rbp), %rdx
	movl	$1, %eax
	xorl	%ecx, %ecx
	cmpq	$0, %rdx
	cmoveq	%rcx, %rax
	.file	52 "/rustc/2c8cc343237b8f7d5a3c3703e3a87f2eb2c54a74/library/core/src/macros" "mod.rs"
	.loc	52 344 9
	cmpq	$0, %rax
	jne	LBB63_9
Ltmp837:
	.loc	52 345 48
	movb	$1, -81(%rbp)
	jmp	LBB63_10
Ltmp838:
LBB63_9:
	.loc	52 346 18
	movb	$0, -81(%rbp)
Ltmp839:
LBB63_10:
	.loc	41 589 9
	movb	-81(%rbp), %al
	xorb	$-1, %al
Ltmp840:
	.loc	48 1686 20
	testb	$1, %al
	jne	LBB63_12
Ltmp841:
	.loc	48 1689 25
	leaq	l___unnamed_50(%rip), %rax
	movq	%rax, -24(%rbp)
Ltmp842:
	.loc	50 554 47
	leaq	l___unnamed_50(%rip), %rax
	movq	%rax, -16(%rbp)
Ltmp843:
	.loc	51 206 46
	leaq	l___unnamed_50(%rip), %rax
	movq	%rax, -8(%rbp)
Ltmp844:
	.loc	32 201 13
	leaq	l___unnamed_50(%rip), %rax
	movq	%rax, -72(%rbp)
Ltmp845:
	.loc	51 206 9
	movq	-72(%rbp), %rax
	movq	%rax, -80(%rbp)
Ltmp846:
	.loc	50 554 9
	movq	-80(%rbp), %rax
	movq	%rax, -96(%rbp)
Ltmp847:
	.loc	48 1689 21
	movq	-96(%rbp), %rax
	movq	%rax, -184(%rbp)
	.loc	48 1686 17
	jmp	LBB63_13
Ltmp848:
LBB63_12:
	.loc	48 1687 21
	movb	$0, -82(%rbp)
	movq	-176(%rbp), %rax
	movq	%rax, -184(%rbp)
Ltmp849:
LBB63_13:
	.loc	48 1690 17
	jmp	LBB63_14
Ltmp850:
LBB63_14:
	.loc	48 1693 5
	testb	$1, -82(%rbp)
	jne	LBB63_16
Ltmp851:
LBB63_15:
	.loc	48 1693 6 is_stmt 0
	movq	-184(%rbp), %rax
	addq	$192, %rsp
	popq	%rbp
	retq
Ltmp852:
LBB63_16:
	.loc	48 1693 5
	leaq	-176(%rbp), %rdi
	callq	__ZN4core3ptr81drop_in_place$LT$core..result..Result$LT$$LP$$RP$$C$std..io..error..Error$GT$$GT$17h138947bff5834a55E
	jmp	LBB63_15
Ltmp853:
Lfunc_end63:
	.cfi_endproc
	.section	__TEXT,__gcc_except_tab
	.p2align	2
GCC_except_table63:
Lexception17:
	.byte	255
	.byte	255
	.byte	1
	.uleb128 Lcst_end17-Lcst_begin17
Lcst_begin17:
	.uleb128 Ltmp818-Lfunc_begin63
	.uleb128 Ltmp819-Ltmp818
	.uleb128 Ltmp820-Lfunc_begin63
	.byte	0
	.uleb128 Ltmp821-Lfunc_begin63
	.uleb128 Ltmp822-Ltmp821
	.uleb128 Ltmp823-Lfunc_begin63
	.byte	0
	.uleb128 Ltmp822-Lfunc_begin63
	.uleb128 Lfunc_end63-Ltmp822
	.byte	0
	.byte	0
Lcst_end17:
	.p2align	2

	.section	__TEXT,__text,regular,pure_instructions
	.globl	__ZN3std2io5error14repr_bitpacked11decode_repr17h183f5bac71fbfcf7E
	.p2align	4, 0x90
__ZN3std2io5error14repr_bitpacked11decode_repr17h183f5bac71fbfcf7E:
Lfunc_begin64:
	.loc	51 246 0 is_stmt 1
	.cfi_startproc
	.cfi_personality 155, _rust_eh_personality
	.cfi_lsda 16, Lexception18
	pushq	%rbp
	.cfi_def_cfa_offset 16
	.cfi_offset %rbp, -16
	movq	%rsp, %rbp
	.cfi_def_cfa_register %rbp
	subq	$320, %rsp
	movq	%rsi, -272(%rbp)
	movq	%rdi, -264(%rbp)
	movq	%rdi, -256(%rbp)
	movq	%rsi, -184(%rbp)
Ltmp863:
	.loc	51 250 9 prologue_end
	movb	$1, -201(%rbp)
	.loc	51 250 16 is_stmt 0
	movq	%rsi, -160(%rbp)
Ltmp864:
	.loc	32 326 9 is_stmt 1
	movq	%rsi, -152(%rbp)
Ltmp865:
	.loc	4 215 33
	movq	%rsi, -144(%rbp)
	.loc	4 215 18 is_stmt 0
	movq	%rsi, -248(%rbp)
Ltmp866:
	.loc	51 251 11 is_stmt 1
	movq	-248(%rbp), %rax
	andl	$3, %eax
	movq	%rax, -280(%rbp)
	.loc	51 251 5 is_stmt 0
	subq	$3, %rax
	ja	LBB64_2
	.loc	51 0 5
	movq	-280(%rbp), %rax
	leaq	LJTI64_0(%rip), %rcx
	movslq	(%rcx,%rax,4), %rax
	addq	%rcx, %rax
	jmpq	*%rax
LBB64_2:
Ltmp860:
	.loc	51 280 13 is_stmt 1
	leaq	l___unnamed_51(%rip), %rdi
	leaq	l___unnamed_52(%rip), %rdx
	movl	$40, %esi
	callq	__ZN4core9panicking5panic17hc1bc45270cf64b03E
Ltmp861:
	jmp	LBB64_9
LBB64_3:
	.loc	51 0 13 is_stmt 0
	movq	-264(%rbp), %rax
	.loc	51 253 26 is_stmt 1
	movq	-248(%rbp), %rcx
	.loc	51 253 24 is_stmt 0
	sarq	$32, %rcx
	movl	%ecx, -4(%rbp)
Ltmp867:
	.loc	51 254 13 is_stmt 1
	movl	%ecx, 4(%rax)
	movb	$0, (%rax)
Ltmp868:
	.loc	51 255 9
	jmp	LBB64_12
LBB64_4:
	.loc	51 257 30
	movl	-244(%rbp), %edi
	.loc	51 257 29 is_stmt 0
	movl	%edi, -12(%rbp)
Ltmp856:
Ltmp869:
	.loc	51 258 24 is_stmt 1
	callq	__ZN3std2io5error14repr_bitpacked14kind_from_prim17hdd8a688790168b3bE
Ltmp857:
	movb	%al, -281(%rbp)
	jmp	LBB64_13
Ltmp870:
LBB64_5:
	.loc	51 0 24 is_stmt 0
	movq	-264(%rbp), %rax
	movq	-272(%rbp), %rcx
	.loc	51 270 58 is_stmt 1
	movq	%rcx, -40(%rbp)
Ltmp871:
	.loc	32 450 41
	movq	%rcx, -32(%rbp)
	movq	%rcx, -24(%rbp)
Ltmp872:
	.loc	32 201 13
	movq	%rcx, -224(%rbp)
Ltmp873:
	.loc	32 326 9
	movq	-224(%rbp), %rcx
Ltmp874:
	.loc	51 270 31
	movq	%rcx, 8(%rax)
	movb	$2, (%rax)
	.loc	51 270 94 is_stmt 0
	jmp	LBB64_12
LBB64_6:
	.loc	51 0 94
	movq	-272(%rbp), %rax
	.loc	51 275 26 is_stmt 1
	movq	%rax, -120(%rbp)
Ltmp875:
	.loc	32 326 9
	movq	%rax, -112(%rbp)
Ltmp876:
	.loc	4 1300 9
	movq	%rax, -104(%rbp)
Ltmp877:
	.loc	4 60 9
	movq	%rax, -96(%rbp)
Ltmp878:
	.loc	4 1282 9
	movq	%rax, -88(%rbp)
Ltmp879:
	.loc	4 568 18
	addq	$-1, %rax
	movq	%rax, -80(%rbp)
	movq	-80(%rbp), %rax
	movq	%rax, -296(%rbp)
	jmp	LBB64_10
Ltmp880:
LBB64_7:
	.loc	51 283 1
	testb	$1, -201(%rbp)
	jne	LBB64_19
	jmp	LBB64_18
LBB64_8:
Ltmp862:
	.loc	51 0 1 is_stmt 0
	movq	%rax, %rcx
	movl	%edx, %eax
	movq	%rcx, -136(%rbp)
	movl	%eax, -128(%rbp)
	jmp	LBB64_7
LBB64_9:
	ud2
LBB64_10:
	movq	-296(%rbp), %rax
Ltmp881:
	.loc	4 568 18 is_stmt 1
	movq	%rax, -72(%rbp)
Ltmp882:
	.loc	4 99 33
	movq	%rax, -64(%rbp)
Ltmp883:
	.loc	5 135 36
	movq	%rax, -192(%rbp)
	.loc	5 135 14 is_stmt 0
	movq	-192(%rbp), %rax
	movq	%rax, -200(%rbp)
	movq	-200(%rbp), %rax
	movq	%rax, -56(%rbp)
Ltmp884:
	.loc	4 60 9 is_stmt 1
	movq	%rax, -48(%rbp)
Ltmp885:
	.loc	51 276 31
	movb	$0, -201(%rbp)
	movq	%rax, -216(%rbp)
	movq	-216(%rbp), %rdi
Ltmp854:
	callq	__ZN78_$LT$std..io..error..repr_bitpacked..Repr$u20$as$u20$core..ops..drop..Drop$GT$4drop28_$u7b$$u7b$closure$u7d$$u7d$17h9164b7fbf4d134e5E
Ltmp855:
	movq	%rax, -304(%rbp)
	jmp	LBB64_11
LBB64_11:
	.loc	51 0 31 is_stmt 0
	movq	-264(%rbp), %rax
	movq	-304(%rbp), %rcx
	.loc	51 276 13
	movq	%rcx, 8(%rax)
	movb	$3, (%rax)
Ltmp886:
LBB64_12:
	.loc	51 283 1 is_stmt 1
	testb	$1, -201(%rbp)
	jne	LBB64_21
	jmp	LBB64_20
LBB64_13:
	.loc	51 0 1 is_stmt 0
	movb	-281(%rbp), %al
Ltmp887:
	.loc	51 258 24 is_stmt 1
	movb	%al, -233(%rbp)
	.loc	51 258 65 is_stmt 0
	leaq	-248(%rbp), %rax
	movq	%rax, -232(%rbp)
Ltmp888:
	.loc	23 871 15 is_stmt 1
	movl	$1, %eax
	xorl	%ecx, %ecx
	cmpb	$41, -233(%rbp)
	cmoveq	%rcx, %rax
	.loc	23 871 9 is_stmt 0
	cmpq	$0, %rax
	jne	LBB64_15
	.loc	23 873 21 is_stmt 1
	movq	-232(%rbp), %rdi
Ltmp858:
	callq	__ZN3std2io5error14repr_bitpacked11decode_repr28_$u7b$$u7b$closure$u7d$$u7d$17hc7e257f46427fc91E
Ltmp859:
	movb	%al, -305(%rbp)
	jmp	LBB64_17
LBB64_15:
	.loc	23 872 18
	movb	-233(%rbp), %al
	movb	%al, -5(%rbp)
Ltmp889:
	.loc	23 872 24 is_stmt 0
	movb	%al, -234(%rbp)
Ltmp890:
LBB64_16:
	.loc	23 0 24
	movq	-264(%rbp), %rax
Ltmp891:
	.loc	51 268 31 is_stmt 1
	movb	-234(%rbp), %cl
	.loc	51 268 13 is_stmt 0
	movb	%cl, 1(%rax)
	movb	$1, (%rax)
Ltmp892:
	.loc	51 269 9 is_stmt 1
	jmp	LBB64_12
LBB64_17:
	.loc	51 0 9 is_stmt 0
	movb	-305(%rbp), %al
Ltmp893:
	.loc	23 873 21 is_stmt 1
	movb	%al, -234(%rbp)
	.loc	23 873 23 is_stmt 0
	jmp	LBB64_16
Ltmp894:
LBB64_18:
	.loc	51 246 1 is_stmt 1
	movq	-136(%rbp), %rdi
	callq	__Unwind_Resume
LBB64_19:
	.loc	51 283 1
	jmp	LBB64_18
LBB64_20:
	.loc	51 0 1 is_stmt 0
	movq	-256(%rbp), %rax
	.loc	51 283 2
	addq	$320, %rsp
	popq	%rbp
	retq
LBB64_21:
	.loc	51 283 1
	jmp	LBB64_20
Ltmp895:
Lfunc_end64:
	.cfi_endproc
	.p2align	2, 0x90
	.data_region jt32
.set L64_0_set_5, LBB64_5-LJTI64_0
.set L64_0_set_6, LBB64_6-LJTI64_0
.set L64_0_set_3, LBB64_3-LJTI64_0
.set L64_0_set_4, LBB64_4-LJTI64_0
LJTI64_0:
	.long	L64_0_set_5
	.long	L64_0_set_6
	.long	L64_0_set_3
	.long	L64_0_set_4
	.end_data_region
	.section	__TEXT,__gcc_except_tab
	.p2align	2
GCC_except_table64:
Lexception18:
	.byte	255
	.byte	255
	.byte	1
	.uleb128 Lcst_end18-Lcst_begin18
Lcst_begin18:
	.uleb128 Ltmp860-Lfunc_begin64
	.uleb128 Ltmp859-Ltmp860
	.uleb128 Ltmp862-Lfunc_begin64
	.byte	0
	.uleb128 Ltmp859-Lfunc_begin64
	.uleb128 Lfunc_end64-Ltmp859
	.byte	0
	.byte	0
Lcst_end18:
	.p2align	2

	.section	__TEXT,__text,regular,pure_instructions
	.globl	__ZN3std2io5error14repr_bitpacked11decode_repr17h96edd78ec2958b3eE
	.p2align	4, 0x90
__ZN3std2io5error14repr_bitpacked11decode_repr17h96edd78ec2958b3eE:
Lfunc_begin65:
	.loc	51 246 0 is_stmt 1
	.cfi_startproc
	.cfi_personality 155, _rust_eh_personality
	.cfi_lsda 16, Lexception19
	pushq	%rbp
	.cfi_def_cfa_offset 16
	.cfi_offset %rbp, -16
	movq	%rsp, %rbp
	.cfi_def_cfa_register %rbp
	subq	$320, %rsp
	movq	%rsi, -272(%rbp)
	movq	%rdi, -264(%rbp)
	movq	%rdi, -256(%rbp)
	movq	%rsi, -184(%rbp)
Ltmp905:
	.loc	51 250 9 prologue_end
	movb	$1, -201(%rbp)
	.loc	51 250 16 is_stmt 0
	movq	%rsi, -160(%rbp)
Ltmp906:
	.loc	32 326 9 is_stmt 1
	movq	%rsi, -152(%rbp)
Ltmp907:
	.loc	4 215 33
	movq	%rsi, -144(%rbp)
	.loc	4 215 18 is_stmt 0
	movq	%rsi, -248(%rbp)
Ltmp908:
	.loc	51 251 11 is_stmt 1
	movq	-248(%rbp), %rax
	andl	$3, %eax
	movq	%rax, -280(%rbp)
	.loc	51 251 5 is_stmt 0
	subq	$3, %rax
	ja	LBB65_2
	.loc	51 0 5
	movq	-280(%rbp), %rax
	leaq	LJTI65_0(%rip), %rcx
	movslq	(%rcx,%rax,4), %rax
	addq	%rcx, %rax
	jmpq	*%rax
LBB65_2:
Ltmp902:
	.loc	51 280 13 is_stmt 1
	leaq	l___unnamed_51(%rip), %rdi
	leaq	l___unnamed_52(%rip), %rdx
	movl	$40, %esi
	callq	__ZN4core9panicking5panic17hc1bc45270cf64b03E
Ltmp903:
	jmp	LBB65_9
LBB65_3:
	.loc	51 0 13 is_stmt 0
	movq	-264(%rbp), %rax
	.loc	51 253 26 is_stmt 1
	movq	-248(%rbp), %rcx
	.loc	51 253 24 is_stmt 0
	sarq	$32, %rcx
	movl	%ecx, -4(%rbp)
Ltmp909:
	.loc	51 254 13 is_stmt 1
	movl	%ecx, 4(%rax)
	movb	$0, (%rax)
Ltmp910:
	.loc	51 255 9
	jmp	LBB65_12
LBB65_4:
	.loc	51 257 30
	movl	-244(%rbp), %edi
	.loc	51 257 29 is_stmt 0
	movl	%edi, -12(%rbp)
Ltmp898:
Ltmp911:
	.loc	51 258 24 is_stmt 1
	callq	__ZN3std2io5error14repr_bitpacked14kind_from_prim17hdd8a688790168b3bE
Ltmp899:
	movb	%al, -281(%rbp)
	jmp	LBB65_13
Ltmp912:
LBB65_5:
	.loc	51 0 24 is_stmt 0
	movq	-264(%rbp), %rax
	movq	-272(%rbp), %rcx
	.loc	51 270 58 is_stmt 1
	movq	%rcx, -40(%rbp)
Ltmp913:
	.loc	32 450 41
	movq	%rcx, -32(%rbp)
	movq	%rcx, -24(%rbp)
Ltmp914:
	.loc	32 201 13
	movq	%rcx, -224(%rbp)
Ltmp915:
	.loc	32 326 9
	movq	-224(%rbp), %rcx
Ltmp916:
	.loc	51 270 31
	movq	%rcx, 8(%rax)
	movb	$2, (%rax)
	.loc	51 270 94 is_stmt 0
	jmp	LBB65_12
LBB65_6:
	.loc	51 0 94
	movq	-272(%rbp), %rax
	.loc	51 275 26 is_stmt 1
	movq	%rax, -120(%rbp)
Ltmp917:
	.loc	32 326 9
	movq	%rax, -112(%rbp)
Ltmp918:
	.loc	4 1300 9
	movq	%rax, -104(%rbp)
Ltmp919:
	.loc	4 60 9
	movq	%rax, -96(%rbp)
Ltmp920:
	.loc	4 1282 9
	movq	%rax, -88(%rbp)
Ltmp921:
	.loc	4 568 18
	addq	$-1, %rax
	movq	%rax, -80(%rbp)
	movq	-80(%rbp), %rax
	movq	%rax, -296(%rbp)
	jmp	LBB65_10
Ltmp922:
LBB65_7:
	.loc	51 283 1
	testb	$1, -201(%rbp)
	jne	LBB65_19
	jmp	LBB65_18
LBB65_8:
Ltmp904:
	.loc	51 0 1 is_stmt 0
	movq	%rax, %rcx
	movl	%edx, %eax
	movq	%rcx, -136(%rbp)
	movl	%eax, -128(%rbp)
	jmp	LBB65_7
LBB65_9:
	ud2
LBB65_10:
	movq	-296(%rbp), %rax
Ltmp923:
	.loc	4 568 18 is_stmt 1
	movq	%rax, -72(%rbp)
Ltmp924:
	.loc	4 99 33
	movq	%rax, -64(%rbp)
Ltmp925:
	.loc	5 135 36
	movq	%rax, -192(%rbp)
	.loc	5 135 14 is_stmt 0
	movq	-192(%rbp), %rax
	movq	%rax, -200(%rbp)
	movq	-200(%rbp), %rax
	movq	%rax, -56(%rbp)
Ltmp926:
	.loc	4 60 9 is_stmt 1
	movq	%rax, -48(%rbp)
Ltmp927:
	.loc	51 276 31
	movb	$0, -201(%rbp)
	movq	%rax, -216(%rbp)
	movq	-216(%rbp), %rdi
Ltmp896:
	callq	__ZN3std2io5error14repr_bitpacked4Repr4data28_$u7b$$u7b$closure$u7d$$u7d$17h0e8dc659bb19ca25E
Ltmp897:
	movq	%rax, -304(%rbp)
	jmp	LBB65_11
LBB65_11:
	.loc	51 0 31 is_stmt 0
	movq	-264(%rbp), %rax
	movq	-304(%rbp), %rcx
	.loc	51 276 13
	movq	%rcx, 8(%rax)
	movb	$3, (%rax)
Ltmp928:
LBB65_12:
	.loc	51 283 1 is_stmt 1
	testb	$1, -201(%rbp)
	jne	LBB65_21
	jmp	LBB65_20
LBB65_13:
	.loc	51 0 1 is_stmt 0
	movb	-281(%rbp), %al
Ltmp929:
	.loc	51 258 24 is_stmt 1
	movb	%al, -233(%rbp)
	.loc	51 258 65 is_stmt 0
	leaq	-248(%rbp), %rax
	movq	%rax, -232(%rbp)
Ltmp930:
	.loc	23 871 15 is_stmt 1
	movl	$1, %eax
	xorl	%ecx, %ecx
	cmpb	$41, -233(%rbp)
	cmoveq	%rcx, %rax
	.loc	23 871 9 is_stmt 0
	cmpq	$0, %rax
	jne	LBB65_15
	.loc	23 873 21 is_stmt 1
	movq	-232(%rbp), %rdi
Ltmp900:
	callq	__ZN3std2io5error14repr_bitpacked11decode_repr28_$u7b$$u7b$closure$u7d$$u7d$17h37354fc03e914cc7E
Ltmp901:
	movb	%al, -305(%rbp)
	jmp	LBB65_17
LBB65_15:
	.loc	23 872 18
	movb	-233(%rbp), %al
	movb	%al, -5(%rbp)
Ltmp931:
	.loc	23 872 24 is_stmt 0
	movb	%al, -234(%rbp)
Ltmp932:
LBB65_16:
	.loc	23 0 24
	movq	-264(%rbp), %rax
Ltmp933:
	.loc	51 268 31 is_stmt 1
	movb	-234(%rbp), %cl
	.loc	51 268 13 is_stmt 0
	movb	%cl, 1(%rax)
	movb	$1, (%rax)
Ltmp934:
	.loc	51 269 9 is_stmt 1
	jmp	LBB65_12
LBB65_17:
	.loc	51 0 9 is_stmt 0
	movb	-305(%rbp), %al
Ltmp935:
	.loc	23 873 21 is_stmt 1
	movb	%al, -234(%rbp)
	.loc	23 873 23 is_stmt 0
	jmp	LBB65_16
Ltmp936:
LBB65_18:
	.loc	51 246 1 is_stmt 1
	movq	-136(%rbp), %rdi
	callq	__Unwind_Resume
LBB65_19:
	.loc	51 283 1
	jmp	LBB65_18
LBB65_20:
	.loc	51 0 1 is_stmt 0
	movq	-256(%rbp), %rax
	.loc	51 283 2
	addq	$320, %rsp
	popq	%rbp
	retq
LBB65_21:
	.loc	51 283 1
	jmp	LBB65_20
Ltmp937:
Lfunc_end65:
	.cfi_endproc
	.p2align	2, 0x90
	.data_region jt32
.set L65_0_set_5, LBB65_5-LJTI65_0
.set L65_0_set_6, LBB65_6-LJTI65_0
.set L65_0_set_3, LBB65_3-LJTI65_0
.set L65_0_set_4, LBB65_4-LJTI65_0
LJTI65_0:
	.long	L65_0_set_5
	.long	L65_0_set_6
	.long	L65_0_set_3
	.long	L65_0_set_4
	.end_data_region
	.section	__TEXT,__gcc_except_tab
	.p2align	2
GCC_except_table65:
Lexception19:
	.byte	255
	.byte	255
	.byte	1
	.uleb128 Lcst_end19-Lcst_begin19
Lcst_begin19:
	.uleb128 Ltmp902-Lfunc_begin65
	.uleb128 Ltmp901-Ltmp902
	.uleb128 Ltmp904-Lfunc_begin65
	.byte	0
	.uleb128 Ltmp901-Lfunc_begin65
	.uleb128 Lfunc_end65-Ltmp901
	.byte	0
	.byte	0
Lcst_end19:
	.p2align	2

	.section	__TEXT,__text,regular,pure_instructions
	.globl	__ZN3std2io5error14repr_bitpacked11decode_repr28_$u7b$$u7b$closure$u7d$$u7d$17h37354fc03e914cc7E
	.p2align	4, 0x90
__ZN3std2io5error14repr_bitpacked11decode_repr28_$u7b$$u7b$closure$u7d$$u7d$17h37354fc03e914cc7E:
Lfunc_begin66:
	.loc	51 258 0 is_stmt 1
	.cfi_startproc
	pushq	%rbp
	.cfi_def_cfa_offset 16
	.cfi_offset %rbp, -16
	movq	%rsp, %rbp
	.cfi_def_cfa_register %rbp
	subq	$16, %rsp
	movq	%rdi, -16(%rbp)
Ltmp938:
	.loc	51 266 17 prologue_end
	callq	__ZN4core4hint21unreachable_unchecked17hc91bade5f399bc68E
Ltmp939:
Lfunc_end66:
	.cfi_endproc

	.globl	__ZN3std2io5error14repr_bitpacked11decode_repr28_$u7b$$u7b$closure$u7d$$u7d$17hc7e257f46427fc91E
	.p2align	4, 0x90
__ZN3std2io5error14repr_bitpacked11decode_repr28_$u7b$$u7b$closure$u7d$$u7d$17hc7e257f46427fc91E:
Lfunc_begin67:
	.loc	51 258 0
	.cfi_startproc
	pushq	%rbp
	.cfi_def_cfa_offset 16
	.cfi_offset %rbp, -16
	movq	%rsp, %rbp
	.cfi_def_cfa_register %rbp
	subq	$16, %rsp
	movq	%rdi, -16(%rbp)
Ltmp940:
	.loc	51 266 17 prologue_end
	callq	__ZN4core4hint21unreachable_unchecked17hc91bade5f399bc68E
Ltmp941:
Lfunc_end67:
	.cfi_endproc

	.p2align	4, 0x90
__ZN3std2io5error14repr_bitpacked14kind_from_prim17hdd8a688790168b3bE:
Lfunc_begin68:
	.loc	51 289 0
	.cfi_startproc
	pushq	%rbp
	.cfi_def_cfa_offset 16
	.cfi_offset %rbp, -16
	movq	%rsp, %rbp
	.cfi_def_cfa_register %rbp
	subq	$336, %rsp
	movl	%edi, -336(%rbp)
Ltmp942:
	.loc	51 302 5 prologue_end
	leaq	-336(%rbp), %rax
	movq	%rax, -328(%rbp)
	cmpl	$0, -336(%rbp)
	je	LBB68_2
	leaq	-336(%rbp), %rax
	movq	%rax, -320(%rbp)
	cmpl	$1, -336(%rbp)
	je	LBB68_5
	jmp	LBB68_4
LBB68_2:
Ltmp943:
	.loc	51 302 5 is_stmt 0
	movb	$0, -329(%rbp)
Ltmp944:
LBB68_3:
	.loc	51 345 2 is_stmt 1
	movb	-329(%rbp), %al
	addq	$336, %rsp
	popq	%rbp
	retq
LBB68_4:
	.loc	51 302 5
	leaq	-336(%rbp), %rax
	movq	%rax, -312(%rbp)
	cmpl	$2, -336(%rbp)
	je	LBB68_7
	jmp	LBB68_6
LBB68_5:
Ltmp945:
	.loc	51 302 5 is_stmt 0
	movb	$1, -329(%rbp)
Ltmp946:
	.loc	51 302 5
	jmp	LBB68_3
LBB68_6:
	leaq	-336(%rbp), %rax
	movq	%rax, -304(%rbp)
	cmpl	$3, -336(%rbp)
	je	LBB68_9
	jmp	LBB68_8
LBB68_7:
Ltmp947:
	.loc	51 302 5
	movb	$2, -329(%rbp)
Ltmp948:
	.loc	51 302 5
	jmp	LBB68_3
LBB68_8:
	leaq	-336(%rbp), %rax
	movq	%rax, -296(%rbp)
	cmpl	$4, -336(%rbp)
	je	LBB68_11
	jmp	LBB68_10
LBB68_9:
Ltmp949:
	.loc	51 302 5
	movb	$3, -329(%rbp)
Ltmp950:
	.loc	51 302 5
	jmp	LBB68_3
LBB68_10:
	leaq	-336(%rbp), %rax
	movq	%rax, -288(%rbp)
	cmpl	$5, -336(%rbp)
	je	LBB68_13
	jmp	LBB68_12
LBB68_11:
Ltmp951:
	.loc	51 302 5
	movb	$4, -329(%rbp)
Ltmp952:
	.loc	51 302 5
	jmp	LBB68_3
LBB68_12:
	leaq	-336(%rbp), %rax
	movq	%rax, -280(%rbp)
	cmpl	$6, -336(%rbp)
	je	LBB68_15
	jmp	LBB68_14
LBB68_13:
Ltmp953:
	.loc	51 302 5
	movb	$5, -329(%rbp)
Ltmp954:
	.loc	51 302 5
	jmp	LBB68_3
LBB68_14:
	leaq	-336(%rbp), %rax
	movq	%rax, -272(%rbp)
	cmpl	$7, -336(%rbp)
	je	LBB68_17
	jmp	LBB68_16
LBB68_15:
Ltmp955:
	.loc	51 302 5
	movb	$6, -329(%rbp)
Ltmp956:
	.loc	51 302 5
	jmp	LBB68_3
LBB68_16:
	leaq	-336(%rbp), %rax
	movq	%rax, -264(%rbp)
	cmpl	$8, -336(%rbp)
	je	LBB68_19
	jmp	LBB68_18
LBB68_17:
Ltmp957:
	.loc	51 302 5
	movb	$7, -329(%rbp)
Ltmp958:
	.loc	51 302 5
	jmp	LBB68_3
LBB68_18:
	leaq	-336(%rbp), %rax
	movq	%rax, -256(%rbp)
	cmpl	$9, -336(%rbp)
	je	LBB68_21
	jmp	LBB68_20
LBB68_19:
Ltmp959:
	.loc	51 302 5
	movb	$8, -329(%rbp)
Ltmp960:
	.loc	51 302 5
	jmp	LBB68_3
LBB68_20:
	leaq	-336(%rbp), %rax
	movq	%rax, -248(%rbp)
	cmpl	$10, -336(%rbp)
	je	LBB68_23
	jmp	LBB68_22
LBB68_21:
Ltmp961:
	.loc	51 302 5
	movb	$9, -329(%rbp)
Ltmp962:
	.loc	51 302 5
	jmp	LBB68_3
LBB68_22:
	leaq	-336(%rbp), %rax
	movq	%rax, -240(%rbp)
	cmpl	$11, -336(%rbp)
	je	LBB68_25
	jmp	LBB68_24
LBB68_23:
Ltmp963:
	.loc	51 302 5
	movb	$10, -329(%rbp)
Ltmp964:
	.loc	51 302 5
	jmp	LBB68_3
LBB68_24:
	leaq	-336(%rbp), %rax
	movq	%rax, -232(%rbp)
	cmpl	$12, -336(%rbp)
	je	LBB68_27
	jmp	LBB68_26
LBB68_25:
Ltmp965:
	.loc	51 302 5
	movb	$11, -329(%rbp)
Ltmp966:
	.loc	51 302 5
	jmp	LBB68_3
LBB68_26:
	leaq	-336(%rbp), %rax
	movq	%rax, -224(%rbp)
	cmpl	$13, -336(%rbp)
	je	LBB68_29
	jmp	LBB68_28
LBB68_27:
Ltmp967:
	.loc	51 302 5
	movb	$12, -329(%rbp)
Ltmp968:
	.loc	51 302 5
	jmp	LBB68_3
LBB68_28:
	leaq	-336(%rbp), %rax
	movq	%rax, -216(%rbp)
	cmpl	$14, -336(%rbp)
	je	LBB68_31
	jmp	LBB68_30
LBB68_29:
Ltmp969:
	.loc	51 302 5
	movb	$13, -329(%rbp)
Ltmp970:
	.loc	51 302 5
	jmp	LBB68_3
LBB68_30:
	leaq	-336(%rbp), %rax
	movq	%rax, -208(%rbp)
	cmpl	$15, -336(%rbp)
	je	LBB68_33
	jmp	LBB68_32
LBB68_31:
Ltmp971:
	.loc	51 302 5
	movb	$14, -329(%rbp)
Ltmp972:
	.loc	51 302 5
	jmp	LBB68_3
LBB68_32:
	leaq	-336(%rbp), %rax
	movq	%rax, -200(%rbp)
	cmpl	$16, -336(%rbp)
	je	LBB68_35
	jmp	LBB68_34
LBB68_33:
Ltmp973:
	.loc	51 302 5
	movb	$15, -329(%rbp)
Ltmp974:
	.loc	51 302 5
	jmp	LBB68_3
LBB68_34:
	leaq	-336(%rbp), %rax
	movq	%rax, -192(%rbp)
	cmpl	$17, -336(%rbp)
	je	LBB68_37
	jmp	LBB68_36
LBB68_35:
Ltmp975:
	.loc	51 302 5
	movb	$16, -329(%rbp)
Ltmp976:
	.loc	51 302 5
	jmp	LBB68_3
LBB68_36:
	leaq	-336(%rbp), %rax
	movq	%rax, -184(%rbp)
	cmpl	$18, -336(%rbp)
	je	LBB68_39
	jmp	LBB68_38
LBB68_37:
Ltmp977:
	.loc	51 302 5
	movb	$17, -329(%rbp)
Ltmp978:
	.loc	51 302 5
	jmp	LBB68_3
LBB68_38:
	leaq	-336(%rbp), %rax
	movq	%rax, -176(%rbp)
	cmpl	$19, -336(%rbp)
	je	LBB68_41
	jmp	LBB68_40
LBB68_39:
Ltmp979:
	.loc	51 302 5
	movb	$18, -329(%rbp)
Ltmp980:
	.loc	51 302 5
	jmp	LBB68_3
LBB68_40:
	leaq	-336(%rbp), %rax
	movq	%rax, -168(%rbp)
	cmpl	$20, -336(%rbp)
	je	LBB68_43
	jmp	LBB68_42
LBB68_41:
Ltmp981:
	.loc	51 302 5
	movb	$19, -329(%rbp)
Ltmp982:
	.loc	51 302 5
	jmp	LBB68_3
LBB68_42:
	leaq	-336(%rbp), %rax
	movq	%rax, -160(%rbp)
	cmpl	$21, -336(%rbp)
	je	LBB68_45
	jmp	LBB68_44
LBB68_43:
Ltmp983:
	.loc	51 302 5
	movb	$20, -329(%rbp)
Ltmp984:
	.loc	51 302 5
	jmp	LBB68_3
LBB68_44:
	leaq	-336(%rbp), %rax
	movq	%rax, -152(%rbp)
	cmpl	$22, -336(%rbp)
	je	LBB68_47
	jmp	LBB68_46
LBB68_45:
Ltmp985:
	.loc	51 302 5
	movb	$21, -329(%rbp)
Ltmp986:
	.loc	51 302 5
	jmp	LBB68_3
LBB68_46:
	leaq	-336(%rbp), %rax
	movq	%rax, -144(%rbp)
	cmpl	$23, -336(%rbp)
	je	LBB68_49
	jmp	LBB68_48
LBB68_47:
Ltmp987:
	.loc	51 302 5
	movb	$22, -329(%rbp)
Ltmp988:
	.loc	51 302 5
	jmp	LBB68_3
LBB68_48:
	leaq	-336(%rbp), %rax
	movq	%rax, -136(%rbp)
	cmpl	$24, -336(%rbp)
	je	LBB68_51
	jmp	LBB68_50
LBB68_49:
Ltmp989:
	.loc	51 302 5
	movb	$23, -329(%rbp)
Ltmp990:
	.loc	51 302 5
	jmp	LBB68_3
LBB68_50:
	leaq	-336(%rbp), %rax
	movq	%rax, -128(%rbp)
	cmpl	$25, -336(%rbp)
	je	LBB68_53
	jmp	LBB68_52
LBB68_51:
Ltmp991:
	.loc	51 302 5
	movb	$24, -329(%rbp)
Ltmp992:
	.loc	51 302 5
	jmp	LBB68_3
LBB68_52:
	leaq	-336(%rbp), %rax
	movq	%rax, -120(%rbp)
	cmpl	$26, -336(%rbp)
	je	LBB68_55
	jmp	LBB68_54
LBB68_53:
Ltmp993:
	.loc	51 302 5
	movb	$25, -329(%rbp)
Ltmp994:
	.loc	51 302 5
	jmp	LBB68_3
LBB68_54:
	leaq	-336(%rbp), %rax
	movq	%rax, -112(%rbp)
	cmpl	$27, -336(%rbp)
	je	LBB68_57
	jmp	LBB68_56
LBB68_55:
Ltmp995:
	.loc	51 302 5
	movb	$26, -329(%rbp)
Ltmp996:
	.loc	51 302 5
	jmp	LBB68_3
LBB68_56:
	leaq	-336(%rbp), %rax
	movq	%rax, -104(%rbp)
	cmpl	$28, -336(%rbp)
	je	LBB68_59
	jmp	LBB68_58
LBB68_57:
Ltmp997:
	.loc	51 302 5
	movb	$27, -329(%rbp)
Ltmp998:
	.loc	51 302 5
	jmp	LBB68_3
LBB68_58:
	leaq	-336(%rbp), %rax
	movq	%rax, -96(%rbp)
	cmpl	$29, -336(%rbp)
	je	LBB68_61
	jmp	LBB68_60
LBB68_59:
Ltmp999:
	.loc	51 302 5
	movb	$28, -329(%rbp)
Ltmp1000:
	.loc	51 302 5
	jmp	LBB68_3
LBB68_60:
	leaq	-336(%rbp), %rax
	movq	%rax, -88(%rbp)
	cmpl	$30, -336(%rbp)
	je	LBB68_63
	jmp	LBB68_62
LBB68_61:
Ltmp1001:
	.loc	51 302 5
	movb	$29, -329(%rbp)
Ltmp1002:
	.loc	51 302 5
	jmp	LBB68_3
LBB68_62:
	leaq	-336(%rbp), %rax
	movq	%rax, -80(%rbp)
	cmpl	$31, -336(%rbp)
	je	LBB68_65
	jmp	LBB68_64
LBB68_63:
Ltmp1003:
	.loc	51 302 5
	movb	$30, -329(%rbp)
Ltmp1004:
	.loc	51 302 5
	jmp	LBB68_3
LBB68_64:
	leaq	-336(%rbp), %rax
	movq	%rax, -72(%rbp)
	cmpl	$32, -336(%rbp)
	je	LBB68_67
	jmp	LBB68_66
LBB68_65:
Ltmp1005:
	.loc	51 302 5
	movb	$31, -329(%rbp)
Ltmp1006:
	.loc	51 302 5
	jmp	LBB68_3
LBB68_66:
	leaq	-336(%rbp), %rax
	movq	%rax, -64(%rbp)
	cmpl	$33, -336(%rbp)
	je	LBB68_69
	jmp	LBB68_68
LBB68_67:
Ltmp1007:
	.loc	51 302 5
	movb	$32, -329(%rbp)
Ltmp1008:
	.loc	51 302 5
	jmp	LBB68_3
LBB68_68:
	leaq	-336(%rbp), %rax
	movq	%rax, -56(%rbp)
	cmpl	$34, -336(%rbp)
	je	LBB68_71
	jmp	LBB68_70
LBB68_69:
Ltmp1009:
	.loc	51 302 5
	movb	$33, -329(%rbp)
Ltmp1010:
	.loc	51 302 5
	jmp	LBB68_3
LBB68_70:
	leaq	-336(%rbp), %rax
	movq	%rax, -48(%rbp)
	cmpl	$35, -336(%rbp)
	je	LBB68_73
	jmp	LBB68_72
LBB68_71:
Ltmp1011:
	.loc	51 302 5
	movb	$34, -329(%rbp)
Ltmp1012:
	.loc	51 302 5
	jmp	LBB68_3
LBB68_72:
	leaq	-336(%rbp), %rax
	movq	%rax, -40(%rbp)
	cmpl	$39, -336(%rbp)
	je	LBB68_75
	jmp	LBB68_74
LBB68_73:
Ltmp1013:
	.loc	51 302 5
	movb	$35, -329(%rbp)
Ltmp1014:
	.loc	51 302 5
	jmp	LBB68_3
LBB68_74:
	leaq	-336(%rbp), %rax
	movq	%rax, -32(%rbp)
	cmpl	$37, -336(%rbp)
	je	LBB68_77
	jmp	LBB68_76
LBB68_75:
Ltmp1015:
	.loc	51 302 5
	movb	$39, -329(%rbp)
Ltmp1016:
	.loc	51 302 5
	jmp	LBB68_3
LBB68_76:
	leaq	-336(%rbp), %rax
	movq	%rax, -24(%rbp)
	cmpl	$36, -336(%rbp)
	je	LBB68_79
	jmp	LBB68_78
LBB68_77:
Ltmp1017:
	.loc	51 302 5
	movb	$37, -329(%rbp)
Ltmp1018:
	.loc	51 302 5
	jmp	LBB68_3
LBB68_78:
	leaq	-336(%rbp), %rax
	movq	%rax, -16(%rbp)
	cmpl	$38, -336(%rbp)
	je	LBB68_81
	jmp	LBB68_80
LBB68_79:
Ltmp1019:
	.loc	51 302 5
	movb	$36, -329(%rbp)
Ltmp1020:
	.loc	51 302 5
	jmp	LBB68_3
LBB68_80:
	leaq	-336(%rbp), %rax
	movq	%rax, -8(%rbp)
	cmpl	$40, -336(%rbp)
	je	LBB68_83
	jmp	LBB68_82
LBB68_81:
Ltmp1021:
	.loc	51 302 5
	movb	$38, -329(%rbp)
Ltmp1022:
	.loc	51 302 5
	jmp	LBB68_3
LBB68_82:
	movb	$41, -329(%rbp)
	jmp	LBB68_3
LBB68_83:
Ltmp1023:
	.loc	51 302 5
	movb	$40, -329(%rbp)
Ltmp1024:
	.loc	51 302 5
	jmp	LBB68_3
Ltmp1025:
Lfunc_end68:
	.cfi_endproc

	.globl	__ZN3std2io5error14repr_bitpacked4Repr4data28_$u7b$$u7b$closure$u7d$$u7d$17h0e8dc659bb19ca25E
	.p2align	4, 0x90
__ZN3std2io5error14repr_bitpacked4Repr4data28_$u7b$$u7b$closure$u7d$$u7d$17h0e8dc659bb19ca25E:
Lfunc_begin69:
	.loc	51 212 0 is_stmt 1
	.cfi_startproc
	pushq	%rbp
	.cfi_def_cfa_offset 16
	.cfi_offset %rbp, -16
	movq	%rsp, %rbp
	.cfi_def_cfa_register %rbp
	subq	$16, %rsp
	movq	%rdi, %rax
	movq	%rax, -8(%rbp)
Ltmp1026:
	.loc	51 212 45 prologue_end
	addq	$16, %rsp
	popq	%rbp
	retq
Ltmp1027:
Lfunc_end69:
	.cfi_endproc

	.globl	__ZN3std2io5error5Error3new17h6df237f1296f7fb3E
	.p2align	4, 0x90
__ZN3std2io5error5Error3new17h6df237f1296f7fb3E:
Lfunc_begin70:
	.loc	50 504 0
	.cfi_startproc
	pushq	%rbp
	.cfi_def_cfa_offset 16
	.cfi_offset %rbp, -16
	movq	%rsp, %rbp
	.cfi_def_cfa_register %rbp
	subq	$48, %rsp
	movq	%rdx, -40(%rbp)
	movq	%rsi, %rax
	movq	-40(%rbp), %rsi
	movq	%rax, -32(%rbp)
	movl	%edi, %eax
	movq	-32(%rbp), %rdi
	movb	%al, -18(%rbp)
	movb	%al, -17(%rbp)
	movq	%rdi, -16(%rbp)
	movq	%rsi, -8(%rbp)
Ltmp1028:
	.loc	50 508 26 prologue_end
	callq	__ZN50_$LT$T$u20$as$u20$core..convert..Into$LT$U$GT$$GT$4into17ha5da972d36e95964E
	movq	%rax, %rsi
	movb	-18(%rbp), %al
	.loc	50 508 9 is_stmt 0
	movzbl	%al, %edi
	callq	__ZN3std2io5error5Error4_new17h9d67976371b8512fE
	.loc	50 509 6 is_stmt 1
	addq	$48, %rsp
	popq	%rbp
	retq
Ltmp1029:
Lfunc_end70:
	.cfi_endproc

	.p2align	4, 0x90
__ZN3std2io5error5Error4kind17h70721337c4ddbfc9E:
Lfunc_begin71:
	.loc	50 893 0
	.cfi_startproc
	pushq	%rbp
	.cfi_def_cfa_offset 16
	.cfi_offset %rbp, -16
	movq	%rsp, %rbp
	.cfi_def_cfa_register %rbp
	subq	$80, %rsp
	movq	%rdi, -40(%rbp)
Ltmp1030:
	.loc	50 894 15 prologue_end
	movq	%rdi, -32(%rbp)
Ltmp1031:
	.loc	51 212 30
	movq	(%rdi), %rsi
	leaq	-56(%rbp), %rdi
	.loc	51 212 18 is_stmt 0
	callq	__ZN3std2io5error14repr_bitpacked11decode_repr17h96edd78ec2958b3eE
Ltmp1032:
	.loc	50 894 15 is_stmt 1
	movzbl	-56(%rbp), %eax
	movq	%rax, -72(%rbp)
	.loc	50 0 15 is_stmt 0
	movq	-72(%rbp), %rax
	leaq	LJTI71_0(%rip), %rcx
	movslq	(%rcx,%rax,4), %rax
	addq	%rcx, %rax
	jmpq	*%rax
	.loc	50 894 15
	ud2
LBB71_2:
	.loc	50 895 27 is_stmt 1
	movl	-52(%rbp), %edi
	movl	%edi, -4(%rbp)
Ltmp1033:
	.loc	50 895 36 is_stmt 0
	callq	__ZN3std3sys4unix17decode_error_kind17h50ab8511eed7ed72E
	movb	%al, -57(%rbp)
Ltmp1034:
	.loc	50 895 63
	jmp	LBB71_6
LBB71_3:
	.loc	50 897 31 is_stmt 1
	movb	-55(%rbp), %al
	movb	%al, -5(%rbp)
Ltmp1035:
	.loc	50 897 40 is_stmt 0
	movb	%al, -57(%rbp)
Ltmp1036:
	.loc	50 897 43
	jmp	LBB71_6
LBB71_4:
	.loc	50 898 38 is_stmt 1
	movq	-48(%rbp), %rax
	movq	%rax, -16(%rbp)
Ltmp1037:
	.loc	50 898 44 is_stmt 0
	movb	16(%rax), %al
	movb	%al, -57(%rbp)
Ltmp1038:
	.loc	50 898 49
	jmp	LBB71_6
LBB71_5:
	.loc	50 896 31 is_stmt 1
	movq	-48(%rbp), %rax
	movq	%rax, -24(%rbp)
Ltmp1039:
	.loc	50 896 37 is_stmt 0
	movb	16(%rax), %al
	movb	%al, -57(%rbp)
Ltmp1040:
LBB71_6:
	.loc	50 900 6 is_stmt 1
	movb	-57(%rbp), %al
	addq	$80, %rsp
	popq	%rbp
	retq
Ltmp1041:
Lfunc_end71:
	.cfi_endproc
	.p2align	2, 0x90
	.data_region jt32
.set L71_0_set_2, LBB71_2-LJTI71_0
.set L71_0_set_3, LBB71_3-LJTI71_0
.set L71_0_set_4, LBB71_4-LJTI71_0
.set L71_0_set_5, LBB71_5-LJTI71_0
LJTI71_0:
	.long	L71_0_set_2
	.long	L71_0_set_3
	.long	L71_0_set_4
	.long	L71_0_set_5
	.end_data_region

	.globl	__ZN3std5panic12catch_unwind17h1b58f526da81b724E
	.p2align	4, 0x90
__ZN3std5panic12catch_unwind17h1b58f526da81b724E:
Lfunc_begin72:
	.file	53 "/rustc/2c8cc343237b8f7d5a3c3703e3a87f2eb2c54a74/library/std/src" "panic.rs"
	.loc	53 139 0
	.cfi_startproc
	pushq	%rbp
	.cfi_def_cfa_offset 16
	.cfi_offset %rbp, -16
	movq	%rsp, %rbp
	.cfi_def_cfa_register %rbp
	subq	$16, %rsp
	movq	%rdi, -8(%rbp)
Ltmp1042:
	.loc	53 140 14 prologue_end
	callq	__ZN3std9panicking3try17hcc59c013fad93615E
	.loc	53 141 2
	addq	$16, %rsp
	popq	%rbp
	retq
Ltmp1043:
Lfunc_end72:
	.cfi_endproc

	.globl	__ZN3std6thread5local17LocalKey$LT$T$GT$4with17h1bbabf5c9aace039E
	.p2align	4, 0x90
__ZN3std6thread5local17LocalKey$LT$T$GT$4with17h1bbabf5c9aace039E:
Lfunc_begin73:
	.loc	47 418 0
	.cfi_startproc
	pushq	%rbp
	.cfi_def_cfa_offset 16
	.cfi_offset %rbp, -16
	movq	%rsp, %rbp
	.cfi_def_cfa_register %rbp
	subq	$48, %rsp
	movq	%rdi, %rsi
	movq	%rsi, -16(%rbp)
	leaq	-40(%rbp), %rdi
	movq	%rdi, -48(%rbp)
Ltmp1044:
	.loc	47 422 9 prologue_end
	callq	__ZN3std6thread5local17LocalKey$LT$T$GT$8try_with17hf5069c2b2dbeb5b5E
	movq	-48(%rbp), %rdi
	leaq	l___unnamed_53(%rip), %rsi
	leaq	l___unnamed_54(%rip), %rcx
	movl	$70, %edx
	callq	__ZN4core6result19Result$LT$T$C$E$GT$6expect17h0f9ecffae33d1051E
	.loc	47 426 6
	addq	$48, %rsp
	popq	%rbp
	retq
Ltmp1045:
Lfunc_end73:
	.cfi_endproc

	.globl	__ZN3std6thread5local17LocalKey$LT$T$GT$8try_with17hf5069c2b2dbeb5b5E
	.p2align	4, 0x90
__ZN3std6thread5local17LocalKey$LT$T$GT$8try_with17hf5069c2b2dbeb5b5E:
Lfunc_begin74:
	.loc	47 440 0
	.cfi_startproc
	.cfi_personality 155, _rust_eh_personality
	.cfi_lsda 16, Lexception20
	pushq	%rbp
	.cfi_def_cfa_offset 16
	.cfi_offset %rbp, -16
	movq	%rsp, %rbp
	.cfi_def_cfa_register %rbp
	subq	$208, %rsp
	movq	%rdi, -184(%rbp)
	movq	%rdi, -176(%rbp)
	movq	%rsi, -112(%rbp)
Ltmp1051:
	.loc	47 445 17 prologue_end
	movb	$1, -113(%rbp)
	.loc	47 445 32 is_stmt 0
	movq	(%rsi), %rax
	.loc	47 445 45
	movq	$0, -136(%rbp)
	.loc	47 445 32
	movq	-136(%rbp), %rdi
Ltmp1046:
	callq	*%rax
Ltmp1047:
	movq	%rax, -168(%rbp)
	jmp	LBB74_3
LBB74_1:
	.loc	47 448 5 is_stmt 1
	testb	$1, -113(%rbp)
	jne	LBB74_15
	jmp	LBB74_14
LBB74_2:
Ltmp1050:
	.loc	47 0 5 is_stmt 0
	movq	%rax, %rcx
	movl	%edx, %eax
	movq	%rcx, -48(%rbp)
	movl	%eax, -40(%rbp)
	jmp	LBB74_1
LBB74_3:
	movq	-168(%rbp), %rax
	.loc	47 445 32 is_stmt 1
	movq	%rax, -144(%rbp)
Ltmp1052:
	.loc	23 1096 15
	movq	-144(%rbp), %rdx
	movl	$1, %eax
	xorl	%ecx, %ecx
	cmpq	$0, %rdx
	cmoveq	%rcx, %rax
	.loc	23 1096 9 is_stmt 0
	cmpq	$0, %rax
	jne	LBB74_5
	.loc	23 1098 21 is_stmt 1
	movq	$0, -152(%rbp)
	.loc	23 1098 28 is_stmt 0
	jmp	LBB74_6
LBB74_5:
	.loc	23 1097 18 is_stmt 1
	movq	-144(%rbp), %rax
	movq	%rax, -32(%rbp)
Ltmp1053:
	.loc	23 1097 24 is_stmt 0
	movq	%rax, -152(%rbp)
Ltmp1054:
LBB74_6:
	.loc	41 2091 15 is_stmt 1
	movq	-152(%rbp), %rdx
	xorl	%eax, %eax
	movl	$1, %ecx
	cmpq	$0, %rdx
	cmoveq	%rcx, %rax
	.loc	41 2091 9 is_stmt 0
	cmpq	$0, %rax
	jne	LBB74_8
	.loc	41 2092 16 is_stmt 1
	movq	-152(%rbp), %rax
	movq	%rax, -24(%rbp)
Ltmp1055:
	.loc	41 2092 22 is_stmt 0
	movq	%rax, -160(%rbp)
Ltmp1056:
	.loc	41 2092 45
	jmp	LBB74_9
LBB74_8:
Ltmp1057:
	.loc	41 2093 23 is_stmt 1
	movq	$0, -160(%rbp)
Ltmp1058:
LBB74_9:
	.loc	47 445 32
	movq	-160(%rbp), %rdx
	xorl	%eax, %eax
	movl	$1, %ecx
	cmpq	$0, %rdx
	cmoveq	%rcx, %rax
	cmpq	$0, %rax
	jne	LBB74_11
	movq	-160(%rbp), %rax
	movq	%rax, -16(%rbp)
Ltmp1059:
	.loc	47 445 32 is_stmt 0
	movq	%rax, -8(%rbp)
Ltmp1060:
	.loc	47 446 16 is_stmt 1
	movb	$0, -113(%rbp)
	movq	%rax, -128(%rbp)
	movq	-128(%rbp), %rdi
Ltmp1048:
	callq	__ZN3std11collections4hash3map11RandomState3new28_$u7b$$u7b$closure$u7d$$u7d$17hc003ec155a169866E
Ltmp1049:
	movq	%rdx, -200(%rbp)
	movq	%rax, -192(%rbp)
	jmp	LBB74_13
Ltmp1061:
LBB74_11:
	.loc	47 0 16 is_stmt 0
	movq	-184(%rbp), %rax
Ltmp1062:
	.loc	41 2107 23 is_stmt 1
	movq	$1, (%rax)
Ltmp1063:
LBB74_12:
	.loc	41 0 23 is_stmt 0
	movq	-176(%rbp), %rax
	.loc	47 448 6 is_stmt 1
	addq	$208, %rsp
	popq	%rbp
	retq
LBB74_13:
	.loc	47 0 6 is_stmt 0
	movq	-184(%rbp), %rax
	movq	-200(%rbp), %rcx
	movq	-192(%rbp), %rdx
Ltmp1064:
	.loc	47 446 13 is_stmt 1
	movq	%rdx, 8(%rax)
	movq	%rcx, 16(%rax)
	movq	$0, (%rax)
Ltmp1065:
	.loc	47 448 5
	jmp	LBB74_12
LBB74_14:
	.loc	47 440 5
	movq	-48(%rbp), %rdi
	callq	__Unwind_Resume
LBB74_15:
	.loc	47 448 5
	jmp	LBB74_14
Ltmp1066:
Lfunc_end74:
	.cfi_endproc
	.section	__TEXT,__gcc_except_tab
	.p2align	2
GCC_except_table74:
Lexception20:
	.byte	255
	.byte	255
	.byte	1
	.uleb128 Lcst_end20-Lcst_begin20
Lcst_begin20:
	.uleb128 Ltmp1046-Lfunc_begin74
	.uleb128 Ltmp1049-Ltmp1046
	.uleb128 Ltmp1050-Lfunc_begin74
	.byte	0
	.uleb128 Ltmp1049-Lfunc_begin74
	.uleb128 Lfunc_end74-Ltmp1049
	.byte	0
	.byte	0
Lcst_end20:
	.p2align	2

	.section	__TEXT,__text,regular,pure_instructions
	.globl	__ZN3std6thread5local4fast12Key$LT$T$GT$14try_initialize17h21358b363badd56eE
	.p2align	4, 0x90
__ZN3std6thread5local4fast12Key$LT$T$GT$14try_initialize17h21358b363badd56eE:
Lfunc_begin75:
	.loc	47 983 0
	.cfi_startproc
	.cfi_personality 155, _rust_eh_personality
	.cfi_lsda 16, Lexception21
	pushq	%rbp
	.cfi_def_cfa_offset 16
	.cfi_offset %rbp, -16
	movq	%rsp, %rbp
	.cfi_def_cfa_register %rbp
	subq	$96, %rsp
	movq	%rdi, -80(%rbp)
	movq	%rsi, -72(%rbp)
	movq	%rdi, -40(%rbp)
	movq	%rsi, -32(%rbp)
Ltmp1072:
	.loc	47 985 16 prologue_end
	movb	$1, -41(%rbp)
Ltmp1073:
	.loc	15 594 5
	movb	$0, -17(%rbp)
	movb	-17(%rbp), %al
	movb	%al, -57(%rbp)
Ltmp1074:
	.loc	15 0 5 is_stmt 0
	movb	-57(%rbp), %al
	.loc	47 985 16 is_stmt 1
	xorb	$-1, %al
	testb	$1, %al
	jne	LBB75_3
Ltmp1067:
	.loc	47 0 16 is_stmt 0
	movq	-80(%rbp), %rdi
	.loc	47 985 52
	callq	__ZN3std6thread5local4fast12Key$LT$T$GT$17try_register_dtor17h24e165869bb021d1E
Ltmp1068:
	movb	%al, -81(%rbp)
	jmp	LBB75_7
LBB75_3:
	.loc	47 985 16
	movb	$1, -42(%rbp)
LBB75_4:
	testb	$1, -42(%rbp)
	jne	LBB75_9
	jmp	LBB75_8
LBB75_5:
	.loc	47 991 9 is_stmt 1
	testb	$1, -41(%rbp)
	jne	LBB75_12
	jmp	LBB75_11
LBB75_6:
Ltmp1071:
	.loc	47 0 9 is_stmt 0
	movq	%rax, %rcx
	movl	%edx, %eax
	movq	%rcx, -16(%rbp)
	movl	%eax, -8(%rbp)
	jmp	LBB75_5
LBB75_7:
	movb	-81(%rbp), %al
	.loc	47 985 16 is_stmt 1
	andb	$1, %al
	movb	%al, -42(%rbp)
	jmp	LBB75_4
LBB75_8:
	.loc	47 989 17
	movq	$0, -56(%rbp)
	.loc	47 985 13
	jmp	LBB75_13
LBB75_9:
	.loc	47 0 13 is_stmt 0
	movq	-72(%rbp), %rsi
	movq	-80(%rbp), %rdi
	.loc	47 987 53 is_stmt 1
	movb	$0, -41(%rbp)
Ltmp1069:
	.loc	47 987 31 is_stmt 0
	callq	__ZN3std6thread5local4lazy21LazyKeyInner$LT$T$GT$10initialize17hdfc345a991c9dd29E
Ltmp1070:
	movq	%rax, -96(%rbp)
	jmp	LBB75_10
LBB75_10:
	.loc	47 0 31
	movq	-96(%rbp), %rax
	.loc	47 987 17
	movq	%rax, -56(%rbp)
	.loc	47 985 13 is_stmt 1
	jmp	LBB75_13
LBB75_11:
	.loc	47 983 9
	movq	-16(%rbp), %rdi
	callq	__Unwind_Resume
LBB75_12:
	.loc	47 991 9
	jmp	LBB75_11
LBB75_13:
	testb	$1, -41(%rbp)
	jne	LBB75_15
LBB75_14:
	.loc	47 991 10 is_stmt 0
	movq	-56(%rbp), %rax
	addq	$96, %rsp
	popq	%rbp
	retq
LBB75_15:
	.loc	47 991 9
	jmp	LBB75_14
Ltmp1075:
Lfunc_end75:
	.cfi_endproc
	.section	__TEXT,__gcc_except_tab
	.p2align	2
GCC_except_table75:
Lexception21:
	.byte	255
	.byte	255
	.byte	1
	.uleb128 Lcst_end21-Lcst_begin21
Lcst_begin21:
	.uleb128 Ltmp1067-Lfunc_begin75
	.uleb128 Ltmp1070-Ltmp1067
	.uleb128 Ltmp1071-Lfunc_begin75
	.byte	0
	.uleb128 Ltmp1070-Lfunc_begin75
	.uleb128 Lfunc_end75-Ltmp1070
	.byte	0
	.byte	0
Lcst_end21:
	.p2align	2

	.section	__TEXT,__text,regular,pure_instructions
	.globl	__ZN3std6thread5local4fast12Key$LT$T$GT$17try_register_dtor17h24e165869bb021d1E
	.p2align	4, 0x90
__ZN3std6thread5local4fast12Key$LT$T$GT$17try_register_dtor17h24e165869bb021d1E:
Lfunc_begin76:
	.loc	47 996 0 is_stmt 1
	.cfi_startproc
	pushq	%rbp
	.cfi_def_cfa_offset 16
	.cfi_offset %rbp, -16
	movq	%rsp, %rbp
	.cfi_def_cfa_register %rbp
	subq	$64, %rsp
	movq	%rdi, -64(%rbp)
	movq	%rdi, -40(%rbp)
Ltmp1076:
	.loc	47 997 19 prologue_end
	movq	%rdi, %rax
	addq	$24, %rax
	movq	%rax, -32(%rbp)
Ltmp1077:
	.loc	46 452 19
	movq	%rax, -24(%rbp)
	.loc	46 452 18 is_stmt 0
	movb	24(%rdi), %al
	movb	%al, -41(%rbp)
Ltmp1078:
	.loc	47 997 19 is_stmt 1
	movzbl	-41(%rbp), %eax
	movq	%rax, -56(%rbp)
	testq	%rax, %rax
	.loc	47 997 13 is_stmt 0
	je	LBB76_2
	jmp	LBB76_6
LBB76_6:
	.loc	47 0 13
	movq	-56(%rbp), %rax
	.loc	47 997 13
	subq	$1, %rax
	je	LBB76_3
	jmp	LBB76_7
LBB76_7:
	jmp	LBB76_4
	.loc	47 997 19
	ud2
LBB76_2:
	.loc	47 0 19
	movq	-64(%rbp), %rdi
	.loc	47 1004 30 is_stmt 1
	leaq	__ZN3std6thread5local4fast13destroy_value17hedbb89376b61476fE(%rip), %rsi
	callq	__ZN3std3sys4unix17thread_local_dtor13register_dtor17hd1117fc09d525c5dE
	movq	-64(%rbp), %rdi
	.loc	47 1005 21
	addq	$24, %rdi
	movq	%rdi, -16(%rbp)
Ltmp1079:
	.loc	46 363 19
	movl	$1, %esi
	callq	__ZN4core4cell13Cell$LT$T$GT$7replace17ha658a95b882e4dc5E
	movb	%al, -1(%rbp)
Ltmp1080:
	.loc	47 1006 21
	movb	$1, -42(%rbp)
	jmp	LBB76_5
LBB76_3:
	.loc	47 1010 21
	movb	$1, -42(%rbp)
	jmp	LBB76_5
LBB76_4:
	.loc	47 1012 47
	movb	$0, -42(%rbp)
LBB76_5:
	.loc	47 1014 10
	movb	-42(%rbp), %al
	andb	$1, %al
	movzbl	%al, %eax
	addq	$64, %rsp
	popq	%rbp
	retq
Ltmp1081:
Lfunc_end76:
	.cfi_endproc

	.globl	__ZN3std6thread5local4fast12Key$LT$T$GT$3get17h07ff038446ad9943E
	.p2align	4, 0x90
__ZN3std6thread5local4fast12Key$LT$T$GT$3get17h07ff038446ad9943E:
Lfunc_begin77:
	.loc	47 959 0
	.cfi_startproc
	.cfi_personality 155, _rust_eh_personality
	.cfi_lsda 16, Lexception22
	pushq	%rbp
	.cfi_def_cfa_offset 16
	.cfi_offset %rbp, -16
	movq	%rsp, %rbp
	.cfi_def_cfa_register %rbp
	subq	$96, %rsp
	movq	%rdi, -88(%rbp)
	movq	%rsi, -80(%rbp)
	movq	%rdi, -40(%rbp)
	movq	%rsi, -32(%rbp)
Ltmp1087:
	.loc	47 968 23 prologue_end
	movb	$1, -41(%rbp)
Ltmp1082:
	callq	__ZN3std6thread5local4lazy21LazyKeyInner$LT$T$GT$3get17hc1d7ed1114414fd8E
Ltmp1083:
	movq	%rax, -72(%rbp)
	jmp	LBB77_3
LBB77_1:
	.loc	47 973 9
	testb	$1, -41(%rbp)
	jne	LBB77_9
	jmp	LBB77_8
LBB77_2:
Ltmp1086:
	.loc	47 0 9 is_stmt 0
	movq	%rax, %rcx
	movl	%edx, %eax
	movq	%rcx, -24(%rbp)
	movl	%eax, -16(%rbp)
	jmp	LBB77_1
LBB77_3:
	movq	-72(%rbp), %rax
	.loc	47 968 23 is_stmt 1
	movq	%rax, -56(%rbp)
	movq	-56(%rbp), %rdx
	movl	$1, %eax
	xorl	%ecx, %ecx
	cmpq	$0, %rdx
	cmoveq	%rcx, %rax
	.loc	47 968 17 is_stmt 0
	cmpq	$0, %rax
	jne	LBB77_5
	.loc	47 0 17
	movq	-80(%rbp), %rsi
	movq	-88(%rbp), %rdi
	.loc	47 970 49 is_stmt 1
	movb	$0, -41(%rbp)
Ltmp1084:
	.loc	47 970 29 is_stmt 0
	callq	__ZN3std6thread5local4fast12Key$LT$T$GT$14try_initialize17h21358b363badd56eE
Ltmp1085:
	movq	%rax, -96(%rbp)
	jmp	LBB77_7
LBB77_5:
	.loc	47 969 26 is_stmt 1
	movq	-56(%rbp), %rax
	movq	%rax, -8(%rbp)
Ltmp1088:
	.loc	47 969 34 is_stmt 0
	movq	%rax, -64(%rbp)
Ltmp1089:
LBB77_6:
	.loc	47 973 9 is_stmt 1
	testb	$1, -41(%rbp)
	jne	LBB77_11
	jmp	LBB77_10
LBB77_7:
	.loc	47 0 9 is_stmt 0
	movq	-96(%rbp), %rax
	.loc	47 970 29 is_stmt 1
	movq	%rax, -64(%rbp)
	.loc	47 970 53 is_stmt 0
	jmp	LBB77_6
LBB77_8:
	.loc	47 959 9 is_stmt 1
	movq	-24(%rbp), %rdi
	callq	__Unwind_Resume
LBB77_9:
	.loc	47 973 9
	jmp	LBB77_8
LBB77_10:
	.loc	47 973 10 is_stmt 0
	movq	-64(%rbp), %rax
	addq	$96, %rsp
	popq	%rbp
	retq
LBB77_11:
	.loc	47 973 9
	jmp	LBB77_10
Ltmp1090:
Lfunc_end77:
	.cfi_endproc
	.section	__TEXT,__gcc_except_tab
	.p2align	2
GCC_except_table77:
Lexception22:
	.byte	255
	.byte	255
	.byte	1
	.uleb128 Lcst_end22-Lcst_begin22
Lcst_begin22:
	.uleb128 Ltmp1082-Lfunc_begin77
	.uleb128 Ltmp1085-Ltmp1082
	.uleb128 Ltmp1086-Lfunc_begin77
	.byte	0
	.uleb128 Ltmp1085-Lfunc_begin77
	.uleb128 Lfunc_end77-Ltmp1085
	.byte	0
	.byte	0
Lcst_end22:
	.p2align	2

	.section	__TEXT,__text,regular,pure_instructions
	.globl	__ZN3std6thread5local4fast13destroy_value17hedbb89376b61476fE
	.p2align	4, 0x90
__ZN3std6thread5local4fast13destroy_value17hedbb89376b61476fE:
Lfunc_begin78:
	.loc	47 1017 0 is_stmt 1
	.cfi_startproc
	.cfi_personality 155, _rust_eh_personality
	.cfi_lsda 16, Lexception23
	pushq	%rbp
	.cfi_def_cfa_offset 16
	.cfi_offset %rbp, -16
	movq	%rsp, %rbp
	.cfi_def_cfa_register %rbp
	subq	$304, %rsp
	movq	%rdi, -64(%rbp)
Ltmp1108:
	.loc	47 1018 19 prologue_end
	movq	%rdi, -256(%rbp)
	leaq	-256(%rbp), %rax
Ltmp1109:
	.loc	47 1033 69
	movq	%rax, -224(%rbp)
	.loc	47 1033 45 is_stmt 0
	movq	-224(%rbp), %rax
	movq	%rax, -232(%rbp)
	.loc	47 1033 25
	movq	-232(%rbp), %rdi
Ltmp1091:
	callq	__ZN3std5panic12catch_unwind17h1b58f526da81b724E
Ltmp1092:
	movq	%rdx, -272(%rbp)
	movq	%rax, -264(%rbp)
	jmp	LBB78_3
Ltmp1110:
LBB78_1:
	.loc	47 1017 5 is_stmt 1
	callq	__ZN4core9panicking19panic_cannot_unwind17h1fbca7e1d7f56ae1E
LBB78_2:
Ltmp1107:
	.loc	47 0 5 is_stmt 0
	movq	%rax, %rcx
	movl	%edx, %eax
	movq	%rcx, -56(%rbp)
	movl	%eax, -48(%rbp)
	jmp	LBB78_1
LBB78_3:
	movq	-272(%rbp), %rax
	movq	-264(%rbp), %rcx
Ltmp1111:
	.loc	47 1033 25 is_stmt 1
	movq	%rcx, -248(%rbp)
	movq	%rax, -240(%rbp)
	.loc	47 1033 16 is_stmt 0
	movq	-248(%rbp), %rdx
	movl	$1, %eax
	xorl	%ecx, %ecx
	cmpq	$0, %rdx
	cmoveq	%rcx, %rax
	cmpq	$1, %rax
	jne	LBB78_5
Ltmp1095:
Ltmp1112:
	.loc	47 1038 13 is_stmt 1
	callq	__ZN3std3sys4unix5stdio12panic_output17hbdb9d595bb134988E
Ltmp1096:
	movb	%al, -273(%rbp)
	jmp	LBB78_7
Ltmp1113:
LBB78_5:
Ltmp1093:
	.loc	47 0 13 is_stmt 0
	leaq	-248(%rbp), %rdi
	.loc	47 1040 5 is_stmt 1
	callq	__ZN4core3ptr130drop_in_place$LT$core..result..Result$LT$$LP$$RP$$C$alloc..boxed..Box$LT$dyn$u20$core..any..Any$u2b$core..marker..Send$GT$$GT$$GT$17hf4b7d0a7e3d703a4E
Ltmp1094:
	jmp	LBB78_6
LBB78_6:
	.loc	47 1040 6 is_stmt 0
	addq	$304, %rsp
	popq	%rbp
	retq
LBB78_7:
	.loc	47 0 6
	movb	-273(%rbp), %al
Ltmp1114:
	.loc	47 1038 13 is_stmt 1
	andb	$1, %al
	movb	%al, -209(%rbp)
	movb	-209(%rbp), %al
	andb	$1, %al
	movzbl	%al, %eax
	cmpq	$1, %rax
	jne	LBB78_9
Ltmp1097:
	leaq	l___unnamed_55(%rip), %rsi
	leaq	l___unnamed_43(%rip), %rcx
	xorl	%eax, %eax
	movl	%eax, %r8d
	leaq	-112(%rbp), %rdi
	movl	$1, %edx
	callq	__ZN4core3fmt9Arguments6new_v117h691bb837e824d048E
Ltmp1098:
	jmp	LBB78_10
Ltmp1115:
LBB78_9:
Ltmp1105:
	.loc	47 1038 13 is_stmt 0
	callq	__ZN3std3sys4unix14abort_internal17h2d537589b8bbc756E
Ltmp1106:
	jmp	LBB78_16
LBB78_10:
Ltmp1116:
	.loc	47 1038 13
	leaq	-112(%rbp), %rax
	movq	%rax, -40(%rbp)
Ltmp1117:
	.file	54 "/rustc/2c8cc343237b8f7d5a3c3703e3a87f2eb2c54a74/library/core/src/fmt" "mod.rs"
	.loc	54 328 23 is_stmt 1
	leaq	-112(%rbp), %rax
	movq	%rax, -32(%rbp)
	.loc	54 328 26 is_stmt 0
	movq	__ZN59_$LT$core..fmt..Arguments$u20$as$u20$core..fmt..Display$GT$3fmt17h99a13c0e04235e08E@GOTPCREL(%rip), %rax
	movq	%rax, -24(%rbp)
Ltmp1118:
	.loc	54 347 42 is_stmt 1
	movq	__ZN59_$LT$core..fmt..Arguments$u20$as$u20$core..fmt..Display$GT$3fmt17h99a13c0e04235e08E@GOTPCREL(%rip), %rax
	movq	%rax, -16(%rbp)
	movq	-16(%rbp), %rax
	movq	%rax, -288(%rbp)
	.loc	54 347 68 is_stmt 0
	leaq	-112(%rbp), %rax
	movq	%rax, -8(%rbp)
	movq	-8(%rbp), %rax
	movq	%rax, -296(%rbp)
	.loc	54 0 68
	movq	-288(%rbp), %rax
	movq	-296(%rbp), %rcx
	.loc	54 347 18
	movq	%rcx, -128(%rbp)
	movq	%rax, -120(%rbp)
Ltmp1119:
	.loc	47 1038 13 is_stmt 1
	movq	-128(%rbp), %rcx
	movq	-120(%rbp), %rax
	movq	%rcx, -144(%rbp)
	movq	%rax, -136(%rbp)
Ltmp1099:
	leaq	l___unnamed_56(%rip), %rsi
	leaq	-192(%rbp), %rdi
	movl	$2, %edx
	leaq	-144(%rbp), %rcx
	movl	$1, %r8d
	callq	__ZN4core3fmt9Arguments6new_v117h691bb837e824d048E
Ltmp1100:
	jmp	LBB78_13
LBB78_13:
Ltmp1101:
	.loc	47 0 13 is_stmt 0
	leaq	-208(%rbp), %rdi
	leaq	-192(%rbp), %rsi
	.loc	47 1038 13
	callq	__ZN3std2io5Write9write_fmt17h84165f7cbd3daa7dE
Ltmp1102:
	movq	%rax, -304(%rbp)
	jmp	LBB78_14
LBB78_14:
	.loc	47 0 13
	movq	-304(%rbp), %rax
	.loc	47 1038 13
	movq	%rax, -200(%rbp)
Ltmp1103:
	leaq	-200(%rbp), %rdi
	callq	__ZN4core3ptr81drop_in_place$LT$core..result..Result$LT$$LP$$RP$$C$std..io..error..Error$GT$$GT$17h138947bff5834a55E
Ltmp1104:
	jmp	LBB78_15
Ltmp1120:
LBB78_15:
	.loc	47 1038 13
	jmp	LBB78_9
Ltmp1121:
LBB78_16:
	.loc	47 0 13
	ud2
Lfunc_end78:
	.cfi_endproc
	.file	55 "/rustc/2c8cc343237b8f7d5a3c3703e3a87f2eb2c54a74/library/std/src" "rt.rs"
	.section	__TEXT,__gcc_except_tab
	.p2align	2
GCC_except_table78:
Lexception23:
	.byte	255
	.byte	255
	.byte	1
	.uleb128 Lcst_end23-Lcst_begin23
Lcst_begin23:
	.uleb128 Ltmp1091-Lfunc_begin78
	.uleb128 Ltmp1104-Ltmp1091
	.uleb128 Ltmp1107-Lfunc_begin78
	.byte	0
Lcst_end23:
	.p2align	2

	.section	__TEXT,__text,regular,pure_instructions
	.globl	__ZN3std6thread5local4fast13destroy_value28_$u7b$$u7b$closure$u7d$$u7d$17h4896ffe73e869a87E
	.p2align	4, 0x90
__ZN3std6thread5local4fast13destroy_value28_$u7b$$u7b$closure$u7d$$u7d$17h4896ffe73e869a87E:
Lfunc_begin79:
	.loc	47 1033 0 is_stmt 1
	.cfi_startproc
	.cfi_personality 155, _rust_eh_personality
	.cfi_lsda 16, Lexception24
	pushq	%rbp
	.cfi_def_cfa_offset 16
	.cfi_offset %rbp, -16
	movq	%rsp, %rbp
	.cfi_def_cfa_register %rbp
	subq	$112, %rsp
	movq	%rdi, -112(%rbp)
	movq	%rdi, -40(%rbp)
Ltmp1125:
	.loc	47 1034 25 prologue_end
	movq	(%rdi), %rax
	movq	(%rax), %rsi
	movb	$1, -41(%rbp)
	leaq	-96(%rbp), %rdi
	callq	__ZN3std6thread5local4lazy21LazyKeyInner$LT$T$GT$4take17h1fcfbb965ef18546E
	movq	-112(%rbp), %rdi
Ltmp1126:
	.loc	47 1035 13
	movq	(%rdi), %rax
	movq	(%rax), %rdi
	addq	$24, %rdi
	movq	%rdi, -32(%rbp)
Ltmp1122:
	movl	$2, %esi
Ltmp1127:
	.loc	46 363 19
	callq	__ZN4core4cell13Cell$LT$T$GT$7replace17ha658a95b882e4dc5E
Ltmp1123:
	movb	%al, -97(%rbp)
	jmp	LBB79_3
Ltmp1128:
LBB79_1:
	.loc	47 1037 9
	testb	$1, -41(%rbp)
	jne	LBB79_6
	jmp	LBB79_5
LBB79_2:
Ltmp1124:
	.loc	47 0 9 is_stmt 0
	movq	%rax, %rcx
	movl	%edx, %eax
	movq	%rcx, -24(%rbp)
	movl	%eax, -16(%rbp)
	jmp	LBB79_1
LBB79_3:
	movb	-97(%rbp), %al
Ltmp1129:
	.loc	46 363 19 is_stmt 1
	movb	%al, -1(%rbp)
Ltmp1130:
	.loc	47 1036 18
	movb	$0, -41(%rbp)
	movq	-96(%rbp), %rax
	movq	%rax, -72(%rbp)
	movq	-88(%rbp), %rax
	movq	%rax, -64(%rbp)
	movq	-80(%rbp), %rax
	movq	%rax, -56(%rbp)
Ltmp1131:
	.loc	47 1037 10
	addq	$112, %rsp
	popq	%rbp
	retq
LBB79_5:
	.loc	47 1033 69
	movq	-24(%rbp), %rdi
	callq	__Unwind_Resume
LBB79_6:
	.loc	47 1037 9
	jmp	LBB79_5
Ltmp1132:
Lfunc_end79:
	.cfi_endproc
	.section	__TEXT,__gcc_except_tab
	.p2align	2
GCC_except_table79:
Lexception24:
	.byte	255
	.byte	255
	.byte	1
	.uleb128 Lcst_end24-Lcst_begin24
Lcst_begin24:
	.uleb128 Lfunc_begin79-Lfunc_begin79
	.uleb128 Ltmp1122-Lfunc_begin79
	.byte	0
	.byte	0
	.uleb128 Ltmp1122-Lfunc_begin79
	.uleb128 Ltmp1123-Ltmp1122
	.uleb128 Ltmp1124-Lfunc_begin79
	.byte	0
	.uleb128 Ltmp1123-Lfunc_begin79
	.uleb128 Lfunc_end79-Ltmp1123
	.byte	0
	.byte	0
Lcst_end24:
	.p2align	2

	.section	__TEXT,__text,regular,pure_instructions
	.globl	__ZN3std6thread5local4lazy21LazyKeyInner$LT$T$GT$10initialize17hdfc345a991c9dd29E
	.p2align	4, 0x90
__ZN3std6thread5local4lazy21LazyKeyInner$LT$T$GT$10initialize17hdfc345a991c9dd29E:
Lfunc_begin80:
	.loc	47 807 0
	.cfi_startproc
	.cfi_personality 155, _rust_eh_personality
	.cfi_lsda 16, Lexception25
	pushq	%rbp
	.cfi_def_cfa_offset 16
	.cfi_offset %rbp, -16
	movq	%rsp, %rbp
	.cfi_def_cfa_register %rbp
	subq	$144, %rsp
	movq	%rsi, -136(%rbp)
	movq	%rdi, %rax
	movq	-136(%rbp), %rdi
	movq	%rax, -128(%rbp)
	movq	%rax, -72(%rbp)
	movq	%rdi, -64(%rbp)
Ltmp1138:
	.loc	47 810 25 prologue_end
	callq	__ZN3std11collections4hash3map11RandomState3new4KEYS7__getit28_$u7b$$u7b$closure$u7d$$u7d$17h4a676b500d92a975E
	movq	-128(%rbp), %rsi
	movq	%rax, -56(%rbp)
	movq	%rdx, -48(%rbp)
Ltmp1139:
	.loc	47 811 23
	movq	%rsi, -40(%rbp)
Ltmp1140:
	.loc	46 1999 9
	movq	%rsi, -32(%rbp)
Ltmp1141:
	.loc	47 831 49
	movq	%rax, -88(%rbp)
	movq	%rdx, -80(%rbp)
	movq	$1, -96(%rbp)
Ltmp1133:
	leaq	-120(%rbp), %rdi
	leaq	-96(%rbp), %rdx
	.loc	47 831 25 is_stmt 0
	callq	__ZN4core3mem7replace17heeccec5d29467bbcE
Ltmp1134:
	jmp	LBB80_3
Ltmp1142:
LBB80_1:
	.loc	47 848 9 is_stmt 1
	xorl	%eax, %eax
	testb	$1, %al
	jne	LBB80_9
	jmp	LBB80_8
LBB80_2:
Ltmp1137:
	.loc	47 0 9 is_stmt 0
	movq	%rax, %rcx
	movl	%edx, %eax
	movq	%rcx, -24(%rbp)
	movl	%eax, -16(%rbp)
	jmp	LBB80_1
LBB80_3:
Ltmp1143:
	.loc	47 831 61 is_stmt 1
	jmp	LBB80_4
LBB80_4:
	.loc	47 0 61 is_stmt 0
	movq	-128(%rbp), %rax
	.loc	47 843 17 is_stmt 1
	cmpq	$0, (%rax)
	jne	LBB80_6
Ltmp1135:
	.loc	47 845 29
	callq	__ZN4core4hint21unreachable_unchecked17hc91bade5f399bc68E
Ltmp1136:
	jmp	LBB80_7
LBB80_6:
	.loc	47 0 29 is_stmt 0
	movq	-128(%rbp), %rax
	.loc	47 844 26 is_stmt 1
	addq	$8, %rax
	movq	%rax, -8(%rbp)
Ltmp1144:
	.loc	47 848 10
	addq	$144, %rsp
	popq	%rbp
	retq
LBB80_7:
	.loc	47 0 10 is_stmt 0
	ud2
LBB80_8:
	.loc	47 807 9 is_stmt 1
	movq	-24(%rbp), %rdi
	callq	__Unwind_Resume
LBB80_9:
	.loc	47 848 9
	jmp	LBB80_8
Ltmp1145:
Lfunc_end80:
	.cfi_endproc
	.section	__TEXT,__gcc_except_tab
	.p2align	2
GCC_except_table80:
Lexception25:
	.byte	255
	.byte	255
	.byte	1
	.uleb128 Lcst_end25-Lcst_begin25
Lcst_begin25:
	.uleb128 Lfunc_begin80-Lfunc_begin80
	.uleb128 Ltmp1133-Lfunc_begin80
	.byte	0
	.byte	0
	.uleb128 Ltmp1133-Lfunc_begin80
	.uleb128 Ltmp1136-Ltmp1133
	.uleb128 Ltmp1137-Lfunc_begin80
	.byte	0
	.uleb128 Ltmp1136-Lfunc_begin80
	.uleb128 Lfunc_end80-Ltmp1136
	.byte	0
	.byte	0
Lcst_end25:
	.p2align	2

	.section	__TEXT,__text,regular,pure_instructions
	.globl	__ZN3std6thread5local4lazy21LazyKeyInner$LT$T$GT$3get17hc1d7ed1114414fd8E
	.p2align	4, 0x90
__ZN3std6thread5local4lazy21LazyKeyInner$LT$T$GT$3get17hc1d7ed1114414fd8E:
Lfunc_begin81:
	.loc	47 797 0
	.cfi_startproc
	pushq	%rbp
	.cfi_def_cfa_offset 16
	.cfi_offset %rbp, -16
	movq	%rsp, %rbp
	.cfi_def_cfa_register %rbp
	subq	$48, %rsp
	movq	%rdi, -48(%rbp)
	movq	%rdi, -32(%rbp)
Ltmp1146:
	.loc	47 802 24 prologue_end
	movq	%rdi, -24(%rbp)
	.loc	47 802 22 is_stmt 0
	movq	%rdi, -16(%rbp)
Ltmp1147:
	.loc	23 675 9 is_stmt 1
	cmpq	$0, (%rdi)
	jne	LBB81_2
	.loc	23 677 21
	movq	$0, -40(%rbp)
	jmp	LBB81_3
LBB81_2:
	.loc	23 0 21 is_stmt 0
	movq	-48(%rbp), %rax
	.loc	23 676 18 is_stmt 1
	addq	$8, %rax
	movq	%rax, -8(%rbp)
Ltmp1148:
	.loc	23 676 28 is_stmt 0
	movq	%rax, -40(%rbp)
Ltmp1149:
LBB81_3:
	.loc	47 803 10 is_stmt 1
	movq	-40(%rbp), %rax
	addq	$48, %rsp
	popq	%rbp
	retq
Ltmp1150:
Lfunc_end81:
	.cfi_endproc

	.globl	__ZN3std6thread5local4lazy21LazyKeyInner$LT$T$GT$4take17h1fcfbb965ef18546E
	.p2align	4, 0x90
__ZN3std6thread5local4lazy21LazyKeyInner$LT$T$GT$4take17h1fcfbb965ef18546E:
Lfunc_begin82:
	.loc	47 854 0
	.cfi_startproc
	pushq	%rbp
	.cfi_def_cfa_offset 16
	.cfi_offset %rbp, -16
	movq	%rsp, %rbp
	.cfi_def_cfa_register %rbp
	subq	$64, %rsp
	movq	%rdi, %rax
	movq	%rax, -56(%rbp)
	movq	%rsi, -24(%rbp)
Ltmp1151:
	.loc	47 856 24 prologue_end
	movq	%rsi, -16(%rbp)
	.loc	47 856 22 is_stmt 0
	movq	%rsi, -8(%rbp)
Ltmp1152:
	.loc	23 1623 28 is_stmt 1
	movq	$0, -48(%rbp)
	.loc	23 1623 9 is_stmt 0
	leaq	-48(%rbp), %rdx
	callq	__ZN4core3mem7replace17heeccec5d29467bbcE
	movq	-56(%rbp), %rax
Ltmp1153:
	.loc	47 857 10 is_stmt 1
	addq	$64, %rsp
	popq	%rbp
	retq
Ltmp1154:
Lfunc_end82:
	.cfi_endproc

	.globl	__ZN3std9panicking11begin_panic17h13d10dc8dac25f44E
	.p2align	4, 0x90
__ZN3std9panicking11begin_panic17h13d10dc8dac25f44E:
Lfunc_begin83:
	.file	56 "/rustc/2c8cc343237b8f7d5a3c3703e3a87f2eb2c54a74/library/std/src" "panicking.rs"
	.loc	56 601 0
	.cfi_startproc
	.cfi_personality 155, _rust_eh_personality
	.cfi_lsda 16, Lexception26
	pushq	%rbp
	.cfi_def_cfa_offset 16
	.cfi_offset %rbp, -16
	movq	%rsp, %rbp
	.cfi_def_cfa_register %rbp
	subq	$112, %rsp
	movq	%rdi, -104(%rbp)
	movq	%rsi, -96(%rbp)
	movq	%rdi, -48(%rbp)
	movq	%rsi, -40(%rbp)
Ltmp1158:
	.loc	56 602 5 prologue_end
	movb	$1, -49(%rbp)
Ltmp1159:
	.file	57 "/rustc/2c8cc343237b8f7d5a3c3703e3a87f2eb2c54a74/library/core/src/panic" "location.rs"
	.loc	57 88 9
	movq	%rdx, -32(%rbp)
	movq	-32(%rbp), %rax
	movq	%rax, -88(%rbp)
	movq	%rax, -24(%rbp)
Ltmp1160:
	.loc	57 0 9 is_stmt 0
	movq	-88(%rbp), %rax
	movq	-96(%rbp), %rcx
	movq	-104(%rbp), %rdx
Ltmp1161:
	.loc	56 607 69 is_stmt 1
	movb	$0, -49(%rbp)
	movq	%rdx, -80(%rbp)
	movq	%rcx, -72(%rbp)
	movq	%rax, -64(%rbp)
Ltmp1155:
	leaq	-80(%rbp), %rdi
	.loc	56 607 12 is_stmt 0
	callq	__ZN3std10sys_common9backtrace26__rust_end_short_backtrace17h60ce4a205ef39fb6E
Ltmp1156:
	jmp	LBB83_4
Ltmp1162:
LBB83_2:
	.loc	56 642 1 is_stmt 1
	testb	$1, -49(%rbp)
	jne	LBB83_6
	jmp	LBB83_5
LBB83_3:
Ltmp1157:
	.loc	56 0 1 is_stmt 0
	movq	%rax, %rcx
	movl	%edx, %eax
	movq	%rcx, -16(%rbp)
	movl	%eax, -8(%rbp)
	jmp	LBB83_2
LBB83_4:
	ud2
LBB83_5:
	.loc	56 601 1 is_stmt 1
	movq	-16(%rbp), %rdi
	callq	__Unwind_Resume
LBB83_6:
	.loc	56 642 1
	jmp	LBB83_5
Ltmp1163:
Lfunc_end83:
	.cfi_endproc
	.section	__TEXT,__gcc_except_tab
	.p2align	2
GCC_except_table83:
Lexception26:
	.byte	255
	.byte	255
	.byte	1
	.uleb128 Lcst_end26-Lcst_begin26
Lcst_begin26:
	.uleb128 Ltmp1155-Lfunc_begin83
	.uleb128 Ltmp1156-Ltmp1155
	.uleb128 Ltmp1157-Lfunc_begin83
	.byte	0
	.uleb128 Ltmp1156-Lfunc_begin83
	.uleb128 Lfunc_end83-Ltmp1156
	.byte	0
	.byte	0
Lcst_end26:
	.p2align	2

	.section	__TEXT,__text,regular,pure_instructions
	.globl	__ZN3std9panicking11begin_panic21PanicPayload$LT$A$GT$3new17hba5537c34168f8a1E
	.p2align	4, 0x90
__ZN3std9panicking11begin_panic21PanicPayload$LT$A$GT$3new17hba5537c34168f8a1E:
Lfunc_begin84:
	.loc	56 616 0
	.cfi_startproc
	pushq	%rbp
	.cfi_def_cfa_offset 16
	.cfi_offset %rbp, -16
	movq	%rsp, %rbp
	.cfi_def_cfa_register %rbp
	subq	$48, %rsp
	movq	%rdi, -16(%rbp)
	movq	%rsi, -8(%rbp)
Ltmp1164:
	.loc	56 617 35 prologue_end
	movq	%rdi, -32(%rbp)
	movq	%rsi, -24(%rbp)
	.loc	56 617 13 is_stmt 0
	movq	-32(%rbp), %rcx
	movq	-24(%rbp), %rax
	movq	%rcx, -48(%rbp)
	movq	%rax, -40(%rbp)
	.loc	56 618 10 is_stmt 1
	movq	-48(%rbp), %rax
	movq	-40(%rbp), %rdx
	addq	$48, %rsp
	popq	%rbp
	retq
Ltmp1165:
Lfunc_end84:
	.cfi_endproc

	.globl	__ZN3std9panicking11begin_panic28_$u7b$$u7b$closure$u7d$$u7d$17h7f479dc5e396b53dE
	.p2align	4, 0x90
__ZN3std9panicking11begin_panic28_$u7b$$u7b$closure$u7d$$u7d$17h7f479dc5e396b53dE:
Lfunc_begin85:
	.loc	56 607 0
	.cfi_startproc
	.cfi_personality 155, _rust_eh_personality
	.cfi_lsda 16, Lexception27
	pushq	%rbp
	.cfi_def_cfa_offset 16
	.cfi_offset %rbp, -16
	movq	%rsp, %rbp
	.cfi_def_cfa_register %rbp
	subq	$48, %rsp
	movq	%rdi, %rax
	movq	%rax, -48(%rbp)
Ltmp1169:
	.loc	56 608 53 prologue_end
	movq	(%rax), %rdi
	movq	8(%rax), %rsi
	.loc	56 608 35 is_stmt 0
	callq	__ZN3std9panicking11begin_panic21PanicPayload$LT$A$GT$3new17hba5537c34168f8a1E
	movq	-48(%rbp), %rdi
	movq	%rdx, -32(%rbp)
	movq	%rax, -40(%rbp)
	.loc	56 608 59
	movq	$0, -24(%rbp)
	.loc	56 608 65
	movq	16(%rdi), %rcx
	.loc	56 608 9
	movq	-24(%rbp), %rdx
Ltmp1166:
	leaq	l___unnamed_3(%rip), %rsi
	leaq	-40(%rbp), %rdi
	movl	$1, %r8d
	callq	__ZN3std9panicking20rust_panic_with_hook17h479ead1480e59d8dE
Ltmp1167:
	jmp	LBB85_3
Ltmp1170:
LBB85_1:
	.loc	56 607 69 is_stmt 1
	movq	-16(%rbp), %rdi
	callq	__Unwind_Resume
Ltmp1171:
LBB85_2:
Ltmp1168:
	.loc	56 0 69 is_stmt 0
	movq	%rax, %rcx
	movl	%edx, %eax
	movq	%rcx, -16(%rbp)
	movl	%eax, -8(%rbp)
	jmp	LBB85_1
Ltmp1172:
LBB85_3:
	ud2
Lfunc_end85:
	.cfi_endproc
	.section	__TEXT,__gcc_except_tab
	.p2align	2
GCC_except_table85:
Lexception27:
	.byte	255
	.byte	255
	.byte	1
	.uleb128 Lcst_end27-Lcst_begin27
Lcst_begin27:
	.uleb128 Lfunc_begin85-Lfunc_begin85
	.uleb128 Ltmp1166-Lfunc_begin85
	.byte	0
	.byte	0
	.uleb128 Ltmp1166-Lfunc_begin85
	.uleb128 Ltmp1167-Ltmp1166
	.uleb128 Ltmp1168-Lfunc_begin85
	.byte	0
	.uleb128 Ltmp1167-Lfunc_begin85
	.uleb128 Lfunc_end85-Ltmp1167
	.byte	0
	.byte	0
Lcst_end27:
	.p2align	2

	.section	__TEXT,__text,regular,pure_instructions
	.globl	__ZN3std9panicking3try17hcc59c013fad93615E
	.p2align	4, 0x90
__ZN3std9panicking3try17hcc59c013fad93615E:
Lfunc_begin86:
	.loc	56 403 0 is_stmt 1
	.cfi_startproc
	pushq	%rbp
	.cfi_def_cfa_offset 16
	.cfi_offset %rbp, -16
	movq	%rsp, %rbp
	.cfi_def_cfa_register %rbp
	subq	$96, %rsp
	movq	%rdi, -56(%rbp)
Ltmp1173:
	.loc	56 434 48 prologue_end
	movq	%rdi, -40(%rbp)
Ltmp1174:
	.loc	13 71 9
	movq	%rdi, -64(%rbp)
Ltmp1175:
	.loc	56 434 20
	movq	-64(%rbp), %rax
	movq	%rax, -80(%rbp)
Ltmp1176:
	.loc	56 436 20
	leaq	-80(%rbp), %rax
	movq	%rax, -32(%rbp)
Ltmp1177:
	.loc	56 447 19
	leaq	__ZN3std9panicking3try7do_call17h85e614cba670a07cE(%rip), %rdi
	leaq	-80(%rbp), %rsi
	leaq	__ZN3std9panicking3try8do_catch17ha8db47bf4d0477c2E(%rip), %rdx
	callq	___rust_try
	movl	%eax, -20(%rbp)
	cmpl	$0, -20(%rbp)
	jne	LBB86_2
	.loc	56 448 13
	movq	$0, -96(%rbp)
	.loc	56 447 16
	jmp	LBB86_3
LBB86_2:
	.loc	56 450 42
	movq	-80(%rbp), %rcx
	movq	-72(%rbp), %rax
	movq	%rcx, -16(%rbp)
	movq	%rax, -8(%rbp)
	.loc	56 450 13 is_stmt 0
	movq	%rcx, -96(%rbp)
	movq	%rax, -88(%rbp)
Ltmp1178:
LBB86_3:
	.loc	56 512 2 is_stmt 1
	movq	-96(%rbp), %rax
	movq	-88(%rbp), %rdx
	addq	$96, %rsp
	popq	%rbp
	retq
Ltmp1179:
Lfunc_end86:
	.cfi_endproc

	.globl	__ZN3std9panicking3try7do_call17h85e614cba670a07cE
	.p2align	4, 0x90
__ZN3std9panicking3try7do_call17h85e614cba670a07cE:
Lfunc_begin87:
	.loc	56 477 0
	.cfi_startproc
	pushq	%rbp
	.cfi_def_cfa_offset 16
	.cfi_offset %rbp, -16
	movq	%rsp, %rbp
	.cfi_def_cfa_register %rbp
	subq	$96, %rsp
	movq	%rdi, -80(%rbp)
Ltmp1180:
	.loc	56 480 24 prologue_end
	movq	%rdi, -64(%rbp)
Ltmp1181:
	.loc	56 481 24
	movq	%rdi, -56(%rbp)
Ltmp1182:
	.loc	56 482 40
	movq	%rdi, -48(%rbp)
Ltmp1183:
	.loc	13 113 28
	movq	%rdi, -40(%rbp)
Ltmp1184:
	.loc	6 1157 34
	leaq	-88(%rbp), %rax
	movq	%rax, -32(%rbp)
	.loc	6 1157 9 is_stmt 0
	movq	(%rdi), %rax
	movq	%rax, -88(%rbp)
	.loc	6 1158 9 is_stmt 1
	movq	-88(%rbp), %rdi
	movq	%rdi, -24(%rbp)
Ltmp1185:
	.loc	12 627 38
	movq	%rdi, -16(%rbp)
Ltmp1186:
	.loc	13 89 9
	movq	%rdi, -8(%rbp)
Ltmp1187:
	.loc	56 483 40
	callq	__ZN115_$LT$core..panic..unwind_safe..AssertUnwindSafe$LT$F$GT$$u20$as$u20$core..ops..function..FnOnce$LT$$LP$$RP$$GT$$GT$9call_once17hed007adcaf26a226E
Ltmp1188:
	.loc	56 485 6
	addq	$96, %rsp
	popq	%rbp
	retq
Ltmp1189:
Lfunc_end87:
	.cfi_endproc

	.globl	__ZN3std9panicking3try8do_catch17ha8db47bf4d0477c2E
	.p2align	4, 0x90
__ZN3std9panicking3try8do_catch17ha8db47bf4d0477c2E:
Lfunc_begin88:
	.loc	56 499 0
	.cfi_startproc
	pushq	%rbp
	.cfi_def_cfa_offset 16
	.cfi_offset %rbp, -16
	movq	%rsp, %rbp
	.cfi_def_cfa_register %rbp
	subq	$96, %rsp
	movq	%rsi, -96(%rbp)
	movq	%rdi, %rax
	movq	-96(%rbp), %rdi
	movq	%rax, -88(%rbp)
	movq	%rax, -64(%rbp)
	movq	%rdi, -56(%rbp)
Ltmp1190:
	.loc	56 506 24 prologue_end
	movq	%rax, -48(%rbp)
Ltmp1191:
	.loc	56 507 24
	movq	%rax, -40(%rbp)
Ltmp1192:
	.loc	56 508 23
	callq	__ZN3std9panicking3try7cleanup17h75e8c286968d572cE
	movq	-88(%rbp), %rdi
	movq	%rax, -32(%rbp)
	movq	%rdx, -24(%rbp)
Ltmp1193:
	.loc	56 509 40
	movq	%rax, -16(%rbp)
	movq	%rdx, -8(%rbp)
Ltmp1194:
	.loc	13 71 9
	movq	%rax, -80(%rbp)
	movq	%rdx, -72(%rbp)
Ltmp1195:
	.loc	56 509 13
	movq	-80(%rbp), %rcx
	movq	-72(%rbp), %rax
	movq	%rcx, (%rdi)
	movq	%rax, 8(%rdi)
Ltmp1196:
	.loc	56 511 6
	addq	$96, %rsp
	popq	%rbp
	retq
Ltmp1197:
Lfunc_end88:
	.cfi_endproc

	.p2align	4, 0x90
__ZN41_$LT$bool$u20$as$u20$core..fmt..Debug$GT$3fmt17hca48e5e772546a8dE:
Lfunc_begin89:
	.loc	54 2406 0
	.cfi_startproc
	pushq	%rbp
	.cfi_def_cfa_offset 16
	.cfi_offset %rbp, -16
	movq	%rsp, %rbp
	.cfi_def_cfa_register %rbp
	subq	$16, %rsp
	movq	%rdi, -16(%rbp)
	movq	%rsi, -8(%rbp)
Ltmp1198:
	.loc	54 2407 9 prologue_end
	callq	__ZN43_$LT$bool$u20$as$u20$core..fmt..Display$GT$3fmt17hcd777b7f8f92eb67E
	.loc	54 2408 6
	andb	$1, %al
	movzbl	%al, %eax
	addq	$16, %rsp
	popq	%rbp
	retq
Ltmp1199:
Lfunc_end89:
	.cfi_endproc

	.globl	__ZN42_$LT$$RF$T$u20$as$u20$core..fmt..Debug$GT$3fmt17h040aef08fcd09ef5E
	.p2align	4, 0x90
__ZN42_$LT$$RF$T$u20$as$u20$core..fmt..Debug$GT$3fmt17h040aef08fcd09ef5E:
Lfunc_begin90:
	.loc	54 2377 0
	.cfi_startproc
	pushq	%rbp
	.cfi_def_cfa_offset 16
	.cfi_offset %rbp, -16
	movq	%rsp, %rbp
	.cfi_def_cfa_register %rbp
	subq	$16, %rsp
	movq	%rdi, -16(%rbp)
	movq	%rsi, -8(%rbp)
Ltmp1200:
	.loc	54 2377 71 prologue_end
	movq	(%rdi), %rdi
	.loc	54 2377 62 is_stmt 0
	callq	__ZN67_$LT$alloc..boxed..Box$LT$T$C$A$GT$$u20$as$u20$core..fmt..Debug$GT$3fmt17h77f53d2cd24a5bf3E
	.loc	54 2377 84
	andb	$1, %al
	movzbl	%al, %eax
	addq	$16, %rsp
	popq	%rbp
	retq
Ltmp1201:
Lfunc_end90:
	.cfi_endproc

	.globl	__ZN42_$LT$$RF$T$u20$as$u20$core..fmt..Debug$GT$3fmt17h06dcd589d86416e9E
	.p2align	4, 0x90
__ZN42_$LT$$RF$T$u20$as$u20$core..fmt..Debug$GT$3fmt17h06dcd589d86416e9E:
Lfunc_begin91:
	.loc	54 2377 0 is_stmt 1
	.cfi_startproc
	pushq	%rbp
	.cfi_def_cfa_offset 16
	.cfi_offset %rbp, -16
	movq	%rsp, %rbp
	.cfi_def_cfa_register %rbp
	subq	$16, %rsp
	movq	%rdi, -16(%rbp)
	movq	%rsi, -8(%rbp)
Ltmp1202:
	.loc	54 2377 71 prologue_end
	movq	(%rdi), %rdi
	.loc	54 2377 62 is_stmt 0
	callq	__ZN68_$LT$gif..reader..decoder..ByteValue$u20$as$u20$core..fmt..Debug$GT$3fmt17hce0e04e4fde7b156E
	.loc	54 2377 84
	andb	$1, %al
	movzbl	%al, %eax
	addq	$16, %rsp
	popq	%rbp
	retq
Ltmp1203:
Lfunc_end91:
	.cfi_endproc

	.globl	__ZN42_$LT$$RF$T$u20$as$u20$core..fmt..Debug$GT$3fmt17h082de8c3fec42543E
	.p2align	4, 0x90
__ZN42_$LT$$RF$T$u20$as$u20$core..fmt..Debug$GT$3fmt17h082de8c3fec42543E:
Lfunc_begin92:
	.loc	54 2377 0 is_stmt 1
	.cfi_startproc
	pushq	%rbp
	.cfi_def_cfa_offset 16
	.cfi_offset %rbp, -16
	movq	%rsp, %rbp
	.cfi_def_cfa_register %rbp
	subq	$16, %rsp
	movq	%rdi, -16(%rbp)
	movq	%rsi, -8(%rbp)
Ltmp1204:
	.loc	54 2377 71 prologue_end
	movq	(%rdi), %rdi
	.loc	54 2377 62 is_stmt 0
	callq	__ZN42_$LT$$RF$T$u20$as$u20$core..fmt..Debug$GT$3fmt17hee0ae366524b706aE
	.loc	54 2377 84
	andb	$1, %al
	movzbl	%al, %eax
	addq	$16, %rsp
	popq	%rbp
	retq
Ltmp1205:
Lfunc_end92:
	.cfi_endproc

	.globl	__ZN42_$LT$$RF$T$u20$as$u20$core..fmt..Debug$GT$3fmt17h0aeba55b64e827b5E
	.p2align	4, 0x90
__ZN42_$LT$$RF$T$u20$as$u20$core..fmt..Debug$GT$3fmt17h0aeba55b64e827b5E:
Lfunc_begin93:
	.loc	54 2377 0 is_stmt 1
	.cfi_startproc
	pushq	%rbp
	.cfi_def_cfa_offset 16
	.cfi_offset %rbp, -16
	movq	%rsp, %rbp
	.cfi_def_cfa_register %rbp
	subq	$16, %rsp
	movq	%rdi, -16(%rbp)
	movq	%rsi, -8(%rbp)
Ltmp1206:
	.loc	54 2377 71 prologue_end
	movq	(%rdi), %rdi
	.loc	54 2377 62 is_stmt 0
	callq	__ZN64_$LT$gif..common..DisposalMethod$u20$as$u20$core..fmt..Debug$GT$3fmt17h975bbdc7f08f8adfE
	.loc	54 2377 84
	andb	$1, %al
	movzbl	%al, %eax
	addq	$16, %rsp
	popq	%rbp
	retq
Ltmp1207:
Lfunc_end93:
	.cfi_endproc

	.globl	__ZN42_$LT$$RF$T$u20$as$u20$core..fmt..Debug$GT$3fmt17h12146037d0cbe5dcE
	.p2align	4, 0x90
__ZN42_$LT$$RF$T$u20$as$u20$core..fmt..Debug$GT$3fmt17h12146037d0cbe5dcE:
Lfunc_begin94:
	.loc	54 2377 0 is_stmt 1
	.cfi_startproc
	pushq	%rbp
	.cfi_def_cfa_offset 16
	.cfi_offset %rbp, -16
	movq	%rsp, %rbp
	.cfi_def_cfa_register %rbp
	subq	$16, %rsp
	movq	%rdi, -16(%rbp)
	movq	%rsi, -8(%rbp)
Ltmp1208:
	.loc	54 2377 71 prologue_end
	movq	(%rdi), %rdi
	.loc	54 2377 62 is_stmt 0
	callq	__ZN66_$LT$core..option..Option$LT$T$GT$$u20$as$u20$core..fmt..Debug$GT$3fmt17heedb9abf24999f9aE
	.loc	54 2377 84
	andb	$1, %al
	movzbl	%al, %eax
	addq	$16, %rsp
	popq	%rbp
	retq
Ltmp1209:
Lfunc_end94:
	.cfi_endproc

	.globl	__ZN42_$LT$$RF$T$u20$as$u20$core..fmt..Debug$GT$3fmt17h246bdb38e05a1c8bE
	.p2align	4, 0x90
__ZN42_$LT$$RF$T$u20$as$u20$core..fmt..Debug$GT$3fmt17h246bdb38e05a1c8bE:
Lfunc_begin95:
	.loc	54 2377 0 is_stmt 1
	.cfi_startproc
	pushq	%rbp
	.cfi_def_cfa_offset 16
	.cfi_offset %rbp, -16
	movq	%rsp, %rbp
	.cfi_def_cfa_register %rbp
	subq	$16, %rsp
	movq	%rdi, -16(%rbp)
	movq	%rsi, -8(%rbp)
Ltmp1210:
	.loc	54 2377 71 prologue_end
	movq	(%rdi), %rdi
	.loc	54 2377 62 is_stmt 0
	callq	__ZN4core3fmt3num49_$LT$impl$u20$core..fmt..Debug$u20$for$u20$u8$GT$3fmt17h5dbd2eaeb5aaa5c7E
	.loc	54 2377 84
	andb	$1, %al
	movzbl	%al, %eax
	addq	$16, %rsp
	popq	%rbp
	retq
Ltmp1211:
Lfunc_end95:
	.cfi_endproc

	.globl	__ZN42_$LT$$RF$T$u20$as$u20$core..fmt..Debug$GT$3fmt17h273d87c5a86bd1abE
	.p2align	4, 0x90
__ZN42_$LT$$RF$T$u20$as$u20$core..fmt..Debug$GT$3fmt17h273d87c5a86bd1abE:
Lfunc_begin96:
	.loc	54 2377 0 is_stmt 1
	.cfi_startproc
	pushq	%rbp
	.cfi_def_cfa_offset 16
	.cfi_offset %rbp, -16
	movq	%rsp, %rbp
	.cfi_def_cfa_register %rbp
	subq	$16, %rsp
	movq	%rdi, -16(%rbp)
	movq	%rsi, -8(%rbp)
Ltmp1212:
	.loc	54 2377 71 prologue_end
	movq	(%rdi), %rdi
	.loc	54 2377 62 is_stmt 0
	callq	__ZN67_$LT$gif..reader..decoder..U16Value$u20$as$u20$core..fmt..Debug$GT$3fmt17h9efad9eff625130aE
	.loc	54 2377 84
	andb	$1, %al
	movzbl	%al, %eax
	addq	$16, %rsp
	popq	%rbp
	retq
Ltmp1213:
Lfunc_end96:
	.cfi_endproc

	.globl	__ZN42_$LT$$RF$T$u20$as$u20$core..fmt..Debug$GT$3fmt17h44ccab4f820681ecE
	.p2align	4, 0x90
__ZN42_$LT$$RF$T$u20$as$u20$core..fmt..Debug$GT$3fmt17h44ccab4f820681ecE:
Lfunc_begin97:
	.loc	54 2377 0 is_stmt 1
	.cfi_startproc
	pushq	%rbp
	.cfi_def_cfa_offset 16
	.cfi_offset %rbp, -16
	movq	%rsp, %rbp
	.cfi_def_cfa_register %rbp
	subq	$16, %rsp
	movq	%rdi, -16(%rbp)
	movq	%rsi, -8(%rbp)
Ltmp1214:
	.loc	54 2377 71 prologue_end
	movq	(%rdi), %rdi
	.loc	54 2377 62 is_stmt 0
	callq	__ZN4core3fmt3num50_$LT$impl$u20$core..fmt..Debug$u20$for$u20$u16$GT$3fmt17he915130d206ed5d1E
	.loc	54 2377 84
	andb	$1, %al
	movzbl	%al, %eax
	addq	$16, %rsp
	popq	%rbp
	retq
Ltmp1215:
Lfunc_end97:
	.cfi_endproc

	.globl	__ZN42_$LT$$RF$T$u20$as$u20$core..fmt..Debug$GT$3fmt17h4deef5409659a47bE
	.p2align	4, 0x90
__ZN42_$LT$$RF$T$u20$as$u20$core..fmt..Debug$GT$3fmt17h4deef5409659a47bE:
Lfunc_begin98:
	.loc	54 2377 0 is_stmt 1
	.cfi_startproc
	pushq	%rbp
	.cfi_def_cfa_offset 16
	.cfi_offset %rbp, -16
	movq	%rsp, %rbp
	.cfi_def_cfa_register %rbp
	subq	$16, %rsp
	movq	%rdi, -16(%rbp)
	movq	%rsi, -8(%rbp)
Ltmp1216:
	.loc	54 2377 71 prologue_end
	movq	(%rdi), %rdi
	.loc	54 2377 62 is_stmt 0
	callq	__ZN62_$LT$gif..common..AnyExtension$u20$as$u20$core..fmt..Debug$GT$3fmt17he94c30081da74e3eE
	.loc	54 2377 84
	andb	$1, %al
	movzbl	%al, %eax
	addq	$16, %rsp
	popq	%rbp
	retq
Ltmp1217:
Lfunc_end98:
	.cfi_endproc

	.globl	__ZN42_$LT$$RF$T$u20$as$u20$core..fmt..Debug$GT$3fmt17h5e1320bc08517445E
	.p2align	4, 0x90
__ZN42_$LT$$RF$T$u20$as$u20$core..fmt..Debug$GT$3fmt17h5e1320bc08517445E:
Lfunc_begin99:
	.loc	54 2377 0 is_stmt 1
	.cfi_startproc
	pushq	%rbp
	.cfi_def_cfa_offset 16
	.cfi_offset %rbp, -16
	movq	%rsp, %rbp
	.cfi_def_cfa_register %rbp
	subq	$16, %rsp
	movq	%rdi, -16(%rbp)
	movq	%rsi, -8(%rbp)
Ltmp1218:
	.loc	54 2377 71 prologue_end
	movq	(%rdi), %rdi
	.loc	54 2377 62 is_stmt 0
	callq	__ZN66_$LT$core..option..Option$LT$T$GT$$u20$as$u20$core..fmt..Debug$GT$3fmt17h02c46e29dd9edb7eE
	.loc	54 2377 84
	andb	$1, %al
	movzbl	%al, %eax
	addq	$16, %rsp
	popq	%rbp
	retq
Ltmp1219:
Lfunc_end99:
	.cfi_endproc

	.globl	__ZN42_$LT$$RF$T$u20$as$u20$core..fmt..Debug$GT$3fmt17h6a00afebd3d3a6a1E
	.p2align	4, 0x90
__ZN42_$LT$$RF$T$u20$as$u20$core..fmt..Debug$GT$3fmt17h6a00afebd3d3a6a1E:
Lfunc_begin100:
	.loc	54 2377 0 is_stmt 1
	.cfi_startproc
	pushq	%rbp
	.cfi_def_cfa_offset 16
	.cfi_offset %rbp, -16
	movq	%rsp, %rbp
	.cfi_def_cfa_register %rbp
	subq	$16, %rsp
	movq	%rdi, -16(%rbp)
	movq	%rsi, -8(%rbp)
Ltmp1220:
	.loc	54 2377 71 prologue_end
	movq	(%rdi), %rdi
	.loc	54 2377 62 is_stmt 0
	callq	__ZN61_$LT$gif..reader..ColorOutput$u20$as$u20$core..fmt..Debug$GT$3fmt17he409d215a9a5c757E
	.loc	54 2377 84
	andb	$1, %al
	movzbl	%al, %eax
	addq	$16, %rsp
	popq	%rbp
	retq
Ltmp1221:
Lfunc_end100:
	.cfi_endproc

	.globl	__ZN42_$LT$$RF$T$u20$as$u20$core..fmt..Debug$GT$3fmt17h6aa6485ee79a3bc0E
	.p2align	4, 0x90
__ZN42_$LT$$RF$T$u20$as$u20$core..fmt..Debug$GT$3fmt17h6aa6485ee79a3bc0E:
Lfunc_begin101:
	.loc	54 2377 0 is_stmt 1
	.cfi_startproc
	pushq	%rbp
	.cfi_def_cfa_offset 16
	.cfi_offset %rbp, -16
	movq	%rsp, %rbp
	.cfi_def_cfa_register %rbp
	subq	$16, %rsp
	movq	%rdi, -16(%rbp)
	movq	%rsi, -8(%rbp)
Ltmp1222:
	.loc	54 2377 71 prologue_end
	movq	(%rdi), %rdi
	.loc	54 2377 62 is_stmt 0
	callq	__ZN55_$LT$gif..common..Block$u20$as$u20$core..fmt..Debug$GT$3fmt17h50cfe1a7315cbcf5E
	.loc	54 2377 84
	andb	$1, %al
	movzbl	%al, %eax
	addq	$16, %rsp
	popq	%rbp
	retq
Ltmp1223:
Lfunc_end101:
	.cfi_endproc

	.globl	__ZN42_$LT$$RF$T$u20$as$u20$core..fmt..Debug$GT$3fmt17h76b001a0b04750f9E
	.p2align	4, 0x90
__ZN42_$LT$$RF$T$u20$as$u20$core..fmt..Debug$GT$3fmt17h76b001a0b04750f9E:
Lfunc_begin102:
	.loc	54 2377 0 is_stmt 1
	.cfi_startproc
	pushq	%rbp
	.cfi_def_cfa_offset 16
	.cfi_offset %rbp, -16
	movq	%rsp, %rbp
	.cfi_def_cfa_register %rbp
	subq	$16, %rsp
	movq	%rsi, %rdx
	movq	%rdi, %rax
	movq	%rax, -16(%rbp)
	movq	%rdx, -8(%rbp)
Ltmp1224:
	.loc	54 2377 71 prologue_end
	movq	(%rax), %rdi
	movq	8(%rax), %rsi
	.loc	54 2377 62 is_stmt 0
	callq	__ZN48_$LT$$u5b$T$u5d$$u20$as$u20$core..fmt..Debug$GT$3fmt17h7fb00c49a795ad71E
	.loc	54 2377 84
	andb	$1, %al
	movzbl	%al, %eax
	addq	$16, %rsp
	popq	%rbp
	retq
Ltmp1225:
Lfunc_end102:
	.cfi_endproc

	.globl	__ZN42_$LT$$RF$T$u20$as$u20$core..fmt..Debug$GT$3fmt17h7b22566d6bfd28a9E
	.p2align	4, 0x90
__ZN42_$LT$$RF$T$u20$as$u20$core..fmt..Debug$GT$3fmt17h7b22566d6bfd28a9E:
Lfunc_begin103:
	.loc	54 2377 0 is_stmt 1
	.cfi_startproc
	pushq	%rbp
	.cfi_def_cfa_offset 16
	.cfi_offset %rbp, -16
	movq	%rsp, %rbp
	.cfi_def_cfa_register %rbp
	subq	$16, %rsp
	movq	%rdi, -16(%rbp)
	movq	%rsi, -8(%rbp)
Ltmp1226:
	.loc	54 2377 71 prologue_end
	movq	(%rdi), %rdi
	.loc	54 2377 62 is_stmt 0
	callq	__ZN4core5array69_$LT$impl$u20$core..fmt..Debug$u20$for$u20$$u5b$T$u3b$$u20$N$u5d$$GT$3fmt17h411ad0128879ee1aE
	.loc	54 2377 84
	andb	$1, %al
	movzbl	%al, %eax
	addq	$16, %rsp
	popq	%rbp
	retq
Ltmp1227:
Lfunc_end103:
	.cfi_endproc

	.globl	__ZN42_$LT$$RF$T$u20$as$u20$core..fmt..Debug$GT$3fmt17h80f9733462f1aa8aE
	.p2align	4, 0x90
__ZN42_$LT$$RF$T$u20$as$u20$core..fmt..Debug$GT$3fmt17h80f9733462f1aa8aE:
Lfunc_begin104:
	.loc	54 2377 0 is_stmt 1
	.cfi_startproc
	pushq	%rbp
	.cfi_def_cfa_offset 16
	.cfi_offset %rbp, -16
	movq	%rsp, %rbp
	.cfi_def_cfa_register %rbp
	subq	$16, %rsp
	movq	%rdi, -16(%rbp)
	movq	%rsi, -8(%rbp)
Ltmp1228:
	.loc	54 2377 71 prologue_end
	movq	(%rdi), %rdi
	.loc	54 2377 62 is_stmt 0
	callq	__ZN42_$LT$$RF$T$u20$as$u20$core..fmt..Debug$GT$3fmt17h76b001a0b04750f9E
	.loc	54 2377 84
	andb	$1, %al
	movzbl	%al, %eax
	addq	$16, %rsp
	popq	%rbp
	retq
Ltmp1229:
Lfunc_end104:
	.cfi_endproc

	.globl	__ZN42_$LT$$RF$T$u20$as$u20$core..fmt..Debug$GT$3fmt17h9c8cf4a04c5fc21bE
	.p2align	4, 0x90
__ZN42_$LT$$RF$T$u20$as$u20$core..fmt..Debug$GT$3fmt17h9c8cf4a04c5fc21bE:
Lfunc_begin105:
	.loc	54 2377 0 is_stmt 1
	.cfi_startproc
	pushq	%rbp
	.cfi_def_cfa_offset 16
	.cfi_offset %rbp, -16
	movq	%rsp, %rbp
	.cfi_def_cfa_register %rbp
	subq	$16, %rsp
	movq	%rdi, -16(%rbp)
	movq	%rsi, -8(%rbp)
Ltmp1230:
	.loc	54 2377 71 prologue_end
	movq	(%rdi), %rdi
	.loc	54 2377 62 is_stmt 0
	callq	__ZN78_$LT$gif..reader..decoder..DecodingFormatError$u20$as$u20$core..fmt..Debug$GT$3fmt17hfe6fdf9991230de7E
	.loc	54 2377 84
	andb	$1, %al
	movzbl	%al, %eax
	addq	$16, %rsp
	popq	%rbp
	retq
Ltmp1231:
Lfunc_end105:
	.cfi_endproc

	.globl	__ZN42_$LT$$RF$T$u20$as$u20$core..fmt..Debug$GT$3fmt17ha172cac73ac8012bE
	.p2align	4, 0x90
__ZN42_$LT$$RF$T$u20$as$u20$core..fmt..Debug$GT$3fmt17ha172cac73ac8012bE:
Lfunc_begin106:
	.loc	54 2377 0 is_stmt 1
	.cfi_startproc
	pushq	%rbp
	.cfi_def_cfa_offset 16
	.cfi_offset %rbp, -16
	movq	%rsp, %rbp
	.cfi_def_cfa_register %rbp
	subq	$16, %rsp
	movq	%rdi, -16(%rbp)
	movq	%rsi, -8(%rbp)
Ltmp1232:
	.loc	54 2377 71 prologue_end
	movq	(%rdi), %rdi
	.loc	54 2377 62 is_stmt 0
	callq	__ZN61_$LT$gif..reader..MemoryLimit$u20$as$u20$core..fmt..Debug$GT$3fmt17ha88999cbadb2dd4dE
	.loc	54 2377 84
	andb	$1, %al
	movzbl	%al, %eax
	addq	$16, %rsp
	popq	%rbp
	retq
Ltmp1233:
Lfunc_end106:
	.cfi_endproc

	.globl	__ZN42_$LT$$RF$T$u20$as$u20$core..fmt..Debug$GT$3fmt17ha20808f7db60ab47E
	.p2align	4, 0x90
__ZN42_$LT$$RF$T$u20$as$u20$core..fmt..Debug$GT$3fmt17ha20808f7db60ab47E:
Lfunc_begin107:
	.loc	54 2377 0 is_stmt 1
	.cfi_startproc
	pushq	%rbp
	.cfi_def_cfa_offset 16
	.cfi_offset %rbp, -16
	movq	%rsp, %rbp
	.cfi_def_cfa_register %rbp
	subq	$16, %rsp
	movq	%rdi, -16(%rbp)
	movq	%rsi, -8(%rbp)
Ltmp1234:
	.loc	54 2377 71 prologue_end
	movq	(%rdi), %rdi
	.loc	54 2377 62 is_stmt 0
	callq	__ZN41_$LT$bool$u20$as$u20$core..fmt..Debug$GT$3fmt17hca48e5e772546a8dE
	.loc	54 2377 84
	andb	$1, %al
	movzbl	%al, %eax
	addq	$16, %rsp
	popq	%rbp
	retq
Ltmp1235:
Lfunc_end107:
	.cfi_endproc

	.globl	__ZN42_$LT$$RF$T$u20$as$u20$core..fmt..Debug$GT$3fmt17ha300b038e977f307E
	.p2align	4, 0x90
__ZN42_$LT$$RF$T$u20$as$u20$core..fmt..Debug$GT$3fmt17ha300b038e977f307E:
Lfunc_begin108:
	.loc	54 2377 0 is_stmt 1
	.cfi_startproc
	pushq	%rbp
	.cfi_def_cfa_offset 16
	.cfi_offset %rbp, -16
	movq	%rsp, %rbp
	.cfi_def_cfa_register %rbp
	subq	$16, %rsp
	movq	%rdi, -16(%rbp)
	movq	%rsi, -8(%rbp)
Ltmp1236:
	.loc	54 2377 71 prologue_end
	movq	(%rdi), %rdi
	.loc	54 2377 62 is_stmt 0
	callq	__ZN4core3fmt3num52_$LT$impl$u20$core..fmt..Debug$u20$for$u20$usize$GT$3fmt17h710a6a552e95d634E
	.loc	54 2377 84
	andb	$1, %al
	movzbl	%al, %eax
	addq	$16, %rsp
	popq	%rbp
	retq
Ltmp1237:
Lfunc_end108:
	.cfi_endproc

	.globl	__ZN42_$LT$$RF$T$u20$as$u20$core..fmt..Debug$GT$3fmt17ha7a4b1b594fcf42cE
	.p2align	4, 0x90
__ZN42_$LT$$RF$T$u20$as$u20$core..fmt..Debug$GT$3fmt17ha7a4b1b594fcf42cE:
Lfunc_begin109:
	.loc	54 2377 0 is_stmt 1
	.cfi_startproc
	pushq	%rbp
	.cfi_def_cfa_offset 16
	.cfi_offset %rbp, -16
	movq	%rsp, %rbp
	.cfi_def_cfa_register %rbp
	subq	$16, %rsp
	movq	%rdi, -16(%rbp)
	movq	%rsi, -8(%rbp)
Ltmp1238:
	.loc	54 2377 71 prologue_end
	movq	(%rdi), %rdi
	.loc	54 2377 62 is_stmt 0
	callq	__ZN64_$LT$alloc..borrow..Cow$LT$B$GT$$u20$as$u20$core..fmt..Debug$GT$3fmt17h2ae12576e3064e5fE
	.loc	54 2377 84
	andb	$1, %al
	movzbl	%al, %eax
	addq	$16, %rsp
	popq	%rbp
	retq
Ltmp1239:
Lfunc_end109:
	.cfi_endproc

	.globl	__ZN42_$LT$$RF$T$u20$as$u20$core..fmt..Debug$GT$3fmt17hb5623db1a54ee1c5E
	.p2align	4, 0x90
__ZN42_$LT$$RF$T$u20$as$u20$core..fmt..Debug$GT$3fmt17hb5623db1a54ee1c5E:
Lfunc_begin110:
	.loc	54 2377 0 is_stmt 1
	.cfi_startproc
	pushq	%rbp
	.cfi_def_cfa_offset 16
	.cfi_offset %rbp, -16
	movq	%rsp, %rbp
	.cfi_def_cfa_register %rbp
	subq	$16, %rsp
	movq	%rdi, -16(%rbp)
	movq	%rsi, -8(%rbp)
Ltmp1240:
	.loc	54 2377 71 prologue_end
	movq	(%rdi), %rdi
	.loc	54 2377 62 is_stmt 0
	callq	__ZN4core3fmt3num50_$LT$impl$u20$core..fmt..Debug$u20$for$u20$u32$GT$3fmt17h7b034eeddcb8f8c0E
	.loc	54 2377 84
	andb	$1, %al
	movzbl	%al, %eax
	addq	$16, %rsp
	popq	%rbp
	retq
Ltmp1241:
Lfunc_end110:
	.cfi_endproc

	.globl	__ZN42_$LT$$RF$T$u20$as$u20$core..fmt..Debug$GT$3fmt17hbb1c5cb8fd5c347dE
	.p2align	4, 0x90
__ZN42_$LT$$RF$T$u20$as$u20$core..fmt..Debug$GT$3fmt17hbb1c5cb8fd5c347dE:
Lfunc_begin111:
	.loc	54 2377 0 is_stmt 1
	.cfi_startproc
	pushq	%rbp
	.cfi_def_cfa_offset 16
	.cfi_offset %rbp, -16
	movq	%rsp, %rbp
	.cfi_def_cfa_register %rbp
	subq	$16, %rsp
	movq	%rdi, -16(%rbp)
	movq	%rsi, -8(%rbp)
Ltmp1242:
	.loc	54 2377 71 prologue_end
	movq	(%rdi), %rdi
	.loc	54 2377 62 is_stmt 0
	callq	__ZN66_$LT$gif..encoder..FormatErrorKind$u20$as$u20$core..fmt..Debug$GT$3fmt17h2d673747bcd620adE
	.loc	54 2377 84
	andb	$1, %al
	movzbl	%al, %eax
	addq	$16, %rsp
	popq	%rbp
	retq
Ltmp1243:
Lfunc_end111:
	.cfi_endproc

	.globl	__ZN42_$LT$$RF$T$u20$as$u20$core..fmt..Debug$GT$3fmt17hbfb63ac26c4db974E
	.p2align	4, 0x90
__ZN42_$LT$$RF$T$u20$as$u20$core..fmt..Debug$GT$3fmt17hbfb63ac26c4db974E:
Lfunc_begin112:
	.loc	54 2377 0 is_stmt 1
	.cfi_startproc
	pushq	%rbp
	.cfi_def_cfa_offset 16
	.cfi_offset %rbp, -16
	movq	%rsp, %rbp
	.cfi_def_cfa_register %rbp
	subq	$16, %rsp
	movq	%rdi, -16(%rbp)
	movq	%rsi, -8(%rbp)
Ltmp1244:
	.loc	54 2377 71 prologue_end
	movq	(%rdi), %rdi
	.loc	54 2377 62 is_stmt 0
	callq	__ZN70_$LT$gif..encoder..EncodingFormatError$u20$as$u20$core..fmt..Debug$GT$3fmt17hac6d6f2d8667bb7dE
	.loc	54 2377 84
	andb	$1, %al
	movzbl	%al, %eax
	addq	$16, %rsp
	popq	%rbp
	retq
Ltmp1245:
Lfunc_end112:
	.cfi_endproc

	.globl	__ZN42_$LT$$RF$T$u20$as$u20$core..fmt..Debug$GT$3fmt17hd34ee65879296a4fE
	.p2align	4, 0x90
__ZN42_$LT$$RF$T$u20$as$u20$core..fmt..Debug$GT$3fmt17hd34ee65879296a4fE:
Lfunc_begin113:
	.loc	54 2377 0 is_stmt 1
	.cfi_startproc
	pushq	%rbp
	.cfi_def_cfa_offset 16
	.cfi_offset %rbp, -16
	movq	%rsp, %rbp
	.cfi_def_cfa_register %rbp
	subq	$16, %rsp
	movq	%rdi, -16(%rbp)
	movq	%rsi, -8(%rbp)
Ltmp1246:
	.loc	54 2377 71 prologue_end
	movq	(%rdi), %rdi
	.loc	54 2377 62 is_stmt 0
	callq	__ZN66_$LT$core..option..Option$LT$T$GT$$u20$as$u20$core..fmt..Debug$GT$3fmt17hfb1f09efc9a1c2f6E
	.loc	54 2377 84
	andb	$1, %al
	movzbl	%al, %eax
	addq	$16, %rsp
	popq	%rbp
	retq
Ltmp1247:
Lfunc_end113:
	.cfi_endproc

	.globl	__ZN42_$LT$$RF$T$u20$as$u20$core..fmt..Debug$GT$3fmt17hdb103ce1a1ce4144E
	.p2align	4, 0x90
__ZN42_$LT$$RF$T$u20$as$u20$core..fmt..Debug$GT$3fmt17hdb103ce1a1ce4144E:
Lfunc_begin114:
	.loc	54 2377 0 is_stmt 1
	.cfi_startproc
	pushq	%rbp
	.cfi_def_cfa_offset 16
	.cfi_offset %rbp, -16
	movq	%rsp, %rbp
	.cfi_def_cfa_register %rbp
	subq	$16, %rsp
	movq	%rdi, -16(%rbp)
	movq	%rsi, -8(%rbp)
Ltmp1248:
	.loc	54 2377 71 prologue_end
	movq	(%rdi), %rdi
	.loc	54 2377 62 is_stmt 0
	callq	__ZN65_$LT$alloc..vec..Vec$LT$T$C$A$GT$$u20$as$u20$core..fmt..Debug$GT$3fmt17h84dc0a9849d6247aE
	.loc	54 2377 84
	andb	$1, %al
	movzbl	%al, %eax
	addq	$16, %rsp
	popq	%rbp
	retq
Ltmp1249:
Lfunc_end114:
	.cfi_endproc

	.globl	__ZN42_$LT$$RF$T$u20$as$u20$core..fmt..Debug$GT$3fmt17hdba1aed7db5daa26E
	.p2align	4, 0x90
__ZN42_$LT$$RF$T$u20$as$u20$core..fmt..Debug$GT$3fmt17hdba1aed7db5daa26E:
Lfunc_begin115:
	.loc	54 2377 0 is_stmt 1
	.cfi_startproc
	pushq	%rbp
	.cfi_def_cfa_offset 16
	.cfi_offset %rbp, -16
	movq	%rsp, %rbp
	.cfi_def_cfa_register %rbp
	subq	$16, %rsp
	movq	%rdi, -16(%rbp)
	movq	%rsi, -8(%rbp)
Ltmp1250:
	.loc	54 2377 71 prologue_end
	movq	(%rdi), %rdi
	.loc	54 2377 62 is_stmt 0
	callq	__ZN66_$LT$core..option..Option$LT$T$GT$$u20$as$u20$core..fmt..Debug$GT$3fmt17h487b6db5151fd779E
	.loc	54 2377 84
	andb	$1, %al
	movzbl	%al, %eax
	addq	$16, %rsp
	popq	%rbp
	retq
Ltmp1251:
Lfunc_end115:
	.cfi_endproc

	.globl	__ZN42_$LT$$RF$T$u20$as$u20$core..fmt..Debug$GT$3fmt17hee0ae366524b706aE
	.p2align	4, 0x90
__ZN42_$LT$$RF$T$u20$as$u20$core..fmt..Debug$GT$3fmt17hee0ae366524b706aE:
Lfunc_begin116:
	.loc	54 2377 0 is_stmt 1
	.cfi_startproc
	pushq	%rbp
	.cfi_def_cfa_offset 16
	.cfi_offset %rbp, -16
	movq	%rsp, %rbp
	.cfi_def_cfa_register %rbp
	subq	$16, %rsp
	movq	%rdi, -16(%rbp)
	movq	%rsi, -8(%rbp)
Ltmp1252:
	.loc	54 2377 71 prologue_end
	movq	(%rdi), %rdi
	.loc	54 2377 62 is_stmt 0
	callq	__ZN55_$LT$gif..common..Frame$u20$as$u20$core..fmt..Debug$GT$3fmt17hf2a2c132d5bcf503E
	.loc	54 2377 84
	andb	$1, %al
	movzbl	%al, %eax
	addq	$16, %rsp
	popq	%rbp
	retq
Ltmp1253:
Lfunc_end116:
	.cfi_endproc

	.globl	__ZN42_$LT$$RF$T$u20$as$u20$core..fmt..Debug$GT$3fmt17hfeca4f952be7a919E
	.p2align	4, 0x90
__ZN42_$LT$$RF$T$u20$as$u20$core..fmt..Debug$GT$3fmt17hfeca4f952be7a919E:
Lfunc_begin117:
	.loc	54 2377 0 is_stmt 1
	.cfi_startproc
	pushq	%rbp
	.cfi_def_cfa_offset 16
	.cfi_offset %rbp, -16
	movq	%rsp, %rbp
	.cfi_def_cfa_register %rbp
	subq	$16, %rsp
	movq	%rdi, -16(%rbp)
	movq	%rsi, -8(%rbp)
Ltmp1254:
	.loc	54 2377 71 prologue_end
	movq	(%rdi), %rdi
	.loc	54 2377 62 is_stmt 0
	callq	__ZN58_$LT$std..io..error..Error$u20$as$u20$core..fmt..Debug$GT$3fmt17h0f690fff27c65905E
	.loc	54 2377 84
	andb	$1, %al
	movzbl	%al, %eax
	addq	$16, %rsp
	popq	%rbp
	retq
Ltmp1255:
Lfunc_end117:
	.cfi_endproc

	.p2align	4, 0x90
__ZN46_$LT$u8$u20$as$u20$core..iter..range..Step$GT$13steps_between17h06337973f41a8cc2E:
Lfunc_begin118:
	.loc	24 242 0 is_stmt 1
	.cfi_startproc
	pushq	%rbp
	.cfi_def_cfa_offset 16
	.cfi_offset %rbp, -16
	movq	%rsp, %rbp
	.cfi_def_cfa_register %rbp
	subq	$48, %rsp
	movq	%rdi, -48(%rbp)
	movq	%rsi, -40(%rbp)
	movq	%rdi, -16(%rbp)
	movq	%rsi, -8(%rbp)
Ltmp1256:
	.loc	24 243 24 prologue_end
	movb	(%rdi), %al
	cmpb	(%rsi), %al
	jbe	LBB118_2
	.loc	24 247 25
	movq	$0, -32(%rbp)
	.loc	24 243 21
	jmp	LBB118_3
LBB118_2:
	.loc	24 0 21 is_stmt 0
	movq	-48(%rbp), %rcx
	movq	-40(%rbp), %rax
	.loc	24 245 31 is_stmt 1
	movb	(%rax), %al
	.loc	24 245 30 is_stmt 0
	subb	(%rcx), %al
	movzbl	%al, %eax
	.loc	24 245 25
	movq	%rax, -24(%rbp)
	movq	$1, -32(%rbp)
LBB118_3:
	.loc	24 249 18 is_stmt 1
	movq	-32(%rbp), %rax
	movq	-24(%rbp), %rdx
	addq	$48, %rsp
	popq	%rbp
	retq
Ltmp1257:
Lfunc_end118:
	.cfi_endproc

	.p2align	4, 0x90
__ZN46_$LT$u8$u20$as$u20$core..iter..range..Step$GT$17forward_unchecked17h91466df17e177f49E:
Lfunc_begin119:
	.loc	24 189 0
	.cfi_startproc
	pushq	%rbp
	.cfi_def_cfa_offset 16
	.cfi_offset %rbp, -16
	movq	%rsp, %rbp
	.cfi_def_cfa_register %rbp
	subq	$24, %rsp
	movb	%dil, %al
	movb	%al, -17(%rbp)
	movq	%rsi, -16(%rbp)
Ltmp1258:
	.loc	24 191 22 prologue_end
	movb	%al, -3(%rbp)
	.loc	24 191 42 is_stmt 0
	movb	%sil, %cl
	movb	%cl, -2(%rbp)
Ltmp1259:
	.loc	16 470 22 is_stmt 1
	addb	%cl, %al
	movb	%al, -1(%rbp)
	movb	-1(%rbp), %al
Ltmp1260:
	.loc	24 192 10
	addq	$24, %rsp
	popq	%rbp
	retq
Ltmp1261:
Lfunc_end119:
	.cfi_endproc

	.globl	__ZN48_$LT$$u5b$T$u5d$$u20$as$u20$core..fmt..Debug$GT$3fmt17h7fb00c49a795ad71E
	.p2align	4, 0x90
__ZN48_$LT$$u5b$T$u5d$$u20$as$u20$core..fmt..Debug$GT$3fmt17h7fb00c49a795ad71E:
Lfunc_begin120:
	.loc	54 2602 0
	.cfi_startproc
	pushq	%rbp
	.cfi_def_cfa_offset 16
	.cfi_offset %rbp, -16
	movq	%rsp, %rbp
	.cfi_def_cfa_register %rbp
	subq	$80, %rsp
	movq	%rdx, -80(%rbp)
	movq	%rsi, %rax
	movq	-80(%rbp), %rsi
	movq	%rdi, -72(%rbp)
	movq	%rax, -64(%rbp)
	movq	%rdi, -40(%rbp)
	movq	%rax, -32(%rbp)
	movq	%rsi, -24(%rbp)
Ltmp1262:
	.loc	54 2603 9 prologue_end
	leaq	-56(%rbp), %rdi
	callq	__ZN4core3fmt9Formatter10debug_list17hc648f6f2ff865c45E
	movq	-72(%rbp), %rdi
	movq	-64(%rbp), %rsi
	.loc	54 2603 32 is_stmt 0
	movq	%rdi, -16(%rbp)
	movq	%rsi, -8(%rbp)
Ltmp1263:
	.loc	49 742 9 is_stmt 1
	callq	__ZN4core5slice4iter13Iter$LT$T$GT$3new17hf773373dfa433181E
	movq	%rax, %rsi
Ltmp1264:
	.loc	54 2603 9
	leaq	-56(%rbp), %rdi
	callq	__ZN4core3fmt8builders9DebugList7entries17h9ee122df29edc3baE
	movq	%rax, %rdi
	callq	__ZN4core3fmt8builders9DebugList6finish17hed399f470c25b4b2E
	.loc	54 2604 6
	andb	$1, %al
	movzbl	%al, %eax
	addq	$80, %rsp
	popq	%rbp
	retq
Ltmp1265:
Lfunc_end120:
	.cfi_endproc

	.p2align	4, 0x90
__ZN49_$LT$usize$u20$as$u20$core..iter..range..Step$GT$15forward_checked17h6791968d2eb9bb6fE:
Lfunc_begin121:
	.loc	24 252 0
	.cfi_startproc
	pushq	%rbp
	.cfi_def_cfa_offset 16
	.cfi_offset %rbp, -16
	movq	%rsp, %rbp
	.cfi_def_cfa_register %rbp
	subq	$48, %rsp
	movq	%rsi, -48(%rbp)
	movq	%rdi, %rax
	movq	-48(%rbp), %rdi
	movq	%rax, -40(%rbp)
	movq	%rax, -24(%rbp)
	movq	%rdi, -16(%rbp)
Ltmp1266:
	.loc	24 253 27 prologue_end
	callq	__ZN53_$LT$T$u20$as$u20$core..convert..TryFrom$LT$U$GT$$GT$8try_from17hf69d448e3eb0f61fE
	movq	-40(%rbp), %rdi
	movq	%rax, -32(%rbp)
	.loc	24 254 28
	movq	-32(%rbp), %rsi
	movq	%rsi, -8(%rbp)
Ltmp1267:
	.loc	24 254 34 is_stmt 0
	callq	__ZN4core3num23_$LT$impl$u20$usize$GT$11checked_add17hcb38116b3f46a607E
Ltmp1268:
	.loc	24 257 18 is_stmt 1
	addq	$48, %rsp
	popq	%rbp
	retq
Ltmp1269:
Lfunc_end121:
	.cfi_endproc

	.p2align	4, 0x90
__ZN49_$LT$usize$u20$as$u20$core..iter..range..Step$GT$17forward_unchecked17hadd9212ce74362acE:
Lfunc_begin122:
	.loc	24 189 0
	.cfi_startproc
	pushq	%rbp
	.cfi_def_cfa_offset 16
	.cfi_offset %rbp, -16
	movq	%rsp, %rbp
	.cfi_def_cfa_register %rbp
	subq	$40, %rsp
	movq	%rdi, -40(%rbp)
	movq	%rsi, -32(%rbp)
Ltmp1270:
	.loc	24 191 22 prologue_end
	movq	%rdi, -24(%rbp)
	.loc	24 191 42 is_stmt 0
	movq	%rsi, -16(%rbp)
Ltmp1271:
	.loc	16 470 22 is_stmt 1
	addq	%rsi, %rdi
	movq	%rdi, -8(%rbp)
	movq	-8(%rbp), %rax
Ltmp1272:
	.loc	24 192 10
	addq	$40, %rsp
	popq	%rbp
	retq
Ltmp1273:
Lfunc_end122:
	.cfi_endproc

	.p2align	4, 0x90
__ZN49_$LT$usize$u20$as$u20$core..iter..range..Step$GT$18backward_unchecked17h6a4477b21134e0dfE:
Lfunc_begin123:
	.loc	24 195 0
	.cfi_startproc
	pushq	%rbp
	.cfi_def_cfa_offset 16
	.cfi_offset %rbp, -16
	movq	%rsp, %rbp
	.cfi_def_cfa_register %rbp
	subq	$40, %rsp
	movq	%rdi, -40(%rbp)
	movq	%rsi, -32(%rbp)
Ltmp1274:
	.loc	24 197 22 prologue_end
	movq	%rdi, -24(%rbp)
	.loc	24 197 42 is_stmt 0
	movq	%rsi, -16(%rbp)
Ltmp1275:
	.loc	16 539 22 is_stmt 1
	subq	%rsi, %rdi
	movq	%rdi, -8(%rbp)
	movq	-8(%rbp), %rax
Ltmp1276:
	.loc	24 198 10
	addq	$40, %rsp
	popq	%rbp
	retq
Ltmp1277:
Lfunc_end123:
	.cfi_endproc

	.globl	__ZN4core3any6TypeId2of17h34bb7dfebc485884E
	.p2align	4, 0x90
__ZN4core3any6TypeId2of17h34bb7dfebc485884E:
Lfunc_begin124:
	.loc	43 691 0
	.cfi_startproc
	pushq	%rbp
	.cfi_def_cfa_offset 16
	.cfi_offset %rbp, -16
	movq	%rsp, %rbp
	.cfi_def_cfa_register %rbp
	subq	$16, %rsp
Ltmp1278:
	.loc	43 692 21 prologue_end
	movabsq	$-3940626216777544958, %rax
	movq	%rax, -8(%rbp)
	movq	-8(%rbp), %rax
	.loc	43 692 9 is_stmt 0
	movq	%rax, -16(%rbp)
	.loc	43 693 6 is_stmt 1
	movq	-16(%rbp), %rax
	addq	$16, %rsp
	popq	%rbp
	retq
Ltmp1279:
Lfunc_end124:
	.cfi_endproc

	.globl	__ZN4core3any6TypeId2of17h4dff3654625e5212E
	.p2align	4, 0x90
__ZN4core3any6TypeId2of17h4dff3654625e5212E:
Lfunc_begin125:
	.loc	43 691 0
	.cfi_startproc
	pushq	%rbp
	.cfi_def_cfa_offset 16
	.cfi_offset %rbp, -16
	movq	%rsp, %rbp
	.cfi_def_cfa_register %rbp
	subq	$16, %rsp
Ltmp1280:
	.loc	43 692 21 prologue_end
	movabsq	$7347052152418787836, %rax
	movq	%rax, -8(%rbp)
	movq	-8(%rbp), %rax
	.loc	43 692 9 is_stmt 0
	movq	%rax, -16(%rbp)
	.loc	43 693 6 is_stmt 1
	movq	-16(%rbp), %rax
	addq	$16, %rsp
	popq	%rbp
	retq
Ltmp1281:
Lfunc_end125:
	.cfi_endproc

	.globl	__ZN4core3any6TypeId2of17h5d4140e8cfe1fcb5E
	.p2align	4, 0x90
__ZN4core3any6TypeId2of17h5d4140e8cfe1fcb5E:
Lfunc_begin126:
	.loc	43 691 0
	.cfi_startproc
	pushq	%rbp
	.cfi_def_cfa_offset 16
	.cfi_offset %rbp, -16
	movq	%rsp, %rbp
	.cfi_def_cfa_register %rbp
	subq	$16, %rsp
Ltmp1282:
	.loc	43 692 21 prologue_end
	movabsq	$-5684666298174358639, %rax
	movq	%rax, -8(%rbp)
	movq	-8(%rbp), %rax
	.loc	43 692 9 is_stmt 0
	movq	%rax, -16(%rbp)
	.loc	43 693 6 is_stmt 1
	movq	-16(%rbp), %rax
	addq	$16, %rsp
	popq	%rbp
	retq
Ltmp1283:
Lfunc_end126:
	.cfi_endproc

	.globl	__ZN4core3any6TypeId2of17hc886910344c7850cE
	.p2align	4, 0x90
__ZN4core3any6TypeId2of17hc886910344c7850cE:
Lfunc_begin127:
	.loc	43 691 0
	.cfi_startproc
	pushq	%rbp
	.cfi_def_cfa_offset 16
	.cfi_offset %rbp, -16
	movq	%rsp, %rbp
	.cfi_def_cfa_register %rbp
	subq	$16, %rsp
Ltmp1284:
	.loc	43 692 21 prologue_end
	movabsq	$-8527728395957036344, %rax
	movq	%rax, -8(%rbp)
	movq	-8(%rbp), %rax
	.loc	43 692 9 is_stmt 0
	movq	%rax, -16(%rbp)
	.loc	43 693 6 is_stmt 1
	movq	-16(%rbp), %rax
	addq	$16, %rsp
	popq	%rbp
	retq
Ltmp1285:
Lfunc_end127:
	.cfi_endproc

	.globl	__ZN4core3any6TypeId2of17hd7c774dd368a662bE
	.p2align	4, 0x90
__ZN4core3any6TypeId2of17hd7c774dd368a662bE:
Lfunc_begin128:
	.loc	43 691 0
	.cfi_startproc
	pushq	%rbp
	.cfi_def_cfa_offset 16
	.cfi_offset %rbp, -16
	movq	%rsp, %rbp
	.cfi_def_cfa_register %rbp
	subq	$16, %rsp
Ltmp1286:
	.loc	43 692 21 prologue_end
	movabsq	$-6866953669277914073, %rax
	movq	%rax, -8(%rbp)
	movq	-8(%rbp), %rax
	.loc	43 692 9 is_stmt 0
	movq	%rax, -16(%rbp)
	.loc	43 693 6 is_stmt 1
	movq	-16(%rbp), %rax
	addq	$16, %rsp
	popq	%rbp
	retq
Ltmp1287:
Lfunc_end128:
	.cfi_endproc

	.globl	__ZN4core3cmp10PartialOrd2lt17hec93948494204a25E
	.p2align	4, 0x90
__ZN4core3cmp10PartialOrd2lt17hec93948494204a25E:
Lfunc_begin129:
	.loc	30 1096 0
	.cfi_startproc
	pushq	%rbp
	.cfi_def_cfa_offset 16
	.cfi_offset %rbp, -16
	movq	%rsp, %rbp
	.cfi_def_cfa_register %rbp
	subq	$32, %rsp
	movq	%rdi, -16(%rbp)
	movq	%rsi, -8(%rbp)
Ltmp1288:
	.loc	30 1097 18 prologue_end
	callq	__ZN71_$LT$core..option..Option$LT$T$GT$$u20$as$u20$core..cmp..PartialOrd$GT$11partial_cmp17h86f4f9be014384acE
	movb	%al, -17(%rbp)
	movl	$1, %eax
	xorl	%ecx, %ecx
	cmpb	$2, -17(%rbp)
	cmoveq	%rcx, %rax
	.loc	30 1097 9 is_stmt 0
	cmpq	$1, %rax
	jne	LBB129_2
	cmpb	$-1, -17(%rbp)
	je	LBB129_3
LBB129_2:
	movb	$0, -18(%rbp)
	jmp	LBB129_4
LBB129_3:
	movb	$1, -18(%rbp)
LBB129_4:
	.loc	30 1098 6 is_stmt 1
	movb	-18(%rbp), %al
	andb	$1, %al
	movzbl	%al, %eax
	addq	$32, %rsp
	popq	%rbp
	retq
Ltmp1289:
Lfunc_end129:
	.cfi_endproc

	.globl	__ZN4core3cmp3min17h4ebe7a2fdb0a8409E
	.p2align	4, 0x90
__ZN4core3cmp3min17h4ebe7a2fdb0a8409E:
Lfunc_begin130:
	.loc	30 1184 0
	.cfi_startproc
	pushq	%rbp
	.cfi_def_cfa_offset 16
	.cfi_offset %rbp, -16
	movq	%rsp, %rbp
	.cfi_def_cfa_register %rbp
	subq	$16, %rsp
	movq	%rdi, -16(%rbp)
	movq	%rsi, -8(%rbp)
Ltmp1290:
	.loc	30 1185 5 prologue_end
	callq	__ZN4core3cmp3Ord3min17hf66a3a9a42f59cfbE
	.loc	30 1186 2
	addq	$16, %rsp
	popq	%rbp
	retq
Ltmp1291:
Lfunc_end130:
	.cfi_endproc

	.p2align	4, 0x90
__ZN4core3cmp5impls53_$LT$impl$u20$core..cmp..PartialEq$u20$for$u20$u8$GT$2eq17h8684243f4f980c98E:
Lfunc_begin131:
	.loc	30 1352 0
	.cfi_startproc
	pushq	%rbp
	.cfi_def_cfa_offset 16
	.cfi_offset %rbp, -16
	movq	%rsp, %rbp
	.cfi_def_cfa_register %rbp
	subq	$16, %rsp
	movq	%rdi, -16(%rbp)
	movq	%rsi, -8(%rbp)
Ltmp1292:
	.loc	30 1352 52 prologue_end
	movb	(%rdi), %al
	cmpb	(%rsi), %al
	sete	%al
	.loc	30 1352 73 is_stmt 0
	andb	$1, %al
	movzbl	%al, %eax
	addq	$16, %rsp
	popq	%rbp
	retq
Ltmp1293:
Lfunc_end131:
	.cfi_endproc

	.p2align	4, 0x90
__ZN4core3cmp5impls53_$LT$impl$u20$core..cmp..PartialEq$u20$for$u20$u8$GT$2ne17he6ab49d62b48bc12E:
Lfunc_begin132:
	.loc	30 1354 0 is_stmt 1
	.cfi_startproc
	pushq	%rbp
	.cfi_def_cfa_offset 16
	.cfi_offset %rbp, -16
	movq	%rsp, %rbp
	.cfi_def_cfa_register %rbp
	subq	$16, %rsp
	movq	%rdi, -16(%rbp)
	movq	%rsi, -8(%rbp)
Ltmp1294:
	.loc	30 1354 52 prologue_end
	movb	(%rdi), %al
	cmpb	(%rsi), %al
	setne	%al
	.loc	30 1354 73 is_stmt 0
	andb	$1, %al
	movzbl	%al, %eax
	addq	$16, %rsp
	popq	%rbp
	retq
Ltmp1295:
Lfunc_end132:
	.cfi_endproc

	.p2align	4, 0x90
__ZN4core3cmp5impls54_$LT$impl$u20$core..cmp..PartialOrd$u20$for$u20$u8$GT$2le17hcb4c8e542b06eef4E:
Lfunc_begin133:
	.loc	30 1443 0 is_stmt 1
	.cfi_startproc
	pushq	%rbp
	.cfi_def_cfa_offset 16
	.cfi_offset %rbp, -16
	movq	%rsp, %rbp
	.cfi_def_cfa_register %rbp
	subq	$16, %rsp
	movq	%rdi, -16(%rbp)
	movq	%rsi, -8(%rbp)
Ltmp1296:
	.loc	30 1443 52 prologue_end
	movb	(%rdi), %al
	cmpb	(%rsi), %al
	setbe	%al
	.loc	30 1443 73 is_stmt 0
	andb	$1, %al
	movzbl	%al, %eax
	addq	$16, %rsp
	popq	%rbp
	retq
Ltmp1297:
Lfunc_end133:
	.cfi_endproc

	.p2align	4, 0x90
__ZN4core3cmp5impls54_$LT$impl$u20$core..cmp..PartialOrd$u20$for$u20$u8$GT$2lt17h43f9aee9b3e7d18eE:
Lfunc_begin134:
	.loc	30 1441 0 is_stmt 1
	.cfi_startproc
	pushq	%rbp
	.cfi_def_cfa_offset 16
	.cfi_offset %rbp, -16
	movq	%rsp, %rbp
	.cfi_def_cfa_register %rbp
	subq	$16, %rsp
	movq	%rdi, -16(%rbp)
	movq	%rsi, -8(%rbp)
Ltmp1298:
	.loc	30 1441 52 prologue_end
	movb	(%rdi), %al
	cmpb	(%rsi), %al
	setb	%al
	.loc	30 1441 72 is_stmt 0
	andb	$1, %al
	movzbl	%al, %eax
	addq	$16, %rsp
	popq	%rbp
	retq
Ltmp1299:
Lfunc_end134:
	.cfi_endproc

	.p2align	4, 0x90
__ZN4core3cmp5impls55_$LT$impl$u20$core..cmp..PartialOrd$u20$for$u20$u16$GT$11partial_cmp17h9e22dda68164767aE:
Lfunc_begin135:
	.loc	30 1437 0 is_stmt 1
	.cfi_startproc
	pushq	%rbp
	.cfi_def_cfa_offset 16
	.cfi_offset %rbp, -16
	movq	%rsp, %rbp
	.cfi_def_cfa_register %rbp
	subq	$56, %rsp
	movq	%rdi, -56(%rbp)
	movq	%rsi, -48(%rbp)
	movq	%rdi, -32(%rbp)
	movq	%rsi, -24(%rbp)
Ltmp1300:
	.loc	30 1438 26 prologue_end
	movq	%rdi, -16(%rbp)
	.loc	30 1438 35 is_stmt 0
	movq	%rsi, -8(%rbp)
Ltmp1301:
	.loc	30 1457 24 is_stmt 1
	movw	(%rdi), %ax
	cmpw	(%rsi), %ax
	jb	LBB135_2
	.loc	30 0 24 is_stmt 0
	movq	-48(%rbp), %rcx
	movq	-56(%rbp), %rax
	.loc	30 1458 29 is_stmt 1
	movw	(%rax), %ax
	cmpw	(%rcx), %ax
	je	LBB135_5
	jmp	LBB135_4
LBB135_2:
	.loc	30 1457 41
	movb	$-1, -33(%rbp)
Ltmp1302:
LBB135_3:
	.loc	30 1438 21
	movb	-33(%rbp), %al
	movb	%al, -34(%rbp)
	.loc	30 1439 18
	movb	-34(%rbp), %al
	addq	$56, %rsp
	popq	%rbp
	retq
LBB135_4:
Ltmp1303:
	.loc	30 1459 28
	movb	$1, -33(%rbp)
	.loc	30 1458 26
	jmp	LBB135_6
LBB135_5:
	.loc	30 1458 47 is_stmt 0
	movb	$0, -33(%rbp)
LBB135_6:
	.loc	30 1457 21 is_stmt 1
	jmp	LBB135_3
Ltmp1304:
Lfunc_end135:
	.cfi_endproc

	.p2align	4, 0x90
__ZN4core3cmp5impls56_$LT$impl$u20$core..cmp..PartialEq$u20$for$u20$usize$GT$2eq17hd0ddd71d601d6a30E:
Lfunc_begin136:
	.loc	30 1352 0
	.cfi_startproc
	pushq	%rbp
	.cfi_def_cfa_offset 16
	.cfi_offset %rbp, -16
	movq	%rsp, %rbp
	.cfi_def_cfa_register %rbp
	subq	$16, %rsp
	movq	%rdi, -16(%rbp)
	movq	%rsi, -8(%rbp)
Ltmp1305:
	.loc	30 1352 52 prologue_end
	movq	(%rdi), %rax
	cmpq	(%rsi), %rax
	sete	%al
	.loc	30 1352 73 is_stmt 0
	andb	$1, %al
	movzbl	%al, %eax
	addq	$16, %rsp
	popq	%rbp
	retq
Ltmp1306:
Lfunc_end136:
	.cfi_endproc

	.p2align	4, 0x90
__ZN4core3cmp5impls57_$LT$impl$u20$core..cmp..PartialOrd$u20$for$u20$isize$GT$11partial_cmp17h280ea30cb8a083d0E:
Lfunc_begin137:
	.loc	30 1437 0 is_stmt 1
	.cfi_startproc
	pushq	%rbp
	.cfi_def_cfa_offset 16
	.cfi_offset %rbp, -16
	movq	%rsp, %rbp
	.cfi_def_cfa_register %rbp
	subq	$56, %rsp
	movq	%rdi, -56(%rbp)
	movq	%rsi, -48(%rbp)
	movq	%rdi, -32(%rbp)
	movq	%rsi, -24(%rbp)
Ltmp1307:
	.loc	30 1438 26 prologue_end
	movq	%rdi, -16(%rbp)
	.loc	30 1438 35 is_stmt 0
	movq	%rsi, -8(%rbp)
Ltmp1308:
	.loc	30 1457 24 is_stmt 1
	movq	(%rdi), %rax
	cmpq	(%rsi), %rax
	jl	LBB137_2
	.loc	30 0 24 is_stmt 0
	movq	-48(%rbp), %rcx
	movq	-56(%rbp), %rax
	.loc	30 1458 29 is_stmt 1
	movq	(%rax), %rax
	cmpq	(%rcx), %rax
	je	LBB137_5
	jmp	LBB137_4
LBB137_2:
	.loc	30 1457 41
	movb	$-1, -33(%rbp)
Ltmp1309:
LBB137_3:
	.loc	30 1438 21
	movb	-33(%rbp), %al
	movb	%al, -34(%rbp)
	.loc	30 1439 18
	movb	-34(%rbp), %al
	addq	$56, %rsp
	popq	%rbp
	retq
LBB137_4:
Ltmp1310:
	.loc	30 1459 28
	movb	$1, -33(%rbp)
	.loc	30 1458 26
	jmp	LBB137_6
LBB137_5:
	.loc	30 1458 47 is_stmt 0
	movb	$0, -33(%rbp)
LBB137_6:
	.loc	30 1457 21 is_stmt 1
	jmp	LBB137_3
Ltmp1311:
Lfunc_end137:
	.cfi_endproc

	.p2align	4, 0x90
__ZN4core3cmp5impls57_$LT$impl$u20$core..cmp..PartialOrd$u20$for$u20$usize$GT$2lt17hfe0b82d353945415E:
Lfunc_begin138:
	.loc	30 1441 0
	.cfi_startproc
	pushq	%rbp
	.cfi_def_cfa_offset 16
	.cfi_offset %rbp, -16
	movq	%rsp, %rbp
	.cfi_def_cfa_register %rbp
	subq	$16, %rsp
	movq	%rdi, -16(%rbp)
	movq	%rsi, -8(%rbp)
Ltmp1312:
	.loc	30 1441 52 prologue_end
	movq	(%rdi), %rax
	cmpq	(%rsi), %rax
	setb	%al
	.loc	30 1441 72 is_stmt 0
	andb	$1, %al
	movzbl	%al, %eax
	addq	$16, %rsp
	popq	%rbp
	retq
Ltmp1313:
Lfunc_end138:
	.cfi_endproc

	.globl	__ZN4core3cmp5impls69_$LT$impl$u20$core..cmp..PartialEq$LT$$RF$B$GT$$u20$for$u20$$RF$A$GT$2eq17hd0426db2cf70cac1E
	.p2align	4, 0x90
__ZN4core3cmp5impls69_$LT$impl$u20$core..cmp..PartialEq$LT$$RF$B$GT$$u20$for$u20$$RF$A$GT$2eq17hd0426db2cf70cac1E:
Lfunc_begin139:
	.loc	30 1530 0 is_stmt 1
	.cfi_startproc
	pushq	%rbp
	.cfi_def_cfa_offset 16
	.cfi_offset %rbp, -16
	movq	%rsp, %rbp
	.cfi_def_cfa_register %rbp
	subq	$16, %rsp
	movq	%rsi, %rax
	movq	%rdi, %rcx
	movq	%rcx, -16(%rbp)
	movq	%rax, -8(%rbp)
Ltmp1314:
	.loc	30 1531 27 prologue_end
	movq	(%rcx), %rdi
	movq	8(%rcx), %rsi
	.loc	30 1531 34 is_stmt 0
	movq	(%rax), %rdx
	.loc	30 1531 13
	callq	__ZN4core5array8equality92_$LT$impl$u20$core..cmp..PartialEq$LT$$u5b$A$u3b$$u20$N$u5d$$GT$$u20$for$u20$$u5b$B$u5d$$GT$2eq17h22c53f905d4d99b2E
	.loc	30 1532 10 is_stmt 1
	andb	$1, %al
	movzbl	%al, %eax
	addq	$16, %rsp
	popq	%rbp
	retq
Ltmp1315:
Lfunc_end139:
	.cfi_endproc

	.globl	__ZN4core3fmt10ArgumentV19new_debug17h16700ed0ea3417beE
	.p2align	4, 0x90
__ZN4core3fmt10ArgumentV19new_debug17h16700ed0ea3417beE:
Lfunc_begin140:
	.loc	54 327 0
	.cfi_startproc
	pushq	%rbp
	.cfi_def_cfa_offset 16
	.cfi_offset %rbp, -16
	movq	%rsp, %rbp
	.cfi_def_cfa_register %rbp
	subq	$56, %rsp
	movq	%rdi, -40(%rbp)
Ltmp1316:
	.loc	54 328 23 prologue_end
	movq	%rdi, -32(%rbp)
	.loc	54 328 26 is_stmt 0
	movq	__ZN59_$LT$weezl..error..LzwError$u20$as$u20$core..fmt..Debug$GT$3fmt17h5fb1b88bb4370e6cE@GOTPCREL(%rip), %rax
	movq	%rax, -24(%rbp)
Ltmp1317:
	.loc	54 347 42 is_stmt 1
	movq	%rax, -16(%rbp)
	movq	-16(%rbp), %rax
	.loc	54 347 68 is_stmt 0
	movq	%rdi, -8(%rbp)
	movq	-8(%rbp), %rcx
	.loc	54 347 18
	movq	%rcx, -56(%rbp)
	movq	%rax, -48(%rbp)
Ltmp1318:
	.loc	54 329 10 is_stmt 1
	movq	-56(%rbp), %rax
	movq	-48(%rbp), %rdx
	addq	$56, %rsp
	popq	%rbp
	retq
Ltmp1319:
Lfunc_end140:
	.cfi_endproc

	.p2align	4, 0x90
__ZN4core3fmt3num49_$LT$impl$u20$core..fmt..Debug$u20$for$u20$u8$GT$3fmt17h5dbd2eaeb5aaa5c7E:
Lfunc_begin141:
	.file	58 "/rustc/2c8cc343237b8f7d5a3c3703e3a87f2eb2c54a74/library/core/src/fmt" "num.rs"
	.loc	58 185 0
	.cfi_startproc
	pushq	%rbp
	.cfi_def_cfa_offset 16
	.cfi_offset %rbp, -16
	movq	%rsp, %rbp
	.cfi_def_cfa_register %rbp
	subq	$48, %rsp
	movq	%rsi, -48(%rbp)
	movq	%rdi, %rax
	movq	-48(%rbp), %rdi
	movq	%rax, -40(%rbp)
	movq	%rdi, -32(%rbp)
	movq	%rax, -16(%rbp)
	movq	%rdi, -8(%rbp)
Ltmp1320:
	.loc	58 186 20 prologue_end
	callq	__ZN4core3fmt9Formatter15debug_lower_hex17h0921e6b9188d914eE
	testb	$1, %al
	jne	LBB141_2
	.loc	58 0 20 is_stmt 0
	movq	-32(%rbp), %rdi
	.loc	58 188 27 is_stmt 1
	callq	__ZN4core3fmt9Formatter15debug_upper_hex17h8ce487049a6cccf8E
	testb	$1, %al
	jne	LBB141_5
	jmp	LBB141_4
LBB141_2:
	.loc	58 0 27 is_stmt 0
	movq	-32(%rbp), %rsi
	movq	-40(%rbp), %rdi
	.loc	58 187 21 is_stmt 1
	callq	__ZN4core3fmt3num52_$LT$impl$u20$core..fmt..LowerHex$u20$for$u20$u8$GT$3fmt17h5cfdcd8eebabca5eE
	andb	$1, %al
	movb	%al, -17(%rbp)
LBB141_3:
	.loc	58 193 14
	movb	-17(%rbp), %al
	andb	$1, %al
	movzbl	%al, %eax
	addq	$48, %rsp
	popq	%rbp
	retq
LBB141_4:
	.loc	58 0 14 is_stmt 0
	movq	-32(%rbp), %rsi
	movq	-40(%rbp), %rdi
	.loc	58 191 21 is_stmt 1
	callq	__ZN4core3fmt3num3imp51_$LT$impl$u20$core..fmt..Display$u20$for$u20$u8$GT$3fmt17he2a0798a745fb926E
	andb	$1, %al
	movb	%al, -17(%rbp)
	.loc	58 188 24
	jmp	LBB141_6
LBB141_5:
	.loc	58 0 24 is_stmt 0
	movq	-32(%rbp), %rsi
	movq	-40(%rbp), %rdi
	.loc	58 189 21 is_stmt 1
	callq	__ZN4core3fmt3num52_$LT$impl$u20$core..fmt..UpperHex$u20$for$u20$u8$GT$3fmt17h0d44eda8e53b13dbE
	andb	$1, %al
	movb	%al, -17(%rbp)
LBB141_6:
	.loc	58 186 17
	jmp	LBB141_3
Ltmp1321:
Lfunc_end141:
	.cfi_endproc

	.p2align	4, 0x90
__ZN4core3fmt3num50_$LT$impl$u20$core..fmt..Debug$u20$for$u20$u16$GT$3fmt17he915130d206ed5d1E:
Lfunc_begin142:
	.loc	58 185 0
	.cfi_startproc
	pushq	%rbp
	.cfi_def_cfa_offset 16
	.cfi_offset %rbp, -16
	movq	%rsp, %rbp
	.cfi_def_cfa_register %rbp
	subq	$48, %rsp
	movq	%rsi, -48(%rbp)
	movq	%rdi, %rax
	movq	-48(%rbp), %rdi
	movq	%rax, -40(%rbp)
	movq	%rdi, -32(%rbp)
	movq	%rax, -16(%rbp)
	movq	%rdi, -8(%rbp)
Ltmp1322:
	.loc	58 186 20 prologue_end
	callq	__ZN4core3fmt9Formatter15debug_lower_hex17h0921e6b9188d914eE
	testb	$1, %al
	jne	LBB142_2
	.loc	58 0 20 is_stmt 0
	movq	-32(%rbp), %rdi
	.loc	58 188 27 is_stmt 1
	callq	__ZN4core3fmt9Formatter15debug_upper_hex17h8ce487049a6cccf8E
	testb	$1, %al
	jne	LBB142_5
	jmp	LBB142_4
LBB142_2:
	.loc	58 0 27 is_stmt 0
	movq	-32(%rbp), %rsi
	movq	-40(%rbp), %rdi
	.loc	58 187 21 is_stmt 1
	callq	__ZN4core3fmt3num53_$LT$impl$u20$core..fmt..LowerHex$u20$for$u20$u16$GT$3fmt17he1af57f7bbe2599fE
	andb	$1, %al
	movb	%al, -17(%rbp)
LBB142_3:
	.loc	58 193 14
	movb	-17(%rbp), %al
	andb	$1, %al
	movzbl	%al, %eax
	addq	$48, %rsp
	popq	%rbp
	retq
LBB142_4:
	.loc	58 0 14 is_stmt 0
	movq	-32(%rbp), %rsi
	movq	-40(%rbp), %rdi
	.loc	58 191 21 is_stmt 1
	callq	__ZN4core3fmt3num3imp52_$LT$impl$u20$core..fmt..Display$u20$for$u20$u16$GT$3fmt17h7d8f7431eaeff3c6E
	andb	$1, %al
	movb	%al, -17(%rbp)
	.loc	58 188 24
	jmp	LBB142_6
LBB142_5:
	.loc	58 0 24 is_stmt 0
	movq	-32(%rbp), %rsi
	movq	-40(%rbp), %rdi
	.loc	58 189 21 is_stmt 1
	callq	__ZN4core3fmt3num53_$LT$impl$u20$core..fmt..UpperHex$u20$for$u20$u16$GT$3fmt17h2cf7e042780f1009E
	andb	$1, %al
	movb	%al, -17(%rbp)
LBB142_6:
	.loc	58 186 17
	jmp	LBB142_3
Ltmp1323:
Lfunc_end142:
	.cfi_endproc

	.p2align	4, 0x90
__ZN4core3fmt3num50_$LT$impl$u20$core..fmt..Debug$u20$for$u20$u32$GT$3fmt17h7b034eeddcb8f8c0E:
Lfunc_begin143:
	.loc	58 185 0
	.cfi_startproc
	pushq	%rbp
	.cfi_def_cfa_offset 16
	.cfi_offset %rbp, -16
	movq	%rsp, %rbp
	.cfi_def_cfa_register %rbp
	subq	$48, %rsp
	movq	%rsi, -48(%rbp)
	movq	%rdi, %rax
	movq	-48(%rbp), %rdi
	movq	%rax, -40(%rbp)
	movq	%rdi, -32(%rbp)
	movq	%rax, -16(%rbp)
	movq	%rdi, -8(%rbp)
Ltmp1324:
	.loc	58 186 20 prologue_end
	callq	__ZN4core3fmt9Formatter15debug_lower_hex17h0921e6b9188d914eE
	testb	$1, %al
	jne	LBB143_2
	.loc	58 0 20 is_stmt 0
	movq	-32(%rbp), %rdi
	.loc	58 188 27 is_stmt 1
	callq	__ZN4core3fmt9Formatter15debug_upper_hex17h8ce487049a6cccf8E
	testb	$1, %al
	jne	LBB143_5
	jmp	LBB143_4
LBB143_2:
	.loc	58 0 27 is_stmt 0
	movq	-32(%rbp), %rsi
	movq	-40(%rbp), %rdi
	.loc	58 187 21 is_stmt 1
	callq	__ZN4core3fmt3num53_$LT$impl$u20$core..fmt..LowerHex$u20$for$u20$u32$GT$3fmt17h794cf20b87700632E
	andb	$1, %al
	movb	%al, -17(%rbp)
LBB143_3:
	.loc	58 193 14
	movb	-17(%rbp), %al
	andb	$1, %al
	movzbl	%al, %eax
	addq	$48, %rsp
	popq	%rbp
	retq
LBB143_4:
	.loc	58 0 14 is_stmt 0
	movq	-32(%rbp), %rsi
	movq	-40(%rbp), %rdi
	.loc	58 191 21 is_stmt 1
	callq	__ZN4core3fmt3num3imp52_$LT$impl$u20$core..fmt..Display$u20$for$u20$u32$GT$3fmt17h081c917b2ee7d4e9E
	andb	$1, %al
	movb	%al, -17(%rbp)
	.loc	58 188 24
	jmp	LBB143_6
LBB143_5:
	.loc	58 0 24 is_stmt 0
	movq	-32(%rbp), %rsi
	movq	-40(%rbp), %rdi
	.loc	58 189 21 is_stmt 1
	callq	__ZN4core3fmt3num53_$LT$impl$u20$core..fmt..UpperHex$u20$for$u20$u32$GT$3fmt17ha96bbefe8f663d11E
	andb	$1, %al
	movb	%al, -17(%rbp)
LBB143_6:
	.loc	58 186 17
	jmp	LBB143_3
Ltmp1325:
Lfunc_end143:
	.cfi_endproc

	.p2align	4, 0x90
__ZN4core3fmt3num52_$LT$impl$u20$core..fmt..Debug$u20$for$u20$usize$GT$3fmt17h710a6a552e95d634E:
Lfunc_begin144:
	.loc	58 185 0
	.cfi_startproc
	pushq	%rbp
	.cfi_def_cfa_offset 16
	.cfi_offset %rbp, -16
	movq	%rsp, %rbp
	.cfi_def_cfa_register %rbp
	subq	$48, %rsp
	movq	%rsi, -48(%rbp)
	movq	%rdi, %rax
	movq	-48(%rbp), %rdi
	movq	%rax, -40(%rbp)
	movq	%rdi, -32(%rbp)
	movq	%rax, -16(%rbp)
	movq	%rdi, -8(%rbp)
Ltmp1326:
	.loc	58 186 20 prologue_end
	callq	__ZN4core3fmt9Formatter15debug_lower_hex17h0921e6b9188d914eE
	testb	$1, %al
	jne	LBB144_2
	.loc	58 0 20 is_stmt 0
	movq	-32(%rbp), %rdi
	.loc	58 188 27 is_stmt 1
	callq	__ZN4core3fmt9Formatter15debug_upper_hex17h8ce487049a6cccf8E
	testb	$1, %al
	jne	LBB144_5
	jmp	LBB144_4
LBB144_2:
	.loc	58 0 27 is_stmt 0
	movq	-32(%rbp), %rsi
	movq	-40(%rbp), %rdi
	.loc	58 187 21 is_stmt 1
	callq	__ZN4core3fmt3num55_$LT$impl$u20$core..fmt..LowerHex$u20$for$u20$usize$GT$3fmt17h84f349805fe63f8dE
	andb	$1, %al
	movb	%al, -17(%rbp)
LBB144_3:
	.loc	58 193 14
	movb	-17(%rbp), %al
	andb	$1, %al
	movzbl	%al, %eax
	addq	$48, %rsp
	popq	%rbp
	retq
LBB144_4:
	.loc	58 0 14 is_stmt 0
	movq	-32(%rbp), %rsi
	movq	-40(%rbp), %rdi
	.loc	58 191 21 is_stmt 1
	callq	__ZN4core3fmt3num3imp54_$LT$impl$u20$core..fmt..Display$u20$for$u20$usize$GT$3fmt17ha5c925fcd7ed33faE
	andb	$1, %al
	movb	%al, -17(%rbp)
	.loc	58 188 24
	jmp	LBB144_6
LBB144_5:
	.loc	58 0 24 is_stmt 0
	movq	-32(%rbp), %rsi
	movq	-40(%rbp), %rdi
	.loc	58 189 21 is_stmt 1
	callq	__ZN4core3fmt3num55_$LT$impl$u20$core..fmt..UpperHex$u20$for$u20$usize$GT$3fmt17h49aa717311edc293E
	andb	$1, %al
	movb	%al, -17(%rbp)
LBB144_6:
	.loc	58 186 17
	jmp	LBB144_3
Ltmp1327:
Lfunc_end144:
	.cfi_endproc

	.globl	__ZN4core3fmt5Write10write_char17h7d8dc0fb34d4b6a7E
	.p2align	4, 0x90
__ZN4core3fmt5Write10write_char17h7d8dc0fb34d4b6a7E:
Lfunc_begin145:
	.loc	54 168 0
	.cfi_startproc
	pushq	%rbp
	.cfi_def_cfa_offset 16
	.cfi_offset %rbp, -16
	movq	%rsp, %rbp
	.cfi_def_cfa_register %rbp
	subq	$80, %rsp
	movq	%rdi, -64(%rbp)
	movl	%esi, -68(%rbp)
	movq	%rdi, -48(%rbp)
	movl	%esi, -40(%rbp)
Ltmp1328:
	.loc	54 169 24 prologue_end
	movl	%esi, -36(%rbp)
	.loc	54 169 43 is_stmt 0
	leaq	-52(%rbp), %rdi
	xorl	%esi, %esi
	movl	$4, %edx
	callq	_memset
	movl	-68(%rbp), %edi
	.loc	54 169 38
	leaq	-52(%rbp), %rax
	movq	%rax, -32(%rbp)
	movq	$4, -24(%rbp)
Ltmp1329:
	.file	59 "/rustc/2c8cc343237b8f7d5a3c3703e3a87f2eb2c54a74/library/core/src/char" "methods.rs"
	.loc	59 663 42 is_stmt 1
	leaq	-52(%rbp), %rsi
	movl	$4, %edx
	callq	__ZN4core4char7methods15encode_utf8_raw17hc80d86e91fd6e2c4E
	movq	-64(%rbp), %rdi
	movq	%rax, %rsi
	movq	%rsi, -16(%rbp)
	movq	%rdx, -8(%rbp)
Ltmp1330:
	.loc	54 169 9
	callq	__ZN80_$LT$std..io..Write..write_fmt..Adapter$LT$T$GT$$u20$as$u20$core..fmt..Write$GT$9write_str17ha4db404d1929e158E
	.loc	54 170 6
	andb	$1, %al
	movzbl	%al, %eax
	addq	$80, %rsp
	popq	%rbp
	retq
Ltmp1331:
Lfunc_end145:
	.cfi_endproc

	.globl	__ZN4core3fmt5Write9write_fmt17h7d7803717d7ad942E
	.p2align	4, 0x90
__ZN4core3fmt5Write9write_fmt17h7d7803717d7ad942E:
Lfunc_begin146:
	.loc	54 196 0
	.cfi_startproc
	pushq	%rbp
	.cfi_def_cfa_offset 16
	.cfi_offset %rbp, -16
	movq	%rsp, %rbp
	.cfi_def_cfa_register %rbp
	subq	$64, %rsp
	movq	%rdi, -56(%rbp)
Ltmp1332:
	.loc	54 197 26 prologue_end
	leaq	-48(%rbp), %rdi
	movl	$48, %edx
	callq	_memcpy
Ltmp1333:
	.loc	54 197 9 is_stmt 0
	leaq	-56(%rbp), %rdi
	leaq	l___unnamed_4(%rip), %rsi
	leaq	-48(%rbp), %rdx
	callq	__ZN4core3fmt5write17hfa389e524187f2c6E
	.loc	54 198 6 is_stmt 1
	andb	$1, %al
	movzbl	%al, %eax
	addq	$64, %rsp
	popq	%rbp
	retq
Ltmp1334:
Lfunc_end146:
	.cfi_endproc

	.globl	__ZN4core3fmt8builders9DebugList7entries17h9ee122df29edc3baE
	.p2align	4, 0x90
__ZN4core3fmt8builders9DebugList7entries17h9ee122df29edc3baE:
Lfunc_begin147:
	.file	60 "/rustc/2c8cc343237b8f7d5a3c3703e3a87f2eb2c54a74/library/core/src/fmt" "builders.rs"
	.loc	60 627 0
	.cfi_startproc
	.cfi_personality 155, _rust_eh_personality
	.cfi_lsda 16, Lexception28
	pushq	%rbp
	.cfi_def_cfa_offset 16
	.cfi_offset %rbp, -16
	movq	%rsp, %rbp
	.cfi_def_cfa_register %rbp
	subq	$112, %rsp
	movq	%rdx, -96(%rbp)
	movq	%rsi, %rax
