	.section	__TEXT,__text,regular,pure_instructions
	.macosx_version_min 10, 7
	.file	1 "/Users/natalie/.cargo/registry/src/github.com-1ecc6299db9ec823/glutin-0.29.1" "src/lib.rs"
	.file	2 "/Users/natalie/.cargo/registry/src/github.com-1ecc6299db9ec823/objc-0.2.7/src" "macros.rs"
	.p2align	4, 0x90
__ZN15core_foundation6string8CFString3new17h03658e024e32ab05E:
Lfunc_begin0:
	.file	3 "/Users/natalie/.cargo/registry/src/github.com-1ecc6299db9ec823/core-foundation-0.9.3/src" "string.rs"
	.loc	3 109 0
	.cfi_startproc
	pushq	%rbp
	.cfi_def_cfa_offset 16
	.cfi_offset %rbp, -16
	movq	%rsp, %rbp
	.cfi_def_cfa_register %rbp
	subq	$64, %rsp
	movq	%rdi, -48(%rbp)
	movq	%rdi, -40(%rbp)
	movq	%rsi, -32(%rbp)
Ltmp0:
	.loc	3 111 54 prologue_end
	movq	_kCFAllocatorDefault@GOTPCREL(%rip), %rax
	movq	(%rax), %rax
	movq	%rax, -56(%rbp)
	movq	%rdi, -16(%rbp)
	movq	%rsi, -8(%rbp)
	.loc	3 113 54
	callq	__ZN4core3str21_$LT$impl$u20$str$GT$3len17h87d26a1adb015f73E
	movq	%rax, %rdi
	callq	__ZN67_$LT$usize$u20$as$u20$core_foundation..base..CFIndexConvertible$GT$10to_CFIndex17h6547a7a3172af5beE
	movq	-56(%rbp), %rdi
	movq	-48(%rbp), %rsi
	movq	%rax, %rdx
	.loc	3 111 30
	movl	$134217984, %ecx
	xorl	%r8d, %r8d
	callq	_CFStringCreateWithBytes
	movq	%rax, %rdi
	movq	%rdi, -24(%rbp)
Ltmp1:
	.loc	3 116 13
	callq	__ZN84_$LT$core_foundation..string..CFString$u20$as$u20$core_foundation..base..TCFType$GT$22wrap_under_create_rule17hd500e9ddfd7df253E
Ltmp2:
	.loc	3 118 6
	addq	$64, %rsp
	popq	%rbp
	retq
Ltmp3:
Lfunc_end0:
	.cfi_endproc

	.globl	__ZN42_$LT$$RF$T$u20$as$u20$core..fmt..Debug$GT$3fmt17h1abcd52aebd41667E
	.p2align	4, 0x90
__ZN42_$LT$$RF$T$u20$as$u20$core..fmt..Debug$GT$3fmt17h1abcd52aebd41667E:
Lfunc_begin1:
	.file	4 "/rustc/2c8cc343237b8f7d5a3c3703e3a87f2eb2c54a74/library/core/src/fmt" "mod.rs"
	.loc	4 2377 0
	.cfi_startproc
	pushq	%rbp
	.cfi_def_cfa_offset 16
	.cfi_offset %rbp, -16
	movq	%rsp, %rbp
	.cfi_def_cfa_register %rbp
	subq	$16, %rsp
	movq	%rdi, -16(%rbp)
	movq	%rsi, -8(%rbp)
Ltmp4:
	.loc	4 2377 71 prologue_end
	movq	(%rdi), %rdi
	.loc	4 2377 62 is_stmt 0
	callq	__ZN50_$LT$$LP$U$C$T$RP$$u20$as$u20$core..fmt..Debug$GT$3fmt17h6922f5c40077f94bE
	.loc	4 2377 84
	andb	$1, %al
	movzbl	%al, %eax
	addq	$16, %rsp
	popq	%rbp
	retq
Ltmp5:
Lfunc_end1:
	.cfi_endproc

	.globl	__ZN42_$LT$$RF$T$u20$as$u20$core..fmt..Debug$GT$3fmt17h246c9e6f34d215f4E
	.p2align	4, 0x90
__ZN42_$LT$$RF$T$u20$as$u20$core..fmt..Debug$GT$3fmt17h246c9e6f34d215f4E:
Lfunc_begin2:
	.loc	4 2377 0 is_stmt 1
	.cfi_startproc
	pushq	%rbp
	.cfi_def_cfa_offset 16
	.cfi_offset %rbp, -16
	movq	%rsp, %rbp
	.cfi_def_cfa_register %rbp
	subq	$16, %rsp
	movq	%rdi, -16(%rbp)
	movq	%rsi, -8(%rbp)
Ltmp6:
	.loc	4 2377 71 prologue_end
	movq	(%rdi), %rdi
	.loc	4 2377 62 is_stmt 0
	callq	__ZN85_$LT$glutin..platform_impl..platform..HeadlessContext$u20$as$u20$core..fmt..Debug$GT$3fmt17h4351c15d8da7f3a8E
	.loc	4 2377 84
	andb	$1, %al
	movzbl	%al, %eax
	addq	$16, %rsp
	popq	%rbp
	retq
Ltmp7:
Lfunc_end2:
	.cfi_endproc

	.globl	__ZN42_$LT$$RF$T$u20$as$u20$core..fmt..Debug$GT$3fmt17h35a0a6d198a27398E
	.p2align	4, 0x90
__ZN42_$LT$$RF$T$u20$as$u20$core..fmt..Debug$GT$3fmt17h35a0a6d198a27398E:
Lfunc_begin3:
	.loc	4 2377 0 is_stmt 1
	.cfi_startproc
	pushq	%rbp
	.cfi_def_cfa_offset 16
	.cfi_offset %rbp, -16
	movq	%rsp, %rbp
	.cfi_def_cfa_register %rbp
	subq	$16, %rsp
	movq	%rdi, -16(%rbp)
	movq	%rsi, -8(%rbp)
Ltmp8:
	.loc	4 2377 71 prologue_end
	movq	(%rdi), %rdi
	.loc	4 2377 62 is_stmt 0
	callq	__ZN48_$LT$glutin..Api$u20$as$u20$core..fmt..Debug$GT$3fmt17he2dbbf211383d49fE
	.loc	4 2377 84
	andb	$1, %al
	movzbl	%al, %eax
	addq	$16, %rsp
	popq	%rbp
	retq
Ltmp9:
Lfunc_end3:
	.cfi_endproc

	.globl	__ZN42_$LT$$RF$T$u20$as$u20$core..fmt..Debug$GT$3fmt17h3d88814e450f48f3E
	.p2align	4, 0x90
__ZN42_$LT$$RF$T$u20$as$u20$core..fmt..Debug$GT$3fmt17h3d88814e450f48f3E:
Lfunc_begin4:
	.loc	4 2377 0 is_stmt 1
	.cfi_startproc
	pushq	%rbp
	.cfi_def_cfa_offset 16
	.cfi_offset %rbp, -16
	movq	%rsp, %rbp
	.cfi_def_cfa_register %rbp
	subq	$16, %rsp
	movq	%rdi, -16(%rbp)
	movq	%rsi, -8(%rbp)
Ltmp10:
	.loc	4 2377 71 prologue_end
	movq	(%rdi), %rdi
	.loc	4 2377 62 is_stmt 0
	callq	__ZN85_$LT$glutin..platform_impl..platform..WindowedContext$u20$as$u20$core..fmt..Debug$GT$3fmt17hf046c8742a0aa98aE
	.loc	4 2377 84
	andb	$1, %al
	movzbl	%al, %eax
	addq	$16, %rsp
	popq	%rbp
	retq
Ltmp11:
Lfunc_end4:
	.cfi_endproc

	.globl	__ZN42_$LT$$RF$T$u20$as$u20$core..fmt..Debug$GT$3fmt17h5b5154a6ceab5b2dE
	.p2align	4, 0x90
__ZN42_$LT$$RF$T$u20$as$u20$core..fmt..Debug$GT$3fmt17h5b5154a6ceab5b2dE:
Lfunc_begin5:
	.loc	4 2377 0 is_stmt 1
	.cfi_startproc
	pushq	%rbp
	.cfi_def_cfa_offset 16
	.cfi_offset %rbp, -16
	movq	%rsp, %rbp
	.cfi_def_cfa_register %rbp
	subq	$16, %rsp
	movq	%rdi, -16(%rbp)
	movq	%rsi, -8(%rbp)
Ltmp12:
	.loc	4 2377 71 prologue_end
	movq	(%rdi), %rdi
	.loc	4 2377 62 is_stmt 0
	callq	__ZN71_$LT$core..marker..PhantomData$LT$T$GT$$u20$as$u20$core..fmt..Debug$GT$3fmt17haff3eceb360c83d3E
	.loc	4 2377 84
	andb	$1, %al
	movzbl	%al, %eax
	addq	$16, %rsp
	popq	%rbp
	retq
Ltmp13:
Lfunc_end5:
	.cfi_endproc

	.globl	__ZN42_$LT$$RF$T$u20$as$u20$core..fmt..Debug$GT$3fmt17h646df716b97f0973E
	.p2align	4, 0x90
__ZN42_$LT$$RF$T$u20$as$u20$core..fmt..Debug$GT$3fmt17h646df716b97f0973E:
Lfunc_begin6:
	.loc	4 2377 0 is_stmt 1
	.cfi_startproc
	pushq	%rbp
	.cfi_def_cfa_offset 16
	.cfi_offset %rbp, -16
	movq	%rsp, %rbp
	.cfi_def_cfa_register %rbp
	subq	$16, %rsp
	movq	%rdi, -16(%rbp)
	movq	%rsi, -8(%rbp)
Ltmp14:
	.loc	4 2377 71 prologue_end
	movq	(%rdi), %rdi
	.loc	4 2377 62 is_stmt 0
	callq	__ZN66_$LT$core..option..Option$LT$T$GT$$u20$as$u20$core..fmt..Debug$GT$3fmt17h4bde4630ce4dbbd3E
	.loc	4 2377 84
	andb	$1, %al
	movzbl	%al, %eax
	addq	$16, %rsp
	popq	%rbp
	retq
Ltmp15:
Lfunc_end6:
	.cfi_endproc

	.globl	__ZN42_$LT$$RF$T$u20$as$u20$core..fmt..Debug$GT$3fmt17h74d81918ca5e73d9E
	.p2align	4, 0x90
__ZN42_$LT$$RF$T$u20$as$u20$core..fmt..Debug$GT$3fmt17h74d81918ca5e73d9E:
Lfunc_begin7:
	.loc	4 2377 0 is_stmt 1
	.cfi_startproc
	pushq	%rbp
	.cfi_def_cfa_offset 16
	.cfi_offset %rbp, -16
	movq	%rsp, %rbp
	.cfi_def_cfa_register %rbp
	subq	$16, %rsp
	movq	%rdi, -16(%rbp)
	movq	%rsi, -8(%rbp)
Ltmp16:
	.loc	4 2377 71 prologue_end
	movq	(%rdi), %rdi
	.loc	4 2377 62 is_stmt 0
	callq	__ZN66_$LT$core..option..Option$LT$T$GT$$u20$as$u20$core..fmt..Debug$GT$3fmt17he8020232629cd262E
	.loc	4 2377 84
	andb	$1, %al
	movzbl	%al, %eax
	addq	$16, %rsp
	popq	%rbp
	retq
Ltmp17:
Lfunc_end7:
	.cfi_endproc

	.globl	__ZN42_$LT$$RF$T$u20$as$u20$core..fmt..Debug$GT$3fmt17ha2f9fdf748287f93E
	.p2align	4, 0x90
__ZN42_$LT$$RF$T$u20$as$u20$core..fmt..Debug$GT$3fmt17ha2f9fdf748287f93E:
Lfunc_begin8:
	.loc	4 2377 0 is_stmt 1
	.cfi_startproc
	pushq	%rbp
	.cfi_def_cfa_offset 16
	.cfi_offset %rbp, -16
	movq	%rsp, %rbp
	.cfi_def_cfa_register %rbp
	subq	$16, %rsp
	movq	%rdi, -16(%rbp)
	movq	%rsi, -8(%rbp)
Ltmp18:
	.loc	4 2377 71 prologue_end
	movq	(%rdi), %rdi
	.loc	4 2377 62 is_stmt 0
	callq	__ZN67_$LT$alloc..boxed..Box$LT$T$C$A$GT$$u20$as$u20$core..fmt..Debug$GT$3fmt17h853cd3d39b4e3bc4E
	.loc	4 2377 84
	andb	$1, %al
	movzbl	%al, %eax
	addq	$16, %rsp
	popq	%rbp
	retq
Ltmp19:
Lfunc_end8:
	.cfi_endproc

	.globl	__ZN42_$LT$$RF$T$u20$as$u20$core..fmt..Debug$GT$3fmt17hb844afe3c4706da5E
	.p2align	4, 0x90
__ZN42_$LT$$RF$T$u20$as$u20$core..fmt..Debug$GT$3fmt17hb844afe3c4706da5E:
Lfunc_begin9:
	.loc	4 2377 0 is_stmt 1
	.cfi_startproc
	pushq	%rbp
	.cfi_def_cfa_offset 16
	.cfi_offset %rbp, -16
	movq	%rsp, %rbp
	.cfi_def_cfa_register %rbp
	subq	$16, %rsp
	movq	%rdi, -16(%rbp)
	movq	%rsi, -8(%rbp)
Ltmp20:
	.loc	4 2377 71 prologue_end
	movq	(%rdi), %rdi
	.loc	4 2377 62 is_stmt 0
	callq	__ZN60_$LT$glutin..ReleaseBehavior$u20$as$u20$core..fmt..Debug$GT$3fmt17h094e5305a1608a34E
	.loc	4 2377 84
	andb	$1, %al
	movzbl	%al, %eax
	addq	$16, %rsp
	popq	%rbp
	retq
Ltmp21:
Lfunc_end9:
	.cfi_endproc

	.globl	__ZN42_$LT$$RF$T$u20$as$u20$core..fmt..Debug$GT$3fmt17hb90d98f195428cebE
	.p2align	4, 0x90
__ZN42_$LT$$RF$T$u20$as$u20$core..fmt..Debug$GT$3fmt17hb90d98f195428cebE:
Lfunc_begin10:
	.loc	4 2377 0 is_stmt 1
	.cfi_startproc
	pushq	%rbp
	.cfi_def_cfa_offset 16
	.cfi_offset %rbp, -16
	movq	%rsp, %rbp
	.cfi_def_cfa_register %rbp
	subq	$16, %rsp
	movq	%rdi, -16(%rbp)
	movq	%rsi, -8(%rbp)
Ltmp22:
	.loc	4 2377 71 prologue_end
	movq	(%rdi), %rdi
	.loc	4 2377 62 is_stmt 0
	callq	__ZN56_$LT$glutin..PixelFormat$u20$as$u20$core..fmt..Debug$GT$3fmt17hbef6295013dae520E
	.loc	4 2377 84
	andb	$1, %al
	movzbl	%al, %eax
	addq	$16, %rsp
	popq	%rbp
	retq
Ltmp23:
Lfunc_end10:
	.cfi_endproc

	.globl	__ZN42_$LT$$RF$T$u20$as$u20$core..fmt..Debug$GT$3fmt17hbb23343e0ee268abE
	.p2align	4, 0x90
__ZN42_$LT$$RF$T$u20$as$u20$core..fmt..Debug$GT$3fmt17hbb23343e0ee268abE:
Lfunc_begin11:
	.loc	4 2377 0 is_stmt 1
	.cfi_startproc
	pushq	%rbp
	.cfi_def_cfa_offset 16
	.cfi_offset %rbp, -16
	movq	%rsp, %rbp
	.cfi_def_cfa_register %rbp
	subq	$16, %rsp
	movq	%rdi, -16(%rbp)
	movq	%rsi, -8(%rbp)
Ltmp24:
	.loc	4 2377 71 prologue_end
	movq	(%rdi), %rdi
	.loc	4 2377 62 is_stmt 0
	callq	__ZN66_$LT$core..option..Option$LT$T$GT$$u20$as$u20$core..fmt..Debug$GT$3fmt17h0cd7dadaf9bb4a15E
	.loc	4 2377 84
	andb	$1, %al
	movzbl	%al, %eax
	addq	$16, %rsp
	popq	%rbp
	retq
Ltmp25:
Lfunc_end11:
	.cfi_endproc

	.globl	__ZN42_$LT$$RF$T$u20$as$u20$core..fmt..Debug$GT$3fmt17hbe6fef20b6bfcda4E
	.p2align	4, 0x90
__ZN42_$LT$$RF$T$u20$as$u20$core..fmt..Debug$GT$3fmt17hbe6fef20b6bfcda4E:
Lfunc_begin12:
	.loc	4 2377 0 is_stmt 1
	.cfi_startproc
	pushq	%rbp
	.cfi_def_cfa_offset 16
	.cfi_offset %rbp, -16
	movq	%rsp, %rbp
	.cfi_def_cfa_register %rbp
	subq	$16, %rsp
	movq	%rdi, -16(%rbp)
	movq	%rsi, -8(%rbp)
Ltmp26:
	.loc	4 2377 71 prologue_end
	movq	(%rdi), %rdi
	.loc	4 2377 62 is_stmt 0
	callq	__ZN75_$LT$glutin..platform_impl..platform..IdRef$u20$as$u20$core..fmt..Debug$GT$3fmt17hda3ab9b6d31249dcE
	.loc	4 2377 84
	andb	$1, %al
	movzbl	%al, %eax
	addq	$16, %rsp
	popq	%rbp
	retq
Ltmp27:
Lfunc_end12:
	.cfi_endproc

	.globl	__ZN42_$LT$$RF$T$u20$as$u20$core..fmt..Debug$GT$3fmt17hd2e8e1105c35a6e2E
	.p2align	4, 0x90
__ZN42_$LT$$RF$T$u20$as$u20$core..fmt..Debug$GT$3fmt17hd2e8e1105c35a6e2E:
Lfunc_begin13:
	.loc	4 2377 0 is_stmt 1
	.cfi_startproc
	pushq	%rbp
	.cfi_def_cfa_offset 16
	.cfi_offset %rbp, -16
	movq	%rsp, %rbp
	.cfi_def_cfa_register %rbp
	subq	$16, %rsp
	movq	%rdi, -16(%rbp)
	movq	%rsi, -8(%rbp)
Ltmp28:
	.loc	4 2377 71 prologue_end
	movq	(%rdi), %rdi
	.loc	4 2377 62 is_stmt 0
	callq	__ZN66_$LT$core..option..Option$LT$T$GT$$u20$as$u20$core..fmt..Debug$GT$3fmt17hed6780f5449ff51aE
	.loc	4 2377 84
	andb	$1, %al
	movzbl	%al, %eax
	addq	$16, %rsp
	popq	%rbp
	retq
Ltmp29:
Lfunc_end13:
	.cfi_endproc

	.globl	__ZN42_$LT$$RF$T$u20$as$u20$core..fmt..Debug$GT$3fmt17he3147194541f84d2E
	.p2align	4, 0x90
__ZN42_$LT$$RF$T$u20$as$u20$core..fmt..Debug$GT$3fmt17he3147194541f84d2E:
Lfunc_begin14:
	.loc	4 2377 0 is_stmt 1
	.cfi_startproc
	pushq	%rbp
	.cfi_def_cfa_offset 16
	.cfi_offset %rbp, -16
	movq	%rsp, %rbp
	.cfi_def_cfa_register %rbp
	subq	$16, %rsp
	movq	%rdi, -16(%rbp)
	movq	%rsi, -8(%rbp)
Ltmp30:
	.loc	4 2377 71 prologue_end
	movq	(%rdi), %rdi
	.loc	4 2377 62 is_stmt 0
	callq	__ZN65_$LT$alloc..vec..Vec$LT$T$C$A$GT$$u20$as$u20$core..fmt..Debug$GT$3fmt17h0e3ca3e558a8a5d8E
	.loc	4 2377 84
	andb	$1, %al
	movzbl	%al, %eax
	addq	$16, %rsp
	popq	%rbp
	retq
Ltmp31:
Lfunc_end14:
	.cfi_endproc

	.globl	__ZN42_$LT$$RF$T$u20$as$u20$core..fmt..Debug$GT$3fmt17hfc6f28a0cca04eceE
	.p2align	4, 0x90
__ZN42_$LT$$RF$T$u20$as$u20$core..fmt..Debug$GT$3fmt17hfc6f28a0cca04eceE:
Lfunc_begin15:
	.loc	4 2377 0 is_stmt 1
	.cfi_startproc
	pushq	%rbp
	.cfi_def_cfa_offset 16
	.cfi_offset %rbp, -16
	movq	%rsp, %rbp
	.cfi_def_cfa_register %rbp
	subq	$16, %rsp
	movq	%rdi, -16(%rbp)
	movq	%rsi, -8(%rbp)
Ltmp32:
	.loc	4 2377 71 prologue_end
	movq	(%rdi), %rdi
	.loc	4 2377 62 is_stmt 0
	callq	__ZN67_$LT$alloc..boxed..Box$LT$T$C$A$GT$$u20$as$u20$core..fmt..Debug$GT$3fmt17h75438cca27a314a1E
	.loc	4 2377 84
	andb	$1, %al
	movzbl	%al, %eax
	addq	$16, %rsp
	popq	%rbp
	retq
Ltmp33:
Lfunc_end15:
	.cfi_endproc

	.globl	__ZN44_$LT$$RF$T$u20$as$u20$core..fmt..Display$GT$3fmt17h22a568701ec411aaE
	.p2align	4, 0x90
__ZN44_$LT$$RF$T$u20$as$u20$core..fmt..Display$GT$3fmt17h22a568701ec411aaE:
Lfunc_begin16:
	.loc	4 2377 0 is_stmt 1
	.cfi_startproc
	pushq	%rbp
	.cfi_def_cfa_offset 16
	.cfi_offset %rbp, -16
	movq	%rsp, %rbp
	.cfi_def_cfa_register %rbp
	subq	$16, %rsp
	movq	%rdi, -16(%rbp)
	movq	%rsi, -8(%rbp)
Ltmp34:
	.loc	4 2377 71 prologue_end
	movq	(%rdi), %rdi
	.loc	4 2377 62 is_stmt 0
	callq	__ZN69_$LT$alloc..boxed..Box$LT$T$C$A$GT$$u20$as$u20$core..fmt..Display$GT$3fmt17h06b991396d65922eE
	.loc	4 2377 84
	andb	$1, %al
	movzbl	%al, %eax
	addq	$16, %rsp
	popq	%rbp
	retq
Ltmp35:
Lfunc_end16:
	.cfi_endproc

	.globl	__ZN44_$LT$$RF$T$u20$as$u20$core..fmt..Display$GT$3fmt17h292b9d56fe097da4E
	.p2align	4, 0x90
__ZN44_$LT$$RF$T$u20$as$u20$core..fmt..Display$GT$3fmt17h292b9d56fe097da4E:
Lfunc_begin17:
	.loc	4 2377 0 is_stmt 1
	.cfi_startproc
	pushq	%rbp
	.cfi_def_cfa_offset 16
	.cfi_offset %rbp, -16
	movq	%rsp, %rbp
	.cfi_def_cfa_register %rbp
	subq	$16, %rsp
	movq	%rdi, -16(%rbp)
	movq	%rsi, -8(%rbp)
Ltmp36:
	.loc	4 2377 71 prologue_end
	movq	(%rdi), %rdi
	.loc	4 2377 62 is_stmt 0
	callq	__ZN60_$LT$alloc..string..String$u20$as$u20$core..fmt..Display$GT$3fmt17hff915f8d5b326027E
	.loc	4 2377 84
	andb	$1, %al
	movzbl	%al, %eax
	addq	$16, %rsp
	popq	%rbp
	retq
Ltmp37:
Lfunc_end17:
	.cfi_endproc

	.globl	__ZN44_$LT$$RF$T$u20$as$u20$core..fmt..Display$GT$3fmt17h44141ccd0b994128E
	.p2align	4, 0x90
__ZN44_$LT$$RF$T$u20$as$u20$core..fmt..Display$GT$3fmt17h44141ccd0b994128E:
Lfunc_begin18:
	.loc	4 2377 0 is_stmt 1
	.cfi_startproc
	pushq	%rbp
	.cfi_def_cfa_offset 16
	.cfi_offset %rbp, -16
	movq	%rsp, %rbp
	.cfi_def_cfa_register %rbp
	subq	$16, %rsp
	movq	%rdi, -16(%rbp)
	movq	%rsi, -8(%rbp)
Ltmp38:
	.loc	4 2377 71 prologue_end
	movq	(%rdi), %rdi
	.loc	4 2377 62 is_stmt 0
	callq	__ZN69_$LT$alloc..boxed..Box$LT$T$C$A$GT$$u20$as$u20$core..fmt..Display$GT$3fmt17h26862bc01e29e603E
	.loc	4 2377 84
	andb	$1, %al
	movzbl	%al, %eax
	addq	$16, %rsp
	popq	%rbp
	retq
Ltmp39:
Lfunc_end18:
	.cfi_endproc

	.globl	__ZN44_$LT$$RF$T$u20$as$u20$core..fmt..Display$GT$3fmt17h7b5d85fe9732572fE
	.p2align	4, 0x90
__ZN44_$LT$$RF$T$u20$as$u20$core..fmt..Display$GT$3fmt17h7b5d85fe9732572fE:
Lfunc_begin19:
	.loc	4 2377 0 is_stmt 1
	.cfi_startproc
	pushq	%rbp
	.cfi_def_cfa_offset 16
	.cfi_offset %rbp, -16
	movq	%rsp, %rbp
	.cfi_def_cfa_register %rbp
	subq	$16, %rsp
	movq	%rdi, -16(%rbp)
	movq	%rsi, -8(%rbp)
Ltmp40:
	.loc	4 2377 71 prologue_end
	movq	(%rdi), %rdi
	.loc	4 2377 62 is_stmt 0
	callq	__ZN60_$LT$winit..error..OsError$u20$as$u20$core..fmt..Display$GT$3fmt17haf9a6d4ddabcccc5E
	.loc	4 2377 84
	andb	$1, %al
	movzbl	%al, %eax
	addq	$16, %rsp
	popq	%rbp
	retq
Ltmp41:
Lfunc_end19:
	.cfi_endproc

	.globl	__ZN44_$LT$$RF$T$u20$as$u20$core..fmt..Display$GT$3fmt17he22faa22a0000c53E
	.p2align	4, 0x90
__ZN44_$LT$$RF$T$u20$as$u20$core..fmt..Display$GT$3fmt17he22faa22a0000c53E:
Lfunc_begin20:
	.loc	4 2377 0 is_stmt 1
	.cfi_startproc
	pushq	%rbp
	.cfi_def_cfa_offset 16
	.cfi_offset %rbp, -16
	movq	%rsp, %rbp
	.cfi_def_cfa_register %rbp
	subq	$16, %rsp
	movq	%rdi, -16(%rbp)
	movq	%rsi, -8(%rbp)
Ltmp42:
	.loc	4 2377 71 prologue_end
	movq	(%rdi), %rdi
	.loc	4 2377 62 is_stmt 0
	callq	__ZN60_$LT$std..io..error..Error$u20$as$u20$core..fmt..Display$GT$3fmt17h30873c19434b7e15E
	.loc	4 2377 84
	andb	$1, %al
	movzbl	%al, %eax
	addq	$16, %rsp
	popq	%rbp
	retq
Ltmp43:
Lfunc_end20:
	.cfi_endproc

	.p2align	4, 0x90
__ZN45_$LT$$LP$$RP$$u20$as$u20$core..fmt..Debug$GT$3fmt17h267963d8d3d98ad4E:
Lfunc_begin21:
	.loc	4 2610 0 is_stmt 1
	.cfi_startproc
	pushq	%rbp
	.cfi_def_cfa_offset 16
	.cfi_offset %rbp, -16
	movq	%rsp, %rbp
	.cfi_def_cfa_register %rbp
	subq	$32, %rsp
	movq	%rsi, -24(%rbp)
	movq	%rdi, %rax
	movq	-24(%rbp), %rdi
	movq	%rax, -16(%rbp)
	movq	%rdi, -8(%rbp)
Ltmp44:
	.loc	4 2611 9 prologue_end
	leaq	l___unnamed_27(%rip), %rsi
	movl	$2, %edx
	callq	__ZN4core3fmt9Formatter3pad17h322dee5343842323E
	.loc	4 2612 6
	andb	$1, %al
	movzbl	%al, %eax
	addq	$32, %rsp
	popq	%rbp
	retq
Ltmp45:
Lfunc_end21:
	.cfi_endproc

	.globl	__ZN48_$LT$$u5b$T$u5d$$u20$as$u20$core..fmt..Debug$GT$3fmt17hb6cf5454f9e2bf24E
	.p2align	4, 0x90
__ZN48_$LT$$u5b$T$u5d$$u20$as$u20$core..fmt..Debug$GT$3fmt17hb6cf5454f9e2bf24E:
Lfunc_begin22:
	.loc	4 2602 0
	.cfi_startproc
	pushq	%rbp
	.cfi_def_cfa_offset 16
	.cfi_offset %rbp, -16
	movq	%rsp, %rbp
	.cfi_def_cfa_register %rbp
	subq	$80, %rsp
	movq	%rdx, -80(%rbp)
	movq	%rsi, %rax
	movq	-80(%rbp), %rsi
	movq	%rdi, -72(%rbp)
	movq	%rax, -64(%rbp)
	movq	%rdi, -40(%rbp)
	movq	%rax, -32(%rbp)
	movq	%rsi, -24(%rbp)
Ltmp46:
	.loc	4 2603 9 prologue_end
	leaq	-56(%rbp), %rdi
	callq	__ZN4core3fmt9Formatter10debug_list17hc648f6f2ff865c45E
	movq	-72(%rbp), %rdi
	movq	-64(%rbp), %rsi
	.loc	4 2603 32 is_stmt 0
	movq	%rdi, -16(%rbp)
	movq	%rsi, -8(%rbp)
Ltmp47:
	.file	5 "/rustc/2c8cc343237b8f7d5a3c3703e3a87f2eb2c54a74/library/core/src/slice" "mod.rs"
	.loc	5 742 9 is_stmt 1
	callq	__ZN4core5slice4iter13Iter$LT$T$GT$3new17hb8852cc64c321b1bE
	movq	%rax, %rsi
Ltmp48:
	.loc	4 2603 9
	leaq	-56(%rbp), %rdi
	callq	__ZN4core3fmt8builders9DebugList7entries17ha76c0f659b571b50E
	movq	%rax, %rdi
	callq	__ZN4core3fmt8builders9DebugList6finish17hed399f470c25b4b2E
	.loc	4 2604 6
	andb	$1, %al
	movzbl	%al, %eax
	addq	$80, %rsp
	popq	%rbp
	retq
Ltmp49:
Lfunc_end22:
	.cfi_endproc

	.globl	__ZN4core3any6TypeId2of17h4ed1f0c4dc4ae603E
	.p2align	4, 0x90
__ZN4core3any6TypeId2of17h4ed1f0c4dc4ae603E:
Lfunc_begin23:
	.file	6 "/rustc/2c8cc343237b8f7d5a3c3703e3a87f2eb2c54a74/library/core/src" "any.rs"
	.loc	6 691 0
	.cfi_startproc
	pushq	%rbp
	.cfi_def_cfa_offset 16
	.cfi_offset %rbp, -16
	movq	%rsp, %rbp
	.cfi_def_cfa_register %rbp
	subq	$16, %rsp
Ltmp50:
	.loc	6 692 21 prologue_end
	movabsq	$4256220875163045448, %rax
	movq	%rax, -8(%rbp)
	movq	-8(%rbp), %rax
	.loc	6 692 9 is_stmt 0
	movq	%rax, -16(%rbp)
	.loc	6 693 6 is_stmt 1
	movq	-16(%rbp), %rax
	addq	$16, %rsp
	popq	%rbp
	retq
Ltmp51:
Lfunc_end23:
	.cfi_endproc

	.globl	__ZN4core3any9type_name17h668304fb46a579e1E
	.p2align	4, 0x90
__ZN4core3any9type_name17h668304fb46a579e1E:
Lfunc_begin24:
	.loc	6 726 0
	.cfi_startproc
	pushq	%rbp
	.cfi_def_cfa_offset 16
	.cfi_offset %rbp, -16
	movq	%rsp, %rbp
	.cfi_def_cfa_register %rbp
	subq	$16, %rsp
Ltmp52:
	.loc	6 727 5 prologue_end
	leaq	l___unnamed_28(%rip), %rax
	movq	%rax, -16(%rbp)
	movq	$7, -8(%rbp)
	movq	-16(%rbp), %rax
	movq	-8(%rbp), %rdx
	.loc	6 728 2
	addq	$16, %rsp
	popq	%rbp
	retq
Ltmp53:
Lfunc_end24:
	.cfi_endproc

	.p2align	4, 0x90
__ZN4core3cmp5impls55_$LT$impl$u20$core..cmp..PartialEq$u20$for$u20$bool$GT$2eq17hb8a899884965186fE:
Lfunc_begin25:
	.file	7 "/rustc/2c8cc343237b8f7d5a3c3703e3a87f2eb2c54a74/library/core/src" "cmp.rs"
	.loc	7 1352 0
	.cfi_startproc
	pushq	%rbp
	.cfi_def_cfa_offset 16
	.cfi_offset %rbp, -16
	movq	%rsp, %rbp
	.cfi_def_cfa_register %rbp
	subq	$16, %rsp
	movq	%rdi, -16(%rbp)
	movq	%rsi, -8(%rbp)
Ltmp54:
	.loc	7 1352 52 prologue_end
	movb	(%rdi), %al
	.loc	7 1352 63 is_stmt 0
	movb	(%rsi), %cl
	.loc	7 1352 52
	xorb	%cl, %al
	xorb	$1, %al
	.loc	7 1352 73
	andb	$1, %al
	movzbl	%al, %eax
	addq	$16, %rsp
	popq	%rbp
	retq
Ltmp55:
Lfunc_end25:
	.cfi_endproc

	.globl	__ZN4core3cmp9PartialEq2ne17h1eb9b9494a717f7bE
	.p2align	4, 0x90
__ZN4core3cmp9PartialEq2ne17h1eb9b9494a717f7bE:
Lfunc_begin26:
	.loc	7 227 0 is_stmt 1
	.cfi_startproc
	pushq	%rbp
	.cfi_def_cfa_offset 16
	.cfi_offset %rbp, -16
	movq	%rsp, %rbp
	.cfi_def_cfa_register %rbp
	subq	$16, %rsp
	movq	%rdi, -16(%rbp)
	movq	%rsi, -8(%rbp)
Ltmp56:
	.loc	7 228 10 prologue_end
	callq	__ZN64_$LT$glutin..ReleaseBehavior$u20$as$u20$core..cmp..PartialEq$GT$2eq17h0eeb9e190a4734a3E
	.loc	7 228 9 is_stmt 0
	xorb	$-1, %al
	.loc	7 229 6 is_stmt 1
	andb	$1, %al
	movzbl	%al, %eax
	addq	$16, %rsp
	popq	%rbp
	retq
Ltmp57:
Lfunc_end26:
	.cfi_endproc

	.globl	__ZN4core3cmp9PartialEq2ne17hf6d50cbe6a03db2eE
	.p2align	4, 0x90
__ZN4core3cmp9PartialEq2ne17hf6d50cbe6a03db2eE:
Lfunc_begin27:
	.loc	7 227 0
	.cfi_startproc
	pushq	%rbp
	.cfi_def_cfa_offset 16
	.cfi_offset %rbp, -16
	movq	%rsp, %rbp
	.cfi_def_cfa_register %rbp
	subq	$16, %rsp
	movq	%rdi, -16(%rbp)
	movq	%rsi, -8(%rbp)
Ltmp58:
	.loc	7 228 10 prologue_end
	callq	__ZN70_$LT$core..option..Option$LT$T$GT$$u20$as$u20$core..cmp..PartialEq$GT$2eq17h084815a0d29a2298E
	.loc	7 228 9 is_stmt 0
	xorb	$-1, %al
	.loc	7 229 6 is_stmt 1
	andb	$1, %al
	movzbl	%al, %eax
	addq	$16, %rsp
	popq	%rbp
	retq
Ltmp59:
Lfunc_end27:
	.cfi_endproc

	.globl	__ZN4core3fmt10ArgumentV111new_display17h11c02a4f29a69f96E
	.p2align	4, 0x90
__ZN4core3fmt10ArgumentV111new_display17h11c02a4f29a69f96E:
Lfunc_begin28:
	.loc	4 327 0
	.cfi_startproc
	pushq	%rbp
	.cfi_def_cfa_offset 16
	.cfi_offset %rbp, -16
	movq	%rsp, %rbp
	.cfi_def_cfa_register %rbp
	subq	$56, %rsp
	movq	%rdi, -40(%rbp)
Ltmp60:
	.loc	4 328 23 prologue_end
	movq	%rdi, -32(%rbp)
	.loc	4 328 26 is_stmt 0
	leaq	__ZN44_$LT$$RF$T$u20$as$u20$core..fmt..Display$GT$3fmt17h22a568701ec411aaE(%rip), %rax
	movq	%rax, -24(%rbp)
Ltmp61:
	.loc	4 347 42 is_stmt 1
	movq	%rax, -16(%rbp)
	movq	-16(%rbp), %rax
	.loc	4 347 68 is_stmt 0
	movq	%rdi, -8(%rbp)
	movq	-8(%rbp), %rcx
	.loc	4 347 18
	movq	%rcx, -56(%rbp)
	movq	%rax, -48(%rbp)
Ltmp62:
	.loc	4 329 10 is_stmt 1
	movq	-56(%rbp), %rax
	movq	-48(%rbp), %rdx
	addq	$56, %rsp
	popq	%rbp
	retq
Ltmp63:
Lfunc_end28:
	.cfi_endproc

	.globl	__ZN4core3fmt10ArgumentV111new_display17h2f954cb215a650b6E
	.p2align	4, 0x90
__ZN4core3fmt10ArgumentV111new_display17h2f954cb215a650b6E:
Lfunc_begin29:
	.loc	4 327 0
	.cfi_startproc
	pushq	%rbp
	.cfi_def_cfa_offset 16
	.cfi_offset %rbp, -16
	movq	%rsp, %rbp
	.cfi_def_cfa_register %rbp
	subq	$56, %rsp
	movq	%rdi, -40(%rbp)
Ltmp64:
	.loc	4 328 23 prologue_end
	movq	%rdi, -32(%rbp)
	.loc	4 328 26 is_stmt 0
	leaq	__ZN44_$LT$$RF$T$u20$as$u20$core..fmt..Display$GT$3fmt17h7b5d85fe9732572fE(%rip), %rax
	movq	%rax, -24(%rbp)
Ltmp65:
	.loc	4 347 42 is_stmt 1
	movq	%rax, -16(%rbp)
	movq	-16(%rbp), %rax
	.loc	4 347 68 is_stmt 0
	movq	%rdi, -8(%rbp)
	movq	-8(%rbp), %rcx
	.loc	4 347 18
	movq	%rcx, -56(%rbp)
	movq	%rax, -48(%rbp)
Ltmp66:
	.loc	4 329 10 is_stmt 1
	movq	-56(%rbp), %rax
	movq	-48(%rbp), %rdx
	addq	$56, %rsp
	popq	%rbp
	retq
Ltmp67:
Lfunc_end29:
	.cfi_endproc

	.globl	__ZN4core3fmt10ArgumentV111new_display17h3c72cc00c9128a7cE
	.p2align	4, 0x90
__ZN4core3fmt10ArgumentV111new_display17h3c72cc00c9128a7cE:
Lfunc_begin30:
	.loc	4 327 0
	.cfi_startproc
	pushq	%rbp
	.cfi_def_cfa_offset 16
	.cfi_offset %rbp, -16
	movq	%rsp, %rbp
	.cfi_def_cfa_register %rbp
	subq	$56, %rsp
	movq	%rdi, -40(%rbp)
Ltmp68:
	.loc	4 328 23 prologue_end
	movq	%rdi, -32(%rbp)
	.loc	4 328 26 is_stmt 0
	leaq	__ZN44_$LT$$RF$T$u20$as$u20$core..fmt..Display$GT$3fmt17h44141ccd0b994128E(%rip), %rax
	movq	%rax, -24(%rbp)
Ltmp69:
	.loc	4 347 42 is_stmt 1
	movq	%rax, -16(%rbp)
	movq	-16(%rbp), %rax
	.loc	4 347 68 is_stmt 0
	movq	%rdi, -8(%rbp)
	movq	-8(%rbp), %rcx
	.loc	4 347 18
	movq	%rcx, -56(%rbp)
	movq	%rax, -48(%rbp)
Ltmp70:
	.loc	4 329 10 is_stmt 1
	movq	-56(%rbp), %rax
	movq	-48(%rbp), %rdx
	addq	$56, %rsp
	popq	%rbp
	retq
Ltmp71:
Lfunc_end30:
	.cfi_endproc

	.globl	__ZN4core3fmt10ArgumentV111new_display17h9d9762d10739013cE
	.p2align	4, 0x90
__ZN4core3fmt10ArgumentV111new_display17h9d9762d10739013cE:
Lfunc_begin31:
	.loc	4 327 0
	.cfi_startproc
	pushq	%rbp
	.cfi_def_cfa_offset 16
	.cfi_offset %rbp, -16
	movq	%rsp, %rbp
	.cfi_def_cfa_register %rbp
	subq	$56, %rsp
	movq	%rdi, -40(%rbp)
Ltmp72:
	.loc	4 328 23 prologue_end
	movq	%rdi, -32(%rbp)
	.loc	4 328 26 is_stmt 0
	leaq	__ZN44_$LT$$RF$T$u20$as$u20$core..fmt..Display$GT$3fmt17h292b9d56fe097da4E(%rip), %rax
	movq	%rax, -24(%rbp)
Ltmp73:
	.loc	4 347 42 is_stmt 1
	movq	%rax, -16(%rbp)
	movq	-16(%rbp), %rax
	.loc	4 347 68 is_stmt 0
	movq	%rdi, -8(%rbp)
	movq	-8(%rbp), %rcx
	.loc	4 347 18
	movq	%rcx, -56(%rbp)
	movq	%rax, -48(%rbp)
Ltmp74:
	.loc	4 329 10 is_stmt 1
	movq	-56(%rbp), %rax
	movq	-48(%rbp), %rdx
	addq	$56, %rsp
	popq	%rbp
	retq
Ltmp75:
Lfunc_end31:
	.cfi_endproc

	.globl	__ZN4core3fmt10ArgumentV111new_display17he6a60863e1ba2c39E
	.p2align	4, 0x90
__ZN4core3fmt10ArgumentV111new_display17he6a60863e1ba2c39E:
Lfunc_begin32:
	.loc	4 327 0
	.cfi_startproc
	pushq	%rbp
	.cfi_def_cfa_offset 16
	.cfi_offset %rbp, -16
	movq	%rsp, %rbp
	.cfi_def_cfa_register %rbp
	subq	$56, %rsp
	movq	%rdi, -40(%rbp)
Ltmp76:
	.loc	4 328 23 prologue_end
	movq	%rdi, -32(%rbp)
	.loc	4 328 26 is_stmt 0
	leaq	__ZN44_$LT$$RF$T$u20$as$u20$core..fmt..Display$GT$3fmt17he22faa22a0000c53E(%rip), %rax
	movq	%rax, -24(%rbp)
Ltmp77:
	.loc	4 347 42 is_stmt 1
	movq	%rax, -16(%rbp)
	movq	-16(%rbp), %rax
	.loc	4 347 68 is_stmt 0
	movq	%rdi, -8(%rbp)
	movq	-8(%rbp), %rcx
	.loc	4 347 18
	movq	%rcx, -56(%rbp)
	movq	%rax, -48(%rbp)
Ltmp78:
	.loc	4 329 10 is_stmt 1
	movq	-56(%rbp), %rax
	movq	-48(%rbp), %rdx
	addq	$56, %rsp
	popq	%rbp
	retq
Ltmp79:
Lfunc_end32:
	.cfi_endproc

	.globl	__ZN4core3fmt8builders9DebugList7entries17ha76c0f659b571b50E
	.p2align	4, 0x90
__ZN4core3fmt8builders9DebugList7entries17ha76c0f659b571b50E:
Lfunc_begin33:
	.file	8 "/rustc/2c8cc343237b8f7d5a3c3703e3a87f2eb2c54a74/library/core/src/fmt" "builders.rs"
	.loc	8 627 0
	.cfi_startproc
	.cfi_personality 155, _rust_eh_personality
	.cfi_lsda 16, Lexception0
	pushq	%rbp
	.cfi_def_cfa_offset 16
	.cfi_offset %rbp, -16
	movq	%rsp, %rbp
	.cfi_def_cfa_register %rbp
	subq	$112, %rsp
	movq	%rdx, -96(%rbp)
	movq	%rsi, %rax
	movq	-96(%rbp), %rsi
	movq	%rax, -88(%rbp)
	movq	%rdi, %rax
	movq	-88(%rbp), %rdi
	movq	%rax, -80(%rbp)
	movq	%rax, -40(%rbp)
	movq	%rdi, -32(%rbp)
	movq	%rsi, -24(%rbp)
Ltmp86:
	.loc	8 632 22 prologue_end
	callq	__ZN63_$LT$I$u20$as$u20$core..iter..traits..collect..IntoIterator$GT$9into_iter17hb6436f312f1b7c1cE
	movq	%rax, -72(%rbp)
	movq	%rdx, -64(%rbp)
LBB33_1:
Ltmp80:
	.loc	8 0 22 is_stmt 0
	leaq	-72(%rbp), %rdi
Ltmp87:
	.loc	8 632 22
	callq	__ZN91_$LT$core..slice..iter..Iter$LT$T$GT$$u20$as$u20$core..iter..traits..iterator..Iterator$GT$4next17ha748b2045d60c444E
Ltmp81:
	movq	%rax, -104(%rbp)
	jmp	LBB33_4
Ltmp88:
LBB33_2:
	.loc	8 627 5 is_stmt 1
	movq	-16(%rbp), %rdi
	callq	__Unwind_Resume
LBB33_3:
Ltmp82:
	.loc	8 0 5 is_stmt 0
	movq	%rax, %rcx
	movl	%edx, %eax
	movq	%rcx, -16(%rbp)
	movl	%eax, -8(%rbp)
	jmp	LBB33_2
LBB33_4:
	movq	-104(%rbp), %rax
Ltmp89:
	.loc	8 632 22 is_stmt 1
	movq	%rax, -56(%rbp)
	movq	-56(%rbp), %rdx
	movl	$1, %eax
	xorl	%ecx, %ecx
	cmpq	$0, %rdx
	cmoveq	%rcx, %rax
	cmpq	$0, %rax
	jne	LBB33_6
Ltmp90:
	.loc	8 0 22 is_stmt 0
	movq	-80(%rbp), %rax
	.loc	8 636 6 is_stmt 1
	addq	$112, %rsp
	popq	%rbp
	retq
LBB33_6:
	.loc	8 0 6 is_stmt 0
	movq	-80(%rbp), %rdi
Ltmp91:
	.loc	8 632 13 is_stmt 1
	movq	-56(%rbp), %rax
	movq	%rax, -48(%rbp)
Ltmp83:
Ltmp92:
	.loc	8 633 13
	leaq	l___unnamed_1(%rip), %rdx
	leaq	-48(%rbp), %rsi
	callq	__ZN4core3fmt8builders9DebugList5entry17h90e9fab3d6cede22E
Ltmp84:
	jmp	LBB33_9
Ltmp93:
LBB33_7:
	.loc	8 634 9
	jmp	LBB33_2
LBB33_8:
Ltmp85:
	.loc	8 0 9 is_stmt 0
	movq	%rax, %rcx
	movl	%edx, %eax
	movq	%rcx, -16(%rbp)
	movl	%eax, -8(%rbp)
	jmp	LBB33_7
LBB33_9:
	.loc	8 634 9
	jmp	LBB33_10
LBB33_10:
	.loc	8 632 9 is_stmt 1
	jmp	LBB33_1
Ltmp94:
Lfunc_end33:
	.cfi_endproc
	.section	__TEXT,__gcc_except_tab
	.p2align	2
GCC_except_table33:
Lexception0:
	.byte	255
	.byte	255
	.byte	1
	.uleb128 Lcst_end0-Lcst_begin0
Lcst_begin0:
	.uleb128 Lfunc_begin33-Lfunc_begin33
	.uleb128 Ltmp80-Lfunc_begin33
	.byte	0
	.byte	0
	.uleb128 Ltmp80-Lfunc_begin33
	.uleb128 Ltmp81-Ltmp80
	.uleb128 Ltmp82-Lfunc_begin33
	.byte	0
	.uleb128 Ltmp81-Lfunc_begin33
	.uleb128 Ltmp83-Ltmp81
	.byte	0
	.byte	0
	.uleb128 Ltmp83-Lfunc_begin33
	.uleb128 Ltmp84-Ltmp83
	.uleb128 Ltmp85-Lfunc_begin33
	.byte	0
Lcst_end0:
	.p2align	2

	.section	__TEXT,__text,regular,pure_instructions
	.p2align	4, 0x90
__ZN4core3fmt9Arguments6new_v117h6e7458c47a18cc83E:
Lfunc_begin34:
	.loc	4 399 0
	.cfi_startproc
	pushq	%rbp
	.cfi_def_cfa_offset 16
	.cfi_offset %rbp, -16
	movq	%rsp, %rbp
	.cfi_def_cfa_register %rbp
	subq	$160, %rsp
	movq	%r8, -152(%rbp)
	movq	%rcx, -144(%rbp)
	movq	%rdx, -136(%rbp)
	movq	%rsi, -128(%rbp)
	movq	%rdi, -120(%rbp)
	movq	%rdi, -112(%rbp)
	movq	%rsi, -32(%rbp)
	movq	%rdx, -24(%rbp)
	movq	%rcx, -16(%rbp)
	movq	%r8, -8(%rbp)
Ltmp95:
	.loc	4 400 12 prologue_end
	cmpq	%r8, %rdx
	jb	LBB34_2
	.loc	4 0 12 is_stmt 0
	movq	-136(%rbp), %rax
	movq	-152(%rbp), %rcx
	.loc	4 400 56
	addq	$1, %rcx
	.loc	4 400 41
	cmpq	%rcx, %rax
	seta	%al
	.loc	4 400 12
	andb	$1, %al
	movb	%al, -97(%rbp)
	jmp	LBB34_3
LBB34_2:
	movb	$1, -97(%rbp)
LBB34_3:
	testb	$1, -97(%rbp)
	jne	LBB34_5
	.loc	4 0 12
	movq	-112(%rbp), %rax
	movq	-120(%rbp), %rcx
	movq	-152(%rbp), %rdx
	movq	-144(%rbp), %rsi
	movq	-136(%rbp), %rdi
	movq	-128(%rbp), %r8
	.loc	4 403 34 is_stmt 1
	movq	$0, -48(%rbp)
	.loc	4 403 9 is_stmt 0
	movq	%r8, 16(%rcx)
	movq	%rdi, 24(%rcx)
	movq	-48(%rbp), %r8
	movq	-40(%rbp), %rdi
	movq	%r8, (%rcx)
	movq	%rdi, 8(%rcx)
	movq	%rsi, 32(%rcx)
	movq	%rdx, 40(%rcx)
	.loc	4 404 6 is_stmt 1
	addq	$160, %rsp
	popq	%rbp
	retq
LBB34_5:
	.loc	4 401 13
	leaq	l___unnamed_29(%rip), %rsi
	leaq	l___unnamed_30(%rip), %rcx
	xorl	%eax, %eax
	movl	%eax, %r8d
	leaq	-96(%rbp), %rdi
	movq	%rdi, -160(%rbp)
	movl	$1, %edx
	callq	__ZN4core3fmt9Arguments6new_v117h6e7458c47a18cc83E
	movq	-160(%rbp), %rdi
	leaq	l___unnamed_31(%rip), %rsi
	callq	__ZN4core9panicking9panic_fmt17h9b5d807e24bcaaedE
Ltmp96:
Lfunc_end34:
	.cfi_endproc

	.p2align	4, 0x90
__ZN4core3ptr122drop_in_place$LT$$RF$alloc..boxed..Box$LT$dyn$u20$core..error..Error$u2b$core..marker..Send$u2b$core..marker..Sync$GT$$GT$17h59363efaac3e332eE:
Lfunc_begin35:
	.file	9 "/rustc/2c8cc343237b8f7d5a3c3703e3a87f2eb2c54a74/library/core/src/ptr" "mod.rs"
	.loc	9 490 0
	.cfi_startproc
	pushq	%rbp
	.cfi_def_cfa_offset 16
	.cfi_offset %rbp, -16
	movq	%rsp, %rbp
	.cfi_def_cfa_register %rbp
	pushq	%rax
	movq	%rdi, -8(%rbp)
Ltmp97:
	.loc	9 490 1 prologue_end
	addq	$8, %rsp
	popq	%rbp
	retq
Ltmp98:
Lfunc_end35:
	.cfi_endproc

	.p2align	4, 0x90
__ZN4core3ptr27drop_in_place$LT$$RF$u8$GT$17h99705d361aa5cfd7E:
Lfunc_begin36:
	.loc	9 490 0
	.cfi_startproc
	pushq	%rbp
	.cfi_def_cfa_offset 16
	.cfi_offset %rbp, -16
	movq	%rsp, %rbp
	.cfi_def_cfa_register %rbp
	pushq	%rax
	movq	%rdi, -8(%rbp)
Ltmp99:
	.loc	9 490 1 prologue_end
	addq	$8, %rsp
	popq	%rbp
	retq
Ltmp100:
Lfunc_end36:
	.cfi_endproc

	.p2align	4, 0x90
__ZN4core3ptr28drop_in_place$LT$$RF$u16$GT$17h541e5ac04284e0e9E:
Lfunc_begin37:
	.loc	9 490 0
	.cfi_startproc
	pushq	%rbp
	.cfi_def_cfa_offset 16
	.cfi_offset %rbp, -16
	movq	%rsp, %rbp
	.cfi_def_cfa_register %rbp
	pushq	%rax
	movq	%rdi, -8(%rbp)
Ltmp101:
	.loc	9 490 1 prologue_end
	addq	$8, %rsp
	popq	%rbp
	retq
Ltmp102:
Lfunc_end37:
	.cfi_endproc

	.p2align	4, 0x90
__ZN4core3ptr28drop_in_place$LT$$RF$u32$GT$17h33b134b8c453e2ffE:
Lfunc_begin38:
	.loc	9 490 0
	.cfi_startproc
	pushq	%rbp
	.cfi_def_cfa_offset 16
	.cfi_offset %rbp, -16
	movq	%rsp, %rbp
	.cfi_def_cfa_register %rbp
	pushq	%rax
	movq	%rdi, -8(%rbp)
Ltmp103:
	.loc	9 490 1 prologue_end
	addq	$8, %rsp
	popq	%rbp
	retq
Ltmp104:
Lfunc_end38:
	.cfi_endproc

	.p2align	4, 0x90
__ZN4core3ptr28drop_in_place$LT$$RF$u64$GT$17he50fb4ab4fde6c59E:
Lfunc_begin39:
	.loc	9 490 0
	.cfi_startproc
	pushq	%rbp
	.cfi_def_cfa_offset 16
	.cfi_offset %rbp, -16
	movq	%rsp, %rbp
	.cfi_def_cfa_register %rbp
	pushq	%rax
	movq	%rdi, -8(%rbp)
Ltmp105:
	.loc	9 490 1 prologue_end
	addq	$8, %rsp
	popq	%rbp
	retq
Ltmp106:
Lfunc_end39:
	.cfi_endproc

	.p2align	4, 0x90
__ZN4core3ptr29drop_in_place$LT$$LP$$RP$$GT$17hf29f51db98c1ee17E:
Lfunc_begin40:
	.loc	9 490 0
	.cfi_startproc
	pushq	%rbp
	.cfi_def_cfa_offset 16
	.cfi_offset %rbp, -16
	movq	%rsp, %rbp
	.cfi_def_cfa_register %rbp
	pushq	%rax
	movq	%rdi, -8(%rbp)
Ltmp107:
	.loc	9 490 1 prologue_end
	addq	$8, %rsp
	popq	%rbp
	retq
Ltmp108:
Lfunc_end40:
	.cfi_endproc

	.p2align	4, 0x90
__ZN4core3ptr29drop_in_place$LT$$RF$bool$GT$17h2c0915bd88cc8dbeE:
Lfunc_begin41:
	.loc	9 490 0
	.cfi_startproc
	pushq	%rbp
	.cfi_def_cfa_offset 16
	.cfi_offset %rbp, -16
	movq	%rsp, %rbp
	.cfi_def_cfa_register %rbp
	pushq	%rax
	movq	%rdi, -8(%rbp)
Ltmp109:
	.loc	9 490 1 prologue_end
	addq	$8, %rsp
	popq	%rbp
	retq
Ltmp110:
Lfunc_end41:
	.cfi_endproc

	.p2align	4, 0x90
__ZN4core3ptr36drop_in_place$LT$$RF$glutin..Api$GT$17h3979bb1cc284cb2cE:
Lfunc_begin42:
	.loc	9 490 0
	.cfi_startproc
	pushq	%rbp
	.cfi_def_cfa_offset 16
	.cfi_offset %rbp, -16
	movq	%rsp, %rbp
	.cfi_def_cfa_register %rbp
	pushq	%rax
	movq	%rdi, -8(%rbp)
Ltmp111:
	.loc	9 490 1 prologue_end
	addq	$8, %rsp
	popq	%rbp
	retq
Ltmp112:
Lfunc_end42:
	.cfi_endproc

	.p2align	4, 0x90
__ZN4core3ptr40drop_in_place$LT$$RF$$LP$u8$C$u8$RP$$GT$17hb88f8f7e9e39bcf5E:
Lfunc_begin43:
	.loc	9 490 0
	.cfi_startproc
	pushq	%rbp
	.cfi_def_cfa_offset 16
	.cfi_offset %rbp, -16
	movq	%rsp, %rbp
	.cfi_def_cfa_register %rbp
	pushq	%rax
	movq	%rdi, -8(%rbp)
Ltmp113:
	.loc	9 490 1 prologue_end
	addq	$8, %rsp
	popq	%rbp
	retq
Ltmp114:
Lfunc_end43:
	.cfi_endproc

	.p2align	4, 0x90
__ZN4core3ptr42drop_in_place$LT$winit..error..OsError$GT$17h6d5aa432dcd97bb2E:
Lfunc_begin44:
	.loc	9 490 0
	.cfi_startproc
	pushq	%rbp
	.cfi_def_cfa_offset 16
	.cfi_offset %rbp, -16
	movq	%rsp, %rbp
	.cfi_def_cfa_register %rbp
	pushq	%rax
	movq	%rdi, -8(%rbp)
Ltmp115:
	.loc	9 490 1 prologue_end
	addq	$8, %rsp
	popq	%rbp
	retq
Ltmp116:
Lfunc_end44:
	.cfi_endproc

	.p2align	4, 0x90
__ZN4core3ptr44drop_in_place$LT$$RF$glutin..PixelFormat$GT$17hb5b5bf1778df8eb6E:
Lfunc_begin45:
	.loc	9 490 0
	.cfi_startproc
	pushq	%rbp
	.cfi_def_cfa_offset 16
	.cfi_offset %rbp, -16
	movq	%rsp, %rbp
	.cfi_def_cfa_register %rbp
	pushq	%rax
	movq	%rdi, -8(%rbp)
Ltmp117:
	.loc	9 490 1 prologue_end
	addq	$8, %rsp
	popq	%rbp
	retq
Ltmp118:
Lfunc_end45:
	.cfi_endproc

	.p2align	4, 0x90
__ZN4core3ptr46drop_in_place$LT$$RF$alloc..string..String$GT$17ha19d2d53739f93faE:
Lfunc_begin46:
	.loc	9 490 0
	.cfi_startproc
	pushq	%rbp
	.cfi_def_cfa_offset 16
	.cfi_offset %rbp, -16
	movq	%rsp, %rbp
	.cfi_def_cfa_register %rbp
	pushq	%rax
	movq	%rdi, -8(%rbp)
Ltmp119:
	.loc	9 490 1 prologue_end
	addq	$8, %rsp
	popq	%rbp
	retq
Ltmp120:
Lfunc_end46:
	.cfi_endproc

	.p2align	4, 0x90
__ZN4core3ptr46drop_in_place$LT$$RF$std..io..error..Error$GT$17h789049ba652a6ee7E:
Lfunc_begin47:
	.loc	9 490 0
	.cfi_startproc
	pushq	%rbp
	.cfi_def_cfa_offset 16
	.cfi_offset %rbp, -16
	movq	%rsp, %rbp
	.cfi_def_cfa_register %rbp
	pushq	%rax
	movq	%rdi, -8(%rbp)
Ltmp121:
	.loc	9 490 1 prologue_end
	addq	$8, %rsp
	popq	%rbp
	retq
Ltmp122:
Lfunc_end47:
	.cfi_endproc

	.p2align	4, 0x90
__ZN4core3ptr46drop_in_place$LT$$RF$winit..error..OsError$GT$17h2919347b065e4e62E:
Lfunc_begin48:
	.loc	9 490 0
	.cfi_startproc
	pushq	%rbp
	.cfi_def_cfa_offset 16
	.cfi_offset %rbp, -16
	movq	%rsp, %rbp
	.cfi_def_cfa_register %rbp
	pushq	%rax
	movq	%rdi, -8(%rbp)
Ltmp123:
	.loc	9 490 1 prologue_end
	addq	$8, %rsp
	popq	%rbp
	retq
Ltmp124:
Lfunc_end48:
	.cfi_endproc

	.p2align	4, 0x90
__ZN4core3ptr48drop_in_place$LT$$RF$glutin..ReleaseBehavior$GT$17h9e11c17d5dd8da06E:
Lfunc_begin49:
	.loc	9 490 0
	.cfi_startproc
	pushq	%rbp
	.cfi_def_cfa_offset 16
	.cfi_offset %rbp, -16
	movq	%rsp, %rbp
	.cfi_def_cfa_register %rbp
	pushq	%rax
	movq	%rdi, -8(%rbp)
Ltmp125:
	.loc	9 490 1 prologue_end
	addq	$8, %rsp
	popq	%rbp
	retq
Ltmp126:
Lfunc_end49:
	.cfi_endproc

	.p2align	4, 0x90
__ZN4core3ptr55drop_in_place$LT$$RF$core..option..Option$LT$u8$GT$$GT$17he9a959cc2079863fE:
Lfunc_begin50:
	.loc	9 490 0
	.cfi_startproc
	pushq	%rbp
	.cfi_def_cfa_offset 16
	.cfi_offset %rbp, -16
	movq	%rsp, %rbp
	.cfi_def_cfa_register %rbp
	pushq	%rax
	movq	%rdi, -8(%rbp)
Ltmp127:
	.loc	9 490 1 prologue_end
	addq	$8, %rsp
	popq	%rbp
	retq
Ltmp128:
Lfunc_end50:
	.cfi_endproc

	.p2align	4, 0x90
__ZN4core3ptr56drop_in_place$LT$$RF$core..option..Option$LT$u16$GT$$GT$17h64dad5b4b2a66d9dE:
Lfunc_begin51:
	.loc	9 490 0
	.cfi_startproc
	pushq	%rbp
	.cfi_def_cfa_offset 16
	.cfi_offset %rbp, -16
	movq	%rsp, %rbp
	.cfi_def_cfa_register %rbp
	pushq	%rax
	movq	%rdi, -8(%rbp)
Ltmp129:
	.loc	9 490 1 prologue_end
	addq	$8, %rsp
	popq	%rbp
	retq
Ltmp130:
Lfunc_end51:
	.cfi_endproc

	.p2align	4, 0x90
__ZN4core3ptr56drop_in_place$LT$$RF$core..option..Option$LT$u64$GT$$GT$17hc1d9ca5a14ba9a12E:
Lfunc_begin52:
	.loc	9 490 0
	.cfi_startproc
	pushq	%rbp
	.cfi_def_cfa_offset 16
	.cfi_offset %rbp, -16
	movq	%rsp, %rbp
	.cfi_def_cfa_register %rbp
	pushq	%rax
	movq	%rdi, -8(%rbp)
Ltmp131:
	.loc	9 490 1 prologue_end
	addq	$8, %rsp
	popq	%rbp
	retq
Ltmp132:
Lfunc_end52:
	.cfi_endproc

	.p2align	4, 0x90
__ZN4core3ptr57drop_in_place$LT$$RF$core..option..Option$LT$bool$GT$$GT$17h668cb8b8db0acce6E:
Lfunc_begin53:
	.loc	9 490 0
	.cfi_startproc
	pushq	%rbp
	.cfi_def_cfa_offset 16
	.cfi_offset %rbp, -16
	movq	%rsp, %rbp
	.cfi_def_cfa_register %rbp
	pushq	%rax
	movq	%rdi, -8(%rbp)
Ltmp133:
	.loc	9 490 1 prologue_end
	addq	$8, %rsp
	popq	%rbp
	retq
Ltmp134:
Lfunc_end53:
	.cfi_endproc

	.p2align	4, 0x90
__ZN4core3ptr58drop_in_place$LT$$RF$$BP$mut$u20$objc..runtime..Object$GT$17hbefacfffd28a0481E:
Lfunc_begin54:
	.loc	9 490 0
	.cfi_startproc
	pushq	%rbp
	.cfi_def_cfa_offset 16
	.cfi_offset %rbp, -16
	movq	%rsp, %rbp
	.cfi_def_cfa_register %rbp
	pushq	%rax
	movq	%rdi, -8(%rbp)
Ltmp135:
	.loc	9 490 1 prologue_end
	addq	$8, %rsp
	popq	%rbp
	retq
Ltmp136:
Lfunc_end54:
	.cfi_endproc

	.globl	__ZN4core3ptr59drop_in_place$LT$alloc..boxed..Box$LT$$u5b$u32$u5d$$GT$$GT$17h2ae7e93628329828E
	.p2align	4, 0x90
__ZN4core3ptr59drop_in_place$LT$alloc..boxed..Box$LT$$u5b$u32$u5d$$GT$$GT$17h2ae7e93628329828E:
Lfunc_begin55:
	.loc	9 490 0
	.cfi_startproc
	pushq	%rbp
	.cfi_def_cfa_offset 16
	.cfi_offset %rbp, -16
	movq	%rsp, %rbp
	.cfi_def_cfa_register %rbp
	subq	$32, %rsp
	movq	%rdi, -32(%rbp)
	movq	%rdi, -24(%rbp)
	movq	-32(%rbp), %rax
Ltmp137:
	.loc	9 490 1 prologue_end
	movq	(%rax), %rdi
	movq	8(%rax), %rsi
	callq	__ZN5alloc5alloc8box_free17hf10689dbea81e606E
	addq	$32, %rsp
	popq	%rbp
	retq
Ltmp138:
Lfunc_end55:
	.cfi_endproc

	.globl	__ZN4core3ptr59drop_in_place$LT$glutin..platform_impl..platform..IdRef$GT$17hf9ad8e9d9318b638E
	.p2align	4, 0x90
__ZN4core3ptr59drop_in_place$LT$glutin..platform_impl..platform..IdRef$GT$17hf9ad8e9d9318b638E:
Lfunc_begin56:
	.loc	9 490 0
	.cfi_startproc
	pushq	%rbp
	.cfi_def_cfa_offset 16
	.cfi_offset %rbp, -16
	movq	%rsp, %rbp
	.cfi_def_cfa_register %rbp
	subq	$16, %rsp
	movq	%rdi, -8(%rbp)
Ltmp139:
	.loc	9 490 1 prologue_end
	callq	__ZN80_$LT$glutin..platform_impl..platform..IdRef$u20$as$u20$core..ops..drop..Drop$GT$4drop17hf98bebc400998e42E
	addq	$16, %rsp
	popq	%rbp
	retq
Ltmp140:
Lfunc_end56:
	.cfi_endproc

	.p2align	4, 0x90
__ZN4core3ptr63drop_in_place$LT$$RF$glutin..platform_impl..platform..IdRef$GT$17h4acce873a8a8b577E:
Lfunc_begin57:
	.loc	9 490 0
	.cfi_startproc
	pushq	%rbp
	.cfi_def_cfa_offset 16
	.cfi_offset %rbp, -16
	movq	%rsp, %rbp
	.cfi_def_cfa_register %rbp
	pushq	%rax
	movq	%rdi, -8(%rbp)
Ltmp141:
	.loc	9 490 1 prologue_end
	addq	$8, %rsp
	popq	%rbp
	retq
Ltmp142:
Lfunc_end57:
	.cfi_endproc

	.p2align	4, 0x90
__ZN4core3ptr71drop_in_place$LT$$RF$alloc..boxed..Box$LT$glutin..CreationError$GT$$GT$17haa400434b253ed07E:
Lfunc_begin58:
	.loc	9 490 0
	.cfi_startproc
	pushq	%rbp
	.cfi_def_cfa_offset 16
	.cfi_offset %rbp, -16
	movq	%rsp, %rbp
	.cfi_def_cfa_register %rbp
	pushq	%rax
	movq	%rdi, -8(%rbp)
Ltmp143:
	.loc	9 490 1 prologue_end
	addq	$8, %rsp
	popq	%rbp
	retq
Ltmp144:
Lfunc_end58:
	.cfi_endproc

	.p2align	4, 0x90
__ZN4core3ptr73drop_in_place$LT$$RF$glutin..platform_impl..platform..HeadlessContext$GT$17hfd3417b33379d952E:
Lfunc_begin59:
	.loc	9 490 0
	.cfi_startproc
	pushq	%rbp
	.cfi_def_cfa_offset 16
	.cfi_offset %rbp, -16
	movq	%rsp, %rbp
	.cfi_def_cfa_register %rbp
	pushq	%rax
	movq	%rdi, -8(%rbp)
Ltmp145:
	.loc	9 490 1 prologue_end
	addq	$8, %rsp
	popq	%rbp
	retq
Ltmp146:
Lfunc_end59:
	.cfi_endproc

	.p2align	4, 0x90
__ZN4core3ptr73drop_in_place$LT$$RF$glutin..platform_impl..platform..WindowedContext$GT$17h983afc40ea6aaef3E:
Lfunc_begin60:
	.loc	9 490 0
	.cfi_startproc
	pushq	%rbp
	.cfi_def_cfa_offset 16
	.cfi_offset %rbp, -16
	movq	%rsp, %rbp
	.cfi_def_cfa_register %rbp
	pushq	%rax
	movq	%rdi, -8(%rbp)
Ltmp147:
	.loc	9 490 1 prologue_end
	addq	$8, %rsp
	popq	%rbp
	retq
Ltmp148:
Lfunc_end60:
	.cfi_endproc

	.p2align	4, 0x90
__ZN4core3ptr78drop_in_place$LT$$RF$core..marker..PhantomData$LT$$BP$mut$u20$$LP$$RP$$GT$$GT$17hb88d7746e34a15aaE:
Lfunc_begin61:
	.loc	9 490 0
	.cfi_startproc
	pushq	%rbp
	.cfi_def_cfa_offset 16
	.cfi_offset %rbp, -16
	movq	%rsp, %rbp
	.cfi_def_cfa_register %rbp
	pushq	%rax
	movq	%rdi, -8(%rbp)
Ltmp149:
	.loc	9 490 1 prologue_end
	addq	$8, %rsp
	popq	%rbp
	retq
Ltmp150:
Lfunc_end61:
	.cfi_endproc

	.p2align	4, 0x90
__ZN4core3ptr94drop_in_place$LT$$RF$alloc..vec..Vec$LT$alloc..boxed..Box$LT$glutin..CreationError$GT$$GT$$GT$17hdf3f2272d8b057c9E:
Lfunc_begin62:
	.loc	9 490 0
	.cfi_startproc
	pushq	%rbp
	.cfi_def_cfa_offset 16
	.cfi_offset %rbp, -16
	movq	%rsp, %rbp
	.cfi_def_cfa_register %rbp
	pushq	%rax
	movq	%rdi, -8(%rbp)
Ltmp151:
	.loc	9 490 1 prologue_end
	addq	$8, %rsp
	popq	%rbp
	retq
Ltmp152:
Lfunc_end62:
	.cfi_endproc

	.p2align	4, 0x90
__ZN4core3str21_$LT$impl$u20$str$GT$3len17h87d26a1adb015f73E:
Lfunc_begin63:
	.file	10 "/rustc/2c8cc343237b8f7d5a3c3703e3a87f2eb2c54a74/library/core/src/str" "mod.rs"
	.loc	10 159 0
	.cfi_startproc
	pushq	%rbp
	.cfi_def_cfa_offset 16
	.cfi_offset %rbp, -16
	movq	%rsp, %rbp
	.cfi_def_cfa_register %rbp
	subq	$48, %rsp
	movq	%rdi, -48(%rbp)
	movq	%rsi, -40(%rbp)
Ltmp153:
	.loc	10 160 9 prologue_end
	movq	%rdi, -32(%rbp)
	movq	%rsi, -24(%rbp)
Ltmp154:
	.loc	10 327 18
	movq	%rdi, -16(%rbp)
	movq	%rsi, -8(%rbp)
	movq	-8(%rbp), %rax
Ltmp155:
	.loc	10 161 6
	addq	$48, %rsp
	popq	%rbp
	retq
Ltmp156:
Lfunc_end63:
	.cfi_endproc

	.p2align	4, 0x90
__ZN4core4sync6atomic11AtomicUsize4load17h20f52bddcca826ebE:
Lfunc_begin64:
	.file	11 "/rustc/2c8cc343237b8f7d5a3c3703e3a87f2eb2c54a74/library/core/src/sync" "atomic.rs"
	.loc	11 2125 0
	.cfi_startproc
	pushq	%rbp
	.cfi_def_cfa_offset 16
	.cfi_offset %rbp, -16
	movq	%rsp, %rbp
	.cfi_def_cfa_register %rbp
	subq	$32, %rsp
	movb	%sil, %al
	movq	%rdi, -24(%rbp)
	movb	%al, -9(%rbp)
Ltmp157:
	.loc	11 2127 38 prologue_end
	movq	%rdi, -8(%rbp)
	.loc	11 2127 26 is_stmt 0
	movzbl	%al, %esi
	callq	__ZN4core4sync6atomic11atomic_load17h38c27615fc794740E
	.loc	11 2128 14 is_stmt 1
	addq	$32, %rsp
	popq	%rbp
	retq
Ltmp158:
Lfunc_end64:
	.cfi_endproc

	.p2align	4, 0x90
__ZN4core4sync6atomic11AtomicUsize5store17ha801bb3b8dcd109bE:
Lfunc_begin65:
	.loc	11 2152 0
	.cfi_startproc
	pushq	%rbp
	.cfi_def_cfa_offset 16
	.cfi_offset %rbp, -16
	movq	%rsp, %rbp
	.cfi_def_cfa_register %rbp
	subq	$32, %rsp
	movb	%dl, %al
	movq	%rdi, -32(%rbp)
	movq	%rsi, -24(%rbp)
	movb	%al, -9(%rbp)
Ltmp159:
	.loc	11 2154 39 prologue_end
	movq	%rdi, -8(%rbp)
	.loc	11 2154 26 is_stmt 0
	movzbl	%al, %edx
	callq	__ZN4core4sync6atomic12atomic_store17h96a39aea984d4a5dE
	.loc	11 2155 14 is_stmt 1
	addq	$32, %rsp
	popq	%rbp
	retq
Ltmp160:
Lfunc_end65:
	.cfi_endproc

	.globl	__ZN4core5error5Error11description17hbc5a9bb8e616bc32E
	.p2align	4, 0x90
__ZN4core5error5Error11description17hbc5a9bb8e616bc32E:
Lfunc_begin66:
	.file	12 "/rustc/2c8cc343237b8f7d5a3c3703e3a87f2eb2c54a74/library/core/src" "error.rs"
	.loc	12 109 0
	.cfi_startproc
	pushq	%rbp
	.cfi_def_cfa_offset 16
	.cfi_offset %rbp, -16
	movq	%rsp, %rbp
	.cfi_def_cfa_register %rbp
	pushq	%rax
	movq	%rdi, -8(%rbp)
Ltmp161:
	.loc	12 111 6 prologue_end
	leaq	l___unnamed_32(%rip), %rax
	movl	$40, %edx
	addq	$8, %rsp
	popq	%rbp
	retq
Ltmp162:
Lfunc_end66:
	.cfi_endproc

	.globl	__ZN4core5error5Error5cause17hb85dc302c4e1fb0fE
	.p2align	4, 0x90
__ZN4core5error5Error5cause17hb85dc302c4e1fb0fE:
Lfunc_begin67:
	.loc	12 119 0
	.cfi_startproc
	pushq	%rbp
	.cfi_def_cfa_offset 16
	.cfi_offset %rbp, -16
	movq	%rsp, %rbp
	.cfi_def_cfa_register %rbp
	subq	$16, %rsp
	movq	%rdi, -8(%rbp)
Ltmp163:
	.loc	12 120 9 prologue_end
	callq	__ZN4core5error5Error6source17h15d972fcb0f66ef1E
	.loc	12 121 6
	addq	$16, %rsp
	popq	%rbp
	retq
Ltmp164:
Lfunc_end67:
	.cfi_endproc

	.globl	__ZN4core5error5Error6source17h15d972fcb0f66ef1E
	.p2align	4, 0x90
__ZN4core5error5Error6source17h15d972fcb0f66ef1E:
Lfunc_begin68:
	.loc	12 83 0
	.cfi_startproc
	pushq	%rbp
	.cfi_def_cfa_offset 16
	.cfi_offset %rbp, -16
	movq	%rsp, %rbp
	.cfi_def_cfa_register %rbp
	subq	$24, %rsp
	movq	%rdi, -8(%rbp)
Ltmp165:
	.loc	12 84 9 prologue_end
	movq	$0, -24(%rbp)
	.loc	12 85 6
	movq	-24(%rbp), %rax
	movq	-16(%rbp), %rdx
	addq	$24, %rsp
	popq	%rbp
	retq
Ltmp166:
Lfunc_end68:
	.cfi_endproc

	.globl	__ZN4core5error5Error7provide17hb3d2c5627c51d91bE
	.p2align	4, 0x90
__ZN4core5error5Error7provide17hb3d2c5627c51d91bE:
Lfunc_begin69:
	.loc	12 193 0
	.cfi_startproc
	pushq	%rbp
	.cfi_def_cfa_offset 16
	.cfi_offset %rbp, -16
	movq	%rsp, %rbp
	.cfi_def_cfa_register %rbp
	subq	$24, %rsp
	movq	%rdi, -24(%rbp)
	movq	%rsi, -16(%rbp)
	movq	%rdx, -8(%rbp)
Ltmp167:
	.loc	12 193 57 prologue_end
	addq	$24, %rsp
	popq	%rbp
	retq
Ltmp168:
Lfunc_end69:
	.cfi_endproc

	.globl	__ZN4core5error5Error7type_id17hb81d80f84c10a438E
	.p2align	4, 0x90
__ZN4core5error5Error7type_id17hb81d80f84c10a438E:
Lfunc_begin70:
	.loc	12 94 0
	.cfi_startproc
	pushq	%rbp
	.cfi_def_cfa_offset 16
	.cfi_offset %rbp, -16
	movq	%rsp, %rbp
	.cfi_def_cfa_register %rbp
	subq	$16, %rsp
	movq	%rdi, -16(%rbp)
Ltmp169:
	.loc	12 98 9 prologue_end
	callq	__ZN4core3any6TypeId2of17h4ed1f0c4dc4ae603E
	.loc	12 99 6
	addq	$16, %rsp
	popq	%rbp
	retq
Ltmp170:
Lfunc_end70:
	.cfi_endproc

	.globl	__ZN4core5slice4iter13Iter$LT$T$GT$3new17hb8852cc64c321b1bE
	.p2align	4, 0x90
__ZN4core5slice4iter13Iter$LT$T$GT$3new17hb8852cc64c321b1bE:
Lfunc_begin71:
	.file	13 "/rustc/2c8cc343237b8f7d5a3c3703e3a87f2eb2c54a74/library/core/src/slice" "iter.rs"
	.loc	13 82 0
	.cfi_startproc
	pushq	%rbp
	.cfi_def_cfa_offset 16
	.cfi_offset %rbp, -16
	movq	%rsp, %rbp
	.cfi_def_cfa_register %rbp
	subq	$280, %rsp
	movq	%rdi, -280(%rbp)
	movq	%rsi, -272(%rbp)
	movq	%rdi, -208(%rbp)
	movq	%rsi, -200(%rbp)
Ltmp171:
	.loc	13 83 19 prologue_end
	movq	%rdi, -184(%rbp)
	movq	%rsi, -176(%rbp)
Ltmp172:
	.loc	5 477 9
	movq	%rdi, -168(%rbp)
Ltmp173:
	.loc	13 86 21
	movq	%rdi, -160(%rbp)
Ltmp174:
	.file	14 "/rustc/2c8cc343237b8f7d5a3c3703e3a87f2eb2c54a74/library/core/src/ptr" "const_ptr.rs"
	.loc	14 53 36
	movq	%rdi, -232(%rbp)
	.loc	14 53 18 is_stmt 0
	movq	-232(%rbp), %rax
	movq	%rax, -152(%rbp)
Ltmp175:
	.loc	14 39 13 is_stmt 1
	movq	%rax, -144(%rbp)
Ltmp176:
	.loc	14 209 33
	movq	%rax, -136(%rbp)
	.loc	14 209 18 is_stmt 0
	movq	%rax, -128(%rbp)
Ltmp177:
	.loc	13 89 20 is_stmt 1
	xorl	%eax, %eax
	testb	$1, %al
	jne	LBB71_2
	.loc	13 0 20 is_stmt 0
	movq	-280(%rbp), %rax
	movq	-272(%rbp), %rcx
	.loc	13 89 76
	movq	%rax, -40(%rbp)
	.loc	13 89 84
	movq	%rcx, -32(%rbp)
Ltmp178:
	.loc	14 932 18 is_stmt 1
	movq	%rax, -24(%rbp)
	.loc	14 932 30 is_stmt 0
	movq	%rcx, -16(%rbp)
Ltmp179:
	.loc	14 473 18 is_stmt 1
	shlq	$3, %rcx
	addq	%rcx, %rax
	movq	%rax, -248(%rbp)
Ltmp180:
	.loc	13 89 17
	jmp	LBB71_3
LBB71_2:
	.loc	13 0 17 is_stmt 0
	movq	-272(%rbp), %rcx
	movq	-280(%rbp), %rax
	.loc	13 89 32
	movq	%rax, -120(%rbp)
	.loc	13 89 54
	movq	%rcx, -112(%rbp)
Ltmp181:
	.loc	14 1118 9 is_stmt 1
	movq	%rax, -104(%rbp)
Ltmp182:
	.loc	14 61 9
	movq	%rax, -96(%rbp)
Ltmp183:
	.loc	14 1118 40
	movq	%rcx, -88(%rbp)
Ltmp184:
	.loc	14 1100 9
	movq	%rax, -80(%rbp)
	.loc	14 1100 30 is_stmt 0
	movq	%rcx, -72(%rbp)
Ltmp185:
	.loc	14 555 18 is_stmt 1
	addq	%rcx, %rax
	movq	%rax, -64(%rbp)
	movq	-64(%rbp), %rax
	movq	%rax, -56(%rbp)
Ltmp186:
	.loc	14 100 29
	movq	%rax, -48(%rbp)
Ltmp187:
	.file	15 "/rustc/2c8cc343237b8f7d5a3c3703e3a87f2eb2c54a74/library/core/src/ptr" "metadata.rs"
	.loc	15 118 36
	movq	%rax, -216(%rbp)
	.loc	15 118 14 is_stmt 0
	movq	-216(%rbp), %rax
	movq	%rax, -224(%rbp)
	movq	-224(%rbp), %rax
	movq	%rax, -248(%rbp)
Ltmp188:
LBB71_3:
	.loc	15 0 14
	movq	-280(%rbp), %rax
Ltmp189:
	.loc	13 91 48 is_stmt 1
	movq	%rax, -8(%rbp)
Ltmp190:
	.file	16 "/rustc/2c8cc343237b8f7d5a3c3703e3a87f2eb2c54a74/library/core/src/ptr" "non_null.rs"
	.loc	16 201 13
	movq	%rax, -240(%rbp)
Ltmp191:
	.loc	13 91 64
	movq	-248(%rbp), %rax
	.loc	13 91 13 is_stmt 0
	movq	-240(%rbp), %rcx
	movq	%rcx, -256(%rbp)
	movq	%rax, -264(%rbp)
Ltmp192:
	.loc	13 93 6 is_stmt 1
	movq	-264(%rbp), %rax
	movq	-256(%rbp), %rdx
	addq	$280, %rsp
	popq	%rbp
	retq
Ltmp193:
Lfunc_end71:
	.cfi_endproc

	.globl	__ZN4core6option15Option$LT$T$GT$9unwrap_or17hbcba36510ee4904aE
	.p2align	4, 0x90
__ZN4core6option15Option$LT$T$GT$9unwrap_or17hbcba36510ee4904aE:
Lfunc_begin72:
	.file	17 "/rustc/2c8cc343237b8f7d5a3c3703e3a87f2eb2c54a74/library/core/src" "option.rs"
	.loc	17 844 0
	.cfi_startproc
	pushq	%rbp
	.cfi_def_cfa_offset 16
	.cfi_offset %rbp, -16
	movq	%rsp, %rbp
	.cfi_def_cfa_register %rbp
	subq	$16, %rsp
	movb	%dl, %al
	movb	%al, -9(%rbp)
	movb	%sil, %cl
	movb	%dil, %dl
	andb	$1, %dl
	movb	%dl, -8(%rbp)
	movb	%cl, -7(%rbp)
	movb	%al, -2(%rbp)
Ltmp194:
	.loc	17 848 15 prologue_end
	movb	$1, -3(%rbp)
	movb	-8(%rbp), %al
	andb	$1, %al
	movzbl	%al, %eax
	.loc	17 848 9 is_stmt 0
	cmpq	$0, %rax
	jne	LBB72_2
	.loc	17 0 9
	movb	-9(%rbp), %al
	.loc	17 850 21 is_stmt 1
	movb	$0, -3(%rbp)
	movb	%al, -4(%rbp)
	jmp	LBB72_3
LBB72_2:
	.loc	17 849 18
	movb	-7(%rbp), %al
	movb	%al, -1(%rbp)
Ltmp195:
	.loc	17 849 24 is_stmt 0
	movb	%al, -4(%rbp)
Ltmp196:
LBB72_3:
	.loc	17 852 5 is_stmt 1
	testb	$1, -3(%rbp)
	jne	LBB72_5
LBB72_4:
	.loc	17 852 6 is_stmt 0
	movb	-4(%rbp), %al
	addq	$16, %rsp
	popq	%rbp
	retq
LBB72_5:
	.loc	17 852 5
	jmp	LBB72_4
Ltmp197:
Lfunc_end72:
	.cfi_endproc

	.globl	__ZN4core6result19Result$LT$T$C$E$GT$6unwrap17h3598357bc0238b8dE
	.p2align	4, 0x90
__ZN4core6result19Result$LT$T$C$E$GT$6unwrap17h3598357bc0238b8dE:
Lfunc_begin73:
	.file	18 "/rustc/2c8cc343237b8f7d5a3c3703e3a87f2eb2c54a74/library/core/src" "result.rs"
	.loc	18 1106 0 is_stmt 1
	.cfi_startproc
	.cfi_personality 155, _rust_eh_personality
	.cfi_lsda 16, Lexception1
	pushq	%rbp
	.cfi_def_cfa_offset 16
	.cfi_offset %rbp, -16
	movq	%rsp, %rbp
	.cfi_def_cfa_register %rbp
	subq	$64, %rsp
	movq	%rdx, -56(%rbp)
	movq	%rdi, -48(%rbp)
	movq	%rsi, -40(%rbp)
Ltmp201:
	.loc	18 1110 9 prologue_end
	cmpq	$0, -48(%rbp)
	jne	LBB73_2
	.loc	18 1111 16
	movq	-40(%rbp), %rax
	movq	%rax, -8(%rbp)
	.loc	18 1114 6
	addq	$64, %rsp
	popq	%rbp
	retq
LBB73_2:
Ltmp198:
	.loc	18 0 6 is_stmt 0
	movq	-56(%rbp), %r8
Ltmp202:
	.loc	18 1112 23 is_stmt 1
	leaq	l___unnamed_33(%rip), %rdi
	leaq	l___unnamed_2(%rip), %rcx
	movl	$43, %esi
	leaq	-32(%rbp), %rdx
	callq	__ZN4core6result13unwrap_failed17h533573e6d3b6061cE
Ltmp199:
	jmp	LBB73_5
Ltmp203:
LBB73_3:
	.loc	18 1106 5
	movq	-24(%rbp), %rdi
	callq	__Unwind_Resume
Ltmp204:
LBB73_4:
Ltmp200:
	.loc	18 0 5 is_stmt 0
	movq	%rax, %rcx
	movl	%edx, %eax
	movq	%rcx, -24(%rbp)
	movl	%eax, -16(%rbp)
	jmp	LBB73_3
LBB73_5:
	ud2
Lfunc_end73:
	.cfi_endproc
	.section	__TEXT,__gcc_except_tab
	.p2align	2
GCC_except_table73:
Lexception1:
	.byte	255
	.byte	255
	.byte	1
	.uleb128 Lcst_end1-Lcst_begin1
Lcst_begin1:
	.uleb128 Ltmp198-Lfunc_begin73
	.uleb128 Ltmp199-Ltmp198
	.uleb128 Ltmp200-Lfunc_begin73
	.byte	0
	.uleb128 Ltmp199-Lfunc_begin73
	.uleb128 Lfunc_end73-Ltmp199
	.byte	0
	.byte	0
Lcst_end1:
	.p2align	2

	.section	__TEXT,__text,regular,pure_instructions
	.p2align	4, 0x90
__ZN4objc7runtime3Sel6as_ptr17hf85ada28bd2e10feE:
Lfunc_begin74:
	.file	19 "/Users/natalie/.cargo/registry/src/github.com-1ecc6299db9ec823/objc-0.2.7/src" "runtime.rs"
	.loc	19 175 0 is_stmt 1
	.cfi_startproc
	pushq	%rbp
	.cfi_def_cfa_offset 16
	.cfi_offset %rbp, -16
	movq	%rsp, %rbp
	.cfi_def_cfa_register %rbp
	pushq	%rax
	movq	%rdi, -8(%rbp)
Ltmp205:
	.loc	19 176 9 prologue_end
	movq	(%rdi), %rax
	.loc	19 177 6
	addq	$8, %rsp
	popq	%rbp
	retq
Ltmp206:
Lfunc_end74:
	.cfi_endproc

	.p2align	4, 0x90
__ZN4objc7runtime3Sel8from_ptr17hfb8c0a7f509dd237E:
Lfunc_begin75:
	.loc	19 167 0
	.cfi_startproc
	pushq	%rbp
	.cfi_def_cfa_offset 16
	.cfi_offset %rbp, -16
	movq	%rsp, %rbp
	.cfi_def_cfa_register %rbp
	subq	$16, %rsp
	movq	%rdi, -8(%rbp)
Ltmp207:
	.loc	19 168 9 prologue_end
	movq	%rdi, -16(%rbp)
	.loc	19 171 6
	movq	-16(%rbp), %rax
	addq	$16, %rsp
	popq	%rbp
	retq
Ltmp208:
Lfunc_end75:
	.cfi_endproc

	.globl	__ZN50_$LT$$LP$U$C$T$RP$$u20$as$u20$core..fmt..Debug$GT$3fmt17h6922f5c40077f94bE
	.p2align	4, 0x90
__ZN50_$LT$$LP$U$C$T$RP$$u20$as$u20$core..fmt..Debug$GT$3fmt17h6922f5c40077f94bE:
Lfunc_begin76:
	.loc	4 2564 0
	.cfi_startproc
	pushq	%rbp
	.cfi_def_cfa_offset 16
	.cfi_offset %rbp, -16
	movq	%rsp, %rbp
	.cfi_def_cfa_register %rbp
	subq	$64, %rsp
	movq	%rdi, -64(%rbp)
	movq	%rdi, -16(%rbp)
	movq	%rsi, -8(%rbp)
Ltmp209:
	.loc	4 2565 39 prologue_end
	leaq	-56(%rbp), %rdi
	leaq	l___unnamed_30(%rip), %rdx
	xorl	%eax, %eax
	movl	%eax, %ecx
	callq	__ZN4core3fmt9Formatter11debug_tuple17h4ded4cadc630b98fE
	movq	-64(%rbp), %rdi
Ltmp210:
	.loc	4 2566 28
	movq	%rdi, -32(%rbp)
	addq	$1, %rdi
	movq	%rdi, -24(%rbp)
Ltmp211:
	.loc	4 2568 25
	leaq	-56(%rbp), %rdi
	leaq	-32(%rbp), %rsi
	leaq	l___unnamed_3(%rip), %rdx
	callq	__ZN4core3fmt8builders10DebugTuple5field17h61e3e4b369fada05E
	leaq	-56(%rbp), %rdi
	leaq	-24(%rbp), %rsi
	leaq	l___unnamed_3(%rip), %rdx
	callq	__ZN4core3fmt8builders10DebugTuple5field17h61e3e4b369fada05E
	.loc	4 2571 21
	leaq	-56(%rbp), %rdi
	callq	__ZN4core3fmt8builders10DebugTuple6finish17h9f18b8701228b16fE
Ltmp212:
	.loc	4 2572 18
	andb	$1, %al
	movzbl	%al, %eax
	addq	$64, %rsp
	popq	%rbp
	retq
Ltmp213:
Lfunc_end76:
	.cfi_endproc

	.globl	__ZN55_$LT$T$u20$as$u20$core..option..SpecOptionPartialEq$GT$2eq17h2e5dc4a75fdeeb3eE
	.p2align	4, 0x90
__ZN55_$LT$T$u20$as$u20$core..option..SpecOptionPartialEq$GT$2eq17h2e5dc4a75fdeeb3eE:
Lfunc_begin77:
	.loc	17 2102 0
	.cfi_startproc
	pushq	%rbp
	.cfi_def_cfa_offset 16
	.cfi_offset %rbp, -16
	movq	%rsp, %rbp
	.cfi_def_cfa_register %rbp
	subq	$64, %rsp
	movq	%rdi, -32(%rbp)
	movq	%rsi, -24(%rbp)
Ltmp214:
	.loc	17 2103 15 prologue_end
	movq	%rdi, -48(%rbp)
	movq	%rsi, -40(%rbp)
	movq	-48(%rbp), %rax
	movb	(%rax), %al
	subb	$2, %al
	setne	%al
	movzbl	%al, %eax
	movq	%rax, -64(%rbp)
	.loc	17 2103 9 is_stmt 0
	je	LBB77_2
	jmp	LBB77_7
LBB77_7:
	.loc	17 0 9
	movq	-64(%rbp), %rax
	.loc	17 2103 9
	subq	$1, %rax
	je	LBB77_3
	jmp	LBB77_1
LBB77_1:
	.loc	17 2106 18 is_stmt 1
	movb	$0, -49(%rbp)
	jmp	LBB77_5
LBB77_2:
	.loc	17 2103 15
	movq	-40(%rbp), %rdx
	movl	$1, %eax
	xorl	%ecx, %ecx
	cmpb	$2, (%rdx)
	cmoveq	%rcx, %rax
	.loc	17 2103 9 is_stmt 0
	cmpq	$0, %rax
	je	LBB77_6
	jmp	LBB77_1
LBB77_3:
	.loc	17 2103 15
	movq	-40(%rbp), %rdx
	movl	$1, %eax
	xorl	%ecx, %ecx
	cmpb	$2, (%rdx)
	cmoveq	%rcx, %rax
	.loc	17 2103 9
	cmpq	$1, %rax
	jne	LBB77_1
	.loc	17 2104 19 is_stmt 1
	movq	-48(%rbp), %rdi
	movq	%rdi, -16(%rbp)
	.loc	17 2104 28 is_stmt 0
	movq	-40(%rbp), %rsi
	movq	%rsi, -8(%rbp)
Ltmp215:
	.loc	17 2104 35
	callq	__ZN4core3cmp5impls55_$LT$impl$u20$core..cmp..PartialEq$u20$for$u20$bool$GT$2eq17hb8a899884965186fE
	andb	$1, %al
	movb	%al, -49(%rbp)
Ltmp216:
LBB77_5:
	.loc	17 2108 6 is_stmt 1
	movb	-49(%rbp), %al
	andb	$1, %al
	movzbl	%al, %eax
	addq	$64, %rsp
	popq	%rbp
	retq
LBB77_6:
	.loc	17 2105 29
	movb	$1, -49(%rbp)
	jmp	LBB77_5
Ltmp217:
Lfunc_end77:
	.cfi_endproc

	.globl	__ZN5alloc3vec16Vec$LT$T$C$A$GT$17from_raw_parts_in17h86c2685c62b9052bE
	.p2align	4, 0x90
__ZN5alloc3vec16Vec$LT$T$C$A$GT$17from_raw_parts_in17h86c2685c62b9052bE:
Lfunc_begin78:
	.file	20 "/rustc/2c8cc343237b8f7d5a3c3703e3a87f2eb2c54a74/library/alloc/src/vec" "mod.rs"
	.loc	20 786 0
	.cfi_startproc
	pushq	%rbp
	.cfi_def_cfa_offset 16
	.cfi_offset %rbp, -16
	movq	%rsp, %rbp
	.cfi_def_cfa_register %rbp
	subq	$104, %rsp
	movq	%rdi, %rax
	movq	%rsi, -72(%rbp)
	movq	%rdx, -64(%rbp)
	movq	%rcx, -56(%rbp)
Ltmp218:
	.loc	20 787 55 prologue_end
	movq	%rsi, -32(%rbp)
	.loc	20 787 60 is_stmt 0
	movq	%rcx, -24(%rbp)
Ltmp219:
	.file	21 "/rustc/2c8cc343237b8f7d5a3c3703e3a87f2eb2c54a74/library/alloc/src" "raw_vec.rs"
	.loc	21 216 52 is_stmt 1
	movq	%rsi, -16(%rbp)
Ltmp220:
	.file	22 "/rustc/2c8cc343237b8f7d5a3c3703e3a87f2eb2c54a74/library/core/src/ptr" "unique.rs"
	.loc	22 87 59
	movq	%rsi, -8(%rbp)
Ltmp221:
	.loc	16 201 13
	movq	%rsi, -80(%rbp)
Ltmp222:
	.loc	22 87 18
	movq	-80(%rbp), %rsi
	movq	%rsi, -88(%rbp)
Ltmp223:
	.loc	21 216 9
	movq	-88(%rbp), %rsi
	movq	%rsi, -96(%rbp)
	movq	%rcx, -104(%rbp)
Ltmp224:
	.loc	20 787 18
	movq	-104(%rbp), %rsi
	movq	-96(%rbp), %rcx
	movq	%rsi, (%rdi)
	movq	%rcx, 8(%rdi)
	movq	%rdx, 16(%rdi)
	.loc	20 788 6
	addq	$104, %rsp
	popq	%rbp
	retq
Ltmp225:
Lfunc_end78:
	.cfi_endproc

	.globl	__ZN5alloc3vec16Vec$LT$T$C$A$GT$4push17h1d729d0f29abe74cE
	.p2align	4, 0x90
__ZN5alloc3vec16Vec$LT$T$C$A$GT$4push17h1d729d0f29abe74cE:
Lfunc_begin79:
	.loc	20 1836 0
	.cfi_startproc
	.cfi_personality 155, _rust_eh_personality
	.cfi_lsda 16, Lexception2
	pushq	%rbp
	.cfi_def_cfa_offset 16
	.cfi_offset %rbp, -16
	movq	%rsp, %rbp
	.cfi_def_cfa_register %rbp
	subq	$240, %rsp
	movq	%rdi, -216(%rbp)
	movl	%esi, -204(%rbp)
	movq	%rdi, -168(%rbp)
	movl	%esi, -156(%rbp)
Ltmp229:
	.loc	20 1839 12 prologue_end
	movq	16(%rdi), %rax
	movq	%rax, -200(%rbp)
	.loc	20 1839 24 is_stmt 0
	movq	%rdi, -152(%rbp)
Ltmp230:
	.loc	21 232 12 is_stmt 1
	xorl	%eax, %eax
	testb	$1, %al
	jne	LBB79_2
	.loc	21 0 12 is_stmt 0
	movq	-216(%rbp), %rax
	.loc	21 232 44
	movq	(%rax), %rax
	movq	%rax, -192(%rbp)
	.loc	21 232 9
	jmp	LBB79_3
LBB79_2:
	.loc	21 232 24
	movq	$-1, -192(%rbp)
Ltmp231:
LBB79_3:
	.loc	21 0 24
	movq	-200(%rbp), %rax
	.loc	20 1839 12 is_stmt 1
	cmpq	-192(%rbp), %rax
	je	LBB79_5
LBB79_4:
	.loc	20 0 12 is_stmt 0
	movq	-216(%rbp), %rax
	.loc	20 1843 23 is_stmt 1
	movq	%rax, -128(%rbp)
Ltmp232:
	.loc	20 1280 19
	movq	%rax, -120(%rbp)
Ltmp233:
	.loc	21 224 9
	movq	8(%rax), %rax
	movq	%rax, -224(%rbp)
	movq	%rax, -112(%rbp)
Ltmp234:
	.loc	22 104 9
	movq	%rax, -104(%rbp)
Ltmp235:
	.loc	16 326 9
	movq	%rax, -96(%rbp)
Ltmp236:
	.loc	20 1282 21
	movq	%rax, -88(%rbp)
Ltmp237:
	.file	23 "/rustc/2c8cc343237b8f7d5a3c3703e3a87f2eb2c54a74/library/core/src/ptr" "mut_ptr.rs"
	.loc	23 52 36
	movq	%rax, -176(%rbp)
	.loc	23 52 18 is_stmt 0
	movq	-176(%rbp), %rax
	movq	%rax, -80(%rbp)
Ltmp238:
	.loc	23 38 13 is_stmt 1
	movq	%rax, -72(%rbp)
Ltmp239:
	.loc	23 215 33
	movq	%rax, -64(%rbp)
	.loc	23 215 18 is_stmt 0
	movq	%rax, -56(%rbp)
	movq	-56(%rbp), %rax
	jmp	LBB79_9
Ltmp240:
LBB79_5:
	.loc	23 0 18
	movq	-216(%rbp), %rdi
	.loc	20 1840 39 is_stmt 1
	movq	16(%rdi), %rsi
Ltmp226:
	.loc	20 1840 13 is_stmt 0
	callq	__ZN5alloc7raw_vec19RawVec$LT$T$C$A$GT$16reserve_for_push17h3d1e73a09843abfeE
Ltmp227:
	jmp	LBB79_8
LBB79_6:
	.loc	20 1847 5 is_stmt 1
	movb	$1, %al
	testb	$1, %al
	jne	LBB79_12
	jmp	LBB79_11
LBB79_7:
Ltmp228:
	.loc	20 0 5 is_stmt 0
	movq	%rax, %rcx
	movl	%edx, %eax
	movq	%rcx, -144(%rbp)
	movl	%eax, -136(%rbp)
	jmp	LBB79_6
LBB79_8:
	.loc	20 1839 9 is_stmt 1
	jmp	LBB79_4
LBB79_9:
	.loc	20 0 9 is_stmt 0
	movq	-224(%rbp), %rax
	movq	-216(%rbp), %rcx
	.loc	20 1843 45 is_stmt 1
	movq	16(%rcx), %rcx
	movq	%rcx, -48(%rbp)
Ltmp241:
	.loc	23 1034 18
	movq	%rax, -40(%rbp)
	.loc	23 1034 30 is_stmt 0
	movq	%rcx, -32(%rbp)
Ltmp242:
	.loc	23 487 18 is_stmt 1
	shlq	$2, %rcx
	addq	%rcx, %rax
	movq	%rax, -24(%rbp)
	movq	-24(%rbp), %rax
	movq	%rax, -232(%rbp)
	.loc	23 0 18 is_stmt 0
	movq	-216(%rbp), %rax
	movq	-232(%rbp), %rcx
	movl	-204(%rbp), %edx
	.loc	23 487 18
	movq	%rcx, -16(%rbp)
Ltmp243:
	.loc	20 1844 24 is_stmt 1
	movq	%rcx, -8(%rbp)
	.loc	20 1844 29 is_stmt 0
	movl	%edx, -180(%rbp)
Ltmp244:
	.loc	9 1354 9 is_stmt 1
	movl	-180(%rbp), %edx
	movl	%edx, (%rcx)
Ltmp245:
	.loc	20 1845 13
	movq	16(%rax), %rcx
	addq	$1, %rcx
	movq	%rcx, 16(%rax)
Ltmp246:
	.loc	20 1847 6
	addq	$240, %rsp
	popq	%rbp
	retq
LBB79_11:
	.loc	20 1836 5
	movq	-144(%rbp), %rdi
	callq	__Unwind_Resume
LBB79_12:
	.loc	20 1847 5
	jmp	LBB79_11
Ltmp247:
Lfunc_end79:
	.cfi_endproc
	.section	__TEXT,__gcc_except_tab
	.p2align	2
GCC_except_table79:
Lexception2:
	.byte	255
	.byte	255
	.byte	1
	.uleb128 Lcst_end2-Lcst_begin2
Lcst_begin2:
	.uleb128 Ltmp226-Lfunc_begin79
	.uleb128 Ltmp227-Ltmp226
	.uleb128 Ltmp228-Lfunc_begin79
	.byte	0
	.uleb128 Ltmp227-Lfunc_begin79
	.uleb128 Lfunc_end79-Ltmp227
	.byte	0
	.byte	0
Lcst_end2:
	.p2align	2

	.section	__TEXT,__text,regular,pure_instructions
	.p2align	4, 0x90
__ZN5alloc5alloc15exchange_malloc17h63c11329c1c9b58eE:
Lfunc_begin80:
	.file	24 "/rustc/2c8cc343237b8f7d5a3c3703e3a87f2eb2c54a74/library/alloc/src" "alloc.rs"
	.loc	24 324 0
	.cfi_startproc
	pushq	%rbp
	.cfi_def_cfa_offset 16
	.cfi_offset %rbp, -16
	movq	%rsp, %rbp
	.cfi_def_cfa_register %rbp
	subq	$208, %rsp
	movq	%rdi, -160(%rbp)
	movq	%rsi, -152(%rbp)
Ltmp248:
	.loc	24 325 61 prologue_end
	movq	%rdi, -144(%rbp)
	.loc	24 325 67 is_stmt 0
	movq	%rsi, -136(%rbp)
Ltmp249:
	.file	25 "/rustc/2c8cc343237b8f7d5a3c3703e3a87f2eb2c54a74/library/core/src/alloc" "layout.rs"
	.loc	25 120 65 is_stmt 1
	movq	%rsi, -128(%rbp)
Ltmp250:
	.file	26 "/rustc/2c8cc343237b8f7d5a3c3703e3a87f2eb2c54a74/library/core/src/ptr" "alignment.rs"
	.loc	26 89 18
	movq	%rsi, -120(%rbp)
	movq	-120(%rbp), %rax
Ltmp251:
	.loc	25 120 18
	movq	%rdi, -200(%rbp)
	movq	%rax, -192(%rbp)
Ltmp252:
	.loc	24 326 11
	leaq	l___unnamed_30(%rip), %rdi
	movq	%rdi, -112(%rbp)
	.loc	24 326 27 is_stmt 0
	movq	-200(%rbp), %rsi
	movq	-192(%rbp), %rdx
	movq	%rsi, -104(%rbp)
	movq	%rdx, -96(%rbp)
	xorl	%ecx, %ecx
Ltmp253:
	.loc	24 237 9 is_stmt 1
	callq	__ZN5alloc5alloc6Global10alloc_impl17h4463f86756c45a3aE
	movq	%rdx, -176(%rbp)
	movq	%rax, -184(%rbp)
Ltmp254:
	.loc	24 326 11
	movq	-184(%rbp), %rdx
	xorl	%eax, %eax
	movl	$1, %ecx
	cmpq	$0, %rdx
	cmoveq	%rcx, %rax
	.loc	24 326 5 is_stmt 0
	cmpq	$0, %rax
	jne	LBB80_2
	.loc	24 327 12 is_stmt 1
	movq	-184(%rbp), %rax
	movq	-176(%rbp), %rcx
	movq	%rax, -88(%rbp)
	movq	%rcx, -80(%rbp)
Ltmp255:
	.loc	24 327 20 is_stmt 0
	movq	%rax, -72(%rbp)
	movq	%rcx, -64(%rbp)
Ltmp256:
	.loc	16 548 9 is_stmt 1
	movq	%rax, -56(%rbp)
	movq	%rcx, -48(%rbp)
Ltmp257:
	.loc	16 529 41
	movq	%rax, -40(%rbp)
	movq	%rcx, -32(%rbp)
Ltmp258:
	.loc	16 326 9
	movq	%rax, -24(%rbp)
	movq	%rcx, -16(%rbp)
Ltmp259:
	.loc	23 2037 9
	movq	%rax, -8(%rbp)
Ltmp260:
	.loc	16 201 13
	movq	%rax, -168(%rbp)
Ltmp261:
	.loc	16 326 9
	movq	-168(%rbp), %rax
Ltmp262:
	.loc	24 330 2
	addq	$208, %rsp
	popq	%rbp
	retq
LBB80_2:
Ltmp263:
	.loc	24 328 38
	movq	-200(%rbp), %rdi
	movq	-192(%rbp), %rsi
	.loc	24 328 19 is_stmt 0
	callq	__ZN5alloc5alloc18handle_alloc_error17hb5f6ff255f23ea4dE
Ltmp264:
Lfunc_end80:
	.cfi_endproc

	.p2align	4, 0x90
__ZN5alloc5alloc6Global10alloc_impl17h4463f86756c45a3aE:
Lfunc_begin81:
	.loc	24 172 0 is_stmt 1
	.cfi_startproc
	pushq	%rbp
	.cfi_def_cfa_offset 16
	.cfi_offset %rbp, -16
	movq	%rsp, %rbp
	.cfi_def_cfa_register %rbp
	subq	$352, %rsp
	movb	%cl, %al
	movb	%al, -345(%rbp)
	movq	%rsi, -336(%rbp)
	movq	%rdx, -328(%rbp)
	movq	%rdi, -208(%rbp)
	andb	$1, %al
	movb	%al, -193(%rbp)
Ltmp265:
	.loc	24 173 15 prologue_end
	leaq	-336(%rbp), %rax
	movq	%rax, -144(%rbp)
Ltmp266:
	.loc	25 129 9
	movq	-336(%rbp), %rax
	movq	%rax, -344(%rbp)
Ltmp267:
	.loc	24 173 9
	cmpq	$0, %rax
	jne	LBB81_2
	.loc	24 174 51
	leaq	-336(%rbp), %rax
	movq	%rax, -48(%rbp)
Ltmp268:
	.loc	25 216 71
	leaq	-336(%rbp), %rax
	movq	%rax, -40(%rbp)
Ltmp269:
	.loc	25 140 9
	movq	-328(%rbp), %rax
	movq	%rax, -32(%rbp)
Ltmp270:
	.loc	26 97 9
	movq	%rax, -232(%rbp)
	movq	-232(%rbp), %rax
	movq	%rax, -24(%rbp)
Ltmp271:
	.loc	9 599 14
	movq	%rax, -16(%rbp)
	movq	-16(%rbp), %rax
	movq	%rax, -8(%rbp)
Ltmp272:
	.loc	16 201 13
	movq	%rax, -304(%rbp)
Ltmp273:
	.loc	24 174 21
	movq	-304(%rbp), %rdi
	xorl	%eax, %eax
	movl	%eax, %esi
	callq	__ZN4core3ptr8non_null26NonNull$LT$$u5b$T$u5d$$GT$20slice_from_raw_parts17ha7a2a17f681cd444E
	.loc	24 174 18 is_stmt 0
	movq	%rax, -320(%rbp)
	movq	%rdx, -312(%rbp)
	.loc	24 174 72
	jmp	LBB81_15
LBB81_2:
	.loc	24 0 72
	movb	-345(%rbp), %al
	movq	-344(%rbp), %rcx
	.loc	24 176 13 is_stmt 1
	movq	%rcx, -136(%rbp)
Ltmp274:
	.loc	24 177 34
	testb	$1, %al
	jne	LBB81_4
	.loc	24 177 79 is_stmt 0
	movq	-336(%rbp), %rcx
	movq	-328(%rbp), %rax
	movq	%rcx, -272(%rbp)
	movq	%rax, -264(%rbp)
Ltmp275:
	.loc	24 95 27 is_stmt 1
	leaq	-272(%rbp), %rax
	movq	%rax, -104(%rbp)
Ltmp276:
	.loc	25 129 9
	movq	-272(%rbp), %rdi
Ltmp277:
	.loc	24 95 42
	leaq	-272(%rbp), %rax
	movq	%rax, -96(%rbp)
Ltmp278:
	.loc	25 140 9
	movq	-264(%rbp), %rax
	movq	%rax, -88(%rbp)
Ltmp279:
	.loc	26 97 9
	movq	%rax, -216(%rbp)
	movq	-216(%rbp), %rsi
Ltmp280:
	.loc	24 95 14
	callq	___rust_alloc
	movq	%rax, -296(%rbp)
Ltmp281:
	.loc	24 177 31
	jmp	LBB81_5
LBB81_4:
	.loc	24 177 56 is_stmt 0
	movq	-336(%rbp), %rcx
	movq	-328(%rbp), %rax
	movq	%rcx, -288(%rbp)
	movq	%rax, -280(%rbp)
Ltmp282:
	.loc	24 166 34 is_stmt 1
	leaq	-288(%rbp), %rax
	movq	%rax, -128(%rbp)
Ltmp283:
	.loc	25 129 9
	movq	-288(%rbp), %rdi
Ltmp284:
	.loc	24 166 49
	leaq	-288(%rbp), %rax
	movq	%rax, -120(%rbp)
Ltmp285:
	.loc	25 140 9
	movq	-280(%rbp), %rax
	movq	%rax, -112(%rbp)
Ltmp286:
	.loc	26 97 9
	movq	%rax, -224(%rbp)
	movq	-224(%rbp), %rsi
Ltmp287:
	.loc	24 166 14
	callq	___rust_alloc_zeroed
	movq	%rax, -296(%rbp)
Ltmp288:
LBB81_5:
	.loc	24 178 40
	movq	-296(%rbp), %rdi
	.loc	24 178 27 is_stmt 0
	callq	__ZN4core3ptr8non_null16NonNull$LT$T$GT$3new17hbe07f8c52c575838E
	movq	%rax, -240(%rbp)
Ltmp289:
	.loc	17 1096 15 is_stmt 1
	movq	-240(%rbp), %rdx
	movl	$1, %eax
	xorl	%ecx, %ecx
	cmpq	$0, %rdx
	cmoveq	%rcx, %rax
	.loc	17 1096 9 is_stmt 0
	cmpq	$0, %rax
	jne	LBB81_7
	.loc	17 1098 21 is_stmt 1
	movq	$0, -248(%rbp)
	.loc	17 1098 28 is_stmt 0
	jmp	LBB81_8
LBB81_7:
	.loc	17 1097 18 is_stmt 1
	movq	-240(%rbp), %rax
	movq	%rax, -80(%rbp)
Ltmp290:
	.loc	17 1097 24 is_stmt 0
	movq	%rax, -248(%rbp)
Ltmp291:
LBB81_8:
	.loc	18 2091 15 is_stmt 1
	movq	-248(%rbp), %rdx
	xorl	%eax, %eax
	movl	$1, %ecx
	cmpq	$0, %rdx
	cmoveq	%rcx, %rax
	.loc	18 2091 9 is_stmt 0
	cmpq	$0, %rax
	jne	LBB81_10
	.loc	18 2092 16 is_stmt 1
	movq	-248(%rbp), %rax
	movq	%rax, -72(%rbp)
Ltmp292:
	.loc	18 2092 22 is_stmt 0
	movq	%rax, -256(%rbp)
Ltmp293:
	.loc	18 2092 45
	jmp	LBB81_11
LBB81_10:
Ltmp294:
	.loc	18 2093 23 is_stmt 1
	movq	$0, -256(%rbp)
Ltmp295:
LBB81_11:
	.loc	24 178 27
	movq	-256(%rbp), %rdx
	xorl	%eax, %eax
	movl	$1, %ecx
	cmpq	$0, %rdx
	cmoveq	%rcx, %rax
	cmpq	$0, %rax
	jne	LBB81_13
	.loc	24 0 27 is_stmt 0
	movq	-344(%rbp), %rsi
	.loc	24 178 27
	movq	-256(%rbp), %rdi
	movq	%rdi, -64(%rbp)
Ltmp296:
	.loc	24 178 27
	movq	%rdi, -56(%rbp)
Ltmp297:
	.loc	24 179 20 is_stmt 1
	callq	__ZN4core3ptr8non_null26NonNull$LT$$u5b$T$u5d$$GT$20slice_from_raw_parts17ha7a2a17f681cd444E
	.loc	24 179 17 is_stmt 0
	movq	%rax, -320(%rbp)
	movq	%rdx, -312(%rbp)
Ltmp298:
	.loc	24 180 13 is_stmt 1
	jmp	LBB81_15
LBB81_13:
Ltmp299:
	.loc	18 2107 23
	movq	$0, -320(%rbp)
Ltmp300:
LBB81_14:
	.loc	24 182 6
	movq	-320(%rbp), %rax
	movq	-312(%rbp), %rdx
	addq	$352, %rsp
	popq	%rbp
	retq
LBB81_15:
	jmp	LBB81_14
Ltmp301:
Lfunc_end81:
	.cfi_endproc

	.globl	__ZN5alloc5alloc8box_free17h8b0934b9c9da807cE
	.p2align	4, 0x90
__ZN5alloc5alloc8box_free17h8b0934b9c9da807cE:
Lfunc_begin82:
	.loc	24 340 0
	.cfi_startproc
	.cfi_personality 155, _rust_eh_personality
	.cfi_lsda 16, Lexception3
	pushq	%rbp
	.cfi_def_cfa_offset 16
	.cfi_offset %rbp, -16
	movq	%rsp, %rbp
	.cfi_def_cfa_register %rbp
	subq	$256, %rsp
	movq	%rdi, -240(%rbp)
Ltmp305:
	.loc	24 345 32 prologue_end
	leaq	-240(%rbp), %rax
	movq	%rax, -184(%rbp)
Ltmp306:
	.loc	22 117 18
	leaq	-240(%rbp), %rax
	movq	%rax, -176(%rbp)
Ltmp307:
	.loc	16 376 20
	movq	-240(%rbp), %rax
	movq	%rax, -168(%rbp)
Ltmp308:
	.loc	24 345 20
	movq	$48, -160(%rbp)
	movq	-160(%rbp), %rcx
	movq	%rcx, -256(%rbp)
	movq	%rcx, -152(%rbp)
Ltmp309:
	.loc	24 346 38
	leaq	-240(%rbp), %rax
	movq	%rax, -144(%rbp)
Ltmp310:
	.loc	22 117 18
	leaq	-240(%rbp), %rax
	movq	%rax, -136(%rbp)
Ltmp311:
	.loc	16 376 20
	movq	-240(%rbp), %rax
	movq	%rax, -128(%rbp)
Ltmp312:
	.loc	24 346 21
	movq	$4, -120(%rbp)
	movq	-120(%rbp), %rax
	movq	%rax, -112(%rbp)
Ltmp313:
	.loc	24 347 56
	movq	%rcx, -104(%rbp)
	.loc	24 347 62 is_stmt 0
	movq	%rax, -96(%rbp)
Ltmp314:
	.loc	25 120 65 is_stmt 1
	movq	%rax, -88(%rbp)
Ltmp315:
	.loc	26 89 18
	movq	%rax, -80(%rbp)
	movq	-80(%rbp), %rax
	movq	%rax, -248(%rbp)
Ltmp316:
	.loc	26 0 18 is_stmt 0
	movq	-248(%rbp), %rax
	movq	-256(%rbp), %rcx
	.loc	25 120 18 is_stmt 1
	movq	%rcx, -224(%rbp)
	movq	%rax, -216(%rbp)
Ltmp317:
	.loc	24 348 37
	movq	-240(%rbp), %rax
	movq	%rax, -72(%rbp)
Ltmp318:
	.loc	22 137 22
	movq	%rax, -64(%rbp)
Ltmp319:
	.loc	16 450 41
	movq	%rax, -56(%rbp)
	movq	%rax, -48(%rbp)
Ltmp320:
	.loc	16 201 13
	movq	%rax, -192(%rbp)
Ltmp321:
	.loc	22 191 18
	movq	-192(%rbp), %rax
	.loc	22 191 9 is_stmt 0
	movq	%rax, -200(%rbp)
Ltmp322:
	.loc	16 768 41 is_stmt 1
	movq	-200(%rbp), %rax
	movq	%rax, -40(%rbp)
Ltmp323:
	.loc	22 104 9
	movq	%rax, -32(%rbp)
Ltmp324:
	.loc	16 326 9
	movq	%rax, -24(%rbp)
Ltmp325:
	.loc	16 201 13
	movq	%rax, -208(%rbp)
Ltmp326:
	.loc	24 348 50
	movq	-224(%rbp), %rdx
	movq	-216(%rbp), %rcx
	.loc	24 348 9 is_stmt 0
	movq	-208(%rbp), %rsi
Ltmp302:
	leaq	-232(%rbp), %rdi
	callq	__ZN63_$LT$alloc..alloc..Global$u20$as$u20$core..alloc..Allocator$GT$10deallocate17h496e45cfe79aa87fE
Ltmp303:
	jmp	LBB82_4
Ltmp327:
LBB82_2:
	.loc	24 340 1 is_stmt 1
	movq	-16(%rbp), %rdi
	callq	__Unwind_Resume
LBB82_3:
Ltmp304:
	.loc	24 0 1 is_stmt 0
	movq	%rax, %rcx
	movl	%edx, %eax
	movq	%rcx, -16(%rbp)
	movl	%eax, -8(%rbp)
	jmp	LBB82_2
LBB82_4:
	.loc	24 350 2 is_stmt 1
	addq	$256, %rsp
	popq	%rbp
	retq
Ltmp328:
Lfunc_end82:
	.cfi_endproc
	.section	__TEXT,__gcc_except_tab
	.p2align	2
GCC_except_table82:
Lexception3:
	.byte	255
	.byte	255
	.byte	1
	.uleb128 Lcst_end3-Lcst_begin3
Lcst_begin3:
	.uleb128 Ltmp302-Lfunc_begin82
	.uleb128 Ltmp303-Ltmp302
	.uleb128 Ltmp304-Lfunc_begin82
	.byte	0
	.uleb128 Ltmp303-Lfunc_begin82
	.uleb128 Lfunc_end82-Ltmp303
	.byte	0
	.byte	0
Lcst_end3:
	.p2align	2

	.section	__TEXT,__text,regular,pure_instructions
	.globl	__ZN5alloc5alloc8box_free17hf10689dbea81e606E
	.p2align	4, 0x90
__ZN5alloc5alloc8box_free17hf10689dbea81e606E:
Lfunc_begin83:
	.loc	24 340 0
	.cfi_startproc
	.cfi_personality 155, _rust_eh_personality
	.cfi_lsda 16, Lexception4
	pushq	%rbp
	.cfi_def_cfa_offset 16
	.cfi_offset %rbp, -16
	movq	%rsp, %rbp
	.cfi_def_cfa_register %rbp
	subq	$304, %rsp
	movq	%rdi, -288(%rbp)
	movq	%rsi, -280(%rbp)
Ltmp332:
	.loc	24 345 32 prologue_end
	leaq	-288(%rbp), %rax
	movq	%rax, -224(%rbp)
Ltmp333:
	.loc	22 117 18
	leaq	-288(%rbp), %rax
	movq	%rax, -216(%rbp)
Ltmp334:
	.loc	16 376 20
	movq	-288(%rbp), %rcx
	movq	-280(%rbp), %rax
	movq	%rcx, -208(%rbp)
	movq	%rax, -200(%rbp)
Ltmp335:
	.loc	24 345 20
	shlq	$2, %rax
	movq	%rax, -192(%rbp)
	movq	-192(%rbp), %rcx
	movq	%rcx, -304(%rbp)
	movq	%rcx, -184(%rbp)
Ltmp336:
	.loc	24 346 38
	leaq	-288(%rbp), %rax
	movq	%rax, -176(%rbp)
Ltmp337:
	.loc	22 117 18
	leaq	-288(%rbp), %rax
	movq	%rax, -168(%rbp)
Ltmp338:
	.loc	16 376 20
	movq	-288(%rbp), %rdx
	movq	-280(%rbp), %rax
	movq	%rdx, -160(%rbp)
	movq	%rax, -152(%rbp)
Ltmp339:
	.loc	24 346 21
	movq	$4, -144(%rbp)
	movq	-144(%rbp), %rax
	movq	%rax, -136(%rbp)
Ltmp340:
	.loc	24 347 56
	movq	%rcx, -128(%rbp)
	.loc	24 347 62 is_stmt 0
	movq	%rax, -120(%rbp)
Ltmp341:
	.loc	25 120 65 is_stmt 1
	movq	%rax, -112(%rbp)
Ltmp342:
	.loc	26 89 18
	movq	%rax, -104(%rbp)
	movq	-104(%rbp), %rax
	movq	%rax, -296(%rbp)
Ltmp343:
	.loc	26 0 18 is_stmt 0
	movq	-296(%rbp), %rax
	movq	-304(%rbp), %rcx
	.loc	25 120 18 is_stmt 1
	movq	%rcx, -264(%rbp)
	movq	%rax, -256(%rbp)
Ltmp344:
	.loc	24 348 37
	movq	-288(%rbp), %rax
	movq	-280(%rbp), %rcx
	movq	%rax, -96(%rbp)
	movq	%rcx, -88(%rbp)
Ltmp345:
	.loc	22 137 22
	movq	%rax, -80(%rbp)
	movq	%rcx, -72(%rbp)
Ltmp346:
	.loc	16 450 41
	movq	%rax, -64(%rbp)
	movq	%rcx, -56(%rbp)
	movq	%rax, -48(%rbp)
Ltmp347:
	.loc	16 201 13
	movq	%rax, -232(%rbp)
Ltmp348:
	.loc	22 191 18
	movq	-232(%rbp), %rax
	.loc	22 191 9 is_stmt 0
	movq	%rax, -240(%rbp)
Ltmp349:
	.loc	16 768 41 is_stmt 1
	movq	-240(%rbp), %rax
	movq	%rax, -40(%rbp)
Ltmp350:
	.loc	22 104 9
	movq	%rax, -32(%rbp)
Ltmp351:
	.loc	16 326 9
	movq	%rax, -24(%rbp)
Ltmp352:
	.loc	16 201 13
	movq	%rax, -248(%rbp)
Ltmp353:
	.loc	24 348 50
	movq	-264(%rbp), %rdx
	movq	-256(%rbp), %rcx
	.loc	24 348 9 is_stmt 0
	movq	-248(%rbp), %rsi
Ltmp329:
	leaq	-272(%rbp), %rdi
	callq	__ZN63_$LT$alloc..alloc..Global$u20$as$u20$core..alloc..Allocator$GT$10deallocate17h496e45cfe79aa87fE
Ltmp330:
	jmp	LBB83_4
Ltmp354:
LBB83_2:
	.loc	24 340 1 is_stmt 1
	movq	-16(%rbp), %rdi
	callq	__Unwind_Resume
LBB83_3:
Ltmp331:
	.loc	24 0 1 is_stmt 0
	movq	%rax, %rcx
	movl	%edx, %eax
	movq	%rcx, -16(%rbp)
	movl	%eax, -8(%rbp)
	jmp	LBB83_2
LBB83_4:
	.loc	24 350 2 is_stmt 1
	addq	$304, %rsp
	popq	%rbp
	retq
Ltmp355:
Lfunc_end83:
	.cfi_endproc
	.section	__TEXT,__gcc_except_tab
	.p2align	2
GCC_except_table83:
Lexception4:
	.byte	255
	.byte	255
	.byte	1
	.uleb128 Lcst_end4-Lcst_begin4
Lcst_begin4:
	.uleb128 Ltmp329-Lfunc_begin83
	.uleb128 Ltmp330-Ltmp329
	.uleb128 Ltmp331-Lfunc_begin83
	.byte	0
	.uleb128 Ltmp330-Lfunc_begin83
	.uleb128 Lfunc_end83-Ltmp330
	.byte	0
	.byte	0
Lcst_end4:
	.p2align	2

	.section	__TEXT,__text,regular,pure_instructions
	.globl	__ZN5alloc5boxed16Box$LT$T$C$A$GT$11into_unique17hd969cf045746ae8cE
	.p2align	4, 0x90
__ZN5alloc5boxed16Box$LT$T$C$A$GT$11into_unique17hd969cf045746ae8cE:
Lfunc_begin84:
	.file	27 "/rustc/2c8cc343237b8f7d5a3c3703e3a87f2eb2c54a74/library/alloc/src" "boxed.rs"
	.loc	27 1124 0
	.cfi_startproc
	.cfi_personality 155, _rust_eh_personality
	.cfi_lsda 16, Lexception5
	pushq	%rbp
	.cfi_def_cfa_offset 16
	.cfi_offset %rbp, -16
	movq	%rsp, %rbp
	.cfi_def_cfa_register %rbp
	subq	$192, %rsp
	movq	%rdi, -168(%rbp)
	movq	%rsi, -160(%rbp)
Ltmp362:
	.loc	27 1130 13 prologue_end
	movb	$1, -113(%rbp)
	.loc	27 1130 40 is_stmt 0
	leaq	-168(%rbp), %rax
	movq	%rax, -64(%rbp)
Ltmp363:
	.loc	9 1157 34 is_stmt 1
	leaq	-112(%rbp), %rax
	movq	%rax, -56(%rbp)
Ltmp364:
	.loc	27 1131 33
	movb	$0, -113(%rbp)
	movq	-168(%rbp), %rdi
	movq	-160(%rbp), %rsi
Ltmp356:
	.loc	27 1131 23 is_stmt 0
	callq	__ZN5alloc5boxed16Box$LT$T$C$A$GT$4leak17h5cee91ac59d0cf91E
Ltmp357:
	movq	%rdx, -184(%rbp)
	movq	%rax, -176(%rbp)
	jmp	LBB84_4
Ltmp365:
LBB84_2:
	.loc	27 1132 5 is_stmt 1
	jmp	LBB84_5
LBB84_3:
Ltmp358:
	.loc	27 0 5 is_stmt 0
	movq	%rax, %rcx
	movl	%edx, %eax
	movq	%rcx, -48(%rbp)
	movl	%eax, -40(%rbp)
	jmp	LBB84_2
LBB84_4:
	movq	-184(%rbp), %rax
	movq	-176(%rbp), %rcx
Ltmp366:
	.loc	27 1131 23 is_stmt 1
	movq	%rcx, -32(%rbp)
	movq	%rax, -24(%rbp)
Ltmp367:
	.loc	22 180 34
	movq	%rcx, -16(%rbp)
	movq	%rax, -8(%rbp)
Ltmp368:
	.loc	16 781 18
	movq	%rcx, -104(%rbp)
	movq	%rax, -96(%rbp)
Ltmp369:
	.loc	22 191 18
	movq	-104(%rbp), %rcx
	movq	-96(%rbp), %rax
	.loc	22 191 9 is_stmt 0
	movq	%rcx, -136(%rbp)
	movq	%rax, -128(%rbp)
Ltmp370:
	.loc	27 1131 9 is_stmt 1
	movq	-136(%rbp), %rcx
	movq	-128(%rbp), %rax
	movq	%rcx, -152(%rbp)
	movq	%rax, -144(%rbp)
Ltmp371:
	.loc	27 1132 6
	movq	-152(%rbp), %rax
	movq	-144(%rbp), %rdx
	addq	$192, %rsp
	popq	%rbp
	retq
LBB84_5:
	.loc	27 1132 5 is_stmt 0
	testb	$1, -113(%rbp)
	jne	LBB84_7
LBB84_6:
	.loc	27 1124 5 is_stmt 1
	movq	-48(%rbp), %rdi
	callq	__Unwind_Resume
LBB84_7:
Ltmp359:
	.loc	27 0 5 is_stmt 0
	leaq	-168(%rbp), %rdi
	.loc	27 1132 5 is_stmt 1
	callq	__ZN4core3ptr59drop_in_place$LT$alloc..boxed..Box$LT$$u5b$u32$u5d$$GT$$GT$17h2ae7e93628329828E
Ltmp360:
	jmp	LBB84_6
LBB84_8:
Ltmp361:
	.loc	27 1124 5
	callq	__ZN4core9panicking19panic_cannot_unwind17h1fbca7e1d7f56ae1E
Ltmp372:
Lfunc_end84:
	.cfi_endproc
	.section	__TEXT,__gcc_except_tab
	.p2align	2
GCC_except_table84:
Lexception5:
	.byte	255
	.byte	255
	.byte	1
	.uleb128 Lcst_end5-Lcst_begin5
Lcst_begin5:
	.uleb128 Ltmp356-Lfunc_begin84
	.uleb128 Ltmp357-Ltmp356
	.uleb128 Ltmp358-Lfunc_begin84
	.byte	0
	.uleb128 Ltmp357-Lfunc_begin84
	.uleb128 Ltmp359-Ltmp357
	.byte	0
	.byte	0
	.uleb128 Ltmp359-Lfunc_begin84
	.uleb128 Ltmp360-Ltmp359
	.uleb128 Ltmp361-Lfunc_begin84
	.byte	0
Lcst_end5:
	.p2align	2

	.section	__TEXT,__text,regular,pure_instructions
	.globl	__ZN5alloc5boxed16Box$LT$T$C$A$GT$23into_raw_with_allocator17hdb45319465ba5467E
	.p2align	4, 0x90
__ZN5alloc5boxed16Box$LT$T$C$A$GT$23into_raw_with_allocator17hdb45319465ba5467E:
Lfunc_begin85:
	.loc	27 1111 0
	.cfi_startproc
	pushq	%rbp
	.cfi_def_cfa_offset 16
	.cfi_offset %rbp, -16
	movq	%rsp, %rbp
	.cfi_def_cfa_register %rbp
	subq	$96, %rsp
	movq	%rdi, -72(%rbp)
	movq	%rsi, -64(%rbp)
Ltmp373:
	.loc	27 1112 31 prologue_end
	callq	__ZN5alloc5boxed16Box$LT$T$C$A$GT$11into_unique17hd969cf045746ae8cE
	.loc	27 1112 14 is_stmt 0
	movq	%rax, -48(%rbp)
	movq	%rdx, -40(%rbp)
Ltmp374:
	.loc	27 1113 10 is_stmt 1
	movq	%rax, -32(%rbp)
	movq	%rdx, -24(%rbp)
Ltmp375:
	.loc	22 104 9
	movq	%rax, -16(%rbp)
	movq	%rdx, -8(%rbp)
Ltmp376:
	.loc	27 1113 9
	movq	%rax, -88(%rbp)
	movq	%rdx, -80(%rbp)
Ltmp377:
	.loc	27 1114 6
	movq	-88(%rbp), %rax
	movq	-80(%rbp), %rdx
	addq	$96, %rsp
	popq	%rbp
	retq
Ltmp378:
Lfunc_end85:
	.cfi_endproc

	.globl	__ZN5alloc5boxed16Box$LT$T$C$A$GT$4leak17h5cee91ac59d0cf91E
	.p2align	4, 0x90
__ZN5alloc5boxed16Box$LT$T$C$A$GT$4leak17h5cee91ac59d0cf91E:
Lfunc_begin86:
	.loc	27 1184 0
	.cfi_startproc
	pushq	%rbp
	.cfi_def_cfa_offset 16
	.cfi_offset %rbp, -16
	movq	%rsp, %rbp
	.cfi_def_cfa_register %rbp
	subq	$88, %rsp
	movq	%rdi, -72(%rbp)
	movq	%rsi, -64(%rbp)
Ltmp379:
	.loc	27 1188 47 prologue_end
	movq	%rdi, -56(%rbp)
	movq	%rsi, -48(%rbp)
Ltmp380:
	.file	28 "/rustc/2c8cc343237b8f7d5a3c3703e3a87f2eb2c54a74/library/core/src/mem" "manually_drop.rs"
	.loc	28 71 9
	movq	%rdi, -88(%rbp)
	movq	%rsi, -80(%rbp)
	leaq	-88(%rbp), %rax
Ltmp381:
	.loc	27 1188 24
	movq	%rax, -40(%rbp)
	movq	-88(%rbp), %rax
	movq	-80(%rbp), %rdx
	movq	%rax, -32(%rbp)
	movq	%rdx, -24(%rbp)
Ltmp382:
	.loc	22 104 9
	movq	%rax, -16(%rbp)
	movq	%rdx, -8(%rbp)
Ltmp383:
	.loc	27 1189 6
	addq	$88, %rsp
	popq	%rbp
	retq
Ltmp384:
Lfunc_end86:
	.cfi_endproc

	.globl	__ZN5alloc5slice29_$LT$impl$u20$$u5b$T$u5d$$GT$8into_vec17h1739344a57fbfa29E
	.p2align	4, 0x90
__ZN5alloc5slice29_$LT$impl$u20$$u5b$T$u5d$$GT$8into_vec17h1739344a57fbfa29E:
Lfunc_begin87:
	.file	29 "/rustc/2c8cc343237b8f7d5a3c3703e3a87f2eb2c54a74/library/alloc/src" "slice.rs"
	.loc	29 461 0
	.cfi_startproc
	pushq	%rbp
	.cfi_def_cfa_offset 16
	.cfi_offset %rbp, -16
	movq	%rsp, %rbp
	.cfi_def_cfa_register %rbp
	subq	$32, %rsp
	movq	%rdi, %rax
	movq	%rax, -24(%rbp)
	movq	%rsi, -16(%rbp)
	movq	%rdx, -8(%rbp)
Ltmp385:
	.loc	29 463 9 prologue_end
	callq	__ZN5alloc5slice4hack8into_vec17h2eba1086fc397382E
	movq	-24(%rbp), %rax
	.loc	29 464 6
	addq	$32, %rsp
	popq	%rbp
	retq
Ltmp386:
Lfunc_end87:
	.cfi_endproc

	.globl	__ZN5alloc5slice4hack8into_vec17h2eba1086fc397382E
	.p2align	4, 0x90
__ZN5alloc5slice4hack8into_vec17h2eba1086fc397382E:
Lfunc_begin88:
	.loc	29 100 0
	.cfi_startproc
	.cfi_personality 155, _rust_eh_personality
	.cfi_lsda 16, Lexception6
	pushq	%rbp
	.cfi_def_cfa_offset 16
	.cfi_offset %rbp, -16
	movq	%rsp, %rbp
	.cfi_def_cfa_register %rbp
	subq	$160, %rsp
	movq	%rdi, -152(%rbp)
	movq	%rdi, -144(%rbp)
	movq	%rsi, -112(%rbp)
	movq	%rdx, -104(%rbp)
Ltmp395:
	.loc	29 102 23 prologue_end
	movq	-112(%rbp), %rcx
	movq	-104(%rbp), %rax
	movq	%rcx, -72(%rbp)
	movq	%rax, -64(%rbp)
Ltmp396:
	.loc	5 137 23
	movq	%rcx, -56(%rbp)
	movq	%rax, -48(%rbp)
Ltmp397:
	.loc	15 98 14
	movq	%rcx, -96(%rbp)
	movq	%rax, -88(%rbp)
	movq	-88(%rbp), %rax
	movq	%rax, -136(%rbp)
	movq	%rax, -40(%rbp)
Ltmp398:
	.loc	29 103 59
	movq	-112(%rbp), %rdi
	movq	-104(%rbp), %rsi
Ltmp387:
	.loc	29 103 30 is_stmt 0
	callq	__ZN5alloc5boxed16Box$LT$T$C$A$GT$23into_raw_with_allocator17hdb45319465ba5467E
Ltmp388:
	movq	%rdx, -128(%rbp)
	movq	%rax, -120(%rbp)
	jmp	LBB88_3
Ltmp399:
LBB88_1:
	.loc	29 106 5 is_stmt 1
	xorl	%eax, %eax
	testb	$1, %al
	jne	LBB88_6
	jmp	LBB88_5
LBB88_2:
Ltmp391:
	.loc	29 0 5 is_stmt 0
	movq	%rax, %rcx
	movl	%edx, %eax
	movq	%rcx, -32(%rbp)
	movl	%eax, -24(%rbp)
	jmp	LBB88_1
LBB88_3:
	movq	-136(%rbp), %rcx
	movq	-120(%rbp), %rsi
	movq	-152(%rbp), %rdi
	movq	-128(%rbp), %rax
Ltmp400:
	.loc	29 103 18 is_stmt 1
	movq	%rsi, -16(%rbp)
	movq	%rax, -8(%rbp)
Ltmp389:
Ltmp401:
	.loc	29 104 13
	movq	%rcx, %rdx
	callq	__ZN5alloc3vec16Vec$LT$T$C$A$GT$17from_raw_parts_in17h86c2685c62b9052bE
Ltmp390:
	jmp	LBB88_4
Ltmp402:
LBB88_4:
	.loc	29 0 13 is_stmt 0
	movq	-144(%rbp), %rax
	.loc	29 106 6 is_stmt 1
	addq	$160, %rsp
	popq	%rbp
	retq
LBB88_5:
	.loc	29 100 5
	movq	-32(%rbp), %rdi
	callq	__Unwind_Resume
LBB88_6:
Ltmp392:
	.loc	29 0 5 is_stmt 0
	leaq	-112(%rbp), %rdi
	.loc	29 106 5 is_stmt 1
	callq	__ZN4core3ptr59drop_in_place$LT$alloc..boxed..Box$LT$$u5b$u32$u5d$$GT$$GT$17h2ae7e93628329828E
Ltmp393:
	jmp	LBB88_5
LBB88_7:
Ltmp394:
	.loc	29 100 5
	callq	__ZN4core9panicking19panic_cannot_unwind17h1fbca7e1d7f56ae1E
Ltmp403:
Lfunc_end88:
	.cfi_endproc
	.section	__TEXT,__gcc_except_tab
	.p2align	2
GCC_except_table88:
Lexception6:
	.byte	255
	.byte	255
	.byte	1
	.uleb128 Lcst_end6-Lcst_begin6
Lcst_begin6:
	.uleb128 Ltmp387-Lfunc_begin88
	.uleb128 Ltmp390-Ltmp387
	.uleb128 Ltmp391-Lfunc_begin88
	.byte	0
	.uleb128 Ltmp390-Lfunc_begin88
	.uleb128 Ltmp392-Ltmp390
	.byte	0
	.byte	0
	.uleb128 Ltmp392-Lfunc_begin88
	.uleb128 Ltmp393-Ltmp392
	.uleb128 Ltmp394-Lfunc_begin88
	.byte	0
Lcst_end6:
	.p2align	2

	.section	__TEXT,__text,regular,pure_instructions
	.p2align	4, 0x90
__ZN5alloc7raw_vec14handle_reserve17hc53c19b7b6f731d6E:
Lfunc_begin89:
	.loc	21 487 0
	.cfi_startproc
	pushq	%rbp
	.cfi_def_cfa_offset 16
	.cfi_offset %rbp, -16
	movq	%rsp, %rbp
	.cfi_def_cfa_register %rbp
	subq	$48, %rsp
	movq	%rdi, -32(%rbp)
	movq	%rsi, -24(%rbp)
Ltmp404:
	.loc	21 488 11 prologue_end
	callq	__ZN4core6result19Result$LT$T$C$E$GT$7map_err17h7bebee3f42ee7362E
	movq	%rdx, -40(%rbp)
	movq	%rax, -48(%rbp)
	movabsq	$-9223372036854775807, %rdx
	movl	$1, %eax
	xorl	%ecx, %ecx
	cmpq	%rdx, -40(%rbp)
	cmoveq	%rcx, %rax
	.loc	21 488 5 is_stmt 0
	cmpq	$0, %rax
	jne	LBB89_2
	.loc	21 493 2 is_stmt 1
	addq	$48, %rsp
	popq	%rbp
	retq
LBB89_2:
	.loc	21 488 11
	movl	$1, %eax
	xorl	%ecx, %ecx
	cmpq	$0, -40(%rbp)
	cmoveq	%rcx, %rax
	.loc	21 488 5 is_stmt 0
	cmpq	$0, %rax
	jne	LBB89_4
	.loc	21 489 34 is_stmt 1
	callq	__ZN5alloc7raw_vec17capacity_overflow17h082ee8492f253a0eE
LBB89_4:
	.loc	21 490 26
	movq	-48(%rbp), %rdi
	movq	-40(%rbp), %rsi
	movq	%rdi, -16(%rbp)
	movq	%rsi, -8(%rbp)
Ltmp405:
	.loc	21 490 43 is_stmt 0
	callq	__ZN5alloc5alloc18handle_alloc_error17hb5f6ff255f23ea4dE
Ltmp406:
Lfunc_end89:
	.cfi_endproc

	.globl	__ZN5alloc7raw_vec19RawVec$LT$T$C$A$GT$16reserve_for_push17h3d1e73a09843abfeE
	.p2align	4, 0x90
__ZN5alloc7raw_vec19RawVec$LT$T$C$A$GT$16reserve_for_push17h3d1e73a09843abfeE:
Lfunc_begin90:
	.loc	21 297 0 is_stmt 1
	.cfi_startproc
	pushq	%rbp
	.cfi_def_cfa_offset 16
	.cfi_offset %rbp, -16
	movq	%rsp, %rbp
	.cfi_def_cfa_register %rbp
	subq	$16, %rsp
	movq	%rdi, -16(%rbp)
	movq	%rsi, -8(%rbp)
Ltmp407:
	.loc	21 298 24 prologue_end
	movl	$1, %edx
	callq	__ZN5alloc7raw_vec19RawVec$LT$T$C$A$GT$14grow_amortized17hcb2d36e57717b5bbE
	movq	%rax, %rdi
	movq	%rdx, %rsi
	.loc	21 298 9 is_stmt 0
	callq	__ZN5alloc7raw_vec14handle_reserve17hc53c19b7b6f731d6E
	.loc	21 299 6 is_stmt 1
	addq	$16, %rsp
	popq	%rbp
	retq
Ltmp408:
Lfunc_end90:
	.cfi_endproc

	.p2align	4, 0x90
__ZN60_$LT$alloc..string..String$u20$as$u20$core..fmt..Display$GT$3fmt17hff915f8d5b326027E:
Lfunc_begin91:
	.file	30 "/rustc/2c8cc343237b8f7d5a3c3703e3a87f2eb2c54a74/library/alloc/src" "string.rs"
	.loc	30 2274 0
	.cfi_startproc
	pushq	%rbp
	.cfi_def_cfa_offset 16
	.cfi_offset %rbp, -16
	movq	%rsp, %rbp
	.cfi_def_cfa_register %rbp
	subq	$64, %rsp
	movq	%rsi, -64(%rbp)
	movq	%rdi, -56(%rbp)
	movq	%rsi, -48(%rbp)
Ltmp409:
	.loc	30 2275 29 prologue_end
	movq	%rdi, -40(%rbp)
Ltmp410:
	.loc	30 2460 43
	callq	__ZN72_$LT$alloc..vec..Vec$LT$T$C$A$GT$$u20$as$u20$core..ops..deref..Deref$GT$5deref17ha195b773218a2aacE
	movq	%rax, %rcx
	movq	%rdx, %rax
	movq	-64(%rbp), %rdx
	movq	%rcx, -32(%rbp)
	movq	%rax, -24(%rbp)
Ltmp411:
	.file	31 "/rustc/2c8cc343237b8f7d5a3c3703e3a87f2eb2c54a74/library/core/src/str" "converts.rs"
	.loc	31 173 14
	movq	%rcx, -16(%rbp)
	movq	%rax, -8(%rbp)
	movq	-16(%rbp), %rdi
	movq	-8(%rbp), %rsi
Ltmp412:
	.loc	30 2275 9
	callq	__ZN42_$LT$str$u20$as$u20$core..fmt..Display$GT$3fmt17hd1cabce055ea2fbdE
	.loc	30 2276 6
	andb	$1, %al
	movzbl	%al, %eax
	addq	$64, %rsp
	popq	%rbp
	retq
Ltmp413:
Lfunc_end91:
	.cfi_endproc

	.globl	__ZN63_$LT$I$u20$as$u20$core..iter..traits..collect..IntoIterator$GT$9into_iter17hb6436f312f1b7c1cE
	.p2align	4, 0x90
__ZN63_$LT$I$u20$as$u20$core..iter..traits..collect..IntoIterator$GT$9into_iter17hb6436f312f1b7c1cE:
Lfunc_begin92:
	.file	32 "/rustc/2c8cc343237b8f7d5a3c3703e3a87f2eb2c54a74/library/core/src/iter/traits" "collect.rs"
	.loc	32 272 0
	.cfi_startproc
	pushq	%rbp
	.cfi_def_cfa_offset 16
	.cfi_offset %rbp, -16
	movq	%rsp, %rbp
	.cfi_def_cfa_register %rbp
	subq	$16, %rsp
	movq	%rsi, %rdx
	movq	%rdi, %rax
	movq	%rax, -16(%rbp)
	movq	%rdx, -8(%rbp)
Ltmp414:
	.loc	32 274 6 prologue_end
	addq	$16, %rsp
	popq	%rbp
	retq
Ltmp415:
Lfunc_end92:
	.cfi_endproc

	.p2align	4, 0x90
__ZN63_$LT$alloc..alloc..Global$u20$as$u20$core..alloc..Allocator$GT$10deallocate17h496e45cfe79aa87fE:
Lfunc_begin93:
	.loc	24 246 0
	.cfi_startproc
	pushq	%rbp
	.cfi_def_cfa_offset 16
	.cfi_offset %rbp, -16
	movq	%rsp, %rbp
	.cfi_def_cfa_register %rbp
	subq	$112, %rsp
	movq	%rsi, -112(%rbp)
	movq	%rdx, -104(%rbp)
	movq	%rcx, -96(%rbp)
	movq	%rdi, -64(%rbp)
	movq	%rsi, -56(%rbp)
Ltmp416:
	.loc	24 247 12 prologue_end
	leaq	-104(%rbp), %rax
	movq	%rax, -48(%rbp)
	cmpq	$0, -104(%rbp)
	jne	LBB93_2
	.loc	24 247 9 is_stmt 0
	jmp	LBB93_3
LBB93_2:
	.loc	24 0 9
	movq	-112(%rbp), %rdi
	.loc	24 250 30 is_stmt 1
	movq	%rdi, -40(%rbp)
Ltmp417:
	.loc	16 326 9
	movq	%rdi, -32(%rbp)
Ltmp418:
	.loc	24 250 44
	movq	-104(%rbp), %rcx
	movq	-96(%rbp), %rax
	movq	%rcx, -88(%rbp)
	movq	%rax, -80(%rbp)
Ltmp419:
	.loc	24 113 34
	leaq	-88(%rbp), %rax
	movq	%rax, -24(%rbp)
Ltmp420:
	.loc	25 129 9
	movq	-88(%rbp), %rsi
Ltmp421:
	.loc	24 113 49
	leaq	-88(%rbp), %rax
	movq	%rax, -16(%rbp)
Ltmp422:
	.loc	25 140 9
	movq	-80(%rbp), %rax
	movq	%rax, -8(%rbp)
Ltmp423:
	.loc	26 97 9
	movq	%rax, -72(%rbp)
	movq	-72(%rbp), %rdx
Ltmp424:
	.loc	24 113 14
	callq	___rust_dealloc
Ltmp425:
LBB93_3:
	.loc	24 252 6
	addq	$112, %rsp
	popq	%rbp
	retq
Ltmp426:
Lfunc_end93:
	.cfi_endproc

	.p2align	4, 0x90
__ZN65_$LT$alloc..string..String$u20$as$u20$core..ops..deref..Deref$GT$5deref17hc948b079143b9b8aE:
Lfunc_begin94:
	.loc	30 2459 0
	.cfi_startproc
	pushq	%rbp
	.cfi_def_cfa_offset 16
	.cfi_offset %rbp, -16
	movq	%rsp, %rbp
	.cfi_def_cfa_register %rbp
	subq	$48, %rsp
	movq	%rdi, -40(%rbp)
Ltmp427:
	.loc	30 2460 43 prologue_end
	callq	__ZN72_$LT$alloc..vec..Vec$LT$T$C$A$GT$$u20$as$u20$core..ops..deref..Deref$GT$5deref17ha195b773218a2aacE
	movq	%rax, -32(%rbp)
	movq	%rdx, -24(%rbp)
Ltmp428:
	.loc	31 173 14
	movq	%rax, -16(%rbp)
	movq	%rdx, -8(%rbp)
	movq	-16(%rbp), %rax
	movq	-8(%rbp), %rdx
Ltmp429:
	.loc	30 2461 6
	addq	$48, %rsp
	popq	%rbp
	retq
Ltmp430:
Lfunc_end94:
	.cfi_endproc

	.globl	__ZN65_$LT$alloc..vec..Vec$LT$T$C$A$GT$$u20$as$u20$core..fmt..Debug$GT$3fmt17h0e3ca3e558a8a5d8E
	.p2align	4, 0x90
__ZN65_$LT$alloc..vec..Vec$LT$T$C$A$GT$$u20$as$u20$core..fmt..Debug$GT$3fmt17h0e3ca3e558a8a5d8E:
Lfunc_begin95:
	.loc	20 3078 0
	.cfi_startproc
	pushq	%rbp
	.cfi_def_cfa_offset 16
	.cfi_offset %rbp, -16
	movq	%rsp, %rbp
	.cfi_def_cfa_register %rbp
	subq	$32, %rsp
	movq	%rsi, -24(%rbp)
	movq	%rdi, -16(%rbp)
	movq	%rsi, -8(%rbp)
Ltmp431:
	.loc	20 3079 26 prologue_end
	callq	__ZN72_$LT$alloc..vec..Vec$LT$T$C$A$GT$$u20$as$u20$core..ops..deref..Deref$GT$5deref17h068caa6695d81aa3E
	movq	%rax, %rdi
	movq	%rdx, %rsi
	movq	-24(%rbp), %rdx
	.loc	20 3079 9 is_stmt 0
	callq	__ZN48_$LT$$u5b$T$u5d$$u20$as$u20$core..fmt..Debug$GT$3fmt17hb6cf5454f9e2bf24E
	.loc	20 3080 6 is_stmt 1
	andb	$1, %al
	movzbl	%al, %eax
	addq	$32, %rsp
	popq	%rbp
	retq
Ltmp432:
Lfunc_end95:
	.cfi_endproc

	.globl	__ZN66_$LT$core..option..Option$LT$T$GT$$u20$as$u20$core..fmt..Debug$GT$3fmt17h0cd7dadaf9bb4a15E
	.p2align	4, 0x90
__ZN66_$LT$core..option..Option$LT$T$GT$$u20$as$u20$core..fmt..Debug$GT$3fmt17h0cd7dadaf9bb4a15E:
Lfunc_begin96:
	.loc	17 559 0
	.cfi_startproc
	pushq	%rbp
	.cfi_def_cfa_offset 16
	.cfi_offset %rbp, -16
	movq	%rsp, %rbp
	.cfi_def_cfa_register %rbp
	subq	$48, %rsp
	movq	%rdi, -48(%rbp)
	movq	%rsi, -40(%rbp)
	movq	%rdi, -16(%rbp)
	movq	%rsi, -8(%rbp)
Ltmp433:
	.loc	17 559 37 prologue_end
	movl	$1, %eax
	xorl	%ecx, %ecx
	cmpb	$2, (%rdi)
	cmoveq	%rcx, %rax
	cmpq	$0, %rax
	jne	LBB96_2
	.loc	17 0 37 is_stmt 0
	movq	-40(%rbp), %rdi
	.loc	17 559 37
	leaq	L___unnamed_34(%rip), %rsi
	movl	$4, %edx
	callq	__ZN4core3fmt9Formatter9write_str17hb029d9999327a35fE
	andb	$1, %al
	movb	%al, -25(%rbp)
	.loc	17 559 41
	jmp	LBB96_3
LBB96_2:
	.loc	17 0 41
	movq	-40(%rbp), %rdi
	movq	-48(%rbp), %rax
	.loc	17 570 56 is_stmt 1
	movq	%rax, -24(%rbp)
Ltmp434:
	.loc	17 559 37
	leaq	L___unnamed_35(%rip), %rsi
	movl	$4, %edx
	leaq	-24(%rbp), %rcx
	leaq	l___unnamed_4(%rip), %r8
	callq	__ZN4core3fmt9Formatter25debug_tuple_field1_finish17h7c0e485bb1c7676eE
	andb	$1, %al
	movb	%al, -25(%rbp)
Ltmp435:
LBB96_3:
	.loc	17 559 42 is_stmt 0
	movb	-25(%rbp), %al
	andb	$1, %al
	movzbl	%al, %eax
	addq	$48, %rsp
	popq	%rbp
	retq
Ltmp436:
Lfunc_end96:
	.cfi_endproc

	.globl	__ZN66_$LT$core..option..Option$LT$T$GT$$u20$as$u20$core..fmt..Debug$GT$3fmt17h4bde4630ce4dbbd3E
	.p2align	4, 0x90
__ZN66_$LT$core..option..Option$LT$T$GT$$u20$as$u20$core..fmt..Debug$GT$3fmt17h4bde4630ce4dbbd3E:
Lfunc_begin97:
	.loc	17 559 0 is_stmt 1
	.cfi_startproc
	pushq	%rbp
	.cfi_def_cfa_offset 16
	.cfi_offset %rbp, -16
	movq	%rsp, %rbp
	.cfi_def_cfa_register %rbp
	subq	$48, %rsp
	movq	%rdi, -48(%rbp)
	movq	%rsi, -40(%rbp)
	movq	%rdi, -16(%rbp)
	movq	%rsi, -8(%rbp)
Ltmp437:
	.loc	17 559 37 prologue_end
	cmpq	$0, (%rdi)
	jne	LBB97_2
	.loc	17 0 37 is_stmt 0
	movq	-40(%rbp), %rdi
	.loc	17 559 37
	leaq	L___unnamed_34(%rip), %rsi
	movl	$4, %edx
	callq	__ZN4core3fmt9Formatter9write_str17hb029d9999327a35fE
	andb	$1, %al
	movb	%al, -25(%rbp)
	.loc	17 559 41
	jmp	LBB97_3
LBB97_2:
	.loc	17 0 41
	movq	-40(%rbp), %rdi
	movq	-48(%rbp), %rax
	.loc	17 570 56 is_stmt 1
	addq	$8, %rax
	movq	%rax, -24(%rbp)
Ltmp438:
	.loc	17 559 37
	leaq	L___unnamed_35(%rip), %rsi
	movl	$4, %edx
	leaq	-24(%rbp), %rcx
	leaq	l___unnamed_5(%rip), %r8
	callq	__ZN4core3fmt9Formatter25debug_tuple_field1_finish17h7c0e485bb1c7676eE
	andb	$1, %al
	movb	%al, -25(%rbp)
Ltmp439:
LBB97_3:
	.loc	17 559 42 is_stmt 0
	movb	-25(%rbp), %al
	andb	$1, %al
	movzbl	%al, %eax
	addq	$48, %rsp
	popq	%rbp
	retq
Ltmp440:
Lfunc_end97:
	.cfi_endproc

	.globl	__ZN66_$LT$core..option..Option$LT$T$GT$$u20$as$u20$core..fmt..Debug$GT$3fmt17he8020232629cd262E
	.p2align	4, 0x90
__ZN66_$LT$core..option..Option$LT$T$GT$$u20$as$u20$core..fmt..Debug$GT$3fmt17he8020232629cd262E:
Lfunc_begin98:
	.loc	17 559 0 is_stmt 1
	.cfi_startproc
	pushq	%rbp
	.cfi_def_cfa_offset 16
	.cfi_offset %rbp, -16
	movq	%rsp, %rbp
	.cfi_def_cfa_register %rbp
	subq	$48, %rsp
	movq	%rdi, -48(%rbp)
	movq	%rsi, -40(%rbp)
	movq	%rdi, -16(%rbp)
	movq	%rsi, -8(%rbp)
Ltmp441:
	.loc	17 559 37 prologue_end
	movzwl	(%rdi), %eax
	cmpq	$0, %rax
	jne	LBB98_2
	.loc	17 0 37 is_stmt 0
	movq	-40(%rbp), %rdi
	.loc	17 559 37
	leaq	L___unnamed_34(%rip), %rsi
	movl	$4, %edx
	callq	__ZN4core3fmt9Formatter9write_str17hb029d9999327a35fE
	andb	$1, %al
	movb	%al, -25(%rbp)
	.loc	17 559 41
	jmp	LBB98_3
LBB98_2:
	.loc	17 0 41
	movq	-40(%rbp), %rdi
	movq	-48(%rbp), %rax
	.loc	17 570 56 is_stmt 1
	addq	$2, %rax
	movq	%rax, -24(%rbp)
Ltmp442:
	.loc	17 559 37
	leaq	L___unnamed_35(%rip), %rsi
	movl	$4, %edx
	leaq	-24(%rbp), %rcx
	leaq	l___unnamed_6(%rip), %r8
	callq	__ZN4core3fmt9Formatter25debug_tuple_field1_finish17h7c0e485bb1c7676eE
	andb	$1, %al
	movb	%al, -25(%rbp)
Ltmp443:
LBB98_3:
	.loc	17 559 42 is_stmt 0
	movb	-25(%rbp), %al
	andb	$1, %al
	movzbl	%al, %eax
	addq	$48, %rsp
	popq	%rbp
	retq
Ltmp444:
Lfunc_end98:
	.cfi_endproc

	.globl	__ZN66_$LT$core..option..Option$LT$T$GT$$u20$as$u20$core..fmt..Debug$GT$3fmt17hed6780f5449ff51aE
	.p2align	4, 0x90
__ZN66_$LT$core..option..Option$LT$T$GT$$u20$as$u20$core..fmt..Debug$GT$3fmt17hed6780f5449ff51aE:
Lfunc_begin99:
	.loc	17 559 0 is_stmt 1
	.cfi_startproc
	pushq	%rbp
	.cfi_def_cfa_offset 16
	.cfi_offset %rbp, -16
	movq	%rsp, %rbp
	.cfi_def_cfa_register %rbp
	subq	$48, %rsp
	movq	%rdi, -48(%rbp)
	movq	%rsi, -40(%rbp)
	movq	%rdi, -16(%rbp)
	movq	%rsi, -8(%rbp)
Ltmp445:
	.loc	17 559 37 prologue_end
	movb	(%rdi), %al
	andb	$1, %al
	movzbl	%al, %eax
	cmpq	$0, %rax
	jne	LBB99_2
	.loc	17 0 37 is_stmt 0
	movq	-40(%rbp), %rdi
	.loc	17 559 37
	leaq	L___unnamed_34(%rip), %rsi
	movl	$4, %edx
	callq	__ZN4core3fmt9Formatter9write_str17hb029d9999327a35fE
	andb	$1, %al
	movb	%al, -25(%rbp)
	.loc	17 559 41
	jmp	LBB99_3
LBB99_2:
	.loc	17 0 41
	movq	-40(%rbp), %rdi
	movq	-48(%rbp), %rax
	.loc	17 570 56 is_stmt 1
	addq	$1, %rax
	movq	%rax, -24(%rbp)
Ltmp446:
	.loc	17 559 37
	leaq	L___unnamed_35(%rip), %rsi
	movl	$4, %edx
	leaq	-24(%rbp), %rcx
	leaq	l___unnamed_3(%rip), %r8
	callq	__ZN4core3fmt9Formatter25debug_tuple_field1_finish17h7c0e485bb1c7676eE
	andb	$1, %al
	movb	%al, -25(%rbp)
Ltmp447:
LBB99_3:
	.loc	17 559 42 is_stmt 0
	movb	-25(%rbp), %al
	andb	$1, %al
	movzbl	%al, %eax
	addq	$48, %rsp
	popq	%rbp
	retq
Ltmp448:
Lfunc_end99:
	.cfi_endproc

	.globl	__ZN67_$LT$alloc..boxed..Box$LT$T$C$A$GT$$u20$as$u20$core..fmt..Debug$GT$3fmt17h75438cca27a314a1E
	.p2align	4, 0x90
__ZN67_$LT$alloc..boxed..Box$LT$T$C$A$GT$$u20$as$u20$core..fmt..Debug$GT$3fmt17h75438cca27a314a1E:
Lfunc_begin100:
	.loc	27 1882 0 is_stmt 1
	.cfi_startproc
	pushq	%rbp
	.cfi_def_cfa_offset 16
	.cfi_offset %rbp, -16
	movq	%rsp, %rbp
	.cfi_def_cfa_register %rbp
	subq	$16, %rsp
	movq	%rdi, -16(%rbp)
	movq	%rsi, -8(%rbp)
Ltmp449:
	.loc	27 1883 25 prologue_end
	movq	(%rdi), %rdi
	.loc	27 1883 9 is_stmt 0
	callq	__ZN58_$LT$glutin..CreationError$u20$as$u20$core..fmt..Debug$GT$3fmt17hf10e97734ce6baecE
	.loc	27 1884 6 is_stmt 1
	andb	$1, %al
	movzbl	%al, %eax
	addq	$16, %rsp
	popq	%rbp
	retq
Ltmp450:
Lfunc_end100:
	.cfi_endproc

	.globl	__ZN67_$LT$alloc..boxed..Box$LT$T$C$A$GT$$u20$as$u20$core..fmt..Debug$GT$3fmt17h853cd3d39b4e3bc4E
	.p2align	4, 0x90
__ZN67_$LT$alloc..boxed..Box$LT$T$C$A$GT$$u20$as$u20$core..fmt..Debug$GT$3fmt17h853cd3d39b4e3bc4E:
Lfunc_begin101:
	.loc	27 1882 0
	.cfi_startproc
	pushq	%rbp
	.cfi_def_cfa_offset 16
	.cfi_offset %rbp, -16
	movq	%rsp, %rbp
	.cfi_def_cfa_register %rbp
	subq	$16, %rsp
	movq	%rdi, %rax
	movq	%rax, -16(%rbp)
	movq	%rsi, -8(%rbp)
Ltmp451:
	.loc	27 1883 25 prologue_end
	movq	(%rax), %rdi
	movq	8(%rax), %rax
	.loc	27 1883 9 is_stmt 0
	callq	*24(%rax)
	.loc	27 1884 6 is_stmt 1
	andb	$1, %al
	movzbl	%al, %eax
	addq	$16, %rsp
	popq	%rbp
	retq
Ltmp452:
Lfunc_end101:
	.cfi_endproc

	.p2align	4, 0x90
__ZN67_$LT$usize$u20$as$u20$core_foundation..base..CFIndexConvertible$GT$10to_CFIndex17h6547a7a3172af5beE:
Lfunc_begin102:
	.file	33 "/Users/natalie/.cargo/registry/src/github.com-1ecc6299db9ec823/core-foundation-0.9.3/src" "base.rs"
	.loc	33 31 0
	.cfi_startproc
	pushq	%rbp
	.cfi_def_cfa_offset 16
	.cfi_offset %rbp, -16
	movq	%rsp, %rbp
	.cfi_def_cfa_register %rbp
	subq	$32, %rsp
	movq	%rdi, -24(%rbp)
	movq	%rdi, -16(%rbp)
Ltmp453:
	.loc	33 32 27 prologue_end
	movabsq	$9223372036854775807, %rax
	movq	%rax, -8(%rbp)
Ltmp454:
	.loc	33 33 12
	movabsq	$9223372036854775807, %rax
	cmpq	%rax, %rdi
	ja	LBB102_2
Ltmp455:
	.loc	33 0 12 is_stmt 0
	movq	-24(%rbp), %rax
	.loc	33 37 6 is_stmt 1
	addq	$32, %rsp
	popq	%rbp
	retq
LBB102_2:
Ltmp456:
	.loc	33 34 13
	leaq	l___unnamed_36(%rip), %rdi
	leaq	l___unnamed_37(%rip), %rdx
	movl	$18, %esi
	callq	__ZN3std9panicking11begin_panic17h385bc5a63460a970E
Ltmp457:
Lfunc_end102:
	.cfi_endproc

	.globl	__ZN69_$LT$alloc..boxed..Box$LT$T$C$A$GT$$u20$as$u20$core..fmt..Display$GT$3fmt17h06b991396d65922eE
	.p2align	4, 0x90
__ZN69_$LT$alloc..boxed..Box$LT$T$C$A$GT$$u20$as$u20$core..fmt..Display$GT$3fmt17h06b991396d65922eE:
Lfunc_begin103:
	.loc	27 1875 0
	.cfi_startproc
	pushq	%rbp
	.cfi_def_cfa_offset 16
	.cfi_offset %rbp, -16
	movq	%rsp, %rbp
	.cfi_def_cfa_register %rbp
	subq	$16, %rsp
	movq	%rdi, %rax
	movq	%rax, -16(%rbp)
	movq	%rsi, -8(%rbp)
Ltmp458:
	.loc	27 1876 27 prologue_end
	movq	(%rax), %rdi
	movq	8(%rax), %rax
	.loc	27 1876 9 is_stmt 0
	callq	*32(%rax)
	.loc	27 1877 6 is_stmt 1
	andb	$1, %al
	movzbl	%al, %eax
	addq	$16, %rsp
	popq	%rbp
	retq
Ltmp459:
Lfunc_end103:
	.cfi_endproc

	.globl	__ZN69_$LT$alloc..boxed..Box$LT$T$C$A$GT$$u20$as$u20$core..fmt..Display$GT$3fmt17h26862bc01e29e603E
	.p2align	4, 0x90
__ZN69_$LT$alloc..boxed..Box$LT$T$C$A$GT$$u20$as$u20$core..fmt..Display$GT$3fmt17h26862bc01e29e603E:
Lfunc_begin104:
	.loc	27 1875 0
	.cfi_startproc
	pushq	%rbp
	.cfi_def_cfa_offset 16
	.cfi_offset %rbp, -16
	movq	%rsp, %rbp
	.cfi_def_cfa_register %rbp
	subq	$16, %rsp
	movq	%rdi, -16(%rbp)
	movq	%rsi, -8(%rbp)
Ltmp460:
	.loc	27 1876 27 prologue_end
	movq	(%rdi), %rdi
	.loc	27 1876 9 is_stmt 0
	callq	__ZN60_$LT$glutin..CreationError$u20$as$u20$core..fmt..Display$GT$3fmt17h1f88358b56814839E
	.loc	27 1877 6 is_stmt 1
	andb	$1, %al
	movzbl	%al, %eax
	addq	$16, %rsp
	popq	%rbp
	retq
Ltmp461:
Lfunc_end104:
	.cfi_endproc

	.globl	__ZN70_$LT$core..option..Option$LT$T$GT$$u20$as$u20$core..cmp..PartialEq$GT$2eq17h084815a0d29a2298E
	.p2align	4, 0x90
__ZN70_$LT$core..option..Option$LT$T$GT$$u20$as$u20$core..cmp..PartialEq$GT$2eq17h084815a0d29a2298E:
Lfunc_begin105:
	.loc	17 2088 0
	.cfi_startproc
	pushq	%rbp
	.cfi_def_cfa_offset 16
	.cfi_offset %rbp, -16
	movq	%rsp, %rbp
	.cfi_def_cfa_register %rbp
	subq	$16, %rsp
	movq	%rdi, -16(%rbp)
	movq	%rsi, -8(%rbp)
Ltmp462:
	.loc	17 2089 9 prologue_end
	callq	__ZN55_$LT$T$u20$as$u20$core..option..SpecOptionPartialEq$GT$2eq17h2e5dc4a75fdeeb3eE
	.loc	17 2090 6
	andb	$1, %al
	movzbl	%al, %eax
	addq	$16, %rsp
	popq	%rbp
	retq
Ltmp463:
Lfunc_end105:
	.cfi_endproc

	.globl	__ZN71_$LT$core..marker..PhantomData$LT$T$GT$$u20$as$u20$core..fmt..Debug$GT$3fmt17haff3eceb360c83d3E
	.p2align	4, 0x90
__ZN71_$LT$core..marker..PhantomData$LT$T$GT$$u20$as$u20$core..fmt..Debug$GT$3fmt17haff3eceb360c83d3E:
Lfunc_begin106:
	.loc	4 2616 0
	.cfi_startproc
	pushq	%rbp
	.cfi_def_cfa_offset 16
	.cfi_offset %rbp, -16
	movq	%rsp, %rbp
	.cfi_def_cfa_register %rbp
	subq	$160, %rsp
	movq	%rsi, -160(%rbp)
	movq	%rdi, -56(%rbp)
	movq	%rsi, -48(%rbp)
Ltmp464:
	.loc	4 2617 38 prologue_end
	callq	__ZN4core3any9type_name17h668304fb46a579e1E
	movq	%rdx, -64(%rbp)
	movq	%rax, -72(%rbp)
	.loc	4 2617 9 is_stmt 0
	leaq	-72(%rbp), %rax
	movq	%rax, -40(%rbp)
Ltmp465:
	.loc	4 328 23 is_stmt 1
	leaq	-72(%rbp), %rax
	movq	%rax, -32(%rbp)
	.loc	4 328 26 is_stmt 0
	movq	__ZN44_$LT$$RF$T$u20$as$u20$core..fmt..Display$GT$3fmt17ha6145efffd5687eeE@GOTPCREL(%rip), %rax
	movq	%rax, -24(%rbp)
Ltmp466:
	.loc	4 347 42 is_stmt 1
	movq	__ZN44_$LT$$RF$T$u20$as$u20$core..fmt..Display$GT$3fmt17ha6145efffd5687eeE@GOTPCREL(%rip), %rax
	movq	%rax, -16(%rbp)
	movq	-16(%rbp), %rax
	.loc	4 347 68 is_stmt 0
	leaq	-72(%rbp), %rcx
	movq	%rcx, -8(%rbp)
	movq	-8(%rbp), %rcx
	.loc	4 347 18
	movq	%rcx, -88(%rbp)
	movq	%rax, -80(%rbp)
Ltmp467:
	.loc	4 2617 9 is_stmt 1
	movq	-88(%rbp), %rcx
	movq	-80(%rbp), %rax
	movq	%rcx, -104(%rbp)
	movq	%rax, -96(%rbp)
	leaq	-152(%rbp), %rdi
	leaq	l___unnamed_38(%rip), %rsi
	movl	$2, %edx
	leaq	-104(%rbp), %rcx
	movl	$1, %r8d
	callq	__ZN4core3fmt9Arguments6new_v117h6e7458c47a18cc83E
	movq	-160(%rbp), %rdi
	leaq	-152(%rbp), %rsi
	callq	__ZN4core3fmt9Formatter9write_fmt17h9bb7721c944aee26E
	.loc	4 2618 6
	andb	$1, %al
	movzbl	%al, %eax
	addq	$160, %rsp
	popq	%rbp
	retq
Ltmp468:
Lfunc_end106:
	.cfi_endproc

	.globl	__ZN72_$LT$alloc..vec..Vec$LT$T$C$A$GT$$u20$as$u20$core..ops..deref..Deref$GT$5deref17h068caa6695d81aa3E
	.p2align	4, 0x90
__ZN72_$LT$alloc..vec..Vec$LT$T$C$A$GT$$u20$as$u20$core..ops..deref..Deref$GT$5deref17h068caa6695d81aa3E:
Lfunc_begin107:
	.loc	20 2636 0
	.cfi_startproc
	pushq	%rbp
	.cfi_def_cfa_offset 16
	.cfi_offset %rbp, -16
	movq	%rsp, %rbp
	.cfi_def_cfa_register %rbp
	subq	$184, %rsp
	movq	%rdi, -144(%rbp)
Ltmp469:
	.loc	20 2637 40 prologue_end
	movq	%rdi, -136(%rbp)
Ltmp470:
	.loc	20 1243 19
	movq	%rdi, -128(%rbp)
Ltmp471:
	.loc	21 224 9
	movq	8(%rdi), %rcx
	movq	%rcx, -120(%rbp)
Ltmp472:
	.loc	22 104 9
	movq	%rcx, -112(%rbp)
Ltmp473:
	.loc	16 326 9
	movq	%rcx, -104(%rbp)
Ltmp474:
	.loc	20 1245 21
	movq	%rcx, -96(%rbp)
Ltmp475:
	.loc	23 52 36
	movq	%rcx, -184(%rbp)
	.loc	23 52 18 is_stmt 0
	movq	-184(%rbp), %rax
	movq	%rax, -88(%rbp)
Ltmp476:
	.loc	23 38 13 is_stmt 1
	movq	%rax, -80(%rbp)
Ltmp477:
	.loc	23 215 33
	movq	%rax, -72(%rbp)
	.loc	23 215 18 is_stmt 0
	movq	%rax, -64(%rbp)
Ltmp478:
	.loc	20 1247 9 is_stmt 1
	movq	%rcx, -56(%rbp)
Ltmp479:
	.loc	20 2637 55
	movq	16(%rdi), %rax
	movq	%rax, -48(%rbp)
Ltmp480:
	.file	34 "/rustc/2c8cc343237b8f7d5a3c3703e3a87f2eb2c54a74/library/core/src/slice" "raw.rs"
	.loc	34 100 37
	movq	%rcx, -40(%rbp)
	.loc	34 100 43 is_stmt 0
	movq	%rax, -32(%rbp)
Ltmp481:
	.loc	9 734 20 is_stmt 1
	movq	%rcx, -24(%rbp)
Ltmp482:
	.loc	14 61 9
	movq	%rcx, -16(%rbp)
Ltmp483:
	.loc	9 734 33
	movq	%rax, -8(%rbp)
Ltmp484:
	.loc	15 118 36
	movq	%rcx, -160(%rbp)
	movq	%rax, -152(%rbp)
	.loc	15 118 14 is_stmt 0
	movq	-160(%rbp), %rcx
	movq	-152(%rbp), %rax
	movq	%rcx, -176(%rbp)
	movq	%rax, -168(%rbp)
	movq	-176(%rbp), %rax
	movq	-168(%rbp), %rdx
Ltmp485:
	.loc	20 2638 6 is_stmt 1
	addq	$184, %rsp
	popq	%rbp
	retq
Ltmp486:
Lfunc_end107:
	.cfi_endproc

	.p2align	4, 0x90
__ZN80_$LT$core_foundation..string..CFString$u20$as$u20$core..str..traits..FromStr$GT$8from_str17hcc7dd7ea9ef2c1feE:
Lfunc_begin108:
	.loc	3 36 0
	.cfi_startproc
	pushq	%rbp
	.cfi_def_cfa_offset 16
	.cfi_offset %rbp, -16
	movq	%rsp, %rbp
	.cfi_def_cfa_register %rbp
	subq	$32, %rsp
	movq	%rdi, -16(%rbp)
	movq	%rsi, -8(%rbp)
Ltmp487:
	.loc	3 37 12 prologue_end
	callq	__ZN15core_foundation6string8CFString3new17h03658e024e32ab05E
	.loc	3 37 9 is_stmt 0
	movq	%rax, -24(%rbp)
	movq	$0, -32(%rbp)
	.loc	3 38 6 is_stmt 1
	movq	-32(%rbp), %rax
	movq	-24(%rbp), %rdx
	addq	$32, %rsp
	popq	%rbp
	retq
Ltmp488:
Lfunc_end108:
	.cfi_endproc

	.p2align	4, 0x90
__ZN84_$LT$core_foundation..string..CFString$u20$as$u20$core_foundation..base..TCFType$GT$19as_concrete_TypeRef17h900d831e3d27f6ceE:
Lfunc_begin109:
	.file	35 "/Users/natalie/.cargo/registry/src/github.com-1ecc6299db9ec823/core-foundation-0.9.3/src" "lib.rs"
	.loc	35 92 0
	.cfi_startproc
	pushq	%rbp
	.cfi_def_cfa_offset 16
	.cfi_offset %rbp, -16
	movq	%rsp, %rbp
	.cfi_def_cfa_register %rbp
	pushq	%rax
	movq	%rdi, -8(%rbp)
Ltmp489:
	.loc	35 93 17 prologue_end
	movq	(%rdi), %rax
	.loc	35 94 14
	addq	$8, %rsp
	popq	%rbp
	retq
Ltmp490:
Lfunc_end109:
	.cfi_endproc

	.p2align	4, 0x90
__ZN84_$LT$core_foundation..string..CFString$u20$as$u20$core_foundation..base..TCFType$GT$22wrap_under_create_rule17hd500e9ddfd7df253E:
Lfunc_begin110:
	.loc	35 109 0
	.cfi_startproc
	pushq	%rbp
	.cfi_def_cfa_offset 16
	.cfi_offset %rbp, -16
	movq	%rsp, %rbp
	.cfi_def_cfa_register %rbp
	subq	$32, %rsp
	movq	%rdi, -24(%rbp)
	movq	%rdi, -8(%rbp)
Ltmp491:
	.loc	35 110 26 prologue_end
	callq	__ZN4core3ptr9const_ptr33_$LT$impl$u20$$BP$const$u20$T$GT$7is_null17h98defd3106e92803E
	.loc	35 110 25 is_stmt 0
	xorb	$-1, %al
	.loc	35 110 17
	xorb	$-1, %al
	testb	$1, %al
	jne	LBB110_2
	.loc	35 0 17
	movq	-24(%rbp), %rax
	.loc	35 113 17 is_stmt 1
	movq	%rax, -16(%rbp)
	.loc	35 114 14
	movq	-16(%rbp), %rax
	addq	$32, %rsp
	popq	%rbp
	retq
LBB110_2:
	.loc	35 110 17
	leaq	l___unnamed_39(%rip), %rdi
	leaq	l___unnamed_40(%rip), %rdx
	movl	$34, %esi
	callq	__ZN3std9panicking11begin_panic17h385bc5a63460a970E
Ltmp492:
Lfunc_end110:
	.cfi_endproc

	.globl	__ZN91_$LT$core..slice..iter..Iter$LT$T$GT$$u20$as$u20$core..iter..traits..iterator..Iterator$GT$4next17ha748b2045d60c444E
	.p2align	4, 0x90
__ZN91_$LT$core..slice..iter..Iter$LT$T$GT$$u20$as$u20$core..iter..traits..iterator..Iterator$GT$4next17ha748b2045d60c444E:
Lfunc_begin111:
	.file	36 "/rustc/2c8cc343237b8f7d5a3c3703e3a87f2eb2c54a74/library/core/src/slice/iter" "macros.rs"
	.loc	36 124 0
	.cfi_startproc
	pushq	%rbp
	.cfi_def_cfa_offset 16
	.cfi_offset %rbp, -16
	movq	%rsp, %rbp
	.cfi_def_cfa_register %rbp
	subq	$304, %rsp
	movq	%rdi, -304(%rbp)
	movq	%rdi, -240(%rbp)
Ltmp493:
	.loc	36 132 29 prologue_end
	movq	8(%rdi), %rax
	movq	%rax, -224(%rbp)
Ltmp494:
	.loc	16 326 9
	movq	%rax, -216(%rbp)
Ltmp495:
	.loc	23 52 36
	movq	%rax, -280(%rbp)
	.loc	23 52 18 is_stmt 0
	movq	-280(%rbp), %rax
	movq	%rax, -208(%rbp)
Ltmp496:
	.loc	23 38 13 is_stmt 1
	movq	%rax, -200(%rbp)
Ltmp497:
	.loc	23 215 33
	movq	%rax, -192(%rbp)
	.loc	23 215 18 is_stmt 0
	movq	%rax, -184(%rbp)
Ltmp498:
	.loc	36 133 24 is_stmt 1
	movb	$1, %al
	testb	$1, %al
	jne	LBB111_2
LBB111_1:
	.loc	36 0 24 is_stmt 0
	movq	-304(%rbp), %rcx
	.loc	36 136 24 is_stmt 1
	movq	8(%rcx), %rax
	movq	%rax, -136(%rbp)
	cmpq	(%rcx), %rax
	je	LBB111_4
	jmp	LBB111_3
LBB111_2:
	.loc	36 0 24 is_stmt 0
	movq	-304(%rbp), %rax
	.loc	36 134 33 is_stmt 1
	movq	(%rax), %rax
	movq	%rax, -176(%rbp)
Ltmp499:
	.loc	14 53 36
	movq	%rax, -272(%rbp)
	.loc	14 53 18 is_stmt 0
	movq	-272(%rbp), %rax
	movq	%rax, -168(%rbp)
Ltmp500:
	.loc	14 39 13 is_stmt 1
	movq	%rax, -160(%rbp)
Ltmp501:
	.loc	14 209 33
	movq	%rax, -152(%rbp)
	.loc	14 209 18 is_stmt 0
	movq	%rax, -144(%rbp)
Ltmp502:
	.loc	36 133 21 is_stmt 1
	jmp	LBB111_1
LBB111_3:
	.loc	36 0 21 is_stmt 0
	movq	-304(%rbp), %rax
	.loc	36 139 30 is_stmt 1
	movq	%rax, -128(%rbp)
Ltmp503:
	.loc	36 76 20
	xorl	%eax, %eax
	testb	$1, %al
	jne	LBB111_6
	jmp	LBB111_7
Ltmp504:
LBB111_4:
	.loc	36 137 25
	movq	$0, -296(%rbp)
LBB111_5:
	.loc	36 142 14
	movq	-296(%rbp), %rax
	addq	$304, %rsp
	popq	%rbp
	retq
LBB111_6:
	.loc	36 0 14 is_stmt 0
	movq	-304(%rbp), %rax
Ltmp505:
	.loc	36 57 29 is_stmt 1
	movq	(%rax), %rcx
	movq	%rcx, -64(%rbp)
Ltmp506:
	.loc	14 1198 9
	movq	%rcx, -56(%rbp)
Ltmp507:
	.loc	14 61 9
	movq	%rcx, -48(%rbp)
Ltmp508:
	.loc	14 1180 9
	movq	%rcx, -40(%rbp)
Ltmp509:
	.loc	14 555 18
	addq	$-1, %rcx
	movq	%rcx, -32(%rbp)
	movq	-32(%rbp), %rcx
	movq	%rcx, -24(%rbp)
Ltmp510:
	.loc	14 100 29
	movq	%rcx, -16(%rbp)
Ltmp511:
	.loc	15 118 36
	movq	%rcx, -248(%rbp)
	.loc	15 118 14 is_stmt 0
	movq	-248(%rbp), %rcx
	movq	%rcx, -256(%rbp)
	movq	-256(%rbp), %rcx
Ltmp512:
	.loc	36 57 17 is_stmt 1
	movq	%rcx, (%rax)
	.loc	36 78 21
	movq	8(%rax), %rax
	movq	%rax, -8(%rbp)
	movq	%rax, -288(%rbp)
	.loc	36 76 17
	jmp	LBB111_8
LBB111_7:
	.loc	36 0 17 is_stmt 0
	movq	-304(%rbp), %rcx
	.loc	36 80 31 is_stmt 1
	movq	8(%rcx), %rax
	movq	%rax, -120(%rbp)
Ltmp513:
	.loc	16 326 9
	movq	%rax, -112(%rbp)
Ltmp514:
	.loc	36 83 64
	movq	8(%rcx), %rdx
	movq	%rdx, -104(%rbp)
Ltmp515:
	.loc	16 326 9
	movq	%rdx, -96(%rbp)
Ltmp516:
	.loc	23 1034 18
	movq	%rdx, -88(%rbp)
Ltmp517:
	.loc	23 487 18
	addq	$8, %rdx
	movq	%rdx, -80(%rbp)
	movq	-80(%rbp), %rdx
	movq	%rdx, -72(%rbp)
Ltmp518:
	.loc	16 201 13
	movq	%rdx, -264(%rbp)
Ltmp519:
	.loc	36 83 21
	movq	-264(%rbp), %rdx
	movq	%rdx, 8(%rcx)
	.loc	36 84 21
	movq	%rax, -288(%rbp)
Ltmp520:
LBB111_8:
	.loc	36 139 30
	movq	-288(%rbp), %rax
	.loc	36 139 25 is_stmt 0
	movq	%rax, -296(%rbp)
	.loc	36 136 21 is_stmt 1
	jmp	LBB111_5
Ltmp521:
Lfunc_end111:
	.cfi_endproc

	.globl	__ZN94_$LT$$RF$alloc..vec..Vec$LT$T$C$A$GT$$u20$as$u20$core..iter..traits..collect..IntoIterator$GT$9into_iter17hd17902e2e3d0c7e7E
	.p2align	4, 0x90
__ZN94_$LT$$RF$alloc..vec..Vec$LT$T$C$A$GT$$u20$as$u20$core..iter..traits..collect..IntoIterator$GT$9into_iter17hd17902e2e3d0c7e7E:
Lfunc_begin112:
	.loc	20 2807 0
	.cfi_startproc
	pushq	%rbp
	.cfi_def_cfa_offset 16
	.cfi_offset %rbp, -16
	movq	%rsp, %rbp
	.cfi_def_cfa_register %rbp
	subq	$32, %rsp
	movq	%rdi, -24(%rbp)
Ltmp522:
	.loc	20 2808 9 prologue_end
	callq	__ZN72_$LT$alloc..vec..Vec$LT$T$C$A$GT$$u20$as$u20$core..ops..deref..Deref$GT$5deref17h068caa6695d81aa3E
	movq	%rax, %rdi
	movq	%rdx, %rsi
	movq	%rdi, -16(%rbp)
	movq	%rsi, -8(%rbp)
Ltmp523:
	.loc	5 742 9
	callq	__ZN4core5slice4iter13Iter$LT$T$GT$3new17hb8852cc64c321b1bE
Ltmp524:
	.loc	20 2809 6
	addq	$32, %rsp
	popq	%rbp
	retq
Ltmp525:
Lfunc_end112:
	.cfi_endproc

	.globl	__ZN6glutin7context47Context$LT$glutin..context..PossiblyCurrent$GT$16get_proc_address17h5a17ca36e747951aE
	.p2align	4, 0x90
__ZN6glutin7context47Context$LT$glutin..context..PossiblyCurrent$GT$16get_proc_address17h5a17ca36e747951aE:
Lfunc_begin113:
	.file	37 "/Users/natalie/.cargo/registry/src/github.com-1ecc6299db9ec823/glutin-0.29.1" "src/context.rs"
	.loc	37 75 0
	.cfi_startproc
	pushq	%rbp
	.cfi_def_cfa_offset 16
	.cfi_offset %rbp, -16
	movq	%rsp, %rbp
	.cfi_def_cfa_register %rbp
	subq	$32, %rsp
	movq	%rdi, -24(%rbp)
	movq	%rsi, -16(%rbp)
	movq	%rdx, -8(%rbp)
Ltmp526:
	.loc	37 76 9 prologue_end
	callq	__ZN6glutin13platform_impl8platform7Context16get_proc_address17h237d0ba42f30c093E
	.loc	37 77 6
	addq	$32, %rsp
	popq	%rbp
	retq
Ltmp527:
Lfunc_end113:
	.cfi_endproc

	.globl	__ZN6glutin13platform_impl8platform7helpers18build_nsattributes17h298b91735d5a09eeE
	.p2align	4, 0x90
__ZN6glutin13platform_impl8platform7helpers18build_nsattributes17h298b91735d5a09eeE:
Lfunc_begin114:
	.file	38 "/Users/natalie/.cargo/registry/src/github.com-1ecc6299db9ec823/glutin-0.29.1" "src/platform_impl/macos/helpers.rs"
	.loc	38 72 0
	.cfi_startproc
	.cfi_personality 155, _rust_eh_personality
	.cfi_lsda 16, Lexception7
	pushq	%rbp
	.cfi_def_cfa_offset 16
	.cfi_offset %rbp, -16
	movq	%rsp, %rbp
	.cfi_def_cfa_register %rbp
	subq	$240, %rsp
	movq	%rdx, -192(%rbp)
	movq	%rsi, -168(%rbp)
	movq	%rdi, -184(%rbp)
	movq	%rdi, -176(%rbp)
	movq	%rsi, -48(%rbp)
	movq	%rdx, -40(%rbp)
Ltmp563:
	.loc	38 81 23 prologue_end
	movb	22(%rsi), %al
	movl	$8, %edx
	andb	$1, %al
	movzbl	%al, %edi
	movzbl	23(%rsi), %esi
	callq	__ZN4core6option15Option$LT$T$GT$9unwrap_or17hbcba36510ee4904aE
	movq	-168(%rbp), %rsi
	movb	%al, -154(%rbp)
	movb	%al, -26(%rbp)
Ltmp564:
	.loc	38 82 23
	movb	20(%rsi), %al
	movl	$24, %edx
	andb	$1, %al
	movzbl	%al, %edi
	movzbl	21(%rsi), %esi
	callq	__ZN4core6option15Option$LT$T$GT$9unwrap_or17hbcba36510ee4904aE
	movb	-154(%rbp), %cl
	addb	%cl, %al
	movb	%al, -153(%rbp)
	setb	%al
	testb	$1, %al
	jne	LBB114_2
	.loc	38 0 23 is_stmt 0
	movb	-153(%rbp), %al
	.loc	38 82 23
	movb	%al, -25(%rbp)
	movl	$48, %edi
	movl	$4, %esi
Ltmp565:
	.loc	38 84 26 is_stmt 1
	callq	__ZN5alloc5alloc15exchange_malloc17h63c11329c1c9b58eE
	movq	-192(%rbp), %rsi
	movb	-153(%rbp), %dl
	movb	-154(%rbp), %cl
	movq	%rax, %rdi
	movq	-168(%rbp), %rax
	movq	%rdi, -216(%rbp)
	.loc	38 86 9
	movq	%rsi, -128(%rbp)
	movl	-128(%rbp), %esi
	movl	%esi, -208(%rbp)
	.loc	38 89 9
	movzbl	%dl, %edx
	movl	%edx, -204(%rbp)
	.loc	38 91 9
	movzbl	%cl, %ecx
	movl	%ecx, -200(%rbp)
	.loc	38 93 9
	movzbl	24(%rax), %edi
	movzbl	25(%rax), %esi
Ltmp528:
	movl	$24, %edx
	callq	__ZN4core6option15Option$LT$T$GT$9unwrap_or17hbcba36510ee4904aE
Ltmp529:
	movb	%al, -193(%rbp)
	jmp	LBB114_5
Ltmp566:
LBB114_2:
	.loc	38 82 23
	leaq	_str.0(%rip), %rdi
	leaq	l___unnamed_41(%rip), %rdx
	movl	$28, %esi
	callq	__ZN4core9panicking5panic17hc1bc45270cf64b03E
LBB114_3:
Ltmp533:
	.loc	38 0 23 is_stmt 0
	movq	-216(%rbp), %rdi
Ltmp567:
	.loc	38 84 26 is_stmt 1
	callq	__ZN5alloc5alloc8box_free17h8b0934b9c9da807cE
Ltmp534:
	jmp	LBB114_8
LBB114_4:
Ltmp532:
	.loc	38 0 26 is_stmt 0
	movq	%rax, %rcx
	movl	%edx, %eax
	movq	%rcx, -24(%rbp)
	movl	%eax, -16(%rbp)
	jmp	LBB114_3
LBB114_5:
	movq	-168(%rbp), %rax
	movb	-193(%rbp), %cl
	.loc	38 93 9 is_stmt 1
	movzbl	%cl, %ecx
	movl	%ecx, -224(%rbp)
	.loc	38 95 9
	movzbl	26(%rax), %edi
	movzbl	27(%rax), %esi
Ltmp530:
	movl	$8, %edx
	callq	__ZN4core6option15Option$LT$T$GT$9unwrap_or17hbcba36510ee4904aE
Ltmp531:
	movb	%al, -217(%rbp)
	jmp	LBB114_6
LBB114_6:
	.loc	38 0 9 is_stmt 0
	movq	-216(%rbp), %rsi
	movl	-224(%rbp), %ecx
	movl	-200(%rbp), %edx
	movl	-204(%rbp), %edi
	movl	-208(%rbp), %r8d
	movb	-217(%rbp), %al
	.loc	38 95 9
	movzbl	%al, %eax
	.loc	38 84 26 is_stmt 1
	movl	$99, (%rsi)
	movl	%r8d, 4(%rsi)
	movl	$74, 8(%rsi)
	movl	$8, 12(%rsi)
	movl	%edi, 16(%rsi)
	movl	$11, 20(%rsi)
	movl	%edx, 24(%rsi)
	movl	$12, 28(%rsi)
	movl	%ecx, 32(%rsi)
	movl	$13, 36(%rsi)
	movl	%eax, 40(%rsi)
	movl	$96, 44(%rsi)
	leaq	-152(%rbp), %rdi
	movl	$12, %edx
	callq	__ZN5alloc5slice29_$LT$impl$u20$$u5b$T$u5d$$GT$8into_vec17h1739344a57fbfa29E
	movq	-168(%rbp), %rdx
Ltmp568:
	.loc	38 99 12
	movl	$1, %eax
	xorl	%ecx, %ecx
	cmpb	$2, 28(%rdx)
	cmoveq	%rcx, %rax
	cmpq	$1, %rax
	je	LBB114_9
	jmp	LBB114_10
Ltmp569:
LBB114_7:
Ltmp562:
	.loc	38 72 1
	callq	__ZN4core9panicking19panic_cannot_unwind17h1fbca7e1d7f56ae1E
LBB114_8:
	movq	-24(%rbp), %rdi
	callq	__Unwind_Resume
LBB114_9:
	.loc	38 0 1 is_stmt 0
	movq	-168(%rbp), %rax
Ltmp570:
	.loc	38 99 12 is_stmt 1
	testb	$1, 28(%rax)
	jne	LBB114_11
LBB114_10:
	.loc	38 0 12 is_stmt 0
	movq	-168(%rbp), %rdi
	.loc	38 106 8 is_stmt 1
	addq	$29, %rdi
Ltmp537:
	leaq	l___unnamed_42(%rip), %rsi
	callq	__ZN4core3cmp9PartialEq2ne17hf6d50cbe6a03db2eE
Ltmp538:
	movb	%al, -225(%rbp)
	jmp	LBB114_15
LBB114_11:
Ltmp535:
	.loc	38 0 8 is_stmt 0
	leaq	-152(%rbp), %rdi
	movl	$73, %esi
	.loc	38 100 9 is_stmt 1
	callq	__ZN5alloc3vec16Vec$LT$T$C$A$GT$4push17h1d729d0f29abe74cE
Ltmp536:
	jmp	LBB114_14
Ltmp571:
LBB114_12:
Ltmp560:
	.loc	38 0 9 is_stmt 0
	leaq	-152(%rbp), %rdi
	.loc	38 134 1 is_stmt 1
	callq	__ZN4core3ptr47drop_in_place$LT$alloc..vec..Vec$LT$u32$GT$$GT$17h66556bac5b40e64bE
Ltmp561:
	jmp	LBB114_8
LBB114_13:
Ltmp559:
	.loc	38 0 1 is_stmt 0
	movq	%rax, %rcx
	movl	%edx, %eax
	movq	%rcx, -24(%rbp)
	movl	%eax, -16(%rbp)
	jmp	LBB114_12
LBB114_14:
Ltmp572:
	.loc	38 100 9 is_stmt 1
	jmp	LBB114_10
LBB114_15:
	.loc	38 0 9 is_stmt 0
	movb	-225(%rbp), %al
	.loc	38 106 8 is_stmt 1
	testb	$1, %al
	jne	LBB114_17
	jmp	LBB114_16
LBB114_16:
	.loc	38 0 8 is_stmt 0
	movq	-168(%rbp), %rdi
	.loc	38 110 8 is_stmt 1
	addq	$33, %rdi
Ltmp541:
	leaq	l___unnamed_43(%rip), %rsi
	callq	__ZN4core3cmp9PartialEq2ne17h1eb9b9494a717f7bE
Ltmp542:
	movb	%al, -226(%rbp)
	jmp	LBB114_19
LBB114_17:
Ltmp539:
	.loc	38 0 8 is_stmt 0
	leaq	-152(%rbp), %rdi
	movl	$5, %esi
	.loc	38 107 9 is_stmt 1
	callq	__ZN5alloc3vec16Vec$LT$T$C$A$GT$4push17h1d729d0f29abe74cE
Ltmp540:
	jmp	LBB114_18
LBB114_18:
	jmp	LBB114_16
LBB114_19:
	.loc	38 0 9 is_stmt 0
	movb	-226(%rbp), %al
	.loc	38 110 8 is_stmt 1
	testb	$1, %al
	jne	LBB114_21
	jmp	LBB114_20
LBB114_20:
	.loc	38 0 8 is_stmt 0
	movq	-168(%rbp), %rax
	.loc	38 114 8 is_stmt 1
	testb	$1, 31(%rax)
	jne	LBB114_24
	jmp	LBB114_23
LBB114_21:
	.loc	38 0 8 is_stmt 0
	movq	-184(%rbp), %rdi
	.loc	38 111 20 is_stmt 1
	movq	$5, -120(%rbp)
	.loc	38 111 16 is_stmt 0
	leaq	-120(%rbp), %rsi
	movl	$48, %edx
	callq	_memcpy
Ltmp573:
	.loc	38 134 1 is_stmt 1
	leaq	-152(%rbp), %rdi
	callq	__ZN4core3ptr47drop_in_place$LT$alloc..vec..Vec$LT$u32$GT$$GT$17h66556bac5b40e64bE
Ltmp574:
LBB114_22:
	.loc	38 0 1 is_stmt 0
	movq	-176(%rbp), %rax
	.loc	38 134 2
	addq	$240, %rsp
	popq	%rbp
	retq
LBB114_23:
	.loc	38 0 2
	movq	-168(%rbp), %rax
Ltmp575:
	.loc	38 118 8 is_stmt 1
	testb	$1, 30(%rax)
	jne	LBB114_27
	jmp	LBB114_26
LBB114_24:
Ltmp557:
	.loc	38 115 9
	leaq	l___unnamed_44(%rip), %rdi
	leaq	l___unnamed_45(%rip), %rdx
	movl	$15, %esi
	callq	__ZN4core9panicking5panic17hc1bc45270cf64b03E
Ltmp558:
	jmp	LBB114_25
LBB114_25:
	.loc	38 0 9 is_stmt 0
	ud2
LBB114_26:
	movq	-168(%rbp), %rax
Ltmp576:
	.loc	38 122 12 is_stmt 1
	movzwl	16(%rax), %eax
	cmpq	$1, %rax
	je	LBB114_29
	jmp	LBB114_30
Ltmp577:
LBB114_27:
Ltmp543:
	.loc	38 0 12 is_stmt 0
	leaq	-152(%rbp), %rdi
	movl	$58, %esi
	.loc	38 119 9 is_stmt 1
	callq	__ZN5alloc3vec16Vec$LT$T$C$A$GT$4push17h1d729d0f29abe74cE
Ltmp544:
	jmp	LBB114_28
LBB114_28:
	jmp	LBB114_26
LBB114_29:
	.loc	38 0 9 is_stmt 0
	movq	-168(%rbp), %rax
Ltmp578:
	.loc	38 122 17 is_stmt 1
	movw	18(%rax), %ax
	movw	%ax, -228(%rbp)
	movw	%ax, -2(%rbp)
Ltmp545:
	leaq	-152(%rbp), %rdi
	movl	$59, %esi
	.loc	38 123 9
	callq	__ZN5alloc3vec16Vec$LT$T$C$A$GT$4push17h1d729d0f29abe74cE
Ltmp546:
	jmp	LBB114_31
Ltmp579:
LBB114_30:
Ltmp555:
	.loc	38 0 9 is_stmt 0
	leaq	-152(%rbp), %rdi
	xorl	%esi, %esi
	.loc	38 131 5 is_stmt 1
	callq	__ZN5alloc3vec16Vec$LT$T$C$A$GT$4push17h1d729d0f29abe74cE
Ltmp556:
	jmp	LBB114_36
LBB114_31:
Ltmp547:
	.loc	38 0 5 is_stmt 0
	leaq	-152(%rbp), %rdi
	movl	$55, %esi
Ltmp580:
	.loc	38 124 9 is_stmt 1
	callq	__ZN5alloc3vec16Vec$LT$T$C$A$GT$4push17h1d729d0f29abe74cE
Ltmp548:
	jmp	LBB114_32
LBB114_32:
Ltmp549:
	.loc	38 0 9 is_stmt 0
	leaq	-152(%rbp), %rdi
	movl	$1, %esi
	.loc	38 125 9 is_stmt 1
	callq	__ZN5alloc3vec16Vec$LT$T$C$A$GT$4push17h1d729d0f29abe74cE
Ltmp550:
	jmp	LBB114_33
LBB114_33:
Ltmp551:
	.loc	38 0 9 is_stmt 0
	leaq	-152(%rbp), %rdi
	movl	$56, %esi
	.loc	38 126 9 is_stmt 1
	callq	__ZN5alloc3vec16Vec$LT$T$C$A$GT$4push17h1d729d0f29abe74cE
Ltmp552:
	jmp	LBB114_34
LBB114_34:
	.loc	38 0 9 is_stmt 0
	movw	-228(%rbp), %ax
	.loc	38 127 25 is_stmt 1
	movzwl	%ax, %esi
Ltmp553:
	leaq	-152(%rbp), %rdi
	.loc	38 127 9 is_stmt 0
	callq	__ZN5alloc3vec16Vec$LT$T$C$A$GT$4push17h1d729d0f29abe74cE
Ltmp554:
	jmp	LBB114_35
LBB114_35:
	jmp	LBB114_30
Ltmp581:
LBB114_36:
	.loc	38 0 9
	movq	-184(%rbp), %rax
	.loc	38 133 8 is_stmt 1
	movq	-152(%rbp), %rcx
	movq	%rcx, -72(%rbp)
	movq	-144(%rbp), %rcx
	movq	%rcx, -64(%rbp)
	movq	-136(%rbp), %rcx
	movq	%rcx, -56(%rbp)
	.loc	38 133 5 is_stmt 0
	movq	-72(%rbp), %rcx
	movq	%rcx, 8(%rax)
	movq	-64(%rbp), %rcx
	movq	%rcx, 16(%rax)
	movq	-56(%rbp), %rcx
	movq	%rcx, 24(%rax)
	movq	$9, (%rax)
Ltmp582:
	.loc	38 134 2 is_stmt 1
	jmp	LBB114_22
Ltmp583:
Lfunc_end114:
	.cfi_endproc
	.section	__TEXT,__gcc_except_tab
	.p2align	2
GCC_except_table114:
Lexception7:
	.byte	255
	.byte	255
	.byte	1
	.uleb128 Lcst_end7-Lcst_begin7
Lcst_begin7:
	.uleb128 Lfunc_begin114-Lfunc_begin114
	.uleb128 Ltmp528-Lfunc_begin114
	.byte	0
	.byte	0
	.uleb128 Ltmp528-Lfunc_begin114
	.uleb128 Ltmp529-Ltmp528
	.uleb128 Ltmp532-Lfunc_begin114
	.byte	0
	.uleb128 Ltmp529-Lfunc_begin114
	.uleb128 Ltmp533-Ltmp529
	.byte	0
	.byte	0
	.uleb128 Ltmp533-Lfunc_begin114
	.uleb128 Ltmp534-Ltmp533
	.uleb128 Ltmp562-Lfunc_begin114
	.byte	0
	.uleb128 Ltmp530-Lfunc_begin114
	.uleb128 Ltmp531-Ltmp530
	.uleb128 Ltmp532-Lfunc_begin114
	.byte	0
	.uleb128 Ltmp531-Lfunc_begin114
	.uleb128 Ltmp537-Ltmp531
	.byte	0
	.byte	0
	.uleb128 Ltmp537-Lfunc_begin114
	.uleb128 Ltmp536-Ltmp537
	.uleb128 Ltmp559-Lfunc_begin114
	.byte	0
	.uleb128 Ltmp560-Lfunc_begin114
	.uleb128 Ltmp561-Ltmp560
	.uleb128 Ltmp562-Lfunc_begin114
	.byte	0
	.uleb128 Ltmp541-Lfunc_begin114
	.uleb128 Ltmp540-Ltmp541
	.uleb128 Ltmp559-Lfunc_begin114
	.byte	0
	.uleb128 Ltmp540-Lfunc_begin114
	.uleb128 Ltmp557-Ltmp540
	.byte	0
	.byte	0
	.uleb128 Ltmp557-Lfunc_begin114
	.uleb128 Ltmp554-Ltmp557
	.uleb128 Ltmp559-Lfunc_begin114
	.byte	0
Lcst_end7:
	.p2align	2

	.section	__TEXT,__text,regular,pure_instructions
	.globl	__ZN6glutin13platform_impl8platform7Context6resize17h0a62201254dd5f2dE
	.p2align	4, 0x90
__ZN6glutin13platform_impl8platform7Context6resize17h0a62201254dd5f2dE:
Lfunc_begin115:
	.file	39 "/Users/natalie/.cargo/registry/src/github.com-1ecc6299db9ec823/glutin-0.29.1" "src/platform_impl/macos/mod.rs"
	.loc	39 177 0
	.cfi_startproc
	pushq	%rbp
	.cfi_def_cfa_offset 16
	.cfi_offset %rbp, -16
	movq	%rsp, %rbp
	.cfi_def_cfa_register %rbp
	subq	$32, %rsp
	movq	%rdi, -32(%rbp)
	movq	%rdi, -24(%rbp)
	movl	%esi, -16(%rbp)
	movl	%edx, -12(%rbp)
Ltmp584:
	.loc	39 178 15 prologue_end
	xorl	%eax, %eax
	movl	$1, %ecx
	cmpw	$2, 8(%rdi)
	cmoveq	%rcx, %rax
	.loc	39 178 9 is_stmt 0
	cmpq	$0, %rax
	jne	LBB115_2
	.loc	39 0 9
	movq	-32(%rbp), %rdi
	.loc	39 179 38 is_stmt 1
	movq	%rdi, -8(%rbp)
Ltmp585:
	.loc	39 179 57 is_stmt 0
	callq	__ZN82_$LT$glutin..platform_impl..platform..IdRef$u20$as$u20$core..ops..deref..Deref$GT$5deref17h18917af054584d89E
	movq	(%rax), %rdi
	callq	__ZN84_$LT$$BP$mut$u20$objc..runtime..Object$u20$as$u20$cocoa..appkit..NSOpenGLContext$GT$6update17h440c6cc94448e03fE
Ltmp586:
	.loc	39 182 6 is_stmt 1
	addq	$32, %rsp
	popq	%rbp
	retq
LBB115_2:
	.loc	39 180 18
	leaq	l___unnamed_46(%rip), %rdi
	leaq	l___unnamed_47(%rip), %rdx
	movl	$40, %esi
	callq	__ZN4core9panicking5panic17hc1bc45270cf64b03E
Ltmp587:
Lfunc_end115:
	.cfi_endproc

	.p2align	4, 0x90
__ZN6glutin13platform_impl8platform7Context16get_proc_address17h237d0ba42f30c093E:
Lfunc_begin116:
	.loc	39 237 0
	.cfi_startproc
	.cfi_personality 155, _rust_eh_personality
	.cfi_lsda 16, Lexception8
	pushq	%rbp
	.cfi_def_cfa_offset 16
	.cfi_offset %rbp, -16
	movq	%rsp, %rbp
	.cfi_def_cfa_register %rbp
	subq	$144, %rsp
	movq	%rdx, -104(%rbp)
	movq	%rsi, %rax
	movq	-104(%rbp), %rsi
	movq	%rax, -96(%rbp)
	movq	%rdi, %rax
	movq	-96(%rbp), %rdi
	movq	%rax, -56(%rbp)
	movq	%rdi, -48(%rbp)
	movq	%rsi, -40(%rbp)
Ltmp609:
	.loc	39 238 37 prologue_end
	callq	__ZN80_$LT$core_foundation..string..CFString$u20$as$u20$core..str..traits..FromStr$GT$8from_str17hcc7dd7ea9ef2c1feE
	movq	%rax, %rdi
	movq	%rdx, %rsi
	leaq	l___unnamed_48(%rip), %rdx
	callq	__ZN4core6result19Result$LT$T$C$E$GT$6unwrap17h3598357bc0238b8dE
	movq	%rax, -72(%rbp)
Ltmp588:
Ltmp610:
	.loc	39 239 40
	leaq	L___unnamed_49(%rip), %rdi
	movl	$16, %esi
	callq	__ZN80_$LT$core_foundation..string..CFString$u20$as$u20$core..str..traits..FromStr$GT$8from_str17hcc7dd7ea9ef2c1feE
Ltmp589:
	movq	%rdx, -88(%rbp)
	movq	%rax, -80(%rbp)
	jmp	LBB116_3
Ltmp611:
LBB116_1:
Ltmp606:
	.loc	39 0 40 is_stmt 0
	leaq	-72(%rbp), %rdi
	.loc	39 246 5 is_stmt 1
	callq	__ZN4core3ptr54drop_in_place$LT$core_foundation..string..CFString$GT$17hb9a66b56a2e77954E
Ltmp607:
	jmp	LBB116_13
LBB116_2:
Ltmp605:
	.loc	39 0 5 is_stmt 0
	movq	%rax, %rcx
	movl	%edx, %eax
	movq	%rcx, -32(%rbp)
	movl	%eax, -24(%rbp)
	jmp	LBB116_1
LBB116_3:
Ltmp590:
	movq	-88(%rbp), %rsi
	movq	-80(%rbp), %rdi
Ltmp612:
	.loc	39 239 40 is_stmt 1
	leaq	l___unnamed_50(%rip), %rdx
	callq	__ZN4core6result19Result$LT$T$C$E$GT$6unwrap17h3598357bc0238b8dE
Ltmp591:
	movq	%rax, -112(%rbp)
	jmp	LBB116_4
LBB116_4:
	.loc	39 0 40 is_stmt 0
	movq	-112(%rbp), %rax
	.loc	39 239 40
	movq	%rax, -64(%rbp)
Ltmp592:
	leaq	-64(%rbp), %rdi
Ltmp613:
	.loc	39 241 54 is_stmt 1
	callq	__ZN84_$LT$core_foundation..string..CFString$u20$as$u20$core_foundation..base..TCFType$GT$19as_concrete_TypeRef17h900d831e3d27f6ceE
Ltmp593:
	movq	%rax, -120(%rbp)
	jmp	LBB116_7
Ltmp614:
LBB116_5:
Ltmp601:
	.loc	39 0 54 is_stmt 0
	leaq	-64(%rbp), %rdi
	.loc	39 246 5 is_stmt 1
	callq	__ZN4core3ptr54drop_in_place$LT$core_foundation..string..CFString$GT$17hb9a66b56a2e77954E
Ltmp602:
	jmp	LBB116_1
LBB116_6:
Ltmp600:
	.loc	39 0 5 is_stmt 0
	movq	%rax, %rcx
	movl	%edx, %eax
	movq	%rcx, -32(%rbp)
	movl	%eax, -24(%rbp)
	jmp	LBB116_5
LBB116_7:
Ltmp594:
	movq	-120(%rbp), %rdi
Ltmp615:
	.loc	39 241 22 is_stmt 1
	callq	_CFBundleGetBundleWithIdentifier
Ltmp595:
	movq	%rax, -128(%rbp)
	jmp	LBB116_8
LBB116_8:
	.loc	39 0 22 is_stmt 0
	movq	-128(%rbp), %rax
	.loc	39 241 22
	movq	%rax, -16(%rbp)
Ltmp596:
	leaq	-72(%rbp), %rdi
Ltmp616:
	.loc	39 243 58 is_stmt 1
	callq	__ZN84_$LT$core_foundation..string..CFString$u20$as$u20$core_foundation..base..TCFType$GT$19as_concrete_TypeRef17h900d831e3d27f6ceE
Ltmp597:
	movq	%rax, -136(%rbp)
	jmp	LBB116_9
LBB116_9:
Ltmp598:
	.loc	39 0 58 is_stmt 0
	movq	-136(%rbp), %rsi
	movq	-128(%rbp), %rdi
	.loc	39 243 13
	callq	_CFBundleGetFunctionPointerForName
Ltmp599:
	movq	%rax, -144(%rbp)
	jmp	LBB116_10
LBB116_10:
	.loc	39 0 13
	movq	-144(%rbp), %rax
	.loc	39 243 13
	movq	%rax, -8(%rbp)
Ltmp603:
	leaq	-64(%rbp), %rdi
Ltmp617:
	.loc	39 246 5 is_stmt 1
	callq	__ZN4core3ptr54drop_in_place$LT$core_foundation..string..CFString$GT$17hb9a66b56a2e77954E
Ltmp604:
	jmp	LBB116_12
Ltmp618:
LBB116_11:
Ltmp608:
	.loc	39 237 5
	callq	__ZN4core9panicking19panic_cannot_unwind17h1fbca7e1d7f56ae1E
LBB116_12:
	.loc	39 246 5
	leaq	-72(%rbp), %rdi
	callq	__ZN4core3ptr54drop_in_place$LT$core_foundation..string..CFString$GT$17hb9a66b56a2e77954E
	movq	-144(%rbp), %rax
	.loc	39 246 6 is_stmt 0
	addq	$144, %rsp
	popq	%rbp
	retq
LBB116_13:
	.loc	39 237 5 is_stmt 1
	movq	-32(%rbp), %rdi
	callq	__Unwind_Resume
Ltmp619:
Lfunc_end116:
	.cfi_endproc
	.section	__TEXT,__gcc_except_tab
	.p2align	2
GCC_except_table116:
Lexception8:
	.byte	255
	.byte	255
	.byte	1
	.uleb128 Lcst_end8-Lcst_begin8
Lcst_begin8:
	.uleb128 Lfunc_begin116-Lfunc_begin116
	.uleb128 Ltmp588-Lfunc_begin116
	.byte	0
	.byte	0
	.uleb128 Ltmp588-Lfunc_begin116
	.uleb128 Ltmp589-Ltmp588
	.uleb128 Ltmp605-Lfunc_begin116
	.byte	0
	.uleb128 Ltmp606-Lfunc_begin116
	.uleb128 Ltmp607-Ltmp606
	.uleb128 Ltmp608-Lfunc_begin116
	.byte	0
	.uleb128 Ltmp590-Lfunc_begin116
	.uleb128 Ltmp591-Ltmp590
	.uleb128 Ltmp605-Lfunc_begin116
	.byte	0
	.uleb128 Ltmp592-Lfunc_begin116
	.uleb128 Ltmp593-Ltmp592
	.uleb128 Ltmp600-Lfunc_begin116
	.byte	0
	.uleb128 Ltmp601-Lfunc_begin116
	.uleb128 Ltmp602-Ltmp601
	.uleb128 Ltmp608-Lfunc_begin116
	.byte	0
	.uleb128 Ltmp594-Lfunc_begin116
	.uleb128 Ltmp599-Ltmp594
	.uleb128 Ltmp600-Lfunc_begin116
	.byte	0
	.uleb128 Ltmp603-Lfunc_begin116
	.uleb128 Ltmp604-Ltmp603
	.uleb128 Ltmp605-Lfunc_begin116
	.byte	0
	.uleb128 Ltmp604-Lfunc_begin116
	.uleb128 Lfunc_end116-Ltmp604
	.byte	0
	.byte	0
Lcst_end8:
	.p2align	2

	.section	__TEXT,__text,regular,pure_instructions
	.globl	__ZN6glutin13platform_impl8platform5IdRef3new17h8773f4da010c3a15E
	.p2align	4, 0x90
__ZN6glutin13platform_impl8platform5IdRef3new17h8773f4da010c3a15E:
Lfunc_begin117:
	.loc	39 312 0
	.cfi_startproc
	pushq	%rbp
	.cfi_def_cfa_offset 16
	.cfi_offset %rbp, -16
	movq	%rsp, %rbp
	.cfi_def_cfa_register %rbp
	subq	$16, %rsp
	movq	%rdi, -8(%rbp)
Ltmp620:
	.loc	39 313 9 prologue_end
	movq	%rdi, -16(%rbp)
	.loc	39 314 6
	movq	-16(%rbp), %rax
	addq	$16, %rsp
	popq	%rbp
	retq
Ltmp621:
Lfunc_end117:
	.cfi_endproc

	.globl	__ZN6glutin13platform_impl8platform5IdRef7non_nil17h45c46e948da8a064E
	.p2align	4, 0x90
__ZN6glutin13platform_impl8platform5IdRef7non_nil17h45c46e948da8a064E:
Lfunc_begin118:
	.loc	39 324 0
	.cfi_startproc
	pushq	%rbp
	.cfi_def_cfa_offset 16
	.cfi_offset %rbp, -16
	movq	%rsp, %rbp
	.cfi_def_cfa_register %rbp
	subq	$32, %rsp
	movq	%rdi, -32(%rbp)
Ltmp622:
	.loc	39 325 12 prologue_end
	movb	$0, -1(%rbp)
	movb	$1, -1(%rbp)
	cmpq	$0, -32(%rbp)
	je	LBB118_2
	.loc	39 328 18
	movb	$0, -1(%rbp)
	movq	-32(%rbp), %rax
	.loc	39 328 13 is_stmt 0
	movq	%rax, -16(%rbp)
	movq	$1, -24(%rbp)
	.loc	39 325 9 is_stmt 1
	jmp	LBB118_3
LBB118_2:
	.loc	39 326 13
	movq	$0, -24(%rbp)
LBB118_3:
	.loc	39 330 5
	testb	$1, -1(%rbp)
	jne	LBB118_5
LBB118_4:
	.loc	39 330 6 is_stmt 0
	movq	-24(%rbp), %rax
	movq	-16(%rbp), %rdx
	addq	$32, %rsp
	popq	%rbp
	retq
LBB118_5:
	.loc	39 330 5
	leaq	-32(%rbp), %rdi
	callq	__ZN4core3ptr59drop_in_place$LT$glutin..platform_impl..platform..IdRef$GT$17hf9ad8e9d9318b638E
	jmp	LBB118_4
Ltmp623:
Lfunc_end118:
	.cfi_endproc

	.globl	__ZN80_$LT$glutin..platform_impl..platform..IdRef$u20$as$u20$core..ops..drop..Drop$GT$4drop17hf98bebc400998e42E
	.p2align	4, 0x90
__ZN80_$LT$glutin..platform_impl..platform..IdRef$u20$as$u20$core..ops..drop..Drop$GT$4drop17hf98bebc400998e42E:
Lfunc_begin119:
	.loc	39 334 0 is_stmt 1
	.cfi_startproc
	.cfi_personality 155, _rust_eh_personality
	.cfi_lsda 16, Lexception9
	pushq	%rbp
	.cfi_def_cfa_offset 16
	.cfi_offset %rbp, -16
	movq	%rsp, %rbp
	.cfi_def_cfa_register %rbp
	subq	$256, %rsp
	movq	%rdi, -240(%rbp)
	movq	%rdi, -168(%rbp)
Ltmp630:
	.loc	39 335 12 prologue_end
	cmpq	$0, (%rdi)
	jne	LBB119_2
LBB119_1:
	.loc	39 338 6
	addq	$256, %rsp
	popq	%rbp
	retq
LBB119_2:
	.loc	39 0 6 is_stmt 0
	leaq	L___unnamed_51(%rip), %rax
	movq	%rax, -56(%rbp)
	movq	$8, -48(%rbp)
Ltmp631:
	.loc	2 54 36 is_stmt 1
	movb	$0, -73(%rbp)
	.loc	2 54 27 is_stmt 0
	leaq	__ZN80_$LT$glutin..platform_impl..platform..IdRef$u20$as$u20$core..ops..drop..Drop$GT$4drop12register_sel3SEL17hfbb70e4127427179E(%rip), %rdi
	movzbl	-73(%rbp), %esi
	callq	__ZN4core4sync6atomic11AtomicUsize4load17h20f52bddcca826ebE
	movq	%rax, %rdi
	movq	%rdi, -248(%rbp)
	movq	%rdi, -40(%rbp)
Ltmp632:
	.loc	2 57 20 is_stmt 1
	callq	__ZN4core3ptr9const_ptr33_$LT$impl$u20$$BP$const$u20$T$GT$7is_null17ha546985450a90861E
	testb	$1, %al
	jne	LBB119_4
	.loc	2 0 20 is_stmt 0
	movq	-248(%rbp), %rdi
	.loc	2 62 21 is_stmt 1
	callq	__ZN4objc7runtime3Sel8from_ptr17hfb8c0a7f509dd237E
	movq	%rax, -24(%rbp)
	movq	-24(%rbp), %rax
	movq	%rax, -88(%rbp)
	jmp	LBB119_5
LBB119_4:
	.loc	2 0 21 is_stmt 0
	leaq	L___unnamed_51(%rip), %rax
	movq	%rax, -16(%rbp)
	movq	$8, -8(%rbp)
	.loc	2 58 31 is_stmt 1
	leaq	L___unnamed_51(%rip), %rdi
	callq	_sel_registerName
	movq	%rax, -32(%rbp)
	movq	-32(%rbp), %rax
	movq	%rax, -72(%rbp)
Ltmp633:
	.loc	2 59 31
	leaq	-72(%rbp), %rdi
	callq	__ZN4objc7runtime3Sel6as_ptr17hf85ada28bd2e10feE
	movq	%rax, %rsi
	.loc	2 59 54 is_stmt 0
	movb	$0, -57(%rbp)
	.loc	2 59 21
	leaq	__ZN80_$LT$glutin..platform_impl..platform..IdRef$u20$as$u20$core..ops..drop..Drop$GT$4drop12register_sel3SEL17hfbb70e4127427179E(%rip), %rdi
	movzbl	-57(%rbp), %edx
	callq	__ZN4core4sync6atomic11AtomicUsize5store17ha801bb3b8dcd109bE
	.loc	2 60 21 is_stmt 1
	movq	-72(%rbp), %rax
	movq	%rax, -88(%rbp)
Ltmp634:
LBB119_5:
	.loc	2 0 21 is_stmt 0
	movq	-240(%rbp), %rax
	.loc	2 65 10 is_stmt 1
	movq	-88(%rbp), %rcx
Ltmp635:
	.loc	39 336 34
	movq	%rcx, -144(%rbp)
	movq	-144(%rbp), %rcx
	movq	%rcx, -232(%rbp)
Ltmp636:
	.loc	39 336 34 is_stmt 0
	movq	(%rax), %rsi
	movq	-232(%rbp), %rax
	movq	%rax, -200(%rbp)
	movq	-200(%rbp), %rax
	movq	%rax, -112(%rbp)
	movq	-112(%rbp), %rax
	movq	%rax, -120(%rbp)
	movq	%rsi, -96(%rbp)
Ltmp637:
	.file	40 "/Users/natalie/.cargo/registry/src/github.com-1ecc6299db9ec823/objc-0.2.7/src/message" "mod.rs"
	.loc	40 178 26 is_stmt 1
	movq	-120(%rbp), %rax
	movq	%rax, -104(%rbp)
	.loc	40 178 5 is_stmt 0
	movq	-104(%rbp), %rdx
	leaq	-224(%rbp), %rdi
	callq	__ZN4objc7message8platform15send_unverified17h24717b60de4ca6fbE
Ltmp638:
	.loc	39 336 34 is_stmt 1
	movq	-216(%rbp), %rdx
	movl	$1, %eax
	xorl	%ecx, %ecx
	cmpq	$0, %rdx
	cmoveq	%rcx, %rax
	cmpq	$0, %rax
	je	LBB119_1
	movq	-208(%rbp), %rax
	movq	%rax, -176(%rbp)
	movq	-224(%rbp), %rax
	movq	-216(%rbp), %rcx
	movq	%rcx, -184(%rbp)
	movq	%rax, -192(%rbp)
Ltmp624:
Ltmp639:
	.loc	39 336 34 is_stmt 0
	leaq	l___unnamed_52(%rip), %rsi
	leaq	-192(%rbp), %rdi
	callq	__ZN4core9panicking13panic_display17h81363d7cbc62b9a7E
Ltmp625:
	jmp	LBB119_9
Ltmp640:
LBB119_7:
Ltmp627:
	.loc	39 0 34
	leaq	-192(%rbp), %rdi
	.loc	39 336 34
	callq	__ZN4core3ptr48drop_in_place$LT$objc..message..MessageError$GT$17h117e28b25620062aE
Ltmp628:
	jmp	LBB119_11
Ltmp641:
LBB119_8:
Ltmp626:
	.loc	39 0 34
	movq	%rax, %rcx
	movl	%edx, %eax
	movq	%rcx, -136(%rbp)
	movl	%eax, -128(%rbp)
	jmp	LBB119_7
LBB119_9:
	ud2
LBB119_10:
Ltmp629:
	.loc	39 334 5 is_stmt 1
	callq	__ZN4core9panicking19panic_cannot_unwind17h1fbca7e1d7f56ae1E
LBB119_11:
	movq	-136(%rbp), %rdi
	callq	__Unwind_Resume
Ltmp642:
Lfunc_end119:
	.cfi_endproc
	.section	__TEXT,__gcc_except_tab
	.p2align	2
GCC_except_table119:
Lexception9:
	.byte	255
	.byte	255
	.byte	1
	.uleb128 Lcst_end9-Lcst_begin9
Lcst_begin9:
	.uleb128 Lfunc_begin119-Lfunc_begin119
	.uleb128 Ltmp624-Lfunc_begin119
	.byte	0
	.byte	0
	.uleb128 Ltmp624-Lfunc_begin119
	.uleb128 Ltmp625-Ltmp624
	.uleb128 Ltmp626-Lfunc_begin119
	.byte	0
	.uleb128 Ltmp627-Lfunc_begin119
	.uleb128 Ltmp628-Ltmp627
	.uleb128 Ltmp629-Lfunc_begin119
	.byte	0
	.uleb128 Ltmp628-Lfunc_begin119
	.uleb128 Lfunc_end119-Ltmp628
	.byte	0
	.byte	0
Lcst_end9:
	.p2align	2

	.section	__TEXT,__text,regular,pure_instructions
	.globl	__ZN82_$LT$glutin..platform_impl..platform..IdRef$u20$as$u20$core..ops..deref..Deref$GT$5deref17h18917af054584d89E
	.p2align	4, 0x90
__ZN82_$LT$glutin..platform_impl..platform..IdRef$u20$as$u20$core..ops..deref..Deref$GT$5deref17h18917af054584d89E:
Lfunc_begin120:
	.loc	39 343 0
	.cfi_startproc
	pushq	%rbp
	.cfi_def_cfa_offset 16
	.cfi_offset %rbp, -16
	movq	%rsp, %rbp
	.cfi_def_cfa_register %rbp
	pushq	%rax
	movq	%rdi, %rax
	movq	%rax, -8(%rbp)
Ltmp643:
	.loc	39 345 6 prologue_end
	addq	$8, %rsp
	popq	%rbp
	retq
Ltmp644:
Lfunc_end120:
	.cfi_endproc

	.globl	__ZN77_$LT$glutin..platform_impl..platform..IdRef$u20$as$u20$core..clone..Clone$GT$5clone17hc51a7def0fbca5dbE
	.p2align	4, 0x90
__ZN77_$LT$glutin..platform_impl..platform..IdRef$u20$as$u20$core..clone..Clone$GT$5clone17hc51a7def0fbca5dbE:
Lfunc_begin121:
	.loc	39 349 0
	.cfi_startproc
	.cfi_personality 155, _rust_eh_personality
	.cfi_lsda 16, Lexception10
	pushq	%rbp
	.cfi_def_cfa_offset 16
	.cfi_offset %rbp, -16
	movq	%rsp, %rbp
	.cfi_def_cfa_register %rbp
	subq	$256, %rsp
	movq	%rdi, -248(%rbp)
	movq	%rdi, -168(%rbp)
Ltmp651:
	.loc	39 350 12 prologue_end
	cmpq	$0, (%rdi)
	jne	LBB121_2
LBB121_1:
	.loc	39 0 12 is_stmt 0
	movq	-248(%rbp), %rax
	.loc	39 353 15 is_stmt 1
	movq	(%rax), %rax
	.loc	39 353 9 is_stmt 0
	movq	%rax, -240(%rbp)
	.loc	39 354 6 is_stmt 1
	movq	-240(%rbp), %rax
	addq	$256, %rsp
	popq	%rbp
	retq
LBB121_2:
	.loc	39 0 6 is_stmt 0
	leaq	l___unnamed_53(%rip), %rax
	movq	%rax, -56(%rbp)
	movq	$7, -48(%rbp)
Ltmp652:
	.loc	2 54 36 is_stmt 1
	movb	$0, -73(%rbp)
	.loc	2 54 27 is_stmt 0
	leaq	__ZN77_$LT$glutin..platform_impl..platform..IdRef$u20$as$u20$core..clone..Clone$GT$5clone12register_sel3SEL17h331f1bdd9095ffb4E(%rip), %rdi
	movzbl	-73(%rbp), %esi
	callq	__ZN4core4sync6atomic11AtomicUsize4load17h20f52bddcca826ebE
	movq	%rax, %rdi
	movq	%rdi, -256(%rbp)
	movq	%rdi, -40(%rbp)
Ltmp653:
	.loc	2 57 20 is_stmt 1
	callq	__ZN4core3ptr9const_ptr33_$LT$impl$u20$$BP$const$u20$T$GT$7is_null17ha546985450a90861E
	testb	$1, %al
	jne	LBB121_4
	.loc	2 0 20 is_stmt 0
	movq	-256(%rbp), %rdi
	.loc	2 62 21 is_stmt 1
	callq	__ZN4objc7runtime3Sel8from_ptr17hfb8c0a7f509dd237E
	movq	%rax, -24(%rbp)
	movq	-24(%rbp), %rax
	movq	%rax, -88(%rbp)
	jmp	LBB121_5
LBB121_4:
	.loc	2 0 21 is_stmt 0
	leaq	l___unnamed_53(%rip), %rax
	movq	%rax, -16(%rbp)
	movq	$7, -8(%rbp)
	.loc	2 58 31 is_stmt 1
	leaq	l___unnamed_53(%rip), %rdi
	callq	_sel_registerName
	movq	%rax, -32(%rbp)
	movq	-32(%rbp), %rax
	movq	%rax, -72(%rbp)
Ltmp654:
	.loc	2 59 31
	leaq	-72(%rbp), %rdi
	callq	__ZN4objc7runtime3Sel6as_ptr17hf85ada28bd2e10feE
	movq	%rax, %rsi
	.loc	2 59 54 is_stmt 0
	movb	$0, -57(%rbp)
	.loc	2 59 21
	leaq	__ZN77_$LT$glutin..platform_impl..platform..IdRef$u20$as$u20$core..clone..Clone$GT$5clone12register_sel3SEL17h331f1bdd9095ffb4E(%rip), %rdi
	movzbl	-57(%rbp), %edx
	callq	__ZN4core4sync6atomic11AtomicUsize5store17ha801bb3b8dcd109bE
	.loc	2 60 21 is_stmt 1
	movq	-72(%rbp), %rax
	movq	%rax, -88(%rbp)
Ltmp655:
LBB121_5:
	.loc	2 0 21 is_stmt 0
	movq	-248(%rbp), %rax
	.loc	2 65 10 is_stmt 1
	movq	-88(%rbp), %rcx
Ltmp656:
	.loc	39 351 34
	movq	%rcx, -160(%rbp)
	movq	-160(%rbp), %rcx
	movq	%rcx, -232(%rbp)
Ltmp657:
	.loc	39 351 34 is_stmt 0
	movq	(%rax), %rsi
	movq	-232(%rbp), %rax
	movq	%rax, -200(%rbp)
	movq	-200(%rbp), %rax
	movq	%rax, -112(%rbp)
	movq	-112(%rbp), %rax
	movq	%rax, -120(%rbp)
	movq	%rsi, -96(%rbp)
Ltmp658:
	.loc	40 178 26 is_stmt 1
	movq	-120(%rbp), %rax
	movq	%rax, -104(%rbp)
	.loc	40 178 5 is_stmt 0
	movq	-104(%rbp), %rdx
	leaq	-224(%rbp), %rdi
	callq	__ZN4objc7message8platform15send_unverified17h73939bf1a24da4f1E
Ltmp659:
	.loc	39 351 34 is_stmt 1
	movq	-216(%rbp), %rdx
	movl	$1, %eax
	xorl	%ecx, %ecx
	cmpq	$0, %rdx
	cmoveq	%rcx, %rax
	cmpq	$0, %rax
	jne	LBB121_7
	movq	-224(%rbp), %rax
	movq	%rax, -136(%rbp)
Ltmp660:
	.loc	39 351 34 is_stmt 0
	movq	%rax, -128(%rbp)
Ltmp661:
	.loc	39 350 9 is_stmt 1
	jmp	LBB121_1
LBB121_7:
Ltmp662:
	.loc	39 351 34
	movq	-208(%rbp), %rax
	movq	%rax, -176(%rbp)
	movq	-224(%rbp), %rax
	movq	-216(%rbp), %rcx
	movq	%rcx, -184(%rbp)
	movq	%rax, -192(%rbp)
Ltmp645:
Ltmp663:
	.loc	39 351 34 is_stmt 0
	leaq	l___unnamed_54(%rip), %rsi
	leaq	-192(%rbp), %rdi
	callq	__ZN4core9panicking13panic_display17h81363d7cbc62b9a7E
Ltmp646:
	jmp	LBB121_10
Ltmp664:
LBB121_8:
Ltmp648:
	.loc	39 0 34
	leaq	-192(%rbp), %rdi
	.loc	39 351 34
	callq	__ZN4core3ptr48drop_in_place$LT$objc..message..MessageError$GT$17h117e28b25620062aE
Ltmp649:
	jmp	LBB121_12
Ltmp665:
LBB121_9:
Ltmp647:
	.loc	39 0 34
	movq	%rax, %rcx
	movl	%edx, %eax
	movq	%rcx, -152(%rbp)
	movl	%eax, -144(%rbp)
	jmp	LBB121_8
LBB121_10:
	ud2
LBB121_11:
Ltmp650:
	.loc	39 349 5 is_stmt 1
	callq	__ZN4core9panicking19panic_cannot_unwind17h1fbca7e1d7f56ae1E
LBB121_12:
	movq	-152(%rbp), %rdi
	callq	__Unwind_Resume
Ltmp666:
Lfunc_end121:
	.cfi_endproc
	.section	__TEXT,__gcc_except_tab
	.p2align	2
GCC_except_table121:
Lexception10:
	.byte	255
	.byte	255
	.byte	1
	.uleb128 Lcst_end10-Lcst_begin10
Lcst_begin10:
	.uleb128 Lfunc_begin121-Lfunc_begin121
	.uleb128 Ltmp645-Lfunc_begin121
	.byte	0
	.byte	0
	.uleb128 Ltmp645-Lfunc_begin121
	.uleb128 Ltmp646-Ltmp645
	.uleb128 Ltmp647-Lfunc_begin121
	.byte	0
	.uleb128 Ltmp648-Lfunc_begin121
	.uleb128 Ltmp649-Ltmp648
	.uleb128 Ltmp650-Lfunc_begin121
	.byte	0
	.uleb128 Ltmp649-Lfunc_begin121
	.uleb128 Lfunc_end121-Ltmp649
	.byte	0
	.byte	0
Lcst_end10:
	.p2align	2

	.section	__TEXT,__text,regular,pure_instructions
	.globl	__ZN100_$LT$glutin..ContextBuilder$LT$glutin..context..NotCurrent$GT$$u20$as$u20$core..default..Default$GT$7default17h3836f6bb136b5cd3E
	.p2align	4, 0x90
__ZN100_$LT$glutin..ContextBuilder$LT$glutin..context..NotCurrent$GT$$u20$as$u20$core..default..Default$GT$7default17h3836f6bb136b5cd3E:
Lfunc_begin122:
	.loc	1 102 0
	.cfi_startproc
	pushq	%rbp
	.cfi_def_cfa_offset 16
	.cfi_offset %rbp, -16
	movq	%rsp, %rbp
	.cfi_def_cfa_register %rbp
	subq	$80, %rsp
	movq	%rdi, -80(%rbp)
	movq	%rdi, -72(%rbp)
Ltmp667:
	.loc	1 103 25 prologue_end
	leaq	-64(%rbp), %rdi
	callq	__ZN72_$LT$glutin..GlAttributes$LT$S$GT$$u20$as$u20$core..default..Default$GT$7default17h02ccb5a5948288e6E
	.loc	1 103 54 is_stmt 0
	leaq	-40(%rbp), %rdi
	callq	__ZN74_$LT$glutin..PixelFormatRequirements$u20$as$u20$core..default..Default$GT$7default17h57059339a3aec268E
	movq	-80(%rbp), %rdi
	.loc	1 103 9
	movq	-64(%rbp), %rax
	movq	%rax, (%rdi)
	movq	-56(%rbp), %rax
	movq	%rax, 8(%rdi)
	movq	-48(%rbp), %rax
	movq	%rax, 16(%rdi)
	addq	$24, %rdi
	leaq	-40(%rbp), %rsi
	movl	$40, %edx
	callq	_memcpy
	movq	-72(%rbp), %rax
	.loc	1 104 6 is_stmt 1
	addq	$80, %rsp
	popq	%rbp
	retq
Ltmp668:
Lfunc_end122:
	.cfi_endproc

	.globl	__ZN6glutin49ContextBuilder$LT$glutin..context..NotCurrent$GT$3new17h922e14b390025013E
	.p2align	4, 0x90
__ZN6glutin49ContextBuilder$LT$glutin..context..NotCurrent$GT$3new17h922e14b390025013E:
Lfunc_begin123:
	.loc	1 109 0
	.cfi_startproc
	pushq	%rbp
	.cfi_def_cfa_offset 16
	.cfi_offset %rbp, -16
	movq	%rsp, %rbp
	.cfi_def_cfa_register %rbp
	subq	$16, %rsp
	movq	%rdi, %rax
	movq	%rax, -8(%rbp)
Ltmp669:
	.loc	1 110 9 prologue_end
	callq	__ZN100_$LT$glutin..ContextBuilder$LT$glutin..context..NotCurrent$GT$$u20$as$u20$core..default..Default$GT$7default17h3836f6bb136b5cd3E
	movq	-8(%rbp), %rax
	.loc	1 111 6
	addq	$16, %rsp
	popq	%rbp
	retq
Ltmp670:
Lfunc_end123:
	.cfi_endproc

	.globl	__ZN60_$LT$glutin..CreationError$u20$as$u20$core..fmt..Display$GT$3fmt17h1f88358b56814839E
	.p2align	4, 0x90
__ZN60_$LT$glutin..CreationError$u20$as$u20$core..fmt..Display$GT$3fmt17h1f88358b56814839E:
Lfunc_begin124:
	.loc	1 294 0
	.cfi_startproc
	pushq	%rbp
	.cfi_def_cfa_offset 16
	.cfi_offset %rbp, -16
	movq	%rsp, %rbp
	.cfi_def_cfa_register %rbp
	subq	$432, %rsp
	movq	%rdi, -416(%rbp)
	movq	%rsi, -408(%rbp)
	movq	%rdi, -56(%rbp)
	movq	%rsi, -48(%rbp)
Ltmp671:
	.loc	1 295 27 prologue_end
	movq	(%rdi), %rax
	movq	%rax, -400(%rbp)
	.loc	1 0 27 is_stmt 0
	movq	-400(%rbp), %rax
	leaq	LJTI124_0(%rip), %rcx
	movslq	(%rcx,%rax,4), %rax
	addq	%rcx, %rax
	jmpq	*%rax
	.loc	1 295 27
	ud2
LBB124_2:
	.loc	1 0 27
	movq	-416(%rbp), %rax
	.loc	1 296 36 is_stmt 1
	addq	$8, %rax
	movq	%rax, -368(%rbp)
	.loc	1 295 21
	jmp	LBB124_18
LBB124_3:
	.loc	1 0 21 is_stmt 0
	movq	-416(%rbp), %rax
	.loc	1 297 43 is_stmt 1
	addq	$8, %rax
	movq	%rax, -368(%rbp)
	.loc	1 295 21
	jmp	LBB124_18
LBB124_4:
	.loc	1 0 21 is_stmt 0
	movq	-416(%rbp), %rax
	.loc	1 299 47 is_stmt 1
	addq	$8, %rax
	movq	%rax, -360(%rbp)
Ltmp672:
	.loc	1 300 24
	leaq	-360(%rbp), %rdi
	callq	__ZN4core3fmt10ArgumentV111new_display17h11c02a4f29a69f96E
	movq	%rax, -304(%rbp)
	movq	%rdx, -296(%rbp)
	leaq	-352(%rbp), %rdi
	leaq	l___unnamed_55(%rip), %rsi
	movl	$1, %r8d
	leaq	-304(%rbp), %rcx
	movq	%r8, %rdx
	callq	__ZN4core3fmt9Arguments6new_v117h6e7458c47a18cc83E
	movq	-408(%rbp), %rdi
	leaq	-352(%rbp), %rsi
	callq	__ZN4core3fmt9Formatter9write_fmt17h9bb7721c944aee26E
	andb	$1, %al
	movb	%al, -385(%rbp)
	jmp	LBB124_13
Ltmp673:
LBB124_5:
	.loc	1 303 17
	leaq	l___unnamed_56(%rip), %rax
	movq	%rax, -384(%rbp)
	movq	$50, -376(%rbp)
	.loc	1 304 13
	jmp	LBB124_19
LBB124_6:
	.loc	1 306 17
	leaq	l___unnamed_57(%rip), %rax
	movq	%rax, -384(%rbp)
	movq	$46, -376(%rbp)
	.loc	1 307 13
	jmp	LBB124_19
LBB124_7:
	.loc	1 309 17
	leaq	l___unnamed_58(%rip), %rax
	movq	%rax, -384(%rbp)
	movq	$57, -376(%rbp)
	.loc	1 310 13
	jmp	LBB124_19
LBB124_8:
	.loc	1 0 13 is_stmt 0
	movq	-416(%rbp), %rax
	.loc	1 298 47 is_stmt 1
	addq	$8, %rax
	movq	%rax, -368(%rbp)
	.loc	1 295 21
	jmp	LBB124_18
LBB124_9:
	.loc	1 0 21 is_stmt 0
	movq	-416(%rbp), %rax
	.loc	1 311 35 is_stmt 1
	addq	$8, %rax
	movq	%rax, -288(%rbp)
Ltmp674:
	.loc	1 312 24
	leaq	-288(%rbp), %rdi
	callq	__ZN4core3fmt10ArgumentV111new_display17h2f954cb215a650b6E
	movq	%rax, -232(%rbp)
	movq	%rdx, -224(%rbp)
	leaq	-280(%rbp), %rdi
	leaq	l___unnamed_59(%rip), %rsi
	movl	$1, %r8d
	leaq	-232(%rbp), %rcx
	movq	%r8, %rdx
	callq	__ZN4core3fmt9Arguments6new_v117h6e7458c47a18cc83E
	movq	-408(%rbp), %rdi
	leaq	-280(%rbp), %rsi
	callq	__ZN4core3fmt9Formatter9write_fmt17h9bb7721c944aee26E
	andb	$1, %al
	movb	%al, -385(%rbp)
	jmp	LBB124_13
Ltmp675:
LBB124_10:
	.loc	1 0 24 is_stmt 0
	movq	-416(%rbp), %rax
	.loc	1 314 43 is_stmt 1
	addq	$8, %rax
	movq	%rax, -424(%rbp)
	movq	%rax, -8(%rbp)
Ltmp676:
	.loc	1 315 17
	leaq	-208(%rbp), %rdi
	leaq	l___unnamed_60(%rip), %rsi
	movl	$1, %edx
	leaq	l___unnamed_30(%rip), %rcx
	xorl	%eax, %eax
	movl	%eax, %r8d
	callq	__ZN4core3fmt9Arguments6new_v117h6e7458c47a18cc83E
	movq	-408(%rbp), %rdi
	leaq	-208(%rbp), %rsi
	callq	__ZN4core3fmt9Formatter9write_fmt17h9bb7721c944aee26E
	movzbl	%al, %edi
	andl	$1, %edi
	callq	__ZN79_$LT$core..result..Result$LT$T$C$E$GT$$u20$as$u20$core..ops..try_trait..Try$GT$6branch17h0250aec32b22ac4eE
	andb	$1, %al
	movb	%al, -209(%rbp)
	movb	-209(%rbp), %al
	andb	$1, %al
	movzbl	%al, %eax
	cmpq	$0, %rax
	jne	LBB124_12
	.loc	1 0 17 is_stmt 0
	movq	-424(%rbp), %rdi
	.loc	1 316 26 is_stmt 1
	callq	__ZN94_$LT$$RF$alloc..vec..Vec$LT$T$C$A$GT$$u20$as$u20$core..iter..traits..collect..IntoIterator$GT$9into_iter17hd17902e2e3d0c7e7E
	movq	%rax, -160(%rbp)
	movq	%rdx, -152(%rbp)
Ltmp677:
	.loc	1 316 17 is_stmt 0
	jmp	LBB124_14
Ltmp678:
LBB124_12:
	.loc	1 315 17 is_stmt 1
	leaq	l___unnamed_61(%rip), %rdi
	callq	__ZN153_$LT$core..result..Result$LT$T$C$F$GT$$u20$as$u20$core..ops..try_trait..FromResidual$LT$core..result..Result$LT$core..convert..Infallible$C$E$GT$$GT$$GT$13from_residual17h543b58e47ec540acE
	andb	$1, %al
	movb	%al, -385(%rbp)
Ltmp679:
LBB124_13:
	.loc	1 322 6
	movb	-385(%rbp), %al
	andb	$1, %al
	movzbl	%al, %eax
	addq	$432, %rsp
	popq	%rbp
	retq
LBB124_14:
Ltmp680:
	.loc	1 316 26
	leaq	-160(%rbp), %rdi
	callq	__ZN91_$LT$core..slice..iter..Iter$LT$T$GT$$u20$as$u20$core..iter..traits..iterator..Iterator$GT$4next17ha748b2045d60c444E
	movq	%rax, -144(%rbp)
	movq	-144(%rbp), %rdx
	movl	$1, %eax
	xorl	%ecx, %ecx
	cmpq	$0, %rdx
	cmoveq	%rcx, %rax
	cmpq	$0, %rax
	jne	LBB124_16
Ltmp681:
	.loc	1 319 24
	movb	$0, -385(%rbp)
	.loc	1 319 17 is_stmt 0
	jmp	LBB124_13
LBB124_16:
Ltmp682:
	.loc	1 316 21 is_stmt 1
	movq	-144(%rbp), %rax
	movq	%rax, -136(%rbp)
Ltmp683:
	.loc	1 317 21
	leaq	-136(%rbp), %rdi
	callq	__ZN4core3fmt10ArgumentV111new_display17h3c72cc00c9128a7cE
	movq	%rax, -72(%rbp)
	movq	%rdx, -64(%rbp)
	leaq	-120(%rbp), %rdi
	leaq	l___unnamed_62(%rip), %rsi
	movl	$2, %edx
	leaq	-72(%rbp), %rcx
	movl	$1, %r8d
	callq	__ZN4core3fmt9Arguments6new_v117h6e7458c47a18cc83E
	movq	-408(%rbp), %rdi
	leaq	-120(%rbp), %rsi
	callq	__ZN4core3fmt9Formatter9write_fmt17h9bb7721c944aee26E
	movzbl	%al, %edi
	andl	$1, %edi
	callq	__ZN79_$LT$core..result..Result$LT$T$C$E$GT$$u20$as$u20$core..ops..try_trait..Try$GT$6branch17h0250aec32b22ac4eE
	andb	$1, %al
	movb	%al, -121(%rbp)
	movb	-121(%rbp), %al
	andb	$1, %al
	movzbl	%al, %eax
	cmpq	$0, %rax
	je	LBB124_14
Ltmp684:
	.loc	1 317 21 is_stmt 0
	leaq	l___unnamed_63(%rip), %rdi
	callq	__ZN153_$LT$core..result..Result$LT$T$C$F$GT$$u20$as$u20$core..ops..try_trait..FromResidual$LT$core..result..Result$LT$core..convert..Infallible$C$E$GT$$GT$$GT$13from_residual17h543b58e47ec540acE
	andb	$1, %al
	movb	%al, -385(%rbp)
	jmp	LBB124_13
Ltmp685:
LBB124_18:
	.loc	1 298 56 is_stmt 1
	movq	-368(%rbp), %rdi
	callq	__ZN65_$LT$alloc..string..String$u20$as$u20$core..ops..deref..Deref$GT$5deref17hc948b079143b9b8aE
	movq	%rax, -384(%rbp)
	movq	%rdx, -376(%rbp)
Ltmp686:
LBB124_19:
	.loc	1 0 56 is_stmt 0
	movq	-408(%rbp), %rdi
	.loc	1 295 9 is_stmt 1
	movq	-384(%rbp), %rsi
	movq	-376(%rbp), %rdx
	callq	__ZN4core3fmt9Formatter9write_str17hb029d9999327a35fE
	andb	$1, %al
	movb	%al, -385(%rbp)
	jmp	LBB124_13
Ltmp687:
Lfunc_end124:
	.cfi_endproc
	.p2align	2, 0x90
	.data_region jt32
.set L124_0_set_2, LBB124_2-LJTI124_0
.set L124_0_set_3, LBB124_3-LJTI124_0
.set L124_0_set_4, LBB124_4-LJTI124_0
.set L124_0_set_5, LBB124_5-LJTI124_0
.set L124_0_set_6, LBB124_6-LJTI124_0
.set L124_0_set_7, LBB124_7-LJTI124_0
.set L124_0_set_8, LBB124_8-LJTI124_0
.set L124_0_set_9, LBB124_9-LJTI124_0
.set L124_0_set_10, LBB124_10-LJTI124_0
LJTI124_0:
	.long	L124_0_set_2
	.long	L124_0_set_3
	.long	L124_0_set_4
	.long	L124_0_set_5
	.long	L124_0_set_6
	.long	L124_0_set_7
	.long	L124_0_set_8
	.long	L124_0_set_9
	.long	L124_0_set_10
	.end_data_region

	.globl	__ZN60_$LT$glutin..CreationError$u20$as$u20$core..error..Error$GT$6source17hda5d98b595c92eabE
	.p2align	4, 0x90
__ZN60_$LT$glutin..CreationError$u20$as$u20$core..error..Error$GT$6source17hda5d98b595c92eabE:
Lfunc_begin125:
	.loc	1 326 0
	.cfi_startproc
	pushq	%rbp
	.cfi_def_cfa_offset 16
	.cfi_offset %rbp, -16
	movq	%rsp, %rbp
	.cfi_def_cfa_register %rbp
	subq	$56, %rsp
	movq	%rdi, -56(%rbp)
	movq	%rdi, -24(%rbp)
Ltmp688:
	.loc	1 327 15 prologue_end
	movq	(%rdi), %rax
	movq	%rax, -48(%rbp)
	.loc	1 327 9 is_stmt 0
	subq	$2, %rax
	je	LBB125_2
	jmp	LBB125_5
LBB125_5:
	.loc	1 0 9
	movq	-48(%rbp), %rax
	.loc	1 327 9
	subq	$7, %rax
	je	LBB125_3
	jmp	LBB125_1
LBB125_1:
	.loc	1 330 18 is_stmt 1
	movq	$0, -40(%rbp)
	jmp	LBB125_4
LBB125_2:
	.loc	1 0 18 is_stmt 0
	movq	-56(%rbp), %rax
	.loc	1 328 47 is_stmt 1
	movq	%rax, %rcx
	addq	$8, %rcx
	movq	%rcx, -8(%rbp)
Ltmp689:
	.loc	1 328 60 is_stmt 0
	movq	8(%rax), %rcx
	movq	16(%rax), %rax
	.loc	1 328 55
	movq	%rcx, -40(%rbp)
	movq	%rax, -32(%rbp)
Ltmp690:
	.loc	1 328 66
	jmp	LBB125_4
LBB125_3:
	.loc	1 0 66
	movq	-56(%rbp), %rax
	.loc	1 329 35 is_stmt 1
	addq	$8, %rax
	movq	%rax, -16(%rbp)
Ltmp691:
	.loc	1 329 43 is_stmt 0
	movq	%rax, -40(%rbp)
	leaq	l___unnamed_7(%rip), %rax
	movq	%rax, -32(%rbp)
Ltmp692:
LBB125_4:
	.loc	1 332 6 is_stmt 1
	movq	-40(%rbp), %rax
	movq	-32(%rbp), %rdx
	addq	$56, %rsp
	popq	%rbp
	retq
Ltmp693:
Lfunc_end125:
	.cfi_endproc

	.globl	__ZN90_$LT$glutin..CreationError$u20$as$u20$core..convert..From$LT$winit..error..OsError$GT$$GT$4from17h813b80a3fe68ab47E
	.p2align	4, 0x90
__ZN90_$LT$glutin..CreationError$u20$as$u20$core..convert..From$LT$winit..error..OsError$GT$$GT$4from17h813b80a3fe68ab47E:
Lfunc_begin126:
	.loc	1 336 0
	.cfi_startproc
	pushq	%rbp
	.cfi_def_cfa_offset 16
	.cfi_offset %rbp, -16
	movq	%rsp, %rbp
	.cfi_def_cfa_register %rbp
	subq	$64, %rsp
	movq	%rdi, -56(%rbp)
	movq	%rdi, -48(%rbp)
Ltmp694:
	.loc	1 337 31 prologue_end
	leaq	-40(%rbp), %rdi
	movl	$40, %edx
	callq	_memcpy
Ltmp695:
	.loc	1 0 31 is_stmt 0
	movq	-56(%rbp), %rdi
	.loc	1 337 9
	addq	$8, %rdi
	leaq	-40(%rbp), %rsi
	movl	$40, %edx
	callq	_memcpy
	movq	-56(%rbp), %rdi
	movq	-48(%rbp), %rax
	movq	$7, (%rdi)
	.loc	1 338 6 is_stmt 1
	addq	$64, %rsp
	popq	%rbp
	retq
Ltmp696:
Lfunc_end126:
	.cfi_endproc

	.globl	__ZN59_$LT$glutin..ContextError$u20$as$u20$core..fmt..Display$GT$3fmt17hf279d54cb4870270E
	.p2align	4, 0x90
__ZN59_$LT$glutin..ContextError$u20$as$u20$core..fmt..Display$GT$3fmt17hf279d54cb4870270E:
Lfunc_begin127:
	.loc	1 352 0
	.cfi_startproc
	pushq	%rbp
	.cfi_def_cfa_offset 16
	.cfi_offset %rbp, -16
	movq	%rsp, %rbp
	.cfi_def_cfa_register %rbp
	subq	$288, %rsp
	movq	%rdi, -288(%rbp)
	movq	%rsi, -280(%rbp)
	movq	%rdi, -16(%rbp)
	movq	%rsi, -8(%rbp)
Ltmp697:
	.loc	1 353 15 prologue_end
	movq	(%rdi), %rax
	movq	%rax, -272(%rbp)
	.loc	1 0 15 is_stmt 0
	movq	-272(%rbp), %rax
	leaq	LJTI127_0(%rip), %rcx
	movslq	(%rcx,%rax,4), %rax
	addq	%rcx, %rax
	jmpq	*%rax
	.loc	1 353 15
	ud2
LBB127_2:
	.loc	1 0 15
	movq	-288(%rbp), %rax
	.loc	1 354 35 is_stmt 1
	addq	$8, %rax
	movq	%rax, -256(%rbp)
Ltmp698:
	.loc	1 354 46 is_stmt 0
	leaq	-256(%rbp), %rdi
	callq	__ZN4core3fmt10ArgumentV111new_display17h9d9762d10739013cE
	movq	%rax, -200(%rbp)
	movq	%rdx, -192(%rbp)
	leaq	-248(%rbp), %rdi
	leaq	l___unnamed_59(%rip), %rsi
	movl	$1, %r8d
	leaq	-200(%rbp), %rcx
	movq	%r8, %rdx
	callq	__ZN4core3fmt9Arguments6new_v117h6e7458c47a18cc83E
	movq	-280(%rbp), %rdi
	leaq	-248(%rbp), %rsi
	callq	__ZN4core3fmt9Formatter9write_fmt17h9bb7721c944aee26E
	andb	$1, %al
	movb	%al, -257(%rbp)
	jmp	LBB127_6
Ltmp699:
LBB127_3:
	.loc	1 0 46
	movq	-288(%rbp), %rax
	.loc	1 355 35 is_stmt 1
	addq	$8, %rax
	movq	%rax, -184(%rbp)
Ltmp700:
	.loc	1 355 43 is_stmt 0
	leaq	-184(%rbp), %rdi
	callq	__ZN4core3fmt10ArgumentV111new_display17he6a60863e1ba2c39E
	movq	%rax, -128(%rbp)
	movq	%rdx, -120(%rbp)
	leaq	-176(%rbp), %rdi
	leaq	l___unnamed_59(%rip), %rsi
	movl	$1, %r8d
	leaq	-128(%rbp), %rcx
	movq	%r8, %rdx
	callq	__ZN4core3fmt9Arguments6new_v117h6e7458c47a18cc83E
	movq	-280(%rbp), %rdi
	leaq	-176(%rbp), %rsi
	callq	__ZN4core3fmt9Formatter9write_fmt17h9bb7721c944aee26E
	andb	$1, %al
	movb	%al, -257(%rbp)
	jmp	LBB127_6
Ltmp701:
LBB127_4:
	.loc	1 356 42 is_stmt 1
	leaq	-112(%rbp), %rdi
	leaq	l___unnamed_64(%rip), %rsi
	movl	$1, %edx
	leaq	l___unnamed_30(%rip), %rcx
	xorl	%eax, %eax
	movl	%eax, %r8d
	callq	__ZN4core3fmt9Arguments6new_v117h6e7458c47a18cc83E
	movq	-280(%rbp), %rdi
	leaq	-112(%rbp), %rsi
	callq	__ZN4core3fmt9Formatter9write_fmt17h9bb7721c944aee26E
	andb	$1, %al
	movb	%al, -257(%rbp)
	jmp	LBB127_6
LBB127_5:
	.loc	1 357 50
	leaq	-64(%rbp), %rdi
	leaq	l___unnamed_65(%rip), %rsi
	movl	$1, %edx
	leaq	l___unnamed_30(%rip), %rcx
	xorl	%eax, %eax
	movl	%eax, %r8d
	callq	__ZN4core3fmt9Arguments6new_v117h6e7458c47a18cc83E
	movq	-280(%rbp), %rdi
	leaq	-64(%rbp), %rsi
	callq	__ZN4core3fmt9Formatter9write_fmt17h9bb7721c944aee26E
	andb	$1, %al
	movb	%al, -257(%rbp)
LBB127_6:
	.loc	1 359 6
	movb	-257(%rbp), %al
	andb	$1, %al
	movzbl	%al, %eax
	addq	$288, %rsp
	popq	%rbp
	retq
Ltmp702:
Lfunc_end127:
	.cfi_endproc
	.p2align	2, 0x90
	.data_region jt32
.set L127_0_set_2, LBB127_2-LJTI127_0
.set L127_0_set_3, LBB127_3-LJTI127_0
.set L127_0_set_4, LBB127_4-LJTI127_0
.set L127_0_set_5, LBB127_5-LJTI127_0
LJTI127_0:
	.long	L127_0_set_2
	.long	L127_0_set_3
	.long	L127_0_set_4
	.long	L127_0_set_5
	.end_data_region

	.globl	__ZN6glutin9GlRequest13to_gl_version17h9fe23ce87d7a5cc7E
	.p2align	4, 0x90
__ZN6glutin9GlRequest13to_gl_version17h9fe23ce87d7a5cc7E:
Lfunc_begin128:
	.loc	1 412 0
	.cfi_startproc
	pushq	%rbp
	.cfi_def_cfa_offset 16
	.cfi_offset %rbp, -16
	movq	%rsp, %rbp
	.cfi_def_cfa_register %rbp
	subq	$48, %rsp
	movl	%edi, %eax
	movl	%eax, -32(%rbp)
	shrq	$32, %rdi
	movb	%dil, %al
	movb	%al, -28(%rbp)
	movb	-28(%rbp), %al
	movb	%al, -36(%rbp)
	movl	-32(%rbp), %eax
	movl	%eax, -40(%rbp)
Ltmp703:
	.loc	1 413 15 prologue_end
	movzbl	-40(%rbp), %eax
	movq	%rax, -48(%rbp)
	subq	$1, %rax
	.loc	1 413 9 is_stmt 0
	je	LBB128_2
	jmp	LBB128_6
LBB128_6:
	.loc	1 0 9
	movq	-48(%rbp), %rax
	.loc	1 413 9
	subq	$2, %rax
	je	LBB128_3
	jmp	LBB128_1
LBB128_1:
	.loc	1 416 18 is_stmt 1
	movb	$0, -24(%rbp)
	jmp	LBB128_4
LBB128_2:
	.loc	1 413 15
	movzbl	-39(%rbp), %eax
	.loc	1 413 9 is_stmt 0
	cmpq	$0, %rax
	je	LBB128_5
	jmp	LBB128_1
LBB128_3:
	.loc	1 415 37 is_stmt 1
	movb	-39(%rbp), %cl
	movb	-38(%rbp), %al
	movb	%cl, -16(%rbp)
	movb	%al, -15(%rbp)
Ltmp704:
	.loc	1 415 61 is_stmt 0
	movb	%cl, -23(%rbp)
	movb	%al, -22(%rbp)
	movb	$1, -24(%rbp)
Ltmp705:
LBB128_4:
	.loc	1 418 6 is_stmt 1
	movzbl	-22(%rbp), %ecx
	shll	$16, %ecx
	movzwl	-24(%rbp), %eax
	orl	%ecx, %eax
	addq	$48, %rsp
	popq	%rbp
	retq
LBB128_5:
	.loc	1 414 46
	movb	-38(%rbp), %cl
	movb	-37(%rbp), %al
	movb	%cl, -8(%rbp)
	movb	%al, -7(%rbp)
Ltmp706:
	.loc	1 414 65 is_stmt 0
	movb	%cl, -23(%rbp)
	movb	%al, -22(%rbp)
	movb	$1, -24(%rbp)
Ltmp707:
	.loc	1 414 84
	jmp	LBB128_4
Ltmp708:
Lfunc_end128:
	.cfi_endproc

	.p2align	4, 0x90
__ZN74_$LT$glutin..PixelFormatRequirements$u20$as$u20$core..default..Default$GT$7default17h57059339a3aec268E:
Lfunc_begin129:
	.loc	1 554 0 is_stmt 1
	.cfi_startproc
	pushq	%rbp
	.cfi_def_cfa_offset 16
	.cfi_offset %rbp, -16
	movq	%rsp, %rbp
	.cfi_def_cfa_register %rbp
	subq	$56, %rsp
	movq	%rdi, %rax
Ltmp709:
	.loc	1 557 25 prologue_end
	movb	$24, -55(%rbp)
	movb	$1, -56(%rbp)
	.loc	1 559 25
	movb	$8, -47(%rbp)
	movb	$1, -48(%rbp)
	.loc	1 560 25
	movb	$24, -39(%rbp)
	movb	$1, -40(%rbp)
	.loc	1 561 27
	movb	$8, -31(%rbp)
	movb	$1, -32(%rbp)
	.loc	1 563 28
	movw	$0, -24(%rbp)
	.loc	1 567 29
	movq	$0, -16(%rbp)
	.loc	1 555 9
	movb	$1, 28(%rdi)
	movb	-56(%rbp), %dl
	movb	-55(%rbp), %cl
	andb	$1, %dl
	movb	%dl, 20(%rdi)
	movb	%cl, 21(%rdi)
	movb	$0, 30(%rdi)
	movb	-48(%rbp), %dl
	movb	-47(%rbp), %cl
	andb	$1, %dl
	movb	%dl, 22(%rdi)
	movb	%cl, 23(%rdi)
	movb	-40(%rbp), %dl
	movb	-39(%rbp), %cl
	andb	$1, %dl
	movb	%dl, 24(%rdi)
	movb	%cl, 25(%rdi)
	movb	-32(%rbp), %dl
	movb	-31(%rbp), %cl
	andb	$1, %dl
	movb	%dl, 26(%rdi)
	movb	%cl, 27(%rdi)
	movb	$2, 29(%rdi)
	movw	-24(%rbp), %dx
	movw	-22(%rbp), %cx
	movw	%dx, 16(%rdi)
	movw	%cx, 18(%rdi)
	movb	$0, 31(%rdi)
	movb	$1, 32(%rdi)
	movb	$1, 33(%rdi)
	movq	-16(%rbp), %rdx
	movq	-8(%rbp), %rcx
	movq	%rdx, (%rdi)
	movq	%rcx, 8(%rdi)
	.loc	1 569 6
	addq	$56, %rsp
	popq	%rbp
	retq
Ltmp710:
Lfunc_end129:
	.cfi_endproc

	.globl	__ZN72_$LT$glutin..GlAttributes$LT$S$GT$$u20$as$u20$core..default..Default$GT$7default17h02ccb5a5948288e6E
	.p2align	4, 0x90
__ZN72_$LT$glutin..GlAttributes$LT$S$GT$$u20$as$u20$core..default..Default$GT$7default17h02ccb5a5948288e6E:
Lfunc_begin130:
	.loc	1 645 0
	.cfi_startproc
	pushq	%rbp
	.cfi_def_cfa_offset 16
	.cfi_offset %rbp, -16
	movq	%rsp, %rbp
	.cfi_def_cfa_register %rbp
	subq	$16, %rsp
	movq	%rdi, %rax
Ltmp711:
	.loc	1 647 22 prologue_end
	movq	$0, -16(%rbp)
	.loc	1 648 22
	movb	$0, -8(%rbp)
	.loc	1 649 22
	movb	$2, -2(%rbp)
	.loc	1 651 25
	movb	$0, -1(%rbp)
	.loc	1 646 9
	movq	-16(%rbp), %rcx
	movq	%rcx, (%rdi)
	movl	-8(%rbp), %ecx
	movl	%ecx, 9(%rdi)
	movb	-4(%rbp), %cl
	movb	%cl, 13(%rdi)
	movb	-2(%rbp), %cl
	movb	%cl, 14(%rdi)
	movb	$1, 15(%rdi)
	movb	-1(%rbp), %cl
	movb	%cl, 8(%rdi)
	movb	$0, 16(%rdi)
	.loc	1 654 6
	addq	$16, %rsp
	popq	%rbp
	retq
Ltmp712:
Lfunc_end130:
	.cfi_endproc

	.globl	__ZN69_$LT$glutin..context..PossiblyCurrent$u20$as$u20$core..fmt..Debug$GT$3fmt17h6bb2bde2cc9d3fc6E
	.p2align	4, 0x90
__ZN69_$LT$glutin..context..PossiblyCurrent$u20$as$u20$core..fmt..Debug$GT$3fmt17h6bb2bde2cc9d3fc6E:
Lfunc_begin131:
	.loc	37 144 0
	.cfi_startproc
	pushq	%rbp
	.cfi_def_cfa_offset 16
	.cfi_offset %rbp, -16
	movq	%rsp, %rbp
	.cfi_def_cfa_register %rbp
	subq	$48, %rsp
	movq	%rsi, -32(%rbp)
	movq	%rdi, %rax
	movq	-32(%rbp), %rdi
	movq	%rax, -16(%rbp)
	movq	%rdi, -8(%rbp)
Ltmp713:
	.loc	37 146 5 prologue_end
	movq	%rax, -24(%rbp)
	.loc	37 144 10
	leaq	l___unnamed_66(%rip), %rsi
	movl	$15, %edx
	leaq	l___unnamed_67(%rip), %rcx
	movl	$7, %r8d
	leaq	-24(%rbp), %r9
	leaq	l___unnamed_8(%rip), %rax
	movq	%rax, (%rsp)
	callq	__ZN4core3fmt9Formatter26debug_struct_field1_finish17ha7aba2fd90afbefeE
	.loc	37 144 15 is_stmt 0
	andb	$1, %al
	movzbl	%al, %eax
	addq	$48, %rsp
	popq	%rbp
	retq
Ltmp714:
Lfunc_end131:
	.cfi_endproc

	.globl	__ZN64_$LT$glutin..context..NotCurrent$u20$as$u20$core..fmt..Debug$GT$3fmt17h52a12f398f093054E
	.p2align	4, 0x90
__ZN64_$LT$glutin..context..NotCurrent$u20$as$u20$core..fmt..Debug$GT$3fmt17h52a12f398f093054E:
Lfunc_begin132:
	.loc	37 153 0 is_stmt 1
	.cfi_startproc
	pushq	%rbp
	.cfi_def_cfa_offset 16
	.cfi_offset %rbp, -16
	movq	%rsp, %rbp
	.cfi_def_cfa_register %rbp
	subq	$16, %rsp
	movq	%rdi, -16(%rbp)
	movq	%rsi, -8(%rbp)
Ltmp715:
	.loc	37 153 10 prologue_end
	ud2
Ltmp716:
Lfunc_end132:
	.cfi_endproc

	.globl	__ZN77_$LT$glutin..platform_impl..platform..Context$u20$as$u20$core..fmt..Debug$GT$3fmt17hc92baa8526a1d2ccE
	.p2align	4, 0x90
__ZN77_$LT$glutin..platform_impl..platform..Context$u20$as$u20$core..fmt..Debug$GT$3fmt17hc92baa8526a1d2ccE:
Lfunc_begin133:
	.loc	39 29 0
	.cfi_startproc
	pushq	%rbp
	.cfi_def_cfa_offset 16
	.cfi_offset %rbp, -16
	movq	%rsp, %rbp
	.cfi_def_cfa_register %rbp
	subq	$64, %rsp
	movq	%rdi, -56(%rbp)
	movq	%rsi, -48(%rbp)
	movq	%rdi, -16(%rbp)
	movq	%rsi, -8(%rbp)
Ltmp717:
	.loc	39 29 10 prologue_end
	xorl	%eax, %eax
	movl	$1, %ecx
	cmpw	$2, 8(%rdi)
	cmoveq	%rcx, %rax
	cmpq	$0, %rax
	jne	LBB133_2
	.loc	39 0 10 is_stmt 0
	movq	-48(%rbp), %rdi
	movq	-56(%rbp), %rax
	.loc	39 31 21 is_stmt 1
	movq	%rax, -32(%rbp)
Ltmp718:
	.loc	39 29 10
	leaq	l___unnamed_68(%rip), %rsi
	movl	$15, %edx
	leaq	-32(%rbp), %rcx
	leaq	l___unnamed_10(%rip), %r8
	callq	__ZN4core3fmt9Formatter25debug_tuple_field1_finish17h7c0e485bb1c7676eE
	andb	$1, %al
	movb	%al, -33(%rbp)
	jmp	LBB133_3
Ltmp719:
LBB133_2:
	.loc	39 0 10 is_stmt 0
	movq	-48(%rbp), %rdi
	movq	-56(%rbp), %rax
	.loc	39 32 21 is_stmt 1
	movq	%rax, -24(%rbp)
Ltmp720:
	.loc	39 29 10
	leaq	l___unnamed_69(%rip), %rsi
	movl	$15, %edx
	leaq	-24(%rbp), %rcx
	leaq	l___unnamed_9(%rip), %r8
	callq	__ZN4core3fmt9Formatter25debug_tuple_field1_finish17h7c0e485bb1c7676eE
	andb	$1, %al
	movb	%al, -33(%rbp)
Ltmp721:
LBB133_3:
	.loc	39 29 15 is_stmt 0
	movb	-33(%rbp), %al
	andb	$1, %al
	movzbl	%al, %eax
	addq	$64, %rsp
	popq	%rbp
	retq
Ltmp722:
Lfunc_end133:
	.cfi_endproc

	.globl	__ZN85_$LT$glutin..platform_impl..platform..WindowedContext$u20$as$u20$core..fmt..Debug$GT$3fmt17hf046c8742a0aa98aE
	.p2align	4, 0x90
__ZN85_$LT$glutin..platform_impl..platform..WindowedContext$u20$as$u20$core..fmt..Debug$GT$3fmt17hf046c8742a0aa98aE:
Lfunc_begin134:
	.loc	39 35 0 is_stmt 1
	.cfi_startproc
	pushq	%rbp
	.cfi_def_cfa_offset 16
	.cfi_offset %rbp, -16
	movq	%rsp, %rbp
	.cfi_def_cfa_register %rbp
	pushq	%rbx
	subq	$88, %rsp
	.cfi_offset %rbx, -24
	movq	%rsi, -48(%rbp)
	movq	%rdi, %rax
	movq	-48(%rbp), %rdi
	movq	%rax, -24(%rbp)
	movq	%rdi, -16(%rbp)
Ltmp723:
	.loc	39 38 5 prologue_end
	movq	%rax, -40(%rbp)
	.loc	39 39 5
	addq	$8, %rax
	movq	%rax, -32(%rbp)
	.loc	39 35 10
	leaq	l___unnamed_68(%rip), %rsi
	movl	$15, %edx
	leaq	l___unnamed_70(%rip), %rcx
	movl	$7, %r8d
	leaq	-40(%rbp), %r9
	leaq	l___unnamed_11(%rip), %rbx
	leaq	l___unnamed_71(%rip), %r11
	leaq	-32(%rbp), %r10
	leaq	l___unnamed_12(%rip), %rax
	movq	%rbx, (%rsp)
	movq	%r11, 8(%rsp)
	movq	$12, 16(%rsp)
	movq	%r10, 24(%rsp)
	movq	%rax, 32(%rsp)
	callq	__ZN4core3fmt9Formatter26debug_struct_field2_finish17h6d8f05a66ed84642E
	.loc	39 35 15 is_stmt 0
	andb	$1, %al
	movzbl	%al, %eax
	addq	$88, %rsp
	popq	%rbx
	popq	%rbp
	retq
Ltmp724:
Lfunc_end134:
	.cfi_endproc

	.globl	__ZN85_$LT$glutin..platform_impl..platform..HeadlessContext$u20$as$u20$core..fmt..Debug$GT$3fmt17h4351c15d8da7f3a8E
	.p2align	4, 0x90
__ZN85_$LT$glutin..platform_impl..platform..HeadlessContext$u20$as$u20$core..fmt..Debug$GT$3fmt17h4351c15d8da7f3a8E:
Lfunc_begin135:
	.loc	39 42 0 is_stmt 1
	.cfi_startproc
	pushq	%rbp
	.cfi_def_cfa_offset 16
	.cfi_offset %rbp, -16
	movq	%rsp, %rbp
	.cfi_def_cfa_register %rbp
	subq	$48, %rsp
	movq	%rsi, -32(%rbp)
	movq	%rdi, %rax
	movq	-32(%rbp), %rdi
	movq	%rax, -16(%rbp)
	movq	%rdi, -8(%rbp)
Ltmp725:
	.loc	39 44 5 prologue_end
	movq	%rax, -24(%rbp)
	.loc	39 42 10
	leaq	l___unnamed_69(%rip), %rsi
	movl	$15, %edx
	leaq	l___unnamed_70(%rip), %rcx
	movl	$7, %r8d
	leaq	-24(%rbp), %r9
	leaq	l___unnamed_11(%rip), %rax
	movq	%rax, (%rsp)
	callq	__ZN4core3fmt9Formatter26debug_struct_field1_finish17ha7aba2fd90afbefeE
	.loc	39 42 15 is_stmt 0
	andb	$1, %al
	movzbl	%al, %eax
	addq	$48, %rsp
	popq	%rbp
	retq
Ltmp726:
Lfunc_end135:
	.cfi_endproc

	.globl	__ZN75_$LT$glutin..platform_impl..platform..IdRef$u20$as$u20$core..fmt..Debug$GT$3fmt17hda3ab9b6d31249dcE
	.p2align	4, 0x90
__ZN75_$LT$glutin..platform_impl..platform..IdRef$u20$as$u20$core..fmt..Debug$GT$3fmt17hda3ab9b6d31249dcE:
Lfunc_begin136:
	.loc	39 308 0 is_stmt 1
	.cfi_startproc
	pushq	%rbp
	.cfi_def_cfa_offset 16
	.cfi_offset %rbp, -16
	movq	%rsp, %rbp
	.cfi_def_cfa_register %rbp
	subq	$32, %rsp
	movq	%rsi, -32(%rbp)
	movq	%rdi, %rax
	movq	-32(%rbp), %rdi
	movq	%rax, -16(%rbp)
	movq	%rdi, -8(%rbp)
Ltmp727:
	.loc	39 309 14 prologue_end
	movq	%rax, -24(%rbp)
	.loc	39 308 10
	leaq	l___unnamed_72(%rip), %rsi
	movl	$5, %edx
	leaq	-24(%rbp), %rcx
	leaq	l___unnamed_13(%rip), %r8
	callq	__ZN4core3fmt9Formatter25debug_tuple_field1_finish17h7c0e485bb1c7676eE
	.loc	39 308 15 is_stmt 0
	andb	$1, %al
	movzbl	%al, %eax
	addq	$32, %rsp
	popq	%rbp
	retq
Ltmp728:
Lfunc_end136:
	.cfi_endproc

	.globl	__ZN58_$LT$glutin..CreationError$u20$as$u20$core..fmt..Debug$GT$3fmt17hf10e97734ce6baecE
	.p2align	4, 0x90
__ZN58_$LT$glutin..CreationError$u20$as$u20$core..fmt..Debug$GT$3fmt17hf10e97734ce6baecE:
Lfunc_begin137:
	.loc	1 259 0 is_stmt 1
	.cfi_startproc
	pushq	%rbp
	.cfi_def_cfa_offset 16
	.cfi_offset %rbp, -16
	movq	%rsp, %rbp
	.cfi_def_cfa_register %rbp
	subq	$96, %rsp
	movq	%rdi, -96(%rbp)
	movq	%rsi, -88(%rbp)
	movq	%rdi, -16(%rbp)
	movq	%rsi, -8(%rbp)
Ltmp729:
	.loc	1 259 10 prologue_end
	movq	(%rdi), %rax
	movq	%rax, -80(%rbp)
	.loc	1 0 10 is_stmt 0
	movq	-80(%rbp), %rax
	leaq	LJTI137_0(%rip), %rcx
	movslq	(%rcx,%rax,4), %rax
	addq	%rcx, %rax
	jmpq	*%rax
	.loc	1 259 10
	ud2
LBB137_2:
	.loc	1 0 10
	movq	-88(%rbp), %rdi
	movq	-96(%rbp), %rax
	.loc	1 261 13 is_stmt 1
	addq	$8, %rax
	movq	%rax, -64(%rbp)
Ltmp730:
	.loc	1 259 10
	leaq	l___unnamed_73(%rip), %rsi
	movl	$7, %edx
	leaq	-64(%rbp), %rcx
	leaq	l___unnamed_16(%rip), %r8
	callq	__ZN4core3fmt9Formatter25debug_tuple_field1_finish17h7c0e485bb1c7676eE
	andb	$1, %al
	movb	%al, -65(%rbp)
	jmp	LBB137_11
Ltmp731:
LBB137_3:
	.loc	1 0 10 is_stmt 0
	movq	-88(%rbp), %rdi
	movq	-96(%rbp), %rax
	.loc	1 262 18 is_stmt 1
	addq	$8, %rax
	movq	%rax, -56(%rbp)
Ltmp732:
	.loc	1 259 10
	leaq	l___unnamed_74(%rip), %rsi
	movl	$12, %edx
	leaq	-56(%rbp), %rcx
	leaq	l___unnamed_16(%rip), %r8
	callq	__ZN4core3fmt9Formatter25debug_tuple_field1_finish17h7c0e485bb1c7676eE
	andb	$1, %al
	movb	%al, -65(%rbp)
	jmp	LBB137_11
Ltmp733:
LBB137_4:
	.loc	1 0 10 is_stmt 0
	movq	-88(%rbp), %rdi
	movq	-96(%rbp), %rax
	.loc	1 263 24 is_stmt 1
	addq	$8, %rax
	movq	%rax, -48(%rbp)
Ltmp734:
	.loc	1 259 10
	leaq	l___unnamed_75(%rip), %rsi
	movl	$18, %edx
	leaq	-48(%rbp), %rcx
	leaq	l___unnamed_17(%rip), %r8
	callq	__ZN4core3fmt9Formatter25debug_tuple_field1_finish17h7c0e485bb1c7676eE
	andb	$1, %al
	movb	%al, -65(%rbp)
	jmp	LBB137_11
Ltmp735:
LBB137_5:
	.loc	1 0 10 is_stmt 0
	movq	-88(%rbp), %rdi
	.loc	1 259 10
	leaq	l___unnamed_76(%rip), %rsi
	movl	$22, %edx
	callq	__ZN4core3fmt9Formatter9write_str17hb029d9999327a35fE
	andb	$1, %al
	movb	%al, -65(%rbp)
	jmp	LBB137_11
LBB137_6:
	.loc	1 0 10
	movq	-88(%rbp), %rdi
	.loc	1 259 10
	leaq	l___unnamed_77(%rip), %rsi
	movl	$25, %edx
	callq	__ZN4core3fmt9Formatter9write_str17hb029d9999327a35fE
	andb	$1, %al
	movb	%al, -65(%rbp)
	jmp	LBB137_11
LBB137_7:
	.loc	1 0 10
	movq	-88(%rbp), %rdi
	.loc	1 259 10
	leaq	l___unnamed_78(%rip), %rsi
	movl	$22, %edx
	callq	__ZN4core3fmt9Formatter9write_str17hb029d9999327a35fE
	andb	$1, %al
	movb	%al, -65(%rbp)
	jmp	LBB137_11
LBB137_8:
	.loc	1 0 10
	movq	-88(%rbp), %rdi
	movq	-96(%rbp), %rax
	.loc	1 267 22 is_stmt 1
	addq	$8, %rax
	movq	%rax, -40(%rbp)
Ltmp736:
	.loc	1 259 10
	leaq	L___unnamed_79(%rip), %rsi
	movl	$16, %edx
	leaq	-40(%rbp), %rcx
	leaq	l___unnamed_16(%rip), %r8
	callq	__ZN4core3fmt9Formatter25debug_tuple_field1_finish17h7c0e485bb1c7676eE
	andb	$1, %al
	movb	%al, -65(%rbp)
	jmp	LBB137_11
Ltmp737:
LBB137_9:
	.loc	1 0 10 is_stmt 0
	movq	-88(%rbp), %rdi
	movq	-96(%rbp), %rax
	.loc	1 268 12 is_stmt 1
	addq	$8, %rax
	movq	%rax, -32(%rbp)
Ltmp738:
	.loc	1 259 10
	leaq	l___unnamed_80(%rip), %rsi
	movl	$6, %edx
	leaq	-32(%rbp), %rcx
	leaq	l___unnamed_15(%rip), %r8
	callq	__ZN4core3fmt9Formatter25debug_tuple_field1_finish17h7c0e485bb1c7676eE
	andb	$1, %al
	movb	%al, -65(%rbp)
	jmp	LBB137_11
Ltmp739:
LBB137_10:
	.loc	1 0 10 is_stmt 0
	movq	-88(%rbp), %rdi
	movq	-96(%rbp), %rax
	.loc	1 270 20 is_stmt 1
	addq	$8, %rax
	movq	%rax, -24(%rbp)
Ltmp740:
	.loc	1 259 10
	leaq	l___unnamed_81(%rip), %rsi
	movl	$14, %edx
	leaq	-24(%rbp), %rcx
	leaq	l___unnamed_14(%rip), %r8
	callq	__ZN4core3fmt9Formatter25debug_tuple_field1_finish17h7c0e485bb1c7676eE
	andb	$1, %al
	movb	%al, -65(%rbp)
Ltmp741:
LBB137_11:
	.loc	1 259 15 is_stmt 0
	movb	-65(%rbp), %al
	andb	$1, %al
	movzbl	%al, %eax
	addq	$96, %rsp
	popq	%rbp
	retq
Ltmp742:
Lfunc_end137:
	.cfi_endproc
	.p2align	2, 0x90
	.data_region jt32
.set L137_0_set_2, LBB137_2-LJTI137_0
.set L137_0_set_3, LBB137_3-LJTI137_0
.set L137_0_set_4, LBB137_4-LJTI137_0
.set L137_0_set_5, LBB137_5-LJTI137_0
.set L137_0_set_6, LBB137_6-LJTI137_0
.set L137_0_set_7, LBB137_7-LJTI137_0
.set L137_0_set_8, LBB137_8-LJTI137_0
.set L137_0_set_9, LBB137_9-LJTI137_0
.set L137_0_set_10, LBB137_10-LJTI137_0
LJTI137_0:
	.long	L137_0_set_2
	.long	L137_0_set_3
	.long	L137_0_set_4
	.long	L137_0_set_5
	.long	L137_0_set_6
	.long	L137_0_set_7
	.long	L137_0_set_8
	.long	L137_0_set_9
	.long	L137_0_set_10
	.end_data_region

	.globl	__ZN57_$LT$glutin..ContextError$u20$as$u20$core..fmt..Debug$GT$3fmt17h565f7808e28a379dE
	.p2align	4, 0x90
__ZN57_$LT$glutin..ContextError$u20$as$u20$core..fmt..Debug$GT$3fmt17h565f7808e28a379dE:
Lfunc_begin138:
	.loc	1 342 0 is_stmt 1
	.cfi_startproc
	pushq	%rbp
	.cfi_def_cfa_offset 16
	.cfi_offset %rbp, -16
	movq	%rsp, %rbp
	.cfi_def_cfa_register %rbp
	subq	$64, %rsp
	movq	%rdi, -64(%rbp)
	movq	%rsi, -56(%rbp)
	movq	%rdi, -16(%rbp)
	movq	%rsi, -8(%rbp)
Ltmp743:
	.loc	1 342 10 prologue_end
	movq	(%rdi), %rax
	movq	%rax, -48(%rbp)
	.loc	1 0 10 is_stmt 0
	movq	-48(%rbp), %rax
	leaq	LJTI138_0(%rip), %rcx
	movslq	(%rcx,%rax,4), %rax
	addq	%rcx, %rax
	jmpq	*%rax
	.loc	1 342 10
	ud2
LBB138_2:
	.loc	1 0 10
	movq	-56(%rbp), %rdi
	movq	-64(%rbp), %rax
	.loc	1 345 13 is_stmt 1
	addq	$8, %rax
	movq	%rax, -32(%rbp)
Ltmp744:
	.loc	1 342 10
	leaq	l___unnamed_73(%rip), %rsi
	movl	$7, %edx
	leaq	-32(%rbp), %rcx
	leaq	l___unnamed_16(%rip), %r8
	callq	__ZN4core3fmt9Formatter25debug_tuple_field1_finish17h7c0e485bb1c7676eE
	andb	$1, %al
	movb	%al, -33(%rbp)
	jmp	LBB138_6
Ltmp745:
LBB138_3:
	.loc	1 0 10 is_stmt 0
	movq	-56(%rbp), %rdi
	movq	-64(%rbp), %rax
	.loc	1 346 13 is_stmt 1
	addq	$8, %rax
	movq	%rax, -24(%rbp)
Ltmp746:
	.loc	1 342 10
	leaq	l___unnamed_82(%rip), %rsi
	movl	$7, %edx
	leaq	-24(%rbp), %rcx
	leaq	l___unnamed_18(%rip), %r8
	callq	__ZN4core3fmt9Formatter25debug_tuple_field1_finish17h7c0e485bb1c7676eE
	andb	$1, %al
	movb	%al, -33(%rbp)
	jmp	LBB138_6
Ltmp747:
LBB138_4:
	.loc	1 0 10 is_stmt 0
	movq	-56(%rbp), %rdi
	.loc	1 342 10
	leaq	l___unnamed_83(%rip), %rsi
	movl	$11, %edx
	callq	__ZN4core3fmt9Formatter9write_str17hb029d9999327a35fE
	andb	$1, %al
	movb	%al, -33(%rbp)
	jmp	LBB138_6
LBB138_5:
	.loc	1 0 10
	movq	-56(%rbp), %rdi
	.loc	1 342 10
	leaq	l___unnamed_84(%rip), %rsi
	movl	$19, %edx
	callq	__ZN4core3fmt9Formatter9write_str17hb029d9999327a35fE
	andb	$1, %al
	movb	%al, -33(%rbp)
LBB138_6:
	.loc	1 342 15
	movb	-33(%rbp), %al
	andb	$1, %al
	movzbl	%al, %eax
	addq	$64, %rsp
	popq	%rbp
	retq
Ltmp748:
Lfunc_end138:
	.cfi_endproc
	.p2align	2, 0x90
	.data_region jt32
.set L138_0_set_2, LBB138_2-LJTI138_0
.set L138_0_set_3, LBB138_3-LJTI138_0
.set L138_0_set_4, LBB138_4-LJTI138_0
.set L138_0_set_5, LBB138_5-LJTI138_0
LJTI138_0:
	.long	L138_0_set_2
	.long	L138_0_set_3
	.long	L138_0_set_4
	.long	L138_0_set_5
	.end_data_region

	.globl	__ZN48_$LT$glutin..Api$u20$as$u20$core..fmt..Debug$GT$3fmt17he2dbbf211383d49fE
	.p2align	4, 0x90
__ZN48_$LT$glutin..Api$u20$as$u20$core..fmt..Debug$GT$3fmt17he2dbbf211383d49fE:
Lfunc_begin139:
	.loc	1 365 0 is_stmt 1
	.cfi_startproc
	pushq	%rbp
	.cfi_def_cfa_offset 16
	.cfi_offset %rbp, -16
	movq	%rsp, %rbp
	.cfi_def_cfa_register %rbp
	subq	$48, %rsp
	movq	%rsi, -48(%rbp)
	movq	%rdi, -16(%rbp)
	movq	%rsi, -8(%rbp)
Ltmp749:
	.loc	1 365 10 prologue_end
	movzbl	(%rdi), %eax
	movq	%rax, -40(%rbp)
	testq	%rax, %rax
	je	LBB139_2
	jmp	LBB139_6
LBB139_6:
	.loc	1 0 10 is_stmt 0
	movq	-40(%rbp), %rax
	.loc	1 365 10
	subq	$1, %rax
	je	LBB139_3
	jmp	LBB139_7
LBB139_7:
	jmp	LBB139_4
	ud2
LBB139_2:
	leaq	l___unnamed_85(%rip), %rax
	movq	%rax, -32(%rbp)
	movq	$6, -24(%rbp)
	.loc	1 365 14
	jmp	LBB139_5
LBB139_3:
	.loc	1 365 10
	leaq	L___unnamed_86(%rip), %rax
	movq	%rax, -32(%rbp)
	movq	$8, -24(%rbp)
	.loc	1 365 14
	jmp	LBB139_5
LBB139_4:
	.loc	1 365 10
	leaq	l___unnamed_87(%rip), %rax
	movq	%rax, -32(%rbp)
	movq	$5, -24(%rbp)
LBB139_5:
	.loc	1 0 10
	movq	-48(%rbp), %rdi
	.loc	1 365 10
	movq	-32(%rbp), %rsi
	movq	-24(%rbp), %rdx
	callq	__ZN4core3fmt9Formatter9write_str17hb029d9999327a35fE
	.loc	1 365 15
	andb	$1, %al
	movzbl	%al, %eax
	addq	$48, %rsp
	popq	%rbp
	retq
Ltmp750:
Lfunc_end139:
	.cfi_endproc

	.globl	__ZN54_$LT$glutin..GlProfile$u20$as$u20$core..fmt..Debug$GT$3fmt17h1f46310229032cc8E
	.p2align	4, 0x90
__ZN54_$LT$glutin..GlProfile$u20$as$u20$core..fmt..Debug$GT$3fmt17h1f46310229032cc8E:
Lfunc_begin140:
	.loc	1 377 0 is_stmt 1
	.cfi_startproc
	pushq	%rbp
	.cfi_def_cfa_offset 16
	.cfi_offset %rbp, -16
	movq	%rsp, %rbp
	.cfi_def_cfa_register %rbp
	subq	$48, %rsp
	movq	%rsi, -40(%rbp)
	movq	%rdi, -16(%rbp)
	movq	%rsi, -8(%rbp)
Ltmp751:
	.loc	1 377 10 prologue_end
	movb	(%rdi), %al
	andb	$1, %al
	movzbl	%al, %eax
	cmpq	$0, %rax
	jne	LBB140_2
	leaq	l___unnamed_88(%rip), %rax
	movq	%rax, -32(%rbp)
	movq	$13, -24(%rbp)
	.loc	1 377 14 is_stmt 0
	jmp	LBB140_3
LBB140_2:
	.loc	1 377 10
	leaq	L___unnamed_89(%rip), %rax
	movq	%rax, -32(%rbp)
	movq	$4, -24(%rbp)
LBB140_3:
	.loc	1 0 10
	movq	-40(%rbp), %rdi
	.loc	1 377 10
	movq	-32(%rbp), %rsi
	movq	-24(%rbp), %rdx
	callq	__ZN4core3fmt9Formatter9write_str17hb029d9999327a35fE
	.loc	1 377 15
	andb	$1, %al
	movzbl	%al, %eax
	addq	$48, %rsp
	popq	%rbp
	retq
Ltmp752:
Lfunc_end140:
	.cfi_endproc

	.globl	__ZN54_$LT$glutin..GlRequest$u20$as$u20$core..fmt..Debug$GT$3fmt17h9c29f23c4e72283cE
	.p2align	4, 0x90
__ZN54_$LT$glutin..GlRequest$u20$as$u20$core..fmt..Debug$GT$3fmt17h9c29f23c4e72283cE:
Lfunc_begin141:
	.loc	1 387 0 is_stmt 1
	.cfi_startproc
	pushq	%rbp
	.cfi_def_cfa_offset 16
	.cfi_offset %rbp, -16
	movq	%rsp, %rbp
	.cfi_def_cfa_register %rbp
	subq	$128, %rsp
	movq	%rdi, -80(%rbp)
	movq	%rsi, -72(%rbp)
	movq	%rdi, -16(%rbp)
	movq	%rsi, -8(%rbp)
Ltmp753:
	.loc	1 387 10 prologue_end
	movzbl	(%rdi), %eax
	movq	%rax, -64(%rbp)
	testq	%rax, %rax
	je	LBB141_2
	jmp	LBB141_6
LBB141_6:
	.loc	1 0 10 is_stmt 0
	movq	-64(%rbp), %rax
	.loc	1 387 10
	subq	$1, %rax
	je	LBB141_3
	jmp	LBB141_7
LBB141_7:
	jmp	LBB141_4
	ud2
LBB141_2:
	.loc	1 0 10
	movq	-72(%rbp), %rdi
	.loc	1 387 10
	leaq	l___unnamed_90(%rip), %rsi
	movl	$6, %edx
	callq	__ZN4core3fmt9Formatter9write_str17hb029d9999327a35fE
	andb	$1, %al
	movb	%al, -49(%rbp)
	jmp	LBB141_5
LBB141_3:
	.loc	1 0 10
	movq	-72(%rbp), %rdi
	movq	-80(%rbp), %rax
	.loc	1 397 14 is_stmt 1
	movq	%rax, %rcx
	addq	$1, %rcx
	movq	%rcx, -48(%rbp)
	.loc	1 397 19 is_stmt 0
	addq	$2, %rax
	movq	%rax, -40(%rbp)
Ltmp754:
	.loc	1 387 10 is_stmt 1
	leaq	L___unnamed_91(%rip), %rsi
	movl	$8, %edx
	leaq	-48(%rbp), %rcx
	leaq	l___unnamed_20(%rip), %r8
	leaq	-40(%rbp), %r9
	leaq	l___unnamed_19(%rip), %rax
	movq	%rax, (%rsp)
	callq	__ZN4core3fmt9Formatter25debug_tuple_field2_finish17h2462e05ea0b31747E
	andb	$1, %al
	movb	%al, -49(%rbp)
	jmp	LBB141_5
Ltmp755:
LBB141_4:
	.loc	1 0 10 is_stmt 0
	movq	-72(%rbp), %rdi
	movq	-80(%rbp), %rax
	.loc	1 404 9 is_stmt 1
	movq	%rax, %rcx
	addq	$1, %rcx
	movq	%rcx, -32(%rbp)
	.loc	1 406 9
	addq	$3, %rax
	movq	%rax, -24(%rbp)
Ltmp756:
	.loc	1 387 10
	leaq	l___unnamed_92(%rip), %rsi
	movl	$10, %edx
	leaq	l___unnamed_93(%rip), %rcx
	movl	$14, %r8d
	leaq	-32(%rbp), %r9
	leaq	l___unnamed_19(%rip), %rax
	leaq	L___unnamed_94(%rip), %r11
	leaq	-24(%rbp), %r10
	movq	%rax, (%rsp)
	movq	%r11, 8(%rsp)
	movq	$16, 16(%rsp)
	movq	%r10, 24(%rsp)
	movq	%rax, 32(%rsp)
	callq	__ZN4core3fmt9Formatter26debug_struct_field2_finish17h6d8f05a66ed84642E
	andb	$1, %al
	movb	%al, -49(%rbp)
Ltmp757:
LBB141_5:
	.loc	1 387 15 is_stmt 0
	movb	-49(%rbp), %al
	andb	$1, %al
	movzbl	%al, %eax
	addq	$128, %rsp
	popq	%rbp
	retq
Ltmp758:
Lfunc_end141:
	.cfi_endproc

	.globl	__ZN55_$LT$glutin..Robustness$u20$as$u20$core..fmt..Debug$GT$3fmt17hf5749b869176b001E
	.p2align	4, 0x90
__ZN55_$LT$glutin..Robustness$u20$as$u20$core..fmt..Debug$GT$3fmt17hf5749b869176b001E:
Lfunc_begin142:
	.loc	1 429 0 is_stmt 1
	.cfi_startproc
	pushq	%rbp
	.cfi_def_cfa_offset 16
	.cfi_offset %rbp, -16
	movq	%rsp, %rbp
	.cfi_def_cfa_register %rbp
	subq	$48, %rsp
	movq	%rsi, -48(%rbp)
	movq	%rdi, -16(%rbp)
	movq	%rsi, -8(%rbp)
Ltmp759:
	.loc	1 429 10 prologue_end
	movzbl	(%rdi), %eax
	movq	%rax, -40(%rbp)
	.loc	1 0 10 is_stmt 0
	movq	-40(%rbp), %rax
	leaq	LJTI142_0(%rip), %rcx
	movslq	(%rcx,%rax,4), %rax
	addq	%rcx, %rax
	jmpq	*%rax
	.loc	1 429 10
	ud2
LBB142_2:
	leaq	l___unnamed_95(%rip), %rax
	movq	%rax, -32(%rbp)
	movq	$9, -24(%rbp)
	.loc	1 429 14
	jmp	LBB142_8
LBB142_3:
	.loc	1 429 10
	leaq	l___unnamed_96(%rip), %rax
	movq	%rax, -32(%rbp)
	movq	$7, -24(%rbp)
	.loc	1 429 14
	jmp	LBB142_8
LBB142_4:
	.loc	1 429 10
	leaq	l___unnamed_97(%rip), %rax
	movq	%rax, -32(%rbp)
	movq	$25, -24(%rbp)
	.loc	1 429 14
	jmp	LBB142_8
LBB142_5:
	.loc	1 429 10
	leaq	l___unnamed_98(%rip), %rax
	movq	%rax, -32(%rbp)
	movq	$28, -24(%rbp)
	.loc	1 429 14
	jmp	LBB142_8
LBB142_6:
	.loc	1 429 10
	leaq	l___unnamed_99(%rip), %rax
	movq	%rax, -32(%rbp)
	movq	$24, -24(%rbp)
	.loc	1 429 14
	jmp	LBB142_8
LBB142_7:
	.loc	1 429 10
	leaq	l___unnamed_100(%rip), %rax
	movq	%rax, -32(%rbp)
	movq	$27, -24(%rbp)
LBB142_8:
	.loc	1 0 10
	movq	-48(%rbp), %rdi
	.loc	1 429 10
	movq	-32(%rbp), %rsi
	movq	-24(%rbp), %rdx
	callq	__ZN4core3fmt9Formatter9write_str17hb029d9999327a35fE
	.loc	1 429 15
	andb	$1, %al
	movzbl	%al, %eax
	addq	$48, %rsp
	popq	%rbp
	retq
Ltmp760:
Lfunc_end142:
	.cfi_endproc
	.p2align	2, 0x90
	.data_region jt32
.set L142_0_set_2, LBB142_2-LJTI142_0
.set L142_0_set_3, LBB142_3-LJTI142_0
.set L142_0_set_4, LBB142_4-LJTI142_0
.set L142_0_set_5, LBB142_5-LJTI142_0
.set L142_0_set_6, LBB142_6-LJTI142_0
.set L142_0_set_7, LBB142_7-LJTI142_0
LJTI142_0:
	.long	L142_0_set_2
	.long	L142_0_set_3
	.long	L142_0_set_4
	.long	L142_0_set_5
	.long	L142_0_set_6
	.long	L142_0_set_7
	.end_data_region

	.globl	__ZN60_$LT$glutin..ReleaseBehavior$u20$as$u20$core..fmt..Debug$GT$3fmt17h094e5305a1608a34E
	.p2align	4, 0x90
__ZN60_$LT$glutin..ReleaseBehavior$u20$as$u20$core..fmt..Debug$GT$3fmt17h094e5305a1608a34E:
Lfunc_begin143:
	.loc	1 465 0 is_stmt 1
	.cfi_startproc
	pushq	%rbp
	.cfi_def_cfa_offset 16
	.cfi_offset %rbp, -16
	movq	%rsp, %rbp
	.cfi_def_cfa_register %rbp
	subq	$48, %rsp
	movq	%rsi, -40(%rbp)
	movq	%rdi, -16(%rbp)
	movq	%rsi, -8(%rbp)
Ltmp761:
	.loc	1 465 10 prologue_end
	movb	(%rdi), %al
	andb	$1, %al
	movzbl	%al, %eax
	cmpq	$0, %rax
	jne	LBB143_2
	leaq	L___unnamed_34(%rip), %rax
	movq	%rax, -32(%rbp)
	movq	$4, -24(%rbp)
	.loc	1 465 14 is_stmt 0
	jmp	LBB143_3
LBB143_2:
	.loc	1 465 10
	leaq	l___unnamed_101(%rip), %rax
	movq	%rax, -32(%rbp)
	movq	$5, -24(%rbp)
LBB143_3:
	.loc	1 0 10
	movq	-40(%rbp), %rdi
	.loc	1 465 10
	movq	-32(%rbp), %rsi
	movq	-24(%rbp), %rdx
	callq	__ZN4core3fmt9Formatter9write_str17hb029d9999327a35fE
	.loc	1 465 15
	andb	$1, %al
	movzbl	%al, %eax
	addq	$48, %rsp
	popq	%rbp
	retq
Ltmp762:
Lfunc_end143:
	.cfi_endproc

	.p2align	4, 0x90
__ZN64_$LT$glutin..ReleaseBehavior$u20$as$u20$core..cmp..PartialEq$GT$2eq17h0eeb9e190a4734a3E:
Lfunc_begin144:
	.loc	1 465 0 is_stmt 1
	.cfi_startproc
	pushq	%rbp
	.cfi_def_cfa_offset 16
	.cfi_offset %rbp, -16
	movq	%rsp, %rbp
	.cfi_def_cfa_register %rbp
	subq	$32, %rsp
	movq	%rdi, -32(%rbp)
	movq	%rsi, -24(%rbp)
Ltmp763:
	.loc	1 465 30 prologue_end
	movb	(%rdi), %al
	andb	$1, %al
	movzbl	%al, %eax
	movq	%rax, -16(%rbp)
Ltmp764:
	.loc	1 465 30 is_stmt 0
	movb	(%rsi), %cl
	andb	$1, %cl
	movzbl	%cl, %ecx
	movq	%rcx, -8(%rbp)
Ltmp765:
	.loc	1 465 30
	cmpq	%rcx, %rax
	sete	%al
Ltmp766:
	.loc	1 465 39
	andb	$1, %al
	movzbl	%al, %eax
	addq	$32, %rsp
	popq	%rbp
	retq
Ltmp767:
Lfunc_end144:
	.cfi_endproc

	.globl	__ZN56_$LT$glutin..PixelFormat$u20$as$u20$core..fmt..Debug$GT$3fmt17hbef6295013dae520E
	.p2align	4, 0x90
__ZN56_$LT$glutin..PixelFormat$u20$as$u20$core..fmt..Debug$GT$3fmt17hbef6295013dae520E:
Lfunc_begin145:
	.loc	1 477 0 is_stmt 1
	.cfi_startproc
	pushq	%rbp
	.cfi_def_cfa_offset 16
	.cfi_offset %rbp, -16
	movq	%rsp, %rbp
	.cfi_def_cfa_register %rbp
	subq	$272, %rsp
	movq	%rsi, -264(%rbp)
	movq	%rdi, %rax
	movq	-264(%rbp), %rdi
	movq	%rax, -40(%rbp)
	movq	%rdi, -32(%rbp)
Ltmp768:
	.loc	1 477 10 prologue_end
	leaq	l___unnamed_102(%rip), %rcx
	movq	%rcx, -24(%rbp)
Ltmp769:
	.loc	1 479 5
	movq	%rax, %rcx
	addq	$8, %rcx
	movq	%rcx, -112(%rbp)
	.loc	1 481 5
	movq	%rax, %rcx
	addq	$4, %rcx
	movq	%rcx, -104(%rbp)
	.loc	1 482 5
	movq	%rax, %rcx
	addq	$5, %rcx
	movq	%rcx, -96(%rbp)
	.loc	1 483 5
	movq	%rax, %rcx
	addq	$6, %rcx
	movq	%rcx, -88(%rbp)
	.loc	1 484 5
	movq	%rax, %rcx
	addq	$7, %rcx
	movq	%rcx, -80(%rbp)
	.loc	1 485 5
	movq	%rax, %rcx
	addq	$9, %rcx
	movq	%rcx, -72(%rbp)
	.loc	1 486 5
	movq	%rax, %rcx
	addq	$10, %rcx
	movq	%rcx, -64(%rbp)
	.loc	1 489 5
	movq	%rax, -56(%rbp)
	.loc	1 490 5
	addq	$11, %rax
	movq	%rax, -48(%rbp)
	.loc	1 477 10
	leaq	-112(%rbp), %rax
	movq	%rax, -256(%rbp)
	leaq	l___unnamed_4(%rip), %rax
	movq	%rax, -248(%rbp)
	leaq	-104(%rbp), %rax
	movq	%rax, -240(%rbp)
	leaq	l___unnamed_3(%rip), %rax
	movq	%rax, -232(%rbp)
	leaq	-96(%rbp), %rax
	movq	%rax, -224(%rbp)
	leaq	l___unnamed_3(%rip), %rax
	movq	%rax, -216(%rbp)
	leaq	-88(%rbp), %rax
	movq	%rax, -208(%rbp)
	leaq	l___unnamed_3(%rip), %rax
	movq	%rax, -200(%rbp)
	leaq	-80(%rbp), %rax
	movq	%rax, -192(%rbp)
	leaq	l___unnamed_3(%rip), %rax
	movq	%rax, -184(%rbp)
	leaq	-72(%rbp), %rax
	movq	%rax, -176(%rbp)
	leaq	l___unnamed_4(%rip), %rax
	movq	%rax, -168(%rbp)
	leaq	-64(%rbp), %rax
	movq	%rax, -160(%rbp)
	leaq	l___unnamed_4(%rip), %rax
	movq	%rax, -152(%rbp)
	leaq	-56(%rbp), %rax
	movq	%rax, -144(%rbp)
	leaq	l___unnamed_21(%rip), %rax
	movq	%rax, -136(%rbp)
	leaq	-48(%rbp), %rax
	movq	%rax, -128(%rbp)
	leaq	l___unnamed_4(%rip), %rax
	movq	%rax, -120(%rbp)
	leaq	-256(%rbp), %rax
	movq	%rax, -16(%rbp)
	movq	$9, -8(%rbp)
Ltmp770:
	.loc	1 477 10 is_stmt 0
	leaq	l___unnamed_103(%rip), %rsi
	movl	$11, %edx
	leaq	l___unnamed_102(%rip), %rcx
	movl	$9, %r8d
	leaq	-256(%rbp), %r9
	movq	$9, (%rsp)
	callq	__ZN4core3fmt9Formatter26debug_struct_fields_finish17h38686f605fad985dE
Ltmp771:
	.loc	1 477 15
	andb	$1, %al
	movzbl	%al, %eax
	addq	$272, %rsp
	popq	%rbp
	retq
Ltmp772:
Lfunc_end145:
	.cfi_endproc

	.globl	__ZN68_$LT$glutin..PixelFormatRequirements$u20$as$u20$core..fmt..Debug$GT$3fmt17h6f25f3b920d30558E
	.p2align	4, 0x90
__ZN68_$LT$glutin..PixelFormatRequirements$u20$as$u20$core..fmt..Debug$GT$3fmt17h6f25f3b920d30558E:
Lfunc_begin146:
	.loc	1 495 0 is_stmt 1
	.cfi_startproc
	pushq	%rbp
	.cfi_def_cfa_offset 16
	.cfi_offset %rbp, -16
	movq	%rsp, %rbp
	.cfi_def_cfa_register %rbp
	subq	$352, %rsp
	movq	%rsi, -336(%rbp)
	movq	%rdi, %rax
	movq	-336(%rbp), %rdi
	movq	%rax, -40(%rbp)
	movq	%rdi, -32(%rbp)
Ltmp773:
	.loc	1 495 17 prologue_end
	leaq	l___unnamed_104(%rip), %rcx
	movq	%rcx, -24(%rbp)
Ltmp774:
	.loc	1 500 5
	movq	%rax, %rcx
	addq	$28, %rcx
	movq	%rcx, -136(%rbp)
	.loc	1 504 5
	movq	%rax, %rcx
	addq	$20, %rcx
	movq	%rcx, -128(%rbp)
	.loc	1 511 5
	movq	%rax, %rcx
	addq	$30, %rcx
	movq	%rcx, -120(%rbp)
	.loc	1 515 5
	movq	%rax, %rcx
	addq	$22, %rcx
	movq	%rcx, -112(%rbp)
	.loc	1 519 5
	movq	%rax, %rcx
	addq	$24, %rcx
	movq	%rcx, -104(%rbp)
	.loc	1 523 5
	movq	%rax, %rcx
	addq	$26, %rcx
	movq	%rcx, -96(%rbp)
	.loc	1 528 5
	movq	%rax, %rcx
	addq	$29, %rcx
	movq	%rcx, -88(%rbp)
	.loc	1 533 5
	movq	%rax, %rcx
	addq	$16, %rcx
	movq	%rcx, -80(%rbp)
	.loc	1 537 5
	movq	%rax, %rcx
	addq	$31, %rcx
	movq	%rcx, -72(%rbp)
	.loc	1 541 5
	movq	%rax, %rcx
	addq	$32, %rcx
	movq	%rcx, -64(%rbp)
	.loc	1 544 5
	movq	%rax, %rcx
	addq	$33, %rcx
	movq	%rcx, -56(%rbp)
	.loc	1 549 5
	movq	%rax, -48(%rbp)
	.loc	1 495 17
	leaq	-136(%rbp), %rax
	movq	%rax, -328(%rbp)
	leaq	l___unnamed_22(%rip), %rax
	movq	%rax, -320(%rbp)
	leaq	-128(%rbp), %rax
	movq	%rax, -312(%rbp)
	leaq	l___unnamed_23(%rip), %rax
	movq	%rax, -304(%rbp)
	leaq	-120(%rbp), %rax
	movq	%rax, -296(%rbp)
	leaq	l___unnamed_4(%rip), %rax
	movq	%rax, -288(%rbp)
	leaq	-112(%rbp), %rax
	movq	%rax, -280(%rbp)
	leaq	l___unnamed_23(%rip), %rax
	movq	%rax, -272(%rbp)
	leaq	-104(%rbp), %rax
	movq	%rax, -264(%rbp)
	leaq	l___unnamed_23(%rip), %rax
	movq	%rax, -256(%rbp)
	leaq	-96(%rbp), %rax
	movq	%rax, -248(%rbp)
	leaq	l___unnamed_23(%rip), %rax
	movq	%rax, -240(%rbp)
	leaq	-88(%rbp), %rax
	movq	%rax, -232(%rbp)
	leaq	l___unnamed_22(%rip), %rax
	movq	%rax, -224(%rbp)
	leaq	-80(%rbp), %rax
	movq	%rax, -216(%rbp)
	leaq	l___unnamed_21(%rip), %rax
	movq	%rax, -208(%rbp)
	leaq	-72(%rbp), %rax
	movq	%rax, -200(%rbp)
	leaq	l___unnamed_4(%rip), %rax
	movq	%rax, -192(%rbp)
	leaq	-64(%rbp), %rax
	movq	%rax, -184(%rbp)
	leaq	l___unnamed_4(%rip), %rax
	movq	%rax, -176(%rbp)
	leaq	-56(%rbp), %rax
	movq	%rax, -168(%rbp)
	leaq	l___unnamed_24(%rip), %rax
	movq	%rax, -160(%rbp)
	leaq	-48(%rbp), %rax
	movq	%rax, -152(%rbp)
	leaq	l___unnamed_25(%rip), %rax
	movq	%rax, -144(%rbp)
	leaq	-328(%rbp), %rax
	movq	%rax, -16(%rbp)
	movq	$12, -8(%rbp)
Ltmp775:
	.loc	1 495 17 is_stmt 0
	leaq	l___unnamed_105(%rip), %rsi
	movl	$23, %edx
	leaq	l___unnamed_104(%rip), %rcx
	movl	$12, %r8d
	leaq	-328(%rbp), %r9
	movq	$12, (%rsp)
	callq	__ZN4core3fmt9Formatter26debug_struct_fields_finish17h38686f605fad985dE
Ltmp776:
	.loc	1 495 22
	andb	$1, %al
	movzbl	%al, %eax
	addq	$352, %rsp
	popq	%rbp
	retq
Ltmp777:
Lfunc_end146:
	.cfi_endproc

	.globl	__ZN49_$LT$glutin..Rect$u20$as$u20$core..fmt..Debug$GT$3fmt17hdf44de748c303f89E
	.p2align	4, 0x90
__ZN49_$LT$glutin..Rect$u20$as$u20$core..fmt..Debug$GT$3fmt17hdf44de748c303f89E:
Lfunc_begin147:
	.loc	1 658 0 is_stmt 1
	.cfi_startproc
	pushq	%rbp
	.cfi_def_cfa_offset 16
	.cfi_offset %rbp, -16
	movq	%rsp, %rbp
	.cfi_def_cfa_register %rbp
	pushq	%r15
	pushq	%r14
	pushq	%r12
	pushq	%rbx
	subq	$160, %rsp
	.cfi_offset %rbx, -48
	.cfi_offset %r12, -40
	.cfi_offset %r14, -32
	.cfi_offset %r15, -24
	movq	%rsi, -88(%rbp)
	movq	%rdi, %rax
	movq	-88(%rbp), %rdi
	movq	%rax, -48(%rbp)
	movq	%rdi, -40(%rbp)
Ltmp778:
	.loc	1 660 5 prologue_end
	movq	%rax, -80(%rbp)
	.loc	1 661 5
	movq	%rax, %rcx
	addq	$4, %rcx
	movq	%rcx, -72(%rbp)
	.loc	1 662 5
	movq	%rax, %rcx
	addq	$8, %rcx
	movq	%rcx, -64(%rbp)
	.loc	1 663 5
	addq	$12, %rax
	movq	%rax, -56(%rbp)
	.loc	1 658 10
	leaq	L___unnamed_106(%rip), %rsi
	movl	$4, %edx
	leaq	l___unnamed_107(%rip), %rcx
	movl	$1, %r8d
	leaq	-80(%rbp), %r9
	leaq	l___unnamed_26(%rip), %rax
	leaq	l___unnamed_108(%rip), %r12
	leaq	-72(%rbp), %r15
	leaq	l___unnamed_109(%rip), %r14
	leaq	-64(%rbp), %rbx
	leaq	l___unnamed_110(%rip), %r11
	leaq	-56(%rbp), %r10
	movq	%rax, (%rsp)
	movq	%r12, 8(%rsp)
	movq	$1, 16(%rsp)
	movq	%r15, 24(%rsp)
	movq	%rax, 32(%rsp)
	movq	%r14, 40(%rsp)
	movq	$5, 48(%rsp)
	movq	%rbx, 56(%rsp)
	movq	%rax, 64(%rsp)
	movq	%r11, 72(%rsp)
	movq	$6, 80(%rsp)
	movq	%r10, 88(%rsp)
	movq	%rax, 96(%rsp)
	callq	__ZN4core3fmt9Formatter26debug_struct_field4_finish17hc95557e28eae37d1E
	.loc	1 658 15 is_stmt 0
	andb	$1, %al
	movzbl	%al, %eax
	addq	$160, %rsp
	popq	%rbx
	popq	%r12
	popq	%r14
	popq	%r15
	popq	%rbp
	retq
Ltmp779:
Lfunc_end147:
	.cfi_endproc

	.section	__TEXT,__const
l___unnamed_27:
	.ascii	"()"

l___unnamed_28:
	.ascii	"*mut ()"

	.section	__DATA,__const
	.p2align	3
l___unnamed_1:
	.quad	__ZN4core3ptr71drop_in_place$LT$$RF$alloc..boxed..Box$LT$glutin..CreationError$GT$$GT$17haa400434b253ed07E
	.asciz	"\b\000\000\000\000\000\000\000\b\000\000\000\000\000\000"
	.quad	__ZN42_$LT$$RF$T$u20$as$u20$core..fmt..Debug$GT$3fmt17hfc6f28a0cca04eceE

	.section	__TEXT,__const
l___unnamed_111:
	.ascii	"invalid args"

	.section	__DATA,__const
	.p2align	3
l___unnamed_29:
	.quad	l___unnamed_111
	.asciz	"\f\000\000\000\000\000\000"

	.section	__TEXT,__const
	.p2align	3
l___unnamed_30:
	.byte	0

l___unnamed_112:
	.ascii	"/rustc/2c8cc343237b8f7d5a3c3703e3a87f2eb2c54a74/library/core/src/fmt/mod.rs"

	.section	__DATA,__const
	.p2align	3
l___unnamed_31:
	.quad	l___unnamed_112
	.asciz	"K\000\000\000\000\000\000\000\221\001\000\000\r\000\000"

	.section	__TEXT,__const
l___unnamed_32:
	.ascii	"description() is deprecated; use Display"

l___unnamed_33:
	.ascii	"called `Result::unwrap()` on an `Err` value"

	.section	__DATA,__const
	.p2align	3
l___unnamed_2:
	.quad	__ZN4core3ptr29drop_in_place$LT$$LP$$RP$$GT$17hf29f51db98c1ee17E
	.asciz	"\000\000\000\000\000\000\000\000\001\000\000\000\000\000\000"
	.quad	__ZN45_$LT$$LP$$RP$$u20$as$u20$core..fmt..Debug$GT$3fmt17h267963d8d3d98ad4E

	.p2align	3
l___unnamed_3:
	.quad	__ZN4core3ptr27drop_in_place$LT$$RF$u8$GT$17h99705d361aa5cfd7E
	.asciz	"\b\000\000\000\000\000\000\000\b\000\000\000\000\000\000"
	.quad	__ZN42_$LT$$RF$T$u20$as$u20$core..fmt..Debug$GT$3fmt17hba22263060c467eeE

	.section	__TEXT,__literal4,4byte_literals
L___unnamed_35:
	.ascii	"Some"

	.section	__DATA,__const
	.p2align	3
l___unnamed_4:
	.quad	__ZN4core3ptr29drop_in_place$LT$$RF$bool$GT$17h2c0915bd88cc8dbeE
	.asciz	"\b\000\000\000\000\000\000\000\b\000\000\000\000\000\000"
	.quad	__ZN42_$LT$$RF$T$u20$as$u20$core..fmt..Debug$GT$3fmt17h31f42f14d7e6783cE

	.section	__TEXT,__literal4,4byte_literals
L___unnamed_34:
	.ascii	"None"

	.section	__DATA,__const
	.p2align	3
l___unnamed_5:
	.quad	__ZN4core3ptr28drop_in_place$LT$$RF$u64$GT$17he50fb4ab4fde6c59E
	.asciz	"\b\000\000\000\000\000\000\000\b\000\000\000\000\000\000"
	.quad	__ZN42_$LT$$RF$T$u20$as$u20$core..fmt..Debug$GT$3fmt17hf3203c6cc08192f0E

	.p2align	3
l___unnamed_6:
	.quad	__ZN4core3ptr28drop_in_place$LT$$RF$u16$GT$17h541e5ac04284e0e9E
	.asciz	"\b\000\000\000\000\000\000\000\b\000\000\000\000\000\000"
	.quad	__ZN42_$LT$$RF$T$u20$as$u20$core..fmt..Debug$GT$3fmt17h259f4ed52a0b170bE

	.section	__TEXT,__const
l___unnamed_36:
	.ascii	"value out of range"

l___unnamed_113:
	.ascii	"/Users/natalie/.cargo/registry/src/github.com-1ecc6299db9ec823/core-foundation-0.9.3/src/base.rs"

	.section	__DATA,__const
	.p2align	3
l___unnamed_37:
	.quad	l___unnamed_113
	.asciz	"`\000\000\000\000\000\000\000\"\000\000\000\r\000\000"

	.section	__TEXT,__const
l___unnamed_114:
	.ascii	"PhantomData<"

l___unnamed_115:
	.byte	62

	.section	__DATA,__const
	.p2align	3
l___unnamed_38:
	.quad	l___unnamed_114
	.asciz	"\f\000\000\000\000\000\000"
	.quad	l___unnamed_115
	.asciz	"\001\000\000\000\000\000\000"

	.section	__TEXT,__const
l___unnamed_39:
	.ascii	"Attempted to create a NULL object."

l___unnamed_116:
	.ascii	"/Users/natalie/.cargo/registry/src/github.com-1ecc6299db9ec823/core-foundation-0.9.3/src/string.rs"

	.section	__DATA,__const
	.p2align	3
l___unnamed_40:
	.quad	l___unnamed_116
	.asciz	"b\000\000\000\000\000\000\000\035\000\000\000\001\000\000"

	.section	__TEXT,__const
l___unnamed_117:
	.ascii	"/Users/natalie/.cargo/registry/src/github.com-1ecc6299db9ec823/glutin-0.29.1/src/platform_impl/macos/helpers.rs"

	.section	__DATA,__const
	.p2align	3
l___unnamed_41:
	.quad	l___unnamed_117
	.asciz	"o\000\000\000\000\000\000\000R\000\000\000\027\000\000"

	.section	__TEXT,__const
	.p2align	4
_str.0:
	.ascii	"attempt to add with overflow"

l___unnamed_42:
	.space	1

l___unnamed_43:
	.byte	1

l___unnamed_44:
	.ascii	"not implemented"

	.section	__DATA,__const
	.p2align	3
l___unnamed_45:
	.quad	l___unnamed_117
	.asciz	"o\000\000\000\000\000\000\000s\000\000\000\t\000\000"

	.section	__TEXT,__const
l___unnamed_46:
	.ascii	"internal error: entered unreachable code"

l___unnamed_118:
	.ascii	"/Users/natalie/.cargo/registry/src/github.com-1ecc6299db9ec823/glutin-0.29.1/src/platform_impl/macos/mod.rs"

	.section	__DATA,__const
	.p2align	3
l___unnamed_47:
	.quad	l___unnamed_118
	.asciz	"k\000\000\000\000\000\000\000\264\000\000\000\022\000\000"

	.p2align	3
l___unnamed_48:
	.quad	l___unnamed_118
	.asciz	"k\000\000\000\000\000\000\000\356\000\000\000=\000\000"

	.section	__TEXT,__literal16,16byte_literals
L___unnamed_49:
	.ascii	"com.apple.opengl"

	.section	__DATA,__const
	.p2align	3
l___unnamed_50:
	.quad	l___unnamed_118
	.asciz	"k\000\000\000\000\000\000\000\357\000\000\000N\000\000"

	.section	__TEXT,__literal8,8byte_literals
L___unnamed_51:
	.asciz	"release"

	.section	__DATA,__const
	.p2align	3
l___unnamed_52:
	.quad	l___unnamed_118
	.asciz	"k\000\000\000\000\000\000\000P\001\000\000\"\000\000"

	.section	__TEXT,__const
l___unnamed_53:
	.asciz	"retain"

	.section	__DATA,__const
	.p2align	3
l___unnamed_54:
	.quad	l___unnamed_118
	.asciz	"k\000\000\000\000\000\000\000_\001\000\000\"\000\000"

	.section	__TEXT,__const
l___unnamed_119:
	.ascii	"Received multiple errors:\n"

	.section	__DATA,__const
	.p2align	3
l___unnamed_60:
	.quad	l___unnamed_119
	.asciz	"\032\000\000\000\000\000\000"

	.section	__TEXT,__const
l___unnamed_120:
	.ascii	"/Users/natalie/.cargo/registry/src/github.com-1ecc6299db9ec823/glutin-0.29.1/src/lib.rs"

	.section	__DATA,__const
	.p2align	3
l___unnamed_61:
	.quad	l___unnamed_120
	.asciz	"W\000\000\000\000\000\000\000;\001\000\000\021\000\000"

	.section	__TEXT,__const
l___unnamed_121:
	.byte	9

l___unnamed_122:
	.byte	10

	.section	__DATA,__const
	.p2align	3
l___unnamed_62:
	.quad	l___unnamed_121
	.asciz	"\001\000\000\000\000\000\000"
	.quad	l___unnamed_122
	.asciz	"\001\000\000\000\000\000\000"

	.p2align	3
l___unnamed_63:
	.quad	l___unnamed_120
	.asciz	"W\000\000\000\000\000\000\000=\001\000\000\025\000\000"

	.p2align	3
l___unnamed_59:
	.quad	l___unnamed_30
	.space	8

	.section	__TEXT,__const
l___unnamed_58:
	.ascii	"Couldn't find any pixel format that matches the criteria."

l___unnamed_57:
	.ascii	"The requested OpenGL version is not supported."

l___unnamed_56:
	.ascii	"You requested robustness, but it is not supported."

l___unnamed_123:
	.ascii	"No backend is available: "

	.section	__DATA,__const
	.p2align	3
l___unnamed_55:
	.quad	l___unnamed_123
	.asciz	"\031\000\000\000\000\000\000"

	.p2align	3
l___unnamed_124:
	.quad	__ZN4core3ptr42drop_in_place$LT$winit..error..OsError$GT$17h6d5aa432dcd97bb2E
	.asciz	"(\000\000\000\000\000\000\000\b\000\000\000\000\000\000"
	.quad	__ZN60_$LT$winit..error..OsError$u20$as$u20$core..fmt..Display$GT$3fmt17haf9a6d4ddabcccc5E

	.p2align	3
l___unnamed_7:
	.quad	__ZN4core3ptr42drop_in_place$LT$winit..error..OsError$GT$17h6d5aa432dcd97bb2E
	.asciz	"(\000\000\000\000\000\000\000\b\000\000\000\000\000\000"
	.quad	__ZN58_$LT$winit..error..OsError$u20$as$u20$core..fmt..Debug$GT$3fmt17h2d2bc25c268f4bc9E
	.quad	__ZN60_$LT$winit..error..OsError$u20$as$u20$core..fmt..Display$GT$3fmt17haf9a6d4ddabcccc5E
	.quad	l___unnamed_124
	.quad	__ZN4core5error5Error6source17h15d972fcb0f66ef1E
	.quad	__ZN4core5error5Error7type_id17hb81d80f84c10a438E
	.quad	__ZN4core5error5Error11description17hbc5a9bb8e616bc32E
	.quad	__ZN4core5error5Error5cause17hb85dc302c4e1fb0fE
	.quad	__ZN4core5error5Error7provide17hb3d2c5627c51d91bE

	.section	__TEXT,__const
l___unnamed_125:
	.ascii	"Function unavailable"

	.section	__DATA,__const
	.p2align	3
l___unnamed_65:
	.quad	l___unnamed_125
	.asciz	"\024\000\000\000\000\000\000"

	.section	__TEXT,__const
l___unnamed_126:
	.ascii	"Context lost"

	.section	__DATA,__const
	.p2align	3
l___unnamed_64:
	.quad	l___unnamed_126
	.asciz	"\f\000\000\000\000\000\000"

	.section	__TEXT,__const
	.globl	__ZN6glutin7GL_CORE17h64c180b94a891b8bE
__ZN6glutin7GL_CORE17h64c180b94a891b8bE:
	.ascii	"\001\000\003\002"
	.space	1

l___unnamed_66:
	.ascii	"PossiblyCurrent"

l___unnamed_67:
	.ascii	"phantom"

	.section	__DATA,__const
	.p2align	3
l___unnamed_8:
	.quad	__ZN4core3ptr78drop_in_place$LT$$RF$core..marker..PhantomData$LT$$BP$mut$u20$$LP$$RP$$GT$$GT$17hb88d7746e34a15aaE
	.asciz	"\b\000\000\000\000\000\000\000\b\000\000\000\000\000\000"
	.quad	__ZN42_$LT$$RF$T$u20$as$u20$core..fmt..Debug$GT$3fmt17h5b5154a6ceab5b2dE

	.globl	__ZN6glutin13platform_impl8platform7helpers14get_gl_profile12register_sel3SEL17h6c6ed8a59aa2052aE
.zerofill __DATA,__common,__ZN6glutin13platform_impl8platform7helpers14get_gl_profile12register_sel3SEL17h6c6ed8a59aa2052aE,8,3
	.section	__TEXT,__const
l___unnamed_69:
	.ascii	"HeadlessContext"

	.section	__DATA,__const
	.p2align	3
l___unnamed_9:
	.quad	__ZN4core3ptr73drop_in_place$LT$$RF$glutin..platform_impl..platform..HeadlessContext$GT$17hfd3417b33379d952E
	.asciz	"\b\000\000\000\000\000\000\000\b\000\000\000\000\000\000"
	.quad	__ZN42_$LT$$RF$T$u20$as$u20$core..fmt..Debug$GT$3fmt17h246c9e6f34d215f4E

	.section	__TEXT,__const
l___unnamed_68:
	.ascii	"WindowedContext"

	.section	__DATA,__const
	.p2align	3
l___unnamed_10:
	.quad	__ZN4core3ptr73drop_in_place$LT$$RF$glutin..platform_impl..platform..WindowedContext$GT$17h983afc40ea6aaef3E
	.asciz	"\b\000\000\000\000\000\000\000\b\000\000\000\000\000\000"
	.quad	__ZN42_$LT$$RF$T$u20$as$u20$core..fmt..Debug$GT$3fmt17h3d88814e450f48f3E

	.section	__TEXT,__const
l___unnamed_70:
	.ascii	"context"

	.section	__DATA,__const
	.p2align	3
l___unnamed_11:
	.quad	__ZN4core3ptr63drop_in_place$LT$$RF$glutin..platform_impl..platform..IdRef$GT$17h4acce873a8a8b577E
	.asciz	"\b\000\000\000\000\000\000\000\b\000\000\000\000\000\000"
	.quad	__ZN42_$LT$$RF$T$u20$as$u20$core..fmt..Debug$GT$3fmt17hbe6fef20b6bfcda4E

	.section	__TEXT,__const
l___unnamed_71:
	.ascii	"pixel_format"

	.section	__DATA,__const
	.p2align	3
l___unnamed_12:
	.quad	__ZN4core3ptr44drop_in_place$LT$$RF$glutin..PixelFormat$GT$17hb5b5bf1778df8eb6E
	.asciz	"\b\000\000\000\000\000\000\000\b\000\000\000\000\000\000"
	.quad	__ZN42_$LT$$RF$T$u20$as$u20$core..fmt..Debug$GT$3fmt17hb90d98f195428cebE

	.globl	__ZN6glutin13platform_impl8platform7Context12make_current12register_sel3SEL17h00b1762e082b18efE
.zerofill __DATA,__common,__ZN6glutin13platform_impl8platform7Context12make_current12register_sel3SEL17h00b1762e082b18efE,8,3
	.globl	__ZN6glutin13platform_impl8platform7Context12make_current12register_sel3SEL17he7cc45aeec614c83E
.zerofill __DATA,__common,__ZN6glutin13platform_impl8platform7Context12make_current12register_sel3SEL17he7cc45aeec614c83E,8,3
	.globl	__ZN6glutin13platform_impl8platform7Context16make_not_current12register_sel3SEL17hbdaf6736c9b1d331E
.zerofill __DATA,__common,__ZN6glutin13platform_impl8platform7Context16make_not_current12register_sel3SEL17hbdaf6736c9b1d331E,8,3
	.globl	__ZN6glutin13platform_impl8platform7Context16make_not_current12register_sel3SEL17hbac23994d50ecfd1E
.zerofill __DATA,__common,__ZN6glutin13platform_impl8platform7Context16make_not_current12register_sel3SEL17hbac23994d50ecfd1E,8,3
	.globl	__ZN6glutin13platform_impl8platform7Context10is_current12register_sel3SEL17h12a8594604c6402bE
.zerofill __DATA,__common,__ZN6glutin13platform_impl8platform7Context10is_current12register_sel3SEL17h12a8594604c6402bE,8,3
	.globl	__ZN6glutin13platform_impl8platform7Context10is_current12register_sel3SEL17h71051c5792d16f70E
.zerofill __DATA,__common,__ZN6glutin13platform_impl8platform7Context10is_current12register_sel3SEL17h71051c5792d16f70E,8,3
	.globl	__ZN6glutin13platform_impl8platform7Context12swap_buffers12register_sel3SEL17h1d254574e400e251E
.zerofill __DATA,__common,__ZN6glutin13platform_impl8platform7Context12swap_buffers12register_sel3SEL17h1d254574e400e251E,8,3
	.section	__TEXT,__const
l___unnamed_72:
	.ascii	"IdRef"

	.section	__DATA,__const
	.p2align	3
l___unnamed_13:
	.quad	__ZN4core3ptr58drop_in_place$LT$$RF$$BP$mut$u20$objc..runtime..Object$GT$17hbefacfffd28a0481E
	.asciz	"\b\000\000\000\000\000\000\000\b\000\000\000\000\000\000"
	.quad	__ZN42_$LT$$RF$T$u20$as$u20$core..fmt..Debug$GT$3fmt17h49a82a9256365c6bE

.zerofill __DATA,__bss,__ZN6glutin13platform_impl8platform5IdRef6retain12register_sel3SEL17h28d697a37738ac28E,8,3
.zerofill __DATA,__bss,__ZN80_$LT$glutin..platform_impl..platform..IdRef$u20$as$u20$core..ops..drop..Drop$GT$4drop12register_sel3SEL17hfbb70e4127427179E,8,3
.zerofill __DATA,__bss,__ZN77_$LT$glutin..platform_impl..platform..IdRef$u20$as$u20$core..clone..Clone$GT$5clone12register_sel3SEL17h331f1bdd9095ffb4E,8,3
	.section	__TEXT,__const
l___unnamed_81:
	.ascii	"CreationErrors"

	.section	__DATA,__const
	.p2align	3
l___unnamed_14:
	.quad	__ZN4core3ptr94drop_in_place$LT$$RF$alloc..vec..Vec$LT$alloc..boxed..Box$LT$glutin..CreationError$GT$$GT$$GT$17hdf3f2272d8b057c9E
	.asciz	"\b\000\000\000\000\000\000\000\b\000\000\000\000\000\000"
	.quad	__ZN42_$LT$$RF$T$u20$as$u20$core..fmt..Debug$GT$3fmt17he3147194541f84d2E

	.section	__TEXT,__const
l___unnamed_80:
	.ascii	"Window"

	.section	__DATA,__const
	.p2align	3
l___unnamed_15:
	.quad	__ZN4core3ptr46drop_in_place$LT$$RF$winit..error..OsError$GT$17h2919347b065e4e62E
	.asciz	"\b\000\000\000\000\000\000\000\b\000\000\000\000\000\000"
	.quad	__ZN42_$LT$$RF$T$u20$as$u20$core..fmt..Debug$GT$3fmt17h36fefc71c55f6a7dE

	.section	__TEXT,__literal16,16byte_literals
L___unnamed_79:
	.ascii	"PlatformSpecific"

	.section	__DATA,__const
	.p2align	3
l___unnamed_16:
	.quad	__ZN4core3ptr46drop_in_place$LT$$RF$alloc..string..String$GT$17ha19d2d53739f93faE
	.asciz	"\b\000\000\000\000\000\000\000\b\000\000\000\000\000\000"
	.quad	__ZN42_$LT$$RF$T$u20$as$u20$core..fmt..Debug$GT$3fmt17h8aa3a606c27065dcE

	.section	__TEXT,__const
l___unnamed_78:
	.ascii	"NoAvailablePixelFormat"

l___unnamed_77:
	.ascii	"OpenGlVersionNotSupported"

l___unnamed_76:
	.ascii	"RobustnessNotSupported"

l___unnamed_75:
	.ascii	"NoBackendAvailable"

	.section	__DATA,__const
	.p2align	3
l___unnamed_17:
	.quad	__ZN4core3ptr122drop_in_place$LT$$RF$alloc..boxed..Box$LT$dyn$u20$core..error..Error$u2b$core..marker..Send$u2b$core..marker..Sync$GT$$GT$17h59363efaac3e332eE
	.asciz	"\b\000\000\000\000\000\000\000\b\000\000\000\000\000\000"
	.quad	__ZN42_$LT$$RF$T$u20$as$u20$core..fmt..Debug$GT$3fmt17ha2f9fdf748287f93E

	.section	__TEXT,__const
l___unnamed_74:
	.ascii	"NotSupported"

l___unnamed_73:
	.ascii	"OsError"

l___unnamed_84:
	.ascii	"FunctionUnavailable"

l___unnamed_83:
	.ascii	"ContextLost"

l___unnamed_82:
	.ascii	"IoError"

	.section	__DATA,__const
	.p2align	3
l___unnamed_18:
	.quad	__ZN4core3ptr46drop_in_place$LT$$RF$std..io..error..Error$GT$17h789049ba652a6ee7E
	.asciz	"\b\000\000\000\000\000\000\000\b\000\000\000\000\000\000"
	.quad	__ZN42_$LT$$RF$T$u20$as$u20$core..fmt..Debug$GT$3fmt17h62105647065f6dd0E

	.section	__TEXT,__const
l___unnamed_87:
	.ascii	"WebGl"

	.section	__TEXT,__literal8,8byte_literals
L___unnamed_86:
	.ascii	"OpenGlEs"

	.section	__TEXT,__const
l___unnamed_85:
	.ascii	"OpenGl"

	.section	__TEXT,__literal4,4byte_literals
L___unnamed_89:
	.ascii	"Core"

	.section	__TEXT,__const
l___unnamed_88:
	.ascii	"Compatibility"

l___unnamed_92:
	.ascii	"GlThenGles"

l___unnamed_93:
	.ascii	"opengl_version"

	.section	__DATA,__const
	.p2align	3
l___unnamed_19:
	.quad	__ZN4core3ptr40drop_in_place$LT$$RF$$LP$u8$C$u8$RP$$GT$17hb88f8f7e9e39bcf5E
	.asciz	"\b\000\000\000\000\000\000\000\b\000\000\000\000\000\000"
	.quad	__ZN42_$LT$$RF$T$u20$as$u20$core..fmt..Debug$GT$3fmt17h1abcd52aebd41667E

	.section	__TEXT,__literal16,16byte_literals
L___unnamed_94:
	.ascii	"opengles_version"

	.section	__TEXT,__literal8,8byte_literals
L___unnamed_91:
	.ascii	"Specific"

	.section	__DATA,__const
	.p2align	3
l___unnamed_20:
	.quad	__ZN4core3ptr36drop_in_place$LT$$RF$glutin..Api$GT$17h3979bb1cc284cb2cE
	.asciz	"\b\000\000\000\000\000\000\000\b\000\000\000\000\000\000"
	.quad	__ZN42_$LT$$RF$T$u20$as$u20$core..fmt..Debug$GT$3fmt17h35a0a6d198a27398E

	.section	__TEXT,__const
l___unnamed_90:
	.ascii	"Latest"

l___unnamed_100:
	.ascii	"TryRobustLoseContextOnReset"

l___unnamed_99:
	.ascii	"RobustLoseContextOnReset"

l___unnamed_98:
	.ascii	"TryRobustNoResetNotification"

l___unnamed_97:
	.ascii	"RobustNoResetNotification"

l___unnamed_96:
	.ascii	"NoError"

l___unnamed_95:
	.ascii	"NotRobust"

l___unnamed_101:
	.ascii	"Flush"

l___unnamed_127:
	.ascii	"hardware_accelerated"

l___unnamed_128:
	.ascii	"color_bits"

l___unnamed_129:
	.ascii	"alpha_bits"

l___unnamed_130:
	.ascii	"depth_bits"

l___unnamed_131:
	.ascii	"stencil_bits"

l___unnamed_132:
	.ascii	"stereoscopy"

l___unnamed_133:
	.ascii	"double_buffer"

l___unnamed_134:
	.ascii	"multisampling"

	.section	__TEXT,__literal4,4byte_literals
L___unnamed_135:
	.ascii	"srgb"

	.section	__DATA,__const
	.p2align	3
l___unnamed_102:
	.quad	l___unnamed_127
	.asciz	"\024\000\000\000\000\000\000"
	.quad	l___unnamed_128
	.asciz	"\n\000\000\000\000\000\000"
	.quad	l___unnamed_129
	.asciz	"\n\000\000\000\000\000\000"
	.quad	l___unnamed_130
	.asciz	"\n\000\000\000\000\000\000"
	.quad	l___unnamed_131
	.asciz	"\f\000\000\000\000\000\000"
	.quad	l___unnamed_132
	.asciz	"\013\000\000\000\000\000\000"
	.quad	l___unnamed_133
	.asciz	"\r\000\000\000\000\000\000"
	.quad	l___unnamed_134
	.asciz	"\r\000\000\000\000\000\000"
	.quad	L___unnamed_135
	.asciz	"\004\000\000\000\000\000\000"

	.p2align	3
l___unnamed_21:
	.quad	__ZN4core3ptr56drop_in_place$LT$$RF$core..option..Option$LT$u16$GT$$GT$17h64dad5b4b2a66d9dE
	.asciz	"\b\000\000\000\000\000\000\000\b\000\000\000\000\000\000"
	.quad	__ZN42_$LT$$RF$T$u20$as$u20$core..fmt..Debug$GT$3fmt17h74d81918ca5e73d9E

	.section	__TEXT,__const
l___unnamed_103:
	.ascii	"PixelFormat"

l___unnamed_136:
	.ascii	"float_color_buffer"

	.section	__TEXT,__literal16,16byte_literals
L___unnamed_137:
	.ascii	"release_behavior"

	.section	__TEXT,__const
l___unnamed_138:
	.ascii	"x11_visual_xid"

	.section	__DATA,__const
	.p2align	3
l___unnamed_104:
	.quad	l___unnamed_127
	.asciz	"\024\000\000\000\000\000\000"
	.quad	l___unnamed_128
	.asciz	"\n\000\000\000\000\000\000"
	.quad	l___unnamed_136
	.asciz	"\022\000\000\000\000\000\000"
	.quad	l___unnamed_129
	.asciz	"\n\000\000\000\000\000\000"
	.quad	l___unnamed_130
	.asciz	"\n\000\000\000\000\000\000"
	.quad	l___unnamed_131
	.asciz	"\f\000\000\000\000\000\000"
	.quad	l___unnamed_133
	.asciz	"\r\000\000\000\000\000\000"
	.quad	l___unnamed_134
	.asciz	"\r\000\000\000\000\000\000"
	.quad	l___unnamed_132
	.asciz	"\013\000\000\000\000\000\000"
	.quad	L___unnamed_135
	.asciz	"\004\000\000\000\000\000\000"
	.quad	L___unnamed_137
	.asciz	"\020\000\000\000\000\000\000"
	.quad	l___unnamed_138
	.asciz	"\016\000\000\000\000\000\000"

	.p2align	3
l___unnamed_22:
	.quad	__ZN4core3ptr57drop_in_place$LT$$RF$core..option..Option$LT$bool$GT$$GT$17h668cb8b8db0acce6E
	.asciz	"\b\000\000\000\000\000\000\000\b\000\000\000\000\000\000"
	.quad	__ZN42_$LT$$RF$T$u20$as$u20$core..fmt..Debug$GT$3fmt17hbb23343e0ee268abE

	.p2align	3
l___unnamed_23:
	.quad	__ZN4core3ptr55drop_in_place$LT$$RF$core..option..Option$LT$u8$GT$$GT$17he9a959cc2079863fE
	.asciz	"\b\000\000\000\000\000\000\000\b\000\000\000\000\000\000"
	.quad	__ZN42_$LT$$RF$T$u20$as$u20$core..fmt..Debug$GT$3fmt17hd2e8e1105c35a6e2E

	.p2align	3
l___unnamed_24:
	.quad	__ZN4core3ptr48drop_in_place$LT$$RF$glutin..ReleaseBehavior$GT$17h9e11c17d5dd8da06E
	.asciz	"\b\000\000\000\000\000\000\000\b\000\000\000\000\000\000"
	.quad	__ZN42_$LT$$RF$T$u20$as$u20$core..fmt..Debug$GT$3fmt17hb844afe3c4706da5E

	.p2align	3
l___unnamed_25:
	.quad	__ZN4core3ptr56drop_in_place$LT$$RF$core..option..Option$LT$u64$GT$$GT$17hc1d9ca5a14ba9a12E
	.asciz	"\b\000\000\000\000\000\000\000\b\000\000\000\000\000\000"
	.quad	__ZN42_$LT$$RF$T$u20$as$u20$core..fmt..Debug$GT$3fmt17h646df716b97f0973E

	.section	__TEXT,__const
l___unnamed_105:
	.ascii	"PixelFormatRequirements"

	.section	__TEXT,__literal4,4byte_literals
L___unnamed_106:
	.ascii	"Rect"

	.section	__TEXT,__const
l___unnamed_107:
	.byte	120

	.section	__DATA,__const
	.p2align	3
l___unnamed_26:
	.quad	__ZN4core3ptr28drop_in_place$LT$$RF$u32$GT$17h33b134b8c453e2ffE
	.asciz	"\b\000\000\000\000\000\000\000\b\000\000\000\000\000\000"
	.quad	__ZN42_$LT$$RF$T$u20$as$u20$core..fmt..Debug$GT$3fmt17hf3f9ae5ad72ab25eE

	.section	__TEXT,__const
l___unnamed_108:
	.byte	121

l___unnamed_109:
	.ascii	"width"

l___unnamed_110:
	.ascii	"height"

	.section	__DATA,__const
Lsec_end0:
	.section	__TEXT,__const
Lsec_end1:
	.section	__DATA,__common,zerofill
Lsec_end2:
	.section	__DATA,__bss,zerofill
Lsec_end3:
	.section	__TEXT,__text,regular,pure_instructions
Lsec_end4: