	.section	__TEXT,__text,regular,pure_instructions
	.macosx_version_min 10, 7
	.globl	__ZN42_$LT$$RF$T$u20$as$u20$core..fmt..Debug$GT$3fmt17h0c63b453639759c7E
	.p2align	4, 0x90
__ZN42_$LT$$RF$T$u20$as$u20$core..fmt..Debug$GT$3fmt17h0c63b453639759c7E:
Lfunc_begin0:
	.file	1 "/rustc/2c8cc343237b8f7d5a3c3703e3a87f2eb2c54a74/library/core/src/fmt" "mod.rs"
	.loc	1 2377 0
	.cfi_startproc
	pushq	%rbp
	.cfi_def_cfa_offset 16
	.cfi_offset %rbp, -16
	movq	%rsp, %rbp
	.cfi_def_cfa_register %rbp
	subq	$16, %rsp
	movq	%rdi, -16(%rbp)
	movq	%rsi, -8(%rbp)
Ltmp0:
	.loc	1 2377 71 prologue_end
	movq	(%rdi), %rdi
	.loc	1 2377 62 is_stmt 0
	callq	__ZN4core3fmt3num50_$LT$impl$u20$core..fmt..Debug$u20$for$u20$i64$GT$3fmt17h14cea0e4bc152d70E
	.loc	1 2377 84
	andb	$1, %al
	movzbl	%al, %eax
	addq	$16, %rsp
	popq	%rbp
	retq
Ltmp1:
Lfunc_end0:
	.cfi_endproc

	.globl	__ZN42_$LT$$RF$T$u20$as$u20$core..fmt..Debug$GT$3fmt17h10767f756727928cE
	.p2align	4, 0x90
__ZN42_$LT$$RF$T$u20$as$u20$core..fmt..Debug$GT$3fmt17h10767f756727928cE:
Lfunc_begin1:
	.loc	1 2377 0 is_stmt 1
	.cfi_startproc
	pushq	%rbp
	.cfi_def_cfa_offset 16
	.cfi_offset %rbp, -16
	movq	%rsp, %rbp
	.cfi_def_cfa_register %rbp
	subq	$16, %rsp
	movq	%rdi, -16(%rbp)
	movq	%rsi, -8(%rbp)
Ltmp2:
	.loc	1 2377 71 prologue_end
	movq	(%rdi), %rdi
	.loc	1 2377 62 is_stmt 0
	callq	__ZN4core3fmt3num50_$LT$impl$u20$core..fmt..Debug$u20$for$u20$i32$GT$3fmt17h49128f77ba685853E
	.loc	1 2377 84
	andb	$1, %al
	movzbl	%al, %eax
	addq	$16, %rsp
	popq	%rbp
	retq
Ltmp3:
Lfunc_end1:
	.cfi_endproc

	.globl	__ZN42_$LT$$RF$T$u20$as$u20$core..fmt..Debug$GT$3fmt17h1416a73ff502afc5E
	.p2align	4, 0x90
__ZN42_$LT$$RF$T$u20$as$u20$core..fmt..Debug$GT$3fmt17h1416a73ff502afc5E:
Lfunc_begin2:
	.loc	1 2377 0 is_stmt 1
	.cfi_startproc
	pushq	%rbp
	.cfi_def_cfa_offset 16
	.cfi_offset %rbp, -16
	movq	%rsp, %rbp
	.cfi_def_cfa_register %rbp
	subq	$16, %rsp
	movq	%rdi, -16(%rbp)
	movq	%rsi, -8(%rbp)
Ltmp4:
	.loc	1 2377 71 prologue_end
	movq	(%rdi), %rdi
	.loc	1 2377 62 is_stmt 0
	callq	__ZN4core3ptr118_$LT$impl$u20$core..fmt..Debug$u20$for$u20$unsafe$u20$extern$u20$$u22$C$u22$$u20$fn$LP$A$C$B$RP$$u20$.$GT$$u20$Ret$GT$3fmt17h283ddf29275f5dc4E
	.loc	1 2377 84
	andb	$1, %al
	movzbl	%al, %eax
	addq	$16, %rsp
	popq	%rbp
	retq
Ltmp5:
Lfunc_end2:
	.cfi_endproc

	.globl	__ZN42_$LT$$RF$T$u20$as$u20$core..fmt..Debug$GT$3fmt17h250b851625618017E
	.p2align	4, 0x90
__ZN42_$LT$$RF$T$u20$as$u20$core..fmt..Debug$GT$3fmt17h250b851625618017E:
Lfunc_begin3:
	.loc	1 2377 0 is_stmt 1
	.cfi_startproc
	pushq	%rbp
	.cfi_def_cfa_offset 16
	.cfi_offset %rbp, -16
	movq	%rsp, %rbp
	.cfi_def_cfa_register %rbp
	subq	$16, %rsp
	movq	%rdi, -16(%rbp)
	movq	%rsi, -8(%rbp)
Ltmp6:
	.loc	1 2377 71 prologue_end
	movq	(%rdi), %rdi
	.loc	1 2377 62 is_stmt 0
	callq	__ZN61_$LT$gmp_mpfr_sys..mpc..mpc_t$u20$as$u20$core..fmt..Debug$GT$3fmt17h717978e4f7a0f1bcE
	.loc	1 2377 84
	andb	$1, %al
	movzbl	%al, %eax
	addq	$16, %rsp
	popq	%rbp
	retq
Ltmp7:
Lfunc_end3:
	.cfi_endproc

	.globl	__ZN42_$LT$$RF$T$u20$as$u20$core..fmt..Debug$GT$3fmt17h2f5608bb302648deE
	.p2align	4, 0x90
__ZN42_$LT$$RF$T$u20$as$u20$core..fmt..Debug$GT$3fmt17h2f5608bb302648deE:
Lfunc_begin4:
	.loc	1 2377 0 is_stmt 1
	.cfi_startproc
	pushq	%rbp
	.cfi_def_cfa_offset 16
	.cfi_offset %rbp, -16
	movq	%rsp, %rbp
	.cfi_def_cfa_register %rbp
	subq	$16, %rsp
	movq	%rdi, -16(%rbp)
	movq	%rsi, -8(%rbp)
Ltmp8:
	.loc	1 2377 71 prologue_end
	movq	(%rdi), %rdi
	.loc	1 2377 62 is_stmt 0
	callq	__ZN63_$LT$gmp_mpfr_sys..mpfr..mpfr_t$u20$as$u20$core..fmt..Debug$GT$3fmt17heb63ea7b5cdb107dE
	.loc	1 2377 84
	andb	$1, %al
	movzbl	%al, %eax
	addq	$16, %rsp
	popq	%rbp
	retq
Ltmp9:
Lfunc_end4:
	.cfi_endproc

	.globl	__ZN42_$LT$$RF$T$u20$as$u20$core..fmt..Debug$GT$3fmt17h3011626d70a0c1ecE
	.p2align	4, 0x90
__ZN42_$LT$$RF$T$u20$as$u20$core..fmt..Debug$GT$3fmt17h3011626d70a0c1ecE:
Lfunc_begin5:
	.loc	1 2377 0 is_stmt 1
	.cfi_startproc
	pushq	%rbp
	.cfi_def_cfa_offset 16
	.cfi_offset %rbp, -16
	movq	%rsp, %rbp
	.cfi_def_cfa_register %rbp
	subq	$16, %rsp
	movq	%rdi, -16(%rbp)
	movq	%rsi, -8(%rbp)
Ltmp10:
	.loc	1 2377 71 prologue_end
	movq	(%rdi), %rdi
	.loc	1 2377 62 is_stmt 0
	callq	__ZN4core3ptr122_$LT$impl$u20$core..fmt..Debug$u20$for$u20$unsafe$u20$extern$u20$$u22$C$u22$$u20$fn$LP$A$C$B$C$C$RP$$u20$.$GT$$u20$Ret$GT$3fmt17h83c948fd9bc620d5E
	.loc	1 2377 84
	andb	$1, %al
	movzbl	%al, %eax
	addq	$16, %rsp
	popq	%rbp
	retq
Ltmp11:
Lfunc_end5:
	.cfi_endproc

	.globl	__ZN42_$LT$$RF$T$u20$as$u20$core..fmt..Debug$GT$3fmt17h3ef4577ec035677fE
	.p2align	4, 0x90
__ZN42_$LT$$RF$T$u20$as$u20$core..fmt..Debug$GT$3fmt17h3ef4577ec035677fE:
Lfunc_begin6:
	.loc	1 2377 0 is_stmt 1
	.cfi_startproc
	pushq	%rbp
	.cfi_def_cfa_offset 16
	.cfi_offset %rbp, -16
	movq	%rsp, %rbp
	.cfi_def_cfa_register %rbp
	subq	$16, %rsp
	movq	%rsi, %rdx
	movq	%rdi, %rax
	movq	%rax, -16(%rbp)
	movq	%rdx, -8(%rbp)
Ltmp12:
	.loc	1 2377 71 prologue_end
	movq	(%rax), %rdi
	movq	8(%rax), %rsi
	.loc	1 2377 62 is_stmt 0
	callq	__ZN40_$LT$str$u20$as$u20$core..fmt..Debug$GT$3fmt17h4564f13343f2ac60E
	.loc	1 2377 84
	andb	$1, %al
	movzbl	%al, %eax
	addq	$16, %rsp
	popq	%rbp
	retq
Ltmp13:
Lfunc_end6:
	.cfi_endproc

	.globl	__ZN42_$LT$$RF$T$u20$as$u20$core..fmt..Debug$GT$3fmt17h4231db529019c085E
	.p2align	4, 0x90
__ZN42_$LT$$RF$T$u20$as$u20$core..fmt..Debug$GT$3fmt17h4231db529019c085E:
Lfunc_begin7:
	.loc	1 2377 0 is_stmt 1
	.cfi_startproc
	pushq	%rbp
	.cfi_def_cfa_offset 16
	.cfi_offset %rbp, -16
	movq	%rsp, %rbp
	.cfi_def_cfa_register %rbp
	subq	$16, %rsp
	movq	%rdi, -16(%rbp)
	movq	%rsi, -8(%rbp)
Ltmp14:
	.loc	1 2377 71 prologue_end
	movq	(%rdi), %rdi
	.loc	1 2377 62 is_stmt 0
	callq	__ZN4core3ptr114_$LT$impl$u20$core..fmt..Debug$u20$for$u20$unsafe$u20$extern$u20$$u22$C$u22$$u20$fn$LP$T$RP$$u20$.$GT$$u20$Ret$GT$3fmt17hd31f1100838fb76cE
	.loc	1 2377 84
	andb	$1, %al
	movzbl	%al, %eax
	addq	$16, %rsp
	popq	%rbp
	retq
Ltmp15:
Lfunc_end7:
	.cfi_endproc

	.globl	__ZN42_$LT$$RF$T$u20$as$u20$core..fmt..Debug$GT$3fmt17h52d5c93e5aac9fedE
	.p2align	4, 0x90
__ZN42_$LT$$RF$T$u20$as$u20$core..fmt..Debug$GT$3fmt17h52d5c93e5aac9fedE:
Lfunc_begin8:
	.loc	1 2377 0 is_stmt 1
	.cfi_startproc
	pushq	%rbp
	.cfi_def_cfa_offset 16
	.cfi_offset %rbp, -16
	movq	%rsp, %rbp
	.cfi_def_cfa_register %rbp
	subq	$16, %rsp
	movq	%rdi, -16(%rbp)
	movq	%rsi, -8(%rbp)
Ltmp16:
	.loc	1 2377 71 prologue_end
	movq	(%rdi), %rdi
	.loc	1 2377 62 is_stmt 0
	callq	__ZN61_$LT$gmp_mpfr_sys..gmp..mpz_t$u20$as$u20$core..fmt..Debug$GT$3fmt17h44d04ae2b07e589fE
	.loc	1 2377 84
	andb	$1, %al
	movzbl	%al, %eax
	addq	$16, %rsp
	popq	%rbp
	retq
Ltmp17:
Lfunc_end8:
	.cfi_endproc

	.globl	__ZN42_$LT$$RF$T$u20$as$u20$core..fmt..Debug$GT$3fmt17h98afafe710cba2feE
	.p2align	4, 0x90
__ZN42_$LT$$RF$T$u20$as$u20$core..fmt..Debug$GT$3fmt17h98afafe710cba2feE:
Lfunc_begin9:
	.loc	1 2377 0 is_stmt 1
	.cfi_startproc
	pushq	%rbp
	.cfi_def_cfa_offset 16
	.cfi_offset %rbp, -16
	movq	%rsp, %rbp
	.cfi_def_cfa_register %rbp
	subq	$16, %rsp
	movq	%rdi, -16(%rbp)
	movq	%rsi, -8(%rbp)
Ltmp18:
	.loc	1 2377 71 prologue_end
	movq	(%rdi), %rdi
	.loc	1 2377 62 is_stmt 0
	callq	__ZN74_$LT$core..ptr..non_null..NonNull$LT$T$GT$$u20$as$u20$core..fmt..Debug$GT$3fmt17h9fc807f3cffce3afE
	.loc	1 2377 84
	andb	$1, %al
	movzbl	%al, %eax
	addq	$16, %rsp
	popq	%rbp
	retq
Ltmp19:
Lfunc_end9:
	.cfi_endproc

	.globl	__ZN42_$LT$$RF$T$u20$as$u20$core..fmt..Debug$GT$3fmt17ha2fc85956b226413E
	.p2align	4, 0x90
__ZN42_$LT$$RF$T$u20$as$u20$core..fmt..Debug$GT$3fmt17ha2fc85956b226413E:
Lfunc_begin10:
	.loc	1 2377 0 is_stmt 1
	.cfi_startproc
	pushq	%rbp
	.cfi_def_cfa_offset 16
	.cfi_offset %rbp, -16
	movq	%rsp, %rbp
	.cfi_def_cfa_register %rbp
	subq	$16, %rsp
	movq	%rdi, -16(%rbp)
	movq	%rsi, -8(%rbp)
Ltmp20:
	.loc	1 2377 71 prologue_end
	movq	(%rdi), %rdi
	.loc	1 2377 62 is_stmt 0
	callq	__ZN4core3ptr118_$LT$impl$u20$core..fmt..Debug$u20$for$u20$unsafe$u20$extern$u20$$u22$C$u22$$u20$fn$LP$A$C$B$RP$$u20$.$GT$$u20$Ret$GT$3fmt17h5fce365f69d749ebE
	.loc	1 2377 84
	andb	$1, %al
	movzbl	%al, %eax
	addq	$16, %rsp
	popq	%rbp
	retq
Ltmp21:
Lfunc_end10:
	.cfi_endproc

	.globl	__ZN42_$LT$$RF$T$u20$as$u20$core..fmt..Debug$GT$3fmt17he903af9df89ff18aE
	.p2align	4, 0x90
__ZN42_$LT$$RF$T$u20$as$u20$core..fmt..Debug$GT$3fmt17he903af9df89ff18aE:
Lfunc_begin11:
	.loc	1 2377 0 is_stmt 1
	.cfi_startproc
	pushq	%rbp
	.cfi_def_cfa_offset 16
	.cfi_offset %rbp, -16
	movq	%rsp, %rbp
	.cfi_def_cfa_register %rbp
	subq	$16, %rsp
	movq	%rdi, -16(%rbp)
	movq	%rsi, -8(%rbp)
Ltmp22:
	.loc	1 2377 71 prologue_end
	movq	(%rdi), %rdi
	.loc	1 2377 62 is_stmt 0
	callq	__ZN62_$LT$gmp_mpfr_sys..mpc..mpcr_t$u20$as$u20$core..fmt..Debug$GT$3fmt17h2eb6a6f87931ffe7E
	.loc	1 2377 84
	andb	$1, %al
	movzbl	%al, %eax
	addq	$16, %rsp
	popq	%rbp
	retq
Ltmp23:
Lfunc_end11:
	.cfi_endproc

	.p2align	4, 0x90
__ZN4core3fmt3num50_$LT$impl$u20$core..fmt..Debug$u20$for$u20$i32$GT$3fmt17h49128f77ba685853E:
Lfunc_begin12:
	.file	2 "/rustc/2c8cc343237b8f7d5a3c3703e3a87f2eb2c54a74/library/core/src/fmt" "num.rs"
	.loc	2 185 0 is_stmt 1
	.cfi_startproc
	pushq	%rbp
	.cfi_def_cfa_offset 16
	.cfi_offset %rbp, -16
	movq	%rsp, %rbp
	.cfi_def_cfa_register %rbp
	subq	$48, %rsp
	movq	%rsi, -48(%rbp)
	movq	%rdi, %rax
	movq	-48(%rbp), %rdi
	movq	%rax, -40(%rbp)
	movq	%rdi, -32(%rbp)
	movq	%rax, -16(%rbp)
	movq	%rdi, -8(%rbp)
Ltmp24:
	.loc	2 186 20 prologue_end
	callq	__ZN4core3fmt9Formatter15debug_lower_hex17h0921e6b9188d914eE
	testb	$1, %al
	jne	LBB12_2
	.loc	2 0 20 is_stmt 0
	movq	-32(%rbp), %rdi
	.loc	2 188 27 is_stmt 1
	callq	__ZN4core3fmt9Formatter15debug_upper_hex17h8ce487049a6cccf8E
	testb	$1, %al
	jne	LBB12_5
	jmp	LBB12_4
LBB12_2:
	.loc	2 0 27 is_stmt 0
	movq	-32(%rbp), %rsi
	movq	-40(%rbp), %rdi
	.loc	2 187 21 is_stmt 1
	callq	__ZN4core3fmt3num53_$LT$impl$u20$core..fmt..LowerHex$u20$for$u20$i32$GT$3fmt17hd6250c25a4eb7bb1E
	andb	$1, %al
	movb	%al, -17(%rbp)
LBB12_3:
	.loc	2 193 14
	movb	-17(%rbp), %al
	andb	$1, %al
	movzbl	%al, %eax
	addq	$48, %rsp
	popq	%rbp
	retq
LBB12_4:
	.loc	2 0 14 is_stmt 0
	movq	-32(%rbp), %rsi
	movq	-40(%rbp), %rdi
	.loc	2 191 21 is_stmt 1
	callq	__ZN4core3fmt3num3imp52_$LT$impl$u20$core..fmt..Display$u20$for$u20$i32$GT$3fmt17hd51e25ed68474bbaE
	andb	$1, %al
	movb	%al, -17(%rbp)
	.loc	2 188 24
	jmp	LBB12_6
LBB12_5:
	.loc	2 0 24 is_stmt 0
	movq	-32(%rbp), %rsi
	movq	-40(%rbp), %rdi
	.loc	2 189 21 is_stmt 1
	callq	__ZN4core3fmt3num53_$LT$impl$u20$core..fmt..UpperHex$u20$for$u20$i32$GT$3fmt17hfa20a470c47e8721E
	andb	$1, %al
	movb	%al, -17(%rbp)
LBB12_6:
	.loc	2 186 17
	jmp	LBB12_3
Ltmp25:
Lfunc_end12:
	.cfi_endproc

	.p2align	4, 0x90
__ZN4core3fmt3num50_$LT$impl$u20$core..fmt..Debug$u20$for$u20$i64$GT$3fmt17h14cea0e4bc152d70E:
Lfunc_begin13:
	.loc	2 185 0
	.cfi_startproc
	pushq	%rbp
	.cfi_def_cfa_offset 16
	.cfi_offset %rbp, -16
	movq	%rsp, %rbp
	.cfi_def_cfa_register %rbp
	subq	$48, %rsp
	movq	%rsi, -48(%rbp)
	movq	%rdi, %rax
	movq	-48(%rbp), %rdi
	movq	%rax, -40(%rbp)
	movq	%rdi, -32(%rbp)
	movq	%rax, -16(%rbp)
	movq	%rdi, -8(%rbp)
Ltmp26:
	.loc	2 186 20 prologue_end
	callq	__ZN4core3fmt9Formatter15debug_lower_hex17h0921e6b9188d914eE
	testb	$1, %al
	jne	LBB13_2
	.loc	2 0 20 is_stmt 0
	movq	-32(%rbp), %rdi
	.loc	2 188 27 is_stmt 1
	callq	__ZN4core3fmt9Formatter15debug_upper_hex17h8ce487049a6cccf8E
	testb	$1, %al
	jne	LBB13_5
	jmp	LBB13_4
LBB13_2:
	.loc	2 0 27 is_stmt 0
	movq	-32(%rbp), %rsi
	movq	-40(%rbp), %rdi
	.loc	2 187 21 is_stmt 1
	callq	__ZN4core3fmt3num53_$LT$impl$u20$core..fmt..LowerHex$u20$for$u20$i64$GT$3fmt17h3e596fe25e0c68d0E
	andb	$1, %al
	movb	%al, -17(%rbp)
LBB13_3:
	.loc	2 193 14
	movb	-17(%rbp), %al
	andb	$1, %al
	movzbl	%al, %eax
	addq	$48, %rsp
	popq	%rbp
	retq
LBB13_4:
	.loc	2 0 14 is_stmt 0
	movq	-32(%rbp), %rsi
	movq	-40(%rbp), %rdi
	.loc	2 191 21 is_stmt 1
	callq	__ZN4core3fmt3num3imp52_$LT$impl$u20$core..fmt..Display$u20$for$u20$i64$GT$3fmt17h02bd744edfb73c37E
	andb	$1, %al
	movb	%al, -17(%rbp)
	.loc	2 188 24
	jmp	LBB13_6
LBB13_5:
	.loc	2 0 24 is_stmt 0
	movq	-32(%rbp), %rsi
	movq	-40(%rbp), %rdi
	.loc	2 189 21 is_stmt 1
	callq	__ZN4core3fmt3num53_$LT$impl$u20$core..fmt..UpperHex$u20$for$u20$i64$GT$3fmt17h0d2a2d95d47fd102E
	andb	$1, %al
	movb	%al, -17(%rbp)
LBB13_6:
	.loc	2 186 17
	jmp	LBB13_3
Ltmp27:
Lfunc_end13:
	.cfi_endproc

	.globl	__ZN4core3ptr114_$LT$impl$u20$core..fmt..Debug$u20$for$u20$unsafe$u20$extern$u20$$u22$C$u22$$u20$fn$LP$T$RP$$u20$.$GT$$u20$Ret$GT$3fmt17hd31f1100838fb76cE
	.p2align	4, 0x90
__ZN4core3ptr114_$LT$impl$u20$core..fmt..Debug$u20$for$u20$unsafe$u20$extern$u20$$u22$C$u22$$u20$fn$LP$T$RP$$u20$.$GT$$u20$Ret$GT$3fmt17hd31f1100838fb76cE:
Lfunc_begin14:
	.file	3 "/rustc/2c8cc343237b8f7d5a3c3703e3a87f2eb2c54a74/library/core/src/ptr" "mod.rs"
	.loc	3 1961 0
	.cfi_startproc
	pushq	%rbp
	.cfi_def_cfa_offset 16
	.cfi_offset %rbp, -16
	movq	%rsp, %rbp
	.cfi_def_cfa_register %rbp
	subq	$16, %rsp
	movq	%rdi, -16(%rbp)
	movq	%rsi, -8(%rbp)
Ltmp28:
	.loc	3 1962 44 prologue_end
	movq	(%rdi), %rdi
	.loc	3 1962 21 is_stmt 0
	callq	__ZN4core3fmt17pointer_fmt_inner17hfee30366ae14be28E
	.loc	3 1963 18 is_stmt 1
	andb	$1, %al
	movzbl	%al, %eax
	addq	$16, %rsp
	popq	%rbp
	retq
Ltmp29:
Lfunc_end14:
	.cfi_endproc

	.p2align	4, 0x90
__ZN4core3ptr115drop_in_place$LT$$RF$unsafe$u20$extern$u20$$u22$C$u22$$u20$fn$LP$$BP$mut$u20$gmp_mpfr_sys..gmp..randstate_t$RP$$GT$17hcf833b42949e3b50E:
Lfunc_begin15:
	.loc	3 490 0
	.cfi_startproc
	pushq	%rbp
	.cfi_def_cfa_offset 16
	.cfi_offset %rbp, -16
	movq	%rsp, %rbp
	.cfi_def_cfa_register %rbp
	pushq	%rax
	movq	%rdi, -8(%rbp)
Ltmp30:
	.loc	3 490 1 prologue_end
	addq	$8, %rsp
	popq	%rbp
	retq
Ltmp31:
Lfunc_end15:
	.cfi_endproc

	.globl	__ZN4core3ptr118_$LT$impl$u20$core..fmt..Debug$u20$for$u20$unsafe$u20$extern$u20$$u22$C$u22$$u20$fn$LP$A$C$B$RP$$u20$.$GT$$u20$Ret$GT$3fmt17h283ddf29275f5dc4E
	.p2align	4, 0x90
__ZN4core3ptr118_$LT$impl$u20$core..fmt..Debug$u20$for$u20$unsafe$u20$extern$u20$$u22$C$u22$$u20$fn$LP$A$C$B$RP$$u20$.$GT$$u20$Ret$GT$3fmt17h283ddf29275f5dc4E:
Lfunc_begin16:
	.loc	3 1961 0
	.cfi_startproc
	pushq	%rbp
	.cfi_def_cfa_offset 16
	.cfi_offset %rbp, -16
	movq	%rsp, %rbp
	.cfi_def_cfa_register %rbp
	subq	$16, %rsp
	movq	%rdi, -16(%rbp)
	movq	%rsi, -8(%rbp)
Ltmp32:
	.loc	3 1962 44 prologue_end
	movq	(%rdi), %rdi
	.loc	3 1962 21 is_stmt 0
	callq	__ZN4core3fmt17pointer_fmt_inner17hfee30366ae14be28E
	.loc	3 1963 18 is_stmt 1
	andb	$1, %al
	movzbl	%al, %eax
	addq	$16, %rsp
	popq	%rbp
	retq
Ltmp33:
Lfunc_end16:
	.cfi_endproc

	.globl	__ZN4core3ptr118_$LT$impl$u20$core..fmt..Debug$u20$for$u20$unsafe$u20$extern$u20$$u22$C$u22$$u20$fn$LP$A$C$B$RP$$u20$.$GT$$u20$Ret$GT$3fmt17h5fce365f69d749ebE
	.p2align	4, 0x90
__ZN4core3ptr118_$LT$impl$u20$core..fmt..Debug$u20$for$u20$unsafe$u20$extern$u20$$u22$C$u22$$u20$fn$LP$A$C$B$RP$$u20$.$GT$$u20$Ret$GT$3fmt17h5fce365f69d749ebE:
Lfunc_begin17:
	.loc	3 1961 0
	.cfi_startproc
	pushq	%rbp
	.cfi_def_cfa_offset 16
	.cfi_offset %rbp, -16
	movq	%rsp, %rbp
	.cfi_def_cfa_register %rbp
	subq	$16, %rsp
	movq	%rdi, -16(%rbp)
	movq	%rsi, -8(%rbp)
Ltmp34:
	.loc	3 1962 44 prologue_end
	movq	(%rdi), %rdi
	.loc	3 1962 21 is_stmt 0
	callq	__ZN4core3fmt17pointer_fmt_inner17hfee30366ae14be28E
	.loc	3 1963 18 is_stmt 1
	andb	$1, %al
	movzbl	%al, %eax
	addq	$16, %rsp
	popq	%rbp
	retq
Ltmp35:
Lfunc_end17:
	.cfi_endproc

	.globl	__ZN4core3ptr122_$LT$impl$u20$core..fmt..Debug$u20$for$u20$unsafe$u20$extern$u20$$u22$C$u22$$u20$fn$LP$A$C$B$C$C$RP$$u20$.$GT$$u20$Ret$GT$3fmt17h83c948fd9bc620d5E
	.p2align	4, 0x90
__ZN4core3ptr122_$LT$impl$u20$core..fmt..Debug$u20$for$u20$unsafe$u20$extern$u20$$u22$C$u22$$u20$fn$LP$A$C$B$C$C$RP$$u20$.$GT$$u20$Ret$GT$3fmt17h83c948fd9bc620d5E:
Lfunc_begin18:
	.loc	3 1961 0
	.cfi_startproc
	pushq	%rbp
	.cfi_def_cfa_offset 16
	.cfi_offset %rbp, -16
	movq	%rsp, %rbp
	.cfi_def_cfa_register %rbp
	subq	$16, %rsp
	movq	%rdi, -16(%rbp)
	movq	%rsi, -8(%rbp)
Ltmp36:
	.loc	3 1962 44 prologue_end
	movq	(%rdi), %rdi
	.loc	3 1962 21 is_stmt 0
	callq	__ZN4core3fmt17pointer_fmt_inner17hfee30366ae14be28E
	.loc	3 1963 18 is_stmt 1
	andb	$1, %al
	movzbl	%al, %eax
	addq	$16, %rsp
	popq	%rbp
	retq
Ltmp37:
Lfunc_end18:
	.cfi_endproc

	.p2align	4, 0x90
__ZN4core3ptr139drop_in_place$LT$$RF$unsafe$u20$extern$u20$$u22$C$u22$$u20$fn$LP$$BP$mut$u20$gmp_mpfr_sys..gmp..randstate_t$C$$BP$mut$u20$u64$C$u64$RP$$GT$17h8a82c2e535c8229bE:
Lfunc_begin19:
	.loc	3 490 0
	.cfi_startproc
	pushq	%rbp
	.cfi_def_cfa_offset 16
	.cfi_offset %rbp, -16
	movq	%rsp, %rbp
	.cfi_def_cfa_register %rbp
	pushq	%rax
	movq	%rdi, -8(%rbp)
Ltmp38:
	.loc	3 490 1 prologue_end
	addq	$8, %rsp
	popq	%rbp
	retq
Ltmp39:
Lfunc_end19:
	.cfi_endproc

	.p2align	4, 0x90
__ZN4core3ptr156drop_in_place$LT$$RF$unsafe$u20$extern$u20$$u22$C$u22$$u20$fn$LP$$BP$mut$u20$gmp_mpfr_sys..gmp..randstate_t$C$$BP$const$u20$gmp_mpfr_sys..gmp..mpz_t$RP$$GT$17hbb57550ed0f5fd3cE:
Lfunc_begin20:
	.loc	3 490 0
	.cfi_startproc
	pushq	%rbp
	.cfi_def_cfa_offset 16
	.cfi_offset %rbp, -16
	movq	%rsp, %rbp
	.cfi_def_cfa_register %rbp
	pushq	%rax
	movq	%rdi, -8(%rbp)
Ltmp40:
	.loc	3 490 1 prologue_end
	addq	$8, %rsp
	popq	%rbp
	retq
Ltmp41:
Lfunc_end20:
	.cfi_endproc

	.p2align	4, 0x90
__ZN4core3ptr162drop_in_place$LT$$RF$unsafe$u20$extern$u20$$u22$C$u22$$u20$fn$LP$$BP$mut$u20$gmp_mpfr_sys..gmp..randstate_t$C$$BP$const$u20$gmp_mpfr_sys..gmp..randstate_t$RP$$GT$17h6278a923f32dbad0E:
Lfunc_begin21:
	.loc	3 490 0
	.cfi_startproc
	pushq	%rbp
	.cfi_def_cfa_offset 16
	.cfi_offset %rbp, -16
	movq	%rsp, %rbp
	.cfi_def_cfa_register %rbp
	pushq	%rax
	movq	%rdi, -8(%rbp)
Ltmp42:
	.loc	3 490 1 prologue_end
	addq	$8, %rsp
	popq	%rbp
	retq
Ltmp43:
Lfunc_end21:
	.cfi_endproc

	.p2align	4, 0x90
__ZN4core3ptr28drop_in_place$LT$$RF$i32$GT$17h220546a77491ad93E:
Lfunc_begin22:
	.loc	3 490 0
	.cfi_startproc
	pushq	%rbp
	.cfi_def_cfa_offset 16
	.cfi_offset %rbp, -16
	movq	%rsp, %rbp
	.cfi_def_cfa_register %rbp
	pushq	%rax
	movq	%rdi, -8(%rbp)
Ltmp44:
	.loc	3 490 1 prologue_end
	addq	$8, %rsp
	popq	%rbp
	retq
Ltmp45:
Lfunc_end22:
	.cfi_endproc

	.p2align	4, 0x90
__ZN4core3ptr28drop_in_place$LT$$RF$i64$GT$17h71553fdd1ea62e2fE:
Lfunc_begin23:
	.loc	3 490 0
	.cfi_startproc
	pushq	%rbp
	.cfi_def_cfa_offset 16
	.cfi_offset %rbp, -16
	movq	%rsp, %rbp
	.cfi_def_cfa_register %rbp
	pushq	%rax
	movq	%rdi, -8(%rbp)
Ltmp46:
	.loc	3 490 1 prologue_end
	addq	$8, %rsp
	popq	%rbp
	retq
Ltmp47:
Lfunc_end23:
	.cfi_endproc

	.p2align	4, 0x90
__ZN4core3ptr28drop_in_place$LT$$RF$str$GT$17h449059a8c18b50aeE:
Lfunc_begin24:
	.loc	3 490 0
	.cfi_startproc
	pushq	%rbp
	.cfi_def_cfa_offset 16
	.cfi_offset %rbp, -16
	movq	%rsp, %rbp
	.cfi_def_cfa_register %rbp
	pushq	%rax
	movq	%rdi, -8(%rbp)
Ltmp48:
	.loc	3 490 1 prologue_end
	addq	$8, %rsp
	popq	%rbp
	retq
Ltmp49:
Lfunc_end24:
	.cfi_endproc

	.p2align	4, 0x90
__ZN4core3ptr49drop_in_place$LT$$RF$gmp_mpfr_sys..gmp..mpz_t$GT$17h9ab5bced7a561121E:
Lfunc_begin25:
	.loc	3 490 0
	.cfi_startproc
	pushq	%rbp
	.cfi_def_cfa_offset 16
	.cfi_offset %rbp, -16
	movq	%rsp, %rbp
	.cfi_def_cfa_register %rbp
	pushq	%rax
	movq	%rdi, -8(%rbp)
Ltmp50:
	.loc	3 490 1 prologue_end
	addq	$8, %rsp
	popq	%rbp
	retq
Ltmp51:
Lfunc_end25:
	.cfi_endproc

	.p2align	4, 0x90
__ZN4core3ptr49drop_in_place$LT$$RF$gmp_mpfr_sys..mpc..mpc_t$GT$17h7484e7b046a0d3e1E:
Lfunc_begin26:
	.loc	3 490 0
	.cfi_startproc
	pushq	%rbp
	.cfi_def_cfa_offset 16
	.cfi_offset %rbp, -16
	movq	%rsp, %rbp
	.cfi_def_cfa_register %rbp
	pushq	%rax
	movq	%rdi, -8(%rbp)
Ltmp52:
	.loc	3 490 1 prologue_end
	addq	$8, %rsp
	popq	%rbp
	retq
Ltmp53:
Lfunc_end26:
	.cfi_endproc

	.p2align	4, 0x90
__ZN4core3ptr50drop_in_place$LT$$RF$gmp_mpfr_sys..mpc..mpcr_t$GT$17hc2d4e805749d7bd8E:
Lfunc_begin27:
	.loc	3 490 0
	.cfi_startproc
	pushq	%rbp
	.cfi_def_cfa_offset 16
	.cfi_offset %rbp, -16
	movq	%rsp, %rbp
	.cfi_def_cfa_register %rbp
	pushq	%rax
	movq	%rdi, -8(%rbp)
Ltmp54:
	.loc	3 490 1 prologue_end
	addq	$8, %rsp
	popq	%rbp
	retq
Ltmp55:
Lfunc_end27:
	.cfi_endproc

	.p2align	4, 0x90
__ZN4core3ptr50drop_in_place$LT$gmp_mpfr_sys..gmp..randseed_t$GT$17h3a87928b6c3bea6fE:
Lfunc_begin28:
	.loc	3 490 0
	.cfi_startproc
	pushq	%rbp
	.cfi_def_cfa_offset 16
	.cfi_offset %rbp, -16
	movq	%rsp, %rbp
	.cfi_def_cfa_register %rbp
	pushq	%rax
	movq	%rdi, -8(%rbp)
Ltmp56:
	.loc	3 490 1 prologue_end
	addq	$8, %rsp
	popq	%rbp
	retq
Ltmp57:
Lfunc_end28:
	.cfi_endproc

	.p2align	4, 0x90
__ZN4core3ptr51drop_in_place$LT$$RF$gmp_mpfr_sys..mpfr..mpfr_t$GT$17h7d1dd1bd75d70e20E:
Lfunc_begin29:
	.loc	3 490 0
	.cfi_startproc
	pushq	%rbp
	.cfi_def_cfa_offset 16
	.cfi_offset %rbp, -16
	movq	%rsp, %rbp
	.cfi_def_cfa_register %rbp
	pushq	%rax
	movq	%rdi, -8(%rbp)
Ltmp58:
	.loc	3 490 1 prologue_end
	addq	$8, %rsp
	popq	%rbp
	retq
Ltmp59:
Lfunc_end29:
	.cfi_endproc

	.p2align	4, 0x90
__ZN4core3ptr64drop_in_place$LT$$RF$core..ptr..non_null..NonNull$LT$u64$GT$$GT$17hd47d1a0978a385d0E:
Lfunc_begin30:
	.loc	3 490 0
	.cfi_startproc
	pushq	%rbp
	.cfi_def_cfa_offset 16
	.cfi_offset %rbp, -16
	movq	%rsp, %rbp
	.cfi_def_cfa_register %rbp
	pushq	%rax
	movq	%rdi, -8(%rbp)
Ltmp60:
	.loc	3 490 1 prologue_end
	addq	$8, %rsp
	popq	%rbp
	retq
Ltmp61:
Lfunc_end30:
	.cfi_endproc

	.p2align	4, 0x90
__ZN4core3ptr65drop_in_place$LT$$BP$const$u20$gmp_mpfr_sys..gmp..randfnptr_t$GT$17hf9186a63024075a5E:
Lfunc_begin31:
	.loc	3 490 0
	.cfi_startproc
	pushq	%rbp
	.cfi_def_cfa_offset 16
	.cfi_offset %rbp, -16
	movq	%rsp, %rbp
	.cfi_def_cfa_register %rbp
	pushq	%rax
	movq	%rdi, -8(%rbp)
Ltmp62:
	.loc	3 490 1 prologue_end
	addq	$8, %rsp
	popq	%rbp
	retq
Ltmp63:
Lfunc_end31:
	.cfi_endproc

	.p2align	4, 0x90
__ZN4core3ptr74drop_in_place$LT$core..ptr..non_null..NonNull$LT$core..ffi..c_void$GT$$GT$17heecb85d1d289f21cE:
Lfunc_begin32:
	.loc	3 490 0
	.cfi_startproc
	pushq	%rbp
	.cfi_def_cfa_offset 16
	.cfi_offset %rbp, -16
	movq	%rsp, %rbp
	.cfi_def_cfa_register %rbp
	pushq	%rax
	movq	%rdi, -8(%rbp)
Ltmp64:
	.loc	3 490 1 prologue_end
	addq	$8, %rsp
	popq	%rbp
	retq
Ltmp65:
Lfunc_end32:
	.cfi_endproc

	.globl	__ZN52_$LT$$BP$const$u20$T$u20$as$u20$core..fmt..Debug$GT$3fmt17h436a4f0958369ee1E
	.p2align	4, 0x90
__ZN52_$LT$$BP$const$u20$T$u20$as$u20$core..fmt..Debug$GT$3fmt17h436a4f0958369ee1E:
Lfunc_begin33:
	.loc	1 2541 0
	.cfi_startproc
	pushq	%rbp
	.cfi_def_cfa_offset 16
	.cfi_offset %rbp, -16
	movq	%rsp, %rbp
	.cfi_def_cfa_register %rbp
	subq	$16, %rsp
	movq	%rdi, -16(%rbp)
	movq	%rsi, -8(%rbp)
Ltmp66:
	.loc	1 2542 9 prologue_end
	callq	__ZN54_$LT$$BP$const$u20$T$u20$as$u20$core..fmt..Pointer$GT$3fmt17h87eb239c8024083eE
	.loc	1 2543 6
	andb	$1, %al
	movzbl	%al, %eax
	addq	$16, %rsp
	popq	%rbp
	retq
Ltmp67:
Lfunc_end33:
	.cfi_endproc

	.globl	__ZN52_$LT$$BP$mut$u20$T$u20$as$u20$core..fmt..Pointer$GT$3fmt17ha05effe530243c8fE
	.p2align	4, 0x90
__ZN52_$LT$$BP$mut$u20$T$u20$as$u20$core..fmt..Pointer$GT$3fmt17ha05effe530243c8fE:
Lfunc_begin34:
	.loc	1 2518 0
	.cfi_startproc
	pushq	%rbp
	.cfi_def_cfa_offset 16
	.cfi_offset %rbp, -16
	movq	%rsp, %rbp
	.cfi_def_cfa_register %rbp
	subq	$32, %rsp
	movq	%rdi, -16(%rbp)
	movq	%rsi, -8(%rbp)
Ltmp68:
	.loc	1 2519 24 prologue_end
	movq	(%rdi), %rax
	movq	%rax, -24(%rbp)
	.loc	1 2519 9 is_stmt 0
	leaq	-24(%rbp), %rdi
	callq	__ZN54_$LT$$BP$const$u20$T$u20$as$u20$core..fmt..Pointer$GT$3fmt17h69554acd45cab78eE
	.loc	1 2520 6 is_stmt 1
	andb	$1, %al
	movzbl	%al, %eax
	addq	$32, %rsp
	popq	%rbp
	retq
Ltmp69:
Lfunc_end34:
	.cfi_endproc

	.globl	__ZN52_$LT$$BP$mut$u20$T$u20$as$u20$core..fmt..Pointer$GT$3fmt17hd550a65d6edbff0dE
	.p2align	4, 0x90
__ZN52_$LT$$BP$mut$u20$T$u20$as$u20$core..fmt..Pointer$GT$3fmt17hd550a65d6edbff0dE:
Lfunc_begin35:
	.loc	1 2518 0
	.cfi_startproc
	pushq	%rbp
	.cfi_def_cfa_offset 16
	.cfi_offset %rbp, -16
	movq	%rsp, %rbp
	.cfi_def_cfa_register %rbp
	subq	$32, %rsp
	movq	%rdi, -16(%rbp)
	movq	%rsi, -8(%rbp)
Ltmp70:
	.loc	1 2519 24 prologue_end
	movq	(%rdi), %rax
	movq	%rax, -24(%rbp)
	.loc	1 2519 9 is_stmt 0
	leaq	-24(%rbp), %rdi
	callq	__ZN54_$LT$$BP$const$u20$T$u20$as$u20$core..fmt..Pointer$GT$3fmt17h6b6bdf52f337a969E
	.loc	1 2520 6 is_stmt 1
	andb	$1, %al
	movzbl	%al, %eax
	addq	$32, %rsp
	popq	%rbp
	retq
Ltmp71:
Lfunc_end35:
	.cfi_endproc

	.globl	__ZN54_$LT$$BP$const$u20$T$u20$as$u20$core..fmt..Pointer$GT$3fmt17h69554acd45cab78eE
	.p2align	4, 0x90
__ZN54_$LT$$BP$const$u20$T$u20$as$u20$core..fmt..Pointer$GT$3fmt17h69554acd45cab78eE:
Lfunc_begin36:
	.loc	1 2478 0
	.cfi_startproc
	pushq	%rbp
	.cfi_def_cfa_offset 16
	.cfi_offset %rbp, -16
	movq	%rsp, %rbp
	.cfi_def_cfa_register %rbp
	subq	$32, %rsp
	movq	%rdi, -32(%rbp)
	movq	%rsi, -24(%rbp)
Ltmp72:
	.loc	1 2480 28 prologue_end
	movq	(%rdi), %rdi
	.loc	1 2480 27 is_stmt 0
	movq	%rdi, -16(%rbp)
Ltmp73:
	.file	4 "/rustc/2c8cc343237b8f7d5a3c3703e3a87f2eb2c54a74/library/core/src/ptr" "const_ptr.rs"
	.loc	4 241 9 is_stmt 1
	movq	%rdi, -8(%rbp)
Ltmp74:
	.loc	1 2480 9
	callq	__ZN4core3fmt17pointer_fmt_inner17hfee30366ae14be28E
	.loc	1 2481 6
	andb	$1, %al
	movzbl	%al, %eax
	addq	$32, %rsp
	popq	%rbp
	retq
Ltmp75:
Lfunc_end36:
	.cfi_endproc

	.globl	__ZN54_$LT$$BP$const$u20$T$u20$as$u20$core..fmt..Pointer$GT$3fmt17h6b6bdf52f337a969E
	.p2align	4, 0x90
__ZN54_$LT$$BP$const$u20$T$u20$as$u20$core..fmt..Pointer$GT$3fmt17h6b6bdf52f337a969E:
Lfunc_begin37:
	.loc	1 2478 0
	.cfi_startproc
	pushq	%rbp
	.cfi_def_cfa_offset 16
	.cfi_offset %rbp, -16
	movq	%rsp, %rbp
	.cfi_def_cfa_register %rbp
	subq	$32, %rsp
	movq	%rdi, -32(%rbp)
	movq	%rsi, -24(%rbp)
Ltmp76:
	.loc	1 2480 28 prologue_end
	movq	(%rdi), %rdi
	.loc	1 2480 27 is_stmt 0
	movq	%rdi, -16(%rbp)
Ltmp77:
	.loc	4 241 9 is_stmt 1
	movq	%rdi, -8(%rbp)
Ltmp78:
	.loc	1 2480 9
	callq	__ZN4core3fmt17pointer_fmt_inner17hfee30366ae14be28E
	.loc	1 2481 6
	andb	$1, %al
	movzbl	%al, %eax
	addq	$32, %rsp
	popq	%rbp
	retq
Ltmp79:
Lfunc_end37:
	.cfi_endproc

	.globl	__ZN54_$LT$$BP$const$u20$T$u20$as$u20$core..fmt..Pointer$GT$3fmt17h87eb239c8024083eE
	.p2align	4, 0x90
__ZN54_$LT$$BP$const$u20$T$u20$as$u20$core..fmt..Pointer$GT$3fmt17h87eb239c8024083eE:
Lfunc_begin38:
	.loc	1 2478 0
	.cfi_startproc
	pushq	%rbp
	.cfi_def_cfa_offset 16
	.cfi_offset %rbp, -16
	movq	%rsp, %rbp
	.cfi_def_cfa_register %rbp
	subq	$32, %rsp
	movq	%rdi, -32(%rbp)
	movq	%rsi, -24(%rbp)
Ltmp80:
	.loc	1 2480 28 prologue_end
	movq	(%rdi), %rdi
	.loc	1 2480 27 is_stmt 0
	movq	%rdi, -16(%rbp)
Ltmp81:
	.loc	4 241 9 is_stmt 1
	movq	%rdi, -8(%rbp)
Ltmp82:
	.loc	1 2480 9
	callq	__ZN4core3fmt17pointer_fmt_inner17hfee30366ae14be28E
	.loc	1 2481 6
	andb	$1, %al
	movzbl	%al, %eax
	addq	$32, %rsp
	popq	%rbp
	retq
Ltmp83:
Lfunc_end38:
	.cfi_endproc

	.globl	__ZN74_$LT$core..ptr..non_null..NonNull$LT$T$GT$$u20$as$u20$core..fmt..Debug$GT$3fmt17h9fc807f3cffce3afE
	.p2align	4, 0x90
__ZN74_$LT$core..ptr..non_null..NonNull$LT$T$GT$$u20$as$u20$core..fmt..Debug$GT$3fmt17h9fc807f3cffce3afE:
Lfunc_begin39:
	.file	5 "/rustc/2c8cc343237b8f7d5a3c3703e3a87f2eb2c54a74/library/core/src/ptr" "non_null.rs"
	.loc	5 714 0
	.cfi_startproc
	pushq	%rbp
	.cfi_def_cfa_offset 16
	.cfi_offset %rbp, -16
	movq	%rsp, %rbp
	.cfi_def_cfa_register %rbp
	subq	$32, %rsp
	movq	%rdi, -24(%rbp)
	movq	%rsi, -16(%rbp)
Ltmp84:
	.loc	5 715 28 prologue_end
	movq	(%rdi), %rax
	movq	%rax, -8(%rbp)
Ltmp85:
	.loc	5 326 9
	movq	%rax, -32(%rbp)
Ltmp86:
	.loc	5 715 9
	leaq	-32(%rbp), %rdi
	callq	__ZN52_$LT$$BP$mut$u20$T$u20$as$u20$core..fmt..Pointer$GT$3fmt17hd550a65d6edbff0dE
	.loc	5 716 6
	andb	$1, %al
	movzbl	%al, %eax
	addq	$32, %rsp
	popq	%rbp
	retq
Ltmp87:
Lfunc_end39:
	.cfi_endproc

	.globl	__ZN74_$LT$core..ptr..non_null..NonNull$LT$T$GT$$u20$as$u20$core..fmt..Debug$GT$3fmt17hfa85de1ac3690390E
	.p2align	4, 0x90
__ZN74_$LT$core..ptr..non_null..NonNull$LT$T$GT$$u20$as$u20$core..fmt..Debug$GT$3fmt17hfa85de1ac3690390E:
Lfunc_begin40:
	.loc	5 714 0
	.cfi_startproc
	pushq	%rbp
	.cfi_def_cfa_offset 16
	.cfi_offset %rbp, -16
	movq	%rsp, %rbp
	.cfi_def_cfa_register %rbp
	subq	$32, %rsp
	movq	%rdi, -24(%rbp)
	movq	%rsi, -16(%rbp)
Ltmp88:
	.loc	5 715 28 prologue_end
	movq	(%rdi), %rax
	movq	%rax, -8(%rbp)
Ltmp89:
	.loc	5 326 9
	movq	%rax, -32(%rbp)
Ltmp90:
	.loc	5 715 9
	leaq	-32(%rbp), %rdi
	callq	__ZN52_$LT$$BP$mut$u20$T$u20$as$u20$core..fmt..Pointer$GT$3fmt17ha05effe530243c8fE
	.loc	5 716 6
	andb	$1, %al
	movzbl	%al, %eax
	addq	$32, %rsp
	popq	%rbp
	retq
Ltmp91:
Lfunc_end40:
	.cfi_endproc

	.globl	__ZN67_$LT$gmp_mpfr_sys..gmp..randstate_t$u20$as$u20$core..fmt..Debug$GT$3fmt17h720a6e598eb69d65E
	.p2align	4, 0x90
__ZN67_$LT$gmp_mpfr_sys..gmp..randstate_t$u20$as$u20$core..fmt..Debug$GT$3fmt17h720a6e598eb69d65E:
Lfunc_begin41:
	.file	6 "/Users/natalie/.cargo/registry/src/github.com-1ecc6299db9ec823/gmp-mpfr-sys-1.5.0" "src/gmp.rs"
	.loc	6 153 0
	.cfi_startproc
	pushq	%rbp
	.cfi_def_cfa_offset 16
	.cfi_offset %rbp, -16
	movq	%rsp, %rbp
	.cfi_def_cfa_register %rbp
	subq	$48, %rsp
	movq	%rdi, -40(%rbp)
	movq	%rdi, -16(%rbp)
	movq	%rsi, -8(%rbp)
Ltmp92:
	.loc	6 154 9 prologue_end
	leaq	-32(%rbp), %rdi
	leaq	l___unnamed_16(%rip), %rdx
	movl	$11, %ecx
	callq	__ZN4core3fmt9Formatter12debug_struct17hb330e0caa577ed3dE
	movq	-40(%rbp), %rcx
	leaq	-32(%rbp), %rdi
	leaq	L___unnamed_17(%rip), %rsi
	movl	$4, %edx
	leaq	l___unnamed_1(%rip), %r8
	callq	__ZN4core3fmt8builders11DebugStruct5field17h2147d02d385887f6E
	movq	%rax, %rdi
	leaq	l___unnamed_18(%rip), %rsi
	movl	$3, %edx
	leaq	l___unnamed_19(%rip), %rcx
	leaq	l___unnamed_2(%rip), %r8
	callq	__ZN4core3fmt8builders11DebugStruct5field17h2147d02d385887f6E
	movq	-40(%rbp), %rcx
	movq	%rax, %rdi
	.loc	6 157 31
	addq	$24, %rcx
	.loc	6 154 9
	leaq	l___unnamed_20(%rip), %rsi
	movl	$7, %edx
	leaq	l___unnamed_3(%rip), %r8
	callq	__ZN4core3fmt8builders11DebugStruct5field17h2147d02d385887f6E
	movq	%rax, %rdi
	callq	__ZN4core3fmt8builders11DebugStruct6finish17h081d244274ea39b1E
	.loc	6 159 6
	andb	$1, %al
	movzbl	%al, %eax
	addq	$48, %rsp
	popq	%rbp
	retq
Ltmp93:
Lfunc_end41:
	.cfi_endproc

	.globl	__ZN66_$LT$gmp_mpfr_sys..gmp..randseed_t$u20$as$u20$core..fmt..Debug$GT$3fmt17ha350465ac864afa6E
	.p2align	4, 0x90
__ZN66_$LT$gmp_mpfr_sys..gmp..randseed_t$u20$as$u20$core..fmt..Debug$GT$3fmt17ha350465ac864afa6E:
Lfunc_begin42:
	.loc	6 179 0
	.cfi_startproc
	pushq	%rbp
	.cfi_def_cfa_offset 16
	.cfi_offset %rbp, -16
	movq	%rsp, %rbp
	.cfi_def_cfa_register %rbp
	subq	$48, %rsp
	movq	%rdi, -40(%rbp)
	movq	%rdi, -16(%rbp)
	movq	%rsi, -8(%rbp)
Ltmp94:
	.loc	6 180 9 prologue_end
	leaq	-32(%rbp), %rdi
	leaq	l___unnamed_21(%rip), %rdx
	movl	$10, %ecx
	callq	__ZN4core3fmt9Formatter12debug_struct17hb330e0caa577ed3dE
	leaq	-32(%rbp), %rdi
	leaq	l___unnamed_22(%rip), %rsi
	movl	$5, %edx
	leaq	l___unnamed_19(%rip), %rcx
	leaq	l___unnamed_2(%rip), %r8
	callq	__ZN4core3fmt8builders11DebugStruct5field17h2147d02d385887f6E
	movq	%rax, %rdi
	leaq	L___unnamed_23(%rip), %rsi
	movl	$4, %edx
	leaq	l___unnamed_19(%rip), %rcx
	leaq	l___unnamed_2(%rip), %r8
	callq	__ZN4core3fmt8builders11DebugStruct5field17h2147d02d385887f6E
	movq	-40(%rbp), %rcx
	movq	%rax, %rdi
	.loc	6 183 25
	addq	$8, %rcx
	.loc	6 180 9
	leaq	l___unnamed_24(%rip), %rsi
	movl	$1, %edx
	leaq	l___unnamed_4(%rip), %r8
	callq	__ZN4core3fmt8builders11DebugStruct5field17h2147d02d385887f6E
	movq	%rax, %rdi
	callq	__ZN4core3fmt8builders11DebugStruct6finish17h081d244274ea39b1E
	.loc	6 185 6
	andb	$1, %al
	movzbl	%al, %eax
	addq	$48, %rsp
	popq	%rbp
	retq
Ltmp95:
Lfunc_end42:
	.cfi_endproc

	.globl	__ZN61_$LT$gmp_mpfr_sys..gmp..mpz_t$u20$as$u20$core..fmt..Debug$GT$3fmt17h44d04ae2b07e589fE
	.p2align	4, 0x90
__ZN61_$LT$gmp_mpfr_sys..gmp..mpz_t$u20$as$u20$core..fmt..Debug$GT$3fmt17h44d04ae2b07e589fE:
Lfunc_begin43:
	.loc	6 97 0
	.cfi_startproc
	pushq	%rbp
	.cfi_def_cfa_offset 16
	.cfi_offset %rbp, -16
	movq	%rsp, %rbp
	.cfi_def_cfa_register %rbp
	pushq	%r15
	pushq	%r14
	pushq	%rbx
	subq	$120, %rsp
	.cfi_offset %rbx, -40
	.cfi_offset %r14, -32
	.cfi_offset %r15, -24
	movq	%rsi, -72(%rbp)
	movq	%rdi, %rax
	movq	-72(%rbp), %rdi
	movq	%rax, -40(%rbp)
	movq	%rdi, -32(%rbp)
Ltmp96:
	.loc	6 100 5 prologue_end
	movq	%rax, -64(%rbp)
	.loc	6 102 5
	movq	%rax, %rcx
	addq	$4, %rcx
	movq	%rcx, -56(%rbp)
	.loc	6 104 5
	addq	$8, %rax
	movq	%rax, -48(%rbp)
	.loc	6 97 23
	leaq	l___unnamed_25(%rip), %rsi
	movl	$5, %r8d
	leaq	l___unnamed_22(%rip), %rcx
	leaq	-64(%rbp), %r9
	leaq	l___unnamed_5(%rip), %rbx
	leaq	L___unnamed_23(%rip), %r15
	leaq	-56(%rbp), %r14
	leaq	l___unnamed_24(%rip), %r11
	leaq	-48(%rbp), %r10
	leaq	l___unnamed_6(%rip), %rax
	movq	%r8, %rdx
	movq	%rbx, (%rsp)
	movq	%r15, 8(%rsp)
	movq	$4, 16(%rsp)
	movq	%r14, 24(%rsp)
	movq	%rbx, 32(%rsp)
	movq	%r11, 40(%rsp)
	movq	$1, 48(%rsp)
	movq	%r10, 56(%rsp)
	movq	%rax, 64(%rsp)
	callq	__ZN4core3fmt9Formatter26debug_struct_field3_finish17hf5caeae338c1d93dE
	.loc	6 97 28 is_stmt 0
	andb	$1, %al
	movzbl	%al, %eax
	addq	$120, %rsp
	popq	%rbx
	popq	%r14
	popq	%r15
	popq	%rbp
	retq
Ltmp97:
Lfunc_end43:
	.cfi_endproc

	.globl	__ZN61_$LT$gmp_mpfr_sys..gmp..mpq_t$u20$as$u20$core..fmt..Debug$GT$3fmt17h18b2ca42a57b0c4eE
	.p2align	4, 0x90
__ZN61_$LT$gmp_mpfr_sys..gmp..mpq_t$u20$as$u20$core..fmt..Debug$GT$3fmt17h18b2ca42a57b0c4eE:
Lfunc_begin44:
	.loc	6 112 0 is_stmt 1
	.cfi_startproc
	pushq	%rbp
	.cfi_def_cfa_offset 16
	.cfi_offset %rbp, -16
	movq	%rsp, %rbp
	.cfi_def_cfa_register %rbp
	subq	$80, %rsp
	movq	%rsi, -40(%rbp)
	movq	%rdi, %rax
	movq	-40(%rbp), %rdi
	movq	%rax, -16(%rbp)
	movq	%rdi, -8(%rbp)
Ltmp98:
	.loc	6 115 5 prologue_end
	movq	%rax, -32(%rbp)
	.loc	6 117 5
	addq	$16, %rax
	movq	%rax, -24(%rbp)
	.loc	6 112 23
	leaq	l___unnamed_26(%rip), %rsi
	movl	$5, %edx
	leaq	l___unnamed_27(%rip), %rcx
	movl	$3, %r8d
	leaq	-32(%rbp), %r9
	leaq	l___unnamed_7(%rip), %rax
	leaq	l___unnamed_28(%rip), %r11
	leaq	-24(%rbp), %r10
	movq	%rax, (%rsp)
	movq	%r11, 8(%rsp)
	movq	$3, 16(%rsp)
	movq	%r10, 24(%rsp)
	movq	%rax, 32(%rsp)
	callq	__ZN4core3fmt9Formatter26debug_struct_field2_finish17h6d8f05a66ed84642E
	.loc	6 112 28 is_stmt 0
	andb	$1, %al
	movzbl	%al, %eax
	addq	$80, %rsp
	popq	%rbp
	retq
Ltmp99:
Lfunc_end44:
	.cfi_endproc

	.globl	__ZN61_$LT$gmp_mpfr_sys..gmp..mpf_t$u20$as$u20$core..fmt..Debug$GT$3fmt17h1dd7715a83578f36E
	.p2align	4, 0x90
__ZN61_$LT$gmp_mpfr_sys..gmp..mpf_t$u20$as$u20$core..fmt..Debug$GT$3fmt17h1dd7715a83578f36E:
Lfunc_begin45:
	.loc	6 125 0 is_stmt 1
	.cfi_startproc
	pushq	%rbp
	.cfi_def_cfa_offset 16
	.cfi_offset %rbp, -16
	movq	%rsp, %rbp
	.cfi_def_cfa_register %rbp
	pushq	%r15
	pushq	%r14
	pushq	%r13
	pushq	%r12
	pushq	%rbx
	subq	$184, %rsp
	.cfi_offset %rbx, -56
	.cfi_offset %r12, -48
	.cfi_offset %r13, -40
	.cfi_offset %r14, -32
	.cfi_offset %r15, -24
	movq	%rsi, -112(%rbp)
	movq	%rdi, %rax
	movq	-112(%rbp), %rdi
	movq	%rax, -56(%rbp)
	movq	%rdi, -48(%rbp)
Ltmp100:
	.loc	6 128 5 prologue_end
	movq	%rax, -88(%rbp)
	.loc	6 130 5
	movq	%rax, %rcx
	addq	$4, %rcx
	movq	%rcx, -80(%rbp)
	.loc	6 132 5
	movq	%rax, %rcx
	addq	$8, %rcx
	movq	%rcx, -72(%rbp)
	.loc	6 134 5
	addq	$16, %rax
	movq	%rax, -64(%rbp)
	.loc	6 125 23
	leaq	l___unnamed_29(%rip), %rsi
	movl	$5, %edx
	leaq	L___unnamed_30(%rip), %rcx
	movl	$4, %r8d
	leaq	-88(%rbp), %r9
	leaq	l___unnamed_5(%rip), %r12
	leaq	L___unnamed_23(%rip), %rax
	movq	%rax, -104(%rbp)
	leaq	-80(%rbp), %r13
	leaq	l___unnamed_31(%rip), %r15
	leaq	-72(%rbp), %r14
	leaq	l___unnamed_8(%rip), %rbx
	leaq	l___unnamed_24(%rip), %r11
	leaq	-64(%rbp), %r10
	leaq	l___unnamed_6(%rip), %rax
	movq	%rax, -96(%rbp)
	movq	-104(%rbp), %rax
	movq	%r12, (%rsp)
	movq	%rax, 8(%rsp)
	movq	-96(%rbp), %rax
	movq	$4, 16(%rsp)
	movq	%r13, 24(%rsp)
	movq	%r12, 32(%rsp)
	movq	%r15, 40(%rsp)
	movq	$3, 48(%rsp)
	movq	%r14, 56(%rsp)
	movq	%rbx, 64(%rsp)
	movq	%r11, 72(%rsp)
	movq	$1, 80(%rsp)
	movq	%r10, 88(%rsp)
	movq	%rax, 96(%rsp)
	callq	__ZN4core3fmt9Formatter26debug_struct_field4_finish17hc95557e28eae37d1E
	.loc	6 125 28 is_stmt 0
	andb	$1, %al
	movzbl	%al, %eax
	addq	$184, %rsp
	popq	%rbx
	popq	%r12
	popq	%r13
	popq	%r14
	popq	%r15
	popq	%rbp
	retq
Ltmp101:
Lfunc_end45:
	.cfi_endproc

	.globl	__ZN67_$LT$gmp_mpfr_sys..gmp..randfnptr_t$u20$as$u20$core..fmt..Debug$GT$3fmt17h4b8c5b2a2da19020E
	.p2align	4, 0x90
__ZN67_$LT$gmp_mpfr_sys..gmp..randfnptr_t$u20$as$u20$core..fmt..Debug$GT$3fmt17h4b8c5b2a2da19020E:
Lfunc_begin46:
	.loc	6 194 0 is_stmt 1
	.cfi_startproc
	pushq	%rbp
	.cfi_def_cfa_offset 16
	.cfi_offset %rbp, -16
	movq	%rsp, %rbp
	.cfi_def_cfa_register %rbp
	pushq	%r15
	pushq	%r14
	pushq	%r13
	pushq	%r12
	pushq	%rbx
	subq	$184, %rsp
	.cfi_offset %rbx, -56
	.cfi_offset %r12, -48
	.cfi_offset %r13, -40
	.cfi_offset %r14, -32
	.cfi_offset %r15, -24
	movq	%rsi, -120(%rbp)
	movq	%rdi, %rax
	movq	-120(%rbp), %rdi
	movq	%rax, -56(%rbp)
	movq	%rdi, -48(%rbp)
Ltmp102:
	.loc	6 197 5 prologue_end
	movq	%rax, -88(%rbp)
	.loc	6 199 5
	movq	%rax, %rcx
	addq	$8, %rcx
	movq	%rcx, -80(%rbp)
	.loc	6 201 5
	movq	%rax, %rcx
	addq	$16, %rcx
	movq	%rcx, -72(%rbp)
	.loc	6 203 5
	addq	$24, %rax
	movq	%rax, -64(%rbp)
	.loc	6 194 23
	leaq	l___unnamed_32(%rip), %rsi
	movl	$11, %edx
	leaq	L___unnamed_17(%rip), %rcx
	movl	$4, %r8d
	leaq	-88(%rbp), %r9
	leaq	l___unnamed_9(%rip), %rax
	movq	%rax, -112(%rbp)
	leaq	l___unnamed_33(%rip), %rax
	movq	%rax, -104(%rbp)
	leaq	-80(%rbp), %r13
	leaq	l___unnamed_10(%rip), %r12
	leaq	l___unnamed_34(%rip), %r15
	leaq	-72(%rbp), %r14
	leaq	l___unnamed_11(%rip), %rbx
	leaq	L___unnamed_35(%rip), %r11
	leaq	-64(%rbp), %r10
	leaq	l___unnamed_12(%rip), %rax
	movq	%rax, -96(%rbp)
	movq	-112(%rbp), %rax
	movq	%rax, (%rsp)
	movq	-104(%rbp), %rax
	movq	%rax, 8(%rsp)
	movq	-96(%rbp), %rax
	movq	$3, 16(%rsp)
	movq	%r13, 24(%rsp)
	movq	%r12, 32(%rsp)
	movq	%r15, 40(%rsp)
	movq	$5, 48(%rsp)
	movq	%r14, 56(%rsp)
	movq	%rbx, 64(%rsp)
	movq	%r11, 72(%rsp)
	movq	$4, 80(%rsp)
	movq	%r10, 88(%rsp)
	movq	%rax, 96(%rsp)
	callq	__ZN4core3fmt9Formatter26debug_struct_field4_finish17hc95557e28eae37d1E
	.loc	6 194 28 is_stmt 0
	andb	$1, %al
	movzbl	%al, %eax
	addq	$184, %rsp
	popq	%rbx
	popq	%r12
	popq	%r13
	popq	%r14
	popq	%r15
	popq	%rbp
	retq
Ltmp103:
Lfunc_end46:
	.cfi_endproc

	.globl	__ZN61_$LT$gmp_mpfr_sys..mpc..mpc_t$u20$as$u20$core..fmt..Debug$GT$3fmt17h717978e4f7a0f1bcE
	.p2align	4, 0x90
__ZN61_$LT$gmp_mpfr_sys..mpc..mpc_t$u20$as$u20$core..fmt..Debug$GT$3fmt17h717978e4f7a0f1bcE:
Lfunc_begin47:
	.file	7 "/Users/natalie/.cargo/registry/src/github.com-1ecc6299db9ec823/gmp-mpfr-sys-1.5.0" "src/mpc.rs"
	.loc	7 148 0 is_stmt 1
	.cfi_startproc
	pushq	%rbp
	.cfi_def_cfa_offset 16
	.cfi_offset %rbp, -16
	movq	%rsp, %rbp
	.cfi_def_cfa_register %rbp
	subq	$80, %rsp
	movq	%rsi, -40(%rbp)
	movq	%rdi, %rax
	movq	-40(%rbp), %rdi
	movq	%rax, -16(%rbp)
	movq	%rdi, -8(%rbp)
Ltmp104:
	.loc	7 151 5 prologue_end
	movq	%rax, -32(%rbp)
	.loc	7 153 5
	addq	$32, %rax
	movq	%rax, -24(%rbp)
	.loc	7 148 23
	leaq	l___unnamed_36(%rip), %rsi
	movl	$5, %edx
	leaq	l___unnamed_37(%rip), %rcx
	movl	$2, %r8d
	leaq	-32(%rbp), %r9
	leaq	l___unnamed_13(%rip), %rax
	leaq	l___unnamed_38(%rip), %r11
	leaq	-24(%rbp), %r10
	movq	%rax, (%rsp)
	movq	%r11, 8(%rsp)
	movq	$2, 16(%rsp)
	movq	%r10, 24(%rsp)
	movq	%rax, 32(%rsp)
	callq	__ZN4core3fmt9Formatter26debug_struct_field2_finish17h6d8f05a66ed84642E
	.loc	7 148 28 is_stmt 0
	andb	$1, %al
	movzbl	%al, %eax
	addq	$80, %rsp
	popq	%rbp
	retq
Ltmp105:
Lfunc_end47:
	.cfi_endproc

	.globl	__ZN62_$LT$gmp_mpfr_sys..mpc..mpcr_t$u20$as$u20$core..fmt..Debug$GT$3fmt17h2eb6a6f87931ffe7E
	.p2align	4, 0x90
__ZN62_$LT$gmp_mpfr_sys..mpc..mpcr_t$u20$as$u20$core..fmt..Debug$GT$3fmt17h2eb6a6f87931ffe7E:
Lfunc_begin48:
	.loc	7 161 0 is_stmt 1
	.cfi_startproc
	pushq	%rbp
	.cfi_def_cfa_offset 16
	.cfi_offset %rbp, -16
	movq	%rsp, %rbp
	.cfi_def_cfa_register %rbp
	subq	$80, %rsp
	movq	%rsi, -40(%rbp)
	movq	%rdi, %rax
	movq	-40(%rbp), %rdi
	movq	%rax, -16(%rbp)
	movq	%rdi, -8(%rbp)
Ltmp106:
	.loc	7 164 5 prologue_end
	movq	%rax, -32(%rbp)
	.loc	7 166 5
	addq	$8, %rax
	movq	%rax, -24(%rbp)
	.loc	7 161 23
	leaq	l___unnamed_39(%rip), %rsi
	movl	$6, %edx
	leaq	L___unnamed_40(%rip), %rcx
	movl	$4, %r8d
	leaq	-32(%rbp), %r9
	leaq	l___unnamed_8(%rip), %rax
	leaq	l___unnamed_31(%rip), %r11
	leaq	-24(%rbp), %r10
	movq	%rax, (%rsp)
	movq	%r11, 8(%rsp)
	movq	$3, 16(%rsp)
	movq	%r10, 24(%rsp)
	movq	%rax, 32(%rsp)
	callq	__ZN4core3fmt9Formatter26debug_struct_field2_finish17h6d8f05a66ed84642E
	.loc	7 161 28 is_stmt 0
	andb	$1, %al
	movzbl	%al, %eax
	addq	$80, %rsp
	popq	%rbp
	retq
Ltmp107:
Lfunc_end48:
	.cfi_endproc

	.globl	__ZN62_$LT$gmp_mpfr_sys..mpc..mpcb_t$u20$as$u20$core..fmt..Debug$GT$3fmt17hae8f7f2ec165f6faE
	.p2align	4, 0x90
__ZN62_$LT$gmp_mpfr_sys..mpc..mpcb_t$u20$as$u20$core..fmt..Debug$GT$3fmt17hae8f7f2ec165f6faE:
Lfunc_begin49:
	.loc	7 174 0 is_stmt 1
	.cfi_startproc
	pushq	%rbp
	.cfi_def_cfa_offset 16
	.cfi_offset %rbp, -16
	movq	%rsp, %rbp
	.cfi_def_cfa_register %rbp
	pushq	%rbx
	subq	$88, %rsp
	.cfi_offset %rbx, -24
	movq	%rsi, -48(%rbp)
	movq	%rdi, %rax
	movq	-48(%rbp), %rdi
	movq	%rax, -24(%rbp)
	movq	%rdi, -16(%rbp)
Ltmp108:
	.loc	7 177 5 prologue_end
	movq	%rax, -40(%rbp)
	.loc	7 179 5
	addq	$64, %rax
	movq	%rax, -32(%rbp)
	.loc	7 174 23
	leaq	l___unnamed_41(%rip), %rsi
	movl	$6, %edx
	leaq	l___unnamed_42(%rip), %rcx
	movl	$1, %r8d
	leaq	-40(%rbp), %r9
	leaq	l___unnamed_14(%rip), %rbx
	leaq	l___unnamed_43(%rip), %r11
	leaq	-32(%rbp), %r10
	leaq	l___unnamed_15(%rip), %rax
	movq	%rbx, (%rsp)
	movq	%r11, 8(%rsp)
	movq	$1, 16(%rsp)
	movq	%r10, 24(%rsp)
	movq	%rax, 32(%rsp)
	callq	__ZN4core3fmt9Formatter26debug_struct_field2_finish17h6d8f05a66ed84642E
	.loc	7 174 28 is_stmt 0
	andb	$1, %al
	movzbl	%al, %eax
	addq	$88, %rsp
	popq	%rbx
	popq	%rbp
	retq
Ltmp109:
Lfunc_end49:
	.cfi_endproc

	.globl	__ZN62_$LT$gmp_mpfr_sys..mpfr..rnd_t$u20$as$u20$core..fmt..Debug$GT$3fmt17h605bb79c7b8d0354E
	.p2align	4, 0x90
__ZN62_$LT$gmp_mpfr_sys..mpfr..rnd_t$u20$as$u20$core..fmt..Debug$GT$3fmt17h605bb79c7b8d0354E:
Lfunc_begin50:
	.file	8 "/Users/natalie/.cargo/registry/src/github.com-1ecc6299db9ec823/gmp-mpfr-sys-1.5.0" "src/mpfr.rs"
	.loc	8 129 0 is_stmt 1
	.cfi_startproc
	pushq	%rbp
	.cfi_def_cfa_offset 16
	.cfi_offset %rbp, -16
	movq	%rsp, %rbp
	.cfi_def_cfa_register %rbp
	subq	$48, %rsp
	movq	%rsi, -48(%rbp)
	movq	%rdi, -16(%rbp)
	movq	%rsi, -8(%rbp)
Ltmp110:
	.loc	8 129 23 prologue_end
	movslq	(%rdi), %rax
	incq	%rax
	movq	%rax, -40(%rbp)
	.loc	8 0 23 is_stmt 0
	movq	-40(%rbp), %rax
	leaq	LJTI50_0(%rip), %rcx
	movslq	(%rcx,%rax,4), %rax
	addq	%rcx, %rax
	jmpq	*%rax
	.loc	8 129 23
	ud2
LBB50_2:
	leaq	L___unnamed_44(%rip), %rax
	movq	%rax, -32(%rbp)
	movq	$4, -24(%rbp)
	.loc	8 129 27
	jmp	LBB50_9
LBB50_3:
	.loc	8 129 23
	leaq	L___unnamed_45(%rip), %rax
	movq	%rax, -32(%rbp)
	movq	$4, -24(%rbp)
	.loc	8 129 27
	jmp	LBB50_9
LBB50_4:
	.loc	8 129 23
	leaq	L___unnamed_46(%rip), %rax
	movq	%rax, -32(%rbp)
	movq	$4, -24(%rbp)
	.loc	8 129 27
	jmp	LBB50_9
LBB50_5:
	.loc	8 129 23
	leaq	L___unnamed_47(%rip), %rax
	movq	%rax, -32(%rbp)
	movq	$4, -24(%rbp)
	.loc	8 129 27
	jmp	LBB50_9
LBB50_6:
	.loc	8 129 23
	leaq	L___unnamed_48(%rip), %rax
	movq	%rax, -32(%rbp)
	movq	$4, -24(%rbp)
	.loc	8 129 27
	jmp	LBB50_9
LBB50_7:
	.loc	8 129 23
	leaq	L___unnamed_49(%rip), %rax
	movq	%rax, -32(%rbp)
	movq	$4, -24(%rbp)
	.loc	8 129 27
	jmp	LBB50_9
LBB50_8:
	.loc	8 129 23
	leaq	l___unnamed_50(%rip), %rax
	movq	%rax, -32(%rbp)
	movq	$5, -24(%rbp)
LBB50_9:
	.loc	8 0 23
	movq	-48(%rbp), %rdi
	.loc	8 129 23
	movq	-32(%rbp), %rsi
	movq	-24(%rbp), %rdx
	callq	__ZN4core3fmt9Formatter9write_str17hb029d9999327a35fE
	.loc	8 129 28
	andb	$1, %al
	movzbl	%al, %eax
	addq	$48, %rsp
	popq	%rbp
	retq
Ltmp111:
Lfunc_end50:
	.cfi_endproc
	.p2align	2, 0x90
	.data_region jt32
.set L50_0_set_8, LBB50_8-LJTI50_0
.set L50_0_set_2, LBB50_2-LJTI50_0
.set L50_0_set_3, LBB50_3-LJTI50_0
.set L50_0_set_4, LBB50_4-LJTI50_0
.set L50_0_set_5, LBB50_5-LJTI50_0
.set L50_0_set_6, LBB50_6-LJTI50_0
.set L50_0_set_7, LBB50_7-LJTI50_0
LJTI50_0:
	.long	L50_0_set_8
	.long	L50_0_set_2
	.long	L50_0_set_3
	.long	L50_0_set_4
	.long	L50_0_set_5
	.long	L50_0_set_6
	.long	L50_0_set_7
	.end_data_region

	.globl	__ZN63_$LT$gmp_mpfr_sys..mpfr..mpfr_t$u20$as$u20$core..fmt..Debug$GT$3fmt17heb63ea7b5cdb107dE
	.p2align	4, 0x90
__ZN63_$LT$gmp_mpfr_sys..mpfr..mpfr_t$u20$as$u20$core..fmt..Debug$GT$3fmt17heb63ea7b5cdb107dE:
Lfunc_begin51:
	.loc	8 201 0 is_stmt 1
	.cfi_startproc
	pushq	%rbp
	.cfi_def_cfa_offset 16
	.cfi_offset %rbp, -16
	movq	%rsp, %rbp
	.cfi_def_cfa_register %rbp
	pushq	%r15
	pushq	%r14
	pushq	%r13
	pushq	%r12
	pushq	%rbx
	subq	$184, %rsp
	.cfi_offset %rbx, -56
	.cfi_offset %r12, -48
	.cfi_offset %r13, -40
	.cfi_offset %r14, -32
	.cfi_offset %r15, -24
	movq	%rsi, -112(%rbp)
	movq	%rdi, %rax
	movq	-112(%rbp), %rdi
	movq	%rax, -56(%rbp)
	movq	%rdi, -48(%rbp)
Ltmp112:
	.loc	8 204 5 prologue_end
	movq	%rax, -88(%rbp)
	.loc	8 206 5
	movq	%rax, %rcx
	addq	$8, %rcx
	movq	%rcx, -80(%rbp)
	.loc	8 208 5
	movq	%rax, %rcx
	addq	$16, %rcx
	movq	%rcx, -72(%rbp)
	.loc	8 210 5
	addq	$24, %rax
	movq	%rax, -64(%rbp)
	.loc	8 201 23
	leaq	l___unnamed_51(%rip), %rsi
	movl	$6, %edx
	leaq	L___unnamed_30(%rip), %rcx
	movl	$4, %r8d
	leaq	-88(%rbp), %r9
	leaq	l___unnamed_8(%rip), %rbx
	leaq	L___unnamed_52(%rip), %rax
	movq	%rax, -104(%rbp)
	leaq	-80(%rbp), %r13
	leaq	l___unnamed_5(%rip), %r12
	leaq	l___unnamed_31(%rip), %r15
	leaq	-72(%rbp), %r14
	leaq	l___unnamed_24(%rip), %r11
	leaq	-64(%rbp), %r10
	leaq	l___unnamed_6(%rip), %rax
	movq	%rax, -96(%rbp)
	movq	-104(%rbp), %rax
	movq	%rbx, (%rsp)
	movq	%rax, 8(%rsp)
	movq	-96(%rbp), %rax
	movq	$4, 16(%rsp)
	movq	%r13, 24(%rsp)
	movq	%r12, 32(%rsp)
	movq	%r15, 40(%rsp)
	movq	$3, 48(%rsp)
	movq	%r14, 56(%rsp)
	movq	%rbx, 64(%rsp)
	movq	%r11, 72(%rsp)
	movq	$1, 80(%rsp)
	movq	%r10, 88(%rsp)
	movq	%rax, 96(%rsp)
	callq	__ZN4core3fmt9Formatter26debug_struct_field4_finish17hc95557e28eae37d1E
	.loc	8 201 28 is_stmt 0
	andb	$1, %al
	movzbl	%al, %eax
	addq	$184, %rsp
	popq	%rbx
	popq	%r12
	popq	%r13
	popq	%r14
	popq	%r15
	popq	%rbp
	retq
Ltmp113:
Lfunc_end51:
	.cfi_endproc

	.section	__TEXT,__const
l___unnamed_16:
	.ascii	"randstate_t"

	.section	__TEXT,__literal4,4byte_literals
L___unnamed_17:
	.ascii	"seed"

	.section	__DATA,__const
	.p2align	3
l___unnamed_1:
	.quad	__ZN4core3ptr50drop_in_place$LT$gmp_mpfr_sys..gmp..randseed_t$GT$17h3a87928b6c3bea6fE
	.asciz	"\020\000\000\000\000\000\000\000\b\000\000\000\000\000\000"
	.quad	__ZN66_$LT$gmp_mpfr_sys..gmp..randseed_t$u20$as$u20$core..fmt..Debug$GT$3fmt17ha350465ac864afa6E

	.section	__TEXT,__const
l___unnamed_18:
	.ascii	"alg"

l___unnamed_53:
	.ascii	"unused"

	.section	__DATA,__const
	.p2align	3
l___unnamed_19:
	.quad	l___unnamed_53
	.asciz	"\006\000\000\000\000\000\000"

	.p2align	3
l___unnamed_2:
	.quad	__ZN4core3ptr28drop_in_place$LT$$RF$str$GT$17h449059a8c18b50aeE
	.asciz	"\020\000\000\000\000\000\000\000\b\000\000\000\000\000\000"
	.quad	__ZN42_$LT$$RF$T$u20$as$u20$core..fmt..Debug$GT$3fmt17h3ef4577ec035677fE

	.section	__TEXT,__const
l___unnamed_20:
	.ascii	"algdata"

	.section	__DATA,__const
	.p2align	3
l___unnamed_3:
	.quad	__ZN4core3ptr65drop_in_place$LT$$BP$const$u20$gmp_mpfr_sys..gmp..randfnptr_t$GT$17hf9186a63024075a5E
	.asciz	"\b\000\000\000\000\000\000\000\b\000\000\000\000\000\000"
	.quad	__ZN52_$LT$$BP$const$u20$T$u20$as$u20$core..fmt..Debug$GT$3fmt17h436a4f0958369ee1E

	.section	__TEXT,__const
l___unnamed_21:
	.ascii	"randseed_t"

l___unnamed_22:
	.ascii	"alloc"

	.section	__TEXT,__literal4,4byte_literals
L___unnamed_23:
	.ascii	"size"

	.section	__TEXT,__const
l___unnamed_24:
	.byte	100

	.section	__DATA,__const
	.p2align	3
l___unnamed_4:
	.quad	__ZN4core3ptr74drop_in_place$LT$core..ptr..non_null..NonNull$LT$core..ffi..c_void$GT$$GT$17heecb85d1d289f21cE
	.asciz	"\b\000\000\000\000\000\000\000\b\000\000\000\000\000\000"
	.quad	__ZN74_$LT$core..ptr..non_null..NonNull$LT$T$GT$$u20$as$u20$core..fmt..Debug$GT$3fmt17hfa85de1ac3690390E

	.section	__TEXT,__const
l___unnamed_25:
	.ascii	"mpz_t"

	.section	__DATA,__const
	.p2align	3
l___unnamed_5:
	.quad	__ZN4core3ptr28drop_in_place$LT$$RF$i32$GT$17h220546a77491ad93E
	.asciz	"\b\000\000\000\000\000\000\000\b\000\000\000\000\000\000"
	.quad	__ZN42_$LT$$RF$T$u20$as$u20$core..fmt..Debug$GT$3fmt17h10767f756727928cE

	.p2align	3
l___unnamed_6:
	.quad	__ZN4core3ptr64drop_in_place$LT$$RF$core..ptr..non_null..NonNull$LT$u64$GT$$GT$17hd47d1a0978a385d0E
	.asciz	"\b\000\000\000\000\000\000\000\b\000\000\000\000\000\000"
	.quad	__ZN42_$LT$$RF$T$u20$as$u20$core..fmt..Debug$GT$3fmt17h98afafe710cba2feE

	.section	__TEXT,__const
l___unnamed_26:
	.ascii	"mpq_t"

l___unnamed_27:
	.ascii	"num"

	.section	__DATA,__const
	.p2align	3
l___unnamed_7:
	.quad	__ZN4core3ptr49drop_in_place$LT$$RF$gmp_mpfr_sys..gmp..mpz_t$GT$17h9ab5bced7a561121E
	.asciz	"\b\000\000\000\000\000\000\000\b\000\000\000\000\000\000"
	.quad	__ZN42_$LT$$RF$T$u20$as$u20$core..fmt..Debug$GT$3fmt17h52d5c93e5aac9fedE

	.section	__TEXT,__const
l___unnamed_28:
	.ascii	"den"

l___unnamed_29:
	.ascii	"mpf_t"

	.section	__TEXT,__literal4,4byte_literals
L___unnamed_30:
	.ascii	"prec"

	.section	__TEXT,__const
l___unnamed_31:
	.ascii	"exp"

	.section	__DATA,__const
	.p2align	3
l___unnamed_8:
	.quad	__ZN4core3ptr28drop_in_place$LT$$RF$i64$GT$17h71553fdd1ea62e2fE
	.asciz	"\b\000\000\000\000\000\000\000\b\000\000\000\000\000\000"
	.quad	__ZN42_$LT$$RF$T$u20$as$u20$core..fmt..Debug$GT$3fmt17h0c63b453639759c7E

	.section	__TEXT,__const
l___unnamed_32:
	.ascii	"randfnptr_t"

	.section	__DATA,__const
	.p2align	3
l___unnamed_9:
	.quad	__ZN4core3ptr156drop_in_place$LT$$RF$unsafe$u20$extern$u20$$u22$C$u22$$u20$fn$LP$$BP$mut$u20$gmp_mpfr_sys..gmp..randstate_t$C$$BP$const$u20$gmp_mpfr_sys..gmp..mpz_t$RP$$GT$17hbb57550ed0f5fd3cE
	.asciz	"\b\000\000\000\000\000\000\000\b\000\000\000\000\000\000"
	.quad	__ZN42_$LT$$RF$T$u20$as$u20$core..fmt..Debug$GT$3fmt17h1416a73ff502afc5E

	.section	__TEXT,__const
l___unnamed_33:
	.ascii	"get"

	.section	__DATA,__const
	.p2align	3
l___unnamed_10:
	.quad	__ZN4core3ptr139drop_in_place$LT$$RF$unsafe$u20$extern$u20$$u22$C$u22$$u20$fn$LP$$BP$mut$u20$gmp_mpfr_sys..gmp..randstate_t$C$$BP$mut$u20$u64$C$u64$RP$$GT$17h8a82c2e535c8229bE
	.asciz	"\b\000\000\000\000\000\000\000\b\000\000\000\000\000\000"
	.quad	__ZN42_$LT$$RF$T$u20$as$u20$core..fmt..Debug$GT$3fmt17h3011626d70a0c1ecE

	.section	__TEXT,__const
l___unnamed_34:
	.ascii	"clear"

	.section	__DATA,__const
	.p2align	3
l___unnamed_11:
	.quad	__ZN4core3ptr115drop_in_place$LT$$RF$unsafe$u20$extern$u20$$u22$C$u22$$u20$fn$LP$$BP$mut$u20$gmp_mpfr_sys..gmp..randstate_t$RP$$GT$17hcf833b42949e3b50E
	.asciz	"\b\000\000\000\000\000\000\000\b\000\000\000\000\000\000"
	.quad	__ZN42_$LT$$RF$T$u20$as$u20$core..fmt..Debug$GT$3fmt17h4231db529019c085E

	.section	__TEXT,__literal4,4byte_literals
L___unnamed_35:
	.ascii	"iset"

	.section	__DATA,__const
	.p2align	3
l___unnamed_12:
	.quad	__ZN4core3ptr162drop_in_place$LT$$RF$unsafe$u20$extern$u20$$u22$C$u22$$u20$fn$LP$$BP$mut$u20$gmp_mpfr_sys..gmp..randstate_t$C$$BP$const$u20$gmp_mpfr_sys..gmp..randstate_t$RP$$GT$17h6278a923f32dbad0E
	.asciz	"\b\000\000\000\000\000\000\000\b\000\000\000\000\000\000"
	.quad	__ZN42_$LT$$RF$T$u20$as$u20$core..fmt..Debug$GT$3fmt17ha2fc85956b226413E

	.section	__TEXT,__const
l___unnamed_36:
	.ascii	"mpc_t"

l___unnamed_37:
	.ascii	"re"

	.section	__DATA,__const
	.p2align	3
l___unnamed_13:
	.quad	__ZN4core3ptr51drop_in_place$LT$$RF$gmp_mpfr_sys..mpfr..mpfr_t$GT$17h7d1dd1bd75d70e20E
	.asciz	"\b\000\000\000\000\000\000\000\b\000\000\000\000\000\000"
	.quad	__ZN42_$LT$$RF$T$u20$as$u20$core..fmt..Debug$GT$3fmt17h2f5608bb302648deE

	.section	__TEXT,__const
l___unnamed_38:
	.ascii	"im"

l___unnamed_39:
	.ascii	"mpcr_t"

	.section	__TEXT,__literal4,4byte_literals
L___unnamed_40:
	.ascii	"mant"

	.section	__TEXT,__const
l___unnamed_41:
	.ascii	"mpcb_t"

l___unnamed_42:
	.byte	99

	.section	__DATA,__const
	.p2align	3
l___unnamed_14:
	.quad	__ZN4core3ptr49drop_in_place$LT$$RF$gmp_mpfr_sys..mpc..mpc_t$GT$17h7484e7b046a0d3e1E
	.asciz	"\b\000\000\000\000\000\000\000\b\000\000\000\000\000\000"
	.quad	__ZN42_$LT$$RF$T$u20$as$u20$core..fmt..Debug$GT$3fmt17h250b851625618017E

	.section	__TEXT,__const
l___unnamed_43:
	.byte	114

	.section	__DATA,__const
	.p2align	3
l___unnamed_15:
	.quad	__ZN4core3ptr50drop_in_place$LT$$RF$gmp_mpfr_sys..mpc..mpcr_t$GT$17hc2d4e805749d7bd8E
	.asciz	"\b\000\000\000\000\000\000\000\b\000\000\000\000\000\000"
	.quad	__ZN42_$LT$$RF$T$u20$as$u20$core..fmt..Debug$GT$3fmt17he903af9df89ff18aE

	.section	__TEXT,__const
l___unnamed_50:
	.ascii	"RNDNA"

	.section	__TEXT,__literal4,4byte_literals
L___unnamed_49:
	.ascii	"RNDF"

L___unnamed_48:
	.ascii	"RNDA"

L___unnamed_47:
	.ascii	"RNDD"

L___unnamed_46:
	.ascii	"RNDU"

L___unnamed_45:
	.ascii	"RNDZ"

L___unnamed_44:
	.ascii	"RNDN"

	.section	__TEXT,__const
l___unnamed_51:
	.ascii	"mpfr_t"

	.section	__TEXT,__literal4,4byte_literals
L___unnamed_52:
	.ascii	"sign"

	.section	__DATA,__const
Lsec_end0:
	.section	__TEXT,__text,regular,pure_instructions
Lsec_end1: