	.section	__TEXT,__text,regular,pure_instructions
	.macosx_version_min 10, 7
	.p2align	4, 0x90
__ZN108_$LT$rug..float..arith..MulIncomplete$u20$as$u20$core..ops..arith..Add$LT$$RF$rug..float..big..Float$GT$$GT$3add17h888f0e5e1a89414dE:
Lfunc_begin0:
	.file	1 "/Users/natalie/.cargo/registry/src/github.com-1ecc6299db9ec823/rug-1.19.0/src" "macros.rs"
	.loc	1 2383 0
	.cfi_startproc
	pushq	%rbp
	.cfi_def_cfa_offset 16
	.cfi_offset %rbp, -16
	movq	%rsp, %rbp
	.cfi_def_cfa_register %rbp
	subq	$48, %rsp
	movq	%rcx, -40(%rbp)
	movq	%rdx, %rcx
	movq	%rsi, %rdx
	movq	-40(%rbp), %rsi
	movq	%rdi, %rax
	movq	%rax, -32(%rbp)
	movq	%rdx, -24(%rbp)
	movq	%rcx, -16(%rbp)
	movq	%rsi, -8(%rbp)
Ltmp0:
	.loc	1 2384 17 prologue_end
	callq	__ZN3rug5float5arith118_$LT$impl$u20$core..ops..arith..Add$LT$rug..float..arith..MulIncomplete$GT$$u20$for$u20$$RF$rug..float..big..Float$GT$3add17h975b6f6068d50a38E
	movq	-32(%rbp), %rax
	.loc	1 2385 14
	addq	$48, %rsp
	popq	%rbp
	retq
Ltmp1:
Lfunc_end0:
	.cfi_endproc

	.p2align	4, 0x90
__ZN11egui_extras5image13RetainedImage16from_color_image17h9e4c20b6edd0fe12E:
Lfunc_begin1:
	.file	2 "/Users/natalie/.cargo/registry/src/github.com-1ecc6299db9ec823/egui_extras-0.19.0/src" "image.rs"
	.loc	2 20 0
	.cfi_startproc
	.cfi_personality 155, _rust_eh_personality
	.cfi_lsda 16, Lexception0
	pushq	%rbp
	.cfi_def_cfa_offset 16
	.cfi_offset %rbp, -16
	movq	%rsp, %rbp
	.cfi_def_cfa_register %rbp
	subq	$320, %rsp
	movq	%rcx, -312(%rbp)
Ltmp23:
	movq	%rdi, -304(%rbp)
	movq	%rdi, -296(%rbp)
	movq	%rsi, -120(%rbp)
	movq	%rdx, -112(%rbp)
Ltmp24:
	.loc	2 22 25 prologue_end
	movb	$0, -121(%rbp)
	movb	$1, -121(%rbp)
Ltmp2:
	leaq	-288(%rbp), %rdi
	callq	__ZN50_$LT$T$u20$as$u20$core..convert..Into$LT$U$GT$$GT$4into17h43c8d5e4abd97705E
Ltmp25:
Ltmp3:
	jmp	LBB1_3
Ltmp26:
LBB1_1:
	.loc	2 28 5
	testb	$1, -121(%rbp)
	jne	LBB1_16
	jmp	LBB1_15
Ltmp27:
LBB1_2:
Ltmp4:
	.loc	2 0 5 is_stmt 0
	movq	%rax, %rcx
	movl	%edx, %eax
	movq	%rcx, -104(%rbp)
	movl	%eax, -96(%rbp)
	jmp	LBB1_1
Ltmp28:
LBB1_3:
	movq	-312(%rbp), %rcx
	.loc	2 23 19 is_stmt 1
	movq	(%rcx), %rax
	movq	8(%rcx), %rdx
	movq	%rdx, -256(%rbp)
	movq	%rax, -264(%rbp)
	.loc	2 24 31
	movb	$0, -121(%rbp)
	movq	32(%rcx), %rax
	movq	%rax, -168(%rbp)
	movq	24(%rcx), %rax
	movq	%rax, -176(%rbp)
	movq	16(%rcx), %rax
	movq	%rax, -184(%rbp)
	movq	(%rcx), %rax
	movq	8(%rcx), %rcx
	movq	%rcx, -192(%rbp)
	movq	%rax, -200(%rbp)
Ltmp29:
	.file	3 "/Users/natalie/.cargo/registry/src/github.com-1ecc6299db9ec823/epaint-0.19.0/src" "mutex.rs"
	.loc	3 69 42
	movq	-168(%rbp), %rax
	movq	%rax, -8(%rbp)
	movq	-176(%rbp), %rax
	movq	%rax, -16(%rbp)
	movq	-184(%rbp), %rax
	movq	%rax, -24(%rbp)
	movq	-200(%rbp), %rax
	movq	-192(%rbp), %rcx
	movq	%rcx, -32(%rbp)
	movq	%rax, -40(%rbp)
Ltmp5:
	leaq	-88(%rbp), %rdi
	leaq	-40(%rbp), %rsi
	.loc	3 69 18 is_stmt 0
	callq	__ZN8lock_api5mutex18Mutex$LT$R$C$T$GT$3new17h3b048ec638c6400fE
Ltmp6:
	jmp	LBB1_4
Ltmp30:
LBB1_4:
	.loc	3 69 13
	leaq	-248(%rbp), %rdi
	leaq	-88(%rbp), %rsi
	movl	$48, %edx
	callq	_memcpy
	.loc	3 70 10 is_stmt 1
	jmp	LBB1_7
Ltmp31:
LBB1_5:
Ltmp18:
	.loc	3 0 10 is_stmt 0
	leaq	-288(%rbp), %rdi
	.loc	2 27 9 is_stmt 1
	callq	__ZN4core3ptr42drop_in_place$LT$alloc..string..String$GT$17hef0d0483296c488eE
Ltmp19:
	jmp	LBB1_1
Ltmp32:
LBB1_6:
Ltmp7:
	.loc	2 0 9 is_stmt 0
	movq	%rax, %rcx
	movl	%edx, %eax
	movq	%rcx, -104(%rbp)
	movl	%eax, -96(%rbp)
	jmp	LBB1_5
Ltmp33:
LBB1_7:
Ltmp8:
	leaq	-160(%rbp), %rdi
	.loc	2 25 22 is_stmt 1
	callq	__ZN84_$LT$epaint..mutex..mutex_impl..Mutex$LT$T$GT$$u20$as$u20$core..default..Default$GT$7default17h9a004f1cd038cd5dE
Ltmp9:
	jmp	LBB1_10
Ltmp34:
LBB1_8:
Ltmp16:
	.loc	2 0 22 is_stmt 0
	leaq	-248(%rbp), %rdi
	.loc	2 27 9 is_stmt 1
	callq	__ZN4core3ptr86drop_in_place$LT$epaint..mutex..mutex_impl..Mutex$LT$epaint..image..ColorImage$GT$$GT$17he9cffaf7a3419d1dE
Ltmp17:
	jmp	LBB1_5
Ltmp35:
LBB1_9:
Ltmp10:
	.loc	2 0 9 is_stmt 0
	movq	%rax, %rcx
	movl	%edx, %eax
	movq	%rcx, -104(%rbp)
	movl	%eax, -96(%rbp)
	jmp	LBB1_8
Ltmp36:
LBB1_10:
Ltmp11:
	.loc	2 26 21 is_stmt 1
	callq	__ZN74_$LT$epaint..textures..TextureFilter$u20$as$u20$core..default..Default$GT$7default17h02a57b225e702439E
Ltmp12:
	movb	%al, -313(%rbp)
	jmp	LBB1_13
Ltmp37:
LBB1_11:
Ltmp14:
	.loc	2 0 21 is_stmt 0
	leaq	-160(%rbp), %rdi
	.loc	2 27 9 is_stmt 1
	callq	__ZN4core3ptr126drop_in_place$LT$epaint..mutex..mutex_impl..Mutex$LT$core..option..Option$LT$epaint..texture_handle..TextureHandle$GT$$GT$$GT$17hc22f336e1f9f11beE
Ltmp15:
	jmp	LBB1_8
Ltmp38:
LBB1_12:
Ltmp13:
	.loc	2 0 9 is_stmt 0
	movq	%rax, %rcx
	movl	%edx, %eax
	movq	%rcx, -104(%rbp)
	movl	%eax, -96(%rbp)
	jmp	LBB1_11
Ltmp39:
LBB1_13:
	movq	-304(%rbp), %rdi
	.loc	2 21 9 is_stmt 1
	movq	-288(%rbp), %rax
	movq	%rax, 96(%rdi)
	movq	-280(%rbp), %rax
	movq	%rax, 104(%rdi)
	movq	-272(%rbp), %rax
	movq	%rax, 112(%rdi)
	movq	-264(%rbp), %rax
	movq	%rax, 32(%rdi)
	movq	-256(%rbp), %rax
	movq	%rax, 40(%rdi)
	addq	$48, %rdi
	leaq	-248(%rbp), %rsi
	movl	$48, %edx
	callq	_memcpy
	movb	-313(%rbp), %dl
	movq	-304(%rbp), %rcx
	movq	-296(%rbp), %rax
	movq	-160(%rbp), %rsi
	movq	%rsi, (%rcx)
	movq	-152(%rbp), %rsi
	movq	%rsi, 8(%rcx)
	movq	-144(%rbp), %rsi
	movq	%rsi, 16(%rcx)
	movq	-136(%rbp), %rsi
	movq	%rsi, 24(%rcx)
	andb	$1, %dl
	movb	%dl, 120(%rcx)
	.loc	2 28 6
	addq	$320, %rsp
	popq	%rbp
	retq
Ltmp40:
LBB1_14:
Ltmp22:
	.loc	2 20 5
	callq	__ZN4core9panicking19panic_cannot_unwind17h1fbca7e1d7f56ae1E
Ltmp41:
LBB1_15:
	movq	-104(%rbp), %rdi
	callq	__Unwind_Resume
Ltmp42:
LBB1_16:
Ltmp20:
	.loc	2 0 5 is_stmt 0
	movq	-312(%rbp), %rdi
	.loc	2 28 5 is_stmt 1
	callq	__ZN4core3ptr46drop_in_place$LT$epaint..image..ColorImage$GT$17h838bfb55476fead7E
Ltmp21:
	jmp	LBB1_15
Ltmp43:
Lfunc_end1:
	.cfi_endproc
	.section	__TEXT,__gcc_except_tab
	.p2align	2
GCC_except_table1:
Lexception0:
	.byte	255
	.byte	255
	.byte	1
	.uleb128 Lcst_end0-Lcst_begin0
Lcst_begin0:
	.uleb128 Ltmp2-Lfunc_begin1
	.uleb128 Ltmp3-Ltmp2
	.uleb128 Ltmp4-Lfunc_begin1
	.byte	0
	.uleb128 Ltmp5-Lfunc_begin1
	.uleb128 Ltmp6-Ltmp5
	.uleb128 Ltmp7-Lfunc_begin1
	.byte	0
	.uleb128 Ltmp6-Lfunc_begin1
	.uleb128 Ltmp18-Ltmp6
	.byte	0
	.byte	0
	.uleb128 Ltmp18-Lfunc_begin1
	.uleb128 Ltmp19-Ltmp18
	.uleb128 Ltmp22-Lfunc_begin1
	.byte	0
	.uleb128 Ltmp8-Lfunc_begin1
	.uleb128 Ltmp9-Ltmp8
	.uleb128 Ltmp10-Lfunc_begin1
	.byte	0
	.uleb128 Ltmp16-Lfunc_begin1
	.uleb128 Ltmp17-Ltmp16
	.uleb128 Ltmp22-Lfunc_begin1
	.byte	0
	.uleb128 Ltmp11-Lfunc_begin1
	.uleb128 Ltmp12-Ltmp11
	.uleb128 Ltmp13-Lfunc_begin1
	.byte	0
	.uleb128 Ltmp14-Lfunc_begin1
	.uleb128 Ltmp15-Ltmp14
	.uleb128 Ltmp22-Lfunc_begin1
	.byte	0
	.uleb128 Ltmp15-Lfunc_begin1
	.uleb128 Ltmp20-Ltmp15
	.byte	0
	.byte	0
	.uleb128 Ltmp20-Lfunc_begin1
	.uleb128 Ltmp21-Ltmp20
	.uleb128 Ltmp22-Lfunc_begin1
	.byte	0
Lcst_end0:
	.p2align	2

	.section	__TEXT,__text,regular,pure_instructions
	.p2align	4, 0x90
__ZN12gmp_mpfr_sys4mpfr6zero_p17h273fc2d4db05bb7bE:
Lfunc_begin2:
	.file	4 "/Users/natalie/.cargo/registry/src/github.com-1ecc6299db9ec823/gmp-mpfr-sys-1.5.0/src" "mpfr.rs"
	.loc	4 797 0
	.cfi_startproc
	pushq	%rbp
	.cfi_def_cfa_offset 16
	.cfi_offset %rbp, -16
	movq	%rsp, %rbp
	.cfi_def_cfa_register %rbp
	pushq	%rax
	movq	%rdi, -8(%rbp)
Ltmp44:
	.loc	4 798 5 prologue_end
	movabsq	$-9223372036854775807, %rax
	cmpq	%rax, 16(%rdi)
	sete	%al
	andb	$1, %al
	movzbl	%al, %eax
	.loc	4 799 2
	addq	$8, %rsp
	popq	%rbp
	retq
Ltmp45:
Lfunc_end2:
	.cfi_endproc

	.p2align	4, 0x90
__ZN2az3int62_$LT$impl$u20$az..UnwrappedCast$LT$i64$GT$$u20$for$u20$u32$GT$14unwrapped_cast17h54019000fa681319E:
Lfunc_begin3:
	.file	5 "/Users/natalie/.cargo/registry/src/github.com-1ecc6299db9ec823/az-1.2.1/src" "int.rs"
	.loc	5 116 0
	.cfi_startproc
	pushq	%rbp
	.cfi_def_cfa_offset 16
	.cfi_offset %rbp, -16
	movq	%rsp, %rbp
	.cfi_def_cfa_register %rbp
	subq	$32, %rsp
	movq	%rsi, -32(%rbp)
	movl	%edi, -12(%rbp)
Ltmp46:
	.loc	5 117 23 prologue_end
	callq	__ZN2az16overflowing_cast17h6b7364abbb81e1b5E
	movq	%rax, -24(%rbp)
	.loc	5 117 17 is_stmt 0
	testb	$1, %dl
	jne	LBB3_2
	.loc	5 0 17
	movq	-24(%rbp), %rax
	.loc	5 118 22 is_stmt 1
	movq	%rax, -8(%rbp)
	.loc	5 121 14
	addq	$32, %rsp
	popq	%rbp
	retq
LBB3_2:
	.loc	5 0 14 is_stmt 0
	movq	-32(%rbp), %rdx
	.loc	5 119 34 is_stmt 1
	leaq	L___unnamed_12(%rip), %rdi
	movl	$8, %esi
	callq	__ZN4core9panicking5panic17hc1bc45270cf64b03E
Ltmp47:
Lfunc_end3:
	.cfi_endproc

	.p2align	4, 0x90
__ZN3rug3ext5xmpfr13write_new_nan17h5bc79b11cbb8b478E:
Lfunc_begin4:
	.file	6 "/Users/natalie/.cargo/registry/src/github.com-1ecc6299db9ec823/rug-1.19.0/src/ext" "xmpfr.rs"
	.loc	6 172 0
	.cfi_startproc
	pushq	%rbp
	.cfi_def_cfa_offset 16
	.cfi_offset %rbp, -16
	movq	%rsp, %rbp
	.cfi_def_cfa_register %rbp
	subq	$176, %rsp
	movq	%rsi, -176(%rbp)
	movq	%rdi, -136(%rbp)
	movq	%rsi, -128(%rbp)
	movq	%rdi, -16(%rbp)
Ltmp48:
	.loc	6 175 25 prologue_end
	movq	%rdi, -144(%rbp)
Ltmp49:
	.loc	6 175 25 is_stmt 0
	movq	-144(%rbp), %rax
	movq	%rax, -168(%rbp)
	movq	%rax, -40(%rbp)
Ltmp50:
	.loc	1 2548 9 is_stmt 1
	leaq	L___unnamed_13(%rip), %rax
	movq	%rax, -112(%rbp)
	leaq	L___unnamed_13(%rip), %rax
	movq	%rax, -104(%rbp)
	movq	-112(%rbp), %rax
	movq	%rax, -160(%rbp)
	movq	%rax, -32(%rbp)
	movq	-104(%rbp), %rcx
	movq	%rcx, -152(%rbp)
	movq	%rcx, -24(%rbp)
Ltmp51:
	.loc	1 2548 9 is_stmt 0
	movq	(%rax), %rax
	cmpq	(%rcx), %rax
	sete	%al
	xorb	$-1, %al
	testb	$1, %al
	jne	LBB4_1
	jmp	LBB4_2
LBB4_1:
	.loc	1 0 9
	movq	-152(%rbp), %rdx
	movq	-160(%rbp), %rsi
	.loc	1 2548 9
	movb	$0, -89(%rbp)
Ltmp52:
	.loc	1 2548 9
	movq	$0, -72(%rbp)
	leaq	l___unnamed_14(%rip), %r8
	xorl	%edi, %edi
	leaq	-88(%rbp), %rcx
	callq	__ZN4core9panicking13assert_failed17h33354867fc44509bE
Ltmp53:
LBB4_2:
	.loc	1 0 9
	movq	-176(%rbp), %rsi
	movq	-168(%rbp), %rdi
	movq	%rdi, -8(%rbp)
	.loc	6 175 25 is_stmt 1
	movq	%rdi, -120(%rbp)
Ltmp54:
	.loc	6 176 9
	callq	_mpfr_init2
Ltmp55:
	.loc	6 178 2
	addq	$176, %rsp
	popq	%rbp
	retq
Ltmp56:
Lfunc_end4:
	.cfi_endproc

	.p2align	4, 0x90
__ZN3rug3ext5xmpfr3fms17hfad2c0480af764caE:
Lfunc_begin5:
	.loc	6 122 0
	.cfi_startproc
	pushq	%rbp
	.cfi_def_cfa_offset 16
	.cfi_offset %rbp, -16
	movq	%rsp, %rbp
	.cfi_def_cfa_register %rbp
	subq	$192, %rsp
	movq	%rcx, -168(%rbp)
	movq	%rdx, -176(%rbp)
	movq	%rsi, -184(%rbp)
	movb	%r8b, %al
	movb	%al, -153(%rbp)
	movq	%rdi, -120(%rbp)
	movq	%rsi, -112(%rbp)
	movq	%rdx, -104(%rbp)
	movq	%rcx, -96(%rbp)
	movb	%al, -81(%rbp)
Ltmp57:
	.loc	6 128 23 prologue_end
	callq	__ZN3rug5float3big5Float10as_raw_mut17hf7976ea19564c2e8E
	movq	-184(%rbp), %rdi
	movq	%rax, -152(%rbp)
	movq	%rax, -80(%rbp)
	movq	%rdi, -16(%rbp)
	movq	%rax, -8(%rbp)
Ltmp58:
	.loc	6 74 9
	callq	__ZN3rug5float3big5Float6as_raw17he8e42c148d5de1d3E
	movq	-176(%rbp), %rdi
	movq	%rax, %rcx
	movq	-152(%rbp), %rax
	movq	%rcx, -144(%rbp)
Ltmp59:
	.loc	6 129 25
	movq	%rcx, -72(%rbp)
	movq	%rdi, -32(%rbp)
	movq	%rax, -24(%rbp)
Ltmp60:
	.loc	6 74 9
	callq	__ZN3rug5float3big5Float6as_raw17he8e42c148d5de1d3E
	movq	-168(%rbp), %rdi
	movq	%rax, %rcx
	movq	-152(%rbp), %rax
	movq	%rcx, -136(%rbp)
Ltmp61:
	.loc	6 129 25
	movq	%rcx, -64(%rbp)
	movq	%rdi, -48(%rbp)
	movq	%rax, -40(%rbp)
Ltmp62:
	.loc	6 74 9
	callq	__ZN3rug5float3big5Float6as_raw17he8e42c148d5de1d3E
	movq	%rax, %rcx
	movb	-153(%rbp), %al
	movq	%rcx, -128(%rbp)
Ltmp63:
	.loc	6 129 25
	movq	%rcx, -56(%rbp)
Ltmp64:
	.loc	6 130 72
	movzbl	%al, %edi
	callq	__ZN3rug3ext5xmpfr9raw_round17h77ae27042909f695E
	movq	-152(%rbp), %rdi
	movq	-144(%rbp), %rsi
	movq	-136(%rbp), %rdx
	movq	-128(%rbp), %rcx
	movl	%eax, %r8d
	.loc	6 130 32 is_stmt 0
	callq	_mpfr_fms
	movl	%eax, %edi
	.loc	6 130 13
	callq	__ZN3rug3ext5xmpfr9ordering117h464edd7f28bfb0ccE
Ltmp65:
	.loc	6 131 10 is_stmt 1
	addq	$192, %rsp
	popq	%rbp
	retq
Ltmp66:
Lfunc_end5:
	.cfi_endproc

	.p2align	4, 0x90
__ZN3rug3ext5xmpfr3sub17hbb7e3d04a6774229E:
Lfunc_begin6:
	.loc	6 122 0
	.cfi_startproc
	pushq	%rbp
	.cfi_def_cfa_offset 16
	.cfi_offset %rbp, -16
	movq	%rsp, %rbp
	.cfi_def_cfa_register %rbp
	subq	$128, %rsp
	movq	%rsi, -120(%rbp)
	movb	%dl, %al
	movb	%al, -105(%rbp)
	movq	%rdi, -88(%rbp)
	movq	%rsi, -72(%rbp)
	movb	%al, -57(%rbp)
Ltmp67:
	.loc	6 128 23 prologue_end
	callq	__ZN3rug5float3big5Float10as_raw_mut17hf7976ea19564c2e8E
	movq	-120(%rbp), %rdi
	movq	%rax, -104(%rbp)
	movq	%rax, -56(%rbp)
	movq	%rax, -32(%rbp)
	movq	%rax, -24(%rbp)
Ltmp68:
	.loc	6 129 25
	movq	%rax, -48(%rbp)
	movq	%rdi, -16(%rbp)
	movq	%rax, -8(%rbp)
Ltmp69:
	.loc	6 74 9
	callq	__ZN3rug5float3big5Float6as_raw17he8e42c148d5de1d3E
	movq	%rax, %rcx
	movb	-105(%rbp), %al
	movq	%rcx, -96(%rbp)
Ltmp70:
	.loc	6 129 25
	movq	%rcx, -40(%rbp)
Ltmp71:
	.loc	6 130 72
	movzbl	%al, %edi
	callq	__ZN3rug3ext5xmpfr9raw_round17h77ae27042909f695E
	movq	-104(%rbp), %rsi
	movq	-96(%rbp), %rdx
	movl	%eax, %ecx
	.loc	6 130 32 is_stmt 0
	movq	%rsi, %rdi
	callq	_mpfr_sub
	movl	%eax, %edi
	.loc	6 130 13
	callq	__ZN3rug3ext5xmpfr9ordering117h464edd7f28bfb0ccE
Ltmp72:
	.loc	6 131 10 is_stmt 1
	addq	$128, %rsp
	popq	%rbp
	retq
Ltmp73:
Lfunc_end6:
	.cfi_endproc

	.p2align	4, 0x90
__ZN3rug3ext5xmpfr6set_si17h6fc3128f94f16365E:
Lfunc_begin7:
	.loc	6 138 0
	.cfi_startproc
	pushq	%rbp
	.cfi_def_cfa_offset 16
	.cfi_offset %rbp, -16
	movq	%rsp, %rbp
	.cfi_def_cfa_register %rbp
	subq	$64, %rsp
	movq	%rsi, -56(%rbp)
	movb	%dl, %al
	movb	%al, -41(%rbp)
	movq	%rdi, -24(%rbp)
	movq	%rsi, -16(%rbp)
	movb	%al, -1(%rbp)
Ltmp74:
	.loc	6 139 39 prologue_end
	callq	__ZN3rug5float3big5Float10as_raw_mut17hf7976ea19564c2e8E
	movq	-56(%rbp), %rdi
	movq	%rax, -40(%rbp)
	.loc	6 139 59 is_stmt 0
	callq	__ZN50_$LT$T$u20$as$u20$core..convert..Into$LT$U$GT$$GT$4into17h925df0bc22c423caE
	movq	%rax, %rcx
	movb	-41(%rbp), %al
	movq	%rcx, -32(%rbp)
	.loc	6 139 76
	movzbl	%al, %edi
	callq	__ZN3rug3ext5xmpfr9raw_round17h77ae27042909f695E
	movq	-40(%rbp), %rdi
	movq	-32(%rbp), %rsi
	movl	%eax, %edx
	.loc	6 139 32
	callq	_mpfr_set_si
	movl	%eax, %edi
	.loc	6 139 13
	callq	__ZN3rug3ext5xmpfr9ordering117h464edd7f28bfb0ccE
	.loc	6 140 10 is_stmt 1
	addq	$64, %rsp
	popq	%rbp
	retq
Ltmp75:
Lfunc_end7:
	.cfi_endproc

	.p2align	4, 0x90
__ZN3rug3ext5xmpfr6submul17hdf66651b4ae1335aE:
Lfunc_begin8:
	.loc	6 845 0
	.cfi_startproc
	pushq	%rbp
	.cfi_def_cfa_offset 16
	.cfi_offset %rbp, -16
	movq	%rsp, %rbp
	.cfi_def_cfa_register %rbp
	subq	$80, %rsp
	movq	%rcx, -72(%rbp)
	movq	%rdx, -80(%rbp)
	movq	%rsi, -64(%rbp)
	movq	%rdi, -56(%rbp)
	movb	%r8b, %al
	movq	%rdi, -40(%rbp)
	movq	%rsi, -32(%rbp)
	movq	%rdx, -24(%rbp)
	movq	%rcx, -16(%rbp)
	movb	%al, -2(%rbp)
Ltmp76:
	.loc	6 852 49 prologue_end
	movzbl	%al, %edi
	callq	__ZN3rug5float5Round7reverse17h12f13283ad2bbbbeE
	movq	-80(%rbp), %rsi
	movq	-72(%rbp), %rdx
	movq	-64(%rbp), %rcx
	movq	-56(%rbp), %rdi
	.loc	6 852 23 is_stmt 0
	movzbl	%al, %r8d
	callq	__ZN3rug3ext5xmpfr3fms17hfad2c0480af764caE
	movq	-56(%rbp), %rdi
	movb	%al, -42(%rbp)
	movb	%al, -1(%rbp)
Ltmp77:
	.loc	6 853 9 is_stmt 1
	callq	__ZN3rug3ext5xmpfr6zero_p17hc51241e615cd1f27E
	.loc	6 853 8 is_stmt 0
	xorb	$-1, %al
	testb	$1, %al
	jne	LBB8_2
LBB8_1:
	.loc	6 0 8
	movb	-42(%rbp), %al
	.loc	6 857 5 is_stmt 1
	movzbl	%al, %edi
	callq	__ZN4core3cmp8Ordering7reverse17ha07422195c1f611eE
Ltmp78:
	.loc	6 858 2
	addq	$80, %rsp
	popq	%rbp
	retq
LBB8_2:
	.loc	6 0 2 is_stmt 0
	movq	-56(%rbp), %rdi
Ltmp79:
	.loc	6 855 22 is_stmt 1
	movb	$1, -41(%rbp)
	.loc	6 855 9 is_stmt 0
	movzbl	-41(%rbp), %esi
	callq	__ZN3rug3ext5xmpfr3neg17h9e6cf6b41645af9fE
	jmp	LBB8_1
Ltmp80:
Lfunc_end8:
	.cfi_endproc

	.p2align	4, 0x90
__ZN3rug3ext5xmpfr6zero_p17hc51241e615cd1f27E:
Lfunc_begin9:
	.loc	6 835 0 is_stmt 1
	.cfi_startproc
	pushq	%rbp
	.cfi_def_cfa_offset 16
	.cfi_offset %rbp, -16
	movq	%rsp, %rbp
	.cfi_def_cfa_register %rbp
	subq	$16, %rsp
	movq	%rdi, -8(%rbp)
Ltmp81:
	.loc	6 836 28 prologue_end
	callq	__ZN3rug5float3big5Float6as_raw17he8e42c148d5de1d3E
	movq	%rax, %rdi
	.loc	6 836 15 is_stmt 0
	callq	__ZN12gmp_mpfr_sys4mpfr6zero_p17h273fc2d4db05bb7bE
	.loc	6 836 5
	cmpl	$0, %eax
	setne	%al
	.loc	6 837 2 is_stmt 1
	andb	$1, %al
	movzbl	%al, %eax
	addq	$16, %rsp
	popq	%rbp
	retq
Ltmp82:
Lfunc_end9:
	.cfi_endproc

	.p2align	4, 0x90
__ZN3rug3ext5xmpfr9ordering117h464edd7f28bfb0ccE:
Lfunc_begin10:
	.loc	6 97 0
	.cfi_startproc
	pushq	%rbp
	.cfi_def_cfa_offset 16
	.cfi_offset %rbp, -16
	movq	%rsp, %rbp
	.cfi_def_cfa_register %rbp
	subq	$16, %rsp
	movl	%edi, -4(%rbp)
Ltmp83:
	.loc	6 98 5 prologue_end
	leaq	-4(%rbp), %rdi
	leaq	L___unnamed_15(%rip), %rsi
	callq	__ZN4core3cmp5impls48_$LT$impl$u20$core..cmp..Ord$u20$for$u20$i32$GT$3cmp17h0cbcee02cfbdba44E
	.loc	6 99 2
	addq	$16, %rsp
	popq	%rbp
	retq
Ltmp84:
Lfunc_end10:
	.cfi_endproc

	.p2align	4, 0x90
__ZN3rug3ext5xmpfr9raw_round17h77ae27042909f695E:
Lfunc_begin11:
	.loc	6 86 0
	.cfi_startproc
	pushq	%rbp
	.cfi_def_cfa_offset 16
	.cfi_offset %rbp, -16
	movq	%rsp, %rbp
	.cfi_def_cfa_register %rbp
	subq	$16, %rsp
	movb	%dil, %al
	movb	%al, -5(%rbp)
Ltmp85:
	.loc	6 87 11 prologue_end
	movzbl	-5(%rbp), %eax
	movq	%rax, -16(%rbp)
	.loc	6 0 11 is_stmt 0
	movq	-16(%rbp), %rax
	leaq	LJTI11_0(%rip), %rcx
	movslq	(%rcx,%rax,4), %rax
	addq	%rcx, %rax
	jmpq	*%rax
	.loc	6 87 11
	ud2
LBB11_2:
	.loc	6 88 27 is_stmt 1
	movl	$0, -4(%rbp)
	jmp	LBB11_7
LBB11_3:
	.loc	6 89 24
	movl	$1, -4(%rbp)
	jmp	LBB11_7
LBB11_4:
	.loc	6 90 22
	movl	$2, -4(%rbp)
	jmp	LBB11_7
LBB11_5:
	.loc	6 91 24
	movl	$3, -4(%rbp)
	jmp	LBB11_7
LBB11_6:
	.loc	6 92 28
	movl	$4, -4(%rbp)
LBB11_7:
	.loc	6 94 2
	movl	-4(%rbp), %eax
	addq	$16, %rsp
	popq	%rbp
	retq
Ltmp86:
Lfunc_end11:
	.cfi_endproc
	.p2align	2, 0x90
	.data_region jt32
.set L11_0_set_2, LBB11_2-LJTI11_0
.set L11_0_set_3, LBB11_3-LJTI11_0
.set L11_0_set_4, LBB11_4-LJTI11_0
.set L11_0_set_5, LBB11_5-LJTI11_0
.set L11_0_set_6, LBB11_6-LJTI11_0
LJTI11_0:
	.long	L11_0_set_2
	.long	L11_0_set_3
	.long	L11_0_set_4
	.long	L11_0_set_5
	.long	L11_0_set_6
	.end_data_region

	.p2align	4, 0x90
__ZN3rug3ops13CompleteRound8complete17h803d001cf3462efbE:
Lfunc_begin12:
	.file	7 "/Users/natalie/.cargo/registry/src/github.com-1ecc6299db9ec823/rug-1.19.0/src" "ops.rs"
	.loc	7 746 0
	.cfi_startproc
	.cfi_personality 155, _rust_eh_personality
	.cfi_lsda 16, Lexception1
	pushq	%rbp
	.cfi_def_cfa_offset 16
	.cfi_offset %rbp, -16
	movq	%rsp, %rbp
	.cfi_def_cfa_register %rbp
	subq	$128, %rsp
	movl	%edx, -116(%rbp)
Ltmp92:
	movq	%rdi, -112(%rbp)
	movq	%rdi, -104(%rbp)
	movl	%edx, -20(%rbp)
Ltmp93:
	.loc	7 751 9 prologue_end
	movb	$0, -21(%rbp)
	movb	$0, -22(%rbp)
	movb	$1, -21(%rbp)
	movq	16(%rsi), %rax
	movq	%rax, -32(%rbp)
	movq	(%rsi), %rax
	movq	8(%rsi), %rcx
	movq	%rcx, -40(%rbp)
	movq	%rax, -48(%rbp)
	.loc	7 751 29 is_stmt 0
	movb	$1, -22(%rbp)
Ltmp87:
	.loc	7 751 35
	callq	__ZN60_$LT$rug..float..Round$u20$as$u20$core..default..Default$GT$7default17h7d495787c28bae3bE
Ltmp94:
Ltmp88:
	.loc	7 0 35
	movb	%al, -89(%rbp)
	.loc	7 751 35
	jmp	LBB12_3
Ltmp95:
LBB12_1:
	.loc	7 751 57
	testb	$1, -22(%rbp)
	jne	LBB12_6
	jmp	LBB12_5
Ltmp96:
LBB12_2:
Ltmp91:
	.loc	7 0 57
	movq	%rax, %rcx
	movl	%edx, %eax
	movq	%rcx, -16(%rbp)
	movl	%eax, -8(%rbp)
	jmp	LBB12_1
Ltmp97:
LBB12_3:
	movl	-116(%rbp), %edx
	movb	-89(%rbp), %al
	.loc	7 751 9
	movb	$0, -21(%rbp)
	movb	$0, -22(%rbp)
Ltmp89:
	movzbl	%al, %ecx
	leaq	-88(%rbp), %rdi
	leaq	-48(%rbp), %rsi
	callq	__ZN79_$LT$rug..float..arith..SubMulIncomplete$u20$as$u20$rug..ops..CompleteRound$GT$14complete_round17h7debf7a28ec5b1fcE
Ltmp90:
	jmp	LBB12_4
Ltmp98:
LBB12_4:
	.loc	7 0 9
	movq	-104(%rbp), %rax
	movq	-112(%rbp), %rcx
	.loc	7 751 57
	movb	$0, -22(%rbp)
	movb	$0, -21(%rbp)
	.loc	7 751 9
	movq	-88(%rbp), %rdx
	movq	%rdx, (%rcx)
	movq	-80(%rbp), %rdx
	movq	%rdx, 8(%rcx)
	movq	-72(%rbp), %rdx
	movq	%rdx, 16(%rcx)
	movq	-64(%rbp), %rdx
	movq	%rdx, 24(%rcx)
	.loc	7 752 6 is_stmt 1
	addq	$128, %rsp
	popq	%rbp
	retq
Ltmp99:
LBB12_5:
	.loc	7 751 57
	testb	$1, -21(%rbp)
	jne	LBB12_8
	jmp	LBB12_7
Ltmp100:
LBB12_6:
	jmp	LBB12_5
Ltmp101:
LBB12_7:
	.loc	7 746 5
	movq	-16(%rbp), %rdi
	callq	__Unwind_Resume
Ltmp102:
LBB12_8:
	.loc	7 751 57
	jmp	LBB12_7
Ltmp103:
Lfunc_end12:
	.cfi_endproc
	.section	__TEXT,__gcc_except_tab
	.p2align	2
GCC_except_table12:
Lexception1:
	.byte	255
	.byte	255
	.byte	1
	.uleb128 Lcst_end1-Lcst_begin1
Lcst_begin1:
	.uleb128 Ltmp87-Lfunc_begin12
	.uleb128 Ltmp90-Ltmp87
	.uleb128 Ltmp91-Lfunc_begin12
	.byte	0
	.uleb128 Ltmp90-Lfunc_begin12
	.uleb128 Lfunc_end12-Ltmp90
	.byte	0
	.byte	0
Lcst_end1:
	.p2align	2

	.section	__TEXT,__text,regular,pure_instructions
	.p2align	4, 0x90
__ZN3rug3ops13CompleteRound8complete17hf62218875bfb9f80E:
Lfunc_begin13:
	.loc	7 746 0
	.cfi_startproc
	.cfi_personality 155, _rust_eh_personality
	.cfi_lsda 16, Lexception2
	pushq	%rbp
	.cfi_def_cfa_offset 16
	.cfi_offset %rbp, -16
	movq	%rsp, %rbp
	.cfi_def_cfa_register %rbp
	subq	$128, %rsp
	movl	%edx, -116(%rbp)
Ltmp109:
	movq	%rdi, -112(%rbp)
	movq	%rdi, -104(%rbp)
	movl	%edx, -20(%rbp)
Ltmp110:
	.loc	7 751 9 prologue_end
	movb	$0, -21(%rbp)
	movb	$0, -22(%rbp)
	movb	$1, -21(%rbp)
	movq	16(%rsi), %rax
	movq	%rax, -32(%rbp)
	movq	(%rsi), %rax
	movq	8(%rsi), %rcx
	movq	%rcx, -40(%rbp)
	movq	%rax, -48(%rbp)
	.loc	7 751 29 is_stmt 0
	movb	$1, -22(%rbp)
Ltmp104:
	.loc	7 751 35
	callq	__ZN60_$LT$rug..float..Round$u20$as$u20$core..default..Default$GT$7default17h7d495787c28bae3bE
Ltmp111:
Ltmp105:
	.loc	7 0 35
	movb	%al, -89(%rbp)
	.loc	7 751 35
	jmp	LBB13_3
Ltmp112:
LBB13_1:
	.loc	7 751 57
	testb	$1, -22(%rbp)
	jne	LBB13_6
	jmp	LBB13_5
Ltmp113:
LBB13_2:
Ltmp108:
	.loc	7 0 57
	movq	%rax, %rcx
	movl	%edx, %eax
	movq	%rcx, -16(%rbp)
	movl	%eax, -8(%rbp)
	jmp	LBB13_1
Ltmp114:
LBB13_3:
	movl	-116(%rbp), %edx
	movb	-89(%rbp), %al
	.loc	7 751 9
	movb	$0, -21(%rbp)
	movb	$0, -22(%rbp)
Ltmp106:
	movzbl	%al, %ecx
	leaq	-88(%rbp), %rdi
	leaq	-48(%rbp), %rsi
	callq	__ZN79_$LT$rug..float..arith..AddMulIncomplete$u20$as$u20$rug..ops..CompleteRound$GT$14complete_round17h56bd0b28056eaf64E
Ltmp107:
	jmp	LBB13_4
Ltmp115:
LBB13_4:
	.loc	7 0 9
	movq	-104(%rbp), %rax
	movq	-112(%rbp), %rcx
	.loc	7 751 57
	movb	$0, -22(%rbp)
	movb	$0, -21(%rbp)
	.loc	7 751 9
	movq	-88(%rbp), %rdx
	movq	%rdx, (%rcx)
	movq	-80(%rbp), %rdx
	movq	%rdx, 8(%rcx)
	movq	-72(%rbp), %rdx
	movq	%rdx, 16(%rcx)
	movq	-64(%rbp), %rdx
	movq	%rdx, 24(%rcx)
	.loc	7 752 6 is_stmt 1
	addq	$128, %rsp
	popq	%rbp
	retq
Ltmp116:
LBB13_5:
	.loc	7 751 57
	testb	$1, -21(%rbp)
	jne	LBB13_8
	jmp	LBB13_7
Ltmp117:
LBB13_6:
	jmp	LBB13_5
Ltmp118:
LBB13_7:
	.loc	7 746 5
	movq	-16(%rbp), %rdi
	callq	__Unwind_Resume
Ltmp119:
LBB13_8:
	.loc	7 751 57
	jmp	LBB13_7
Ltmp120:
Lfunc_end13:
	.cfi_endproc
	.section	__TEXT,__gcc_except_tab
	.p2align	2
GCC_except_table13:
Lexception2:
	.byte	255
	.byte	255
	.byte	1
	.uleb128 Lcst_end2-Lcst_begin2
Lcst_begin2:
	.uleb128 Ltmp104-Lfunc_begin13
	.uleb128 Ltmp107-Ltmp104
	.uleb128 Ltmp108-Lfunc_begin13
	.byte	0
	.uleb128 Ltmp107-Lfunc_begin13
	.uleb128 Lfunc_end13-Ltmp107
	.byte	0
	.byte	0
Lcst_end2:
	.p2align	2

	.section	__TEXT,__text,regular,pure_instructions
	.p2align	4, 0x90
__ZN3rug5float3big5Float10as_raw_mut17hf7976ea19564c2e8E:
Lfunc_begin14:
	.file	8 "/Users/natalie/.cargo/registry/src/github.com-1ecc6299db9ec823/rug-1.19.0/src/float" "big.rs"
	.loc	8 598 0
	.cfi_startproc
	pushq	%rbp
	.cfi_def_cfa_offset 16
	.cfi_offset %rbp, -16
	movq	%rsp, %rbp
	.cfi_def_cfa_register %rbp
	pushq	%rax
	movq	%rdi, %rax
	movq	%rax, -8(%rbp)
Ltmp121:
	.loc	8 600 6 prologue_end
	addq	$8, %rsp
	popq	%rbp
	retq
Ltmp122:
Lfunc_end14:
	.cfi_endproc

	.p2align	4, 0x90
__ZN3rug5float3big5Float11mul_add_ref17h441b33f53367b063E:
Lfunc_begin15:
	.loc	8 2648 0
	.cfi_startproc
	pushq	%rbp
	.cfi_def_cfa_offset 16
	.cfi_offset %rbp, -16
	movq	%rsp, %rbp
	.cfi_def_cfa_register %rbp
	subq	$64, %rsp
	movq	%rcx, -40(%rbp)
	movq	%rdx, -64(%rbp)
	movq	%rsi, %rax
	movq	-64(%rbp), %rsi
	movq	%rax, -56(%rbp)
	movq	%rdi, %rax
	movq	-56(%rbp), %rdi
	movq	%rax, -48(%rbp)
	movq	%rax, -32(%rbp)
	movq	%rdi, -24(%rbp)
	movq	%rsi, -16(%rbp)
	movq	%rcx, -8(%rbp)
Ltmp123:
	.loc	8 2649 9 prologue_end
	callq	__ZN3rug5float5arith78_$LT$impl$u20$core..ops..arith..Mul$u20$for$u20$$RF$rug..float..big..Float$GT$3mul17h3f90b01952f1d703E
	movq	-48(%rbp), %rdi
	movq	-40(%rbp), %rcx
	movq	%rax, %rsi
	callq	__ZN108_$LT$rug..float..arith..MulIncomplete$u20$as$u20$core..ops..arith..Add$LT$$RF$rug..float..big..Float$GT$$GT$3add17h888f0e5e1a89414dE
	movq	-32(%rbp), %rax
	.loc	8 2650 6
	addq	$64, %rsp
	popq	%rbp
	retq
Ltmp124:
Lfunc_end15:
	.cfi_endproc

	.p2align	4, 0x90
__ZN3rug5float3big5Float14with_val_round17h9250e15b68e668c8E:
Lfunc_begin16:
	.loc	8 372 0
	.cfi_startproc
	.cfi_personality 155, _rust_eh_personality
	.cfi_lsda 16, Lexception3
	pushq	%rbp
	.cfi_def_cfa_offset 16
	.cfi_offset %rbp, -16
	movq	%rsp, %rbp
	.cfi_def_cfa_register %rbp
	subq	$176, %rsp
	movq	%rdx, -160(%rbp)
Ltmp134:
	movq	%rdi, -152(%rbp)
	movb	%cl, %al
	movb	%al, -137(%rbp)
	movq	%rdi, -136(%rbp)
	movl	%esi, -32(%rbp)
	movb	%al, -25(%rbp)
Ltmp135:
	.loc	8 376 13 prologue_end
	movb	$0, -33(%rbp)
	movb	$1, -33(%rbp)
Ltmp125:
	leaq	-128(%rbp), %rdi
	.loc	8 376 23 is_stmt 0
	callq	__ZN3rug5float3big5Float7new_nan17h6ec60fec5032f52dE
Ltmp136:
Ltmp126:
	jmp	LBB16_3
Ltmp137:
LBB16_1:
	.loc	8 379 5 is_stmt 1
	testb	$1, -33(%rbp)
	jne	LBB16_9
	jmp	LBB16_8
Ltmp138:
LBB16_2:
Ltmp127:
	.loc	8 0 5 is_stmt 0
	movq	%rax, %rcx
	movl	%edx, %eax
	movq	%rcx, -24(%rbp)
	movl	%eax, -16(%rbp)
	jmp	LBB16_1
Ltmp139:
LBB16_3:
	movb	-137(%rbp), %al
	movq	-160(%rbp), %rdx
Ltmp140:
	.loc	8 377 36 is_stmt 1
	movb	$0, -33(%rbp)
	movq	16(%rdx), %rcx
	movq	%rcx, -80(%rbp)
	movq	(%rdx), %rcx
	movq	8(%rdx), %rdx
	movq	%rdx, -88(%rbp)
	movq	%rcx, -96(%rbp)
Ltmp128:
	.loc	8 377 19 is_stmt 0
	movzbl	%al, %edx
	leaq	-128(%rbp), %rdi
	leaq	-96(%rbp), %rsi
	callq	__ZN3rug5float5arith117_$LT$impl$u20$rug..ops..AssignRound$LT$rug..float..arith..AddMulIncomplete$GT$$u20$for$u20$rug..float..big..Float$GT$12assign_round17h66b8820e9f919faeE
Ltmp129:
	movb	%al, -161(%rbp)
	jmp	LBB16_6
Ltmp141:
LBB16_4:
Ltmp131:
	.loc	8 0 19
	leaq	-128(%rbp), %rdi
	.loc	8 379 5 is_stmt 1
	callq	__ZN4core3ptr43drop_in_place$LT$rug..float..big..Float$GT$17he0bd4893918cadc0E
Ltmp132:
	jmp	LBB16_1
Ltmp142:
LBB16_5:
Ltmp130:
	.loc	8 0 5 is_stmt 0
	movq	%rax, %rcx
	movl	%edx, %eax
	movq	%rcx, -24(%rbp)
	movl	%eax, -16(%rbp)
	jmp	LBB16_4
Ltmp143:
LBB16_6:
	movq	-136(%rbp), %rax
	movq	-152(%rbp), %rcx
	movb	-161(%rbp), %dl
Ltmp144:
	.loc	8 377 19 is_stmt 1
	movb	%dl, -1(%rbp)
Ltmp145:
	.loc	8 378 10
	movq	-128(%rbp), %rsi
	movq	%rsi, -72(%rbp)
	movq	-120(%rbp), %rsi
	movq	%rsi, -64(%rbp)
	movq	-112(%rbp), %rsi
	movq	%rsi, -56(%rbp)
	movq	-104(%rbp), %rsi
	movq	%rsi, -48(%rbp)
	.loc	8 378 9 is_stmt 0
	movq	-72(%rbp), %rsi
	movq	%rsi, (%rcx)
	movq	-64(%rbp), %rsi
	movq	%rsi, 8(%rcx)
	movq	-56(%rbp), %rsi
	movq	%rsi, 16(%rcx)
	movq	-48(%rbp), %rsi
	movq	%rsi, 24(%rcx)
	movb	%dl, 32(%rcx)
Ltmp146:
	.loc	8 379 6 is_stmt 1
	addq	$176, %rsp
	popq	%rbp
	retq
Ltmp147:
LBB16_7:
Ltmp133:
	.loc	8 372 5
	callq	__ZN4core9panicking19panic_cannot_unwind17h1fbca7e1d7f56ae1E
Ltmp148:
LBB16_8:
	movq	-24(%rbp), %rdi
	callq	__Unwind_Resume
Ltmp149:
LBB16_9:
	.loc	8 379 5
	jmp	LBB16_8
Ltmp150:
Lfunc_end16:
	.cfi_endproc
	.section	__TEXT,__gcc_except_tab
	.p2align	2
GCC_except_table16:
Lexception3:
	.byte	255
	.byte	255
	.byte	1
	.uleb128 Lcst_end3-Lcst_begin3
Lcst_begin3:
	.uleb128 Ltmp125-Lfunc_begin16
	.uleb128 Ltmp126-Ltmp125
	.uleb128 Ltmp127-Lfunc_begin16
	.byte	0
	.uleb128 Ltmp128-Lfunc_begin16
	.uleb128 Ltmp129-Ltmp128
	.uleb128 Ltmp130-Lfunc_begin16
	.byte	0
	.uleb128 Ltmp131-Lfunc_begin16
	.uleb128 Ltmp132-Ltmp131
	.uleb128 Ltmp133-Lfunc_begin16
	.byte	0
	.uleb128 Ltmp132-Lfunc_begin16
	.uleb128 Lfunc_end16-Ltmp132
	.byte	0
	.byte	0
Lcst_end3:
	.p2align	2

	.section	__TEXT,__text,regular,pure_instructions
	.p2align	4, 0x90
__ZN3rug5float3big5Float14with_val_round17h9272dfa4bbb77060E:
Lfunc_begin17:
	.loc	8 372 0
	.cfi_startproc
	.cfi_personality 155, _rust_eh_personality
	.cfi_lsda 16, Lexception4
	pushq	%rbp
	.cfi_def_cfa_offset 16
	.cfi_offset %rbp, -16
	movq	%rsp, %rbp
	.cfi_def_cfa_register %rbp
	subq	$176, %rsp
	movq	%rdx, -160(%rbp)
Ltmp160:
	movq	%rdi, -152(%rbp)
	movb	%cl, %al
	movb	%al, -137(%rbp)
	movq	%rdi, -136(%rbp)
	movl	%esi, -32(%rbp)
	movb	%al, -25(%rbp)
Ltmp161:
	.loc	8 376 13 prologue_end
	movb	$0, -33(%rbp)
	movb	$1, -33(%rbp)
Ltmp151:
	leaq	-128(%rbp), %rdi
	.loc	8 376 23 is_stmt 0
	callq	__ZN3rug5float3big5Float7new_nan17h6ec60fec5032f52dE
Ltmp162:
Ltmp152:
	jmp	LBB17_3
Ltmp163:
LBB17_1:
	.loc	8 379 5 is_stmt 1
	testb	$1, -33(%rbp)
	jne	LBB17_9
	jmp	LBB17_8
Ltmp164:
LBB17_2:
Ltmp153:
	.loc	8 0 5 is_stmt 0
	movq	%rax, %rcx
	movl	%edx, %eax
	movq	%rcx, -24(%rbp)
	movl	%eax, -16(%rbp)
	jmp	LBB17_1
Ltmp165:
LBB17_3:
	movb	-137(%rbp), %al
	movq	-160(%rbp), %rdx
Ltmp166:
	.loc	8 377 36 is_stmt 1
	movb	$0, -33(%rbp)
	movq	16(%rdx), %rcx
	movq	%rcx, -80(%rbp)
	movq	(%rdx), %rcx
	movq	8(%rdx), %rdx
	movq	%rdx, -88(%rbp)
	movq	%rcx, -96(%rbp)
Ltmp154:
	.loc	8 377 19 is_stmt 0
	movzbl	%al, %edx
	leaq	-128(%rbp), %rdi
	leaq	-96(%rbp), %rsi
	callq	__ZN3rug5float5arith117_$LT$impl$u20$rug..ops..AssignRound$LT$rug..float..arith..SubMulIncomplete$GT$$u20$for$u20$rug..float..big..Float$GT$12assign_round17hf24fa289a021970dE
Ltmp155:
	movb	%al, -161(%rbp)
	jmp	LBB17_6
Ltmp167:
LBB17_4:
Ltmp157:
	.loc	8 0 19
	leaq	-128(%rbp), %rdi
	.loc	8 379 5 is_stmt 1
	callq	__ZN4core3ptr43drop_in_place$LT$rug..float..big..Float$GT$17he0bd4893918cadc0E
Ltmp158:
	jmp	LBB17_1
Ltmp168:
LBB17_5:
Ltmp156:
	.loc	8 0 5 is_stmt 0
	movq	%rax, %rcx
	movl	%edx, %eax
	movq	%rcx, -24(%rbp)
	movl	%eax, -16(%rbp)
	jmp	LBB17_4
Ltmp169:
LBB17_6:
	movq	-136(%rbp), %rax
	movq	-152(%rbp), %rcx
	movb	-161(%rbp), %dl
Ltmp170:
	.loc	8 377 19 is_stmt 1
	movb	%dl, -1(%rbp)
Ltmp171:
	.loc	8 378 10
	movq	-128(%rbp), %rsi
	movq	%rsi, -72(%rbp)
	movq	-120(%rbp), %rsi
	movq	%rsi, -64(%rbp)
	movq	-112(%rbp), %rsi
	movq	%rsi, -56(%rbp)
	movq	-104(%rbp), %rsi
	movq	%rsi, -48(%rbp)
	.loc	8 378 9 is_stmt 0
	movq	-72(%rbp), %rsi
	movq	%rsi, (%rcx)
	movq	-64(%rbp), %rsi
	movq	%rsi, 8(%rcx)
	movq	-56(%rbp), %rsi
	movq	%rsi, 16(%rcx)
	movq	-48(%rbp), %rsi
	movq	%rsi, 24(%rcx)
	movb	%dl, 32(%rcx)
Ltmp172:
	.loc	8 379 6 is_stmt 1
	addq	$176, %rsp
	popq	%rbp
	retq
Ltmp173:
LBB17_7:
Ltmp159:
	.loc	8 372 5
	callq	__ZN4core9panicking19panic_cannot_unwind17h1fbca7e1d7f56ae1E
Ltmp174:
LBB17_8:
	movq	-24(%rbp), %rdi
	callq	__Unwind_Resume
Ltmp175:
LBB17_9:
	.loc	8 379 5
	jmp	LBB17_8
Ltmp176:
Lfunc_end17:
	.cfi_endproc
	.section	__TEXT,__gcc_except_tab
	.p2align	2
GCC_except_table17:
Lexception4:
	.byte	255
	.byte	255
	.byte	1
	.uleb128 Lcst_end4-Lcst_begin4
Lcst_begin4:
	.uleb128 Ltmp151-Lfunc_begin17
	.uleb128 Ltmp152-Ltmp151
	.uleb128 Ltmp153-Lfunc_begin17
	.byte	0
	.uleb128 Ltmp154-Lfunc_begin17
	.uleb128 Ltmp155-Ltmp154
	.uleb128 Ltmp156-Lfunc_begin17
	.byte	0
	.uleb128 Ltmp157-Lfunc_begin17
	.uleb128 Ltmp158-Ltmp157
	.uleb128 Ltmp159-Lfunc_begin17
	.byte	0
	.uleb128 Ltmp158-Lfunc_begin17
	.uleb128 Lfunc_end17-Ltmp158
	.byte	0
	.byte	0
Lcst_end4:
	.p2align	2

	.section	__TEXT,__text,regular,pure_instructions
	.p2align	4, 0x90
__ZN3rug5float3big5Float6as_raw17he8e42c148d5de1d3E:
Lfunc_begin18:
	.loc	8 575 0
	.cfi_startproc
	pushq	%rbp
	.cfi_def_cfa_offset 16
	.cfi_offset %rbp, -16
	movq	%rsp, %rbp
	.cfi_def_cfa_register %rbp
	pushq	%rax
	movq	%rdi, %rax
	movq	%rax, -8(%rbp)
Ltmp177:
	.loc	8 577 6 prologue_end
	addq	$8, %rsp
	popq	%rbp
	retq
Ltmp178:
Lfunc_end18:
	.cfi_endproc

	.p2align	4, 0x90
__ZN3rug5float3big5Float7new_nan17h6ec60fec5032f52dE:
Lfunc_begin19:
	.loc	8 382 0
	.cfi_startproc
	pushq	%rbp
	.cfi_def_cfa_offset 16
	.cfi_offset %rbp, -16
	movq	%rsp, %rbp
	.cfi_def_cfa_register %rbp
	subq	$192, %rsp
	movl	%esi, -160(%rbp)
	movq	%rdi, -176(%rbp)
	movq	%rdi, -168(%rbp)
	movl	%esi, -36(%rbp)
Ltmp179:
	.loc	8 384 21 prologue_end
	callq	__ZN3rug5float8prec_min17h3305d845f2c47803E
	movl	-160(%rbp), %esi
	.loc	8 384 13 is_stmt 0
	cmpl	%eax, %esi
	jae	LBB19_2
	movb	$0, -153(%rbp)
	jmp	LBB19_3
LBB19_2:
	.loc	8 384 50
	callq	__ZN3rug5float8prec_max17hd218fd8603b9edcbE
	movl	%eax, %ecx
	movl	-160(%rbp), %eax
	.loc	8 384 42
	cmpl	%ecx, %eax
	setbe	%al
	.loc	8 384 13
	andb	$1, %al
	movb	%al, -153(%rbp)
LBB19_3:
	.loc	8 383 9 is_stmt 1
	movb	-153(%rbp), %al
	xorb	$-1, %al
	testb	$1, %al
	jne	LBB19_5
	.loc	8 0 9 is_stmt 0
	movl	-160(%rbp), %edi
Ltmp180:
	.loc	8 388 40 is_stmt 1
	leaq	l___unnamed_16(%rip), %rsi
	callq	__ZN2az3int62_$LT$impl$u20$az..UnwrappedCast$LT$i64$GT$$u20$for$u20$u32$GT$14unwrapped_cast17h54019000fa681319E
	movq	%rax, %rsi
	.loc	8 388 9 is_stmt 0
	leaq	-104(%rbp), %rdi
	callq	__ZN3rug3ext5xmpfr13write_new_nan17h5bc79b11cbb8b478E
	movq	-176(%rbp), %rcx
	movq	-168(%rbp), %rax
	.loc	8 390 18 is_stmt 1
	movq	-104(%rbp), %rdx
	movq	%rdx, -72(%rbp)
	movq	-96(%rbp), %rdx
	movq	%rdx, -64(%rbp)
	movq	-88(%rbp), %rdx
	movq	%rdx, -56(%rbp)
	movq	-80(%rbp), %rdx
	movq	%rdx, -48(%rbp)
Ltmp181:
	.file	9 "/rustc/2c8cc343237b8f7d5a3c3703e3a87f2eb2c54a74/library/core/src/mem" "maybe_uninit.rs"
	.loc	9 627 38
	movq	-72(%rbp), %rdx
	movq	%rdx, -32(%rbp)
	movq	-64(%rbp), %rdx
	movq	%rdx, -24(%rbp)
	movq	-56(%rbp), %rdx
	movq	%rdx, -16(%rbp)
	movq	-48(%rbp), %rdx
	movq	%rdx, -8(%rbp)
Ltmp182:
	.file	10 "/rustc/2c8cc343237b8f7d5a3c3703e3a87f2eb2c54a74/library/core/src/mem" "manually_drop.rs"
	.loc	10 89 9
	movq	-32(%rbp), %rdx
	movq	%rdx, (%rcx)
	movq	-24(%rbp), %rdx
	movq	%rdx, 8(%rcx)
	movq	-16(%rbp), %rdx
	movq	%rdx, 16(%rcx)
	movq	-8(%rbp), %rdx
	movq	%rdx, 24(%rcx)
Ltmp183:
	.loc	8 391 6
	addq	$192, %rsp
	popq	%rbp
	retq
LBB19_5:
	.loc	8 383 9
	leaq	l___unnamed_17(%rip), %rsi
	leaq	l___unnamed_18(%rip), %rcx
	xorl	%eax, %eax
	movl	%eax, %r8d
	leaq	-152(%rbp), %rdi
	movq	%rdi, -184(%rbp)
	movl	$1, %edx
	callq	__ZN4core3fmt9Arguments6new_v117h5ba09674631e6281E
	movq	-184(%rbp), %rdi
	leaq	l___unnamed_19(%rip), %rsi
	callq	__ZN4core9panicking9panic_fmt17h9b5d807e24bcaaedE
Ltmp184:
Lfunc_end19:
	.cfi_endproc

	.p2align	4, 0x90
__ZN3rug5float3big5Float8with_val17h9bec2509349915c5E:
Lfunc_begin20:
	.loc	8 338 0
	.cfi_startproc
	.cfi_personality 155, _rust_eh_personality
	.cfi_lsda 16, Lexception5
	pushq	%rbp
	.cfi_def_cfa_offset 16
	.cfi_offset %rbp, -16
	movq	%rsp, %rbp
	.cfi_def_cfa_register %rbp
	subq	$64, %rsp
	movl	%edx, -52(%rbp)
	movq	%rdi, -48(%rbp)
	movq	%rdi, %rax
	movq	%rax, -40(%rbp)
	movl	%esi, -24(%rbp)
	movl	%edx, -20(%rbp)
Ltmp194:
	.loc	8 342 13 prologue_end
	movb	$0, -25(%rbp)
	movb	$1, -25(%rbp)
Ltmp185:
	.loc	8 342 23 is_stmt 0
	callq	__ZN3rug5float3big5Float7new_nan17h6ec60fec5032f52dE
Ltmp186:
	jmp	LBB20_3
LBB20_1:
	.loc	8 345 5 is_stmt 1
	testb	$1, -25(%rbp)
	jne	LBB20_9
	jmp	LBB20_8
LBB20_2:
Ltmp187:
	.loc	8 0 5 is_stmt 0
	movq	%rax, %rcx
	movl	%edx, %eax
	movq	%rcx, -16(%rbp)
	movl	%eax, -8(%rbp)
	jmp	LBB20_1
LBB20_3:
Ltmp195:
	movl	-52(%rbp), %esi
	movq	-48(%rbp), %rdi
Ltmp196:
	.loc	8 343 20 is_stmt 1
	movb	$0, -25(%rbp)
Ltmp188:
	.loc	8 343 9 is_stmt 0
	callq	__ZN3rug5float6traits73_$LT$impl$u20$rug..Assign$LT$T$GT$$u20$for$u20$rug..float..big..Float$GT$6assign17hcc65d4dbd45ada86E
Ltmp189:
	jmp	LBB20_6
Ltmp197:
LBB20_4:
Ltmp191:
	.loc	8 0 9
	movq	-48(%rbp), %rdi
	.loc	8 345 5 is_stmt 1
	callq	__ZN4core3ptr43drop_in_place$LT$rug..float..big..Float$GT$17he0bd4893918cadc0E
Ltmp192:
	jmp	LBB20_1
LBB20_5:
Ltmp190:
	.loc	8 0 5 is_stmt 0
	movq	%rax, %rcx
	movl	%edx, %eax
	movq	%rcx, -16(%rbp)
	movl	%eax, -8(%rbp)
	jmp	LBB20_4
LBB20_6:
	movq	-40(%rbp), %rax
	.loc	8 345 6
	addq	$64, %rsp
	popq	%rbp
	retq
LBB20_7:
Ltmp193:
	.loc	8 338 5 is_stmt 1
	callq	__ZN4core9panicking19panic_cannot_unwind17h1fbca7e1d7f56ae1E
LBB20_8:
	movq	-16(%rbp), %rdi
	callq	__Unwind_Resume
LBB20_9:
	.loc	8 345 5
	jmp	LBB20_8
Ltmp198:
Lfunc_end20:
	.cfi_endproc
	.section	__TEXT,__gcc_except_tab
	.p2align	2
GCC_except_table20:
Lexception5:
	.byte	255
	.byte	255
	.byte	1
	.uleb128 Lcst_end5-Lcst_begin5
Lcst_begin5:
	.uleb128 Ltmp185-Lfunc_begin20
	.uleb128 Ltmp186-Ltmp185
	.uleb128 Ltmp187-Lfunc_begin20
	.byte	0
	.uleb128 Ltmp188-Lfunc_begin20
	.uleb128 Ltmp189-Ltmp188
	.uleb128 Ltmp190-Lfunc_begin20
	.byte	0
	.uleb128 Ltmp191-Lfunc_begin20
	.uleb128 Ltmp192-Ltmp191
	.uleb128 Ltmp193-Lfunc_begin20
	.byte	0
	.uleb128 Ltmp192-Lfunc_begin20
	.uleb128 Lfunc_end20-Ltmp192
	.byte	0
	.byte	0
Lcst_end5:
	.p2align	2

	.section	__TEXT,__text,regular,pure_instructions
	.p2align	4, 0x90
__ZN3rug5float5Round7reverse17h12f13283ad2bbbbeE:
Lfunc_begin21:
	.file	11 "/Users/natalie/.cargo/registry/src/github.com-1ecc6299db9ec823/rug-1.19.0/src/float" "mod.rs"
	.loc	11 211 0
	.cfi_startproc
	pushq	%rbp
	.cfi_def_cfa_offset 16
	.cfi_offset %rbp, -16
	movq	%rsp, %rbp
	.cfi_def_cfa_register %rbp
	subq	$16, %rsp
	movb	%dil, %al
	movb	%al, -2(%rbp)
Ltmp199:
	.loc	11 212 15 prologue_end
	movzbl	-2(%rbp), %eax
	movq	%rax, -16(%rbp)
	subq	$2, %rax
	.loc	11 212 9 is_stmt 0
	je	LBB21_2
	jmp	LBB21_5
LBB21_5:
	.loc	11 0 9
	movq	-16(%rbp), %rax
	.loc	11 212 9
	subq	$3, %rax
	je	LBB21_3
	jmp	LBB21_1
LBB21_1:
	.loc	11 215 18 is_stmt 1
	movb	-2(%rbp), %al
	movb	%al, -1(%rbp)
	jmp	LBB21_4
LBB21_2:
	.loc	11 213 26
	movb	$3, -1(%rbp)
	jmp	LBB21_4
LBB21_3:
	.loc	11 214 28
	movb	$2, -1(%rbp)
LBB21_4:
	.loc	11 217 6
	movb	-1(%rbp), %al
	addq	$16, %rsp
	popq	%rbp
	retq
Ltmp200:
Lfunc_end21:
	.cfi_endproc

	.p2align	4, 0x90
__ZN3rug5float5arith111_$LT$impl$u20$rug..ops..AddAssignRound$LT$$RF$rug..float..big..Float$GT$$u20$for$u20$rug..float..big..Float$GT$16add_assign_round17h008a24cd9814c317E:
Lfunc_begin22:
	.loc	1 1443 0
	.cfi_startproc
	pushq	%rbp
	.cfi_def_cfa_offset 16
	.cfi_offset %rbp, -16
	movq	%rsp, %rbp
	.cfi_def_cfa_register %rbp
	subq	$32, %rsp
	movb	%dl, %al
	movq	%rdi, -24(%rbp)
	movq	%rsi, -16(%rbp)
	movb	%al, -1(%rbp)
Ltmp201:
	.loc	1 1444 17 prologue_end
	movzbl	%al, %edx
	callq	__ZN3rug3ext5xmpfr3add17hf9cac92b85be8d63E
	.loc	1 1445 14
	addq	$32, %rsp
	popq	%rbp
	retq
Ltmp202:
Lfunc_end22:
	.cfi_endproc

	.p2align	4, 0x90
__ZN3rug5float5arith111_$LT$impl$u20$rug..ops..SubAssignRound$LT$$RF$rug..float..big..Float$GT$$u20$for$u20$rug..float..big..Float$GT$16sub_assign_round17ha38557d67ebab149E:
Lfunc_begin23:
	.loc	1 1443 0
	.cfi_startproc
	pushq	%rbp
	.cfi_def_cfa_offset 16
	.cfi_offset %rbp, -16
	movq	%rsp, %rbp
	.cfi_def_cfa_register %rbp
	subq	$32, %rsp
	movb	%dl, %al
	movq	%rdi, -24(%rbp)
	movq	%rsi, -16(%rbp)
	movb	%al, -1(%rbp)
Ltmp203:
	.loc	1 1444 17 prologue_end
	movzbl	%al, %edx
	callq	__ZN3rug3ext5xmpfr3sub17hbb7e3d04a6774229E
	.loc	1 1445 14
	addq	$32, %rsp
	popq	%rbp
	retq
Ltmp204:
Lfunc_end23:
	.cfi_endproc

	.p2align	4, 0x90
__ZN3rug5float5arith114_$LT$impl$u20$core..ops..arith..AddAssign$LT$$RF$rug..float..big..Float$GT$$u20$for$u20$rug..float..big..Float$GT$10add_assign17h60812b7a7c52d9bbE:
Lfunc_begin24:
	.loc	1 1425 0
	.cfi_startproc
	pushq	%rbp
	.cfi_def_cfa_offset 16
	.cfi_offset %rbp, -16
	movq	%rsp, %rbp
	.cfi_def_cfa_register %rbp
	subq	$32, %rsp
	movq	%rdi, -16(%rbp)
	movq	%rsi, -8(%rbp)
Ltmp205:
	.file	12 "/Users/natalie/.cargo/registry/src/github.com-1ecc6299db9ec823/rug-1.19.0/src/float" "arith.rs"
	.loc	12 89 24 prologue_end
	movb	$0, -17(%rbp)
	.loc	1 1426 17
	movzbl	-17(%rbp), %edx
	callq	__ZN3rug5float5arith111_$LT$impl$u20$rug..ops..AddAssignRound$LT$$RF$rug..float..big..Float$GT$$u20$for$u20$rug..float..big..Float$GT$16add_assign_round17h008a24cd9814c317E
	.loc	1 1427 14
	addq	$32, %rsp
	popq	%rbp
	retq
Ltmp206:
Lfunc_end24:
	.cfi_endproc

	.p2align	4, 0x90
__ZN3rug5float5arith114_$LT$impl$u20$core..ops..arith..SubAssign$LT$$RF$rug..float..big..Float$GT$$u20$for$u20$rug..float..big..Float$GT$10sub_assign17h941bef0706275a5aE:
Lfunc_begin25:
	.loc	1 1425 0
	.cfi_startproc
	pushq	%rbp
	.cfi_def_cfa_offset 16
	.cfi_offset %rbp, -16
	movq	%rsp, %rbp
	.cfi_def_cfa_register %rbp
	subq	$32, %rsp
	movq	%rdi, -16(%rbp)
	movq	%rsi, -8(%rbp)
Ltmp207:
	.loc	12 99 24 prologue_end
	movb	$0, -17(%rbp)
	.loc	1 1426 17
	movzbl	-17(%rbp), %edx
	callq	__ZN3rug5float5arith111_$LT$impl$u20$rug..ops..SubAssignRound$LT$$RF$rug..float..big..Float$GT$$u20$for$u20$rug..float..big..Float$GT$16sub_assign_round17ha38557d67ebab149E
	.loc	1 1427 14
	addq	$32, %rsp
	popq	%rbp
	retq
Ltmp208:
Lfunc_end25:
	.cfi_endproc

	.p2align	4, 0x90
__ZN3rug5float5arith117_$LT$impl$u20$rug..ops..AssignRound$LT$rug..float..arith..AddMulIncomplete$GT$$u20$for$u20$rug..float..big..Float$GT$12assign_round17h66b8820e9f919faeE:
Lfunc_begin26:
	.loc	1 2325 0
	.cfi_startproc
	pushq	%rbp
	.cfi_def_cfa_offset 16
	.cfi_offset %rbp, -16
	movq	%rsp, %rbp
	.cfi_def_cfa_register %rbp
	subq	$16, %rsp
	movq	%rsi, %rcx
	movb	%dl, %al
	movq	%rdi, -16(%rbp)
Ltmp209:
	movb	%al, -1(%rbp)
Ltmp210:
	.loc	1 2326 29 prologue_end
	movq	16(%rcx), %rsi
	.loc	1 2326 38 is_stmt 0
	movq	(%rcx), %rdx
	movq	8(%rcx), %rcx
Ltmp211:
	.loc	1 2326 17
	movzbl	%al, %r8d
	callq	__ZN3rug5float5arith7add_mul17hb03c6e8a2dde518eE
	.loc	1 2327 14 is_stmt 1
	addq	$16, %rsp
	popq	%rbp
	retq
Ltmp212:
Lfunc_end26:
	.cfi_endproc

	.p2align	4, 0x90
__ZN3rug5float5arith117_$LT$impl$u20$rug..ops..AssignRound$LT$rug..float..arith..SubMulIncomplete$GT$$u20$for$u20$rug..float..big..Float$GT$12assign_round17hf24fa289a021970dE:
Lfunc_begin27:
	.loc	1 2325 0
	.cfi_startproc
	pushq	%rbp
	.cfi_def_cfa_offset 16
	.cfi_offset %rbp, -16
	movq	%rsp, %rbp
	.cfi_def_cfa_register %rbp
	subq	$16, %rsp
	movq	%rsi, %rcx
	movb	%dl, %al
	movq	%rdi, -16(%rbp)
Ltmp213:
	movb	%al, -1(%rbp)
Ltmp214:
	.loc	1 2326 29 prologue_end
	movq	16(%rcx), %rsi
	.loc	1 2326 38 is_stmt 0
	movq	(%rcx), %rdx
	movq	8(%rcx), %rcx
Ltmp215:
	.loc	1 2326 17
	movzbl	%al, %r8d
	callq	__ZN3rug5float5arith7sub_mul17h9b9a9bf4f06a5f12E
	.loc	1 2327 14 is_stmt 1
	addq	$16, %rsp
	popq	%rbp
	retq
Ltmp216:
Lfunc_end27:
	.cfi_endproc

	.p2align	4, 0x90
__ZN3rug5float5arith118_$LT$impl$u20$core..ops..arith..Add$LT$rug..float..arith..MulIncomplete$GT$$u20$for$u20$$RF$rug..float..big..Float$GT$3add17h975b6f6068d50a38E:
Lfunc_begin28:
	.loc	1 2294 0
	.cfi_startproc
	pushq	%rbp
	.cfi_def_cfa_offset 16
	.cfi_offset %rbp, -16
	movq	%rsp, %rbp
	.cfi_def_cfa_register %rbp
	subq	$24, %rsp
	movq	%rdi, %rax
	movq	%rsi, -24(%rbp)
	movq	%rdx, -16(%rbp)
	movq	%rcx, -8(%rbp)
Ltmp217:
	.loc	1 2295 17 prologue_end
	movq	%rsi, 16(%rdi)
	movq	%rdx, (%rdi)
	movq	%rcx, 8(%rdi)
	.loc	1 2296 14
	addq	$24, %rsp
	popq	%rbp
	retq
Ltmp218:
Lfunc_end28:
	.cfi_endproc

	.p2align	4, 0x90
__ZN3rug5float5arith118_$LT$impl$u20$core..ops..arith..Sub$LT$rug..float..arith..MulIncomplete$GT$$u20$for$u20$$RF$rug..float..big..Float$GT$3sub17hc5646e1a92f755b3E:
Lfunc_begin29:
	.loc	1 2294 0
	.cfi_startproc
	pushq	%rbp
	.cfi_def_cfa_offset 16
	.cfi_offset %rbp, -16
	movq	%rsp, %rbp
	.cfi_def_cfa_register %rbp
	subq	$24, %rsp
	movq	%rdi, %rax
	movq	%rsi, -24(%rbp)
	movq	%rdx, -16(%rbp)
	movq	%rcx, -8(%rbp)
Ltmp219:
	.loc	1 2295 17 prologue_end
	movq	%rsi, 16(%rdi)
	movq	%rdx, (%rdi)
	movq	%rcx, 8(%rdi)
	.loc	1 2296 14
	addq	$24, %rsp
	popq	%rbp
	retq
Ltmp220:
Lfunc_end29:
	.cfi_endproc

	.p2align	4, 0x90
__ZN3rug5float5arith78_$LT$impl$u20$core..ops..arith..Mul$u20$for$u20$$RF$rug..float..big..Float$GT$3mul17h3f90b01952f1d703E:
Lfunc_begin30:
	.loc	1 1411 0
	.cfi_startproc
	pushq	%rbp
	.cfi_def_cfa_offset 16
	.cfi_offset %rbp, -16
	movq	%rsp, %rbp
	.cfi_def_cfa_register %rbp
	subq	$32, %rsp
	movq	%rdi, -16(%rbp)
	movq	%rsi, -8(%rbp)
Ltmp221:
	.loc	1 1412 17 prologue_end
	movq	%rdi, -32(%rbp)
	movq	%rsi, -24(%rbp)
	.loc	1 1413 14
	movq	-32(%rbp), %rax
	movq	-24(%rbp), %rdx
	addq	$32, %rsp
	popq	%rbp
	retq
Ltmp222:
Lfunc_end30:
	.cfi_endproc

	.p2align	4, 0x90
__ZN3rug5float5arith7sub_mul17h9b9a9bf4f06a5f12E:
Lfunc_begin31:
	.loc	12 685 0
	.cfi_startproc
	pushq	%rbp
	.cfi_def_cfa_offset 16
	.cfi_offset %rbp, -16
	movq	%rsp, %rbp
	.cfi_def_cfa_register %rbp
	subq	$48, %rsp
	movb	%r8b, %al
	movq	%rdx, -40(%rbp)
	movq	%rcx, -32(%rbp)
	movq	%rdi, -24(%rbp)
	movq	%rsi, -16(%rbp)
	movb	%al, -1(%rbp)
Ltmp223:
	.loc	12 686 29 prologue_end
	movq	-40(%rbp), %rdx
	.loc	12 686 38 is_stmt 0
	movq	-32(%rbp), %rcx
	.loc	12 686 5
	movzbl	%al, %r8d
	callq	__ZN3rug3ext5xmpfr6submul17hdf66651b4ae1335aE
	.loc	12 687 2 is_stmt 1
	addq	$48, %rsp
	popq	%rbp
	retq
Ltmp224:
Lfunc_end31:
	.cfi_endproc

	.p2align	4, 0x90
__ZN3rug5float5arith91_$LT$impl$u20$core..ops..arith..MulAssign$LT$f64$GT$$u20$for$u20$rug..float..big..Float$GT$10mul_assign17h706ea271ae97c29bE:
Lfunc_begin32:
	.loc	1 1960 0
	.cfi_startproc
	pushq	%rbp
	.cfi_def_cfa_offset 16
	.cfi_offset %rbp, -16
	movq	%rsp, %rbp
	.cfi_def_cfa_register %rbp
	subq	$32, %rsp
	movq	%rdi, -16(%rbp)
	movsd	%xmm0, -8(%rbp)
Ltmp225:
	.loc	12 308 24 prologue_end
	movb	$0, -17(%rbp)
	.loc	1 1961 17
	movzbl	-17(%rbp), %esi
	callq	__ZN59_$LT$T$u20$as$u20$rug..float..arith..PrimOps$LT$f64$GT$$GT$3mul17h8b9454ebeb2851e0E
	.loc	1 1962 14
	addq	$32, %rsp
	popq	%rbp
	retq
Ltmp226:
Lfunc_end32:
	.cfi_endproc

	.p2align	4, 0x90
__ZN3rug5float6traits73_$LT$impl$u20$rug..Assign$LT$T$GT$$u20$for$u20$rug..float..big..Float$GT$6assign17hcc65d4dbd45ada86E:
Lfunc_begin33:
	.file	13 "/Users/natalie/.cargo/registry/src/github.com-1ecc6299db9ec823/rug-1.19.0/src/float" "traits.rs"
	.loc	13 164 0
	.cfi_startproc
	pushq	%rbp
	.cfi_def_cfa_offset 16
	.cfi_offset %rbp, -16
	movq	%rsp, %rbp
	.cfi_def_cfa_register %rbp
	subq	$32, %rsp
	movq	%rdi, -16(%rbp)
	movl	%esi, -4(%rbp)
Ltmp227:
	.loc	13 165 32 prologue_end
	movb	$0, -17(%rbp)
	.loc	13 165 9 is_stmt 0
	movzbl	-17(%rbp), %edx
	callq	__ZN3rug5float6traits85_$LT$impl$u20$rug..ops..AssignRound$LT$i32$GT$$u20$for$u20$rug..float..big..Float$GT$12assign_round17hfa76bc58e4adc476E
	.loc	13 166 6 is_stmt 1
	addq	$32, %rsp
	popq	%rbp
	retq
Ltmp228:
Lfunc_end33:
	.cfi_endproc

	.p2align	4, 0x90
__ZN3rug5float6traits85_$LT$impl$u20$rug..ops..AssignRound$LT$i32$GT$$u20$for$u20$rug..float..big..Float$GT$12assign_round17hfa76bc58e4adc476E:
Lfunc_begin34:
	.loc	13 257 0
	.cfi_startproc
	pushq	%rbp
	.cfi_def_cfa_offset 16
	.cfi_offset %rbp, -16
	movq	%rsp, %rbp
	.cfi_def_cfa_register %rbp
	subq	$48, %rsp
	movl	%esi, -36(%rbp)
	movq	%rdi, %rcx
	movl	-36(%rbp), %edi
	movq	%rcx, -32(%rbp)
	movb	%dl, %al
	movb	%al, -17(%rbp)
	movq	%rcx, -16(%rbp)
	movl	%edi, -8(%rbp)
	movb	%al, -1(%rbp)
Ltmp229:
	.loc	13 258 28 prologue_end
	callq	__ZN50_$LT$T$u20$as$u20$core..convert..Into$LT$U$GT$$GT$4into17h423603953a17908fE
	movq	-32(%rbp), %rdi
	movq	%rax, %rsi
	movb	-17(%rbp), %al
	.loc	13 258 17 is_stmt 0
	movzbl	%al, %edx
	callq	__ZN3rug3ext5xmpfr6set_si17h6fc3128f94f16365E
	.loc	13 259 14 is_stmt 1
	addq	$48, %rsp
	popq	%rbp
	retq
Ltmp230:
Lfunc_end34:
	.cfi_endproc

	.p2align	4, 0x90
__ZN3rug5float8prec_max17hd218fd8603b9edcbE:
Lfunc_begin35:
	.loc	11 124 0
	.cfi_startproc
	pushq	%rbp
	.cfi_def_cfa_offset 16
	.cfi_offset %rbp, -16
	movq	%rsp, %rbp
	.cfi_def_cfa_register %rbp
Ltmp231:
	.loc	11 130 2 prologue_end
	movl	$4294967295, %eax
	popq	%rbp
	retq
Ltmp232:
Lfunc_end35:
	.cfi_endproc

	.p2align	4, 0x90
__ZN3rug5float8prec_min17h3305d845f2c47803E:
Lfunc_begin36:
	.loc	11 109 0
	.cfi_startproc
	pushq	%rbp
	.cfi_def_cfa_offset 16
	.cfi_offset %rbp, -16
	movq	%rsp, %rbp
	.cfi_def_cfa_register %rbp
Ltmp233:
	.loc	11 111 2 prologue_end
	movl	$1, %eax
	popq	%rbp
	retq
Ltmp234:
Lfunc_end36:
	.cfi_endproc

	.p2align	4, 0x90
__ZN3std10sys_common9backtrace28__rust_begin_short_backtrace17hbed30e1bc01fe2c7E:
Lfunc_begin37:
	.file	14 "/rustc/2c8cc343237b8f7d5a3c3703e3a87f2eb2c54a74/library/std/src/sys_common" "backtrace.rs"
	.loc	14 117 0
	.cfi_startproc
	pushq	%rbp
	.cfi_def_cfa_offset 16
	.cfi_offset %rbp, -16
	movq	%rsp, %rbp
	.cfi_def_cfa_register %rbp
	subq	$48, %rsp
	movq	%rdi, -32(%rbp)
Ltmp235:
	.loc	14 121 18 prologue_end
	callq	__ZN4core3ops8function6FnOnce9call_once17hd7087d9835f42beeE
Ltmp236:
	.file	15 "/rustc/2c8cc343237b8f7d5a3c3703e3a87f2eb2c54a74/library/core/src" "hint.rs"
	.loc	15 295 5
	## InlineAsm Start
	## InlineAsm End
Ltmp237:
	.loc	14 127 2
	addq	$48, %rsp
	popq	%rbp
	retq
Ltmp238:
Lfunc_end37:
	.cfi_endproc

	.private_extern	__ZN3std2rt10lang_start17hf3ac1af40a9018e4E
	.globl	__ZN3std2rt10lang_start17hf3ac1af40a9018e4E
	.p2align	4, 0x90
__ZN3std2rt10lang_start17hf3ac1af40a9018e4E:
Lfunc_begin38:
	.file	16 "/rustc/2c8cc343237b8f7d5a3c3703e3a87f2eb2c54a74/library/std/src" "rt.rs"
	.loc	16 159 0
	.cfi_startproc
	pushq	%rbp
	.cfi_def_cfa_offset 16
	.cfi_offset %rbp, -16
	movq	%rsp, %rbp
	.cfi_def_cfa_register %rbp
	subq	$64, %rsp
	movl	%ecx, %eax
	movq	%rdx, %rcx
	movq	%rsi, %rdx
	movq	%rdi, -40(%rbp)
	movq	%rdx, -32(%rbp)
	movq	%rcx, -24(%rbp)
	movb	%al, -9(%rbp)
Ltmp239:
	.loc	16 166 10 prologue_end
	movq	%rdi, -48(%rbp)
	.loc	16 165 17
	leaq	-48(%rbp), %rdi
	leaq	l___unnamed_1(%rip), %rsi
	movzbl	%al, %r8d
	callq	__ZN3std2rt19lang_start_internal17h72dc55d09e0a2397E
	movq	%rax, -56(%rbp)
	.loc	16 165 12 is_stmt 0
	movq	-56(%rbp), %rax
	movq	%rax, -8(%rbp)
	.loc	16 172 2 is_stmt 1
	addq	$64, %rsp
	popq	%rbp
	retq
Ltmp240:
Lfunc_end38:
	.cfi_endproc

	.p2align	4, 0x90
__ZN3std2rt10lang_start28_$u7b$$u7b$closure$u7d$$u7d$17h3181597bbda9c2f7E:
Lfunc_begin39:
	.loc	16 166 0
	.cfi_startproc
	pushq	%rbp
	.cfi_def_cfa_offset 16
	.cfi_offset %rbp, -16
	movq	%rsp, %rbp
	.cfi_def_cfa_register %rbp
	subq	$32, %rsp
	movq	%rdi, -16(%rbp)
Ltmp241:
	.loc	16 166 77 prologue_end
	movq	(%rdi), %rdi
	.loc	16 166 18 is_stmt 0
	callq	__ZN3std10sys_common9backtrace28__rust_begin_short_backtrace17hbed30e1bc01fe2c7E
	callq	__ZN54_$LT$$LP$$RP$$u20$as$u20$std..process..Termination$GT$6report17h3f10c84f01328643E
	movb	%al, -17(%rbp)
Ltmp242:
	.file	17 "/rustc/2c8cc343237b8f7d5a3c3703e3a87f2eb2c54a74/library/std/src" "process.rs"
	.loc	17 1820 9 is_stmt 1
	leaq	-17(%rbp), %rax
	movq	%rax, -8(%rbp)
Ltmp243:
	.file	18 "/rustc/2c8cc343237b8f7d5a3c3703e3a87f2eb2c54a74/library/std/src/sys/unix/process" "process_common.rs"
	.loc	18 594 9
	movzbl	-17(%rbp), %eax
Ltmp244:
	.loc	16 166 100
	addq	$32, %rsp
	popq	%rbp
	retq
Ltmp245:
Lfunc_end39:
	.cfi_endproc

	.p2align	4, 0x90
__ZN3std3f6421_$LT$impl$u20$f64$GT$4powf17h58006a49e102a14cE:
Lfunc_begin40:
	.file	19 "/rustc/2c8cc343237b8f7d5a3c3703e3a87f2eb2c54a74/library/std/src" "f64.rs"
	.loc	19 339 0
	.cfi_startproc
	pushq	%rbp
	.cfi_def_cfa_offset 16
	.cfi_offset %rbp, -16
	movq	%rsp, %rbp
	.cfi_def_cfa_register %rbp
	subq	$32, %rsp
	movsd	%xmm0, -24(%rbp)
	movsd	%xmm1, -16(%rbp)
Ltmp246:
	.loc	19 340 18 prologue_end
	callq	_pow
	movsd	%xmm0, -8(%rbp)
	movsd	-8(%rbp), %xmm0
	.loc	19 341 6
	addq	$32, %rsp
	popq	%rbp
	retq
Ltmp247:
Lfunc_end40:
	.cfi_endproc

	.p2align	4, 0x90
__ZN4core3cmp3Ord3max17he54e9c913dde7941E:
Lfunc_begin41:
	.file	20 "/rustc/2c8cc343237b8f7d5a3c3703e3a87f2eb2c54a74/library/core/src" "cmp.rs"
	.loc	20 796 0
	.cfi_startproc
	pushq	%rbp
	.cfi_def_cfa_offset 16
	.cfi_offset %rbp, -16
	movq	%rsp, %rbp
	.cfi_def_cfa_register %rbp
	subq	$16, %rsp
	movq	%rdi, -16(%rbp)
	movq	%rsi, -8(%rbp)
Ltmp248:
	.loc	20 803 13 prologue_end
	callq	__ZN4core3cmp6max_by17h8406f3a930117f0fE
	.loc	20 811 6
	addq	$16, %rsp
	popq	%rbp
	retq
Ltmp249:
Lfunc_end41:
	.cfi_endproc

	.p2align	4, 0x90
__ZN4core3cmp3Ord3min17h8d79ef341b555636E:
Lfunc_begin42:
	.loc	20 826 0
	.cfi_startproc
	pushq	%rbp
	.cfi_def_cfa_offset 16
	.cfi_offset %rbp, -16
	movq	%rsp, %rbp
	.cfi_def_cfa_register %rbp
	subq	$16, %rsp
	movq	%rdi, -16(%rbp)
	movq	%rsi, -8(%rbp)
Ltmp250:
	.loc	20 833 13 prologue_end
	callq	__ZN4core3cmp6min_by17h032850009d397cb1E
	.loc	20 841 6
	addq	$16, %rsp
	popq	%rbp
	retq
Ltmp251:
Lfunc_end42:
	.cfi_endproc

	.p2align	4, 0x90
__ZN4core3cmp3max17h37f51bc949f970d3E:
Lfunc_begin43:
	.loc	20 1275 0
	.cfi_startproc
	pushq	%rbp
	.cfi_def_cfa_offset 16
	.cfi_offset %rbp, -16
	movq	%rsp, %rbp
	.cfi_def_cfa_register %rbp
	subq	$16, %rsp
	movq	%rdi, -16(%rbp)
	movq	%rsi, -8(%rbp)
Ltmp252:
	.loc	20 1276 5 prologue_end
	callq	__ZN4core3cmp3Ord3max17he54e9c913dde7941E
	.loc	20 1277 2
	addq	$16, %rsp
	popq	%rbp
	retq
Ltmp253:
Lfunc_end43:
	.cfi_endproc

	.p2align	4, 0x90
__ZN4core3cmp3min17h19fb138f84b6889fE:
Lfunc_begin44:
	.loc	20 1184 0
	.cfi_startproc
	pushq	%rbp
	.cfi_def_cfa_offset 16
	.cfi_offset %rbp, -16
	movq	%rsp, %rbp
	.cfi_def_cfa_register %rbp
	subq	$16, %rsp
	movq	%rdi, -16(%rbp)
	movq	%rsi, -8(%rbp)
Ltmp254:
	.loc	20 1185 5 prologue_end
	callq	__ZN4core3cmp3Ord3min17h8d79ef341b555636E
	.loc	20 1186 2
	addq	$16, %rsp
	popq	%rbp
	retq
Ltmp255:
Lfunc_end44:
	.cfi_endproc

	.p2align	4, 0x90
__ZN4core3cmp5impls48_$LT$impl$u20$core..cmp..Ord$u20$for$u20$i32$GT$3cmp17h0cbcee02cfbdba44E:
Lfunc_begin45:
	.loc	20 1454 0
	.cfi_startproc
	pushq	%rbp
	.cfi_def_cfa_offset 16
	.cfi_offset %rbp, -16
	movq	%rsp, %rbp
	.cfi_def_cfa_register %rbp
	subq	$40, %rsp
	movq	%rdi, -40(%rbp)
	movq	%rsi, -32(%rbp)
	movq	%rdi, -16(%rbp)
	movq	%rsi, -8(%rbp)
Ltmp256:
	.loc	20 1457 24 prologue_end
	movl	(%rdi), %eax
	cmpl	(%rsi), %eax
	jl	LBB45_2
	.loc	20 0 24 is_stmt 0
	movq	-32(%rbp), %rcx
	movq	-40(%rbp), %rax
	.loc	20 1458 29 is_stmt 1
	movl	(%rax), %eax
	cmpl	(%rcx), %eax
	je	LBB45_5
	jmp	LBB45_4
LBB45_2:
	.loc	20 1457 41
	movb	$-1, -17(%rbp)
LBB45_3:
	.loc	20 1460 18
	movb	-17(%rbp), %al
	addq	$40, %rsp
	popq	%rbp
	retq
LBB45_4:
	.loc	20 1459 28
	movb	$1, -17(%rbp)
	.loc	20 1458 26
	jmp	LBB45_6
LBB45_5:
	.loc	20 1458 47 is_stmt 0
	movb	$0, -17(%rbp)
LBB45_6:
	.loc	20 1457 21 is_stmt 1
	jmp	LBB45_3
Ltmp257:
Lfunc_end45:
	.cfi_endproc

	.p2align	4, 0x90
__ZN4core3cmp5impls50_$LT$impl$u20$core..cmp..Ord$u20$for$u20$isize$GT$3cmp17hed58eaa204f7fee8E:
Lfunc_begin46:
	.loc	20 1454 0
	.cfi_startproc
	pushq	%rbp
	.cfi_def_cfa_offset 16
	.cfi_offset %rbp, -16
	movq	%rsp, %rbp
	.cfi_def_cfa_register %rbp
	subq	$40, %rsp
	movq	%rdi, -40(%rbp)
	movq	%rsi, -32(%rbp)
	movq	%rdi, -16(%rbp)
	movq	%rsi, -8(%rbp)
Ltmp258:
	.loc	20 1457 24 prologue_end
	movq	(%rdi), %rax
	cmpq	(%rsi), %rax
	jl	LBB46_2
	.loc	20 0 24 is_stmt 0
	movq	-32(%rbp), %rcx
	movq	-40(%rbp), %rax
	.loc	20 1458 29 is_stmt 1
	movq	(%rax), %rax
	cmpq	(%rcx), %rax
	je	LBB46_5
	jmp	LBB46_4
LBB46_2:
	.loc	20 1457 41
	movb	$-1, -17(%rbp)
LBB46_3:
	.loc	20 1460 18
	movb	-17(%rbp), %al
	addq	$40, %rsp
	popq	%rbp
	retq
LBB46_4:
	.loc	20 1459 28
	movb	$1, -17(%rbp)
	.loc	20 1458 26
	jmp	LBB46_6
LBB46_5:
	.loc	20 1458 47 is_stmt 0
	movb	$0, -17(%rbp)
LBB46_6:
	.loc	20 1457 21 is_stmt 1
	jmp	LBB46_3
Ltmp259:
Lfunc_end46:
	.cfi_endproc

	.p2align	4, 0x90
__ZN4core3cmp6max_by17h8406f3a930117f0fE:
Lfunc_begin47:
	.loc	20 1295 0
	.cfi_startproc
	.cfi_personality 155, _rust_eh_personality
	.cfi_lsda 16, Lexception6
	pushq	%rbp
	.cfi_def_cfa_offset 16
	.cfi_offset %rbp, -16
	movq	%rsp, %rbp
	.cfi_def_cfa_register %rbp
	subq	$96, %rsp
	movq	%rdi, -80(%rbp)
	movq	%rsi, -72(%rbp)
Ltmp263:
	.loc	20 1300 11 prologue_end
	movb	$1, -25(%rbp)
	movb	$1, -26(%rbp)
	leaq	-80(%rbp), %rax
	movq	%rax, -48(%rbp)
	leaq	-72(%rbp), %rax
	movq	%rax, -40(%rbp)
	movq	-48(%rbp), %rdi
	movq	-40(%rbp), %rsi
Ltmp260:
	callq	__ZN4core3ops8function6FnOnce9call_once17ha0139dcab4877d80E
Ltmp261:
	movb	%al, -81(%rbp)
	jmp	LBB47_3
LBB47_1:
	.loc	20 1304 1
	jmp	LBB47_4
LBB47_2:
Ltmp262:
	.loc	20 0 1 is_stmt 0
	movq	%rax, %rcx
	movl	%edx, %eax
	movq	%rcx, -16(%rbp)
	movl	%eax, -8(%rbp)
	jmp	LBB47_1
LBB47_3:
	movb	-81(%rbp), %al
	.loc	20 1300 11 is_stmt 1
	movb	%al, -49(%rbp)
	movb	-49(%rbp), %al
	.loc	20 1300 5 is_stmt 0
	incb	%al
	subb	$2, %al
	jb	LBB47_6
	jmp	LBB47_15
LBB47_15:
	jmp	LBB47_7
LBB47_4:
	.loc	20 1304 1 is_stmt 1
	testb	$1, -25(%rbp)
	jne	LBB47_12
	jmp	LBB47_11
	.loc	20 1300 11
	ud2
LBB47_6:
	.loc	20 1301 45
	movb	$0, -26(%rbp)
	movq	-72(%rbp), %rax
	movq	%rax, -64(%rbp)
	jmp	LBB47_8
LBB47_7:
	.loc	20 1302 30
	movb	$0, -25(%rbp)
	movq	-80(%rbp), %rax
	movq	%rax, -64(%rbp)
LBB47_8:
	.loc	20 1304 1
	testb	$1, -26(%rbp)
	jne	LBB47_10
LBB47_9:
	testb	$1, -25(%rbp)
	jne	LBB47_14
	jmp	LBB47_13
LBB47_10:
	jmp	LBB47_9
LBB47_11:
	.loc	20 1295 1
	movq	-16(%rbp), %rdi
	callq	__Unwind_Resume
LBB47_12:
	.loc	20 1304 1
	jmp	LBB47_11
LBB47_13:
	.loc	20 1304 2 is_stmt 0
	movq	-64(%rbp), %rax
	addq	$96, %rsp
	popq	%rbp
	retq
LBB47_14:
	.loc	20 1304 1
	jmp	LBB47_13
Ltmp264:
Lfunc_end47:
	.cfi_endproc
	.section	__TEXT,__gcc_except_tab
	.p2align	2
GCC_except_table47:
Lexception6:
	.byte	255
	.byte	255
	.byte	1
	.uleb128 Lcst_end6-Lcst_begin6
Lcst_begin6:
	.uleb128 Ltmp260-Lfunc_begin47
	.uleb128 Ltmp261-Ltmp260
	.uleb128 Ltmp262-Lfunc_begin47
	.byte	0
	.uleb128 Ltmp261-Lfunc_begin47
	.uleb128 Lfunc_end47-Ltmp261
	.byte	0
	.byte	0
Lcst_end6:
	.p2align	2

	.section	__TEXT,__text,regular,pure_instructions
	.p2align	4, 0x90
__ZN4core3cmp6min_by17h032850009d397cb1E:
Lfunc_begin48:
	.loc	20 1204 0 is_stmt 1
	.cfi_startproc
	.cfi_personality 155, _rust_eh_personality
	.cfi_lsda 16, Lexception7
	pushq	%rbp
	.cfi_def_cfa_offset 16
	.cfi_offset %rbp, -16
	movq	%rsp, %rbp
	.cfi_def_cfa_register %rbp
	subq	$96, %rsp
	movq	%rdi, -80(%rbp)
	movq	%rsi, -72(%rbp)
Ltmp268:
	.loc	20 1209 11 prologue_end
	movb	$1, -25(%rbp)
	movb	$1, -26(%rbp)
	leaq	-80(%rbp), %rax
	movq	%rax, -48(%rbp)
	leaq	-72(%rbp), %rax
	movq	%rax, -40(%rbp)
	movq	-48(%rbp), %rdi
	movq	-40(%rbp), %rsi
Ltmp265:
	callq	__ZN4core3ops8function6FnOnce9call_once17ha0139dcab4877d80E
Ltmp266:
	movb	%al, -81(%rbp)
	jmp	LBB48_3
LBB48_1:
	.loc	20 1213 1
	jmp	LBB48_4
LBB48_2:
Ltmp267:
	.loc	20 0 1 is_stmt 0
	movq	%rax, %rcx
	movl	%edx, %eax
	movq	%rcx, -16(%rbp)
	movl	%eax, -8(%rbp)
	jmp	LBB48_1
LBB48_3:
	movb	-81(%rbp), %al
	.loc	20 1209 11 is_stmt 1
	movb	%al, -49(%rbp)
	movb	-49(%rbp), %al
	.loc	20 1209 5 is_stmt 0
	incb	%al
	subb	$2, %al
	jb	LBB48_6
	jmp	LBB48_15
LBB48_15:
	jmp	LBB48_7
LBB48_4:
	.loc	20 1213 1 is_stmt 1
	testb	$1, -25(%rbp)
	jne	LBB48_12
	jmp	LBB48_11
	.loc	20 1209 11
	ud2
LBB48_6:
	.loc	20 1210 45
	movb	$0, -25(%rbp)
	movq	-80(%rbp), %rax
	movq	%rax, -64(%rbp)
	jmp	LBB48_8
LBB48_7:
	.loc	20 1211 30
	movb	$0, -26(%rbp)
	movq	-72(%rbp), %rax
	movq	%rax, -64(%rbp)
LBB48_8:
	.loc	20 1213 1
	testb	$1, -26(%rbp)
	jne	LBB48_10
LBB48_9:
	testb	$1, -25(%rbp)
	jne	LBB48_14
	jmp	LBB48_13
LBB48_10:
	jmp	LBB48_9
LBB48_11:
	.loc	20 1204 1
	movq	-16(%rbp), %rdi
	callq	__Unwind_Resume
LBB48_12:
	.loc	20 1213 1
	jmp	LBB48_11
LBB48_13:
	.loc	20 1213 2 is_stmt 0
	movq	-64(%rbp), %rax
	addq	$96, %rsp
	popq	%rbp
	retq
LBB48_14:
	.loc	20 1213 1
	jmp	LBB48_13
Ltmp269:
Lfunc_end48:
	.cfi_endproc
	.section	__TEXT,__gcc_except_tab
	.p2align	2
GCC_except_table48:
Lexception7:
	.byte	255
	.byte	255
	.byte	1
	.uleb128 Lcst_end7-Lcst_begin7
Lcst_begin7:
	.uleb128 Ltmp265-Lfunc_begin48
	.uleb128 Ltmp266-Ltmp265
	.uleb128 Ltmp267-Lfunc_begin48
	.byte	0
	.uleb128 Ltmp266-Lfunc_begin48
	.uleb128 Lfunc_end48-Ltmp266
	.byte	0
	.byte	0
Lcst_end7:
	.p2align	2

	.section	__TEXT,__text,regular,pure_instructions
	.p2align	4, 0x90
__ZN4core3cmp8Ordering7reverse17ha07422195c1f611eE:
Lfunc_begin49:
	.loc	20 497 0 is_stmt 1
	.cfi_startproc
	pushq	%rbp
	.cfi_def_cfa_offset 16
	.cfi_offset %rbp, -16
	movq	%rsp, %rbp
	.cfi_def_cfa_register %rbp
	subq	$3, %rsp
	movb	%dil, %al
	movb	%al, -2(%rbp)
Ltmp270:
	.loc	20 498 15 prologue_end
	movb	-2(%rbp), %al
	movb	%al, -3(%rbp)
	.loc	20 498 9 is_stmt 0
	subb	$-1, %al
	je	LBB49_2
	jmp	LBB49_6
LBB49_6:
	.loc	20 0 9
	movb	-3(%rbp), %al
	.loc	20 498 9
	testb	%al, %al
	je	LBB49_3
	jmp	LBB49_7
LBB49_7:
	jmp	LBB49_4
	.loc	20 498 15
	ud2
LBB49_2:
	.loc	20 499 21 is_stmt 1
	movb	$1, -1(%rbp)
	jmp	LBB49_5
LBB49_3:
	.loc	20 500 22
	movb	$0, -1(%rbp)
	jmp	LBB49_5
LBB49_4:
	.loc	20 501 24
	movb	$-1, -1(%rbp)
LBB49_5:
	.loc	20 503 6
	movb	-1(%rbp), %al
	addq	$3, %rsp
	popq	%rbp
	retq
Ltmp271:
Lfunc_end49:
	.cfi_endproc

	.p2align	4, 0x90
__ZN4core3fmt10ArgumentV111new_display17he44e504b6c31c3f1E:
Lfunc_begin50:
	.file	21 "/rustc/2c8cc343237b8f7d5a3c3703e3a87f2eb2c54a74/library/core/src/fmt" "mod.rs"
	.loc	21 327 0
	.cfi_startproc
	pushq	%rbp
	.cfi_def_cfa_offset 16
	.cfi_offset %rbp, -16
	movq	%rsp, %rbp
	.cfi_def_cfa_register %rbp
	subq	$56, %rsp
	movq	%rdi, -40(%rbp)
Ltmp272:
	.loc	21 328 23 prologue_end
	movq	%rdi, -32(%rbp)
	.loc	21 328 26 is_stmt 0
	movq	__ZN3rug5float6traits71_$LT$impl$u20$core..fmt..Display$u20$for$u20$rug..float..big..Float$GT$3fmt17hca481584a3b8dc0aE@GOTPCREL(%rip), %rax
	movq	%rax, -24(%rbp)
Ltmp273:
	.loc	21 347 42 is_stmt 1
	movq	%rax, -16(%rbp)
	movq	-16(%rbp), %rax
	.loc	21 347 68 is_stmt 0
	movq	%rdi, -8(%rbp)
	movq	-8(%rbp), %rcx
	.loc	21 347 18
	movq	%rcx, -56(%rbp)
	movq	%rax, -48(%rbp)
Ltmp274:
	.loc	21 329 10 is_stmt 1
	movq	-56(%rbp), %rax
	movq	-48(%rbp), %rdx
	addq	$56, %rsp
	popq	%rbp
	retq
Ltmp275:
Lfunc_end50:
	.cfi_endproc

	.p2align	4, 0x90
__ZN4core3fmt10ArgumentV111new_display17hfd7730e34037bfe5E:
Lfunc_begin51:
	.loc	21 327 0
	.cfi_startproc
	pushq	%rbp
	.cfi_def_cfa_offset 16
	.cfi_offset %rbp, -16
	movq	%rsp, %rbp
	.cfi_def_cfa_register %rbp
	subq	$56, %rsp
	movq	%rdi, -40(%rbp)
Ltmp276:
	.loc	21 328 23 prologue_end
	movq	%rdi, -32(%rbp)
	.loc	21 328 26 is_stmt 0
	movq	__ZN4core3fmt3num3imp54_$LT$impl$u20$core..fmt..Display$u20$for$u20$isize$GT$3fmt17h52f1ff2aaed0cbadE@GOTPCREL(%rip), %rax
	movq	%rax, -24(%rbp)
Ltmp277:
	.loc	21 347 42 is_stmt 1
	movq	%rax, -16(%rbp)
	movq	-16(%rbp), %rax
	.loc	21 347 68 is_stmt 0
	movq	%rdi, -8(%rbp)
	movq	-8(%rbp), %rcx
	.loc	21 347 18
	movq	%rcx, -56(%rbp)
	movq	%rax, -48(%rbp)
Ltmp278:
	.loc	21 329 10 is_stmt 1
	movq	-56(%rbp), %rax
	movq	-48(%rbp), %rdx
	addq	$56, %rsp
	popq	%rbp
	retq
Ltmp279:
Lfunc_end51:
	.cfi_endproc

	.p2align	4, 0x90
__ZN4core3fmt10ArgumentV19new_debug17h36a2ce9c3b5f329fE:
Lfunc_begin52:
	.loc	21 327 0
	.cfi_startproc
	pushq	%rbp
	.cfi_def_cfa_offset 16
	.cfi_offset %rbp, -16
	movq	%rsp, %rbp
	.cfi_def_cfa_register %rbp
	subq	$56, %rsp
	movq	%rdi, -40(%rbp)
Ltmp280:
	.loc	21 328 23 prologue_end
	movq	%rdi, -32(%rbp)
	.loc	21 328 26 is_stmt 0
	movq	__ZN59_$LT$mandelbrot..Parameters$u20$as$u20$core..fmt..Debug$GT$3fmt17heab049c1c92c1409E@GOTPCREL(%rip), %rax
	movq	%rax, -24(%rbp)
Ltmp281:
	.loc	21 347 42 is_stmt 1
	movq	%rax, -16(%rbp)
	movq	-16(%rbp), %rax
	.loc	21 347 68 is_stmt 0
	movq	%rdi, -8(%rbp)
	movq	-8(%rbp), %rcx
	.loc	21 347 18
	movq	%rcx, -56(%rbp)
	movq	%rax, -48(%rbp)
Ltmp282:
	.loc	21 329 10 is_stmt 1
	movq	-56(%rbp), %rax
	movq	-48(%rbp), %rdx
	addq	$56, %rsp
	popq	%rbp
	retq
Ltmp283:
Lfunc_end52:
	.cfi_endproc

	.p2align	4, 0x90
__ZN4core3fmt9Arguments6as_str17he3f4c6b02c6498b7E:
Lfunc_begin53:
	.loc	21 521 0
	.cfi_startproc
	pushq	%rbp
	.cfi_def_cfa_offset 16
	.cfi_offset %rbp, -16
	movq	%rsp, %rbp
	.cfi_def_cfa_register %rbp
	subq	$64, %rsp
	movq	%rdi, -16(%rbp)
Ltmp284:
	.loc	21 522 16 prologue_end
	movq	16(%rdi), %rsi
	movq	24(%rdi), %rdx
	.loc	21 522 29 is_stmt 0
	movq	32(%rdi), %rcx
	movq	40(%rdi), %rax
	.loc	21 522 15
	movq	%rsi, -48(%rbp)
	movq	%rdx, -40(%rbp)
	movq	%rcx, -32(%rbp)
	movq	%rax, -24(%rbp)
	.loc	21 523 14 is_stmt 1
	cmpq	$0, -40(%rbp)
	je	LBB53_2
	.loc	21 524 14
	cmpq	$1, -40(%rbp)
	je	LBB53_6
	jmp	LBB53_3
LBB53_2:
	.loc	21 523 18
	cmpq	$0, -24(%rbp)
	je	LBB53_4
LBB53_3:
	.loc	21 525 18
	movq	$0, -64(%rbp)
	jmp	LBB53_5
LBB53_4:
	.loc	21 523 25
	leaq	l___unnamed_18(%rip), %rax
	movq	%rax, -64(%rbp)
	movq	$0, -56(%rbp)
LBB53_5:
	.loc	21 527 6
	movq	-64(%rbp), %rax
	movq	-56(%rbp), %rdx
	addq	$64, %rsp
	popq	%rbp
	retq
LBB53_6:
	.loc	21 524 19
	cmpq	$0, -24(%rbp)
	jne	LBB53_3
	.loc	21 524 15 is_stmt 0
	movq	-48(%rbp), %rax
	movq	%rax, -8(%rbp)
Ltmp285:
	.loc	21 524 31
	movq	(%rax), %rcx
	movq	8(%rax), %rax
	.loc	21 524 26
	movq	%rcx, -64(%rbp)
	movq	%rax, -56(%rbp)
Ltmp286:
	.loc	21 524 32
	jmp	LBB53_5
Ltmp287:
Lfunc_end53:
	.cfi_endproc

	.p2align	4, 0x90
__ZN4core3fmt9Arguments6new_v117h5ba09674631e6281E:
Lfunc_begin54:
	.loc	21 399 0 is_stmt 1
	.cfi_startproc
	pushq	%rbp
	.cfi_def_cfa_offset 16
	.cfi_offset %rbp, -16
	movq	%rsp, %rbp
	.cfi_def_cfa_register %rbp
	subq	$160, %rsp
	movq	%r8, -152(%rbp)
	movq	%rcx, -144(%rbp)
	movq	%rdx, -136(%rbp)
	movq	%rsi, -128(%rbp)
	movq	%rdi, -120(%rbp)
	movq	%rdi, -112(%rbp)
	movq	%rsi, -32(%rbp)
	movq	%rdx, -24(%rbp)
	movq	%rcx, -16(%rbp)
	movq	%r8, -8(%rbp)
Ltmp288:
	.loc	21 400 12 prologue_end
	cmpq	%r8, %rdx
	jb	LBB54_2
	.loc	21 0 12 is_stmt 0
	movq	-136(%rbp), %rax
	movq	-152(%rbp), %rcx
	.loc	21 400 56
	addq	$1, %rcx
	.loc	21 400 41
	cmpq	%rcx, %rax
	seta	%al
	.loc	21 400 12
	andb	$1, %al
	movb	%al, -97(%rbp)
	jmp	LBB54_3
LBB54_2:
	movb	$1, -97(%rbp)
LBB54_3:
	testb	$1, -97(%rbp)
	jne	LBB54_5
	.loc	21 0 12
	movq	-112(%rbp), %rax
	movq	-120(%rbp), %rcx
	movq	-152(%rbp), %rdx
	movq	-144(%rbp), %rsi
	movq	-136(%rbp), %rdi
	movq	-128(%rbp), %r8
	.loc	21 403 34 is_stmt 1
	movq	$0, -48(%rbp)
	.loc	21 403 9 is_stmt 0
	movq	%r8, 16(%rcx)
	movq	%rdi, 24(%rcx)
	movq	-48(%rbp), %r8
	movq	-40(%rbp), %rdi
	movq	%r8, (%rcx)
	movq	%rdi, 8(%rcx)
	movq	%rsi, 32(%rcx)
	movq	%rdx, 40(%rcx)
	.loc	21 404 6 is_stmt 1
	addq	$160, %rsp
	popq	%rbp
	retq
LBB54_5:
	.loc	21 401 13
	leaq	l___unnamed_20(%rip), %rsi
	leaq	l___unnamed_18(%rip), %rcx
	xorl	%eax, %eax
	movl	%eax, %r8d
	leaq	-96(%rbp), %rdi
	movq	%rdi, -160(%rbp)
	movl	$1, %edx
	callq	__ZN4core3fmt9Arguments6new_v117h5ba09674631e6281E
	movq	-160(%rbp), %rdi
	leaq	l___unnamed_21(%rip), %rsi
	callq	__ZN4core9panicking9panic_fmt17h9b5d807e24bcaaedE
Ltmp289:
Lfunc_end54:
	.cfi_endproc

	.p2align	4, 0x90
__ZN4core3num21_$LT$impl$u20$u64$GT$11checked_add17h51e8ec7eef811bc3E:
Lfunc_begin55:
	.file	22 "/rustc/2c8cc343237b8f7d5a3c3703e3a87f2eb2c54a74/library/core/src/num" "uint_macros.rs"
	.loc	22 442 0
	.cfi_startproc
	pushq	%rbp
	.cfi_def_cfa_offset 16
	.cfi_offset %rbp, -16
	movq	%rsp, %rbp
	.cfi_def_cfa_register %rbp
	subq	$120, %rsp
	movq	%rdi, -80(%rbp)
	movq	%rsi, -72(%rbp)
Ltmp290:
	.loc	22 443 26 prologue_end
	movq	%rdi, -64(%rbp)
	.loc	22 443 47 is_stmt 0
	movq	%rsi, -56(%rbp)
Ltmp291:
	.loc	22 1479 26 is_stmt 1
	addq	%rsi, %rdi
	setb	%al
	andb	$1, %al
	movq	%rdi, -48(%rbp)
	movb	%al, -40(%rbp)
	movq	-48(%rbp), %rcx
	movb	-40(%rbp), %al
	.loc	22 1479 18 is_stmt 0
	movq	%rcx, -32(%rbp)
	.loc	22 1479 21
	movb	%al, %dl
	andb	$1, %dl
	movb	%dl, -17(%rbp)
Ltmp292:
	.loc	22 1480 13 is_stmt 1
	movq	%rcx, -96(%rbp)
	andb	$1, %al
	movb	%al, -88(%rbp)
Ltmp293:
	.loc	22 443 18
	movq	-96(%rbp), %rax
	movq	%rax, -120(%rbp)
	movq	%rax, -16(%rbp)
	.loc	22 443 21 is_stmt 0
	movb	-88(%rbp), %al
	movb	%al, %cl
	andb	$1, %cl
	movb	%cl, -2(%rbp)
Ltmp294:
	.loc	22 444 16 is_stmt 1
	andb	$1, %al
	movb	%al, -1(%rbp)
	testb	$1, -1(%rbp)
	jne	LBB55_2
	.loc	22 0 16 is_stmt 0
	movq	-120(%rbp), %rax
	.loc	22 444 42
	movq	%rax, -104(%rbp)
	movq	$1, -112(%rbp)
	.loc	22 444 13
	jmp	LBB55_3
LBB55_2:
	.loc	22 444 30
	movq	$0, -112(%rbp)
Ltmp295:
LBB55_3:
	.loc	22 445 10 is_stmt 1
	movq	-112(%rbp), %rax
	movq	-104(%rbp), %rdx
	addq	$120, %rsp
	popq	%rbp
	retq
Ltmp296:
Lfunc_end55:
	.cfi_endproc

	.p2align	4, 0x90
__ZN4core3ops8function6FnOnce40call_once$u7b$$u7b$vtable.shim$u7d$$u7d$17h1a70d8cc83769a57E:
Lfunc_begin56:
	.file	23 "/rustc/2c8cc343237b8f7d5a3c3703e3a87f2eb2c54a74/library/core/src/ops" "function.rs"
	.loc	23 250 0
	.cfi_startproc
	pushq	%rbp
	.cfi_def_cfa_offset 16
	.cfi_offset %rbp, -16
	movq	%rsp, %rbp
	.cfi_def_cfa_register %rbp
	subq	$16, %rsp
	movq	%rsi, -16(%rbp)
	movq	%rdi, -8(%rbp)
Ltmp297:
	.loc	23 250 5 prologue_end
	movq	-16(%rbp), %rsi
	callq	__ZN45_$LT$gui..App$u20$as$u20$eframe..epi..App$GT$6update28_$u7b$$u7b$closure$u7d$$u7d$28_$u7b$$u7b$closure$u7d$$u7d$28_$u7b$$u7b$closure$u7d$$u7d$28_$u7b$$u7b$closure$u7d$$u7d$17hb251556d449225f9E
	addq	$16, %rsp
	popq	%rbp
	retq
Ltmp298:
Lfunc_end56:
	.cfi_endproc

	.p2align	4, 0x90
__ZN4core3ops8function6FnOnce40call_once$u7b$$u7b$vtable.shim$u7d$$u7d$17h2c332fde61cd2386E:
Lfunc_begin57:
	.loc	23 250 0
	.cfi_startproc
	pushq	%rbp
	.cfi_def_cfa_offset 16
	.cfi_offset %rbp, -16
	movq	%rsp, %rbp
	.cfi_def_cfa_register %rbp
	subq	$16, %rsp
	movq	%rsi, -16(%rbp)
	movq	%rdi, -8(%rbp)
Ltmp299:
	.loc	23 250 5 prologue_end
	movq	-16(%rbp), %rdi
	callq	__ZN3gui4main28_$u7b$$u7b$closure$u7d$$u7d$17hc228e3bc7ff608fdE
	addq	$16, %rsp
	popq	%rbp
	retq
Ltmp300:
Lfunc_end57:
	.cfi_endproc

	.p2align	4, 0x90
__ZN4core3ops8function6FnOnce40call_once$u7b$$u7b$vtable.shim$u7d$$u7d$17h36cbf90824310b11E:
Lfunc_begin58:
	.loc	23 250 0
	.cfi_startproc
	pushq	%rbp
	.cfi_def_cfa_offset 16
	.cfi_offset %rbp, -16
	movq	%rsp, %rbp
	.cfi_def_cfa_register %rbp
	subq	$16, %rsp
	movq	%rsi, -16(%rbp)
	movq	%rdi, -8(%rbp)
Ltmp301:
	.loc	23 250 5 prologue_end
	movq	-16(%rbp), %rsi
	callq	__ZN45_$LT$gui..App$u20$as$u20$eframe..epi..App$GT$6update28_$u7b$$u7b$closure$u7d$$u7d$28_$u7b$$u7b$closure$u7d$$u7d$28_$u7b$$u7b$closure$u7d$$u7d$17hf6e1574d02f23affE
	addq	$16, %rsp
	popq	%rbp
	retq
Ltmp302:
Lfunc_end58:
	.cfi_endproc

	.p2align	4, 0x90
__ZN4core3ops8function6FnOnce40call_once$u7b$$u7b$vtable.shim$u7d$$u7d$17h42783ff1dfbe279bE:
Lfunc_begin59:
	.loc	23 250 0
	.cfi_startproc
	pushq	%rbp
	.cfi_def_cfa_offset 16
	.cfi_offset %rbp, -16
	movq	%rsp, %rbp
	.cfi_def_cfa_register %rbp
	subq	$16, %rsp
	movq	%rsi, -16(%rbp)
	movq	%rdi, -8(%rbp)
Ltmp303:
	.loc	23 250 5 prologue_end
	movq	-16(%rbp), %rsi
	callq	__ZN45_$LT$gui..App$u20$as$u20$eframe..epi..App$GT$6update28_$u7b$$u7b$closure$u7d$$u7d$17h273c17727070d949E
	addq	$16, %rsp
	popq	%rbp
	retq
Ltmp304:
Lfunc_end59:
	.cfi_endproc

	.p2align	4, 0x90
__ZN4core3ops8function6FnOnce40call_once$u7b$$u7b$vtable.shim$u7d$$u7d$17h6de455e89ea58eabE:
Lfunc_begin60:
	.loc	23 250 0
	.cfi_startproc
	pushq	%rbp
	.cfi_def_cfa_offset 16
	.cfi_offset %rbp, -16
	movq	%rsp, %rbp
	.cfi_def_cfa_register %rbp
	subq	$16, %rsp
	movq	%rdi, -8(%rbp)
Ltmp305:
	.loc	23 250 5 prologue_end
	movq	(%rdi), %rdi
	callq	__ZN4core3ops8function6FnOnce9call_once17h34d2bf24565e0167E
	addq	$16, %rsp
	popq	%rbp
	retq
Ltmp306:
Lfunc_end60:
	.cfi_endproc

	.p2align	4, 0x90
__ZN4core3ops8function6FnOnce40call_once$u7b$$u7b$vtable.shim$u7d$$u7d$17h9f535d9c51465941E:
Lfunc_begin61:
	.loc	23 250 0
	.cfi_startproc
	pushq	%rbp
	.cfi_def_cfa_offset 16
	.cfi_offset %rbp, -16
	movq	%rsp, %rbp
	.cfi_def_cfa_register %rbp
	subq	$16, %rsp
	movq	%rsi, -16(%rbp)
	movq	%rdi, -8(%rbp)
Ltmp307:
	.loc	23 250 5 prologue_end
	movq	-16(%rbp), %rsi
	callq	__ZN45_$LT$gui..App$u20$as$u20$eframe..epi..App$GT$6update28_$u7b$$u7b$closure$u7d$$u7d$28_$u7b$$u7b$closure$u7d$$u7d$28_$u7b$$u7b$closure$u7d$$u7d$28_$u7b$$u7b$closure$u7d$$u7d$17h21b1114d3a972eb0E
	addq	$16, %rsp
	popq	%rbp
	retq
Ltmp308:
Lfunc_end61:
	.cfi_endproc

	.p2align	4, 0x90
__ZN4core3ops8function6FnOnce40call_once$u7b$$u7b$vtable.shim$u7d$$u7d$17hd19edc799d2810d2E:
Lfunc_begin62:
	.loc	23 250 0
	.cfi_startproc
	pushq	%rbp
	.cfi_def_cfa_offset 16
	.cfi_offset %rbp, -16
	movq	%rsp, %rbp
	.cfi_def_cfa_register %rbp
	subq	$16, %rsp
	movq	%rdi, %rax
	movq	%rsi, -16(%rbp)
	movq	%rax, -8(%rbp)
Ltmp309:
	.loc	23 250 5 prologue_end
	movq	(%rax), %rdi
	movq	8(%rax), %rsi
	movq	-16(%rbp), %rdx
	callq	__ZN4egui10containers5panel12CentralPanel15show_inside_dyn28_$u7b$$u7b$closure$u7d$$u7d$17he3baed45b4bcf9f4E
	addq	$16, %rsp
	popq	%rbp
	retq
Ltmp310:
Lfunc_end62:
	.cfi_endproc

	.p2align	4, 0x90
__ZN4core3ops8function6FnOnce40call_once$u7b$$u7b$vtable.shim$u7d$$u7d$17hda5efbf83334cf31E:
Lfunc_begin63:
	.loc	23 250 0
	.cfi_startproc
	pushq	%rbp
	.cfi_def_cfa_offset 16
	.cfi_offset %rbp, -16
	movq	%rsp, %rbp
	.cfi_def_cfa_register %rbp
	subq	$16, %rsp
	movq	%rsi, -16(%rbp)
	movq	%rdi, -8(%rbp)
Ltmp311:
	.loc	23 250 5 prologue_end
	movq	-16(%rbp), %rsi
	callq	__ZN45_$LT$gui..App$u20$as$u20$eframe..epi..App$GT$6update28_$u7b$$u7b$closure$u7d$$u7d$28_$u7b$$u7b$closure$u7d$$u7d$28_$u7b$$u7b$closure$u7d$$u7d$17hdf372cf120196689E
	addq	$16, %rsp
	popq	%rbp
	retq
Ltmp312:
Lfunc_end63:
	.cfi_endproc

	.p2align	4, 0x90
__ZN4core3ops8function6FnOnce40call_once$u7b$$u7b$vtable.shim$u7d$$u7d$17hed2530b3a7fc8f0cE:
Lfunc_begin64:
	.loc	23 250 0
	.cfi_startproc
	pushq	%rbp
	.cfi_def_cfa_offset 16
	.cfi_offset %rbp, -16
	movq	%rsp, %rbp
	.cfi_def_cfa_register %rbp
	subq	$16, %rsp
	movq	%rsi, -16(%rbp)
	movq	%rdi, -8(%rbp)
Ltmp313:
	.loc	23 250 5 prologue_end
	movq	-16(%rbp), %rsi
	callq	__ZN45_$LT$gui..App$u20$as$u20$eframe..epi..App$GT$6update28_$u7b$$u7b$closure$u7d$$u7d$28_$u7b$$u7b$closure$u7d$$u7d$17h515e9f35a9e713c2E
	addq	$16, %rsp
	popq	%rbp
	retq
Ltmp314:
Lfunc_end64:
	.cfi_endproc

	.p2align	4, 0x90
__ZN4core3ops8function6FnOnce9call_once17h34d2bf24565e0167E:
Lfunc_begin65:
	.loc	23 250 0
	.cfi_startproc
	.cfi_personality 155, _rust_eh_personality
	.cfi_lsda 16, Lexception8
	pushq	%rbp
	.cfi_def_cfa_offset 16
	.cfi_offset %rbp, -16
	movq	%rsp, %rbp
	.cfi_def_cfa_register %rbp
	subq	$48, %rsp
	movq	%rdi, -32(%rbp)
Ltmp315:
	leaq	-32(%rbp), %rdi
Ltmp318:
	.loc	23 250 5 prologue_end
	callq	__ZN3std2rt10lang_start28_$u7b$$u7b$closure$u7d$$u7d$17h3181597bbda9c2f7E
Ltmp316:
	movl	%eax, -36(%rbp)
	jmp	LBB65_3
LBB65_1:
	movq	-16(%rbp), %rdi
	callq	__Unwind_Resume
LBB65_2:
Ltmp317:
	.loc	23 0 5 is_stmt 0
	movq	%rax, %rcx
	movl	%edx, %eax
	movq	%rcx, -16(%rbp)
	movl	%eax, -8(%rbp)
	jmp	LBB65_1
LBB65_3:
	movl	-36(%rbp), %eax
	.loc	23 250 5
	addq	$48, %rsp
	popq	%rbp
	retq
Ltmp319:
Lfunc_end65:
	.cfi_endproc
	.section	__TEXT,__gcc_except_tab
	.p2align	2
GCC_except_table65:
Lexception8:
	.byte	255
	.byte	255
	.byte	1
	.uleb128 Lcst_end8-Lcst_begin8
Lcst_begin8:
	.uleb128 Ltmp315-Lfunc_begin65
	.uleb128 Ltmp316-Ltmp315
	.uleb128 Ltmp317-Lfunc_begin65
	.byte	0
	.uleb128 Ltmp316-Lfunc_begin65
	.uleb128 Lfunc_end65-Ltmp316
	.byte	0
	.byte	0
Lcst_end8:
	.p2align	2

	.section	__TEXT,__text,regular,pure_instructions
	.p2align	4, 0x90
__ZN4core3ops8function6FnOnce9call_once17ha0139dcab4877d80E:
Lfunc_begin66:
	.loc	23 250 0 is_stmt 1
	.cfi_startproc
	pushq	%rbp
	.cfi_def_cfa_offset 16
	.cfi_offset %rbp, -16
	movq	%rsp, %rbp
	.cfi_def_cfa_register %rbp
	subq	$32, %rsp
	movq	%rdi, -24(%rbp)
	movq	%rsi, -16(%rbp)
Ltmp320:
	.loc	23 250 5 prologue_end
	movq	-24(%rbp), %rdi
	movq	-16(%rbp), %rsi
	callq	__ZN4core3cmp5impls50_$LT$impl$u20$core..cmp..Ord$u20$for$u20$isize$GT$3cmp17hed58eaa204f7fee8E
	addq	$32, %rsp
	popq	%rbp
	retq
Ltmp321:
Lfunc_end66:
	.cfi_endproc

	.p2align	4, 0x90
__ZN4core3ops8function6FnOnce9call_once17hd7087d9835f42beeE:
Lfunc_begin67:
	.loc	23 250 0
	.cfi_startproc
	pushq	%rbp
	.cfi_def_cfa_offset 16
	.cfi_offset %rbp, -16
	movq	%rsp, %rbp
	.cfi_def_cfa_register %rbp
	subq	$16, %rsp
	movq	%rdi, -8(%rbp)
Ltmp322:
	.loc	23 250 5 prologue_end
	callq	*%rdi
	addq	$16, %rsp
	popq	%rbp
	retq
Ltmp323:
Lfunc_end67:
	.cfi_endproc

	.p2align	4, 0x90
__ZN4core3ptr102drop_in_place$LT$$LT$gui..App$u20$as$u20$eframe..epi..App$GT$..update..$u7b$$u7b$closure$u7d$$u7d$$GT$17hc5499ddad6e27c5fE:
Lfunc_begin68:
	.file	24 "/rustc/2c8cc343237b8f7d5a3c3703e3a87f2eb2c54a74/library/core/src/ptr" "mod.rs"
	.loc	24 490 0
	.cfi_startproc
	pushq	%rbp
	.cfi_def_cfa_offset 16
	.cfi_offset %rbp, -16
	movq	%rsp, %rbp
	.cfi_def_cfa_register %rbp
	pushq	%rax
	movq	%rdi, -8(%rbp)
Ltmp324:
	.loc	24 490 1 prologue_end
	addq	$8, %rsp
	popq	%rbp
	retq
Ltmp325:
Lfunc_end68:
	.cfi_endproc

	.p2align	4, 0x90
__ZN4core3ptr120drop_in_place$LT$egui..containers..panel..CentralPanel..show_inside_dyn$LT$$LP$$RP$$GT$..$u7b$$u7b$closure$u7d$$u7d$$GT$17hb618a9df200dbc34E:
Lfunc_begin69:
	.loc	24 490 0
	.cfi_startproc
	pushq	%rbp
	.cfi_def_cfa_offset 16
	.cfi_offset %rbp, -16
	movq	%rsp, %rbp
	.cfi_def_cfa_register %rbp
	subq	$16, %rsp
	movq	%rdi, -8(%rbp)
Ltmp326:
	.loc	24 490 1 prologue_end
	callq	__ZN4core3ptr158drop_in_place$LT$alloc..boxed..Box$LT$dyn$u20$core..ops..function..FnOnce$LT$$LP$$RF$mut$u20$egui..ui..Ui$C$$RP$$GT$$u2b$Output$u20$$u3d$$u20$$LP$$RP$$GT$$GT$17h6afed637afbca400E
	addq	$16, %rsp
	popq	%rbp
	retq
Ltmp327:
Lfunc_end69:
	.cfi_endproc

	.p2align	4, 0x90
__ZN4core3ptr131drop_in_place$LT$$LT$gui..App$u20$as$u20$eframe..epi..App$GT$..update..$u7b$$u7b$closure$u7d$$u7d$..$u7b$$u7b$closure$u7d$$u7d$$GT$17h27e750032ba54235E:
Lfunc_begin70:
	.loc	24 490 0
	.cfi_startproc
	pushq	%rbp
	.cfi_def_cfa_offset 16
	.cfi_offset %rbp, -16
	movq	%rsp, %rbp
	.cfi_def_cfa_register %rbp
	pushq	%rax
	movq	%rdi, -8(%rbp)
Ltmp328:
	.loc	24 490 1 prologue_end
	addq	$8, %rsp
	popq	%rbp
	retq
Ltmp329:
Lfunc_end70:
	.cfi_endproc

	.p2align	4, 0x90
__ZN4core3ptr160drop_in_place$LT$$LT$gui..App$u20$as$u20$eframe..epi..App$GT$..update..$u7b$$u7b$closure$u7d$$u7d$..$u7b$$u7b$closure$u7d$$u7d$..$u7b$$u7b$closure$u7d$$u7d$$GT$17h7d590de0446be5bdE:
Lfunc_begin71:
	.loc	24 490 0
	.cfi_startproc
	pushq	%rbp
	.cfi_def_cfa_offset 16
	.cfi_offset %rbp, -16
	movq	%rsp, %rbp
	.cfi_def_cfa_register %rbp
	pushq	%rax
	movq	%rdi, -8(%rbp)
Ltmp330:
	.loc	24 490 1 prologue_end
	addq	$8, %rsp
	popq	%rbp
	retq
Ltmp331:
Lfunc_end71:
	.cfi_endproc

	.p2align	4, 0x90
__ZN4core3ptr160drop_in_place$LT$$LT$gui..App$u20$as$u20$eframe..epi..App$GT$..update..$u7b$$u7b$closure$u7d$$u7d$..$u7b$$u7b$closure$u7d$$u7d$..$u7b$$u7b$closure$u7d$$u7d$$GT$17ha78053b1009e6948E:
Lfunc_begin72:
	.loc	24 490 0
	.cfi_startproc
	pushq	%rbp
	.cfi_def_cfa_offset 16
	.cfi_offset %rbp, -16
	movq	%rsp, %rbp
	.cfi_def_cfa_register %rbp
	pushq	%rax
	movq	%rdi, -8(%rbp)
Ltmp332:
	.loc	24 490 1 prologue_end
	addq	$8, %rsp
	popq	%rbp
	retq
Ltmp333:
Lfunc_end72:
	.cfi_endproc

	.p2align	4, 0x90
__ZN4core3ptr189drop_in_place$LT$$LT$gui..App$u20$as$u20$eframe..epi..App$GT$..update..$u7b$$u7b$closure$u7d$$u7d$..$u7b$$u7b$closure$u7d$$u7d$..$u7b$$u7b$closure$u7d$$u7d$..$u7b$$u7b$closure$u7d$$u7d$$GT$17ha079cf9a1e7770d3E:
Lfunc_begin73:
	.loc	24 490 0
	.cfi_startproc
	pushq	%rbp
	.cfi_def_cfa_offset 16
	.cfi_offset %rbp, -16
	movq	%rsp, %rbp
	.cfi_def_cfa_register %rbp
	pushq	%rax
	movq	%rdi, -8(%rbp)
Ltmp334:
	.loc	24 490 1 prologue_end
	addq	$8, %rsp
	popq	%rbp
	retq
Ltmp335:
Lfunc_end73:
	.cfi_endproc

	.p2align	4, 0x90
__ZN4core3ptr189drop_in_place$LT$$LT$gui..App$u20$as$u20$eframe..epi..App$GT$..update..$u7b$$u7b$closure$u7d$$u7d$..$u7b$$u7b$closure$u7d$$u7d$..$u7b$$u7b$closure$u7d$$u7d$..$u7b$$u7b$closure$u7d$$u7d$$GT$17hf2724b51c087378cE:
Lfunc_begin74:
	.loc	24 490 0
	.cfi_startproc
	pushq	%rbp
	.cfi_def_cfa_offset 16
	.cfi_offset %rbp, -16
	movq	%rsp, %rbp
	.cfi_def_cfa_register %rbp
	pushq	%rax
	movq	%rdi, -8(%rbp)
Ltmp336:
	.loc	24 490 1 prologue_end
	addq	$8, %rsp
	popq	%rbp
	retq
Ltmp337:
Lfunc_end74:
	.cfi_endproc

	.p2align	4, 0x90
__ZN4core3ptr28drop_in_place$LT$$RF$str$GT$17h15ce14a641de7ea7E:
Lfunc_begin75:
	.loc	24 490 0
	.cfi_startproc
	pushq	%rbp
	.cfi_def_cfa_offset 16
	.cfi_offset %rbp, -16
	movq	%rsp, %rbp
	.cfi_def_cfa_register %rbp
	pushq	%rax
	movq	%rdi, -8(%rbp)
Ltmp338:
	.loc	24 490 1 prologue_end
	addq	$8, %rsp
	popq	%rbp
	retq
Ltmp339:
Lfunc_end75:
	.cfi_endproc

	.p2align	4, 0x90
__ZN4core3ptr29drop_in_place$LT$gui..App$GT$17h87a3aafd622d0fdfE:
Lfunc_begin76:
	.loc	24 490 0
	.cfi_startproc
	.cfi_personality 155, _rust_eh_personality
	.cfi_lsda 16, Lexception9
	pushq	%rbp
	.cfi_def_cfa_offset 16
	.cfi_offset %rbp, -16
	movq	%rsp, %rbp
	.cfi_def_cfa_register %rbp
	subq	$32, %rsp
	movq	%rdi, -32(%rbp)
	movq	%rdi, -24(%rbp)
Ltmp340:
Ltmp346:
	.loc	24 490 1 prologue_end
	callq	__ZN4core3ptr43drop_in_place$LT$mandelbrot..Parameters$GT$17h6dc047e70610e701E
Ltmp341:
	jmp	LBB76_3
LBB76_1:
	.loc	24 0 1 is_stmt 0
	movq	-32(%rbp), %rdi
	.loc	24 490 1
	addq	$184, %rdi
Ltmp343:
	callq	__ZN4core3ptr67drop_in_place$LT$alloc..vec..Vec$LT$mandelbrot..ReturnColor$GT$$GT$17h1f15e6ad02e3122eE
Ltmp344:
	jmp	LBB76_5
LBB76_2:
Ltmp342:
	.loc	24 0 1
	movq	%rax, %rcx
	movl	%edx, %eax
	movq	%rcx, -16(%rbp)
	movl	%eax, -8(%rbp)
	jmp	LBB76_1
LBB76_3:
	movq	-32(%rbp), %rdi
	.loc	24 490 1
	addq	$184, %rdi
	callq	__ZN4core3ptr67drop_in_place$LT$alloc..vec..Vec$LT$mandelbrot..ReturnColor$GT$$GT$17h1f15e6ad02e3122eE
	addq	$32, %rsp
	popq	%rbp
	retq
LBB76_4:
Ltmp345:
	callq	__ZN4core9panicking19panic_cannot_unwind17h1fbca7e1d7f56ae1E
LBB76_5:
	movq	-16(%rbp), %rdi
	callq	__Unwind_Resume
Ltmp347:
Lfunc_end76:
	.cfi_endproc
	.section	__TEXT,__gcc_except_tab
	.p2align	2
GCC_except_table76:
Lexception9:
	.byte	255
	.byte	255
	.byte	1
	.uleb128 Lcst_end9-Lcst_begin9
Lcst_begin9:
	.uleb128 Ltmp340-Lfunc_begin76
	.uleb128 Ltmp341-Ltmp340
	.uleb128 Ltmp342-Lfunc_begin76
	.byte	0
	.uleb128 Ltmp343-Lfunc_begin76
	.uleb128 Ltmp344-Ltmp343
	.uleb128 Ltmp345-Lfunc_begin76
	.byte	0
	.uleb128 Ltmp344-Lfunc_begin76
	.uleb128 Lfunc_end76-Ltmp344
	.byte	0
	.byte	0
Lcst_end9:
	.p2align	2

	.section	__TEXT,__text,regular,pure_instructions
	.p2align	4, 0x90
__ZN4core3ptr59drop_in_place$LT$gui..main..$u7b$$u7b$closure$u7d$$u7d$$GT$17h0f7aee722413f8aaE:
Lfunc_begin77:
	.loc	24 490 0 is_stmt 1
	.cfi_startproc
	pushq	%rbp
	.cfi_def_cfa_offset 16
	.cfi_offset %rbp, -16
	movq	%rsp, %rbp
	.cfi_def_cfa_register %rbp
	pushq	%rax
	movq	%rdi, -8(%rbp)
Ltmp348:
	.loc	24 490 1 prologue_end
	addq	$8, %rsp
	popq	%rbp
	retq
Ltmp349:
Lfunc_end77:
	.cfi_endproc

	.p2align	4, 0x90
__ZN4core3ptr85drop_in_place$LT$std..rt..lang_start$LT$$LP$$RP$$GT$..$u7b$$u7b$closure$u7d$$u7d$$GT$17hf24ff5c385ad8e15E:
Lfunc_begin78:
	.loc	24 490 0
	.cfi_startproc
	pushq	%rbp
	.cfi_def_cfa_offset 16
	.cfi_offset %rbp, -16
	movq	%rsp, %rbp
	.cfi_def_cfa_register %rbp
	pushq	%rax
	movq	%rdi, -8(%rbp)
Ltmp350:
	.loc	24 490 1 prologue_end
	addq	$8, %rsp
	popq	%rbp
	retq
Ltmp351:
Lfunc_end78:
	.cfi_endproc

	.p2align	4, 0x90
__ZN4core4time8Duration3new17heb41a1a83c443fbbE:
Lfunc_begin79:
	.file	25 "/rustc/2c8cc343237b8f7d5a3c3703e3a87f2eb2c54a74/library/core/src" "time.rs"
	.loc	25 199 0
	.cfi_startproc
	pushq	%rbp
	.cfi_def_cfa_offset 16
	.cfi_offset %rbp, -16
	movq	%rsp, %rbp
	.cfi_def_cfa_register %rbp
	subq	$144, %rsp
	movl	%esi, -132(%rbp)
	movq	%rdi, -40(%rbp)
	movl	%esi, -28(%rbp)
Ltmp352:
	.loc	25 200 43 prologue_end
	shrl	$9, %esi
	movl	%esi, %eax
	imulq	$281475, %rax, %rsi
	shrq	$39, %rsi
	.loc	25 200 26 is_stmt 0
	callq	__ZN4core3num21_$LT$impl$u20$u64$GT$11checked_add17h51e8ec7eef811bc3E
	movq	%rdx, -104(%rbp)
	movq	%rax, -112(%rbp)
	.loc	25 200 20
	cmpq	$0, -112(%rbp)
	jne	LBB79_2
	.loc	25 202 21 is_stmt 1
	leaq	l___unnamed_22(%rip), %rsi
	leaq	l___unnamed_18(%rip), %rcx
	xorl	%eax, %eax
	movl	%eax, %r8d
	leaq	-96(%rbp), %rdi
	movq	%rdi, -144(%rbp)
	movl	$1, %edx
	callq	__ZN4core3fmt9Arguments6new_v117h5ba09674631e6281E
	movq	-144(%rbp), %rdi
	leaq	l___unnamed_23(%rip), %rsi
	callq	__ZN4core9panicking9panic_fmt17h9b5d807e24bcaaedE
LBB79_2:
	.loc	25 0 21 is_stmt 0
	movl	-132(%rbp), %ecx
	.loc	25 201 18 is_stmt 1
	movq	-104(%rbp), %rax
	movq	%rax, -24(%rbp)
Ltmp353:
	.loc	25 201 27 is_stmt 0
	movq	%rax, -16(%rbp)
Ltmp354:
	.loc	25 204 21 is_stmt 1
	movl	%ecx, %edx
	shrl	$9, %edx
	imulq	$281475, %rdx, %rdx
	shrq	$39, %rdx
	imull	$1000000000, %edx, %edx
	subl	%edx, %ecx
	movl	%ecx, -4(%rbp)
Ltmp355:
	.loc	25 206 42
	movl	%ecx, -44(%rbp)
	.loc	25 206 9 is_stmt 0
	movq	%rax, -128(%rbp)
	movl	-44(%rbp), %eax
	movl	%eax, -120(%rbp)
Ltmp356:
	.loc	25 207 6 is_stmt 1
	movq	-128(%rbp), %rax
	movl	-120(%rbp), %edx
	addq	$144, %rsp
	popq	%rbp
	retq
Ltmp357:
Lfunc_end79:
	.cfi_endproc

	.p2align	4, 0x90
__ZN4core4time8Duration9from_secs17he373c4851a699bc1E:
Lfunc_begin80:
	.loc	25 225 0
	.cfi_startproc
	pushq	%rbp
	.cfi_def_cfa_offset 16
	.cfi_offset %rbp, -16
	movq	%rsp, %rbp
	.cfi_def_cfa_register %rbp
	subq	$16, %rsp
	movq	%rdi, -8(%rbp)
	xorl	%esi, %esi
Ltmp358:
	.loc	25 226 9 prologue_end
	callq	__ZN4core4time8Duration3new17heb41a1a83c443fbbE
	.loc	25 227 6
	addq	$16, %rsp
	popq	%rbp
	retq
Ltmp359:
Lfunc_end80:
	.cfi_endproc

	.p2align	4, 0x90
__ZN4core5slice29_$LT$impl$u20$$u5b$T$u5d$$GT$3len17hd1166b6e0547ba89E:
Lfunc_begin81:
	.file	26 "/rustc/2c8cc343237b8f7d5a3c3703e3a87f2eb2c54a74/library/core/src/slice" "mod.rs"
	.loc	26 136 0
	.cfi_startproc
	pushq	%rbp
	.cfi_def_cfa_offset 16
	.cfi_offset %rbp, -16
	movq	%rsp, %rbp
	.cfi_def_cfa_register %rbp
	subq	$48, %rsp
	movq	%rdi, -32(%rbp)
	movq	%rsi, -24(%rbp)
Ltmp360:
	.loc	26 137 23 prologue_end
	movq	%rdi, -16(%rbp)
	movq	%rsi, -8(%rbp)
Ltmp361:
	.file	27 "/rustc/2c8cc343237b8f7d5a3c3703e3a87f2eb2c54a74/library/core/src/ptr" "metadata.rs"
	.loc	27 98 14
	movq	%rdi, -48(%rbp)
	movq	%rsi, -40(%rbp)
	movq	-40(%rbp), %rax
Ltmp362:
	.loc	26 138 6
	addq	$48, %rsp
	popq	%rbp
	retq
Ltmp363:
Lfunc_end81:
	.cfi_endproc

	.p2align	4, 0x90
__ZN4core6option15Option$LT$T$GT$14unwrap_or_else17hdf3f1516b2f891ecE:
Lfunc_begin82:
	.file	28 "/rustc/2c8cc343237b8f7d5a3c3703e3a87f2eb2c54a74/library/core/src" "option.rs"
	.loc	28 866 0
	.cfi_startproc
	pushq	%rbp
	.cfi_def_cfa_offset 16
	.cfi_offset %rbp, -16
	movq	%rsp, %rbp
	.cfi_def_cfa_register %rbp
	subq	$112, %rsp
	movq	%rdx, -112(%rbp)
	movq	%rsi, -104(%rbp)
Ltmp364:
	movq	%rdi, -96(%rbp)
	movq	%rdi, -88(%rbp)
Ltmp365:
	movq	%rdx, -8(%rbp)
Ltmp366:
	.loc	28 871 15 prologue_end
	movb	$1, -9(%rbp)
	movl	(%rsi), %eax
	.loc	28 871 9 is_stmt 0
	cmpq	$0, %rax
Ltmp367:
	jne	LBB82_2
Ltmp368:
	.loc	28 0 9
	movq	-112(%rbp), %rsi
	movq	-96(%rbp), %rdi
	.loc	28 873 21 is_stmt 1
	movb	$0, -9(%rbp)
	callq	__ZN4egui10containers5panel12CentralPanel15show_inside_dyn28_$u7b$$u7b$closure$u7d$$u7d$17h3d24b3f8b3195005E
	.loc	28 873 23 is_stmt 0
	jmp	LBB82_3
Ltmp369:
LBB82_2:
	.loc	28 0 23
	movq	-104(%rbp), %rsi
	.loc	28 872 18 is_stmt 1
	addq	$4, %rsi
	leaq	-80(%rbp), %rdi
	movl	$68, %edx
	callq	_memcpy
	movq	-96(%rbp), %rdi
Ltmp370:
	.loc	28 872 24 is_stmt 0
	leaq	-80(%rbp), %rsi
	movl	$68, %edx
	callq	_memcpy
Ltmp371:
LBB82_3:
	.loc	28 875 5 is_stmt 1
	testb	$1, -9(%rbp)
	jne	LBB82_5
Ltmp372:
LBB82_4:
	.loc	28 0 5 is_stmt 0
	movq	-88(%rbp), %rax
	.loc	28 875 6
	addq	$112, %rsp
	popq	%rbp
	retq
Ltmp373:
LBB82_5:
	.loc	28 875 5
	jmp	LBB82_4
Ltmp374:
Lfunc_end82:
	.cfi_endproc

	.p2align	4, 0x90
__ZN4core6result19Result$LT$T$C$E$GT$6unwrap17h6a3c1c8a1f45dffaE:
Lfunc_begin83:
	.file	29 "/rustc/2c8cc343237b8f7d5a3c3703e3a87f2eb2c54a74/library/core/src" "result.rs"
	.loc	29 1106 0 is_stmt 1
	.cfi_startproc
	.cfi_personality 155, _rust_eh_personality
	.cfi_lsda 16, Lexception10
	pushq	%rbp
	.cfi_def_cfa_offset 16
	.cfi_offset %rbp, -16
	movq	%rsp, %rbp
	.cfi_def_cfa_register %rbp
	subq	$64, %rsp
	movq	%rdi, -56(%rbp)
Ltmp378:
	movq	%rsi, -48(%rbp)
Ltmp379:
	.loc	29 1110 15 prologue_end
	movq	(%rdi), %rdx
	movl	$1, %eax
	xorl	%ecx, %ecx
	cmpq	$0, %rdx
	cmoveq	%rcx, %rax
	.loc	29 1110 9 is_stmt 0
	cmpq	$0, %rax
Ltmp380:
	jne	LBB83_2
Ltmp381:
	.loc	29 0 9
	movq	-56(%rbp), %rax
	.loc	29 1111 16 is_stmt 1
	movq	8(%rax), %rax
	movq	%rax, -8(%rbp)
	.loc	29 1114 6
	addq	$64, %rsp
	popq	%rbp
	retq
Ltmp382:
LBB83_2:
	.loc	29 0 6 is_stmt 0
	movq	-48(%rbp), %r8
	movq	-56(%rbp), %rax
	.loc	29 1112 17 is_stmt 1
	movq	(%rax), %rcx
	movq	8(%rax), %rax
	movq	%rcx, -40(%rbp)
	movq	%rax, -32(%rbp)
Ltmp375:
Ltmp383:
	.loc	29 1112 23 is_stmt 0
	leaq	l___unnamed_24(%rip), %rdi
	leaq	l___unnamed_2(%rip), %rcx
	movl	$43, %esi
	leaq	-40(%rbp), %rdx
	callq	__ZN4core6result13unwrap_failed17h533573e6d3b6061cE
Ltmp376:
	jmp	LBB83_5
Ltmp384:
LBB83_3:
	.loc	29 1106 5 is_stmt 1
	movq	-24(%rbp), %rdi
	callq	__Unwind_Resume
Ltmp385:
LBB83_4:
Ltmp377:
	.loc	29 0 5 is_stmt 0
	movq	%rax, %rcx
	movl	%edx, %eax
	movq	%rcx, -24(%rbp)
	movl	%eax, -16(%rbp)
	jmp	LBB83_3
Ltmp386:
LBB83_5:
	ud2
Lfunc_end83:
	.cfi_endproc
	.section	__TEXT,__gcc_except_tab
	.p2align	2
GCC_except_table83:
Lexception10:
	.byte	255
	.byte	255
	.byte	1
	.uleb128 Lcst_end10-Lcst_begin10
Lcst_begin10:
	.uleb128 Ltmp375-Lfunc_begin83
	.uleb128 Ltmp376-Ltmp375
	.uleb128 Ltmp377-Lfunc_begin83
	.byte	0
	.uleb128 Ltmp376-Lfunc_begin83
	.uleb128 Lfunc_end83-Ltmp376
	.byte	0
	.byte	0
Lcst_end10:
	.p2align	2

	.section	__TEXT,__text,regular,pure_instructions
	.p2align	4, 0x90
__ZN4egui10containers5frame5Frame4show17h63e34d9b98b3e65dE:
Lfunc_begin84:
	.file	30 "/Users/natalie/.cargo/registry/src/github.com-1ecc6299db9ec823/egui-0.19.0/src/containers" "frame.rs"
	.loc	30 197 0 is_stmt 1
	.cfi_startproc
	.cfi_personality 155, _rust_eh_personality
	.cfi_lsda 16, Lexception11
	pushq	%rbp
	.cfi_def_cfa_offset 16
	.cfi_offset %rbp, -16
	movq	%rsp, %rbp
	.cfi_def_cfa_register %rbp
	subq	$176, %rsp
	movq	%rcx, -144(%rbp)
	movq	%rdx, -168(%rbp)
Ltmp393:
	movq	%rdi, -160(%rbp)
	movq	%rdi, -152(%rbp)
	movq	%rdx, -56(%rbp)
	movq	%rcx, -48(%rbp)
	movq	%r8, -40(%rbp)
	movl	$17, %ecx
	leaq	-128(%rbp), %rdi
Ltmp394:
	.loc	30 198 9 prologue_end
	rep;movsl (%rsi), %es:(%rdi)
Ltmp395:
	.loc	30 0 9 is_stmt 0
	movq	-144(%rbp), %rcx
	movq	%rcx, -32(%rbp)
	movq	%r8, -24(%rbp)
Ltmp387:
	movl	$16, %edi
	movl	$8, %esi
Ltmp396:
	.file	31 "/rustc/2c8cc343237b8f7d5a3c3703e3a87f2eb2c54a74/library/alloc/src" "boxed.rs"
	.loc	31 219 9 is_stmt 1
	callq	__ZN5alloc5alloc15exchange_malloc17hd75cfe0faeda4397E
Ltmp388:
	movq	%rax, -136(%rbp)
	jmp	LBB84_4
Ltmp397:
LBB84_1:
Ltmp389:
	.loc	31 0 9 is_stmt 0
	movq	%rax, %rcx
	movl	%edx, %eax
	movq	%rcx, -16(%rbp)
	movl	%eax, -8(%rbp)
Ltmp390:
	leaq	-32(%rbp), %rdi
	.loc	31 220 5 is_stmt 1
	callq	__ZN4core3ptr120drop_in_place$LT$egui..containers..panel..CentralPanel..show_inside_dyn$LT$$LP$$RP$$GT$..$u7b$$u7b$closure$u7d$$u7d$$GT$17hb618a9df200dbc34E
Ltmp391:
	jmp	LBB84_3
Ltmp398:
LBB84_2:
Ltmp392:
	.loc	31 217 5
	callq	__ZN4core9panicking19panic_cannot_unwind17h1fbca7e1d7f56ae1E
Ltmp399:
LBB84_3:
	movq	-16(%rbp), %rdi
	callq	__Unwind_Resume
Ltmp400:
LBB84_4:
	.loc	31 0 5 is_stmt 0
	movq	-136(%rbp), %rcx
	movq	-168(%rbp), %rdx
	movq	-160(%rbp), %rdi
	.loc	31 219 18 is_stmt 1
	movq	-32(%rbp), %rsi
	movq	-24(%rbp), %rax
	movq	%rsi, (%rcx)
	movq	%rax, 8(%rcx)
Ltmp401:
	.loc	30 198 9
	leaq	-128(%rbp), %rsi
	leaq	l___unnamed_3(%rip), %r8
	callq	__ZN4egui10containers5frame5Frame8show_dyn17h652ffe7364e1e203E
	movq	-152(%rbp), %rax
	.loc	30 199 6
	addq	$176, %rsp
	popq	%rbp
	retq
Ltmp402:
Lfunc_end84:
	.cfi_endproc
	.section	__TEXT,__gcc_except_tab
	.p2align	2
GCC_except_table84:
Lexception11:
	.byte	255
	.byte	255
	.byte	1
	.uleb128 Lcst_end11-Lcst_begin11
Lcst_begin11:
	.uleb128 Ltmp387-Lfunc_begin84
	.uleb128 Ltmp388-Ltmp387
	.uleb128 Ltmp389-Lfunc_begin84
	.byte	0
	.uleb128 Ltmp390-Lfunc_begin84
	.uleb128 Ltmp391-Ltmp390
	.uleb128 Ltmp392-Lfunc_begin84
	.byte	0
	.uleb128 Ltmp391-Lfunc_begin84
	.uleb128 Lfunc_end84-Ltmp391
	.byte	0
	.byte	0
Lcst_end11:
	.p2align	2

	.section	__TEXT,__text,regular,pure_instructions
	.p2align	4, 0x90
__ZN4egui10containers5panel12CentralPanel15show_inside_dyn17h7ad789237ee3197dE:
Lfunc_begin85:
	.file	32 "/Users/natalie/.cargo/registry/src/github.com-1ecc6299db9ec823/egui-0.19.0/src/containers" "panel.rs"
	.loc	32 662 0
	.cfi_startproc
	.cfi_personality 155, _rust_eh_personality
	.cfi_lsda 16, Lexception12
	pushq	%rbp
	.cfi_def_cfa_offset 16
	.cfi_offset %rbp, -16
	movq	%rsp, %rbp
	.cfi_def_cfa_register %rbp
	subq	$816, %rsp
	movq	%rdx, -768(%rbp)
Ltmp420:
	movq	%rdi, -784(%rbp)
	movq	%rdi, -776(%rbp)
	movq	%rcx, -760(%rbp)
	movq	%r8, -752(%rbp)
	movq	%rdx, -40(%rbp)
Ltmp421:
	.loc	32 667 20 prologue_end
	movb	$0, -41(%rbp)
	movb	$1, -41(%rbp)
	movl	$18, %ecx
	leaq	-744(%rbp), %rdi
	rep;movsl (%rsi), %es:(%rdi)
Ltmp422:
	.loc	32 0 20 is_stmt 0
	movq	-768(%rbp), %rsi
Ltmp403:
	leaq	-672(%rbp), %rdi
Ltmp423:
	.loc	32 669 26 is_stmt 1
	callq	__ZN4egui2ui2Ui26available_rect_before_wrap17h3f0065784f4a8e2aE
Ltmp404:
	jmp	LBB85_3
Ltmp424:
LBB85_1:
	.loc	32 677 5
	testb	$1, -41(%rbp)
	jne	LBB85_13
	jmp	LBB85_12
Ltmp425:
LBB85_2:
Ltmp416:
	.loc	32 0 5 is_stmt 0
	movq	%rax, %rcx
	movl	%edx, %eax
	movq	%rcx, -32(%rbp)
	movl	%eax, -24(%rbp)
	jmp	LBB85_1
Ltmp426:
LBB85_3:
	.loc	32 670 40 is_stmt 1
	movq	-672(%rbp), %rax
	movq	-664(%rbp), %rcx
	movq	%rcx, -304(%rbp)
	movq	%rax, -312(%rbp)
	.loc	32 670 69 is_stmt 0
	movb	$0, -289(%rbp)
	.loc	32 670 52
	movb	-289(%rbp), %al
	movb	%al, -1(%rbp)
Ltmp427:
	.file	33 "/Users/natalie/.cargo/registry/src/github.com-1ecc6299db9ec823/egui-0.19.0/src" "layout.rs"
	.loc	33 189 9 is_stmt 1
	movb	$2, -8(%rbp)
	movb	$0, -5(%rbp)
	movb	$1, -7(%rbp)
	movb	$0, -4(%rbp)
	movb	%al, -6(%rbp)
	movb	$0, -3(%rbp)
	.loc	33 197 6
	movl	-8(%rbp), %eax
	movzwl	-4(%rbp), %ecx
	shlq	$32, %rcx
	orq	%rcx, %rax
	movq	%rax, -792(%rbp)
Ltmp428:
	.loc	33 0 6 is_stmt 0
	movq	-768(%rbp), %rsi
	movq	-792(%rbp), %rax
	.loc	32 670 52 is_stmt 1
	movl	%eax, %ecx
	movl	%ecx, -16(%rbp)
	shrq	$32, %rax
	movw	%ax, -12(%rbp)
	movw	-12(%rbp), %ax
	movw	%ax, -292(%rbp)
	movl	-16(%rbp), %eax
	movl	%eax, -296(%rbp)
	.loc	32 670 28 is_stmt 0
	movl	-296(%rbp), %eax
	movl	%eax, %ecx
	movzwl	-292(%rbp), %eax
	shlq	$32, %rax
	orq	%rax, %rcx
Ltmp405:
	leaq	-656(%rbp), %rdi
	leaq	-312(%rbp), %rdx
	callq	__ZN4egui2ui2Ui8child_ui17h8ba252c3b77e33e1E
Ltmp406:
	jmp	LBB85_5
Ltmp429:
LBB85_5:
	.loc	32 0 28
	movq	-768(%rbp), %rax
	movl	$18, %ecx
	leaq	-216(%rbp), %rdi
	movq	%rdi, -800(%rbp)
	leaq	-744(%rbp), %rsi
Ltmp430:
	.loc	32 672 21 is_stmt 1
	rep;movsl (%rsi), %es:(%rdi)
	movq	-800(%rbp), %rsi
	.loc	32 672 42 is_stmt 0
	movq	%rax, -144(%rbp)
	.loc	32 672 21
	movq	-144(%rbp), %rdx
Ltmp407:
	leaq	-288(%rbp), %rdi
	callq	__ZN4core6option15Option$LT$T$GT$14unwrap_or_else17hdf3f1516b2f891ecE
Ltmp408:
	jmp	LBB85_8
Ltmp431:
LBB85_6:
Ltmp412:
	.loc	32 0 21
	leaq	-656(%rbp), %rdi
	.loc	32 677 5 is_stmt 1
	callq	__ZN4core3ptr33drop_in_place$LT$egui..ui..Ui$GT$17h8d4e5250cb2569a3E
Ltmp413:
	jmp	LBB85_1
Ltmp432:
LBB85_7:
Ltmp411:
	.loc	32 0 5 is_stmt 0
	movq	%rax, %rcx
	movl	%edx, %eax
	movq	%rcx, -32(%rbp)
	movl	%eax, -24(%rbp)
	jmp	LBB85_6
Ltmp433:
LBB85_8:
	movl	$17, %ecx
	leaq	-136(%rbp), %rdi
	movq	%rdi, -808(%rbp)
	leaq	-288(%rbp), %rsi
Ltmp434:
	.loc	32 673 9 is_stmt 1
	rep;movsl (%rsi), %es:(%rdi)
	movq	-808(%rbp), %rsi
	movq	-784(%rbp), %rdi
	.loc	32 673 35 is_stmt 0
	movb	$0, -41(%rbp)
	movq	-760(%rbp), %rcx
	movq	-752(%rbp), %rax
	movq	%rcx, -64(%rbp)
	movq	%rax, -56(%rbp)
	.loc	32 673 9
	movq	-64(%rbp), %rcx
	movq	-56(%rbp), %r8
Ltmp409:
	leaq	-656(%rbp), %rdx
	callq	__ZN4egui10containers5frame5Frame4show17h63e34d9b98b3e65dE
Ltmp410:
	jmp	LBB85_9
Ltmp435:
LBB85_9:
Ltmp414:
	.loc	32 0 9
	leaq	-656(%rbp), %rdi
	.loc	32 677 5 is_stmt 1
	callq	__ZN4core3ptr33drop_in_place$LT$egui..ui..Ui$GT$17h8d4e5250cb2569a3E
Ltmp415:
	jmp	LBB85_11
Ltmp436:
LBB85_10:
Ltmp419:
	.loc	32 662 5
	callq	__ZN4core9panicking19panic_cannot_unwind17h1fbca7e1d7f56ae1E
Ltmp437:
LBB85_11:
	.loc	32 0 5 is_stmt 0
	movq	-776(%rbp), %rax
	.loc	32 677 6 is_stmt 1
	addq	$816, %rsp
	popq	%rbp
	retq
Ltmp438:
LBB85_12:
	.loc	32 662 5
	movq	-32(%rbp), %rdi
	callq	__Unwind_Resume
Ltmp439:
LBB85_13:
Ltmp417:
	.loc	32 0 5 is_stmt 0
	leaq	-760(%rbp), %rdi
	.loc	32 677 5 is_stmt 1
	callq	__ZN4core3ptr158drop_in_place$LT$alloc..boxed..Box$LT$dyn$u20$core..ops..function..FnOnce$LT$$LP$$RF$mut$u20$egui..ui..Ui$C$$RP$$GT$$u2b$Output$u20$$u3d$$u20$$LP$$RP$$GT$$GT$17h6afed637afbca400E
Ltmp418:
	jmp	LBB85_12
Ltmp440:
Lfunc_end85:
	.cfi_endproc
	.section	__TEXT,__gcc_except_tab
	.p2align	2
GCC_except_table85:
Lexception12:
	.byte	255
	.byte	255
	.byte	1
	.uleb128 Lcst_end12-Lcst_begin12
Lcst_begin12:
	.uleb128 Ltmp403-Lfunc_begin85
	.uleb128 Ltmp406-Ltmp403
	.uleb128 Ltmp416-Lfunc_begin85
	.byte	0
	.uleb128 Ltmp407-Lfunc_begin85
	.uleb128 Ltmp408-Ltmp407
	.uleb128 Ltmp411-Lfunc_begin85
	.byte	0
	.uleb128 Ltmp412-Lfunc_begin85
	.uleb128 Ltmp413-Ltmp412
	.uleb128 Ltmp419-Lfunc_begin85
	.byte	0
	.uleb128 Ltmp409-Lfunc_begin85
	.uleb128 Ltmp410-Ltmp409
	.uleb128 Ltmp411-Lfunc_begin85
	.byte	0
	.uleb128 Ltmp414-Lfunc_begin85
	.uleb128 Ltmp415-Ltmp414
	.uleb128 Ltmp416-Lfunc_begin85
	.byte	0
	.uleb128 Ltmp415-Lfunc_begin85
	.uleb128 Ltmp417-Ltmp415
	.byte	0
	.byte	0
	.uleb128 Ltmp417-Lfunc_begin85
	.uleb128 Ltmp418-Ltmp417
	.uleb128 Ltmp419-Lfunc_begin85
	.byte	0
Lcst_end12:
	.p2align	2

	.section	__TEXT,__text,regular,pure_instructions
	.p2align	4, 0x90
__ZN4egui10containers5panel12CentralPanel15show_inside_dyn28_$u7b$$u7b$closure$u7d$$u7d$17h3d24b3f8b3195005E:
Lfunc_begin86:
	.loc	32 672 0
	.cfi_startproc
	pushq	%rbp
	.cfi_def_cfa_offset 16
	.cfi_offset %rbp, -16
	movq	%rsp, %rbp
	.cfi_def_cfa_register %rbp
	subq	$32, %rsp
	movq	%rdi, -24(%rbp)
	movq	%rdi, -16(%rbp)
	movq	%rsi, -8(%rbp)
Ltmp441:
	.loc	32 672 66 prologue_end
	movq	-8(%rbp), %rdi
	callq	__ZN4egui2ui2Ui5style17h45e715221e8a8587E
	movq	%rax, %rdi
	callq	__ZN69_$LT$alloc..sync..Arc$LT$T$GT$$u20$as$u20$core..ops..deref..Deref$GT$5deref17haa4c9a2c68f78ddcE
	movq	-24(%rbp), %rdi
	movq	%rax, %rsi
	.loc	32 672 45 is_stmt 0
	callq	__ZN4egui10containers5frame5Frame13central_panel17h6e3766cc74d284d4E
	movq	-16(%rbp), %rax
	.loc	32 672 77
	addq	$32, %rsp
	popq	%rbp
	retq
Ltmp442:
Lfunc_end86:
	.cfi_endproc

	.p2align	4, 0x90
__ZN4egui10containers5panel12CentralPanel15show_inside_dyn28_$u7b$$u7b$closure$u7d$$u7d$17he3baed45b4bcf9f4E:
Lfunc_begin87:
	.loc	32 673 0 is_stmt 1
	.cfi_startproc
	.cfi_personality 155, _rust_eh_personality
	.cfi_lsda 16, Lexception13
	pushq	%rbp
	.cfi_def_cfa_offset 16
	.cfi_offset %rbp, -16
	movq	%rsp, %rbp
	.cfi_def_cfa_register %rbp
	subq	$96, %rsp
	movq	%rdx, -88(%rbp)
	movq	%rsi, %rax
	movq	-88(%rbp), %rsi
	movq	%rsi, -80(%rbp)
	movq	%rdi, -72(%rbp)
	movq	%rax, -64(%rbp)
	movq	%rsi, -24(%rbp)
Ltmp453:
	.loc	32 674 13 prologue_end
	movb	$0, -25(%rbp)
	movb	$1, -25(%rbp)
Ltmp443:
	leaq	-56(%rbp), %rdi
	.loc	32 674 39 is_stmt 0
	callq	__ZN4egui2ui2Ui8max_rect17hc843516dd62b95b4E
Ltmp444:
	jmp	LBB87_3
LBB87_1:
	.loc	32 676 9 is_stmt 1
	testb	$1, -25(%rbp)
	jne	LBB87_7
	jmp	LBB87_6
LBB87_2:
Ltmp449:
	.loc	32 0 9 is_stmt 0
	movq	%rax, %rcx
	movl	%edx, %eax
	movq	%rcx, -16(%rbp)
	movl	%eax, -8(%rbp)
	jmp	LBB87_1
LBB87_3:
Ltmp445:
	movq	-80(%rbp), %rdi
	leaq	-56(%rbp), %rsi
	.loc	32 674 13 is_stmt 1
	callq	__ZN4egui2ui2Ui22expand_to_include_rect17h0836b766b7df607cE
Ltmp446:
	jmp	LBB87_4
LBB87_4:
	.loc	32 0 13 is_stmt 0
	movq	-80(%rbp), %rax
	.loc	32 675 13 is_stmt 1
	movb	$0, -25(%rbp)
	movq	-72(%rbp), %rdi
	movq	-64(%rbp), %rsi
	movq	%rax, -40(%rbp)
	movq	-40(%rbp), %rdx
Ltmp447:
	callq	__ZN90_$LT$alloc..boxed..Box$LT$F$C$A$GT$$u20$as$u20$core..ops..function..FnOnce$LT$Args$GT$$GT$9call_once17he71f7c7d625a6abaE
Ltmp448:
	jmp	LBB87_5
LBB87_5:
	.loc	32 676 10
	addq	$96, %rsp
	popq	%rbp
	retq
LBB87_6:
	.loc	32 673 35
	movq	-16(%rbp), %rdi
	callq	__Unwind_Resume
LBB87_7:
Ltmp450:
	.loc	32 0 35 is_stmt 0
	leaq	-72(%rbp), %rdi
	.loc	32 676 9 is_stmt 1
	callq	__ZN4core3ptr158drop_in_place$LT$alloc..boxed..Box$LT$dyn$u20$core..ops..function..FnOnce$LT$$LP$$RF$mut$u20$egui..ui..Ui$C$$RP$$GT$$u2b$Output$u20$$u3d$$u20$$LP$$RP$$GT$$GT$17h6afed637afbca400E
Ltmp451:
	jmp	LBB87_6
LBB87_8:
Ltmp452:
	.loc	32 673 35
	callq	__ZN4core9panicking19panic_cannot_unwind17h1fbca7e1d7f56ae1E
Ltmp454:
Lfunc_end87:
	.cfi_endproc
	.section	__TEXT,__gcc_except_tab
	.p2align	2
GCC_except_table87:
Lexception13:
	.byte	255
	.byte	255
	.byte	1
	.uleb128 Lcst_end13-Lcst_begin13
Lcst_begin13:
	.uleb128 Ltmp443-Lfunc_begin87
	.uleb128 Ltmp448-Ltmp443
	.uleb128 Ltmp449-Lfunc_begin87
	.byte	0
	.uleb128 Ltmp448-Lfunc_begin87
	.uleb128 Ltmp450-Ltmp448
	.byte	0
	.byte	0
	.uleb128 Ltmp450-Lfunc_begin87
	.uleb128 Ltmp451-Ltmp450
	.uleb128 Ltmp452-Lfunc_begin87
	.byte	0
Lcst_end13:
	.p2align	2

	.section	__TEXT,__text,regular,pure_instructions
	.p2align	4, 0x90
__ZN4egui10containers5panel12CentralPanel4show17h0005952ea070ed11E:
Lfunc_begin88:
	.loc	32 680 0
	.cfi_startproc
	.cfi_personality 155, _rust_eh_personality
	.cfi_lsda 16, Lexception14
	pushq	%rbp
	.cfi_def_cfa_offset 16
	.cfi_offset %rbp, -16
	movq	%rsp, %rbp
	.cfi_def_cfa_register %rbp
	subq	$176, %rsp
	movq	%rcx, -152(%rbp)
Ltmp458:
	movq	%rdx, -176(%rbp)
Ltmp459:
	movq	%rdi, -168(%rbp)
	movq	%rdi, -160(%rbp)
	movq	%rdx, -24(%rbp)
	movl	$18, %ecx
	leaq	-136(%rbp), %rdi
Ltmp460:
	.loc	32 685 9 prologue_end
	rep;movsl (%rsi), %es:(%rdi)
Ltmp461:
	.loc	32 0 9 is_stmt 0
	movq	-152(%rbp), %rcx
	.loc	32 685 37
	movq	32(%rcx), %rax
	movq	%rax, -32(%rbp)
	movq	24(%rcx), %rax
	movq	%rax, -40(%rbp)
	movq	16(%rcx), %rax
	movq	%rax, -48(%rbp)
	movq	(%rcx), %rax
	movq	8(%rcx), %rcx
	movq	%rcx, -56(%rbp)
	movq	%rax, -64(%rbp)
Ltmp455:
	movl	$40, %edi
	movl	$8, %esi
Ltmp462:
	.loc	31 219 9 is_stmt 1
	callq	__ZN5alloc5alloc15exchange_malloc17hd75cfe0faeda4397E
Ltmp456:
	movq	%rax, -144(%rbp)
	jmp	LBB88_2
Ltmp463:
LBB88_1:
Ltmp457:
	.loc	31 0 9 is_stmt 0
	movq	%rax, %rcx
	movl	%edx, %eax
	movq	%rcx, -16(%rbp)
	movl	%eax, -8(%rbp)
	.loc	31 217 5 is_stmt 1
	movq	-16(%rbp), %rdi
	callq	__Unwind_Resume
Ltmp464:
LBB88_2:
	.loc	31 0 5 is_stmt 0
	movq	-144(%rbp), %rdi
	.loc	31 219 18 is_stmt 1
	leaq	-64(%rbp), %rsi
	movl	$40, %edx
	callq	_memcpy
	movq	-168(%rbp), %rdi
	movq	-176(%rbp), %rdx
	movq	-144(%rbp), %rcx
Ltmp465:
	.loc	32 685 9
	leaq	-136(%rbp), %rsi
	leaq	l___unnamed_4(%rip), %r8
	callq	__ZN4egui10containers5panel12CentralPanel8show_dyn17h2c81cafb49f503e0E
	movq	-160(%rbp), %rax
	.loc	32 686 6
	addq	$176, %rsp
	popq	%rbp
	retq
Ltmp466:
Lfunc_end88:
	.cfi_endproc
	.section	__TEXT,__gcc_except_tab
	.p2align	2
GCC_except_table88:
Lexception14:
	.byte	255
	.byte	255
	.byte	1
	.uleb128 Lcst_end14-Lcst_begin14
Lcst_begin14:
	.uleb128 Ltmp455-Lfunc_begin88
	.uleb128 Ltmp456-Ltmp455
	.uleb128 Ltmp457-Lfunc_begin88
	.byte	0
	.uleb128 Ltmp456-Lfunc_begin88
	.uleb128 Lfunc_end88-Ltmp456
	.byte	0
	.byte	0
Lcst_end14:
	.p2align	2

	.section	__TEXT,__text,regular,pure_instructions
	.p2align	4, 0x90
__ZN4egui10containers5panel12CentralPanel8show_dyn17h2c81cafb49f503e0E:
Lfunc_begin89:
	.loc	32 689 0
	.cfi_startproc
	.cfi_personality 155, _rust_eh_personality
	.cfi_lsda 16, Lexception15
	pushq	%rbp
	.cfi_def_cfa_offset 16
	.cfi_offset %rbp, -16
	movq	%rsp, %rbp
	.cfi_def_cfa_register %rbp
	subq	$752, %rsp
	movq	%rdx, -640(%rbp)
	movq	%rsi, %rax
	movq	-640(%rbp), %rsi
	movq	%rax, -632(%rbp)
Ltmp511:
	movq	%rdi, -624(%rbp)
	movq	%rdi, -616(%rbp)
	movq	%rcx, -608(%rbp)
	movq	%r8, -600(%rbp)
	movq	%rsi, -56(%rbp)
Ltmp512:
	.loc	32 694 13 prologue_end
	movb	$0, -57(%rbp)
	movb	$1, -57(%rbp)
Ltmp467:
	leaq	-592(%rbp), %rdi
	.loc	32 694 30 is_stmt 0
	callq	__ZN4egui7context7Context14available_rect17h7a75c7bae7bfbf31E
Ltmp513:
Ltmp468:
	jmp	LBB89_3
Ltmp514:
LBB89_1:
	.loc	32 708 5 is_stmt 1
	testb	$1, -57(%rbp)
	jne	LBB89_28
	jmp	LBB89_27
Ltmp515:
LBB89_2:
Ltmp507:
	.loc	32 0 5 is_stmt 0
	movq	%rax, %rcx
	movl	%edx, %eax
	movq	%rcx, -48(%rbp)
	movl	%eax, -40(%rbp)
	jmp	LBB89_1
Ltmp516:
LBB89_3:
Ltmp469:
	.loc	32 695 24 is_stmt 1
	callq	__ZN4egui6layers7LayerId10background17hb5a3135025a416c4E
Ltmp470:
	movb	%dl, -649(%rbp)
	movq	%rax, -648(%rbp)
	jmp	LBB89_4
Ltmp517:
LBB89_4:
	.loc	32 0 24 is_stmt 0
	movb	-649(%rbp), %al
	movq	-648(%rbp), %rcx
	.loc	32 695 24
	movq	%rcx, %rdx
	movq	%rdx, -680(%rbp)
	movb	%al, %dl
	movb	%dl, -665(%rbp)
	movq	%rcx, -32(%rbp)
	movb	%al, -24(%rbp)
Ltmp471:
Ltmp518:
	.loc	32 696 18 is_stmt 1
	leaq	l___unnamed_25(%rip), %rdi
	movl	$13, %esi
	callq	__ZN4egui2id2Id3new17h9491ebc56a4c6199E
Ltmp472:
	movq	%rax, -664(%rbp)
	jmp	LBB89_5
Ltmp519:
LBB89_5:
	.loc	32 0 18 is_stmt 0
	movq	-640(%rbp), %rdi
	movq	-664(%rbp), %rax
	.loc	32 696 18
	movq	%rax, -16(%rbp)
Ltmp473:
Ltmp520:
	.loc	32 698 25 is_stmt 1
	callq	__ZN4egui7context7Context5input17ha4a936451cb1b72dE
Ltmp474:
	movq	%rdx, -696(%rbp)
	movq	%rax, -688(%rbp)
	jmp	LBB89_6
Ltmp521:
LBB89_6:
	.loc	32 0 25 is_stmt 0
	movq	-696(%rbp), %rax
	movq	-688(%rbp), %rcx
	.loc	32 698 25
	movq	%rcx, -560(%rbp)
	movq	%rax, -552(%rbp)
Ltmp475:
	leaq	-560(%rbp), %rdi
	callq	__ZN96_$LT$lock_api..rwlock..MappedRwLockReadGuard$LT$R$C$T$GT$$u20$as$u20$core..ops..deref..Deref$GT$5deref17h7faac3464d20e0d4E
Ltmp476:
	movq	%rax, -704(%rbp)
	jmp	LBB89_9
Ltmp522:
LBB89_7:
Ltmp478:
	.loc	32 0 25
	leaq	-560(%rbp), %rdi
	.loc	32 698 50
	callq	__ZN4core3ptr134drop_in_place$LT$lock_api..rwlock..MappedRwLockReadGuard$LT$parking_lot..raw_rwlock..RawRwLock$C$egui..input_state..InputState$GT$$GT$17h79d69c530d11c882E
Ltmp479:
	jmp	LBB89_1
Ltmp523:
LBB89_8:
Ltmp477:
	.loc	32 0 50
	movq	%rax, %rcx
	movl	%edx, %eax
	movq	%rcx, -48(%rbp)
	movl	%eax, -40(%rbp)
	jmp	LBB89_7
Ltmp524:
LBB89_9:
	movq	-704(%rbp), %rax
	movq	%rax, -8(%rbp)
Ltmp525:
	.file	34 "/Users/natalie/.cargo/registry/src/github.com-1ecc6299db9ec823/egui-0.19.0/src" "input_state.rs"
	.loc	34 202 9 is_stmt 1
	movq	192(%rax), %rcx
	movq	%rcx, -576(%rbp)
	movq	200(%rax), %rax
	movq	%rax, -568(%rbp)
Ltmp526:
Ltmp480:
	.loc	34 0 9 is_stmt 0
	leaq	-560(%rbp), %rdi
	.loc	32 698 50 is_stmt 1
	callq	__ZN4core3ptr134drop_in_place$LT$lock_api..rwlock..MappedRwLockReadGuard$LT$parking_lot..raw_rwlock..RawRwLock$C$egui..input_state..InputState$GT$$GT$17h79d69c530d11c882E
Ltmp481:
	jmp	LBB89_12
Ltmp527:
LBB89_11:
Ltmp510:
	.loc	32 689 5
	callq	__ZN4core9panicking19panic_cannot_unwind17h1fbca7e1d7f56ae1E
Ltmp528:
LBB89_12:
Ltmp482:
	.loc	32 0 5 is_stmt 0
	movq	-640(%rbp), %rdi
Ltmp529:
	.loc	32 699 36 is_stmt 1
	callq	__ZN61_$LT$egui..context..Context$u20$as$u20$core..clone..Clone$GT$5clone17h4915b7f91ae35de6E
Ltmp483:
	movq	%rax, -712(%rbp)
	jmp	LBB89_13
Ltmp530:
LBB89_13:
	.loc	32 0 36 is_stmt 0
	movq	-664(%rbp), %r8
	movq	-680(%rbp), %rdx
	movq	-712(%rbp), %rsi
	movb	-665(%rbp), %al
	.loc	32 699 63
	movq	-592(%rbp), %rcx
	movq	-584(%rbp), %rdi
	movq	%rdi, -192(%rbp)
	movq	%rcx, -200(%rbp)
	.loc	32 699 79
	movq	-576(%rbp), %rcx
	movq	-568(%rbp), %rdi
	movq	%rdi, -176(%rbp)
	movq	%rcx, -184(%rbp)
Ltmp484:
	.loc	32 699 28
	movq	%rsp, %rcx
	leaq	-184(%rbp), %rdi
	movq	%rdi, (%rcx)
	movzbl	%al, %ecx
	leaq	-544(%rbp), %rdi
	leaq	-200(%rbp), %r9
	callq	__ZN4egui2ui2Ui3new17h45d5c58c611885ceE
Ltmp485:
	jmp	LBB89_14
Ltmp531:
LBB89_14:
	.loc	32 0 28
	movq	-632(%rbp), %rsi
	movl	$18, %ecx
	leaq	-168(%rbp), %rdi
	movq	%rdi, -720(%rbp)
Ltmp532:
	.loc	32 701 30 is_stmt 1
	rep;movsl (%rsi), %es:(%rdi)
	movq	-720(%rbp), %rsi
	movq	-624(%rbp), %rdi
	.loc	32 701 66 is_stmt 0
	movb	$0, -57(%rbp)
	movq	-608(%rbp), %rcx
	movq	-600(%rbp), %r8
Ltmp486:
	leaq	-544(%rbp), %rdx
	.loc	32 701 30
	callq	__ZN4egui10containers5panel12CentralPanel15show_inside_dyn17h7ad789237ee3197dE
Ltmp487:
	jmp	LBB89_17
Ltmp533:
LBB89_15:
Ltmp503:
	.loc	32 0 30
	leaq	-544(%rbp), %rdi
	.loc	32 708 5 is_stmt 1
	callq	__ZN4core3ptr33drop_in_place$LT$egui..ui..Ui$GT$17h8d4e5250cb2569a3E
Ltmp504:
	jmp	LBB89_1
Ltmp534:
LBB89_16:
Ltmp488:
	.loc	32 0 5 is_stmt 0
	movq	%rax, %rcx
	movl	%edx, %eax
	movq	%rcx, -48(%rbp)
	movl	%eax, -40(%rbp)
	jmp	LBB89_15
Ltmp535:
LBB89_17:
Ltmp489:
	movq	-640(%rbp), %rdi
Ltmp536:
	.loc	32 704 9 is_stmt 1
	callq	__ZN4egui7context7Context11frame_state17h9d03d1ead7a4cabeE
Ltmp490:
	movq	%rdx, -736(%rbp)
	movq	%rax, -728(%rbp)
	jmp	LBB89_20
Ltmp537:
LBB89_18:
Ltmp501:
	.loc	32 0 9 is_stmt 0
	movq	-624(%rbp), %rdi
	.loc	32 708 5 is_stmt 1
	callq	__ZN4core3ptr66drop_in_place$LT$egui..response..InnerResponse$LT$$LP$$RP$$GT$$GT$17hd16ec2f5e898fc9cE
Ltmp502:
	jmp	LBB89_15
Ltmp538:
LBB89_19:
Ltmp500:
	.loc	32 0 5 is_stmt 0
	movq	%rax, %rcx
	movl	%edx, %eax
	movq	%rcx, -48(%rbp)
	movl	%eax, -40(%rbp)
	jmp	LBB89_18
Ltmp539:
LBB89_20:
	movq	-736(%rbp), %rax
	movq	-728(%rbp), %rcx
Ltmp540:
	.loc	32 704 9 is_stmt 1
	movq	%rcx, -96(%rbp)
	movq	%rax, -88(%rbp)
Ltmp491:
	leaq	-96(%rbp), %rdi
	callq	__ZN100_$LT$lock_api..rwlock..MappedRwLockWriteGuard$LT$R$C$T$GT$$u20$as$u20$core..ops..deref..DerefMut$GT$9deref_mut17hcbc3b489ff43a494E
Ltmp492:
	movq	%rax, -744(%rbp)
	jmp	LBB89_23
Ltmp541:
LBB89_21:
Ltmp496:
	.loc	32 0 9 is_stmt 0
	leaq	-96(%rbp), %rdi
	.loc	32 705 66 is_stmt 1
	callq	__ZN4core3ptr135drop_in_place$LT$lock_api..rwlock..MappedRwLockWriteGuard$LT$parking_lot..raw_rwlock..RawRwLock$C$egui..frame_state..FrameState$GT$$GT$17h0d2a6f89c3816d3aE
Ltmp497:
	jmp	LBB89_18
Ltmp542:
LBB89_22:
Ltmp495:
	.loc	32 0 66 is_stmt 0
	movq	%rax, %rcx
	movl	%edx, %eax
	movq	%rcx, -48(%rbp)
	movl	%eax, -40(%rbp)
	jmp	LBB89_21
Ltmp543:
LBB89_23:
	movq	-744(%rbp), %rdi
	movq	-624(%rbp), %rcx
	.loc	32 705 37
	movq	(%rcx), %rax
	movq	8(%rcx), %rcx
	movq	%rcx, -72(%rbp)
	movq	%rax, -80(%rbp)
Ltmp493:
	leaq	-80(%rbp), %rsi
	.loc	32 704 9 is_stmt 1
	callq	__ZN4egui11frame_state10FrameState22allocate_central_panel17h21ccddf9dbf230dcE
Ltmp494:
	jmp	LBB89_24
Ltmp544:
LBB89_24:
Ltmp498:
	.loc	32 0 9 is_stmt 0
	leaq	-96(%rbp), %rdi
	.loc	32 705 66 is_stmt 1
	callq	__ZN4core3ptr135drop_in_place$LT$lock_api..rwlock..MappedRwLockWriteGuard$LT$parking_lot..raw_rwlock..RawRwLock$C$egui..frame_state..FrameState$GT$$GT$17h0d2a6f89c3816d3aE
Ltmp499:
	jmp	LBB89_25
Ltmp545:
LBB89_25:
Ltmp505:
	.loc	32 0 66 is_stmt 0
	leaq	-544(%rbp), %rdi
	.loc	32 708 5 is_stmt 1
	callq	__ZN4core3ptr33drop_in_place$LT$egui..ui..Ui$GT$17h8d4e5250cb2569a3E
Ltmp506:
	jmp	LBB89_26
Ltmp546:
LBB89_26:
	.loc	32 0 5 is_stmt 0
	movq	-616(%rbp), %rax
	.loc	32 708 6
	addq	$752, %rsp
	popq	%rbp
	retq
Ltmp547:
LBB89_27:
	.loc	32 689 5 is_stmt 1
	movq	-48(%rbp), %rdi
	callq	__Unwind_Resume
Ltmp548:
LBB89_28:
Ltmp508:
	.loc	32 0 5 is_stmt 0
	leaq	-608(%rbp), %rdi
	.loc	32 708 5 is_stmt 1
	callq	__ZN4core3ptr158drop_in_place$LT$alloc..boxed..Box$LT$dyn$u20$core..ops..function..FnOnce$LT$$LP$$RF$mut$u20$egui..ui..Ui$C$$RP$$GT$$u2b$Output$u20$$u3d$$u20$$LP$$RP$$GT$$GT$17h6afed637afbca400E
Ltmp509:
	jmp	LBB89_27
Ltmp549:
Lfunc_end89:
	.cfi_endproc
	.section	__TEXT,__gcc_except_tab
	.p2align	2
GCC_except_table89:
Lexception15:
	.byte	255
	.byte	255
	.byte	1
	.uleb128 Lcst_end15-Lcst_begin15
Lcst_begin15:
	.uleb128 Ltmp467-Lfunc_begin89
	.uleb128 Ltmp474-Ltmp467
	.uleb128 Ltmp507-Lfunc_begin89
	.byte	0
	.uleb128 Ltmp475-Lfunc_begin89
	.uleb128 Ltmp476-Ltmp475
	.uleb128 Ltmp477-Lfunc_begin89
	.byte	0
	.uleb128 Ltmp478-Lfunc_begin89
	.uleb128 Ltmp479-Ltmp478
	.uleb128 Ltmp510-Lfunc_begin89
	.byte	0
	.uleb128 Ltmp480-Lfunc_begin89
	.uleb128 Ltmp485-Ltmp480
	.uleb128 Ltmp507-Lfunc_begin89
	.byte	0
	.uleb128 Ltmp486-Lfunc_begin89
	.uleb128 Ltmp487-Ltmp486
	.uleb128 Ltmp488-Lfunc_begin89
	.byte	0
	.uleb128 Ltmp503-Lfunc_begin89
	.uleb128 Ltmp504-Ltmp503
	.uleb128 Ltmp510-Lfunc_begin89
	.byte	0
	.uleb128 Ltmp489-Lfunc_begin89
	.uleb128 Ltmp490-Ltmp489
	.uleb128 Ltmp500-Lfunc_begin89
	.byte	0
	.uleb128 Ltmp501-Lfunc_begin89
	.uleb128 Ltmp502-Ltmp501
	.uleb128 Ltmp510-Lfunc_begin89
	.byte	0
	.uleb128 Ltmp491-Lfunc_begin89
	.uleb128 Ltmp492-Ltmp491
	.uleb128 Ltmp495-Lfunc_begin89
	.byte	0
	.uleb128 Ltmp496-Lfunc_begin89
	.uleb128 Ltmp497-Ltmp496
	.uleb128 Ltmp510-Lfunc_begin89
	.byte	0
	.uleb128 Ltmp493-Lfunc_begin89
	.uleb128 Ltmp494-Ltmp493
	.uleb128 Ltmp495-Lfunc_begin89
	.byte	0
	.uleb128 Ltmp498-Lfunc_begin89
	.uleb128 Ltmp499-Ltmp498
	.uleb128 Ltmp500-Lfunc_begin89
	.byte	0
	.uleb128 Ltmp505-Lfunc_begin89
	.uleb128 Ltmp506-Ltmp505
	.uleb128 Ltmp507-Lfunc_begin89
	.byte	0
	.uleb128 Ltmp506-Lfunc_begin89
	.uleb128 Ltmp508-Ltmp506
	.byte	0
	.byte	0
	.uleb128 Ltmp508-Lfunc_begin89
	.uleb128 Ltmp509-Ltmp508
	.uleb128 Ltmp510-Lfunc_begin89
	.byte	0
Lcst_end15:
	.p2align	2

	.section	__TEXT,__text,regular,pure_instructions
	.p2align	4, 0x90
__ZN4egui2ui2Ui10horizontal17h8bfdea359c746157E:
Lfunc_begin90:
	.file	35 "/Users/natalie/.cargo/registry/src/github.com-1ecc6299db9ec823/egui-0.19.0/src" "ui.rs"
	.loc	35 1816 0
	.cfi_startproc
	.cfi_personality 155, _rust_eh_personality
	.cfi_lsda 16, Lexception16
	pushq	%rbp
	.cfi_def_cfa_offset 16
	.cfi_offset %rbp, -16
	movq	%rsp, %rbp
	.cfi_def_cfa_register %rbp
	subq	$80, %rsp
	movq	%rsi, -80(%rbp)
	movq	%rdi, -72(%rbp)
	movq	%rdi, -64(%rbp)
	movq	%rsi, -24(%rbp)
Ltmp553:
	.loc	35 1817 60 prologue_end
	movq	16(%rdx), %rax
	movq	%rax, -32(%rbp)
	movq	(%rdx), %rax
	movq	8(%rdx), %rcx
	movq	%rcx, -40(%rbp)
	movq	%rax, -48(%rbp)
Ltmp550:
	movl	$24, %edi
	movl	$8, %esi
Ltmp554:
	.loc	31 219 9
	callq	__ZN5alloc5alloc15exchange_malloc17hd75cfe0faeda4397E
Ltmp555:
Ltmp551:
	.loc	31 0 9 is_stmt 0
	movq	%rax, -56(%rbp)
	.loc	31 219 9
	jmp	LBB90_2
Ltmp556:
LBB90_1:
Ltmp552:
	.loc	31 0 9
	movq	%rax, %rcx
	movl	%edx, %eax
	movq	%rcx, -16(%rbp)
	movl	%eax, -8(%rbp)
	.loc	31 217 5 is_stmt 1
	movq	-16(%rbp), %rdi
	callq	__Unwind_Resume
Ltmp557:
LBB90_2:
	.loc	31 0 5 is_stmt 0
	movq	-56(%rbp), %rcx
	movq	-80(%rbp), %rsi
	movq	-72(%rbp), %rdi
	.loc	31 219 18 is_stmt 1
	movq	-48(%rbp), %rax
	movq	%rax, (%rcx)
	movq	-40(%rbp), %rax
	movq	%rax, 8(%rcx)
	movq	-32(%rbp), %rax
	movq	%rax, 16(%rcx)
Ltmp558:
	.loc	35 1817 9
	xorl	%edx, %edx
	leaq	l___unnamed_5(%rip), %r8
	callq	__ZN4egui2ui2Ui29horizontal_with_main_wrap_dyn17h09e84de109ae7517E
	movq	-64(%rbp), %rax
	.loc	35 1818 6
	addq	$80, %rsp
	popq	%rbp
	retq
Ltmp559:
Lfunc_end90:
	.cfi_endproc
	.section	__TEXT,__gcc_except_tab
	.p2align	2
GCC_except_table90:
Lexception16:
	.byte	255
	.byte	255
	.byte	1
	.uleb128 Lcst_end16-Lcst_begin16
Lcst_begin16:
	.uleb128 Ltmp550-Lfunc_begin90
	.uleb128 Ltmp551-Ltmp550
	.uleb128 Ltmp552-Lfunc_begin90
	.byte	0
	.uleb128 Ltmp551-Lfunc_begin90
	.uleb128 Lfunc_end90-Ltmp551
	.byte	0
	.byte	0
Lcst_end16:
	.p2align	2

	.section	__TEXT,__text,regular,pure_instructions
	.p2align	4, 0x90
__ZN4egui2ui2Ui5style17h45e715221e8a8587E:
Lfunc_begin91:
	.loc	35 126 0
	.cfi_startproc
	pushq	%rbp
	.cfi_def_cfa_offset 16
	.cfi_offset %rbp, -16
	movq	%rsp, %rbp
	.cfi_def_cfa_register %rbp
	pushq	%rax
	movq	%rdi, %rax
	movq	%rax, -8(%rbp)
Ltmp560:
	.loc	35 127 9 prologue_end
	addq	$328, %rax
	.loc	35 128 6
	addq	$8, %rsp
	popq	%rbp
	retq
Ltmp561:
Lfunc_end91:
	.cfi_endproc

	.p2align	4, 0x90
__ZN4egui2ui2Ui8vertical17h05a3985149992069E:
Lfunc_begin92:
	.loc	35 1906 0
	.cfi_startproc
	.cfi_personality 155, _rust_eh_personality
	.cfi_lsda 16, Lexception17
	pushq	%rbp
	.cfi_def_cfa_offset 16
	.cfi_offset %rbp, -16
	movq	%rsp, %rbp
	.cfi_def_cfa_register %rbp
	subq	$160, %rsp
	movq	%rdx, -136(%rbp)
Ltmp568:
	movq	%rsi, -128(%rbp)
	movq	%rdi, -120(%rbp)
	movq	%rdi, -112(%rbp)
	movq	%rsi, -56(%rbp)
Ltmp569:
	.loc	35 1907 9 prologue_end
	movb	$0, -57(%rbp)
	movb	$1, -57(%rbp)
	.loc	35 1907 47 is_stmt 0
	movb	$0, -89(%rbp)
	.loc	35 1907 30
	movb	-89(%rbp), %al
	movb	%al, -17(%rbp)
Ltmp570:
	.loc	33 189 9 is_stmt 1
	movb	$2, -24(%rbp)
	movb	$0, -21(%rbp)
	movb	$1, -23(%rbp)
	movb	$0, -20(%rbp)
	movb	%al, -22(%rbp)
	movb	$0, -19(%rbp)
	.loc	33 197 6
	movl	-24(%rbp), %eax
	movzwl	-20(%rbp), %ecx
	shlq	$32, %rcx
	orq	%rcx, %rax
	movq	%rax, -104(%rbp)
Ltmp571:
	jmp	LBB92_4
Ltmp572:
LBB92_1:
	.loc	35 1908 5
	testb	$1, -57(%rbp)
	jne	LBB92_10
	jmp	LBB92_9
Ltmp573:
LBB92_2:
Ltmp567:
	.loc	35 0 5 is_stmt 0
	movq	%rax, %rcx
	movl	%edx, %eax
	movq	%rcx, -152(%rbp)
	movl	%eax, -140(%rbp)
	jmp	LBB92_3
Ltmp574:
LBB92_3:
	movq	-152(%rbp), %rcx
	movl	-140(%rbp), %eax
	movq	%rcx, -48(%rbp)
	movl	%eax, -40(%rbp)
	jmp	LBB92_1
Ltmp575:
LBB92_4:
	movq	-136(%rbp), %rcx
	movq	-104(%rbp), %rax
	.loc	35 1907 30 is_stmt 1
	movl	%eax, %edx
	movl	%edx, -32(%rbp)
	shrq	$32, %rax
	movw	%ax, -28(%rbp)
	movw	-28(%rbp), %ax
	movw	%ax, -92(%rbp)
	movl	-32(%rbp), %eax
	movl	%eax, -96(%rbp)
	.loc	35 1907 69 is_stmt 0
	movb	$0, -57(%rbp)
	movq	16(%rcx), %rax
	movq	%rax, -72(%rbp)
	movq	(%rcx), %rax
	movq	8(%rcx), %rcx
	movq	%rcx, -80(%rbp)
	movq	%rax, -88(%rbp)
Ltmp562:
	movl	$24, %edi
	movl	$8, %esi
Ltmp576:
	.loc	31 219 9 is_stmt 1
	callq	__ZN5alloc5alloc15exchange_malloc17hd75cfe0faeda4397E
Ltmp563:
	movq	%rax, -160(%rbp)
	jmp	LBB92_6
Ltmp577:
LBB92_5:
Ltmp564:
	.loc	31 0 9 is_stmt 0
	movq	%rax, %rcx
	movl	%edx, %eax
	movq	%rcx, -16(%rbp)
	movl	%eax, -8(%rbp)
	.loc	31 217 5 is_stmt 1
	movq	-16(%rbp), %rcx
	movl	-8(%rbp), %eax
	movq	%rcx, -152(%rbp)
	movl	%eax, -140(%rbp)
	jmp	LBB92_3
Ltmp578:
LBB92_6:
	.loc	31 0 5 is_stmt 0
	movq	-160(%rbp), %rax
	.loc	31 219 18 is_stmt 1
	movq	-88(%rbp), %rcx
	movq	%rcx, (%rax)
	movq	-80(%rbp), %rcx
	movq	%rcx, 8(%rax)
	movq	-72(%rbp), %rcx
	movq	%rcx, 16(%rax)
Ltmp579:
	.loc	31 0 18 is_stmt 0
	movq	-160(%rbp), %rcx
	movq	-128(%rbp), %rsi
	movq	-120(%rbp), %rdi
	.loc	35 1907 9 is_stmt 1
	movl	-96(%rbp), %eax
	movl	%eax, %edx
	movzwl	-92(%rbp), %eax
	shlq	$32, %rax
	orq	%rax, %rdx
Ltmp565:
	leaq	l___unnamed_6(%rip), %r8
	callq	__ZN4egui2ui2Ui15with_layout_dyn17h4f3154681cfb5e82E
Ltmp566:
	jmp	LBB92_8
Ltmp580:
LBB92_8:
	.loc	35 0 9 is_stmt 0
	movq	-112(%rbp), %rax
	.loc	35 1908 6 is_stmt 1
	addq	$160, %rsp
	popq	%rbp
	retq
Ltmp581:
LBB92_9:
	.loc	35 1906 5
	movq	-48(%rbp), %rdi
	callq	__Unwind_Resume
Ltmp582:
LBB92_10:
	.loc	35 1908 5
	jmp	LBB92_9
Ltmp583:
Lfunc_end92:
	.cfi_endproc
	.section	__TEXT,__gcc_except_tab
	.p2align	2
GCC_except_table92:
Lexception17:
	.byte	255
	.byte	255
	.byte	1
	.uleb128 Lcst_end17-Lcst_begin17
Lcst_begin17:
	.uleb128 Ltmp562-Lfunc_begin92
	.uleb128 Ltmp563-Ltmp562
	.uleb128 Ltmp564-Lfunc_begin92
	.byte	0
	.uleb128 Ltmp565-Lfunc_begin92
	.uleb128 Ltmp566-Ltmp565
	.uleb128 Ltmp567-Lfunc_begin92
	.byte	0
	.uleb128 Ltmp566-Lfunc_begin92
	.uleb128 Lfunc_end92-Ltmp566
	.byte	0
	.byte	0
Lcst_end17:
	.p2align	2

	.section	__TEXT,__text,regular,pure_instructions
	.p2align	4, 0x90
__ZN4egui2ui2Ui8vertical17h295fe5394a031cf0E:
Lfunc_begin93:
	.loc	35 1906 0
	.cfi_startproc
	.cfi_personality 155, _rust_eh_personality
	.cfi_lsda 16, Lexception18
	pushq	%rbp
	.cfi_def_cfa_offset 16
	.cfi_offset %rbp, -16
	movq	%rsp, %rbp
	.cfi_def_cfa_register %rbp
	subq	$176, %rsp
	movq	%rdx, -152(%rbp)
Ltmp590:
	movq	%rsi, -144(%rbp)
	movq	%rdi, -136(%rbp)
	movq	%rdi, -128(%rbp)
	movq	%rsi, -56(%rbp)
Ltmp591:
	.loc	35 1907 9 prologue_end
	movb	$0, -57(%rbp)
	movb	$1, -57(%rbp)
	.loc	35 1907 47 is_stmt 0
	movb	$0, -105(%rbp)
	.loc	35 1907 30
	movb	-105(%rbp), %al
	movb	%al, -17(%rbp)
Ltmp592:
	.loc	33 189 9 is_stmt 1
	movb	$2, -24(%rbp)
	movb	$0, -21(%rbp)
	movb	$1, -23(%rbp)
	movb	$0, -20(%rbp)
	movb	%al, -22(%rbp)
	movb	$0, -19(%rbp)
	.loc	33 197 6
	movl	-24(%rbp), %eax
	movzwl	-20(%rbp), %ecx
	shlq	$32, %rcx
	orq	%rcx, %rax
	movq	%rax, -120(%rbp)
Ltmp593:
	jmp	LBB93_4
Ltmp594:
LBB93_1:
	.loc	35 1908 5
	testb	$1, -57(%rbp)
	jne	LBB93_10
	jmp	LBB93_9
Ltmp595:
LBB93_2:
Ltmp589:
	.loc	35 0 5 is_stmt 0
	movq	%rax, %rcx
	movl	%edx, %eax
	movq	%rcx, -168(%rbp)
	movl	%eax, -156(%rbp)
	jmp	LBB93_3
Ltmp596:
LBB93_3:
	movq	-168(%rbp), %rcx
	movl	-156(%rbp), %eax
	movq	%rcx, -48(%rbp)
	movl	%eax, -40(%rbp)
	jmp	LBB93_1
Ltmp597:
LBB93_4:
	movq	-152(%rbp), %rcx
	movq	-120(%rbp), %rax
	.loc	35 1907 30 is_stmt 1
	movl	%eax, %edx
	movl	%edx, -32(%rbp)
	shrq	$32, %rax
	movw	%ax, -28(%rbp)
	movw	-28(%rbp), %ax
	movw	%ax, -108(%rbp)
	movl	-32(%rbp), %eax
	movl	%eax, -112(%rbp)
	.loc	35 1907 69 is_stmt 0
	movb	$0, -57(%rbp)
	movq	32(%rcx), %rax
	movq	%rax, -72(%rbp)
	movq	24(%rcx), %rax
	movq	%rax, -80(%rbp)
	movq	16(%rcx), %rax
	movq	%rax, -88(%rbp)
	movq	(%rcx), %rax
	movq	8(%rcx), %rcx
	movq	%rcx, -96(%rbp)
	movq	%rax, -104(%rbp)
Ltmp584:
	movl	$40, %edi
	movl	$8, %esi
Ltmp598:
	.loc	31 219 9 is_stmt 1
	callq	__ZN5alloc5alloc15exchange_malloc17hd75cfe0faeda4397E
Ltmp585:
	movq	%rax, -176(%rbp)
	jmp	LBB93_6
Ltmp599:
LBB93_5:
Ltmp586:
	.loc	31 0 9 is_stmt 0
	movq	%rax, %rcx
	movl	%edx, %eax
	movq	%rcx, -16(%rbp)
	movl	%eax, -8(%rbp)
	.loc	31 217 5 is_stmt 1
	movq	-16(%rbp), %rcx
	movl	-8(%rbp), %eax
	movq	%rcx, -168(%rbp)
	movl	%eax, -156(%rbp)
	jmp	LBB93_3
Ltmp600:
LBB93_6:
	.loc	31 0 5 is_stmt 0
	movq	-176(%rbp), %rdi
	.loc	31 219 18 is_stmt 1
	leaq	-104(%rbp), %rsi
	movl	$40, %edx
	callq	_memcpy
Ltmp601:
	.loc	31 0 18 is_stmt 0
	movq	-176(%rbp), %rcx
	movq	-144(%rbp), %rsi
	movq	-136(%rbp), %rdi
	.loc	35 1907 9 is_stmt 1
	movl	-112(%rbp), %eax
	movl	%eax, %edx
	movzwl	-108(%rbp), %eax
	shlq	$32, %rax
	orq	%rax, %rdx
Ltmp587:
	leaq	l___unnamed_7(%rip), %r8
	callq	__ZN4egui2ui2Ui15with_layout_dyn17h4f3154681cfb5e82E
Ltmp588:
	jmp	LBB93_8
Ltmp602:
LBB93_8:
	.loc	35 0 9 is_stmt 0
	movq	-128(%rbp), %rax
	.loc	35 1908 6 is_stmt 1
	addq	$176, %rsp
	popq	%rbp
	retq
Ltmp603:
LBB93_9:
	.loc	35 1906 5
	movq	-48(%rbp), %rdi
	callq	__Unwind_Resume
Ltmp604:
LBB93_10:
	.loc	35 1908 5
	jmp	LBB93_9
Ltmp605:
Lfunc_end93:
	.cfi_endproc
	.section	__TEXT,__gcc_except_tab
	.p2align	2
GCC_except_table93:
Lexception18:
	.byte	255
	.byte	255
	.byte	1
	.uleb128 Lcst_end18-Lcst_begin18
Lcst_begin18:
	.uleb128 Ltmp584-Lfunc_begin93
	.uleb128 Ltmp585-Ltmp584
	.uleb128 Ltmp586-Lfunc_begin93
	.byte	0
	.uleb128 Ltmp585-Lfunc_begin93
	.uleb128 Ltmp587-Ltmp585
	.byte	0
	.byte	0
	.uleb128 Ltmp587-Lfunc_begin93
	.uleb128 Ltmp588-Ltmp587
	.uleb128 Ltmp589-Lfunc_begin93
	.byte	0
	.uleb128 Ltmp588-Lfunc_begin93
	.uleb128 Lfunc_end93-Ltmp588
	.byte	0
	.byte	0
Lcst_end18:
	.p2align	2

	.section	__TEXT,__text,regular,pure_instructions
	.p2align	4, 0x90
__ZN4egui4grid4Grid4show17h1c09c54b29e4f329E:
Lfunc_begin94:
	.file	36 "/Users/natalie/.cargo/registry/src/github.com-1ecc6299db9ec823/egui-0.19.0/src" "grid.rs"
	.loc	36 341 0
	.cfi_startproc
	.cfi_personality 155, _rust_eh_personality
	.cfi_lsda 16, Lexception19
	pushq	%rbp
	.cfi_def_cfa_offset 16
	.cfi_offset %rbp, -16
	movq	%rsp, %rbp
	.cfi_def_cfa_register %rbp
	subq	$160, %rsp
	movq	%rcx, -136(%rbp)
Ltmp609:
	movq	%rdx, -160(%rbp)
Ltmp610:
	movq	%rdi, -152(%rbp)
	movq	%rdi, -144(%rbp)
	movq	%rdx, -24(%rbp)
	movl	$9, %ecx
	leaq	-120(%rbp), %rdi
Ltmp611:
	.loc	36 342 9 prologue_end
	rep;movsq (%rsi), %es:(%rdi)
Ltmp612:
	.loc	36 0 9 is_stmt 0
	movq	-136(%rbp), %rcx
	.loc	36 342 36
	movq	16(%rcx), %rax
	movq	%rax, -32(%rbp)
	movq	(%rcx), %rax
	movq	8(%rcx), %rcx
	movq	%rcx, -40(%rbp)
	movq	%rax, -48(%rbp)
Ltmp606:
	movl	$24, %edi
	movl	$8, %esi
Ltmp613:
	.loc	31 219 9 is_stmt 1
	callq	__ZN5alloc5alloc15exchange_malloc17hd75cfe0faeda4397E
Ltmp607:
	movq	%rax, -128(%rbp)
	jmp	LBB94_2
Ltmp614:
LBB94_1:
Ltmp608:
	.loc	31 0 9 is_stmt 0
	movq	%rax, %rcx
	movl	%edx, %eax
	movq	%rcx, -16(%rbp)
	movl	%eax, -8(%rbp)
	.loc	31 217 5 is_stmt 1
	movq	-16(%rbp), %rdi
	callq	__Unwind_Resume
Ltmp615:
LBB94_2:
	.loc	31 0 5 is_stmt 0
	movq	-128(%rbp), %rcx
	movq	-160(%rbp), %rdx
	movq	-152(%rbp), %rdi
	.loc	31 219 18 is_stmt 1
	movq	-48(%rbp), %rax
	movq	%rax, (%rcx)
	movq	-40(%rbp), %rax
	movq	%rax, 8(%rcx)
	movq	-32(%rbp), %rax
	movq	%rax, 16(%rcx)
Ltmp616:
	.loc	36 342 9
	leaq	-120(%rbp), %rsi
	leaq	l___unnamed_8(%rip), %r8
	callq	__ZN4egui4grid4Grid8show_dyn17hc1c24e2800382b37E
	movq	-144(%rbp), %rax
	.loc	36 343 6
	addq	$160, %rsp
	popq	%rbp
	retq
Ltmp617:
Lfunc_end94:
	.cfi_endproc
	.section	__TEXT,__gcc_except_tab
	.p2align	2
GCC_except_table94:
Lexception19:
	.byte	255
	.byte	255
	.byte	1
	.uleb128 Lcst_end19-Lcst_begin19
Lcst_begin19:
	.uleb128 Ltmp606-Lfunc_begin94
	.uleb128 Ltmp607-Ltmp606
	.uleb128 Ltmp608-Lfunc_begin94
	.byte	0
	.uleb128 Ltmp607-Lfunc_begin94
	.uleb128 Lfunc_end94-Ltmp607
	.byte	0
	.byte	0
Lcst_end19:
	.p2align	2

	.section	__TEXT,__text,regular,pure_instructions
	.p2align	4, 0x90
__ZN4egui4grid4Grid4show17h53ddca60f54dabf9E:
Lfunc_begin95:
	.loc	36 341 0
	.cfi_startproc
	.cfi_personality 155, _rust_eh_personality
	.cfi_lsda 16, Lexception20
	pushq	%rbp
	.cfi_def_cfa_offset 16
	.cfi_offset %rbp, -16
	movq	%rsp, %rbp
	.cfi_def_cfa_register %rbp
	subq	$192, %rsp
	movq	%rcx, -160(%rbp)
Ltmp621:
	movq	%rdx, -184(%rbp)
Ltmp622:
	movq	%rdi, -176(%rbp)
	movq	%rdi, -168(%rbp)
	movq	%rdx, -24(%rbp)
	movl	$9, %ecx
	leaq	-144(%rbp), %rdi
Ltmp623:
	.loc	36 342 9 prologue_end
	rep;movsq (%rsi), %es:(%rdi)
Ltmp624:
	.loc	36 0 9 is_stmt 0
	movq	-160(%rbp), %rcx
	.loc	36 342 36
	movq	40(%rcx), %rax
	movq	%rax, -32(%rbp)
	movq	32(%rcx), %rax
	movq	%rax, -40(%rbp)
	movq	24(%rcx), %rax
	movq	%rax, -48(%rbp)
	movq	16(%rcx), %rax
	movq	%rax, -56(%rbp)
	movq	(%rcx), %rax
	movq	8(%rcx), %rcx
	movq	%rcx, -64(%rbp)
	movq	%rax, -72(%rbp)
Ltmp618:
	movl	$48, %edi
	movl	$8, %esi
Ltmp625:
	.loc	31 219 9 is_stmt 1
	callq	__ZN5alloc5alloc15exchange_malloc17hd75cfe0faeda4397E
Ltmp619:
	movq	%rax, -152(%rbp)
	jmp	LBB95_2
Ltmp626:
LBB95_1:
Ltmp620:
	.loc	31 0 9 is_stmt 0
	movq	%rax, %rcx
	movl	%edx, %eax
	movq	%rcx, -16(%rbp)
	movl	%eax, -8(%rbp)
	.loc	31 217 5 is_stmt 1
	movq	-16(%rbp), %rdi
	callq	__Unwind_Resume
Ltmp627:
LBB95_2:
	.loc	31 0 5 is_stmt 0
	movq	-152(%rbp), %rdi
	.loc	31 219 18 is_stmt 1
	leaq	-72(%rbp), %rsi
	movl	$48, %edx
	callq	_memcpy
	movq	-176(%rbp), %rdi
	movq	-184(%rbp), %rdx
	movq	-152(%rbp), %rcx
Ltmp628:
	.loc	36 342 9
	leaq	-144(%rbp), %rsi
	leaq	l___unnamed_9(%rip), %r8
	callq	__ZN4egui4grid4Grid8show_dyn17hc1c24e2800382b37E
	movq	-168(%rbp), %rax
	.loc	36 343 6
	addq	$192, %rsp
	popq	%rbp
	retq
Ltmp629:
Lfunc_end95:
	.cfi_endproc
	.section	__TEXT,__gcc_except_tab
	.p2align	2
GCC_except_table95:
Lexception20:
	.byte	255
	.byte	255
	.byte	1
	.uleb128 Lcst_end20-Lcst_begin20
Lcst_begin20:
	.uleb128 Ltmp618-Lfunc_begin95
	.uleb128 Ltmp619-Ltmp618
	.uleb128 Ltmp620-Lfunc_begin95
	.byte	0
	.uleb128 Ltmp619-Lfunc_begin95
	.uleb128 Lfunc_end95-Ltmp619
	.byte	0
	.byte	0
Lcst_end20:
	.p2align	2

	.section	__TEXT,__text,regular,pure_instructions
	.p2align	4, 0x90
__ZN4egui7context7Context11frame_state17h9d03d1ead7a4cabeE:
Lfunc_begin96:
	.file	37 "/Users/natalie/.cargo/registry/src/github.com-1ecc6299db9ec823/egui-0.19.0/src" "context.rs"
	.loc	37 499 0
	.cfi_startproc
	pushq	%rbp
	.cfi_def_cfa_offset 16
	.cfi_offset %rbp, -16
	movq	%rsp, %rbp
	.cfi_def_cfa_register %rbp
	subq	$16, %rsp
	movq	%rdi, -8(%rbp)
Ltmp630:
	.loc	37 500 31 prologue_end
	callq	__ZN4egui7context7Context5write17hf65a905c70c3be5fE
	movq	%rax, %rdi
	movq	%rdx, %rsi
	.loc	37 500 9 is_stmt 0
	callq	__ZN8lock_api6rwlock35MappedRwLockWriteGuard$LT$R$C$T$GT$3map17hdf944f410f774ed0E
	.loc	37 501 6 is_stmt 1
	addq	$16, %rsp
	popq	%rbp
	retq
Ltmp631:
Lfunc_end96:
	.cfi_endproc

	.p2align	4, 0x90
__ZN4egui7context7Context5input17ha4a936451cb1b72dE:
Lfunc_begin97:
	.loc	37 523 0
	.cfi_startproc
	pushq	%rbp
	.cfi_def_cfa_offset 16
	.cfi_offset %rbp, -16
	movq	%rsp, %rbp
	.cfi_def_cfa_register %rbp
	subq	$16, %rsp
	movq	%rdi, -8(%rbp)
Ltmp632:
	.loc	37 524 30 prologue_end
	callq	__ZN4egui7context7Context4read17hca594518ebf559e3E
	movq	%rax, %rdi
	movq	%rdx, %rsi
	.loc	37 524 9 is_stmt 0
	callq	__ZN8lock_api6rwlock34MappedRwLockReadGuard$LT$R$C$T$GT$3map17h9991e1f8752f8148E
	.loc	37 525 6 is_stmt 1
	addq	$16, %rsp
	popq	%rbp
	retq
Ltmp633:
Lfunc_end97:
	.cfi_endproc

	.p2align	4, 0x90
__ZN50_$LT$T$u20$as$u20$core..convert..Into$LT$U$GT$$GT$4into17h423603953a17908fE:
Lfunc_begin98:
	.file	38 "/rustc/2c8cc343237b8f7d5a3c3703e3a87f2eb2c54a74/library/core/src/convert" "mod.rs"
	.loc	38 725 0
	.cfi_startproc
	pushq	%rbp
	.cfi_def_cfa_offset 16
	.cfi_offset %rbp, -16
	movq	%rsp, %rbp
	.cfi_def_cfa_register %rbp
	pushq	%rax
	movl	%edi, -8(%rbp)
	movl	%edi, -4(%rbp)
Ltmp634:
	.file	39 "/rustc/2c8cc343237b8f7d5a3c3703e3a87f2eb2c54a74/library/core/src/convert" "num.rs"
	.loc	39 54 17 prologue_end
	movslq	%edi, %rax
Ltmp635:
	.loc	38 727 6
	addq	$8, %rsp
	popq	%rbp
	retq
Ltmp636:
Lfunc_end98:
	.cfi_endproc

	.p2align	4, 0x90
__ZN54_$LT$$LP$$RP$$u20$as$u20$std..process..Termination$GT$6report17h3f10c84f01328643E:
Lfunc_begin99:
	.loc	17 2182 0
	.cfi_startproc
	pushq	%rbp
	.cfi_def_cfa_offset 16
	.cfi_offset %rbp, -16
	movq	%rsp, %rbp
	.cfi_def_cfa_register %rbp
	pushq	%rax
Ltmp637:
	.loc	17 2184 6 prologue_end
	xorl	%eax, %eax
	addq	$8, %rsp
	popq	%rbp
	retq
Ltmp638:
Lfunc_end99:
	.cfi_endproc

	.p2align	4, 0x90
__ZN5alloc3fmt6format17ha017f9069fb6dd05E:
Lfunc_begin100:
	.file	40 "/rustc/2c8cc343237b8f7d5a3c3703e3a87f2eb2c54a74/library/alloc/src" "fmt.rs"
	.loc	40 608 0
	.cfi_startproc
	pushq	%rbp
	.cfi_def_cfa_offset 16
	.cfi_offset %rbp, -16
	movq	%rsp, %rbp
	.cfi_def_cfa_register %rbp
	subq	$32, %rsp
	movq	%rsi, -24(%rbp)
	movq	%rdi, %rax
	movq	-24(%rbp), %rdi
	movq	%rax, -32(%rbp)
	movq	%rax, -16(%rbp)
Ltmp639:
	.loc	40 616 5 prologue_end
	callq	__ZN4core3fmt9Arguments6as_str17he3f4c6b02c6498b7E
	movq	-32(%rbp), %rdi
	movq	%rax, %rsi
	movq	-24(%rbp), %rax
	.loc	40 616 31 is_stmt 0
	movq	%rax, -8(%rbp)
	.loc	40 616 5
	movq	-8(%rbp), %rcx
	callq	__ZN4core6option15Option$LT$T$GT$11map_or_else17h13a140234188e005E
	movq	-16(%rbp), %rax
	.loc	40 617 2 is_stmt 1
	addq	$32, %rsp
	popq	%rbp
	retq
Ltmp640:
Lfunc_end100:
	.cfi_endproc

	.p2align	4, 0x90
__ZN5alloc5alloc15exchange_malloc17hd75cfe0faeda4397E:
Lfunc_begin101:
	.file	41 "/rustc/2c8cc343237b8f7d5a3c3703e3a87f2eb2c54a74/library/alloc/src" "alloc.rs"
	.loc	41 324 0
	.cfi_startproc
	pushq	%rbp
	.cfi_def_cfa_offset 16
	.cfi_offset %rbp, -16
	movq	%rsp, %rbp
	.cfi_def_cfa_register %rbp
	subq	$208, %rsp
	movq	%rdi, -160(%rbp)
	movq	%rsi, -152(%rbp)
Ltmp641:
	.loc	41 325 61 prologue_end
	movq	%rdi, -144(%rbp)
	.loc	41 325 67 is_stmt 0
	movq	%rsi, -136(%rbp)
Ltmp642:
	.file	42 "/rustc/2c8cc343237b8f7d5a3c3703e3a87f2eb2c54a74/library/core/src/alloc" "layout.rs"
	.loc	42 120 65 is_stmt 1
	movq	%rsi, -128(%rbp)
Ltmp643:
	.file	43 "/rustc/2c8cc343237b8f7d5a3c3703e3a87f2eb2c54a74/library/core/src/ptr" "alignment.rs"
	.loc	43 89 18
	movq	%rsi, -120(%rbp)
	movq	-120(%rbp), %rax
Ltmp644:
	.loc	42 120 18
	movq	%rdi, -200(%rbp)
	movq	%rax, -192(%rbp)
Ltmp645:
	.loc	41 326 11
	leaq	l___unnamed_18(%rip), %rdi
	movq	%rdi, -112(%rbp)
	.loc	41 326 27 is_stmt 0
	movq	-200(%rbp), %rsi
	movq	-192(%rbp), %rdx
	movq	%rsi, -104(%rbp)
	movq	%rdx, -96(%rbp)
	xorl	%ecx, %ecx
Ltmp646:
	.loc	41 237 9 is_stmt 1
	callq	__ZN5alloc5alloc6Global10alloc_impl17h953d985701ee0073E
	movq	%rdx, -176(%rbp)
	movq	%rax, -184(%rbp)
Ltmp647:
	.loc	41 326 11
	movq	-184(%rbp), %rdx
	xorl	%eax, %eax
	movl	$1, %ecx
	cmpq	$0, %rdx
	cmoveq	%rcx, %rax
	.loc	41 326 5 is_stmt 0
	cmpq	$0, %rax
	jne	LBB101_2
	.loc	41 327 12 is_stmt 1
	movq	-184(%rbp), %rax
	movq	-176(%rbp), %rcx
	movq	%rax, -88(%rbp)
	movq	%rcx, -80(%rbp)
Ltmp648:
	.loc	41 327 20 is_stmt 0
	movq	%rax, -72(%rbp)
	movq	%rcx, -64(%rbp)
Ltmp649:
	.file	44 "/rustc/2c8cc343237b8f7d5a3c3703e3a87f2eb2c54a74/library/core/src/ptr" "non_null.rs"
	.loc	44 548 9 is_stmt 1
	movq	%rax, -56(%rbp)
	movq	%rcx, -48(%rbp)
Ltmp650:
	.loc	44 529 41
	movq	%rax, -40(%rbp)
	movq	%rcx, -32(%rbp)
Ltmp651:
	.loc	44 326 9
	movq	%rax, -24(%rbp)
	movq	%rcx, -16(%rbp)
Ltmp652:
	.file	45 "/rustc/2c8cc343237b8f7d5a3c3703e3a87f2eb2c54a74/library/core/src/ptr" "mut_ptr.rs"
	.loc	45 2037 9
	movq	%rax, -8(%rbp)
Ltmp653:
	.loc	44 201 13
	movq	%rax, -168(%rbp)
Ltmp654:
	.loc	44 326 9
	movq	-168(%rbp), %rax
Ltmp655:
	.loc	41 330 2
	addq	$208, %rsp
	popq	%rbp
	retq
LBB101_2:
Ltmp656:
	.loc	41 328 38
	movq	-200(%rbp), %rdi
	movq	-192(%rbp), %rsi
	.loc	41 328 19 is_stmt 0
	callq	__ZN5alloc5alloc18handle_alloc_error17hb5f6ff255f23ea4dE
Ltmp657:
Lfunc_end101:
	.cfi_endproc

	.p2align	4, 0x90
__ZN5alloc5alloc6Global10alloc_impl17h953d985701ee0073E:
Lfunc_begin102:
	.loc	41 172 0 is_stmt 1
	.cfi_startproc
	pushq	%rbp
	.cfi_def_cfa_offset 16
	.cfi_offset %rbp, -16
	movq	%rsp, %rbp
	.cfi_def_cfa_register %rbp
	subq	$352, %rsp
	movb	%cl, %al
	movb	%al, -345(%rbp)
	movq	%rsi, -336(%rbp)
	movq	%rdx, -328(%rbp)
	movq	%rdi, -208(%rbp)
	andb	$1, %al
	movb	%al, -193(%rbp)
Ltmp658:
	.loc	41 173 15 prologue_end
	leaq	-336(%rbp), %rax
	movq	%rax, -144(%rbp)
Ltmp659:
	.loc	42 129 9
	movq	-336(%rbp), %rax
	movq	%rax, -344(%rbp)
Ltmp660:
	.loc	41 173 9
	cmpq	$0, %rax
	jne	LBB102_2
	.loc	41 174 51
	leaq	-336(%rbp), %rax
	movq	%rax, -48(%rbp)
Ltmp661:
	.loc	42 216 71
	leaq	-336(%rbp), %rax
	movq	%rax, -40(%rbp)
Ltmp662:
	.loc	42 140 9
	movq	-328(%rbp), %rax
	movq	%rax, -32(%rbp)
Ltmp663:
	.loc	43 97 9
	movq	%rax, -232(%rbp)
	movq	-232(%rbp), %rax
	movq	%rax, -24(%rbp)
Ltmp664:
	.loc	24 599 14
	movq	%rax, -16(%rbp)
	movq	-16(%rbp), %rax
	movq	%rax, -8(%rbp)
Ltmp665:
	.loc	44 201 13
	movq	%rax, -304(%rbp)
Ltmp666:
	.loc	41 174 21
	movq	-304(%rbp), %rdi
	xorl	%eax, %eax
	movl	%eax, %esi
	callq	__ZN4core3ptr8non_null26NonNull$LT$$u5b$T$u5d$$GT$20slice_from_raw_parts17ha7a2a17f681cd444E
	.loc	41 174 18 is_stmt 0
	movq	%rax, -320(%rbp)
	movq	%rdx, -312(%rbp)
	.loc	41 174 72
	jmp	LBB102_15
LBB102_2:
	.loc	41 0 72
	movb	-345(%rbp), %al
	movq	-344(%rbp), %rcx
	.loc	41 176 13 is_stmt 1
	movq	%rcx, -136(%rbp)
Ltmp667:
	.loc	41 177 34
	testb	$1, %al
	jne	LBB102_4
	.loc	41 177 79 is_stmt 0
	movq	-336(%rbp), %rcx
	movq	-328(%rbp), %rax
	movq	%rcx, -272(%rbp)
	movq	%rax, -264(%rbp)
Ltmp668:
	.loc	41 95 27 is_stmt 1
	leaq	-272(%rbp), %rax
	movq	%rax, -104(%rbp)
Ltmp669:
	.loc	42 129 9
	movq	-272(%rbp), %rdi
Ltmp670:
	.loc	41 95 42
	leaq	-272(%rbp), %rax
	movq	%rax, -96(%rbp)
Ltmp671:
	.loc	42 140 9
	movq	-264(%rbp), %rax
	movq	%rax, -88(%rbp)
Ltmp672:
	.loc	43 97 9
	movq	%rax, -216(%rbp)
	movq	-216(%rbp), %rsi
Ltmp673:
	.loc	41 95 14
	callq	___rust_alloc
	movq	%rax, -296(%rbp)
Ltmp674:
	.loc	41 177 31
	jmp	LBB102_5
LBB102_4:
	.loc	41 177 56 is_stmt 0
	movq	-336(%rbp), %rcx
	movq	-328(%rbp), %rax
	movq	%rcx, -288(%rbp)
	movq	%rax, -280(%rbp)
Ltmp675:
	.loc	41 166 34 is_stmt 1
	leaq	-288(%rbp), %rax
	movq	%rax, -128(%rbp)
Ltmp676:
	.loc	42 129 9
	movq	-288(%rbp), %rdi
Ltmp677:
	.loc	41 166 49
	leaq	-288(%rbp), %rax
	movq	%rax, -120(%rbp)
Ltmp678:
	.loc	42 140 9
	movq	-280(%rbp), %rax
	movq	%rax, -112(%rbp)
Ltmp679:
	.loc	43 97 9
	movq	%rax, -224(%rbp)
	movq	-224(%rbp), %rsi
Ltmp680:
	.loc	41 166 14
	callq	___rust_alloc_zeroed
	movq	%rax, -296(%rbp)
Ltmp681:
LBB102_5:
	.loc	41 178 40
	movq	-296(%rbp), %rdi
	.loc	41 178 27 is_stmt 0
	callq	__ZN4core3ptr8non_null16NonNull$LT$T$GT$3new17hbe07f8c52c575838E
	movq	%rax, -240(%rbp)
Ltmp682:
	.loc	28 1096 15 is_stmt 1
	movq	-240(%rbp), %rdx
	movl	$1, %eax
	xorl	%ecx, %ecx
	cmpq	$0, %rdx
	cmoveq	%rcx, %rax
	.loc	28 1096 9 is_stmt 0
	cmpq	$0, %rax
	jne	LBB102_7
	.loc	28 1098 21 is_stmt 1
	movq	$0, -248(%rbp)
	.loc	28 1098 28 is_stmt 0
	jmp	LBB102_8
LBB102_7:
	.loc	28 1097 18 is_stmt 1
	movq	-240(%rbp), %rax
	movq	%rax, -80(%rbp)
Ltmp683:
	.loc	28 1097 24 is_stmt 0
	movq	%rax, -248(%rbp)
Ltmp684:
LBB102_8:
	.loc	29 2091 15 is_stmt 1
	movq	-248(%rbp), %rdx
	xorl	%eax, %eax
	movl	$1, %ecx
	cmpq	$0, %rdx
	cmoveq	%rcx, %rax
	.loc	29 2091 9 is_stmt 0
	cmpq	$0, %rax
	jne	LBB102_10
	.loc	29 2092 16 is_stmt 1
	movq	-248(%rbp), %rax
	movq	%rax, -72(%rbp)
Ltmp685:
	.loc	29 2092 22 is_stmt 0
	movq	%rax, -256(%rbp)
Ltmp686:
	.loc	29 2092 45
	jmp	LBB102_11
LBB102_10:
Ltmp687:
	.loc	29 2093 23 is_stmt 1
	movq	$0, -256(%rbp)
Ltmp688:
LBB102_11:
	.loc	41 178 27
	movq	-256(%rbp), %rdx
	xorl	%eax, %eax
	movl	$1, %ecx
	cmpq	$0, %rdx
	cmoveq	%rcx, %rax
	cmpq	$0, %rax
	jne	LBB102_13
	.loc	41 0 27 is_stmt 0
	movq	-344(%rbp), %rsi
	.loc	41 178 27
	movq	-256(%rbp), %rdi
	movq	%rdi, -64(%rbp)
Ltmp689:
	.loc	41 178 27
	movq	%rdi, -56(%rbp)
Ltmp690:
	.loc	41 179 20 is_stmt 1
	callq	__ZN4core3ptr8non_null26NonNull$LT$$u5b$T$u5d$$GT$20slice_from_raw_parts17ha7a2a17f681cd444E
	.loc	41 179 17 is_stmt 0
	movq	%rax, -320(%rbp)
	movq	%rdx, -312(%rbp)
Ltmp691:
	.loc	41 180 13 is_stmt 1
	jmp	LBB102_15
LBB102_13:
Ltmp692:
	.loc	29 2107 23
	movq	$0, -320(%rbp)
Ltmp693:
LBB102_14:
	.loc	41 182 6
	movq	-320(%rbp), %rax
	movq	-312(%rbp), %rdx
	addq	$352, %rsp
	popq	%rbp
	retq
LBB102_15:
	jmp	LBB102_14
Ltmp694:
Lfunc_end102:
	.cfi_endproc

	.p2align	4, 0x90
__ZN60_$LT$rug..float..Round$u20$as$u20$core..default..Default$GT$7default17h7d495787c28bae3bE:
Lfunc_begin103:
	.loc	11 222 0
	.cfi_startproc
	pushq	%rbp
	.cfi_def_cfa_offset 16
	.cfi_offset %rbp, -16
	movq	%rsp, %rbp
	.cfi_def_cfa_register %rbp
	subq	$1, %rsp
Ltmp695:
	.loc	11 223 9 prologue_end
	movb	$0, -1(%rbp)
	.loc	11 224 6
	movb	-1(%rbp), %al
	addq	$1, %rsp
	popq	%rbp
	retq
Ltmp696:
Lfunc_end103:
	.cfi_endproc

	.p2align	4, 0x90
__ZN61_$LT$egui..context..Context$u20$as$u20$core..clone..Clone$GT$5clone17h4915b7f91ae35de6E:
Lfunc_begin104:
	.loc	37 150 0
	.cfi_startproc
	pushq	%rbp
	.cfi_def_cfa_offset 16
	.cfi_offset %rbp, -16
	movq	%rsp, %rbp
	.cfi_def_cfa_register %rbp
	subq	$16, %rsp
	movq	%rdi, -8(%rbp)
Ltmp697:
	.loc	37 151 20 prologue_end
	callq	__ZN64_$LT$alloc..sync..Arc$LT$T$GT$$u20$as$u20$core..clone..Clone$GT$5clone17he0e10c336ff03a37E
	.loc	37 150 10
	movq	%rax, -16(%rbp)
	.loc	37 150 15 is_stmt 0
	movq	-16(%rbp), %rax
	addq	$16, %rsp
	popq	%rbp
	retq
Ltmp698:
Lfunc_end104:
	.cfi_endproc

	.p2align	4, 0x90
__ZN6eframe3epi3App11clear_color17h37fd7540da81a550E:
Lfunc_begin105:
	.file	46 "/Users/natalie/.cargo/registry/src/github.com-1ecc6299db9ec823/eframe-0.19.0/src" "epi.rs"
	.loc	46 121 0 is_stmt 1
	.cfi_startproc
	pushq	%rbp
	.cfi_def_cfa_offset 16
	.cfi_offset %rbp, -16
	movq	%rsp, %rbp
	.cfi_def_cfa_register %rbp
	subq	$48, %rsp
	movq	%rdi, -48(%rbp)
	movq	%rdi, -40(%rbp)
	movq	%rsi, -24(%rbp)
	movq	%rdx, -16(%rbp)
Ltmp699:
	.loc	46 125 9 prologue_end
	movl	$12, %edx
	movl	$180, %ecx
	movl	%edx, %edi
	movl	%edx, %esi
	callq	__ZN6epaint5color7Color3222from_rgba_unmultiplied17h2b4c3b21d821116bE
	movq	-48(%rbp), %rdi
	movl	%eax, -4(%rbp)
	movl	-4(%rbp), %eax
	movl	%eax, -32(%rbp)
	movl	-32(%rbp), %esi
	callq	__ZN50_$LT$T$u20$as$u20$core..convert..Into$LT$U$GT$$GT$4into17h33f8e36321f21c5cE
	movq	-40(%rbp), %rax
	.loc	46 128 6
	addq	$48, %rsp
	popq	%rbp
	retq
Ltmp700:
Lfunc_end105:
	.cfi_endproc

	.p2align	4, 0x90
__ZN6eframe3epi3App14on_close_event17h439e31333da606eeE:
Lfunc_begin106:
	.loc	46 82 0
	.cfi_startproc
	pushq	%rbp
	.cfi_def_cfa_offset 16
	.cfi_offset %rbp, -16
	movq	%rsp, %rbp
	.cfi_def_cfa_register %rbp
	pushq	%rax
	movq	%rdi, -8(%rbp)
Ltmp701:
	.loc	46 84 6 prologue_end
	movb	$1, %al
	andb	$1, %al
	movzbl	%al, %eax
	addq	$8, %rsp
	popq	%rbp
	retq
Ltmp702:
Lfunc_end106:
	.cfi_endproc

	.p2align	4, 0x90
__ZN6eframe3epi3App14post_rendering17h0ec747290d059d09E:
Lfunc_begin107:
	.loc	46 157 0
	.cfi_startproc
	pushq	%rbp
	.cfi_def_cfa_offset 16
	.cfi_offset %rbp, -16
	movq	%rsp, %rbp
	.cfi_def_cfa_register %rbp
	subq	$32, %rsp
	movq	%rsi, -24(%rbp)
	movq	-24(%rbp), %rax
	movq	%rax, -32(%rbp)
	movq	%rdi, -16(%rbp)
	movq	%rdx, -8(%rbp)
Ltmp703:
	.loc	46 157 79 prologue_end
	addq	$32, %rsp
	popq	%rbp
	retq
Ltmp704:
Lfunc_end107:
	.cfi_endproc

	.p2align	4, 0x90
__ZN6eframe3epi3App15max_size_points17h5763ed1cde49575dE:
Lfunc_begin108:
	.loc	46 115 0
	.cfi_startproc
	pushq	%rbp
	.cfi_def_cfa_offset 16
	.cfi_offset %rbp, -16
	movq	%rsp, %rbp
	.cfi_def_cfa_register %rbp
	pushq	%rax
	movq	%rdi, -8(%rbp)
Ltmp705:
	.loc	46 116 9 prologue_end
	movss	L___unnamed_26(%rip), %xmm0
	movss	L___unnamed_26+4(%rip), %xmm1
	.loc	46 117 6
	addq	$8, %rsp
	popq	%rbp
	retq
Ltmp706:
Lfunc_end108:
	.cfi_endproc

	.p2align	4, 0x90
__ZN6eframe3epi3App15warm_up_enabled17h26eaf53c11957877E:
Lfunc_begin109:
	.loc	46 150 0
	.cfi_startproc
	pushq	%rbp
	.cfi_def_cfa_offset 16
	.cfi_offset %rbp, -16
	movq	%rsp, %rbp
	.cfi_def_cfa_register %rbp
	pushq	%rax
	movq	%rdi, -8(%rbp)
Ltmp707:
	.loc	46 152 6 prologue_end
	xorl	%eax, %eax
	andb	$1, %al
	movzbl	%al, %eax
	addq	$8, %rsp
	popq	%rbp
	retq
Ltmp708:
Lfunc_end109:
	.cfi_endproc

	.p2align	4, 0x90
__ZN6eframe3epi3App18auto_save_interval17hf18671f202ac3583E:
Lfunc_begin110:
	.loc	46 105 0
	.cfi_startproc
	pushq	%rbp
	.cfi_def_cfa_offset 16
	.cfi_offset %rbp, -16
	movq	%rsp, %rbp
	.cfi_def_cfa_register %rbp
	subq	$16, %rsp
	movq	%rdi, -8(%rbp)
	movl	$30, %edi
Ltmp709:
	.loc	46 106 9 prologue_end
	callq	__ZN4core4time8Duration9from_secs17he373c4851a699bc1E
	.loc	46 107 6
	addq	$16, %rsp
	popq	%rbp
	retq
Ltmp710:
Lfunc_end110:
	.cfi_endproc

	.p2align	4, 0x90
__ZN6eframe3epi3App19persist_egui_memory17h2e7b63a23c80fe95E:
Lfunc_begin111:
	.loc	46 138 0
	.cfi_startproc
	pushq	%rbp
	.cfi_def_cfa_offset 16
	.cfi_offset %rbp, -16
	movq	%rsp, %rbp
	.cfi_def_cfa_register %rbp
	pushq	%rax
	movq	%rdi, -8(%rbp)
Ltmp711:
	.loc	46 140 6 prologue_end
	movb	$1, %al
	andb	$1, %al
	movzbl	%al, %eax
	addq	$8, %rsp
	popq	%rbp
	retq
Ltmp712:
Lfunc_end111:
	.cfi_endproc

	.p2align	4, 0x90
__ZN6eframe3epi3App21persist_native_window17h823a71ebd80c1bceE:
Lfunc_begin112:
	.loc	46 132 0
	.cfi_startproc
	pushq	%rbp
	.cfi_def_cfa_offset 16
	.cfi_offset %rbp, -16
	movq	%rsp, %rbp
	.cfi_def_cfa_register %rbp
	pushq	%rax
	movq	%rdi, -8(%rbp)
Ltmp713:
	.loc	46 134 6 prologue_end
	movb	$1, %al
	andb	$1, %al
	movzbl	%al, %eax
	addq	$8, %rsp
	popq	%rbp
	retq
Ltmp714:
Lfunc_end112:
	.cfi_endproc

	.p2align	4, 0x90
__ZN6eframe3epi3App4save17h9c910ac19b0d8122E:
Lfunc_begin113:
	.loc	46 68 0
	.cfi_startproc
	pushq	%rbp
	.cfi_def_cfa_offset 16
	.cfi_offset %rbp, -16
	movq	%rsp, %rbp
	.cfi_def_cfa_register %rbp
	subq	$24, %rsp
	movq	%rdi, -24(%rbp)
	movq	%rsi, -16(%rbp)
	movq	%rdx, -8(%rbp)
Ltmp715:
	.loc	46 68 54 prologue_end
	addq	$24, %rsp
	popq	%rbp
	retq
Ltmp716:
Lfunc_end113:
	.cfi_endproc

	.p2align	4, 0x90
__ZN6eframe3epi3App7on_exit17h1591461e41b2ff7aE:
Lfunc_begin114:
	.loc	46 93 0
	.cfi_startproc
	pushq	%rbp
	.cfi_def_cfa_offset 16
	.cfi_offset %rbp, -16
	movq	%rsp, %rbp
	.cfi_def_cfa_register %rbp
	subq	$16, %rsp
	movq	%rdi, -16(%rbp)
	movq	%rsi, -8(%rbp)
Ltmp717:
	.loc	46 93 58 prologue_end
	addq	$16, %rsp
	popq	%rbp
	retq
Ltmp718:
Lfunc_end114:
	.cfi_endproc

	.p2align	4, 0x90
__ZN72_$LT$core..option..Option$LT$T$GT$$u20$as$u20$core..default..Default$GT$7default17h0af5deb90044738bE:
Lfunc_begin115:
	.loc	28 1966 0
	.cfi_startproc
	pushq	%rbp
	.cfi_def_cfa_offset 16
	.cfi_offset %rbp, -16
	movq	%rsp, %rbp
	.cfi_def_cfa_register %rbp
	movq	%rdi, %rax
Ltmp719:
	.loc	28 1967 9 prologue_end
	movq	$2, (%rdi)
	.loc	28 1968 6
	popq	%rbp
	retq
Ltmp720:
Lfunc_end115:
	.cfi_endproc

	.p2align	4, 0x90
__ZN72_$LT$core..option..Option$LT$T$GT$$u20$as$u20$core..default..Default$GT$7default17h5d322f8b88ab40f6E:
Lfunc_begin116:
	.loc	28 1966 0
	.cfi_startproc
	pushq	%rbp
	.cfi_def_cfa_offset 16
	.cfi_offset %rbp, -16
	movq	%rsp, %rbp
	.cfi_def_cfa_register %rbp
	movq	%rdi, %rax
Ltmp721:
	.loc	28 1967 9 prologue_end
	movl	$0, (%rdi)
	.loc	28 1968 6
	popq	%rbp
	retq
Ltmp722:
Lfunc_end116:
	.cfi_endproc

	.p2align	4, 0x90
__ZN78_$LT$lock_api..mutex..Mutex$LT$R$C$T$GT$$u20$as$u20$core..default..Default$GT$7default17hdc72b66128a91d33E:
Lfunc_begin117:
	.file	47 "/Users/natalie/.cargo/registry/src/github.com-1ecc6299db9ec823/lock_api-0.4.9/src" "mutex.rs"
	.loc	47 422 0
	.cfi_startproc
	pushq	%rbp
	.cfi_def_cfa_offset 16
	.cfi_offset %rbp, -16
	movq	%rsp, %rbp
	.cfi_def_cfa_register %rbp
	subq	$48, %rsp
	movq	%rdi, -40(%rbp)
	movq	%rdi, -32(%rbp)
Ltmp723:
	.loc	47 423 20 prologue_end
	leaq	-24(%rbp), %rdi
	callq	__ZN72_$LT$core..option..Option$LT$T$GT$$u20$as$u20$core..default..Default$GT$7default17h0af5deb90044738bE
	movq	-40(%rbp), %rdi
	.loc	47 423 9 is_stmt 0
	leaq	-24(%rbp), %rsi
	callq	__ZN8lock_api5mutex18Mutex$LT$R$C$T$GT$3new17h9533c8da9a5cd7ccE
	movq	-32(%rbp), %rax
	.loc	47 424 6 is_stmt 1
	addq	$48, %rsp
	popq	%rbp
	retq
Ltmp724:
Lfunc_end117:
	.cfi_endproc

	.p2align	4, 0x90
__ZN79_$LT$rug..float..arith..AddMulIncomplete$u20$as$u20$rug..ops..CompleteRound$GT$14complete_round17h56bd0b28056eaf64E:
Lfunc_begin118:
	.loc	1 2336 0
	.cfi_startproc
	pushq	%rbp
	.cfi_def_cfa_offset 16
	.cfi_offset %rbp, -16
	movq	%rsp, %rbp
	.cfi_def_cfa_register %rbp
	subq	$48, %rsp
	movl	%ecx, %eax
	movl	%edx, -44(%rbp)
	movq	%rsi, %rcx
	movl	-44(%rbp), %esi
	movq	%rdi, %rdx
	movq	%rdx, -40(%rbp)
Ltmp725:
	movl	%esi, -8(%rbp)
	movb	%al, -1(%rbp)
Ltmp726:
	.loc	1 2337 46 prologue_end
	movq	(%rcx), %rdx
	movq	%rdx, -32(%rbp)
	movq	8(%rcx), %rdx
	movq	%rdx, -24(%rbp)
	movq	16(%rcx), %rcx
Ltmp727:
	movq	%rcx, -16(%rbp)
	.loc	1 2337 17 is_stmt 0
	leaq	-32(%rbp), %rdx
	movzbl	%al, %ecx
	callq	__ZN3rug5float3big5Float14with_val_round17h9250e15b68e668c8E
	movq	-40(%rbp), %rax
	.loc	1 2338 14 is_stmt 1
	addq	$48, %rsp
	popq	%rbp
	retq
Ltmp728:
Lfunc_end118:
	.cfi_endproc

	.p2align	4, 0x90
__ZN79_$LT$rug..float..arith..SubMulIncomplete$u20$as$u20$rug..ops..CompleteRound$GT$14complete_round17h7debf7a28ec5b1fcE:
Lfunc_begin119:
	.loc	1 2336 0
	.cfi_startproc
	pushq	%rbp
	.cfi_def_cfa_offset 16
	.cfi_offset %rbp, -16
	movq	%rsp, %rbp
	.cfi_def_cfa_register %rbp
	subq	$48, %rsp
	movl	%ecx, %eax
	movl	%edx, -44(%rbp)
	movq	%rsi, %rcx
	movl	-44(%rbp), %esi
	movq	%rdi, %rdx
	movq	%rdx, -40(%rbp)
Ltmp729:
	movl	%esi, -8(%rbp)
	movb	%al, -1(%rbp)
Ltmp730:
	.loc	1 2337 46 prologue_end
	movq	(%rcx), %rdx
	movq	%rdx, -32(%rbp)
	movq	8(%rcx), %rdx
	movq	%rdx, -24(%rbp)
	movq	16(%rcx), %rcx
Ltmp731:
	movq	%rcx, -16(%rbp)
	.loc	1 2337 17 is_stmt 0
	leaq	-32(%rbp), %rdx
	movzbl	%al, %ecx
	callq	__ZN3rug5float3big5Float14with_val_round17h9272dfa4bbb77060E
	movq	-40(%rbp), %rax
	.loc	1 2338 14 is_stmt 1
	addq	$48, %rsp
	popq	%rbp
	retq
Ltmp732:
Lfunc_end119:
	.cfi_endproc

	.p2align	4, 0x90
__ZN80_$LT$egui..containers..panel..CentralPanel$u20$as$u20$core..default..Default$GT$7default17h8bb7039b36ee29a2E:
Lfunc_begin120:
	.loc	32 638 0
	.cfi_startproc
	pushq	%rbp
	.cfi_def_cfa_offset 16
	.cfi_offset %rbp, -16
	movq	%rsp, %rbp
	.cfi_def_cfa_register %rbp
	subq	$96, %rsp
	movq	%rdi, -88(%rbp)
	movq	%rdi, -80(%rbp)
Ltmp733:
	.loc	32 640 5 prologue_end
	leaq	-72(%rbp), %rdi
	callq	__ZN72_$LT$core..option..Option$LT$T$GT$$u20$as$u20$core..default..Default$GT$7default17h5d322f8b88ab40f6E
	movq	-88(%rbp), %rdi
	.loc	32 638 10
	leaq	-72(%rbp), %rsi
	movl	$72, %edx
	callq	_memcpy
	movq	-80(%rbp), %rax
	.loc	32 638 17 is_stmt 0
	addq	$96, %rsp
	popq	%rbp
	retq
Ltmp734:
Lfunc_end120:
	.cfi_endproc

	.p2align	4, 0x90
__ZN84_$LT$epaint..mutex..mutex_impl..Mutex$LT$T$GT$$u20$as$u20$core..default..Default$GT$7default17h9a004f1cd038cd5dE:
Lfunc_begin121:
	.loc	3 36 0 is_stmt 1
	.cfi_startproc
	pushq	%rbp
	.cfi_def_cfa_offset 16
	.cfi_offset %rbp, -16
	movq	%rsp, %rbp
	.cfi_def_cfa_register %rbp
	subq	$48, %rsp
	movq	%rdi, -48(%rbp)
	movq	%rdi, -40(%rbp)
Ltmp735:
	.loc	3 37 25 prologue_end
	leaq	-32(%rbp), %rdi
	callq	__ZN78_$LT$lock_api..mutex..Mutex$LT$R$C$T$GT$$u20$as$u20$core..default..Default$GT$7default17hdc72b66128a91d33E
	movq	-48(%rbp), %rdi
	movq	-40(%rbp), %rax
	.loc	3 36 14
	movq	-32(%rbp), %rcx
	movq	%rcx, (%rdi)
	movq	-24(%rbp), %rcx
	movq	%rcx, 8(%rdi)
	movq	-16(%rbp), %rcx
	movq	%rcx, 16(%rdi)
	movq	-8(%rbp), %rcx
	movq	%rcx, 24(%rdi)
	.loc	3 36 21 is_stmt 0
	addq	$48, %rsp
	popq	%rbp
	retq
Ltmp736:
Lfunc_end121:
	.cfi_endproc

	.p2align	4, 0x90
__ZN8lock_api5mutex18Mutex$LT$R$C$T$GT$3new17h3b048ec638c6400fE:
Lfunc_begin122:
	.loc	47 154 0 is_stmt 1
	.cfi_startproc
	pushq	%rbp
	.cfi_def_cfa_offset 16
	.cfi_offset %rbp, -16
	movq	%rsp, %rbp
	.cfi_def_cfa_register %rbp
	subq	$160, %rsp
	movq	%rdi, -160(%rbp)
	movq	%rdi, -152(%rbp)
Ltmp737:
	.loc	47 156 18 prologue_end
	movb	l___unnamed_27(%rip), %al
	movb	%al, -144(%rbp)
	.loc	47 157 35
	leaq	-96(%rbp), %rdi
	movl	$40, %edx
	callq	_memcpy
Ltmp738:
	.file	48 "/rustc/2c8cc343237b8f7d5a3c3703e3a87f2eb2c54a74/library/core/src" "cell.rs"
	.loc	48 1953 22
	leaq	-40(%rbp), %rdi
	leaq	-96(%rbp), %rsi
	movl	$40, %edx
	callq	_memcpy
	.loc	48 1953 9 is_stmt 0
	leaq	-136(%rbp), %rdi
	leaq	-40(%rbp), %rsi
	movl	$40, %edx
	callq	_memcpy
Ltmp739:
	.loc	48 0 9
	movq	-160(%rbp), %rdi
	.loc	47 155 9 is_stmt 1
	movb	-144(%rbp), %al
	movb	%al, (%rdi)
	addq	$8, %rdi
	leaq	-136(%rbp), %rsi
	movl	$40, %edx
	callq	_memcpy
	movq	-152(%rbp), %rax
	.loc	47 159 6
	addq	$160, %rsp
	popq	%rbp
	retq
Ltmp740:
Lfunc_end122:
	.cfi_endproc

	.p2align	4, 0x90
__ZN8lock_api5mutex18Mutex$LT$R$C$T$GT$3new17h9533c8da9a5cd7ccE:
Lfunc_begin123:
	.loc	47 154 0
	.cfi_startproc
	pushq	%rbp
	.cfi_def_cfa_offset 16
	.cfi_offset %rbp, -16
	movq	%rsp, %rbp
	.cfi_def_cfa_register %rbp
	subq	$112, %rsp
	movq	%rdi, -112(%rbp)
	movq	%rdi, -104(%rbp)
Ltmp741:
	.loc	47 156 18 prologue_end
	movb	l___unnamed_27(%rip), %al
	movb	%al, -96(%rbp)
	.loc	47 157 35
	movq	(%rsi), %rax
	movq	%rax, -64(%rbp)
	movq	8(%rsi), %rax
	movq	%rax, -56(%rbp)
	movq	16(%rsi), %rax
	movq	%rax, -48(%rbp)
Ltmp742:
	.loc	48 1953 22
	movq	-64(%rbp), %rax
	movq	%rax, -24(%rbp)
	movq	-56(%rbp), %rax
	movq	%rax, -16(%rbp)
	movq	-48(%rbp), %rax
	movq	%rax, -8(%rbp)
	.loc	48 1953 9 is_stmt 0
	movq	-24(%rbp), %rax
	movq	%rax, -88(%rbp)
	movq	-16(%rbp), %rax
	movq	%rax, -80(%rbp)
	movq	-8(%rbp), %rax
	movq	%rax, -72(%rbp)
Ltmp743:
	.loc	48 0 9
	movq	-104(%rbp), %rax
	movq	-112(%rbp), %rcx
	.loc	47 155 9 is_stmt 1
	movb	-96(%rbp), %dl
	movb	%dl, (%rcx)
	movq	-88(%rbp), %rdx
	movq	%rdx, 8(%rcx)
	movq	-80(%rbp), %rdx
	movq	%rdx, 16(%rcx)
	movq	-72(%rbp), %rdx
	movq	%rdx, 24(%rcx)
	.loc	47 159 6
	addq	$112, %rsp
	popq	%rbp
	retq
Ltmp744:
Lfunc_end123:
	.cfi_endproc

	.p2align	4, 0x90
__ZN3gui4main17he0386441809290efE:
Lfunc_begin124:
	.file	49 "/Users/natalie/Documents/code/mandelbrot-renderer" "src/main.rs"
	.loc	49 7 0
	.cfi_startproc
	.cfi_personality 155, _rust_eh_personality
	.cfi_lsda 16, Lexception21
	pushq	%rbp
	.cfi_def_cfa_offset 16
	.cfi_offset %rbp, -16
	movq	%rsp, %rbp
	.cfi_def_cfa_register %rbp
	subq	$272, %rsp
Ltmp754:
	.loc	49 8 6 prologue_end
	movb	$0, -33(%rbp)
	leaq	-232(%rbp), %rdi
	movq	%rdi, -248(%rbp)
	.loc	49 8 16 is_stmt 0
	callq	__ZN69_$LT$eframe..epi..NativeOptions$u20$as$u20$core..default..Default$GT$7default17haf6ad63932241261E
	movq	-248(%rbp), %rsi
Ltmp755:
	.loc	49 11 3 is_stmt 1
	movb	$1, -33(%rbp)
	movl	$12, %ecx
	leaq	-136(%rbp), %rdi
	rep;movsq (%rsi), %es:(%rdi)
Ltmp745:
	xorl	%eax, %eax
	movl	%eax, %edi
	movl	$1, %esi
Ltmp756:
	.loc	31 219 9
	callq	__ZN5alloc5alloc15exchange_malloc17hd75cfe0faeda4397E
Ltmp746:
	movq	%rax, -240(%rbp)
	jmp	LBB124_2
LBB124_1:
Ltmp747:
	.loc	31 0 9 is_stmt 0
	movq	%rax, %rcx
	movl	%edx, %eax
	movq	%rcx, -16(%rbp)
	movl	%eax, -8(%rbp)
	.loc	31 217 5 is_stmt 1
	movq	-16(%rbp), %rcx
	movl	-8(%rbp), %eax
	movq	%rcx, -264(%rbp)
	movl	%eax, -252(%rbp)
	jmp	LBB124_5
LBB124_2:
	.loc	31 220 6
	jmp	LBB124_6
Ltmp757:
LBB124_3:
	.loc	49 13 5
	testb	$1, -33(%rbp)
	jne	LBB124_9
	jmp	LBB124_8
LBB124_4:
Ltmp750:
	.loc	49 0 5 is_stmt 0
	movq	%rax, %rcx
	movl	%edx, %eax
	movq	%rcx, -264(%rbp)
	movl	%eax, -252(%rbp)
	jmp	LBB124_5
LBB124_5:
	movq	-264(%rbp), %rcx
	movl	-252(%rbp), %eax
	movq	%rcx, -32(%rbp)
	movl	%eax, -24(%rbp)
	jmp	LBB124_3
LBB124_6:
	movq	-240(%rbp), %rcx
	.loc	49 9 2 is_stmt 1
	movb	$0, -33(%rbp)
Ltmp748:
	leaq	l___unnamed_28(%rip), %rdi
	leaq	l___unnamed_10(%rip), %r8
	movl	$11, %esi
	leaq	-136(%rbp), %rdx
	callq	__ZN6eframe10run_native17h851e6fbdb040c701E
Ltmp749:
	jmp	LBB124_7
LBB124_7:
	.loc	49 13 5
	movb	$0, -33(%rbp)
Ltmp758:
	.loc	49 14 2
	addq	$272, %rsp
	popq	%rbp
	retq
LBB124_8:
	.loc	49 7 1
	movq	-32(%rbp), %rdi
	callq	__Unwind_Resume
LBB124_9:
Ltmp751:
	.loc	49 0 1 is_stmt 0
	leaq	-136(%rbp), %rdi
Ltmp759:
	.loc	49 13 5 is_stmt 1
	callq	__ZN4core3ptr47drop_in_place$LT$eframe..epi..NativeOptions$GT$17hb7d4488e6b35a3ebE
Ltmp752:
	jmp	LBB124_8
Ltmp760:
LBB124_10:
Ltmp753:
	.loc	49 7 1
	callq	__ZN4core9panicking19panic_cannot_unwind17h1fbca7e1d7f56ae1E
Ltmp761:
Lfunc_end124:
	.cfi_endproc
	.section	__TEXT,__gcc_except_tab
	.p2align	2
GCC_except_table124:
Lexception21:
	.byte	255
	.byte	255
	.byte	1
	.uleb128 Lcst_end21-Lcst_begin21
Lcst_begin21:
	.uleb128 Lfunc_begin124-Lfunc_begin124
	.uleb128 Ltmp745-Lfunc_begin124
	.byte	0
	.byte	0
	.uleb128 Ltmp745-Lfunc_begin124
	.uleb128 Ltmp746-Ltmp745
	.uleb128 Ltmp747-Lfunc_begin124
	.byte	0
	.uleb128 Ltmp748-Lfunc_begin124
	.uleb128 Ltmp749-Ltmp748
	.uleb128 Ltmp750-Lfunc_begin124
	.byte	0
	.uleb128 Ltmp749-Lfunc_begin124
	.uleb128 Ltmp751-Ltmp749
	.byte	0
	.byte	0
	.uleb128 Ltmp751-Lfunc_begin124
	.uleb128 Ltmp752-Ltmp751
	.uleb128 Ltmp753-Lfunc_begin124
	.byte	0
Lcst_end21:
	.p2align	2

	.section	__TEXT,__text,regular,pure_instructions
	.p2align	4, 0x90
__ZN3gui4main28_$u7b$$u7b$closure$u7d$$u7d$17hc228e3bc7ff608fdE:
Lfunc_begin125:
	.loc	49 12 0
	.cfi_startproc
	.cfi_personality 155, _rust_eh_personality
	.cfi_lsda 16, Lexception22
	pushq	%rbp
	.cfi_def_cfa_offset 16
	.cfi_offset %rbp, -16
	movq	%rsp, %rbp
	.cfi_def_cfa_register %rbp
	subq	$256, %rsp
	movq	%rdi, -24(%rbp)
	leaq	-248(%rbp), %rdi
Ltmp768:
	.loc	49 12 27 prologue_end
	callq	__ZN51_$LT$gui..App$u20$as$u20$core..default..Default$GT$7default17hb2b8c62e4901fdd2E
Ltmp762:
	movl	$216, %edi
	movl	$8, %esi
Ltmp769:
	.loc	31 219 9
	callq	__ZN5alloc5alloc15exchange_malloc17hd75cfe0faeda4397E
Ltmp763:
	movq	%rax, -256(%rbp)
	jmp	LBB125_4
LBB125_1:
Ltmp764:
	.loc	31 0 9 is_stmt 0
	movq	%rax, %rcx
	movl	%edx, %eax
	movq	%rcx, -16(%rbp)
	movl	%eax, -8(%rbp)
Ltmp765:
	leaq	-248(%rbp), %rdi
	.loc	31 220 5 is_stmt 1
	callq	__ZN4core3ptr29drop_in_place$LT$gui..App$GT$17h87a3aafd622d0fdfE
Ltmp766:
	jmp	LBB125_3
LBB125_2:
Ltmp767:
	.loc	31 217 5
	callq	__ZN4core9panicking19panic_cannot_unwind17h1fbca7e1d7f56ae1E
LBB125_3:
	movq	-16(%rbp), %rdi
	callq	__Unwind_Resume
LBB125_4:
	.loc	31 0 5 is_stmt 0
	movq	-256(%rbp), %rdi
	leaq	-248(%rbp), %rsi
	movl	$216, %edx
	.loc	31 219 18 is_stmt 1
	callq	_memcpy
	movq	-256(%rbp), %rax
Ltmp770:
	.loc	49 12 42
	leaq	l___unnamed_11(%rip), %rdx
	addq	$256, %rsp
	popq	%rbp
	retq
Ltmp771:
Lfunc_end125:
	.cfi_endproc
	.section	__TEXT,__gcc_except_tab
	.p2align	2
GCC_except_table125:
Lexception22:
	.byte	255
	.byte	255
	.byte	1
	.uleb128 Lcst_end22-Lcst_begin22
Lcst_begin22:
	.uleb128 Lfunc_begin125-Lfunc_begin125
	.uleb128 Ltmp762-Lfunc_begin125
	.byte	0
	.byte	0
	.uleb128 Ltmp762-Lfunc_begin125
	.uleb128 Ltmp763-Ltmp762
	.uleb128 Ltmp764-Lfunc_begin125
	.byte	0
	.uleb128 Ltmp765-Lfunc_begin125
	.uleb128 Ltmp766-Ltmp765
	.uleb128 Ltmp767-Lfunc_begin125
	.byte	0
	.uleb128 Ltmp766-Lfunc_begin125
	.uleb128 Lfunc_end125-Ltmp766
	.byte	0
	.byte	0
Lcst_end22:
	.p2align	2

	.section	__TEXT,__literal8,8byte_literals
	.p2align	3
LCPI126_0:
	.quad	0xbfa999999999999a
LCPI126_1:
	.quad	0x3ff8000000000000
LCPI126_2:
	.quad	0x4052c00000000000
LCPI126_3:
	.quad	0x4000000000000000
	.section	__TEXT,__text,regular,pure_instructions
	.p2align	4, 0x90
__ZN51_$LT$gui..App$u20$as$u20$core..default..Default$GT$7default17hb2b8c62e4901fdd2E:
Lfunc_begin126:
	.loc	49 24 0
	.cfi_startproc
	.cfi_personality 155, _rust_eh_personality
	.cfi_lsda 16, Lexception23
	pushq	%rbp
	.cfi_def_cfa_offset 16
	.cfi_offset %rbp, -16
	movq	%rsp, %rbp
	.cfi_def_cfa_register %rbp
	subq	$416, %rsp
	movq	%rdi, -400(%rbp)
	movq	%rdi, -392(%rbp)
	leaq	-200(%rbp), %rdi
	movl	$53, %esi
	movl	%esi, -380(%rbp)
	movl	$50, %edx
Ltmp803:
	.loc	49 27 11 prologue_end
	callq	__ZN3rug5float3big5Float8with_val17h9bec2509349915c5E
	movl	-380(%rbp), %esi
Ltmp772:
	leaq	-168(%rbp), %rdi
	movsd	LCPI126_0(%rip), %xmm0
	.loc	49 28 12
	callq	__ZN3rug5float3big5Float8with_val17he6ea354d8be6d72aE
Ltmp773:
	jmp	LBB126_3
LBB126_1:
Ltmp795:
	.loc	49 0 12 is_stmt 0
	leaq	-200(%rbp), %rdi
	.loc	49 35 4 is_stmt 1
	callq	__ZN4core3ptr43drop_in_place$LT$rug..float..big..Float$GT$17he0bd4893918cadc0E
Ltmp796:
	jmp	LBB126_17
LBB126_2:
Ltmp774:
	.loc	49 0 4 is_stmt 0
	movq	%rax, %rcx
	movl	%edx, %eax
	movq	%rcx, -16(%rbp)
	movl	%eax, -8(%rbp)
	jmp	LBB126_1
LBB126_3:
Ltmp775:
	leaq	-136(%rbp), %rdi
	movl	$53, %esi
	xorps	%xmm0, %xmm0
	.loc	49 29 12 is_stmt 1
	callq	__ZN3rug5float3big5Float8with_val17he6ea354d8be6d72aE
Ltmp776:
	jmp	LBB126_6
LBB126_4:
Ltmp793:
	.loc	49 0 12 is_stmt 0
	leaq	-168(%rbp), %rdi
	.loc	49 35 4 is_stmt 1
	callq	__ZN4core3ptr43drop_in_place$LT$rug..float..big..Float$GT$17he0bd4893918cadc0E
Ltmp794:
	jmp	LBB126_1
LBB126_5:
Ltmp777:
	.loc	49 0 4 is_stmt 0
	movq	%rax, %rcx
	movl	%edx, %eax
	movq	%rcx, -16(%rbp)
	movl	%eax, -8(%rbp)
	jmp	LBB126_4
LBB126_6:
Ltmp778:
	leaq	-104(%rbp), %rdi
	movl	$53, %esi
	movsd	LCPI126_1(%rip), %xmm0
	.loc	49 30 15 is_stmt 1
	callq	__ZN3rug5float3big5Float8with_val17he6ea354d8be6d72aE
Ltmp779:
	jmp	LBB126_9
LBB126_7:
Ltmp791:
	.loc	49 0 15 is_stmt 0
	leaq	-136(%rbp), %rdi
	.loc	49 35 4 is_stmt 1
	callq	__ZN4core3ptr43drop_in_place$LT$rug..float..big..Float$GT$17he0bd4893918cadc0E
Ltmp792:
	jmp	LBB126_4
LBB126_8:
Ltmp780:
	.loc	49 0 4 is_stmt 0
	movq	%rax, %rcx
	movl	%edx, %eax
	movq	%rcx, -16(%rbp)
	movl	%eax, -8(%rbp)
	jmp	LBB126_7
LBB126_9:
Ltmp781:
	leaq	-72(%rbp), %rdi
	movl	$53, %esi
	movsd	LCPI126_1(%rip), %xmm0
	.loc	49 31 15 is_stmt 1
	callq	__ZN3rug5float3big5Float8with_val17he6ea354d8be6d72aE
Ltmp782:
	jmp	LBB126_12
LBB126_10:
Ltmp789:
	.loc	49 0 15 is_stmt 0
	leaq	-104(%rbp), %rdi
	.loc	49 35 4 is_stmt 1
	callq	__ZN4core3ptr43drop_in_place$LT$rug..float..big..Float$GT$17he0bd4893918cadc0E
Ltmp790:
	jmp	LBB126_7
LBB126_11:
Ltmp783:
	.loc	49 0 4 is_stmt 0
	movq	%rax, %rcx
	movl	%edx, %eax
	movq	%rcx, -16(%rbp)
	movl	%eax, -8(%rbp)
	jmp	LBB126_10
LBB126_12:
Ltmp784:
	movsd	LCPI126_2(%rip), %xmm0
	movsd	LCPI126_3(%rip), %xmm1
	.loc	49 33 12 is_stmt 1
	callq	__ZN3std3f6421_$LT$impl$u20$f64$GT$4powf17h58006a49e102a14cE
Ltmp785:
	movsd	%xmm0, -408(%rbp)
	jmp	LBB126_15
LBB126_13:
Ltmp787:
	.loc	49 0 12 is_stmt 0
	leaq	-72(%rbp), %rdi
	.loc	49 35 4 is_stmt 1
	callq	__ZN4core3ptr43drop_in_place$LT$rug..float..big..Float$GT$17he0bd4893918cadc0E
Ltmp788:
	jmp	LBB126_10
LBB126_14:
Ltmp786:
	.loc	49 0 4 is_stmt 0
	movq	%rax, %rcx
	movl	%edx, %eax
	movq	%rcx, -16(%rbp)
	movl	%eax, -8(%rbp)
	jmp	LBB126_13
LBB126_15:
	movsd	-408(%rbp), %xmm0
	.loc	49 26 12 is_stmt 1
	movq	-176(%rbp), %rax
	movq	%rax, -352(%rbp)
	movq	-184(%rbp), %rax
	movq	%rax, -360(%rbp)
	movq	-200(%rbp), %rax
	movq	-192(%rbp), %rcx
	movq	%rcx, -368(%rbp)
	movq	%rax, -376(%rbp)
	movq	-144(%rbp), %rax
	movq	%rax, -320(%rbp)
	movq	-152(%rbp), %rax
	movq	%rax, -328(%rbp)
	movq	-168(%rbp), %rax
	movq	-160(%rbp), %rcx
	movq	%rcx, -336(%rbp)
	movq	%rax, -344(%rbp)
	movq	-112(%rbp), %rax
	movq	%rax, -288(%rbp)
	movq	-120(%rbp), %rax
	movq	%rax, -296(%rbp)
	movq	-136(%rbp), %rax
	movq	-128(%rbp), %rcx
	movq	%rcx, -304(%rbp)
	movq	%rax, -312(%rbp)
	movq	-80(%rbp), %rax
	movq	%rax, -256(%rbp)
	movq	-88(%rbp), %rax
	movq	%rax, -264(%rbp)
	movq	-104(%rbp), %rax
	movq	-96(%rbp), %rcx
	movq	%rcx, -272(%rbp)
	movq	%rax, -280(%rbp)
	movq	-48(%rbp), %rax
	movq	%rax, -224(%rbp)
	movq	-56(%rbp), %rax
	movq	%rax, -232(%rbp)
	movq	-72(%rbp), %rax
	movq	-64(%rbp), %rcx
	movq	%rcx, -240(%rbp)
	movq	%rax, -248(%rbp)
	movq	$200, -216(%rbp)
	movsd	%xmm0, -208(%rbp)
Ltmp797:
	leaq	-40(%rbp), %rdi
	.loc	49 37 9
	callq	__ZN10mandelbrot12initcolormap17h96201cdddacab84fE
Ltmp798:
	jmp	LBB126_20
LBB126_16:
Ltmp802:
	.loc	49 24 2
	callq	__ZN4core9panicking19panic_cannot_unwind17h1fbca7e1d7f56ae1E
LBB126_17:
	movq	-16(%rbp), %rdi
	callq	__Unwind_Resume
LBB126_18:
Ltmp800:
	.loc	49 0 2 is_stmt 0
	leaq	-376(%rbp), %rdi
	.loc	49 39 3 is_stmt 1
	callq	__ZN4core3ptr43drop_in_place$LT$mandelbrot..Parameters$GT$17h6dc047e70610e701E
Ltmp801:
	jmp	LBB126_17
LBB126_19:
Ltmp799:
	.loc	49 0 3 is_stmt 0
	movq	%rax, %rcx
	movl	%edx, %eax
	movq	%rcx, -16(%rbp)
	movl	%eax, -8(%rbp)
	jmp	LBB126_18
LBB126_20:
	movq	-400(%rbp), %rdi
	.loc	49 25 3 is_stmt 1
	leaq	-376(%rbp), %rsi
	movl	$176, %edx
	callq	_memcpy
	movq	-400(%rbp), %rcx
	movq	-392(%rbp), %rax
	movq	$0, 176(%rcx)
	movq	-40(%rbp), %rdx
	movq	%rdx, 184(%rcx)
	movq	-32(%rbp), %rdx
	movq	%rdx, 192(%rcx)
	movq	-24(%rbp), %rdx
	movq	%rdx, 200(%rcx)
	movl	$53, 208(%rcx)
	.loc	49 40 3
	addq	$416, %rsp
	popq	%rbp
	retq
Ltmp804:
Lfunc_end126:
	.cfi_endproc
	.section	__TEXT,__gcc_except_tab
	.p2align	2
GCC_except_table126:
Lexception23:
	.byte	255
	.byte	255
	.byte	1
	.uleb128 Lcst_end23-Lcst_begin23
Lcst_begin23:
	.uleb128 Lfunc_begin126-Lfunc_begin126
	.uleb128 Ltmp772-Lfunc_begin126
	.byte	0
	.byte	0
	.uleb128 Ltmp772-Lfunc_begin126
	.uleb128 Ltmp773-Ltmp772
	.uleb128 Ltmp774-Lfunc_begin126
	.byte	0
	.uleb128 Ltmp795-Lfunc_begin126
	.uleb128 Ltmp796-Ltmp795
	.uleb128 Ltmp802-Lfunc_begin126
	.byte	0
	.uleb128 Ltmp775-Lfunc_begin126
	.uleb128 Ltmp776-Ltmp775
	.uleb128 Ltmp777-Lfunc_begin126
	.byte	0
	.uleb128 Ltmp793-Lfunc_begin126
	.uleb128 Ltmp794-Ltmp793
	.uleb128 Ltmp802-Lfunc_begin126
	.byte	0
	.uleb128 Ltmp778-Lfunc_begin126
	.uleb128 Ltmp779-Ltmp778
	.uleb128 Ltmp780-Lfunc_begin126
	.byte	0
	.uleb128 Ltmp791-Lfunc_begin126
	.uleb128 Ltmp792-Ltmp791
	.uleb128 Ltmp802-Lfunc_begin126
	.byte	0
	.uleb128 Ltmp781-Lfunc_begin126
	.uleb128 Ltmp782-Ltmp781
	.uleb128 Ltmp783-Lfunc_begin126
	.byte	0
	.uleb128 Ltmp789-Lfunc_begin126
	.uleb128 Ltmp790-Ltmp789
	.uleb128 Ltmp802-Lfunc_begin126
	.byte	0
	.uleb128 Ltmp784-Lfunc_begin126
	.uleb128 Ltmp785-Ltmp784
	.uleb128 Ltmp786-Lfunc_begin126
	.byte	0
	.uleb128 Ltmp787-Lfunc_begin126
	.uleb128 Ltmp788-Ltmp787
	.uleb128 Ltmp802-Lfunc_begin126
	.byte	0
	.uleb128 Ltmp797-Lfunc_begin126
	.uleb128 Ltmp798-Ltmp797
	.uleb128 Ltmp799-Lfunc_begin126
	.byte	0
	.uleb128 Ltmp798-Lfunc_begin126
	.uleb128 Ltmp800-Ltmp798
	.byte	0
	.byte	0
	.uleb128 Ltmp800-Lfunc_begin126
	.uleb128 Ltmp801-Ltmp800
	.uleb128 Ltmp802-Lfunc_begin126
	.byte	0
	.uleb128 Ltmp801-Lfunc_begin126
	.uleb128 Lfunc_end126-Ltmp801
	.byte	0
	.byte	0
Lcst_end23:
	.p2align	2

	.section	__TEXT,__text,regular,pure_instructions
	.p2align	4, 0x90
__ZN45_$LT$gui..App$u20$as$u20$eframe..epi..App$GT$6update17h1608aed6e42bf9bfE:
Lfunc_begin127:
	.loc	49 44 0
	.cfi_startproc
	pushq	%rbp
	.cfi_def_cfa_offset 16
	.cfi_offset %rbp, -16
	movq	%rsp, %rbp
	.cfi_def_cfa_register %rbp
	subq	$256, %rsp
	movq	%rdi, -248(%rbp)
	movq	%rsi, -240(%rbp)
	movq	%rdi, -24(%rbp)
	movq	%rsi, -16(%rbp)
	movq	%rdx, -8(%rbp)
Ltmp805:
	.loc	49 45 14 prologue_end
	callq	__ZN3std4time7Instant3now17h325ddce48db31cf2E
	movq	%rax, -232(%rbp)
Ltmp806:
	.loc	49 46 9
	leaq	-136(%rbp), %rdi
	callq	__ZN80_$LT$egui..containers..panel..CentralPanel$u20$as$u20$core..default..Default$GT$7default17h8bb7039b36ee29a2E
	movq	-248(%rbp), %rsi
	movq	-240(%rbp), %rdx
	.loc	49 46 49 is_stmt 0
	movq	%rsi, %rcx
	addq	$176, %rcx
	movq	%rsi, %rax
	addq	$184, %rax
	movq	%rsi, %rdi
	addq	$208, %rdi
	movq	%rsi, -64(%rbp)
	movq	%rcx, -56(%rbp)
	movq	%rax, -48(%rbp)
	movq	%rdi, -40(%rbp)
	leaq	-232(%rbp), %rax
	movq	%rax, -32(%rbp)
	.loc	49 46 9
	leaq	-224(%rbp), %rdi
	leaq	-136(%rbp), %rsi
	leaq	-64(%rbp), %rcx
	callq	__ZN4egui10containers5panel12CentralPanel4show17h0005952ea070ed11E
	.loc	49 142 8 is_stmt 1
	leaq	-224(%rbp), %rdi
	callq	__ZN4core3ptr66drop_in_place$LT$egui..response..InnerResponse$LT$$LP$$RP$$GT$$GT$17hd16ec2f5e898fc9cE
Ltmp807:
	.loc	49 143 3
	addq	$256, %rsp
	popq	%rbp
	retq
Ltmp808:
Lfunc_end127:
	.cfi_endproc

	.p2align	4, 0x90
__ZN45_$LT$gui..App$u20$as$u20$eframe..epi..App$GT$6update28_$u7b$$u7b$closure$u7d$$u7d$17h273c17727070d949E:
Lfunc_begin128:
	.loc	49 46 0
	.cfi_startproc
	.cfi_personality 155, _rust_eh_personality
	.cfi_lsda 16, Lexception24
	pushq	%rbp
	.cfi_def_cfa_offset 16
	.cfi_offset %rbp, -16
	movq	%rsp, %rbp
	.cfi_def_cfa_register %rbp
	subq	$784, %rsp
	movq	%rdi, -648(%rbp)
Ltmp846:
	movq	%rsi, -664(%rbp)
	movq	%rsi, -24(%rbp)
Ltmp847:
	.loc	49 47 4 prologue_end
	movb	$0, -25(%rbp)
	.loc	49 47 19 is_stmt 0
	movq	(%rdi), %rdx
	movq	8(%rdi), %rcx
	movq	24(%rdi), %rax
	movq	%rdx, -528(%rbp)
	movq	%rcx, -520(%rbp)
	movq	%rax, -512(%rbp)
	leaq	-616(%rbp), %rdi
	movq	%rdi, -656(%rbp)
	leaq	-528(%rbp), %rdx
	.loc	49 47 4
	callq	__ZN4egui2ui2Ui10horizontal17h8bfdea359c746157E
	movq	-656(%rbp), %rdi
	.loc	49 132 6 is_stmt 1
	callq	__ZN4core3ptr66drop_in_place$LT$egui..response..InnerResponse$LT$$LP$$RP$$GT$$GT$17hd16ec2f5e898fc9cE
	movq	-648(%rbp), %rdi
	.loc	49 134 4
	movq	(%rdi), %rsi
	movq	%rsi, %rdi
	addq	$32, %rdi
	.loc	49 134 25 is_stmt 0
	addq	$96, %rsi
	.loc	49 134 4
	callq	__ZN3rug5float5arith114_$LT$impl$u20$core..ops..arith..SubAssign$LT$$RF$rug..float..big..Float$GT$$u20$for$u20$rug..float..big..Float$GT$10sub_assign17h941bef0706275a5aE
	movq	-648(%rbp), %rdi
	.loc	49 135 4 is_stmt 1
	movq	(%rdi), %rsi
	movq	%rsi, %rdi
	addq	$64, %rdi
	.loc	49 135 25 is_stmt 0
	subq	$-128, %rsi
	.loc	49 135 4
	callq	__ZN3rug5float5arith114_$LT$impl$u20$core..ops..arith..SubAssign$LT$$RF$rug..float..big..Float$GT$$u20$for$u20$rug..float..big..Float$GT$10sub_assign17h941bef0706275a5aE
	movq	-648(%rbp), %rdi
	.loc	49 136 115 is_stmt 1
	movq	(%rdi), %rsi
	.loc	49 136 129 is_stmt 0
	movq	24(%rdi), %rax
	movl	(%rax), %edx
	.loc	49 136 89
	movb	$1, -25(%rbp)
	leaq	-336(%rbp), %rdi
	callq	__ZN10mandelbrot13int_calculate17h6543fa80b1622ce0E
	movq	-648(%rbp), %rdi
	.loc	49 136 146
	movq	8(%rdi), %rax
	.loc	49 136 158
	movq	16(%rdi), %rdi
	.loc	49 136 146
	movq	(%rax), %rax
	movq	%rax, -640(%rbp)
Ltmp809:
	.loc	49 136 158
	callq	__ZN72_$LT$alloc..vec..Vec$LT$T$C$A$GT$$u20$as$u20$core..ops..deref..Deref$GT$5deref17hf08e020b77ed78a9E
Ltmp810:
	movq	%rdx, -632(%rbp)
	movq	%rax, -624(%rbp)
	jmp	LBB128_3
Ltmp848:
LBB128_1:
	.loc	49 136 167
	testb	$1, -25(%rbp)
	jne	LBB128_6
	jmp	LBB128_5
Ltmp849:
LBB128_2:
Ltmp813:
	.loc	49 0 167
	movq	%rax, %rcx
	movl	%edx, %eax
	movq	%rcx, -16(%rbp)
	movl	%eax, -8(%rbp)
	jmp	LBB128_1
Ltmp850:
LBB128_3:
	movq	-632(%rbp), %r8
	movq	-624(%rbp), %rcx
	movq	-640(%rbp), %rdx
	.loc	49 136 78
	movb	$0, -25(%rbp)
Ltmp811:
	leaq	-376(%rbp), %rdi
	leaq	-336(%rbp), %rsi
	callq	__ZN3gui10render_int17h562563a6cdb26a5eE
Ltmp812:
	jmp	LBB128_4
Ltmp851:
LBB128_4:
	.loc	49 136 167
	movb	$0, -25(%rbp)
	.loc	49 136 18
	leaq	L___unnamed_29(%rip), %rsi
	leaq	-504(%rbp), %rdi
	movl	$4, %edx
	leaq	-376(%rbp), %rcx
	callq	__ZN11egui_extras5image13RetainedImage16from_color_image17h9e4c20b6edd0fe12E
	movq	-648(%rbp), %rax
Ltmp852:
	.loc	49 137 4 is_stmt 1
	movq	(%rax), %rsi
	movq	%rsi, %rdi
	addq	$32, %rdi
	.loc	49 137 25 is_stmt 0
	addq	$96, %rsi
Ltmp816:
	.loc	49 137 4
	callq	__ZN3rug5float5arith114_$LT$impl$u20$core..ops..arith..AddAssign$LT$$RF$rug..float..big..Float$GT$$u20$for$u20$rug..float..big..Float$GT$10add_assign17h60812b7a7c52d9bbE
Ltmp817:
	jmp	LBB128_10
Ltmp853:
LBB128_5:
	.loc	49 46 49 is_stmt 1
	movq	-16(%rbp), %rdi
	callq	__Unwind_Resume
Ltmp854:
LBB128_6:
Ltmp814:
	.loc	49 0 49 is_stmt 0
	leaq	-336(%rbp), %rdi
	.loc	49 136 167 is_stmt 1
	callq	__ZN4core3ptr40drop_in_place$LT$mandelbrot..Storage$GT$17h6212041e3a326f2aE
Ltmp815:
	jmp	LBB128_5
Ltmp855:
LBB128_7:
Ltmp845:
	.loc	49 46 49
	callq	__ZN4core9panicking19panic_cannot_unwind17h1fbca7e1d7f56ae1E
Ltmp856:
LBB128_8:
Ltmp843:
	.loc	49 0 49 is_stmt 0
	leaq	-504(%rbp), %rdi
	.loc	49 142 6 is_stmt 1
	callq	__ZN4core3ptr54drop_in_place$LT$egui_extras..image..RetainedImage$GT$17h95f8ff007267252aE
Ltmp844:
	jmp	LBB128_5
Ltmp857:
LBB128_9:
Ltmp842:
	.loc	49 0 6 is_stmt 0
	movq	%rax, %rcx
	movl	%edx, %eax
	movq	%rcx, -16(%rbp)
	movl	%eax, -8(%rbp)
	jmp	LBB128_8
Ltmp858:
LBB128_10:
	movq	-648(%rbp), %rax
Ltmp859:
	.loc	49 138 4 is_stmt 1
	movq	(%rax), %rsi
	movq	%rsi, %rdi
	addq	$64, %rdi
	.loc	49 138 25 is_stmt 0
	subq	$-128, %rsi
Ltmp818:
	.loc	49 138 4
	callq	__ZN3rug5float5arith114_$LT$impl$u20$core..ops..arith..AddAssign$LT$$RF$rug..float..big..Float$GT$$u20$for$u20$rug..float..big..Float$GT$10add_assign17h60812b7a7c52d9bbE
Ltmp819:
	jmp	LBB128_11
Ltmp860:
LBB128_11:
Ltmp820:
	.loc	49 0 4
	movq	-664(%rbp), %rdx
	leaq	-296(%rbp), %rdi
	leaq	-504(%rbp), %rsi
	.loc	49 139 4 is_stmt 1
	callq	__ZN11egui_extras5image13RetainedImage4show17h4d04aaa2937f2123E
Ltmp821:
	jmp	LBB128_12
Ltmp861:
LBB128_12:
Ltmp822:
	.loc	49 0 4 is_stmt 0
	leaq	-296(%rbp), %rdi
	.loc	49 139 20
	callq	__ZN4core3ptr45drop_in_place$LT$egui..response..Response$GT$17h3aed4bdacfc12ea4E
Ltmp823:
	jmp	LBB128_13
Ltmp862:
LBB128_13:
	.loc	49 0 20
	movq	-648(%rbp), %rax
	.loc	49 140 41 is_stmt 1
	movq	32(%rax), %rdi
Ltmp824:
	callq	__ZN3std4time7Instant7elapsed17ha6a40aae4044d032E
Ltmp825:
	movl	%edx, -676(%rbp)
	movq	%rax, -672(%rbp)
	jmp	LBB128_14
Ltmp863:
LBB128_14:
	.loc	49 0 41 is_stmt 0
	movl	-676(%rbp), %eax
	movq	-672(%rbp), %rcx
	.loc	49 140 41
	movq	%rcx, -144(%rbp)
	movl	%eax, -136(%rbp)
Ltmp826:
	leaq	-144(%rbp), %rdi
	.loc	49 140 4
	callq	__ZN4core3fmt10ArgumentV19new_debug17h797624664913ce57E
Ltmp827:
	movq	%rdx, -696(%rbp)
	movq	%rax, -688(%rbp)
	jmp	LBB128_15
Ltmp864:
LBB128_15:
	.loc	49 0 4
	movq	-696(%rbp), %rax
	movq	-688(%rbp), %rcx
	.loc	49 140 4
	movq	%rcx, -160(%rbp)
	movq	%rax, -152(%rbp)
Ltmp828:
	leaq	l___unnamed_30(%rip), %rsi
	leaq	-208(%rbp), %rdi
	movl	$2, %edx
	leaq	-160(%rbp), %rcx
	movl	$1, %r8d
	callq	__ZN4core3fmt9Arguments6new_v117h5ba09674631e6281E
Ltmp829:
	jmp	LBB128_16
Ltmp865:
LBB128_16:
Ltmp830:
	.loc	49 0 4
	leaq	-208(%rbp), %rdi
	.loc	49 140 4
	callq	__ZN3std2io5stdio6_print17ha0d536e53b83a5ccE
Ltmp831:
	jmp	LBB128_17
Ltmp866:
LBB128_17:
	.loc	49 0 4
	movq	-648(%rbp), %rax
	.loc	49 141 4 is_stmt 1
	movq	(%rax), %rdi
Ltmp832:
	callq	__ZN4core3fmt10ArgumentV19new_debug17h36a2ce9c3b5f329fE
Ltmp833:
	movq	%rdx, -712(%rbp)
	movq	%rax, -704(%rbp)
	jmp	LBB128_18
Ltmp867:
LBB128_18:
	.loc	49 0 4 is_stmt 0
	movq	-648(%rbp), %rax
	movq	-712(%rbp), %rcx
	movq	-704(%rbp), %rdx
	movq	%rdx, -744(%rbp)
	movq	%rcx, -736(%rbp)
	.loc	49 141 4
	movq	8(%rax), %rdi
Ltmp834:
	callq	__ZN4core3fmt10ArgumentV111new_display17hfd7730e34037bfe5E
Ltmp835:
	movq	%rdx, -728(%rbp)
	movq	%rax, -720(%rbp)
	jmp	LBB128_19
Ltmp868:
LBB128_19:
	.loc	49 0 4
	movq	-648(%rbp), %rax
	movq	-728(%rbp), %rcx
	movq	-720(%rbp), %rdx
	movq	%rdx, -776(%rbp)
	movq	%rcx, -768(%rbp)
	.loc	49 141 4
	movq	24(%rax), %rdi
Ltmp836:
	callq	__ZN4core3fmt10ArgumentV111new_display17h0fe82e2e3493ebf2E
Ltmp837:
	movq	%rdx, -760(%rbp)
	movq	%rax, -752(%rbp)
	jmp	LBB128_20
Ltmp869:
LBB128_20:
	.loc	49 0 4
	movq	-760(%rbp), %rax
	movq	-752(%rbp), %rcx
	movq	-768(%rbp), %rdx
	movq	-776(%rbp), %rsi
	movq	-736(%rbp), %rdi
	movq	-744(%rbp), %r8
	.loc	49 141 4
	movq	%r8, -80(%rbp)
	movq	%rdi, -72(%rbp)
	movq	%rsi, -64(%rbp)
	movq	%rdx, -56(%rbp)
	movq	%rcx, -48(%rbp)
	movq	%rax, -40(%rbp)
Ltmp838:
	leaq	l___unnamed_31(%rip), %rsi
	leaq	-128(%rbp), %rdi
	movl	$4, %edx
	leaq	-80(%rbp), %rcx
	movl	$3, %r8d
	callq	__ZN4core3fmt9Arguments6new_v117h5ba09674631e6281E
Ltmp839:
	jmp	LBB128_21
Ltmp870:
LBB128_21:
Ltmp840:
	.loc	49 0 4
	leaq	-128(%rbp), %rdi
	.loc	49 141 4
	callq	__ZN3std2io5stdio6_print17ha0d536e53b83a5ccE
Ltmp841:
	jmp	LBB128_22
Ltmp871:
LBB128_22:
	.loc	49 142 6 is_stmt 1
	leaq	-504(%rbp), %rdi
	callq	__ZN4core3ptr54drop_in_place$LT$egui_extras..image..RetainedImage$GT$17h95f8ff007267252aE
	.loc	49 142 7 is_stmt 0
	addq	$784, %rsp
	popq	%rbp
	retq
Ltmp872:
Lfunc_end128:
	.cfi_endproc
	.section	__TEXT,__gcc_except_tab
	.p2align	2
GCC_except_table128:
Lexception24:
	.byte	255
	.byte	255
	.byte	1
	.uleb128 Lcst_end24-Lcst_begin24
Lcst_begin24:
	.uleb128 Lfunc_begin128-Lfunc_begin128
	.uleb128 Ltmp809-Lfunc_begin128
	.byte	0
	.byte	0
	.uleb128 Ltmp809-Lfunc_begin128
	.uleb128 Ltmp812-Ltmp809
	.uleb128 Ltmp813-Lfunc_begin128
	.byte	0
	.uleb128 Ltmp812-Lfunc_begin128
	.uleb128 Ltmp816-Ltmp812
	.byte	0
	.byte	0
	.uleb128 Ltmp816-Lfunc_begin128
	.uleb128 Ltmp817-Ltmp816
	.uleb128 Ltmp842-Lfunc_begin128
	.byte	0
	.uleb128 Ltmp817-Lfunc_begin128
	.uleb128 Ltmp814-Ltmp817
	.byte	0
	.byte	0
	.uleb128 Ltmp814-Lfunc_begin128
	.uleb128 Ltmp844-Ltmp814
	.uleb128 Ltmp845-Lfunc_begin128
	.byte	0
	.uleb128 Ltmp818-Lfunc_begin128
	.uleb128 Ltmp841-Ltmp818
	.uleb128 Ltmp842-Lfunc_begin128
	.byte	0
	.uleb128 Ltmp841-Lfunc_begin128
	.uleb128 Lfunc_end128-Ltmp841
	.byte	0
	.byte	0
Lcst_end24:
	.p2align	2

	.section	__TEXT,__text,regular,pure_instructions
	.p2align	4, 0x90
__ZN45_$LT$gui..App$u20$as$u20$eframe..epi..App$GT$6update28_$u7b$$u7b$closure$u7d$$u7d$28_$u7b$$u7b$closure$u7d$$u7d$17h515e9f35a9e713c2E:
Lfunc_begin129:
	.loc	49 47 0 is_stmt 1
	.cfi_startproc
	pushq	%rbp
	.cfi_def_cfa_offset 16
	.cfi_offset %rbp, -16
	movq	%rsp, %rbp
	.cfi_def_cfa_register %rbp
	subq	$272, %rsp
	movq	%rdi, -264(%rbp)
	movq	%rsi, -256(%rbp)
Ltmp873:
	movq	%rsi, -8(%rbp)
Ltmp874:
	.loc	49 48 18 prologue_end
	movq	(%rdi), %rdx
	movq	8(%rdi), %rcx
	movq	16(%rdi), %rax
	movq	%rdx, -160(%rbp)
	movq	%rcx, -152(%rbp)
	movq	%rax, -144(%rbp)
	.loc	49 48 5 is_stmt 0
	leaq	-248(%rbp), %rdi
	leaq	-160(%rbp), %rdx
	callq	__ZN4egui2ui2Ui8vertical17h05a3985149992069E
	.loc	49 118 7 is_stmt 1
	leaq	-248(%rbp), %rdi
	callq	__ZN4core3ptr66drop_in_place$LT$egui..response..InnerResponse$LT$$LP$$RP$$GT$$GT$17hd16ec2f5e898fc9cE
	movq	-264(%rbp), %rax
	movq	-256(%rbp), %rsi
	.loc	49 120 18
	movq	(%rax), %r8
	movq	(%rax), %rdi
	addq	$32, %rdi
	movq	(%rax), %rdx
	addq	$64, %rdx
	movq	(%rax), %rcx
	addq	$160, %rcx
	movq	16(%rax), %rax
	movq	%r8, -48(%rbp)
	movq	%rdi, -40(%rbp)
	movq	%rdx, -32(%rbp)
	movq	%rcx, -24(%rbp)
	movq	%rax, -16(%rbp)
	.loc	49 120 5 is_stmt 0
	leaq	-136(%rbp), %rdi
	leaq	-48(%rbp), %rdx
	callq	__ZN4egui2ui2Ui8vertical17h295fe5394a031cf0E
	.loc	49 131 7 is_stmt 1
	leaq	-136(%rbp), %rdi
	callq	__ZN4core3ptr66drop_in_place$LT$egui..response..InnerResponse$LT$$LP$$RP$$GT$$GT$17hd16ec2f5e898fc9cE
	.loc	49 132 5
	addq	$272, %rsp
	popq	%rbp
	retq
Ltmp875:
Lfunc_end129:
	.cfi_endproc

	.section	__TEXT,__literal8,8byte_literals
	.p2align	3
LCPI130_0:
	.quad	0x3fc999999999999a
	.section	__TEXT,__literal4,4byte_literals
	.p2align	2
LCPI130_1:
	.long	0x42c80000
	.section	__TEXT,__text,regular,pure_instructions
	.p2align	4, 0x90
__ZN45_$LT$gui..App$u20$as$u20$eframe..epi..App$GT$6update28_$u7b$$u7b$closure$u7d$$u7d$28_$u7b$$u7b$closure$u7d$$u7d$28_$u7b$$u7b$closure$u7d$$u7d$17hdf372cf120196689E:
Lfunc_begin130:
	.loc	49 48 0
	.cfi_startproc
	.cfi_personality 155, _rust_eh_personality
	.cfi_lsda 16, Lexception25
	pushq	%rbp
	.cfi_def_cfa_offset 16
	.cfi_offset %rbp, -16
	movq	%rsp, %rbp
	.cfi_def_cfa_register %rbp
	subq	$544, %rsp
	movq	%rdi, -536(%rbp)
Ltmp894:
	movq	%rsi, -528(%rbp)
	movq	%rsi, -24(%rbp)
	leaq	-520(%rbp), %rdi
Ltmp895:
	movl	$53, %esi
	movsd	LCPI130_0(%rip), %xmm0
Ltmp896:
	.loc	49 49 26 prologue_end
	callq	__ZN3rug5float3big5Float8with_val17he6ea354d8be6d72aE
Ltmp876:
Ltmp897:
	.loc	49 50 6
	leaq	L___unnamed_32(%rip), %rsi
	leaq	-400(%rbp), %rdi
	movl	$8, %edx
	callq	__ZN4egui4grid4Grid3new17hee749a436d25f54fE
Ltmp877:
Ltmp898:
	jmp	LBB130_3
Ltmp899:
LBB130_1:
Ltmp891:
	.loc	49 0 6 is_stmt 0
	leaq	-520(%rbp), %rdi
	.loc	49 118 5 is_stmt 1
	callq	__ZN4core3ptr43drop_in_place$LT$rug..float..big..Float$GT$17he0bd4893918cadc0E
Ltmp892:
	jmp	LBB130_11
Ltmp900:
LBB130_2:
Ltmp890:
	.loc	49 0 5 is_stmt 0
	movq	%rax, %rcx
	movl	%edx, %eax
	movq	%rcx, -16(%rbp)
	movl	%eax, -8(%rbp)
	jmp	LBB130_1
Ltmp901:
LBB130_3:
	movq	-528(%rbp), %rdx
	movq	-536(%rbp), %rax
Ltmp902:
	.loc	49 50 43 is_stmt 1
	movq	(%rax), %rcx
	movq	16(%rax), %rax
	movq	%rcx, %r8
	addq	$32, %r8
	movq	%rcx, %rdi
	addq	$64, %rdi
	movq	%rcx, %rsi
	addq	$96, %rsi
	subq	$-128, %rcx
	movq	%r8, -328(%rbp)
	movq	%rdi, -320(%rbp)
	movq	%rsi, -312(%rbp)
	movq	%rcx, -304(%rbp)
	movq	%rax, -296(%rbp)
	leaq	-520(%rbp), %rax
	movq	%rax, -288(%rbp)
Ltmp878:
	leaq	-488(%rbp), %rdi
	leaq	-400(%rbp), %rsi
	leaq	-328(%rbp), %rcx
	.loc	49 50 6 is_stmt 0
	callq	__ZN4egui4grid4Grid4show17h53ddca60f54dabf9E
Ltmp879:
	jmp	LBB130_4
Ltmp903:
LBB130_4:
Ltmp880:
	.loc	49 0 6
	leaq	-488(%rbp), %rdi
	.loc	49 72 8 is_stmt 1
	callq	__ZN4core3ptr66drop_in_place$LT$egui..response..InnerResponse$LT$$LP$$RP$$GT$$GT$17hd16ec2f5e898fc9cE
Ltmp881:
	jmp	LBB130_5
Ltmp904:
LBB130_5:
Ltmp882:
	.loc	49 74 6
	leaq	l___unnamed_33(%rip), %rsi
	leaq	-120(%rbp), %rdi
	movl	$14, %edx
	callq	__ZN4egui4grid4Grid3new17hee749a436d25f54fE
Ltmp883:
	jmp	LBB130_6
Ltmp905:
LBB130_6:
Ltmp884:
	.loc	49 0 6 is_stmt 0
	leaq	-192(%rbp), %rdi
	leaq	-120(%rbp), %rsi
	movss	LCPI130_1(%rip), %xmm0
	.loc	49 74 6
	callq	__ZN4egui4grid4Grid13min_col_width17ha32859c2fca95bceE
Ltmp885:
	jmp	LBB130_7
Ltmp906:
LBB130_7:
	.loc	49 0 6
	movq	-528(%rbp), %rdx
	movq	-536(%rbp), %rax
	.loc	49 74 70
	movq	(%rax), %rsi
	movq	8(%rax), %rcx
	movq	16(%rax), %rax
	movq	%rsi, -48(%rbp)
	movq	%rcx, -40(%rbp)
	movq	%rax, -32(%rbp)
Ltmp886:
	leaq	-280(%rbp), %rdi
	leaq	-192(%rbp), %rsi
	leaq	-48(%rbp), %rcx
	.loc	49 74 6
	callq	__ZN4egui4grid4Grid4show17h1c09c54b29e4f329E
Ltmp887:
	jmp	LBB130_8
Ltmp907:
LBB130_8:
Ltmp888:
	.loc	49 0 6
	leaq	-280(%rbp), %rdi
	.loc	49 116 8 is_stmt 1
	callq	__ZN4core3ptr66drop_in_place$LT$egui..response..InnerResponse$LT$$LP$$RP$$GT$$GT$17hd16ec2f5e898fc9cE
Ltmp889:
	jmp	LBB130_9
Ltmp908:
LBB130_9:
	.loc	49 118 5
	leaq	-520(%rbp), %rdi
	callq	__ZN4core3ptr43drop_in_place$LT$rug..float..big..Float$GT$17he0bd4893918cadc0E
	.loc	49 118 6 is_stmt 0
	addq	$544, %rsp
	popq	%rbp
	retq
Ltmp909:
LBB130_10:
Ltmp893:
	.loc	49 48 18 is_stmt 1
	callq	__ZN4core9panicking19panic_cannot_unwind17h1fbca7e1d7f56ae1E
Ltmp910:
LBB130_11:
	movq	-16(%rbp), %rdi
	callq	__Unwind_Resume
Ltmp911:
Lfunc_end130:
	.cfi_endproc
	.section	__TEXT,__gcc_except_tab
	.p2align	2
GCC_except_table130:
Lexception25:
	.byte	255
	.byte	255
	.byte	1
	.uleb128 Lcst_end25-Lcst_begin25
Lcst_begin25:
	.uleb128 Lfunc_begin130-Lfunc_begin130
	.uleb128 Ltmp876-Lfunc_begin130
	.byte	0
	.byte	0
	.uleb128 Ltmp876-Lfunc_begin130
	.uleb128 Ltmp877-Ltmp876
	.uleb128 Ltmp890-Lfunc_begin130
	.byte	0
	.uleb128 Ltmp891-Lfunc_begin130
	.uleb128 Ltmp892-Ltmp891
	.uleb128 Ltmp893-Lfunc_begin130
	.byte	0
	.uleb128 Ltmp878-Lfunc_begin130
	.uleb128 Ltmp889-Ltmp878
	.uleb128 Ltmp890-Lfunc_begin130
	.byte	0
	.uleb128 Ltmp889-Lfunc_begin130
	.uleb128 Lfunc_end130-Ltmp889
	.byte	0
	.byte	0
Lcst_end25:
	.p2align	2

	.section	__TEXT,__text,regular,pure_instructions
	.p2align	4, 0x90
__ZN45_$LT$gui..App$u20$as$u20$eframe..epi..App$GT$6update28_$u7b$$u7b$closure$u7d$$u7d$28_$u7b$$u7b$closure$u7d$$u7d$28_$u7b$$u7b$closure$u7d$$u7d$28_$u7b$$u7b$closure$u7d$$u7d$17h21b1114d3a972eb0E:
Lfunc_begin131:
	.loc	49 50 0
	.cfi_startproc
	.cfi_personality 155, _rust_eh_personality
	.cfi_lsda 16, Lexception26
	pushq	%rbp
	.cfi_def_cfa_offset 16
	.cfi_offset %rbp, -16
	movq	%rsp, %rbp
	.cfi_def_cfa_register %rbp
	subq	$1184, %rsp
	movq	%rdi, -1096(%rbp)
Ltmp924:
	movq	%rsi, -1088(%rbp)
Ltmp925:
	movq	%rsi, -56(%rbp)
Ltmp926:
	.loc	49 51 7 prologue_end
	leaq	-1072(%rbp), %rdi
Ltmp927:
	leaq	l___unnamed_18(%rip), %rdx
	xorl	%eax, %eax
	movl	%eax, %ecx
	callq	__ZN4egui2ui2Ui5label17h9e5ec2106e7322e8E
	.loc	49 51 19 is_stmt 0
	leaq	-1072(%rbp), %rdi
	callq	__ZN4core3ptr45drop_in_place$LT$egui..response..Response$GT$17h3aed4bdacfc12ea4E
	movq	-1088(%rbp), %rsi
	.loc	49 52 10 is_stmt 1
	leaq	-984(%rbp), %rdi
	leaq	l___unnamed_34(%rip), %rdx
	movl	$2, %ecx
	callq	__ZN4egui2ui2Ui6button17h27bb526c7bbeb4ecE
	leaq	-984(%rbp), %rax
	movq	%rax, -8(%rbp)
Ltmp928:
	.file	50 "/Users/natalie/.cargo/registry/src/github.com-1ecc6299db9ec823/egui-0.19.0/src" "response.rs"
	.loc	50 133 9
	movb	-919(%rbp), %al
	movb	%al, -1073(%rbp)
Ltmp929:
	.loc	49 52 34
	leaq	-984(%rbp), %rdi
	callq	__ZN4core3ptr45drop_in_place$LT$egui..response..Response$GT$17h3aed4bdacfc12ea4E
	movb	-1073(%rbp), %al
	.loc	49 52 10 is_stmt 0
	testb	$1, %al
	jne	LBB131_4
	jmp	LBB131_3
Ltmp930:
LBB131_2:
	.loc	49 50 43 is_stmt 1
	movq	-48(%rbp), %rdi
	callq	__Unwind_Resume
Ltmp931:
LBB131_3:
	.loc	49 0 43 is_stmt 0
	movq	-1088(%rbp), %rsi
	.loc	49 55 7 is_stmt 1
	leaq	-840(%rbp), %rdi
	leaq	l___unnamed_18(%rip), %rdx
	xorl	%eax, %eax
	movl	%eax, %ecx
	callq	__ZN4egui2ui2Ui5label17h9e5ec2106e7322e8E
	.loc	49 55 19 is_stmt 0
	leaq	-840(%rbp), %rdi
	callq	__ZN4core3ptr45drop_in_place$LT$egui..response..Response$GT$17h3aed4bdacfc12ea4E
	movq	-1088(%rbp), %rdi
	.loc	49 56 7 is_stmt 1
	callq	__ZN4egui2ui2Ui7end_row17h0c56538109d3e91aE
	movq	-1088(%rbp), %rsi
	.loc	49 58 10
	leaq	-752(%rbp), %rdi
	leaq	L___unnamed_35(%rip), %rdx
	movl	$4, %ecx
	callq	__ZN4egui2ui2Ui6button17h27bb526c7bbeb4ecE
	leaq	-752(%rbp), %rax
	movq	%rax, -16(%rbp)
Ltmp932:
	.loc	50 133 9
	movb	-687(%rbp), %al
	movb	%al, -1097(%rbp)
	.loc	50 134 6
	jmp	LBB131_8
Ltmp933:
LBB131_4:
	.loc	50 0 6 is_stmt 0
	movq	-1096(%rbp), %rax
	.loc	49 53 51 is_stmt 1
	movq	40(%rax), %rdi
	.loc	49 53 29 is_stmt 0
	movq	8(%rax), %rcx
	movq	%rcx, -1128(%rbp)
	.loc	49 53 68
	movq	24(%rax), %rsi
	.loc	49 53 50
	callq	__ZN3rug5float5arith78_$LT$impl$u20$core..ops..arith..Mul$u20$for$u20$$RF$rug..float..big..Float$GT$3mul17h3f90b01952f1d703E
	movq	-1128(%rbp), %rsi
	movq	%rax, -1120(%rbp)
	movq	%rdx, %rcx
	movq	-1120(%rbp), %rdx
	leaq	-864(%rbp), %rdi
	movq	%rdi, -1112(%rbp)
	.loc	49 53 28
	callq	__ZN3rug5float5arith118_$LT$impl$u20$core..ops..arith..Sub$LT$rug..float..arith..MulIncomplete$GT$$u20$for$u20$$RF$rug..float..big..Float$GT$3sub17hc5646e1a92f755b3E
	movq	-1112(%rbp), %rsi
	movq	-1096(%rbp), %rax
	.loc	49 53 101
	movq	32(%rax), %rax
	movl	(%rax), %edx
	leaq	-896(%rbp), %rdi
	.loc	49 53 28
	callq	__ZN3rug3ops13CompleteRound8complete17h803d001cf3462efbE
	movq	-1096(%rbp), %rax
	.loc	49 53 8
	movq	8(%rax), %rdi
Ltmp912:
	callq	__ZN4core3ptr43drop_in_place$LT$rug..float..big..Float$GT$17he0bd4893918cadc0E
Ltmp913:
	jmp	LBB131_7
Ltmp934:
LBB131_5:
	.loc	49 0 8
	movq	-1096(%rbp), %rax
	.loc	49 53 8
	movq	8(%rax), %rax
	movq	-896(%rbp), %rcx
	movq	%rcx, (%rax)
	movq	-888(%rbp), %rcx
	movq	%rcx, 8(%rax)
	movq	-880(%rbp), %rcx
	movq	%rcx, 16(%rax)
	movq	-872(%rbp), %rcx
	movq	%rcx, 24(%rax)
	jmp	LBB131_2
Ltmp935:
LBB131_6:
Ltmp914:
	.loc	49 0 8
	movq	%rax, %rcx
	movl	%edx, %eax
	movq	%rcx, -48(%rbp)
	movl	%eax, -40(%rbp)
	jmp	LBB131_5
Ltmp936:
LBB131_7:
	movq	-1096(%rbp), %rax
	.loc	49 53 8
	movq	8(%rax), %rax
	movq	-896(%rbp), %rcx
	movq	%rcx, (%rax)
	movq	-888(%rbp), %rcx
	movq	%rcx, 8(%rax)
	movq	-880(%rbp), %rcx
	movq	%rcx, 16(%rax)
	movq	-872(%rbp), %rcx
	movq	%rcx, 24(%rax)
	.loc	49 52 7 is_stmt 1
	jmp	LBB131_3
Ltmp937:
LBB131_8:
	.loc	49 58 36
	leaq	-752(%rbp), %rdi
	callq	__ZN4core3ptr45drop_in_place$LT$egui..response..Response$GT$17h3aed4bdacfc12ea4E
	movb	-1097(%rbp), %al
	.loc	49 58 10 is_stmt 0
	testb	$1, %al
	jne	LBB131_10
Ltmp938:
LBB131_9:
	.loc	49 0 10
	movq	-1088(%rbp), %rsi
	.loc	49 61 7 is_stmt 1
	leaq	-608(%rbp), %rdi
	leaq	l___unnamed_18(%rip), %rdx
	xorl	%eax, %eax
	movl	%eax, %ecx
	callq	__ZN4egui2ui2Ui5label17h9e5ec2106e7322e8E
	.loc	49 61 19 is_stmt 0
	leaq	-608(%rbp), %rdi
	callq	__ZN4core3ptr45drop_in_place$LT$egui..response..Response$GT$17h3aed4bdacfc12ea4E
	movq	-1088(%rbp), %rsi
	.loc	49 62 10 is_stmt 1
	leaq	-520(%rbp), %rdi
	leaq	l___unnamed_36(%rip), %rdx
	movl	$5, %ecx
	callq	__ZN4egui2ui2Ui6button17h27bb526c7bbeb4ecE
	leaq	-520(%rbp), %rax
	movq	%rax, -24(%rbp)
Ltmp939:
	.loc	50 133 9
	movb	-455(%rbp), %al
	movb	%al, -1129(%rbp)
	.loc	50 134 6
	jmp	LBB131_14
Ltmp940:
LBB131_10:
	.loc	50 0 6 is_stmt 0
	movq	-1096(%rbp), %rax
	.loc	49 59 51 is_stmt 1
	movq	40(%rax), %rdi
	.loc	49 59 29 is_stmt 0
	movq	(%rax), %rcx
	movq	%rcx, -1160(%rbp)
	.loc	49 59 68
	movq	16(%rax), %rsi
	.loc	49 59 50
	callq	__ZN3rug5float5arith78_$LT$impl$u20$core..ops..arith..Mul$u20$for$u20$$RF$rug..float..big..Float$GT$3mul17h3f90b01952f1d703E
	movq	-1160(%rbp), %rsi
	movq	%rax, -1152(%rbp)
	movq	%rdx, %rcx
	movq	-1152(%rbp), %rdx
	leaq	-632(%rbp), %rdi
	movq	%rdi, -1144(%rbp)
	.loc	49 59 28
	callq	__ZN3rug5float5arith118_$LT$impl$u20$core..ops..arith..Sub$LT$rug..float..arith..MulIncomplete$GT$$u20$for$u20$$RF$rug..float..big..Float$GT$3sub17hc5646e1a92f755b3E
	movq	-1144(%rbp), %rsi
	movq	-1096(%rbp), %rax
	.loc	49 59 101
	movq	32(%rax), %rax
	movl	(%rax), %edx
	leaq	-664(%rbp), %rdi
	.loc	49 59 28
	callq	__ZN3rug3ops13CompleteRound8complete17h803d001cf3462efbE
	movq	-1096(%rbp), %rax
	.loc	49 59 8
	movq	(%rax), %rdi
Ltmp915:
	callq	__ZN4core3ptr43drop_in_place$LT$rug..float..big..Float$GT$17he0bd4893918cadc0E
Ltmp916:
	jmp	LBB131_13
Ltmp941:
LBB131_11:
	.loc	49 0 8
	movq	-1096(%rbp), %rax
	.loc	49 59 8
	movq	(%rax), %rax
	movq	-664(%rbp), %rcx
	movq	%rcx, (%rax)
	movq	-656(%rbp), %rcx
	movq	%rcx, 8(%rax)
	movq	-648(%rbp), %rcx
	movq	%rcx, 16(%rax)
	movq	-640(%rbp), %rcx
	movq	%rcx, 24(%rax)
	jmp	LBB131_2
Ltmp942:
LBB131_12:
Ltmp917:
	.loc	49 0 8
	movq	%rax, %rcx
	movl	%edx, %eax
	movq	%rcx, -48(%rbp)
	movl	%eax, -40(%rbp)
	jmp	LBB131_11
Ltmp943:
LBB131_13:
	movq	-1096(%rbp), %rax
	.loc	49 59 8
	movq	(%rax), %rax
	movq	-664(%rbp), %rcx
	movq	%rcx, (%rax)
	movq	-656(%rbp), %rcx
	movq	%rcx, 8(%rax)
	movq	-648(%rbp), %rcx
	movq	%rcx, 16(%rax)
	movq	-640(%rbp), %rcx
	movq	%rcx, 24(%rax)
	.loc	49 58 7 is_stmt 1
	jmp	LBB131_9
Ltmp944:
LBB131_14:
	.loc	49 62 37
	leaq	-520(%rbp), %rdi
	callq	__ZN4core3ptr45drop_in_place$LT$egui..response..Response$GT$17h3aed4bdacfc12ea4E
	movb	-1129(%rbp), %al
	.loc	49 62 10 is_stmt 0
	testb	$1, %al
	jne	LBB131_16
Ltmp945:
LBB131_15:
	.loc	49 0 10
	movq	-1088(%rbp), %rdi
	.loc	49 65 7 is_stmt 1
	callq	__ZN4egui2ui2Ui7end_row17h0c56538109d3e91aE
	movq	-1088(%rbp), %rsi
	.loc	49 67 7
	leaq	-376(%rbp), %rdi
	leaq	l___unnamed_18(%rip), %rdx
	xorl	%eax, %eax
	movl	%eax, %ecx
	callq	__ZN4egui2ui2Ui5label17h9e5ec2106e7322e8E
	.loc	49 67 19 is_stmt 0
	leaq	-376(%rbp), %rdi
	callq	__ZN4core3ptr45drop_in_place$LT$egui..response..Response$GT$17h3aed4bdacfc12ea4E
	movq	-1088(%rbp), %rsi
	.loc	49 68 10 is_stmt 1
	leaq	-288(%rbp), %rdi
	leaq	L___unnamed_37(%rip), %rdx
	movl	$4, %ecx
	callq	__ZN4egui2ui2Ui6button17h27bb526c7bbeb4ecE
	leaq	-288(%rbp), %rax
	movq	%rax, -32(%rbp)
Ltmp946:
	.loc	50 133 9
	movb	-223(%rbp), %al
	movb	%al, -1161(%rbp)
	.loc	50 134 6
	jmp	LBB131_20
Ltmp947:
LBB131_16:
	.loc	50 0 6 is_stmt 0
	movq	-1096(%rbp), %rax
	.loc	49 63 28 is_stmt 1
	movq	40(%rax), %rsi
	.loc	49 63 77 is_stmt 0
	movq	(%rax), %rcx
	.loc	49 63 54
	movq	16(%rax), %rdx
	leaq	-400(%rbp), %rdi
	movq	%rdi, -1176(%rbp)
	.loc	49 63 28
	callq	__ZN3rug5float3big5Float11mul_add_ref17h441b33f53367b063E
	movq	-1176(%rbp), %rsi
	movq	-1096(%rbp), %rax
	.loc	49 63 106
	movq	32(%rax), %rax
	movl	(%rax), %edx
	leaq	-432(%rbp), %rdi
	.loc	49 63 28
	callq	__ZN3rug3ops13CompleteRound8complete17hf62218875bfb9f80E
	movq	-1096(%rbp), %rax
	.loc	49 63 8
	movq	(%rax), %rdi
Ltmp918:
	callq	__ZN4core3ptr43drop_in_place$LT$rug..float..big..Float$GT$17he0bd4893918cadc0E
Ltmp919:
	jmp	LBB131_19
Ltmp948:
LBB131_17:
	.loc	49 0 8
	movq	-1096(%rbp), %rax
	.loc	49 63 8
	movq	(%rax), %rax
	movq	-432(%rbp), %rcx
	movq	%rcx, (%rax)
	movq	-424(%rbp), %rcx
	movq	%rcx, 8(%rax)
	movq	-416(%rbp), %rcx
	movq	%rcx, 16(%rax)
	movq	-408(%rbp), %rcx
	movq	%rcx, 24(%rax)
	jmp	LBB131_2
Ltmp949:
LBB131_18:
Ltmp920:
	.loc	49 0 8
	movq	%rax, %rcx
	movl	%edx, %eax
	movq	%rcx, -48(%rbp)
	movl	%eax, -40(%rbp)
	jmp	LBB131_17
Ltmp950:
LBB131_19:
	movq	-1096(%rbp), %rax
	.loc	49 63 8
	movq	(%rax), %rax
	movq	-432(%rbp), %rcx
	movq	%rcx, (%rax)
	movq	-424(%rbp), %rcx
	movq	%rcx, 8(%rax)
	movq	-416(%rbp), %rcx
	movq	%rcx, 16(%rax)
	movq	-408(%rbp), %rcx
	movq	%rcx, 24(%rax)
	.loc	49 62 7 is_stmt 1
	jmp	LBB131_15
Ltmp951:
LBB131_20:
	.loc	49 68 36
	leaq	-288(%rbp), %rdi
	callq	__ZN4core3ptr45drop_in_place$LT$egui..response..Response$GT$17h3aed4bdacfc12ea4E
	movb	-1161(%rbp), %al
	.loc	49 68 10 is_stmt 0
	testb	$1, %al
	jne	LBB131_22
Ltmp952:
LBB131_21:
	.loc	49 0 10
	movq	-1088(%rbp), %rsi
	.loc	49 71 7 is_stmt 1
	leaq	-144(%rbp), %rdi
	leaq	l___unnamed_18(%rip), %rdx
	xorl	%eax, %eax
	movl	%eax, %ecx
	callq	__ZN4egui2ui2Ui5label17h9e5ec2106e7322e8E
	.loc	49 71 19 is_stmt 0
	leaq	-144(%rbp), %rdi
	callq	__ZN4core3ptr45drop_in_place$LT$egui..response..Response$GT$17h3aed4bdacfc12ea4E
	.loc	49 72 7 is_stmt 1
	addq	$1184, %rsp
	popq	%rbp
	retq
Ltmp953:
LBB131_22:
	.loc	49 0 7 is_stmt 0
	movq	-1096(%rbp), %rax
	.loc	49 69 28 is_stmt 1
	movq	40(%rax), %rsi
	.loc	49 69 77 is_stmt 0
	movq	8(%rax), %rcx
	.loc	49 69 54
	movq	24(%rax), %rdx
	leaq	-168(%rbp), %rdi
	movq	%rdi, -1184(%rbp)
	.loc	49 69 28
	callq	__ZN3rug5float3big5Float11mul_add_ref17h441b33f53367b063E
	movq	-1184(%rbp), %rsi
	movq	-1096(%rbp), %rax
	.loc	49 69 106
	movq	32(%rax), %rax
	movl	(%rax), %edx
	leaq	-200(%rbp), %rdi
	.loc	49 69 28
	callq	__ZN3rug3ops13CompleteRound8complete17hf62218875bfb9f80E
	movq	-1096(%rbp), %rax
	.loc	49 69 8
	movq	8(%rax), %rdi
Ltmp921:
	callq	__ZN4core3ptr43drop_in_place$LT$rug..float..big..Float$GT$17he0bd4893918cadc0E
Ltmp922:
	jmp	LBB131_25
Ltmp954:
LBB131_23:
	.loc	49 0 8
	movq	-1096(%rbp), %rax
	.loc	49 69 8
	movq	8(%rax), %rax
	movq	-200(%rbp), %rcx
	movq	%rcx, (%rax)
	movq	-192(%rbp), %rcx
	movq	%rcx, 8(%rax)
	movq	-184(%rbp), %rcx
	movq	%rcx, 16(%rax)
	movq	-176(%rbp), %rcx
	movq	%rcx, 24(%rax)
	jmp	LBB131_2
Ltmp955:
LBB131_24:
Ltmp923:
	.loc	49 0 8
	movq	%rax, %rcx
	movl	%edx, %eax
	movq	%rcx, -48(%rbp)
	movl	%eax, -40(%rbp)
	jmp	LBB131_23
Ltmp956:
LBB131_25:
	movq	-1096(%rbp), %rax
	.loc	49 69 8
	movq	8(%rax), %rax
	movq	-200(%rbp), %rcx
	movq	%rcx, (%rax)
	movq	-192(%rbp), %rcx
	movq	%rcx, 8(%rax)
	movq	-184(%rbp), %rcx
	movq	%rcx, 16(%rax)
	movq	-176(%rbp), %rcx
	movq	%rcx, 24(%rax)
	.loc	49 68 7 is_stmt 1
	jmp	LBB131_21
Ltmp957:
Lfunc_end131:
	.cfi_endproc
	.section	__TEXT,__gcc_except_tab
	.p2align	2
GCC_except_table131:
Lexception26:
	.byte	255
	.byte	255
	.byte	1
	.uleb128 Lcst_end26-Lcst_begin26
Lcst_begin26:
	.uleb128 Lfunc_begin131-Lfunc_begin131
	.uleb128 Ltmp912-Lfunc_begin131
	.byte	0
	.byte	0
	.uleb128 Ltmp912-Lfunc_begin131
	.uleb128 Ltmp913-Ltmp912
	.uleb128 Ltmp914-Lfunc_begin131
	.byte	0
	.uleb128 Ltmp913-Lfunc_begin131
	.uleb128 Ltmp915-Ltmp913
	.byte	0
	.byte	0
	.uleb128 Ltmp915-Lfunc_begin131
	.uleb128 Ltmp916-Ltmp915
	.uleb128 Ltmp917-Lfunc_begin131
	.byte	0
	.uleb128 Ltmp916-Lfunc_begin131
	.uleb128 Ltmp918-Ltmp916
	.byte	0
	.byte	0
	.uleb128 Ltmp918-Lfunc_begin131
	.uleb128 Ltmp919-Ltmp918
	.uleb128 Ltmp920-Lfunc_begin131
	.byte	0
	.uleb128 Ltmp919-Lfunc_begin131
	.uleb128 Ltmp921-Ltmp919
	.byte	0
	.byte	0
	.uleb128 Ltmp921-Lfunc_begin131
	.uleb128 Ltmp922-Ltmp921
	.uleb128 Ltmp923-Lfunc_begin131
	.byte	0
Lcst_end26:
	.p2align	2

	.section	__TEXT,__literal8,8byte_literals
	.p2align	3
LCPI132_0:
	.quad	0x3ff4000000000000
LCPI132_1:
	.quad	0x3fe999999999999a
	.section	__TEXT,__text,regular,pure_instructions
	.p2align	4, 0x90
__ZN45_$LT$gui..App$u20$as$u20$eframe..epi..App$GT$6update28_$u7b$$u7b$closure$u7d$$u7d$28_$u7b$$u7b$closure$u7d$$u7d$28_$u7b$$u7b$closure$u7d$$u7d$28_$u7b$$u7b$closure$u7d$$u7d$17hb251556d449225f9E:
Lfunc_begin132:
	.loc	49 74 0
	.cfi_startproc
	pushq	%rbp
	.cfi_def_cfa_offset 16
	.cfi_offset %rbp, -16
	movq	%rsp, %rbp
	.cfi_def_cfa_register %rbp
	subq	$1088, %rsp
	movq	%rdi, -1008(%rbp)
Ltmp958:
	movq	%rsi, -1000(%rbp)
Ltmp959:
	movq	%rsi, -104(%rbp)
Ltmp960:
	.loc	49 75 10 prologue_end
	leaq	-984(%rbp), %rdi
Ltmp961:
	leaq	l___unnamed_38(%rip), %rdx
	movl	$13, %ecx
	callq	__ZN4egui2ui2Ui6button17h27bb526c7bbeb4ecE
	leaq	-984(%rbp), %rax
	movq	%rax, -8(%rbp)
Ltmp962:
	.loc	50 133 9
	movb	-919(%rbp), %al
	movb	%al, -985(%rbp)
Ltmp963:
	.loc	49 75 45
	leaq	-984(%rbp), %rdi
	callq	__ZN4core3ptr45drop_in_place$LT$egui..response..Response$GT$17h3aed4bdacfc12ea4E
	movb	-985(%rbp), %al
	.loc	49 75 10 is_stmt 0
	testb	$1, %al
	jne	LBB132_3
Ltmp964:
LBB132_2:
	.loc	49 0 10
	movq	-1000(%rbp), %rsi
	.loc	49 78 10 is_stmt 1
	leaq	-896(%rbp), %rdi
	leaq	l___unnamed_39(%rip), %rdx
	movl	$13, %ecx
	callq	__ZN4egui2ui2Ui6button17h27bb526c7bbeb4ecE
	leaq	-896(%rbp), %rax
	movq	%rax, -16(%rbp)
Ltmp965:
	.loc	50 133 9
	movb	-831(%rbp), %al
	movb	%al, -1009(%rbp)
	.loc	50 134 6
	jmp	LBB132_4
Ltmp966:
LBB132_3:
	.loc	50 0 6 is_stmt 0
	movq	-1008(%rbp), %rax
	.loc	49 76 8 is_stmt 1
	movq	(%rax), %rdi
	movsd	LCPI132_0(%rip), %xmm0
	callq	__ZN10mandelbrot10Parameters5scale17he15c3f5dc15b43abE
	jmp	LBB132_2
Ltmp967:
LBB132_4:
	.loc	49 78 45
	leaq	-896(%rbp), %rdi
	callq	__ZN4core3ptr45drop_in_place$LT$egui..response..Response$GT$17h3aed4bdacfc12ea4E
	movb	-1009(%rbp), %al
	.loc	49 78 10 is_stmt 0
	testb	$1, %al
	jne	LBB132_6
Ltmp968:
LBB132_5:
	.loc	49 0 10
	movq	-1000(%rbp), %rdi
	.loc	49 81 7 is_stmt 1
	callq	__ZN4egui2ui2Ui7end_row17h0c56538109d3e91aE
	movq	-1000(%rbp), %rsi
	.loc	49 83 10
	leaq	-808(%rbp), %rdi
	leaq	L___unnamed_40(%rip), %rdx
	movl	$16, %ecx
	callq	__ZN4egui2ui2Ui6button17h27bb526c7bbeb4ecE
	leaq	-808(%rbp), %rax
	movq	%rax, -24(%rbp)
Ltmp969:
	.loc	50 133 9
	movb	-743(%rbp), %al
	movb	%al, -1010(%rbp)
	.loc	50 134 6
	jmp	LBB132_7
Ltmp970:
LBB132_6:
	.loc	50 0 6 is_stmt 0
	movq	-1008(%rbp), %rax
	.loc	49 79 8 is_stmt 1
	movq	(%rax), %rdi
	movsd	LCPI132_1(%rip), %xmm0
	callq	__ZN10mandelbrot10Parameters5scale17he15c3f5dc15b43abE
	jmp	LBB132_5
Ltmp971:
LBB132_7:
	.loc	49 83 48
	leaq	-808(%rbp), %rdi
	callq	__ZN4core3ptr45drop_in_place$LT$egui..response..Response$GT$17h3aed4bdacfc12ea4E
	movb	-1010(%rbp), %al
	.loc	49 83 10 is_stmt 0
	testb	$1, %al
	jne	LBB132_9
Ltmp972:
LBB132_8:
	.loc	49 0 10
	movq	-1000(%rbp), %rsi
	.loc	49 86 10 is_stmt 1
	leaq	-720(%rbp), %rdi
	leaq	L___unnamed_41(%rip), %rdx
	movl	$16, %ecx
	callq	__ZN4egui2ui2Ui6button17h27bb526c7bbeb4ecE
	leaq	-720(%rbp), %rax
	movq	%rax, -32(%rbp)
Ltmp973:
	.loc	50 133 9
	movb	-655(%rbp), %al
	movb	%al, -1011(%rbp)
	.loc	50 134 6
	jmp	LBB132_12
Ltmp974:
LBB132_9:
	.loc	50 0 6 is_stmt 0
	movq	-1008(%rbp), %rax
	.loc	49 84 8 is_stmt 1
	movq	(%rax), %rax
	movq	160(%rax), %rax
	addq	$10, %rax
	movq	%rax, -1024(%rbp)
	setb	%al
	testb	$1, %al
	jne	LBB132_11
Ltmp975:
	.loc	49 0 8 is_stmt 0
	movq	-1024(%rbp), %rcx
	movq	-1008(%rbp), %rax
	.loc	49 84 8
	movq	(%rax), %rax
	movq	%rcx, 160(%rax)
	.loc	49 83 7 is_stmt 1
	jmp	LBB132_8
Ltmp976:
LBB132_11:
	.loc	49 84 8
	leaq	_str.0(%rip), %rdi
	leaq	l___unnamed_42(%rip), %rdx
	movl	$28, %esi
	callq	__ZN4core9panicking5panic17hc1bc45270cf64b03E
Ltmp977:
LBB132_12:
	.loc	49 86 48
	leaq	-720(%rbp), %rdi
	callq	__ZN4core3ptr45drop_in_place$LT$egui..response..Response$GT$17h3aed4bdacfc12ea4E
	movb	-1011(%rbp), %al
	.loc	49 86 10 is_stmt 0
	testb	$1, %al
	jne	LBB132_14
Ltmp978:
LBB132_13:
	.loc	49 0 10
	movq	-1000(%rbp), %rdi
	.loc	49 89 7 is_stmt 1
	callq	__ZN4egui2ui2Ui7end_row17h0c56538109d3e91aE
	movq	-1000(%rbp), %rsi
	.loc	49 91 10
	leaq	-632(%rbp), %rdi
	leaq	l___unnamed_43(%rip), %rdx
	movl	$14, %ecx
	callq	__ZN4egui2ui2Ui6button17h27bb526c7bbeb4ecE
	leaq	-632(%rbp), %rax
	movq	%rax, -40(%rbp)
Ltmp979:
	.loc	50 133 9
	movb	-567(%rbp), %al
	movb	%al, -1025(%rbp)
	.loc	50 134 6
	jmp	LBB132_17
Ltmp980:
LBB132_14:
	.loc	50 0 6 is_stmt 0
	movq	-1008(%rbp), %rax
	.loc	49 87 8 is_stmt 1
	movq	(%rax), %rax
	movq	160(%rax), %rax
	movq	%rax, %rcx
	subq	$10, %rcx
	movq	%rcx, -1040(%rbp)
	cmpq	$10, %rax
	setb	%al
	testb	$1, %al
	jne	LBB132_16
Ltmp981:
	.loc	49 0 8 is_stmt 0
	movq	-1040(%rbp), %rcx
	movq	-1008(%rbp), %rax
	.loc	49 87 8
	movq	(%rax), %rax
	movq	%rcx, 160(%rax)
	.loc	49 86 7 is_stmt 1
	jmp	LBB132_13
Ltmp982:
LBB132_16:
	.loc	49 87 8
	leaq	_str.1(%rip), %rdi
	leaq	l___unnamed_44(%rip), %rdx
	movl	$33, %esi
	callq	__ZN4core9panicking5panic17hc1bc45270cf64b03E
Ltmp983:
LBB132_17:
	.loc	49 91 46
	leaq	-632(%rbp), %rdi
	callq	__ZN4core3ptr45drop_in_place$LT$egui..response..Response$GT$17h3aed4bdacfc12ea4E
	movb	-1025(%rbp), %al
	.loc	49 91 10 is_stmt 0
	testb	$1, %al
	jne	LBB132_19
Ltmp984:
LBB132_18:
	.loc	49 0 10
	movq	-1000(%rbp), %rsi
	.loc	49 94 10 is_stmt 1
	leaq	-544(%rbp), %rdi
	leaq	l___unnamed_45(%rip), %rdx
	movl	$14, %ecx
	callq	__ZN4egui2ui2Ui6button17h27bb526c7bbeb4ecE
	leaq	-544(%rbp), %rax
	movq	%rax, -48(%rbp)
Ltmp985:
	.loc	50 133 9
	movb	-479(%rbp), %al
	movb	%al, -1041(%rbp)
	.loc	50 134 6
	jmp	LBB132_22
Ltmp986:
LBB132_19:
	.loc	50 0 6 is_stmt 0
	movq	-1008(%rbp), %rax
	.loc	49 92 8 is_stmt 1
	movq	8(%rax), %rax
	movq	(%rax), %rax
	addq	$10, %rax
	movq	%rax, -1056(%rbp)
	seto	%al
	testb	$1, %al
	jne	LBB132_21
Ltmp987:
	.loc	49 0 8 is_stmt 0
	movq	-1056(%rbp), %rcx
	movq	-1008(%rbp), %rax
	.loc	49 92 8
	movq	8(%rax), %rax
	movq	%rcx, (%rax)
	.loc	49 91 7 is_stmt 1
	jmp	LBB132_18
Ltmp988:
LBB132_21:
	.loc	49 92 8
	leaq	_str.0(%rip), %rdi
	leaq	l___unnamed_46(%rip), %rdx
	movl	$28, %esi
	callq	__ZN4core9panicking5panic17hc1bc45270cf64b03E
Ltmp989:
LBB132_22:
	.loc	49 94 46
	leaq	-544(%rbp), %rdi
	callq	__ZN4core3ptr45drop_in_place$LT$egui..response..Response$GT$17h3aed4bdacfc12ea4E
	movb	-1041(%rbp), %al
	.loc	49 94 10 is_stmt 0
	testb	$1, %al
	jne	LBB132_24
Ltmp990:
LBB132_23:
	.loc	49 0 10
	movq	-1000(%rbp), %rdi
	.loc	49 97 7 is_stmt 1
	callq	__ZN4egui2ui2Ui7end_row17h0c56538109d3e91aE
	movq	-1000(%rbp), %rsi
	.loc	49 99 10
	leaq	-456(%rbp), %rdi
	leaq	l___unnamed_47(%rip), %rdx
	movl	$20, %ecx
	callq	__ZN4egui2ui2Ui6button17h27bb526c7bbeb4ecE
	leaq	-456(%rbp), %rax
	movq	%rax, -56(%rbp)
Ltmp991:
	.loc	50 133 9
	movb	-391(%rbp), %al
	movb	%al, -1057(%rbp)
	.loc	50 134 6
	jmp	LBB132_27
Ltmp992:
LBB132_24:
	.loc	50 0 6 is_stmt 0
	movq	-1008(%rbp), %rax
	.loc	49 95 8 is_stmt 1
	movq	8(%rax), %rax
	movq	(%rax), %rax
	subq	$10, %rax
	movq	%rax, -1072(%rbp)
	seto	%al
	testb	$1, %al
	jne	LBB132_26
Ltmp993:
	.loc	49 0 8 is_stmt 0
	movq	-1072(%rbp), %rcx
	movq	-1008(%rbp), %rax
	.loc	49 95 8
	movq	8(%rax), %rax
	movq	%rcx, (%rax)
	.loc	49 94 7 is_stmt 1
	jmp	LBB132_23
Ltmp994:
LBB132_26:
	.loc	49 95 8
	leaq	_str.1(%rip), %rdi
	leaq	l___unnamed_48(%rip), %rdx
	movl	$33, %esi
	callq	__ZN4core9panicking5panic17hc1bc45270cf64b03E
Ltmp995:
LBB132_27:
	.loc	49 99 52
	leaq	-456(%rbp), %rdi
	callq	__ZN4core3ptr45drop_in_place$LT$egui..response..Response$GT$17h3aed4bdacfc12ea4E
	movb	-1057(%rbp), %al
	.loc	49 99 10 is_stmt 0
	testb	$1, %al
	jne	LBB132_29
Ltmp996:
LBB132_28:
	.loc	49 0 10
	movq	-1000(%rbp), %rsi
	.loc	49 102 10 is_stmt 1
	leaq	-368(%rbp), %rdi
	leaq	l___unnamed_49(%rip), %rdx
	movl	$20, %ecx
	callq	__ZN4egui2ui2Ui6button17h27bb526c7bbeb4ecE
	leaq	-368(%rbp), %rax
	movq	%rax, -64(%rbp)
Ltmp997:
	.loc	50 133 9
	movb	-303(%rbp), %al
	movb	%al, -1073(%rbp)
	.loc	50 134 6
	jmp	LBB132_30
Ltmp998:
LBB132_29:
	.loc	50 0 6 is_stmt 0
	movq	-1008(%rbp), %rax
	.loc	49 100 8 is_stmt 1
	movq	(%rax), %rdi
	movsd	LCPI132_0(%rip), %xmm0
	callq	__ZN3rug5float5arith91_$LT$impl$u20$core..ops..arith..MulAssign$LT$f64$GT$$u20$for$u20$rug..float..big..Float$GT$10mul_assign17h706ea271ae97c29bE
	jmp	LBB132_28
Ltmp999:
LBB132_30:
	.loc	49 102 52
	leaq	-368(%rbp), %rdi
	callq	__ZN4core3ptr45drop_in_place$LT$egui..response..Response$GT$17h3aed4bdacfc12ea4E
	movb	-1073(%rbp), %al
	.loc	49 102 10 is_stmt 0
	testb	$1, %al
	jne	LBB132_32
Ltmp1000:
LBB132_31:
	.loc	49 0 10
	movq	-1000(%rbp), %rdi
	.loc	49 105 7 is_stmt 1
	callq	__ZN4egui2ui2Ui7end_row17h0c56538109d3e91aE
	movq	-1000(%rbp), %rsi
	.loc	49 107 10
	leaq	-280(%rbp), %rdi
	leaq	l___unnamed_50(%rip), %rdx
	movl	$17, %ecx
	callq	__ZN4egui2ui2Ui6button17h27bb526c7bbeb4ecE
	leaq	-280(%rbp), %rax
	movq	%rax, -72(%rbp)
Ltmp1001:
	.loc	50 133 9
	movb	-215(%rbp), %al
	movb	%al, -1074(%rbp)
	.loc	50 134 6
	jmp	LBB132_33
Ltmp1002:
LBB132_32:
	.loc	50 0 6 is_stmt 0
	movq	-1008(%rbp), %rax
	.loc	49 103 8 is_stmt 1
	movq	(%rax), %rdi
	movsd	LCPI132_1(%rip), %xmm0
	callq	__ZN3rug5float5arith91_$LT$impl$u20$core..ops..arith..MulAssign$LT$f64$GT$$u20$for$u20$rug..float..big..Float$GT$10mul_assign17h706ea271ae97c29bE
	jmp	LBB132_31
Ltmp1003:
LBB132_33:
	.loc	49 107 49
	leaq	-280(%rbp), %rdi
	callq	__ZN4core3ptr45drop_in_place$LT$egui..response..Response$GT$17h3aed4bdacfc12ea4E
	movb	-1074(%rbp), %al
	.loc	49 107 10 is_stmt 0
	testb	$1, %al
	jne	LBB132_35
Ltmp1004:
LBB132_34:
	.loc	49 0 10
	movq	-1000(%rbp), %rsi
	.loc	49 111 10 is_stmt 1
	leaq	-192(%rbp), %rdi
	leaq	l___unnamed_51(%rip), %rdx
	movl	$17, %ecx
	callq	__ZN4egui2ui2Ui6button17h27bb526c7bbeb4ecE
	leaq	-192(%rbp), %rax
	movq	%rax, -80(%rbp)
Ltmp1005:
	.loc	50 133 9
	movb	-127(%rbp), %al
	movb	%al, -1075(%rbp)
	.loc	50 134 6
	jmp	LBB132_38
Ltmp1006:
LBB132_35:
	.loc	50 0 6 is_stmt 0
	movq	-1008(%rbp), %rax
	.loc	49 108 8 is_stmt 1
	movq	(%rax), %rdi
	movl	$8, %esi
	callq	__ZN10mandelbrot10Parameters16change_precision17hd79319caaba394f6E
	movq	-1008(%rbp), %rax
	.loc	49 109 8
	movq	16(%rax), %rax
	movl	(%rax), %eax
	addl	$8, %eax
	movl	%eax, -1080(%rbp)
	setb	%al
	testb	$1, %al
	jne	LBB132_37
Ltmp1007:
	.loc	49 0 8 is_stmt 0
	movl	-1080(%rbp), %ecx
	movq	-1008(%rbp), %rax
	.loc	49 109 8
	movq	16(%rax), %rax
	movl	%ecx, (%rax)
	.loc	49 107 7 is_stmt 1
	jmp	LBB132_34
Ltmp1008:
LBB132_37:
	.loc	49 109 8
	leaq	_str.0(%rip), %rdi
	leaq	l___unnamed_52(%rip), %rdx
	movl	$28, %esi
	callq	__ZN4core9panicking5panic17hc1bc45270cf64b03E
Ltmp1009:
LBB132_38:
	.loc	49 111 49
	leaq	-192(%rbp), %rdi
	callq	__ZN4core3ptr45drop_in_place$LT$egui..response..Response$GT$17h3aed4bdacfc12ea4E
	movb	-1075(%rbp), %al
	.loc	49 111 10 is_stmt 0
	testb	$1, %al
	jne	LBB132_40
Ltmp1010:
LBB132_39:
	.loc	49 116 7 is_stmt 1
	addq	$1088, %rsp
	popq	%rbp
	retq
Ltmp1011:
LBB132_40:
	.loc	49 0 7 is_stmt 0
	movq	-1008(%rbp), %rax
	.loc	49 112 8 is_stmt 1
	movq	(%rax), %rdi
	movq	$-8, %rsi
	callq	__ZN10mandelbrot10Parameters16change_precision17hd79319caaba394f6E
	movq	-1008(%rbp), %rax
	.loc	49 113 8
	movq	16(%rax), %rax
	movl	(%rax), %eax
	movl	%eax, %ecx
	subl	$8, %ecx
	movl	%ecx, -1084(%rbp)
	cmpl	$8, %eax
	setb	%al
	testb	$1, %al
	jne	LBB132_42
Ltmp1012:
	.loc	49 0 8 is_stmt 0
	movl	-1084(%rbp), %ecx
	movq	-1008(%rbp), %rax
	.loc	49 113 8
	movq	16(%rax), %rax
	movl	%ecx, (%rax)
	.loc	49 111 7 is_stmt 1
	jmp	LBB132_39
Ltmp1013:
LBB132_42:
	.loc	49 113 8
	leaq	_str.1(%rip), %rdi
	leaq	l___unnamed_53(%rip), %rdx
	movl	$33, %esi
	callq	__ZN4core9panicking5panic17hc1bc45270cf64b03E
Ltmp1014:
Lfunc_end132:
	.cfi_endproc

	.p2align	4, 0x90
__ZN45_$LT$gui..App$u20$as$u20$eframe..epi..App$GT$6update28_$u7b$$u7b$closure$u7d$$u7d$28_$u7b$$u7b$closure$u7d$$u7d$28_$u7b$$u7b$closure$u7d$$u7d$17hf6e1574d02f23affE:
Lfunc_begin133:
	.loc	49 120 0
	.cfi_startproc
	pushq	%rbp
	.cfi_def_cfa_offset 16
	.cfi_offset %rbp, -16
	movq	%rsp, %rbp
	.cfi_def_cfa_register %rbp
	subq	$1040, %rsp
	movq	%rdi, -1016(%rbp)
	movq	%rsi, -1008(%rbp)
Ltmp1015:
	movq	%rsi, -32(%rbp)
Ltmp1016:
	.loc	49 121 15 prologue_end
	movq	8(%rdi), %rdi
	callq	__ZN4core3fmt10ArgumentV111new_display17he44e504b6c31c3f1E
	movq	-1016(%rbp), %rdi
	movq	%rax, -1032(%rbp)
	movq	%rdx, -1024(%rbp)
	movq	16(%rdi), %rdi
	callq	__ZN4core3fmt10ArgumentV111new_display17he44e504b6c31c3f1E
	movq	-1032(%rbp), %rsi
	movq	-1024(%rbp), %rcx
	movq	%rsi, -808(%rbp)
	movq	%rcx, -800(%rbp)
	movq	%rax, -792(%rbp)
	movq	%rdx, -784(%rbp)
	leaq	-856(%rbp), %rdi
	leaq	l___unnamed_54(%rip), %rsi
	movl	$2, %r8d
	leaq	-808(%rbp), %rcx
	movq	%r8, %rdx
	callq	__ZN4core3fmt9Arguments6new_v117h5ba09674631e6281E
	leaq	-880(%rbp), %rdi
	leaq	-856(%rbp), %rsi
	callq	__ZN5alloc3fmt6format17ha017f9069fb6dd05E
	movq	-1008(%rbp), %rsi
Ltmp1017:
	.loc	49 121 15 is_stmt 0
	movq	-880(%rbp), %rax
	movq	%rax, -904(%rbp)
	movq	-872(%rbp), %rax
	movq	%rax, -896(%rbp)
	movq	-864(%rbp), %rax
	movq	%rax, -888(%rbp)
Ltmp1018:
	.loc	49 121 6
	leaq	-992(%rbp), %rdi
	leaq	-904(%rbp), %rdx
	callq	__ZN4egui2ui2Ui5label17h206b8d1c03cdfc98E
	.loc	49 121 83
	leaq	-992(%rbp), %rdi
	callq	__ZN4core3ptr45drop_in_place$LT$egui..response..Response$GT$17h3aed4bdacfc12ea4E
	movq	-1016(%rbp), %rdi
	.loc	49 122 15 is_stmt 1
	movq	(%rdi), %rdi
	callq	__ZN4core3fmt10ArgumentV111new_display17he44e504b6c31c3f1E
	movq	%rax, -592(%rbp)
	movq	%rdx, -584(%rbp)
	leaq	-640(%rbp), %rdi
	leaq	l___unnamed_55(%rip), %rsi
	movl	$1, %r8d
	leaq	-592(%rbp), %rcx
	movq	%r8, %rdx
	callq	__ZN4core3fmt9Arguments6new_v117h5ba09674631e6281E
	leaq	-664(%rbp), %rdi
	leaq	-640(%rbp), %rsi
	callq	__ZN5alloc3fmt6format17ha017f9069fb6dd05E
	movq	-1008(%rbp), %rsi
Ltmp1019:
	.loc	49 122 15 is_stmt 0
	movq	-664(%rbp), %rax
	movq	%rax, -688(%rbp)
	movq	-656(%rbp), %rax
	movq	%rax, -680(%rbp)
	movq	-648(%rbp), %rax
	movq	%rax, -672(%rbp)
Ltmp1020:
	.loc	49 122 6
	leaq	-776(%rbp), %rdi
	leaq	-688(%rbp), %rdx
	callq	__ZN4egui2ui2Ui5label17h206b8d1c03cdfc98E
	.loc	49 122 53
	leaq	-776(%rbp), %rdi
	callq	__ZN4core3ptr45drop_in_place$LT$egui..response..Response$GT$17h3aed4bdacfc12ea4E
	movq	-1016(%rbp), %rdi
	.loc	49 123 15 is_stmt 1
	movq	24(%rdi), %rdi
	callq	__ZN4core3fmt10ArgumentV111new_display17h4553d5da4ff6c971E
	movq	%rax, -392(%rbp)
	movq	%rdx, -384(%rbp)
	leaq	-440(%rbp), %rdi
	leaq	l___unnamed_56(%rip), %rsi
	movl	$1, %r8d
	leaq	-392(%rbp), %rcx
	movq	%r8, %rdx
	callq	__ZN4core3fmt9Arguments6new_v117h5ba09674631e6281E
	leaq	-464(%rbp), %rdi
	leaq	-440(%rbp), %rsi
	callq	__ZN5alloc3fmt6format17ha017f9069fb6dd05E
	movq	-1008(%rbp), %rsi
Ltmp1021:
	.loc	49 123 15 is_stmt 0
	movq	-464(%rbp), %rax
	movq	%rax, -488(%rbp)
	movq	-456(%rbp), %rax
	movq	%rax, -480(%rbp)
	movq	-448(%rbp), %rax
	movq	%rax, -472(%rbp)
Ltmp1022:
	.loc	49 123 6
	leaq	-576(%rbp), %rdi
	leaq	-488(%rbp), %rdx
	callq	__ZN4egui2ui2Ui5label17h206b8d1c03cdfc98E
	.loc	49 123 59
	leaq	-576(%rbp), %rdi
	callq	__ZN4core3ptr45drop_in_place$LT$egui..response..Response$GT$17h3aed4bdacfc12ea4E
	movq	-1008(%rbp), %rsi
	.loc	49 125 9 is_stmt 1
	leaq	-376(%rbp), %rdi
	leaq	l___unnamed_57(%rip), %rdx
	movl	$25, %ecx
	callq	__ZN4egui2ui2Ui6button17h27bb526c7bbeb4ecE
	leaq	-376(%rbp), %rax
	movq	%rax, -8(%rbp)
Ltmp1023:
	.loc	50 133 9
	movb	-311(%rbp), %al
	movb	%al, -993(%rbp)
Ltmp1024:
	.loc	49 125 56
	leaq	-376(%rbp), %rdi
	callq	__ZN4core3ptr45drop_in_place$LT$egui..response..Response$GT$17h3aed4bdacfc12ea4E
	movb	-993(%rbp), %al
	.loc	49 125 9 is_stmt 0
	testb	$1, %al
	jne	LBB133_3
Ltmp1025:
LBB133_2:
	.loc	49 131 6 is_stmt 1
	addq	$1040, %rsp
	popq	%rbp
	retq
Ltmp1026:
LBB133_3:
	.loc	49 0 6 is_stmt 0
	movq	-1016(%rbp), %rax
	.loc	49 126 7 is_stmt 1
	movq	8(%rax), %rdi
	callq	__ZN4core3fmt10ArgumentV111new_display17he44e504b6c31c3f1E
	movq	%rax, -240(%rbp)
	movq	%rdx, -232(%rbp)
	leaq	-288(%rbp), %rdi
	leaq	l___unnamed_58(%rip), %rsi
	movl	$2, %edx
	leaq	-240(%rbp), %rcx
	movl	$1, %r8d
	callq	__ZN4core3fmt9Arguments6new_v117h5ba09674631e6281E
	leaq	-288(%rbp), %rdi
	callq	__ZN3std2io5stdio6_print17ha0d536e53b83a5ccE
	movq	-1016(%rbp), %rax
	.loc	49 127 7
	movq	16(%rax), %rdi
	callq	__ZN4core3fmt10ArgumentV111new_display17he44e504b6c31c3f1E
	movq	%rax, -176(%rbp)
	movq	%rdx, -168(%rbp)
	leaq	-224(%rbp), %rdi
	leaq	l___unnamed_59(%rip), %rsi
	movl	$2, %edx
	leaq	-176(%rbp), %rcx
	movl	$1, %r8d
	callq	__ZN4core3fmt9Arguments6new_v117h5ba09674631e6281E
	leaq	-224(%rbp), %rdi
	callq	__ZN3std2io5stdio6_print17ha0d536e53b83a5ccE
	movq	-1016(%rbp), %rax
	.loc	49 128 7
	movq	(%rax), %rdi
	callq	__ZN4core3fmt10ArgumentV111new_display17he44e504b6c31c3f1E
	movq	%rax, -112(%rbp)
	movq	%rdx, -104(%rbp)
	leaq	-160(%rbp), %rdi
	leaq	l___unnamed_60(%rip), %rsi
	movl	$2, %edx
	leaq	-112(%rbp), %rcx
	movl	$1, %r8d
	callq	__ZN4core3fmt9Arguments6new_v117h5ba09674631e6281E
	leaq	-160(%rbp), %rdi
	callq	__ZN3std2io5stdio6_print17ha0d536e53b83a5ccE
	movq	-1016(%rbp), %rax
	.loc	49 129 7
	movq	32(%rax), %rdi
	callq	__ZN4core3fmt10ArgumentV111new_display17h0fe82e2e3493ebf2E
	movq	%rax, -48(%rbp)
	movq	%rdx, -40(%rbp)
	leaq	-96(%rbp), %rdi
	leaq	l___unnamed_61(%rip), %rsi
	movl	$2, %edx
	leaq	-48(%rbp), %rcx
	movl	$1, %r8d
	callq	__ZN4core3fmt9Arguments6new_v117h5ba09674631e6281E
	leaq	-96(%rbp), %rdi
	callq	__ZN3std2io5stdio6_print17ha0d536e53b83a5ccE
	jmp	LBB133_2
Ltmp1027:
Lfunc_end133:
	.cfi_endproc

	.p2align	4, 0x90
__ZN3gui10render_int17h562563a6cdb26a5eE:
Lfunc_begin134:
	.loc	49 148 0
	.cfi_startproc
	.cfi_personality 155, _rust_eh_personality
	.cfi_lsda 16, Lexception27
	pushq	%rbp
	.cfi_def_cfa_offset 16
	.cfi_offset %rbp, -16
	movq	%rsp, %rbp
	.cfi_def_cfa_register %rbp
	subq	$496, %rsp
	movq	%r8, -320(%rbp)
	movq	%rcx, -312(%rbp)
	movq	%rdx, -304(%rbp)
	movq	%rsi, -296(%rbp)
Ltmp1083:
	movq	%rdi, -288(%rbp)
	movq	%rdi, -280(%rbp)
Ltmp1084:
	movq	%rdx, -80(%rbp)
	movq	%rcx, -72(%rbp)
	movq	%r8, -64(%rbp)
Ltmp1085:
	.loc	49 149 14 prologue_end
	movq	(%rsi), %rax
	movq	%rax, -272(%rbp)
	movq	%rax, -56(%rbp)
Ltmp1086:
	.loc	49 150 15
	movq	8(%rsi), %rax
	movq	%rax, -264(%rbp)
	movq	%rax, -48(%rbp)
Ltmp1087:
	.loc	49 152 49
	movq	(%rsi), %rax
	.loc	49 152 48 is_stmt 0
	addq	$1, %rax
	movq	%rax, -256(%rbp)
	setb	%al
	testb	$1, %al
Ltmp1088:
	jne	LBB134_2
Ltmp1089:
	.loc	49 0 48
	movq	-256(%rbp), %rax
	.loc	49 152 44
	movl	$4, %ecx
	mulq	%rcx
	movq	%rax, -328(%rbp)
	seto	%al
	testb	$1, %al
	jne	LBB134_7
	jmp	LBB134_6
Ltmp1090:
LBB134_2:
Ltmp1077:
	.loc	49 152 48
	leaq	_str.0(%rip), %rdi
	leaq	l___unnamed_62(%rip), %rdx
	movl	$28, %esi
	callq	__ZN4core9panicking5panic17hc1bc45270cf64b03E
Ltmp1078:
	jmp	LBB134_5
Ltmp1091:
LBB134_3:
Ltmp1080:
	.loc	49 0 48
	movq	-296(%rbp), %rdi
	.loc	49 169 1 is_stmt 1
	callq	__ZN4core3ptr40drop_in_place$LT$mandelbrot..Storage$GT$17h6212041e3a326f2aE
Ltmp1081:
	jmp	LBB134_43
Ltmp1092:
LBB134_4:
Ltmp1079:
	.loc	49 0 1 is_stmt 0
	movq	%rax, %rcx
	movl	%edx, %eax
	movq	%rcx, -40(%rbp)
	movl	%eax, -32(%rbp)
	jmp	LBB134_3
Ltmp1093:
LBB134_5:
	ud2
Ltmp1094:
LBB134_6:
	movq	-296(%rbp), %rax
Ltmp1095:
	.loc	49 152 68 is_stmt 1
	movq	8(%rax), %rax
	.loc	49 152 67 is_stmt 0
	addq	$1, %rax
	movq	%rax, -336(%rbp)
	setb	%al
	testb	$1, %al
	jne	LBB134_9
	jmp	LBB134_8
Ltmp1096:
LBB134_7:
Ltmp1075:
	.loc	49 152 44
	leaq	_str.2(%rip), %rdi
	leaq	l___unnamed_63(%rip), %rdx
	movl	$33, %esi
	callq	__ZN4core9panicking5panic17hc1bc45270cf64b03E
Ltmp1076:
	jmp	LBB134_5
Ltmp1097:
LBB134_8:
	.loc	49 0 44
	movq	-336(%rbp), %rcx
	movq	-328(%rbp), %rax
	.loc	49 152 44
	mulq	%rcx
	movq	%rax, -344(%rbp)
	seto	%al
	testb	$1, %al
	jne	LBB134_11
	jmp	LBB134_10
Ltmp1098:
LBB134_9:
Ltmp1073:
	.loc	49 152 67
	leaq	_str.0(%rip), %rdi
	leaq	l___unnamed_64(%rip), %rdx
	movl	$28, %esi
	callq	__ZN4core9panicking5panic17hc1bc45270cf64b03E
Ltmp1074:
	jmp	LBB134_5
Ltmp1099:
LBB134_10:
Ltmp1028:
	.loc	49 0 67
	movq	-344(%rbp), %rsi
	leaq	-248(%rbp), %rdi
	.loc	49 152 25
	callq	__ZN5alloc3vec12Vec$LT$T$GT$13with_capacity17h8861cc98d45034b1E
Ltmp1029:
	jmp	LBB134_12
Ltmp1100:
LBB134_11:
Ltmp1071:
	.loc	49 152 44
	leaq	_str.2(%rip), %rdi
	leaq	l___unnamed_63(%rip), %rdx
	movl	$33, %esi
	callq	__ZN4core9panicking5panic17hc1bc45270cf64b03E
Ltmp1072:
	jmp	LBB134_5
Ltmp1101:
LBB134_12:
Ltmp1030:
	.loc	49 0 44
	movq	-320(%rbp), %rsi
	movq	-312(%rbp), %rdi
Ltmp1102:
	.loc	49 154 12 is_stmt 1
	callq	__ZN4core5slice29_$LT$impl$u20$$u5b$T$u5d$$GT$3len17hd1166b6e0547ba89E
Ltmp1031:
	movq	%rax, -352(%rbp)
	jmp	LBB134_15
Ltmp1103:
LBB134_13:
Ltmp1069:
	.loc	49 0 12 is_stmt 0
	leaq	-248(%rbp), %rdi
	.loc	49 169 1 is_stmt 1
	callq	__ZN4core3ptr46drop_in_place$LT$alloc..vec..Vec$LT$u8$GT$$GT$17hb356054604c443a0E
Ltmp1070:
	jmp	LBB134_3
Ltmp1104:
LBB134_14:
Ltmp1068:
	.loc	49 0 1 is_stmt 0
	movq	%rax, %rcx
	movl	%edx, %eax
	movq	%rcx, -40(%rbp)
	movl	%eax, -32(%rbp)
	jmp	LBB134_13
Ltmp1105:
LBB134_15:
	movq	-352(%rbp), %rax
Ltmp1106:
	.loc	49 154 12 is_stmt 1
	decq	%rax
	movq	%rax, -360(%rbp)
	seto	%al
	testb	$1, %al
	jne	LBB134_17
Ltmp1107:
	.loc	49 0 12 is_stmt 0
	movq	-272(%rbp), %rax
	movq	-360(%rbp), %rcx
	.loc	49 154 12
	movq	%rcx, -24(%rbp)
Ltmp1108:
	.loc	49 156 11 is_stmt 1
	movq	$0, -224(%rbp)
	movq	%rax, -216(%rbp)
	movq	-224(%rbp), %rdi
	movq	-216(%rbp), %rsi
Ltmp1032:
	callq	__ZN63_$LT$I$u20$as$u20$core..iter..traits..collect..IntoIterator$GT$9into_iter17hcd02363d0288a484E
Ltmp1033:
	movq	%rdx, -376(%rbp)
	movq	%rax, -368(%rbp)
	jmp	LBB134_18
Ltmp1109:
LBB134_17:
Ltmp1066:
	.loc	49 154 12
	leaq	_str.1(%rip), %rdi
	leaq	l___unnamed_65(%rip), %rdx
	movl	$33, %esi
	callq	__ZN4core9panicking5panic17hc1bc45270cf64b03E
Ltmp1067:
	jmp	LBB134_5
Ltmp1110:
LBB134_18:
	.loc	49 0 12 is_stmt 0
	movq	-376(%rbp), %rax
	movq	-368(%rbp), %rcx
Ltmp1111:
	.loc	49 156 11 is_stmt 1
	movq	%rcx, -208(%rbp)
	movq	%rax, -200(%rbp)
Ltmp1112:
LBB134_19:
Ltmp1034:
	.loc	49 0 11 is_stmt 0
	leaq	-208(%rbp), %rdi
Ltmp1113:
	.loc	49 156 11
	callq	__ZN4core4iter5range101_$LT$impl$u20$core..iter..traits..iterator..Iterator$u20$for$u20$core..ops..range..Range$LT$A$GT$$GT$4next17h9cdbd81401b9c075E
Ltmp1035:
	movq	%rdx, -392(%rbp)
	movq	%rax, -384(%rbp)
	jmp	LBB134_20
Ltmp1114:
LBB134_20:
	.loc	49 0 11
	movq	-392(%rbp), %rax
	movq	-384(%rbp), %rcx
	.loc	49 156 11
	movq	%rcx, -192(%rbp)
	movq	%rax, -184(%rbp)
	cmpq	$0, -192(%rbp)
	jne	LBB134_22
Ltmp1115:
	.loc	49 0 11
	movq	-264(%rbp), %rax
	movq	-272(%rbp), %rcx
	.loc	49 168 43 is_stmt 1
	movq	%rcx, -96(%rbp)
	movq	%rax, -88(%rbp)
Ltmp1060:
	leaq	-248(%rbp), %rdi
	.loc	49 168 78 is_stmt 0
	callq	__ZN72_$LT$alloc..vec..Vec$LT$T$C$A$GT$$u20$as$u20$core..ops..deref..Deref$GT$5deref17ha195b773218a2aacE
Ltmp1061:
	movq	%rdx, -408(%rbp)
	movq	%rax, -400(%rbp)
	jmp	LBB134_39
Ltmp1116:
LBB134_22:
	.loc	49 0 78
	movq	-264(%rbp), %rax
Ltmp1117:
	.loc	49 156 6 is_stmt 1
	movq	-184(%rbp), %rcx
	movq	%rcx, -432(%rbp)
	movq	%rcx, -16(%rbp)
Ltmp1118:
	.loc	49 157 12
	movq	$0, -176(%rbp)
	movq	%rax, -168(%rbp)
	movq	-176(%rbp), %rdi
	movq	-168(%rbp), %rsi
Ltmp1036:
	callq	__ZN63_$LT$I$u20$as$u20$core..iter..traits..collect..IntoIterator$GT$9into_iter17hcd02363d0288a484E
Ltmp1037:
	movq	%rdx, -424(%rbp)
	movq	%rax, -416(%rbp)
	jmp	LBB134_23
Ltmp1119:
LBB134_23:
	.loc	49 0 12 is_stmt 0
	movq	-424(%rbp), %rax
	movq	-416(%rbp), %rcx
	.loc	49 157 12
	movq	%rcx, -160(%rbp)
	movq	%rax, -152(%rbp)
Ltmp1120:
LBB134_24:
Ltmp1038:
	.loc	49 0 12
	leaq	-160(%rbp), %rdi
Ltmp1121:
	.loc	49 157 12
	callq	__ZN4core4iter5range101_$LT$impl$u20$core..iter..traits..iterator..Iterator$u20$for$u20$core..ops..range..Range$LT$A$GT$$GT$4next17h9cdbd81401b9c075E
Ltmp1039:
	movq	%rdx, -448(%rbp)
	movq	%rax, -440(%rbp)
	jmp	LBB134_25
Ltmp1122:
LBB134_25:
	.loc	49 0 12
	movq	-448(%rbp), %rax
	movq	-440(%rbp), %rcx
	.loc	49 157 12
	movq	%rcx, -144(%rbp)
	movq	%rax, -136(%rbp)
	cmpq	$0, -144(%rbp)
	je	LBB134_19
Ltmp1123:
	.loc	49 0 12
	movq	-432(%rbp), %rdx
	movq	-296(%rbp), %rsi
	.loc	49 157 7
	movq	-136(%rbp), %rcx
	movq	%rcx, -8(%rbp)
Ltmp1040:
	leaq	-120(%rbp), %rdi
Ltmp1124:
	.loc	49 158 20 is_stmt 1
	callq	__ZN10mandelbrot7Storage9get_value17h9add21e6df84cb6dE
Ltmp1041:
	jmp	LBB134_27
Ltmp1125:
LBB134_27:
Ltmp1042:
	leaq	l___unnamed_66(%rip), %rsi
	leaq	-120(%rbp), %rdi
	callq	__ZN4core6result19Result$LT$T$C$E$GT$6unwrap17h6a3c1c8a1f45dffaE
Ltmp1043:
	movq	%rax, -456(%rbp)
	jmp	LBB134_28
Ltmp1126:
LBB134_28:
	.loc	49 0 20 is_stmt 0
	movq	-304(%rbp), %rcx
	movq	-456(%rbp), %rax
	.loc	49 158 20
	movq	%rax, -128(%rbp)
Ltmp1127:
	.loc	49 159 4 is_stmt 1
	movq	-128(%rbp), %rax
	subq	%rcx, %rax
	movq	%rax, -464(%rbp)
	seto	%al
	testb	$1, %al
	jne	LBB134_30
Ltmp1128:
	.loc	49 0 4 is_stmt 0
	movq	-360(%rbp), %rdi
	movq	-464(%rbp), %rax
	.loc	49 159 4
	movq	%rax, -128(%rbp)
	.loc	49 160 28 is_stmt 1
	movq	-128(%rbp), %rsi
Ltmp1044:
	.loc	49 160 19 is_stmt 0
	callq	__ZN4core3cmp3min17h19fb138f84b6889fE
Ltmp1045:
	movq	%rax, -472(%rbp)
	jmp	LBB134_31
Ltmp1129:
LBB134_30:
Ltmp1058:
	.loc	49 159 4 is_stmt 1
	leaq	_str.1(%rip), %rdi
	leaq	l___unnamed_67(%rip), %rdx
	movl	$33, %esi
	callq	__ZN4core9panicking5panic17hc1bc45270cf64b03E
Ltmp1059:
	jmp	LBB134_5
Ltmp1130:
LBB134_31:
Ltmp1046:
	.loc	49 0 4 is_stmt 0
	movq	-472(%rbp), %rsi
	xorl	%eax, %eax
	movl	%eax, %edi
	.loc	49 160 12 is_stmt 1
	callq	__ZN4core3cmp3max17h37f51bc949f970d3E
Ltmp1047:
	movq	%rax, -480(%rbp)
	jmp	LBB134_32
Ltmp1131:
LBB134_32:
	.loc	49 0 12 is_stmt 0
	movq	-320(%rbp), %rcx
	movq	-480(%rbp), %rax
	.loc	49 160 4
	movq	%rax, -128(%rbp)
	.loc	49 161 21 is_stmt 1
	movq	-128(%rbp), %rax
	movq	%rax, -488(%rbp)
	.loc	49 161 17 is_stmt 0
	cmpq	%rcx, %rax
	setb	%al
	testb	$1, %al
	jne	LBB134_33
	jmp	LBB134_34
Ltmp1132:
LBB134_33:
	.loc	49 0 17
	movq	-312(%rbp), %rax
	movq	-488(%rbp), %rcx
	.loc	49 161 17
	leaq	(%rcx,%rcx,2), %rcx
	movb	2(%rax,%rcx), %dl
	movb	%dl, -102(%rbp)
	movw	(%rax,%rcx), %ax
	movw	%ax, -104(%rbp)
Ltmp1133:
	.loc	49 162 4 is_stmt 1
	movzbl	-104(%rbp), %esi
Ltmp1050:
	leaq	-248(%rbp), %rdi
	callq	__ZN5alloc3vec16Vec$LT$T$C$A$GT$4push17h59b243908b579849E
Ltmp1051:
	jmp	LBB134_35
Ltmp1134:
LBB134_34:
Ltmp1048:
	.loc	49 0 4 is_stmt 0
	movq	-320(%rbp), %rsi
	movq	-488(%rbp), %rdi
	.loc	49 161 17 is_stmt 1
	leaq	l___unnamed_68(%rip), %rdx
	callq	__ZN4core9panicking18panic_bounds_check17hacb8a94866cda541E
Ltmp1049:
	jmp	LBB134_5
Ltmp1135:
LBB134_35:
	.loc	49 163 4
	movzbl	-103(%rbp), %esi
Ltmp1052:
	leaq	-248(%rbp), %rdi
	callq	__ZN5alloc3vec16Vec$LT$T$C$A$GT$4push17h59b243908b579849E
Ltmp1053:
	jmp	LBB134_36
Ltmp1136:
LBB134_36:
	.loc	49 164 4
	movzbl	-102(%rbp), %esi
Ltmp1054:
	leaq	-248(%rbp), %rdi
	callq	__ZN5alloc3vec16Vec$LT$T$C$A$GT$4push17h59b243908b579849E
Ltmp1055:
	jmp	LBB134_37
Ltmp1137:
LBB134_37:
Ltmp1056:
	.loc	49 0 4 is_stmt 0
	leaq	-248(%rbp), %rdi
	movl	$255, %esi
	.loc	49 165 4 is_stmt 1
	callq	__ZN5alloc3vec16Vec$LT$T$C$A$GT$4push17h59b243908b579849E
Ltmp1057:
	jmp	LBB134_38
Ltmp1138:
LBB134_38:
	jmp	LBB134_24
Ltmp1139:
LBB134_39:
Ltmp1062:
	.loc	49 0 4 is_stmt 0
	movq	-408(%rbp), %rcx
	movq	-400(%rbp), %rdx
	movq	-288(%rbp), %rdi
	leaq	-96(%rbp), %rsi
	.loc	49 168 2 is_stmt 1
	callq	__ZN6epaint5image10ColorImage22from_rgba_unmultiplied17hcb8d16409b56e4ccE
Ltmp1063:
	jmp	LBB134_40
Ltmp1140:
LBB134_40:
Ltmp1064:
	.loc	49 0 2 is_stmt 0
	leaq	-248(%rbp), %rdi
	.loc	49 169 1 is_stmt 1
	callq	__ZN4core3ptr46drop_in_place$LT$alloc..vec..Vec$LT$u8$GT$$GT$17hb356054604c443a0E
Ltmp1065:
	jmp	LBB134_42
Ltmp1141:
LBB134_41:
Ltmp1082:
	.loc	49 148 1
	callq	__ZN4core9panicking19panic_cannot_unwind17h1fbca7e1d7f56ae1E
Ltmp1142:
LBB134_42:
	.loc	49 0 1 is_stmt 0
	movq	-296(%rbp), %rdi
	.loc	49 169 1 is_stmt 1
	callq	__ZN4core3ptr40drop_in_place$LT$mandelbrot..Storage$GT$17h6212041e3a326f2aE
	movq	-280(%rbp), %rax
	.loc	49 169 2 is_stmt 0
	addq	$496, %rsp
	popq	%rbp
	retq
Ltmp1143:
LBB134_43:
	.loc	49 148 1 is_stmt 1
	movq	-40(%rbp), %rdi
	callq	__Unwind_Resume
Ltmp1144:
Lfunc_end134:
	.cfi_endproc
	.section	__TEXT,__gcc_except_tab
	.p2align	2
GCC_except_table134:
Lexception27:
	.byte	255
	.byte	255
	.byte	1
	.uleb128 Lcst_end27-Lcst_begin27
Lcst_begin27:
	.uleb128 Ltmp1077-Lfunc_begin134
	.uleb128 Ltmp1078-Ltmp1077
	.uleb128 Ltmp1079-Lfunc_begin134
	.byte	0
	.uleb128 Ltmp1080-Lfunc_begin134
	.uleb128 Ltmp1081-Ltmp1080
	.uleb128 Ltmp1082-Lfunc_begin134
	.byte	0
	.uleb128 Ltmp1075-Lfunc_begin134
	.uleb128 Ltmp1072-Ltmp1075
	.uleb128 Ltmp1079-Lfunc_begin134
	.byte	0
	.uleb128 Ltmp1030-Lfunc_begin134
	.uleb128 Ltmp1031-Ltmp1030
	.uleb128 Ltmp1068-Lfunc_begin134
	.byte	0
	.uleb128 Ltmp1069-Lfunc_begin134
	.uleb128 Ltmp1070-Ltmp1069
	.uleb128 Ltmp1082-Lfunc_begin134
	.byte	0
	.uleb128 Ltmp1032-Lfunc_begin134
	.uleb128 Ltmp1063-Ltmp1032
	.uleb128 Ltmp1068-Lfunc_begin134
	.byte	0
	.uleb128 Ltmp1064-Lfunc_begin134
	.uleb128 Ltmp1065-Ltmp1064
	.uleb128 Ltmp1079-Lfunc_begin134
	.byte	0
	.uleb128 Ltmp1065-Lfunc_begin134
	.uleb128 Lfunc_end134-Ltmp1065
	.byte	0
	.byte	0
Lcst_end27:
	.p2align	2

	.section	__TEXT,__text,regular,pure_instructions
	.globl	_main
	.p2align	4, 0x90
_main:
Lfunc_begin135:
	.cfi_startproc
	pushq	%rbp
	.cfi_def_cfa_offset 16
	.cfi_offset %rbp, -16
	movq	%rsp, %rbp
	.cfi_def_cfa_register %rbp
	movq	%rsi, %rdx
	movslq	%edi, %rsi
	leaq	__ZN3gui4main17he0386441809290efE(%rip), %rdi
	xorl	%ecx, %ecx
	callq	__ZN3std2rt10lang_start17hf3ac1af40a9018e4E
	popq	%rbp
	retq
Lfunc_end135:
	.cfi_endproc

	.section	__TEXT,__literal8,8byte_literals
L___unnamed_12:
	.ascii	"overflow"

	.section	__TEXT,__literal4,4byte_literals
	.p2align	2
L___unnamed_15:
	.space	4

	.section	__TEXT,__const
l___unnamed_69:
	.ascii	"precision out of range"

	.section	__DATA,__const
	.p2align	3
l___unnamed_17:
	.quad	l___unnamed_69
	.asciz	"\026\000\000\000\000\000\000"

	.section	__TEXT,__const
	.p2align	3
l___unnamed_18:
	.byte	0

l___unnamed_70:
	.ascii	"/Users/natalie/.cargo/registry/src/github.com-1ecc6299db9ec823/rug-1.19.0/src/float/big.rs"

	.section	__DATA,__const
	.p2align	3
l___unnamed_19:
	.quad	l___unnamed_70
	.asciz	"Z\000\000\000\000\000\000\000\177\001\000\000\t\000\000"

	.p2align	3
l___unnamed_16:
	.quad	l___unnamed_70
	.asciz	"Z\000\000\000\000\000\000\000\204\001\000\000-\000\000"

	.p2align	3
l___unnamed_71:
	.quad	l___unnamed_70
	.asciz	"Z\000\000\000\000\000\000\000\206\001\000\000\026\000\000"

	.section	__TEXT,__literal8,8byte_literals
	.p2align	3
L___unnamed_13:
	.asciz	"\b\000\000\000\000\000\000"

	.section	__TEXT,__const
l___unnamed_72:
	.ascii	"/Users/natalie/.cargo/registry/src/github.com-1ecc6299db9ec823/rug-1.19.0/src/macros.rs"

	.section	__DATA,__const
	.p2align	3
l___unnamed_14:
	.quad	l___unnamed_72
	.asciz	"W\000\000\000\000\000\000\000\364\t\000\000\t\000\000"

	.p2align	3
l___unnamed_1:
	.quad	__ZN4core3ptr85drop_in_place$LT$std..rt..lang_start$LT$$LP$$RP$$GT$..$u7b$$u7b$closure$u7d$$u7d$$GT$17hf24ff5c385ad8e15E
	.asciz	"\b\000\000\000\000\000\000\000\b\000\000\000\000\000\000"
	.quad	__ZN4core3ops8function6FnOnce40call_once$u7b$$u7b$vtable.shim$u7d$$u7d$17h6de455e89ea58eabE
	.quad	__ZN3std2rt10lang_start28_$u7b$$u7b$closure$u7d$$u7d$17h3181597bbda9c2f7E
	.quad	__ZN3std2rt10lang_start28_$u7b$$u7b$closure$u7d$$u7d$17h3181597bbda9c2f7E

	.section	__TEXT,__const
l___unnamed_73:
	.ascii	"invalid args"

	.section	__DATA,__const
	.p2align	3
l___unnamed_20:
	.quad	l___unnamed_73
	.asciz	"\f\000\000\000\000\000\000"

	.section	__TEXT,__const
l___unnamed_74:
	.ascii	"/rustc/2c8cc343237b8f7d5a3c3703e3a87f2eb2c54a74/library/core/src/fmt/mod.rs"

	.section	__DATA,__const
	.p2align	3
l___unnamed_21:
	.quad	l___unnamed_74
	.asciz	"K\000\000\000\000\000\000\000\221\001\000\000\r\000\000"

	.section	__TEXT,__const
l___unnamed_75:
	.ascii	"overflow in Duration::new"

	.section	__DATA,__const
	.p2align	3
l___unnamed_22:
	.quad	l___unnamed_75
	.asciz	"\031\000\000\000\000\000\000"

	.section	__TEXT,__const
l___unnamed_76:
	.ascii	"/rustc/2c8cc343237b8f7d5a3c3703e3a87f2eb2c54a74/library/core/src/time.rs"

	.section	__DATA,__const
	.p2align	3
l___unnamed_23:
	.quad	l___unnamed_76
	.asciz	"H\000\000\000\000\000\000\000\312\000\000\000\025\000\000"

	.section	__TEXT,__const
l___unnamed_24:
	.ascii	"called `Result::unwrap()` on an `Err` value"

	.section	__DATA,__const
	.p2align	3
l___unnamed_2:
	.quad	__ZN4core3ptr28drop_in_place$LT$$RF$str$GT$17h15ce14a641de7ea7E
	.asciz	"\020\000\000\000\000\000\000\000\b\000\000\000\000\000\000"
	.quad	__ZN42_$LT$$RF$T$u20$as$u20$core..fmt..Debug$GT$3fmt17hb270fdf436bfcf72E

	.p2align	3
l___unnamed_3:
	.quad	__ZN4core3ptr120drop_in_place$LT$egui..containers..panel..CentralPanel..show_inside_dyn$LT$$LP$$RP$$GT$..$u7b$$u7b$closure$u7d$$u7d$$GT$17hb618a9df200dbc34E
	.asciz	"\020\000\000\000\000\000\000\000\b\000\000\000\000\000\000"
	.quad	__ZN4core3ops8function6FnOnce40call_once$u7b$$u7b$vtable.shim$u7d$$u7d$17hd19edc799d2810d2E

	.p2align	3
l___unnamed_4:
	.quad	__ZN4core3ptr102drop_in_place$LT$$LT$gui..App$u20$as$u20$eframe..epi..App$GT$..update..$u7b$$u7b$closure$u7d$$u7d$$GT$17hc5499ddad6e27c5fE
	.asciz	"(\000\000\000\000\000\000\000\b\000\000\000\000\000\000"
	.quad	__ZN4core3ops8function6FnOnce40call_once$u7b$$u7b$vtable.shim$u7d$$u7d$17h42783ff1dfbe279bE

	.section	__TEXT,__const
l___unnamed_25:
	.ascii	"central_panel"

	.section	__DATA,__const
	.p2align	3
l___unnamed_5:
	.quad	__ZN4core3ptr131drop_in_place$LT$$LT$gui..App$u20$as$u20$eframe..epi..App$GT$..update..$u7b$$u7b$closure$u7d$$u7d$..$u7b$$u7b$closure$u7d$$u7d$$GT$17h27e750032ba54235E
	.asciz	"\030\000\000\000\000\000\000\000\b\000\000\000\000\000\000"
	.quad	__ZN4core3ops8function6FnOnce40call_once$u7b$$u7b$vtable.shim$u7d$$u7d$17hed2530b3a7fc8f0cE

	.p2align	3
l___unnamed_6:
	.quad	__ZN4core3ptr160drop_in_place$LT$$LT$gui..App$u20$as$u20$eframe..epi..App$GT$..update..$u7b$$u7b$closure$u7d$$u7d$..$u7b$$u7b$closure$u7d$$u7d$..$u7b$$u7b$closure$u7d$$u7d$$GT$17ha78053b1009e6948E
	.asciz	"\030\000\000\000\000\000\000\000\b\000\000\000\000\000\000"
	.quad	__ZN4core3ops8function6FnOnce40call_once$u7b$$u7b$vtable.shim$u7d$$u7d$17hda5efbf83334cf31E

	.p2align	3
l___unnamed_7:
	.quad	__ZN4core3ptr160drop_in_place$LT$$LT$gui..App$u20$as$u20$eframe..epi..App$GT$..update..$u7b$$u7b$closure$u7d$$u7d$..$u7b$$u7b$closure$u7d$$u7d$..$u7b$$u7b$closure$u7d$$u7d$$GT$17h7d590de0446be5bdE
	.asciz	"(\000\000\000\000\000\000\000\b\000\000\000\000\000\000"
	.quad	__ZN4core3ops8function6FnOnce40call_once$u7b$$u7b$vtable.shim$u7d$$u7d$17h36cbf90824310b11E

	.p2align	3
l___unnamed_8:
	.quad	__ZN4core3ptr189drop_in_place$LT$$LT$gui..App$u20$as$u20$eframe..epi..App$GT$..update..$u7b$$u7b$closure$u7d$$u7d$..$u7b$$u7b$closure$u7d$$u7d$..$u7b$$u7b$closure$u7d$$u7d$..$u7b$$u7b$closure$u7d$$u7d$$GT$17hf2724b51c087378cE
	.asciz	"\030\000\000\000\000\000\000\000\b\000\000\000\000\000\000"
	.quad	__ZN4core3ops8function6FnOnce40call_once$u7b$$u7b$vtable.shim$u7d$$u7d$17h1a70d8cc83769a57E

	.p2align	3
l___unnamed_9:
	.quad	__ZN4core3ptr189drop_in_place$LT$$LT$gui..App$u20$as$u20$eframe..epi..App$GT$..update..$u7b$$u7b$closure$u7d$$u7d$..$u7b$$u7b$closure$u7d$$u7d$..$u7b$$u7b$closure$u7d$$u7d$..$u7b$$u7b$closure$u7d$$u7d$$GT$17ha079cf9a1e7770d3E
	.asciz	"0\000\000\000\000\000\000\000\b\000\000\000\000\000\000"
	.quad	__ZN4core3ops8function6FnOnce40call_once$u7b$$u7b$vtable.shim$u7d$$u7d$17h9f535d9c51465941E

	.section	__TEXT,__literal8,8byte_literals
	.p2align	2
L___unnamed_26:
	.ascii	"\000\000\200\177\000\000\200\177"

	.section	__TEXT,__const
l___unnamed_27:
	.space	1

l___unnamed_28:
	.ascii	"My egui App"

	.section	__DATA,__const
	.p2align	3
l___unnamed_10:
	.quad	__ZN4core3ptr59drop_in_place$LT$gui..main..$u7b$$u7b$closure$u7d$$u7d$$GT$17h0f7aee722413f8aaE
	.asciz	"\000\000\000\000\000\000\000\000\001\000\000\000\000\000\000"
	.quad	__ZN4core3ops8function6FnOnce40call_once$u7b$$u7b$vtable.shim$u7d$$u7d$17h2c332fde61cd2386E

	.p2align	3
l___unnamed_11:
	.quad	__ZN4core3ptr29drop_in_place$LT$gui..App$GT$17h87a3aafd622d0fdfE
	.asciz	"\330\000\000\000\000\000\000\000\b\000\000\000\000\000\000"
	.quad	__ZN45_$LT$gui..App$u20$as$u20$eframe..epi..App$GT$6update17h1608aed6e42bf9bfE
	.quad	__ZN6eframe3epi3App4save17h9c910ac19b0d8122E
	.quad	__ZN6eframe3epi3App14on_close_event17h439e31333da606eeE
	.quad	__ZN6eframe3epi3App7on_exit17h1591461e41b2ff7aE
	.quad	__ZN6eframe3epi3App18auto_save_interval17hf18671f202ac3583E
	.quad	__ZN6eframe3epi3App15max_size_points17h5763ed1cde49575dE
	.quad	__ZN6eframe3epi3App11clear_color17h37fd7540da81a550E
	.quad	__ZN6eframe3epi3App21persist_native_window17h823a71ebd80c1bceE
	.quad	__ZN6eframe3epi3App19persist_egui_memory17h2e7b63a23c80fe95E
	.quad	__ZN6eframe3epi3App15warm_up_enabled17h26eaf53c11957877E
	.quad	__ZN6eframe3epi3App14post_rendering17h0ec747290d059d09E

	.section	__TEXT,__literal4,4byte_literals
L___unnamed_29:
	.ascii	"text"

	.section	__TEXT,__const
l___unnamed_77:
	.ascii	"total time elapsed: "

l___unnamed_78:
	.byte	10

	.section	__DATA,__const
	.p2align	3
l___unnamed_30:
	.quad	l___unnamed_77
	.asciz	"\024\000\000\000\000\000\000"
	.quad	l___unnamed_78
	.asciz	"\001\000\000\000\000\000\000"

	.section	__TEXT,__const
l___unnamed_79:
	.ascii	", "

	.section	__DATA,__const
	.p2align	3
l___unnamed_31:
	.quad	l___unnamed_18
	.space	8
	.quad	l___unnamed_79
	.asciz	"\002\000\000\000\000\000\000"
	.quad	l___unnamed_79
	.asciz	"\002\000\000\000\000\000\000"
	.quad	l___unnamed_78
	.asciz	"\001\000\000\000\000\000\000"

	.section	__TEXT,__literal8,8byte_literals
L___unnamed_32:
	.ascii	"movement"

	.section	__TEXT,__const
l___unnamed_33:
	.ascii	"other controls"

l___unnamed_34:
	.ascii	"up"

	.section	__TEXT,__literal4,4byte_literals
L___unnamed_35:
	.ascii	"left"

	.section	__TEXT,__const
l___unnamed_36:
	.ascii	"right"

	.section	__TEXT,__literal4,4byte_literals
L___unnamed_37:
	.ascii	"down"

	.section	__TEXT,__const
l___unnamed_38:
	.ascii	"increase zoom"

l___unnamed_39:
	.ascii	"decrease zoom"

	.section	__TEXT,__literal16,16byte_literals
L___unnamed_40:
	.ascii	"increase quality"

	.section	__TEXT,__const
l___unnamed_80:
	.ascii	"src/main.rs"

	.section	__DATA,__const
	.p2align	3
l___unnamed_42:
	.quad	l___unnamed_80
	.asciz	"\013\000\000\000\000\000\000\000T\000\000\000\035\000\000"

	.section	__TEXT,__const
	.p2align	4
_str.0:
	.ascii	"attempt to add with overflow"

	.section	__TEXT,__literal16,16byte_literals
L___unnamed_41:
	.ascii	"decrease quality"

	.section	__DATA,__const
	.p2align	3
l___unnamed_44:
	.quad	l___unnamed_80
	.asciz	"\013\000\000\000\000\000\000\000W\000\000\000\035\000\000"

	.section	__TEXT,__const
	.p2align	4
_str.1:
	.ascii	"attempt to subtract with overflow"

l___unnamed_43:
	.ascii	"increase gamma"

	.section	__DATA,__const
	.p2align	3
l___unnamed_46:
	.quad	l___unnamed_80
	.asciz	"\013\000\000\000\000\000\000\000\\\000\000\000\035\000\000"

	.section	__TEXT,__const
l___unnamed_45:
	.ascii	"decrease gamma"

	.section	__DATA,__const
	.p2align	3
l___unnamed_48:
	.quad	l___unnamed_80
	.asciz	"\013\000\000\000\000\000\000\000_\000\000\000\035\000\000"

	.section	__TEXT,__const
l___unnamed_47:
	.ascii	"increase window size"

l___unnamed_49:
	.ascii	"decrease window size"

l___unnamed_50:
	.ascii	"increase accuracy"

	.section	__DATA,__const
	.p2align	3
l___unnamed_52:
	.quad	l___unnamed_80
	.asciz	"\013\000\000\000\000\000\000\000m\000\000\000\035\000\000"

	.section	__TEXT,__const
l___unnamed_51:
	.ascii	"decrease accuracy"

	.section	__DATA,__const
	.p2align	3
l___unnamed_53:
	.quad	l___unnamed_80
	.asciz	"\013\000\000\000\000\000\000\000q\000\000\000\035\000\000"

	.section	__TEXT,__const
l___unnamed_81:
	.ascii	"real: "

	.section	__TEXT,__literal8,8byte_literals
L___unnamed_82:
	.ascii	", imag: "

	.section	__DATA,__const
	.p2align	3
l___unnamed_54:
	.quad	l___unnamed_81
	.asciz	"\006\000\000\000\000\000\000"
	.quad	L___unnamed_82
	.asciz	"\b\000\000\000\000\000\000"

	.section	__TEXT,__const
l___unnamed_83:
	.ascii	"zoom: "

	.section	__DATA,__const
	.p2align	3
l___unnamed_55:
	.quad	l___unnamed_83
	.asciz	"\006\000\000\000\000\000\000"

	.section	__TEXT,__const
l___unnamed_84:
	.ascii	"quality: "

	.section	__DATA,__const
	.p2align	3
l___unnamed_56:
	.quad	l___unnamed_84
	.asciz	"\t\000\000\000\000\000\000"

	.section	__TEXT,__const
l___unnamed_57:
	.ascii	"output at full resolution"

l___unnamed_85:
	.ascii	"low x: "

	.section	__DATA,__const
	.p2align	3
l___unnamed_58:
	.quad	l___unnamed_85
	.asciz	"\007\000\000\000\000\000\000"
	.quad	l___unnamed_78
	.asciz	"\001\000\000\000\000\000\000"

	.section	__TEXT,__const
l___unnamed_86:
	.ascii	"low y: "

	.section	__DATA,__const
	.p2align	3
l___unnamed_59:
	.quad	l___unnamed_86
	.asciz	"\007\000\000\000\000\000\000"
	.quad	l___unnamed_78
	.asciz	"\001\000\000\000\000\000\000"

	.p2align	3
l___unnamed_60:
	.quad	l___unnamed_83
	.asciz	"\006\000\000\000\000\000\000"
	.quad	l___unnamed_78
	.asciz	"\001\000\000\000\000\000\000"

	.section	__TEXT,__const
l___unnamed_87:
	.ascii	"precision: "

	.section	__DATA,__const
	.p2align	3
l___unnamed_61:
	.quad	l___unnamed_87
	.asciz	"\013\000\000\000\000\000\000"
	.quad	l___unnamed_78
	.asciz	"\001\000\000\000\000\000\000"

	.p2align	3
l___unnamed_62:
	.quad	l___unnamed_80
	.asciz	"\013\000\000\000\000\000\000\000\230\000\000\0003\000\000"

	.p2align	3
l___unnamed_63:
	.quad	l___unnamed_80
	.asciz	"\013\000\000\000\000\000\000\000\230\000\000\000/\000\000"

	.section	__TEXT,__const
	.p2align	4
_str.2:
	.ascii	"attempt to multiply with overflow"

	.section	__DATA,__const
	.p2align	3
l___unnamed_64:
	.quad	l___unnamed_80
	.asciz	"\013\000\000\000\000\000\000\000\230\000\000\000F\000\000"

	.p2align	3
l___unnamed_65:
	.quad	l___unnamed_80
	.asciz	"\013\000\000\000\000\000\000\000\232\000\000\000\017\000\000"

	.p2align	3
l___unnamed_66:
	.quad	l___unnamed_80
	.asciz	"\013\000\000\000\000\000\000\000\236\000\000\0002\000\000"

	.p2align	3
l___unnamed_67:
	.quad	l___unnamed_80
	.asciz	"\013\000\000\000\000\000\000\000\237\000\000\000\r\000\000"

	.p2align	3
l___unnamed_68:
	.quad	l___unnamed_80
	.asciz	"\013\000\000\000\000\000\000\000\241\000\000\000\032\000\000"

	.section	__DATA,__const
Lsec_end0:
	.section	__TEXT,__text,regular,pure_instructions
Lsec_end1: