	.section	__TEXT,__text,regular,pure_instructions
	.macosx_version_min 10, 7
	.globl	__ZN102_$LT$core..iter..adapters..zip..Zip$LT$A$C$B$GT$$u20$as$u20$core..iter..traits..iterator..Iterator$GT$4next17heebb581086034abeE
	.p2align	4, 0x90
__ZN102_$LT$core..iter..adapters..zip..Zip$LT$A$C$B$GT$$u20$as$u20$core..iter..traits..iterator..Iterator$GT$4next17heebb581086034abeE:
Lfunc_begin0:
	.file	1 "/rustc/2c8cc343237b8f7d5a3c3703e3a87f2eb2c54a74/library/core/src/iter/adapters" "zip.rs"
	.loc	1 83 0
	.cfi_startproc
	pushq	%rbp
	.cfi_def_cfa_offset 16
	.cfi_offset %rbp, -16
	movq	%rsp, %rbp
	.cfi_def_cfa_register %rbp
	subq	$16, %rsp
	movq	%rdi, -8(%rbp)
Ltmp0:
	.loc	1 84 9 prologue_end
	callq	__ZN111_$LT$core..iter..adapters..zip..Zip$LT$A$C$B$GT$$u20$as$u20$core..iter..adapters..zip..ZipImpl$LT$A$C$B$GT$$GT$4next17h44273ef8cdd33bddE
	.loc	1 85 6
	addq	$16, %rsp
	popq	%rbp
	retq
Ltmp1:
Lfunc_end0:
	.cfi_endproc

	.globl	__ZN106_$LT$core..ops..range..Range$LT$usize$GT$$u20$as$u20$core..slice..index..SliceIndex$LT$$u5b$T$u5d$$GT$$GT$13get_unchecked17h09a7a349f66b1743E
	.p2align	4, 0x90
__ZN106_$LT$core..ops..range..Range$LT$usize$GT$$u20$as$u20$core..slice..index..SliceIndex$LT$$u5b$T$u5d$$GT$$GT$13get_unchecked17h09a7a349f66b1743E:
Lfunc_begin1:
	.file	2 "/rustc/2c8cc343237b8f7d5a3c3703e3a87f2eb2c54a74/library/core/src/slice" "index.rs"
	.loc	2 373 0
	.cfi_startproc
	pushq	%rbp
	.cfi_def_cfa_offset 16
	.cfi_offset %rbp, -16
	movq	%rsp, %rbp
	.cfi_def_cfa_register %rbp
	subq	$160, %rsp
	movq	%rdi, -128(%rbp)
	movq	%rsi, -120(%rbp)
	movq	%rdx, -112(%rbp)
	movq	%rcx, -104(%rbp)
Ltmp2:
	.loc	2 386 39 prologue_end
	movq	%rdx, -96(%rbp)
	movq	%rcx, -88(%rbp)
Ltmp3:
	.file	3 "/rustc/2c8cc343237b8f7d5a3c3703e3a87f2eb2c54a74/library/core/src/ptr" "const_ptr.rs"
	.loc	3 1650 9
	movq	%rdx, -80(%rbp)
Ltmp4:
	.loc	2 386 58
	movq	%rdi, -72(%rbp)
Ltmp5:
	.loc	3 932 18
	movq	%rdx, -64(%rbp)
	.loc	3 932 30 is_stmt 0
	movq	%rdi, -56(%rbp)
Ltmp6:
	.loc	3 473 18 is_stmt 1
	addq	%rdi, %rdx
	movq	%rdx, -48(%rbp)
	movq	-48(%rbp), %rax
	movq	%rax, -40(%rbp)
Ltmp7:
	.loc	2 386 71
	subq	%rdi, %rsi
	movq	%rsi, -32(%rbp)
Ltmp8:
	.file	4 "/rustc/2c8cc343237b8f7d5a3c3703e3a87f2eb2c54a74/library/core/src/ptr" "mod.rs"
	.loc	4 734 20
	movq	%rax, -24(%rbp)
Ltmp9:
	.loc	3 61 9
	movq	%rax, -16(%rbp)
Ltmp10:
	.loc	4 734 33
	movq	%rsi, -8(%rbp)
Ltmp11:
	.file	5 "/rustc/2c8cc343237b8f7d5a3c3703e3a87f2eb2c54a74/library/core/src/ptr" "metadata.rs"
	.loc	5 118 36
	movq	%rax, -144(%rbp)
	movq	%rsi, -136(%rbp)
	.loc	5 118 14 is_stmt 0
	movq	-144(%rbp), %rcx
	movq	-136(%rbp), %rax
	movq	%rcx, -160(%rbp)
	movq	%rax, -152(%rbp)
	movq	-160(%rbp), %rax
	movq	-152(%rbp), %rdx
Ltmp12:
	.loc	2 388 6 is_stmt 1
	addq	$160, %rsp
	popq	%rbp
	retq
Ltmp13:
Lfunc_end1:
	.cfi_endproc

	.globl	__ZN106_$LT$core..ops..range..Range$LT$usize$GT$$u20$as$u20$core..slice..index..SliceIndex$LT$$u5b$T$u5d$$GT$$GT$13get_unchecked17h3f44504284b864a3E
	.p2align	4, 0x90
__ZN106_$LT$core..ops..range..Range$LT$usize$GT$$u20$as$u20$core..slice..index..SliceIndex$LT$$u5b$T$u5d$$GT$$GT$13get_unchecked17h3f44504284b864a3E:
Lfunc_begin2:
	.loc	2 373 0
	.cfi_startproc
	pushq	%rbp
	.cfi_def_cfa_offset 16
	.cfi_offset %rbp, -16
	movq	%rsp, %rbp
	.cfi_def_cfa_register %rbp
	subq	$160, %rsp
	movq	%rdi, -128(%rbp)
	movq	%rsi, -120(%rbp)
	movq	%rdx, -112(%rbp)
	movq	%rcx, -104(%rbp)
Ltmp14:
	.loc	2 386 39 prologue_end
	movq	%rdx, -96(%rbp)
	movq	%rcx, -88(%rbp)
Ltmp15:
	.loc	3 1650 9
	movq	%rdx, -80(%rbp)
Ltmp16:
	.loc	2 386 58
	movq	%rdi, -72(%rbp)
Ltmp17:
	.loc	3 932 18
	movq	%rdx, -64(%rbp)
	.loc	3 932 30 is_stmt 0
	movq	%rdi, -56(%rbp)
Ltmp18:
	.loc	3 473 18 is_stmt 1
	leaq	(%rdx,%rdi,4), %rax
	movq	%rax, -48(%rbp)
	movq	-48(%rbp), %rax
	movq	%rax, -40(%rbp)
Ltmp19:
	.loc	2 386 71
	subq	%rdi, %rsi
	movq	%rsi, -32(%rbp)
Ltmp20:
	.loc	4 734 20
	movq	%rax, -24(%rbp)
Ltmp21:
	.loc	3 61 9
	movq	%rax, -16(%rbp)
Ltmp22:
	.loc	4 734 33
	movq	%rsi, -8(%rbp)
Ltmp23:
	.loc	5 118 36
	movq	%rax, -144(%rbp)
	movq	%rsi, -136(%rbp)
	.loc	5 118 14 is_stmt 0
	movq	-144(%rbp), %rcx
	movq	-136(%rbp), %rax
	movq	%rcx, -160(%rbp)
	movq	%rax, -152(%rbp)
	movq	-160(%rbp), %rax
	movq	-152(%rbp), %rdx
Ltmp24:
	.loc	2 388 6 is_stmt 1
	addq	$160, %rsp
	popq	%rbp
	retq
Ltmp25:
Lfunc_end2:
	.cfi_endproc

	.globl	__ZN106_$LT$core..ops..range..Range$LT$usize$GT$$u20$as$u20$core..slice..index..SliceIndex$LT$$u5b$T$u5d$$GT$$GT$13get_unchecked17h42a88f92217012a5E
	.p2align	4, 0x90
__ZN106_$LT$core..ops..range..Range$LT$usize$GT$$u20$as$u20$core..slice..index..SliceIndex$LT$$u5b$T$u5d$$GT$$GT$13get_unchecked17h42a88f92217012a5E:
Lfunc_begin3:
	.loc	2 373 0
	.cfi_startproc
	pushq	%rbp
	.cfi_def_cfa_offset 16
	.cfi_offset %rbp, -16
	movq	%rsp, %rbp
	.cfi_def_cfa_register %rbp
	subq	$160, %rsp
	movq	%rdi, -128(%rbp)
	movq	%rsi, -120(%rbp)
	movq	%rdx, -112(%rbp)
	movq	%rcx, -104(%rbp)
Ltmp26:
	.loc	2 386 39 prologue_end
	movq	%rdx, -96(%rbp)
	movq	%rcx, -88(%rbp)
Ltmp27:
	.loc	3 1650 9
	movq	%rdx, -80(%rbp)
Ltmp28:
	.loc	2 386 58
	movq	%rdi, -72(%rbp)
Ltmp29:
	.loc	3 932 18
	movq	%rdx, -64(%rbp)
	.loc	3 932 30 is_stmt 0
	movq	%rdi, -56(%rbp)
Ltmp30:
	.loc	3 473 18 is_stmt 1
	leaq	(%rdx,%rdi,2), %rax
	movq	%rax, -48(%rbp)
	movq	-48(%rbp), %rax
	movq	%rax, -40(%rbp)
Ltmp31:
	.loc	2 386 71
	subq	%rdi, %rsi
	movq	%rsi, -32(%rbp)
Ltmp32:
	.loc	4 734 20
	movq	%rax, -24(%rbp)
Ltmp33:
	.loc	3 61 9
	movq	%rax, -16(%rbp)
Ltmp34:
	.loc	4 734 33
	movq	%rsi, -8(%rbp)
Ltmp35:
	.loc	5 118 36
	movq	%rax, -144(%rbp)
	movq	%rsi, -136(%rbp)
	.loc	5 118 14 is_stmt 0
	movq	-144(%rbp), %rcx
	movq	-136(%rbp), %rax
	movq	%rcx, -160(%rbp)
	movq	%rax, -152(%rbp)
	movq	-160(%rbp), %rax
	movq	-152(%rbp), %rdx
Ltmp36:
	.loc	2 388 6 is_stmt 1
	addq	$160, %rsp
	popq	%rbp
	retq
Ltmp37:
Lfunc_end3:
	.cfi_endproc

	.globl	__ZN106_$LT$core..ops..range..Range$LT$usize$GT$$u20$as$u20$core..slice..index..SliceIndex$LT$$u5b$T$u5d$$GT$$GT$13get_unchecked17h552cd15dc92b79a6E
	.p2align	4, 0x90
__ZN106_$LT$core..ops..range..Range$LT$usize$GT$$u20$as$u20$core..slice..index..SliceIndex$LT$$u5b$T$u5d$$GT$$GT$13get_unchecked17h552cd15dc92b79a6E:
Lfunc_begin4:
	.loc	2 373 0
	.cfi_startproc
	pushq	%rbp
	.cfi_def_cfa_offset 16
	.cfi_offset %rbp, -16
	movq	%rsp, %rbp
	.cfi_def_cfa_register %rbp
	subq	$160, %rsp
	movq	%rdi, -128(%rbp)
	movq	%rsi, -120(%rbp)
	movq	%rdx, -112(%rbp)
	movq	%rcx, -104(%rbp)
Ltmp38:
	.loc	2 386 39 prologue_end
	movq	%rdx, -96(%rbp)
	movq	%rcx, -88(%rbp)
Ltmp39:
	.loc	3 1650 9
	movq	%rdx, -80(%rbp)
Ltmp40:
	.loc	2 386 58
	movq	%rdi, -72(%rbp)
Ltmp41:
	.loc	3 932 18
	movq	%rdx, -64(%rbp)
	.loc	3 932 30 is_stmt 0
	movq	%rdi, -56(%rbp)
Ltmp42:
	.loc	3 473 18 is_stmt 1
	leaq	(%rdx,%rdi,8), %rax
	movq	%rax, -48(%rbp)
	movq	-48(%rbp), %rax
	movq	%rax, -40(%rbp)
Ltmp43:
	.loc	2 386 71
	subq	%rdi, %rsi
	movq	%rsi, -32(%rbp)
Ltmp44:
	.loc	4 734 20
	movq	%rax, -24(%rbp)
Ltmp45:
	.loc	3 61 9
	movq	%rax, -16(%rbp)
Ltmp46:
	.loc	4 734 33
	movq	%rsi, -8(%rbp)
Ltmp47:
	.loc	5 118 36
	movq	%rax, -144(%rbp)
	movq	%rsi, -136(%rbp)
	.loc	5 118 14 is_stmt 0
	movq	-144(%rbp), %rcx
	movq	-136(%rbp), %rax
	movq	%rcx, -160(%rbp)
	movq	%rax, -152(%rbp)
	movq	-160(%rbp), %rax
	movq	-152(%rbp), %rdx
Ltmp48:
	.loc	2 388 6 is_stmt 1
	addq	$160, %rsp
	popq	%rbp
	retq
Ltmp49:
Lfunc_end4:
	.cfi_endproc

	.globl	__ZN106_$LT$core..ops..range..Range$LT$usize$GT$$u20$as$u20$core..slice..index..SliceIndex$LT$$u5b$T$u5d$$GT$$GT$17get_unchecked_mut17h32d12ceb68a30bb2E
	.p2align	4, 0x90
__ZN106_$LT$core..ops..range..Range$LT$usize$GT$$u20$as$u20$core..slice..index..SliceIndex$LT$$u5b$T$u5d$$GT$$GT$17get_unchecked_mut17h32d12ceb68a30bb2E:
Lfunc_begin5:
	.loc	2 391 0
	.cfi_startproc
	pushq	%rbp
	.cfi_def_cfa_offset 16
	.cfi_offset %rbp, -16
	movq	%rsp, %rbp
	.cfi_def_cfa_register %rbp
	subq	$160, %rsp
	movq	%rdi, -128(%rbp)
	movq	%rsi, -120(%rbp)
	movq	%rdx, -112(%rbp)
	movq	%rcx, -104(%rbp)
Ltmp50:
	.loc	2 400 43 prologue_end
	movq	%rdx, -96(%rbp)
	movq	%rcx, -88(%rbp)
Ltmp51:
	.file	6 "/rustc/2c8cc343237b8f7d5a3c3703e3a87f2eb2c54a74/library/core/src/ptr" "mut_ptr.rs"
	.loc	6 2037 9
	movq	%rdx, -80(%rbp)
Ltmp52:
	.loc	2 400 66
	movq	%rdi, -72(%rbp)
Ltmp53:
	.loc	6 1034 18
	movq	%rdx, -64(%rbp)
	.loc	6 1034 30 is_stmt 0
	movq	%rdi, -56(%rbp)
Ltmp54:
	.loc	6 487 18 is_stmt 1
	leaq	(%rdx,%rdi,2), %rax
	movq	%rax, -48(%rbp)
	movq	-48(%rbp), %rax
	movq	%rax, -40(%rbp)
Ltmp55:
	.loc	2 400 79
	subq	%rdi, %rsi
	movq	%rsi, -32(%rbp)
Ltmp56:
	.loc	4 766 24
	movq	%rax, -24(%rbp)
Ltmp57:
	.loc	6 60 9
	movq	%rax, -16(%rbp)
Ltmp58:
	.loc	4 766 37
	movq	%rsi, -8(%rbp)
Ltmp59:
	.loc	5 135 36
	movq	%rax, -144(%rbp)
	movq	%rsi, -136(%rbp)
	.loc	5 135 14 is_stmt 0
	movq	-144(%rbp), %rcx
	movq	-136(%rbp), %rax
	movq	%rcx, -160(%rbp)
	movq	%rax, -152(%rbp)
	movq	-160(%rbp), %rax
	movq	-152(%rbp), %rdx
Ltmp60:
	.loc	2 402 6 is_stmt 1
	addq	$160, %rsp
	popq	%rbp
	retq
Ltmp61:
Lfunc_end5:
	.cfi_endproc

	.globl	__ZN106_$LT$core..ops..range..Range$LT$usize$GT$$u20$as$u20$core..slice..index..SliceIndex$LT$$u5b$T$u5d$$GT$$GT$17get_unchecked_mut17h3812d7de6c914b72E
	.p2align	4, 0x90
__ZN106_$LT$core..ops..range..Range$LT$usize$GT$$u20$as$u20$core..slice..index..SliceIndex$LT$$u5b$T$u5d$$GT$$GT$17get_unchecked_mut17h3812d7de6c914b72E:
Lfunc_begin6:
	.loc	2 391 0
	.cfi_startproc
	pushq	%rbp
	.cfi_def_cfa_offset 16
	.cfi_offset %rbp, -16
	movq	%rsp, %rbp
	.cfi_def_cfa_register %rbp
	subq	$160, %rsp
	movq	%rdi, -128(%rbp)
	movq	%rsi, -120(%rbp)
	movq	%rdx, -112(%rbp)
	movq	%rcx, -104(%rbp)
Ltmp62:
	.loc	2 400 43 prologue_end
	movq	%rdx, -96(%rbp)
	movq	%rcx, -88(%rbp)
Ltmp63:
	.loc	6 2037 9
	movq	%rdx, -80(%rbp)
Ltmp64:
	.loc	2 400 66
	movq	%rdi, -72(%rbp)
Ltmp65:
	.loc	6 1034 18
	movq	%rdx, -64(%rbp)
	.loc	6 1034 30 is_stmt 0
	movq	%rdi, -56(%rbp)
Ltmp66:
	.loc	6 487 18 is_stmt 1
	leaq	(%rdx,%rdi,2), %rax
	movq	%rax, -48(%rbp)
	movq	-48(%rbp), %rax
	movq	%rax, -40(%rbp)
Ltmp67:
	.loc	2 400 79
	subq	%rdi, %rsi
	movq	%rsi, -32(%rbp)
Ltmp68:
	.loc	4 766 24
	movq	%rax, -24(%rbp)
Ltmp69:
	.loc	6 60 9
	movq	%rax, -16(%rbp)
Ltmp70:
	.loc	4 766 37
	movq	%rsi, -8(%rbp)
Ltmp71:
	.loc	5 135 36
	movq	%rax, -144(%rbp)
	movq	%rsi, -136(%rbp)
	.loc	5 135 14 is_stmt 0
	movq	-144(%rbp), %rcx
	movq	-136(%rbp), %rax
	movq	%rcx, -160(%rbp)
	movq	%rax, -152(%rbp)
	movq	-160(%rbp), %rax
	movq	-152(%rbp), %rdx
Ltmp72:
	.loc	2 402 6 is_stmt 1
	addq	$160, %rsp
	popq	%rbp
	retq
Ltmp73:
Lfunc_end6:
	.cfi_endproc

	.globl	__ZN106_$LT$core..ops..range..Range$LT$usize$GT$$u20$as$u20$core..slice..index..SliceIndex$LT$$u5b$T$u5d$$GT$$GT$17get_unchecked_mut17hb81d55a855a7b5d0E
	.p2align	4, 0x90
__ZN106_$LT$core..ops..range..Range$LT$usize$GT$$u20$as$u20$core..slice..index..SliceIndex$LT$$u5b$T$u5d$$GT$$GT$17get_unchecked_mut17hb81d55a855a7b5d0E:
Lfunc_begin7:
	.loc	2 391 0
	.cfi_startproc
	pushq	%rbp
	.cfi_def_cfa_offset 16
	.cfi_offset %rbp, -16
	movq	%rsp, %rbp
	.cfi_def_cfa_register %rbp
	subq	$160, %rsp
	movq	%rdi, -128(%rbp)
	movq	%rsi, -120(%rbp)
	movq	%rdx, -112(%rbp)
	movq	%rcx, -104(%rbp)
Ltmp74:
	.loc	2 400 43 prologue_end
	movq	%rdx, -96(%rbp)
	movq	%rcx, -88(%rbp)
Ltmp75:
	.loc	6 2037 9
	movq	%rdx, -80(%rbp)
Ltmp76:
	.loc	2 400 66
	movq	%rdi, -72(%rbp)
Ltmp77:
	.loc	6 1034 18
	movq	%rdx, -64(%rbp)
	.loc	6 1034 30 is_stmt 0
	movq	%rdi, -56(%rbp)
Ltmp78:
	.loc	6 487 18 is_stmt 1
	leaq	(%rdx,%rdi,8), %rax
	movq	%rax, -48(%rbp)
	movq	-48(%rbp), %rax
	movq	%rax, -40(%rbp)
Ltmp79:
	.loc	2 400 79
	subq	%rdi, %rsi
	movq	%rsi, -32(%rbp)
Ltmp80:
	.loc	4 766 24
	movq	%rax, -24(%rbp)
Ltmp81:
	.loc	6 60 9
	movq	%rax, -16(%rbp)
Ltmp82:
	.loc	4 766 37
	movq	%rsi, -8(%rbp)
Ltmp83:
	.loc	5 135 36
	movq	%rax, -144(%rbp)
	movq	%rsi, -136(%rbp)
	.loc	5 135 14 is_stmt 0
	movq	-144(%rbp), %rcx
	movq	-136(%rbp), %rax
	movq	%rcx, -160(%rbp)
	movq	%rax, -152(%rbp)
	movq	-160(%rbp), %rax
	movq	-152(%rbp), %rdx
Ltmp84:
	.loc	2 402 6 is_stmt 1
	addq	$160, %rsp
	popq	%rbp
	retq
Ltmp85:
Lfunc_end7:
	.cfi_endproc

	.globl	__ZN106_$LT$core..ops..range..Range$LT$usize$GT$$u20$as$u20$core..slice..index..SliceIndex$LT$$u5b$T$u5d$$GT$$GT$17get_unchecked_mut17he267898769d1f8deE
	.p2align	4, 0x90
__ZN106_$LT$core..ops..range..Range$LT$usize$GT$$u20$as$u20$core..slice..index..SliceIndex$LT$$u5b$T$u5d$$GT$$GT$17get_unchecked_mut17he267898769d1f8deE:
Lfunc_begin8:
	.loc	2 391 0
	.cfi_startproc
	pushq	%rbp
	.cfi_def_cfa_offset 16
	.cfi_offset %rbp, -16
	movq	%rsp, %rbp
	.cfi_def_cfa_register %rbp
	subq	$160, %rsp
	movq	%rdi, -128(%rbp)
	movq	%rsi, -120(%rbp)
	movq	%rdx, -112(%rbp)
	movq	%rcx, -104(%rbp)
Ltmp86:
	.loc	2 400 43 prologue_end
	movq	%rdx, -96(%rbp)
	movq	%rcx, -88(%rbp)
Ltmp87:
	.loc	6 2037 9
	movq	%rdx, -80(%rbp)
Ltmp88:
	.loc	2 400 66
	movq	%rdi, -72(%rbp)
Ltmp89:
	.loc	6 1034 18
	movq	%rdx, -64(%rbp)
	.loc	6 1034 30 is_stmt 0
	movq	%rdi, -56(%rbp)
Ltmp90:
	.loc	6 487 18 is_stmt 1
	leaq	(%rdx,%rdi,4), %rax
	movq	%rax, -48(%rbp)
	movq	-48(%rbp), %rax
	movq	%rax, -40(%rbp)
Ltmp91:
	.loc	2 400 79
	subq	%rdi, %rsi
	movq	%rsi, -32(%rbp)
Ltmp92:
	.loc	4 766 24
	movq	%rax, -24(%rbp)
Ltmp93:
	.loc	6 60 9
	movq	%rax, -16(%rbp)
Ltmp94:
	.loc	4 766 37
	movq	%rsi, -8(%rbp)
Ltmp95:
	.loc	5 135 36
	movq	%rax, -144(%rbp)
	movq	%rsi, -136(%rbp)
	.loc	5 135 14 is_stmt 0
	movq	-144(%rbp), %rcx
	movq	-136(%rbp), %rax
	movq	%rcx, -160(%rbp)
	movq	%rax, -152(%rbp)
	movq	-160(%rbp), %rax
	movq	-152(%rbp), %rdx
Ltmp96:
	.loc	2 402 6 is_stmt 1
	addq	$160, %rsp
	popq	%rbp
	retq
Ltmp97:
Lfunc_end8:
	.cfi_endproc

	.globl	__ZN106_$LT$core..ops..range..Range$LT$usize$GT$$u20$as$u20$core..slice..index..SliceIndex$LT$$u5b$T$u5d$$GT$$GT$5index17h5a4e15eb8507700eE
	.p2align	4, 0x90
__ZN106_$LT$core..ops..range..Range$LT$usize$GT$$u20$as$u20$core..slice..index..SliceIndex$LT$$u5b$T$u5d$$GT$$GT$5index17h5a4e15eb8507700eE:
Lfunc_begin9:
	.loc	2 405 0
	.cfi_startproc
	pushq	%rbp
	.cfi_def_cfa_offset 16
	.cfi_offset %rbp, -16
	movq	%rsp, %rbp
	.cfi_def_cfa_register %rbp
	subq	$80, %rsp
	movq	%rdi, -72(%rbp)
	movq	%rsi, -64(%rbp)
	movq	%rdx, -56(%rbp)
	movq	%rcx, -48(%rbp)
	movq	%r8, -40(%rbp)
	movq	%rdi, -32(%rbp)
	movq	%rsi, -24(%rbp)
	movq	%rdx, -16(%rbp)
	movq	%rcx, -8(%rbp)
Ltmp98:
	.loc	2 406 12 prologue_end
	cmpq	%rsi, %rdi
	ja	LBB9_2
	.loc	2 0 12 is_stmt 0
	movq	-64(%rbp), %rax
	movq	-48(%rbp), %rcx
	.loc	2 408 19 is_stmt 1
	cmpq	%rcx, %rax
	ja	LBB9_4
	jmp	LBB9_3
LBB9_2:
	.loc	2 0 19 is_stmt 0
	movq	-40(%rbp), %rdx
	movq	-64(%rbp), %rsi
	movq	-72(%rbp), %rdi
	.loc	2 407 13 is_stmt 1
	callq	__ZN4core5slice5index22slice_index_order_fail17h0d8f800a07d5f26eE
LBB9_3:
	.loc	2 0 13 is_stmt 0
	movq	-48(%rbp), %rcx
	movq	-56(%rbp), %rdx
	movq	-64(%rbp), %rsi
	movq	-72(%rbp), %rdi
	.loc	2 412 20 is_stmt 1
	callq	__ZN106_$LT$core..ops..range..Range$LT$usize$GT$$u20$as$u20$core..slice..index..SliceIndex$LT$$u5b$T$u5d$$GT$$GT$13get_unchecked17h42a88f92217012a5E
	.loc	2 413 6
	addq	$80, %rsp
	popq	%rbp
	retq
LBB9_4:
	.loc	2 0 6 is_stmt 0
	movq	-40(%rbp), %rdx
	movq	-48(%rbp), %rsi
	movq	-64(%rbp), %rdi
	.loc	2 409 13 is_stmt 1
	callq	__ZN4core5slice5index24slice_end_index_len_fail17hc921cb2f1513645aE
Ltmp99:
Lfunc_end9:
	.cfi_endproc

	.globl	__ZN106_$LT$core..ops..range..Range$LT$usize$GT$$u20$as$u20$core..slice..index..SliceIndex$LT$$u5b$T$u5d$$GT$$GT$5index17h809aef6832ff8089E
	.p2align	4, 0x90
__ZN106_$LT$core..ops..range..Range$LT$usize$GT$$u20$as$u20$core..slice..index..SliceIndex$LT$$u5b$T$u5d$$GT$$GT$5index17h809aef6832ff8089E:
Lfunc_begin10:
	.loc	2 405 0
	.cfi_startproc
	pushq	%rbp
	.cfi_def_cfa_offset 16
	.cfi_offset %rbp, -16
	movq	%rsp, %rbp
	.cfi_def_cfa_register %rbp
	subq	$80, %rsp
	movq	%rdi, -72(%rbp)
	movq	%rsi, -64(%rbp)
	movq	%rdx, -56(%rbp)
	movq	%rcx, -48(%rbp)
	movq	%r8, -40(%rbp)
	movq	%rdi, -32(%rbp)
	movq	%rsi, -24(%rbp)
	movq	%rdx, -16(%rbp)
	movq	%rcx, -8(%rbp)
Ltmp100:
	.loc	2 406 12 prologue_end
	cmpq	%rsi, %rdi
	ja	LBB10_2
	.loc	2 0 12 is_stmt 0
	movq	-64(%rbp), %rax
	movq	-48(%rbp), %rcx
	.loc	2 408 19 is_stmt 1
	cmpq	%rcx, %rax
	ja	LBB10_4
	jmp	LBB10_3
LBB10_2:
	.loc	2 0 19 is_stmt 0
	movq	-40(%rbp), %rdx
	movq	-64(%rbp), %rsi
	movq	-72(%rbp), %rdi
	.loc	2 407 13 is_stmt 1
	callq	__ZN4core5slice5index22slice_index_order_fail17h0d8f800a07d5f26eE
LBB10_3:
	.loc	2 0 13 is_stmt 0
	movq	-48(%rbp), %rcx
	movq	-56(%rbp), %rdx
	movq	-64(%rbp), %rsi
	movq	-72(%rbp), %rdi
	.loc	2 412 20 is_stmt 1
	callq	__ZN106_$LT$core..ops..range..Range$LT$usize$GT$$u20$as$u20$core..slice..index..SliceIndex$LT$$u5b$T$u5d$$GT$$GT$13get_unchecked17h552cd15dc92b79a6E
	.loc	2 413 6
	addq	$80, %rsp
	popq	%rbp
	retq
LBB10_4:
	.loc	2 0 6 is_stmt 0
	movq	-40(%rbp), %rdx
	movq	-48(%rbp), %rsi
	movq	-64(%rbp), %rdi
	.loc	2 409 13 is_stmt 1
	callq	__ZN4core5slice5index24slice_end_index_len_fail17hc921cb2f1513645aE
Ltmp101:
Lfunc_end10:
	.cfi_endproc

	.globl	__ZN106_$LT$core..ops..range..Range$LT$usize$GT$$u20$as$u20$core..slice..index..SliceIndex$LT$$u5b$T$u5d$$GT$$GT$5index17hb3f2f86e3990de73E
	.p2align	4, 0x90
__ZN106_$LT$core..ops..range..Range$LT$usize$GT$$u20$as$u20$core..slice..index..SliceIndex$LT$$u5b$T$u5d$$GT$$GT$5index17hb3f2f86e3990de73E:
Lfunc_begin11:
	.loc	2 405 0
	.cfi_startproc
	pushq	%rbp
	.cfi_def_cfa_offset 16
	.cfi_offset %rbp, -16
	movq	%rsp, %rbp
	.cfi_def_cfa_register %rbp
	subq	$80, %rsp
	movq	%rdi, -72(%rbp)
	movq	%rsi, -64(%rbp)
	movq	%rdx, -56(%rbp)
	movq	%rcx, -48(%rbp)
	movq	%r8, -40(%rbp)
	movq	%rdi, -32(%rbp)
	movq	%rsi, -24(%rbp)
	movq	%rdx, -16(%rbp)
	movq	%rcx, -8(%rbp)
Ltmp102:
	.loc	2 406 12 prologue_end
	cmpq	%rsi, %rdi
	ja	LBB11_2
	.loc	2 0 12 is_stmt 0
	movq	-64(%rbp), %rax
	movq	-48(%rbp), %rcx
	.loc	2 408 19 is_stmt 1
	cmpq	%rcx, %rax
	ja	LBB11_4
	jmp	LBB11_3
LBB11_2:
	.loc	2 0 19 is_stmt 0
	movq	-40(%rbp), %rdx
	movq	-64(%rbp), %rsi
	movq	-72(%rbp), %rdi
	.loc	2 407 13 is_stmt 1
	callq	__ZN4core5slice5index22slice_index_order_fail17h0d8f800a07d5f26eE
LBB11_3:
	.loc	2 0 13 is_stmt 0
	movq	-48(%rbp), %rcx
	movq	-56(%rbp), %rdx
	movq	-64(%rbp), %rsi
	movq	-72(%rbp), %rdi
	.loc	2 412 20 is_stmt 1
	callq	__ZN106_$LT$core..ops..range..Range$LT$usize$GT$$u20$as$u20$core..slice..index..SliceIndex$LT$$u5b$T$u5d$$GT$$GT$13get_unchecked17h3f44504284b864a3E
	.loc	2 413 6
	addq	$80, %rsp
	popq	%rbp
	retq
LBB11_4:
	.loc	2 0 6 is_stmt 0
	movq	-40(%rbp), %rdx
	movq	-48(%rbp), %rsi
	movq	-64(%rbp), %rdi
	.loc	2 409 13 is_stmt 1
	callq	__ZN4core5slice5index24slice_end_index_len_fail17hc921cb2f1513645aE
Ltmp103:
Lfunc_end11:
	.cfi_endproc

	.globl	__ZN106_$LT$core..ops..range..Range$LT$usize$GT$$u20$as$u20$core..slice..index..SliceIndex$LT$$u5b$T$u5d$$GT$$GT$9index_mut17h3c109011f300a575E
	.p2align	4, 0x90
__ZN106_$LT$core..ops..range..Range$LT$usize$GT$$u20$as$u20$core..slice..index..SliceIndex$LT$$u5b$T$u5d$$GT$$GT$9index_mut17h3c109011f300a575E:
Lfunc_begin12:
	.loc	2 416 0
	.cfi_startproc
	pushq	%rbp
	.cfi_def_cfa_offset 16
	.cfi_offset %rbp, -16
	movq	%rsp, %rbp
	.cfi_def_cfa_register %rbp
	subq	$80, %rsp
	movq	%rdi, -72(%rbp)
	movq	%rsi, -64(%rbp)
	movq	%rdx, -56(%rbp)
	movq	%rcx, -48(%rbp)
	movq	%r8, -40(%rbp)
	movq	%rdi, -32(%rbp)
	movq	%rsi, -24(%rbp)
	movq	%rdx, -16(%rbp)
	movq	%rcx, -8(%rbp)
Ltmp104:
	.loc	2 417 12 prologue_end
	cmpq	%rsi, %rdi
	ja	LBB12_2
	.loc	2 0 12 is_stmt 0
	movq	-64(%rbp), %rax
	movq	-48(%rbp), %rcx
	.loc	2 419 19 is_stmt 1
	cmpq	%rcx, %rax
	ja	LBB12_4
	jmp	LBB12_3
LBB12_2:
	.loc	2 0 19 is_stmt 0
	movq	-40(%rbp), %rdx
	movq	-64(%rbp), %rsi
	movq	-72(%rbp), %rdi
	.loc	2 418 13 is_stmt 1
	callq	__ZN4core5slice5index22slice_index_order_fail17h0d8f800a07d5f26eE
LBB12_3:
	.loc	2 0 13 is_stmt 0
	movq	-48(%rbp), %rcx
	movq	-56(%rbp), %rdx
	movq	-64(%rbp), %rsi
	movq	-72(%rbp), %rdi
	.loc	2 423 24 is_stmt 1
	callq	__ZN106_$LT$core..ops..range..Range$LT$usize$GT$$u20$as$u20$core..slice..index..SliceIndex$LT$$u5b$T$u5d$$GT$$GT$17get_unchecked_mut17h3812d7de6c914b72E
	.loc	2 424 6
	addq	$80, %rsp
	popq	%rbp
	retq
LBB12_4:
	.loc	2 0 6 is_stmt 0
	movq	-40(%rbp), %rdx
	movq	-48(%rbp), %rsi
	movq	-64(%rbp), %rdi
	.loc	2 420 13 is_stmt 1
	callq	__ZN4core5slice5index24slice_end_index_len_fail17hc921cb2f1513645aE
Ltmp105:
Lfunc_end12:
	.cfi_endproc

	.globl	__ZN106_$LT$core..ops..range..Range$LT$usize$GT$$u20$as$u20$core..slice..index..SliceIndex$LT$$u5b$T$u5d$$GT$$GT$9index_mut17h6eae9932ae8b91dfE
	.p2align	4, 0x90
__ZN106_$LT$core..ops..range..Range$LT$usize$GT$$u20$as$u20$core..slice..index..SliceIndex$LT$$u5b$T$u5d$$GT$$GT$9index_mut17h6eae9932ae8b91dfE:
Lfunc_begin13:
	.loc	2 416 0
	.cfi_startproc
	pushq	%rbp
	.cfi_def_cfa_offset 16
	.cfi_offset %rbp, -16
	movq	%rsp, %rbp
	.cfi_def_cfa_register %rbp
	subq	$80, %rsp
	movq	%rdi, -72(%rbp)
	movq	%rsi, -64(%rbp)
	movq	%rdx, -56(%rbp)
	movq	%rcx, -48(%rbp)
	movq	%r8, -40(%rbp)
	movq	%rdi, -32(%rbp)
	movq	%rsi, -24(%rbp)
	movq	%rdx, -16(%rbp)
	movq	%rcx, -8(%rbp)
Ltmp106:
	.loc	2 417 12 prologue_end
	cmpq	%rsi, %rdi
	ja	LBB13_2
	.loc	2 0 12 is_stmt 0
	movq	-64(%rbp), %rax
	movq	-48(%rbp), %rcx
	.loc	2 419 19 is_stmt 1
	cmpq	%rcx, %rax
	ja	LBB13_4
	jmp	LBB13_3
LBB13_2:
	.loc	2 0 19 is_stmt 0
	movq	-40(%rbp), %rdx
	movq	-64(%rbp), %rsi
	movq	-72(%rbp), %rdi
	.loc	2 418 13 is_stmt 1
	callq	__ZN4core5slice5index22slice_index_order_fail17h0d8f800a07d5f26eE
LBB13_3:
	.loc	2 0 13 is_stmt 0
	movq	-48(%rbp), %rcx
	movq	-56(%rbp), %rdx
	movq	-64(%rbp), %rsi
	movq	-72(%rbp), %rdi
	.loc	2 423 24 is_stmt 1
	callq	__ZN106_$LT$core..ops..range..Range$LT$usize$GT$$u20$as$u20$core..slice..index..SliceIndex$LT$$u5b$T$u5d$$GT$$GT$17get_unchecked_mut17he267898769d1f8deE
	.loc	2 424 6
	addq	$80, %rsp
	popq	%rbp
	retq
LBB13_4:
	.loc	2 0 6 is_stmt 0
	movq	-40(%rbp), %rdx
	movq	-48(%rbp), %rsi
	movq	-64(%rbp), %rdi
	.loc	2 420 13 is_stmt 1
	callq	__ZN4core5slice5index24slice_end_index_len_fail17hc921cb2f1513645aE
Ltmp107:
Lfunc_end13:
	.cfi_endproc

	.globl	__ZN106_$LT$core..ops..range..Range$LT$usize$GT$$u20$as$u20$core..slice..index..SliceIndex$LT$$u5b$T$u5d$$GT$$GT$9index_mut17h934c462115a807ccE
	.p2align	4, 0x90
__ZN106_$LT$core..ops..range..Range$LT$usize$GT$$u20$as$u20$core..slice..index..SliceIndex$LT$$u5b$T$u5d$$GT$$GT$9index_mut17h934c462115a807ccE:
Lfunc_begin14:
	.loc	2 416 0
	.cfi_startproc
	pushq	%rbp
	.cfi_def_cfa_offset 16
	.cfi_offset %rbp, -16
	movq	%rsp, %rbp
	.cfi_def_cfa_register %rbp
	subq	$80, %rsp
	movq	%rdi, -72(%rbp)
	movq	%rsi, -64(%rbp)
	movq	%rdx, -56(%rbp)
	movq	%rcx, -48(%rbp)
	movq	%r8, -40(%rbp)
	movq	%rdi, -32(%rbp)
	movq	%rsi, -24(%rbp)
	movq	%rdx, -16(%rbp)
	movq	%rcx, -8(%rbp)
Ltmp108:
	.loc	2 417 12 prologue_end
	cmpq	%rsi, %rdi
	ja	LBB14_2
	.loc	2 0 12 is_stmt 0
	movq	-64(%rbp), %rax
	movq	-48(%rbp), %rcx
	.loc	2 419 19 is_stmt 1
	cmpq	%rcx, %rax
	ja	LBB14_4
	jmp	LBB14_3
LBB14_2:
	.loc	2 0 19 is_stmt 0
	movq	-40(%rbp), %rdx
	movq	-64(%rbp), %rsi
	movq	-72(%rbp), %rdi
	.loc	2 418 13 is_stmt 1
	callq	__ZN4core5slice5index22slice_index_order_fail17h0d8f800a07d5f26eE
LBB14_3:
	.loc	2 0 13 is_stmt 0
	movq	-48(%rbp), %rcx
	movq	-56(%rbp), %rdx
	movq	-64(%rbp), %rsi
	movq	-72(%rbp), %rdi
	.loc	2 423 24 is_stmt 1
	callq	__ZN106_$LT$core..ops..range..Range$LT$usize$GT$$u20$as$u20$core..slice..index..SliceIndex$LT$$u5b$T$u5d$$GT$$GT$17get_unchecked_mut17hb81d55a855a7b5d0E
	.loc	2 424 6
	addq	$80, %rsp
	popq	%rbp
	retq
LBB14_4:
	.loc	2 0 6 is_stmt 0
	movq	-40(%rbp), %rdx
	movq	-48(%rbp), %rsi
	movq	-64(%rbp), %rdi
	.loc	2 420 13 is_stmt 1
	callq	__ZN4core5slice5index24slice_end_index_len_fail17hc921cb2f1513645aE
Ltmp109:
Lfunc_end14:
	.cfi_endproc

	.globl	__ZN106_$LT$core..ops..range..Range$LT$usize$GT$$u20$as$u20$core..slice..index..SliceIndex$LT$$u5b$T$u5d$$GT$$GT$9index_mut17hb566b1da33f300afE
	.p2align	4, 0x90
__ZN106_$LT$core..ops..range..Range$LT$usize$GT$$u20$as$u20$core..slice..index..SliceIndex$LT$$u5b$T$u5d$$GT$$GT$9index_mut17hb566b1da33f300afE:
Lfunc_begin15:
	.loc	2 416 0
	.cfi_startproc
	pushq	%rbp
	.cfi_def_cfa_offset 16
	.cfi_offset %rbp, -16
	movq	%rsp, %rbp
	.cfi_def_cfa_register %rbp
	subq	$80, %rsp
	movq	%rdi, -72(%rbp)
	movq	%rsi, -64(%rbp)
	movq	%rdx, -56(%rbp)
	movq	%rcx, -48(%rbp)
	movq	%r8, -40(%rbp)
	movq	%rdi, -32(%rbp)
	movq	%rsi, -24(%rbp)
	movq	%rdx, -16(%rbp)
	movq	%rcx, -8(%rbp)
Ltmp110:
	.loc	2 417 12 prologue_end
	cmpq	%rsi, %rdi
	ja	LBB15_2
	.loc	2 0 12 is_stmt 0
	movq	-64(%rbp), %rax
	movq	-48(%rbp), %rcx
	.loc	2 419 19 is_stmt 1
	cmpq	%rcx, %rax
	ja	LBB15_4
	jmp	LBB15_3
LBB15_2:
	.loc	2 0 19 is_stmt 0
	movq	-40(%rbp), %rdx
	movq	-64(%rbp), %rsi
	movq	-72(%rbp), %rdi
	.loc	2 418 13 is_stmt 1
	callq	__ZN4core5slice5index22slice_index_order_fail17h0d8f800a07d5f26eE
LBB15_3:
	.loc	2 0 13 is_stmt 0
	movq	-48(%rbp), %rcx
	movq	-56(%rbp), %rdx
	movq	-64(%rbp), %rsi
	movq	-72(%rbp), %rdi
	.loc	2 423 24 is_stmt 1
	callq	__ZN106_$LT$core..ops..range..Range$LT$usize$GT$$u20$as$u20$core..slice..index..SliceIndex$LT$$u5b$T$u5d$$GT$$GT$17get_unchecked_mut17h32d12ceb68a30bb2E
	.loc	2 424 6
	addq	$80, %rsp
	popq	%rbp
	retq
LBB15_4:
	.loc	2 0 6 is_stmt 0
	movq	-40(%rbp), %rdx
	movq	-48(%rbp), %rsi
	movq	-64(%rbp), %rdi
	.loc	2 420 13 is_stmt 1
	callq	__ZN4core5slice5index24slice_end_index_len_fail17hc921cb2f1513645aE
Ltmp111:
Lfunc_end15:
	.cfi_endproc

	.globl	__ZN108_$LT$core..ops..range..RangeTo$LT$usize$GT$$u20$as$u20$core..slice..index..SliceIndex$LT$$u5b$T$u5d$$GT$$GT$5index17h3222d2a4c15c7232E
	.p2align	4, 0x90
__ZN108_$LT$core..ops..range..RangeTo$LT$usize$GT$$u20$as$u20$core..slice..index..SliceIndex$LT$$u5b$T$u5d$$GT$$GT$5index17h3222d2a4c15c7232E:
Lfunc_begin16:
	.loc	2 455 0
	.cfi_startproc
	pushq	%rbp
	.cfi_def_cfa_offset 16
	.cfi_offset %rbp, -16
	movq	%rsp, %rbp
	.cfi_def_cfa_register %rbp
	subq	$48, %rsp
	movq	%rcx, %r8
	movq	%rdx, %rcx
	movq	%rsi, %rdx
	movq	%rdi, -24(%rbp)
	movq	%rdx, -16(%rbp)
	movq	%rcx, -8(%rbp)
Ltmp112:
	.loc	2 456 9 prologue_end
	movq	$0, -40(%rbp)
	movq	%rdi, -32(%rbp)
	movq	-40(%rbp), %rdi
	movq	-32(%rbp), %rsi
	callq	__ZN106_$LT$core..ops..range..Range$LT$usize$GT$$u20$as$u20$core..slice..index..SliceIndex$LT$$u5b$T$u5d$$GT$$GT$5index17h5a4e15eb8507700eE
	.loc	2 457 6
	addq	$48, %rsp
	popq	%rbp
	retq
Ltmp113:
Lfunc_end16:
	.cfi_endproc

	.globl	__ZN108_$LT$core..ops..range..RangeTo$LT$usize$GT$$u20$as$u20$core..slice..index..SliceIndex$LT$$u5b$T$u5d$$GT$$GT$5index17h64468e6c0a1e7600E
	.p2align	4, 0x90
__ZN108_$LT$core..ops..range..RangeTo$LT$usize$GT$$u20$as$u20$core..slice..index..SliceIndex$LT$$u5b$T$u5d$$GT$$GT$5index17h64468e6c0a1e7600E:
Lfunc_begin17:
	.loc	2 455 0
	.cfi_startproc
	pushq	%rbp
	.cfi_def_cfa_offset 16
	.cfi_offset %rbp, -16
	movq	%rsp, %rbp
	.cfi_def_cfa_register %rbp
	subq	$48, %rsp
	movq	%rcx, %r8
	movq	%rdx, %rcx
	movq	%rsi, %rdx
	movq	%rdi, -24(%rbp)
	movq	%rdx, -16(%rbp)
	movq	%rcx, -8(%rbp)
Ltmp114:
	.loc	2 456 9 prologue_end
	movq	$0, -40(%rbp)
	movq	%rdi, -32(%rbp)
	movq	-40(%rbp), %rdi
	movq	-32(%rbp), %rsi
	callq	__ZN106_$LT$core..ops..range..Range$LT$usize$GT$$u20$as$u20$core..slice..index..SliceIndex$LT$$u5b$T$u5d$$GT$$GT$5index17h809aef6832ff8089E
	.loc	2 457 6
	addq	$48, %rsp
	popq	%rbp
	retq
Ltmp115:
Lfunc_end17:
	.cfi_endproc

	.globl	__ZN108_$LT$core..ops..range..RangeTo$LT$usize$GT$$u20$as$u20$core..slice..index..SliceIndex$LT$$u5b$T$u5d$$GT$$GT$5index17h72b2b42ea97c6c8bE
	.p2align	4, 0x90
__ZN108_$LT$core..ops..range..RangeTo$LT$usize$GT$$u20$as$u20$core..slice..index..SliceIndex$LT$$u5b$T$u5d$$GT$$GT$5index17h72b2b42ea97c6c8bE:
Lfunc_begin18:
	.loc	2 455 0
	.cfi_startproc
	pushq	%rbp
	.cfi_def_cfa_offset 16
	.cfi_offset %rbp, -16
	movq	%rsp, %rbp
	.cfi_def_cfa_register %rbp
	subq	$48, %rsp
	movq	%rcx, %r8
	movq	%rdx, %rcx
	movq	%rsi, %rdx
	movq	%rdi, -24(%rbp)
	movq	%rdx, -16(%rbp)
	movq	%rcx, -8(%rbp)
Ltmp116:
	.loc	2 456 9 prologue_end
	movq	$0, -40(%rbp)
	movq	%rdi, -32(%rbp)
	movq	-40(%rbp), %rdi
	movq	-32(%rbp), %rsi
	callq	__ZN106_$LT$core..ops..range..Range$LT$usize$GT$$u20$as$u20$core..slice..index..SliceIndex$LT$$u5b$T$u5d$$GT$$GT$5index17hb3f2f86e3990de73E
	.loc	2 457 6
	addq	$48, %rsp
	popq	%rbp
	retq
Ltmp117:
Lfunc_end18:
	.cfi_endproc

	.globl	__ZN108_$LT$core..ops..range..RangeTo$LT$usize$GT$$u20$as$u20$core..slice..index..SliceIndex$LT$$u5b$T$u5d$$GT$$GT$9index_mut17h45c6a22096792e64E
	.p2align	4, 0x90
__ZN108_$LT$core..ops..range..RangeTo$LT$usize$GT$$u20$as$u20$core..slice..index..SliceIndex$LT$$u5b$T$u5d$$GT$$GT$9index_mut17h45c6a22096792e64E:
Lfunc_begin19:
	.loc	2 460 0
	.cfi_startproc
	pushq	%rbp
	.cfi_def_cfa_offset 16
	.cfi_offset %rbp, -16
	movq	%rsp, %rbp
	.cfi_def_cfa_register %rbp
	subq	$48, %rsp
	movq	%rcx, %r8
	movq	%rdx, %rcx
	movq	%rsi, %rdx
	movq	%rdi, -24(%rbp)
	movq	%rdx, -16(%rbp)
	movq	%rcx, -8(%rbp)
Ltmp118:
	.loc	2 461 9 prologue_end
	movq	$0, -40(%rbp)
	movq	%rdi, -32(%rbp)
	movq	-40(%rbp), %rdi
	movq	-32(%rbp), %rsi
	callq	__ZN106_$LT$core..ops..range..Range$LT$usize$GT$$u20$as$u20$core..slice..index..SliceIndex$LT$$u5b$T$u5d$$GT$$GT$9index_mut17h6eae9932ae8b91dfE
	.loc	2 462 6
	addq	$48, %rsp
	popq	%rbp
	retq
Ltmp119:
Lfunc_end19:
	.cfi_endproc

	.globl	__ZN108_$LT$core..ops..range..RangeTo$LT$usize$GT$$u20$as$u20$core..slice..index..SliceIndex$LT$$u5b$T$u5d$$GT$$GT$9index_mut17h6fb576570b70bd6cE
	.p2align	4, 0x90
__ZN108_$LT$core..ops..range..RangeTo$LT$usize$GT$$u20$as$u20$core..slice..index..SliceIndex$LT$$u5b$T$u5d$$GT$$GT$9index_mut17h6fb576570b70bd6cE:
Lfunc_begin20:
	.loc	2 460 0
	.cfi_startproc
	pushq	%rbp
	.cfi_def_cfa_offset 16
	.cfi_offset %rbp, -16
	movq	%rsp, %rbp
	.cfi_def_cfa_register %rbp
	subq	$48, %rsp
	movq	%rcx, %r8
	movq	%rdx, %rcx
	movq	%rsi, %rdx
	movq	%rdi, -24(%rbp)
	movq	%rdx, -16(%rbp)
	movq	%rcx, -8(%rbp)
Ltmp120:
	.loc	2 461 9 prologue_end
	movq	$0, -40(%rbp)
	movq	%rdi, -32(%rbp)
	movq	-40(%rbp), %rdi
	movq	-32(%rbp), %rsi
	callq	__ZN106_$LT$core..ops..range..Range$LT$usize$GT$$u20$as$u20$core..slice..index..SliceIndex$LT$$u5b$T$u5d$$GT$$GT$9index_mut17h934c462115a807ccE
	.loc	2 462 6
	addq	$48, %rsp
	popq	%rbp
	retq
Ltmp121:
Lfunc_end20:
	.cfi_endproc

	.globl	__ZN108_$LT$core..ops..range..RangeTo$LT$usize$GT$$u20$as$u20$core..slice..index..SliceIndex$LT$$u5b$T$u5d$$GT$$GT$9index_mut17hee93498ec340ba44E
	.p2align	4, 0x90
__ZN108_$LT$core..ops..range..RangeTo$LT$usize$GT$$u20$as$u20$core..slice..index..SliceIndex$LT$$u5b$T$u5d$$GT$$GT$9index_mut17hee93498ec340ba44E:
Lfunc_begin21:
	.loc	2 460 0
	.cfi_startproc
	pushq	%rbp
	.cfi_def_cfa_offset 16
	.cfi_offset %rbp, -16
	movq	%rsp, %rbp
	.cfi_def_cfa_register %rbp
	subq	$48, %rsp
	movq	%rcx, %r8
	movq	%rdx, %rcx
	movq	%rsi, %rdx
	movq	%rdi, -24(%rbp)
	movq	%rdx, -16(%rbp)
	movq	%rcx, -8(%rbp)
Ltmp122:
	.loc	2 461 9 prologue_end
	movq	$0, -40(%rbp)
	movq	%rdi, -32(%rbp)
	movq	-40(%rbp), %rdi
	movq	-32(%rbp), %rsi
	callq	__ZN106_$LT$core..ops..range..Range$LT$usize$GT$$u20$as$u20$core..slice..index..SliceIndex$LT$$u5b$T$u5d$$GT$$GT$9index_mut17hb566b1da33f300afE
	.loc	2 462 6
	addq	$48, %rsp
	popq	%rbp
	retq
Ltmp123:
Lfunc_end21:
	.cfi_endproc

	.globl	__ZN110_$LT$core..iter..adapters..enumerate..Enumerate$LT$I$GT$$u20$as$u20$core..iter..traits..iterator..Iterator$GT$4next17hab14f63b523ea9d3E
	.p2align	4, 0x90
__ZN110_$LT$core..iter..adapters..enumerate..Enumerate$LT$I$GT$$u20$as$u20$core..iter..traits..iterator..Iterator$GT$4next17hab14f63b523ea9d3E:
Lfunc_begin22:
	.file	7 "/rustc/2c8cc343237b8f7d5a3c3703e3a87f2eb2c54a74/library/core/src/iter/adapters" "enumerate.rs"
	.loc	7 45 0
	.cfi_startproc
	.cfi_personality 155, _rust_eh_personality
	.cfi_lsda 16, Lexception0
	pushq	%rbp
	.cfi_def_cfa_offset 16
	.cfi_offset %rbp, -16
	movq	%rsp, %rbp
	.cfi_def_cfa_register %rbp
	subq	$160, %rsp
	movq	%rdi, -128(%rbp)
	movq	%rdi, -72(%rbp)
Ltmp127:
	.loc	7 46 17 prologue_end
	callq	__ZN91_$LT$core..slice..iter..Iter$LT$T$GT$$u20$as$u20$core..iter..traits..iterator..Iterator$GT$4next17ha49dd678431d93dbE
	movq	%rax, -96(%rbp)
Ltmp128:
	.file	8 "/rustc/2c8cc343237b8f7d5a3c3703e3a87f2eb2c54a74/library/core/src" "option.rs"
	.loc	8 2407 15
	movq	-96(%rbp), %rdx
	movl	$1, %eax
	xorl	%ecx, %ecx
	cmpq	$0, %rdx
	cmoveq	%rcx, %rax
	.loc	8 2407 9 is_stmt 0
	cmpq	$0, %rax
	jne	LBB22_2
	.loc	8 2409 21 is_stmt 1
	movq	$0, -104(%rbp)
	.loc	8 2409 44 is_stmt 0
	jmp	LBB22_3
LBB22_2:
	.loc	8 2408 18 is_stmt 1
	movq	-96(%rbp), %rax
	movq	%rax, -48(%rbp)
Ltmp129:
	.loc	8 2408 24 is_stmt 0
	movq	%rax, -104(%rbp)
Ltmp130:
LBB22_3:
	.loc	7 46 17 is_stmt 1
	movq	-104(%rbp), %rdx
	xorl	%eax, %eax
	movl	$1, %ecx
	cmpq	$0, %rdx
	cmoveq	%rcx, %rax
	cmpq	$0, %rax
	jne	LBB22_5
	.loc	7 0 17 is_stmt 0
	movq	-128(%rbp), %rax
	.loc	7 46 17
	movq	-104(%rbp), %rcx
	movq	%rcx, -152(%rbp)
	movq	%rcx, -40(%rbp)
Ltmp131:
	.loc	7 46 17
	movq	%rcx, -32(%rbp)
Ltmp132:
	.loc	7 47 17 is_stmt 1
	movq	16(%rax), %rcx
	movq	%rcx, -144(%rbp)
	movq	%rcx, -24(%rbp)
Ltmp133:
	.loc	7 48 9
	movq	16(%rax), %rax
	addq	$1, %rax
	movq	%rax, -136(%rbp)
	setb	%al
	testb	$1, %al
	jne	LBB22_8
	jmp	LBB22_7
Ltmp134:
LBB22_5:
	.loc	8 2420 21
	movq	$0, -112(%rbp)
Ltmp135:
LBB22_6:
	.loc	7 50 6
	movq	-120(%rbp), %rax
	movq	-112(%rbp), %rdx
	addq	$160, %rsp
	popq	%rbp
	retq
LBB22_7:
	.loc	7 0 6 is_stmt 0
	movq	-152(%rbp), %rax
	movq	-144(%rbp), %rcx
	movq	-128(%rbp), %rdx
	movq	-136(%rbp), %rsi
Ltmp136:
	.loc	7 48 9 is_stmt 1
	movq	%rsi, 16(%rdx)
	.loc	7 49 14
	movq	%rcx, -88(%rbp)
	movq	%rax, -80(%rbp)
	.loc	7 49 9 is_stmt 0
	movq	-88(%rbp), %rcx
	movq	-80(%rbp), %rax
	movq	%rcx, -120(%rbp)
	movq	%rax, -112(%rbp)
Ltmp137:
	.loc	7 50 6 is_stmt 1
	jmp	LBB22_6
LBB22_8:
Ltmp124:
Ltmp138:
	.loc	7 48 9
	leaq	_str.0(%rip), %rdi
	leaq	l___unnamed_2(%rip), %rdx
	movl	$28, %esi
	callq	__ZN4core9panicking5panic17hc1bc45270cf64b03E
Ltmp125:
	jmp	LBB22_11
Ltmp139:
LBB22_9:
	.loc	7 45 5
	movq	-16(%rbp), %rdi
	callq	__Unwind_Resume
Ltmp140:
LBB22_10:
Ltmp126:
	.loc	7 0 5 is_stmt 0
	movq	%rax, %rcx
	movl	%edx, %eax
	movq	%rcx, -16(%rbp)
	movl	%eax, -8(%rbp)
	jmp	LBB22_9
LBB22_11:
	ud2
Lfunc_end22:
	.cfi_endproc
	.section	__TEXT,__gcc_except_tab
	.p2align	2
GCC_except_table22:
Lexception0:
	.byte	255
	.byte	255
	.byte	1
	.uleb128 Lcst_end0-Lcst_begin0
Lcst_begin0:
	.uleb128 Lfunc_begin22-Lfunc_begin22
	.uleb128 Ltmp124-Lfunc_begin22
	.byte	0
	.byte	0
	.uleb128 Ltmp124-Lfunc_begin22
	.uleb128 Ltmp125-Ltmp124
	.uleb128 Ltmp126-Lfunc_begin22
	.byte	0
	.uleb128 Ltmp125-Lfunc_begin22
	.uleb128 Lfunc_end22-Ltmp125
	.byte	0
	.byte	0
Lcst_end0:
	.p2align	2

	.section	__TEXT,__text,regular,pure_instructions
	.globl	__ZN110_$LT$core..iter..adapters..enumerate..Enumerate$LT$I$GT$$u20$as$u20$core..iter..traits..iterator..Iterator$GT$4next17hc73623909357b85eE
	.p2align	4, 0x90
__ZN110_$LT$core..iter..adapters..enumerate..Enumerate$LT$I$GT$$u20$as$u20$core..iter..traits..iterator..Iterator$GT$4next17hc73623909357b85eE:
Lfunc_begin23:
	.loc	7 45 0 is_stmt 1
	.cfi_startproc
	.cfi_personality 155, _rust_eh_personality
	.cfi_lsda 16, Lexception1
	pushq	%rbp
	.cfi_def_cfa_offset 16
	.cfi_offset %rbp, -16
	movq	%rsp, %rbp
	.cfi_def_cfa_register %rbp
	subq	$160, %rsp
	movq	%rdi, -128(%rbp)
	movq	%rdi, -72(%rbp)
Ltmp144:
	.loc	7 46 17 prologue_end
	callq	__ZN91_$LT$core..slice..iter..Iter$LT$T$GT$$u20$as$u20$core..iter..traits..iterator..Iterator$GT$4next17h61d9301de52fec21E
	movq	%rax, -96(%rbp)
Ltmp145:
	.loc	8 2407 15
	movq	-96(%rbp), %rdx
	movl	$1, %eax
	xorl	%ecx, %ecx
	cmpq	$0, %rdx
	cmoveq	%rcx, %rax
	.loc	8 2407 9 is_stmt 0
	cmpq	$0, %rax
	jne	LBB23_2
	.loc	8 2409 21 is_stmt 1
	movq	$0, -104(%rbp)
	.loc	8 2409 44 is_stmt 0
	jmp	LBB23_3
LBB23_2:
	.loc	8 2408 18 is_stmt 1
	movq	-96(%rbp), %rax
	movq	%rax, -48(%rbp)
Ltmp146:
	.loc	8 2408 24 is_stmt 0
	movq	%rax, -104(%rbp)
Ltmp147:
LBB23_3:
	.loc	7 46 17 is_stmt 1
	movq	-104(%rbp), %rdx
	xorl	%eax, %eax
	movl	$1, %ecx
	cmpq	$0, %rdx
	cmoveq	%rcx, %rax
	cmpq	$0, %rax
	jne	LBB23_5
	.loc	7 0 17 is_stmt 0
	movq	-128(%rbp), %rax
	.loc	7 46 17
	movq	-104(%rbp), %rcx
	movq	%rcx, -152(%rbp)
	movq	%rcx, -40(%rbp)
Ltmp148:
	.loc	7 46 17
	movq	%rcx, -32(%rbp)
Ltmp149:
	.loc	7 47 17 is_stmt 1
	movq	16(%rax), %rcx
	movq	%rcx, -144(%rbp)
	movq	%rcx, -24(%rbp)
Ltmp150:
	.loc	7 48 9
	movq	16(%rax), %rax
	addq	$1, %rax
	movq	%rax, -136(%rbp)
	setb	%al
	testb	$1, %al
	jne	LBB23_8
	jmp	LBB23_7
Ltmp151:
LBB23_5:
	.loc	8 2420 21
	movq	$0, -112(%rbp)
Ltmp152:
LBB23_6:
	.loc	7 50 6
	movq	-120(%rbp), %rax
	movq	-112(%rbp), %rdx
	addq	$160, %rsp
	popq	%rbp
	retq
LBB23_7:
	.loc	7 0 6 is_stmt 0
	movq	-152(%rbp), %rax
	movq	-144(%rbp), %rcx
	movq	-128(%rbp), %rdx
	movq	-136(%rbp), %rsi
Ltmp153:
	.loc	7 48 9 is_stmt 1
	movq	%rsi, 16(%rdx)
	.loc	7 49 14
	movq	%rcx, -88(%rbp)
	movq	%rax, -80(%rbp)
	.loc	7 49 9 is_stmt 0
	movq	-88(%rbp), %rcx
	movq	-80(%rbp), %rax
	movq	%rcx, -120(%rbp)
	movq	%rax, -112(%rbp)
Ltmp154:
	.loc	7 50 6 is_stmt 1
	jmp	LBB23_6
LBB23_8:
Ltmp141:
Ltmp155:
	.loc	7 48 9
	leaq	_str.0(%rip), %rdi
	leaq	l___unnamed_2(%rip), %rdx
	movl	$28, %esi
	callq	__ZN4core9panicking5panic17hc1bc45270cf64b03E
Ltmp142:
	jmp	LBB23_11
Ltmp156:
LBB23_9:
	.loc	7 45 5
	movq	-16(%rbp), %rdi
	callq	__Unwind_Resume
Ltmp157:
LBB23_10:
Ltmp143:
	.loc	7 0 5 is_stmt 0
	movq	%rax, %rcx
	movl	%edx, %eax
	movq	%rcx, -16(%rbp)
	movl	%eax, -8(%rbp)
	jmp	LBB23_9
LBB23_11:
	ud2
Lfunc_end23:
	.cfi_endproc
	.section	__TEXT,__gcc_except_tab
	.p2align	2
GCC_except_table23:
Lexception1:
	.byte	255
	.byte	255
	.byte	1
	.uleb128 Lcst_end1-Lcst_begin1
Lcst_begin1:
	.uleb128 Lfunc_begin23-Lfunc_begin23
	.uleb128 Ltmp141-Lfunc_begin23
	.byte	0
	.byte	0
	.uleb128 Ltmp141-Lfunc_begin23
	.uleb128 Ltmp142-Ltmp141
	.uleb128 Ltmp143-Lfunc_begin23
	.byte	0
	.uleb128 Ltmp142-Lfunc_begin23
	.uleb128 Lfunc_end23-Ltmp142
	.byte	0
	.byte	0
Lcst_end1:
	.p2align	2

	.section	__TEXT,__text,regular,pure_instructions
	.globl	__ZN110_$LT$core..iter..adapters..enumerate..Enumerate$LT$I$GT$$u20$as$u20$core..iter..traits..iterator..Iterator$GT$4next17hcd010bff43ea0a16E
	.p2align	4, 0x90
__ZN110_$LT$core..iter..adapters..enumerate..Enumerate$LT$I$GT$$u20$as$u20$core..iter..traits..iterator..Iterator$GT$4next17hcd010bff43ea0a16E:
Lfunc_begin24:
	.loc	7 45 0 is_stmt 1
	.cfi_startproc
	.cfi_personality 155, _rust_eh_personality
	.cfi_lsda 16, Lexception2
	pushq	%rbp
	.cfi_def_cfa_offset 16
	.cfi_offset %rbp, -16
	movq	%rsp, %rbp
	.cfi_def_cfa_register %rbp
	subq	$160, %rsp
	movq	%rdi, -128(%rbp)
	movq	%rdi, -72(%rbp)
Ltmp161:
	.loc	7 46 17 prologue_end
	callq	__ZN91_$LT$core..slice..iter..Iter$LT$T$GT$$u20$as$u20$core..iter..traits..iterator..Iterator$GT$4next17h0a3514bd3090dbbcE
	movq	%rax, -96(%rbp)
Ltmp162:
	.loc	8 2407 15
	movq	-96(%rbp), %rdx
	movl	$1, %eax
	xorl	%ecx, %ecx
	cmpq	$0, %rdx
	cmoveq	%rcx, %rax
	.loc	8 2407 9 is_stmt 0
	cmpq	$0, %rax
	jne	LBB24_2
	.loc	8 2409 21 is_stmt 1
	movq	$0, -104(%rbp)
	.loc	8 2409 44 is_stmt 0
	jmp	LBB24_3
LBB24_2:
	.loc	8 2408 18 is_stmt 1
	movq	-96(%rbp), %rax
	movq	%rax, -48(%rbp)
Ltmp163:
	.loc	8 2408 24 is_stmt 0
	movq	%rax, -104(%rbp)
Ltmp164:
LBB24_3:
	.loc	7 46 17 is_stmt 1
	movq	-104(%rbp), %rdx
	xorl	%eax, %eax
	movl	$1, %ecx
	cmpq	$0, %rdx
	cmoveq	%rcx, %rax
	cmpq	$0, %rax
	jne	LBB24_5
	.loc	7 0 17 is_stmt 0
	movq	-128(%rbp), %rax
	.loc	7 46 17
	movq	-104(%rbp), %rcx
	movq	%rcx, -152(%rbp)
	movq	%rcx, -40(%rbp)
Ltmp165:
	.loc	7 46 17
	movq	%rcx, -32(%rbp)
Ltmp166:
	.loc	7 47 17 is_stmt 1
	movq	16(%rax), %rcx
	movq	%rcx, -144(%rbp)
	movq	%rcx, -24(%rbp)
Ltmp167:
	.loc	7 48 9
	movq	16(%rax), %rax
	addq	$1, %rax
	movq	%rax, -136(%rbp)
	setb	%al
	testb	$1, %al
	jne	LBB24_8
	jmp	LBB24_7
Ltmp168:
LBB24_5:
	.loc	8 2420 21
	movq	$0, -112(%rbp)
Ltmp169:
LBB24_6:
	.loc	7 50 6
	movq	-120(%rbp), %rax
	movq	-112(%rbp), %rdx
	addq	$160, %rsp
	popq	%rbp
	retq
LBB24_7:
	.loc	7 0 6 is_stmt 0
	movq	-152(%rbp), %rax
	movq	-144(%rbp), %rcx
	movq	-128(%rbp), %rdx
	movq	-136(%rbp), %rsi
Ltmp170:
	.loc	7 48 9 is_stmt 1
	movq	%rsi, 16(%rdx)
	.loc	7 49 14
	movq	%rcx, -88(%rbp)
	movq	%rax, -80(%rbp)
	.loc	7 49 9 is_stmt 0
	movq	-88(%rbp), %rcx
	movq	-80(%rbp), %rax
	movq	%rcx, -120(%rbp)
	movq	%rax, -112(%rbp)
Ltmp171:
	.loc	7 50 6 is_stmt 1
	jmp	LBB24_6
LBB24_8:
Ltmp158:
Ltmp172:
	.loc	7 48 9
	leaq	_str.0(%rip), %rdi
	leaq	l___unnamed_2(%rip), %rdx
	movl	$28, %esi
	callq	__ZN4core9panicking5panic17hc1bc45270cf64b03E
Ltmp159:
	jmp	LBB24_11
Ltmp173:
LBB24_9:
	.loc	7 45 5
	movq	-16(%rbp), %rdi
	callq	__Unwind_Resume
Ltmp174:
LBB24_10:
Ltmp160:
	.loc	7 0 5 is_stmt 0
	movq	%rax, %rcx
	movl	%edx, %eax
	movq	%rcx, -16(%rbp)
	movl	%eax, -8(%rbp)
	jmp	LBB24_9
LBB24_11:
	ud2
Lfunc_end24:
	.cfi_endproc
	.section	__TEXT,__gcc_except_tab
	.p2align	2
GCC_except_table24:
Lexception2:
	.byte	255
	.byte	255
	.byte	1
	.uleb128 Lcst_end2-Lcst_begin2
Lcst_begin2:
	.uleb128 Lfunc_begin24-Lfunc_begin24
	.uleb128 Ltmp158-Lfunc_begin24
	.byte	0
	.byte	0
	.uleb128 Ltmp158-Lfunc_begin24
	.uleb128 Ltmp159-Ltmp158
	.uleb128 Ltmp160-Lfunc_begin24
	.byte	0
	.uleb128 Ltmp159-Lfunc_begin24
	.uleb128 Lfunc_end24-Ltmp159
	.byte	0
	.byte	0
Lcst_end2:
	.p2align	2

	.section	__TEXT,__text,regular,pure_instructions
	.globl	__ZN110_$LT$core..ops..range..RangeFrom$LT$usize$GT$$u20$as$u20$core..slice..index..SliceIndex$LT$$u5b$T$u5d$$GT$$GT$5index17h4d2ff2de1c053160E
	.p2align	4, 0x90
__ZN110_$LT$core..ops..range..RangeFrom$LT$usize$GT$$u20$as$u20$core..slice..index..SliceIndex$LT$$u5b$T$u5d$$GT$$GT$5index17h4d2ff2de1c053160E:
Lfunc_begin25:
	.loc	2 493 0 is_stmt 1
	.cfi_startproc
	pushq	%rbp
	.cfi_def_cfa_offset 16
	.cfi_offset %rbp, -16
	movq	%rsp, %rbp
	.cfi_def_cfa_register %rbp
	subq	$144, %rsp
	movq	%rdi, -144(%rbp)
	movq	%rsi, -136(%rbp)
	movq	%rdx, -128(%rbp)
	movq	%rcx, -120(%rbp)
	movq	%rdi, -80(%rbp)
	movq	%rsi, -72(%rbp)
	movq	%rdx, -64(%rbp)
Ltmp175:
	.loc	2 494 12 prologue_end
	cmpq	%rdx, %rdi
	ja	LBB25_2
	.loc	2 0 12 is_stmt 0
	movq	-128(%rbp), %rcx
	movq	-136(%rbp), %rdx
	movq	-144(%rbp), %rsi
	.loc	2 498 20 is_stmt 1
	movq	%rsi, -56(%rbp)
	.loc	2 498 39 is_stmt 0
	movq	%rdx, -48(%rbp)
	movq	%rcx, -40(%rbp)
Ltmp176:
	.loc	2 483 31 is_stmt 1
	movq	%rdx, -32(%rbp)
	movq	%rcx, -24(%rbp)
Ltmp177:
	.loc	3 1630 18
	movq	%rdx, -16(%rbp)
	movq	%rcx, -8(%rbp)
Ltmp178:
	.loc	5 98 14
	movq	%rdx, -96(%rbp)
	movq	%rcx, -88(%rbp)
	movq	-88(%rbp), %rax
Ltmp179:
	.loc	2 483 18
	movq	%rsi, -112(%rbp)
	movq	%rax, -104(%rbp)
	movq	-112(%rbp), %rdi
	movq	-104(%rbp), %rsi
	callq	__ZN106_$LT$core..ops..range..Range$LT$usize$GT$$u20$as$u20$core..slice..index..SliceIndex$LT$$u5b$T$u5d$$GT$$GT$13get_unchecked17h09a7a349f66b1743E
Ltmp180:
	.loc	2 499 6
	addq	$144, %rsp
	popq	%rbp
	retq
LBB25_2:
	.loc	2 0 6 is_stmt 0
	movq	-120(%rbp), %rdx
	movq	-128(%rbp), %rsi
	movq	-144(%rbp), %rdi
	.loc	2 495 13 is_stmt 1
	callq	__ZN4core5slice5index26slice_start_index_len_fail17h9d301bb51ec3e351E
Ltmp181:
Lfunc_end25:
	.cfi_endproc

	.globl	__ZN111_$LT$core..iter..adapters..zip..Zip$LT$A$C$B$GT$$u20$as$u20$core..iter..adapters..zip..ZipImpl$LT$A$C$B$GT$$GT$3new17hb48e1e07eb3332a2E
	.p2align	4, 0x90
__ZN111_$LT$core..iter..adapters..zip..Zip$LT$A$C$B$GT$$u20$as$u20$core..iter..adapters..zip..ZipImpl$LT$A$C$B$GT$$GT$3new17hb48e1e07eb3332a2E:
Lfunc_begin26:
	.loc	1 262 0
	.cfi_startproc
	.cfi_personality 155, _rust_eh_personality
	.cfi_lsda 16, Lexception3
	pushq	%rbp
	.cfi_def_cfa_offset 16
	.cfi_offset %rbp, -16
	movq	%rsp, %rbp
	.cfi_def_cfa_register %rbp
	subq	$144, %rsp
	movq	%rdi, -120(%rbp)
	movq	%rdi, -112(%rbp)
	movq	%rsi, -96(%rbp)
	movq	%rdx, -88(%rbp)
	movq	%rcx, -80(%rbp)
	movq	%r8, -72(%rbp)
Ltmp182:
	leaq	-96(%rbp), %rdi
Ltmp189:
	.loc	1 263 21 prologue_end
	callq	__ZN4core4iter8adapters3zip27TrustedRandomAccessNoCoerce4size17h874f347f7492bed4E
Ltmp183:
	movq	%rax, -104(%rbp)
	jmp	LBB26_3
LBB26_1:
	.loc	1 262 5
	movq	-64(%rbp), %rdi
	callq	__Unwind_Resume
LBB26_2:
Ltmp188:
	.loc	1 0 5 is_stmt 0
	movq	%rax, %rcx
	movl	%edx, %eax
	movq	%rcx, -64(%rbp)
	movl	%eax, -56(%rbp)
	jmp	LBB26_1
LBB26_3:
	movq	-104(%rbp), %rax
	.loc	1 263 21 is_stmt 1
	movq	%rax, -48(%rbp)
Ltmp190:
	.loc	1 264 28
	movq	%rax, -40(%rbp)
Ltmp184:
	leaq	-80(%rbp), %rdi
	.loc	1 264 35 is_stmt 0
	callq	__ZN4core4iter8adapters3zip27TrustedRandomAccessNoCoerce4size17h874f347f7492bed4E
Ltmp185:
	movq	%rax, -128(%rbp)
	jmp	LBB26_4
LBB26_4:
	.loc	1 0 35
	movq	-128(%rbp), %rsi
	movq	-104(%rbp), %rdi
	.loc	1 264 35
	movq	%rsi, -32(%rbp)
Ltmp191:
	.file	9 "/rustc/2c8cc343237b8f7d5a3c3703e3a87f2eb2c54a74/library/core/src" "cmp.rs"
	.loc	9 1185 5 is_stmt 1
	movq	%rdi, -24(%rbp)
	.loc	9 1185 12 is_stmt 0
	movq	%rsi, -16(%rbp)
Ltmp186:
Ltmp192:
	.loc	9 833 13 is_stmt 1
	callq	__ZN4core3cmp6min_by17hdd747a6835412516E
Ltmp187:
	movq	%rax, -136(%rbp)
	jmp	LBB26_5
LBB26_5:
	.loc	9 0 13 is_stmt 0
	movq	-112(%rbp), %rax
	movq	-120(%rbp), %rcx
	movq	-104(%rbp), %rdx
	movq	-136(%rbp), %rsi
	.loc	9 833 13
	movq	%rsi, -8(%rbp)
Ltmp193:
	.loc	1 265 15 is_stmt 1
	movq	-96(%rbp), %r10
	movq	-88(%rbp), %r9
	.loc	1 265 18 is_stmt 0
	movq	-80(%rbp), %r8
	movq	-72(%rbp), %rdi
	.loc	1 265 9
	movq	%r10, (%rcx)
	movq	%r9, 8(%rcx)
	movq	%r8, 16(%rcx)
	movq	%rdi, 24(%rcx)
	movq	$0, 32(%rcx)
	movq	%rsi, 40(%rcx)
	movq	%rdx, 48(%rcx)
Ltmp194:
	.loc	1 266 6 is_stmt 1
	addq	$144, %rsp
	popq	%rbp
	retq
Ltmp195:
Lfunc_end26:
	.cfi_endproc
	.section	__TEXT,__gcc_except_tab
	.p2align	2
GCC_except_table26:
Lexception3:
	.byte	255
	.byte	255
	.byte	1
	.uleb128 Lcst_end3-Lcst_begin3
Lcst_begin3:
	.uleb128 Ltmp182-Lfunc_begin26
	.uleb128 Ltmp183-Ltmp182
	.uleb128 Ltmp188-Lfunc_begin26
	.byte	0
	.uleb128 Ltmp183-Lfunc_begin26
	.uleb128 Ltmp184-Ltmp183
	.byte	0
	.byte	0
	.uleb128 Ltmp184-Lfunc_begin26
	.uleb128 Ltmp187-Ltmp184
	.uleb128 Ltmp188-Lfunc_begin26
	.byte	0
Lcst_end3:
	.p2align	2

	.section	__TEXT,__text,regular,pure_instructions
	.globl	__ZN111_$LT$core..iter..adapters..zip..Zip$LT$A$C$B$GT$$u20$as$u20$core..iter..adapters..zip..ZipImpl$LT$A$C$B$GT$$GT$4next17h44273ef8cdd33bddE
	.p2align	4, 0x90
__ZN111_$LT$core..iter..adapters..zip..Zip$LT$A$C$B$GT$$u20$as$u20$core..iter..adapters..zip..ZipImpl$LT$A$C$B$GT$$GT$4next17h44273ef8cdd33bddE:
Lfunc_begin27:
	.loc	1 269 0
	.cfi_startproc
	.cfi_personality 155, _rust_eh_personality
	.cfi_lsda 16, Lexception4
	pushq	%rbp
	.cfi_def_cfa_offset 16
	.cfi_offset %rbp, -16
	movq	%rsp, %rbp
	.cfi_def_cfa_register %rbp
	subq	$112, %rsp
	movq	%rdi, -88(%rbp)
	movq	%rdi, -40(%rbp)
Ltmp199:
	.loc	1 270 12 prologue_end
	movq	32(%rdi), %rax
	cmpq	40(%rdi), %rax
	jb	LBB27_2
	.loc	1 279 19
	xorl	%eax, %eax
	testb	$1, %al
	jne	LBB27_8
	jmp	LBB27_7
LBB27_2:
	.loc	1 0 19 is_stmt 0
	movq	-88(%rbp), %rdi
	.loc	1 271 21 is_stmt 1
	movq	32(%rdi), %rsi
	movq	%rsi, -112(%rbp)
	movq	%rsi, -32(%rbp)
Ltmp200:
	.loc	1 274 13
	movq	32(%rdi), %rax
	incq	%rax
	movq	%rax, 32(%rdi)
	.loc	1 277 23
	callq	__ZN91_$LT$core..slice..iter..Iter$LT$T$GT$$u20$as$u20$core..iter..traits..iterator..Iterator$GT$24__iterator_get_unchecked17hba0bed423a9fd018E
	movq	-88(%rbp), %rdi
	movq	-112(%rbp), %rsi
	movq	%rax, -104(%rbp)
	.loc	1 277 59 is_stmt 0
	addq	$16, %rdi
Ltmp196:
	callq	__ZN91_$LT$core..slice..iter..Iter$LT$T$GT$$u20$as$u20$core..iter..traits..iterator..Iterator$GT$24__iterator_get_unchecked17hba0bed423a9fd018E
Ltmp197:
	movq	%rax, -96(%rbp)
	jmp	LBB27_5
Ltmp201:
LBB27_3:
	.loc	1 269 5 is_stmt 1
	movq	-24(%rbp), %rdi
	callq	__Unwind_Resume
LBB27_4:
Ltmp198:
	.loc	1 0 5 is_stmt 0
	movq	%rax, %rcx
	movl	%edx, %eax
	movq	%rcx, -24(%rbp)
	movl	%eax, -16(%rbp)
	jmp	LBB27_3
LBB27_5:
	movq	-96(%rbp), %rax
	movq	-104(%rbp), %rcx
Ltmp202:
	.loc	1 277 22 is_stmt 1
	movq	%rcx, -64(%rbp)
	movq	%rax, -56(%rbp)
	.loc	1 277 17 is_stmt 0
	movq	-64(%rbp), %rcx
	movq	-56(%rbp), %rax
	movq	%rcx, -80(%rbp)
	movq	%rax, -72(%rbp)
Ltmp203:
LBB27_6:
	.loc	1 293 6 is_stmt 1
	movq	-80(%rbp), %rax
	movq	-72(%rbp), %rdx
	addq	$112, %rsp
	popq	%rbp
	retq
LBB27_7:
	.loc	1 279 19
	movb	$0, -41(%rbp)
	jmp	LBB27_9
LBB27_8:
	.loc	1 0 19 is_stmt 0
	movq	-88(%rbp), %rcx
	.loc	1 279 46
	movq	32(%rcx), %rax
	cmpq	48(%rcx), %rax
	setb	%al
	.loc	1 279 19
	andb	$1, %al
	movb	%al, -41(%rbp)
LBB27_9:
	testb	$1, -41(%rbp)
	jne	LBB27_11
	.loc	1 291 13 is_stmt 1
	movq	$0, -80(%rbp)
	.loc	1 279 16
	jmp	LBB27_12
LBB27_11:
	.loc	1 0 16 is_stmt 0
	movq	-88(%rbp), %rdi
	.loc	1 280 21 is_stmt 1
	movq	32(%rdi), %rsi
	movq	%rsi, -8(%rbp)
Ltmp204:
	.loc	1 282 13
	movq	32(%rdi), %rax
	addq	$1, %rax
	movq	%rax, 32(%rdi)
	.loc	1 283 13
	movq	40(%rdi), %rax
	addq	$1, %rax
	movq	%rax, 40(%rdi)
	.loc	1 287 17
	callq	__ZN91_$LT$core..slice..iter..Iter$LT$T$GT$$u20$as$u20$core..iter..traits..iterator..Iterator$GT$24__iterator_get_unchecked17hba0bed423a9fd018E
	.loc	1 289 13
	movq	$0, -80(%rbp)
Ltmp205:
LBB27_12:
	.loc	1 270 9
	jmp	LBB27_6
Ltmp206:
Lfunc_end27:
	.cfi_endproc
	.section	__TEXT,__gcc_except_tab
	.p2align	2
GCC_except_table27:
Lexception4:
	.byte	255
	.byte	255
	.byte	1
	.uleb128 Lcst_end4-Lcst_begin4
Lcst_begin4:
	.uleb128 Lfunc_begin27-Lfunc_begin27
	.uleb128 Ltmp196-Lfunc_begin27
	.byte	0
	.byte	0
	.uleb128 Ltmp196-Lfunc_begin27
	.uleb128 Ltmp197-Ltmp196
	.uleb128 Ltmp198-Lfunc_begin27
	.byte	0
	.uleb128 Ltmp197-Lfunc_begin27
	.uleb128 Lfunc_end27-Ltmp197
	.byte	0
	.byte	0
Lcst_end4:
	.p2align	2

	.section	__TEXT,__text,regular,pure_instructions
	.globl	__ZN119_$LT$core..ptr..non_null..NonNull$LT$T$GT$$u20$as$u20$core..convert..From$LT$core..ptr..unique..Unique$LT$T$GT$$GT$$GT$4from17h99e12079fd6e556bE
	.p2align	4, 0x90
__ZN119_$LT$core..ptr..non_null..NonNull$LT$T$GT$$u20$as$u20$core..convert..From$LT$core..ptr..unique..Unique$LT$T$GT$$GT$$GT$4from17h99e12079fd6e556bE:
Lfunc_begin28:
	.file	10 "/rustc/2c8cc343237b8f7d5a3c3703e3a87f2eb2c54a74/library/core/src/ptr" "non_null.rs"
	.loc	10 765 0
	.cfi_startproc
	pushq	%rbp
	.cfi_def_cfa_offset 16
	.cfi_offset %rbp, -16
	movq	%rsp, %rbp
	.cfi_def_cfa_register %rbp
	subq	$40, %rsp
	movq	%rdi, -32(%rbp)
Ltmp207:
	.loc	10 768 41 prologue_end
	movq	%rdi, -24(%rbp)
Ltmp208:
	.file	11 "/rustc/2c8cc343237b8f7d5a3c3703e3a87f2eb2c54a74/library/core/src/ptr" "unique.rs"
	.loc	11 104 9
	movq	%rdi, -16(%rbp)
Ltmp209:
	.loc	10 326 9
	movq	%rdi, -8(%rbp)
Ltmp210:
	.loc	10 201 13
	movq	%rdi, -40(%rbp)
Ltmp211:
	.loc	10 769 6
	movq	-40(%rbp), %rax
	addq	$40, %rsp
	popq	%rbp
	retq
Ltmp212:
Lfunc_end28:
	.cfi_endproc

	.globl	__ZN42_$LT$$RF$T$u20$as$u20$core..fmt..Debug$GT$3fmt17h0d4fcbd0676e73adE
	.p2align	4, 0x90
__ZN42_$LT$$RF$T$u20$as$u20$core..fmt..Debug$GT$3fmt17h0d4fcbd0676e73adE:
Lfunc_begin29:
	.file	12 "/rustc/2c8cc343237b8f7d5a3c3703e3a87f2eb2c54a74/library/core/src/fmt" "mod.rs"
	.loc	12 2377 0
	.cfi_startproc
	pushq	%rbp
	.cfi_def_cfa_offset 16
	.cfi_offset %rbp, -16
	movq	%rsp, %rbp
	.cfi_def_cfa_register %rbp
	subq	$16, %rsp
	movq	%rdi, -16(%rbp)
	movq	%rsi, -8(%rbp)
Ltmp213:
	.loc	12 2377 71 prologue_end
	movq	(%rdi), %rdi
	.loc	12 2377 62 is_stmt 0
	callq	__ZN4core3fmt3num52_$LT$impl$u20$core..fmt..Debug$u20$for$u20$usize$GT$3fmt17h312b5fe06abb2d48E
	.loc	12 2377 84
	andb	$1, %al
	movzbl	%al, %eax
	addq	$16, %rsp
	popq	%rbp
	retq
Ltmp214:
Lfunc_end29:
	.cfi_endproc

	.p2align	4, 0x90
__ZN45_$LT$f32$u20$as$u20$core..ops..arith..Div$GT$3div17h55eb274b7098a217E:
Lfunc_begin30:
	.file	13 "/rustc/2c8cc343237b8f7d5a3c3703e3a87f2eb2c54a74/library/core/src/ops" "arith.rs"
	.loc	13 501 0 is_stmt 1
	.cfi_startproc
	pushq	%rbp
	.cfi_def_cfa_offset 16
	.cfi_offset %rbp, -16
	movq	%rsp, %rbp
	.cfi_def_cfa_register %rbp
	pushq	%rax
	movss	%xmm0, -8(%rbp)
	movss	%xmm1, -4(%rbp)
Ltmp215:
	.loc	13 501 45 prologue_end
	divss	%xmm1, %xmm0
	.loc	13 501 59 is_stmt 0
	addq	$8, %rsp
	popq	%rbp
	retq
Ltmp216:
Lfunc_end30:
	.cfi_endproc

	.p2align	4, 0x90
__ZN45_$LT$f32$u20$as$u20$core..ops..arith..Mul$GT$3mul17h15d98c16ce92cd97E:
Lfunc_begin31:
	.loc	13 342 0 is_stmt 1
	.cfi_startproc
	pushq	%rbp
	.cfi_def_cfa_offset 16
	.cfi_offset %rbp, -16
	movq	%rsp, %rbp
	.cfi_def_cfa_register %rbp
	pushq	%rax
	movss	%xmm0, -8(%rbp)
	movss	%xmm1, -4(%rbp)
Ltmp217:
	.loc	13 342 45 prologue_end
	mulss	%xmm1, %xmm0
	.loc	13 342 59 is_stmt 0
	addq	$8, %rsp
	popq	%rbp
	retq
Ltmp218:
Lfunc_end31:
	.cfi_endproc

	.p2align	4, 0x90
__ZN45_$LT$f32$u20$as$u20$core..ops..arith..Neg$GT$3neg17h5188f88ba6090898E:
Lfunc_begin32:
	.loc	13 695 0 is_stmt 1
	.cfi_startproc
	pushq	%rbp
	.cfi_def_cfa_offset 16
	.cfi_offset %rbp, -16
	movq	%rsp, %rbp
	.cfi_def_cfa_register %rbp
	subq	$4, %rsp
	movss	%xmm0, -4(%rbp)
Ltmp219:
	.loc	13 695 34 prologue_end
	movd	%xmm0, %eax
	xorl	$2147483648, %eax
	movd	%eax, %xmm0
	.loc	13 695 41 is_stmt 0
	addq	$4, %rsp
	popq	%rbp
	retq
Ltmp220:
Lfunc_end32:
	.cfi_endproc

	.p2align	4, 0x90
__ZN4core3cmp5impls48_$LT$impl$u20$core..cmp..Ord$u20$for$u20$u16$GT$3cmp17hde323baeaf50147dE:
Lfunc_begin33:
	.loc	9 1454 0 is_stmt 1
	.cfi_startproc
	pushq	%rbp
	.cfi_def_cfa_offset 16
	.cfi_offset %rbp, -16
	movq	%rsp, %rbp
	.cfi_def_cfa_register %rbp
	subq	$40, %rsp
	movq	%rdi, -40(%rbp)
	movq	%rsi, -32(%rbp)
	movq	%rdi, -16(%rbp)
	movq	%rsi, -8(%rbp)
Ltmp221:
	.loc	9 1457 24 prologue_end
	movw	(%rdi), %ax
	cmpw	(%rsi), %ax
	jb	LBB33_2
	.loc	9 0 24 is_stmt 0
	movq	-32(%rbp), %rcx
	movq	-40(%rbp), %rax
	.loc	9 1458 29 is_stmt 1
	movw	(%rax), %ax
	cmpw	(%rcx), %ax
	je	LBB33_5
	jmp	LBB33_4
LBB33_2:
	.loc	9 1457 41
	movb	$-1, -17(%rbp)
LBB33_3:
	.loc	9 1460 18
	movb	-17(%rbp), %al
	addq	$40, %rsp
	popq	%rbp
	retq
LBB33_4:
	.loc	9 1459 28
	movb	$1, -17(%rbp)
	.loc	9 1458 26
	jmp	LBB33_6
LBB33_5:
	.loc	9 1458 47 is_stmt 0
	movb	$0, -17(%rbp)
LBB33_6:
	.loc	9 1457 21 is_stmt 1
	jmp	LBB33_3
Ltmp222:
Lfunc_end33:
	.cfi_endproc

	.p2align	4, 0x90
__ZN4core3cmp5impls50_$LT$impl$u20$core..cmp..Ord$u20$for$u20$usize$GT$3cmp17h18974f5839511261E:
Lfunc_begin34:
	.loc	9 1454 0
	.cfi_startproc
	pushq	%rbp
	.cfi_def_cfa_offset 16
	.cfi_offset %rbp, -16
	movq	%rsp, %rbp
	.cfi_def_cfa_register %rbp
	subq	$40, %rsp
	movq	%rdi, -40(%rbp)
	movq	%rsi, -32(%rbp)
	movq	%rdi, -16(%rbp)
	movq	%rsi, -8(%rbp)
Ltmp223:
	.loc	9 1457 24 prologue_end
	movq	(%rdi), %rax
	cmpq	(%rsi), %rax
	jb	LBB34_2
	.loc	9 0 24 is_stmt 0
	movq	-32(%rbp), %rcx
	movq	-40(%rbp), %rax
	.loc	9 1458 29 is_stmt 1
	movq	(%rax), %rax
	cmpq	(%rcx), %rax
	je	LBB34_5
	jmp	LBB34_4
LBB34_2:
	.loc	9 1457 41
	movb	$-1, -17(%rbp)
LBB34_3:
	.loc	9 1460 18
	movb	-17(%rbp), %al
	addq	$40, %rsp
	popq	%rbp
	retq
LBB34_4:
	.loc	9 1459 28
	movb	$1, -17(%rbp)
	.loc	9 1458 26
	jmp	LBB34_6
LBB34_5:
	.loc	9 1458 47 is_stmt 0
	movb	$0, -17(%rbp)
LBB34_6:
	.loc	9 1457 21 is_stmt 1
	jmp	LBB34_3
Ltmp224:
Lfunc_end34:
	.cfi_endproc

	.globl	__ZN4core3cmp6min_by17hdd747a6835412516E
	.p2align	4, 0x90
__ZN4core3cmp6min_by17hdd747a6835412516E:
Lfunc_begin35:
	.loc	9 1204 0
	.cfi_startproc
	.cfi_personality 155, _rust_eh_personality
	.cfi_lsda 16, Lexception5
	pushq	%rbp
	.cfi_def_cfa_offset 16
	.cfi_offset %rbp, -16
	movq	%rsp, %rbp
	.cfi_def_cfa_register %rbp
	subq	$96, %rsp
	movq	%rdi, -80(%rbp)
	movq	%rsi, -72(%rbp)
Ltmp228:
	.loc	9 1209 11 prologue_end
	movb	$1, -25(%rbp)
	movb	$1, -26(%rbp)
	leaq	-80(%rbp), %rax
	movq	%rax, -48(%rbp)
	leaq	-72(%rbp), %rax
	movq	%rax, -40(%rbp)
	movq	-48(%rbp), %rdi
	movq	-40(%rbp), %rsi
Ltmp225:
	callq	__ZN4core3ops8function6FnOnce9call_once17hdc0da3090daea70eE
Ltmp226:
	movb	%al, -81(%rbp)
	jmp	LBB35_3
LBB35_1:
	.loc	9 1213 1
	jmp	LBB35_4
LBB35_2:
Ltmp227:
	.loc	9 0 1 is_stmt 0
	movq	%rax, %rcx
	movl	%edx, %eax
	movq	%rcx, -16(%rbp)
	movl	%eax, -8(%rbp)
	jmp	LBB35_1
LBB35_3:
	movb	-81(%rbp), %al
	.loc	9 1209 11 is_stmt 1
	movb	%al, -49(%rbp)
	movb	-49(%rbp), %al
	.loc	9 1209 5 is_stmt 0
	incb	%al
	subb	$2, %al
	jb	LBB35_6
	jmp	LBB35_15
LBB35_15:
	jmp	LBB35_7
LBB35_4:
	.loc	9 1213 1 is_stmt 1
	testb	$1, -25(%rbp)
	jne	LBB35_12
	jmp	LBB35_11
	.loc	9 1209 11
	ud2
LBB35_6:
	.loc	9 1210 45
	movb	$0, -25(%rbp)
	movq	-80(%rbp), %rax
	movq	%rax, -64(%rbp)
	jmp	LBB35_8
LBB35_7:
	.loc	9 1211 30
	movb	$0, -26(%rbp)
	movq	-72(%rbp), %rax
	movq	%rax, -64(%rbp)
LBB35_8:
	.loc	9 1213 1
	testb	$1, -26(%rbp)
	jne	LBB35_10
LBB35_9:
	testb	$1, -25(%rbp)
	jne	LBB35_14
	jmp	LBB35_13
LBB35_10:
	jmp	LBB35_9
LBB35_11:
	.loc	9 1204 1
	movq	-16(%rbp), %rdi
	callq	__Unwind_Resume
LBB35_12:
	.loc	9 1213 1
	jmp	LBB35_11
LBB35_13:
	.loc	9 1213 2 is_stmt 0
	movq	-64(%rbp), %rax
	addq	$96, %rsp
	popq	%rbp
	retq
LBB35_14:
	.loc	9 1213 1
	jmp	LBB35_13
Ltmp229:
Lfunc_end35:
	.cfi_endproc
	.section	__TEXT,__gcc_except_tab
	.p2align	2
GCC_except_table35:
Lexception5:
	.byte	255
	.byte	255
	.byte	1
	.uleb128 Lcst_end5-Lcst_begin5
Lcst_begin5:
	.uleb128 Ltmp225-Lfunc_begin35
	.uleb128 Ltmp226-Ltmp225
	.uleb128 Ltmp227-Lfunc_begin35
	.byte	0
	.uleb128 Ltmp226-Lfunc_begin35
	.uleb128 Lfunc_end35-Ltmp226
	.byte	0
	.byte	0
Lcst_end5:
	.p2align	2

	.section	__TEXT,__text,regular,pure_instructions
	.globl	__ZN4core3fmt10ArgumentV110new_binary17he79d804dc1400461E
	.p2align	4, 0x90
__ZN4core3fmt10ArgumentV110new_binary17he79d804dc1400461E:
Lfunc_begin36:
	.loc	12 327 0 is_stmt 1
	.cfi_startproc
	pushq	%rbp
	.cfi_def_cfa_offset 16
	.cfi_offset %rbp, -16
	movq	%rsp, %rbp
	.cfi_def_cfa_register %rbp
	subq	$56, %rsp
	movq	%rdi, -40(%rbp)
Ltmp230:
	.loc	12 328 23 prologue_end
	movq	%rdi, -32(%rbp)
	.loc	12 328 26 is_stmt 0
	movq	__ZN4core3fmt3num51_$LT$impl$u20$core..fmt..Binary$u20$for$u20$u16$GT$3fmt17h789beb97df0bd1e4E@GOTPCREL(%rip), %rax
	movq	%rax, -24(%rbp)
Ltmp231:
	.loc	12 347 42 is_stmt 1
	movq	%rax, -16(%rbp)
	movq	-16(%rbp), %rax
	.loc	12 347 68 is_stmt 0
	movq	%rdi, -8(%rbp)
	movq	-8(%rbp), %rcx
	.loc	12 347 18
	movq	%rcx, -56(%rbp)
	movq	%rax, -48(%rbp)
Ltmp232:
	.loc	12 329 10 is_stmt 1
	movq	-56(%rbp), %rax
	movq	-48(%rbp), %rdx
	addq	$56, %rsp
	popq	%rbp
	retq
Ltmp233:
Lfunc_end36:
	.cfi_endproc

	.globl	__ZN4core3fmt10ArgumentV111new_display17h563f90b56da468daE
	.p2align	4, 0x90
__ZN4core3fmt10ArgumentV111new_display17h563f90b56da468daE:
Lfunc_begin37:
	.loc	12 327 0
	.cfi_startproc
	pushq	%rbp
	.cfi_def_cfa_offset 16
	.cfi_offset %rbp, -16
	movq	%rsp, %rbp
	.cfi_def_cfa_register %rbp
	subq	$56, %rsp
	movq	%rdi, -40(%rbp)
Ltmp234:
	.loc	12 328 23 prologue_end
	movq	%rdi, -32(%rbp)
	.loc	12 328 26 is_stmt 0
	movq	__ZN4core3fmt5float52_$LT$impl$u20$core..fmt..Display$u20$for$u20$f32$GT$3fmt17h9a60df429edb12f4E@GOTPCREL(%rip), %rax
	movq	%rax, -24(%rbp)
Ltmp235:
	.loc	12 347 42 is_stmt 1
	movq	%rax, -16(%rbp)
	movq	-16(%rbp), %rax
	.loc	12 347 68 is_stmt 0
	movq	%rdi, -8(%rbp)
	movq	-8(%rbp), %rcx
	.loc	12 347 18
	movq	%rcx, -56(%rbp)
	movq	%rax, -48(%rbp)
Ltmp236:
	.loc	12 329 10 is_stmt 1
	movq	-56(%rbp), %rax
	movq	-48(%rbp), %rdx
	addq	$56, %rsp
	popq	%rbp
	retq
Ltmp237:
Lfunc_end37:
	.cfi_endproc

	.globl	__ZN4core3fmt10ArgumentV113new_lower_exp17hd01f5e0d6933bd27E
	.p2align	4, 0x90
__ZN4core3fmt10ArgumentV113new_lower_exp17hd01f5e0d6933bd27E:
Lfunc_begin38:
	.loc	12 327 0
	.cfi_startproc
	pushq	%rbp
	.cfi_def_cfa_offset 16
	.cfi_offset %rbp, -16
	movq	%rsp, %rbp
	.cfi_def_cfa_register %rbp
	subq	$56, %rsp
	movq	%rdi, -40(%rbp)
Ltmp238:
	.loc	12 328 23 prologue_end
	movq	%rdi, -32(%rbp)
	.loc	12 328 26 is_stmt 0
	movq	__ZN4core3fmt5float53_$LT$impl$u20$core..fmt..LowerExp$u20$for$u20$f32$GT$3fmt17hd114888384c80e36E@GOTPCREL(%rip), %rax
	movq	%rax, -24(%rbp)
Ltmp239:
	.loc	12 347 42 is_stmt 1
	movq	%rax, -16(%rbp)
	movq	-16(%rbp), %rax
	.loc	12 347 68 is_stmt 0
	movq	%rdi, -8(%rbp)
	movq	-8(%rbp), %rcx
	.loc	12 347 18
	movq	%rcx, -56(%rbp)
	movq	%rax, -48(%rbp)
Ltmp240:
	.loc	12 329 10 is_stmt 1
	movq	-56(%rbp), %rax
	movq	-48(%rbp), %rdx
	addq	$56, %rsp
	popq	%rbp
	retq
Ltmp241:
Lfunc_end38:
	.cfi_endproc

	.globl	__ZN4core3fmt10ArgumentV113new_lower_hex17hd49c7c53550c0552E
	.p2align	4, 0x90
__ZN4core3fmt10ArgumentV113new_lower_hex17hd49c7c53550c0552E:
Lfunc_begin39:
	.loc	12 327 0
	.cfi_startproc
	pushq	%rbp
	.cfi_def_cfa_offset 16
	.cfi_offset %rbp, -16
	movq	%rsp, %rbp
	.cfi_def_cfa_register %rbp
	subq	$56, %rsp
	movq	%rdi, -40(%rbp)
Ltmp242:
	.loc	12 328 23 prologue_end
	movq	%rdi, -32(%rbp)
	.loc	12 328 26 is_stmt 0
	movq	__ZN4core3fmt3num53_$LT$impl$u20$core..fmt..LowerHex$u20$for$u20$u16$GT$3fmt17he1af57f7bbe2599fE@GOTPCREL(%rip), %rax
	movq	%rax, -24(%rbp)
Ltmp243:
	.loc	12 347 42 is_stmt 1
	movq	%rax, -16(%rbp)
	movq	-16(%rbp), %rax
	.loc	12 347 68 is_stmt 0
	movq	%rdi, -8(%rbp)
	movq	-8(%rbp), %rcx
	.loc	12 347 18
	movq	%rcx, -56(%rbp)
	movq	%rax, -48(%rbp)
Ltmp244:
	.loc	12 329 10 is_stmt 1
	movq	-56(%rbp), %rax
	movq	-48(%rbp), %rdx
	addq	$56, %rsp
	popq	%rbp
	retq
Ltmp245:
Lfunc_end39:
	.cfi_endproc

	.globl	__ZN4core3fmt10ArgumentV113new_upper_exp17hcdead4c8b5163c98E
	.p2align	4, 0x90
__ZN4core3fmt10ArgumentV113new_upper_exp17hcdead4c8b5163c98E:
Lfunc_begin40:
	.loc	12 327 0
	.cfi_startproc
	pushq	%rbp
	.cfi_def_cfa_offset 16
	.cfi_offset %rbp, -16
	movq	%rsp, %rbp
	.cfi_def_cfa_register %rbp
	subq	$56, %rsp
	movq	%rdi, -40(%rbp)
Ltmp246:
	.loc	12 328 23 prologue_end
	movq	%rdi, -32(%rbp)
	.loc	12 328 26 is_stmt 0
	movq	__ZN4core3fmt5float53_$LT$impl$u20$core..fmt..UpperExp$u20$for$u20$f32$GT$3fmt17hc665245349371bacE@GOTPCREL(%rip), %rax
	movq	%rax, -24(%rbp)
Ltmp247:
	.loc	12 347 42 is_stmt 1
	movq	%rax, -16(%rbp)
	movq	-16(%rbp), %rax
	.loc	12 347 68 is_stmt 0
	movq	%rdi, -8(%rbp)
	movq	-8(%rbp), %rcx
	.loc	12 347 18
	movq	%rcx, -56(%rbp)
	movq	%rax, -48(%rbp)
Ltmp248:
	.loc	12 329 10 is_stmt 1
	movq	-56(%rbp), %rax
	movq	-48(%rbp), %rdx
	addq	$56, %rsp
	popq	%rbp
	retq
Ltmp249:
Lfunc_end40:
	.cfi_endproc

	.globl	__ZN4core3fmt10ArgumentV113new_upper_hex17h0e7fa9d84f011d93E
	.p2align	4, 0x90
__ZN4core3fmt10ArgumentV113new_upper_hex17h0e7fa9d84f011d93E:
Lfunc_begin41:
	.loc	12 327 0
	.cfi_startproc
	pushq	%rbp
	.cfi_def_cfa_offset 16
	.cfi_offset %rbp, -16
	movq	%rsp, %rbp
	.cfi_def_cfa_register %rbp
	subq	$56, %rsp
	movq	%rdi, -40(%rbp)
Ltmp250:
	.loc	12 328 23 prologue_end
	movq	%rdi, -32(%rbp)
	.loc	12 328 26 is_stmt 0
	movq	__ZN4core3fmt3num53_$LT$impl$u20$core..fmt..UpperHex$u20$for$u20$u16$GT$3fmt17h2cf7e042780f1009E@GOTPCREL(%rip), %rax
	movq	%rax, -24(%rbp)
Ltmp251:
	.loc	12 347 42 is_stmt 1
	movq	%rax, -16(%rbp)
	movq	-16(%rbp), %rax
	.loc	12 347 68 is_stmt 0
	movq	%rdi, -8(%rbp)
	movq	-8(%rbp), %rcx
	.loc	12 347 18
	movq	%rcx, -56(%rbp)
	movq	%rax, -48(%rbp)
Ltmp252:
	.loc	12 329 10 is_stmt 1
	movq	-56(%rbp), %rax
	movq	-48(%rbp), %rdx
	addq	$56, %rsp
	popq	%rbp
	retq
Ltmp253:
Lfunc_end41:
	.cfi_endproc

	.globl	__ZN4core3fmt10ArgumentV19new_debug17h0a56dd725a0b88f1E
	.p2align	4, 0x90
__ZN4core3fmt10ArgumentV19new_debug17h0a56dd725a0b88f1E:
Lfunc_begin42:
	.loc	12 327 0
	.cfi_startproc
	pushq	%rbp
	.cfi_def_cfa_offset 16
	.cfi_offset %rbp, -16
	movq	%rsp, %rbp
	.cfi_def_cfa_register %rbp
	subq	$56, %rsp
	movq	%rdi, -40(%rbp)
Ltmp254:
	.loc	12 328 23 prologue_end
	movq	%rdi, -32(%rbp)
	.loc	12 328 26 is_stmt 0
	movq	__ZN4core3fmt5float50_$LT$impl$u20$core..fmt..Debug$u20$for$u20$f32$GT$3fmt17h32a9f944cf501db5E@GOTPCREL(%rip), %rax
	movq	%rax, -24(%rbp)
Ltmp255:
	.loc	12 347 42 is_stmt 1
	movq	%rax, -16(%rbp)
	movq	-16(%rbp), %rax
	.loc	12 347 68 is_stmt 0
	movq	%rdi, -8(%rbp)
	movq	-8(%rbp), %rcx
	.loc	12 347 18
	movq	%rcx, -56(%rbp)
	movq	%rax, -48(%rbp)
Ltmp256:
	.loc	12 329 10 is_stmt 1
	movq	-56(%rbp), %rax
	movq	-48(%rbp), %rdx
	addq	$56, %rsp
	popq	%rbp
	retq
Ltmp257:
Lfunc_end42:
	.cfi_endproc

	.globl	__ZN4core3fmt10ArgumentV19new_octal17h2175239e1fb7c3f4E
	.p2align	4, 0x90
__ZN4core3fmt10ArgumentV19new_octal17h2175239e1fb7c3f4E:
Lfunc_begin43:
	.loc	12 327 0
	.cfi_startproc
	pushq	%rbp
	.cfi_def_cfa_offset 16
	.cfi_offset %rbp, -16
	movq	%rsp, %rbp
	.cfi_def_cfa_register %rbp
	subq	$56, %rsp
	movq	%rdi, -40(%rbp)
Ltmp258:
	.loc	12 328 23 prologue_end
	movq	%rdi, -32(%rbp)
	.loc	12 328 26 is_stmt 0
	movq	__ZN4core3fmt3num50_$LT$impl$u20$core..fmt..Octal$u20$for$u20$u16$GT$3fmt17h81a40802f7e1355eE@GOTPCREL(%rip), %rax
	movq	%rax, -24(%rbp)
Ltmp259:
	.loc	12 347 42 is_stmt 1
	movq	%rax, -16(%rbp)
	movq	-16(%rbp), %rax
	.loc	12 347 68 is_stmt 0
	movq	%rdi, -8(%rbp)
	movq	-8(%rbp), %rcx
	.loc	12 347 18
	movq	%rcx, -56(%rbp)
	movq	%rax, -48(%rbp)
Ltmp260:
	.loc	12 329 10 is_stmt 1
	movq	-56(%rbp), %rax
	movq	-48(%rbp), %rdx
	addq	$56, %rsp
	popq	%rbp
	retq
Ltmp261:
Lfunc_end43:
	.cfi_endproc

	.p2align	4, 0x90
__ZN4core3fmt3num52_$LT$impl$u20$core..fmt..Debug$u20$for$u20$usize$GT$3fmt17h312b5fe06abb2d48E:
Lfunc_begin44:
	.file	14 "/rustc/2c8cc343237b8f7d5a3c3703e3a87f2eb2c54a74/library/core/src/fmt" "num.rs"
	.loc	14 185 0
	.cfi_startproc
	pushq	%rbp
	.cfi_def_cfa_offset 16
	.cfi_offset %rbp, -16
	movq	%rsp, %rbp
	.cfi_def_cfa_register %rbp
	subq	$48, %rsp
	movq	%rsi, -48(%rbp)
	movq	%rdi, %rax
	movq	-48(%rbp), %rdi
	movq	%rax, -40(%rbp)
	movq	%rdi, -32(%rbp)
	movq	%rax, -16(%rbp)
	movq	%rdi, -8(%rbp)
Ltmp262:
	.loc	14 186 20 prologue_end
	callq	__ZN4core3fmt9Formatter15debug_lower_hex17h0921e6b9188d914eE
	testb	$1, %al
	jne	LBB44_2
	.loc	14 0 20 is_stmt 0
	movq	-32(%rbp), %rdi
	.loc	14 188 27 is_stmt 1
	callq	__ZN4core3fmt9Formatter15debug_upper_hex17h8ce487049a6cccf8E
	testb	$1, %al
	jne	LBB44_5
	jmp	LBB44_4
LBB44_2:
	.loc	14 0 27 is_stmt 0
	movq	-32(%rbp), %rsi
	movq	-40(%rbp), %rdi
	.loc	14 187 21 is_stmt 1
	callq	__ZN4core3fmt3num55_$LT$impl$u20$core..fmt..LowerHex$u20$for$u20$usize$GT$3fmt17h84f349805fe63f8dE
	andb	$1, %al
	movb	%al, -17(%rbp)
LBB44_3:
	.loc	14 193 14
	movb	-17(%rbp), %al
	andb	$1, %al
	movzbl	%al, %eax
	addq	$48, %rsp
	popq	%rbp
	retq
LBB44_4:
	.loc	14 0 14 is_stmt 0
	movq	-32(%rbp), %rsi
	movq	-40(%rbp), %rdi
	.loc	14 191 21 is_stmt 1
	callq	__ZN4core3fmt3num3imp54_$LT$impl$u20$core..fmt..Display$u20$for$u20$usize$GT$3fmt17ha5c925fcd7ed33faE
	andb	$1, %al
	movb	%al, -17(%rbp)
	.loc	14 188 24
	jmp	LBB44_6
LBB44_5:
	.loc	14 0 24 is_stmt 0
	movq	-32(%rbp), %rsi
	movq	-40(%rbp), %rdi
	.loc	14 189 21 is_stmt 1
	callq	__ZN4core3fmt3num55_$LT$impl$u20$core..fmt..UpperHex$u20$for$u20$usize$GT$3fmt17h49aa717311edc293E
	andb	$1, %al
	movb	%al, -17(%rbp)
LBB44_6:
	.loc	14 186 17
	jmp	LBB44_3
Ltmp263:
Lfunc_end44:
	.cfi_endproc

	.p2align	4, 0x90
__ZN4core3fmt9Arguments6new_v117hc925036bf7777112E:
Lfunc_begin45:
	.loc	12 399 0
	.cfi_startproc
	pushq	%rbp
	.cfi_def_cfa_offset 16
	.cfi_offset %rbp, -16
	movq	%rsp, %rbp
	.cfi_def_cfa_register %rbp
	subq	$160, %rsp
	movq	%r8, -152(%rbp)
	movq	%rcx, -144(%rbp)
	movq	%rdx, -136(%rbp)
	movq	%rsi, -128(%rbp)
	movq	%rdi, -120(%rbp)
	movq	%rdi, -112(%rbp)
	movq	%rsi, -32(%rbp)
	movq	%rdx, -24(%rbp)
	movq	%rcx, -16(%rbp)
	movq	%r8, -8(%rbp)
Ltmp264:
	.loc	12 400 12 prologue_end
	cmpq	%r8, %rdx
	jb	LBB45_2
	.loc	12 0 12 is_stmt 0
	movq	-136(%rbp), %rax
	movq	-152(%rbp), %rcx
	.loc	12 400 56
	addq	$1, %rcx
	.loc	12 400 41
	cmpq	%rcx, %rax
	seta	%al
	.loc	12 400 12
	andb	$1, %al
	movb	%al, -97(%rbp)
	jmp	LBB45_3
LBB45_2:
	movb	$1, -97(%rbp)
LBB45_3:
	testb	$1, -97(%rbp)
	jne	LBB45_5
	.loc	12 0 12
	movq	-112(%rbp), %rax
	movq	-120(%rbp), %rcx
	movq	-152(%rbp), %rdx
	movq	-144(%rbp), %rsi
	movq	-136(%rbp), %rdi
	movq	-128(%rbp), %r8
	.loc	12 403 34 is_stmt 1
	movq	$0, -48(%rbp)
	.loc	12 403 9 is_stmt 0
	movq	%r8, 16(%rcx)
	movq	%rdi, 24(%rcx)
	movq	-48(%rbp), %r8
	movq	-40(%rbp), %rdi
	movq	%r8, (%rcx)
	movq	%rdi, 8(%rcx)
	movq	%rsi, 32(%rcx)
	movq	%rdx, 40(%rcx)
	.loc	12 404 6 is_stmt 1
	addq	$160, %rsp
	popq	%rbp
	retq
LBB45_5:
	.loc	12 401 13
	leaq	l___unnamed_3(%rip), %rsi
	leaq	l___unnamed_4(%rip), %rcx
	xorl	%eax, %eax
	movl	%eax, %r8d
	leaq	-96(%rbp), %rdi
	movq	%rdi, -160(%rbp)
	movl	$1, %edx
	callq	__ZN4core3fmt9Arguments6new_v117hc925036bf7777112E
	movq	-160(%rbp), %rdi
	leaq	l___unnamed_5(%rip), %rsi
	callq	__ZN4core9panicking9panic_fmt17h9b5d807e24bcaaedE
Ltmp265:
Lfunc_end45:
	.cfi_endproc

	.p2align	4, 0x90
__ZN4core3num21_$LT$impl$u20$u64$GT$11checked_mul17hdec197ffbf6d9494E:
Lfunc_begin46:
	.file	15 "/rustc/2c8cc343237b8f7d5a3c3703e3a87f2eb2c54a74/library/core/src/num" "uint_macros.rs"
	.loc	15 558 0
	.cfi_startproc
	pushq	%rbp
	.cfi_def_cfa_offset 16
	.cfi_offset %rbp, -16
	movq	%rsp, %rbp
	.cfi_def_cfa_register %rbp
	subq	$120, %rsp
	movq	%rdi, %rax
	movq	%rax, -80(%rbp)
	movq	%rsi, -72(%rbp)
Ltmp266:
	.loc	15 559 26 prologue_end
	movq	%rax, -64(%rbp)
	.loc	15 559 47 is_stmt 0
	movq	%rsi, -56(%rbp)
Ltmp267:
	.loc	15 1677 26 is_stmt 1
	mulq	%rsi
	movq	%rax, %rcx
	seto	%al
	andb	$1, %al
	movq	%rcx, -48(%rbp)
	movb	%al, -40(%rbp)
	movq	-48(%rbp), %rcx
	movb	-40(%rbp), %al
	.loc	15 1677 18 is_stmt 0
	movq	%rcx, -32(%rbp)
	.loc	15 1677 21
	movb	%al, %dl
	andb	$1, %dl
	movb	%dl, -17(%rbp)
Ltmp268:
	.loc	15 1678 13 is_stmt 1
	movq	%rcx, -96(%rbp)
	andb	$1, %al
	movb	%al, -88(%rbp)
Ltmp269:
	.loc	15 559 18
	movq	-96(%rbp), %rax
	movq	%rax, -120(%rbp)
	movq	%rax, -16(%rbp)
	.loc	15 559 21 is_stmt 0
	movb	-88(%rbp), %al
	movb	%al, %cl
	andb	$1, %cl
	movb	%cl, -2(%rbp)
Ltmp270:
	.loc	15 560 16 is_stmt 1
	andb	$1, %al
	movb	%al, -1(%rbp)
	testb	$1, -1(%rbp)
	jne	LBB46_2
	.loc	15 0 16 is_stmt 0
	movq	-120(%rbp), %rax
	.loc	15 560 42
	movq	%rax, -104(%rbp)
	movq	$1, -112(%rbp)
	.loc	15 560 13
	jmp	LBB46_3
LBB46_2:
	.loc	15 560 30
	movq	$0, -112(%rbp)
Ltmp271:
LBB46_3:
	.loc	15 561 10 is_stmt 1
	movq	-112(%rbp), %rax
	movq	-104(%rbp), %rdx
	addq	$120, %rsp
	popq	%rbp
	retq
Ltmp272:
Lfunc_end46:
	.cfi_endproc

	.globl	__ZN4core3num7dec2flt18biased_fp_to_float17h509e3d0fd1bc9554E
	.p2align	4, 0x90
__ZN4core3num7dec2flt18biased_fp_to_float17h509e3d0fd1bc9554E:
Lfunc_begin47:
	.file	16 "/rustc/2c8cc343237b8f7d5a3c3703e3a87f2eb2c54a74/library/core/src/num/dec2flt" "mod.rs"
	.loc	16 219 0
	.cfi_startproc
	pushq	%rbp
	.cfi_def_cfa_offset 16
	.cfi_offset %rbp, -16
	movq	%rsp, %rbp
	.cfi_def_cfa_register %rbp
	subq	$32, %rsp
	movq	%rdi, -16(%rbp)
	movl	%esi, -8(%rbp)
Ltmp273:
	.loc	16 220 20 prologue_end
	movq	%rdi, -24(%rbp)
Ltmp274:
	.loc	16 221 13
	movslq	%esi, %rax
	shlq	$23, %rax
	.loc	16 221 5 is_stmt 0
	orq	-24(%rbp), %rax
	movq	%rax, -24(%rbp)
	.loc	16 222 22 is_stmt 1
	movq	-24(%rbp), %rdi
	.loc	16 222 5 is_stmt 0
	callq	__ZN59_$LT$f32$u20$as$u20$core..num..dec2flt..float..RawFloat$GT$13from_u64_bits17h45ad9b13b18410efE
Ltmp275:
	.loc	16 223 2 is_stmt 1
	addq	$32, %rsp
	popq	%rbp
	retq
Ltmp276:
Lfunc_end47:
	.cfi_endproc

	.globl	__ZN4core3num7dec2flt3fpu13fpu_precision13set_precision17h1f63ab38c329bea5E
	.p2align	4, 0x90
__ZN4core3num7dec2flt3fpu13fpu_precision13set_precision17h1f63ab38c329bea5E:
Lfunc_begin48:
	.file	17 "/rustc/2c8cc343237b8f7d5a3c3703e3a87f2eb2c54a74/library/core/src/num/dec2flt" "fpu.rs"
	.loc	17 89 0
	.cfi_startproc
	pushq	%rbp
	.cfi_def_cfa_offset 16
	.cfi_offset %rbp, -16
	movq	%rsp, %rbp
	.cfi_def_cfa_register %rbp
Ltmp277:
	.loc	17 89 33 prologue_end
	popq	%rbp
	retq
Ltmp278:
Lfunc_end48:
	.cfi_endproc

	.globl	__ZN4core3num7dec2flt4slow19parse_long_mantissa17h71c0555ceede1fd4E
	.p2align	4, 0x90
__ZN4core3num7dec2flt4slow19parse_long_mantissa17h71c0555ceede1fd4E:
Lfunc_begin49:
	.file	18 "/rustc/2c8cc343237b8f7d5a3c3703e3a87f2eb2c54a74/library/core/src/num/dec2flt" "slow.rs"
	.loc	18 26 0
	.cfi_startproc
	pushq	%rbp
	.cfi_def_cfa_offset 16
	.cfi_offset %rbp, -16
	movq	%rsp, %rbp
	.cfi_def_cfa_register %rbp
	subq	$992, %rsp
	movq	%rdi, -968(%rbp)
	movq	%rsi, -952(%rbp)
	movq	%rdi, -72(%rbp)
	movq	%rsi, -64(%rbp)
Ltmp279:
	.loc	18 36 19 prologue_end
	xorl	%edi, %edi
	callq	__ZN4core3num7dec2flt6common8BiasedFp9zero_pow217hd9d409e4688b21a5E
	movq	%rax, -984(%rbp)
	movl	%edx, -972(%rbp)
	movq	%rax, -56(%rbp)
	movl	%edx, -48(%rbp)
Ltmp280:
	.loc	18 37 18
	movl	$255, %edi
	callq	__ZN4core3num7dec2flt6common8BiasedFp9zero_pow217hd9d409e4688b21a5E
	movq	-968(%rbp), %rsi
	movq	%rax, %rcx
	movq	%rcx, -960(%rbp)
	movl	%edx, %eax
	movq	-952(%rbp), %rdx
	movl	%eax, -940(%rbp)
	movq	%rcx, -40(%rbp)
	movl	%eax, -32(%rbp)
Ltmp281:
	.loc	18 39 17
	leaq	-912(%rbp), %rdi
	callq	__ZN4core3num7dec2flt7decimal13parse_decimal17he94b4e052923b1b6E
Ltmp282:
	.loc	18 42 8
	cmpq	$0, -144(%rbp)
	jne	LBB49_2
	movb	$1, -125(%rbp)
	jmp	LBB49_3
LBB49_2:
	.loc	18 42 29 is_stmt 0
	cmpl	$-324, -136(%rbp)
	setl	%al
	.loc	18 42 8
	andb	$1, %al
	movb	%al, -125(%rbp)
LBB49_3:
	testb	$1, -125(%rbp)
	jne	LBB49_5
	.loc	18 44 15 is_stmt 1
	cmpl	$310, -136(%rbp)
	jge	LBB49_8
	jmp	LBB49_7
LBB49_5:
	.loc	18 0 15 is_stmt 0
	movl	-972(%rbp), %eax
	movq	-984(%rbp), %rcx
	.loc	18 43 16 is_stmt 1
	movq	%rcx, -936(%rbp)
	movl	%eax, -928(%rbp)
LBB49_6:
	.file	19 "/Users/natalie/.cargo/registry/src/github.com-1ecc6299db9ec823/half-2.1.0" "src/lib.rs"
	.loc	19 1 1
	jmp	LBB49_9
LBB49_7:
	.loc	18 47 20
	movl	$0, -124(%rbp)
Ltmp283:
	.loc	18 49 5
	jmp	LBB49_10
Ltmp284:
LBB49_8:
	.loc	18 0 5 is_stmt 0
	movl	-940(%rbp), %eax
	movq	-960(%rbp), %rcx
	.loc	18 45 16 is_stmt 1
	movq	%rcx, -936(%rbp)
	movl	%eax, -928(%rbp)
	.loc	19 1 1
	jmp	LBB49_6
Ltmp285:
LBB49_9:
	.loc	18 109 2
	jmp	LBB49_40
LBB49_10:
Ltmp286:
	.loc	18 49 11
	cmpl	$0, -136(%rbp)
	jg	LBB49_12
	.loc	18 59 5
	jmp	LBB49_16
LBB49_12:
	.loc	18 50 17
	movslq	-136(%rbp), %rax
	movq	%rax, -24(%rbp)
Ltmp287:
	.loc	18 51 21
	movq	%rax, -120(%rbp)
	movq	-120(%rbp), %rsi
	leaq	-920(%rbp), %rdi
	callq	__ZN4core3num7dec2flt4slow19parse_long_mantissa28_$u7b$$u7b$closure$u7d$$u7d$17h8f5d7fb0a2b8aaf9E
	movq	%rax, %rsi
	movq	%rsi, -992(%rbp)
	movq	%rsi, -16(%rbp)
Ltmp288:
	.loc	18 52 9
	leaq	-912(%rbp), %rdi
	callq	__ZN4core3num7dec2flt7decimal7Decimal11right_shift17hbef7261b911e484eE
	.loc	18 53 12
	cmpl	$-2047, -136(%rbp)
	jl	LBB49_14
	.loc	18 0 12 is_stmt 0
	movq	-992(%rbp), %rax
	.loc	18 56 9 is_stmt 1
	addl	-124(%rbp), %eax
	movl	%eax, -124(%rbp)
Ltmp289:
	.loc	18 49 5
	jmp	LBB49_10
LBB49_14:
	.loc	18 0 5 is_stmt 0
	movl	-972(%rbp), %eax
	movq	-984(%rbp), %rcx
Ltmp290:
	.loc	18 54 20 is_stmt 1
	movq	%rcx, -936(%rbp)
	movl	%eax, -928(%rbp)
Ltmp291:
LBB49_15:
	.loc	19 1 1
	jmp	LBB49_9
LBB49_16:
Ltmp292:
	.loc	18 59 11
	cmpl	$0, -136(%rbp)
	jle	LBB49_18
LBB49_17:
	.loc	18 76 5
	movl	-124(%rbp), %eax
	subl	$1, %eax
	movl	%eax, -124(%rbp)
	.loc	18 77 5
	jmp	LBB49_29
LBB49_18:
	.loc	18 60 24
	cmpl	$0, -136(%rbp)
	jne	LBB49_20
	.loc	18 62 17
	leaq	-912(%rbp), %rax
	movq	%rax, -8(%rbp)
	.loc	18 62 26 is_stmt 0
	cmpb	$5, -912(%rbp)
	jae	LBB49_23
	jmp	LBB49_22
LBB49_20:
	.loc	18 67 23 is_stmt 1
	xorl	%eax, %eax
	subl	-136(%rbp), %eax
	cltq
	.loc	18 67 13 is_stmt 0
	movq	%rax, -104(%rbp)
	movq	-104(%rbp), %rsi
	leaq	-920(%rbp), %rdi
	callq	__ZN4core3num7dec2flt4slow19parse_long_mantissa28_$u7b$$u7b$closure$u7d$$u7d$17h8f5d7fb0a2b8aaf9E
	movq	%rax, -112(%rbp)
LBB49_21:
Ltmp293:
	.loc	18 69 22 is_stmt 1
	movq	-112(%rbp), %rsi
	.loc	18 69 9 is_stmt 0
	leaq	-912(%rbp), %rdi
	callq	__ZN4core3num7dec2flt7decimal7Decimal10left_shift17hb49663691319c6cbE
	.loc	18 70 12 is_stmt 1
	cmpl	$2047, -136(%rbp)
	jg	LBB49_28
	jmp	LBB49_27
Ltmp294:
LBB49_22:
	.loc	18 61 13
	movb	-912(%rbp), %al
	subb	$2, %al
	jb	LBB49_25
	jmp	LBB49_24
LBB49_23:
	.loc	19 1 1
	jmp	LBB49_17
LBB49_24:
	.loc	18 64 22
	movq	$1, -112(%rbp)
	jmp	LBB49_26
LBB49_25:
	.loc	18 63 26
	movq	$2, -112(%rbp)
LBB49_26:
	.loc	18 60 21
	jmp	LBB49_21
LBB49_27:
Ltmp295:
	.loc	18 73 17
	movq	-112(%rbp), %rax
	movl	%eax, %ecx
	.loc	18 73 9 is_stmt 0
	movl	-124(%rbp), %eax
	subl	%ecx, %eax
	movl	%eax, -124(%rbp)
Ltmp296:
	.loc	18 59 5 is_stmt 1
	jmp	LBB49_16
LBB49_28:
	.loc	18 0 5 is_stmt 0
	movl	-940(%rbp), %eax
	movq	-960(%rbp), %rcx
Ltmp297:
	.loc	18 71 20 is_stmt 1
	movq	%rcx, -936(%rbp)
	movl	%eax, -928(%rbp)
Ltmp298:
	.loc	19 1 1
	jmp	LBB49_15
LBB49_29:
	.loc	18 77 11
	movl	$4294967170, %eax
	cmpl	-124(%rbp), %eax
	jg	LBB49_31
	.loc	18 85 9
	movl	-124(%rbp), %eax
	.loc	18 85 8 is_stmt 0
	subl	$-127, %eax
	cmpl	$255, %eax
	jge	LBB49_35
	jmp	LBB49_34
LBB49_31:
	.loc	18 78 21 is_stmt 1
	movl	$4294967170, %eax
	subl	-124(%rbp), %eax
	cltq
	movq	%rax, -96(%rbp)
Ltmp299:
	.loc	18 79 12
	cmpq	$60, -96(%rbp)
	ja	LBB49_33
LBB49_32:
	.loc	18 82 23
	movq	-96(%rbp), %rsi
	.loc	18 82 9 is_stmt 0
	leaq	-912(%rbp), %rdi
	callq	__ZN4core3num7dec2flt7decimal7Decimal11right_shift17hbef7261b911e484eE
	.loc	18 83 17 is_stmt 1
	movq	-96(%rbp), %rax
	.loc	18 83 9 is_stmt 0
	addl	-124(%rbp), %eax
	movl	%eax, -124(%rbp)
Ltmp300:
	.loc	18 77 5 is_stmt 1
	jmp	LBB49_29
LBB49_33:
Ltmp301:
	.loc	18 80 13
	movq	$60, -96(%rbp)
	.loc	18 79 9
	jmp	LBB49_32
Ltmp302:
LBB49_34:
	.loc	18 90 5
	leaq	-912(%rbp), %rdi
	movl	$24, %esi
	callq	__ZN4core3num7dec2flt7decimal7Decimal10left_shift17hb49663691319c6cbE
	.loc	18 91 24
	leaq	-912(%rbp), %rdi
	callq	__ZN4core3num7dec2flt7decimal7Decimal5round17h01e343917b97ddb0E
	movq	%rax, -88(%rbp)
Ltmp303:
	.loc	18 92 8
	cmpq	$16777216, -88(%rbp)
	jae	LBB49_37
	jmp	LBB49_36
Ltmp304:
LBB49_35:
	.loc	18 0 8 is_stmt 0
	movl	-940(%rbp), %eax
	movq	-960(%rbp), %rcx
	.loc	18 86 16 is_stmt 1
	movq	%rcx, -936(%rbp)
	movl	%eax, -928(%rbp)
	.loc	19 1 1
	jmp	LBB49_15
LBB49_36:
Ltmp305:
	.loc	18 102 22
	movl	-124(%rbp), %eax
	subl	$-127, %eax
	movl	%eax, -76(%rbp)
Ltmp306:
	.loc	18 103 8
	cmpq	$8388608, -88(%rbp)
	jb	LBB49_42
	jmp	LBB49_41
Ltmp307:
LBB49_37:
	.loc	18 95 9
	leaq	-912(%rbp), %rdi
	movl	$1, %esi
	callq	__ZN4core3num7dec2flt7decimal7Decimal11right_shift17hbef7261b911e484eE
	.loc	18 96 9
	movl	-124(%rbp), %eax
	addl	$1, %eax
	movl	%eax, -124(%rbp)
	.loc	18 97 20
	leaq	-912(%rbp), %rdi
	callq	__ZN4core3num7dec2flt7decimal7Decimal5round17h01e343917b97ddb0E
	.loc	18 97 9 is_stmt 0
	movq	%rax, -88(%rbp)
	.loc	18 98 13 is_stmt 1
	movl	-124(%rbp), %eax
	.loc	18 98 12 is_stmt 0
	subl	$-127, %eax
	cmpl	$255, %eax
	jge	LBB49_39
	.loc	18 92 5 is_stmt 1
	jmp	LBB49_36
LBB49_39:
	.loc	18 0 5 is_stmt 0
	movl	-940(%rbp), %eax
	movq	-960(%rbp), %rcx
	.loc	18 99 20 is_stmt 1
	movq	%rcx, -936(%rbp)
	movl	%eax, -928(%rbp)
Ltmp308:
	.loc	19 1 1
	jmp	LBB49_15
Ltmp309:
LBB49_40:
	.loc	18 109 2
	movq	-936(%rbp), %rax
	movl	-928(%rbp), %edx
	addq	$992, %rsp
	popq	%rbp
	retq
LBB49_41:
Ltmp310:
	.loc	18 107 5
	movq	-88(%rbp), %rax
	andq	$8388607, %rax
	movq	%rax, -88(%rbp)
	.loc	18 108 19
	movq	-88(%rbp), %rcx
	.loc	18 108 32 is_stmt 0
	movl	-76(%rbp), %eax
	.loc	18 108 5
	movq	%rcx, -936(%rbp)
	movl	%eax, -928(%rbp)
Ltmp311:
	.loc	18 109 2 is_stmt 1
	jmp	LBB49_40
LBB49_42:
Ltmp312:
	.loc	18 104 9
	movl	-76(%rbp), %eax
	subl	$1, %eax
	movl	%eax, -76(%rbp)
	.loc	18 103 5
	jmp	LBB49_41
Ltmp313:
Lfunc_end49:
	.cfi_endproc

	.globl	__ZN4core3num7dec2flt4slow19parse_long_mantissa28_$u7b$$u7b$closure$u7d$$u7d$17h8f5d7fb0a2b8aaf9E
	.p2align	4, 0x90
__ZN4core3num7dec2flt4slow19parse_long_mantissa28_$u7b$$u7b$closure$u7d$$u7d$17h8f5d7fb0a2b8aaf9E:
Lfunc_begin50:
	.loc	18 32 0
	.cfi_startproc
	pushq	%rbp
	.cfi_def_cfa_offset 16
	.cfi_offset %rbp, -16
	movq	%rsp, %rbp
	.cfi_def_cfa_register %rbp
	subq	$64, %rsp
	movq	%rsi, -56(%rbp)
	movq	%rdi, -16(%rbp)
	movq	%rsi, -8(%rbp)
Ltmp314:
	.loc	18 33 12 prologue_end
	cmpq	$19, %rsi
	jb	LBB50_2
	.loc	18 33 57 is_stmt 0
	movq	$60, -48(%rbp)
	.loc	18 33 9
	jmp	LBB50_5
LBB50_2:
	.loc	18 0 9
	movq	-56(%rbp), %rax
	.loc	18 33 29
	movq	l___unnamed_6(%rip), %rcx
	movq	%rcx, -35(%rbp)
	movq	l___unnamed_6+8(%rip), %rcx
	movq	%rcx, -27(%rbp)
	movw	l___unnamed_6+16(%rip), %cx
	movw	%cx, -19(%rbp)
	movb	l___unnamed_6+18(%rip), %cl
	movb	%cl, -17(%rbp)
	cmpq	$19, %rax
	setb	%al
	testb	$1, %al
	jne	LBB50_3
	jmp	LBB50_4
LBB50_3:
	.loc	18 0 29
	movq	-56(%rbp), %rax
	.loc	18 33 29
	movzbl	-35(%rbp,%rax), %eax
	movq	%rax, -48(%rbp)
	.loc	18 33 9
	jmp	LBB50_5
LBB50_4:
	.loc	18 0 9
	movq	-56(%rbp), %rdi
	.loc	18 33 29
	leaq	l___unnamed_7(%rip), %rdx
	movl	$19, %esi
	callq	__ZN4core9panicking18panic_bounds_check17hacb8a94866cda541E
LBB50_5:
	.loc	18 34 6 is_stmt 1
	movq	-48(%rbp), %rax
	addq	$64, %rsp
	popq	%rbp
	retq
Ltmp315:
Lfunc_end50:
	.cfi_endproc

	.globl	__ZN4core3num7dec2flt5parse13parse_inf_nan17h3d4b1e0666327159E
	.p2align	4, 0x90
__ZN4core3num7dec2flt5parse13parse_inf_nan17h3d4b1e0666327159E:
Lfunc_begin51:
	.file	20 "/rustc/2c8cc343237b8f7d5a3c3703e3a87f2eb2c54a74/library/core/src/num/dec2flt" "parse.rs"
	.loc	20 223 0
	.cfi_startproc
	pushq	%rbp
	.cfi_def_cfa_offset 16
	.cfi_offset %rbp, -16
	movq	%rsp, %rbp
	.cfi_def_cfa_register %rbp
	subq	$96, %rsp
	movl	%edx, %eax
	movq	%rsi, %rdx
	movq	%rdx, -88(%rbp)
	movq	%rdi, %rsi
	movb	%al, -73(%rbp)
	movq	%rsi, -32(%rbp)
	movq	%rdx, -24(%rbp)
	andb	$1, %al
	movb	%al, -9(%rbp)
Ltmp316:
	.loc	20 224 38 prologue_end
	leaq	-64(%rbp), %rdi
	callq	__ZN4core3num7dec2flt5parse21parse_partial_inf_nan17hea9936fb2abc2733E
	.loc	20 224 12 is_stmt 0
	cmpq	$1, -64(%rbp)
	jne	LBB51_2
	.loc	20 0 12
	movq	-88(%rbp), %rcx
	.loc	20 224 18
	movss	-56(%rbp), %xmm0
	movss	%xmm0, -36(%rbp)
	.loc	20 224 29
	movq	-48(%rbp), %rax
	movq	%rax, -8(%rbp)
	.loc	20 225 12 is_stmt 1
	cmpq	%rcx, %rax
	je	LBB51_4
	jmp	LBB51_3
Ltmp317:
LBB51_2:
	.loc	20 232 5
	movl	$0, -72(%rbp)
	.loc	20 233 2
	jmp	LBB51_7
LBB51_3:
	.loc	20 224 5
	jmp	LBB51_2
LBB51_4:
	.loc	20 0 5 is_stmt 0
	movb	-73(%rbp), %al
Ltmp318:
	.loc	20 226 16 is_stmt 1
	testb	$1, %al
	jne	LBB51_6
	jmp	LBB51_5
LBB51_5:
	.loc	20 229 25
	movss	-36(%rbp), %xmm0
	.loc	20 229 20 is_stmt 0
	movss	%xmm0, -68(%rbp)
	movl	$1, -72(%rbp)
Ltmp319:
	.loc	20 233 2 is_stmt 1
	jmp	LBB51_7
LBB51_6:
Ltmp320:
	.loc	20 227 26
	movss	-36(%rbp), %xmm0
	.loc	20 227 25 is_stmt 0
	callq	__ZN45_$LT$f32$u20$as$u20$core..ops..arith..Neg$GT$3neg17h5188f88ba6090898E
	.loc	20 227 17
	movss	%xmm0, -36(%rbp)
	.loc	20 226 13 is_stmt 1
	jmp	LBB51_5
Ltmp321:
LBB51_7:
	.loc	20 233 2
	movl	-72(%rbp), %eax
	movss	-68(%rbp), %xmm0
	addq	$96, %rsp
	popq	%rbp
	retq
Ltmp322:
Lfunc_end51:
	.cfi_endproc

	.section	__TEXT,__literal4,4byte_literals
	.p2align	2
LCPI52_0:
	.long	0x7f800000
LCPI52_1:
	.long	0x7fc00000
	.section	__TEXT,__text,regular,pure_instructions
	.globl	__ZN4core3num7dec2flt5parse21parse_partial_inf_nan17hea9936fb2abc2733E
	.p2align	4, 0x90
__ZN4core3num7dec2flt5parse21parse_partial_inf_nan17hea9936fb2abc2733E:
Lfunc_begin52:
	.loc	20 208 0
	.cfi_startproc
	pushq	%rbp
	.cfi_def_cfa_offset 16
	.cfi_offset %rbp, -16
	movq	%rsp, %rbp
	.cfi_def_cfa_register %rbp
	subq	$80, %rsp
	movq	%rdx, -80(%rbp)
	movq	%rsi, -72(%rbp)
	movq	%rdi, -64(%rbp)
	movq	%rdi, -56(%rbp)
	movq	%rsi, -16(%rbp)
	movq	%rdx, -8(%rbp)
Ltmp323:
	.loc	20 212 8 prologue_end
	cmpq	$3, %rdx
	jae	LBB52_2
LBB52_1:
	.loc	20 0 8 is_stmt 0
	movq	-64(%rbp), %rax
	.loc	20 219 5 is_stmt 1
	movq	$0, (%rax)
	.loc	20 220 2
	jmp	LBB52_8
LBB52_2:
	.loc	20 0 2 is_stmt 0
	movq	-80(%rbp), %rsi
	movq	-72(%rbp), %rdi
	.loc	20 213 12 is_stmt 1
	leaq	l___unnamed_8(%rip), %rdx
	movl	$3, %ecx
	callq	__ZN4core3num7dec2flt6common9ByteSlice23starts_with_ignore_case17h9c25e1ae80082fbeE
	testb	$1, %al
	jne	LBB52_4
	.loc	20 0 12 is_stmt 0
	movq	-80(%rbp), %rsi
	movq	-72(%rbp), %rdi
	.loc	20 215 19 is_stmt 1
	leaq	l___unnamed_9(%rip), %rdx
	movl	$3, %ecx
	callq	__ZN4core3num7dec2flt6common9ByteSlice23starts_with_ignore_case17h9c25e1ae80082fbeE
	testb	$1, %al
	jne	LBB52_7
	jmp	LBB52_6
LBB52_4:
	.loc	20 0 19 is_stmt 0
	movq	-64(%rbp), %rax
	.loc	20 214 25 is_stmt 1
	movss	LCPI52_1(%rip), %xmm0
	movss	%xmm0, -48(%rbp)
	movq	$3, -40(%rbp)
	.loc	20 214 20 is_stmt 0
	movss	-48(%rbp), %xmm0
	movq	-40(%rbp), %rcx
	movss	%xmm0, 8(%rax)
	movq	%rcx, 16(%rax)
	movq	$1, (%rax)
LBB52_5:
	.loc	20 220 2 is_stmt 1
	jmp	LBB52_8
LBB52_6:
	.loc	20 212 5
	jmp	LBB52_1
LBB52_7:
	.loc	20 0 5 is_stmt 0
	movq	-80(%rbp), %rsi
	movq	-72(%rbp), %rdi
	.loc	20 216 39 is_stmt 1
	callq	__ZN4core3num7dec2flt5parse21parse_partial_inf_nan14parse_inf_rest17h81ecac827a6c4cdaE
	movq	%rax, %rcx
	movq	-64(%rbp), %rax
	.loc	20 216 25 is_stmt 0
	movss	LCPI52_0(%rip), %xmm0
	movss	%xmm0, -32(%rbp)
	movq	%rcx, -24(%rbp)
	.loc	20 216 20
	movss	-32(%rbp), %xmm0
	movq	-24(%rbp), %rcx
	movss	%xmm0, 8(%rax)
	movq	%rcx, 16(%rax)
	movq	$1, (%rax)
	.loc	19 1 1 is_stmt 1
	jmp	LBB52_5
LBB52_8:
	.loc	19 0 1 is_stmt 0
	movq	-56(%rbp), %rax
	.loc	20 220 2 is_stmt 1
	addq	$80, %rsp
	popq	%rbp
	retq
Ltmp324:
Lfunc_end52:
	.cfi_endproc

	.p2align	4, 0x90
__ZN4core3num7dec2flt60_$LT$impl$u20$core..str..traits..FromStr$u20$for$u20$f32$GT$8from_str17hd481259913f7091fE:
Lfunc_begin53:
	.loc	16 150 0
	.cfi_startproc
	pushq	%rbp
	.cfi_def_cfa_offset 16
	.cfi_offset %rbp, -16
	movq	%rsp, %rbp
	.cfi_def_cfa_register %rbp
	subq	$32, %rsp
	movq	%rdi, -24(%rbp)
	movq	%rsi, -16(%rbp)
Ltmp325:
	.loc	16 151 17 prologue_end
	callq	__ZN4core3num7dec2flt7dec2flt17h9e109cf25f44ecedE
	movq	%rax, -8(%rbp)
	movq	-8(%rbp), %rax
	movq	%rax, -32(%rbp)
	.loc	16 152 14
	movq	-32(%rbp), %rax
	addq	$32, %rsp
	popq	%rbp
	retq
Ltmp326:
Lfunc_end53:
	.cfi_endproc

	.globl	__ZN4core3num7dec2flt6common9ByteSlice23starts_with_ignore_case17h9c25e1ae80082fbeE
	.p2align	4, 0x90
__ZN4core3num7dec2flt6common9ByteSlice23starts_with_ignore_case17h9c25e1ae80082fbeE:
Lfunc_begin54:
	.file	21 "/rustc/2c8cc343237b8f7d5a3c3703e3a87f2eb2c54a74/library/core/src/num/dec2flt" "common.rs"
	.loc	21 39 0
	.cfi_startproc
	pushq	%rbp
	.cfi_def_cfa_offset 16
	.cfi_offset %rbp, -16
	movq	%rsp, %rbp
	.cfi_def_cfa_register %rbp
	subq	$240, %rsp
	movq	%rdx, -240(%rbp)
	movq	%rcx, -232(%rbp)
	movq	%rdi, -88(%rbp)
	movq	%rsi, -80(%rbp)
	movq	%rdx, -72(%rbp)
	movq	%rcx, -64(%rbp)
	movq	%rdi, -16(%rbp)
	movq	%rsi, -8(%rbp)
Ltmp327:
	.loc	21 41 20 prologue_end
	movq	%rdi, -56(%rbp)
	movq	%rsi, -48(%rbp)
Ltmp328:
	.file	22 "/rustc/2c8cc343237b8f7d5a3c3703e3a87f2eb2c54a74/library/core/src/slice" "mod.rs"
	.loc	22 742 9
	callq	__ZN4core5slice4iter13Iter$LT$T$GT$3new17h2d7638e77ca48e18E
	movq	-240(%rbp), %rdi
	movq	-232(%rbp), %rsi
	movq	%rax, -224(%rbp)
	movq	%rdx, -216(%rbp)
Ltmp329:
	.loc	21 41 45
	movq	%rdi, -40(%rbp)
	movq	%rsi, -32(%rbp)
Ltmp330:
	.loc	22 742 9
	callq	__ZN4core5slice4iter13Iter$LT$T$GT$3new17h2d7638e77ca48e18E
	movq	-224(%rbp), %rsi
	movq	%rax, %rcx
	movq	%rdx, %r8
	movq	-216(%rbp), %rdx
Ltmp331:
	.loc	21 41 20
	leaq	-200(%rbp), %rdi
	callq	__ZN4core4iter6traits8iterator8Iterator3zip17h7460713eda6155f2E
Ltmp332:
	.loc	21 42 17
	leaq	-144(%rbp), %rdi
	leaq	-200(%rbp), %rsi
	movl	$56, %edx
	callq	_memcpy
	leaq	-144(%rbp), %rdi
	xorl	%esi, %esi
	callq	__ZN4core4iter6traits8iterator8Iterator4fold17h21e29e6968d0d775E
	movb	%al, -202(%rbp)
	movb	%al, -17(%rbp)
Ltmp333:
	.loc	21 43 9
	cmpb	$0, %al
	jne	LBB54_2
	movb	$1, -201(%rbp)
	jmp	LBB54_3
LBB54_2:
	.loc	21 0 9 is_stmt 0
	movb	-202(%rbp), %al
	.loc	21 43 19
	cmpb	$32, %al
	sete	%al
	.loc	21 43 9
	andb	$1, %al
	movb	%al, -201(%rbp)
Ltmp334:
LBB54_3:
	.loc	21 44 6 is_stmt 1
	movb	-201(%rbp), %al
	andb	$1, %al
	movzbl	%al, %eax
	addq	$240, %rsp
	popq	%rbp
	retq
Ltmp335:
Lfunc_end54:
	.cfi_endproc

	.globl	__ZN4core3num7dec2flt6common9ByteSlice23starts_with_ignore_case28_$u7b$$u7b$closure$u7d$$u7d$17hee035779ba3cf47bE
	.p2align	4, 0x90
__ZN4core3num7dec2flt6common9ByteSlice23starts_with_ignore_case28_$u7b$$u7b$closure$u7d$$u7d$17hee035779ba3cf47bE:
Lfunc_begin55:
	.loc	21 42 0
	.cfi_startproc
	pushq	%rbp
	.cfi_def_cfa_offset 16
	.cfi_offset %rbp, -16
	movq	%rsp, %rbp
	.cfi_def_cfa_register %rbp
	subq	$32, %rsp
	movb	%sil, %al
	movq	%rdx, -32(%rbp)
	movq	%rcx, -24(%rbp)
	movq	%rdi, -16(%rbp)
	movb	%al, -3(%rbp)
Ltmp336:
	.loc	21 42 36 prologue_end
	movq	-32(%rbp), %rcx
	movb	(%rcx), %cl
	movb	%cl, -2(%rbp)
	.loc	21 42 40 is_stmt 0
	movq	-24(%rbp), %rdx
	movb	(%rdx), %dl
	movb	%dl, -1(%rbp)
Ltmp337:
	.loc	21 42 48
	xorb	%dl, %cl
	.loc	21 42 44
	orb	%cl, %al
Ltmp338:
	.loc	21 42 55
	addq	$32, %rsp
	popq	%rbp
	retq
Ltmp339:
Lfunc_end55:
	.cfi_endproc

	.globl	__ZN4core3num7dec2flt6common9ByteSlice7advance17h33ac187535004845E
	.p2align	4, 0x90
__ZN4core3num7dec2flt6common9ByteSlice7advance17h33ac187535004845E:
Lfunc_begin56:
	.loc	21 47 0 is_stmt 1
	.cfi_startproc
	pushq	%rbp
	.cfi_def_cfa_offset 16
	.cfi_offset %rbp, -16
	movq	%rsp, %rbp
	.cfi_def_cfa_register %rbp
	subq	$64, %rsp
	movq	%rdx, %rax
	movq	%rsi, %rdx
	movq	%rdi, %rsi
	movq	%rsi, -56(%rbp)
	movq	%rdx, -48(%rbp)
	movq	%rax, -40(%rbp)
	movq	%rsi, -16(%rbp)
	movq	%rdx, -8(%rbp)
Ltmp340:
	.loc	21 48 10 prologue_end
	movq	%rsi, -32(%rbp)
	movq	%rdx, -24(%rbp)
	.loc	21 48 24 is_stmt 0
	movq	%rax, -64(%rbp)
Ltmp341:
	.loc	2 18 9 is_stmt 1
	movq	-64(%rbp), %rdi
	leaq	l___unnamed_10(%rip), %rcx
	callq	__ZN110_$LT$core..ops..range..RangeFrom$LT$usize$GT$$u20$as$u20$core..slice..index..SliceIndex$LT$$u5b$T$u5d$$GT$$GT$5index17h4d2ff2de1c053160E
Ltmp342:
	.loc	21 49 6
	addq	$64, %rsp
	popq	%rbp
	retq
Ltmp343:
Lfunc_end56:
	.cfi_endproc

	.globl	__ZN4core3num7dec2flt6lemire13compute_float17hfa531c775ca5724eE
	.p2align	4, 0x90
__ZN4core3num7dec2flt6lemire13compute_float17hfa531c775ca5724eE:
Lfunc_begin57:
	.file	23 "/rustc/2c8cc343237b8f7d5a3c3703e3a87f2eb2c54a74/library/core/src/num/dec2flt" "lemire.rs"
	.loc	23 27 0
	.cfi_startproc
	pushq	%rbp
	.cfi_def_cfa_offset 16
	.cfi_offset %rbp, -16
	movq	%rsp, %rbp
	.cfi_def_cfa_register %rbp
	subq	$240, %rsp
	movq	%rdi, -208(%rbp)
	movq	%rsi, -152(%rbp)
	movq	%rdi, -104(%rbp)
Ltmp344:
	.loc	23 28 19 prologue_end
	xorl	%edi, %edi
	callq	__ZN4core3num7dec2flt6common8BiasedFp9zero_pow217hd9d409e4688b21a5E
	movq	%rax, -200(%rbp)
	movl	%edx, -188(%rbp)
	movq	%rax, -96(%rbp)
	movl	%edx, -88(%rbp)
Ltmp345:
	.loc	23 29 18
	movl	$255, %edi
	callq	__ZN4core3num7dec2flt6common8BiasedFp9zero_pow217hd9d409e4688b21a5E
	movq	%rax, -184(%rbp)
	movl	%edx, -172(%rbp)
	movq	%rax, -80(%rbp)
	movl	%edx, -72(%rbp)
Ltmp346:
	.loc	23 30 20
	movl	$4294967295, %edi
	callq	__ZN4core3num7dec2flt6common8BiasedFp9zero_pow217hd9d409e4688b21a5E
	movq	%rax, -168(%rbp)
	movl	%edx, -156(%rbp)
	movq	%rax, -64(%rbp)
	movl	%edx, -56(%rbp)
Ltmp347:
	.loc	23 33 8
	cmpq	$0, -152(%rbp)
	jne	LBB57_2
	movb	$1, -122(%rbp)
	jmp	LBB57_3
LBB57_2:
	.loc	23 0 8 is_stmt 0
	movq	-208(%rbp), %rax
	.loc	23 33 18
	cmpq	$-65, %rax
	setl	%al
	.loc	23 33 8
	andb	$1, %al
	movb	%al, -122(%rbp)
LBB57_3:
	testb	$1, -122(%rbp)
	jne	LBB57_5
	.loc	23 0 8
	movq	-208(%rbp), %rax
	.loc	23 35 15 is_stmt 1
	cmpq	$38, %rax
	jg	LBB57_8
	jmp	LBB57_7
LBB57_5:
	.loc	23 0 15 is_stmt 0
	movl	-188(%rbp), %eax
	movq	-200(%rbp), %rcx
	.loc	23 34 16 is_stmt 1
	movq	%rcx, -144(%rbp)
	movl	%eax, -136(%rbp)
LBB57_6:
	.loc	19 1 1
	jmp	LBB57_9
LBB57_7:
	.loc	19 0 1 is_stmt 0
	movq	-208(%rbp), %rdi
	.loc	23 39 14 is_stmt 1
	movq	-152(%rbp), %rax
	movq	%rax, -48(%rbp)
Ltmp348:
	.loc	15 131 13
	bsrq	%rax, %rax
	movl	$127, %ecx
	cmoveq	%rcx, %rax
	xorq	$63, %rax
	movq	%rax, -40(%rbp)
	movq	-40(%rbp), %rax
	movl	%eax, %ecx
	movl	%ecx, -228(%rbp)
	movl	%ecx, -28(%rbp)
Ltmp349:
	.loc	23 40 5
	movq	-152(%rbp), %rax
	movl	%ecx, %ecx
	andq	$63, %rcx
	shlq	%cl, %rax
	movq	%rax, -152(%rbp)
	.loc	23 41 46
	movq	-152(%rbp), %rsi
	.loc	23 41 20 is_stmt 0
	movl	$26, %edx
	callq	__ZN4core3num7dec2flt6lemire22compute_product_approx17h28295bc1e7622852E
	movq	%rax, -224(%rbp)
	movq	%rdx, -216(%rbp)
	.loc	23 41 10
	movq	%rax, -24(%rbp)
	.loc	23 41 14
	movq	%rdx, -16(%rbp)
Ltmp350:
	.loc	23 42 8 is_stmt 1
	cmpq	$-1, %rax
	je	LBB57_10
	jmp	LBB57_11
Ltmp351:
LBB57_8:
	.loc	23 0 8 is_stmt 0
	movl	-172(%rbp), %eax
	movq	-184(%rbp), %rcx
	.loc	23 36 16 is_stmt 1
	movq	%rcx, -144(%rbp)
	movl	%eax, -136(%rbp)
	.loc	19 1 1
	jmp	LBB57_6
Ltmp352:
LBB57_9:
	.loc	23 115 2
	jmp	LBB57_43
LBB57_10:
	.loc	23 0 2 is_stmt 0
	movq	-208(%rbp), %rax
Ltmp353:
	.loc	23 58 36 is_stmt 1
	cmpq	$-27, %rax
	jge	LBB57_14
	jmp	LBB57_13
LBB57_11:
	.loc	23 42 5
	jmp	LBB57_12
LBB57_12:
	.loc	23 0 5 is_stmt 0
	movq	-208(%rbp), %rax
	movq	-216(%rbp), %rdx
	.loc	23 63 20 is_stmt 1
	movq	%rdx, %rcx
	shrq	$63, %rcx
	movl	%ecx, -232(%rbp)
	movl	%ecx, -4(%rbp)
Ltmp354:
	.loc	23 64 31
	addl	$64, %ecx
	subl	$23, %ecx
	.loc	23 64 30 is_stmt 0
	subl	$3, %ecx
	.loc	23 64 24
	movl	%ecx, %ecx
	andq	$63, %rcx
	shrq	%cl, %rdx
	movq	%rdx, %rcx
	movq	%rcx, -120(%rbp)
Ltmp355:
	.loc	23 65 28 is_stmt 1
	movl	%eax, %edi
	.loc	23 65 22 is_stmt 0
	callq	__ZN4core3num7dec2flt6lemire5power17h1f9ed2a2f25e8bb8E
	movl	-232(%rbp), %edx
	movl	-228(%rbp), %ecx
	addl	%edx, %eax
	subl	%ecx, %eax
	subl	$-127, %eax
	movl	%eax, -112(%rbp)
Ltmp356:
	.loc	23 66 8 is_stmt 1
	cmpl	$0, -112(%rbp)
	jle	LBB57_20
	jmp	LBB57_19
Ltmp357:
LBB57_13:
	.loc	23 58 36
	movb	$0, -121(%rbp)
	jmp	LBB57_15
LBB57_14:
	.loc	23 0 36 is_stmt 0
	movq	-208(%rbp), %rax
	.loc	23 58 50
	cmpq	$55, %rax
	setle	%al
	.loc	23 58 36
	andb	$1, %al
	movb	%al, -121(%rbp)
LBB57_15:
Ltmp358:
	.loc	23 59 13 is_stmt 1
	movb	-121(%rbp), %al
	.loc	23 59 12 is_stmt 0
	xorb	$-1, %al
	testb	$1, %al
	jne	LBB57_17
Ltmp359:
	.loc	23 42 5 is_stmt 1
	jmp	LBB57_12
LBB57_17:
	.loc	23 0 5 is_stmt 0
	movl	-156(%rbp), %eax
	movq	-168(%rbp), %rcx
Ltmp360:
	.loc	23 60 20 is_stmt 1
	movq	%rcx, -144(%rbp)
	movl	%eax, -136(%rbp)
Ltmp361:
LBB57_18:
	.loc	19 1 1
	jmp	LBB57_9
LBB57_19:
	.loc	19 0 1 is_stmt 0
	movq	-224(%rbp), %rax
Ltmp362:
	.loc	23 89 8 is_stmt 1
	cmpq	$1, %rax
	jbe	LBB57_26
	jmp	LBB57_25
LBB57_20:
	.loc	23 67 12
	xorl	%eax, %eax
	subl	-112(%rbp), %eax
	addl	$1, %eax
	cmpl	$64, %eax
	jge	LBB57_22
	.loc	23 72 22
	xorl	%ecx, %ecx
	subl	-112(%rbp), %ecx
	addl	$1, %ecx
	.loc	23 72 9 is_stmt 0
	movq	-120(%rbp), %rax
	movl	%ecx, %ecx
	andq	$63, %rcx
	shrq	%cl, %rax
	movq	%rax, -120(%rbp)
	.loc	23 73 21 is_stmt 1
	movq	-120(%rbp), %rax
	andq	$1, %rax
	.loc	23 73 9 is_stmt 0
	addq	-120(%rbp), %rax
	movq	%rax, -120(%rbp)
	.loc	23 74 9 is_stmt 1
	movq	-120(%rbp), %rax
	shrq	$1, %rax
	movq	%rax, -120(%rbp)
	.loc	23 75 18
	cmpq	$8388608, -120(%rbp)
	setae	%al
	.loc	23 75 9 is_stmt 0
	andb	$1, %al
	movzbl	%al, %eax
	movl	%eax, -112(%rbp)
	.loc	23 76 30 is_stmt 1
	movq	-120(%rbp), %rcx
	.loc	23 76 43 is_stmt 0
	movl	-112(%rbp), %eax
	.loc	23 76 16
	movq	%rcx, -144(%rbp)
	movl	%eax, -136(%rbp)
	.loc	23 76 9
	jmp	LBB57_23
LBB57_22:
	.loc	23 0 9
	movl	-188(%rbp), %eax
	movq	-200(%rbp), %rcx
	.loc	23 69 20 is_stmt 1
	movq	%rcx, -144(%rbp)
	movl	%eax, -136(%rbp)
LBB57_23:
	.loc	19 1 1
	jmp	LBB57_24
Ltmp363:
LBB57_24:
	.loc	19 1 1 is_stmt 0
	jmp	LBB57_18
LBB57_25:
Ltmp364:
	.loc	23 89 8 is_stmt 1
	movb	$0, -105(%rbp)
	jmp	LBB57_27
LBB57_26:
	.loc	23 0 8 is_stmt 0
	movq	-208(%rbp), %rax
	.loc	23 90 12 is_stmt 1
	cmpq	$-17, %rax
	setge	%al
	.loc	23 89 8
	andb	$1, %al
	movb	%al, -105(%rbp)
LBB57_27:
	testb	$1, -105(%rbp)
	jne	LBB57_29
	movb	$0, -106(%rbp)
	jmp	LBB57_30
LBB57_29:
	.loc	23 0 8 is_stmt 0
	movq	-208(%rbp), %rax
	.loc	23 91 12 is_stmt 1
	cmpq	$10, %rax
	setle	%al
	.loc	23 89 8
	andb	$1, %al
	movb	%al, -106(%rbp)
LBB57_30:
	testb	$1, -106(%rbp)
	jne	LBB57_32
	movb	$0, -107(%rbp)
	jmp	LBB57_33
LBB57_32:
	.loc	23 92 12
	movq	-120(%rbp), %rax
	andq	$3, %rax
	cmpq	$1, %rax
	sete	%al
	.loc	23 89 8
	andb	$1, %al
	movb	%al, -107(%rbp)
LBB57_33:
	testb	$1, -107(%rbp)
	jne	LBB57_35
	movb	$0, -108(%rbp)
	jmp	LBB57_36
LBB57_35:
	.loc	23 0 8 is_stmt 0
	movl	-232(%rbp), %ecx
	.loc	23 93 13 is_stmt 1
	movq	-120(%rbp), %rax
	.loc	23 93 26 is_stmt 0
	addl	$64, %ecx
	subl	$23, %ecx
	.loc	23 93 25
	subl	$3, %ecx
	.loc	23 93 12
	movl	%ecx, %ecx
	andq	$63, %rcx
	shlq	%cl, %rax
	movq	-216(%rbp), %rcx
	cmpq	%rcx, %rax
	sete	%al
	.loc	23 89 8 is_stmt 1
	andb	$1, %al
	movb	%al, -108(%rbp)
LBB57_36:
	testb	$1, -108(%rbp)
	jne	LBB57_38
LBB57_37:
	.loc	23 99 17
	movq	-120(%rbp), %rax
	andq	$1, %rax
	.loc	23 99 5 is_stmt 0
	addq	-120(%rbp), %rax
	movq	%rax, -120(%rbp)
	.loc	23 100 5 is_stmt 1
	movq	-120(%rbp), %rax
	shrq	$1, %rax
	movq	%rax, -120(%rbp)
	.loc	23 101 8
	cmpq	$16777216, -120(%rbp)
	jae	LBB57_40
	jmp	LBB57_39
LBB57_38:
	.loc	23 96 9
	movq	-120(%rbp), %rax
	andq	$-2, %rax
	movq	%rax, -120(%rbp)
	.loc	23 89 5
	jmp	LBB57_37
LBB57_39:
	.loc	23 109 5
	movq	-120(%rbp), %rax
	andq	$-8388609, %rax
	movq	%rax, -120(%rbp)
	.loc	23 110 8
	cmpl	$255, -112(%rbp)
	jge	LBB57_42
	jmp	LBB57_41
LBB57_40:
	.loc	23 105 9
	movq	$8388608, -120(%rbp)
	.loc	23 106 9
	movl	-112(%rbp), %eax
	addl	$1, %eax
	movl	%eax, -112(%rbp)
	.loc	23 101 5
	jmp	LBB57_39
LBB57_41:
	.loc	23 114 19
	movq	-120(%rbp), %rcx
	.loc	23 114 32 is_stmt 0
	movl	-112(%rbp), %eax
	.loc	23 114 5
	movq	%rcx, -144(%rbp)
	movl	%eax, -136(%rbp)
Ltmp365:
	.loc	23 115 2 is_stmt 1
	jmp	LBB57_43
LBB57_42:
	.loc	23 0 2 is_stmt 0
	movl	-172(%rbp), %eax
	movq	-184(%rbp), %rcx
Ltmp366:
	.loc	23 112 16 is_stmt 1
	movq	%rcx, -144(%rbp)
	movl	%eax, -136(%rbp)
	.loc	19 1 1
	jmp	LBB57_24
Ltmp367:
LBB57_43:
	.loc	23 115 2
	movq	-144(%rbp), %rax
	movl	-136(%rbp), %edx
	addq	$240, %rsp
	popq	%rbp
	retq
Ltmp368:
Lfunc_end57:
	.cfi_endproc

	.globl	__ZN4core3num7dec2flt6number6Number12is_fast_path17h2387aa4dfa182812E
	.p2align	4, 0x90
__ZN4core3num7dec2flt6number6Number12is_fast_path17h2387aa4dfa182812E:
Lfunc_begin58:
	.file	24 "/rustc/2c8cc343237b8f7d5a3c3703e3a87f2eb2c54a74/library/core/src/num/dec2flt" "number.rs"
	.loc	24 36 0
	.cfi_startproc
	pushq	%rbp
	.cfi_def_cfa_offset 16
	.cfi_offset %rbp, -16
	movq	%rsp, %rbp
	.cfi_def_cfa_register %rbp
	subq	$24, %rsp
	movq	%rdi, -24(%rbp)
	movq	%rdi, -8(%rbp)
Ltmp369:
	.loc	24 37 9 prologue_end
	movq	$-10, %rax
	cmpq	(%rdi), %rax
	jle	LBB58_2
	movb	$0, -9(%rbp)
	jmp	LBB58_3
LBB58_2:
	.loc	24 0 9 is_stmt 0
	movq	-24(%rbp), %rax
	.loc	24 38 16 is_stmt 1
	cmpq	$17, (%rax)
	setle	%al
	.loc	24 37 9
	andb	$1, %al
	movb	%al, -9(%rbp)
LBB58_3:
	testb	$1, -9(%rbp)
	jne	LBB58_5
	movb	$0, -10(%rbp)
	jmp	LBB58_6
LBB58_5:
	.loc	24 0 9 is_stmt 0
	movq	-24(%rbp), %rax
	.loc	24 39 16 is_stmt 1
	cmpq	$16777216, 8(%rax)
	setbe	%al
	.loc	24 37 9
	andb	$1, %al
	movb	%al, -10(%rbp)
LBB58_6:
	testb	$1, -10(%rbp)
	jne	LBB58_8
	movb	$0, -11(%rbp)
	jmp	LBB58_9
LBB58_8:
	.loc	24 0 9 is_stmt 0
	movq	-24(%rbp), %rax
	.loc	24 40 17 is_stmt 1
	movb	17(%rax), %al
	.loc	24 40 16 is_stmt 0
	xorb	$-1, %al
	.loc	24 37 9 is_stmt 1
	andb	$1, %al
	movb	%al, -11(%rbp)
LBB58_9:
	.loc	24 41 6
	movb	-11(%rbp), %al
	andb	$1, %al
	movzbl	%al, %eax
	addq	$24, %rsp
	popq	%rbp
	retq
Ltmp370:
Lfunc_end58:
	.cfi_endproc

	.globl	__ZN4core3num7dec2flt6number6Number13try_fast_path17h2ccac62b816492b6E
	.p2align	4, 0x90
__ZN4core3num7dec2flt6number6Number13try_fast_path17h2ccac62b816492b6E:
Lfunc_begin59:
	.loc	24 52 0
	.cfi_startproc
	pushq	%rbp
	.cfi_def_cfa_offset 16
	.cfi_offset %rbp, -16
	movq	%rsp, %rbp
	.cfi_def_cfa_register %rbp
	subq	$288, %rsp
	movq	%rdi, -248(%rbp)
	movq	%rdi, -64(%rbp)
Ltmp371:
	.loc	24 58 19 prologue_end
	callq	__ZN4core3num7dec2flt3fpu13fpu_precision13set_precision17h1f63ab38c329bea5E
	movq	-248(%rbp), %rdi
Ltmp372:
	.loc	24 60 12
	callq	__ZN4core3num7dec2flt6number6Number12is_fast_path17h2387aa4dfa182812E
	testb	$1, %al
	jne	LBB59_2
	.loc	24 83 13
	movl	$0, -240(%rbp)
	.loc	24 60 9
	jmp	LBB59_22
LBB59_2:
	.loc	24 0 9 is_stmt 0
	movq	-248(%rbp), %rax
	.loc	24 61 32 is_stmt 1
	cmpq	$10, (%rax)
	jle	LBB59_4
	.loc	24 0 32 is_stmt 0
	movq	-248(%rbp), %rax
	.loc	24 71 29 is_stmt 1
	movq	(%rax), %rcx
	subq	$10, %rcx
	movq	%rcx, -256(%rbp)
	movq	%rcx, -32(%rbp)
Ltmp373:
	.loc	24 72 32
	movq	8(%rax), %rax
	movq	%rax, -264(%rbp)
	.loc	24 72 58 is_stmt 0
	leaq	-192(%rbp), %rdi
	leaq	l___unnamed_11(%rip), %rsi
	movl	$128, %edx
	callq	_memcpy
	movq	-256(%rbp), %rax
	cmpq	$16, %rax
	setb	%al
	testb	$1, %al
	jne	LBB59_9
	jmp	LBB59_10
Ltmp374:
LBB59_4:
	.loc	24 0 58
	movq	-248(%rbp), %rax
	.loc	24 63 41 is_stmt 1
	movq	8(%rax), %rdi
	.loc	24 63 29 is_stmt 0
	callq	__ZN59_$LT$f32$u20$as$u20$core..num..dec2flt..float..RawFloat$GT$8from_u6417hc392f1016dcac6f9E
	movq	-248(%rbp), %rax
	movss	%xmm0, -268(%rbp)
	movss	%xmm0, -36(%rbp)
Ltmp375:
	.loc	24 64 20 is_stmt 1
	cmpq	$0, (%rax)
	jl	LBB59_6
	.loc	24 0 20 is_stmt 0
	movq	-248(%rbp), %rax
	.loc	24 67 48 is_stmt 1
	movq	(%rax), %rdi
	.loc	24 67 29 is_stmt 0
	callq	__ZN59_$LT$f32$u20$as$u20$core..num..dec2flt..float..RawFloat$GT$15pow10_fast_path17h64d2ea7948862f37E
	movaps	%xmm0, %xmm1
	movss	-268(%rbp), %xmm0
	.loc	24 67 21
	callq	__ZN45_$LT$f32$u20$as$u20$core..ops..arith..Mul$GT$3mul17h15d98c16ce92cd97E
	movss	%xmm0, -228(%rbp)
	.loc	24 64 17 is_stmt 1
	jmp	LBB59_7
LBB59_6:
	.loc	24 0 17 is_stmt 0
	movq	-248(%rbp), %rax
	.loc	24 65 48 is_stmt 1
	xorl	%ecx, %ecx
	movl	%ecx, %edi
	subq	(%rax), %rdi
	.loc	24 65 29 is_stmt 0
	callq	__ZN59_$LT$f32$u20$as$u20$core..num..dec2flt..float..RawFloat$GT$15pow10_fast_path17h64d2ea7948862f37E
	movaps	%xmm0, %xmm1
	movss	-268(%rbp), %xmm0
	.loc	24 65 21
	callq	__ZN45_$LT$f32$u20$as$u20$core..ops..arith..Div$GT$3div17h55eb274b7098a217E
	movss	%xmm0, -228(%rbp)
Ltmp376:
LBB59_7:
	.loc	24 61 29 is_stmt 1
	jmp	LBB59_8
LBB59_8:
	.loc	24 0 29 is_stmt 0
	movq	-248(%rbp), %rax
Ltmp377:
	.loc	24 78 16 is_stmt 1
	testb	$1, 16(%rax)
	jne	LBB59_21
	jmp	LBB59_20
Ltmp378:
LBB59_9:
	.loc	24 0 16 is_stmt 0
	movq	-264(%rbp), %rdi
	movq	-256(%rbp), %rax
Ltmp379:
	.loc	24 72 58 is_stmt 1
	movq	-192(%rbp,%rax,8), %rsi
	.loc	24 72 32 is_stmt 0
	callq	__ZN4core3num21_$LT$impl$u20$u64$GT$11checked_mul17hdec197ffbf6d9494E
	movq	%rdx, -200(%rbp)
	movq	%rax, -208(%rbp)
Ltmp380:
	.loc	8 2407 9 is_stmt 1
	cmpq	$0, -208(%rbp)
	je	LBB59_11
	jmp	LBB59_12
Ltmp381:
LBB59_10:
	.loc	8 0 9 is_stmt 0
	movq	-256(%rbp), %rdi
	.loc	24 72 58 is_stmt 1
	leaq	l___unnamed_12(%rip), %rdx
	movl	$16, %esi
	callq	__ZN4core9panicking18panic_bounds_check17hacb8a94866cda541E
LBB59_11:
Ltmp382:
	.loc	8 2409 21
	movq	$1, -224(%rbp)
	.loc	8 2409 44 is_stmt 0
	jmp	LBB59_13
LBB59_12:
	.loc	8 2408 18 is_stmt 1
	movq	-200(%rbp), %rax
	movq	%rax, -24(%rbp)
Ltmp383:
	.loc	8 2408 24 is_stmt 0
	movq	%rax, -216(%rbp)
	movq	$0, -224(%rbp)
Ltmp384:
LBB59_13:
	.loc	24 72 32 is_stmt 1
	cmpq	$0, -224(%rbp)
	jne	LBB59_15
	movq	-216(%rbp), %rax
	movq	%rax, -280(%rbp)
	movq	%rax, -16(%rbp)
Ltmp385:
	.loc	24 72 32 is_stmt 0
	movq	%rax, -8(%rbp)
Ltmp386:
	.loc	24 73 20 is_stmt 1
	cmpq	$16777216, %rax
	ja	LBB59_18
	jmp	LBB59_17
Ltmp387:
LBB59_15:
	.loc	8 2420 21
	movl	$0, -240(%rbp)
Ltmp388:
LBB59_16:
	.loc	24 85 6
	jmp	LBB59_19
LBB59_17:
	.loc	24 0 6 is_stmt 0
	movq	-280(%rbp), %rdi
Ltmp389:
	.loc	24 76 17 is_stmt 1
	callq	__ZN59_$LT$f32$u20$as$u20$core..num..dec2flt..float..RawFloat$GT$8from_u6417hc392f1016dcac6f9E
	movss	%xmm0, -284(%rbp)
	.loc	24 76 41 is_stmt 0
	movl	$10, %edi
	callq	__ZN59_$LT$f32$u20$as$u20$core..num..dec2flt..float..RawFloat$GT$15pow10_fast_path17h64d2ea7948862f37E
	movaps	%xmm0, %xmm1
	movss	-284(%rbp), %xmm0
	.loc	24 76 17
	callq	__ZN45_$LT$f32$u20$as$u20$core..ops..arith..Mul$GT$3mul17h15d98c16ce92cd97E
	movss	%xmm0, -228(%rbp)
Ltmp390:
	.loc	24 61 29 is_stmt 1
	jmp	LBB59_8
LBB59_18:
Ltmp391:
	.loc	24 74 28
	movl	$0, -240(%rbp)
	.loc	19 1 1
	jmp	LBB59_16
Ltmp392:
LBB59_19:
	.loc	24 85 6
	movl	-240(%rbp), %eax
	movss	-236(%rbp), %xmm0
	addq	$288, %rsp
	popq	%rbp
	retq
LBB59_20:
Ltmp393:
	.loc	24 81 18
	movss	-228(%rbp), %xmm0
	.loc	24 81 13 is_stmt 0
	movss	%xmm0, -236(%rbp)
	movl	$1, -240(%rbp)
Ltmp394:
	.loc	24 60 9 is_stmt 1
	jmp	LBB59_22
LBB59_21:
Ltmp395:
	.loc	24 79 26
	movss	-228(%rbp), %xmm0
	.loc	24 79 25 is_stmt 0
	callq	__ZN45_$LT$f32$u20$as$u20$core..ops..arith..Neg$GT$3neg17h5188f88ba6090898E
	.loc	24 79 17
	movss	%xmm0, -228(%rbp)
	.loc	24 78 13 is_stmt 1
	jmp	LBB59_20
Ltmp396:
LBB59_22:
	.loc	24 85 6
	jmp	LBB59_19
Ltmp397:
Lfunc_end59:
	.cfi_endproc

	.globl	__ZN4core3num7dec2flt7dec2flt17h9e109cf25f44ecedE
	.p2align	4, 0x90
__ZN4core3num7dec2flt7dec2flt17h9e109cf25f44ecedE:
Lfunc_begin60:
	.loc	16 226 0
	.cfi_startproc
	pushq	%rbp
	.cfi_def_cfa_offset 16
	.cfi_offset %rbp, -16
	movq	%rsp, %rbp
	.cfi_def_cfa_register %rbp
	subq	$320, %rsp
	movq	%rdi, -120(%rbp)
	movq	%rsi, -112(%rbp)
Ltmp398:
	.loc	16 227 17 prologue_end
	movq	%rdi, -104(%rbp)
	movq	%rsi, -96(%rbp)
Ltmp399:
	.file	25 "/rustc/2c8cc343237b8f7d5a3c3703e3a87f2eb2c54a74/library/core/src/str" "mod.rs"
	.loc	25 327 18
	movq	%rdi, -288(%rbp)
	movq	%rsi, -280(%rbp)
Ltmp400:
	.loc	16 228 31
	movq	-288(%rbp), %rcx
	movq	%rcx, -304(%rbp)
	movq	-280(%rbp), %rax
	movq	%rcx, -88(%rbp)
	movq	%rax, -80(%rbp)
Ltmp401:
	.loc	22 172 16
	cmpq	$1, %rax
	jae	LBB60_2
Ltmp402:
	.loc	22 172 58 is_stmt 0
	movq	$0, -272(%rbp)
	.loc	22 172 9
	jmp	LBB60_3
LBB60_2:
	.loc	22 0 9
	movq	-304(%rbp), %rax
Ltmp403:
	.loc	22 172 17
	movq	%rax, -72(%rbp)
	.loc	22 172 37
	movq	%rax, -272(%rbp)
Ltmp404:
LBB60_3:
	.loc	16 228 20 is_stmt 1
	movq	-272(%rbp), %rdx
	movl	$1, %eax
	xorl	%ecx, %ecx
	cmpq	$0, %rdx
	cmoveq	%rcx, %rax
	cmpq	$1, %rax
	jne	LBB60_5
	.loc	16 228 26 is_stmt 0
	movq	-272(%rbp), %rax
	movb	(%rax), %al
	movb	%al, -306(%rbp)
	movb	%al, -59(%rbp)
	.loc	16 229 9 is_stmt 1
	movb	%al, -58(%rbp)
Ltmp405:
	.loc	16 233 20
	cmpb	$45, %al
	sete	%cl
	movb	%cl, -305(%rbp)
	andb	$1, %cl
	movb	%cl, -57(%rbp)
Ltmp406:
	.loc	16 234 8
	cmpb	$45, %al
	je	LBB60_7
	jmp	LBB60_8
Ltmp407:
LBB60_5:
	.loc	16 231 20
	callq	__ZN4core3num7dec2flt9pfe_empty17h65b711c4091896cbE
	.loc	16 231 16 is_stmt 0
	andb	$1, %al
	movb	%al, -295(%rbp)
	movb	$1, -296(%rbp)
Ltmp408:
LBB60_6:
	.loc	16 269 2 is_stmt 1
	jmp	LBB60_33
LBB60_7:
Ltmp409:
	.loc	16 234 8
	movb	$1, -257(%rbp)
	jmp	LBB60_9
LBB60_8:
	.loc	16 0 8 is_stmt 0
	movb	-306(%rbp), %al
	.loc	16 234 21
	cmpb	$43, %al
	sete	%al
	.loc	16 234 8
	andb	$1, %al
	movb	%al, -257(%rbp)
LBB60_9:
	testb	$1, -257(%rbp)
	jne	LBB60_11
LBB60_10:
	.loc	16 237 8 is_stmt 1
	movq	-288(%rbp), %rcx
	movq	-280(%rbp), %rax
	movq	%rcx, -56(%rbp)
	movq	%rax, -48(%rbp)
	cmpq	$0, %rax
	je	LBB60_12
	jmp	LBB60_13
LBB60_11:
	.loc	16 235 13
	movq	-288(%rbp), %rdi
	movq	-280(%rbp), %rsi
	movl	$1, %edx
	callq	__ZN4core3num7dec2flt6common9ByteSlice7advance17h33ac187535004845E
	.loc	16 235 9 is_stmt 0
	movq	%rax, -288(%rbp)
	movq	%rdx, -280(%rbp)
	.loc	16 234 5 is_stmt 1
	jmp	LBB60_10
LBB60_12:
	.loc	16 238 20
	callq	__ZN4core3num7dec2flt11pfe_invalid17h6187b0d3badda816E
	.loc	16 238 16 is_stmt 0
	andb	$1, %al
	movb	%al, -295(%rbp)
	movb	$1, -296(%rbp)
	.loc	19 1 1 is_stmt 1
	jmp	LBB60_38
LBB60_13:
	.loc	19 0 1 is_stmt 0
	movb	-305(%rbp), %al
	.loc	16 241 34 is_stmt 1
	movq	-288(%rbp), %rsi
	movq	-280(%rbp), %rdx
	.loc	16 241 21 is_stmt 0
	movzbl	%al, %ecx
	andl	$1, %ecx
	leaq	-232(%rbp), %rdi
	callq	__ZN4core3num7dec2flt5parse12parse_number17hfa6ce7b57663b7e3E
	movl	$1, %eax
	xorl	%ecx, %ecx
	cmpb	$2, -216(%rbp)
	cmoveq	%rcx, %rax
	.loc	16 241 15
	cmpq	$0, %rax
	jne	LBB60_15
	.loc	16 0 15
	movb	-305(%rbp), %al
	.loc	16 243 49 is_stmt 1
	movq	-288(%rbp), %rdi
	movq	-280(%rbp), %rsi
	.loc	16 243 35 is_stmt 0
	movzbl	%al, %edx
	andl	$1, %edx
	callq	__ZN4core3num7dec2flt5parse13parse_inf_nan17h3d4b1e0666327159E
	movss	%xmm0, -180(%rbp)
	movl	%eax, -184(%rbp)
	.loc	16 243 21
	movl	-184(%rbp), %eax
	cmpq	$1, %rax
	je	LBB60_35
	jmp	LBB60_36
LBB60_15:
	.loc	16 242 14 is_stmt 1
	movq	-216(%rbp), %rax
	movq	%rax, -192(%rbp)
	movq	-232(%rbp), %rax
	movq	-224(%rbp), %rcx
	movq	%rcx, -200(%rbp)
	movq	%rax, -208(%rbp)
Ltmp410:
	.loc	16 242 20 is_stmt 0
	movq	-192(%rbp), %rax
	movq	%rax, -240(%rbp)
	movq	-208(%rbp), %rax
	movq	-200(%rbp), %rcx
	movq	%rcx, -248(%rbp)
	movq	%rax, -256(%rbp)
	leaq	-256(%rbp), %rdi
Ltmp411:
	.loc	16 246 26 is_stmt 1
	callq	__ZN4core3num7dec2flt6number6Number13try_fast_path17h2ccac62b816492b6E
	movss	%xmm0, -172(%rbp)
	movl	%eax, -176(%rbp)
	.loc	16 246 12 is_stmt 0
	movl	-176(%rbp), %eax
	cmpq	$1, %rax
	jne	LBB60_17
	.loc	16 246 17
	movss	-172(%rbp), %xmm0
	movss	%xmm0, -8(%rbp)
	.loc	16 247 16 is_stmt 1
	movss	%xmm0, -292(%rbp)
	movb	$0, -296(%rbp)
Ltmp412:
	.loc	19 1 1
	jmp	LBB60_34
LBB60_17:
	.loc	16 254 37
	movq	-256(%rbp), %rdi
	.loc	16 254 51 is_stmt 0
	movq	-248(%rbp), %rsi
	.loc	16 254 18
	callq	__ZN4core3num7dec2flt6lemire13compute_float17hfa531c775ca5724eE
	movl	%edx, -160(%rbp)
	movq	%rax, -168(%rbp)
Ltmp413:
	.loc	16 255 8 is_stmt 1
	testb	$1, -239(%rbp)
	jne	LBB60_19
	movb	$0, -145(%rbp)
	jmp	LBB60_20
LBB60_19:
	.loc	16 255 27 is_stmt 0
	cmpl	$0, -160(%rbp)
	setge	%al
	.loc	16 255 8
	andb	$1, %al
	movb	%al, -145(%rbp)
LBB60_20:
	testb	$1, -145(%rbp)
	jne	LBB60_22
	movb	$0, -146(%rbp)
	jmp	LBB60_26
LBB60_22:
	.loc	16 0 8
	leaq	-168(%rbp), %rax
	.loc	16 255 40
	movq	%rax, -40(%rbp)
	.loc	16 255 65
	movq	-256(%rbp), %rdi
	.loc	16 255 79
	movq	-248(%rbp), %rsi
	incq	%rsi
	.loc	16 255 46
	callq	__ZN4core3num7dec2flt6lemire13compute_float17hfa531c775ca5724eE
	movl	%edx, -136(%rbp)
	movq	%rax, -144(%rbp)
	leaq	-144(%rbp), %rax
	movq	%rax, -32(%rbp)
Ltmp414:
	.loc	9 228 10 is_stmt 1
	leaq	-168(%rbp), %rax
	movq	%rax, -24(%rbp)
	.loc	9 228 18 is_stmt 0
	leaq	-144(%rbp), %rax
	movq	%rax, -16(%rbp)
Ltmp415:
	.loc	21 189 5 is_stmt 1
	movq	-168(%rbp), %rax
	cmpq	-144(%rbp), %rax
	.loc	21 191 5
	je	LBB60_24
	movb	$0, -121(%rbp)
	jmp	LBB60_25
LBB60_24:
	movl	-160(%rbp), %eax
	cmpl	-136(%rbp), %eax
	sete	%al
	andb	$1, %al
	movb	%al, -121(%rbp)
Ltmp416:
LBB60_25:
	.loc	9 228 9
	movb	-121(%rbp), %al
	xorb	$-1, %al
Ltmp417:
	.loc	16 255 8
	andb	$1, %al
	movb	%al, -146(%rbp)
LBB60_26:
	testb	$1, -146(%rbp)
	jne	LBB60_28
LBB60_27:
	.loc	16 260 8
	cmpl	$0, -160(%rbp)
	jl	LBB60_30
	jmp	LBB60_29
LBB60_28:
	.loc	16 256 9
	movl	$-1, -160(%rbp)
	.loc	16 255 5
	jmp	LBB60_27
LBB60_29:
	.loc	16 264 45
	movq	-168(%rbp), %rdi
	movl	-160(%rbp), %esi
	.loc	16 264 21 is_stmt 0
	callq	__ZN4core3num7dec2flt18biased_fp_to_float17h509e3d0fd1bc9554E
	movss	%xmm0, -128(%rbp)
Ltmp418:
	.loc	16 265 8 is_stmt 1
	testb	$1, -240(%rbp)
	jne	LBB60_32
	jmp	LBB60_31
Ltmp419:
LBB60_30:
	.loc	16 261 39
	movq	-288(%rbp), %rdi
	movq	-280(%rbp), %rsi
	.loc	16 261 14 is_stmt 0
	callq	__ZN4core3num7dec2flt4slow19parse_long_mantissa17h71c0555ceede1fd4E
	.loc	16 261 9
	movq	%rax, -168(%rbp)
	movl	%edx, -160(%rbp)
	.loc	16 260 5 is_stmt 1
	jmp	LBB60_29
LBB60_31:
Ltmp420:
	.loc	16 268 8
	movss	-128(%rbp), %xmm0
	.loc	16 268 5 is_stmt 0
	movss	%xmm0, -292(%rbp)
	movb	$0, -296(%rbp)
Ltmp421:
	.loc	16 269 2 is_stmt 1
	jmp	LBB60_33
LBB60_32:
Ltmp422:
	.loc	16 266 18
	movss	-128(%rbp), %xmm0
	.loc	16 266 17 is_stmt 0
	callq	__ZN45_$LT$f32$u20$as$u20$core..ops..arith..Neg$GT$3neg17h5188f88ba6090898E
	.loc	16 266 9
	movss	%xmm0, -128(%rbp)
	.loc	16 265 5 is_stmt 1
	jmp	LBB60_31
Ltmp423:
LBB60_33:
	.loc	16 269 2
	movq	-296(%rbp), %rax
	addq	$320, %rsp
	popq	%rbp
	retq
LBB60_34:
Ltmp424:
	.loc	19 1 1
	jmp	LBB60_38
LBB60_35:
	.loc	16 243 26
	movss	-180(%rbp), %xmm0
	movss	%xmm0, -4(%rbp)
	.loc	16 243 72 is_stmt 0
	movss	%xmm0, -292(%rbp)
	movb	$0, -296(%rbp)
	.loc	19 1 1 is_stmt 1
	jmp	LBB60_37
LBB60_36:
	.loc	16 244 28
	callq	__ZN4core3num7dec2flt11pfe_invalid17h6187b0d3badda816E
	.loc	16 244 24 is_stmt 0
	andb	$1, %al
	movb	%al, -295(%rbp)
	movb	$1, -296(%rbp)
LBB60_37:
	.loc	19 1 1 is_stmt 1
	jmp	LBB60_34
Ltmp425:
LBB60_38:
	.loc	19 1 1 is_stmt 0
	jmp	LBB60_6
Ltmp426:
Lfunc_end60:
	.cfi_endproc

	.p2align	4, 0x90
__ZN4core3ops8function6FnOnce9call_once17h8c2711126084654fE:
Lfunc_begin61:
	.file	26 "/rustc/2c8cc343237b8f7d5a3c3703e3a87f2eb2c54a74/library/core/src/ops" "function.rs"
	.loc	26 250 0 is_stmt 1
	.cfi_startproc
	pushq	%rbp
	.cfi_def_cfa_offset 16
	.cfi_offset %rbp, -16
	movq	%rsp, %rbp
	.cfi_def_cfa_register %rbp
	subq	$16, %rsp
	movss	%xmm0, -12(%rbp)
Ltmp427:
	.loc	26 250 5 prologue_end
	movss	-12(%rbp), %xmm0
	callq	__ZN4half8binary163f168from_f3217h3b83e6cf375b4d8fE
	addq	$16, %rsp
	popq	%rbp
	retq
Ltmp428:
Lfunc_end61:
	.cfi_endproc

	.p2align	4, 0x90
__ZN4core3ops8function6FnOnce9call_once17had4d4acc7592379eE:
Lfunc_begin62:
	.loc	26 250 0
	.cfi_startproc
	pushq	%rbp
	.cfi_def_cfa_offset 16
	.cfi_offset %rbp, -16
	movq	%rsp, %rbp
	.cfi_def_cfa_register %rbp
	subq	$16, %rsp
	movss	%xmm0, -12(%rbp)
Ltmp429:
	.loc	26 250 5 prologue_end
	movss	-12(%rbp), %xmm0
	callq	__ZN4half6bfloat4bf168from_f3217ha20e4c2308b62389E
	addq	$16, %rsp
	popq	%rbp
	retq
Ltmp430:
Lfunc_end62:
	.cfi_endproc

	.p2align	4, 0x90
__ZN4core3ops8function6FnOnce9call_once17hdc0da3090daea70eE:
Lfunc_begin63:
	.loc	26 250 0
	.cfi_startproc
	pushq	%rbp
	.cfi_def_cfa_offset 16
	.cfi_offset %rbp, -16
	movq	%rsp, %rbp
	.cfi_def_cfa_register %rbp
	subq	$32, %rsp
	movq	%rdi, -24(%rbp)
	movq	%rsi, -16(%rbp)
Ltmp431:
	.loc	26 250 5 prologue_end
	movq	-24(%rbp), %rdi
	movq	-16(%rbp), %rsi
	callq	__ZN4core3cmp5impls50_$LT$impl$u20$core..cmp..Ord$u20$for$u20$usize$GT$3cmp17h18974f5839511261E
	addq	$32, %rsp
	popq	%rbp
	retq
Ltmp432:
Lfunc_end63:
	.cfi_endproc

	.p2align	4, 0x90
__ZN4core3ptr30drop_in_place$LT$$RF$usize$GT$17h65180279cf7cc70bE:
Lfunc_begin64:
	.loc	4 490 0
	.cfi_startproc
	pushq	%rbp
	.cfi_def_cfa_offset 16
	.cfi_offset %rbp, -16
	movq	%rsp, %rbp
	.cfi_def_cfa_register %rbp
	pushq	%rax
	movq	%rdi, -8(%rbp)
Ltmp433:
	.loc	4 490 1 prologue_end
	addq	$8, %rsp
	popq	%rbp
	retq
Ltmp434:
Lfunc_end64:
	.cfi_endproc

	.globl	__ZN4core3ptr62drop_in_place$LT$alloc..vec..Vec$LT$half..bfloat..bf16$GT$$GT$17h2631b680bea2ce1cE
	.p2align	4, 0x90
__ZN4core3ptr62drop_in_place$LT$alloc..vec..Vec$LT$half..bfloat..bf16$GT$$GT$17h2631b680bea2ce1cE:
Lfunc_begin65:
	.loc	4 490 0
	.cfi_startproc
	.cfi_personality 155, _rust_eh_personality
	.cfi_lsda 16, Lexception6
	pushq	%rbp
	.cfi_def_cfa_offset 16
	.cfi_offset %rbp, -16
	movq	%rsp, %rbp
	.cfi_def_cfa_register %rbp
	subq	$32, %rsp
	movq	%rdi, -32(%rbp)
	movq	%rdi, -24(%rbp)
Ltmp435:
Ltmp441:
	.loc	4 490 1 prologue_end
	callq	__ZN70_$LT$alloc..vec..Vec$LT$T$C$A$GT$$u20$as$u20$core..ops..drop..Drop$GT$4drop17hc0cb0ff021600176E
Ltmp436:
	jmp	LBB65_3
LBB65_1:
Ltmp438:
	.loc	4 0 1 is_stmt 0
	movq	-32(%rbp), %rdi
	.loc	4 490 1
	callq	__ZN4core3ptr69drop_in_place$LT$alloc..raw_vec..RawVec$LT$half..bfloat..bf16$GT$$GT$17h8b00e8a3f429a51bE
Ltmp439:
	jmp	LBB65_5
LBB65_2:
Ltmp437:
	.loc	4 0 1
	movq	%rax, %rcx
	movl	%edx, %eax
	movq	%rcx, -16(%rbp)
	movl	%eax, -8(%rbp)
	jmp	LBB65_1
LBB65_3:
	movq	-32(%rbp), %rdi
	.loc	4 490 1
	callq	__ZN4core3ptr69drop_in_place$LT$alloc..raw_vec..RawVec$LT$half..bfloat..bf16$GT$$GT$17h8b00e8a3f429a51bE
	addq	$32, %rsp
	popq	%rbp
	retq
LBB65_4:
Ltmp440:
	callq	__ZN4core9panicking19panic_cannot_unwind17h1fbca7e1d7f56ae1E
LBB65_5:
	movq	-16(%rbp), %rdi
	callq	__Unwind_Resume
Ltmp442:
Lfunc_end65:
	.cfi_endproc
	.section	__TEXT,__gcc_except_tab
	.p2align	2
GCC_except_table65:
Lexception6:
	.byte	255
	.byte	255
	.byte	1
	.uleb128 Lcst_end6-Lcst_begin6
Lcst_begin6:
	.uleb128 Ltmp435-Lfunc_begin65
	.uleb128 Ltmp436-Ltmp435
	.uleb128 Ltmp437-Lfunc_begin65
	.byte	0
	.uleb128 Ltmp438-Lfunc_begin65
	.uleb128 Ltmp439-Ltmp438
	.uleb128 Ltmp440-Lfunc_begin65
	.byte	0
	.uleb128 Ltmp439-Lfunc_begin65
	.uleb128 Lfunc_end65-Ltmp439
	.byte	0
	.byte	0
Lcst_end6:
	.p2align	2

	.section	__TEXT,__text,regular,pure_instructions
	.globl	__ZN4core3ptr63drop_in_place$LT$alloc..vec..Vec$LT$half..binary16..f16$GT$$GT$17h024cbe63cd5f56e3E
	.p2align	4, 0x90
__ZN4core3ptr63drop_in_place$LT$alloc..vec..Vec$LT$half..binary16..f16$GT$$GT$17h024cbe63cd5f56e3E:
Lfunc_begin66:
	.loc	4 490 0 is_stmt 1
	.cfi_startproc
	.cfi_personality 155, _rust_eh_personality
	.cfi_lsda 16, Lexception7
	pushq	%rbp
	.cfi_def_cfa_offset 16
	.cfi_offset %rbp, -16
	movq	%rsp, %rbp
	.cfi_def_cfa_register %rbp
	subq	$32, %rsp
	movq	%rdi, -32(%rbp)
	movq	%rdi, -24(%rbp)
Ltmp443:
Ltmp449:
	.loc	4 490 1 prologue_end
	callq	__ZN70_$LT$alloc..vec..Vec$LT$T$C$A$GT$$u20$as$u20$core..ops..drop..Drop$GT$4drop17h5a97abee54772fabE
Ltmp444:
	jmp	LBB66_3
LBB66_1:
Ltmp446:
	.loc	4 0 1 is_stmt 0
	movq	-32(%rbp), %rdi
	.loc	4 490 1
	callq	__ZN4core3ptr70drop_in_place$LT$alloc..raw_vec..RawVec$LT$half..binary16..f16$GT$$GT$17h52c4d0578c1a9f54E
Ltmp447:
	jmp	LBB66_5
LBB66_2:
Ltmp445:
	.loc	4 0 1
	movq	%rax, %rcx
	movl	%edx, %eax
	movq	%rcx, -16(%rbp)
	movl	%eax, -8(%rbp)
	jmp	LBB66_1
LBB66_3:
	movq	-32(%rbp), %rdi
	.loc	4 490 1
	callq	__ZN4core3ptr70drop_in_place$LT$alloc..raw_vec..RawVec$LT$half..binary16..f16$GT$$GT$17h52c4d0578c1a9f54E
	addq	$32, %rsp
	popq	%rbp
	retq
LBB66_4:
Ltmp448:
	callq	__ZN4core9panicking19panic_cannot_unwind17h1fbca7e1d7f56ae1E
LBB66_5:
	movq	-16(%rbp), %rdi
	callq	__Unwind_Resume
Ltmp450:
Lfunc_end66:
	.cfi_endproc
	.section	__TEXT,__gcc_except_tab
	.p2align	2
GCC_except_table66:
Lexception7:
	.byte	255
	.byte	255
	.byte	1
	.uleb128 Lcst_end7-Lcst_begin7
Lcst_begin7:
	.uleb128 Ltmp443-Lfunc_begin66
	.uleb128 Ltmp444-Ltmp443
	.uleb128 Ltmp445-Lfunc_begin66
	.byte	0
	.uleb128 Ltmp446-Lfunc_begin66
	.uleb128 Ltmp447-Ltmp446
	.uleb128 Ltmp448-Lfunc_begin66
	.byte	0
	.uleb128 Ltmp447-Lfunc_begin66
	.uleb128 Lfunc_end66-Ltmp447
	.byte	0
	.byte	0
Lcst_end7:
	.p2align	2

	.section	__TEXT,__text,regular,pure_instructions
	.globl	__ZN4core3ptr69drop_in_place$LT$alloc..raw_vec..RawVec$LT$half..bfloat..bf16$GT$$GT$17h8b00e8a3f429a51bE
	.p2align	4, 0x90
__ZN4core3ptr69drop_in_place$LT$alloc..raw_vec..RawVec$LT$half..bfloat..bf16$GT$$GT$17h8b00e8a3f429a51bE:
Lfunc_begin67:
	.loc	4 490 0 is_stmt 1
	.cfi_startproc
	pushq	%rbp
	.cfi_def_cfa_offset 16
	.cfi_offset %rbp, -16
	movq	%rsp, %rbp
	.cfi_def_cfa_register %rbp
	subq	$16, %rsp
	movq	%rdi, -8(%rbp)
Ltmp451:
	.loc	4 490 1 prologue_end
	callq	__ZN77_$LT$alloc..raw_vec..RawVec$LT$T$C$A$GT$$u20$as$u20$core..ops..drop..Drop$GT$4drop17h00ae785361f8bdaaE
	addq	$16, %rsp
	popq	%rbp
	retq
Ltmp452:
Lfunc_end67:
	.cfi_endproc

	.globl	__ZN4core3ptr70drop_in_place$LT$alloc..raw_vec..RawVec$LT$half..binary16..f16$GT$$GT$17h52c4d0578c1a9f54E
	.p2align	4, 0x90
__ZN4core3ptr70drop_in_place$LT$alloc..raw_vec..RawVec$LT$half..binary16..f16$GT$$GT$17h52c4d0578c1a9f54E:
Lfunc_begin68:
	.loc	4 490 0
	.cfi_startproc
	pushq	%rbp
	.cfi_def_cfa_offset 16
	.cfi_offset %rbp, -16
	movq	%rsp, %rbp
	.cfi_def_cfa_register %rbp
	subq	$16, %rsp
	movq	%rdi, -8(%rbp)
Ltmp453:
	.loc	4 490 1 prologue_end
	callq	__ZN77_$LT$alloc..raw_vec..RawVec$LT$T$C$A$GT$$u20$as$u20$core..ops..drop..Drop$GT$4drop17h4b104abade962f3dE
	addq	$16, %rsp
	popq	%rbp
	retq
Ltmp454:
Lfunc_end68:
	.cfi_endproc

	.globl	__ZN4core3ptr8non_null16NonNull$LT$T$GT$3new17ha6494bdb31130664E
	.p2align	4, 0x90
__ZN4core3ptr8non_null16NonNull$LT$T$GT$3new17ha6494bdb31130664E:
Lfunc_begin69:
	.loc	10 222 0
	.cfi_startproc
	pushq	%rbp
	.cfi_def_cfa_offset 16
	.cfi_offset %rbp, -16
	movq	%rsp, %rbp
	.cfi_def_cfa_register %rbp
	subq	$88, %rsp
	movq	%rdi, -88(%rbp)
	movq	%rdi, -56(%rbp)
Ltmp455:
	.loc	10 223 13 prologue_end
	movq	%rdi, -48(%rbp)
Ltmp456:
	.loc	6 52 36
	movq	%rdi, -64(%rbp)
	.loc	6 52 18 is_stmt 0
	movq	-64(%rbp), %rax
	movq	%rax, -40(%rbp)
Ltmp457:
	.loc	6 38 13 is_stmt 1
	movq	%rax, -32(%rbp)
Ltmp458:
	.loc	6 215 33
	movq	%rax, -24(%rbp)
	.loc	6 215 18 is_stmt 0
	movq	%rax, -16(%rbp)
Ltmp459:
	.loc	6 38 13 is_stmt 1
	cmpq	$0, -16(%rbp)
	sete	%al
Ltmp460:
	.loc	10 223 12
	xorb	$-1, %al
	testb	$1, %al
	jne	LBB69_2
	.loc	10 227 13
	movq	$0, -80(%rbp)
	.loc	10 223 9
	jmp	LBB69_3
LBB69_2:
	.loc	10 0 9 is_stmt 0
	movq	-88(%rbp), %rax
	.loc	10 225 47 is_stmt 1
	movq	%rax, -8(%rbp)
Ltmp461:
	.loc	10 201 13
	movq	%rax, -72(%rbp)
Ltmp462:
	.loc	10 225 13
	movq	-72(%rbp), %rax
	movq	%rax, -80(%rbp)
LBB69_3:
	.loc	10 229 6
	movq	-80(%rbp), %rax
	addq	$88, %rsp
	popq	%rbp
	retq
Ltmp463:
Lfunc_end69:
	.cfi_endproc

	.globl	__ZN4core3ptr8non_null26NonNull$LT$$u5b$T$u5d$$GT$20slice_from_raw_parts17h6742b7f57b866a56E
	.p2align	4, 0x90
__ZN4core3ptr8non_null26NonNull$LT$$u5b$T$u5d$$GT$20slice_from_raw_parts17h6742b7f57b866a56E:
Lfunc_begin70:
	.loc	10 482 0
	.cfi_startproc
	pushq	%rbp
	.cfi_def_cfa_offset 16
	.cfi_offset %rbp, -16
	movq	%rsp, %rbp
	.cfi_def_cfa_register %rbp
	subq	$128, %rsp
	movq	%rdi, -80(%rbp)
	movq	%rsi, -72(%rbp)
Ltmp464:
	.loc	10 484 70 prologue_end
	movq	%rdi, -64(%rbp)
Ltmp465:
	.loc	10 326 9
	movq	%rdi, -56(%rbp)
Ltmp466:
	.loc	10 484 85
	movq	%rsi, -48(%rbp)
Ltmp467:
	.loc	4 766 24
	movq	%rdi, -40(%rbp)
Ltmp468:
	.loc	6 60 9
	movq	%rdi, -32(%rbp)
Ltmp469:
	.loc	4 766 37
	movq	%rsi, -24(%rbp)
Ltmp470:
	.loc	5 135 36
	movq	%rdi, -96(%rbp)
	movq	%rsi, -88(%rbp)
	.loc	5 135 14 is_stmt 0
	movq	-96(%rbp), %rcx
	movq	-88(%rbp), %rax
	movq	%rcx, -112(%rbp)
	movq	%rax, -104(%rbp)
	movq	-112(%rbp), %rcx
	movq	-104(%rbp), %rax
	movq	%rcx, -16(%rbp)
	movq	%rax, -8(%rbp)
Ltmp471:
	.loc	10 201 13 is_stmt 1
	movq	%rcx, -128(%rbp)
	movq	%rax, -120(%rbp)
Ltmp472:
	.loc	10 485 6
	movq	-128(%rbp), %rax
	movq	-120(%rbp), %rdx
	addq	$128, %rsp
	popq	%rbp
	retq
Ltmp473:
Lfunc_end70:
	.cfi_endproc

	.globl	__ZN4core3ptr9const_ptr33_$LT$impl$u20$$BP$const$u20$T$GT$7sub_ptr17h09ea620285f5034cE
	.p2align	4, 0x90
__ZN4core3ptr9const_ptr33_$LT$impl$u20$$BP$const$u20$T$GT$7sub_ptr17h09ea620285f5034cE:
Lfunc_begin71:
	.loc	3 791 0
	.cfi_startproc
	pushq	%rbp
	.cfi_def_cfa_offset 16
	.cfi_offset %rbp, -16
	movq	%rsp, %rbp
	.cfi_def_cfa_register %rbp
	subq	$64, %rsp
	movq	%rdi, -56(%rbp)
	movq	%rsi, -48(%rbp)
	movq	%rdi, -32(%rbp)
	movq	%rsi, -24(%rbp)
Ltmp474:
	.file	27 "/rustc/2c8cc343237b8f7d5a3c3703e3a87f2eb2c54a74/library/core/src/mem" "mod.rs"
	.loc	27 309 5 prologue_end
	movq	$1, -16(%rbp)
Ltmp475:
	.loc	3 806 17
	movb	$1, %al
	testb	$1, %al
	jne	LBB71_2
	movb	$0, -33(%rbp)
	jmp	LBB71_3
LBB71_2:
	movb	$1, -33(%rbp)
LBB71_3:
	.loc	3 806 9 is_stmt 0
	movb	-33(%rbp), %al
	xorb	$-1, %al
	testb	$1, %al
	jne	LBB71_5
	.loc	3 0 9
	movq	-48(%rbp), %rcx
	movq	-56(%rbp), %rax
	.loc	3 808 18 is_stmt 1
	subq	%rcx, %rax
	shrq	$0, %rax
	movq	%rax, -8(%rbp)
	movq	-8(%rbp), %rax
Ltmp476:
	.loc	3 809 6
	addq	$64, %rsp
	popq	%rbp
	retq
LBB71_5:
Ltmp477:
	.loc	3 806 9
	leaq	l___unnamed_13(%rip), %rdi
	leaq	l___unnamed_14(%rip), %rdx
	movl	$73, %esi
	callq	__ZN4core9panicking5panic17hc1bc45270cf64b03E
Ltmp478:
Lfunc_end71:
	.cfi_endproc

	.p2align	4, 0x90
__ZN4core4hint21unreachable_unchecked17hb9f1766aae7c36c5E:
Lfunc_begin72:
	.file	28 "/rustc/2c8cc343237b8f7d5a3c3703e3a87f2eb2c54a74/library/core/src" "hint.rs"
	.loc	28 100 0
	.cfi_startproc
	pushq	%rbp
	.cfi_def_cfa_offset 16
	.cfi_offset %rbp, -16
	movq	%rsp, %rbp
	.cfi_def_cfa_register %rbp
Ltmp479:
	.loc	28 104 9 prologue_end
	ud2
Ltmp480:
Lfunc_end72:
	.cfi_endproc

	.globl	__ZN4core4iter6traits8iterator8Iterator3zip17h7460713eda6155f2E
	.p2align	4, 0x90
__ZN4core4iter6traits8iterator8Iterator3zip17h7460713eda6155f2E:
Lfunc_begin73:
	.file	29 "/rustc/2c8cc343237b8f7d5a3c3703e3a87f2eb2c54a74/library/core/src/iter/traits" "iterator.rs"
	.loc	29 623 0
	.cfi_startproc
	.cfi_personality 155, _rust_eh_personality
	.cfi_lsda 16, Lexception8
	pushq	%rbp
	.cfi_def_cfa_offset 16
	.cfi_offset %rbp, -16
	movq	%rsp, %rbp
	.cfi_def_cfa_register %rbp
	subq	$128, %rsp
	movq	%r8, -112(%rbp)
	movq	%rcx, -96(%rbp)
	movq	%rdx, -120(%rbp)
	movq	%rsi, %rax
	movq	-112(%rbp), %rsi
	movq	%rax, -104(%rbp)
	movq	%rdi, %rcx
	movq	-96(%rbp), %rdi
	movq	%rcx, -88(%rbp)
	movq	%rcx, -80(%rbp)
	movq	%rax, -48(%rbp)
	movq	%rdx, -40(%rbp)
	movq	%rdi, -32(%rbp)
	movq	%rsi, -24(%rbp)
Ltmp486:
	.loc	29 628 18 prologue_end
	movb	$1, -49(%rbp)
Ltmp481:
	.loc	29 628 24 is_stmt 0
	callq	__ZN63_$LT$I$u20$as$u20$core..iter..traits..collect..IntoIterator$GT$9into_iter17he6c5ed3b7189b83bE
Ltmp482:
	movq	%rdx, -72(%rbp)
	movq	%rax, -64(%rbp)
	jmp	LBB73_3
LBB73_1:
	.loc	29 628 41
	testb	$1, -49(%rbp)
	jne	LBB73_6
	jmp	LBB73_5
LBB73_2:
Ltmp485:
	.loc	29 0 41
	movq	%rax, %rcx
	movl	%edx, %eax
	movq	%rcx, -16(%rbp)
	movl	%eax, -8(%rbp)
	jmp	LBB73_1
LBB73_3:
	movq	-72(%rbp), %r8
	movq	-64(%rbp), %rcx
	movq	-120(%rbp), %rdx
	movq	-104(%rbp), %rsi
	movq	-88(%rbp), %rdi
	.loc	29 628 9
	movb	$0, -49(%rbp)
Ltmp483:
	callq	__ZN4core4iter8adapters3zip16Zip$LT$A$C$B$GT$3new17he419c407fc5a579bE
Ltmp484:
	jmp	LBB73_4
LBB73_4:
	.loc	29 0 9
	movq	-80(%rbp), %rax
	.loc	29 629 6 is_stmt 1
	addq	$128, %rsp
	popq	%rbp
	retq
LBB73_5:
	.loc	29 623 5
	movq	-16(%rbp), %rdi
	callq	__Unwind_Resume
LBB73_6:
	.loc	29 628 41
	jmp	LBB73_5
Ltmp487:
Lfunc_end73:
	.cfi_endproc
	.section	__TEXT,__gcc_except_tab
	.p2align	2
GCC_except_table73:
Lexception8:
	.byte	255
	.byte	255
	.byte	1
	.uleb128 Lcst_end8-Lcst_begin8
Lcst_begin8:
	.uleb128 Ltmp481-Lfunc_begin73
	.uleb128 Ltmp484-Ltmp481
	.uleb128 Ltmp485-Lfunc_begin73
	.byte	0
	.uleb128 Ltmp484-Lfunc_begin73
	.uleb128 Lfunc_end73-Ltmp484
	.byte	0
	.byte	0
Lcst_end8:
	.p2align	2

	.section	__TEXT,__text,regular,pure_instructions
	.globl	__ZN4core4iter6traits8iterator8Iterator4fold17h21e29e6968d0d775E
	.p2align	4, 0x90
__ZN4core4iter6traits8iterator8Iterator4fold17h21e29e6968d0d775E:
Lfunc_begin74:
	.loc	29 2431 0
	.cfi_startproc
	.cfi_personality 155, _rust_eh_personality
	.cfi_lsda 16, Lexception9
	pushq	%rbp
	.cfi_def_cfa_offset 16
	.cfi_offset %rbp, -16
	movq	%rsp, %rbp
	.cfi_def_cfa_register %rbp
	subq	$128, %rsp
	movq	%rdi, -96(%rbp)
Ltmp493:
	movb	%sil, %al
Ltmp494:
	movb	%al, -33(%rbp)
Ltmp495:
	.loc	29 2436 25 prologue_end
	movb	$1, -34(%rbp)
	movb	%al, -81(%rbp)
Ltmp496:
LBB74_1:
Ltmp488:
	.loc	29 0 25 is_stmt 0
	movq	-96(%rbp), %rdi
Ltmp497:
	.loc	29 2437 29 is_stmt 1
	callq	__ZN102_$LT$core..iter..adapters..zip..Zip$LT$A$C$B$GT$$u20$as$u20$core..iter..traits..iterator..Iterator$GT$4next17heebb581086034abeE
Ltmp489:
	movq	%rdx, -112(%rbp)
	movq	%rax, -104(%rbp)
	jmp	LBB74_4
Ltmp498:
LBB74_2:
	.loc	29 2441 5
	testb	$1, -34(%rbp)
	jne	LBB74_11
	jmp	LBB74_10
Ltmp499:
LBB74_3:
Ltmp492:
	.loc	29 0 5 is_stmt 0
	movq	%rax, %rcx
	movl	%edx, %eax
	movq	%rcx, -32(%rbp)
	movl	%eax, -24(%rbp)
	jmp	LBB74_2
Ltmp500:
LBB74_4:
	movq	-112(%rbp), %rax
	movq	-104(%rbp), %rcx
Ltmp501:
	.loc	29 2437 29 is_stmt 1
	movq	%rcx, -80(%rbp)
	movq	%rax, -72(%rbp)
	.loc	29 2437 19 is_stmt 0
	movq	-80(%rbp), %rdx
	movl	$1, %eax
	xorl	%ecx, %ecx
	cmpq	$0, %rdx
	cmoveq	%rcx, %rax
	cmpq	$1, %rax
	jne	LBB74_6
Ltmp502:
	.loc	29 2437 24
	movq	-80(%rbp), %rcx
	movq	-72(%rbp), %rax
	movq	%rcx, -16(%rbp)
	movq	%rax, -8(%rbp)
	.loc	29 2438 23 is_stmt 1
	movb	$0, -34(%rbp)
	movb	-81(%rbp), %dl
	.loc	29 2438 21 is_stmt 0
	movb	%dl, -64(%rbp)
	movq	%rcx, -56(%rbp)
	movq	%rax, -48(%rbp)
	movq	-56(%rbp), %rdx
	movq	-48(%rbp), %rcx
	movl	-64(%rbp), %esi
Ltmp490:
	leaq	-88(%rbp), %rdi
	callq	__ZN4core3num7dec2flt6common9ByteSlice23starts_with_ignore_case28_$u7b$$u7b$closure$u7d$$u7d$17hee035779ba3cf47bE
Ltmp491:
	movb	%al, -113(%rbp)
	jmp	LBB74_9
Ltmp503:
LBB74_6:
	.loc	29 2437 9 is_stmt 1
	jmp	LBB74_7
Ltmp504:
LBB74_7:
	.loc	29 2441 5
	jmp	LBB74_8
Ltmp505:
LBB74_8:
	.loc	29 2441 6 is_stmt 0
	movb	-81(%rbp), %al
	addq	$128, %rsp
	popq	%rbp
	retq
Ltmp506:
LBB74_9:
	.loc	29 0 6
	movb	-113(%rbp), %al
Ltmp507:
	.loc	29 2438 13 is_stmt 1
	movb	$1, -34(%rbp)
	movb	%al, -81(%rbp)
Ltmp508:
	.loc	29 2437 9
	jmp	LBB74_1
Ltmp509:
LBB74_10:
	.loc	29 2441 5
	jmp	LBB74_12
Ltmp510:
LBB74_11:
	jmp	LBB74_10
Ltmp511:
LBB74_12:
	.loc	29 2431 5
	movq	-32(%rbp), %rdi
	callq	__Unwind_Resume
Ltmp512:
Lfunc_end74:
	.cfi_endproc
	.section	__TEXT,__gcc_except_tab
	.p2align	2
GCC_except_table74:
Lexception9:
	.byte	255
	.byte	255
	.byte	1
	.uleb128 Lcst_end9-Lcst_begin9
Lcst_begin9:
	.uleb128 Ltmp488-Lfunc_begin74
	.uleb128 Ltmp491-Ltmp488
	.uleb128 Ltmp492-Lfunc_begin74
	.byte	0
	.uleb128 Ltmp491-Lfunc_begin74
	.uleb128 Lfunc_end74-Ltmp491
	.byte	0
	.byte	0
Lcst_end9:
	.p2align	2

	.section	__TEXT,__text,regular,pure_instructions
	.globl	__ZN4core4iter6traits8iterator8Iterator9enumerate17h0cf2c87248970a06E
	.p2align	4, 0x90
__ZN4core4iter6traits8iterator8Iterator9enumerate17h0cf2c87248970a06E:
Lfunc_begin75:
	.loc	29 993 0
	.cfi_startproc
	pushq	%rbp
	.cfi_def_cfa_offset 16
	.cfi_offset %rbp, -16
	movq	%rsp, %rbp
	.cfi_def_cfa_register %rbp
	subq	$32, %rsp
	movq	%rdi, %rax
	movq	%rax, -24(%rbp)
	movq	%rsi, -16(%rbp)
	movq	%rdx, -8(%rbp)
Ltmp513:
	.loc	29 997 9 prologue_end
	callq	__ZN4core4iter8adapters9enumerate18Enumerate$LT$I$GT$3new17h5dd0411bc2fe1d71E
	movq	-24(%rbp), %rax
	.loc	29 998 6
	addq	$32, %rsp
	popq	%rbp
	retq
Ltmp514:
Lfunc_end75:
	.cfi_endproc

	.globl	__ZN4core4iter6traits8iterator8Iterator9enumerate17h1aa0ec055110c007E
	.p2align	4, 0x90
__ZN4core4iter6traits8iterator8Iterator9enumerate17h1aa0ec055110c007E:
Lfunc_begin76:
	.loc	29 993 0
	.cfi_startproc
	pushq	%rbp
	.cfi_def_cfa_offset 16
	.cfi_offset %rbp, -16
	movq	%rsp, %rbp
	.cfi_def_cfa_register %rbp
	subq	$32, %rsp
	movq	%rdi, %rax
	movq	%rax, -24(%rbp)
	movq	%rsi, -16(%rbp)
	movq	%rdx, -8(%rbp)
Ltmp515:
	.loc	29 997 9 prologue_end
	callq	__ZN4core4iter8adapters9enumerate18Enumerate$LT$I$GT$3new17h87038177f90e815aE
	movq	-24(%rbp), %rax
	.loc	29 998 6
	addq	$32, %rsp
	popq	%rbp
	retq
Ltmp516:
Lfunc_end76:
	.cfi_endproc

	.globl	__ZN4core4iter6traits8iterator8Iterator9enumerate17hd71ee8c248af38e7E
	.p2align	4, 0x90
__ZN4core4iter6traits8iterator8Iterator9enumerate17hd71ee8c248af38e7E:
Lfunc_begin77:
	.loc	29 993 0
	.cfi_startproc
	pushq	%rbp
	.cfi_def_cfa_offset 16
	.cfi_offset %rbp, -16
	movq	%rsp, %rbp
	.cfi_def_cfa_register %rbp
	subq	$32, %rsp
	movq	%rdi, %rax
	movq	%rax, -24(%rbp)
	movq	%rsi, -16(%rbp)
	movq	%rdx, -8(%rbp)
Ltmp517:
	.loc	29 997 9 prologue_end
	callq	__ZN4core4iter8adapters9enumerate18Enumerate$LT$I$GT$3new17h9ffc803511daa351E
	movq	-24(%rbp), %rax
	.loc	29 998 6
	addq	$32, %rsp
	popq	%rbp
	retq
Ltmp518:
Lfunc_end77:
	.cfi_endproc

	.globl	__ZN4core4iter8adapters3zip16Zip$LT$A$C$B$GT$3new17he419c407fc5a579bE
	.p2align	4, 0x90
__ZN4core4iter8adapters3zip16Zip$LT$A$C$B$GT$3new17he419c407fc5a579bE:
Lfunc_begin78:
	.loc	1 22 0
	.cfi_startproc
	pushq	%rbp
	.cfi_def_cfa_offset 16
	.cfi_offset %rbp, -16
	movq	%rsp, %rbp
	.cfi_def_cfa_register %rbp
	subq	$48, %rsp
	movq	%rdi, %rax
	movq	%rax, -40(%rbp)
	movq	%rsi, -32(%rbp)
	movq	%rdx, -24(%rbp)
	movq	%rcx, -16(%rbp)
	movq	%r8, -8(%rbp)
Ltmp519:
	.loc	1 23 9 prologue_end
	callq	__ZN111_$LT$core..iter..adapters..zip..Zip$LT$A$C$B$GT$$u20$as$u20$core..iter..adapters..zip..ZipImpl$LT$A$C$B$GT$$GT$3new17hb48e1e07eb3332a2E
	movq	-40(%rbp), %rax
	.loc	1 24 6
	addq	$48, %rsp
	popq	%rbp
	retq
Ltmp520:
Lfunc_end78:
	.cfi_endproc

	.globl	__ZN4core4iter8adapters3zip27TrustedRandomAccessNoCoerce4size17h874f347f7492bed4E
	.p2align	4, 0x90
__ZN4core4iter8adapters3zip27TrustedRandomAccessNoCoerce4size17h874f347f7492bed4E:
Lfunc_begin79:
	.loc	1 538 0
	.cfi_startproc
	pushq	%rbp
	.cfi_def_cfa_offset 16
	.cfi_offset %rbp, -16
	movq	%rsp, %rbp
	.cfi_def_cfa_register %rbp
	subq	$32, %rsp
	movq	%rdi, %rsi
	movq	%rsi, -8(%rbp)
Ltmp521:
	.loc	1 542 9 prologue_end
	leaq	-32(%rbp), %rdi
	callq	__ZN91_$LT$core..slice..iter..Iter$LT$T$GT$$u20$as$u20$core..iter..traits..iterator..Iterator$GT$9size_hint17h27c43a386133a335E
	movq	-32(%rbp), %rax
	.loc	1 543 6
	addq	$32, %rsp
	popq	%rbp
	retq
Ltmp522:
Lfunc_end79:
	.cfi_endproc

	.globl	__ZN4core4iter8adapters9enumerate18Enumerate$LT$I$GT$3new17h5dd0411bc2fe1d71E
	.p2align	4, 0x90
__ZN4core4iter8adapters9enumerate18Enumerate$LT$I$GT$3new17h5dd0411bc2fe1d71E:
Lfunc_begin80:
	.loc	7 22 0
	.cfi_startproc
	pushq	%rbp
	.cfi_def_cfa_offset 16
	.cfi_offset %rbp, -16
	movq	%rsp, %rbp
	.cfi_def_cfa_register %rbp
	subq	$16, %rsp
	movq	%rdi, %rax
	movq	%rsi, -16(%rbp)
	movq	%rdx, -8(%rbp)
Ltmp523:
	.loc	7 23 9 prologue_end
	movq	%rsi, (%rdi)
	movq	%rdx, 8(%rdi)
	movq	$0, 16(%rdi)
	.loc	7 24 6
	addq	$16, %rsp
	popq	%rbp
	retq
Ltmp524:
Lfunc_end80:
	.cfi_endproc

	.globl	__ZN4core4iter8adapters9enumerate18Enumerate$LT$I$GT$3new17h87038177f90e815aE
	.p2align	4, 0x90
__ZN4core4iter8adapters9enumerate18Enumerate$LT$I$GT$3new17h87038177f90e815aE:
Lfunc_begin81:
	.loc	7 22 0
	.cfi_startproc
	pushq	%rbp
	.cfi_def_cfa_offset 16
	.cfi_offset %rbp, -16
	movq	%rsp, %rbp
	.cfi_def_cfa_register %rbp
	subq	$16, %rsp
	movq	%rdi, %rax
	movq	%rsi, -16(%rbp)
	movq	%rdx, -8(%rbp)
Ltmp525:
	.loc	7 23 9 prologue_end
	movq	%rsi, (%rdi)
	movq	%rdx, 8(%rdi)
	movq	$0, 16(%rdi)
	.loc	7 24 6
	addq	$16, %rsp
	popq	%rbp
	retq
Ltmp526:
Lfunc_end81:
	.cfi_endproc

	.globl	__ZN4core4iter8adapters9enumerate18Enumerate$LT$I$GT$3new17h9ffc803511daa351E
	.p2align	4, 0x90
__ZN4core4iter8adapters9enumerate18Enumerate$LT$I$GT$3new17h9ffc803511daa351E:
Lfunc_begin82:
	.loc	7 22 0
	.cfi_startproc
	pushq	%rbp
	.cfi_def_cfa_offset 16
	.cfi_offset %rbp, -16
	movq	%rsp, %rbp
	.cfi_def_cfa_register %rbp
	subq	$16, %rsp
	movq	%rdi, %rax
	movq	%rsi, -16(%rbp)
	movq	%rdx, -8(%rbp)
Ltmp527:
	.loc	7 23 9 prologue_end
	movq	%rsi, (%rdi)
	movq	%rdx, 8(%rdi)
	movq	$0, 16(%rdi)
	.loc	7 24 6
	addq	$16, %rsp
	popq	%rbp
	retq
Ltmp528:
Lfunc_end82:
	.cfi_endproc

	.p2align	4, 0x90
__ZN4core5alloc6layout6Layout5array5inner17he57fbf53f141cc2fE:
Lfunc_begin83:
	.file	30 "/rustc/2c8cc343237b8f7d5a3c3703e3a87f2eb2c54a74/library/core/src/alloc" "layout.rs"
	.loc	30 441 0
	.cfi_startproc
	pushq	%rbp
	.cfi_def_cfa_offset 16
	.cfi_offset %rbp, -16
	movq	%rsp, %rbp
	.cfi_def_cfa_register %rbp
	subq	$176, %rsp
	movq	%rdi, -168(%rbp)
	movq	%rsi, -160(%rbp)
	movq	%rdx, -152(%rbp)
	movq	%rdi, -88(%rbp)
	movq	%rsi, -80(%rbp)
	movq	%rdx, -72(%rbp)
Ltmp529:
	.loc	30 452 16 prologue_end
	cmpq	$0, %rdi
	jne	LBB83_2
	movb	$0, -121(%rbp)
	jmp	LBB83_5
LBB83_2:
	.loc	30 0 16 is_stmt 0
	movq	-168(%rbp), %rax
	movq	-160(%rbp), %rcx
	.loc	30 452 68
	movq	%rcx, -64(%rbp)
Ltmp530:
	.loc	30 93 32 is_stmt 1
	movq	%rcx, -56(%rbp)
Ltmp531:
	.file	31 "/rustc/2c8cc343237b8f7d5a3c3703e3a87f2eb2c54a74/library/core/src/ptr" "alignment.rs"
	.loc	31 97 9
	movq	%rcx, -104(%rbp)
	movq	-104(%rbp), %rdx
Ltmp532:
	.loc	30 93 31
	subq	$1, %rdx
	.loc	30 93 9 is_stmt 0
	movabsq	$9223372036854775807, %rcx
	subq	%rdx, %rcx
	movq	%rcx, -176(%rbp)
Ltmp533:
	.loc	30 452 41 is_stmt 1
	cmpq	$0, %rax
	sete	%al
	testb	$1, %al
	jne	LBB83_4
	.loc	30 0 41 is_stmt 0
	movq	-168(%rbp), %rcx
	movq	-176(%rbp), %rax
	.loc	30 452 41
	xorl	%edx, %edx
	divq	%rcx
	movq	%rax, %rcx
	movq	-152(%rbp), %rax
	.loc	30 452 37
	cmpq	%rcx, %rax
	seta	%al
	.loc	30 452 16
	andb	$1, %al
	movb	%al, -121(%rbp)
	jmp	LBB83_5
LBB83_4:
	.loc	30 452 41
	leaq	_str.1(%rip), %rdi
	leaq	l___unnamed_15(%rip), %rdx
	movl	$25, %esi
	callq	__ZN4core9panicking5panic17hc1bc45270cf64b03E
LBB83_5:
	.loc	30 452 16
	testb	$1, -121(%rbp)
	jne	LBB83_7
	.loc	30 0 16
	movq	-160(%rbp), %rax
	movq	-152(%rbp), %rdx
	movq	-168(%rbp), %rcx
	.loc	30 456 30 is_stmt 1
	imulq	%rdx, %rcx
	movq	%rcx, -48(%rbp)
Ltmp534:
	.loc	30 461 59
	movq	%rcx, -40(%rbp)
	.loc	30 461 71 is_stmt 0
	movq	%rax, -32(%rbp)
Ltmp535:
	.loc	31 97 9 is_stmt 1
	movq	%rax, -96(%rbp)
	movq	-96(%rbp), %rax
	movq	%rax, -24(%rbp)
Ltmp536:
	.loc	30 120 65
	movq	%rax, -16(%rbp)
Ltmp537:
	.loc	31 89 18
	movq	%rax, -8(%rbp)
	movq	-8(%rbp), %rax
Ltmp538:
	.loc	30 120 18
	movq	%rcx, -120(%rbp)
	movq	%rax, -112(%rbp)
Ltmp539:
	.loc	30 461 22
	movq	-120(%rbp), %rcx
	movq	-112(%rbp), %rax
	movq	%rcx, -144(%rbp)
	movq	%rax, -136(%rbp)
Ltmp540:
	.loc	30 462 10
	jmp	LBB83_8
LBB83_7:
	.loc	30 453 24
	movq	$0, -136(%rbp)
LBB83_8:
	.loc	30 462 10
	movq	-144(%rbp), %rax
	movq	-136(%rbp), %rdx
	addq	$176, %rsp
	popq	%rbp
	retq
Ltmp541:
Lfunc_end83:
	.cfi_endproc

	.globl	__ZN4core5array85_$LT$impl$u20$core..ops..index..Index$LT$I$GT$$u20$for$u20$$u5b$T$u3b$$u20$N$u5d$$GT$5index17h5442813367660717E
	.p2align	4, 0x90
__ZN4core5array85_$LT$impl$u20$core..ops..index..Index$LT$I$GT$$u20$for$u20$$u5b$T$u3b$$u20$N$u5d$$GT$5index17h5442813367660717E:
Lfunc_begin84:
	.file	32 "/rustc/2c8cc343237b8f7d5a3c3703e3a87f2eb2c54a74/library/core/src/array" "mod.rs"
	.loc	32 357 0
	.cfi_startproc
	pushq	%rbp
	.cfi_def_cfa_offset 16
	.cfi_offset %rbp, -16
	movq	%rsp, %rbp
	.cfi_def_cfa_register %rbp
	subq	$16, %rsp
	movq	%rdx, %rcx
	movq	%rsi, %rdx
	movq	%rdi, -16(%rbp)
	movq	%rdx, -8(%rbp)
	movl	$4, %esi
Ltmp542:
	.loc	32 358 9 prologue_end
	callq	__ZN4core5slice5index74_$LT$impl$u20$core..ops..index..Index$LT$I$GT$$u20$for$u20$$u5b$T$u5d$$GT$5index17h4ba05a26dce4a73eE
	.loc	32 359 6
	addq	$16, %rsp
	popq	%rbp
	retq
Ltmp543:
Lfunc_end84:
	.cfi_endproc

	.globl	__ZN4core5array85_$LT$impl$u20$core..ops..index..Index$LT$I$GT$$u20$for$u20$$u5b$T$u3b$$u20$N$u5d$$GT$5index17h64e87aca0be4845dE
	.p2align	4, 0x90
__ZN4core5array85_$LT$impl$u20$core..ops..index..Index$LT$I$GT$$u20$for$u20$$u5b$T$u3b$$u20$N$u5d$$GT$5index17h64e87aca0be4845dE:
Lfunc_begin85:
	.loc	32 357 0
	.cfi_startproc
	pushq	%rbp
	.cfi_def_cfa_offset 16
	.cfi_offset %rbp, -16
	movq	%rsp, %rbp
	.cfi_def_cfa_register %rbp
	subq	$16, %rsp
	movq	%rdx, %rcx
	movq	%rsi, %rdx
	movq	%rdi, -16(%rbp)
	movq	%rdx, -8(%rbp)
	movl	$4, %esi
Ltmp544:
	.loc	32 358 9 prologue_end
	callq	__ZN4core5slice5index74_$LT$impl$u20$core..ops..index..Index$LT$I$GT$$u20$for$u20$$u5b$T$u5d$$GT$5index17hb14044457876e4e3E
	.loc	32 359 6
	addq	$16, %rsp
	popq	%rbp
	retq
Ltmp545:
Lfunc_end85:
	.cfi_endproc

	.globl	__ZN4core5array85_$LT$impl$u20$core..ops..index..Index$LT$I$GT$$u20$for$u20$$u5b$T$u3b$$u20$N$u5d$$GT$5index17ha783cce13b3f9c0dE
	.p2align	4, 0x90
__ZN4core5array85_$LT$impl$u20$core..ops..index..Index$LT$I$GT$$u20$for$u20$$u5b$T$u3b$$u20$N$u5d$$GT$5index17ha783cce13b3f9c0dE:
Lfunc_begin86:
	.loc	32 357 0
	.cfi_startproc
	pushq	%rbp
	.cfi_def_cfa_offset 16
	.cfi_offset %rbp, -16
	movq	%rsp, %rbp
	.cfi_def_cfa_register %rbp
	subq	$16, %rsp
	movq	%rdx, %rcx
	movq	%rsi, %rdx
	movq	%rdi, -16(%rbp)
	movq	%rdx, -8(%rbp)
	movl	$4, %esi
Ltmp546:
	.loc	32 358 9 prologue_end
	callq	__ZN4core5slice5index74_$LT$impl$u20$core..ops..index..Index$LT$I$GT$$u20$for$u20$$u5b$T$u5d$$GT$5index17hc6ea8889d0b30de2E
	.loc	32 359 6
	addq	$16, %rsp
	popq	%rbp
	retq
Ltmp547:
Lfunc_end86:
	.cfi_endproc

	.globl	__ZN4core5array88_$LT$impl$u20$core..ops..index..IndexMut$LT$I$GT$$u20$for$u20$$u5b$T$u3b$$u20$N$u5d$$GT$9index_mut17h33a46874bd2e1f92E
	.p2align	4, 0x90
__ZN4core5array88_$LT$impl$u20$core..ops..index..IndexMut$LT$I$GT$$u20$for$u20$$u5b$T$u3b$$u20$N$u5d$$GT$9index_mut17h33a46874bd2e1f92E:
Lfunc_begin87:
	.loc	32 369 0
	.cfi_startproc
	pushq	%rbp
	.cfi_def_cfa_offset 16
	.cfi_offset %rbp, -16
	movq	%rsp, %rbp
	.cfi_def_cfa_register %rbp
	subq	$16, %rsp
	movq	%rdx, %rcx
	movq	%rsi, %rdx
	movq	%rdi, -16(%rbp)
	movq	%rdx, -8(%rbp)
	movl	$4, %esi
Ltmp548:
	.loc	32 370 9 prologue_end
	callq	__ZN4core5slice5index77_$LT$impl$u20$core..ops..index..IndexMut$LT$I$GT$$u20$for$u20$$u5b$T$u5d$$GT$9index_mut17h25e18f4b68214d49E
	.loc	32 371 6
	addq	$16, %rsp
	popq	%rbp
	retq
Ltmp549:
Lfunc_end87:
	.cfi_endproc

	.globl	__ZN4core5array88_$LT$impl$u20$core..ops..index..IndexMut$LT$I$GT$$u20$for$u20$$u5b$T$u3b$$u20$N$u5d$$GT$9index_mut17h840f65e6ea123f4bE
	.p2align	4, 0x90
__ZN4core5array88_$LT$impl$u20$core..ops..index..IndexMut$LT$I$GT$$u20$for$u20$$u5b$T$u3b$$u20$N$u5d$$GT$9index_mut17h840f65e6ea123f4bE:
Lfunc_begin88:
	.loc	32 369 0
	.cfi_startproc
	pushq	%rbp
	.cfi_def_cfa_offset 16
	.cfi_offset %rbp, -16
	movq	%rsp, %rbp
	.cfi_def_cfa_register %rbp
	subq	$16, %rsp
	movq	%rdx, %rcx
	movq	%rsi, %rdx
	movq	%rdi, -16(%rbp)
	movq	%rdx, -8(%rbp)
	movl	$4, %esi
Ltmp550:
	.loc	32 370 9 prologue_end
	callq	__ZN4core5slice5index77_$LT$impl$u20$core..ops..index..IndexMut$LT$I$GT$$u20$for$u20$$u5b$T$u5d$$GT$9index_mut17h3636847dec9ef220E
	.loc	32 371 6
	addq	$16, %rsp
	popq	%rbp
	retq
Ltmp551:
Lfunc_end88:
	.cfi_endproc

	.globl	__ZN4core5array88_$LT$impl$u20$core..ops..index..IndexMut$LT$I$GT$$u20$for$u20$$u5b$T$u3b$$u20$N$u5d$$GT$9index_mut17hf69f9e4755716efcE
	.p2align	4, 0x90
__ZN4core5array88_$LT$impl$u20$core..ops..index..IndexMut$LT$I$GT$$u20$for$u20$$u5b$T$u3b$$u20$N$u5d$$GT$9index_mut17hf69f9e4755716efcE:
Lfunc_begin89:
	.loc	32 369 0
	.cfi_startproc
	pushq	%rbp
	.cfi_def_cfa_offset 16
	.cfi_offset %rbp, -16
	movq	%rsp, %rbp
	.cfi_def_cfa_register %rbp
	subq	$16, %rsp
	movq	%rdx, %rcx
	movq	%rsi, %rdx
	movq	%rdi, -16(%rbp)
	movq	%rdx, -8(%rbp)
	movl	$4, %esi
Ltmp552:
	.loc	32 370 9 prologue_end
	callq	__ZN4core5slice5index77_$LT$impl$u20$core..ops..index..IndexMut$LT$I$GT$$u20$for$u20$$u5b$T$u5d$$GT$9index_mut17hea2cfb23e9be2c33E
	.loc	32 371 6
	addq	$16, %rsp
	popq	%rbp
	retq
Ltmp553:
Lfunc_end89:
	.cfi_endproc

	.globl	__ZN4core5slice29_$LT$impl$u20$$u5b$T$u5d$$GT$12chunks_exact17h2dc0f66a89bfb055E
	.p2align	4, 0x90
__ZN4core5slice29_$LT$impl$u20$$u5b$T$u5d$$GT$12chunks_exact17h2dc0f66a89bfb055E:
Lfunc_begin90:
	.loc	22 917 0
	.cfi_startproc
	pushq	%rbp
	.cfi_def_cfa_offset 16
	.cfi_offset %rbp, -16
	movq	%rsp, %rbp
	.cfi_def_cfa_register %rbp
	subq	$208, %rsp
	movq	%rdx, -200(%rbp)
	movq	%rsi, -192(%rbp)
	movq	%rdi, -184(%rbp)
	movq	%rdi, -176(%rbp)
	movq	%rcx, -152(%rbp)
	movq	%rsi, -32(%rbp)
	movq	%rdx, -24(%rbp)
Ltmp554:
	.loc	22 918 9 prologue_end
	leaq	-152(%rbp), %rax
	movq	%rax, -144(%rbp)
	leaq	L___unnamed_16(%rip), %rax
	movq	%rax, -136(%rbp)
	movq	-144(%rbp), %rax
	movq	%rax, -168(%rbp)
	movq	%rax, -16(%rbp)
	movq	-136(%rbp), %rcx
	movq	%rcx, -160(%rbp)
	movq	%rcx, -8(%rbp)
Ltmp555:
	.loc	22 918 9 is_stmt 0
	movq	(%rax), %rax
	cmpq	(%rcx), %rax
	je	LBB90_2
Ltmp556:
	.loc	22 0 9
	movq	-200(%rbp), %rdx
	movq	-192(%rbp), %rsi
	movq	-184(%rbp), %rdi
	.loc	22 919 32 is_stmt 1
	movq	-152(%rbp), %rcx
	.loc	22 919 9 is_stmt 0
	callq	__ZN4core5slice4iter20ChunksExact$LT$T$GT$3new17h4ba0e10889272ce4E
	movq	-176(%rbp), %rax
	.loc	22 920 6 is_stmt 1
	addq	$208, %rsp
	popq	%rbp
	retq
LBB90_2:
Ltmp557:
	.loc	22 918 9
	leaq	l___unnamed_17(%rip), %rsi
	leaq	l___unnamed_4(%rip), %rcx
	xorl	%eax, %eax
	movl	%eax, %r8d
	leaq	-80(%rbp), %rdi
	movl	$1, %edx
	callq	__ZN4core3fmt9Arguments6new_v117hc925036bf7777112E
	movq	-168(%rbp), %rsi
	movq	-160(%rbp), %rdx
	movq	-40(%rbp), %rax
	movq	%rax, -88(%rbp)
	movq	-48(%rbp), %rax
	movq	%rax, -96(%rbp)
	movq	-56(%rbp), %rax
	movq	%rax, -104(%rbp)
	movq	-64(%rbp), %rax
	movq	%rax, -112(%rbp)
	movq	-80(%rbp), %rax
	movq	-72(%rbp), %rcx
	movq	%rcx, -120(%rbp)
	movq	%rax, -128(%rbp)
	leaq	l___unnamed_18(%rip), %r8
	movl	$1, %edi
	leaq	-128(%rbp), %rcx
	callq	__ZN4core9panicking13assert_failed17h0e347c95f1948728E
Ltmp558:
Lfunc_end90:
	.cfi_endproc

	.globl	__ZN4core5slice29_$LT$impl$u20$$u5b$T$u5d$$GT$12chunks_exact17h7e92c94f5015cc07E
	.p2align	4, 0x90
__ZN4core5slice29_$LT$impl$u20$$u5b$T$u5d$$GT$12chunks_exact17h7e92c94f5015cc07E:
Lfunc_begin91:
	.loc	22 917 0
	.cfi_startproc
	pushq	%rbp
	.cfi_def_cfa_offset 16
	.cfi_offset %rbp, -16
	movq	%rsp, %rbp
	.cfi_def_cfa_register %rbp
	subq	$208, %rsp
	movq	%rdx, -200(%rbp)
	movq	%rsi, -192(%rbp)
	movq	%rdi, -184(%rbp)
	movq	%rdi, -176(%rbp)
	movq	%rcx, -152(%rbp)
	movq	%rsi, -32(%rbp)
	movq	%rdx, -24(%rbp)
Ltmp559:
	.loc	22 918 9 prologue_end
	leaq	-152(%rbp), %rax
	movq	%rax, -144(%rbp)
	leaq	L___unnamed_16(%rip), %rax
	movq	%rax, -136(%rbp)
	movq	-144(%rbp), %rax
	movq	%rax, -168(%rbp)
	movq	%rax, -16(%rbp)
	movq	-136(%rbp), %rcx
	movq	%rcx, -160(%rbp)
	movq	%rcx, -8(%rbp)
Ltmp560:
	.loc	22 918 9 is_stmt 0
	movq	(%rax), %rax
	cmpq	(%rcx), %rax
	je	LBB91_2
Ltmp561:
	.loc	22 0 9
	movq	-200(%rbp), %rdx
	movq	-192(%rbp), %rsi
	movq	-184(%rbp), %rdi
	.loc	22 919 32 is_stmt 1
	movq	-152(%rbp), %rcx
	.loc	22 919 9 is_stmt 0
	callq	__ZN4core5slice4iter20ChunksExact$LT$T$GT$3new17h6c279c7541dc7a50E
	movq	-176(%rbp), %rax
	.loc	22 920 6 is_stmt 1
	addq	$208, %rsp
	popq	%rbp
	retq
LBB91_2:
Ltmp562:
	.loc	22 918 9
	leaq	l___unnamed_17(%rip), %rsi
	leaq	l___unnamed_4(%rip), %rcx
	xorl	%eax, %eax
	movl	%eax, %r8d
	leaq	-80(%rbp), %rdi
	movl	$1, %edx
	callq	__ZN4core3fmt9Arguments6new_v117hc925036bf7777112E
	movq	-168(%rbp), %rsi
	movq	-160(%rbp), %rdx
	movq	-40(%rbp), %rax
	movq	%rax, -88(%rbp)
	movq	-48(%rbp), %rax
	movq	%rax, -96(%rbp)
	movq	-56(%rbp), %rax
	movq	%rax, -104(%rbp)
	movq	-64(%rbp), %rax
	movq	%rax, -112(%rbp)
	movq	-80(%rbp), %rax
	movq	-72(%rbp), %rcx
	movq	%rcx, -120(%rbp)
	movq	%rax, -128(%rbp)
	leaq	l___unnamed_18(%rip), %r8
	movl	$1, %edi
	leaq	-128(%rbp), %rcx
	callq	__ZN4core9panicking13assert_failed17h0e347c95f1948728E
Ltmp563:
Lfunc_end91:
	.cfi_endproc

	.globl	__ZN4core5slice29_$LT$impl$u20$$u5b$T$u5d$$GT$12chunks_exact17hce6664d44bd59b2bE
	.p2align	4, 0x90
__ZN4core5slice29_$LT$impl$u20$$u5b$T$u5d$$GT$12chunks_exact17hce6664d44bd59b2bE:
Lfunc_begin92:
	.loc	22 917 0
	.cfi_startproc
	pushq	%rbp
	.cfi_def_cfa_offset 16
	.cfi_offset %rbp, -16
	movq	%rsp, %rbp
	.cfi_def_cfa_register %rbp
	subq	$208, %rsp
	movq	%rdx, -200(%rbp)
	movq	%rsi, -192(%rbp)
	movq	%rdi, -184(%rbp)
	movq	%rdi, -176(%rbp)
	movq	%rcx, -152(%rbp)
	movq	%rsi, -32(%rbp)
	movq	%rdx, -24(%rbp)
Ltmp564:
	.loc	22 918 9 prologue_end
	leaq	-152(%rbp), %rax
	movq	%rax, -144(%rbp)
	leaq	L___unnamed_16(%rip), %rax
	movq	%rax, -136(%rbp)
	movq	-144(%rbp), %rax
	movq	%rax, -168(%rbp)
	movq	%rax, -16(%rbp)
	movq	-136(%rbp), %rcx
	movq	%rcx, -160(%rbp)
	movq	%rcx, -8(%rbp)
Ltmp565:
	.loc	22 918 9 is_stmt 0
	movq	(%rax), %rax
	cmpq	(%rcx), %rax
	je	LBB92_2
Ltmp566:
	.loc	22 0 9
	movq	-200(%rbp), %rdx
	movq	-192(%rbp), %rsi
	movq	-184(%rbp), %rdi
	.loc	22 919 32 is_stmt 1
	movq	-152(%rbp), %rcx
	.loc	22 919 9 is_stmt 0
	callq	__ZN4core5slice4iter20ChunksExact$LT$T$GT$3new17hf0bb13ee69a6bbdeE
	movq	-176(%rbp), %rax
	.loc	22 920 6 is_stmt 1
	addq	$208, %rsp
	popq	%rbp
	retq
LBB92_2:
Ltmp567:
	.loc	22 918 9
	leaq	l___unnamed_17(%rip), %rsi
	leaq	l___unnamed_4(%rip), %rcx
	xorl	%eax, %eax
	movl	%eax, %r8d
	leaq	-80(%rbp), %rdi
	movl	$1, %edx
	callq	__ZN4core3fmt9Arguments6new_v117hc925036bf7777112E
	movq	-168(%rbp), %rsi
	movq	-160(%rbp), %rdx
	movq	-40(%rbp), %rax
	movq	%rax, -88(%rbp)
	movq	-48(%rbp), %rax
	movq	%rax, -96(%rbp)
	movq	-56(%rbp), %rax
	movq	%rax, -104(%rbp)
	movq	-64(%rbp), %rax
	movq	%rax, -112(%rbp)
	movq	-80(%rbp), %rax
	movq	-72(%rbp), %rcx
	movq	%rcx, -120(%rbp)
	movq	%rax, -128(%rbp)
	leaq	l___unnamed_18(%rip), %r8
	movl	$1, %edi
	leaq	-128(%rbp), %rcx
	callq	__ZN4core9panicking13assert_failed17h0e347c95f1948728E
Ltmp568:
Lfunc_end92:
	.cfi_endproc

	.globl	__ZN4core5slice29_$LT$impl$u20$$u5b$T$u5d$$GT$15copy_from_slice17h6677f8cf10ae9b18E
	.p2align	4, 0x90
__ZN4core5slice29_$LT$impl$u20$$u5b$T$u5d$$GT$15copy_from_slice17h6677f8cf10ae9b18E:
Lfunc_begin93:
	.loc	22 3301 0
	.cfi_startproc
	pushq	%rbp
	.cfi_def_cfa_offset 16
	.cfi_offset %rbp, -16
	movq	%rsp, %rbp
	.cfi_def_cfa_register %rbp
	subq	$128, %rsp
	movq	%rdi, -128(%rbp)
	movq	%rsi, -120(%rbp)
	movq	%rdx, -112(%rbp)
	movq	%rcx, -104(%rbp)
	movq	%r8, -96(%rbp)
	movq	%rdi, -88(%rbp)
	movq	%rsi, -80(%rbp)
	movq	%rdx, -72(%rbp)
	movq	%rcx, -64(%rbp)
Ltmp569:
	.loc	22 3317 12 prologue_end
	cmpq	%rcx, %rsi
	jne	LBB93_2
	.loc	22 0 12 is_stmt 0
	movq	-112(%rbp), %rsi
	movq	-128(%rbp), %rdi
	movq	-120(%rbp), %rdx
	movq	-104(%rbp), %rax
	.loc	22 3325 38 is_stmt 1
	movq	%rsi, -56(%rbp)
	movq	%rax, -48(%rbp)
Ltmp570:
	.loc	22 477 9
	movq	%rsi, -40(%rbp)
Ltmp571:
	.loc	22 3325 52
	movq	%rdi, -32(%rbp)
	movq	%rdx, -24(%rbp)
Ltmp572:
	.loc	22 507 9
	movq	%rdi, -16(%rbp)
Ltmp573:
	.loc	22 3325 71
	movq	%rdx, -8(%rbp)
Ltmp574:
	.file	33 "/rustc/2c8cc343237b8f7d5a3c3703e3a87f2eb2c54a74/library/core/src" "intrinsics.rs"
	.loc	33 2372 9
	shlq	$3, %rdx
	callq	_memcpy
Ltmp575:
	.loc	22 3327 6
	addq	$128, %rsp
	popq	%rbp
	retq
LBB93_2:
	.loc	22 0 6 is_stmt 0
	movq	-96(%rbp), %rdx
	movq	-104(%rbp), %rsi
	movq	-120(%rbp), %rdi
	.loc	22 3318 13 is_stmt 1
	callq	__ZN4core5slice29_$LT$impl$u20$$u5b$T$u5d$$GT$15copy_from_slice17len_mismatch_fail17h1c0d44dec593879cE
Ltmp576:
Lfunc_end93:
	.cfi_endproc

	.globl	__ZN4core5slice29_$LT$impl$u20$$u5b$T$u5d$$GT$15copy_from_slice17h6ae243c9345ade84E
	.p2align	4, 0x90
__ZN4core5slice29_$LT$impl$u20$$u5b$T$u5d$$GT$15copy_from_slice17h6ae243c9345ade84E:
Lfunc_begin94:
	.loc	22 3301 0
	.cfi_startproc
	pushq	%rbp
	.cfi_def_cfa_offset 16
	.cfi_offset %rbp, -16
	movq	%rsp, %rbp
	.cfi_def_cfa_register %rbp
	subq	$128, %rsp
	movq	%rdi, -128(%rbp)
	movq	%rsi, -120(%rbp)
	movq	%rdx, -112(%rbp)
	movq	%rcx, -104(%rbp)
	movq	%r8, -96(%rbp)
	movq	%rdi, -88(%rbp)
	movq	%rsi, -80(%rbp)
	movq	%rdx, -72(%rbp)
	movq	%rcx, -64(%rbp)
Ltmp577:
	.loc	22 3317 12 prologue_end
	cmpq	%rcx, %rsi
	jne	LBB94_2
	.loc	22 0 12 is_stmt 0
	movq	-112(%rbp), %rsi
	movq	-128(%rbp), %rdi
	movq	-120(%rbp), %rdx
	movq	-104(%rbp), %rax
	.loc	22 3325 38 is_stmt 1
	movq	%rsi, -56(%rbp)
	movq	%rax, -48(%rbp)
Ltmp578:
	.loc	22 477 9
	movq	%rsi, -40(%rbp)
Ltmp579:
	.loc	22 3325 52
	movq	%rdi, -32(%rbp)
	movq	%rdx, -24(%rbp)
Ltmp580:
	.loc	22 507 9
	movq	%rdi, -16(%rbp)
Ltmp581:
	.loc	22 3325 71
	movq	%rdx, -8(%rbp)
Ltmp582:
	.loc	33 2372 9
	shlq	$1, %rdx
	callq	_memcpy
Ltmp583:
	.loc	22 3327 6
	addq	$128, %rsp
	popq	%rbp
	retq
LBB94_2:
	.loc	22 0 6 is_stmt 0
	movq	-96(%rbp), %rdx
	movq	-104(%rbp), %rsi
	movq	-120(%rbp), %rdi
	.loc	22 3318 13 is_stmt 1
	callq	__ZN4core5slice29_$LT$impl$u20$$u5b$T$u5d$$GT$15copy_from_slice17len_mismatch_fail17h1c0d44dec593879cE
Ltmp584:
Lfunc_end94:
	.cfi_endproc

	.globl	__ZN4core5slice29_$LT$impl$u20$$u5b$T$u5d$$GT$15copy_from_slice17h9ede3f42bc8a8945E
	.p2align	4, 0x90
__ZN4core5slice29_$LT$impl$u20$$u5b$T$u5d$$GT$15copy_from_slice17h9ede3f42bc8a8945E:
Lfunc_begin95:
	.loc	22 3301 0
	.cfi_startproc
	pushq	%rbp
	.cfi_def_cfa_offset 16
	.cfi_offset %rbp, -16
	movq	%rsp, %rbp
	.cfi_def_cfa_register %rbp
	subq	$128, %rsp
	movq	%rdi, -128(%rbp)
	movq	%rsi, -120(%rbp)
	movq	%rdx, -112(%rbp)
	movq	%rcx, -104(%rbp)
	movq	%r8, -96(%rbp)
	movq	%rdi, -88(%rbp)
	movq	%rsi, -80(%rbp)
	movq	%rdx, -72(%rbp)
	movq	%rcx, -64(%rbp)
Ltmp585:
	.loc	22 3317 12 prologue_end
	cmpq	%rcx, %rsi
	jne	LBB95_2
	.loc	22 0 12 is_stmt 0
	movq	-112(%rbp), %rsi
	movq	-128(%rbp), %rdi
	movq	-120(%rbp), %rdx
	movq	-104(%rbp), %rax
	.loc	22 3325 38 is_stmt 1
	movq	%rsi, -56(%rbp)
	movq	%rax, -48(%rbp)
Ltmp586:
	.loc	22 477 9
	movq	%rsi, -40(%rbp)
Ltmp587:
	.loc	22 3325 52
	movq	%rdi, -32(%rbp)
	movq	%rdx, -24(%rbp)
Ltmp588:
	.loc	22 507 9
	movq	%rdi, -16(%rbp)
Ltmp589:
	.loc	22 3325 71
	movq	%rdx, -8(%rbp)
Ltmp590:
	.loc	33 2372 9
	shlq	$1, %rdx
	callq	_memcpy
Ltmp591:
	.loc	22 3327 6
	addq	$128, %rsp
	popq	%rbp
	retq
LBB95_2:
	.loc	22 0 6 is_stmt 0
	movq	-96(%rbp), %rdx
	movq	-104(%rbp), %rsi
	movq	-120(%rbp), %rdi
	.loc	22 3318 13 is_stmt 1
	callq	__ZN4core5slice29_$LT$impl$u20$$u5b$T$u5d$$GT$15copy_from_slice17len_mismatch_fail17h1c0d44dec593879cE
Ltmp592:
Lfunc_end95:
	.cfi_endproc

	.globl	__ZN4core5slice29_$LT$impl$u20$$u5b$T$u5d$$GT$15copy_from_slice17ha26f5687755434a3E
	.p2align	4, 0x90
__ZN4core5slice29_$LT$impl$u20$$u5b$T$u5d$$GT$15copy_from_slice17ha26f5687755434a3E:
Lfunc_begin96:
	.loc	22 3301 0
	.cfi_startproc
	pushq	%rbp
	.cfi_def_cfa_offset 16
	.cfi_offset %rbp, -16
	movq	%rsp, %rbp
	.cfi_def_cfa_register %rbp
	subq	$128, %rsp
	movq	%rdi, -128(%rbp)
	movq	%rsi, -120(%rbp)
	movq	%rdx, -112(%rbp)
	movq	%rcx, -104(%rbp)
	movq	%r8, -96(%rbp)
	movq	%rdi, -88(%rbp)
	movq	%rsi, -80(%rbp)
	movq	%rdx, -72(%rbp)
	movq	%rcx, -64(%rbp)
Ltmp593:
	.loc	22 3317 12 prologue_end
	cmpq	%rcx, %rsi
	jne	LBB96_2
	.loc	22 0 12 is_stmt 0
	movq	-112(%rbp), %rsi
	movq	-128(%rbp), %rdi
	movq	-120(%rbp), %rdx
	movq	-104(%rbp), %rax
	.loc	22 3325 38 is_stmt 1
	movq	%rsi, -56(%rbp)
	movq	%rax, -48(%rbp)
Ltmp594:
	.loc	22 477 9
	movq	%rsi, -40(%rbp)
Ltmp595:
	.loc	22 3325 52
	movq	%rdi, -32(%rbp)
	movq	%rdx, -24(%rbp)
Ltmp596:
	.loc	22 507 9
	movq	%rdi, -16(%rbp)
Ltmp597:
	.loc	22 3325 71
	movq	%rdx, -8(%rbp)
Ltmp598:
	.loc	33 2372 9
	shlq	$2, %rdx
	callq	_memcpy
Ltmp599:
	.loc	22 3327 6
	addq	$128, %rsp
	popq	%rbp
	retq
LBB96_2:
	.loc	22 0 6 is_stmt 0
	movq	-96(%rbp), %rdx
	movq	-104(%rbp), %rsi
	movq	-120(%rbp), %rdi
	.loc	22 3318 13 is_stmt 1
	callq	__ZN4core5slice29_$LT$impl$u20$$u5b$T$u5d$$GT$15copy_from_slice17len_mismatch_fail17h1c0d44dec593879cE
Ltmp600:
Lfunc_end96:
	.cfi_endproc

	.globl	__ZN4core5slice29_$LT$impl$u20$$u5b$T$u5d$$GT$18split_at_unchecked17h9d9a2e08f6109e8fE
	.p2align	4, 0x90
__ZN4core5slice29_$LT$impl$u20$$u5b$T$u5d$$GT$18split_at_unchecked17h9d9a2e08f6109e8fE:
Lfunc_begin97:
	.loc	22 1673 0
	.cfi_startproc
	pushq	%rbp
	.cfi_def_cfa_offset 16
	.cfi_offset %rbp, -16
	movq	%rsp, %rbp
	.cfi_def_cfa_register %rbp
	subq	$272, %rsp
	movq	%rcx, %r9
	movq	%rsi, %rcx
	movq	%rdi, %rax
	movq	%rcx, -208(%rbp)
	movq	%rdx, -200(%rbp)
	movq	%r9, -192(%rbp)
Ltmp601:
	.loc	22 1678 19 prologue_end
	movq	%rdx, -184(%rbp)
Ltmp602:
	.loc	22 1679 19
	movq	%rcx, -176(%rbp)
	movq	%rdx, -168(%rbp)
Ltmp603:
	.loc	22 477 9
	movq	%rcx, -160(%rbp)
Ltmp604:
	.loc	22 1682 34
	movq	%rcx, -152(%rbp)
	.loc	22 1682 39 is_stmt 0
	movq	%r9, -144(%rbp)
Ltmp605:
	.file	34 "/rustc/2c8cc343237b8f7d5a3c3703e3a87f2eb2c54a74/library/core/src/slice" "raw.rs"
	.loc	34 100 37 is_stmt 1
	movq	%rcx, -136(%rbp)
	.loc	34 100 43 is_stmt 0
	movq	%r9, -128(%rbp)
Ltmp606:
	.loc	4 734 20 is_stmt 1
	movq	%rcx, -120(%rbp)
Ltmp607:
	.loc	3 61 9
	movq	%rcx, -112(%rbp)
Ltmp608:
	.loc	4 734 33
	movq	%r9, -104(%rbp)
Ltmp609:
	.loc	5 118 36
	movq	%rcx, -256(%rbp)
	movq	%r9, -248(%rbp)
	.loc	5 118 14 is_stmt 0
	movq	-256(%rbp), %r8
	movq	-248(%rbp), %rsi
	movq	%r8, -272(%rbp)
	movq	%rsi, -264(%rbp)
	movq	-272(%rbp), %r8
	movq	-264(%rbp), %rsi
Ltmp610:
	.loc	22 1682 60 is_stmt 1
	movq	%rcx, -96(%rbp)
	.loc	22 1682 68 is_stmt 0
	movq	%r9, -88(%rbp)
Ltmp611:
	.loc	3 932 18 is_stmt 1
	movq	%rcx, -80(%rbp)
	.loc	3 932 30 is_stmt 0
	movq	%r9, -72(%rbp)
Ltmp612:
	.loc	3 473 18 is_stmt 1
	movq	%r9, %r10
	shlq	$3, %r10
	addq	%r10, %rcx
	movq	%rcx, -64(%rbp)
	movq	-64(%rbp), %rcx
	movq	%rcx, -56(%rbp)
Ltmp613:
	.loc	22 1682 74
	subq	%r9, %rdx
	movq	%rdx, -48(%rbp)
Ltmp614:
	.loc	34 100 37
	movq	%rcx, -40(%rbp)
	.loc	34 100 43 is_stmt 0
	movq	%rdx, -32(%rbp)
Ltmp615:
	.loc	4 734 20 is_stmt 1
	movq	%rcx, -24(%rbp)
Ltmp616:
	.loc	3 61 9
	movq	%rcx, -16(%rbp)
Ltmp617:
	.loc	4 734 33
	movq	%rdx, -8(%rbp)
Ltmp618:
	.loc	5 118 36
	movq	%rcx, -224(%rbp)
	movq	%rdx, -216(%rbp)
	.loc	5 118 14 is_stmt 0
	movq	-224(%rbp), %rdx
	movq	-216(%rbp), %rcx
	movq	%rdx, -240(%rbp)
	movq	%rcx, -232(%rbp)
	movq	-240(%rbp), %rdx
	movq	-232(%rbp), %rcx
Ltmp619:
	.loc	22 1682 18 is_stmt 1
	movq	%r8, (%rdi)
	movq	%rsi, 8(%rdi)
	movq	%rdx, 16(%rdi)
	movq	%rcx, 24(%rdi)
Ltmp620:
	.loc	22 1683 6
	addq	$272, %rsp
	popq	%rbp
	retq
Ltmp621:
Lfunc_end97:
	.cfi_endproc

	.globl	__ZN4core5slice29_$LT$impl$u20$$u5b$T$u5d$$GT$18split_at_unchecked17ha0cfe786d512840dE
	.p2align	4, 0x90
__ZN4core5slice29_$LT$impl$u20$$u5b$T$u5d$$GT$18split_at_unchecked17ha0cfe786d512840dE:
Lfunc_begin98:
	.loc	22 1673 0
	.cfi_startproc
	pushq	%rbp
	.cfi_def_cfa_offset 16
	.cfi_offset %rbp, -16
	movq	%rsp, %rbp
	.cfi_def_cfa_register %rbp
	subq	$272, %rsp
	movq	%rcx, %r9
	movq	%rsi, %rcx
	movq	%rdi, %rax
	movq	%rcx, -208(%rbp)
	movq	%rdx, -200(%rbp)
	movq	%r9, -192(%rbp)
Ltmp622:
	.loc	22 1678 19 prologue_end
	movq	%rdx, -184(%rbp)
Ltmp623:
	.loc	22 1679 19
	movq	%rcx, -176(%rbp)
	movq	%rdx, -168(%rbp)
Ltmp624:
	.loc	22 477 9
	movq	%rcx, -160(%rbp)
Ltmp625:
	.loc	22 1682 34
	movq	%rcx, -152(%rbp)
	.loc	22 1682 39 is_stmt 0
	movq	%r9, -144(%rbp)
Ltmp626:
	.loc	34 100 37 is_stmt 1
	movq	%rcx, -136(%rbp)
	.loc	34 100 43 is_stmt 0
	movq	%r9, -128(%rbp)
Ltmp627:
	.loc	4 734 20 is_stmt 1
	movq	%rcx, -120(%rbp)
Ltmp628:
	.loc	3 61 9
	movq	%rcx, -112(%rbp)
Ltmp629:
	.loc	4 734 33
	movq	%r9, -104(%rbp)
Ltmp630:
	.loc	5 118 36
	movq	%rcx, -256(%rbp)
	movq	%r9, -248(%rbp)
	.loc	5 118 14 is_stmt 0
	movq	-256(%rbp), %r8
	movq	-248(%rbp), %rsi
	movq	%r8, -272(%rbp)
	movq	%rsi, -264(%rbp)
	movq	-272(%rbp), %r8
	movq	-264(%rbp), %rsi
Ltmp631:
	.loc	22 1682 60 is_stmt 1
	movq	%rcx, -96(%rbp)
	.loc	22 1682 68 is_stmt 0
	movq	%r9, -88(%rbp)
Ltmp632:
	.loc	3 932 18 is_stmt 1
	movq	%rcx, -80(%rbp)
	.loc	3 932 30 is_stmt 0
	movq	%r9, -72(%rbp)
Ltmp633:
	.loc	3 473 18 is_stmt 1
	movq	%r9, %r10
	shlq	$1, %r10
	addq	%r10, %rcx
	movq	%rcx, -64(%rbp)
	movq	-64(%rbp), %rcx
	movq	%rcx, -56(%rbp)
Ltmp634:
	.loc	22 1682 74
	subq	%r9, %rdx
	movq	%rdx, -48(%rbp)
Ltmp635:
	.loc	34 100 37
	movq	%rcx, -40(%rbp)
	.loc	34 100 43 is_stmt 0
	movq	%rdx, -32(%rbp)
Ltmp636:
	.loc	4 734 20 is_stmt 1
	movq	%rcx, -24(%rbp)
Ltmp637:
	.loc	3 61 9
	movq	%rcx, -16(%rbp)
Ltmp638:
	.loc	4 734 33
	movq	%rdx, -8(%rbp)
Ltmp639:
	.loc	5 118 36
	movq	%rcx, -224(%rbp)
	movq	%rdx, -216(%rbp)
	.loc	5 118 14 is_stmt 0
	movq	-224(%rbp), %rdx
	movq	-216(%rbp), %rcx
	movq	%rdx, -240(%rbp)
	movq	%rcx, -232(%rbp)
	movq	-240(%rbp), %rdx
	movq	-232(%rbp), %rcx
Ltmp640:
	.loc	22 1682 18 is_stmt 1
	movq	%r8, (%rdi)
	movq	%rsi, 8(%rdi)
	movq	%rdx, 16(%rdi)
	movq	%rcx, 24(%rdi)
Ltmp641:
	.loc	22 1683 6
	addq	$272, %rsp
	popq	%rbp
	retq
Ltmp642:
Lfunc_end98:
	.cfi_endproc

	.globl	__ZN4core5slice29_$LT$impl$u20$$u5b$T$u5d$$GT$18split_at_unchecked17hda1c100bb320d6e2E
	.p2align	4, 0x90
__ZN4core5slice29_$LT$impl$u20$$u5b$T$u5d$$GT$18split_at_unchecked17hda1c100bb320d6e2E:
Lfunc_begin99:
	.loc	22 1673 0
	.cfi_startproc
	pushq	%rbp
	.cfi_def_cfa_offset 16
	.cfi_offset %rbp, -16
	movq	%rsp, %rbp
	.cfi_def_cfa_register %rbp
	subq	$272, %rsp
	movq	%rcx, %r9
	movq	%rsi, %rcx
	movq	%rdi, %rax
	movq	%rcx, -208(%rbp)
	movq	%rdx, -200(%rbp)
	movq	%r9, -192(%rbp)
Ltmp643:
	.loc	22 1678 19 prologue_end
	movq	%rdx, -184(%rbp)
Ltmp644:
	.loc	22 1679 19
	movq	%rcx, -176(%rbp)
	movq	%rdx, -168(%rbp)
Ltmp645:
	.loc	22 477 9
	movq	%rcx, -160(%rbp)
Ltmp646:
	.loc	22 1682 34
	movq	%rcx, -152(%rbp)
	.loc	22 1682 39 is_stmt 0
	movq	%r9, -144(%rbp)
Ltmp647:
	.loc	34 100 37 is_stmt 1
	movq	%rcx, -136(%rbp)
	.loc	34 100 43 is_stmt 0
	movq	%r9, -128(%rbp)
Ltmp648:
	.loc	4 734 20 is_stmt 1
	movq	%rcx, -120(%rbp)
Ltmp649:
	.loc	3 61 9
	movq	%rcx, -112(%rbp)
Ltmp650:
	.loc	4 734 33
	movq	%r9, -104(%rbp)
Ltmp651:
	.loc	5 118 36
	movq	%rcx, -256(%rbp)
	movq	%r9, -248(%rbp)
	.loc	5 118 14 is_stmt 0
	movq	-256(%rbp), %r8
	movq	-248(%rbp), %rsi
	movq	%r8, -272(%rbp)
	movq	%rsi, -264(%rbp)
	movq	-272(%rbp), %r8
	movq	-264(%rbp), %rsi
Ltmp652:
	.loc	22 1682 60 is_stmt 1
	movq	%rcx, -96(%rbp)
	.loc	22 1682 68 is_stmt 0
	movq	%r9, -88(%rbp)
Ltmp653:
	.loc	3 932 18 is_stmt 1
	movq	%rcx, -80(%rbp)
	.loc	3 932 30 is_stmt 0
	movq	%r9, -72(%rbp)
Ltmp654:
	.loc	3 473 18 is_stmt 1
	movq	%r9, %r10
	shlq	$2, %r10
	addq	%r10, %rcx
	movq	%rcx, -64(%rbp)
	movq	-64(%rbp), %rcx
	movq	%rcx, -56(%rbp)
Ltmp655:
	.loc	22 1682 74
	subq	%r9, %rdx
	movq	%rdx, -48(%rbp)
Ltmp656:
	.loc	34 100 37
	movq	%rcx, -40(%rbp)
	.loc	34 100 43 is_stmt 0
	movq	%rdx, -32(%rbp)
Ltmp657:
	.loc	4 734 20 is_stmt 1
	movq	%rcx, -24(%rbp)
Ltmp658:
	.loc	3 61 9
	movq	%rcx, -16(%rbp)
Ltmp659:
	.loc	4 734 33
	movq	%rdx, -8(%rbp)
Ltmp660:
	.loc	5 118 36
	movq	%rcx, -224(%rbp)
	movq	%rdx, -216(%rbp)
	.loc	5 118 14 is_stmt 0
	movq	-224(%rbp), %rdx
	movq	-216(%rbp), %rcx
	movq	%rdx, -240(%rbp)
	movq	%rcx, -232(%rbp)
	movq	-240(%rbp), %rdx
	movq	-232(%rbp), %rcx
Ltmp661:
	.loc	22 1682 18 is_stmt 1
	movq	%r8, (%rdi)
	movq	%rsi, 8(%rdi)
	movq	%rdx, 16(%rdi)
	movq	%rcx, 24(%rdi)
Ltmp662:
	.loc	22 1683 6
	addq	$272, %rsp
	popq	%rbp
	retq
Ltmp663:
Lfunc_end99:
	.cfi_endproc

	.globl	__ZN4core5slice29_$LT$impl$u20$$u5b$T$u5d$$GT$3len17h2c6124eb327b82dcE
	.p2align	4, 0x90
__ZN4core5slice29_$LT$impl$u20$$u5b$T$u5d$$GT$3len17h2c6124eb327b82dcE:
Lfunc_begin100:
	.loc	22 136 0
	.cfi_startproc
	pushq	%rbp
	.cfi_def_cfa_offset 16
	.cfi_offset %rbp, -16
	movq	%rsp, %rbp
	.cfi_def_cfa_register %rbp
	subq	$48, %rsp
	movq	%rdi, -32(%rbp)
	movq	%rsi, -24(%rbp)
Ltmp664:
	.loc	22 137 23 prologue_end
	movq	%rdi, -16(%rbp)
	movq	%rsi, -8(%rbp)
Ltmp665:
	.loc	5 98 14
	movq	%rdi, -48(%rbp)
	movq	%rsi, -40(%rbp)
	movq	-40(%rbp), %rax
Ltmp666:
	.loc	22 138 6
	addq	$48, %rsp
	popq	%rbp
	retq
Ltmp667:
Lfunc_end100:
	.cfi_endproc

	.globl	__ZN4core5slice29_$LT$impl$u20$$u5b$T$u5d$$GT$3len17he1f5c4b523af3b92E
	.p2align	4, 0x90
__ZN4core5slice29_$LT$impl$u20$$u5b$T$u5d$$GT$3len17he1f5c4b523af3b92E:
Lfunc_begin101:
	.loc	22 136 0
	.cfi_startproc
	pushq	%rbp
	.cfi_def_cfa_offset 16
	.cfi_offset %rbp, -16
	movq	%rsp, %rbp
	.cfi_def_cfa_register %rbp
	subq	$48, %rsp
	movq	%rdi, -32(%rbp)
	movq	%rsi, -24(%rbp)
Ltmp668:
	.loc	22 137 23 prologue_end
	movq	%rdi, -16(%rbp)
	movq	%rsi, -8(%rbp)
Ltmp669:
	.loc	5 98 14
	movq	%rdi, -48(%rbp)
	movq	%rsi, -40(%rbp)
	movq	-40(%rbp), %rax
Ltmp670:
	.loc	22 138 6
	addq	$48, %rsp
	popq	%rbp
	retq
Ltmp671:
Lfunc_end101:
	.cfi_endproc

	.globl	__ZN4core5slice29_$LT$impl$u20$$u5b$T$u5d$$GT$4iter17h260ce9a815ff47efE
	.p2align	4, 0x90
__ZN4core5slice29_$LT$impl$u20$$u5b$T$u5d$$GT$4iter17h260ce9a815ff47efE:
Lfunc_begin102:
	.loc	22 741 0
	.cfi_startproc
	pushq	%rbp
	.cfi_def_cfa_offset 16
	.cfi_offset %rbp, -16
	movq	%rsp, %rbp
	.cfi_def_cfa_register %rbp
	subq	$16, %rsp
	movq	%rdi, -16(%rbp)
	movq	%rsi, -8(%rbp)
Ltmp672:
	.loc	22 742 9 prologue_end
	callq	__ZN4core5slice4iter13Iter$LT$T$GT$3new17h7c15f8379397f533E
	.loc	22 743 6
	addq	$16, %rsp
	popq	%rbp
	retq
Ltmp673:
Lfunc_end102:
	.cfi_endproc

	.globl	__ZN4core5slice29_$LT$impl$u20$$u5b$T$u5d$$GT$4iter17hdf48761923b8f010E
	.p2align	4, 0x90
__ZN4core5slice29_$LT$impl$u20$$u5b$T$u5d$$GT$4iter17hdf48761923b8f010E:
Lfunc_begin103:
	.loc	22 741 0
	.cfi_startproc
	pushq	%rbp
	.cfi_def_cfa_offset 16
	.cfi_offset %rbp, -16
	movq	%rsp, %rbp
	.cfi_def_cfa_register %rbp
	subq	$16, %rsp
	movq	%rdi, -16(%rbp)
	movq	%rsi, -8(%rbp)
Ltmp674:
	.loc	22 742 9 prologue_end
	callq	__ZN4core5slice4iter13Iter$LT$T$GT$3new17hcf43e887515fc159E
	.loc	22 743 6
	addq	$16, %rsp
	popq	%rbp
	retq
Ltmp675:
Lfunc_end103:
	.cfi_endproc

	.globl	__ZN4core5slice29_$LT$impl$u20$$u5b$T$u5d$$GT$4iter17he87ff29e3b9f9f75E
	.p2align	4, 0x90
__ZN4core5slice29_$LT$impl$u20$$u5b$T$u5d$$GT$4iter17he87ff29e3b9f9f75E:
Lfunc_begin104:
	.loc	22 741 0
	.cfi_startproc
	pushq	%rbp
	.cfi_def_cfa_offset 16
	.cfi_offset %rbp, -16
	movq	%rsp, %rbp
	.cfi_def_cfa_register %rbp
	subq	$16, %rsp
	movq	%rdi, -16(%rbp)
	movq	%rsi, -8(%rbp)
Ltmp676:
	.loc	22 742 9 prologue_end
	callq	__ZN4core5slice4iter13Iter$LT$T$GT$3new17hb03e813352c70930E
	.loc	22 743 6
	addq	$16, %rsp
	popq	%rbp
	retq
Ltmp677:
Lfunc_end104:
	.cfi_endproc

	.globl	__ZN4core5slice29_$LT$impl$u20$$u5b$T$u5d$$GT$8is_empty17h5ae7ab55ec87b2c8E
	.p2align	4, 0x90
__ZN4core5slice29_$LT$impl$u20$$u5b$T$u5d$$GT$8is_empty17h5ae7ab55ec87b2c8E:
Lfunc_begin105:
	.loc	22 152 0
	.cfi_startproc
	pushq	%rbp
	.cfi_def_cfa_offset 16
	.cfi_offset %rbp, -16
	movq	%rsp, %rbp
	.cfi_def_cfa_register %rbp
	subq	$16, %rsp
	movq	%rdi, -16(%rbp)
	movq	%rsi, -8(%rbp)
Ltmp678:
	.loc	22 153 9 prologue_end
	cmpq	$0, %rsi
	sete	%al
	.loc	22 154 6
	andb	$1, %al
	movzbl	%al, %eax
	addq	$16, %rsp
	popq	%rbp
	retq
Ltmp679:
Lfunc_end105:
	.cfi_endproc

	.globl	__ZN4core5slice29_$LT$impl$u20$$u5b$T$u5d$$GT$8is_empty17h991de7453c573d44E
	.p2align	4, 0x90
__ZN4core5slice29_$LT$impl$u20$$u5b$T$u5d$$GT$8is_empty17h991de7453c573d44E:
Lfunc_begin106:
	.loc	22 152 0
	.cfi_startproc
	pushq	%rbp
	.cfi_def_cfa_offset 16
	.cfi_offset %rbp, -16
	movq	%rsp, %rbp
	.cfi_def_cfa_register %rbp
	subq	$16, %rsp
	movq	%rdi, -16(%rbp)
	movq	%rsi, -8(%rbp)
Ltmp680:
	.loc	22 153 9 prologue_end
	cmpq	$0, %rsi
	sete	%al
	.loc	22 154 6
	andb	$1, %al
	movzbl	%al, %eax
	addq	$16, %rsp
	popq	%rbp
	retq
Ltmp681:
Lfunc_end106:
	.cfi_endproc

	.globl	__ZN4core5slice29_$LT$impl$u20$$u5b$T$u5d$$GT$8is_empty17hb164f81b53b66c16E
	.p2align	4, 0x90
__ZN4core5slice29_$LT$impl$u20$$u5b$T$u5d$$GT$8is_empty17hb164f81b53b66c16E:
Lfunc_begin107:
	.loc	22 152 0
	.cfi_startproc
	pushq	%rbp
	.cfi_def_cfa_offset 16
	.cfi_offset %rbp, -16
	movq	%rsp, %rbp
	.cfi_def_cfa_register %rbp
	subq	$16, %rsp
	movq	%rdi, -16(%rbp)
	movq	%rsi, -8(%rbp)
Ltmp682:
	.loc	22 153 9 prologue_end
	cmpq	$0, %rsi
	sete	%al
	.loc	22 154 6
	andb	$1, %al
	movzbl	%al, %eax
	addq	$16, %rsp
	popq	%rbp
	retq
Ltmp683:
Lfunc_end107:
	.cfi_endproc

	.globl	__ZN4core5slice29_$LT$impl$u20$$u5b$T$u5d$$GT$8split_at17hadb57a9dc74869c3E
	.p2align	4, 0x90
__ZN4core5slice29_$LT$impl$u20$$u5b$T$u5d$$GT$8split_at17hadb57a9dc74869c3E:
Lfunc_begin108:
	.loc	22 1587 0
	.cfi_startproc
	pushq	%rbp
	.cfi_def_cfa_offset 16
	.cfi_offset %rbp, -16
	movq	%rsp, %rbp
	.cfi_def_cfa_register %rbp
	subq	$80, %rsp
	movq	%r8, -72(%rbp)
	movq	%rcx, -64(%rbp)
	movq	%rdx, -56(%rbp)
	movq	%rsi, -48(%rbp)
	movq	%rdi, -40(%rbp)
	movq	%rdi, -32(%rbp)
	movq	%rsi, -24(%rbp)
	movq	%rdx, -16(%rbp)
	movq	%rcx, -8(%rbp)
Ltmp684:
	.loc	22 1588 17 prologue_end
	cmpq	%rdx, %rcx
	setbe	%al
	.loc	22 1588 9 is_stmt 0
	xorb	$-1, %al
	testb	$1, %al
	jne	LBB108_2
	.loc	22 0 9
	movq	-64(%rbp), %rcx
	movq	-56(%rbp), %rdx
	movq	-48(%rbp), %rsi
	movq	-40(%rbp), %rdi
	.loc	22 1591 18 is_stmt 1
	callq	__ZN4core5slice29_$LT$impl$u20$$u5b$T$u5d$$GT$18split_at_unchecked17hda1c100bb320d6e2E
	movq	-32(%rbp), %rax
	.loc	22 1592 6
	addq	$80, %rsp
	popq	%rbp
	retq
LBB108_2:
	.loc	22 0 6 is_stmt 0
	movq	-72(%rbp), %rdx
	.loc	22 1588 9 is_stmt 1
	leaq	l___unnamed_19(%rip), %rdi
	movl	$35, %esi
	callq	__ZN4core9panicking5panic17hc1bc45270cf64b03E
Ltmp685:
Lfunc_end108:
	.cfi_endproc

	.globl	__ZN4core5slice29_$LT$impl$u20$$u5b$T$u5d$$GT$8split_at17hc6c1d4a2f4df3dd8E
	.p2align	4, 0x90
__ZN4core5slice29_$LT$impl$u20$$u5b$T$u5d$$GT$8split_at17hc6c1d4a2f4df3dd8E:
Lfunc_begin109:
	.loc	22 1587 0
	.cfi_startproc
	pushq	%rbp
	.cfi_def_cfa_offset 16
	.cfi_offset %rbp, -16
	movq	%rsp, %rbp
	.cfi_def_cfa_register %rbp
	subq	$80, %rsp
	movq	%r8, -72(%rbp)
	movq	%rcx, -64(%rbp)
	movq	%rdx, -56(%rbp)
	movq	%rsi, -48(%rbp)
	movq	%rdi, -40(%rbp)
	movq	%rdi, -32(%rbp)
	movq	%rsi, -24(%rbp)
	movq	%rdx, -16(%rbp)
	movq	%rcx, -8(%rbp)
Ltmp686:
	.loc	22 1588 17 prologue_end
	cmpq	%rdx, %rcx
	setbe	%al
	.loc	22 1588 9 is_stmt 0
	xorb	$-1, %al
	testb	$1, %al
	jne	LBB109_2
	.loc	22 0 9
	movq	-64(%rbp), %rcx
	movq	-56(%rbp), %rdx
	movq	-48(%rbp), %rsi
	movq	-40(%rbp), %rdi
	.loc	22 1591 18 is_stmt 1
	callq	__ZN4core5slice29_$LT$impl$u20$$u5b$T$u5d$$GT$18split_at_unchecked17ha0cfe786d512840dE
	movq	-32(%rbp), %rax
	.loc	22 1592 6
	addq	$80, %rsp
	popq	%rbp
	retq
LBB109_2:
	.loc	22 0 6 is_stmt 0
	movq	-72(%rbp), %rdx
	.loc	22 1588 9 is_stmt 1
	leaq	l___unnamed_19(%rip), %rdi
	movl	$35, %esi
	callq	__ZN4core9panicking5panic17hc1bc45270cf64b03E
Ltmp687:
Lfunc_end109:
	.cfi_endproc

	.globl	__ZN4core5slice29_$LT$impl$u20$$u5b$T$u5d$$GT$8split_at17hd94824eed971ea24E
	.p2align	4, 0x90
__ZN4core5slice29_$LT$impl$u20$$u5b$T$u5d$$GT$8split_at17hd94824eed971ea24E:
Lfunc_begin110:
	.loc	22 1587 0
	.cfi_startproc
	pushq	%rbp
	.cfi_def_cfa_offset 16
	.cfi_offset %rbp, -16
	movq	%rsp, %rbp
	.cfi_def_cfa_register %rbp
	subq	$80, %rsp
	movq	%r8, -72(%rbp)
	movq	%rcx, -64(%rbp)
	movq	%rdx, -56(%rbp)
	movq	%rsi, -48(%rbp)
	movq	%rdi, -40(%rbp)
	movq	%rdi, -32(%rbp)
	movq	%rsi, -24(%rbp)
	movq	%rdx, -16(%rbp)
	movq	%rcx, -8(%rbp)
Ltmp688:
	.loc	22 1588 17 prologue_end
	cmpq	%rdx, %rcx
	setbe	%al
	.loc	22 1588 9 is_stmt 0
	xorb	$-1, %al
	testb	$1, %al
	jne	LBB110_2
	.loc	22 0 9
	movq	-64(%rbp), %rcx
	movq	-56(%rbp), %rdx
	movq	-48(%rbp), %rsi
	movq	-40(%rbp), %rdi
	.loc	22 1591 18 is_stmt 1
	callq	__ZN4core5slice29_$LT$impl$u20$$u5b$T$u5d$$GT$18split_at_unchecked17h9d9a2e08f6109e8fE
	movq	-32(%rbp), %rax
	.loc	22 1592 6
	addq	$80, %rsp
	popq	%rbp
	retq
LBB110_2:
	.loc	22 0 6 is_stmt 0
	movq	-72(%rbp), %rdx
	.loc	22 1588 9 is_stmt 1
	leaq	l___unnamed_19(%rip), %rdi
	movl	$35, %esi
	callq	__ZN4core9panicking5panic17hc1bc45270cf64b03E
Ltmp689:
Lfunc_end110:
	.cfi_endproc

	.globl	__ZN4core5slice3raw14from_raw_parts17h7e0f280209bc553aE
	.p2align	4, 0x90
__ZN4core5slice3raw14from_raw_parts17h7e0f280209bc553aE:
Lfunc_begin111:
	.loc	34 92 0
	.cfi_startproc
	pushq	%rbp
	.cfi_def_cfa_offset 16
	.cfi_offset %rbp, -16
	movq	%rsp, %rbp
	.cfi_def_cfa_register %rbp
	subq	$88, %rsp
	movq	%rdi, -56(%rbp)
	movq	%rsi, -48(%rbp)
Ltmp690:
	.loc	34 100 37 prologue_end
	movq	%rdi, -40(%rbp)
	.loc	34 100 43 is_stmt 0
	movq	%rsi, -32(%rbp)
Ltmp691:
	.loc	4 734 20 is_stmt 1
	movq	%rdi, -24(%rbp)
Ltmp692:
	.loc	3 61 9
	movq	%rdi, -16(%rbp)
Ltmp693:
	.loc	4 734 33
	movq	%rsi, -8(%rbp)
Ltmp694:
	.loc	5 118 36
	movq	%rdi, -72(%rbp)
	movq	%rsi, -64(%rbp)
	.loc	5 118 14 is_stmt 0
	movq	-72(%rbp), %rcx
	movq	-64(%rbp), %rax
	movq	%rcx, -88(%rbp)
	movq	%rax, -80(%rbp)
	movq	-88(%rbp), %rax
	movq	-80(%rbp), %rdx
Ltmp695:
	.loc	34 102 2 is_stmt 1
	addq	$88, %rsp
	popq	%rbp
	retq
Ltmp696:
Lfunc_end111:
	.cfi_endproc

	.globl	__ZN4core5slice3raw14from_raw_parts17hf8900e2899f7f707E
	.p2align	4, 0x90
__ZN4core5slice3raw14from_raw_parts17hf8900e2899f7f707E:
Lfunc_begin112:
	.loc	34 92 0
	.cfi_startproc
	pushq	%rbp
	.cfi_def_cfa_offset 16
	.cfi_offset %rbp, -16
	movq	%rsp, %rbp
	.cfi_def_cfa_register %rbp
	subq	$88, %rsp
	movq	%rdi, -56(%rbp)
	movq	%rsi, -48(%rbp)
Ltmp697:
	.loc	34 100 37 prologue_end
	movq	%rdi, -40(%rbp)
	.loc	34 100 43 is_stmt 0
	movq	%rsi, -32(%rbp)
Ltmp698:
	.loc	4 734 20 is_stmt 1
	movq	%rdi, -24(%rbp)
Ltmp699:
	.loc	3 61 9
	movq	%rdi, -16(%rbp)
Ltmp700:
	.loc	4 734 33
	movq	%rsi, -8(%rbp)
Ltmp701:
	.loc	5 118 36
	movq	%rdi, -72(%rbp)
	movq	%rsi, -64(%rbp)
	.loc	5 118 14 is_stmt 0
	movq	-72(%rbp), %rcx
	movq	-64(%rbp), %rax
	movq	%rcx, -88(%rbp)
	movq	%rax, -80(%rbp)
	movq	-88(%rbp), %rax
	movq	-80(%rbp), %rdx
Ltmp702:
	.loc	34 102 2 is_stmt 1
	addq	$88, %rsp
	popq	%rbp
	retq
Ltmp703:
Lfunc_end112:
	.cfi_endproc

	.globl	__ZN4core5slice4iter13Iter$LT$T$GT$3new17h2d7638e77ca48e18E
	.p2align	4, 0x90
__ZN4core5slice4iter13Iter$LT$T$GT$3new17h2d7638e77ca48e18E:
Lfunc_begin113:
	.file	35 "/rustc/2c8cc343237b8f7d5a3c3703e3a87f2eb2c54a74/library/core/src/slice" "iter.rs"
	.loc	35 82 0
	.cfi_startproc
	pushq	%rbp
	.cfi_def_cfa_offset 16
	.cfi_offset %rbp, -16
	movq	%rsp, %rbp
	.cfi_def_cfa_register %rbp
	subq	$280, %rsp
	movq	%rdi, -280(%rbp)
	movq	%rsi, -272(%rbp)
	movq	%rdi, -208(%rbp)
	movq	%rsi, -200(%rbp)
Ltmp704:
	.loc	35 83 19 prologue_end
	movq	%rdi, -184(%rbp)
	movq	%rsi, -176(%rbp)
Ltmp705:
	.loc	22 477 9
	movq	%rdi, -168(%rbp)
Ltmp706:
	.loc	35 86 21
	movq	%rdi, -160(%rbp)
Ltmp707:
	.loc	3 53 36
	movq	%rdi, -232(%rbp)
	.loc	3 53 18 is_stmt 0
	movq	-232(%rbp), %rax
	movq	%rax, -152(%rbp)
Ltmp708:
	.loc	3 39 13 is_stmt 1
	movq	%rax, -144(%rbp)
Ltmp709:
	.loc	3 209 33
	movq	%rax, -136(%rbp)
	.loc	3 209 18 is_stmt 0
	movq	%rax, -128(%rbp)
Ltmp710:
	.loc	35 89 20 is_stmt 1
	xorl	%eax, %eax
	testb	$1, %al
	jne	LBB113_2
	.loc	35 0 20 is_stmt 0
	movq	-272(%rbp), %rcx
	movq	-280(%rbp), %rax
	.loc	35 89 76
	movq	%rax, -40(%rbp)
	.loc	35 89 84
	movq	%rcx, -32(%rbp)
Ltmp711:
	.loc	3 932 18 is_stmt 1
	movq	%rax, -24(%rbp)
	.loc	3 932 30 is_stmt 0
	movq	%rcx, -16(%rbp)
Ltmp712:
	.loc	3 473 18 is_stmt 1
	addq	%rcx, %rax
	movq	%rax, -248(%rbp)
Ltmp713:
	.loc	35 89 17
	jmp	LBB113_3
LBB113_2:
	.loc	35 0 17 is_stmt 0
	movq	-272(%rbp), %rcx
	movq	-280(%rbp), %rax
	.loc	35 89 32
	movq	%rax, -120(%rbp)
	.loc	35 89 54
	movq	%rcx, -112(%rbp)
Ltmp714:
	.loc	3 1118 9 is_stmt 1
	movq	%rax, -104(%rbp)
Ltmp715:
	.loc	3 61 9
	movq	%rax, -96(%rbp)
Ltmp716:
	.loc	3 1118 40
	movq	%rcx, -88(%rbp)
Ltmp717:
	.loc	3 1100 9
	movq	%rax, -80(%rbp)
	.loc	3 1100 30 is_stmt 0
	movq	%rcx, -72(%rbp)
Ltmp718:
	.loc	3 555 18 is_stmt 1
	addq	%rcx, %rax
	movq	%rax, -64(%rbp)
	movq	-64(%rbp), %rax
	movq	%rax, -56(%rbp)
Ltmp719:
	.loc	3 100 29
	movq	%rax, -48(%rbp)
Ltmp720:
	.loc	5 118 36
	movq	%rax, -216(%rbp)
	.loc	5 118 14 is_stmt 0
	movq	-216(%rbp), %rax
	movq	%rax, -224(%rbp)
	movq	-224(%rbp), %rax
	movq	%rax, -248(%rbp)
Ltmp721:
LBB113_3:
	.loc	5 0 14
	movq	-280(%rbp), %rax
Ltmp722:
	.loc	35 91 48 is_stmt 1
	movq	%rax, -8(%rbp)
Ltmp723:
	.loc	10 201 13
	movq	%rax, -240(%rbp)
Ltmp724:
	.loc	35 91 64
	movq	-248(%rbp), %rax
	.loc	35 91 13 is_stmt 0
	movq	-240(%rbp), %rcx
	movq	%rcx, -256(%rbp)
	movq	%rax, -264(%rbp)
Ltmp725:
	.loc	35 93 6 is_stmt 1
	movq	-264(%rbp), %rax
	movq	-256(%rbp), %rdx
	addq	$280, %rsp
	popq	%rbp
	retq
Ltmp726:
Lfunc_end113:
	.cfi_endproc

	.globl	__ZN4core5slice4iter13Iter$LT$T$GT$3new17h7c15f8379397f533E
	.p2align	4, 0x90
__ZN4core5slice4iter13Iter$LT$T$GT$3new17h7c15f8379397f533E:
Lfunc_begin114:
	.loc	35 82 0
	.cfi_startproc
	pushq	%rbp
	.cfi_def_cfa_offset 16
	.cfi_offset %rbp, -16
	movq	%rsp, %rbp
	.cfi_def_cfa_register %rbp
	subq	$280, %rsp
	movq	%rdi, -280(%rbp)
	movq	%rsi, -272(%rbp)
	movq	%rdi, -208(%rbp)
	movq	%rsi, -200(%rbp)
Ltmp727:
	.loc	35 83 19 prologue_end
	movq	%rdi, -184(%rbp)
	movq	%rsi, -176(%rbp)
Ltmp728:
	.loc	22 477 9
	movq	%rdi, -168(%rbp)
Ltmp729:
	.loc	35 86 21
	movq	%rdi, -160(%rbp)
Ltmp730:
	.loc	3 53 36
	movq	%rdi, -232(%rbp)
	.loc	3 53 18 is_stmt 0
	movq	-232(%rbp), %rax
	movq	%rax, -152(%rbp)
Ltmp731:
	.loc	3 39 13 is_stmt 1
	movq	%rax, -144(%rbp)
Ltmp732:
	.loc	3 209 33
	movq	%rax, -136(%rbp)
	.loc	3 209 18 is_stmt 0
	movq	%rax, -128(%rbp)
Ltmp733:
	.loc	35 89 20 is_stmt 1
	xorl	%eax, %eax
	testb	$1, %al
	jne	LBB114_2
	.loc	35 0 20 is_stmt 0
	movq	-280(%rbp), %rax
	movq	-272(%rbp), %rcx
	.loc	35 89 76
	movq	%rax, -40(%rbp)
	.loc	35 89 84
	movq	%rcx, -32(%rbp)
Ltmp734:
	.loc	3 932 18 is_stmt 1
	movq	%rax, -24(%rbp)
	.loc	3 932 30 is_stmt 0
	movq	%rcx, -16(%rbp)
Ltmp735:
	.loc	3 473 18 is_stmt 1
	shlq	$2, %rcx
	addq	%rcx, %rax
	movq	%rax, -248(%rbp)
Ltmp736:
	.loc	35 89 17
	jmp	LBB114_3
LBB114_2:
	.loc	35 0 17 is_stmt 0
	movq	-272(%rbp), %rcx
	movq	-280(%rbp), %rax
	.loc	35 89 32
	movq	%rax, -120(%rbp)
	.loc	35 89 54
	movq	%rcx, -112(%rbp)
Ltmp737:
	.loc	3 1118 9 is_stmt 1
	movq	%rax, -104(%rbp)
Ltmp738:
	.loc	3 61 9
	movq	%rax, -96(%rbp)
Ltmp739:
	.loc	3 1118 40
	movq	%rcx, -88(%rbp)
Ltmp740:
	.loc	3 1100 9
	movq	%rax, -80(%rbp)
	.loc	3 1100 30 is_stmt 0
	movq	%rcx, -72(%rbp)
Ltmp741:
	.loc	3 555 18 is_stmt 1
	addq	%rcx, %rax
	movq	%rax, -64(%rbp)
	movq	-64(%rbp), %rax
	movq	%rax, -56(%rbp)
Ltmp742:
	.loc	3 100 29
	movq	%rax, -48(%rbp)
Ltmp743:
	.loc	5 118 36
	movq	%rax, -216(%rbp)
	.loc	5 118 14 is_stmt 0
	movq	-216(%rbp), %rax
	movq	%rax, -224(%rbp)
	movq	-224(%rbp), %rax
	movq	%rax, -248(%rbp)
Ltmp744:
LBB114_3:
	.loc	5 0 14
	movq	-280(%rbp), %rax
Ltmp745:
	.loc	35 91 48 is_stmt 1
	movq	%rax, -8(%rbp)
Ltmp746:
	.loc	10 201 13
	movq	%rax, -240(%rbp)
Ltmp747:
	.loc	35 91 64
	movq	-248(%rbp), %rax
	.loc	35 91 13 is_stmt 0
	movq	-240(%rbp), %rcx
	movq	%rcx, -256(%rbp)
	movq	%rax, -264(%rbp)
Ltmp748:
	.loc	35 93 6 is_stmt 1
	movq	-264(%rbp), %rax
	movq	-256(%rbp), %rdx
	addq	$280, %rsp
	popq	%rbp
	retq
Ltmp749:
Lfunc_end114:
	.cfi_endproc

	.globl	__ZN4core5slice4iter13Iter$LT$T$GT$3new17hb03e813352c70930E
	.p2align	4, 0x90
__ZN4core5slice4iter13Iter$LT$T$GT$3new17hb03e813352c70930E:
Lfunc_begin115:
	.loc	35 82 0
	.cfi_startproc
	pushq	%rbp
	.cfi_def_cfa_offset 16
	.cfi_offset %rbp, -16
	movq	%rsp, %rbp
	.cfi_def_cfa_register %rbp
	subq	$280, %rsp
	movq	%rdi, -280(%rbp)
	movq	%rsi, -272(%rbp)
	movq	%rdi, -208(%rbp)
	movq	%rsi, -200(%rbp)
Ltmp750:
	.loc	35 83 19 prologue_end
	movq	%rdi, -184(%rbp)
	movq	%rsi, -176(%rbp)
Ltmp751:
	.loc	22 477 9
	movq	%rdi, -168(%rbp)
Ltmp752:
	.loc	35 86 21
	movq	%rdi, -160(%rbp)
Ltmp753:
	.loc	3 53 36
	movq	%rdi, -232(%rbp)
	.loc	3 53 18 is_stmt 0
	movq	-232(%rbp), %rax
	movq	%rax, -152(%rbp)
Ltmp754:
	.loc	3 39 13 is_stmt 1
	movq	%rax, -144(%rbp)
Ltmp755:
	.loc	3 209 33
	movq	%rax, -136(%rbp)
	.loc	3 209 18 is_stmt 0
	movq	%rax, -128(%rbp)
Ltmp756:
	.loc	35 89 20 is_stmt 1
	xorl	%eax, %eax
	testb	$1, %al
	jne	LBB115_2
	.loc	35 0 20 is_stmt 0
	movq	-280(%rbp), %rax
	movq	-272(%rbp), %rcx
	.loc	35 89 76
	movq	%rax, -40(%rbp)
	.loc	35 89 84
	movq	%rcx, -32(%rbp)
Ltmp757:
	.loc	3 932 18 is_stmt 1
	movq	%rax, -24(%rbp)
	.loc	3 932 30 is_stmt 0
	movq	%rcx, -16(%rbp)
Ltmp758:
	.loc	3 473 18 is_stmt 1
	shlq	$3, %rcx
	addq	%rcx, %rax
	movq	%rax, -248(%rbp)
Ltmp759:
	.loc	35 89 17
	jmp	LBB115_3
LBB115_2:
	.loc	35 0 17 is_stmt 0
	movq	-272(%rbp), %rcx
	movq	-280(%rbp), %rax
	.loc	35 89 32
	movq	%rax, -120(%rbp)
	.loc	35 89 54
	movq	%rcx, -112(%rbp)
Ltmp760:
	.loc	3 1118 9 is_stmt 1
	movq	%rax, -104(%rbp)
Ltmp761:
	.loc	3 61 9
	movq	%rax, -96(%rbp)
Ltmp762:
	.loc	3 1118 40
	movq	%rcx, -88(%rbp)
Ltmp763:
	.loc	3 1100 9
	movq	%rax, -80(%rbp)
	.loc	3 1100 30 is_stmt 0
	movq	%rcx, -72(%rbp)
Ltmp764:
	.loc	3 555 18 is_stmt 1
	addq	%rcx, %rax
	movq	%rax, -64(%rbp)
	movq	-64(%rbp), %rax
	movq	%rax, -56(%rbp)
Ltmp765:
	.loc	3 100 29
	movq	%rax, -48(%rbp)
Ltmp766:
	.loc	5 118 36
	movq	%rax, -216(%rbp)
	.loc	5 118 14 is_stmt 0
	movq	-216(%rbp), %rax
	movq	%rax, -224(%rbp)
	movq	-224(%rbp), %rax
	movq	%rax, -248(%rbp)
Ltmp767:
LBB115_3:
	.loc	5 0 14
	movq	-280(%rbp), %rax
Ltmp768:
	.loc	35 91 48 is_stmt 1
	movq	%rax, -8(%rbp)
Ltmp769:
	.loc	10 201 13
	movq	%rax, -240(%rbp)
Ltmp770:
	.loc	35 91 64
	movq	-248(%rbp), %rax
	.loc	35 91 13 is_stmt 0
	movq	-240(%rbp), %rcx
	movq	%rcx, -256(%rbp)
	movq	%rax, -264(%rbp)
Ltmp771:
	.loc	35 93 6 is_stmt 1
	movq	-264(%rbp), %rax
	movq	-256(%rbp), %rdx
	addq	$280, %rsp
	popq	%rbp
	retq
Ltmp772:
Lfunc_end115:
	.cfi_endproc

	.globl	__ZN4core5slice4iter13Iter$LT$T$GT$3new17hcf43e887515fc159E
	.p2align	4, 0x90
__ZN4core5slice4iter13Iter$LT$T$GT$3new17hcf43e887515fc159E:
Lfunc_begin116:
	.loc	35 82 0
	.cfi_startproc
	pushq	%rbp
	.cfi_def_cfa_offset 16
	.cfi_offset %rbp, -16
	movq	%rsp, %rbp
	.cfi_def_cfa_register %rbp
	subq	$280, %rsp
	movq	%rdi, -280(%rbp)
	movq	%rsi, -272(%rbp)
	movq	%rdi, -208(%rbp)
	movq	%rsi, -200(%rbp)
Ltmp773:
	.loc	35 83 19 prologue_end
	movq	%rdi, -184(%rbp)
	movq	%rsi, -176(%rbp)
Ltmp774:
	.loc	22 477 9
	movq	%rdi, -168(%rbp)
Ltmp775:
	.loc	35 86 21
	movq	%rdi, -160(%rbp)
Ltmp776:
	.loc	3 53 36
	movq	%rdi, -232(%rbp)
	.loc	3 53 18 is_stmt 0
	movq	-232(%rbp), %rax
	movq	%rax, -152(%rbp)
Ltmp777:
	.loc	3 39 13 is_stmt 1
	movq	%rax, -144(%rbp)
Ltmp778:
	.loc	3 209 33
	movq	%rax, -136(%rbp)
	.loc	3 209 18 is_stmt 0
	movq	%rax, -128(%rbp)
Ltmp779:
	.loc	35 89 20 is_stmt 1
	xorl	%eax, %eax
	testb	$1, %al
	jne	LBB116_2
	.loc	35 0 20 is_stmt 0
	movq	-280(%rbp), %rax
	movq	-272(%rbp), %rcx
	.loc	35 89 76
	movq	%rax, -40(%rbp)
	.loc	35 89 84
	movq	%rcx, -32(%rbp)
Ltmp780:
	.loc	3 932 18 is_stmt 1
	movq	%rax, -24(%rbp)
	.loc	3 932 30 is_stmt 0
	movq	%rcx, -16(%rbp)
Ltmp781:
	.loc	3 473 18 is_stmt 1
	shlq	$1, %rcx
	addq	%rcx, %rax
	movq	%rax, -248(%rbp)
Ltmp782:
	.loc	35 89 17
	jmp	LBB116_3
LBB116_2:
	.loc	35 0 17 is_stmt 0
	movq	-272(%rbp), %rcx
	movq	-280(%rbp), %rax
	.loc	35 89 32
	movq	%rax, -120(%rbp)
	.loc	35 89 54
	movq	%rcx, -112(%rbp)
Ltmp783:
	.loc	3 1118 9 is_stmt 1
	movq	%rax, -104(%rbp)
Ltmp784:
	.loc	3 61 9
	movq	%rax, -96(%rbp)
Ltmp785:
	.loc	3 1118 40
	movq	%rcx, -88(%rbp)
Ltmp786:
	.loc	3 1100 9
	movq	%rax, -80(%rbp)
	.loc	3 1100 30 is_stmt 0
	movq	%rcx, -72(%rbp)
Ltmp787:
	.loc	3 555 18 is_stmt 1
	addq	%rcx, %rax
	movq	%rax, -64(%rbp)
	movq	-64(%rbp), %rax
	movq	%rax, -56(%rbp)
Ltmp788:
	.loc	3 100 29
	movq	%rax, -48(%rbp)
Ltmp789:
	.loc	5 118 36
	movq	%rax, -216(%rbp)
	.loc	5 118 14 is_stmt 0
	movq	-216(%rbp), %rax
	movq	%rax, -224(%rbp)
	movq	-224(%rbp), %rax
	movq	%rax, -248(%rbp)
Ltmp790:
LBB116_3:
	.loc	5 0 14
	movq	-280(%rbp), %rax
Ltmp791:
	.loc	35 91 48 is_stmt 1
	movq	%rax, -8(%rbp)
Ltmp792:
	.loc	10 201 13
	movq	%rax, -240(%rbp)
Ltmp793:
	.loc	35 91 64
	movq	-248(%rbp), %rax
	.loc	35 91 13 is_stmt 0
	movq	-240(%rbp), %rcx
	movq	%rcx, -256(%rbp)
	movq	%rax, -264(%rbp)
Ltmp794:
	.loc	35 93 6 is_stmt 1
	movq	-264(%rbp), %rax
	movq	-256(%rbp), %rdx
	addq	$280, %rsp
	popq	%rbp
	retq
Ltmp795:
Lfunc_end116:
	.cfi_endproc

	.globl	__ZN4core5slice4iter20ChunksExact$LT$T$GT$3new17h4ba0e10889272ce4E
	.p2align	4, 0x90
__ZN4core5slice4iter20ChunksExact$LT$T$GT$3new17h4ba0e10889272ce4E:
Lfunc_begin117:
	.loc	35 1820 0
	.cfi_startproc
	pushq	%rbp
	.cfi_def_cfa_offset 16
	.cfi_offset %rbp, -16
	movq	%rsp, %rbp
	.cfi_def_cfa_register %rbp
	subq	$144, %rsp
	movq	%rcx, -144(%rbp)
	movq	%rdx, -136(%rbp)
	movq	%rsi, -128(%rbp)
	movq	%rdi, -120(%rbp)
	movq	%rdi, -112(%rbp)
	movq	%rsi, -72(%rbp)
	movq	%rdx, -64(%rbp)
	movq	%rcx, -56(%rbp)
Ltmp796:
	.loc	35 1821 19 prologue_end
	cmpq	$0, %rcx
	sete	%al
	testb	$1, %al
	jne	LBB117_2
	.loc	35 0 19 is_stmt 0
	movq	-144(%rbp), %rcx
	movq	-136(%rbp), %rax
	movq	-128(%rbp), %rsi
	.loc	35 1821 19
	xorl	%edx, %edx
	divq	%rcx
	movq	%rdx, %rax
	movq	-136(%rbp), %rdx
	movq	%rax, -48(%rbp)
Ltmp797:
	.loc	35 1822 23 is_stmt 1
	movq	%rdx, %rcx
	subq	%rax, %rcx
	movq	%rcx, -40(%rbp)
Ltmp798:
	.loc	35 1824 35
	leaq	-104(%rbp), %rdi
	callq	__ZN4core5slice29_$LT$impl$u20$$u5b$T$u5d$$GT$18split_at_unchecked17ha0cfe786d512840dE
	movq	-144(%rbp), %rdx
	movq	-120(%rbp), %rcx
	movq	-112(%rbp), %rax
	.loc	35 1824 14 is_stmt 0
	movq	-104(%rbp), %r9
	movq	-96(%rbp), %r8
	movq	%r9, -32(%rbp)
	movq	%r8, -24(%rbp)
	.loc	35 1824 19
	movq	-88(%rbp), %rdi
	movq	-80(%rbp), %rsi
	movq	%rdi, -16(%rbp)
	movq	%rsi, -8(%rbp)
Ltmp799:
	.loc	35 1825 9 is_stmt 1
	movq	%r9, (%rcx)
	movq	%r8, 8(%rcx)
	movq	%rdi, 16(%rcx)
	movq	%rsi, 24(%rcx)
	movq	%rdx, 32(%rcx)
Ltmp800:
	.loc	35 1826 6
	addq	$144, %rsp
	popq	%rbp
	retq
LBB117_2:
	.loc	35 1821 19
	leaq	_str.2(%rip), %rdi
	leaq	l___unnamed_20(%rip), %rdx
	movl	$57, %esi
	callq	__ZN4core9panicking5panic17hc1bc45270cf64b03E
Ltmp801:
Lfunc_end117:
	.cfi_endproc

	.globl	__ZN4core5slice4iter20ChunksExact$LT$T$GT$3new17h6c279c7541dc7a50E
	.p2align	4, 0x90
__ZN4core5slice4iter20ChunksExact$LT$T$GT$3new17h6c279c7541dc7a50E:
Lfunc_begin118:
	.loc	35 1820 0
	.cfi_startproc
	pushq	%rbp
	.cfi_def_cfa_offset 16
	.cfi_offset %rbp, -16
	movq	%rsp, %rbp
	.cfi_def_cfa_register %rbp
	subq	$144, %rsp
	movq	%rcx, -144(%rbp)
	movq	%rdx, -136(%rbp)
	movq	%rsi, -128(%rbp)
	movq	%rdi, -120(%rbp)
	movq	%rdi, -112(%rbp)
	movq	%rsi, -72(%rbp)
	movq	%rdx, -64(%rbp)
	movq	%rcx, -56(%rbp)
Ltmp802:
	.loc	35 1821 19 prologue_end
	cmpq	$0, %rcx
	sete	%al
	testb	$1, %al
	jne	LBB118_2
	.loc	35 0 19 is_stmt 0
	movq	-144(%rbp), %rcx
	movq	-136(%rbp), %rax
	movq	-128(%rbp), %rsi
	.loc	35 1821 19
	xorl	%edx, %edx
	divq	%rcx
	movq	%rdx, %rax
	movq	-136(%rbp), %rdx
	movq	%rax, -48(%rbp)
Ltmp803:
	.loc	35 1822 23 is_stmt 1
	movq	%rdx, %rcx
	subq	%rax, %rcx
	movq	%rcx, -40(%rbp)
Ltmp804:
	.loc	35 1824 35
	leaq	-104(%rbp), %rdi
	callq	__ZN4core5slice29_$LT$impl$u20$$u5b$T$u5d$$GT$18split_at_unchecked17h9d9a2e08f6109e8fE
	movq	-144(%rbp), %rdx
	movq	-120(%rbp), %rcx
	movq	-112(%rbp), %rax
	.loc	35 1824 14 is_stmt 0
	movq	-104(%rbp), %r9
	movq	-96(%rbp), %r8
	movq	%r9, -32(%rbp)
	movq	%r8, -24(%rbp)
	.loc	35 1824 19
	movq	-88(%rbp), %rdi
	movq	-80(%rbp), %rsi
	movq	%rdi, -16(%rbp)
	movq	%rsi, -8(%rbp)
Ltmp805:
	.loc	35 1825 9 is_stmt 1
	movq	%r9, (%rcx)
	movq	%r8, 8(%rcx)
	movq	%rdi, 16(%rcx)
	movq	%rsi, 24(%rcx)
	movq	%rdx, 32(%rcx)
Ltmp806:
	.loc	35 1826 6
	addq	$144, %rsp
	popq	%rbp
	retq
LBB118_2:
	.loc	35 1821 19
	leaq	_str.2(%rip), %rdi
	leaq	l___unnamed_20(%rip), %rdx
	movl	$57, %esi
	callq	__ZN4core9panicking5panic17hc1bc45270cf64b03E
Ltmp807:
Lfunc_end118:
	.cfi_endproc

	.globl	__ZN4core5slice4iter20ChunksExact$LT$T$GT$3new17hf0bb13ee69a6bbdeE
	.p2align	4, 0x90
__ZN4core5slice4iter20ChunksExact$LT$T$GT$3new17hf0bb13ee69a6bbdeE:
Lfunc_begin119:
	.loc	35 1820 0
	.cfi_startproc
	pushq	%rbp
	.cfi_def_cfa_offset 16
	.cfi_offset %rbp, -16
	movq	%rsp, %rbp
	.cfi_def_cfa_register %rbp
	subq	$144, %rsp
	movq	%rcx, -144(%rbp)
	movq	%rdx, -136(%rbp)
	movq	%rsi, -128(%rbp)
	movq	%rdi, -120(%rbp)
	movq	%rdi, -112(%rbp)
	movq	%rsi, -72(%rbp)
	movq	%rdx, -64(%rbp)
	movq	%rcx, -56(%rbp)
Ltmp808:
	.loc	35 1821 19 prologue_end
	cmpq	$0, %rcx
	sete	%al
	testb	$1, %al
	jne	LBB119_2
	.loc	35 0 19 is_stmt 0
	movq	-144(%rbp), %rcx
	movq	-136(%rbp), %rax
	movq	-128(%rbp), %rsi
	.loc	35 1821 19
	xorl	%edx, %edx
	divq	%rcx
	movq	%rdx, %rax
	movq	-136(%rbp), %rdx
	movq	%rax, -48(%rbp)
Ltmp809:
	.loc	35 1822 23 is_stmt 1
	movq	%rdx, %rcx
	subq	%rax, %rcx
	movq	%rcx, -40(%rbp)
Ltmp810:
	.loc	35 1824 35
	leaq	-104(%rbp), %rdi
	callq	__ZN4core5slice29_$LT$impl$u20$$u5b$T$u5d$$GT$18split_at_unchecked17hda1c100bb320d6e2E
	movq	-144(%rbp), %rdx
	movq	-120(%rbp), %rcx
	movq	-112(%rbp), %rax
	.loc	35 1824 14 is_stmt 0
	movq	-104(%rbp), %r9
	movq	-96(%rbp), %r8
	movq	%r9, -32(%rbp)
	movq	%r8, -24(%rbp)
	.loc	35 1824 19
	movq	-88(%rbp), %rdi
	movq	-80(%rbp), %rsi
	movq	%rdi, -16(%rbp)
	movq	%rsi, -8(%rbp)
Ltmp811:
	.loc	35 1825 9 is_stmt 1
	movq	%r9, (%rcx)
	movq	%r8, 8(%rcx)
	movq	%rdi, 16(%rcx)
	movq	%rsi, 24(%rcx)
	movq	%rdx, 32(%rcx)
Ltmp812:
	.loc	35 1826 6
	addq	$144, %rsp
	popq	%rbp
	retq
LBB119_2:
	.loc	35 1821 19
	leaq	_str.2(%rip), %rdi
	leaq	l___unnamed_20(%rip), %rdx
	movl	$57, %esi
	callq	__ZN4core9panicking5panic17hc1bc45270cf64b03E
Ltmp813:
Lfunc_end119:
	.cfi_endproc

	.globl	__ZN4core5slice4iter20ChunksExact$LT$T$GT$9remainder17h3fdd2ac54718cef6E
	.p2align	4, 0x90
__ZN4core5slice4iter20ChunksExact$LT$T$GT$9remainder17h3fdd2ac54718cef6E:
Lfunc_begin120:
	.loc	35 1847 0
	.cfi_startproc
	pushq	%rbp
	.cfi_def_cfa_offset 16
	.cfi_offset %rbp, -16
	movq	%rsp, %rbp
	.cfi_def_cfa_register %rbp
	pushq	%rax
	movq	%rdi, -8(%rbp)
Ltmp814:
	.loc	35 1848 9 prologue_end
	movq	16(%rdi), %rax
	movq	24(%rdi), %rdx
	.loc	35 1849 6
	addq	$8, %rsp
	popq	%rbp
	retq
Ltmp815:
Lfunc_end120:
	.cfi_endproc

	.globl	__ZN4core5slice4iter20ChunksExact$LT$T$GT$9remainder17h4e47f3aece66e9edE
	.p2align	4, 0x90
__ZN4core5slice4iter20ChunksExact$LT$T$GT$9remainder17h4e47f3aece66e9edE:
Lfunc_begin121:
	.loc	35 1847 0
	.cfi_startproc
	pushq	%rbp
	.cfi_def_cfa_offset 16
	.cfi_offset %rbp, -16
	movq	%rsp, %rbp
	.cfi_def_cfa_register %rbp
	pushq	%rax
	movq	%rdi, -8(%rbp)
Ltmp816:
	.loc	35 1848 9 prologue_end
	movq	16(%rdi), %rax
	movq	24(%rdi), %rdx
	.loc	35 1849 6
	addq	$8, %rsp
	popq	%rbp
	retq
Ltmp817:
Lfunc_end121:
	.cfi_endproc

	.globl	__ZN4core5slice4iter20ChunksExact$LT$T$GT$9remainder17ha439d456f6605922E
	.p2align	4, 0x90
__ZN4core5slice4iter20ChunksExact$LT$T$GT$9remainder17ha439d456f6605922E:
Lfunc_begin122:
	.loc	35 1847 0
	.cfi_startproc
	pushq	%rbp
	.cfi_def_cfa_offset 16
	.cfi_offset %rbp, -16
	movq	%rsp, %rbp
	.cfi_def_cfa_register %rbp
	pushq	%rax
	movq	%rdi, -8(%rbp)
Ltmp818:
	.loc	35 1848 9 prologue_end
	movq	16(%rdi), %rax
	movq	24(%rdi), %rdx
	.loc	35 1849 6
	addq	$8, %rsp
	popq	%rbp
	retq
Ltmp819:
Lfunc_end122:
	.cfi_endproc

	.globl	__ZN4core5slice5index74_$LT$impl$u20$core..ops..index..Index$LT$I$GT$$u20$for$u20$$u5b$T$u5d$$GT$5index17h4ba05a26dce4a73eE
	.p2align	4, 0x90
__ZN4core5slice5index74_$LT$impl$u20$core..ops..index..Index$LT$I$GT$$u20$for$u20$$u5b$T$u5d$$GT$5index17h4ba05a26dce4a73eE:
Lfunc_begin123:
	.loc	2 17 0
	.cfi_startproc
	pushq	%rbp
	.cfi_def_cfa_offset 16
	.cfi_offset %rbp, -16
	movq	%rsp, %rbp
	.cfi_def_cfa_register %rbp
	subq	$32, %rsp
	movq	%rdx, -32(%rbp)
	movq	%rsi, %rdx
	movq	%rdi, %rsi
	movq	-32(%rbp), %rdi
	movq	%rsi, -24(%rbp)
	movq	%rdx, -16(%rbp)
	movq	%rdi, -8(%rbp)
Ltmp820:
	.loc	2 18 9 prologue_end
	callq	__ZN108_$LT$core..ops..range..RangeTo$LT$usize$GT$$u20$as$u20$core..slice..index..SliceIndex$LT$$u5b$T$u5d$$GT$$GT$5index17h64468e6c0a1e7600E
	.loc	2 19 6
	addq	$32, %rsp
	popq	%rbp
	retq
Ltmp821:
Lfunc_end123:
	.cfi_endproc

	.globl	__ZN4core5slice5index74_$LT$impl$u20$core..ops..index..Index$LT$I$GT$$u20$for$u20$$u5b$T$u5d$$GT$5index17hb14044457876e4e3E
	.p2align	4, 0x90
__ZN4core5slice5index74_$LT$impl$u20$core..ops..index..Index$LT$I$GT$$u20$for$u20$$u5b$T$u5d$$GT$5index17hb14044457876e4e3E:
Lfunc_begin124:
	.loc	2 17 0
	.cfi_startproc
	pushq	%rbp
	.cfi_def_cfa_offset 16
	.cfi_offset %rbp, -16
	movq	%rsp, %rbp
	.cfi_def_cfa_register %rbp
	subq	$32, %rsp
	movq	%rdx, -32(%rbp)
	movq	%rsi, %rdx
	movq	%rdi, %rsi
	movq	-32(%rbp), %rdi
	movq	%rsi, -24(%rbp)
	movq	%rdx, -16(%rbp)
	movq	%rdi, -8(%rbp)
Ltmp822:
	.loc	2 18 9 prologue_end
	callq	__ZN108_$LT$core..ops..range..RangeTo$LT$usize$GT$$u20$as$u20$core..slice..index..SliceIndex$LT$$u5b$T$u5d$$GT$$GT$5index17h3222d2a4c15c7232E
	.loc	2 19 6
	addq	$32, %rsp
	popq	%rbp
	retq
Ltmp823:
Lfunc_end124:
	.cfi_endproc

	.globl	__ZN4core5slice5index74_$LT$impl$u20$core..ops..index..Index$LT$I$GT$$u20$for$u20$$u5b$T$u5d$$GT$5index17hc6ea8889d0b30de2E
	.p2align	4, 0x90
__ZN4core5slice5index74_$LT$impl$u20$core..ops..index..Index$LT$I$GT$$u20$for$u20$$u5b$T$u5d$$GT$5index17hc6ea8889d0b30de2E:
Lfunc_begin125:
	.loc	2 17 0
	.cfi_startproc
	pushq	%rbp
	.cfi_def_cfa_offset 16
	.cfi_offset %rbp, -16
	movq	%rsp, %rbp
	.cfi_def_cfa_register %rbp
	subq	$32, %rsp
	movq	%rdx, -32(%rbp)
	movq	%rsi, %rdx
	movq	%rdi, %rsi
	movq	-32(%rbp), %rdi
	movq	%rsi, -24(%rbp)
	movq	%rdx, -16(%rbp)
	movq	%rdi, -8(%rbp)
Ltmp824:
	.loc	2 18 9 prologue_end
	callq	__ZN108_$LT$core..ops..range..RangeTo$LT$usize$GT$$u20$as$u20$core..slice..index..SliceIndex$LT$$u5b$T$u5d$$GT$$GT$5index17h72b2b42ea97c6c8bE
	.loc	2 19 6
	addq	$32, %rsp
	popq	%rbp
	retq
Ltmp825:
Lfunc_end125:
	.cfi_endproc

	.globl	__ZN4core5slice5index77_$LT$impl$u20$core..ops..index..IndexMut$LT$I$GT$$u20$for$u20$$u5b$T$u5d$$GT$9index_mut17h25e18f4b68214d49E
	.p2align	4, 0x90
__ZN4core5slice5index77_$LT$impl$u20$core..ops..index..IndexMut$LT$I$GT$$u20$for$u20$$u5b$T$u5d$$GT$9index_mut17h25e18f4b68214d49E:
Lfunc_begin126:
	.loc	2 29 0
	.cfi_startproc
	pushq	%rbp
	.cfi_def_cfa_offset 16
	.cfi_offset %rbp, -16
	movq	%rsp, %rbp
	.cfi_def_cfa_register %rbp
	subq	$32, %rsp
	movq	%rdx, -32(%rbp)
	movq	%rsi, %rdx
	movq	%rdi, %rsi
	movq	-32(%rbp), %rdi
	movq	%rsi, -24(%rbp)
	movq	%rdx, -16(%rbp)
	movq	%rdi, -8(%rbp)
Ltmp826:
	.loc	2 30 9 prologue_end
	callq	__ZN108_$LT$core..ops..range..RangeTo$LT$usize$GT$$u20$as$u20$core..slice..index..SliceIndex$LT$$u5b$T$u5d$$GT$$GT$9index_mut17h6fb576570b70bd6cE
	.loc	2 31 6
	addq	$32, %rsp
	popq	%rbp
	retq
Ltmp827:
Lfunc_end126:
	.cfi_endproc

	.globl	__ZN4core5slice5index77_$LT$impl$u20$core..ops..index..IndexMut$LT$I$GT$$u20$for$u20$$u5b$T$u5d$$GT$9index_mut17h3636847dec9ef220E
	.p2align	4, 0x90
__ZN4core5slice5index77_$LT$impl$u20$core..ops..index..IndexMut$LT$I$GT$$u20$for$u20$$u5b$T$u5d$$GT$9index_mut17h3636847dec9ef220E:
Lfunc_begin127:
	.loc	2 29 0
	.cfi_startproc
	pushq	%rbp
	.cfi_def_cfa_offset 16
	.cfi_offset %rbp, -16
	movq	%rsp, %rbp
	.cfi_def_cfa_register %rbp
	subq	$32, %rsp
	movq	%rdx, -32(%rbp)
	movq	%rsi, %rdx
	movq	%rdi, %rsi
	movq	-32(%rbp), %rdi
	movq	%rsi, -24(%rbp)
	movq	%rdx, -16(%rbp)
	movq	%rdi, -8(%rbp)
Ltmp828:
	.loc	2 30 9 prologue_end
	callq	__ZN108_$LT$core..ops..range..RangeTo$LT$usize$GT$$u20$as$u20$core..slice..index..SliceIndex$LT$$u5b$T$u5d$$GT$$GT$9index_mut17hee93498ec340ba44E
	.loc	2 31 6
	addq	$32, %rsp
	popq	%rbp
	retq
Ltmp829:
Lfunc_end127:
	.cfi_endproc

	.globl	__ZN4core5slice5index77_$LT$impl$u20$core..ops..index..IndexMut$LT$I$GT$$u20$for$u20$$u5b$T$u5d$$GT$9index_mut17h3b7df119530bf815E
	.p2align	4, 0x90
__ZN4core5slice5index77_$LT$impl$u20$core..ops..index..IndexMut$LT$I$GT$$u20$for$u20$$u5b$T$u5d$$GT$9index_mut17h3b7df119530bf815E:
Lfunc_begin128:
	.loc	2 29 0
	.cfi_startproc
	pushq	%rbp
	.cfi_def_cfa_offset 16
	.cfi_offset %rbp, -16
	movq	%rsp, %rbp
	.cfi_def_cfa_register %rbp
	subq	$48, %rsp
	movq	%rcx, -48(%rbp)
	movq	%rdx, -40(%rbp)
	movq	%rsi, %rcx
	movq	-48(%rbp), %rsi
	movq	%rdi, %rdx
	movq	-40(%rbp), %rdi
	movq	%rdx, -32(%rbp)
	movq	%rcx, -24(%rbp)
	movq	%rdi, -16(%rbp)
	movq	%rsi, -8(%rbp)
Ltmp830:
	.loc	2 30 9 prologue_end
	callq	__ZN106_$LT$core..ops..range..Range$LT$usize$GT$$u20$as$u20$core..slice..index..SliceIndex$LT$$u5b$T$u5d$$GT$$GT$9index_mut17h3c109011f300a575E
	.loc	2 31 6
	addq	$48, %rsp
	popq	%rbp
	retq
Ltmp831:
Lfunc_end128:
	.cfi_endproc

	.globl	__ZN4core5slice5index77_$LT$impl$u20$core..ops..index..IndexMut$LT$I$GT$$u20$for$u20$$u5b$T$u5d$$GT$9index_mut17h490a430abfaeb9a5E
	.p2align	4, 0x90
__ZN4core5slice5index77_$LT$impl$u20$core..ops..index..IndexMut$LT$I$GT$$u20$for$u20$$u5b$T$u5d$$GT$9index_mut17h490a430abfaeb9a5E:
Lfunc_begin129:
	.loc	2 29 0
	.cfi_startproc
	pushq	%rbp
	.cfi_def_cfa_offset 16
	.cfi_offset %rbp, -16
	movq	%rsp, %rbp
	.cfi_def_cfa_register %rbp
	subq	$48, %rsp
	movq	%rcx, -48(%rbp)
	movq	%rdx, -40(%rbp)
	movq	%rsi, %rcx
	movq	-48(%rbp), %rsi
	movq	%rdi, %rdx
	movq	-40(%rbp), %rdi
	movq	%rdx, -32(%rbp)
	movq	%rcx, -24(%rbp)
	movq	%rdi, -16(%rbp)
	movq	%rsi, -8(%rbp)
Ltmp832:
	.loc	2 30 9 prologue_end
	callq	__ZN106_$LT$core..ops..range..Range$LT$usize$GT$$u20$as$u20$core..slice..index..SliceIndex$LT$$u5b$T$u5d$$GT$$GT$9index_mut17h6eae9932ae8b91dfE
	.loc	2 31 6
	addq	$48, %rsp
	popq	%rbp
	retq
Ltmp833:
Lfunc_end129:
	.cfi_endproc

	.globl	__ZN4core5slice5index77_$LT$impl$u20$core..ops..index..IndexMut$LT$I$GT$$u20$for$u20$$u5b$T$u5d$$GT$9index_mut17h9464831484c0cff8E
	.p2align	4, 0x90
__ZN4core5slice5index77_$LT$impl$u20$core..ops..index..IndexMut$LT$I$GT$$u20$for$u20$$u5b$T$u5d$$GT$9index_mut17h9464831484c0cff8E:
Lfunc_begin130:
	.loc	2 29 0
	.cfi_startproc
	pushq	%rbp
	.cfi_def_cfa_offset 16
	.cfi_offset %rbp, -16
	movq	%rsp, %rbp
	.cfi_def_cfa_register %rbp
	subq	$48, %rsp
	movq	%rcx, -48(%rbp)
	movq	%rdx, -40(%rbp)
	movq	%rsi, %rcx
	movq	-48(%rbp), %rsi
	movq	%rdi, %rdx
	movq	-40(%rbp), %rdi
	movq	%rdx, -32(%rbp)
	movq	%rcx, -24(%rbp)
	movq	%rdi, -16(%rbp)
	movq	%rsi, -8(%rbp)
Ltmp834:
	.loc	2 30 9 prologue_end
	callq	__ZN106_$LT$core..ops..range..Range$LT$usize$GT$$u20$as$u20$core..slice..index..SliceIndex$LT$$u5b$T$u5d$$GT$$GT$9index_mut17h934c462115a807ccE
	.loc	2 31 6
	addq	$48, %rsp
	popq	%rbp
	retq
Ltmp835:
Lfunc_end130:
	.cfi_endproc

	.globl	__ZN4core5slice5index77_$LT$impl$u20$core..ops..index..IndexMut$LT$I$GT$$u20$for$u20$$u5b$T$u5d$$GT$9index_mut17hea2cfb23e9be2c33E
	.p2align	4, 0x90
__ZN4core5slice5index77_$LT$impl$u20$core..ops..index..IndexMut$LT$I$GT$$u20$for$u20$$u5b$T$u5d$$GT$9index_mut17hea2cfb23e9be2c33E:
Lfunc_begin131:
	.loc	2 29 0
	.cfi_startproc
	pushq	%rbp
	.cfi_def_cfa_offset 16
	.cfi_offset %rbp, -16
	movq	%rsp, %rbp
	.cfi_def_cfa_register %rbp
	subq	$32, %rsp
	movq	%rdx, -32(%rbp)
	movq	%rsi, %rdx
	movq	%rdi, %rsi
	movq	-32(%rbp), %rdi
	movq	%rsi, -24(%rbp)
	movq	%rdx, -16(%rbp)
	movq	%rdi, -8(%rbp)
Ltmp836:
	.loc	2 30 9 prologue_end
	callq	__ZN108_$LT$core..ops..range..RangeTo$LT$usize$GT$$u20$as$u20$core..slice..index..SliceIndex$LT$$u5b$T$u5d$$GT$$GT$9index_mut17h45c6a22096792e64E
	.loc	2 31 6
	addq	$32, %rsp
	popq	%rbp
	retq
Ltmp837:
Lfunc_end131:
	.cfi_endproc

	.globl	__ZN4core6result19Result$LT$T$C$E$GT$16unwrap_unchecked17hd231aa81d43631f2E
	.p2align	4, 0x90
__ZN4core6result19Result$LT$T$C$E$GT$16unwrap_unchecked17hd231aa81d43631f2E:
Lfunc_begin132:
	.file	36 "/rustc/2c8cc343237b8f7d5a3c3703e3a87f2eb2c54a74/library/core/src" "result.rs"
	.loc	36 1530 0
	.cfi_startproc
	.cfi_personality 155, _rust_eh_personality
	.cfi_lsda 16, Lexception10
	pushq	%rbp
	.cfi_def_cfa_offset 16
	.cfi_offset %rbp, -16
	movq	%rsp, %rbp
	.cfi_def_cfa_register %rbp
	subq	$64, %rsp
	movq	%rdi, -48(%rbp)
	movq	%rsi, -40(%rbp)
Ltmp841:
	.loc	36 1532 15 prologue_end
	xorl	%eax, %eax
	movl	$1, %ecx
	cmpq	$0, -40(%rbp)
	cmoveq	%rcx, %rax
	.loc	36 1532 9 is_stmt 0
	cmpq	$0, %rax
	jne	LBB132_2
	.loc	36 1533 16 is_stmt 1
	movq	-48(%rbp), %rcx
	movq	%rcx, -64(%rbp)
	movq	-40(%rbp), %rax
	movq	%rax, -56(%rbp)
	movq	%rcx, -16(%rbp)
	movq	%rax, -8(%rbp)
	.loc	36 1537 5
	xorl	%eax, %eax
	movl	$1, %ecx
	cmpq	$0, -40(%rbp)
	cmoveq	%rcx, %rax
	cmpq	$0, %rax
	je	LBB132_10
	jmp	LBB132_11
LBB132_2:
Ltmp838:
	.loc	36 1535 32
	callq	__ZN4core4hint21unreachable_unchecked17hb9f1766aae7c36c5E
Ltmp839:
	jmp	LBB132_5
LBB132_3:
	.loc	36 1537 5
	xorl	%eax, %eax
	movl	$1, %ecx
	cmpq	$0, -40(%rbp)
	cmoveq	%rcx, %rax
	cmpq	$0, %rax
	je	LBB132_6
	jmp	LBB132_7
LBB132_4:
Ltmp840:
	.loc	36 0 5 is_stmt 0
	movq	%rax, %rcx
	movl	%edx, %eax
	movq	%rcx, -32(%rbp)
	movl	%eax, -24(%rbp)
	jmp	LBB132_3
LBB132_5:
	ud2
LBB132_6:
	.loc	36 1537 5
	movb	$1, %al
	testb	$1, %al
	jne	LBB132_9
	jmp	LBB132_8
LBB132_7:
	jmp	LBB132_8
LBB132_8:
	.loc	36 1530 5 is_stmt 1
	movq	-32(%rbp), %rdi
	callq	__Unwind_Resume
LBB132_9:
	.loc	36 1537 5
	jmp	LBB132_8
LBB132_10:
	.loc	36 0 5 is_stmt 0
	movq	-56(%rbp), %rdx
	movq	-64(%rbp), %rax
	.loc	36 1537 6
	addq	$64, %rsp
	popq	%rbp
	retq
LBB132_11:
	.loc	36 1537 5
	jmp	LBB132_10
Ltmp842:
Lfunc_end132:
	.cfi_endproc
	.section	__TEXT,__gcc_except_tab
	.p2align	2
GCC_except_table132:
Lexception10:
	.byte	255
	.byte	255
	.byte	1
	.uleb128 Lcst_end10-Lcst_begin10
Lcst_begin10:
	.uleb128 Ltmp838-Lfunc_begin132
	.uleb128 Ltmp839-Ltmp838
	.uleb128 Ltmp840-Lfunc_begin132
	.byte	0
	.uleb128 Ltmp839-Lfunc_begin132
	.uleb128 Lfunc_end132-Ltmp839
	.byte	0
	.byte	0
Lcst_end10:
	.p2align	2

	.section	__TEXT,__text,regular,pure_instructions
	.globl	__ZN4core6result19Result$LT$T$C$E$GT$3map17h38f6dc10a165d87fE
	.p2align	4, 0x90
__ZN4core6result19Result$LT$T$C$E$GT$3map17h38f6dc10a165d87fE:
Lfunc_begin133:
	.loc	36 772 0 is_stmt 1
	.cfi_startproc
	pushq	%rbp
	.cfi_def_cfa_offset 16
	.cfi_offset %rbp, -16
	movq	%rsp, %rbp
	.cfi_def_cfa_register %rbp
	subq	$48, %rsp
	movq	%rdi, -32(%rbp)
	movq	-32(%rbp), %rax
	movq	%rax, -40(%rbp)
Ltmp843:
	.loc	36 773 15 prologue_end
	movb	$1, -9(%rbp)
	movb	-40(%rbp), %al
	andb	$1, %al
	movzbl	%al, %eax
	.loc	36 773 9 is_stmt 0
	cmpq	$0, %rax
	jne	LBB133_2
	.loc	36 774 16 is_stmt 1
	movss	-36(%rbp), %xmm0
	movss	%xmm0, -4(%rbp)
Ltmp844:
	.loc	36 774 25 is_stmt 0
	movb	$0, -9(%rbp)
	movss	%xmm0, -16(%rbp)
	movss	-16(%rbp), %xmm0
	callq	__ZN4core3ops8function6FnOnce9call_once17had4d4acc7592379eE
	.loc	36 774 22
	movw	%ax, -22(%rbp)
	movb	$0, -24(%rbp)
Ltmp845:
	.loc	36 774 30
	jmp	LBB133_3
LBB133_2:
	.loc	36 775 17 is_stmt 1
	movb	-39(%rbp), %al
	movb	%al, %cl
	andb	$1, %cl
	movb	%cl, -5(%rbp)
Ltmp846:
	.loc	36 775 23 is_stmt 0
	andb	$1, %al
	movb	%al, -23(%rbp)
	movb	$1, -24(%rbp)
Ltmp847:
LBB133_3:
	.loc	36 777 5 is_stmt 1
	testb	$1, -9(%rbp)
	jne	LBB133_5
LBB133_4:
	.loc	36 777 6 is_stmt 0
	movl	-24(%rbp), %eax
	addq	$48, %rsp
	popq	%rbp
	retq
LBB133_5:
	.loc	36 777 5
	jmp	LBB133_4
Ltmp848:
Lfunc_end133:
	.cfi_endproc

	.globl	__ZN4core6result19Result$LT$T$C$E$GT$3map17hd9194ddcbaadd0baE
	.p2align	4, 0x90
__ZN4core6result19Result$LT$T$C$E$GT$3map17hd9194ddcbaadd0baE:
Lfunc_begin134:
	.loc	36 772 0 is_stmt 1
	.cfi_startproc
	pushq	%rbp
	.cfi_def_cfa_offset 16
	.cfi_offset %rbp, -16
	movq	%rsp, %rbp
	.cfi_def_cfa_register %rbp
	subq	$48, %rsp
	movq	%rdi, -32(%rbp)
	movq	-32(%rbp), %rax
	movq	%rax, -40(%rbp)
Ltmp849:
	.loc	36 773 15 prologue_end
	movb	$1, -9(%rbp)
	movb	-40(%rbp), %al
	andb	$1, %al
	movzbl	%al, %eax
	.loc	36 773 9 is_stmt 0
	cmpq	$0, %rax
	jne	LBB134_2
	.loc	36 774 16 is_stmt 1
	movss	-36(%rbp), %xmm0
	movss	%xmm0, -4(%rbp)
Ltmp850:
	.loc	36 774 25 is_stmt 0
	movb	$0, -9(%rbp)
	movss	%xmm0, -16(%rbp)
	movss	-16(%rbp), %xmm0
	callq	__ZN4core3ops8function6FnOnce9call_once17h8c2711126084654fE
	.loc	36 774 22
	movw	%ax, -22(%rbp)
	movb	$0, -24(%rbp)
Ltmp851:
	.loc	36 774 30
	jmp	LBB134_3
LBB134_2:
	.loc	36 775 17 is_stmt 1
	movb	-39(%rbp), %al
	movb	%al, %cl
	andb	$1, %cl
	movb	%cl, -5(%rbp)
Ltmp852:
	.loc	36 775 23 is_stmt 0
	andb	$1, %al
	movb	%al, -23(%rbp)
	movb	$1, -24(%rbp)
Ltmp853:
LBB134_3:
	.loc	36 777 5 is_stmt 1
	testb	$1, -9(%rbp)
	jne	LBB134_5
LBB134_4:
	.loc	36 777 6 is_stmt 0
	movl	-24(%rbp), %eax
	addq	$48, %rsp
	popq	%rbp
	retq
LBB134_5:
	.loc	36 777 5
	jmp	LBB134_4
Ltmp854:
Lfunc_end134:
	.cfi_endproc

	.globl	__ZN4core9panicking13assert_failed17h0e347c95f1948728E
	.p2align	4, 0x90
__ZN4core9panicking13assert_failed17h0e347c95f1948728E:
Lfunc_begin135:
	.file	37 "/rustc/2c8cc343237b8f7d5a3c3703e3a87f2eb2c54a74/library/core/src" "panicking.rs"
	.loc	37 202 0 is_stmt 1
	.cfi_startproc
	pushq	%rbp
	.cfi_def_cfa_offset 16
	.cfi_offset %rbp, -16
	movq	%rsp, %rbp
	.cfi_def_cfa_register %rbp
	subq	$96, %rsp
	movq	%rcx, -80(%rbp)
Ltmp855:
	movq	%rdx, %rcx
	movq	-80(%rbp), %rdx
	movb	%dil, %al
	movq	%rsi, -72(%rbp)
	movq	%rcx, -64(%rbp)
	movb	%al, -1(%rbp)
Ltmp856:
	.loc	37 212 46 prologue_end
	movq	40(%rdx), %rcx
	movq	%rcx, -16(%rbp)
	movq	32(%rdx), %rcx
	movq	%rcx, -24(%rbp)
	movq	24(%rdx), %rcx
	movq	%rcx, -32(%rbp)
	movq	16(%rdx), %rcx
	movq	%rcx, -40(%rbp)
	movq	(%rdx), %rcx
	movq	8(%rdx), %rdx
	movq	%rdx, -48(%rbp)
	movq	%rcx, -56(%rbp)
	.loc	37 212 5 is_stmt 0
	movq	%rsp, %rcx
	movq	%r8, (%rcx)
	movzbl	%al, %edi
	leaq	l___unnamed_1(%rip), %r8
	leaq	-72(%rbp), %rsi
	leaq	-64(%rbp), %rcx
	leaq	-56(%rbp), %r9
	movq	%r8, %rdx
	callq	__ZN4core9panicking19assert_failed_inner17hccca5a268c0d7621E
Ltmp857:
Lfunc_end135:
	.cfi_endproc

	.globl	__ZN50_$LT$T$u20$as$u20$core..convert..Into$LT$U$GT$$GT$4into17h429ab56235c82edbE
	.p2align	4, 0x90
__ZN50_$LT$T$u20$as$u20$core..convert..Into$LT$U$GT$$GT$4into17h429ab56235c82edbE:
Lfunc_begin136:
	.file	38 "/rustc/2c8cc343237b8f7d5a3c3703e3a87f2eb2c54a74/library/core/src/convert" "mod.rs"
	.loc	38 725 0 is_stmt 1
	.cfi_startproc
	pushq	%rbp
	.cfi_def_cfa_offset 16
	.cfi_offset %rbp, -16
	movq	%rsp, %rbp
	.cfi_def_cfa_register %rbp
	subq	$16, %rsp
	movq	%rdi, -8(%rbp)
Ltmp858:
	.loc	38 726 9 prologue_end
	callq	__ZN119_$LT$core..ptr..non_null..NonNull$LT$T$GT$$u20$as$u20$core..convert..From$LT$core..ptr..unique..Unique$LT$T$GT$$GT$$GT$4from17h99e12079fd6e556bE
	.loc	38 727 6
	addq	$16, %rsp
	popq	%rbp
	retq
Ltmp859:
Lfunc_end136:
	.cfi_endproc

	.globl	__ZN5alloc3vec12Vec$LT$T$GT$13with_capacity17h4bd28edb94f02f12E
	.p2align	4, 0x90
__ZN5alloc3vec12Vec$LT$T$GT$13with_capacity17h4bd28edb94f02f12E:
Lfunc_begin137:
	.file	39 "/rustc/2c8cc343237b8f7d5a3c3703e3a87f2eb2c54a74/library/alloc/src/vec" "mod.rs"
	.loc	39 482 0
	.cfi_startproc
	pushq	%rbp
	.cfi_def_cfa_offset 16
	.cfi_offset %rbp, -16
	movq	%rsp, %rbp
	.cfi_def_cfa_register %rbp
	subq	$80, %rsp
	movq	%rsi, -72(%rbp)
	movq	%rdi, %rax
	movq	-72(%rbp), %rdi
	movq	%rax, -64(%rbp)
	movq	%rax, -56(%rbp)
	movq	%rdi, -40(%rbp)
Ltmp860:
	.loc	39 483 32 prologue_end
	movq	%rdi, -16(%rbp)
Ltmp861:
	.loc	39 676 45
	movq	%rdi, -8(%rbp)
Ltmp862:
	.file	40 "/rustc/2c8cc343237b8f7d5a3c3703e3a87f2eb2c54a74/library/alloc/src" "raw_vec.rs"
	.loc	40 131 37
	movb	$0, -41(%rbp)
	.loc	40 131 9 is_stmt 0
	movb	-41(%rbp), %al
	andb	$1, %al
	movzbl	%al, %esi
	callq	__ZN5alloc7raw_vec19RawVec$LT$T$C$A$GT$11allocate_in17h174ad65116f8ecf6E
	movq	-64(%rbp), %rdi
	movq	%rax, %rcx
	movq	-56(%rbp), %rax
Ltmp863:
	.loc	39 676 9 is_stmt 1
	movq	%rcx, (%rdi)
	movq	%rdx, 8(%rdi)
	movq	$0, 16(%rdi)
Ltmp864:
	.loc	39 484 6
	addq	$80, %rsp
	popq	%rbp
	retq
Ltmp865:
Lfunc_end137:
	.cfi_endproc

	.globl	__ZN5alloc3vec12Vec$LT$T$GT$13with_capacity17hbbb9ed60341eccf9E
	.p2align	4, 0x90
__ZN5alloc3vec12Vec$LT$T$GT$13with_capacity17hbbb9ed60341eccf9E:
Lfunc_begin138:
	.loc	39 482 0
	.cfi_startproc
	pushq	%rbp
	.cfi_def_cfa_offset 16
	.cfi_offset %rbp, -16
	movq	%rsp, %rbp
	.cfi_def_cfa_register %rbp
	subq	$80, %rsp
	movq	%rsi, -72(%rbp)
	movq	%rdi, %rax
	movq	-72(%rbp), %rdi
	movq	%rax, -64(%rbp)
	movq	%rax, -56(%rbp)
	movq	%rdi, -40(%rbp)
Ltmp866:
	.loc	39 483 32 prologue_end
	movq	%rdi, -16(%rbp)
Ltmp867:
	.loc	39 676 45
	movq	%rdi, -8(%rbp)
Ltmp868:
	.loc	40 131 37
	movb	$0, -41(%rbp)
	.loc	40 131 9 is_stmt 0
	movb	-41(%rbp), %al
	andb	$1, %al
	movzbl	%al, %esi
	callq	__ZN5alloc7raw_vec19RawVec$LT$T$C$A$GT$11allocate_in17hf5c1c6a4e5d4ae5cE
	movq	-64(%rbp), %rdi
	movq	%rax, %rcx
	movq	-56(%rbp), %rax
Ltmp869:
	.loc	39 676 9 is_stmt 1
	movq	%rcx, (%rdi)
	movq	%rdx, 8(%rdi)
	movq	$0, 16(%rdi)
Ltmp870:
	.loc	39 484 6
	addq	$80, %rsp
	popq	%rbp
	retq
Ltmp871:
Lfunc_end138:
	.cfi_endproc

	.globl	__ZN5alloc3vec16Vec$LT$T$C$A$GT$7set_len17h5e11fa031ff2e316E
	.p2align	4, 0x90
__ZN5alloc3vec16Vec$LT$T$C$A$GT$7set_len17h5e11fa031ff2e316E:
Lfunc_begin139:
	.loc	39 1374 0
	.cfi_startproc
	pushq	%rbp
	.cfi_def_cfa_offset 16
	.cfi_offset %rbp, -16
	movq	%rsp, %rbp
	.cfi_def_cfa_register %rbp
	subq	$16, %rsp
	movq	%rdi, -16(%rbp)
	movq	%rsi, -8(%rbp)
Ltmp872:
	.loc	39 1377 9 prologue_end
	movq	%rsi, 16(%rdi)
	.loc	39 1378 6
	addq	$16, %rsp
	popq	%rbp
	retq
Ltmp873:
Lfunc_end139:
	.cfi_endproc

	.globl	__ZN5alloc3vec16Vec$LT$T$C$A$GT$7set_len17hc96941b0ebae6992E
	.p2align	4, 0x90
__ZN5alloc3vec16Vec$LT$T$C$A$GT$7set_len17hc96941b0ebae6992E:
Lfunc_begin140:
	.loc	39 1374 0
	.cfi_startproc
	pushq	%rbp
	.cfi_def_cfa_offset 16
	.cfi_offset %rbp, -16
	movq	%rsp, %rbp
	.cfi_def_cfa_register %rbp
	subq	$16, %rsp
	movq	%rdi, -16(%rbp)
	movq	%rsi, -8(%rbp)
Ltmp874:
	.loc	39 1377 9 prologue_end
	movq	%rsi, 16(%rdi)
	.loc	39 1378 6
	addq	$16, %rsp
	popq	%rbp
	retq
Ltmp875:
Lfunc_end140:
	.cfi_endproc

	.p2align	4, 0x90
__ZN5alloc5alloc6Global10alloc_impl17haca3e1cb9aa0bcaeE:
Lfunc_begin141:
	.file	41 "/rustc/2c8cc343237b8f7d5a3c3703e3a87f2eb2c54a74/library/alloc/src" "alloc.rs"
	.loc	41 172 0
	.cfi_startproc
	pushq	%rbp
	.cfi_def_cfa_offset 16
	.cfi_offset %rbp, -16
	movq	%rsp, %rbp
	.cfi_def_cfa_register %rbp
	subq	$352, %rsp
	movb	%cl, %al
	movb	%al, -345(%rbp)
	movq	%rsi, -336(%rbp)
	movq	%rdx, -328(%rbp)
	movq	%rdi, -208(%rbp)
	andb	$1, %al
	movb	%al, -193(%rbp)
Ltmp876:
	.loc	41 173 15 prologue_end
	leaq	-336(%rbp), %rax
	movq	%rax, -144(%rbp)
Ltmp877:
	.loc	30 129 9
	movq	-336(%rbp), %rax
	movq	%rax, -344(%rbp)
Ltmp878:
	.loc	41 173 9
	cmpq	$0, %rax
	jne	LBB141_2
	.loc	41 174 51
	leaq	-336(%rbp), %rax
	movq	%rax, -48(%rbp)
Ltmp879:
	.loc	30 216 71
	leaq	-336(%rbp), %rax
	movq	%rax, -40(%rbp)
Ltmp880:
	.loc	30 140 9
	movq	-328(%rbp), %rax
	movq	%rax, -32(%rbp)
Ltmp881:
	.loc	31 97 9
	movq	%rax, -232(%rbp)
	movq	-232(%rbp), %rax
	movq	%rax, -24(%rbp)
Ltmp882:
	.loc	4 599 14
	movq	%rax, -16(%rbp)
	movq	-16(%rbp), %rax
	movq	%rax, -8(%rbp)
Ltmp883:
	.loc	10 201 13
	movq	%rax, -304(%rbp)
Ltmp884:
	.loc	41 174 21
	movq	-304(%rbp), %rdi
	xorl	%eax, %eax
	movl	%eax, %esi
	callq	__ZN4core3ptr8non_null26NonNull$LT$$u5b$T$u5d$$GT$20slice_from_raw_parts17h6742b7f57b866a56E
	.loc	41 174 18 is_stmt 0
	movq	%rax, -320(%rbp)
	movq	%rdx, -312(%rbp)
	.loc	41 174 72
	jmp	LBB141_15
LBB141_2:
	.loc	41 0 72
	movb	-345(%rbp), %al
	movq	-344(%rbp), %rcx
	.loc	41 176 13 is_stmt 1
	movq	%rcx, -136(%rbp)
Ltmp885:
	.loc	41 177 34
	testb	$1, %al
	jne	LBB141_4
	.loc	41 177 79 is_stmt 0
	movq	-336(%rbp), %rcx
	movq	-328(%rbp), %rax
	movq	%rcx, -272(%rbp)
	movq	%rax, -264(%rbp)
Ltmp886:
	.loc	41 95 27 is_stmt 1
	leaq	-272(%rbp), %rax
	movq	%rax, -104(%rbp)
Ltmp887:
	.loc	30 129 9
	movq	-272(%rbp), %rdi
Ltmp888:
	.loc	41 95 42
	leaq	-272(%rbp), %rax
	movq	%rax, -96(%rbp)
Ltmp889:
	.loc	30 140 9
	movq	-264(%rbp), %rax
	movq	%rax, -88(%rbp)
Ltmp890:
	.loc	31 97 9
	movq	%rax, -216(%rbp)
	movq	-216(%rbp), %rsi
Ltmp891:
	.loc	41 95 14
	callq	___rust_alloc
	movq	%rax, -296(%rbp)
Ltmp892:
	.loc	41 177 31
	jmp	LBB141_5
LBB141_4:
	.loc	41 177 56 is_stmt 0
	movq	-336(%rbp), %rcx
	movq	-328(%rbp), %rax
	movq	%rcx, -288(%rbp)
	movq	%rax, -280(%rbp)
Ltmp893:
	.loc	41 166 34 is_stmt 1
	leaq	-288(%rbp), %rax
	movq	%rax, -128(%rbp)
Ltmp894:
	.loc	30 129 9
	movq	-288(%rbp), %rdi
Ltmp895:
	.loc	41 166 49
	leaq	-288(%rbp), %rax
	movq	%rax, -120(%rbp)
Ltmp896:
	.loc	30 140 9
	movq	-280(%rbp), %rax
	movq	%rax, -112(%rbp)
Ltmp897:
	.loc	31 97 9
	movq	%rax, -224(%rbp)
	movq	-224(%rbp), %rsi
Ltmp898:
	.loc	41 166 14
	callq	___rust_alloc_zeroed
	movq	%rax, -296(%rbp)
Ltmp899:
LBB141_5:
	.loc	41 178 40
	movq	-296(%rbp), %rdi
	.loc	41 178 27 is_stmt 0
	callq	__ZN4core3ptr8non_null16NonNull$LT$T$GT$3new17ha6494bdb31130664E
	movq	%rax, -240(%rbp)
Ltmp900:
	.loc	8 1096 15 is_stmt 1
	movq	-240(%rbp), %rdx
	movl	$1, %eax
	xorl	%ecx, %ecx
	cmpq	$0, %rdx
	cmoveq	%rcx, %rax
	.loc	8 1096 9 is_stmt 0
	cmpq	$0, %rax
	jne	LBB141_7
	.loc	8 1098 21 is_stmt 1
	movq	$0, -248(%rbp)
	.loc	8 1098 28 is_stmt 0
	jmp	LBB141_8
LBB141_7:
	.loc	8 1097 18 is_stmt 1
	movq	-240(%rbp), %rax
	movq	%rax, -80(%rbp)
Ltmp901:
	.loc	8 1097 24 is_stmt 0
	movq	%rax, -248(%rbp)
Ltmp902:
LBB141_8:
	.loc	36 2091 15 is_stmt 1
	movq	-248(%rbp), %rdx
	xorl	%eax, %eax
	movl	$1, %ecx
	cmpq	$0, %rdx
	cmoveq	%rcx, %rax
	.loc	36 2091 9 is_stmt 0
	cmpq	$0, %rax
	jne	LBB141_10
	.loc	36 2092 16 is_stmt 1
	movq	-248(%rbp), %rax
	movq	%rax, -72(%rbp)
Ltmp903:
	.loc	36 2092 22 is_stmt 0
	movq	%rax, -256(%rbp)
Ltmp904:
	.loc	36 2092 45
	jmp	LBB141_11
LBB141_10:
Ltmp905:
	.loc	36 2093 23 is_stmt 1
	movq	$0, -256(%rbp)
Ltmp906:
LBB141_11:
	.loc	41 178 27
	movq	-256(%rbp), %rdx
	xorl	%eax, %eax
	movl	$1, %ecx
	cmpq	$0, %rdx
	cmoveq	%rcx, %rax
	cmpq	$0, %rax
	jne	LBB141_13
	.loc	41 0 27 is_stmt 0
	movq	-344(%rbp), %rsi
	.loc	41 178 27
	movq	-256(%rbp), %rdi
	movq	%rdi, -64(%rbp)
Ltmp907:
	.loc	41 178 27
	movq	%rdi, -56(%rbp)
Ltmp908:
	.loc	41 179 20 is_stmt 1
	callq	__ZN4core3ptr8non_null26NonNull$LT$$u5b$T$u5d$$GT$20slice_from_raw_parts17h6742b7f57b866a56E
	.loc	41 179 17 is_stmt 0
	movq	%rax, -320(%rbp)
	movq	%rdx, -312(%rbp)
Ltmp909:
	.loc	41 180 13 is_stmt 1
	jmp	LBB141_15
LBB141_13:
Ltmp910:
	.loc	36 2107 23
	movq	$0, -320(%rbp)
Ltmp911:
LBB141_14:
	.loc	41 182 6
	movq	-320(%rbp), %rax
	movq	-312(%rbp), %rdx
	addq	$352, %rsp
	popq	%rbp
	retq
LBB141_15:
	jmp	LBB141_14
Ltmp912:
Lfunc_end141:
	.cfi_endproc

	.globl	__ZN5alloc7raw_vec19RawVec$LT$T$C$A$GT$11allocate_in17h174ad65116f8ecf6E
	.p2align	4, 0x90
__ZN5alloc7raw_vec19RawVec$LT$T$C$A$GT$11allocate_in17h174ad65116f8ecf6E:
Lfunc_begin142:
	.loc	40 169 0
	.cfi_startproc
	.cfi_personality 155, _rust_eh_personality
	.cfi_lsda 16, Lexception11
	pushq	%rbp
	.cfi_def_cfa_offset 16
	.cfi_offset %rbp, -16
	movq	%rsp, %rbp
	.cfi_def_cfa_register %rbp
	subq	$384, %rsp
	movq	%rdi, -296(%rbp)
	movb	%sil, %al
	andb	$1, %al
	movb	%al, -281(%rbp)
	movq	%rdi, -168(%rbp)
Ltmp928:
	.loc	40 171 12 prologue_end
	movb	$1, -177(%rbp)
	xorl	%eax, %eax
	testb	$1, %al
	jne	LBB142_2
	.loc	40 0 12 is_stmt 0
	movq	-296(%rbp), %rax
	.loc	40 171 25
	cmpq	$0, %rax
	sete	%al
	.loc	40 171 12
	andb	$1, %al
	movb	%al, -249(%rbp)
	jmp	LBB142_3
LBB142_2:
	movb	$1, -249(%rbp)
LBB142_3:
	testb	$1, -249(%rbp)
	jne	LBB142_5
	.loc	40 0 12
	movq	-296(%rbp), %rax
	.loc	40 176 51 is_stmt 1
	movq	%rax, -144(%rbp)
Ltmp929:
	.loc	27 459 5
	movq	$2, -136(%rbp)
Ltmp930:
	.loc	31 89 18
	movq	$2, -128(%rbp)
	movq	-128(%rbp), %rax
	movq	%rax, -304(%rbp)
	jmp	LBB142_10
Ltmp931:
LBB142_5:
	.loc	40 172 26
	movb	$0, -177(%rbp)
Ltmp925:
	.loc	40 172 13 is_stmt 0
	callq	__ZN5alloc7raw_vec19RawVec$LT$T$C$A$GT$6new_in17hfdfbfdd1a6f28111E
Ltmp926:
	movq	%rdx, -320(%rbp)
	movq	%rax, -312(%rbp)
	jmp	LBB142_8
LBB142_6:
	.loc	40 202 5 is_stmt 1
	testb	$1, -177(%rbp)
	jne	LBB142_25
	jmp	LBB142_24
LBB142_7:
Ltmp927:
	.loc	40 0 5 is_stmt 0
	movq	%rax, %rcx
	movl	%edx, %eax
	movq	%rcx, -160(%rbp)
	movl	%eax, -152(%rbp)
	jmp	LBB142_6
LBB142_8:
	movq	-320(%rbp), %rax
	movq	-312(%rbp), %rcx
	.loc	40 172 13 is_stmt 1
	movq	%rcx, -272(%rbp)
	movq	%rax, -264(%rbp)
LBB142_9:
	.loc	40 202 6
	movq	-272(%rbp), %rax
	movq	-264(%rbp), %rdx
	addq	$384, %rsp
	popq	%rbp
	retq
LBB142_10:
Ltmp913:
	.loc	40 0 6 is_stmt 0
	movq	-296(%rbp), %rdx
	movq	-304(%rbp), %rsi
	movl	$2, %edi
Ltmp932:
	.loc	30 438 16 is_stmt 1
	callq	__ZN4core5alloc6layout6Layout5array5inner17he57fbf53f141cc2fE
Ltmp914:
	movq	%rdx, -336(%rbp)
	movq	%rax, -328(%rbp)
	jmp	LBB142_11
LBB142_11:
	.loc	30 0 16 is_stmt 0
	movq	-336(%rbp), %rax
	movq	-328(%rbp), %rcx
	.loc	30 438 16
	movq	%rcx, -248(%rbp)
	movq	%rax, -240(%rbp)
Ltmp933:
	.loc	40 176 32 is_stmt 1
	xorl	%eax, %eax
	movl	$1, %ecx
	cmpq	$0, -240(%rbp)
	cmoveq	%rcx, %rax
	.loc	40 176 26 is_stmt 0
	cmpq	$0, %rax
	jne	LBB142_13
	.loc	40 177 20 is_stmt 1
	movq	-248(%rbp), %rcx
	movq	%rcx, -352(%rbp)
	movq	-240(%rbp), %rax
	movq	%rax, -344(%rbp)
	movq	%rcx, -120(%rbp)
	movq	%rax, -112(%rbp)
Ltmp934:
	.loc	40 177 31 is_stmt 0
	movq	%rcx, -104(%rbp)
	movq	%rax, -96(%rbp)
Ltmp935:
	.loc	40 509 9 is_stmt 1
	movabsq	$-9223372036854775807, %rax
	movq	%rax, -224(%rbp)
Ltmp936:
	.loc	40 180 19
	movabsq	$-9223372036854775807, %rdx
	movl	$1, %eax
	xorl	%ecx, %ecx
	cmpq	%rdx, -224(%rbp)
	cmoveq	%rcx, %rax
	.loc	40 180 13 is_stmt 0
	cmpq	$0, %rax
	je	LBB142_15
	jmp	LBB142_16
Ltmp937:
LBB142_13:
Ltmp915:
	.loc	40 178 27 is_stmt 1
	callq	__ZN5alloc7raw_vec17capacity_overflow17h082ee8492f253a0eE
Ltmp916:
	jmp	LBB142_14
LBB142_14:
	.loc	40 0 27 is_stmt 0
	ud2
LBB142_15:
Ltmp938:
	.loc	40 184 32 is_stmt 1
	movb	-281(%rbp), %al
	andb	$1, %al
	movzbl	%al, %eax
	.loc	40 184 26 is_stmt 0
	cmpq	$0, %rax
	je	LBB142_17
	jmp	LBB142_18
LBB142_16:
Ltmp917:
	.loc	40 182 27 is_stmt 1
	callq	__ZN5alloc7raw_vec17capacity_overflow17h082ee8492f253a0eE
Ltmp918:
	jmp	LBB142_14
LBB142_17:
Ltmp921:
	.loc	40 0 27 is_stmt 0
	movq	-344(%rbp), %rdx
	movq	-352(%rbp), %rsi
	leaq	-280(%rbp), %rdi
	.loc	40 185 45 is_stmt 1
	callq	__ZN63_$LT$alloc..alloc..Global$u20$as$u20$core..alloc..Allocator$GT$8allocate17hc32c9755450e9472E
Ltmp922:
	movq	%rdx, -368(%rbp)
	movq	%rax, -360(%rbp)
	jmp	LBB142_21
LBB142_18:
Ltmp919:
	.loc	40 0 45 is_stmt 0
	movq	-344(%rbp), %rdx
	movq	-352(%rbp), %rsi
	leaq	-280(%rbp), %rdi
	.loc	40 186 38 is_stmt 1
	callq	__ZN63_$LT$alloc..alloc..Global$u20$as$u20$core..alloc..Allocator$GT$15allocate_zeroed17h3881257e116caaffE
Ltmp920:
	movq	%rdx, -384(%rbp)
	movq	%rax, -376(%rbp)
	jmp	LBB142_19
LBB142_19:
	.loc	40 0 38 is_stmt 0
	movq	-384(%rbp), %rax
	movq	-376(%rbp), %rcx
	.loc	40 186 38
	movq	%rcx, -216(%rbp)
	movq	%rax, -208(%rbp)
LBB142_20:
Ltmp939:
	.loc	40 188 29 is_stmt 1
	movq	-216(%rbp), %rdx
	xorl	%eax, %eax
	movl	$1, %ecx
	cmpq	$0, %rdx
	cmoveq	%rcx, %rax
	.loc	40 188 23 is_stmt 0
	cmpq	$0, %rax
	je	LBB142_22
	jmp	LBB142_23
Ltmp940:
LBB142_21:
	.loc	40 0 23
	movq	-368(%rbp), %rax
	movq	-360(%rbp), %rcx
	.loc	40 185 45 is_stmt 1
	movq	%rcx, -216(%rbp)
	movq	%rax, -208(%rbp)
	.loc	40 185 66 is_stmt 0
	jmp	LBB142_20
LBB142_22:
	.loc	40 0 66
	movq	-296(%rbp), %rax
Ltmp941:
	.loc	40 189 20 is_stmt 1
	movq	-216(%rbp), %rcx
	movq	-208(%rbp), %rdx
	movq	%rcx, -88(%rbp)
	movq	%rdx, -80(%rbp)
Ltmp942:
	.loc	40 189 28 is_stmt 0
	movq	%rcx, -72(%rbp)
	movq	%rdx, -64(%rbp)
Ltmp943:
	.loc	40 197 53 is_stmt 1
	movq	%rcx, -56(%rbp)
	movq	%rdx, -48(%rbp)
Ltmp944:
	.loc	10 450 41
	movq	%rcx, -40(%rbp)
	movq	%rdx, -32(%rbp)
	movq	%rcx, -24(%rbp)
Ltmp945:
	.loc	10 201 13
	movq	%rcx, -192(%rbp)
Ltmp946:
	.loc	10 326 9
	movq	-192(%rbp), %rcx
	movq	%rcx, -16(%rbp)
Ltmp947:
	.loc	11 87 59
	movq	%rcx, -8(%rbp)
Ltmp948:
	.loc	10 201 13
	movq	%rcx, -176(%rbp)
Ltmp949:
	.loc	11 87 18
	movq	-176(%rbp), %rcx
	movq	%rcx, -200(%rbp)
Ltmp950:
	.loc	40 196 13
	movq	-200(%rbp), %rcx
	movq	%rcx, -264(%rbp)
	movq	%rax, -272(%rbp)
Ltmp951:
	.loc	40 171 9
	jmp	LBB142_9
LBB142_23:
Ltmp923:
	.loc	40 0 9 is_stmt 0
	movq	-344(%rbp), %rsi
	movq	-352(%rbp), %rdi
Ltmp952:
	.loc	40 190 27 is_stmt 1
	callq	__ZN5alloc5alloc18handle_alloc_error17hb5f6ff255f23ea4dE
Ltmp924:
	jmp	LBB142_14
Ltmp953:
LBB142_24:
	.loc	40 169 5
	movq	-160(%rbp), %rdi
	callq	__Unwind_Resume
LBB142_25:
	.loc	40 202 5
	jmp	LBB142_24
Ltmp954:
Lfunc_end142:
	.cfi_endproc
	.section	__TEXT,__gcc_except_tab
	.p2align	2
GCC_except_table142:
Lexception11:
	.byte	255
	.byte	255
	.byte	1
	.uleb128 Lcst_end11-Lcst_begin11
Lcst_begin11:
	.uleb128 Ltmp925-Lfunc_begin142
	.uleb128 Ltmp924-Ltmp925
	.uleb128 Ltmp927-Lfunc_begin142
	.byte	0
	.uleb128 Ltmp924-Lfunc_begin142
	.uleb128 Lfunc_end142-Ltmp924
	.byte	0
	.byte	0
Lcst_end11:
	.p2align	2

	.section	__TEXT,__text,regular,pure_instructions
	.globl	__ZN5alloc7raw_vec19RawVec$LT$T$C$A$GT$11allocate_in17hf5c1c6a4e5d4ae5cE
	.p2align	4, 0x90
__ZN5alloc7raw_vec19RawVec$LT$T$C$A$GT$11allocate_in17hf5c1c6a4e5d4ae5cE:
Lfunc_begin143:
	.loc	40 169 0
	.cfi_startproc
	.cfi_personality 155, _rust_eh_personality
	.cfi_lsda 16, Lexception12
	pushq	%rbp
	.cfi_def_cfa_offset 16
	.cfi_offset %rbp, -16
	movq	%rsp, %rbp
	.cfi_def_cfa_register %rbp
	subq	$384, %rsp
	movq	%rdi, -296(%rbp)
	movb	%sil, %al
	andb	$1, %al
	movb	%al, -281(%rbp)
	movq	%rdi, -168(%rbp)
Ltmp970:
	.loc	40 171 12 prologue_end
	movb	$1, -177(%rbp)
	xorl	%eax, %eax
	testb	$1, %al
	jne	LBB143_2
	.loc	40 0 12 is_stmt 0
	movq	-296(%rbp), %rax
	.loc	40 171 25
	cmpq	$0, %rax
	sete	%al
	.loc	40 171 12
	andb	$1, %al
	movb	%al, -249(%rbp)
	jmp	LBB143_3
LBB143_2:
	movb	$1, -249(%rbp)
LBB143_3:
	testb	$1, -249(%rbp)
	jne	LBB143_5
	.loc	40 0 12
	movq	-296(%rbp), %rax
	.loc	40 176 51 is_stmt 1
	movq	%rax, -144(%rbp)
Ltmp971:
	.loc	27 459 5
	movq	$2, -136(%rbp)
Ltmp972:
	.loc	31 89 18
	movq	$2, -128(%rbp)
	movq	-128(%rbp), %rax
	movq	%rax, -304(%rbp)
	jmp	LBB143_10
Ltmp973:
LBB143_5:
	.loc	40 172 26
	movb	$0, -177(%rbp)
Ltmp967:
	.loc	40 172 13 is_stmt 0
	callq	__ZN5alloc7raw_vec19RawVec$LT$T$C$A$GT$6new_in17h8ead17787de3bd79E
Ltmp968:
	movq	%rdx, -320(%rbp)
	movq	%rax, -312(%rbp)
	jmp	LBB143_8
LBB143_6:
	.loc	40 202 5 is_stmt 1
	testb	$1, -177(%rbp)
	jne	LBB143_25
	jmp	LBB143_24
LBB143_7:
Ltmp969:
	.loc	40 0 5 is_stmt 0
	movq	%rax, %rcx
	movl	%edx, %eax
	movq	%rcx, -160(%rbp)
	movl	%eax, -152(%rbp)
	jmp	LBB143_6
LBB143_8:
	movq	-320(%rbp), %rax
	movq	-312(%rbp), %rcx
	.loc	40 172 13 is_stmt 1
	movq	%rcx, -272(%rbp)
	movq	%rax, -264(%rbp)
LBB143_9:
	.loc	40 202 6
	movq	-272(%rbp), %rax
	movq	-264(%rbp), %rdx
	addq	$384, %rsp
	popq	%rbp
	retq
LBB143_10:
Ltmp955:
	.loc	40 0 6 is_stmt 0
	movq	-296(%rbp), %rdx
	movq	-304(%rbp), %rsi
	movl	$2, %edi
Ltmp974:
	.loc	30 438 16 is_stmt 1
	callq	__ZN4core5alloc6layout6Layout5array5inner17he57fbf53f141cc2fE
Ltmp956:
	movq	%rdx, -336(%rbp)
	movq	%rax, -328(%rbp)
	jmp	LBB143_11
LBB143_11:
	.loc	30 0 16 is_stmt 0
	movq	-336(%rbp), %rax
	movq	-328(%rbp), %rcx
	.loc	30 438 16
	movq	%rcx, -248(%rbp)
	movq	%rax, -240(%rbp)
Ltmp975:
	.loc	40 176 32 is_stmt 1
	xorl	%eax, %eax
	movl	$1, %ecx
	cmpq	$0, -240(%rbp)
	cmoveq	%rcx, %rax
	.loc	40 176 26 is_stmt 0
	cmpq	$0, %rax
	jne	LBB143_13
	.loc	40 177 20 is_stmt 1
	movq	-248(%rbp), %rcx
	movq	%rcx, -352(%rbp)
	movq	-240(%rbp), %rax
	movq	%rax, -344(%rbp)
	movq	%rcx, -120(%rbp)
	movq	%rax, -112(%rbp)
Ltmp976:
	.loc	40 177 31 is_stmt 0
	movq	%rcx, -104(%rbp)
	movq	%rax, -96(%rbp)
Ltmp977:
	.loc	40 509 9 is_stmt 1
	movabsq	$-9223372036854775807, %rax
	movq	%rax, -224(%rbp)
Ltmp978:
	.loc	40 180 19
	movabsq	$-9223372036854775807, %rdx
	movl	$1, %eax
	xorl	%ecx, %ecx
	cmpq	%rdx, -224(%rbp)
	cmoveq	%rcx, %rax
	.loc	40 180 13 is_stmt 0
	cmpq	$0, %rax
	je	LBB143_15
	jmp	LBB143_16
Ltmp979:
LBB143_13:
Ltmp957:
	.loc	40 178 27 is_stmt 1
	callq	__ZN5alloc7raw_vec17capacity_overflow17h082ee8492f253a0eE
Ltmp958:
	jmp	LBB143_14
LBB143_14:
	.loc	40 0 27 is_stmt 0
	ud2
LBB143_15:
Ltmp980:
	.loc	40 184 32 is_stmt 1
	movb	-281(%rbp), %al
	andb	$1, %al
	movzbl	%al, %eax
	.loc	40 184 26 is_stmt 0
	cmpq	$0, %rax
	je	LBB143_17
	jmp	LBB143_18
LBB143_16:
Ltmp959:
	.loc	40 182 27 is_stmt 1
	callq	__ZN5alloc7raw_vec17capacity_overflow17h082ee8492f253a0eE
Ltmp960:
	jmp	LBB143_14
LBB143_17:
Ltmp963:
	.loc	40 0 27 is_stmt 0
	movq	-344(%rbp), %rdx
	movq	-352(%rbp), %rsi
	leaq	-280(%rbp), %rdi
	.loc	40 185 45 is_stmt 1
	callq	__ZN63_$LT$alloc..alloc..Global$u20$as$u20$core..alloc..Allocator$GT$8allocate17hc32c9755450e9472E
Ltmp964:
	movq	%rdx, -368(%rbp)
	movq	%rax, -360(%rbp)
	jmp	LBB143_21
LBB143_18:
Ltmp961:
	.loc	40 0 45 is_stmt 0
	movq	-344(%rbp), %rdx
	movq	-352(%rbp), %rsi
	leaq	-280(%rbp), %rdi
	.loc	40 186 38 is_stmt 1
	callq	__ZN63_$LT$alloc..alloc..Global$u20$as$u20$core..alloc..Allocator$GT$15allocate_zeroed17h3881257e116caaffE
Ltmp962:
	movq	%rdx, -384(%rbp)
	movq	%rax, -376(%rbp)
	jmp	LBB143_19
LBB143_19:
	.loc	40 0 38 is_stmt 0
	movq	-384(%rbp), %rax
	movq	-376(%rbp), %rcx
	.loc	40 186 38
	movq	%rcx, -216(%rbp)
	movq	%rax, -208(%rbp)
LBB143_20:
Ltmp981:
	.loc	40 188 29 is_stmt 1
	movq	-216(%rbp), %rdx
	xorl	%eax, %eax
	movl	$1, %ecx
	cmpq	$0, %rdx
	cmoveq	%rcx, %rax
	.loc	40 188 23 is_stmt 0
	cmpq	$0, %rax
	je	LBB143_22
	jmp	LBB143_23
Ltmp982:
LBB143_21:
	.loc	40 0 23
	movq	-368(%rbp), %rax
	movq	-360(%rbp), %rcx
	.loc	40 185 45 is_stmt 1
	movq	%rcx, -216(%rbp)
	movq	%rax, -208(%rbp)
	.loc	40 185 66 is_stmt 0
	jmp	LBB143_20
LBB143_22:
	.loc	40 0 66
	movq	-296(%rbp), %rax
Ltmp983:
	.loc	40 189 20 is_stmt 1
	movq	-216(%rbp), %rcx
	movq	-208(%rbp), %rdx
	movq	%rcx, -88(%rbp)
	movq	%rdx, -80(%rbp)
Ltmp984:
	.loc	40 189 28 is_stmt 0
	movq	%rcx, -72(%rbp)
	movq	%rdx, -64(%rbp)
Ltmp985:
	.loc	40 197 53 is_stmt 1
	movq	%rcx, -56(%rbp)
	movq	%rdx, -48(%rbp)
Ltmp986:
	.loc	10 450 41
	movq	%rcx, -40(%rbp)
	movq	%rdx, -32(%rbp)
	movq	%rcx, -24(%rbp)
Ltmp987:
	.loc	10 201 13
	movq	%rcx, -192(%rbp)
Ltmp988:
	.loc	10 326 9
	movq	-192(%rbp), %rcx
	movq	%rcx, -16(%rbp)
Ltmp989:
	.loc	11 87 59
	movq	%rcx, -8(%rbp)
Ltmp990:
	.loc	10 201 13
	movq	%rcx, -176(%rbp)
Ltmp991:
	.loc	11 87 18
	movq	-176(%rbp), %rcx
	movq	%rcx, -200(%rbp)
Ltmp992:
	.loc	40 196 13
	movq	-200(%rbp), %rcx
	movq	%rcx, -264(%rbp)
	movq	%rax, -272(%rbp)
Ltmp993:
	.loc	40 171 9
	jmp	LBB143_9
LBB143_23:
Ltmp965:
	.loc	40 0 9 is_stmt 0
	movq	-344(%rbp), %rsi
	movq	-352(%rbp), %rdi
Ltmp994:
	.loc	40 190 27 is_stmt 1
	callq	__ZN5alloc5alloc18handle_alloc_error17hb5f6ff255f23ea4dE
Ltmp966:
	jmp	LBB143_14
Ltmp995:
LBB143_24:
	.loc	40 169 5
	movq	-160(%rbp), %rdi
	callq	__Unwind_Resume
LBB143_25:
	.loc	40 202 5
	jmp	LBB143_24
Ltmp996:
Lfunc_end143:
	.cfi_endproc
	.section	__TEXT,__gcc_except_tab
	.p2align	2
GCC_except_table143:
Lexception12:
	.byte	255
	.byte	255
	.byte	1
	.uleb128 Lcst_end12-Lcst_begin12
Lcst_begin12:
	.uleb128 Ltmp967-Lfunc_begin143
	.uleb128 Ltmp966-Ltmp967
	.uleb128 Ltmp969-Lfunc_begin143
	.byte	0
	.uleb128 Ltmp966-Lfunc_begin143
	.uleb128 Lfunc_end143-Ltmp966
	.byte	0
	.byte	0
Lcst_end12:
	.p2align	2

	.section	__TEXT,__text,regular,pure_instructions
	.globl	__ZN5alloc7raw_vec19RawVec$LT$T$C$A$GT$14current_memory17hd2ea2af661c2a9b2E
	.p2align	4, 0x90
__ZN5alloc7raw_vec19RawVec$LT$T$C$A$GT$14current_memory17hd2ea2af661c2a9b2E:
Lfunc_begin144:
	.loc	40 240 0
	.cfi_startproc
	pushq	%rbp
	.cfi_def_cfa_offset 16
	.cfi_offset %rbp, -16
	movq	%rsp, %rbp
	.cfi_def_cfa_register %rbp
	subq	$176, %rsp
	movq	%rsi, -152(%rbp)
	movq	%rdi, -144(%rbp)
	movq	%rdi, -136(%rbp)
	movq	%rsi, -80(%rbp)
Ltmp997:
	.loc	40 241 12 prologue_end
	xorl	%eax, %eax
	testb	$1, %al
	jne	LBB144_2
	.loc	40 0 12 is_stmt 0
	movq	-152(%rbp), %rax
	.loc	40 241 25
	cmpq	$0, (%rax)
	sete	%al
	.loc	40 241 12
	andb	$1, %al
	movb	%al, -121(%rbp)
	jmp	LBB144_3
LBB144_2:
	movb	$1, -121(%rbp)
LBB144_3:
	testb	$1, -121(%rbp)
	jne	LBB144_5
	.loc	40 0 12
	movq	-152(%rbp), %rax
	.loc	40 247 49 is_stmt 1
	movq	(%rax), %rdx
	movq	%rdx, -72(%rbp)
Ltmp998:
	.loc	27 459 5
	movq	$2, -64(%rbp)
Ltmp999:
	.loc	31 89 18
	movq	$2, -56(%rbp)
	movq	-56(%rbp), %rsi
Ltmp1000:
	.loc	30 438 16
	movl	$2, %edi
	callq	__ZN4core5alloc6layout6Layout5array5inner17he57fbf53f141cc2fE
	movq	%rax, %rdi
	movq	%rdx, %rsi
Ltmp1001:
	.loc	40 247 30
	leaq	l___unnamed_21(%rip), %rdx
	callq	__ZN4core6result19Result$LT$T$C$E$GT$16unwrap_unchecked17hd231aa81d43631f2E
	movq	%rax, %rcx
	movq	-152(%rbp), %rax
	movq	%rcx, -168(%rbp)
	movq	%rdx, -160(%rbp)
	movq	%rcx, -48(%rbp)
	movq	%rdx, -40(%rbp)
Ltmp1002:
	.loc	40 248 23
	movq	8(%rax), %rax
	movq	%rax, -32(%rbp)
Ltmp1003:
	.loc	11 137 22
	movq	%rax, -24(%rbp)
Ltmp1004:
	.loc	10 450 41
	movq	%rax, -16(%rbp)
	movq	%rax, -8(%rbp)
Ltmp1005:
	.loc	10 201 13
	movq	%rax, -88(%rbp)
Ltmp1006:
	.loc	11 191 18
	movq	-88(%rbp), %rax
	.loc	11 191 9 is_stmt 0
	movq	%rax, -96(%rbp)
Ltmp1007:
	.loc	40 248 23 is_stmt 1
	movq	-96(%rbp), %rdi
	callq	__ZN50_$LT$T$u20$as$u20$core..convert..Into$LT$U$GT$$GT$4into17h429ab56235c82edbE
	movq	-168(%rbp), %rcx
	movq	-160(%rbp), %rdx
	movq	%rax, %rsi
	movq	-144(%rbp), %rax
	.loc	40 248 22 is_stmt 0
	movq	%rsi, -120(%rbp)
	movq	%rcx, -112(%rbp)
	movq	%rdx, -104(%rbp)
	.loc	40 248 17
	movq	-120(%rbp), %rcx
	movq	%rcx, (%rax)
	movq	-112(%rbp), %rcx
	movq	%rcx, 8(%rax)
	movq	-104(%rbp), %rcx
	movq	%rcx, 16(%rax)
Ltmp1008:
	.loc	40 241 9 is_stmt 1
	jmp	LBB144_6
LBB144_5:
	.loc	40 0 9 is_stmt 0
	movq	-144(%rbp), %rax
	.loc	40 242 13 is_stmt 1
	movq	$0, 16(%rax)
LBB144_6:
	.loc	40 0 13 is_stmt 0
	movq	-136(%rbp), %rax
	.loc	40 251 6 is_stmt 1
	addq	$176, %rsp
	popq	%rbp
	retq
Ltmp1009:
Lfunc_end144:
	.cfi_endproc

	.globl	__ZN5alloc7raw_vec19RawVec$LT$T$C$A$GT$14current_memory17hd47e06a6ea9c63ddE
	.p2align	4, 0x90
__ZN5alloc7raw_vec19RawVec$LT$T$C$A$GT$14current_memory17hd47e06a6ea9c63ddE:
Lfunc_begin145:
	.loc	40 240 0
	.cfi_startproc
	pushq	%rbp
	.cfi_def_cfa_offset 16
	.cfi_offset %rbp, -16
	movq	%rsp, %rbp
	.cfi_def_cfa_register %rbp
	subq	$176, %rsp
	movq	%rsi, -152(%rbp)
	movq	%rdi, -144(%rbp)
	movq	%rdi, -136(%rbp)
	movq	%rsi, -80(%rbp)
Ltmp1010:
	.loc	40 241 12 prologue_end
	xorl	%eax, %eax
	testb	$1, %al
	jne	LBB145_2
	.loc	40 0 12 is_stmt 0
	movq	-152(%rbp), %rax
	.loc	40 241 25
	cmpq	$0, (%rax)
	sete	%al
	.loc	40 241 12
	andb	$1, %al
	movb	%al, -121(%rbp)
	jmp	LBB145_3
LBB145_2:
	movb	$1, -121(%rbp)
LBB145_3:
	testb	$1, -121(%rbp)
	jne	LBB145_5
	.loc	40 0 12
	movq	-152(%rbp), %rax
	.loc	40 247 49 is_stmt 1
	movq	(%rax), %rdx
	movq	%rdx, -72(%rbp)
Ltmp1011:
	.loc	27 459 5
	movq	$2, -64(%rbp)
Ltmp1012:
	.loc	31 89 18
	movq	$2, -56(%rbp)
	movq	-56(%rbp), %rsi
Ltmp1013:
	.loc	30 438 16
	movl	$2, %edi
	callq	__ZN4core5alloc6layout6Layout5array5inner17he57fbf53f141cc2fE
	movq	%rax, %rdi
	movq	%rdx, %rsi
Ltmp1014:
	.loc	40 247 30
	leaq	l___unnamed_21(%rip), %rdx
	callq	__ZN4core6result19Result$LT$T$C$E$GT$16unwrap_unchecked17hd231aa81d43631f2E
	movq	%rax, %rcx
	movq	-152(%rbp), %rax
	movq	%rcx, -168(%rbp)
	movq	%rdx, -160(%rbp)
	movq	%rcx, -48(%rbp)
	movq	%rdx, -40(%rbp)
Ltmp1015:
	.loc	40 248 23
	movq	8(%rax), %rax
	movq	%rax, -32(%rbp)
Ltmp1016:
	.loc	11 137 22
	movq	%rax, -24(%rbp)
Ltmp1017:
	.loc	10 450 41
	movq	%rax, -16(%rbp)
	movq	%rax, -8(%rbp)
Ltmp1018:
	.loc	10 201 13
	movq	%rax, -88(%rbp)
Ltmp1019:
	.loc	11 191 18
	movq	-88(%rbp), %rax
	.loc	11 191 9 is_stmt 0
	movq	%rax, -96(%rbp)
Ltmp1020:
	.loc	40 248 23 is_stmt 1
	movq	-96(%rbp), %rdi
	callq	__ZN50_$LT$T$u20$as$u20$core..convert..Into$LT$U$GT$$GT$4into17h429ab56235c82edbE
	movq	-168(%rbp), %rcx
	movq	-160(%rbp), %rdx
	movq	%rax, %rsi
	movq	-144(%rbp), %rax
	.loc	40 248 22 is_stmt 0
	movq	%rsi, -120(%rbp)
	movq	%rcx, -112(%rbp)
	movq	%rdx, -104(%rbp)
	.loc	40 248 17
	movq	-120(%rbp), %rcx
	movq	%rcx, (%rax)
	movq	-112(%rbp), %rcx
	movq	%rcx, 8(%rax)
	movq	-104(%rbp), %rcx
	movq	%rcx, 16(%rax)
Ltmp1021:
	.loc	40 241 9 is_stmt 1
	jmp	LBB145_6
LBB145_5:
	.loc	40 0 9 is_stmt 0
	movq	-144(%rbp), %rax
	.loc	40 242 13 is_stmt 1
	movq	$0, 16(%rax)
LBB145_6:
	.loc	40 0 13 is_stmt 0
	movq	-136(%rbp), %rax
	.loc	40 251 6 is_stmt 1
	addq	$176, %rsp
	popq	%rbp
	retq
Ltmp1022:
Lfunc_end145:
	.cfi_endproc

	.globl	__ZN5alloc7raw_vec19RawVec$LT$T$C$A$GT$6new_in17h8ead17787de3bd79E
	.p2align	4, 0x90
__ZN5alloc7raw_vec19RawVec$LT$T$C$A$GT$6new_in17h8ead17787de3bd79E:
Lfunc_begin146:
	.loc	40 121 0
	.cfi_startproc
	pushq	%rbp
	.cfi_def_cfa_offset 16
	.cfi_offset %rbp, -16
	movq	%rsp, %rbp
	.cfi_def_cfa_register %rbp
	subq	$96, %rsp
Ltmp1023:
	.loc	27 459 5 prologue_end
	movq	$2, -48(%rbp)
Ltmp1024:
	.loc	4 599 14
	movq	$2, -40(%rbp)
	movq	-40(%rbp), %rax
	movq	%rax, -96(%rbp)
	movq	%rax, -32(%rbp)
Ltmp1025:
	.loc	4 0 14 is_stmt 0
	movq	-96(%rbp), %rax
Ltmp1026:
	.loc	10 97 36 is_stmt 1
	movq	%rax, -8(%rbp)
Ltmp1027:
	.loc	10 201 13
	movq	%rax, -64(%rbp)
Ltmp1028:
	.loc	11 191 18
	movq	-64(%rbp), %rax
	.loc	11 191 9 is_stmt 0
	movq	%rax, -72(%rbp)
Ltmp1029:
	.loc	40 123 9 is_stmt 1
	movq	-72(%rbp), %rax
	movq	%rax, -80(%rbp)
	movq	$0, -88(%rbp)
	.loc	40 124 6
	movq	-88(%rbp), %rax
	movq	-80(%rbp), %rdx
	addq	$96, %rsp
	popq	%rbp
	retq
Ltmp1030:
Lfunc_end146:
	.cfi_endproc

	.globl	__ZN5alloc7raw_vec19RawVec$LT$T$C$A$GT$6new_in17hfdfbfdd1a6f28111E
	.p2align	4, 0x90
__ZN5alloc7raw_vec19RawVec$LT$T$C$A$GT$6new_in17hfdfbfdd1a6f28111E:
Lfunc_begin147:
	.loc	40 121 0
	.cfi_startproc
	pushq	%rbp
	.cfi_def_cfa_offset 16
	.cfi_offset %rbp, -16
	movq	%rsp, %rbp
	.cfi_def_cfa_register %rbp
	subq	$96, %rsp
Ltmp1031:
	.loc	27 459 5 prologue_end
	movq	$2, -48(%rbp)
Ltmp1032:
	.loc	4 599 14
	movq	$2, -40(%rbp)
	movq	-40(%rbp), %rax
	movq	%rax, -96(%rbp)
	movq	%rax, -32(%rbp)
Ltmp1033:
	.loc	4 0 14 is_stmt 0
	movq	-96(%rbp), %rax
Ltmp1034:
	.loc	10 97 36 is_stmt 1
	movq	%rax, -8(%rbp)
Ltmp1035:
	.loc	10 201 13
	movq	%rax, -64(%rbp)
Ltmp1036:
	.loc	11 191 18
	movq	-64(%rbp), %rax
	.loc	11 191 9 is_stmt 0
	movq	%rax, -72(%rbp)
Ltmp1037:
	.loc	40 123 9 is_stmt 1
	movq	-72(%rbp), %rax
	movq	%rax, -80(%rbp)
	movq	$0, -88(%rbp)
	.loc	40 124 6
	movq	-88(%rbp), %rax
	movq	-80(%rbp), %rdx
	addq	$96, %rsp
	popq	%rbp
	retq
Ltmp1038:
Lfunc_end147:
	.cfi_endproc

	.globl	__ZN63_$LT$I$u20$as$u20$core..iter..traits..collect..IntoIterator$GT$9into_iter17h652c54779cd2c9abE
	.p2align	4, 0x90
__ZN63_$LT$I$u20$as$u20$core..iter..traits..collect..IntoIterator$GT$9into_iter17h652c54779cd2c9abE:
Lfunc_begin148:
	.file	42 "/rustc/2c8cc343237b8f7d5a3c3703e3a87f2eb2c54a74/library/core/src/iter/traits" "collect.rs"
	.loc	42 272 0
	.cfi_startproc
	pushq	%rbp
	.cfi_def_cfa_offset 16
	.cfi_offset %rbp, -16
	movq	%rsp, %rbp
	.cfi_def_cfa_register %rbp
	pushq	%rax
	movq	%rdi, %rax
	movq	%rax, -8(%rbp)
Ltmp1039:
	.loc	42 274 6 prologue_end
	addq	$8, %rsp
	popq	%rbp
	retq
Ltmp1040:
Lfunc_end148:
	.cfi_endproc

	.globl	__ZN63_$LT$I$u20$as$u20$core..iter..traits..collect..IntoIterator$GT$9into_iter17h6c61bc0a26246f82E
	.p2align	4, 0x90
__ZN63_$LT$I$u20$as$u20$core..iter..traits..collect..IntoIterator$GT$9into_iter17h6c61bc0a26246f82E:
Lfunc_begin149:
	.loc	42 272 0
	.cfi_startproc
	pushq	%rbp
	.cfi_def_cfa_offset 16
	.cfi_offset %rbp, -16
	movq	%rsp, %rbp
	.cfi_def_cfa_register %rbp
	movq	%rdi, %rax
Ltmp1041:
	.loc	42 273 9 prologue_end
	movq	(%rsi), %rcx
	movq	%rcx, (%rdi)
	movq	8(%rsi), %rcx
	movq	%rcx, 8(%rdi)
	movq	16(%rsi), %rcx
	movq	%rcx, 16(%rdi)
	.loc	42 274 6
	popq	%rbp
	retq
Ltmp1042:
Lfunc_end149:
	.cfi_endproc

	.globl	__ZN63_$LT$I$u20$as$u20$core..iter..traits..collect..IntoIterator$GT$9into_iter17h773ba97a53999529E
	.p2align	4, 0x90
__ZN63_$LT$I$u20$as$u20$core..iter..traits..collect..IntoIterator$GT$9into_iter17h773ba97a53999529E:
Lfunc_begin150:
	.loc	42 272 0
	.cfi_startproc
	pushq	%rbp
	.cfi_def_cfa_offset 16
	.cfi_offset %rbp, -16
	movq	%rsp, %rbp
	.cfi_def_cfa_register %rbp
	movq	%rdi, %rax
Ltmp1043:
	.loc	42 273 9 prologue_end
	movq	(%rsi), %rcx
	movq	%rcx, (%rdi)
	movq	8(%rsi), %rcx
	movq	%rcx, 8(%rdi)
	movq	16(%rsi), %rcx
	movq	%rcx, 16(%rdi)
	.loc	42 274 6
	popq	%rbp
	retq
Ltmp1044:
Lfunc_end150:
	.cfi_endproc

	.globl	__ZN63_$LT$I$u20$as$u20$core..iter..traits..collect..IntoIterator$GT$9into_iter17h962717eb72967900E
	.p2align	4, 0x90
__ZN63_$LT$I$u20$as$u20$core..iter..traits..collect..IntoIterator$GT$9into_iter17h962717eb72967900E:
Lfunc_begin151:
	.loc	42 272 0
	.cfi_startproc
	pushq	%rbp
	.cfi_def_cfa_offset 16
	.cfi_offset %rbp, -16
	movq	%rsp, %rbp
	.cfi_def_cfa_register %rbp
	pushq	%rax
	movq	%rdi, %rax
	movq	%rax, -8(%rbp)
Ltmp1045:
	.loc	42 274 6 prologue_end
	addq	$8, %rsp
	popq	%rbp
	retq
Ltmp1046:
Lfunc_end151:
	.cfi_endproc

	.globl	__ZN63_$LT$I$u20$as$u20$core..iter..traits..collect..IntoIterator$GT$9into_iter17hc5f42dc1f805c16bE
	.p2align	4, 0x90
__ZN63_$LT$I$u20$as$u20$core..iter..traits..collect..IntoIterator$GT$9into_iter17hc5f42dc1f805c16bE:
Lfunc_begin152:
	.loc	42 272 0
	.cfi_startproc
	pushq	%rbp
	.cfi_def_cfa_offset 16
	.cfi_offset %rbp, -16
	movq	%rsp, %rbp
	.cfi_def_cfa_register %rbp
	movq	%rdi, %rax
Ltmp1047:
	.loc	42 273 9 prologue_end
	movq	(%rsi), %rcx
	movq	%rcx, (%rdi)
	movq	8(%rsi), %rcx
	movq	%rcx, 8(%rdi)
	movq	16(%rsi), %rcx
	movq	%rcx, 16(%rdi)
	.loc	42 274 6
	popq	%rbp
	retq
Ltmp1048:
Lfunc_end152:
	.cfi_endproc

	.globl	__ZN63_$LT$I$u20$as$u20$core..iter..traits..collect..IntoIterator$GT$9into_iter17he6c5ed3b7189b83bE
	.p2align	4, 0x90
__ZN63_$LT$I$u20$as$u20$core..iter..traits..collect..IntoIterator$GT$9into_iter17he6c5ed3b7189b83bE:
Lfunc_begin153:
	.loc	42 272 0
	.cfi_startproc
	pushq	%rbp
	.cfi_def_cfa_offset 16
	.cfi_offset %rbp, -16
	movq	%rsp, %rbp
	.cfi_def_cfa_register %rbp
	subq	$16, %rsp
	movq	%rsi, %rdx
	movq	%rdi, %rax
	movq	%rax, -16(%rbp)
	movq	%rdx, -8(%rbp)
Ltmp1049:
	.loc	42 274 6 prologue_end
	addq	$16, %rsp
	popq	%rbp
	retq
Ltmp1050:
Lfunc_end153:
	.cfi_endproc

	.globl	__ZN63_$LT$I$u20$as$u20$core..iter..traits..collect..IntoIterator$GT$9into_iter17hf6b9909d53c7a821E
	.p2align	4, 0x90
__ZN63_$LT$I$u20$as$u20$core..iter..traits..collect..IntoIterator$GT$9into_iter17hf6b9909d53c7a821E:
Lfunc_begin154:
	.loc	42 272 0
	.cfi_startproc
	pushq	%rbp
	.cfi_def_cfa_offset 16
	.cfi_offset %rbp, -16
	movq	%rsp, %rbp
	.cfi_def_cfa_register %rbp
	pushq	%rax
	movq	%rdi, %rax
	movq	%rax, -8(%rbp)
Ltmp1051:
	.loc	42 274 6 prologue_end
	addq	$8, %rsp
	popq	%rbp
	retq
Ltmp1052:
Lfunc_end154:
	.cfi_endproc

	.p2align	4, 0x90
__ZN63_$LT$alloc..alloc..Global$u20$as$u20$core..alloc..Allocator$GT$10deallocate17h9d5db1a0afe85f1bE:
Lfunc_begin155:
	.loc	41 246 0
	.cfi_startproc
	pushq	%rbp
	.cfi_def_cfa_offset 16
	.cfi_offset %rbp, -16
	movq	%rsp, %rbp
	.cfi_def_cfa_register %rbp
	subq	$112, %rsp
	movq	%rsi, -112(%rbp)
	movq	%rdx, -104(%rbp)
	movq	%rcx, -96(%rbp)
	movq	%rdi, -64(%rbp)
	movq	%rsi, -56(%rbp)
Ltmp1053:
	.loc	41 247 12 prologue_end
	leaq	-104(%rbp), %rax
	movq	%rax, -48(%rbp)
	cmpq	$0, -104(%rbp)
	jne	LBB155_2
	.loc	41 247 9 is_stmt 0
	jmp	LBB155_3
LBB155_2:
	.loc	41 0 9
	movq	-112(%rbp), %rdi
	.loc	41 250 30 is_stmt 1
	movq	%rdi, -40(%rbp)
Ltmp1054:
	.loc	10 326 9
	movq	%rdi, -32(%rbp)
Ltmp1055:
	.loc	41 250 44
	movq	-104(%rbp), %rcx
	movq	-96(%rbp), %rax
	movq	%rcx, -88(%rbp)
	movq	%rax, -80(%rbp)
Ltmp1056:
	.loc	41 113 34
	leaq	-88(%rbp), %rax
	movq	%rax, -24(%rbp)
Ltmp1057:
	.loc	30 129 9
	movq	-88(%rbp), %rsi
Ltmp1058:
	.loc	41 113 49
	leaq	-88(%rbp), %rax
	movq	%rax, -16(%rbp)
Ltmp1059:
	.loc	30 140 9
	movq	-80(%rbp), %rax
	movq	%rax, -8(%rbp)
Ltmp1060:
	.loc	31 97 9
	movq	%rax, -72(%rbp)
	movq	-72(%rbp), %rdx
Ltmp1061:
	.loc	41 113 14
	callq	___rust_dealloc
Ltmp1062:
LBB155_3:
	.loc	41 252 6
	addq	$112, %rsp
	popq	%rbp
	retq
Ltmp1063:
Lfunc_end155:
	.cfi_endproc

	.p2align	4, 0x90
__ZN63_$LT$alloc..alloc..Global$u20$as$u20$core..alloc..Allocator$GT$15allocate_zeroed17h3881257e116caaffE:
Lfunc_begin156:
	.loc	41 241 0
	.cfi_startproc
	pushq	%rbp
	.cfi_def_cfa_offset 16
	.cfi_offset %rbp, -16
	movq	%rsp, %rbp
	.cfi_def_cfa_register %rbp
	subq	$32, %rsp
	movq	%rdi, -24(%rbp)
	movq	%rsi, -16(%rbp)
	movq	%rdx, -8(%rbp)
	movl	$1, %ecx
Ltmp1064:
	.loc	41 242 9 prologue_end
	callq	__ZN5alloc5alloc6Global10alloc_impl17haca3e1cb9aa0bcaeE
	.loc	41 243 6
	addq	$32, %rsp
	popq	%rbp
	retq
Ltmp1065:
Lfunc_end156:
	.cfi_endproc

	.p2align	4, 0x90
__ZN63_$LT$alloc..alloc..Global$u20$as$u20$core..alloc..Allocator$GT$8allocate17hc32c9755450e9472E:
Lfunc_begin157:
	.loc	41 236 0
	.cfi_startproc
	pushq	%rbp
	.cfi_def_cfa_offset 16
	.cfi_offset %rbp, -16
	movq	%rsp, %rbp
	.cfi_def_cfa_register %rbp
	subq	$32, %rsp
	movq	%rdi, -24(%rbp)
	movq	%rsi, -16(%rbp)
	movq	%rdx, -8(%rbp)
	xorl	%ecx, %ecx
Ltmp1066:
	.loc	41 237 9 prologue_end
	callq	__ZN5alloc5alloc6Global10alloc_impl17haca3e1cb9aa0bcaeE
	.loc	41 238 6
	addq	$32, %rsp
	popq	%rbp
	retq
Ltmp1067:
Lfunc_end157:
	.cfi_endproc

	.globl	__ZN70_$LT$alloc..vec..Vec$LT$T$C$A$GT$$u20$as$u20$core..ops..drop..Drop$GT$4drop17h5a97abee54772fabE
	.p2align	4, 0x90
__ZN70_$LT$alloc..vec..Vec$LT$T$C$A$GT$$u20$as$u20$core..ops..drop..Drop$GT$4drop17h5a97abee54772fabE:
Lfunc_begin158:
	.loc	39 3054 0
	.cfi_startproc
	pushq	%rbp
	.cfi_def_cfa_offset 16
	.cfi_offset %rbp, -16
	movq	%rsp, %rbp
	.cfi_def_cfa_register %rbp
	subq	$160, %rsp
	movq	%rdi, -120(%rbp)
Ltmp1068:
	.loc	39 3059 62 prologue_end
	movq	%rdi, -112(%rbp)
Ltmp1069:
	.loc	39 1280 19
	movq	%rdi, -104(%rbp)
Ltmp1070:
	.loc	40 224 9
	movq	8(%rdi), %rcx
	movq	%rcx, -96(%rbp)
Ltmp1071:
	.loc	11 104 9
	movq	%rcx, -88(%rbp)
Ltmp1072:
	.loc	10 326 9
	movq	%rcx, -80(%rbp)
Ltmp1073:
	.loc	39 1282 21
	movq	%rcx, -72(%rbp)
Ltmp1074:
	.loc	6 52 36
	movq	%rcx, -160(%rbp)
	.loc	6 52 18 is_stmt 0
	movq	-160(%rbp), %rax
	movq	%rax, -64(%rbp)
Ltmp1075:
	.loc	6 38 13 is_stmt 1
	movq	%rax, -56(%rbp)
Ltmp1076:
	.loc	6 215 33
	movq	%rax, -48(%rbp)
	.loc	6 215 18 is_stmt 0
	movq	%rax, -40(%rbp)
Ltmp1077:
	.loc	39 3059 81 is_stmt 1
	movq	16(%rdi), %rax
	movq	%rax, -32(%rbp)
Ltmp1078:
	.loc	4 766 24
	movq	%rcx, -24(%rbp)
Ltmp1079:
	.loc	6 60 9
	movq	%rcx, -16(%rbp)
Ltmp1080:
	.loc	4 766 37
	movq	%rax, -8(%rbp)
Ltmp1081:
	.loc	5 135 36
	movq	%rcx, -136(%rbp)
	movq	%rax, -128(%rbp)
	.loc	5 135 14 is_stmt 0
	movq	-136(%rbp), %rcx
	movq	-128(%rbp), %rax
	movq	%rcx, -152(%rbp)
	movq	%rax, -144(%rbp)
Ltmp1082:
	.loc	39 3062 6 is_stmt 1
	addq	$160, %rsp
	popq	%rbp
	retq
Ltmp1083:
Lfunc_end158:
	.cfi_endproc

	.globl	__ZN70_$LT$alloc..vec..Vec$LT$T$C$A$GT$$u20$as$u20$core..ops..drop..Drop$GT$4drop17hc0cb0ff021600176E
	.p2align	4, 0x90
__ZN70_$LT$alloc..vec..Vec$LT$T$C$A$GT$$u20$as$u20$core..ops..drop..Drop$GT$4drop17hc0cb0ff021600176E:
Lfunc_begin159:
	.loc	39 3054 0
	.cfi_startproc
	pushq	%rbp
	.cfi_def_cfa_offset 16
	.cfi_offset %rbp, -16
	movq	%rsp, %rbp
	.cfi_def_cfa_register %rbp
	subq	$160, %rsp
	movq	%rdi, -120(%rbp)
Ltmp1084:
	.loc	39 3059 62 prologue_end
	movq	%rdi, -112(%rbp)
Ltmp1085:
	.loc	39 1280 19
	movq	%rdi, -104(%rbp)
Ltmp1086:
	.loc	40 224 9
	movq	8(%rdi), %rcx
	movq	%rcx, -96(%rbp)
Ltmp1087:
	.loc	11 104 9
	movq	%rcx, -88(%rbp)
Ltmp1088:
	.loc	10 326 9
	movq	%rcx, -80(%rbp)
Ltmp1089:
	.loc	39 1282 21
	movq	%rcx, -72(%rbp)
Ltmp1090:
	.loc	6 52 36
	movq	%rcx, -160(%rbp)
	.loc	6 52 18 is_stmt 0
	movq	-160(%rbp), %rax
	movq	%rax, -64(%rbp)
Ltmp1091:
	.loc	6 38 13 is_stmt 1
	movq	%rax, -56(%rbp)
Ltmp1092:
	.loc	6 215 33
	movq	%rax, -48(%rbp)
	.loc	6 215 18 is_stmt 0
	movq	%rax, -40(%rbp)
Ltmp1093:
	.loc	39 3059 81 is_stmt 1
	movq	16(%rdi), %rax
	movq	%rax, -32(%rbp)
Ltmp1094:
	.loc	4 766 24
	movq	%rcx, -24(%rbp)
Ltmp1095:
	.loc	6 60 9
	movq	%rcx, -16(%rbp)
Ltmp1096:
	.loc	4 766 37
	movq	%rax, -8(%rbp)
Ltmp1097:
	.loc	5 135 36
	movq	%rcx, -136(%rbp)
	movq	%rax, -128(%rbp)
	.loc	5 135 14 is_stmt 0
	movq	-136(%rbp), %rcx
	movq	-128(%rbp), %rax
	movq	%rcx, -152(%rbp)
	movq	%rax, -144(%rbp)
Ltmp1098:
	.loc	39 3062 6 is_stmt 1
	addq	$160, %rsp
	popq	%rbp
	retq
Ltmp1099:
Lfunc_end159:
	.cfi_endproc

	.globl	__ZN72_$LT$$RF$mut$u20$I$u20$as$u20$core..iter..traits..iterator..Iterator$GT$4next17h12a7aabc181bd681E
	.p2align	4, 0x90
__ZN72_$LT$$RF$mut$u20$I$u20$as$u20$core..iter..traits..iterator..Iterator$GT$4next17h12a7aabc181bd681E:
Lfunc_begin160:
	.loc	29 3904 0
	.cfi_startproc
	pushq	%rbp
	.cfi_def_cfa_offset 16
	.cfi_offset %rbp, -16
	movq	%rsp, %rbp
	.cfi_def_cfa_register %rbp
	subq	$16, %rsp
	movq	%rdi, -8(%rbp)
Ltmp1100:
	.loc	29 3905 9 prologue_end
	movq	(%rdi), %rdi
	callq	__ZN98_$LT$core..slice..iter..ChunksExact$LT$T$GT$$u20$as$u20$core..iter..traits..iterator..Iterator$GT$4next17hc578741e95bfc840E
	.loc	29 3906 6
	addq	$16, %rsp
	popq	%rbp
	retq
Ltmp1101:
Lfunc_end160:
	.cfi_endproc

	.globl	__ZN72_$LT$$RF$mut$u20$I$u20$as$u20$core..iter..traits..iterator..Iterator$GT$4next17h30019930be38956cE
	.p2align	4, 0x90
__ZN72_$LT$$RF$mut$u20$I$u20$as$u20$core..iter..traits..iterator..Iterator$GT$4next17h30019930be38956cE:
Lfunc_begin161:
	.loc	29 3904 0
	.cfi_startproc
	pushq	%rbp
	.cfi_def_cfa_offset 16
	.cfi_offset %rbp, -16
	movq	%rsp, %rbp
	.cfi_def_cfa_register %rbp
	subq	$16, %rsp
	movq	%rdi, -8(%rbp)
Ltmp1102:
	.loc	29 3905 9 prologue_end
	movq	(%rdi), %rdi
	callq	__ZN98_$LT$core..slice..iter..ChunksExact$LT$T$GT$$u20$as$u20$core..iter..traits..iterator..Iterator$GT$4next17h57cc11e6d852040dE
	.loc	29 3906 6
	addq	$16, %rsp
	popq	%rbp
	retq
Ltmp1103:
Lfunc_end161:
	.cfi_endproc

	.globl	__ZN72_$LT$$RF$mut$u20$I$u20$as$u20$core..iter..traits..iterator..Iterator$GT$4next17he231dad7f993806bE
	.p2align	4, 0x90
__ZN72_$LT$$RF$mut$u20$I$u20$as$u20$core..iter..traits..iterator..Iterator$GT$4next17he231dad7f993806bE:
Lfunc_begin162:
	.loc	29 3904 0
	.cfi_startproc
	pushq	%rbp
	.cfi_def_cfa_offset 16
	.cfi_offset %rbp, -16
	movq	%rsp, %rbp
	.cfi_def_cfa_register %rbp
	subq	$16, %rsp
	movq	%rdi, -8(%rbp)
Ltmp1104:
	.loc	29 3905 9 prologue_end
	movq	(%rdi), %rdi
	callq	__ZN98_$LT$core..slice..iter..ChunksExact$LT$T$GT$$u20$as$u20$core..iter..traits..iterator..Iterator$GT$4next17h7dd5e884675b50e2E
	.loc	29 3906 6
	addq	$16, %rsp
	popq	%rbp
	retq
Ltmp1105:
Lfunc_end162:
	.cfi_endproc

	.globl	__ZN75_$LT$alloc..vec..Vec$LT$T$C$A$GT$$u20$as$u20$core..ops..deref..DerefMut$GT$9deref_mut17h6dcd4079c24b4c95E
	.p2align	4, 0x90
__ZN75_$LT$alloc..vec..Vec$LT$T$C$A$GT$$u20$as$u20$core..ops..deref..DerefMut$GT$9deref_mut17h6dcd4079c24b4c95E:
Lfunc_begin163:
	.loc	39 2644 0
	.cfi_startproc
	pushq	%rbp
	.cfi_def_cfa_offset 16
	.cfi_offset %rbp, -16
	movq	%rsp, %rbp
	.cfi_def_cfa_register %rbp
	subq	$176, %rsp
	movq	%rdi, -136(%rbp)
Ltmp1106:
	.loc	39 2645 44 prologue_end
	movq	%rdi, -128(%rbp)
Ltmp1107:
	.loc	39 1280 19
	movq	%rdi, -120(%rbp)
Ltmp1108:
	.loc	40 224 9
	movq	8(%rdi), %rcx
	movq	%rcx, -112(%rbp)
Ltmp1109:
	.loc	11 104 9
	movq	%rcx, -104(%rbp)
Ltmp1110:
	.loc	10 326 9
	movq	%rcx, -96(%rbp)
Ltmp1111:
	.loc	39 1282 21
	movq	%rcx, -88(%rbp)
Ltmp1112:
	.loc	6 52 36
	movq	%rcx, -176(%rbp)
	.loc	6 52 18 is_stmt 0
	movq	-176(%rbp), %rax
	movq	%rax, -80(%rbp)
Ltmp1113:
	.loc	6 38 13 is_stmt 1
	movq	%rax, -72(%rbp)
Ltmp1114:
	.loc	6 215 33
	movq	%rax, -64(%rbp)
	.loc	6 215 18 is_stmt 0
	movq	%rax, -56(%rbp)
Ltmp1115:
	.loc	39 2645 63 is_stmt 1
	movq	16(%rdi), %rax
	movq	%rax, -48(%rbp)
Ltmp1116:
	.loc	34 145 45
	movq	%rcx, -40(%rbp)
	.loc	34 145 51 is_stmt 0
	movq	%rax, -32(%rbp)
Ltmp1117:
	.loc	4 766 24 is_stmt 1
	movq	%rcx, -24(%rbp)
Ltmp1118:
	.loc	6 60 9
	movq	%rcx, -16(%rbp)
Ltmp1119:
	.loc	4 766 37
	movq	%rax, -8(%rbp)
Ltmp1120:
	.loc	5 135 36
	movq	%rcx, -152(%rbp)
	movq	%rax, -144(%rbp)
	.loc	5 135 14 is_stmt 0
	movq	-152(%rbp), %rcx
	movq	-144(%rbp), %rax
	movq	%rcx, -168(%rbp)
	movq	%rax, -160(%rbp)
	movq	-168(%rbp), %rax
	movq	-160(%rbp), %rdx
Ltmp1121:
	.loc	39 2646 6 is_stmt 1
	addq	$176, %rsp
	popq	%rbp
	retq
Ltmp1122:
Lfunc_end163:
	.cfi_endproc

	.globl	__ZN75_$LT$alloc..vec..Vec$LT$T$C$A$GT$$u20$as$u20$core..ops..deref..DerefMut$GT$9deref_mut17hebde9f7a949cb7d8E
	.p2align	4, 0x90
__ZN75_$LT$alloc..vec..Vec$LT$T$C$A$GT$$u20$as$u20$core..ops..deref..DerefMut$GT$9deref_mut17hebde9f7a949cb7d8E:
Lfunc_begin164:
	.loc	39 2644 0
	.cfi_startproc
	pushq	%rbp
	.cfi_def_cfa_offset 16
	.cfi_offset %rbp, -16
	movq	%rsp, %rbp
	.cfi_def_cfa_register %rbp
	subq	$176, %rsp
	movq	%rdi, -136(%rbp)
Ltmp1123:
	.loc	39 2645 44 prologue_end
	movq	%rdi, -128(%rbp)
Ltmp1124:
	.loc	39 1280 19
	movq	%rdi, -120(%rbp)
Ltmp1125:
	.loc	40 224 9
	movq	8(%rdi), %rcx
	movq	%rcx, -112(%rbp)
Ltmp1126:
	.loc	11 104 9
	movq	%rcx, -104(%rbp)
Ltmp1127:
	.loc	10 326 9
	movq	%rcx, -96(%rbp)
Ltmp1128:
	.loc	39 1282 21
	movq	%rcx, -88(%rbp)
Ltmp1129:
	.loc	6 52 36
	movq	%rcx, -176(%rbp)
	.loc	6 52 18 is_stmt 0
	movq	-176(%rbp), %rax
	movq	%rax, -80(%rbp)
Ltmp1130:
	.loc	6 38 13 is_stmt 1
	movq	%rax, -72(%rbp)
Ltmp1131:
	.loc	6 215 33
	movq	%rax, -64(%rbp)
	.loc	6 215 18 is_stmt 0
	movq	%rax, -56(%rbp)
Ltmp1132:
	.loc	39 2645 63 is_stmt 1
	movq	16(%rdi), %rax
	movq	%rax, -48(%rbp)
Ltmp1133:
	.loc	34 145 45
	movq	%rcx, -40(%rbp)
	.loc	34 145 51 is_stmt 0
	movq	%rax, -32(%rbp)
Ltmp1134:
	.loc	4 766 24 is_stmt 1
	movq	%rcx, -24(%rbp)
Ltmp1135:
	.loc	6 60 9
	movq	%rcx, -16(%rbp)
Ltmp1136:
	.loc	4 766 37
	movq	%rax, -8(%rbp)
Ltmp1137:
	.loc	5 135 36
	movq	%rcx, -152(%rbp)
	movq	%rax, -144(%rbp)
	.loc	5 135 14 is_stmt 0
	movq	-152(%rbp), %rcx
	movq	-144(%rbp), %rax
	movq	%rcx, -168(%rbp)
	movq	%rax, -160(%rbp)
	movq	-168(%rbp), %rax
	movq	-160(%rbp), %rdx
Ltmp1138:
	.loc	39 2646 6 is_stmt 1
	addq	$176, %rsp
	popq	%rbp
	retq
Ltmp1139:
Lfunc_end164:
	.cfi_endproc

	.globl	__ZN77_$LT$alloc..raw_vec..RawVec$LT$T$C$A$GT$$u20$as$u20$core..ops..drop..Drop$GT$4drop17h00ae785361f8bdaaE
	.p2align	4, 0x90
__ZN77_$LT$alloc..raw_vec..RawVec$LT$T$C$A$GT$$u20$as$u20$core..ops..drop..Drop$GT$4drop17h00ae785361f8bdaaE:
Lfunc_begin165:
	.loc	40 477 0
	.cfi_startproc
	pushq	%rbp
	.cfi_def_cfa_offset 16
	.cfi_offset %rbp, -16
	movq	%rsp, %rbp
	.cfi_def_cfa_register %rbp
	subq	$64, %rsp
	movq	%rdi, %rsi
	movq	%rsi, -64(%rbp)
	movq	%rsi, -32(%rbp)
Ltmp1140:
	.loc	40 478 38 prologue_end
	leaq	-56(%rbp), %rdi
	callq	__ZN5alloc7raw_vec19RawVec$LT$T$C$A$GT$14current_memory17hd2ea2af661c2a9b2E
	.loc	40 478 16 is_stmt 0
	movl	$1, %eax
	xorl	%ecx, %ecx
	cmpq	$0, -40(%rbp)
	cmoveq	%rcx, %rax
	cmpq	$1, %rax
	jne	LBB165_2
	.loc	40 0 16
	movq	-64(%rbp), %rdi
	.loc	40 478 22
	movq	-56(%rbp), %rsi
	movq	%rsi, -24(%rbp)
	.loc	40 478 27
	movq	-48(%rbp), %rdx
	movq	-40(%rbp), %rcx
	movq	%rdx, -16(%rbp)
	movq	%rcx, -8(%rbp)
	.loc	40 479 22 is_stmt 1
	callq	__ZN63_$LT$alloc..alloc..Global$u20$as$u20$core..alloc..Allocator$GT$10deallocate17h9d5db1a0afe85f1bE
Ltmp1141:
LBB165_2:
	.loc	40 481 6
	addq	$64, %rsp
	popq	%rbp
	retq
Ltmp1142:
Lfunc_end165:
	.cfi_endproc

	.globl	__ZN77_$LT$alloc..raw_vec..RawVec$LT$T$C$A$GT$$u20$as$u20$core..ops..drop..Drop$GT$4drop17h4b104abade962f3dE
	.p2align	4, 0x90
__ZN77_$LT$alloc..raw_vec..RawVec$LT$T$C$A$GT$$u20$as$u20$core..ops..drop..Drop$GT$4drop17h4b104abade962f3dE:
Lfunc_begin166:
	.loc	40 477 0
	.cfi_startproc
	pushq	%rbp
	.cfi_def_cfa_offset 16
	.cfi_offset %rbp, -16
	movq	%rsp, %rbp
	.cfi_def_cfa_register %rbp
	subq	$64, %rsp
	movq	%rdi, %rsi
	movq	%rsi, -64(%rbp)
	movq	%rsi, -32(%rbp)
Ltmp1143:
	.loc	40 478 38 prologue_end
	leaq	-56(%rbp), %rdi
	callq	__ZN5alloc7raw_vec19RawVec$LT$T$C$A$GT$14current_memory17hd47e06a6ea9c63ddE
	.loc	40 478 16 is_stmt 0
	movl	$1, %eax
	xorl	%ecx, %ecx
	cmpq	$0, -40(%rbp)
	cmoveq	%rcx, %rax
	cmpq	$1, %rax
	jne	LBB166_2
	.loc	40 0 16
	movq	-64(%rbp), %rdi
	.loc	40 478 22
	movq	-56(%rbp), %rsi
	movq	%rsi, -24(%rbp)
	.loc	40 478 27
	movq	-48(%rbp), %rdx
	movq	-40(%rbp), %rcx
	movq	%rdx, -16(%rbp)
	movq	%rcx, -8(%rbp)
	.loc	40 479 22 is_stmt 1
	callq	__ZN63_$LT$alloc..alloc..Global$u20$as$u20$core..alloc..Allocator$GT$10deallocate17h9d5db1a0afe85f1bE
Ltmp1144:
LBB166_2:
	.loc	40 481 6
	addq	$64, %rsp
	popq	%rbp
	retq
Ltmp1145:
Lfunc_end166:
	.cfi_endproc

	.globl	__ZN91_$LT$core..slice..iter..Iter$LT$T$GT$$u20$as$u20$core..iter..traits..iterator..Iterator$GT$24__iterator_get_unchecked17hba0bed423a9fd018E
	.p2align	4, 0x90
__ZN91_$LT$core..slice..iter..Iter$LT$T$GT$$u20$as$u20$core..iter..traits..iterator..Iterator$GT$24__iterator_get_unchecked17hba0bed423a9fd018E:
Lfunc_begin167:
	.file	43 "/rustc/2c8cc343237b8f7d5a3c3703e3a87f2eb2c54a74/library/core/src/slice/iter" "macros.rs"
	.loc	43 319 0
	.cfi_startproc
	pushq	%rbp
	.cfi_def_cfa_offset 16
	.cfi_offset %rbp, -16
	movq	%rsp, %rbp
	.cfi_def_cfa_register %rbp
	subq	$64, %rsp
	movq	%rdi, -64(%rbp)
	movq	%rsi, -56(%rbp)
Ltmp1146:
	.loc	43 330 42 prologue_end
	movq	8(%rdi), %rax
	movq	%rax, -48(%rbp)
Ltmp1147:
	.loc	10 326 9
	movq	%rax, -40(%rbp)
Ltmp1148:
	.loc	43 330 64
	movq	%rsi, -32(%rbp)
Ltmp1149:
	.loc	6 1034 18
	movq	%rax, -24(%rbp)
	.loc	6 1034 30 is_stmt 0
	movq	%rsi, -16(%rbp)
Ltmp1150:
	.loc	6 487 18 is_stmt 1
	addq	%rsi, %rax
	movq	%rax, -8(%rbp)
	movq	-8(%rbp), %rax
Ltmp1151:
	.loc	43 331 14
	addq	$64, %rsp
	popq	%rbp
	retq
Ltmp1152:
Lfunc_end167:
	.cfi_endproc

	.globl	__ZN91_$LT$core..slice..iter..Iter$LT$T$GT$$u20$as$u20$core..iter..traits..iterator..Iterator$GT$4next17h0a3514bd3090dbbcE
	.p2align	4, 0x90
__ZN91_$LT$core..slice..iter..Iter$LT$T$GT$$u20$as$u20$core..iter..traits..iterator..Iterator$GT$4next17h0a3514bd3090dbbcE:
Lfunc_begin168:
	.loc	43 124 0
	.cfi_startproc
	pushq	%rbp
	.cfi_def_cfa_offset 16
	.cfi_offset %rbp, -16
	movq	%rsp, %rbp
	.cfi_def_cfa_register %rbp
	subq	$304, %rsp
	movq	%rdi, -304(%rbp)
	movq	%rdi, -240(%rbp)
Ltmp1153:
	.loc	43 132 29 prologue_end
	movq	8(%rdi), %rax
	movq	%rax, -224(%rbp)
Ltmp1154:
	.loc	10 326 9
	movq	%rax, -216(%rbp)
Ltmp1155:
	.loc	6 52 36
	movq	%rax, -280(%rbp)
	.loc	6 52 18 is_stmt 0
	movq	-280(%rbp), %rax
	movq	%rax, -208(%rbp)
Ltmp1156:
	.loc	6 38 13 is_stmt 1
	movq	%rax, -200(%rbp)
Ltmp1157:
	.loc	6 215 33
	movq	%rax, -192(%rbp)
	.loc	6 215 18 is_stmt 0
	movq	%rax, -184(%rbp)
Ltmp1158:
	.loc	43 133 24 is_stmt 1
	movb	$1, %al
	testb	$1, %al
	jne	LBB168_2
LBB168_1:
	.loc	43 0 24 is_stmt 0
	movq	-304(%rbp), %rcx
	.loc	43 136 24 is_stmt 1
	movq	8(%rcx), %rax
	movq	%rax, -136(%rbp)
	cmpq	(%rcx), %rax
	je	LBB168_4
	jmp	LBB168_3
LBB168_2:
	.loc	43 0 24 is_stmt 0
	movq	-304(%rbp), %rax
	.loc	43 134 33 is_stmt 1
	movq	(%rax), %rax
	movq	%rax, -176(%rbp)
Ltmp1159:
	.loc	3 53 36
	movq	%rax, -272(%rbp)
	.loc	3 53 18 is_stmt 0
	movq	-272(%rbp), %rax
	movq	%rax, -168(%rbp)
Ltmp1160:
	.loc	3 39 13 is_stmt 1
	movq	%rax, -160(%rbp)
Ltmp1161:
	.loc	3 209 33
	movq	%rax, -152(%rbp)
	.loc	3 209 18 is_stmt 0
	movq	%rax, -144(%rbp)
Ltmp1162:
	.loc	43 133 21 is_stmt 1
	jmp	LBB168_1
LBB168_3:
	.loc	43 0 21 is_stmt 0
	movq	-304(%rbp), %rax
	.loc	43 139 30 is_stmt 1
	movq	%rax, -128(%rbp)
Ltmp1163:
	.loc	43 76 20
	xorl	%eax, %eax
	testb	$1, %al
	jne	LBB168_6
	jmp	LBB168_7
Ltmp1164:
LBB168_4:
	.loc	43 137 25
	movq	$0, -296(%rbp)
LBB168_5:
	.loc	43 142 14
	movq	-296(%rbp), %rax
	addq	$304, %rsp
	popq	%rbp
	retq
LBB168_6:
	.loc	43 0 14 is_stmt 0
	movq	-304(%rbp), %rax
Ltmp1165:
	.loc	43 57 29 is_stmt 1
	movq	(%rax), %rcx
	movq	%rcx, -64(%rbp)
Ltmp1166:
	.loc	3 1198 9
	movq	%rcx, -56(%rbp)
Ltmp1167:
	.loc	3 61 9
	movq	%rcx, -48(%rbp)
Ltmp1168:
	.loc	3 1180 9
	movq	%rcx, -40(%rbp)
Ltmp1169:
	.loc	3 555 18
	addq	$-1, %rcx
	movq	%rcx, -32(%rbp)
	movq	-32(%rbp), %rcx
	movq	%rcx, -24(%rbp)
Ltmp1170:
	.loc	3 100 29
	movq	%rcx, -16(%rbp)
Ltmp1171:
	.loc	5 118 36
	movq	%rcx, -248(%rbp)
	.loc	5 118 14 is_stmt 0
	movq	-248(%rbp), %rcx
	movq	%rcx, -256(%rbp)
	movq	-256(%rbp), %rcx
Ltmp1172:
	.loc	43 57 17 is_stmt 1
	movq	%rcx, (%rax)
	.loc	43 78 21
	movq	8(%rax), %rax
	movq	%rax, -8(%rbp)
	movq	%rax, -288(%rbp)
	.loc	43 76 17
	jmp	LBB168_8
LBB168_7:
	.loc	43 0 17 is_stmt 0
	movq	-304(%rbp), %rcx
	.loc	43 80 31 is_stmt 1
	movq	8(%rcx), %rax
	movq	%rax, -120(%rbp)
Ltmp1173:
	.loc	10 326 9
	movq	%rax, -112(%rbp)
Ltmp1174:
	.loc	43 83 64
	movq	8(%rcx), %rdx
	movq	%rdx, -104(%rbp)
Ltmp1175:
	.loc	10 326 9
	movq	%rdx, -96(%rbp)
Ltmp1176:
	.loc	6 1034 18
	movq	%rdx, -88(%rbp)
Ltmp1177:
	.loc	6 487 18
	addq	$8, %rdx
	movq	%rdx, -80(%rbp)
	movq	-80(%rbp), %rdx
	movq	%rdx, -72(%rbp)
Ltmp1178:
	.loc	10 201 13
	movq	%rdx, -264(%rbp)
Ltmp1179:
	.loc	43 83 21
	movq	-264(%rbp), %rdx
	movq	%rdx, 8(%rcx)
	.loc	43 84 21
	movq	%rax, -288(%rbp)
Ltmp1180:
LBB168_8:
	.loc	43 139 30
	movq	-288(%rbp), %rax
	.loc	43 139 25 is_stmt 0
	movq	%rax, -296(%rbp)
	.loc	43 136 21 is_stmt 1
	jmp	LBB168_5
Ltmp1181:
Lfunc_end168:
	.cfi_endproc

	.globl	__ZN91_$LT$core..slice..iter..Iter$LT$T$GT$$u20$as$u20$core..iter..traits..iterator..Iterator$GT$4next17h61d9301de52fec21E
	.p2align	4, 0x90
__ZN91_$LT$core..slice..iter..Iter$LT$T$GT$$u20$as$u20$core..iter..traits..iterator..Iterator$GT$4next17h61d9301de52fec21E:
Lfunc_begin169:
	.loc	43 124 0
	.cfi_startproc
	pushq	%rbp
	.cfi_def_cfa_offset 16
	.cfi_offset %rbp, -16
	movq	%rsp, %rbp
	.cfi_def_cfa_register %rbp
	subq	$304, %rsp
	movq	%rdi, -304(%rbp)
	movq	%rdi, -240(%rbp)
Ltmp1182:
	.loc	43 132 29 prologue_end
	movq	8(%rdi), %rax
	movq	%rax, -224(%rbp)
Ltmp1183:
	.loc	10 326 9
	movq	%rax, -216(%rbp)
Ltmp1184:
	.loc	6 52 36
	movq	%rax, -280(%rbp)
	.loc	6 52 18 is_stmt 0
	movq	-280(%rbp), %rax
	movq	%rax, -208(%rbp)
Ltmp1185:
	.loc	6 38 13 is_stmt 1
	movq	%rax, -200(%rbp)
Ltmp1186:
	.loc	6 215 33
	movq	%rax, -192(%rbp)
	.loc	6 215 18 is_stmt 0
	movq	%rax, -184(%rbp)
Ltmp1187:
	.loc	43 133 24 is_stmt 1
	movb	$1, %al
	testb	$1, %al
	jne	LBB169_2
LBB169_1:
	.loc	43 0 24 is_stmt 0
	movq	-304(%rbp), %rcx
	.loc	43 136 24 is_stmt 1
	movq	8(%rcx), %rax
	movq	%rax, -136(%rbp)
	cmpq	(%rcx), %rax
	je	LBB169_4
	jmp	LBB169_3
LBB169_2:
	.loc	43 0 24 is_stmt 0
	movq	-304(%rbp), %rax
	.loc	43 134 33 is_stmt 1
	movq	(%rax), %rax
	movq	%rax, -176(%rbp)
Ltmp1188:
	.loc	3 53 36
	movq	%rax, -272(%rbp)
	.loc	3 53 18 is_stmt 0
	movq	-272(%rbp), %rax
	movq	%rax, -168(%rbp)
Ltmp1189:
	.loc	3 39 13 is_stmt 1
	movq	%rax, -160(%rbp)
Ltmp1190:
	.loc	3 209 33
	movq	%rax, -152(%rbp)
	.loc	3 209 18 is_stmt 0
	movq	%rax, -144(%rbp)
Ltmp1191:
	.loc	43 133 21 is_stmt 1
	jmp	LBB169_1
LBB169_3:
	.loc	43 0 21 is_stmt 0
	movq	-304(%rbp), %rax
	.loc	43 139 30 is_stmt 1
	movq	%rax, -128(%rbp)
Ltmp1192:
	.loc	43 76 20
	xorl	%eax, %eax
	testb	$1, %al
	jne	LBB169_6
	jmp	LBB169_7
Ltmp1193:
LBB169_4:
	.loc	43 137 25
	movq	$0, -296(%rbp)
LBB169_5:
	.loc	43 142 14
	movq	-296(%rbp), %rax
	addq	$304, %rsp
	popq	%rbp
	retq
LBB169_6:
	.loc	43 0 14 is_stmt 0
	movq	-304(%rbp), %rax
Ltmp1194:
	.loc	43 57 29 is_stmt 1
	movq	(%rax), %rcx
	movq	%rcx, -64(%rbp)
Ltmp1195:
	.loc	3 1198 9
	movq	%rcx, -56(%rbp)
Ltmp1196:
	.loc	3 61 9
	movq	%rcx, -48(%rbp)
Ltmp1197:
	.loc	3 1180 9
	movq	%rcx, -40(%rbp)
Ltmp1198:
	.loc	3 555 18
	addq	$-1, %rcx
	movq	%rcx, -32(%rbp)
	movq	-32(%rbp), %rcx
	movq	%rcx, -24(%rbp)
Ltmp1199:
	.loc	3 100 29
	movq	%rcx, -16(%rbp)
Ltmp1200:
	.loc	5 118 36
	movq	%rcx, -248(%rbp)
	.loc	5 118 14 is_stmt 0
	movq	-248(%rbp), %rcx
	movq	%rcx, -256(%rbp)
	movq	-256(%rbp), %rcx
Ltmp1201:
	.loc	43 57 17 is_stmt 1
	movq	%rcx, (%rax)
	.loc	43 78 21
	movq	8(%rax), %rax
	movq	%rax, -8(%rbp)
	movq	%rax, -288(%rbp)
	.loc	43 76 17
	jmp	LBB169_8
LBB169_7:
	.loc	43 0 17 is_stmt 0
	movq	-304(%rbp), %rcx
	.loc	43 80 31 is_stmt 1
	movq	8(%rcx), %rax
	movq	%rax, -120(%rbp)
Ltmp1202:
	.loc	10 326 9
	movq	%rax, -112(%rbp)
