	.section	__TEXT,__text,regular,pure_instructions
	.macosx_version_min 10, 7
	.file	1 "/Users/natalie/.cargo/registry/src/github.com-1ecc6299db9ec823/idna-0.3.0" "src/punycode.rs"
	.file	2 "/Users/natalie/.cargo/registry/src/github.com-1ecc6299db9ec823/idna-0.3.0" "src/uts46_mapping_table.rs"
	.globl	__ZN100_$LT$core..iter..adapters..fuse..Fuse$LT$I$GT$$u20$as$u20$core..iter..traits..iterator..Iterator$GT$4next17h9c1cc634d192aa1fE
	.p2align	4, 0x90
__ZN100_$LT$core..iter..adapters..fuse..Fuse$LT$I$GT$$u20$as$u20$core..iter..traits..iterator..Iterator$GT$4next17h9c1cc634d192aa1fE:
Lfunc_begin0:
	.file	3 "/rustc/2c8cc343237b8f7d5a3c3703e3a87f2eb2c54a74/library/core/src/iter/adapters" "fuse.rs"
	.loc	3 42 0
	.cfi_startproc
	pushq	%rbp
	.cfi_def_cfa_offset 16
	.cfi_offset %rbp, -16
	movq	%rsp, %rbp
	.cfi_def_cfa_register %rbp
	subq	$16, %rsp
	movq	%rdi, -8(%rbp)
Ltmp0:
	.loc	3 43 9 prologue_end
	callq	__ZN107_$LT$core..iter..adapters..fuse..Fuse$LT$I$GT$$u20$as$u20$core..iter..adapters..fuse..FuseImpl$LT$I$GT$$GT$4next17h0a6ff135d6603ab7E
	.loc	3 44 6
	addq	$16, %rsp
	popq	%rbp
	retq
Ltmp1:
Lfunc_end0:
	.cfi_endproc

	.globl	__ZN100_$LT$core..iter..adapters..fuse..Fuse$LT$I$GT$$u20$as$u20$core..iter..traits..iterator..Iterator$GT$4next17hfe6c0f80766c34b7E
	.p2align	4, 0x90
__ZN100_$LT$core..iter..adapters..fuse..Fuse$LT$I$GT$$u20$as$u20$core..iter..traits..iterator..Iterator$GT$4next17hfe6c0f80766c34b7E:
Lfunc_begin1:
	.loc	3 42 0
	.cfi_startproc
	pushq	%rbp
	.cfi_def_cfa_offset 16
	.cfi_offset %rbp, -16
	movq	%rsp, %rbp
	.cfi_def_cfa_register %rbp
	subq	$16, %rsp
	movq	%rdi, -8(%rbp)
Ltmp2:
	.loc	3 43 9 prologue_end
	callq	__ZN107_$LT$core..iter..adapters..fuse..Fuse$LT$I$GT$$u20$as$u20$core..iter..adapters..fuse..FuseImpl$LT$I$GT$$GT$4next17h011d0191f46fc532E
	.loc	3 44 6
	addq	$16, %rsp
	popq	%rbp
	retq
Ltmp3:
Lfunc_end1:
	.cfi_endproc

	.globl	__ZN102_$LT$$RF$mut$u20$alloc..vec..Vec$LT$T$C$A$GT$$u20$as$u20$core..iter..traits..collect..IntoIterator$GT$9into_iter17h5403ae3abf1b29b1E
	.p2align	4, 0x90
__ZN102_$LT$$RF$mut$u20$alloc..vec..Vec$LT$T$C$A$GT$$u20$as$u20$core..iter..traits..collect..IntoIterator$GT$9into_iter17h5403ae3abf1b29b1E:
Lfunc_begin2:
	.file	4 "/rustc/2c8cc343237b8f7d5a3c3703e3a87f2eb2c54a74/library/alloc/src/vec" "mod.rs"
	.loc	4 2817 0
	.cfi_startproc
	pushq	%rbp
	.cfi_def_cfa_offset 16
	.cfi_offset %rbp, -16
	movq	%rsp, %rbp
	.cfi_def_cfa_register %rbp
	subq	$32, %rsp
	movq	%rdi, -24(%rbp)
Ltmp4:
	.loc	4 2818 9 prologue_end
	callq	__ZN75_$LT$alloc..vec..Vec$LT$T$C$A$GT$$u20$as$u20$core..ops..deref..DerefMut$GT$9deref_mut17h1da72a6d062537acE
	movq	%rax, %rdi
	movq	%rdx, %rsi
	movq	%rdi, -16(%rbp)
	movq	%rsi, -8(%rbp)
Ltmp5:
	.file	5 "/rustc/2c8cc343237b8f7d5a3c3703e3a87f2eb2c54a74/library/core/src/slice" "mod.rs"
	.loc	5 761 9
	callq	__ZN4core5slice4iter16IterMut$LT$T$GT$3new17h0ac738b36208282dE
Ltmp6:
	.loc	4 2819 6
	addq	$32, %rsp
	popq	%rbp
	retq
Ltmp7:
Lfunc_end2:
	.cfi_endproc

	.globl	__ZN102_$LT$core..iter..adapters..map..Map$LT$I$C$F$GT$$u20$as$u20$core..iter..traits..iterator..Iterator$GT$4fold17h0cc38df47df94049E
	.p2align	4, 0x90
__ZN102_$LT$core..iter..adapters..map..Map$LT$I$C$F$GT$$u20$as$u20$core..iter..traits..iterator..Iterator$GT$4fold17h0cc38df47df94049E:
Lfunc_begin3:
	.file	6 "/rustc/2c8cc343237b8f7d5a3c3703e3a87f2eb2c54a74/library/core/src/iter/adapters" "map.rs"
	.loc	6 120 0
	.cfi_startproc
	.cfi_personality 155, _rust_eh_personality
	.cfi_lsda 16, Lexception0
	pushq	%rbp
	.cfi_def_cfa_offset 16
	.cfi_offset %rbp, -16
	movq	%rsp, %rbp
	.cfi_def_cfa_register %rbp
	subq	$80, %rsp
	movq	%rdi, -72(%rbp)
	movq	%rsi, -64(%rbp)
	movq	%rdi, -48(%rbp)
	movq	%rsi, -40(%rbp)
Ltmp13:
	.loc	6 124 9 prologue_end
	movb	$1, -49(%rbp)
	.loc	6 124 24 is_stmt 0
	movb	$1, -50(%rbp)
Ltmp8:
	.loc	6 124 30
	callq	__ZN4core4iter8adapters3map8map_fold17hbf5364a835e6009eE
Ltmp9:
	jmp	LBB3_3
LBB3_1:
	.loc	6 124 49
	testb	$1, -50(%rbp)
	jne	LBB3_6
	jmp	LBB3_5
LBB3_2:
Ltmp12:
	.loc	6 0 49
	movq	%rax, %rcx
	movl	%edx, %eax
	movq	%rcx, -16(%rbp)
	movl	%eax, -8(%rbp)
	jmp	LBB3_1
LBB3_3:
	movq	-64(%rbp), %rsi
	movq	-72(%rbp), %rdi
	.loc	6 124 9
	movb	$0, -49(%rbp)
	movb	$0, -50(%rbp)
Ltmp10:
	callq	__ZN4core4iter6traits8iterator8Iterator4fold17h36908919fbe4c3b7E
Ltmp11:
	jmp	LBB3_4
LBB3_4:
	.loc	6 125 6 is_stmt 1
	addq	$80, %rsp
	popq	%rbp
	retq
LBB3_5:
	.loc	6 124 49
	testb	$1, -49(%rbp)
	jne	LBB3_8
	jmp	LBB3_7
LBB3_6:
	jmp	LBB3_5
LBB3_7:
	.loc	6 120 5
	movq	-16(%rbp), %rdi
	callq	__Unwind_Resume
LBB3_8:
	.loc	6 124 49
	jmp	LBB3_7
Ltmp14:
Lfunc_end3:
	.cfi_endproc
	.section	__TEXT,__gcc_except_tab
	.p2align	2
GCC_except_table3:
Lexception0:
	.byte	255
	.byte	255
	.byte	1
	.uleb128 Lcst_end0-Lcst_begin0
Lcst_begin0:
	.uleb128 Ltmp8-Lfunc_begin3
	.uleb128 Ltmp11-Ltmp8
	.uleb128 Ltmp12-Lfunc_begin3
	.byte	0
	.uleb128 Ltmp11-Lfunc_begin3
	.uleb128 Lfunc_end3-Ltmp11
	.byte	0
	.byte	0
Lcst_end0:
	.p2align	2

	.section	__TEXT,__text,regular,pure_instructions
	.globl	__ZN102_$LT$core..iter..adapters..map..Map$LT$I$C$F$GT$$u20$as$u20$core..iter..traits..iterator..Iterator$GT$4fold17h58ef967b5f9ee07aE
	.p2align	4, 0x90
__ZN102_$LT$core..iter..adapters..map..Map$LT$I$C$F$GT$$u20$as$u20$core..iter..traits..iterator..Iterator$GT$4fold17h58ef967b5f9ee07aE:
Lfunc_begin4:
	.loc	6 120 0
	.cfi_startproc
	.cfi_personality 155, _rust_eh_personality
	.cfi_lsda 16, Lexception1
	pushq	%rbp
	.cfi_def_cfa_offset 16
	.cfi_offset %rbp, -16
	movq	%rsp, %rbp
	.cfi_def_cfa_register %rbp
	subq	$112, %rsp
	movq	%rdi, -112(%rbp)
	movq	%rsi, -104(%rbp)
Ltmp20:
	movq	%rdi, -40(%rbp)
	movq	%rsi, -32(%rbp)
Ltmp21:
	.loc	6 124 9 prologue_end
	movb	$1, -41(%rbp)
	.loc	6 124 24 is_stmt 0
	movb	$1, -42(%rbp)
	.loc	6 124 47
	movq	16(%rdx), %rax
	movq	%rax, -56(%rbp)
	movq	(%rdx), %rax
	movq	8(%rdx), %rcx
	movq	%rcx, -64(%rbp)
	movq	%rax, -72(%rbp)
Ltmp15:
	leaq	-96(%rbp), %rdi
	leaq	-72(%rbp), %rsi
	.loc	6 124 30
	callq	__ZN4core4iter8adapters3map8map_fold17h54d6b89e2af16203E
Ltmp22:
Ltmp16:
	jmp	LBB4_3
Ltmp23:
LBB4_1:
	.loc	6 124 49
	testb	$1, -42(%rbp)
	jne	LBB4_6
	jmp	LBB4_5
Ltmp24:
LBB4_2:
Ltmp19:
	.loc	6 0 49
	movq	%rax, %rcx
	movl	%edx, %eax
	movq	%rcx, -16(%rbp)
	movl	%eax, -8(%rbp)
	jmp	LBB4_1
Ltmp25:
LBB4_3:
	movq	-104(%rbp), %rsi
	movq	-112(%rbp), %rdi
	.loc	6 124 9
	movb	$0, -41(%rbp)
	movb	$0, -42(%rbp)
Ltmp17:
	leaq	-96(%rbp), %rdx
	callq	__ZN4core4iter6traits8iterator8Iterator4fold17h0118d8a9f8b70162E
Ltmp18:
	jmp	LBB4_4
Ltmp26:
LBB4_4:
	.loc	6 125 6 is_stmt 1
	addq	$112, %rsp
	popq	%rbp
	retq
Ltmp27:
LBB4_5:
	.loc	6 124 49
	testb	$1, -41(%rbp)
	jne	LBB4_8
	jmp	LBB4_7
Ltmp28:
LBB4_6:
	jmp	LBB4_5
Ltmp29:
LBB4_7:
	.loc	6 120 5
	movq	-16(%rbp), %rdi
	callq	__Unwind_Resume
Ltmp30:
LBB4_8:
	.loc	6 124 49
	jmp	LBB4_7
Ltmp31:
Lfunc_end4:
	.cfi_endproc
	.section	__TEXT,__gcc_except_tab
	.p2align	2
GCC_except_table4:
Lexception1:
	.byte	255
	.byte	255
	.byte	1
	.uleb128 Lcst_end1-Lcst_begin1
Lcst_begin1:
	.uleb128 Ltmp15-Lfunc_begin4
	.uleb128 Ltmp18-Ltmp15
	.uleb128 Ltmp19-Lfunc_begin4
	.byte	0
	.uleb128 Ltmp18-Lfunc_begin4
	.uleb128 Lfunc_end4-Ltmp18
	.byte	0
	.byte	0
Lcst_end1:
	.p2align	2

	.section	__TEXT,__text,regular,pure_instructions
	.globl	__ZN102_$LT$core..iter..adapters..map..Map$LT$I$C$F$GT$$u20$as$u20$core..iter..traits..iterator..Iterator$GT$4fold17h667e83f465ad149aE
	.p2align	4, 0x90
__ZN102_$LT$core..iter..adapters..map..Map$LT$I$C$F$GT$$u20$as$u20$core..iter..traits..iterator..Iterator$GT$4fold17h667e83f465ad149aE:
Lfunc_begin5:
	.loc	6 120 0
	.cfi_startproc
	.cfi_personality 155, _rust_eh_personality
	.cfi_lsda 16, Lexception2
	pushq	%rbp
	.cfi_def_cfa_offset 16
	.cfi_offset %rbp, -16
	movq	%rsp, %rbp
	.cfi_def_cfa_register %rbp
	subq	$112, %rsp
	movq	%rcx, -96(%rbp)
	movq	%rdi, %rax
	movq	-96(%rbp), %rdi
	movq	%rax, -88(%rbp)
	movq	%rsi, -80(%rbp)
	movl	%edx, -68(%rbp)
	movq	%rax, -48(%rbp)
	movq	%rsi, -40(%rbp)
	movl	%edx, -28(%rbp)
	movq	%rdi, -24(%rbp)
Ltmp37:
	.loc	6 124 9 prologue_end
	movb	$1, -49(%rbp)
	.loc	6 124 24 is_stmt 0
	movb	$1, -50(%rbp)
Ltmp32:
	.loc	6 124 30
	callq	__ZN4core4iter8adapters3map8map_fold17h3b5e1b0d86c615dfE
Ltmp33:
	movq	%rax, -64(%rbp)
	jmp	LBB5_3
LBB5_1:
	.loc	6 124 49
	testb	$1, -50(%rbp)
	jne	LBB5_6
	jmp	LBB5_5
LBB5_2:
Ltmp36:
	.loc	6 0 49
	movq	%rax, %rcx
	movl	%edx, %eax
	movq	%rcx, -16(%rbp)
	movl	%eax, -8(%rbp)
	jmp	LBB5_1
LBB5_3:
	movq	-64(%rbp), %rcx
	movl	-68(%rbp), %edx
	movq	-80(%rbp), %rsi
	movq	-88(%rbp), %rdi
	.loc	6 124 9
	movb	$0, -49(%rbp)
	movb	$0, -50(%rbp)
Ltmp34:
	callq	__ZN4core4iter6traits8iterator8Iterator4fold17hefd1feec28762778E
Ltmp35:
	movl	%eax, -100(%rbp)
	jmp	LBB5_4
LBB5_4:
	.loc	6 0 9
	movl	-100(%rbp), %eax
	.loc	6 125 6 is_stmt 1
	addq	$112, %rsp
	popq	%rbp
	retq
LBB5_5:
	.loc	6 124 49
	testb	$1, -49(%rbp)
	jne	LBB5_8
	jmp	LBB5_7
LBB5_6:
	jmp	LBB5_5
LBB5_7:
	.loc	6 120 5
	movq	-16(%rbp), %rdi
	callq	__Unwind_Resume
LBB5_8:
	.loc	6 124 49
	jmp	LBB5_7
Ltmp38:
Lfunc_end5:
	.cfi_endproc
	.section	__TEXT,__gcc_except_tab
	.p2align	2
GCC_except_table5:
Lexception2:
	.byte	255
	.byte	255
	.byte	1
	.uleb128 Lcst_end2-Lcst_begin2
Lcst_begin2:
	.uleb128 Ltmp32-Lfunc_begin5
	.uleb128 Ltmp35-Ltmp32
	.uleb128 Ltmp36-Lfunc_begin5
	.byte	0
	.uleb128 Ltmp35-Lfunc_begin5
	.uleb128 Lfunc_end5-Ltmp35
	.byte	0
	.byte	0
Lcst_end2:
	.p2align	2

	.section	__TEXT,__text,regular,pure_instructions
	.globl	__ZN102_$LT$core..iter..adapters..map..Map$LT$I$C$F$GT$$u20$as$u20$core..iter..traits..iterator..Iterator$GT$4fold17hbe7dde1eff9bbd18E
	.p2align	4, 0x90
__ZN102_$LT$core..iter..adapters..map..Map$LT$I$C$F$GT$$u20$as$u20$core..iter..traits..iterator..Iterator$GT$4fold17hbe7dde1eff9bbd18E:
Lfunc_begin6:
	.loc	6 120 0
	.cfi_startproc
	.cfi_personality 155, _rust_eh_personality
	.cfi_lsda 16, Lexception3
	pushq	%rbp
	.cfi_def_cfa_offset 16
	.cfi_offset %rbp, -16
	movq	%rsp, %rbp
	.cfi_def_cfa_register %rbp
	subq	$80, %rsp
	movq	%rdi, -72(%rbp)
	movq	%rsi, -64(%rbp)
	movq	%rdi, -48(%rbp)
	movq	%rsi, -40(%rbp)
Ltmp44:
	.loc	6 124 9 prologue_end
	movb	$1, -49(%rbp)
	.loc	6 124 24 is_stmt 0
	movb	$1, -50(%rbp)
Ltmp39:
	.loc	6 124 30
	callq	__ZN4core4iter8adapters3map8map_fold17heda5fb6a3677a4b6E
Ltmp40:
	jmp	LBB6_3
LBB6_1:
	.loc	6 124 49
	testb	$1, -50(%rbp)
	jne	LBB6_6
	jmp	LBB6_5
LBB6_2:
Ltmp43:
	.loc	6 0 49
	movq	%rax, %rcx
	movl	%edx, %eax
	movq	%rcx, -16(%rbp)
	movl	%eax, -8(%rbp)
	jmp	LBB6_1
LBB6_3:
	movq	-64(%rbp), %rsi
	movq	-72(%rbp), %rdi
	.loc	6 124 9
	movb	$0, -49(%rbp)
	movb	$0, -50(%rbp)
Ltmp41:
	callq	__ZN4core4iter6traits8iterator8Iterator4fold17he242f7c65a74d1e0E
Ltmp42:
	jmp	LBB6_4
LBB6_4:
	.loc	6 125 6 is_stmt 1
	addq	$80, %rsp
	popq	%rbp
	retq
LBB6_5:
	.loc	6 124 49
	testb	$1, -49(%rbp)
	jne	LBB6_8
	jmp	LBB6_7
LBB6_6:
	jmp	LBB6_5
LBB6_7:
	.loc	6 120 5
	movq	-16(%rbp), %rdi
	callq	__Unwind_Resume
LBB6_8:
	.loc	6 124 49
	jmp	LBB6_7
Ltmp45:
Lfunc_end6:
	.cfi_endproc
	.section	__TEXT,__gcc_except_tab
	.p2align	2
GCC_except_table6:
Lexception3:
	.byte	255
	.byte	255
	.byte	1
	.uleb128 Lcst_end3-Lcst_begin3
Lcst_begin3:
	.uleb128 Ltmp39-Lfunc_begin6
	.uleb128 Ltmp42-Ltmp39
	.uleb128 Ltmp43-Lfunc_begin6
	.byte	0
	.uleb128 Ltmp42-Lfunc_begin6
	.uleb128 Lfunc_end6-Ltmp42
	.byte	0
	.byte	0
Lcst_end3:
	.p2align	2

	.section	__TEXT,__text,regular,pure_instructions
	.globl	__ZN102_$LT$core..iter..adapters..map..Map$LT$I$C$F$GT$$u20$as$u20$core..iter..traits..iterator..Iterator$GT$4fold17hc2d2c8ae3454469aE
	.p2align	4, 0x90
__ZN102_$LT$core..iter..adapters..map..Map$LT$I$C$F$GT$$u20$as$u20$core..iter..traits..iterator..Iterator$GT$4fold17hc2d2c8ae3454469aE:
Lfunc_begin7:
	.loc	6 120 0
	.cfi_startproc
	.cfi_personality 155, _rust_eh_personality
	.cfi_lsda 16, Lexception4
	pushq	%rbp
	.cfi_def_cfa_offset 16
	.cfi_offset %rbp, -16
	movq	%rsp, %rbp
	.cfi_def_cfa_register %rbp
	subq	$112, %rsp
	movq	%rcx, -96(%rbp)
	movq	%rdi, %rax
	movq	-96(%rbp), %rdi
	movq	%rax, -88(%rbp)
	movq	%rsi, -80(%rbp)
	movl	%edx, -68(%rbp)
	movq	%rax, -48(%rbp)
	movq	%rsi, -40(%rbp)
	movl	%edx, -28(%rbp)
	movq	%rdi, -24(%rbp)
Ltmp51:
	.loc	6 124 9 prologue_end
	movb	$1, -49(%rbp)
	.loc	6 124 24 is_stmt 0
	movb	$1, -50(%rbp)
Ltmp46:
	.loc	6 124 30
	callq	__ZN4core4iter8adapters3map8map_fold17h43b6727e0254a927E
Ltmp47:
	movq	%rax, -64(%rbp)
	jmp	LBB7_3
LBB7_1:
	.loc	6 124 49
	testb	$1, -50(%rbp)
	jne	LBB7_6
	jmp	LBB7_5
LBB7_2:
Ltmp50:
	.loc	6 0 49
	movq	%rax, %rcx
	movl	%edx, %eax
	movq	%rcx, -16(%rbp)
	movl	%eax, -8(%rbp)
	jmp	LBB7_1
LBB7_3:
	movq	-64(%rbp), %rcx
	movl	-68(%rbp), %edx
	movq	-80(%rbp), %rsi
	movq	-88(%rbp), %rdi
	.loc	6 124 9
	movb	$0, -49(%rbp)
	movb	$0, -50(%rbp)
Ltmp48:
	callq	__ZN104_$LT$core..iter..adapters..copied..Copied$LT$I$GT$$u20$as$u20$core..iter..traits..iterator..Iterator$GT$4fold17h4a73a4f873ac2212E
Ltmp49:
	movl	%eax, -100(%rbp)
	jmp	LBB7_4
LBB7_4:
	.loc	6 0 9
	movl	-100(%rbp), %eax
	.loc	6 125 6 is_stmt 1
	addq	$112, %rsp
	popq	%rbp
	retq
LBB7_5:
	.loc	6 124 49
	testb	$1, -49(%rbp)
	jne	LBB7_8
	jmp	LBB7_7
LBB7_6:
	jmp	LBB7_5
LBB7_7:
	.loc	6 120 5
	movq	-16(%rbp), %rdi
	callq	__Unwind_Resume
LBB7_8:
	.loc	6 124 49
	jmp	LBB7_7
Ltmp52:
Lfunc_end7:
	.cfi_endproc
	.section	__TEXT,__gcc_except_tab
	.p2align	2
GCC_except_table7:
Lexception4:
	.byte	255
	.byte	255
	.byte	1
	.uleb128 Lcst_end4-Lcst_begin4
Lcst_begin4:
	.uleb128 Ltmp46-Lfunc_begin7
	.uleb128 Ltmp49-Ltmp46
	.uleb128 Ltmp50-Lfunc_begin7
	.byte	0
	.uleb128 Ltmp49-Lfunc_begin7
	.uleb128 Lfunc_end7-Ltmp49
	.byte	0
	.byte	0
Lcst_end4:
	.p2align	2

	.section	__TEXT,__text,regular,pure_instructions
	.globl	__ZN102_$LT$core..iter..adapters..map..Map$LT$I$C$F$GT$$u20$as$u20$core..iter..traits..iterator..Iterator$GT$4fold17he73754249bf47952E
	.p2align	4, 0x90
__ZN102_$LT$core..iter..adapters..map..Map$LT$I$C$F$GT$$u20$as$u20$core..iter..traits..iterator..Iterator$GT$4fold17he73754249bf47952E:
Lfunc_begin8:
	.loc	6 120 0
	.cfi_startproc
	.cfi_personality 155, _rust_eh_personality
	.cfi_lsda 16, Lexception5
	pushq	%rbp
	.cfi_def_cfa_offset 16
	.cfi_offset %rbp, -16
	movq	%rsp, %rbp
	.cfi_def_cfa_register %rbp
	subq	$112, %rsp
	movq	%rdi, -112(%rbp)
	movq	%rsi, -104(%rbp)
Ltmp58:
	movq	%rdi, -40(%rbp)
	movq	%rsi, -32(%rbp)
Ltmp59:
	.loc	6 124 9 prologue_end
	movb	$1, -41(%rbp)
	.loc	6 124 24 is_stmt 0
	movb	$1, -42(%rbp)
	.loc	6 124 47
	movq	16(%rdx), %rax
	movq	%rax, -56(%rbp)
	movq	(%rdx), %rax
	movq	8(%rdx), %rcx
	movq	%rcx, -64(%rbp)
	movq	%rax, -72(%rbp)
Ltmp53:
	leaq	-96(%rbp), %rdi
	leaq	-72(%rbp), %rsi
	.loc	6 124 30
	callq	__ZN4core4iter8adapters3map8map_fold17h7941245a2d3a16d6E
Ltmp60:
Ltmp54:
	jmp	LBB8_3
Ltmp61:
LBB8_1:
	.loc	6 124 49
	testb	$1, -42(%rbp)
	jne	LBB8_6
	jmp	LBB8_5
Ltmp62:
LBB8_2:
Ltmp57:
	.loc	6 0 49
	movq	%rax, %rcx
	movl	%edx, %eax
	movq	%rcx, -16(%rbp)
	movl	%eax, -8(%rbp)
	jmp	LBB8_1
Ltmp63:
LBB8_3:
	movq	-104(%rbp), %rsi
	movq	-112(%rbp), %rdi
	.loc	6 124 9
	movb	$0, -41(%rbp)
	movb	$0, -42(%rbp)
Ltmp55:
	leaq	-96(%rbp), %rdx
	callq	__ZN4core4iter6traits8iterator8Iterator4fold17h03649715a385bbe2E
Ltmp56:
	jmp	LBB8_4
Ltmp64:
LBB8_4:
	.loc	6 125 6 is_stmt 1
	addq	$112, %rsp
	popq	%rbp
	retq
Ltmp65:
LBB8_5:
	.loc	6 124 49
	testb	$1, -41(%rbp)
	jne	LBB8_8
	jmp	LBB8_7
Ltmp66:
LBB8_6:
	jmp	LBB8_5
Ltmp67:
LBB8_7:
	.loc	6 120 5
	movq	-16(%rbp), %rdi
	callq	__Unwind_Resume
Ltmp68:
LBB8_8:
	.loc	6 124 49
	jmp	LBB8_7
Ltmp69:
Lfunc_end8:
	.cfi_endproc
	.section	__TEXT,__gcc_except_tab
	.p2align	2
GCC_except_table8:
Lexception5:
	.byte	255
	.byte	255
	.byte	1
	.uleb128 Lcst_end5-Lcst_begin5
Lcst_begin5:
	.uleb128 Ltmp53-Lfunc_begin8
	.uleb128 Ltmp56-Ltmp53
	.uleb128 Ltmp57-Lfunc_begin8
	.byte	0
	.uleb128 Ltmp56-Lfunc_begin8
	.uleb128 Lfunc_end8-Ltmp56
	.byte	0
	.byte	0
Lcst_end5:
	.p2align	2

	.section	__TEXT,__text,regular,pure_instructions
	.globl	__ZN102_$LT$core..iter..adapters..map..Map$LT$I$C$F$GT$$u20$as$u20$core..iter..traits..iterator..Iterator$GT$8try_fold17h0726d1e04b2cfb8cE
	.p2align	4, 0x90
__ZN102_$LT$core..iter..adapters..map..Map$LT$I$C$F$GT$$u20$as$u20$core..iter..traits..iterator..Iterator$GT$8try_fold17h0726d1e04b2cfb8cE:
Lfunc_begin9:
	.loc	6 111 0
	.cfi_startproc
	.cfi_personality 155, _rust_eh_personality
	.cfi_lsda 16, Lexception6
	pushq	%rbp
	.cfi_def_cfa_offset 16
	.cfi_offset %rbp, -16
	movq	%rsp, %rbp
	.cfi_def_cfa_register %rbp
	subq	$80, %rsp
	movq	%rdi, -72(%rbp)
	movq	%rdi, -40(%rbp)
	movq	%rsi, -24(%rbp)
Ltmp75:
	.loc	6 117 28 prologue_end
	movb	$1, -41(%rbp)
Ltmp70:
	.loc	6 117 34 is_stmt 0
	callq	__ZN4core4iter8adapters3map12map_try_fold17hf7f7b9bd2c97aa4bE
Ltmp71:
	movq	%rdx, -64(%rbp)
	movq	%rax, -56(%rbp)
	jmp	LBB9_3
LBB9_1:
	.loc	6 117 62
	testb	$1, -41(%rbp)
	jne	LBB9_6
	jmp	LBB9_5
LBB9_2:
Ltmp74:
	.loc	6 0 62
	movq	%rax, %rcx
	movl	%edx, %eax
	movq	%rcx, -16(%rbp)
	movl	%eax, -8(%rbp)
	jmp	LBB9_1
LBB9_3:
	movq	-64(%rbp), %rdx
	movq	-56(%rbp), %rsi
	movq	-72(%rbp), %rdi
	.loc	6 117 9
	movb	$0, -41(%rbp)
Ltmp72:
	callq	__ZN4core4iter6traits8iterator8Iterator8try_fold17h4c93caa3779c82bcE
Ltmp73:
	movl	%edx, -80(%rbp)
	movl	%eax, -76(%rbp)
	jmp	LBB9_4
LBB9_4:
	.loc	6 0 9
	movl	-80(%rbp), %edx
	movl	-76(%rbp), %eax
	.loc	6 118 6 is_stmt 1
	addq	$80, %rsp
	popq	%rbp
	retq
LBB9_5:
	.loc	6 111 5
	movq	-16(%rbp), %rdi
	callq	__Unwind_Resume
LBB9_6:
	.loc	6 117 62
	jmp	LBB9_5
Ltmp76:
Lfunc_end9:
	.cfi_endproc
	.section	__TEXT,__gcc_except_tab
	.p2align	2
GCC_except_table9:
Lexception6:
	.byte	255
	.byte	255
	.byte	1
	.uleb128 Lcst_end6-Lcst_begin6
Lcst_begin6:
	.uleb128 Ltmp70-Lfunc_begin9
	.uleb128 Ltmp73-Ltmp70
	.uleb128 Ltmp74-Lfunc_begin9
	.byte	0
	.uleb128 Ltmp73-Lfunc_begin9
	.uleb128 Lfunc_end9-Ltmp73
	.byte	0
	.byte	0
Lcst_end6:
	.p2align	2

	.section	__TEXT,__text,regular,pure_instructions
	.globl	__ZN102_$LT$core..iter..adapters..map..Map$LT$I$C$F$GT$$u20$as$u20$core..iter..traits..iterator..Iterator$GT$8try_fold17h411060ed28ac5881E
	.p2align	4, 0x90
__ZN102_$LT$core..iter..adapters..map..Map$LT$I$C$F$GT$$u20$as$u20$core..iter..traits..iterator..Iterator$GT$8try_fold17h411060ed28ac5881E:
Lfunc_begin10:
	.loc	6 111 0
	.cfi_startproc
	.cfi_personality 155, _rust_eh_personality
	.cfi_lsda 16, Lexception7
	pushq	%rbp
	.cfi_def_cfa_offset 16
	.cfi_offset %rbp, -16
	movq	%rsp, %rbp
	.cfi_def_cfa_register %rbp
	subq	$80, %rsp
	movq	%rdi, -72(%rbp)
	movq	%rdi, -40(%rbp)
	movq	%rsi, -24(%rbp)
Ltmp82:
	.loc	6 117 28 prologue_end
	movb	$1, -41(%rbp)
Ltmp77:
	.loc	6 117 34 is_stmt 0
	callq	__ZN4core4iter8adapters3map12map_try_fold17hf7ce2a879e04fcd4E
Ltmp78:
	movq	%rdx, -64(%rbp)
	movq	%rax, -56(%rbp)
	jmp	LBB10_3
LBB10_1:
	.loc	6 117 62
	testb	$1, -41(%rbp)
	jne	LBB10_6
	jmp	LBB10_5
LBB10_2:
Ltmp81:
	.loc	6 0 62
	movq	%rax, %rcx
	movl	%edx, %eax
	movq	%rcx, -16(%rbp)
	movl	%eax, -8(%rbp)
	jmp	LBB10_1
LBB10_3:
	movq	-64(%rbp), %rdx
	movq	-56(%rbp), %rsi
	movq	-72(%rbp), %rdi
	.loc	6 117 9
	movb	$0, -41(%rbp)
Ltmp79:
	callq	__ZN104_$LT$core..iter..adapters..copied..Copied$LT$I$GT$$u20$as$u20$core..iter..traits..iterator..Iterator$GT$8try_fold17hc72573fca0c26616E
Ltmp80:
	movl	%edx, -80(%rbp)
	movl	%eax, -76(%rbp)
	jmp	LBB10_4
LBB10_4:
	.loc	6 0 9
	movl	-80(%rbp), %edx
	movl	-76(%rbp), %eax
	.loc	6 118 6 is_stmt 1
	addq	$80, %rsp
	popq	%rbp
	retq
LBB10_5:
	.loc	6 111 5
	movq	-16(%rbp), %rdi
	callq	__Unwind_Resume
LBB10_6:
	.loc	6 117 62
	jmp	LBB10_5
Ltmp83:
Lfunc_end10:
	.cfi_endproc
	.section	__TEXT,__gcc_except_tab
	.p2align	2
GCC_except_table10:
Lexception7:
	.byte	255
	.byte	255
	.byte	1
	.uleb128 Lcst_end7-Lcst_begin7
Lcst_begin7:
	.uleb128 Ltmp77-Lfunc_begin10
	.uleb128 Ltmp80-Ltmp77
	.uleb128 Ltmp81-Lfunc_begin10
	.byte	0
	.uleb128 Ltmp80-Lfunc_begin10
	.uleb128 Lfunc_end10-Ltmp80
	.byte	0
	.byte	0
Lcst_end7:
	.p2align	2

	.section	__TEXT,__text,regular,pure_instructions
	.globl	__ZN102_$LT$core..iter..adapters..map..Map$LT$I$C$F$GT$$u20$as$u20$core..iter..traits..iterator..Iterator$GT$9size_hint17h467ab2aa32d1f76eE
	.p2align	4, 0x90
__ZN102_$LT$core..iter..adapters..map..Map$LT$I$C$F$GT$$u20$as$u20$core..iter..traits..iterator..Iterator$GT$9size_hint17h467ab2aa32d1f76eE:
Lfunc_begin11:
	.loc	6 107 0
	.cfi_startproc
	pushq	%rbp
	.cfi_def_cfa_offset 16
	.cfi_offset %rbp, -16
	movq	%rsp, %rbp
	.cfi_def_cfa_register %rbp
	subq	$16, %rsp
	movq	%rdi, %rax
	movq	%rax, -16(%rbp)
	movq	%rsi, -8(%rbp)
Ltmp84:
	.loc	6 108 9 prologue_end
	callq	__ZN94_$LT$core..slice..iter..IterMut$LT$T$GT$$u20$as$u20$core..iter..traits..iterator..Iterator$GT$9size_hint17h774a72d47e7ebc03E
	movq	-16(%rbp), %rax
	.loc	6 109 6
	addq	$16, %rsp
	popq	%rbp
	retq
Ltmp85:
Lfunc_end11:
	.cfi_endproc

	.globl	__ZN102_$LT$core..iter..adapters..map..Map$LT$I$C$F$GT$$u20$as$u20$core..iter..traits..iterator..Iterator$GT$9size_hint17hdc551fa58d2ca69dE
	.p2align	4, 0x90
__ZN102_$LT$core..iter..adapters..map..Map$LT$I$C$F$GT$$u20$as$u20$core..iter..traits..iterator..Iterator$GT$9size_hint17hdc551fa58d2ca69dE:
Lfunc_begin12:
	.loc	6 107 0
	.cfi_startproc
	pushq	%rbp
	.cfi_def_cfa_offset 16
	.cfi_offset %rbp, -16
	movq	%rsp, %rbp
	.cfi_def_cfa_register %rbp
	subq	$16, %rsp
	movq	%rdi, %rax
	movq	%rax, -16(%rbp)
	movq	%rsi, -8(%rbp)
Ltmp86:
	.loc	6 108 9 prologue_end
	callq	__ZN94_$LT$core..slice..iter..IterMut$LT$T$GT$$u20$as$u20$core..iter..traits..iterator..Iterator$GT$9size_hint17h1a1a123dc1ceb42eE
	movq	-16(%rbp), %rax
	.loc	6 109 6
	addq	$16, %rsp
	popq	%rbp
	retq
Ltmp87:
Lfunc_end12:
	.cfi_endproc

	.globl	__ZN104_$LT$core..iter..adapters..copied..Copied$LT$I$GT$$u20$as$u20$core..iter..traits..iterator..Iterator$GT$4fold17h4a73a4f873ac2212E
	.p2align	4, 0x90
__ZN104_$LT$core..iter..adapters..copied..Copied$LT$I$GT$$u20$as$u20$core..iter..traits..iterator..Iterator$GT$4fold17h4a73a4f873ac2212E:
Lfunc_begin13:
	.file	7 "/rustc/2c8cc343237b8f7d5a3c3703e3a87f2eb2c54a74/library/core/src/iter/adapters" "copied.rs"
	.loc	7 72 0
	.cfi_startproc
	.cfi_personality 155, _rust_eh_personality
	.cfi_lsda 16, Lexception8
	pushq	%rbp
	.cfi_def_cfa_offset 16
	.cfi_offset %rbp, -16
	movq	%rsp, %rbp
	.cfi_def_cfa_register %rbp
	subq	$112, %rsp
	movq	%rcx, -96(%rbp)
	movq	%rdi, %rax
	movq	-96(%rbp), %rdi
	movq	%rax, -88(%rbp)
	movq	%rsi, -80(%rbp)
	movl	%edx, -68(%rbp)
	movq	%rax, -48(%rbp)
	movq	%rsi, -40(%rbp)
	movl	%edx, -28(%rbp)
	movq	%rdi, -24(%rbp)
Ltmp93:
	.loc	7 76 9 prologue_end
	movb	$1, -49(%rbp)
	.loc	7 76 22 is_stmt 0
	movb	$1, -50(%rbp)
Ltmp88:
	.loc	7 76 28
	callq	__ZN4core4iter8adapters6copied9copy_fold17hc9ab81dca22d92efE
Ltmp89:
	movq	%rax, -64(%rbp)
	jmp	LBB13_3
LBB13_1:
	.loc	7 76 40
	testb	$1, -50(%rbp)
	jne	LBB13_6
	jmp	LBB13_5
LBB13_2:
Ltmp92:
	.loc	7 0 40
	movq	%rax, %rcx
	movl	%edx, %eax
	movq	%rcx, -16(%rbp)
	movl	%eax, -8(%rbp)
	jmp	LBB13_1
LBB13_3:
	movq	-64(%rbp), %rcx
	movl	-68(%rbp), %edx
	movq	-80(%rbp), %rsi
	movq	-88(%rbp), %rdi
	.loc	7 76 9
	movb	$0, -49(%rbp)
	movb	$0, -50(%rbp)
Ltmp90:
	callq	__ZN4core4iter6traits8iterator8Iterator4fold17h0f93a152c8c4eb12E
Ltmp91:
	movl	%eax, -100(%rbp)
	jmp	LBB13_4
LBB13_4:
	.loc	7 0 9
	movl	-100(%rbp), %eax
	.loc	7 77 6 is_stmt 1
	addq	$112, %rsp
	popq	%rbp
	retq
LBB13_5:
	.loc	7 76 40
	testb	$1, -49(%rbp)
	jne	LBB13_8
	jmp	LBB13_7
LBB13_6:
	jmp	LBB13_5
LBB13_7:
	.loc	7 72 5
	movq	-16(%rbp), %rdi
	callq	__Unwind_Resume
LBB13_8:
	.loc	7 76 40
	jmp	LBB13_7
Ltmp94:
Lfunc_end13:
	.cfi_endproc
	.section	__TEXT,__gcc_except_tab
	.p2align	2
GCC_except_table13:
Lexception8:
	.byte	255
	.byte	255
	.byte	1
	.uleb128 Lcst_end8-Lcst_begin8
Lcst_begin8:
	.uleb128 Ltmp88-Lfunc_begin13
	.uleb128 Ltmp91-Ltmp88
	.uleb128 Ltmp92-Lfunc_begin13
	.byte	0
	.uleb128 Ltmp91-Lfunc_begin13
	.uleb128 Lfunc_end13-Ltmp91
	.byte	0
	.byte	0
Lcst_end8:
	.p2align	2

	.section	__TEXT,__text,regular,pure_instructions
	.globl	__ZN104_$LT$core..iter..adapters..copied..Copied$LT$I$GT$$u20$as$u20$core..iter..traits..iterator..Iterator$GT$4next17h5c992f5c61bdc823E
	.p2align	4, 0x90
__ZN104_$LT$core..iter..adapters..copied..Copied$LT$I$GT$$u20$as$u20$core..iter..traits..iterator..Iterator$GT$4next17h5c992f5c61bdc823E:
Lfunc_begin14:
	.loc	7 46 0
	.cfi_startproc
	pushq	%rbp
	.cfi_def_cfa_offset 16
	.cfi_offset %rbp, -16
	movq	%rsp, %rbp
	.cfi_def_cfa_register %rbp
	subq	$16, %rsp
	movq	%rdi, -8(%rbp)
Ltmp95:
	.loc	7 47 9 prologue_end
	callq	__ZN91_$LT$core..slice..iter..Iter$LT$T$GT$$u20$as$u20$core..iter..traits..iterator..Iterator$GT$4next17ha44e1ded901c3b84E
	movq	%rax, %rdi
	callq	__ZN4core6option19Option$LT$$RF$T$GT$6copied17h47a48a8da507a2d7E
	.loc	7 48 6
	addq	$16, %rsp
	popq	%rbp
	retq
Ltmp96:
Lfunc_end14:
	.cfi_endproc

	.globl	__ZN104_$LT$core..iter..adapters..copied..Copied$LT$I$GT$$u20$as$u20$core..iter..traits..iterator..Iterator$GT$4next17h64433d6ed545ac0cE
	.p2align	4, 0x90
__ZN104_$LT$core..iter..adapters..copied..Copied$LT$I$GT$$u20$as$u20$core..iter..traits..iterator..Iterator$GT$4next17h64433d6ed545ac0cE:
Lfunc_begin15:
	.loc	7 46 0
	.cfi_startproc
	pushq	%rbp
	.cfi_def_cfa_offset 16
	.cfi_offset %rbp, -16
	movq	%rsp, %rbp
	.cfi_def_cfa_register %rbp
	subq	$16, %rsp
	movq	%rdi, -8(%rbp)
Ltmp97:
	.loc	7 47 9 prologue_end
	callq	__ZN91_$LT$core..slice..iter..Iter$LT$T$GT$$u20$as$u20$core..iter..traits..iterator..Iterator$GT$4next17h45eb9c7392744cb5E
	movq	%rax, %rdi
	callq	__ZN4core6option19Option$LT$$RF$T$GT$6copied17h1ca34fa1859cb2bbE
	.loc	7 48 6
	andb	$1, %al
	addq	$16, %rsp
	popq	%rbp
	retq
Ltmp98:
Lfunc_end15:
	.cfi_endproc

	.globl	__ZN104_$LT$core..iter..adapters..copied..Copied$LT$I$GT$$u20$as$u20$core..iter..traits..iterator..Iterator$GT$8try_fold17hc72573fca0c26616E
	.p2align	4, 0x90
__ZN104_$LT$core..iter..adapters..copied..Copied$LT$I$GT$$u20$as$u20$core..iter..traits..iterator..Iterator$GT$8try_fold17hc72573fca0c26616E:
Lfunc_begin16:
	.loc	7 63 0
	.cfi_startproc
	.cfi_personality 155, _rust_eh_personality
	.cfi_lsda 16, Lexception9
	pushq	%rbp
	.cfi_def_cfa_offset 16
	.cfi_offset %rbp, -16
	movq	%rsp, %rbp
	.cfi_def_cfa_register %rbp
	subq	$112, %rsp
	movq	%rdx, -96(%rbp)
	movq	%rsi, %rax
	movq	-96(%rbp), %rsi
	movq	%rax, -88(%rbp)
	movq	%rdi, %rax
	movq	-88(%rbp), %rdi
	movq	%rax, -80(%rbp)
	movq	%rax, -48(%rbp)
	movq	%rdi, -32(%rbp)
	movq	%rsi, -24(%rbp)
Ltmp104:
	.loc	7 69 26 prologue_end
	movb	$1, -49(%rbp)
Ltmp99:
	.loc	7 69 32 is_stmt 0
	callq	__ZN4core4iter8adapters6copied13copy_try_fold17ha74190de7365b43dE
Ltmp100:
	movq	%rdx, -72(%rbp)
	movq	%rax, -64(%rbp)
	jmp	LBB16_3
LBB16_1:
	.loc	7 69 48
	testb	$1, -49(%rbp)
	jne	LBB16_6
	jmp	LBB16_5
LBB16_2:
Ltmp103:
	.loc	7 0 48
	movq	%rax, %rcx
	movl	%edx, %eax
	movq	%rcx, -16(%rbp)
	movl	%eax, -8(%rbp)
	jmp	LBB16_1
LBB16_3:
	movq	-72(%rbp), %rdx
	movq	-64(%rbp), %rsi
	movq	-80(%rbp), %rdi
	.loc	7 69 9
	movb	$0, -49(%rbp)
Ltmp101:
	callq	__ZN4core4iter6traits8iterator8Iterator8try_fold17hf510ce689f8a13fdE
Ltmp102:
	movl	%edx, -104(%rbp)
	movl	%eax, -100(%rbp)
	jmp	LBB16_4
LBB16_4:
	.loc	7 0 9
	movl	-104(%rbp), %edx
	movl	-100(%rbp), %eax
	.loc	7 70 6 is_stmt 1
	addq	$112, %rsp
	popq	%rbp
	retq
LBB16_5:
	.loc	7 63 5
	movq	-16(%rbp), %rdi
	callq	__Unwind_Resume
LBB16_6:
	.loc	7 69 48
	jmp	LBB16_5
Ltmp105:
Lfunc_end16:
	.cfi_endproc
	.section	__TEXT,__gcc_except_tab
	.p2align	2
GCC_except_table16:
Lexception9:
	.byte	255
	.byte	255
	.byte	1
	.uleb128 Lcst_end9-Lcst_begin9
Lcst_begin9:
	.uleb128 Ltmp99-Lfunc_begin16
	.uleb128 Ltmp102-Ltmp99
	.uleb128 Ltmp103-Lfunc_begin16
	.byte	0
	.uleb128 Ltmp102-Lfunc_begin16
	.uleb128 Lfunc_end16-Ltmp102
	.byte	0
	.byte	0
Lcst_end9:
	.p2align	2

	.section	__TEXT,__text,regular,pure_instructions
	.globl	__ZN104_$LT$core..ops..control_flow..ControlFlow$LT$B$C$C$GT$$u20$as$u20$core..ops..try_trait..FromResidual$GT$13from_residual17had72d9e5521fde9eE
	.p2align	4, 0x90
__ZN104_$LT$core..ops..control_flow..ControlFlow$LT$B$C$C$GT$$u20$as$u20$core..ops..try_trait..FromResidual$GT$13from_residual17had72d9e5521fde9eE:
Lfunc_begin17:
	.file	8 "/rustc/2c8cc343237b8f7d5a3c3703e3a87f2eb2c54a74/library/core/src/ops" "control_flow.rs"
	.loc	8 123 0
	.cfi_startproc
	pushq	%rbp
	.cfi_def_cfa_offset 16
	.cfi_offset %rbp, -16
	movq	%rsp, %rbp
	.cfi_def_cfa_register %rbp
	subq	$24, %rsp
	movl	%edi, -20(%rbp)
Ltmp106:
	.loc	8 125 32 prologue_end
	movl	-20(%rbp), %eax
	movl	%eax, -4(%rbp)
Ltmp107:
	.loc	8 125 38 is_stmt 0
	movl	%eax, -12(%rbp)
	movl	$1, -16(%rbp)
Ltmp108:
	.loc	8 127 6 is_stmt 1
	movl	-16(%rbp), %eax
	movl	-12(%rbp), %edx
	addq	$24, %rsp
	popq	%rbp
	retq
Ltmp109:
Lfunc_end17:
	.cfi_endproc

	.globl	__ZN104_$LT$core..ops..control_flow..ControlFlow$LT$B$C$C$GT$$u20$as$u20$core..ops..try_trait..FromResidual$GT$13from_residual17hc26422dd21be4d1fE
	.p2align	4, 0x90
__ZN104_$LT$core..ops..control_flow..ControlFlow$LT$B$C$C$GT$$u20$as$u20$core..ops..try_trait..FromResidual$GT$13from_residual17hc26422dd21be4d1fE:
Lfunc_begin18:
	.loc	8 123 0
	.cfi_startproc
	pushq	%rbp
	.cfi_def_cfa_offset 16
	.cfi_offset %rbp, -16
	movq	%rsp, %rbp
	.cfi_def_cfa_register %rbp
	subq	$3, %rsp
	movb	%dil, %al
	movb	%al, -3(%rbp)
Ltmp110:
	.loc	8 125 32 prologue_end
	movb	-3(%rbp), %al
	movb	%al, -1(%rbp)
Ltmp111:
	.loc	8 125 38 is_stmt 0
	movb	%al, -2(%rbp)
Ltmp112:
	.loc	8 127 6 is_stmt 1
	movb	-2(%rbp), %al
	addq	$3, %rsp
	popq	%rbp
	retq
Ltmp113:
Lfunc_end18:
	.cfi_endproc

	.globl	__ZN104_$LT$core..ops..control_flow..ControlFlow$LT$B$C$C$GT$$u20$as$u20$core..ops..try_trait..FromResidual$GT$13from_residual17heb51a550cd9a5e6cE
	.p2align	4, 0x90
__ZN104_$LT$core..ops..control_flow..ControlFlow$LT$B$C$C$GT$$u20$as$u20$core..ops..try_trait..FromResidual$GT$13from_residual17heb51a550cd9a5e6cE:
Lfunc_begin19:
	.loc	8 123 0
	.cfi_startproc
	pushq	%rbp
	.cfi_def_cfa_offset 16
	.cfi_offset %rbp, -16
	movq	%rsp, %rbp
	.cfi_def_cfa_register %rbp
	subq	$24, %rsp
Ltmp114:
	.loc	8 125 38 prologue_end
	movb	$1, -17(%rbp)
Ltmp115:
	.loc	8 127 6
	movb	-17(%rbp), %al
	andb	$1, %al
	movzbl	%al, %eax
	addq	$24, %rsp
	popq	%rbp
	retq
Ltmp116:
Lfunc_end19:
	.cfi_endproc

	.globl	__ZN105_$LT$core..slice..sort..merge_sort..BufGuard$LT$T$C$ElemDeallocF$GT$$u20$as$u20$core..ops..drop..Drop$GT$4drop17h04da0ebc20f80983E
	.p2align	4, 0x90
__ZN105_$LT$core..slice..sort..merge_sort..BufGuard$LT$T$C$ElemDeallocF$GT$$u20$as$u20$core..ops..drop..Drop$GT$4drop17h04da0ebc20f80983E:
Lfunc_begin20:
	.file	9 "/rustc/2c8cc343237b8f7d5a3c3703e3a87f2eb2c54a74/library/core/src/slice" "sort.rs"
	.loc	9 1326 0
	.cfi_startproc
	pushq	%rbp
	.cfi_def_cfa_offset 16
	.cfi_offset %rbp, -16
	movq	%rsp, %rbp
	.cfi_def_cfa_register %rbp
	subq	$32, %rsp
	movq	%rdi, -8(%rbp)
Ltmp117:
	.loc	9 1327 36 prologue_end
	movq	(%rdi), %rcx
	.loc	9 1327 50 is_stmt 0
	movq	8(%rdi), %rax
	.loc	9 1327 13
	movq	%rcx, -24(%rbp)
	movq	%rax, -16(%rbp)
	movq	-24(%rbp), %rsi
	movq	-16(%rbp), %rdx
	callq	__ZN5alloc5slice11stable_sort28_$u7b$$u7b$closure$u7d$$u7d$17h861fc61f4dca947dE
	.loc	9 1328 10 is_stmt 1
	addq	$32, %rsp
	popq	%rbp
	retq
Ltmp118:
Lfunc_end20:
	.cfi_endproc

	.globl	__ZN105_$LT$core..slice..sort..merge_sort..BufGuard$LT$T$C$ElemDeallocF$GT$$u20$as$u20$core..ops..drop..Drop$GT$4drop17h6c9ba689f02de8d5E
	.p2align	4, 0x90
__ZN105_$LT$core..slice..sort..merge_sort..BufGuard$LT$T$C$ElemDeallocF$GT$$u20$as$u20$core..ops..drop..Drop$GT$4drop17h6c9ba689f02de8d5E:
Lfunc_begin21:
	.loc	9 1326 0
	.cfi_startproc
	pushq	%rbp
	.cfi_def_cfa_offset 16
	.cfi_offset %rbp, -16
	movq	%rsp, %rbp
	.cfi_def_cfa_register %rbp
	subq	$32, %rsp
	movq	%rdi, -8(%rbp)
Ltmp119:
	.loc	9 1327 36 prologue_end
	movq	(%rdi), %rcx
	.loc	9 1327 50 is_stmt 0
	movq	8(%rdi), %rax
	.loc	9 1327 13
	movq	%rcx, -24(%rbp)
	movq	%rax, -16(%rbp)
	movq	-24(%rbp), %rsi
	movq	-16(%rbp), %rdx
	callq	__ZN5alloc5slice11stable_sort28_$u7b$$u7b$closure$u7d$$u7d$17hbbead7cede550ed6E
	.loc	9 1328 10 is_stmt 1
	addq	$32, %rsp
	popq	%rbp
	retq
Ltmp120:
Lfunc_end21:
	.cfi_endproc

	.globl	__ZN105_$LT$core..slice..sort..merge_sort..BufGuard$LT$T$C$ElemDeallocF$GT$$u20$as$u20$core..ops..drop..Drop$GT$4drop17had69dec3ea86b38aE
	.p2align	4, 0x90
__ZN105_$LT$core..slice..sort..merge_sort..BufGuard$LT$T$C$ElemDeallocF$GT$$u20$as$u20$core..ops..drop..Drop$GT$4drop17had69dec3ea86b38aE:
Lfunc_begin22:
	.loc	9 1326 0
	.cfi_startproc
	pushq	%rbp
	.cfi_def_cfa_offset 16
	.cfi_offset %rbp, -16
	movq	%rsp, %rbp
	.cfi_def_cfa_register %rbp
	subq	$32, %rsp
	movq	%rdi, -8(%rbp)
Ltmp121:
	.loc	9 1327 36 prologue_end
	movq	(%rdi), %rcx
	.loc	9 1327 50 is_stmt 0
	movq	8(%rdi), %rax
	.loc	9 1327 13
	movq	%rcx, -24(%rbp)
	movq	%rax, -16(%rbp)
	movq	-24(%rbp), %rsi
	movq	-16(%rbp), %rdx
	callq	__ZN5alloc5slice11stable_sort28_$u7b$$u7b$closure$u7d$$u7d$17h69e36d63b01a5b2fE
	.loc	9 1328 10 is_stmt 1
	addq	$32, %rsp
	popq	%rbp
	retq
Ltmp122:
Lfunc_end22:
	.cfi_endproc

	.globl	__ZN106_$LT$core..ops..range..Range$LT$usize$GT$$u20$as$u20$core..slice..index..SliceIndex$LT$$u5b$T$u5d$$GT$$GT$13get_unchecked17h44bc0d1a044001b1E
	.p2align	4, 0x90
__ZN106_$LT$core..ops..range..Range$LT$usize$GT$$u20$as$u20$core..slice..index..SliceIndex$LT$$u5b$T$u5d$$GT$$GT$13get_unchecked17h44bc0d1a044001b1E:
Lfunc_begin23:
	.file	10 "/rustc/2c8cc343237b8f7d5a3c3703e3a87f2eb2c54a74/library/core/src/slice" "index.rs"
	.loc	10 373 0
	.cfi_startproc
	pushq	%rbp
	.cfi_def_cfa_offset 16
	.cfi_offset %rbp, -16
	movq	%rsp, %rbp
	.cfi_def_cfa_register %rbp
	subq	$160, %rsp
	movq	%rdi, -128(%rbp)
	movq	%rsi, -120(%rbp)
	movq	%rdx, -112(%rbp)
	movq	%rcx, -104(%rbp)
Ltmp123:
	.loc	10 386 39 prologue_end
	movq	%rdx, -96(%rbp)
	movq	%rcx, -88(%rbp)
Ltmp124:
	.file	11 "/rustc/2c8cc343237b8f7d5a3c3703e3a87f2eb2c54a74/library/core/src/ptr" "const_ptr.rs"
	.loc	11 1650 9
	movq	%rdx, -80(%rbp)
Ltmp125:
	.loc	10 386 58
	movq	%rdi, -72(%rbp)
Ltmp126:
	.loc	11 932 18
	movq	%rdx, -64(%rbp)
	.loc	11 932 30 is_stmt 0
	movq	%rdi, -56(%rbp)
Ltmp127:
	.loc	11 473 18 is_stmt 1
	addq	%rdi, %rdx
	movq	%rdx, -48(%rbp)
	movq	-48(%rbp), %rax
	movq	%rax, -40(%rbp)
Ltmp128:
	.loc	10 386 71
	subq	%rdi, %rsi
	movq	%rsi, -32(%rbp)
Ltmp129:
	.file	12 "/rustc/2c8cc343237b8f7d5a3c3703e3a87f2eb2c54a74/library/core/src/ptr" "mod.rs"
	.loc	12 734 20
	movq	%rax, -24(%rbp)
Ltmp130:
	.loc	11 61 9
	movq	%rax, -16(%rbp)
Ltmp131:
	.loc	12 734 33
	movq	%rsi, -8(%rbp)
Ltmp132:
	.file	13 "/rustc/2c8cc343237b8f7d5a3c3703e3a87f2eb2c54a74/library/core/src/ptr" "metadata.rs"
	.loc	13 118 36
	movq	%rax, -144(%rbp)
	movq	%rsi, -136(%rbp)
	.loc	13 118 14 is_stmt 0
	movq	-144(%rbp), %rcx
	movq	-136(%rbp), %rax
	movq	%rcx, -160(%rbp)
	movq	%rax, -152(%rbp)
	movq	-160(%rbp), %rax
	movq	-152(%rbp), %rdx
Ltmp133:
	.loc	10 388 6 is_stmt 1
	addq	$160, %rsp
	popq	%rbp
	retq
Ltmp134:
Lfunc_end23:
	.cfi_endproc

	.globl	__ZN106_$LT$core..ops..range..Range$LT$usize$GT$$u20$as$u20$core..slice..index..SliceIndex$LT$$u5b$T$u5d$$GT$$GT$13get_unchecked17h718104359ec0ab46E
	.p2align	4, 0x90
__ZN106_$LT$core..ops..range..Range$LT$usize$GT$$u20$as$u20$core..slice..index..SliceIndex$LT$$u5b$T$u5d$$GT$$GT$13get_unchecked17h718104359ec0ab46E:
Lfunc_begin24:
	.loc	10 373 0
	.cfi_startproc
	pushq	%rbp
	.cfi_def_cfa_offset 16
	.cfi_offset %rbp, -16
	movq	%rsp, %rbp
	.cfi_def_cfa_register %rbp
	subq	$160, %rsp
	movq	%rdi, -128(%rbp)
	movq	%rsi, -120(%rbp)
	movq	%rdx, -112(%rbp)
	movq	%rcx, -104(%rbp)
Ltmp135:
	.loc	10 386 39 prologue_end
	movq	%rdx, -96(%rbp)
	movq	%rcx, -88(%rbp)
Ltmp136:
	.loc	11 1650 9
	movq	%rdx, -80(%rbp)
Ltmp137:
	.loc	10 386 58
	movq	%rdi, -72(%rbp)
Ltmp138:
	.loc	11 932 18
	movq	%rdx, -64(%rbp)
	.loc	11 932 30 is_stmt 0
	movq	%rdi, -56(%rbp)
Ltmp139:
	.loc	11 473 18 is_stmt 1
	leaq	(%rdx,%rdi,8), %rax
	movq	%rax, -48(%rbp)
	movq	-48(%rbp), %rax
	movq	%rax, -40(%rbp)
Ltmp140:
	.loc	10 386 71
	subq	%rdi, %rsi
	movq	%rsi, -32(%rbp)
Ltmp141:
	.loc	12 734 20
	movq	%rax, -24(%rbp)
Ltmp142:
	.loc	11 61 9
	movq	%rax, -16(%rbp)
Ltmp143:
	.loc	12 734 33
	movq	%rsi, -8(%rbp)
Ltmp144:
	.loc	13 118 36
	movq	%rax, -144(%rbp)
	movq	%rsi, -136(%rbp)
	.loc	13 118 14 is_stmt 0
	movq	-144(%rbp), %rcx
	movq	-136(%rbp), %rax
	movq	%rcx, -160(%rbp)
	movq	%rax, -152(%rbp)
	movq	-160(%rbp), %rax
	movq	-152(%rbp), %rdx
Ltmp145:
	.loc	10 388 6 is_stmt 1
	addq	$160, %rsp
	popq	%rbp
	retq
Ltmp146:
Lfunc_end24:
	.cfi_endproc

	.globl	__ZN106_$LT$core..ops..range..Range$LT$usize$GT$$u20$as$u20$core..slice..index..SliceIndex$LT$$u5b$T$u5d$$GT$$GT$17get_unchecked_mut17h2e6b50cade31f0f6E
	.p2align	4, 0x90
__ZN106_$LT$core..ops..range..Range$LT$usize$GT$$u20$as$u20$core..slice..index..SliceIndex$LT$$u5b$T$u5d$$GT$$GT$17get_unchecked_mut17h2e6b50cade31f0f6E:
Lfunc_begin25:
	.loc	10 391 0
	.cfi_startproc
	pushq	%rbp
	.cfi_def_cfa_offset 16
	.cfi_offset %rbp, -16
	movq	%rsp, %rbp
	.cfi_def_cfa_register %rbp
	subq	$160, %rsp
	movq	%rdi, -128(%rbp)
	movq	%rsi, -120(%rbp)
	movq	%rdx, -112(%rbp)
	movq	%rcx, -104(%rbp)
Ltmp147:
	.loc	10 400 43 prologue_end
	movq	%rdx, -96(%rbp)
	movq	%rcx, -88(%rbp)
Ltmp148:
	.file	14 "/rustc/2c8cc343237b8f7d5a3c3703e3a87f2eb2c54a74/library/core/src/ptr" "mut_ptr.rs"
	.loc	14 2037 9
	movq	%rdx, -80(%rbp)
Ltmp149:
	.loc	10 400 66
	movq	%rdi, -72(%rbp)
Ltmp150:
	.loc	14 1034 18
	movq	%rdx, -64(%rbp)
	.loc	14 1034 30 is_stmt 0
	movq	%rdi, -56(%rbp)
Ltmp151:
	.loc	14 487 18 is_stmt 1
	movq	%rdi, %rax
	shlq	$4, %rax
	addq	%rax, %rdx
	movq	%rdx, -48(%rbp)
	movq	-48(%rbp), %rax
	movq	%rax, -40(%rbp)
Ltmp152:
	.loc	10 400 79
	subq	%rdi, %rsi
	movq	%rsi, -32(%rbp)
Ltmp153:
	.loc	12 766 24
	movq	%rax, -24(%rbp)
Ltmp154:
	.loc	14 60 9
	movq	%rax, -16(%rbp)
Ltmp155:
	.loc	12 766 37
	movq	%rsi, -8(%rbp)
Ltmp156:
	.loc	13 135 36
	movq	%rax, -144(%rbp)
	movq	%rsi, -136(%rbp)
	.loc	13 135 14 is_stmt 0
	movq	-144(%rbp), %rcx
	movq	-136(%rbp), %rax
	movq	%rcx, -160(%rbp)
	movq	%rax, -152(%rbp)
	movq	-160(%rbp), %rax
	movq	-152(%rbp), %rdx
Ltmp157:
	.loc	10 402 6 is_stmt 1
	addq	$160, %rsp
	popq	%rbp
	retq
Ltmp158:
Lfunc_end25:
	.cfi_endproc

	.globl	__ZN106_$LT$core..ops..range..Range$LT$usize$GT$$u20$as$u20$core..slice..index..SliceIndex$LT$$u5b$T$u5d$$GT$$GT$17get_unchecked_mut17h544cf9f9c9e0b2daE
	.p2align	4, 0x90
__ZN106_$LT$core..ops..range..Range$LT$usize$GT$$u20$as$u20$core..slice..index..SliceIndex$LT$$u5b$T$u5d$$GT$$GT$17get_unchecked_mut17h544cf9f9c9e0b2daE:
Lfunc_begin26:
	.loc	10 391 0
	.cfi_startproc
	pushq	%rbp
	.cfi_def_cfa_offset 16
	.cfi_offset %rbp, -16
	movq	%rsp, %rbp
	.cfi_def_cfa_register %rbp
	subq	$160, %rsp
	movq	%rdi, -128(%rbp)
	movq	%rsi, -120(%rbp)
	movq	%rdx, -112(%rbp)
	movq	%rcx, -104(%rbp)
Ltmp159:
	.loc	10 400 43 prologue_end
	movq	%rdx, -96(%rbp)
	movq	%rcx, -88(%rbp)
Ltmp160:
	.loc	14 2037 9
	movq	%rdx, -80(%rbp)
Ltmp161:
	.loc	10 400 66
	movq	%rdi, -72(%rbp)
Ltmp162:
	.loc	14 1034 18
	movq	%rdx, -64(%rbp)
	.loc	14 1034 30 is_stmt 0
	movq	%rdi, -56(%rbp)
Ltmp163:
	.loc	14 487 18 is_stmt 1
	leaq	(%rdx,%rdi,4), %rax
	movq	%rax, -48(%rbp)
	movq	-48(%rbp), %rax
	movq	%rax, -40(%rbp)
Ltmp164:
	.loc	10 400 79
	subq	%rdi, %rsi
	movq	%rsi, -32(%rbp)
Ltmp165:
	.loc	12 766 24
	movq	%rax, -24(%rbp)
Ltmp166:
	.loc	14 60 9
	movq	%rax, -16(%rbp)
Ltmp167:
	.loc	12 766 37
	movq	%rsi, -8(%rbp)
Ltmp168:
	.loc	13 135 36
	movq	%rax, -144(%rbp)
	movq	%rsi, -136(%rbp)
	.loc	13 135 14 is_stmt 0
	movq	-144(%rbp), %rcx
	movq	-136(%rbp), %rax
	movq	%rcx, -160(%rbp)
	movq	%rax, -152(%rbp)
	movq	-160(%rbp), %rax
	movq	-152(%rbp), %rdx
Ltmp169:
	.loc	10 402 6 is_stmt 1
	addq	$160, %rsp
	popq	%rbp
	retq
Ltmp170:
Lfunc_end26:
	.cfi_endproc

	.globl	__ZN106_$LT$core..ops..range..Range$LT$usize$GT$$u20$as$u20$core..slice..index..SliceIndex$LT$$u5b$T$u5d$$GT$$GT$17get_unchecked_mut17hc1394c331fe29ec0E
	.p2align	4, 0x90
__ZN106_$LT$core..ops..range..Range$LT$usize$GT$$u20$as$u20$core..slice..index..SliceIndex$LT$$u5b$T$u5d$$GT$$GT$17get_unchecked_mut17hc1394c331fe29ec0E:
Lfunc_begin27:
	.loc	10 391 0
	.cfi_startproc
	pushq	%rbp
	.cfi_def_cfa_offset 16
	.cfi_offset %rbp, -16
	movq	%rsp, %rbp
	.cfi_def_cfa_register %rbp
	subq	$160, %rsp
	movq	%rdi, -128(%rbp)
	movq	%rsi, -120(%rbp)
	movq	%rdx, -112(%rbp)
	movq	%rcx, -104(%rbp)
Ltmp171:
	.loc	10 400 43 prologue_end
	movq	%rdx, -96(%rbp)
	movq	%rcx, -88(%rbp)
Ltmp172:
	.loc	14 2037 9
	movq	%rdx, -80(%rbp)
Ltmp173:
	.loc	10 400 66
	movq	%rdi, -72(%rbp)
Ltmp174:
	.loc	14 1034 18
	movq	%rdx, -64(%rbp)
	.loc	14 1034 30 is_stmt 0
	movq	%rdi, -56(%rbp)
Ltmp175:
	.loc	14 487 18 is_stmt 1
	leaq	(%rdx,%rdi,8), %rax
	movq	%rax, -48(%rbp)
	movq	-48(%rbp), %rax
	movq	%rax, -40(%rbp)
Ltmp176:
	.loc	10 400 79
	subq	%rdi, %rsi
	movq	%rsi, -32(%rbp)
Ltmp177:
	.loc	12 766 24
	movq	%rax, -24(%rbp)
Ltmp178:
	.loc	14 60 9
	movq	%rax, -16(%rbp)
Ltmp179:
	.loc	12 766 37
	movq	%rsi, -8(%rbp)
Ltmp180:
	.loc	13 135 36
	movq	%rax, -144(%rbp)
	movq	%rsi, -136(%rbp)
	.loc	13 135 14 is_stmt 0
	movq	-144(%rbp), %rcx
	movq	-136(%rbp), %rax
	movq	%rcx, -160(%rbp)
	movq	%rax, -152(%rbp)
	movq	-160(%rbp), %rax
	movq	-152(%rbp), %rdx
Ltmp181:
	.loc	10 402 6 is_stmt 1
	addq	$160, %rsp
	popq	%rbp
	retq
Ltmp182:
Lfunc_end27:
	.cfi_endproc

	.globl	__ZN106_$LT$core..ops..range..Range$LT$usize$GT$$u20$as$u20$core..slice..index..SliceIndex$LT$$u5b$T$u5d$$GT$$GT$3get17hb3d02470efafc733E
	.p2align	4, 0x90
__ZN106_$LT$core..ops..range..Range$LT$usize$GT$$u20$as$u20$core..slice..index..SliceIndex$LT$$u5b$T$u5d$$GT$$GT$3get17hb3d02470efafc733E:
Lfunc_begin28:
	.loc	10 353 0
	.cfi_startproc
	pushq	%rbp
	.cfi_def_cfa_offset 16
	.cfi_offset %rbp, -16
	movq	%rsp, %rbp
	.cfi_def_cfa_register %rbp
	subq	$96, %rsp
	movq	%rdi, -88(%rbp)
	movq	%rsi, -80(%rbp)
	movq	%rdx, -72(%rbp)
	movq	%rcx, -64(%rbp)
	movq	%rdi, -32(%rbp)
	movq	%rsi, -24(%rbp)
	movq	%rdx, -16(%rbp)
	movq	%rcx, -8(%rbp)
Ltmp183:
	.loc	10 354 12 prologue_end
	cmpq	%rsi, %rdi
	ja	LBB28_2
	.loc	10 0 12 is_stmt 0
	movq	-80(%rbp), %rax
	movq	-64(%rbp), %rcx
	.loc	10 354 37
	cmpq	%rcx, %rax
	seta	%al
	.loc	10 354 12
	andb	$1, %al
	movb	%al, -33(%rbp)
	jmp	LBB28_3
LBB28_2:
	movb	$1, -33(%rbp)
LBB28_3:
	testb	$1, -33(%rbp)
	jne	LBB28_5
	.loc	10 0 12
	movq	-64(%rbp), %rcx
	movq	-72(%rbp), %rdx
	movq	-80(%rbp), %rsi
	movq	-88(%rbp), %rdi
	.loc	10 358 29 is_stmt 1
	callq	__ZN106_$LT$core..ops..range..Range$LT$usize$GT$$u20$as$u20$core..slice..index..SliceIndex$LT$$u5b$T$u5d$$GT$$GT$13get_unchecked17h44bc0d1a044001b1E
	.loc	10 358 22 is_stmt 0
	movq	%rax, -56(%rbp)
	movq	%rdx, -48(%rbp)
	.loc	10 354 9 is_stmt 1
	jmp	LBB28_6
LBB28_5:
	.loc	10 355 13
	movq	$0, -56(%rbp)
LBB28_6:
	.loc	10 360 6
	movq	-56(%rbp), %rax
	movq	-48(%rbp), %rdx
	addq	$96, %rsp
	popq	%rbp
	retq
Ltmp184:
Lfunc_end28:
	.cfi_endproc

	.globl	__ZN106_$LT$core..ops..range..Range$LT$usize$GT$$u20$as$u20$core..slice..index..SliceIndex$LT$$u5b$T$u5d$$GT$$GT$5index17h1d79f56a89b4ea3fE
	.p2align	4, 0x90
__ZN106_$LT$core..ops..range..Range$LT$usize$GT$$u20$as$u20$core..slice..index..SliceIndex$LT$$u5b$T$u5d$$GT$$GT$5index17h1d79f56a89b4ea3fE:
Lfunc_begin29:
	.loc	10 405 0
	.cfi_startproc
	pushq	%rbp
	.cfi_def_cfa_offset 16
	.cfi_offset %rbp, -16
	movq	%rsp, %rbp
	.cfi_def_cfa_register %rbp
	subq	$80, %rsp
	movq	%rdi, -72(%rbp)
	movq	%rsi, -64(%rbp)
	movq	%rdx, -56(%rbp)
	movq	%rcx, -48(%rbp)
	movq	%r8, -40(%rbp)
	movq	%rdi, -32(%rbp)
	movq	%rsi, -24(%rbp)
	movq	%rdx, -16(%rbp)
	movq	%rcx, -8(%rbp)
Ltmp185:
	.loc	10 406 12 prologue_end
	cmpq	%rsi, %rdi
	ja	LBB29_2
	.loc	10 0 12 is_stmt 0
	movq	-64(%rbp), %rax
	movq	-48(%rbp), %rcx
	.loc	10 408 19 is_stmt 1
	cmpq	%rcx, %rax
	ja	LBB29_4
	jmp	LBB29_3
LBB29_2:
	.loc	10 0 19 is_stmt 0
	movq	-40(%rbp), %rdx
	movq	-64(%rbp), %rsi
	movq	-72(%rbp), %rdi
	.loc	10 407 13 is_stmt 1
	callq	__ZN4core5slice5index22slice_index_order_fail17h0d8f800a07d5f26eE
LBB29_3:
	.loc	10 0 13 is_stmt 0
	movq	-48(%rbp), %rcx
	movq	-56(%rbp), %rdx
	movq	-64(%rbp), %rsi
	movq	-72(%rbp), %rdi
	.loc	10 412 20 is_stmt 1
	callq	__ZN106_$LT$core..ops..range..Range$LT$usize$GT$$u20$as$u20$core..slice..index..SliceIndex$LT$$u5b$T$u5d$$GT$$GT$13get_unchecked17h44bc0d1a044001b1E
	.loc	10 413 6
	addq	$80, %rsp
	popq	%rbp
	retq
LBB29_4:
	.loc	10 0 6 is_stmt 0
	movq	-40(%rbp), %rdx
	movq	-48(%rbp), %rsi
	movq	-64(%rbp), %rdi
	.loc	10 409 13 is_stmt 1
	callq	__ZN4core5slice5index24slice_end_index_len_fail17hc921cb2f1513645aE
Ltmp186:
Lfunc_end29:
	.cfi_endproc

	.globl	__ZN106_$LT$core..ops..range..Range$LT$usize$GT$$u20$as$u20$core..slice..index..SliceIndex$LT$$u5b$T$u5d$$GT$$GT$5index17hf2e42cb46a0cb88cE
	.p2align	4, 0x90
__ZN106_$LT$core..ops..range..Range$LT$usize$GT$$u20$as$u20$core..slice..index..SliceIndex$LT$$u5b$T$u5d$$GT$$GT$5index17hf2e42cb46a0cb88cE:
Lfunc_begin30:
	.loc	10 405 0
	.cfi_startproc
	pushq	%rbp
	.cfi_def_cfa_offset 16
	.cfi_offset %rbp, -16
	movq	%rsp, %rbp
	.cfi_def_cfa_register %rbp
	subq	$80, %rsp
	movq	%rdi, -72(%rbp)
	movq	%rsi, -64(%rbp)
	movq	%rdx, -56(%rbp)
	movq	%rcx, -48(%rbp)
	movq	%r8, -40(%rbp)
	movq	%rdi, -32(%rbp)
	movq	%rsi, -24(%rbp)
	movq	%rdx, -16(%rbp)
	movq	%rcx, -8(%rbp)
Ltmp187:
	.loc	10 406 12 prologue_end
	cmpq	%rsi, %rdi
	ja	LBB30_2
	.loc	10 0 12 is_stmt 0
	movq	-64(%rbp), %rax
	movq	-48(%rbp), %rcx
	.loc	10 408 19 is_stmt 1
	cmpq	%rcx, %rax
	ja	LBB30_4
	jmp	LBB30_3
LBB30_2:
	.loc	10 0 19 is_stmt 0
	movq	-40(%rbp), %rdx
	movq	-64(%rbp), %rsi
	movq	-72(%rbp), %rdi
	.loc	10 407 13 is_stmt 1
	callq	__ZN4core5slice5index22slice_index_order_fail17h0d8f800a07d5f26eE
LBB30_3:
	.loc	10 0 13 is_stmt 0
	movq	-48(%rbp), %rcx
	movq	-56(%rbp), %rdx
	movq	-64(%rbp), %rsi
	movq	-72(%rbp), %rdi
	.loc	10 412 20 is_stmt 1
	callq	__ZN106_$LT$core..ops..range..Range$LT$usize$GT$$u20$as$u20$core..slice..index..SliceIndex$LT$$u5b$T$u5d$$GT$$GT$13get_unchecked17h718104359ec0ab46E
	.loc	10 413 6
	addq	$80, %rsp
	popq	%rbp
	retq
LBB30_4:
	.loc	10 0 6 is_stmt 0
	movq	-40(%rbp), %rdx
	movq	-48(%rbp), %rsi
	movq	-64(%rbp), %rdi
	.loc	10 409 13 is_stmt 1
	callq	__ZN4core5slice5index24slice_end_index_len_fail17hc921cb2f1513645aE
Ltmp188:
Lfunc_end30:
	.cfi_endproc

	.globl	__ZN106_$LT$core..ops..range..Range$LT$usize$GT$$u20$as$u20$core..slice..index..SliceIndex$LT$$u5b$T$u5d$$GT$$GT$9index_mut17h215f9afbd2d7a213E
	.p2align	4, 0x90
__ZN106_$LT$core..ops..range..Range$LT$usize$GT$$u20$as$u20$core..slice..index..SliceIndex$LT$$u5b$T$u5d$$GT$$GT$9index_mut17h215f9afbd2d7a213E:
Lfunc_begin31:
	.loc	10 416 0
	.cfi_startproc
	pushq	%rbp
	.cfi_def_cfa_offset 16
	.cfi_offset %rbp, -16
	movq	%rsp, %rbp
	.cfi_def_cfa_register %rbp
	subq	$80, %rsp
	movq	%rdi, -72(%rbp)
	movq	%rsi, -64(%rbp)
	movq	%rdx, -56(%rbp)
	movq	%rcx, -48(%rbp)
	movq	%r8, -40(%rbp)
	movq	%rdi, -32(%rbp)
	movq	%rsi, -24(%rbp)
	movq	%rdx, -16(%rbp)
	movq	%rcx, -8(%rbp)
Ltmp189:
	.loc	10 417 12 prologue_end
	cmpq	%rsi, %rdi
	ja	LBB31_2
	.loc	10 0 12 is_stmt 0
	movq	-64(%rbp), %rax
	movq	-48(%rbp), %rcx
	.loc	10 419 19 is_stmt 1
	cmpq	%rcx, %rax
	ja	LBB31_4
	jmp	LBB31_3
LBB31_2:
	.loc	10 0 19 is_stmt 0
	movq	-40(%rbp), %rdx
	movq	-64(%rbp), %rsi
	movq	-72(%rbp), %rdi
	.loc	10 418 13 is_stmt 1
	callq	__ZN4core5slice5index22slice_index_order_fail17h0d8f800a07d5f26eE
LBB31_3:
	.loc	10 0 13 is_stmt 0
	movq	-48(%rbp), %rcx
	movq	-56(%rbp), %rdx
	movq	-64(%rbp), %rsi
	movq	-72(%rbp), %rdi
	.loc	10 423 24 is_stmt 1
	callq	__ZN106_$LT$core..ops..range..Range$LT$usize$GT$$u20$as$u20$core..slice..index..SliceIndex$LT$$u5b$T$u5d$$GT$$GT$17get_unchecked_mut17h544cf9f9c9e0b2daE
	.loc	10 424 6
	addq	$80, %rsp
	popq	%rbp
	retq
LBB31_4:
	.loc	10 0 6 is_stmt 0
	movq	-40(%rbp), %rdx
	movq	-48(%rbp), %rsi
	movq	-64(%rbp), %rdi
	.loc	10 420 13 is_stmt 1
	callq	__ZN4core5slice5index24slice_end_index_len_fail17hc921cb2f1513645aE
Ltmp190:
Lfunc_end31:
	.cfi_endproc

	.globl	__ZN106_$LT$core..ops..range..Range$LT$usize$GT$$u20$as$u20$core..slice..index..SliceIndex$LT$$u5b$T$u5d$$GT$$GT$9index_mut17h55cad7641bc8204dE
	.p2align	4, 0x90
__ZN106_$LT$core..ops..range..Range$LT$usize$GT$$u20$as$u20$core..slice..index..SliceIndex$LT$$u5b$T$u5d$$GT$$GT$9index_mut17h55cad7641bc8204dE:
Lfunc_begin32:
	.loc	10 416 0
	.cfi_startproc
	pushq	%rbp
	.cfi_def_cfa_offset 16
	.cfi_offset %rbp, -16
	movq	%rsp, %rbp
	.cfi_def_cfa_register %rbp
	subq	$80, %rsp
	movq	%rdi, -72(%rbp)
	movq	%rsi, -64(%rbp)
	movq	%rdx, -56(%rbp)
	movq	%rcx, -48(%rbp)
	movq	%r8, -40(%rbp)
	movq	%rdi, -32(%rbp)
	movq	%rsi, -24(%rbp)
	movq	%rdx, -16(%rbp)
	movq	%rcx, -8(%rbp)
Ltmp191:
	.loc	10 417 12 prologue_end
	cmpq	%rsi, %rdi
	ja	LBB32_2
	.loc	10 0 12 is_stmt 0
	movq	-64(%rbp), %rax
	movq	-48(%rbp), %rcx
	.loc	10 419 19 is_stmt 1
	cmpq	%rcx, %rax
	ja	LBB32_4
	jmp	LBB32_3
LBB32_2:
	.loc	10 0 19 is_stmt 0
	movq	-40(%rbp), %rdx
	movq	-64(%rbp), %rsi
	movq	-72(%rbp), %rdi
	.loc	10 418 13 is_stmt 1
	callq	__ZN4core5slice5index22slice_index_order_fail17h0d8f800a07d5f26eE
LBB32_3:
	.loc	10 0 13 is_stmt 0
	movq	-48(%rbp), %rcx
	movq	-56(%rbp), %rdx
	movq	-64(%rbp), %rsi
	movq	-72(%rbp), %rdi
	.loc	10 423 24 is_stmt 1
	callq	__ZN106_$LT$core..ops..range..Range$LT$usize$GT$$u20$as$u20$core..slice..index..SliceIndex$LT$$u5b$T$u5d$$GT$$GT$17get_unchecked_mut17h2e6b50cade31f0f6E
	.loc	10 424 6
	addq	$80, %rsp
	popq	%rbp
	retq
LBB32_4:
	.loc	10 0 6 is_stmt 0
	movq	-40(%rbp), %rdx
	movq	-48(%rbp), %rsi
	movq	-64(%rbp), %rdi
	.loc	10 420 13 is_stmt 1
	callq	__ZN4core5slice5index24slice_end_index_len_fail17hc921cb2f1513645aE
Ltmp192:
Lfunc_end32:
	.cfi_endproc

	.globl	__ZN106_$LT$core..ops..range..Range$LT$usize$GT$$u20$as$u20$core..slice..index..SliceIndex$LT$$u5b$T$u5d$$GT$$GT$9index_mut17hc5cb3c5727f4a4ceE
	.p2align	4, 0x90
__ZN106_$LT$core..ops..range..Range$LT$usize$GT$$u20$as$u20$core..slice..index..SliceIndex$LT$$u5b$T$u5d$$GT$$GT$9index_mut17hc5cb3c5727f4a4ceE:
Lfunc_begin33:
	.loc	10 416 0
	.cfi_startproc
	pushq	%rbp
	.cfi_def_cfa_offset 16
	.cfi_offset %rbp, -16
	movq	%rsp, %rbp
	.cfi_def_cfa_register %rbp
	subq	$80, %rsp
	movq	%rdi, -72(%rbp)
	movq	%rsi, -64(%rbp)
	movq	%rdx, -56(%rbp)
	movq	%rcx, -48(%rbp)
	movq	%r8, -40(%rbp)
	movq	%rdi, -32(%rbp)
	movq	%rsi, -24(%rbp)
	movq	%rdx, -16(%rbp)
	movq	%rcx, -8(%rbp)
Ltmp193:
	.loc	10 417 12 prologue_end
	cmpq	%rsi, %rdi
	ja	LBB33_2
	.loc	10 0 12 is_stmt 0
	movq	-64(%rbp), %rax
	movq	-48(%rbp), %rcx
	.loc	10 419 19 is_stmt 1
	cmpq	%rcx, %rax
	ja	LBB33_4
	jmp	LBB33_3
LBB33_2:
	.loc	10 0 19 is_stmt 0
	movq	-40(%rbp), %rdx
	movq	-64(%rbp), %rsi
	movq	-72(%rbp), %rdi
	.loc	10 418 13 is_stmt 1
	callq	__ZN4core5slice5index22slice_index_order_fail17h0d8f800a07d5f26eE
LBB33_3:
	.loc	10 0 13 is_stmt 0
	movq	-48(%rbp), %rcx
	movq	-56(%rbp), %rdx
	movq	-64(%rbp), %rsi
	movq	-72(%rbp), %rdi
	.loc	10 423 24 is_stmt 1
	callq	__ZN106_$LT$core..ops..range..Range$LT$usize$GT$$u20$as$u20$core..slice..index..SliceIndex$LT$$u5b$T$u5d$$GT$$GT$17get_unchecked_mut17hc1394c331fe29ec0E
	.loc	10 424 6
	addq	$80, %rsp
	popq	%rbp
	retq
LBB33_4:
	.loc	10 0 6 is_stmt 0
	movq	-40(%rbp), %rdx
	movq	-48(%rbp), %rsi
	movq	-64(%rbp), %rdi
	.loc	10 420 13 is_stmt 1
	callq	__ZN4core5slice5index24slice_end_index_len_fail17hc921cb2f1513645aE
Ltmp194:
Lfunc_end33:
	.cfi_endproc

	.globl	__ZN107_$LT$core..iter..adapters..fuse..Fuse$LT$I$GT$$u20$as$u20$core..iter..adapters..fuse..FuseImpl$LT$I$GT$$GT$4next17h011d0191f46fc532E
	.p2align	4, 0x90
__ZN107_$LT$core..iter..adapters..fuse..Fuse$LT$I$GT$$u20$as$u20$core..iter..adapters..fuse..FuseImpl$LT$I$GT$$GT$4next17h011d0191f46fc532E:
Lfunc_begin34:
	.loc	3 256 0
	.cfi_startproc
	pushq	%rbp
	.cfi_def_cfa_offset 16
	.cfi_offset %rbp, -16
	movq	%rsp, %rbp
	.cfi_def_cfa_register %rbp
	subq	$16, %rsp
	movq	%rdi, -8(%rbp)
Ltmp195:
	.loc	3 257 9 prologue_end
	callq	__ZN4core4iter8adapters4fuse17and_then_or_clear17h4b78f9f444a3d9baE
	.loc	3 258 6
	addq	$16, %rsp
	popq	%rbp
	retq
Ltmp196:
Lfunc_end34:
	.cfi_endproc

	.globl	__ZN107_$LT$core..iter..adapters..fuse..Fuse$LT$I$GT$$u20$as$u20$core..iter..adapters..fuse..FuseImpl$LT$I$GT$$GT$4next17h0a6ff135d6603ab7E
	.p2align	4, 0x90
__ZN107_$LT$core..iter..adapters..fuse..Fuse$LT$I$GT$$u20$as$u20$core..iter..adapters..fuse..FuseImpl$LT$I$GT$$GT$4next17h0a6ff135d6603ab7E:
Lfunc_begin35:
	.loc	3 336 0
	.cfi_startproc
	pushq	%rbp
	.cfi_def_cfa_offset 16
	.cfi_offset %rbp, -16
	movq	%rsp, %rbp
	.cfi_def_cfa_register %rbp
	subq	$96, %rsp
	movq	%rdi, -88(%rbp)
	movq	%rdi, -56(%rbp)
Ltmp197:
	.loc	3 337 9 prologue_end
	movq	%rdi, -32(%rbp)
Ltmp198:
	.file	15 "/rustc/2c8cc343237b8f7d5a3c3703e3a87f2eb2c54a74/library/core/src" "option.rs"
	.loc	15 697 15
	movq	8(%rdi), %rdx
	movl	$1, %eax
	xorl	%ecx, %ecx
	cmpq	$0, %rdx
	cmoveq	%rcx, %rax
	.loc	15 697 9 is_stmt 0
	cmpq	$0, %rax
	jne	LBB35_2
	.loc	15 699 21 is_stmt 1
	movq	$0, -64(%rbp)
	jmp	LBB35_3
LBB35_2:
	.loc	15 0 21 is_stmt 0
	movq	-88(%rbp), %rax
	.loc	15 698 18 is_stmt 1
	movq	%rax, -24(%rbp)
Ltmp199:
	.loc	15 698 32 is_stmt 0
	movq	%rax, -64(%rbp)
Ltmp200:
LBB35_3:
	.loc	15 2407 15 is_stmt 1
	movq	-64(%rbp), %rdx
	movl	$1, %eax
	xorl	%ecx, %ecx
	cmpq	$0, %rdx
	cmoveq	%rcx, %rax
	.loc	15 2407 9 is_stmt 0
	cmpq	$0, %rax
	jne	LBB35_5
	.loc	15 2409 21 is_stmt 1
	movq	$0, -72(%rbp)
	.loc	15 2409 44 is_stmt 0
	jmp	LBB35_6
LBB35_5:
	.loc	15 2408 18 is_stmt 1
	movq	-64(%rbp), %rax
	movq	%rax, -16(%rbp)
Ltmp201:
	.loc	15 2408 24 is_stmt 0
	movq	%rax, -72(%rbp)
Ltmp202:
LBB35_6:
	.loc	3 337 9 is_stmt 1
	movq	-72(%rbp), %rdx
	xorl	%eax, %eax
	movl	$1, %ecx
	cmpq	$0, %rdx
	cmoveq	%rcx, %rax
	cmpq	$0, %rax
	jne	LBB35_8
	movq	-72(%rbp), %rdi
	movq	%rdi, -8(%rbp)
	callq	__ZN81_$LT$core..str..iter..Chars$u20$as$u20$core..iter..traits..iterator..Iterator$GT$4next17h378d3375d8f4f9f2E
	movl	%eax, -76(%rbp)
	.loc	3 338 6
	jmp	LBB35_9
LBB35_8:
Ltmp203:
	.loc	15 2420 21
	movl	$1114112, -76(%rbp)
Ltmp204:
LBB35_9:
	.loc	3 338 6
	movl	-76(%rbp), %eax
	addq	$96, %rsp
	popq	%rbp
	retq
Ltmp205:
Lfunc_end35:
	.cfi_endproc

	.globl	__ZN108_$LT$core..iter..adapters..filter..Filter$LT$I$C$P$GT$$u20$as$u20$core..iter..traits..iterator..Iterator$GT$4fold17h97eb4a8e62975456E
	.p2align	4, 0x90
__ZN108_$LT$core..iter..adapters..filter..Filter$LT$I$C$P$GT$$u20$as$u20$core..iter..traits..iterator..Iterator$GT$4fold17h97eb4a8e62975456E:
Lfunc_begin36:
	.file	16 "/rustc/2c8cc343237b8f7d5a3c3703e3a87f2eb2c54a74/library/core/src/iter/adapters" "filter.rs"
	.loc	16 97 0
	.cfi_startproc
	.cfi_personality 155, _rust_eh_personality
	.cfi_lsda 16, Lexception10
	pushq	%rbp
	.cfi_def_cfa_offset 16
	.cfi_offset %rbp, -16
	movq	%rsp, %rbp
	.cfi_def_cfa_register %rbp
	subq	$64, %rsp
	movl	%esi, -60(%rbp)
	movl	%esi, -28(%rbp)
Ltmp211:
	.loc	16 101 9 prologue_end
	movb	$1, -29(%rbp)
	movq	(%rdi), %rax
	movq	%rax, -56(%rbp)
	movq	8(%rdi), %rax
	movq	%rax, -48(%rbp)
	.loc	16 101 24 is_stmt 0
	movb	$1, -30(%rbp)
	.loc	16 101 42
	movq	16(%rdi), %rdi
Ltmp212:
Ltmp206:
	.loc	16 101 30
	callq	__ZN4core4iter8adapters6filter11filter_fold17h6148ae26334bdd26E
Ltmp207:
	movq	%rax, -40(%rbp)
	jmp	LBB36_3
Ltmp213:
LBB36_1:
	.loc	16 101 63
	testb	$1, -30(%rbp)
	jne	LBB36_6
	jmp	LBB36_5
Ltmp214:
LBB36_2:
Ltmp210:
	.loc	16 0 63
	movq	%rax, %rcx
	movl	%edx, %eax
	movq	%rcx, -16(%rbp)
	movl	%eax, -8(%rbp)
	jmp	LBB36_1
Ltmp215:
LBB36_3:
	movq	-40(%rbp), %rcx
	movl	-60(%rbp), %edx
	movq	-48(%rbp), %rsi
	movq	-56(%rbp), %rdi
	.loc	16 101 9
	movb	$0, -29(%rbp)
	movb	$0, -30(%rbp)
Ltmp208:
	callq	__ZN102_$LT$core..iter..adapters..map..Map$LT$I$C$F$GT$$u20$as$u20$core..iter..traits..iterator..Iterator$GT$4fold17h667e83f465ad149aE
Ltmp209:
	movl	%eax, -64(%rbp)
	jmp	LBB36_4
Ltmp216:
LBB36_4:
	.loc	16 0 9
	movl	-64(%rbp), %eax
	.loc	16 102 6 is_stmt 1
	addq	$64, %rsp
	popq	%rbp
	retq
Ltmp217:
LBB36_5:
	.loc	16 101 63
	testb	$1, -29(%rbp)
	jne	LBB36_8
	jmp	LBB36_7
Ltmp218:
LBB36_6:
	jmp	LBB36_5
Ltmp219:
LBB36_7:
	.loc	16 97 5
	movq	-16(%rbp), %rdi
	callq	__Unwind_Resume
Ltmp220:
LBB36_8:
	.loc	16 101 63
	jmp	LBB36_7
Ltmp221:
Lfunc_end36:
	.cfi_endproc
	.section	__TEXT,__gcc_except_tab
	.p2align	2
GCC_except_table36:
Lexception10:
	.byte	255
	.byte	255
	.byte	1
	.uleb128 Lcst_end10-Lcst_begin10
Lcst_begin10:
	.uleb128 Ltmp206-Lfunc_begin36
	.uleb128 Ltmp209-Ltmp206
	.uleb128 Ltmp210-Lfunc_begin36
	.byte	0
	.uleb128 Ltmp209-Lfunc_begin36
	.uleb128 Lfunc_end36-Ltmp209
	.byte	0
	.byte	0
Lcst_end10:
	.p2align	2

	.section	__TEXT,__text,regular,pure_instructions
	.globl	__ZN108_$LT$core..iter..adapters..filter..Filter$LT$I$C$P$GT$$u20$as$u20$core..iter..traits..iterator..Iterator$GT$4fold17hb7c969f349a0e96fE
	.p2align	4, 0x90
__ZN108_$LT$core..iter..adapters..filter..Filter$LT$I$C$P$GT$$u20$as$u20$core..iter..traits..iterator..Iterator$GT$4fold17hb7c969f349a0e96fE:
Lfunc_begin37:
	.loc	16 97 0
	.cfi_startproc
	.cfi_personality 155, _rust_eh_personality
	.cfi_lsda 16, Lexception11
	pushq	%rbp
	.cfi_def_cfa_offset 16
	.cfi_offset %rbp, -16
	movq	%rsp, %rbp
	.cfi_def_cfa_register %rbp
	subq	$64, %rsp
	movl	%esi, -60(%rbp)
	movl	%esi, -28(%rbp)
Ltmp227:
	.loc	16 101 9 prologue_end
	movb	$1, -29(%rbp)
	movq	(%rdi), %rax
	movq	%rax, -56(%rbp)
	movq	8(%rdi), %rax
	movq	%rax, -48(%rbp)
	.loc	16 101 24 is_stmt 0
	movb	$1, -30(%rbp)
	.loc	16 101 42
	movq	16(%rdi), %rdi
Ltmp228:
Ltmp222:
	.loc	16 101 30
	callq	__ZN4core4iter8adapters6filter11filter_fold17ha6483df32ada058aE
Ltmp223:
	movq	%rax, -40(%rbp)
	jmp	LBB37_3
Ltmp229:
LBB37_1:
	.loc	16 101 63
	testb	$1, -30(%rbp)
	jne	LBB37_6
	jmp	LBB37_5
Ltmp230:
LBB37_2:
Ltmp226:
	.loc	16 0 63
	movq	%rax, %rcx
	movl	%edx, %eax
	movq	%rcx, -16(%rbp)
	movl	%eax, -8(%rbp)
	jmp	LBB37_1
Ltmp231:
LBB37_3:
	movq	-40(%rbp), %rcx
	movl	-60(%rbp), %edx
	movq	-48(%rbp), %rsi
	movq	-56(%rbp), %rdi
	.loc	16 101 9
	movb	$0, -29(%rbp)
	movb	$0, -30(%rbp)
Ltmp224:
	callq	__ZN102_$LT$core..iter..adapters..map..Map$LT$I$C$F$GT$$u20$as$u20$core..iter..traits..iterator..Iterator$GT$4fold17hc2d2c8ae3454469aE
Ltmp225:
	movl	%eax, -64(%rbp)
	jmp	LBB37_4
Ltmp232:
LBB37_4:
	.loc	16 0 9
	movl	-64(%rbp), %eax
	.loc	16 102 6 is_stmt 1
	addq	$64, %rsp
	popq	%rbp
	retq
Ltmp233:
LBB37_5:
	.loc	16 101 63
	testb	$1, -29(%rbp)
	jne	LBB37_8
	jmp	LBB37_7
Ltmp234:
LBB37_6:
	jmp	LBB37_5
Ltmp235:
LBB37_7:
	.loc	16 97 5
	movq	-16(%rbp), %rdi
	callq	__Unwind_Resume
Ltmp236:
LBB37_8:
	.loc	16 101 63
	jmp	LBB37_7
Ltmp237:
Lfunc_end37:
	.cfi_endproc
	.section	__TEXT,__gcc_except_tab
	.p2align	2
GCC_except_table37:
Lexception11:
	.byte	255
	.byte	255
	.byte	1
	.uleb128 Lcst_end11-Lcst_begin11
Lcst_begin11:
	.uleb128 Ltmp222-Lfunc_begin37
	.uleb128 Ltmp225-Ltmp222
	.uleb128 Ltmp226-Lfunc_begin37
	.byte	0
	.uleb128 Ltmp225-Lfunc_begin37
	.uleb128 Lfunc_end37-Ltmp225
	.byte	0
	.byte	0
Lcst_end11:
	.p2align	2

	.section	__TEXT,__text,regular,pure_instructions
	.globl	__ZN108_$LT$core..iter..adapters..filter..Filter$LT$I$C$P$GT$$u20$as$u20$core..iter..traits..iterator..Iterator$GT$4next17h640adc6fc5219aebE
	.p2align	4, 0x90
__ZN108_$LT$core..iter..adapters..filter..Filter$LT$I$C$P$GT$$u20$as$u20$core..iter..traits..iterator..Iterator$GT$4next17h640adc6fc5219aebE:
Lfunc_begin38:
	.loc	16 55 0
	.cfi_startproc
	pushq	%rbp
	.cfi_def_cfa_offset 16
	.cfi_offset %rbp, -16
	movq	%rsp, %rbp
	.cfi_def_cfa_register %rbp
	subq	$16, %rsp
	movq	%rdi, -8(%rbp)
Ltmp238:
	.loc	16 56 24 prologue_end
	movq	%rdi, %rsi
	addq	$16, %rsi
	.loc	16 56 9 is_stmt 0
	callq	__ZN4core4iter6traits8iterator8Iterator4find17h15213d8ff28cf3f5E
	.loc	16 57 6 is_stmt 1
	addq	$16, %rsp
	popq	%rbp
	retq
Ltmp239:
Lfunc_end38:
	.cfi_endproc

	.globl	__ZN108_$LT$core..iter..adapters..filter..Filter$LT$I$C$P$GT$$u20$as$u20$core..iter..traits..iterator..Iterator$GT$4next17hc5e4da7b77743c81E
	.p2align	4, 0x90
__ZN108_$LT$core..iter..adapters..filter..Filter$LT$I$C$P$GT$$u20$as$u20$core..iter..traits..iterator..Iterator$GT$4next17hc5e4da7b77743c81E:
Lfunc_begin39:
	.loc	16 55 0
	.cfi_startproc
	pushq	%rbp
	.cfi_def_cfa_offset 16
	.cfi_offset %rbp, -16
	movq	%rsp, %rbp
	.cfi_def_cfa_register %rbp
	subq	$16, %rsp
	movq	%rdi, -8(%rbp)
Ltmp240:
	.loc	16 56 24 prologue_end
	movq	%rdi, %rsi
	addq	$16, %rsi
	.loc	16 56 9 is_stmt 0
	callq	__ZN4core4iter6traits8iterator8Iterator4find17he3720ac35a168aceE
	.loc	16 57 6 is_stmt 1
	addq	$16, %rsp
	popq	%rbp
	retq
Ltmp241:
Lfunc_end39:
	.cfi_endproc

	.globl	__ZN108_$LT$core..ops..range..RangeTo$LT$usize$GT$$u20$as$u20$core..slice..index..SliceIndex$LT$$u5b$T$u5d$$GT$$GT$5index17hf4d39bb867c8d0e8E
	.p2align	4, 0x90
__ZN108_$LT$core..ops..range..RangeTo$LT$usize$GT$$u20$as$u20$core..slice..index..SliceIndex$LT$$u5b$T$u5d$$GT$$GT$5index17hf4d39bb867c8d0e8E:
Lfunc_begin40:
	.loc	10 455 0
	.cfi_startproc
	pushq	%rbp
	.cfi_def_cfa_offset 16
	.cfi_offset %rbp, -16
	movq	%rsp, %rbp
	.cfi_def_cfa_register %rbp
	subq	$48, %rsp
	movq	%rcx, %r8
	movq	%rdx, %rcx
	movq	%rsi, %rdx
	movq	%rdi, -24(%rbp)
	movq	%rdx, -16(%rbp)
	movq	%rcx, -8(%rbp)
Ltmp242:
	.loc	10 456 9 prologue_end
	movq	$0, -40(%rbp)
	movq	%rdi, -32(%rbp)
	movq	-40(%rbp), %rdi
	movq	-32(%rbp), %rsi
	callq	__ZN106_$LT$core..ops..range..Range$LT$usize$GT$$u20$as$u20$core..slice..index..SliceIndex$LT$$u5b$T$u5d$$GT$$GT$5index17hf2e42cb46a0cb88cE
	.loc	10 457 6
	addq	$48, %rsp
	popq	%rbp
	retq
Ltmp243:
Lfunc_end40:
	.cfi_endproc

	.globl	__ZN108_$LT$core..ops..range..RangeTo$LT$usize$GT$$u20$as$u20$core..slice..index..SliceIndex$LT$$u5b$T$u5d$$GT$$GT$9index_mut17h0bf200c92dfd8160E
	.p2align	4, 0x90
__ZN108_$LT$core..ops..range..RangeTo$LT$usize$GT$$u20$as$u20$core..slice..index..SliceIndex$LT$$u5b$T$u5d$$GT$$GT$9index_mut17h0bf200c92dfd8160E:
Lfunc_begin41:
	.loc	10 460 0
	.cfi_startproc
	pushq	%rbp
	.cfi_def_cfa_offset 16
	.cfi_offset %rbp, -16
	movq	%rsp, %rbp
	.cfi_def_cfa_register %rbp
	subq	$48, %rsp
	movq	%rcx, %r8
	movq	%rdx, %rcx
	movq	%rsi, %rdx
	movq	%rdi, -24(%rbp)
	movq	%rdx, -16(%rbp)
	movq	%rcx, -8(%rbp)
Ltmp244:
	.loc	10 461 9 prologue_end
	movq	$0, -40(%rbp)
	movq	%rdi, -32(%rbp)
	movq	-40(%rbp), %rdi
	movq	-32(%rbp), %rsi
	callq	__ZN106_$LT$core..ops..range..Range$LT$usize$GT$$u20$as$u20$core..slice..index..SliceIndex$LT$$u5b$T$u5d$$GT$$GT$9index_mut17h215f9afbd2d7a213E
	.loc	10 462 6
	addq	$48, %rsp
	popq	%rbp
	retq
Ltmp245:
Lfunc_end41:
	.cfi_endproc

	.globl	__ZN108_$LT$core..ops..range..RangeTo$LT$usize$GT$$u20$as$u20$core..slice..index..SliceIndex$LT$$u5b$T$u5d$$GT$$GT$9index_mut17h5fafb20973b2536aE
	.p2align	4, 0x90
__ZN108_$LT$core..ops..range..RangeTo$LT$usize$GT$$u20$as$u20$core..slice..index..SliceIndex$LT$$u5b$T$u5d$$GT$$GT$9index_mut17h5fafb20973b2536aE:
Lfunc_begin42:
	.loc	10 460 0
	.cfi_startproc
	pushq	%rbp
	.cfi_def_cfa_offset 16
	.cfi_offset %rbp, -16
	movq	%rsp, %rbp
	.cfi_def_cfa_register %rbp
	subq	$48, %rsp
	movq	%rcx, %r8
	movq	%rdx, %rcx
	movq	%rsi, %rdx
	movq	%rdi, -24(%rbp)
	movq	%rdx, -16(%rbp)
	movq	%rcx, -8(%rbp)
Ltmp246:
	.loc	10 461 9 prologue_end
	movq	$0, -40(%rbp)
	movq	%rdi, -32(%rbp)
	movq	-40(%rbp), %rdi
	movq	-32(%rbp), %rsi
	callq	__ZN106_$LT$core..ops..range..Range$LT$usize$GT$$u20$as$u20$core..slice..index..SliceIndex$LT$$u5b$T$u5d$$GT$$GT$9index_mut17hc5cb3c5727f4a4ceE
	.loc	10 462 6
	addq	$48, %rsp
	popq	%rbp
	retq
Ltmp247:
Lfunc_end42:
	.cfi_endproc

	.globl	__ZN110_$LT$core..ops..range..RangeFrom$LT$usize$GT$$u20$as$u20$core..slice..index..SliceIndex$LT$$u5b$T$u5d$$GT$$GT$5index17h18a51ffea93e553cE
	.p2align	4, 0x90
__ZN110_$LT$core..ops..range..RangeFrom$LT$usize$GT$$u20$as$u20$core..slice..index..SliceIndex$LT$$u5b$T$u5d$$GT$$GT$5index17h18a51ffea93e553cE:
Lfunc_begin43:
	.loc	10 493 0
	.cfi_startproc
	pushq	%rbp
	.cfi_def_cfa_offset 16
	.cfi_offset %rbp, -16
	movq	%rsp, %rbp
	.cfi_def_cfa_register %rbp
	subq	$144, %rsp
	movq	%rdi, -144(%rbp)
	movq	%rsi, -136(%rbp)
	movq	%rdx, -128(%rbp)
	movq	%rcx, -120(%rbp)
	movq	%rdi, -80(%rbp)
	movq	%rsi, -72(%rbp)
	movq	%rdx, -64(%rbp)
Ltmp248:
	.loc	10 494 12 prologue_end
	cmpq	%rdx, %rdi
	ja	LBB43_2
	.loc	10 0 12 is_stmt 0
	movq	-128(%rbp), %rcx
	movq	-136(%rbp), %rdx
	movq	-144(%rbp), %rsi
	.loc	10 498 20 is_stmt 1
	movq	%rsi, -56(%rbp)
	.loc	10 498 39 is_stmt 0
	movq	%rdx, -48(%rbp)
	movq	%rcx, -40(%rbp)
Ltmp249:
	.loc	10 483 31 is_stmt 1
	movq	%rdx, -32(%rbp)
	movq	%rcx, -24(%rbp)
Ltmp250:
	.loc	11 1630 18
	movq	%rdx, -16(%rbp)
	movq	%rcx, -8(%rbp)
Ltmp251:
	.loc	13 98 14
	movq	%rdx, -96(%rbp)
	movq	%rcx, -88(%rbp)
	movq	-88(%rbp), %rax
Ltmp252:
	.loc	10 483 18
	movq	%rsi, -112(%rbp)
	movq	%rax, -104(%rbp)
	movq	-112(%rbp), %rdi
	movq	-104(%rbp), %rsi
	callq	__ZN106_$LT$core..ops..range..Range$LT$usize$GT$$u20$as$u20$core..slice..index..SliceIndex$LT$$u5b$T$u5d$$GT$$GT$13get_unchecked17h44bc0d1a044001b1E
Ltmp253:
	.loc	10 499 6
	addq	$144, %rsp
	popq	%rbp
	retq
LBB43_2:
	.loc	10 0 6 is_stmt 0
	movq	-120(%rbp), %rdx
	movq	-128(%rbp), %rsi
	movq	-144(%rbp), %rdi
	.loc	10 495 13 is_stmt 1
	callq	__ZN4core5slice5index26slice_start_index_len_fail17h9d301bb51ec3e351E
Ltmp254:
Lfunc_end43:
	.cfi_endproc

	.globl	__ZN110_$LT$core..ops..range..RangeFrom$LT$usize$GT$$u20$as$u20$core..slice..index..SliceIndex$LT$$u5b$T$u5d$$GT$$GT$9index_mut17h6fb29f9cedf04855E
	.p2align	4, 0x90
__ZN110_$LT$core..ops..range..RangeFrom$LT$usize$GT$$u20$as$u20$core..slice..index..SliceIndex$LT$$u5b$T$u5d$$GT$$GT$9index_mut17h6fb29f9cedf04855E:
Lfunc_begin44:
	.loc	10 502 0
	.cfi_startproc
	pushq	%rbp
	.cfi_def_cfa_offset 16
	.cfi_offset %rbp, -16
	movq	%rsp, %rbp
	.cfi_def_cfa_register %rbp
	subq	$144, %rsp
	movq	%rdi, -144(%rbp)
	movq	%rsi, -136(%rbp)
	movq	%rdx, -128(%rbp)
	movq	%rcx, -120(%rbp)
	movq	%rdi, -80(%rbp)
	movq	%rsi, -72(%rbp)
	movq	%rdx, -64(%rbp)
Ltmp255:
	.loc	10 503 12 prologue_end
	cmpq	%rdx, %rdi
	ja	LBB44_2
	.loc	10 0 12 is_stmt 0
	movq	-128(%rbp), %rcx
	movq	-136(%rbp), %rdx
	movq	-144(%rbp), %rsi
	.loc	10 507 24 is_stmt 1
	movq	%rsi, -56(%rbp)
	.loc	10 507 47 is_stmt 0
	movq	%rdx, -48(%rbp)
	movq	%rcx, -40(%rbp)
Ltmp256:
	.loc	10 489 31 is_stmt 1
	movq	%rdx, -32(%rbp)
	movq	%rcx, -24(%rbp)
Ltmp257:
	.loc	14 1901 18
	movq	%rdx, -16(%rbp)
	movq	%rcx, -8(%rbp)
Ltmp258:
	.loc	13 98 14
	movq	%rdx, -96(%rbp)
	movq	%rcx, -88(%rbp)
	movq	-88(%rbp), %rax
Ltmp259:
	.loc	10 489 18
	movq	%rsi, -112(%rbp)
	movq	%rax, -104(%rbp)
	movq	-112(%rbp), %rdi
	movq	-104(%rbp), %rsi
	callq	__ZN106_$LT$core..ops..range..Range$LT$usize$GT$$u20$as$u20$core..slice..index..SliceIndex$LT$$u5b$T$u5d$$GT$$GT$17get_unchecked_mut17hc1394c331fe29ec0E
Ltmp260:
	.loc	10 508 6
	addq	$144, %rsp
	popq	%rbp
	retq
LBB44_2:
	.loc	10 0 6 is_stmt 0
	movq	-120(%rbp), %rdx
	movq	-128(%rbp), %rsi
	movq	-144(%rbp), %rdi
	.loc	10 504 13 is_stmt 1
	callq	__ZN4core5slice5index26slice_start_index_len_fail17h9d301bb51ec3e351E
Ltmp261:
Lfunc_end44:
	.cfi_endproc

	.globl	__ZN110_$LT$core..ops..range..RangeFrom$LT$usize$GT$$u20$as$u20$core..slice..index..SliceIndex$LT$$u5b$T$u5d$$GT$$GT$9index_mut17h9cd73da4c1a8c656E
	.p2align	4, 0x90
__ZN110_$LT$core..ops..range..RangeFrom$LT$usize$GT$$u20$as$u20$core..slice..index..SliceIndex$LT$$u5b$T$u5d$$GT$$GT$9index_mut17h9cd73da4c1a8c656E:
Lfunc_begin45:
	.loc	10 502 0
	.cfi_startproc
	pushq	%rbp
	.cfi_def_cfa_offset 16
	.cfi_offset %rbp, -16
	movq	%rsp, %rbp
	.cfi_def_cfa_register %rbp
	subq	$144, %rsp
	movq	%rdi, -144(%rbp)
	movq	%rsi, -136(%rbp)
	movq	%rdx, -128(%rbp)
	movq	%rcx, -120(%rbp)
	movq	%rdi, -80(%rbp)
	movq	%rsi, -72(%rbp)
	movq	%rdx, -64(%rbp)
Ltmp262:
	.loc	10 503 12 prologue_end
	cmpq	%rdx, %rdi
	ja	LBB45_2
	.loc	10 0 12 is_stmt 0
	movq	-128(%rbp), %rcx
	movq	-136(%rbp), %rdx
	movq	-144(%rbp), %rsi
	.loc	10 507 24 is_stmt 1
	movq	%rsi, -56(%rbp)
	.loc	10 507 47 is_stmt 0
	movq	%rdx, -48(%rbp)
	movq	%rcx, -40(%rbp)
Ltmp263:
	.loc	10 489 31 is_stmt 1
	movq	%rdx, -32(%rbp)
	movq	%rcx, -24(%rbp)
Ltmp264:
	.loc	14 1901 18
	movq	%rdx, -16(%rbp)
	movq	%rcx, -8(%rbp)
Ltmp265:
	.loc	13 98 14
	movq	%rdx, -96(%rbp)
	movq	%rcx, -88(%rbp)
	movq	-88(%rbp), %rax
Ltmp266:
	.loc	10 489 18
	movq	%rsi, -112(%rbp)
	movq	%rax, -104(%rbp)
	movq	-112(%rbp), %rdi
	movq	-104(%rbp), %rsi
	callq	__ZN106_$LT$core..ops..range..Range$LT$usize$GT$$u20$as$u20$core..slice..index..SliceIndex$LT$$u5b$T$u5d$$GT$$GT$17get_unchecked_mut17h2e6b50cade31f0f6E
Ltmp267:
	.loc	10 508 6
	addq	$144, %rsp
	popq	%rbp
	retq
LBB45_2:
	.loc	10 0 6 is_stmt 0
	movq	-120(%rbp), %rdx
	movq	-128(%rbp), %rsi
	movq	-144(%rbp), %rdi
	.loc	10 504 13 is_stmt 1
	callq	__ZN4core5slice5index26slice_start_index_len_fail17h9d301bb51ec3e351E
Ltmp268:
Lfunc_end45:
	.cfi_endproc

	.globl	__ZN110_$LT$core..slice..sort..merge_sort..RunVec$LT$RunAllocF$C$RunDeallocF$GT$$u20$as$u20$core..ops..drop..Drop$GT$4drop17h08fa6c06939662a5E
	.p2align	4, 0x90
__ZN110_$LT$core..slice..sort..merge_sort..RunVec$LT$RunAllocF$C$RunDeallocF$GT$$u20$as$u20$core..ops..drop..Drop$GT$4drop17h08fa6c06939662a5E:
Lfunc_begin46:
	.loc	9 1452 0
	.cfi_startproc
	pushq	%rbp
	.cfi_def_cfa_offset 16
	.cfi_offset %rbp, -16
	movq	%rsp, %rbp
	.cfi_def_cfa_register %rbp
	subq	$32, %rsp
	movq	%rdi, -8(%rbp)
Ltmp269:
	.loc	9 1455 35 prologue_end
	movq	(%rdi), %rcx
	.loc	9 1455 49 is_stmt 0
	movq	8(%rdi), %rax
	.loc	9 1455 13
	movq	%rcx, -24(%rbp)
	movq	%rax, -16(%rbp)
	movq	-24(%rbp), %rsi
	movq	-16(%rbp), %rdx
	callq	__ZN5alloc5slice11stable_sort28_$u7b$$u7b$closure$u7d$$u7d$17h4f058b5f0b17c946E
	.loc	9 1456 10 is_stmt 1
	addq	$32, %rsp
	popq	%rbp
	retq
Ltmp270:
Lfunc_end46:
	.cfi_endproc

	.globl	__ZN110_$LT$core..slice..sort..merge_sort..RunVec$LT$RunAllocF$C$RunDeallocF$GT$$u20$as$u20$core..ops..drop..Drop$GT$4drop17h51385865cacfd1bdE
	.p2align	4, 0x90
__ZN110_$LT$core..slice..sort..merge_sort..RunVec$LT$RunAllocF$C$RunDeallocF$GT$$u20$as$u20$core..ops..drop..Drop$GT$4drop17h51385865cacfd1bdE:
Lfunc_begin47:
	.loc	9 1452 0
	.cfi_startproc
	pushq	%rbp
	.cfi_def_cfa_offset 16
	.cfi_offset %rbp, -16
	movq	%rsp, %rbp
	.cfi_def_cfa_register %rbp
	subq	$32, %rsp
	movq	%rdi, -8(%rbp)
Ltmp271:
	.loc	9 1455 35 prologue_end
	movq	(%rdi), %rcx
	.loc	9 1455 49 is_stmt 0
	movq	8(%rdi), %rax
	.loc	9 1455 13
	movq	%rcx, -24(%rbp)
	movq	%rax, -16(%rbp)
	movq	-24(%rbp), %rsi
	movq	-16(%rbp), %rdx
	callq	__ZN5alloc5slice11stable_sort28_$u7b$$u7b$closure$u7d$$u7d$17hb38e1ee48b08822cE
	.loc	9 1456 10 is_stmt 1
	addq	$32, %rsp
	popq	%rbp
	retq
Ltmp272:
Lfunc_end47:
	.cfi_endproc

	.globl	__ZN110_$LT$core..slice..sort..merge_sort..RunVec$LT$RunAllocF$C$RunDeallocF$GT$$u20$as$u20$core..ops..drop..Drop$GT$4drop17hd1763928032fbdd2E
	.p2align	4, 0x90
__ZN110_$LT$core..slice..sort..merge_sort..RunVec$LT$RunAllocF$C$RunDeallocF$GT$$u20$as$u20$core..ops..drop..Drop$GT$4drop17hd1763928032fbdd2E:
Lfunc_begin48:
	.loc	9 1452 0
	.cfi_startproc
	pushq	%rbp
	.cfi_def_cfa_offset 16
	.cfi_offset %rbp, -16
	movq	%rsp, %rbp
	.cfi_def_cfa_register %rbp
	subq	$32, %rsp
	movq	%rdi, -8(%rbp)
Ltmp273:
	.loc	9 1455 35 prologue_end
	movq	(%rdi), %rcx
	.loc	9 1455 49 is_stmt 0
	movq	8(%rdi), %rax
	.loc	9 1455 13
	movq	%rcx, -24(%rbp)
	movq	%rax, -16(%rbp)
	movq	-24(%rbp), %rsi
	movq	-16(%rbp), %rdx
	callq	__ZN5alloc5slice11stable_sort28_$u7b$$u7b$closure$u7d$$u7d$17hee50966ae70e3b91E
	.loc	9 1456 10 is_stmt 1
	addq	$32, %rsp
	popq	%rbp
	retq
Ltmp274:
Lfunc_end48:
	.cfi_endproc

	.p2align	4, 0x90
__ZN111_$LT$alloc..string..String$u20$as$u20$core..ops..index..Index$LT$core..ops..range..RangeTo$LT$usize$GT$$GT$$GT$5index17h1cae8404b59c0c5dE:
Lfunc_begin49:
	.file	17 "/rustc/2c8cc343237b8f7d5a3c3703e3a87f2eb2c54a74/library/alloc/src" "string.rs"
	.loc	17 2370 0
	.cfi_startproc
	pushq	%rbp
	.cfi_def_cfa_offset 16
	.cfi_offset %rbp, -16
	movq	%rsp, %rbp
	.cfi_def_cfa_register %rbp
	subq	$112, %rsp
	movq	%rsi, -104(%rbp)
	movq	%rdx, -96(%rbp)
	movq	%rdi, -88(%rbp)
	movq	%rsi, -80(%rbp)
Ltmp275:
	.loc	17 2371 10 prologue_end
	movq	%rdi, -64(%rbp)
Ltmp276:
	.loc	17 2389 43
	callq	__ZN72_$LT$alloc..vec..Vec$LT$T$C$A$GT$$u20$as$u20$core..ops..deref..Deref$GT$5deref17h7d6308d580c89319E
	movq	-104(%rbp), %rdi
	movq	-96(%rbp), %rcx
	movq	%rax, -56(%rbp)
	movq	%rdx, -48(%rbp)
Ltmp277:
	.file	18 "/rustc/2c8cc343237b8f7d5a3c3703e3a87f2eb2c54a74/library/core/src/str" "converts.rs"
	.loc	18 173 14
	movq	%rax, -40(%rbp)
	movq	%rdx, -32(%rbp)
	movq	-40(%rbp), %rsi
	movq	-32(%rbp), %rdx
Ltmp278:
	.loc	17 2371 10
	movq	%rsi, -24(%rbp)
	movq	%rdx, -16(%rbp)
	.loc	17 2371 19 is_stmt 0
	movq	%rdi, -8(%rbp)
Ltmp279:
	.file	19 "/rustc/2c8cc343237b8f7d5a3c3703e3a87f2eb2c54a74/library/core/src/str" "traits.rs"
	.loc	19 65 9 is_stmt 1
	callq	__ZN4core3str6traits110_$LT$impl$u20$core..slice..index..SliceIndex$LT$str$GT$$u20$for$u20$core..ops..range..RangeTo$LT$usize$GT$$GT$5index17heb782e57167ea98aE
Ltmp280:
	.loc	17 2372 6
	addq	$112, %rsp
	popq	%rbp
	retq
Ltmp281:
Lfunc_end49:
	.cfi_endproc

	.globl	__ZN111_$LT$alloc..vec..Vec$LT$T$GT$$u20$as$u20$alloc..vec..spec_from_iter_nested..SpecFromIterNested$LT$T$C$I$GT$$GT$9from_iter17h2bcfb2c37803b0e4E
	.p2align	4, 0x90
__ZN111_$LT$alloc..vec..Vec$LT$T$GT$$u20$as$u20$alloc..vec..spec_from_iter_nested..SpecFromIterNested$LT$T$C$I$GT$$GT$9from_iter17h2bcfb2c37803b0e4E:
Lfunc_begin50:
	.file	20 "/rustc/2c8cc343237b8f7d5a3c3703e3a87f2eb2c54a74/library/alloc/src/vec" "spec_from_iter_nested.rs"
	.loc	20 20 0
	.cfi_startproc
	.cfi_personality 155, _rust_eh_personality
	.cfi_lsda 16, Lexception12
	pushq	%rbp
	.cfi_def_cfa_offset 16
	.cfi_offset %rbp, -16
	movq	%rsp, %rbp
	.cfi_def_cfa_register %rbp
	subq	$464, %rsp
	movq	%rsi, -408(%rbp)
Ltmp298:
	movq	%rdi, %rax
	movq	-408(%rbp), %rdi
	movq	%rax, -400(%rbp)
	movq	%rax, -392(%rbp)
Ltmp299:
	.loc	20 26 13 prologue_end
	movb	$1, -226(%rbp)
Ltmp282:
	.loc	20 26 32 is_stmt 0
	callq	__ZN81_$LT$idna..punycode..Decode$u20$as$u20$core..iter..traits..iterator..Iterator$GT$4next17hf57ecbffc47d18b6E
Ltmp283:
	movl	%eax, -380(%rbp)
	jmp	LBB50_3
Ltmp300:
LBB50_1:
	.loc	20 45 5 is_stmt 1
	testb	$1, -226(%rbp)
	jne	LBB50_19
	jmp	LBB50_18
Ltmp301:
LBB50_2:
Ltmp284:
	.loc	20 0 5 is_stmt 0
	movq	%rax, %rcx
	movl	%edx, %eax
	movq	%rcx, -200(%rbp)
	movl	%eax, -192(%rbp)
	jmp	LBB50_1
Ltmp302:
LBB50_3:
	movl	-380(%rbp), %eax
	.loc	20 26 32 is_stmt 1
	movl	%eax, -348(%rbp)
	movl	$1, %eax
	xorl	%ecx, %ecx
	cmpl	$1114112, -348(%rbp)
	cmoveq	%rcx, %rax
	.loc	20 26 26 is_stmt 0
	cmpq	$0, %rax
	jne	LBB50_5
Ltmp303:
	.loc	20 0 26
	movq	-400(%rbp), %rax
Ltmp304:
	.loc	4 425 20 is_stmt 1
	movq	L___unnamed_6(%rip), %rdx
	movq	L___unnamed_6+8(%rip), %rcx
	.loc	4 425 9 is_stmt 0
	movq	%rdx, (%rax)
	movq	%rcx, 8(%rax)
	movq	$0, 16(%rax)
Ltmp305:
	.loc	20 45 5 is_stmt 1
	jmp	LBB50_20
Ltmp306:
LBB50_5:
	.loc	20 0 5 is_stmt 0
	movq	-408(%rbp), %rsi
	.loc	20 28 18 is_stmt 1
	movl	-348(%rbp), %eax
	movl	%eax, -412(%rbp)
	movl	%eax, -180(%rbp)
Ltmp285:
	leaq	-344(%rbp), %rdi
Ltmp307:
	.loc	20 29 34
	callq	__ZN81_$LT$idna..punycode..Decode$u20$as$u20$core..iter..traits..iterator..Iterator$GT$9size_hint17h8a8fc1f09df6f797E
Ltmp286:
	jmp	LBB50_8
Ltmp308:
LBB50_6:
	.loc	20 39 13
	movb	$1, %al
	testb	$1, %al
	jne	LBB50_14
	jmp	LBB50_1
Ltmp309:
LBB50_7:
Ltmp291:
	.loc	20 0 13 is_stmt 0
	movq	%rax, %rcx
	movl	%edx, %eax
	movq	%rcx, -200(%rbp)
	movl	%eax, -192(%rbp)
	jmp	LBB50_6
Ltmp310:
LBB50_8:
	.loc	20 29 22 is_stmt 1
	movq	-344(%rbp), %rax
	movq	%rax, -176(%rbp)
Ltmp311:
	.loc	20 31 61
	movq	%rax, -168(%rbp)
Ltmp312:
	.file	21 "/rustc/2c8cc343237b8f7d5a3c3703e3a87f2eb2c54a74/library/core/src/num" "uint_macros.rs"
	.loc	21 1022 13
	incq	%rax
	movq	$-1, %rcx
	cmoveq	%rcx, %rax
	movq	%rax, -160(%rbp)
	movq	-160(%rbp), %rax
	movq	%rax, -424(%rbp)
	movq	%rax, -152(%rbp)
Ltmp313:
	.loc	21 0 13 is_stmt 0
	movq	-424(%rbp), %rsi
	.loc	20 31 21 is_stmt 1
	movq	$4, -144(%rbp)
Ltmp314:
	.file	22 "/rustc/2c8cc343237b8f7d5a3c3703e3a87f2eb2c54a74/library/core/src" "cmp.rs"
	.loc	22 1276 5
	movq	$4, -136(%rbp)
	.loc	22 1276 12 is_stmt 0
	movq	%rsi, -128(%rbp)
Ltmp287:
	movl	$4, %edi
Ltmp315:
	.loc	22 803 13 is_stmt 1
	callq	__ZN4core3cmp6max_by17h094e7d56a89e8de4E
Ltmp288:
	movq	%rax, -432(%rbp)
	jmp	LBB50_10
Ltmp316:
LBB50_10:
	.loc	22 0 13 is_stmt 0
	movq	-432(%rbp), %rdi
	.loc	22 803 13
	movq	%rdi, -120(%rbp)
Ltmp317:
	.loc	20 32 53 is_stmt 1
	movq	%rdi, -112(%rbp)
Ltmp318:
	.loc	4 483 32
	movq	%rdi, -104(%rbp)
Ltmp319:
	.loc	4 676 45
	movq	%rdi, -96(%rbp)
Ltmp320:
	.file	23 "/rustc/2c8cc343237b8f7d5a3c3703e3a87f2eb2c54a74/library/alloc/src" "raw_vec.rs"
	.loc	23 131 37
	movb	$0, -225(%rbp)
	.loc	23 131 9 is_stmt 0
	movzbl	-225(%rbp), %esi
Ltmp289:
	callq	__ZN5alloc7raw_vec19RawVec$LT$T$C$A$GT$11allocate_in17hd0d1f423586c559fE
Ltmp290:
	movq	%rdx, -448(%rbp)
	movq	%rax, -440(%rbp)
	jmp	LBB50_11
Ltmp321:
LBB50_11:
	.loc	23 0 9
	movq	-448(%rbp), %rax
	movq	-440(%rbp), %rcx
	.loc	4 676 9 is_stmt 1
	movq	%rcx, -320(%rbp)
	movq	%rax, -312(%rbp)
	movq	$0, -304(%rbp)
Ltmp322:
	.loc	20 35 32
	leaq	-320(%rbp), %rax
	movq	%rax, -88(%rbp)
Ltmp323:
	.loc	4 1280 19
	leaq	-320(%rbp), %rax
	movq	%rax, -80(%rbp)
Ltmp324:
	.loc	23 224 9
	movq	-312(%rbp), %rax
	movq	%rax, -456(%rbp)
	movq	%rax, -72(%rbp)
Ltmp325:
	.file	24 "/rustc/2c8cc343237b8f7d5a3c3703e3a87f2eb2c54a74/library/core/src/ptr" "unique.rs"
	.loc	24 104 9
	movq	%rax, -64(%rbp)
Ltmp326:
	.file	25 "/rustc/2c8cc343237b8f7d5a3c3703e3a87f2eb2c54a74/library/core/src/ptr" "non_null.rs"
	.loc	25 326 9
	movq	%rax, -56(%rbp)
Ltmp327:
	.loc	4 1282 21
	movq	%rax, -48(%rbp)
Ltmp328:
	.loc	14 52 36
	movq	%rax, -224(%rbp)
	.loc	14 52 18 is_stmt 0
	movq	-224(%rbp), %rax
	movq	%rax, -40(%rbp)
Ltmp329:
	.loc	14 38 13 is_stmt 1
	movq	%rax, -32(%rbp)
Ltmp330:
	.loc	14 215 33
	movq	%rax, -24(%rbp)
	.loc	14 215 18 is_stmt 0
	movq	%rax, -16(%rbp)
	movq	-16(%rbp), %rax
Ltmp331:
	.loc	14 0 18
	movq	-408(%rbp), %rcx
	movq	-456(%rbp), %rax
	movl	-412(%rbp), %edx
	.loc	20 35 53 is_stmt 1
	movl	%edx, -292(%rbp)
Ltmp332:
	.loc	12 1354 9
	movl	-292(%rbp), %edx
	movl	%edx, (%rax)
	leaq	-320(%rbp), %rax
Ltmp333:
	.loc	20 36 21
	movq	%rax, -8(%rbp)
Ltmp334:
	.loc	4 1377 9
	movq	$1, -304(%rbp)
Ltmp335:
	.loc	20 38 17
	movq	-304(%rbp), %rax
	movq	%rax, -360(%rbp)
	movq	-320(%rbp), %rax
	movq	-312(%rbp), %rdx
	movq	%rdx, -368(%rbp)
	movq	%rax, -376(%rbp)
Ltmp336:
	.loc	20 43 64
	movb	$0, -226(%rbp)
	movq	48(%rcx), %rax
	movq	%rax, -240(%rbp)
	movq	40(%rcx), %rax
	movq	%rax, -248(%rbp)
	movq	32(%rcx), %rax
	movq	%rax, -256(%rbp)
	movq	24(%rcx), %rax
	movq	%rax, -264(%rbp)
	movq	16(%rcx), %rax
	movq	%rax, -272(%rbp)
	movq	(%rcx), %rax
	movq	8(%rcx), %rcx
	movq	%rcx, -280(%rbp)
	movq	%rax, -288(%rbp)
Ltmp292:
	leaq	-376(%rbp), %rdi
	leaq	-288(%rbp), %rsi
	.loc	20 43 9 is_stmt 0
	callq	__ZN97_$LT$alloc..vec..Vec$LT$T$C$A$GT$$u20$as$u20$alloc..vec..spec_extend..SpecExtend$LT$T$C$I$GT$$GT$11spec_extend17h9c3d4cd3f4448701E
Ltmp293:
	jmp	LBB50_17
Ltmp337:
LBB50_13:
Ltmp297:
	.loc	20 20 5 is_stmt 1
	callq	__ZN4core9panicking19panic_cannot_unwind17h1fbca7e1d7f56ae1E
Ltmp338:
LBB50_14:
	.loc	20 39 13
	jmp	LBB50_1
Ltmp339:
LBB50_15:
Ltmp295:
	.loc	20 0 13 is_stmt 0
	leaq	-376(%rbp), %rdi
	.loc	20 45 5 is_stmt 1
	callq	__ZN4core3ptr48drop_in_place$LT$alloc..vec..Vec$LT$char$GT$$GT$17h9115f017f070ae5fE
Ltmp296:
	jmp	LBB50_1
Ltmp340:
LBB50_16:
Ltmp294:
	.loc	20 0 5 is_stmt 0
	movq	%rax, %rcx
	movl	%edx, %eax
	movq	%rcx, -200(%rbp)
	movl	%eax, -192(%rbp)
	jmp	LBB50_15
Ltmp341:
LBB50_17:
	movq	-400(%rbp), %rax
Ltmp342:
	.loc	20 44 9 is_stmt 1
	movq	-376(%rbp), %rcx
	movq	%rcx, (%rax)
	movq	-368(%rbp), %rcx
	movq	%rcx, 8(%rax)
	movq	-360(%rbp), %rcx
	movq	%rcx, 16(%rax)
Ltmp343:
	.loc	20 45 5
	jmp	LBB50_20
Ltmp344:
LBB50_18:
	.loc	20 20 5
	movq	-200(%rbp), %rdi
	callq	__Unwind_Resume
Ltmp345:
LBB50_19:
	.loc	20 45 5
	jmp	LBB50_18
Ltmp346:
LBB50_20:
	.loc	20 0 5 is_stmt 0
	movq	-392(%rbp), %rax
	.loc	20 45 6
	addq	$464, %rsp
	popq	%rbp
	retq
Ltmp347:
Lfunc_end50:
	.cfi_endproc
	.section	__TEXT,__gcc_except_tab
	.p2align	2
GCC_except_table50:
Lexception12:
	.byte	255
	.byte	255
	.byte	1
	.uleb128 Lcst_end12-Lcst_begin12
Lcst_begin12:
	.uleb128 Ltmp282-Lfunc_begin50
	.uleb128 Ltmp283-Ltmp282
	.uleb128 Ltmp284-Lfunc_begin50
	.byte	0
	.uleb128 Ltmp285-Lfunc_begin50
	.uleb128 Ltmp290-Ltmp285
	.uleb128 Ltmp291-Lfunc_begin50
	.byte	0
	.uleb128 Ltmp292-Lfunc_begin50
	.uleb128 Ltmp293-Ltmp292
	.uleb128 Ltmp294-Lfunc_begin50
	.byte	0
	.uleb128 Ltmp295-Lfunc_begin50
	.uleb128 Ltmp296-Ltmp295
	.uleb128 Ltmp297-Lfunc_begin50
	.byte	0
	.uleb128 Ltmp296-Lfunc_begin50
	.uleb128 Lfunc_end50-Ltmp296
	.byte	0
	.byte	0
Lcst_end12:
	.p2align	2

	.section	__TEXT,__text,regular,pure_instructions
	.p2align	4, 0x90
__ZN113_$LT$alloc..string..String$u20$as$u20$core..ops..index..Index$LT$core..ops..range..RangeFrom$LT$usize$GT$$GT$$GT$5index17hdebc81d1cab665c7E:
Lfunc_begin51:
	.loc	17 2379 0 is_stmt 1
	.cfi_startproc
	pushq	%rbp
	.cfi_def_cfa_offset 16
	.cfi_offset %rbp, -16
	movq	%rsp, %rbp
	.cfi_def_cfa_register %rbp
	subq	$112, %rsp
	movq	%rsi, -104(%rbp)
	movq	%rdx, -96(%rbp)
	movq	%rdi, -88(%rbp)
	movq	%rsi, -80(%rbp)
Ltmp348:
	.loc	17 2380 10 prologue_end
	movq	%rdi, -64(%rbp)
Ltmp349:
	.loc	17 2389 43
	callq	__ZN72_$LT$alloc..vec..Vec$LT$T$C$A$GT$$u20$as$u20$core..ops..deref..Deref$GT$5deref17h7d6308d580c89319E
	movq	-104(%rbp), %rdi
	movq	-96(%rbp), %rcx
	movq	%rax, -56(%rbp)
	movq	%rdx, -48(%rbp)
Ltmp350:
	.loc	18 173 14
	movq	%rax, -40(%rbp)
	movq	%rdx, -32(%rbp)
	movq	-40(%rbp), %rsi
	movq	-32(%rbp), %rdx
Ltmp351:
	.loc	17 2380 10
	movq	%rsi, -24(%rbp)
	movq	%rdx, -16(%rbp)
	.loc	17 2380 19 is_stmt 0
	movq	%rdi, -8(%rbp)
Ltmp352:
	.loc	19 65 9 is_stmt 1
	callq	__ZN4core3str6traits112_$LT$impl$u20$core..slice..index..SliceIndex$LT$str$GT$$u20$for$u20$core..ops..range..RangeFrom$LT$usize$GT$$GT$5index17h5732db873ac716ddE
Ltmp353:
	.loc	17 2381 6
	addq	$112, %rsp
	popq	%rbp
	retq
Ltmp354:
Lfunc_end51:
	.cfi_endproc

	.globl	__ZN116_$LT$unicode_normalization..decompose..Decompositions$LT$I$GT$$u20$as$u20$core..iter..traits..iterator..Iterator$GT$4next17h51f15cd2894e3955E
	.p2align	4, 0x90
__ZN116_$LT$unicode_normalization..decompose..Decompositions$LT$I$GT$$u20$as$u20$core..iter..traits..iterator..Iterator$GT$4next17h51f15cd2894e3955E:
Lfunc_begin52:
	.file	26 "/Users/natalie/.cargo/registry/src/github.com-1ecc6299db9ec823/unicode-normalization-0.1.22/src" "decompose.rs"
	.loc	26 107 0
	.cfi_startproc
	.cfi_personality 155, _rust_eh_personality
	.cfi_lsda 16, Lexception13
	pushq	%rbp
	.cfi_def_cfa_offset 16
	.cfi_offset %rbp, -16
	movq	%rsp, %rbp
	.cfi_def_cfa_register %rbp
	subq	$336, %rsp
	movq	%rdi, -256(%rbp)
LBB52_1:
Ltmp362:
	.loc	26 108 15 prologue_end
	movq	-256(%rbp), %rax
	cmpq	$0, 24(%rax)
	jne	LBB52_3
	.loc	26 109 20
	movq	-256(%rbp), %rdi
	callq	__ZN100_$LT$core..iter..adapters..fuse..Fuse$LT$I$GT$$u20$as$u20$core..iter..traits..iterator..Iterator$GT$4next17h9c1cc634d192aa1fE
	movl	%eax, %ecx
	.loc	26 109 38 is_stmt 0
	movq	-256(%rbp), %rax
	addq	$72, %rax
	.loc	26 109 19
	movl	%ecx, -240(%rbp)
	movq	%rax, -232(%rbp)
	movl	$1, %eax
	xorl	%ecx, %ecx
	cmpl	$1114112, -240(%rbp)
	cmoveq	%rcx, %rax
	.loc	26 109 13
	cmpq	$0, %rax
	je	LBB52_13
	jmp	LBB52_17
LBB52_3:
	.loc	26 143 23 is_stmt 1
	movq	-256(%rbp), %rax
	movq	%rax, %rcx
	addq	$32, %rcx
	movq	%rcx, -272(%rbp)
	.loc	26 143 35 is_stmt 0
	movq	-256(%rbp), %rdx
	movq	16(%rdx), %rdx
	movq	%rdx, -264(%rbp)
	movq	%rcx, -96(%rbp)
	movq	%rdx, -88(%rbp)
Ltmp363:
	.file	27 "/Users/natalie/.cargo/registry/src/github.com-1ecc6299db9ec823/tinyvec-1.6.0/src" "tinyvec.rs"
	.loc	27 166 5 is_stmt 1
	movb	$0, -97(%rbp)
	movb	$1, -97(%rbp)
	movq	%rcx, -48(%rbp)
Ltmp364:
	.file	28 "/Users/natalie/.cargo/registry/src/github.com-1ecc6299db9ec823/tinyvec_macros-0.1.0/src" "lib.rs"
	.loc	28 16 19
	movl	32(%rax), %eax
	.loc	28 16 13 is_stmt 0
	cmpq	$0, %rax
	jne	LBB52_6
	.loc	28 0 13
	movq	-272(%rbp), %rax
	.loc	28 17 35 is_stmt 1
	movq	%rax, %rcx
	addq	$4, %rcx
	movq	%rcx, -32(%rbp)
	movq	%rcx, -16(%rbp)
Ltmp365:
	.file	29 "/Users/natalie/.cargo/registry/src/github.com-1ecc6299db9ec823/tinyvec-1.6.0/src" "arrayvec.rs"
	.loc	29 157 6
	movq	%rax, %rdi
	addq	$8, %rdi
	movq	%rdi, -8(%rbp)
	.loc	29 157 29 is_stmt 0
	movzwl	4(%rax), %eax
	.loc	29 157 27
	movq	%rax, -24(%rbp)
	.loc	29 157 6
	movq	-24(%rbp), %rdx
Ltmp357:
	leaq	l___unnamed_7(%rip), %rcx
	movl	$4, %esi
	callq	__ZN4core5slice5index74_$LT$impl$u20$core..ops..index..Index$LT$I$GT$$u20$for$u20$$u5b$T$u5d$$GT$5index17h5f77c09b3436a71fE
Ltmp358:
	movq	%rdx, -288(%rbp)
	movq	%rax, -280(%rbp)
	jmp	LBB52_5
Ltmp366:
LBB52_5:
	.loc	29 0 6
	movq	-288(%rbp), %rax
	movq	-280(%rbp), %rcx
	.loc	28 17 41 is_stmt 1
	movq	%rcx, -64(%rbp)
	movq	%rax, -56(%rbp)
Ltmp367:
	.loc	28 17 63 is_stmt 0
	jmp	LBB52_8
LBB52_6:
	.loc	28 0 63
	movq	-272(%rbp), %rdi
	.loc	28 18 33 is_stmt 1
	addq	$8, %rdi
	movq	%rdi, -40(%rbp)
Ltmp355:
Ltmp368:
	.loc	28 18 39 is_stmt 0
	callq	__ZN72_$LT$alloc..vec..Vec$LT$T$C$A$GT$$u20$as$u20$core..ops..deref..Deref$GT$5deref17h00544b4fd44f75daE
Ltmp356:
	movq	%rdx, -304(%rbp)
	movq	%rax, -296(%rbp)
	jmp	LBB52_7
LBB52_7:
	.loc	28 0 39
	movq	-304(%rbp), %rax
	movq	-296(%rbp), %rcx
	.loc	28 18 39
	movq	%rcx, -64(%rbp)
	movq	%rax, -56(%rbp)
Ltmp369:
LBB52_8:
	.loc	28 0 39
	movq	-264(%rbp), %rdx
	.loc	28 20 10 is_stmt 1
	movq	-64(%rbp), %rdi
	movq	-56(%rbp), %rsi
Ltmp370:
	.loc	27 166 19
	movb	$0, -97(%rbp)
Ltmp359:
	.loc	27 166 6 is_stmt 0
	leaq	l___unnamed_8(%rip), %rcx
	callq	__ZN4core5slice5index74_$LT$impl$u20$core..ops..index..Index$LT$I$GT$$u20$for$u20$$u5b$T$u5d$$GT$5index17h94478153a7cc6072E
Ltmp360:
	movq	%rax, -312(%rbp)
	jmp	LBB52_12
LBB52_9:
Ltmp361:
	.loc	27 0 6
	movq	%rax, %rcx
	movl	%edx, %eax
	movq	%rcx, -80(%rbp)
	movl	%eax, -72(%rbp)
	.loc	27 167 3 is_stmt 1
	testb	$1, -97(%rbp)
	jne	LBB52_11
LBB52_10:
	.loc	27 165 3
	movq	-80(%rbp), %rdi
	callq	__Unwind_Resume
LBB52_11:
	.loc	27 167 3
	jmp	LBB52_10
Ltmp371:
LBB52_12:
	.loc	27 0 3 is_stmt 0
	movq	-312(%rbp), %rax
	.loc	26 143 17 is_stmt 1
	movl	4(%rax), %eax
	movl	%eax, -316(%rbp)
	movl	%eax, -196(%rbp)
Ltmp372:
	.loc	26 144 9
	movq	-256(%rbp), %rdi
	callq	__ZN21unicode_normalization9decompose23Decompositions$LT$I$GT$20increment_next_ready17hd9e2067eebb6854cE
	movl	-316(%rbp), %eax
	.loc	26 145 9
	movl	%eax, -244(%rbp)
Ltmp373:
	.loc	26 146 6
	jmp	LBB52_25
LBB52_13:
	.loc	26 117 24
	movq	-256(%rbp), %rax
	movq	%rax, %rcx
	addq	$32, %rcx
	movq	%rcx, -328(%rbp)
	movq	%rcx, -160(%rbp)
	movq	%rcx, -144(%rbp)
Ltmp374:
	.loc	28 16 19
	movl	32(%rax), %eax
	.loc	28 16 13 is_stmt 0
	cmpq	$0, %rax
	jne	LBB52_15
	.loc	28 0 13
	movq	-328(%rbp), %rax
	.loc	28 17 35 is_stmt 1
	movq	%rax, %rcx
	addq	$4, %rcx
	movq	%rcx, -128(%rbp)
	movq	%rcx, -120(%rbp)
Ltmp375:
	.loc	29 579 5
	movzwl	4(%rax), %eax
Ltmp376:
	.loc	28 17 41
	movq	%rax, -152(%rbp)
	jmp	LBB52_16
Ltmp377:
LBB52_15:
	.loc	28 0 41 is_stmt 0
	movq	-328(%rbp), %rdi
	.loc	28 18 33 is_stmt 1
	addq	$8, %rdi
	movq	%rdi, -136(%rbp)
Ltmp378:
	.loc	28 18 39 is_stmt 0
	callq	__ZN5alloc3vec16Vec$LT$T$C$A$GT$3len17h8a07093eb989e862E
	movq	%rax, -152(%rbp)
Ltmp379:
LBB52_16:
	.loc	27 844 5 is_stmt 1
	cmpq	$0, -152(%rbp)
Ltmp380:
	.loc	26 117 24
	je	LBB52_24
	jmp	LBB52_20
LBB52_17:
	.loc	26 109 19
	movq	-232(%rbp), %rax
	movb	(%rax), %al
	andb	$1, %al
	movzbl	%al, %eax
	.loc	26 109 13 is_stmt 0
	cmpq	$0, %rax
	jne	LBB52_19
	.loc	26 110 23 is_stmt 1
	movl	-240(%rbp), %edi
	movl	%edi, -200(%rbp)
Ltmp381:
	.loc	26 111 58
	leaq	-256(%rbp), %rax
	movq	%rax, -224(%rbp)
	.loc	26 111 21 is_stmt 0
	movq	-224(%rbp), %rsi
	callq	__ZN21unicode_normalization9normalize19decompose_canonical17h49084500251cbc47E
	jmp	LBB52_1
Ltmp382:
LBB52_19:
	.loc	26 113 23 is_stmt 1
	movl	-240(%rbp), %edi
	movl	%edi, -204(%rbp)
Ltmp383:
	.loc	26 114 59
	leaq	-256(%rbp), %rax
	movq	%rax, -216(%rbp)
	.loc	26 114 21 is_stmt 0
	movq	-216(%rbp), %rsi
	callq	__ZN21unicode_normalization9normalize20decompose_compatible17h82606b0bbcc0b6aeE
	jmp	LBB52_1
Ltmp384:
LBB52_20:
	.loc	26 120 25 is_stmt 1
	movq	-256(%rbp), %rdi
	callq	__ZN21unicode_normalization9decompose23Decompositions$LT$I$GT$12sort_pending17hbb60f0cb273ffa92E
	.loc	26 121 42
	movq	-256(%rbp), %rax
	movq	%rax, %rcx
	addq	$32, %rcx
	movq	%rcx, -336(%rbp)
	movq	%rcx, -184(%rbp)
Ltmp385:
	.loc	28 16 19
	movl	32(%rax), %eax
	.loc	28 16 13 is_stmt 0
	cmpq	$0, %rax
	jne	LBB52_22
	.loc	28 0 13
	movq	-336(%rbp), %rax
	.loc	28 17 35 is_stmt 1
	movq	%rax, %rcx
	addq	$4, %rcx
	movq	%rcx, -168(%rbp)
	movq	%rcx, -112(%rbp)
Ltmp386:
	.loc	29 579 5
	movzwl	4(%rax), %eax
Ltmp387:
	.loc	28 17 41
	movq	%rax, -192(%rbp)
	jmp	LBB52_23
Ltmp388:
LBB52_22:
	.loc	28 0 41 is_stmt 0
	movq	-336(%rbp), %rdi
	.loc	28 18 33 is_stmt 1
	addq	$8, %rdi
	movq	%rdi, -176(%rbp)
Ltmp389:
	.loc	28 18 39 is_stmt 0
	callq	__ZN5alloc3vec16Vec$LT$T$C$A$GT$3len17h8a07093eb989e862E
	movq	%rax, -192(%rbp)
Ltmp390:
LBB52_23:
	.loc	28 20 10 is_stmt 1
	movq	-192(%rbp), %rcx
Ltmp391:
	.loc	26 121 25
	movq	-256(%rbp), %rax
	movq	%rcx, 24(%rax)
	.file	30 "/Users/natalie/.cargo/registry/src/github.com-1ecc6299db9ec823/idna-0.3.0" "src/lib.rs"
	.loc	30 1 1
	jmp	LBB52_3
LBB52_24:
	.loc	26 118 32
	movl	$1114112, -244(%rbp)
LBB52_25:
	.loc	26 146 6
	movl	-244(%rbp), %eax
	addq	$336, %rsp
	popq	%rbp
	retq
Ltmp392:
Lfunc_end52:
	.cfi_endproc
	.section	__TEXT,__gcc_except_tab
	.p2align	2
GCC_except_table52:
Lexception13:
	.byte	255
	.byte	255
	.byte	1
	.uleb128 Lcst_end13-Lcst_begin13
Lcst_begin13:
	.uleb128 Lfunc_begin52-Lfunc_begin52
	.uleb128 Ltmp357-Lfunc_begin52
	.byte	0
	.byte	0
	.uleb128 Ltmp357-Lfunc_begin52
	.uleb128 Ltmp360-Ltmp357
	.uleb128 Ltmp361-Lfunc_begin52
	.byte	0
	.uleb128 Ltmp360-Lfunc_begin52
	.uleb128 Lfunc_end52-Ltmp360
	.byte	0
	.byte	0
Lcst_end13:
	.p2align	2

	.section	__TEXT,__text,regular,pure_instructions
	.globl	__ZN116_$LT$unicode_normalization..decompose..Decompositions$LT$I$GT$$u20$as$u20$core..iter..traits..iterator..Iterator$GT$4next17hd18a453525d5afd3E
	.p2align	4, 0x90
__ZN116_$LT$unicode_normalization..decompose..Decompositions$LT$I$GT$$u20$as$u20$core..iter..traits..iterator..Iterator$GT$4next17hd18a453525d5afd3E:
Lfunc_begin53:
	.loc	26 107 0
	.cfi_startproc
	.cfi_personality 155, _rust_eh_personality
	.cfi_lsda 16, Lexception14
	pushq	%rbp
	.cfi_def_cfa_offset 16
	.cfi_offset %rbp, -16
	movq	%rsp, %rbp
	.cfi_def_cfa_register %rbp
	subq	$336, %rsp
	movq	%rdi, -256(%rbp)
LBB53_1:
Ltmp400:
	.loc	26 108 15 prologue_end
	movq	-256(%rbp), %rax
	cmpq	$0, 8(%rax)
	jne	LBB53_3
	.loc	26 109 20
	movq	-256(%rbp), %rdi
	addq	$16, %rdi
	callq	__ZN100_$LT$core..iter..adapters..fuse..Fuse$LT$I$GT$$u20$as$u20$core..iter..traits..iterator..Iterator$GT$4next17hfe6c0f80766c34b7E
	movl	%eax, %ecx
	.loc	26 109 38 is_stmt 0
	movq	-256(%rbp), %rax
	addq	$104, %rax
	.loc	26 109 19
	movl	%ecx, -240(%rbp)
	movq	%rax, -232(%rbp)
	movl	$1, %eax
	xorl	%ecx, %ecx
	cmpl	$1114112, -240(%rbp)
	cmoveq	%rcx, %rax
	.loc	26 109 13
	cmpq	$0, %rax
	je	LBB53_13
	jmp	LBB53_17
LBB53_3:
	.loc	26 143 23 is_stmt 1
	movq	-256(%rbp), %rax
	movq	%rax, %rcx
	addq	$64, %rcx
	movq	%rcx, -272(%rbp)
	.loc	26 143 35 is_stmt 0
	movq	-256(%rbp), %rdx
	movq	(%rdx), %rdx
	movq	%rdx, -264(%rbp)
	movq	%rcx, -96(%rbp)
	movq	%rdx, -88(%rbp)
Ltmp401:
	.loc	27 166 5 is_stmt 1
	movb	$0, -97(%rbp)
	movb	$1, -97(%rbp)
	movq	%rcx, -48(%rbp)
Ltmp402:
	.loc	28 16 19
	movl	64(%rax), %eax
	.loc	28 16 13 is_stmt 0
	cmpq	$0, %rax
	jne	LBB53_6
	.loc	28 0 13
	movq	-272(%rbp), %rax
	.loc	28 17 35 is_stmt 1
	movq	%rax, %rcx
	addq	$4, %rcx
	movq	%rcx, -32(%rbp)
	movq	%rcx, -16(%rbp)
Ltmp403:
	.loc	29 157 6
	movq	%rax, %rdi
	addq	$8, %rdi
	movq	%rdi, -8(%rbp)
	.loc	29 157 29 is_stmt 0
	movzwl	4(%rax), %eax
	.loc	29 157 27
	movq	%rax, -24(%rbp)
	.loc	29 157 6
	movq	-24(%rbp), %rdx
Ltmp395:
	leaq	l___unnamed_7(%rip), %rcx
	movl	$4, %esi
	callq	__ZN4core5slice5index74_$LT$impl$u20$core..ops..index..Index$LT$I$GT$$u20$for$u20$$u5b$T$u5d$$GT$5index17h5f77c09b3436a71fE
Ltmp396:
	movq	%rdx, -288(%rbp)
	movq	%rax, -280(%rbp)
	jmp	LBB53_5
Ltmp404:
LBB53_5:
	.loc	29 0 6
	movq	-288(%rbp), %rax
	movq	-280(%rbp), %rcx
	.loc	28 17 41 is_stmt 1
	movq	%rcx, -64(%rbp)
	movq	%rax, -56(%rbp)
Ltmp405:
	.loc	28 17 63 is_stmt 0
	jmp	LBB53_8
LBB53_6:
	.loc	28 0 63
	movq	-272(%rbp), %rdi
	.loc	28 18 33 is_stmt 1
	addq	$8, %rdi
	movq	%rdi, -40(%rbp)
Ltmp393:
Ltmp406:
	.loc	28 18 39 is_stmt 0
	callq	__ZN72_$LT$alloc..vec..Vec$LT$T$C$A$GT$$u20$as$u20$core..ops..deref..Deref$GT$5deref17h00544b4fd44f75daE
Ltmp394:
	movq	%rdx, -304(%rbp)
	movq	%rax, -296(%rbp)
	jmp	LBB53_7
LBB53_7:
	.loc	28 0 39
	movq	-304(%rbp), %rax
	movq	-296(%rbp), %rcx
	.loc	28 18 39
	movq	%rcx, -64(%rbp)
	movq	%rax, -56(%rbp)
Ltmp407:
LBB53_8:
	.loc	28 0 39
	movq	-264(%rbp), %rdx
	.loc	28 20 10 is_stmt 1
	movq	-64(%rbp), %rdi
	movq	-56(%rbp), %rsi
Ltmp408:
	.loc	27 166 19
	movb	$0, -97(%rbp)
Ltmp397:
	.loc	27 166 6 is_stmt 0
	leaq	l___unnamed_8(%rip), %rcx
	callq	__ZN4core5slice5index74_$LT$impl$u20$core..ops..index..Index$LT$I$GT$$u20$for$u20$$u5b$T$u5d$$GT$5index17h94478153a7cc6072E
Ltmp398:
	movq	%rax, -312(%rbp)
	jmp	LBB53_12
LBB53_9:
Ltmp399:
	.loc	27 0 6
	movq	%rax, %rcx
	movl	%edx, %eax
	movq	%rcx, -80(%rbp)
	movl	%eax, -72(%rbp)
	.loc	27 167 3 is_stmt 1
	testb	$1, -97(%rbp)
	jne	LBB53_11
LBB53_10:
	.loc	27 165 3
	movq	-80(%rbp), %rdi
	callq	__Unwind_Resume
LBB53_11:
	.loc	27 167 3
	jmp	LBB53_10
Ltmp409:
LBB53_12:
	.loc	27 0 3 is_stmt 0
	movq	-312(%rbp), %rax
	.loc	26 143 17 is_stmt 1
	movl	4(%rax), %eax
	movl	%eax, -316(%rbp)
	movl	%eax, -196(%rbp)
Ltmp410:
	.loc	26 144 9
	movq	-256(%rbp), %rdi
	callq	__ZN21unicode_normalization9decompose23Decompositions$LT$I$GT$20increment_next_ready17hcd22f2679933c3caE
	movl	-316(%rbp), %eax
	.loc	26 145 9
	movl	%eax, -244(%rbp)
Ltmp411:
	.loc	26 146 6
	jmp	LBB53_25
LBB53_13:
	.loc	26 117 24
	movq	-256(%rbp), %rax
	movq	%rax, %rcx
	addq	$64, %rcx
	movq	%rcx, -328(%rbp)
	movq	%rcx, -160(%rbp)
	movq	%rcx, -144(%rbp)
Ltmp412:
	.loc	28 16 19
	movl	64(%rax), %eax
	.loc	28 16 13 is_stmt 0
	cmpq	$0, %rax
	jne	LBB53_15
	.loc	28 0 13
	movq	-328(%rbp), %rax
	.loc	28 17 35 is_stmt 1
	movq	%rax, %rcx
	addq	$4, %rcx
	movq	%rcx, -128(%rbp)
	movq	%rcx, -120(%rbp)
Ltmp413:
	.loc	29 579 5
	movzwl	4(%rax), %eax
Ltmp414:
	.loc	28 17 41
	movq	%rax, -152(%rbp)
	jmp	LBB53_16
Ltmp415:
LBB53_15:
	.loc	28 0 41 is_stmt 0
	movq	-328(%rbp), %rdi
	.loc	28 18 33 is_stmt 1
	addq	$8, %rdi
	movq	%rdi, -136(%rbp)
Ltmp416:
	.loc	28 18 39 is_stmt 0
	callq	__ZN5alloc3vec16Vec$LT$T$C$A$GT$3len17h8a07093eb989e862E
	movq	%rax, -152(%rbp)
Ltmp417:
LBB53_16:
	.loc	27 844 5 is_stmt 1
	cmpq	$0, -152(%rbp)
Ltmp418:
	.loc	26 117 24
	je	LBB53_24
	jmp	LBB53_20
LBB53_17:
	.loc	26 109 19
	movq	-232(%rbp), %rax
	movb	(%rax), %al
	andb	$1, %al
	movzbl	%al, %eax
	.loc	26 109 13 is_stmt 0
	cmpq	$0, %rax
	jne	LBB53_19
	.loc	26 110 23 is_stmt 1
	movl	-240(%rbp), %edi
	movl	%edi, -200(%rbp)
Ltmp419:
	.loc	26 111 58
	leaq	-256(%rbp), %rax
	movq	%rax, -224(%rbp)
	.loc	26 111 21 is_stmt 0
	movq	-224(%rbp), %rsi
	callq	__ZN21unicode_normalization9normalize19decompose_canonical17h32e015b580341fccE
	jmp	LBB53_1
Ltmp420:
LBB53_19:
	.loc	26 113 23 is_stmt 1
	movl	-240(%rbp), %edi
	movl	%edi, -204(%rbp)
Ltmp421:
	.loc	26 114 59
	leaq	-256(%rbp), %rax
	movq	%rax, -216(%rbp)
	.loc	26 114 21 is_stmt 0
	movq	-216(%rbp), %rsi
	callq	__ZN21unicode_normalization9normalize20decompose_compatible17he56ba1ae162b8929E
	jmp	LBB53_1
Ltmp422:
LBB53_20:
	.loc	26 120 25 is_stmt 1
	movq	-256(%rbp), %rdi
	callq	__ZN21unicode_normalization9decompose23Decompositions$LT$I$GT$12sort_pending17h0e85b5a84e0c54d1E
	.loc	26 121 42
	movq	-256(%rbp), %rax
	movq	%rax, %rcx
	addq	$64, %rcx
	movq	%rcx, -336(%rbp)
	movq	%rcx, -184(%rbp)
Ltmp423:
	.loc	28 16 19
	movl	64(%rax), %eax
	.loc	28 16 13 is_stmt 0
	cmpq	$0, %rax
	jne	LBB53_22
	.loc	28 0 13
	movq	-336(%rbp), %rax
	.loc	28 17 35 is_stmt 1
	movq	%rax, %rcx
	addq	$4, %rcx
	movq	%rcx, -168(%rbp)
	movq	%rcx, -112(%rbp)
Ltmp424:
	.loc	29 579 5
	movzwl	4(%rax), %eax
Ltmp425:
	.loc	28 17 41
	movq	%rax, -192(%rbp)
	jmp	LBB53_23
Ltmp426:
LBB53_22:
	.loc	28 0 41 is_stmt 0
	movq	-336(%rbp), %rdi
	.loc	28 18 33 is_stmt 1
	addq	$8, %rdi
	movq	%rdi, -176(%rbp)
Ltmp427:
	.loc	28 18 39 is_stmt 0
	callq	__ZN5alloc3vec16Vec$LT$T$C$A$GT$3len17h8a07093eb989e862E
	movq	%rax, -192(%rbp)
Ltmp428:
LBB53_23:
	.loc	28 20 10 is_stmt 1
	movq	-192(%rbp), %rcx
Ltmp429:
	.loc	26 121 25
	movq	-256(%rbp), %rax
	movq	%rcx, 8(%rax)
	.loc	30 1 1
	jmp	LBB53_3
LBB53_24:
	.loc	26 118 32
	movl	$1114112, -244(%rbp)
LBB53_25:
	.loc	26 146 6
	movl	-244(%rbp), %eax
	addq	$336, %rsp
	popq	%rbp
	retq
Ltmp430:
Lfunc_end53:
	.cfi_endproc
	.section	__TEXT,__gcc_except_tab
	.p2align	2
GCC_except_table53:
Lexception14:
	.byte	255
	.byte	255
	.byte	1
	.uleb128 Lcst_end14-Lcst_begin14
Lcst_begin14:
	.uleb128 Lfunc_begin53-Lfunc_begin53
	.uleb128 Ltmp395-Lfunc_begin53
	.byte	0
	.byte	0
	.uleb128 Ltmp395-Lfunc_begin53
	.uleb128 Ltmp398-Ltmp395
	.uleb128 Ltmp399-Lfunc_begin53
	.byte	0
	.uleb128 Ltmp398-Lfunc_begin53
	.uleb128 Lfunc_end53-Ltmp398
	.byte	0
	.byte	0
Lcst_end14:
	.p2align	2

	.section	__TEXT,__text,regular,pure_instructions
	.globl	__ZN116_$LT$unicode_normalization..decompose..Decompositions$LT$I$GT$$u20$as$u20$core..iter..traits..iterator..Iterator$GT$4next28_$u7b$$u7b$closure$u7d$$u7d$17h089524389af9a1c1E
	.p2align	4, 0x90
__ZN116_$LT$unicode_normalization..decompose..Decompositions$LT$I$GT$$u20$as$u20$core..iter..traits..iterator..Iterator$GT$4next28_$u7b$$u7b$closure$u7d$$u7d$17h089524389af9a1c1E:
Lfunc_begin54:
	.loc	26 114 0
	.cfi_startproc
	pushq	%rbp
	.cfi_def_cfa_offset 16
	.cfi_offset %rbp, -16
	movq	%rsp, %rbp
	.cfi_def_cfa_register %rbp
	subq	$16, %rsp
	movq	%rdi, -16(%rbp)
	movl	%esi, -4(%rbp)
Ltmp431:
	.loc	26 114 63 prologue_end
	movq	(%rdi), %rax
	movq	(%rax), %rdi
	callq	__ZN21unicode_normalization9decompose23Decompositions$LT$I$GT$9push_back17h5ee1574ba30e37f3E
	.loc	26 114 80 is_stmt 0
	addq	$16, %rsp
	popq	%rbp
	retq
Ltmp432:
Lfunc_end54:
	.cfi_endproc

	.globl	__ZN116_$LT$unicode_normalization..decompose..Decompositions$LT$I$GT$$u20$as$u20$core..iter..traits..iterator..Iterator$GT$4next28_$u7b$$u7b$closure$u7d$$u7d$17h0cd9c58dd22fded7E
	.p2align	4, 0x90
__ZN116_$LT$unicode_normalization..decompose..Decompositions$LT$I$GT$$u20$as$u20$core..iter..traits..iterator..Iterator$GT$4next28_$u7b$$u7b$closure$u7d$$u7d$17h0cd9c58dd22fded7E:
Lfunc_begin55:
	.loc	26 111 0 is_stmt 1
	.cfi_startproc
	pushq	%rbp
	.cfi_def_cfa_offset 16
	.cfi_offset %rbp, -16
	movq	%rsp, %rbp
	.cfi_def_cfa_register %rbp
	subq	$16, %rsp
	movq	%rdi, -16(%rbp)
	movl	%esi, -4(%rbp)
Ltmp433:
	.loc	26 111 62 prologue_end
	movq	(%rdi), %rax
	movq	(%rax), %rdi
	callq	__ZN21unicode_normalization9decompose23Decompositions$LT$I$GT$9push_back17h5ee1574ba30e37f3E
	.loc	26 111 79 is_stmt 0
	addq	$16, %rsp
	popq	%rbp
	retq
Ltmp434:
Lfunc_end55:
	.cfi_endproc

	.globl	__ZN116_$LT$unicode_normalization..decompose..Decompositions$LT$I$GT$$u20$as$u20$core..iter..traits..iterator..Iterator$GT$4next28_$u7b$$u7b$closure$u7d$$u7d$17ha830c940734063d2E
	.p2align	4, 0x90
__ZN116_$LT$unicode_normalization..decompose..Decompositions$LT$I$GT$$u20$as$u20$core..iter..traits..iterator..Iterator$GT$4next28_$u7b$$u7b$closure$u7d$$u7d$17ha830c940734063d2E:
Lfunc_begin56:
	.loc	26 114 0 is_stmt 1
	.cfi_startproc
	pushq	%rbp
	.cfi_def_cfa_offset 16
	.cfi_offset %rbp, -16
	movq	%rsp, %rbp
	.cfi_def_cfa_register %rbp
	subq	$16, %rsp
	movq	%rdi, -16(%rbp)
	movl	%esi, -4(%rbp)
Ltmp435:
	.loc	26 114 63 prologue_end
	movq	(%rdi), %rax
	movq	(%rax), %rdi
	callq	__ZN21unicode_normalization9decompose23Decompositions$LT$I$GT$9push_back17hc0a2970c36f2a1aaE
	.loc	26 114 80 is_stmt 0
	addq	$16, %rsp
	popq	%rbp
	retq
Ltmp436:
Lfunc_end56:
	.cfi_endproc

	.globl	__ZN116_$LT$unicode_normalization..decompose..Decompositions$LT$I$GT$$u20$as$u20$core..iter..traits..iterator..Iterator$GT$4next28_$u7b$$u7b$closure$u7d$$u7d$17he35d811541aba0f0E
	.p2align	4, 0x90
__ZN116_$LT$unicode_normalization..decompose..Decompositions$LT$I$GT$$u20$as$u20$core..iter..traits..iterator..Iterator$GT$4next28_$u7b$$u7b$closure$u7d$$u7d$17he35d811541aba0f0E:
Lfunc_begin57:
	.loc	26 111 0 is_stmt 1
	.cfi_startproc
	pushq	%rbp
	.cfi_def_cfa_offset 16
	.cfi_offset %rbp, -16
	movq	%rsp, %rbp
	.cfi_def_cfa_register %rbp
	subq	$16, %rsp
	movq	%rdi, -16(%rbp)
	movl	%esi, -4(%rbp)
Ltmp437:
	.loc	26 111 62 prologue_end
	movq	(%rdi), %rax
	movq	(%rax), %rdi
	callq	__ZN21unicode_normalization9decompose23Decompositions$LT$I$GT$9push_back17hc0a2970c36f2a1aaE
	.loc	26 111 79 is_stmt 0
	addq	$16, %rsp
	popq	%rbp
	retq
Ltmp438:
Lfunc_end57:
	.cfi_endproc

	.globl	__ZN116_$LT$unicode_normalization..recompose..Recompositions$LT$I$GT$$u20$as$u20$core..iter..traits..iterator..Iterator$GT$4next17h2d983ef35224ec59E
	.p2align	4, 0x90
__ZN116_$LT$unicode_normalization..recompose..Recompositions$LT$I$GT$$u20$as$u20$core..iter..traits..iterator..Iterator$GT$4next17h2d983ef35224ec59E:
Lfunc_begin58:
	.file	31 "/Users/natalie/.cargo/registry/src/github.com-1ecc6299db9ec823/unicode-normalization-0.1.22/src" "recompose.rs"
	.loc	31 58 0 is_stmt 1
	.cfi_startproc
	pushq	%rbp
	.cfi_def_cfa_offset 16
	.cfi_offset %rbp, -16
	movq	%rsp, %rbp
	.cfi_def_cfa_register %rbp
	subq	$528, %rsp
	movq	%rdi, -456(%rbp)
	movq	%rdi, -272(%rbp)
LBB58_1:
	movq	-456(%rbp), %rax
Ltmp439:
	.loc	31 62 19 prologue_end
	movq	144(%rax), %rax
	movq	%rax, -464(%rbp)
	.loc	31 62 13 is_stmt 0
	testq	%rax, %rax
	je	LBB58_3
	jmp	LBB58_47
LBB58_47:
	.loc	31 0 13
	movq	-464(%rbp), %rax
	.loc	31 62 13
	subq	$1, %rax
	je	LBB58_4
	jmp	LBB58_48
LBB58_48:
	jmp	LBB58_8
	.loc	31 62 19
	ud2
LBB58_3:
	.loc	31 0 19
	movq	-456(%rbp), %rdi
	.loc	31 64 31 is_stmt 1
	addq	$32, %rdi
	callq	__ZN4core4iter6traits8iterator8Iterator6by_ref17he50ffd6bcc24f3c1E
	movq	%rax, %rdi
	callq	__ZN63_$LT$I$u20$as$u20$core..iter..traits..collect..IntoIterator$GT$9into_iter17h59580bcef97df8d1E
	movq	%rax, -440(%rbp)
Ltmp440:
	.loc	31 64 21 is_stmt 0
	jmp	LBB58_27
Ltmp441:
LBB58_4:
	.loc	31 0 21
	movq	-456(%rbp), %rax
	.loc	31 122 25 is_stmt 1
	movq	152(%rax), %rcx
	movq	%rcx, -472(%rbp)
	movq	%rcx, -248(%rbp)
	movq	%rax, -192(%rbp)
Ltmp442:
	.loc	28 16 19
	movl	(%rax), %eax
	.loc	28 16 13 is_stmt 0
	cmpq	$0, %rax
	jne	LBB58_6
	.loc	28 0 13
	movq	-456(%rbp), %rax
	.loc	28 17 35 is_stmt 1
	movq	%rax, %rdi
	addq	$4, %rdi
	movq	%rdi, -176(%rbp)
	movq	%rdi, -16(%rbp)
Ltmp443:
	.loc	29 157 6
	addq	$4, %rdi
	movq	%rdi, -8(%rbp)
	.loc	29 157 29 is_stmt 0
	movzwl	4(%rax), %eax
	.loc	29 157 27
	movq	%rax, -24(%rbp)
	.loc	29 157 6
	movq	-24(%rbp), %rdx
	movl	$4, %esi
	leaq	l___unnamed_7(%rip), %rcx
	callq	__ZN4core5slice5index74_$LT$impl$u20$core..ops..index..Index$LT$I$GT$$u20$for$u20$$u5b$T$u5d$$GT$5index17h4b4ff975ccf7248cE
Ltmp444:
	.loc	28 17 41 is_stmt 1
	movq	%rax, -208(%rbp)
	movq	%rdx, -200(%rbp)
Ltmp445:
	.loc	28 17 63 is_stmt 0
	jmp	LBB58_7
LBB58_6:
	.loc	28 0 63
	movq	-456(%rbp), %rdi
	.loc	28 18 33 is_stmt 1
	addq	$8, %rdi
	movq	%rdi, -184(%rbp)
Ltmp446:
	.loc	28 18 39 is_stmt 0
	callq	__ZN72_$LT$alloc..vec..Vec$LT$T$C$A$GT$$u20$as$u20$core..ops..deref..Deref$GT$5deref17h374e2d0fd00a9cb9E
	movq	%rax, -208(%rbp)
	movq	%rdx, -200(%rbp)
Ltmp447:
LBB58_7:
	.loc	28 0 39
	movq	-472(%rbp), %rdx
	.loc	28 20 10 is_stmt 1
	movq	-208(%rbp), %rdi
	movq	-200(%rbp), %rsi
Ltmp448:
	.loc	31 122 40
	callq	__ZN4core5slice29_$LT$impl$u20$$u5b$T$u5d$$GT$3get17h79d670862c412256E
	movq	%rax, %rdi
	callq	__ZN4core6option19Option$LT$$RF$T$GT$6cloned17hdf82ad1cd35ea033E
	movl	%eax, -332(%rbp)
	movl	$1, %eax
	xorl	%ecx, %ecx
	cmpl	$1114112, -332(%rbp)
	cmoveq	%rcx, %rax
	.loc	31 122 34 is_stmt 0
	cmpq	$0, %rax
	je	LBB58_20
	jmp	LBB58_24
Ltmp449:
LBB58_8:
	.loc	31 0 34
	movq	-456(%rbp), %rax
	.loc	31 132 26 is_stmt 1
	movq	152(%rax), %rcx
	movq	%rcx, -480(%rbp)
	movq	%rcx, -264(%rbp)
	movq	%rax, -152(%rbp)
Ltmp450:
	.loc	28 16 19
	movl	(%rax), %eax
	.loc	28 16 13 is_stmt 0
	cmpq	$0, %rax
	jne	LBB58_10
	.loc	28 0 13
	movq	-456(%rbp), %rax
	.loc	28 17 35 is_stmt 1
	movq	%rax, %rdi
	addq	$4, %rdi
	movq	%rdi, -136(%rbp)
	movq	%rdi, -40(%rbp)
Ltmp451:
	.loc	29 157 6
	addq	$4, %rdi
	movq	%rdi, -32(%rbp)
	.loc	29 157 29 is_stmt 0
	movzwl	4(%rax), %eax
	.loc	29 157 27
	movq	%rax, -48(%rbp)
	.loc	29 157 6
	movq	-48(%rbp), %rdx
	movl	$4, %esi
	leaq	l___unnamed_7(%rip), %rcx
	callq	__ZN4core5slice5index74_$LT$impl$u20$core..ops..index..Index$LT$I$GT$$u20$for$u20$$u5b$T$u5d$$GT$5index17h4b4ff975ccf7248cE
Ltmp452:
	.loc	28 17 41 is_stmt 1
	movq	%rax, -168(%rbp)
	movq	%rdx, -160(%rbp)
Ltmp453:
	.loc	28 17 63 is_stmt 0
	jmp	LBB58_11
LBB58_10:
	.loc	28 0 63
	movq	-456(%rbp), %rdi
	.loc	28 18 33 is_stmt 1
	addq	$8, %rdi
	movq	%rdi, -144(%rbp)
Ltmp454:
	.loc	28 18 39 is_stmt 0
	callq	__ZN72_$LT$alloc..vec..Vec$LT$T$C$A$GT$$u20$as$u20$core..ops..deref..Deref$GT$5deref17h374e2d0fd00a9cb9E
	movq	%rax, -168(%rbp)
	movq	%rdx, -160(%rbp)
Ltmp455:
LBB58_11:
	.loc	28 0 39
	movq	-480(%rbp), %rdx
	.loc	28 20 10 is_stmt 1
	movq	-168(%rbp), %rdi
	movq	-160(%rbp), %rsi
Ltmp456:
	.loc	31 132 41
	callq	__ZN4core5slice29_$LT$impl$u20$$u5b$T$u5d$$GT$3get17h79d670862c412256E
	movq	%rax, %rdi
	callq	__ZN4core6option19Option$LT$$RF$T$GT$6cloned17hdf82ad1cd35ea033E
	movl	%eax, -292(%rbp)
	movl	$1, %eax
	xorl	%ecx, %ecx
	cmpl	$1114112, -292(%rbp)
	cmoveq	%rcx, %rax
	.loc	31 132 35 is_stmt 0
	cmpq	$0, %rax
	jne	LBB58_16
	.loc	31 0 35
	movq	-456(%rbp), %rax
	movq	%rax, -120(%rbp)
	movq	%rax, -112(%rbp)
	movq	$0, -104(%rbp)
Ltmp457:
	.loc	28 16 19 is_stmt 1
	movl	(%rax), %eax
	.loc	28 16 13 is_stmt 0
	cmpq	$0, %rax
	jne	LBB58_14
	.loc	28 0 13
	movq	-456(%rbp), %rdi
	.loc	28 17 35 is_stmt 1
	addq	$4, %rdi
	movq	%rdi, -88(%rbp)
Ltmp458:
	.loc	28 17 41 is_stmt 0
	xorl	%eax, %eax
	movl	%eax, %esi
	callq	__ZN7tinyvec8arrayvec17ArrayVec$LT$A$GT$8truncate17h8a63ec9d085badf8E
	jmp	LBB58_15
Ltmp459:
LBB58_14:
	.loc	28 0 41
	movq	-456(%rbp), %rdi
	.loc	28 18 33 is_stmt 1
	addq	$8, %rdi
	movq	%rdi, -96(%rbp)
Ltmp460:
	.loc	28 18 39 is_stmt 0
	xorl	%eax, %eax
	movl	%eax, %esi
	callq	__ZN5alloc3vec16Vec$LT$T$C$A$GT$8truncate17h047beb47b18ba615E
Ltmp461:
LBB58_15:
	.loc	28 0 39
	movq	-456(%rbp), %rdi
	.loc	31 135 32 is_stmt 1
	addq	$160, %rdi
	callq	__ZN4core6option15Option$LT$T$GT$4take17hcd7d2281eb4abd3cE
	movl	%eax, -444(%rbp)
	jmp	LBB58_19
LBB58_16:
	.loc	31 0 32 is_stmt 0
	movq	-480(%rbp), %rax
	.loc	31 137 21 is_stmt 1
	movl	-292(%rbp), %ecx
	movl	%ecx, -492(%rbp)
	movl	%ecx, -252(%rbp)
Ltmp462:
	.loc	31 138 47
	addq	$1, %rax
	movq	%rax, -488(%rbp)
	setb	%al
	testb	$1, %al
	jne	LBB58_18
	.loc	31 0 47 is_stmt 0
	movl	-492(%rbp), %eax
	movq	-456(%rbp), %rcx
	movq	-488(%rbp), %rdx
	.loc	31 138 38
	movq	%rdx, -280(%rbp)
	movq	$2, -288(%rbp)
	.loc	31 138 25
	movq	-288(%rbp), %rsi
	movq	-280(%rbp), %rdx
	movq	%rsi, 144(%rcx)
	movq	%rdx, 152(%rcx)
	.loc	31 139 32 is_stmt 1
	movl	%eax, -444(%rbp)
Ltmp463:
	.loc	30 1 1
	jmp	LBB58_19
LBB58_18:
Ltmp464:
	.loc	31 138 47
	leaq	_str.0(%rip), %rdi
	leaq	l___unnamed_9(%rip), %rdx
	movl	$28, %esi
	callq	__ZN4core9panicking5panic17hc1bc45270cf64b03E
Ltmp465:
LBB58_19:
	.loc	31 144 6
	movl	-444(%rbp), %eax
	addq	$528, %rsp
	popq	%rbp
	retq
LBB58_20:
	.loc	31 0 6 is_stmt 0
	movq	-456(%rbp), %rax
	movq	%rax, -128(%rbp)
	movq	%rax, -80(%rbp)
	movq	$0, -72(%rbp)
Ltmp466:
	.loc	28 16 19 is_stmt 1
	movl	(%rax), %eax
	.loc	28 16 13 is_stmt 0
	cmpq	$0, %rax
	jne	LBB58_22
	.loc	28 0 13
	movq	-456(%rbp), %rdi
	.loc	28 17 35 is_stmt 1
	addq	$4, %rdi
	movq	%rdi, -56(%rbp)
Ltmp467:
	.loc	28 17 41 is_stmt 0
	xorl	%eax, %eax
	movl	%eax, %esi
	callq	__ZN7tinyvec8arrayvec17ArrayVec$LT$A$GT$8truncate17h8a63ec9d085badf8E
	jmp	LBB58_23
Ltmp468:
LBB58_22:
	.loc	28 0 41
	movq	-456(%rbp), %rdi
	.loc	28 18 33 is_stmt 1
	addq	$8, %rdi
	movq	%rdi, -64(%rbp)
Ltmp469:
	.loc	28 18 39 is_stmt 0
	xorl	%eax, %eax
	movl	%eax, %esi
	callq	__ZN5alloc3vec16Vec$LT$T$C$A$GT$8truncate17h047beb47b18ba615E
Ltmp470:
LBB58_23:
	.loc	28 0 39
	movq	-456(%rbp), %rax
	.loc	31 125 38 is_stmt 1
	movq	$0, -328(%rbp)
	.loc	31 125 25 is_stmt 0
	movq	-328(%rbp), %rdx
	movq	-320(%rbp), %rcx
	movq	%rdx, 144(%rax)
	movq	%rcx, 152(%rax)
Ltmp471:
	.loc	31 131 17 is_stmt 1
	jmp	LBB58_1
LBB58_24:
	.loc	31 0 17 is_stmt 0
	movq	-472(%rbp), %rax
Ltmp472:
	.loc	31 127 21 is_stmt 1
	movl	-332(%rbp), %ecx
	movl	%ecx, -508(%rbp)
	movl	%ecx, -240(%rbp)
Ltmp473:
	.loc	31 128 46
	addq	$1, %rax
	movq	%rax, -504(%rbp)
	setb	%al
	testb	$1, %al
	jne	LBB58_26
	.loc	31 0 46 is_stmt 0
	movl	-508(%rbp), %eax
	movq	-456(%rbp), %rcx
	movq	-504(%rbp), %rdx
	.loc	31 128 38
	movq	%rdx, -304(%rbp)
	movq	$1, -312(%rbp)
	.loc	31 128 25
	movq	-312(%rbp), %rsi
	movq	-304(%rbp), %rdx
	movq	%rsi, 144(%rcx)
	movq	%rdx, 152(%rcx)
	.loc	31 129 32 is_stmt 1
	movl	%eax, -444(%rbp)
Ltmp474:
	.loc	30 1 1
	jmp	LBB58_19
LBB58_26:
Ltmp475:
	.loc	31 128 46
	leaq	_str.0(%rip), %rdi
	leaq	l___unnamed_10(%rip), %rdx
	movl	$28, %esi
	callq	__ZN4core9panicking5panic17hc1bc45270cf64b03E
Ltmp476:
LBB58_27:
	.loc	31 64 31
	leaq	-440(%rbp), %rdi
	callq	__ZN72_$LT$$RF$mut$u20$I$u20$as$u20$core..iter..traits..iterator..Iterator$GT$4next17h405edbd556acc4b8E
	movl	%eax, -428(%rbp)
	movl	$1, %eax
	xorl	%ecx, %ecx
	cmpl	$1114112, -428(%rbp)
	cmoveq	%rcx, %rax
	cmpq	$0, %rax
	jne	LBB58_29
Ltmp477:
	.loc	31 0 31 is_stmt 0
	movq	-456(%rbp), %rdi
	.loc	31 117 34 is_stmt 1
	movq	$0, -344(%rbp)
	movq	$2, -352(%rbp)
	.loc	31 117 21 is_stmt 0
	movq	-352(%rbp), %rcx
	movq	-344(%rbp), %rax
	movq	%rcx, 144(%rdi)
	movq	%rax, 152(%rdi)
	.loc	31 118 24 is_stmt 1
	addq	$160, %rdi
	callq	__ZN4core6option15Option$LT$T$GT$7is_some17h20198073af0e57fbE
	testb	$1, %al
	jne	LBB58_46
	jmp	LBB58_1
LBB58_29:
Ltmp478:
	.loc	31 64 25
	movl	-428(%rbp), %edi
	movl	%edi, -516(%rbp)
	movl	%edi, -236(%rbp)
Ltmp479:
	.loc	31 65 40
	callq	__ZN21unicode_normalization7lookups25canonical_combining_class17h0595252e9f8c65a2E
	movq	-456(%rbp), %rdx
	movb	%al, -509(%rbp)
	movb	%al, -229(%rbp)
Ltmp480:
	.loc	31 66 39
	movl	$1, %eax
	xorl	%ecx, %ecx
	cmpl	$1114112, 160(%rdx)
	cmoveq	%rcx, %rax
	.loc	31 66 33 is_stmt 0
	cmpq	$0, %rax
	jne	LBB58_31
	.loc	31 0 33
	movb	-509(%rbp), %al
	.loc	31 68 36 is_stmt 1
	cmpb	$0, %al
	je	LBB58_44
	jmp	LBB58_45
LBB58_31:
	.loc	31 0 36 is_stmt 0
	movq	-456(%rbp), %rax
	.loc	31 74 34 is_stmt 1
	movl	160(%rax), %ecx
	movl	%ecx, -520(%rbp)
	movl	%ecx, -228(%rbp)
Ltmp481:
	.loc	31 74 40 is_stmt 0
	movl	%ecx, -224(%rbp)
Ltmp482:
	.loc	31 76 31 is_stmt 1
	movb	164(%rax), %al
	andb	$1, %al
	movzbl	%al, %eax
	.loc	31 76 25 is_stmt 0
	cmpq	$0, %rax
	jne	LBB58_33
	.loc	31 0 25
	movl	-516(%rbp), %esi
	movl	-520(%rbp), %edi
	.loc	31 77 43 is_stmt 1
	callq	__ZN21unicode_normalization9normalize7compose17h4f4308f491ef2c0aE
	movl	%eax, -420(%rbp)
	movl	$1, %eax
	xorl	%ecx, %ecx
	cmpl	$1114112, -420(%rbp)
	cmoveq	%rcx, %rax
	.loc	31 77 37 is_stmt 0
	cmpq	$0, %rax
	je	LBB58_40
	jmp	LBB58_41
LBB58_33:
	.loc	31 0 37
	movb	-509(%rbp), %cl
	movq	-456(%rbp), %rax
	.loc	31 91 34 is_stmt 1
	movb	165(%rax), %al
	movb	%al, -217(%rbp)
Ltmp483:
	.loc	31 92 36
	cmpb	%cl, %al
	jae	LBB58_35
	.loc	31 0 36 is_stmt 0
	movl	-516(%rbp), %esi
	movl	-520(%rbp), %edi
	.loc	31 104 39 is_stmt 1
	callq	__ZN21unicode_normalization9normalize7compose17h4f4308f491ef2c0aE
	movl	%eax, -368(%rbp)
	movl	$1, %eax
	xorl	%ecx, %ecx
	cmpl	$1114112, -368(%rbp)
	cmoveq	%rcx, %rax
	.loc	31 104 33 is_stmt 0
	cmpq	$0, %rax
	je	LBB58_38
	jmp	LBB58_39
LBB58_35:
	.loc	31 0 33
	movb	-509(%rbp), %al
	.loc	31 94 40 is_stmt 1
	cmpb	$0, %al
	jne	LBB58_37
	.loc	31 0 40 is_stmt 0
	movl	-520(%rbp), %eax
	movq	-456(%rbp), %rcx
	movl	-516(%rbp), %edx
	.loc	31 95 57 is_stmt 1
	movl	%edx, -404(%rbp)
	.loc	31 95 41 is_stmt 0
	movl	-404(%rbp), %edx
	movl	%edx, 160(%rcx)
	.loc	31 96 57 is_stmt 1
	movb	$0, -400(%rbp)
	.loc	31 96 41 is_stmt 0
	movb	-400(%rbp), %sil
	movb	-399(%rbp), %dl
	andb	$1, %sil
	movb	%sil, 164(%rcx)
	movb	%dl, 165(%rcx)
	.loc	31 97 54 is_stmt 1
	movq	$0, -384(%rbp)
	movq	$1, -392(%rbp)
	.loc	31 97 41 is_stmt 0
	movq	-392(%rbp), %rsi
	movq	-384(%rbp), %rdx
	movq	%rsi, 144(%rcx)
	movq	%rdx, 152(%rcx)
	.loc	31 98 48 is_stmt 1
	movl	%eax, -444(%rbp)
Ltmp484:
	.loc	30 1 1
	jmp	LBB58_19
LBB58_37:
	.loc	30 0 1 is_stmt 0
	movq	-456(%rbp), %rdi
	movl	-516(%rbp), %esi
Ltmp485:
	.loc	31 100 37 is_stmt 1
	callq	__ZN7tinyvec7tinyvec16TinyVec$LT$A$GT$4push17h4c9e8fd430624b0cE
	movb	-509(%rbp), %cl
	movq	-456(%rbp), %rax
	.loc	31 101 53
	movb	%cl, -375(%rbp)
	movb	$1, -376(%rbp)
	.loc	31 101 37 is_stmt 0
	movb	-376(%rbp), %dl
	movb	-375(%rbp), %cl
	andb	$1, %dl
	movb	%dl, 164(%rax)
	movb	%cl, 165(%rax)
	.loc	30 1 1 is_stmt 1
	jmp	LBB58_27
LBB58_38:
	.loc	30 0 1 is_stmt 0
	movq	-456(%rbp), %rdi
	movl	-516(%rbp), %esi
	.loc	31 110 41 is_stmt 1
	callq	__ZN7tinyvec7tinyvec16TinyVec$LT$A$GT$4push17h4c9e8fd430624b0cE
	movb	-509(%rbp), %cl
	movq	-456(%rbp), %rax
	.loc	31 111 57
	movb	%cl, -359(%rbp)
	movb	$1, -360(%rbp)
	.loc	31 111 41 is_stmt 0
	movb	-360(%rbp), %dl
	movb	-359(%rbp), %cl
	andb	$1, %dl
	movb	%dl, 164(%rax)
	movb	%cl, 165(%rax)
Ltmp486:
	.loc	31 114 29 is_stmt 1
	jmp	LBB58_27
LBB58_39:
	.loc	31 0 29 is_stmt 0
	movq	-456(%rbp), %rax
Ltmp487:
	.loc	31 105 42 is_stmt 1
	movl	-368(%rbp), %ecx
	movl	%ecx, -216(%rbp)
Ltmp488:
	.loc	31 106 57
	movl	%ecx, -364(%rbp)
	.loc	31 106 41 is_stmt 0
	movl	-364(%rbp), %ecx
	movl	%ecx, 160(%rax)
Ltmp489:
	.loc	30 1 1 is_stmt 1
	jmp	LBB58_27
Ltmp490:
LBB58_40:
	.loc	30 0 1 is_stmt 0
	movb	-509(%rbp), %al
	.loc	31 83 40 is_stmt 1
	cmpb	$0, %al
	je	LBB58_42
	jmp	LBB58_43
LBB58_41:
	.loc	31 0 40 is_stmt 0
	movq	-456(%rbp), %rax
	.loc	31 78 38 is_stmt 1
	movl	-420(%rbp), %ecx
	movl	%ecx, -212(%rbp)
Ltmp491:
	.loc	31 79 53
	movl	%ecx, -416(%rbp)
	.loc	31 79 37 is_stmt 0
	movl	-416(%rbp), %ecx
	movl	%ecx, 160(%rax)
Ltmp492:
	.loc	30 1 1 is_stmt 1
	jmp	LBB58_27
LBB58_42:
	.loc	30 0 1 is_stmt 0
	movl	-520(%rbp), %eax
	movq	-456(%rbp), %rcx
	movl	-516(%rbp), %edx
	.loc	31 84 57 is_stmt 1
	movl	%edx, -412(%rbp)
	.loc	31 84 41 is_stmt 0
	movl	-412(%rbp), %edx
	movl	%edx, 160(%rcx)
	.loc	31 85 48 is_stmt 1
	movl	%eax, -444(%rbp)
	.loc	30 1 1
	jmp	LBB58_19
LBB58_43:
	.loc	30 0 1 is_stmt 0
	movq	-456(%rbp), %rdi
	movl	-516(%rbp), %esi
	.loc	31 87 37 is_stmt 1
	callq	__ZN7tinyvec7tinyvec16TinyVec$LT$A$GT$4push17h4c9e8fd430624b0cE
	movb	-509(%rbp), %cl
	movq	-456(%rbp), %rax
	.loc	31 88 53
	movb	%cl, -407(%rbp)
	movb	$1, -408(%rbp)
	.loc	31 88 37 is_stmt 0
	movb	-408(%rbp), %dl
	movb	-407(%rbp), %cl
	andb	$1, %dl
	movb	%dl, 164(%rax)
	movb	%cl, 165(%rax)
	.loc	31 90 29 is_stmt 1
	jmp	LBB58_27
Ltmp493:
LBB58_44:
	.loc	31 0 29 is_stmt 0
	movq	-456(%rbp), %rax
	movl	-516(%rbp), %ecx
	.loc	31 71 49 is_stmt 1
	movl	%ecx, -424(%rbp)
	.loc	31 71 33 is_stmt 0
	movl	-424(%rbp), %ecx
	movl	%ecx, 160(%rax)
	.loc	31 72 33 is_stmt 1
	jmp	LBB58_27
LBB58_45:
	.loc	31 0 33 is_stmt 0
	movl	-516(%rbp), %eax
	.loc	31 69 44 is_stmt 1
	movl	%eax, -444(%rbp)
	.loc	30 1 1
	jmp	LBB58_19
Ltmp494:
LBB58_46:
	.loc	30 0 1 is_stmt 0
	movq	-456(%rbp), %rdi
	.loc	31 119 32 is_stmt 1
	addq	$160, %rdi
	callq	__ZN4core6option15Option$LT$T$GT$4take17hcd7d2281eb4abd3cE
	movl	%eax, -444(%rbp)
	jmp	LBB58_19
Ltmp495:
Lfunc_end58:
	.cfi_endproc

	.globl	__ZN116_$LT$unicode_normalization..recompose..Recompositions$LT$I$GT$$u20$as$u20$core..iter..traits..iterator..Iterator$GT$4next17h71ca520064cf5a7bE
	.p2align	4, 0x90
__ZN116_$LT$unicode_normalization..recompose..Recompositions$LT$I$GT$$u20$as$u20$core..iter..traits..iterator..Iterator$GT$4next17h71ca520064cf5a7bE:
Lfunc_begin59:
	.loc	31 58 0
	.cfi_startproc
	pushq	%rbp
	.cfi_def_cfa_offset 16
	.cfi_offset %rbp, -16
	movq	%rsp, %rbp
	.cfi_def_cfa_register %rbp
	subq	$528, %rsp
	movq	%rdi, -456(%rbp)
	movq	%rdi, -272(%rbp)
LBB59_1:
	movq	-456(%rbp), %rax
Ltmp496:
	.loc	31 62 19 prologue_end
	movq	112(%rax), %rax
	movq	%rax, -464(%rbp)
	.loc	31 62 13 is_stmt 0
	testq	%rax, %rax
	je	LBB59_3
	jmp	LBB59_47
LBB59_47:
	.loc	31 0 13
	movq	-464(%rbp), %rax
	.loc	31 62 13
	subq	$1, %rax
	je	LBB59_4
	jmp	LBB59_48
LBB59_48:
	jmp	LBB59_8
	.loc	31 62 19
	ud2
LBB59_3:
	.loc	31 0 19
	movq	-456(%rbp), %rdi
	.loc	31 64 31 is_stmt 1
	addq	$32, %rdi
	callq	__ZN4core4iter6traits8iterator8Iterator6by_ref17hf8cff9d3dc65e24fE
	movq	%rax, %rdi
	callq	__ZN63_$LT$I$u20$as$u20$core..iter..traits..collect..IntoIterator$GT$9into_iter17h42eb51e1b08533f8E
	movq	%rax, -440(%rbp)
Ltmp497:
	.loc	31 64 21 is_stmt 0
	jmp	LBB59_27
Ltmp498:
LBB59_4:
	.loc	31 0 21
	movq	-456(%rbp), %rax
	.loc	31 122 25 is_stmt 1
	movq	120(%rax), %rcx
	movq	%rcx, -472(%rbp)
	movq	%rcx, -248(%rbp)
	movq	%rax, -192(%rbp)
Ltmp499:
	.loc	28 16 19
	movl	(%rax), %eax
	.loc	28 16 13 is_stmt 0
	cmpq	$0, %rax
	jne	LBB59_6
	.loc	28 0 13
	movq	-456(%rbp), %rax
	.loc	28 17 35 is_stmt 1
	movq	%rax, %rdi
	addq	$4, %rdi
	movq	%rdi, -176(%rbp)
	movq	%rdi, -16(%rbp)
Ltmp500:
	.loc	29 157 6
	addq	$4, %rdi
	movq	%rdi, -8(%rbp)
	.loc	29 157 29 is_stmt 0
	movzwl	4(%rax), %eax
	.loc	29 157 27
	movq	%rax, -24(%rbp)
	.loc	29 157 6
	movq	-24(%rbp), %rdx
	movl	$4, %esi
	leaq	l___unnamed_7(%rip), %rcx
	callq	__ZN4core5slice5index74_$LT$impl$u20$core..ops..index..Index$LT$I$GT$$u20$for$u20$$u5b$T$u5d$$GT$5index17h4b4ff975ccf7248cE
Ltmp501:
	.loc	28 17 41 is_stmt 1
	movq	%rax, -208(%rbp)
	movq	%rdx, -200(%rbp)
Ltmp502:
	.loc	28 17 63 is_stmt 0
	jmp	LBB59_7
LBB59_6:
	.loc	28 0 63
	movq	-456(%rbp), %rdi
	.loc	28 18 33 is_stmt 1
	addq	$8, %rdi
	movq	%rdi, -184(%rbp)
Ltmp503:
	.loc	28 18 39 is_stmt 0
	callq	__ZN72_$LT$alloc..vec..Vec$LT$T$C$A$GT$$u20$as$u20$core..ops..deref..Deref$GT$5deref17h374e2d0fd00a9cb9E
	movq	%rax, -208(%rbp)
	movq	%rdx, -200(%rbp)
Ltmp504:
LBB59_7:
	.loc	28 0 39
	movq	-472(%rbp), %rdx
	.loc	28 20 10 is_stmt 1
	movq	-208(%rbp), %rdi
	movq	-200(%rbp), %rsi
Ltmp505:
	.loc	31 122 40
	callq	__ZN4core5slice29_$LT$impl$u20$$u5b$T$u5d$$GT$3get17h79d670862c412256E
	movq	%rax, %rdi
	callq	__ZN4core6option19Option$LT$$RF$T$GT$6cloned17hdf82ad1cd35ea033E
	movl	%eax, -332(%rbp)
	movl	$1, %eax
	xorl	%ecx, %ecx
	cmpl	$1114112, -332(%rbp)
	cmoveq	%rcx, %rax
	.loc	31 122 34 is_stmt 0
	cmpq	$0, %rax
	je	LBB59_20
	jmp	LBB59_24
Ltmp506:
LBB59_8:
	.loc	31 0 34
	movq	-456(%rbp), %rax
	.loc	31 132 26 is_stmt 1
	movq	120(%rax), %rcx
	movq	%rcx, -480(%rbp)
	movq	%rcx, -264(%rbp)
	movq	%rax, -152(%rbp)
Ltmp507:
	.loc	28 16 19
	movl	(%rax), %eax
	.loc	28 16 13 is_stmt 0
	cmpq	$0, %rax
	jne	LBB59_10
	.loc	28 0 13
	movq	-456(%rbp), %rax
	.loc	28 17 35 is_stmt 1
	movq	%rax, %rdi
	addq	$4, %rdi
	movq	%rdi, -136(%rbp)
	movq	%rdi, -40(%rbp)
Ltmp508:
	.loc	29 157 6
	addq	$4, %rdi
	movq	%rdi, -32(%rbp)
	.loc	29 157 29 is_stmt 0
	movzwl	4(%rax), %eax
	.loc	29 157 27
	movq	%rax, -48(%rbp)
	.loc	29 157 6
	movq	-48(%rbp), %rdx
	movl	$4, %esi
	leaq	l___unnamed_7(%rip), %rcx
	callq	__ZN4core5slice5index74_$LT$impl$u20$core..ops..index..Index$LT$I$GT$$u20$for$u20$$u5b$T$u5d$$GT$5index17h4b4ff975ccf7248cE
Ltmp509:
	.loc	28 17 41 is_stmt 1
	movq	%rax, -168(%rbp)
	movq	%rdx, -160(%rbp)
Ltmp510:
	.loc	28 17 63 is_stmt 0
	jmp	LBB59_11
LBB59_10:
	.loc	28 0 63
	movq	-456(%rbp), %rdi
	.loc	28 18 33 is_stmt 1
	addq	$8, %rdi
	movq	%rdi, -144(%rbp)
Ltmp511:
	.loc	28 18 39 is_stmt 0
	callq	__ZN72_$LT$alloc..vec..Vec$LT$T$C$A$GT$$u20$as$u20$core..ops..deref..Deref$GT$5deref17h374e2d0fd00a9cb9E
	movq	%rax, -168(%rbp)
	movq	%rdx, -160(%rbp)
Ltmp512:
LBB59_11:
	.loc	28 0 39
	movq	-480(%rbp), %rdx
	.loc	28 20 10 is_stmt 1
	movq	-168(%rbp), %rdi
	movq	-160(%rbp), %rsi
Ltmp513:
	.loc	31 132 41
	callq	__ZN4core5slice29_$LT$impl$u20$$u5b$T$u5d$$GT$3get17h79d670862c412256E
	movq	%rax, %rdi
	callq	__ZN4core6option19Option$LT$$RF$T$GT$6cloned17hdf82ad1cd35ea033E
	movl	%eax, -292(%rbp)
	movl	$1, %eax
	xorl	%ecx, %ecx
	cmpl	$1114112, -292(%rbp)
	cmoveq	%rcx, %rax
	.loc	31 132 35 is_stmt 0
	cmpq	$0, %rax
	jne	LBB59_16
	.loc	31 0 35
	movq	-456(%rbp), %rax
	movq	%rax, -120(%rbp)
	movq	%rax, -112(%rbp)
	movq	$0, -104(%rbp)
Ltmp514:
	.loc	28 16 19 is_stmt 1
	movl	(%rax), %eax
	.loc	28 16 13 is_stmt 0
	cmpq	$0, %rax
	jne	LBB59_14
	.loc	28 0 13
	movq	-456(%rbp), %rdi
	.loc	28 17 35 is_stmt 1
	addq	$4, %rdi
	movq	%rdi, -88(%rbp)
Ltmp515:
	.loc	28 17 41 is_stmt 0
	xorl	%eax, %eax
	movl	%eax, %esi
	callq	__ZN7tinyvec8arrayvec17ArrayVec$LT$A$GT$8truncate17h8a63ec9d085badf8E
	jmp	LBB59_15
Ltmp516:
LBB59_14:
	.loc	28 0 41
	movq	-456(%rbp), %rdi
	.loc	28 18 33 is_stmt 1
	addq	$8, %rdi
	movq	%rdi, -96(%rbp)
Ltmp517:
	.loc	28 18 39 is_stmt 0
	xorl	%eax, %eax
	movl	%eax, %esi
	callq	__ZN5alloc3vec16Vec$LT$T$C$A$GT$8truncate17h047beb47b18ba615E
Ltmp518:
LBB59_15:
	.loc	28 0 39
	movq	-456(%rbp), %rdi
	.loc	31 135 32 is_stmt 1
	addq	$128, %rdi
	callq	__ZN4core6option15Option$LT$T$GT$4take17hcd7d2281eb4abd3cE
	movl	%eax, -444(%rbp)
	jmp	LBB59_19
LBB59_16:
	.loc	31 0 32 is_stmt 0
	movq	-480(%rbp), %rax
	.loc	31 137 21 is_stmt 1
	movl	-292(%rbp), %ecx
	movl	%ecx, -492(%rbp)
	movl	%ecx, -252(%rbp)
Ltmp519:
	.loc	31 138 47
	addq	$1, %rax
	movq	%rax, -488(%rbp)
	setb	%al
	testb	$1, %al
	jne	LBB59_18
	.loc	31 0 47 is_stmt 0
	movl	-492(%rbp), %eax
	movq	-456(%rbp), %rcx
	movq	-488(%rbp), %rdx
	.loc	31 138 38
	movq	%rdx, -280(%rbp)
	movq	$2, -288(%rbp)
	.loc	31 138 25
	movq	-288(%rbp), %rsi
	movq	-280(%rbp), %rdx
	movq	%rsi, 112(%rcx)
	movq	%rdx, 120(%rcx)
	.loc	31 139 32 is_stmt 1
	movl	%eax, -444(%rbp)
Ltmp520:
	.loc	30 1 1
	jmp	LBB59_19
LBB59_18:
Ltmp521:
	.loc	31 138 47
	leaq	_str.0(%rip), %rdi
	leaq	l___unnamed_9(%rip), %rdx
	movl	$28, %esi
	callq	__ZN4core9panicking5panic17hc1bc45270cf64b03E
Ltmp522:
LBB59_19:
	.loc	31 144 6
	movl	-444(%rbp), %eax
	addq	$528, %rsp
	popq	%rbp
	retq
LBB59_20:
	.loc	31 0 6 is_stmt 0
	movq	-456(%rbp), %rax
	movq	%rax, -128(%rbp)
	movq	%rax, -80(%rbp)
	movq	$0, -72(%rbp)
Ltmp523:
	.loc	28 16 19 is_stmt 1
	movl	(%rax), %eax
	.loc	28 16 13 is_stmt 0
	cmpq	$0, %rax
	jne	LBB59_22
	.loc	28 0 13
	movq	-456(%rbp), %rdi
	.loc	28 17 35 is_stmt 1
	addq	$4, %rdi
	movq	%rdi, -56(%rbp)
Ltmp524:
	.loc	28 17 41 is_stmt 0
	xorl	%eax, %eax
	movl	%eax, %esi
	callq	__ZN7tinyvec8arrayvec17ArrayVec$LT$A$GT$8truncate17h8a63ec9d085badf8E
	jmp	LBB59_23
Ltmp525:
LBB59_22:
	.loc	28 0 41
	movq	-456(%rbp), %rdi
	.loc	28 18 33 is_stmt 1
	addq	$8, %rdi
	movq	%rdi, -64(%rbp)
Ltmp526:
	.loc	28 18 39 is_stmt 0
	xorl	%eax, %eax
	movl	%eax, %esi
	callq	__ZN5alloc3vec16Vec$LT$T$C$A$GT$8truncate17h047beb47b18ba615E
Ltmp527:
LBB59_23:
	.loc	28 0 39
	movq	-456(%rbp), %rax
	.loc	31 125 38 is_stmt 1
	movq	$0, -328(%rbp)
	.loc	31 125 25 is_stmt 0
	movq	-328(%rbp), %rdx
	movq	-320(%rbp), %rcx
	movq	%rdx, 112(%rax)
	movq	%rcx, 120(%rax)
Ltmp528:
	.loc	31 131 17 is_stmt 1
	jmp	LBB59_1
LBB59_24:
	.loc	31 0 17 is_stmt 0
	movq	-472(%rbp), %rax
Ltmp529:
	.loc	31 127 21 is_stmt 1
	movl	-332(%rbp), %ecx
	movl	%ecx, -508(%rbp)
	movl	%ecx, -240(%rbp)
Ltmp530:
	.loc	31 128 46
	addq	$1, %rax
	movq	%rax, -504(%rbp)
	setb	%al
	testb	$1, %al
	jne	LBB59_26
	.loc	31 0 46 is_stmt 0
	movl	-508(%rbp), %eax
	movq	-456(%rbp), %rcx
	movq	-504(%rbp), %rdx
	.loc	31 128 38
	movq	%rdx, -304(%rbp)
	movq	$1, -312(%rbp)
	.loc	31 128 25
	movq	-312(%rbp), %rsi
	movq	-304(%rbp), %rdx
	movq	%rsi, 112(%rcx)
	movq	%rdx, 120(%rcx)
	.loc	31 129 32 is_stmt 1
	movl	%eax, -444(%rbp)
Ltmp531:
	.loc	30 1 1
	jmp	LBB59_19
LBB59_26:
Ltmp532:
	.loc	31 128 46
	leaq	_str.0(%rip), %rdi
	leaq	l___unnamed_10(%rip), %rdx
	movl	$28, %esi
	callq	__ZN4core9panicking5panic17hc1bc45270cf64b03E
Ltmp533:
LBB59_27:
	.loc	31 64 31
	leaq	-440(%rbp), %rdi
	callq	__ZN72_$LT$$RF$mut$u20$I$u20$as$u20$core..iter..traits..iterator..Iterator$GT$4next17hc7eb761d7aaf4bc2E
	movl	%eax, -428(%rbp)
	movl	$1, %eax
	xorl	%ecx, %ecx
	cmpl	$1114112, -428(%rbp)
	cmoveq	%rcx, %rax
	cmpq	$0, %rax
	jne	LBB59_29
Ltmp534:
	.loc	31 0 31 is_stmt 0
	movq	-456(%rbp), %rdi
	.loc	31 117 34 is_stmt 1
	movq	$0, -344(%rbp)
	movq	$2, -352(%rbp)
	.loc	31 117 21 is_stmt 0
	movq	-352(%rbp), %rcx
	movq	-344(%rbp), %rax
	movq	%rcx, 112(%rdi)
	movq	%rax, 120(%rdi)
	.loc	31 118 24 is_stmt 1
	addq	$128, %rdi
	callq	__ZN4core6option15Option$LT$T$GT$7is_some17h20198073af0e57fbE
	testb	$1, %al
	jne	LBB59_46
	jmp	LBB59_1
LBB59_29:
Ltmp535:
	.loc	31 64 25
	movl	-428(%rbp), %edi
	movl	%edi, -516(%rbp)
	movl	%edi, -236(%rbp)
Ltmp536:
	.loc	31 65 40
	callq	__ZN21unicode_normalization7lookups25canonical_combining_class17h0595252e9f8c65a2E
	movq	-456(%rbp), %rdx
	movb	%al, -509(%rbp)
	movb	%al, -229(%rbp)
Ltmp537:
	.loc	31 66 39
	movl	$1, %eax
	xorl	%ecx, %ecx
	cmpl	$1114112, 128(%rdx)
	cmoveq	%rcx, %rax
	.loc	31 66 33 is_stmt 0
	cmpq	$0, %rax
	jne	LBB59_31
	.loc	31 0 33
	movb	-509(%rbp), %al
	.loc	31 68 36 is_stmt 1
	cmpb	$0, %al
	je	LBB59_44
	jmp	LBB59_45
LBB59_31:
	.loc	31 0 36 is_stmt 0
	movq	-456(%rbp), %rax
	.loc	31 74 34 is_stmt 1
	movl	128(%rax), %ecx
	movl	%ecx, -520(%rbp)
	movl	%ecx, -228(%rbp)
Ltmp538:
	.loc	31 74 40 is_stmt 0
	movl	%ecx, -224(%rbp)
Ltmp539:
	.loc	31 76 31 is_stmt 1
	movb	132(%rax), %al
	andb	$1, %al
	movzbl	%al, %eax
	.loc	31 76 25 is_stmt 0
	cmpq	$0, %rax
	jne	LBB59_33
	.loc	31 0 25
	movl	-516(%rbp), %esi
	movl	-520(%rbp), %edi
	.loc	31 77 43 is_stmt 1
	callq	__ZN21unicode_normalization9normalize7compose17h4f4308f491ef2c0aE
	movl	%eax, -420(%rbp)
	movl	$1, %eax
	xorl	%ecx, %ecx
	cmpl	$1114112, -420(%rbp)
	cmoveq	%rcx, %rax
	.loc	31 77 37 is_stmt 0
	cmpq	$0, %rax
	je	LBB59_40
	jmp	LBB59_41
LBB59_33:
	.loc	31 0 37
	movb	-509(%rbp), %cl
	movq	-456(%rbp), %rax
	.loc	31 91 34 is_stmt 1
	movb	133(%rax), %al
	movb	%al, -217(%rbp)
Ltmp540:
	.loc	31 92 36
	cmpb	%cl, %al
	jae	LBB59_35
	.loc	31 0 36 is_stmt 0
	movl	-516(%rbp), %esi
	movl	-520(%rbp), %edi
	.loc	31 104 39 is_stmt 1
	callq	__ZN21unicode_normalization9normalize7compose17h4f4308f491ef2c0aE
	movl	%eax, -368(%rbp)
	movl	$1, %eax
	xorl	%ecx, %ecx
	cmpl	$1114112, -368(%rbp)
	cmoveq	%rcx, %rax
	.loc	31 104 33 is_stmt 0
	cmpq	$0, %rax
	je	LBB59_38
	jmp	LBB59_39
LBB59_35:
	.loc	31 0 33
	movb	-509(%rbp), %al
	.loc	31 94 40 is_stmt 1
	cmpb	$0, %al
	jne	LBB59_37
	.loc	31 0 40 is_stmt 0
	movl	-520(%rbp), %eax
	movq	-456(%rbp), %rcx
	movl	-516(%rbp), %edx
	.loc	31 95 57 is_stmt 1
	movl	%edx, -404(%rbp)
	.loc	31 95 41 is_stmt 0
	movl	-404(%rbp), %edx
	movl	%edx, 128(%rcx)
	.loc	31 96 57 is_stmt 1
	movb	$0, -400(%rbp)
	.loc	31 96 41 is_stmt 0
	movb	-400(%rbp), %sil
	movb	-399(%rbp), %dl
	andb	$1, %sil
	movb	%sil, 132(%rcx)
	movb	%dl, 133(%rcx)
	.loc	31 97 54 is_stmt 1
	movq	$0, -384(%rbp)
	movq	$1, -392(%rbp)
	.loc	31 97 41 is_stmt 0
	movq	-392(%rbp), %rsi
	movq	-384(%rbp), %rdx
	movq	%rsi, 112(%rcx)
	movq	%rdx, 120(%rcx)
	.loc	31 98 48 is_stmt 1
	movl	%eax, -444(%rbp)
Ltmp541:
	.loc	30 1 1
	jmp	LBB59_19
LBB59_37:
	.loc	30 0 1 is_stmt 0
	movq	-456(%rbp), %rdi
	movl	-516(%rbp), %esi
Ltmp542:
	.loc	31 100 37 is_stmt 1
	callq	__ZN7tinyvec7tinyvec16TinyVec$LT$A$GT$4push17h4c9e8fd430624b0cE
	movb	-509(%rbp), %cl
	movq	-456(%rbp), %rax
	.loc	31 101 53
	movb	%cl, -375(%rbp)
	movb	$1, -376(%rbp)
	.loc	31 101 37 is_stmt 0
	movb	-376(%rbp), %dl
	movb	-375(%rbp), %cl
	andb	$1, %dl
	movb	%dl, 132(%rax)
	movb	%cl, 133(%rax)
	.loc	30 1 1 is_stmt 1
	jmp	LBB59_27
LBB59_38:
	.loc	30 0 1 is_stmt 0
	movq	-456(%rbp), %rdi
	movl	-516(%rbp), %esi
	.loc	31 110 41 is_stmt 1
	callq	__ZN7tinyvec7tinyvec16TinyVec$LT$A$GT$4push17h4c9e8fd430624b0cE
	movb	-509(%rbp), %cl
	movq	-456(%rbp), %rax
	.loc	31 111 57
	movb	%cl, -359(%rbp)
	movb	$1, -360(%rbp)
	.loc	31 111 41 is_stmt 0
	movb	-360(%rbp), %dl
	movb	-359(%rbp), %cl
	andb	$1, %dl
	movb	%dl, 132(%rax)
	movb	%cl, 133(%rax)
Ltmp543:
	.loc	31 114 29 is_stmt 1
	jmp	LBB59_27
LBB59_39:
	.loc	31 0 29 is_stmt 0
	movq	-456(%rbp), %rax
Ltmp544:
	.loc	31 105 42 is_stmt 1
	movl	-368(%rbp), %ecx
	movl	%ecx, -216(%rbp)
Ltmp545:
	.loc	31 106 57
	movl	%ecx, -364(%rbp)
	.loc	31 106 41 is_stmt 0
	movl	-364(%rbp), %ecx
	movl	%ecx, 128(%rax)
Ltmp546:
	.loc	30 1 1 is_stmt 1
	jmp	LBB59_27
Ltmp547:
LBB59_40:
	.loc	30 0 1 is_stmt 0
	movb	-509(%rbp), %al
	.loc	31 83 40 is_stmt 1
	cmpb	$0, %al
	je	LBB59_42
	jmp	LBB59_43
LBB59_41:
	.loc	31 0 40 is_stmt 0
	movq	-456(%rbp), %rax
	.loc	31 78 38 is_stmt 1
	movl	-420(%rbp), %ecx
	movl	%ecx, -212(%rbp)
Ltmp548:
	.loc	31 79 53
	movl	%ecx, -416(%rbp)
	.loc	31 79 37 is_stmt 0
	movl	-416(%rbp), %ecx
	movl	%ecx, 128(%rax)
Ltmp549:
	.loc	30 1 1 is_stmt 1
	jmp	LBB59_27
LBB59_42:
	.loc	30 0 1 is_stmt 0
	movl	-520(%rbp), %eax
	movq	-456(%rbp), %rcx
	movl	-516(%rbp), %edx
	.loc	31 84 57 is_stmt 1
	movl	%edx, -412(%rbp)
	.loc	31 84 41 is_stmt 0
	movl	-412(%rbp), %edx
	movl	%edx, 128(%rcx)
	.loc	31 85 48 is_stmt 1
	movl	%eax, -444(%rbp)
	.loc	30 1 1
	jmp	LBB59_19
LBB59_43:
	.loc	30 0 1 is_stmt 0
	movq	-456(%rbp), %rdi
	movl	-516(%rbp), %esi
	.loc	31 87 37 is_stmt 1
	callq	__ZN7tinyvec7tinyvec16TinyVec$LT$A$GT$4push17h4c9e8fd430624b0cE
	movb	-509(%rbp), %cl
	movq	-456(%rbp), %rax
	.loc	31 88 53
	movb	%cl, -407(%rbp)
	movb	$1, -408(%rbp)
	.loc	31 88 37 is_stmt 0
	movb	-408(%rbp), %dl
	movb	-407(%rbp), %cl
	andb	$1, %dl
	movb	%dl, 132(%rax)
	movb	%cl, 133(%rax)
	.loc	31 90 29 is_stmt 1
	jmp	LBB59_27
Ltmp550:
LBB59_44:
	.loc	31 0 29 is_stmt 0
	movq	-456(%rbp), %rax
	movl	-516(%rbp), %ecx
	.loc	31 71 49 is_stmt 1
	movl	%ecx, -424(%rbp)
	.loc	31 71 33 is_stmt 0
	movl	-424(%rbp), %ecx
	movl	%ecx, 128(%rax)
	.loc	31 72 33 is_stmt 1
	jmp	LBB59_27
LBB59_45:
	.loc	31 0 33 is_stmt 0
	movl	-516(%rbp), %eax
	.loc	31 69 44 is_stmt 1
	movl	%eax, -444(%rbp)
	.loc	30 1 1
	jmp	LBB59_19
Ltmp551:
LBB59_46:
	.loc	30 0 1 is_stmt 0
	movq	-456(%rbp), %rdi
	.loc	31 119 32 is_stmt 1
	addq	$128, %rdi
	callq	__ZN4core6option15Option$LT$T$GT$4take17hcd7d2281eb4abd3cE
	movl	%eax, -444(%rbp)
	jmp	LBB59_19
Ltmp552:
Lfunc_end59:
	.cfi_endproc

	.globl	__ZN125_$LT$core..slice..sort..merge_sort..RunVec$LT$RunAllocF$C$RunDeallocF$GT$$u20$as$u20$core..ops..index..Index$LT$usize$GT$$GT$5index17h0dd47aa82f06a90aE
	.p2align	4, 0x90
__ZN125_$LT$core..slice..sort..merge_sort..RunVec$LT$RunAllocF$C$RunDeallocF$GT$$u20$as$u20$core..ops..index..Index$LT$usize$GT$$GT$5index17h0dd47aa82f06a90aE:
Lfunc_begin60:
	.loc	9 1418 0
	.cfi_startproc
	pushq	%rbp
	.cfi_def_cfa_offset 16
	.cfi_offset %rbp, -16
	movq	%rsp, %rbp
	.cfi_def_cfa_register %rbp
	subq	$144, %rsp
	movq	%rdi, -128(%rbp)
	movq	%rsi, -120(%rbp)
	movq	%rdx, -112(%rbp)
	movq	%rdi, -56(%rbp)
	movq	%rsi, -48(%rbp)
Ltmp553:
	.loc	9 1419 16 prologue_end
	cmpq	16(%rdi), %rsi
	jb	LBB60_2
	.loc	9 1426 13
	leaq	l___unnamed_11(%rip), %rsi
	leaq	l___unnamed_12(%rip), %rcx
	xorl	%eax, %eax
	movl	%eax, %r8d
	leaq	-104(%rbp), %rdi
	movq	%rdi, -136(%rbp)
	movl	$1, %edx
	callq	__ZN4core3fmt9Arguments6new_v117hec8de02d54358ac1E
	movq	-136(%rbp), %rdi
	movq	-112(%rbp), %rsi
	callq	__ZN4core9panicking9panic_fmt17h9b5d807e24bcaaedE
LBB60_2:
	.loc	9 0 13 is_stmt 0
	movq	-120(%rbp), %rcx
	movq	-128(%rbp), %rax
	.loc	9 1422 31 is_stmt 1
	movq	(%rax), %rax
	movq	%rax, -40(%rbp)
	.loc	9 1422 48 is_stmt 0
	movq	%rcx, -32(%rbp)
Ltmp554:
	.loc	14 1034 18 is_stmt 1
	movq	%rax, -24(%rbp)
	.loc	14 1034 30 is_stmt 0
	movq	%rcx, -16(%rbp)
Ltmp555:
	.loc	14 487 18 is_stmt 1
	shlq	$4, %rcx
	addq	%rcx, %rax
	movq	%rax, -8(%rbp)
	movq	-8(%rbp), %rax
Ltmp556:
	.loc	9 1427 10
	addq	$144, %rsp
	popq	%rbp
	retq
Ltmp557:
Lfunc_end60:
	.cfi_endproc

	.globl	__ZN125_$LT$core..slice..sort..merge_sort..RunVec$LT$RunAllocF$C$RunDeallocF$GT$$u20$as$u20$core..ops..index..Index$LT$usize$GT$$GT$5index17h1d756f43991ea160E
	.p2align	4, 0x90
__ZN125_$LT$core..slice..sort..merge_sort..RunVec$LT$RunAllocF$C$RunDeallocF$GT$$u20$as$u20$core..ops..index..Index$LT$usize$GT$$GT$5index17h1d756f43991ea160E:
Lfunc_begin61:
	.loc	9 1418 0
	.cfi_startproc
	pushq	%rbp
	.cfi_def_cfa_offset 16
	.cfi_offset %rbp, -16
	movq	%rsp, %rbp
	.cfi_def_cfa_register %rbp
	subq	$144, %rsp
	movq	%rdi, -128(%rbp)
	movq	%rsi, -120(%rbp)
	movq	%rdx, -112(%rbp)
	movq	%rdi, -56(%rbp)
	movq	%rsi, -48(%rbp)
Ltmp558:
	.loc	9 1419 16 prologue_end
	cmpq	16(%rdi), %rsi
	jb	LBB61_2
	.loc	9 1426 13
	leaq	l___unnamed_11(%rip), %rsi
	leaq	l___unnamed_12(%rip), %rcx
	xorl	%eax, %eax
	movl	%eax, %r8d
	leaq	-104(%rbp), %rdi
	movq	%rdi, -136(%rbp)
	movl	$1, %edx
	callq	__ZN4core3fmt9Arguments6new_v117hec8de02d54358ac1E
	movq	-136(%rbp), %rdi
	movq	-112(%rbp), %rsi
	callq	__ZN4core9panicking9panic_fmt17h9b5d807e24bcaaedE
LBB61_2:
	.loc	9 0 13 is_stmt 0
	movq	-120(%rbp), %rcx
	movq	-128(%rbp), %rax
	.loc	9 1422 31 is_stmt 1
	movq	(%rax), %rax
	movq	%rax, -40(%rbp)
	.loc	9 1422 48 is_stmt 0
	movq	%rcx, -32(%rbp)
Ltmp559:
	.loc	14 1034 18 is_stmt 1
	movq	%rax, -24(%rbp)
	.loc	14 1034 30 is_stmt 0
	movq	%rcx, -16(%rbp)
Ltmp560:
	.loc	14 487 18 is_stmt 1
	shlq	$4, %rcx
	addq	%rcx, %rax
	movq	%rax, -8(%rbp)
	movq	-8(%rbp), %rax
Ltmp561:
	.loc	9 1427 10
	addq	$144, %rsp
	popq	%rbp
	retq
Ltmp562:
Lfunc_end61:
	.cfi_endproc

	.globl	__ZN125_$LT$core..slice..sort..merge_sort..RunVec$LT$RunAllocF$C$RunDeallocF$GT$$u20$as$u20$core..ops..index..Index$LT$usize$GT$$GT$5index17h39a64a1721988b1cE
	.p2align	4, 0x90
__ZN125_$LT$core..slice..sort..merge_sort..RunVec$LT$RunAllocF$C$RunDeallocF$GT$$u20$as$u20$core..ops..index..Index$LT$usize$GT$$GT$5index17h39a64a1721988b1cE:
Lfunc_begin62:
	.loc	9 1418 0
	.cfi_startproc
	pushq	%rbp
	.cfi_def_cfa_offset 16
	.cfi_offset %rbp, -16
	movq	%rsp, %rbp
	.cfi_def_cfa_register %rbp
	subq	$144, %rsp
	movq	%rdi, -128(%rbp)
	movq	%rsi, -120(%rbp)
	movq	%rdx, -112(%rbp)
	movq	%rdi, -56(%rbp)
	movq	%rsi, -48(%rbp)
Ltmp563:
	.loc	9 1419 16 prologue_end
	cmpq	16(%rdi), %rsi
	jb	LBB62_2
	.loc	9 1426 13
	leaq	l___unnamed_11(%rip), %rsi
	leaq	l___unnamed_12(%rip), %rcx
	xorl	%eax, %eax
	movl	%eax, %r8d
	leaq	-104(%rbp), %rdi
	movq	%rdi, -136(%rbp)
	movl	$1, %edx
	callq	__ZN4core3fmt9Arguments6new_v117hec8de02d54358ac1E
	movq	-136(%rbp), %rdi
	movq	-112(%rbp), %rsi
	callq	__ZN4core9panicking9panic_fmt17h9b5d807e24bcaaedE
LBB62_2:
	.loc	9 0 13 is_stmt 0
	movq	-120(%rbp), %rcx
	movq	-128(%rbp), %rax
	.loc	9 1422 31 is_stmt 1
	movq	(%rax), %rax
	movq	%rax, -40(%rbp)
	.loc	9 1422 48 is_stmt 0
	movq	%rcx, -32(%rbp)
Ltmp564:
	.loc	14 1034 18 is_stmt 1
	movq	%rax, -24(%rbp)
	.loc	14 1034 30 is_stmt 0
	movq	%rcx, -16(%rbp)
Ltmp565:
	.loc	14 487 18 is_stmt 1
	shlq	$4, %rcx
	addq	%rcx, %rax
	movq	%rax, -8(%rbp)
	movq	-8(%rbp), %rax
Ltmp566:
	.loc	9 1427 10
	addq	$144, %rsp
	popq	%rbp
	retq
Ltmp567:
Lfunc_end62:
	.cfi_endproc

	.globl	__ZN128_$LT$core..slice..sort..merge_sort..RunVec$LT$RunAllocF$C$RunDeallocF$GT$$u20$as$u20$core..ops..index..IndexMut$LT$usize$GT$$GT$9index_mut17h326da851548035f0E
	.p2align	4, 0x90
__ZN128_$LT$core..slice..sort..merge_sort..RunVec$LT$RunAllocF$C$RunDeallocF$GT$$u20$as$u20$core..ops..index..IndexMut$LT$usize$GT$$GT$9index_mut17h326da851548035f0E:
Lfunc_begin63:
	.loc	9 1435 0
	.cfi_startproc
	pushq	%rbp
	.cfi_def_cfa_offset 16
	.cfi_offset %rbp, -16
	movq	%rsp, %rbp
	.cfi_def_cfa_register %rbp
	subq	$144, %rsp
	movq	%rdi, -128(%rbp)
	movq	%rsi, -120(%rbp)
	movq	%rdx, -112(%rbp)
	movq	%rdi, -56(%rbp)
	movq	%rsi, -48(%rbp)
Ltmp568:
	.loc	9 1436 16 prologue_end
	cmpq	16(%rdi), %rsi
	jb	LBB63_2
	.loc	9 1443 13
	leaq	l___unnamed_11(%rip), %rsi
	leaq	l___unnamed_12(%rip), %rcx
	xorl	%eax, %eax
	movl	%eax, %r8d
	leaq	-104(%rbp), %rdi
	movq	%rdi, -136(%rbp)
	movl	$1, %edx
	callq	__ZN4core3fmt9Arguments6new_v117hec8de02d54358ac1E
	movq	-136(%rbp), %rdi
	movq	-112(%rbp), %rsi
	callq	__ZN4core9panicking9panic_fmt17h9b5d807e24bcaaedE
LBB63_2:
	.loc	9 0 13 is_stmt 0
	movq	-120(%rbp), %rcx
	movq	-128(%rbp), %rax
	.loc	9 1439 35 is_stmt 1
	movq	(%rax), %rax
	movq	%rax, -40(%rbp)
	.loc	9 1439 52 is_stmt 0
	movq	%rcx, -32(%rbp)
Ltmp569:
	.loc	14 1034 18 is_stmt 1
	movq	%rax, -24(%rbp)
	.loc	14 1034 30 is_stmt 0
	movq	%rcx, -16(%rbp)
Ltmp570:
	.loc	14 487 18 is_stmt 1
	shlq	$4, %rcx
	addq	%rcx, %rax
	movq	%rax, -8(%rbp)
	movq	-8(%rbp), %rax
Ltmp571:
	.loc	9 1444 10
	addq	$144, %rsp
	popq	%rbp
	retq
Ltmp572:
Lfunc_end63:
	.cfi_endproc

	.globl	__ZN128_$LT$core..slice..sort..merge_sort..RunVec$LT$RunAllocF$C$RunDeallocF$GT$$u20$as$u20$core..ops..index..IndexMut$LT$usize$GT$$GT$9index_mut17he3a75b6af5b5a72dE
	.p2align	4, 0x90
__ZN128_$LT$core..slice..sort..merge_sort..RunVec$LT$RunAllocF$C$RunDeallocF$GT$$u20$as$u20$core..ops..index..IndexMut$LT$usize$GT$$GT$9index_mut17he3a75b6af5b5a72dE:
Lfunc_begin64:
	.loc	9 1435 0
	.cfi_startproc
	pushq	%rbp
	.cfi_def_cfa_offset 16
	.cfi_offset %rbp, -16
	movq	%rsp, %rbp
	.cfi_def_cfa_register %rbp
	subq	$144, %rsp
	movq	%rdi, -128(%rbp)
	movq	%rsi, -120(%rbp)
	movq	%rdx, -112(%rbp)
	movq	%rdi, -56(%rbp)
	movq	%rsi, -48(%rbp)
Ltmp573:
	.loc	9 1436 16 prologue_end
	cmpq	16(%rdi), %rsi
	jb	LBB64_2
	.loc	9 1443 13
	leaq	l___unnamed_11(%rip), %rsi
	leaq	l___unnamed_12(%rip), %rcx
	xorl	%eax, %eax
	movl	%eax, %r8d
	leaq	-104(%rbp), %rdi
	movq	%rdi, -136(%rbp)
	movl	$1, %edx
	callq	__ZN4core3fmt9Arguments6new_v117hec8de02d54358ac1E
	movq	-136(%rbp), %rdi
	movq	-112(%rbp), %rsi
	callq	__ZN4core9panicking9panic_fmt17h9b5d807e24bcaaedE
LBB64_2:
	.loc	9 0 13 is_stmt 0
	movq	-120(%rbp), %rcx
	movq	-128(%rbp), %rax
	.loc	9 1439 35 is_stmt 1
	movq	(%rax), %rax
	movq	%rax, -40(%rbp)
	.loc	9 1439 52 is_stmt 0
	movq	%rcx, -32(%rbp)
Ltmp574:
	.loc	14 1034 18 is_stmt 1
	movq	%rax, -24(%rbp)
	.loc	14 1034 30 is_stmt 0
	movq	%rcx, -16(%rbp)
Ltmp575:
	.loc	14 487 18 is_stmt 1
	shlq	$4, %rcx
	addq	%rcx, %rax
	movq	%rax, -8(%rbp)
	movq	-8(%rbp), %rax
Ltmp576:
	.loc	9 1444 10
	addq	$144, %rsp
	popq	%rbp
	retq
Ltmp577:
Lfunc_end64:
	.cfi_endproc

	.globl	__ZN128_$LT$core..slice..sort..merge_sort..RunVec$LT$RunAllocF$C$RunDeallocF$GT$$u20$as$u20$core..ops..index..IndexMut$LT$usize$GT$$GT$9index_mut17hed32cce411ed74feE
	.p2align	4, 0x90
__ZN128_$LT$core..slice..sort..merge_sort..RunVec$LT$RunAllocF$C$RunDeallocF$GT$$u20$as$u20$core..ops..index..IndexMut$LT$usize$GT$$GT$9index_mut17hed32cce411ed74feE:
Lfunc_begin65:
	.loc	9 1435 0
	.cfi_startproc
	pushq	%rbp
	.cfi_def_cfa_offset 16
	.cfi_offset %rbp, -16
	movq	%rsp, %rbp
	.cfi_def_cfa_register %rbp
	subq	$144, %rsp
	movq	%rdi, -128(%rbp)
	movq	%rsi, -120(%rbp)
	movq	%rdx, -112(%rbp)
	movq	%rdi, -56(%rbp)
	movq	%rsi, -48(%rbp)
Ltmp578:
	.loc	9 1436 16 prologue_end
	cmpq	16(%rdi), %rsi
	jb	LBB65_2
	.loc	9 1443 13
	leaq	l___unnamed_11(%rip), %rsi
	leaq	l___unnamed_12(%rip), %rcx
	xorl	%eax, %eax
	movl	%eax, %r8d
	leaq	-104(%rbp), %rdi
	movq	%rdi, -136(%rbp)
	movl	$1, %edx
	callq	__ZN4core3fmt9Arguments6new_v117hec8de02d54358ac1E
	movq	-136(%rbp), %rdi
	movq	-112(%rbp), %rsi
	callq	__ZN4core9panicking9panic_fmt17h9b5d807e24bcaaedE
LBB65_2:
	.loc	9 0 13 is_stmt 0
	movq	-120(%rbp), %rcx
	movq	-128(%rbp), %rax
	.loc	9 1439 35 is_stmt 1
	movq	(%rax), %rax
	movq	%rax, -40(%rbp)
	.loc	9 1439 52 is_stmt 0
	movq	%rcx, -32(%rbp)
Ltmp579:
	.loc	14 1034 18 is_stmt 1
	movq	%rax, -24(%rbp)
	.loc	14 1034 30 is_stmt 0
	movq	%rcx, -16(%rbp)
Ltmp580:
	.loc	14 487 18 is_stmt 1
	shlq	$4, %rcx
	addq	%rcx, %rax
	movq	%rax, -8(%rbp)
	movq	-8(%rbp), %rax
Ltmp581:
	.loc	9 1444 10
	addq	$144, %rsp
	popq	%rbp
	retq
Ltmp582:
Lfunc_end65:
	.cfi_endproc

	.globl	__ZN153_$LT$core..result..Result$LT$T$C$F$GT$$u20$as$u20$core..ops..try_trait..FromResidual$LT$core..result..Result$LT$core..convert..Infallible$C$E$GT$$GT$$GT$13from_residual17he8045bb1967d685dE
	.p2align	4, 0x90
__ZN153_$LT$core..result..Result$LT$T$C$F$GT$$u20$as$u20$core..ops..try_trait..FromResidual$LT$core..result..Result$LT$core..convert..Infallible$C$E$GT$$GT$$GT$13from_residual17he8045bb1967d685dE:
Lfunc_begin66:
	.file	32 "/rustc/2c8cc343237b8f7d5a3c3703e3a87f2eb2c54a74/library/core/src" "result.rs"
	.loc	32 2105 0
	.cfi_startproc
	pushq	%rbp
	.cfi_def_cfa_offset 16
	.cfi_offset %rbp, -16
	movq	%rsp, %rbp
	.cfi_def_cfa_register %rbp
	subq	$24, %rsp
Ltmp583:
	.loc	32 2107 23 prologue_end
	movb	$1, -17(%rbp)
Ltmp584:
	.loc	32 2109 6
	movb	-17(%rbp), %al
	andb	$1, %al
	movzbl	%al, %eax
	addq	$24, %rsp
	popq	%rbp
	retq
Ltmp585:
Lfunc_end66:
	.cfi_endproc

	.globl	__ZN21unicode_normalization11quick_check11quick_check17h3789f202a0a6483cE
	.p2align	4, 0x90
__ZN21unicode_normalization11quick_check11quick_check17h3789f202a0a6483cE:
Lfunc_begin67:
	.file	33 "/Users/natalie/.cargo/registry/src/github.com-1ecc6299db9ec823/unicode-normalization-0.1.22/src" "quick_check.rs"
	.loc	33 21 0
	.cfi_startproc
	.cfi_personality 155, _rust_eh_personality
	.cfi_lsda 16, Lexception15
	pushq	%rbp
	.cfi_def_cfa_offset 16
	.cfi_offset %rbp, -16
	movq	%rsp, %rbp
	.cfi_def_cfa_register %rbp
	subq	$192, %rsp
	movb	%dl, %al
	movb	%al, -145(%rbp)
	movq	%rdi, -48(%rbp)
	movq	%rsi, -40(%rbp)
	andb	$1, %al
	movb	%al, -25(%rbp)
Ltmp602:
	.loc	33 26 23 prologue_end
	movb	$0, -121(%rbp)
Ltmp603:
	.loc	33 27 32
	movq	$0, -120(%rbp)
Ltmp604:
	.loc	33 28 22
	movb	$0, -105(%rbp)
Ltmp586:
Ltmp605:
	.loc	33 29 15
	callq	__ZN63_$LT$I$u20$as$u20$core..iter..traits..collect..IntoIterator$GT$9into_iter17h2ce564fa41b84eceE
Ltmp587:
	movq	%rdx, -144(%rbp)
	movq	%rax, -136(%rbp)
	jmp	LBB67_3
Ltmp606:
LBB67_1:
	.loc	33 21 1
	movq	-24(%rbp), %rdi
	callq	__Unwind_Resume
LBB67_2:
Ltmp588:
	.loc	33 0 1 is_stmt 0
	movq	%rax, %rcx
	movl	%edx, %eax
	movq	%rcx, -24(%rbp)
	movl	%eax, -16(%rbp)
	jmp	LBB67_1
LBB67_3:
	movq	-144(%rbp), %rax
	movq	-136(%rbp), %rcx
Ltmp607:
	.loc	33 29 15 is_stmt 1
	movq	%rcx, -104(%rbp)
	movq	%rax, -96(%rbp)
LBB67_4:
Ltmp589:
	.loc	33 0 15 is_stmt 0
	leaq	-104(%rbp), %rdi
Ltmp608:
	.loc	33 29 15
	callq	__ZN81_$LT$core..str..iter..Chars$u20$as$u20$core..iter..traits..iterator..Iterator$GT$4next17h378d3375d8f4f9f2E
Ltmp590:
	movl	%eax, -152(%rbp)
	jmp	LBB67_7
Ltmp609:
LBB67_5:
	.loc	33 29 5
	jmp	LBB67_1
LBB67_6:
Ltmp601:
	.loc	33 0 5
	movq	%rax, %rcx
	movl	%edx, %eax
	movq	%rcx, -24(%rbp)
	movl	%eax, -16(%rbp)
	jmp	LBB67_5
LBB67_7:
	movl	-152(%rbp), %eax
Ltmp610:
	.loc	33 29 15
	movl	%eax, -84(%rbp)
	movl	$1, %eax
	xorl	%ecx, %ecx
	cmpl	$1114112, -84(%rbp)
	cmoveq	%rcx, %rax
	cmpq	$0, %rax
	jne	LBB67_9
Ltmp611:
	.loc	33 29 5
	jmp	LBB67_38
LBB67_9:
Ltmp612:
	.loc	33 29 9
	movl	-84(%rbp), %eax
	movl	%eax, -156(%rbp)
	movl	%eax, -8(%rbp)
Ltmp613:
	.loc	33 31 12 is_stmt 1
	cmpl	$127, %eax
	jbe	LBB67_11
Ltmp591:
	.loc	33 0 12 is_stmt 0
	movl	-156(%rbp), %edi
	.loc	33 38 18 is_stmt 1
	callq	__ZN21unicode_normalization7lookups25canonical_combining_class17h0595252e9f8c65a2E
Ltmp592:
	movb	%al, -157(%rbp)
	jmp	LBB67_12
LBB67_11:
	.loc	33 32 13
	movb	$0, -121(%rbp)
	.loc	33 33 13
	movq	$0, -120(%rbp)
Ltmp614:
	.loc	30 1 1
	jmp	LBB67_4
LBB67_12:
	.loc	30 0 1 is_stmt 0
	movb	-157(%rbp), %al
Ltmp615:
	.loc	33 38 18 is_stmt 1
	movb	%al, -1(%rbp)
Ltmp616:
	.loc	33 39 12
	cmpb	%al, -121(%rbp)
	ja	LBB67_14
	movb	$0, -78(%rbp)
	jmp	LBB67_15
LBB67_14:
	.loc	33 0 12 is_stmt 0
	movb	-157(%rbp), %al
	.loc	33 39 28
	cmpb	$0, %al
	setne	%al
	.loc	33 39 12
	andb	$1, %al
	movb	%al, -78(%rbp)
LBB67_15:
	testb	$1, -78(%rbp)
	jne	LBB67_17
	.loc	33 0 12
	movl	-156(%rbp), %eax
	.loc	33 42 15 is_stmt 1
	movl	%eax, -76(%rbp)
	movl	-76(%rbp), %esi
Ltmp593:
	leaq	-128(%rbp), %rdi
	callq	__ZN4core3ops8function2Fn4call17ha654ab7da363ede4E
Ltmp594:
	movb	%al, -158(%rbp)
	jmp	LBB67_19
LBB67_17:
	.loc	33 40 20
	movb	$1, -122(%rbp)
Ltmp617:
LBB67_18:
	.loc	33 29 5
	jmp	LBB67_32
LBB67_19:
	.loc	33 0 5 is_stmt 0
	movb	-158(%rbp), %al
Ltmp618:
	.loc	33 42 15 is_stmt 1
	movb	%al, -77(%rbp)
	movzbl	-77(%rbp), %eax
	movq	%rax, -168(%rbp)
	testq	%rax, %rax
	.loc	33 42 9 is_stmt 0
	je	LBB67_21
	jmp	LBB67_39
LBB67_39:
	.loc	33 0 9
	movq	-168(%rbp), %rax
	.loc	33 42 9
	subq	$1, %rax
	je	LBB67_22
	jmp	LBB67_40
LBB67_40:
	jmp	LBB67_23
	.loc	33 42 15
	ud2
LBB67_21:
	.loc	33 0 15
	movb	-145(%rbp), %al
	.loc	33 49 12 is_stmt 1
	testb	$1, %al
	jne	LBB67_25
	jmp	LBB67_24
LBB67_22:
	.loc	33 44 40
	movb	$1, -122(%rbp)
	.loc	30 1 1
	jmp	LBB67_18
LBB67_23:
	.loc	33 46 17
	movb	$2, -105(%rbp)
	.loc	33 45 36
	jmp	LBB67_21
LBB67_24:
	.loc	33 0 36 is_stmt 0
	movb	-157(%rbp), %al
	.loc	33 63 9 is_stmt 1
	movb	%al, -121(%rbp)
Ltmp619:
	.loc	33 29 5
	jmp	LBB67_4
LBB67_25:
Ltmp595:
	.loc	33 0 5 is_stmt 0
	movl	-156(%rbp), %esi
	leaq	-72(%rbp), %rdi
Ltmp620:
	.loc	33 50 26 is_stmt 1
	callq	__ZN21unicode_normalization11stream_safe20classify_nonstarters17h3048b4d2043d6c69E
Ltmp596:
	jmp	LBB67_26
LBB67_26:
Ltmp621:
	.loc	33 54 16
	movq	-120(%rbp), %rax
	addq	-72(%rbp), %rax
	movq	%rax, -176(%rbp)
	setb	%al
	testb	$1, %al
	jne	LBB67_28
	.loc	33 0 16 is_stmt 0
	movq	-176(%rbp), %rax
	.loc	33 54 16
	cmpq	$30, %rax
	ja	LBB67_31
	jmp	LBB67_30
LBB67_28:
Ltmp599:
	leaq	_str.0(%rip), %rdi
	leaq	l___unnamed_13(%rip), %rdx
	movl	$28, %esi
	callq	__ZN4core9panicking5panic17hc1bc45270cf64b03E
Ltmp600:
	jmp	LBB67_29
LBB67_29:
	.loc	33 0 16
	ud2
LBB67_30:
	.loc	33 57 16 is_stmt 1
	movq	-72(%rbp), %rax
	cmpq	-56(%rbp), %rax
	je	LBB67_35
	jmp	LBB67_34
LBB67_31:
	.loc	33 55 24
	movb	$1, -122(%rbp)
Ltmp622:
	.loc	30 1 1
	jmp	LBB67_18
Ltmp623:
LBB67_32:
	.loc	33 66 1
	jmp	LBB67_33
LBB67_33:
	.loc	33 66 2 is_stmt 0
	movb	-122(%rbp), %al
	addq	$192, %rsp
	popq	%rbp
	retq
LBB67_34:
Ltmp624:
	.loc	33 60 36 is_stmt 1
	movq	-64(%rbp), %rax
	.loc	33 60 17 is_stmt 0
	movq	%rax, -120(%rbp)
	.loc	33 57 13 is_stmt 1
	jmp	LBB67_24
LBB67_35:
	.loc	33 58 37
	movq	-56(%rbp), %rax
	.loc	33 58 17 is_stmt 0
	addq	-120(%rbp), %rax
	movq	%rax, -184(%rbp)
	setb	%al
	testb	$1, %al
	jne	LBB67_37
	.loc	33 0 17
	movq	-184(%rbp), %rax
	.loc	33 58 17
	movq	%rax, -120(%rbp)
	.loc	33 57 13 is_stmt 1
	jmp	LBB67_24
LBB67_37:
Ltmp597:
	.loc	33 58 17
	leaq	_str.0(%rip), %rdi
	leaq	l___unnamed_14(%rip), %rdx
	movl	$28, %esi
	callq	__ZN4core9panicking5panic17hc1bc45270cf64b03E
Ltmp598:
	jmp	LBB67_29
Ltmp625:
LBB67_38:
	.loc	33 65 5
	movb	-105(%rbp), %al
	movb	%al, -122(%rbp)
Ltmp626:
	.loc	33 66 1
	jmp	LBB67_33
Ltmp627:
Lfunc_end67:
	.cfi_endproc
	.section	__TEXT,__gcc_except_tab
	.p2align	2
GCC_except_table67:
Lexception15:
	.byte	255
	.byte	255
	.byte	1
	.uleb128 Lcst_end15-Lcst_begin15
Lcst_begin15:
	.uleb128 Ltmp586-Lfunc_begin67
	.uleb128 Ltmp587-Ltmp586
	.uleb128 Ltmp588-Lfunc_begin67
	.byte	0
	.uleb128 Ltmp587-Lfunc_begin67
	.uleb128 Ltmp589-Ltmp587
	.byte	0
	.byte	0
	.uleb128 Ltmp589-Lfunc_begin67
	.uleb128 Ltmp598-Ltmp589
	.uleb128 Ltmp601-Lfunc_begin67
	.byte	0
Lcst_end15:
	.p2align	2

	.section	__TEXT,__text,regular,pure_instructions
	.globl	__ZN21unicode_normalization11quick_check12is_nfc_quick17hd4f219fe33699473E
	.p2align	4, 0x90
__ZN21unicode_normalization11quick_check12is_nfc_quick17hd4f219fe33699473E:
Lfunc_begin68:
	.loc	33 72 0
	.cfi_startproc
	pushq	%rbp
	.cfi_def_cfa_offset 16
	.cfi_offset %rbp, -16
	movq	%rsp, %rbp
	.cfi_def_cfa_register %rbp
	subq	$16, %rsp
	movq	%rdi, -16(%rbp)
	movq	%rsi, -8(%rbp)
Ltmp628:
	.loc	33 73 5 prologue_end
	xorl	%edx, %edx
	callq	__ZN21unicode_normalization11quick_check11quick_check17h3789f202a0a6483cE
	.loc	33 74 2
	addq	$16, %rsp
	popq	%rbp
	retq
Ltmp629:
Lfunc_end68:
	.cfi_endproc

	.p2align	4, 0x90
__ZN21unicode_normalization11quick_check6is_nfc17h5764b7252e9db6acE:
Lfunc_begin69:
	.loc	33 108 0
	.cfi_startproc
	pushq	%rbp
	.cfi_def_cfa_offset 16
	.cfi_offset %rbp, -16
	movq	%rsp, %rbp
	.cfi_def_cfa_register %rbp
	subq	$208, %rsp
	movq	%rdi, -184(%rbp)
	movq	%rsi, -176(%rbp)
	movq	%rdi, -16(%rbp)
	movq	%rsi, -8(%rbp)
Ltmp630:
	.loc	33 109 24 prologue_end
	callq	__ZN4core3str21_$LT$impl$u20$str$GT$5chars17haec1173416d47b83E
	movq	%rax, %rdi
	movq	%rdx, %rsi
	.loc	33 109 11 is_stmt 0
	callq	__ZN21unicode_normalization11quick_check12is_nfc_quick17hd4f219fe33699473E
	movb	%al, -153(%rbp)
	movzbl	-153(%rbp), %eax
	movq	%rax, -168(%rbp)
	testq	%rax, %rax
	.loc	33 109 5
	je	LBB69_2
	jmp	LBB69_6
LBB69_6:
	.loc	33 0 5
	movq	-168(%rbp), %rax
	.loc	33 109 5
	subq	$1, %rax
	je	LBB69_3
	jmp	LBB69_7
LBB69_7:
	jmp	LBB69_4
	.loc	33 109 11
	ud2
LBB69_2:
	.loc	33 110 30 is_stmt 1
	movb	$1, -154(%rbp)
	jmp	LBB69_5
LBB69_3:
	.loc	33 111 29
	movb	$0, -154(%rbp)
	jmp	LBB69_5
LBB69_4:
	.loc	33 0 29 is_stmt 0
	movq	-176(%rbp), %rsi
	movq	-184(%rbp), %rdi
	.loc	33 112 32 is_stmt 1
	callq	__ZN4core3str21_$LT$impl$u20$str$GT$5chars17haec1173416d47b83E
	movq	-184(%rbp), %rdi
	movq	-176(%rbp), %rsi
	movq	%rax, -200(%rbp)
	movq	%rdx, -192(%rbp)
	.loc	33 112 45 is_stmt 0
	callq	__ZN4core3str21_$LT$impl$u20$str$GT$5chars17haec1173416d47b83E
	movq	%rax, %rsi
	leaq	-152(%rbp), %rdi
	callq	__ZN74_$LT$I$u20$as$u20$unicode_normalization..UnicodeNormalization$LT$I$GT$$GT$3nfc17hd08aa3118ef043c2E
	movq	-200(%rbp), %rdi
	movq	-192(%rbp), %rsi
	.loc	33 112 32
	leaq	-152(%rbp), %rdx
	callq	__ZN4core4iter6traits8iterator8Iterator2eq17h0bc318b723b32adeE
	andb	$1, %al
	movb	%al, -154(%rbp)
LBB69_5:
	.loc	33 114 2 is_stmt 1
	movb	-154(%rbp), %al
	andb	$1, %al
	movzbl	%al, %eax
	addq	$208, %rsp
	popq	%rbp
	retq
Ltmp631:
Lfunc_end69:
	.cfi_endproc

	.p2align	4, 0x90
__ZN21unicode_normalization11stream_safe20classify_nonstarters17h3048b4d2043d6c69E:
Lfunc_begin70:
	.file	34 "/Users/natalie/.cargo/registry/src/github.com-1ecc6299db9ec823/unicode-normalization-0.1.22/src" "stream_safe.rs"
	.loc	34 70 0
	.cfi_startproc
	pushq	%rbp
	.cfi_def_cfa_offset 16
	.cfi_offset %rbp, -16
	movq	%rsp, %rbp
	.cfi_def_cfa_register %rbp
	subq	$96, %rsp
	movq	%rdi, -80(%rbp)
	movq	%rdi, -72(%rbp)
	movl	%esi, -60(%rbp)
Ltmp632:
	.loc	34 72 8 prologue_end
	cmpl	$127, -60(%rbp)
	jbe	LBB70_2
	.loc	34 80 27
	movl	-60(%rbp), %edi
	.loc	34 80 8 is_stmt 0
	callq	__ZN21unicode_normalization9normalize18is_hangul_syllable17h7b146c5444017317E
	testb	$1, %al
	jne	LBB70_5
	jmp	LBB70_4
LBB70_2:
	.loc	34 0 8
	movq	-80(%rbp), %rax
	.loc	34 73 16 is_stmt 1
	movq	$0, (%rax)
	movq	$0, 8(%rax)
	movq	$1, 16(%rax)
LBB70_3:
	.loc	34 0 16 is_stmt 0
	movq	-72(%rbp), %rax
	.loc	34 104 2 is_stmt 1
	addq	$96, %rsp
	popq	%rbp
	retq
LBB70_4:
	.loc	34 87 49
	movl	-60(%rbp), %edi
	.loc	34 87 18 is_stmt 0
	callq	__ZN21unicode_normalization7lookups30compatibility_fully_decomposed17h2a3f2ea86b08eb64E
	movq	%rax, %rdi
	movq	%rdx, %rsi
	leaq	-60(%rbp), %rax
	.loc	34 87 60
	movq	%rax, -40(%rbp)
	.loc	34 87 18
	movq	-40(%rbp), %rdx
	callq	__ZN4core6option15Option$LT$T$GT$7or_else17hf75c9fe1b9161a8cE
	movq	%rdx, -48(%rbp)
	movq	%rax, -56(%rbp)
Ltmp633:
	.loc	34 88 11 is_stmt 1
	movq	-56(%rbp), %rdx
	movl	$1, %eax
	xorl	%ecx, %ecx
	cmpq	$0, %rdx
	cmoveq	%rcx, %rax
	.loc	34 88 5 is_stmt 0
	cmpq	$0, %rax
	je	LBB70_6
	jmp	LBB70_7
Ltmp634:
LBB70_5:
	.loc	34 84 60 is_stmt 1
	movl	-60(%rbp), %edi
	.loc	34 84 32 is_stmt 0
	callq	__ZN21unicode_normalization9normalize27hangul_decomposition_length17hb9d143fea4dd6209E
	movq	%rax, %rcx
	movq	-80(%rbp), %rax
	.loc	34 81 16 is_stmt 1
	movq	$0, (%rax)
	movq	$0, 8(%rax)
	movq	%rcx, 16(%rax)
	.loc	30 1 1
	jmp	LBB70_3
LBB70_6:
Ltmp635:
	.loc	34 95 59
	movl	-60(%rbp), %edi
	.loc	34 95 33 is_stmt 0
	callq	__ZN21unicode_normalization7lookups25canonical_combining_class17h0595252e9f8c65a2E
	cmpb	$0, %al
	setne	%al
	movb	%al, %cl
	andb	$1, %cl
	movb	%cl, -1(%rbp)
Ltmp636:
	.loc	34 96 33 is_stmt 1
	testb	$1, %al
	jne	LBB70_9
	jmp	LBB70_8
Ltmp637:
LBB70_7:
	.loc	34 89 14
	movq	-56(%rbp), %rcx
	movq	-48(%rbp), %rax
	movq	%rax, -88(%rbp)
	movq	%rcx, -24(%rbp)
	movq	%rax, -16(%rbp)
Ltmp638:
	.loc	34 90 66
	movl	-60(%rbp), %edi
	.loc	34 90 34 is_stmt 0
	callq	__ZN21unicode_normalization6tables31stream_safe_leading_nonstarters17h9db0d0f8c4e87750E
	movq	%rax, -96(%rbp)
	.loc	34 91 68 is_stmt 1
	movl	-60(%rbp), %edi
	.loc	34 91 35 is_stmt 0
	callq	__ZN21unicode_normalization7lookups32stream_safe_trailing_nonstarters17h13eb30b37de6084dE
	movq	-96(%rbp), %rsi
	movq	-88(%rbp), %rcx
	movq	%rax, %rdx
	movq	-80(%rbp), %rax
	.loc	34 89 25 is_stmt 1
	movq	%rsi, (%rax)
	movq	%rdx, 8(%rax)
	movq	%rcx, 16(%rax)
Ltmp639:
	.loc	34 93 9
	jmp	LBB70_3
LBB70_8:
Ltmp640:
	.loc	34 96 60
	movq	$0, -32(%rbp)
	.loc	34 96 30 is_stmt 0
	jmp	LBB70_10
LBB70_9:
	.loc	34 96 49
	movq	$1, -32(%rbp)
LBB70_10:
	.loc	34 0 49
	movq	-80(%rbp), %rax
Ltmp641:
	.loc	34 98 38 is_stmt 1
	movq	-32(%rbp), %rdx
	.loc	34 99 39
	movq	-32(%rbp), %rcx
	.loc	34 97 13
	movq	%rdx, (%rax)
	movq	%rcx, 8(%rax)
	movq	$1, 16(%rax)
Ltmp642:
	.loc	34 102 9
	jmp	LBB70_3
Ltmp643:
Lfunc_end70:
	.cfi_endproc

	.p2align	4, 0x90
__ZN21unicode_normalization6tables31stream_safe_leading_nonstarters17h9db0d0f8c4e87750E:
Lfunc_begin71:
	.file	35 "/Users/natalie/.cargo/registry/src/github.com-1ecc6299db9ec823/unicode-normalization-0.1.22/src" "tables.rs"
	.loc	35 35663 0
	.cfi_startproc
	pushq	%rbp
	.cfi_def_cfa_offset 16
	.cfi_offset %rbp, -16
	movq	%rsp, %rbp
	.cfi_def_cfa_register %rbp
	subq	$24, %rsp
	movl	%edi, -20(%rbp)
	movl	%edi, -4(%rbp)
Ltmp644:
	.loc	35 35664 5 prologue_end
	subl	$832, %edi
	je	LBB71_2
	jmp	LBB71_12
LBB71_12:
	.loc	35 0 5 is_stmt 0
	movl	-20(%rbp), %eax
	.loc	35 35664 5
	subl	$833, %eax
	je	LBB71_3
	jmp	LBB71_13
LBB71_13:
	.loc	35 0 5
	movl	-20(%rbp), %eax
	.loc	35 35664 5
	subl	$835, %eax
	je	LBB71_4
	jmp	LBB71_14
LBB71_14:
	.loc	35 0 5
	movl	-20(%rbp), %eax
	.loc	35 35664 5
	subl	$836, %eax
	je	LBB71_5
	jmp	LBB71_15
LBB71_15:
	.loc	35 0 5
	movl	-20(%rbp), %eax
	.loc	35 35664 5
	subl	$3955, %eax
	je	LBB71_6
	jmp	LBB71_16
LBB71_16:
	.loc	35 0 5
	movl	-20(%rbp), %eax
	.loc	35 35664 5
	subl	$3957, %eax
	je	LBB71_7
	jmp	LBB71_17
LBB71_17:
	.loc	35 0 5
	movl	-20(%rbp), %eax
	.loc	35 35664 5
	subl	$3969, %eax
	je	LBB71_8
	jmp	LBB71_18
LBB71_18:
	.loc	35 0 5
	movl	-20(%rbp), %eax
	.loc	35 35664 5
	subl	$65438, %eax
	je	LBB71_9
	jmp	LBB71_19
LBB71_19:
	.loc	35 0 5
	movl	-20(%rbp), %eax
	.loc	35 35664 5
	subl	$65439, %eax
	je	LBB71_10
	jmp	LBB71_1
LBB71_1:
	.loc	35 35674 14 is_stmt 1
	movq	$0, -16(%rbp)
	jmp	LBB71_11
LBB71_2:
	.loc	35 35665 23
	movq	$1, -16(%rbp)
	jmp	LBB71_11
LBB71_3:
	.loc	35 35666 23
	movq	$1, -16(%rbp)
	jmp	LBB71_11
LBB71_4:
	.loc	35 35667 23
	movq	$1, -16(%rbp)
	jmp	LBB71_11
LBB71_5:
	.loc	35 35668 23
	movq	$2, -16(%rbp)
	jmp	LBB71_11
LBB71_6:
	.loc	35 35669 23
	movq	$2, -16(%rbp)
	jmp	LBB71_11
LBB71_7:
	.loc	35 35670 23
	movq	$2, -16(%rbp)
	jmp	LBB71_11
LBB71_8:
	.loc	35 35671 23
	movq	$2, -16(%rbp)
	jmp	LBB71_11
LBB71_9:
	.loc	35 35672 23
	movq	$1, -16(%rbp)
	jmp	LBB71_11
LBB71_10:
	.loc	35 35673 23
	movq	$1, -16(%rbp)
LBB71_11:
	.loc	35 35676 2
	movq	-16(%rbp), %rax
	addq	$24, %rsp
	popq	%rbp
	retq
Ltmp645:
Lfunc_end71:
	.cfi_endproc

	.p2align	4, 0x90
__ZN21unicode_normalization6tables6qc_nfc17h9f21c29bec77f1ccE:
Lfunc_begin72:
	.loc	35 34288 0
	.cfi_startproc
	pushq	%rbp
	.cfi_def_cfa_offset 16
	.cfi_offset %rbp, -16
	movq	%rsp, %rbp
	.cfi_def_cfa_register %rbp
	subq	$12, %rsp
	movl	%edi, -12(%rbp)
	movl	%edi, -4(%rbp)
Ltmp646:
	.loc	35 34290 9 prologue_end
	movl	$832, %eax
	cmpl	%edi, %eax
	jbe	LBB72_2
LBB72_1:
	.loc	35 0 9 is_stmt 0
	movl	-12(%rbp), %ecx
	.loc	35 34291 9 is_stmt 1
	movl	$835, %eax
	cmpl	%ecx, %eax
	jbe	LBB72_6
	jmp	LBB72_5
LBB72_2:
	.loc	35 0 9 is_stmt 0
	movl	-12(%rbp), %eax
	.loc	35 34290 9 is_stmt 1
	cmpl	$833, %eax
	ja	LBB72_1
	.loc	35 34290 36 is_stmt 0
	movb	$1, -5(%rbp)
LBB72_4:
	.loc	35 34409 2 is_stmt 1
	movb	-5(%rbp), %al
	addq	$12, %rsp
	popq	%rbp
	retq
LBB72_5:
	.loc	35 0 2 is_stmt 0
	movl	-12(%rbp), %eax
	.loc	35 34289 5 is_stmt 1
	subl	$783, %eax
	je	LBB72_60
	jmp	LBB72_188
LBB72_188:
	.loc	35 0 5 is_stmt 0
	movl	-12(%rbp), %eax
	.loc	35 34289 5
	subl	$785, %eax
	je	LBB72_61
	jmp	LBB72_189
LBB72_189:
	.loc	35 0 5
	movl	-12(%rbp), %eax
	.loc	35 34289 5
	subl	$795, %eax
	je	LBB72_62
	jmp	LBB72_190
LBB72_190:
	.loc	35 0 5
	movl	-12(%rbp), %eax
	.loc	35 34289 5
	subl	$824, %eax
	je	LBB72_63
	jmp	LBB72_191
LBB72_191:
	.loc	35 0 5
	movl	-12(%rbp), %eax
	.loc	35 34289 5
	subl	$834, %eax
	je	LBB72_64
	jmp	LBB72_192
LBB72_192:
	.loc	35 0 5
	movl	-12(%rbp), %eax
	.loc	35 34289 5
	subl	$837, %eax
	je	LBB72_65
	jmp	LBB72_193
LBB72_193:
	.loc	35 0 5
	movl	-12(%rbp), %eax
	.loc	35 34289 5
	subl	$884, %eax
	je	LBB72_9
	jmp	LBB72_194
LBB72_194:
	.loc	35 0 5
	movl	-12(%rbp), %eax
	.loc	35 34289 5
	subl	$894, %eax
	je	LBB72_10
	jmp	LBB72_195
LBB72_195:
	.loc	35 0 5
	movl	-12(%rbp), %eax
	.loc	35 34289 5
	subl	$903, %eax
	je	LBB72_11
	jmp	LBB72_196
LBB72_196:
	.loc	35 0 5
	movl	-12(%rbp), %eax
	.loc	35 34289 5
	subl	$2364, %eax
	je	LBB72_66
	jmp	LBB72_197
LBB72_197:
	.loc	35 0 5
	movl	-12(%rbp), %eax
	.loc	35 34289 5
	subl	$2494, %eax
	je	LBB72_67
	jmp	LBB72_198
LBB72_198:
	.loc	35 0 5
	movl	-12(%rbp), %eax
	.loc	35 34289 5
	subl	$2519, %eax
	je	LBB72_68
	jmp	LBB72_199
LBB72_199:
	.loc	35 0 5
	movl	-12(%rbp), %eax
	.loc	35 34289 5
	subl	$2527, %eax
	je	LBB72_12
	jmp	LBB72_200
LBB72_200:
	.loc	35 0 5
	movl	-12(%rbp), %eax
	.loc	35 34289 5
	subl	$2611, %eax
	je	LBB72_13
	jmp	LBB72_201
LBB72_201:
	.loc	35 0 5
	movl	-12(%rbp), %eax
	.loc	35 34289 5
	subl	$2614, %eax
	je	LBB72_14
	jmp	LBB72_202
LBB72_202:
	.loc	35 0 5
	movl	-12(%rbp), %eax
	.loc	35 34289 5
	subl	$2654, %eax
	je	LBB72_15
	jmp	LBB72_203
LBB72_203:
	.loc	35 0 5
	movl	-12(%rbp), %eax
	.loc	35 34289 5
	subl	$2878, %eax
	je	LBB72_69
	jmp	LBB72_204
LBB72_204:
	.loc	35 0 5
	movl	-12(%rbp), %eax
	.loc	35 34289 5
	subl	$2902, %eax
	je	LBB72_70
	jmp	LBB72_205
LBB72_205:
	.loc	35 0 5
	movl	-12(%rbp), %eax
	.loc	35 34289 5
	subl	$2903, %eax
	je	LBB72_71
	jmp	LBB72_206
LBB72_206:
	.loc	35 0 5
	movl	-12(%rbp), %eax
	.loc	35 34289 5
	subl	$3006, %eax
	je	LBB72_72
	jmp	LBB72_207
LBB72_207:
	.loc	35 0 5
	movl	-12(%rbp), %eax
	.loc	35 34289 5
	subl	$3031, %eax
	je	LBB72_73
	jmp	LBB72_208
LBB72_208:
	.loc	35 0 5
	movl	-12(%rbp), %eax
	.loc	35 34289 5
	subl	$3158, %eax
	je	LBB72_74
	jmp	LBB72_209
LBB72_209:
	.loc	35 0 5
	movl	-12(%rbp), %eax
	.loc	35 34289 5
	subl	$3266, %eax
	je	LBB72_75
	jmp	LBB72_210
LBB72_210:
	.loc	35 0 5
	movl	-12(%rbp), %eax
	.loc	35 34289 5
	subl	$3390, %eax
	je	LBB72_76
	jmp	LBB72_211
LBB72_211:
	.loc	35 0 5
	movl	-12(%rbp), %eax
	.loc	35 34289 5
	subl	$3415, %eax
	je	LBB72_77
	jmp	LBB72_212
LBB72_212:
	.loc	35 0 5
	movl	-12(%rbp), %eax
	.loc	35 34289 5
	subl	$3530, %eax
	je	LBB72_78
	jmp	LBB72_213
LBB72_213:
	.loc	35 0 5
	movl	-12(%rbp), %eax
	.loc	35 34289 5
	subl	$3535, %eax
	je	LBB72_79
	jmp	LBB72_214
LBB72_214:
	.loc	35 0 5
	movl	-12(%rbp), %eax
	.loc	35 34289 5
	subl	$3551, %eax
	je	LBB72_80
	jmp	LBB72_215
LBB72_215:
	.loc	35 0 5
	movl	-12(%rbp), %eax
	.loc	35 34289 5
	subl	$3907, %eax
	je	LBB72_16
	jmp	LBB72_216
LBB72_216:
	.loc	35 0 5
	movl	-12(%rbp), %eax
	.loc	35 34289 5
	subl	$3917, %eax
	je	LBB72_17
	jmp	LBB72_217
LBB72_217:
	.loc	35 0 5
	movl	-12(%rbp), %eax
	.loc	35 34289 5
	subl	$3922, %eax
	je	LBB72_18
	jmp	LBB72_218
LBB72_218:
	.loc	35 0 5
	movl	-12(%rbp), %eax
	.loc	35 34289 5
	subl	$3927, %eax
	je	LBB72_19
	jmp	LBB72_219
LBB72_219:
	.loc	35 0 5
	movl	-12(%rbp), %eax
	.loc	35 34289 5
	subl	$3932, %eax
	je	LBB72_20
	jmp	LBB72_220
LBB72_220:
	.loc	35 0 5
	movl	-12(%rbp), %eax
	.loc	35 34289 5
	subl	$3945, %eax
	je	LBB72_21
	jmp	LBB72_221
LBB72_221:
	.loc	35 0 5
	movl	-12(%rbp), %eax
	.loc	35 34289 5
	subl	$3955, %eax
	je	LBB72_22
	jmp	LBB72_222
LBB72_222:
	.loc	35 0 5
	movl	-12(%rbp), %eax
	.loc	35 34289 5
	subl	$3960, %eax
	je	LBB72_23
	jmp	LBB72_223
LBB72_223:
	.loc	35 0 5
	movl	-12(%rbp), %eax
	.loc	35 34289 5
	subl	$3969, %eax
	je	LBB72_24
	jmp	LBB72_224
LBB72_224:
	.loc	35 0 5
	movl	-12(%rbp), %eax
	.loc	35 34289 5
	subl	$3987, %eax
	je	LBB72_25
	jmp	LBB72_225
LBB72_225:
	.loc	35 0 5
	movl	-12(%rbp), %eax
	.loc	35 34289 5
	subl	$3997, %eax
	je	LBB72_26
	jmp	LBB72_226
LBB72_226:
	.loc	35 0 5
	movl	-12(%rbp), %eax
	.loc	35 34289 5
	subl	$4002, %eax
	je	LBB72_27
	jmp	LBB72_227
LBB72_227:
	.loc	35 0 5
	movl	-12(%rbp), %eax
	.loc	35 34289 5
	subl	$4007, %eax
	je	LBB72_28
	jmp	LBB72_228
LBB72_228:
	.loc	35 0 5
	movl	-12(%rbp), %eax
	.loc	35 34289 5
	subl	$4012, %eax
	je	LBB72_29
	jmp	LBB72_229
LBB72_229:
	.loc	35 0 5
	movl	-12(%rbp), %eax
	.loc	35 34289 5
	subl	$4025, %eax
	je	LBB72_30
	jmp	LBB72_230
LBB72_230:
	.loc	35 0 5
	movl	-12(%rbp), %eax
	.loc	35 34289 5
	subl	$4142, %eax
	je	LBB72_81
	jmp	LBB72_231
LBB72_231:
	.loc	35 0 5
	movl	-12(%rbp), %eax
	.loc	35 34289 5
	subl	$6965, %eax
	je	LBB72_82
	jmp	LBB72_232
LBB72_232:
	.loc	35 0 5
	movl	-12(%rbp), %eax
	.loc	35 34289 5
	subl	$8049, %eax
	je	LBB72_31
	jmp	LBB72_233
LBB72_233:
	.loc	35 0 5
	movl	-12(%rbp), %eax
	.loc	35 34289 5
	subl	$8051, %eax
	je	LBB72_32
	jmp	LBB72_234
LBB72_234:
	.loc	35 0 5
	movl	-12(%rbp), %eax
	.loc	35 34289 5
	subl	$8053, %eax
	je	LBB72_33
	jmp	LBB72_235
LBB72_235:
	.loc	35 0 5
	movl	-12(%rbp), %eax
	.loc	35 34289 5
	subl	$8055, %eax
	je	LBB72_34
	jmp	LBB72_236
LBB72_236:
	.loc	35 0 5
	movl	-12(%rbp), %eax
	.loc	35 34289 5
	subl	$8057, %eax
	je	LBB72_35
	jmp	LBB72_237
LBB72_237:
	.loc	35 0 5
	movl	-12(%rbp), %eax
	.loc	35 34289 5
	subl	$8059, %eax
	je	LBB72_36
	jmp	LBB72_238
LBB72_238:
	.loc	35 0 5
	movl	-12(%rbp), %eax
	.loc	35 34289 5
	subl	$8061, %eax
	je	LBB72_37
	jmp	LBB72_239
LBB72_239:
	.loc	35 0 5
	movl	-12(%rbp), %eax
	.loc	35 34289 5
	subl	$8123, %eax
	je	LBB72_38
	jmp	LBB72_240
LBB72_240:
	.loc	35 0 5
	movl	-12(%rbp), %eax
	.loc	35 34289 5
	subl	$8126, %eax
	je	LBB72_39
	jmp	LBB72_241
LBB72_241:
	.loc	35 0 5
	movl	-12(%rbp), %eax
	.loc	35 34289 5
	subl	$8137, %eax
	je	LBB72_40
	jmp	LBB72_242
LBB72_242:
	.loc	35 0 5
	movl	-12(%rbp), %eax
	.loc	35 34289 5
	subl	$8139, %eax
	je	LBB72_41
	jmp	LBB72_243
LBB72_243:
	.loc	35 0 5
	movl	-12(%rbp), %eax
	.loc	35 34289 5
	subl	$8147, %eax
	je	LBB72_42
	jmp	LBB72_244
LBB72_244:
	.loc	35 0 5
	movl	-12(%rbp), %eax
	.loc	35 34289 5
	subl	$8155, %eax
	je	LBB72_43
	jmp	LBB72_245
LBB72_245:
	.loc	35 0 5
	movl	-12(%rbp), %eax
	.loc	35 34289 5
	subl	$8163, %eax
	je	LBB72_44
	jmp	LBB72_246
LBB72_246:
	.loc	35 0 5
	movl	-12(%rbp), %eax
	.loc	35 34289 5
	subl	$8171, %eax
	je	LBB72_45
	jmp	LBB72_247
LBB72_247:
	.loc	35 0 5
	movl	-12(%rbp), %eax
	.loc	35 34289 5
	subl	$8185, %eax
	je	LBB72_46
	jmp	LBB72_248
LBB72_248:
	.loc	35 0 5
	movl	-12(%rbp), %eax
	.loc	35 34289 5
	subl	$8187, %eax
	je	LBB72_47
	jmp	LBB72_249
LBB72_249:
	.loc	35 0 5
	movl	-12(%rbp), %eax
	.loc	35 34289 5
	subl	$8189, %eax
	je	LBB72_48
	jmp	LBB72_250
LBB72_250:
	.loc	35 0 5
	movl	-12(%rbp), %eax
	.loc	35 34289 5
	subl	$8486, %eax
	je	LBB72_49
	jmp	LBB72_251
LBB72_251:
	.loc	35 0 5
	movl	-12(%rbp), %eax
	.loc	35 34289 5
	subl	$9001, %eax
	je	LBB72_50
	jmp	LBB72_252
LBB72_252:
	.loc	35 0 5
	movl	-12(%rbp), %eax
	.loc	35 34289 5
	subl	$9002, %eax
	je	LBB72_51
	jmp	LBB72_253
LBB72_253:
	.loc	35 0 5
	movl	-12(%rbp), %eax
	.loc	35 34289 5
	subl	$10972, %eax
	je	LBB72_52
	jmp	LBB72_254
LBB72_254:
	.loc	35 0 5
	movl	-12(%rbp), %eax
	.loc	35 34289 5
	subl	$64016, %eax
	je	LBB72_53
	jmp	LBB72_255
LBB72_255:
	.loc	35 0 5
	movl	-12(%rbp), %eax
	.loc	35 34289 5
	subl	$64018, %eax
	je	LBB72_54
	jmp	LBB72_256
LBB72_256:
	.loc	35 0 5
	movl	-12(%rbp), %eax
	.loc	35 34289 5
	subl	$64032, %eax
	je	LBB72_55
	jmp	LBB72_257
LBB72_257:
	.loc	35 0 5
	movl	-12(%rbp), %eax
	.loc	35 34289 5
	subl	$64034, %eax
	je	LBB72_56
	jmp	LBB72_258
LBB72_258:
	.loc	35 0 5
	movl	-12(%rbp), %eax
	.loc	35 34289 5
	subl	$64285, %eax
	je	LBB72_57
	jmp	LBB72_259
LBB72_259:
	.loc	35 0 5
	movl	-12(%rbp), %eax
	.loc	35 34289 5
	subl	$64287, %eax
	je	LBB72_58
	jmp	LBB72_260
LBB72_260:
	.loc	35 0 5
	movl	-12(%rbp), %eax
	.loc	35 34289 5
	subl	$64318, %eax
	je	LBB72_59
	jmp	LBB72_261
LBB72_261:
	.loc	35 0 5
	movl	-12(%rbp), %eax
	.loc	35 34289 5
	subl	$69818, %eax
	je	LBB72_83
	jmp	LBB72_262
LBB72_262:
	.loc	35 0 5
	movl	-12(%rbp), %eax
	.loc	35 34289 5
	subl	$69927, %eax
	je	LBB72_84
	jmp	LBB72_263
LBB72_263:
	.loc	35 0 5
	movl	-12(%rbp), %eax
	.loc	35 34289 5
	subl	$70462, %eax
	je	LBB72_85
	jmp	LBB72_264
LBB72_264:
	.loc	35 0 5
	movl	-12(%rbp), %eax
	.loc	35 34289 5
	subl	$70487, %eax
	je	LBB72_86
	jmp	LBB72_265
LBB72_265:
	.loc	35 0 5
	movl	-12(%rbp), %eax
	.loc	35 34289 5
	subl	$70832, %eax
	je	LBB72_87
	jmp	LBB72_266
LBB72_266:
	.loc	35 0 5
	movl	-12(%rbp), %eax
	.loc	35 34289 5
	subl	$70842, %eax
	je	LBB72_88
	jmp	LBB72_267
LBB72_267:
	.loc	35 0 5
	movl	-12(%rbp), %eax
	.loc	35 34289 5
	subl	$70845, %eax
	je	LBB72_89
	jmp	LBB72_268
LBB72_268:
	.loc	35 0 5
	movl	-12(%rbp), %eax
	.loc	35 34289 5
	subl	$71087, %eax
	je	LBB72_90
	jmp	LBB72_269
LBB72_269:
	.loc	35 0 5
	movl	-12(%rbp), %eax
	.loc	35 34289 5
	subl	$71984, %eax
	je	LBB72_91
	jmp	LBB72_8
LBB72_6:
	.loc	35 0 5
	movl	-12(%rbp), %eax
	.loc	35 34291 9 is_stmt 1
	cmpl	$836, %eax
	ja	LBB72_5
	.loc	35 34291 36 is_stmt 0
	movb	$1, -5(%rbp)
	jmp	LBB72_4
LBB72_8:
	.loc	35 0 36
	movl	-12(%rbp), %ecx
	.loc	35 34295 9 is_stmt 1
	movl	$2392, %eax
	cmpl	%ecx, %eax
	jbe	LBB72_93
	jmp	LBB72_92
LBB72_9:
	.loc	35 34292 23
	movb	$1, -5(%rbp)
	jmp	LBB72_4
LBB72_10:
	.loc	35 34293 23
	movb	$1, -5(%rbp)
	jmp	LBB72_4
LBB72_11:
	.loc	35 34294 23
	movb	$1, -5(%rbp)
	jmp	LBB72_4
LBB72_12:
	.loc	35 34297 23
	movb	$1, -5(%rbp)
	jmp	LBB72_4
LBB72_13:
	.loc	35 34298 23
	movb	$1, -5(%rbp)
	jmp	LBB72_4
LBB72_14:
	.loc	35 34299 23
	movb	$1, -5(%rbp)
	jmp	LBB72_4
LBB72_15:
	.loc	35 34301 23
	movb	$1, -5(%rbp)
	jmp	LBB72_4
LBB72_16:
	.loc	35 34303 23
	movb	$1, -5(%rbp)
	jmp	LBB72_4
LBB72_17:
	.loc	35 34304 23
	movb	$1, -5(%rbp)
	jmp	LBB72_4
LBB72_18:
	.loc	35 34305 23
	movb	$1, -5(%rbp)
	jmp	LBB72_4
LBB72_19:
	.loc	35 34306 23
	movb	$1, -5(%rbp)
	jmp	LBB72_4
LBB72_20:
	.loc	35 34307 23
	movb	$1, -5(%rbp)
	jmp	LBB72_4
LBB72_21:
	.loc	35 34308 23
	movb	$1, -5(%rbp)
	jmp	LBB72_4
LBB72_22:
	.loc	35 34309 23
	movb	$1, -5(%rbp)
	jmp	LBB72_4
LBB72_23:
	.loc	35 34311 23
	movb	$1, -5(%rbp)
	jmp	LBB72_4
LBB72_24:
	.loc	35 34312 23
	movb	$1, -5(%rbp)
	jmp	LBB72_4
LBB72_25:
	.loc	35 34313 23
	movb	$1, -5(%rbp)
	jmp	LBB72_4
LBB72_26:
	.loc	35 34314 23
	movb	$1, -5(%rbp)
	jmp	LBB72_4
LBB72_27:
	.loc	35 34315 23
	movb	$1, -5(%rbp)
	jmp	LBB72_4
LBB72_28:
	.loc	35 34316 23
	movb	$1, -5(%rbp)
	jmp	LBB72_4
LBB72_29:
	.loc	35 34317 23
	movb	$1, -5(%rbp)
	jmp	LBB72_4
LBB72_30:
	.loc	35 34318 23
	movb	$1, -5(%rbp)
	jmp	LBB72_4
LBB72_31:
	.loc	35 34319 23
	movb	$1, -5(%rbp)
	jmp	LBB72_4
LBB72_32:
	.loc	35 34320 23
	movb	$1, -5(%rbp)
	jmp	LBB72_4
LBB72_33:
	.loc	35 34321 23
	movb	$1, -5(%rbp)
	jmp	LBB72_4
LBB72_34:
	.loc	35 34322 23
	movb	$1, -5(%rbp)
	jmp	LBB72_4
LBB72_35:
	.loc	35 34323 23
	movb	$1, -5(%rbp)
	jmp	LBB72_4
LBB72_36:
	.loc	35 34324 23
	movb	$1, -5(%rbp)
	jmp	LBB72_4
LBB72_37:
	.loc	35 34325 23
	movb	$1, -5(%rbp)
	jmp	LBB72_4
LBB72_38:
	.loc	35 34326 23
	movb	$1, -5(%rbp)
	jmp	LBB72_4
LBB72_39:
	.loc	35 34327 23
	movb	$1, -5(%rbp)
	jmp	LBB72_4
LBB72_40:
	.loc	35 34328 23
	movb	$1, -5(%rbp)
	jmp	LBB72_4
LBB72_41:
	.loc	35 34329 23
	movb	$1, -5(%rbp)
	jmp	LBB72_4
LBB72_42:
	.loc	35 34330 23
	movb	$1, -5(%rbp)
	jmp	LBB72_4
LBB72_43:
	.loc	35 34331 23
	movb	$1, -5(%rbp)
	jmp	LBB72_4
LBB72_44:
	.loc	35 34332 23
	movb	$1, -5(%rbp)
	jmp	LBB72_4
LBB72_45:
	.loc	35 34333 23
	movb	$1, -5(%rbp)
	jmp	LBB72_4
LBB72_46:
	.loc	35 34335 23
	movb	$1, -5(%rbp)
	jmp	LBB72_4
LBB72_47:
	.loc	35 34336 23
	movb	$1, -5(%rbp)
	jmp	LBB72_4
LBB72_48:
	.loc	35 34337 23
	movb	$1, -5(%rbp)
	jmp	LBB72_4
LBB72_49:
	.loc	35 34339 23
	movb	$1, -5(%rbp)
	jmp	LBB72_4
LBB72_50:
	.loc	35 34341 23
	movb	$1, -5(%rbp)
	jmp	LBB72_4
LBB72_51:
	.loc	35 34342 23
	movb	$1, -5(%rbp)
	jmp	LBB72_4
LBB72_52:
	.loc	35 34343 23
	movb	$1, -5(%rbp)
	jmp	LBB72_4
LBB72_53:
	.loc	35 34345 23
	movb	$1, -5(%rbp)
	jmp	LBB72_4
LBB72_54:
	.loc	35 34346 23
	movb	$1, -5(%rbp)
	jmp	LBB72_4
LBB72_55:
	.loc	35 34348 23
	movb	$1, -5(%rbp)
	jmp	LBB72_4
LBB72_56:
	.loc	35 34349 23
	movb	$1, -5(%rbp)
	jmp	LBB72_4
LBB72_57:
	.loc	35 34353 23
	movb	$1, -5(%rbp)
	jmp	LBB72_4
LBB72_58:
	.loc	35 34354 23
	movb	$1, -5(%rbp)
	jmp	LBB72_4
LBB72_59:
	.loc	35 34357 23
	movb	$1, -5(%rbp)
	jmp	LBB72_4
LBB72_60:
	.loc	35 34366 23
	movb	$2, -5(%rbp)
	jmp	LBB72_4
LBB72_61:
	.loc	35 34367 23
	movb	$2, -5(%rbp)
	jmp	LBB72_4
LBB72_62:
	.loc	35 34369 23
	movb	$2, -5(%rbp)
	jmp	LBB72_4
LBB72_63:
	.loc	35 34373 23
	movb	$2, -5(%rbp)
	jmp	LBB72_4
LBB72_64:
	.loc	35 34374 23
	movb	$2, -5(%rbp)
	jmp	LBB72_4
LBB72_65:
	.loc	35 34375 23
	movb	$2, -5(%rbp)
	jmp	LBB72_4
LBB72_66:
	.loc	35 34377 23
	movb	$2, -5(%rbp)
	jmp	LBB72_4
LBB72_67:
	.loc	35 34378 23
	movb	$2, -5(%rbp)
	jmp	LBB72_4
LBB72_68:
	.loc	35 34379 23
	movb	$2, -5(%rbp)
	jmp	LBB72_4
LBB72_69:
	.loc	35 34380 23
	movb	$2, -5(%rbp)
	jmp	LBB72_4
LBB72_70:
	.loc	35 34381 23
	movb	$2, -5(%rbp)
	jmp	LBB72_4
LBB72_71:
	.loc	35 34382 23
	movb	$2, -5(%rbp)
	jmp	LBB72_4
LBB72_72:
	.loc	35 34383 23
	movb	$2, -5(%rbp)
	jmp	LBB72_4
LBB72_73:
	.loc	35 34384 23
	movb	$2, -5(%rbp)
	jmp	LBB72_4
LBB72_74:
	.loc	35 34385 23
	movb	$2, -5(%rbp)
	jmp	LBB72_4
LBB72_75:
	.loc	35 34386 23
	movb	$2, -5(%rbp)
	jmp	LBB72_4
LBB72_76:
	.loc	35 34388 23
	movb	$2, -5(%rbp)
	jmp	LBB72_4
LBB72_77:
	.loc	35 34389 23
	movb	$2, -5(%rbp)
	jmp	LBB72_4
LBB72_78:
	.loc	35 34390 23
	movb	$2, -5(%rbp)
	jmp	LBB72_4
LBB72_79:
	.loc	35 34391 23
	movb	$2, -5(%rbp)
	jmp	LBB72_4
LBB72_80:
	.loc	35 34392 23
	movb	$2, -5(%rbp)
	jmp	LBB72_4
LBB72_81:
	.loc	35 34393 23
	movb	$2, -5(%rbp)
	jmp	LBB72_4
LBB72_82:
	.loc	35 34396 23
	movb	$2, -5(%rbp)
	jmp	LBB72_4
LBB72_83:
	.loc	35 34398 24
	movb	$2, -5(%rbp)
	jmp	LBB72_4
LBB72_84:
	.loc	35 34399 24
	movb	$2, -5(%rbp)
	jmp	LBB72_4
LBB72_85:
	.loc	35 34400 24
	movb	$2, -5(%rbp)
	jmp	LBB72_4
LBB72_86:
	.loc	35 34401 24
	movb	$2, -5(%rbp)
	jmp	LBB72_4
LBB72_87:
	.loc	35 34402 24
	movb	$2, -5(%rbp)
	jmp	LBB72_4
LBB72_88:
	.loc	35 34403 24
	movb	$2, -5(%rbp)
	jmp	LBB72_4
LBB72_89:
	.loc	35 34404 24
	movb	$2, -5(%rbp)
	jmp	LBB72_4
LBB72_90:
	.loc	35 34405 24
	movb	$2, -5(%rbp)
	jmp	LBB72_4
LBB72_91:
	.loc	35 34406 24
	movb	$2, -5(%rbp)
	jmp	LBB72_4
LBB72_92:
	.loc	35 0 24 is_stmt 0
	movl	-12(%rbp), %ecx
	.loc	35 34296 9 is_stmt 1
	movl	$2524, %eax
	cmpl	%ecx, %eax
	jbe	LBB72_96
	jmp	LBB72_95
LBB72_93:
	.loc	35 0 9 is_stmt 0
	movl	-12(%rbp), %eax
	.loc	35 34295 9 is_stmt 1
	cmpl	$2399, %eax
	ja	LBB72_92
	.loc	35 34295 36 is_stmt 0
	movb	$1, -5(%rbp)
	jmp	LBB72_4
LBB72_95:
	.loc	35 0 36
	movl	-12(%rbp), %ecx
	.loc	35 34300 9 is_stmt 1
	movl	$2649, %eax
	cmpl	%ecx, %eax
	jbe	LBB72_99
	jmp	LBB72_98
LBB72_96:
	.loc	35 0 9 is_stmt 0
	movl	-12(%rbp), %eax
	.loc	35 34296 9 is_stmt 1
	cmpl	$2525, %eax
	ja	LBB72_95
	.loc	35 34296 36 is_stmt 0
	movb	$1, -5(%rbp)
	jmp	LBB72_4
LBB72_98:
	.loc	35 0 36
	movl	-12(%rbp), %ecx
	.loc	35 34302 9 is_stmt 1
	movl	$2908, %eax
	cmpl	%ecx, %eax
	jbe	LBB72_102
	jmp	LBB72_101
LBB72_99:
	.loc	35 0 9 is_stmt 0
	movl	-12(%rbp), %eax
	.loc	35 34300 9 is_stmt 1
	cmpl	$2651, %eax
	ja	LBB72_98
	.loc	35 34300 36 is_stmt 0
	movb	$1, -5(%rbp)
	jmp	LBB72_4
LBB72_101:
	.loc	35 0 36
	movl	-12(%rbp), %ecx
	.loc	35 34310 9 is_stmt 1
	movl	$3957, %eax
	cmpl	%ecx, %eax
	jbe	LBB72_105
	jmp	LBB72_104
LBB72_102:
	.loc	35 0 9 is_stmt 0
	movl	-12(%rbp), %eax
	.loc	35 34302 9 is_stmt 1
	cmpl	$2909, %eax
	ja	LBB72_101
	.loc	35 34302 36 is_stmt 0
	movb	$1, -5(%rbp)
	jmp	LBB72_4
LBB72_104:
	.loc	35 0 36
	movl	-12(%rbp), %ecx
	.loc	35 34334 9 is_stmt 1
	movl	$8174, %eax
	cmpl	%ecx, %eax
	jbe	LBB72_108
	jmp	LBB72_107
LBB72_105:
	.loc	35 0 9 is_stmt 0
	movl	-12(%rbp), %eax
	.loc	35 34310 9 is_stmt 1
	cmpl	$3958, %eax
	ja	LBB72_104
	.loc	35 34310 36 is_stmt 0
	movb	$1, -5(%rbp)
	jmp	LBB72_4
LBB72_107:
	.loc	35 0 36
	movl	-12(%rbp), %ecx
	.loc	35 34338 9 is_stmt 1
	movl	$8192, %eax
	cmpl	%ecx, %eax
	jbe	LBB72_111
	jmp	LBB72_110
LBB72_108:
	.loc	35 0 9 is_stmt 0
	movl	-12(%rbp), %eax
	.loc	35 34334 9 is_stmt 1
	cmpl	$8175, %eax
	ja	LBB72_107
	.loc	35 34334 36 is_stmt 0
	movb	$1, -5(%rbp)
	jmp	LBB72_4
LBB72_110:
	.loc	35 0 36
	movl	-12(%rbp), %ecx
	.loc	35 34340 9 is_stmt 1
	movl	$8490, %eax
	cmpl	%ecx, %eax
	jbe	LBB72_114
	jmp	LBB72_113
LBB72_111:
	.loc	35 0 9 is_stmt 0
	movl	-12(%rbp), %eax
	.loc	35 34338 9 is_stmt 1
	cmpl	$8193, %eax
	ja	LBB72_110
	.loc	35 34338 36 is_stmt 0
	movb	$1, -5(%rbp)
	jmp	LBB72_4
LBB72_113:
	.loc	35 0 36
	movl	-12(%rbp), %ecx
	.loc	35 34344 9 is_stmt 1
	movl	$63744, %eax
	cmpl	%ecx, %eax
	jbe	LBB72_117
	jmp	LBB72_116
LBB72_114:
	.loc	35 0 9 is_stmt 0
	movl	-12(%rbp), %eax
	.loc	35 34340 9 is_stmt 1
	cmpl	$8491, %eax
	ja	LBB72_113
	.loc	35 34340 36 is_stmt 0
	movb	$1, -5(%rbp)
	jmp	LBB72_4
LBB72_116:
	.loc	35 0 36
	movl	-12(%rbp), %ecx
	.loc	35 34347 9 is_stmt 1
	movl	$64021, %eax
	cmpl	%ecx, %eax
	jbe	LBB72_120
	jmp	LBB72_119
LBB72_117:
	.loc	35 0 9 is_stmt 0
	movl	-12(%rbp), %eax
	.loc	35 34344 9 is_stmt 1
	cmpl	$64013, %eax
	ja	LBB72_116
	.loc	35 34344 36 is_stmt 0
	movb	$1, -5(%rbp)
	jmp	LBB72_4
LBB72_119:
	.loc	35 0 36
	movl	-12(%rbp), %ecx
	.loc	35 34350 9 is_stmt 1
	movl	$64037, %eax
	cmpl	%ecx, %eax
	jbe	LBB72_123
	jmp	LBB72_122
LBB72_120:
	.loc	35 0 9 is_stmt 0
	movl	-12(%rbp), %eax
	.loc	35 34347 9 is_stmt 1
	cmpl	$64030, %eax
	ja	LBB72_119
	.loc	35 34347 36 is_stmt 0
	movb	$1, -5(%rbp)
	jmp	LBB72_4
LBB72_122:
	.loc	35 0 36
	movl	-12(%rbp), %ecx
	.loc	35 34351 9 is_stmt 1
	movl	$64042, %eax
	cmpl	%ecx, %eax
	jbe	LBB72_126
	jmp	LBB72_125
LBB72_123:
	.loc	35 0 9 is_stmt 0
	movl	-12(%rbp), %eax
	.loc	35 34350 9 is_stmt 1
	cmpl	$64038, %eax
	ja	LBB72_122
	.loc	35 34350 36 is_stmt 0
	movb	$1, -5(%rbp)
	jmp	LBB72_4
LBB72_125:
	.loc	35 0 36
	movl	-12(%rbp), %ecx
	.loc	35 34352 9 is_stmt 1
	movl	$64112, %eax
	cmpl	%ecx, %eax
	jbe	LBB72_129
	jmp	LBB72_128
LBB72_126:
	.loc	35 0 9 is_stmt 0
	movl	-12(%rbp), %eax
	.loc	35 34351 9 is_stmt 1
	cmpl	$64109, %eax
	ja	LBB72_125
	.loc	35 34351 36 is_stmt 0
	movb	$1, -5(%rbp)
	jmp	LBB72_4
LBB72_128:
	.loc	35 0 36
	movl	-12(%rbp), %ecx
	.loc	35 34355 9 is_stmt 1
	movl	$64298, %eax
	cmpl	%ecx, %eax
	jbe	LBB72_132
	jmp	LBB72_131
LBB72_129:
	.loc	35 0 9 is_stmt 0
	movl	-12(%rbp), %eax
	.loc	35 34352 9 is_stmt 1
	cmpl	$64217, %eax
	ja	LBB72_128
	.loc	35 34352 36 is_stmt 0
	movb	$1, -5(%rbp)
	jmp	LBB72_4
LBB72_131:
	.loc	35 0 36
	movl	-12(%rbp), %ecx
	.loc	35 34356 9 is_stmt 1
	movl	$64312, %eax
	cmpl	%ecx, %eax
	jbe	LBB72_135
	jmp	LBB72_134
LBB72_132:
	.loc	35 0 9 is_stmt 0
	movl	-12(%rbp), %eax
	.loc	35 34355 9 is_stmt 1
	cmpl	$64310, %eax
	ja	LBB72_131
	.loc	35 34355 36 is_stmt 0
	movb	$1, -5(%rbp)
	jmp	LBB72_4
LBB72_134:
	.loc	35 0 36
	movl	-12(%rbp), %ecx
	.loc	35 34358 9 is_stmt 1
	movl	$64320, %eax
	cmpl	%ecx, %eax
	jbe	LBB72_138
	jmp	LBB72_137
LBB72_135:
	.loc	35 0 9 is_stmt 0
	movl	-12(%rbp), %eax
	.loc	35 34356 9 is_stmt 1
	cmpl	$64316, %eax
	ja	LBB72_134
	.loc	35 34356 36 is_stmt 0
	movb	$1, -5(%rbp)
	jmp	LBB72_4
LBB72_137:
	.loc	35 0 36
	movl	-12(%rbp), %ecx
	.loc	35 34359 9 is_stmt 1
	movl	$64323, %eax
	cmpl	%ecx, %eax
	jbe	LBB72_141
	jmp	LBB72_140
LBB72_138:
	.loc	35 0 9 is_stmt 0
	movl	-12(%rbp), %eax
	.loc	35 34358 9 is_stmt 1
	cmpl	$64321, %eax
	ja	LBB72_137
	.loc	35 34358 36 is_stmt 0
	movb	$1, -5(%rbp)
	jmp	LBB72_4
LBB72_140:
	.loc	35 0 36
	movl	-12(%rbp), %ecx
	.loc	35 34360 9 is_stmt 1
	movl	$64326, %eax
	cmpl	%ecx, %eax
	jbe	LBB72_144
	jmp	LBB72_143
LBB72_141:
	.loc	35 0 9 is_stmt 0
	movl	-12(%rbp), %eax
	.loc	35 34359 9 is_stmt 1
	cmpl	$64324, %eax
	ja	LBB72_140
	.loc	35 34359 36 is_stmt 0
	movb	$1, -5(%rbp)
	jmp	LBB72_4
LBB72_143:
	.loc	35 0 36
	movl	-12(%rbp), %ecx
	.loc	35 34361 9 is_stmt 1
	movl	$119134, %eax
	cmpl	%ecx, %eax
	jbe	LBB72_147
	jmp	LBB72_146
LBB72_144:
	.loc	35 0 9 is_stmt 0
	movl	-12(%rbp), %eax
	.loc	35 34360 9 is_stmt 1
	cmpl	$64334, %eax
	ja	LBB72_143
	.loc	35 34360 36 is_stmt 0
	movb	$1, -5(%rbp)
	jmp	LBB72_4
LBB72_146:
	.loc	35 0 36
	movl	-12(%rbp), %ecx
	.loc	35 34362 9 is_stmt 1
	movl	$119227, %eax
	cmpl	%ecx, %eax
	jbe	LBB72_150
	jmp	LBB72_149
LBB72_147:
	.loc	35 0 9 is_stmt 0
	movl	-12(%rbp), %eax
	.loc	35 34361 9 is_stmt 1
	cmpl	$119140, %eax
	ja	LBB72_146
	.loc	35 34361 38 is_stmt 0
	movb	$1, -5(%rbp)
	jmp	LBB72_4
LBB72_149:
	.loc	35 0 38
	movl	-12(%rbp), %ecx
	.loc	35 34363 9 is_stmt 1
	movl	$194560, %eax
	cmpl	%ecx, %eax
	jbe	LBB72_153
	jmp	LBB72_152
LBB72_150:
	.loc	35 0 9 is_stmt 0
	movl	-12(%rbp), %eax
	.loc	35 34362 9 is_stmt 1
	cmpl	$119232, %eax
	ja	LBB72_149
	.loc	35 34362 38 is_stmt 0
	movb	$1, -5(%rbp)
	jmp	LBB72_4
LBB72_152:
	.loc	35 0 38
	movl	-12(%rbp), %ecx
	.loc	35 34364 9 is_stmt 1
	movl	$768, %eax
	cmpl	%ecx, %eax
	jbe	LBB72_156
	jmp	LBB72_155
LBB72_153:
	.loc	35 0 9 is_stmt 0
	movl	-12(%rbp), %eax
	.loc	35 34363 9 is_stmt 1
	cmpl	$195101, %eax
	ja	LBB72_152
	.loc	35 34363 38 is_stmt 0
	movb	$1, -5(%rbp)
	jmp	LBB72_4
LBB72_155:
	.loc	35 0 38
	movl	-12(%rbp), %ecx
	.loc	35 34365 9 is_stmt 1
	movl	$774, %eax
	cmpl	%ecx, %eax
	jbe	LBB72_159
	jmp	LBB72_158
LBB72_156:
	.loc	35 0 9 is_stmt 0
	movl	-12(%rbp), %eax
	.loc	35 34364 9 is_stmt 1
	cmpl	$772, %eax
	ja	LBB72_155
	.loc	35 34364 36 is_stmt 0
	movb	$2, -5(%rbp)
	jmp	LBB72_4
LBB72_158:
	.loc	35 0 36
	movl	-12(%rbp), %ecx
	.loc	35 34368 9 is_stmt 1
	movl	$787, %eax
	cmpl	%ecx, %eax
	jbe	LBB72_162
	jmp	LBB72_161
LBB72_159:
	.loc	35 0 9 is_stmt 0
	movl	-12(%rbp), %eax
	.loc	35 34365 9 is_stmt 1
	cmpl	$780, %eax
	ja	LBB72_158
	.loc	35 34365 36 is_stmt 0
	movb	$2, -5(%rbp)
	jmp	LBB72_4
LBB72_161:
	.loc	35 0 36
	movl	-12(%rbp), %ecx
	.loc	35 34370 9 is_stmt 1
	movl	$803, %eax
	cmpl	%ecx, %eax
	jbe	LBB72_165
	jmp	LBB72_164
LBB72_162:
	.loc	35 0 9 is_stmt 0
	movl	-12(%rbp), %eax
	.loc	35 34368 9 is_stmt 1
	cmpl	$788, %eax
	ja	LBB72_161
	.loc	35 34368 36 is_stmt 0
	movb	$2, -5(%rbp)
	jmp	LBB72_4
LBB72_164:
	.loc	35 0 36
	movl	-12(%rbp), %ecx
	.loc	35 34371 9 is_stmt 1
	movl	$813, %eax
	cmpl	%ecx, %eax
	jbe	LBB72_168
	jmp	LBB72_167
LBB72_165:
	.loc	35 0 9 is_stmt 0
	movl	-12(%rbp), %eax
	.loc	35 34370 9 is_stmt 1
	cmpl	$808, %eax
	ja	LBB72_164
	.loc	35 34370 36 is_stmt 0
	movb	$2, -5(%rbp)
	jmp	LBB72_4
LBB72_167:
	.loc	35 0 36
	movl	-12(%rbp), %ecx
	.loc	35 34372 9 is_stmt 1
	movl	$816, %eax
	cmpl	%ecx, %eax
	jbe	LBB72_171
	jmp	LBB72_170
LBB72_168:
	.loc	35 0 9 is_stmt 0
	movl	-12(%rbp), %eax
	.loc	35 34371 9 is_stmt 1
	cmpl	$814, %eax
	ja	LBB72_167
	.loc	35 34371 36 is_stmt 0
	movb	$2, -5(%rbp)
	jmp	LBB72_4
LBB72_170:
	.loc	35 0 36
	movl	-12(%rbp), %ecx
	.loc	35 34376 9 is_stmt 1
	movl	$1619, %eax
	cmpl	%ecx, %eax
	jbe	LBB72_174
	jmp	LBB72_173
LBB72_171:
	.loc	35 0 9 is_stmt 0
	movl	-12(%rbp), %eax
	.loc	35 34372 9 is_stmt 1
	cmpl	$817, %eax
	ja	LBB72_170
	.loc	35 34372 36 is_stmt 0
	movb	$2, -5(%rbp)
	jmp	LBB72_4
LBB72_173:
	.loc	35 0 36
	movl	-12(%rbp), %ecx
	.loc	35 34387 9 is_stmt 1
	movl	$3285, %eax
	cmpl	%ecx, %eax
	jbe	LBB72_177
	jmp	LBB72_176
LBB72_174:
	.loc	35 0 9 is_stmt 0
	movl	-12(%rbp), %eax
	.loc	35 34376 9 is_stmt 1
	cmpl	$1621, %eax
	ja	LBB72_173
	.loc	35 34376 36 is_stmt 0
	movb	$2, -5(%rbp)
	jmp	LBB72_4
LBB72_176:
	.loc	35 0 36
	movl	-12(%rbp), %ecx
	.loc	35 34394 9 is_stmt 1
	movl	$4449, %eax
	cmpl	%ecx, %eax
	jbe	LBB72_180
	jmp	LBB72_179
LBB72_177:
	.loc	35 0 9 is_stmt 0
	movl	-12(%rbp), %eax
	.loc	35 34387 9 is_stmt 1
	cmpl	$3286, %eax
	ja	LBB72_176
	.loc	35 34387 36 is_stmt 0
	movb	$2, -5(%rbp)
	jmp	LBB72_4
LBB72_179:
	.loc	35 0 36
	movl	-12(%rbp), %ecx
	.loc	35 34395 9 is_stmt 1
	movl	$4520, %eax
	cmpl	%ecx, %eax
	jbe	LBB72_183
	jmp	LBB72_182
LBB72_180:
	.loc	35 0 9 is_stmt 0
	movl	-12(%rbp), %eax
	.loc	35 34394 9 is_stmt 1
	cmpl	$4469, %eax
	ja	LBB72_179
	.loc	35 34394 36 is_stmt 0
	movb	$2, -5(%rbp)
	jmp	LBB72_4
LBB72_182:
	.loc	35 0 36
	movl	-12(%rbp), %ecx
	.loc	35 34397 9 is_stmt 1
	movl	$12441, %eax
	cmpl	%ecx, %eax
	jbe	LBB72_186
	jmp	LBB72_185
LBB72_183:
	.loc	35 0 9 is_stmt 0
	movl	-12(%rbp), %eax
	.loc	35 34395 9 is_stmt 1
	cmpl	$4546, %eax
	ja	LBB72_182
	.loc	35 34395 36 is_stmt 0
	movb	$2, -5(%rbp)
	jmp	LBB72_4
LBB72_185:
	.loc	35 34407 14 is_stmt 1
	movb	$0, -5(%rbp)
	jmp	LBB72_4
LBB72_186:
	.loc	35 0 14 is_stmt 0
	movl	-12(%rbp), %eax
	.loc	35 34397 9 is_stmt 1
	cmpl	$12442, %eax
	ja	LBB72_185
	.loc	35 34397 36 is_stmt 0
	movb	$2, -5(%rbp)
	jmp	LBB72_4
Ltmp647:
Lfunc_end72:
	.cfi_endproc

	.globl	__ZN21unicode_normalization9decompose13new_canonical17h05a66bcae9adfc02E
	.p2align	4, 0x90
__ZN21unicode_normalization9decompose13new_canonical17h05a66bcae9adfc02E:
Lfunc_begin73:
	.loc	26 40 0 is_stmt 1
	.cfi_startproc
	.cfi_personality 155, _rust_eh_personality
	.cfi_lsda 16, Lexception16
	pushq	%rbp
	.cfi_def_cfa_offset 16
	.cfi_offset %rbp, -16
	movq	%rsp, %rbp
	.cfi_def_cfa_register %rbp
	subq	$144, %rsp
	movq	%rdx, -144(%rbp)
	movq	%rsi, %rax
	movq	-144(%rbp), %rsi
	movq	%rax, -136(%rbp)
	movq	%rdi, %rax
	movq	-136(%rbp), %rdi
	movq	%rax, -128(%rbp)
	movq	%rax, -120(%rbp)
	movq	%rdi, -32(%rbp)
	movq	%rsi, -24(%rbp)
Ltmp651:
	.loc	26 42 15 prologue_end
	movb	$0, -89(%rbp)
	.loc	26 43 15
	callq	__ZN4core4iter6traits8iterator8Iterator4fuse17h43b28bd59c686e55E
	movq	%rax, -112(%rbp)
	movq	%rdx, -104(%rbp)
Ltmp648:
	leaq	-88(%rbp), %rdi
Ltmp652:
	.loc	27 851 5
	callq	__ZN77_$LT$tinyvec..tinyvec..TinyVec$LT$A$GT$$u20$as$u20$core..default..Default$GT$7default17h0dd6b604841106a3E
Ltmp649:
	jmp	LBB73_1
LBB73_1:
	.loc	27 852 4
	jmp	LBB73_4
Ltmp653:
LBB73_2:
	.loc	26 40 1
	movq	-16(%rbp), %rdi
	callq	__Unwind_Resume
LBB73_3:
Ltmp650:
	.loc	26 0 1 is_stmt 0
	movq	%rax, %rcx
	movl	%edx, %eax
	movq	%rcx, -16(%rbp)
	movl	%eax, -8(%rbp)
	jmp	LBB73_2
LBB73_4:
	movq	-128(%rbp), %rdi
	movq	-104(%rbp), %rax
	movq	-112(%rbp), %rcx
	.loc	26 45 16 is_stmt 1
	movq	$0, -48(%rbp)
	movq	$0, -40(%rbp)
	.loc	26 41 5
	movb	-89(%rbp), %dl
	andb	$1, %dl
	movb	%dl, 72(%rdi)
	movq	%rcx, (%rdi)
	movq	%rax, 8(%rdi)
	addq	$32, %rdi
	leaq	-88(%rbp), %rsi
	movl	$40, %edx
	callq	_memcpy
	movq	-128(%rbp), %rcx
	movq	-120(%rbp), %rax
	movq	-48(%rbp), %rsi
	movq	-40(%rbp), %rdx
	movq	%rsi, 16(%rcx)
	movq	%rdx, 24(%rcx)
	.loc	26 47 2
	addq	$144, %rsp
	popq	%rbp
	retq
Ltmp654:
Lfunc_end73:
	.cfi_endproc
	.section	__TEXT,__gcc_except_tab
	.p2align	2
GCC_except_table73:
Lexception16:
	.byte	255
	.byte	255
	.byte	1
	.uleb128 Lcst_end16-Lcst_begin16
Lcst_begin16:
	.uleb128 Lfunc_begin73-Lfunc_begin73
	.uleb128 Ltmp648-Lfunc_begin73
	.byte	0
	.byte	0
	.uleb128 Ltmp648-Lfunc_begin73
	.uleb128 Ltmp649-Ltmp648
	.uleb128 Ltmp650-Lfunc_begin73
	.byte	0
	.uleb128 Ltmp649-Lfunc_begin73
	.uleb128 Lfunc_end73-Ltmp649
	.byte	0
	.byte	0
Lcst_end16:
	.p2align	2

	.section	__TEXT,__text,regular,pure_instructions
	.globl	__ZN21unicode_normalization9decompose13new_canonical17h456e6437b26fba8eE
	.p2align	4, 0x90
__ZN21unicode_normalization9decompose13new_canonical17h456e6437b26fba8eE:
Lfunc_begin74:
	.loc	26 40 0
	.cfi_startproc
	.cfi_personality 155, _rust_eh_personality
	.cfi_lsda 16, Lexception17
	pushq	%rbp
	.cfi_def_cfa_offset 16
	.cfi_offset %rbp, -16
	movq	%rsp, %rbp
	.cfi_def_cfa_register %rbp
	subq	$192, %rsp
	movq	%rdi, -192(%rbp)
	movq	%rdi, -184(%rbp)
Ltmp658:
	.loc	26 42 15 prologue_end
	movb	$0, -169(%rbp)
	.loc	26 43 15
	movq	40(%rsi), %rax
	movq	%rax, -80(%rbp)
	movq	32(%rsi), %rax
	movq	%rax, -88(%rbp)
	movq	24(%rsi), %rax
	movq	%rax, -96(%rbp)
	movq	16(%rsi), %rax
	movq	%rax, -104(%rbp)
	movq	(%rsi), %rax
	movq	8(%rsi), %rcx
	movq	%rcx, -112(%rbp)
	movq	%rax, -120(%rbp)
	leaq	-168(%rbp), %rdi
	leaq	-120(%rbp), %rsi
Ltmp659:
	callq	__ZN4core4iter6traits8iterator8Iterator4fuse17h5c48e7b67f37cecaE
Ltmp655:
	leaq	-72(%rbp), %rdi
Ltmp660:
	.loc	27 851 5
	callq	__ZN77_$LT$tinyvec..tinyvec..TinyVec$LT$A$GT$$u20$as$u20$core..default..Default$GT$7default17h0dd6b604841106a3E
Ltmp656:
	jmp	LBB74_1
Ltmp661:
LBB74_1:
	.loc	27 852 4
	jmp	LBB74_4
Ltmp662:
LBB74_2:
	.loc	26 40 1
	movq	-16(%rbp), %rdi
	callq	__Unwind_Resume
Ltmp663:
LBB74_3:
Ltmp657:
	.loc	26 0 1 is_stmt 0
	movq	%rax, %rcx
	movl	%edx, %eax
	movq	%rcx, -16(%rbp)
	movl	%eax, -8(%rbp)
	jmp	LBB74_2
Ltmp664:
LBB74_4:
	movq	-192(%rbp), %rdi
	.loc	26 45 16 is_stmt 1
	movq	$0, -32(%rbp)
	movq	$0, -24(%rbp)
	.loc	26 41 5
	movb	-169(%rbp), %al
	andb	$1, %al
	movb	%al, 104(%rdi)
	addq	$16, %rdi
	leaq	-168(%rbp), %rsi
	movl	$48, %edx
	callq	_memcpy
	movq	-192(%rbp), %rdi
	addq	$64, %rdi
	leaq	-72(%rbp), %rsi
	movl	$40, %edx
	callq	_memcpy
	movq	-192(%rbp), %rcx
	movq	-184(%rbp), %rax
	movq	-32(%rbp), %rsi
	movq	-24(%rbp), %rdx
	movq	%rsi, (%rcx)
	movq	%rdx, 8(%rcx)
	.loc	26 47 2
	addq	$192, %rsp
	popq	%rbp
	retq
Ltmp665:
Lfunc_end74:
	.cfi_endproc
	.section	__TEXT,__gcc_except_tab
	.p2align	2
GCC_except_table74:
Lexception17:
	.byte	255
	.byte	255
	.byte	1
	.uleb128 Lcst_end17-Lcst_begin17
Lcst_begin17:
	.uleb128 Lfunc_begin74-Lfunc_begin74
	.uleb128 Ltmp655-Lfunc_begin74
	.byte	0
	.byte	0
	.uleb128 Ltmp655-Lfunc_begin74
	.uleb128 Ltmp656-Ltmp655
	.uleb128 Ltmp657-Lfunc_begin74
	.byte	0
	.uleb128 Ltmp656-Lfunc_begin74
	.uleb128 Lfunc_end74-Ltmp656
	.byte	0
	.byte	0
Lcst_end17:
	.p2align	2

	.section	__TEXT,__text,regular,pure_instructions
	.globl	__ZN21unicode_normalization9decompose23Decompositions$LT$I$GT$12reset_buffer17h6494dbda15b2b466E
	.p2align	4, 0x90
__ZN21unicode_normalization9decompose23Decompositions$LT$I$GT$12reset_buffer17h6494dbda15b2b466E:
Lfunc_begin75:
	.loc	26 81 0
	.cfi_startproc
	.cfi_personality 155, _rust_eh_personality
	.cfi_lsda 16, Lexception18
	pushq	%rbp
	.cfi_def_cfa_offset 16
	.cfi_offset %rbp, -16
	movq	%rsp, %rbp
	.cfi_def_cfa_register %rbp
	subq	$528, %rsp
	movq	%rdi, -384(%rbp)
	movq	%rdi, -304(%rbp)
Ltmp680:
	.loc	26 84 23 prologue_end
	movq	%rdi, %rax
	addq	$64, %rax
	movq	%rax, -376(%rbp)
	movq	%rax, -272(%rbp)
Ltmp681:
	.loc	28 16 19
	movl	64(%rdi), %eax
	.loc	28 16 13 is_stmt 0
	cmpq	$0, %rax
	jne	LBB75_2
	.loc	28 0 13
	movq	-376(%rbp), %rax
	.loc	28 17 35 is_stmt 1
	movq	%rax, %rcx
	addq	$4, %rcx
	movq	%rcx, -256(%rbp)
	movq	%rcx, -216(%rbp)
Ltmp682:
	.loc	29 579 5
	movzwl	4(%rax), %eax
Ltmp683:
	.loc	28 17 41
	movq	%rax, -280(%rbp)
	jmp	LBB75_3
Ltmp684:
LBB75_2:
	.loc	28 0 41 is_stmt 0
	movq	-376(%rbp), %rdi
	.loc	28 18 33 is_stmt 1
	addq	$8, %rdi
	movq	%rdi, -264(%rbp)
Ltmp685:
	.loc	28 18 39 is_stmt 0
	callq	__ZN5alloc3vec16Vec$LT$T$C$A$GT$3len17h8a07093eb989e862E
	movq	%rax, -280(%rbp)
Ltmp686:
LBB75_3:
	.loc	28 0 39
	movq	-384(%rbp), %rcx
	.loc	28 20 10 is_stmt 1
	movq	-280(%rbp), %rax
Ltmp687:
	.loc	26 84 43
	movq	8(%rcx), %rcx
	.loc	26 84 23 is_stmt 0
	movq	%rax, %rdx
	subq	%rcx, %rdx
	movq	%rdx, -392(%rbp)
	cmpq	%rcx, %rax
	setb	%al
	testb	$1, %al
	jne	LBB75_5
	.loc	26 0 23
	movq	-392(%rbp), %rax
	.loc	26 84 23
	movq	%rax, -296(%rbp)
Ltmp688:
	.loc	26 85 18 is_stmt 1
	movq	$0, -368(%rbp)
	movq	%rax, -360(%rbp)
	movq	-368(%rbp), %rdi
	movq	-360(%rbp), %rsi
	callq	__ZN63_$LT$I$u20$as$u20$core..iter..traits..collect..IntoIterator$GT$9into_iter17h0f2fd371652b3099E
	movq	%rax, -352(%rbp)
	movq	%rdx, -344(%rbp)
Ltmp689:
	.loc	26 85 9 is_stmt 0
	jmp	LBB75_6
Ltmp690:
LBB75_5:
	.loc	26 84 23 is_stmt 1
	leaq	_str.1(%rip), %rdi
	leaq	l___unnamed_15(%rip), %rdx
	movl	$33, %esi
	callq	__ZN4core9panicking5panic17hc1bc45270cf64b03E
LBB75_6:
	.loc	26 0 23 is_stmt 0
	leaq	-352(%rbp), %rdi
Ltmp691:
	.loc	26 85 18 is_stmt 1
	callq	__ZN4core4iter5range101_$LT$impl$u20$core..iter..traits..iterator..Iterator$u20$for$u20$core..ops..range..Range$LT$A$GT$$GT$4next17h71079d9f8afd2a64E
	movq	%rdx, -328(%rbp)
	movq	%rax, -336(%rbp)
	cmpq	$0, -336(%rbp)
	jne	LBB75_11
Ltmp692:
	.loc	26 0 18 is_stmt 0
	movq	-384(%rbp), %rax
	movq	-392(%rbp), %rcx
	.loc	26 88 9 is_stmt 1
	movq	%rax, %rdx
	addq	$64, %rdx
	movq	%rdx, -400(%rbp)
	movq	%rdx, -248(%rbp)
	movq	%rcx, -240(%rbp)
Ltmp693:
	.loc	28 16 19
	movl	64(%rax), %eax
	.loc	28 16 13 is_stmt 0
	cmpq	$0, %rax
	jne	LBB75_9
	.loc	28 0 13
	movq	-392(%rbp), %rsi
	movq	-400(%rbp), %rdi
	.loc	28 17 35 is_stmt 1
	addq	$4, %rdi
	movq	%rdi, -224(%rbp)
Ltmp694:
	.loc	28 17 41 is_stmt 0
	callq	__ZN7tinyvec8arrayvec17ArrayVec$LT$A$GT$8truncate17h64f17b1d8d3cc79cE
	jmp	LBB75_10
Ltmp695:
LBB75_9:
	.loc	28 0 41
	movq	-392(%rbp), %rsi
	movq	-400(%rbp), %rdi
	.loc	28 18 33 is_stmt 1
	addq	$8, %rdi
	movq	%rdi, -232(%rbp)
Ltmp696:
	.loc	28 18 39 is_stmt 0
	callq	__ZN5alloc3vec16Vec$LT$T$C$A$GT$8truncate17h202bb2e3cca3f736E
Ltmp697:
LBB75_10:
	.loc	28 0 39
	movq	-384(%rbp), %rax
	.loc	26 89 22 is_stmt 1
	movq	$0, -320(%rbp)
	movq	$0, -312(%rbp)
	.loc	26 89 9 is_stmt 0
	movq	-320(%rbp), %rdx
	movq	-312(%rbp), %rcx
	movq	%rdx, (%rax)
	movq	%rcx, 8(%rax)
Ltmp698:
	.loc	26 90 6 is_stmt 1
	addq	$528, %rsp
	popq	%rbp
	retq
LBB75_11:
	.loc	26 0 6 is_stmt 0
	movq	-384(%rbp), %rcx
Ltmp699:
	.loc	26 85 13 is_stmt 1
	movq	-328(%rbp), %rax
	movq	%rax, -424(%rbp)
	movq	%rax, -288(%rbp)
Ltmp700:
	.loc	26 86 30
	movq	%rcx, %rdx
	addq	$64, %rdx
	movq	%rdx, -416(%rbp)
	.loc	26 86 42 is_stmt 0
	addq	8(%rcx), %rax
	movq	%rax, -408(%rbp)
	setb	%al
	testb	$1, %al
	jne	LBB75_31
	.loc	26 0 42
	movq	-416(%rbp), %rax
	movq	-408(%rbp), %rcx
	movq	%rax, -200(%rbp)
	movq	%rcx, -192(%rbp)
Ltmp701:
	.loc	27 166 5 is_stmt 1
	movb	$0, -201(%rbp)
	movb	$1, -201(%rbp)
	movq	%rax, -152(%rbp)
Ltmp702:
	.loc	28 16 19
	movl	(%rax), %eax
	.loc	28 16 13 is_stmt 0
	cmpq	$0, %rax
	jne	LBB75_15
	.loc	28 0 13
	movq	-416(%rbp), %rax
	.loc	28 17 35 is_stmt 1
	movq	%rax, %rcx
	addq	$4, %rcx
	movq	%rcx, -136(%rbp)
	movq	%rcx, -120(%rbp)
Ltmp703:
	.loc	29 157 6
	movq	%rax, %rdi
	addq	$8, %rdi
	movq	%rdi, -112(%rbp)
	.loc	29 157 29 is_stmt 0
	movzwl	4(%rax), %eax
	.loc	29 157 27
	movq	%rax, -128(%rbp)
	.loc	29 157 6
	movq	-128(%rbp), %rdx
Ltmp668:
	leaq	l___unnamed_7(%rip), %rcx
	movl	$4, %esi
	callq	__ZN4core5slice5index74_$LT$impl$u20$core..ops..index..Index$LT$I$GT$$u20$for$u20$$u5b$T$u5d$$GT$5index17h5f77c09b3436a71fE
Ltmp669:
	movq	%rdx, -440(%rbp)
	movq	%rax, -432(%rbp)
	jmp	LBB75_14
Ltmp704:
LBB75_14:
	.loc	29 0 6
	movq	-440(%rbp), %rax
	movq	-432(%rbp), %rcx
	.loc	28 17 41 is_stmt 1
	movq	%rcx, -168(%rbp)
	movq	%rax, -160(%rbp)
Ltmp705:
	.loc	28 17 63 is_stmt 0
	jmp	LBB75_17
LBB75_15:
	.loc	28 0 63
	movq	-416(%rbp), %rdi
	.loc	28 18 33 is_stmt 1
	addq	$8, %rdi
	movq	%rdi, -144(%rbp)
Ltmp666:
Ltmp706:
	.loc	28 18 39 is_stmt 0
	callq	__ZN72_$LT$alloc..vec..Vec$LT$T$C$A$GT$$u20$as$u20$core..ops..deref..Deref$GT$5deref17h00544b4fd44f75daE
Ltmp667:
	movq	%rdx, -456(%rbp)
	movq	%rax, -448(%rbp)
	jmp	LBB75_16
LBB75_16:
	.loc	28 0 39
	movq	-456(%rbp), %rax
	movq	-448(%rbp), %rcx
	.loc	28 18 39
	movq	%rcx, -168(%rbp)
	movq	%rax, -160(%rbp)
Ltmp707:
LBB75_17:
	.loc	28 0 39
	movq	-408(%rbp), %rdx
	.loc	28 20 10 is_stmt 1
	movq	-168(%rbp), %rdi
	movq	-160(%rbp), %rsi
Ltmp708:
	.loc	27 166 19
	movb	$0, -201(%rbp)
Ltmp670:
	.loc	27 166 6 is_stmt 0
	leaq	l___unnamed_16(%rip), %rcx
	callq	__ZN4core5slice5index74_$LT$impl$u20$core..ops..index..Index$LT$I$GT$$u20$for$u20$$u5b$T$u5d$$GT$5index17h94478153a7cc6072E
Ltmp671:
	movq	%rax, -464(%rbp)
	jmp	LBB75_21
LBB75_18:
Ltmp672:
	.loc	27 0 6
	movq	%rax, %rcx
	movl	%edx, %eax
	movq	%rcx, -184(%rbp)
	movl	%eax, -176(%rbp)
	.loc	27 167 3 is_stmt 1
	testb	$1, -201(%rbp)
	jne	LBB75_20
LBB75_19:
	.loc	27 165 3
	movq	-184(%rbp), %rax
	movq	%rax, -472(%rbp)
	jmp	LBB75_32
LBB75_20:
	.loc	27 167 3
	jmp	LBB75_19
Ltmp709:
LBB75_21:
	.loc	27 0 3 is_stmt 0
	movq	-384(%rbp), %rax
	movq	-424(%rbp), %rdx
	movq	-464(%rbp), %rcx
	.loc	26 86 30 is_stmt 1
	movb	(%rcx), %sil
	movb	%sil, -485(%rbp)
	movl	4(%rcx), %ecx
	movl	%ecx, -484(%rbp)
	.loc	26 86 13 is_stmt 0
	movq	%rax, %rcx
	addq	$64, %rcx
	movq	%rcx, -480(%rbp)
	movq	%rcx, -96(%rbp)
	movq	%rdx, -88(%rbp)
Ltmp710:
	.loc	27 174 5 is_stmt 1
	movb	$0, -97(%rbp)
	movb	$1, -97(%rbp)
	movq	%rcx, -48(%rbp)
Ltmp711:
	.loc	28 16 19
	movl	64(%rax), %eax
	.loc	28 16 13 is_stmt 0
	cmpq	$0, %rax
	jne	LBB75_24
	.loc	28 0 13
	movq	-480(%rbp), %rax
	.loc	28 17 35 is_stmt 1
	movq	%rax, %rcx
	addq	$4, %rcx
	movq	%rcx, -32(%rbp)
	movq	%rcx, -16(%rbp)
Ltmp712:
	.loc	29 165 10
	movq	%rax, %rdi
	addq	$8, %rdi
	movq	%rdi, -8(%rbp)
	.loc	29 165 37 is_stmt 0
	movzwl	4(%rax), %eax
	.loc	29 165 35
	movq	%rax, -24(%rbp)
	.loc	29 165 10
	movq	-24(%rbp), %rdx
Ltmp675:
	leaq	l___unnamed_17(%rip), %rcx
	movl	$4, %esi
	callq	__ZN4core5slice5index77_$LT$impl$u20$core..ops..index..IndexMut$LT$I$GT$$u20$for$u20$$u5b$T$u5d$$GT$9index_mut17he295e89065c221f1E
Ltmp676:
	movq	%rdx, -504(%rbp)
	movq	%rax, -496(%rbp)
	jmp	LBB75_23
Ltmp713:
LBB75_23:
	.loc	29 0 10
	movq	-504(%rbp), %rax
	movq	-496(%rbp), %rcx
	.loc	28 17 41 is_stmt 1
	movq	%rcx, -64(%rbp)
	movq	%rax, -56(%rbp)
Ltmp714:
	.loc	28 17 63 is_stmt 0
	jmp	LBB75_26
LBB75_24:
	.loc	28 0 63
	movq	-480(%rbp), %rdi
	.loc	28 18 33 is_stmt 1
	addq	$8, %rdi
	movq	%rdi, -40(%rbp)
Ltmp673:
Ltmp715:
	.loc	28 18 39 is_stmt 0
	callq	__ZN75_$LT$alloc..vec..Vec$LT$T$C$A$GT$$u20$as$u20$core..ops..deref..DerefMut$GT$9deref_mut17h22d9ca53e4d796b6E
Ltmp674:
	movq	%rdx, -520(%rbp)
	movq	%rax, -512(%rbp)
	jmp	LBB75_25
LBB75_25:
	.loc	28 0 39
	movq	-520(%rbp), %rax
	movq	-512(%rbp), %rcx
	.loc	28 18 39
	movq	%rcx, -64(%rbp)
	movq	%rax, -56(%rbp)
Ltmp716:
LBB75_26:
	.loc	28 0 39
	movq	-424(%rbp), %rdx
	.loc	28 16 13 is_stmt 1
	movq	-64(%rbp), %rdi
	movq	-56(%rbp), %rsi
Ltmp717:
	.loc	27 174 27
	movb	$0, -97(%rbp)
Ltmp677:
	.loc	27 174 10 is_stmt 0
	leaq	l___unnamed_18(%rip), %rcx
	callq	__ZN4core5slice5index77_$LT$impl$u20$core..ops..index..IndexMut$LT$I$GT$$u20$for$u20$$u5b$T$u5d$$GT$9index_mut17h6cc1f153a6b274dbE
Ltmp678:
	movq	%rax, -528(%rbp)
	jmp	LBB75_30
LBB75_27:
Ltmp679:
	.loc	27 0 10
	movq	%rax, %rcx
	movl	%edx, %eax
	movq	%rcx, -80(%rbp)
	movl	%eax, -72(%rbp)
	.loc	27 175 3 is_stmt 1
	testb	$1, -97(%rbp)
	jne	LBB75_29
LBB75_28:
	.loc	27 173 3
	movq	-80(%rbp), %rax
	movq	%rax, -472(%rbp)
	jmp	LBB75_32
LBB75_29:
	.loc	27 175 3
	jmp	LBB75_28
Ltmp718:
LBB75_30:
	.loc	27 0 3 is_stmt 0
	movq	-528(%rbp), %rax
	movl	-484(%rbp), %ecx
	movb	-485(%rbp), %dl
	.loc	26 86 13 is_stmt 1
	movb	%dl, (%rax)
	movl	%ecx, 4(%rax)
Ltmp719:
	.loc	26 85 9
	jmp	LBB75_6
LBB75_31:
Ltmp720:
	.loc	26 86 42
	leaq	_str.0(%rip), %rdi
	leaq	l___unnamed_19(%rip), %rdx
	movl	$28, %esi
	callq	__ZN4core9panicking5panic17hc1bc45270cf64b03E
Ltmp721:
LBB75_32:
	.loc	26 0 42 is_stmt 0
	movq	-472(%rbp), %rdi
	callq	__Unwind_Resume
Lfunc_end75:
	.cfi_endproc
	.section	__TEXT,__gcc_except_tab
	.p2align	2
GCC_except_table75:
Lexception18:
	.byte	255
	.byte	255
	.byte	1
	.uleb128 Lcst_end18-Lcst_begin18
Lcst_begin18:
	.uleb128 Lfunc_begin75-Lfunc_begin75
	.uleb128 Ltmp668-Lfunc_begin75
	.byte	0
	.byte	0
	.uleb128 Ltmp668-Lfunc_begin75
	.uleb128 Ltmp671-Ltmp668
	.uleb128 Ltmp672-Lfunc_begin75
	.byte	0
	.uleb128 Ltmp675-Lfunc_begin75
	.uleb128 Ltmp678-Ltmp675
	.uleb128 Ltmp679-Lfunc_begin75
	.byte	0
	.uleb128 Ltmp678-Lfunc_begin75
	.uleb128 Lfunc_end75-Ltmp678
	.byte	0
	.byte	0
Lcst_end18:
	.p2align	2

	.section	__TEXT,__text,regular,pure_instructions
	.globl	__ZN21unicode_normalization9decompose23Decompositions$LT$I$GT$12reset_buffer17h76fd843dffe9f39aE
	.p2align	4, 0x90
__ZN21unicode_normalization9decompose23Decompositions$LT$I$GT$12reset_buffer17h76fd843dffe9f39aE:
Lfunc_begin76:
	.loc	26 81 0 is_stmt 1
	.cfi_startproc
	.cfi_personality 155, _rust_eh_personality
	.cfi_lsda 16, Lexception19
	pushq	%rbp
	.cfi_def_cfa_offset 16
	.cfi_offset %rbp, -16
	movq	%rsp, %rbp
	.cfi_def_cfa_register %rbp
	subq	$528, %rsp
	movq	%rdi, -384(%rbp)
	movq	%rdi, -304(%rbp)
Ltmp736:
	.loc	26 84 23 prologue_end
	movq	%rdi, %rax
	addq	$32, %rax
	movq	%rax, -376(%rbp)
	movq	%rax, -272(%rbp)
Ltmp737:
	.loc	28 16 19
	movl	32(%rdi), %eax
	.loc	28 16 13 is_stmt 0
	cmpq	$0, %rax
	jne	LBB76_2
	.loc	28 0 13
	movq	-376(%rbp), %rax
	.loc	28 17 35 is_stmt 1
	movq	%rax, %rcx
	addq	$4, %rcx
	movq	%rcx, -256(%rbp)
	movq	%rcx, -216(%rbp)
Ltmp738:
	.loc	29 579 5
	movzwl	4(%rax), %eax
Ltmp739:
	.loc	28 17 41
	movq	%rax, -280(%rbp)
	jmp	LBB76_3
Ltmp740:
LBB76_2:
	.loc	28 0 41 is_stmt 0
	movq	-376(%rbp), %rdi
	.loc	28 18 33 is_stmt 1
	addq	$8, %rdi
	movq	%rdi, -264(%rbp)
Ltmp741:
	.loc	28 18 39 is_stmt 0
	callq	__ZN5alloc3vec16Vec$LT$T$C$A$GT$3len17h8a07093eb989e862E
	movq	%rax, -280(%rbp)
Ltmp742:
LBB76_3:
	.loc	28 0 39
	movq	-384(%rbp), %rcx
	.loc	28 20 10 is_stmt 1
	movq	-280(%rbp), %rax
Ltmp743:
	.loc	26 84 43
	movq	24(%rcx), %rcx
	.loc	26 84 23 is_stmt 0
	movq	%rax, %rdx
	subq	%rcx, %rdx
	movq	%rdx, -392(%rbp)
	cmpq	%rcx, %rax
	setb	%al
	testb	$1, %al
	jne	LBB76_5
	.loc	26 0 23
	movq	-392(%rbp), %rax
	.loc	26 84 23
	movq	%rax, -296(%rbp)
Ltmp744:
	.loc	26 85 18 is_stmt 1
	movq	$0, -368(%rbp)
	movq	%rax, -360(%rbp)
	movq	-368(%rbp), %rdi
	movq	-360(%rbp), %rsi
	callq	__ZN63_$LT$I$u20$as$u20$core..iter..traits..collect..IntoIterator$GT$9into_iter17h0f2fd371652b3099E
	movq	%rax, -352(%rbp)
	movq	%rdx, -344(%rbp)
Ltmp745:
	.loc	26 85 9 is_stmt 0
	jmp	LBB76_6
Ltmp746:
LBB76_5:
	.loc	26 84 23 is_stmt 1
	leaq	_str.1(%rip), %rdi
	leaq	l___unnamed_15(%rip), %rdx
	movl	$33, %esi
	callq	__ZN4core9panicking5panic17hc1bc45270cf64b03E
LBB76_6:
	.loc	26 0 23 is_stmt 0
	leaq	-352(%rbp), %rdi
Ltmp747:
	.loc	26 85 18 is_stmt 1
	callq	__ZN4core4iter5range101_$LT$impl$u20$core..iter..traits..iterator..Iterator$u20$for$u20$core..ops..range..Range$LT$A$GT$$GT$4next17h71079d9f8afd2a64E
	movq	%rdx, -328(%rbp)
	movq	%rax, -336(%rbp)
	cmpq	$0, -336(%rbp)
	jne	LBB76_11
Ltmp748:
	.loc	26 0 18 is_stmt 0
	movq	-384(%rbp), %rax
	movq	-392(%rbp), %rcx
	.loc	26 88 9 is_stmt 1
	movq	%rax, %rdx
	addq	$32, %rdx
	movq	%rdx, -400(%rbp)
	movq	%rdx, -248(%rbp)
	movq	%rcx, -240(%rbp)
Ltmp749:
	.loc	28 16 19
	movl	32(%rax), %eax
	.loc	28 16 13 is_stmt 0
	cmpq	$0, %rax
	jne	LBB76_9
	.loc	28 0 13
	movq	-392(%rbp), %rsi
	movq	-400(%rbp), %rdi
	.loc	28 17 35 is_stmt 1
	addq	$4, %rdi
	movq	%rdi, -224(%rbp)
Ltmp750:
	.loc	28 17 41 is_stmt 0
	callq	__ZN7tinyvec8arrayvec17ArrayVec$LT$A$GT$8truncate17h64f17b1d8d3cc79cE
	jmp	LBB76_10
Ltmp751:
LBB76_9:
	.loc	28 0 41
	movq	-392(%rbp), %rsi
	movq	-400(%rbp), %rdi
	.loc	28 18 33 is_stmt 1
	addq	$8, %rdi
	movq	%rdi, -232(%rbp)
Ltmp752:
	.loc	28 18 39 is_stmt 0
	callq	__ZN5alloc3vec16Vec$LT$T$C$A$GT$8truncate17h202bb2e3cca3f736E
Ltmp753:
LBB76_10:
	.loc	28 0 39
	movq	-384(%rbp), %rax
	.loc	26 89 22 is_stmt 1
	movq	$0, -320(%rbp)
	movq	$0, -312(%rbp)
	.loc	26 89 9 is_stmt 0
	movq	-320(%rbp), %rdx
	movq	-312(%rbp), %rcx
	movq	%rdx, 16(%rax)
	movq	%rcx, 24(%rax)
Ltmp754:
	.loc	26 90 6 is_stmt 1
	addq	$528, %rsp
	popq	%rbp
	retq
LBB76_11:
	.loc	26 0 6 is_stmt 0
	movq	-384(%rbp), %rcx
Ltmp755:
	.loc	26 85 13 is_stmt 1
	movq	-328(%rbp), %rax
	movq	%rax, -424(%rbp)
	movq	%rax, -288(%rbp)
Ltmp756:
	.loc	26 86 30
	movq	%rcx, %rdx
	addq	$32, %rdx
	movq	%rdx, -416(%rbp)
	.loc	26 86 42 is_stmt 0
	addq	24(%rcx), %rax
	movq	%rax, -408(%rbp)
	setb	%al
	testb	$1, %al
	jne	LBB76_31
	.loc	26 0 42
	movq	-416(%rbp), %rax
	movq	-408(%rbp), %rcx
	movq	%rax, -200(%rbp)
	movq	%rcx, -192(%rbp)
Ltmp757:
	.loc	27 166 5 is_stmt 1
	movb	$0, -201(%rbp)
	movb	$1, -201(%rbp)
	movq	%rax, -152(%rbp)
Ltmp758:
	.loc	28 16 19
	movl	(%rax), %eax
	.loc	28 16 13 is_stmt 0
	cmpq	$0, %rax
	jne	LBB76_15
	.loc	28 0 13
	movq	-416(%rbp), %rax
	.loc	28 17 35 is_stmt 1
	movq	%rax, %rcx
	addq	$4, %rcx
	movq	%rcx, -136(%rbp)
	movq	%rcx, -120(%rbp)
Ltmp759:
	.loc	29 157 6
	movq	%rax, %rdi
	addq	$8, %rdi
	movq	%rdi, -112(%rbp)
	.loc	29 157 29 is_stmt 0
	movzwl	4(%rax), %eax
	.loc	29 157 27
	movq	%rax, -128(%rbp)
	.loc	29 157 6
	movq	-128(%rbp), %rdx
Ltmp724:
	leaq	l___unnamed_7(%rip), %rcx
	movl	$4, %esi
	callq	__ZN4core5slice5index74_$LT$impl$u20$core..ops..index..Index$LT$I$GT$$u20$for$u20$$u5b$T$u5d$$GT$5index17h5f77c09b3436a71fE
Ltmp725:
	movq	%rdx, -440(%rbp)
	movq	%rax, -432(%rbp)
	jmp	LBB76_14
Ltmp760:
LBB76_14:
	.loc	29 0 6
	movq	-440(%rbp), %rax
	movq	-432(%rbp), %rcx
	.loc	28 17 41 is_stmt 1
	movq	%rcx, -168(%rbp)
	movq	%rax, -160(%rbp)
Ltmp761:
	.loc	28 17 63 is_stmt 0
	jmp	LBB76_17
LBB76_15:
	.loc	28 0 63
	movq	-416(%rbp), %rdi
	.loc	28 18 33 is_stmt 1
	addq	$8, %rdi
	movq	%rdi, -144(%rbp)
Ltmp722:
Ltmp762:
	.loc	28 18 39 is_stmt 0
	callq	__ZN72_$LT$alloc..vec..Vec$LT$T$C$A$GT$$u20$as$u20$core..ops..deref..Deref$GT$5deref17h00544b4fd44f75daE
Ltmp723:
	movq	%rdx, -456(%rbp)
	movq	%rax, -448(%rbp)
	jmp	LBB76_16
LBB76_16:
	.loc	28 0 39
	movq	-456(%rbp), %rax
	movq	-448(%rbp), %rcx
	.loc	28 18 39
	movq	%rcx, -168(%rbp)
	movq	%rax, -160(%rbp)
Ltmp763:
LBB76_17:
	.loc	28 0 39
	movq	-408(%rbp), %rdx
	.loc	28 20 10 is_stmt 1
	movq	-168(%rbp), %rdi
	movq	-160(%rbp), %rsi
Ltmp764:
	.loc	27 166 19
	movb	$0, -201(%rbp)
Ltmp726:
	.loc	27 166 6 is_stmt 0
	leaq	l___unnamed_16(%rip), %rcx
	callq	__ZN4core5slice5index74_$LT$impl$u20$core..ops..index..Index$LT$I$GT$$u20$for$u20$$u5b$T$u5d$$GT$5index17h94478153a7cc6072E
Ltmp727:
	movq	%rax, -464(%rbp)
	jmp	LBB76_21
LBB76_18:
Ltmp728:
	.loc	27 0 6
	movq	%rax, %rcx
	movl	%edx, %eax
	movq	%rcx, -184(%rbp)
	movl	%eax, -176(%rbp)
	.loc	27 167 3 is_stmt 1
	testb	$1, -201(%rbp)
	jne	LBB76_20
LBB76_19:
	.loc	27 165 3
	movq	-184(%rbp), %rax
	movq	%rax, -472(%rbp)
	jmp	LBB76_32
LBB76_20:
	.loc	27 167 3
	jmp	LBB76_19
Ltmp765:
LBB76_21:
	.loc	27 0 3 is_stmt 0
	movq	-384(%rbp), %rax
	movq	-424(%rbp), %rdx
	movq	-464(%rbp), %rcx
	.loc	26 86 30 is_stmt 1
	movb	(%rcx), %sil
	movb	%sil, -485(%rbp)
	movl	4(%rcx), %ecx
	movl	%ecx, -484(%rbp)
	.loc	26 86 13 is_stmt 0
	movq	%rax, %rcx
	addq	$32, %rcx
	movq	%rcx, -480(%rbp)
	movq	%rcx, -96(%rbp)
	movq	%rdx, -88(%rbp)
Ltmp766:
	.loc	27 174 5 is_stmt 1
	movb	$0, -97(%rbp)
	movb	$1, -97(%rbp)
	movq	%rcx, -48(%rbp)
Ltmp767:
	.loc	28 16 19
	movl	32(%rax), %eax
	.loc	28 16 13 is_stmt 0
	cmpq	$0, %rax
	jne	LBB76_24
	.loc	28 0 13
	movq	-480(%rbp), %rax
	.loc	28 17 35 is_stmt 1
	movq	%rax, %rcx
	addq	$4, %rcx
	movq	%rcx, -32(%rbp)
	movq	%rcx, -16(%rbp)
Ltmp768:
	.loc	29 165 10
	movq	%rax, %rdi
	addq	$8, %rdi
	movq	%rdi, -8(%rbp)
	.loc	29 165 37 is_stmt 0
	movzwl	4(%rax), %eax
	.loc	29 165 35
	movq	%rax, -24(%rbp)
	.loc	29 165 10
	movq	-24(%rbp), %rdx
Ltmp731:
	leaq	l___unnamed_17(%rip), %rcx
	movl	$4, %esi
	callq	__ZN4core5slice5index77_$LT$impl$u20$core..ops..index..IndexMut$LT$I$GT$$u20$for$u20$$u5b$T$u5d$$GT$9index_mut17he295e89065c221f1E
Ltmp732:
	movq	%rdx, -504(%rbp)
	movq	%rax, -496(%rbp)
	jmp	LBB76_23
Ltmp769:
LBB76_23:
	.loc	29 0 10
	movq	-504(%rbp), %rax
	movq	-496(%rbp), %rcx
	.loc	28 17 41 is_stmt 1
	movq	%rcx, -64(%rbp)
	movq	%rax, -56(%rbp)
Ltmp770:
	.loc	28 17 63 is_stmt 0
	jmp	LBB76_26
LBB76_24:
	.loc	28 0 63
	movq	-480(%rbp), %rdi
	.loc	28 18 33 is_stmt 1
	addq	$8, %rdi
	movq	%rdi, -40(%rbp)
Ltmp729:
Ltmp771:
	.loc	28 18 39 is_stmt 0
	callq	__ZN75_$LT$alloc..vec..Vec$LT$T$C$A$GT$$u20$as$u20$core..ops..deref..DerefMut$GT$9deref_mut17h22d9ca53e4d796b6E
Ltmp730:
	movq	%rdx, -520(%rbp)
	movq	%rax, -512(%rbp)
	jmp	LBB76_25
LBB76_25:
	.loc	28 0 39
	movq	-520(%rbp), %rax
	movq	-512(%rbp), %rcx
	.loc	28 18 39
	movq	%rcx, -64(%rbp)
	movq	%rax, -56(%rbp)
Ltmp772:
LBB76_26:
	.loc	28 0 39
	movq	-424(%rbp), %rdx
	.loc	28 16 13 is_stmt 1
	movq	-64(%rbp), %rdi
	movq	-56(%rbp), %rsi
Ltmp773:
	.loc	27 174 27
	movb	$0, -97(%rbp)
Ltmp733:
	.loc	27 174 10 is_stmt 0
	leaq	l___unnamed_18(%rip), %rcx
	callq	__ZN4core5slice5index77_$LT$impl$u20$core..ops..index..IndexMut$LT$I$GT$$u20$for$u20$$u5b$T$u5d$$GT$9index_mut17h6cc1f153a6b274dbE
Ltmp734:
	movq	%rax, -528(%rbp)
	jmp	LBB76_30
LBB76_27:
Ltmp735:
	.loc	27 0 10
	movq	%rax, %rcx
	movl	%edx, %eax
	movq	%rcx, -80(%rbp)
	movl	%eax, -72(%rbp)
	.loc	27 175 3 is_stmt 1
	testb	$1, -97(%rbp)
	jne	LBB76_29
LBB76_28:
	.loc	27 173 3
	movq	-80(%rbp), %rax
	movq	%rax, -472(%rbp)
	jmp	LBB76_32
LBB76_29:
	.loc	27 175 3
	jmp	LBB76_28
Ltmp774:
LBB76_30:
	.loc	27 0 3 is_stmt 0
	movq	-528(%rbp), %rax
	movl	-484(%rbp), %ecx
	movb	-485(%rbp), %dl
	.loc	26 86 13 is_stmt 1
	movb	%dl, (%rax)
	movl	%ecx, 4(%rax)
Ltmp775:
	.loc	26 85 9
	jmp	LBB76_6
LBB76_31:
Ltmp776:
	.loc	26 86 42
	leaq	_str.0(%rip), %rdi
	leaq	l___unnamed_19(%rip), %rdx
	movl	$28, %esi
	callq	__ZN4core9panicking5panic17hc1bc45270cf64b03E
Ltmp777:
LBB76_32:
	.loc	26 0 42 is_stmt 0
	movq	-472(%rbp), %rdi
	callq	__Unwind_Resume
Lfunc_end76:
	.cfi_endproc
	.section	__TEXT,__gcc_except_tab
	.p2align	2
GCC_except_table76:
Lexception19:
	.byte	255
	.byte	255
	.byte	1
	.uleb128 Lcst_end19-Lcst_begin19
Lcst_begin19:
	.uleb128 Lfunc_begin76-Lfunc_begin76
	.uleb128 Ltmp724-Lfunc_begin76
	.byte	0
	.byte	0
	.uleb128 Ltmp724-Lfunc_begin76
	.uleb128 Ltmp727-Ltmp724
	.uleb128 Ltmp728-Lfunc_begin76
	.byte	0
	.uleb128 Ltmp731-Lfunc_begin76
	.uleb128 Ltmp734-Ltmp731
	.uleb128 Ltmp735-Lfunc_begin76
	.byte	0
	.uleb128 Ltmp734-Lfunc_begin76
	.uleb128 Lfunc_end76-Ltmp734
	.byte	0
	.byte	0
Lcst_end19:
	.p2align	2

	.section	__TEXT,__text,regular,pure_instructions
	.globl	__ZN21unicode_normalization9decompose23Decompositions$LT$I$GT$12sort_pending17h0e85b5a84e0c54d1E
	.p2align	4, 0x90
__ZN21unicode_normalization9decompose23Decompositions$LT$I$GT$12sort_pending17h0e85b5a84e0c54d1E:
Lfunc_begin77:
	.loc	26 74 0 is_stmt 1
	.cfi_startproc
	.cfi_personality 155, _rust_eh_personality
	.cfi_lsda 16, Lexception20
	pushq	%rbp
	.cfi_def_cfa_offset 16
	.cfi_offset %rbp, -16
	movq	%rsp, %rbp
	.cfi_def_cfa_register %rbp
	subq	$192, %rsp
	movq	%rdi, -112(%rbp)
Ltmp785:
	.loc	26 77 9 prologue_end
	movq	%rdi, %rax
	addq	$64, %rax
	movq	%rax, -136(%rbp)
	.loc	26 77 21 is_stmt 0
	movq	8(%rdi), %rcx
	movq	%rcx, -120(%rbp)
	.loc	26 77 9
	movq	-120(%rbp), %rcx
	movq	%rcx, -128(%rbp)
	movq	%rax, -96(%rbp)
	movq	%rcx, -88(%rbp)
Ltmp786:
	.loc	27 174 5 is_stmt 1
	movb	$0, -97(%rbp)
	movb	$1, -97(%rbp)
	movq	%rax, -48(%rbp)
Ltmp787:
	.loc	28 16 19
	movl	64(%rdi), %eax
	.loc	28 16 13 is_stmt 0
	cmpq	$0, %rax
	jne	LBB77_3
	.loc	28 0 13
	movq	-136(%rbp), %rax
	.loc	28 17 35 is_stmt 1
	movq	%rax, %rcx
	addq	$4, %rcx
	movq	%rcx, -32(%rbp)
	movq	%rcx, -16(%rbp)
Ltmp788:
	.loc	29 165 10
	movq	%rax, %rdi
	addq	$8, %rdi
	movq	%rdi, -8(%rbp)
	.loc	29 165 37 is_stmt 0
	movzwl	4(%rax), %eax
	.loc	29 165 35
	movq	%rax, -24(%rbp)
	.loc	29 165 10
	movq	-24(%rbp), %rdx
Ltmp780:
	leaq	l___unnamed_17(%rip), %rcx
	movl	$4, %esi
	callq	__ZN4core5slice5index77_$LT$impl$u20$core..ops..index..IndexMut$LT$I$GT$$u20$for$u20$$u5b$T$u5d$$GT$9index_mut17he295e89065c221f1E
Ltmp781:
	movq	%rdx, -152(%rbp)
	movq	%rax, -144(%rbp)
	jmp	LBB77_2
Ltmp789:
LBB77_2:
	.loc	29 0 10
	movq	-152(%rbp), %rax
	movq	-144(%rbp), %rcx
	.loc	28 17 41 is_stmt 1
	movq	%rcx, -64(%rbp)
	movq	%rax, -56(%rbp)
Ltmp790:
	.loc	28 17 63 is_stmt 0
	jmp	LBB77_5
LBB77_3:
	.loc	28 0 63
	movq	-136(%rbp), %rdi
	.loc	28 18 33 is_stmt 1
	addq	$8, %rdi
	movq	%rdi, -40(%rbp)
Ltmp778:
Ltmp791:
	.loc	28 18 39 is_stmt 0
	callq	__ZN75_$LT$alloc..vec..Vec$LT$T$C$A$GT$$u20$as$u20$core..ops..deref..DerefMut$GT$9deref_mut17h22d9ca53e4d796b6E
Ltmp779:
	movq	%rdx, -168(%rbp)
	movq	%rax, -160(%rbp)
	jmp	LBB77_4
LBB77_4:
	.loc	28 0 39
	movq	-168(%rbp), %rax
	movq	-160(%rbp), %rcx
	.loc	28 18 39
	movq	%rcx, -64(%rbp)
	movq	%rax, -56(%rbp)
Ltmp792:
LBB77_5:
	.loc	28 0 39
	movq	-128(%rbp), %rdx
	.loc	28 16 13 is_stmt 1
	movq	-64(%rbp), %rdi
	movq	-56(%rbp), %rsi
Ltmp793:
	.loc	27 174 27
	movb	$0, -97(%rbp)
Ltmp782:
	.loc	27 174 10 is_stmt 0
	leaq	l___unnamed_20(%rip), %rcx
	callq	__ZN4core5slice5index77_$LT$impl$u20$core..ops..index..IndexMut$LT$I$GT$$u20$for$u20$$u5b$T$u5d$$GT$9index_mut17hd0b7fb3b9a8ec55cE
Ltmp783:
	movq	%rdx, -184(%rbp)
	movq	%rax, -176(%rbp)
	jmp	LBB77_9
LBB77_6:
Ltmp784:
	.loc	27 0 10
	movq	%rax, %rcx
	movl	%edx, %eax
	movq	%rcx, -80(%rbp)
	movl	%eax, -72(%rbp)
	.loc	27 175 3 is_stmt 1
	testb	$1, -97(%rbp)
	jne	LBB77_8
LBB77_7:
	.loc	27 173 3
	movq	-80(%rbp), %rdi
	callq	__Unwind_Resume
LBB77_8:
	.loc	27 175 3
	jmp	LBB77_7
Ltmp794:
LBB77_9:
	.loc	27 0 3 is_stmt 0
	movq	-184(%rbp), %rsi
	movq	-176(%rbp), %rdi
	.loc	26 77 9 is_stmt 1
	callq	__ZN5alloc5slice29_$LT$impl$u20$$u5b$T$u5d$$GT$11sort_by_key17h0e73790c7653aec1E
	.loc	26 78 6
	addq	$192, %rsp
	popq	%rbp
	retq
Ltmp795:
Lfunc_end77:
	.cfi_endproc
	.section	__TEXT,__gcc_except_tab
	.p2align	2
GCC_except_table77:
Lexception20:
	.byte	255
	.byte	255
	.byte	1
	.uleb128 Lcst_end20-Lcst_begin20
Lcst_begin20:
	.uleb128 Ltmp780-Lfunc_begin77
	.uleb128 Ltmp783-Ltmp780
	.uleb128 Ltmp784-Lfunc_begin77
	.byte	0
	.uleb128 Ltmp783-Lfunc_begin77
	.uleb128 Lfunc_end77-Ltmp783
	.byte	0
	.byte	0
Lcst_end20:
	.p2align	2

	.section	__TEXT,__text,regular,pure_instructions
	.globl	__ZN21unicode_normalization9decompose23Decompositions$LT$I$GT$12sort_pending17hbb60f0cb273ffa92E
	.p2align	4, 0x90
__ZN21unicode_normalization9decompose23Decompositions$LT$I$GT$12sort_pending17hbb60f0cb273ffa92E:
Lfunc_begin78:
	.loc	26 74 0
	.cfi_startproc
	.cfi_personality 155, _rust_eh_personality
	.cfi_lsda 16, Lexception21
	pushq	%rbp
	.cfi_def_cfa_offset 16
	.cfi_offset %rbp, -16
	movq	%rsp, %rbp
	.cfi_def_cfa_register %rbp
	subq	$192, %rsp
	movq	%rdi, -112(%rbp)
Ltmp803:
	.loc	26 77 9 prologue_end
	movq	%rdi, %rax
	addq	$32, %rax
	movq	%rax, -136(%rbp)
	.loc	26 77 21 is_stmt 0
	movq	24(%rdi), %rcx
	movq	%rcx, -120(%rbp)
	.loc	26 77 9
	movq	-120(%rbp), %rcx
	movq	%rcx, -128(%rbp)
	movq	%rax, -96(%rbp)
	movq	%rcx, -88(%rbp)
Ltmp804:
	.loc	27 174 5 is_stmt 1
	movb	$0, -97(%rbp)
	movb	$1, -97(%rbp)
	movq	%rax, -48(%rbp)
Ltmp805:
	.loc	28 16 19
	movl	32(%rdi), %eax
	.loc	28 16 13 is_stmt 0
	cmpq	$0, %rax
	jne	LBB78_3
	.loc	28 0 13
	movq	-136(%rbp), %rax
	.loc	28 17 35 is_stmt 1
	movq	%rax, %rcx
	addq	$4, %rcx
	movq	%rcx, -32(%rbp)
	movq	%rcx, -16(%rbp)
Ltmp806:
	.loc	29 165 10
	movq	%rax, %rdi
	addq	$8, %rdi
	movq	%rdi, -8(%rbp)
	.loc	29 165 37 is_stmt 0
	movzwl	4(%rax), %eax
	.loc	29 165 35
	movq	%rax, -24(%rbp)
	.loc	29 165 10
	movq	-24(%rbp), %rdx
Ltmp798:
	leaq	l___unnamed_17(%rip), %rcx
	movl	$4, %esi
	callq	__ZN4core5slice5index77_$LT$impl$u20$core..ops..index..IndexMut$LT$I$GT$$u20$for$u20$$u5b$T$u5d$$GT$9index_mut17he295e89065c221f1E
Ltmp799:
	movq	%rdx, -152(%rbp)
	movq	%rax, -144(%rbp)
	jmp	LBB78_2
Ltmp807:
LBB78_2:
	.loc	29 0 10
	movq	-152(%rbp), %rax
	movq	-144(%rbp), %rcx
	.loc	28 17 41 is_stmt 1
	movq	%rcx, -64(%rbp)
	movq	%rax, -56(%rbp)
Ltmp808:
	.loc	28 17 63 is_stmt 0
	jmp	LBB78_5
LBB78_3:
	.loc	28 0 63
	movq	-136(%rbp), %rdi
	.loc	28 18 33 is_stmt 1
	addq	$8, %rdi
	movq	%rdi, -40(%rbp)
Ltmp796:
Ltmp809:
	.loc	28 18 39 is_stmt 0
	callq	__ZN75_$LT$alloc..vec..Vec$LT$T$C$A$GT$$u20$as$u20$core..ops..deref..DerefMut$GT$9deref_mut17h22d9ca53e4d796b6E
Ltmp797:
	movq	%rdx, -168(%rbp)
	movq	%rax, -160(%rbp)
	jmp	LBB78_4
LBB78_4:
	.loc	28 0 39
	movq	-168(%rbp), %rax
	movq	-160(%rbp), %rcx
	.loc	28 18 39
	movq	%rcx, -64(%rbp)
	movq	%rax, -56(%rbp)
Ltmp810:
LBB78_5:
	.loc	28 0 39
	movq	-128(%rbp), %rdx
	.loc	28 16 13 is_stmt 1
	movq	-64(%rbp), %rdi
	movq	-56(%rbp), %rsi
Ltmp811:
	.loc	27 174 27
	movb	$0, -97(%rbp)
Ltmp800:
	.loc	27 174 10 is_stmt 0
	leaq	l___unnamed_20(%rip), %rcx
	callq	__ZN4core5slice5index77_$LT$impl$u20$core..ops..index..IndexMut$LT$I$GT$$u20$for$u20$$u5b$T$u5d$$GT$9index_mut17hd0b7fb3b9a8ec55cE
Ltmp801:
	movq	%rdx, -184(%rbp)
	movq	%rax, -176(%rbp)
	jmp	LBB78_9
LBB78_6:
Ltmp802:
	.loc	27 0 10
	movq	%rax, %rcx
	movl	%edx, %eax
	movq	%rcx, -80(%rbp)
	movl	%eax, -72(%rbp)
	.loc	27 175 3 is_stmt 1
	testb	$1, -97(%rbp)
	jne	LBB78_8
LBB78_7:
	.loc	27 173 3
	movq	-80(%rbp), %rdi
	callq	__Unwind_Resume
LBB78_8:
	.loc	27 175 3
	jmp	LBB78_7
Ltmp812:
LBB78_9:
	.loc	27 0 3 is_stmt 0
	movq	-184(%rbp), %rsi
	movq	-176(%rbp), %rdi
	.loc	26 77 9 is_stmt 1
	callq	__ZN5alloc5slice29_$LT$impl$u20$$u5b$T$u5d$$GT$11sort_by_key17ha655cf1ef7cd400eE
	.loc	26 78 6
	addq	$192, %rsp
	popq	%rbp
	retq
Ltmp813:
Lfunc_end78:
	.cfi_endproc
	.section	__TEXT,__gcc_except_tab
	.p2align	2
GCC_except_table78:
Lexception21:
	.byte	255
	.byte	255
	.byte	1
	.uleb128 Lcst_end21-Lcst_begin21
Lcst_begin21:
	.uleb128 Ltmp798-Lfunc_begin78
	.uleb128 Ltmp801-Ltmp798
	.uleb128 Ltmp802-Lfunc_begin78
	.byte	0
	.uleb128 Ltmp801-Lfunc_begin78
	.uleb128 Lfunc_end78-Ltmp801
	.byte	0
	.byte	0
Lcst_end21:
	.p2align	2

	.section	__TEXT,__text,regular,pure_instructions
	.globl	__ZN21unicode_normalization9decompose23Decompositions$LT$I$GT$12sort_pending28_$u7b$$u7b$closure$u7d$$u7d$17h2cda8fccfeed2ff8E
	.p2align	4, 0x90
__ZN21unicode_normalization9decompose23Decompositions$LT$I$GT$12sort_pending28_$u7b$$u7b$closure$u7d$$u7d$17h2cda8fccfeed2ff8E:
Lfunc_begin79:
	.loc	26 77 0
	.cfi_startproc
	pushq	%rbp
	.cfi_def_cfa_offset 16
	.cfi_offset %rbp, -16
	movq	%rsp, %rbp
	.cfi_def_cfa_register %rbp
	subq	$16, %rsp
	movq	%rdi, -16(%rbp)
	movq	%rsi, -8(%rbp)
Ltmp814:
	.loc	26 77 55 prologue_end
	movb	(%rsi), %al
	.loc	26 77 58 is_stmt 0
	addq	$16, %rsp
	popq	%rbp
	retq
Ltmp815:
Lfunc_end79:
	.cfi_endproc

	.globl	__ZN21unicode_normalization9decompose23Decompositions$LT$I$GT$12sort_pending28_$u7b$$u7b$closure$u7d$$u7d$17h82d217dd11ad72d4E
	.p2align	4, 0x90
__ZN21unicode_normalization9decompose23Decompositions$LT$I$GT$12sort_pending28_$u7b$$u7b$closure$u7d$$u7d$17h82d217dd11ad72d4E:
Lfunc_begin80:
	.loc	26 77 0 is_stmt 1
	.cfi_startproc
	pushq	%rbp
	.cfi_def_cfa_offset 16
	.cfi_offset %rbp, -16
	movq	%rsp, %rbp
	.cfi_def_cfa_register %rbp
	subq	$16, %rsp
	movq	%rdi, -16(%rbp)
	movq	%rsi, -8(%rbp)
Ltmp816:
	.loc	26 77 55 prologue_end
	movb	(%rsi), %al
	.loc	26 77 58 is_stmt 0
	addq	$16, %rsp
	popq	%rbp
	retq
Ltmp817:
Lfunc_end80:
	.cfi_endproc

	.globl	__ZN21unicode_normalization9decompose23Decompositions$LT$I$GT$20increment_next_ready17hcd22f2679933c3caE
	.p2align	4, 0x90
__ZN21unicode_normalization9decompose23Decompositions$LT$I$GT$20increment_next_ready17hcd22f2679933c3caE:
Lfunc_begin81:
	.loc	26 93 0 is_stmt 1
	.cfi_startproc
	pushq	%rbp
	.cfi_def_cfa_offset 16
	.cfi_offset %rbp, -16
	movq	%rsp, %rbp
	.cfi_def_cfa_register %rbp
	subq	$32, %rsp
	movq	%rdi, -32(%rbp)
	movq	%rdi, -16(%rbp)
Ltmp818:
	.loc	26 94 20 prologue_end
	movq	(%rdi), %rax
	addq	$1, %rax
	movq	%rax, -24(%rbp)
	setb	%al
	testb	$1, %al
	jne	LBB81_2
	.loc	26 0 20 is_stmt 0
	movq	-24(%rbp), %rax
	movq	-32(%rbp), %rcx
	.loc	26 94 20
	movq	%rax, -8(%rbp)
Ltmp819:
	.loc	26 95 12 is_stmt 1
	cmpq	8(%rcx), %rax
	je	LBB81_4
	jmp	LBB81_3
Ltmp820:
LBB81_2:
	.loc	26 94 20
	leaq	_str.0(%rip), %rdi
	leaq	l___unnamed_21(%rip), %rdx
	movl	$28, %esi
	callq	__ZN4core9panicking5panic17hc1bc45270cf64b03E
LBB81_3:
	.loc	26 0 20 is_stmt 0
	movq	-32(%rbp), %rax
	movq	-24(%rbp), %rcx
Ltmp821:
	.loc	26 98 13 is_stmt 1
	movq	%rcx, (%rax)
	.loc	26 95 9
	jmp	LBB81_5
LBB81_4:
	.loc	26 0 9 is_stmt 0
	movq	-32(%rbp), %rdi
	.loc	26 96 13 is_stmt 1
	callq	__ZN21unicode_normalization9decompose23Decompositions$LT$I$GT$12reset_buffer17h6494dbda15b2b466E
Ltmp822:
LBB81_5:
	.loc	26 100 6
	addq	$32, %rsp
	popq	%rbp
	retq
Ltmp823:
Lfunc_end81:
	.cfi_endproc

	.globl	__ZN21unicode_normalization9decompose23Decompositions$LT$I$GT$20increment_next_ready17hd9e2067eebb6854cE
	.p2align	4, 0x90
__ZN21unicode_normalization9decompose23Decompositions$LT$I$GT$20increment_next_ready17hd9e2067eebb6854cE:
Lfunc_begin82:
	.loc	26 93 0
	.cfi_startproc
	pushq	%rbp
	.cfi_def_cfa_offset 16
	.cfi_offset %rbp, -16
	movq	%rsp, %rbp
	.cfi_def_cfa_register %rbp
	subq	$32, %rsp
	movq	%rdi, -32(%rbp)
	movq	%rdi, -16(%rbp)
Ltmp824:
	.loc	26 94 20 prologue_end
	movq	16(%rdi), %rax
	addq	$1, %rax
	movq	%rax, -24(%rbp)
	setb	%al
	testb	$1, %al
	jne	LBB82_2
	.loc	26 0 20 is_stmt 0
	movq	-24(%rbp), %rax
	movq	-32(%rbp), %rcx
	.loc	26 94 20
	movq	%rax, -8(%rbp)
Ltmp825:
	.loc	26 95 12 is_stmt 1
	cmpq	24(%rcx), %rax
	je	LBB82_4
	jmp	LBB82_3
Ltmp826:
LBB82_2:
	.loc	26 94 20
	leaq	_str.0(%rip), %rdi
	leaq	l___unnamed_21(%rip), %rdx
	movl	$28, %esi
	callq	__ZN4core9panicking5panic17hc1bc45270cf64b03E
LBB82_3:
	.loc	26 0 20 is_stmt 0
	movq	-32(%rbp), %rax
	movq	-24(%rbp), %rcx
Ltmp827:
	.loc	26 98 13 is_stmt 1
	movq	%rcx, 16(%rax)
	.loc	26 95 9
	jmp	LBB82_5
LBB82_4:
	.loc	26 0 9 is_stmt 0
	movq	-32(%rbp), %rdi
	.loc	26 96 13 is_stmt 1
	callq	__ZN21unicode_normalization9decompose23Decompositions$LT$I$GT$12reset_buffer17h76fd843dffe9f39aE
Ltmp828:
LBB82_5:
	.loc	26 100 6
	addq	$32, %rsp
	popq	%rbp
	retq
Ltmp829:
Lfunc_end82:
	.cfi_endproc

	.globl	__ZN21unicode_normalization9decompose23Decompositions$LT$I$GT$9push_back17h5ee1574ba30e37f3E
	.p2align	4, 0x90
__ZN21unicode_normalization9decompose23Decompositions$LT$I$GT$9push_back17h5ee1574ba30e37f3E:
Lfunc_begin83:
	.loc	26 61 0
	.cfi_startproc
	pushq	%rbp
	.cfi_def_cfa_offset 16
	.cfi_offset %rbp, -16
	movq	%rsp, %rbp
	.cfi_def_cfa_register %rbp
	subq	$112, %rsp
	movl	%esi, -92(%rbp)
	movq	%rdi, %rax
	movl	-92(%rbp), %edi
	movq	%rax, -88(%rbp)
	movl	%edi, -80(%rbp)
	movq	%rax, -56(%rbp)
	movl	%edi, -48(%rbp)
Ltmp830:
	.loc	26 62 21 prologue_end
	callq	__ZN21unicode_normalization7lookups25canonical_combining_class17h0595252e9f8c65a2E
	movb	%al, -73(%rbp)
	movb	%al, -41(%rbp)
Ltmp831:
	.loc	26 64 12
	cmpb	$0, %al
	jne	LBB83_5
	.loc	26 0 12 is_stmt 0
	movq	-88(%rbp), %rdi
	.loc	26 65 13 is_stmt 1
	callq	__ZN21unicode_normalization9decompose23Decompositions$LT$I$GT$12sort_pending17h0e85b5a84e0c54d1E
	movb	-73(%rbp), %cl
	movl	-80(%rbp), %eax
	movq	-88(%rbp), %rdi
	.loc	26 66 13
	addq	$64, %rdi
	.loc	26 66 30 is_stmt 0
	movb	%cl, -72(%rbp)
	movl	%eax, -68(%rbp)
	.loc	26 66 13
	movb	-72(%rbp), %al
	movl	-68(%rbp), %edx
	movzbl	%al, %esi
	callq	__ZN7tinyvec7tinyvec16TinyVec$LT$A$GT$4push17hd60fce63bd01deb6E
	movq	-88(%rbp), %rax
	.loc	26 67 30 is_stmt 1
	movq	%rax, %rcx
	addq	$64, %rcx
	movq	%rcx, -104(%rbp)
	movq	%rcx, -32(%rbp)
Ltmp832:
	.loc	28 16 19
	movl	64(%rax), %eax
	.loc	28 16 13 is_stmt 0
	cmpq	$0, %rax
	jne	LBB83_3
	.loc	28 0 13
	movq	-104(%rbp), %rax
	.loc	28 17 35 is_stmt 1
	movq	%rax, %rcx
	addq	$4, %rcx
	movq	%rcx, -16(%rbp)
	movq	%rcx, -8(%rbp)
Ltmp833:
	.loc	29 579 5
	movzwl	4(%rax), %eax
Ltmp834:
	.loc	28 17 41
	movq	%rax, -40(%rbp)
	jmp	LBB83_4
Ltmp835:
LBB83_3:
	.loc	28 0 41 is_stmt 0
	movq	-104(%rbp), %rdi
	.loc	28 18 33 is_stmt 1
	addq	$8, %rdi
	movq	%rdi, -24(%rbp)
Ltmp836:
	.loc	28 18 39 is_stmt 0
	callq	__ZN5alloc3vec16Vec$LT$T$C$A$GT$3len17h8a07093eb989e862E
	movq	%rax, -40(%rbp)
Ltmp837:
LBB83_4:
	.loc	28 0 39
	movq	-88(%rbp), %rax
	.loc	28 20 10 is_stmt 1
	movq	-40(%rbp), %rcx
Ltmp838:
	.loc	26 67 13
	movq	%rcx, 8(%rax)
	.loc	26 64 9
	jmp	LBB83_6
LBB83_5:
	.loc	26 0 9 is_stmt 0
	movl	-80(%rbp), %eax
	movb	-73(%rbp), %cl
	movq	-88(%rbp), %rdi
	.loc	26 69 13 is_stmt 1
	addq	$64, %rdi
	.loc	26 69 30 is_stmt 0
	movb	%cl, -64(%rbp)
	movl	%eax, -60(%rbp)
	.loc	26 69 13
	movb	-64(%rbp), %al
	movl	-60(%rbp), %edx
	movzbl	%al, %esi
	callq	__ZN7tinyvec7tinyvec16TinyVec$LT$A$GT$4push17hd60fce63bd01deb6E
Ltmp839:
LBB83_6:
	.loc	26 71 6 is_stmt 1
	addq	$112, %rsp
	popq	%rbp
	retq
Ltmp840:
Lfunc_end83:
	.cfi_endproc

	.globl	__ZN21unicode_normalization9decompose23Decompositions$LT$I$GT$9push_back17hc0a2970c36f2a1aaE
	.p2align	4, 0x90
__ZN21unicode_normalization9decompose23Decompositions$LT$I$GT$9push_back17hc0a2970c36f2a1aaE:
Lfunc_begin84:
	.loc	26 61 0
	.cfi_startproc
	pushq	%rbp
	.cfi_def_cfa_offset 16
	.cfi_offset %rbp, -16
	movq	%rsp, %rbp
	.cfi_def_cfa_register %rbp
	subq	$112, %rsp
	movl	%esi, -92(%rbp)
	movq	%rdi, %rax
	movl	-92(%rbp), %edi
	movq	%rax, -88(%rbp)
	movl	%edi, -80(%rbp)
	movq	%rax, -56(%rbp)
	movl	%edi, -48(%rbp)
Ltmp841:
	.loc	26 62 21 prologue_end
	callq	__ZN21unicode_normalization7lookups25canonical_combining_class17h0595252e9f8c65a2E
	movb	%al, -73(%rbp)
	movb	%al, -41(%rbp)
Ltmp842:
	.loc	26 64 12
	cmpb	$0, %al
	jne	LBB84_5
	.loc	26 0 12 is_stmt 0
	movq	-88(%rbp), %rdi
	.loc	26 65 13 is_stmt 1
	callq	__ZN21unicode_normalization9decompose23Decompositions$LT$I$GT$12sort_pending17hbb60f0cb273ffa92E
	movb	-73(%rbp), %cl
	movl	-80(%rbp), %eax
	movq	-88(%rbp), %rdi
	.loc	26 66 13
	addq	$32, %rdi
	.loc	26 66 30 is_stmt 0
	movb	%cl, -72(%rbp)
	movl	%eax, -68(%rbp)
	.loc	26 66 13
	movb	-72(%rbp), %al
	movl	-68(%rbp), %edx
	movzbl	%al, %esi
	callq	__ZN7tinyvec7tinyvec16TinyVec$LT$A$GT$4push17hd60fce63bd01deb6E
	movq	-88(%rbp), %rax
	.loc	26 67 30 is_stmt 1
	movq	%rax, %rcx
	addq	$32, %rcx
	movq	%rcx, -104(%rbp)
	movq	%rcx, -32(%rbp)
Ltmp843:
	.loc	28 16 19
	movl	32(%rax), %eax
	.loc	28 16 13 is_stmt 0
	cmpq	$0, %rax
	jne	LBB84_3
	.loc	28 0 13
	movq	-104(%rbp), %rax
	.loc	28 17 35 is_stmt 1
	movq	%rax, %rcx
	addq	$4, %rcx
	movq	%rcx, -16(%rbp)
	movq	%rcx, -8(%rbp)
Ltmp844:
	.loc	29 579 5
	movzwl	4(%rax), %eax
Ltmp845:
	.loc	28 17 41
	movq	%rax, -40(%rbp)
	jmp	LBB84_4
Ltmp846:
LBB84_3:
	.loc	28 0 41 is_stmt 0
	movq	-104(%rbp), %rdi
	.loc	28 18 33 is_stmt 1
	addq	$8, %rdi
	movq	%rdi, -24(%rbp)
Ltmp847:
	.loc	28 18 39 is_stmt 0
	callq	__ZN5alloc3vec16Vec$LT$T$C$A$GT$3len17h8a07093eb989e862E
	movq	%rax, -40(%rbp)
Ltmp848:
LBB84_4:
	.loc	28 0 39
	movq	-88(%rbp), %rax
	.loc	28 20 10 is_stmt 1
	movq	-40(%rbp), %rcx
Ltmp849:
	.loc	26 67 13
	movq	%rcx, 24(%rax)
	.loc	26 64 9
	jmp	LBB84_6
LBB84_5:
	.loc	26 0 9 is_stmt 0
	movl	-80(%rbp), %eax
	movb	-73(%rbp), %cl
	movq	-88(%rbp), %rdi
	.loc	26 69 13 is_stmt 1
	addq	$32, %rdi
	.loc	26 69 30 is_stmt 0
	movb	%cl, -64(%rbp)
	movl	%eax, -60(%rbp)
	.loc	26 69 13
	movb	-64(%rbp), %al
	movl	-60(%rbp), %edx
	movzbl	%al, %esi
	callq	__ZN7tinyvec7tinyvec16TinyVec$LT$A$GT$4push17hd60fce63bd01deb6E
Ltmp850:
LBB84_6:
	.loc	26 71 6 is_stmt 1
	addq	$112, %rsp
	popq	%rbp
	retq
Ltmp851:
Lfunc_end84:
	.cfi_endproc

	.globl	__ZN21unicode_normalization9normalize19decompose_canonical17h32e015b580341fccE
	.p2align	4, 0x90
__ZN21unicode_normalization9normalize19decompose_canonical17h32e015b580341fccE:
Lfunc_begin85:
	.file	36 "/Users/natalie/.cargo/registry/src/github.com-1ecc6299db9ec823/unicode-normalization-0.1.22/src" "normalize.rs"
	.loc	36 23 0
	.cfi_startproc
	pushq	%rbp
	.cfi_def_cfa_offset 16
	.cfi_offset %rbp, -16
	movq	%rsp, %rbp
	.cfi_def_cfa_register %rbp
	subq	$16, %rsp
	movl	%edi, -12(%rbp)
	movq	%rsi, -8(%rbp)
Ltmp852:
	.loc	36 27 5 prologue_end
	callq	__ZN21unicode_normalization9normalize9decompose17ha6a6430a0f8f46f3E
	.loc	36 28 2
	addq	$16, %rsp
	popq	%rbp
	retq
Ltmp853:
Lfunc_end85:
	.cfi_endproc

	.globl	__ZN21unicode_normalization9normalize19decompose_canonical17h49084500251cbc47E
	.p2align	4, 0x90
__ZN21unicode_normalization9normalize19decompose_canonical17h49084500251cbc47E:
Lfunc_begin86:
	.loc	36 23 0
	.cfi_startproc
	pushq	%rbp
	.cfi_def_cfa_offset 16
	.cfi_offset %rbp, -16
	movq	%rsp, %rbp
	.cfi_def_cfa_register %rbp
	subq	$16, %rsp
	movl	%edi, -12(%rbp)
	movq	%rsi, -8(%rbp)
Ltmp854:
	.loc	36 27 5 prologue_end
	callq	__ZN21unicode_normalization9normalize9decompose17hc0959ad8d602391cE
	.loc	36 28 2
	addq	$16, %rsp
	popq	%rbp
	retq
Ltmp855:
Lfunc_end86:
	.cfi_endproc

	.globl	__ZN21unicode_normalization9normalize20decompose_compatible17h82606b0bbcc0b6aeE
	.p2align	4, 0x90
__ZN21unicode_normalization9normalize20decompose_compatible17h82606b0bbcc0b6aeE:
Lfunc_begin87:
	.loc	36 34 0
	.cfi_startproc
	pushq	%rbp
	.cfi_def_cfa_offset 16
	.cfi_offset %rbp, -16
	movq	%rsp, %rbp
	.cfi_def_cfa_register %rbp
	subq	$32, %rsp
	movl	%edi, -20(%rbp)
	movq	%rsi, -16(%rbp)
Ltmp856:
	.loc	36 37 5 prologue_end
	callq	__ZN21unicode_normalization9normalize9decompose17h7ec11d9b4c723e2dE
Ltmp857:
	.loc	36 38 2
	addq	$32, %rsp
	popq	%rbp
	retq
Ltmp858:
Lfunc_end87:
	.cfi_endproc

	.globl	__ZN21unicode_normalization9normalize20decompose_compatible17he56ba1ae162b8929E
	.p2align	4, 0x90
__ZN21unicode_normalization9normalize20decompose_compatible17he56ba1ae162b8929E:
Lfunc_begin88:
	.loc	36 34 0
	.cfi_startproc
	pushq	%rbp
	.cfi_def_cfa_offset 16
	.cfi_offset %rbp, -16
	movq	%rsp, %rbp
	.cfi_def_cfa_register %rbp
	subq	$32, %rsp
	movl	%edi, -20(%rbp)
	movq	%rsi, -16(%rbp)
Ltmp859:
	.loc	36 37 5 prologue_end
	callq	__ZN21unicode_normalization9normalize9decompose17h1db63abca48d86a0E
Ltmp860:
	.loc	36 38 2
	addq	$32, %rsp
	popq	%rbp
	retq
Ltmp861:
Lfunc_end88:
	.cfi_endproc

	.globl	__ZN21unicode_normalization9normalize20decompose_compatible28_$u7b$$u7b$closure$u7d$$u7d$17h3a14da52d379f7abE
	.p2align	4, 0x90
__ZN21unicode_normalization9normalize20decompose_compatible28_$u7b$$u7b$closure$u7d$$u7d$17h3a14da52d379f7abE:
Lfunc_begin89:
	.loc	36 36 0
	.cfi_startproc
	pushq	%rbp
	.cfi_def_cfa_offset 16
	.cfi_offset %rbp, -16
	movq	%rsp, %rbp
	.cfi_def_cfa_register %rbp
	subq	$32, %rsp
	movl	%esi, -20(%rbp)
	movq	%rdi, -8(%rbp)
Ltmp862:
	.loc	36 36 44 prologue_end
	movl	-20(%rbp), %edi
	.loc	36 36 13 is_stmt 0
	callq	__ZN21unicode_normalization7lookups30compatibility_fully_decomposed17h2a3f2ea86b08eb64E
	movq	%rax, %rdi
	movq	%rdx, %rsi
	leaq	-20(%rbp), %rax
	.loc	36 36 55
	movq	%rax, -16(%rbp)
	.loc	36 36 13
	movq	-16(%rbp), %rdx
	callq	__ZN4core6option15Option$LT$T$GT$7or_else17ha47fec8b5fa3fc5aE
	.loc	36 36 88
	addq	$32, %rsp
	popq	%rbp
	retq
Ltmp863:
Lfunc_end89:
	.cfi_endproc

	.globl	__ZN21unicode_normalization9normalize20decompose_compatible28_$u7b$$u7b$closure$u7d$$u7d$17hc0b16623deaabf38E
	.p2align	4, 0x90
__ZN21unicode_normalization9normalize20decompose_compatible28_$u7b$$u7b$closure$u7d$$u7d$17hc0b16623deaabf38E:
Lfunc_begin90:
	.loc	36 36 0 is_stmt 1
	.cfi_startproc
	pushq	%rbp
	.cfi_def_cfa_offset 16
	.cfi_offset %rbp, -16
	movq	%rsp, %rbp
	.cfi_def_cfa_register %rbp
	subq	$32, %rsp
	movl	%esi, -20(%rbp)
	movq	%rdi, -8(%rbp)
Ltmp864:
	.loc	36 36 44 prologue_end
	movl	-20(%rbp), %edi
	.loc	36 36 13 is_stmt 0
	callq	__ZN21unicode_normalization7lookups30compatibility_fully_decomposed17h2a3f2ea86b08eb64E
	movq	%rax, %rdi
	movq	%rdx, %rsi
	leaq	-20(%rbp), %rax
	.loc	36 36 55
	movq	%rax, -16(%rbp)
	.loc	36 36 13
	movq	-16(%rbp), %rdx
	callq	__ZN4core6option15Option$LT$T$GT$7or_else17h299f791f7829c9d4E
	.loc	36 36 88
	addq	$32, %rsp
	popq	%rbp
	retq
Ltmp865:
Lfunc_end90:
	.cfi_endproc

	.globl	__ZN21unicode_normalization9normalize20decompose_compatible28_$u7b$$u7b$closure$u7d$$u7d$28_$u7b$$u7b$closure$u7d$$u7d$17h2570f0f858c2983bE
	.p2align	4, 0x90
__ZN21unicode_normalization9normalize20decompose_compatible28_$u7b$$u7b$closure$u7d$$u7d$28_$u7b$$u7b$closure$u7d$$u7d$17h2570f0f858c2983bE:
Lfunc_begin91:
	.loc	36 36 0 is_stmt 1
	.cfi_startproc
	pushq	%rbp
	.cfi_def_cfa_offset 16
	.cfi_offset %rbp, -16
	movq	%rsp, %rbp
	.cfi_def_cfa_register %rbp
	subq	$16, %rsp
	movq	%rdi, -8(%rbp)
Ltmp866:
	.loc	36 36 85 prologue_end
	movq	-8(%rbp), %rax
	movl	(%rax), %edi
	.loc	36 36 58 is_stmt 0
	callq	__ZN21unicode_normalization7lookups26canonical_fully_decomposed17hb195cef1e3bf8de2E
	.loc	36 36 87
	addq	$16, %rsp
	popq	%rbp
	retq
Ltmp867:
Lfunc_end91:
	.cfi_endproc

	.globl	__ZN21unicode_normalization9normalize20decompose_compatible28_$u7b$$u7b$closure$u7d$$u7d$28_$u7b$$u7b$closure$u7d$$u7d$17h4d113d6416414bb4E
	.p2align	4, 0x90
__ZN21unicode_normalization9normalize20decompose_compatible28_$u7b$$u7b$closure$u7d$$u7d$28_$u7b$$u7b$closure$u7d$$u7d$17h4d113d6416414bb4E:
Lfunc_begin92:
	.loc	36 36 0 is_stmt 1
	.cfi_startproc
	pushq	%rbp
	.cfi_def_cfa_offset 16
	.cfi_offset %rbp, -16
	movq	%rsp, %rbp
	.cfi_def_cfa_register %rbp
	subq	$16, %rsp
	movq	%rdi, -8(%rbp)
Ltmp868:
	.loc	36 36 85 prologue_end
	movq	-8(%rbp), %rax
	movl	(%rax), %edi
	.loc	36 36 58 is_stmt 0
	callq	__ZN21unicode_normalization7lookups26canonical_fully_decomposed17hb195cef1e3bf8de2E
	.loc	36 36 87
	addq	$16, %rsp
	popq	%rbp
	retq
Ltmp869:
Lfunc_end92:
	.cfi_endproc

	.p2align	4, 0x90
__ZN21unicode_normalization9normalize27hangul_decomposition_length17hb9d143fea4dd6209E:
Lfunc_begin93:
	.loc	36 157 0 is_stmt 1
	.cfi_startproc
	pushq	%rbp
	.cfi_def_cfa_offset 16
	.cfi_offset %rbp, -16
	movq	%rsp, %rbp
	.cfi_def_cfa_register %rbp
	subq	$32, %rsp
	movl	%edi, -12(%rbp)
Ltmp870:
	.loc	36 158 14 prologue_end
	movl	%edi, %eax
	subl	$44032, %eax
	movl	%eax, -28(%rbp)
	cmpl	$44032, %edi
	setb	%al
	testb	$1, %al
	jne	LBB93_2
	.loc	36 0 14 is_stmt 0
	movl	-28(%rbp), %eax
	.loc	36 158 14
	movl	%eax, -8(%rbp)
Ltmp871:
	.loc	36 159 14 is_stmt 1
	movl	$28, %ecx
	xorl	%edx, %edx
	divl	%ecx
	movl	%edx, -4(%rbp)
Ltmp872:
	.loc	36 160 8
	cmpl	$0, %edx
	ja	LBB93_4
	jmp	LBB93_3
Ltmp873:
LBB93_2:
	.loc	36 158 14
	leaq	_str.1(%rip), %rdi
	leaq	l___unnamed_22(%rip), %rdx
	movl	$33, %esi
	callq	__ZN4core9panicking5panic17hc1bc45270cf64b03E
LBB93_3:
Ltmp874:
	.loc	36 163 9
	movq	$2, -24(%rbp)
	.loc	36 160 5
	jmp	LBB93_5
LBB93_4:
	.loc	36 161 9
	movq	$3, -24(%rbp)
Ltmp875:
LBB93_5:
	.loc	36 165 2
	movq	-24(%rbp), %rax
	addq	$32, %rsp
	popq	%rbp
	retq
Ltmp876:
Lfunc_end93:
	.cfi_endproc

	.globl	__ZN21unicode_normalization9normalize9decompose17h1db63abca48d86a0E
	.p2align	4, 0x90
__ZN21unicode_normalization9normalize9decompose17h1db63abca48d86a0E:
Lfunc_begin94:
	.loc	36 74 0
	.cfi_startproc
	.cfi_personality 155, _rust_eh_personality
	.cfi_lsda 16, Lexception22
	pushq	%rbp
	.cfi_def_cfa_offset 16
	.cfi_offset %rbp, -16
	movq	%rsp, %rbp
	.cfi_def_cfa_register %rbp
	subq	$288, %rsp
	movl	%edi, -188(%rbp)
	movq	%rsi, -176(%rbp)
	movl	%edi, -100(%rbp)
Ltmp913:
	.loc	36 80 5 prologue_end
	movb	$0, -101(%rbp)
	movb	$1, -101(%rbp)
	.loc	36 80 8 is_stmt 0
	cmpl	$127, %edi
	jbe	LBB94_2
Ltmp877:
	.loc	36 0 8
	movl	-188(%rbp), %edi
	.loc	36 86 8 is_stmt 1
	callq	__ZN21unicode_normalization9normalize18is_hangul_syllable17h7b146c5444017317E
Ltmp878:
	movb	%al, -189(%rbp)
	jmp	LBB94_8
LBB94_2:
	.loc	36 0 8 is_stmt 0
	movl	-188(%rbp), %eax
	.loc	36 81 9 is_stmt 1
	movl	%eax, -164(%rbp)
	movl	-164(%rbp), %esi
Ltmp910:
	leaq	-176(%rbp), %rdi
	callq	__ZN116_$LT$unicode_normalization..decompose..Decompositions$LT$I$GT$$u20$as$u20$core..iter..traits..iterator..Iterator$GT$4next28_$u7b$$u7b$closure$u7d$$u7d$17h089524389af9a1c1E
Ltmp911:
	jmp	LBB94_6
LBB94_3:
	.loc	36 100 1
	testb	$1, -101(%rbp)
	jne	LBB94_42
	jmp	LBB94_41
LBB94_4:
Ltmp912:
	.loc	36 0 1 is_stmt 0
	movq	%rax, %rcx
	movl	%edx, %eax
	movq	%rcx, -208(%rbp)
	movl	%eax, -196(%rbp)
	jmp	LBB94_5
LBB94_5:
	movq	-208(%rbp), %rcx
	movl	-196(%rbp), %eax
	movq	%rcx, -96(%rbp)
	movl	%eax, -88(%rbp)
	jmp	LBB94_3
LBB94_6:
	.loc	36 81 9 is_stmt 1
	jmp	LBB94_7
LBB94_7:
	.loc	36 100 1
	testb	$1, -101(%rbp)
	jne	LBB94_44
	jmp	LBB94_43
LBB94_8:
	.loc	36 0 1 is_stmt 0
	movb	-189(%rbp), %al
	.loc	36 86 8 is_stmt 1
	testb	$1, %al
	jne	LBB94_10
	jmp	LBB94_9
LBB94_9:
	.loc	36 0 8 is_stmt 0
	movl	-188(%rbp), %eax
Ltmp914:
	.loc	36 91 31 is_stmt 1
	movl	%eax, -140(%rbp)
	movl	-140(%rbp), %esi
Ltmp879:
	leaq	-184(%rbp), %rdi
	callq	__ZN21unicode_normalization9normalize20decompose_compatible28_$u7b$$u7b$closure$u7d$$u7d$17h3a14da52d379f7abE
Ltmp880:
	movq	%rdx, -224(%rbp)
	movq	%rax, -216(%rbp)
	jmp	LBB94_30
Ltmp915:
LBB94_10:
	.loc	36 0 31 is_stmt 0
	movl	-188(%rbp), %eax
	.loc	36 87 29 is_stmt 1
	movb	$0, -101(%rbp)
	movq	-176(%rbp), %rcx
	movq	%rcx, -56(%rbp)
	movl	%eax, -36(%rbp)
Ltmp916:
	.loc	36 141 19
	movl	%eax, %ecx
	subl	$44032, %ecx
	movl	%ecx, -228(%rbp)
	cmpl	$44032, %eax
	setb	%al
	testb	$1, %al
	jne	LBB94_12
	.loc	36 0 19 is_stmt 0
	movl	-228(%rbp), %eax
	.loc	36 141 19
	movl	%eax, -16(%rbp)
Ltmp917:
	.loc	36 142 19 is_stmt 1
	movl	$588, %ecx
	xorl	%edx, %edx
	divl	%ecx
	movl	%eax, -12(%rbp)
Ltmp918:
	.loc	36 144 44
	addl	$4352, %eax
	movl	%eax, -232(%rbp)
	setb	%al
	testb	$1, %al
	jne	LBB94_16
	jmp	LBB94_15
Ltmp919:
LBB94_12:
Ltmp907:
	.loc	36 141 19
	leaq	_str.1(%rip), %rdi
	leaq	l___unnamed_23(%rip), %rdx
	movl	$33, %esi
	callq	__ZN4core9panicking5panic17hc1bc45270cf64b03E
Ltmp908:
	jmp	LBB94_14
LBB94_13:
Ltmp909:
	.loc	36 0 19 is_stmt 0
	movq	%rax, %rcx
	movl	%edx, %eax
	movq	%rcx, -32(%rbp)
	movl	%eax, -24(%rbp)
	.loc	36 137 1 is_stmt 1
	movq	-32(%rbp), %rcx
	movl	-24(%rbp), %eax
	movq	%rcx, -208(%rbp)
	movl	%eax, -196(%rbp)
	jmp	LBB94_5
LBB94_14:
	.loc	36 0 1 is_stmt 0
	ud2
LBB94_15:
Ltmp889:
	movl	-232(%rbp), %edi
Ltmp920:
	.loc	36 144 19 is_stmt 1
	callq	__ZN4core4char18from_u32_unchecked17hf73132f735a8556bE
Ltmp890:
	movl	%eax, -236(%rbp)
	jmp	LBB94_17
LBB94_16:
Ltmp905:
	.loc	36 144 44 is_stmt 0
	leaq	_str.0(%rip), %rdi
	leaq	l___unnamed_24(%rip), %rdx
	movl	$28, %esi
	callq	__ZN4core9panicking5panic17hc1bc45270cf64b03E
Ltmp906:
	jmp	LBB94_14
LBB94_17:
	.loc	36 0 44
	movl	-236(%rbp), %eax
	.loc	36 144 9
	movl	%eax, -48(%rbp)
	movl	-48(%rbp), %esi
Ltmp891:
	leaq	-56(%rbp), %rdi
	callq	__ZN116_$LT$unicode_normalization..decompose..Decompositions$LT$I$GT$$u20$as$u20$core..iter..traits..iterator..Iterator$GT$4next28_$u7b$$u7b$closure$u7d$$u7d$17h089524389af9a1c1E
Ltmp892:
	jmp	LBB94_18
LBB94_18:
	.loc	36 0 9
	movl	-228(%rbp), %eax
	.loc	36 146 23 is_stmt 1
	movl	$588, %ecx
	xorl	%edx, %edx
	divl	%ecx
	movl	%edx, %eax
	movl	$28, %ecx
	xorl	%edx, %edx
	divl	%ecx
	movl	%eax, -8(%rbp)
Ltmp921:
	.loc	36 147 44
	addl	$4449, %eax
	movl	%eax, -240(%rbp)
	setb	%al
	testb	$1, %al
	jne	LBB94_20
Ltmp893:
	.loc	36 0 44 is_stmt 0
	movl	-240(%rbp), %edi
	.loc	36 147 19
	callq	__ZN4core4char18from_u32_unchecked17hf73132f735a8556bE
Ltmp894:
	movl	%eax, -244(%rbp)
	jmp	LBB94_21
LBB94_20:
Ltmp903:
	.loc	36 147 44
	leaq	_str.0(%rip), %rdi
	leaq	l___unnamed_25(%rip), %rdx
	movl	$28, %esi
	callq	__ZN4core9panicking5panic17hc1bc45270cf64b03E
Ltmp904:
	jmp	LBB94_14
LBB94_21:
	.loc	36 0 44
	movl	-244(%rbp), %eax
	.loc	36 147 9
	movl	%eax, -44(%rbp)
	movl	-44(%rbp), %esi
Ltmp895:
	leaq	-56(%rbp), %rdi
	callq	__ZN116_$LT$unicode_normalization..decompose..Decompositions$LT$I$GT$$u20$as$u20$core..iter..traits..iterator..Iterator$GT$4next28_$u7b$$u7b$closure$u7d$$u7d$17h089524389af9a1c1E
Ltmp896:
	jmp	LBB94_22
LBB94_22:
	.loc	36 0 9
	movl	-228(%rbp), %eax
	.loc	36 149 23 is_stmt 1
	movl	$28, %ecx
	xorl	%edx, %edx
	divl	%ecx
	movl	%edx, -248(%rbp)
	movl	%edx, -4(%rbp)
Ltmp922:
	.loc	36 150 12
	cmpl	$0, %edx
	jbe	LBB94_28
	.loc	36 0 12 is_stmt 0
	movl	-248(%rbp), %eax
	.loc	36 151 48 is_stmt 1
	addl	$4519, %eax
	movl	%eax, -252(%rbp)
	setb	%al
	testb	$1, %al
	jne	LBB94_25
Ltmp897:
	.loc	36 0 48 is_stmt 0
	movl	-252(%rbp), %edi
	.loc	36 151 23
	callq	__ZN4core4char18from_u32_unchecked17hf73132f735a8556bE
Ltmp898:
	movl	%eax, -256(%rbp)
	jmp	LBB94_26
LBB94_25:
Ltmp901:
	.loc	36 151 48
	leaq	_str.0(%rip), %rdi
	leaq	l___unnamed_26(%rip), %rdx
	movl	$28, %esi
	callq	__ZN4core9panicking5panic17hc1bc45270cf64b03E
Ltmp902:
	jmp	LBB94_14
LBB94_26:
	.loc	36 0 48
	movl	-256(%rbp), %eax
	.loc	36 151 13
	movl	%eax, -40(%rbp)
	movl	-40(%rbp), %esi
Ltmp899:
	leaq	-56(%rbp), %rdi
	callq	__ZN116_$LT$unicode_normalization..decompose..Decompositions$LT$I$GT$$u20$as$u20$core..iter..traits..iterator..Iterator$GT$4next28_$u7b$$u7b$closure$u7d$$u7d$17h089524389af9a1c1E
Ltmp900:
	jmp	LBB94_27
LBB94_27:
	jmp	LBB94_28
Ltmp923:
LBB94_28:
	.loc	36 154 2 is_stmt 1
	jmp	LBB94_29
Ltmp924:
LBB94_29:
	.loc	36 87 9
	jmp	LBB94_7
LBB94_30:
	.loc	36 0 9 is_stmt 0
	movq	-224(%rbp), %rax
	movq	-216(%rbp), %rcx
Ltmp925:
	.loc	36 91 31 is_stmt 1
	movq	%rcx, -160(%rbp)
	movq	%rax, -152(%rbp)
	.loc	36 91 12 is_stmt 0
	movq	-160(%rbp), %rdx
	movl	$1, %eax
	xorl	%ecx, %ecx
	cmpq	$0, %rdx
	cmoveq	%rcx, %rax
	cmpq	$1, %rax
	jne	LBB94_32
	.loc	36 91 17
	movq	-160(%rbp), %rdi
	movq	-152(%rbp), %rsi
	movq	%rdi, -80(%rbp)
	movq	%rsi, -72(%rbp)
Ltmp883:
	.loc	36 92 19 is_stmt 1
	callq	__ZN4core5slice4iter87_$LT$impl$u20$core..iter..traits..collect..IntoIterator$u20$for$u20$$RF$$u5b$T$u5d$$GT$9into_iter17hef3fd3bd4e1564bcE
Ltmp884:
	movq	%rdx, -272(%rbp)
	movq	%rax, -264(%rbp)
	jmp	LBB94_36
Ltmp926:
LBB94_32:
	.loc	36 0 19 is_stmt 0
	movl	-188(%rbp), %eax
	.loc	36 99 5 is_stmt 1
	movl	%eax, -108(%rbp)
	movl	-108(%rbp), %esi
Ltmp881:
	leaq	-176(%rbp), %rdi
	callq	__ZN116_$LT$unicode_normalization..decompose..Decompositions$LT$I$GT$$u20$as$u20$core..iter..traits..iterator..Iterator$GT$4next28_$u7b$$u7b$closure$u7d$$u7d$17h089524389af9a1c1E
Ltmp882:
	jmp	LBB94_33
LBB94_33:
	.loc	36 100 1
	jmp	LBB94_34
LBB94_34:
	jmp	LBB94_35
LBB94_35:
	.loc	36 100 2 is_stmt 0
	addq	$288, %rsp
	popq	%rbp
	retq
LBB94_36:
	.loc	36 0 2
	movq	-272(%rbp), %rax
	movq	-264(%rbp), %rcx
Ltmp927:
	.loc	36 92 19 is_stmt 1
	movq	%rcx, -136(%rbp)
	movq	%rax, -128(%rbp)
LBB94_37:
Ltmp885:
	.loc	36 0 19 is_stmt 0
	leaq	-136(%rbp), %rdi
Ltmp928:
	.loc	36 92 19
	callq	__ZN91_$LT$core..slice..iter..Iter$LT$T$GT$$u20$as$u20$core..iter..traits..iterator..Iterator$GT$4next17ha44e1ded901c3b84E
Ltmp886:
	movq	%rax, -280(%rbp)
	jmp	LBB94_38
LBB94_38:
	.loc	36 0 19
	movq	-280(%rbp), %rax
	.loc	36 92 19
	movq	%rax, -120(%rbp)
	movq	-120(%rbp), %rdx
	movl	$1, %eax
	xorl	%ecx, %ecx
	cmpq	$0, %rdx
	cmoveq	%rcx, %rax
	cmpq	$0, %rax
	je	LBB94_7
	.loc	36 92 14
	movq	-120(%rbp), %rax
	movl	(%rax), %eax
	movl	%eax, -60(%rbp)
Ltmp929:
	.loc	36 93 13 is_stmt 1
	movl	%eax, -112(%rbp)
	movl	-112(%rbp), %esi
Ltmp887:
	leaq	-176(%rbp), %rdi
	callq	__ZN116_$LT$unicode_normalization..decompose..Decompositions$LT$I$GT$$u20$as$u20$core..iter..traits..iterator..Iterator$GT$4next28_$u7b$$u7b$closure$u7d$$u7d$17h089524389af9a1c1E
Ltmp888:
	jmp	LBB94_40
LBB94_40:
	jmp	LBB94_37
Ltmp930:
LBB94_41:
	.loc	36 74 1
	movq	-96(%rbp), %rdi
	callq	__Unwind_Resume
LBB94_42:
	.loc	36 100 1
	jmp	LBB94_41
LBB94_43:
	jmp	LBB94_35
LBB94_44:
	jmp	LBB94_43
Ltmp931:
Lfunc_end94:
	.cfi_endproc
	.section	__TEXT,__gcc_except_tab
	.p2align	2
GCC_except_table94:
Lexception22:
	.byte	255
	.byte	255
	.byte	1
	.uleb128 Lcst_end22-Lcst_begin22
Lcst_begin22:
	.uleb128 Ltmp877-Lfunc_begin94
	.uleb128 Ltmp880-Ltmp877
	.uleb128 Ltmp912-Lfunc_begin94
	.byte	0
	.uleb128 Ltmp907-Lfunc_begin94
	.uleb128 Ltmp900-Ltmp907
	.uleb128 Ltmp909-Lfunc_begin94
	.byte	0
	.uleb128 Ltmp883-Lfunc_begin94
	.uleb128 Ltmp888-Ltmp883
	.uleb128 Ltmp912-Lfunc_begin94
	.byte	0
	.uleb128 Ltmp888-Lfunc_begin94
	.uleb128 Lfunc_end94-Ltmp888
	.byte	0
	.byte	0
Lcst_end22:
	.p2align	2

	.section	__TEXT,__text,regular,pure_instructions
	.globl	__ZN21unicode_normalization9normalize9decompose17h7ec11d9b4c723e2dE
	.p2align	4, 0x90
__ZN21unicode_normalization9normalize9decompose17h7ec11d9b4c723e2dE:
Lfunc_begin95:
	.loc	36 74 0
	.cfi_startproc
	.cfi_personality 155, _rust_eh_personality
	.cfi_lsda 16, Lexception23
	pushq	%rbp
	.cfi_def_cfa_offset 16
	.cfi_offset %rbp, -16
	movq	%rsp, %rbp
	.cfi_def_cfa_register %rbp
	subq	$288, %rsp
	movl	%edi, -188(%rbp)
	movq	%rsi, -176(%rbp)
	movl	%edi, -100(%rbp)
Ltmp968:
	.loc	36 80 5 prologue_end
	movb	$0, -101(%rbp)
	movb	$1, -101(%rbp)
	.loc	36 80 8 is_stmt 0
	cmpl	$127, %edi
	jbe	LBB95_2
Ltmp932:
	.loc	36 0 8
	movl	-188(%rbp), %edi
	.loc	36 86 8 is_stmt 1
	callq	__ZN21unicode_normalization9normalize18is_hangul_syllable17h7b146c5444017317E
Ltmp933:
	movb	%al, -189(%rbp)
	jmp	LBB95_8
LBB95_2:
	.loc	36 0 8 is_stmt 0
	movl	-188(%rbp), %eax
	.loc	36 81 9 is_stmt 1
	movl	%eax, -164(%rbp)
	movl	-164(%rbp), %esi
Ltmp965:
	leaq	-176(%rbp), %rdi
	callq	__ZN116_$LT$unicode_normalization..decompose..Decompositions$LT$I$GT$$u20$as$u20$core..iter..traits..iterator..Iterator$GT$4next28_$u7b$$u7b$closure$u7d$$u7d$17ha830c940734063d2E
Ltmp966:
	jmp	LBB95_6
LBB95_3:
	.loc	36 100 1
	testb	$1, -101(%rbp)
	jne	LBB95_42
	jmp	LBB95_41
LBB95_4:
Ltmp967:
	.loc	36 0 1 is_stmt 0
	movq	%rax, %rcx
	movl	%edx, %eax
	movq	%rcx, -208(%rbp)
	movl	%eax, -196(%rbp)
	jmp	LBB95_5
LBB95_5:
	movq	-208(%rbp), %rcx
	movl	-196(%rbp), %eax
	movq	%rcx, -96(%rbp)
	movl	%eax, -88(%rbp)
	jmp	LBB95_3
LBB95_6:
	.loc	36 81 9 is_stmt 1
	jmp	LBB95_7
LBB95_7:
	.loc	36 100 1
	testb	$1, -101(%rbp)
	jne	LBB95_44
	jmp	LBB95_43
LBB95_8:
	.loc	36 0 1 is_stmt 0
	movb	-189(%rbp), %al
	.loc	36 86 8 is_stmt 1
	testb	$1, %al
	jne	LBB95_10
	jmp	LBB95_9
LBB95_9:
	.loc	36 0 8 is_stmt 0
	movl	-188(%rbp), %eax
Ltmp969:
	.loc	36 91 31 is_stmt 1
	movl	%eax, -140(%rbp)
	movl	-140(%rbp), %esi
Ltmp934:
	leaq	-184(%rbp), %rdi
	callq	__ZN21unicode_normalization9normalize20decompose_compatible28_$u7b$$u7b$closure$u7d$$u7d$17hc0b16623deaabf38E
Ltmp935:
	movq	%rdx, -224(%rbp)
	movq	%rax, -216(%rbp)
	jmp	LBB95_30
Ltmp970:
LBB95_10:
	.loc	36 0 31 is_stmt 0
	movl	-188(%rbp), %eax
	.loc	36 87 29 is_stmt 1
	movb	$0, -101(%rbp)
	movq	-176(%rbp), %rcx
	movq	%rcx, -56(%rbp)
	movl	%eax, -36(%rbp)
Ltmp971:
	.loc	36 141 19
	movl	%eax, %ecx
	subl	$44032, %ecx
	movl	%ecx, -228(%rbp)
	cmpl	$44032, %eax
	setb	%al
	testb	$1, %al
	jne	LBB95_12
	.loc	36 0 19 is_stmt 0
	movl	-228(%rbp), %eax
	.loc	36 141 19
	movl	%eax, -16(%rbp)
Ltmp972:
	.loc	36 142 19 is_stmt 1
	movl	$588, %ecx
	xorl	%edx, %edx
	divl	%ecx
	movl	%eax, -12(%rbp)
Ltmp973:
	.loc	36 144 44
	addl	$4352, %eax
	movl	%eax, -232(%rbp)
	setb	%al
	testb	$1, %al
	jne	LBB95_16
	jmp	LBB95_15
Ltmp974:
LBB95_12:
Ltmp962:
	.loc	36 141 19
	leaq	_str.1(%rip), %rdi
	leaq	l___unnamed_23(%rip), %rdx
	movl	$33, %esi
	callq	__ZN4core9panicking5panic17hc1bc45270cf64b03E
Ltmp963:
	jmp	LBB95_14
LBB95_13:
Ltmp964:
	.loc	36 0 19 is_stmt 0
	movq	%rax, %rcx
	movl	%edx, %eax
	movq	%rcx, -32(%rbp)
	movl	%eax, -24(%rbp)
	.loc	36 137 1 is_stmt 1
	movq	-32(%rbp), %rcx
	movl	-24(%rbp), %eax
	movq	%rcx, -208(%rbp)
	movl	%eax, -196(%rbp)
	jmp	LBB95_5
LBB95_14:
	.loc	36 0 1 is_stmt 0
	ud2
LBB95_15:
Ltmp944:
	movl	-232(%rbp), %edi
Ltmp975:
	.loc	36 144 19 is_stmt 1
	callq	__ZN4core4char18from_u32_unchecked17hf73132f735a8556bE
Ltmp945:
	movl	%eax, -236(%rbp)
	jmp	LBB95_17
LBB95_16:
Ltmp960:
	.loc	36 144 44 is_stmt 0
	leaq	_str.0(%rip), %rdi
	leaq	l___unnamed_24(%rip), %rdx
	movl	$28, %esi
	callq	__ZN4core9panicking5panic17hc1bc45270cf64b03E
Ltmp961:
	jmp	LBB95_14
LBB95_17:
	.loc	36 0 44
	movl	-236(%rbp), %eax
	.loc	36 144 9
	movl	%eax, -48(%rbp)
	movl	-48(%rbp), %esi
Ltmp946:
	leaq	-56(%rbp), %rdi
	callq	__ZN116_$LT$unicode_normalization..decompose..Decompositions$LT$I$GT$$u20$as$u20$core..iter..traits..iterator..Iterator$GT$4next28_$u7b$$u7b$closure$u7d$$u7d$17ha830c940734063d2E
Ltmp947:
	jmp	LBB95_18
LBB95_18:
	.loc	36 0 9
	movl	-228(%rbp), %eax
	.loc	36 146 23 is_stmt 1
	movl	$588, %ecx
	xorl	%edx, %edx
	divl	%ecx
	movl	%edx, %eax
	movl	$28, %ecx
	xorl	%edx, %edx
	divl	%ecx
	movl	%eax, -8(%rbp)
Ltmp976:
	.loc	36 147 44
	addl	$4449, %eax
	movl	%eax, -240(%rbp)
	setb	%al
	testb	$1, %al
	jne	LBB95_20
Ltmp948:
	.loc	36 0 44 is_stmt 0
	movl	-240(%rbp), %edi
	.loc	36 147 19
	callq	__ZN4core4char18from_u32_unchecked17hf73132f735a8556bE
Ltmp949:
	movl	%eax, -244(%rbp)
	jmp	LBB95_21
LBB95_20:
Ltmp958:
	.loc	36 147 44
	leaq	_str.0(%rip), %rdi
	leaq	l___unnamed_25(%rip), %rdx
	movl	$28, %esi
	callq	__ZN4core9panicking5panic17hc1bc45270cf64b03E
Ltmp959:
	jmp	LBB95_14
LBB95_21:
	.loc	36 0 44
	movl	-244(%rbp), %eax
	.loc	36 147 9
	movl	%eax, -44(%rbp)
	movl	-44(%rbp), %esi
Ltmp950:
	leaq	-56(%rbp), %rdi
	callq	__ZN116_$LT$unicode_normalization..decompose..Decompositions$LT$I$GT$$u20$as$u20$core..iter..traits..iterator..Iterator$GT$4next28_$u7b$$u7b$closure$u7d$$u7d$17ha830c940734063d2E
Ltmp951:
	jmp	LBB95_22
LBB95_22:
	.loc	36 0 9
	movl	-228(%rbp), %eax
	.loc	36 149 23 is_stmt 1
	movl	$28, %ecx
	xorl	%edx, %edx
	divl	%ecx
	movl	%edx, -248(%rbp)
	movl	%edx, -4(%rbp)
Ltmp977:
	.loc	36 150 12
	cmpl	$0, %edx
	jbe	LBB95_28
	.loc	36 0 12 is_stmt 0
	movl	-248(%rbp), %eax
	.loc	36 151 48 is_stmt 1
	addl	$4519, %eax
	movl	%eax, -252(%rbp)
	setb	%al
	testb	$1, %al
	jne	LBB95_25
Ltmp952:
	.loc	36 0 48 is_stmt 0
	movl	-252(%rbp), %edi
	.loc	36 151 23
	callq	__ZN4core4char18from_u32_unchecked17hf73132f735a8556bE
Ltmp953:
	movl	%eax, -256(%rbp)
	jmp	LBB95_26
LBB95_25:
Ltmp956:
	.loc	36 151 48
	leaq	_str.0(%rip), %rdi
	leaq	l___unnamed_26(%rip), %rdx
	movl	$28, %esi
	callq	__ZN4core9panicking5panic17hc1bc45270cf64b03E
Ltmp957:
	jmp	LBB95_14
LBB95_26:
	.loc	36 0 48
	movl	-256(%rbp), %eax
	.loc	36 151 13
	movl	%eax, -40(%rbp)
	movl	-40(%rbp), %esi
Ltmp954:
	leaq	-56(%rbp), %rdi
	callq	__ZN116_$LT$unicode_normalization..decompose..Decompositions$LT$I$GT$$u20$as$u20$core..iter..traits..iterator..Iterator$GT$4next28_$u7b$$u7b$closure$u7d$$u7d$17ha830c940734063d2E
Ltmp955:
	jmp	LBB95_27
LBB95_27:
	jmp	LBB95_28
Ltmp978:
LBB95_28:
	.loc	36 154 2 is_stmt 1
	jmp	LBB95_29
Ltmp979:
LBB95_29:
	.loc	36 87 9
	jmp	LBB95_7
LBB95_30:
	.loc	36 0 9 is_stmt 0
	movq	-224(%rbp), %rax
	movq	-216(%rbp), %rcx
Ltmp980:
	.loc	36 91 31 is_stmt 1
	movq	%rcx, -160(%rbp)
	movq	%rax, -152(%rbp)
	.loc	36 91 12 is_stmt 0
	movq	-160(%rbp), %rdx
	movl	$1, %eax
	xorl	%ecx, %ecx
	cmpq	$0, %rdx
	cmoveq	%rcx, %rax
	cmpq	$1, %rax
	jne	LBB95_32
	.loc	36 91 17
	movq	-160(%rbp), %rdi
	movq	-152(%rbp), %rsi
	movq	%rdi, -80(%rbp)
	movq	%rsi, -72(%rbp)
Ltmp938:
	.loc	36 92 19 is_stmt 1
	callq	__ZN4core5slice4iter87_$LT$impl$u20$core..iter..traits..collect..IntoIterator$u20$for$u20$$RF$$u5b$T$u5d$$GT$9into_iter17hef3fd3bd4e1564bcE
Ltmp939:
	movq	%rdx, -272(%rbp)
	movq	%rax, -264(%rbp)
	jmp	LBB95_36
Ltmp981:
LBB95_32:
	.loc	36 0 19 is_stmt 0
	movl	-188(%rbp), %eax
	.loc	36 99 5 is_stmt 1
	movl	%eax, -108(%rbp)
	movl	-108(%rbp), %esi
Ltmp936:
	leaq	-176(%rbp), %rdi
	callq	__ZN116_$LT$unicode_normalization..decompose..Decompositions$LT$I$GT$$u20$as$u20$core..iter..traits..iterator..Iterator$GT$4next28_$u7b$$u7b$closure$u7d$$u7d$17ha830c940734063d2E
Ltmp937:
	jmp	LBB95_33
LBB95_33:
	.loc	36 100 1
	jmp	LBB95_34
LBB95_34:
	jmp	LBB95_35
LBB95_35:
	.loc	36 100 2 is_stmt 0
	addq	$288, %rsp
	popq	%rbp
	retq
LBB95_36:
	.loc	36 0 2
	movq	-272(%rbp), %rax
	movq	-264(%rbp), %rcx
Ltmp982:
	.loc	36 92 19 is_stmt 1
	movq	%rcx, -136(%rbp)
	movq	%rax, -128(%rbp)
LBB95_37:
Ltmp940:
	.loc	36 0 19 is_stmt 0
	leaq	-136(%rbp), %rdi
Ltmp983:
	.loc	36 92 19
	callq	__ZN91_$LT$core..slice..iter..Iter$LT$T$GT$$u20$as$u20$core..iter..traits..iterator..Iterator$GT$4next17ha44e1ded901c3b84E
Ltmp941:
	movq	%rax, -280(%rbp)
	jmp	LBB95_38
LBB95_38:
	.loc	36 0 19
	movq	-280(%rbp), %rax
	.loc	36 92 19
	movq	%rax, -120(%rbp)
	movq	-120(%rbp), %rdx
	movl	$1, %eax
	xorl	%ecx, %ecx
	cmpq	$0, %rdx
	cmoveq	%rcx, %rax
	cmpq	$0, %rax
	je	LBB95_7
	.loc	36 92 14
	movq	-120(%rbp), %rax
	movl	(%rax), %eax
	movl	%eax, -60(%rbp)
Ltmp984:
	.loc	36 93 13 is_stmt 1
	movl	%eax, -112(%rbp)
	movl	-112(%rbp), %esi
Ltmp942:
	leaq	-176(%rbp), %rdi
	callq	__ZN116_$LT$unicode_normalization..decompose..Decompositions$LT$I$GT$$u20$as$u20$core..iter..traits..iterator..Iterator$GT$4next28_$u7b$$u7b$closure$u7d$$u7d$17ha830c940734063d2E
Ltmp943:
	jmp	LBB95_40
LBB95_40:
	jmp	LBB95_37
Ltmp985:
LBB95_41:
	.loc	36 74 1
	movq	-96(%rbp), %rdi
	callq	__Unwind_Resume
LBB95_42:
	.loc	36 100 1
	jmp	LBB95_41
LBB95_43:
	jmp	LBB95_35
LBB95_44:
	jmp	LBB95_43
Ltmp986:
Lfunc_end95:
	.cfi_endproc
	.section	__TEXT,__gcc_except_tab
	.p2align	2
GCC_except_table95:
Lexception23:
	.byte	255
	.byte	255
	.byte	1
	.uleb128 Lcst_end23-Lcst_begin23
Lcst_begin23:
	.uleb128 Ltmp932-Lfunc_begin95
	.uleb128 Ltmp935-Ltmp932
	.uleb128 Ltmp967-Lfunc_begin95
	.byte	0
	.uleb128 Ltmp962-Lfunc_begin95
	.uleb128 Ltmp955-Ltmp962
	.uleb128 Ltmp964-Lfunc_begin95
	.byte	0
	.uleb128 Ltmp938-Lfunc_begin95
	.uleb128 Ltmp943-Ltmp938
	.uleb128 Ltmp967-Lfunc_begin95
	.byte	0
	.uleb128 Ltmp943-Lfunc_begin95
	.uleb128 Lfunc_end95-Ltmp943
	.byte	0
	.byte	0
Lcst_end23:
	.p2align	2

	.section	__TEXT,__text,regular,pure_instructions
	.globl	__ZN21unicode_normalization9normalize9decompose17ha6a6430a0f8f46f3E
	.p2align	4, 0x90
__ZN21unicode_normalization9normalize9decompose17ha6a6430a0f8f46f3E:
Lfunc_begin96:
	.loc	36 74 0
	.cfi_startproc
	.cfi_personality 155, _rust_eh_personality
	.cfi_lsda 16, Lexception24
	pushq	%rbp
	.cfi_def_cfa_offset 16
	.cfi_offset %rbp, -16
	movq	%rsp, %rbp
	.cfi_def_cfa_register %rbp
	subq	$288, %rsp
	movl	%edi, -188(%rbp)
	movq	%rsi, -176(%rbp)
	movl	%edi, -100(%rbp)
Ltmp1023:
	.loc	36 80 5 prologue_end
	movb	$0, -101(%rbp)
	movb	$1, -101(%rbp)
	.loc	36 80 8 is_stmt 0
	cmpl	$127, %edi
	jbe	LBB96_2
Ltmp987:
	.loc	36 0 8
	movl	-188(%rbp), %edi
	.loc	36 86 8 is_stmt 1
	callq	__ZN21unicode_normalization9normalize18is_hangul_syllable17h7b146c5444017317E
Ltmp988:
	movb	%al, -189(%rbp)
	jmp	LBB96_8
LBB96_2:
	.loc	36 0 8 is_stmt 0
	movl	-188(%rbp), %eax
	.loc	36 81 9 is_stmt 1
	movl	%eax, -164(%rbp)
	movl	-164(%rbp), %esi
Ltmp1020:
	leaq	-176(%rbp), %rdi
	callq	__ZN116_$LT$unicode_normalization..decompose..Decompositions$LT$I$GT$$u20$as$u20$core..iter..traits..iterator..Iterator$GT$4next28_$u7b$$u7b$closure$u7d$$u7d$17h0cd9c58dd22fded7E
Ltmp1021:
	jmp	LBB96_6
LBB96_3:
	.loc	36 100 1
	testb	$1, -101(%rbp)
	jne	LBB96_42
	jmp	LBB96_41
LBB96_4:
Ltmp1022:
	.loc	36 0 1 is_stmt 0
	movq	%rax, %rcx
	movl	%edx, %eax
	movq	%rcx, -208(%rbp)
	movl	%eax, -196(%rbp)
	jmp	LBB96_5
LBB96_5:
	movq	-208(%rbp), %rcx
	movl	-196(%rbp), %eax
	movq	%rcx, -96(%rbp)
	movl	%eax, -88(%rbp)
	jmp	LBB96_3
LBB96_6:
	.loc	36 81 9 is_stmt 1
	jmp	LBB96_7
LBB96_7:
	.loc	36 100 1
	testb	$1, -101(%rbp)
	jne	LBB96_44
	jmp	LBB96_43
LBB96_8:
	.loc	36 0 1 is_stmt 0
	movb	-189(%rbp), %al
	.loc	36 86 8 is_stmt 1
	testb	$1, %al
	jne	LBB96_10
	jmp	LBB96_9
LBB96_9:
	.loc	36 0 8 is_stmt 0
	movl	-188(%rbp), %eax
Ltmp1024:
	.loc	36 91 31 is_stmt 1
	movl	%eax, -140(%rbp)
	movl	-140(%rbp), %esi
Ltmp989:
	leaq	-184(%rbp), %rdi
	callq	__ZN4core3ops8function2Fn4call17hf8bbb0ad15e8676eE
Ltmp990:
	movq	%rdx, -224(%rbp)
	movq	%rax, -216(%rbp)
	jmp	LBB96_30
Ltmp1025:
LBB96_10:
	.loc	36 0 31 is_stmt 0
	movl	-188(%rbp), %eax
	.loc	36 87 29 is_stmt 1
	movb	$0, -101(%rbp)
	movq	-176(%rbp), %rcx
	movq	%rcx, -56(%rbp)
	movl	%eax, -36(%rbp)
Ltmp1026:
	.loc	36 141 19
	movl	%eax, %ecx
	subl	$44032, %ecx
	movl	%ecx, -228(%rbp)
	cmpl	$44032, %eax
	setb	%al
	testb	$1, %al
	jne	LBB96_12
	.loc	36 0 19 is_stmt 0
	movl	-228(%rbp), %eax
	.loc	36 141 19
	movl	%eax, -16(%rbp)
Ltmp1027:
	.loc	36 142 19 is_stmt 1
	movl	$588, %ecx
	xorl	%edx, %edx
	divl	%ecx
	movl	%eax, -12(%rbp)
Ltmp1028:
	.loc	36 144 44
	addl	$4352, %eax
	movl	%eax, -232(%rbp)
	setb	%al
	testb	$1, %al
	jne	LBB96_16
	jmp	LBB96_15
Ltmp1029:
LBB96_12:
Ltmp1017:
	.loc	36 141 19
	leaq	_str.1(%rip), %rdi
	leaq	l___unnamed_23(%rip), %rdx
	movl	$33, %esi
	callq	__ZN4core9panicking5panic17hc1bc45270cf64b03E
Ltmp1018:
	jmp	LBB96_14
LBB96_13:
Ltmp1019:
	.loc	36 0 19 is_stmt 0
	movq	%rax, %rcx
	movl	%edx, %eax
	movq	%rcx, -32(%rbp)
	movl	%eax, -24(%rbp)
	.loc	36 137 1 is_stmt 1
	movq	-32(%rbp), %rcx
	movl	-24(%rbp), %eax
	movq	%rcx, -208(%rbp)
	movl	%eax, -196(%rbp)
	jmp	LBB96_5
LBB96_14:
	.loc	36 0 1 is_stmt 0
	ud2
LBB96_15:
Ltmp999:
	movl	-232(%rbp), %edi
Ltmp1030:
	.loc	36 144 19 is_stmt 1
	callq	__ZN4core4char18from_u32_unchecked17hf73132f735a8556bE
Ltmp1000:
	movl	%eax, -236(%rbp)
	jmp	LBB96_17
LBB96_16:
Ltmp1015:
	.loc	36 144 44 is_stmt 0
	leaq	_str.0(%rip), %rdi
	leaq	l___unnamed_24(%rip), %rdx
	movl	$28, %esi
	callq	__ZN4core9panicking5panic17hc1bc45270cf64b03E
Ltmp1016:
	jmp	LBB96_14
LBB96_17:
	.loc	36 0 44
	movl	-236(%rbp), %eax
	.loc	36 144 9
	movl	%eax, -48(%rbp)
	movl	-48(%rbp), %esi
Ltmp1001:
	leaq	-56(%rbp), %rdi
	callq	__ZN116_$LT$unicode_normalization..decompose..Decompositions$LT$I$GT$$u20$as$u20$core..iter..traits..iterator..Iterator$GT$4next28_$u7b$$u7b$closure$u7d$$u7d$17h0cd9c58dd22fded7E
Ltmp1002:
	jmp	LBB96_18
LBB96_18:
	.loc	36 0 9
	movl	-228(%rbp), %eax
	.loc	36 146 23 is_stmt 1
	movl	$588, %ecx
	xorl	%edx, %edx
	divl	%ecx
	movl	%edx, %eax
	movl	$28, %ecx
	xorl	%edx, %edx
	divl	%ecx
	movl	%eax, -8(%rbp)
Ltmp1031:
	.loc	36 147 44
	addl	$4449, %eax
	movl	%eax, -240(%rbp)
	setb	%al
	testb	$1, %al
	jne	LBB96_20
Ltmp1003:
	.loc	36 0 44 is_stmt 0
	movl	-240(%rbp), %edi
	.loc	36 147 19
	callq	__ZN4core4char18from_u32_unchecked17hf73132f735a8556bE
Ltmp1004:
	movl	%eax, -244(%rbp)
	jmp	LBB96_21
LBB96_20:
Ltmp1013:
	.loc	36 147 44
	leaq	_str.0(%rip), %rdi
	leaq	l___unnamed_25(%rip), %rdx
	movl	$28, %esi
	callq	__ZN4core9panicking5panic17hc1bc45270cf64b03E
Ltmp1014:
	jmp	LBB96_14
LBB96_21:
	.loc	36 0 44
	movl	-244(%rbp), %eax
	.loc	36 147 9
	movl	%eax, -44(%rbp)
	movl	-44(%rbp), %esi
Ltmp1005:
	leaq	-56(%rbp), %rdi
	callq	__ZN116_$LT$unicode_normalization..decompose..Decompositions$LT$I$GT$$u20$as$u20$core..iter..traits..iterator..Iterator$GT$4next28_$u7b$$u7b$closure$u7d$$u7d$17h0cd9c58dd22fded7E
Ltmp1006:
	jmp	LBB96_22
LBB96_22:
	.loc	36 0 9
	movl	-228(%rbp), %eax
	.loc	36 149 23 is_stmt 1
	movl	$28, %ecx
	xorl	%edx, %edx
	divl	%ecx
	movl	%edx, -248(%rbp)
	movl	%edx, -4(%rbp)
Ltmp1032:
	.loc	36 150 12
	cmpl	$0, %edx
	jbe	LBB96_28
	.loc	36 0 12 is_stmt 0
	movl	-248(%rbp), %eax
	.loc	36 151 48 is_stmt 1
	addl	$4519, %eax
	movl	%eax, -252(%rbp)
	setb	%al
	testb	$1, %al
	jne	LBB96_25
Ltmp1007:
	.loc	36 0 48 is_stmt 0
	movl	-252(%rbp), %edi
	.loc	36 151 23
	callq	__ZN4core4char18from_u32_unchecked17hf73132f735a8556bE
Ltmp1008:
	movl	%eax, -256(%rbp)
	jmp	LBB96_26
LBB96_25:
Ltmp1011:
	.loc	36 151 48
	leaq	_str.0(%rip), %rdi
	leaq	l___unnamed_26(%rip), %rdx
	movl	$28, %esi
	callq	__ZN4core9panicking5panic17hc1bc45270cf64b03E
Ltmp1012:
	jmp	LBB96_14
LBB96_26:
	.loc	36 0 48
	movl	-256(%rbp), %eax
	.loc	36 151 13
	movl	%eax, -40(%rbp)
	movl	-40(%rbp), %esi
Ltmp1009:
	leaq	-56(%rbp), %rdi
	callq	__ZN116_$LT$unicode_normalization..decompose..Decompositions$LT$I$GT$$u20$as$u20$core..iter..traits..iterator..Iterator$GT$4next28_$u7b$$u7b$closure$u7d$$u7d$17h0cd9c58dd22fded7E
Ltmp1010:
	jmp	LBB96_27
LBB96_27:
	jmp	LBB96_28
Ltmp1033:
LBB96_28:
	.loc	36 154 2 is_stmt 1
	jmp	LBB96_29
Ltmp1034:
LBB96_29:
	.loc	36 87 9
	jmp	LBB96_7
LBB96_30:
	.loc	36 0 9 is_stmt 0
	movq	-224(%rbp), %rax
	movq	-216(%rbp), %rcx
Ltmp1035:
	.loc	36 91 31 is_stmt 1
	movq	%rcx, -160(%rbp)
	movq	%rax, -152(%rbp)
	.loc	36 91 12 is_stmt 0
	movq	-160(%rbp), %rdx
	movl	$1, %eax
	xorl	%ecx, %ecx
	cmpq	$0, %rdx
	cmoveq	%rcx, %rax
	cmpq	$1, %rax
	jne	LBB96_32
	.loc	36 91 17
	movq	-160(%rbp), %rdi
	movq	-152(%rbp), %rsi
	movq	%rdi, -80(%rbp)
	movq	%rsi, -72(%rbp)
Ltmp993:
	.loc	36 92 19 is_stmt 1
	callq	__ZN4core5slice4iter87_$LT$impl$u20$core..iter..traits..collect..IntoIterator$u20$for$u20$$RF$$u5b$T$u5d$$GT$9into_iter17hef3fd3bd4e1564bcE
Ltmp994:
	movq	%rdx, -272(%rbp)
