	.section	__TEXT,__text,regular,pure_instructions
	.macosx_version_min 10, 7
	.p2align	4, 0x90
__ZN4core3ptr47drop_in_place$LT$std..time..SystemTimeError$GT$17hb89842272edba818E:
Lfunc_begin0:
	.file	1 "/rustc/2c8cc343237b8f7d5a3c3703e3a87f2eb2c54a74/library/core/src/ptr" "mod.rs"
	.loc	1 490 0
	.cfi_startproc
	pushq	%rbp
	.cfi_def_cfa_offset 16
	.cfi_offset %rbp, -16
	movq	%rsp, %rbp
	.cfi_def_cfa_register %rbp
	pushq	%rax
	movq	%rdi, -8(%rbp)
Ltmp0:
	.loc	1 490 1 prologue_end
	addq	$8, %rsp
	popq	%rbp
	retq
Ltmp1:
Lfunc_end0:
	.cfi_endproc

	.section	__TEXT,__literal8,8byte_literals
	.p2align	3
LCPI1_0:
	.quad	0x41cdcd6500000000
	.section	__TEXT,__literal16,16byte_literals
	.p2align	4
LCPI1_1:
	.long	1127219200
	.long	1160773632
	.long	0
	.long	0
LCPI1_2:
	.quad	0x4330000000000000
	.quad	0x4530000000000000
	.section	__TEXT,__text,regular,pure_instructions
	.p2align	4, 0x90
__ZN4core4time8Duration11as_secs_f6417h0eaab7a09dc95ff2E:
Lfunc_begin1:
	.file	2 "/rustc/2c8cc343237b8f7d5a3c3703e3a87f2eb2c54a74/library/core/src" "time.rs"
	.loc	2 685 0
	.cfi_startproc
	pushq	%rbp
	.cfi_def_cfa_offset 16
	.cfi_offset %rbp, -16
	movq	%rsp, %rbp
	.cfi_def_cfa_register %rbp
	pushq	%rax
	movq	%rdi, -8(%rbp)
Ltmp2:
	.loc	2 686 9 prologue_end
	movq	(%rdi), %xmm0
	movaps	LCPI1_1(%rip), %xmm1
	punpckldq	%xmm1, %xmm0
	movapd	LCPI1_2(%rip), %xmm1
	subpd	%xmm1, %xmm0
	movaps	%xmm0, %xmm1
	unpckhpd	%xmm0, %xmm0
	addsd	%xmm1, %xmm0
	.loc	2 686 31 is_stmt 0
	movl	8(%rdi), %eax
	.loc	2 686 30
	cvtsi2sd	%rax, %xmm1
	movsd	LCPI1_0(%rip), %xmm2
	divsd	%xmm2, %xmm1
	.loc	2 686 9
	addsd	%xmm1, %xmm0
	.loc	2 687 6 is_stmt 1
	addq	$8, %rsp
	popq	%rbp
	retq
Ltmp3:
Lfunc_end1:
	.cfi_endproc

	.globl	__ZN4core6result19Result$LT$T$C$E$GT$6expect17h0a1940d179a417b6E
	.p2align	4, 0x90
__ZN4core6result19Result$LT$T$C$E$GT$6expect17h0a1940d179a417b6E:
Lfunc_begin2:
	.file	3 "/rustc/2c8cc343237b8f7d5a3c3703e3a87f2eb2c54a74/library/core/src" "result.rs"
	.loc	3 1063 0
	.cfi_startproc
	.cfi_personality 155, _rust_eh_personality
	.cfi_lsda 16, Lexception0
	pushq	%rbp
	.cfi_def_cfa_offset 16
	.cfi_offset %rbp, -16
	movq	%rsp, %rbp
	.cfi_def_cfa_register %rbp
	subq	$96, %rsp
	movq	%rdi, -96(%rbp)
Ltmp7:
	movq	%rsi, -88(%rbp)
	movq	%rdx, -80(%rbp)
	movq	%rcx, -72(%rbp)
Ltmp8:
	movq	%rsi, -48(%rbp)
	movq	%rdx, -40(%rbp)
Ltmp9:
	.loc	3 1067 9 prologue_end
	cmpq	$0, (%rdi)
Ltmp10:
	jne	LBB2_2
Ltmp11:
	.loc	3 0 9 is_stmt 0
	movq	-96(%rbp), %rcx
	.loc	3 1068 16 is_stmt 1
	movq	8(%rcx), %rax
	movl	16(%rcx), %edx
	movq	%rax, -16(%rbp)
	movl	%edx, -8(%rbp)
	.loc	3 1071 6
	addq	$96, %rsp
	popq	%rbp
	retq
Ltmp12:
LBB2_2:
	.loc	3 0 6 is_stmt 0
	movq	-72(%rbp), %r8
	movq	-80(%rbp), %rsi
	movq	-88(%rbp), %rdi
	movq	-96(%rbp), %rax
	.loc	3 1069 17 is_stmt 1
	movq	8(%rax), %rcx
	movl	16(%rax), %eax
	movq	%rcx, -64(%rbp)
	movl	%eax, -56(%rbp)
Ltmp4:
Ltmp13:
	.loc	3 1069 23 is_stmt 0
	leaq	l___unnamed_1(%rip), %rcx
	leaq	-64(%rbp), %rdx
	callq	__ZN4core6result13unwrap_failed17h533573e6d3b6061cE
Ltmp5:
	jmp	LBB2_5
Ltmp14:
LBB2_3:
	.loc	3 1063 5 is_stmt 1
	movq	-32(%rbp), %rdi
	callq	__Unwind_Resume
Ltmp15:
LBB2_4:
Ltmp6:
	.loc	3 0 5 is_stmt 0
	movq	%rax, %rcx
	movl	%edx, %eax
	movq	%rcx, -32(%rbp)
	movl	%eax, -24(%rbp)
	jmp	LBB2_3
Ltmp16:
LBB2_5:
	ud2
Lfunc_end2:
	.cfi_endproc
	.section	__TEXT,__gcc_except_tab
	.p2align	2
GCC_except_table2:
Lexception0:
	.byte	255
	.byte	255
	.byte	1
	.uleb128 Lcst_end0-Lcst_begin0
Lcst_begin0:
	.uleb128 Ltmp4-Lfunc_begin2
	.uleb128 Ltmp5-Ltmp4
	.uleb128 Ltmp6-Lfunc_begin2
	.byte	0
	.uleb128 Ltmp5-Lfunc_begin2
	.uleb128 Lfunc_end2-Ltmp5
	.byte	0
	.byte	0
Lcst_end0:
	.p2align	2

	.section	__TEXT,__literal8,8byte_literals
	.p2align	3
LCPI3_0:
	.quad	0x408f400000000000
	.section	__TEXT,__text,regular,pure_instructions
	.globl	__ZN7instant6native3now17ha924758cc5a33603E
	.p2align	4, 0x90
__ZN7instant6native3now17ha924758cc5a33603E:
Lfunc_begin3:
	.file	4 "/Users/natalie/.cargo/registry/src/github.com-1ecc6299db9ec823/instant-0.1.12" "src/native.rs"
	.loc	4 5 0 is_stmt 1
	.cfi_startproc
	pushq	%rbp
	.cfi_def_cfa_offset 16
	.cfi_offset %rbp, -16
	movq	%rsp, %rbp
	.cfi_def_cfa_register %rbp
	subq	$64, %rsp
Ltmp17:
	.loc	4 6 5 prologue_end
	callq	__ZN3std4time10SystemTime3now17h6efaf48ba5163e9dE
	movl	%edx, -8(%rbp)
	movq	%rax, -16(%rbp)
	movq	L___unnamed_2(%rip), %rdx
	movl	L___unnamed_2+8(%rip), %ecx
	leaq	-40(%rbp), %rdi
	movq	%rdi, -64(%rbp)
	leaq	-16(%rbp), %rsi
	callq	__ZN3std4time10SystemTime14duration_since17h6f551fea0032cd02E
	movq	-64(%rbp), %rdi
	leaq	l___unnamed_3(%rip), %rsi
	leaq	l___unnamed_4(%rip), %rcx
	movl	$29, %edx
	callq	__ZN4core6result19Result$LT$T$C$E$GT$6expect17h0a1940d179a417b6E
	movl	%edx, -48(%rbp)
	movq	%rax, -56(%rbp)
	leaq	-56(%rbp), %rdi
	callq	__ZN4core4time8Duration11as_secs_f6417h0eaab7a09dc95ff2E
	movsd	LCPI3_0(%rip), %xmm1
	mulsd	%xmm1, %xmm0
	.loc	4 9 2
	addq	$64, %rsp
	popq	%rbp
	retq
Ltmp18:
Lfunc_end3:
	.cfi_endproc

	.section	__DATA,__const
	.p2align	3
l___unnamed_1:
	.quad	__ZN4core3ptr47drop_in_place$LT$std..time..SystemTimeError$GT$17hb89842272edba818E
	.asciz	"\020\000\000\000\000\000\000\000\b\000\000\000\000\000\000"
	.quad	__ZN63_$LT$std..time..SystemTimeError$u20$as$u20$core..fmt..Debug$GT$3fmt17h1b82e95da15e6aecE

	.section	__TEXT,__literal16,16byte_literals
	.p2align	3
L___unnamed_2:
	.space	12
	.space	4

	.section	__TEXT,__const
l___unnamed_3:
	.ascii	"System clock was before 1970."

l___unnamed_5:
	.ascii	"/Users/natalie/.cargo/registry/src/github.com-1ecc6299db9ec823/instant-0.1.12/src/native.rs"

	.section	__DATA,__const
	.p2align	3
l___unnamed_4:
	.quad	l___unnamed_5
	.asciz	"[\000\000\000\000\000\000\000\007\000\000\000\"\000\000"

	.section	__DATA,__const
Lsec_end0:
	.section	__TEXT,__text,regular,pure_instructions
Lsec_end1: