	.section	__TEXT,__text,regular,pure_instructions
	.macosx_version_min 10, 7
	.p2align	4, 0x90
__ZN4core3f3221_$LT$impl$u20$f32$GT$7to_bits17h1f14dde3afd612baE:
Lfunc_begin0:
	.file	1 "/rustc/2c8cc343237b8f7d5a3c3703e3a87f2eb2c54a74/library/core/src/num" "f32.rs"
	.loc	1 998 0
	.cfi_startproc
	pushq	%rbp
	.cfi_def_cfa_offset 16
	.cfi_offset %rbp, -16
	movq	%rsp, %rbp
	.cfi_def_cfa_register %rbp
	subq	$16, %rsp
	movss	%xmm0, -12(%rbp)
Ltmp0:
	.loc	1 1045 48 prologue_end
	movss	%xmm0, -16(%rbp)
	.loc	1 1045 18 is_stmt 0
	movss	-16(%rbp), %xmm0
	movss	%xmm0, -8(%rbp)
Ltmp1:
	.loc	1 1042 22 is_stmt 1
	movd	%xmm0, %eax
	movl	%eax, -4(%rbp)
	movl	-4(%rbp), %eax
Ltmp2:
	.loc	1 1046 6
	addq	$16, %rsp
	popq	%rbp
	retq
Ltmp3:
Lfunc_end0:
	.cfi_endproc

	.p2align	4, 0x90
__ZN4core3f3221_$LT$impl$u20$f32$GT$9from_bits17h3aaa4a6f76e45005E:
Lfunc_begin1:
	.loc	1 1088 0
	.cfi_startproc
	pushq	%rbp
	.cfi_def_cfa_offset 16
	.cfi_offset %rbp, -16
	movq	%rsp, %rbp
	.cfi_def_cfa_register %rbp
	subq	$16, %rsp
	movl	%edi, -12(%rbp)
Ltmp4:
	.loc	1 1137 48 prologue_end
	movl	%edi, -16(%rbp)
	.loc	1 1137 18 is_stmt 0
	movl	-16(%rbp), %eax
	movl	%eax, -8(%rbp)
Ltmp5:
	.loc	1 1134 22 is_stmt 1
	movd	%eax, %xmm0
	movss	%xmm0, -4(%rbp)
	movss	-4(%rbp), %xmm0
Ltmp6:
	.loc	1 1138 6
	addq	$16, %rsp
	popq	%rbp
	retq
Ltmp7:
Lfunc_end1:
	.cfi_endproc

	.p2align	4, 0x90
__ZN4core3f6421_$LT$impl$u20$f64$GT$7to_bits17h848eec458eae7554E:
Lfunc_begin2:
	.file	2 "/rustc/2c8cc343237b8f7d5a3c3703e3a87f2eb2c54a74/library/core/src/num" "f64.rs"
	.loc	2 1009 0
	.cfi_startproc
	pushq	%rbp
	.cfi_def_cfa_offset 16
	.cfi_offset %rbp, -16
	movq	%rsp, %rbp
	.cfi_def_cfa_register %rbp
	subq	$32, %rsp
	movsd	%xmm0, -24(%rbp)
Ltmp8:
	.loc	2 1038 48 prologue_end
	movsd	%xmm0, -32(%rbp)
	.loc	2 1038 18 is_stmt 0
	movsd	-32(%rbp), %xmm0
	movsd	%xmm0, -16(%rbp)
Ltmp9:
	.loc	2 1035 22 is_stmt 1
	movq	%xmm0, %rax
	movq	%rax, -8(%rbp)
	movq	-8(%rbp), %rax
Ltmp10:
	.loc	2 1039 6
	addq	$32, %rsp
	popq	%rbp
	retq
Ltmp11:
Lfunc_end2:
	.cfi_endproc

	.p2align	4, 0x90
__ZN4core3f6421_$LT$impl$u20$f64$GT$9from_bits17h6a4ebc4cf0707891E:
Lfunc_begin3:
	.loc	2 1081 0
	.cfi_startproc
	pushq	%rbp
	.cfi_def_cfa_offset 16
	.cfi_offset %rbp, -16
	movq	%rsp, %rbp
	.cfi_def_cfa_register %rbp
	subq	$32, %rsp
	movq	%rdi, -24(%rbp)
Ltmp12:
	.loc	2 1135 48 prologue_end
	movq	%rdi, -32(%rbp)
	.loc	2 1135 18 is_stmt 0
	movq	-32(%rbp), %rax
	movq	%rax, -16(%rbp)
Ltmp13:
	.loc	2 1132 22 is_stmt 1
	movq	%rax, %xmm0
	movsd	%xmm0, -8(%rbp)
	movsd	-8(%rbp), %xmm0
Ltmp14:
	.loc	2 1136 6
	addq	$32, %rsp
	popq	%rbp
	retq
Ltmp15:
Lfunc_end3:
	.cfi_endproc

	.globl	__ZN4core5slice29_$LT$impl$u20$$u5b$T$u5d$$GT$8iter_mut17h1198902d8d6c8a60E
	.p2align	4, 0x90
__ZN4core5slice29_$LT$impl$u20$$u5b$T$u5d$$GT$8iter_mut17h1198902d8d6c8a60E:
Lfunc_begin4:
	.file	3 "/rustc/2c8cc343237b8f7d5a3c3703e3a87f2eb2c54a74/library/core/src/slice" "mod.rs"
	.loc	3 760 0
	.cfi_startproc
	pushq	%rbp
	.cfi_def_cfa_offset 16
	.cfi_offset %rbp, -16
	movq	%rsp, %rbp
	.cfi_def_cfa_register %rbp
	subq	$16, %rsp
	movq	%rdi, -16(%rbp)
	movq	%rsi, -8(%rbp)
Ltmp16:
	.loc	3 761 9 prologue_end
	callq	__ZN4core5slice4iter16IterMut$LT$T$GT$3new17h458f4858db2beff6E
	.loc	3 762 6
	addq	$16, %rsp
	popq	%rbp
	retq
Ltmp17:
Lfunc_end4:
	.cfi_endproc

	.globl	__ZN4core5slice29_$LT$impl$u20$$u5b$T$u5d$$GT$8iter_mut17h3069394d7032fa58E
	.p2align	4, 0x90
__ZN4core5slice29_$LT$impl$u20$$u5b$T$u5d$$GT$8iter_mut17h3069394d7032fa58E:
Lfunc_begin5:
	.loc	3 760 0
	.cfi_startproc
	pushq	%rbp
	.cfi_def_cfa_offset 16
	.cfi_offset %rbp, -16
	movq	%rsp, %rbp
	.cfi_def_cfa_register %rbp
	subq	$16, %rsp
	movq	%rdi, -16(%rbp)
	movq	%rsi, -8(%rbp)
Ltmp18:
	.loc	3 761 9 prologue_end
	callq	__ZN4core5slice4iter16IterMut$LT$T$GT$3new17hd20c5d8ec7a77ff0E
	.loc	3 762 6
	addq	$16, %rsp
	popq	%rbp
	retq
Ltmp19:
Lfunc_end5:
	.cfi_endproc

	.globl	__ZN4core5slice29_$LT$impl$u20$$u5b$T$u5d$$GT$8iter_mut17h3b1682901dfde5a1E
	.p2align	4, 0x90
__ZN4core5slice29_$LT$impl$u20$$u5b$T$u5d$$GT$8iter_mut17h3b1682901dfde5a1E:
Lfunc_begin6:
	.loc	3 760 0
	.cfi_startproc
	pushq	%rbp
	.cfi_def_cfa_offset 16
	.cfi_offset %rbp, -16
	movq	%rsp, %rbp
	.cfi_def_cfa_register %rbp
	subq	$16, %rsp
	movq	%rdi, -16(%rbp)
	movq	%rsi, -8(%rbp)
Ltmp20:
	.loc	3 761 9 prologue_end
	callq	__ZN4core5slice4iter16IterMut$LT$T$GT$3new17h10c21374e2ee54a9E
	.loc	3 762 6
	addq	$16, %rsp
	popq	%rbp
	retq
Ltmp21:
Lfunc_end6:
	.cfi_endproc

	.globl	__ZN4core5slice29_$LT$impl$u20$$u5b$T$u5d$$GT$8iter_mut17h4a68ad81202234e0E
	.p2align	4, 0x90
__ZN4core5slice29_$LT$impl$u20$$u5b$T$u5d$$GT$8iter_mut17h4a68ad81202234e0E:
Lfunc_begin7:
	.loc	3 760 0
	.cfi_startproc
	pushq	%rbp
	.cfi_def_cfa_offset 16
	.cfi_offset %rbp, -16
	movq	%rsp, %rbp
	.cfi_def_cfa_register %rbp
	subq	$16, %rsp
	movq	%rdi, -16(%rbp)
	movq	%rsi, -8(%rbp)
Ltmp22:
	.loc	3 761 9 prologue_end
	callq	__ZN4core5slice4iter16IterMut$LT$T$GT$3new17hc5ac14583176d1bfE
	.loc	3 762 6
	addq	$16, %rsp
	popq	%rbp
	retq
Ltmp23:
Lfunc_end7:
	.cfi_endproc

	.globl	__ZN4core5slice29_$LT$impl$u20$$u5b$T$u5d$$GT$8iter_mut17h5bc438d618874622E
	.p2align	4, 0x90
__ZN4core5slice29_$LT$impl$u20$$u5b$T$u5d$$GT$8iter_mut17h5bc438d618874622E:
Lfunc_begin8:
	.loc	3 760 0
	.cfi_startproc
	pushq	%rbp
	.cfi_def_cfa_offset 16
	.cfi_offset %rbp, -16
	movq	%rsp, %rbp
	.cfi_def_cfa_register %rbp
	subq	$16, %rsp
	movq	%rdi, -16(%rbp)
	movq	%rsi, -8(%rbp)
Ltmp24:
	.loc	3 761 9 prologue_end
	callq	__ZN4core5slice4iter16IterMut$LT$T$GT$3new17hac5a902f5ccc8a7fE
	.loc	3 762 6
	addq	$16, %rsp
	popq	%rbp
	retq
Ltmp25:
Lfunc_end8:
	.cfi_endproc

	.globl	__ZN4core5slice29_$LT$impl$u20$$u5b$T$u5d$$GT$8iter_mut17h7d319b8e478a6de1E
	.p2align	4, 0x90
__ZN4core5slice29_$LT$impl$u20$$u5b$T$u5d$$GT$8iter_mut17h7d319b8e478a6de1E:
Lfunc_begin9:
	.loc	3 760 0
	.cfi_startproc
	pushq	%rbp
	.cfi_def_cfa_offset 16
	.cfi_offset %rbp, -16
	movq	%rsp, %rbp
	.cfi_def_cfa_register %rbp
	subq	$16, %rsp
	movq	%rdi, -16(%rbp)
	movq	%rsi, -8(%rbp)
Ltmp26:
	.loc	3 761 9 prologue_end
	callq	__ZN4core5slice4iter16IterMut$LT$T$GT$3new17h5a8a418c9cd83437E
	.loc	3 762 6
	addq	$16, %rsp
	popq	%rbp
	retq
Ltmp27:
Lfunc_end9:
	.cfi_endproc

	.globl	__ZN4core5slice29_$LT$impl$u20$$u5b$T$u5d$$GT$8iter_mut17h8b0ed5be755eeb58E
	.p2align	4, 0x90
__ZN4core5slice29_$LT$impl$u20$$u5b$T$u5d$$GT$8iter_mut17h8b0ed5be755eeb58E:
Lfunc_begin10:
	.loc	3 760 0
	.cfi_startproc
	pushq	%rbp
	.cfi_def_cfa_offset 16
	.cfi_offset %rbp, -16
	movq	%rsp, %rbp
	.cfi_def_cfa_register %rbp
	subq	$16, %rsp
	movq	%rdi, -16(%rbp)
	movq	%rsi, -8(%rbp)
Ltmp28:
	.loc	3 761 9 prologue_end
	callq	__ZN4core5slice4iter16IterMut$LT$T$GT$3new17h8816ca6ca4a7c231E
	.loc	3 762 6
	addq	$16, %rsp
	popq	%rbp
	retq
Ltmp29:
Lfunc_end10:
	.cfi_endproc

	.globl	__ZN4core5slice29_$LT$impl$u20$$u5b$T$u5d$$GT$8iter_mut17h926c1bc2b5b7fb87E
	.p2align	4, 0x90
__ZN4core5slice29_$LT$impl$u20$$u5b$T$u5d$$GT$8iter_mut17h926c1bc2b5b7fb87E:
Lfunc_begin11:
	.loc	3 760 0
	.cfi_startproc
	pushq	%rbp
	.cfi_def_cfa_offset 16
	.cfi_offset %rbp, -16
	movq	%rsp, %rbp
	.cfi_def_cfa_register %rbp
	subq	$16, %rsp
	movq	%rdi, -16(%rbp)
	movq	%rsi, -8(%rbp)
Ltmp30:
	.loc	3 761 9 prologue_end
	callq	__ZN4core5slice4iter16IterMut$LT$T$GT$3new17h53dd3447ce1662baE
	.loc	3 762 6
	addq	$16, %rsp
	popq	%rbp
	retq
Ltmp31:
Lfunc_end11:
	.cfi_endproc

	.globl	__ZN4core5slice29_$LT$impl$u20$$u5b$T$u5d$$GT$8iter_mut17hbb762306cb120ee0E
	.p2align	4, 0x90
__ZN4core5slice29_$LT$impl$u20$$u5b$T$u5d$$GT$8iter_mut17hbb762306cb120ee0E:
Lfunc_begin12:
	.loc	3 760 0
	.cfi_startproc
	pushq	%rbp
	.cfi_def_cfa_offset 16
	.cfi_offset %rbp, -16
	movq	%rsp, %rbp
	.cfi_def_cfa_register %rbp
	subq	$16, %rsp
	movq	%rdi, -16(%rbp)
	movq	%rsi, -8(%rbp)
Ltmp32:
	.loc	3 761 9 prologue_end
	callq	__ZN4core5slice4iter16IterMut$LT$T$GT$3new17h1be819cd72ce3dd2E
	.loc	3 762 6
	addq	$16, %rsp
	popq	%rbp
	retq
Ltmp33:
Lfunc_end12:
	.cfi_endproc

	.globl	__ZN4core5slice29_$LT$impl$u20$$u5b$T$u5d$$GT$8iter_mut17hdc8eb8619760e4b6E
	.p2align	4, 0x90
__ZN4core5slice29_$LT$impl$u20$$u5b$T$u5d$$GT$8iter_mut17hdc8eb8619760e4b6E:
Lfunc_begin13:
	.loc	3 760 0
	.cfi_startproc
	pushq	%rbp
	.cfi_def_cfa_offset 16
	.cfi_offset %rbp, -16
	movq	%rsp, %rbp
	.cfi_def_cfa_register %rbp
	subq	$16, %rsp
	movq	%rdi, -16(%rbp)
	movq	%rsi, -8(%rbp)
Ltmp34:
	.loc	3 761 9 prologue_end
	callq	__ZN4core5slice4iter16IterMut$LT$T$GT$3new17hb571367c37be6459E
	.loc	3 762 6
	addq	$16, %rsp
	popq	%rbp
	retq
Ltmp35:
Lfunc_end13:
	.cfi_endproc

	.globl	__ZN4core5slice4iter16IterMut$LT$T$GT$3new17h10c21374e2ee54a9E
	.p2align	4, 0x90
__ZN4core5slice4iter16IterMut$LT$T$GT$3new17h10c21374e2ee54a9E:
Lfunc_begin14:
	.file	4 "/rustc/2c8cc343237b8f7d5a3c3703e3a87f2eb2c54a74/library/core/src/slice" "iter.rs"
	.loc	4 203 0
	.cfi_startproc
	pushq	%rbp
	.cfi_def_cfa_offset 16
	.cfi_offset %rbp, -16
	movq	%rsp, %rbp
	.cfi_def_cfa_register %rbp
	subq	$288, %rsp
	movq	%rdi, -288(%rbp)
	movq	%rsi, -280(%rbp)
	movq	%rdi, -216(%rbp)
	movq	%rsi, -208(%rbp)
Ltmp36:
	.loc	4 204 19 prologue_end
	movq	%rdi, -192(%rbp)
	movq	%rsi, -184(%rbp)
Ltmp37:
	.loc	3 507 9
	movq	%rdi, -176(%rbp)
Ltmp38:
	.loc	4 222 21
	movq	%rdi, -168(%rbp)
Ltmp39:
	.file	5 "/rustc/2c8cc343237b8f7d5a3c3703e3a87f2eb2c54a74/library/core/src/ptr" "mut_ptr.rs"
	.loc	5 52 36
	movq	%rdi, -240(%rbp)
	.loc	5 52 18 is_stmt 0
	movq	-240(%rbp), %rax
	movq	%rax, -160(%rbp)
Ltmp40:
	.loc	5 38 13 is_stmt 1
	movq	%rax, -152(%rbp)
Ltmp41:
	.loc	5 215 33
	movq	%rax, -144(%rbp)
	.loc	5 215 18 is_stmt 0
	movq	%rax, -136(%rbp)
Ltmp42:
	.loc	4 225 20 is_stmt 1
	xorl	%eax, %eax
	testb	$1, %al
	jne	LBB14_2
	.loc	4 0 20 is_stmt 0
	movq	-288(%rbp), %rax
	movq	-280(%rbp), %rcx
	.loc	4 225 76
	movq	%rax, -48(%rbp)
	.loc	4 225 84
	movq	%rcx, -40(%rbp)
Ltmp43:
	.loc	5 1034 18 is_stmt 1
	movq	%rax, -32(%rbp)
	.loc	5 1034 30 is_stmt 0
	movq	%rcx, -24(%rbp)
Ltmp44:
	.loc	5 487 18 is_stmt 1
	shlq	$1, %rcx
	addq	%rcx, %rax
	movq	%rax, -16(%rbp)
	movq	-16(%rbp), %rax
	movq	%rax, -256(%rbp)
Ltmp45:
	.loc	4 225 17
	jmp	LBB14_3
LBB14_2:
	.loc	4 0 17 is_stmt 0
	movq	-280(%rbp), %rcx
	movq	-288(%rbp), %rax
	.loc	4 225 32
	movq	%rax, -128(%rbp)
	.loc	4 225 54
	movq	%rcx, -120(%rbp)
Ltmp46:
	.loc	5 1220 9 is_stmt 1
	movq	%rax, -112(%rbp)
Ltmp47:
	.loc	5 60 9
	movq	%rax, -104(%rbp)
Ltmp48:
	.loc	5 1220 40
	movq	%rcx, -96(%rbp)
Ltmp49:
	.loc	5 1202 9
	movq	%rax, -88(%rbp)
	.loc	5 1202 30 is_stmt 0
	movq	%rcx, -80(%rbp)
Ltmp50:
	.loc	5 568 18 is_stmt 1
	addq	%rcx, %rax
	movq	%rax, -72(%rbp)
	movq	-72(%rbp), %rax
	movq	%rax, -64(%rbp)
Ltmp51:
	.loc	5 99 33
	movq	%rax, -56(%rbp)
Ltmp52:
	.file	6 "/rustc/2c8cc343237b8f7d5a3c3703e3a87f2eb2c54a74/library/core/src/ptr" "metadata.rs"
	.loc	6 135 36
	movq	%rax, -224(%rbp)
	.loc	6 135 14 is_stmt 0
	movq	-224(%rbp), %rax
	movq	%rax, -232(%rbp)
	movq	-232(%rbp), %rax
	movq	%rax, -256(%rbp)
Ltmp53:
LBB14_3:
	.loc	6 0 14
	movq	-288(%rbp), %rax
Ltmp54:
	.loc	4 227 48 is_stmt 1
	movq	%rax, -8(%rbp)
Ltmp55:
	.file	7 "/rustc/2c8cc343237b8f7d5a3c3703e3a87f2eb2c54a74/library/core/src/ptr" "non_null.rs"
	.loc	7 201 13
	movq	%rax, -248(%rbp)
Ltmp56:
	.loc	4 227 54
	movq	-256(%rbp), %rax
	.loc	4 227 13 is_stmt 0
	movq	-248(%rbp), %rcx
	movq	%rcx, -264(%rbp)
	movq	%rax, -272(%rbp)
Ltmp57:
	.loc	4 229 6 is_stmt 1
	movq	-272(%rbp), %rax
	movq	-264(%rbp), %rdx
	addq	$288, %rsp
	popq	%rbp
	retq
Ltmp58:
Lfunc_end14:
	.cfi_endproc

	.globl	__ZN4core5slice4iter16IterMut$LT$T$GT$3new17h1be819cd72ce3dd2E
	.p2align	4, 0x90
__ZN4core5slice4iter16IterMut$LT$T$GT$3new17h1be819cd72ce3dd2E:
Lfunc_begin15:
	.loc	4 203 0
	.cfi_startproc
	pushq	%rbp
	.cfi_def_cfa_offset 16
	.cfi_offset %rbp, -16
	movq	%rsp, %rbp
	.cfi_def_cfa_register %rbp
	subq	$288, %rsp
	movq	%rdi, -288(%rbp)
	movq	%rsi, -280(%rbp)
	movq	%rdi, -216(%rbp)
	movq	%rsi, -208(%rbp)
Ltmp59:
	.loc	4 204 19 prologue_end
	movq	%rdi, -192(%rbp)
	movq	%rsi, -184(%rbp)
Ltmp60:
	.loc	3 507 9
	movq	%rdi, -176(%rbp)
Ltmp61:
	.loc	4 222 21
	movq	%rdi, -168(%rbp)
Ltmp62:
	.loc	5 52 36
	movq	%rdi, -240(%rbp)
	.loc	5 52 18 is_stmt 0
	movq	-240(%rbp), %rax
	movq	%rax, -160(%rbp)
Ltmp63:
	.loc	5 38 13 is_stmt 1
	movq	%rax, -152(%rbp)
Ltmp64:
	.loc	5 215 33
	movq	%rax, -144(%rbp)
	.loc	5 215 18 is_stmt 0
	movq	%rax, -136(%rbp)
Ltmp65:
	.loc	4 225 20 is_stmt 1
	xorl	%eax, %eax
	testb	$1, %al
	jne	LBB15_2
	.loc	4 0 20 is_stmt 0
	movq	-288(%rbp), %rax
	movq	-280(%rbp), %rcx
	.loc	4 225 76
	movq	%rax, -48(%rbp)
	.loc	4 225 84
	movq	%rcx, -40(%rbp)
Ltmp66:
	.loc	5 1034 18 is_stmt 1
	movq	%rax, -32(%rbp)
	.loc	5 1034 30 is_stmt 0
	movq	%rcx, -24(%rbp)
Ltmp67:
	.loc	5 487 18 is_stmt 1
	shlq	$1, %rcx
	addq	%rcx, %rax
	movq	%rax, -16(%rbp)
	movq	-16(%rbp), %rax
	movq	%rax, -256(%rbp)
Ltmp68:
	.loc	4 225 17
	jmp	LBB15_3
LBB15_2:
	.loc	4 0 17 is_stmt 0
	movq	-280(%rbp), %rcx
	movq	-288(%rbp), %rax
	.loc	4 225 32
	movq	%rax, -128(%rbp)
	.loc	4 225 54
	movq	%rcx, -120(%rbp)
Ltmp69:
	.loc	5 1220 9 is_stmt 1
	movq	%rax, -112(%rbp)
Ltmp70:
	.loc	5 60 9
	movq	%rax, -104(%rbp)
Ltmp71:
	.loc	5 1220 40
	movq	%rcx, -96(%rbp)
Ltmp72:
	.loc	5 1202 9
	movq	%rax, -88(%rbp)
	.loc	5 1202 30 is_stmt 0
	movq	%rcx, -80(%rbp)
Ltmp73:
	.loc	5 568 18 is_stmt 1
	addq	%rcx, %rax
	movq	%rax, -72(%rbp)
	movq	-72(%rbp), %rax
	movq	%rax, -64(%rbp)
Ltmp74:
	.loc	5 99 33
	movq	%rax, -56(%rbp)
Ltmp75:
	.loc	6 135 36
	movq	%rax, -224(%rbp)
	.loc	6 135 14 is_stmt 0
	movq	-224(%rbp), %rax
	movq	%rax, -232(%rbp)
	movq	-232(%rbp), %rax
	movq	%rax, -256(%rbp)
Ltmp76:
LBB15_3:
	.loc	6 0 14
	movq	-288(%rbp), %rax
Ltmp77:
	.loc	4 227 48 is_stmt 1
	movq	%rax, -8(%rbp)
Ltmp78:
	.loc	7 201 13
	movq	%rax, -248(%rbp)
Ltmp79:
	.loc	4 227 54
	movq	-256(%rbp), %rax
	.loc	4 227 13 is_stmt 0
	movq	-248(%rbp), %rcx
	movq	%rcx, -264(%rbp)
	movq	%rax, -272(%rbp)
Ltmp80:
	.loc	4 229 6 is_stmt 1
	movq	-272(%rbp), %rax
	movq	-264(%rbp), %rdx
	addq	$288, %rsp
	popq	%rbp
	retq
Ltmp81:
Lfunc_end15:
	.cfi_endproc

	.globl	__ZN4core5slice4iter16IterMut$LT$T$GT$3new17h458f4858db2beff6E
	.p2align	4, 0x90
__ZN4core5slice4iter16IterMut$LT$T$GT$3new17h458f4858db2beff6E:
Lfunc_begin16:
	.loc	4 203 0
	.cfi_startproc
	pushq	%rbp
	.cfi_def_cfa_offset 16
	.cfi_offset %rbp, -16
	movq	%rsp, %rbp
	.cfi_def_cfa_register %rbp
	subq	$288, %rsp
	movq	%rdi, -288(%rbp)
	movq	%rsi, -280(%rbp)
	movq	%rdi, -216(%rbp)
	movq	%rsi, -208(%rbp)
Ltmp82:
	.loc	4 204 19 prologue_end
	movq	%rdi, -192(%rbp)
	movq	%rsi, -184(%rbp)
Ltmp83:
	.loc	3 507 9
	movq	%rdi, -176(%rbp)
Ltmp84:
	.loc	4 222 21
	movq	%rdi, -168(%rbp)
Ltmp85:
	.loc	5 52 36
	movq	%rdi, -240(%rbp)
	.loc	5 52 18 is_stmt 0
	movq	-240(%rbp), %rax
	movq	%rax, -160(%rbp)
Ltmp86:
	.loc	5 38 13 is_stmt 1
	movq	%rax, -152(%rbp)
Ltmp87:
	.loc	5 215 33
	movq	%rax, -144(%rbp)
	.loc	5 215 18 is_stmt 0
	movq	%rax, -136(%rbp)
Ltmp88:
	.loc	4 225 20 is_stmt 1
	xorl	%eax, %eax
	testb	$1, %al
	jne	LBB16_2
	.loc	4 0 20 is_stmt 0
	movq	-288(%rbp), %rax
	movq	-280(%rbp), %rcx
	.loc	4 225 76
	movq	%rax, -48(%rbp)
	.loc	4 225 84
	movq	%rcx, -40(%rbp)
Ltmp89:
	.loc	5 1034 18 is_stmt 1
	movq	%rax, -32(%rbp)
	.loc	5 1034 30 is_stmt 0
	movq	%rcx, -24(%rbp)
Ltmp90:
	.loc	5 487 18 is_stmt 1
	shlq	$2, %rcx
	addq	%rcx, %rax
	movq	%rax, -16(%rbp)
	movq	-16(%rbp), %rax
	movq	%rax, -256(%rbp)
Ltmp91:
	.loc	4 225 17
	jmp	LBB16_3
LBB16_2:
	.loc	4 0 17 is_stmt 0
	movq	-280(%rbp), %rcx
	movq	-288(%rbp), %rax
	.loc	4 225 32
	movq	%rax, -128(%rbp)
	.loc	4 225 54
	movq	%rcx, -120(%rbp)
Ltmp92:
	.loc	5 1220 9 is_stmt 1
	movq	%rax, -112(%rbp)
Ltmp93:
	.loc	5 60 9
	movq	%rax, -104(%rbp)
Ltmp94:
	.loc	5 1220 40
	movq	%rcx, -96(%rbp)
Ltmp95:
	.loc	5 1202 9
	movq	%rax, -88(%rbp)
	.loc	5 1202 30 is_stmt 0
	movq	%rcx, -80(%rbp)
Ltmp96:
	.loc	5 568 18 is_stmt 1
	addq	%rcx, %rax
	movq	%rax, -72(%rbp)
	movq	-72(%rbp), %rax
	movq	%rax, -64(%rbp)
Ltmp97:
	.loc	5 99 33
	movq	%rax, -56(%rbp)
Ltmp98:
	.loc	6 135 36
	movq	%rax, -224(%rbp)
	.loc	6 135 14 is_stmt 0
	movq	-224(%rbp), %rax
	movq	%rax, -232(%rbp)
	movq	-232(%rbp), %rax
	movq	%rax, -256(%rbp)
Ltmp99:
LBB16_3:
	.loc	6 0 14
	movq	-288(%rbp), %rax
Ltmp100:
	.loc	4 227 48 is_stmt 1
	movq	%rax, -8(%rbp)
Ltmp101:
	.loc	7 201 13
	movq	%rax, -248(%rbp)
Ltmp102:
	.loc	4 227 54
	movq	-256(%rbp), %rax
	.loc	4 227 13 is_stmt 0
	movq	-248(%rbp), %rcx
	movq	%rcx, -264(%rbp)
	movq	%rax, -272(%rbp)
Ltmp103:
	.loc	4 229 6 is_stmt 1
	movq	-272(%rbp), %rax
	movq	-264(%rbp), %rdx
	addq	$288, %rsp
	popq	%rbp
	retq
Ltmp104:
Lfunc_end16:
	.cfi_endproc

	.globl	__ZN4core5slice4iter16IterMut$LT$T$GT$3new17h53dd3447ce1662baE
	.p2align	4, 0x90
__ZN4core5slice4iter16IterMut$LT$T$GT$3new17h53dd3447ce1662baE:
Lfunc_begin17:
	.loc	4 203 0
	.cfi_startproc
	pushq	%rbp
	.cfi_def_cfa_offset 16
	.cfi_offset %rbp, -16
	movq	%rsp, %rbp
	.cfi_def_cfa_register %rbp
	subq	$288, %rsp
	movq	%rdi, -288(%rbp)
	movq	%rsi, -280(%rbp)
	movq	%rdi, -216(%rbp)
	movq	%rsi, -208(%rbp)
Ltmp105:
	.loc	4 204 19 prologue_end
	movq	%rdi, -192(%rbp)
	movq	%rsi, -184(%rbp)
Ltmp106:
	.loc	3 507 9
	movq	%rdi, -176(%rbp)
Ltmp107:
	.loc	4 222 21
	movq	%rdi, -168(%rbp)
Ltmp108:
	.loc	5 52 36
	movq	%rdi, -240(%rbp)
	.loc	5 52 18 is_stmt 0
	movq	-240(%rbp), %rax
	movq	%rax, -160(%rbp)
Ltmp109:
	.loc	5 38 13 is_stmt 1
	movq	%rax, -152(%rbp)
Ltmp110:
	.loc	5 215 33
	movq	%rax, -144(%rbp)
	.loc	5 215 18 is_stmt 0
	movq	%rax, -136(%rbp)
Ltmp111:
	.loc	4 225 20 is_stmt 1
	xorl	%eax, %eax
	testb	$1, %al
	jne	LBB17_2
	.loc	4 0 20 is_stmt 0
	movq	-288(%rbp), %rax
	movq	-280(%rbp), %rcx
	.loc	4 225 76
	movq	%rax, -48(%rbp)
	.loc	4 225 84
	movq	%rcx, -40(%rbp)
Ltmp112:
	.loc	5 1034 18 is_stmt 1
	movq	%rax, -32(%rbp)
	.loc	5 1034 30 is_stmt 0
	movq	%rcx, -24(%rbp)
Ltmp113:
	.loc	5 487 18 is_stmt 1
	shlq	$4, %rcx
	addq	%rcx, %rax
	movq	%rax, -16(%rbp)
	movq	-16(%rbp), %rax
	movq	%rax, -256(%rbp)
Ltmp114:
	.loc	4 225 17
	jmp	LBB17_3
LBB17_2:
	.loc	4 0 17 is_stmt 0
	movq	-280(%rbp), %rcx
	movq	-288(%rbp), %rax
	.loc	4 225 32
	movq	%rax, -128(%rbp)
	.loc	4 225 54
	movq	%rcx, -120(%rbp)
Ltmp115:
	.loc	5 1220 9 is_stmt 1
	movq	%rax, -112(%rbp)
Ltmp116:
	.loc	5 60 9
	movq	%rax, -104(%rbp)
Ltmp117:
	.loc	5 1220 40
	movq	%rcx, -96(%rbp)
Ltmp118:
	.loc	5 1202 9
	movq	%rax, -88(%rbp)
	.loc	5 1202 30 is_stmt 0
	movq	%rcx, -80(%rbp)
Ltmp119:
	.loc	5 568 18 is_stmt 1
	addq	%rcx, %rax
	movq	%rax, -72(%rbp)
	movq	-72(%rbp), %rax
	movq	%rax, -64(%rbp)
Ltmp120:
	.loc	5 99 33
	movq	%rax, -56(%rbp)
Ltmp121:
	.loc	6 135 36
	movq	%rax, -224(%rbp)
	.loc	6 135 14 is_stmt 0
	movq	-224(%rbp), %rax
	movq	%rax, -232(%rbp)
	movq	-232(%rbp), %rax
	movq	%rax, -256(%rbp)
Ltmp122:
LBB17_3:
	.loc	6 0 14
	movq	-288(%rbp), %rax
Ltmp123:
	.loc	4 227 48 is_stmt 1
	movq	%rax, -8(%rbp)
Ltmp124:
	.loc	7 201 13
	movq	%rax, -248(%rbp)
Ltmp125:
	.loc	4 227 54
	movq	-256(%rbp), %rax
	.loc	4 227 13 is_stmt 0
	movq	-248(%rbp), %rcx
	movq	%rcx, -264(%rbp)
	movq	%rax, -272(%rbp)
Ltmp126:
	.loc	4 229 6 is_stmt 1
	movq	-272(%rbp), %rax
	movq	-264(%rbp), %rdx
	addq	$288, %rsp
	popq	%rbp
	retq
Ltmp127:
Lfunc_end17:
	.cfi_endproc

	.globl	__ZN4core5slice4iter16IterMut$LT$T$GT$3new17h5a8a418c9cd83437E
	.p2align	4, 0x90
__ZN4core5slice4iter16IterMut$LT$T$GT$3new17h5a8a418c9cd83437E:
Lfunc_begin18:
	.loc	4 203 0
	.cfi_startproc
	pushq	%rbp
	.cfi_def_cfa_offset 16
	.cfi_offset %rbp, -16
	movq	%rsp, %rbp
	.cfi_def_cfa_register %rbp
	subq	$288, %rsp
	movq	%rdi, -288(%rbp)
	movq	%rsi, -280(%rbp)
	movq	%rdi, -216(%rbp)
	movq	%rsi, -208(%rbp)
Ltmp128:
	.loc	4 204 19 prologue_end
	movq	%rdi, -192(%rbp)
	movq	%rsi, -184(%rbp)
Ltmp129:
	.loc	3 507 9
	movq	%rdi, -176(%rbp)
Ltmp130:
	.loc	4 222 21
	movq	%rdi, -168(%rbp)
Ltmp131:
	.loc	5 52 36
	movq	%rdi, -240(%rbp)
	.loc	5 52 18 is_stmt 0
	movq	-240(%rbp), %rax
	movq	%rax, -160(%rbp)
Ltmp132:
	.loc	5 38 13 is_stmt 1
	movq	%rax, -152(%rbp)
Ltmp133:
	.loc	5 215 33
	movq	%rax, -144(%rbp)
	.loc	5 215 18 is_stmt 0
	movq	%rax, -136(%rbp)
Ltmp134:
	.loc	4 225 20 is_stmt 1
	xorl	%eax, %eax
	testb	$1, %al
	jne	LBB18_2
	.loc	4 0 20 is_stmt 0
	movq	-288(%rbp), %rax
	movq	-280(%rbp), %rcx
	.loc	4 225 76
	movq	%rax, -48(%rbp)
	.loc	4 225 84
	movq	%rcx, -40(%rbp)
Ltmp135:
	.loc	5 1034 18 is_stmt 1
	movq	%rax, -32(%rbp)
	.loc	5 1034 30 is_stmt 0
	movq	%rcx, -24(%rbp)
Ltmp136:
	.loc	5 487 18 is_stmt 1
	shlq	$2, %rcx
	addq	%rcx, %rax
	movq	%rax, -16(%rbp)
	movq	-16(%rbp), %rax
	movq	%rax, -256(%rbp)
Ltmp137:
	.loc	4 225 17
	jmp	LBB18_3
LBB18_2:
	.loc	4 0 17 is_stmt 0
	movq	-280(%rbp), %rcx
	movq	-288(%rbp), %rax
	.loc	4 225 32
	movq	%rax, -128(%rbp)
	.loc	4 225 54
	movq	%rcx, -120(%rbp)
Ltmp138:
	.loc	5 1220 9 is_stmt 1
	movq	%rax, -112(%rbp)
Ltmp139:
	.loc	5 60 9
	movq	%rax, -104(%rbp)
Ltmp140:
	.loc	5 1220 40
	movq	%rcx, -96(%rbp)
Ltmp141:
	.loc	5 1202 9
	movq	%rax, -88(%rbp)
	.loc	5 1202 30 is_stmt 0
	movq	%rcx, -80(%rbp)
Ltmp142:
	.loc	5 568 18 is_stmt 1
	addq	%rcx, %rax
	movq	%rax, -72(%rbp)
	movq	-72(%rbp), %rax
	movq	%rax, -64(%rbp)
Ltmp143:
	.loc	5 99 33
	movq	%rax, -56(%rbp)
Ltmp144:
	.loc	6 135 36
	movq	%rax, -224(%rbp)
	.loc	6 135 14 is_stmt 0
	movq	-224(%rbp), %rax
	movq	%rax, -232(%rbp)
	movq	-232(%rbp), %rax
	movq	%rax, -256(%rbp)
Ltmp145:
LBB18_3:
	.loc	6 0 14
	movq	-288(%rbp), %rax
Ltmp146:
	.loc	4 227 48 is_stmt 1
	movq	%rax, -8(%rbp)
Ltmp147:
	.loc	7 201 13
	movq	%rax, -248(%rbp)
Ltmp148:
	.loc	4 227 54
	movq	-256(%rbp), %rax
	.loc	4 227 13 is_stmt 0
	movq	-248(%rbp), %rcx
	movq	%rcx, -264(%rbp)
	movq	%rax, -272(%rbp)
Ltmp149:
	.loc	4 229 6 is_stmt 1
	movq	-272(%rbp), %rax
	movq	-264(%rbp), %rdx
	addq	$288, %rsp
	popq	%rbp
	retq
Ltmp150:
Lfunc_end18:
	.cfi_endproc

	.globl	__ZN4core5slice4iter16IterMut$LT$T$GT$3new17h8816ca6ca4a7c231E
	.p2align	4, 0x90
__ZN4core5slice4iter16IterMut$LT$T$GT$3new17h8816ca6ca4a7c231E:
Lfunc_begin19:
	.loc	4 203 0
	.cfi_startproc
	pushq	%rbp
	.cfi_def_cfa_offset 16
	.cfi_offset %rbp, -16
	movq	%rsp, %rbp
	.cfi_def_cfa_register %rbp
	subq	$288, %rsp
	movq	%rdi, -288(%rbp)
	movq	%rsi, -280(%rbp)
	movq	%rdi, -216(%rbp)
	movq	%rsi, -208(%rbp)
Ltmp151:
	.loc	4 204 19 prologue_end
	movq	%rdi, -192(%rbp)
	movq	%rsi, -184(%rbp)
Ltmp152:
	.loc	3 507 9
	movq	%rdi, -176(%rbp)
Ltmp153:
	.loc	4 222 21
	movq	%rdi, -168(%rbp)
Ltmp154:
	.loc	5 52 36
	movq	%rdi, -240(%rbp)
	.loc	5 52 18 is_stmt 0
	movq	-240(%rbp), %rax
	movq	%rax, -160(%rbp)
Ltmp155:
	.loc	5 38 13 is_stmt 1
	movq	%rax, -152(%rbp)
Ltmp156:
	.loc	5 215 33
	movq	%rax, -144(%rbp)
	.loc	5 215 18 is_stmt 0
	movq	%rax, -136(%rbp)
Ltmp157:
	.loc	4 225 20 is_stmt 1
	xorl	%eax, %eax
	testb	$1, %al
	jne	LBB19_2
	.loc	4 0 20 is_stmt 0
	movq	-288(%rbp), %rax
	movq	-280(%rbp), %rcx
	.loc	4 225 76
	movq	%rax, -48(%rbp)
	.loc	4 225 84
	movq	%rcx, -40(%rbp)
Ltmp158:
	.loc	5 1034 18 is_stmt 1
	movq	%rax, -32(%rbp)
	.loc	5 1034 30 is_stmt 0
	movq	%rcx, -24(%rbp)
Ltmp159:
	.loc	5 487 18 is_stmt 1
	shlq	$3, %rcx
	addq	%rcx, %rax
	movq	%rax, -16(%rbp)
	movq	-16(%rbp), %rax
	movq	%rax, -256(%rbp)
Ltmp160:
	.loc	4 225 17
	jmp	LBB19_3
LBB19_2:
	.loc	4 0 17 is_stmt 0
	movq	-280(%rbp), %rcx
	movq	-288(%rbp), %rax
	.loc	4 225 32
	movq	%rax, -128(%rbp)
	.loc	4 225 54
	movq	%rcx, -120(%rbp)
Ltmp161:
	.loc	5 1220 9 is_stmt 1
	movq	%rax, -112(%rbp)
Ltmp162:
	.loc	5 60 9
	movq	%rax, -104(%rbp)
Ltmp163:
	.loc	5 1220 40
	movq	%rcx, -96(%rbp)
Ltmp164:
	.loc	5 1202 9
	movq	%rax, -88(%rbp)
	.loc	5 1202 30 is_stmt 0
	movq	%rcx, -80(%rbp)
Ltmp165:
	.loc	5 568 18 is_stmt 1
	addq	%rcx, %rax
	movq	%rax, -72(%rbp)
	movq	-72(%rbp), %rax
	movq	%rax, -64(%rbp)
Ltmp166:
	.loc	5 99 33
	movq	%rax, -56(%rbp)
Ltmp167:
	.loc	6 135 36
	movq	%rax, -224(%rbp)
	.loc	6 135 14 is_stmt 0
	movq	-224(%rbp), %rax
	movq	%rax, -232(%rbp)
	movq	-232(%rbp), %rax
	movq	%rax, -256(%rbp)
Ltmp168:
LBB19_3:
	.loc	6 0 14
	movq	-288(%rbp), %rax
Ltmp169:
	.loc	4 227 48 is_stmt 1
	movq	%rax, -8(%rbp)
Ltmp170:
	.loc	7 201 13
	movq	%rax, -248(%rbp)
Ltmp171:
	.loc	4 227 54
	movq	-256(%rbp), %rax
	.loc	4 227 13 is_stmt 0
	movq	-248(%rbp), %rcx
	movq	%rcx, -264(%rbp)
	movq	%rax, -272(%rbp)
Ltmp172:
	.loc	4 229 6 is_stmt 1
	movq	-272(%rbp), %rax
	movq	-264(%rbp), %rdx
	addq	$288, %rsp
	popq	%rbp
	retq
Ltmp173:
Lfunc_end19:
	.cfi_endproc

	.globl	__ZN4core5slice4iter16IterMut$LT$T$GT$3new17hac5a902f5ccc8a7fE
	.p2align	4, 0x90
__ZN4core5slice4iter16IterMut$LT$T$GT$3new17hac5a902f5ccc8a7fE:
Lfunc_begin20:
	.loc	4 203 0
	.cfi_startproc
	pushq	%rbp
	.cfi_def_cfa_offset 16
	.cfi_offset %rbp, -16
	movq	%rsp, %rbp
	.cfi_def_cfa_register %rbp
	subq	$288, %rsp
	movq	%rdi, -288(%rbp)
	movq	%rsi, -280(%rbp)
	movq	%rdi, -216(%rbp)
	movq	%rsi, -208(%rbp)
Ltmp174:
	.loc	4 204 19 prologue_end
	movq	%rdi, -192(%rbp)
	movq	%rsi, -184(%rbp)
Ltmp175:
	.loc	3 507 9
	movq	%rdi, -176(%rbp)
Ltmp176:
	.loc	4 222 21
	movq	%rdi, -168(%rbp)
Ltmp177:
	.loc	5 52 36
	movq	%rdi, -240(%rbp)
	.loc	5 52 18 is_stmt 0
	movq	-240(%rbp), %rax
	movq	%rax, -160(%rbp)
Ltmp178:
	.loc	5 38 13 is_stmt 1
	movq	%rax, -152(%rbp)
Ltmp179:
	.loc	5 215 33
	movq	%rax, -144(%rbp)
	.loc	5 215 18 is_stmt 0
	movq	%rax, -136(%rbp)
Ltmp180:
	.loc	4 225 20 is_stmt 1
	xorl	%eax, %eax
	testb	$1, %al
	jne	LBB20_2
	.loc	4 0 20 is_stmt 0
	movq	-288(%rbp), %rax
	movq	-280(%rbp), %rcx
	.loc	4 225 76
	movq	%rax, -48(%rbp)
	.loc	4 225 84
	movq	%rcx, -40(%rbp)
Ltmp181:
	.loc	5 1034 18 is_stmt 1
	movq	%rax, -32(%rbp)
	.loc	5 1034 30 is_stmt 0
	movq	%rcx, -24(%rbp)
Ltmp182:
	.loc	5 487 18 is_stmt 1
	shlq	$2, %rcx
	addq	%rcx, %rax
	movq	%rax, -16(%rbp)
	movq	-16(%rbp), %rax
	movq	%rax, -256(%rbp)
Ltmp183:
	.loc	4 225 17
	jmp	LBB20_3
LBB20_2:
	.loc	4 0 17 is_stmt 0
	movq	-280(%rbp), %rcx
	movq	-288(%rbp), %rax
	.loc	4 225 32
	movq	%rax, -128(%rbp)
	.loc	4 225 54
	movq	%rcx, -120(%rbp)
Ltmp184:
	.loc	5 1220 9 is_stmt 1
	movq	%rax, -112(%rbp)
Ltmp185:
	.loc	5 60 9
	movq	%rax, -104(%rbp)
Ltmp186:
	.loc	5 1220 40
	movq	%rcx, -96(%rbp)
Ltmp187:
	.loc	5 1202 9
	movq	%rax, -88(%rbp)
	.loc	5 1202 30 is_stmt 0
	movq	%rcx, -80(%rbp)
Ltmp188:
	.loc	5 568 18 is_stmt 1
	addq	%rcx, %rax
	movq	%rax, -72(%rbp)
	movq	-72(%rbp), %rax
	movq	%rax, -64(%rbp)
Ltmp189:
	.loc	5 99 33
	movq	%rax, -56(%rbp)
Ltmp190:
	.loc	6 135 36
	movq	%rax, -224(%rbp)
	.loc	6 135 14 is_stmt 0
	movq	-224(%rbp), %rax
	movq	%rax, -232(%rbp)
	movq	-232(%rbp), %rax
	movq	%rax, -256(%rbp)
Ltmp191:
LBB20_3:
	.loc	6 0 14
	movq	-288(%rbp), %rax
Ltmp192:
	.loc	4 227 48 is_stmt 1
	movq	%rax, -8(%rbp)
Ltmp193:
	.loc	7 201 13
	movq	%rax, -248(%rbp)
Ltmp194:
	.loc	4 227 54
	movq	-256(%rbp), %rax
	.loc	4 227 13 is_stmt 0
	movq	-248(%rbp), %rcx
	movq	%rcx, -264(%rbp)
	movq	%rax, -272(%rbp)
Ltmp195:
	.loc	4 229 6 is_stmt 1
	movq	-272(%rbp), %rax
	movq	-264(%rbp), %rdx
	addq	$288, %rsp
	popq	%rbp
	retq
Ltmp196:
Lfunc_end20:
	.cfi_endproc

	.globl	__ZN4core5slice4iter16IterMut$LT$T$GT$3new17hb571367c37be6459E
	.p2align	4, 0x90
__ZN4core5slice4iter16IterMut$LT$T$GT$3new17hb571367c37be6459E:
Lfunc_begin21:
	.loc	4 203 0
	.cfi_startproc
	pushq	%rbp
	.cfi_def_cfa_offset 16
	.cfi_offset %rbp, -16
	movq	%rsp, %rbp
	.cfi_def_cfa_register %rbp
	subq	$288, %rsp
	movq	%rdi, -288(%rbp)
	movq	%rsi, -280(%rbp)
	movq	%rdi, -216(%rbp)
	movq	%rsi, -208(%rbp)
Ltmp197:
	.loc	4 204 19 prologue_end
	movq	%rdi, -192(%rbp)
	movq	%rsi, -184(%rbp)
Ltmp198:
	.loc	3 507 9
	movq	%rdi, -176(%rbp)
Ltmp199:
	.loc	4 222 21
	movq	%rdi, -168(%rbp)
Ltmp200:
	.loc	5 52 36
	movq	%rdi, -240(%rbp)
	.loc	5 52 18 is_stmt 0
	movq	-240(%rbp), %rax
	movq	%rax, -160(%rbp)
Ltmp201:
	.loc	5 38 13 is_stmt 1
	movq	%rax, -152(%rbp)
Ltmp202:
	.loc	5 215 33
	movq	%rax, -144(%rbp)
	.loc	5 215 18 is_stmt 0
	movq	%rax, -136(%rbp)
Ltmp203:
	.loc	4 225 20 is_stmt 1
	xorl	%eax, %eax
	testb	$1, %al
	jne	LBB21_2
	.loc	4 0 20 is_stmt 0
	movq	-288(%rbp), %rax
	movq	-280(%rbp), %rcx
	.loc	4 225 76
	movq	%rax, -48(%rbp)
	.loc	4 225 84
	movq	%rcx, -40(%rbp)
Ltmp204:
	.loc	5 1034 18 is_stmt 1
	movq	%rax, -32(%rbp)
	.loc	5 1034 30 is_stmt 0
	movq	%rcx, -24(%rbp)
Ltmp205:
	.loc	5 487 18 is_stmt 1
	shlq	$3, %rcx
	addq	%rcx, %rax
	movq	%rax, -16(%rbp)
	movq	-16(%rbp), %rax
	movq	%rax, -256(%rbp)
Ltmp206:
	.loc	4 225 17
	jmp	LBB21_3
LBB21_2:
	.loc	4 0 17 is_stmt 0
	movq	-280(%rbp), %rcx
	movq	-288(%rbp), %rax
	.loc	4 225 32
	movq	%rax, -128(%rbp)
	.loc	4 225 54
	movq	%rcx, -120(%rbp)
Ltmp207:
	.loc	5 1220 9 is_stmt 1
	movq	%rax, -112(%rbp)
Ltmp208:
	.loc	5 60 9
	movq	%rax, -104(%rbp)
Ltmp209:
	.loc	5 1220 40
	movq	%rcx, -96(%rbp)
Ltmp210:
	.loc	5 1202 9
	movq	%rax, -88(%rbp)
	.loc	5 1202 30 is_stmt 0
	movq	%rcx, -80(%rbp)
Ltmp211:
	.loc	5 568 18 is_stmt 1
	addq	%rcx, %rax
	movq	%rax, -72(%rbp)
	movq	-72(%rbp), %rax
	movq	%rax, -64(%rbp)
Ltmp212:
	.loc	5 99 33
	movq	%rax, -56(%rbp)
Ltmp213:
	.loc	6 135 36
	movq	%rax, -224(%rbp)
	.loc	6 135 14 is_stmt 0
	movq	-224(%rbp), %rax
	movq	%rax, -232(%rbp)
	movq	-232(%rbp), %rax
	movq	%rax, -256(%rbp)
Ltmp214:
LBB21_3:
	.loc	6 0 14
	movq	-288(%rbp), %rax
Ltmp215:
	.loc	4 227 48 is_stmt 1
	movq	%rax, -8(%rbp)
Ltmp216:
	.loc	7 201 13
	movq	%rax, -248(%rbp)
Ltmp217:
	.loc	4 227 54
	movq	-256(%rbp), %rax
	.loc	4 227 13 is_stmt 0
	movq	-248(%rbp), %rcx
	movq	%rcx, -264(%rbp)
	movq	%rax, -272(%rbp)
Ltmp218:
	.loc	4 229 6 is_stmt 1
	movq	-272(%rbp), %rax
	movq	-264(%rbp), %rdx
	addq	$288, %rsp
	popq	%rbp
	retq
Ltmp219:
Lfunc_end21:
	.cfi_endproc

	.globl	__ZN4core5slice4iter16IterMut$LT$T$GT$3new17hc5ac14583176d1bfE
	.p2align	4, 0x90
__ZN4core5slice4iter16IterMut$LT$T$GT$3new17hc5ac14583176d1bfE:
Lfunc_begin22:
	.loc	4 203 0
	.cfi_startproc
	pushq	%rbp
	.cfi_def_cfa_offset 16
	.cfi_offset %rbp, -16
	movq	%rsp, %rbp
	.cfi_def_cfa_register %rbp
	subq	$288, %rsp
	movq	%rdi, -288(%rbp)
	movq	%rsi, -280(%rbp)
	movq	%rdi, -216(%rbp)
	movq	%rsi, -208(%rbp)
Ltmp220:
	.loc	4 204 19 prologue_end
	movq	%rdi, -192(%rbp)
	movq	%rsi, -184(%rbp)
Ltmp221:
	.loc	3 507 9
	movq	%rdi, -176(%rbp)
Ltmp222:
	.loc	4 222 21
	movq	%rdi, -168(%rbp)
Ltmp223:
	.loc	5 52 36
	movq	%rdi, -240(%rbp)
	.loc	5 52 18 is_stmt 0
	movq	-240(%rbp), %rax
	movq	%rax, -160(%rbp)
Ltmp224:
	.loc	5 38 13 is_stmt 1
	movq	%rax, -152(%rbp)
Ltmp225:
	.loc	5 215 33
	movq	%rax, -144(%rbp)
	.loc	5 215 18 is_stmt 0
	movq	%rax, -136(%rbp)
Ltmp226:
	.loc	4 225 20 is_stmt 1
	xorl	%eax, %eax
	testb	$1, %al
	jne	LBB22_2
	.loc	4 0 20 is_stmt 0
	movq	-288(%rbp), %rax
	movq	-280(%rbp), %rcx
	.loc	4 225 76
	movq	%rax, -48(%rbp)
	.loc	4 225 84
	movq	%rcx, -40(%rbp)
Ltmp227:
	.loc	5 1034 18 is_stmt 1
	movq	%rax, -32(%rbp)
	.loc	5 1034 30 is_stmt 0
	movq	%rcx, -24(%rbp)
Ltmp228:
	.loc	5 487 18 is_stmt 1
	shlq	$4, %rcx
	addq	%rcx, %rax
	movq	%rax, -16(%rbp)
	movq	-16(%rbp), %rax
	movq	%rax, -256(%rbp)
Ltmp229:
	.loc	4 225 17
	jmp	LBB22_3
LBB22_2:
	.loc	4 0 17 is_stmt 0
	movq	-280(%rbp), %rcx
	movq	-288(%rbp), %rax
	.loc	4 225 32
	movq	%rax, -128(%rbp)
	.loc	4 225 54
	movq	%rcx, -120(%rbp)
Ltmp230:
	.loc	5 1220 9 is_stmt 1
	movq	%rax, -112(%rbp)
Ltmp231:
	.loc	5 60 9
	movq	%rax, -104(%rbp)
Ltmp232:
	.loc	5 1220 40
	movq	%rcx, -96(%rbp)
Ltmp233:
	.loc	5 1202 9
	movq	%rax, -88(%rbp)
	.loc	5 1202 30 is_stmt 0
	movq	%rcx, -80(%rbp)
Ltmp234:
	.loc	5 568 18 is_stmt 1
	addq	%rcx, %rax
	movq	%rax, -72(%rbp)
	movq	-72(%rbp), %rax
	movq	%rax, -64(%rbp)
Ltmp235:
	.loc	5 99 33
	movq	%rax, -56(%rbp)
Ltmp236:
	.loc	6 135 36
	movq	%rax, -224(%rbp)
	.loc	6 135 14 is_stmt 0
	movq	-224(%rbp), %rax
	movq	%rax, -232(%rbp)
	movq	-232(%rbp), %rax
	movq	%rax, -256(%rbp)
Ltmp237:
LBB22_3:
	.loc	6 0 14
	movq	-288(%rbp), %rax
Ltmp238:
	.loc	4 227 48 is_stmt 1
	movq	%rax, -8(%rbp)
Ltmp239:
	.loc	7 201 13
	movq	%rax, -248(%rbp)
Ltmp240:
	.loc	4 227 54
	movq	-256(%rbp), %rax
	.loc	4 227 13 is_stmt 0
	movq	-248(%rbp), %rcx
	movq	%rcx, -264(%rbp)
	movq	%rax, -272(%rbp)
Ltmp241:
	.loc	4 229 6 is_stmt 1
	movq	-272(%rbp), %rax
	movq	-264(%rbp), %rdx
	addq	$288, %rsp
	popq	%rbp
	retq
Ltmp242:
Lfunc_end22:
	.cfi_endproc

	.globl	__ZN4core5slice4iter16IterMut$LT$T$GT$3new17hd20c5d8ec7a77ff0E
	.p2align	4, 0x90
__ZN4core5slice4iter16IterMut$LT$T$GT$3new17hd20c5d8ec7a77ff0E:
Lfunc_begin23:
	.loc	4 203 0
	.cfi_startproc
	pushq	%rbp
	.cfi_def_cfa_offset 16
	.cfi_offset %rbp, -16
	movq	%rsp, %rbp
	.cfi_def_cfa_register %rbp
	subq	$288, %rsp
	movq	%rdi, -288(%rbp)
	movq	%rsi, -280(%rbp)
	movq	%rdi, -216(%rbp)
	movq	%rsi, -208(%rbp)
Ltmp243:
	.loc	4 204 19 prologue_end
	movq	%rdi, -192(%rbp)
	movq	%rsi, -184(%rbp)
Ltmp244:
	.loc	3 507 9
	movq	%rdi, -176(%rbp)
Ltmp245:
	.loc	4 222 21
	movq	%rdi, -168(%rbp)
Ltmp246:
	.loc	5 52 36
	movq	%rdi, -240(%rbp)
	.loc	5 52 18 is_stmt 0
	movq	-240(%rbp), %rax
	movq	%rax, -160(%rbp)
Ltmp247:
	.loc	5 38 13 is_stmt 1
	movq	%rax, -152(%rbp)
Ltmp248:
	.loc	5 215 33
	movq	%rax, -144(%rbp)
	.loc	5 215 18 is_stmt 0
	movq	%rax, -136(%rbp)
Ltmp249:
	.loc	4 225 20 is_stmt 1
	xorl	%eax, %eax
	testb	$1, %al
	jne	LBB23_2
	.loc	4 0 20 is_stmt 0
	movq	-288(%rbp), %rax
	movq	-280(%rbp), %rcx
	.loc	4 225 76
	movq	%rax, -48(%rbp)
	.loc	4 225 84
	movq	%rcx, -40(%rbp)
Ltmp250:
	.loc	5 1034 18 is_stmt 1
	movq	%rax, -32(%rbp)
	.loc	5 1034 30 is_stmt 0
	movq	%rcx, -24(%rbp)
Ltmp251:
	.loc	5 487 18 is_stmt 1
	shlq	$3, %rcx
	addq	%rcx, %rax
	movq	%rax, -16(%rbp)
	movq	-16(%rbp), %rax
	movq	%rax, -256(%rbp)
Ltmp252:
	.loc	4 225 17
	jmp	LBB23_3
LBB23_2:
	.loc	4 0 17 is_stmt 0
	movq	-280(%rbp), %rcx
	movq	-288(%rbp), %rax
	.loc	4 225 32
	movq	%rax, -128(%rbp)
	.loc	4 225 54
	movq	%rcx, -120(%rbp)
Ltmp253:
	.loc	5 1220 9 is_stmt 1
	movq	%rax, -112(%rbp)
Ltmp254:
	.loc	5 60 9
	movq	%rax, -104(%rbp)
Ltmp255:
	.loc	5 1220 40
	movq	%rcx, -96(%rbp)
Ltmp256:
	.loc	5 1202 9
	movq	%rax, -88(%rbp)
	.loc	5 1202 30 is_stmt 0
	movq	%rcx, -80(%rbp)
Ltmp257:
	.loc	5 568 18 is_stmt 1
	addq	%rcx, %rax
	movq	%rax, -72(%rbp)
	movq	-72(%rbp), %rax
	movq	%rax, -64(%rbp)
Ltmp258:
	.loc	5 99 33
	movq	%rax, -56(%rbp)
Ltmp259:
	.loc	6 135 36
	movq	%rax, -224(%rbp)
	.loc	6 135 14 is_stmt 0
	movq	-224(%rbp), %rax
	movq	%rax, -232(%rbp)
	movq	-232(%rbp), %rax
	movq	%rax, -256(%rbp)
Ltmp260:
LBB23_3:
	.loc	6 0 14
	movq	-288(%rbp), %rax
Ltmp261:
	.loc	4 227 48 is_stmt 1
	movq	%rax, -8(%rbp)
Ltmp262:
	.loc	7 201 13
	movq	%rax, -248(%rbp)
Ltmp263:
	.loc	4 227 54
	movq	-256(%rbp), %rax
	.loc	4 227 13 is_stmt 0
	movq	-248(%rbp), %rcx
	movq	%rcx, -264(%rbp)
	movq	%rax, -272(%rbp)
Ltmp264:
	.loc	4 229 6 is_stmt 1
	movq	-272(%rbp), %rax
	movq	-264(%rbp), %rdx
	addq	$288, %rsp
	popq	%rbp
	retq
Ltmp265:
Lfunc_end23:
	.cfi_endproc

	.globl	__ZN63_$LT$I$u20$as$u20$core..iter..traits..collect..IntoIterator$GT$9into_iter17h110b394fb28b74c7E
	.p2align	4, 0x90
__ZN63_$LT$I$u20$as$u20$core..iter..traits..collect..IntoIterator$GT$9into_iter17h110b394fb28b74c7E:
Lfunc_begin24:
	.file	8 "/rustc/2c8cc343237b8f7d5a3c3703e3a87f2eb2c54a74/library/core/src/iter/traits" "collect.rs"
	.loc	8 272 0
	.cfi_startproc
	pushq	%rbp
	.cfi_def_cfa_offset 16
	.cfi_offset %rbp, -16
	movq	%rsp, %rbp
	.cfi_def_cfa_register %rbp
	subq	$16, %rsp
	movq	%rsi, %rdx
	movq	%rdi, %rax
	movq	%rax, -16(%rbp)
	movq	%rdx, -8(%rbp)
Ltmp266:
	.loc	8 274 6 prologue_end
	addq	$16, %rsp
	popq	%rbp
	retq
Ltmp267:
Lfunc_end24:
	.cfi_endproc

	.globl	__ZN63_$LT$I$u20$as$u20$core..iter..traits..collect..IntoIterator$GT$9into_iter17h1b80a74f6b9dec37E
	.p2align	4, 0x90
__ZN63_$LT$I$u20$as$u20$core..iter..traits..collect..IntoIterator$GT$9into_iter17h1b80a74f6b9dec37E:
Lfunc_begin25:
	.loc	8 272 0
	.cfi_startproc
	pushq	%rbp
	.cfi_def_cfa_offset 16
	.cfi_offset %rbp, -16
	movq	%rsp, %rbp
	.cfi_def_cfa_register %rbp
	subq	$16, %rsp
	movq	%rsi, %rdx
	movq	%rdi, %rax
	movq	%rax, -16(%rbp)
	movq	%rdx, -8(%rbp)
Ltmp268:
	.loc	8 274 6 prologue_end
	addq	$16, %rsp
	popq	%rbp
	retq
Ltmp269:
Lfunc_end25:
	.cfi_endproc

	.globl	__ZN63_$LT$I$u20$as$u20$core..iter..traits..collect..IntoIterator$GT$9into_iter17h30dc2d2c8c0ae95fE
	.p2align	4, 0x90
__ZN63_$LT$I$u20$as$u20$core..iter..traits..collect..IntoIterator$GT$9into_iter17h30dc2d2c8c0ae95fE:
Lfunc_begin26:
	.loc	8 272 0
	.cfi_startproc
	pushq	%rbp
	.cfi_def_cfa_offset 16
	.cfi_offset %rbp, -16
	movq	%rsp, %rbp
	.cfi_def_cfa_register %rbp
	subq	$16, %rsp
	movq	%rsi, %rdx
	movq	%rdi, %rax
	movq	%rax, -16(%rbp)
	movq	%rdx, -8(%rbp)
Ltmp270:
	.loc	8 274 6 prologue_end
	addq	$16, %rsp
	popq	%rbp
	retq
Ltmp271:
Lfunc_end26:
	.cfi_endproc

	.globl	__ZN63_$LT$I$u20$as$u20$core..iter..traits..collect..IntoIterator$GT$9into_iter17h476b7c5080496ca6E
	.p2align	4, 0x90
__ZN63_$LT$I$u20$as$u20$core..iter..traits..collect..IntoIterator$GT$9into_iter17h476b7c5080496ca6E:
Lfunc_begin27:
	.loc	8 272 0
	.cfi_startproc
	pushq	%rbp
	.cfi_def_cfa_offset 16
	.cfi_offset %rbp, -16
	movq	%rsp, %rbp
	.cfi_def_cfa_register %rbp
	subq	$16, %rsp
	movq	%rsi, %rdx
	movq	%rdi, %rax
	movq	%rax, -16(%rbp)
	movq	%rdx, -8(%rbp)
Ltmp272:
	.loc	8 274 6 prologue_end
	addq	$16, %rsp
	popq	%rbp
	retq
Ltmp273:
Lfunc_end27:
	.cfi_endproc

	.globl	__ZN63_$LT$I$u20$as$u20$core..iter..traits..collect..IntoIterator$GT$9into_iter17h8bbba5510215640eE
	.p2align	4, 0x90
__ZN63_$LT$I$u20$as$u20$core..iter..traits..collect..IntoIterator$GT$9into_iter17h8bbba5510215640eE:
Lfunc_begin28:
	.loc	8 272 0
	.cfi_startproc
	pushq	%rbp
	.cfi_def_cfa_offset 16
	.cfi_offset %rbp, -16
	movq	%rsp, %rbp
	.cfi_def_cfa_register %rbp
	subq	$16, %rsp
	movq	%rsi, %rdx
	movq	%rdi, %rax
	movq	%rax, -16(%rbp)
	movq	%rdx, -8(%rbp)
Ltmp274:
	.loc	8 274 6 prologue_end
	addq	$16, %rsp
	popq	%rbp
	retq
Ltmp275:
Lfunc_end28:
	.cfi_endproc

	.globl	__ZN63_$LT$I$u20$as$u20$core..iter..traits..collect..IntoIterator$GT$9into_iter17ha836349713ec3b75E
	.p2align	4, 0x90
__ZN63_$LT$I$u20$as$u20$core..iter..traits..collect..IntoIterator$GT$9into_iter17ha836349713ec3b75E:
Lfunc_begin29:
	.loc	8 272 0
	.cfi_startproc
	pushq	%rbp
	.cfi_def_cfa_offset 16
	.cfi_offset %rbp, -16
	movq	%rsp, %rbp
	.cfi_def_cfa_register %rbp
	subq	$16, %rsp
	movq	%rsi, %rdx
	movq	%rdi, %rax
	movq	%rax, -16(%rbp)
	movq	%rdx, -8(%rbp)
Ltmp276:
	.loc	8 274 6 prologue_end
	addq	$16, %rsp
	popq	%rbp
	retq
Ltmp277:
Lfunc_end29:
	.cfi_endproc

	.globl	__ZN63_$LT$I$u20$as$u20$core..iter..traits..collect..IntoIterator$GT$9into_iter17hab4c6ce0c6dbca9cE
	.p2align	4, 0x90
__ZN63_$LT$I$u20$as$u20$core..iter..traits..collect..IntoIterator$GT$9into_iter17hab4c6ce0c6dbca9cE:
Lfunc_begin30:
	.loc	8 272 0
	.cfi_startproc
	pushq	%rbp
	.cfi_def_cfa_offset 16
	.cfi_offset %rbp, -16
	movq	%rsp, %rbp
	.cfi_def_cfa_register %rbp
	subq	$16, %rsp
	movq	%rsi, %rdx
	movq	%rdi, %rax
	movq	%rax, -16(%rbp)
	movq	%rdx, -8(%rbp)
Ltmp278:
	.loc	8 274 6 prologue_end
	addq	$16, %rsp
	popq	%rbp
	retq
Ltmp279:
Lfunc_end30:
	.cfi_endproc

	.globl	__ZN63_$LT$I$u20$as$u20$core..iter..traits..collect..IntoIterator$GT$9into_iter17hc15fb7911678de1dE
	.p2align	4, 0x90
__ZN63_$LT$I$u20$as$u20$core..iter..traits..collect..IntoIterator$GT$9into_iter17hc15fb7911678de1dE:
Lfunc_begin31:
	.loc	8 272 0
	.cfi_startproc
	pushq	%rbp
	.cfi_def_cfa_offset 16
	.cfi_offset %rbp, -16
	movq	%rsp, %rbp
	.cfi_def_cfa_register %rbp
	subq	$16, %rsp
	movq	%rsi, %rdx
	movq	%rdi, %rax
	movq	%rax, -16(%rbp)
	movq	%rdx, -8(%rbp)
Ltmp280:
	.loc	8 274 6 prologue_end
	addq	$16, %rsp
	popq	%rbp
	retq
Ltmp281:
Lfunc_end31:
	.cfi_endproc

	.globl	__ZN63_$LT$I$u20$as$u20$core..iter..traits..collect..IntoIterator$GT$9into_iter17hf9e7e948dea236d5E
	.p2align	4, 0x90
__ZN63_$LT$I$u20$as$u20$core..iter..traits..collect..IntoIterator$GT$9into_iter17hf9e7e948dea236d5E:
Lfunc_begin32:
	.loc	8 272 0
	.cfi_startproc
	pushq	%rbp
	.cfi_def_cfa_offset 16
	.cfi_offset %rbp, -16
	movq	%rsp, %rbp
	.cfi_def_cfa_register %rbp
	subq	$16, %rsp
	movq	%rsi, %rdx
	movq	%rdi, %rax
	movq	%rax, -16(%rbp)
	movq	%rdx, -8(%rbp)
Ltmp282:
	.loc	8 274 6 prologue_end
	addq	$16, %rsp
	popq	%rbp
	retq
Ltmp283:
Lfunc_end32:
	.cfi_endproc

	.globl	__ZN63_$LT$I$u20$as$u20$core..iter..traits..collect..IntoIterator$GT$9into_iter17hfa3b7bdb997b72beE
	.p2align	4, 0x90
__ZN63_$LT$I$u20$as$u20$core..iter..traits..collect..IntoIterator$GT$9into_iter17hfa3b7bdb997b72beE:
Lfunc_begin33:
	.loc	8 272 0
	.cfi_startproc
	pushq	%rbp
	.cfi_def_cfa_offset 16
	.cfi_offset %rbp, -16
	movq	%rsp, %rbp
	.cfi_def_cfa_register %rbp
	subq	$16, %rsp
	movq	%rsi, %rdx
	movq	%rdi, %rax
	movq	%rax, -16(%rbp)
	movq	%rdx, -8(%rbp)
Ltmp284:
	.loc	8 274 6 prologue_end
	addq	$16, %rsp
	popq	%rbp
	retq
Ltmp285:
Lfunc_end33:
	.cfi_endproc

	.globl	__ZN94_$LT$core..slice..iter..IterMut$LT$T$GT$$u20$as$u20$core..iter..traits..iterator..Iterator$GT$4next17h03474aa1826038b4E
	.p2align	4, 0x90
__ZN94_$LT$core..slice..iter..IterMut$LT$T$GT$$u20$as$u20$core..iter..traits..iterator..Iterator$GT$4next17h03474aa1826038b4E:
Lfunc_begin34:
	.file	9 "/rustc/2c8cc343237b8f7d5a3c3703e3a87f2eb2c54a74/library/core/src/slice/iter" "macros.rs"
	.loc	9 124 0
	.cfi_startproc
	pushq	%rbp
	.cfi_def_cfa_offset 16
	.cfi_offset %rbp, -16
	movq	%rsp, %rbp
	.cfi_def_cfa_register %rbp
	subq	$304, %rsp
	movq	%rdi, -304(%rbp)
	movq	%rdi, -240(%rbp)
Ltmp286:
	.loc	9 132 29 prologue_end
	movq	8(%rdi), %rax
	movq	%rax, -224(%rbp)
Ltmp287:
	.loc	7 326 9
	movq	%rax, -216(%rbp)
Ltmp288:
	.loc	5 52 36
	movq	%rax, -280(%rbp)
	.loc	5 52 18 is_stmt 0
	movq	-280(%rbp), %rax
	movq	%rax, -208(%rbp)
Ltmp289:
	.loc	5 38 13 is_stmt 1
	movq	%rax, -200(%rbp)
Ltmp290:
	.loc	5 215 33
	movq	%rax, -192(%rbp)
	.loc	5 215 18 is_stmt 0
	movq	%rax, -184(%rbp)
Ltmp291:
	.loc	9 133 24 is_stmt 1
	movb	$1, %al
	testb	$1, %al
	jne	LBB34_2
LBB34_1:
	.loc	9 0 24 is_stmt 0
	movq	-304(%rbp), %rcx
	.loc	9 136 24 is_stmt 1
	movq	8(%rcx), %rax
	movq	%rax, -136(%rbp)
	cmpq	(%rcx), %rax
	je	LBB34_4
	jmp	LBB34_3
LBB34_2:
	.loc	9 0 24 is_stmt 0
	movq	-304(%rbp), %rax
	.loc	9 134 33 is_stmt 1
	movq	(%rax), %rax
	movq	%rax, -176(%rbp)
Ltmp292:
	.loc	5 52 36
	movq	%rax, -272(%rbp)
	.loc	5 52 18 is_stmt 0
	movq	-272(%rbp), %rax
	movq	%rax, -168(%rbp)
Ltmp293:
	.loc	5 38 13 is_stmt 1
	movq	%rax, -160(%rbp)
Ltmp294:
	.loc	5 215 33
	movq	%rax, -152(%rbp)
	.loc	5 215 18 is_stmt 0
	movq	%rax, -144(%rbp)
Ltmp295:
	.loc	9 133 21 is_stmt 1
	jmp	LBB34_1
LBB34_3:
	.loc	9 0 21 is_stmt 0
	movq	-304(%rbp), %rax
	.loc	9 139 30 is_stmt 1
	movq	%rax, -128(%rbp)
Ltmp296:
	.loc	9 76 20
	xorl	%eax, %eax
	testb	$1, %al
	jne	LBB34_6
	jmp	LBB34_7
Ltmp297:
LBB34_4:
	.loc	9 137 25
	movq	$0, -296(%rbp)
LBB34_5:
	.loc	9 142 14
	movq	-296(%rbp), %rax
	addq	$304, %rsp
	popq	%rbp
	retq
LBB34_6:
	.loc	9 0 14 is_stmt 0
	movq	-304(%rbp), %rax
Ltmp298:
	.loc	9 57 29 is_stmt 1
	movq	(%rax), %rcx
	movq	%rcx, -64(%rbp)
Ltmp299:
	.loc	5 1300 9
	movq	%rcx, -56(%rbp)
Ltmp300:
	.loc	5 60 9
	movq	%rcx, -48(%rbp)
Ltmp301:
	.loc	5 1282 9
	movq	%rcx, -40(%rbp)
Ltmp302:
	.loc	5 568 18
	addq	$-1, %rcx
	movq	%rcx, -32(%rbp)
	movq	-32(%rbp), %rcx
	movq	%rcx, -24(%rbp)
Ltmp303:
	.loc	5 99 33
	movq	%rcx, -16(%rbp)
Ltmp304:
	.loc	6 135 36
	movq	%rcx, -248(%rbp)
	.loc	6 135 14 is_stmt 0
	movq	-248(%rbp), %rcx
	movq	%rcx, -256(%rbp)
	movq	-256(%rbp), %rcx
Ltmp305:
	.loc	9 57 17 is_stmt 1
	movq	%rcx, (%rax)
	.loc	9 78 21
	movq	8(%rax), %rax
	movq	%rax, -8(%rbp)
Ltmp306:
	.loc	7 326 9
	movq	%rax, -288(%rbp)
Ltmp307:
	.loc	9 76 17
	jmp	LBB34_8
LBB34_7:
	.loc	9 0 17 is_stmt 0
	movq	-304(%rbp), %rcx
	.loc	9 80 31 is_stmt 1
	movq	8(%rcx), %rax
	movq	%rax, -120(%rbp)
Ltmp308:
	.loc	7 326 9
	movq	%rax, -112(%rbp)
Ltmp309:
	.loc	9 83 64
	movq	8(%rcx), %rdx
	movq	%rdx, -104(%rbp)
Ltmp310:
	.loc	7 326 9
	movq	%rdx, -96(%rbp)
Ltmp311:
	.loc	5 1034 18
	movq	%rdx, -88(%rbp)
Ltmp312:
	.loc	5 487 18
	addq	$4, %rdx
	movq	%rdx, -80(%rbp)
	movq	-80(%rbp), %rdx
	movq	%rdx, -72(%rbp)
Ltmp313:
	.loc	7 201 13
	movq	%rdx, -264(%rbp)
Ltmp314:
	.loc	9 83 21
	movq	-264(%rbp), %rdx
	movq	%rdx, 8(%rcx)
	.loc	9 84 21
	movq	%rax, -288(%rbp)
Ltmp315:
LBB34_8:
	.loc	9 139 30
	movq	-288(%rbp), %rax
	.loc	9 139 25 is_stmt 0
	movq	%rax, -296(%rbp)
	.loc	9 136 21 is_stmt 1
	jmp	LBB34_5
Ltmp316:
Lfunc_end34:
	.cfi_endproc

	.globl	__ZN94_$LT$core..slice..iter..IterMut$LT$T$GT$$u20$as$u20$core..iter..traits..iterator..Iterator$GT$4next17h0f9c792fa8619d4aE
	.p2align	4, 0x90
__ZN94_$LT$core..slice..iter..IterMut$LT$T$GT$$u20$as$u20$core..iter..traits..iterator..Iterator$GT$4next17h0f9c792fa8619d4aE:
Lfunc_begin35:
	.loc	9 124 0
	.cfi_startproc
	pushq	%rbp
	.cfi_def_cfa_offset 16
	.cfi_offset %rbp, -16
	movq	%rsp, %rbp
	.cfi_def_cfa_register %rbp
	subq	$304, %rsp
	movq	%rdi, -304(%rbp)
	movq	%rdi, -240(%rbp)
Ltmp317:
	.loc	9 132 29 prologue_end
	movq	8(%rdi), %rax
	movq	%rax, -224(%rbp)
Ltmp318:
	.loc	7 326 9
	movq	%rax, -216(%rbp)
Ltmp319:
	.loc	5 52 36
	movq	%rax, -280(%rbp)
	.loc	5 52 18 is_stmt 0
	movq	-280(%rbp), %rax
	movq	%rax, -208(%rbp)
Ltmp320:
	.loc	5 38 13 is_stmt 1
	movq	%rax, -200(%rbp)
Ltmp321:
	.loc	5 215 33
	movq	%rax, -192(%rbp)
	.loc	5 215 18 is_stmt 0
	movq	%rax, -184(%rbp)
Ltmp322:
	.loc	9 133 24 is_stmt 1
	movb	$1, %al
	testb	$1, %al
	jne	LBB35_2
LBB35_1:
	.loc	9 0 24 is_stmt 0
	movq	-304(%rbp), %rcx
	.loc	9 136 24 is_stmt 1
	movq	8(%rcx), %rax
	movq	%rax, -136(%rbp)
	cmpq	(%rcx), %rax
	je	LBB35_4
	jmp	LBB35_3
LBB35_2:
	.loc	9 0 24 is_stmt 0
	movq	-304(%rbp), %rax
	.loc	9 134 33 is_stmt 1
	movq	(%rax), %rax
	movq	%rax, -176(%rbp)
Ltmp323:
	.loc	5 52 36
	movq	%rax, -272(%rbp)
	.loc	5 52 18 is_stmt 0
	movq	-272(%rbp), %rax
	movq	%rax, -168(%rbp)
Ltmp324:
	.loc	5 38 13 is_stmt 1
	movq	%rax, -160(%rbp)
Ltmp325:
	.loc	5 215 33
	movq	%rax, -152(%rbp)
	.loc	5 215 18 is_stmt 0
	movq	%rax, -144(%rbp)
Ltmp326:
	.loc	9 133 21 is_stmt 1
	jmp	LBB35_1
LBB35_3:
	.loc	9 0 21 is_stmt 0
	movq	-304(%rbp), %rax
	.loc	9 139 30 is_stmt 1
	movq	%rax, -128(%rbp)
Ltmp327:
	.loc	9 76 20
	xorl	%eax, %eax
	testb	$1, %al
	jne	LBB35_6
	jmp	LBB35_7
Ltmp328:
LBB35_4:
	.loc	9 137 25
	movq	$0, -296(%rbp)
LBB35_5:
	.loc	9 142 14
	movq	-296(%rbp), %rax
	addq	$304, %rsp
	popq	%rbp
	retq
LBB35_6:
	.loc	9 0 14 is_stmt 0
	movq	-304(%rbp), %rax
Ltmp329:
	.loc	9 57 29 is_stmt 1
	movq	(%rax), %rcx
	movq	%rcx, -64(%rbp)
Ltmp330:
	.loc	5 1300 9
	movq	%rcx, -56(%rbp)
Ltmp331:
	.loc	5 60 9
	movq	%rcx, -48(%rbp)
Ltmp332:
	.loc	5 1282 9
	movq	%rcx, -40(%rbp)
Ltmp333:
	.loc	5 568 18
	addq	$-1, %rcx
	movq	%rcx, -32(%rbp)
	movq	-32(%rbp), %rcx
	movq	%rcx, -24(%rbp)
Ltmp334:
	.loc	5 99 33
	movq	%rcx, -16(%rbp)
Ltmp335:
	.loc	6 135 36
	movq	%rcx, -248(%rbp)
	.loc	6 135 14 is_stmt 0
	movq	-248(%rbp), %rcx
	movq	%rcx, -256(%rbp)
	movq	-256(%rbp), %rcx
Ltmp336:
	.loc	9 57 17 is_stmt 1
	movq	%rcx, (%rax)
	.loc	9 78 21
	movq	8(%rax), %rax
	movq	%rax, -8(%rbp)
Ltmp337:
	.loc	7 326 9
	movq	%rax, -288(%rbp)
Ltmp338:
	.loc	9 76 17
	jmp	LBB35_8
LBB35_7:
	.loc	9 0 17 is_stmt 0
	movq	-304(%rbp), %rcx
	.loc	9 80 31 is_stmt 1
	movq	8(%rcx), %rax
	movq	%rax, -120(%rbp)
Ltmp339:
	.loc	7 326 9
	movq	%rax, -112(%rbp)
Ltmp340:
	.loc	9 83 64
	movq	8(%rcx), %rdx
	movq	%rdx, -104(%rbp)
Ltmp341:
	.loc	7 326 9
	movq	%rdx, -96(%rbp)
Ltmp342:
	.loc	5 1034 18
	movq	%rdx, -88(%rbp)
Ltmp343:
	.loc	5 487 18
	addq	$16, %rdx
	movq	%rdx, -80(%rbp)
	movq	-80(%rbp), %rdx
	movq	%rdx, -72(%rbp)
Ltmp344:
	.loc	7 201 13
	movq	%rdx, -264(%rbp)
Ltmp345:
	.loc	9 83 21
	movq	-264(%rbp), %rdx
	movq	%rdx, 8(%rcx)
	.loc	9 84 21
	movq	%rax, -288(%rbp)
Ltmp346:
LBB35_8:
	.loc	9 139 30
	movq	-288(%rbp), %rax
	.loc	9 139 25 is_stmt 0
	movq	%rax, -296(%rbp)
	.loc	9 136 21 is_stmt 1
	jmp	LBB35_5
Ltmp347:
Lfunc_end35:
	.cfi_endproc

	.globl	__ZN94_$LT$core..slice..iter..IterMut$LT$T$GT$$u20$as$u20$core..iter..traits..iterator..Iterator$GT$4next17h2b487de0391c7011E
	.p2align	4, 0x90
__ZN94_$LT$core..slice..iter..IterMut$LT$T$GT$$u20$as$u20$core..iter..traits..iterator..Iterator$GT$4next17h2b487de0391c7011E:
Lfunc_begin36:
	.loc	9 124 0
	.cfi_startproc
	pushq	%rbp
	.cfi_def_cfa_offset 16
	.cfi_offset %rbp, -16
	movq	%rsp, %rbp
	.cfi_def_cfa_register %rbp
	subq	$304, %rsp
	movq	%rdi, -304(%rbp)
	movq	%rdi, -240(%rbp)
Ltmp348:
	.loc	9 132 29 prologue_end
	movq	8(%rdi), %rax
	movq	%rax, -224(%rbp)
Ltmp349:
	.loc	7 326 9
	movq	%rax, -216(%rbp)
Ltmp350:
	.loc	5 52 36
	movq	%rax, -280(%rbp)
	.loc	5 52 18 is_stmt 0
	movq	-280(%rbp), %rax
	movq	%rax, -208(%rbp)
Ltmp351:
	.loc	5 38 13 is_stmt 1
	movq	%rax, -200(%rbp)
Ltmp352:
	.loc	5 215 33
	movq	%rax, -192(%rbp)
	.loc	5 215 18 is_stmt 0
	movq	%rax, -184(%rbp)
Ltmp353:
	.loc	9 133 24 is_stmt 1
	movb	$1, %al
	testb	$1, %al
	jne	LBB36_2
LBB36_1:
	.loc	9 0 24 is_stmt 0
	movq	-304(%rbp), %rcx
	.loc	9 136 24 is_stmt 1
	movq	8(%rcx), %rax
	movq	%rax, -136(%rbp)
	cmpq	(%rcx), %rax
	je	LBB36_4
	jmp	LBB36_3
LBB36_2:
	.loc	9 0 24 is_stmt 0
	movq	-304(%rbp), %rax
	.loc	9 134 33 is_stmt 1
	movq	(%rax), %rax
	movq	%rax, -176(%rbp)
Ltmp354:
	.loc	5 52 36
	movq	%rax, -272(%rbp)
	.loc	5 52 18 is_stmt 0
	movq	-272(%rbp), %rax
	movq	%rax, -168(%rbp)
Ltmp355:
	.loc	5 38 13 is_stmt 1
	movq	%rax, -160(%rbp)
Ltmp356:
	.loc	5 215 33
	movq	%rax, -152(%rbp)
	.loc	5 215 18 is_stmt 0
	movq	%rax, -144(%rbp)
Ltmp357:
	.loc	9 133 21 is_stmt 1
	jmp	LBB36_1
LBB36_3:
	.loc	9 0 21 is_stmt 0
	movq	-304(%rbp), %rax
	.loc	9 139 30 is_stmt 1
	movq	%rax, -128(%rbp)
Ltmp358:
	.loc	9 76 20
	xorl	%eax, %eax
	testb	$1, %al
	jne	LBB36_6
	jmp	LBB36_7
Ltmp359:
LBB36_4:
	.loc	9 137 25
	movq	$0, -296(%rbp)
LBB36_5:
	.loc	9 142 14
	movq	-296(%rbp), %rax
	addq	$304, %rsp
	popq	%rbp
	retq
LBB36_6:
	.loc	9 0 14 is_stmt 0
	movq	-304(%rbp), %rax
Ltmp360:
	.loc	9 57 29 is_stmt 1
	movq	(%rax), %rcx
	movq	%rcx, -64(%rbp)
Ltmp361:
	.loc	5 1300 9
	movq	%rcx, -56(%rbp)
Ltmp362:
	.loc	5 60 9
	movq	%rcx, -48(%rbp)
Ltmp363:
	.loc	5 1282 9
	movq	%rcx, -40(%rbp)
Ltmp364:
	.loc	5 568 18
	addq	$-1, %rcx
	movq	%rcx, -32(%rbp)
	movq	-32(%rbp), %rcx
	movq	%rcx, -24(%rbp)
Ltmp365:
	.loc	5 99 33
	movq	%rcx, -16(%rbp)
Ltmp366:
	.loc	6 135 36
	movq	%rcx, -248(%rbp)
	.loc	6 135 14 is_stmt 0
	movq	-248(%rbp), %rcx
	movq	%rcx, -256(%rbp)
	movq	-256(%rbp), %rcx
Ltmp367:
	.loc	9 57 17 is_stmt 1
	movq	%rcx, (%rax)
	.loc	9 78 21
	movq	8(%rax), %rax
	movq	%rax, -8(%rbp)
Ltmp368:
	.loc	7 326 9
	movq	%rax, -288(%rbp)
Ltmp369:
	.loc	9 76 17
	jmp	LBB36_8
LBB36_7:
	.loc	9 0 17 is_stmt 0
	movq	-304(%rbp), %rcx
	.loc	9 80 31 is_stmt 1
	movq	8(%rcx), %rax
	movq	%rax, -120(%rbp)
Ltmp370:
	.loc	7 326 9
	movq	%rax, -112(%rbp)
Ltmp371:
	.loc	9 83 64
	movq	8(%rcx), %rdx
	movq	%rdx, -104(%rbp)
Ltmp372:
	.loc	7 326 9
	movq	%rdx, -96(%rbp)
Ltmp373:
	.loc	5 1034 18
	movq	%rdx, -88(%rbp)
Ltmp374:
	.loc	5 487 18
	addq	$16, %rdx
	movq	%rdx, -80(%rbp)
	movq	-80(%rbp), %rdx
	movq	%rdx, -72(%rbp)
Ltmp375:
	.loc	7 201 13
	movq	%rdx, -264(%rbp)
Ltmp376:
	.loc	9 83 21
	movq	-264(%rbp), %rdx
	movq	%rdx, 8(%rcx)
	.loc	9 84 21
	movq	%rax, -288(%rbp)
Ltmp377:
LBB36_8:
	.loc	9 139 30
	movq	-288(%rbp), %rax
	.loc	9 139 25 is_stmt 0
	movq	%rax, -296(%rbp)
	.loc	9 136 21 is_stmt 1
	jmp	LBB36_5
Ltmp378:
Lfunc_end36:
	.cfi_endproc

	.globl	__ZN94_$LT$core..slice..iter..IterMut$LT$T$GT$$u20$as$u20$core..iter..traits..iterator..Iterator$GT$4next17h2ca7bf11fb920797E
	.p2align	4, 0x90
__ZN94_$LT$core..slice..iter..IterMut$LT$T$GT$$u20$as$u20$core..iter..traits..iterator..Iterator$GT$4next17h2ca7bf11fb920797E:
Lfunc_begin37:
	.loc	9 124 0
	.cfi_startproc
	pushq	%rbp
	.cfi_def_cfa_offset 16
	.cfi_offset %rbp, -16
	movq	%rsp, %rbp
	.cfi_def_cfa_register %rbp
	subq	$304, %rsp
	movq	%rdi, -304(%rbp)
	movq	%rdi, -240(%rbp)
Ltmp379:
	.loc	9 132 29 prologue_end
	movq	8(%rdi), %rax
	movq	%rax, -224(%rbp)
Ltmp380:
	.loc	7 326 9
	movq	%rax, -216(%rbp)
Ltmp381:
	.loc	5 52 36
	movq	%rax, -280(%rbp)
	.loc	5 52 18 is_stmt 0
	movq	-280(%rbp), %rax
	movq	%rax, -208(%rbp)
Ltmp382:
	.loc	5 38 13 is_stmt 1
	movq	%rax, -200(%rbp)
Ltmp383:
	.loc	5 215 33
	movq	%rax, -192(%rbp)
	.loc	5 215 18 is_stmt 0
	movq	%rax, -184(%rbp)
Ltmp384:
	.loc	9 133 24 is_stmt 1
	movb	$1, %al
	testb	$1, %al
	jne	LBB37_2
LBB37_1:
	.loc	9 0 24 is_stmt 0
	movq	-304(%rbp), %rcx
	.loc	9 136 24 is_stmt 1
	movq	8(%rcx), %rax
	movq	%rax, -136(%rbp)
	cmpq	(%rcx), %rax
	je	LBB37_4
	jmp	LBB37_3
LBB37_2:
	.loc	9 0 24 is_stmt 0
	movq	-304(%rbp), %rax
	.loc	9 134 33 is_stmt 1
	movq	(%rax), %rax
	movq	%rax, -176(%rbp)
Ltmp385:
	.loc	5 52 36
	movq	%rax, -272(%rbp)
	.loc	5 52 18 is_stmt 0
	movq	-272(%rbp), %rax
	movq	%rax, -168(%rbp)
Ltmp386:
	.loc	5 38 13 is_stmt 1
	movq	%rax, -160(%rbp)
Ltmp387:
	.loc	5 215 33
	movq	%rax, -152(%rbp)
	.loc	5 215 18 is_stmt 0
	movq	%rax, -144(%rbp)
Ltmp388:
	.loc	9 133 21 is_stmt 1
	jmp	LBB37_1
LBB37_3:
	.loc	9 0 21 is_stmt 0
	movq	-304(%rbp), %rax
	.loc	9 139 30 is_stmt 1
	movq	%rax, -128(%rbp)
Ltmp389:
	.loc	9 76 20
	xorl	%eax, %eax
	testb	$1, %al
	jne	LBB37_6
	jmp	LBB37_7
Ltmp390:
LBB37_4:
	.loc	9 137 25
	movq	$0, -296(%rbp)
LBB37_5:
	.loc	9 142 14
	movq	-296(%rbp), %rax
	addq	$304, %rsp
	popq	%rbp
	retq
LBB37_6:
	.loc	9 0 14 is_stmt 0
	movq	-304(%rbp), %rax
Ltmp391:
	.loc	9 57 29 is_stmt 1
	movq	(%rax), %rcx
	movq	%rcx, -64(%rbp)
Ltmp392:
	.loc	5 1300 9
	movq	%rcx, -56(%rbp)
Ltmp393:
	.loc	5 60 9
	movq	%rcx, -48(%rbp)
Ltmp394:
	.loc	5 1282 9
	movq	%rcx, -40(%rbp)
Ltmp395:
	.loc	5 568 18
	addq	$-1, %rcx
	movq	%rcx, -32(%rbp)
	movq	-32(%rbp), %rcx
	movq	%rcx, -24(%rbp)
Ltmp396:
	.loc	5 99 33
	movq	%rcx, -16(%rbp)
Ltmp397:
	.loc	6 135 36
	movq	%rcx, -248(%rbp)
	.loc	6 135 14 is_stmt 0
	movq	-248(%rbp), %rcx
	movq	%rcx, -256(%rbp)
	movq	-256(%rbp), %rcx
Ltmp398:
	.loc	9 57 17 is_stmt 1
	movq	%rcx, (%rax)
	.loc	9 78 21
	movq	8(%rax), %rax
	movq	%rax, -8(%rbp)
Ltmp399:
	.loc	7 326 9
	movq	%rax, -288(%rbp)
Ltmp400:
	.loc	9 76 17
	jmp	LBB37_8
LBB37_7:
	.loc	9 0 17 is_stmt 0
	movq	-304(%rbp), %rcx
	.loc	9 80 31 is_stmt 1
	movq	8(%rcx), %rax
	movq	%rax, -120(%rbp)
Ltmp401:
	.loc	7 326 9
	movq	%rax, -112(%rbp)
Ltmp402:
	.loc	9 83 64
	movq	8(%rcx), %rdx
	movq	%rdx, -104(%rbp)
Ltmp403:
	.loc	7 326 9
	movq	%rdx, -96(%rbp)
Ltmp404:
	.loc	5 1034 18
	movq	%rdx, -88(%rbp)
Ltmp405:
	.loc	5 487 18
	addq	$8, %rdx
	movq	%rdx, -80(%rbp)
	movq	-80(%rbp), %rdx
	movq	%rdx, -72(%rbp)
Ltmp406:
	.loc	7 201 13
	movq	%rdx, -264(%rbp)
Ltmp407:
	.loc	9 83 21
	movq	-264(%rbp), %rdx
	movq	%rdx, 8(%rcx)
	.loc	9 84 21
	movq	%rax, -288(%rbp)
Ltmp408:
LBB37_8:
	.loc	9 139 30
	movq	-288(%rbp), %rax
	.loc	9 139 25 is_stmt 0
	movq	%rax, -296(%rbp)
	.loc	9 136 21 is_stmt 1
	jmp	LBB37_5
Ltmp409:
Lfunc_end37:
	.cfi_endproc

	.globl	__ZN94_$LT$core..slice..iter..IterMut$LT$T$GT$$u20$as$u20$core..iter..traits..iterator..Iterator$GT$4next17h577bdb32f3fae888E
	.p2align	4, 0x90
__ZN94_$LT$core..slice..iter..IterMut$LT$T$GT$$u20$as$u20$core..iter..traits..iterator..Iterator$GT$4next17h577bdb32f3fae888E:
Lfunc_begin38:
	.loc	9 124 0
	.cfi_startproc
	pushq	%rbp
	.cfi_def_cfa_offset 16
	.cfi_offset %rbp, -16
	movq	%rsp, %rbp
	.cfi_def_cfa_register %rbp
	subq	$304, %rsp
	movq	%rdi, -304(%rbp)
	movq	%rdi, -240(%rbp)
Ltmp410:
	.loc	9 132 29 prologue_end
	movq	8(%rdi), %rax
	movq	%rax, -224(%rbp)
Ltmp411:
	.loc	7 326 9
	movq	%rax, -216(%rbp)
Ltmp412:
	.loc	5 52 36
	movq	%rax, -280(%rbp)
	.loc	5 52 18 is_stmt 0
	movq	-280(%rbp), %rax
	movq	%rax, -208(%rbp)
Ltmp413:
	.loc	5 38 13 is_stmt 1
	movq	%rax, -200(%rbp)
Ltmp414:
	.loc	5 215 33
	movq	%rax, -192(%rbp)
	.loc	5 215 18 is_stmt 0
	movq	%rax, -184(%rbp)
Ltmp415:
	.loc	9 133 24 is_stmt 1
	movb	$1, %al
	testb	$1, %al
	jne	LBB38_2
LBB38_1:
	.loc	9 0 24 is_stmt 0
	movq	-304(%rbp), %rcx
	.loc	9 136 24 is_stmt 1
	movq	8(%rcx), %rax
	movq	%rax, -136(%rbp)
	cmpq	(%rcx), %rax
	je	LBB38_4
	jmp	LBB38_3
LBB38_2:
	.loc	9 0 24 is_stmt 0
	movq	-304(%rbp), %rax
	.loc	9 134 33 is_stmt 1
	movq	(%rax), %rax
	movq	%rax, -176(%rbp)
Ltmp416:
	.loc	5 52 36
	movq	%rax, -272(%rbp)
	.loc	5 52 18 is_stmt 0
	movq	-272(%rbp), %rax
	movq	%rax, -168(%rbp)
Ltmp417:
	.loc	5 38 13 is_stmt 1
	movq	%rax, -160(%rbp)
Ltmp418:
	.loc	5 215 33
	movq	%rax, -152(%rbp)
	.loc	5 215 18 is_stmt 0
	movq	%rax, -144(%rbp)
Ltmp419:
	.loc	9 133 21 is_stmt 1
	jmp	LBB38_1
LBB38_3:
	.loc	9 0 21 is_stmt 0
	movq	-304(%rbp), %rax
	.loc	9 139 30 is_stmt 1
	movq	%rax, -128(%rbp)
Ltmp420:
	.loc	9 76 20
	xorl	%eax, %eax
	testb	$1, %al
	jne	LBB38_6
	jmp	LBB38_7
Ltmp421:
LBB38_4:
	.loc	9 137 25
	movq	$0, -296(%rbp)
LBB38_5:
	.loc	9 142 14
	movq	-296(%rbp), %rax
	addq	$304, %rsp
	popq	%rbp
	retq
LBB38_6:
	.loc	9 0 14 is_stmt 0
	movq	-304(%rbp), %rax
Ltmp422:
	.loc	9 57 29 is_stmt 1
	movq	(%rax), %rcx
	movq	%rcx, -64(%rbp)
Ltmp423:
	.loc	5 1300 9
	movq	%rcx, -56(%rbp)
Ltmp424:
	.loc	5 60 9
	movq	%rcx, -48(%rbp)
Ltmp425:
	.loc	5 1282 9
	movq	%rcx, -40(%rbp)
Ltmp426:
	.loc	5 568 18
	addq	$-1, %rcx
	movq	%rcx, -32(%rbp)
	movq	-32(%rbp), %rcx
	movq	%rcx, -24(%rbp)
Ltmp427:
	.loc	5 99 33
	movq	%rcx, -16(%rbp)
Ltmp428:
	.loc	6 135 36
	movq	%rcx, -248(%rbp)
	.loc	6 135 14 is_stmt 0
	movq	-248(%rbp), %rcx
	movq	%rcx, -256(%rbp)
	movq	-256(%rbp), %rcx
Ltmp429:
	.loc	9 57 17 is_stmt 1
	movq	%rcx, (%rax)
	.loc	9 78 21
	movq	8(%rax), %rax
	movq	%rax, -8(%rbp)
Ltmp430:
	.loc	7 326 9
	movq	%rax, -288(%rbp)
Ltmp431:
	.loc	9 76 17
	jmp	LBB38_8
LBB38_7:
	.loc	9 0 17 is_stmt 0
	movq	-304(%rbp), %rcx
	.loc	9 80 31 is_stmt 1
	movq	8(%rcx), %rax
	movq	%rax, -120(%rbp)
Ltmp432:
	.loc	7 326 9
	movq	%rax, -112(%rbp)
Ltmp433:
	.loc	9 83 64
	movq	8(%rcx), %rdx
	movq	%rdx, -104(%rbp)
Ltmp434:
	.loc	7 326 9
	movq	%rdx, -96(%rbp)
Ltmp435:
	.loc	5 1034 18
	movq	%rdx, -88(%rbp)
Ltmp436:
	.loc	5 487 18
	addq	$2, %rdx
	movq	%rdx, -80(%rbp)
	movq	-80(%rbp), %rdx
	movq	%rdx, -72(%rbp)
Ltmp437:
	.loc	7 201 13
	movq	%rdx, -264(%rbp)
Ltmp438:
	.loc	9 83 21
	movq	-264(%rbp), %rdx
	movq	%rdx, 8(%rcx)
	.loc	9 84 21
	movq	%rax, -288(%rbp)
Ltmp439:
LBB38_8:
	.loc	9 139 30
	movq	-288(%rbp), %rax
	.loc	9 139 25 is_stmt 0
	movq	%rax, -296(%rbp)
	.loc	9 136 21 is_stmt 1
	jmp	LBB38_5
Ltmp440:
Lfunc_end38:
	.cfi_endproc

	.globl	__ZN94_$LT$core..slice..iter..IterMut$LT$T$GT$$u20$as$u20$core..iter..traits..iterator..Iterator$GT$4next17h79364c9c01758856E
	.p2align	4, 0x90
__ZN94_$LT$core..slice..iter..IterMut$LT$T$GT$$u20$as$u20$core..iter..traits..iterator..Iterator$GT$4next17h79364c9c01758856E:
Lfunc_begin39:
	.loc	9 124 0
	.cfi_startproc
	pushq	%rbp
	.cfi_def_cfa_offset 16
	.cfi_offset %rbp, -16
	movq	%rsp, %rbp
	.cfi_def_cfa_register %rbp
	subq	$304, %rsp
	movq	%rdi, -304(%rbp)
	movq	%rdi, -240(%rbp)
Ltmp441:
	.loc	9 132 29 prologue_end
	movq	8(%rdi), %rax
	movq	%rax, -224(%rbp)
Ltmp442:
	.loc	7 326 9
	movq	%rax, -216(%rbp)
Ltmp443:
	.loc	5 52 36
	movq	%rax, -280(%rbp)
	.loc	5 52 18 is_stmt 0
	movq	-280(%rbp), %rax
	movq	%rax, -208(%rbp)
Ltmp444:
	.loc	5 38 13 is_stmt 1
	movq	%rax, -200(%rbp)
Ltmp445:
	.loc	5 215 33
	movq	%rax, -192(%rbp)
	.loc	5 215 18 is_stmt 0
	movq	%rax, -184(%rbp)
Ltmp446:
	.loc	9 133 24 is_stmt 1
	movb	$1, %al
	testb	$1, %al
	jne	LBB39_2
LBB39_1:
	.loc	9 0 24 is_stmt 0
	movq	-304(%rbp), %rcx
	.loc	9 136 24 is_stmt 1
	movq	8(%rcx), %rax
	movq	%rax, -136(%rbp)
	cmpq	(%rcx), %rax
	je	LBB39_4
	jmp	LBB39_3
LBB39_2:
	.loc	9 0 24 is_stmt 0
	movq	-304(%rbp), %rax
	.loc	9 134 33 is_stmt 1
	movq	(%rax), %rax
	movq	%rax, -176(%rbp)
Ltmp447:
	.loc	5 52 36
	movq	%rax, -272(%rbp)
	.loc	5 52 18 is_stmt 0
	movq	-272(%rbp), %rax
	movq	%rax, -168(%rbp)
Ltmp448:
	.loc	5 38 13 is_stmt 1
	movq	%rax, -160(%rbp)
Ltmp449:
	.loc	5 215 33
	movq	%rax, -152(%rbp)
	.loc	5 215 18 is_stmt 0
	movq	%rax, -144(%rbp)
Ltmp450:
	.loc	9 133 21 is_stmt 1
	jmp	LBB39_1
LBB39_3:
	.loc	9 0 21 is_stmt 0
	movq	-304(%rbp), %rax
	.loc	9 139 30 is_stmt 1
	movq	%rax, -128(%rbp)
Ltmp451:
	.loc	9 76 20
	xorl	%eax, %eax
	testb	$1, %al
	jne	LBB39_6
	jmp	LBB39_7
Ltmp452:
LBB39_4:
	.loc	9 137 25
	movq	$0, -296(%rbp)
LBB39_5:
	.loc	9 142 14
	movq	-296(%rbp), %rax
	addq	$304, %rsp
	popq	%rbp
	retq
LBB39_6:
	.loc	9 0 14 is_stmt 0
	movq	-304(%rbp), %rax
Ltmp453:
	.loc	9 57 29 is_stmt 1
	movq	(%rax), %rcx
	movq	%rcx, -64(%rbp)
Ltmp454:
	.loc	5 1300 9
	movq	%rcx, -56(%rbp)
Ltmp455:
	.loc	5 60 9
	movq	%rcx, -48(%rbp)
Ltmp456:
	.loc	5 1282 9
	movq	%rcx, -40(%rbp)
Ltmp457:
	.loc	5 568 18
	addq	$-1, %rcx
	movq	%rcx, -32(%rbp)
	movq	-32(%rbp), %rcx
	movq	%rcx, -24(%rbp)
Ltmp458:
	.loc	5 99 33
	movq	%rcx, -16(%rbp)
Ltmp459:
	.loc	6 135 36
	movq	%rcx, -248(%rbp)
	.loc	6 135 14 is_stmt 0
	movq	-248(%rbp), %rcx
	movq	%rcx, -256(%rbp)
	movq	-256(%rbp), %rcx
Ltmp460:
	.loc	9 57 17 is_stmt 1
	movq	%rcx, (%rax)
	.loc	9 78 21
	movq	8(%rax), %rax
	movq	%rax, -8(%rbp)
Ltmp461:
	.loc	7 326 9
	movq	%rax, -288(%rbp)
Ltmp462:
	.loc	9 76 17
	jmp	LBB39_8
LBB39_7:
	.loc	9 0 17 is_stmt 0
	movq	-304(%rbp), %rcx
	.loc	9 80 31 is_stmt 1
	movq	8(%rcx), %rax
	movq	%rax, -120(%rbp)
Ltmp463:
	.loc	7 326 9
	movq	%rax, -112(%rbp)
Ltmp464:
	.loc	9 83 64
	movq	8(%rcx), %rdx
	movq	%rdx, -104(%rbp)
Ltmp465:
	.loc	7 326 9
	movq	%rdx, -96(%rbp)
Ltmp466:
	.loc	5 1034 18
	movq	%rdx, -88(%rbp)
Ltmp467:
	.loc	5 487 18
	addq	$2, %rdx
	movq	%rdx, -80(%rbp)
	movq	-80(%rbp), %rdx
	movq	%rdx, -72(%rbp)
Ltmp468:
	.loc	7 201 13
	movq	%rdx, -264(%rbp)
Ltmp469:
	.loc	9 83 21
	movq	-264(%rbp), %rdx
	movq	%rdx, 8(%rcx)
	.loc	9 84 21
	movq	%rax, -288(%rbp)
Ltmp470:
LBB39_8:
	.loc	9 139 30
	movq	-288(%rbp), %rax
	.loc	9 139 25 is_stmt 0
	movq	%rax, -296(%rbp)
	.loc	9 136 21 is_stmt 1
	jmp	LBB39_5
Ltmp471:
Lfunc_end39:
	.cfi_endproc

	.globl	__ZN94_$LT$core..slice..iter..IterMut$LT$T$GT$$u20$as$u20$core..iter..traits..iterator..Iterator$GT$4next17h81f6828d4149d002E
	.p2align	4, 0x90
__ZN94_$LT$core..slice..iter..IterMut$LT$T$GT$$u20$as$u20$core..iter..traits..iterator..Iterator$GT$4next17h81f6828d4149d002E:
Lfunc_begin40:
	.loc	9 124 0
	.cfi_startproc
	pushq	%rbp
	.cfi_def_cfa_offset 16
	.cfi_offset %rbp, -16
	movq	%rsp, %rbp
	.cfi_def_cfa_register %rbp
	subq	$304, %rsp
	movq	%rdi, -304(%rbp)
	movq	%rdi, -240(%rbp)
Ltmp472:
	.loc	9 132 29 prologue_end
	movq	8(%rdi), %rax
	movq	%rax, -224(%rbp)
Ltmp473:
	.loc	7 326 9
	movq	%rax, -216(%rbp)
Ltmp474:
	.loc	5 52 36
	movq	%rax, -280(%rbp)
	.loc	5 52 18 is_stmt 0
	movq	-280(%rbp), %rax
	movq	%rax, -208(%rbp)
Ltmp475:
	.loc	5 38 13 is_stmt 1
	movq	%rax, -200(%rbp)
Ltmp476:
	.loc	5 215 33
	movq	%rax, -192(%rbp)
	.loc	5 215 18 is_stmt 0
	movq	%rax, -184(%rbp)
Ltmp477:
	.loc	9 133 24 is_stmt 1
	movb	$1, %al
	testb	$1, %al
	jne	LBB40_2
LBB40_1:
	.loc	9 0 24 is_stmt 0
	movq	-304(%rbp), %rcx
	.loc	9 136 24 is_stmt 1
	movq	8(%rcx), %rax
	movq	%rax, -136(%rbp)
	cmpq	(%rcx), %rax
	je	LBB40_4
	jmp	LBB40_3
LBB40_2:
	.loc	9 0 24 is_stmt 0
	movq	-304(%rbp), %rax
	.loc	9 134 33 is_stmt 1
	movq	(%rax), %rax
	movq	%rax, -176(%rbp)
Ltmp478:
	.loc	5 52 36
	movq	%rax, -272(%rbp)
	.loc	5 52 18 is_stmt 0
	movq	-272(%rbp), %rax
	movq	%rax, -168(%rbp)
Ltmp479:
	.loc	5 38 13 is_stmt 1
	movq	%rax, -160(%rbp)
Ltmp480:
	.loc	5 215 33
	movq	%rax, -152(%rbp)
	.loc	5 215 18 is_stmt 0
	movq	%rax, -144(%rbp)
Ltmp481:
	.loc	9 133 21 is_stmt 1
	jmp	LBB40_1
LBB40_3:
	.loc	9 0 21 is_stmt 0
	movq	-304(%rbp), %rax
	.loc	9 139 30 is_stmt 1
	movq	%rax, -128(%rbp)
Ltmp482:
	.loc	9 76 20
	xorl	%eax, %eax
	testb	$1, %al
	jne	LBB40_6
	jmp	LBB40_7
Ltmp483:
LBB40_4:
	.loc	9 137 25
	movq	$0, -296(%rbp)
LBB40_5:
	.loc	9 142 14
	movq	-296(%rbp), %rax
	addq	$304, %rsp
	popq	%rbp
	retq
LBB40_6:
	.loc	9 0 14 is_stmt 0
	movq	-304(%rbp), %rax
Ltmp484:
	.loc	9 57 29 is_stmt 1
	movq	(%rax), %rcx
	movq	%rcx, -64(%rbp)
Ltmp485:
	.loc	5 1300 9
	movq	%rcx, -56(%rbp)
Ltmp486:
	.loc	5 60 9
	movq	%rcx, -48(%rbp)
Ltmp487:
	.loc	5 1282 9
	movq	%rcx, -40(%rbp)
Ltmp488:
	.loc	5 568 18
	addq	$-1, %rcx
	movq	%rcx, -32(%rbp)
	movq	-32(%rbp), %rcx
	movq	%rcx, -24(%rbp)
Ltmp489:
	.loc	5 99 33
	movq	%rcx, -16(%rbp)
Ltmp490:
	.loc	6 135 36
	movq	%rcx, -248(%rbp)
	.loc	6 135 14 is_stmt 0
	movq	-248(%rbp), %rcx
	movq	%rcx, -256(%rbp)
	movq	-256(%rbp), %rcx
Ltmp491:
	.loc	9 57 17 is_stmt 1
	movq	%rcx, (%rax)
	.loc	9 78 21
	movq	8(%rax), %rax
	movq	%rax, -8(%rbp)
Ltmp492:
	.loc	7 326 9
	movq	%rax, -288(%rbp)
Ltmp493:
	.loc	9 76 17
	jmp	LBB40_8
LBB40_7:
	.loc	9 0 17 is_stmt 0
	movq	-304(%rbp), %rcx
	.loc	9 80 31 is_stmt 1
	movq	8(%rcx), %rax
	movq	%rax, -120(%rbp)
Ltmp494:
	.loc	7 326 9
	movq	%rax, -112(%rbp)
Ltmp495:
	.loc	9 83 64
	movq	8(%rcx), %rdx
	movq	%rdx, -104(%rbp)
Ltmp496:
	.loc	7 326 9
	movq	%rdx, -96(%rbp)
Ltmp497:
	.loc	5 1034 18
	movq	%rdx, -88(%rbp)
Ltmp498:
	.loc	5 487 18
	addq	$4, %rdx
	movq	%rdx, -80(%rbp)
	movq	-80(%rbp), %rdx
	movq	%rdx, -72(%rbp)
Ltmp499:
	.loc	7 201 13
	movq	%rdx, -264(%rbp)
Ltmp500:
	.loc	9 83 21
	movq	-264(%rbp), %rdx
	movq	%rdx, 8(%rcx)
	.loc	9 84 21
	movq	%rax, -288(%rbp)
Ltmp501:
LBB40_8:
	.loc	9 139 30
	movq	-288(%rbp), %rax
	.loc	9 139 25 is_stmt 0
	movq	%rax, -296(%rbp)
	.loc	9 136 21 is_stmt 1
	jmp	LBB40_5
Ltmp502:
Lfunc_end40:
	.cfi_endproc

	.globl	__ZN94_$LT$core..slice..iter..IterMut$LT$T$GT$$u20$as$u20$core..iter..traits..iterator..Iterator$GT$4next17h8b7620015140b856E
	.p2align	4, 0x90
__ZN94_$LT$core..slice..iter..IterMut$LT$T$GT$$u20$as$u20$core..iter..traits..iterator..Iterator$GT$4next17h8b7620015140b856E:
Lfunc_begin41:
	.loc	9 124 0
	.cfi_startproc
	pushq	%rbp
	.cfi_def_cfa_offset 16
	.cfi_offset %rbp, -16
	movq	%rsp, %rbp
	.cfi_def_cfa_register %rbp
	subq	$304, %rsp
	movq	%rdi, -304(%rbp)
	movq	%rdi, -240(%rbp)
Ltmp503:
	.loc	9 132 29 prologue_end
	movq	8(%rdi), %rax
	movq	%rax, -224(%rbp)
Ltmp504:
	.loc	7 326 9
	movq	%rax, -216(%rbp)
Ltmp505:
	.loc	5 52 36
	movq	%rax, -280(%rbp)
	.loc	5 52 18 is_stmt 0
	movq	-280(%rbp), %rax
	movq	%rax, -208(%rbp)
Ltmp506:
	.loc	5 38 13 is_stmt 1
	movq	%rax, -200(%rbp)
Ltmp507:
	.loc	5 215 33
	movq	%rax, -192(%rbp)
	.loc	5 215 18 is_stmt 0
	movq	%rax, -184(%rbp)
Ltmp508:
	.loc	9 133 24 is_stmt 1
	movb	$1, %al
	testb	$1, %al
	jne	LBB41_2
LBB41_1:
	.loc	9 0 24 is_stmt 0
	movq	-304(%rbp), %rcx
	.loc	9 136 24 is_stmt 1
	movq	8(%rcx), %rax
	movq	%rax, -136(%rbp)
	cmpq	(%rcx), %rax
	je	LBB41_4
	jmp	LBB41_3
LBB41_2:
	.loc	9 0 24 is_stmt 0
	movq	-304(%rbp), %rax
	.loc	9 134 33 is_stmt 1
	movq	(%rax), %rax
	movq	%rax, -176(%rbp)
Ltmp509:
	.loc	5 52 36
	movq	%rax, -272(%rbp)
	.loc	5 52 18 is_stmt 0
	movq	-272(%rbp), %rax
	movq	%rax, -168(%rbp)
Ltmp510:
	.loc	5 38 13 is_stmt 1
	movq	%rax, -160(%rbp)
Ltmp511:
	.loc	5 215 33
	movq	%rax, -152(%rbp)
	.loc	5 215 18 is_stmt 0
	movq	%rax, -144(%rbp)
Ltmp512:
	.loc	9 133 21 is_stmt 1
	jmp	LBB41_1
LBB41_3:
	.loc	9 0 21 is_stmt 0
	movq	-304(%rbp), %rax
	.loc	9 139 30 is_stmt 1
	movq	%rax, -128(%rbp)
Ltmp513:
	.loc	9 76 20
	xorl	%eax, %eax
	testb	$1, %al
	jne	LBB41_6
	jmp	LBB41_7
Ltmp514:
LBB41_4:
	.loc	9 137 25
	movq	$0, -296(%rbp)
LBB41_5:
	.loc	9 142 14
	movq	-296(%rbp), %rax
	addq	$304, %rsp
	popq	%rbp
	retq
LBB41_6:
	.loc	9 0 14 is_stmt 0
	movq	-304(%rbp), %rax
Ltmp515:
	.loc	9 57 29 is_stmt 1
	movq	(%rax), %rcx
	movq	%rcx, -64(%rbp)
Ltmp516:
	.loc	5 1300 9
	movq	%rcx, -56(%rbp)
Ltmp517:
	.loc	5 60 9
	movq	%rcx, -48(%rbp)
Ltmp518:
	.loc	5 1282 9
	movq	%rcx, -40(%rbp)
Ltmp519:
	.loc	5 568 18
	addq	$-1, %rcx
	movq	%rcx, -32(%rbp)
	movq	-32(%rbp), %rcx
	movq	%rcx, -24(%rbp)
Ltmp520:
	.loc	5 99 33
	movq	%rcx, -16(%rbp)
Ltmp521:
	.loc	6 135 36
	movq	%rcx, -248(%rbp)
	.loc	6 135 14 is_stmt 0
	movq	-248(%rbp), %rcx
	movq	%rcx, -256(%rbp)
	movq	-256(%rbp), %rcx
Ltmp522:
	.loc	9 57 17 is_stmt 1
	movq	%rcx, (%rax)
	.loc	9 78 21
	movq	8(%rax), %rax
	movq	%rax, -8(%rbp)
Ltmp523:
	.loc	7 326 9
	movq	%rax, -288(%rbp)
Ltmp524:
	.loc	9 76 17
	jmp	LBB41_8
LBB41_7:
	.loc	9 0 17 is_stmt 0
	movq	-304(%rbp), %rcx
	.loc	9 80 31 is_stmt 1
	movq	8(%rcx), %rax
	movq	%rax, -120(%rbp)
Ltmp525:
	.loc	7 326 9
	movq	%rax, -112(%rbp)
Ltmp526:
	.loc	9 83 64
	movq	8(%rcx), %rdx
	movq	%rdx, -104(%rbp)
Ltmp527:
	.loc	7 326 9
	movq	%rdx, -96(%rbp)
Ltmp528:
	.loc	5 1034 18
	movq	%rdx, -88(%rbp)
Ltmp529:
	.loc	5 487 18
	addq	$8, %rdx
	movq	%rdx, -80(%rbp)
	movq	-80(%rbp), %rdx
	movq	%rdx, -72(%rbp)
Ltmp530:
	.loc	7 201 13
	movq	%rdx, -264(%rbp)
Ltmp531:
	.loc	9 83 21
	movq	-264(%rbp), %rdx
	movq	%rdx, 8(%rcx)
	.loc	9 84 21
	movq	%rax, -288(%rbp)
Ltmp532:
LBB41_8:
	.loc	9 139 30
	movq	-288(%rbp), %rax
	.loc	9 139 25 is_stmt 0
	movq	%rax, -296(%rbp)
	.loc	9 136 21 is_stmt 1
	jmp	LBB41_5
Ltmp533:
Lfunc_end41:
	.cfi_endproc

	.globl	__ZN94_$LT$core..slice..iter..IterMut$LT$T$GT$$u20$as$u20$core..iter..traits..iterator..Iterator$GT$4next17h8b9d92f29dc68edbE
	.p2align	4, 0x90
__ZN94_$LT$core..slice..iter..IterMut$LT$T$GT$$u20$as$u20$core..iter..traits..iterator..Iterator$GT$4next17h8b9d92f29dc68edbE:
Lfunc_begin42:
	.loc	9 124 0
	.cfi_startproc
	pushq	%rbp
	.cfi_def_cfa_offset 16
	.cfi_offset %rbp, -16
	movq	%rsp, %rbp
	.cfi_def_cfa_register %rbp
	subq	$304, %rsp
	movq	%rdi, -304(%rbp)
	movq	%rdi, -240(%rbp)
Ltmp534:
	.loc	9 132 29 prologue_end
	movq	8(%rdi), %rax
	movq	%rax, -224(%rbp)
Ltmp535:
	.loc	7 326 9
	movq	%rax, -216(%rbp)
Ltmp536:
	.loc	5 52 36
	movq	%rax, -280(%rbp)
	.loc	5 52 18 is_stmt 0
	movq	-280(%rbp), %rax
	movq	%rax, -208(%rbp)
Ltmp537:
	.loc	5 38 13 is_stmt 1
	movq	%rax, -200(%rbp)
Ltmp538:
	.loc	5 215 33
	movq	%rax, -192(%rbp)
	.loc	5 215 18 is_stmt 0
	movq	%rax, -184(%rbp)
Ltmp539:
	.loc	9 133 24 is_stmt 1
	movb	$1, %al
	testb	$1, %al
	jne	LBB42_2
LBB42_1:
	.loc	9 0 24 is_stmt 0
	movq	-304(%rbp), %rcx
	.loc	9 136 24 is_stmt 1
	movq	8(%rcx), %rax
	movq	%rax, -136(%rbp)
	cmpq	(%rcx), %rax
	je	LBB42_4
	jmp	LBB42_3
LBB42_2:
	.loc	9 0 24 is_stmt 0
	movq	-304(%rbp), %rax
	.loc	9 134 33 is_stmt 1
	movq	(%rax), %rax
	movq	%rax, -176(%rbp)
Ltmp540:
	.loc	5 52 36
	movq	%rax, -272(%rbp)
	.loc	5 52 18 is_stmt 0
	movq	-272(%rbp), %rax
	movq	%rax, -168(%rbp)
Ltmp541:
	.loc	5 38 13 is_stmt 1
	movq	%rax, -160(%rbp)
Ltmp542:
	.loc	5 215 33
	movq	%rax, -152(%rbp)
	.loc	5 215 18 is_stmt 0
	movq	%rax, -144(%rbp)
Ltmp543:
	.loc	9 133 21 is_stmt 1
	jmp	LBB42_1
LBB42_3:
	.loc	9 0 21 is_stmt 0
	movq	-304(%rbp), %rax
	.loc	9 139 30 is_stmt 1
	movq	%rax, -128(%rbp)
Ltmp544:
	.loc	9 76 20
	xorl	%eax, %eax
	testb	$1, %al
	jne	LBB42_6
	jmp	LBB42_7
Ltmp545:
LBB42_4:
	.loc	9 137 25
	movq	$0, -296(%rbp)
LBB42_5:
	.loc	9 142 14
	movq	-296(%rbp), %rax
	addq	$304, %rsp
	popq	%rbp
	retq
LBB42_6:
	.loc	9 0 14 is_stmt 0
	movq	-304(%rbp), %rax
Ltmp546:
	.loc	9 57 29 is_stmt 1
	movq	(%rax), %rcx
	movq	%rcx, -64(%rbp)
Ltmp547:
	.loc	5 1300 9
	movq	%rcx, -56(%rbp)
Ltmp548:
	.loc	5 60 9
	movq	%rcx, -48(%rbp)
Ltmp549:
	.loc	5 1282 9
	movq	%rcx, -40(%rbp)
Ltmp550:
	.loc	5 568 18
	addq	$-1, %rcx
	movq	%rcx, -32(%rbp)
	movq	-32(%rbp), %rcx
	movq	%rcx, -24(%rbp)
Ltmp551:
	.loc	5 99 33
	movq	%rcx, -16(%rbp)
Ltmp552:
	.loc	6 135 36
	movq	%rcx, -248(%rbp)
	.loc	6 135 14 is_stmt 0
	movq	-248(%rbp), %rcx
	movq	%rcx, -256(%rbp)
	movq	-256(%rbp), %rcx
Ltmp553:
	.loc	9 57 17 is_stmt 1
	movq	%rcx, (%rax)
	.loc	9 78 21
	movq	8(%rax), %rax
	movq	%rax, -8(%rbp)
Ltmp554:
	.loc	7 326 9
	movq	%rax, -288(%rbp)
Ltmp555:
	.loc	9 76 17
	jmp	LBB42_8
LBB42_7:
	.loc	9 0 17 is_stmt 0
	movq	-304(%rbp), %rcx
	.loc	9 80 31 is_stmt 1
	movq	8(%rcx), %rax
	movq	%rax, -120(%rbp)
Ltmp556:
	.loc	7 326 9
	movq	%rax, -112(%rbp)
Ltmp557:
	.loc	9 83 64
	movq	8(%rcx), %rdx
	movq	%rdx, -104(%rbp)
Ltmp558:
	.loc	7 326 9
	movq	%rdx, -96(%rbp)
Ltmp559:
	.loc	5 1034 18
	movq	%rdx, -88(%rbp)
Ltmp560:
	.loc	5 487 18
	addq	$8, %rdx
	movq	%rdx, -80(%rbp)
	movq	-80(%rbp), %rdx
	movq	%rdx, -72(%rbp)
Ltmp561:
	.loc	7 201 13
	movq	%rdx, -264(%rbp)
Ltmp562:
	.loc	9 83 21
	movq	-264(%rbp), %rdx
	movq	%rdx, 8(%rcx)
	.loc	9 84 21
	movq	%rax, -288(%rbp)
Ltmp563:
LBB42_8:
	.loc	9 139 30
	movq	-288(%rbp), %rax
	.loc	9 139 25 is_stmt 0
	movq	%rax, -296(%rbp)
	.loc	9 136 21 is_stmt 1
	jmp	LBB42_5
Ltmp564:
Lfunc_end42:
	.cfi_endproc

	.globl	__ZN94_$LT$core..slice..iter..IterMut$LT$T$GT$$u20$as$u20$core..iter..traits..iterator..Iterator$GT$4next17hba17d81f48d8255cE
	.p2align	4, 0x90
__ZN94_$LT$core..slice..iter..IterMut$LT$T$GT$$u20$as$u20$core..iter..traits..iterator..Iterator$GT$4next17hba17d81f48d8255cE:
Lfunc_begin43:
	.loc	9 124 0
	.cfi_startproc
	pushq	%rbp
	.cfi_def_cfa_offset 16
	.cfi_offset %rbp, -16
	movq	%rsp, %rbp
	.cfi_def_cfa_register %rbp
	subq	$304, %rsp
	movq	%rdi, -304(%rbp)
	movq	%rdi, -240(%rbp)
Ltmp565:
	.loc	9 132 29 prologue_end
	movq	8(%rdi), %rax
	movq	%rax, -224(%rbp)
Ltmp566:
	.loc	7 326 9
	movq	%rax, -216(%rbp)
Ltmp567:
	.loc	5 52 36
	movq	%rax, -280(%rbp)
	.loc	5 52 18 is_stmt 0
	movq	-280(%rbp), %rax
	movq	%rax, -208(%rbp)
Ltmp568:
	.loc	5 38 13 is_stmt 1
	movq	%rax, -200(%rbp)
Ltmp569:
	.loc	5 215 33
	movq	%rax, -192(%rbp)
	.loc	5 215 18 is_stmt 0
	movq	%rax, -184(%rbp)
Ltmp570:
	.loc	9 133 24 is_stmt 1
	movb	$1, %al
	testb	$1, %al
	jne	LBB43_2
LBB43_1:
	.loc	9 0 24 is_stmt 0
	movq	-304(%rbp), %rcx
	.loc	9 136 24 is_stmt 1
	movq	8(%rcx), %rax
	movq	%rax, -136(%rbp)
	cmpq	(%rcx), %rax
	je	LBB43_4
	jmp	LBB43_3
LBB43_2:
	.loc	9 0 24 is_stmt 0
	movq	-304(%rbp), %rax
	.loc	9 134 33 is_stmt 1
	movq	(%rax), %rax
	movq	%rax, -176(%rbp)
Ltmp571:
	.loc	5 52 36
	movq	%rax, -272(%rbp)
	.loc	5 52 18 is_stmt 0
	movq	-272(%rbp), %rax
	movq	%rax, -168(%rbp)
Ltmp572:
	.loc	5 38 13 is_stmt 1
	movq	%rax, -160(%rbp)
Ltmp573:
	.loc	5 215 33
	movq	%rax, -152(%rbp)
	.loc	5 215 18 is_stmt 0
	movq	%rax, -144(%rbp)
Ltmp574:
	.loc	9 133 21 is_stmt 1
	jmp	LBB43_1
LBB43_3:
	.loc	9 0 21 is_stmt 0
	movq	-304(%rbp), %rax
	.loc	9 139 30 is_stmt 1
	movq	%rax, -128(%rbp)
Ltmp575:
	.loc	9 76 20
	xorl	%eax, %eax
	testb	$1, %al
	jne	LBB43_6
	jmp	LBB43_7
Ltmp576:
LBB43_4:
	.loc	9 137 25
	movq	$0, -296(%rbp)
LBB43_5:
	.loc	9 142 14
	movq	-296(%rbp), %rax
	addq	$304, %rsp
	popq	%rbp
	retq
LBB43_6:
	.loc	9 0 14 is_stmt 0
	movq	-304(%rbp), %rax
Ltmp577:
	.loc	9 57 29 is_stmt 1
	movq	(%rax), %rcx
	movq	%rcx, -64(%rbp)
Ltmp578:
	.loc	5 1300 9
	movq	%rcx, -56(%rbp)
Ltmp579:
	.loc	5 60 9
	movq	%rcx, -48(%rbp)
Ltmp580:
	.loc	5 1282 9
	movq	%rcx, -40(%rbp)
Ltmp581:
	.loc	5 568 18
	addq	$-1, %rcx
	movq	%rcx, -32(%rbp)
	movq	-32(%rbp), %rcx
	movq	%rcx, -24(%rbp)
Ltmp582:
	.loc	5 99 33
	movq	%rcx, -16(%rbp)
Ltmp583:
	.loc	6 135 36
	movq	%rcx, -248(%rbp)
	.loc	6 135 14 is_stmt 0
	movq	-248(%rbp), %rcx
	movq	%rcx, -256(%rbp)
	movq	-256(%rbp), %rcx
Ltmp584:
	.loc	9 57 17 is_stmt 1
	movq	%rcx, (%rax)
	.loc	9 78 21
	movq	8(%rax), %rax
	movq	%rax, -8(%rbp)
Ltmp585:
	.loc	7 326 9
	movq	%rax, -288(%rbp)
Ltmp586:
	.loc	9 76 17
	jmp	LBB43_8
LBB43_7:
	.loc	9 0 17 is_stmt 0
	movq	-304(%rbp), %rcx
	.loc	9 80 31 is_stmt 1
	movq	8(%rcx), %rax
	movq	%rax, -120(%rbp)
Ltmp587:
	.loc	7 326 9
	movq	%rax, -112(%rbp)
Ltmp588:
	.loc	9 83 64
	movq	8(%rcx), %rdx
	movq	%rdx, -104(%rbp)
Ltmp589:
	.loc	7 326 9
	movq	%rdx, -96(%rbp)
Ltmp590:
	.loc	5 1034 18
	movq	%rdx, -88(%rbp)
Ltmp591:
	.loc	5 487 18
	addq	$4, %rdx
	movq	%rdx, -80(%rbp)
	movq	-80(%rbp), %rdx
	movq	%rdx, -72(%rbp)
Ltmp592:
	.loc	7 201 13
	movq	%rdx, -264(%rbp)
Ltmp593:
	.loc	9 83 21
	movq	-264(%rbp), %rdx
	movq	%rdx, 8(%rcx)
	.loc	9 84 21
	movq	%rax, -288(%rbp)
Ltmp594:
LBB43_8:
	.loc	9 139 30
	movq	-288(%rbp), %rax
	.loc	9 139 25 is_stmt 0
	movq	%rax, -296(%rbp)
	.loc	9 136 21 is_stmt 1
	jmp	LBB43_5
Ltmp595:
Lfunc_end43:
	.cfi_endproc

	.globl	__ZN35_$LT$u8$u20$as$u20$lebe..Endian$GT$10swap_bytes17h2fe4021a0e4846b4E
	.p2align	4, 0x90
__ZN35_$LT$u8$u20$as$u20$lebe..Endian$GT$10swap_bytes17h2fe4021a0e4846b4E:
Lfunc_begin44:
	.file	10 "/Users/natalie/.cargo/registry/src/github.com-1ecc6299db9ec823/lebe-0.5.2" "src/lib.rs"
	.loc	10 169 0
	.cfi_startproc
	pushq	%rbp
	.cfi_def_cfa_offset 16
	.cfi_offset %rbp, -16
	movq	%rsp, %rbp
	.cfi_def_cfa_register %rbp
	pushq	%rax
	movq	%rdi, -8(%rbp)
Ltmp596:
	.loc	10 169 49 prologue_end
	addq	$8, %rsp
	popq	%rbp
	retq
Ltmp597:
Lfunc_end44:
	.cfi_endproc

	.globl	__ZN35_$LT$i8$u20$as$u20$lebe..Endian$GT$10swap_bytes17h5a8aed1f48a20ecaE
	.p2align	4, 0x90
__ZN35_$LT$i8$u20$as$u20$lebe..Endian$GT$10swap_bytes17h5a8aed1f48a20ecaE:
Lfunc_begin45:
	.loc	10 170 0
	.cfi_startproc
	pushq	%rbp
	.cfi_def_cfa_offset 16
	.cfi_offset %rbp, -16
	movq	%rsp, %rbp
	.cfi_def_cfa_register %rbp
	pushq	%rax
	movq	%rdi, -8(%rbp)
Ltmp598:
	.loc	10 170 49 prologue_end
	addq	$8, %rsp
	popq	%rbp
	retq
Ltmp599:
Lfunc_end45:
	.cfi_endproc

	.globl	__ZN45_$LT$$u5b$u8$u5d$$u20$as$u20$lebe..Endian$GT$10swap_bytes17hb46b2fc0d6a613e5E
	.p2align	4, 0x90
__ZN45_$LT$$u5b$u8$u5d$$u20$as$u20$lebe..Endian$GT$10swap_bytes17hb46b2fc0d6a613e5E:
Lfunc_begin46:
	.loc	10 171 0
	.cfi_startproc
	pushq	%rbp
	.cfi_def_cfa_offset 16
	.cfi_offset %rbp, -16
	movq	%rsp, %rbp
	.cfi_def_cfa_register %rbp
	subq	$16, %rsp
	movq	%rdi, -16(%rbp)
	movq	%rsi, -8(%rbp)
Ltmp600:
	.loc	10 171 51 prologue_end
	addq	$16, %rsp
	popq	%rbp
	retq
Ltmp601:
Lfunc_end46:
	.cfi_endproc

	.globl	__ZN45_$LT$$u5b$i8$u5d$$u20$as$u20$lebe..Endian$GT$10swap_bytes17ha93112e0da02d9d8E
	.p2align	4, 0x90
__ZN45_$LT$$u5b$i8$u5d$$u20$as$u20$lebe..Endian$GT$10swap_bytes17ha93112e0da02d9d8E:
Lfunc_begin47:
	.loc	10 172 0
	.cfi_startproc
	pushq	%rbp
	.cfi_def_cfa_offset 16
	.cfi_offset %rbp, -16
	movq	%rsp, %rbp
	.cfi_def_cfa_register %rbp
	subq	$16, %rsp
	movq	%rdi, -16(%rbp)
	movq	%rsi, -8(%rbp)
Ltmp602:
	.loc	10 172 51 prologue_end
	addq	$16, %rsp
	popq	%rbp
	retq
Ltmp603:
Lfunc_end47:
	.cfi_endproc

	.globl	__ZN36_$LT$u16$u20$as$u20$lebe..Endian$GT$10swap_bytes17hf648c4a1185690edE
	.p2align	4, 0x90
__ZN36_$LT$u16$u20$as$u20$lebe..Endian$GT$10swap_bytes17hf648c4a1185690edE:
Lfunc_begin48:
	.loc	10 155 0
	.cfi_startproc
	pushq	%rbp
	.cfi_def_cfa_offset 16
	.cfi_offset %rbp, -16
	movq	%rsp, %rbp
	.cfi_def_cfa_register %rbp
	subq	$16, %rsp
	movq	%rdi, -16(%rbp)
Ltmp604:
	.loc	10 156 43 prologue_end
	movw	(%rdi), %ax
	movw	%ax, -4(%rbp)
Ltmp605:
	.file	11 "/rustc/2c8cc343237b8f7d5a3c3703e3a87f2eb2c54a74/library/core/src/num" "uint_macros.rs"
	.loc	11 263 13
	rolw	$8, %ax
	movw	%ax, -2(%rbp)
	movw	-2(%rbp), %ax
Ltmp606:
	.loc	10 156 17
	movw	%ax, (%rdi)
	.loc	10 157 14
	addq	$16, %rsp
	popq	%rbp
	retq
Ltmp607:
Lfunc_end48:
	.cfi_endproc

	.globl	__ZN36_$LT$u32$u20$as$u20$lebe..Endian$GT$10swap_bytes17h16e8da9056a10620E
	.p2align	4, 0x90
__ZN36_$LT$u32$u20$as$u20$lebe..Endian$GT$10swap_bytes17h16e8da9056a10620E:
Lfunc_begin49:
	.loc	10 155 0
	.cfi_startproc
	pushq	%rbp
	.cfi_def_cfa_offset 16
	.cfi_offset %rbp, -16
	movq	%rsp, %rbp
	.cfi_def_cfa_register %rbp
	subq	$16, %rsp
	movq	%rdi, -16(%rbp)
Ltmp608:
	.loc	10 156 43 prologue_end
	movl	(%rdi), %eax
	movl	%eax, -8(%rbp)
Ltmp609:
	.loc	11 263 13
	bswapl	%eax
	movl	%eax, -4(%rbp)
	movl	-4(%rbp), %eax
Ltmp610:
	.loc	10 156 17
	movl	%eax, (%rdi)
	.loc	10 157 14
	addq	$16, %rsp
	popq	%rbp
	retq
Ltmp611:
Lfunc_end49:
	.cfi_endproc

	.globl	__ZN36_$LT$u64$u20$as$u20$lebe..Endian$GT$10swap_bytes17he0e9baa06a836e6eE
	.p2align	4, 0x90
__ZN36_$LT$u64$u20$as$u20$lebe..Endian$GT$10swap_bytes17he0e9baa06a836e6eE:
Lfunc_begin50:
	.loc	10 155 0
	.cfi_startproc
	pushq	%rbp
	.cfi_def_cfa_offset 16
	.cfi_offset %rbp, -16
	movq	%rsp, %rbp
	.cfi_def_cfa_register %rbp
	subq	$24, %rsp
	movq	%rdi, -24(%rbp)
Ltmp612:
	.loc	10 156 43 prologue_end
	movq	(%rdi), %rax
	movq	%rax, -16(%rbp)
Ltmp613:
	.loc	11 263 13
	bswapq	%rax
	movq	%rax, -8(%rbp)
	movq	-8(%rbp), %rax
Ltmp614:
	.loc	10 156 17
	movq	%rax, (%rdi)
	.loc	10 157 14
	addq	$24, %rsp
	popq	%rbp
	retq
Ltmp615:
Lfunc_end50:
	.cfi_endproc

	.globl	__ZN37_$LT$u128$u20$as$u20$lebe..Endian$GT$10swap_bytes17hd383f870003615c1E
	.p2align	4, 0x90
__ZN37_$LT$u128$u20$as$u20$lebe..Endian$GT$10swap_bytes17hd383f870003615c1E:
Lfunc_begin51:
	.loc	10 155 0
	.cfi_startproc
	pushq	%rbp
	.cfi_def_cfa_offset 16
	.cfi_offset %rbp, -16
	movq	%rsp, %rbp
	.cfi_def_cfa_register %rbp
	subq	$40, %rsp
	movq	%rdi, -40(%rbp)
Ltmp616:
	.loc	10 156 43 prologue_end
	movq	(%rdi), %rcx
	movq	8(%rdi), %rax
	movq	%rax, -24(%rbp)
	movq	%rcx, -32(%rbp)
Ltmp617:
	.loc	11 263 13
	bswapq	%rax
	bswapq	%rcx
	movq	%rcx, -8(%rbp)
	movq	%rax, -16(%rbp)
	movq	-16(%rbp), %rax
	movq	-8(%rbp), %rcx
Ltmp618:
	.loc	10 156 17
	movq	%rcx, 8(%rdi)
	movq	%rax, (%rdi)
	.loc	10 157 14
	addq	$40, %rsp
	popq	%rbp
	retq
Ltmp619:
Lfunc_end51:
	.cfi_endproc

	.globl	__ZN36_$LT$i16$u20$as$u20$lebe..Endian$GT$10swap_bytes17hd15dd14314f0bb13E
	.p2align	4, 0x90
__ZN36_$LT$i16$u20$as$u20$lebe..Endian$GT$10swap_bytes17hd15dd14314f0bb13E:
Lfunc_begin52:
	.loc	10 155 0
	.cfi_startproc
	pushq	%rbp
	.cfi_def_cfa_offset 16
	.cfi_offset %rbp, -16
	movq	%rsp, %rbp
	.cfi_def_cfa_register %rbp
	subq	$16, %rsp
	movq	%rdi, -16(%rbp)
Ltmp620:
	.loc	10 156 43 prologue_end
	movw	(%rdi), %ax
	movw	%ax, -6(%rbp)
Ltmp621:
	.file	12 "/rustc/2c8cc343237b8f7d5a3c3703e3a87f2eb2c54a74/library/core/src/num" "int_macros.rs"
	.loc	12 260 13
	movw	%ax, -4(%rbp)
Ltmp622:
	.loc	11 263 13
	rolw	$8, %ax
	movw	%ax, -2(%rbp)
	movw	-2(%rbp), %ax
Ltmp623:
	.loc	10 156 17
	movw	%ax, (%rdi)
	.loc	10 157 14
	addq	$16, %rsp
	popq	%rbp
	retq
Ltmp624:
Lfunc_end52:
	.cfi_endproc

	.globl	__ZN36_$LT$i32$u20$as$u20$lebe..Endian$GT$10swap_bytes17he185952f4b97e12bE
	.p2align	4, 0x90
__ZN36_$LT$i32$u20$as$u20$lebe..Endian$GT$10swap_bytes17he185952f4b97e12bE:
Lfunc_begin53:
	.loc	10 155 0
	.cfi_startproc
	pushq	%rbp
	.cfi_def_cfa_offset 16
	.cfi_offset %rbp, -16
	movq	%rsp, %rbp
	.cfi_def_cfa_register %rbp
	subq	$24, %rsp
	movq	%rdi, -24(%rbp)
Ltmp625:
	.loc	10 156 43 prologue_end
	movl	(%rdi), %eax
	movl	%eax, -12(%rbp)
Ltmp626:
	.loc	12 260 13
	movl	%eax, -8(%rbp)
Ltmp627:
	.loc	11 263 13
	bswapl	%eax
	movl	%eax, -4(%rbp)
	movl	-4(%rbp), %eax
Ltmp628:
	.loc	10 156 17
	movl	%eax, (%rdi)
	.loc	10 157 14
	addq	$24, %rsp
	popq	%rbp
	retq
Ltmp629:
Lfunc_end53:
	.cfi_endproc

	.globl	__ZN36_$LT$i64$u20$as$u20$lebe..Endian$GT$10swap_bytes17h74eff7bbb201f3d3E
	.p2align	4, 0x90
__ZN36_$LT$i64$u20$as$u20$lebe..Endian$GT$10swap_bytes17h74eff7bbb201f3d3E:
Lfunc_begin54:
	.loc	10 155 0
	.cfi_startproc
	pushq	%rbp
	.cfi_def_cfa_offset 16
	.cfi_offset %rbp, -16
	movq	%rsp, %rbp
	.cfi_def_cfa_register %rbp
	subq	$32, %rsp
	movq	%rdi, -32(%rbp)
Ltmp630:
	.loc	10 156 43 prologue_end
	movq	(%rdi), %rax
	movq	%rax, -24(%rbp)
Ltmp631:
	.loc	12 260 13
	movq	%rax, -16(%rbp)
Ltmp632:
	.loc	11 263 13
	bswapq	%rax
	movq	%rax, -8(%rbp)
	movq	-8(%rbp), %rax
Ltmp633:
	.loc	10 156 17
	movq	%rax, (%rdi)
	.loc	10 157 14
	addq	$32, %rsp
	popq	%rbp
	retq
Ltmp634:
Lfunc_end54:
	.cfi_endproc

	.globl	__ZN37_$LT$i128$u20$as$u20$lebe..Endian$GT$10swap_bytes17hea836276766a26feE
	.p2align	4, 0x90
__ZN37_$LT$i128$u20$as$u20$lebe..Endian$GT$10swap_bytes17hea836276766a26feE:
Lfunc_begin55:
	.loc	10 155 0
	.cfi_startproc
	pushq	%rbp
	.cfi_def_cfa_offset 16
	.cfi_offset %rbp, -16
	movq	%rsp, %rbp
	.cfi_def_cfa_register %rbp
	subq	$56, %rsp
	movq	%rdi, -56(%rbp)
Ltmp635:
	.loc	10 156 43 prologue_end
	movq	(%rdi), %rcx
	movq	8(%rdi), %rax
	movq	%rax, -40(%rbp)
	movq	%rcx, -48(%rbp)
Ltmp636:
	.loc	12 260 13
	movq	%rax, -24(%rbp)
	movq	%rcx, -32(%rbp)
Ltmp637:
	.loc	11 263 13
	bswapq	%rax
	bswapq	%rcx
	movq	%rcx, -8(%rbp)
	movq	%rax, -16(%rbp)
	movq	-16(%rbp), %rax
	movq	-8(%rbp), %rcx
Ltmp638:
	.loc	10 156 17
	movq	%rcx, 8(%rdi)
	movq	%rax, (%rdi)
	.loc	10 157 14
	addq	$56, %rsp
	popq	%rbp
	retq
Ltmp639:
Lfunc_end55:
	.cfi_endproc

	.globl	__ZN36_$LT$f32$u20$as$u20$lebe..Endian$GT$10swap_bytes17hd55d6f5ddf3e46c8E
	.p2align	4, 0x90
__ZN36_$LT$f32$u20$as$u20$lebe..Endian$GT$10swap_bytes17hd55d6f5ddf3e46c8E:
Lfunc_begin56:
	.loc	10 178 0
	.cfi_startproc
	pushq	%rbp
	.cfi_def_cfa_offset 16
	.cfi_offset %rbp, -16
	movq	%rsp, %rbp
	.cfi_def_cfa_register %rbp
	subq	$32, %rsp
	movq	%rdi, -24(%rbp)
	movq	%rdi, -16(%rbp)
Ltmp640:
	.loc	10 179 41 prologue_end
	movss	(%rdi), %xmm0
	callq	__ZN4core3f3221_$LT$impl$u20$f32$GT$7to_bits17h1f14dde3afd612baE
	movl	%eax, -8(%rbp)
Ltmp641:
	.loc	11 263 13
	bswapl	%eax
	movl	%eax, -4(%rbp)
	movl	-4(%rbp), %edi
Ltmp642:
	.loc	10 179 25
	callq	__ZN4core3f3221_$LT$impl$u20$f32$GT$9from_bits17h3aaa4a6f76e45005E
	movq	-24(%rbp), %rdi
	.loc	10 179 17 is_stmt 0
	movss	%xmm0, (%rdi)
	.loc	10 180 14 is_stmt 1
	addq	$32, %rsp
	popq	%rbp
	retq
Ltmp643:
Lfunc_end56:
	.cfi_endproc

	.globl	__ZN36_$LT$f64$u20$as$u20$lebe..Endian$GT$10swap_bytes17hfd925325090c3b3bE
	.p2align	4, 0x90
__ZN36_$LT$f64$u20$as$u20$lebe..Endian$GT$10swap_bytes17hfd925325090c3b3bE:
Lfunc_begin57:
	.loc	10 178 0
	.cfi_startproc
	pushq	%rbp
	.cfi_def_cfa_offset 16
	.cfi_offset %rbp, -16
	movq	%rsp, %rbp
	.cfi_def_cfa_register %rbp
	subq	$32, %rsp
	movq	%rdi, -32(%rbp)
	movq	%rdi, -24(%rbp)
Ltmp644:
	.loc	10 179 41 prologue_end
	movsd	(%rdi), %xmm0
	callq	__ZN4core3f6421_$LT$impl$u20$f64$GT$7to_bits17h848eec458eae7554E
	movq	%rax, -16(%rbp)
Ltmp645:
	.loc	11 263 13
	bswapq	%rax
	movq	%rax, -8(%rbp)
	movq	-8(%rbp), %rdi
Ltmp646:
	.loc	10 179 25
	callq	__ZN4core3f6421_$LT$impl$u20$f64$GT$9from_bits17h6a4ebc4cf0707891E
	movq	-32(%rbp), %rdi
	.loc	10 179 17 is_stmt 0
	movsd	%xmm0, (%rdi)
	.loc	10 180 14 is_stmt 1
	addq	$32, %rsp
	popq	%rbp
	retq
Ltmp647:
Lfunc_end57:
	.cfi_endproc

	.globl	__ZN46_$LT$$u5b$u16$u5d$$u20$as$u20$lebe..Endian$GT$10swap_bytes17he2cf04a5bd7601faE
	.p2align	4, 0x90
__ZN46_$LT$$u5b$u16$u5d$$u20$as$u20$lebe..Endian$GT$10swap_bytes17he2cf04a5bd7601faE:
Lfunc_begin58:
	.loc	10 192 0
	.cfi_startproc
	pushq	%rbp
	.cfi_def_cfa_offset 16
	.cfi_offset %rbp, -16
	movq	%rsp, %rbp
	.cfi_def_cfa_register %rbp
	subq	$48, %rsp
	movq	%rdi, -24(%rbp)
	movq	%rsi, -16(%rbp)
Ltmp648:
	.loc	10 193 31 prologue_end
	callq	__ZN4core5slice29_$LT$impl$u20$$u5b$T$u5d$$GT$8iter_mut17hbb762306cb120ee0E
	movq	%rax, %rdi
	movq	%rdx, %rsi
	callq	__ZN63_$LT$I$u20$as$u20$core..iter..traits..collect..IntoIterator$GT$9into_iter17hc15fb7911678de1dE
	movq	%rax, -48(%rbp)
	movq	%rdx, -40(%rbp)
LBB58_1:
Ltmp649:
	.loc	10 193 31 is_stmt 0
	leaq	-48(%rbp), %rdi
	callq	__ZN94_$LT$core..slice..iter..IterMut$LT$T$GT$$u20$as$u20$core..iter..traits..iterator..Iterator$GT$4next17h79364c9c01758856E
	movq	%rax, -32(%rbp)
	movq	-32(%rbp), %rdx
	movl	$1, %eax
	xorl	%ecx, %ecx
	cmpq	$0, %rdx
	cmoveq	%rcx, %rax
	cmpq	$0, %rax
	jne	LBB58_3
Ltmp650:
	.loc	10 196 14 is_stmt 1
	addq	$48, %rsp
	popq	%rbp
	retq
LBB58_3:
Ltmp651:
	.loc	10 193 21
	movq	-32(%rbp), %rdi
	movq	%rdi, -8(%rbp)
Ltmp652:
	.loc	10 194 21
	callq	__ZN36_$LT$u16$u20$as$u20$lebe..Endian$GT$10swap_bytes17hf648c4a1185690edE
	jmp	LBB58_1
Ltmp653:
Lfunc_end58:
	.cfi_endproc

	.globl	__ZN46_$LT$$u5b$u32$u5d$$u20$as$u20$lebe..Endian$GT$10swap_bytes17h93d823349dc6c4dcE
	.p2align	4, 0x90
__ZN46_$LT$$u5b$u32$u5d$$u20$as$u20$lebe..Endian$GT$10swap_bytes17h93d823349dc6c4dcE:
Lfunc_begin59:
	.loc	10 192 0
	.cfi_startproc
	pushq	%rbp
	.cfi_def_cfa_offset 16
	.cfi_offset %rbp, -16
	movq	%rsp, %rbp
	.cfi_def_cfa_register %rbp
	subq	$48, %rsp
	movq	%rdi, -24(%rbp)
	movq	%rsi, -16(%rbp)
Ltmp654:
	.loc	10 193 31 prologue_end
	callq	__ZN4core5slice29_$LT$impl$u20$$u5b$T$u5d$$GT$8iter_mut17h5bc438d618874622E
	movq	%rax, %rdi
	movq	%rdx, %rsi
	callq	__ZN63_$LT$I$u20$as$u20$core..iter..traits..collect..IntoIterator$GT$9into_iter17h476b7c5080496ca6E
	movq	%rax, -48(%rbp)
	movq	%rdx, -40(%rbp)
LBB59_1:
Ltmp655:
	.loc	10 193 31 is_stmt 0
	leaq	-48(%rbp), %rdi
	callq	__ZN94_$LT$core..slice..iter..IterMut$LT$T$GT$$u20$as$u20$core..iter..traits..iterator..Iterator$GT$4next17h03474aa1826038b4E
	movq	%rax, -32(%rbp)
	movq	-32(%rbp), %rdx
	movl	$1, %eax
	xorl	%ecx, %ecx
	cmpq	$0, %rdx
	cmoveq	%rcx, %rax
	cmpq	$0, %rax
	jne	LBB59_3
Ltmp656:
	.loc	10 196 14 is_stmt 1
	addq	$48, %rsp
	popq	%rbp
	retq
LBB59_3:
Ltmp657:
	.loc	10 193 21
	movq	-32(%rbp), %rdi
	movq	%rdi, -8(%rbp)
Ltmp658:
	.loc	10 194 21
	callq	__ZN36_$LT$u32$u20$as$u20$lebe..Endian$GT$10swap_bytes17h16e8da9056a10620E
	jmp	LBB59_1
Ltmp659:
Lfunc_end59:
	.cfi_endproc

	.globl	__ZN46_$LT$$u5b$u64$u5d$$u20$as$u20$lebe..Endian$GT$10swap_bytes17h079cef8db4d1e8e6E
	.p2align	4, 0x90
__ZN46_$LT$$u5b$u64$u5d$$u20$as$u20$lebe..Endian$GT$10swap_bytes17h079cef8db4d1e8e6E:
Lfunc_begin60:
	.loc	10 192 0
	.cfi_startproc
	pushq	%rbp
	.cfi_def_cfa_offset 16
	.cfi_offset %rbp, -16
	movq	%rsp, %rbp
	.cfi_def_cfa_register %rbp
	subq	$48, %rsp
	movq	%rdi, -24(%rbp)
	movq	%rsi, -16(%rbp)
Ltmp660:
	.loc	10 193 31 prologue_end
	callq	__ZN4core5slice29_$LT$impl$u20$$u5b$T$u5d$$GT$8iter_mut17h8b0ed5be755eeb58E
	movq	%rax, %rdi
	movq	%rdx, %rsi
	callq	__ZN63_$LT$I$u20$as$u20$core..iter..traits..collect..IntoIterator$GT$9into_iter17ha836349713ec3b75E
	movq	%rax, -48(%rbp)
	movq	%rdx, -40(%rbp)
LBB60_1:
Ltmp661:
	.loc	10 193 31 is_stmt 0
	leaq	-48(%rbp), %rdi
	callq	__ZN94_$LT$core..slice..iter..IterMut$LT$T$GT$$u20$as$u20$core..iter..traits..iterator..Iterator$GT$4next17h8b7620015140b856E
	movq	%rax, -32(%rbp)
	movq	-32(%rbp), %rdx
	movl	$1, %eax
	xorl	%ecx, %ecx
	cmpq	$0, %rdx
	cmoveq	%rcx, %rax
	cmpq	$0, %rax
	jne	LBB60_3
Ltmp662:
	.loc	10 196 14 is_stmt 1
	addq	$48, %rsp
	popq	%rbp
	retq
LBB60_3:
Ltmp663:
	.loc	10 193 21
	movq	-32(%rbp), %rdi
	movq	%rdi, -8(%rbp)
Ltmp664:
	.loc	10 194 21
	callq	__ZN36_$LT$u64$u20$as$u20$lebe..Endian$GT$10swap_bytes17he0e9baa06a836e6eE
	jmp	LBB60_1
Ltmp665:
Lfunc_end60:
	.cfi_endproc

	.globl	__ZN47_$LT$$u5b$u128$u5d$$u20$as$u20$lebe..Endian$GT$10swap_bytes17h3ad5bc0eeebd6467E
	.p2align	4, 0x90
__ZN47_$LT$$u5b$u128$u5d$$u20$as$u20$lebe..Endian$GT$10swap_bytes17h3ad5bc0eeebd6467E:
Lfunc_begin61:
	.loc	10 192 0
	.cfi_startproc
	pushq	%rbp
	.cfi_def_cfa_offset 16
	.cfi_offset %rbp, -16
	movq	%rsp, %rbp
	.cfi_def_cfa_register %rbp
	subq	$48, %rsp
	movq	%rdi, -24(%rbp)
	movq	%rsi, -16(%rbp)
Ltmp666:
	.loc	10 193 31 prologue_end
	callq	__ZN4core5slice29_$LT$impl$u20$$u5b$T$u5d$$GT$8iter_mut17h926c1bc2b5b7fb87E
	movq	%rax, %rdi
	movq	%rdx, %rsi
	callq	__ZN63_$LT$I$u20$as$u20$core..iter..traits..collect..IntoIterator$GT$9into_iter17h30dc2d2c8c0ae95fE
	movq	%rax, -48(%rbp)
	movq	%rdx, -40(%rbp)
LBB61_1:
Ltmp667:
	.loc	10 193 31 is_stmt 0
	leaq	-48(%rbp), %rdi
	callq	__ZN94_$LT$core..slice..iter..IterMut$LT$T$GT$$u20$as$u20$core..iter..traits..iterator..Iterator$GT$4next17h0f9c792fa8619d4aE
	movq	%rax, -32(%rbp)
	movq	-32(%rbp), %rdx
	movl	$1, %eax
	xorl	%ecx, %ecx
	cmpq	$0, %rdx
	cmoveq	%rcx, %rax
	cmpq	$0, %rax
	jne	LBB61_3
Ltmp668:
	.loc	10 196 14 is_stmt 1
	addq	$48, %rsp
	popq	%rbp
	retq
LBB61_3:
Ltmp669:
	.loc	10 193 21
	movq	-32(%rbp), %rdi
	movq	%rdi, -8(%rbp)
Ltmp670:
	.loc	10 194 21
	callq	__ZN37_$LT$u128$u20$as$u20$lebe..Endian$GT$10swap_bytes17hd383f870003615c1E
	jmp	LBB61_1
Ltmp671:
Lfunc_end61:
	.cfi_endproc

	.globl	__ZN46_$LT$$u5b$i16$u5d$$u20$as$u20$lebe..Endian$GT$10swap_bytes17hf8f9d2d7162a4ad1E
	.p2align	4, 0x90
__ZN46_$LT$$u5b$i16$u5d$$u20$as$u20$lebe..Endian$GT$10swap_bytes17hf8f9d2d7162a4ad1E:
Lfunc_begin62:
	.loc	10 192 0
	.cfi_startproc
	pushq	%rbp
	.cfi_def_cfa_offset 16
	.cfi_offset %rbp, -16
	movq	%rsp, %rbp
	.cfi_def_cfa_register %rbp
	subq	$48, %rsp
	movq	%rdi, -24(%rbp)
	movq	%rsi, -16(%rbp)
Ltmp672:
	.loc	10 193 31 prologue_end
	callq	__ZN4core5slice29_$LT$impl$u20$$u5b$T$u5d$$GT$8iter_mut17h3b1682901dfde5a1E
	movq	%rax, %rdi
	movq	%rdx, %rsi
	callq	__ZN63_$LT$I$u20$as$u20$core..iter..traits..collect..IntoIterator$GT$9into_iter17h8bbba5510215640eE
	movq	%rax, -48(%rbp)
	movq	%rdx, -40(%rbp)
LBB62_1:
Ltmp673:
	.loc	10 193 31 is_stmt 0
	leaq	-48(%rbp), %rdi
	callq	__ZN94_$LT$core..slice..iter..IterMut$LT$T$GT$$u20$as$u20$core..iter..traits..iterator..Iterator$GT$4next17h577bdb32f3fae888E
	movq	%rax, -32(%rbp)
	movq	-32(%rbp), %rdx
	movl	$1, %eax
	xorl	%ecx, %ecx
	cmpq	$0, %rdx
	cmoveq	%rcx, %rax
	cmpq	$0, %rax
	jne	LBB62_3
Ltmp674:
	.loc	10 196 14 is_stmt 1
	addq	$48, %rsp
	popq	%rbp
	retq
LBB62_3:
Ltmp675:
	.loc	10 193 21
	movq	-32(%rbp), %rdi
	movq	%rdi, -8(%rbp)
Ltmp676:
	.loc	10 194 21
	callq	__ZN36_$LT$i16$u20$as$u20$lebe..Endian$GT$10swap_bytes17hd15dd14314f0bb13E
	jmp	LBB62_1
Ltmp677:
Lfunc_end62:
	.cfi_endproc

	.globl	__ZN46_$LT$$u5b$i32$u5d$$u20$as$u20$lebe..Endian$GT$10swap_bytes17hb5d80208b21a4e47E
	.p2align	4, 0x90
__ZN46_$LT$$u5b$i32$u5d$$u20$as$u20$lebe..Endian$GT$10swap_bytes17hb5d80208b21a4e47E:
Lfunc_begin63:
	.loc	10 192 0
	.cfi_startproc
	pushq	%rbp
	.cfi_def_cfa_offset 16
	.cfi_offset %rbp, -16
	movq	%rsp, %rbp
	.cfi_def_cfa_register %rbp
	subq	$48, %rsp
	movq	%rdi, -24(%rbp)
	movq	%rsi, -16(%rbp)
Ltmp678:
	.loc	10 193 31 prologue_end
	callq	__ZN4core5slice29_$LT$impl$u20$$u5b$T$u5d$$GT$8iter_mut17h7d319b8e478a6de1E
	movq	%rax, %rdi
	movq	%rdx, %rsi
	callq	__ZN63_$LT$I$u20$as$u20$core..iter..traits..collect..IntoIterator$GT$9into_iter17hab4c6ce0c6dbca9cE
	movq	%rax, -48(%rbp)
	movq	%rdx, -40(%rbp)
LBB63_1:
Ltmp679:
	.loc	10 193 31 is_stmt 0
	leaq	-48(%rbp), %rdi
	callq	__ZN94_$LT$core..slice..iter..IterMut$LT$T$GT$$u20$as$u20$core..iter..traits..iterator..Iterator$GT$4next17h81f6828d4149d002E
	movq	%rax, -32(%rbp)
	movq	-32(%rbp), %rdx
	movl	$1, %eax
	xorl	%ecx, %ecx
	cmpq	$0, %rdx
	cmoveq	%rcx, %rax
	cmpq	$0, %rax
	jne	LBB63_3
Ltmp680:
	.loc	10 196 14 is_stmt 1
	addq	$48, %rsp
	popq	%rbp
	retq
LBB63_3:
Ltmp681:
	.loc	10 193 21
	movq	-32(%rbp), %rdi
	movq	%rdi, -8(%rbp)
Ltmp682:
	.loc	10 194 21
	callq	__ZN36_$LT$i32$u20$as$u20$lebe..Endian$GT$10swap_bytes17he185952f4b97e12bE
	jmp	LBB63_1
Ltmp683:
Lfunc_end63:
	.cfi_endproc

	.globl	__ZN46_$LT$$u5b$i64$u5d$$u20$as$u20$lebe..Endian$GT$10swap_bytes17h7067dd5c8bd6c83bE
	.p2align	4, 0x90
__ZN46_$LT$$u5b$i64$u5d$$u20$as$u20$lebe..Endian$GT$10swap_bytes17h7067dd5c8bd6c83bE:
Lfunc_begin64:
	.loc	10 192 0
	.cfi_startproc
	pushq	%rbp
	.cfi_def_cfa_offset 16
	.cfi_offset %rbp, -16
	movq	%rsp, %rbp
	.cfi_def_cfa_register %rbp
	subq	$48, %rsp
	movq	%rdi, -24(%rbp)
	movq	%rsi, -16(%rbp)
Ltmp684:
	.loc	10 193 31 prologue_end
	callq	__ZN4core5slice29_$LT$impl$u20$$u5b$T$u5d$$GT$8iter_mut17h3069394d7032fa58E
	movq	%rax, %rdi
	movq	%rdx, %rsi
	callq	__ZN63_$LT$I$u20$as$u20$core..iter..traits..collect..IntoIterator$GT$9into_iter17h110b394fb28b74c7E
	movq	%rax, -48(%rbp)
	movq	%rdx, -40(%rbp)
LBB64_1:
Ltmp685:
	.loc	10 193 31 is_stmt 0
	leaq	-48(%rbp), %rdi
	callq	__ZN94_$LT$core..slice..iter..IterMut$LT$T$GT$$u20$as$u20$core..iter..traits..iterator..Iterator$GT$4next17h2ca7bf11fb920797E
	movq	%rax, -32(%rbp)
	movq	-32(%rbp), %rdx
	movl	$1, %eax
	xorl	%ecx, %ecx
	cmpq	$0, %rdx
	cmoveq	%rcx, %rax
	cmpq	$0, %rax
	jne	LBB64_3
Ltmp686:
	.loc	10 196 14 is_stmt 1
	addq	$48, %rsp
	popq	%rbp
	retq
LBB64_3:
Ltmp687:
	.loc	10 193 21
	movq	-32(%rbp), %rdi
	movq	%rdi, -8(%rbp)
Ltmp688:
	.loc	10 194 21
	callq	__ZN36_$LT$i64$u20$as$u20$lebe..Endian$GT$10swap_bytes17h74eff7bbb201f3d3E
	jmp	LBB64_1
Ltmp689:
Lfunc_end64:
	.cfi_endproc

	.globl	__ZN47_$LT$$u5b$i128$u5d$$u20$as$u20$lebe..Endian$GT$10swap_bytes17h43a9af5aff0b2998E
	.p2align	4, 0x90
__ZN47_$LT$$u5b$i128$u5d$$u20$as$u20$lebe..Endian$GT$10swap_bytes17h43a9af5aff0b2998E:
Lfunc_begin65:
	.loc	10 192 0
	.cfi_startproc
	pushq	%rbp
	.cfi_def_cfa_offset 16
	.cfi_offset %rbp, -16
	movq	%rsp, %rbp
	.cfi_def_cfa_register %rbp
	subq	$48, %rsp
	movq	%rdi, -24(%rbp)
	movq	%rsi, -16(%rbp)
Ltmp690:
	.loc	10 193 31 prologue_end
	callq	__ZN4core5slice29_$LT$impl$u20$$u5b$T$u5d$$GT$8iter_mut17h4a68ad81202234e0E
	movq	%rax, %rdi
	movq	%rdx, %rsi
	callq	__ZN63_$LT$I$u20$as$u20$core..iter..traits..collect..IntoIterator$GT$9into_iter17hfa3b7bdb997b72beE
	movq	%rax, -48(%rbp)
	movq	%rdx, -40(%rbp)
LBB65_1:
Ltmp691:
	.loc	10 193 31 is_stmt 0
	leaq	-48(%rbp), %rdi
	callq	__ZN94_$LT$core..slice..iter..IterMut$LT$T$GT$$u20$as$u20$core..iter..traits..iterator..Iterator$GT$4next17h2b487de0391c7011E
	movq	%rax, -32(%rbp)
	movq	-32(%rbp), %rdx
	movl	$1, %eax
	xorl	%ecx, %ecx
	cmpq	$0, %rdx
	cmoveq	%rcx, %rax
	cmpq	$0, %rax
	jne	LBB65_3
Ltmp692:
	.loc	10 196 14 is_stmt 1
	addq	$48, %rsp
	popq	%rbp
	retq
LBB65_3:
Ltmp693:
	.loc	10 193 21
	movq	-32(%rbp), %rdi
	movq	%rdi, -8(%rbp)
Ltmp694:
	.loc	10 194 21
	callq	__ZN37_$LT$i128$u20$as$u20$lebe..Endian$GT$10swap_bytes17hea836276766a26feE
	jmp	LBB65_1
Ltmp695:
Lfunc_end65:
	.cfi_endproc

	.globl	__ZN46_$LT$$u5b$f64$u5d$$u20$as$u20$lebe..Endian$GT$10swap_bytes17hb5ab4a2456b0e4dfE
	.p2align	4, 0x90
__ZN46_$LT$$u5b$f64$u5d$$u20$as$u20$lebe..Endian$GT$10swap_bytes17hb5ab4a2456b0e4dfE:
Lfunc_begin66:
	.loc	10 192 0
	.cfi_startproc
	pushq	%rbp
	.cfi_def_cfa_offset 16
	.cfi_offset %rbp, -16
	movq	%rsp, %rbp
	.cfi_def_cfa_register %rbp
	subq	$48, %rsp
	movq	%rdi, -24(%rbp)
	movq	%rsi, -16(%rbp)
Ltmp696:
	.loc	10 193 31 prologue_end
	callq	__ZN4core5slice29_$LT$impl$u20$$u5b$T$u5d$$GT$8iter_mut17hdc8eb8619760e4b6E
	movq	%rax, %rdi
	movq	%rdx, %rsi
	callq	__ZN63_$LT$I$u20$as$u20$core..iter..traits..collect..IntoIterator$GT$9into_iter17hf9e7e948dea236d5E
	movq	%rax, -48(%rbp)
	movq	%rdx, -40(%rbp)
LBB66_1:
Ltmp697:
	.loc	10 193 31 is_stmt 0
	leaq	-48(%rbp), %rdi
	callq	__ZN94_$LT$core..slice..iter..IterMut$LT$T$GT$$u20$as$u20$core..iter..traits..iterator..Iterator$GT$4next17h8b9d92f29dc68edbE
	movq	%rax, -32(%rbp)
	movq	-32(%rbp), %rdx
	movl	$1, %eax
	xorl	%ecx, %ecx
	cmpq	$0, %rdx
	cmoveq	%rcx, %rax
	cmpq	$0, %rax
	jne	LBB66_3
Ltmp698:
	.loc	10 196 14 is_stmt 1
	addq	$48, %rsp
	popq	%rbp
	retq
LBB66_3:
Ltmp699:
	.loc	10 193 21
	movq	-32(%rbp), %rdi
	movq	%rdi, -8(%rbp)
Ltmp700:
	.loc	10 194 21
	callq	__ZN36_$LT$f64$u20$as$u20$lebe..Endian$GT$10swap_bytes17hfd925325090c3b3bE
	jmp	LBB66_1
Ltmp701:
Lfunc_end66:
	.cfi_endproc

	.globl	__ZN46_$LT$$u5b$f32$u5d$$u20$as$u20$lebe..Endian$GT$10swap_bytes17he1804c3341f777a4E
	.p2align	4, 0x90
__ZN46_$LT$$u5b$f32$u5d$$u20$as$u20$lebe..Endian$GT$10swap_bytes17he1804c3341f777a4E:
Lfunc_begin67:
	.loc	10 192 0
	.cfi_startproc
	pushq	%rbp
	.cfi_def_cfa_offset 16
	.cfi_offset %rbp, -16
	movq	%rsp, %rbp
	.cfi_def_cfa_register %rbp
	subq	$48, %rsp
	movq	%rdi, -24(%rbp)
	movq	%rsi, -16(%rbp)
Ltmp702:
	.loc	10 193 31 prologue_end
	callq	__ZN4core5slice29_$LT$impl$u20$$u5b$T$u5d$$GT$8iter_mut17h1198902d8d6c8a60E
	movq	%rax, %rdi
	movq	%rdx, %rsi
	callq	__ZN63_$LT$I$u20$as$u20$core..iter..traits..collect..IntoIterator$GT$9into_iter17h1b80a74f6b9dec37E
	movq	%rax, -48(%rbp)
	movq	%rdx, -40(%rbp)
LBB67_1:
Ltmp703:
	.loc	10 193 31 is_stmt 0
	leaq	-48(%rbp), %rdi
	callq	__ZN94_$LT$core..slice..iter..IterMut$LT$T$GT$$u20$as$u20$core..iter..traits..iterator..Iterator$GT$4next17hba17d81f48d8255cE
	movq	%rax, -32(%rbp)
	movq	-32(%rbp), %rdx
	movl	$1, %eax
	xorl	%ecx, %ecx
	cmpq	$0, %rdx
	cmoveq	%rcx, %rax
	cmpq	$0, %rax
	jne	LBB67_3
Ltmp704:
	.loc	10 196 14 is_stmt 1
	addq	$48, %rsp
	popq	%rbp
	retq
LBB67_3:
Ltmp705:
	.loc	10 193 21
	movq	-32(%rbp), %rdi
	movq	%rdi, -8(%rbp)
Ltmp706:
	.loc	10 194 21
	callq	__ZN36_$LT$f32$u20$as$u20$lebe..Endian$GT$10swap_bytes17hd55d6f5ddf3e46c8E
	jmp	LBB67_1
Ltmp707:
Lfunc_end67:
	.cfi_endproc

	.section	__TEXT,__text,regular,pure_instructions
Lsec_end0: