	.section	__TEXT,__text,regular,pure_instructions
	.macosx_version_min 10, 7
	.globl	__ZN54_$LT$libc..unix..DIR$u20$as$u20$core..clone..Clone$GT$5clone17h76d607370286aa5cE
	.p2align	4, 0x90
__ZN54_$LT$libc..unix..DIR$u20$as$u20$core..clone..Clone$GT$5clone17h76d607370286aa5cE:
Lfunc_begin0:
	.file	1 "/Users/natalie/.cargo/registry/src/github.com-1ecc6299db9ec823/libc-0.2.137" "src/unix/mod.rs"
	.loc	1 45 0
	.cfi_startproc
	pushq	%rbp
	.cfi_def_cfa_offset 16
	.cfi_offset %rbp, -16
	movq	%rsp, %rbp
	.cfi_def_cfa_register %rbp
	pushq	%rax
	movq	%rdi, -8(%rbp)
Ltmp0:
	.loc	1 47 6 prologue_end
	ud2
Ltmp1:
Lfunc_end0:
	.cfi_endproc

	.globl	__ZN55_$LT$libc..unix..FILE$u20$as$u20$core..clone..Clone$GT$5clone17hc0a11d6cbc726ad3E
	.p2align	4, 0x90
__ZN55_$LT$libc..unix..FILE$u20$as$u20$core..clone..Clone$GT$5clone17hc0a11d6cbc726ad3E:
Lfunc_begin1:
	.loc	1 403 0
	.cfi_startproc
	pushq	%rbp
	.cfi_def_cfa_offset 16
	.cfi_offset %rbp, -16
	movq	%rsp, %rbp
	.cfi_def_cfa_register %rbp
	pushq	%rax
	movq	%rdi, -8(%rbp)
Ltmp2:
	.loc	1 405 6 prologue_end
	ud2
Ltmp3:
Lfunc_end1:
	.cfi_endproc

	.globl	__ZN57_$LT$libc..unix..fpos_t$u20$as$u20$core..clone..Clone$GT$5clone17hb63cebdeccbbb319E
	.p2align	4, 0x90
__ZN57_$LT$libc..unix..fpos_t$u20$as$u20$core..clone..Clone$GT$5clone17hb63cebdeccbbb319E:
Lfunc_begin2:
	.loc	1 411 0
	.cfi_startproc
	pushq	%rbp
	.cfi_def_cfa_offset 16
	.cfi_offset %rbp, -16
	movq	%rsp, %rbp
	.cfi_def_cfa_register %rbp
	pushq	%rax
	movq	%rdi, -8(%rbp)
Ltmp4:
	.loc	1 413 6 prologue_end
	ud2
Ltmp5:
Lfunc_end2:
	.cfi_endproc

	.globl	__ZN56_$LT$libc..unix..group$u20$as$u20$core..clone..Clone$GT$5clone17haec00862a28c30e3E
	.p2align	4, 0x90
__ZN56_$LT$libc..unix..group$u20$as$u20$core..clone..Clone$GT$5clone17haec00862a28c30e3E:
Lfunc_begin3:
	.file	2 "/Users/natalie/.cargo/registry/src/github.com-1ecc6299db9ec823/libc-0.2.137" "src/macros.rs"
	.loc	2 83 0
	.cfi_startproc
	pushq	%rbp
	.cfi_def_cfa_offset 16
	.cfi_offset %rbp, -16
	movq	%rsp, %rbp
	.cfi_def_cfa_register %rbp
	pushq	%rax
	movq	%rdi, %rax
	movq	%rsi, -8(%rbp)
Ltmp6:
	.loc	2 83 37 prologue_end
	movq	(%rsi), %rcx
	movq	%rcx, (%rdi)
	movq	8(%rsi), %rcx
	movq	%rcx, 8(%rdi)
	movq	16(%rsi), %rcx
	movq	%rcx, 16(%rdi)
	movq	24(%rsi), %rcx
	movq	%rcx, 24(%rdi)
	.loc	2 83 44 is_stmt 0
	addq	$8, %rsp
	popq	%rbp
	retq
Ltmp7:
Lfunc_end3:
	.cfi_endproc

	.globl	__ZN58_$LT$libc..unix..utimbuf$u20$as$u20$core..clone..Clone$GT$5clone17h0303950e62bb037aE
	.p2align	4, 0x90
__ZN58_$LT$libc..unix..utimbuf$u20$as$u20$core..clone..Clone$GT$5clone17h0303950e62bb037aE:
Lfunc_begin4:
	.loc	2 83 0 is_stmt 1
	.cfi_startproc
	pushq	%rbp
	.cfi_def_cfa_offset 16
	.cfi_offset %rbp, -16
	movq	%rsp, %rbp
	.cfi_def_cfa_register %rbp
	pushq	%rax
	movq	%rdi, -8(%rbp)
Ltmp8:
	.loc	2 83 37 prologue_end
	movq	(%rdi), %rax
	movq	8(%rdi), %rdx
	.loc	2 83 44 is_stmt 0
	addq	$8, %rsp
	popq	%rbp
	retq
Ltmp9:
Lfunc_end4:
	.cfi_endproc

	.globl	__ZN58_$LT$libc..unix..timeval$u20$as$u20$core..clone..Clone$GT$5clone17hc2bb4f49eb89e2e1E
	.p2align	4, 0x90
__ZN58_$LT$libc..unix..timeval$u20$as$u20$core..clone..Clone$GT$5clone17hc2bb4f49eb89e2e1E:
Lfunc_begin5:
	.loc	2 83 0 is_stmt 1
	.cfi_startproc
	pushq	%rbp
	.cfi_def_cfa_offset 16
	.cfi_offset %rbp, -16
	movq	%rsp, %rbp
	.cfi_def_cfa_register %rbp
	pushq	%rax
	movq	%rdi, -8(%rbp)
Ltmp10:
	.loc	2 83 37 prologue_end
	movq	(%rdi), %rax
	movl	8(%rdi), %edx
	.loc	2 83 44 is_stmt 0
	addq	$8, %rsp
	popq	%rbp
	retq
Ltmp11:
Lfunc_end5:
	.cfi_endproc

	.globl	__ZN59_$LT$libc..unix..timespec$u20$as$u20$core..clone..Clone$GT$5clone17h574638f68b983645E
	.p2align	4, 0x90
__ZN59_$LT$libc..unix..timespec$u20$as$u20$core..clone..Clone$GT$5clone17h574638f68b983645E:
Lfunc_begin6:
	.loc	2 83 0 is_stmt 1
	.cfi_startproc
	pushq	%rbp
	.cfi_def_cfa_offset 16
	.cfi_offset %rbp, -16
	movq	%rsp, %rbp
	.cfi_def_cfa_register %rbp
	pushq	%rax
	movq	%rdi, -8(%rbp)
Ltmp12:
	.loc	2 83 37 prologue_end
	movq	(%rdi), %rax
	movq	8(%rdi), %rdx
	.loc	2 83 44 is_stmt 0
	addq	$8, %rsp
	popq	%rbp
	retq
Ltmp13:
Lfunc_end6:
	.cfi_endproc

	.globl	__ZN57_$LT$libc..unix..rlimit$u20$as$u20$core..clone..Clone$GT$5clone17h327f1686918cbe3aE
	.p2align	4, 0x90
__ZN57_$LT$libc..unix..rlimit$u20$as$u20$core..clone..Clone$GT$5clone17h327f1686918cbe3aE:
Lfunc_begin7:
	.loc	2 83 0 is_stmt 1
	.cfi_startproc
	pushq	%rbp
	.cfi_def_cfa_offset 16
	.cfi_offset %rbp, -16
	movq	%rsp, %rbp
	.cfi_def_cfa_register %rbp
	pushq	%rax
	movq	%rdi, -8(%rbp)
Ltmp14:
	.loc	2 83 37 prologue_end
	movq	(%rdi), %rax
	movq	8(%rdi), %rdx
	.loc	2 83 44 is_stmt 0
	addq	$8, %rsp
	popq	%rbp
	retq
Ltmp15:
Lfunc_end7:
	.cfi_endproc

	.globl	__ZN57_$LT$libc..unix..rusage$u20$as$u20$core..clone..Clone$GT$5clone17h200192cf8418eecdE
	.p2align	4, 0x90
__ZN57_$LT$libc..unix..rusage$u20$as$u20$core..clone..Clone$GT$5clone17h200192cf8418eecdE:
Lfunc_begin8:
	.loc	2 83 0 is_stmt 1
	.cfi_startproc
	pushq	%rbp
	.cfi_def_cfa_offset 16
	.cfi_offset %rbp, -16
	movq	%rsp, %rbp
	.cfi_def_cfa_register %rbp
	subq	$16, %rsp
	movq	%rdi, %rax
	movq	%rax, -16(%rbp)
	movq	%rsi, -8(%rbp)
Ltmp16:
	.loc	2 83 37 prologue_end
	movl	$144, %edx
	callq	_memcpy
	movq	-16(%rbp), %rax
	.loc	2 83 44 is_stmt 0
	addq	$16, %rsp
	popq	%rbp
	retq
Ltmp17:
Lfunc_end8:
	.cfi_endproc

	.globl	__ZN60_$LT$libc..unix..ipv6_mreq$u20$as$u20$core..clone..Clone$GT$5clone17h9b417344b98f276aE
	.p2align	4, 0x90
__ZN60_$LT$libc..unix..ipv6_mreq$u20$as$u20$core..clone..Clone$GT$5clone17h9b417344b98f276aE:
Lfunc_begin9:
	.loc	2 83 0 is_stmt 1
	.cfi_startproc
	pushq	%rbp
	.cfi_def_cfa_offset 16
	.cfi_offset %rbp, -16
	movq	%rsp, %rbp
	.cfi_def_cfa_register %rbp
	pushq	%rax
	movq	%rdi, %rax
	movq	%rsi, -8(%rbp)
Ltmp18:
	.loc	2 83 37 prologue_end
	movq	(%rsi), %rcx
	movq	%rcx, (%rdi)
	movq	8(%rsi), %rcx
	movq	%rcx, 8(%rdi)
	movl	16(%rsi), %ecx
	movl	%ecx, 16(%rdi)
	.loc	2 83 44 is_stmt 0
	addq	$8, %rsp
	popq	%rbp
	retq
Ltmp19:
Lfunc_end9:
	.cfi_endproc

	.globl	__ZN58_$LT$libc..unix..hostent$u20$as$u20$core..clone..Clone$GT$5clone17h683d6dec284a2fcbE
	.p2align	4, 0x90
__ZN58_$LT$libc..unix..hostent$u20$as$u20$core..clone..Clone$GT$5clone17h683d6dec284a2fcbE:
Lfunc_begin10:
	.loc	2 83 0 is_stmt 1
	.cfi_startproc
	pushq	%rbp
	.cfi_def_cfa_offset 16
	.cfi_offset %rbp, -16
	movq	%rsp, %rbp
	.cfi_def_cfa_register %rbp
	pushq	%rax
	movq	%rdi, %rax
	movq	%rsi, -8(%rbp)
Ltmp20:
	.loc	2 83 37 prologue_end
	movq	(%rsi), %rcx
	movq	%rcx, (%rdi)
	movq	8(%rsi), %rcx
	movq	%rcx, 8(%rdi)
	movq	16(%rsi), %rcx
	movq	%rcx, 16(%rdi)
	movq	24(%rsi), %rcx
	movq	%rcx, 24(%rdi)
	.loc	2 83 44 is_stmt 0
	addq	$8, %rsp
	popq	%rbp
	retq
Ltmp21:
Lfunc_end10:
	.cfi_endproc

	.globl	__ZN56_$LT$libc..unix..iovec$u20$as$u20$core..clone..Clone$GT$5clone17hace1450bc0fcc061E
	.p2align	4, 0x90
__ZN56_$LT$libc..unix..iovec$u20$as$u20$core..clone..Clone$GT$5clone17hace1450bc0fcc061E:
Lfunc_begin11:
	.loc	2 83 0 is_stmt 1
	.cfi_startproc
	pushq	%rbp
	.cfi_def_cfa_offset 16
	.cfi_offset %rbp, -16
	movq	%rsp, %rbp
	.cfi_def_cfa_register %rbp
	pushq	%rax
	movq	%rdi, -8(%rbp)
Ltmp22:
	.loc	2 83 37 prologue_end
	movq	(%rdi), %rax
	movq	8(%rdi), %rdx
	.loc	2 83 44 is_stmt 0
	addq	$8, %rsp
	popq	%rbp
	retq
Ltmp23:
Lfunc_end11:
	.cfi_endproc

	.globl	__ZN57_$LT$libc..unix..pollfd$u20$as$u20$core..clone..Clone$GT$5clone17h1b18f917d798df82E
	.p2align	4, 0x90
__ZN57_$LT$libc..unix..pollfd$u20$as$u20$core..clone..Clone$GT$5clone17h1b18f917d798df82E:
Lfunc_begin12:
	.loc	2 83 0 is_stmt 1
	.cfi_startproc
	pushq	%rbp
	.cfi_def_cfa_offset 16
	.cfi_offset %rbp, -16
	movq	%rsp, %rbp
	.cfi_def_cfa_register %rbp
	subq	$16, %rsp
	movq	%rdi, -8(%rbp)
Ltmp24:
	.loc	2 83 37 prologue_end
	movq	(%rdi), %rax
	movq	%rax, -16(%rbp)
	.loc	2 83 44 is_stmt 0
	movq	-16(%rbp), %rax
	addq	$16, %rsp
	popq	%rbp
	retq
Ltmp25:
Lfunc_end12:
	.cfi_endproc

	.globl	__ZN58_$LT$libc..unix..winsize$u20$as$u20$core..clone..Clone$GT$5clone17h8869e3f62aa82cc6E
	.p2align	4, 0x90
__ZN58_$LT$libc..unix..winsize$u20$as$u20$core..clone..Clone$GT$5clone17h8869e3f62aa82cc6E:
Lfunc_begin13:
	.loc	2 83 0 is_stmt 1
	.cfi_startproc
	pushq	%rbp
	.cfi_def_cfa_offset 16
	.cfi_offset %rbp, -16
	movq	%rsp, %rbp
	.cfi_def_cfa_register %rbp
	subq	$16, %rsp
	movq	%rdi, -8(%rbp)
Ltmp26:
	.loc	2 83 37 prologue_end
	movq	(%rdi), %rax
	movq	%rax, -16(%rbp)
	.loc	2 83 44 is_stmt 0
	movq	-16(%rbp), %rax
	addq	$16, %rsp
	popq	%rbp
	retq
Ltmp27:
Lfunc_end13:
	.cfi_endproc

	.globl	__ZN57_$LT$libc..unix..linger$u20$as$u20$core..clone..Clone$GT$5clone17h45a1873e1cddc829E
	.p2align	4, 0x90
__ZN57_$LT$libc..unix..linger$u20$as$u20$core..clone..Clone$GT$5clone17h45a1873e1cddc829E:
Lfunc_begin14:
	.loc	2 83 0 is_stmt 1
	.cfi_startproc
	pushq	%rbp
	.cfi_def_cfa_offset 16
	.cfi_offset %rbp, -16
	movq	%rsp, %rbp
	.cfi_def_cfa_register %rbp
	pushq	%rax
	movq	%rdi, -8(%rbp)
Ltmp28:
	.loc	2 83 37 prologue_end
	movl	(%rdi), %eax
	movl	4(%rdi), %edx
	.loc	2 83 44 is_stmt 0
	addq	$8, %rsp
	popq	%rbp
	retq
Ltmp29:
Lfunc_end14:
	.cfi_endproc

	.globl	__ZN57_$LT$libc..unix..sigval$u20$as$u20$core..clone..Clone$GT$5clone17h451ec637449e9042E
	.p2align	4, 0x90
__ZN57_$LT$libc..unix..sigval$u20$as$u20$core..clone..Clone$GT$5clone17h451ec637449e9042E:
Lfunc_begin15:
	.loc	2 83 0 is_stmt 1
	.cfi_startproc
	pushq	%rbp
	.cfi_def_cfa_offset 16
	.cfi_offset %rbp, -16
	movq	%rsp, %rbp
	.cfi_def_cfa_register %rbp
	subq	$16, %rsp
	movq	%rdi, -8(%rbp)
Ltmp30:
	.loc	2 83 37 prologue_end
	movq	(%rdi), %rax
	movq	%rax, -16(%rbp)
	.loc	2 83 44 is_stmt 0
	movq	-16(%rbp), %rax
	addq	$16, %rsp
	popq	%rbp
	retq
Ltmp31:
Lfunc_end15:
	.cfi_endproc

	.globl	__ZN60_$LT$libc..unix..itimerval$u20$as$u20$core..clone..Clone$GT$5clone17h879c7847264771f5E
	.p2align	4, 0x90
__ZN60_$LT$libc..unix..itimerval$u20$as$u20$core..clone..Clone$GT$5clone17h879c7847264771f5E:
Lfunc_begin16:
	.loc	2 83 0 is_stmt 1
	.cfi_startproc
	pushq	%rbp
	.cfi_def_cfa_offset 16
	.cfi_offset %rbp, -16
	movq	%rsp, %rbp
	.cfi_def_cfa_register %rbp
	pushq	%rax
	movq	%rdi, %rax
	movq	%rsi, -8(%rbp)
Ltmp32:
	.loc	2 83 37 prologue_end
	movq	(%rsi), %rcx
	movq	%rcx, (%rdi)
	movq	8(%rsi), %rcx
	movq	%rcx, 8(%rdi)
	movq	16(%rsi), %rcx
	movq	%rcx, 16(%rdi)
	movq	24(%rsi), %rcx
	movq	%rcx, 24(%rdi)
	.loc	2 83 44 is_stmt 0
	addq	$8, %rsp
	popq	%rbp
	retq
Ltmp33:
Lfunc_end16:
	.cfi_endproc

	.globl	__ZN54_$LT$libc..unix..tms$u20$as$u20$core..clone..Clone$GT$5clone17h1e042b79f68a8bc3E
	.p2align	4, 0x90
__ZN54_$LT$libc..unix..tms$u20$as$u20$core..clone..Clone$GT$5clone17h1e042b79f68a8bc3E:
Lfunc_begin17:
	.loc	2 83 0 is_stmt 1
	.cfi_startproc
	pushq	%rbp
	.cfi_def_cfa_offset 16
	.cfi_offset %rbp, -16
	movq	%rsp, %rbp
	.cfi_def_cfa_register %rbp
	pushq	%rax
	movq	%rdi, %rax
	movq	%rsi, -8(%rbp)
Ltmp34:
	.loc	2 83 37 prologue_end
	movq	(%rsi), %rcx
	movq	%rcx, (%rdi)
	movq	8(%rsi), %rcx
	movq	%rcx, 8(%rdi)
	movq	16(%rsi), %rcx
	movq	%rcx, 16(%rdi)
	movq	24(%rsi), %rcx
	movq	%rcx, 24(%rdi)
	.loc	2 83 44 is_stmt 0
	addq	$8, %rsp
	popq	%rbp
	retq
Ltmp35:
Lfunc_end17:
	.cfi_endproc

	.globl	__ZN58_$LT$libc..unix..servent$u20$as$u20$core..clone..Clone$GT$5clone17he5916b56f273a118E
	.p2align	4, 0x90
__ZN58_$LT$libc..unix..servent$u20$as$u20$core..clone..Clone$GT$5clone17he5916b56f273a118E:
Lfunc_begin18:
	.loc	2 83 0 is_stmt 1
	.cfi_startproc
	pushq	%rbp
	.cfi_def_cfa_offset 16
	.cfi_offset %rbp, -16
	movq	%rsp, %rbp
	.cfi_def_cfa_register %rbp
	pushq	%rax
	movq	%rdi, %rax
	movq	%rsi, -8(%rbp)
Ltmp36:
	.loc	2 83 37 prologue_end
	movq	(%rsi), %rcx
	movq	%rcx, (%rdi)
	movq	8(%rsi), %rcx
	movq	%rcx, 8(%rdi)
	movq	16(%rsi), %rcx
	movq	%rcx, 16(%rdi)
	movq	24(%rsi), %rcx
	movq	%rcx, 24(%rdi)
	.loc	2 83 44 is_stmt 0
	addq	$8, %rsp
	popq	%rbp
	retq
Ltmp37:
Lfunc_end18:
	.cfi_endproc

	.globl	__ZN59_$LT$libc..unix..protoent$u20$as$u20$core..clone..Clone$GT$5clone17h0b00cad36f917f40E
	.p2align	4, 0x90
__ZN59_$LT$libc..unix..protoent$u20$as$u20$core..clone..Clone$GT$5clone17h0b00cad36f917f40E:
Lfunc_begin19:
	.loc	2 83 0 is_stmt 1
	.cfi_startproc
	pushq	%rbp
	.cfi_def_cfa_offset 16
	.cfi_offset %rbp, -16
	movq	%rsp, %rbp
	.cfi_def_cfa_register %rbp
	pushq	%rax
	movq	%rdi, %rax
	movq	%rsi, -8(%rbp)
Ltmp38:
	.loc	2 83 37 prologue_end
	movq	(%rsi), %rcx
	movq	%rcx, (%rdi)
	movq	8(%rsi), %rcx
	movq	%rcx, 8(%rdi)
	movq	16(%rsi), %rcx
	movq	%rcx, 16(%rdi)
	.loc	2 83 44 is_stmt 0
	addq	$8, %rsp
	popq	%rbp
	retq
Ltmp39:
Lfunc_end19:
	.cfi_endproc

	.globl	__ZN64_$LT$libc..unix..bsd..sockaddr$u20$as$u20$core..clone..Clone$GT$5clone17hcdd73761ccbd9687E
	.p2align	4, 0x90
__ZN64_$LT$libc..unix..bsd..sockaddr$u20$as$u20$core..clone..Clone$GT$5clone17hcdd73761ccbd9687E:
Lfunc_begin20:
	.loc	2 83 0 is_stmt 1
	.cfi_startproc
	pushq	%rbp
	.cfi_def_cfa_offset 16
	.cfi_offset %rbp, -16
	movq	%rsp, %rbp
	.cfi_def_cfa_register %rbp
	pushq	%rax
	movq	%rdi, %rax
	movq	%rsi, -8(%rbp)
Ltmp40:
	.loc	2 83 37 prologue_end
	movq	(%rsi), %rcx
	movq	%rcx, (%rdi)
	movq	8(%rsi), %rcx
	movq	%rcx, 8(%rdi)
	.loc	2 83 44 is_stmt 0
	addq	$8, %rsp
	popq	%rbp
	retq
Ltmp41:
Lfunc_end20:
	.cfi_endproc

	.globl	__ZN68_$LT$libc..unix..bsd..sockaddr_in6$u20$as$u20$core..clone..Clone$GT$5clone17h86f3e19dd75d770aE
	.p2align	4, 0x90
__ZN68_$LT$libc..unix..bsd..sockaddr_in6$u20$as$u20$core..clone..Clone$GT$5clone17h86f3e19dd75d770aE:
Lfunc_begin21:
	.loc	2 83 0 is_stmt 1
	.cfi_startproc
	pushq	%rbp
	.cfi_def_cfa_offset 16
	.cfi_offset %rbp, -16
	movq	%rsp, %rbp
	.cfi_def_cfa_register %rbp
	pushq	%rax
	movq	%rdi, %rax
	movq	%rsi, -8(%rbp)
Ltmp42:
	.loc	2 83 37 prologue_end
	movq	(%rsi), %rcx
	movq	%rcx, (%rdi)
	movq	8(%rsi), %rcx
	movq	%rcx, 8(%rdi)
	movq	16(%rsi), %rcx
	movq	%rcx, 16(%rdi)
	movl	24(%rsi), %ecx
	movl	%ecx, 24(%rdi)
	.loc	2 83 44 is_stmt 0
	addq	$8, %rsp
	popq	%rbp
	retq
Ltmp43:
Lfunc_end21:
	.cfi_endproc

	.globl	__ZN62_$LT$libc..unix..bsd..passwd$u20$as$u20$core..clone..Clone$GT$5clone17hf7dbbf27a100a4c1E
	.p2align	4, 0x90
__ZN62_$LT$libc..unix..bsd..passwd$u20$as$u20$core..clone..Clone$GT$5clone17hf7dbbf27a100a4c1E:
Lfunc_begin22:
	.loc	2 83 0 is_stmt 1
	.cfi_startproc
	pushq	%rbp
	.cfi_def_cfa_offset 16
	.cfi_offset %rbp, -16
	movq	%rsp, %rbp
	.cfi_def_cfa_register %rbp
	subq	$16, %rsp
	movq	%rdi, %rax
	movq	%rax, -16(%rbp)
	movq	%rsi, -8(%rbp)
Ltmp44:
	.loc	2 83 37 prologue_end
	movl	$72, %edx
	callq	_memcpy
	movq	-16(%rbp), %rax
	.loc	2 83 44 is_stmt 0
	addq	$16, %rsp
	popq	%rbp
	retq
Ltmp45:
Lfunc_end22:
	.cfi_endproc

	.globl	__ZN63_$LT$libc..unix..bsd..ifaddrs$u20$as$u20$core..clone..Clone$GT$5clone17h4bdd3842e0bf592eE
	.p2align	4, 0x90
__ZN63_$LT$libc..unix..bsd..ifaddrs$u20$as$u20$core..clone..Clone$GT$5clone17h4bdd3842e0bf592eE:
Lfunc_begin23:
	.loc	2 83 0 is_stmt 1
	.cfi_startproc
	pushq	%rbp
	.cfi_def_cfa_offset 16
	.cfi_offset %rbp, -16
	movq	%rsp, %rbp
	.cfi_def_cfa_register %rbp
	subq	$16, %rsp
	movq	%rdi, %rax
	movq	%rax, -16(%rbp)
	movq	%rsi, -8(%rbp)
Ltmp46:
	.loc	2 83 37 prologue_end
	movl	$56, %edx
	callq	_memcpy
	movq	-16(%rbp), %rax
	.loc	2 83 44 is_stmt 0
	addq	$16, %rsp
	popq	%rbp
	retq
Ltmp47:
Lfunc_end23:
	.cfi_endproc

	.globl	__ZN62_$LT$libc..unix..bsd..fd_set$u20$as$u20$core..clone..Clone$GT$5clone17h71c1a60c218a94f3E
	.p2align	4, 0x90
__ZN62_$LT$libc..unix..bsd..fd_set$u20$as$u20$core..clone..Clone$GT$5clone17h71c1a60c218a94f3E:
Lfunc_begin24:
	.loc	2 83 0 is_stmt 1
	.cfi_startproc
	pushq	%rbp
	.cfi_def_cfa_offset 16
	.cfi_offset %rbp, -16
	movq	%rsp, %rbp
	.cfi_def_cfa_register %rbp
	subq	$16, %rsp
	movq	%rdi, %rax
	movq	%rax, -16(%rbp)
	movq	%rsi, -8(%rbp)
Ltmp48:
	.loc	2 83 37 prologue_end
	movl	$128, %edx
	callq	_memcpy
	movq	-16(%rbp), %rax
	.loc	2 83 44 is_stmt 0
	addq	$16, %rsp
	popq	%rbp
	retq
Ltmp49:
Lfunc_end24:
	.cfi_endproc

	.globl	__ZN58_$LT$libc..unix..bsd..tm$u20$as$u20$core..clone..Clone$GT$5clone17h17fe4052ed7fd131E
	.p2align	4, 0x90
__ZN58_$LT$libc..unix..bsd..tm$u20$as$u20$core..clone..Clone$GT$5clone17h17fe4052ed7fd131E:
Lfunc_begin25:
	.loc	2 83 0 is_stmt 1
	.cfi_startproc
	pushq	%rbp
	.cfi_def_cfa_offset 16
	.cfi_offset %rbp, -16
	movq	%rsp, %rbp
	.cfi_def_cfa_register %rbp
	subq	$16, %rsp
	movq	%rdi, %rax
	movq	%rax, -16(%rbp)
	movq	%rsi, -8(%rbp)
Ltmp50:
	.loc	2 83 37 prologue_end
	movl	$56, %edx
	callq	_memcpy
	movq	-16(%rbp), %rax
	.loc	2 83 44 is_stmt 0
	addq	$16, %rsp
	popq	%rbp
	retq
Ltmp51:
Lfunc_end25:
	.cfi_endproc

	.globl	__ZN62_$LT$libc..unix..bsd..msghdr$u20$as$u20$core..clone..Clone$GT$5clone17he8f43031cd265370E
	.p2align	4, 0x90
__ZN62_$LT$libc..unix..bsd..msghdr$u20$as$u20$core..clone..Clone$GT$5clone17he8f43031cd265370E:
Lfunc_begin26:
	.loc	2 83 0 is_stmt 1
	.cfi_startproc
	pushq	%rbp
	.cfi_def_cfa_offset 16
	.cfi_offset %rbp, -16
	movq	%rsp, %rbp
	.cfi_def_cfa_register %rbp
	subq	$16, %rsp
	movq	%rdi, %rax
	movq	%rax, -16(%rbp)
	movq	%rsi, -8(%rbp)
Ltmp52:
	.loc	2 83 37 prologue_end
	movl	$48, %edx
	callq	_memcpy
	movq	-16(%rbp), %rax
	.loc	2 83 44 is_stmt 0
	addq	$16, %rsp
	popq	%rbp
	retq
Ltmp53:
Lfunc_end26:
	.cfi_endproc

	.globl	__ZN63_$LT$libc..unix..bsd..cmsghdr$u20$as$u20$core..clone..Clone$GT$5clone17hd9fe2ad2c83c6628E
	.p2align	4, 0x90
__ZN63_$LT$libc..unix..bsd..cmsghdr$u20$as$u20$core..clone..Clone$GT$5clone17hd9fe2ad2c83c6628E:
Lfunc_begin27:
	.loc	2 83 0 is_stmt 1
	.cfi_startproc
	pushq	%rbp
	.cfi_def_cfa_offset 16
	.cfi_offset %rbp, -16
	movq	%rsp, %rbp
	.cfi_def_cfa_register %rbp
	pushq	%rax
	movq	%rdi, %rax
	movq	%rsi, -8(%rbp)
Ltmp54:
	.loc	2 83 37 prologue_end
	movq	(%rsi), %rcx
	movq	%rcx, (%rdi)
	movl	8(%rsi), %ecx
	movl	%ecx, 8(%rdi)
	.loc	2 83 44 is_stmt 0
	addq	$8, %rsp
	popq	%rbp
	retq
Ltmp55:
Lfunc_end27:
	.cfi_endproc

	.globl	__ZN62_$LT$libc..unix..bsd..fsid_t$u20$as$u20$core..clone..Clone$GT$5clone17h3483dd4da2966bb5E
	.p2align	4, 0x90
__ZN62_$LT$libc..unix..bsd..fsid_t$u20$as$u20$core..clone..Clone$GT$5clone17h3483dd4da2966bb5E:
Lfunc_begin28:
	.loc	2 83 0 is_stmt 1
	.cfi_startproc
	pushq	%rbp
	.cfi_def_cfa_offset 16
	.cfi_offset %rbp, -16
	movq	%rsp, %rbp
	.cfi_def_cfa_register %rbp
	subq	$16, %rsp
	movq	%rdi, -8(%rbp)
Ltmp56:
	.loc	2 83 37 prologue_end
	movq	(%rdi), %rax
	movq	%rax, -16(%rbp)
	.loc	2 83 44 is_stmt 0
	movq	-16(%rbp), %rax
	addq	$16, %rsp
	popq	%rbp
	retq
Ltmp57:
Lfunc_end28:
	.cfi_endproc

	.globl	__ZN68_$LT$libc..unix..bsd..if_nameindex$u20$as$u20$core..clone..Clone$GT$5clone17ha73b3c7d9c72ddb3E
	.p2align	4, 0x90
__ZN68_$LT$libc..unix..bsd..if_nameindex$u20$as$u20$core..clone..Clone$GT$5clone17ha73b3c7d9c72ddb3E:
Lfunc_begin29:
	.loc	2 83 0 is_stmt 1
	.cfi_startproc
	pushq	%rbp
	.cfi_def_cfa_offset 16
	.cfi_offset %rbp, -16
	movq	%rsp, %rbp
	.cfi_def_cfa_register %rbp
	pushq	%rax
	movq	%rdi, -8(%rbp)
Ltmp58:
	.loc	2 83 37 prologue_end
	movl	(%rdi), %eax
	movq	8(%rdi), %rdx
	.loc	2 83 44 is_stmt 0
	addq	$8, %rsp
	popq	%rbp
	retq
Ltmp59:
Lfunc_end29:
	.cfi_endproc

	.globl	__ZN63_$LT$libc..unix..bsd..regex_t$u20$as$u20$core..clone..Clone$GT$5clone17h8fa3c7d84f1c9e2aE
	.p2align	4, 0x90
__ZN63_$LT$libc..unix..bsd..regex_t$u20$as$u20$core..clone..Clone$GT$5clone17h8fa3c7d84f1c9e2aE:
Lfunc_begin30:
	.loc	2 83 0 is_stmt 1
	.cfi_startproc
	pushq	%rbp
	.cfi_def_cfa_offset 16
	.cfi_offset %rbp, -16
	movq	%rsp, %rbp
	.cfi_def_cfa_register %rbp
	pushq	%rax
	movq	%rdi, %rax
	movq	%rsi, -8(%rbp)
Ltmp60:
	.loc	2 83 37 prologue_end
	movq	(%rsi), %rcx
	movq	%rcx, (%rdi)
	movq	8(%rsi), %rcx
	movq	%rcx, 8(%rdi)
	movq	16(%rsi), %rcx
	movq	%rcx, 16(%rdi)
	movq	24(%rsi), %rcx
	movq	%rcx, 24(%rdi)
	.loc	2 83 44 is_stmt 0
	addq	$8, %rsp
	popq	%rbp
	retq
Ltmp61:
Lfunc_end30:
	.cfi_endproc

	.globl	__ZN66_$LT$libc..unix..bsd..regmatch_t$u20$as$u20$core..clone..Clone$GT$5clone17h5239128f918aca6eE
	.p2align	4, 0x90
__ZN66_$LT$libc..unix..bsd..regmatch_t$u20$as$u20$core..clone..Clone$GT$5clone17h5239128f918aca6eE:
Lfunc_begin31:
	.loc	2 83 0 is_stmt 1
	.cfi_startproc
	pushq	%rbp
	.cfi_def_cfa_offset 16
	.cfi_offset %rbp, -16
	movq	%rsp, %rbp
	.cfi_def_cfa_register %rbp
	pushq	%rax
	movq	%rdi, -8(%rbp)
Ltmp62:
	.loc	2 83 37 prologue_end
	movq	(%rdi), %rax
	movq	8(%rdi), %rdx
	.loc	2 83 44 is_stmt 0
	addq	$8, %rsp
	popq	%rbp
	retq
Ltmp63:
Lfunc_end31:
	.cfi_endproc

	.globl	__ZN67_$LT$libc..unix..bsd..sockaddr_un$u20$as$u20$core..clone..Clone$GT$5clone17h1ec62de2cdfc0e31E
	.p2align	4, 0x90
__ZN67_$LT$libc..unix..bsd..sockaddr_un$u20$as$u20$core..clone..Clone$GT$5clone17h1ec62de2cdfc0e31E:
Lfunc_begin32:
	.loc	2 118 0 is_stmt 1
	.cfi_startproc
	pushq	%rbp
	.cfi_def_cfa_offset 16
	.cfi_offset %rbp, -16
	movq	%rsp, %rbp
	.cfi_def_cfa_register %rbp
	subq	$16, %rsp
	movq	%rdi, %rax
	movq	%rax, -16(%rbp)
	movq	%rsi, -8(%rbp)
Ltmp64:
	.loc	2 118 37 prologue_end
	movl	$106, %edx
	callq	_memcpy
	movq	-16(%rbp), %rax
	.loc	2 118 44 is_stmt 0
	addq	$16, %rsp
	popq	%rbp
	retq
Ltmp65:
Lfunc_end32:
	.cfi_endproc

	.globl	__ZN63_$LT$libc..unix..bsd..utsname$u20$as$u20$core..clone..Clone$GT$5clone17hf0f50bcc87cb5662E
	.p2align	4, 0x90
__ZN63_$LT$libc..unix..bsd..utsname$u20$as$u20$core..clone..Clone$GT$5clone17hf0f50bcc87cb5662E:
Lfunc_begin33:
	.loc	2 118 0 is_stmt 1
	.cfi_startproc
	pushq	%rbp
	.cfi_def_cfa_offset 16
	.cfi_offset %rbp, -16
	movq	%rsp, %rbp
	.cfi_def_cfa_register %rbp
	subq	$16, %rsp
	movq	%rdi, %rax
	movq	%rax, -16(%rbp)
	movq	%rsi, -8(%rbp)
Ltmp66:
	.loc	2 118 37 prologue_end
	movl	$1280, %edx
	callq	_memcpy
	movq	-16(%rbp), %rax
	.loc	2 118 44 is_stmt 0
	addq	$16, %rsp
	popq	%rbp
	retq
Ltmp67:
Lfunc_end33:
	.cfi_endproc

	.globl	__ZN71_$LT$libc..unix..bsd..apple..timezone$u20$as$u20$core..clone..Clone$GT$5clone17h1ba5b14a0a331078E
	.p2align	4, 0x90
__ZN71_$LT$libc..unix..bsd..apple..timezone$u20$as$u20$core..clone..Clone$GT$5clone17h1ba5b14a0a331078E:
Lfunc_begin34:
	.file	3 "/Users/natalie/.cargo/registry/src/github.com-1ecc6299db9ec823/libc-0.2.137" "src/unix/bsd/apple/mod.rs"
	.loc	3 160 0 is_stmt 1
	.cfi_startproc
	pushq	%rbp
	.cfi_def_cfa_offset 16
	.cfi_offset %rbp, -16
	movq	%rsp, %rbp
	.cfi_def_cfa_register %rbp
	pushq	%rax
	movq	%rdi, -8(%rbp)
Ltmp68:
	.loc	3 162 6 prologue_end
	ud2
Ltmp69:
Lfunc_end34:
	.cfi_endproc

	.globl	__ZN74_$LT$libc..unix..bsd..apple..qos_class_t$u20$as$u20$core..clone..Clone$GT$5clone17h47e1bf8a206fbc84E
	.p2align	4, 0x90
__ZN74_$LT$libc..unix..bsd..apple..qos_class_t$u20$as$u20$core..clone..Clone$GT$5clone17h47e1bf8a206fbc84E:
Lfunc_begin35:
	.loc	3 177 0
	.cfi_startproc
	pushq	%rbp
	.cfi_def_cfa_offset 16
	.cfi_offset %rbp, -16
	movq	%rsp, %rbp
	.cfi_def_cfa_register %rbp
	pushq	%rax
	movq	%rdi, -8(%rbp)
Ltmp70:
	.loc	3 178 9 prologue_end
	movl	(%rdi), %eax
	.loc	3 179 6
	addq	$8, %rsp
	popq	%rbp
	retq
Ltmp71:
Lfunc_end35:
	.cfi_endproc

	.globl	__ZN93_$LT$libc..unix..bsd..apple..sysdir_search_path_directory_t$u20$as$u20$core..clone..Clone$GT$5clone17h4aee4ac96b8ed32cE
	.p2align	4, 0x90
__ZN93_$LT$libc..unix..bsd..apple..sysdir_search_path_directory_t$u20$as$u20$core..clone..Clone$GT$5clone17h4aee4ac96b8ed32cE:
Lfunc_begin36:
	.loc	3 212 0
	.cfi_startproc
	pushq	%rbp
	.cfi_def_cfa_offset 16
	.cfi_offset %rbp, -16
	movq	%rsp, %rbp
	.cfi_def_cfa_register %rbp
	pushq	%rax
	movq	%rdi, -8(%rbp)
Ltmp72:
	.loc	3 213 9 prologue_end
	movl	(%rdi), %eax
	.loc	3 214 6
	addq	$8, %rsp
	popq	%rbp
	retq
Ltmp73:
Lfunc_end36:
	.cfi_endproc

	.globl	__ZN95_$LT$libc..unix..bsd..apple..sysdir_search_path_domain_mask_t$u20$as$u20$core..clone..Clone$GT$5clone17h4321c9a57c2ba444E
	.p2align	4, 0x90
__ZN95_$LT$libc..unix..bsd..apple..sysdir_search_path_domain_mask_t$u20$as$u20$core..clone..Clone$GT$5clone17h4321c9a57c2ba444E:
Lfunc_begin37:
	.loc	3 228 0
	.cfi_startproc
	pushq	%rbp
	.cfi_def_cfa_offset 16
	.cfi_offset %rbp, -16
	movq	%rsp, %rbp
	.cfi_def_cfa_register %rbp
	pushq	%rax
	movq	%rdi, -8(%rbp)
Ltmp74:
	.loc	3 229 9 prologue_end
	movl	(%rdi), %eax
	.loc	3 230 6
	addq	$8, %rsp
	popq	%rbp
	retq
Ltmp75:
Lfunc_end37:
	.cfi_endproc

	.globl	__ZN4libc4unix3bsd5apple9siginfo_t7si_addr17h2dc982d74b5e94b1E
	.p2align	4, 0x90
__ZN4libc4unix3bsd5apple9siginfo_t7si_addr17h2dc982d74b5e94b1E:
Lfunc_begin38:
	.loc	3 1313 0
	.cfi_startproc
	pushq	%rbp
	.cfi_def_cfa_offset 16
	.cfi_offset %rbp, -16
	movq	%rsp, %rbp
	.cfi_def_cfa_register %rbp
	pushq	%rax
	movq	%rdi, -8(%rbp)
Ltmp76:
	.loc	3 1314 9 prologue_end
	movq	24(%rdi), %rax
	.loc	3 1315 6
	addq	$8, %rsp
	popq	%rbp
	retq
Ltmp77:
Lfunc_end38:
	.cfi_endproc

	.globl	__ZN4libc4unix3bsd5apple9siginfo_t8si_value17h3ec043a97b3a25d7E
	.p2align	4, 0x90
__ZN4libc4unix3bsd5apple9siginfo_t8si_value17h3ec043a97b3a25d7E:
Lfunc_begin39:
	.loc	3 1317 0
	.cfi_startproc
	pushq	%rbp
	.cfi_def_cfa_offset 16
	.cfi_offset %rbp, -16
	movq	%rsp, %rbp
	.cfi_def_cfa_register %rbp
	subq	$16, %rsp
	movq	%rdi, -8(%rbp)
Ltmp78:
	.loc	3 1330 9 prologue_end
	movq	32(%rdi), %rax
	movq	%rax, -16(%rbp)
	.loc	3 1331 6
	movq	-16(%rbp), %rax
	addq	$16, %rsp
	popq	%rbp
	retq
Ltmp79:
Lfunc_end39:
	.cfi_endproc

	.globl	__ZN4libc4unix3bsd5apple9siginfo_t6si_pid17h665a1fd2e07dcf3eE
	.p2align	4, 0x90
__ZN4libc4unix3bsd5apple9siginfo_t6si_pid17h665a1fd2e07dcf3eE:
Lfunc_begin40:
	.loc	3 1333 0
	.cfi_startproc
	pushq	%rbp
	.cfi_def_cfa_offset 16
	.cfi_offset %rbp, -16
	movq	%rsp, %rbp
	.cfi_def_cfa_register %rbp
	pushq	%rax
	movq	%rdi, -8(%rbp)
Ltmp80:
	.loc	3 1334 9 prologue_end
	movl	12(%rdi), %eax
	.loc	3 1335 6
	addq	$8, %rsp
	popq	%rbp
	retq
Ltmp81:
Lfunc_end40:
	.cfi_endproc

	.globl	__ZN4libc4unix3bsd5apple9siginfo_t6si_uid17h520ae92a913c8f18E
	.p2align	4, 0x90
__ZN4libc4unix3bsd5apple9siginfo_t6si_uid17h520ae92a913c8f18E:
Lfunc_begin41:
	.loc	3 1337 0
	.cfi_startproc
	pushq	%rbp
	.cfi_def_cfa_offset 16
	.cfi_offset %rbp, -16
	movq	%rsp, %rbp
	.cfi_def_cfa_register %rbp
	pushq	%rax
	movq	%rdi, -8(%rbp)
Ltmp82:
	.loc	3 1338 9 prologue_end
	movl	16(%rdi), %eax
	.loc	3 1339 6
	addq	$8, %rsp
	popq	%rbp
	retq
Ltmp83:
Lfunc_end41:
	.cfi_endproc

	.globl	__ZN4libc4unix3bsd5apple9siginfo_t9si_status17he06888ce7f3404e6E
	.p2align	4, 0x90
__ZN4libc4unix3bsd5apple9siginfo_t9si_status17he06888ce7f3404e6E:
Lfunc_begin42:
	.loc	3 1341 0
	.cfi_startproc
	pushq	%rbp
	.cfi_def_cfa_offset 16
	.cfi_offset %rbp, -16
	movq	%rsp, %rbp
	.cfi_def_cfa_register %rbp
	pushq	%rax
	movq	%rdi, -8(%rbp)
Ltmp84:
	.loc	3 1342 9 prologue_end
	movl	20(%rdi), %eax
	.loc	3 1343 6
	addq	$8, %rsp
	popq	%rbp
	retq
Ltmp85:
Lfunc_end42:
	.cfi_endproc

	.globl	__ZN4libc4unix3bsd5apple14mach_task_self17hf143d548964a0af1E
	.p2align	4, 0x90
__ZN4libc4unix3bsd5apple14mach_task_self17hf143d548964a0af1E:
Lfunc_begin43:
	.loc	3 5878 0
	.cfi_startproc
	pushq	%rbp
	.cfi_def_cfa_offset 16
	.cfi_offset %rbp, -16
	movq	%rsp, %rbp
	.cfi_def_cfa_register %rbp
Ltmp86:
	.loc	3 5879 5 prologue_end
	movq	_mach_task_self_@GOTPCREL(%rip), %rax
	movl	(%rax), %eax
	.loc	3 5880 2
	popq	%rbp
	retq
Ltmp87:
Lfunc_end43:
	.cfi_endproc

	.globl	__ZN70_$LT$libc..unix..bsd..apple..ip_mreq$u20$as$u20$core..clone..Clone$GT$5clone17h676e0f50e1131aebE
	.p2align	4, 0x90
__ZN70_$LT$libc..unix..bsd..apple..ip_mreq$u20$as$u20$core..clone..Clone$GT$5clone17h676e0f50e1131aebE:
Lfunc_begin44:
	.loc	2 83 0
	.cfi_startproc
	pushq	%rbp
	.cfi_def_cfa_offset 16
	.cfi_offset %rbp, -16
	movq	%rsp, %rbp
	.cfi_def_cfa_register %rbp
	subq	$16, %rsp
	movq	%rdi, -8(%rbp)
Ltmp88:
	.loc	2 83 37 prologue_end
	movq	(%rdi), %rax
	movq	%rax, -16(%rbp)
	.loc	2 83 44 is_stmt 0
	movq	-16(%rbp), %rax
	addq	$16, %rsp
	popq	%rbp
	retq
Ltmp89:
Lfunc_end44:
	.cfi_endproc

	.globl	__ZN71_$LT$libc..unix..bsd..apple..ip_mreqn$u20$as$u20$core..clone..Clone$GT$5clone17h88701538138820ceE
	.p2align	4, 0x90
__ZN71_$LT$libc..unix..bsd..apple..ip_mreqn$u20$as$u20$core..clone..Clone$GT$5clone17h88701538138820ceE:
Lfunc_begin45:
	.loc	2 83 0 is_stmt 1
	.cfi_startproc
	pushq	%rbp
	.cfi_def_cfa_offset 16
	.cfi_offset %rbp, -16
	movq	%rsp, %rbp
	.cfi_def_cfa_register %rbp
	pushq	%rax
	movq	%rdi, %rax
	movq	%rsi, -8(%rbp)
Ltmp90:
	.loc	2 83 37 prologue_end
	movq	(%rsi), %rcx
	movq	%rcx, (%rdi)
	movl	8(%rsi), %ecx
	movl	%ecx, 8(%rdi)
	.loc	2 83 44 is_stmt 0
	addq	$8, %rsp
	popq	%rbp
	retq
Ltmp91:
Lfunc_end45:
	.cfi_endproc

	.globl	__ZN77_$LT$libc..unix..bsd..apple..ip_mreq_source$u20$as$u20$core..clone..Clone$GT$5clone17h9b7d967aa5aa1652E
	.p2align	4, 0x90
__ZN77_$LT$libc..unix..bsd..apple..ip_mreq_source$u20$as$u20$core..clone..Clone$GT$5clone17h9b7d967aa5aa1652E:
Lfunc_begin46:
	.loc	2 83 0 is_stmt 1
	.cfi_startproc
	pushq	%rbp
	.cfi_def_cfa_offset 16
	.cfi_offset %rbp, -16
	movq	%rsp, %rbp
	.cfi_def_cfa_register %rbp
	pushq	%rax
	movq	%rdi, %rax
	movq	%rsi, -8(%rbp)
Ltmp92:
	.loc	2 83 37 prologue_end
	movq	(%rsi), %rcx
	movq	%rcx, (%rdi)
	movl	8(%rsi), %ecx
	movl	%ecx, 8(%rdi)
	.loc	2 83 44 is_stmt 0
	addq	$8, %rsp
	popq	%rbp
	retq
Ltmp93:
Lfunc_end46:
	.cfi_endproc

	.globl	__ZN68_$LT$libc..unix..bsd..apple..aiocb$u20$as$u20$core..clone..Clone$GT$5clone17hd7c70454004e2a53E
	.p2align	4, 0x90
__ZN68_$LT$libc..unix..bsd..apple..aiocb$u20$as$u20$core..clone..Clone$GT$5clone17hd7c70454004e2a53E:
Lfunc_begin47:
	.loc	2 83 0 is_stmt 1
	.cfi_startproc
	pushq	%rbp
	.cfi_def_cfa_offset 16
	.cfi_offset %rbp, -16
	movq	%rsp, %rbp
	.cfi_def_cfa_register %rbp
	subq	$16, %rsp
	movq	%rdi, %rax
	movq	%rax, -16(%rbp)
	movq	%rsi, -8(%rbp)
Ltmp94:
	.loc	2 83 37 prologue_end
	movl	$80, %edx
	callq	_memcpy
	movq	-16(%rbp), %rax
	.loc	2 83 44 is_stmt 0
	addq	$16, %rsp
	popq	%rbp
	retq
Ltmp95:
Lfunc_end47:
	.cfi_endproc

	.globl	__ZN69_$LT$libc..unix..bsd..apple..glob_t$u20$as$u20$core..clone..Clone$GT$5clone17he0caf4bb75d75e7aE
	.p2align	4, 0x90
__ZN69_$LT$libc..unix..bsd..apple..glob_t$u20$as$u20$core..clone..Clone$GT$5clone17he0caf4bb75d75e7aE:
Lfunc_begin48:
	.loc	2 83 0 is_stmt 1
	.cfi_startproc
	pushq	%rbp
	.cfi_def_cfa_offset 16
	.cfi_offset %rbp, -16
	movq	%rsp, %rbp
	.cfi_def_cfa_register %rbp
	subq	$16, %rsp
	movq	%rdi, %rax
	movq	%rax, -16(%rbp)
	movq	%rsi, -8(%rbp)
Ltmp96:
	.loc	2 83 37 prologue_end
	movl	$88, %edx
	callq	_memcpy
	movq	-16(%rbp), %rax
	.loc	2 83 44 is_stmt 0
	addq	$16, %rsp
	popq	%rbp
	retq
Ltmp97:
Lfunc_end48:
	.cfi_endproc

	.globl	__ZN71_$LT$libc..unix..bsd..apple..addrinfo$u20$as$u20$core..clone..Clone$GT$5clone17hc716351811e494cbE
	.p2align	4, 0x90
__ZN71_$LT$libc..unix..bsd..apple..addrinfo$u20$as$u20$core..clone..Clone$GT$5clone17hc716351811e494cbE:
Lfunc_begin49:
	.loc	2 83 0 is_stmt 1
	.cfi_startproc
	pushq	%rbp
	.cfi_def_cfa_offset 16
	.cfi_offset %rbp, -16
	movq	%rsp, %rbp
	.cfi_def_cfa_register %rbp
	subq	$16, %rsp
	movq	%rdi, %rax
	movq	%rax, -16(%rbp)
	movq	%rsi, -8(%rbp)
Ltmp98:
	.loc	2 83 37 prologue_end
	movl	$48, %edx
	callq	_memcpy
	movq	-16(%rbp), %rax
	.loc	2 83 44 is_stmt 0
	addq	$16, %rsp
	popq	%rbp
	retq
Ltmp99:
Lfunc_end49:
	.cfi_endproc

	.globl	__ZN81_$LT$libc..unix..bsd..apple..mach_timebase_info$u20$as$u20$core..clone..Clone$GT$5clone17h9b511900c515da2aE
	.p2align	4, 0x90
__ZN81_$LT$libc..unix..bsd..apple..mach_timebase_info$u20$as$u20$core..clone..Clone$GT$5clone17h9b511900c515da2aE:
Lfunc_begin50:
	.loc	2 83 0 is_stmt 1
	.cfi_startproc
	pushq	%rbp
	.cfi_def_cfa_offset 16
	.cfi_offset %rbp, -16
	movq	%rsp, %rbp
	.cfi_def_cfa_register %rbp
	pushq	%rax
	movq	%rdi, -8(%rbp)
Ltmp100:
	.loc	2 83 37 prologue_end
	movl	(%rdi), %eax
	movl	4(%rdi), %edx
	.loc	2 83 44 is_stmt 0
	addq	$8, %rsp
	popq	%rbp
	retq
Ltmp101:
Lfunc_end50:
	.cfi_endproc

	.globl	__ZN67_$LT$libc..unix..bsd..apple..stat$u20$as$u20$core..clone..Clone$GT$5clone17h1ea7e9e079eea10dE
	.p2align	4, 0x90
__ZN67_$LT$libc..unix..bsd..apple..stat$u20$as$u20$core..clone..Clone$GT$5clone17h1ea7e9e079eea10dE:
Lfunc_begin51:
	.loc	2 83 0 is_stmt 1
	.cfi_startproc
	pushq	%rbp
	.cfi_def_cfa_offset 16
	.cfi_offset %rbp, -16
	movq	%rsp, %rbp
	.cfi_def_cfa_register %rbp
	subq	$16, %rsp
	movq	%rdi, %rax
	movq	%rax, -16(%rbp)
	movq	%rsi, -8(%rbp)
Ltmp102:
	.loc	2 83 37 prologue_end
	movl	$144, %edx
	callq	_memcpy
	movq	-16(%rbp), %rax
	.loc	2 83 44 is_stmt 0
	addq	$16, %rsp
	popq	%rbp
	retq
Ltmp103:
Lfunc_end51:
	.cfi_endproc

	.globl	__ZN82_$LT$libc..unix..bsd..apple..pthread_mutexattr_t$u20$as$u20$core..clone..Clone$GT$5clone17hfba0ed3e80f5cad6E
	.p2align	4, 0x90
__ZN82_$LT$libc..unix..bsd..apple..pthread_mutexattr_t$u20$as$u20$core..clone..Clone$GT$5clone17hfba0ed3e80f5cad6E:
Lfunc_begin52:
	.loc	2 83 0 is_stmt 1
	.cfi_startproc
	pushq	%rbp
	.cfi_def_cfa_offset 16
	.cfi_offset %rbp, -16
	movq	%rsp, %rbp
	.cfi_def_cfa_register %rbp
	pushq	%rax
	movq	%rdi, %rax
	movq	%rsi, -8(%rbp)
Ltmp104:
	.loc	2 83 37 prologue_end
	movq	(%rsi), %rcx
	movq	%rcx, (%rdi)
	movq	8(%rsi), %rcx
	movq	%rcx, 8(%rdi)
	.loc	2 83 44 is_stmt 0
	addq	$8, %rsp
	popq	%rbp
	retq
Ltmp105:
Lfunc_end52:
	.cfi_endproc

	.globl	__ZN81_$LT$libc..unix..bsd..apple..pthread_condattr_t$u20$as$u20$core..clone..Clone$GT$5clone17hdeec4a4414617533E
	.p2align	4, 0x90
__ZN81_$LT$libc..unix..bsd..apple..pthread_condattr_t$u20$as$u20$core..clone..Clone$GT$5clone17hdeec4a4414617533E:
Lfunc_begin53:
	.loc	2 83 0 is_stmt 1
	.cfi_startproc
	pushq	%rbp
	.cfi_def_cfa_offset 16
	.cfi_offset %rbp, -16
	movq	%rsp, %rbp
	.cfi_def_cfa_register %rbp
	pushq	%rax
	movq	%rdi, %rax
	movq	%rsi, -8(%rbp)
Ltmp106:
	.loc	2 83 37 prologue_end
	movq	(%rsi), %rcx
	movq	%rcx, (%rdi)
	movq	8(%rsi), %rcx
	movq	%rcx, 8(%rdi)
	.loc	2 83 44 is_stmt 0
	addq	$8, %rsp
	popq	%rbp
	retq
Ltmp107:
Lfunc_end53:
	.cfi_endproc

	.globl	__ZN83_$LT$libc..unix..bsd..apple..pthread_rwlockattr_t$u20$as$u20$core..clone..Clone$GT$5clone17haf19a096520dfd2cE
	.p2align	4, 0x90
__ZN83_$LT$libc..unix..bsd..apple..pthread_rwlockattr_t$u20$as$u20$core..clone..Clone$GT$5clone17haf19a096520dfd2cE:
Lfunc_begin54:
	.loc	2 83 0 is_stmt 1
	.cfi_startproc
	pushq	%rbp
	.cfi_def_cfa_offset 16
	.cfi_offset %rbp, -16
	movq	%rsp, %rbp
	.cfi_def_cfa_register %rbp
	pushq	%rax
	movq	%rdi, %rax
	movq	%rsi, -8(%rbp)
Ltmp108:
	.loc	2 83 37 prologue_end
	movq	(%rsi), %rcx
	movq	%rcx, (%rdi)
	movq	8(%rsi), %rcx
	movq	%rcx, 8(%rdi)
	movq	16(%rsi), %rcx
	movq	%rcx, 16(%rdi)
	.loc	2 83 44 is_stmt 0
	addq	$8, %rsp
	popq	%rbp
	retq
Ltmp109:
Lfunc_end54:
	.cfi_endproc

	.globl	__ZN72_$LT$libc..unix..bsd..apple..siginfo_t$u20$as$u20$core..clone..Clone$GT$5clone17hc6f11413ee425368E
	.p2align	4, 0x90
__ZN72_$LT$libc..unix..bsd..apple..siginfo_t$u20$as$u20$core..clone..Clone$GT$5clone17hc6f11413ee425368E:
Lfunc_begin55:
	.loc	2 83 0 is_stmt 1
	.cfi_startproc
	pushq	%rbp
	.cfi_def_cfa_offset 16
	.cfi_offset %rbp, -16
	movq	%rsp, %rbp
	.cfi_def_cfa_register %rbp
	subq	$16, %rsp
	movq	%rdi, %rax
	movq	%rax, -16(%rbp)
	movq	%rsi, -8(%rbp)
Ltmp110:
	.loc	2 83 37 prologue_end
	movl	$104, %edx
	callq	_memcpy
	movq	-16(%rbp), %rax
	.loc	2 83 44 is_stmt 0
	addq	$16, %rsp
	popq	%rbp
	retq
Ltmp111:
Lfunc_end55:
	.cfi_endproc

	.globl	__ZN72_$LT$libc..unix..bsd..apple..sigaction$u20$as$u20$core..clone..Clone$GT$5clone17hb62c89791769f5f7E
	.p2align	4, 0x90
__ZN72_$LT$libc..unix..bsd..apple..sigaction$u20$as$u20$core..clone..Clone$GT$5clone17hb62c89791769f5f7E:
Lfunc_begin56:
	.loc	2 83 0 is_stmt 1
	.cfi_startproc
	pushq	%rbp
	.cfi_def_cfa_offset 16
	.cfi_offset %rbp, -16
	movq	%rsp, %rbp
	.cfi_def_cfa_register %rbp
	pushq	%rax
	movq	%rdi, %rax
	movq	%rsi, -8(%rbp)
Ltmp112:
	.loc	2 83 37 prologue_end
	movq	(%rsi), %rcx
	movq	%rcx, (%rdi)
	movq	8(%rsi), %rcx
	movq	%rcx, 8(%rdi)
	.loc	2 83 44 is_stmt 0
	addq	$8, %rsp
	popq	%rbp
	retq
Ltmp113:
Lfunc_end56:
	.cfi_endproc

	.globl	__ZN70_$LT$libc..unix..bsd..apple..stack_t$u20$as$u20$core..clone..Clone$GT$5clone17h636b423f37e9a096E
	.p2align	4, 0x90
__ZN70_$LT$libc..unix..bsd..apple..stack_t$u20$as$u20$core..clone..Clone$GT$5clone17h636b423f37e9a096E:
Lfunc_begin57:
	.loc	2 83 0 is_stmt 1
	.cfi_startproc
	pushq	%rbp
	.cfi_def_cfa_offset 16
	.cfi_offset %rbp, -16
	movq	%rsp, %rbp
	.cfi_def_cfa_register %rbp
	pushq	%rax
	movq	%rdi, %rax
	movq	%rsi, -8(%rbp)
Ltmp114:
	.loc	2 83 37 prologue_end
	movq	(%rsi), %rcx
	movq	%rcx, (%rdi)
	movq	8(%rsi), %rcx
	movq	%rcx, 8(%rdi)
	movq	16(%rsi), %rcx
	movq	%rcx, 16(%rdi)
	.loc	2 83 44 is_stmt 0
	addq	$8, %rsp
	popq	%rbp
	retq
Ltmp115:
Lfunc_end57:
	.cfi_endproc

	.globl	__ZN71_$LT$libc..unix..bsd..apple..fstore_t$u20$as$u20$core..clone..Clone$GT$5clone17h6c910c09596a4182E
	.p2align	4, 0x90
__ZN71_$LT$libc..unix..bsd..apple..fstore_t$u20$as$u20$core..clone..Clone$GT$5clone17h6c910c09596a4182E:
Lfunc_begin58:
	.loc	2 83 0 is_stmt 1
	.cfi_startproc
	pushq	%rbp
	.cfi_def_cfa_offset 16
	.cfi_offset %rbp, -16
	movq	%rsp, %rbp
	.cfi_def_cfa_register %rbp
	pushq	%rax
	movq	%rdi, %rax
	movq	%rsi, -8(%rbp)
Ltmp116:
	.loc	2 83 37 prologue_end
	movq	(%rsi), %rcx
	movq	%rcx, (%rdi)
	movq	8(%rsi), %rcx
	movq	%rcx, 8(%rdi)
	movq	16(%rsi), %rcx
	movq	%rcx, 16(%rdi)
	movq	24(%rsi), %rcx
	movq	%rcx, 24(%rdi)
	.loc	2 83 44 is_stmt 0
	addq	$8, %rsp
	popq	%rbp
	retq
Ltmp117:
Lfunc_end58:
	.cfi_endproc

	.globl	__ZN72_$LT$libc..unix..bsd..apple..radvisory$u20$as$u20$core..clone..Clone$GT$5clone17hdd5bbad41d2b7d3cE
	.p2align	4, 0x90
__ZN72_$LT$libc..unix..bsd..apple..radvisory$u20$as$u20$core..clone..Clone$GT$5clone17hdd5bbad41d2b7d3cE:
Lfunc_begin59:
	.loc	2 83 0 is_stmt 1
	.cfi_startproc
	pushq	%rbp
	.cfi_def_cfa_offset 16
	.cfi_offset %rbp, -16
	movq	%rsp, %rbp
	.cfi_def_cfa_register %rbp
	pushq	%rax
	movq	%rdi, -8(%rbp)
Ltmp118:
	.loc	2 83 37 prologue_end
	movq	(%rdi), %rax
	movl	8(%rdi), %edx
	.loc	2 83 44 is_stmt 0
	addq	$8, %rsp
	popq	%rbp
	retq
Ltmp119:
Lfunc_end59:
	.cfi_endproc

	.globl	__ZN70_$LT$libc..unix..bsd..apple..statvfs$u20$as$u20$core..clone..Clone$GT$5clone17hc9f96429d7ddde9aE
	.p2align	4, 0x90
__ZN70_$LT$libc..unix..bsd..apple..statvfs$u20$as$u20$core..clone..Clone$GT$5clone17hc9f96429d7ddde9aE:
Lfunc_begin60:
	.loc	2 83 0 is_stmt 1
	.cfi_startproc
	pushq	%rbp
	.cfi_def_cfa_offset 16
	.cfi_offset %rbp, -16
	movq	%rsp, %rbp
	.cfi_def_cfa_register %rbp
	subq	$16, %rsp
	movq	%rdi, %rax
	movq	%rax, -16(%rbp)
	movq	%rsi, -8(%rbp)
Ltmp120:
	.loc	2 83 37 prologue_end
	movl	$64, %edx
	callq	_memcpy
	movq	-16(%rbp), %rax
	.loc	2 83 44 is_stmt 0
	addq	$16, %rsp
	popq	%rbp
	retq
Ltmp121:
Lfunc_end60:
	.cfi_endproc

	.globl	__ZN70_$LT$libc..unix..bsd..apple..Dl_info$u20$as$u20$core..clone..Clone$GT$5clone17h992c1f9662bfbd34E
	.p2align	4, 0x90
__ZN70_$LT$libc..unix..bsd..apple..Dl_info$u20$as$u20$core..clone..Clone$GT$5clone17h992c1f9662bfbd34E:
Lfunc_begin61:
	.loc	2 83 0 is_stmt 1
	.cfi_startproc
	pushq	%rbp
	.cfi_def_cfa_offset 16
	.cfi_offset %rbp, -16
	movq	%rsp, %rbp
	.cfi_def_cfa_register %rbp
	pushq	%rax
	movq	%rdi, %rax
	movq	%rsi, -8(%rbp)
Ltmp122:
	.loc	2 83 37 prologue_end
	movq	(%rsi), %rcx
	movq	%rcx, (%rdi)
	movq	8(%rsi), %rcx
	movq	%rcx, 8(%rdi)
	movq	16(%rsi), %rcx
	movq	%rcx, 16(%rdi)
	movq	24(%rsi), %rcx
	movq	%rcx, 24(%rdi)
	.loc	2 83 44 is_stmt 0
	addq	$8, %rsp
	popq	%rbp
	retq
Ltmp123:
Lfunc_end61:
	.cfi_endproc

	.globl	__ZN74_$LT$libc..unix..bsd..apple..sockaddr_in$u20$as$u20$core..clone..Clone$GT$5clone17hfafba2c66b78fd47E
	.p2align	4, 0x90
__ZN74_$LT$libc..unix..bsd..apple..sockaddr_in$u20$as$u20$core..clone..Clone$GT$5clone17hfafba2c66b78fd47E:
Lfunc_begin62:
	.loc	2 83 0 is_stmt 1
	.cfi_startproc
	pushq	%rbp
	.cfi_def_cfa_offset 16
	.cfi_offset %rbp, -16
	movq	%rsp, %rbp
	.cfi_def_cfa_register %rbp
	pushq	%rax
	movq	%rdi, %rax
	movq	%rsi, -8(%rbp)
Ltmp124:
	.loc	2 83 37 prologue_end
	movq	(%rsi), %rcx
	movq	%rcx, (%rdi)
	movq	8(%rsi), %rcx
	movq	%rcx, 8(%rdi)
	.loc	2 83 44 is_stmt 0
	addq	$8, %rsp
	popq	%rbp
	retq
Ltmp125:
Lfunc_end62:
	.cfi_endproc

	.globl	__ZN73_$LT$libc..unix..bsd..apple..kevent64_s$u20$as$u20$core..clone..Clone$GT$5clone17h0bfa8496c1115033E
	.p2align	4, 0x90
__ZN73_$LT$libc..unix..bsd..apple..kevent64_s$u20$as$u20$core..clone..Clone$GT$5clone17h0bfa8496c1115033E:
Lfunc_begin63:
	.loc	2 83 0 is_stmt 1
	.cfi_startproc
	pushq	%rbp
	.cfi_def_cfa_offset 16
	.cfi_offset %rbp, -16
	movq	%rsp, %rbp
	.cfi_def_cfa_register %rbp
	subq	$16, %rsp
	movq	%rdi, %rax
	movq	%rax, -16(%rbp)
	movq	%rsi, -8(%rbp)
Ltmp126:
	.loc	2 83 37 prologue_end
	movl	$48, %edx
	callq	_memcpy
	movq	-16(%rbp), %rax
	.loc	2 83 44 is_stmt 0
	addq	$16, %rsp
	popq	%rbp
	retq
Ltmp127:
Lfunc_end63:
	.cfi_endproc

	.globl	__ZN68_$LT$libc..unix..bsd..apple..dqblk$u20$as$u20$core..clone..Clone$GT$5clone17h5e61614544682054E
	.p2align	4, 0x90
__ZN68_$LT$libc..unix..bsd..apple..dqblk$u20$as$u20$core..clone..Clone$GT$5clone17h5e61614544682054E:
Lfunc_begin64:
	.loc	2 83 0 is_stmt 1
	.cfi_startproc
	pushq	%rbp
	.cfi_def_cfa_offset 16
	.cfi_offset %rbp, -16
	movq	%rsp, %rbp
	.cfi_def_cfa_register %rbp
	subq	$16, %rsp
	movq	%rdi, %rax
	movq	%rax, -16(%rbp)
	movq	%rsi, -8(%rbp)
Ltmp128:
	.loc	2 83 37 prologue_end
	movl	$64, %edx
	callq	_memcpy
	movq	-16(%rbp), %rax
	.loc	2 83 44 is_stmt 0
	addq	$16, %rsp
	popq	%rbp
	retq
Ltmp129:
Lfunc_end64:
	.cfi_endproc

	.globl	__ZN72_$LT$libc..unix..bsd..apple..if_msghdr$u20$as$u20$core..clone..Clone$GT$5clone17h6da4c3576c4440beE
	.p2align	4, 0x90
__ZN72_$LT$libc..unix..bsd..apple..if_msghdr$u20$as$u20$core..clone..Clone$GT$5clone17h6da4c3576c4440beE:
Lfunc_begin65:
	.loc	2 83 0 is_stmt 1
	.cfi_startproc
	pushq	%rbp
	.cfi_def_cfa_offset 16
	.cfi_offset %rbp, -16
	movq	%rsp, %rbp
	.cfi_def_cfa_register %rbp
	subq	$16, %rsp
	movq	%rdi, %rax
	movq	%rax, -16(%rbp)
	movq	%rsi, -8(%rbp)
Ltmp130:
	.loc	2 83 37 prologue_end
	movl	$112, %edx
	callq	_memcpy
	movq	-16(%rbp), %rax
	.loc	2 83 44 is_stmt 0
	addq	$16, %rsp
	popq	%rbp
	retq
Ltmp131:
Lfunc_end65:
	.cfi_endproc

	.globl	__ZN70_$LT$libc..unix..bsd..apple..termios$u20$as$u20$core..clone..Clone$GT$5clone17hd7d0b7f28cd70be5E
	.p2align	4, 0x90
__ZN70_$LT$libc..unix..bsd..apple..termios$u20$as$u20$core..clone..Clone$GT$5clone17hd7d0b7f28cd70be5E:
Lfunc_begin66:
	.loc	2 83 0 is_stmt 1
	.cfi_startproc
	pushq	%rbp
	.cfi_def_cfa_offset 16
	.cfi_offset %rbp, -16
	movq	%rsp, %rbp
	.cfi_def_cfa_register %rbp
	subq	$16, %rsp
	movq	%rdi, %rax
	movq	%rax, -16(%rbp)
	movq	%rsi, -8(%rbp)
Ltmp132:
	.loc	2 83 37 prologue_end
	movl	$72, %edx
	callq	_memcpy
	movq	-16(%rbp), %rax
	.loc	2 83 44 is_stmt 0
	addq	$16, %rsp
	popq	%rbp
	retq
Ltmp133:
Lfunc_end66:
	.cfi_endproc

	.globl	__ZN68_$LT$libc..unix..bsd..apple..flock$u20$as$u20$core..clone..Clone$GT$5clone17hcdcea4fc63a706e4E
	.p2align	4, 0x90
__ZN68_$LT$libc..unix..bsd..apple..flock$u20$as$u20$core..clone..Clone$GT$5clone17hcdcea4fc63a706e4E:
Lfunc_begin67:
	.loc	2 83 0 is_stmt 1
	.cfi_startproc
	pushq	%rbp
	.cfi_def_cfa_offset 16
	.cfi_offset %rbp, -16
	movq	%rsp, %rbp
	.cfi_def_cfa_register %rbp
	pushq	%rax
	movq	%rdi, %rax
	movq	%rsi, -8(%rbp)
Ltmp134:
	.loc	2 83 37 prologue_end
	movq	(%rsi), %rcx
	movq	%rcx, (%rdi)
	movq	8(%rsi), %rcx
	movq	%rcx, 8(%rdi)
	movq	16(%rsi), %rcx
	movq	%rcx, 16(%rdi)
	.loc	2 83 44 is_stmt 0
	addq	$8, %rsp
	popq	%rbp
	retq
Ltmp135:
Lfunc_end67:
	.cfi_endproc

	.globl	__ZN70_$LT$libc..unix..bsd..apple..sf_hdtr$u20$as$u20$core..clone..Clone$GT$5clone17h9499ca55caf304c1E
	.p2align	4, 0x90
__ZN70_$LT$libc..unix..bsd..apple..sf_hdtr$u20$as$u20$core..clone..Clone$GT$5clone17h9499ca55caf304c1E:
Lfunc_begin68:
	.loc	2 83 0 is_stmt 1
	.cfi_startproc
	pushq	%rbp
	.cfi_def_cfa_offset 16
	.cfi_offset %rbp, -16
	movq	%rsp, %rbp
	.cfi_def_cfa_register %rbp
	pushq	%rax
	movq	%rdi, %rax
	movq	%rsi, -8(%rbp)
Ltmp136:
	.loc	2 83 37 prologue_end
	movq	(%rsi), %rcx
	movq	%rcx, (%rdi)
	movq	8(%rsi), %rcx
	movq	%rcx, 8(%rdi)
	movq	16(%rsi), %rcx
	movq	%rcx, 16(%rdi)
	movq	24(%rsi), %rcx
	movq	%rcx, 24(%rdi)
	.loc	2 83 44 is_stmt 0
	addq	$8, %rsp
	popq	%rbp
	retq
Ltmp137:
Lfunc_end68:
	.cfi_endproc

	.globl	__ZN68_$LT$libc..unix..bsd..apple..lconv$u20$as$u20$core..clone..Clone$GT$5clone17h0c97df03315fd16dE
	.p2align	4, 0x90
__ZN68_$LT$libc..unix..bsd..apple..lconv$u20$as$u20$core..clone..Clone$GT$5clone17h0c97df03315fd16dE:
Lfunc_begin69:
	.loc	2 83 0 is_stmt 1
	.cfi_startproc
	pushq	%rbp
	.cfi_def_cfa_offset 16
	.cfi_offset %rbp, -16
	movq	%rsp, %rbp
	.cfi_def_cfa_register %rbp
	subq	$16, %rsp
	movq	%rdi, %rax
	movq	%rax, -16(%rbp)
	movq	%rsi, -8(%rbp)
Ltmp138:
	.loc	2 83 37 prologue_end
	movl	$96, %edx
	callq	_memcpy
	movq	-16(%rbp), %rax
	.loc	2 83 44 is_stmt 0
	addq	$16, %rsp
	popq	%rbp
	retq
Ltmp139:
Lfunc_end69:
	.cfi_endproc

	.globl	__ZN76_$LT$libc..unix..bsd..apple..proc_taskinfo$u20$as$u20$core..clone..Clone$GT$5clone17hfafd1aa666611d61E
	.p2align	4, 0x90
__ZN76_$LT$libc..unix..bsd..apple..proc_taskinfo$u20$as$u20$core..clone..Clone$GT$5clone17hfafd1aa666611d61E:
Lfunc_begin70:
	.loc	2 83 0 is_stmt 1
	.cfi_startproc
	pushq	%rbp
	.cfi_def_cfa_offset 16
	.cfi_offset %rbp, -16
	movq	%rsp, %rbp
	.cfi_def_cfa_register %rbp
	subq	$16, %rsp
	movq	%rdi, %rax
	movq	%rax, -16(%rbp)
	movq	%rsi, -8(%rbp)
Ltmp140:
	.loc	2 83 37 prologue_end
	movl	$96, %edx
	callq	_memcpy
	movq	-16(%rbp), %rax
	.loc	2 83 44 is_stmt 0
	addq	$16, %rsp
	popq	%rbp
	retq
Ltmp141:
Lfunc_end70:
	.cfi_endproc

	.globl	__ZN75_$LT$libc..unix..bsd..apple..proc_bsdinfo$u20$as$u20$core..clone..Clone$GT$5clone17h777d8cd017eda1f1E
	.p2align	4, 0x90
__ZN75_$LT$libc..unix..bsd..apple..proc_bsdinfo$u20$as$u20$core..clone..Clone$GT$5clone17h777d8cd017eda1f1E:
Lfunc_begin71:
	.loc	2 83 0 is_stmt 1
	.cfi_startproc
	pushq	%rbp
	.cfi_def_cfa_offset 16
	.cfi_offset %rbp, -16
	movq	%rsp, %rbp
	.cfi_def_cfa_register %rbp
	subq	$16, %rsp
	movq	%rdi, %rax
	movq	%rax, -16(%rbp)
	movq	%rsi, -8(%rbp)
Ltmp142:
	.loc	2 83 37 prologue_end
	movl	$136, %edx
	callq	_memcpy
	movq	-16(%rbp), %rax
	.loc	2 83 44 is_stmt 0
	addq	$16, %rsp
	popq	%rbp
	retq
Ltmp143:
Lfunc_end71:
	.cfi_endproc

	.globl	__ZN79_$LT$libc..unix..bsd..apple..proc_taskallinfo$u20$as$u20$core..clone..Clone$GT$5clone17h9840488f848c6a6bE
	.p2align	4, 0x90
__ZN79_$LT$libc..unix..bsd..apple..proc_taskallinfo$u20$as$u20$core..clone..Clone$GT$5clone17h9840488f848c6a6bE:
Lfunc_begin72:
	.loc	2 83 0 is_stmt 1
	.cfi_startproc
	pushq	%rbp
	.cfi_def_cfa_offset 16
	.cfi_offset %rbp, -16
	movq	%rsp, %rbp
	.cfi_def_cfa_register %rbp
	subq	$16, %rsp
	movq	%rdi, %rax
	movq	%rax, -16(%rbp)
	movq	%rsi, -8(%rbp)
Ltmp144:
	.loc	2 83 37 prologue_end
	movl	$232, %edx
	callq	_memcpy
	movq	-16(%rbp), %rax
	.loc	2 83 44 is_stmt 0
	addq	$16, %rsp
	popq	%rbp
	retq
Ltmp145:
Lfunc_end72:
	.cfi_endproc

	.globl	__ZN72_$LT$libc..unix..bsd..apple..xsw_usage$u20$as$u20$core..clone..Clone$GT$5clone17h4bddfb642d772378E
	.p2align	4, 0x90
__ZN72_$LT$libc..unix..bsd..apple..xsw_usage$u20$as$u20$core..clone..Clone$GT$5clone17h4bddfb642d772378E:
Lfunc_begin73:
	.loc	2 83 0 is_stmt 1
	.cfi_startproc
	pushq	%rbp
	.cfi_def_cfa_offset 16
	.cfi_offset %rbp, -16
	movq	%rsp, %rbp
	.cfi_def_cfa_register %rbp
	pushq	%rax
	movq	%rdi, %rax
	movq	%rsi, -8(%rbp)
Ltmp146:
	.loc	2 83 37 prologue_end
	movq	(%rsi), %rcx
	movq	%rcx, (%rdi)
	movq	8(%rsi), %rcx
	movq	%rcx, 8(%rdi)
	movq	16(%rsi), %rcx
	movq	%rcx, 16(%rdi)
	movq	24(%rsi), %rcx
	movq	%rcx, 24(%rdi)
	.loc	2 83 44 is_stmt 0
	addq	$8, %rsp
	popq	%rbp
	retq
Ltmp147:
Lfunc_end73:
	.cfi_endproc

	.globl	__ZN69_$LT$libc..unix..bsd..apple..xucred$u20$as$u20$core..clone..Clone$GT$5clone17h4925a9e23444801dE
	.p2align	4, 0x90
__ZN69_$LT$libc..unix..bsd..apple..xucred$u20$as$u20$core..clone..Clone$GT$5clone17h4925a9e23444801dE:
Lfunc_begin74:
	.loc	2 83 0 is_stmt 1
	.cfi_startproc
	pushq	%rbp
	.cfi_def_cfa_offset 16
	.cfi_offset %rbp, -16
	movq	%rsp, %rbp
	.cfi_def_cfa_register %rbp
	subq	$16, %rsp
	movq	%rdi, %rax
	movq	%rax, -16(%rbp)
	movq	%rsi, -8(%rbp)
Ltmp148:
	.loc	2 83 37 prologue_end
	movl	$76, %edx
	callq	_memcpy
	movq	-16(%rbp), %rax
	.loc	2 83 44 is_stmt 0
	addq	$16, %rsp
	popq	%rbp
	retq
Ltmp149:
Lfunc_end74:
	.cfi_endproc

	.globl	__ZN74_$LT$libc..unix..bsd..apple..mach_header$u20$as$u20$core..clone..Clone$GT$5clone17hdd6017ebf36ed17cE
	.p2align	4, 0x90
__ZN74_$LT$libc..unix..bsd..apple..mach_header$u20$as$u20$core..clone..Clone$GT$5clone17hdd6017ebf36ed17cE:
Lfunc_begin75:
	.loc	2 83 0 is_stmt 1
	.cfi_startproc
	pushq	%rbp
	.cfi_def_cfa_offset 16
	.cfi_offset %rbp, -16
	movq	%rsp, %rbp
	.cfi_def_cfa_register %rbp
	pushq	%rax
	movq	%rdi, %rax
	movq	%rsi, -8(%rbp)
Ltmp150:
	.loc	2 83 37 prologue_end
	movq	(%rsi), %rcx
	movq	%rcx, (%rdi)
	movq	8(%rsi), %rcx
	movq	%rcx, 8(%rdi)
	movq	16(%rsi), %rcx
	movq	%rcx, 16(%rdi)
	movl	24(%rsi), %ecx
	movl	%ecx, 24(%rdi)
	.loc	2 83 44 is_stmt 0
	addq	$8, %rsp
	popq	%rbp
	retq
Ltmp151:
Lfunc_end75:
	.cfi_endproc

	.globl	__ZN77_$LT$libc..unix..bsd..apple..mach_header_64$u20$as$u20$core..clone..Clone$GT$5clone17ha4ad9565586f1414E
	.p2align	4, 0x90
__ZN77_$LT$libc..unix..bsd..apple..mach_header_64$u20$as$u20$core..clone..Clone$GT$5clone17ha4ad9565586f1414E:
Lfunc_begin76:
	.loc	2 83 0 is_stmt 1
	.cfi_startproc
	pushq	%rbp
	.cfi_def_cfa_offset 16
	.cfi_offset %rbp, -16
	movq	%rsp, %rbp
	.cfi_def_cfa_register %rbp
	pushq	%rax
	movq	%rdi, %rax
	movq	%rsi, -8(%rbp)
Ltmp152:
	.loc	2 83 37 prologue_end
	movq	(%rsi), %rcx
	movq	%rcx, (%rdi)
	movq	8(%rsi), %rcx
	movq	%rcx, 8(%rdi)
	movq	16(%rsi), %rcx
	movq	%rcx, 16(%rdi)
	movq	24(%rsi), %rcx
	movq	%rcx, 24(%rdi)
	.loc	2 83 44 is_stmt 0
	addq	$8, %rsp
	popq	%rbp
	retq
Ltmp153:
Lfunc_end76:
	.cfi_endproc

	.globl	__ZN78_$LT$libc..unix..bsd..apple..segment_command$u20$as$u20$core..clone..Clone$GT$5clone17hd63d9fb654a8e4e6E
	.p2align	4, 0x90
__ZN78_$LT$libc..unix..bsd..apple..segment_command$u20$as$u20$core..clone..Clone$GT$5clone17hd63d9fb654a8e4e6E:
Lfunc_begin77:
	.loc	2 83 0 is_stmt 1
	.cfi_startproc
	pushq	%rbp
	.cfi_def_cfa_offset 16
	.cfi_offset %rbp, -16
	movq	%rsp, %rbp
	.cfi_def_cfa_register %rbp
	subq	$16, %rsp
	movq	%rdi, %rax
	movq	%rax, -16(%rbp)
	movq	%rsi, -8(%rbp)
Ltmp154:
	.loc	2 83 37 prologue_end
	movl	$56, %edx
	callq	_memcpy
	movq	-16(%rbp), %rax
	.loc	2 83 44 is_stmt 0
	addq	$16, %rsp
	popq	%rbp
	retq
Ltmp155:
Lfunc_end77:
	.cfi_endproc

	.globl	__ZN81_$LT$libc..unix..bsd..apple..segment_command_64$u20$as$u20$core..clone..Clone$GT$5clone17hffe9954ebc67b524E
	.p2align	4, 0x90
__ZN81_$LT$libc..unix..bsd..apple..segment_command_64$u20$as$u20$core..clone..Clone$GT$5clone17hffe9954ebc67b524E:
Lfunc_begin78:
	.loc	2 83 0 is_stmt 1
	.cfi_startproc
	pushq	%rbp
	.cfi_def_cfa_offset 16
	.cfi_offset %rbp, -16
	movq	%rsp, %rbp
	.cfi_def_cfa_register %rbp
	subq	$16, %rsp
	movq	%rdi, %rax
	movq	%rax, -16(%rbp)
	movq	%rsi, -8(%rbp)
Ltmp156:
	.loc	2 83 37 prologue_end
	movl	$72, %edx
	callq	_memcpy
	movq	-16(%rbp), %rax
	.loc	2 83 44 is_stmt 0
	addq	$16, %rsp
	popq	%rbp
	retq
Ltmp157:
Lfunc_end78:
	.cfi_endproc

	.globl	__ZN75_$LT$libc..unix..bsd..apple..load_command$u20$as$u20$core..clone..Clone$GT$5clone17ha5680095dde08baeE
	.p2align	4, 0x90
__ZN75_$LT$libc..unix..bsd..apple..load_command$u20$as$u20$core..clone..Clone$GT$5clone17ha5680095dde08baeE:
Lfunc_begin79:
	.loc	2 83 0 is_stmt 1
	.cfi_startproc
	pushq	%rbp
	.cfi_def_cfa_offset 16
	.cfi_offset %rbp, -16
	movq	%rsp, %rbp
	.cfi_def_cfa_register %rbp
	pushq	%rax
	movq	%rdi, -8(%rbp)
Ltmp158:
	.loc	2 83 37 prologue_end
	movl	(%rdi), %eax
	movl	4(%rdi), %edx
	.loc	2 83 44 is_stmt 0
	addq	$8, %rsp
	popq	%rbp
	retq
Ltmp159:
Lfunc_end79:
	.cfi_endproc

	.globl	__ZN74_$LT$libc..unix..bsd..apple..sockaddr_dl$u20$as$u20$core..clone..Clone$GT$5clone17h51f3fbfe6059cb25E
	.p2align	4, 0x90
__ZN74_$LT$libc..unix..bsd..apple..sockaddr_dl$u20$as$u20$core..clone..Clone$GT$5clone17h51f3fbfe6059cb25E:
Lfunc_begin80:
	.loc	2 83 0 is_stmt 1
	.cfi_startproc
	pushq	%rbp
	.cfi_def_cfa_offset 16
	.cfi_offset %rbp, -16
	movq	%rsp, %rbp
	.cfi_def_cfa_register %rbp
	pushq	%rax
	movq	%rdi, %rax
	movq	%rsi, -8(%rbp)
Ltmp160:
	.loc	2 83 37 prologue_end
	movq	(%rsi), %rcx
	movq	%rcx, (%rdi)
	movq	8(%rsi), %rcx
	movq	%rcx, 8(%rdi)
	movl	16(%rsi), %ecx
	movl	%ecx, 16(%rdi)
	.loc	2 83 44 is_stmt 0
	addq	$8, %rsp
	popq	%rbp
	retq
Ltmp161:
Lfunc_end80:
	.cfi_endproc

	.globl	__ZN77_$LT$libc..unix..bsd..apple..sockaddr_inarp$u20$as$u20$core..clone..Clone$GT$5clone17h27f7c7ba5c7b3570E
	.p2align	4, 0x90
__ZN77_$LT$libc..unix..bsd..apple..sockaddr_inarp$u20$as$u20$core..clone..Clone$GT$5clone17h27f7c7ba5c7b3570E:
Lfunc_begin81:
	.loc	2 83 0 is_stmt 1
	.cfi_startproc
	pushq	%rbp
	.cfi_def_cfa_offset 16
	.cfi_offset %rbp, -16
	movq	%rsp, %rbp
	.cfi_def_cfa_register %rbp
	pushq	%rax
	movq	%rdi, %rax
	movq	%rsi, -8(%rbp)
Ltmp162:
	.loc	2 83 37 prologue_end
	movq	(%rsi), %rcx
	movq	%rcx, (%rdi)
	movq	8(%rsi), %rcx
	movq	%rcx, 8(%rdi)
	.loc	2 83 44 is_stmt 0
	addq	$8, %rsp
	popq	%rbp
	retq
Ltmp163:
Lfunc_end81:
	.cfi_endproc

	.globl	__ZN75_$LT$libc..unix..bsd..apple..sockaddr_ctl$u20$as$u20$core..clone..Clone$GT$5clone17hefba5ea976074c70E
	.p2align	4, 0x90
__ZN75_$LT$libc..unix..bsd..apple..sockaddr_ctl$u20$as$u20$core..clone..Clone$GT$5clone17hefba5ea976074c70E:
Lfunc_begin82:
	.loc	2 83 0 is_stmt 1
	.cfi_startproc
	pushq	%rbp
	.cfi_def_cfa_offset 16
	.cfi_offset %rbp, -16
	movq	%rsp, %rbp
	.cfi_def_cfa_register %rbp
	pushq	%rax
	movq	%rdi, %rax
	movq	%rsi, -8(%rbp)
Ltmp164:
	.loc	2 83 37 prologue_end
	movq	(%rsi), %rcx
	movq	%rcx, (%rdi)
	movq	8(%rsi), %rcx
	movq	%rcx, 8(%rdi)
	movq	16(%rsi), %rcx
	movq	%rcx, 16(%rdi)
	movq	24(%rsi), %rcx
	movq	%rcx, 24(%rdi)
	.loc	2 83 44 is_stmt 0
	addq	$8, %rsp
	popq	%rbp
	retq
Ltmp165:
Lfunc_end82:
	.cfi_endproc

	.globl	__ZN73_$LT$libc..unix..bsd..apple..in_pktinfo$u20$as$u20$core..clone..Clone$GT$5clone17h9fa7e6db9dc06ca4E
	.p2align	4, 0x90
__ZN73_$LT$libc..unix..bsd..apple..in_pktinfo$u20$as$u20$core..clone..Clone$GT$5clone17h9fa7e6db9dc06ca4E:
Lfunc_begin83:
	.loc	2 83 0 is_stmt 1
	.cfi_startproc
	pushq	%rbp
	.cfi_def_cfa_offset 16
	.cfi_offset %rbp, -16
	movq	%rsp, %rbp
	.cfi_def_cfa_register %rbp
	pushq	%rax
	movq	%rdi, %rax
	movq	%rsi, -8(%rbp)
Ltmp166:
	.loc	2 83 37 prologue_end
	movq	(%rsi), %rcx
	movq	%rcx, (%rdi)
	movl	8(%rsi), %ecx
	movl	%ecx, 8(%rdi)
	.loc	2 83 44 is_stmt 0
	addq	$8, %rsp
	popq	%rbp
	retq
Ltmp167:
Lfunc_end83:
	.cfi_endproc

	.globl	__ZN74_$LT$libc..unix..bsd..apple..in6_pktinfo$u20$as$u20$core..clone..Clone$GT$5clone17h6aa18e3dba5bab32E
	.p2align	4, 0x90
__ZN74_$LT$libc..unix..bsd..apple..in6_pktinfo$u20$as$u20$core..clone..Clone$GT$5clone17h6aa18e3dba5bab32E:
Lfunc_begin84:
	.loc	2 83 0 is_stmt 1
	.cfi_startproc
	pushq	%rbp
	.cfi_def_cfa_offset 16
	.cfi_offset %rbp, -16
	movq	%rsp, %rbp
	.cfi_def_cfa_register %rbp
	pushq	%rax
	movq	%rdi, %rax
	movq	%rsi, -8(%rbp)
Ltmp168:
	.loc	2 83 37 prologue_end
	movq	(%rsi), %rcx
	movq	%rcx, (%rdi)
	movq	8(%rsi), %rcx
	movq	%rcx, 8(%rdi)
	movl	16(%rsi), %ecx
	movl	%ecx, 16(%rdi)
	.loc	2 83 44 is_stmt 0
	addq	$8, %rsp
	popq	%rbp
	retq
Ltmp169:
Lfunc_end84:
	.cfi_endproc

	.globl	__ZN71_$LT$libc..unix..bsd..apple..ipc_perm$u20$as$u20$core..clone..Clone$GT$5clone17h24107d4baef9c86bE
	.p2align	4, 0x90
__ZN71_$LT$libc..unix..bsd..apple..ipc_perm$u20$as$u20$core..clone..Clone$GT$5clone17h24107d4baef9c86bE:
Lfunc_begin85:
	.loc	2 83 0 is_stmt 1
	.cfi_startproc
	pushq	%rbp
	.cfi_def_cfa_offset 16
	.cfi_offset %rbp, -16
	movq	%rsp, %rbp
	.cfi_def_cfa_register %rbp
	pushq	%rax
	movq	%rdi, %rax
	movq	%rsi, -8(%rbp)
Ltmp170:
	.loc	2 83 37 prologue_end
	movq	(%rsi), %rcx
	movq	%rcx, (%rdi)
	movq	8(%rsi), %rcx
	movq	%rcx, 8(%rdi)
	movq	16(%rsi), %rcx
	movq	%rcx, 16(%rdi)
	.loc	2 83 44 is_stmt 0
	addq	$8, %rsp
	popq	%rbp
	retq
Ltmp171:
Lfunc_end85:
	.cfi_endproc

	.globl	__ZN69_$LT$libc..unix..bsd..apple..sembuf$u20$as$u20$core..clone..Clone$GT$5clone17hf17b9cbaa7947387E
	.p2align	4, 0x90
__ZN69_$LT$libc..unix..bsd..apple..sembuf$u20$as$u20$core..clone..Clone$GT$5clone17hf17b9cbaa7947387E:
Lfunc_begin86:
	.loc	2 83 0 is_stmt 1
	.cfi_startproc
	pushq	%rbp
	.cfi_def_cfa_offset 16
	.cfi_offset %rbp, -16
	movq	%rsp, %rbp
	.cfi_def_cfa_register %rbp
	subq	$16, %rsp
	movq	%rdi, -8(%rbp)
Ltmp172:
	.loc	2 83 37 prologue_end
	movw	4(%rdi), %ax
	movw	%ax, -12(%rbp)
	movl	(%rdi), %eax
	movl	%eax, -16(%rbp)
	.loc	2 83 44 is_stmt 0
	movl	-16(%rbp), %eax
	movzwl	-12(%rbp), %ecx
	shlq	$32, %rcx
	orq	%rcx, %rax
	addq	$16, %rsp
	popq	%rbp
	retq
Ltmp173:
Lfunc_end86:
	.cfi_endproc

	.globl	__ZN69_$LT$libc..unix..bsd..apple..arphdr$u20$as$u20$core..clone..Clone$GT$5clone17h6eb9cdcd96db2e90E
	.p2align	4, 0x90
__ZN69_$LT$libc..unix..bsd..apple..arphdr$u20$as$u20$core..clone..Clone$GT$5clone17h6eb9cdcd96db2e90E:
Lfunc_begin87:
	.loc	2 83 0 is_stmt 1
	.cfi_startproc
	pushq	%rbp
	.cfi_def_cfa_offset 16
	.cfi_offset %rbp, -16
	movq	%rsp, %rbp
	.cfi_def_cfa_register %rbp
	subq	$16, %rsp
	movq	%rdi, -8(%rbp)
Ltmp174:
	.loc	2 83 37 prologue_end
	movq	(%rdi), %rax
	movq	%rax, -16(%rbp)
	.loc	2 83 44 is_stmt 0
	movq	-16(%rbp), %rax
	addq	$16, %rsp
	popq	%rbp
	retq
Ltmp175:
Lfunc_end87:
	.cfi_endproc

	.globl	__ZN70_$LT$libc..unix..bsd..apple..in_addr$u20$as$u20$core..clone..Clone$GT$5clone17hf2e2c17af7420e36E
	.p2align	4, 0x90
__ZN70_$LT$libc..unix..bsd..apple..in_addr$u20$as$u20$core..clone..Clone$GT$5clone17hf2e2c17af7420e36E:
Lfunc_begin88:
	.loc	2 83 0 is_stmt 1
	.cfi_startproc
	pushq	%rbp
	.cfi_def_cfa_offset 16
	.cfi_offset %rbp, -16
	movq	%rsp, %rbp
	.cfi_def_cfa_register %rbp
	subq	$16, %rsp
	movq	%rdi, -8(%rbp)
Ltmp176:
	.loc	2 83 37 prologue_end
	movl	(%rdi), %eax
	movl	%eax, -16(%rbp)
	.loc	2 83 44 is_stmt 0
	movl	-16(%rbp), %eax
	addq	$16, %rsp
	popq	%rbp
	retq
Ltmp177:
Lfunc_end88:
	.cfi_endproc

	.globl	__ZN76_$LT$libc..unix..bsd..apple..sockaddr_ndrv$u20$as$u20$core..clone..Clone$GT$5clone17h8f47ffb42296e5a1E
	.p2align	4, 0x90
__ZN76_$LT$libc..unix..bsd..apple..sockaddr_ndrv$u20$as$u20$core..clone..Clone$GT$5clone17h8f47ffb42296e5a1E:
Lfunc_begin89:
	.loc	2 83 0 is_stmt 1
	.cfi_startproc
	pushq	%rbp
	.cfi_def_cfa_offset 16
	.cfi_offset %rbp, -16
	movq	%rsp, %rbp
	.cfi_def_cfa_register %rbp
	pushq	%rax
	movq	%rdi, %rax
	movq	%rsi, -8(%rbp)
Ltmp178:
	.loc	2 83 37 prologue_end
	movq	(%rsi), %rcx
	movq	%rcx, (%rdi)
	movq	8(%rsi), %rcx
	movq	%rcx, 8(%rdi)
	movw	16(%rsi), %cx
	movw	%cx, 16(%rdi)
	.loc	2 83 44 is_stmt 0
	addq	$8, %rsp
	popq	%rbp
	retq
Ltmp179:
Lfunc_end89:
	.cfi_endproc

	.globl	__ZN77_$LT$libc..unix..bsd..apple..sa_endpoints_t$u20$as$u20$core..clone..Clone$GT$5clone17h84ad7b1c65689281E
	.p2align	4, 0x90
__ZN77_$LT$libc..unix..bsd..apple..sa_endpoints_t$u20$as$u20$core..clone..Clone$GT$5clone17h84ad7b1c65689281E:
Lfunc_begin90:
	.loc	2 83 0 is_stmt 1
	.cfi_startproc
	pushq	%rbp
	.cfi_def_cfa_offset 16
	.cfi_offset %rbp, -16
	movq	%rsp, %rbp
	.cfi_def_cfa_register %rbp
	subq	$16, %rsp
	movq	%rdi, %rax
	movq	%rax, -16(%rbp)
	movq	%rsi, -8(%rbp)
Ltmp180:
	.loc	2 83 37 prologue_end
	movl	$40, %edx
	callq	_memcpy
	movq	-16(%rbp), %rax
	.loc	2 83 44 is_stmt 0
	addq	$16, %rsp
	popq	%rbp
	retq
Ltmp181:
Lfunc_end90:
	.cfi_endproc

	.globl	__ZN68_$LT$libc..unix..bsd..apple..timex$u20$as$u20$core..clone..Clone$GT$5clone17h82dbccf39b026465E
	.p2align	4, 0x90
__ZN68_$LT$libc..unix..bsd..apple..timex$u20$as$u20$core..clone..Clone$GT$5clone17h82dbccf39b026465E:
Lfunc_begin91:
	.loc	2 83 0 is_stmt 1
	.cfi_startproc
	pushq	%rbp
	.cfi_def_cfa_offset 16
	.cfi_offset %rbp, -16
	movq	%rsp, %rbp
	.cfi_def_cfa_register %rbp
	subq	$16, %rsp
	movq	%rdi, %rax
	movq	%rax, -16(%rbp)
	movq	%rsi, -8(%rbp)
Ltmp182:
	.loc	2 83 37 prologue_end
	movl	$136, %edx
	callq	_memcpy
	movq	-16(%rbp), %rax
	.loc	2 83 44 is_stmt 0
	addq	$16, %rsp
	popq	%rbp
	retq
Ltmp183:
Lfunc_end91:
	.cfi_endproc

	.globl	__ZN73_$LT$libc..unix..bsd..apple..ntptimeval$u20$as$u20$core..clone..Clone$GT$5clone17hc7d9da9f107cf64bE
	.p2align	4, 0x90
__ZN73_$LT$libc..unix..bsd..apple..ntptimeval$u20$as$u20$core..clone..Clone$GT$5clone17hc7d9da9f107cf64bE:
Lfunc_begin92:
	.loc	2 83 0 is_stmt 1
	.cfi_startproc
	pushq	%rbp
	.cfi_def_cfa_offset 16
	.cfi_offset %rbp, -16
	movq	%rsp, %rbp
	.cfi_def_cfa_register %rbp
	subq	$16, %rsp
	movq	%rdi, %rax
	movq	%rax, -16(%rbp)
	movq	%rsi, -8(%rbp)
Ltmp184:
	.loc	2 83 37 prologue_end
	movl	$48, %edx
	callq	_memcpy
	movq	-16(%rbp), %rax
	.loc	2 83 44 is_stmt 0
	addq	$16, %rsp
	popq	%rbp
	retq
Ltmp185:
Lfunc_end92:
	.cfi_endproc

	.globl	__ZN85_$LT$libc..unix..bsd..apple..thread_standard_policy$u20$as$u20$core..clone..Clone$GT$5clone17h0c7b644bab2a98f7E
	.p2align	4, 0x90
__ZN85_$LT$libc..unix..bsd..apple..thread_standard_policy$u20$as$u20$core..clone..Clone$GT$5clone17h0c7b644bab2a98f7E:
Lfunc_begin93:
	.loc	2 83 0 is_stmt 1
	.cfi_startproc
	pushq	%rbp
	.cfi_def_cfa_offset 16
	.cfi_offset %rbp, -16
	movq	%rsp, %rbp
	.cfi_def_cfa_register %rbp
	subq	$16, %rsp
	movq	%rdi, -8(%rbp)
Ltmp186:
	.loc	2 83 37 prologue_end
	movl	(%rdi), %eax
	movl	%eax, -16(%rbp)
	.loc	2 83 44 is_stmt 0
	movl	-16(%rbp), %eax
	addq	$16, %rsp
	popq	%rbp
	retq
Ltmp187:
Lfunc_end93:
	.cfi_endproc

	.globl	__ZN85_$LT$libc..unix..bsd..apple..thread_extended_policy$u20$as$u20$core..clone..Clone$GT$5clone17h6102bac6ada26e0eE
	.p2align	4, 0x90
__ZN85_$LT$libc..unix..bsd..apple..thread_extended_policy$u20$as$u20$core..clone..Clone$GT$5clone17h6102bac6ada26e0eE:
Lfunc_begin94:
	.loc	2 83 0 is_stmt 1
	.cfi_startproc
	pushq	%rbp
	.cfi_def_cfa_offset 16
	.cfi_offset %rbp, -16
	movq	%rsp, %rbp
	.cfi_def_cfa_register %rbp
	subq	$16, %rsp
	movq	%rdi, -8(%rbp)
Ltmp188:
	.loc	2 83 37 prologue_end
	movl	(%rdi), %eax
	movl	%eax, -16(%rbp)
	.loc	2 83 44 is_stmt 0
	movl	-16(%rbp), %eax
	addq	$16, %rsp
	popq	%rbp
	retq
Ltmp189:
Lfunc_end94:
	.cfi_endproc

	.globl	__ZN92_$LT$libc..unix..bsd..apple..thread_time_constraint_policy$u20$as$u20$core..clone..Clone$GT$5clone17hbbd5e79d473efd81E
	.p2align	4, 0x90
__ZN92_$LT$libc..unix..bsd..apple..thread_time_constraint_policy$u20$as$u20$core..clone..Clone$GT$5clone17hbbd5e79d473efd81E:
Lfunc_begin95:
	.loc	2 83 0 is_stmt 1
	.cfi_startproc
	pushq	%rbp
	.cfi_def_cfa_offset 16
	.cfi_offset %rbp, -16
	movq	%rsp, %rbp
	.cfi_def_cfa_register %rbp
	pushq	%rax
	movq	%rdi, %rax
	movq	%rsi, -8(%rbp)
Ltmp190:
	.loc	2 83 37 prologue_end
	movq	(%rsi), %rcx
	movq	%rcx, (%rdi)
	movq	8(%rsi), %rcx
	movq	%rcx, 8(%rdi)
	.loc	2 83 44 is_stmt 0
	addq	$8, %rsp
	popq	%rbp
	retq
Ltmp191:
Lfunc_end95:
	.cfi_endproc

	.globl	__ZN87_$LT$libc..unix..bsd..apple..thread_precedence_policy$u20$as$u20$core..clone..Clone$GT$5clone17h56693b15cd646dd2E
	.p2align	4, 0x90
__ZN87_$LT$libc..unix..bsd..apple..thread_precedence_policy$u20$as$u20$core..clone..Clone$GT$5clone17h56693b15cd646dd2E:
Lfunc_begin96:
	.loc	2 83 0 is_stmt 1
	.cfi_startproc
	pushq	%rbp
	.cfi_def_cfa_offset 16
	.cfi_offset %rbp, -16
	movq	%rsp, %rbp
	.cfi_def_cfa_register %rbp
	subq	$16, %rsp
	movq	%rdi, -8(%rbp)
Ltmp192:
	.loc	2 83 37 prologue_end
	movl	(%rdi), %eax
	movl	%eax, -16(%rbp)
	.loc	2 83 44 is_stmt 0
	movl	-16(%rbp), %eax
	addq	$16, %rsp
	popq	%rbp
	retq
Ltmp193:
Lfunc_end96:
	.cfi_endproc

	.globl	__ZN85_$LT$libc..unix..bsd..apple..thread_affinity_policy$u20$as$u20$core..clone..Clone$GT$5clone17hd788a4b07cd0b454E
	.p2align	4, 0x90
__ZN85_$LT$libc..unix..bsd..apple..thread_affinity_policy$u20$as$u20$core..clone..Clone$GT$5clone17hd788a4b07cd0b454E:
Lfunc_begin97:
	.loc	2 83 0 is_stmt 1
	.cfi_startproc
	pushq	%rbp
	.cfi_def_cfa_offset 16
	.cfi_offset %rbp, -16
	movq	%rsp, %rbp
	.cfi_def_cfa_register %rbp
	subq	$16, %rsp
	movq	%rdi, -8(%rbp)
Ltmp194:
	.loc	2 83 37 prologue_end
	movl	(%rdi), %eax
	movl	%eax, -16(%rbp)
	.loc	2 83 44 is_stmt 0
	movl	-16(%rbp), %eax
	addq	$16, %rsp
	popq	%rbp
	retq
Ltmp195:
Lfunc_end97:
	.cfi_endproc

	.globl	__ZN87_$LT$libc..unix..bsd..apple..thread_background_policy$u20$as$u20$core..clone..Clone$GT$5clone17h3c5f7ffc6fadeffaE
	.p2align	4, 0x90
__ZN87_$LT$libc..unix..bsd..apple..thread_background_policy$u20$as$u20$core..clone..Clone$GT$5clone17h3c5f7ffc6fadeffaE:
Lfunc_begin98:
	.loc	2 83 0 is_stmt 1
	.cfi_startproc
	pushq	%rbp
	.cfi_def_cfa_offset 16
	.cfi_offset %rbp, -16
	movq	%rsp, %rbp
	.cfi_def_cfa_register %rbp
	subq	$16, %rsp
	movq	%rdi, -8(%rbp)
Ltmp196:
	.loc	2 83 37 prologue_end
	movl	(%rdi), %eax
	movl	%eax, -16(%rbp)
	.loc	2 83 44 is_stmt 0
	movl	-16(%rbp), %eax
	addq	$16, %rsp
	popq	%rbp
	retq
Ltmp197:
Lfunc_end98:
	.cfi_endproc

	.globl	__ZN88_$LT$libc..unix..bsd..apple..thread_latency_qos_policy$u20$as$u20$core..clone..Clone$GT$5clone17h70eb520ba37c22e3E
	.p2align	4, 0x90
__ZN88_$LT$libc..unix..bsd..apple..thread_latency_qos_policy$u20$as$u20$core..clone..Clone$GT$5clone17h70eb520ba37c22e3E:
Lfunc_begin99:
	.loc	2 83 0 is_stmt 1
	.cfi_startproc
	pushq	%rbp
	.cfi_def_cfa_offset 16
	.cfi_offset %rbp, -16
	movq	%rsp, %rbp
	.cfi_def_cfa_register %rbp
	subq	$16, %rsp
	movq	%rdi, -8(%rbp)
Ltmp198:
	.loc	2 83 37 prologue_end
	movl	(%rdi), %eax
	movl	%eax, -16(%rbp)
	.loc	2 83 44 is_stmt 0
	movl	-16(%rbp), %eax
	addq	$16, %rsp
	popq	%rbp
	retq
Ltmp199:
Lfunc_end99:
	.cfi_endproc

	.globl	__ZN91_$LT$libc..unix..bsd..apple..thread_throughput_qos_policy$u20$as$u20$core..clone..Clone$GT$5clone17h0b33dc19de0aea35E
	.p2align	4, 0x90
__ZN91_$LT$libc..unix..bsd..apple..thread_throughput_qos_policy$u20$as$u20$core..clone..Clone$GT$5clone17h0b33dc19de0aea35E:
Lfunc_begin100:
	.loc	2 83 0 is_stmt 1
	.cfi_startproc
	pushq	%rbp
	.cfi_def_cfa_offset 16
	.cfi_offset %rbp, -16
	movq	%rsp, %rbp
	.cfi_def_cfa_register %rbp
	subq	$16, %rsp
	movq	%rdi, -8(%rbp)
Ltmp200:
	.loc	2 83 37 prologue_end
	movl	(%rdi), %eax
	movl	%eax, -16(%rbp)
	.loc	2 83 44 is_stmt 0
	movl	-16(%rbp), %eax
	addq	$16, %rsp
	popq	%rbp
	retq
Ltmp201:
Lfunc_end100:
	.cfi_endproc

	.globl	__ZN82_$LT$libc..unix..bsd..apple..malloc_statistics_t$u20$as$u20$core..clone..Clone$GT$5clone17h3992917189194d76E
	.p2align	4, 0x90
__ZN82_$LT$libc..unix..bsd..apple..malloc_statistics_t$u20$as$u20$core..clone..Clone$GT$5clone17h3992917189194d76E:
Lfunc_begin101:
	.loc	2 83 0 is_stmt 1
	.cfi_startproc
	pushq	%rbp
	.cfi_def_cfa_offset 16
	.cfi_offset %rbp, -16
	movq	%rsp, %rbp
	.cfi_def_cfa_register %rbp
	pushq	%rax
	movq	%rdi, %rax
	movq	%rsi, -8(%rbp)
Ltmp202:
	.loc	2 83 37 prologue_end
	movq	(%rsi), %rcx
	movq	%rcx, (%rdi)
	movq	8(%rsi), %rcx
	movq	%rcx, 8(%rdi)
	movq	16(%rsi), %rcx
	movq	%rcx, 16(%rdi)
	movq	24(%rsi), %rcx
	movq	%rcx, 24(%rdi)
	.loc	2 83 44 is_stmt 0
	addq	$8, %rsp
	popq	%rbp
	retq
Ltmp203:
Lfunc_end101:
	.cfi_endproc

	.globl	__ZN69_$LT$libc..unix..bsd..apple..mstats$u20$as$u20$core..clone..Clone$GT$5clone17hf47277f543ef695dE
	.p2align	4, 0x90
__ZN69_$LT$libc..unix..bsd..apple..mstats$u20$as$u20$core..clone..Clone$GT$5clone17hf47277f543ef695dE:
Lfunc_begin102:
	.loc	2 83 0 is_stmt 1
	.cfi_startproc
	pushq	%rbp
	.cfi_def_cfa_offset 16
	.cfi_offset %rbp, -16
	movq	%rsp, %rbp
	.cfi_def_cfa_register %rbp
	subq	$16, %rsp
	movq	%rdi, %rax
	movq	%rax, -16(%rbp)
	movq	%rsi, -8(%rbp)
Ltmp204:
	.loc	2 83 37 prologue_end
	movl	$40, %edx
	callq	_memcpy
	movq	-16(%rbp), %rax
	.loc	2 83 44 is_stmt 0
	addq	$16, %rsp
	popq	%rbp
	retq
Ltmp205:
Lfunc_end102:
	.cfi_endproc

	.globl	__ZN73_$LT$libc..unix..bsd..apple..vm_range_t$u20$as$u20$core..clone..Clone$GT$5clone17hbd84ae0725377928E
	.p2align	4, 0x90
__ZN73_$LT$libc..unix..bsd..apple..vm_range_t$u20$as$u20$core..clone..Clone$GT$5clone17hbd84ae0725377928E:
Lfunc_begin103:
	.loc	2 83 0 is_stmt 1
	.cfi_startproc
	pushq	%rbp
	.cfi_def_cfa_offset 16
	.cfi_offset %rbp, -16
	movq	%rsp, %rbp
	.cfi_def_cfa_register %rbp
	pushq	%rax
	movq	%rdi, -8(%rbp)
Ltmp206:
	.loc	2 83 37 prologue_end
	movq	(%rdi), %rax
	movq	8(%rdi), %rdx
	.loc	2 83 44 is_stmt 0
	addq	$8, %rsp
	popq	%rbp
	retq
Ltmp207:
Lfunc_end103:
	.cfi_endproc

	.globl	__ZN74_$LT$libc..unix..bsd..apple..sched_param$u20$as$u20$core..clone..Clone$GT$5clone17h5546a29c31e72758E
	.p2align	4, 0x90
__ZN74_$LT$libc..unix..bsd..apple..sched_param$u20$as$u20$core..clone..Clone$GT$5clone17h5546a29c31e72758E:
Lfunc_begin104:
	.loc	2 83 0 is_stmt 1
	.cfi_startproc
	pushq	%rbp
	.cfi_def_cfa_offset 16
	.cfi_offset %rbp, -16
	movq	%rsp, %rbp
	.cfi_def_cfa_register %rbp
	subq	$16, %rsp
	movq	%rdi, -8(%rbp)
Ltmp208:
	.loc	2 83 37 prologue_end
	movq	(%rdi), %rax
	movq	%rax, -16(%rbp)
	.loc	2 83 44 is_stmt 0
	movq	-16(%rbp), %rax
	addq	$16, %rsp
	popq	%rbp
	retq
Ltmp209:
Lfunc_end104:
	.cfi_endproc

	.globl	__ZN73_$LT$libc..unix..bsd..apple..vinfo_stat$u20$as$u20$core..clone..Clone$GT$5clone17hd41328a731219598E
	.p2align	4, 0x90
__ZN73_$LT$libc..unix..bsd..apple..vinfo_stat$u20$as$u20$core..clone..Clone$GT$5clone17hd41328a731219598E:
Lfunc_begin105:
	.loc	2 83 0 is_stmt 1
	.cfi_startproc
	pushq	%rbp
	.cfi_def_cfa_offset 16
	.cfi_offset %rbp, -16
	movq	%rsp, %rbp
	.cfi_def_cfa_register %rbp
	subq	$16, %rsp
	movq	%rdi, %rax
	movq	%rax, -16(%rbp)
	movq	%rsi, -8(%rbp)
Ltmp210:
	.loc	2 83 37 prologue_end
	movl	$136, %edx
	callq	_memcpy
	movq	-16(%rbp), %rax
	.loc	2 83 44 is_stmt 0
	addq	$16, %rsp
	popq	%rbp
	retq
Ltmp211:
Lfunc_end105:
	.cfi_endproc

	.globl	__ZN73_$LT$libc..unix..bsd..apple..vnode_info$u20$as$u20$core..clone..Clone$GT$5clone17had97e09f77d9f9c6E
	.p2align	4, 0x90
__ZN73_$LT$libc..unix..bsd..apple..vnode_info$u20$as$u20$core..clone..Clone$GT$5clone17had97e09f77d9f9c6E:
Lfunc_begin106:
	.loc	2 83 0 is_stmt 1
	.cfi_startproc
	pushq	%rbp
	.cfi_def_cfa_offset 16
	.cfi_offset %rbp, -16
	movq	%rsp, %rbp
	.cfi_def_cfa_register %rbp
	subq	$16, %rsp
	movq	%rdi, %rax
	movq	%rax, -16(%rbp)
	movq	%rsi, -8(%rbp)
Ltmp212:
	.loc	2 83 37 prologue_end
	movl	$152, %edx
	callq	_memcpy
	movq	-16(%rbp), %rax
	.loc	2 83 44 is_stmt 0
	addq	$16, %rsp
	popq	%rbp
	retq
Ltmp213:
Lfunc_end106:
	.cfi_endproc

	.globl	__ZN78_$LT$libc..unix..bsd..apple..vnode_info_path$u20$as$u20$core..clone..Clone$GT$5clone17h53cf7094751e1c7cE
	.p2align	4, 0x90
__ZN78_$LT$libc..unix..bsd..apple..vnode_info_path$u20$as$u20$core..clone..Clone$GT$5clone17h53cf7094751e1c7cE:
Lfunc_begin107:
	.loc	2 83 0 is_stmt 1
	.cfi_startproc
	pushq	%rbp
	.cfi_def_cfa_offset 16
	.cfi_offset %rbp, -16
	movq	%rsp, %rbp
	.cfi_def_cfa_register %rbp
	subq	$16, %rsp
	movq	%rdi, %rax
	movq	%rax, -16(%rbp)
	movq	%rsi, -8(%rbp)
Ltmp214:
	.loc	2 83 37 prologue_end
	movl	$1176, %edx
	callq	_memcpy
	movq	-16(%rbp), %rax
	.loc	2 83 44 is_stmt 0
	addq	$16, %rsp
	popq	%rbp
	retq
Ltmp215:
Lfunc_end107:
	.cfi_endproc

	.globl	__ZN81_$LT$libc..unix..bsd..apple..proc_vnodepathinfo$u20$as$u20$core..clone..Clone$GT$5clone17h6969094bc62355fcE
	.p2align	4, 0x90
__ZN81_$LT$libc..unix..bsd..apple..proc_vnodepathinfo$u20$as$u20$core..clone..Clone$GT$5clone17h6969094bc62355fcE:
Lfunc_begin108:
	.loc	2 83 0 is_stmt 1
	.cfi_startproc
	pushq	%rbp
	.cfi_def_cfa_offset 16
	.cfi_offset %rbp, -16
	movq	%rsp, %rbp
	.cfi_def_cfa_register %rbp
	subq	$16, %rsp
	movq	%rdi, %rax
	movq	%rax, -16(%rbp)
	movq	%rsi, -8(%rbp)
Ltmp216:
	.loc	2 83 37 prologue_end
	movl	$2352, %edx
	callq	_memcpy
	movq	-16(%rbp), %rax
	.loc	2 83 44 is_stmt 0
	addq	$16, %rsp
	popq	%rbp
	retq
Ltmp217:
Lfunc_end108:
	.cfi_endproc

	.globl	__ZN76_$LT$libc..unix..bsd..apple..vm_statistics$u20$as$u20$core..clone..Clone$GT$5clone17h3539370a2434cf2fE
	.p2align	4, 0x90
__ZN76_$LT$libc..unix..bsd..apple..vm_statistics$u20$as$u20$core..clone..Clone$GT$5clone17h3539370a2434cf2fE:
Lfunc_begin109:
	.loc	2 83 0 is_stmt 1
	.cfi_startproc
	pushq	%rbp
	.cfi_def_cfa_offset 16
	.cfi_offset %rbp, -16
	movq	%rsp, %rbp
	.cfi_def_cfa_register %rbp
	subq	$16, %rsp
	movq	%rdi, %rax
	movq	%rax, -16(%rbp)
	movq	%rsi, -8(%rbp)
Ltmp218:
	.loc	2 83 37 prologue_end
	movl	$60, %edx
	callq	_memcpy
	movq	-16(%rbp), %rax
	.loc	2 83 44 is_stmt 0
	addq	$16, %rsp
	popq	%rbp
	retq
Ltmp219:
Lfunc_end109:
	.cfi_endproc

	.globl	__ZN85_$LT$libc..unix..bsd..apple..task_thread_times_info$u20$as$u20$core..clone..Clone$GT$5clone17hcdfba2dc1540d022E
	.p2align	4, 0x90
__ZN85_$LT$libc..unix..bsd..apple..task_thread_times_info$u20$as$u20$core..clone..Clone$GT$5clone17hcdfba2dc1540d022E:
Lfunc_begin110:
	.loc	2 83 0 is_stmt 1
	.cfi_startproc
	pushq	%rbp
	.cfi_def_cfa_offset 16
	.cfi_offset %rbp, -16
	movq	%rsp, %rbp
	.cfi_def_cfa_register %rbp
	pushq	%rax
	movq	%rdi, %rax
	movq	%rsi, -8(%rbp)
Ltmp220:
	.loc	2 83 37 prologue_end
	movq	(%rsi), %rcx
	movq	%rcx, (%rdi)
	movq	8(%rsi), %rcx
	movq	%rcx, 8(%rdi)
	.loc	2 83 44 is_stmt 0
	addq	$8, %rsp
	popq	%rbp
	retq
Ltmp221:
Lfunc_end110:
	.cfi_endproc

	.globl	__ZN77_$LT$libc..unix..bsd..apple..rusage_info_v0$u20$as$u20$core..clone..Clone$GT$5clone17h3e91b60502308b80E
	.p2align	4, 0x90
__ZN77_$LT$libc..unix..bsd..apple..rusage_info_v0$u20$as$u20$core..clone..Clone$GT$5clone17h3e91b60502308b80E:
Lfunc_begin111:
	.loc	2 83 0 is_stmt 1
	.cfi_startproc
	pushq	%rbp
	.cfi_def_cfa_offset 16
	.cfi_offset %rbp, -16
	movq	%rsp, %rbp
	.cfi_def_cfa_register %rbp
	subq	$16, %rsp
	movq	%rdi, %rax
	movq	%rax, -16(%rbp)
	movq	%rsi, -8(%rbp)
Ltmp222:
	.loc	2 83 37 prologue_end
	movl	$96, %edx
	callq	_memcpy
	movq	-16(%rbp), %rax
	.loc	2 83 44 is_stmt 0
	addq	$16, %rsp
	popq	%rbp
	retq
Ltmp223:
Lfunc_end111:
	.cfi_endproc

	.globl	__ZN77_$LT$libc..unix..bsd..apple..rusage_info_v1$u20$as$u20$core..clone..Clone$GT$5clone17h03602ec424a0c686E
	.p2align	4, 0x90
__ZN77_$LT$libc..unix..bsd..apple..rusage_info_v1$u20$as$u20$core..clone..Clone$GT$5clone17h03602ec424a0c686E:
Lfunc_begin112:
	.loc	2 83 0 is_stmt 1
	.cfi_startproc
	pushq	%rbp
	.cfi_def_cfa_offset 16
	.cfi_offset %rbp, -16
	movq	%rsp, %rbp
	.cfi_def_cfa_register %rbp
	subq	$16, %rsp
	movq	%rdi, %rax
	movq	%rax, -16(%rbp)
	movq	%rsi, -8(%rbp)
Ltmp224:
	.loc	2 83 37 prologue_end
	movl	$144, %edx
	callq	_memcpy
	movq	-16(%rbp), %rax
	.loc	2 83 44 is_stmt 0
	addq	$16, %rsp
	popq	%rbp
	retq
Ltmp225:
Lfunc_end112:
	.cfi_endproc

	.globl	__ZN77_$LT$libc..unix..bsd..apple..rusage_info_v2$u20$as$u20$core..clone..Clone$GT$5clone17h847236a7a549b1efE
	.p2align	4, 0x90
__ZN77_$LT$libc..unix..bsd..apple..rusage_info_v2$u20$as$u20$core..clone..Clone$GT$5clone17h847236a7a549b1efE:
Lfunc_begin113:
	.loc	2 83 0 is_stmt 1
	.cfi_startproc
	pushq	%rbp
	.cfi_def_cfa_offset 16
	.cfi_offset %rbp, -16
	movq	%rsp, %rbp
	.cfi_def_cfa_register %rbp
	subq	$16, %rsp
	movq	%rdi, %rax
	movq	%rax, -16(%rbp)
	movq	%rsi, -8(%rbp)
Ltmp226:
	.loc	2 83 37 prologue_end
	movl	$160, %edx
	callq	_memcpy
	movq	-16(%rbp), %rax
	.loc	2 83 44 is_stmt 0
	addq	$16, %rsp
	popq	%rbp
	retq
Ltmp227:
Lfunc_end113:
	.cfi_endproc

	.globl	__ZN77_$LT$libc..unix..bsd..apple..rusage_info_v3$u20$as$u20$core..clone..Clone$GT$5clone17h37b5b09d1c497ea0E
	.p2align	4, 0x90
__ZN77_$LT$libc..unix..bsd..apple..rusage_info_v3$u20$as$u20$core..clone..Clone$GT$5clone17h37b5b09d1c497ea0E:
Lfunc_begin114:
	.loc	2 83 0 is_stmt 1
	.cfi_startproc
	pushq	%rbp
	.cfi_def_cfa_offset 16
	.cfi_offset %rbp, -16
	movq	%rsp, %rbp
	.cfi_def_cfa_register %rbp
	subq	$16, %rsp
	movq	%rdi, %rax
	movq	%rax, -16(%rbp)
	movq	%rsi, -8(%rbp)
Ltmp228:
	.loc	2 83 37 prologue_end
	movl	$232, %edx
	callq	_memcpy
	movq	-16(%rbp), %rax
	.loc	2 83 44 is_stmt 0
	addq	$16, %rsp
	popq	%rbp
	retq
Ltmp229:
Lfunc_end114:
	.cfi_endproc

	.globl	__ZN77_$LT$libc..unix..bsd..apple..rusage_info_v4$u20$as$u20$core..clone..Clone$GT$5clone17he284ed130f5d9b7dE
	.p2align	4, 0x90
__ZN77_$LT$libc..unix..bsd..apple..rusage_info_v4$u20$as$u20$core..clone..Clone$GT$5clone17he284ed130f5d9b7dE:
Lfunc_begin115:
	.loc	2 83 0 is_stmt 1
	.cfi_startproc
	pushq	%rbp
	.cfi_def_cfa_offset 16
	.cfi_offset %rbp, -16
	movq	%rsp, %rbp
	.cfi_def_cfa_register %rbp
	subq	$16, %rsp
	movq	%rdi, %rax
	movq	%rax, -16(%rbp)
	movq	%rsi, -8(%rbp)
Ltmp230:
	.loc	2 83 37 prologue_end
	movl	$296, %edx
	callq	_memcpy
	movq	-16(%rbp), %rax
	.loc	2 83 44 is_stmt 0
	addq	$16, %rsp
	popq	%rbp
	retq
Ltmp231:
Lfunc_end115:
	.cfi_endproc

	.globl	__ZN75_$LT$libc..unix..bsd..apple..image_offset$u20$as$u20$core..clone..Clone$GT$5clone17h27b49a7821a75514E
	.p2align	4, 0x90
__ZN75_$LT$libc..unix..bsd..apple..image_offset$u20$as$u20$core..clone..Clone$GT$5clone17h27b49a7821a75514E:
Lfunc_begin116:
	.loc	2 83 0 is_stmt 1
	.cfi_startproc
	pushq	%rbp
	.cfi_def_cfa_offset 16
	.cfi_offset %rbp, -16
	movq	%rsp, %rbp
	.cfi_def_cfa_register %rbp
	pushq	%rax
	movq	%rdi, %rax
	movq	%rsi, -8(%rbp)
Ltmp232:
	.loc	2 83 37 prologue_end
	movq	(%rsi), %rcx
	movq	%rcx, (%rdi)
	movq	8(%rsi), %rcx
	movq	%rcx, 8(%rdi)
	movl	16(%rsi), %ecx
	movl	%ecx, 16(%rdi)
	.loc	2 83 44 is_stmt 0
	addq	$8, %rsp
	popq	%rbp
	retq
Ltmp233:
Lfunc_end116:
	.cfi_endproc

	.globl	__ZN71_$LT$libc..unix..bsd..apple..attrlist$u20$as$u20$core..clone..Clone$GT$5clone17h2c4b36e25709c851E
	.p2align	4, 0x90
__ZN71_$LT$libc..unix..bsd..apple..attrlist$u20$as$u20$core..clone..Clone$GT$5clone17h2c4b36e25709c851E:
Lfunc_begin117:
	.loc	2 83 0 is_stmt 1
	.cfi_startproc
	pushq	%rbp
	.cfi_def_cfa_offset 16
	.cfi_offset %rbp, -16
	movq	%rsp, %rbp
	.cfi_def_cfa_register %rbp
	pushq	%rax
	movq	%rdi, %rax
	movq	%rsi, -8(%rbp)
Ltmp234:
	.loc	2 83 37 prologue_end
	movq	(%rsi), %rcx
	movq	%rcx, (%rdi)
	movq	8(%rsi), %rcx
	movq	%rcx, 8(%rdi)
	movq	16(%rsi), %rcx
	movq	%rcx, 16(%rdi)
	.loc	2 83 44 is_stmt 0
	addq	$8, %rsp
	popq	%rbp
	retq
Ltmp235:
Lfunc_end117:
	.cfi_endproc

	.globl	__ZN78_$LT$libc..unix..bsd..apple..attrreference_t$u20$as$u20$core..clone..Clone$GT$5clone17h65c3c6f424bdb176E
	.p2align	4, 0x90
__ZN78_$LT$libc..unix..bsd..apple..attrreference_t$u20$as$u20$core..clone..Clone$GT$5clone17h65c3c6f424bdb176E:
Lfunc_begin118:
	.loc	2 83 0 is_stmt 1
	.cfi_startproc
	pushq	%rbp
	.cfi_def_cfa_offset 16
	.cfi_offset %rbp, -16
	movq	%rsp, %rbp
	.cfi_def_cfa_register %rbp
	pushq	%rax
	movq	%rdi, -8(%rbp)
Ltmp236:
	.loc	2 83 37 prologue_end
	movl	(%rdi), %eax
	movl	4(%rdi), %edx
	.loc	2 83 44 is_stmt 0
	addq	$8, %rsp
	popq	%rbp
	retq
Ltmp237:
Lfunc_end118:
	.cfi_endproc

	.globl	__ZN86_$LT$libc..unix..bsd..apple..vol_capabilities_attr_t$u20$as$u20$core..clone..Clone$GT$5clone17hc47e44fdd369cac3E
	.p2align	4, 0x90
__ZN86_$LT$libc..unix..bsd..apple..vol_capabilities_attr_t$u20$as$u20$core..clone..Clone$GT$5clone17hc47e44fdd369cac3E:
Lfunc_begin119:
	.loc	2 83 0 is_stmt 1
	.cfi_startproc
	pushq	%rbp
	.cfi_def_cfa_offset 16
	.cfi_offset %rbp, -16
	movq	%rsp, %rbp
	.cfi_def_cfa_register %rbp
	pushq	%rax
	movq	%rdi, %rax
	movq	%rsi, -8(%rbp)
Ltmp238:
	.loc	2 83 37 prologue_end
	movq	(%rsi), %rcx
	movq	%rcx, (%rdi)
	movq	8(%rsi), %rcx
	movq	%rcx, 8(%rdi)
	movq	16(%rsi), %rcx
	movq	%rcx, 16(%rdi)
	movq	24(%rsi), %rcx
	movq	%rcx, 24(%rdi)
	.loc	2 83 44 is_stmt 0
	addq	$8, %rsp
	popq	%rbp
	retq
Ltmp239:
Lfunc_end119:
	.cfi_endproc

	.globl	__ZN78_$LT$libc..unix..bsd..apple..attribute_set_t$u20$as$u20$core..clone..Clone$GT$5clone17h226de3787e019d4dE
	.p2align	4, 0x90
__ZN78_$LT$libc..unix..bsd..apple..attribute_set_t$u20$as$u20$core..clone..Clone$GT$5clone17h226de3787e019d4dE:
Lfunc_begin120:
	.loc	2 83 0 is_stmt 1
	.cfi_startproc
	pushq	%rbp
	.cfi_def_cfa_offset 16
	.cfi_offset %rbp, -16
	movq	%rsp, %rbp
	.cfi_def_cfa_register %rbp
	pushq	%rax
	movq	%rdi, %rax
	movq	%rsi, -8(%rbp)
Ltmp240:
	.loc	2 83 37 prologue_end
	movq	(%rsi), %rcx
	movq	%rcx, (%rdi)
	movq	8(%rsi), %rcx
	movq	%rcx, 8(%rdi)
	movl	16(%rsi), %ecx
	movl	%ecx, 16(%rdi)
	.loc	2 83 44 is_stmt 0
	addq	$8, %rsp
	popq	%rbp
	retq
Ltmp241:
Lfunc_end120:
	.cfi_endproc

	.globl	__ZN84_$LT$libc..unix..bsd..apple..vol_attributes_attr_t$u20$as$u20$core..clone..Clone$GT$5clone17h4352ca3f7ba8874fE
	.p2align	4, 0x90
__ZN84_$LT$libc..unix..bsd..apple..vol_attributes_attr_t$u20$as$u20$core..clone..Clone$GT$5clone17h4352ca3f7ba8874fE:
Lfunc_begin121:
	.loc	2 83 0 is_stmt 1
	.cfi_startproc
	pushq	%rbp
	.cfi_def_cfa_offset 16
	.cfi_offset %rbp, -16
	movq	%rsp, %rbp
	.cfi_def_cfa_register %rbp
	subq	$16, %rsp
	movq	%rdi, %rax
	movq	%rax, -16(%rbp)
	movq	%rsi, -8(%rbp)
Ltmp242:
	.loc	2 83 37 prologue_end
	movl	$40, %edx
	callq	_memcpy
	movq	-16(%rbp), %rax
	.loc	2 83 44 is_stmt 0
	addq	$16, %rsp
	popq	%rbp
	retq
Ltmp243:
Lfunc_end121:
	.cfi_endproc

	.globl	__ZN69_$LT$libc..unix..bsd..apple..kevent$u20$as$u20$core..clone..Clone$GT$5clone17h1731a8c9b8158a3aE
	.p2align	4, 0x90
__ZN69_$LT$libc..unix..bsd..apple..kevent$u20$as$u20$core..clone..Clone$GT$5clone17h1731a8c9b8158a3aE:
Lfunc_begin122:
	.loc	2 118 0 is_stmt 1
	.cfi_startproc
	pushq	%rbp
	.cfi_def_cfa_offset 16
	.cfi_offset %rbp, -16
	movq	%rsp, %rbp
	.cfi_def_cfa_register %rbp
	pushq	%rax
	movq	%rdi, %rax
	movq	%rsi, -8(%rbp)
Ltmp244:
	.loc	2 118 37 prologue_end
	movq	(%rsi), %rcx
	movq	%rcx, (%rdi)
	movq	8(%rsi), %rcx
	movq	%rcx, 8(%rdi)
	movq	16(%rsi), %rcx
	movq	%rcx, 16(%rdi)
	movq	24(%rsi), %rcx
	movq	%rcx, 24(%rdi)
	.loc	2 118 44 is_stmt 0
	addq	$8, %rsp
	popq	%rbp
	retq
Ltmp245:
Lfunc_end122:
	.cfi_endproc

	.globl	__ZN71_$LT$libc..unix..bsd..apple..semid_ds$u20$as$u20$core..clone..Clone$GT$5clone17h1936384616e8a3b5E
	.p2align	4, 0x90
__ZN71_$LT$libc..unix..bsd..apple..semid_ds$u20$as$u20$core..clone..Clone$GT$5clone17h1936384616e8a3b5E:
Lfunc_begin123:
	.loc	2 118 0 is_stmt 1
	.cfi_startproc
	pushq	%rbp
	.cfi_def_cfa_offset 16
	.cfi_offset %rbp, -16
	movq	%rsp, %rbp
	.cfi_def_cfa_register %rbp
	subq	$16, %rsp
	movq	%rdi, %rax
	movq	%rax, -16(%rbp)
	movq	%rsi, -8(%rbp)
Ltmp246:
	.loc	2 118 37 prologue_end
	movl	$72, %edx
	callq	_memcpy
	movq	-16(%rbp), %rax
	.loc	2 118 44 is_stmt 0
	addq	$16, %rsp
	popq	%rbp
	retq
Ltmp247:
Lfunc_end123:
	.cfi_endproc

	.globl	__ZN71_$LT$libc..unix..bsd..apple..shmid_ds$u20$as$u20$core..clone..Clone$GT$5clone17h2b127fcb2af2860fE
	.p2align	4, 0x90
__ZN71_$LT$libc..unix..bsd..apple..shmid_ds$u20$as$u20$core..clone..Clone$GT$5clone17h2b127fcb2af2860fE:
Lfunc_begin124:
	.loc	2 118 0 is_stmt 1
	.cfi_startproc
	pushq	%rbp
	.cfi_def_cfa_offset 16
	.cfi_offset %rbp, -16
	movq	%rsp, %rbp
	.cfi_def_cfa_register %rbp
	subq	$16, %rsp
	movq	%rdi, %rax
	movq	%rax, -16(%rbp)
	movq	%rsi, -8(%rbp)
Ltmp248:
	.loc	2 118 37 prologue_end
	movl	$76, %edx
	callq	_memcpy
	movq	-16(%rbp), %rax
	.loc	2 118 44 is_stmt 0
	addq	$16, %rsp
	popq	%rbp
	retq
Ltmp249:
Lfunc_end124:
	.cfi_endproc

	.globl	__ZN78_$LT$libc..unix..bsd..apple..proc_threadinfo$u20$as$u20$core..clone..Clone$GT$5clone17h7d235423988966c5E
	.p2align	4, 0x90
__ZN78_$LT$libc..unix..bsd..apple..proc_threadinfo$u20$as$u20$core..clone..Clone$GT$5clone17h7d235423988966c5E:
Lfunc_begin125:
	.loc	2 118 0 is_stmt 1
	.cfi_startproc
	pushq	%rbp
	.cfi_def_cfa_offset 16
	.cfi_offset %rbp, -16
	movq	%rsp, %rbp
	.cfi_def_cfa_register %rbp
	subq	$16, %rsp
	movq	%rdi, %rax
	movq	%rax, -16(%rbp)
	movq	%rsi, -8(%rbp)
Ltmp250:
	.loc	2 118 37 prologue_end
	movl	$112, %edx
	callq	_memcpy
	movq	-16(%rbp), %rax
	.loc	2 118 44 is_stmt 0
	addq	$16, %rsp
	popq	%rbp
	retq
Ltmp251:
Lfunc_end125:
	.cfi_endproc

	.globl	__ZN69_$LT$libc..unix..bsd..apple..statfs$u20$as$u20$core..clone..Clone$GT$5clone17hf94414b43330763bE
	.p2align	4, 0x90
__ZN69_$LT$libc..unix..bsd..apple..statfs$u20$as$u20$core..clone..Clone$GT$5clone17hf94414b43330763bE:
Lfunc_begin126:
	.loc	2 118 0 is_stmt 1
	.cfi_startproc
	pushq	%rbp
	.cfi_def_cfa_offset 16
	.cfi_offset %rbp, -16
	movq	%rsp, %rbp
	.cfi_def_cfa_register %rbp
	subq	$16, %rsp
	movq	%rdi, %rax
	movq	%rax, -16(%rbp)
	movq	%rsi, -8(%rbp)
Ltmp252:
	.loc	2 118 37 prologue_end
	movl	$2168, %edx
	callq	_memcpy
	movq	-16(%rbp), %rax
	.loc	2 118 44 is_stmt 0
	addq	$16, %rsp
	popq	%rbp
	retq
Ltmp253:
Lfunc_end126:
	.cfi_endproc

	.globl	__ZN69_$LT$libc..unix..bsd..apple..dirent$u20$as$u20$core..clone..Clone$GT$5clone17he34aa5a128489872E
	.p2align	4, 0x90
__ZN69_$LT$libc..unix..bsd..apple..dirent$u20$as$u20$core..clone..Clone$GT$5clone17he34aa5a128489872E:
Lfunc_begin127:
	.loc	2 118 0 is_stmt 1
	.cfi_startproc
	pushq	%rbp
	.cfi_def_cfa_offset 16
	.cfi_offset %rbp, -16
	movq	%rsp, %rbp
	.cfi_def_cfa_register %rbp
	subq	$16, %rsp
	movq	%rdi, %rax
	movq	%rax, -16(%rbp)
	movq	%rsi, -8(%rbp)
Ltmp254:
	.loc	2 118 37 prologue_end
	movl	$1048, %edx
	callq	_memcpy
	movq	-16(%rbp), %rax
	.loc	2 118 44 is_stmt 0
	addq	$16, %rsp
	popq	%rbp
	retq
Ltmp255:
Lfunc_end127:
	.cfi_endproc

	.globl	__ZN79_$LT$libc..unix..bsd..apple..pthread_rwlock_t$u20$as$u20$core..clone..Clone$GT$5clone17hfbaa195dab54c6fbE
	.p2align	4, 0x90
__ZN79_$LT$libc..unix..bsd..apple..pthread_rwlock_t$u20$as$u20$core..clone..Clone$GT$5clone17hfbaa195dab54c6fbE:
Lfunc_begin128:
	.loc	2 118 0 is_stmt 1
	.cfi_startproc
	pushq	%rbp
	.cfi_def_cfa_offset 16
	.cfi_offset %rbp, -16
	movq	%rsp, %rbp
	.cfi_def_cfa_register %rbp
	subq	$16, %rsp
	movq	%rdi, %rax
	movq	%rax, -16(%rbp)
	movq	%rsi, -8(%rbp)
Ltmp256:
	.loc	2 118 37 prologue_end
	movl	$200, %edx
	callq	_memcpy
	movq	-16(%rbp), %rax
	.loc	2 118 44 is_stmt 0
	addq	$16, %rsp
	popq	%rbp
	retq
Ltmp257:
Lfunc_end128:
	.cfi_endproc

	.globl	__ZN78_$LT$libc..unix..bsd..apple..pthread_mutex_t$u20$as$u20$core..clone..Clone$GT$5clone17h776ac444e4f72b7cE
	.p2align	4, 0x90
__ZN78_$LT$libc..unix..bsd..apple..pthread_mutex_t$u20$as$u20$core..clone..Clone$GT$5clone17h776ac444e4f72b7cE:
Lfunc_begin129:
	.loc	2 118 0 is_stmt 1
	.cfi_startproc
	pushq	%rbp
	.cfi_def_cfa_offset 16
	.cfi_offset %rbp, -16
	movq	%rsp, %rbp
	.cfi_def_cfa_register %rbp
	subq	$16, %rsp
	movq	%rdi, %rax
	movq	%rax, -16(%rbp)
	movq	%rsi, -8(%rbp)
Ltmp258:
	.loc	2 118 37 prologue_end
	movl	$64, %edx
	callq	_memcpy
	movq	-16(%rbp), %rax
	.loc	2 118 44 is_stmt 0
	addq	$16, %rsp
	popq	%rbp
	retq
Ltmp259:
Lfunc_end129:
	.cfi_endproc

	.globl	__ZN77_$LT$libc..unix..bsd..apple..pthread_cond_t$u20$as$u20$core..clone..Clone$GT$5clone17h986c38f187a44679E
	.p2align	4, 0x90
__ZN77_$LT$libc..unix..bsd..apple..pthread_cond_t$u20$as$u20$core..clone..Clone$GT$5clone17h986c38f187a44679E:
Lfunc_begin130:
	.loc	2 118 0 is_stmt 1
	.cfi_startproc
	pushq	%rbp
	.cfi_def_cfa_offset 16
	.cfi_offset %rbp, -16
	movq	%rsp, %rbp
	.cfi_def_cfa_register %rbp
	subq	$16, %rsp
	movq	%rdi, %rax
	movq	%rax, -16(%rbp)
	movq	%rsi, -8(%rbp)
Ltmp260:
	.loc	2 118 37 prologue_end
	movl	$48, %edx
	callq	_memcpy
	movq	-16(%rbp), %rax
	.loc	2 118 44 is_stmt 0
	addq	$16, %rsp
	popq	%rbp
	retq
Ltmp261:
Lfunc_end130:
	.cfi_endproc

	.globl	__ZN79_$LT$libc..unix..bsd..apple..sockaddr_storage$u20$as$u20$core..clone..Clone$GT$5clone17hd1868f1d8e9a02a3E
	.p2align	4, 0x90
__ZN79_$LT$libc..unix..bsd..apple..sockaddr_storage$u20$as$u20$core..clone..Clone$GT$5clone17hd1868f1d8e9a02a3E:
Lfunc_begin131:
	.loc	2 118 0 is_stmt 1
	.cfi_startproc
	pushq	%rbp
	.cfi_def_cfa_offset 16
	.cfi_offset %rbp, -16
	movq	%rsp, %rbp
	.cfi_def_cfa_register %rbp
	subq	$16, %rsp
	movq	%rdi, %rax
	movq	%rax, -16(%rbp)
	movq	%rsi, -8(%rbp)
Ltmp262:
	.loc	2 118 37 prologue_end
	movl	$128, %edx
	callq	_memcpy
	movq	-16(%rbp), %rax
	.loc	2 118 44 is_stmt 0
	addq	$16, %rsp
	popq	%rbp
	retq
Ltmp263:
Lfunc_end131:
	.cfi_endproc

	.globl	__ZN68_$LT$libc..unix..bsd..apple..utmpx$u20$as$u20$core..clone..Clone$GT$5clone17hba6c9286b9a17974E
	.p2align	4, 0x90
__ZN68_$LT$libc..unix..bsd..apple..utmpx$u20$as$u20$core..clone..Clone$GT$5clone17hba6c9286b9a17974E:
Lfunc_begin132:
	.loc	2 118 0 is_stmt 1
	.cfi_startproc
	pushq	%rbp
	.cfi_def_cfa_offset 16
	.cfi_offset %rbp, -16
	movq	%rsp, %rbp
	.cfi_def_cfa_register %rbp
	subq	$16, %rsp
	movq	%rdi, %rax
	movq	%rax, -16(%rbp)
	movq	%rsi, -8(%rbp)
Ltmp264:
	.loc	2 118 37 prologue_end
	movl	$640, %edx
	callq	_memcpy
	movq	-16(%rbp), %rax
	.loc	2 118 44 is_stmt 0
	addq	$16, %rsp
	popq	%rbp
	retq
Ltmp265:
Lfunc_end132:
	.cfi_endproc

	.globl	__ZN71_$LT$libc..unix..bsd..apple..sigevent$u20$as$u20$core..clone..Clone$GT$5clone17h6434ccfe4ec1ce51E
	.p2align	4, 0x90
__ZN71_$LT$libc..unix..bsd..apple..sigevent$u20$as$u20$core..clone..Clone$GT$5clone17h6434ccfe4ec1ce51E:
Lfunc_begin133:
	.loc	2 118 0 is_stmt 1
	.cfi_startproc
	pushq	%rbp
	.cfi_def_cfa_offset 16
	.cfi_offset %rbp, -16
	movq	%rsp, %rbp
	.cfi_def_cfa_register %rbp
	pushq	%rax
	movq	%rdi, %rax
	movq	%rsi, -8(%rbp)
Ltmp266:
	.loc	2 118 37 prologue_end
	movq	(%rsi), %rcx
	movq	%rcx, (%rdi)
	movq	8(%rsi), %rcx
	movq	%rcx, 8(%rdi)
	movq	16(%rsi), %rcx
	movq	%rcx, 16(%rdi)
	movq	24(%rsi), %rcx
	movq	%rcx, 24(%rdi)
	.loc	2 118 44 is_stmt 0
	addq	$8, %rsp
	popq	%rbp
	retq
Ltmp267:
Lfunc_end133:
	.cfi_endproc

	.globl	__ZN86_$LT$libc..unix..bsd..apple..processor_cpu_load_info$u20$as$u20$core..clone..Clone$GT$5clone17hbc08b03a94738712E
	.p2align	4, 0x90
__ZN86_$LT$libc..unix..bsd..apple..processor_cpu_load_info$u20$as$u20$core..clone..Clone$GT$5clone17hbc08b03a94738712E:
Lfunc_begin134:
	.loc	2 118 0 is_stmt 1
	.cfi_startproc
	pushq	%rbp
	.cfi_def_cfa_offset 16
	.cfi_offset %rbp, -16
	movq	%rsp, %rbp
	.cfi_def_cfa_register %rbp
	pushq	%rax
	movq	%rdi, %rax
	movq	%rsi, -8(%rbp)
Ltmp268:
	.loc	2 118 37 prologue_end
	movq	(%rsi), %rcx
	movq	%rcx, (%rdi)
	movq	8(%rsi), %rcx
	movq	%rcx, 8(%rdi)
	.loc	2 118 44 is_stmt 0
	addq	$8, %rsp
	popq	%rbp
	retq
Ltmp269:
Lfunc_end134:
	.cfi_endproc

	.globl	__ZN83_$LT$libc..unix..bsd..apple..processor_basic_info$u20$as$u20$core..clone..Clone$GT$5clone17hb630191ac8b7155aE
	.p2align	4, 0x90
__ZN83_$LT$libc..unix..bsd..apple..processor_basic_info$u20$as$u20$core..clone..Clone$GT$5clone17hb630191ac8b7155aE:
Lfunc_begin135:
	.loc	2 118 0 is_stmt 1
	.cfi_startproc
	pushq	%rbp
	.cfi_def_cfa_offset 16
	.cfi_offset %rbp, -16
	movq	%rsp, %rbp
	.cfi_def_cfa_register %rbp
	pushq	%rax
	movq	%rdi, %rax
	movq	%rsi, -8(%rbp)
Ltmp270:
	.loc	2 118 37 prologue_end
	movq	(%rsi), %rcx
	movq	%rcx, (%rdi)
	movq	8(%rsi), %rcx
	movq	%rcx, 8(%rdi)
	movl	16(%rsi), %ecx
	movl	%ecx, 16(%rdi)
	.loc	2 118 44 is_stmt 0
	addq	$8, %rsp
	popq	%rbp
	retq
Ltmp271:
Lfunc_end135:
	.cfi_endproc

	.globl	__ZN87_$LT$libc..unix..bsd..apple..processor_set_basic_info$u20$as$u20$core..clone..Clone$GT$5clone17hfc89f74213c2abd8E
	.p2align	4, 0x90
__ZN87_$LT$libc..unix..bsd..apple..processor_set_basic_info$u20$as$u20$core..clone..Clone$GT$5clone17hfc89f74213c2abd8E:
Lfunc_begin136:
	.loc	2 118 0 is_stmt 1
	.cfi_startproc
	pushq	%rbp
	.cfi_def_cfa_offset 16
	.cfi_offset %rbp, -16
	movq	%rsp, %rbp
	.cfi_def_cfa_register %rbp
	pushq	%rax
	movq	%rdi, -8(%rbp)
Ltmp272:
	.loc	2 118 37 prologue_end
	movl	(%rdi), %eax
	movl	4(%rdi), %edx
	.loc	2 118 44 is_stmt 0
	addq	$8, %rsp
	popq	%rbp
	retq
Ltmp273:
Lfunc_end136:
	.cfi_endproc

	.globl	__ZN86_$LT$libc..unix..bsd..apple..processor_set_load_info$u20$as$u20$core..clone..Clone$GT$5clone17hf67aea03c2b7c2ffE
	.p2align	4, 0x90
__ZN86_$LT$libc..unix..bsd..apple..processor_set_load_info$u20$as$u20$core..clone..Clone$GT$5clone17hf67aea03c2b7c2ffE:
Lfunc_begin137:
	.loc	2 118 0 is_stmt 1
	.cfi_startproc
	pushq	%rbp
	.cfi_def_cfa_offset 16
	.cfi_offset %rbp, -16
	movq	%rsp, %rbp
	.cfi_def_cfa_register %rbp
	pushq	%rax
	movq	%rdi, %rax
	movq	%rsi, -8(%rbp)
Ltmp274:
	.loc	2 118 37 prologue_end
	movq	(%rsi), %rcx
	movq	%rcx, (%rdi)
	movq	8(%rsi), %rcx
	movq	%rcx, 8(%rdi)
	.loc	2 118 44 is_stmt 0
	addq	$8, %rsp
	popq	%rbp
	retq
Ltmp275:
Lfunc_end137:
	.cfi_endproc

	.globl	__ZN75_$LT$libc..unix..bsd..apple..time_value_t$u20$as$u20$core..clone..Clone$GT$5clone17hf0dba5274fd7e7aaE
	.p2align	4, 0x90
__ZN75_$LT$libc..unix..bsd..apple..time_value_t$u20$as$u20$core..clone..Clone$GT$5clone17hf0dba5274fd7e7aaE:
Lfunc_begin138:
	.loc	2 118 0 is_stmt 1
	.cfi_startproc
	pushq	%rbp
	.cfi_def_cfa_offset 16
	.cfi_offset %rbp, -16
	movq	%rsp, %rbp
	.cfi_def_cfa_register %rbp
	pushq	%rax
	movq	%rdi, -8(%rbp)
Ltmp276:
	.loc	2 118 37 prologue_end
	movl	(%rdi), %eax
	movl	4(%rdi), %edx
	.loc	2 118 44 is_stmt 0
	addq	$8, %rsp
	popq	%rbp
	retq
Ltmp277:
Lfunc_end138:
	.cfi_endproc

	.globl	__ZN80_$LT$libc..unix..bsd..apple..thread_basic_info$u20$as$u20$core..clone..Clone$GT$5clone17he44752fd1d4fbc25E
	.p2align	4, 0x90
__ZN80_$LT$libc..unix..bsd..apple..thread_basic_info$u20$as$u20$core..clone..Clone$GT$5clone17he44752fd1d4fbc25E:
Lfunc_begin139:
	.loc	2 118 0 is_stmt 1
	.cfi_startproc
	pushq	%rbp
	.cfi_def_cfa_offset 16
	.cfi_offset %rbp, -16
	movq	%rsp, %rbp
	.cfi_def_cfa_register %rbp
	subq	$16, %rsp
	movq	%rdi, %rax
	movq	%rax, -16(%rbp)
	movq	%rsi, -8(%rbp)
Ltmp278:
	.loc	2 118 37 prologue_end
	movl	$40, %edx
	callq	_memcpy
	movq	-16(%rbp), %rax
	.loc	2 118 44 is_stmt 0
	addq	$16, %rsp
	popq	%rbp
	retq
Ltmp279:
Lfunc_end139:
	.cfi_endproc

	.globl	__ZN85_$LT$libc..unix..bsd..apple..thread_identifier_info$u20$as$u20$core..clone..Clone$GT$5clone17hbe61cadd3b734c0eE
	.p2align	4, 0x90
__ZN85_$LT$libc..unix..bsd..apple..thread_identifier_info$u20$as$u20$core..clone..Clone$GT$5clone17hbe61cadd3b734c0eE:
Lfunc_begin140:
	.loc	2 118 0 is_stmt 1
	.cfi_startproc
	pushq	%rbp
	.cfi_def_cfa_offset 16
	.cfi_offset %rbp, -16
	movq	%rsp, %rbp
	.cfi_def_cfa_register %rbp
	pushq	%rax
	movq	%rdi, %rax
	movq	%rsi, -8(%rbp)
Ltmp280:
	.loc	2 118 37 prologue_end
	movq	(%rsi), %rcx
	movq	%rcx, (%rdi)
	movq	8(%rsi), %rcx
	movq	%rcx, 8(%rdi)
	movq	16(%rsi), %rcx
	movq	%rcx, 16(%rdi)
	.loc	2 118 44 is_stmt 0
	addq	$8, %rsp
	popq	%rbp
	retq
Ltmp281:
Lfunc_end140:
	.cfi_endproc

	.globl	__ZN83_$LT$libc..unix..bsd..apple..thread_extended_info$u20$as$u20$core..clone..Clone$GT$5clone17h901c07e85f0f1a34E
	.p2align	4, 0x90
__ZN83_$LT$libc..unix..bsd..apple..thread_extended_info$u20$as$u20$core..clone..Clone$GT$5clone17h901c07e85f0f1a34E:
Lfunc_begin141:
	.loc	2 118 0 is_stmt 1
	.cfi_startproc
	pushq	%rbp
	.cfi_def_cfa_offset 16
	.cfi_offset %rbp, -16
	movq	%rsp, %rbp
	.cfi_def_cfa_register %rbp
	subq	$16, %rsp
	movq	%rdi, %rax
	movq	%rax, -16(%rbp)
	movq	%rsi, -8(%rbp)
Ltmp282:
	.loc	2 118 37 prologue_end
	movl	$112, %edx
	callq	_memcpy
	movq	-16(%rbp), %rax
	.loc	2 118 44 is_stmt 0
	addq	$16, %rsp
	popq	%rbp
	retq
Ltmp283:
Lfunc_end141:
	.cfi_endproc

	.globl	__ZN72_$LT$libc..unix..bsd..apple..if_data64$u20$as$u20$core..clone..Clone$GT$5clone17h99037af3431bfedcE
	.p2align	4, 0x90
__ZN72_$LT$libc..unix..bsd..apple..if_data64$u20$as$u20$core..clone..Clone$GT$5clone17h99037af3431bfedcE:
Lfunc_begin142:
	.loc	2 118 0 is_stmt 1
	.cfi_startproc
	pushq	%rbp
	.cfi_def_cfa_offset 16
	.cfi_offset %rbp, -16
	movq	%rsp, %rbp
	.cfi_def_cfa_register %rbp
	subq	$16, %rsp
	movq	%rdi, %rax
	movq	%rax, -16(%rbp)
	movq	%rsi, -8(%rbp)
Ltmp284:
	.loc	2 118 37 prologue_end
	movl	$128, %edx
	callq	_memcpy
	movq	-16(%rbp), %rax
	.loc	2 118 44 is_stmt 0
	addq	$16, %rsp
	popq	%rbp
	retq
Ltmp285:
Lfunc_end142:
	.cfi_endproc

	.globl	__ZN73_$LT$libc..unix..bsd..apple..if_msghdr2$u20$as$u20$core..clone..Clone$GT$5clone17hd51255395711573eE
	.p2align	4, 0x90
__ZN73_$LT$libc..unix..bsd..apple..if_msghdr2$u20$as$u20$core..clone..Clone$GT$5clone17hd51255395711573eE:
Lfunc_begin143:
	.loc	2 118 0 is_stmt 1
	.cfi_startproc
	pushq	%rbp
	.cfi_def_cfa_offset 16
	.cfi_offset %rbp, -16
	movq	%rsp, %rbp
	.cfi_def_cfa_register %rbp
	subq	$16, %rsp
	movq	%rdi, %rax
	movq	%rax, -16(%rbp)
	movq	%rsi, -8(%rbp)
Ltmp286:
	.loc	2 118 37 prologue_end
	movl	$160, %edx
	callq	_memcpy
	movq	-16(%rbp), %rax
	.loc	2 118 44 is_stmt 0
	addq	$16, %rsp
	popq	%rbp
	retq
Ltmp287:
Lfunc_end143:
	.cfi_endproc

	.globl	__ZN78_$LT$libc..unix..bsd..apple..vm_statistics64$u20$as$u20$core..clone..Clone$GT$5clone17ha59fcf2045c9da7bE
	.p2align	4, 0x90
__ZN78_$LT$libc..unix..bsd..apple..vm_statistics64$u20$as$u20$core..clone..Clone$GT$5clone17ha59fcf2045c9da7bE:
Lfunc_begin144:
	.loc	2 118 0 is_stmt 1
	.cfi_startproc
	pushq	%rbp
	.cfi_def_cfa_offset 16
	.cfi_offset %rbp, -16
	movq	%rsp, %rbp
	.cfi_def_cfa_register %rbp
	subq	$16, %rsp
	movq	%rdi, %rax
	movq	%rax, -16(%rbp)
	movq	%rsi, -8(%rbp)
Ltmp288:
	.loc	2 118 37 prologue_end
	movl	$152, %edx
	callq	_memcpy
	movq	-16(%rbp), %rax
	.loc	2 118 44 is_stmt 0
	addq	$16, %rsp
	popq	%rbp
	retq
Ltmp289:
Lfunc_end144:
	.cfi_endproc

	.globl	__ZN83_$LT$libc..unix..bsd..apple..mach_task_basic_info$u20$as$u20$core..clone..Clone$GT$5clone17h48e7d144eda5090dE
	.p2align	4, 0x90
__ZN83_$LT$libc..unix..bsd..apple..mach_task_basic_info$u20$as$u20$core..clone..Clone$GT$5clone17h48e7d144eda5090dE:
Lfunc_begin145:
	.loc	2 118 0 is_stmt 1
	.cfi_startproc
	pushq	%rbp
	.cfi_def_cfa_offset 16
	.cfi_offset %rbp, -16
	movq	%rsp, %rbp
	.cfi_def_cfa_register %rbp
	subq	$16, %rsp
	movq	%rdi, %rax
	movq	%rax, -16(%rbp)
	movq	%rsi, -8(%rbp)
Ltmp290:
	.loc	2 118 37 prologue_end
	movl	$48, %edx
	callq	_memcpy
	movq	-16(%rbp), %rax
	.loc	2 118 44 is_stmt 0
	addq	$16, %rsp
	popq	%rbp
	retq
Ltmp291:
Lfunc_end145:
	.cfi_endproc

	.globl	__ZN71_$LT$libc..unix..bsd..apple..log2phys$u20$as$u20$core..clone..Clone$GT$5clone17hf1911e96cfd0cde1E
	.p2align	4, 0x90
__ZN71_$LT$libc..unix..bsd..apple..log2phys$u20$as$u20$core..clone..Clone$GT$5clone17hf1911e96cfd0cde1E:
Lfunc_begin146:
	.loc	2 118 0 is_stmt 1
	.cfi_startproc
	pushq	%rbp
	.cfi_def_cfa_offset 16
	.cfi_offset %rbp, -16
	movq	%rsp, %rbp
	.cfi_def_cfa_register %rbp
	pushq	%rax
	movq	%rdi, %rax
	movq	%rsi, -8(%rbp)
Ltmp292:
	.loc	2 118 37 prologue_end
	movq	(%rsi), %rcx
	movq	%rcx, (%rdi)
	movq	8(%rsi), %rcx
	movq	%rcx, 8(%rdi)
	movl	16(%rsi), %ecx
	movl	%ecx, 16(%rdi)
	.loc	2 118 44 is_stmt 0
	addq	$8, %rsp
	popq	%rbp
	retq
Ltmp293:
Lfunc_end146:
	.cfi_endproc

	.globl	__ZN79_$LT$libc..unix..bsd..apple..os_unfair_lock_s$u20$as$u20$core..clone..Clone$GT$5clone17he99e367b175b60a8E
	.p2align	4, 0x90
__ZN79_$LT$libc..unix..bsd..apple..os_unfair_lock_s$u20$as$u20$core..clone..Clone$GT$5clone17he99e367b175b60a8E:
Lfunc_begin147:
	.loc	2 118 0 is_stmt 1
	.cfi_startproc
	pushq	%rbp
	.cfi_def_cfa_offset 16
	.cfi_offset %rbp, -16
	movq	%rsp, %rbp
	.cfi_def_cfa_register %rbp
	subq	$16, %rsp
	movq	%rdi, -8(%rbp)
Ltmp294:
	.loc	2 118 37 prologue_end
	movl	(%rdi), %eax
	movl	%eax, -16(%rbp)
	.loc	2 118 44 is_stmt 0
	movl	-16(%rbp), %eax
	addq	$16, %rsp
	popq	%rbp
	retq
Ltmp295:
Lfunc_end147:
	.cfi_endproc

	.globl	__ZN68_$LT$libc..unix..bsd..apple..semun$u20$as$u20$core..clone..Clone$GT$5clone17h98f65f9c18dd5a81E
	.p2align	4, 0x90
__ZN68_$LT$libc..unix..bsd..apple..semun$u20$as$u20$core..clone..Clone$GT$5clone17h98f65f9c18dd5a81E:
Lfunc_begin148:
	.loc	2 103 0 is_stmt 1
	.cfi_startproc
	pushq	%rbp
	.cfi_def_cfa_offset 16
	.cfi_offset %rbp, -16
	movq	%rsp, %rbp
	.cfi_def_cfa_register %rbp
	subq	$16, %rsp
	movq	%rdi, -8(%rbp)
Ltmp296:
	.loc	2 103 45 prologue_end
	movq	(%rdi), %rax
	movq	%rax, -16(%rbp)
	.loc	2 103 52 is_stmt 0
	movq	-16(%rbp), %rax
	addq	$16, %rsp
	popq	%rbp
	retq
Ltmp297:
Lfunc_end148:
	.cfi_endproc

	.globl	__ZN4libc4unix3bsd5apple16__DARWIN_ALIGN3217h0c2249cee358fc57E
	.p2align	4, 0x90
__ZN4libc4unix3bsd5apple16__DARWIN_ALIGN3217h0c2249cee358fc57E:
Lfunc_begin149:
	.loc	3 4919 0 is_stmt 1
	.cfi_startproc
	pushq	%rbp
	.cfi_def_cfa_offset 16
	.cfi_offset %rbp, -16
	movq	%rsp, %rbp
	.cfi_def_cfa_register %rbp
	subq	$16, %rsp
	movq	%rdi, -8(%rbp)
Ltmp298:
	.loc	3 4921 13 prologue_end
	addq	$3, %rdi
	movq	%rdi, -16(%rbp)
	setb	%al
	testb	$1, %al
	jne	LBB149_2
	.loc	3 0 13 is_stmt 0
	movq	-16(%rbp), %rax
	.loc	3 4921 13
	andq	$-4, %rax
	.loc	3 4922 10 is_stmt 1
	addq	$16, %rsp
	popq	%rbp
	retq
LBB149_2:
	.loc	3 4921 13
	leaq	_str.0(%rip), %rdi
	leaq	l___unnamed_1(%rip), %rdx
	movl	$28, %esi
	callq	__ZN4core9panicking5panic17hc1bc45270cf64b03E
Ltmp299:
Lfunc_end149:
	.cfi_endproc

	.globl	__ZN77_$LT$libc..unix..bsd..apple..b64..timeval32$u20$as$u20$core..clone..Clone$GT$5clone17hc3ac0db963cd00daE
	.p2align	4, 0x90
__ZN77_$LT$libc..unix..bsd..apple..b64..timeval32$u20$as$u20$core..clone..Clone$GT$5clone17hc3ac0db963cd00daE:
Lfunc_begin150:
	.loc	2 83 0
	.cfi_startproc
	pushq	%rbp
	.cfi_def_cfa_offset 16
	.cfi_offset %rbp, -16
	movq	%rsp, %rbp
	.cfi_def_cfa_register %rbp
	pushq	%rax
	movq	%rdi, -8(%rbp)
Ltmp300:
	.loc	2 83 37 prologue_end
	movl	(%rdi), %eax
	movl	4(%rdi), %edx
	.loc	2 83 44 is_stmt 0
	addq	$8, %rsp
	popq	%rbp
	retq
Ltmp301:
Lfunc_end150:
	.cfi_endproc

	.globl	__ZN75_$LT$libc..unix..bsd..apple..b64..if_data$u20$as$u20$core..clone..Clone$GT$5clone17h76cc55335f5bce02E
	.p2align	4, 0x90
__ZN75_$LT$libc..unix..bsd..apple..b64..if_data$u20$as$u20$core..clone..Clone$GT$5clone17h76cc55335f5bce02E:
Lfunc_begin151:
	.loc	2 83 0 is_stmt 1
	.cfi_startproc
	pushq	%rbp
	.cfi_def_cfa_offset 16
	.cfi_offset %rbp, -16
	movq	%rsp, %rbp
	.cfi_def_cfa_register %rbp
	subq	$16, %rsp
	movq	%rdi, %rax
	movq	%rax, -16(%rbp)
	movq	%rsi, -8(%rbp)
Ltmp302:
	.loc	2 83 37 prologue_end
	movl	$96, %edx
	callq	_memcpy
	movq	-16(%rbp), %rax
	.loc	2 83 44 is_stmt 0
	addq	$16, %rsp
	popq	%rbp
	retq
Ltmp303:
Lfunc_end151:
	.cfi_endproc

	.globl	__ZN75_$LT$libc..unix..bsd..apple..b64..bpf_hdr$u20$as$u20$core..clone..Clone$GT$5clone17h4563d5b87c1c30a2E
	.p2align	4, 0x90
__ZN75_$LT$libc..unix..bsd..apple..b64..bpf_hdr$u20$as$u20$core..clone..Clone$GT$5clone17h4563d5b87c1c30a2E:
Lfunc_begin152:
	.loc	2 83 0 is_stmt 1
	.cfi_startproc
	pushq	%rbp
	.cfi_def_cfa_offset 16
	.cfi_offset %rbp, -16
	movq	%rsp, %rbp
	.cfi_def_cfa_register %rbp
	pushq	%rax
	movq	%rdi, %rax
	movq	%rsi, -8(%rbp)
Ltmp304:
	.loc	2 83 37 prologue_end
	movq	(%rsi), %rcx
	movq	%rcx, (%rdi)
	movq	8(%rsi), %rcx
	movq	%rcx, 8(%rdi)
	movl	16(%rsi), %ecx
	movl	%ecx, 16(%rdi)
	.loc	2 83 44 is_stmt 0
	addq	$8, %rsp
	popq	%rbp
	retq
Ltmp305:
Lfunc_end152:
	.cfi_endproc

	.globl	__ZN82_$LT$libc..unix..bsd..apple..b64..pthread_attr_t$u20$as$u20$core..clone..Clone$GT$5clone17h7be2cee587f6a2c6E
	.p2align	4, 0x90
__ZN82_$LT$libc..unix..bsd..apple..b64..pthread_attr_t$u20$as$u20$core..clone..Clone$GT$5clone17h7be2cee587f6a2c6E:
Lfunc_begin153:
	.loc	2 118 0 is_stmt 1
	.cfi_startproc
	pushq	%rbp
	.cfi_def_cfa_offset 16
	.cfi_offset %rbp, -16
	movq	%rsp, %rbp
	.cfi_def_cfa_register %rbp
	subq	$16, %rsp
	movq	%rdi, %rax
	movq	%rax, -16(%rbp)
	movq	%rsi, -8(%rbp)
Ltmp306:
	.loc	2 118 37 prologue_end
	movl	$64, %edx
	callq	_memcpy
	movq	-16(%rbp), %rax
	.loc	2 118 44 is_stmt 0
	addq	$16, %rsp
	popq	%rbp
	retq
Ltmp307:
Lfunc_end153:
	.cfi_endproc

	.globl	__ZN86_$LT$libc..unix..bsd..apple..b64..x86_64..ucontext_t$u20$as$u20$core..clone..Clone$GT$5clone17h84f41c063f79bb95E
	.p2align	4, 0x90
__ZN86_$LT$libc..unix..bsd..apple..b64..x86_64..ucontext_t$u20$as$u20$core..clone..Clone$GT$5clone17h84f41c063f79bb95E:
Lfunc_begin154:
	.loc	2 83 0 is_stmt 1
	.cfi_startproc
	pushq	%rbp
	.cfi_def_cfa_offset 16
	.cfi_offset %rbp, -16
	movq	%rsp, %rbp
	.cfi_def_cfa_register %rbp
	subq	$16, %rsp
	movq	%rdi, %rax
	movq	%rax, -16(%rbp)
	movq	%rsi, -8(%rbp)
Ltmp308:
	.loc	2 83 37 prologue_end
	movl	$56, %edx
	callq	_memcpy
	movq	-16(%rbp), %rax
	.loc	2 83 44 is_stmt 0
	addq	$16, %rsp
	popq	%rbp
	retq
Ltmp309:
Lfunc_end154:
	.cfi_endproc

	.globl	__ZN95_$LT$libc..unix..bsd..apple..b64..x86_64..__darwin_mcontext64$u20$as$u20$core..clone..Clone$GT$5clone17hd4b538dcc641a132E
	.p2align	4, 0x90
__ZN95_$LT$libc..unix..bsd..apple..b64..x86_64..__darwin_mcontext64$u20$as$u20$core..clone..Clone$GT$5clone17hd4b538dcc641a132E:
Lfunc_begin155:
	.loc	2 83 0 is_stmt 1
	.cfi_startproc
	pushq	%rbp
	.cfi_def_cfa_offset 16
	.cfi_offset %rbp, -16
	movq	%rsp, %rbp
	.cfi_def_cfa_register %rbp
	subq	$16, %rsp
	movq	%rdi, %rax
	movq	%rax, -16(%rbp)
	movq	%rsi, -8(%rbp)
Ltmp310:
	.loc	2 83 37 prologue_end
	movl	$712, %edx
	callq	_memcpy
	movq	-16(%rbp), %rax
	.loc	2 83 44 is_stmt 0
	addq	$16, %rsp
	popq	%rbp
	retq
Ltmp311:
Lfunc_end155:
	.cfi_endproc

	.globl	__ZN106_$LT$libc..unix..bsd..apple..b64..x86_64..__darwin_x86_exception_state64$u20$as$u20$core..clone..Clone$GT$5clone17hd6a55b723e2e00c4E
	.p2align	4, 0x90
__ZN106_$LT$libc..unix..bsd..apple..b64..x86_64..__darwin_x86_exception_state64$u20$as$u20$core..clone..Clone$GT$5clone17hd6a55b723e2e00c4E:
Lfunc_begin156:
	.loc	2 83 0 is_stmt 1
	.cfi_startproc
	pushq	%rbp
	.cfi_def_cfa_offset 16
	.cfi_offset %rbp, -16
	movq	%rsp, %rbp
	.cfi_def_cfa_register %rbp
	pushq	%rax
	movq	%rdi, %rax
	movq	%rsi, -8(%rbp)
Ltmp312:
	.loc	2 83 37 prologue_end
	movq	(%rsi), %rcx
	movq	%rcx, (%rdi)
	movq	8(%rsi), %rcx
	movq	%rcx, 8(%rdi)
	.loc	2 83 44 is_stmt 0
	addq	$8, %rsp
	popq	%rbp
	retq
Ltmp313:
Lfunc_end156:
	.cfi_endproc

	.globl	__ZN103_$LT$libc..unix..bsd..apple..b64..x86_64..__darwin_x86_thread_state64$u20$as$u20$core..clone..Clone$GT$5clone17hcec0e747b07641ddE
	.p2align	4, 0x90
__ZN103_$LT$libc..unix..bsd..apple..b64..x86_64..__darwin_x86_thread_state64$u20$as$u20$core..clone..Clone$GT$5clone17hcec0e747b07641ddE:
Lfunc_begin157:
	.loc	2 83 0 is_stmt 1
	.cfi_startproc
	pushq	%rbp
	.cfi_def_cfa_offset 16
	.cfi_offset %rbp, -16
	movq	%rsp, %rbp
	.cfi_def_cfa_register %rbp
	subq	$16, %rsp
	movq	%rdi, %rax
	movq	%rax, -16(%rbp)
	movq	%rsi, -8(%rbp)
Ltmp314:
	.loc	2 83 37 prologue_end
	movl	$168, %edx
	callq	_memcpy
	movq	-16(%rbp), %rax
	.loc	2 83 44 is_stmt 0
	addq	$16, %rsp
	popq	%rbp
	retq
Ltmp315:
Lfunc_end157:
	.cfi_endproc

	.globl	__ZN102_$LT$libc..unix..bsd..apple..b64..x86_64..__darwin_x86_float_state64$u20$as$u20$core..clone..Clone$GT$5clone17h999b78a49ea08246E
	.p2align	4, 0x90
__ZN102_$LT$libc..unix..bsd..apple..b64..x86_64..__darwin_x86_float_state64$u20$as$u20$core..clone..Clone$GT$5clone17h999b78a49ea08246E:
Lfunc_begin158:
	.loc	2 83 0 is_stmt 1
	.cfi_startproc
	pushq	%rbp
	.cfi_def_cfa_offset 16
	.cfi_offset %rbp, -16
	movq	%rsp, %rbp
	.cfi_def_cfa_register %rbp
	subq	$16, %rsp
	movq	%rdi, %rax
	movq	%rax, -16(%rbp)
	movq	%rsi, -8(%rbp)
Ltmp316:
	.loc	2 83 37 prologue_end
	movl	$524, %edx
	callq	_memcpy
	movq	-16(%rbp), %rax
	.loc	2 83 44 is_stmt 0
	addq	$16, %rsp
	popq	%rbp
	retq
Ltmp317:
Lfunc_end158:
	.cfi_endproc

	.globl	__ZN93_$LT$libc..unix..bsd..apple..b64..x86_64..__darwin_mmst_reg$u20$as$u20$core..clone..Clone$GT$5clone17hdb1660b18b2c167eE
	.p2align	4, 0x90
__ZN93_$LT$libc..unix..bsd..apple..b64..x86_64..__darwin_mmst_reg$u20$as$u20$core..clone..Clone$GT$5clone17hdb1660b18b2c167eE:
Lfunc_begin159:
	.loc	2 83 0 is_stmt 1
	.cfi_startproc
	pushq	%rbp
	.cfi_def_cfa_offset 16
	.cfi_offset %rbp, -16
	movq	%rsp, %rbp
	.cfi_def_cfa_register %rbp
	pushq	%rax
	movq	%rdi, %rax
	movq	%rsi, -8(%rbp)
Ltmp318:
	.loc	2 83 37 prologue_end
	movq	(%rsi), %rcx
	movq	%rcx, (%rdi)
	movq	8(%rsi), %rcx
	movq	%rcx, 8(%rdi)
	.loc	2 83 44 is_stmt 0
	addq	$8, %rsp
	popq	%rbp
	retq
Ltmp319:
Lfunc_end159:
	.cfi_endproc

	.globl	__ZN92_$LT$libc..unix..bsd..apple..b64..x86_64..__darwin_xmm_reg$u20$as$u20$core..clone..Clone$GT$5clone17h1ec794991d49e49eE
	.p2align	4, 0x90
__ZN92_$LT$libc..unix..bsd..apple..b64..x86_64..__darwin_xmm_reg$u20$as$u20$core..clone..Clone$GT$5clone17h1ec794991d49e49eE:
Lfunc_begin160:
	.loc	2 83 0 is_stmt 1
	.cfi_startproc
	pushq	%rbp
	.cfi_def_cfa_offset 16
	.cfi_offset %rbp, -16
	movq	%rsp, %rbp
	.cfi_def_cfa_register %rbp
	pushq	%rax
	movq	%rdi, %rax
	movq	%rsi, -8(%rbp)
Ltmp320:
	.loc	2 83 37 prologue_end
	movq	(%rsi), %rcx
	movq	%rcx, (%rdi)
	movq	8(%rsi), %rcx
	movq	%rcx, 8(%rdi)
	.loc	2 83 44 is_stmt 0
	addq	$8, %rsp
	popq	%rbp
	retq
Ltmp321:
Lfunc_end160:
	.cfi_endproc

	.globl	__ZN98_$LT$libc..unix..bsd..apple..b64..x86_64..malloc_introspection_t$u20$as$u20$core..clone..Clone$GT$5clone17hcc101246754bd6feE
	.p2align	4, 0x90
__ZN98_$LT$libc..unix..bsd..apple..b64..x86_64..malloc_introspection_t$u20$as$u20$core..clone..Clone$GT$5clone17hcc101246754bd6feE:
Lfunc_begin161:
	.loc	2 83 0 is_stmt 1
	.cfi_startproc
	pushq	%rbp
	.cfi_def_cfa_offset 16
	.cfi_offset %rbp, -16
	movq	%rsp, %rbp
	.cfi_def_cfa_register %rbp
	subq	$16, %rsp
	movq	%rdi, %rax
	movq	%rax, -16(%rbp)
	movq	%rsi, -8(%rbp)
Ltmp322:
	.loc	2 83 37 prologue_end
	movl	$128, %edx
	callq	_memcpy
	movq	-16(%rbp), %rax
	.loc	2 83 44 is_stmt 0
	addq	$16, %rsp
	popq	%rbp
	retq
Ltmp323:
Lfunc_end161:
	.cfi_endproc

	.globl	__ZN89_$LT$libc..unix..bsd..apple..b64..x86_64..malloc_zone_t$u20$as$u20$core..clone..Clone$GT$5clone17h5048989f4a3ef10bE
	.p2align	4, 0x90
__ZN89_$LT$libc..unix..bsd..apple..b64..x86_64..malloc_zone_t$u20$as$u20$core..clone..Clone$GT$5clone17h5048989f4a3ef10bE:
Lfunc_begin162:
	.loc	2 83 0 is_stmt 1
	.cfi_startproc
	pushq	%rbp
	.cfi_def_cfa_offset 16
	.cfi_offset %rbp, -16
	movq	%rsp, %rbp
	.cfi_def_cfa_register %rbp
	subq	$16, %rsp
	movq	%rdi, %rax
	movq	%rax, -16(%rbp)
	movq	%rsi, -8(%rbp)
Ltmp324:
	.loc	2 83 37 prologue_end
	movl	$144, %edx
	callq	_memcpy
	movq	-16(%rbp), %rax
	.loc	2 83 44 is_stmt 0
	addq	$16, %rsp
	popq	%rbp
	retq
Ltmp325:
Lfunc_end162:
	.cfi_endproc

	.globl	__ZN94_$LT$libc..unix..bsd..apple..b64..x86_64..align..max_align_t$u20$as$u20$core..clone..Clone$GT$5clone17h77df7a115ded46bfE
	.p2align	4, 0x90
__ZN94_$LT$libc..unix..bsd..apple..b64..x86_64..align..max_align_t$u20$as$u20$core..clone..Clone$GT$5clone17h77df7a115ded46bfE:
Lfunc_begin163:
	.loc	2 118 0 is_stmt 1
	.cfi_startproc
	pushq	%rbp
	.cfi_def_cfa_offset 16
	.cfi_offset %rbp, -16
	movq	%rsp, %rbp
	.cfi_def_cfa_register %rbp
	pushq	%rax
	movq	%rdi, %rax
	movq	%rsi, -8(%rbp)
Ltmp326:
	.loc	2 118 37 prologue_end
	movq	(%rsi), %rcx
	movq	%rcx, (%rdi)
	movq	8(%rsi), %rcx
	movq	%rcx, 8(%rdi)
	.loc	2 118 44 is_stmt 0
	addq	$8, %rsp
	popq	%rbp
	retq
Ltmp327:
Lfunc_end163:
	.cfi_endproc

	.globl	__ZN66_$LT$libc..unix..align..in6_addr$u20$as$u20$core..clone..Clone$GT$5clone17h0eb57d4070fa6891E
	.p2align	4, 0x90
__ZN66_$LT$libc..unix..align..in6_addr$u20$as$u20$core..clone..Clone$GT$5clone17h0eb57d4070fa6891E:
Lfunc_begin164:
	.loc	2 83 0 is_stmt 1
	.cfi_startproc
	pushq	%rbp
	.cfi_def_cfa_offset 16
	.cfi_offset %rbp, -16
	movq	%rsp, %rbp
	.cfi_def_cfa_register %rbp
	pushq	%rax
	movq	%rdi, %rax
	movq	%rsi, -8(%rbp)
Ltmp328:
	.loc	2 83 37 prologue_end
	movq	(%rsi), %rcx
	movq	%rcx, (%rdi)
	movq	8(%rsi), %rcx
	movq	%rcx, 8(%rdi)
	.loc	2 83 44 is_stmt 0
	addq	$8, %rsp
	popq	%rbp
	retq
Ltmp329:
Lfunc_end164:
	.cfi_endproc

	.section	__TEXT,__const
l___unnamed_2:
	.ascii	"/Users/natalie/.cargo/registry/src/github.com-1ecc6299db9ec823/libc-0.2.137/src/unix/bsd/apple/mod.rs"

	.section	__DATA,__const
	.p2align	3
l___unnamed_1:
	.quad	l___unnamed_2
	.asciz	"e\000\000\000\000\000\000\0009\023\000\000\r\000\000"

	.section	__TEXT,__const
	.p2align	4
_str.0:
	.ascii	"attempt to add with overflow"

	.section	__TEXT,__text,regular,pure_instructions
Lsec_end0: