	.section	__TEXT,__text,regular,pure_instructions
	.macosx_version_min 10, 7
	.globl	__ZN132_$LT$$LT$lock_api..mutex..Mutex$LT$R$C$T$GT$$u20$as$u20$core..fmt..Debug$GT$..fmt..LockedPlaceholder$u20$as$u20$core..fmt..Debug$GT$3fmt17h43eff7475932b58eE
	.p2align	4, 0x90
__ZN132_$LT$$LT$lock_api..mutex..Mutex$LT$R$C$T$GT$$u20$as$u20$core..fmt..Debug$GT$..fmt..LockedPlaceholder$u20$as$u20$core..fmt..Debug$GT$3fmt17h43eff7475932b58eE:
Lfunc_begin0:
	.file	1 "/Users/natalie/.cargo/registry/src/github.com-1ecc6299db9ec823/lock_api-0.4.9" "src/mutex.rs"
	.loc	1 441 0
	.cfi_startproc
	pushq	%rbp
	.cfi_def_cfa_offset 16
	.cfi_offset %rbp, -16
	movq	%rsp, %rbp
	.cfi_def_cfa_register %rbp
	subq	$32, %rsp
	movq	%rsi, -24(%rbp)
	movq	%rdi, %rax
	movq	-24(%rbp), %rdi
	movq	%rax, -16(%rbp)
	movq	%rdi, -8(%rbp)
Ltmp0:
	.loc	1 442 25 prologue_end
	leaq	L___unnamed_1(%rip), %rsi
	movl	$8, %edx
	callq	__ZN4core3fmt9Formatter9write_str17hb029d9999327a35fE
	.loc	1 443 22
	andb	$1, %al
	movzbl	%al, %eax
	addq	$32, %rsp
	popq	%rbp
	retq
Ltmp1:
Lfunc_end0:
	.cfi_endproc

	.globl	__ZN147_$LT$$LT$lock_api..remutex..ReentrantMutex$LT$R$C$G$C$T$GT$$u20$as$u20$core..fmt..Debug$GT$..fmt..LockedPlaceholder$u20$as$u20$core..fmt..Debug$GT$3fmt17hc1cba0aa977840ddE
	.p2align	4, 0x90
__ZN147_$LT$$LT$lock_api..remutex..ReentrantMutex$LT$R$C$G$C$T$GT$$u20$as$u20$core..fmt..Debug$GT$..fmt..LockedPlaceholder$u20$as$u20$core..fmt..Debug$GT$3fmt17hc1cba0aa977840ddE:
Lfunc_begin1:
	.file	2 "/Users/natalie/.cargo/registry/src/github.com-1ecc6299db9ec823/lock_api-0.4.9" "src/remutex.rs"
	.loc	2 553 0
	.cfi_startproc
	pushq	%rbp
	.cfi_def_cfa_offset 16
	.cfi_offset %rbp, -16
	movq	%rsp, %rbp
	.cfi_def_cfa_register %rbp
	subq	$32, %rsp
	movq	%rsi, -24(%rbp)
	movq	%rdi, %rax
	movq	-24(%rbp), %rdi
	movq	%rax, -16(%rbp)
	movq	%rdi, -8(%rbp)
Ltmp2:
	.loc	2 554 25 prologue_end
	leaq	L___unnamed_1(%rip), %rsi
	movl	$8, %edx
	callq	__ZN4core3fmt9Formatter9write_str17hb029d9999327a35fE
	.loc	2 555 22
	andb	$1, %al
	movzbl	%al, %eax
	addq	$32, %rsp
	popq	%rbp
	retq
Ltmp3:
Lfunc_end1:
	.cfi_endproc

	.globl	__ZN134_$LT$$LT$lock_api..rwlock..RwLock$LT$R$C$T$GT$$u20$as$u20$core..fmt..Debug$GT$..fmt..LockedPlaceholder$u20$as$u20$core..fmt..Debug$GT$3fmt17h76b41fe1e675877eE
	.p2align	4, 0x90
__ZN134_$LT$$LT$lock_api..rwlock..RwLock$LT$R$C$T$GT$$u20$as$u20$core..fmt..Debug$GT$..fmt..LockedPlaceholder$u20$as$u20$core..fmt..Debug$GT$3fmt17h76b41fe1e675877eE:
Lfunc_begin2:
	.file	3 "/Users/natalie/.cargo/registry/src/github.com-1ecc6299db9ec823/lock_api-0.4.9" "src/rwlock.rs"
	.loc	3 1170 0
	.cfi_startproc
	pushq	%rbp
	.cfi_def_cfa_offset 16
	.cfi_offset %rbp, -16
	movq	%rsp, %rbp
	.cfi_def_cfa_register %rbp
	subq	$32, %rsp
	movq	%rsi, -24(%rbp)
	movq	%rdi, %rax
	movq	-24(%rbp), %rdi
	movq	%rax, -16(%rbp)
	movq	%rdi, -8(%rbp)
Ltmp4:
	.loc	3 1171 25 prologue_end
	leaq	L___unnamed_1(%rip), %rsi
	movl	$8, %edx
	callq	__ZN4core3fmt9Formatter9write_str17hb029d9999327a35fE
	.loc	3 1172 22
	andb	$1, %al
	movzbl	%al, %eax
	addq	$32, %rsp
	popq	%rbp
	retq
Ltmp5:
Lfunc_end2:
	.cfi_endproc

	.section	__TEXT,__literal8,8byte_literals
L___unnamed_1:
	.ascii	"<locked>"

	.section	__TEXT,__text,regular,pure_instructions
Lsec_end0: