	.section	__TEXT,__text,regular,pure_instructions
	.macosx_version_min 10, 7
	.file	1 "/Users/natalie/.cargo/registry/src/github.com-1ecc6299db9ec823/log-0.4.17" "src/lib.rs"
	.globl	__ZN102_$LT$core..iter..adapters..map..Map$LT$I$C$F$GT$$u20$as$u20$core..iter..traits..iterator..Iterator$GT$4next17h67069d2470415306E
	.p2align	4, 0x90
__ZN102_$LT$core..iter..adapters..map..Map$LT$I$C$F$GT$$u20$as$u20$core..iter..traits..iterator..Iterator$GT$4next17h67069d2470415306E:
Lfunc_begin0:
	.file	2 "/rustc/2c8cc343237b8f7d5a3c3703e3a87f2eb2c54a74/library/core/src/iter/adapters" "map.rs"
	.loc	2 102 0
	.cfi_startproc
	pushq	%rbp
	.cfi_def_cfa_offset 16
	.cfi_offset %rbp, -16
	movq	%rsp, %rbp
	.cfi_def_cfa_register %rbp
	subq	$16, %rsp
	movq	%rdi, -16(%rbp)
	movq	%rdi, -8(%rbp)
Ltmp0:
	.loc	2 103 9 prologue_end
	callq	__ZN108_$LT$core..iter..adapters..filter..Filter$LT$I$C$P$GT$$u20$as$u20$core..iter..traits..iterator..Iterator$GT$4next17h77a01516ffdf12c7E
	movq	%rax, %rdi
	movq	%rdx, %rsi
	movq	-16(%rbp), %rdx
	callq	__ZN4core6option15Option$LT$T$GT$3map17h2de368ba1f5d2259E
	.loc	2 104 6
	addq	$16, %rsp
	popq	%rbp
	retq
Ltmp1:
Lfunc_end0:
	.cfi_endproc

	.globl	__ZN102_$LT$core..iter..adapters..zip..Zip$LT$A$C$B$GT$$u20$as$u20$core..iter..traits..iterator..Iterator$GT$4next17hfa419e7a4a456368E
	.p2align	4, 0x90
__ZN102_$LT$core..iter..adapters..zip..Zip$LT$A$C$B$GT$$u20$as$u20$core..iter..traits..iterator..Iterator$GT$4next17hfa419e7a4a456368E:
Lfunc_begin1:
	.file	3 "/rustc/2c8cc343237b8f7d5a3c3703e3a87f2eb2c54a74/library/core/src/iter/adapters" "zip.rs"
	.loc	3 83 0
	.cfi_startproc
	pushq	%rbp
	.cfi_def_cfa_offset 16
	.cfi_offset %rbp, -16
	movq	%rsp, %rbp
	.cfi_def_cfa_register %rbp
	subq	$32, %rsp
	movq	%rdi, -16(%rbp)
Ltmp2:
	.loc	3 84 9 prologue_end
	callq	__ZN111_$LT$core..iter..adapters..zip..Zip$LT$A$C$B$GT$$u20$as$u20$core..iter..adapters..zip..ZipImpl$LT$A$C$B$GT$$GT$4next17h97dd9e81c4450498E
	movw	%ax, %cx
	movw	%cx, -4(%rbp)
	shrl	$16, %eax
	movb	%al, -2(%rbp)
	movb	-2(%rbp), %al
	movb	%al, -22(%rbp)
	movw	-4(%rbp), %ax
	movw	%ax, -24(%rbp)
	.loc	3 85 6
	movzbl	-22(%rbp), %ecx
	shll	$16, %ecx
	movzwl	-24(%rbp), %eax
	orl	%ecx, %eax
	addq	$32, %rsp
	popq	%rbp
	retq
Ltmp3:
Lfunc_end1:
	.cfi_endproc

	.globl	__ZN104_$LT$core..iter..adapters..copied..Copied$LT$I$GT$$u20$as$u20$core..iter..traits..iterator..Iterator$GT$24__iterator_get_unchecked17he8f84ccd471cc64cE
	.p2align	4, 0x90
__ZN104_$LT$core..iter..adapters..copied..Copied$LT$I$GT$$u20$as$u20$core..iter..traits..iterator..Iterator$GT$24__iterator_get_unchecked17he8f84ccd471cc64cE:
Lfunc_begin2:
	.file	4 "/rustc/2c8cc343237b8f7d5a3c3703e3a87f2eb2c54a74/library/core/src/iter/adapters" "copied.rs"
	.loc	4 96 0
	.cfi_startproc
	pushq	%rbp
	.cfi_def_cfa_offset 16
	.cfi_offset %rbp, -16
	movq	%rsp, %rbp
	.cfi_def_cfa_register %rbp
	subq	$32, %rsp
	movq	%rdi, -32(%rbp)
	movq	%rsi, -24(%rbp)
Ltmp4:
	.loc	4 102 37 prologue_end
	movq	%rdi, -16(%rbp)
	.loc	4 102 51 is_stmt 0
	movq	%rsi, -8(%rbp)
Ltmp5:
	.loc	3 563 14 is_stmt 1
	callq	__ZN72_$LT$I$u20$as$u20$core..iter..adapters..zip..SpecTrustedRandomAccess$GT$17try_get_unchecked17h18263a29f315064cE
Ltmp6:
	.loc	4 102 9
	movb	(%rax), %al
	.loc	4 103 6
	addq	$32, %rsp
	popq	%rbp
	retq
Ltmp7:
Lfunc_end2:
	.cfi_endproc

	.globl	__ZN104_$LT$core..iter..adapters..copied..Copied$LT$I$GT$$u20$as$u20$core..iter..traits..iterator..Iterator$GT$9size_hint17hf27f8a1a8c9c68b9E
	.p2align	4, 0x90
__ZN104_$LT$core..iter..adapters..copied..Copied$LT$I$GT$$u20$as$u20$core..iter..traits..iterator..Iterator$GT$9size_hint17hf27f8a1a8c9c68b9E:
Lfunc_begin3:
	.loc	4 59 0
	.cfi_startproc
	pushq	%rbp
	.cfi_def_cfa_offset 16
	.cfi_offset %rbp, -16
	movq	%rsp, %rbp
	.cfi_def_cfa_register %rbp
	subq	$16, %rsp
	movq	%rdi, %rax
	movq	%rax, -16(%rbp)
	movq	%rsi, -8(%rbp)
Ltmp8:
	.loc	4 60 9 prologue_end
	callq	__ZN91_$LT$core..slice..iter..Iter$LT$T$GT$$u20$as$u20$core..iter..traits..iterator..Iterator$GT$9size_hint17h7a88ebf9688e2027E
	movq	-16(%rbp), %rax
	.loc	4 61 6
	addq	$16, %rsp
	popq	%rbp
	retq
Ltmp9:
Lfunc_end3:
	.cfi_endproc

	.globl	__ZN104_$LT$core..ops..control_flow..ControlFlow$LT$B$C$C$GT$$u20$as$u20$core..ops..try_trait..FromResidual$GT$13from_residual17h6d4baad6ee6d56b4E
	.p2align	4, 0x90
__ZN104_$LT$core..ops..control_flow..ControlFlow$LT$B$C$C$GT$$u20$as$u20$core..ops..try_trait..FromResidual$GT$13from_residual17h6d4baad6ee6d56b4E:
Lfunc_begin4:
	.file	5 "/rustc/2c8cc343237b8f7d5a3c3703e3a87f2eb2c54a74/library/core/src/ops" "control_flow.rs"
	.loc	5 123 0
	.cfi_startproc
	pushq	%rbp
	.cfi_def_cfa_offset 16
	.cfi_offset %rbp, -16
	movq	%rsp, %rbp
	.cfi_def_cfa_register %rbp
	subq	$32, %rsp
	movq	%rdi, -32(%rbp)
Ltmp10:
	.loc	5 125 32 prologue_end
	movq	-32(%rbp), %rax
	movq	%rax, -8(%rbp)
Ltmp11:
	.loc	5 125 38 is_stmt 0
	movq	%rax, -16(%rbp)
	movq	$1, -24(%rbp)
Ltmp12:
	.loc	5 127 6 is_stmt 1
	movq	-24(%rbp), %rax
	movq	-16(%rbp), %rdx
	addq	$32, %rsp
	popq	%rbp
	retq
Ltmp13:
Lfunc_end4:
	.cfi_endproc

	.globl	__ZN104_$LT$core..ops..control_flow..ControlFlow$LT$B$C$C$GT$$u20$as$u20$core..ops..try_trait..FromResidual$GT$13from_residual17hedeb7e4701ef193cE
	.p2align	4, 0x90
__ZN104_$LT$core..ops..control_flow..ControlFlow$LT$B$C$C$GT$$u20$as$u20$core..ops..try_trait..FromResidual$GT$13from_residual17hedeb7e4701ef193cE:
Lfunc_begin5:
	.loc	5 123 0
	.cfi_startproc
	pushq	%rbp
	.cfi_def_cfa_offset 16
	.cfi_offset %rbp, -16
	movq	%rsp, %rbp
	.cfi_def_cfa_register %rbp
	subq	$24, %rsp
Ltmp14:
	.loc	5 125 38 prologue_end
	movb	$1, -17(%rbp)
Ltmp15:
	.loc	5 127 6
	movb	-17(%rbp), %al
	andb	$1, %al
	movzbl	%al, %eax
	addq	$24, %rsp
	popq	%rbp
	retq
Ltmp16:
Lfunc_end5:
	.cfi_endproc

	.globl	__ZN108_$LT$core..iter..adapters..filter..Filter$LT$I$C$P$GT$$u20$as$u20$core..iter..traits..iterator..Iterator$GT$4next17h77a01516ffdf12c7E
	.p2align	4, 0x90
__ZN108_$LT$core..iter..adapters..filter..Filter$LT$I$C$P$GT$$u20$as$u20$core..iter..traits..iterator..Iterator$GT$4next17h77a01516ffdf12c7E:
Lfunc_begin6:
	.file	6 "/rustc/2c8cc343237b8f7d5a3c3703e3a87f2eb2c54a74/library/core/src/iter/adapters" "filter.rs"
	.loc	6 55 0
	.cfi_startproc
	pushq	%rbp
	.cfi_def_cfa_offset 16
	.cfi_offset %rbp, -16
	movq	%rsp, %rbp
	.cfi_def_cfa_register %rbp
	subq	$16, %rsp
	movq	%rdi, %rsi
	movq	%rsi, -8(%rbp)
Ltmp17:
	.loc	6 56 9 prologue_end
	movq	%rsi, %rdi
	callq	__ZN4core4iter6traits8iterator8Iterator4find17h34305f8f71e7546dE
	.loc	6 57 6
	addq	$16, %rsp
	popq	%rbp
	retq
Ltmp18:
Lfunc_end6:
	.cfi_endproc

	.globl	__ZN111_$LT$core..iter..adapters..zip..Zip$LT$A$C$B$GT$$u20$as$u20$core..iter..adapters..zip..ZipImpl$LT$A$C$B$GT$$GT$3new17h8e5a915268a5942dE
	.p2align	4, 0x90
__ZN111_$LT$core..iter..adapters..zip..Zip$LT$A$C$B$GT$$u20$as$u20$core..iter..adapters..zip..ZipImpl$LT$A$C$B$GT$$GT$3new17h8e5a915268a5942dE:
Lfunc_begin7:
	.loc	3 262 0
	.cfi_startproc
	.cfi_personality 155, _rust_eh_personality
	.cfi_lsda 16, Lexception0
	pushq	%rbp
	.cfi_def_cfa_offset 16
	.cfi_offset %rbp, -16
	movq	%rsp, %rbp
	.cfi_def_cfa_register %rbp
	subq	$144, %rsp
	movq	%rdi, -120(%rbp)
	movq	%rdi, -112(%rbp)
	movq	%rsi, -96(%rbp)
	movq	%rdx, -88(%rbp)
	movq	%rcx, -80(%rbp)
	movq	%r8, -72(%rbp)
Ltmp19:
	leaq	-96(%rbp), %rdi
Ltmp26:
	.loc	3 263 21 prologue_end
	callq	__ZN4core4iter8adapters3zip27TrustedRandomAccessNoCoerce4size17h96eab6b36d77e91aE
Ltmp20:
	movq	%rax, -104(%rbp)
	jmp	LBB7_3
LBB7_1:
	.loc	3 262 5
	movq	-64(%rbp), %rdi
	callq	__Unwind_Resume
LBB7_2:
Ltmp25:
	.loc	3 0 5 is_stmt 0
	movq	%rax, %rcx
	movl	%edx, %eax
	movq	%rcx, -64(%rbp)
	movl	%eax, -56(%rbp)
	jmp	LBB7_1
LBB7_3:
	movq	-104(%rbp), %rax
	.loc	3 263 21 is_stmt 1
	movq	%rax, -48(%rbp)
Ltmp27:
	.loc	3 264 28
	movq	%rax, -40(%rbp)
Ltmp21:
	leaq	-80(%rbp), %rdi
	.loc	3 264 35 is_stmt 0
	callq	__ZN4core4iter8adapters3zip27TrustedRandomAccessNoCoerce4size17h96eab6b36d77e91aE
Ltmp22:
	movq	%rax, -128(%rbp)
	jmp	LBB7_4
LBB7_4:
	.loc	3 0 35
	movq	-128(%rbp), %rsi
	movq	-104(%rbp), %rdi
	.loc	3 264 35
	movq	%rsi, -32(%rbp)
Ltmp28:
	.file	7 "/rustc/2c8cc343237b8f7d5a3c3703e3a87f2eb2c54a74/library/core/src" "cmp.rs"
	.loc	7 1185 5 is_stmt 1
	movq	%rdi, -24(%rbp)
	.loc	7 1185 12 is_stmt 0
	movq	%rsi, -16(%rbp)
Ltmp23:
Ltmp29:
	.loc	7 833 13 is_stmt 1
	callq	__ZN4core3cmp6min_by17h6e7e736a0cbac1aaE
Ltmp24:
	movq	%rax, -136(%rbp)
	jmp	LBB7_5
LBB7_5:
	.loc	7 0 13 is_stmt 0
	movq	-112(%rbp), %rax
	movq	-120(%rbp), %rcx
	movq	-104(%rbp), %rdx
	movq	-136(%rbp), %rsi
	.loc	7 833 13
	movq	%rsi, -8(%rbp)
Ltmp30:
	.loc	3 265 15 is_stmt 1
	movq	-96(%rbp), %r10
	movq	-88(%rbp), %r9
	.loc	3 265 18 is_stmt 0
	movq	-80(%rbp), %r8
	movq	-72(%rbp), %rdi
	.loc	3 265 9
	movq	%r10, (%rcx)
	movq	%r9, 8(%rcx)
	movq	%r8, 16(%rcx)
	movq	%rdi, 24(%rcx)
	movq	$0, 32(%rcx)
	movq	%rsi, 40(%rcx)
	movq	%rdx, 48(%rcx)
Ltmp31:
	.loc	3 266 6 is_stmt 1
	addq	$144, %rsp
	popq	%rbp
	retq
Ltmp32:
Lfunc_end7:
	.cfi_endproc
	.section	__TEXT,__gcc_except_tab
	.p2align	2
GCC_except_table7:
Lexception0:
	.byte	255
	.byte	255
	.byte	1
	.uleb128 Lcst_end0-Lcst_begin0
Lcst_begin0:
	.uleb128 Ltmp19-Lfunc_begin7
	.uleb128 Ltmp20-Ltmp19
	.uleb128 Ltmp25-Lfunc_begin7
	.byte	0
	.uleb128 Ltmp20-Lfunc_begin7
	.uleb128 Ltmp21-Ltmp20
	.byte	0
	.byte	0
	.uleb128 Ltmp21-Lfunc_begin7
	.uleb128 Ltmp24-Ltmp21
	.uleb128 Ltmp25-Lfunc_begin7
	.byte	0
Lcst_end0:
	.p2align	2

	.section	__TEXT,__text,regular,pure_instructions
	.globl	__ZN111_$LT$core..iter..adapters..zip..Zip$LT$A$C$B$GT$$u20$as$u20$core..iter..adapters..zip..ZipImpl$LT$A$C$B$GT$$GT$4next17h97dd9e81c4450498E
	.p2align	4, 0x90
__ZN111_$LT$core..iter..adapters..zip..Zip$LT$A$C$B$GT$$u20$as$u20$core..iter..adapters..zip..ZipImpl$LT$A$C$B$GT$$GT$4next17h97dd9e81c4450498E:
Lfunc_begin8:
	.loc	3 269 0
	.cfi_startproc
	.cfi_personality 155, _rust_eh_personality
	.cfi_lsda 16, Lexception1
	pushq	%rbp
	.cfi_def_cfa_offset 16
	.cfi_offset %rbp, -16
	movq	%rsp, %rbp
	.cfi_def_cfa_register %rbp
	subq	$80, %rsp
	movq	%rdi, -64(%rbp)
	movq	%rdi, -40(%rbp)
Ltmp36:
	.loc	3 270 12 prologue_end
	movq	32(%rdi), %rax
	cmpq	40(%rdi), %rax
	jb	LBB8_2
	.loc	3 279 19
	xorl	%eax, %eax
	testb	$1, %al
	jne	LBB8_8
	jmp	LBB8_7
LBB8_2:
	.loc	3 0 19 is_stmt 0
	movq	-64(%rbp), %rdi
	.loc	3 271 21 is_stmt 1
	movq	32(%rdi), %rsi
	movq	%rsi, -80(%rbp)
	movq	%rsi, -32(%rbp)
Ltmp37:
	.loc	3 274 13
	movq	32(%rdi), %rax
	incq	%rax
	movq	%rax, 32(%rdi)
	.loc	3 277 23
	callq	__ZN81_$LT$core..str..iter..Bytes$u20$as$u20$core..iter..traits..iterator..Iterator$GT$24__iterator_get_unchecked17hac9fb3a72b941f56E
	movq	-64(%rbp), %rdi
	movq	-80(%rbp), %rsi
	movb	%al, -66(%rbp)
	.loc	3 277 59 is_stmt 0
	addq	$16, %rdi
Ltmp33:
	callq	__ZN81_$LT$core..str..iter..Bytes$u20$as$u20$core..iter..traits..iterator..Iterator$GT$24__iterator_get_unchecked17hac9fb3a72b941f56E
Ltmp34:
	movb	%al, -65(%rbp)
	jmp	LBB8_5
Ltmp38:
LBB8_3:
	.loc	3 269 5 is_stmt 1
	movq	-24(%rbp), %rdi
	callq	__Unwind_Resume
LBB8_4:
Ltmp35:
	.loc	3 0 5 is_stmt 0
	movq	%rax, %rcx
	movl	%edx, %eax
	movq	%rcx, -24(%rbp)
	movl	%eax, -16(%rbp)
	jmp	LBB8_3
LBB8_5:
	movb	-65(%rbp), %al
	movb	-66(%rbp), %cl
Ltmp39:
	.loc	3 277 22 is_stmt 1
	movb	%cl, -48(%rbp)
	movb	%al, -47(%rbp)
	.loc	3 277 17 is_stmt 0
	movb	-48(%rbp), %cl
	movb	-47(%rbp), %al
	movb	%cl, -55(%rbp)
	movb	%al, -54(%rbp)
	movb	$1, -56(%rbp)
Ltmp40:
LBB8_6:
	.loc	3 293 6 is_stmt 1
	movzbl	-54(%rbp), %ecx
	shll	$16, %ecx
	movzwl	-56(%rbp), %eax
	orl	%ecx, %eax
	addq	$80, %rsp
	popq	%rbp
	retq
LBB8_7:
	.loc	3 279 19
	movb	$0, -41(%rbp)
	jmp	LBB8_9
LBB8_8:
	.loc	3 0 19 is_stmt 0
	movq	-64(%rbp), %rcx
	.loc	3 279 46
	movq	32(%rcx), %rax
	cmpq	48(%rcx), %rax
	setb	%al
	.loc	3 279 19
	andb	$1, %al
	movb	%al, -41(%rbp)
LBB8_9:
	testb	$1, -41(%rbp)
	jne	LBB8_11
	.loc	3 291 13 is_stmt 1
	movb	$0, -56(%rbp)
	.loc	3 279 16
	jmp	LBB8_12
LBB8_11:
	.loc	3 0 16 is_stmt 0
	movq	-64(%rbp), %rdi
	.loc	3 280 21 is_stmt 1
	movq	32(%rdi), %rsi
	movq	%rsi, -8(%rbp)
Ltmp41:
	.loc	3 282 13
	movq	32(%rdi), %rax
	addq	$1, %rax
	movq	%rax, 32(%rdi)
	.loc	3 283 13
	movq	40(%rdi), %rax
	addq	$1, %rax
	movq	%rax, 40(%rdi)
	.loc	3 287 17
	callq	__ZN81_$LT$core..str..iter..Bytes$u20$as$u20$core..iter..traits..iterator..Iterator$GT$24__iterator_get_unchecked17hac9fb3a72b941f56E
	.loc	3 289 13
	movb	$0, -56(%rbp)
Ltmp42:
LBB8_12:
	.loc	3 270 9
	jmp	LBB8_6
Ltmp43:
Lfunc_end8:
	.cfi_endproc
	.section	__TEXT,__gcc_except_tab
	.p2align	2
GCC_except_table8:
Lexception1:
	.byte	255
	.byte	255
	.byte	1
	.uleb128 Lcst_end1-Lcst_begin1
Lcst_begin1:
	.uleb128 Lfunc_begin8-Lfunc_begin8
	.uleb128 Ltmp33-Lfunc_begin8
	.byte	0
	.byte	0
	.uleb128 Ltmp33-Lfunc_begin8
	.uleb128 Ltmp34-Ltmp33
	.uleb128 Ltmp35-Lfunc_begin8
	.byte	0
	.uleb128 Ltmp34-Lfunc_begin8
	.uleb128 Lfunc_end8-Ltmp34
	.byte	0
	.byte	0
Lcst_end1:
	.p2align	2

	.section	__TEXT,__text,regular,pure_instructions
	.globl	__ZN42_$LT$$RF$T$u20$as$u20$core..fmt..Debug$GT$3fmt17h0dc31241983d562eE
	.p2align	4, 0x90
__ZN42_$LT$$RF$T$u20$as$u20$core..fmt..Debug$GT$3fmt17h0dc31241983d562eE:
Lfunc_begin9:
	.file	8 "/rustc/2c8cc343237b8f7d5a3c3703e3a87f2eb2c54a74/library/core/src/fmt" "mod.rs"
	.loc	8 2377 0
	.cfi_startproc
	pushq	%rbp
	.cfi_def_cfa_offset 16
	.cfi_offset %rbp, -16
	movq	%rsp, %rbp
	.cfi_def_cfa_register %rbp
	subq	$16, %rsp
	movq	%rdi, -16(%rbp)
	movq	%rsi, -8(%rbp)
Ltmp44:
	.loc	8 2377 71 prologue_end
	movq	(%rdi), %rdi
	.loc	8 2377 62 is_stmt 0
	callq	__ZN66_$LT$core..option..Option$LT$T$GT$$u20$as$u20$core..fmt..Debug$GT$3fmt17h65c24a1e588fdee1E
	.loc	8 2377 84
	andb	$1, %al
	movzbl	%al, %eax
	addq	$16, %rsp
	popq	%rbp
	retq
Ltmp45:
Lfunc_end9:
	.cfi_endproc

	.globl	__ZN42_$LT$$RF$T$u20$as$u20$core..fmt..Debug$GT$3fmt17h27d9cb9345885b7fE
	.p2align	4, 0x90
__ZN42_$LT$$RF$T$u20$as$u20$core..fmt..Debug$GT$3fmt17h27d9cb9345885b7fE:
Lfunc_begin10:
	.loc	8 2377 0 is_stmt 1
	.cfi_startproc
	pushq	%rbp
	.cfi_def_cfa_offset 16
	.cfi_offset %rbp, -16
	movq	%rsp, %rbp
	.cfi_def_cfa_register %rbp
	subq	$16, %rsp
	movq	%rdi, -16(%rbp)
	movq	%rsi, -8(%rbp)
Ltmp46:
	.loc	8 2377 71 prologue_end
	movq	(%rdi), %rdi
	.loc	8 2377 62 is_stmt 0
	callq	__ZN45_$LT$$LP$$RP$$u20$as$u20$core..fmt..Debug$GT$3fmt17hf29dac804ece14abE
	.loc	8 2377 84
	andb	$1, %al
	movzbl	%al, %eax
	addq	$16, %rsp
	popq	%rbp
	retq
Ltmp47:
Lfunc_end10:
	.cfi_endproc

	.globl	__ZN42_$LT$$RF$T$u20$as$u20$core..fmt..Debug$GT$3fmt17h45af0bd09c1c65bcE
	.p2align	4, 0x90
__ZN42_$LT$$RF$T$u20$as$u20$core..fmt..Debug$GT$3fmt17h45af0bd09c1c65bcE:
Lfunc_begin11:
	.loc	8 2377 0 is_stmt 1
	.cfi_startproc
	pushq	%rbp
	.cfi_def_cfa_offset 16
	.cfi_offset %rbp, -16
	movq	%rsp, %rbp
	.cfi_def_cfa_register %rbp
	subq	$16, %rsp
	movq	%rdi, -16(%rbp)
	movq	%rsi, -8(%rbp)
Ltmp48:
	.loc	8 2377 71 prologue_end
	movq	(%rdi), %rdi
	.loc	8 2377 62 is_stmt 0
	callq	__ZN56_$LT$log..MaybeStaticStr$u20$as$u20$core..fmt..Debug$GT$3fmt17h62ab34d0edae6b30E
	.loc	8 2377 84
	andb	$1, %al
	movzbl	%al, %eax
	addq	$16, %rsp
	popq	%rbp
	retq
Ltmp49:
Lfunc_end11:
	.cfi_endproc

	.globl	__ZN42_$LT$$RF$T$u20$as$u20$core..fmt..Debug$GT$3fmt17h7cd9615335ebf55aE
	.p2align	4, 0x90
__ZN42_$LT$$RF$T$u20$as$u20$core..fmt..Debug$GT$3fmt17h7cd9615335ebf55aE:
Lfunc_begin12:
	.loc	8 2377 0 is_stmt 1
	.cfi_startproc
	pushq	%rbp
	.cfi_def_cfa_offset 16
	.cfi_offset %rbp, -16
	movq	%rsp, %rbp
	.cfi_def_cfa_register %rbp
	subq	$16, %rsp
	movq	%rdi, -16(%rbp)
	movq	%rsi, -8(%rbp)
Ltmp50:
	.loc	8 2377 71 prologue_end
	movq	(%rdi), %rdi
	.loc	8 2377 62 is_stmt 0
	callq	__ZN48_$LT$log..Record$u20$as$u20$core..fmt..Debug$GT$3fmt17hd4953b8fb0cbe266E
	.loc	8 2377 84
	andb	$1, %al
	movzbl	%al, %eax
	addq	$16, %rsp
	popq	%rbp
	retq
Ltmp51:
Lfunc_end12:
	.cfi_endproc

	.globl	__ZN42_$LT$$RF$T$u20$as$u20$core..fmt..Debug$GT$3fmt17h971a640720ba85a1E
	.p2align	4, 0x90
__ZN42_$LT$$RF$T$u20$as$u20$core..fmt..Debug$GT$3fmt17h971a640720ba85a1E:
Lfunc_begin13:
	.loc	8 2377 0 is_stmt 1
	.cfi_startproc
	pushq	%rbp
	.cfi_def_cfa_offset 16
	.cfi_offset %rbp, -16
	movq	%rsp, %rbp
	.cfi_def_cfa_register %rbp
	subq	$16, %rsp
	movq	%rdi, -16(%rbp)
	movq	%rsi, -8(%rbp)
Ltmp52:
	.loc	8 2377 71 prologue_end
	movq	(%rdi), %rdi
	.loc	8 2377 62 is_stmt 0
	callq	__ZN57_$LT$core..fmt..Arguments$u20$as$u20$core..fmt..Debug$GT$3fmt17h6bf8b22e60c774efE
	.loc	8 2377 84
	andb	$1, %al
	movzbl	%al, %eax
	addq	$16, %rsp
	popq	%rbp
	retq
Ltmp53:
Lfunc_end13:
	.cfi_endproc

	.globl	__ZN42_$LT$$RF$T$u20$as$u20$core..fmt..Debug$GT$3fmt17hcae1f78c5d89caa3E
	.p2align	4, 0x90
__ZN42_$LT$$RF$T$u20$as$u20$core..fmt..Debug$GT$3fmt17hcae1f78c5d89caa3E:
Lfunc_begin14:
	.loc	8 2377 0 is_stmt 1
	.cfi_startproc
	pushq	%rbp
	.cfi_def_cfa_offset 16
	.cfi_offset %rbp, -16
	movq	%rsp, %rbp
	.cfi_def_cfa_register %rbp
	subq	$16, %rsp
	movq	%rdi, -16(%rbp)
	movq	%rsi, -8(%rbp)
Ltmp54:
	.loc	8 2377 71 prologue_end
	movq	(%rdi), %rdi
	.loc	8 2377 62 is_stmt 0
	callq	__ZN4core3fmt3num50_$LT$impl$u20$core..fmt..Debug$u20$for$u20$u32$GT$3fmt17h27e32cf7efba8496E
	.loc	8 2377 84
	andb	$1, %al
	movzbl	%al, %eax
	addq	$16, %rsp
	popq	%rbp
	retq
Ltmp55:
Lfunc_end14:
	.cfi_endproc

	.globl	__ZN42_$LT$$RF$T$u20$as$u20$core..fmt..Debug$GT$3fmt17hdee4d768b0fa830dE
	.p2align	4, 0x90
__ZN42_$LT$$RF$T$u20$as$u20$core..fmt..Debug$GT$3fmt17hdee4d768b0fa830dE:
Lfunc_begin15:
	.loc	8 2377 0 is_stmt 1
	.cfi_startproc
	pushq	%rbp
	.cfi_def_cfa_offset 16
	.cfi_offset %rbp, -16
	movq	%rsp, %rbp
	.cfi_def_cfa_register %rbp
	subq	$16, %rsp
	movq	%rdi, -16(%rbp)
	movq	%rsi, -8(%rbp)
Ltmp56:
	.loc	8 2377 71 prologue_end
	movq	(%rdi), %rdi
	.loc	8 2377 62 is_stmt 0
	callq	__ZN66_$LT$core..option..Option$LT$T$GT$$u20$as$u20$core..fmt..Debug$GT$3fmt17hd1dff0e8efcb87e8E
	.loc	8 2377 84
	andb	$1, %al
	movzbl	%al, %eax
	addq	$16, %rsp
	popq	%rbp
	retq
Ltmp57:
Lfunc_end15:
	.cfi_endproc

	.globl	__ZN42_$LT$$RF$T$u20$as$u20$core..fmt..Debug$GT$3fmt17hdfda4f9caf17aeb7E
	.p2align	4, 0x90
__ZN42_$LT$$RF$T$u20$as$u20$core..fmt..Debug$GT$3fmt17hdfda4f9caf17aeb7E:
Lfunc_begin16:
	.loc	8 2377 0 is_stmt 1
	.cfi_startproc
	pushq	%rbp
	.cfi_def_cfa_offset 16
	.cfi_offset %rbp, -16
	movq	%rsp, %rbp
	.cfi_def_cfa_register %rbp
	subq	$16, %rsp
	movq	%rdi, -16(%rbp)
	movq	%rsi, -8(%rbp)
Ltmp58:
	.loc	8 2377 71 prologue_end
	movq	(%rdi), %rdi
	.loc	8 2377 62 is_stmt 0
	callq	__ZN47_$LT$log..Level$u20$as$u20$core..fmt..Debug$GT$3fmt17hb24363a5b01345c7E
	.loc	8 2377 84
	andb	$1, %al
	movzbl	%al, %eax
	addq	$16, %rsp
	popq	%rbp
	retq
Ltmp59:
Lfunc_end16:
	.cfi_endproc

	.globl	__ZN42_$LT$$RF$T$u20$as$u20$core..fmt..Debug$GT$3fmt17he771c6e182cf9f5dE
	.p2align	4, 0x90
__ZN42_$LT$$RF$T$u20$as$u20$core..fmt..Debug$GT$3fmt17he771c6e182cf9f5dE:
Lfunc_begin17:
	.loc	8 2377 0 is_stmt 1
	.cfi_startproc
	pushq	%rbp
	.cfi_def_cfa_offset 16
	.cfi_offset %rbp, -16
	movq	%rsp, %rbp
	.cfi_def_cfa_register %rbp
	subq	$16, %rsp
	movq	%rdi, -16(%rbp)
	movq	%rsi, -8(%rbp)
Ltmp60:
	.loc	8 2377 71 prologue_end
	movq	(%rdi), %rdi
	.loc	8 2377 62 is_stmt 0
	callq	__ZN50_$LT$log..Metadata$u20$as$u20$core..fmt..Debug$GT$3fmt17h73dbda2cfc31ada2E
	.loc	8 2377 84
	andb	$1, %al
	movzbl	%al, %eax
	addq	$16, %rsp
	popq	%rbp
	retq
Ltmp61:
Lfunc_end17:
	.cfi_endproc

	.globl	__ZN42_$LT$$RF$T$u20$as$u20$core..fmt..Debug$GT$3fmt17heeb412b1dcc5120bE
	.p2align	4, 0x90
__ZN42_$LT$$RF$T$u20$as$u20$core..fmt..Debug$GT$3fmt17heeb412b1dcc5120bE:
Lfunc_begin18:
	.loc	8 2377 0 is_stmt 1
	.cfi_startproc
	pushq	%rbp
	.cfi_def_cfa_offset 16
	.cfi_offset %rbp, -16
	movq	%rsp, %rbp
	.cfi_def_cfa_register %rbp
	subq	$16, %rsp
	movq	%rdi, -16(%rbp)
	movq	%rsi, -8(%rbp)
Ltmp62:
	.loc	8 2377 71 prologue_end
	movq	(%rdi), %rdi
	.loc	8 2377 62 is_stmt 0
	callq	__ZN42_$LT$$RF$T$u20$as$u20$core..fmt..Debug$GT$3fmt17hf8cdafd5bcab0ef3E
	.loc	8 2377 84
	andb	$1, %al
	movzbl	%al, %eax
	addq	$16, %rsp
	popq	%rbp
	retq
Ltmp63:
Lfunc_end18:
	.cfi_endproc

	.globl	__ZN42_$LT$$RF$T$u20$as$u20$core..fmt..Debug$GT$3fmt17hf8cdafd5bcab0ef3E
	.p2align	4, 0x90
__ZN42_$LT$$RF$T$u20$as$u20$core..fmt..Debug$GT$3fmt17hf8cdafd5bcab0ef3E:
Lfunc_begin19:
	.loc	8 2377 0 is_stmt 1
	.cfi_startproc
	pushq	%rbp
	.cfi_def_cfa_offset 16
	.cfi_offset %rbp, -16
	movq	%rsp, %rbp
	.cfi_def_cfa_register %rbp
	subq	$16, %rsp
	movq	%rsi, %rdx
	movq	%rdi, %rax
	movq	%rax, -16(%rbp)
	movq	%rdx, -8(%rbp)
Ltmp64:
	.loc	8 2377 71 prologue_end
	movq	(%rax), %rdi
	movq	8(%rax), %rsi
	.loc	8 2377 62 is_stmt 0
	callq	__ZN40_$LT$str$u20$as$u20$core..fmt..Debug$GT$3fmt17h4564f13343f2ac60E
	.loc	8 2377 84
	andb	$1, %al
	movzbl	%al, %eax
	addq	$16, %rsp
	popq	%rbp
	retq
Ltmp65:
Lfunc_end19:
	.cfi_endproc

	.globl	__ZN44_$LT$$RF$T$u20$as$u20$core..fmt..Display$GT$3fmt17h5b0d76ebb67c0541E
	.p2align	4, 0x90
__ZN44_$LT$$RF$T$u20$as$u20$core..fmt..Display$GT$3fmt17h5b0d76ebb67c0541E:
Lfunc_begin20:
	.loc	8 2377 0 is_stmt 1
	.cfi_startproc
	pushq	%rbp
	.cfi_def_cfa_offset 16
	.cfi_offset %rbp, -16
	movq	%rsp, %rbp
	.cfi_def_cfa_register %rbp
	subq	$16, %rsp
	movq	%rsi, %rdx
	movq	%rdi, %rax
	movq	%rax, -16(%rbp)
	movq	%rdx, -8(%rbp)
Ltmp66:
	.loc	8 2377 71 prologue_end
	movq	(%rax), %rdi
	movq	8(%rax), %rsi
	.loc	8 2377 62 is_stmt 0
	callq	__ZN42_$LT$str$u20$as$u20$core..fmt..Display$GT$3fmt17hd1cabce055ea2fbdE
	.loc	8 2377 84
	andb	$1, %al
	movzbl	%al, %eax
	addq	$16, %rsp
	popq	%rbp
	retq
Ltmp67:
Lfunc_end20:
	.cfi_endproc

	.p2align	4, 0x90
__ZN45_$LT$$LP$$RP$$u20$as$u20$core..fmt..Debug$GT$3fmt17hf29dac804ece14abE:
Lfunc_begin21:
	.loc	8 2610 0 is_stmt 1
	.cfi_startproc
	pushq	%rbp
	.cfi_def_cfa_offset 16
	.cfi_offset %rbp, -16
	movq	%rsp, %rbp
	.cfi_def_cfa_register %rbp
	subq	$32, %rsp
	movq	%rsi, -24(%rbp)
	movq	%rdi, %rax
	movq	-24(%rbp), %rdi
	movq	%rax, -16(%rbp)
	movq	%rdi, -8(%rbp)
Ltmp68:
	.loc	8 2611 9 prologue_end
	leaq	l___unnamed_12(%rip), %rsi
	movl	$2, %edx
	callq	__ZN4core3fmt9Formatter3pad17h322dee5343842323E
	.loc	8 2612 6
	andb	$1, %al
	movzbl	%al, %eax
	addq	$32, %rsp
	popq	%rbp
	retq
Ltmp69:
Lfunc_end21:
	.cfi_endproc

	.p2align	4, 0x90
__ZN4core3cmp5impls50_$LT$impl$u20$core..cmp..Ord$u20$for$u20$usize$GT$3cmp17h41eea8a7e5519cd9E:
Lfunc_begin22:
	.loc	7 1454 0
	.cfi_startproc
	pushq	%rbp
	.cfi_def_cfa_offset 16
	.cfi_offset %rbp, -16
	movq	%rsp, %rbp
	.cfi_def_cfa_register %rbp
	subq	$40, %rsp
	movq	%rdi, -40(%rbp)
	movq	%rsi, -32(%rbp)
	movq	%rdi, -16(%rbp)
	movq	%rsi, -8(%rbp)
Ltmp70:
	.loc	7 1457 24 prologue_end
	movq	(%rdi), %rax
	cmpq	(%rsi), %rax
	jb	LBB22_2
	.loc	7 0 24 is_stmt 0
	movq	-32(%rbp), %rcx
	movq	-40(%rbp), %rax
	.loc	7 1458 29 is_stmt 1
	movq	(%rax), %rax
	cmpq	(%rcx), %rax
	je	LBB22_5
	jmp	LBB22_4
LBB22_2:
	.loc	7 1457 41
	movb	$-1, -17(%rbp)
LBB22_3:
	.loc	7 1460 18
	movb	-17(%rbp), %al
	addq	$40, %rsp
	popq	%rbp
	retq
LBB22_4:
	.loc	7 1459 28
	movb	$1, -17(%rbp)
	.loc	7 1458 26
	jmp	LBB22_6
LBB22_5:
	.loc	7 1458 47 is_stmt 0
	movb	$0, -17(%rbp)
LBB22_6:
	.loc	7 1457 21 is_stmt 1
	jmp	LBB22_3
Ltmp71:
Lfunc_end22:
	.cfi_endproc

	.p2align	4, 0x90
__ZN4core3cmp5impls59_$LT$impl$u20$core..cmp..PartialEq$u20$for$u20$$LP$$RP$$GT$2eq17hc164cf43e11d09b5E:
Lfunc_begin23:
	.loc	7 1363 0
	.cfi_startproc
	pushq	%rbp
	.cfi_def_cfa_offset 16
	.cfi_offset %rbp, -16
	movq	%rsp, %rbp
	.cfi_def_cfa_register %rbp
	subq	$16, %rsp
	movq	%rdi, -16(%rbp)
	movq	%rsi, -8(%rbp)
Ltmp72:
	.loc	7 1365 10 prologue_end
	movb	$1, %al
	andb	$1, %al
	movzbl	%al, %eax
	addq	$16, %rsp
	popq	%rbp
	retq
Ltmp73:
Lfunc_end23:
	.cfi_endproc

	.globl	__ZN4core3cmp6min_by17h6e7e736a0cbac1aaE
	.p2align	4, 0x90
__ZN4core3cmp6min_by17h6e7e736a0cbac1aaE:
Lfunc_begin24:
	.loc	7 1204 0
	.cfi_startproc
	.cfi_personality 155, _rust_eh_personality
	.cfi_lsda 16, Lexception2
	pushq	%rbp
	.cfi_def_cfa_offset 16
	.cfi_offset %rbp, -16
	movq	%rsp, %rbp
	.cfi_def_cfa_register %rbp
	subq	$96, %rsp
	movq	%rdi, -80(%rbp)
	movq	%rsi, -72(%rbp)
Ltmp77:
	.loc	7 1209 11 prologue_end
	movb	$1, -25(%rbp)
	movb	$1, -26(%rbp)
	leaq	-80(%rbp), %rax
	movq	%rax, -48(%rbp)
	leaq	-72(%rbp), %rax
	movq	%rax, -40(%rbp)
	movq	-48(%rbp), %rdi
	movq	-40(%rbp), %rsi
Ltmp74:
	callq	__ZN4core3ops8function6FnOnce9call_once17h491133f42b3193f2E
Ltmp75:
	movb	%al, -81(%rbp)
	jmp	LBB24_3
LBB24_1:
	.loc	7 1213 1
	jmp	LBB24_4
LBB24_2:
Ltmp76:
	.loc	7 0 1 is_stmt 0
	movq	%rax, %rcx
	movl	%edx, %eax
	movq	%rcx, -16(%rbp)
	movl	%eax, -8(%rbp)
	jmp	LBB24_1
LBB24_3:
	movb	-81(%rbp), %al
	.loc	7 1209 11 is_stmt 1
	movb	%al, -49(%rbp)
	movb	-49(%rbp), %al
	.loc	7 1209 5 is_stmt 0
	incb	%al
	subb	$2, %al
	jb	LBB24_6
	jmp	LBB24_15
LBB24_15:
	jmp	LBB24_7
LBB24_4:
	.loc	7 1213 1 is_stmt 1
	testb	$1, -25(%rbp)
	jne	LBB24_12
	jmp	LBB24_11
	.loc	7 1209 11
	ud2
LBB24_6:
	.loc	7 1210 45
	movb	$0, -25(%rbp)
	movq	-80(%rbp), %rax
	movq	%rax, -64(%rbp)
	jmp	LBB24_8
LBB24_7:
	.loc	7 1211 30
	movb	$0, -26(%rbp)
	movq	-72(%rbp), %rax
	movq	%rax, -64(%rbp)
LBB24_8:
	.loc	7 1213 1
	testb	$1, -26(%rbp)
	jne	LBB24_10
LBB24_9:
	testb	$1, -25(%rbp)
	jne	LBB24_14
	jmp	LBB24_13
LBB24_10:
	jmp	LBB24_9
LBB24_11:
	.loc	7 1204 1
	movq	-16(%rbp), %rdi
	callq	__Unwind_Resume
LBB24_12:
	.loc	7 1213 1
	jmp	LBB24_11
LBB24_13:
	.loc	7 1213 2 is_stmt 0
	movq	-64(%rbp), %rax
	addq	$96, %rsp
	popq	%rbp
	retq
LBB24_14:
	.loc	7 1213 1
	jmp	LBB24_13
Ltmp78:
Lfunc_end24:
	.cfi_endproc
	.section	__TEXT,__gcc_except_tab
	.p2align	2
GCC_except_table24:
Lexception2:
	.byte	255
	.byte	255
	.byte	1
	.uleb128 Lcst_end2-Lcst_begin2
Lcst_begin2:
	.uleb128 Ltmp74-Lfunc_begin24
	.uleb128 Ltmp75-Ltmp74
	.uleb128 Ltmp76-Lfunc_begin24
	.byte	0
	.uleb128 Ltmp75-Lfunc_begin24
	.uleb128 Lfunc_end24-Ltmp75
	.byte	0
	.byte	0
Lcst_end2:
	.p2align	2

	.section	__TEXT,__text,regular,pure_instructions
	.p2align	4, 0x90
__ZN4core3fmt3num50_$LT$impl$u20$core..fmt..Debug$u20$for$u20$u32$GT$3fmt17h27e32cf7efba8496E:
Lfunc_begin25:
	.file	9 "/rustc/2c8cc343237b8f7d5a3c3703e3a87f2eb2c54a74/library/core/src/fmt" "num.rs"
	.loc	9 185 0 is_stmt 1
	.cfi_startproc
	pushq	%rbp
	.cfi_def_cfa_offset 16
	.cfi_offset %rbp, -16
	movq	%rsp, %rbp
	.cfi_def_cfa_register %rbp
	subq	$48, %rsp
	movq	%rsi, -48(%rbp)
	movq	%rdi, %rax
	movq	-48(%rbp), %rdi
	movq	%rax, -40(%rbp)
	movq	%rdi, -32(%rbp)
	movq	%rax, -16(%rbp)
	movq	%rdi, -8(%rbp)
Ltmp79:
	.loc	9 186 20 prologue_end
	callq	__ZN4core3fmt9Formatter15debug_lower_hex17h0921e6b9188d914eE
	testb	$1, %al
	jne	LBB25_2
	.loc	9 0 20 is_stmt 0
	movq	-32(%rbp), %rdi
	.loc	9 188 27 is_stmt 1
	callq	__ZN4core3fmt9Formatter15debug_upper_hex17h8ce487049a6cccf8E
	testb	$1, %al
	jne	LBB25_5
	jmp	LBB25_4
LBB25_2:
	.loc	9 0 27 is_stmt 0
	movq	-32(%rbp), %rsi
	movq	-40(%rbp), %rdi
	.loc	9 187 21 is_stmt 1
	callq	__ZN4core3fmt3num53_$LT$impl$u20$core..fmt..LowerHex$u20$for$u20$u32$GT$3fmt17h794cf20b87700632E
	andb	$1, %al
	movb	%al, -17(%rbp)
LBB25_3:
	.loc	9 193 14
	movb	-17(%rbp), %al
	andb	$1, %al
	movzbl	%al, %eax
	addq	$48, %rsp
	popq	%rbp
	retq
LBB25_4:
	.loc	9 0 14 is_stmt 0
	movq	-32(%rbp), %rsi
	movq	-40(%rbp), %rdi
	.loc	9 191 21 is_stmt 1
	callq	__ZN4core3fmt3num3imp52_$LT$impl$u20$core..fmt..Display$u20$for$u20$u32$GT$3fmt17h081c917b2ee7d4e9E
	andb	$1, %al
	movb	%al, -17(%rbp)
	.loc	9 188 24
	jmp	LBB25_6
LBB25_5:
	.loc	9 0 24 is_stmt 0
	movq	-32(%rbp), %rsi
	movq	-40(%rbp), %rdi
	.loc	9 189 21 is_stmt 1
	callq	__ZN4core3fmt3num53_$LT$impl$u20$core..fmt..UpperHex$u20$for$u20$u32$GT$3fmt17ha96bbefe8f663d11E
	andb	$1, %al
	movb	%al, -17(%rbp)
LBB25_6:
	.loc	9 186 17
	jmp	LBB25_3
Ltmp80:
Lfunc_end25:
	.cfi_endproc

	.p2align	4, 0x90
__ZN4core3fmt9Arguments6new_v117h80e109cd681a6139E:
Lfunc_begin26:
	.loc	8 399 0
	.cfi_startproc
	pushq	%rbp
	.cfi_def_cfa_offset 16
	.cfi_offset %rbp, -16
	movq	%rsp, %rbp
	.cfi_def_cfa_register %rbp
	subq	$160, %rsp
	movq	%r8, -152(%rbp)
	movq	%rcx, -144(%rbp)
	movq	%rdx, -136(%rbp)
	movq	%rsi, -128(%rbp)
	movq	%rdi, -120(%rbp)
	movq	%rdi, -112(%rbp)
	movq	%rsi, -32(%rbp)
	movq	%rdx, -24(%rbp)
	movq	%rcx, -16(%rbp)
	movq	%r8, -8(%rbp)
Ltmp81:
	.loc	8 400 12 prologue_end
	cmpq	%r8, %rdx
	jb	LBB26_2
	.loc	8 0 12 is_stmt 0
	movq	-136(%rbp), %rax
	movq	-152(%rbp), %rcx
	.loc	8 400 56
	addq	$1, %rcx
	.loc	8 400 41
	cmpq	%rcx, %rax
	seta	%al
	.loc	8 400 12
	andb	$1, %al
	movb	%al, -97(%rbp)
	jmp	LBB26_3
LBB26_2:
	movb	$1, -97(%rbp)
LBB26_3:
	testb	$1, -97(%rbp)
	jne	LBB26_5
	.loc	8 0 12
	movq	-112(%rbp), %rax
	movq	-120(%rbp), %rcx
	movq	-152(%rbp), %rdx
	movq	-144(%rbp), %rsi
	movq	-136(%rbp), %rdi
	movq	-128(%rbp), %r8
	.loc	8 403 34 is_stmt 1
	movq	$0, -48(%rbp)
	.loc	8 403 9 is_stmt 0
	movq	%r8, 16(%rcx)
	movq	%rdi, 24(%rcx)
	movq	-48(%rbp), %r8
	movq	-40(%rbp), %rdi
	movq	%r8, (%rcx)
	movq	%rdi, 8(%rcx)
	movq	%rsi, 32(%rcx)
	movq	%rdx, 40(%rcx)
	.loc	8 404 6 is_stmt 1
	addq	$160, %rsp
	popq	%rbp
	retq
LBB26_5:
	.loc	8 401 13
	leaq	l___unnamed_13(%rip), %rsi
	leaq	l___unnamed_14(%rip), %rcx
	xorl	%eax, %eax
	movl	%eax, %r8d
	leaq	-96(%rbp), %rdi
	movq	%rdi, -160(%rbp)
	movl	$1, %edx
	callq	__ZN4core3fmt9Arguments6new_v117h80e109cd681a6139E
	movq	-160(%rbp), %rdi
	leaq	l___unnamed_15(%rip), %rsi
	callq	__ZN4core9panicking9panic_fmt17h9b5d807e24bcaaedE
Ltmp82:
Lfunc_end26:
	.cfi_endproc

	.globl	__ZN4core3mem7replace17h35e67b9fc16f7d2bE
	.p2align	4, 0x90
__ZN4core3mem7replace17h35e67b9fc16f7d2bE:
Lfunc_begin27:
	.file	10 "/rustc/2c8cc343237b8f7d5a3c3703e3a87f2eb2c54a74/library/core/src/mem" "mod.rs"
	.loc	10 905 0
	.cfi_startproc
	pushq	%rbp
	.cfi_def_cfa_offset 16
	.cfi_offset %rbp, -16
	movq	%rsp, %rbp
	.cfi_def_cfa_register %rbp
	subq	$184, %rsp
	movq	%rdi, -184(%rbp)
	movq	%rsi, -176(%rbp)
	movq	%rdx, -168(%rbp)
	movq	%rdi, -112(%rbp)
	movq	%rsi, -104(%rbp)
	movq	%rdx, -96(%rbp)
Ltmp83:
	.loc	10 910 32 prologue_end
	movq	%rdi, -88(%rbp)
Ltmp84:
	.file	11 "/rustc/2c8cc343237b8f7d5a3c3703e3a87f2eb2c54a74/library/core/src/ptr" "mod.rs"
	.loc	11 1157 34
	leaq	-128(%rbp), %rax
	movq	%rax, -80(%rbp)
	.loc	11 1157 9 is_stmt 0
	movq	(%rdi), %rax
	movq	%rax, -128(%rbp)
	movq	8(%rdi), %rax
	movq	%rax, -120(%rbp)
	.loc	11 1158 9 is_stmt 1
	movq	-128(%rbp), %rcx
	movq	%rcx, -160(%rbp)
	movq	-120(%rbp), %rax
	movq	%rax, -152(%rbp)
	movq	%rcx, -72(%rbp)
	movq	%rax, -64(%rbp)
	.loc	11 0 9 is_stmt 0
	movq	-152(%rbp), %rdx
	movq	-160(%rbp), %rax
	movq	-184(%rbp), %rcx
	movq	-168(%rbp), %rsi
	movq	-176(%rbp), %rdi
Ltmp85:
	.file	12 "/rustc/2c8cc343237b8f7d5a3c3703e3a87f2eb2c54a74/library/core/src/mem" "maybe_uninit.rs"
	.loc	12 627 38 is_stmt 1
	movq	%rax, -40(%rbp)
	movq	%rdx, -32(%rbp)
Ltmp86:
	.file	13 "/rustc/2c8cc343237b8f7d5a3c3703e3a87f2eb2c54a74/library/core/src/mem" "manually_drop.rs"
	.loc	13 89 9
	movq	%rax, -24(%rbp)
	movq	%rdx, -16(%rbp)
Ltmp87:
	.loc	10 911 20
	movq	%rcx, -8(%rbp)
	.loc	10 911 26 is_stmt 0
	movq	%rdi, -144(%rbp)
	movq	%rsi, -136(%rbp)
Ltmp88:
	.loc	11 1354 9 is_stmt 1
	movq	-144(%rbp), %rsi
	movq	-136(%rbp), %rdi
	movq	%rdi, 8(%rcx)
	movq	%rsi, (%rcx)
Ltmp89:
	.loc	10 914 2
	addq	$184, %rsp
	popq	%rbp
	retq
Ltmp90:
Lfunc_end27:
	.cfi_endproc

	.globl	__ZN4core3ops12control_flow24ControlFlow$LT$B$C$C$GT$11break_value17h7888a733507ea52dE
	.p2align	4, 0x90
__ZN4core3ops12control_flow24ControlFlow$LT$B$C$C$GT$11break_value17h7888a733507ea52dE:
Lfunc_begin28:
	.loc	5 183 0
	.cfi_startproc
	pushq	%rbp
	.cfi_def_cfa_offset 16
	.cfi_offset %rbp, -16
	movq	%rsp, %rbp
	.cfi_def_cfa_register %rbp
	subq	$40, %rsp
	movq	%rdi, -40(%rbp)
	movq	%rsi, -32(%rbp)
Ltmp91:
	.loc	5 184 9 prologue_end
	cmpq	$0, -40(%rbp)
	jne	LBB28_2
	.loc	5 185 42
	movq	$0, -24(%rbp)
	jmp	LBB28_3
LBB28_2:
	.loc	5 186 32
	movq	-32(%rbp), %rax
	movq	%rax, -8(%rbp)
Ltmp92:
	.loc	5 186 38 is_stmt 0
	movq	%rax, -16(%rbp)
	movq	$1, -24(%rbp)
Ltmp93:
LBB28_3:
	.loc	5 188 5 is_stmt 1
	cmpq	$1, -40(%rbp)
	jne	LBB28_5
LBB28_4:
	.loc	5 188 6 is_stmt 0
	movq	-24(%rbp), %rax
	movq	-16(%rbp), %rdx
	addq	$40, %rsp
	popq	%rbp
	retq
LBB28_5:
	.loc	5 188 5
	jmp	LBB28_4
Ltmp94:
Lfunc_end28:
	.cfi_endproc

	.globl	__ZN4core3ops8function5impls79_$LT$impl$u20$core..ops..function..FnMut$LT$A$GT$$u20$for$u20$$RF$mut$u20$F$GT$8call_mut17hd8fac1d203dbcb58E
	.p2align	4, 0x90
__ZN4core3ops8function5impls79_$LT$impl$u20$core..ops..function..FnMut$LT$A$GT$$u20$for$u20$$RF$mut$u20$F$GT$8call_mut17hd8fac1d203dbcb58E:
Lfunc_begin29:
	.file	14 "/rustc/2c8cc343237b8f7d5a3c3703e3a87f2eb2c54a74/library/core/src/ops" "function.rs"
	.loc	14 297 0 is_stmt 1
	.cfi_startproc
	pushq	%rbp
	.cfi_def_cfa_offset 16
	.cfi_offset %rbp, -16
	movq	%rsp, %rbp
	.cfi_def_cfa_register %rbp
	subq	$16, %rsp
	movq	%rsi, -16(%rbp)
	movq	%rdi, -8(%rbp)
Ltmp95:
	.loc	14 298 13 prologue_end
	movq	(%rdi), %rdi
	.loc	14 298 30 is_stmt 0
	movq	-16(%rbp), %rsi
	.loc	14 298 13
	callq	__ZN57_$LT$log..Level$u20$as$u20$core..str..traits..FromStr$GT$8from_str28_$u7b$$u7b$closure$u7d$$u7d$17h5600fca9632debdeE
	.loc	14 299 10 is_stmt 1
	andb	$1, %al
	movzbl	%al, %eax
	addq	$16, %rsp
	popq	%rbp
	retq
Ltmp96:
Lfunc_end29:
	.cfi_endproc

	.globl	__ZN4core3ops8function5impls80_$LT$impl$u20$core..ops..function..FnOnce$LT$A$GT$$u20$for$u20$$RF$mut$u20$F$GT$9call_once17h7e1ccdebe86b6bc1E
	.p2align	4, 0x90
__ZN4core3ops8function5impls80_$LT$impl$u20$core..ops..function..FnOnce$LT$A$GT$$u20$for$u20$$RF$mut$u20$F$GT$9call_once17h7e1ccdebe86b6bc1E:
Lfunc_begin30:
	.loc	14 309 0
	.cfi_startproc
	pushq	%rbp
	.cfi_def_cfa_offset 16
	.cfi_offset %rbp, -16
	movq	%rsp, %rbp
	.cfi_def_cfa_register %rbp
	subq	$16, %rsp
	movq	%rsi, -16(%rbp)
	movq	%rdi, -8(%rbp)
Ltmp97:
	.loc	14 310 30 prologue_end
	movq	-16(%rbp), %rsi
	.loc	14 310 13 is_stmt 0
	callq	__ZN57_$LT$log..Level$u20$as$u20$core..str..traits..FromStr$GT$8from_str28_$u7b$$u7b$closure$u7d$$u7d$17hd9fec932eb512d01E
	.loc	14 311 10 is_stmt 1
	addq	$16, %rsp
	popq	%rbp
	retq
Ltmp98:
Lfunc_end30:
	.cfi_endproc

	.p2align	4, 0x90
__ZN4core3ops8function6FnOnce9call_once17h491133f42b3193f2E:
Lfunc_begin31:
	.loc	14 250 0
	.cfi_startproc
	pushq	%rbp
	.cfi_def_cfa_offset 16
	.cfi_offset %rbp, -16
	movq	%rsp, %rbp
	.cfi_def_cfa_register %rbp
	subq	$32, %rsp
	movq	%rdi, -24(%rbp)
	movq	%rsi, -16(%rbp)
Ltmp99:
	.loc	14 250 5 prologue_end
	movq	-24(%rbp), %rdi
	movq	-16(%rbp), %rsi
	callq	__ZN4core3cmp5impls50_$LT$impl$u20$core..cmp..Ord$u20$for$u20$usize$GT$3cmp17h41eea8a7e5519cd9E
	addq	$32, %rsp
	popq	%rbp
	retq
Ltmp100:
Lfunc_end31:
	.cfi_endproc

	.p2align	4, 0x90
__ZN4core3ops8function6FnOnce9call_once17ha2599b3dbde8f108E:
Lfunc_begin32:
	.loc	14 250 0
	.cfi_startproc
	pushq	%rbp
	.cfi_def_cfa_offset 16
	.cfi_offset %rbp, -16
	movq	%rsp, %rbp
	.cfi_def_cfa_register %rbp
	subq	$32, %rsp
	movq	%rdi, %rax
	movq	%rax, -32(%rbp)
	movq	%rsi, -24(%rbp)
	movq	%rdx, -16(%rbp)
Ltmp101:
	.loc	14 250 5 prologue_end
	movq	-24(%rbp), %rsi
	movq	-16(%rbp), %rdx
	callq	__ZN3log14MaybeStaticStr6Static17ha3d851c487f588bbE
	movq	-32(%rbp), %rax
	addq	$32, %rsp
	popq	%rbp
	retq
Ltmp102:
Lfunc_end32:
	.cfi_endproc

	.p2align	4, 0x90
__ZN4core3ptr28drop_in_place$LT$$RF$u32$GT$17h86183db06632b204E:
Lfunc_begin33:
	.loc	11 490 0
	.cfi_startproc
	pushq	%rbp
	.cfi_def_cfa_offset 16
	.cfi_offset %rbp, -16
	movq	%rsp, %rbp
	.cfi_def_cfa_register %rbp
	pushq	%rax
	movq	%rdi, -8(%rbp)
Ltmp103:
	.loc	11 490 1 prologue_end
	addq	$8, %rsp
	popq	%rbp
	retq
Ltmp104:
Lfunc_end33:
	.cfi_endproc

	.p2align	4, 0x90
__ZN4core3ptr32drop_in_place$LT$$RF$$RF$str$GT$17h1961e30bbd29cf61E:
Lfunc_begin34:
	.loc	11 490 0
	.cfi_startproc
	pushq	%rbp
	.cfi_def_cfa_offset 16
	.cfi_offset %rbp, -16
	movq	%rsp, %rbp
	.cfi_def_cfa_register %rbp
	pushq	%rax
	movq	%rdi, -8(%rbp)
Ltmp105:
	.loc	11 490 1 prologue_end
	addq	$8, %rsp
	popq	%rbp
	retq
Ltmp106:
Lfunc_end34:
	.cfi_endproc

	.p2align	4, 0x90
__ZN4core3ptr33drop_in_place$LT$$RF$$LP$$RP$$GT$17hacfec61513dba46eE:
Lfunc_begin35:
	.loc	11 490 0
	.cfi_startproc
	pushq	%rbp
	.cfi_def_cfa_offset 16
	.cfi_offset %rbp, -16
	movq	%rsp, %rbp
	.cfi_def_cfa_register %rbp
	pushq	%rax
	movq	%rdi, -8(%rbp)
Ltmp107:
	.loc	11 490 1 prologue_end
	addq	$8, %rsp
	popq	%rbp
	retq
Ltmp108:
Lfunc_end35:
	.cfi_endproc

	.p2align	4, 0x90
__ZN4core3ptr35drop_in_place$LT$$RF$log..Level$GT$17h678017b62b741aa4E:
Lfunc_begin36:
	.loc	11 490 0
	.cfi_startproc
	pushq	%rbp
	.cfi_def_cfa_offset 16
	.cfi_offset %rbp, -16
	movq	%rsp, %rbp
	.cfi_def_cfa_register %rbp
	pushq	%rax
	movq	%rdi, -8(%rbp)
Ltmp109:
	.loc	11 490 1 prologue_end
	addq	$8, %rsp
	popq	%rbp
	retq
Ltmp110:
Lfunc_end36:
	.cfi_endproc

	.p2align	4, 0x90
__ZN4core3ptr35drop_in_place$LT$log..NopLogger$GT$17ha38a4ca4ccec4958E:
Lfunc_begin37:
	.loc	11 490 0
	.cfi_startproc
	pushq	%rbp
	.cfi_def_cfa_offset 16
	.cfi_offset %rbp, -16
	movq	%rsp, %rbp
	.cfi_def_cfa_register %rbp
	pushq	%rax
	movq	%rdi, -8(%rbp)
Ltmp111:
	.loc	11 490 1 prologue_end
	addq	$8, %rsp
	popq	%rbp
	retq
Ltmp112:
Lfunc_end37:
	.cfi_endproc

	.p2align	4, 0x90
__ZN4core3ptr36drop_in_place$LT$$RF$log..Record$GT$17h9aee482642a70501E:
Lfunc_begin38:
	.loc	11 490 0
	.cfi_startproc
	pushq	%rbp
	.cfi_def_cfa_offset 16
	.cfi_offset %rbp, -16
	movq	%rsp, %rbp
	.cfi_def_cfa_register %rbp
	pushq	%rax
	movq	%rdi, -8(%rbp)
Ltmp113:
	.loc	11 490 1 prologue_end
	addq	$8, %rsp
	popq	%rbp
	retq
Ltmp114:
Lfunc_end38:
	.cfi_endproc

	.p2align	4, 0x90
__ZN4core3ptr38drop_in_place$LT$$RF$log..Metadata$GT$17hd4370c819c6bf8dcE:
Lfunc_begin39:
	.loc	11 490 0
	.cfi_startproc
	pushq	%rbp
	.cfi_def_cfa_offset 16
	.cfi_offset %rbp, -16
	movq	%rsp, %rbp
	.cfi_def_cfa_register %rbp
	pushq	%rax
	movq	%rdi, -8(%rbp)
Ltmp115:
	.loc	11 490 1 prologue_end
	addq	$8, %rsp
	popq	%rbp
	retq
Ltmp116:
Lfunc_end39:
	.cfi_endproc

	.p2align	4, 0x90
__ZN4core3ptr44drop_in_place$LT$$RF$log..MaybeStaticStr$GT$17hbb7374453a920e9fE:
Lfunc_begin40:
	.loc	11 490 0
	.cfi_startproc
	pushq	%rbp
	.cfi_def_cfa_offset 16
	.cfi_offset %rbp, -16
	movq	%rsp, %rbp
	.cfi_def_cfa_register %rbp
	pushq	%rax
	movq	%rdi, -8(%rbp)
Ltmp117:
	.loc	11 490 1 prologue_end
	addq	$8, %rsp
	popq	%rbp
	retq
Ltmp118:
Lfunc_end40:
	.cfi_endproc

	.p2align	4, 0x90
__ZN4core3ptr45drop_in_place$LT$$RF$core..fmt..Arguments$GT$17h79f6a5b11aec9fecE:
Lfunc_begin41:
	.loc	11 490 0
	.cfi_startproc
	pushq	%rbp
	.cfi_def_cfa_offset 16
	.cfi_offset %rbp, -16
	movq	%rsp, %rbp
	.cfi_def_cfa_register %rbp
	pushq	%rax
	movq	%rdi, -8(%rbp)
Ltmp119:
	.loc	11 490 1 prologue_end
	addq	$8, %rsp
	popq	%rbp
	retq
Ltmp120:
Lfunc_end41:
	.cfi_endproc

	.p2align	4, 0x90
__ZN4core3ptr56drop_in_place$LT$$RF$core..option..Option$LT$u32$GT$$GT$17h0718bfd09dfb7528E:
Lfunc_begin42:
	.loc	11 490 0
	.cfi_startproc
	pushq	%rbp
	.cfi_def_cfa_offset 16
	.cfi_offset %rbp, -16
	movq	%rsp, %rbp
	.cfi_def_cfa_register %rbp
	pushq	%rax
	movq	%rdi, -8(%rbp)
Ltmp121:
	.loc	11 490 1 prologue_end
	addq	$8, %rsp
	popq	%rbp
	retq
Ltmp122:
Lfunc_end42:
	.cfi_endproc

	.p2align	4, 0x90
__ZN4core3ptr72drop_in_place$LT$$RF$core..option..Option$LT$log..MaybeStaticStr$GT$$GT$17ha91b8e09faf6eeb7E:
Lfunc_begin43:
	.loc	11 490 0
	.cfi_startproc
	pushq	%rbp
	.cfi_def_cfa_offset 16
	.cfi_offset %rbp, -16
	movq	%rsp, %rbp
	.cfi_def_cfa_register %rbp
	pushq	%rax
	movq	%rdi, -8(%rbp)
Ltmp123:
	.loc	11 490 1 prologue_end
	addq	$8, %rsp
	popq	%rbp
	retq
Ltmp124:
Lfunc_end43:
	.cfi_endproc

	.globl	__ZN4core3ptr9const_ptr33_$LT$impl$u20$$BP$const$u20$T$GT$7sub_ptr17h3c10fd1f5580ca0fE
	.p2align	4, 0x90
__ZN4core3ptr9const_ptr33_$LT$impl$u20$$BP$const$u20$T$GT$7sub_ptr17h3c10fd1f5580ca0fE:
Lfunc_begin44:
	.file	15 "/rustc/2c8cc343237b8f7d5a3c3703e3a87f2eb2c54a74/library/core/src/ptr" "const_ptr.rs"
	.loc	15 791 0
	.cfi_startproc
	pushq	%rbp
	.cfi_def_cfa_offset 16
	.cfi_offset %rbp, -16
	movq	%rsp, %rbp
	.cfi_def_cfa_register %rbp
	subq	$64, %rsp
	movq	%rdi, -56(%rbp)
	movq	%rsi, -48(%rbp)
	movq	%rdi, -32(%rbp)
	movq	%rsi, -24(%rbp)
Ltmp125:
	.loc	10 309 5 prologue_end
	movq	$16, -16(%rbp)
Ltmp126:
	.loc	15 806 17
	movb	$1, %al
	testb	$1, %al
	jne	LBB44_2
	movb	$0, -33(%rbp)
	jmp	LBB44_3
LBB44_2:
	movb	$1, -33(%rbp)
LBB44_3:
	.loc	15 806 9 is_stmt 0
	movb	-33(%rbp), %al
	xorb	$-1, %al
	testb	$1, %al
	jne	LBB44_5
	.loc	15 0 9
	movq	-48(%rbp), %rcx
	movq	-56(%rbp), %rax
	.loc	15 808 18 is_stmt 1
	subq	%rcx, %rax
	shrq	$4, %rax
	movq	%rax, -8(%rbp)
	movq	-8(%rbp), %rax
Ltmp127:
	.loc	15 809 6
	addq	$64, %rsp
	popq	%rbp
	retq
LBB44_5:
Ltmp128:
	.loc	15 806 9
	leaq	l___unnamed_16(%rip), %rdi
	leaq	l___unnamed_17(%rip), %rdx
	movl	$73, %esi
	callq	__ZN4core9panicking5panic17hc1bc45270cf64b03E
Ltmp129:
Lfunc_end44:
	.cfi_endproc

	.globl	__ZN4core3ptr9const_ptr33_$LT$impl$u20$$BP$const$u20$T$GT$7sub_ptr17h58919d9e5793e677E
	.p2align	4, 0x90
__ZN4core3ptr9const_ptr33_$LT$impl$u20$$BP$const$u20$T$GT$7sub_ptr17h58919d9e5793e677E:
Lfunc_begin45:
	.loc	15 791 0
	.cfi_startproc
	pushq	%rbp
	.cfi_def_cfa_offset 16
	.cfi_offset %rbp, -16
	movq	%rsp, %rbp
	.cfi_def_cfa_register %rbp
	subq	$64, %rsp
	movq	%rdi, -56(%rbp)
	movq	%rsi, -48(%rbp)
	movq	%rdi, -32(%rbp)
	movq	%rsi, -24(%rbp)
Ltmp130:
	.loc	10 309 5 prologue_end
	movq	$1, -16(%rbp)
Ltmp131:
	.loc	15 806 17
	movb	$1, %al
	testb	$1, %al
	jne	LBB45_2
	movb	$0, -33(%rbp)
	jmp	LBB45_3
LBB45_2:
	movb	$1, -33(%rbp)
LBB45_3:
	.loc	15 806 9 is_stmt 0
	movb	-33(%rbp), %al
	xorb	$-1, %al
	testb	$1, %al
	jne	LBB45_5
	.loc	15 0 9
	movq	-48(%rbp), %rcx
	movq	-56(%rbp), %rax
	.loc	15 808 18 is_stmt 1
	subq	%rcx, %rax
	shrq	$0, %rax
	movq	%rax, -8(%rbp)
	movq	-8(%rbp), %rax
Ltmp132:
	.loc	15 809 6
	addq	$64, %rsp
	popq	%rbp
	retq
LBB45_5:
Ltmp133:
	.loc	15 806 9
	leaq	l___unnamed_16(%rip), %rdi
	leaq	l___unnamed_17(%rip), %rdx
	movl	$73, %esi
	callq	__ZN4core9panicking5panic17hc1bc45270cf64b03E
Ltmp134:
Lfunc_end45:
	.cfi_endproc

	.p2align	4, 0x90
__ZN4core3str21_$LT$impl$u20$str$GT$3len17h5a150d0122a4a362E:
Lfunc_begin46:
	.file	16 "/rustc/2c8cc343237b8f7d5a3c3703e3a87f2eb2c54a74/library/core/src/str" "mod.rs"
	.loc	16 159 0
	.cfi_startproc
	pushq	%rbp
	.cfi_def_cfa_offset 16
	.cfi_offset %rbp, -16
	movq	%rsp, %rbp
	.cfi_def_cfa_register %rbp
	subq	$48, %rsp
	movq	%rdi, -48(%rbp)
	movq	%rsi, -40(%rbp)
Ltmp135:
	.loc	16 160 9 prologue_end
	movq	%rdi, -32(%rbp)
	movq	%rsi, -24(%rbp)
Ltmp136:
	.loc	16 327 18
	movq	%rdi, -16(%rbp)
	movq	%rsi, -8(%rbp)
	movq	-8(%rbp), %rax
Ltmp137:
	.loc	16 161 6
	addq	$48, %rsp
	popq	%rbp
	retq
Ltmp138:
Lfunc_end46:
	.cfi_endproc

	.p2align	4, 0x90
__ZN4core3str21_$LT$impl$u20$str$GT$5bytes17h8a86525b52f386d8E:
Lfunc_begin47:
	.loc	16 864 0
	.cfi_startproc
	pushq	%rbp
	.cfi_def_cfa_offset 16
	.cfi_offset %rbp, -16
	movq	%rsp, %rbp
	.cfi_def_cfa_register %rbp
	subq	$80, %rsp
	movq	%rdi, -64(%rbp)
	movq	%rsi, -56(%rbp)
Ltmp139:
	.loc	16 865 15 prologue_end
	movq	%rdi, -48(%rbp)
	movq	%rsi, -40(%rbp)
Ltmp140:
	.loc	16 327 18
	movq	%rdi, -32(%rbp)
	movq	%rsi, -24(%rbp)
	movq	-32(%rbp), %rdi
	movq	-24(%rbp), %rsi
Ltmp141:
	.loc	16 865 15
	movq	%rdi, -16(%rbp)
	movq	%rsi, -8(%rbp)
Ltmp142:
	.file	17 "/rustc/2c8cc343237b8f7d5a3c3703e3a87f2eb2c54a74/library/core/src/slice" "mod.rs"
	.loc	17 742 9
	callq	__ZN4core5slice4iter13Iter$LT$T$GT$3new17h744457bbc69063cbE
	movq	%rax, %rdi
	movq	%rdx, %rsi
Ltmp143:
	.loc	16 865 15
	callq	__ZN4core4iter6traits8iterator8Iterator6copied17hf49d83b1e26cdd8cE
	.loc	16 865 9 is_stmt 0
	movq	%rax, -80(%rbp)
	movq	%rdx, -72(%rbp)
	.loc	16 866 6 is_stmt 1
	movq	-80(%rbp), %rax
	movq	-72(%rbp), %rdx
	addq	$80, %rsp
	popq	%rbp
	retq
Ltmp144:
Lfunc_end47:
	.cfi_endproc

	.globl	__ZN4core4iter6traits8iterator8Iterator3all17ha1d772b1b4312031E
	.p2align	4, 0x90
__ZN4core4iter6traits8iterator8Iterator3all17ha1d772b1b4312031E:
Lfunc_begin48:
	.file	18 "/rustc/2c8cc343237b8f7d5a3c3703e3a87f2eb2c54a74/library/core/src/iter/traits" "iterator.rs"
	.loc	18 2596 0
	.cfi_startproc
	pushq	%rbp
	.cfi_def_cfa_offset 16
	.cfi_offset %rbp, -16
	movq	%rsp, %rbp
	.cfi_def_cfa_register %rbp
	subq	$48, %rsp
	movq	%rdi, -24(%rbp)
Ltmp145:
	.loc	18 2607 9 prologue_end
	callq	__ZN4core4iter6traits8iterator8Iterator8try_fold17heb4a86e0e3504188E
	andb	$1, %al
	movb	%al, -33(%rbp)
	leaq	-33(%rbp), %rdi
	leaq	l___unnamed_18(%rip), %rsi
	callq	__ZN90_$LT$core..ops..control_flow..ControlFlow$LT$B$C$C$GT$$u20$as$u20$core..cmp..PartialEq$GT$2eq17h1311aa30b055eb10E
	.loc	18 2608 6
	andb	$1, %al
	movzbl	%al, %eax
	addq	$48, %rsp
	popq	%rbp
	retq
Ltmp146:
Lfunc_end48:
	.cfi_endproc

	.globl	__ZN4core4iter6traits8iterator8Iterator3all5check28_$u7b$$u7b$closure$u7d$$u7d$17h8ad7acd3549d8fd2E
	.p2align	4, 0x90
__ZN4core4iter6traits8iterator8Iterator3all5check28_$u7b$$u7b$closure$u7d$$u7d$17h8ad7acd3549d8fd2E:
Lfunc_begin49:
	.loc	18 2603 0
	.cfi_startproc
	pushq	%rbp
	.cfi_def_cfa_offset 16
	.cfi_offset %rbp, -16
	movq	%rsp, %rbp
	.cfi_def_cfa_register %rbp
	subq	$48, %rsp
	movb	%dl, %al
	movb	%sil, %cl
	movq	%rdi, -24(%rbp)
	movb	%cl, -8(%rbp)
	movb	%al, -7(%rbp)
Ltmp147:
	.loc	18 2604 20 prologue_end
	movb	%cl, -32(%rbp)
	movb	%al, -31(%rbp)
	movb	-32(%rbp), %al
	movzbl	%al, %esi
	movzbl	-31(%rbp), %edx
	callq	__ZN3log20eq_ignore_ascii_case28_$u7b$$u7b$closure$u7d$$u7d$17h244387c573b029f0E
	testb	$1, %al
	jne	LBB49_2
	.loc	18 2604 58 is_stmt 0
	movb	$1, -33(%rbp)
	.loc	18 2604 17
	jmp	LBB49_3
LBB49_2:
	.loc	18 2604 27
	movb	$0, -33(%rbp)
LBB49_3:
	.loc	18 2605 14 is_stmt 1
	movb	-33(%rbp), %al
	andb	$1, %al
	movzbl	%al, %eax
	addq	$48, %rsp
	popq	%rbp
	retq
Ltmp148:
Lfunc_end49:
	.cfi_endproc

	.globl	__ZN4core4iter6traits8iterator8Iterator3map17h0501f2bf2c770381E
	.p2align	4, 0x90
__ZN4core4iter6traits8iterator8Iterator3map17h0501f2bf2c770381E:
Lfunc_begin50:
	.loc	18 782 0
	.cfi_startproc
	pushq	%rbp
	.cfi_def_cfa_offset 16
	.cfi_offset %rbp, -16
	movq	%rsp, %rbp
	.cfi_def_cfa_register %rbp
	subq	$32, %rsp
	movq	%rdi, -24(%rbp)
	movq	%rsi, -16(%rbp)
Ltmp149:
	.loc	18 787 9 prologue_end
	callq	__ZN4core4iter8adapters3map16Map$LT$I$C$F$GT$3new17hdf9c6c3c6ea27caeE
	.loc	18 788 6
	addq	$32, %rsp
	popq	%rbp
	retq
Ltmp150:
Lfunc_end50:
	.cfi_endproc

	.globl	__ZN4core4iter6traits8iterator8Iterator3map17h3a81775f29f37d16E
	.p2align	4, 0x90
__ZN4core4iter6traits8iterator8Iterator3map17h3a81775f29f37d16E:
Lfunc_begin51:
	.loc	18 782 0
	.cfi_startproc
	pushq	%rbp
	.cfi_def_cfa_offset 16
	.cfi_offset %rbp, -16
	movq	%rsp, %rbp
	.cfi_def_cfa_register %rbp
	subq	$32, %rsp
	movq	%rdi, -24(%rbp)
	movq	%rsi, -16(%rbp)
Ltmp151:
	.loc	18 787 9 prologue_end
	callq	__ZN4core4iter8adapters3map16Map$LT$I$C$F$GT$3new17hdd70d4cb2533def3E
	.loc	18 788 6
	addq	$32, %rsp
	popq	%rbp
	retq
Ltmp152:
Lfunc_end51:
	.cfi_endproc

	.globl	__ZN4core4iter6traits8iterator8Iterator3map17hc2803ddcd2e004caE
	.p2align	4, 0x90
__ZN4core4iter6traits8iterator8Iterator3map17hc2803ddcd2e004caE:
Lfunc_begin52:
	.loc	18 782 0
	.cfi_startproc
	pushq	%rbp
	.cfi_def_cfa_offset 16
	.cfi_offset %rbp, -16
	movq	%rsp, %rbp
	.cfi_def_cfa_register %rbp
	subq	$32, %rsp
	movq	%rdi, -24(%rbp)
	movq	%rsi, -16(%rbp)
Ltmp153:
	.loc	18 787 9 prologue_end
	callq	__ZN4core4iter8adapters3map16Map$LT$I$C$F$GT$3new17h67bdc7cda9559b77E
	.loc	18 788 6
	addq	$32, %rsp
	popq	%rbp
	retq
Ltmp154:
Lfunc_end52:
	.cfi_endproc

	.globl	__ZN4core4iter6traits8iterator8Iterator3zip17h2f2ab818e6f22429E
	.p2align	4, 0x90
__ZN4core4iter6traits8iterator8Iterator3zip17h2f2ab818e6f22429E:
Lfunc_begin53:
	.loc	18 623 0
	.cfi_startproc
	.cfi_personality 155, _rust_eh_personality
	.cfi_lsda 16, Lexception3
	pushq	%rbp
	.cfi_def_cfa_offset 16
	.cfi_offset %rbp, -16
	movq	%rsp, %rbp
	.cfi_def_cfa_register %rbp
	subq	$128, %rsp
	movq	%r8, -112(%rbp)
	movq	%rcx, -96(%rbp)
	movq	%rdx, -120(%rbp)
	movq	%rsi, %rax
	movq	-112(%rbp), %rsi
	movq	%rax, -104(%rbp)
	movq	%rdi, %rcx
	movq	-96(%rbp), %rdi
	movq	%rcx, -88(%rbp)
	movq	%rcx, -80(%rbp)
	movq	%rax, -48(%rbp)
	movq	%rdx, -40(%rbp)
	movq	%rdi, -32(%rbp)
	movq	%rsi, -24(%rbp)
Ltmp160:
	.loc	18 628 18 prologue_end
	movb	$1, -49(%rbp)
Ltmp155:
	.loc	18 628 24 is_stmt 0
	callq	__ZN63_$LT$I$u20$as$u20$core..iter..traits..collect..IntoIterator$GT$9into_iter17hd9f8700dbd07d778E
Ltmp156:
	movq	%rdx, -72(%rbp)
	movq	%rax, -64(%rbp)
	jmp	LBB53_3
LBB53_1:
	.loc	18 628 41
	testb	$1, -49(%rbp)
	jne	LBB53_6
	jmp	LBB53_5
LBB53_2:
Ltmp159:
	.loc	18 0 41
	movq	%rax, %rcx
	movl	%edx, %eax
	movq	%rcx, -16(%rbp)
	movl	%eax, -8(%rbp)
	jmp	LBB53_1
LBB53_3:
	movq	-72(%rbp), %r8
	movq	-64(%rbp), %rcx
	movq	-120(%rbp), %rdx
	movq	-104(%rbp), %rsi
	movq	-88(%rbp), %rdi
	.loc	18 628 9
	movb	$0, -49(%rbp)
Ltmp157:
	callq	__ZN4core4iter8adapters3zip16Zip$LT$A$C$B$GT$3new17hcb5aa0ae9d9316cfE
Ltmp158:
	jmp	LBB53_4
LBB53_4:
	.loc	18 0 9
	movq	-80(%rbp), %rax
	.loc	18 629 6 is_stmt 1
	addq	$128, %rsp
	popq	%rbp
	retq
LBB53_5:
	.loc	18 623 5
	movq	-16(%rbp), %rdi
	callq	__Unwind_Resume
LBB53_6:
	.loc	18 628 41
	jmp	LBB53_5
Ltmp161:
Lfunc_end53:
	.cfi_endproc
	.section	__TEXT,__gcc_except_tab
	.p2align	2
GCC_except_table53:
Lexception3:
	.byte	255
	.byte	255
	.byte	1
	.uleb128 Lcst_end3-Lcst_begin3
Lcst_begin3:
	.uleb128 Ltmp155-Lfunc_begin53
	.uleb128 Ltmp158-Ltmp155
	.uleb128 Ltmp159-Lfunc_begin53
	.byte	0
	.uleb128 Ltmp158-Lfunc_begin53
	.uleb128 Lfunc_end53-Ltmp158
	.byte	0
	.byte	0
Lcst_end3:
	.p2align	2

	.section	__TEXT,__text,regular,pure_instructions
	.globl	__ZN4core4iter6traits8iterator8Iterator4find17h34305f8f71e7546dE
	.p2align	4, 0x90
__ZN4core4iter6traits8iterator8Iterator4find17h34305f8f71e7546dE:
Lfunc_begin54:
	.loc	18 2712 0
	.cfi_startproc
	pushq	%rbp
	.cfi_def_cfa_offset 16
	.cfi_offset %rbp, -16
	movq	%rsp, %rbp
	.cfi_def_cfa_register %rbp
	subq	$32, %rsp
	movq	%rdi, -24(%rbp)
	movq	%rsi, -16(%rbp)
Ltmp162:
	.loc	18 2724 33 prologue_end
	movq	%rsi, -8(%rbp)
Ltmp163:
	.loc	18 2719 13
	movq	%rsi, -32(%rbp)
Ltmp164:
	.loc	18 2724 9
	movq	-32(%rbp), %rsi
	callq	__ZN4core4iter6traits8iterator8Iterator8try_fold17h3fd91b471c99a2aeE
	movq	%rax, %rdi
	movq	%rdx, %rsi
	callq	__ZN4core3ops12control_flow24ControlFlow$LT$B$C$C$GT$11break_value17h7888a733507ea52dE
	.loc	18 2725 6
	addq	$32, %rsp
	popq	%rbp
	retq
Ltmp165:
Lfunc_end54:
	.cfi_endproc

	.globl	__ZN4core4iter6traits8iterator8Iterator4find5check28_$u7b$$u7b$closure$u7d$$u7d$17hc6a83eb958753190E
	.p2align	4, 0x90
__ZN4core4iter6traits8iterator8Iterator4find5check28_$u7b$$u7b$closure$u7d$$u7d$17hc6a83eb958753190E:
Lfunc_begin55:
	.loc	18 2719 0
	.cfi_startproc
	.cfi_personality 155, _rust_eh_personality
	.cfi_lsda 16, Lexception4
	pushq	%rbp
	.cfi_def_cfa_offset 16
	.cfi_offset %rbp, -16
	movq	%rsp, %rbp
	.cfi_def_cfa_register %rbp
	subq	$80, %rsp
	movq	%rsi, -72(%rbp)
	movq	%rdi, -32(%rbp)
Ltmp169:
	.loc	18 2720 20 prologue_end
	movb	$1, -33(%rbp)
	leaq	-72(%rbp), %rax
	movq	%rax, -48(%rbp)
	movq	-48(%rbp), %rsi
Ltmp166:
	callq	__ZN4core3ops8function5impls79_$LT$impl$u20$core..ops..function..FnMut$LT$A$GT$$u20$for$u20$$RF$mut$u20$F$GT$8call_mut17hd8fac1d203dbcb58E
Ltmp167:
	movb	%al, -73(%rbp)
	jmp	LBB55_3
LBB55_1:
	.loc	18 2719 13
	movq	-16(%rbp), %rdi
	callq	__Unwind_Resume
LBB55_2:
Ltmp168:
	.loc	18 0 13 is_stmt 0
	movq	%rax, %rcx
	movl	%edx, %eax
	movq	%rcx, -16(%rbp)
	movl	%eax, -8(%rbp)
	jmp	LBB55_1
LBB55_3:
	movb	-73(%rbp), %al
	.loc	18 2720 20 is_stmt 1
	testb	$1, %al
	jne	LBB55_5
	jmp	LBB55_4
LBB55_4:
	.loc	18 2720 67 is_stmt 0
	movq	L___unnamed_19(%rip), %rcx
	movq	L___unnamed_19+8(%rip), %rax
	movq	%rcx, -64(%rbp)
	movq	%rax, -56(%rbp)
	.loc	18 2720 17
	jmp	LBB55_6
LBB55_5:
	.loc	18 2720 55
	movb	$0, -33(%rbp)
	movq	-72(%rbp), %rax
	.loc	18 2720 36
	movq	%rax, -56(%rbp)
	movq	$1, -64(%rbp)
LBB55_6:
	.loc	18 2721 13 is_stmt 1
	testb	$1, -33(%rbp)
	jne	LBB55_8
LBB55_7:
	.loc	18 2721 14 is_stmt 0
	movq	-64(%rbp), %rax
	movq	-56(%rbp), %rdx
	addq	$80, %rsp
	popq	%rbp
	retq
LBB55_8:
	.loc	18 2721 13
	jmp	LBB55_7
Ltmp170:
Lfunc_end55:
	.cfi_endproc
	.section	__TEXT,__gcc_except_tab
	.p2align	2
GCC_except_table55:
Lexception4:
	.byte	255
	.byte	255
	.byte	1
	.uleb128 Lcst_end4-Lcst_begin4
Lcst_begin4:
	.uleb128 Ltmp166-Lfunc_begin55
	.uleb128 Ltmp167-Ltmp166
	.uleb128 Ltmp168-Lfunc_begin55
	.byte	0
	.uleb128 Ltmp167-Lfunc_begin55
	.uleb128 Lfunc_end55-Ltmp167
	.byte	0
	.byte	0
Lcst_end4:
	.p2align	2

	.section	__TEXT,__text,regular,pure_instructions
	.globl	__ZN4core4iter6traits8iterator8Iterator6copied17hf49d83b1e26cdd8cE
	.p2align	4, 0x90
__ZN4core4iter6traits8iterator8Iterator6copied17hf49d83b1e26cdd8cE:
Lfunc_begin56:
	.loc	18 3249 0 is_stmt 1
	.cfi_startproc
	pushq	%rbp
	.cfi_def_cfa_offset 16
	.cfi_offset %rbp, -16
	movq	%rsp, %rbp
	.cfi_def_cfa_register %rbp
	subq	$16, %rsp
	movq	%rdi, -16(%rbp)
	movq	%rsi, -8(%rbp)
Ltmp171:
	.loc	18 3254 9 prologue_end
	callq	__ZN4core4iter8adapters6copied15Copied$LT$I$GT$3new17h3c3aa5f1cb59e8ddE
	.loc	18 3255 6
	addq	$16, %rsp
	popq	%rbp
	retq
Ltmp172:
Lfunc_end56:
	.cfi_endproc

	.globl	__ZN4core4iter6traits8iterator8Iterator6filter17h1e48e782eb8de1b4E
	.p2align	4, 0x90
__ZN4core4iter6traits8iterator8Iterator6filter17h1e48e782eb8de1b4E:
Lfunc_begin57:
	.loc	18 902 0
	.cfi_startproc
	pushq	%rbp
	.cfi_def_cfa_offset 16
	.cfi_offset %rbp, -16
	movq	%rsp, %rbp
	.cfi_def_cfa_register %rbp
	subq	$32, %rsp
	movq	%rdi, -24(%rbp)
	movq	%rsi, -16(%rbp)
Ltmp173:
	.loc	18 907 9 prologue_end
	callq	__ZN4core4iter8adapters6filter19Filter$LT$I$C$P$GT$3new17ha35efa688d045260E
	.loc	18 908 6
	addq	$32, %rsp
	popq	%rbp
	retq
Ltmp174:
Lfunc_end57:
	.cfi_endproc

	.globl	__ZN4core4iter6traits8iterator8Iterator8try_fold17h3fd91b471c99a2aeE
	.p2align	4, 0x90
__ZN4core4iter6traits8iterator8Iterator8try_fold17h3fd91b471c99a2aeE:
Lfunc_begin58:
	.loc	18 2254 0
	.cfi_startproc
	.cfi_personality 155, _rust_eh_personality
	.cfi_lsda 16, Lexception5
	pushq	%rbp
	.cfi_def_cfa_offset 16
	.cfi_offset %rbp, -16
	movq	%rsp, %rbp
	.cfi_def_cfa_register %rbp
	subq	$224, %rsp
	movq	%rdi, -144(%rbp)
	movq	%rsi, -136(%rbp)
	movq	%rdi, -64(%rbp)
Ltmp186:
	.loc	18 2260 25 prologue_end
	movb	$1, -65(%rbp)
LBB58_1:
Ltmp175:
	.loc	18 0 25 is_stmt 0
	movq	-144(%rbp), %rdi
Ltmp187:
	.loc	18 2261 29 is_stmt 1
	callq	__ZN90_$LT$core..option..IntoIter$LT$A$GT$$u20$as$u20$core..iter..traits..iterator..Iterator$GT$4next17h13b05b899c8207c0E
Ltmp176:
	movq	%rdx, -160(%rbp)
	movq	%rax, -152(%rbp)
	jmp	LBB58_4
Ltmp188:
LBB58_2:
	.loc	18 2265 5
	testb	$1, -65(%rbp)
	jne	LBB58_16
	jmp	LBB58_15
LBB58_3:
Ltmp185:
	.loc	18 0 5 is_stmt 0
	movq	%rax, %rcx
	movl	%edx, %eax
	movq	%rcx, -32(%rbp)
	movl	%eax, -24(%rbp)
	jmp	LBB58_2
LBB58_4:
	movq	-160(%rbp), %rax
	movq	-152(%rbp), %rcx
Ltmp189:
	.loc	18 2261 29 is_stmt 1
	movq	%rcx, -112(%rbp)
	movq	%rax, -104(%rbp)
	.loc	18 2261 19 is_stmt 0
	cmpq	$1, -112(%rbp)
	jne	LBB58_6
	.loc	18 2261 24
	movq	-104(%rbp), %rax
	movq	%rax, -16(%rbp)
	.loc	18 2262 23 is_stmt 1
	movb	$0, -65(%rbp)
	.loc	18 2262 21 is_stmt 0
	movq	%rax, -80(%rbp)
	movq	-80(%rbp), %rsi
Ltmp179:
	leaq	-136(%rbp), %rdi
	callq	__ZN4core4iter6traits8iterator8Iterator4find5check28_$u7b$$u7b$closure$u7d$$u7d$17hc6a83eb958753190E
Ltmp180:
	movq	%rdx, -176(%rbp)
	movq	%rax, -168(%rbp)
	jmp	LBB58_10
Ltmp190:
LBB58_6:
	.loc	18 2261 9 is_stmt 1
	jmp	LBB58_7
LBB58_7:
	.loc	18 2264 15
	movb	$0, -65(%rbp)
Ltmp177:
	callq	__ZN95_$LT$core..ops..control_flow..ControlFlow$LT$B$C$C$GT$$u20$as$u20$core..ops..try_trait..Try$GT$11from_output17hf4c8240c89ce46f0E
Ltmp178:
	movq	%rdx, -192(%rbp)
	movq	%rax, -184(%rbp)
	jmp	LBB58_8
LBB58_8:
	.loc	18 0 15 is_stmt 0
	movq	-192(%rbp), %rax
	movq	-184(%rbp), %rcx
	.loc	18 2264 15
	movq	%rcx, -128(%rbp)
	movq	%rax, -120(%rbp)
Ltmp191:
LBB58_9:
	.loc	18 2265 6 is_stmt 1
	movq	-128(%rbp), %rax
	movq	-120(%rbp), %rdx
	addq	$224, %rsp
	popq	%rbp
	retq
LBB58_10:
Ltmp181:
	.loc	18 0 6 is_stmt 0
	movq	-176(%rbp), %rsi
	movq	-168(%rbp), %rdi
Ltmp192:
	.loc	18 2262 21 is_stmt 1
	callq	__ZN95_$LT$core..ops..control_flow..ControlFlow$LT$B$C$C$GT$$u20$as$u20$core..ops..try_trait..Try$GT$6branch17h6e540238ad0bbc9eE
Ltmp182:
	movq	%rdx, -208(%rbp)
	movq	%rax, -200(%rbp)
	jmp	LBB58_11
LBB58_11:
	.loc	18 0 21 is_stmt 0
	movq	-208(%rbp), %rax
	movq	-200(%rbp), %rcx
	.loc	18 2262 21
	movq	%rcx, -96(%rbp)
	movq	%rax, -88(%rbp)
	cmpq	$0, -96(%rbp)
	jne	LBB58_13
	.loc	18 2262 13
	movb	$1, -65(%rbp)
Ltmp193:
	.loc	18 2261 9 is_stmt 1
	jmp	LBB58_1
LBB58_13:
Ltmp194:
	.loc	18 2262 32
	movq	-88(%rbp), %rdi
	movq	%rdi, -8(%rbp)
Ltmp183:
Ltmp195:
	.loc	18 2262 21 is_stmt 0
	callq	__ZN104_$LT$core..ops..control_flow..ControlFlow$LT$B$C$C$GT$$u20$as$u20$core..ops..try_trait..FromResidual$GT$13from_residual17h6d4baad6ee6d56b4E
Ltmp184:
	movq	%rdx, -224(%rbp)
	movq	%rax, -216(%rbp)
	jmp	LBB58_14
LBB58_14:
	.loc	18 0 21
	movq	-224(%rbp), %rax
	movq	-216(%rbp), %rcx
	.loc	18 2262 21
	movq	%rcx, -128(%rbp)
	movq	%rax, -120(%rbp)
Ltmp196:
	.loc	18 2265 5 is_stmt 1
	jmp	LBB58_9
LBB58_15:
	.loc	18 2254 5
	movq	-32(%rbp), %rdi
	callq	__Unwind_Resume
LBB58_16:
	.loc	18 2265 5
	jmp	LBB58_15
Ltmp197:
Lfunc_end58:
	.cfi_endproc
	.section	__TEXT,__gcc_except_tab
	.p2align	2
GCC_except_table58:
Lexception5:
	.byte	255
	.byte	255
	.byte	1
	.uleb128 Lcst_end5-Lcst_begin5
Lcst_begin5:
	.uleb128 Ltmp175-Lfunc_begin58
	.uleb128 Ltmp184-Ltmp175
	.uleb128 Ltmp185-Lfunc_begin58
	.byte	0
	.uleb128 Ltmp184-Lfunc_begin58
	.uleb128 Lfunc_end58-Ltmp184
	.byte	0
	.byte	0
Lcst_end5:
	.p2align	2

	.section	__TEXT,__text,regular,pure_instructions
	.globl	__ZN4core4iter6traits8iterator8Iterator8try_fold17heb4a86e0e3504188E
	.p2align	4, 0x90
__ZN4core4iter6traits8iterator8Iterator8try_fold17heb4a86e0e3504188E:
Lfunc_begin59:
	.loc	18 2254 0
	.cfi_startproc
	.cfi_personality 155, _rust_eh_personality
	.cfi_lsda 16, Lexception6
	pushq	%rbp
	.cfi_def_cfa_offset 16
	.cfi_offset %rbp, -16
	movq	%rsp, %rbp
	.cfi_def_cfa_register %rbp
	subq	$112, %rsp
	movq	%rdi, -104(%rbp)
	movq	%rdi, -72(%rbp)
Ltmp209:
	.loc	18 2260 25 prologue_end
	movb	$1, -73(%rbp)
LBB59_1:
Ltmp198:
	.loc	18 0 25 is_stmt 0
	movq	-104(%rbp), %rdi
Ltmp210:
	.loc	18 2261 29 is_stmt 1
	callq	__ZN102_$LT$core..iter..adapters..zip..Zip$LT$A$C$B$GT$$u20$as$u20$core..iter..traits..iterator..Iterator$GT$4next17hfa419e7a4a456368E
Ltmp199:
	movl	%eax, -108(%rbp)
	jmp	LBB59_4
Ltmp211:
LBB59_2:
	.loc	18 2265 5
	testb	$1, -73(%rbp)
	jne	LBB59_16
	jmp	LBB59_15
LBB59_3:
Ltmp208:
	.loc	18 0 5 is_stmt 0
	movq	%rax, %rcx
	movl	%edx, %eax
	movq	%rcx, -32(%rbp)
	movl	%eax, -24(%rbp)
	jmp	LBB59_2
LBB59_4:
	movl	-108(%rbp), %eax
Ltmp212:
	.loc	18 2261 29 is_stmt 1
	movw	%ax, %cx
	movw	%cx, -12(%rbp)
	shrl	$16, %eax
	movb	%al, -10(%rbp)
	movw	-12(%rbp), %ax
	movw	%ax, -88(%rbp)
	movb	-10(%rbp), %al
	movb	%al, -86(%rbp)
	.loc	18 2261 19 is_stmt 0
	movb	-88(%rbp), %al
	andb	$1, %al
	movzbl	%al, %eax
	cmpq	$1, %rax
	jne	LBB59_6
	.loc	18 2261 24
	movb	-87(%rbp), %cl
	movb	-86(%rbp), %al
	movb	%cl, -8(%rbp)
	movb	%al, -7(%rbp)
	.loc	18 2262 23 is_stmt 1
	movb	$0, -73(%rbp)
	.loc	18 2262 21 is_stmt 0
	movb	%cl, -80(%rbp)
	movb	%al, -79(%rbp)
	movzbl	-79(%rbp), %edx
	movzbl	-80(%rbp), %esi
Ltmp202:
	leaq	-96(%rbp), %rdi
	callq	__ZN4core4iter6traits8iterator8Iterator3all5check28_$u7b$$u7b$closure$u7d$$u7d$17h8ad7acd3549d8fd2E
Ltmp203:
	movb	%al, -109(%rbp)
	jmp	LBB59_10
Ltmp213:
LBB59_6:
	.loc	18 2261 9 is_stmt 1
	jmp	LBB59_7
LBB59_7:
	.loc	18 2264 15
	movb	$0, -73(%rbp)
Ltmp200:
	callq	__ZN95_$LT$core..ops..control_flow..ControlFlow$LT$B$C$C$GT$$u20$as$u20$core..ops..try_trait..Try$GT$11from_output17hc3a99c0629c357baE
Ltmp201:
	movb	%al, -110(%rbp)
	jmp	LBB59_8
LBB59_8:
	.loc	18 0 15 is_stmt 0
	movb	-110(%rbp), %al
	.loc	18 2264 15
	andb	$1, %al
	movb	%al, -89(%rbp)
Ltmp214:
LBB59_9:
	.loc	18 2265 6 is_stmt 1
	movb	-89(%rbp), %al
	andb	$1, %al
	movzbl	%al, %eax
	addq	$112, %rsp
	popq	%rbp
	retq
LBB59_10:
Ltmp204:
	.loc	18 0 6 is_stmt 0
	movb	-109(%rbp), %al
Ltmp215:
	.loc	18 2262 21 is_stmt 1
	movzbl	%al, %edi
	andl	$1, %edi
	callq	__ZN95_$LT$core..ops..control_flow..ControlFlow$LT$B$C$C$GT$$u20$as$u20$core..ops..try_trait..Try$GT$6branch17h12b344efbb0e6464E
Ltmp205:
	movb	%al, -111(%rbp)
	jmp	LBB59_11
LBB59_11:
	.loc	18 0 21 is_stmt 0
	movb	-111(%rbp), %al
	.loc	18 2262 21
	andb	$1, %al
	movb	%al, -81(%rbp)
	movb	-81(%rbp), %al
	andb	$1, %al
	movzbl	%al, %eax
	cmpq	$0, %rax
	jne	LBB59_13
	.loc	18 2262 13
	movb	$1, -73(%rbp)
Ltmp216:
	.loc	18 2261 9 is_stmt 1
	jmp	LBB59_1
LBB59_13:
Ltmp206:
Ltmp217:
	.loc	18 2262 21
	callq	__ZN104_$LT$core..ops..control_flow..ControlFlow$LT$B$C$C$GT$$u20$as$u20$core..ops..try_trait..FromResidual$GT$13from_residual17hedeb7e4701ef193cE
Ltmp207:
	movb	%al, -112(%rbp)
	jmp	LBB59_14
LBB59_14:
	.loc	18 0 21 is_stmt 0
	movb	-112(%rbp), %al
	.loc	18 2262 21
	andb	$1, %al
	movb	%al, -89(%rbp)
Ltmp218:
	.loc	18 2265 5 is_stmt 1
	jmp	LBB59_9
LBB59_15:
	.loc	18 2254 5
	movq	-32(%rbp), %rdi
	callq	__Unwind_Resume
LBB59_16:
	.loc	18 2265 5
	jmp	LBB59_15
Ltmp219:
Lfunc_end59:
	.cfi_endproc
	.section	__TEXT,__gcc_except_tab
	.p2align	2
GCC_except_table59:
Lexception6:
	.byte	255
	.byte	255
	.byte	1
	.uleb128 Lcst_end6-Lcst_begin6
Lcst_begin6:
	.uleb128 Ltmp198-Lfunc_begin59
	.uleb128 Ltmp207-Ltmp198
	.uleb128 Ltmp208-Lfunc_begin59
	.byte	0
	.uleb128 Ltmp207-Lfunc_begin59
	.uleb128 Lfunc_end59-Ltmp207
	.byte	0
	.byte	0
Lcst_end6:
	.p2align	2

	.section	__TEXT,__text,regular,pure_instructions
	.globl	__ZN4core4iter8adapters3map16Map$LT$I$C$F$GT$3new17h67bdc7cda9559b77E
	.p2align	4, 0x90
__ZN4core4iter8adapters3map16Map$LT$I$C$F$GT$3new17h67bdc7cda9559b77E:
Lfunc_begin60:
	.loc	2 68 0
	.cfi_startproc
	pushq	%rbp
	.cfi_def_cfa_offset 16
	.cfi_offset %rbp, -16
	movq	%rsp, %rbp
	.cfi_def_cfa_register %rbp
	subq	$40, %rsp
	movq	%rdi, -24(%rbp)
	movq	%rsi, -16(%rbp)
Ltmp220:
	.loc	2 69 9 prologue_end
	movq	%rdi, -40(%rbp)
	movq	%rsi, -32(%rbp)
	.loc	2 70 6
	movq	-40(%rbp), %rax
	movq	-32(%rbp), %rdx
	addq	$40, %rsp
	popq	%rbp
	retq
Ltmp221:
Lfunc_end60:
	.cfi_endproc

	.globl	__ZN4core4iter8adapters3map16Map$LT$I$C$F$GT$3new17hdd70d4cb2533def3E
	.p2align	4, 0x90
__ZN4core4iter8adapters3map16Map$LT$I$C$F$GT$3new17hdd70d4cb2533def3E:
Lfunc_begin61:
	.loc	2 68 0
	.cfi_startproc
	pushq	%rbp
	.cfi_def_cfa_offset 16
	.cfi_offset %rbp, -16
	movq	%rsp, %rbp
	.cfi_def_cfa_register %rbp
	subq	$40, %rsp
	movq	%rdi, -24(%rbp)
	movq	%rsi, -16(%rbp)
Ltmp222:
	.loc	2 69 9 prologue_end
	movq	%rdi, -40(%rbp)
	movq	%rsi, -32(%rbp)
	.loc	2 70 6
	movq	-40(%rbp), %rax
	movq	-32(%rbp), %rdx
	addq	$40, %rsp
	popq	%rbp
	retq
Ltmp223:
Lfunc_end61:
	.cfi_endproc

	.globl	__ZN4core4iter8adapters3map16Map$LT$I$C$F$GT$3new17hdf9c6c3c6ea27caeE
	.p2align	4, 0x90
__ZN4core4iter8adapters3map16Map$LT$I$C$F$GT$3new17hdf9c6c3c6ea27caeE:
Lfunc_begin62:
	.loc	2 68 0
	.cfi_startproc
	pushq	%rbp
	.cfi_def_cfa_offset 16
	.cfi_offset %rbp, -16
	movq	%rsp, %rbp
	.cfi_def_cfa_register %rbp
	subq	$40, %rsp
	movq	%rdi, -24(%rbp)
	movq	%rsi, -16(%rbp)
Ltmp224:
	.loc	2 69 9 prologue_end
	movq	%rdi, -40(%rbp)
	movq	%rsi, -32(%rbp)
	.loc	2 70 6
	movq	-40(%rbp), %rax
	movq	-32(%rbp), %rdx
	addq	$40, %rsp
	popq	%rbp
	retq
Ltmp225:
Lfunc_end62:
	.cfi_endproc

	.globl	__ZN4core4iter8adapters3zip16Zip$LT$A$C$B$GT$3new17hcb5aa0ae9d9316cfE
	.p2align	4, 0x90
__ZN4core4iter8adapters3zip16Zip$LT$A$C$B$GT$3new17hcb5aa0ae9d9316cfE:
Lfunc_begin63:
	.loc	3 22 0
	.cfi_startproc
	pushq	%rbp
	.cfi_def_cfa_offset 16
	.cfi_offset %rbp, -16
	movq	%rsp, %rbp
	.cfi_def_cfa_register %rbp
	subq	$48, %rsp
	movq	%rdi, %rax
	movq	%rax, -40(%rbp)
	movq	%rsi, -32(%rbp)
	movq	%rdx, -24(%rbp)
	movq	%rcx, -16(%rbp)
	movq	%r8, -8(%rbp)
Ltmp226:
	.loc	3 23 9 prologue_end
	callq	__ZN111_$LT$core..iter..adapters..zip..Zip$LT$A$C$B$GT$$u20$as$u20$core..iter..adapters..zip..ZipImpl$LT$A$C$B$GT$$GT$3new17h8e5a915268a5942dE
	movq	-40(%rbp), %rax
	.loc	3 24 6
	addq	$48, %rsp
	popq	%rbp
	retq
Ltmp227:
Lfunc_end63:
	.cfi_endproc

	.globl	__ZN4core4iter8adapters3zip27TrustedRandomAccessNoCoerce4size17h96eab6b36d77e91aE
	.p2align	4, 0x90
__ZN4core4iter8adapters3zip27TrustedRandomAccessNoCoerce4size17h96eab6b36d77e91aE:
Lfunc_begin64:
	.loc	3 538 0
	.cfi_startproc
	pushq	%rbp
	.cfi_def_cfa_offset 16
	.cfi_offset %rbp, -16
	movq	%rsp, %rbp
	.cfi_def_cfa_register %rbp
	subq	$32, %rsp
	movq	%rdi, %rsi
	movq	%rsi, -8(%rbp)
Ltmp228:
	.loc	3 542 9 prologue_end
	leaq	-32(%rbp), %rdi
	callq	__ZN81_$LT$core..str..iter..Bytes$u20$as$u20$core..iter..traits..iterator..Iterator$GT$9size_hint17h4f0aa7c208b54dbbE
	movq	-32(%rbp), %rax
	.loc	3 543 6
	addq	$32, %rsp
	popq	%rbp
	retq
Ltmp229:
Lfunc_end64:
	.cfi_endproc

	.globl	__ZN4core4iter8adapters6copied15Copied$LT$I$GT$3new17h3c3aa5f1cb59e8ddE
	.p2align	4, 0x90
__ZN4core4iter8adapters6copied15Copied$LT$I$GT$3new17h3c3aa5f1cb59e8ddE:
Lfunc_begin65:
	.loc	4 25 0
	.cfi_startproc
	pushq	%rbp
	.cfi_def_cfa_offset 16
	.cfi_offset %rbp, -16
	movq	%rsp, %rbp
	.cfi_def_cfa_register %rbp
	subq	$32, %rsp
	movq	%rdi, -16(%rbp)
	movq	%rsi, -8(%rbp)
Ltmp230:
	.loc	4 26 9 prologue_end
	movq	%rdi, -32(%rbp)
	movq	%rsi, -24(%rbp)
	.loc	4 27 6
	movq	-32(%rbp), %rax
	movq	-24(%rbp), %rdx
	addq	$32, %rsp
	popq	%rbp
	retq
Ltmp231:
Lfunc_end65:
	.cfi_endproc

	.globl	__ZN4core4iter8adapters6filter19Filter$LT$I$C$P$GT$3new17ha35efa688d045260E
	.p2align	4, 0x90
__ZN4core4iter8adapters6filter19Filter$LT$I$C$P$GT$3new17ha35efa688d045260E:
Lfunc_begin66:
	.loc	6 21 0
	.cfi_startproc
	pushq	%rbp
	.cfi_def_cfa_offset 16
	.cfi_offset %rbp, -16
	movq	%rsp, %rbp
	.cfi_def_cfa_register %rbp
	subq	$40, %rsp
	movq	%rdi, -24(%rbp)
	movq	%rsi, -16(%rbp)
Ltmp232:
	.loc	6 22 9 prologue_end
	movq	%rdi, -40(%rbp)
	movq	%rsi, -32(%rbp)
	.loc	6 23 6
	movq	-40(%rbp), %rax
	movq	-32(%rbp), %rdx
	addq	$40, %rsp
	popq	%rbp
	retq
Ltmp233:
Lfunc_end66:
	.cfi_endproc

	.p2align	4, 0x90
__ZN4core4sync6atomic11AtomicUsize16compare_exchange17h9fb4222996a07356E:
Lfunc_begin67:
	.file	19 "/rustc/2c8cc343237b8f7d5a3c3703e3a87f2eb2c54a74/library/core/src/sync" "atomic.rs"
	.loc	19 2292 0
	.cfi_startproc
	pushq	%rbp
	.cfi_def_cfa_offset 16
	.cfi_offset %rbp, -16
	movq	%rsp, %rbp
	.cfi_def_cfa_register %rbp
	subq	$48, %rsp
	movb	%r8b, %al
	movq	%rdi, -40(%rbp)
	movq	%rsi, -32(%rbp)
	movq	%rdx, -24(%rbp)
	movb	%cl, -10(%rbp)
	movb	%al, -9(%rbp)
Ltmp234:
	.loc	19 2298 50 prologue_end
	movq	%rdi, -8(%rbp)
	.loc	19 2298 26 is_stmt 0
	movzbl	%cl, %ecx
	movzbl	%al, %r8d
	callq	__ZN4core4sync6atomic23atomic_compare_exchange17he41b2445a0091c8dE
	.loc	19 2299 14 is_stmt 1
	addq	$48, %rsp
	popq	%rbp
	retq
Ltmp235:
Lfunc_end67:
	.cfi_endproc

	.p2align	4, 0x90
__ZN4core4sync6atomic11AtomicUsize4load17hd47e8ef69fa5df4dE:
Lfunc_begin68:
	.loc	19 2125 0
	.cfi_startproc
	pushq	%rbp
	.cfi_def_cfa_offset 16
	.cfi_offset %rbp, -16
	movq	%rsp, %rbp
	.cfi_def_cfa_register %rbp
	subq	$32, %rsp
	movb	%sil, %al
	movq	%rdi, -24(%rbp)
	movb	%al, -9(%rbp)
Ltmp236:
	.loc	19 2127 38 prologue_end
	movq	%rdi, -8(%rbp)
	.loc	19 2127 26 is_stmt 0
	movzbl	%al, %esi
	callq	__ZN4core4sync6atomic11atomic_load17h880ae9b1af497523E
	.loc	19 2128 14 is_stmt 1
	addq	$32, %rsp
	popq	%rbp
	retq
Ltmp237:
Lfunc_end68:
	.cfi_endproc

	.p2align	4, 0x90
__ZN4core4sync6atomic11AtomicUsize5store17hfa1b931e1644ef09E:
Lfunc_begin69:
	.loc	19 2152 0
	.cfi_startproc
	pushq	%rbp
	.cfi_def_cfa_offset 16
	.cfi_offset %rbp, -16
	movq	%rsp, %rbp
	.cfi_def_cfa_register %rbp
	subq	$32, %rsp
	movb	%dl, %al
	movq	%rdi, -32(%rbp)
	movq	%rsi, -24(%rbp)
	movb	%al, -9(%rbp)
Ltmp238:
	.loc	19 2154 39 prologue_end
	movq	%rdi, -8(%rbp)
	.loc	19 2154 26 is_stmt 0
	movzbl	%al, %edx
	callq	__ZN4core4sync6atomic12atomic_store17hb1bb4b06e42a84a9E
	.loc	19 2155 14 is_stmt 1
	addq	$32, %rsp
	popq	%rbp
	retq
Ltmp239:
Lfunc_end69:
	.cfi_endproc

	.globl	__ZN4core4sync6atomic11atomic_load17h880ae9b1af497523E
	.p2align	4, 0x90
__ZN4core4sync6atomic11atomic_load17h880ae9b1af497523E:
Lfunc_begin70:
	.loc	19 3019 0
	.cfi_startproc
	pushq	%rbp
	.cfi_def_cfa_offset 16
	.cfi_offset %rbp, -16
	movq	%rsp, %rbp
	.cfi_def_cfa_register %rbp
	subq	$160, %rsp
	movq	%rdi, -136(%rbp)
	movb	%sil, %al
	movb	%al, -113(%rbp)
	movq	%rdi, -8(%rbp)
Ltmp240:
	.loc	19 3022 15 prologue_end
	movzbl	-113(%rbp), %eax
	movq	%rax, -128(%rbp)
	.loc	19 0 15 is_stmt 0
	movq	-128(%rbp), %rax
	leaq	LJTI70_0(%rip), %rcx
	movslq	(%rcx,%rax,4), %rax
	addq	%rcx, %rax
	jmpq	*%rax
	.loc	19 3022 15
	ud2
LBB70_2:
	.loc	19 0 15
	movq	-136(%rbp), %rax
	.loc	19 3023 24 is_stmt 1
	movq	(%rax), %rax
	movq	%rax, -112(%rbp)
	.loc	19 3023 59 is_stmt 0
	jmp	LBB70_7
LBB70_3:
	.loc	19 3026 24 is_stmt 1
	leaq	l___unnamed_20(%rip), %rsi
	leaq	l___unnamed_14(%rip), %rcx
	xorl	%eax, %eax
	movl	%eax, %r8d
	leaq	-104(%rbp), %rdi
	movq	%rdi, -144(%rbp)
	movl	$1, %edx
	callq	__ZN4core3fmt9Arguments6new_v117h80e109cd681a6139E
	movq	-144(%rbp), %rdi
	leaq	l___unnamed_21(%rip), %rsi
	callq	__ZN4core9panicking9panic_fmt17h9b5d807e24bcaaedE
LBB70_4:
	.loc	19 0 24 is_stmt 0
	movq	-136(%rbp), %rax
	.loc	19 3024 24 is_stmt 1
	movq	(%rax), %rax
	movq	%rax, -112(%rbp)
	.loc	19 3024 59 is_stmt 0
	jmp	LBB70_7
LBB70_5:
	.loc	19 3027 23 is_stmt 1
	leaq	l___unnamed_22(%rip), %rsi
	leaq	l___unnamed_14(%rip), %rcx
	xorl	%eax, %eax
	movl	%eax, %r8d
	leaq	-56(%rbp), %rdi
	movq	%rdi, -152(%rbp)
	movl	$1, %edx
	callq	__ZN4core3fmt9Arguments6new_v117h80e109cd681a6139E
	movq	-152(%rbp), %rdi
	leaq	l___unnamed_23(%rip), %rsi
	callq	__ZN4core9panicking9panic_fmt17h9b5d807e24bcaaedE
LBB70_6:
	.loc	19 0 23 is_stmt 0
	movq	-136(%rbp), %rax
	.loc	19 3025 23 is_stmt 1
	movq	(%rax), %rax
	movq	%rax, -112(%rbp)
LBB70_7:
	.loc	19 3030 2
	movq	-112(%rbp), %rax
	addq	$160, %rsp
	popq	%rbp
	retq
Ltmp241:
Lfunc_end70:
	.cfi_endproc
	.p2align	2, 0x90
	.data_region jt32
.set L70_0_set_2, LBB70_2-LJTI70_0
.set L70_0_set_3, LBB70_3-LJTI70_0
.set L70_0_set_4, LBB70_4-LJTI70_0
.set L70_0_set_5, LBB70_5-LJTI70_0
.set L70_0_set_6, LBB70_6-LJTI70_0
LJTI70_0:
	.long	L70_0_set_2
	.long	L70_0_set_3
	.long	L70_0_set_4
	.long	L70_0_set_5
	.long	L70_0_set_6
	.end_data_region

	.globl	__ZN4core4sync6atomic12atomic_store17hb1bb4b06e42a84a9E
	.p2align	4, 0x90
__ZN4core4sync6atomic12atomic_store17hb1bb4b06e42a84a9E:
Lfunc_begin71:
	.loc	19 3004 0
	.cfi_startproc
	pushq	%rbp
	.cfi_def_cfa_offset 16
	.cfi_offset %rbp, -16
	movq	%rsp, %rbp
	.cfi_def_cfa_register %rbp
	subq	$160, %rsp
	movq	%rsi, -144(%rbp)
	movq	%rdi, -136(%rbp)
	movb	%dl, %al
	movb	%al, -113(%rbp)
	movq	%rdi, -16(%rbp)
	movq	%rsi, -8(%rbp)
Ltmp242:
	.loc	19 3007 15 prologue_end
	movzbl	-113(%rbp), %eax
	movq	%rax, -128(%rbp)
	.loc	19 0 15 is_stmt 0
	movq	-128(%rbp), %rax
	leaq	LJTI71_0(%rip), %rcx
	movslq	(%rcx,%rax,4), %rax
	addq	%rcx, %rax
	jmpq	*%rax
	.loc	19 3007 15
	ud2
LBB71_2:
	.loc	19 0 15
	movq	-136(%rbp), %rax
	movq	-144(%rbp), %rcx
	.loc	19 3008 24 is_stmt 1
	movq	%rcx, (%rax)
	.loc	19 3008 65 is_stmt 0
	jmp	LBB71_7
LBB71_3:
	.loc	19 0 65
	movq	-136(%rbp), %rax
	movq	-144(%rbp), %rcx
	.loc	19 3009 24 is_stmt 1
	movq	%rcx, (%rax)
	.loc	19 3009 65 is_stmt 0
	jmp	LBB71_7
LBB71_4:
	.loc	19 3011 24 is_stmt 1
	leaq	l___unnamed_24(%rip), %rsi
	leaq	l___unnamed_14(%rip), %rcx
	xorl	%eax, %eax
	movl	%eax, %r8d
	leaq	-112(%rbp), %rdi
	movq	%rdi, -152(%rbp)
	movl	$1, %edx
	callq	__ZN4core3fmt9Arguments6new_v117h80e109cd681a6139E
	movq	-152(%rbp), %rdi
	leaq	l___unnamed_25(%rip), %rsi
	callq	__ZN4core9panicking9panic_fmt17h9b5d807e24bcaaedE
LBB71_5:
	.loc	19 3012 23
	leaq	l___unnamed_26(%rip), %rsi
	leaq	l___unnamed_14(%rip), %rcx
	xorl	%eax, %eax
	movl	%eax, %r8d
	leaq	-64(%rbp), %rdi
	movq	%rdi, -160(%rbp)
	movl	$1, %edx
	callq	__ZN4core3fmt9Arguments6new_v117h80e109cd681a6139E
	movq	-160(%rbp), %rdi
	leaq	l___unnamed_27(%rip), %rsi
	callq	__ZN4core9panicking9panic_fmt17h9b5d807e24bcaaedE
LBB71_6:
	.loc	19 0 23 is_stmt 0
	movq	-136(%rbp), %rcx
	movq	-144(%rbp), %rax
	.loc	19 3010 23 is_stmt 1
	xchgq	%rax, (%rcx)
LBB71_7:
	.loc	19 3015 2
	addq	$160, %rsp
	popq	%rbp
	retq
Ltmp243:
Lfunc_end71:
	.cfi_endproc
	.p2align	2, 0x90
	.data_region jt32
.set L71_0_set_2, LBB71_2-LJTI71_0
.set L71_0_set_3, LBB71_3-LJTI71_0
.set L71_0_set_4, LBB71_4-LJTI71_0
.set L71_0_set_5, LBB71_5-LJTI71_0
.set L71_0_set_6, LBB71_6-LJTI71_0
LJTI71_0:
	.long	L71_0_set_2
	.long	L71_0_set_3
	.long	L71_0_set_4
	.long	L71_0_set_5
	.long	L71_0_set_6
	.end_data_region

	.p2align	4, 0x90
__ZN4core4sync6atomic14spin_loop_hint17h0d06f1982a0fcb35E:
Lfunc_begin72:
	.loc	19 3490 0
	.cfi_startproc
	pushq	%rbp
	.cfi_def_cfa_offset 16
	.cfi_offset %rbp, -16
	movq	%rsp, %rbp
	.cfi_def_cfa_register %rbp
Ltmp244:
	.file	20 "/rustc/2c8cc343237b8f7d5a3c3703e3a87f2eb2c54a74/library/core/src/../../stdarch/crates/core_arch/src/x86" "sse2.rs"
	.loc	20 25 5 prologue_end
	pause
Ltmp245:
	.loc	19 3492 2
	popq	%rbp
	retq
Ltmp246:
Lfunc_end72:
	.cfi_endproc
	.file	21 "/rustc/2c8cc343237b8f7d5a3c3703e3a87f2eb2c54a74/library/core/src" "hint.rs"

	.globl	__ZN4core4sync6atomic23atomic_compare_exchange17he41b2445a0091c8dE
	.p2align	4, 0x90
__ZN4core4sync6atomic23atomic_compare_exchange17he41b2445a0091c8dE:
Lfunc_begin73:
	.loc	19 3085 0
	.cfi_startproc
	pushq	%rbp
	.cfi_def_cfa_offset 16
	.cfi_offset %rbp, -16
	movq	%rsp, %rbp
	.cfi_def_cfa_register %rbp
	subq	$288, %rsp
	movq	%rdx, -216(%rbp)
	movq	%rsi, -208(%rbp)
	movq	%rdi, -200(%rbp)
	movb	%r8b, %al
	movq	%rdi, -48(%rbp)
	movq	%rsi, -40(%rbp)
	movq	%rdx, -32(%rbp)
	movb	%cl, -18(%rbp)
	movb	%al, -17(%rbp)
Ltmp247:
	.loc	19 3094 15 prologue_end
	movb	%cl, -152(%rbp)
	movb	%al, -151(%rbp)
	movzbl	-152(%rbp), %eax
	movq	%rax, -192(%rbp)
	.loc	19 0 15 is_stmt 0
	movq	-192(%rbp), %rax
	leaq	LJTI73_0(%rip), %rcx
	movslq	(%rcx,%rax,4), %rax
	addq	%rcx, %rax
	jmpq	*%rax
	.loc	19 3094 9
	ud2
LBB73_2:
	.loc	19 3094 15
	movzbl	-151(%rbp), %eax
	movq	%rax, -224(%rbp)
	testq	%rax, %rax
	.loc	19 3094 9
	je	LBB73_21
	jmp	LBB73_38
LBB73_38:
	.loc	19 0 9
	movq	-224(%rbp), %rax
	.loc	19 3094 9
	subq	$2, %rax
	je	LBB73_22
	jmp	LBB73_39
LBB73_39:
	.loc	19 0 9
	movq	-224(%rbp), %rax
	.loc	19 3094 9
	subq	$4, %rax
	je	LBB73_23
	jmp	LBB73_7
LBB73_3:
	.loc	19 3094 15
	movzbl	-151(%rbp), %eax
	movq	%rax, -232(%rbp)
	testq	%rax, %rax
	.loc	19 3094 9
	je	LBB73_18
	jmp	LBB73_36
LBB73_36:
	.loc	19 0 9
	movq	-232(%rbp), %rax
	.loc	19 3094 9
	subq	$2, %rax
	je	LBB73_19
	jmp	LBB73_37
LBB73_37:
	.loc	19 0 9
	movq	-232(%rbp), %rax
	.loc	19 3094 9
	subq	$4, %rax
	je	LBB73_20
	jmp	LBB73_7
LBB73_4:
	.loc	19 3094 15
	movzbl	-151(%rbp), %eax
	movq	%rax, -240(%rbp)
	testq	%rax, %rax
	.loc	19 3094 9
	je	LBB73_15
	jmp	LBB73_34
LBB73_34:
	.loc	19 0 9
	movq	-240(%rbp), %rax
	.loc	19 3094 9
	subq	$2, %rax
	je	LBB73_16
	jmp	LBB73_35
LBB73_35:
	.loc	19 0 9
	movq	-240(%rbp), %rax
	.loc	19 3094 9
	subq	$4, %rax
	je	LBB73_17
	jmp	LBB73_7
LBB73_5:
	.loc	19 3094 15
	movzbl	-151(%rbp), %eax
	movq	%rax, -248(%rbp)
	testq	%rax, %rax
	.loc	19 3094 9
	je	LBB73_12
	jmp	LBB73_32
LBB73_32:
	.loc	19 0 9
	movq	-248(%rbp), %rax
	.loc	19 3094 9
	subq	$2, %rax
	je	LBB73_13
	jmp	LBB73_33
LBB73_33:
	.loc	19 0 9
	movq	-248(%rbp), %rax
	.loc	19 3094 9
	subq	$4, %rax
	je	LBB73_14
	jmp	LBB73_7
LBB73_6:
	.loc	19 3094 15
	movzbl	-151(%rbp), %eax
	movq	%rax, -256(%rbp)
	testq	%rax, %rax
	.loc	19 3094 9
	je	LBB73_8
	jmp	LBB73_30
LBB73_30:
	.loc	19 0 9
	movq	-256(%rbp), %rax
	.loc	19 3094 9
	subq	$2, %rax
	je	LBB73_9
	jmp	LBB73_31
LBB73_31:
	.loc	19 0 9
	movq	-256(%rbp), %rax
	.loc	19 3094 9
	subq	$4, %rax
	je	LBB73_10
	jmp	LBB73_7
LBB73_7:
	.loc	19 3094 15
	movzbl	-151(%rbp), %eax
	.loc	19 3094 9
	cmpq	$1, %rax
	je	LBB73_24
	jmp	LBB73_25
LBB73_8:
	.loc	19 0 9
	movq	-200(%rbp), %rcx
	movq	-216(%rbp), %rdx
	movq	-208(%rbp), %rax
	.loc	19 3107 34 is_stmt 1
	lock		cmpxchgq	%rdx, (%rcx)
	movq	%rax, %rcx
	sete	%al
	andb	$1, %al
	movq	%rcx, -168(%rbp)
	movb	%al, -160(%rbp)
	.loc	19 3107 87 is_stmt 0
	jmp	LBB73_11
LBB73_9:
	.loc	19 0 87
	movq	-200(%rbp), %rcx
	movq	-216(%rbp), %rdx
	movq	-208(%rbp), %rax
	.loc	19 3108 34 is_stmt 1
	lock		cmpxchgq	%rdx, (%rcx)
	movq	%rax, %rcx
	sete	%al
	andb	$1, %al
	movq	%rcx, -168(%rbp)
	movb	%al, -160(%rbp)
	.loc	19 3108 87 is_stmt 0
	jmp	LBB73_11
LBB73_10:
	.loc	19 0 87
	movq	-200(%rbp), %rcx
	movq	-216(%rbp), %rdx
	movq	-208(%rbp), %rax
	.loc	19 3109 33 is_stmt 1
	lock		cmpxchgq	%rdx, (%rcx)
	movq	%rax, %rcx
	sete	%al
	andb	$1, %al
	movq	%rcx, -168(%rbp)
	movb	%al, -160(%rbp)
LBB73_11:
	.loc	19 3093 10
	movq	-168(%rbp), %rax
	movq	%rax, -264(%rbp)
	movq	%rax, -16(%rbp)
	.loc	19 3093 15 is_stmt 0
	movb	-160(%rbp), %al
	movb	%al, %cl
	andb	$1, %cl
	movb	%cl, -1(%rbp)
Ltmp248:
	.loc	19 3114 8 is_stmt 1
	testb	$1, %al
	jne	LBB73_27
	jmp	LBB73_26
Ltmp249:
LBB73_12:
	.loc	19 0 8 is_stmt 0
	movq	-200(%rbp), %rcx
	movq	-216(%rbp), %rdx
	movq	-208(%rbp), %rax
	.loc	19 3104 34 is_stmt 1
	lock		cmpxchgq	%rdx, (%rcx)
	movq	%rax, %rcx
	sete	%al
	andb	$1, %al
	movq	%rcx, -168(%rbp)
	movb	%al, -160(%rbp)
	.loc	19 3104 87 is_stmt 0
	jmp	LBB73_11
LBB73_13:
	.loc	19 0 87
	movq	-200(%rbp), %rcx
	movq	-216(%rbp), %rdx
	movq	-208(%rbp), %rax
	.loc	19 3105 34 is_stmt 1
	lock		cmpxchgq	%rdx, (%rcx)
	movq	%rax, %rcx
	sete	%al
	andb	$1, %al
	movq	%rcx, -168(%rbp)
	movb	%al, -160(%rbp)
	.loc	19 3105 87 is_stmt 0
	jmp	LBB73_11
LBB73_14:
	.loc	19 0 87
	movq	-200(%rbp), %rcx
	movq	-216(%rbp), %rdx
	movq	-208(%rbp), %rax
	.loc	19 3106 33 is_stmt 1
	lock		cmpxchgq	%rdx, (%rcx)
	movq	%rax, %rcx
	sete	%al
	andb	$1, %al
	movq	%rcx, -168(%rbp)
	movb	%al, -160(%rbp)
	.loc	19 3106 85 is_stmt 0
	jmp	LBB73_11
LBB73_15:
	.loc	19 0 85
	movq	-200(%rbp), %rcx
	movq	-216(%rbp), %rdx
	movq	-208(%rbp), %rax
	.loc	19 3098 35 is_stmt 1
	lock		cmpxchgq	%rdx, (%rcx)
	movq	%rax, %rcx
	sete	%al
	andb	$1, %al
	movq	%rcx, -168(%rbp)
	movb	%al, -160(%rbp)
	.loc	19 3098 89 is_stmt 0
	jmp	LBB73_11
LBB73_16:
	.loc	19 0 89
	movq	-200(%rbp), %rcx
	movq	-216(%rbp), %rdx
	movq	-208(%rbp), %rax
	.loc	19 3099 35 is_stmt 1
	lock		cmpxchgq	%rdx, (%rcx)
	movq	%rax, %rcx
	sete	%al
	andb	$1, %al
	movq	%rcx, -168(%rbp)
	movb	%al, -160(%rbp)
	.loc	19 3099 89 is_stmt 0
	jmp	LBB73_11
LBB73_17:
	.loc	19 0 89
	movq	-200(%rbp), %rcx
	movq	-216(%rbp), %rdx
	movq	-208(%rbp), %rax
	.loc	19 3100 34 is_stmt 1
	lock		cmpxchgq	%rdx, (%rcx)
	movq	%rax, %rcx
	sete	%al
	andb	$1, %al
	movq	%rcx, -168(%rbp)
	movb	%al, -160(%rbp)
	.loc	19 3100 87 is_stmt 0
	jmp	LBB73_11
LBB73_18:
	.loc	19 0 87
	movq	-200(%rbp), %rcx
	movq	-216(%rbp), %rdx
	movq	-208(%rbp), %rax
	.loc	19 3101 35 is_stmt 1
	lock		cmpxchgq	%rdx, (%rcx)
	movq	%rax, %rcx
	sete	%al
	andb	$1, %al
	movq	%rcx, -168(%rbp)
	movb	%al, -160(%rbp)
	.loc	19 3101 89 is_stmt 0
	jmp	LBB73_11
LBB73_19:
	.loc	19 0 89
	movq	-200(%rbp), %rcx
	movq	-216(%rbp), %rdx
	movq	-208(%rbp), %rax
	.loc	19 3102 35 is_stmt 1
	lock		cmpxchgq	%rdx, (%rcx)
	movq	%rax, %rcx
	sete	%al
	andb	$1, %al
	movq	%rcx, -168(%rbp)
	movb	%al, -160(%rbp)
	.loc	19 3102 89 is_stmt 0
	jmp	LBB73_11
LBB73_20:
	.loc	19 0 89
	movq	-200(%rbp), %rcx
	movq	-216(%rbp), %rdx
	movq	-208(%rbp), %rax
	.loc	19 3103 34 is_stmt 1
	lock		cmpxchgq	%rdx, (%rcx)
	movq	%rax, %rcx
	sete	%al
	andb	$1, %al
	movq	%rcx, -168(%rbp)
	movb	%al, -160(%rbp)
	.loc	19 3103 87 is_stmt 0
	jmp	LBB73_11
LBB73_21:
	.loc	19 0 87
	movq	-200(%rbp), %rcx
	movq	-216(%rbp), %rdx
	movq	-208(%rbp), %rax
	.loc	19 3095 35 is_stmt 1
	lock		cmpxchgq	%rdx, (%rcx)
	movq	%rax, %rcx
	sete	%al
	andb	$1, %al
	movq	%rcx, -168(%rbp)
	movb	%al, -160(%rbp)
	.loc	19 3095 89 is_stmt 0
	jmp	LBB73_11
LBB73_22:
	.loc	19 0 89
	movq	-200(%rbp), %rcx
	movq	-216(%rbp), %rdx
	movq	-208(%rbp), %rax
	.loc	19 3096 35 is_stmt 1
	lock		cmpxchgq	%rdx, (%rcx)
	movq	%rax, %rcx
	sete	%al
	andb	$1, %al
	movq	%rcx, -168(%rbp)
	movb	%al, -160(%rbp)
	.loc	19 3096 89 is_stmt 0
	jmp	LBB73_11
LBB73_23:
	.loc	19 0 89
	movq	-200(%rbp), %rcx
	movq	-216(%rbp), %rdx
	movq	-208(%rbp), %rax
	.loc	19 3097 34 is_stmt 1
	lock		cmpxchgq	%rdx, (%rcx)
	movq	%rax, %rcx
	sete	%al
	andb	$1, %al
	movq	%rcx, -168(%rbp)
	movb	%al, -160(%rbp)
	.loc	19 3097 87 is_stmt 0
	jmp	LBB73_11
LBB73_24:
	.loc	19 3111 29 is_stmt 1
	leaq	l___unnamed_28(%rip), %rsi
	leaq	l___unnamed_14(%rip), %rcx
	xorl	%eax, %eax
	movl	%eax, %r8d
	leaq	-96(%rbp), %rdi
	movq	%rdi, -272(%rbp)
	movl	$1, %edx
	callq	__ZN4core3fmt9Arguments6new_v117h80e109cd681a6139E
	movq	-272(%rbp), %rdi
	leaq	l___unnamed_29(%rip), %rsi
	callq	__ZN4core9panicking9panic_fmt17h9b5d807e24bcaaedE
LBB73_25:
	.loc	19 3110 28
	leaq	l___unnamed_30(%rip), %rsi
	leaq	l___unnamed_14(%rip), %rcx
	xorl	%eax, %eax
	movl	%eax, %r8d
	leaq	-144(%rbp), %rdi
	movq	%rdi, -280(%rbp)
	movl	$1, %edx
	callq	__ZN4core3fmt9Arguments6new_v117h80e109cd681a6139E
	movq	-280(%rbp), %rdi
	leaq	l___unnamed_31(%rip), %rsi
	callq	__ZN4core9panicking9panic_fmt17h9b5d807e24bcaaedE
LBB73_26:
	.loc	19 0 28 is_stmt 0
	movq	-264(%rbp), %rax
Ltmp250:
	.loc	19 3114 30 is_stmt 1
	movq	%rax, -176(%rbp)
	movq	$1, -184(%rbp)
	.loc	19 3114 5 is_stmt 0
	jmp	LBB73_28
LBB73_27:
	.loc	19 0 5
	movq	-264(%rbp), %rax
	.loc	19 3114 13
	movq	%rax, -176(%rbp)
	movq	$0, -184(%rbp)
Ltmp251:
LBB73_28:
	.loc	19 3115 2 is_stmt 1
	movq	-184(%rbp), %rax
	movq	-176(%rbp), %rdx
	addq	$288, %rsp
	popq	%rbp
	retq
Ltmp252:
Lfunc_end73:
	.cfi_endproc
	.p2align	2, 0x90
	.data_region jt32
.set L73_0_set_2, LBB73_2-LJTI73_0
.set L73_0_set_3, LBB73_3-LJTI73_0
.set L73_0_set_4, LBB73_4-LJTI73_0
.set L73_0_set_5, LBB73_5-LJTI73_0
.set L73_0_set_6, LBB73_6-LJTI73_0
LJTI73_0:
	.long	L73_0_set_2
	.long	L73_0_set_3
	.long	L73_0_set_4
	.long	L73_0_set_5
	.long	L73_0_set_6
	.end_data_region

	.globl	__ZN4core5slice29_$LT$impl$u20$$u5b$T$u5d$$GT$4iter17h0ece646fb6100648E
	.p2align	4, 0x90
__ZN4core5slice29_$LT$impl$u20$$u5b$T$u5d$$GT$4iter17h0ece646fb6100648E:
Lfunc_begin74:
	.loc	17 741 0
	.cfi_startproc
	pushq	%rbp
	.cfi_def_cfa_offset 16
	.cfi_offset %rbp, -16
	movq	%rsp, %rbp
	.cfi_def_cfa_register %rbp
	subq	$16, %rsp
	movq	%rdi, -16(%rbp)
	movq	%rsi, -8(%rbp)
Ltmp253:
	.loc	17 742 9 prologue_end
	callq	__ZN4core5slice4iter13Iter$LT$T$GT$3new17h955f479a7235234dE
	.loc	17 743 6
	addq	$16, %rsp
	popq	%rbp
	retq
Ltmp254:
Lfunc_end74:
	.cfi_endproc

	.globl	__ZN4core5slice4iter13Iter$LT$T$GT$3new17h744457bbc69063cbE
	.p2align	4, 0x90
__ZN4core5slice4iter13Iter$LT$T$GT$3new17h744457bbc69063cbE:
Lfunc_begin75:
	.file	22 "/rustc/2c8cc343237b8f7d5a3c3703e3a87f2eb2c54a74/library/core/src/slice" "iter.rs"
	.loc	22 82 0
	.cfi_startproc
	pushq	%rbp
	.cfi_def_cfa_offset 16
	.cfi_offset %rbp, -16
	movq	%rsp, %rbp
	.cfi_def_cfa_register %rbp
	subq	$280, %rsp
	movq	%rdi, -280(%rbp)
	movq	%rsi, -272(%rbp)
	movq	%rdi, -208(%rbp)
	movq	%rsi, -200(%rbp)
Ltmp255:
	.loc	22 83 19 prologue_end
	movq	%rdi, -184(%rbp)
	movq	%rsi, -176(%rbp)
Ltmp256:
	.loc	17 477 9
	movq	%rdi, -168(%rbp)
Ltmp257:
	.loc	22 86 21
	movq	%rdi, -160(%rbp)
Ltmp258:
	.loc	15 53 36
	movq	%rdi, -232(%rbp)
	.loc	15 53 18 is_stmt 0
	movq	-232(%rbp), %rax
	movq	%rax, -152(%rbp)
Ltmp259:
	.loc	15 39 13 is_stmt 1
	movq	%rax, -144(%rbp)
Ltmp260:
	.loc	15 209 33
	movq	%rax, -136(%rbp)
	.loc	15 209 18 is_stmt 0
	movq	%rax, -128(%rbp)
Ltmp261:
	.loc	22 89 20 is_stmt 1
	xorl	%eax, %eax
	testb	$1, %al
	jne	LBB75_2
	.loc	22 0 20 is_stmt 0
	movq	-272(%rbp), %rcx
	movq	-280(%rbp), %rax
	.loc	22 89 76
	movq	%rax, -40(%rbp)
	.loc	22 89 84
	movq	%rcx, -32(%rbp)
Ltmp262:
	.loc	15 932 18 is_stmt 1
	movq	%rax, -24(%rbp)
	.loc	15 932 30 is_stmt 0
	movq	%rcx, -16(%rbp)
Ltmp263:
	.loc	15 473 18 is_stmt 1
	addq	%rcx, %rax
	movq	%rax, -248(%rbp)
Ltmp264:
	.loc	22 89 17
	jmp	LBB75_3
LBB75_2:
	.loc	22 0 17 is_stmt 0
	movq	-272(%rbp), %rcx
	movq	-280(%rbp), %rax
	.loc	22 89 32
	movq	%rax, -120(%rbp)
	.loc	22 89 54
	movq	%rcx, -112(%rbp)
Ltmp265:
	.loc	15 1118 9 is_stmt 1
	movq	%rax, -104(%rbp)
Ltmp266:
	.loc	15 61 9
	movq	%rax, -96(%rbp)
Ltmp267:
	.loc	15 1118 40
	movq	%rcx, -88(%rbp)
Ltmp268:
	.loc	15 1100 9
	movq	%rax, -80(%rbp)
	.loc	15 1100 30 is_stmt 0
	movq	%rcx, -72(%rbp)
Ltmp269:
	.loc	15 555 18 is_stmt 1
	addq	%rcx, %rax
	movq	%rax, -64(%rbp)
	movq	-64(%rbp), %rax
	movq	%rax, -56(%rbp)
Ltmp270:
	.loc	15 100 29
	movq	%rax, -48(%rbp)
Ltmp271:
	.file	23 "/rustc/2c8cc343237b8f7d5a3c3703e3a87f2eb2c54a74/library/core/src/ptr" "metadata.rs"
	.loc	23 118 36
	movq	%rax, -216(%rbp)
	.loc	23 118 14 is_stmt 0
	movq	-216(%rbp), %rax
	movq	%rax, -224(%rbp)
	movq	-224(%rbp), %rax
	movq	%rax, -248(%rbp)
Ltmp272:
LBB75_3:
	.loc	23 0 14
	movq	-280(%rbp), %rax
Ltmp273:
	.loc	22 91 48 is_stmt 1
	movq	%rax, -8(%rbp)
Ltmp274:
	.file	24 "/rustc/2c8cc343237b8f7d5a3c3703e3a87f2eb2c54a74/library/core/src/ptr" "non_null.rs"
	.loc	24 201 13
	movq	%rax, -240(%rbp)
Ltmp275:
	.loc	22 91 64
	movq	-248(%rbp), %rax
	.loc	22 91 13 is_stmt 0
	movq	-240(%rbp), %rcx
	movq	%rcx, -256(%rbp)
	movq	%rax, -264(%rbp)
Ltmp276:
	.loc	22 93 6 is_stmt 1
	movq	-264(%rbp), %rax
	movq	-256(%rbp), %rdx
	addq	$280, %rsp
	popq	%rbp
	retq
Ltmp277:
Lfunc_end75:
	.cfi_endproc

	.globl	__ZN4core5slice4iter13Iter$LT$T$GT$3new17h955f479a7235234dE
	.p2align	4, 0x90
__ZN4core5slice4iter13Iter$LT$T$GT$3new17h955f479a7235234dE:
Lfunc_begin76:
	.loc	22 82 0
	.cfi_startproc
	pushq	%rbp
	.cfi_def_cfa_offset 16
	.cfi_offset %rbp, -16
	movq	%rsp, %rbp
	.cfi_def_cfa_register %rbp
	subq	$280, %rsp
	movq	%rdi, -280(%rbp)
	movq	%rsi, -272(%rbp)
	movq	%rdi, -208(%rbp)
	movq	%rsi, -200(%rbp)
Ltmp278:
	.loc	22 83 19 prologue_end
	movq	%rdi, -184(%rbp)
	movq	%rsi, -176(%rbp)
Ltmp279:
	.loc	17 477 9
	movq	%rdi, -168(%rbp)
Ltmp280:
	.loc	22 86 21
	movq	%rdi, -160(%rbp)
Ltmp281:
	.loc	15 53 36
	movq	%rdi, -232(%rbp)
	.loc	15 53 18 is_stmt 0
	movq	-232(%rbp), %rax
	movq	%rax, -152(%rbp)
Ltmp282:
	.loc	15 39 13 is_stmt 1
	movq	%rax, -144(%rbp)
Ltmp283:
	.loc	15 209 33
	movq	%rax, -136(%rbp)
	.loc	15 209 18 is_stmt 0
	movq	%rax, -128(%rbp)
Ltmp284:
	.loc	22 89 20 is_stmt 1
	xorl	%eax, %eax
	testb	$1, %al
	jne	LBB76_2
	.loc	22 0 20 is_stmt 0
	movq	-280(%rbp), %rax
	movq	-272(%rbp), %rcx
	.loc	22 89 76
	movq	%rax, -40(%rbp)
	.loc	22 89 84
	movq	%rcx, -32(%rbp)
Ltmp285:
	.loc	15 932 18 is_stmt 1
	movq	%rax, -24(%rbp)
	.loc	15 932 30 is_stmt 0
	movq	%rcx, -16(%rbp)
Ltmp286:
	.loc	15 473 18 is_stmt 1
	shlq	$4, %rcx
	addq	%rcx, %rax
	movq	%rax, -248(%rbp)
Ltmp287:
	.loc	22 89 17
	jmp	LBB76_3
LBB76_2:
	.loc	22 0 17 is_stmt 0
	movq	-272(%rbp), %rcx
	movq	-280(%rbp), %rax
	.loc	22 89 32
	movq	%rax, -120(%rbp)
	.loc	22 89 54
	movq	%rcx, -112(%rbp)
Ltmp288:
	.loc	15 1118 9 is_stmt 1
	movq	%rax, -104(%rbp)
Ltmp289:
	.loc	15 61 9
	movq	%rax, -96(%rbp)
Ltmp290:
	.loc	15 1118 40
	movq	%rcx, -88(%rbp)
Ltmp291:
	.loc	15 1100 9
	movq	%rax, -80(%rbp)
	.loc	15 1100 30 is_stmt 0
	movq	%rcx, -72(%rbp)
Ltmp292:
	.loc	15 555 18 is_stmt 1
	addq	%rcx, %rax
	movq	%rax, -64(%rbp)
	movq	-64(%rbp), %rax
	movq	%rax, -56(%rbp)
Ltmp293:
	.loc	15 100 29
	movq	%rax, -48(%rbp)
Ltmp294:
	.loc	23 118 36
	movq	%rax, -216(%rbp)
	.loc	23 118 14 is_stmt 0
	movq	-216(%rbp), %rax
	movq	%rax, -224(%rbp)
	movq	-224(%rbp), %rax
	movq	%rax, -248(%rbp)
Ltmp295:
LBB76_3:
	.loc	23 0 14
	movq	-280(%rbp), %rax
Ltmp296:
	.loc	22 91 48 is_stmt 1
	movq	%rax, -8(%rbp)
Ltmp297:
	.loc	24 201 13
	movq	%rax, -240(%rbp)
Ltmp298:
	.loc	22 91 64
	movq	-248(%rbp), %rax
	.loc	22 91 13 is_stmt 0
	movq	-240(%rbp), %rcx
	movq	%rcx, -256(%rbp)
	movq	%rax, -264(%rbp)
Ltmp299:
	.loc	22 93 6 is_stmt 1
	movq	-264(%rbp), %rax
	movq	-256(%rbp), %rdx
	addq	$280, %rsp
	popq	%rbp
	retq
Ltmp300:
Lfunc_end76:
	.cfi_endproc

	.globl	__ZN4core6option15Option$LT$T$GT$3map17h2de368ba1f5d2259E
	.p2align	4, 0x90
__ZN4core6option15Option$LT$T$GT$3map17h2de368ba1f5d2259E:
Lfunc_begin77:
	.file	25 "/rustc/2c8cc343237b8f7d5a3c3703e3a87f2eb2c54a74/library/core/src" "option.rs"
	.loc	25 964 0
	.cfi_startproc
	pushq	%rbp
	.cfi_def_cfa_offset 16
	.cfi_offset %rbp, -16
	movq	%rsp, %rbp
	.cfi_def_cfa_register %rbp
	subq	$64, %rsp
	movq	%rdx, -64(%rbp)
	movq	%rdi, -56(%rbp)
	movq	%rsi, -48(%rbp)
	movq	%rdx, -16(%rbp)
Ltmp301:
	.loc	25 969 15 prologue_end
	movb	$1, -17(%rbp)
	.loc	25 969 9 is_stmt 0
	cmpq	$0, -56(%rbp)
	jne	LBB77_2
	.loc	25 971 21 is_stmt 1
	movq	$0, -40(%rbp)
	jmp	LBB77_3
LBB77_2:
	.loc	25 0 21 is_stmt 0
	movq	-64(%rbp), %rdi
	.loc	25 970 18 is_stmt 1
	movq	-48(%rbp), %rax
	movq	%rax, -8(%rbp)
Ltmp302:
	.loc	25 970 29 is_stmt 0
	movb	$0, -17(%rbp)
	movq	%rax, -32(%rbp)
	movq	-32(%rbp), %rsi
	callq	__ZN4core3ops8function5impls80_$LT$impl$u20$core..ops..function..FnOnce$LT$A$GT$$u20$for$u20$$RF$mut$u20$F$GT$9call_once17h7e1ccdebe86b6bc1E
	.loc	25 970 24
	movq	%rax, -40(%rbp)
Ltmp303:
LBB77_3:
	.loc	25 973 5 is_stmt 1
	testb	$1, -17(%rbp)
	jne	LBB77_5
LBB77_4:
	.loc	25 973 6 is_stmt 0
	movq	-40(%rbp), %rax
	addq	$64, %rsp
	popq	%rbp
	retq
LBB77_5:
	.loc	25 973 5
	jmp	LBB77_4
Ltmp304:
Lfunc_end77:
	.cfi_endproc

	.globl	__ZN4core6option15Option$LT$T$GT$3map17h43f8f99932f00d31E
	.p2align	4, 0x90
__ZN4core6option15Option$LT$T$GT$3map17h43f8f99932f00d31E:
Lfunc_begin78:
	.loc	25 964 0 is_stmt 1
	.cfi_startproc
	pushq	%rbp
	.cfi_def_cfa_offset 16
	.cfi_offset %rbp, -16
	movq	%rsp, %rbp
	.cfi_def_cfa_register %rbp
	subq	$112, %rsp
	movq	%rdi, -104(%rbp)
	movq	%rdi, -96(%rbp)
	movq	%rsi, -88(%rbp)
	movq	%rdx, -80(%rbp)
Ltmp305:
	.loc	25 969 15 prologue_end
	movb	$1, -25(%rbp)
	movq	-88(%rbp), %rdx
	movl	$1, %eax
	xorl	%ecx, %ecx
	cmpq	$0, %rdx
	cmoveq	%rcx, %rax
	.loc	25 969 9 is_stmt 0
	cmpq	$0, %rax
	jne	LBB78_2
	.loc	25 0 9
	movq	-104(%rbp), %rax
	.loc	25 971 21 is_stmt 1
	movq	$2, (%rax)
	jmp	LBB78_3
LBB78_2:
	.loc	25 970 18
	movq	-88(%rbp), %rcx
	movq	-80(%rbp), %rax
	movq	%rcx, -16(%rbp)
	movq	%rax, -8(%rbp)
Ltmp306:
	.loc	25 970 29 is_stmt 0
	movb	$0, -25(%rbp)
	movq	%rcx, -48(%rbp)
	movq	%rax, -40(%rbp)
	movq	-48(%rbp), %rsi
	movq	-40(%rbp), %rdx
	leaq	-72(%rbp), %rdi
	callq	__ZN4core3ops8function6FnOnce9call_once17ha2599b3dbde8f108E
	movq	-104(%rbp), %rax
	.loc	25 970 24
	movq	-72(%rbp), %rcx
	movq	%rcx, (%rax)
	movq	-64(%rbp), %rcx
	movq	%rcx, 8(%rax)
	movq	-56(%rbp), %rcx
	movq	%rcx, 16(%rax)
Ltmp307:
LBB78_3:
	.loc	25 973 5 is_stmt 1
	testb	$1, -25(%rbp)
	jne	LBB78_5
LBB78_4:
	.loc	25 0 5 is_stmt 0
	movq	-96(%rbp), %rax
	.loc	25 973 6
	addq	$112, %rsp
	popq	%rbp
	retq
LBB78_5:
	.loc	25 973 5
	jmp	LBB78_4
Ltmp308:
Lfunc_end78:
	.cfi_endproc

	.globl	__ZN4core6option15Option$LT$T$GT$3map17h6a793eb6af2d7f57E
	.p2align	4, 0x90
__ZN4core6option15Option$LT$T$GT$3map17h6a793eb6af2d7f57E:
Lfunc_begin79:
	.loc	25 964 0 is_stmt 1
	.cfi_startproc
	pushq	%rbp
	.cfi_def_cfa_offset 16
	.cfi_offset %rbp, -16
	movq	%rsp, %rbp
	.cfi_def_cfa_register %rbp
	subq	$64, %rsp
	movq	%rdi, -56(%rbp)
	movq	%rsi, -48(%rbp)
Ltmp309:
	.loc	25 969 15 prologue_end
	movb	$1, -17(%rbp)
	.loc	25 969 9 is_stmt 0
	cmpq	$0, -56(%rbp)
	jne	LBB79_2
	.loc	25 971 21 is_stmt 1
	movq	$6, -40(%rbp)
	jmp	LBB79_3
LBB79_2:
	.loc	25 970 18
	movq	-48(%rbp), %rax
	movq	%rax, -8(%rbp)
Ltmp310:
	.loc	25 970 29 is_stmt 0
	movb	$0, -17(%rbp)
	movq	%rax, -32(%rbp)
	movq	-32(%rbp), %rdi
	callq	__ZN63_$LT$log..LevelFilter$u20$as$u20$core..str..traits..FromStr$GT$8from_str28_$u7b$$u7b$closure$u7d$$u7d$17h59e2655dafd3aa97E
	.loc	25 970 24
	movq	%rax, -40(%rbp)
Ltmp311:
LBB79_3:
	.loc	25 973 5 is_stmt 1
	testb	$1, -17(%rbp)
	jne	LBB79_5
LBB79_4:
	.loc	25 973 6 is_stmt 0
	movq	-40(%rbp), %rax
	addq	$64, %rsp
	popq	%rbp
	retq
LBB79_5:
	.loc	25 973 5
	jmp	LBB79_4
Ltmp312:
Lfunc_end79:
	.cfi_endproc

	.globl	__ZN4core6option15Option$LT$T$GT$6unwrap17h4b24b69a01781d71E
	.p2align	4, 0x90
__ZN4core6option15Option$LT$T$GT$6unwrap17h4b24b69a01781d71E:
Lfunc_begin80:
	.loc	25 820 0 is_stmt 1
	.cfi_startproc
	pushq	%rbp
	.cfi_def_cfa_offset 16
	.cfi_offset %rbp, -16
	movq	%rsp, %rbp
	.cfi_def_cfa_register %rbp
	subq	$32, %rsp
	movq	%rsi, -24(%rbp)
	movq	%rdi, -16(%rbp)
Ltmp313:
	.loc	25 821 15 prologue_end
	movl	$1, %eax
	xorl	%ecx, %ecx
	cmpq	$0, -16(%rbp)
	cmoveq	%rcx, %rax
	.loc	25 821 9 is_stmt 0
	cmpq	$0, %rax
	jne	LBB80_2
	.loc	25 0 9
	movq	-24(%rbp), %rdx
	.loc	25 823 21 is_stmt 1
	leaq	l___unnamed_32(%rip), %rdi
	movl	$43, %esi
	callq	__ZN4core9panicking5panic17hc1bc45270cf64b03E
LBB80_2:
	.loc	25 822 18
	movq	-16(%rbp), %rax
	movq	%rax, -8(%rbp)
	.loc	25 825 6
	addq	$32, %rsp
	popq	%rbp
	retq
Ltmp314:
Lfunc_end80:
	.cfi_endproc

	.globl	__ZN4core6option15Option$LT$T$GT$6unwrap17hf56e0627f493143fE
	.p2align	4, 0x90
__ZN4core6option15Option$LT$T$GT$6unwrap17hf56e0627f493143fE:
Lfunc_begin81:
	.loc	25 820 0
	.cfi_startproc
	pushq	%rbp
	.cfi_def_cfa_offset 16
	.cfi_offset %rbp, -16
	movq	%rsp, %rbp
	.cfi_def_cfa_register %rbp
	subq	$32, %rsp
	movq	%rsi, -24(%rbp)
	movq	%rdi, -16(%rbp)
Ltmp315:
	.loc	25 821 15 prologue_end
	movl	$1, %eax
	xorl	%ecx, %ecx
	cmpq	$6, -16(%rbp)
	cmoveq	%rcx, %rax
	.loc	25 821 9 is_stmt 0
	cmpq	$0, %rax
	jne	LBB81_2
	.loc	25 0 9
	movq	-24(%rbp), %rdx
	.loc	25 823 21 is_stmt 1
	leaq	l___unnamed_32(%rip), %rdi
	movl	$43, %esi
	callq	__ZN4core9panicking5panic17hc1bc45270cf64b03E
LBB81_2:
	.loc	25 822 18
	movq	-16(%rbp), %rax
	movq	%rax, -8(%rbp)
	.loc	25 825 6
	addq	$32, %rsp
	popq	%rbp
	retq
Ltmp316:
Lfunc_end81:
	.cfi_endproc

	.globl	__ZN4core6option15Option$LT$T$GT$7is_some17h0216c9454cc6e839E
	.p2align	4, 0x90
__ZN4core6option15Option$LT$T$GT$7is_some17h0216c9454cc6e839E:
Lfunc_begin82:
	.loc	25 597 0
	.cfi_startproc
	pushq	%rbp
	.cfi_def_cfa_offset 16
	.cfi_offset %rbp, -16
	movq	%rsp, %rbp
	.cfi_def_cfa_register %rbp
	subq	$16, %rsp
	movq	%rdi, -8(%rbp)
Ltmp317:
	.loc	25 598 18 prologue_end
	movq	(%rdi), %rdx
	movl	$1, %eax
	xorl	%ecx, %ecx
	cmpq	$0, %rdx
	cmoveq	%rcx, %rax
	.loc	25 598 9 is_stmt 0
	cmpq	$1, %rax
	jne	LBB82_2
	movb	$1, -9(%rbp)
	jmp	LBB82_3
LBB82_2:
	movb	$0, -9(%rbp)
LBB82_3:
	.loc	25 599 6 is_stmt 1
	movb	-9(%rbp), %al
	andb	$1, %al
	movzbl	%al, %eax
	addq	$16, %rsp
	popq	%rbp
	retq
Ltmp318:
Lfunc_end82:
	.cfi_endproc

	.globl	__ZN4core9panicking19unreachable_display17h650be7314bc92ccbE
	.p2align	4, 0x90
__ZN4core9panicking19unreachable_display17h650be7314bc92ccbE:
Lfunc_begin83:
	.file	26 "/rustc/2c8cc343237b8f7d5a3c3703e3a87f2eb2c54a74/library/core/src" "panicking.rs"
	.loc	26 137 0
	.cfi_startproc
	pushq	%rbp
	.cfi_def_cfa_offset 16
	.cfi_offset %rbp, -16
	movq	%rsp, %rbp
	.cfi_def_cfa_register %rbp
	subq	$144, %rsp
	movq	%rsi, -136(%rbp)
	movq	%rdi, -48(%rbp)
Ltmp319:
	.loc	26 138 15 prologue_end
	movq	%rdi, -40(%rbp)
Ltmp320:
	.loc	8 328 23
	movq	%rdi, -32(%rbp)
	.loc	8 328 26 is_stmt 0
	leaq	__ZN44_$LT$$RF$T$u20$as$u20$core..fmt..Display$GT$3fmt17h5b0d76ebb67c0541E(%rip), %rax
	movq	%rax, -24(%rbp)
Ltmp321:
	.loc	8 347 42 is_stmt 1
	movq	%rax, -16(%rbp)
	movq	-16(%rbp), %rax
	.loc	8 347 68 is_stmt 0
	movq	%rdi, -8(%rbp)
	movq	-8(%rbp), %rcx
	.loc	8 347 18
	movq	%rcx, -64(%rbp)
	movq	%rax, -56(%rbp)
Ltmp322:
	.loc	26 138 15 is_stmt 1
	movq	-64(%rbp), %rcx
	movq	-56(%rbp), %rax
	movq	%rcx, -80(%rbp)
	movq	%rax, -72(%rbp)
	leaq	l___unnamed_33(%rip), %rsi
	leaq	-128(%rbp), %rdi
	movq	%rdi, -144(%rbp)
	leaq	-80(%rbp), %rcx
	movl	$1, %r8d
	movq	%r8, %rdx
	callq	__ZN4core3fmt9Arguments6new_v117h80e109cd681a6139E
	movq	-144(%rbp), %rdi
	movq	-136(%rbp), %rsi
	.loc	26 138 5 is_stmt 0
	callq	__ZN4core9panicking9panic_fmt17h9b5d807e24bcaaedE
Ltmp323:
Lfunc_end83:
	.cfi_endproc

	.p2align	4, 0x90
__ZN59_$LT$core..fmt..Arguments$u20$as$u20$core..clone..Clone$GT$5clone17hbb00e54f5612623eE:
Lfunc_begin84:
	.loc	8 478 0 is_stmt 1
	.cfi_startproc
	pushq	%rbp
	.cfi_def_cfa_offset 16
	.cfi_offset %rbp, -16
	movq	%rsp, %rbp
	.cfi_def_cfa_register %rbp
	subq	$16, %rsp
	movq	%rdi, %rax
	movq	%rax, -16(%rbp)
	movq	%rsi, -8(%rbp)
Ltmp324:
	.loc	8 478 16 prologue_end
	movl	$48, %edx
	callq	_memcpy
	movq	-16(%rbp), %rax
	.loc	8 478 21 is_stmt 0
	addq	$16, %rsp
	popq	%rbp
	retq
Ltmp325:
Lfunc_end84:
	.cfi_endproc

	.globl	__ZN63_$LT$I$u20$as$u20$core..iter..traits..collect..IntoIterator$GT$9into_iter17hd9f8700dbd07d778E
	.p2align	4, 0x90
__ZN63_$LT$I$u20$as$u20$core..iter..traits..collect..IntoIterator$GT$9into_iter17hd9f8700dbd07d778E:
Lfunc_begin85:
	.file	27 "/rustc/2c8cc343237b8f7d5a3c3703e3a87f2eb2c54a74/library/core/src/iter/traits" "collect.rs"
	.loc	27 272 0 is_stmt 1
	.cfi_startproc
	pushq	%rbp
	.cfi_def_cfa_offset 16
	.cfi_offset %rbp, -16
	movq	%rsp, %rbp
	.cfi_def_cfa_register %rbp
	subq	$16, %rsp
	movq	%rsi, %rdx
	movq	%rdi, %rax
	movq	%rax, -16(%rbp)
	movq	%rdx, -8(%rbp)
Ltmp326:
	.loc	27 274 6 prologue_end
	addq	$16, %rsp
	popq	%rbp
	retq
Ltmp327:
Lfunc_end85:
	.cfi_endproc

	.globl	__ZN66_$LT$core..option..Option$LT$T$GT$$u20$as$u20$core..fmt..Debug$GT$3fmt17h65c24a1e588fdee1E
	.p2align	4, 0x90
__ZN66_$LT$core..option..Option$LT$T$GT$$u20$as$u20$core..fmt..Debug$GT$3fmt17h65c24a1e588fdee1E:
Lfunc_begin86:
	.loc	25 559 0
	.cfi_startproc
	pushq	%rbp
	.cfi_def_cfa_offset 16
	.cfi_offset %rbp, -16
	movq	%rsp, %rbp
	.cfi_def_cfa_register %rbp
	subq	$48, %rsp
	movq	%rdi, -48(%rbp)
	movq	%rsi, -40(%rbp)
	movq	%rdi, -16(%rbp)
	movq	%rsi, -8(%rbp)
Ltmp328:
	.loc	25 559 37 prologue_end
	movl	$1, %eax
	xorl	%ecx, %ecx
	cmpq	$2, (%rdi)
	cmoveq	%rcx, %rax
	cmpq	$0, %rax
	jne	LBB86_2
	.loc	25 0 37 is_stmt 0
	movq	-40(%rbp), %rdi
	.loc	25 559 37
	leaq	L___unnamed_34(%rip), %rsi
	movl	$4, %edx
	callq	__ZN4core3fmt9Formatter9write_str17hb029d9999327a35fE
	andb	$1, %al
	movb	%al, -25(%rbp)
	.loc	25 559 41
	jmp	LBB86_3
LBB86_2:
	.loc	25 0 41
	movq	-40(%rbp), %rdi
	movq	-48(%rbp), %rax
	.loc	25 570 56 is_stmt 1
	movq	%rax, -24(%rbp)
Ltmp329:
	.loc	25 559 37
	leaq	L___unnamed_35(%rip), %rsi
	movl	$4, %edx
	leaq	-24(%rbp), %rcx
	leaq	l___unnamed_1(%rip), %r8
	callq	__ZN4core3fmt9Formatter25debug_tuple_field1_finish17h7c0e485bb1c7676eE
	andb	$1, %al
	movb	%al, -25(%rbp)
Ltmp330:
LBB86_3:
	.loc	25 559 42 is_stmt 0
	movb	-25(%rbp), %al
	andb	$1, %al
	movzbl	%al, %eax
	addq	$48, %rsp
	popq	%rbp
	retq
Ltmp331:
Lfunc_end86:
	.cfi_endproc

	.globl	__ZN66_$LT$core..option..Option$LT$T$GT$$u20$as$u20$core..fmt..Debug$GT$3fmt17hd1dff0e8efcb87e8E
	.p2align	4, 0x90
__ZN66_$LT$core..option..Option$LT$T$GT$$u20$as$u20$core..fmt..Debug$GT$3fmt17hd1dff0e8efcb87e8E:
Lfunc_begin87:
	.loc	25 559 0 is_stmt 1
	.cfi_startproc
	pushq	%rbp
	.cfi_def_cfa_offset 16
	.cfi_offset %rbp, -16
	movq	%rsp, %rbp
	.cfi_def_cfa_register %rbp
	subq	$48, %rsp
	movq	%rdi, -48(%rbp)
	movq	%rsi, -40(%rbp)
	movq	%rdi, -16(%rbp)
	movq	%rsi, -8(%rbp)
Ltmp332:
	.loc	25 559 37 prologue_end
	movl	(%rdi), %eax
	cmpq	$0, %rax
	jne	LBB87_2
	.loc	25 0 37 is_stmt 0
	movq	-40(%rbp), %rdi
	.loc	25 559 37
	leaq	L___unnamed_34(%rip), %rsi
	movl	$4, %edx
	callq	__ZN4core3fmt9Formatter9write_str17hb029d9999327a35fE
	andb	$1, %al
	movb	%al, -25(%rbp)
	.loc	25 559 41
	jmp	LBB87_3
LBB87_2:
	.loc	25 0 41
	movq	-40(%rbp), %rdi
	movq	-48(%rbp), %rax
	.loc	25 570 56 is_stmt 1
	addq	$4, %rax
	movq	%rax, -24(%rbp)
Ltmp333:
	.loc	25 559 37
	leaq	L___unnamed_35(%rip), %rsi
	movl	$4, %edx
	leaq	-24(%rbp), %rcx
	leaq	l___unnamed_2(%rip), %r8
	callq	__ZN4core3fmt9Formatter25debug_tuple_field1_finish17h7c0e485bb1c7676eE
	andb	$1, %al
	movb	%al, -25(%rbp)
Ltmp334:
LBB87_3:
	.loc	25 559 42 is_stmt 0
	movb	-25(%rbp), %al
	andb	$1, %al
	movzbl	%al, %eax
	addq	$48, %rsp
	popq	%rbp
	retq
Ltmp335:
Lfunc_end87:
	.cfi_endproc

	.globl	__ZN68_$LT$core..option..Option$LT$T$GT$$u20$as$u20$core..clone..Clone$GT$5clone17hab267db80b3265cdE
	.p2align	4, 0x90
__ZN68_$LT$core..option..Option$LT$T$GT$$u20$as$u20$core..clone..Clone$GT$5clone17hab267db80b3265cdE:
Lfunc_begin88:
	.loc	25 1938 0 is_stmt 1
	.cfi_startproc
	pushq	%rbp
	.cfi_def_cfa_offset 16
	.cfi_offset %rbp, -16
	movq	%rsp, %rbp
	.cfi_def_cfa_register %rbp
	subq	$40, %rsp
	movq	%rdi, -40(%rbp)
	movq	%rdi, -24(%rbp)
Ltmp336:
	.loc	25 1939 15 prologue_end
	movl	(%rdi), %eax
	.loc	25 1939 9 is_stmt 0
	cmpq	$0, %rax
	jne	LBB88_2
	.loc	25 1941 21 is_stmt 1
	movl	$0, -32(%rbp)
	jmp	LBB88_3
LBB88_2:
	.loc	25 0 21 is_stmt 0
	movq	-40(%rbp), %rax
	.loc	25 1940 18 is_stmt 1
	movq	%rax, %rcx
	addq	$4, %rcx
	movq	%rcx, -16(%rbp)
	movq	%rcx, -8(%rbp)
Ltmp337:
	.file	28 "/rustc/2c8cc343237b8f7d5a3c3703e3a87f2eb2c54a74/library/core/src" "clone.rs"
	.loc	28 189 25
	movl	4(%rax), %eax
Ltmp338:
	.loc	25 1940 24
	movl	%eax, -28(%rbp)
	movl	$1, -32(%rbp)
Ltmp339:
LBB88_3:
	.loc	25 1943 6
	movl	-32(%rbp), %eax
	movl	-28(%rbp), %edx
	addq	$40, %rsp
	popq	%rbp
	retq
Ltmp340:
Lfunc_end88:
	.cfi_endproc

	.globl	__ZN68_$LT$core..option..Option$LT$T$GT$$u20$as$u20$core..clone..Clone$GT$5clone17hc1faee9512e8a55bE
	.p2align	4, 0x90
__ZN68_$LT$core..option..Option$LT$T$GT$$u20$as$u20$core..clone..Clone$GT$5clone17hc1faee9512e8a55bE:
Lfunc_begin89:
	.loc	25 1938 0
	.cfi_startproc
	pushq	%rbp
	.cfi_def_cfa_offset 16
	.cfi_offset %rbp, -16
	movq	%rsp, %rbp
	.cfi_def_cfa_register %rbp
	subq	$64, %rsp
	movq	%rsi, -64(%rbp)
	movq	%rdi, -56(%rbp)
	movq	%rdi, -48(%rbp)
	movq	%rsi, -16(%rbp)
Ltmp341:
	.loc	25 1939 15 prologue_end
	movl	$1, %eax
	xorl	%ecx, %ecx
	cmpq	$2, (%rsi)
	cmoveq	%rcx, %rax
	.loc	25 1939 9 is_stmt 0
	cmpq	$0, %rax
	jne	LBB89_2
	.loc	25 0 9
	movq	-56(%rbp), %rax
	.loc	25 1941 21 is_stmt 1
	movq	$2, (%rax)
	jmp	LBB89_3
LBB89_2:
	.loc	25 0 21 is_stmt 0
	movq	-64(%rbp), %rsi
	.loc	25 1940 18 is_stmt 1
	movq	%rsi, -8(%rbp)
Ltmp342:
	.loc	25 1940 29 is_stmt 0
	leaq	-40(%rbp), %rdi
	callq	__ZN58_$LT$log..MaybeStaticStr$u20$as$u20$core..clone..Clone$GT$5clone17hea7ca6fd98db7365E
	movq	-56(%rbp), %rax
	.loc	25 1940 24
	movq	-40(%rbp), %rcx
	movq	%rcx, (%rax)
	movq	-32(%rbp), %rcx
	movq	%rcx, 8(%rax)
	movq	-24(%rbp), %rcx
	movq	%rcx, 16(%rax)
Ltmp343:
LBB89_3:
	.loc	25 0 24
	movq	-48(%rbp), %rax
	.loc	25 1943 6 is_stmt 1
	addq	$64, %rsp
	popq	%rbp
	retq
Ltmp344:
Lfunc_end89:
	.cfi_endproc

	.globl	__ZN72_$LT$I$u20$as$u20$core..iter..adapters..zip..SpecTrustedRandomAccess$GT$17try_get_unchecked17h18263a29f315064cE
	.p2align	4, 0x90
__ZN72_$LT$I$u20$as$u20$core..iter..adapters..zip..SpecTrustedRandomAccess$GT$17try_get_unchecked17h18263a29f315064cE:
Lfunc_begin90:
	.loc	3 580 0
	.cfi_startproc
	pushq	%rbp
	.cfi_def_cfa_offset 16
	.cfi_offset %rbp, -16
	movq	%rsp, %rbp
	.cfi_def_cfa_register %rbp
	subq	$16, %rsp
	movq	%rdi, -16(%rbp)
	movq	%rsi, -8(%rbp)
Ltmp345:
	.loc	3 583 18 prologue_end
	callq	__ZN91_$LT$core..slice..iter..Iter$LT$T$GT$$u20$as$u20$core..iter..traits..iterator..Iterator$GT$24__iterator_get_unchecked17hc7ecab9fdb70fc8eE
	.loc	3 584 6
	addq	$16, %rsp
	popq	%rbp
	retq
Ltmp346:
Lfunc_end90:
	.cfi_endproc

	.p2align	4, 0x90
__ZN81_$LT$core..str..iter..Bytes$u20$as$u20$core..iter..traits..iterator..Iterator$GT$24__iterator_get_unchecked17hac9fb3a72b941f56E:
Lfunc_begin91:
	.file	29 "/rustc/2c8cc343237b8f7d5a3c3703e3a87f2eb2c54a74/library/core/src/str" "iter.rs"
	.loc	29 301 0
	.cfi_startproc
	pushq	%rbp
	.cfi_def_cfa_offset 16
	.cfi_offset %rbp, -16
	movq	%rsp, %rbp
	.cfi_def_cfa_register %rbp
	subq	$16, %rsp
	movq	%rdi, -16(%rbp)
	movq	%rsi, -8(%rbp)
Ltmp347:
	.loc	29 304 18 prologue_end
	callq	__ZN104_$LT$core..iter..adapters..copied..Copied$LT$I$GT$$u20$as$u20$core..iter..traits..iterator..Iterator$GT$24__iterator_get_unchecked17he8f84ccd471cc64cE
	.loc	29 305 6
	addq	$16, %rsp
	popq	%rbp
	retq
Ltmp348:
Lfunc_end91:
	.cfi_endproc

	.p2align	4, 0x90
__ZN81_$LT$core..str..iter..Bytes$u20$as$u20$core..iter..traits..iterator..Iterator$GT$9size_hint17h4f0aa7c208b54dbbE:
Lfunc_begin92:
	.loc	29 241 0
	.cfi_startproc
	pushq	%rbp
	.cfi_def_cfa_offset 16
	.cfi_offset %rbp, -16
	movq	%rsp, %rbp
	.cfi_def_cfa_register %rbp
	subq	$16, %rsp
	movq	%rdi, %rax
	movq	%rax, -16(%rbp)
	movq	%rsi, -8(%rbp)
Ltmp349:
	.loc	29 242 9 prologue_end
	callq	__ZN104_$LT$core..iter..adapters..copied..Copied$LT$I$GT$$u20$as$u20$core..iter..traits..iterator..Iterator$GT$9size_hint17hf27f8a1a8c9c68b9E
	movq	-16(%rbp), %rax
	.loc	29 243 6
	addq	$16, %rsp
	popq	%rbp
	retq
Ltmp350:
Lfunc_end92:
	.cfi_endproc

	.globl	__ZN90_$LT$core..ops..control_flow..ControlFlow$LT$B$C$C$GT$$u20$as$u20$core..cmp..PartialEq$GT$2eq17h1311aa30b055eb10E
	.p2align	4, 0x90
__ZN90_$LT$core..ops..control_flow..ControlFlow$LT$B$C$C$GT$$u20$as$u20$core..cmp..PartialEq$GT$2eq17h1311aa30b055eb10E:
Lfunc_begin93:
	.loc	5 84 0
	.cfi_startproc
	pushq	%rbp
	.cfi_def_cfa_offset 16
	.cfi_offset %rbp, -16
	movq	%rsp, %rbp
	.cfi_def_cfa_register %rbp
	subq	$112, %rsp
	movq	%rdi, -104(%rbp)
	movq	%rsi, -96(%rbp)
	movq	%rdi, -64(%rbp)
	movq	%rsi, -56(%rbp)
Ltmp351:
	.loc	5 84 30 prologue_end
	movb	(%rdi), %al
	andb	$1, %al
	movzbl	%al, %eax
	movq	%rax, -48(%rbp)
Ltmp352:
	.loc	5 84 30 is_stmt 0
	movb	(%rsi), %cl
	andb	$1, %cl
	movzbl	%cl, %ecx
	movq	%rcx, -40(%rbp)
Ltmp353:
	.loc	5 84 30
	cmpq	%rcx, %rax
	je	LBB93_2
	movb	$0, -82(%rbp)
	jmp	LBB93_9
LBB93_2:
	.loc	5 0 30
	movq	-96(%rbp), %rax
	movq	-104(%rbp), %rcx
	.loc	5 84 30
	movq	%rcx, -80(%rbp)
	movq	%rax, -72(%rbp)
	movq	-80(%rbp), %rax
	movb	(%rax), %al
	andb	$1, %al
	movzbl	%al, %eax
	cmpq	$0, %rax
	jne	LBB93_4
	movq	-72(%rbp), %rax
	movb	(%rax), %al
	andb	$1, %al
	movzbl	%al, %eax
	cmpq	$0, %rax
	je	LBB93_8
	jmp	LBB93_6
LBB93_4:
	movq	-72(%rbp), %rax
	movb	(%rax), %al
	andb	$1, %al
	movzbl	%al, %eax
	cmpq	$1, %rax
	jne	LBB93_6
	.loc	5 93 11 is_stmt 1
	movq	-80(%rbp), %rdi
	addq	$1, %rdi
	movq	%rdi, -32(%rbp)
	movq	-72(%rbp), %rsi
	addq	$1, %rsi
	movq	%rsi, -24(%rbp)
Ltmp354:
	.loc	5 93 11 is_stmt 0
	callq	__ZN4core3cmp5impls59_$LT$impl$u20$core..cmp..PartialEq$u20$for$u20$$LP$$RP$$GT$2eq17hc164cf43e11d09b5E
	andb	$1, %al
	movb	%al, -81(%rbp)
Ltmp355:
	.loc	5 84 38 is_stmt 1
	jmp	LBB93_7
LBB93_6:
	.loc	5 84 30 is_stmt 0
	ud2
LBB93_7:
	movb	-81(%rbp), %al
	andb	$1, %al
	movb	%al, -82(%rbp)
	jmp	LBB93_9
LBB93_8:
	.loc	5 89 14 is_stmt 1
	movq	-80(%rbp), %rdi
	addq	$1, %rdi
	movq	%rdi, -16(%rbp)
	movq	-72(%rbp), %rsi
	addq	$1, %rsi
	movq	%rsi, -8(%rbp)
Ltmp356:
	.loc	5 89 14 is_stmt 0
	callq	__ZN4core3cmp5impls59_$LT$impl$u20$core..cmp..PartialEq$u20$for$u20$$LP$$RP$$GT$2eq17hc164cf43e11d09b5E
	andb	$1, %al
	movb	%al, -81(%rbp)
Ltmp357:
	.loc	5 84 38 is_stmt 1
	jmp	LBB93_7
Ltmp358:
LBB93_9:
	.loc	5 84 39 is_stmt 0
	movb	-82(%rbp), %al
	andb	$1, %al
	movzbl	%al, %eax
	addq	$112, %rsp
	popq	%rbp
	retq
Ltmp359:
Lfunc_end93:
	.cfi_endproc

	.globl	__ZN90_$LT$core..option..IntoIter$LT$A$GT$$u20$as$u20$core..iter..traits..iterator..Iterator$GT$4next17h13b05b899c8207c0E
	.p2align	4, 0x90
__ZN90_$LT$core..option..IntoIter$LT$A$GT$$u20$as$u20$core..iter..traits..iterator..Iterator$GT$4next17h13b05b899c8207c0E:
Lfunc_begin94:
	.loc	25 2293 0 is_stmt 1
	.cfi_startproc
	pushq	%rbp
	.cfi_def_cfa_offset 16
	.cfi_offset %rbp, -16
	movq	%rsp, %rbp
	.cfi_def_cfa_register %rbp
	subq	$48, %rsp
	movq	%rdi, -24(%rbp)
Ltmp360:
	.loc	25 2294 9 prologue_end
	movq	%rdi, -16(%rbp)
Ltmp361:
	.loc	25 2163 9
	movq	%rdi, -8(%rbp)
Ltmp362:
	.loc	25 1623 28
	movq	$0, -40(%rbp)
	.loc	25 1623 9 is_stmt 0
	movq	-40(%rbp), %rsi
	movq	-32(%rbp), %rdx
	callq	__ZN4core3mem7replace17h35e67b9fc16f7d2bE
Ltmp363:
	.loc	25 2295 6 is_stmt 1
	addq	$48, %rsp
	popq	%rbp
	retq
Ltmp364:
Lfunc_end94:
	.cfi_endproc

	.globl	__ZN91_$LT$core..option..Option$LT$T$GT$$u20$as$u20$core..iter..traits..collect..IntoIterator$GT$9into_iter17hee6c9a2a6548d0ebE
	.p2align	4, 0x90
__ZN91_$LT$core..option..Option$LT$T$GT$$u20$as$u20$core..iter..traits..collect..IntoIterator$GT$9into_iter17hee6c9a2a6548d0ebE:
Lfunc_begin95:
	.loc	25 1990 0
	.cfi_startproc
	pushq	%rbp
	.cfi_def_cfa_offset 16
	.cfi_offset %rbp, -16
	movq	%rsp, %rbp
	.cfi_def_cfa_register %rbp
	subq	$48, %rsp
	movq	%rdi, -16(%rbp)
	movq	%rsi, -8(%rbp)
Ltmp365:
	.loc	25 1991 27 prologue_end
	movq	%rdi, -32(%rbp)
	movq	%rsi, -24(%rbp)
	.loc	25 1991 9 is_stmt 0
	movq	-32(%rbp), %rcx
	movq	-24(%rbp), %rax
	movq	%rcx, -48(%rbp)
	movq	%rax, -40(%rbp)
	.loc	25 1992 6 is_stmt 1
	movq	-48(%rbp), %rax
	movq	-40(%rbp), %rdx
	addq	$48, %rsp
	popq	%rbp
	retq
Ltmp366:
Lfunc_end95:
	.cfi_endproc

	.globl	__ZN91_$LT$core..slice..iter..Iter$LT$T$GT$$u20$as$u20$core..iter..traits..iterator..Iterator$GT$24__iterator_get_unchecked17hc7ecab9fdb70fc8eE
	.p2align	4, 0x90
__ZN91_$LT$core..slice..iter..Iter$LT$T$GT$$u20$as$u20$core..iter..traits..iterator..Iterator$GT$24__iterator_get_unchecked17hc7ecab9fdb70fc8eE:
Lfunc_begin96:
	.file	30 "/rustc/2c8cc343237b8f7d5a3c3703e3a87f2eb2c54a74/library/core/src/slice/iter" "macros.rs"
	.loc	30 319 0
	.cfi_startproc
	pushq	%rbp
	.cfi_def_cfa_offset 16
	.cfi_offset %rbp, -16
	movq	%rsp, %rbp
	.cfi_def_cfa_register %rbp
	subq	$64, %rsp
	movq	%rdi, -64(%rbp)
	movq	%rsi, -56(%rbp)
Ltmp367:
	.loc	30 330 42 prologue_end
	movq	8(%rdi), %rax
	movq	%rax, -48(%rbp)
Ltmp368:
	.loc	24 326 9
	movq	%rax, -40(%rbp)
Ltmp369:
	.loc	30 330 64
	movq	%rsi, -32(%rbp)
Ltmp370:
	.file	31 "/rustc/2c8cc343237b8f7d5a3c3703e3a87f2eb2c54a74/library/core/src/ptr" "mut_ptr.rs"
	.loc	31 1034 18
	movq	%rax, -24(%rbp)
	.loc	31 1034 30 is_stmt 0
	movq	%rsi, -16(%rbp)
Ltmp371:
	.loc	31 487 18 is_stmt 1
	addq	%rsi, %rax
	movq	%rax, -8(%rbp)
	movq	-8(%rbp), %rax
Ltmp372:
	.loc	30 331 14
	addq	$64, %rsp
	popq	%rbp
	retq
Ltmp373:
Lfunc_end96:
	.cfi_endproc

	.globl	__ZN91_$LT$core..slice..iter..Iter$LT$T$GT$$u20$as$u20$core..iter..traits..iterator..Iterator$GT$4next17h94abf7ec1f9f0b36E
	.p2align	4, 0x90
__ZN91_$LT$core..slice..iter..Iter$LT$T$GT$$u20$as$u20$core..iter..traits..iterator..Iterator$GT$4next17h94abf7ec1f9f0b36E:
Lfunc_begin97:
	.loc	30 124 0
	.cfi_startproc
	pushq	%rbp
	.cfi_def_cfa_offset 16
	.cfi_offset %rbp, -16
	movq	%rsp, %rbp
	.cfi_def_cfa_register %rbp
	subq	$304, %rsp
	movq	%rdi, -304(%rbp)
	movq	%rdi, -240(%rbp)
Ltmp374:
	.loc	30 132 29 prologue_end
	movq	8(%rdi), %rax
	movq	%rax, -224(%rbp)
Ltmp375:
	.loc	24 326 9
	movq	%rax, -216(%rbp)
Ltmp376:
	.loc	31 52 36
	movq	%rax, -280(%rbp)
	.loc	31 52 18 is_stmt 0
	movq	-280(%rbp), %rax
	movq	%rax, -208(%rbp)
Ltmp377:
	.loc	31 38 13 is_stmt 1
	movq	%rax, -200(%rbp)
Ltmp378:
	.loc	31 215 33
	movq	%rax, -192(%rbp)
	.loc	31 215 18 is_stmt 0
	movq	%rax, -184(%rbp)
Ltmp379:
	.loc	30 133 24 is_stmt 1
	movb	$1, %al
	testb	$1, %al
	jne	LBB97_2
LBB97_1:
	.loc	30 0 24 is_stmt 0
	movq	-304(%rbp), %rcx
	.loc	30 136 24 is_stmt 1
	movq	8(%rcx), %rax
	movq	%rax, -136(%rbp)
	cmpq	(%rcx), %rax
	je	LBB97_4
	jmp	LBB97_3
LBB97_2:
	.loc	30 0 24 is_stmt 0
	movq	-304(%rbp), %rax
	.loc	30 134 33 is_stmt 1
	movq	(%rax), %rax
	movq	%rax, -176(%rbp)
Ltmp380:
	.loc	15 53 36
	movq	%rax, -272(%rbp)
	.loc	15 53 18 is_stmt 0
	movq	-272(%rbp), %rax
	movq	%rax, -168(%rbp)
Ltmp381:
	.loc	15 39 13 is_stmt 1
	movq	%rax, -160(%rbp)
Ltmp382:
	.loc	15 209 33
	movq	%rax, -152(%rbp)
	.loc	15 209 18 is_stmt 0
	movq	%rax, -144(%rbp)
Ltmp383:
	.loc	30 133 21 is_stmt 1
	jmp	LBB97_1
LBB97_3:
	.loc	30 0 21 is_stmt 0
	movq	-304(%rbp), %rax
	.loc	30 139 30 is_stmt 1
	movq	%rax, -128(%rbp)
Ltmp384:
	.loc	30 76 20
	xorl	%eax, %eax
	testb	$1, %al
	jne	LBB97_6
	jmp	LBB97_7
Ltmp385:
LBB97_4:
	.loc	30 137 25
	movq	$0, -296(%rbp)
LBB97_5:
	.loc	30 142 14
	movq	-296(%rbp), %rax
	addq	$304, %rsp
	popq	%rbp
	retq
LBB97_6:
	.loc	30 0 14 is_stmt 0
	movq	-304(%rbp), %rax
Ltmp386:
	.loc	30 57 29 is_stmt 1
	movq	(%rax), %rcx
	movq	%rcx, -64(%rbp)
Ltmp387:
	.loc	15 1198 9
	movq	%rcx, -56(%rbp)
Ltmp388:
	.loc	15 61 9
	movq	%rcx, -48(%rbp)
Ltmp389:
	.loc	15 1180 9
	movq	%rcx, -40(%rbp)
Ltmp390:
	.loc	15 555 18
	addq	$-1, %rcx
	movq	%rcx, -32(%rbp)
	movq	-32(%rbp), %rcx
	movq	%rcx, -24(%rbp)
Ltmp391:
	.loc	15 100 29
	movq	%rcx, -16(%rbp)
Ltmp392:
	.loc	23 118 36
	movq	%rcx, -248(%rbp)
	.loc	23 118 14 is_stmt 0
	movq	-248(%rbp), %rcx
	movq	%rcx, -256(%rbp)
	movq	-256(%rbp), %rcx
Ltmp393:
	.loc	30 57 17 is_stmt 1
	movq	%rcx, (%rax)
	.loc	30 78 21
	movq	8(%rax), %rax
	movq	%rax, -8(%rbp)
	movq	%rax, -288(%rbp)
	.loc	30 76 17
	jmp	LBB97_8
LBB97_7:
	.loc	30 0 17 is_stmt 0
	movq	-304(%rbp), %rcx
	.loc	30 80 31 is_stmt 1
	movq	8(%rcx), %rax
	movq	%rax, -120(%rbp)
Ltmp394:
	.loc	24 326 9
	movq	%rax, -112(%rbp)
Ltmp395:
	.loc	30 83 64
	movq	8(%rcx), %rdx
	movq	%rdx, -104(%rbp)
Ltmp396:
	.loc	24 326 9
	movq	%rdx, -96(%rbp)
Ltmp397:
	.loc	31 1034 18
	movq	%rdx, -88(%rbp)
Ltmp398:
	.loc	31 487 18
	addq	$16, %rdx
	movq	%rdx, -80(%rbp)
	movq	-80(%rbp), %rdx
	movq	%rdx, -72(%rbp)
Ltmp399:
	.loc	24 201 13
	movq	%rdx, -264(%rbp)
Ltmp400:
	.loc	30 83 21
	movq	-264(%rbp), %rdx
	movq	%rdx, 8(%rcx)
	.loc	30 84 21
	movq	%rax, -288(%rbp)
Ltmp401:
LBB97_8:
	.loc	30 139 30
	movq	-288(%rbp), %rax
	.loc	30 139 25 is_stmt 0
	movq	%rax, -296(%rbp)
	.loc	30 136 21 is_stmt 1
	jmp	LBB97_5
Ltmp402:
Lfunc_end97:
	.cfi_endproc

	.globl	__ZN91_$LT$core..slice..iter..Iter$LT$T$GT$$u20$as$u20$core..iter..traits..iterator..Iterator$GT$8position17h1d69a735ab127e77E
	.p2align	4, 0x90
__ZN91_$LT$core..slice..iter..Iter$LT$T$GT$$u20$as$u20$core..iter..traits..iterator..Iterator$GT$8position17h1d69a735ab127e77E:
Lfunc_begin98:
	.loc	30 278 0
	.cfi_startproc
	.cfi_personality 155, _rust_eh_personality
	.cfi_lsda 16, Lexception7
	pushq	%rbp
	.cfi_def_cfa_offset 16
	.cfi_offset %rbp, -16
	movq	%rsp, %rbp
	.cfi_def_cfa_register %rbp
	subq	$240, %rsp
	movq	%rdi, -192(%rbp)
	movq	%rsi, -176(%rbp)
	movq	%rdi, -120(%rbp)
Ltmp412:
	.loc	30 282 25 prologue_end
	movq	8(%rdi), %rax
	movq	%rax, -184(%rbp)
	movq	%rax, -112(%rbp)
Ltmp413:
	.loc	30 282 25 is_stmt 0
	xorl	%eax, %eax
	testb	$1, %al
	jne	LBB98_2
	.loc	30 0 25
	movq	-184(%rbp), %rsi
	movq	-192(%rbp), %rax
	.loc	30 282 25
	movq	(%rax), %rdi
	movq	%rsi, -32(%rbp)
Ltmp403:
	callq	__ZN4core3ptr9const_ptr33_$LT$impl$u20$$BP$const$u20$T$GT$7sub_ptr17h3c10fd1f5580ca0fE
Ltmp404:
	movq	%rax, -200(%rbp)
	jmp	LBB98_8
LBB98_2:
	.loc	30 0 25
	movq	-192(%rbp), %rax
	.loc	30 282 25
	movq	(%rax), %rax
	movq	%rax, -104(%rbp)
Ltmp414:
	.loc	15 209 33 is_stmt 1
	movq	%rax, -96(%rbp)
	.loc	15 209 18 is_stmt 0
	movq	%rax, -88(%rbp)
	movq	-88(%rbp), %rax
	movq	%rax, -208(%rbp)
	movq	%rax, -80(%rbp)
Ltmp415:
	.loc	15 0 18
	movq	-184(%rbp), %rax
	.loc	30 282 25 is_stmt 1
	movq	%rax, -72(%rbp)
Ltmp416:
	.loc	24 326 9
	movq	%rax, -64(%rbp)
Ltmp417:
	.loc	31 215 33
	movq	%rax, -56(%rbp)
	.loc	31 215 18 is_stmt 0
	movq	%rax, -48(%rbp)
	movq	-48(%rbp), %rax
	movq	%rax, -216(%rbp)
	movq	%rax, -40(%rbp)
Ltmp418:
	.loc	31 0 18
	movq	-216(%rbp), %rcx
	movq	-208(%rbp), %rax
Ltmp419:
	.file	32 "/rustc/2c8cc343237b8f7d5a3c3703e3a87f2eb2c54a74/library/core/src/num" "uint_macros.rs"
	.loc	32 1203 13 is_stmt 1
	subq	%rcx, %rax
	movq	%rax, -152(%rbp)
Ltmp420:
LBB98_5:
	.loc	30 283 29
	movq	$0, -144(%rbp)
Ltmp421:
	.loc	30 284 17
	jmp	LBB98_9
Ltmp422:
LBB98_6:
	.loc	30 278 13
	movq	-24(%rbp), %rdi
	callq	__Unwind_Resume
LBB98_7:
Ltmp411:
	.loc	30 0 13 is_stmt 0
	movq	%rax, %rcx
	movl	%edx, %eax
	movq	%rcx, -24(%rbp)
	movl	%eax, -16(%rbp)
	jmp	LBB98_6
LBB98_8:
	movq	-200(%rbp), %rax
Ltmp423:
	.loc	30 282 25 is_stmt 1
	movq	%rax, -152(%rbp)
	jmp	LBB98_5
Ltmp424:
LBB98_9:
Ltmp405:
	.loc	30 0 25 is_stmt 0
	movq	-192(%rbp), %rdi
Ltmp425:
	.loc	30 284 37 is_stmt 1
	callq	__ZN91_$LT$core..slice..iter..Iter$LT$T$GT$$u20$as$u20$core..iter..traits..iterator..Iterator$GT$4next17h94abf7ec1f9f0b36E
Ltmp406:
	movq	%rax, -224(%rbp)
	jmp	LBB98_10
LBB98_10:
	.loc	30 0 37 is_stmt 0
	movq	-224(%rbp), %rax
	.loc	30 284 37
	movq	%rax, -136(%rbp)
	.loc	30 284 27
	movq	-136(%rbp), %rdx
	movl	$1, %eax
	xorl	%ecx, %ecx
	cmpq	$0, %rdx
	cmoveq	%rcx, %rax
	cmpq	$1, %rax
	jne	LBB98_12
	.loc	30 284 32
	movq	-136(%rbp), %rax
	movq	%rax, -8(%rbp)
	.loc	30 285 24 is_stmt 1
	movq	%rax, -128(%rbp)
	movq	-128(%rbp), %rsi
Ltmp407:
	leaq	-176(%rbp), %rdi
	callq	__ZN63_$LT$log..LevelFilter$u20$as$u20$core..str..traits..FromStr$GT$8from_str28_$u7b$$u7b$closure$u7d$$u7d$17h66a06b44d20ac72aE
Ltmp408:
	movb	%al, -225(%rbp)
	jmp	LBB98_14
Ltmp426:
LBB98_12:
	.loc	30 293 17
	movq	$0, -168(%rbp)
Ltmp427:
LBB98_13:
	.loc	30 294 14
	movq	-168(%rbp), %rax
	movq	-160(%rbp), %rdx
	addq	$240, %rsp
	popq	%rbp
	retq
LBB98_14:
	.loc	30 0 14 is_stmt 0
	movb	-225(%rbp), %al
Ltmp428:
	.loc	30 285 24 is_stmt 1
	testb	$1, %al
	jne	LBB98_16
	jmp	LBB98_15
LBB98_15:
	.loc	30 291 21
	movq	-144(%rbp), %rax
	addq	$1, %rax
	movq	%rax, -240(%rbp)
	setb	%al
	testb	$1, %al
	jne	LBB98_18
	jmp	LBB98_17
LBB98_16:
	.loc	30 288 41
	movq	-144(%rbp), %rax
	.loc	30 289 37
	movq	-144(%rbp), %rax
	.loc	30 289 32 is_stmt 0
	movq	%rax, -160(%rbp)
	movq	$1, -168(%rbp)
Ltmp429:
	.loc	30 294 13 is_stmt 1
	jmp	LBB98_13
LBB98_17:
	.loc	30 0 13 is_stmt 0
	movq	-240(%rbp), %rax
Ltmp430:
	.loc	30 291 21 is_stmt 1
	movq	%rax, -144(%rbp)
Ltmp431:
	.loc	30 284 17
	jmp	LBB98_9
LBB98_18:
Ltmp409:
Ltmp432:
	.loc	30 291 21
	leaq	_str.0(%rip), %rdi
	leaq	l___unnamed_36(%rip), %rdx
	movl	$28, %esi
	callq	__ZN4core9panicking5panic17hc1bc45270cf64b03E
Ltmp410:
	jmp	LBB98_19
Ltmp433:
LBB98_19:
	.loc	30 0 21 is_stmt 0
	ud2
Lfunc_end98:
	.cfi_endproc
	.section	__TEXT,__gcc_except_tab
	.p2align	2
GCC_except_table98:
Lexception7:
	.byte	255
	.byte	255
	.byte	1
	.uleb128 Lcst_end7-Lcst_begin7
Lcst_begin7:
	.uleb128 Ltmp403-Lfunc_begin98
	.uleb128 Ltmp404-Ltmp403
	.uleb128 Ltmp411-Lfunc_begin98
	.byte	0
	.uleb128 Ltmp404-Lfunc_begin98
	.uleb128 Ltmp405-Ltmp404
	.byte	0
	.byte	0
	.uleb128 Ltmp405-Lfunc_begin98
	.uleb128 Ltmp410-Ltmp405
	.uleb128 Ltmp411-Lfunc_begin98
	.byte	0
Lcst_end7:
	.p2align	2

	.section	__TEXT,__text,regular,pure_instructions
	.globl	__ZN91_$LT$core..slice..iter..Iter$LT$T$GT$$u20$as$u20$core..iter..traits..iterator..Iterator$GT$8position17h743a909324975408E
	.p2align	4, 0x90
__ZN91_$LT$core..slice..iter..Iter$LT$T$GT$$u20$as$u20$core..iter..traits..iterator..Iterator$GT$8position17h743a909324975408E:
Lfunc_begin99:
	.loc	30 278 0 is_stmt 1
	.cfi_startproc
	.cfi_personality 155, _rust_eh_personality
	.cfi_lsda 16, Lexception8
	pushq	%rbp
	.cfi_def_cfa_offset 16
	.cfi_offset %rbp, -16
	movq	%rsp, %rbp
	.cfi_def_cfa_register %rbp
	subq	$240, %rsp
	movq	%rdi, -192(%rbp)
	movq	%rsi, -176(%rbp)
	movq	%rdi, -120(%rbp)
Ltmp443:
	.loc	30 282 25 prologue_end
	movq	8(%rdi), %rax
	movq	%rax, -184(%rbp)
	movq	%rax, -112(%rbp)
Ltmp444:
	.loc	30 282 25 is_stmt 0
	xorl	%eax, %eax
	testb	$1, %al
	jne	LBB99_2
	.loc	30 0 25
	movq	-184(%rbp), %rsi
	movq	-192(%rbp), %rax
	.loc	30 282 25
	movq	(%rax), %rdi
	movq	%rsi, -32(%rbp)
Ltmp434:
	callq	__ZN4core3ptr9const_ptr33_$LT$impl$u20$$BP$const$u20$T$GT$7sub_ptr17h3c10fd1f5580ca0fE
Ltmp435:
	movq	%rax, -200(%rbp)
	jmp	LBB99_8
LBB99_2:
	.loc	30 0 25
	movq	-192(%rbp), %rax
	.loc	30 282 25
	movq	(%rax), %rax
	movq	%rax, -104(%rbp)
Ltmp445:
	.loc	15 209 33 is_stmt 1
	movq	%rax, -96(%rbp)
	.loc	15 209 18 is_stmt 0
	movq	%rax, -88(%rbp)
	movq	-88(%rbp), %rax
	movq	%rax, -208(%rbp)
	movq	%rax, -80(%rbp)
Ltmp446:
	.loc	15 0 18
	movq	-184(%rbp), %rax
	.loc	30 282 25 is_stmt 1
	movq	%rax, -72(%rbp)
Ltmp447:
	.loc	24 326 9
	movq	%rax, -64(%rbp)
Ltmp448:
	.loc	31 215 33
	movq	%rax, -56(%rbp)
	.loc	31 215 18 is_stmt 0
	movq	%rax, -48(%rbp)
	movq	-48(%rbp), %rax
	movq	%rax, -216(%rbp)
	movq	%rax, -40(%rbp)
Ltmp449:
	.loc	31 0 18
	movq	-216(%rbp), %rcx
	movq	-208(%rbp), %rax
Ltmp450:
	.loc	32 1203 13 is_stmt 1
	subq	%rcx, %rax
	movq	%rax, -152(%rbp)
Ltmp451:
LBB99_5:
	.loc	30 283 29
	movq	$0, -144(%rbp)
Ltmp452:
	.loc	30 284 17
	jmp	LBB99_9
Ltmp453:
LBB99_6:
	.loc	30 278 13
	movq	-24(%rbp), %rdi
	callq	__Unwind_Resume
LBB99_7:
Ltmp442:
	.loc	30 0 13 is_stmt 0
	movq	%rax, %rcx
	movl	%edx, %eax
	movq	%rcx, -24(%rbp)
	movl	%eax, -16(%rbp)
	jmp	LBB99_6
LBB99_8:
	movq	-200(%rbp), %rax
Ltmp454:
	.loc	30 282 25 is_stmt 1
	movq	%rax, -152(%rbp)
	jmp	LBB99_5
Ltmp455:
LBB99_9:
Ltmp436:
	.loc	30 0 25 is_stmt 0
	movq	-192(%rbp), %rdi
Ltmp456:
	.loc	30 284 37 is_stmt 1
	callq	__ZN91_$LT$core..slice..iter..Iter$LT$T$GT$$u20$as$u20$core..iter..traits..iterator..Iterator$GT$4next17h94abf7ec1f9f0b36E
Ltmp437:
	movq	%rax, -224(%rbp)
	jmp	LBB99_10
LBB99_10:
	.loc	30 0 37 is_stmt 0
	movq	-224(%rbp), %rax
	.loc	30 284 37
	movq	%rax, -136(%rbp)
	.loc	30 284 27
	movq	-136(%rbp), %rdx
	movl	$1, %eax
	xorl	%ecx, %ecx
	cmpq	$0, %rdx
	cmoveq	%rcx, %rax
	cmpq	$1, %rax
	jne	LBB99_12
	.loc	30 284 32
	movq	-136(%rbp), %rax
	movq	%rax, -8(%rbp)
	.loc	30 285 24 is_stmt 1
	movq	%rax, -128(%rbp)
	movq	-128(%rbp), %rsi
Ltmp438:
	leaq	-176(%rbp), %rdi
	callq	__ZN57_$LT$log..Level$u20$as$u20$core..str..traits..FromStr$GT$8from_str28_$u7b$$u7b$closure$u7d$$u7d$17h1f4b80b2678826f8E
Ltmp439:
	movb	%al, -225(%rbp)
	jmp	LBB99_14
Ltmp457:
LBB99_12:
	.loc	30 293 17
	movq	$0, -168(%rbp)
Ltmp458:
LBB99_13:
	.loc	30 294 14
	movq	-168(%rbp), %rax
	movq	-160(%rbp), %rdx
	addq	$240, %rsp
	popq	%rbp
	retq
LBB99_14:
	.loc	30 0 14 is_stmt 0
	movb	-225(%rbp), %al
Ltmp459:
	.loc	30 285 24 is_stmt 1
	testb	$1, %al
	jne	LBB99_16
	jmp	LBB99_15
LBB99_15:
	.loc	30 291 21
	movq	-144(%rbp), %rax
	addq	$1, %rax
	movq	%rax, -240(%rbp)
	setb	%al
	testb	$1, %al
	jne	LBB99_18
	jmp	LBB99_17
LBB99_16:
	.loc	30 288 41
	movq	-144(%rbp), %rax
	.loc	30 289 37
	movq	-144(%rbp), %rax
	.loc	30 289 32 is_stmt 0
	movq	%rax, -160(%rbp)
	movq	$1, -168(%rbp)
Ltmp460:
	.loc	30 294 13 is_stmt 1
	jmp	LBB99_13
LBB99_17:
	.loc	30 0 13 is_stmt 0
	movq	-240(%rbp), %rax
Ltmp461:
	.loc	30 291 21 is_stmt 1
	movq	%rax, -144(%rbp)
Ltmp462:
	.loc	30 284 17
	jmp	LBB99_9
LBB99_18:
Ltmp440:
Ltmp463:
	.loc	30 291 21
	leaq	_str.0(%rip), %rdi
	leaq	l___unnamed_36(%rip), %rdx
	movl	$28, %esi
	callq	__ZN4core9panicking5panic17hc1bc45270cf64b03E
Ltmp441:
	jmp	LBB99_19
Ltmp464:
LBB99_19:
	.loc	30 0 21 is_stmt 0
	ud2
Lfunc_end99:
	.cfi_endproc
	.section	__TEXT,__gcc_except_tab
	.p2align	2
GCC_except_table99:
Lexception8:
	.byte	255
	.byte	255
	.byte	1
	.uleb128 Lcst_end8-Lcst_begin8
Lcst_begin8:
	.uleb128 Ltmp434-Lfunc_begin99
	.uleb128 Ltmp435-Ltmp434
	.uleb128 Ltmp442-Lfunc_begin99
	.byte	0
	.uleb128 Ltmp435-Lfunc_begin99
	.uleb128 Ltmp436-Ltmp435
	.byte	0
	.byte	0
	.uleb128 Ltmp436-Lfunc_begin99
	.uleb128 Ltmp441-Ltmp436
	.uleb128 Ltmp442-Lfunc_begin99
	.byte	0
Lcst_end8:
	.p2align	2

	.section	__TEXT,__text,regular,pure_instructions
	.globl	__ZN91_$LT$core..slice..iter..Iter$LT$T$GT$$u20$as$u20$core..iter..traits..iterator..Iterator$GT$9size_hint17h7a88ebf9688e2027E
	.p2align	4, 0x90
__ZN91_$LT$core..slice..iter..Iter$LT$T$GT$$u20$as$u20$core..iter..traits..iterator..Iterator$GT$9size_hint17h7a88ebf9688e2027E:
Lfunc_begin100:
	.loc	30 145 0 is_stmt 1
	.cfi_startproc
	pushq	%rbp
	.cfi_def_cfa_offset 16
	.cfi_offset %rbp, -16
	movq	%rsp, %rbp
	.cfi_def_cfa_register %rbp
	subq	$160, %rsp
	movq	%rsi, -152(%rbp)
	movq	%rdi, -144(%rbp)
	movq	%rdi, -136(%rbp)
	movq	%rsi, -96(%rbp)
Ltmp465:
	.loc	30 146 29 prologue_end
	movq	8(%rsi), %rax
	movq	%rax, -128(%rbp)
	movq	%rax, -88(%rbp)
Ltmp466:
	.loc	30 146 29 is_stmt 0
	xorl	%eax, %eax
	testb	$1, %al
	jne	LBB100_2
	.loc	30 0 29
	movq	-128(%rbp), %rsi
	movq	-152(%rbp), %rax
	.loc	30 146 29
	movq	(%rax), %rdi
	movq	%rsi, -8(%rbp)
	callq	__ZN4core3ptr9const_ptr33_$LT$impl$u20$$BP$const$u20$T$GT$7sub_ptr17h58919d9e5793e677E
	movq	%rax, -120(%rbp)
	jmp	LBB100_3
LBB100_2:
	.loc	30 0 29
	movq	-128(%rbp), %rcx
	movq	-152(%rbp), %rax
	.loc	30 146 29
	movq	(%rax), %rax
	movq	%rax, -80(%rbp)
Ltmp467:
	.loc	15 209 33 is_stmt 1
	movq	%rax, -72(%rbp)
	.loc	15 209 18 is_stmt 0
	movq	%rax, -64(%rbp)
	movq	-64(%rbp), %rax
	movq	%rax, -56(%rbp)
Ltmp468:
	.loc	30 146 29 is_stmt 1
	movq	%rcx, -48(%rbp)
Ltmp469:
	.loc	24 326 9
	movq	%rcx, -40(%rbp)
Ltmp470:
	.loc	31 215 33
	movq	%rcx, -32(%rbp)
	.loc	31 215 18 is_stmt 0
	movq	%rcx, -24(%rbp)
	movq	-24(%rbp), %rcx
	movq	%rcx, -16(%rbp)
Ltmp471:
	.loc	32 1203 13 is_stmt 1
	subq	%rcx, %rax
	movq	%rax, -120(%rbp)
Ltmp472:
LBB100_3:
	.loc	32 0 13 is_stmt 0
	movq	-136(%rbp), %rax
	movq	-144(%rbp), %rcx
Ltmp473:
	.loc	30 147 18 is_stmt 1
	movq	-120(%rbp), %rdx
	.loc	30 147 30 is_stmt 0
	movq	-120(%rbp), %rsi
	.loc	30 147 25
	movq	%rsi, -104(%rbp)
	movq	$1, -112(%rbp)
	.loc	30 147 17
	movq	%rdx, (%rcx)
	movq	-112(%rbp), %rsi
	movq	-104(%rbp), %rdx
	movq	%rsi, 8(%rcx)
	movq	%rdx, 16(%rcx)
Ltmp474:
	.loc	30 148 14 is_stmt 1
	addq	$160, %rsp
	popq	%rbp
	retq
Ltmp475:
Lfunc_end100:
	.cfi_endproc

	.globl	__ZN95_$LT$core..ops..control_flow..ControlFlow$LT$B$C$C$GT$$u20$as$u20$core..ops..try_trait..Try$GT$11from_output17hc3a99c0629c357baE
	.p2align	4, 0x90
__ZN95_$LT$core..ops..control_flow..ControlFlow$LT$B$C$C$GT$$u20$as$u20$core..ops..try_trait..Try$GT$11from_output17hc3a99c0629c357baE:
Lfunc_begin101:
	.loc	5 106 0
	.cfi_startproc
	pushq	%rbp
	.cfi_def_cfa_offset 16
	.cfi_offset %rbp, -16
	movq	%rsp, %rbp
	.cfi_def_cfa_register %rbp
	subq	$16, %rsp
Ltmp476:
	.loc	5 107 9 prologue_end
	movb	$0, -9(%rbp)
	.loc	5 108 6
	movb	-9(%rbp), %al
	andb	$1, %al
	movzbl	%al, %eax
	addq	$16, %rsp
	popq	%rbp
	retq
Ltmp477:
Lfunc_end101:
	.cfi_endproc

	.globl	__ZN95_$LT$core..ops..control_flow..ControlFlow$LT$B$C$C$GT$$u20$as$u20$core..ops..try_trait..Try$GT$11from_output17hf4c8240c89ce46f0E
	.p2align	4, 0x90
__ZN95_$LT$core..ops..control_flow..ControlFlow$LT$B$C$C$GT$$u20$as$u20$core..ops..try_trait..Try$GT$11from_output17hf4c8240c89ce46f0E:
Lfunc_begin102:
	.loc	5 106 0
	.cfi_startproc
	pushq	%rbp
	.cfi_def_cfa_offset 16
	.cfi_offset %rbp, -16
	movq	%rsp, %rbp
	.cfi_def_cfa_register %rbp
	subq	$24, %rsp
Ltmp478:
	.loc	5 107 9 prologue_end
	movq	$0, -24(%rbp)
	.loc	5 108 6
	movq	-24(%rbp), %rax
	movq	-16(%rbp), %rdx
	addq	$24, %rsp
	popq	%rbp
	retq
Ltmp479:
Lfunc_end102:
	.cfi_endproc

	.globl	__ZN95_$LT$core..ops..control_flow..ControlFlow$LT$B$C$C$GT$$u20$as$u20$core..ops..try_trait..Try$GT$6branch17h12b344efbb0e6464E
	.p2align	4, 0x90
__ZN95_$LT$core..ops..control_flow..ControlFlow$LT$B$C$C$GT$$u20$as$u20$core..ops..try_trait..Try$GT$6branch17h12b344efbb0e6464E:
Lfunc_begin103:
	.loc	5 111 0
	.cfi_startproc
	pushq	%rbp
	.cfi_def_cfa_offset 16
	.cfi_offset %rbp, -16
	movq	%rsp, %rbp
	.cfi_def_cfa_register %rbp
	subq	$32, %rsp
	movb	%dil, %al
	andb	$1, %al
	movb	%al, -26(%rbp)
Ltmp480:
	.loc	5 112 15 prologue_end
	movb	-26(%rbp), %al
	andb	$1, %al
	movzbl	%al, %eax
	.loc	5 112 9 is_stmt 0
	cmpq	$0, %rax
	jne	LBB103_2
Ltmp481:
	.loc	5 113 41 is_stmt 1
	movb	$0, -25(%rbp)
Ltmp482:
	.loc	5 113 64 is_stmt 0
	jmp	LBB103_3
LBB103_2:
Ltmp483:
	.loc	5 114 38 is_stmt 1
	movb	$1, -25(%rbp)
Ltmp484:
LBB103_3:
	.loc	5 116 6
	movb	-25(%rbp), %al
	andb	$1, %al
	movzbl	%al, %eax
	addq	$32, %rsp
	popq	%rbp
	retq
Ltmp485:
Lfunc_end103:
	.cfi_endproc

	.globl	__ZN95_$LT$core..ops..control_flow..ControlFlow$LT$B$C$C$GT$$u20$as$u20$core..ops..try_trait..Try$GT$6branch17h6e540238ad0bbc9eE
	.p2align	4, 0x90
__ZN95_$LT$core..ops..control_flow..ControlFlow$LT$B$C$C$GT$$u20$as$u20$core..ops..try_trait..Try$GT$6branch17h6e540238ad0bbc9eE:
Lfunc_begin104:
	.loc	5 111 0
	.cfi_startproc
	pushq	%rbp
	.cfi_def_cfa_offset 16
	.cfi_offset %rbp, -16
	movq	%rsp, %rbp
	.cfi_def_cfa_register %rbp
	subq	$56, %rsp
	movq	%rdi, -56(%rbp)
	movq	%rsi, -48(%rbp)
Ltmp486:
	.loc	5 112 9 prologue_end
	cmpq	$0, -56(%rbp)
	jne	LBB104_2
Ltmp487:
	.loc	5 113 41
	movq	$0, -40(%rbp)
Ltmp488:
	.loc	5 113 64 is_stmt 0
	jmp	LBB104_3
LBB104_2:
	.loc	5 114 32 is_stmt 1
	movq	-48(%rbp), %rax
	movq	%rax, -8(%rbp)
Ltmp489:
	.loc	5 114 57 is_stmt 0
	movq	%rax, -24(%rbp)
	.loc	5 114 38
	movq	-24(%rbp), %rax
	movq	%rax, -32(%rbp)
	movq	$1, -40(%rbp)
Ltmp490:
LBB104_3:
	.loc	5 116 6 is_stmt 1
	movq	-40(%rbp), %rax
	movq	-32(%rbp), %rdx
	addq	$56, %rsp
	popq	%rbp
	retq
Ltmp491:
Lfunc_end104:
	.cfi_endproc

	.p2align	4, 0x90
__ZN49_$LT$log..Level$u20$as$u20$core..clone..Clone$GT$5clone17hc4e700b31744f53dE:
Lfunc_begin105:
	.loc	1 453 0
	.cfi_startproc
	pushq	%rbp
	.cfi_def_cfa_offset 16
	.cfi_offset %rbp, -16
	movq	%rsp, %rbp
	.cfi_def_cfa_register %rbp
	pushq	%rax
	movq	%rdi, -8(%rbp)
Ltmp492:
	.loc	1 454 9 prologue_end
	movq	(%rdi), %rax
	.loc	1 455 6
	addq	$8, %rsp
	popq	%rbp
	retq
Ltmp493:
Lfunc_end105:
	.cfi_endproc

	.p2align	4, 0x90
__ZN3log5ok_or17h7309a32af246d54eE:
Lfunc_begin106:
	.loc	1 533 0
	.cfi_startproc
	pushq	%rbp
	.cfi_def_cfa_offset 16
	.cfi_offset %rbp, -16
	movq	%rsp, %rbp
	.cfi_def_cfa_register %rbp
	subq	$40, %rsp
	movq	%rdi, -40(%rbp)
Ltmp494:
	.loc	1 534 11 prologue_end
	movb	$0, -17(%rbp)
	movb	$1, -17(%rbp)
	movl	$1, %eax
	xorl	%ecx, %ecx
	cmpq	$0, -40(%rbp)
	cmoveq	%rcx, %rax
	.loc	1 534 5 is_stmt 0
	cmpq	$0, %rax
	jne	LBB106_2
	.loc	1 536 21 is_stmt 1
	movb	$0, -17(%rbp)
	.loc	1 536 17 is_stmt 0
	movq	$0, -32(%rbp)
	.loc	1 536 22
	jmp	LBB106_3
LBB106_2:
	.loc	1 535 14 is_stmt 1
	movq	-40(%rbp), %rax
	movq	%rax, -8(%rbp)
Ltmp495:
	.loc	1 535 20 is_stmt 0
	movq	%rax, -32(%rbp)
Ltmp496:
LBB106_3:
	.loc	1 538 1 is_stmt 1
	testb	$1, -17(%rbp)
	jne	LBB106_5
LBB106_4:
	.loc	1 538 2 is_stmt 0
	movq	-32(%rbp), %rax
	addq	$40, %rsp
	popq	%rbp
	retq
LBB106_5:
	.loc	1 538 1
	jmp	LBB106_4
Ltmp497:
Lfunc_end106:
	.cfi_endproc

	.p2align	4, 0x90
__ZN3log5ok_or17ha5940e260a8bdb8eE:
Lfunc_begin107:
	.loc	1 533 0 is_stmt 1
	.cfi_startproc
	pushq	%rbp
	.cfi_def_cfa_offset 16
	.cfi_offset %rbp, -16
	movq	%rsp, %rbp
	.cfi_def_cfa_register %rbp
	subq	$40, %rsp
	movq	%rdi, -40(%rbp)
Ltmp498:
	.loc	1 534 11 prologue_end
	movb	$0, -17(%rbp)
	movb	$1, -17(%rbp)
	movl	$1, %eax
	xorl	%ecx, %ecx
	cmpq	$6, -40(%rbp)
	cmoveq	%rcx, %rax
	.loc	1 534 5 is_stmt 0
	cmpq	$0, %rax
	jne	LBB107_2
	.loc	1 536 21 is_stmt 1
	movb	$0, -17(%rbp)
	.loc	1 536 17 is_stmt 0
	movq	$6, -32(%rbp)
	.loc	1 536 22
	jmp	LBB107_3
LBB107_2:
	.loc	1 535 14 is_stmt 1
	movq	-40(%rbp), %rax
	movq	%rax, -8(%rbp)
Ltmp499:
	.loc	1 535 20 is_stmt 0
	movq	%rax, -32(%rbp)
Ltmp500:
LBB107_3:
	.loc	1 538 1 is_stmt 1
	testb	$1, -17(%rbp)
	jne	LBB107_5
LBB107_4:
	.loc	1 538 2 is_stmt 0
	movq	-32(%rbp), %rax
	addq	$40, %rsp
	popq	%rbp
	retq
LBB107_5:
	.loc	1 538 1
	jmp	LBB107_4
Ltmp501:
Lfunc_end107:
	.cfi_endproc

	.p2align	4, 0x90
__ZN3log20eq_ignore_ascii_case17h6c563340690ccbffE:
Lfunc_begin108:
	.loc	1 541 0 is_stmt 1
	.cfi_startproc
	pushq	%rbp
	.cfi_def_cfa_offset 16
	.cfi_offset %rbp, -16
	movq	%rsp, %rbp
	.cfi_def_cfa_register %rbp
	subq	$160, %rsp
	movq	%rdi, -136(%rbp)
	movq	%rsi, -128(%rbp)
	movq	%rdx, -120(%rbp)
	movq	%rcx, -112(%rbp)
	movq	%rdi, -32(%rbp)
	movq	%rsi, -24(%rbp)
	movq	%rdx, -16(%rbp)
	movq	%rcx, -8(%rbp)
Ltmp502:
	.loc	1 550 8 prologue_end
	callq	__ZN4core3str21_$LT$impl$u20$str$GT$3len17h5a150d0122a4a362E
	movq	-120(%rbp), %rdi
	movq	-112(%rbp), %rsi
	movq	%rax, -104(%rbp)
	.loc	1 550 19 is_stmt 0
	callq	__ZN4core3str21_$LT$impl$u20$str$GT$3len17h5a150d0122a4a362E
	movq	%rax, %rcx
	movq	-104(%rbp), %rax
	.loc	1 550 8
	cmpq	%rcx, %rax
	je	LBB108_2
	.loc	1 555 9 is_stmt 1
	movb	$0, -89(%rbp)
	.loc	1 550 5
	jmp	LBB108_3
LBB108_2:
	.loc	1 0 5 is_stmt 0
	movq	-128(%rbp), %rsi
	movq	-136(%rbp), %rdi
	.loc	1 551 9 is_stmt 1
	callq	__ZN4core3str21_$LT$impl$u20$str$GT$5bytes17h8a86525b52f386d8E
	movq	-120(%rbp), %rdi
	movq	-112(%rbp), %rsi
	movq	%rax, -152(%rbp)
	movq	%rdx, -144(%rbp)
	.loc	1 552 18
	callq	__ZN4core3str21_$LT$impl$u20$str$GT$5bytes17h8a86525b52f386d8E
	movq	-152(%rbp), %rsi
	movq	%rax, %rcx
	movq	%rdx, %r8
	movq	-144(%rbp), %rdx
	.loc	1 551 9
	leaq	-88(%rbp), %rdi
	callq	__ZN4core4iter6traits8iterator8Iterator3zip17h2f2ab818e6f22429E
	leaq	-88(%rbp), %rdi
	callq	__ZN4core4iter6traits8iterator8Iterator3all17ha1d772b1b4312031E
	andb	$1, %al
	movb	%al, -89(%rbp)
LBB108_3:
	.loc	1 557 2
	movb	-89(%rbp), %al
	andb	$1, %al
	movzbl	%al, %eax
	addq	$160, %rsp
	popq	%rbp
	retq
Ltmp503:
Lfunc_end108:
	.cfi_endproc

	.p2align	4, 0x90
__ZN3log20eq_ignore_ascii_case18to_ascii_uppercase17hacec19d793e1a7a2E:
Lfunc_begin109:
	.loc	1 542 0
	.cfi_startproc
	pushq	%rbp
	.cfi_def_cfa_offset 16
	.cfi_offset %rbp, -16
	movq	%rsp, %rbp
	.cfi_def_cfa_register %rbp
	subq	$16, %rsp
	movb	%dil, %al
	movb	%al, -4(%rbp)
	movb	%al, -1(%rbp)
Ltmp504:
	.loc	1 543 12 prologue_end
	cmpb	$97, %al
	jae	LBB109_2
	movb	$0, -2(%rbp)
	jmp	LBB109_3
LBB109_2:
	.loc	1 0 12 is_stmt 0
	movb	-4(%rbp), %al
	.loc	1 543 25
	cmpb	$122, %al
	setbe	%al
	.loc	1 543 12
	andb	$1, %al
	movb	%al, -2(%rbp)
LBB109_3:
	testb	$1, -2(%rbp)
	jne	LBB109_5
	.loc	1 0 12
	movb	-4(%rbp), %al
	.loc	1 546 13 is_stmt 1
	movb	%al, -3(%rbp)
	.loc	1 543 9
	jmp	LBB109_10
LBB109_5:
	.loc	1 0 9 is_stmt 0
	movb	-4(%rbp), %al
	.loc	1 544 13 is_stmt 1
	movb	%al, %cl
	subb	$97, %cl
	movb	%cl, -5(%rbp)
	cmpb	$97, %al
	setb	%al
	testb	$1, %al
	jne	LBB109_7
	.loc	1 0 13 is_stmt 0
	movb	-5(%rbp), %al
	.loc	1 544 13
	addb	$65, %al
	movb	%al, -6(%rbp)
	setb	%al
	testb	$1, %al
	jne	LBB109_9
	jmp	LBB109_8
LBB109_7:
	leaq	_str.1(%rip), %rdi
	leaq	l___unnamed_37(%rip), %rdx
	movl	$33, %esi
	callq	__ZN4core9panicking5panic17hc1bc45270cf64b03E
LBB109_8:
	.loc	1 0 13
	movb	-6(%rbp), %al
	.loc	1 544 13
	movb	%al, -3(%rbp)
	.loc	1 543 9 is_stmt 1
	jmp	LBB109_10
LBB109_9:
	.loc	1 544 13
	leaq	_str.0(%rip), %rdi
	leaq	l___unnamed_37(%rip), %rdx
	movl	$28, %esi
	callq	__ZN4core9panicking5panic17hc1bc45270cf64b03E
LBB109_10:
	.loc	1 548 6
	movb	-3(%rbp), %al
	addq	$16, %rsp
	popq	%rbp
	retq
Ltmp505:
Lfunc_end109:
	.cfi_endproc

	.p2align	4, 0x90
__ZN3log20eq_ignore_ascii_case28_$u7b$$u7b$closure$u7d$$u7d$17h244387c573b029f0E:
Lfunc_begin110:
	.loc	1 553 0
	.cfi_startproc
	pushq	%rbp
	.cfi_def_cfa_offset 16
	.cfi_offset %rbp, -16
	movq	%rsp, %rbp
	.cfi_def_cfa_register %rbp
	subq	$32, %rsp
	movb	%dl, %cl
	movb	%cl, -18(%rbp)
	movb	%sil, %al
	movq	%rdi, -16(%rbp)
	movb	%al, -8(%rbp)
	movb	%cl, -7(%rbp)
Ltmp506:
	.loc	1 553 20 prologue_end
	movb	%al, -2(%rbp)
	.loc	1 553 23 is_stmt 0
	movb	%cl, -1(%rbp)
Ltmp507:
	.loc	1 553 27
	movzbl	%al, %edi
	callq	__ZN3log20eq_ignore_ascii_case18to_ascii_uppercase17hacec19d793e1a7a2E
	movb	%al, %cl
	movb	-18(%rbp), %al
	movb	%cl, -17(%rbp)
	.loc	1 553 52
	movzbl	%al, %edi
	callq	__ZN3log20eq_ignore_ascii_case18to_ascii_uppercase17hacec19d793e1a7a2E
	movb	%al, %cl
	movb	-17(%rbp), %al
	.loc	1 553 27
	cmpb	%cl, %al
	sete	%al
Ltmp508:
	.loc	1 553 73
	andb	$1, %al
	movzbl	%al, %eax
	addq	$32, %rsp
	popq	%rbp
	retq
Ltmp509:
Lfunc_end110:
	.cfi_endproc

	.globl	__ZN57_$LT$log..Level$u20$as$u20$core..str..traits..FromStr$GT$8from_str17h554e2a809dad89b7E
	.p2align	4, 0x90
__ZN57_$LT$log..Level$u20$as$u20$core..str..traits..FromStr$GT$8from_str17h554e2a809dad89b7E:
Lfunc_begin111:
	.loc	1 561 0 is_stmt 1
	.cfi_startproc
	pushq	%rbp
	.cfi_def_cfa_offset 16
	.cfi_offset %rbp, -16
	movq	%rsp, %rbp
	.cfi_def_cfa_register %rbp
	subq	$64, %rsp
	movq	%rdi, -56(%rbp)
	movq	%rsi, -48(%rbp)
Ltmp510:
	.loc	1 563 13 prologue_end
	leaq	__ZN3log15LOG_LEVEL_NAMES17h31bb1ccfc571bd1cE(%rip), %rdi
	movl	$6, %esi
	callq	__ZN4core5slice29_$LT$impl$u20$$u5b$T$u5d$$GT$4iter17h0ece646fb6100648E
	movq	%rdx, -16(%rbp)
	movq	%rax, -24(%rbp)
	leaq	-56(%rbp), %rax
	.loc	1 565 27
	movq	%rax, -8(%rbp)
	.loc	1 563 13
	movq	-8(%rbp), %rsi
	leaq	-24(%rbp), %rdi
	callq	__ZN91_$LT$core..slice..iter..Iter$LT$T$GT$$u20$as$u20$core..iter..traits..iterator..Iterator$GT$8position17h743a909324975408E
	movq	%rax, %rdi
	movq	%rdx, %rsi
	callq	__ZN91_$LT$core..option..Option$LT$T$GT$$u20$as$u20$core..iter..traits..collect..IntoIterator$GT$9into_iter17hee6c9a2a6548d0ebE
	movq	%rax, %rdi
	movq	%rdx, %rsi
	callq	__ZN4core4iter6traits8iterator8Iterator6filter17h1e48e782eb8de1b4E
	movq	%rax, %rdi
	movq	%rdx, %rsi
	callq	__ZN4core4iter6traits8iterator8Iterator3map17h0501f2bf2c770381E
	movq	%rdx, -32(%rbp)
	movq	%rax, -40(%rbp)
	leaq	-40(%rbp), %rdi
	callq	__ZN102_$LT$core..iter..adapters..map..Map$LT$I$C$F$GT$$u20$as$u20$core..iter..traits..iterator..Iterator$GT$4next17h67069d2470415306E
	movq	%rax, %rdi
	.loc	1 562 9
	callq	__ZN3log5ok_or17h7309a32af246d54eE
	.loc	1 572 6
	addq	$64, %rsp
	popq	%rbp
	retq
Ltmp511:
Lfunc_end111:
	.cfi_endproc

	.p2align	4, 0x90
__ZN57_$LT$log..Level$u20$as$u20$core..str..traits..FromStr$GT$8from_str28_$u7b$$u7b$closure$u7d$$u7d$17h1f4b80b2678826f8E:
Lfunc_begin112:
	.loc	1 565 0
	.cfi_startproc
	pushq	%rbp
	.cfi_def_cfa_offset 16
	.cfi_offset %rbp, -16
	movq	%rsp, %rbp
	.cfi_def_cfa_register %rbp
	subq	$32, %rsp
	movq	%rdi, %rax
	movq	%rax, -32(%rbp)
	movq	%rsi, -24(%rbp)
Ltmp512:
	.loc	1 565 29 prologue_end
	movq	(%rsi), %rdi
	movq	8(%rsi), %rsi
	movq	%rdi, -16(%rbp)
	movq	%rsi, -8(%rbp)
Ltmp513:
	.loc	1 565 62 is_stmt 0
	movq	(%rax), %rax
	movq	(%rax), %rdx
	movq	8(%rax), %rcx
	.loc	1 565 35
	callq	__ZN3log20eq_ignore_ascii_case17h6c563340690ccbffE
Ltmp514:
	.loc	1 565 68
	andb	$1, %al
	movzbl	%al, %eax
	addq	$32, %rsp
	popq	%rbp
	retq
Ltmp515:
Lfunc_end112:
	.cfi_endproc

	.p2align	4, 0x90
__ZN57_$LT$log..Level$u20$as$u20$core..str..traits..FromStr$GT$8from_str28_$u7b$$u7b$closure$u7d$$u7d$17h5600fca9632debdeE:
Lfunc_begin113:
	.loc	1 567 0 is_stmt 1
	.cfi_startproc
	pushq	%rbp
	.cfi_def_cfa_offset 16
	.cfi_offset %rbp, -16
	movq	%rsp, %rbp
	.cfi_def_cfa_register %rbp
	subq	$24, %rsp
	movq	%rdi, -24(%rbp)
	movq	%rsi, -16(%rbp)
Ltmp516:
	.loc	1 567 27 prologue_end
	movq	(%rsi), %rax
	movq	%rax, -8(%rbp)
Ltmp517:
	.loc	1 567 32 is_stmt 0
	cmpq	$0, %rax
	setne	%al
Ltmp518:
	.loc	1 567 40
	andb	$1, %al
	movzbl	%al, %eax
	addq	$24, %rsp
	popq	%rbp
	retq
Ltmp519:
Lfunc_end113:
	.cfi_endproc

	.p2align	4, 0x90
__ZN57_$LT$log..Level$u20$as$u20$core..str..traits..FromStr$GT$8from_str28_$u7b$$u7b$closure$u7d$$u7d$17hd9fec932eb512d01E:
Lfunc_begin114:
	.loc	1 568 0 is_stmt 1
	.cfi_startproc
	pushq	%rbp
	.cfi_def_cfa_offset 16
	.cfi_offset %rbp, -16
	movq	%rsp, %rbp
	.cfi_def_cfa_register %rbp
	subq	$32, %rsp
	movq	%rsi, -24(%rbp)
	movq	%rdi, %rax
	movq	-24(%rbp), %rdi
	movq	%rax, -16(%rbp)
	movq	%rdi, -8(%rbp)
Ltmp520:
	.loc	1 568 28 prologue_end
	callq	__ZN3log5Level10from_usize17h73a7eedcbff6b1c8E
	movq	%rax, %rdi
	leaq	l___unnamed_38(%rip), %rsi
	callq	__ZN4core6option15Option$LT$T$GT$6unwrap17h4b24b69a01781d71E
	.loc	1 568 59 is_stmt 0
	addq	$32, %rsp
	popq	%rbp
	retq
Ltmp521:
Lfunc_end114:
	.cfi_endproc

	.globl	__ZN49_$LT$log..Level$u20$as$u20$core..fmt..Display$GT$3fmt17h6e6ac48ad46ed0c3E
	.p2align	4, 0x90
__ZN49_$LT$log..Level$u20$as$u20$core..fmt..Display$GT$3fmt17h6e6ac48ad46ed0c3E:
Lfunc_begin115:
	.loc	1 576 0 is_stmt 1
	.cfi_startproc
	pushq	%rbp
	.cfi_def_cfa_offset 16
	.cfi_offset %rbp, -16
	movq	%rsp, %rbp
	.cfi_def_cfa_register %rbp
	subq	$32, %rsp
	movq	%rsi, -24(%rbp)
	movq	%rdi, -16(%rbp)
	movq	%rsi, -8(%rbp)
Ltmp522:
	.loc	1 577 17 prologue_end
	callq	__ZN3log5Level6as_str17ha0f1063980307986E
	movq	-24(%rbp), %rdi
	movq	%rax, %rsi
	.loc	1 577 9 is_stmt 0
	callq	__ZN4core3fmt9Formatter3pad17h322dee5343842323E
	.loc	1 578 6 is_stmt 1
	andb	$1, %al
	movzbl	%al, %eax
	addq	$32, %rsp
	popq	%rbp
	retq
Ltmp523:
Lfunc_end115:
	.cfi_endproc

	.globl	__ZN3log5Level10from_usize17h73a7eedcbff6b1c8E
	.p2align	4, 0x90
__ZN3log5Level10from_usize17h73a7eedcbff6b1c8E:
Lfunc_begin116:
	.loc	1 582 0
	.cfi_startproc
	pushq	%rbp
	.cfi_def_cfa_offset 16
	.cfi_offset %rbp, -16
	movq	%rsp, %rbp
	.cfi_def_cfa_register %rbp
	subq	$24, %rsp
	movq	%rdi, %rax
	movq	%rax, -8(%rbp)
Ltmp524:
	.loc	1 583 9 prologue_end
	decq	%rax
	movq	%rax, -24(%rbp)
	subq	$4, %rax
	ja	LBB116_1
	.loc	1 0 9 is_stmt 0
	movq	-24(%rbp), %rax
	leaq	LJTI116_0(%rip), %rcx
	movslq	(%rcx,%rax,4), %rax
	addq	%rcx, %rax
	jmpq	*%rax
LBB116_1:
	.loc	1 589 18 is_stmt 1
	movq	$0, -16(%rbp)
	jmp	LBB116_7
LBB116_2:
	.loc	1 584 18
	movq	$1, -16(%rbp)
	.loc	1 584 35 is_stmt 0
	jmp	LBB116_7
LBB116_3:
	.loc	1 585 18 is_stmt 1
	movq	$2, -16(%rbp)
	.loc	1 585 34 is_stmt 0
	jmp	LBB116_7
LBB116_4:
	.loc	1 586 18 is_stmt 1
	movq	$3, -16(%rbp)
	.loc	1 586 34 is_stmt 0
	jmp	LBB116_7
LBB116_5:
	.loc	1 587 18 is_stmt 1
	movq	$4, -16(%rbp)
	.loc	1 587 35 is_stmt 0
	jmp	LBB116_7
LBB116_6:
	.loc	1 588 18 is_stmt 1
	movq	$5, -16(%rbp)
LBB116_7:
	.loc	1 591 6
	movq	-16(%rbp), %rax
	addq	$24, %rsp
	popq	%rbp
	retq
Ltmp525:
Lfunc_end116:
	.cfi_endproc
	.p2align	2, 0x90
	.data_region jt32
.set L116_0_set_2, LBB116_2-LJTI116_0
.set L116_0_set_3, LBB116_3-LJTI116_0
.set L116_0_set_4, LBB116_4-LJTI116_0
.set L116_0_set_5, LBB116_5-LJTI116_0
.set L116_0_set_6, LBB116_6-LJTI116_0
LJTI116_0:
	.long	L116_0_set_2
	.long	L116_0_set_3
	.long	L116_0_set_4
	.long	L116_0_set_5
	.long	L116_0_set_6
	.end_data_region

	.globl	__ZN3log5Level6as_str17ha0f1063980307986E
	.p2align	4, 0x90
__ZN3log5Level6as_str17ha0f1063980307986E:
Lfunc_begin117:
	.loc	1 608 0
	.cfi_startproc
	pushq	%rbp
	.cfi_def_cfa_offset 16
	.cfi_offset %rbp, -16
	movq	%rsp, %rbp
	.cfi_def_cfa_register %rbp
	subq	$32, %rsp
	movq	%rdi, -8(%rbp)
Ltmp526:
	.loc	1 609 25 prologue_end
	movq	(%rdi), %rax
	movq	%rax, -16(%rbp)
	movq	-16(%rbp), %rax
	movq	%rax, -24(%rbp)
	.loc	1 609 9 is_stmt 0
	cmpq	$6, %rax
	setb	%al
	testb	$1, %al
	jne	LBB117_1
	jmp	LBB117_2
LBB117_1:
	.loc	1 0 9
	movq	-24(%rbp), %rcx
	.loc	1 609 9
	shlq	$4, %rcx
	leaq	__ZN3log15LOG_LEVEL_NAMES17h31bb1ccfc571bd1cE(%rip), %rdx
	movq	(%rcx,%rdx), %rax
	movq	8(%rcx,%rdx), %rdx
	.loc	1 610 6 is_stmt 1
	addq	$32, %rsp
	popq	%rbp
	retq
LBB117_2:
	.loc	1 0 6 is_stmt 0
	movq	-24(%rbp), %rdi
	.loc	1 609 9 is_stmt 1
	leaq	l___unnamed_39(%rip), %rdx
	movl	$6, %esi
	callq	__ZN4core9panicking18panic_bounds_check17hacb8a94866cda541E
Ltmp527:
Lfunc_end117:
	.cfi_endproc

	.globl	__ZN3log5Level4iter17he02efdfb6b208205E
	.p2align	4, 0x90
__ZN3log5Level4iter17he02efdfb6b208205E:
Lfunc_begin118:
	.loc	1 626 0
	.cfi_startproc
	pushq	%rbp
	.cfi_def_cfa_offset 16
	.cfi_offset %rbp, -16
	movq	%rsp, %rbp
	.cfi_def_cfa_register %rbp
	subq	$16, %rsp
Ltmp528:
	.loc	1 627 9 prologue_end
	movq	$1, -16(%rbp)
	movq	$6, -8(%rbp)
	movq	-16(%rbp), %rdi
	movq	-8(%rbp), %rsi
	callq	__ZN4core4iter6traits8iterator8Iterator3map17hc2803ddcd2e004caE
	.loc	1 628 6
	addq	$16, %rsp
	popq	%rbp
	retq
Ltmp529:
Lfunc_end118:
	.cfi_endproc

	.globl	__ZN63_$LT$log..LevelFilter$u20$as$u20$core..str..traits..FromStr$GT$8from_str17h3736f8627ac6a97cE
	.p2align	4, 0x90
__ZN63_$LT$log..LevelFilter$u20$as$u20$core..str..traits..FromStr$GT$8from_str17h3736f8627ac6a97cE:
Lfunc_begin119:
	.loc	1 742 0
	.cfi_startproc
	pushq	%rbp
	.cfi_def_cfa_offset 16
	.cfi_offset %rbp, -16
	movq	%rsp, %rbp
	.cfi_def_cfa_register %rbp
	subq	$48, %rsp
	movq	%rdi, -40(%rbp)
	movq	%rsi, -32(%rbp)
Ltmp530:
	.loc	1 744 13 prologue_end
	leaq	__ZN3log15LOG_LEVEL_NAMES17h31bb1ccfc571bd1cE(%rip), %rdi
	movl	$6, %esi
	callq	__ZN4core5slice29_$LT$impl$u20$$u5b$T$u5d$$GT$4iter17h0ece646fb6100648E
	movq	%rdx, -16(%rbp)
	movq	%rax, -24(%rbp)
	.loc	1 746 27
	leaq	-40(%rbp), %rax
	movq	%rax, -8(%rbp)
	.loc	1 744 13
	movq	-8(%rbp), %rsi
	leaq	-24(%rbp), %rdi
	callq	__ZN91_$LT$core..slice..iter..Iter$LT$T$GT$$u20$as$u20$core..iter..traits..iterator..Iterator$GT$8position17h1d69a735ab127e77E
	movq	%rax, %rdi
	movq	%rdx, %rsi
	callq	__ZN4core6option15Option$LT$T$GT$3map17h6a793eb6af2d7f57E
	movq	%rax, %rdi
	.loc	1 743 9
	callq	__ZN3log5ok_or17ha5940e260a8bdb8eE
	.loc	1 750 6
	addq	$48, %rsp
	popq	%rbp
	retq
Ltmp531:
Lfunc_end119:
	.cfi_endproc

	.p2align	4, 0x90
__ZN63_$LT$log..LevelFilter$u20$as$u20$core..str..traits..FromStr$GT$8from_str28_$u7b$$u7b$closure$u7d$$u7d$17h66a06b44d20ac72aE:
Lfunc_begin120:
	.loc	1 746 0
	.cfi_startproc
	pushq	%rbp
	.cfi_def_cfa_offset 16
	.cfi_offset %rbp, -16
	movq	%rsp, %rbp
	.cfi_def_cfa_register %rbp
	subq	$32, %rsp
	movq	%rdi, %rax
	movq	%rax, -32(%rbp)
	movq	%rsi, -24(%rbp)
Ltmp532:
	.loc	1 746 29 prologue_end
	movq	(%rsi), %rdi
	movq	8(%rsi), %rsi
	movq	%rdi, -16(%rbp)
	movq	%rsi, -8(%rbp)
Ltmp533:
	.loc	1 746 62 is_stmt 0
	movq	(%rax), %rax
	movq	(%rax), %rdx
	movq	8(%rax), %rcx
	.loc	1 746 35
	callq	__ZN3log20eq_ignore_ascii_case17h6c563340690ccbffE
Ltmp534:
	.loc	1 746 68
	andb	$1, %al
	movzbl	%al, %eax
	addq	$32, %rsp
	popq	%rbp
	retq
Ltmp535:
Lfunc_end120:
	.cfi_endproc

	.p2align	4, 0x90
__ZN63_$LT$log..LevelFilter$u20$as$u20$core..str..traits..FromStr$GT$8from_str28_$u7b$$u7b$closure$u7d$$u7d$17h59e2655dafd3aa97E:
Lfunc_begin121:
	.loc	1 747 0 is_stmt 1
	.cfi_startproc
	pushq	%rbp
	.cfi_def_cfa_offset 16
	.cfi_offset %rbp, -16
	movq	%rsp, %rbp
	.cfi_def_cfa_register %rbp
	subq	$16, %rsp
	movq	%rdi, -8(%rbp)
Ltmp536:
	.loc	1 747 26 prologue_end
	callq	__ZN3log11LevelFilter10from_usize17h062c0ae66617d641E
	movq	%rax, %rdi
	leaq	l___unnamed_40(%rip), %rsi
	callq	__ZN4core6option15Option$LT$T$GT$6unwrap17hf56e0627f493143fE
	.loc	1 747 61 is_stmt 0
	addq	$16, %rsp
	popq	%rbp
	retq
Ltmp537:
Lfunc_end121:
	.cfi_endproc

	.globl	__ZN55_$LT$log..LevelFilter$u20$as$u20$core..fmt..Display$GT$3fmt17h6f3fb797478ffa6bE
	.p2align	4, 0x90
__ZN55_$LT$log..LevelFilter$u20$as$u20$core..fmt..Display$GT$3fmt17h6f3fb797478ffa6bE:
Lfunc_begin122:
	.loc	1 754 0 is_stmt 1
	.cfi_startproc
	pushq	%rbp
	.cfi_def_cfa_offset 16
	.cfi_offset %rbp, -16
	movq	%rsp, %rbp
	.cfi_def_cfa_register %rbp
	subq	$32, %rsp
	movq	%rsi, -24(%rbp)
	movq	%rdi, -16(%rbp)
	movq	%rsi, -8(%rbp)
Ltmp538:
	.loc	1 755 17 prologue_end
	callq	__ZN3log11LevelFilter6as_str17h4c608858760a2fcbE
	movq	-24(%rbp), %rdi
	movq	%rax, %rsi
	.loc	1 755 9 is_stmt 0
	callq	__ZN4core3fmt9Formatter3pad17h322dee5343842323E
	.loc	1 756 6 is_stmt 1
	andb	$1, %al
	movzbl	%al, %eax
	addq	$32, %rsp
	popq	%rbp
	retq
Ltmp539:
Lfunc_end122:
	.cfi_endproc

	.globl	__ZN3log11LevelFilter10from_usize17h062c0ae66617d641E
	.p2align	4, 0x90
__ZN3log11LevelFilter10from_usize17h062c0ae66617d641E:
Lfunc_begin123:
	.loc	1 760 0
	.cfi_startproc
	pushq	%rbp
	.cfi_def_cfa_offset 16
	.cfi_offset %rbp, -16
	movq	%rsp, %rbp
	.cfi_def_cfa_register %rbp
	subq	$24, %rsp
	movq	%rdi, -8(%rbp)
Ltmp540:
	.loc	1 761 9 prologue_end
	movq	%rdi, %rax
	movq	%rax, -24(%rbp)
	subq	$5, %rdi
	ja	LBB123_1
	.loc	1 0 9 is_stmt 0
	movq	-24(%rbp), %rax
	leaq	LJTI123_0(%rip), %rcx
	movslq	(%rcx,%rax,4), %rax
	addq	%rcx, %rax
	jmpq	*%rax
LBB123_1:
	.loc	1 768 18 is_stmt 1
	movq	$6, -16(%rbp)
	jmp	LBB123_8
LBB123_2:
	.loc	1 762 18
	movq	$0, -16(%rbp)
	.loc	1 762 39 is_stmt 0
	jmp	LBB123_8
LBB123_3:
	.loc	1 763 18 is_stmt 1
	movq	$1, -16(%rbp)
	.loc	1 763 41 is_stmt 0
	jmp	LBB123_8
LBB123_4:
	.loc	1 764 18 is_stmt 1
	movq	$2, -16(%rbp)
	.loc	1 764 40 is_stmt 0
	jmp	LBB123_8
LBB123_5:
	.loc	1 765 18 is_stmt 1
	movq	$3, -16(%rbp)
	.loc	1 765 40 is_stmt 0
	jmp	LBB123_8
LBB123_6:
	.loc	1 766 18 is_stmt 1
	movq	$4, -16(%rbp)
	.loc	1 766 41 is_stmt 0
	jmp	LBB123_8
LBB123_7:
	.loc	1 767 18 is_stmt 1
	movq	$5, -16(%rbp)
LBB123_8:
	.loc	1 770 6
	movq	-16(%rbp), %rax
	addq	$24, %rsp
	popq	%rbp
	retq
Ltmp541:
Lfunc_end123:
	.cfi_endproc
	.p2align	2, 0x90
	.data_region jt32
.set L123_0_set_2, LBB123_2-LJTI123_0
.set L123_0_set_3, LBB123_3-LJTI123_0
.set L123_0_set_4, LBB123_4-LJTI123_0
.set L123_0_set_5, LBB123_5-LJTI123_0
.set L123_0_set_6, LBB123_6-LJTI123_0
.set L123_0_set_7, LBB123_7-LJTI123_0
LJTI123_0:
	.long	L123_0_set_2
	.long	L123_0_set_3
	.long	L123_0_set_4
	.long	L123_0_set_5
	.long	L123_0_set_6
	.long	L123_0_set_7
	.end_data_region

	.globl	__ZN3log11LevelFilter6as_str17h4c608858760a2fcbE
	.p2align	4, 0x90
__ZN3log11LevelFilter6as_str17h4c608858760a2fcbE:
Lfunc_begin124:
	.loc	1 789 0
	.cfi_startproc
	pushq	%rbp
	.cfi_def_cfa_offset 16
	.cfi_offset %rbp, -16
	movq	%rsp, %rbp
	.cfi_def_cfa_register %rbp
	subq	$32, %rsp
	movq	%rdi, -8(%rbp)
Ltmp542:
	.loc	1 790 25 prologue_end
	movq	(%rdi), %rax
	movq	%rax, -16(%rbp)
	movq	-16(%rbp), %rax
	movq	%rax, -24(%rbp)
	.loc	1 790 9 is_stmt 0
	cmpq	$6, %rax
	setb	%al
	testb	$1, %al
	jne	LBB124_1
	jmp	LBB124_2
LBB124_1:
	.loc	1 0 9
	movq	-24(%rbp), %rcx
	.loc	1 790 9
	shlq	$4, %rcx
	leaq	__ZN3log15LOG_LEVEL_NAMES17h31bb1ccfc571bd1cE(%rip), %rdx
	movq	(%rcx,%rdx), %rax
	movq	8(%rcx,%rdx), %rdx
	.loc	1 791 6 is_stmt 1
	addq	$32, %rsp
	popq	%rbp
	retq
LBB124_2:
	.loc	1 0 6 is_stmt 0
	movq	-24(%rbp), %rdi
	.loc	1 790 9 is_stmt 1
	leaq	l___unnamed_41(%rip), %rdx
	movl	$6, %esi
	callq	__ZN4core9panicking18panic_bounds_check17hacb8a94866cda541E
Ltmp543:
Lfunc_end124:
	.cfi_endproc

	.globl	__ZN3log11LevelFilter4iter17h1a52670132e06914E
	.p2align	4, 0x90
__ZN3log11LevelFilter4iter17h1a52670132e06914E:
Lfunc_begin125:
	.loc	1 807 0
	.cfi_startproc
	pushq	%rbp
	.cfi_def_cfa_offset 16
	.cfi_offset %rbp, -16
	movq	%rsp, %rbp
	.cfi_def_cfa_register %rbp
	subq	$16, %rsp
Ltmp544:
	.loc	1 808 9 prologue_end
	movq	$0, -16(%rbp)
	movq	$6, -8(%rbp)
	movq	-16(%rbp), %rdi
	movq	-8(%rbp), %rsi
	callq	__ZN4core4iter6traits8iterator8Iterator3map17h3a81775f29f37d16E
	.loc	1 809 6
	addq	$16, %rsp
	popq	%rbp
	retq
Ltmp545:
Lfunc_end125:
	.cfi_endproc

	.p2align	4, 0x90
__ZN3log6Record7builder17h1d430739f5e3d8e3E:
Lfunc_begin126:
	.loc	1 904 0
	.cfi_startproc
	pushq	%rbp
	.cfi_def_cfa_offset 16
	.cfi_offset %rbp, -16
	movq	%rsp, %rbp
	.cfi_def_cfa_register %rbp
	subq	$16, %rsp
	movq	%rdi, %rax
	movq	%rax, -8(%rbp)
Ltmp546:
	.loc	1 905 9 prologue_end
	callq	__ZN3log13RecordBuilder3new17h9a37c8706445765aE
	movq	-8(%rbp), %rax
	.loc	1 906 6
	addq	$16, %rsp
	popq	%rbp
	retq
Ltmp547:
Lfunc_end126:
	.cfi_endproc

	.p2align	4, 0x90
__ZN3log13RecordBuilder3new17h9a37c8706445765aE:
Lfunc_begin127:
	.loc	1 1053 0
	.cfi_startproc
	pushq	%rbp
	.cfi_def_cfa_offset 16
	.cfi_offset %rbp, -16
	movq	%rsp, %rbp
	.cfi_def_cfa_register %rbp
	subq	$304, %rsp
	movq	%rdi, -296(%rbp)
	movq	%rdi, -288(%rbp)
Ltmp548:
	.loc	1 1056 23 prologue_end
	leaq	-152(%rbp), %rdi
	leaq	l___unnamed_14(%rip), %rcx
	xorl	%eax, %eax
	movl	%eax, %r8d
	movq	%rcx, %rsi
	movq	%r8, %rdx
	callq	__ZN4core3fmt9Arguments6new_v117h80e109cd681a6139E
	.loc	1 1057 27
	leaq	-80(%rbp), %rdi
	callq	__ZN3log8Metadata7builder17hecf5f1f0c2e12d8dE
	leaq	-104(%rbp), %rdi
	leaq	-80(%rbp), %rsi
	callq	__ZN3log15MetadataBuilder5build17h44e5c97a87704da3E
	.loc	1 1058 30
	movq	$2, -56(%rbp)
	.loc	1 1059 23
	movq	$2, -32(%rbp)
	.loc	1 1060 23
	movl	$0, -8(%rbp)
	.loc	1 1055 21
	movq	-104(%rbp), %rax
	movq	%rax, -224(%rbp)
	movq	-96(%rbp), %rax
	movq	%rax, -216(%rbp)
	movq	-88(%rbp), %rax
	movq	%rax, -208(%rbp)
	leaq	-280(%rbp), %rdi
	leaq	-152(%rbp), %rsi
	movl	$48, %edx
	callq	_memcpy
	movq	-296(%rbp), %rdi
	movq	-56(%rbp), %rax
	movq	%rax, -200(%rbp)
	movq	-48(%rbp), %rax
	movq	%rax, -192(%rbp)
	movq	-40(%rbp), %rax
	movq	%rax, -184(%rbp)
	movq	-32(%rbp), %rax
	movq	%rax, -176(%rbp)
	movq	-24(%rbp), %rax
	movq	%rax, -168(%rbp)
	movq	-16(%rbp), %rax
	movq	%rax, -160(%rbp)
	movl	-8(%rbp), %ecx
	movl	-4(%rbp), %eax
	movl	%ecx, -232(%rbp)
	movl	%eax, -228(%rbp)
	.loc	1 1054 9
	leaq	-280(%rbp), %rsi
	movl	$128, %edx
	callq	_memcpy
	movq	-288(%rbp), %rax
	.loc	1 1065 6
	addq	$304, %rsp
	popq	%rbp
	retq
Ltmp549:
Lfunc_end127:
	.cfi_endproc

	.p2align	4, 0x90
__ZN3log13RecordBuilder4args17hee718363ffbcfe4fE:
Lfunc_begin128:
	.loc	1 1069 0
	.cfi_startproc
	pushq	%rbp
	.cfi_def_cfa_offset 16
	.cfi_offset %rbp, -16
	movq	%rsp, %rbp
	.cfi_def_cfa_register %rbp
	subq	$64, %rsp
	movq	%rdi, -64(%rbp)
	movq	%rdi, -8(%rbp)
Ltmp550:
	.loc	1 1070 28 prologue_end
	leaq	-56(%rbp), %rdi
	movl	$48, %edx
	callq	_memcpy
Ltmp551:
	.loc	1 0 28 is_stmt 0
	movq	-64(%rbp), %rdi
	.loc	1 1070 9
	leaq	-56(%rbp), %rsi
	movl	$48, %edx
	callq	_memcpy
	movq	-64(%rbp), %rax
	.loc	1 1072 6 is_stmt 1
	addq	$64, %rsp
	popq	%rbp
	retq
Ltmp552:
Lfunc_end128:
	.cfi_endproc

	.p2align	4, 0x90
__ZN3log13RecordBuilder5level17h930608553486f0aeE:
Lfunc_begin129:
	.loc	1 1083 0
	.cfi_startproc
	pushq	%rbp
	.cfi_def_cfa_offset 16
	.cfi_offset %rbp, -16
	movq	%rsp, %rbp
	.cfi_def_cfa_register %rbp
	subq	$16, %rsp
	movq	%rdi, %rax
	movq	%rax, -16(%rbp)
	movq	%rsi, -8(%rbp)
Ltmp553:
	.loc	1 1084 9 prologue_end
	movq	%rsi, 72(%rax)
	.loc	1 1086 6
	addq	$16, %rsp
	popq	%rbp
	retq
Ltmp554:
Lfunc_end129:
	.cfi_endproc

	.p2align	4, 0x90
__ZN3log13RecordBuilder6target17h46f81833de719adcE:
Lfunc_begin130:
	.loc	1 1090 0
	.cfi_startproc
	pushq	%rbp
	.cfi_def_cfa_offset 16
	.cfi_offset %rbp, -16
	movq	%rsp, %rbp
	.cfi_def_cfa_register %rbp
	subq	$24, %rsp
	movq	%rdi, %rax
	movq	%rax, -24(%rbp)
	movq	%rsi, -16(%rbp)
	movq	%rdx, -8(%rbp)
Ltmp555:
	.loc	1 1091 9 prologue_end
	movq	%rsi, 56(%rax)
	movq	%rdx, 64(%rax)
	.loc	1 1093 6
	addq	$24, %rsp
	popq	%rbp
	retq
Ltmp556:
Lfunc_end130:
	.cfi_endproc

	.p2align	4, 0x90
__ZN3log13RecordBuilder18module_path_static17h37cfc0d4e3f93a12E:
Lfunc_begin131:
	.loc	1 1104 0
	.cfi_startproc
	pushq	%rbp
	.cfi_def_cfa_offset 16
	.cfi_offset %rbp, -16
	movq	%rsp, %rbp
	.cfi_def_cfa_register %rbp
	subq	$64, %rsp
	movq	%rdi, -56(%rbp)
	movq	%rdi, -24(%rbp)
	movq	%rsi, -16(%rbp)
	movq	%rdx, -8(%rbp)
Ltmp557:
	.loc	1 1105 35 prologue_end
	leaq	-48(%rbp), %rdi
	callq	__ZN4core6option15Option$LT$T$GT$3map17h43f8f99932f00d31E
	movq	-56(%rbp), %rax
	.loc	1 1105 9 is_stmt 0
	movq	-48(%rbp), %rcx
	movq	%rcx, 80(%rax)
	movq	-40(%rbp), %rcx
	movq	%rcx, 88(%rax)
	movq	-32(%rbp), %rcx
	movq	%rcx, 96(%rax)
	.loc	1 1107 6 is_stmt 1
	addq	$64, %rsp
	popq	%rbp
	retq
Ltmp558:
Lfunc_end131:
	.cfi_endproc

	.p2align	4, 0x90
__ZN3log13RecordBuilder11file_static17h21f0c5609365f7eaE:
Lfunc_begin132:
	.loc	1 1118 0
	.cfi_startproc
	pushq	%rbp
	.cfi_def_cfa_offset 16
	.cfi_offset %rbp, -16
	movq	%rsp, %rbp
	.cfi_def_cfa_register %rbp
	subq	$64, %rsp
	movq	%rdi, -56(%rbp)
	movq	%rdi, -24(%rbp)
	movq	%rsi, -16(%rbp)
	movq	%rdx, -8(%rbp)
Ltmp559:
	.loc	1 1119 28 prologue_end
	leaq	-48(%rbp), %rdi
	callq	__ZN4core6option15Option$LT$T$GT$3map17h43f8f99932f00d31E
	movq	-56(%rbp), %rax
	.loc	1 1119 9 is_stmt 0
	movq	-48(%rbp), %rcx
	movq	%rcx, 104(%rax)
	movq	-40(%rbp), %rcx
	movq	%rcx, 112(%rax)
	movq	-32(%rbp), %rcx
	movq	%rcx, 120(%rax)
	.loc	1 1121 6 is_stmt 1
	addq	$64, %rsp
	popq	%rbp
	retq
Ltmp560:
Lfunc_end132:
	.cfi_endproc

	.p2align	4, 0x90
__ZN3log13RecordBuilder4line17hd580d044ab921bcfE:
Lfunc_begin133:
	.loc	1 1125 0
	.cfi_startproc
	pushq	%rbp
	.cfi_def_cfa_offset 16
	.cfi_offset %rbp, -16
	movq	%rsp, %rbp
	.cfi_def_cfa_register %rbp
	subq	$16, %rsp
	movq	%rdi, %rax
	movq	%rax, -16(%rbp)
	movl	%esi, -8(%rbp)
	movl	%edx, -4(%rbp)
Ltmp561:
	.loc	1 1126 9 prologue_end
	movl	%esi, 48(%rax)
	movl	%edx, 52(%rax)
	.loc	1 1128 6
	addq	$16, %rsp
	popq	%rbp
	retq
Ltmp562:
Lfunc_end133:
	.cfi_endproc

	.p2align	4, 0x90
__ZN3log13RecordBuilder5build17h51f8bab0282d25b2E:
Lfunc_begin134:
	.loc	1 1140 0
	.cfi_startproc
	pushq	%rbp
	.cfi_def_cfa_offset 16
	.cfi_offset %rbp, -16
	movq	%rsp, %rbp
	.cfi_def_cfa_register %rbp
	subq	$16, %rsp
	movq	%rdi, %rax
	movq	%rax, -16(%rbp)
	movq	%rsi, -8(%rbp)
Ltmp563:
	.loc	1 1141 9 prologue_end
	callq	__ZN50_$LT$log..Record$u20$as$u20$core..clone..Clone$GT$5clone17h853fdd45862392feE
	movq	-16(%rbp), %rax
	.loc	1 1142 6
	addq	$16, %rsp
	popq	%rbp
	retq
Ltmp564:
Lfunc_end134:
	.cfi_endproc

	.p2align	4, 0x90
__ZN3log8Metadata7builder17hecf5f1f0c2e12d8dE:
Lfunc_begin135:
	.loc	1 1192 0
	.cfi_startproc
	pushq	%rbp
	.cfi_def_cfa_offset 16
	.cfi_offset %rbp, -16
	movq	%rsp, %rbp
	.cfi_def_cfa_register %rbp
	subq	$16, %rsp
	movq	%rdi, %rax
	movq	%rax, -8(%rbp)
Ltmp565:
	.loc	1 1193 9 prologue_end
	callq	__ZN3log15MetadataBuilder3new17hfc714ce4e2343482E
	movq	-8(%rbp), %rax
	.loc	1 1194 6
	addq	$16, %rsp
	popq	%rbp
	retq
Ltmp566:
Lfunc_end135:
	.cfi_endproc

	.p2align	4, 0x90
__ZN3log15MetadataBuilder3new17hfc714ce4e2343482E:
Lfunc_begin136:
	.loc	1 1238 0
	.cfi_startproc
	pushq	%rbp
	.cfi_def_cfa_offset 16
	.cfi_offset %rbp, -16
	movq	%rsp, %rbp
	.cfi_def_cfa_register %rbp
	subq	$24, %rsp
	movq	%rdi, %rax
Ltmp567:
	.loc	1 1240 23 prologue_end
	movq	$3, -8(%rbp)
	leaq	l___unnamed_14(%rip), %rcx
	movq	%rcx, -24(%rbp)
	movq	$0, -16(%rbp)
	.loc	1 1239 9
	movq	-24(%rbp), %rcx
	movq	%rcx, (%rdi)
	movq	-16(%rbp), %rcx
	movq	%rcx, 8(%rdi)
	movq	-8(%rbp), %rcx
	movq	%rcx, 16(%rdi)
	.loc	1 1245 6
	addq	$24, %rsp
	popq	%rbp
	retq
Ltmp568:
Lfunc_end136:
	.cfi_endproc

	.p2align	4, 0x90
__ZN3log15MetadataBuilder5level17h6e2df7d1734ecfceE:
Lfunc_begin137:
	.loc	1 1249 0
	.cfi_startproc
	pushq	%rbp
	.cfi_def_cfa_offset 16
	.cfi_offset %rbp, -16
	movq	%rsp, %rbp
	.cfi_def_cfa_register %rbp
	subq	$16, %rsp
	movq	%rdi, %rax
	movq	%rax, -16(%rbp)
	movq	%rsi, -8(%rbp)
Ltmp569:
	.loc	1 1250 9 prologue_end
	movq	%rsi, 16(%rax)
	.loc	1 1252 6
	addq	$16, %rsp
	popq	%rbp
	retq
Ltmp570:
Lfunc_end137:
	.cfi_endproc

	.p2align	4, 0x90
__ZN3log15MetadataBuilder6target17hb2648fb4049d75cdE:
Lfunc_begin138:
	.loc	1 1256 0
	.cfi_startproc
	pushq	%rbp
	.cfi_def_cfa_offset 16
	.cfi_offset %rbp, -16
	movq	%rsp, %rbp
	.cfi_def_cfa_register %rbp
	subq	$24, %rsp
	movq	%rdi, %rax
	movq	%rax, -24(%rbp)
	movq	%rsi, -16(%rbp)
	movq	%rdx, -8(%rbp)
Ltmp571:
	.loc	1 1257 9 prologue_end
	movq	%rsi, (%rax)
	movq	%rdx, 8(%rax)
	.loc	1 1259 6
	addq	$24, %rsp
	popq	%rbp
	retq
Ltmp572:
Lfunc_end138:
	.cfi_endproc

	.p2align	4, 0x90
__ZN3log15MetadataBuilder5build17h44e5c97a87704da3E:
Lfunc_begin139:
	.loc	1 1263 0
	.cfi_startproc
	pushq	%rbp
	.cfi_def_cfa_offset 16
	.cfi_offset %rbp, -16
	movq	%rsp, %rbp
	.cfi_def_cfa_register %rbp
	subq	$16, %rsp
	movq	%rdi, %rax
	movq	%rax, -16(%rbp)
	movq	%rsi, -8(%rbp)
Ltmp573:
	.loc	1 1264 9 prologue_end
	callq	__ZN52_$LT$log..Metadata$u20$as$u20$core..clone..Clone$GT$5clone17h75b0571654685b21E
	movq	-16(%rbp), %rax
	.loc	1 1265 6
	addq	$16, %rsp
	popq	%rbp
	retq
Ltmp574:
Lfunc_end139:
	.cfi_endproc

	.globl	__ZN43_$LT$log..NopLogger$u20$as$u20$log..Log$GT$7enabled17hd1455e47be7189c2E
	.p2align	4, 0x90
__ZN43_$LT$log..NopLogger$u20$as$u20$log..Log$GT$7enabled17hd1455e47be7189c2E:
Lfunc_begin140:
	.loc	1 1301 0
	.cfi_startproc
	pushq	%rbp
	.cfi_def_cfa_offset 16
	.cfi_offset %rbp, -16
	movq	%rsp, %rbp
	.cfi_def_cfa_register %rbp
	subq	$16, %rsp
	movq	%rdi, -16(%rbp)
	movq	%rsi, -8(%rbp)
Ltmp575:
	.loc	1 1303 6 prologue_end
	xorl	%eax, %eax
	andb	$1, %al
	movzbl	%al, %eax
	addq	$16, %rsp
	popq	%rbp
	retq
Ltmp576:
Lfunc_end140:
	.cfi_endproc

	.globl	__ZN43_$LT$log..NopLogger$u20$as$u20$log..Log$GT$3log17h71a5ea06cb3c0d44E
	.p2align	4, 0x90
__ZN43_$LT$log..NopLogger$u20$as$u20$log..Log$GT$3log17h71a5ea06cb3c0d44E:
Lfunc_begin141:
	.loc	1 1305 0
	.cfi_startproc
	pushq	%rbp
	.cfi_def_cfa_offset 16
	.cfi_offset %rbp, -16
	movq	%rsp, %rbp
	.cfi_def_cfa_register %rbp
	subq	$16, %rsp
	movq	%rdi, -16(%rbp)
	movq	%rsi, -8(%rbp)
Ltmp577:
	.loc	1 1305 33 prologue_end
	addq	$16, %rsp
	popq	%rbp
	retq
Ltmp578:
Lfunc_end141:
	.cfi_endproc

	.globl	__ZN43_$LT$log..NopLogger$u20$as$u20$log..Log$GT$5flush17hbfa366ae7e9e9957E
	.p2align	4, 0x90
__ZN43_$LT$log..NopLogger$u20$as$u20$log..Log$GT$5flush17hbfa366ae7e9e9957E:
Lfunc_begin142:
	.loc	1 1306 0
	.cfi_startproc
	pushq	%rbp
	.cfi_def_cfa_offset 16
	.cfi_offset %rbp, -16
	movq	%rsp, %rbp
	.cfi_def_cfa_register %rbp
	pushq	%rax
	movq	%rdi, -8(%rbp)
Ltmp579:
	.loc	1 1306 23 prologue_end
	addq	$8, %rsp
	popq	%rbp
	retq
Ltmp580:
Lfunc_end142:
	.cfi_endproc

	.globl	__ZN3log10set_logger17hbf55822b51c5b09aE
	.p2align	4, 0x90
__ZN3log10set_logger17hbf55822b51c5b09aE:
Lfunc_begin143:
	.loc	1 1465 0
	.cfi_startproc
	pushq	%rbp
	.cfi_def_cfa_offset 16
	.cfi_offset %rbp, -16
	movq	%rsp, %rbp
	.cfi_def_cfa_register %rbp
	subq	$32, %rsp
	movq	%rdi, -24(%rbp)
	movq	%rsi, -16(%rbp)
Ltmp581:
	.loc	1 1466 22 prologue_end
	leaq	-24(%rbp), %rax
	movq	%rax, -8(%rbp)
	.loc	1 1466 5 is_stmt 0
	movq	-8(%rbp), %rdi
	callq	__ZN3log16set_logger_inner17h68837e6e828b58f5E
	.loc	1 1467 2 is_stmt 1
	andb	$1, %al
	movzbl	%al, %eax
	addq	$32, %rsp
	popq	%rbp
	retq
Ltmp582:
Lfunc_end143:
	.cfi_endproc

	.p2align	4, 0x90
__ZN3log10set_logger28_$u7b$$u7b$closure$u7d$$u7d$17hcb1f0a149bfc5321E:
Lfunc_begin144:
	.loc	1 1466 0
	.cfi_startproc
	pushq	%rbp
	.cfi_def_cfa_offset 16
	.cfi_offset %rbp, -16
	movq	%rsp, %rbp
	.cfi_def_cfa_register %rbp
	pushq	%rax
	movq	%rdi, -8(%rbp)
Ltmp583:
	.loc	1 1466 25 prologue_end
	movq	-8(%rbp), %rcx
	movq	(%rcx), %rax
	movq	8(%rcx), %rdx
	.loc	1 1466 31 is_stmt 0
	addq	$8, %rsp
	popq	%rbp
	retq
Ltmp584:
Lfunc_end144:
	.cfi_endproc

	.p2align	4, 0x90
__ZN3log16set_logger_inner17h68837e6e828b58f5E:
Lfunc_begin145:
	.loc	1 1470 0 is_stmt 1
	.cfi_startproc
	.cfi_personality 155, _rust_eh_personality
	.cfi_lsda 16, Lexception9
	pushq	%rbp
	.cfi_def_cfa_offset 16
	.cfi_offset %rbp, -16
	movq	%rsp, %rbp
	.cfi_def_cfa_register %rbp
	subq	$144, %rsp
	movq	%rdi, -104(%rbp)
	movq	%rdi, -32(%rbp)
Ltmp596:
	.loc	1 1474 9 prologue_end
	movb	$0, -33(%rbp)
	movb	$1, -33(%rbp)
	.loc	1 1477 9
	movb	$4, -50(%rbp)
	.loc	1 1478 9
	movb	$4, -49(%rbp)
	.loc	1 1474 27
	movzbl	-49(%rbp), %r8d
	movzbl	-50(%rbp), %ecx
Ltmp585:
	leaq	__ZN3log5STATE17h0566c7e98dcae7bfE(%rip), %rdi
	xorl	%eax, %eax
	movl	%eax, %esi
	movl	$1, %edx
	callq	__ZN4core4sync6atomic11AtomicUsize16compare_exchange17h9fb4222996a07356E
Ltmp586:
	movq	%rdx, -96(%rbp)
	movq	%rax, -88(%rbp)
	jmp	LBB145_3
LBB145_1:
	.loc	1 1500 1
	testb	$1, -33(%rbp)
	jne	LBB145_18
	jmp	LBB145_17
LBB145_2:
Ltmp595:
	.loc	1 0 1 is_stmt 0
	movq	%rax, %rcx
	movl	%edx, %eax
	movq	%rcx, -24(%rbp)
	movl	%eax, -16(%rbp)
	jmp	LBB145_1
LBB145_3:
	movq	-96(%rbp), %rax
	movq	-88(%rbp), %rcx
	.loc	1 1474 27 is_stmt 1
	movq	%rcx, -72(%rbp)
	movq	%rax, -64(%rbp)
	.loc	1 1474 21 is_stmt 0
	cmpq	$0, -72(%rbp)
	jne	LBB145_5
	.loc	1 1480 12 is_stmt 1
	movq	-64(%rbp), %rax
	movq	%rax, -48(%rbp)
	.loc	1 1474 21
	jmp	LBB145_6
LBB145_5:
	.loc	1 1480 21
	movq	-64(%rbp), %rax
	movq	%rax, -48(%rbp)
LBB145_6:
Ltmp597:
	.loc	1 1480 27 is_stmt 0
	movq	-48(%rbp), %rax
	movq	%rax, -112(%rbp)
	movq	%rax, -8(%rbp)
Ltmp598:
	.loc	1 1482 5 is_stmt 1
	testq	%rax, %rax
	je	LBB145_8
	jmp	LBB145_21
LBB145_21:
	.loc	1 0 5 is_stmt 0
	movq	-112(%rbp), %rax
	.loc	1 1482 5
	subq	$1, %rax
	je	LBB145_9
	jmp	LBB145_7
LBB145_7:
	.loc	1 1498 14 is_stmt 1
	movb	$1, -73(%rbp)
	.loc	1 1498 36 is_stmt 0
	jmp	LBB145_10
LBB145_8:
	.loc	1 0 36
	movq	-104(%rbp), %rdi
	.loc	1 1485 26 is_stmt 1
	movb	$0, -33(%rbp)
Ltmp591:
	callq	__ZN3log10set_logger28_$u7b$$u7b$closure$u7d$$u7d$17hcb1f0a149bfc5321E
Ltmp592:
	movq	%rdx, -128(%rbp)
	movq	%rax, -120(%rbp)
	jmp	LBB145_15
LBB145_9:
	.loc	1 1491 30
	movb	$4, -34(%rbp)
	.loc	1 1491 19 is_stmt 0
	movzbl	-34(%rbp), %esi
Ltmp587:
	leaq	__ZN3log5STATE17h0566c7e98dcae7bfE(%rip), %rdi
	callq	__ZN4core4sync6atomic11AtomicUsize4load17hd47e8ef69fa5df4dE
Ltmp588:
	movq	%rax, -136(%rbp)
	jmp	LBB145_11
Ltmp599:
LBB145_10:
	.loc	1 1500 1 is_stmt 1
	testb	$1, -33(%rbp)
	jne	LBB145_20
	jmp	LBB145_19
LBB145_11:
	.loc	1 0 1 is_stmt 0
	movq	-136(%rbp), %rax
Ltmp600:
	.loc	1 1491 19 is_stmt 1
	cmpq	$1, %rax
	je	LBB145_13
	.loc	1 1496 13
	movb	$1, -73(%rbp)
	.loc	1 1496 35 is_stmt 0
	jmp	LBB145_10
LBB145_13:
Ltmp589:
	.loc	1 1494 17 is_stmt 1
	callq	__ZN4core4sync6atomic14spin_loop_hint17h0d06f1982a0fcb35E
Ltmp590:
	jmp	LBB145_14
LBB145_14:
	jmp	LBB145_9
LBB145_15:
	.loc	1 0 17 is_stmt 0
	movq	-128(%rbp), %rax
	movq	-120(%rbp), %rcx
	.loc	1 1485 17 is_stmt 1
	movq	%rcx, __ZN3log6LOGGER17h4417c7a506e9cfdbE(%rip)
	movq	%rax, __ZN3log6LOGGER17h4417c7a506e9cfdbE+8(%rip)
	.loc	1 1487 38
	movb	$4, -35(%rbp)
	.loc	1 1487 13 is_stmt 0
	movzbl	-35(%rbp), %edx
Ltmp593:
	leaq	__ZN3log5STATE17h0566c7e98dcae7bfE(%rip), %rdi
	movl	$2, %esi
	callq	__ZN4core4sync6atomic11AtomicUsize5store17hfa1b931e1644ef09E
Ltmp594:
	jmp	LBB145_16
LBB145_16:
	.loc	1 1488 13 is_stmt 1
	movb	$0, -73(%rbp)
	.loc	1 1488 18 is_stmt 0
	jmp	LBB145_10
Ltmp601:
LBB145_17:
	.loc	1 1470 1 is_stmt 1
	movq	-24(%rbp), %rdi
	callq	__Unwind_Resume
LBB145_18:
	.loc	1 1500 1
	jmp	LBB145_17
LBB145_19:
	.loc	1 1500 2 is_stmt 0
	movb	-73(%rbp), %al
	andb	$1, %al
	movzbl	%al, %eax
	addq	$144, %rsp
	popq	%rbp
	retq
LBB145_20:
	.loc	1 1500 1
	jmp	LBB145_19
Ltmp602:
Lfunc_end145:
	.cfi_endproc
	.section	__TEXT,__gcc_except_tab
	.p2align	2
GCC_except_table145:
Lexception9:
	.byte	255
	.byte	255
	.byte	1
	.uleb128 Lcst_end9-Lcst_begin9
Lcst_begin9:
	.uleb128 Ltmp585-Lfunc_begin145
	.uleb128 Ltmp594-Ltmp585
	.uleb128 Ltmp595-Lfunc_begin145
	.byte	0
	.uleb128 Ltmp594-Lfunc_begin145
	.uleb128 Lfunc_end145-Ltmp594
	.byte	0
	.byte	0
Lcst_end9:
	.p2align	2

	.section	__TEXT,__text,regular,pure_instructions
	.globl	__ZN3log15set_logger_racy17h482ce905db75f84cE
	.p2align	4, 0x90
__ZN3log15set_logger_racy17h482ce905db75f84cE:
Lfunc_begin146:
	.loc	1 1521 0 is_stmt 1
	.cfi_startproc
	pushq	%rbp
	.cfi_def_cfa_offset 16
	.cfi_offset %rbp, -16
	movq	%rsp, %rbp
	.cfi_def_cfa_register %rbp
	subq	$48, %rsp
	movq	%rdi, -48(%rbp)
	movq	%rsi, -40(%rbp)
	movq	%rdi, -16(%rbp)
	movq	%rsi, -8(%rbp)
Ltmp603:
	.loc	1 1522 22 prologue_end
	movb	$4, -18(%rbp)
	.loc	1 1522 11 is_stmt 0
	movzbl	-18(%rbp), %esi
	leaq	__ZN3log5STATE17h0566c7e98dcae7bfE(%rip), %rdi
	callq	__ZN4core4sync6atomic11AtomicUsize4load17hd47e8ef69fa5df4dE
	.loc	1 1522 5
	movq	%rax, %rcx
	movq	%rcx, -32(%rbp)
	testq	%rax, %rax
	je	LBB146_2
	jmp	LBB146_5
LBB146_5:
	.loc	1 0 5
	movq	-32(%rbp), %rax
	.loc	1 1522 5
	subq	$1, %rax
	je	LBB146_3
	jmp	LBB146_1
LBB146_1:
	.loc	1 1532 14 is_stmt 1
	movb	$1, -19(%rbp)
	.loc	1 1532 36 is_stmt 0
	jmp	LBB146_4
LBB146_2:
	.loc	1 0 36
	movq	-40(%rbp), %rax
	movq	-48(%rbp), %rcx
	.loc	1 1524 13 is_stmt 1
	movq	%rcx, __ZN3log6LOGGER17h4417c7a506e9cfdbE(%rip)
	movq	%rax, __ZN3log6LOGGER17h4417c7a506e9cfdbE+8(%rip)
	.loc	1 1525 38
	movb	$4, -17(%rbp)
	.loc	1 1525 13 is_stmt 0
	leaq	__ZN3log5STATE17h0566c7e98dcae7bfE(%rip), %rdi
	movl	$2, %esi
	movzbl	-17(%rbp), %edx
	callq	__ZN4core4sync6atomic11AtomicUsize5store17hfa1b931e1644ef09E
	.loc	1 1526 13 is_stmt 1
	movb	$0, -19(%rbp)
	.loc	1 1526 18 is_stmt 0
	jmp	LBB146_4
LBB146_3:
	.loc	1 1530 13 is_stmt 1
	leaq	l___unnamed_42(%rip), %rdi
	leaq	l___unnamed_43(%rip), %rsi
	callq	__ZN4core9panicking19unreachable_display17h650be7314bc92ccbE
LBB146_4:
	.loc	1 1534 2
	movb	-19(%rbp), %al
	andb	$1, %al
	movzbl	%al, %eax
	addq	$48, %rsp
	popq	%rbp
	retq
Ltmp604:
Lfunc_end146:
	.cfi_endproc

	.globl	__ZN58_$LT$log..SetLoggerError$u20$as$u20$core..fmt..Display$GT$3fmt17hc28d192ec101179dE
	.p2align	4, 0x90
__ZN58_$LT$log..SetLoggerError$u20$as$u20$core..fmt..Display$GT$3fmt17hc28d192ec101179dE:
Lfunc_begin147:
	.loc	1 1544 0
	.cfi_startproc
	pushq	%rbp
	.cfi_def_cfa_offset 16
	.cfi_offset %rbp, -16
	movq	%rsp, %rbp
	.cfi_def_cfa_register %rbp
	subq	$32, %rsp
	movq	%rsi, -24(%rbp)
	movq	%rdi, %rax
	movq	-24(%rbp), %rdi
	movq	%rax, -16(%rbp)
	movq	%rdi, -8(%rbp)
Ltmp605:
	.loc	1 1545 23 prologue_end
	movq	__ZN3log16SET_LOGGER_ERROR17hdcbd6d1bd9b62760E(%rip), %rsi
	movq	__ZN3log16SET_LOGGER_ERROR17hdcbd6d1bd9b62760E+8(%rip), %rdx
	.loc	1 1545 9 is_stmt 0
	callq	__ZN4core3fmt9Formatter9write_str17hb029d9999327a35fE
	.loc	1 1546 6 is_stmt 1
	andb	$1, %al
	movzbl	%al, %eax
	addq	$32, %rsp
	popq	%rbp
	retq
Ltmp606:
Lfunc_end147:
	.cfi_endproc

	.globl	__ZN59_$LT$log..ParseLevelError$u20$as$u20$core..fmt..Display$GT$3fmt17h41a9ad4c9668cbd9E
	.p2align	4, 0x90
__ZN59_$LT$log..ParseLevelError$u20$as$u20$core..fmt..Display$GT$3fmt17h41a9ad4c9668cbd9E:
Lfunc_begin148:
	.loc	1 1561 0
	.cfi_startproc
	pushq	%rbp
	.cfi_def_cfa_offset 16
	.cfi_offset %rbp, -16
	movq	%rsp, %rbp
	.cfi_def_cfa_register %rbp
	subq	$32, %rsp
	movq	%rsi, -24(%rbp)
	movq	%rdi, %rax
	movq	-24(%rbp), %rdi
	movq	%rax, -16(%rbp)
	movq	%rdi, -8(%rbp)
Ltmp607:
	.loc	1 1562 23 prologue_end
	movq	__ZN3log17LEVEL_PARSE_ERROR17h1ea9b2d5b3bfce62E(%rip), %rsi
	movq	__ZN3log17LEVEL_PARSE_ERROR17h1ea9b2d5b3bfce62E+8(%rip), %rdx
	.loc	1 1562 9 is_stmt 0
	callq	__ZN4core3fmt9Formatter9write_str17hb029d9999327a35fE
	.loc	1 1563 6 is_stmt 1
	andb	$1, %al
	movzbl	%al, %eax
	addq	$32, %rsp
	popq	%rbp
	retq
Ltmp608:
Lfunc_end148:
	.cfi_endproc

	.globl	__ZN3log6logger17h11ce149b33a0d905E
	.p2align	4, 0x90
__ZN3log6logger17h11ce149b33a0d905E:
Lfunc_begin149:
	.loc	1 1573 0
	.cfi_startproc
	pushq	%rbp
	.cfi_def_cfa_offset 16
	.cfi_offset %rbp, -16
	movq	%rsp, %rbp
	.cfi_def_cfa_register %rbp
	subq	$32, %rsp
Ltmp609:
	.loc	1 1574 19 prologue_end
	movb	$4, -1(%rbp)
	.loc	1 1574 8 is_stmt 0
	leaq	__ZN3log5STATE17h0566c7e98dcae7bfE(%rip), %rdi
	movzbl	-1(%rbp), %esi
	callq	__ZN4core4sync6atomic11AtomicUsize4load17hd47e8ef69fa5df4dE
	cmpq	$2, %rax
	jne	LBB149_2
	.loc	1 1578 18 is_stmt 1
	movq	__ZN3log6LOGGER17h4417c7a506e9cfdbE(%rip), %rcx
	movq	__ZN3log6LOGGER17h4417c7a506e9cfdbE+8(%rip), %rax
	movq	%rcx, -24(%rbp)
	movq	%rax, -16(%rbp)
	.loc	1 1574 5
	jmp	LBB149_3
LBB149_2:
	.loc	1 1576 9
	leaq	__ZN3log6logger3NOP17h0a727b1d9864a1b3E(%rip), %rax
	movq	%rax, -24(%rbp)
	leaq	l___unnamed_3(%rip), %rax
	movq	%rax, -16(%rbp)
LBB149_3:
	.loc	1 1574 5
	movq	-24(%rbp), %rax
	movq	-16(%rbp), %rdx
	.loc	1 1580 2
	addq	$32, %rsp
	popq	%rbp
	retq
Ltmp610:
Lfunc_end149:
	.cfi_endproc

	.globl	__ZN3log17__private_api_log17hb3e914e57185f0bcE
	.p2align	4, 0x90
__ZN3log17__private_api_log17hb3e914e57185f0bcE:
Lfunc_begin150:
	.loc	1 1585 0
	.cfi_startproc
	pushq	%rbp
	.cfi_def_cfa_offset 16
	.cfi_offset %rbp, -16
	movq	%rsp, %rbp
	.cfi_def_cfa_register %rbp
	subq	$528, %rsp
	movq	%rdi, -512(%rbp)
Ltmp611:
	movq	%rsi, -504(%rbp)
	movq	%rdx, -496(%rbp)
	movq	%rcx, -432(%rbp)
	movq	%r8, -424(%rbp)
Ltmp612:
	movq	%rsi, -72(%rbp)
	movq	%rdx, -64(%rbp)
Ltmp613:
	.loc	1 1588 7 prologue_end
	movq	(%rdx), %rcx
	movq	%rcx, -488(%rbp)
	movq	8(%rdx), %rax
	movq	%rax, -480(%rbp)
	movq	%rcx, -56(%rbp)
	movq	%rax, -48(%rbp)
	.loc	1 1588 15 is_stmt 0
	movq	16(%rdx), %rcx
	movq	%rcx, -472(%rbp)
	movq	24(%rdx), %rax
	movq	%rax, -464(%rbp)
	movq	%rcx, -40(%rbp)
	movq	%rax, -32(%rbp)
	.loc	1 1588 28
	movq	32(%rdx), %rcx
	movq	%rcx, -456(%rbp)
	movq	40(%rdx), %rax
	movq	%rax, -448(%rbp)
	movq	%rcx, -24(%rbp)
	movq	%rax, -16(%rbp)
	.loc	1 1588 34
	movl	48(%rdx), %eax
	movl	%eax, -436(%rbp)
	movl	%eax, -4(%rbp)
Ltmp614:
	.loc	1 1591 8 is_stmt 1
	leaq	-432(%rbp), %rdi
Ltmp615:
	callq	__ZN4core6option15Option$LT$T$GT$7is_some17h0216c9454cc6e839E
	testb	$1, %al
Ltmp616:
	jne	LBB150_2
Ltmp617:
	.loc	1 1597 5
	callq	__ZN3log6logger17h11ce149b33a0d905E
	movq	%rax, -528(%rbp)
	movq	%rdx, -520(%rbp)
	.loc	1 1598 10
	leaq	-288(%rbp), %rdi
	callq	__ZN3log6Record7builder17h1d430739f5e3d8e3E
	movq	-512(%rbp), %rsi
	.loc	1 1599 19
	leaq	-160(%rbp), %rdi
	movl	$48, %edx
	callq	_memcpy
	.loc	1 1598 10
	leaq	-288(%rbp), %rdi
	leaq	-160(%rbp), %rsi
	callq	__ZN3log13RecordBuilder4args17hee718363ffbcfe4fE
	movq	-504(%rbp), %rsi
	movq	%rax, %rdi
	callq	__ZN3log13RecordBuilder5level17h930608553486f0aeE
	movq	-488(%rbp), %rsi
	movq	-480(%rbp), %rdx
	movq	%rax, %rdi
	callq	__ZN3log13RecordBuilder6target17h46f81833de719adcE
	movq	-472(%rbp), %rcx
	movq	%rax, %rdi
	movq	-464(%rbp), %rax
	.loc	1 1602 33
	movq	%rcx, -112(%rbp)
	movq	%rax, -104(%rbp)
	.loc	1 1598 10
	movq	-112(%rbp), %rsi
	movq	-104(%rbp), %rdx
	callq	__ZN3log13RecordBuilder18module_path_static17h37cfc0d4e3f93a12E
	movq	-456(%rbp), %rcx
	movq	%rax, %rdi
	movq	-448(%rbp), %rax
	.loc	1 1603 26
	movq	%rcx, -96(%rbp)
	movq	%rax, -88(%rbp)
	.loc	1 1598 10
	movq	-96(%rbp), %rsi
	movq	-88(%rbp), %rdx
	callq	__ZN3log13RecordBuilder11file_static17h21f0c5609365f7eaE
	movq	%rax, %rdi
	movl	-436(%rbp), %eax
	.loc	1 1604 19
	movl	%eax, -76(%rbp)
	movl	$1, -80(%rbp)
	.loc	1 1598 10
	movl	-80(%rbp), %esi
	movl	-76(%rbp), %edx
	callq	__ZN3log13RecordBuilder4line17hd580d044ab921bcfE
	movq	%rax, %rsi
	leaq	-416(%rbp), %rdi
	callq	__ZN3log13RecordBuilder5build17h51f8bab0282d25b2E
	movq	-528(%rbp), %rdi
	movq	-520(%rbp), %rdx
	.loc	1 1597 5
	leaq	-416(%rbp), %rsi
	callq	*40(%rdx)
Ltmp618:
	.loc	1 1607 2
	addq	$528, %rsp
	popq	%rbp
	retq
Ltmp619:
LBB150_2:
	.loc	1 1592 9
	leaq	l___unnamed_44(%rip), %rdi
	leaq	l___unnamed_45(%rip), %rdx
	movl	$85, %esi
	callq	__ZN4core9panicking5panic17hc1bc45270cf64b03E
Ltmp620:
Lfunc_end150:
	.cfi_endproc

	.globl	__ZN3log21__private_api_enabled17h1e22db50de6e6948E
	.p2align	4, 0x90
__ZN3log21__private_api_enabled17h1e22db50de6e6948E:
Lfunc_begin151:
	.loc	1 1633 0
	.cfi_startproc
	pushq	%rbp
	.cfi_def_cfa_offset 16
	.cfi_offset %rbp, -16
	movq	%rsp, %rbp
	.cfi_def_cfa_register %rbp
	subq	$112, %rsp
	movq	%rdi, -112(%rbp)
	movq	%rsi, -104(%rbp)
	movq	%rdx, -96(%rbp)
	movq	%rdi, -24(%rbp)
	movq	%rsi, -16(%rbp)
	movq	%rdx, -8(%rbp)
Ltmp621:
	.loc	1 1634 5 prologue_end
	callq	__ZN3log6logger17h11ce149b33a0d905E
	movq	%rax, -88(%rbp)
	movq	%rdx, -80(%rbp)
	.loc	1 1634 23 is_stmt 0
	leaq	-48(%rbp), %rdi
	callq	__ZN3log8Metadata7builder17hecf5f1f0c2e12d8dE
	movq	-112(%rbp), %rsi
	leaq	-48(%rbp), %rdi
	callq	__ZN3log15MetadataBuilder5level17h6e2df7d1734ecfceE
	movq	-104(%rbp), %rsi
	movq	-96(%rbp), %rdx
	movq	%rax, %rdi
	callq	__ZN3log15MetadataBuilder6target17hb2648fb4049d75cdE
	movq	%rax, %rsi
	leaq	-72(%rbp), %rdi
	callq	__ZN3log15MetadataBuilder5build17h44e5c97a87704da3E
	movq	-88(%rbp), %rdi
	movq	-80(%rbp), %rdx
	.loc	1 1634 5
	leaq	-72(%rbp), %rsi
	callq	*32(%rdx)
	.loc	1 1635 2 is_stmt 1
	andb	$1, %al
	movzbl	%al, %eax
	addq	$112, %rsp
	popq	%rbp
	retq
Ltmp622:
Lfunc_end151:
	.cfi_endproc

	.globl	__ZN47_$LT$log..Level$u20$as$u20$core..fmt..Debug$GT$3fmt17hb24363a5b01345c7E
	.p2align	4, 0x90
__ZN47_$LT$log..Level$u20$as$u20$core..fmt..Debug$GT$3fmt17hb24363a5b01345c7E:
Lfunc_begin152:
	.loc	1 424 0
	.cfi_startproc
	pushq	%rbp
	.cfi_def_cfa_offset 16
	.cfi_offset %rbp, -16
	movq	%rsp, %rbp
	.cfi_def_cfa_register %rbp
	subq	$48, %rsp
	movq	%rsi, -48(%rbp)
	movq	%rdi, -16(%rbp)
	movq	%rsi, -8(%rbp)
Ltmp623:
	.loc	1 424 20 prologue_end
	movq	(%rdi), %rax
	decq	%rax
	movq	%rax, -40(%rbp)
	.loc	1 0 20 is_stmt 0
	movq	-40(%rbp), %rax
	leaq	LJTI152_0(%rip), %rcx
	movslq	(%rcx,%rax,4), %rax
	addq	%rcx, %rax
	jmpq	*%rax
	.loc	1 424 20
	ud2
LBB152_2:
	leaq	l___unnamed_46(%rip), %rax
	movq	%rax, -32(%rbp)
	movq	$5, -24(%rbp)
	.loc	1 424 24
	jmp	LBB152_7
LBB152_3:
	.loc	1 424 20
	leaq	L___unnamed_47(%rip), %rax
	movq	%rax, -32(%rbp)
	movq	$4, -24(%rbp)
	.loc	1 424 24
	jmp	LBB152_7
LBB152_4:
	.loc	1 424 20
	leaq	L___unnamed_48(%rip), %rax
	movq	%rax, -32(%rbp)
	movq	$4, -24(%rbp)
	.loc	1 424 24
	jmp	LBB152_7
LBB152_5:
	.loc	1 424 20
	leaq	l___unnamed_49(%rip), %rax
	movq	%rax, -32(%rbp)
	movq	$5, -24(%rbp)
	.loc	1 424 24
	jmp	LBB152_7
LBB152_6:
	.loc	1 424 20
	leaq	l___unnamed_50(%rip), %rax
	movq	%rax, -32(%rbp)
	movq	$5, -24(%rbp)
LBB152_7:
	.loc	1 0 20
	movq	-48(%rbp), %rdi
	.loc	1 424 20
	movq	-32(%rbp), %rsi
	movq	-24(%rbp), %rdx
	callq	__ZN4core3fmt9Formatter9write_str17hb029d9999327a35fE
	.loc	1 424 25
	andb	$1, %al
	movzbl	%al, %eax
	addq	$48, %rsp
	popq	%rbp
	retq
Ltmp624:
Lfunc_end152:
	.cfi_endproc
	.p2align	2, 0x90
	.data_region jt32
.set L152_0_set_2, LBB152_2-LJTI152_0
.set L152_0_set_3, LBB152_3-LJTI152_0
.set L152_0_set_4, LBB152_4-LJTI152_0
.set L152_0_set_5, LBB152_5-LJTI152_0
.set L152_0_set_6, LBB152_6-LJTI152_0
LJTI152_0:
	.long	L152_0_set_2
	.long	L152_0_set_3
	.long	L152_0_set_4
	.long	L152_0_set_5
	.long	L152_0_set_6
	.end_data_region

	.globl	__ZN53_$LT$log..LevelFilter$u20$as$u20$core..fmt..Debug$GT$3fmt17h1c92e2da9ba7a178E
	.p2align	4, 0x90
__ZN53_$LT$log..LevelFilter$u20$as$u20$core..fmt..Debug$GT$3fmt17h1c92e2da9ba7a178E:
Lfunc_begin153:
	.loc	1 640 0 is_stmt 1
	.cfi_startproc
	pushq	%rbp
	.cfi_def_cfa_offset 16
	.cfi_offset %rbp, -16
	movq	%rsp, %rbp
	.cfi_def_cfa_register %rbp
	subq	$48, %rsp
	movq	%rsi, -48(%rbp)
	movq	%rdi, -16(%rbp)
	movq	%rsi, -8(%rbp)
Ltmp625:
	.loc	1 640 20 prologue_end
	movq	(%rdi), %rax
	movq	%rax, -40(%rbp)
	.loc	1 0 20 is_stmt 0
	movq	-40(%rbp), %rax
	leaq	LJTI153_0(%rip), %rcx
	movslq	(%rcx,%rax,4), %rax
	addq	%rcx, %rax
	jmpq	*%rax
	.loc	1 640 20
	ud2
LBB153_2:
	leaq	l___unnamed_51(%rip), %rax
	movq	%rax, -32(%rbp)
	movq	$3, -24(%rbp)
	.loc	1 640 24
	jmp	LBB153_8
LBB153_3:
	.loc	1 640 20
	leaq	l___unnamed_46(%rip), %rax
	movq	%rax, -32(%rbp)
	movq	$5, -24(%rbp)
	.loc	1 640 24
	jmp	LBB153_8
LBB153_4:
	.loc	1 640 20
	leaq	L___unnamed_47(%rip), %rax
	movq	%rax, -32(%rbp)
	movq	$4, -24(%rbp)
	.loc	1 640 24
	jmp	LBB153_8
LBB153_5:
	.loc	1 640 20
	leaq	L___unnamed_48(%rip), %rax
	movq	%rax, -32(%rbp)
	movq	$4, -24(%rbp)
	.loc	1 640 24
	jmp	LBB153_8
LBB153_6:
	.loc	1 640 20
	leaq	l___unnamed_49(%rip), %rax
	movq	%rax, -32(%rbp)
	movq	$5, -24(%rbp)
	.loc	1 640 24
	jmp	LBB153_8
LBB153_7:
	.loc	1 640 20
	leaq	l___unnamed_50(%rip), %rax
	movq	%rax, -32(%rbp)
	movq	$5, -24(%rbp)
LBB153_8:
	.loc	1 0 20
	movq	-48(%rbp), %rdi
	.loc	1 640 20
	movq	-32(%rbp), %rsi
	movq	-24(%rbp), %rdx
	callq	__ZN4core3fmt9Formatter9write_str17hb029d9999327a35fE
	.loc	1 640 25
	andb	$1, %al
	movzbl	%al, %eax
	addq	$48, %rsp
	popq	%rbp
	retq
Ltmp626:
Lfunc_end153:
	.cfi_endproc
	.p2align	2, 0x90
	.data_region jt32
.set L153_0_set_2, LBB153_2-LJTI153_0
.set L153_0_set_3, LBB153_3-LJTI153_0
.set L153_0_set_4, LBB153_4-LJTI153_0
.set L153_0_set_5, LBB153_5-LJTI153_0
.set L153_0_set_6, LBB153_6-LJTI153_0
.set L153_0_set_7, LBB153_7-LJTI153_0
LJTI153_0:
	.long	L153_0_set_2
	.long	L153_0_set_3
	.long	L153_0_set_4
	.long	L153_0_set_5
	.long	L153_0_set_6
	.long	L153_0_set_7
	.end_data_region

	.p2align	4, 0x90
__ZN3log14MaybeStaticStr6Static17ha3d851c487f588bbE:
Lfunc_begin154:
	.loc	1 814 0 is_stmt 1
	.cfi_startproc
	pushq	%rbp
	.cfi_def_cfa_offset 16
	.cfi_offset %rbp, -16
	movq	%rsp, %rbp
	.cfi_def_cfa_register %rbp
	subq	$16, %rsp
	movq	%rdi, %rax
	movq	%rsi, -16(%rbp)
	movq	%rdx, -8(%rbp)
Ltmp627:
	.loc	1 814 5 prologue_end
	movq	%rsi, 8(%rdi)
	movq	%rdx, 16(%rdi)
	movq	$0, (%rdi)
	addq	$16, %rsp
	popq	%rbp
	retq
Ltmp628:
Lfunc_end154:
	.cfi_endproc

	.p2align	4, 0x90
__ZN58_$LT$log..MaybeStaticStr$u20$as$u20$core..clone..Clone$GT$5clone17hea7ca6fd98db7365E:
Lfunc_begin155:
	.loc	1 812 0
	.cfi_startproc
	pushq	%rbp
	.cfi_def_cfa_offset 16
	.cfi_offset %rbp, -16
	movq	%rsp, %rbp
	.cfi_def_cfa_register %rbp
	pushq	%rax
	movq	%rdi, %rax
	movq	%rsi, -8(%rbp)
Ltmp629:
	.loc	1 812 16 prologue_end
	movq	(%rsi), %rcx
	movq	%rcx, (%rdi)
	movq	8(%rsi), %rcx
	movq	%rcx, 8(%rdi)
	movq	16(%rsi), %rcx
	movq	%rcx, 16(%rdi)
	.loc	1 812 21 is_stmt 0
	addq	$8, %rsp
	popq	%rbp
	retq
Ltmp630:
Lfunc_end155:
	.cfi_endproc

	.globl	__ZN56_$LT$log..MaybeStaticStr$u20$as$u20$core..fmt..Debug$GT$3fmt17h62ab34d0edae6b30E
	.p2align	4, 0x90
__ZN56_$LT$log..MaybeStaticStr$u20$as$u20$core..fmt..Debug$GT$3fmt17h62ab34d0edae6b30E:
Lfunc_begin156:
	.loc	1 812 0 is_stmt 1
	.cfi_startproc
	pushq	%rbp
	.cfi_def_cfa_offset 16
	.cfi_offset %rbp, -16
	movq	%rsp, %rbp
	.cfi_def_cfa_register %rbp
	subq	$64, %rsp
	movq	%rdi, -56(%rbp)
	movq	%rsi, -48(%rbp)
	movq	%rdi, -16(%rbp)
	movq	%rsi, -8(%rbp)
Ltmp631:
	.loc	1 812 61 prologue_end
	cmpq	$0, (%rdi)
	jne	LBB156_2
	.loc	1 0 61 is_stmt 0
	movq	-48(%rbp), %rdi
	movq	-56(%rbp), %rax
	.loc	1 814 12 is_stmt 1
	addq	$8, %rax
	movq	%rax, -32(%rbp)
Ltmp632:
	.loc	1 812 61
	leaq	l___unnamed_52(%rip), %rsi
	movl	$6, %edx
	leaq	-32(%rbp), %rcx
	leaq	l___unnamed_4(%rip), %r8
	callq	__ZN4core3fmt9Formatter25debug_tuple_field1_finish17h7c0e485bb1c7676eE
	andb	$1, %al
	movb	%al, -33(%rbp)
	jmp	LBB156_3
Ltmp633:
LBB156_2:
	.loc	1 0 61 is_stmt 0
	movq	-48(%rbp), %rdi
	movq	-56(%rbp), %rax
	.loc	1 815 14 is_stmt 1
	addq	$8, %rax
	movq	%rax, -24(%rbp)
Ltmp634:
	.loc	1 812 61
	leaq	L___unnamed_53(%rip), %rsi
	movl	$8, %edx
	leaq	-24(%rbp), %rcx
	leaq	l___unnamed_4(%rip), %r8
	callq	__ZN4core3fmt9Formatter25debug_tuple_field1_finish17h7c0e485bb1c7676eE
	andb	$1, %al
	movb	%al, -33(%rbp)
Ltmp635:
LBB156_3:
	.loc	1 812 66 is_stmt 0
	movb	-33(%rbp), %al
	andb	$1, %al
	movzbl	%al, %eax
	addq	$64, %rsp
	popq	%rbp
	retq
Ltmp636:
Lfunc_end156:
	.cfi_endproc

	.p2align	4, 0x90
__ZN50_$LT$log..Record$u20$as$u20$core..clone..Clone$GT$5clone17h853fdd45862392feE:
Lfunc_begin157:
	.loc	1 873 0 is_stmt 1
	.cfi_startproc
	pushq	%rbp
	.cfi_def_cfa_offset 16
	.cfi_offset %rbp, -16
	movq	%rsp, %rbp
	.cfi_def_cfa_register %rbp
	subq	$160, %rsp
	movq	%rsi, -160(%rbp)
	movq	%rdi, -144(%rbp)
	movq	%rdi, -136(%rbp)
	movq	%rsi, -8(%rbp)
Ltmp637:
	.loc	1 875 5 prologue_end
	addq	$56, %rsi
	leaq	-128(%rbp), %rdi
	callq	__ZN52_$LT$log..Metadata$u20$as$u20$core..clone..Clone$GT$5clone17h75b0571654685b21E
	movq	-160(%rbp), %rsi
	.loc	1 876 5
	leaq	-104(%rbp), %rdi
	callq	__ZN59_$LT$core..fmt..Arguments$u20$as$u20$core..clone..Clone$GT$5clone17hbb00e54f5612623eE
	movq	-160(%rbp), %rsi
	.loc	1 877 5
	addq	$80, %rsi
	leaq	-56(%rbp), %rdi
	callq	__ZN68_$LT$core..option..Option$LT$T$GT$$u20$as$u20$core..clone..Clone$GT$5clone17hc1faee9512e8a55bE
	movq	-160(%rbp), %rsi
	.loc	1 878 5
	addq	$104, %rsi
	leaq	-32(%rbp), %rdi
	callq	__ZN68_$LT$core..option..Option$LT$T$GT$$u20$as$u20$core..clone..Clone$GT$5clone17hc1faee9512e8a55bE
	movq	-160(%rbp), %rdi
	.loc	1 879 5
	addq	$48, %rdi
	callq	__ZN68_$LT$core..option..Option$LT$T$GT$$u20$as$u20$core..clone..Clone$GT$5clone17hab267db80b3265cdE
	movq	-144(%rbp), %rdi
	movl	%eax, -152(%rbp)
	movl	%edx, -148(%rbp)
	.loc	1 873 10
	movq	-128(%rbp), %rax
	movq	%rax, 56(%rdi)
	movq	-120(%rbp), %rax
	movq	%rax, 64(%rdi)
	movq	-112(%rbp), %rax
	movq	%rax, 72(%rdi)
	leaq	-104(%rbp), %rsi
	movl	$48, %edx
	callq	_memcpy
	movl	-152(%rbp), %ecx
	movl	-148(%rbp), %edx
	movq	-144(%rbp), %rdi
	movq	-136(%rbp), %rax
	movq	-56(%rbp), %rsi
	movq	%rsi, 80(%rdi)
	movq	-48(%rbp), %rsi
	movq	%rsi, 88(%rdi)
	movq	-40(%rbp), %rsi
	movq	%rsi, 96(%rdi)
	movq	-32(%rbp), %rsi
	movq	%rsi, 104(%rdi)
	movq	-24(%rbp), %rsi
	movq	%rsi, 112(%rdi)
	movq	-16(%rbp), %rsi
	movq	%rsi, 120(%rdi)
	movl	%ecx, 48(%rdi)
	movl	%edx, 52(%rdi)
	.loc	1 873 15 is_stmt 0
	addq	$160, %rsp
	popq	%rbp
	retq
Ltmp638:
Lfunc_end157:
	.cfi_endproc

	.globl	__ZN48_$LT$log..Record$u20$as$u20$core..fmt..Debug$GT$3fmt17hd4953b8fb0cbe266E
	.p2align	4, 0x90
__ZN48_$LT$log..Record$u20$as$u20$core..fmt..Debug$GT$3fmt17hd4953b8fb0cbe266E:
Lfunc_begin158:
	.loc	1 873 0 is_stmt 1
	.cfi_startproc
	pushq	%rbp
	.cfi_def_cfa_offset 16
	.cfi_offset %rbp, -16
	movq	%rsp, %rbp
	.cfi_def_cfa_register %rbp
	pushq	%r15
	pushq	%r14
	pushq	%r13
	pushq	%r12
	pushq	%rbx
	subq	$248, %rsp
	.cfi_offset %rbx, -56
	.cfi_offset %r12, -48
	.cfi_offset %r13, -40
	.cfi_offset %r14, -32
	.cfi_offset %r15, -24
	movq	%rsi, -144(%rbp)
	movq	%rdi, %rax
	movq	-144(%rbp), %rdi
	movq	%rax, -56(%rbp)
	movq	%rdi, -48(%rbp)
Ltmp639:
	.loc	1 875 5 prologue_end
	movq	%rax, %rcx
	addq	$56, %rcx
	movq	%rcx, -96(%rbp)
	.loc	1 876 5
	movq	%rax, -88(%rbp)
	.loc	1 877 5
	movq	%rax, %rcx
	addq	$80, %rcx
	movq	%rcx, -80(%rbp)
	.loc	1 878 5
	movq	%rax, %rcx
	addq	$104, %rcx
	movq	%rcx, -72(%rbp)
	.loc	1 879 5
	addq	$48, %rax
	movq	%rax, -64(%rbp)
	.loc	1 873 17
	leaq	l___unnamed_54(%rip), %rsi
	movl	$6, %edx
	leaq	L___unnamed_55(%rip), %rcx
	movl	$8, %r8d
	leaq	-96(%rbp), %r9
	leaq	l___unnamed_5(%rip), %rax
	movq	%rax, -136(%rbp)
	leaq	L___unnamed_56(%rip), %rax
	movq	%rax, -128(%rbp)
	leaq	-88(%rbp), %rax
	movq	%rax, -120(%rbp)
	leaq	l___unnamed_6(%rip), %rax
	movq	%rax, -112(%rbp)
	leaq	l___unnamed_57(%rip), %r13
	leaq	-80(%rbp), %r12
	leaq	l___unnamed_7(%rip), %rbx
	leaq	L___unnamed_58(%rip), %r15
	leaq	-72(%rbp), %r14
	leaq	L___unnamed_59(%rip), %r11
	leaq	-64(%rbp), %r10
	leaq	l___unnamed_8(%rip), %rax
	movq	%rax, -104(%rbp)
	movq	-136(%rbp), %rax
	movq	%rax, (%rsp)
	movq	-128(%rbp), %rax
	movq	%rax, 8(%rsp)
	movq	-120(%rbp), %rax
	movq	$4, 16(%rsp)
	movq	%rax, 24(%rsp)
	movq	-112(%rbp), %rax
	movq	%rax, 32(%rsp)
	movq	-104(%rbp), %rax
	movq	%r13, 40(%rsp)
	movq	$11, 48(%rsp)
	movq	%r12, 56(%rsp)
	movq	%rbx, 64(%rsp)
	movq	%r15, 72(%rsp)
	movq	$4, 80(%rsp)
	movq	%r14, 88(%rsp)
	movq	%rbx, 96(%rsp)
	movq	%r11, 104(%rsp)
	movq	$4, 112(%rsp)
	movq	%r10, 120(%rsp)
	movq	%rax, 128(%rsp)
	callq	__ZN4core3fmt9Formatter26debug_struct_field5_finish17h9200510306f207c6E
	.loc	1 873 22 is_stmt 0
	andb	$1, %al
	movzbl	%al, %eax
	addq	$248, %rsp
	popq	%rbx
	popq	%r12
	popq	%r13
	popq	%r14
	popq	%r15
	popq	%rbp
	retq
Ltmp640:
Lfunc_end158:
	.cfi_endproc

	.globl	__ZN55_$LT$log..RecordBuilder$u20$as$u20$core..fmt..Debug$GT$3fmt17h73e20157a37cd10cE
	.p2align	4, 0x90
__ZN55_$LT$log..RecordBuilder$u20$as$u20$core..fmt..Debug$GT$3fmt17h73e20157a37cd10cE:
Lfunc_begin159:
	.loc	1 1034 0 is_stmt 1
	.cfi_startproc
	pushq	%rbp
	.cfi_def_cfa_offset 16
	.cfi_offset %rbp, -16
	movq	%rsp, %rbp
	.cfi_def_cfa_register %rbp
	subq	$48, %rsp
	movq	%rsi, -32(%rbp)
	movq	%rdi, %rax
	movq	-32(%rbp), %rdi
	movq	%rax, -16(%rbp)
	movq	%rdi, -8(%rbp)
Ltmp641:
	.loc	1 1036 5 prologue_end
	movq	%rax, -24(%rbp)
	.loc	1 1034 10
	leaq	l___unnamed_60(%rip), %rsi
	movl	$13, %edx
	leaq	l___unnamed_61(%rip), %rcx
	movl	$6, %r8d
	leaq	-24(%rbp), %r9
	leaq	l___unnamed_9(%rip), %rax
	movq	%rax, (%rsp)
	callq	__ZN4core3fmt9Formatter26debug_struct_field1_finish17ha7aba2fd90afbefeE
	.loc	1 1034 15 is_stmt 0
	andb	$1, %al
	movzbl	%al, %eax
	addq	$48, %rsp
	popq	%rbp
	retq
Ltmp642:
Lfunc_end159:
	.cfi_endproc

	.p2align	4, 0x90
__ZN52_$LT$log..Metadata$u20$as$u20$core..clone..Clone$GT$5clone17h75b0571654685b21E:
Lfunc_begin160:
	.loc	1 1183 0 is_stmt 1
	.cfi_startproc
	pushq	%rbp
	.cfi_def_cfa_offset 16
	.cfi_offset %rbp, -16
	movq	%rsp, %rbp
	.cfi_def_cfa_register %rbp
	subq	$48, %rsp
	movq	%rsi, -40(%rbp)
	movq	%rdi, %rax
	movq	-40(%rbp), %rdi
	movq	%rax, -32(%rbp)
	movq	%rax, -24(%rbp)
	movq	%rdi, -16(%rbp)
Ltmp643:
	.loc	1 1185 5 prologue_end
	addq	$16, %rdi
	callq	__ZN49_$LT$log..Level$u20$as$u20$core..clone..Clone$GT$5clone17hc4e700b31744f53dE
	movq	-40(%rbp), %rcx
	movq	-32(%rbp), %rdi
	movq	%rax, %rsi
	movq	-24(%rbp), %rax
	movq	%rcx, -8(%rbp)
Ltmp644:
	.loc	28 237 13
	movq	(%rcx), %rdx
	movq	8(%rcx), %rcx
Ltmp645:
	.loc	1 1183 10
	movq	%rsi, 16(%rdi)
	movq	%rdx, (%rdi)
	movq	%rcx, 8(%rdi)
	.loc	1 1183 15 is_stmt 0
	addq	$48, %rsp
	popq	%rbp
	retq
Ltmp646:
Lfunc_end160:
	.cfi_endproc

	.globl	__ZN50_$LT$log..Metadata$u20$as$u20$core..fmt..Debug$GT$3fmt17h73dbda2cfc31ada2E
	.p2align	4, 0x90
__ZN50_$LT$log..Metadata$u20$as$u20$core..fmt..Debug$GT$3fmt17h73dbda2cfc31ada2E:
Lfunc_begin161:
	.loc	1 1183 0 is_stmt 1
	.cfi_startproc
	pushq	%rbp
	.cfi_def_cfa_offset 16
	.cfi_offset %rbp, -16
	movq	%rsp, %rbp
	.cfi_def_cfa_register %rbp
	pushq	%rbx
	subq	$88, %rsp
	.cfi_offset %rbx, -24
	movq	%rsi, -48(%rbp)
	movq	%rdi, %rax
	movq	-48(%rbp), %rdi
	movq	%rax, -24(%rbp)
	movq	%rdi, -16(%rbp)
Ltmp647:
	.loc	1 1185 5 prologue_end
	movq	%rax, %rcx
	addq	$16, %rcx
	movq	%rcx, -40(%rbp)
	.loc	1 1186 5
	movq	%rax, -32(%rbp)
	.loc	1 1183 55
	leaq	L___unnamed_62(%rip), %rsi
	movl	$8, %edx
	leaq	l___unnamed_63(%rip), %rcx
	movl	$5, %r8d
	leaq	-40(%rbp), %r9
	leaq	l___unnamed_10(%rip), %rbx
	leaq	l___unnamed_64(%rip), %r11
	leaq	-32(%rbp), %r10
	leaq	l___unnamed_4(%rip), %rax
	movq	%rbx, (%rsp)
	movq	%r11, 8(%rsp)
	movq	$6, 16(%rsp)
	movq	%r10, 24(%rsp)
	movq	%rax, 32(%rsp)
	callq	__ZN4core3fmt9Formatter26debug_struct_field2_finish17h6d8f05a66ed84642E
	.loc	1 1183 60 is_stmt 0
	andb	$1, %al
	movzbl	%al, %eax
	addq	$88, %rsp
	popq	%rbx
	popq	%rbp
	retq
Ltmp648:
Lfunc_end161:
	.cfi_endproc

	.globl	__ZN57_$LT$log..MetadataBuilder$u20$as$u20$core..fmt..Debug$GT$3fmt17hd345156225e02c71E
	.p2align	4, 0x90
__ZN57_$LT$log..MetadataBuilder$u20$as$u20$core..fmt..Debug$GT$3fmt17hd345156225e02c71E:
Lfunc_begin162:
	.loc	1 1225 0 is_stmt 1
	.cfi_startproc
	pushq	%rbp
	.cfi_def_cfa_offset 16
	.cfi_offset %rbp, -16
	movq	%rsp, %rbp
	.cfi_def_cfa_register %rbp
	subq	$48, %rsp
	movq	%rsi, -32(%rbp)
	movq	%rdi, %rax
	movq	-32(%rbp), %rdi
	movq	%rax, -16(%rbp)
	movq	%rdi, -8(%rbp)
Ltmp649:
	.loc	1 1227 5 prologue_end
	movq	%rax, -24(%rbp)
	.loc	1 1225 48
	leaq	l___unnamed_65(%rip), %rsi
	movl	$15, %edx
	leaq	L___unnamed_55(%rip), %rcx
	movl	$8, %r8d
	leaq	-24(%rbp), %r9
	leaq	l___unnamed_5(%rip), %rax
	movq	%rax, (%rsp)
	callq	__ZN4core3fmt9Formatter26debug_struct_field1_finish17ha7aba2fd90afbefeE
	.loc	1 1225 53 is_stmt 0
	andb	$1, %al
	movzbl	%al, %eax
	addq	$48, %rsp
	popq	%rbp
	retq
Ltmp650:
Lfunc_end162:
	.cfi_endproc

	.globl	__ZN56_$LT$log..SetLoggerError$u20$as$u20$core..fmt..Debug$GT$3fmt17h83a2c4f94dc3ca17E
	.p2align	4, 0x90
__ZN56_$LT$log..SetLoggerError$u20$as$u20$core..fmt..Debug$GT$3fmt17h83a2c4f94dc3ca17E:
Lfunc_begin163:
	.loc	1 1540 0 is_stmt 1
	.cfi_startproc
	pushq	%rbp
	.cfi_def_cfa_offset 16
	.cfi_offset %rbp, -16
	movq	%rsp, %rbp
	.cfi_def_cfa_register %rbp
	subq	$32, %rsp
	movq	%rsi, -32(%rbp)
	movq	%rdi, %rax
	movq	-32(%rbp), %rdi
	movq	%rax, -16(%rbp)
	movq	%rdi, -8(%rbp)
Ltmp651:
	.loc	1 1541 27 prologue_end
	movq	%rax, -24(%rbp)
	.loc	1 1540 10
	leaq	l___unnamed_66(%rip), %rsi
	movl	$14, %edx
	leaq	-24(%rbp), %rcx
	leaq	l___unnamed_11(%rip), %r8
	callq	__ZN4core3fmt9Formatter25debug_tuple_field1_finish17h7c0e485bb1c7676eE
	.loc	1 1540 15 is_stmt 0
	andb	$1, %al
	movzbl	%al, %eax
	addq	$32, %rsp
	popq	%rbp
	retq
Ltmp652:
Lfunc_end163:
	.cfi_endproc

	.globl	__ZN57_$LT$log..ParseLevelError$u20$as$u20$core..fmt..Debug$GT$3fmt17hf66cafce7acd79cbE
	.p2align	4, 0x90
__ZN57_$LT$log..ParseLevelError$u20$as$u20$core..fmt..Debug$GT$3fmt17hf66cafce7acd79cbE:
Lfunc_begin164:
	.loc	1 1557 0 is_stmt 1
	.cfi_startproc
	pushq	%rbp
	.cfi_def_cfa_offset 16
	.cfi_offset %rbp, -16
	movq	%rsp, %rbp
	.cfi_def_cfa_register %rbp
	subq	$32, %rsp
	movq	%rsi, -32(%rbp)
	movq	%rdi, %rax
	movq	-32(%rbp), %rdi
	movq	%rax, -16(%rbp)
	movq	%rdi, -8(%rbp)
Ltmp653:
	.loc	1 1558 28 prologue_end
	movq	%rax, -24(%rbp)
	.loc	1 1557 10
	leaq	l___unnamed_67(%rip), %rsi
	movl	$15, %edx
	leaq	-24(%rbp), %rcx
	leaq	l___unnamed_11(%rip), %r8
	callq	__ZN4core3fmt9Formatter25debug_tuple_field1_finish17h7c0e485bb1c7676eE
	.loc	1 1557 15 is_stmt 0
	andb	$1, %al
	movzbl	%al, %eax
	addq	$32, %rsp
	popq	%rbp
	retq
Ltmp654:
Lfunc_end164:
	.cfi_endproc

	.section	__TEXT,__const
l___unnamed_12:
	.ascii	"()"

l___unnamed_68:
	.ascii	"invalid args"

	.section	__DATA,__const
	.p2align	3
l___unnamed_13:
	.quad	l___unnamed_68
	.asciz	"\f\000\000\000\000\000\000"

	.section	__TEXT,__const
	.p2align	3
l___unnamed_14:
	.byte	0

l___unnamed_69:
	.ascii	"/rustc/2c8cc343237b8f7d5a3c3703e3a87f2eb2c54a74/library/core/src/fmt/mod.rs"

	.section	__DATA,__const
	.p2align	3
l___unnamed_15:
	.quad	l___unnamed_69
	.asciz	"K\000\000\000\000\000\000\000\221\001\000\000\r\000\000"

	.section	__TEXT,__const
l___unnamed_16:
	.ascii	"assertion failed: 0 < pointee_size && pointee_size <= isize::MAX as usize"

l___unnamed_70:
	.ascii	"/rustc/2c8cc343237b8f7d5a3c3703e3a87f2eb2c54a74/library/core/src/ptr/const_ptr.rs"

	.section	__DATA,__const
	.p2align	3
l___unnamed_17:
	.quad	l___unnamed_70
	.asciz	"Q\000\000\000\000\000\000\000&\003\000\000\t\000\000"

	.section	__TEXT,__const
l___unnamed_18:
	.space	1

	.section	__TEXT,__literal16,16byte_literals
	.p2align	3
L___unnamed_19:
	.space	8
	.space	8

	.section	__TEXT,__const
l___unnamed_71:
	.ascii	"there is no such thing as an acquire-release load"

	.section	__DATA,__const
	.p2align	3
l___unnamed_22:
	.quad	l___unnamed_71
	.asciz	"1\000\000\000\000\000\000"

	.section	__TEXT,__const
l___unnamed_72:
	.ascii	"/rustc/2c8cc343237b8f7d5a3c3703e3a87f2eb2c54a74/library/core/src/sync/atomic.rs"

	.section	__DATA,__const
	.p2align	3
l___unnamed_23:
	.quad	l___unnamed_72
	.asciz	"O\000\000\000\000\000\000\000\323\013\000\000\027\000\000"

	.section	__TEXT,__const
l___unnamed_73:
	.ascii	"there is no such thing as a release load"

	.section	__DATA,__const
	.p2align	3
l___unnamed_20:
	.quad	l___unnamed_73
	.asciz	"(\000\000\000\000\000\000"

	.p2align	3
l___unnamed_21:
	.quad	l___unnamed_72
	.asciz	"O\000\000\000\000\000\000\000\322\013\000\000\030\000\000"

	.section	__TEXT,__const
l___unnamed_74:
	.ascii	"there is no such thing as an acquire-release store"

	.section	__DATA,__const
	.p2align	3
l___unnamed_26:
	.quad	l___unnamed_74
	.asciz	"2\000\000\000\000\000\000"

	.p2align	3
l___unnamed_27:
	.quad	l___unnamed_72
	.asciz	"O\000\000\000\000\000\000\000\304\013\000\000\027\000\000"

	.section	__TEXT,__const
l___unnamed_75:
	.ascii	"there is no such thing as an acquire store"

	.section	__DATA,__const
	.p2align	3
l___unnamed_24:
	.quad	l___unnamed_75
	.asciz	"*\000\000\000\000\000\000"

	.p2align	3
l___unnamed_25:
	.quad	l___unnamed_72
	.asciz	"O\000\000\000\000\000\000\000\303\013\000\000\030\000\000"

	.section	__TEXT,__const
l___unnamed_76:
	.ascii	"there is no such thing as an acquire-release failure ordering"

	.section	__DATA,__const
	.p2align	3
l___unnamed_30:
	.quad	l___unnamed_76
	.asciz	"=\000\000\000\000\000\000"

	.p2align	3
l___unnamed_31:
	.quad	l___unnamed_72
	.asciz	"O\000\000\000\000\000\000\000&\f\000\000\034\000\000"

	.section	__TEXT,__const
l___unnamed_77:
	.ascii	"there is no such thing as a release failure ordering"

	.section	__DATA,__const
	.p2align	3
l___unnamed_28:
	.quad	l___unnamed_77
	.asciz	"4\000\000\000\000\000\000"

	.p2align	3
l___unnamed_29:
	.quad	l___unnamed_72
	.asciz	"O\000\000\000\000\000\000\000'\f\000\000\035\000\000"

	.section	__TEXT,__const
l___unnamed_32:
	.ascii	"called `Option::unwrap()` on a `None` value"

l___unnamed_78:
	.ascii	"internal error: entered unreachable code: "

	.section	__DATA,__const
	.p2align	3
l___unnamed_33:
	.quad	l___unnamed_78
	.asciz	"*\000\000\000\000\000\000"

	.section	__TEXT,__literal4,4byte_literals
L___unnamed_35:
	.ascii	"Some"

	.section	__DATA,__const
	.p2align	3
l___unnamed_1:
	.quad	__ZN4core3ptr44drop_in_place$LT$$RF$log..MaybeStaticStr$GT$17hbb7374453a920e9fE
	.asciz	"\b\000\000\000\000\000\000\000\b\000\000\000\000\000\000"
	.quad	__ZN42_$LT$$RF$T$u20$as$u20$core..fmt..Debug$GT$3fmt17h45af0bd09c1c65bcE

	.section	__TEXT,__literal4,4byte_literals
L___unnamed_34:
	.ascii	"None"

	.section	__DATA,__const
	.p2align	3
l___unnamed_2:
	.quad	__ZN4core3ptr28drop_in_place$LT$$RF$u32$GT$17h86183db06632b204E
	.asciz	"\b\000\000\000\000\000\000\000\b\000\000\000\000\000\000"
	.quad	__ZN42_$LT$$RF$T$u20$as$u20$core..fmt..Debug$GT$3fmt17hcae1f78c5d89caa3E

	.section	__TEXT,__const
l___unnamed_79:
	.ascii	"/rustc/2c8cc343237b8f7d5a3c3703e3a87f2eb2c54a74/library/core/src/slice/iter.rs"

	.section	__DATA,__const
	.p2align	3
l___unnamed_36:
	.quad	l___unnamed_79
	.asciz	"N\000\000\000\000\000\000\000\177\000\000\000\001\000\000"

	.section	__TEXT,__const
	.p2align	4
_str.0:
	.ascii	"attempt to add with overflow"

	.section	__DATA,__const
	.p2align	3
l___unnamed_80:
	.quad	__ZN4core3ptr35drop_in_place$LT$log..NopLogger$GT$17ha38a4ca4ccec4958E
	.asciz	"\000\000\000\000\000\000\000\000\001\000\000\000\000\000\000"

	.p2align	3
l___unnamed_3:
	.quad	__ZN4core3ptr35drop_in_place$LT$log..NopLogger$GT$17ha38a4ca4ccec4958E
	.asciz	"\000\000\000\000\000\000\000\000\001\000\000\000\000\000\000"
	.quad	l___unnamed_80
	.quad	__ZN43_$LT$log..NopLogger$u20$as$u20$log..Log$GT$7enabled17hd1455e47be7189c2E
	.quad	__ZN43_$LT$log..NopLogger$u20$as$u20$log..Log$GT$3log17h71a5ea06cb3c0d44E
	.quad	__ZN43_$LT$log..NopLogger$u20$as$u20$log..Log$GT$5flush17hbfa366ae7e9e9957E

	.section	__DATA,__data
	.p2align	3
__ZN3log6LOGGER17h4417c7a506e9cfdbE:
	.quad	l___unnamed_14
	.quad	l___unnamed_3

.zerofill __DATA,__bss,__ZN3log5STATE17h0566c7e98dcae7bfE,8,3
	.globl	__ZN3log20MAX_LOG_LEVEL_FILTER17had1ecf4b45c2a999E
.zerofill __DATA,__common,__ZN3log20MAX_LOG_LEVEL_FILTER17had1ecf4b45c2a999E,8,3
	.section	__TEXT,__const
l___unnamed_81:
	.ascii	"OFF"

l___unnamed_82:
	.ascii	"ERROR"

	.section	__TEXT,__literal4,4byte_literals
L___unnamed_83:
	.ascii	"WARN"

L___unnamed_84:
	.ascii	"INFO"

	.section	__TEXT,__const
l___unnamed_85:
	.ascii	"DEBUG"

l___unnamed_86:
	.ascii	"TRACE"

	.section	__DATA,__const
	.p2align	3
__ZN3log15LOG_LEVEL_NAMES17h31bb1ccfc571bd1cE:
	.quad	l___unnamed_81
	.asciz	"\003\000\000\000\000\000\000"
	.quad	l___unnamed_82
	.asciz	"\005\000\000\000\000\000\000"
	.quad	L___unnamed_83
	.asciz	"\004\000\000\000\000\000\000"
	.quad	L___unnamed_84
	.asciz	"\004\000\000\000\000\000\000"
	.quad	l___unnamed_85
	.asciz	"\005\000\000\000\000\000\000"
	.quad	l___unnamed_86
	.asciz	"\005\000\000\000\000\000\000"

	.section	__TEXT,__const
l___unnamed_87:
	.ascii	"attempted to set a logger after the logging system was already initialized"

	.section	__DATA,__const
	.p2align	3
__ZN3log16SET_LOGGER_ERROR17hdcbd6d1bd9b62760E:
	.quad	l___unnamed_87
	.asciz	"J\000\000\000\000\000\000"

	.section	__TEXT,__const
l___unnamed_88:
	.ascii	"attempted to convert a string that doesn't match an existing log level"

	.section	__DATA,__const
	.p2align	3
__ZN3log17LEVEL_PARSE_ERROR17h1ea9b2d5b3bfce62E:
	.quad	l___unnamed_88
	.asciz	"F\000\000\000\000\000\000"

	.section	__TEXT,__const
l___unnamed_89:
	.ascii	"/Users/natalie/.cargo/registry/src/github.com-1ecc6299db9ec823/log-0.4.17/src/lib.rs"

	.section	__DATA,__const
	.p2align	3
l___unnamed_37:
	.quad	l___unnamed_89
	.asciz	"T\000\000\000\000\000\000\000 \002\000\000\r\000\000"

	.section	__TEXT,__const
	.p2align	4
_str.1:
	.ascii	"attempt to subtract with overflow"

	.section	__DATA,__const
	.p2align	3
l___unnamed_38:
	.quad	l___unnamed_89
	.asciz	"T\000\000\000\000\000\000\0008\002\000\0003\000\000"

	.p2align	3
l___unnamed_39:
	.quad	l___unnamed_89
	.asciz	"T\000\000\000\000\000\000\000a\002\000\000\t\000\000"

	.p2align	3
l___unnamed_40:
	.quad	l___unnamed_89
	.asciz	"T\000\000\000\000\000\000\000\353\002\000\0005\000\000"

	.p2align	3
l___unnamed_41:
	.quad	l___unnamed_89
	.asciz	"T\000\000\000\000\000\000\000\026\003\000\000\t\000\000"

	.section	__TEXT,__const
l___unnamed_90:
	.ascii	"set_logger_racy must not be used with other initialization functions"

	.section	__DATA,__const
	.p2align	3
l___unnamed_42:
	.quad	l___unnamed_90
	.asciz	"D\000\000\000\000\000\000"

	.p2align	3
l___unnamed_43:
	.quad	l___unnamed_89
	.asciz	"T\000\000\000\000\000\000\000\372\005\000\000\r\000\000"

	.section	__TEXT,__const
__ZN3log6logger3NOP17h0a727b1d9864a1b3E:
	.byte	0

l___unnamed_44:
	.ascii	"key-value support is experimental and must be enabled using the `kv_unstable` feature"

	.section	__DATA,__const
	.p2align	3
l___unnamed_45:
	.quad	l___unnamed_89
	.asciz	"T\000\000\000\000\000\000\0008\006\000\000\t\000\000"

	.section	__TEXT,__const
l___unnamed_50:
	.ascii	"Trace"

l___unnamed_49:
	.ascii	"Debug"

	.section	__TEXT,__literal4,4byte_literals
L___unnamed_48:
	.ascii	"Info"

L___unnamed_47:
	.ascii	"Warn"

	.section	__TEXT,__const
l___unnamed_46:
	.ascii	"Error"

l___unnamed_51:
	.ascii	"Off"

	.section	__TEXT,__literal8,8byte_literals
L___unnamed_53:
	.ascii	"Borrowed"

	.section	__DATA,__const
	.p2align	3
l___unnamed_4:
	.quad	__ZN4core3ptr32drop_in_place$LT$$RF$$RF$str$GT$17h1961e30bbd29cf61E
	.asciz	"\b\000\000\000\000\000\000\000\b\000\000\000\000\000\000"
	.quad	__ZN42_$LT$$RF$T$u20$as$u20$core..fmt..Debug$GT$3fmt17heeb412b1dcc5120bE

	.section	__TEXT,__const
l___unnamed_52:
	.ascii	"Static"

l___unnamed_54:
	.ascii	"Record"

	.section	__TEXT,__literal8,8byte_literals
L___unnamed_55:
	.ascii	"metadata"

	.section	__DATA,__const
	.p2align	3
l___unnamed_5:
	.quad	__ZN4core3ptr38drop_in_place$LT$$RF$log..Metadata$GT$17hd4370c819c6bf8dcE
	.asciz	"\b\000\000\000\000\000\000\000\b\000\000\000\000\000\000"
	.quad	__ZN42_$LT$$RF$T$u20$as$u20$core..fmt..Debug$GT$3fmt17he771c6e182cf9f5dE

	.section	__TEXT,__literal4,4byte_literals
L___unnamed_56:
	.ascii	"args"

	.section	__DATA,__const
	.p2align	3
l___unnamed_6:
	.quad	__ZN4core3ptr45drop_in_place$LT$$RF$core..fmt..Arguments$GT$17h79f6a5b11aec9fecE
	.asciz	"\b\000\000\000\000\000\000\000\b\000\000\000\000\000\000"
	.quad	__ZN42_$LT$$RF$T$u20$as$u20$core..fmt..Debug$GT$3fmt17h971a640720ba85a1E

	.section	__TEXT,__const
l___unnamed_57:
	.ascii	"module_path"

	.section	__DATA,__const
	.p2align	3
l___unnamed_7:
	.quad	__ZN4core3ptr72drop_in_place$LT$$RF$core..option..Option$LT$log..MaybeStaticStr$GT$$GT$17ha91b8e09faf6eeb7E
	.asciz	"\b\000\000\000\000\000\000\000\b\000\000\000\000\000\000"
	.quad	__ZN42_$LT$$RF$T$u20$as$u20$core..fmt..Debug$GT$3fmt17h0dc31241983d562eE

	.section	__TEXT,__literal4,4byte_literals
L___unnamed_58:
	.ascii	"file"

L___unnamed_59:
	.ascii	"line"

	.section	__DATA,__const
	.p2align	3
l___unnamed_8:
	.quad	__ZN4core3ptr56drop_in_place$LT$$RF$core..option..Option$LT$u32$GT$$GT$17h0718bfd09dfb7528E
	.asciz	"\b\000\000\000\000\000\000\000\b\000\000\000\000\000\000"
	.quad	__ZN42_$LT$$RF$T$u20$as$u20$core..fmt..Debug$GT$3fmt17hdee4d768b0fa830dE

	.section	__TEXT,__const
l___unnamed_60:
	.ascii	"RecordBuilder"

l___unnamed_61:
	.ascii	"record"

	.section	__DATA,__const
	.p2align	3
l___unnamed_9:
	.quad	__ZN4core3ptr36drop_in_place$LT$$RF$log..Record$GT$17h9aee482642a70501E
	.asciz	"\b\000\000\000\000\000\000\000\b\000\000\000\000\000\000"
	.quad	__ZN42_$LT$$RF$T$u20$as$u20$core..fmt..Debug$GT$3fmt17h7cd9615335ebf55aE

	.section	__TEXT,__literal8,8byte_literals
L___unnamed_62:
	.ascii	"Metadata"

	.section	__TEXT,__const
l___unnamed_63:
	.ascii	"level"

	.section	__DATA,__const
	.p2align	3
l___unnamed_10:
	.quad	__ZN4core3ptr35drop_in_place$LT$$RF$log..Level$GT$17h678017b62b741aa4E
	.asciz	"\b\000\000\000\000\000\000\000\b\000\000\000\000\000\000"
	.quad	__ZN42_$LT$$RF$T$u20$as$u20$core..fmt..Debug$GT$3fmt17hdfda4f9caf17aeb7E

	.section	__TEXT,__const
l___unnamed_64:
	.ascii	"target"

l___unnamed_65:
	.ascii	"MetadataBuilder"

l___unnamed_66:
	.ascii	"SetLoggerError"

	.section	__DATA,__const
	.p2align	3
l___unnamed_11:
	.quad	__ZN4core3ptr33drop_in_place$LT$$RF$$LP$$RP$$GT$17hacfec61513dba46eE
	.asciz	"\b\000\000\000\000\000\000\000\b\000\000\000\000\000\000"
	.quad	__ZN42_$LT$$RF$T$u20$as$u20$core..fmt..Debug$GT$3fmt17h27d9cb9345885b7fE

	.section	__TEXT,__const
l___unnamed_67:
	.ascii	"ParseLevelError"

	.section	__DATA,__const
Lsec_end0:
	.section	__DATA,__data
Lsec_end1:
	.section	__DATA,__bss,zerofill
Lsec_end2:
	.section	__DATA,__common,zerofill
Lsec_end3:
	.section	__TEXT,__const
Lsec_end4:
	.section	__TEXT,__text,regular,pure_instructions
Lsec_end5: