	.section	__TEXT,__text,regular,pure_instructions
	.macosx_version_min 10, 7
	.p2align	4, 0x90
__ZN108_$LT$rug..float..arith..MulIncomplete$u20$as$u20$core..ops..arith..Add$LT$$RF$rug..float..big..Float$GT$$GT$3add17h5acbb493d3b7cc6bE:
Lfunc_begin0:
	.file	1 "/Users/natalie/.cargo/registry/src/github.com-1ecc6299db9ec823/rug-1.19.0/src" "macros.rs"
	.loc	1 2383 0
	.cfi_startproc
	pushq	%rbp
	.cfi_def_cfa_offset 16
	.cfi_offset %rbp, -16
	movq	%rsp, %rbp
	.cfi_def_cfa_register %rbp
	subq	$48, %rsp
	movq	%rcx, -40(%rbp)
	movq	%rdx, %rcx
	movq	%rsi, %rdx
	movq	-40(%rbp), %rsi
	movq	%rdi, %rax
	movq	%rax, -32(%rbp)
	movq	%rdx, -24(%rbp)
	movq	%rcx, -16(%rbp)
	movq	%rsi, -8(%rbp)
Ltmp0:
	.loc	1 2384 17 prologue_end
	callq	__ZN3rug5float5arith118_$LT$impl$u20$core..ops..arith..Add$LT$rug..float..arith..MulIncomplete$GT$$u20$for$u20$$RF$rug..float..big..Float$GT$3add17hc1683ca751eeb378E
	movq	-32(%rbp), %rax
	.loc	1 2385 14
	addq	$48, %rsp
	popq	%rbp
	retq
Ltmp1:
Lfunc_end0:
	.cfi_endproc

	.globl	__ZN10threadpool10ThreadPool7execute17hef6c2c4d687a4e5eE
	.p2align	4, 0x90
__ZN10threadpool10ThreadPool7execute17hef6c2c4d687a4e5eE:
Lfunc_begin1:
	.file	2 "/Users/natalie/.cargo/registry/src/github.com-1ecc6299db9ec823/threadpool-1.8.1/src" "lib.rs"
	.loc	2 427 0
	.cfi_startproc
	.cfi_personality 155, _rust_eh_personality
	.cfi_lsda 16, Lexception0
	pushq	%rbp
	.cfi_def_cfa_offset 16
	.cfi_offset %rbp, -16
	movq	%rsp, %rbp
	.cfi_def_cfa_register %rbp
	subq	$224, %rsp
	movq	%rdi, -184(%rbp)
	movq	%rsi, -176(%rbp)
Ltmp20:
	movq	%rdi, -40(%rbp)
Ltmp21:
	.loc	2 431 9 prologue_end
	movb	$0, -41(%rbp)
	movb	$1, -41(%rbp)
	addq	$16, %rdi
Ltmp2:
	callq	__ZN69_$LT$alloc..sync..Arc$LT$T$GT$$u20$as$u20$core..ops..deref..Deref$GT$5deref17h57f240d85168bd52E
Ltmp22:
Ltmp3:
	.loc	2 0 9 is_stmt 0
	movq	%rax, -168(%rbp)
Ltmp23:
	.loc	2 431 9
	jmp	LBB1_4
Ltmp24:
LBB1_1:
	.loc	2 435 5 is_stmt 1
	testb	$1, -41(%rbp)
	jne	LBB1_14
	jmp	LBB1_13
Ltmp25:
LBB1_2:
Ltmp16:
	.loc	2 0 5 is_stmt 0
	movq	%rax, %rcx
	movl	%edx, %eax
	movq	%rcx, -200(%rbp)
	movl	%eax, -188(%rbp)
	jmp	LBB1_3
Ltmp26:
LBB1_3:
	movq	-200(%rbp), %rcx
	movl	-188(%rbp), %eax
	movq	%rcx, -32(%rbp)
	movl	%eax, -24(%rbp)
	jmp	LBB1_1
Ltmp27:
LBB1_4:
	movq	-168(%rbp), %rdi
	.loc	2 431 9 is_stmt 1
	addq	$112, %rdi
	.loc	2 431 52 is_stmt 0
	movb	$4, -153(%rbp)
	.loc	2 431 9
	movzbl	-153(%rbp), %edx
Ltmp4:
	movl	$1, %esi
	callq	__ZN4core4sync6atomic11AtomicUsize9fetch_add17h0e62b082f7219f05E
Ltmp5:
	jmp	LBB1_5
Ltmp28:
LBB1_5:
	.loc	2 0 9
	movq	-176(%rbp), %rsi
	.loc	2 433 28 is_stmt 1
	movb	$0, -41(%rbp)
	movl	$13, %ecx
	leaq	-152(%rbp), %rdi
	rep;movsq (%rsi), %es:(%rdi)
Ltmp6:
	movl	$104, %edi
	movl	$8, %esi
Ltmp29:
	.file	3 "/rustc/2c8cc343237b8f7d5a3c3703e3a87f2eb2c54a74/library/alloc/src" "boxed.rs"
	.loc	3 219 9
	callq	__ZN5alloc5alloc15exchange_malloc17hc621d4f24179729cE
Ltmp7:
	movq	%rax, -208(%rbp)
	jmp	LBB1_9
Ltmp30:
LBB1_6:
Ltmp8:
	.loc	3 0 9 is_stmt 0
	movq	%rax, %rcx
	movl	%edx, %eax
	movq	%rcx, -16(%rbp)
	movl	%eax, -8(%rbp)
Ltmp9:
	leaq	-152(%rbp), %rdi
	.loc	3 220 5 is_stmt 1
	callq	__ZN4core3ptr75drop_in_place$LT$mandelbrot..int_calculate..$u7b$$u7b$closure$u7d$$u7d$$GT$17ha7ef6ebb3bbc9db8E
Ltmp10:
	jmp	LBB1_8
Ltmp31:
LBB1_7:
Ltmp11:
	.loc	3 217 5
	callq	__ZN4core9panicking19panic_cannot_unwind17h1fbca7e1d7f56ae1E
Ltmp32:
LBB1_8:
	movq	-16(%rbp), %rcx
	movl	-8(%rbp), %eax
	movq	%rcx, -200(%rbp)
	movl	%eax, -188(%rbp)
	jmp	LBB1_3
Ltmp33:
LBB1_9:
	.loc	3 0 5 is_stmt 0
	movq	-208(%rbp), %rdi
	.loc	3 219 18 is_stmt 1
	leaq	-152(%rbp), %rsi
	movl	$104, %edx
	callq	_memcpy
Ltmp34:
Ltmp12:
	.loc	3 0 18 is_stmt 0
	movq	-208(%rbp), %rsi
	movq	-184(%rbp), %rdi
	.loc	2 432 9 is_stmt 1
	leaq	l___unnamed_1(%rip), %rdx
	callq	__ZN3std4sync4mpsc15Sender$LT$T$GT$4send17h0108e3811b157079E
Ltmp13:
	movq	%rdx, -224(%rbp)
	movq	%rax, -216(%rbp)
	jmp	LBB1_11
Ltmp35:
LBB1_11:
Ltmp14:
	.loc	2 0 9 is_stmt 0
	movq	-224(%rbp), %rsi
	movq	-216(%rbp), %rdi
	.loc	2 432 9
	leaq	l___unnamed_9(%rip), %rdx
	leaq	l___unnamed_10(%rip), %r8
	movl	$50, %ecx
	callq	__ZN4core6result19Result$LT$T$C$E$GT$6expect17he524711073450dc3E
Ltmp15:
	jmp	LBB1_12
Ltmp36:
LBB1_12:
	.loc	2 435 6 is_stmt 1
	addq	$224, %rsp
	popq	%rbp
	retq
Ltmp37:
LBB1_13:
	.loc	2 427 5
	movq	-32(%rbp), %rdi
	callq	__Unwind_Resume
Ltmp38:
LBB1_14:
Ltmp17:
	.loc	2 0 5 is_stmt 0
	movq	-176(%rbp), %rdi
	.loc	2 435 5 is_stmt 1
	callq	__ZN4core3ptr75drop_in_place$LT$mandelbrot..int_calculate..$u7b$$u7b$closure$u7d$$u7d$$GT$17ha7ef6ebb3bbc9db8E
Ltmp18:
	jmp	LBB1_13
Ltmp39:
LBB1_15:
Ltmp19:
	.loc	2 427 5
	callq	__ZN4core9panicking19panic_cannot_unwind17h1fbca7e1d7f56ae1E
Ltmp40:
Lfunc_end1:
	.cfi_endproc
	.section	__TEXT,__gcc_except_tab
	.p2align	2
GCC_except_table1:
Lexception0:
	.byte	255
	.byte	255
	.byte	1
	.uleb128 Lcst_end0-Lcst_begin0
Lcst_begin0:
	.uleb128 Ltmp2-Lfunc_begin1
	.uleb128 Ltmp5-Ltmp2
	.uleb128 Ltmp16-Lfunc_begin1
	.byte	0
	.uleb128 Ltmp6-Lfunc_begin1
	.uleb128 Ltmp7-Ltmp6
	.uleb128 Ltmp8-Lfunc_begin1
	.byte	0
	.uleb128 Ltmp9-Lfunc_begin1
	.uleb128 Ltmp10-Ltmp9
	.uleb128 Ltmp11-Lfunc_begin1
	.byte	0
	.uleb128 Ltmp10-Lfunc_begin1
	.uleb128 Ltmp12-Ltmp10
	.byte	0
	.byte	0
	.uleb128 Ltmp12-Lfunc_begin1
	.uleb128 Ltmp15-Ltmp12
	.uleb128 Ltmp16-Lfunc_begin1
	.byte	0
	.uleb128 Ltmp15-Lfunc_begin1
	.uleb128 Ltmp17-Ltmp15
	.byte	0
	.byte	0
	.uleb128 Ltmp17-Lfunc_begin1
	.uleb128 Ltmp18-Ltmp17
	.uleb128 Ltmp19-Lfunc_begin1
	.byte	0
Lcst_end0:
	.p2align	2

	.section	__TEXT,__text,regular,pure_instructions
	.p2align	4, 0x90
__ZN12gmp_mpfr_sys3gmp7mpz_sgn17h6e9e8cfbad701e64E:
Lfunc_begin2:
	.file	4 "/Users/natalie/.cargo/registry/src/github.com-1ecc6299db9ec823/gmp-mpfr-sys-1.5.0/src" "gmp.rs"
	.loc	4 681 0
	.cfi_startproc
	pushq	%rbp
	.cfi_def_cfa_offset 16
	.cfi_offset %rbp, -16
	movq	%rsp, %rbp
	.cfi_def_cfa_register %rbp
	subq	$24, %rsp
	movq	%rdi, -16(%rbp)
Ltmp41:
	.loc	4 682 25 prologue_end
	movl	4(%rdi), %eax
	movl	%eax, -24(%rbp)
	movl	%eax, -4(%rbp)
Ltmp42:
	.loc	4 683 8
	cmpl	$0, %eax
	jl	LBB2_2
	.loc	4 0 8 is_stmt 0
	movl	-24(%rbp), %eax
	.loc	4 686 9 is_stmt 1
	cmpl	$0, %eax
	setg	%al
	andb	$1, %al
	movzbl	%al, %eax
	movl	%eax, -20(%rbp)
	.loc	4 683 5
	jmp	LBB2_3
LBB2_2:
	.loc	4 684 9
	movl	$-1, -20(%rbp)
Ltmp43:
LBB2_3:
	.loc	4 688 2
	movl	-20(%rbp), %eax
	addq	$24, %rsp
	popq	%rbp
	retq
Ltmp44:
Lfunc_end2:
	.cfi_endproc

	.p2align	4, 0x90
__ZN12gmp_mpfr_sys3mpc13imagref_const17h2bc2be0790e5c85dE:
Lfunc_begin3:
	.file	5 "/Users/natalie/.cargo/registry/src/github.com-1ecc6299db9ec823/gmp-mpfr-sys-1.5.0/src" "mpc.rs"
	.loc	5 368 0
	.cfi_startproc
	pushq	%rbp
	.cfi_def_cfa_offset 16
	.cfi_offset %rbp, -16
	movq	%rsp, %rbp
	.cfi_def_cfa_register %rbp
	subq	$32, %rsp
	movq	%rdi, -32(%rbp)
	movq	%rdi, -24(%rbp)
	movq	$1, -16(%rbp)
Ltmp45:
	.file	6 "/rustc/2c8cc343237b8f7d5a3c3703e3a87f2eb2c54a74/library/core/src/ptr" "const_ptr.rs"
	.loc	6 473 18 prologue_end
	addq	$32, %rdi
	movq	%rdi, -8(%rbp)
	movq	-8(%rbp), %rax
Ltmp46:
	.loc	5 370 2
	addq	$32, %rsp
	popq	%rbp
	retq
Ltmp47:
Lfunc_end3:
	.cfi_endproc

	.p2align	4, 0x90
__ZN12gmp_mpfr_sys3mpc13realref_const17h58c31d7a3229312cE:
Lfunc_begin4:
	.loc	5 358 0
	.cfi_startproc
	pushq	%rbp
	.cfi_def_cfa_offset 16
	.cfi_offset %rbp, -16
	movq	%rsp, %rbp
	.cfi_def_cfa_register %rbp
	pushq	%rax
	movq	%rdi, %rax
	movq	%rax, -8(%rbp)
Ltmp48:
	.loc	5 360 2 prologue_end
	addq	$8, %rsp
	popq	%rbp
	retq
Ltmp49:
Lfunc_end4:
	.cfi_endproc

	.p2align	4, 0x90
__ZN12gmp_mpfr_sys3mpc7INEX_IM17h2178257d735cd14aE:
Lfunc_begin5:
	.loc	5 70 0
	.cfi_startproc
	pushq	%rbp
	.cfi_def_cfa_offset 16
	.cfi_offset %rbp, -16
	movq	%rsp, %rbp
	.cfi_def_cfa_register %rbp
	subq	$16, %rsp
	movl	%edi, -4(%rbp)
Ltmp50:
	.loc	5 71 14 prologue_end
	sarl	$2, %edi
	.loc	5 71 5 is_stmt 0
	callq	__ZN12gmp_mpfr_sys3mpc8INEX_NEG17hbc6e4a3c57202dfbE
	.loc	5 72 2 is_stmt 1
	addq	$16, %rsp
	popq	%rbp
	retq
Ltmp51:
Lfunc_end5:
	.cfi_endproc

	.p2align	4, 0x90
__ZN12gmp_mpfr_sys3mpc7INEX_RE17hb887e8c8ec270ad3E:
Lfunc_begin6:
	.loc	5 65 0
	.cfi_startproc
	pushq	%rbp
	.cfi_def_cfa_offset 16
	.cfi_offset %rbp, -16
	movq	%rsp, %rbp
	.cfi_def_cfa_register %rbp
	subq	$16, %rsp
	movl	%edi, -4(%rbp)
Ltmp52:
	.loc	5 66 14 prologue_end
	andl	$3, %edi
	.loc	5 66 5 is_stmt 0
	callq	__ZN12gmp_mpfr_sys3mpc8INEX_NEG17hbc6e4a3c57202dfbE
	.loc	5 67 2 is_stmt 1
	addq	$16, %rsp
	popq	%rbp
	retq
Ltmp53:
Lfunc_end6:
	.cfi_endproc

	.p2align	4, 0x90
__ZN12gmp_mpfr_sys3mpc7imagref17h70f1ccbb0c5ee0dbE:
Lfunc_begin7:
	.loc	5 363 0
	.cfi_startproc
	pushq	%rbp
	.cfi_def_cfa_offset 16
	.cfi_offset %rbp, -16
	movq	%rsp, %rbp
	.cfi_def_cfa_register %rbp
	subq	$32, %rsp
	movq	%rdi, -32(%rbp)
	movq	%rdi, -24(%rbp)
	movq	$1, -16(%rbp)
Ltmp54:
	.file	7 "/rustc/2c8cc343237b8f7d5a3c3703e3a87f2eb2c54a74/library/core/src/ptr" "mut_ptr.rs"
	.loc	7 487 18 prologue_end
	addq	$32, %rdi
	movq	%rdi, -8(%rbp)
	movq	-8(%rbp), %rax
Ltmp55:
	.loc	5 365 2
	addq	$32, %rsp
	popq	%rbp
	retq
Ltmp56:
Lfunc_end7:
	.cfi_endproc

	.p2align	4, 0x90
__ZN12gmp_mpfr_sys3mpc7realref17hc1214a35c7a9248dE:
Lfunc_begin8:
	.loc	5 353 0
	.cfi_startproc
	pushq	%rbp
	.cfi_def_cfa_offset 16
	.cfi_offset %rbp, -16
	movq	%rsp, %rbp
	.cfi_def_cfa_register %rbp
	pushq	%rax
	movq	%rdi, %rax
	movq	%rax, -8(%rbp)
Ltmp57:
	.loc	5 355 2 prologue_end
	addq	$8, %rsp
	popq	%rbp
	retq
Ltmp58:
Lfunc_end8:
	.cfi_endproc

	.p2align	4, 0x90
__ZN12gmp_mpfr_sys3mpc8INEX_NEG17hbc6e4a3c57202dfbE:
Lfunc_begin9:
	.loc	5 56 0
	.cfi_startproc
	pushq	%rbp
	.cfi_def_cfa_offset 16
	.cfi_offset %rbp, -16
	movq	%rsp, %rbp
	.cfi_def_cfa_register %rbp
	subq	$12, %rsp
	movl	%edi, -12(%rbp)
	movl	%edi, -4(%rbp)
Ltmp59:
	.loc	5 57 5 prologue_end
	testl	%edi, %edi
	je	LBB9_3
	jmp	LBB9_5
LBB9_5:
	.loc	5 0 5 is_stmt 0
	movl	-12(%rbp), %eax
	.loc	5 57 5
	subl	$2, %eax
	je	LBB9_2
	jmp	LBB9_1
LBB9_1:
	.loc	5 60 14 is_stmt 1
	movl	$1, -8(%rbp)
	jmp	LBB9_4
LBB9_2:
	.loc	5 58 14
	movl	$-1, -8(%rbp)
	jmp	LBB9_4
LBB9_3:
	.loc	5 59 14
	movl	$0, -8(%rbp)
LBB9_4:
	.loc	5 62 2
	movl	-8(%rbp), %eax
	addq	$12, %rsp
	popq	%rbp
	retq
Ltmp60:
Lfunc_end9:
	.cfi_endproc

	.p2align	4, 0x90
__ZN12gmp_mpfr_sys4mpfr11custom_init17hbb7888dc0f5497f9E:
Lfunc_begin10:
	.file	8 "/Users/natalie/.cargo/registry/src/github.com-1ecc6299db9ec823/gmp-mpfr-sys-1.5.0/src" "mpfr.rs"
	.loc	8 1532 0
	.cfi_startproc
	pushq	%rbp
	.cfi_def_cfa_offset 16
	.cfi_offset %rbp, -16
	movq	%rsp, %rbp
	.cfi_def_cfa_register %rbp
	subq	$16, %rsp
	movq	%rdi, -16(%rbp)
	movq	%rsi, -8(%rbp)
Ltmp61:
	.loc	8 1534 2 prologue_end
	addq	$16, %rsp
	popq	%rbp
	retq
Ltmp62:
Lfunc_end10:
	.cfi_endproc

	.p2align	4, 0x90
__ZN12gmp_mpfr_sys4mpfr15custom_init_set17h6145aaeae046ad6aE:
Lfunc_begin11:
	.loc	8 1537 0
	.cfi_startproc
	pushq	%rbp
	.cfi_def_cfa_offset 16
	.cfi_offset %rbp, -16
	movq	%rsp, %rbp
	.cfi_def_cfa_register %rbp
	subq	$128, %rsp
	movq	%rdi, -112(%rbp)
	movl	%esi, -100(%rbp)
	movq	%rdx, -96(%rbp)
	movq	%rcx, -88(%rbp)
	movq	%r8, -80(%rbp)
	movq	%rdi, -56(%rbp)
	movl	%esi, -44(%rbp)
	movq	%rdx, -40(%rbp)
	movq	%rcx, -32(%rbp)
	movq	%r8, -24(%rbp)
Ltmp63:
	.loc	8 1544 21 prologue_end
	cmpl	$0, %esi
	jge	LBB11_2
	.loc	8 0 21 is_stmt 0
	movl	-100(%rbp), %eax
	.loc	8 1544 53
	cmpl	$-2147483648, %eax
	sete	%al
	testb	$1, %al
	jne	LBB11_5
	jmp	LBB11_4
LBB11_2:
	.loc	8 0 53
	movl	-100(%rbp), %eax
	.loc	8 1544 33
	movl	%eax, -72(%rbp)
	movl	$1, -68(%rbp)
LBB11_3:
	.loc	8 1544 10
	movl	-72(%rbp), %eax
	movl	%eax, -120(%rbp)
	movl	%eax, -16(%rbp)
	.loc	8 1544 13
	movl	-68(%rbp), %ecx
	movl	%ecx, -116(%rbp)
	movl	%ecx, -12(%rbp)
Ltmp64:
	.loc	8 1545 13 is_stmt 1
	testl	%eax, %eax
	je	LBB11_8
	jmp	LBB11_11
LBB11_11:
	.loc	8 0 13 is_stmt 0
	movl	-120(%rbp), %eax
	.loc	8 1545 13
	subl	$1, %eax
	je	LBB11_9
	jmp	LBB11_12
LBB11_12:
	.loc	8 0 13
	movl	-120(%rbp), %eax
	.loc	8 1545 13
	subl	$3, %eax
	je	LBB11_7
	jmp	LBB11_6
Ltmp65:
LBB11_4:
	.loc	8 0 13
	movl	-100(%rbp), %ecx
	.loc	8 1544 53 is_stmt 1
	xorl	%eax, %eax
	subl	%ecx, %eax
	.loc	8 1544 52 is_stmt 0
	movl	%eax, -72(%rbp)
	movl	$-1, -68(%rbp)
	.loc	8 1544 18
	jmp	LBB11_3
LBB11_5:
	.loc	8 1544 53
	leaq	_str.0(%rip), %rdi
	leaq	l___unnamed_11(%rip), %rdx
	movl	$31, %esi
	callq	__ZN4core9panicking5panic17hc1bc45270cf64b03E
LBB11_6:
Ltmp66:
	.loc	8 1549 14 is_stmt 1
	movabsq	$-9223372036854775807, %rax
	movq	%rax, -64(%rbp)
	jmp	LBB11_10
LBB11_7:
	.loc	8 0 14 is_stmt 0
	movq	-96(%rbp), %rax
	.loc	8 1546 25 is_stmt 1
	movq	%rax, -64(%rbp)
	jmp	LBB11_10
LBB11_8:
	.loc	8 1547 21
	movabsq	$-9223372036854775806, %rax
	movq	%rax, -64(%rbp)
	jmp	LBB11_10
LBB11_9:
	.loc	8 1548 21
	movabsq	$-9223372036854775805, %rax
	movq	%rax, -64(%rbp)
LBB11_10:
	.loc	8 0 21 is_stmt 0
	movq	-112(%rbp), %rax
	movq	-80(%rbp), %rdi
	movl	-116(%rbp), %ecx
	movq	-88(%rbp), %rdx
Ltmp67:
	.loc	8 1552 9 is_stmt 1
	movq	%rdx, (%rax)
	.loc	8 1553 9
	movl	%ecx, 8(%rax)
	.loc	8 1554 20
	movq	-64(%rbp), %rcx
	.loc	8 1554 9 is_stmt 0
	movq	%rcx, 16(%rax)
	movq	%rdi, -8(%rbp)
	.loc	8 1555 18 is_stmt 1
	callq	__ZN4core3ptr8non_null16NonNull$LT$T$GT$13new_unchecked17h265a74c78928ffd5E
	movq	%rax, %rcx
	movq	-112(%rbp), %rax
	.loc	8 1555 9 is_stmt 0
	movq	%rcx, 24(%rax)
Ltmp68:
	.loc	8 1557 2 is_stmt 1
	addq	$128, %rsp
	popq	%rbp
	retq
Ltmp69:
Lfunc_end11:
	.cfi_endproc

	.p2align	4, 0x90
__ZN12gmp_mpfr_sys4mpfr3set17h907ddb470d85a2b3E:
Lfunc_begin12:
	.loc	8 310 0
	.cfi_startproc
	pushq	%rbp
	.cfi_def_cfa_offset 16
	.cfi_offset %rbp, -16
	movq	%rsp, %rbp
	.cfi_def_cfa_register %rbp
	subq	$32, %rsp
	movq	%rdi, -24(%rbp)
	movq	%rsi, -16(%rbp)
	movl	%edx, -4(%rbp)
Ltmp70:
	.loc	8 311 33 prologue_end
	movl	8(%rsi), %ecx
	.loc	8 311 14 is_stmt 0
	callq	_mpfr_set4
	.loc	8 312 2 is_stmt 1
	addq	$32, %rsp
	popq	%rbp
	retq
Ltmp71:
Lfunc_end12:
	.cfi_endproc

	.p2align	4, 0x90
__ZN12gmp_mpfr_sys4mpfr5nan_p17h075691954b1b1c1aE:
Lfunc_begin13:
	.loc	8 779 0
	.cfi_startproc
	pushq	%rbp
	.cfi_def_cfa_offset 16
	.cfi_offset %rbp, -16
	movq	%rsp, %rbp
	.cfi_def_cfa_register %rbp
	pushq	%rax
	movq	%rdi, -8(%rbp)
Ltmp72:
	.loc	8 780 5 prologue_end
	movabsq	$-9223372036854775806, %rax
	cmpq	%rax, 16(%rdi)
	sete	%al
	andb	$1, %al
	movzbl	%al, %eax
	.loc	8 781 2
	addq	$8, %rsp
	popq	%rbp
	retq
Ltmp73:
Lfunc_end13:
	.cfi_endproc

	.p2align	4, 0x90
__ZN12gmp_mpfr_sys4mpfr8get_prec17h3b8bc36cd723d7edE:
Lfunc_begin14:
	.loc	8 298 0
	.cfi_startproc
	pushq	%rbp
	.cfi_def_cfa_offset 16
	.cfi_offset %rbp, -16
	movq	%rsp, %rbp
	.cfi_def_cfa_register %rbp
	pushq	%rax
	movq	%rdi, -8(%rbp)
Ltmp74:
	.loc	8 299 14 prologue_end
	movq	(%rdi), %rax
	.loc	8 300 2
	addq	$8, %rsp
	popq	%rbp
	retq
Ltmp75:
Lfunc_end14:
	.cfi_endproc

	.p2align	4, 0x90
__ZN12gmp_mpfr_sys4mpfr8number_p17hba7369589d1bcdb0E:
Lfunc_begin15:
	.loc	8 789 0
	.cfi_startproc
	pushq	%rbp
	.cfi_def_cfa_offset 16
	.cfi_offset %rbp, -16
	movq	%rsp, %rbp
	.cfi_def_cfa_register %rbp
	subq	$32, %rsp
	movq	%rdi, -16(%rbp)
Ltmp76:
	.loc	8 792 24 prologue_end
	movq	16(%rdi), %rax
	movq	%rax, -32(%rbp)
	movq	%rax, -8(%rbp)
Ltmp77:
	.loc	8 793 5
	movabsq	$-9223372036854775806, %rcx
	.loc	8 793 6 is_stmt 0
	cmpq	%rcx, %rax
	.loc	8 793 5
	jne	LBB15_2
	movb	$0, -17(%rbp)
	jmp	LBB15_3
LBB15_2:
	.loc	8 0 5
	movq	-32(%rbp), %rax
	.loc	8 793 24
	movabsq	$-9223372036854775805, %rcx
	cmpq	%rcx, %rax
	setne	%al
	.loc	8 793 5
	andb	$1, %al
	movb	%al, -17(%rbp)
LBB15_3:
	movb	-17(%rbp), %al
	andb	$1, %al
	movzbl	%al, %eax
Ltmp78:
	.loc	8 794 2 is_stmt 1
	addq	$32, %rsp
	popq	%rbp
	retq
Ltmp79:
Lfunc_end15:
	.cfi_endproc

	.globl	__ZN28_$LT$T$u20$as$u20$az..Az$GT$2az17h5b9b6282712d415fE
	.p2align	4, 0x90
__ZN28_$LT$T$u20$as$u20$az..Az$GT$2az17h5b9b6282712d415fE:
Lfunc_begin16:
	.file	9 "/Users/natalie/.cargo/registry/src/github.com-1ecc6299db9ec823/az-1.2.1/src" "lib.rs"
	.loc	9 602 0
	.cfi_startproc
	pushq	%rbp
	.cfi_def_cfa_offset 16
	.cfi_offset %rbp, -16
	movq	%rsp, %rbp
	.cfi_def_cfa_register %rbp
	subq	$16, %rsp
	movq	%rdi, -8(%rbp)
Ltmp80:
	.loc	9 606 9 prologue_end
	callq	__ZN2az3int55_$LT$impl$u20$az..Cast$LT$u64$GT$$u20$for$u20$usize$GT$4cast17h5605910973b8b80bE
	.loc	9 607 6
	addq	$16, %rsp
	popq	%rbp
	retq
Ltmp81:
Lfunc_end16:
	.cfi_endproc

	.p2align	4, 0x90
__ZN2az3int55_$LT$impl$u20$az..Cast$LT$u64$GT$$u20$for$u20$usize$GT$4cast17h5605910973b8b80bE:
Lfunc_begin17:
	.file	10 "/Users/natalie/.cargo/registry/src/github.com-1ecc6299db9ec823/az-1.2.1/src" "int.rs"
	.loc	10 73 0
	.cfi_startproc
	pushq	%rbp
	.cfi_def_cfa_offset 16
	.cfi_offset %rbp, -16
	movq	%rsp, %rbp
	.cfi_def_cfa_register %rbp
	subq	$112, %rsp
	movq	%rsi, -104(%rbp)
	movq	%rdi, -88(%rbp)
Ltmp82:
	.loc	10 74 60 prologue_end
	movq	-88(%rbp), %rdi
	.loc	10 74 43 is_stmt 0
	callq	__ZN2az16overflowing_cast17h2ef1db9f6a419745E
	movq	%rax, %rcx
	movq	%rcx, -96(%rbp)
	movb	%dl, %al
	.loc	10 74 22
	movq	%rcx, -16(%rbp)
	.loc	10 74 31
	movb	%al, %dl
	andb	$1, %dl
	movb	%dl, -1(%rbp)
Ltmp83:
	.loc	10 75 31 is_stmt 1
	xorb	$-1, %al
	.loc	10 75 17 is_stmt 0
	xorb	$-1, %al
	testb	$1, %al
	jne	LBB17_2
Ltmp84:
	.loc	10 0 17
	movq	-96(%rbp), %rax
	.loc	10 78 14 is_stmt 1
	addq	$112, %rsp
	popq	%rbp
	retq
LBB17_2:
	.loc	10 0 14 is_stmt 0
	leaq	-88(%rbp), %rdi
Ltmp85:
	.loc	10 75 17 is_stmt 1
	callq	__ZN4core3fmt10ArgumentV111new_display17hf38d55d7632713c7E
	movq	%rax, -32(%rbp)
	movq	%rdx, -24(%rbp)
	leaq	l___unnamed_12(%rip), %rsi
	leaq	-80(%rbp), %rdi
	movq	%rdi, -112(%rbp)
	movl	$2, %edx
	leaq	-32(%rbp), %rcx
	movl	$1, %r8d
	callq	__ZN4core3fmt9Arguments6new_v117hda9832b152653402E
	movq	-112(%rbp), %rdi
	movq	-104(%rbp), %rsi
	callq	__ZN4core9panicking9panic_fmt17h9b5d807e24bcaaedE
Ltmp86:
Lfunc_end17:
	.cfi_endproc

	.p2align	4, 0x90
__ZN2az3int62_$LT$impl$u20$az..CheckedCast$LT$u64$GT$$u20$for$u20$usize$GT$12checked_cast17h4291a9c835aa8e31E:
Lfunc_begin18:
	.loc	10 83 0
	.cfi_startproc
	pushq	%rbp
	.cfi_def_cfa_offset 16
	.cfi_offset %rbp, -16
	movq	%rsp, %rbp
	.cfi_def_cfa_register %rbp
	subq	$48, %rsp
	movq	%rdi, -16(%rbp)
Ltmp87:
	.loc	10 84 23 prologue_end
	leaq	l___unnamed_13(%rip), %rsi
	callq	__ZN2az16overflowing_cast17h2ef1db9f6a419745E
	movq	%rax, -40(%rbp)
	.loc	10 84 17 is_stmt 0
	testb	$1, %dl
	jne	LBB18_2
	.loc	10 0 17
	movq	-40(%rbp), %rax
	.loc	10 85 22 is_stmt 1
	movq	%rax, -8(%rbp)
Ltmp88:
	.loc	10 85 39 is_stmt 0
	movq	%rax, -24(%rbp)
	movq	$1, -32(%rbp)
Ltmp89:
	.loc	10 85 49
	jmp	LBB18_3
LBB18_2:
	.loc	10 86 34 is_stmt 1
	movq	$0, -32(%rbp)
LBB18_3:
	.loc	10 88 14
	movq	-32(%rbp), %rax
	movq	-24(%rbp), %rdx
	addq	$48, %rsp
	popq	%rbp
	retq
Ltmp90:
Lfunc_end18:
	.cfi_endproc

	.p2align	4, 0x90
__ZN2az3int62_$LT$impl$u20$az..UnwrappedCast$LT$i64$GT$$u20$for$u20$u32$GT$14unwrapped_cast17h8b5df7921bfbc8efE:
Lfunc_begin19:
	.loc	10 116 0
	.cfi_startproc
	pushq	%rbp
	.cfi_def_cfa_offset 16
	.cfi_offset %rbp, -16
	movq	%rsp, %rbp
	.cfi_def_cfa_register %rbp
	subq	$32, %rsp
	movq	%rsi, -32(%rbp)
	movl	%edi, -12(%rbp)
Ltmp91:
	.loc	10 117 23 prologue_end
	callq	__ZN2az16overflowing_cast17h6b7364abbb81e1b5E
	movq	%rax, -24(%rbp)
	.loc	10 117 17 is_stmt 0
	testb	$1, %dl
	jne	LBB19_2
	.loc	10 0 17
	movq	-24(%rbp), %rax
	.loc	10 118 22 is_stmt 1
	movq	%rax, -8(%rbp)
	.loc	10 121 14
	addq	$32, %rsp
	popq	%rbp
	retq
LBB19_2:
	.loc	10 0 14 is_stmt 0
	movq	-32(%rbp), %rdx
	.loc	10 119 34 is_stmt 1
	leaq	L___unnamed_14(%rip), %rdi
	movl	$8, %esi
	callq	__ZN4core9panicking5panic17hc1bc45270cf64b03E
Ltmp92:
Lfunc_end19:
	.cfi_endproc

	.p2align	4, 0x90
__ZN2az3int63_$LT$impl$u20$az..WrappingCast$LT$usize$GT$$u20$for$u20$u64$GT$13wrapping_cast17hfe234f148e9bbcb4E:
Lfunc_begin20:
	.loc	10 109 0
	.cfi_startproc
	pushq	%rbp
	.cfi_def_cfa_offset 16
	.cfi_offset %rbp, -16
	movq	%rsp, %rbp
	.cfi_def_cfa_register %rbp
	subq	$16, %rsp
	movq	%rdi, -8(%rbp)
Ltmp93:
	.loc	10 110 17 prologue_end
	leaq	l___unnamed_13(%rip), %rsi
	callq	__ZN2az16overflowing_cast17h67f0d5ac970318f2E
	.loc	10 111 14
	addq	$16, %rsp
	popq	%rbp
	retq
Ltmp94:
Lfunc_end20:
	.cfi_endproc

	.p2align	4, 0x90
__ZN2az3int64_$LT$impl$u20$az..UnwrappedCast$LT$u64$GT$$u20$for$u20$usize$GT$14unwrapped_cast17hb0df38da2ae26364E:
Lfunc_begin21:
	.loc	10 116 0
	.cfi_startproc
	pushq	%rbp
	.cfi_def_cfa_offset 16
	.cfi_offset %rbp, -16
	movq	%rsp, %rbp
	.cfi_def_cfa_register %rbp
	subq	$32, %rsp
	movq	%rsi, -32(%rbp)
	movq	%rdi, -16(%rbp)
Ltmp95:
	.loc	10 117 23 prologue_end
	callq	__ZN2az16overflowing_cast17h2ef1db9f6a419745E
	movq	%rax, -24(%rbp)
	.loc	10 117 17 is_stmt 0
	testb	$1, %dl
	jne	LBB21_2
	.loc	10 0 17
	movq	-24(%rbp), %rax
	.loc	10 118 22 is_stmt 1
	movq	%rax, -8(%rbp)
	.loc	10 121 14
	addq	$32, %rsp
	popq	%rbp
	retq
LBB21_2:
	.loc	10 0 14 is_stmt 0
	movq	-32(%rbp), %rdx
	.loc	10 119 34 is_stmt 1
	leaq	L___unnamed_14(%rip), %rdi
	movl	$8, %esi
	callq	__ZN4core9panicking5panic17hc1bc45270cf64b03E
Ltmp96:
Lfunc_end21:
	.cfi_endproc

	.globl	__ZN2az4cast17h2ef8106ef911b9d7E
	.p2align	4, 0x90
__ZN2az4cast17h2ef8106ef911b9d7E:
Lfunc_begin22:
	.loc	9 1009 0
	.cfi_startproc
	pushq	%rbp
	.cfi_def_cfa_offset 16
	.cfi_offset %rbp, -16
	movq	%rsp, %rbp
	.cfi_def_cfa_register %rbp
	subq	$16, %rsp
	movsd	%xmm0, -8(%rbp)
Ltmp97:
	.loc	9 1010 5 prologue_end
	callq	__ZN2az5float53_$LT$impl$u20$az..Cast$LT$f64$GT$$u20$for$u20$f64$GT$4cast17hdbdaa59efa14aa96E
	.loc	9 1011 2
	addq	$16, %rsp
	popq	%rbp
	retq
Ltmp98:
Lfunc_end22:
	.cfi_endproc

	.p2align	4, 0x90
__ZN2az5float53_$LT$impl$u20$az..Cast$LT$f64$GT$$u20$for$u20$f64$GT$4cast17hdbdaa59efa14aa96E:
Lfunc_begin23:
	.file	11 "/Users/natalie/.cargo/registry/src/github.com-1ecc6299db9ec823/az-1.2.1/src" "float.rs"
	.loc	11 23 0
	.cfi_startproc
	pushq	%rbp
	.cfi_def_cfa_offset 16
	.cfi_offset %rbp, -16
	movq	%rsp, %rbp
	.cfi_def_cfa_register %rbp
	pushq	%rax
	movsd	%xmm0, -8(%rbp)
Ltmp99:
	.loc	11 25 14 prologue_end
	addq	$8, %rsp
	popq	%rbp
	retq
Ltmp100:
Lfunc_end23:
	.cfi_endproc

	.p2align	4, 0x90
__ZN2az5float60_$LT$impl$u20$az..CheckedCast$LT$f64$GT$$u20$for$u20$f64$GT$12checked_cast17hd2034855115acf4dE:
Lfunc_begin24:
	.loc	11 30 0
	.cfi_startproc
	pushq	%rbp
	.cfi_def_cfa_offset 16
	.cfi_offset %rbp, -16
	movq	%rsp, %rbp
	.cfi_def_cfa_register %rbp
	subq	$32, %rsp
	movsd	%xmm0, -8(%rbp)
Ltmp101:
	.loc	11 31 22 prologue_end
	leaq	l___unnamed_15(%rip), %rdi
	callq	__ZN2az4cast17h2ef8106ef911b9d7E
	.loc	11 31 17 is_stmt 0
	movsd	%xmm0, -16(%rbp)
	movq	$1, -24(%rbp)
	.loc	11 32 14 is_stmt 1
	movq	-24(%rbp), %rax
	movsd	-16(%rbp), %xmm0
	addq	$32, %rsp
	popq	%rbp
	retq
Ltmp102:
Lfunc_end24:
	.cfi_endproc

	.globl	__ZN37_$LT$T$u20$as$u20$az..UnwrappedAs$GT$12unwrapped_as17h7782edf5cd1c2bacE
	.p2align	4, 0x90
__ZN37_$LT$T$u20$as$u20$az..UnwrappedAs$GT$12unwrapped_as17h7782edf5cd1c2bacE:
Lfunc_begin25:
	.loc	9 979 0
	.cfi_startproc
	pushq	%rbp
	.cfi_def_cfa_offset 16
	.cfi_offset %rbp, -16
	movq	%rsp, %rbp
	.cfi_def_cfa_register %rbp
	subq	$16, %rsp
	movq	%rdi, -8(%rbp)
Ltmp103:
	.loc	9 983 9 prologue_end
	callq	__ZN2az3int64_$LT$impl$u20$az..UnwrappedCast$LT$u64$GT$$u20$for$u20$usize$GT$14unwrapped_cast17hb0df38da2ae26364E
	.loc	9 984 6
	addq	$16, %rsp
	popq	%rbp
	retq
Ltmp104:
Lfunc_end25:
	.cfi_endproc

	.globl	__ZN39_$LT$F$u20$as$u20$threadpool..FnBox$GT$8call_box17h0f1c877bed35f67dE
	.p2align	4, 0x90
__ZN39_$LT$F$u20$as$u20$threadpool..FnBox$GT$8call_box17h0f1c877bed35f67dE:
Lfunc_begin26:
	.loc	2 94 0
	.cfi_startproc
	.cfi_personality 155, _rust_eh_personality
	.cfi_lsda 16, Lexception1
	pushq	%rbp
	.cfi_def_cfa_offset 16
	.cfi_offset %rbp, -16
	movq	%rsp, %rbp
	.cfi_def_cfa_register %rbp
	subq	$144, %rsp
	movq	%rdi, %rsi
	movq	%rsi, -144(%rbp)
	movq	%rsi, -24(%rbp)
	movl	$13, %ecx
	leaq	-128(%rbp), %rdi
	movq	%rdi, -136(%rbp)
Ltmp111:
	.loc	2 95 9 prologue_end
	rep;movsq (%rsi), %es:(%rdi)
	movq	-136(%rbp), %rdi
Ltmp105:
	callq	__ZN10mandelbrot13int_calculate28_$u7b$$u7b$closure$u7d$$u7d$17h4f7577cfe9cc68a2E
Ltmp106:
	jmp	LBB26_3
LBB26_1:
Ltmp108:
	.loc	2 0 9 is_stmt 0
	movq	-144(%rbp), %rdi
	.loc	2 96 5 is_stmt 1
	callq	__ZN5alloc5alloc8box_free17h6638dc962dbcfc20E
Ltmp109:
	jmp	LBB26_5
LBB26_2:
Ltmp107:
	.loc	2 0 5 is_stmt 0
	movq	%rax, %rcx
	movl	%edx, %eax
	movq	%rcx, -16(%rbp)
	movl	%eax, -8(%rbp)
	jmp	LBB26_1
LBB26_3:
	movq	-144(%rbp), %rdi
	.loc	2 96 5
	callq	__ZN5alloc5alloc8box_free17h6638dc962dbcfc20E
	.loc	2 96 6
	addq	$144, %rsp
	popq	%rbp
	retq
LBB26_4:
Ltmp110:
	.loc	2 94 5 is_stmt 1
	callq	__ZN4core9panicking19panic_cannot_unwind17h1fbca7e1d7f56ae1E
LBB26_5:
	movq	-16(%rbp), %rdi
	callq	__Unwind_Resume
Ltmp112:
Lfunc_end26:
	.cfi_endproc
	.section	__TEXT,__gcc_except_tab
	.p2align	2
GCC_except_table26:
Lexception1:
	.byte	255
	.byte	255
	.byte	1
	.uleb128 Lcst_end1-Lcst_begin1
Lcst_begin1:
	.uleb128 Ltmp105-Lfunc_begin26
	.uleb128 Ltmp106-Ltmp105
	.uleb128 Ltmp107-Lfunc_begin26
	.byte	0
	.uleb128 Ltmp108-Lfunc_begin26
	.uleb128 Ltmp109-Ltmp108
	.uleb128 Ltmp110-Lfunc_begin26
	.byte	0
	.uleb128 Ltmp109-Lfunc_begin26
	.uleb128 Lfunc_end26-Ltmp109
	.byte	0
	.byte	0
Lcst_end1:
	.p2align	2

	.section	__TEXT,__text,regular,pure_instructions
	.p2align	4, 0x90
__ZN3rug3ext4xmpc10raw_round217h07a2a85152be0c3dE:
Lfunc_begin27:
	.file	12 "/Users/natalie/.cargo/registry/src/github.com-1ecc6299db9ec823/rug-1.19.0/src/ext" "xmpc.rs"
	.loc	12 102 0
	.cfi_startproc
	pushq	%rbp
	.cfi_def_cfa_offset 16
	.cfi_offset %rbp, -16
	movq	%rsp, %rbp
	.cfi_def_cfa_register %rbp
	subq	$72, %rsp
	movb	%sil, %al
	movb	%dil, %cl
	movb	%cl, -8(%rbp)
	movb	%al, -7(%rbp)
Ltmp113:
	.loc	12 103 11 prologue_end
	movb	%cl, -16(%rbp)
	movb	%al, -15(%rbp)
	movzbl	-16(%rbp), %eax
	movq	%rax, -32(%rbp)
	.loc	12 0 11 is_stmt 0
	movq	-32(%rbp), %rax
	leaq	LJTI27_0(%rip), %rcx
	movslq	(%rcx,%rax,4), %rax
	addq	%rcx, %rax
	jmpq	*%rax
	.loc	12 103 11
	ud2
LBB27_2:
	movzbl	-15(%rbp), %eax
	movq	%rax, -40(%rbp)
	.loc	12 0 11
	movq	-40(%rbp), %rax
	leaq	LJTI27_5(%rip), %rcx
	movslq	(%rcx,%rax,4), %rax
	addq	%rcx, %rax
	jmpq	*%rax
LBB27_3:
	.loc	12 103 11
	movzbl	-15(%rbp), %eax
	movq	%rax, -48(%rbp)
	.loc	12 0 11
	movq	-48(%rbp), %rax
	leaq	LJTI27_4(%rip), %rcx
	movslq	(%rcx,%rax,4), %rax
	addq	%rcx, %rax
	jmpq	*%rax
LBB27_4:
	.loc	12 103 11
	movzbl	-15(%rbp), %eax
	movq	%rax, -56(%rbp)
	.loc	12 0 11
	movq	-56(%rbp), %rax
	leaq	LJTI27_3(%rip), %rcx
	movslq	(%rcx,%rax,4), %rax
	addq	%rcx, %rax
	jmpq	*%rax
LBB27_5:
	.loc	12 103 11
	movzbl	-15(%rbp), %eax
	movq	%rax, -64(%rbp)
	.loc	12 0 11
	movq	-64(%rbp), %rax
	leaq	LJTI27_2(%rip), %rcx
	movslq	(%rcx,%rax,4), %rax
	addq	%rcx, %rax
	jmpq	*%rax
LBB27_6:
	.loc	12 103 11
	movzbl	-15(%rbp), %eax
	movq	%rax, -72(%rbp)
	.loc	12 0 11
	movq	-72(%rbp), %rax
	leaq	LJTI27_1(%rip), %rcx
	movslq	(%rcx,%rax,4), %rax
	addq	%rcx, %rax
	jmpq	*%rax
LBB27_7:
	.loc	12 124 46 is_stmt 1
	movl	$4, -20(%rbp)
	jmp	LBB27_12
LBB27_8:
	.loc	12 125 43
	movl	$20, -20(%rbp)
	jmp	LBB27_12
LBB27_9:
	.loc	12 126 41
	movl	$36, -20(%rbp)
	jmp	LBB27_12
LBB27_10:
	.loc	12 127 43
	movl	$52, -20(%rbp)
	jmp	LBB27_12
LBB27_11:
	.loc	12 128 47
	movl	$68, -20(%rbp)
LBB27_12:
	.loc	12 130 2
	movl	-20(%rbp), %eax
	addq	$72, %rsp
	popq	%rbp
	retq
LBB27_13:
	.loc	12 119 42
	movl	$3, -20(%rbp)
	jmp	LBB27_12
LBB27_14:
	.loc	12 120 39
	movl	$19, -20(%rbp)
	jmp	LBB27_12
LBB27_15:
	.loc	12 121 37
	movl	$35, -20(%rbp)
	jmp	LBB27_12
LBB27_16:
	.loc	12 122 39
	movl	$51, -20(%rbp)
	jmp	LBB27_12
LBB27_17:
	.loc	12 123 43
	movl	$67, -20(%rbp)
	jmp	LBB27_12
LBB27_18:
	.loc	12 114 40
	movl	$2, -20(%rbp)
	jmp	LBB27_12
LBB27_19:
	.loc	12 115 37
	movl	$18, -20(%rbp)
	jmp	LBB27_12
LBB27_20:
	.loc	12 116 35
	movl	$34, -20(%rbp)
	jmp	LBB27_12
LBB27_21:
	.loc	12 117 37
	movl	$50, -20(%rbp)
	jmp	LBB27_12
LBB27_22:
	.loc	12 118 41
	movl	$66, -20(%rbp)
	jmp	LBB27_12
LBB27_23:
	.loc	12 109 42
	movl	$1, -20(%rbp)
	jmp	LBB27_12
LBB27_24:
	.loc	12 110 39
	movl	$17, -20(%rbp)
	jmp	LBB27_12
LBB27_25:
	.loc	12 111 37
	movl	$33, -20(%rbp)
	jmp	LBB27_12
LBB27_26:
	.loc	12 112 39
	movl	$49, -20(%rbp)
	jmp	LBB27_12
LBB27_27:
	.loc	12 113 43
	movl	$65, -20(%rbp)
	jmp	LBB27_12
LBB27_28:
	.loc	12 104 45
	movl	$0, -20(%rbp)
	jmp	LBB27_12
LBB27_29:
	.loc	12 105 42
	movl	$16, -20(%rbp)
	jmp	LBB27_12
LBB27_30:
	.loc	12 106 40
	movl	$32, -20(%rbp)
	jmp	LBB27_12
LBB27_31:
	.loc	12 107 42
	movl	$48, -20(%rbp)
	jmp	LBB27_12
LBB27_32:
	.loc	12 108 46
	movl	$64, -20(%rbp)
	jmp	LBB27_12
Ltmp114:
Lfunc_end27:
	.cfi_endproc
	.p2align	2, 0x90
	.data_region jt32
.set L27_0_set_2, LBB27_2-LJTI27_0
.set L27_0_set_3, LBB27_3-LJTI27_0
.set L27_0_set_4, LBB27_4-LJTI27_0
.set L27_0_set_5, LBB27_5-LJTI27_0
.set L27_0_set_6, LBB27_6-LJTI27_0
LJTI27_0:
	.long	L27_0_set_2
	.long	L27_0_set_3
	.long	L27_0_set_4
	.long	L27_0_set_5
	.long	L27_0_set_6
.set L27_1_set_7, LBB27_7-LJTI27_1
.set L27_1_set_8, LBB27_8-LJTI27_1
.set L27_1_set_9, LBB27_9-LJTI27_1
.set L27_1_set_10, LBB27_10-LJTI27_1
.set L27_1_set_11, LBB27_11-LJTI27_1
LJTI27_1:
	.long	L27_1_set_7
	.long	L27_1_set_8
	.long	L27_1_set_9
	.long	L27_1_set_10
	.long	L27_1_set_11
.set L27_2_set_13, LBB27_13-LJTI27_2
.set L27_2_set_14, LBB27_14-LJTI27_2
.set L27_2_set_15, LBB27_15-LJTI27_2
.set L27_2_set_16, LBB27_16-LJTI27_2
.set L27_2_set_17, LBB27_17-LJTI27_2
LJTI27_2:
	.long	L27_2_set_13
	.long	L27_2_set_14
	.long	L27_2_set_15
	.long	L27_2_set_16
	.long	L27_2_set_17
.set L27_3_set_18, LBB27_18-LJTI27_3
.set L27_3_set_19, LBB27_19-LJTI27_3
.set L27_3_set_20, LBB27_20-LJTI27_3
.set L27_3_set_21, LBB27_21-LJTI27_3
.set L27_3_set_22, LBB27_22-LJTI27_3
LJTI27_3:
	.long	L27_3_set_18
	.long	L27_3_set_19
	.long	L27_3_set_20
	.long	L27_3_set_21
	.long	L27_3_set_22
.set L27_4_set_23, LBB27_23-LJTI27_4
.set L27_4_set_24, LBB27_24-LJTI27_4
.set L27_4_set_25, LBB27_25-LJTI27_4
.set L27_4_set_26, LBB27_26-LJTI27_4
.set L27_4_set_27, LBB27_27-LJTI27_4
LJTI27_4:
	.long	L27_4_set_23
	.long	L27_4_set_24
	.long	L27_4_set_25
	.long	L27_4_set_26
	.long	L27_4_set_27
.set L27_5_set_28, LBB27_28-LJTI27_5
.set L27_5_set_29, LBB27_29-LJTI27_5
.set L27_5_set_30, LBB27_30-LJTI27_5
.set L27_5_set_31, LBB27_31-LJTI27_5
.set L27_5_set_32, LBB27_32-LJTI27_5
LJTI27_5:
	.long	L27_5_set_28
	.long	L27_5_set_29
	.long	L27_5_set_30
	.long	L27_5_set_31
	.long	L27_5_set_32
	.end_data_region

	.p2align	4, 0x90
__ZN3rug3ext4xmpc13imagref_const17h12b3ad36cec71345E:
Lfunc_begin28:
	.loc	12 381 0
	.cfi_startproc
	pushq	%rbp
	.cfi_def_cfa_offset 16
	.cfi_offset %rbp, -16
	movq	%rsp, %rbp
	.cfi_def_cfa_register %rbp
	subq	$48, %rsp
	movq	%rdi, -24(%rbp)
Ltmp115:
	.loc	12 382 45 prologue_end
	callq	__ZN3rug7complex3big7Complex6as_raw17h2a8997cdf5e213eeE
	movq	%rax, %rdi
	.loc	12 382 26 is_stmt 0
	callq	__ZN12gmp_mpfr_sys3mpc13imagref_const17h2bc2be0790e5c85dE
	.loc	12 382 16
	movq	%rax, -32(%rbp)
Ltmp116:
	.loc	12 382 16
	movq	-32(%rbp), %rax
	movq	%rax, -40(%rbp)
	movq	%rax, -16(%rbp)
Ltmp117:
	.loc	1 2533 23 is_stmt 1
	movb	$1, %al
	.loc	1 2533 9 is_stmt 0
	xorb	$-1, %al
	testb	$1, %al
	jne	LBB28_1
	jmp	LBB28_2
LBB28_1:
	leaq	l___unnamed_16(%rip), %rdi
	leaq	l___unnamed_17(%rip), %rdx
	movl	$78, %esi
	callq	__ZN4core9panicking5panic17hc1bc45270cf64b03E
Ltmp118:
LBB28_2:
	.loc	1 0 9
	movq	-40(%rbp), %rax
	movq	%rax, -8(%rbp)
	.loc	12 383 2 is_stmt 1
	addq	$48, %rsp
	popq	%rbp
	retq
Ltmp119:
Lfunc_end28:
	.cfi_endproc

	.p2align	4, 0x90
__ZN3rug3ext4xmpc13realref_const17h28222b26dbd55995E:
Lfunc_begin29:
	.loc	12 376 0
	.cfi_startproc
	pushq	%rbp
	.cfi_def_cfa_offset 16
	.cfi_offset %rbp, -16
	movq	%rsp, %rbp
	.cfi_def_cfa_register %rbp
	subq	$48, %rsp
	movq	%rdi, -24(%rbp)
Ltmp120:
	.loc	12 377 45 prologue_end
	callq	__ZN3rug7complex3big7Complex6as_raw17h2a8997cdf5e213eeE
	movq	%rax, %rdi
	.loc	12 377 26 is_stmt 0
	callq	__ZN12gmp_mpfr_sys3mpc13realref_const17h58c31d7a3229312cE
	.loc	12 377 16
	movq	%rax, -32(%rbp)
Ltmp121:
	.loc	12 377 16
	movq	-32(%rbp), %rax
	movq	%rax, -40(%rbp)
	movq	%rax, -16(%rbp)
Ltmp122:
	.loc	1 2533 23 is_stmt 1
	movb	$1, %al
	.loc	1 2533 9 is_stmt 0
	xorb	$-1, %al
	testb	$1, %al
	jne	LBB29_1
	jmp	LBB29_2
LBB29_1:
	leaq	l___unnamed_16(%rip), %rdi
	leaq	l___unnamed_17(%rip), %rdx
	movl	$78, %esi
	callq	__ZN4core9panicking5panic17hc1bc45270cf64b03E
Ltmp123:
LBB29_2:
	.loc	1 0 9
	movq	-40(%rbp), %rax
	movq	%rax, -8(%rbp)
	.loc	12 378 2 is_stmt 1
	addq	$48, %rsp
	popq	%rbp
	retq
Ltmp124:
Lfunc_end29:
	.cfi_endproc

	.p2align	4, 0x90
__ZN3rug3ext4xmpc13write_new_nan17h9a4fd4fbfcde08b1E:
Lfunc_begin30:
	.loc	12 352 0
	.cfi_startproc
	pushq	%rbp
	.cfi_def_cfa_offset 16
	.cfi_offset %rbp, -16
	movq	%rsp, %rbp
	.cfi_def_cfa_register %rbp
	subq	$192, %rsp
	movq	%rsi, -192(%rbp)
	movq	%rdx, -184(%rbp)
	movq	%rdi, -144(%rbp)
	movq	%rsi, -136(%rbp)
	movq	%rdx, -128(%rbp)
	movq	%rdi, -16(%rbp)
Ltmp125:
	.loc	12 355 25 prologue_end
	movq	%rdi, -152(%rbp)
Ltmp126:
	.loc	12 355 25 is_stmt 0
	movq	-152(%rbp), %rax
	movq	%rax, -176(%rbp)
	movq	%rax, -40(%rbp)
Ltmp127:
	.loc	1 2548 9 is_stmt 1
	leaq	L___unnamed_18(%rip), %rax
	movq	%rax, -112(%rbp)
	leaq	L___unnamed_18(%rip), %rax
	movq	%rax, -104(%rbp)
	movq	-112(%rbp), %rax
	movq	%rax, -168(%rbp)
	movq	%rax, -32(%rbp)
	movq	-104(%rbp), %rcx
	movq	%rcx, -160(%rbp)
	movq	%rcx, -24(%rbp)
Ltmp128:
	.loc	1 2548 9 is_stmt 0
	movq	(%rax), %rax
	cmpq	(%rcx), %rax
	sete	%al
	xorb	$-1, %al
	testb	$1, %al
	jne	LBB30_1
	jmp	LBB30_2
LBB30_1:
	.loc	1 0 9
	movq	-160(%rbp), %rdx
	movq	-168(%rbp), %rsi
	.loc	1 2548 9
	movb	$0, -89(%rbp)
Ltmp129:
	.loc	1 2548 9
	movq	$0, -72(%rbp)
	leaq	l___unnamed_19(%rip), %r8
	xorl	%edi, %edi
	leaq	-88(%rbp), %rcx
	callq	__ZN4core9panicking13assert_failed17hdf2d2fcaa71a607aE
Ltmp130:
LBB30_2:
	.loc	1 0 9
	movq	-184(%rbp), %rdx
	movq	-192(%rbp), %rsi
	movq	-176(%rbp), %rdi
	movq	%rdi, -8(%rbp)
	.loc	12 355 25 is_stmt 1
	movq	%rdi, -120(%rbp)
Ltmp131:
	.loc	12 356 9
	callq	_mpc_init3
Ltmp132:
	.loc	12 358 2
	addq	$192, %rsp
	popq	%rbp
	retq
Ltmp133:
Lfunc_end30:
	.cfi_endproc

	.globl	__ZN3rug3ext4xmpc3add17h2e83de9328c1e146E
	.p2align	4, 0x90
__ZN3rug3ext4xmpc3add17h2e83de9328c1e146E:
Lfunc_begin31:
	.loc	12 148 0
	.cfi_startproc
	pushq	%rbp
	.cfi_def_cfa_offset 16
	.cfi_offset %rbp, -16
	movq	%rsp, %rbp
	.cfi_def_cfa_register %rbp
	subq	$128, %rsp
	movq	%rsi, -120(%rbp)
	movb	%cl, %al
	movb	%al, -105(%rbp)
	movb	%dl, %cl
	movb	%cl, -106(%rbp)
	movq	%rdi, -88(%rbp)
	movq	%rsi, -72(%rbp)
	movb	%cl, -64(%rbp)
	movb	%al, -63(%rbp)
Ltmp134:
	.loc	12 154 23 prologue_end
	callq	__ZN3rug7complex3big7Complex10as_raw_mut17h054b84bedf863127E
	movq	-120(%rbp), %rdi
	movq	%rax, -104(%rbp)
	movq	%rax, -56(%rbp)
	movq	%rax, -32(%rbp)
	movq	%rax, -24(%rbp)
Ltmp135:
	.loc	12 155 25
	movq	%rax, -48(%rbp)
	movq	%rdi, -16(%rbp)
	movq	%rax, -8(%rbp)
Ltmp136:
	.loc	12 81 9
	callq	__ZN3rug7complex3big7Complex6as_raw17h2a8997cdf5e213eeE
	movb	-106(%rbp), %cl
	movq	%rax, %rdx
	movb	-105(%rbp), %al
	movq	%rdx, -96(%rbp)
Ltmp137:
	.loc	12 155 25
	movq	%rdx, -40(%rbp)
Ltmp138:
	.loc	12 156 72
	movzbl	%cl, %edi
	movzbl	%al, %esi
	callq	__ZN3rug3ext4xmpc10raw_round217h07a2a85152be0c3dE
	movq	-104(%rbp), %rsi
	movq	-96(%rbp), %rdx
	movl	%eax, %ecx
	.loc	12 156 32 is_stmt 0
	movq	%rsi, %rdi
	callq	_mpc_add
	movl	%eax, %edi
	.loc	12 156 13
	callq	__ZN3rug3ext4xmpc9ordering217ha53e6512a4a78a4dE
Ltmp139:
	.loc	12 157 10 is_stmt 1
	addq	$128, %rsp
	popq	%rbp
	retq
Ltmp140:
Lfunc_end31:
	.cfi_endproc

	.globl	__ZN3rug3ext4xmpc3sqr17h7923ff99bad167e9E
	.p2align	4, 0x90
__ZN3rug3ext4xmpc3sqr17h7923ff99bad167e9E:
Lfunc_begin32:
	.loc	12 148 0
	.cfi_startproc
	pushq	%rbp
	.cfi_def_cfa_offset 16
	.cfi_offset %rbp, -16
	movq	%rsp, %rbp
	.cfi_def_cfa_register %rbp
	subq	$80, %rsp
	movb	%dl, %al
	movb	%al, -65(%rbp)
	movb	%sil, %cl
	movb	%cl, -66(%rbp)
	movq	%rdi, -56(%rbp)
	movb	%cl, -40(%rbp)
	movb	%al, -39(%rbp)
Ltmp141:
	.loc	12 154 23 prologue_end
	callq	__ZN3rug7complex3big7Complex10as_raw_mut17h054b84bedf863127E
	movb	-66(%rbp), %cl
	movq	%rax, %rdx
	movb	-65(%rbp), %al
	movq	%rdx, -64(%rbp)
	movq	%rdx, -32(%rbp)
	movq	%rdx, -16(%rbp)
	movq	%rdx, -8(%rbp)
Ltmp142:
	.loc	12 155 25
	movq	%rdx, -24(%rbp)
Ltmp143:
	.loc	12 156 72
	movzbl	%cl, %edi
	movzbl	%al, %esi
	callq	__ZN3rug3ext4xmpc10raw_round217h07a2a85152be0c3dE
	movq	-64(%rbp), %rsi
	movl	%eax, %edx
	.loc	12 156 32 is_stmt 0
	movq	%rsi, %rdi
	callq	_mpc_sqr
	movl	%eax, %edi
	.loc	12 156 13
	callq	__ZN3rug3ext4xmpc9ordering217ha53e6512a4a78a4dE
Ltmp144:
	.loc	12 157 10 is_stmt 1
	addq	$80, %rsp
	popq	%rbp
	retq
Ltmp145:
Lfunc_end32:
	.cfi_endproc

	.p2align	4, 0x90
__ZN3rug3ext4xmpc7imagref17h73450dae92358826E:
Lfunc_begin33:
	.loc	12 391 0
	.cfi_startproc
	pushq	%rbp
	.cfi_def_cfa_offset 16
	.cfi_offset %rbp, -16
	movq	%rsp, %rbp
	.cfi_def_cfa_register %rbp
	subq	$144, %rsp
	movq	%rdi, -112(%rbp)
Ltmp146:
	.loc	12 392 47 prologue_end
	callq	__ZN3rug7complex3big7Complex10as_raw_mut17h054b84bedf863127E
	movq	%rax, %rdi
	.loc	12 392 34 is_stmt 0
	callq	__ZN12gmp_mpfr_sys3mpc7imagref17h70f1ccbb0c5ee0dbE
	.loc	12 392 20
	movq	%rax, -120(%rbp)
Ltmp147:
	.loc	12 392 20
	movq	-120(%rbp), %rax
	movq	%rax, -144(%rbp)
	movq	%rax, -32(%rbp)
Ltmp148:
	.loc	1 2548 9 is_stmt 1
	leaq	L___unnamed_18(%rip), %rax
	movq	%rax, -104(%rbp)
	leaq	L___unnamed_18(%rip), %rax
	movq	%rax, -96(%rbp)
	movq	-104(%rbp), %rax
	movq	%rax, -136(%rbp)
	movq	%rax, -24(%rbp)
	movq	-96(%rbp), %rcx
	movq	%rcx, -128(%rbp)
	movq	%rcx, -16(%rbp)
Ltmp149:
	.loc	1 2548 9 is_stmt 0
	movq	(%rax), %rax
	cmpq	(%rcx), %rax
	sete	%al
	xorb	$-1, %al
	testb	$1, %al
	jne	LBB33_1
	jmp	LBB33_2
LBB33_1:
	.loc	1 0 9
	movq	-128(%rbp), %rdx
	movq	-136(%rbp), %rsi
	.loc	1 2548 9
	movb	$0, -81(%rbp)
Ltmp150:
	.loc	1 2548 9
	movq	$0, -64(%rbp)
	leaq	l___unnamed_19(%rip), %r8
	xorl	%edi, %edi
	leaq	-80(%rbp), %rcx
	callq	__ZN4core9panicking13assert_failed17hdf2d2fcaa71a607aE
Ltmp151:
LBB33_2:
	.loc	1 0 9
	movq	-144(%rbp), %rax
	movq	%rax, -8(%rbp)
	.loc	12 393 2 is_stmt 1
	addq	$144, %rsp
	popq	%rbp
	retq
Ltmp152:
Lfunc_end33:
	.cfi_endproc

	.p2align	4, 0x90
__ZN3rug3ext4xmpc7realref17h4310f254f47d546eE:
Lfunc_begin34:
	.loc	12 386 0
	.cfi_startproc
	pushq	%rbp
	.cfi_def_cfa_offset 16
	.cfi_offset %rbp, -16
	movq	%rsp, %rbp
	.cfi_def_cfa_register %rbp
	subq	$144, %rsp
	movq	%rdi, -112(%rbp)
Ltmp153:
	.loc	12 387 47 prologue_end
	callq	__ZN3rug7complex3big7Complex10as_raw_mut17h054b84bedf863127E
	movq	%rax, %rdi
	.loc	12 387 34 is_stmt 0
	callq	__ZN12gmp_mpfr_sys3mpc7realref17hc1214a35c7a9248dE
	.loc	12 387 20
	movq	%rax, -120(%rbp)
Ltmp154:
	.loc	12 387 20
	movq	-120(%rbp), %rax
	movq	%rax, -144(%rbp)
	movq	%rax, -32(%rbp)
Ltmp155:
	.loc	1 2548 9 is_stmt 1
	leaq	L___unnamed_18(%rip), %rax
	movq	%rax, -104(%rbp)
	leaq	L___unnamed_18(%rip), %rax
	movq	%rax, -96(%rbp)
	movq	-104(%rbp), %rax
	movq	%rax, -136(%rbp)
	movq	%rax, -24(%rbp)
	movq	-96(%rbp), %rcx
	movq	%rcx, -128(%rbp)
	movq	%rcx, -16(%rbp)
Ltmp156:
	.loc	1 2548 9 is_stmt 0
	movq	(%rax), %rax
	cmpq	(%rcx), %rax
	sete	%al
	xorb	$-1, %al
	testb	$1, %al
	jne	LBB34_1
	jmp	LBB34_2
LBB34_1:
	.loc	1 0 9
	movq	-128(%rbp), %rdx
	movq	-136(%rbp), %rsi
	.loc	1 2548 9
	movb	$0, -81(%rbp)
Ltmp157:
	.loc	1 2548 9
	movq	$0, -64(%rbp)
	leaq	l___unnamed_19(%rip), %r8
	xorl	%edi, %edi
	leaq	-80(%rbp), %rcx
	callq	__ZN4core9panicking13assert_failed17hdf2d2fcaa71a607aE
Ltmp158:
LBB34_2:
	.loc	1 0 9
	movq	-144(%rbp), %rax
	movq	%rax, -8(%rbp)
	.loc	12 388 2 is_stmt 1
	addq	$144, %rsp
	popq	%rbp
	retq
Ltmp159:
Lfunc_end34:
	.cfi_endproc

	.p2align	4, 0x90
__ZN3rug3ext4xmpc9ordering217ha53e6512a4a78a4dE:
Lfunc_begin35:
	.loc	12 133 0
	.cfi_startproc
	pushq	%rbp
	.cfi_def_cfa_offset 16
	.cfi_offset %rbp, -16
	movq	%rsp, %rbp
	.cfi_def_cfa_register %rbp
	subq	$48, %rsp
	movl	%edi, -44(%rbp)
	movl	%edi, -8(%rbp)
Ltmp160:
	.loc	12 135 17 prologue_end
	callq	__ZN12gmp_mpfr_sys3mpc7INEX_RE17hb887e8c8ec270ad3E
	movl	%eax, -16(%rbp)
	leaq	L___unnamed_20(%rip), %rsi
	movq	%rsi, -40(%rbp)
	leaq	-16(%rbp), %rdi
	callq	__ZN4core3cmp5impls48_$LT$impl$u20$core..cmp..Ord$u20$for$u20$i32$GT$3cmp17hd1313a78f8c7e8e4E
	movl	-44(%rbp), %edi
	movb	%al, -25(%rbp)
	movb	%al, -2(%rbp)
Ltmp161:
	.loc	12 136 18
	callq	__ZN12gmp_mpfr_sys3mpc7INEX_IM17h2178257d735cd14aE
	movq	-40(%rbp), %rsi
	movl	%eax, -12(%rbp)
	leaq	-12(%rbp), %rdi
	callq	__ZN4core3cmp5impls48_$LT$impl$u20$core..cmp..Ord$u20$for$u20$i32$GT$3cmp17hd1313a78f8c7e8e4E
	movb	-25(%rbp), %cl
	movb	%al, -1(%rbp)
Ltmp162:
	.loc	12 137 5
	movb	%cl, -24(%rbp)
	movb	%al, -23(%rbp)
Ltmp163:
	.loc	12 138 2
	movb	-24(%rbp), %al
	movb	-23(%rbp), %dl
	addq	$48, %rsp
	popq	%rbp
	retq
Ltmp164:
Lfunc_end35:
	.cfi_endproc

	.p2align	4, 0x90
__ZN3rug3ext4xmpz10owned_init17hcb6508b841e058d2E:
Lfunc_begin36:
	.file	13 "/Users/natalie/.cargo/registry/src/github.com-1ecc6299db9ec823/rug-1.19.0/src/ext" "xmpz.rs"
	.loc	13 159 0
	.cfi_startproc
	pushq	%rbp
	.cfi_def_cfa_offset 16
	.cfi_offset %rbp, -16
	movq	%rsp, %rbp
	.cfi_def_cfa_register %rbp
	subq	$32, %rsp
	movq	%rdi, -24(%rbp)
	movq	%rdi, -16(%rbp)
	leaq	L___unnamed_21(%rip), %rax
	movq	%rax, -8(%rbp)
Ltmp165:
	.loc	13 165 21 prologue_end
	leaq	L___unnamed_21(%rip), %rdi
	callq	__ZN4core3ptr8non_null16NonNull$LT$T$GT$13new_unchecked17h265a74c78928ffd5E
	movq	-24(%rbp), %rdi
	movq	%rax, %rcx
	movq	-16(%rbp), %rax
	.loc	13 162 5
	movl	$0, (%rdi)
	movl	$0, 4(%rdi)
	movq	%rcx, 8(%rdi)
	.loc	13 167 2
	addq	$32, %rsp
	popq	%rbp
	retq
Ltmp166:
Lfunc_end36:
	.cfi_endproc

	.p2align	4, 0x90
__ZN3rug3ext4xmpz3sgn17hb066a5de6902a3f9E:
Lfunc_begin37:
	.loc	13 629 0
	.cfi_startproc
	pushq	%rbp
	.cfi_def_cfa_offset 16
	.cfi_offset %rbp, -16
	movq	%rsp, %rbp
	.cfi_def_cfa_register %rbp
	subq	$32, %rsp
	movq	%rdi, -16(%rbp)
Ltmp167:
	.loc	13 630 35 prologue_end
	callq	__ZN3rug7integer3big7Integer6as_raw17h718e84ba51e26a0fE
	movq	%rax, %rdi
	.loc	13 630 22 is_stmt 0
	callq	__ZN12gmp_mpfr_sys3gmp7mpz_sgn17h6e9e8cfbad701e64E
	movl	%eax, -24(%rbp)
	movl	%eax, -4(%rbp)
Ltmp168:
	.loc	13 631 8 is_stmt 1
	cmpl	$0, %eax
	jl	LBB37_2
	.loc	13 0 8 is_stmt 0
	movl	-24(%rbp), %eax
	.loc	13 633 15 is_stmt 1
	cmpl	$0, %eax
	je	LBB37_4
	jmp	LBB37_5
LBB37_2:
	.loc	13 632 9
	movb	$-1, -17(%rbp)
Ltmp169:
LBB37_3:
	.loc	13 638 2
	movb	-17(%rbp), %al
	addq	$32, %rsp
	popq	%rbp
	retq
LBB37_4:
Ltmp170:
	.loc	13 634 9
	movb	$0, -17(%rbp)
	.loc	13 633 12
	jmp	LBB37_3
LBB37_5:
	.loc	13 636 9
	movb	$1, -17(%rbp)
	.loc	13 633 12
	jmp	LBB37_3
Ltmp171:
Lfunc_end37:
	.cfi_endproc

	.p2align	4, 0x90
__ZN3rug3ext4xmpz4limb17h17454b3972e4f1abE:
Lfunc_begin38:
	.loc	13 1076 0
	.cfi_startproc
	pushq	%rbp
	.cfi_def_cfa_offset 16
	.cfi_offset %rbp, -16
	movq	%rsp, %rbp
	.cfi_def_cfa_register %rbp
	subq	$80, %rsp
	movq	%rsi, -72(%rbp)
	movq	%rdi, -64(%rbp)
	movq	%rsi, -56(%rbp)
Ltmp172:
	.loc	13 1077 15 prologue_end
	callq	__ZN3rug7integer3big7Integer5inner17hd43f7a53d70f34d5E
	movq	-72(%rbp), %rsi
	movq	8(%rax), %rax
	movq	%rax, -8(%rbp)
	movq	%rax, -48(%rbp)
	movq	%rax, -32(%rbp)
	movq	%rsi, -24(%rbp)
Ltmp173:
	.loc	7 487 18
	shlq	$3, %rsi
	addq	%rsi, %rax
	movq	%rax, -16(%rbp)
	movq	-16(%rbp), %rax
	movq	%rax, -40(%rbp)
Ltmp174:
	.loc	13 1078 14
	movq	(%rax), %rax
Ltmp175:
	.loc	13 1079 2
	addq	$80, %rsp
	popq	%rbp
	retq
Ltmp176:
Lfunc_end38:
	.cfi_endproc

	.p2align	4, 0x90
__ZN3rug3ext5xmpfr10prec_round17h3d61969b4d1cb2f2E:
Lfunc_begin39:
	.file	14 "/Users/natalie/.cargo/registry/src/github.com-1ecc6299db9ec823/rug-1.19.0/src/ext" "xmpfr.rs"
	.loc	14 138 0
	.cfi_startproc
	pushq	%rbp
	.cfi_def_cfa_offset 16
	.cfi_offset %rbp, -16
	movq	%rsp, %rbp
	.cfi_def_cfa_register %rbp
	subq	$64, %rsp
	movq	%rsi, -56(%rbp)
	movb	%dl, %al
	movb	%al, -41(%rbp)
	movq	%rdi, -24(%rbp)
	movq	%rsi, -16(%rbp)
	movb	%al, -1(%rbp)
Ltmp177:
	.loc	14 139 39 prologue_end
	callq	__ZN3rug5float3big5Float10as_raw_mut17h951c1089933b32c5E
	movq	-56(%rbp), %rdi
	movq	%rax, -40(%rbp)
	.loc	14 139 59 is_stmt 0
	callq	__ZN50_$LT$T$u20$as$u20$core..convert..Into$LT$U$GT$$GT$4into17h925df0bc22c423caE
	movq	%rax, %rcx
	movb	-41(%rbp), %al
	movq	%rcx, -32(%rbp)
	.loc	14 139 76
	movzbl	%al, %edi
	callq	__ZN3rug3ext5xmpfr9raw_round17h2a757d98edcd2298E
	movq	-40(%rbp), %rdi
	movq	-32(%rbp), %rsi
	movl	%eax, %edx
	.loc	14 139 32
	callq	_mpfr_prec_round
	movl	%eax, %edi
	.loc	14 139 13
	callq	__ZN3rug3ext5xmpfr9ordering117hb8ceebb0eb23a9b3E
	.loc	14 140 10 is_stmt 1
	addq	$64, %rsp
	popq	%rbp
	retq
Ltmp178:
Lfunc_end39:
	.cfi_endproc

	.p2align	4, 0x90
__ZN3rug3ext5xmpfr11custom_zero17h11f707e5bb98a6d1E:
Lfunc_begin40:
	.loc	14 861 0
	.cfi_startproc
	pushq	%rbp
	.cfi_def_cfa_offset 16
	.cfi_offset %rbp, -16
	movq	%rsp, %rbp
	.cfi_def_cfa_register %rbp
	subq	$80, %rsp
	movq	%rdx, -80(%rbp)
	movq	%rsi, %rax
	movq	-80(%rbp), %rsi
	movq	%rax, -72(%rbp)
	movq	%rdi, %rax
	movq	-72(%rbp), %rdi
	movq	%rax, -64(%rbp)
	movq	%rdi, -48(%rbp)
	movq	%rsi, -56(%rbp)
	movq	%rax, -40(%rbp)
	movq	%rdi, -32(%rbp)
	movq	%rsi, -24(%rbp)
	movq	%rdi, -8(%rbp)
Ltmp179:
	.loc	14 863 9 prologue_end
	callq	__ZN12gmp_mpfr_sys4mpfr11custom_init17hbb7888dc0f5497f9E
	movq	-64(%rbp), %rdi
	movq	-56(%rbp), %rcx
	movq	-48(%rbp), %r8
	movq	%r8, -16(%rbp)
	.loc	14 864 9
	movl	$2, %esi
	xorl	%eax, %eax
	movl	%eax, %edx
	callq	__ZN12gmp_mpfr_sys4mpfr15custom_init_set17h6145aaeae046ad6aE
	.loc	14 866 2
	addq	$80, %rsp
	popq	%rbp
	retq
Ltmp180:
Lfunc_end40:
	.cfi_endproc

	.p2align	4, 0x90
__ZN3rug3ext5xmpfr13write_new_nan17h3885b99c7ab08395E:
Lfunc_begin41:
	.loc	14 172 0
	.cfi_startproc
	pushq	%rbp
	.cfi_def_cfa_offset 16
	.cfi_offset %rbp, -16
	movq	%rsp, %rbp
	.cfi_def_cfa_register %rbp
	subq	$176, %rsp
	movq	%rsi, -176(%rbp)
	movq	%rdi, -136(%rbp)
	movq	%rsi, -128(%rbp)
	movq	%rdi, -16(%rbp)
Ltmp181:
	.loc	14 175 25 prologue_end
	movq	%rdi, -144(%rbp)
Ltmp182:
	.loc	14 175 25 is_stmt 0
	movq	-144(%rbp), %rax
	movq	%rax, -168(%rbp)
	movq	%rax, -40(%rbp)
Ltmp183:
	.loc	1 2548 9 is_stmt 1
	leaq	L___unnamed_18(%rip), %rax
	movq	%rax, -112(%rbp)
	leaq	L___unnamed_18(%rip), %rax
	movq	%rax, -104(%rbp)
	movq	-112(%rbp), %rax
	movq	%rax, -160(%rbp)
	movq	%rax, -32(%rbp)
	movq	-104(%rbp), %rcx
	movq	%rcx, -152(%rbp)
	movq	%rcx, -24(%rbp)
Ltmp184:
	.loc	1 2548 9 is_stmt 0
	movq	(%rax), %rax
	cmpq	(%rcx), %rax
	sete	%al
	xorb	$-1, %al
	testb	$1, %al
	jne	LBB41_1
	jmp	LBB41_2
LBB41_1:
	.loc	1 0 9
	movq	-152(%rbp), %rdx
	movq	-160(%rbp), %rsi
	.loc	1 2548 9
	movb	$0, -89(%rbp)
Ltmp185:
	.loc	1 2548 9
	movq	$0, -72(%rbp)
	leaq	l___unnamed_19(%rip), %r8
	xorl	%edi, %edi
	leaq	-88(%rbp), %rcx
	callq	__ZN4core9panicking13assert_failed17hdf2d2fcaa71a607aE
Ltmp186:
LBB41_2:
	.loc	1 0 9
	movq	-176(%rbp), %rsi
	movq	-168(%rbp), %rdi
	movq	%rdi, -8(%rbp)
	.loc	14 175 25 is_stmt 1
	movq	%rdi, -120(%rbp)
Ltmp187:
	.loc	14 176 9
	callq	_mpfr_init2
Ltmp188:
	.loc	14 178 2
	addq	$176, %rsp
	popq	%rbp
	retq
Ltmp189:
Lfunc_end41:
	.cfi_endproc

	.p2align	4, 0x90
__ZN3rug3ext5xmpfr14custom_regular17h98b3cc01fa46bfd6E:
Lfunc_begin42:
	.loc	14 869 0
	.cfi_startproc
	pushq	%rbp
	.cfi_def_cfa_offset 16
	.cfi_offset %rbp, -16
	movq	%rsp, %rbp
	.cfi_def_cfa_register %rbp
	subq	$96, %rsp
	movq	%rcx, -96(%rbp)
	movq	%rsi, %rax
	movq	-96(%rbp), %rsi
	movq	%rax, -88(%rbp)
	movq	%rdi, %rax
	movq	-88(%rbp), %rdi
	movq	%rax, -80(%rbp)
	movq	%rdi, -56(%rbp)
	movq	%rdx, -72(%rbp)
	movq	%rsi, -64(%rbp)
	movq	%rax, -48(%rbp)
	movq	%rdi, -40(%rbp)
	movq	%rdx, -32(%rbp)
	movq	%rsi, -24(%rbp)
	movq	%rdi, -8(%rbp)
Ltmp190:
	.loc	14 871 9 prologue_end
	callq	__ZN12gmp_mpfr_sys4mpfr11custom_init17hbb7888dc0f5497f9E
	movq	-80(%rbp), %rdi
	movq	-72(%rbp), %rdx
	movq	-64(%rbp), %rcx
	movq	-56(%rbp), %r8
	movq	%r8, -16(%rbp)
	.loc	14 872 9
	movl	$3, %esi
	callq	__ZN12gmp_mpfr_sys4mpfr15custom_init_set17h6145aaeae046ad6aE
	.loc	14 874 2
	addq	$96, %rsp
	popq	%rbp
	retq
Ltmp191:
Lfunc_end42:
	.cfi_endproc

	.globl	__ZN3rug3ext5xmpfr3add17hf9cac92b85be8d63E
	.p2align	4, 0x90
__ZN3rug3ext5xmpfr3add17hf9cac92b85be8d63E:
Lfunc_begin43:
	.loc	14 122 0
	.cfi_startproc
	pushq	%rbp
	.cfi_def_cfa_offset 16
	.cfi_offset %rbp, -16
	movq	%rsp, %rbp
	.cfi_def_cfa_register %rbp
	subq	$128, %rsp
	movq	%rsi, -120(%rbp)
	movb	%dl, %al
	movb	%al, -105(%rbp)
	movq	%rdi, -88(%rbp)
	movq	%rsi, -72(%rbp)
	movb	%al, -57(%rbp)
Ltmp192:
	.loc	14 128 23 prologue_end
	callq	__ZN3rug5float3big5Float10as_raw_mut17h951c1089933b32c5E
	movq	-120(%rbp), %rdi
	movq	%rax, -104(%rbp)
	movq	%rax, -56(%rbp)
	movq	%rax, -32(%rbp)
	movq	%rax, -24(%rbp)
Ltmp193:
	.loc	14 129 25
	movq	%rax, -48(%rbp)
	movq	%rdi, -16(%rbp)
	movq	%rax, -8(%rbp)
Ltmp194:
	.loc	14 74 9
	callq	__ZN3rug5float3big5Float6as_raw17h7d2ff2b6d53de9c7E
	movq	%rax, %rcx
	movb	-105(%rbp), %al
	movq	%rcx, -96(%rbp)
Ltmp195:
	.loc	14 129 25
	movq	%rcx, -40(%rbp)
Ltmp196:
	.loc	14 130 72
	movzbl	%al, %edi
	callq	__ZN3rug3ext5xmpfr9raw_round17h2a757d98edcd2298E
	movq	-104(%rbp), %rsi
	movq	-96(%rbp), %rdx
	movl	%eax, %ecx
	.loc	14 130 32 is_stmt 0
	movq	%rsi, %rdi
	callq	_mpfr_add
	movl	%eax, %edi
	.loc	14 130 13
	callq	__ZN3rug3ext5xmpfr9ordering117hb8ceebb0eb23a9b3E
Ltmp197:
	.loc	14 131 10 is_stmt 1
	addq	$128, %rsp
	popq	%rbp
	retq
Ltmp198:
Lfunc_end43:
	.cfi_endproc

	.globl	__ZN3rug3ext5xmpfr3fma17h50b1c7f51cc66f08E
	.p2align	4, 0x90
__ZN3rug3ext5xmpfr3fma17h50b1c7f51cc66f08E:
Lfunc_begin44:
	.loc	14 122 0
	.cfi_startproc
	pushq	%rbp
	.cfi_def_cfa_offset 16
	.cfi_offset %rbp, -16
	movq	%rsp, %rbp
	.cfi_def_cfa_register %rbp
	subq	$192, %rsp
	movq	%rcx, -168(%rbp)
	movq	%rdx, -176(%rbp)
	movq	%rsi, -184(%rbp)
	movb	%r8b, %al
	movb	%al, -153(%rbp)
	movq	%rdi, -120(%rbp)
	movq	%rsi, -112(%rbp)
	movq	%rdx, -104(%rbp)
	movq	%rcx, -96(%rbp)
	movb	%al, -81(%rbp)
Ltmp199:
	.loc	14 128 23 prologue_end
	callq	__ZN3rug5float3big5Float10as_raw_mut17h951c1089933b32c5E
	movq	-184(%rbp), %rdi
	movq	%rax, -152(%rbp)
	movq	%rax, -80(%rbp)
	movq	%rdi, -16(%rbp)
	movq	%rax, -8(%rbp)
Ltmp200:
	.loc	14 74 9
	callq	__ZN3rug5float3big5Float6as_raw17h7d2ff2b6d53de9c7E
	movq	-176(%rbp), %rdi
	movq	%rax, %rcx
	movq	-152(%rbp), %rax
	movq	%rcx, -144(%rbp)
Ltmp201:
	.loc	14 129 25
	movq	%rcx, -72(%rbp)
	movq	%rdi, -32(%rbp)
	movq	%rax, -24(%rbp)
Ltmp202:
	.loc	14 74 9
	callq	__ZN3rug5float3big5Float6as_raw17h7d2ff2b6d53de9c7E
	movq	-168(%rbp), %rdi
	movq	%rax, %rcx
	movq	-152(%rbp), %rax
	movq	%rcx, -136(%rbp)
Ltmp203:
	.loc	14 129 25
	movq	%rcx, -64(%rbp)
	movq	%rdi, -48(%rbp)
	movq	%rax, -40(%rbp)
Ltmp204:
	.loc	14 74 9
	callq	__ZN3rug5float3big5Float6as_raw17h7d2ff2b6d53de9c7E
	movq	%rax, %rcx
	movb	-153(%rbp), %al
	movq	%rcx, -128(%rbp)
Ltmp205:
	.loc	14 129 25
	movq	%rcx, -56(%rbp)
Ltmp206:
	.loc	14 130 72
	movzbl	%al, %edi
	callq	__ZN3rug3ext5xmpfr9raw_round17h2a757d98edcd2298E
	movq	-152(%rbp), %rdi
	movq	-144(%rbp), %rsi
	movq	-136(%rbp), %rdx
	movq	-128(%rbp), %rcx
	movl	%eax, %r8d
	.loc	14 130 32 is_stmt 0
	callq	_mpfr_fma
	movl	%eax, %edi
	.loc	14 130 13
	callq	__ZN3rug3ext5xmpfr9ordering117hb8ceebb0eb23a9b3E
Ltmp207:
	.loc	14 131 10 is_stmt 1
	addq	$192, %rsp
	popq	%rbp
	retq
Ltmp208:
Lfunc_end44:
	.cfi_endproc

	.globl	__ZN3rug3ext5xmpfr3mul17hb85bae8241c8627aE
	.p2align	4, 0x90
__ZN3rug3ext5xmpfr3mul17hb85bae8241c8627aE:
Lfunc_begin45:
	.loc	14 122 0
	.cfi_startproc
	pushq	%rbp
	.cfi_def_cfa_offset 16
	.cfi_offset %rbp, -16
	movq	%rsp, %rbp
	.cfi_def_cfa_register %rbp
	subq	$128, %rsp
	movq	%rsi, -120(%rbp)
	movb	%dl, %al
	movb	%al, -105(%rbp)
	movq	%rdi, -88(%rbp)
	movq	%rsi, -72(%rbp)
	movb	%al, -57(%rbp)
Ltmp209:
	.loc	14 128 23 prologue_end
	callq	__ZN3rug5float3big5Float10as_raw_mut17h951c1089933b32c5E
	movq	-120(%rbp), %rdi
	movq	%rax, -104(%rbp)
	movq	%rax, -56(%rbp)
	movq	%rax, -32(%rbp)
	movq	%rax, -24(%rbp)
Ltmp210:
	.loc	14 129 25
	movq	%rax, -48(%rbp)
	movq	%rdi, -16(%rbp)
	movq	%rax, -8(%rbp)
Ltmp211:
	.loc	14 74 9
	callq	__ZN3rug5float3big5Float6as_raw17h7d2ff2b6d53de9c7E
	movq	%rax, %rcx
	movb	-105(%rbp), %al
	movq	%rcx, -96(%rbp)
Ltmp212:
	.loc	14 129 25
	movq	%rcx, -40(%rbp)
Ltmp213:
	.loc	14 130 72
	movzbl	%al, %edi
	callq	__ZN3rug3ext5xmpfr9raw_round17h2a757d98edcd2298E
	movq	-104(%rbp), %rsi
	movq	-96(%rbp), %rdx
	movl	%eax, %ecx
	.loc	14 130 32 is_stmt 0
	movq	%rsi, %rdi
	callq	_mpfr_mul
	movl	%eax, %edi
	.loc	14 130 13
	callq	__ZN3rug3ext5xmpfr9ordering117hb8ceebb0eb23a9b3E
Ltmp214:
	.loc	14 131 10 is_stmt 1
	addq	$128, %rsp
	popq	%rbp
	retq
Ltmp215:
Lfunc_end45:
	.cfi_endproc

	.globl	__ZN3rug3ext5xmpfr3mul17hb8b021643b11977bE
	.p2align	4, 0x90
__ZN3rug3ext5xmpfr3mul17hb8b021643b11977bE:
Lfunc_begin46:
	.loc	14 122 0
	.cfi_startproc
	pushq	%rbp
	.cfi_def_cfa_offset 16
	.cfi_offset %rbp, -16
	movq	%rsp, %rbp
	.cfi_def_cfa_register %rbp
	subq	$144, %rsp
	movq	%rdx, -128(%rbp)
	movq	%rsi, -136(%rbp)
	movb	%cl, %al
	movb	%al, -113(%rbp)
	movq	%rdi, -88(%rbp)
	movq	%rsi, -80(%rbp)
	movq	%rdx, -72(%rbp)
	movb	%al, -57(%rbp)
Ltmp216:
	.loc	14 128 23 prologue_end
	callq	__ZN3rug5float3big5Float10as_raw_mut17h951c1089933b32c5E
	movq	-136(%rbp), %rdi
	movq	%rax, -112(%rbp)
	movq	%rax, -56(%rbp)
	movq	%rdi, -16(%rbp)
	movq	%rax, -8(%rbp)
Ltmp217:
	.loc	14 74 9
	callq	__ZN3rug5float3big5Float6as_raw17h7d2ff2b6d53de9c7E
	movq	-128(%rbp), %rdi
	movq	%rax, %rcx
	movq	-112(%rbp), %rax
	movq	%rcx, -104(%rbp)
Ltmp218:
	.loc	14 129 25
	movq	%rcx, -48(%rbp)
	movq	%rdi, -32(%rbp)
	movq	%rax, -24(%rbp)
Ltmp219:
	.loc	14 74 9
	callq	__ZN3rug5float3big5Float6as_raw17h7d2ff2b6d53de9c7E
	movq	%rax, %rcx
	movb	-113(%rbp), %al
	movq	%rcx, -96(%rbp)
Ltmp220:
	.loc	14 129 25
	movq	%rcx, -40(%rbp)
Ltmp221:
	.loc	14 130 72
	movzbl	%al, %edi
	callq	__ZN3rug3ext5xmpfr9raw_round17h2a757d98edcd2298E
	movq	-112(%rbp), %rdi
	movq	-104(%rbp), %rsi
	movq	-96(%rbp), %rdx
	movl	%eax, %ecx
	.loc	14 130 32 is_stmt 0
	callq	_mpfr_mul
	movl	%eax, %edi
	.loc	14 130 13
	callq	__ZN3rug3ext5xmpfr9ordering117hb8ceebb0eb23a9b3E
Ltmp222:
	.loc	14 131 10 is_stmt 1
	addq	$144, %rsp
	popq	%rbp
	retq
Ltmp223:
Lfunc_end46:
	.cfi_endproc

	.globl	__ZN3rug3ext5xmpfr3set17h256ed9c4666fd28dE
	.p2align	4, 0x90
__ZN3rug3ext5xmpfr3set17h256ed9c4666fd28dE:
Lfunc_begin47:
	.loc	14 122 0
	.cfi_startproc
	pushq	%rbp
	.cfi_def_cfa_offset 16
	.cfi_offset %rbp, -16
	movq	%rsp, %rbp
	.cfi_def_cfa_register %rbp
	subq	$96, %rsp
	movq	%rsi, -88(%rbp)
	movb	%dl, %al
	movb	%al, -73(%rbp)
	movq	%rdi, -56(%rbp)
	movq	%rsi, -48(%rbp)
	movb	%al, -33(%rbp)
Ltmp224:
	.loc	14 128 23 prologue_end
	callq	__ZN3rug5float3big5Float10as_raw_mut17h951c1089933b32c5E
	movq	-88(%rbp), %rdi
	movq	%rax, -72(%rbp)
	movq	%rax, -32(%rbp)
	movq	%rdi, -16(%rbp)
	movq	%rax, -8(%rbp)
Ltmp225:
	.loc	14 74 9
	callq	__ZN3rug5float3big5Float6as_raw17h7d2ff2b6d53de9c7E
	movq	%rax, %rcx
	movb	-73(%rbp), %al
	movq	%rcx, -64(%rbp)
Ltmp226:
	.loc	14 129 25
	movq	%rcx, -24(%rbp)
Ltmp227:
	.loc	14 130 72
	movzbl	%al, %edi
	callq	__ZN3rug3ext5xmpfr9raw_round17h2a757d98edcd2298E
	movq	-72(%rbp), %rdi
	movq	-64(%rbp), %rsi
	movl	%eax, %edx
	.loc	14 130 32 is_stmt 0
	callq	__ZN12gmp_mpfr_sys4mpfr3set17h907ddb470d85a2b3E
	movl	%eax, %edi
	.loc	14 130 13
	callq	__ZN3rug3ext5xmpfr9ordering117hb8ceebb0eb23a9b3E
Ltmp228:
	.loc	14 131 10 is_stmt 1
	addq	$96, %rsp
	popq	%rbp
	retq
Ltmp229:
Lfunc_end47:
	.cfi_endproc

	.globl	__ZN3rug3ext5xmpfr4fmms17h6d69493fe44f3f5eE
	.p2align	4, 0x90
__ZN3rug3ext5xmpfr4fmms17h6d69493fe44f3f5eE:
Lfunc_begin48:
	.loc	14 122 0
	.cfi_startproc
	pushq	%rbp
	.cfi_def_cfa_offset 16
	.cfi_offset %rbp, -16
	movq	%rsp, %rbp
	.cfi_def_cfa_register %rbp
	subq	$240, %rsp
	movq	%r8, -208(%rbp)
	movq	%rcx, -216(%rbp)
	movq	%rdx, -224(%rbp)
	movq	%rsi, -232(%rbp)
	movb	%r9b, %al
	movb	%al, -193(%rbp)
	movq	%rdi, -152(%rbp)
	movq	%rsi, -144(%rbp)
	movq	%rdx, -136(%rbp)
	movq	%rcx, -128(%rbp)
	movq	%r8, -120(%rbp)
	movb	%al, -105(%rbp)
Ltmp230:
	.loc	14 128 23 prologue_end
	callq	__ZN3rug5float3big5Float10as_raw_mut17h951c1089933b32c5E
	movq	-232(%rbp), %rdi
	movq	%rax, -192(%rbp)
	movq	%rax, -104(%rbp)
	movq	%rdi, -16(%rbp)
	movq	%rax, -8(%rbp)
Ltmp231:
	.loc	14 74 9
	callq	__ZN3rug5float3big5Float6as_raw17h7d2ff2b6d53de9c7E
	movq	-224(%rbp), %rdi
	movq	%rax, %rcx
	movq	-192(%rbp), %rax
	movq	%rcx, -184(%rbp)
Ltmp232:
	.loc	14 129 25
	movq	%rcx, -96(%rbp)
	movq	%rdi, -32(%rbp)
	movq	%rax, -24(%rbp)
Ltmp233:
	.loc	14 74 9
	callq	__ZN3rug5float3big5Float6as_raw17h7d2ff2b6d53de9c7E
	movq	-216(%rbp), %rdi
	movq	%rax, %rcx
	movq	-192(%rbp), %rax
	movq	%rcx, -176(%rbp)
Ltmp234:
	.loc	14 129 25
	movq	%rcx, -88(%rbp)
	movq	%rdi, -48(%rbp)
	movq	%rax, -40(%rbp)
Ltmp235:
	.loc	14 74 9
	callq	__ZN3rug5float3big5Float6as_raw17h7d2ff2b6d53de9c7E
	movq	-208(%rbp), %rdi
	movq	%rax, %rcx
	movq	-192(%rbp), %rax
	movq	%rcx, -168(%rbp)
Ltmp236:
	.loc	14 129 25
	movq	%rcx, -80(%rbp)
	movq	%rdi, -64(%rbp)
	movq	%rax, -56(%rbp)
Ltmp237:
	.loc	14 74 9
	callq	__ZN3rug5float3big5Float6as_raw17h7d2ff2b6d53de9c7E
	movq	%rax, %rcx
	movb	-193(%rbp), %al
	movq	%rcx, -160(%rbp)
Ltmp238:
	.loc	14 129 25
	movq	%rcx, -72(%rbp)
Ltmp239:
	.loc	14 130 72
	movzbl	%al, %edi
	callq	__ZN3rug3ext5xmpfr9raw_round17h2a757d98edcd2298E
	movq	-192(%rbp), %rdi
	movq	-184(%rbp), %rsi
	movq	-176(%rbp), %rdx
	movq	-168(%rbp), %rcx
	movq	-160(%rbp), %r8
	movl	%eax, %r9d
	.loc	14 130 32 is_stmt 0
	callq	_mpfr_fmms
	movl	%eax, %edi
	.loc	14 130 13
	callq	__ZN3rug3ext5xmpfr9ordering117hb8ceebb0eb23a9b3E
Ltmp240:
	.loc	14 131 10 is_stmt 1
	addq	$240, %rsp
	popq	%rbp
	retq
Ltmp241:
Lfunc_end48:
	.cfi_endproc

	.globl	__ZN3rug3ext5xmpfr4fmms17h8119f91c6f75c5a0E
	.p2align	4, 0x90
__ZN3rug3ext5xmpfr4fmms17h8119f91c6f75c5a0E:
Lfunc_begin49:
	.loc	14 122 0
	.cfi_startproc
	pushq	%rbp
	.cfi_def_cfa_offset 16
	.cfi_offset %rbp, -16
	movq	%rsp, %rbp
	.cfi_def_cfa_register %rbp
	subq	$224, %rsp
	movq	%rcx, -200(%rbp)
	movq	%rdx, -208(%rbp)
	movq	%rsi, -216(%rbp)
	movb	%r8b, %al
	movb	%al, -185(%rbp)
	movq	%rdi, -152(%rbp)
	movq	%rsi, -136(%rbp)
	movq	%rdx, -128(%rbp)
	movq	%rcx, -120(%rbp)
	movb	%al, -105(%rbp)
Ltmp242:
	.loc	14 128 23 prologue_end
	callq	__ZN3rug5float3big5Float10as_raw_mut17h951c1089933b32c5E
	movq	-216(%rbp), %rdi
	movq	%rax, -184(%rbp)
	movq	%rax, -104(%rbp)
	movq	%rax, -64(%rbp)
	movq	%rax, -56(%rbp)
Ltmp243:
	.loc	14 129 25
	movq	%rax, -96(%rbp)
	movq	%rdi, -16(%rbp)
	movq	%rax, -8(%rbp)
Ltmp244:
	.loc	14 74 9
	callq	__ZN3rug5float3big5Float6as_raw17h7d2ff2b6d53de9c7E
	movq	-208(%rbp), %rdi
	movq	%rax, %rcx
	movq	-184(%rbp), %rax
	movq	%rcx, -176(%rbp)
Ltmp245:
	.loc	14 129 25
	movq	%rcx, -88(%rbp)
	movq	%rdi, -32(%rbp)
	movq	%rax, -24(%rbp)
Ltmp246:
	.loc	14 74 9
	callq	__ZN3rug5float3big5Float6as_raw17h7d2ff2b6d53de9c7E
	movq	-200(%rbp), %rdi
	movq	%rax, %rcx
	movq	-184(%rbp), %rax
	movq	%rcx, -168(%rbp)
Ltmp247:
	.loc	14 129 25
	movq	%rcx, -80(%rbp)
	movq	%rdi, -48(%rbp)
	movq	%rax, -40(%rbp)
Ltmp248:
	.loc	14 74 9
	callq	__ZN3rug5float3big5Float6as_raw17h7d2ff2b6d53de9c7E
	movq	%rax, %rcx
	movb	-185(%rbp), %al
	movq	%rcx, -160(%rbp)
Ltmp249:
	.loc	14 129 25
	movq	%rcx, -72(%rbp)
Ltmp250:
	.loc	14 130 72
	movzbl	%al, %edi
	callq	__ZN3rug3ext5xmpfr9raw_round17h2a757d98edcd2298E
	movq	-184(%rbp), %rsi
	movq	-176(%rbp), %rdx
	movq	-168(%rbp), %rcx
	movq	-160(%rbp), %r8
	movl	%eax, %r9d
	.loc	14 130 32 is_stmt 0
	movq	%rsi, %rdi
	callq	_mpfr_fmms
	movl	%eax, %edi
	.loc	14 130 13
	callq	__ZN3rug3ext5xmpfr9ordering117hb8ceebb0eb23a9b3E
Ltmp251:
	.loc	14 131 10 is_stmt 1
	addq	$224, %rsp
	popq	%rbp
	retq
Ltmp252:
Lfunc_end49:
	.cfi_endproc

	.globl	__ZN3rug3ext5xmpfr5mul_d17h0838f618658e8c6dE
	.p2align	4, 0x90
__ZN3rug3ext5xmpfr5mul_d17h0838f618658e8c6dE:
Lfunc_begin50:
	.loc	14 122 0
	.cfi_startproc
	pushq	%rbp
	.cfi_def_cfa_offset 16
	.cfi_offset %rbp, -16
	movq	%rsp, %rbp
	.cfi_def_cfa_register %rbp
	subq	$96, %rsp
	movsd	%xmm0, -96(%rbp)
	movb	%sil, %al
	movb	%al, -81(%rbp)
	movq	%rdi, -64(%rbp)
	movsd	%xmm0, -48(%rbp)
	movb	%al, -33(%rbp)
Ltmp253:
	.loc	14 128 23 prologue_end
	callq	__ZN3rug5float3big5Float10as_raw_mut17h951c1089933b32c5E
	movsd	-96(%rbp), %xmm0
	movq	%rax, -80(%rbp)
	movq	%rax, -32(%rbp)
	movq	%rax, -16(%rbp)
	movq	%rax, -8(%rbp)
Ltmp254:
	.loc	14 129 25
	movq	%rax, -24(%rbp)
Ltmp255:
	.loc	14 130 55
	callq	__ZN50_$LT$T$u20$as$u20$core..convert..Into$LT$U$GT$$GT$4into17h33a78dff20e8f15eE
	movb	-81(%rbp), %al
	movsd	%xmm0, -72(%rbp)
	.loc	14 130 72 is_stmt 0
	movzbl	%al, %edi
	callq	__ZN3rug3ext5xmpfr9raw_round17h2a757d98edcd2298E
	movq	-80(%rbp), %rsi
	movsd	-72(%rbp), %xmm0
	movl	%eax, %edx
	.loc	14 130 32
	movq	%rsi, %rdi
	callq	_mpfr_mul_d
	movl	%eax, %edi
	.loc	14 130 13
	callq	__ZN3rug3ext5xmpfr9ordering117hb8ceebb0eb23a9b3E
Ltmp256:
	.loc	14 131 10 is_stmt 1
	addq	$96, %rsp
	popq	%rbp
	retq
Ltmp257:
Lfunc_end50:
	.cfi_endproc

	.p2align	4, 0x90
__ZN3rug3ext5xmpfr5nan_p17h88f313d9c91e98f2E:
Lfunc_begin51:
	.loc	14 820 0
	.cfi_startproc
	pushq	%rbp
	.cfi_def_cfa_offset 16
	.cfi_offset %rbp, -16
	movq	%rsp, %rbp
	.cfi_def_cfa_register %rbp
	subq	$16, %rsp
	movq	%rdi, -8(%rbp)
Ltmp258:
	.loc	14 821 27 prologue_end
	callq	__ZN3rug5float3big5Float6as_raw17h7d2ff2b6d53de9c7E
	movq	%rax, %rdi
	.loc	14 821 15 is_stmt 0
	callq	__ZN12gmp_mpfr_sys4mpfr5nan_p17h075691954b1b1c1aE
	.loc	14 821 5
	cmpl	$0, %eax
	setne	%al
	.loc	14 822 2 is_stmt 1
	andb	$1, %al
	movzbl	%al, %eax
	addq	$16, %rsp
	popq	%rbp
	retq
Ltmp259:
Lfunc_end51:
	.cfi_endproc

	.globl	__ZN3rug3ext5xmpfr5recip17h60b171dbc66a1835E
	.p2align	4, 0x90
__ZN3rug3ext5xmpfr5recip17h60b171dbc66a1835E:
Lfunc_begin52:
	.loc	14 215 0
	.cfi_startproc
	pushq	%rbp
	.cfi_def_cfa_offset 16
	.cfi_offset %rbp, -16
	movq	%rsp, %rbp
	.cfi_def_cfa_register %rbp
	subq	$64, %rsp
	movb	%sil, %al
	movb	%al, -57(%rbp)
	movq	%rdi, -48(%rbp)
	movb	%al, -33(%rbp)
Ltmp260:
	.loc	14 216 15 prologue_end
	callq	__ZN3rug5float3big5Float10as_raw_mut17h951c1089933b32c5E
	movq	%rax, %rcx
	movb	-57(%rbp), %al
	movq	%rcx, -56(%rbp)
	movq	%rcx, -32(%rbp)
	movq	%rcx, -16(%rbp)
	movq	%rcx, -8(%rbp)
Ltmp261:
	.loc	14 217 14
	movq	%rcx, -24(%rbp)
Ltmp262:
	.loc	14 218 49
	movzbl	%al, %edi
	callq	__ZN3rug3ext5xmpfr9raw_round17h2a757d98edcd2298E
	movq	-56(%rbp), %rdx
	movl	%eax, %ecx
	.loc	14 218 24 is_stmt 0
	movl	$1, %esi
	movq	%rdx, %rdi
	callq	_mpfr_ui_div
	movl	%eax, %edi
	.loc	14 218 5
	callq	__ZN3rug3ext5xmpfr9ordering117hb8ceebb0eb23a9b3E
Ltmp263:
	.loc	14 219 2 is_stmt 1
	addq	$64, %rsp
	popq	%rbp
	retq
Ltmp264:
Lfunc_end52:
	.cfi_endproc

	.globl	__ZN3rug3ext5xmpfr6mul_ui17hf03da6dba92d4549E
	.p2align	4, 0x90
__ZN3rug3ext5xmpfr6mul_ui17hf03da6dba92d4549E:
Lfunc_begin53:
	.loc	14 122 0
	.cfi_startproc
	pushq	%rbp
	.cfi_def_cfa_offset 16
	.cfi_offset %rbp, -16
	movq	%rsp, %rbp
	.cfi_def_cfa_register %rbp
	subq	$112, %rsp
	movq	%rdx, -104(%rbp)
	movq	%rsi, -112(%rbp)
	movb	%cl, %al
	movb	%al, -89(%rbp)
	movq	%rdi, -64(%rbp)
	movq	%rsi, -56(%rbp)
	movq	%rdx, -48(%rbp)
	movb	%al, -33(%rbp)
Ltmp265:
	.loc	14 128 23 prologue_end
	callq	__ZN3rug5float3big5Float10as_raw_mut17h951c1089933b32c5E
	movq	-112(%rbp), %rdi
	movq	%rax, -88(%rbp)
	movq	%rax, -32(%rbp)
	movq	%rdi, -16(%rbp)
	movq	%rax, -8(%rbp)
Ltmp266:
	.loc	14 74 9
	callq	__ZN3rug5float3big5Float6as_raw17h7d2ff2b6d53de9c7E
	movq	-104(%rbp), %rdi
	movq	%rax, -80(%rbp)
Ltmp267:
	.loc	14 129 25
	movq	%rax, -24(%rbp)
Ltmp268:
	.loc	14 130 55
	callq	__ZN50_$LT$T$u20$as$u20$core..convert..Into$LT$U$GT$$GT$4into17hdce0dd4a0259ae96E
	movq	%rax, %rcx
	movb	-89(%rbp), %al
	movq	%rcx, -72(%rbp)
	.loc	14 130 72 is_stmt 0
	movzbl	%al, %edi
	callq	__ZN3rug3ext5xmpfr9raw_round17h2a757d98edcd2298E
	movq	-88(%rbp), %rdi
	movq	-80(%rbp), %rsi
	movq	-72(%rbp), %rdx
	movl	%eax, %ecx
	.loc	14 130 32
	callq	_mpfr_mul_ui
	movl	%eax, %edi
	.loc	14 130 13
	callq	__ZN3rug3ext5xmpfr9ordering117hb8ceebb0eb23a9b3E
Ltmp269:
	.loc	14 131 10 is_stmt 1
	addq	$112, %rsp
	popq	%rbp
	retq
Ltmp270:
Lfunc_end53:
	.cfi_endproc

	.p2align	4, 0x90
__ZN3rug3ext5xmpfr6set_uj17hc94fc4bd9fe63e84E:
Lfunc_begin54:
	.loc	14 138 0
	.cfi_startproc
	pushq	%rbp
	.cfi_def_cfa_offset 16
	.cfi_offset %rbp, -16
	movq	%rsp, %rbp
	.cfi_def_cfa_register %rbp
	subq	$64, %rsp
	movq	%rsi, -56(%rbp)
	movb	%dl, %al
	movb	%al, -41(%rbp)
	movq	%rdi, -24(%rbp)
	movq	%rsi, -16(%rbp)
	movb	%al, -1(%rbp)
Ltmp271:
	.loc	14 139 39 prologue_end
	callq	__ZN3rug5float3big5Float10as_raw_mut17h951c1089933b32c5E
	movq	-56(%rbp), %rdi
	movq	%rax, -40(%rbp)
	.loc	14 139 59 is_stmt 0
	callq	__ZN50_$LT$T$u20$as$u20$core..convert..Into$LT$U$GT$$GT$4into17hdce0dd4a0259ae96E
	movq	%rax, %rcx
	movb	-41(%rbp), %al
	movq	%rcx, -32(%rbp)
	.loc	14 139 76
	movzbl	%al, %edi
	callq	__ZN3rug3ext5xmpfr9raw_round17h2a757d98edcd2298E
	movq	-40(%rbp), %rdi
	movq	-32(%rbp), %rsi
	movl	%eax, %edx
	.loc	14 139 32
	callq	___gmpfr_set_uj
	movl	%eax, %edi
	.loc	14 139 13
	callq	__ZN3rug3ext5xmpfr9ordering117hb8ceebb0eb23a9b3E
	.loc	14 140 10 is_stmt 1
	addq	$64, %rsp
	popq	%rbp
	retq
Ltmp272:
Lfunc_end54:
	.cfi_endproc

	.p2align	4, 0x90
__ZN3rug3ext5xmpfr7get_f6417ha6b04d5888b34271E:
Lfunc_begin55:
	.loc	14 658 0
	.cfi_startproc
	pushq	%rbp
	.cfi_def_cfa_offset 16
	.cfi_offset %rbp, -16
	movq	%rsp, %rbp
	.cfi_def_cfa_register %rbp
	subq	$32, %rsp
	movb	%sil, %al
	movb	%al, -25(%rbp)
	movq	%rdi, -16(%rbp)
	movb	%al, -1(%rbp)
Ltmp273:
	.loc	14 659 26 prologue_end
	callq	__ZN3rug5float3big5Float6as_raw17h7d2ff2b6d53de9c7E
	movq	%rax, %rcx
	movb	-25(%rbp), %al
	movq	%rcx, -24(%rbp)
	.loc	14 659 39 is_stmt 0
	movzbl	%al, %edi
	callq	__ZN3rug3ext5xmpfr9raw_round17h2a757d98edcd2298E
	movq	-24(%rbp), %rdi
	movl	%eax, %esi
	.loc	14 659 14
	callq	_mpfr_get_d
	.loc	14 660 2 is_stmt 1
	addq	$32, %rsp
	popq	%rbp
	retq
Ltmp274:
Lfunc_end55:
	.cfi_endproc

	.p2align	4, 0x90
__ZN3rug3ext5xmpfr7set_f6417h591bb7d6cb10f26eE:
Lfunc_begin56:
	.loc	14 138 0
	.cfi_startproc
	pushq	%rbp
	.cfi_def_cfa_offset 16
	.cfi_offset %rbp, -16
	movq	%rsp, %rbp
	.cfi_def_cfa_register %rbp
	subq	$64, %rsp
	movsd	%xmm0, -56(%rbp)
	movb	%sil, %al
	movb	%al, -41(%rbp)
	movq	%rdi, -24(%rbp)
	movsd	%xmm0, -16(%rbp)
	movb	%al, -1(%rbp)
Ltmp275:
	.loc	14 139 39 prologue_end
	callq	__ZN3rug5float3big5Float10as_raw_mut17h951c1089933b32c5E
	movsd	-56(%rbp), %xmm0
	movq	%rax, -40(%rbp)
	.loc	14 139 59 is_stmt 0
	callq	__ZN50_$LT$T$u20$as$u20$core..convert..Into$LT$U$GT$$GT$4into17h33a78dff20e8f15eE
	movb	-41(%rbp), %al
	movsd	%xmm0, -32(%rbp)
	.loc	14 139 76
	movzbl	%al, %edi
	callq	__ZN3rug3ext5xmpfr9raw_round17h2a757d98edcd2298E
	movq	-40(%rbp), %rdi
	movsd	-32(%rbp), %xmm0
	movl	%eax, %esi
	.loc	14 139 32
	callq	_mpfr_set_d
	movl	%eax, %edi
	.loc	14 139 13
	callq	__ZN3rug3ext5xmpfr9ordering117hb8ceebb0eb23a9b3E
	.loc	14 140 10 is_stmt 1
	addq	$64, %rsp
	popq	%rbp
	retq
Ltmp276:
Lfunc_end56:
	.cfi_endproc

	.p2align	4, 0x90
__ZN3rug3ext5xmpfr8get_prec17hd725980a24d20192E:
Lfunc_begin57:
	.loc	14 682 0
	.cfi_startproc
	pushq	%rbp
	.cfi_def_cfa_offset 16
	.cfi_offset %rbp, -16
	movq	%rsp, %rbp
	.cfi_def_cfa_register %rbp
	subq	$16, %rsp
	movq	%rdi, -8(%rbp)
Ltmp277:
	.loc	14 683 29 prologue_end
	callq	__ZN3rug5float3big5Float6as_raw17h7d2ff2b6d53de9c7E
	movq	%rax, %rdi
	.loc	14 683 14 is_stmt 0
	callq	__ZN12gmp_mpfr_sys4mpfr8get_prec17h3b8bc36cd723d7edE
	.loc	14 684 2 is_stmt 1
	addq	$16, %rsp
	popq	%rbp
	retq
Ltmp278:
Lfunc_end57:
	.cfi_endproc

	.p2align	4, 0x90
__ZN3rug3ext5xmpfr8number_p17ha4adfbf68e4df2feE:
Lfunc_begin58:
	.loc	14 830 0
	.cfi_startproc
	pushq	%rbp
	.cfi_def_cfa_offset 16
	.cfi_offset %rbp, -16
	movq	%rsp, %rbp
	.cfi_def_cfa_register %rbp
	subq	$16, %rsp
	movq	%rdi, -8(%rbp)
Ltmp279:
	.loc	14 831 30 prologue_end
	callq	__ZN3rug5float3big5Float6as_raw17h7d2ff2b6d53de9c7E
	movq	%rax, %rdi
	.loc	14 831 15 is_stmt 0
	callq	__ZN12gmp_mpfr_sys4mpfr8number_p17hba7369589d1bcdb0E
	.loc	14 831 5
	cmpl	$0, %eax
	setne	%al
	.loc	14 832 2 is_stmt 1
	andb	$1, %al
	movzbl	%al, %eax
	addq	$16, %rsp
	popq	%rbp
	retq
Ltmp280:
Lfunc_end58:
	.cfi_endproc

	.p2align	4, 0x90
__ZN3rug3ext5xmpfr9greater_p17h1d23f07e5582ee9fE:
Lfunc_begin59:
	.loc	14 805 0
	.cfi_startproc
	pushq	%rbp
	.cfi_def_cfa_offset 16
	.cfi_offset %rbp, -16
	movq	%rsp, %rbp
	.cfi_def_cfa_register %rbp
	subq	$32, %rsp
	movq	%rsi, -32(%rbp)
	movq	%rdi, -16(%rbp)
	movq	%rsi, -8(%rbp)
Ltmp281:
	.loc	14 806 31 prologue_end
	callq	__ZN3rug5float3big5Float6as_raw17h7d2ff2b6d53de9c7E
	movq	-32(%rbp), %rdi
	movq	%rax, -24(%rbp)
	.loc	14 806 45 is_stmt 0
	callq	__ZN3rug5float3big5Float6as_raw17h7d2ff2b6d53de9c7E
	movq	-24(%rbp), %rdi
	movq	%rax, %rsi
	.loc	14 806 15
	callq	_mpfr_greater_p
	.loc	14 806 5
	cmpl	$0, %eax
	setne	%al
	.loc	14 807 2 is_stmt 1
	andb	$1, %al
	movzbl	%al, %eax
	addq	$32, %rsp
	popq	%rbp
	retq
Ltmp282:
Lfunc_end59:
	.cfi_endproc

	.p2align	4, 0x90
__ZN3rug3ext5xmpfr9ordering117hb8ceebb0eb23a9b3E:
Lfunc_begin60:
	.loc	14 97 0
	.cfi_startproc
	pushq	%rbp
	.cfi_def_cfa_offset 16
	.cfi_offset %rbp, -16
	movq	%rsp, %rbp
	.cfi_def_cfa_register %rbp
	subq	$16, %rsp
	movl	%edi, -4(%rbp)
Ltmp283:
	.loc	14 98 5 prologue_end
	leaq	-4(%rbp), %rdi
	leaq	L___unnamed_20(%rip), %rsi
	callq	__ZN4core3cmp5impls48_$LT$impl$u20$core..cmp..Ord$u20$for$u20$i32$GT$3cmp17hd1313a78f8c7e8e4E
	.loc	14 99 2
	addq	$16, %rsp
	popq	%rbp
	retq
Ltmp284:
Lfunc_end60:
	.cfi_endproc

	.p2align	4, 0x90
__ZN3rug3ext5xmpfr9raw_round17h2a757d98edcd2298E:
Lfunc_begin61:
	.loc	14 86 0
	.cfi_startproc
	pushq	%rbp
	.cfi_def_cfa_offset 16
	.cfi_offset %rbp, -16
	movq	%rsp, %rbp
	.cfi_def_cfa_register %rbp
	subq	$16, %rsp
	movb	%dil, %al
	movb	%al, -5(%rbp)
Ltmp285:
	.loc	14 87 11 prologue_end
	movzbl	-5(%rbp), %eax
	movq	%rax, -16(%rbp)
	.loc	14 0 11 is_stmt 0
	movq	-16(%rbp), %rax
	leaq	LJTI61_0(%rip), %rcx
	movslq	(%rcx,%rax,4), %rax
	addq	%rcx, %rax
	jmpq	*%rax
	.loc	14 87 11
	ud2
LBB61_2:
	.loc	14 88 27 is_stmt 1
	movl	$0, -4(%rbp)
	jmp	LBB61_7
LBB61_3:
	.loc	14 89 24
	movl	$1, -4(%rbp)
	jmp	LBB61_7
LBB61_4:
	.loc	14 90 22
	movl	$2, -4(%rbp)
	jmp	LBB61_7
LBB61_5:
	.loc	14 91 24
	movl	$3, -4(%rbp)
	jmp	LBB61_7
LBB61_6:
	.loc	14 92 28
	movl	$4, -4(%rbp)
LBB61_7:
	.loc	14 94 2
	movl	-4(%rbp), %eax
	addq	$16, %rsp
	popq	%rbp
	retq
Ltmp286:
Lfunc_end61:
	.cfi_endproc
	.p2align	2, 0x90
	.data_region jt32
.set L61_0_set_2, LBB61_2-LJTI61_0
.set L61_0_set_3, LBB61_3-LJTI61_0
.set L61_0_set_4, LBB61_4-LJTI61_0
.set L61_0_set_5, LBB61_5-LJTI61_0
.set L61_0_set_6, LBB61_6-LJTI61_0
LJTI61_0:
	.long	L61_0_set_2
	.long	L61_0_set_3
	.long	L61_0_set_4
	.long	L61_0_set_5
	.long	L61_0_set_6
	.end_data_region

	.p2align	4, 0x90
__ZN3rug3ext6xmpz6411get_abs_u6417h77213dea88472cceE:
Lfunc_begin62:
	.file	15 "/Users/natalie/.cargo/registry/src/github.com-1ecc6299db9ec823/rug-1.19.0/src/ext" "xmpz64.rs"
	.loc	15 105 0
	.cfi_startproc
	pushq	%rbp
	.cfi_def_cfa_offset 16
	.cfi_offset %rbp, -16
	movq	%rsp, %rbp
	.cfi_def_cfa_register %rbp
	subq	$32, %rsp
	movq	%rdi, -24(%rbp)
	movq	%rdi, -8(%rbp)
Ltmp287:
	.loc	15 107 15 prologue_end
	callq	__ZN3rug7integer3big7Integer5inner17hd43f7a53d70f34d5E
	.loc	15 107 9 is_stmt 0
	cmpl	$0, 4(%rax)
	jne	LBB62_2
	.loc	15 108 18 is_stmt 1
	movq	$0, -16(%rbp)
	jmp	LBB62_3
LBB62_2:
	.loc	15 0 18 is_stmt 0
	movq	-24(%rbp), %rdi
	.loc	15 109 18 is_stmt 1
	xorl	%eax, %eax
	movl	%eax, %esi
	callq	__ZN3rug3ext4xmpz4limb17h17454b3972e4f1abE
	movq	%rax, -16(%rbp)
LBB62_3:
	.loc	15 112 2
	movq	-16(%rbp), %rax
	addq	$32, %rsp
	popq	%rbp
	retq
Ltmp288:
Lfunc_end62:
	.cfi_endproc

	.p2align	4, 0x90
__ZN3rug3ext6xmpz648fits_u6417h9b6d2ba9d7c4071bE:
Lfunc_begin63:
	.loc	15 231 0
	.cfi_startproc
	pushq	%rbp
	.cfi_def_cfa_offset 16
	.cfi_offset %rbp, -16
	movq	%rsp, %rbp
	.cfi_def_cfa_register %rbp
	subq	$16, %rsp
	movq	%rdi, -8(%rbp)
Ltmp289:
	.loc	15 232 14 prologue_end
	callq	__ZN3rug7integer3big7Integer5inner17hd43f7a53d70f34d5E
	.loc	15 232 5 is_stmt 0
	movl	4(%rax), %eax
	subl	$2, %eax
	jb	LBB63_2
	jmp	LBB63_1
LBB63_1:
	movb	$0, -9(%rbp)
	jmp	LBB63_3
LBB63_2:
	movb	$1, -9(%rbp)
LBB63_3:
	.loc	15 233 2 is_stmt 1
	movb	-9(%rbp), %al
	andb	$1, %al
	movzbl	%al, %eax
	addq	$16, %rsp
	popq	%rbp
	retq
Ltmp290:
Lfunc_end63:
	.cfi_endproc

	.globl	__ZN3rug3ops13CompleteRound8complete17h166a37c32206f5e9E
	.p2align	4, 0x90
__ZN3rug3ops13CompleteRound8complete17h166a37c32206f5e9E:
Lfunc_begin64:
	.file	16 "/Users/natalie/.cargo/registry/src/github.com-1ecc6299db9ec823/rug-1.19.0/src" "ops.rs"
	.loc	16 746 0
	.cfi_startproc
	.cfi_personality 155, _rust_eh_personality
	.cfi_lsda 16, Lexception2
	pushq	%rbp
	.cfi_def_cfa_offset 16
	.cfi_offset %rbp, -16
	movq	%rsp, %rbp
	.cfi_def_cfa_register %rbp
	subq	$144, %rsp
	movl	%ecx, -132(%rbp)
	movq	%rdx, -128(%rbp)
	movq	%rsi, -120(%rbp)
	movq	%rdi, -112(%rbp)
	movq	%rdi, -104(%rbp)
	movq	%rsi, -40(%rbp)
	movq	%rdx, -32(%rbp)
	movl	%ecx, -20(%rbp)
Ltmp296:
	.loc	16 751 9 prologue_end
	movb	$0, -41(%rbp)
	movb	$0, -42(%rbp)
	movb	$1, -41(%rbp)
	.loc	16 751 29 is_stmt 0
	movb	$1, -42(%rbp)
Ltmp291:
	.loc	16 751 35
	callq	__ZN60_$LT$rug..float..Round$u20$as$u20$core..default..Default$GT$7default17hb1e36f4e3b50e2f5E
Ltmp292:
	movb	%al, -89(%rbp)
	jmp	LBB64_3
LBB64_1:
	.loc	16 751 57
	testb	$1, -42(%rbp)
	jne	LBB64_6
	jmp	LBB64_5
LBB64_2:
Ltmp295:
	.loc	16 0 57
	movq	%rax, %rcx
	movl	%edx, %eax
	movq	%rcx, -16(%rbp)
	movl	%eax, -8(%rbp)
	jmp	LBB64_1
LBB64_3:
	movl	-132(%rbp), %ecx
	movq	-128(%rbp), %rdx
	movq	-120(%rbp), %rsi
	movb	-89(%rbp), %al
	.loc	16 751 9
	movb	$0, -41(%rbp)
	movb	$0, -42(%rbp)
Ltmp293:
	movzbl	%al, %r8d
	leaq	-88(%rbp), %rdi
	callq	__ZN81_$LT$rug..float..arith..MulUsizeIncomplete$u20$as$u20$rug..ops..CompleteRound$GT$14complete_round17haf1916a0dd511475E
Ltmp294:
	jmp	LBB64_4
LBB64_4:
	.loc	16 0 9
	movq	-104(%rbp), %rax
	movq	-112(%rbp), %rcx
	.loc	16 751 57
	movb	$0, -42(%rbp)
	movb	$0, -41(%rbp)
	.loc	16 751 9
	movq	-88(%rbp), %rdx
	movq	%rdx, (%rcx)
	movq	-80(%rbp), %rdx
	movq	%rdx, 8(%rcx)
	movq	-72(%rbp), %rdx
	movq	%rdx, 16(%rcx)
	movq	-64(%rbp), %rdx
	movq	%rdx, 24(%rcx)
	.loc	16 752 6 is_stmt 1
	addq	$144, %rsp
	popq	%rbp
	retq
LBB64_5:
	.loc	16 751 57
	testb	$1, -41(%rbp)
	jne	LBB64_8
	jmp	LBB64_7
LBB64_6:
	jmp	LBB64_5
LBB64_7:
	.loc	16 746 5
	movq	-16(%rbp), %rdi
	callq	__Unwind_Resume
LBB64_8:
	.loc	16 751 57
	jmp	LBB64_7
Ltmp297:
Lfunc_end64:
	.cfi_endproc
	.section	__TEXT,__gcc_except_tab
	.p2align	2
GCC_except_table64:
Lexception2:
	.byte	255
	.byte	255
	.byte	1
	.uleb128 Lcst_end2-Lcst_begin2
Lcst_begin2:
	.uleb128 Ltmp291-Lfunc_begin64
	.uleb128 Ltmp294-Ltmp291
	.uleb128 Ltmp295-Lfunc_begin64
	.byte	0
	.uleb128 Ltmp294-Lfunc_begin64
	.uleb128 Lfunc_end64-Ltmp294
	.byte	0
	.byte	0
Lcst_end2:
	.p2align	2

	.section	__TEXT,__text,regular,pure_instructions
	.globl	__ZN3rug3ops13CompleteRound8complete17h69fe19e3effea851E
	.p2align	4, 0x90
__ZN3rug3ops13CompleteRound8complete17h69fe19e3effea851E:
Lfunc_begin65:
	.loc	16 746 0
	.cfi_startproc
	.cfi_personality 155, _rust_eh_personality
	.cfi_lsda 16, Lexception3
	pushq	%rbp
	.cfi_def_cfa_offset 16
	.cfi_offset %rbp, -16
	movq	%rsp, %rbp
	.cfi_def_cfa_register %rbp
	subq	$144, %rsp
	movl	%ecx, -132(%rbp)
	movq	%rdx, -128(%rbp)
	movq	%rsi, -120(%rbp)
	movq	%rdi, -112(%rbp)
	movq	%rdi, -104(%rbp)
	movq	%rsi, -40(%rbp)
	movq	%rdx, -32(%rbp)
	movl	%ecx, -20(%rbp)
Ltmp303:
	.loc	16 751 9 prologue_end
	movb	$0, -41(%rbp)
	movb	$0, -42(%rbp)
	movb	$1, -41(%rbp)
	.loc	16 751 29 is_stmt 0
	movb	$1, -42(%rbp)
Ltmp298:
	.loc	16 751 35
	callq	__ZN60_$LT$rug..float..Round$u20$as$u20$core..default..Default$GT$7default17hb1e36f4e3b50e2f5E
Ltmp299:
	movb	%al, -89(%rbp)
	jmp	LBB65_3
LBB65_1:
	.loc	16 751 57
	testb	$1, -42(%rbp)
	jne	LBB65_6
	jmp	LBB65_5
LBB65_2:
Ltmp302:
	.loc	16 0 57
	movq	%rax, %rcx
	movl	%edx, %eax
	movq	%rcx, -16(%rbp)
	movl	%eax, -8(%rbp)
	jmp	LBB65_1
LBB65_3:
	movl	-132(%rbp), %ecx
	movq	-128(%rbp), %rdx
	movq	-120(%rbp), %rsi
	movb	-89(%rbp), %al
	.loc	16 751 9
	movb	$0, -41(%rbp)
	movb	$0, -42(%rbp)
Ltmp300:
	movzbl	%al, %r8d
	leaq	-88(%rbp), %rdi
	callq	__ZN76_$LT$rug..float..arith..MulIncomplete$u20$as$u20$rug..ops..CompleteRound$GT$14complete_round17h40c3d345412b983fE
Ltmp301:
	jmp	LBB65_4
LBB65_4:
	.loc	16 0 9
	movq	-104(%rbp), %rax
	movq	-112(%rbp), %rcx
	.loc	16 751 57
	movb	$0, -42(%rbp)
	movb	$0, -41(%rbp)
	.loc	16 751 9
	movq	-88(%rbp), %rdx
	movq	%rdx, (%rcx)
	movq	-80(%rbp), %rdx
	movq	%rdx, 8(%rcx)
	movq	-72(%rbp), %rdx
	movq	%rdx, 16(%rcx)
	movq	-64(%rbp), %rdx
	movq	%rdx, 24(%rcx)
	.loc	16 752 6 is_stmt 1
	addq	$144, %rsp
	popq	%rbp
	retq
LBB65_5:
	.loc	16 751 57
	testb	$1, -41(%rbp)
	jne	LBB65_8
	jmp	LBB65_7
LBB65_6:
	jmp	LBB65_5
LBB65_7:
	.loc	16 746 5
	movq	-16(%rbp), %rdi
	callq	__Unwind_Resume
LBB65_8:
	.loc	16 751 57
	jmp	LBB65_7
Ltmp304:
Lfunc_end65:
	.cfi_endproc
	.section	__TEXT,__gcc_except_tab
	.p2align	2
GCC_except_table65:
Lexception3:
	.byte	255
	.byte	255
	.byte	1
	.uleb128 Lcst_end3-Lcst_begin3
Lcst_begin3:
	.uleb128 Ltmp298-Lfunc_begin65
	.uleb128 Ltmp301-Ltmp298
	.uleb128 Ltmp302-Lfunc_begin65
	.byte	0
	.uleb128 Ltmp301-Lfunc_begin65
	.uleb128 Lfunc_end65-Ltmp301
	.byte	0
	.byte	0
Lcst_end3:
	.p2align	2

	.section	__TEXT,__text,regular,pure_instructions
	.p2align	4, 0x90
__ZN3rug5float3big5Float10as_raw_mut17h951c1089933b32c5E:
Lfunc_begin66:
	.file	17 "/Users/natalie/.cargo/registry/src/github.com-1ecc6299db9ec823/rug-1.19.0/src/float" "big.rs"
	.loc	17 598 0
	.cfi_startproc
	pushq	%rbp
	.cfi_def_cfa_offset 16
	.cfi_offset %rbp, -16
	movq	%rsp, %rbp
	.cfi_def_cfa_register %rbp
	pushq	%rax
	movq	%rdi, %rax
	movq	%rax, -8(%rbp)
Ltmp305:
	.loc	17 600 6 prologue_end
	addq	$8, %rsp
	popq	%rbp
	retq
Ltmp306:
Lfunc_end66:
	.cfi_endproc

	.p2align	4, 0x90
__ZN3rug5float3big5Float10to_integer17hff4ff1f3f402fa2bE:
Lfunc_begin67:
	.loc	17 737 0
	.cfi_startproc
	pushq	%rbp
	.cfi_def_cfa_offset 16
	.cfi_offset %rbp, -16
	movq	%rsp, %rbp
	.cfi_def_cfa_register %rbp
	subq	$16, %rsp
	movq	%rdi, %rax
	movq	%rax, -16(%rbp)
	movq	%rsi, -8(%rbp)
Ltmp307:
	.loc	17 738 9 prologue_end
	callq	__ZN3rug5float5casts106_$LT$impl$u20$az..CheckedCast$LT$rug..integer..big..Integer$GT$$u20$for$u20$$RF$rug..float..big..Float$GT$12checked_cast17h84ee7f2d48947f66E
	movq	-16(%rbp), %rax
	.loc	17 739 6
	addq	$16, %rsp
	popq	%rbp
	retq
Ltmp308:
Lfunc_end67:
	.cfi_endproc

	.p2align	4, 0x90
__ZN3rug5float3big5Float11mul_add_ref17h49b680a9fa015bceE:
Lfunc_begin68:
	.loc	17 2648 0
	.cfi_startproc
	pushq	%rbp
	.cfi_def_cfa_offset 16
	.cfi_offset %rbp, -16
	movq	%rsp, %rbp
	.cfi_def_cfa_register %rbp
	subq	$64, %rsp
	movq	%rcx, -40(%rbp)
	movq	%rdx, -64(%rbp)
	movq	%rsi, %rax
	movq	-64(%rbp), %rsi
	movq	%rax, -56(%rbp)
	movq	%rdi, %rax
	movq	-56(%rbp), %rdi
	movq	%rax, -48(%rbp)
	movq	%rax, -32(%rbp)
	movq	%rdi, -24(%rbp)
	movq	%rsi, -16(%rbp)
	movq	%rcx, -8(%rbp)
Ltmp309:
	.loc	17 2649 9 prologue_end
	callq	__ZN3rug5float5arith78_$LT$impl$u20$core..ops..arith..Mul$u20$for$u20$$RF$rug..float..big..Float$GT$3mul17hf16f6bc5f10bc895E
	movq	-48(%rbp), %rdi
	movq	-40(%rbp), %rcx
	movq	%rax, %rsi
	callq	__ZN108_$LT$rug..float..arith..MulIncomplete$u20$as$u20$core..ops..arith..Add$LT$$RF$rug..float..big..Float$GT$$GT$3add17h5acbb493d3b7cc6bE
	movq	-32(%rbp), %rax
	.loc	17 2650 6
	addq	$64, %rsp
	popq	%rbp
	retq
Ltmp310:
Lfunc_end68:
	.cfi_endproc

	.p2align	4, 0x90
__ZN3rug5float3big5Float11mul_sub_mul17he4f70d0c54cc7cf7E:
Lfunc_begin69:
	.loc	17 2910 0
	.cfi_startproc
	.cfi_personality 155, _rust_eh_personality
	.cfi_lsda 16, Lexception4
	pushq	%rbp
	.cfi_def_cfa_offset 16
	.cfi_offset %rbp, -16
	movq	%rsp, %rbp
	.cfi_def_cfa_register %rbp
	subq	$96, %rsp
	movq	%r8, -96(%rbp)
	movq	%rcx, %rax
	movq	-96(%rbp), %rcx
	movq	%rax, -88(%rbp)
	movq	%rdx, %rax
	movq	-88(%rbp), %rdx
	movq	%rax, -80(%rbp)
	movq	%rsi, %rax
	movq	-80(%rbp), %rsi
	movq	%rax, -72(%rbp)
Ltmp317:
	movq	%rdi, %rax
	movq	-72(%rbp), %rdi
	movq	%rax, -64(%rbp)
	movq	%rax, -56(%rbp)
	movq	%rsi, -40(%rbp)
	movq	%rdx, -32(%rbp)
	movq	%rcx, -24(%rbp)
Ltmp318:
	.loc	17 2911 57 prologue_end
	movb	$0, -41(%rbp)
	.loc	17 2911 9 is_stmt 0
	movzbl	-41(%rbp), %r8d
Ltmp311:
	callq	__ZN3rug5float3big5Float17mul_sub_mul_round17h963f0e5fefda7bfeE
Ltmp312:
	jmp	LBB69_3
Ltmp319:
LBB69_1:
Ltmp314:
	.loc	17 0 9
	movq	-72(%rbp), %rdi
	.loc	17 2913 5 is_stmt 1
	callq	__ZN4core3ptr43drop_in_place$LT$rug..float..big..Float$GT$17he0bd4893918cadc0E
Ltmp315:
	jmp	LBB69_5
Ltmp320:
LBB69_2:
Ltmp313:
	.loc	17 0 5 is_stmt 0
	movq	%rax, %rcx
	movl	%edx, %eax
	movq	%rcx, -16(%rbp)
	movl	%eax, -8(%rbp)
	jmp	LBB69_1
Ltmp321:
LBB69_3:
	movq	-56(%rbp), %rax
	movq	-64(%rbp), %rcx
	movq	-72(%rbp), %rdx
	.loc	17 2912 9 is_stmt 1
	movq	(%rdx), %rsi
	movq	%rsi, (%rcx)
	movq	8(%rdx), %rsi
	movq	%rsi, 8(%rcx)
	movq	16(%rdx), %rsi
	movq	%rsi, 16(%rcx)
	movq	24(%rdx), %rdx
	movq	%rdx, 24(%rcx)
	.loc	17 2913 6
	addq	$96, %rsp
	popq	%rbp
	retq
Ltmp322:
LBB69_4:
Ltmp316:
	.loc	17 2910 5
	callq	__ZN4core9panicking19panic_cannot_unwind17h1fbca7e1d7f56ae1E
Ltmp323:
LBB69_5:
	movq	-16(%rbp), %rdi
	callq	__Unwind_Resume
Ltmp324:
Lfunc_end69:
	.cfi_endproc
	.section	__TEXT,__gcc_except_tab
	.p2align	2
GCC_except_table69:
Lexception4:
	.byte	255
	.byte	255
	.byte	1
	.uleb128 Lcst_end4-Lcst_begin4
Lcst_begin4:
	.uleb128 Ltmp311-Lfunc_begin69
	.uleb128 Ltmp312-Ltmp311
	.uleb128 Ltmp313-Lfunc_begin69
	.byte	0
	.uleb128 Ltmp314-Lfunc_begin69
	.uleb128 Ltmp315-Ltmp314
	.uleb128 Ltmp316-Lfunc_begin69
	.byte	0
	.uleb128 Ltmp315-Lfunc_begin69
	.uleb128 Lfunc_end69-Ltmp315
	.byte	0
	.byte	0
Lcst_end4:
	.p2align	2

	.section	__TEXT,__text,regular,pure_instructions
	.p2align	4, 0x90
__ZN3rug5float3big5Float11recip_round17h9aaad8d0e687dce3E:
Lfunc_begin70:
	.loc	17 4016 0
	.cfi_startproc
	pushq	%rbp
	.cfi_def_cfa_offset 16
	.cfi_offset %rbp, -16
	movq	%rsp, %rbp
	.cfi_def_cfa_register %rbp
	subq	$16, %rsp
	movb	%sil, %al
	movq	%rdi, -16(%rbp)
	movb	%al, -1(%rbp)
Ltmp325:
	.loc	17 4017 9 prologue_end
	movzbl	%al, %esi
	callq	__ZN3rug3ext5xmpfr5recip17h60b171dbc66a1835E
	.loc	17 4018 6
	addq	$16, %rsp
	popq	%rbp
	retq
Ltmp326:
Lfunc_end70:
	.cfi_endproc

	.p2align	4, 0x90
__ZN3rug5float3big5Float12to_f64_round17hf85db58f867841b8E:
Lfunc_begin71:
	.loc	17 1027 0
	.cfi_startproc
	pushq	%rbp
	.cfi_def_cfa_offset 16
	.cfi_offset %rbp, -16
	movq	%rsp, %rbp
	.cfi_def_cfa_register %rbp
	subq	$16, %rsp
	movb	%sil, %al
	movq	%rdi, -16(%rbp)
	movb	%al, -1(%rbp)
Ltmp327:
	.loc	17 1028 9 prologue_end
	movzbl	%al, %esi
	callq	__ZN3rug3ext5xmpfr7get_f6417ha6b04d5888b34271E
	.loc	17 1029 6
	addq	$16, %rsp
	popq	%rbp
	retq
Ltmp328:
Lfunc_end71:
	.cfi_endproc

	.p2align	4, 0x90
__ZN3rug5float3big5Float14set_prec_round17h1f6e2f63f5305188E:
Lfunc_begin72:
	.loc	17 455 0
	.cfi_startproc
	pushq	%rbp
	.cfi_def_cfa_offset 16
	.cfi_offset %rbp, -16
	movq	%rsp, %rbp
	.cfi_def_cfa_register %rbp
	subq	$96, %rsp
	movl	%esi, -72(%rbp)
	movq	%rdi, -88(%rbp)
	movb	%dl, %al
	movb	%al, -73(%rbp)
	movq	%rdi, -16(%rbp)
	movl	%esi, -8(%rbp)
	movb	%al, -1(%rbp)
Ltmp329:
	.loc	17 457 21 prologue_end
	callq	__ZN3rug5float8prec_min17hf92a84df0d2ceeb7E
	movl	-72(%rbp), %esi
	.loc	17 457 13 is_stmt 0
	cmpl	%eax, %esi
	jae	LBB72_2
	movb	$0, -65(%rbp)
	jmp	LBB72_3
LBB72_2:
	.loc	17 457 50
	callq	__ZN3rug5float8prec_max17had8abec44d71959dE
	movl	%eax, %ecx
	movl	-72(%rbp), %eax
	.loc	17 457 42
	cmpl	%ecx, %eax
	setbe	%al
	.loc	17 457 13
	andb	$1, %al
	movb	%al, -65(%rbp)
LBB72_3:
	.loc	17 456 9 is_stmt 1
	movb	-65(%rbp), %al
	xorb	$-1, %al
	testb	$1, %al
	jne	LBB72_5
	.loc	17 0 9 is_stmt 0
	movl	-72(%rbp), %edi
	.loc	17 460 33 is_stmt 1
	leaq	l___unnamed_22(%rip), %rsi
	callq	__ZN2az3int62_$LT$impl$u20$az..UnwrappedCast$LT$i64$GT$$u20$for$u20$u32$GT$14unwrapped_cast17h8b5df7921bfbc8efE
	movq	-88(%rbp), %rdi
	movq	%rax, %rsi
	movb	-73(%rbp), %al
	.loc	17 460 9 is_stmt 0
	movzbl	%al, %edx
	callq	__ZN3rug3ext5xmpfr10prec_round17h3d61969b4d1cb2f2E
	.loc	17 461 6 is_stmt 1
	addq	$96, %rsp
	popq	%rbp
	retq
LBB72_5:
	.loc	17 456 9
	leaq	l___unnamed_23(%rip), %rsi
	leaq	l___unnamed_24(%rip), %rcx
	xorl	%eax, %eax
	movl	%eax, %r8d
	leaq	-64(%rbp), %rdi
	movq	%rdi, -96(%rbp)
	movl	$1, %edx
	callq	__ZN4core3fmt9Arguments6new_v117hda9832b152653402E
	movq	-96(%rbp), %rdi
	leaq	l___unnamed_25(%rip), %rsi
	callq	__ZN4core9panicking9panic_fmt17h9b5d807e24bcaaedE
Ltmp330:
Lfunc_end72:
	.cfi_endproc

	.globl	__ZN3rug5float3big5Float14with_val_round17h7cf31e40db92bd22E
	.p2align	4, 0x90
__ZN3rug5float3big5Float14with_val_round17h7cf31e40db92bd22E:
Lfunc_begin73:
	.loc	17 372 0
	.cfi_startproc
	.cfi_personality 155, _rust_eh_personality
	.cfi_lsda 16, Lexception5
	pushq	%rbp
	.cfi_def_cfa_offset 16
	.cfi_offset %rbp, -16
	movq	%rsp, %rbp
	.cfi_def_cfa_register %rbp
	subq	$176, %rsp
	movq	%rcx, -160(%rbp)
	movq	%rdx, -152(%rbp)
	movq	%rdi, -144(%rbp)
	movb	%r8b, %al
	movb	%al, -129(%rbp)
	movq	%rdi, -128(%rbp)
	movl	%esi, -52(%rbp)
	movq	%rdx, -48(%rbp)
	movq	%rcx, -40(%rbp)
	movb	%al, -25(%rbp)
Ltmp340:
	.loc	17 376 13 prologue_end
	movb	$0, -53(%rbp)
	movb	$1, -53(%rbp)
Ltmp331:
	leaq	-120(%rbp), %rdi
	.loc	17 376 23 is_stmt 0
	callq	__ZN3rug5float3big5Float7new_nan17h59b2e74e5131f901E
Ltmp332:
	jmp	LBB73_3
LBB73_1:
	.loc	17 379 5 is_stmt 1
	testb	$1, -53(%rbp)
	jne	LBB73_9
	jmp	LBB73_8
LBB73_2:
Ltmp333:
	.loc	17 0 5 is_stmt 0
	movq	%rax, %rcx
	movl	%edx, %eax
	movq	%rcx, -24(%rbp)
	movl	%eax, -16(%rbp)
	jmp	LBB73_1
LBB73_3:
	movq	-160(%rbp), %rdx
	movq	-152(%rbp), %rsi
	movb	-129(%rbp), %al
Ltmp341:
	.loc	17 377 36 is_stmt 1
	movb	$0, -53(%rbp)
Ltmp334:
	.loc	17 377 19 is_stmt 0
	movzbl	%al, %ecx
	leaq	-120(%rbp), %rdi
	callq	__ZN3rug5float5arith114_$LT$impl$u20$rug..ops..AssignRound$LT$rug..float..arith..MulIncomplete$GT$$u20$for$u20$rug..float..big..Float$GT$12assign_round17hffcf0ccaf85cad11E
Ltmp335:
	movb	%al, -161(%rbp)
	jmp	LBB73_6
Ltmp342:
LBB73_4:
Ltmp337:
	.loc	17 0 19
	leaq	-120(%rbp), %rdi
	.loc	17 379 5 is_stmt 1
	callq	__ZN4core3ptr43drop_in_place$LT$rug..float..big..Float$GT$17he0bd4893918cadc0E
Ltmp338:
	jmp	LBB73_1
LBB73_5:
Ltmp336:
	.loc	17 0 5 is_stmt 0
	movq	%rax, %rcx
	movl	%edx, %eax
	movq	%rcx, -24(%rbp)
	movl	%eax, -16(%rbp)
	jmp	LBB73_4
LBB73_6:
	movq	-128(%rbp), %rax
	movq	-144(%rbp), %rcx
	movb	-161(%rbp), %dl
Ltmp343:
	.loc	17 377 19 is_stmt 1
	movb	%dl, -1(%rbp)
Ltmp344:
	.loc	17 378 10
	movq	-120(%rbp), %rsi
	movq	%rsi, -88(%rbp)
	movq	-112(%rbp), %rsi
	movq	%rsi, -80(%rbp)
	movq	-104(%rbp), %rsi
	movq	%rsi, -72(%rbp)
	movq	-96(%rbp), %rsi
	movq	%rsi, -64(%rbp)
	.loc	17 378 9 is_stmt 0
	movq	-88(%rbp), %rsi
	movq	%rsi, (%rcx)
	movq	-80(%rbp), %rsi
	movq	%rsi, 8(%rcx)
	movq	-72(%rbp), %rsi
	movq	%rsi, 16(%rcx)
	movq	-64(%rbp), %rsi
	movq	%rsi, 24(%rcx)
	movb	%dl, 32(%rcx)
Ltmp345:
	.loc	17 379 6 is_stmt 1
	addq	$176, %rsp
	popq	%rbp
	retq
LBB73_7:
Ltmp339:
	.loc	17 372 5
	callq	__ZN4core9panicking19panic_cannot_unwind17h1fbca7e1d7f56ae1E
LBB73_8:
	movq	-24(%rbp), %rdi
	callq	__Unwind_Resume
LBB73_9:
	.loc	17 379 5
	jmp	LBB73_8
Ltmp346:
Lfunc_end73:
	.cfi_endproc
	.section	__TEXT,__gcc_except_tab
	.p2align	2
GCC_except_table73:
Lexception5:
	.byte	255
	.byte	255
	.byte	1
	.uleb128 Lcst_end5-Lcst_begin5
Lcst_begin5:
	.uleb128 Ltmp331-Lfunc_begin73
	.uleb128 Ltmp332-Ltmp331
	.uleb128 Ltmp333-Lfunc_begin73
	.byte	0
	.uleb128 Ltmp334-Lfunc_begin73
	.uleb128 Ltmp335-Ltmp334
	.uleb128 Ltmp336-Lfunc_begin73
	.byte	0
	.uleb128 Ltmp337-Lfunc_begin73
	.uleb128 Ltmp338-Ltmp337
	.uleb128 Ltmp339-Lfunc_begin73
	.byte	0
	.uleb128 Ltmp338-Lfunc_begin73
	.uleb128 Lfunc_end73-Ltmp338
	.byte	0
	.byte	0
Lcst_end5:
	.p2align	2

	.section	__TEXT,__text,regular,pure_instructions
	.globl	__ZN3rug5float3big5Float14with_val_round17hf92f7726ce639d50E
	.p2align	4, 0x90
__ZN3rug5float3big5Float14with_val_round17hf92f7726ce639d50E:
Lfunc_begin74:
	.loc	17 372 0
	.cfi_startproc
	.cfi_personality 155, _rust_eh_personality
	.cfi_lsda 16, Lexception6
	pushq	%rbp
	.cfi_def_cfa_offset 16
	.cfi_offset %rbp, -16
	movq	%rsp, %rbp
	.cfi_def_cfa_register %rbp
	subq	$176, %rsp
	movq	%rcx, -160(%rbp)
	movq	%rdx, -152(%rbp)
	movq	%rdi, -144(%rbp)
	movb	%r8b, %al
	movb	%al, -129(%rbp)
	movq	%rdi, -128(%rbp)
	movl	%esi, -52(%rbp)
	movq	%rdx, -48(%rbp)
	movq	%rcx, -40(%rbp)
	movb	%al, -25(%rbp)
Ltmp356:
	.loc	17 376 13 prologue_end
	movb	$0, -53(%rbp)
	movb	$1, -53(%rbp)
Ltmp347:
	leaq	-120(%rbp), %rdi
	.loc	17 376 23 is_stmt 0
	callq	__ZN3rug5float3big5Float7new_nan17h59b2e74e5131f901E
Ltmp348:
	jmp	LBB74_3
LBB74_1:
	.loc	17 379 5 is_stmt 1
	testb	$1, -53(%rbp)
	jne	LBB74_9
	jmp	LBB74_8
LBB74_2:
Ltmp349:
	.loc	17 0 5 is_stmt 0
	movq	%rax, %rcx
	movl	%edx, %eax
	movq	%rcx, -24(%rbp)
	movl	%eax, -16(%rbp)
	jmp	LBB74_1
LBB74_3:
	movq	-160(%rbp), %rdx
	movq	-152(%rbp), %rsi
	movb	-129(%rbp), %al
Ltmp357:
	.loc	17 377 36 is_stmt 1
	movb	$0, -53(%rbp)
Ltmp350:
	.loc	17 377 19 is_stmt 0
	movzbl	%al, %ecx
	leaq	-120(%rbp), %rdi
	callq	__ZN3rug5float5arith119_$LT$impl$u20$rug..ops..AssignRound$LT$rug..float..arith..MulUsizeIncomplete$GT$$u20$for$u20$rug..float..big..Float$GT$12assign_round17h155f0f12ef27b6e5E
Ltmp351:
	movb	%al, -161(%rbp)
	jmp	LBB74_6
Ltmp358:
LBB74_4:
Ltmp353:
	.loc	17 0 19
	leaq	-120(%rbp), %rdi
	.loc	17 379 5 is_stmt 1
	callq	__ZN4core3ptr43drop_in_place$LT$rug..float..big..Float$GT$17he0bd4893918cadc0E
Ltmp354:
	jmp	LBB74_1
LBB74_5:
Ltmp352:
	.loc	17 0 5 is_stmt 0
	movq	%rax, %rcx
	movl	%edx, %eax
	movq	%rcx, -24(%rbp)
	movl	%eax, -16(%rbp)
	jmp	LBB74_4
LBB74_6:
	movq	-128(%rbp), %rax
	movq	-144(%rbp), %rcx
	movb	-161(%rbp), %dl
Ltmp359:
	.loc	17 377 19 is_stmt 1
	movb	%dl, -1(%rbp)
Ltmp360:
	.loc	17 378 10
	movq	-120(%rbp), %rsi
	movq	%rsi, -88(%rbp)
	movq	-112(%rbp), %rsi
	movq	%rsi, -80(%rbp)
	movq	-104(%rbp), %rsi
	movq	%rsi, -72(%rbp)
	movq	-96(%rbp), %rsi
	movq	%rsi, -64(%rbp)
	.loc	17 378 9 is_stmt 0
	movq	-88(%rbp), %rsi
	movq	%rsi, (%rcx)
	movq	-80(%rbp), %rsi
	movq	%rsi, 8(%rcx)
	movq	-72(%rbp), %rsi
	movq	%rsi, 16(%rcx)
	movq	-64(%rbp), %rsi
	movq	%rsi, 24(%rcx)
	movb	%dl, 32(%rcx)
Ltmp361:
	.loc	17 379 6 is_stmt 1
	addq	$176, %rsp
	popq	%rbp
	retq
LBB74_7:
Ltmp355:
	.loc	17 372 5
	callq	__ZN4core9panicking19panic_cannot_unwind17h1fbca7e1d7f56ae1E
LBB74_8:
	movq	-24(%rbp), %rdi
	callq	__Unwind_Resume
LBB74_9:
	.loc	17 379 5
	jmp	LBB74_8
Ltmp362:
Lfunc_end74:
	.cfi_endproc
	.section	__TEXT,__gcc_except_tab
	.p2align	2
GCC_except_table74:
Lexception6:
	.byte	255
	.byte	255
	.byte	1
	.uleb128 Lcst_end6-Lcst_begin6
Lcst_begin6:
	.uleb128 Ltmp347-Lfunc_begin74
	.uleb128 Ltmp348-Ltmp347
	.uleb128 Ltmp349-Lfunc_begin74
	.byte	0
	.uleb128 Ltmp350-Lfunc_begin74
	.uleb128 Ltmp351-Ltmp350
	.uleb128 Ltmp352-Lfunc_begin74
	.byte	0
	.uleb128 Ltmp353-Lfunc_begin74
	.uleb128 Ltmp354-Ltmp353
	.uleb128 Ltmp355-Lfunc_begin74
	.byte	0
	.uleb128 Ltmp354-Lfunc_begin74
	.uleb128 Lfunc_end74-Ltmp354
	.byte	0
	.byte	0
Lcst_end6:
	.p2align	2

	.section	__TEXT,__text,regular,pure_instructions
	.p2align	4, 0x90
__ZN3rug5float3big5Float15mul_sub_mul_ref17h056c56d30b868d37E:
Lfunc_begin75:
	.loc	17 2997 0
	.cfi_startproc
	pushq	%rbp
	.cfi_def_cfa_offset 16
	.cfi_offset %rbp, -16
	movq	%rsp, %rbp
	.cfi_def_cfa_register %rbp
	subq	$96, %rsp
	movq	%r8, -72(%rbp)
	movq	%rcx, -80(%rbp)
	movq	%rdx, -96(%rbp)
	movq	%rsi, %rax
	movq	-96(%rbp), %rsi
	movq	%rax, -88(%rbp)
	movq	%rdi, %rax
	movq	-88(%rbp), %rdi
	movq	%rax, -64(%rbp)
	movq	%rax, -40(%rbp)
	movq	%rdi, -32(%rbp)
	movq	%rsi, -24(%rbp)
	movq	%rcx, -16(%rbp)
	movq	%r8, -8(%rbp)
Ltmp363:
	.loc	17 3003 9 prologue_end
	callq	__ZN3rug5float5arith78_$LT$impl$u20$core..ops..arith..Mul$u20$for$u20$$RF$rug..float..big..Float$GT$3mul17hf16f6bc5f10bc895E
	movq	-80(%rbp), %rdi
	movq	-72(%rbp), %rsi
	movq	%rax, -56(%rbp)
	movq	%rdx, -48(%rbp)
	.loc	17 3003 22 is_stmt 0
	callq	__ZN3rug5float5arith78_$LT$impl$u20$core..ops..arith..Mul$u20$for$u20$$RF$rug..float..big..Float$GT$3mul17hf16f6bc5f10bc895E
	movq	-64(%rbp), %rdi
	movq	-56(%rbp), %rsi
	movq	%rax, %rcx
	movq	%rdx, %r8
	movq	-48(%rbp), %rdx
	.loc	17 3003 9
	callq	__ZN74_$LT$rug..float..arith..MulIncomplete$u20$as$u20$core..ops..arith..Sub$GT$3sub17hf20226d4d925c906E
	movq	-40(%rbp), %rax
	.loc	17 3004 6 is_stmt 1
	addq	$96, %rsp
	popq	%rbp
	retq
Ltmp364:
Lfunc_end75:
	.cfi_endproc

	.p2align	4, 0x90
__ZN3rug5float3big5Float16to_integer_round17hb1d9d22c5b34144eE:
Lfunc_begin76:
	.loc	17 760 0
	.cfi_startproc
	.cfi_personality 155, _rust_eh_personality
	.cfi_lsda 16, Lexception7
	pushq	%rbp
	.cfi_def_cfa_offset 16
	.cfi_offset %rbp, -16
	movq	%rsp, %rbp
	.cfi_def_cfa_register %rbp
	subq	$176, %rsp
	movq	%rsi, -136(%rbp)
	movq	%rdi, %rcx
	movq	-136(%rbp), %rdi
	movq	%rcx, -128(%rbp)
	movb	%dl, %al
	movb	%al, -113(%rbp)
	movq	%rcx, -112(%rbp)
	movq	%rdi, -40(%rbp)
	movb	%al, -25(%rbp)
Ltmp382:
	.loc	17 761 9 prologue_end
	movb	$0, -41(%rbp)
	.loc	17 761 13 is_stmt 0
	callq	__ZN3rug5float3big5Float9is_finite17h23eabbebcca05f9eE
	.loc	17 761 12
	xorb	$-1, %al
	testb	$1, %al
	jne	LBB76_2
	.loc	17 764 21 is_stmt 1
	movb	$1, -41(%rbp)
	leaq	-104(%rbp), %rdi
	movq	%rdi, -152(%rbp)
	callq	__ZN3rug7integer3big7Integer3new17had160e4b99e09dedE
	movq	-152(%rbp), %rdi
Ltmp365:
Ltmp383:
	.loc	17 765 40
	callq	__ZN3rug7integer3big7Integer10as_raw_mut17h56aa73b4fecf8fc8E
Ltmp366:
	movq	%rax, -144(%rbp)
	jmp	LBB76_6
Ltmp384:
LBB76_2:
	.loc	17 0 40 is_stmt 0
	movq	-128(%rbp), %rax
	.loc	17 762 20 is_stmt 1
	movb	$2, 16(%rax)
LBB76_3:
	.loc	17 0 20 is_stmt 0
	movq	-112(%rbp), %rax
	.loc	17 767 6 is_stmt 1
	addq	$176, %rsp
	popq	%rbp
	retq
LBB76_4:
	.loc	17 767 5 is_stmt 0
	testb	$1, -41(%rbp)
	jne	LBB76_15
	jmp	LBB76_14
LBB76_5:
Ltmp373:
	.loc	17 0 5
	movq	%rax, %rcx
	movl	%edx, %eax
	movq	%rcx, -24(%rbp)
	movl	%eax, -16(%rbp)
	jmp	LBB76_4
LBB76_6:
Ltmp367:
	movq	-136(%rbp), %rdi
Ltmp385:
	.loc	17 765 56 is_stmt 1
	callq	__ZN3rug5float3big5Float6as_raw17h7d2ff2b6d53de9c7E
Ltmp368:
	movq	%rax, -160(%rbp)
	jmp	LBB76_7
LBB76_7:
Ltmp369:
	.loc	17 0 56 is_stmt 0
	movb	-113(%rbp), %al
	.loc	17 765 71
	movzbl	%al, %edi
	callq	__ZN3rug3ext5xmpfr9raw_round17h2a757d98edcd2298E
Ltmp370:
	movl	%eax, -164(%rbp)
	jmp	LBB76_8
LBB76_8:
Ltmp371:
	.loc	17 0 71
	movl	-164(%rbp), %edx
	movq	-160(%rbp), %rsi
	movq	-144(%rbp), %rdi
	.loc	17 765 28
	callq	_mpfr_get_z
Ltmp372:
	movl	%eax, -168(%rbp)
	jmp	LBB76_9
LBB76_9:
	.loc	17 0 28
	movl	-168(%rbp), %edi
	.loc	17 765 28
	movl	%edi, -4(%rbp)
Ltmp386:
	.loc	17 766 15 is_stmt 1
	movb	$0, -41(%rbp)
	movq	-104(%rbp), %rax
	movq	-96(%rbp), %rcx
	movq	%rcx, -56(%rbp)
	movq	%rax, -64(%rbp)
Ltmp374:
	.loc	17 766 18 is_stmt 0
	callq	__ZN3rug3ext5xmpfr9ordering117hb8ceebb0eb23a9b3E
Ltmp375:
	movb	%al, -169(%rbp)
	jmp	LBB76_12
LBB76_10:
Ltmp377:
	.loc	17 0 18
	leaq	-64(%rbp), %rdi
	.loc	17 766 32
	callq	__ZN4core3ptr47drop_in_place$LT$rug..integer..big..Integer$GT$17h5a3ebc9fc80b1421E
Ltmp378:
	jmp	LBB76_4
LBB76_11:
Ltmp376:
	.loc	17 0 32
	movq	%rax, %rcx
	movl	%edx, %eax
	movq	%rcx, -24(%rbp)
	movl	%eax, -16(%rbp)
	jmp	LBB76_10
LBB76_12:
	movq	-128(%rbp), %rax
	movb	-169(%rbp), %cl
	.loc	17 766 14
	movq	-64(%rbp), %rdx
	movq	%rdx, -88(%rbp)
	movq	-56(%rbp), %rdx
	movq	%rdx, -80(%rbp)
	movb	%cl, -72(%rbp)
	.loc	17 766 9
	movq	-88(%rbp), %rcx
	movq	%rcx, (%rax)
	movq	-80(%rbp), %rcx
	movq	%rcx, 8(%rax)
	movq	-72(%rbp), %rcx
	movq	%rcx, 16(%rax)
Ltmp387:
	.loc	17 767 5 is_stmt 1
	movb	$0, -41(%rbp)
	.loc	17 767 6 is_stmt 0
	jmp	LBB76_3
LBB76_13:
Ltmp381:
	.loc	17 760 5 is_stmt 1
	callq	__ZN4core9panicking19panic_cannot_unwind17h1fbca7e1d7f56ae1E
LBB76_14:
	movq	-24(%rbp), %rdi
	callq	__Unwind_Resume
LBB76_15:
Ltmp379:
	.loc	17 0 5 is_stmt 0
	leaq	-104(%rbp), %rdi
	.loc	17 767 5 is_stmt 1
	callq	__ZN4core3ptr47drop_in_place$LT$rug..integer..big..Integer$GT$17h5a3ebc9fc80b1421E
Ltmp380:
	jmp	LBB76_14
Ltmp388:
Lfunc_end76:
	.cfi_endproc
	.section	__TEXT,__gcc_except_tab
	.p2align	2
GCC_except_table76:
Lexception7:
	.byte	255
	.byte	255
	.byte	1
	.uleb128 Lcst_end7-Lcst_begin7
Lcst_begin7:
	.uleb128 Lfunc_begin76-Lfunc_begin76
	.uleb128 Ltmp365-Lfunc_begin76
	.byte	0
	.byte	0
	.uleb128 Ltmp365-Lfunc_begin76
	.uleb128 Ltmp372-Ltmp365
	.uleb128 Ltmp373-Lfunc_begin76
	.byte	0
	.uleb128 Ltmp374-Lfunc_begin76
	.uleb128 Ltmp375-Ltmp374
	.uleb128 Ltmp376-Lfunc_begin76
	.byte	0
	.uleb128 Ltmp377-Lfunc_begin76
	.uleb128 Ltmp378-Ltmp377
	.uleb128 Ltmp381-Lfunc_begin76
	.byte	0
	.uleb128 Ltmp378-Lfunc_begin76
	.uleb128 Ltmp379-Ltmp378
	.byte	0
	.byte	0
	.uleb128 Ltmp379-Lfunc_begin76
	.uleb128 Ltmp380-Ltmp379
	.uleb128 Ltmp381-Lfunc_begin76
	.byte	0
Lcst_end7:
	.p2align	2

	.section	__TEXT,__text,regular,pure_instructions
	.p2align	4, 0x90
__ZN3rug5float3big5Float17mul_sub_mul_round17h963f0e5fefda7bfeE:
Lfunc_begin77:
	.loc	17 2961 0
	.cfi_startproc
	pushq	%rbp
	.cfi_def_cfa_offset 16
	.cfi_offset %rbp, -16
	movq	%rsp, %rbp
	.cfi_def_cfa_register %rbp
	subq	$48, %rsp
	movb	%r8b, %al
	movq	%rdi, -40(%rbp)
	movq	%rsi, -32(%rbp)
	movq	%rdx, -24(%rbp)
	movq	%rcx, -16(%rbp)
	movb	%al, -1(%rbp)
Ltmp389:
	.loc	17 2968 9 prologue_end
	movzbl	%al, %r8d
	callq	__ZN3rug3ext5xmpfr4fmms17h8119f91c6f75c5a0E
	.loc	17 2969 6
	addq	$48, %rsp
	popq	%rbp
	retq
Ltmp390:
Lfunc_end77:
	.cfi_endproc

	.p2align	4, 0x90
__ZN3rug5float3big5Float4prec17hdacce20da24ca099E:
Lfunc_begin78:
	.loc	17 403 0
	.cfi_startproc
	pushq	%rbp
	.cfi_def_cfa_offset 16
	.cfi_offset %rbp, -16
	movq	%rsp, %rbp
	.cfi_def_cfa_register %rbp
	subq	$96, %rsp
	movq	%rdi, -24(%rbp)
Ltmp391:
	.loc	17 404 26 prologue_end
	callq	__ZN3rug3ext5xmpfr8get_prec17hd725980a24d20192E
	movq	%rax, -88(%rbp)
	movq	%rax, -16(%rbp)
Ltmp392:
	.loc	17 406 19
	movl	%eax, %ecx
	movl	%ecx, -80(%rbp)
	movl	%ecx, -4(%rbp)
Ltmp393:
	.loc	17 408 12
	cmpq	$0, %rax
	jl	LBB78_2
	.loc	17 0 12 is_stmt 0
	movq	-88(%rbp), %rax
	movl	-80(%rbp), %ecx
	.loc	17 408 44
	movl	%ecx, %ecx
	.loc	17 408 30
	cmpq	%rcx, %rax
	setne	%al
	.loc	17 408 12
	andb	$1, %al
	movb	%al, -73(%rbp)
	jmp	LBB78_3
LBB78_2:
	movb	$1, -73(%rbp)
LBB78_3:
	testb	$1, -73(%rbp)
	jne	LBB78_5
Ltmp394:
	.loc	17 0 12
	movl	-80(%rbp), %eax
	.loc	17 412 6 is_stmt 1
	addq	$96, %rsp
	popq	%rbp
	retq
LBB78_5:
Ltmp395:
	.loc	17 409 13
	leaq	l___unnamed_26(%rip), %rsi
	leaq	l___unnamed_24(%rip), %rcx
	xorl	%eax, %eax
	movl	%eax, %r8d
	leaq	-72(%rbp), %rdi
	movq	%rdi, -96(%rbp)
	movl	$1, %edx
	callq	__ZN4core3fmt9Arguments6new_v117hda9832b152653402E
	movq	-96(%rbp), %rdi
	leaq	l___unnamed_27(%rip), %rsi
	callq	__ZN4core9panicking9panic_fmt17h9b5d807e24bcaaedE
Ltmp396:
Lfunc_end78:
	.cfi_endproc

	.p2align	4, 0x90
__ZN3rug5float3big5Float5recip17habe0272e80bdd32eE:
Lfunc_begin79:
	.loc	17 3979 0
	.cfi_startproc
	.cfi_personality 155, _rust_eh_personality
	.cfi_lsda 16, Lexception8
	pushq	%rbp
	.cfi_def_cfa_offset 16
	.cfi_offset %rbp, -16
	movq	%rsp, %rbp
	.cfi_def_cfa_register %rbp
	subq	$48, %rsp
	movq	%rsi, -48(%rbp)
Ltmp403:
	movq	%rdi, %rax
	movq	-48(%rbp), %rdi
	movq	%rax, -40(%rbp)
	movq	%rax, -32(%rbp)
Ltmp404:
	.loc	17 3980 26 prologue_end
	movb	$0, -17(%rbp)
	.loc	17 3980 9 is_stmt 0
	movzbl	-17(%rbp), %esi
Ltmp397:
	callq	__ZN3rug5float3big5Float11recip_round17h9aaad8d0e687dce3E
Ltmp398:
	jmp	LBB79_3
Ltmp405:
LBB79_1:
Ltmp400:
	.loc	17 0 9
	movq	-48(%rbp), %rdi
	.loc	17 3982 5 is_stmt 1
	callq	__ZN4core3ptr43drop_in_place$LT$rug..float..big..Float$GT$17he0bd4893918cadc0E
Ltmp401:
	jmp	LBB79_5
Ltmp406:
LBB79_2:
Ltmp399:
	.loc	17 0 5 is_stmt 0
	movq	%rax, %rcx
	movl	%edx, %eax
	movq	%rcx, -16(%rbp)
	movl	%eax, -8(%rbp)
	jmp	LBB79_1
Ltmp407:
LBB79_3:
	movq	-32(%rbp), %rax
	movq	-40(%rbp), %rcx
	movq	-48(%rbp), %rdx
	.loc	17 3981 9 is_stmt 1
	movq	(%rdx), %rsi
	movq	%rsi, (%rcx)
	movq	8(%rdx), %rsi
	movq	%rsi, 8(%rcx)
	movq	16(%rdx), %rsi
	movq	%rsi, 16(%rcx)
	movq	24(%rdx), %rdx
	movq	%rdx, 24(%rcx)
	.loc	17 3982 6
	addq	$48, %rsp
	popq	%rbp
	retq
Ltmp408:
LBB79_4:
Ltmp402:
	.loc	17 3979 5
	callq	__ZN4core9panicking19panic_cannot_unwind17h1fbca7e1d7f56ae1E
Ltmp409:
LBB79_5:
	movq	-16(%rbp), %rdi
	callq	__Unwind_Resume
Ltmp410:
Lfunc_end79:
	.cfi_endproc
	.section	__TEXT,__gcc_except_tab
	.p2align	2
GCC_except_table79:
Lexception8:
	.byte	255
	.byte	255
	.byte	1
	.uleb128 Lcst_end8-Lcst_begin8
Lcst_begin8:
	.uleb128 Ltmp397-Lfunc_begin79
	.uleb128 Ltmp398-Ltmp397
	.uleb128 Ltmp399-Lfunc_begin79
	.byte	0
	.uleb128 Ltmp400-Lfunc_begin79
	.uleb128 Ltmp401-Ltmp400
	.uleb128 Ltmp402-Lfunc_begin79
	.byte	0
	.uleb128 Ltmp401-Lfunc_begin79
	.uleb128 Lfunc_end79-Ltmp401
	.byte	0
	.byte	0
Lcst_end8:
	.p2align	2

	.section	__TEXT,__text,regular,pure_instructions
	.p2align	4, 0x90
__ZN3rug5float3big5Float6as_raw17h7d2ff2b6d53de9c7E:
Lfunc_begin80:
	.loc	17 575 0
	.cfi_startproc
	pushq	%rbp
	.cfi_def_cfa_offset 16
	.cfi_offset %rbp, -16
	movq	%rsp, %rbp
	.cfi_def_cfa_register %rbp
	pushq	%rax
	movq	%rdi, %rax
	movq	%rax, -8(%rbp)
Ltmp411:
	.loc	17 577 6 prologue_end
	addq	$8, %rsp
	popq	%rbp
	retq
Ltmp412:
Lfunc_end80:
	.cfi_endproc

	.p2align	4, 0x90
__ZN3rug5float3big5Float6is_nan17h772b8462e1646305E:
Lfunc_begin81:
	.loc	17 1525 0
	.cfi_startproc
	pushq	%rbp
	.cfi_def_cfa_offset 16
	.cfi_offset %rbp, -16
	movq	%rsp, %rbp
	.cfi_def_cfa_register %rbp
	subq	$16, %rsp
	movq	%rdi, -8(%rbp)
Ltmp413:
	.loc	17 1526 9 prologue_end
	callq	__ZN3rug3ext5xmpfr5nan_p17h88f313d9c91e98f2E
	.loc	17 1527 6
	andb	$1, %al
	movzbl	%al, %eax
	addq	$16, %rsp
	popq	%rbp
	retq
Ltmp414:
Lfunc_end81:
	.cfi_endproc

	.p2align	4, 0x90
__ZN3rug5float3big5Float6to_f6417h993ff6d481e10fa9E:
Lfunc_begin82:
	.loc	17 1008 0
	.cfi_startproc
	pushq	%rbp
	.cfi_def_cfa_offset 16
	.cfi_offset %rbp, -16
	movq	%rsp, %rbp
	.cfi_def_cfa_register %rbp
	subq	$16, %rsp
	movq	%rdi, -8(%rbp)
Ltmp415:
	.loc	17 1009 27 prologue_end
	movb	$0, -9(%rbp)
	.loc	17 1009 9 is_stmt 0
	movzbl	-9(%rbp), %esi
	callq	__ZN3rug5float3big5Float12to_f64_round17hf85db58f867841b8E
	.loc	17 1010 6 is_stmt 1
	addq	$16, %rsp
	popq	%rbp
	retq
Ltmp416:
Lfunc_end82:
	.cfi_endproc

	.p2align	4, 0x90
__ZN3rug5float3big5Float7new_nan17h59b2e74e5131f901E:
Lfunc_begin83:
	.loc	17 382 0
	.cfi_startproc
	pushq	%rbp
	.cfi_def_cfa_offset 16
	.cfi_offset %rbp, -16
	movq	%rsp, %rbp
	.cfi_def_cfa_register %rbp
	subq	$192, %rsp
	movl	%esi, -160(%rbp)
	movq	%rdi, -176(%rbp)
	movq	%rdi, -168(%rbp)
	movl	%esi, -36(%rbp)
Ltmp417:
	.loc	17 384 21 prologue_end
	callq	__ZN3rug5float8prec_min17hf92a84df0d2ceeb7E
	movl	-160(%rbp), %esi
	.loc	17 384 13 is_stmt 0
	cmpl	%eax, %esi
	jae	LBB83_2
	movb	$0, -153(%rbp)
	jmp	LBB83_3
LBB83_2:
	.loc	17 384 50
	callq	__ZN3rug5float8prec_max17had8abec44d71959dE
	movl	%eax, %ecx
	movl	-160(%rbp), %eax
	.loc	17 384 42
	cmpl	%ecx, %eax
	setbe	%al
	.loc	17 384 13
	andb	$1, %al
	movb	%al, -153(%rbp)
LBB83_3:
	.loc	17 383 9 is_stmt 1
	movb	-153(%rbp), %al
	xorb	$-1, %al
	testb	$1, %al
	jne	LBB83_5
	.loc	17 0 9 is_stmt 0
	movl	-160(%rbp), %edi
Ltmp418:
	.loc	17 388 40 is_stmt 1
	leaq	l___unnamed_28(%rip), %rsi
	callq	__ZN2az3int62_$LT$impl$u20$az..UnwrappedCast$LT$i64$GT$$u20$for$u20$u32$GT$14unwrapped_cast17h8b5df7921bfbc8efE
	movq	%rax, %rsi
	.loc	17 388 9 is_stmt 0
	leaq	-104(%rbp), %rdi
	callq	__ZN3rug3ext5xmpfr13write_new_nan17h3885b99c7ab08395E
	movq	-176(%rbp), %rcx
	movq	-168(%rbp), %rax
	.loc	17 390 18 is_stmt 1
	movq	-104(%rbp), %rdx
	movq	%rdx, -72(%rbp)
	movq	-96(%rbp), %rdx
	movq	%rdx, -64(%rbp)
	movq	-88(%rbp), %rdx
	movq	%rdx, -56(%rbp)
	movq	-80(%rbp), %rdx
	movq	%rdx, -48(%rbp)
Ltmp419:
	.file	18 "/rustc/2c8cc343237b8f7d5a3c3703e3a87f2eb2c54a74/library/core/src/mem" "maybe_uninit.rs"
	.loc	18 627 38
	movq	-72(%rbp), %rdx
	movq	%rdx, -32(%rbp)
	movq	-64(%rbp), %rdx
	movq	%rdx, -24(%rbp)
	movq	-56(%rbp), %rdx
	movq	%rdx, -16(%rbp)
	movq	-48(%rbp), %rdx
	movq	%rdx, -8(%rbp)
Ltmp420:
	.file	19 "/rustc/2c8cc343237b8f7d5a3c3703e3a87f2eb2c54a74/library/core/src/mem" "manually_drop.rs"
	.loc	19 89 9
	movq	-32(%rbp), %rdx
	movq	%rdx, (%rcx)
	movq	-24(%rbp), %rdx
	movq	%rdx, 8(%rcx)
	movq	-16(%rbp), %rdx
	movq	%rdx, 16(%rcx)
	movq	-8(%rbp), %rdx
	movq	%rdx, 24(%rcx)
Ltmp421:
	.loc	17 391 6
	addq	$192, %rsp
	popq	%rbp
	retq
LBB83_5:
	.loc	17 383 9
	leaq	l___unnamed_23(%rip), %rsi
	leaq	l___unnamed_24(%rip), %rcx
	xorl	%eax, %eax
	movl	%eax, %r8d
	leaq	-152(%rbp), %rdi
	movq	%rdi, -184(%rbp)
	movl	$1, %edx
	callq	__ZN4core3fmt9Arguments6new_v117hda9832b152653402E
	movq	-184(%rbp), %rdi
	leaq	l___unnamed_29(%rip), %rsi
	callq	__ZN4core9panicking9panic_fmt17h9b5d807e24bcaaedE
Ltmp422:
Lfunc_end83:
	.cfi_endproc

	.p2align	4, 0x90
__ZN3rug5float3big5Float8set_prec17h66839785b05e4bc5E:
Lfunc_begin84:
	.loc	17 431 0
	.cfi_startproc
	pushq	%rbp
	.cfi_def_cfa_offset 16
	.cfi_offset %rbp, -16
	movq	%rsp, %rbp
	.cfi_def_cfa_register %rbp
	subq	$32, %rsp
	movq	%rdi, -16(%rbp)
	movl	%esi, -4(%rbp)
Ltmp423:
	.loc	17 432 35 prologue_end
	movb	$0, -17(%rbp)
	.loc	17 432 9 is_stmt 0
	movzbl	-17(%rbp), %edx
	callq	__ZN3rug5float3big5Float14set_prec_round17h1f6e2f63f5305188E
	.loc	17 433 6 is_stmt 1
	addq	$32, %rsp
	popq	%rbp
	retq
Ltmp424:
Lfunc_end84:
	.cfi_endproc

	.globl	__ZN3rug5float3big5Float8with_val17h7dcb59411d605adaE
	.p2align	4, 0x90
__ZN3rug5float3big5Float8with_val17h7dcb59411d605adaE:
Lfunc_begin85:
	.loc	17 338 0
	.cfi_startproc
	.cfi_personality 155, _rust_eh_personality
	.cfi_lsda 16, Lexception9
	pushq	%rbp
	.cfi_def_cfa_offset 16
	.cfi_offset %rbp, -16
	movq	%rsp, %rbp
	.cfi_def_cfa_register %rbp
	subq	$80, %rsp
	movq	%rdx, -80(%rbp)
Ltmp434:
	movq	%rdi, -72(%rbp)
	movq	%rdi, %rax
	movq	%rax, -64(%rbp)
	movl	%esi, -20(%rbp)
Ltmp435:
	.loc	17 342 13 prologue_end
	movb	$0, -21(%rbp)
	movb	$1, -21(%rbp)
Ltmp425:
	.loc	17 342 23 is_stmt 0
	callq	__ZN3rug5float3big5Float7new_nan17h59b2e74e5131f901E
Ltmp436:
Ltmp426:
	jmp	LBB85_3
Ltmp437:
LBB85_1:
	.loc	17 345 5 is_stmt 1
	testb	$1, -21(%rbp)
	jne	LBB85_9
	jmp	LBB85_8
Ltmp438:
LBB85_2:
Ltmp427:
	.loc	17 0 5 is_stmt 0
	movq	%rax, %rcx
	movl	%edx, %eax
	movq	%rcx, -16(%rbp)
	movl	%eax, -8(%rbp)
	jmp	LBB85_1
Ltmp439:
LBB85_3:
	movq	-72(%rbp), %rdi
	movq	-80(%rbp), %rcx
Ltmp440:
	.loc	17 343 20 is_stmt 1
	movb	$0, -21(%rbp)
	movq	24(%rcx), %rax
	movq	%rax, -32(%rbp)
	movq	16(%rcx), %rax
	movq	%rax, -40(%rbp)
	movq	(%rcx), %rax
	movq	8(%rcx), %rcx
	movq	%rcx, -48(%rbp)
	movq	%rax, -56(%rbp)
Ltmp428:
	leaq	-56(%rbp), %rsi
	.loc	17 343 9 is_stmt 0
	callq	__ZN3rug5float6traits73_$LT$impl$u20$rug..Assign$LT$T$GT$$u20$for$u20$rug..float..big..Float$GT$6assign17hdb993bbfc1e5577dE
Ltmp429:
	jmp	LBB85_6
Ltmp441:
LBB85_4:
Ltmp431:
	.loc	17 0 9
	movq	-72(%rbp), %rdi
	.loc	17 345 5 is_stmt 1
	callq	__ZN4core3ptr43drop_in_place$LT$rug..float..big..Float$GT$17he0bd4893918cadc0E
Ltmp432:
	jmp	LBB85_1
Ltmp442:
LBB85_5:
Ltmp430:
	.loc	17 0 5 is_stmt 0
	movq	%rax, %rcx
	movl	%edx, %eax
	movq	%rcx, -16(%rbp)
	movl	%eax, -8(%rbp)
	jmp	LBB85_4
Ltmp443:
LBB85_6:
	movq	-64(%rbp), %rax
	.loc	17 345 6
	addq	$80, %rsp
	popq	%rbp
	retq
Ltmp444:
LBB85_7:
Ltmp433:
	.loc	17 338 5 is_stmt 1
	callq	__ZN4core9panicking19panic_cannot_unwind17h1fbca7e1d7f56ae1E
Ltmp445:
LBB85_8:
	movq	-16(%rbp), %rdi
	callq	__Unwind_Resume
Ltmp446:
LBB85_9:
	.loc	17 345 5
	jmp	LBB85_8
Ltmp447:
Lfunc_end85:
	.cfi_endproc
	.section	__TEXT,__gcc_except_tab
	.p2align	2
GCC_except_table85:
Lexception9:
	.byte	255
	.byte	255
	.byte	1
	.uleb128 Lcst_end9-Lcst_begin9
Lcst_begin9:
	.uleb128 Ltmp425-Lfunc_begin85
	.uleb128 Ltmp426-Ltmp425
	.uleb128 Ltmp427-Lfunc_begin85
	.byte	0
	.uleb128 Ltmp428-Lfunc_begin85
	.uleb128 Ltmp429-Ltmp428
	.uleb128 Ltmp430-Lfunc_begin85
	.byte	0
	.uleb128 Ltmp431-Lfunc_begin85
	.uleb128 Ltmp432-Ltmp431
	.uleb128 Ltmp433-Lfunc_begin85
	.byte	0
	.uleb128 Ltmp432-Lfunc_begin85
	.uleb128 Lfunc_end85-Ltmp432
	.byte	0
	.byte	0
Lcst_end9:
	.p2align	2

	.section	__TEXT,__text,regular,pure_instructions
	.globl	__ZN3rug5float3big5Float8with_val17haa2d78904bc9f869E
	.p2align	4, 0x90
__ZN3rug5float3big5Float8with_val17haa2d78904bc9f869E:
Lfunc_begin86:
	.loc	17 338 0
	.cfi_startproc
	.cfi_personality 155, _rust_eh_personality
	.cfi_lsda 16, Lexception10
	pushq	%rbp
	.cfi_def_cfa_offset 16
	.cfi_offset %rbp, -16
	movq	%rsp, %rbp
	.cfi_def_cfa_register %rbp
	subq	$80, %rsp
	movq	%rdx, -72(%rbp)
Ltmp457:
	movq	%rdi, -64(%rbp)
	movq	%rdi, %rax
	movq	%rax, -56(%rbp)
	movl	%esi, -20(%rbp)
Ltmp458:
	.loc	17 342 13 prologue_end
	movb	$0, -21(%rbp)
	movb	$1, -21(%rbp)
Ltmp448:
	.loc	17 342 23 is_stmt 0
	callq	__ZN3rug5float3big5Float7new_nan17h59b2e74e5131f901E
Ltmp459:
Ltmp449:
	jmp	LBB86_3
Ltmp460:
LBB86_1:
	.loc	17 345 5 is_stmt 1
	testb	$1, -21(%rbp)
	jne	LBB86_9
	jmp	LBB86_8
Ltmp461:
LBB86_2:
Ltmp450:
	.loc	17 0 5 is_stmt 0
	movq	%rax, %rcx
	movl	%edx, %eax
	movq	%rcx, -16(%rbp)
	movl	%eax, -8(%rbp)
	jmp	LBB86_1
Ltmp462:
LBB86_3:
	movq	-64(%rbp), %rdi
	movq	-72(%rbp), %rcx
Ltmp463:
	.loc	17 343 20 is_stmt 1
	movb	$0, -21(%rbp)
	movq	16(%rcx), %rax
	movq	%rax, -32(%rbp)
	movq	(%rcx), %rax
	movq	8(%rcx), %rcx
	movq	%rcx, -40(%rbp)
	movq	%rax, -48(%rbp)
Ltmp451:
	leaq	-48(%rbp), %rsi
	.loc	17 343 9 is_stmt 0
	callq	__ZN3rug5float6traits73_$LT$impl$u20$rug..Assign$LT$T$GT$$u20$for$u20$rug..float..big..Float$GT$6assign17hf43c84fe72109973E
Ltmp452:
	jmp	LBB86_6
Ltmp464:
LBB86_4:
Ltmp454:
	.loc	17 0 9
	movq	-64(%rbp), %rdi
	.loc	17 345 5 is_stmt 1
	callq	__ZN4core3ptr43drop_in_place$LT$rug..float..big..Float$GT$17he0bd4893918cadc0E
Ltmp455:
	jmp	LBB86_1
Ltmp465:
LBB86_5:
Ltmp453:
	.loc	17 0 5 is_stmt 0
	movq	%rax, %rcx
	movl	%edx, %eax
	movq	%rcx, -16(%rbp)
	movl	%eax, -8(%rbp)
	jmp	LBB86_4
Ltmp466:
LBB86_6:
	movq	-56(%rbp), %rax
	.loc	17 345 6
	addq	$80, %rsp
	popq	%rbp
	retq
Ltmp467:
LBB86_7:
Ltmp456:
	.loc	17 338 5 is_stmt 1
	callq	__ZN4core9panicking19panic_cannot_unwind17h1fbca7e1d7f56ae1E
Ltmp468:
LBB86_8:
	movq	-16(%rbp), %rdi
	callq	__Unwind_Resume
Ltmp469:
LBB86_9:
	.loc	17 345 5
	jmp	LBB86_8
Ltmp470:
Lfunc_end86:
	.cfi_endproc
	.section	__TEXT,__gcc_except_tab
	.p2align	2
GCC_except_table86:
Lexception10:
	.byte	255
	.byte	255
	.byte	1
	.uleb128 Lcst_end10-Lcst_begin10
Lcst_begin10:
	.uleb128 Ltmp448-Lfunc_begin86
	.uleb128 Ltmp449-Ltmp448
	.uleb128 Ltmp450-Lfunc_begin86
	.byte	0
	.uleb128 Ltmp451-Lfunc_begin86
	.uleb128 Ltmp452-Ltmp451
	.uleb128 Ltmp453-Lfunc_begin86
	.byte	0
	.uleb128 Ltmp454-Lfunc_begin86
	.uleb128 Ltmp455-Ltmp454
	.uleb128 Ltmp456-Lfunc_begin86
	.byte	0
	.uleb128 Ltmp455-Lfunc_begin86
	.uleb128 Lfunc_end86-Ltmp455
	.byte	0
	.byte	0
Lcst_end10:
	.p2align	2

	.section	__TEXT,__text,regular,pure_instructions
	.globl	__ZN3rug5float3big5Float8with_val17hb0e1471bd13ba642E
	.p2align	4, 0x90
__ZN3rug5float3big5Float8with_val17hb0e1471bd13ba642E:
Lfunc_begin87:
	.loc	17 338 0
	.cfi_startproc
	.cfi_personality 155, _rust_eh_personality
	.cfi_lsda 16, Lexception11
	pushq	%rbp
	.cfi_def_cfa_offset 16
	.cfi_offset %rbp, -16
	movq	%rsp, %rbp
	.cfi_def_cfa_register %rbp
	subq	$64, %rsp
	movq	%rdx, -56(%rbp)
	movq	%rdi, -48(%rbp)
	movq	%rdi, %rax
	movq	%rax, -40(%rbp)
	movl	%esi, -28(%rbp)
	movq	%rdx, -24(%rbp)
Ltmp480:
	.loc	17 342 13 prologue_end
	movb	$0, -29(%rbp)
	movb	$1, -29(%rbp)
Ltmp471:
	.loc	17 342 23 is_stmt 0
	callq	__ZN3rug5float3big5Float7new_nan17h59b2e74e5131f901E
Ltmp472:
	jmp	LBB87_3
LBB87_1:
	.loc	17 345 5 is_stmt 1
	testb	$1, -29(%rbp)
	jne	LBB87_9
	jmp	LBB87_8
LBB87_2:
Ltmp473:
	.loc	17 0 5 is_stmt 0
	movq	%rax, %rcx
	movl	%edx, %eax
	movq	%rcx, -16(%rbp)
	movl	%eax, -8(%rbp)
	jmp	LBB87_1
LBB87_3:
Ltmp481:
	movq	-56(%rbp), %rsi
	movq	-48(%rbp), %rdi
Ltmp482:
	.loc	17 343 20 is_stmt 1
	movb	$0, -29(%rbp)
Ltmp474:
	.loc	17 343 9 is_stmt 0
	callq	__ZN3rug5float6traits73_$LT$impl$u20$rug..Assign$LT$T$GT$$u20$for$u20$rug..float..big..Float$GT$6assign17h6e78daa61ff67d2dE
Ltmp475:
	jmp	LBB87_6
Ltmp483:
LBB87_4:
Ltmp477:
	.loc	17 0 9
	movq	-48(%rbp), %rdi
	.loc	17 345 5 is_stmt 1
	callq	__ZN4core3ptr43drop_in_place$LT$rug..float..big..Float$GT$17he0bd4893918cadc0E
Ltmp478:
	jmp	LBB87_1
LBB87_5:
Ltmp476:
	.loc	17 0 5 is_stmt 0
	movq	%rax, %rcx
	movl	%edx, %eax
	movq	%rcx, -16(%rbp)
	movl	%eax, -8(%rbp)
	jmp	LBB87_4
LBB87_6:
	movq	-40(%rbp), %rax
	.loc	17 345 6
	addq	$64, %rsp
	popq	%rbp
	retq
LBB87_7:
Ltmp479:
	.loc	17 338 5 is_stmt 1
	callq	__ZN4core9panicking19panic_cannot_unwind17h1fbca7e1d7f56ae1E
LBB87_8:
	movq	-16(%rbp), %rdi
	callq	__Unwind_Resume
LBB87_9:
	.loc	17 345 5
	jmp	LBB87_8
Ltmp484:
Lfunc_end87:
	.cfi_endproc
	.section	__TEXT,__gcc_except_tab
	.p2align	2
GCC_except_table87:
Lexception11:
	.byte	255
	.byte	255
	.byte	1
	.uleb128 Lcst_end11-Lcst_begin11
Lcst_begin11:
	.uleb128 Ltmp471-Lfunc_begin87
	.uleb128 Ltmp472-Ltmp471
	.uleb128 Ltmp473-Lfunc_begin87
	.byte	0
	.uleb128 Ltmp474-Lfunc_begin87
	.uleb128 Ltmp475-Ltmp474
	.uleb128 Ltmp476-Lfunc_begin87
	.byte	0
	.uleb128 Ltmp477-Lfunc_begin87
	.uleb128 Ltmp478-Ltmp477
	.uleb128 Ltmp479-Lfunc_begin87
	.byte	0
	.uleb128 Ltmp478-Lfunc_begin87
	.uleb128 Lfunc_end87-Ltmp478
	.byte	0
	.byte	0
Lcst_end11:
	.p2align	2

	.section	__TEXT,__text,regular,pure_instructions
	.globl	__ZN3rug5float3big5Float8with_val17he6ea354d8be6d72aE
	.p2align	4, 0x90
__ZN3rug5float3big5Float8with_val17he6ea354d8be6d72aE:
Lfunc_begin88:
	.loc	17 338 0
	.cfi_startproc
	.cfi_personality 155, _rust_eh_personality
	.cfi_lsda 16, Lexception12
	pushq	%rbp
	.cfi_def_cfa_offset 16
	.cfi_offset %rbp, -16
	movq	%rsp, %rbp
	.cfi_def_cfa_register %rbp
	subq	$64, %rsp
	movsd	%xmm0, -56(%rbp)
	movq	%rdi, -48(%rbp)
	movq	%rdi, %rax
	movq	%rax, -40(%rbp)
	movl	%esi, -28(%rbp)
	movsd	%xmm0, -24(%rbp)
Ltmp494:
	.loc	17 342 13 prologue_end
	movb	$0, -29(%rbp)
	movb	$1, -29(%rbp)
Ltmp485:
	.loc	17 342 23 is_stmt 0
	callq	__ZN3rug5float3big5Float7new_nan17h59b2e74e5131f901E
Ltmp486:
	jmp	LBB88_3
LBB88_1:
	.loc	17 345 5 is_stmt 1
	testb	$1, -29(%rbp)
	jne	LBB88_9
	jmp	LBB88_8
LBB88_2:
Ltmp487:
	.loc	17 0 5 is_stmt 0
	movq	%rax, %rcx
	movl	%edx, %eax
	movq	%rcx, -16(%rbp)
	movl	%eax, -8(%rbp)
	jmp	LBB88_1
LBB88_3:
Ltmp495:
	movsd	-56(%rbp), %xmm0
	movq	-48(%rbp), %rdi
Ltmp496:
	.loc	17 343 20 is_stmt 1
	movb	$0, -29(%rbp)
Ltmp488:
	.loc	17 343 9 is_stmt 0
	callq	__ZN3rug5float6traits73_$LT$impl$u20$rug..Assign$LT$T$GT$$u20$for$u20$rug..float..big..Float$GT$6assign17ha4045b3923d621e3E
Ltmp489:
	jmp	LBB88_6
Ltmp497:
LBB88_4:
Ltmp491:
	.loc	17 0 9
	movq	-48(%rbp), %rdi
	.loc	17 345 5 is_stmt 1
	callq	__ZN4core3ptr43drop_in_place$LT$rug..float..big..Float$GT$17he0bd4893918cadc0E
Ltmp492:
	jmp	LBB88_1
LBB88_5:
Ltmp490:
	.loc	17 0 5 is_stmt 0
	movq	%rax, %rcx
	movl	%edx, %eax
	movq	%rcx, -16(%rbp)
	movl	%eax, -8(%rbp)
	jmp	LBB88_4
LBB88_6:
	movq	-40(%rbp), %rax
	.loc	17 345 6
	addq	$64, %rsp
	popq	%rbp
	retq
LBB88_7:
Ltmp493:
	.loc	17 338 5 is_stmt 1
	callq	__ZN4core9panicking19panic_cannot_unwind17h1fbca7e1d7f56ae1E
LBB88_8:
	movq	-16(%rbp), %rdi
	callq	__Unwind_Resume
LBB88_9:
	.loc	17 345 5
	jmp	LBB88_8
Ltmp498:
Lfunc_end88:
	.cfi_endproc
	.section	__TEXT,__gcc_except_tab
	.p2align	2
GCC_except_table88:
Lexception12:
	.byte	255
	.byte	255
	.byte	1
	.uleb128 Lcst_end12-Lcst_begin12
Lcst_begin12:
	.uleb128 Ltmp485-Lfunc_begin88
	.uleb128 Ltmp486-Ltmp485
	.uleb128 Ltmp487-Lfunc_begin88
	.byte	0
	.uleb128 Ltmp488-Lfunc_begin88
	.uleb128 Ltmp489-Ltmp488
	.uleb128 Ltmp490-Lfunc_begin88
	.byte	0
	.uleb128 Ltmp491-Lfunc_begin88
	.uleb128 Ltmp492-Ltmp491
	.uleb128 Ltmp493-Lfunc_begin88
	.byte	0
	.uleb128 Ltmp492-Lfunc_begin88
	.uleb128 Lfunc_end88-Ltmp492
	.byte	0
	.byte	0
Lcst_end12:
	.p2align	2

	.section	__TEXT,__text,regular,pure_instructions
	.p2align	4, 0x90
__ZN3rug5float3big5Float9is_finite17h23eabbebcca05f9eE:
Lfunc_begin89:
	.loc	17 1558 0
	.cfi_startproc
	pushq	%rbp
	.cfi_def_cfa_offset 16
	.cfi_offset %rbp, -16
	movq	%rsp, %rbp
	.cfi_def_cfa_register %rbp
	subq	$16, %rsp
	movq	%rdi, -8(%rbp)
Ltmp499:
	.loc	17 1559 9 prologue_end
	callq	__ZN3rug3ext5xmpfr8number_p17ha4adfbf68e4df2feE
	.loc	17 1560 6
	andb	$1, %al
	movzbl	%al, %eax
	addq	$16, %rsp
	popq	%rbp
	retq
Ltmp500:
Lfunc_end89:
	.cfi_endproc

	.p2align	4, 0x90
__ZN3rug5float3cmp74_$LT$impl$u20$core..cmp..PartialOrd$u20$for$u20$rug..float..big..Float$GT$2gt17hbfb0b2b942072232E:
Lfunc_begin90:
	.file	20 "/Users/natalie/.cargo/registry/src/github.com-1ecc6299db9ec823/rug-1.19.0/src/float" "cmp.rs"
	.loc	20 56 0
	.cfi_startproc
	pushq	%rbp
	.cfi_def_cfa_offset 16
	.cfi_offset %rbp, -16
	movq	%rsp, %rbp
	.cfi_def_cfa_register %rbp
	subq	$16, %rsp
	movq	%rdi, -16(%rbp)
	movq	%rsi, -8(%rbp)
Ltmp501:
	.loc	20 57 9 prologue_end
	callq	__ZN3rug3ext5xmpfr9greater_p17h1d23f07e5582ee9fE
	.loc	20 58 6
	andb	$1, %al
	movzbl	%al, %eax
	addq	$16, %rsp
	popq	%rbp
	retq
Ltmp502:
Lfunc_end90:
	.cfi_endproc

	.p2align	4, 0x90
__ZN3rug5float5arith108_$LT$impl$u20$core..ops..arith..Add$LT$$RF$rug..float..big..Float$GT$$u20$for$u20$rug..float..big..Float$GT$3add17hd3eaad668e731287E:
Lfunc_begin91:
	.loc	1 1402 0
	.cfi_startproc
	.cfi_personality 155, _rust_eh_personality
	.cfi_lsda 16, Lexception13
	pushq	%rbp
	.cfi_def_cfa_offset 16
	.cfi_offset %rbp, -16
	movq	%rsp, %rbp
	.cfi_def_cfa_register %rbp
	subq	$64, %rsp
	movq	%rdx, -64(%rbp)
	movq	%rsi, %rax
	movq	-64(%rbp), %rsi
	movq	%rax, -56(%rbp)
Ltmp509:
	movq	%rdi, %rax
	movq	-56(%rbp), %rdi
	movq	%rax, -48(%rbp)
	movq	%rax, -40(%rbp)
	movq	%rsi, -24(%rbp)
Ltmp510:
	.file	21 "/Users/natalie/.cargo/registry/src/github.com-1ecc6299db9ec823/rug-1.19.0/src/float" "arith.rs"
	.loc	21 89 24 prologue_end
	movb	$0, -25(%rbp)
	.loc	1 1403 17
	movzbl	-25(%rbp), %edx
Ltmp503:
	callq	__ZN3rug5float5arith111_$LT$impl$u20$rug..ops..AddAssignRound$LT$$RF$rug..float..big..Float$GT$$u20$for$u20$rug..float..big..Float$GT$16add_assign_round17h766b605fddfe69fcE
Ltmp504:
	jmp	LBB91_3
Ltmp511:
LBB91_1:
Ltmp506:
	.loc	1 0 17 is_stmt 0
	movq	-56(%rbp), %rdi
	.loc	1 1405 13 is_stmt 1
	callq	__ZN4core3ptr43drop_in_place$LT$rug..float..big..Float$GT$17he0bd4893918cadc0E
Ltmp507:
	jmp	LBB91_5
Ltmp512:
LBB91_2:
Ltmp505:
	.loc	1 0 13 is_stmt 0
	movq	%rax, %rcx
	movl	%edx, %eax
	movq	%rcx, -16(%rbp)
	movl	%eax, -8(%rbp)
	jmp	LBB91_1
Ltmp513:
LBB91_3:
	movq	-40(%rbp), %rax
	movq	-48(%rbp), %rcx
	movq	-56(%rbp), %rdx
	.loc	1 1404 17 is_stmt 1
	movq	(%rdx), %rsi
	movq	%rsi, (%rcx)
	movq	8(%rdx), %rsi
	movq	%rsi, 8(%rcx)
	movq	16(%rdx), %rsi
	movq	%rsi, 16(%rcx)
	movq	24(%rdx), %rdx
	movq	%rdx, 24(%rcx)
	.loc	1 1405 14
	addq	$64, %rsp
	popq	%rbp
	retq
Ltmp514:
LBB91_4:
Ltmp508:
	.loc	1 1402 13
	callq	__ZN4core9panicking19panic_cannot_unwind17h1fbca7e1d7f56ae1E
Ltmp515:
LBB91_5:
	movq	-16(%rbp), %rdi
	callq	__Unwind_Resume
Ltmp516:
Lfunc_end91:
	.cfi_endproc
	.section	__TEXT,__gcc_except_tab
	.p2align	2
GCC_except_table91:
Lexception13:
	.byte	255
	.byte	255
	.byte	1
	.uleb128 Lcst_end13-Lcst_begin13
Lcst_begin13:
	.uleb128 Ltmp503-Lfunc_begin91
	.uleb128 Ltmp504-Ltmp503
	.uleb128 Ltmp505-Lfunc_begin91
	.byte	0
	.uleb128 Ltmp506-Lfunc_begin91
	.uleb128 Ltmp507-Ltmp506
	.uleb128 Ltmp508-Lfunc_begin91
	.byte	0
	.uleb128 Ltmp507-Lfunc_begin91
	.uleb128 Lfunc_end91-Ltmp507
	.byte	0
	.byte	0
Lcst_end13:
	.p2align	2

	.section	__TEXT,__text,regular,pure_instructions
	.p2align	4, 0x90
__ZN3rug5float5arith111_$LT$impl$u20$rug..ops..AddAssignRound$LT$$RF$rug..float..big..Float$GT$$u20$for$u20$rug..float..big..Float$GT$16add_assign_round17h766b605fddfe69fcE:
Lfunc_begin92:
	.loc	1 1443 0
	.cfi_startproc
	pushq	%rbp
	.cfi_def_cfa_offset 16
	.cfi_offset %rbp, -16
	movq	%rsp, %rbp
	.cfi_def_cfa_register %rbp
	subq	$32, %rsp
	movb	%dl, %al
	movq	%rdi, -24(%rbp)
	movq	%rsi, -16(%rbp)
	movb	%al, -1(%rbp)
Ltmp517:
	.loc	1 1444 17 prologue_end
	movzbl	%al, %edx
	callq	__ZN3rug3ext5xmpfr3add17hf9cac92b85be8d63E
	.loc	1 1445 14
	addq	$32, %rsp
	popq	%rbp
	retq
Ltmp518:
Lfunc_end92:
	.cfi_endproc

	.p2align	4, 0x90
__ZN3rug5float5arith114_$LT$impl$u20$rug..ops..AssignRound$LT$rug..float..arith..MulIncomplete$GT$$u20$for$u20$rug..float..big..Float$GT$12assign_round17hffcf0ccaf85cad11E:
Lfunc_begin93:
	.loc	1 1458 0
	.cfi_startproc
	pushq	%rbp
	.cfi_def_cfa_offset 16
	.cfi_offset %rbp, -16
	movq	%rsp, %rbp
	.cfi_def_cfa_register %rbp
	subq	$32, %rsp
	movb	%cl, %al
	movq	%rdi, -32(%rbp)
	movq	%rsi, -24(%rbp)
	movq	%rdx, -16(%rbp)
	movb	%al, -1(%rbp)
Ltmp519:
	.loc	1 1459 17 prologue_end
	movzbl	%al, %ecx
	callq	__ZN3rug3ext5xmpfr3mul17hb8b021643b11977bE
	.loc	1 1460 14
	addq	$32, %rsp
	popq	%rbp
	retq
Ltmp520:
Lfunc_end93:
	.cfi_endproc

	.p2align	4, 0x90
__ZN3rug5float5arith117_$LT$impl$u20$rug..ops..AssignRound$LT$rug..float..arith..AddMulIncomplete$GT$$u20$for$u20$rug..float..big..Float$GT$12assign_round17h054d292996d3a46eE:
Lfunc_begin94:
	.loc	1 2325 0
	.cfi_startproc
	pushq	%rbp
	.cfi_def_cfa_offset 16
	.cfi_offset %rbp, -16
	movq	%rsp, %rbp
	.cfi_def_cfa_register %rbp
	subq	$16, %rsp
	movq	%rsi, %rcx
	movb	%dl, %al
	movq	%rdi, -16(%rbp)
Ltmp521:
	movb	%al, -1(%rbp)
Ltmp522:
	.loc	1 2326 29 prologue_end
	movq	16(%rcx), %rsi
	.loc	1 2326 38 is_stmt 0
	movq	(%rcx), %rdx
	movq	8(%rcx), %rcx
Ltmp523:
	.loc	1 2326 17
	movzbl	%al, %r8d
	callq	__ZN3rug5float5arith7add_mul17hb03c6e8a2dde518eE
	.loc	1 2327 14 is_stmt 1
	addq	$16, %rsp
	popq	%rbp
	retq
Ltmp524:
Lfunc_end94:
	.cfi_endproc

	.p2align	4, 0x90
__ZN3rug5float5arith118_$LT$impl$u20$core..ops..arith..Add$LT$rug..float..arith..MulIncomplete$GT$$u20$for$u20$$RF$rug..float..big..Float$GT$3add17hc1683ca751eeb378E:
Lfunc_begin95:
	.loc	1 2294 0
	.cfi_startproc
	pushq	%rbp
	.cfi_def_cfa_offset 16
	.cfi_offset %rbp, -16
	movq	%rsp, %rbp
	.cfi_def_cfa_register %rbp
	subq	$24, %rsp
	movq	%rdi, %rax
	movq	%rsi, -24(%rbp)
	movq	%rdx, -16(%rbp)
	movq	%rcx, -8(%rbp)
Ltmp525:
	.loc	1 2295 17 prologue_end
	movq	%rsi, 16(%rdi)
	movq	%rdx, (%rdi)
	movq	%rcx, 8(%rdi)
	.loc	1 2296 14
	addq	$24, %rsp
	popq	%rbp
	retq
Ltmp526:
Lfunc_end95:
	.cfi_endproc

	.p2align	4, 0x90
__ZN3rug5float5arith119_$LT$impl$u20$rug..ops..AssignRound$LT$rug..float..arith..MulUsizeIncomplete$GT$$u20$for$u20$rug..float..big..Float$GT$12assign_round17h155f0f12ef27b6e5E:
Lfunc_begin96:
	.loc	1 1982 0
	.cfi_startproc
	pushq	%rbp
	.cfi_def_cfa_offset 16
	.cfi_offset %rbp, -16
	movq	%rsp, %rbp
	.cfi_def_cfa_register %rbp
	subq	$48, %rsp
	movq	%rdx, -40(%rbp)
	movq	%rsi, %rdx
	movq	-40(%rbp), %rsi
	movb	%cl, %al
	movq	%rdi, -32(%rbp)
	movq	%rdx, -24(%rbp)
	movq	%rsi, -16(%rbp)
	movb	%al, -1(%rbp)
Ltmp527:
	.loc	1 1983 17 prologue_end
	movzbl	%al, %ecx
	callq	__ZN59_$LT$T$u20$as$u20$rug..float..arith..PrimOps$LT$u64$GT$$GT$3mul17hd1c41abdd3538b38E
	.loc	1 1984 14
	addq	$48, %rsp
	popq	%rbp
	retq
Ltmp528:
Lfunc_end96:
	.cfi_endproc

	.p2align	4, 0x90
__ZN3rug5float5arith120_$LT$impl$u20$rug..ops..AssignRound$LT$rug..float..arith..MulSubMulIncomplete$GT$$u20$for$u20$rug..float..big..Float$GT$12assign_round17hd43612f6edd72cd6E:
Lfunc_begin97:
	.loc	21 656 0
	.cfi_startproc
	pushq	%rbp
	.cfi_def_cfa_offset 16
	.cfi_offset %rbp, -16
	movq	%rsp, %rbp
	.cfi_def_cfa_register %rbp
	subq	$16, %rsp
	movq	%rsi, %r8
	movb	%dl, %al
	movq	%rdi, -16(%rbp)
Ltmp529:
	movb	%al, -1(%rbp)
Ltmp530:
	.loc	21 659 13 prologue_end
	movq	(%r8), %rsi
	.loc	21 660 13
	movq	8(%r8), %rdx
	.loc	21 661 13
	movq	16(%r8), %rcx
	.loc	21 662 13
	movq	24(%r8), %r8
Ltmp531:
	.loc	21 657 9
	movzbl	%al, %r9d
	callq	__ZN3rug3ext5xmpfr4fmms17h6d69493fe44f3f5eE
	.loc	21 665 6
	addq	$16, %rsp
	popq	%rbp
	retq
Ltmp532:
Lfunc_end97:
	.cfi_endproc

	.p2align	4, 0x90
__ZN3rug5float5arith78_$LT$impl$u20$core..ops..arith..Mul$u20$for$u20$$RF$rug..float..big..Float$GT$3mul17hf16f6bc5f10bc895E:
Lfunc_begin98:
	.loc	1 1411 0
	.cfi_startproc
	pushq	%rbp
	.cfi_def_cfa_offset 16
	.cfi_offset %rbp, -16
	movq	%rsp, %rbp
	.cfi_def_cfa_register %rbp
	subq	$32, %rsp
	movq	%rdi, -16(%rbp)
	movq	%rsi, -8(%rbp)
Ltmp533:
	.loc	1 1412 17 prologue_end
	movq	%rdi, -32(%rbp)
	movq	%rsi, -24(%rbp)
	.loc	1 1413 14
	movq	-32(%rbp), %rax
	movq	-24(%rbp), %rdx
	addq	$32, %rsp
	popq	%rbp
	retq
Ltmp534:
Lfunc_end98:
	.cfi_endproc

	.globl	__ZN3rug5float5arith7add_mul17hb03c6e8a2dde518eE
	.p2align	4, 0x90
__ZN3rug5float5arith7add_mul17hb03c6e8a2dde518eE:
Lfunc_begin99:
	.loc	21 680 0
	.cfi_startproc
	pushq	%rbp
	.cfi_def_cfa_offset 16
	.cfi_offset %rbp, -16
	movq	%rsp, %rbp
	.cfi_def_cfa_register %rbp
	subq	$64, %rsp
	movq	%rcx, -56(%rbp)
	movq	%rdx, %rax
	movq	-56(%rbp), %rdx
	movq	%rax, -48(%rbp)
	movq	%rsi, %rcx
	movq	-48(%rbp), %rsi
	movb	%r8b, %al
	movq	%rdi, -40(%rbp)
	movq	%rcx, -32(%rbp)
	movq	%rsi, -24(%rbp)
	movq	%rdx, -16(%rbp)
	movb	%al, -1(%rbp)
Ltmp535:
	.loc	21 681 5 prologue_end
	movzbl	%al, %r8d
	callq	__ZN3rug3ext5xmpfr3fma17h50b1c7f51cc66f08E
	.loc	21 682 2
	addq	$64, %rsp
	popq	%rbp
	retq
Ltmp536:
Lfunc_end99:
	.cfi_endproc

	.p2align	4, 0x90
__ZN3rug5float5arith91_$LT$impl$u20$core..ops..arith..Mul$LT$$RF$rug..float..big..Float$GT$$u20$for$u20$usize$GT$3mul17h78ae2e12b6af7266E:
Lfunc_begin100:
	.loc	1 2083 0
	.cfi_startproc
	pushq	%rbp
	.cfi_def_cfa_offset 16
	.cfi_offset %rbp, -16
	movq	%rsp, %rbp
	.cfi_def_cfa_register %rbp
	subq	$32, %rsp
	movq	%rsi, -24(%rbp)
	movq	%rdi, %rsi
	movq	-24(%rbp), %rdi
	movq	%rsi, -16(%rbp)
	movq	%rdi, -8(%rbp)
Ltmp537:
	.loc	1 2084 17 prologue_end
	callq	__ZN3rug5float5arith91_$LT$impl$u20$core..ops..arith..Mul$LT$usize$GT$$u20$for$u20$$RF$rug..float..big..Float$GT$3mul17h64413c7a4bd6ff3cE
	.loc	1 2085 14
	addq	$32, %rsp
	popq	%rbp
	retq
Ltmp538:
Lfunc_end100:
	.cfi_endproc

	.p2align	4, 0x90
__ZN3rug5float5arith91_$LT$impl$u20$core..ops..arith..Mul$LT$usize$GT$$u20$for$u20$$RF$rug..float..big..Float$GT$3mul17h64413c7a4bd6ff3cE:
Lfunc_begin101:
	.loc	1 1945 0
	.cfi_startproc
	pushq	%rbp
	.cfi_def_cfa_offset 16
	.cfi_offset %rbp, -16
	movq	%rsp, %rbp
	.cfi_def_cfa_register %rbp
	subq	$32, %rsp
	movq	%rdi, -16(%rbp)
	movq	%rsi, -8(%rbp)
Ltmp539:
	.loc	1 1946 17 prologue_end
	movq	%rdi, -24(%rbp)
	movq	%rsi, -32(%rbp)
	.loc	1 1947 14
	movq	-32(%rbp), %rax
	movq	-24(%rbp), %rdx
	addq	$32, %rsp
	popq	%rbp
	retq
Ltmp540:
Lfunc_end101:
	.cfi_endproc

	.p2align	4, 0x90
__ZN3rug5float5arith91_$LT$impl$u20$core..ops..arith..MulAssign$LT$f64$GT$$u20$for$u20$rug..float..big..Float$GT$10mul_assign17h494b6b7ff3570dfcE:
Lfunc_begin102:
	.loc	1 1960 0
	.cfi_startproc
	pushq	%rbp
	.cfi_def_cfa_offset 16
	.cfi_offset %rbp, -16
	movq	%rsp, %rbp
	.cfi_def_cfa_register %rbp
	subq	$32, %rsp
	movq	%rdi, -16(%rbp)
	movsd	%xmm0, -8(%rbp)
Ltmp541:
	.loc	21 308 24 prologue_end
	movb	$0, -17(%rbp)
	.loc	1 1961 17
	movzbl	-17(%rbp), %esi
	callq	__ZN59_$LT$T$u20$as$u20$rug..float..arith..PrimOps$LT$f64$GT$$GT$3mul17h8b9454ebeb2851e0E
	.loc	1 1962 14
	addq	$32, %rsp
	popq	%rbp
	retq
Ltmp542:
Lfunc_end102:
	.cfi_endproc

	.p2align	4, 0x90
__ZN3rug5float5casts106_$LT$impl$u20$az..CheckedCast$LT$rug..integer..big..Integer$GT$$u20$for$u20$$RF$rug..float..big..Float$GT$12checked_cast17h84ee7f2d48947f66E:
Lfunc_begin103:
	.file	22 "/Users/natalie/.cargo/registry/src/github.com-1ecc6299db9ec823/rug-1.19.0/src/float" "casts.rs"
	.loc	22 296 0
	.cfi_startproc
	pushq	%rbp
	.cfi_def_cfa_offset 16
	.cfi_offset %rbp, -16
	movq	%rsp, %rbp
	.cfi_def_cfa_register %rbp
	subq	$64, %rsp
	movq	%rdi, -56(%rbp)
	movq	%rdi, -48(%rbp)
	movq	%rsi, -8(%rbp)
Ltmp543:
	.loc	22 297 31 prologue_end
	movb	$0, -9(%rbp)
	.loc	22 297 9 is_stmt 0
	leaq	-40(%rbp), %rdi
	movzbl	-9(%rbp), %edx
	callq	__ZN3rug5float3big5Float16to_integer_round17hb1d9d22c5b34144eE
	movq	-56(%rbp), %rdi
	leaq	-40(%rbp), %rsi
	callq	__ZN4core6option15Option$LT$T$GT$3map17h955c45a8ca881c52E
	movq	-48(%rbp), %rax
	.loc	22 298 6 is_stmt 1
	addq	$64, %rsp
	popq	%rbp
	retq
Ltmp544:
Lfunc_end103:
	.cfi_endproc

	.globl	__ZN3rug5float5casts106_$LT$impl$u20$az..CheckedCast$LT$rug..integer..big..Integer$GT$$u20$for$u20$$RF$rug..float..big..Float$GT$12checked_cast28_$u7b$$u7b$closure$u7d$$u7d$17h8601055b0ac269e4E
	.p2align	4, 0x90
__ZN3rug5float5casts106_$LT$impl$u20$az..CheckedCast$LT$rug..integer..big..Integer$GT$$u20$for$u20$$RF$rug..float..big..Float$GT$12checked_cast28_$u7b$$u7b$closure$u7d$$u7d$17h8601055b0ac269e4E:
Lfunc_begin104:
	.loc	22 297 0
	.cfi_startproc
	pushq	%rbp
	.cfi_def_cfa_offset 16
	.cfi_offset %rbp, -16
	movq	%rsp, %rbp
	.cfi_def_cfa_register %rbp
	pushq	%rax
	movq	%rdi, %rax
Ltmp545:
	.loc	22 297 55 prologue_end
	movq	(%rsi), %rcx
	movq	%rcx, (%rdi)
	movq	8(%rsi), %rcx
	movq	%rcx, 8(%rdi)
	.loc	22 297 58 is_stmt 0
	addq	$8, %rsp
	popq	%rbp
	retq
Ltmp546:
Lfunc_end104:
	.cfi_endproc

	.p2align	4, 0x90
__ZN3rug5float5small10SmallFloat8update_d17hf617f357860ef293E:
Lfunc_begin105:
	.file	23 "/Users/natalie/.cargo/registry/src/github.com-1ecc6299db9ec823/rug-1.19.0/src/float" "small.rs"
	.loc	23 173 0 is_stmt 1
	.cfi_startproc
	pushq	%rbp
	.cfi_def_cfa_offset 16
	.cfi_offset %rbp, -16
	movq	%rsp, %rbp
	.cfi_def_cfa_register %rbp
	subq	$48, %rsp
	movq	%rdi, -40(%rbp)
	movq	%rdi, -32(%rbp)
Ltmp547:
	.loc	23 176 57 prologue_end
	addq	$32, %rdi
	leaq	l___unnamed_30(%rip), %rsi
	callq	__ZN4core5array85_$LT$impl$u20$core..ops..index..Index$LT$I$GT$$u20$for$u20$$u5b$T$u3b$$u20$N$u5d$$GT$5index17h96cd2ab2546c5a13E
	movq	%rax, %rdi
	movq	%rdx, %rsi
	.loc	23 176 17 is_stmt 0
	callq	__ZN90_$LT$core..ptr..non_null..NonNull$LT$T$GT$$u20$as$u20$core..convert..From$LT$$RF$T$GT$$GT$4from17h0283b40564b27f10E
	movq	%rax, %rdi
	movq	%rdx, %rsi
	movq	%rdi, -24(%rbp)
	movq	%rsi, -16(%rbp)
Ltmp548:
	.loc	23 179 35 is_stmt 1
	callq	__ZN4core3ptr8non_null16NonNull$LT$T$GT$4cast17h872ee0e0c13bb486E
	movq	-40(%rbp), %rdi
	.loc	23 179 14 is_stmt 0
	movq	%rdi, %rcx
	addq	$24, %rcx
	movq	%rcx, -8(%rbp)
	.loc	23 179 13
	movq	%rax, 24(%rdi)
Ltmp549:
	.loc	23 181 6 is_stmt 1
	addq	$48, %rsp
	popq	%rbp
	retq
Ltmp550:
Lfunc_end105:
	.cfi_endproc

	.p2align	4, 0x90
__ZN3rug5float6traits108_$LT$impl$u20$rug..ops..AssignRound$LT$$RF$rug..float..big..Float$GT$$u20$for$u20$rug..float..big..Float$GT$12assign_round17h6248361667485336E:
Lfunc_begin106:
	.file	24 "/Users/natalie/.cargo/registry/src/github.com-1ecc6299db9ec823/rug-1.19.0/src/float" "traits.rs"
	.loc	24 218 0
	.cfi_startproc
	pushq	%rbp
	.cfi_def_cfa_offset 16
	.cfi_offset %rbp, -16
	movq	%rsp, %rbp
	.cfi_def_cfa_register %rbp
	subq	$32, %rsp
	movb	%dl, %al
	movq	%rdi, -24(%rbp)
	movq	%rsi, -16(%rbp)
	movb	%al, -1(%rbp)
Ltmp551:
	.loc	24 219 9 prologue_end
	movzbl	%al, %edx
	callq	__ZN3rug3ext5xmpfr3set17h256ed9c4666fd28dE
	.loc	24 220 6
	addq	$32, %rsp
	popq	%rbp
	retq
Ltmp552:
Lfunc_end106:
	.cfi_endproc

	.p2align	4, 0x90
__ZN3rug5float6traits71_$LT$impl$u20$core..clone..Clone$u20$for$u20$rug..float..big..Float$GT$5clone17h91e2a09f5678e662E:
Lfunc_begin107:
	.loc	24 39 0
	.cfi_startproc
	.cfi_personality 155, _rust_eh_personality
	.cfi_lsda 16, Lexception14
	pushq	%rbp
	.cfi_def_cfa_offset 16
	.cfi_offset %rbp, -16
	movq	%rsp, %rbp
	.cfi_def_cfa_register %rbp
	subq	$64, %rsp
	movq	%rsi, -40(%rbp)
	movq	%rdi, %rax
	movq	-40(%rbp), %rdi
	movq	%rax, -48(%rbp)
Ltmp561:
	movq	%rax, -56(%rbp)
	movq	%rdi, -24(%rbp)
Ltmp562:
	.loc	24 40 38 prologue_end
	callq	__ZN3rug5float3big5Float4prec17hdacce20da24ca099E
	movq	-48(%rbp), %rdi
	movl	%eax, %esi
	.loc	24 40 23 is_stmt 0
	callq	__ZN3rug5float3big5Float7new_nan17h59b2e74e5131f901E
	movq	-40(%rbp), %rdi
Ltmp553:
Ltmp563:
	.loc	24 41 13 is_stmt 1
	callq	__ZN3rug5float3big5Float6is_nan17h772b8462e1646305E
Ltmp554:
	movb	%al, -25(%rbp)
	jmp	LBB107_3
Ltmp564:
LBB107_1:
Ltmp558:
	.loc	24 0 13 is_stmt 0
	movq	-48(%rbp), %rdi
	.loc	24 45 5 is_stmt 1
	callq	__ZN4core3ptr43drop_in_place$LT$rug..float..big..Float$GT$17he0bd4893918cadc0E
Ltmp559:
	jmp	LBB107_8
LBB107_2:
Ltmp557:
	.loc	24 0 5 is_stmt 0
	movq	%rax, %rcx
	movl	%edx, %eax
	movq	%rcx, -16(%rbp)
	movl	%eax, -8(%rbp)
	jmp	LBB107_1
LBB107_3:
Ltmp565:
	movb	-25(%rbp), %al
Ltmp566:
	.loc	24 41 12 is_stmt 1
	xorb	$-1, %al
	testb	$1, %al
	jne	LBB107_5
Ltmp567:
LBB107_4:
	.loc	24 0 12 is_stmt 0
	movq	-56(%rbp), %rax
	.loc	24 45 6 is_stmt 1
	addq	$64, %rsp
	popq	%rbp
	retq
LBB107_5:
Ltmp568:
Ltmp555:
	.loc	24 0 6 is_stmt 0
	movq	-40(%rbp), %rsi
	movq	-48(%rbp), %rdi
Ltmp569:
	.loc	24 42 13 is_stmt 1
	callq	__ZN3rug5float6traits73_$LT$impl$u20$rug..Assign$LT$T$GT$$u20$for$u20$rug..float..big..Float$GT$6assign17hd5ec148e9cd48b7fE
Ltmp556:
	jmp	LBB107_6
Ltmp570:
LBB107_6:
	jmp	LBB107_4
Ltmp571:
LBB107_7:
Ltmp560:
	.loc	24 39 5
	callq	__ZN4core9panicking19panic_cannot_unwind17h1fbca7e1d7f56ae1E
LBB107_8:
	movq	-16(%rbp), %rdi
	callq	__Unwind_Resume
Ltmp572:
Lfunc_end107:
	.cfi_endproc
	.section	__TEXT,__gcc_except_tab
	.p2align	2
GCC_except_table107:
Lexception14:
	.byte	255
	.byte	255
	.byte	1
	.uleb128 Lcst_end14-Lcst_begin14
Lcst_begin14:
	.uleb128 Lfunc_begin107-Lfunc_begin107
	.uleb128 Ltmp553-Lfunc_begin107
	.byte	0
	.byte	0
	.uleb128 Ltmp553-Lfunc_begin107
	.uleb128 Ltmp554-Ltmp553
	.uleb128 Ltmp557-Lfunc_begin107
	.byte	0
	.uleb128 Ltmp558-Lfunc_begin107
	.uleb128 Ltmp559-Ltmp558
	.uleb128 Ltmp560-Lfunc_begin107
	.byte	0
	.uleb128 Ltmp555-Lfunc_begin107
	.uleb128 Ltmp556-Ltmp555
	.uleb128 Ltmp557-Lfunc_begin107
	.byte	0
	.uleb128 Ltmp556-Lfunc_begin107
	.uleb128 Lfunc_end107-Ltmp556
	.byte	0
	.byte	0
Lcst_end14:
	.p2align	2

	.section	__TEXT,__text,regular,pure_instructions
	.globl	__ZN3rug5float6traits73_$LT$impl$u20$rug..Assign$LT$T$GT$$u20$for$u20$rug..float..big..Float$GT$6assign17h6e78daa61ff67d2dE
	.p2align	4, 0x90
__ZN3rug5float6traits73_$LT$impl$u20$rug..Assign$LT$T$GT$$u20$for$u20$rug..float..big..Float$GT$6assign17h6e78daa61ff67d2dE:
Lfunc_begin108:
	.loc	24 164 0
	.cfi_startproc
	pushq	%rbp
	.cfi_def_cfa_offset 16
	.cfi_offset %rbp, -16
	movq	%rsp, %rbp
	.cfi_def_cfa_register %rbp
	subq	$32, %rsp
	movq	%rdi, -16(%rbp)
	movq	%rsi, -8(%rbp)
Ltmp573:
	.loc	24 165 32 prologue_end
	movb	$0, -17(%rbp)
	.loc	24 165 9 is_stmt 0
	movzbl	-17(%rbp), %edx
	callq	__ZN3rug5float6traits87_$LT$impl$u20$rug..ops..AssignRound$LT$usize$GT$$u20$for$u20$rug..float..big..Float$GT$12assign_round17h570f9f0fecb63e8fE
	.loc	24 166 6 is_stmt 1
	addq	$32, %rsp
	popq	%rbp
	retq
Ltmp574:
Lfunc_end108:
	.cfi_endproc

	.globl	__ZN3rug5float6traits73_$LT$impl$u20$rug..Assign$LT$T$GT$$u20$for$u20$rug..float..big..Float$GT$6assign17ha4045b3923d621e3E
	.p2align	4, 0x90
__ZN3rug5float6traits73_$LT$impl$u20$rug..Assign$LT$T$GT$$u20$for$u20$rug..float..big..Float$GT$6assign17ha4045b3923d621e3E:
Lfunc_begin109:
	.loc	24 164 0
	.cfi_startproc
	pushq	%rbp
	.cfi_def_cfa_offset 16
	.cfi_offset %rbp, -16
	movq	%rsp, %rbp
	.cfi_def_cfa_register %rbp
	subq	$32, %rsp
	movq	%rdi, -16(%rbp)
	movsd	%xmm0, -8(%rbp)
Ltmp575:
	.loc	24 165 32 prologue_end
	movb	$0, -17(%rbp)
	.loc	24 165 9 is_stmt 0
	movzbl	-17(%rbp), %esi
	callq	__ZN3rug5float6traits85_$LT$impl$u20$rug..ops..AssignRound$LT$f64$GT$$u20$for$u20$rug..float..big..Float$GT$12assign_round17h495533e5e5df5d00E
	.loc	24 166 6 is_stmt 1
	addq	$32, %rsp
	popq	%rbp
	retq
Ltmp576:
Lfunc_end109:
	.cfi_endproc

	.globl	__ZN3rug5float6traits73_$LT$impl$u20$rug..Assign$LT$T$GT$$u20$for$u20$rug..float..big..Float$GT$6assign17hd5ec148e9cd48b7fE
	.p2align	4, 0x90
__ZN3rug5float6traits73_$LT$impl$u20$rug..Assign$LT$T$GT$$u20$for$u20$rug..float..big..Float$GT$6assign17hd5ec148e9cd48b7fE:
Lfunc_begin110:
	.loc	24 164 0
	.cfi_startproc
	pushq	%rbp
	.cfi_def_cfa_offset 16
	.cfi_offset %rbp, -16
	movq	%rsp, %rbp
	.cfi_def_cfa_register %rbp
	subq	$32, %rsp
	movq	%rdi, -16(%rbp)
	movq	%rsi, -8(%rbp)
Ltmp577:
	.loc	24 165 32 prologue_end
	movb	$0, -17(%rbp)
	.loc	24 165 9 is_stmt 0
	movzbl	-17(%rbp), %edx
	callq	__ZN3rug5float6traits108_$LT$impl$u20$rug..ops..AssignRound$LT$$RF$rug..float..big..Float$GT$$u20$for$u20$rug..float..big..Float$GT$12assign_round17h6248361667485336E
	.loc	24 166 6 is_stmt 1
	addq	$32, %rsp
	popq	%rbp
	retq
Ltmp578:
Lfunc_end110:
	.cfi_endproc

	.globl	__ZN3rug5float6traits73_$LT$impl$u20$rug..Assign$LT$T$GT$$u20$for$u20$rug..float..big..Float$GT$6assign17hdb993bbfc1e5577dE
	.p2align	4, 0x90
__ZN3rug5float6traits73_$LT$impl$u20$rug..Assign$LT$T$GT$$u20$for$u20$rug..float..big..Float$GT$6assign17hdb993bbfc1e5577dE:
Lfunc_begin111:
	.loc	24 164 0
	.cfi_startproc
	pushq	%rbp
	.cfi_def_cfa_offset 16
	.cfi_offset %rbp, -16
	movq	%rsp, %rbp
	.cfi_def_cfa_register %rbp
	subq	$48, %rsp
	movq	%rdi, -8(%rbp)
Ltmp579:
	.loc	24 165 27 prologue_end
	movq	(%rsi), %rax
	movq	%rax, -48(%rbp)
	movq	8(%rsi), %rax
	movq	%rax, -40(%rbp)
	movq	16(%rsi), %rax
	movq	%rax, -32(%rbp)
	movq	24(%rsi), %rax
	movq	%rax, -24(%rbp)
	.loc	24 165 32 is_stmt 0
	movb	$0, -9(%rbp)
	.loc	24 165 9
	leaq	-48(%rbp), %rsi
Ltmp580:
	movzbl	-9(%rbp), %edx
	callq	__ZN3rug5float5arith120_$LT$impl$u20$rug..ops..AssignRound$LT$rug..float..arith..MulSubMulIncomplete$GT$$u20$for$u20$rug..float..big..Float$GT$12assign_round17hd43612f6edd72cd6E
	.loc	24 166 6 is_stmt 1
	addq	$48, %rsp
	popq	%rbp
	retq
Ltmp581:
Lfunc_end111:
	.cfi_endproc

	.globl	__ZN3rug5float6traits73_$LT$impl$u20$rug..Assign$LT$T$GT$$u20$for$u20$rug..float..big..Float$GT$6assign17hf43c84fe72109973E
	.p2align	4, 0x90
__ZN3rug5float6traits73_$LT$impl$u20$rug..Assign$LT$T$GT$$u20$for$u20$rug..float..big..Float$GT$6assign17hf43c84fe72109973E:
Lfunc_begin112:
	.loc	24 164 0
	.cfi_startproc
	pushq	%rbp
	.cfi_def_cfa_offset 16
	.cfi_offset %rbp, -16
	movq	%rsp, %rbp
	.cfi_def_cfa_register %rbp
	subq	$48, %rsp
	movq	%rdi, -8(%rbp)
Ltmp582:
	.loc	24 165 27 prologue_end
	movq	(%rsi), %rax
	movq	%rax, -40(%rbp)
	movq	8(%rsi), %rax
	movq	%rax, -32(%rbp)
	movq	16(%rsi), %rax
	movq	%rax, -24(%rbp)
	.loc	24 165 32 is_stmt 0
	movb	$0, -9(%rbp)
	.loc	24 165 9
	leaq	-40(%rbp), %rsi
Ltmp583:
	movzbl	-9(%rbp), %edx
	callq	__ZN3rug5float5arith117_$LT$impl$u20$rug..ops..AssignRound$LT$rug..float..arith..AddMulIncomplete$GT$$u20$for$u20$rug..float..big..Float$GT$12assign_round17h054d292996d3a46eE
	.loc	24 166 6 is_stmt 1
	addq	$48, %rsp
	popq	%rbp
	retq
Ltmp584:
Lfunc_end112:
	.cfi_endproc

	.p2align	4, 0x90
__ZN3rug5float6traits85_$LT$impl$u20$rug..ops..AssignRound$LT$f64$GT$$u20$for$u20$rug..float..big..Float$GT$12assign_round17h495533e5e5df5d00E:
Lfunc_begin113:
	.loc	24 257 0
	.cfi_startproc
	pushq	%rbp
	.cfi_def_cfa_offset 16
	.cfi_offset %rbp, -16
	movq	%rsp, %rbp
	.cfi_def_cfa_register %rbp
	subq	$48, %rsp
	movq	%rdi, -40(%rbp)
	movb	%sil, %al
	movb	%al, -25(%rbp)
	movq	%rdi, -24(%rbp)
	movsd	%xmm0, -16(%rbp)
	movb	%al, -1(%rbp)
Ltmp585:
	.loc	24 258 28 prologue_end
	callq	__ZN50_$LT$T$u20$as$u20$core..convert..Into$LT$U$GT$$GT$4into17h33a78dff20e8f15eE
	movq	-40(%rbp), %rdi
	movb	-25(%rbp), %al
	.loc	24 258 17 is_stmt 0
	movzbl	%al, %esi
	callq	__ZN3rug3ext5xmpfr7set_f6417h591bb7d6cb10f26eE
	.loc	24 259 14 is_stmt 1
	addq	$48, %rsp
	popq	%rbp
	retq
Ltmp586:
Lfunc_end113:
	.cfi_endproc

	.p2align	4, 0x90
__ZN3rug5float6traits85_$LT$impl$u20$rug..ops..AssignRound$LT$u64$GT$$u20$for$u20$rug..float..big..Float$GT$12assign_round17h62fb42dc2efb6f99E:
Lfunc_begin114:
	.loc	24 257 0
	.cfi_startproc
	pushq	%rbp
	.cfi_def_cfa_offset 16
	.cfi_offset %rbp, -16
	movq	%rsp, %rbp
	.cfi_def_cfa_register %rbp
	subq	$48, %rsp
	movq	%rsi, -48(%rbp)
	movq	%rdi, %rcx
	movq	-48(%rbp), %rdi
	movq	%rcx, -40(%rbp)
	movb	%dl, %al
	movb	%al, -25(%rbp)
	movq	%rcx, -24(%rbp)
	movq	%rdi, -16(%rbp)
	movb	%al, -1(%rbp)
Ltmp587:
	.loc	24 258 28 prologue_end
	callq	__ZN50_$LT$T$u20$as$u20$core..convert..Into$LT$U$GT$$GT$4into17hdce0dd4a0259ae96E
	movq	-40(%rbp), %rdi
	movq	%rax, %rsi
	movb	-25(%rbp), %al
	.loc	24 258 17 is_stmt 0
	movzbl	%al, %edx
	callq	__ZN3rug3ext5xmpfr6set_uj17hc94fc4bd9fe63e84E
	.loc	24 259 14 is_stmt 1
	addq	$48, %rsp
	popq	%rbp
	retq
Ltmp588:
Lfunc_end114:
	.cfi_endproc

	.p2align	4, 0x90
__ZN3rug5float6traits87_$LT$impl$u20$rug..ops..AssignRound$LT$usize$GT$$u20$for$u20$rug..float..big..Float$GT$12assign_round17h570f9f0fecb63e8fE:
Lfunc_begin115:
	.loc	24 272 0
	.cfi_startproc
	pushq	%rbp
	.cfi_def_cfa_offset 16
	.cfi_offset %rbp, -16
	movq	%rsp, %rbp
	.cfi_def_cfa_register %rbp
	subq	$48, %rsp
	movq	%rsi, -48(%rbp)
	movq	%rdi, %rcx
	movq	-48(%rbp), %rdi
	movq	%rcx, -40(%rbp)
	movb	%dl, %al
	movb	%al, -25(%rbp)
	movq	%rcx, -24(%rbp)
	movq	%rdi, -16(%rbp)
	movb	%al, -1(%rbp)
Ltmp589:
	.loc	24 273 35 prologue_end
	leaq	l___unnamed_31(%rip), %rsi
	callq	__ZN37_$LT$T$u20$as$u20$az..UnwrappedAs$GT$12unwrapped_as17h7782edf5cd1c2bacE
	movq	-40(%rbp), %rdi
	movq	%rax, %rsi
	movb	-25(%rbp), %al
	.loc	24 273 17 is_stmt 0
	movzbl	%al, %edx
	callq	__ZN3rug5float6traits85_$LT$impl$u20$rug..ops..AssignRound$LT$u64$GT$$u20$for$u20$rug..float..big..Float$GT$12assign_round17h62fb42dc2efb6f99E
	.loc	24 274 14 is_stmt 1
	addq	$48, %rsp
	popq	%rbp
	retq
Ltmp590:
Lfunc_end115:
	.cfi_endproc

	.p2align	4, 0x90
__ZN3rug5float8prec_max17had8abec44d71959dE:
Lfunc_begin116:
	.file	25 "/Users/natalie/.cargo/registry/src/github.com-1ecc6299db9ec823/rug-1.19.0/src/float" "mod.rs"
	.loc	25 124 0
	.cfi_startproc
	pushq	%rbp
	.cfi_def_cfa_offset 16
	.cfi_offset %rbp, -16
	movq	%rsp, %rbp
	.cfi_def_cfa_register %rbp
Ltmp591:
	.loc	25 130 2 prologue_end
	movl	$4294967295, %eax
	popq	%rbp
	retq
Ltmp592:
Lfunc_end116:
	.cfi_endproc

	.p2align	4, 0x90
__ZN3rug5float8prec_min17hf92a84df0d2ceeb7E:
Lfunc_begin117:
	.loc	25 109 0
	.cfi_startproc
	pushq	%rbp
	.cfi_def_cfa_offset 16
	.cfi_offset %rbp, -16
	movq	%rsp, %rbp
	.cfi_def_cfa_register %rbp
Ltmp593:
	.loc	25 111 2 prologue_end
	movl	$1, %eax
	popq	%rbp
	retq
Ltmp594:
Lfunc_end117:
	.cfi_endproc

	.p2align	4, 0x90
__ZN3rug7complex3big7Complex10as_raw_mut17h054b84bedf863127E:
Lfunc_begin118:
	.file	26 "/Users/natalie/.cargo/registry/src/github.com-1ecc6299db9ec823/rug-1.19.0/src/complex" "big.rs"
	.loc	26 511 0
	.cfi_startproc
	pushq	%rbp
	.cfi_def_cfa_offset 16
	.cfi_offset %rbp, -16
	movq	%rsp, %rbp
	.cfi_def_cfa_register %rbp
	pushq	%rax
	movq	%rdi, %rax
	movq	%rax, -8(%rbp)
Ltmp595:
	.loc	26 513 6 prologue_end
	addq	$8, %rsp
	popq	%rbp
	retq
Ltmp596:
Lfunc_end118:
	.cfi_endproc

	.p2align	4, 0x90
__ZN3rug7complex3big7Complex10square_mut17hf1a4918b1aa2ed63E:
Lfunc_begin119:
	.loc	26 1526 0
	.cfi_startproc
	pushq	%rbp
	.cfi_def_cfa_offset 16
	.cfi_offset %rbp, -16
	movq	%rsp, %rbp
	.cfi_def_cfa_register %rbp
	subq	$16, %rsp
	movq	%rdi, -8(%rbp)
Ltmp597:
	.loc	26 1527 9 prologue_end
	movb	l___unnamed_32(%rip), %al
	movzbl	%al, %esi
	movzbl	l___unnamed_32+1(%rip), %edx
	callq	__ZN3rug7complex3big7Complex12square_round17h428d13f7d64db2f8E
	.loc	26 1528 6
	addq	$16, %rsp
	popq	%rbp
	retq
Ltmp598:
Lfunc_end119:
	.cfi_endproc

	.p2align	4, 0x90
__ZN3rug7complex3big7Complex12square_round17h428d13f7d64db2f8E:
Lfunc_begin120:
	.loc	26 1546 0
	.cfi_startproc
	pushq	%rbp
	.cfi_def_cfa_offset 16
	.cfi_offset %rbp, -16
	movq	%rsp, %rbp
	.cfi_def_cfa_register %rbp
	subq	$16, %rsp
	movb	%dl, %al
	movb	%sil, %cl
	movq	%rdi, -16(%rbp)
	movb	%cl, -8(%rbp)
	movb	%al, -7(%rbp)
Ltmp599:
	.loc	26 1547 9 prologue_end
	movzbl	%cl, %esi
	movzbl	%al, %edx
	callq	__ZN3rug3ext4xmpc3sqr17h7923ff99bad167e9E
	.loc	26 1548 6
	addq	$16, %rsp
	popq	%rbp
	retq
Ltmp600:
Lfunc_end120:
	.cfi_endproc

	.p2align	4, 0x90
__ZN3rug7complex3big7Complex4imag17h8a54c7422e0683ffE:
Lfunc_begin121:
	.loc	26 721 0
	.cfi_startproc
	pushq	%rbp
	.cfi_def_cfa_offset 16
	.cfi_offset %rbp, -16
	movq	%rsp, %rbp
	.cfi_def_cfa_register %rbp
	subq	$16, %rsp
	movq	%rdi, -8(%rbp)
Ltmp601:
	.loc	26 722 9 prologue_end
	callq	__ZN3rug3ext4xmpc13imagref_const17h12b3ad36cec71345E
	.loc	26 723 6
	addq	$16, %rsp
	popq	%rbp
	retq
Ltmp602:
Lfunc_end121:
	.cfi_endproc

	.p2align	4, 0x90
__ZN3rug7complex3big7Complex4real17hb47b03ad5da49b84E:
Lfunc_begin122:
	.loc	26 707 0
	.cfi_startproc
	pushq	%rbp
	.cfi_def_cfa_offset 16
	.cfi_offset %rbp, -16
	movq	%rsp, %rbp
	.cfi_def_cfa_register %rbp
	subq	$16, %rsp
	movq	%rdi, -8(%rbp)
Ltmp603:
	.loc	26 708 9 prologue_end
	callq	__ZN3rug3ext4xmpc13realref_const17h28222b26dbd55995E
	.loc	26 709 6
	addq	$16, %rsp
	popq	%rbp
	retq
Ltmp604:
Lfunc_end122:
	.cfi_endproc

	.p2align	4, 0x90
__ZN3rug7complex3big7Complex6as_raw17h2a8997cdf5e213eeE:
Lfunc_begin123:
	.loc	26 489 0
	.cfi_startproc
	pushq	%rbp
	.cfi_def_cfa_offset 16
	.cfi_offset %rbp, -16
	movq	%rsp, %rbp
	.cfi_def_cfa_register %rbp
	pushq	%rax
	movq	%rdi, %rax
	movq	%rax, -8(%rbp)
Ltmp605:
	.loc	26 491 6 prologue_end
	addq	$8, %rsp
	popq	%rbp
	retq
Ltmp606:
Lfunc_end123:
	.cfi_endproc

	.globl	__ZN3rug7complex3big7Complex7new_nan17h862f1fc0485dc6bdE
	.p2align	4, 0x90
__ZN3rug7complex3big7Complex7new_nan17h862f1fc0485dc6bdE:
Lfunc_begin124:
	.loc	26 195 0
	.cfi_startproc
	pushq	%rbp
	.cfi_def_cfa_offset 16
	.cfi_offset %rbp, -16
	movq	%rsp, %rbp
	.cfi_def_cfa_register %rbp
	subq	$320, %rsp
	movl	%esi, -292(%rbp)
	movq	%rdi, %rax
	movl	-292(%rbp), %edi
	movq	%rax, -288(%rbp)
	movq	%rax, -280(%rbp)
	movl	%edi, -76(%rbp)
Ltmp607:
	.loc	26 196 17 prologue_end
	callq	__ZN42_$LT$u32$u20$as$u20$rug..complex..Prec$GT$4prec17hfa32d8e67c91aa6bE
	movl	%eax, -264(%rbp)
	movl	%edx, -268(%rbp)
	movl	%eax, -72(%rbp)
	movl	%edx, -68(%rbp)
Ltmp608:
	.loc	26 198 20
	callq	__ZN3rug5float8prec_min17hf92a84df0d2ceeb7E
	movl	%eax, %ecx
	movl	-264(%rbp), %eax
	.loc	26 198 13 is_stmt 0
	cmpl	%ecx, %eax
	jae	LBB124_2
	movb	$0, -257(%rbp)
	jmp	LBB124_3
LBB124_2:
	.loc	26 199 27 is_stmt 1
	callq	__ZN3rug5float8prec_max17had8abec44d71959dE
	movl	%eax, %ecx
	movl	-264(%rbp), %eax
	.loc	26 199 20 is_stmt 0
	cmpl	%ecx, %eax
	setbe	%al
	.loc	26 198 13 is_stmt 1
	andb	$1, %al
	movb	%al, -257(%rbp)
LBB124_3:
	testb	$1, -257(%rbp)
	jne	LBB124_5
	movb	$0, -258(%rbp)
	jmp	LBB124_6
LBB124_5:
	.loc	26 200 27
	callq	__ZN3rug5float8prec_min17hf92a84df0d2ceeb7E
	movl	%eax, %ecx
	movl	-268(%rbp), %eax
	.loc	26 200 20 is_stmt 0
	cmpl	%ecx, %eax
	setae	%al
	.loc	26 198 13 is_stmt 1
	andb	$1, %al
	movb	%al, -258(%rbp)
LBB124_6:
	testb	$1, -258(%rbp)
	jne	LBB124_8
	movb	$0, -259(%rbp)
	jmp	LBB124_9
LBB124_8:
	.loc	26 201 27
	callq	__ZN3rug5float8prec_max17had8abec44d71959dE
	movl	%eax, %ecx
	movl	-268(%rbp), %eax
	.loc	26 201 20 is_stmt 0
	cmpl	%ecx, %eax
	setbe	%al
	.loc	26 198 13 is_stmt 1
	andb	$1, %al
	movb	%al, -259(%rbp)
LBB124_9:
	.loc	26 197 9
	movb	-259(%rbp), %al
	xorb	$-1, %al
	testb	$1, %al
	jne	LBB124_11
	.loc	26 0 9 is_stmt 0
	movl	-264(%rbp), %edi
Ltmp609:
	.loc	26 205 39 is_stmt 1
	leaq	l___unnamed_33(%rip), %rsi
	callq	__ZN2az3int62_$LT$impl$u20$az..UnwrappedCast$LT$i64$GT$$u20$for$u20$u32$GT$14unwrapped_cast17h8b5df7921bfbc8efE
	movl	-268(%rbp), %edi
	movq	%rax, -304(%rbp)
	.loc	26 205 61 is_stmt 0
	leaq	l___unnamed_34(%rip), %rsi
	callq	__ZN2az3int62_$LT$impl$u20$az..UnwrappedCast$LT$i64$GT$$u20$for$u20$u32$GT$14unwrapped_cast17h8b5df7921bfbc8efE
	movq	-304(%rbp), %rsi
	movq	%rax, %rdx
	.loc	26 205 9
	leaq	-208(%rbp), %rdi
	callq	__ZN3rug3ext4xmpc13write_new_nan17h9a4fd4fbfcde08b1E
	.loc	26 207 18 is_stmt 1
	leaq	-144(%rbp), %rdi
	leaq	-208(%rbp), %rsi
	movl	$64, %edx
	callq	_memcpy
Ltmp610:
	.loc	18 627 38
	leaq	-64(%rbp), %rdi
	leaq	-144(%rbp), %rsi
	movl	$64, %edx
	callq	_memcpy
	movq	-288(%rbp), %rdi
Ltmp611:
	.loc	19 89 9
	leaq	-64(%rbp), %rsi
	movl	$64, %edx
	callq	_memcpy
	movq	-280(%rbp), %rax
Ltmp612:
	.loc	26 208 6
	addq	$320, %rsp
	popq	%rbp
	retq
LBB124_11:
Ltmp613:
	.loc	26 197 9
	leaq	l___unnamed_23(%rip), %rsi
	leaq	l___unnamed_24(%rip), %rcx
	xorl	%eax, %eax
	movl	%eax, %r8d
	leaq	-256(%rbp), %rdi
	movq	%rdi, -312(%rbp)
	movl	$1, %edx
	callq	__ZN4core3fmt9Arguments6new_v117hda9832b152653402E
	movq	-312(%rbp), %rdi
	leaq	l___unnamed_35(%rip), %rsi
	callq	__ZN4core9panicking9panic_fmt17h9b5d807e24bcaaedE
Ltmp614:
Lfunc_end124:
	.cfi_endproc

	.p2align	4, 0x90
__ZN3rug7complex3big7Complex8mut_imag17he642d28e9e4753aeE:
Lfunc_begin125:
	.loc	26 753 0
	.cfi_startproc
	pushq	%rbp
	.cfi_def_cfa_offset 16
	.cfi_offset %rbp, -16
	movq	%rsp, %rbp
	.cfi_def_cfa_register %rbp
	subq	$16, %rsp
	movq	%rdi, -8(%rbp)
Ltmp615:
	.loc	26 754 9 prologue_end
	callq	__ZN3rug3ext4xmpc7imagref17h73450dae92358826E
	.loc	26 755 6
	addq	$16, %rsp
	popq	%rbp
	retq
Ltmp616:
Lfunc_end125:
	.cfi_endproc

	.p2align	4, 0x90
__ZN3rug7complex3big7Complex8mut_real17hb5b8da63b5a73496E:
Lfunc_begin126:
	.loc	26 737 0
	.cfi_startproc
	pushq	%rbp
	.cfi_def_cfa_offset 16
	.cfi_offset %rbp, -16
	movq	%rsp, %rbp
	.cfi_def_cfa_register %rbp
	subq	$16, %rsp
	movq	%rdi, -8(%rbp)
Ltmp617:
	.loc	26 738 9 prologue_end
	callq	__ZN3rug3ext4xmpc7realref17h4310f254f47d546eE
	.loc	26 739 6
	addq	$16, %rsp
	popq	%rbp
	retq
Ltmp618:
Lfunc_end126:
	.cfi_endproc

	.globl	__ZN3rug7complex3big7Complex8with_val17h824617bab46a1f99E
	.p2align	4, 0x90
__ZN3rug7complex3big7Complex8with_val17h824617bab46a1f99E:
Lfunc_begin127:
	.loc	26 253 0
	.cfi_startproc
	.cfi_personality 155, _rust_eh_personality
	.cfi_lsda 16, Lexception15
	pushq	%rbp
	.cfi_def_cfa_offset 16
	.cfi_offset %rbp, -16
	movq	%rsp, %rbp
	.cfi_def_cfa_register %rbp
	subq	$80, %rsp
	movq	%rcx, -72(%rbp)
	movq	%rdx, -64(%rbp)
	movq	%rdi, -56(%rbp)
	movq	%rdi, %rax
	movq	%rax, -48(%rbp)
	movl	%esi, -36(%rbp)
	movq	%rdx, -32(%rbp)
	movq	%rcx, -24(%rbp)
Ltmp628:
	.loc	26 258 13 prologue_end
	movb	$0, -37(%rbp)
	movb	$1, -37(%rbp)
Ltmp619:
	.loc	26 258 23 is_stmt 0
	callq	__ZN3rug7complex3big7Complex7new_nan17h862f1fc0485dc6bdE
Ltmp620:
	jmp	LBB127_3
LBB127_1:
	.loc	26 261 5 is_stmt 1
	testb	$1, -37(%rbp)
	jne	LBB127_9
	jmp	LBB127_8
LBB127_2:
Ltmp621:
	.loc	26 0 5 is_stmt 0
	movq	%rax, %rcx
	movl	%edx, %eax
	movq	%rcx, -16(%rbp)
	movl	%eax, -8(%rbp)
	jmp	LBB127_1
LBB127_3:
Ltmp629:
	movq	-72(%rbp), %rdx
	movq	-64(%rbp), %rsi
	movq	-56(%rbp), %rdi
Ltmp630:
	.loc	26 259 20 is_stmt 1
	movb	$0, -37(%rbp)
Ltmp622:
	.loc	26 259 9 is_stmt 0
	callq	__ZN3rug7complex6traits77_$LT$impl$u20$rug..Assign$LT$T$GT$$u20$for$u20$rug..complex..big..Complex$GT$6assign17he0bdec9c4e74e20aE
Ltmp623:
	jmp	LBB127_6
Ltmp631:
LBB127_4:
Ltmp625:
	.loc	26 0 9
	movq	-56(%rbp), %rdi
	.loc	26 261 5 is_stmt 1
	callq	__ZN4core3ptr47drop_in_place$LT$rug..complex..big..Complex$GT$17hdcdcb89eb1209755E
Ltmp626:
	jmp	LBB127_1
LBB127_5:
Ltmp624:
	.loc	26 0 5 is_stmt 0
	movq	%rax, %rcx
	movl	%edx, %eax
	movq	%rcx, -16(%rbp)
	movl	%eax, -8(%rbp)
	jmp	LBB127_4
LBB127_6:
	movq	-48(%rbp), %rax
	.loc	26 261 6
	addq	$80, %rsp
	popq	%rbp
	retq
LBB127_7:
Ltmp627:
	.loc	26 253 5 is_stmt 1
	callq	__ZN4core9panicking19panic_cannot_unwind17h1fbca7e1d7f56ae1E
LBB127_8:
	movq	-16(%rbp), %rdi
	callq	__Unwind_Resume
LBB127_9:
	.loc	26 261 5
	jmp	LBB127_8
Ltmp632:
Lfunc_end127:
	.cfi_endproc
	.section	__TEXT,__gcc_except_tab
	.p2align	2
GCC_except_table127:
Lexception15:
	.byte	255
	.byte	255
	.byte	1
	.uleb128 Lcst_end15-Lcst_begin15
Lcst_begin15:
	.uleb128 Ltmp619-Lfunc_begin127
	.uleb128 Ltmp620-Ltmp619
	.uleb128 Ltmp621-Lfunc_begin127
	.byte	0
	.uleb128 Ltmp622-Lfunc_begin127
	.uleb128 Ltmp623-Ltmp622
	.uleb128 Ltmp624-Lfunc_begin127
	.byte	0
	.uleb128 Ltmp625-Lfunc_begin127
	.uleb128 Ltmp626-Ltmp625
	.uleb128 Ltmp627-Lfunc_begin127
	.byte	0
	.uleb128 Ltmp626-Lfunc_begin127
	.uleb128 Lfunc_end127-Ltmp626
	.byte	0
	.byte	0
Lcst_end15:
	.p2align	2

	.section	__TEXT,__text,regular,pure_instructions
	.globl	__ZN3rug7complex3big7Complex8with_val17h8366ce35d41e9a94E
	.p2align	4, 0x90
__ZN3rug7complex3big7Complex8with_val17h8366ce35d41e9a94E:
Lfunc_begin128:
	.loc	26 253 0
	.cfi_startproc
	.cfi_personality 155, _rust_eh_personality
	.cfi_lsda 16, Lexception16
	pushq	%rbp
	.cfi_def_cfa_offset 16
	.cfi_offset %rbp, -16
	movq	%rsp, %rbp
	.cfi_def_cfa_register %rbp
	subq	$80, %rsp
	movsd	%xmm1, -72(%rbp)
	movsd	%xmm0, -64(%rbp)
	movq	%rdi, -56(%rbp)
	movq	%rdi, %rax
	movq	%rax, -48(%rbp)
	movl	%esi, -36(%rbp)
	movsd	%xmm0, -32(%rbp)
	movsd	%xmm1, -24(%rbp)
Ltmp642:
	.loc	26 258 13 prologue_end
	movb	$0, -37(%rbp)
	movb	$1, -37(%rbp)
Ltmp633:
	.loc	26 258 23 is_stmt 0
	callq	__ZN3rug7complex3big7Complex7new_nan17h862f1fc0485dc6bdE
Ltmp634:
	jmp	LBB128_3
LBB128_1:
	.loc	26 261 5 is_stmt 1
	testb	$1, -37(%rbp)
	jne	LBB128_9
	jmp	LBB128_8
LBB128_2:
Ltmp635:
	.loc	26 0 5 is_stmt 0
	movq	%rax, %rcx
	movl	%edx, %eax
	movq	%rcx, -16(%rbp)
	movl	%eax, -8(%rbp)
	jmp	LBB128_1
LBB128_3:
Ltmp643:
	movsd	-72(%rbp), %xmm1
	movsd	-64(%rbp), %xmm0
	movq	-56(%rbp), %rdi
Ltmp644:
	.loc	26 259 20 is_stmt 1
	movb	$0, -37(%rbp)
Ltmp636:
	.loc	26 259 9 is_stmt 0
	callq	__ZN3rug7complex6traits77_$LT$impl$u20$rug..Assign$LT$T$GT$$u20$for$u20$rug..complex..big..Complex$GT$6assign17h6082fdd64afbbe9bE
Ltmp637:
	jmp	LBB128_6
Ltmp645:
LBB128_4:
Ltmp639:
	.loc	26 0 9
	movq	-56(%rbp), %rdi
	.loc	26 261 5 is_stmt 1
	callq	__ZN4core3ptr47drop_in_place$LT$rug..complex..big..Complex$GT$17hdcdcb89eb1209755E
Ltmp640:
	jmp	LBB128_1
LBB128_5:
Ltmp638:
	.loc	26 0 5 is_stmt 0
	movq	%rax, %rcx
	movl	%edx, %eax
	movq	%rcx, -16(%rbp)
	movl	%eax, -8(%rbp)
	jmp	LBB128_4
LBB128_6:
	movq	-48(%rbp), %rax
	.loc	26 261 6
	addq	$80, %rsp
	popq	%rbp
	retq
LBB128_7:
Ltmp641:
	.loc	26 253 5 is_stmt 1
	callq	__ZN4core9panicking19panic_cannot_unwind17h1fbca7e1d7f56ae1E
LBB128_8:
	movq	-16(%rbp), %rdi
	callq	__Unwind_Resume
LBB128_9:
	.loc	26 261 5
	jmp	LBB128_8
Ltmp646:
Lfunc_end128:
	.cfi_endproc
	.section	__TEXT,__gcc_except_tab
	.p2align	2
GCC_except_table128:
Lexception16:
	.byte	255
	.byte	255
	.byte	1
	.uleb128 Lcst_end16-Lcst_begin16
Lcst_begin16:
	.uleb128 Ltmp633-Lfunc_begin128
	.uleb128 Ltmp634-Ltmp633
	.uleb128 Ltmp635-Lfunc_begin128
	.byte	0
	.uleb128 Ltmp636-Lfunc_begin128
	.uleb128 Ltmp637-Ltmp636
	.uleb128 Ltmp638-Lfunc_begin128
	.byte	0
	.uleb128 Ltmp639-Lfunc_begin128
	.uleb128 Ltmp640-Ltmp639
	.uleb128 Ltmp641-Lfunc_begin128
	.byte	0
	.uleb128 Ltmp640-Lfunc_begin128
	.uleb128 Lfunc_end128-Ltmp640
	.byte	0
	.byte	0
Lcst_end16:
	.p2align	2

	.section	__TEXT,__text,regular,pure_instructions
	.p2align	4, 0x90
__ZN3rug7complex5arith119_$LT$impl$u20$rug..ops..AddAssignRound$LT$$RF$rug..complex..big..Complex$GT$$u20$for$u20$rug..complex..big..Complex$GT$16add_assign_round17heb80f39aa6a64933E:
Lfunc_begin129:
	.loc	1 1443 0
	.cfi_startproc
	pushq	%rbp
	.cfi_def_cfa_offset 16
	.cfi_offset %rbp, -16
	movq	%rsp, %rbp
	.cfi_def_cfa_register %rbp
	subq	$32, %rsp
	movb	%cl, %al
	movb	%dl, %cl
	movq	%rdi, -24(%rbp)
	movq	%rsi, -16(%rbp)
	movb	%cl, -8(%rbp)
	movb	%al, -7(%rbp)
Ltmp647:
	.loc	1 1444 17 prologue_end
	movzbl	%cl, %edx
	movzbl	%al, %ecx
	callq	__ZN3rug3ext4xmpc3add17h2e83de9328c1e146E
	.loc	1 1445 14
	addq	$32, %rsp
	popq	%rbp
	retq
Ltmp648:
Lfunc_end129:
	.cfi_endproc

	.p2align	4, 0x90
__ZN3rug7complex5arith122_$LT$impl$u20$core..ops..arith..AddAssign$LT$$RF$rug..complex..big..Complex$GT$$u20$for$u20$rug..complex..big..Complex$GT$10add_assign17hf67c9c73bbc5d88aE:
Lfunc_begin130:
	.loc	1 1425 0
	.cfi_startproc
	pushq	%rbp
	.cfi_def_cfa_offset 16
	.cfi_offset %rbp, -16
	movq	%rsp, %rbp
	.cfi_def_cfa_register %rbp
	subq	$16, %rsp
	movq	%rdi, -16(%rbp)
	movq	%rsi, -8(%rbp)
Ltmp649:
	.loc	1 1426 17 prologue_end
	movb	l___unnamed_32(%rip), %al
	movzbl	%al, %edx
	movzbl	l___unnamed_32+1(%rip), %ecx
	callq	__ZN3rug7complex5arith119_$LT$impl$u20$rug..ops..AddAssignRound$LT$$RF$rug..complex..big..Complex$GT$$u20$for$u20$rug..complex..big..Complex$GT$16add_assign_round17heb80f39aa6a64933E
	.loc	1 1427 14
	addq	$16, %rsp
	popq	%rbp
	retq
Ltmp650:
Lfunc_end130:
	.cfi_endproc

	.globl	__ZN3rug7complex6traits101_$LT$impl$u20$rug..ops..AssignRound$LT$$LP$Re$C$Im$RP$$GT$$u20$for$u20$rug..complex..big..Complex$GT$12assign_round17h56ec15d08b2e08fdE
	.p2align	4, 0x90
__ZN3rug7complex6traits101_$LT$impl$u20$rug..ops..AssignRound$LT$$LP$Re$C$Im$RP$$GT$$u20$for$u20$rug..complex..big..Complex$GT$12assign_round17h56ec15d08b2e08fdE:
Lfunc_begin131:
	.file	27 "/Users/natalie/.cargo/registry/src/github.com-1ecc6299db9ec823/rug-1.19.0/src/complex" "traits.rs"
	.loc	27 246 0
	.cfi_startproc
	.cfi_personality 155, _rust_eh_personality
	.cfi_lsda 16, Lexception17
	pushq	%rbp
	.cfi_def_cfa_offset 16
	.cfi_offset %rbp, -16
	movq	%rsp, %rbp
	.cfi_def_cfa_register %rbp
	subq	$112, %rsp
	movq	%rdi, -88(%rbp)
	movb	%dl, %al
	movb	%al, -74(%rbp)
	movb	%sil, %cl
	movb	%cl, -73(%rbp)
	movsd	%xmm0, -64(%rbp)
	movsd	%xmm1, -56(%rbp)
	movq	%rdi, -40(%rbp)
	movb	%cl, -32(%rbp)
	movb	%al, -31(%rbp)
Ltmp660:
	.loc	27 247 13 prologue_end
	movb	$0, -41(%rbp)
	movb	$0, -42(%rbp)
	movb	$1, -42(%rbp)
	movb	$1, -41(%rbp)
Ltmp651:
	.loc	27 247 24 is_stmt 0
	callq	__ZN3rug7complex3big7Complex8mut_real17hb5b8da63b5a73496E
Ltmp652:
	movq	%rax, -72(%rbp)
	jmp	LBB131_3
LBB131_1:
	.loc	27 250 5 is_stmt 1
	testb	$1, -41(%rbp)
	jne	LBB131_8
	jmp	LBB131_7
LBB131_2:
Ltmp659:
	.loc	27 0 5 is_stmt 0
	movq	%rax, %rcx
	movl	%edx, %eax
	movq	%rcx, -24(%rbp)
	movl	%eax, -16(%rbp)
	jmp	LBB131_1
LBB131_3:
	movq	-72(%rbp), %rdi
	movb	-73(%rbp), %al
	.loc	27 247 53 is_stmt 1
	movb	$0, -41(%rbp)
	movsd	-64(%rbp), %xmm0
Ltmp653:
	.loc	27 247 24 is_stmt 0
	movzbl	%al, %esi
	callq	__ZN3rug5float6traits85_$LT$impl$u20$rug..ops..AssignRound$LT$f64$GT$$u20$for$u20$rug..float..big..Float$GT$12assign_round17h495533e5e5df5d00E
Ltmp654:
	movb	%al, -89(%rbp)
	jmp	LBB131_4
LBB131_4:
	.loc	27 0 24
	movq	-88(%rbp), %rdi
	movb	-89(%rbp), %al
	.loc	27 247 24
	movb	%al, -2(%rbp)
Ltmp655:
Ltmp661:
	.loc	27 248 24 is_stmt 1
	callq	__ZN3rug7complex3big7Complex8mut_imag17he642d28e9e4753aeE
Ltmp656:
	movq	%rax, -104(%rbp)
	jmp	LBB131_5
LBB131_5:
	.loc	27 0 24 is_stmt 0
	movq	-104(%rbp), %rdi
	movb	-74(%rbp), %al
	.loc	27 248 53
	movb	$0, -42(%rbp)
	movsd	-56(%rbp), %xmm0
Ltmp657:
	.loc	27 248 24
	movzbl	%al, %esi
	callq	__ZN3rug5float6traits85_$LT$impl$u20$rug..ops..AssignRound$LT$f64$GT$$u20$for$u20$rug..float..big..Float$GT$12assign_round17h495533e5e5df5d00E
Ltmp658:
	movb	%al, -105(%rbp)
	jmp	LBB131_6
LBB131_6:
	.loc	27 0 24
	movb	-105(%rbp), %al
	movb	-89(%rbp), %cl
	.loc	27 248 24
	movb	%al, -1(%rbp)
Ltmp662:
	.loc	27 249 9 is_stmt 1
	movb	%cl, -48(%rbp)
	movb	%al, -47(%rbp)
Ltmp663:
	.loc	27 250 6
	movb	-48(%rbp), %al
	movb	-47(%rbp), %dl
	addq	$112, %rsp
	popq	%rbp
	retq
LBB131_7:
	.loc	27 250 5 is_stmt 0
	testb	$1, -42(%rbp)
	jne	LBB131_10
	jmp	LBB131_9
LBB131_8:
	jmp	LBB131_7
LBB131_9:
	.loc	27 246 5 is_stmt 1
	movq	-24(%rbp), %rdi
	callq	__Unwind_Resume
LBB131_10:
	.loc	27 250 5
	jmp	LBB131_9
Ltmp664:
Lfunc_end131:
	.cfi_endproc
	.section	__TEXT,__gcc_except_tab
	.p2align	2
GCC_except_table131:
Lexception17:
	.byte	255
	.byte	255
	.byte	1
	.uleb128 Lcst_end17-Lcst_begin17
Lcst_begin17:
	.uleb128 Ltmp651-Lfunc_begin131
	.uleb128 Ltmp658-Ltmp651
	.uleb128 Ltmp659-Lfunc_begin131
	.byte	0
	.uleb128 Ltmp658-Lfunc_begin131
	.uleb128 Lfunc_end131-Ltmp658
	.byte	0
	.byte	0
Lcst_end17:
	.p2align	2

	.section	__TEXT,__text,regular,pure_instructions
	.globl	__ZN3rug7complex6traits101_$LT$impl$u20$rug..ops..AssignRound$LT$$LP$Re$C$Im$RP$$GT$$u20$for$u20$rug..complex..big..Complex$GT$12assign_round17h6932aff8c77d8870E
	.p2align	4, 0x90
__ZN3rug7complex6traits101_$LT$impl$u20$rug..ops..AssignRound$LT$$LP$Re$C$Im$RP$$GT$$u20$for$u20$rug..complex..big..Complex$GT$12assign_round17h6932aff8c77d8870E:
Lfunc_begin132:
	.loc	27 246 0
	.cfi_startproc
	.cfi_personality 155, _rust_eh_personality
	.cfi_lsda 16, Lexception18
	pushq	%rbp
	.cfi_def_cfa_offset 16
	.cfi_offset %rbp, -16
	movq	%rsp, %rbp
	.cfi_def_cfa_register %rbp
	subq	$112, %rsp
	movq	%rdi, -88(%rbp)
	movb	%r8b, %al
	movb	%al, -74(%rbp)
	movb	%cl, -73(%rbp)
	movq	%rsi, -64(%rbp)
	movq	%rdx, -56(%rbp)
	movq	%rdi, -40(%rbp)
	movb	%cl, -32(%rbp)
	movb	%al, -31(%rbp)
Ltmp674:
	.loc	27 247 13 prologue_end
	movb	$0, -41(%rbp)
	movb	$0, -42(%rbp)
	movb	$1, -42(%rbp)
	movb	$1, -41(%rbp)
Ltmp665:
	.loc	27 247 24 is_stmt 0
	callq	__ZN3rug7complex3big7Complex8mut_real17hb5b8da63b5a73496E
Ltmp666:
	movq	%rax, -72(%rbp)
	jmp	LBB132_3
LBB132_1:
	.loc	27 250 5 is_stmt 1
	testb	$1, -41(%rbp)
	jne	LBB132_8
	jmp	LBB132_7
LBB132_2:
Ltmp673:
	.loc	27 0 5 is_stmt 0
	movq	%rax, %rcx
	movl	%edx, %eax
	movq	%rcx, -24(%rbp)
	movl	%eax, -16(%rbp)
	jmp	LBB132_1
LBB132_3:
	movq	-72(%rbp), %rdi
	movb	-73(%rbp), %al
	.loc	27 247 53 is_stmt 1
	movb	$0, -41(%rbp)
	movq	-64(%rbp), %rsi
Ltmp667:
	.loc	27 247 24 is_stmt 0
	movzbl	%al, %edx
	callq	__ZN3rug5float6traits108_$LT$impl$u20$rug..ops..AssignRound$LT$$RF$rug..float..big..Float$GT$$u20$for$u20$rug..float..big..Float$GT$12assign_round17h6248361667485336E
Ltmp668:
	movb	%al, -89(%rbp)
	jmp	LBB132_4
LBB132_4:
	.loc	27 0 24
	movq	-88(%rbp), %rdi
	movb	-89(%rbp), %al
	.loc	27 247 24
	movb	%al, -2(%rbp)
Ltmp669:
Ltmp675:
	.loc	27 248 24 is_stmt 1
	callq	__ZN3rug7complex3big7Complex8mut_imag17he642d28e9e4753aeE
Ltmp670:
	movq	%rax, -104(%rbp)
	jmp	LBB132_5
LBB132_5:
	.loc	27 0 24 is_stmt 0
	movq	-104(%rbp), %rdi
	movb	-74(%rbp), %al
	.loc	27 248 53
	movb	$0, -42(%rbp)
	movq	-56(%rbp), %rsi
Ltmp671:
	.loc	27 248 24
	movzbl	%al, %edx
	callq	__ZN3rug5float6traits108_$LT$impl$u20$rug..ops..AssignRound$LT$$RF$rug..float..big..Float$GT$$u20$for$u20$rug..float..big..Float$GT$12assign_round17h6248361667485336E
Ltmp672:
	movb	%al, -105(%rbp)
	jmp	LBB132_6
LBB132_6:
	.loc	27 0 24
	movb	-105(%rbp), %al
	movb	-89(%rbp), %cl
	.loc	27 248 24
	movb	%al, -1(%rbp)
Ltmp676:
	.loc	27 249 9 is_stmt 1
	movb	%cl, -48(%rbp)
	movb	%al, -47(%rbp)
Ltmp677:
	.loc	27 250 6
	movb	-48(%rbp), %al
	movb	-47(%rbp), %dl
	addq	$112, %rsp
	popq	%rbp
	retq
LBB132_7:
	.loc	27 250 5 is_stmt 0
	testb	$1, -42(%rbp)
	jne	LBB132_10
	jmp	LBB132_9
LBB132_8:
	jmp	LBB132_7
LBB132_9:
	.loc	27 246 5 is_stmt 1
	movq	-24(%rbp), %rdi
	callq	__Unwind_Resume
LBB132_10:
	.loc	27 250 5
	jmp	LBB132_9
Ltmp678:
Lfunc_end132:
	.cfi_endproc
	.section	__TEXT,__gcc_except_tab
	.p2align	2
GCC_except_table132:
Lexception18:
	.byte	255
	.byte	255
	.byte	1
	.uleb128 Lcst_end18-Lcst_begin18
Lcst_begin18:
	.uleb128 Ltmp665-Lfunc_begin132
	.uleb128 Ltmp672-Ltmp665
	.uleb128 Ltmp673-Lfunc_begin132
	.byte	0
	.uleb128 Ltmp672-Lfunc_begin132
	.uleb128 Lfunc_end132-Ltmp672
	.byte	0
	.byte	0
Lcst_end18:
	.p2align	2

	.section	__TEXT,__text,regular,pure_instructions
	.globl	__ZN3rug7complex6traits77_$LT$impl$u20$rug..Assign$LT$T$GT$$u20$for$u20$rug..complex..big..Complex$GT$6assign17h6082fdd64afbbe9bE
	.p2align	4, 0x90
__ZN3rug7complex6traits77_$LT$impl$u20$rug..Assign$LT$T$GT$$u20$for$u20$rug..complex..big..Complex$GT$6assign17h6082fdd64afbbe9bE:
Lfunc_begin133:
	.loc	27 196 0
	.cfi_startproc
	pushq	%rbp
	.cfi_def_cfa_offset 16
	.cfi_offset %rbp, -16
	movq	%rsp, %rbp
	.cfi_def_cfa_register %rbp
	subq	$32, %rsp
	movq	%rdi, -24(%rbp)
	movsd	%xmm0, -16(%rbp)
	movsd	%xmm1, -8(%rbp)
Ltmp679:
	.loc	27 197 32 prologue_end
	movb	$0, -32(%rbp)
	movb	$0, -31(%rbp)
	.loc	27 197 9 is_stmt 0
	movb	-32(%rbp), %al
	movzbl	%al, %esi
	movzbl	-31(%rbp), %edx
	callq	__ZN3rug7complex6traits101_$LT$impl$u20$rug..ops..AssignRound$LT$$LP$Re$C$Im$RP$$GT$$u20$for$u20$rug..complex..big..Complex$GT$12assign_round17h56ec15d08b2e08fdE
	.loc	27 198 6 is_stmt 1
	addq	$32, %rsp
	popq	%rbp
	retq
Ltmp680:
Lfunc_end133:
	.cfi_endproc

	.globl	__ZN3rug7complex6traits77_$LT$impl$u20$rug..Assign$LT$T$GT$$u20$for$u20$rug..complex..big..Complex$GT$6assign17he0bdec9c4e74e20aE
	.p2align	4, 0x90
__ZN3rug7complex6traits77_$LT$impl$u20$rug..Assign$LT$T$GT$$u20$for$u20$rug..complex..big..Complex$GT$6assign17he0bdec9c4e74e20aE:
Lfunc_begin134:
	.loc	27 196 0
	.cfi_startproc
	pushq	%rbp
	.cfi_def_cfa_offset 16
	.cfi_offset %rbp, -16
	movq	%rsp, %rbp
	.cfi_def_cfa_register %rbp
	subq	$32, %rsp
	movq	%rdi, -24(%rbp)
	movq	%rsi, -16(%rbp)
	movq	%rdx, -8(%rbp)
Ltmp681:
	.loc	27 197 32 prologue_end
	movb	$0, -32(%rbp)
	movb	$0, -31(%rbp)
	.loc	27 197 9 is_stmt 0
	movb	-32(%rbp), %al
	movzbl	%al, %ecx
	movzbl	-31(%rbp), %r8d
	callq	__ZN3rug7complex6traits101_$LT$impl$u20$rug..ops..AssignRound$LT$$LP$Re$C$Im$RP$$GT$$u20$for$u20$rug..complex..big..Complex$GT$12assign_round17h6932aff8c77d8870E
	.loc	27 198 6 is_stmt 1
	addq	$32, %rsp
	popq	%rbp
	retq
Ltmp682:
Lfunc_end134:
	.cfi_endproc

	.p2align	4, 0x90
__ZN3rug7complex6traits78_$LT$impl$u20$core..ops..drop..Drop$u20$for$u20$rug..complex..big..Complex$GT$4drop17h13e28361cd760dc9E:
Lfunc_begin135:
	.loc	27 57 0
	.cfi_startproc
	pushq	%rbp
	.cfi_def_cfa_offset 16
	.cfi_offset %rbp, -16
	movq	%rsp, %rbp
	.cfi_def_cfa_register %rbp
	subq	$16, %rsp
	movq	%rdi, -8(%rbp)
Ltmp683:
	.loc	27 60 24 prologue_end
	callq	__ZN3rug7complex3big7Complex10as_raw_mut17h054b84bedf863127E
	movq	%rax, %rdi
	.loc	27 60 13 is_stmt 0
	callq	_mpc_clear
	.loc	27 62 6 is_stmt 1
	addq	$16, %rsp
	popq	%rbp
	retq
Ltmp684:
Lfunc_end135:
	.cfi_endproc

	.p2align	4, 0x90
__ZN3rug7integer3big7Integer10as_raw_mut17h56aa73b4fecf8fc8E:
Lfunc_begin136:
	.file	28 "/Users/natalie/.cargo/registry/src/github.com-1ecc6299db9ec823/rug-1.19.0/src/integer" "big.rs"
	.loc	28 504 0
	.cfi_startproc
	pushq	%rbp
	.cfi_def_cfa_offset 16
	.cfi_offset %rbp, -16
	movq	%rsp, %rbp
	.cfi_def_cfa_register %rbp
	pushq	%rax
	movq	%rdi, %rax
	movq	%rax, -8(%rbp)
Ltmp685:
	.loc	28 506 6 prologue_end
	addq	$8, %rsp
	popq	%rbp
	retq
Ltmp686:
Lfunc_end136:
	.cfi_endproc

	.p2align	4, 0x90
__ZN3rug7integer3big7Integer3new17had160e4b99e09dedE:
Lfunc_begin137:
	.loc	28 241 0
	.cfi_startproc
	pushq	%rbp
	.cfi_def_cfa_offset 16
	.cfi_offset %rbp, -16
	movq	%rsp, %rbp
	.cfi_def_cfa_register %rbp
	subq	$32, %rsp
	movq	%rdi, -32(%rbp)
	movq	%rdi, -24(%rbp)
Ltmp687:
	.loc	28 243 20 prologue_end
	leaq	-16(%rbp), %rdi
	callq	__ZN3rug3ext4xmpz10owned_init17hcb6508b841e058d2E
	movq	-32(%rbp), %rdi
	movq	-24(%rbp), %rax
	.loc	28 242 9
	movq	-16(%rbp), %rcx
	movq	%rcx, (%rdi)
	movq	-8(%rbp), %rcx
	movq	%rcx, 8(%rdi)
	.loc	28 245 6
	addq	$32, %rsp
	popq	%rbp
	retq
Ltmp688:
Lfunc_end137:
	.cfi_endproc

	.p2align	4, 0x90
__ZN3rug7integer3big7Integer4cmp017h6a3e67bf45838e2bE:
Lfunc_begin138:
	.loc	28 2152 0
	.cfi_startproc
	pushq	%rbp
	.cfi_def_cfa_offset 16
	.cfi_offset %rbp, -16
	movq	%rsp, %rbp
	.cfi_def_cfa_register %rbp
	subq	$16, %rsp
	movq	%rdi, -8(%rbp)
Ltmp689:
	.loc	28 2153 9 prologue_end
	callq	__ZN3rug3ext4xmpz3sgn17hb066a5de6902a3f9E
	.loc	28 2154 6
	addq	$16, %rsp
	popq	%rbp
	retq
Ltmp690:
Lfunc_end138:
	.cfi_endproc

	.p2align	4, 0x90
__ZN3rug7integer3big7Integer5inner17hd43f7a53d70f34d5E:
Lfunc_begin139:
	.loc	28 195 0
	.cfi_startproc
	pushq	%rbp
	.cfi_def_cfa_offset 16
	.cfi_offset %rbp, -16
	movq	%rsp, %rbp
	.cfi_def_cfa_register %rbp
	pushq	%rax
	movq	%rdi, %rax
	movq	%rax, -8(%rbp)
Ltmp691:
	.loc	28 197 6 prologue_end
	addq	$8, %rsp
	popq	%rbp
	retq
Ltmp692:
Lfunc_end139:
	.cfi_endproc

	.p2align	4, 0x90
__ZN3rug7integer3big7Integer6as_raw17h718e84ba51e26a0fE:
Lfunc_begin140:
	.loc	28 483 0
	.cfi_startproc
	pushq	%rbp
	.cfi_def_cfa_offset 16
	.cfi_offset %rbp, -16
	movq	%rsp, %rbp
	.cfi_def_cfa_register %rbp
	pushq	%rax
	movq	%rdi, %rax
	movq	%rax, -8(%rbp)
Ltmp693:
	.loc	28 485 6 prologue_end
	addq	$8, %rsp
	popq	%rbp
	retq
Ltmp694:
Lfunc_end140:
	.cfi_endproc

	.p2align	4, 0x90
__ZN3rug7integer3big7Integer8to_usize17hcca6d8f3b2db0698E:
Lfunc_begin141:
	.loc	28 1384 0
	.cfi_startproc
	pushq	%rbp
	.cfi_def_cfa_offset 16
	.cfi_offset %rbp, -16
	movq	%rsp, %rbp
	.cfi_def_cfa_register %rbp
	subq	$16, %rsp
	movq	%rdi, -8(%rbp)
Ltmp695:
	.loc	28 1385 9 prologue_end
	callq	__ZN3rug7integer5casts89_$LT$impl$u20$az..CheckedCast$LT$usize$GT$$u20$for$u20$$RF$rug..integer..big..Integer$GT$12checked_cast17h9bca0b56fc606848E
	.loc	28 1386 6
	addq	$16, %rsp
	popq	%rbp
	retq
Ltmp696:
Lfunc_end141:
	.cfi_endproc

	.p2align	4, 0x90
__ZN3rug7integer5casts89_$LT$impl$u20$az..CheckedCast$LT$usize$GT$$u20$for$u20$$RF$rug..integer..big..Integer$GT$12checked_cast17h9bca0b56fc606848E:
Lfunc_begin142:
	.file	29 "/Users/natalie/.cargo/registry/src/github.com-1ecc6299db9ec823/rug-1.19.0/src/integer" "casts.rs"
	.loc	29 57 0
	.cfi_startproc
	pushq	%rbp
	.cfi_def_cfa_offset 16
	.cfi_offset %rbp, -16
	movq	%rsp, %rbp
	.cfi_def_cfa_register %rbp
	subq	$32, %rsp
	movq	%rdi, -32(%rbp)
	movq	%rdi, -8(%rbp)
Ltmp697:
	.loc	29 58 20 prologue_end
	callq	__ZN3rug3ext6xmpz648fits_u6417h9b6d2ba9d7c4071bE
	testb	$1, %al
	jne	LBB142_2
	.loc	29 61 21
	movq	$0, -24(%rbp)
	.loc	29 58 17
	jmp	LBB142_3
LBB142_2:
	.loc	29 0 17 is_stmt 0
	movq	-32(%rbp), %rdi
	.loc	29 59 26 is_stmt 1
	callq	__ZN3rug7integer5casts90_$LT$impl$u20$az..WrappingCast$LT$usize$GT$$u20$for$u20$$RF$rug..integer..big..Integer$GT$13wrapping_cast17h8a847cbb1fef2ec8E
	.loc	29 59 21 is_stmt 0
	movq	%rax, -16(%rbp)
	movq	$1, -24(%rbp)
LBB142_3:
	.loc	29 63 14 is_stmt 1
	movq	-24(%rbp), %rax
	movq	-16(%rbp), %rdx
	addq	$32, %rsp
	popq	%rbp
	retq
Ltmp698:
Lfunc_end142:
	.cfi_endproc

	.p2align	4, 0x90
__ZN3rug7integer5casts90_$LT$impl$u20$az..WrappingCast$LT$usize$GT$$u20$for$u20$$RF$rug..integer..big..Integer$GT$13wrapping_cast17h8a847cbb1fef2ec8E:
Lfunc_begin143:
	.loc	29 91 0
	.cfi_startproc
	pushq	%rbp
	.cfi_def_cfa_offset 16
	.cfi_offset %rbp, -16
	movq	%rsp, %rbp
	.cfi_def_cfa_register %rbp
	subq	$64, %rsp
	movq	%rdi, -64(%rbp)
	movq	%rdi, -32(%rbp)
Ltmp699:
	.loc	29 92 27 prologue_end
	callq	__ZN3rug3ext6xmpz6411get_abs_u6417h77213dea88472cceE
	movq	-64(%rbp), %rdi
	movq	%rax, -56(%rbp)
	movq	%rax, -24(%rbp)
Ltmp700:
	.loc	29 93 20
	callq	__ZN3rug7integer3big7Integer4cmp017h6a3e67bf45838e2bE
	movb	%al, -33(%rbp)
	leaq	-33(%rbp), %rdi
	leaq	l___unnamed_36(%rip), %rsi
	callq	__ZN60_$LT$core..cmp..Ordering$u20$as$u20$core..cmp..PartialEq$GT$2eq17he3de52c530fd4648E
	testb	$1, %al
	jne	LBB143_2
	.loc	29 0 20 is_stmt 0
	movq	-56(%rbp), %rax
	.loc	29 96 21 is_stmt 1
	movq	%rax, -48(%rbp)
	.loc	29 93 17
	jmp	LBB143_3
LBB143_2:
	.loc	29 0 17 is_stmt 0
	movq	-56(%rbp), %rcx
	movq	%rcx, -16(%rbp)
Ltmp701:
	.file	30 "/rustc/2c8cc343237b8f7d5a3c3703e3a87f2eb2c54a74/library/core/src/num" "uint_macros.rs"
	.loc	30 1352 40 is_stmt 1
	movq	%rcx, -8(%rbp)
Ltmp702:
	.loc	30 1203 13
	xorl	%eax, %eax
	subq	%rcx, %rax
Ltmp703:
	.loc	29 94 21
	movq	%rax, -48(%rbp)
LBB143_3:
	.loc	29 93 17
	movq	-48(%rbp), %rdi
	callq	__ZN2az3int63_$LT$impl$u20$az..WrappingCast$LT$usize$GT$$u20$for$u20$u64$GT$13wrapping_cast17hfe234f148e9bbcb4E
Ltmp704:
	.loc	29 99 14
	addq	$64, %rsp
	popq	%rbp
	retq
Ltmp705:
Lfunc_end143:
	.cfi_endproc

	.p2align	4, 0x90
__ZN3std3f6421_$LT$impl$u20$f64$GT$4powf17h4619dacfc20a1011E:
Lfunc_begin144:
	.file	31 "/rustc/2c8cc343237b8f7d5a3c3703e3a87f2eb2c54a74/library/std/src" "f64.rs"
	.loc	31 339 0
	.cfi_startproc
	pushq	%rbp
	.cfi_def_cfa_offset 16
	.cfi_offset %rbp, -16
	movq	%rsp, %rbp
	.cfi_def_cfa_register %rbp
	subq	$32, %rsp
	movsd	%xmm0, -24(%rbp)
	movsd	%xmm1, -16(%rbp)
Ltmp706:
	.loc	31 340 18 prologue_end
	callq	_pow
	movsd	%xmm0, -8(%rbp)
	movsd	-8(%rbp), %xmm0
	.loc	31 341 6
	addq	$32, %rsp
	popq	%rbp
	retq
Ltmp707:
Lfunc_end144:
	.cfi_endproc

	.globl	__ZN3std4sync4mpmc15Sender$LT$T$GT$4send17h187e1952c0d7c791E
	.p2align	4, 0x90
__ZN3std4sync4mpmc15Sender$LT$T$GT$4send17h187e1952c0d7c791E:
Lfunc_begin145:
	.file	32 "/rustc/2c8cc343237b8f7d5a3c3703e3a87f2eb2c54a74/library/std/src/sync/mpmc" "mod.rs"
	.loc	32 125 0
	.cfi_startproc
	.cfi_personality 155, _rust_eh_personality
	.cfi_lsda 16, Lexception19
	pushq	%rbp
	.cfi_def_cfa_offset 16
	.cfi_offset %rbp, -16
	movq	%rsp, %rbp
	.cfi_def_cfa_register %rbp
	subq	$208, %rsp
	movq	%rdi, -160(%rbp)
	movq	%rsi, -144(%rbp)
	movq	%rdx, -136(%rbp)
	movq	%rdi, -48(%rbp)
Ltmp726:
	.loc	32 126 9 prologue_end
	movb	$1, -49(%rbp)
	.loc	32 126 15 is_stmt 0
	movq	(%rdi), %rax
	movq	%rax, -152(%rbp)
	.loc	32 126 9
	testq	%rax, %rax
	je	LBB145_2
	jmp	LBB145_18
LBB145_18:
	.loc	32 0 9
	movq	-152(%rbp), %rax
	.loc	32 126 9
	subq	$1, %rax
	je	LBB145_3
	jmp	LBB145_19
LBB145_19:
	jmp	LBB145_4
	.loc	32 126 15
	ud2
LBB145_2:
	.loc	32 0 15
	movq	-160(%rbp), %rdi
	.loc	32 127 33 is_stmt 1
	addq	$8, %rdi
	movq	%rdi, -8(%rbp)
Ltmp716:
Ltmp727:
	.loc	32 127 42 is_stmt 0
	callq	__ZN85_$LT$std..sync..mpmc..counter..Sender$LT$C$GT$$u20$as$u20$core..ops..deref..Deref$GT$5deref17h94e3e5720cf7f0bcE
Ltmp717:
	movq	%rax, -168(%rbp)
	jmp	LBB145_12
Ltmp728:
LBB145_3:
	.loc	32 0 42
	movq	-160(%rbp), %rdi
	.loc	32 128 32 is_stmt 1
	addq	$8, %rdi
	movq	%rdi, -16(%rbp)
Ltmp712:
Ltmp729:
	.loc	32 128 41 is_stmt 0
	callq	__ZN85_$LT$std..sync..mpmc..counter..Sender$LT$C$GT$$u20$as$u20$core..ops..deref..Deref$GT$5deref17hd999757bf6c5335dE
Ltmp713:
	movq	%rax, -176(%rbp)
	jmp	LBB145_10
Ltmp730:
LBB145_4:
	.loc	32 0 41
	movq	-160(%rbp), %rdi
	.loc	32 129 32 is_stmt 1
	addq	$8, %rdi
	movq	%rdi, -40(%rbp)
Ltmp708:
Ltmp731:
	.loc	32 129 41 is_stmt 0
	callq	__ZN85_$LT$std..sync..mpmc..counter..Sender$LT$C$GT$$u20$as$u20$core..ops..deref..Deref$GT$5deref17h419d5a4a50b36d16E
Ltmp709:
	movq	%rax, -184(%rbp)
	jmp	LBB145_7
Ltmp732:
LBB145_5:
	.loc	32 135 5 is_stmt 1
	testb	$1, -49(%rbp)
	jne	LBB145_16
	jmp	LBB145_15
LBB145_6:
Ltmp722:
	.loc	32 0 5 is_stmt 0
	movq	%rax, %rcx
	movl	%edx, %eax
	movq	%rcx, -32(%rbp)
	movl	%eax, -24(%rbp)
	jmp	LBB145_5
LBB145_7:
	movq	-184(%rbp), %rsi
Ltmp733:
	.loc	32 129 51 is_stmt 1
	movb	$0, -49(%rbp)
	movq	-144(%rbp), %rdx
	movq	-136(%rbp), %rcx
	.loc	32 129 56 is_stmt 0
	movq	$0, -72(%rbp)
	.loc	32 129 41
	movq	-72(%rbp), %r8
	movq	-64(%rbp), %r9
Ltmp710:
	leaq	-128(%rbp), %rdi
	callq	__ZN3std4sync4mpmc4zero16Channel$LT$T$GT$4send17hf4d1e81c48c7ba46E
Ltmp711:
	jmp	LBB145_8
Ltmp734:
LBB145_8:
	.loc	32 129 60
	jmp	LBB145_9
LBB145_9:
Ltmp720:
	.loc	32 0 60
	leaq	-128(%rbp), %rdi
	.loc	32 126 9 is_stmt 1
	callq	__ZN4core6result19Result$LT$T$C$E$GT$7map_err17h33de5341ee9f139eE
Ltmp721:
	movq	%rdx, -200(%rbp)
	movq	%rax, -192(%rbp)
	jmp	LBB145_14
LBB145_10:
	.loc	32 0 9 is_stmt 0
	movq	-176(%rbp), %rsi
Ltmp735:
	.loc	32 128 51 is_stmt 1
	movb	$0, -49(%rbp)
	movq	-144(%rbp), %rdx
	movq	-136(%rbp), %rcx
	.loc	32 128 56 is_stmt 0
	movq	$0, -88(%rbp)
	.loc	32 128 41
	movq	-88(%rbp), %r8
	movq	-80(%rbp), %r9
Ltmp714:
	leaq	-128(%rbp), %rdi
	callq	__ZN3std4sync4mpmc4list16Channel$LT$T$GT$4send17hbaa0a348b89079baE
Ltmp715:
	jmp	LBB145_11
Ltmp736:
LBB145_11:
	.loc	32 128 60
	jmp	LBB145_9
LBB145_12:
	.loc	32 0 60
	movq	-168(%rbp), %rsi
Ltmp737:
	.loc	32 127 52 is_stmt 1
	movb	$0, -49(%rbp)
	movq	-144(%rbp), %rdx
	movq	-136(%rbp), %rcx
	.loc	32 127 57 is_stmt 0
	movq	$0, -104(%rbp)
	.loc	32 127 42
	movq	-104(%rbp), %r8
	movq	-96(%rbp), %r9
Ltmp718:
	leaq	-128(%rbp), %rdi
	callq	__ZN3std4sync4mpmc5array16Channel$LT$T$GT$4send17he6bc8c745aebc55bE
Ltmp719:
	jmp	LBB145_13
Ltmp738:
LBB145_13:
	.loc	32 127 61
	jmp	LBB145_9
LBB145_14:
	.loc	32 0 61
	movq	-200(%rbp), %rdx
	movq	-192(%rbp), %rax
	.loc	32 135 6 is_stmt 1
	addq	$208, %rsp
	popq	%rbp
	retq
LBB145_15:
	.loc	32 125 5
	movq	-32(%rbp), %rdi
	callq	__Unwind_Resume
LBB145_16:
Ltmp723:
	.loc	32 0 5 is_stmt 0
	leaq	-144(%rbp), %rdi
	.loc	32 135 5 is_stmt 1
	callq	__ZN4core3ptr94drop_in_place$LT$alloc..boxed..Box$LT$dyn$u20$threadpool..FnBox$u2b$core..marker..Send$GT$$GT$17h34fee65df116ba20E
Ltmp724:
	jmp	LBB145_15
LBB145_17:
Ltmp725:
	.loc	32 125 5
	callq	__ZN4core9panicking19panic_cannot_unwind17h1fbca7e1d7f56ae1E
Ltmp739:
Lfunc_end145:
	.cfi_endproc
	.section	__TEXT,__gcc_except_tab
	.p2align	2
GCC_except_table145:
Lexception19:
	.byte	255
	.byte	255
	.byte	1
	.uleb128 Lcst_end19-Lcst_begin19
Lcst_begin19:
	.uleb128 Ltmp716-Lfunc_begin145
	.uleb128 Ltmp719-Ltmp716
	.uleb128 Ltmp722-Lfunc_begin145
	.byte	0
	.uleb128 Ltmp719-Lfunc_begin145
	.uleb128 Ltmp723-Ltmp719
	.byte	0
	.byte	0
	.uleb128 Ltmp723-Lfunc_begin145
	.uleb128 Ltmp724-Ltmp723
	.uleb128 Ltmp725-Lfunc_begin145
	.byte	0
Lcst_end19:
	.p2align	2

	.section	__TEXT,__text,regular,pure_instructions
	.globl	__ZN3std4sync4mpmc15Sender$LT$T$GT$4send17h6ab9d017779df536E
	.p2align	4, 0x90
__ZN3std4sync4mpmc15Sender$LT$T$GT$4send17h6ab9d017779df536E:
Lfunc_begin146:
	.loc	32 125 0
	.cfi_startproc
	.cfi_personality 155, _rust_eh_personality
	.cfi_lsda 16, Lexception20
	pushq	%rbp
	.cfi_def_cfa_offset 16
	.cfi_offset %rbp, -16
	movq	%rsp, %rbp
	.cfi_def_cfa_register %rbp
	subq	$464, %rsp
	movq	%rdx, -440(%rbp)
Ltmp758:
	movq	%rsi, -432(%rbp)
	movq	%rdi, -424(%rbp)
	movq	%rdi, -416(%rbp)
	movq	%rsi, -48(%rbp)
Ltmp759:
	.loc	32 126 9 prologue_end
	movb	$1, -49(%rbp)
	.loc	32 126 15 is_stmt 0
	movq	(%rsi), %rax
	movq	%rax, -408(%rbp)
	.loc	32 126 9
	testq	%rax, %rax
Ltmp760:
	je	LBB146_2
	jmp	LBB146_18
Ltmp761:
LBB146_18:
	.loc	32 0 9
	movq	-408(%rbp), %rax
	.loc	32 126 9
	subq	$1, %rax
	je	LBB146_3
	jmp	LBB146_19
Ltmp762:
LBB146_19:
	jmp	LBB146_4
Ltmp763:
	.loc	32 126 15
	ud2
LBB146_2:
Ltmp764:
	.loc	32 0 15
	movq	-432(%rbp), %rdi
	.loc	32 127 33 is_stmt 1
	addq	$8, %rdi
	movq	%rdi, -8(%rbp)
Ltmp748:
Ltmp765:
	.loc	32 127 42 is_stmt 0
	callq	__ZN85_$LT$std..sync..mpmc..counter..Sender$LT$C$GT$$u20$as$u20$core..ops..deref..Deref$GT$5deref17h96b0a6f9ef200586E
Ltmp749:
	movq	%rax, -448(%rbp)
	jmp	LBB146_12
Ltmp766:
LBB146_3:
	.loc	32 0 42
	movq	-432(%rbp), %rdi
	.loc	32 128 32 is_stmt 1
	addq	$8, %rdi
	movq	%rdi, -16(%rbp)
Ltmp744:
Ltmp767:
	.loc	32 128 41 is_stmt 0
	callq	__ZN85_$LT$std..sync..mpmc..counter..Sender$LT$C$GT$$u20$as$u20$core..ops..deref..Deref$GT$5deref17ha31b838515905db3E
Ltmp745:
	movq	%rax, -456(%rbp)
	jmp	LBB146_10
Ltmp768:
LBB146_4:
	.loc	32 0 41
	movq	-432(%rbp), %rdi
	.loc	32 129 32 is_stmt 1
	addq	$8, %rdi
	movq	%rdi, -40(%rbp)
Ltmp740:
Ltmp769:
	.loc	32 129 41 is_stmt 0
	callq	__ZN85_$LT$std..sync..mpmc..counter..Sender$LT$C$GT$$u20$as$u20$core..ops..deref..Deref$GT$5deref17hfd5ca0bf781b677bE
Ltmp741:
	movq	%rax, -464(%rbp)
	jmp	LBB146_7
Ltmp770:
LBB146_5:
	.loc	32 135 5 is_stmt 1
	testb	$1, -49(%rbp)
	jne	LBB146_16
	jmp	LBB146_15
Ltmp771:
LBB146_6:
Ltmp754:
	.loc	32 0 5 is_stmt 0
	movq	%rax, %rcx
	movl	%edx, %eax
	movq	%rcx, -32(%rbp)
	movl	%eax, -24(%rbp)
	jmp	LBB146_5
Ltmp772:
LBB146_7:
	movq	-440(%rbp), %rsi
Ltmp773:
	.loc	32 129 51 is_stmt 1
	movb	$0, -49(%rbp)
	movl	$9, %ecx
	leaq	-144(%rbp), %rdx
	movq	%rdx, %rdi
	rep;movsq (%rsi), %es:(%rdi)
	movq	-464(%rbp), %rsi
	.loc	32 129 56 is_stmt 0
	movq	$0, -72(%rbp)
	.loc	32 129 41
	movq	-72(%rbp), %rcx
	movq	-64(%rbp), %r8
Ltmp742:
	leaq	-400(%rbp), %rdi
	callq	__ZN3std4sync4mpmc4zero16Channel$LT$T$GT$4send17h9527ddef32c3844bE
Ltmp743:
	jmp	LBB146_8
Ltmp774:
LBB146_8:
	.loc	32 129 60
	jmp	LBB146_9
Ltmp775:
LBB146_9:
Ltmp752:
	.loc	32 0 60
	movq	-424(%rbp), %rdi
	leaq	-400(%rbp), %rsi
	.loc	32 126 9 is_stmt 1
	callq	__ZN4core6result19Result$LT$T$C$E$GT$7map_err17hcd65e46b5c5a1af8E
Ltmp753:
	jmp	LBB146_14
Ltmp776:
LBB146_10:
	.loc	32 0 9 is_stmt 0
	movq	-440(%rbp), %rsi
Ltmp777:
	.loc	32 128 51 is_stmt 1
	movb	$0, -49(%rbp)
	movl	$9, %ecx
	leaq	-232(%rbp), %rdx
	movq	%rdx, %rdi
	rep;movsq (%rsi), %es:(%rdi)
	movq	-456(%rbp), %rsi
	.loc	32 128 56 is_stmt 0
	movq	$0, -160(%rbp)
	.loc	32 128 41
	movq	-160(%rbp), %rcx
	movq	-152(%rbp), %r8
Ltmp746:
	leaq	-400(%rbp), %rdi
	callq	__ZN3std4sync4mpmc4list16Channel$LT$T$GT$4send17h83115a0dd61e54faE
Ltmp747:
	jmp	LBB146_11
Ltmp778:
LBB146_11:
	.loc	32 128 60
	jmp	LBB146_9
Ltmp779:
LBB146_12:
	.loc	32 0 60
	movq	-440(%rbp), %rsi
Ltmp780:
	.loc	32 127 52 is_stmt 1
	movb	$0, -49(%rbp)
	movl	$9, %ecx
	leaq	-320(%rbp), %rdx
	movq	%rdx, %rdi
	rep;movsq (%rsi), %es:(%rdi)
	movq	-448(%rbp), %rsi
	.loc	32 127 57 is_stmt 0
	movq	$0, -248(%rbp)
	.loc	32 127 42
	movq	-248(%rbp), %rcx
	movq	-240(%rbp), %r8
Ltmp750:
	leaq	-400(%rbp), %rdi
	callq	__ZN3std4sync4mpmc5array16Channel$LT$T$GT$4send17hd26d62efcd344ba6E
Ltmp751:
	jmp	LBB146_13
Ltmp781:
LBB146_13:
	.loc	32 127 61
	jmp	LBB146_9
Ltmp782:
LBB146_14:
	.loc	32 0 61
	movq	-416(%rbp), %rax
	.loc	32 135 6 is_stmt 1
	addq	$464, %rsp
	popq	%rbp
	retq
Ltmp783:
LBB146_15:
	.loc	32 125 5
	movq	-32(%rbp), %rdi
	callq	__Unwind_Resume
Ltmp784:
LBB146_16:
Ltmp755:
	.loc	32 0 5 is_stmt 0
	movq	-440(%rbp), %rdi
	.loc	32 135 5 is_stmt 1
	callq	__ZN4core3ptr43drop_in_place$LT$mandelbrot..IntAtPoint$GT$17hc46ee9688ebaf19fE
Ltmp756:
	jmp	LBB146_15
Ltmp785:
LBB146_17:
Ltmp757:
	.loc	32 125 5
	callq	__ZN4core9panicking19panic_cannot_unwind17h1fbca7e1d7f56ae1E
Ltmp786:
Lfunc_end146:
	.cfi_endproc
	.section	__TEXT,__gcc_except_tab
	.p2align	2
GCC_except_table146:
Lexception20:
	.byte	255
	.byte	255
	.byte	1
	.uleb128 Lcst_end20-Lcst_begin20
Lcst_begin20:
	.uleb128 Ltmp748-Lfunc_begin146
	.uleb128 Ltmp751-Ltmp748
	.uleb128 Ltmp754-Lfunc_begin146
	.byte	0
	.uleb128 Ltmp751-Lfunc_begin146
	.uleb128 Ltmp755-Ltmp751
	.byte	0
	.byte	0
	.uleb128 Ltmp755-Lfunc_begin146
	.uleb128 Ltmp756-Ltmp755
	.uleb128 Ltmp757-Lfunc_begin146
	.byte	0
Lcst_end20:
	.p2align	2

	.section	__TEXT,__text,regular,pure_instructions
	.globl	__ZN3std4sync4mpmc15Sender$LT$T$GT$4send28_$u7b$$u7b$closure$u7d$$u7d$17h55c7767c7aab4ec7E
	.p2align	4, 0x90
__ZN3std4sync4mpmc15Sender$LT$T$GT$4send28_$u7b$$u7b$closure$u7d$$u7d$17h55c7767c7aab4ec7E:
Lfunc_begin147:
	.loc	32 131 0
	.cfi_startproc
	.cfi_personality 155, _rust_eh_personality
	.cfi_lsda 16, Lexception21
	pushq	%rbp
	.cfi_def_cfa_offset 16
	.cfi_offset %rbp, -16
	movq	%rsp, %rbp
	.cfi_def_cfa_register %rbp
	subq	$192, %rsp
	movq	%rsi, -192(%rbp)
Ltmp793:
	movq	%rdi, -184(%rbp)
	movq	%rdi, -176(%rbp)
Ltmp794:
	.loc	32 131 24 prologue_end
	cmpq	$0, (%rsi)
Ltmp795:
	jne	LBB147_2
Ltmp796:
Ltmp787:
	.loc	32 133 45
	leaq	l___unnamed_37(%rip), %rdi
	leaq	l___unnamed_38(%rip), %rdx
	movl	$40, %esi
	callq	__ZN4core9panicking5panic17hc1bc45270cf64b03E
Ltmp788:
	jmp	LBB147_7
Ltmp797:
LBB147_2:
	.loc	32 0 45 is_stmt 0
	movq	-192(%rbp), %rsi
	.loc	32 132 44 is_stmt 1
	addq	$8, %rsi
	leaq	-168(%rbp), %rdi
	movl	$72, %edx
	callq	_memcpy
Ltmp798:
	.loc	32 132 62 is_stmt 0
	leaq	-96(%rbp), %rdi
	leaq	-168(%rbp), %rsi
	movl	$72, %edx
	callq	_memcpy
	movq	-184(%rbp), %rdi
	.loc	32 132 52
	leaq	-96(%rbp), %rsi
	movl	$72, %edx
	callq	_memcpy
	movq	-192(%rbp), %rax
Ltmp799:
	.loc	32 134 9 is_stmt 1
	cmpq	$1, (%rax)
	jne	LBB147_4
Ltmp800:
LBB147_3:
	.loc	32 0 9 is_stmt 0
	movq	-176(%rbp), %rax
	.loc	32 134 10
	addq	$192, %rsp
	popq	%rbp
	retq
Ltmp801:
LBB147_4:
	.loc	32 0 10
	movq	-192(%rbp), %rdi
	.loc	32 134 9
	callq	__ZN4core3ptr91drop_in_place$LT$std..sync..mpmc..error..SendTimeoutError$LT$mandelbrot..IntAtPoint$GT$$GT$17hf0a48ab060f2c5dcE
	jmp	LBB147_3
Ltmp802:
LBB147_5:
	.loc	32 0 9
	movq	-192(%rbp), %rax
	.loc	32 134 9
	cmpq	$1, (%rax)
	je	LBB147_8
	jmp	LBB147_9
Ltmp803:
LBB147_6:
Ltmp789:
	.loc	32 0 9
	movq	%rax, %rcx
	movl	%edx, %eax
	movq	%rcx, -16(%rbp)
	movl	%eax, -8(%rbp)
	jmp	LBB147_5
Ltmp804:
LBB147_7:
	ud2
Ltmp805:
LBB147_8:
	.loc	32 131 18 is_stmt 1
	movq	-16(%rbp), %rdi
	callq	__Unwind_Resume
Ltmp806:
LBB147_9:
Ltmp790:
	.loc	32 0 18 is_stmt 0
	movq	-192(%rbp), %rdi
	.loc	32 134 9 is_stmt 1
	callq	__ZN4core3ptr91drop_in_place$LT$std..sync..mpmc..error..SendTimeoutError$LT$mandelbrot..IntAtPoint$GT$$GT$17hf0a48ab060f2c5dcE
Ltmp791:
	jmp	LBB147_8
Ltmp807:
LBB147_10:
Ltmp792:
	.loc	32 131 18
	callq	__ZN4core9panicking19panic_cannot_unwind17h1fbca7e1d7f56ae1E
Ltmp808:
Lfunc_end147:
	.cfi_endproc
	.section	__TEXT,__gcc_except_tab
	.p2align	2
GCC_except_table147:
Lexception21:
	.byte	255
	.byte	255
	.byte	1
	.uleb128 Lcst_end21-Lcst_begin21
Lcst_begin21:
	.uleb128 Ltmp787-Lfunc_begin147
	.uleb128 Ltmp788-Ltmp787
	.uleb128 Ltmp789-Lfunc_begin147
	.byte	0
	.uleb128 Ltmp788-Lfunc_begin147
	.uleb128 Ltmp790-Ltmp788
	.byte	0
	.byte	0
	.uleb128 Ltmp790-Lfunc_begin147
	.uleb128 Ltmp791-Ltmp790
	.uleb128 Ltmp792-Lfunc_begin147
	.byte	0
Lcst_end21:
	.p2align	2

	.section	__TEXT,__text,regular,pure_instructions
	.globl	__ZN3std4sync4mpmc15Sender$LT$T$GT$4send28_$u7b$$u7b$closure$u7d$$u7d$17h5d9d15b45934d806E
	.p2align	4, 0x90
__ZN3std4sync4mpmc15Sender$LT$T$GT$4send28_$u7b$$u7b$closure$u7d$$u7d$17h5d9d15b45934d806E:
Lfunc_begin148:
	.loc	32 131 0
	.cfi_startproc
	.cfi_personality 155, _rust_eh_personality
	.cfi_lsda 16, Lexception22
	pushq	%rbp
	.cfi_def_cfa_offset 16
	.cfi_offset %rbp, -16
	movq	%rsp, %rbp
	.cfi_def_cfa_register %rbp
	subq	$64, %rsp
	movq	%rdi, -64(%rbp)
Ltmp815:
	.loc	32 131 24 prologue_end
	cmpq	$0, (%rdi)
Ltmp816:
	jne	LBB148_2
Ltmp817:
Ltmp809:
	.loc	32 133 45
	leaq	l___unnamed_37(%rip), %rdi
	leaq	l___unnamed_38(%rip), %rdx
	movl	$40, %esi
	callq	__ZN4core9panicking5panic17hc1bc45270cf64b03E
Ltmp810:
	jmp	LBB148_7
Ltmp818:
LBB148_2:
	.loc	32 0 45 is_stmt 0
	movq	-64(%rbp), %rax
	.loc	32 132 44 is_stmt 1
	movq	8(%rax), %rdx
	movq	16(%rax), %rcx
	movq	%rdx, -32(%rbp)
	movq	%rcx, -24(%rbp)
Ltmp819:
	.loc	32 132 52 is_stmt 0
	movq	%rdx, -56(%rbp)
	movq	%rcx, -48(%rbp)
Ltmp820:
	.loc	32 134 9 is_stmt 1
	cmpq	$1, (%rax)
	jne	LBB148_4
Ltmp821:
LBB148_3:
	.loc	32 134 10 is_stmt 0
	movq	-56(%rbp), %rax
	movq	-48(%rbp), %rdx
	addq	$64, %rsp
	popq	%rbp
	retq
Ltmp822:
LBB148_4:
	.loc	32 0 10
	movq	-64(%rbp), %rdi
	.loc	32 134 9
	callq	__ZN4core3ptr142drop_in_place$LT$std..sync..mpmc..error..SendTimeoutError$LT$alloc..boxed..Box$LT$dyn$u20$threadpool..FnBox$u2b$core..marker..Send$GT$$GT$$GT$17hbff340bb3843f126E
	jmp	LBB148_3
Ltmp823:
LBB148_5:
	.loc	32 0 9
	movq	-64(%rbp), %rax
	.loc	32 134 9
	cmpq	$1, (%rax)
	je	LBB148_8
	jmp	LBB148_9
Ltmp824:
LBB148_6:
Ltmp811:
	.loc	32 0 9
	movq	%rax, %rcx
	movl	%edx, %eax
	movq	%rcx, -16(%rbp)
	movl	%eax, -8(%rbp)
	jmp	LBB148_5
Ltmp825:
LBB148_7:
	ud2
Ltmp826:
LBB148_8:
	.loc	32 131 18 is_stmt 1
	movq	-16(%rbp), %rdi
	callq	__Unwind_Resume
Ltmp827:
LBB148_9:
Ltmp812:
	.loc	32 0 18 is_stmt 0
	movq	-64(%rbp), %rdi
	.loc	32 134 9 is_stmt 1
	callq	__ZN4core3ptr142drop_in_place$LT$std..sync..mpmc..error..SendTimeoutError$LT$alloc..boxed..Box$LT$dyn$u20$threadpool..FnBox$u2b$core..marker..Send$GT$$GT$$GT$17hbff340bb3843f126E
Ltmp813:
	jmp	LBB148_8
Ltmp828:
LBB148_10:
Ltmp814:
	.loc	32 131 18
	callq	__ZN4core9panicking19panic_cannot_unwind17h1fbca7e1d7f56ae1E
Ltmp829:
Lfunc_end148:
	.cfi_endproc
	.section	__TEXT,__gcc_except_tab
	.p2align	2
GCC_except_table148:
Lexception22:
	.byte	255
	.byte	255
	.byte	1
	.uleb128 Lcst_end22-Lcst_begin22
Lcst_begin22:
	.uleb128 Ltmp809-Lfunc_begin148
	.uleb128 Ltmp810-Ltmp809
	.uleb128 Ltmp811-Lfunc_begin148
	.byte	0
	.uleb128 Ltmp810-Lfunc_begin148
	.uleb128 Ltmp812-Ltmp810
	.byte	0
	.byte	0
	.uleb128 Ltmp812-Lfunc_begin148
	.uleb128 Ltmp813-Ltmp812
	.uleb128 Ltmp814-Lfunc_begin148
	.byte	0
Lcst_end22:
	.p2align	2

	.section	__TEXT,__text,regular,pure_instructions
	.globl	__ZN3std4sync4mpmc17Receiver$LT$T$GT$4recv17h4113cf989515537bE
	.p2align	4, 0x90
__ZN3std4sync4mpmc17Receiver$LT$T$GT$4recv17h4113cf989515537bE:
Lfunc_begin149:
	.loc	32 304 0
	.cfi_startproc
	pushq	%rbp
	.cfi_def_cfa_offset 16
	.cfi_offset %rbp, -16
	movq	%rsp, %rbp
	.cfi_def_cfa_register %rbp
	subq	$192, %rsp
	movq	%rsi, -184(%rbp)
	movq	%rdi, -176(%rbp)
	movq	%rdi, -168(%rbp)
	movq	%rsi, -32(%rbp)
Ltmp830:
	.loc	32 305 15 prologue_end
	movq	(%rsi), %rax
	movq	%rax, -160(%rbp)
	.loc	32 305 9 is_stmt 0
	testq	%rax, %rax
	je	LBB149_2
	jmp	LBB149_6
LBB149_6:
	.loc	32 0 9
	movq	-160(%rbp), %rax
	.loc	32 305 9
	subq	$1, %rax
	je	LBB149_3
	jmp	LBB149_7
LBB149_7:
	jmp	LBB149_4
	.loc	32 305 15
	ud2
LBB149_2:
	.loc	32 0 15
	movq	-184(%rbp), %rdi
	.loc	32 306 35 is_stmt 1
	addq	$8, %rdi
	movq	%rdi, -8(%rbp)
Ltmp831:
	.loc	32 306 44 is_stmt 0
	callq	__ZN87_$LT$std..sync..mpmc..counter..Receiver$LT$C$GT$$u20$as$u20$core..ops..deref..Deref$GT$5deref17h1c03a09dc8154915E
	movq	%rax, %rsi
	.loc	32 306 54
	movq	$0, -80(%rbp)
	.loc	32 306 44
	movq	-80(%rbp), %rdx
	movq	-72(%rbp), %rcx
	leaq	-152(%rbp), %rdi
	callq	__ZN3std4sync4mpmc5array16Channel$LT$T$GT$4recv17h12e8334500624663E
Ltmp832:
	.loc	32 306 58
	jmp	LBB149_5
LBB149_3:
	.loc	32 0 58
	movq	-184(%rbp), %rdi
	.loc	32 307 34 is_stmt 1
	addq	$8, %rdi
	movq	%rdi, -16(%rbp)
Ltmp833:
	.loc	32 307 43 is_stmt 0
	callq	__ZN87_$LT$std..sync..mpmc..counter..Receiver$LT$C$GT$$u20$as$u20$core..ops..deref..Deref$GT$5deref17hb6d228024a8c4426E
	movq	%rax, %rsi
	.loc	32 307 53
	movq	$0, -64(%rbp)
	.loc	32 307 43
	movq	-64(%rbp), %rdx
	movq	-56(%rbp), %rcx
	leaq	-152(%rbp), %rdi
	callq	__ZN3std4sync4mpmc4list16Channel$LT$T$GT$4recv17hcc9260c6ad5a25d9E
Ltmp834:
	.loc	32 307 57
	jmp	LBB149_5
LBB149_4:
	.loc	32 0 57
	movq	-184(%rbp), %rdi
	.loc	32 308 34 is_stmt 1
	addq	$8, %rdi
	movq	%rdi, -24(%rbp)
Ltmp835:
	.loc	32 308 43 is_stmt 0
	callq	__ZN87_$LT$std..sync..mpmc..counter..Receiver$LT$C$GT$$u20$as$u20$core..ops..deref..Deref$GT$5deref17h6247af6b83b6c076E
	movq	%rax, %rsi
	.loc	32 308 53
	movq	$0, -48(%rbp)
	.loc	32 308 43
	movq	-48(%rbp), %rdx
	movq	-40(%rbp), %rcx
	leaq	-152(%rbp), %rdi
	callq	__ZN3std4sync4mpmc4zero16Channel$LT$T$GT$4recv17h24b72dbd7e5a3c57E
Ltmp836:
LBB149_5:
	.loc	32 0 43
	movq	-176(%rbp), %rdi
	.loc	32 305 9 is_stmt 1
	leaq	-152(%rbp), %rsi
	callq	__ZN4core6result19Result$LT$T$C$E$GT$7map_err17hacc338fadf7fdce6E
	movq	-168(%rbp), %rax
	.loc	32 311 6
	addq	$192, %rsp
	popq	%rbp
	retq
Ltmp837:
Lfunc_end149:
	.cfi_endproc

	.globl	__ZN3std4sync4mpmc17Receiver$LT$T$GT$4recv28_$u7b$$u7b$closure$u7d$$u7d$17h87f6af4a0dc11f85E
	.p2align	4, 0x90
__ZN3std4sync4mpmc17Receiver$LT$T$GT$4recv28_$u7b$$u7b$closure$u7d$$u7d$17h87f6af4a0dc11f85E:
Lfunc_begin150:
	.loc	32 310 0
	.cfi_startproc
	pushq	%rbp
	.cfi_def_cfa_offset 16
	.cfi_offset %rbp, -16
	movq	%rsp, %rbp
	.cfi_def_cfa_register %rbp
	pushq	%rax
	movb	%dil, %al
	andb	$1, %al
	movb	%al, -1(%rbp)
Ltmp838:
	.loc	32 310 31 prologue_end
	addq	$8, %rsp
	popq	%rbp
	retq
Ltmp839:
Lfunc_end150:
	.cfi_endproc

	.globl	__ZN3std4sync4mpmc4list13Slot$LT$T$GT$10wait_write17h4d91553b8e6ae70aE
	.p2align	4, 0x90
__ZN3std4sync4mpmc4list13Slot$LT$T$GT$10wait_write17h4d91553b8e6ae70aE:
Lfunc_begin151:
	.file	33 "/rustc/2c8cc343237b8f7d5a3c3703e3a87f2eb2c54a74/library/std/src/sync/mpmc" "list.rs"
	.loc	33 46 0
	.cfi_startproc
	pushq	%rbp
	.cfi_def_cfa_offset 16
	.cfi_offset %rbp, -16
	movq	%rsp, %rbp
	.cfi_def_cfa_register %rbp
	subq	$48, %rsp
	movq	%rdi, -40(%rbp)
	movq	%rdi, -24(%rbp)
Ltmp840:
	.loc	33 47 23 prologue_end
	callq	__ZN3std4sync4mpmc5utils7Backoff3new17he8f9e4a8703c1ea7E
	movl	%eax, -28(%rbp)
LBB151_1:
	.loc	33 0 23 is_stmt 0
	movq	-40(%rbp), %rdi
Ltmp841:
	.loc	33 48 15 is_stmt 1
	addq	$72, %rdi
	movq	%rdi, -16(%rbp)
Ltmp842:
	.file	34 "/rustc/2c8cc343237b8f7d5a3c3703e3a87f2eb2c54a74/library/core/src/sync" "atomic.rs"
	.loc	34 2127 38
	movq	%rdi, -8(%rbp)
	.loc	34 2127 26 is_stmt 0
	movl	$2, %esi
	callq	__ZN4core4sync6atomic11atomic_load17h02119c845b0293e5E
Ltmp843:
	.loc	33 48 15 is_stmt 1
	andq	$1, %rax
	cmpq	$0, %rax
	jne	LBB151_3
	.loc	33 49 13
	leaq	-28(%rbp), %rdi
	callq	__ZN3std4sync4mpmc5utils7Backoff10spin_heavy17h1f7ae316b1b05b77E
	.loc	33 48 9
	jmp	LBB151_1
Ltmp844:
LBB151_3:
	.loc	33 51 6
	addq	$48, %rsp
	popq	%rbp
	retq
Ltmp845:
Lfunc_end151:
	.cfi_endproc

	.globl	__ZN3std4sync4mpmc4list14Block$LT$T$GT$3new17h5212535eb05c5f73E
	.p2align	4, 0x90
__ZN3std4sync4mpmc4list14Block$LT$T$GT$3new17h5212535eb05c5f73E:
Lfunc_begin152:
	.loc	33 67 0
	.cfi_startproc
	pushq	%rbp
	.cfi_def_cfa_offset 16
	.cfi_offset %rbp, -16
	movq	%rsp, %rbp
	.cfi_def_cfa_register %rbp
	subq	$1552, %rsp
	movq	%rdi, -1544(%rbp)
	movq	%rdi, -1536(%rbp)
Ltmp846:
	.loc	18 399 13 prologue_end
	leaq	-1528(%rbp), %rax
	movq	%rax, -24(%rbp)
Ltmp847:
	.loc	18 569 9
	leaq	-1528(%rbp), %rax
	movq	%rax, -16(%rbp)
Ltmp848:
	.loc	7 1488 30
	leaq	-1528(%rbp), %rax
	movq	%rax, -8(%rbp)
Ltmp849:
	.file	35 "/rustc/2c8cc343237b8f7d5a3c3703e3a87f2eb2c54a74/library/core/src" "intrinsics.rs"
	.loc	35 2529 9
	leaq	-1528(%rbp), %rdi
	xorl	%esi, %esi
	movl	$752, %edx
	callq	_memset
Ltmp850:
	.loc	18 627 38
	leaq	-776(%rbp), %rdi
	leaq	-1528(%rbp), %rsi
	movl	$752, %edx
	callq	_memcpy
	movq	-1544(%rbp), %rdi
Ltmp851:
	.loc	19 89 9
	leaq	-776(%rbp), %rsi
	movl	$752, %edx
	callq	_memcpy
	movq	-1536(%rbp), %rax
Ltmp852:
	.loc	33 75 6
	addq	$1552, %rsp
	popq	%rbp
	retq
Ltmp853:
Lfunc_end152:
	.cfi_endproc

	.globl	__ZN3std4sync4mpmc4list14Block$LT$T$GT$3new17h979d1e7f24c50471E
	.p2align	4, 0x90
__ZN3std4sync4mpmc4list14Block$LT$T$GT$3new17h979d1e7f24c50471E:
Lfunc_begin153:
	.loc	33 67 0
	.cfi_startproc
	pushq	%rbp
	.cfi_def_cfa_offset 16
	.cfi_offset %rbp, -16
	movq	%rsp, %rbp
	.cfi_def_cfa_register %rbp
	movl	$5024, %eax
	callq	___rust_probestack
	subq	%rax, %rsp
	movq	%rdi, -5016(%rbp)
	movq	%rdi, -5008(%rbp)
Ltmp854:
	.loc	18 399 13 prologue_end
	leaq	-5000(%rbp), %rax
	movq	%rax, -24(%rbp)
Ltmp855:
	.loc	18 569 9
	leaq	-5000(%rbp), %rax
	movq	%rax, -16(%rbp)
Ltmp856:
	.loc	7 1488 30
	leaq	-5000(%rbp), %rax
	movq	%rax, -8(%rbp)
Ltmp857:
	.loc	35 2529 9
	leaq	-5000(%rbp), %rdi
	xorl	%esi, %esi
	movl	$2488, %edx
	callq	_memset
Ltmp858:
	.loc	18 627 38
	leaq	-2512(%rbp), %rdi
	leaq	-5000(%rbp), %rsi
	movl	$2488, %edx
	callq	_memcpy
	movq	-5016(%rbp), %rdi
Ltmp859:
	.loc	19 89 9
	leaq	-2512(%rbp), %rsi
	movl	$2488, %edx
	callq	_memcpy
	movq	-5008(%rbp), %rax
Ltmp860:
	.loc	33 75 6
	addq	$5024, %rsp
	popq	%rbp
	retq
Ltmp861:
Lfunc_end153:
	.cfi_endproc

	.globl	__ZN3std4sync4mpmc4list14Block$LT$T$GT$7destroy17hc87090b86f43969dE
	.p2align	4, 0x90
__ZN3std4sync4mpmc4list14Block$LT$T$GT$7destroy17hc87090b86f43969dE:
Lfunc_begin154:
	.loc	33 90 0
	.cfi_startproc
	pushq	%rbp
	.cfi_def_cfa_offset 16
	.cfi_offset %rbp, -16
	movq	%rsp, %rbp
	.cfi_def_cfa_register %rbp
	subq	$320, %rsp
	movq	%rdi, -304(%rbp)
	movq	%rdi, -216(%rbp)
	movq	%rsi, -208(%rbp)
Ltmp862:
	.loc	33 93 18 prologue_end
	movq	%rsi, -296(%rbp)
	movq	$30, -288(%rbp)
Ltmp863:
	.file	36 "/rustc/2c8cc343237b8f7d5a3c3703e3a87f2eb2c54a74/library/core/src/iter/traits" "collect.rs"
	.loc	36 273 9
	movq	-296(%rbp), %rcx
	movq	-288(%rbp), %rax
Ltmp864:
	.loc	33 93 18
	movq	%rcx, -280(%rbp)
	movq	%rax, -272(%rbp)
LBB154_1:
	.loc	33 0 18 is_stmt 0
	leaq	-280(%rbp), %rdi
Ltmp865:
	.loc	33 93 18
	movq	%rdi, -192(%rbp)
Ltmp866:
	.file	37 "/rustc/2c8cc343237b8f7d5a3c3703e3a87f2eb2c54a74/library/core/src/iter" "range.rs"
	.loc	37 711 9 is_stmt 1
	callq	__ZN89_$LT$core..ops..range..Range$LT$T$GT$$u20$as$u20$core..iter..range..RangeIteratorImpl$GT$9spec_next17hb00c230f054cc049E
	movq	%rdx, -256(%rbp)
	movq	%rax, -264(%rbp)
Ltmp867:
	.loc	33 93 18
	cmpq	$0, -264(%rbp)
	jne	LBB154_3
Ltmp868:
	.loc	33 0 18 is_stmt 0
	movq	-304(%rbp), %rax
	.loc	33 106 28 is_stmt 1
	movq	%rax, -32(%rbp)
Ltmp869:
	.loc	3 958 36
	movq	%rax, -24(%rbp)
Ltmp870:
	.loc	3 1014 44
	movq	%rax, -16(%rbp)
Ltmp871:
	.file	38 "/rustc/2c8cc343237b8f7d5a3c3703e3a87f2eb2c54a74/library/core/src/ptr" "unique.rs"
	.loc	38 87 59
	movq	%rax, -8(%rbp)
Ltmp872:
	.file	39 "/rustc/2c8cc343237b8f7d5a3c3703e3a87f2eb2c54a74/library/core/src/ptr" "non_null.rs"
	.loc	39 201 13
	movq	%rax, -224(%rbp)
Ltmp873:
	.loc	38 87 18
	movq	-224(%rbp), %rax
	movq	%rax, -232(%rbp)
Ltmp874:
	.loc	3 1014 9
	movq	-232(%rbp), %rax
	movq	%rax, -240(%rbp)
Ltmp875:
	.file	40 "/rustc/2c8cc343237b8f7d5a3c3703e3a87f2eb2c54a74/library/core/src/mem" "mod.rs"
	.loc	40 980 24
	leaq	-240(%rbp), %rdi
	callq	__ZN4core3ptr104drop_in_place$LT$alloc..boxed..Box$LT$std..sync..mpmc..list..Block$LT$mandelbrot..IntAtPoint$GT$$GT$$GT$17h3513d58353ef953eE
Ltmp876:
	.loc	33 107 6
	jmp	LBB154_9
LBB154_3:
	.loc	33 0 6 is_stmt 0
	movq	-304(%rbp), %rax
Ltmp877:
	.loc	33 93 13 is_stmt 1
	movq	-256(%rbp), %rcx
	movq	%rcx, -184(%rbp)
Ltmp878:
	.loc	33 94 24
	movq	%rax, -176(%rbp)
	movq	$31, -168(%rbp)
	.loc	33 94 52 is_stmt 0
	movq	%rcx, -160(%rbp)
Ltmp879:
	.file	41 "/rustc/2c8cc343237b8f7d5a3c3703e3a87f2eb2c54a74/library/core/src/slice" "mod.rs"
	.loc	41 405 20 is_stmt 1
	movq	%rcx, -152(%rbp)
	.loc	41 405 40 is_stmt 0
	movq	%rax, -144(%rbp)
	movq	$31, -136(%rbp)
Ltmp880:
	.file	42 "/rustc/2c8cc343237b8f7d5a3c3703e3a87f2eb2c54a74/library/core/src/slice" "index.rs"
	.loc	42 240 13 is_stmt 1
	movq	%rax, -128(%rbp)
	movq	$31, -120(%rbp)
Ltmp881:
	.loc	6 1650 9
	movq	%rax, -112(%rbp)
Ltmp882:
	.loc	42 240 32
	movq	%rcx, -104(%rbp)
Ltmp883:
	.loc	6 932 18
	movq	%rax, -96(%rbp)
	.loc	6 932 30 is_stmt 0
	movq	%rcx, -88(%rbp)
Ltmp884:
	.loc	6 473 18 is_stmt 1
	imulq	$80, %rcx, %rcx
	addq	%rcx, %rax
	movq	%rax, -80(%rbp)
	movq	-80(%rbp), %rdi
	movq	%rdi, -312(%rbp)
Ltmp885:
	.loc	41 405 18
	movq	%rdi, -72(%rbp)
Ltmp886:
	.loc	33 97 16
	addq	$72, %rdi
	movq	%rdi, -64(%rbp)
Ltmp887:
	.loc	34 2127 38
	movq	%rdi, -56(%rbp)
	.loc	34 2127 26 is_stmt 0
	movl	$2, %esi
	callq	__ZN4core4sync6atomic11atomic_load17h02119c845b0293e5E
Ltmp888:
	.loc	33 97 16 is_stmt 1
	andq	$2, %rax
	cmpq	$0, %rax
	jne	LBB154_5
	.loc	33 0 16 is_stmt 0
	movq	-312(%rbp), %rdi
	.loc	33 98 20 is_stmt 1
	addq	$72, %rdi
	movq	%rdi, -48(%rbp)
Ltmp889:
	.loc	34 2508 36
	movq	%rdi, -40(%rbp)
	.loc	34 2508 26 is_stmt 0
	movl	$4, %esi
	movl	$3, %edx
	callq	__ZN4core4sync6atomic9atomic_or17h5b7eb60a134696a2E
Ltmp890:
	.loc	33 98 20 is_stmt 1
	andq	$2, %rax
	cmpq	$0, %rax
	sete	%al
	.loc	33 97 16
	andb	$1, %al
	movb	%al, -241(%rbp)
	jmp	LBB154_6
LBB154_5:
	movb	$0, -241(%rbp)
LBB154_6:
	testb	$1, -241(%rbp)
	jne	LBB154_8
Ltmp891:
	.loc	33 93 9
	jmp	LBB154_1
Ltmp892:
LBB154_8:
	.loc	33 107 6
	jmp	LBB154_9
LBB154_9:
	addq	$320, %rsp
	popq	%rbp
	retq
Ltmp893:
Lfunc_end154:
	.cfi_endproc

	.globl	__ZN3std4sync4mpmc4list14Block$LT$T$GT$9wait_next17hcbff951253b24e45E
	.p2align	4, 0x90
__ZN3std4sync4mpmc4list14Block$LT$T$GT$9wait_next17hcbff951253b24e45E:
Lfunc_begin155:
	.loc	33 78 0
	.cfi_startproc
	pushq	%rbp
	.cfi_def_cfa_offset 16
	.cfi_offset %rbp, -16
	movq	%rsp, %rbp
	.cfi_def_cfa_register %rbp
	subq	$112, %rsp
	movq	%rdi, -96(%rbp)
	movq	%rdi, -72(%rbp)
Ltmp894:
	.loc	33 79 23 prologue_end
	callq	__ZN3std4sync4mpmc5utils7Backoff3new17he8f9e4a8703c1ea7E
	movl	%eax, -84(%rbp)
LBB155_1:
	.loc	33 0 23 is_stmt 0
	movq	-96(%rbp), %rdi
Ltmp895:
	.loc	33 81 24 is_stmt 1
	addq	$2480, %rdi
	movq	%rdi, -64(%rbp)
Ltmp896:
	.loc	34 1191 30
	movq	%rdi, -56(%rbp)
	.loc	34 1191 18 is_stmt 0
	movl	$2, %esi
	callq	__ZN4core4sync6atomic11atomic_load17hb1002bd775353276E
	movq	%rax, -104(%rbp)
	movq	%rax, -48(%rbp)
Ltmp897:
	.loc	33 82 17 is_stmt 1
	movq	%rax, -40(%rbp)
Ltmp898:
	.loc	7 52 36
	movq	%rax, -80(%rbp)
	.loc	7 52 18 is_stmt 0
	movq	-80(%rbp), %rax
	movq	%rax, -32(%rbp)
Ltmp899:
	.loc	7 38 13 is_stmt 1
	movq	%rax, -24(%rbp)
Ltmp900:
	.loc	7 215 33
	movq	%rax, -16(%rbp)
	.loc	7 215 18 is_stmt 0
	movq	%rax, -8(%rbp)
Ltmp901:
	.loc	7 38 13 is_stmt 1
	cmpq	$0, -8(%rbp)
	sete	%al
Ltmp902:
	.loc	33 82 16
	xorb	$-1, %al
	testb	$1, %al
	jne	LBB155_3
	.loc	33 85 13
	leaq	-84(%rbp), %rdi
	callq	__ZN3std4sync4mpmc5utils7Backoff10spin_heavy17h1f7ae316b1b05b77E
Ltmp903:
	.loc	33 80 9
	jmp	LBB155_1
Ltmp904:
LBB155_3:
	.loc	33 0 9 is_stmt 0
	movq	-104(%rbp), %rax
	.loc	33 87 6 is_stmt 1
	addq	$112, %rsp
	popq	%rbp
	retq
Ltmp905:
Lfunc_end155:
	.cfi_endproc

	.globl	__ZN3std4sync4mpmc4list16Channel$LT$T$GT$10start_recv17h3f4925528ae4dc2eE
	.p2align	4, 0x90
__ZN3std4sync4mpmc4list16Channel$LT$T$GT$10start_recv17h3f4925528ae4dc2eE:
Lfunc_begin156:
	.loc	33 278 0
	.cfi_startproc
	pushq	%rbp
	.cfi_def_cfa_offset 16
	.cfi_offset %rbp, -16
	movq	%rsp, %rbp
	.cfi_def_cfa_register %rbp
	subq	$528, %rsp
	movq	%rdi, -496(%rbp)
	movq	%rsi, -504(%rbp)
	movq	%rdi, -392(%rbp)
	movq	%rsi, -384(%rbp)
Ltmp906:
	.loc	33 279 23 prologue_end
	callq	__ZN3std4sync4mpmc5utils7Backoff3new17he8f9e4a8703c1ea7E
	movq	-496(%rbp), %rdi
	movl	%eax, -484(%rbp)
Ltmp907:
	.loc	33 280 24
	callq	__ZN88_$LT$std..sync..mpmc..utils..CachePadded$LT$T$GT$$u20$as$u20$core..ops..deref..Deref$GT$5deref17h4485c64de63e3605E
	movq	%rax, %rdi
	movq	%rdi, -368(%rbp)
Ltmp908:
	.loc	34 2127 38
	movq	%rdi, -360(%rbp)
	.loc	34 2127 26 is_stmt 0
	movl	$2, %esi
	callq	__ZN4core4sync6atomic11atomic_load17h02119c845b0293e5E
	movq	-496(%rbp), %rdi
	movq	%rax, -480(%rbp)
Ltmp909:
	.loc	33 281 25 is_stmt 1
	callq	__ZN88_$LT$std..sync..mpmc..utils..CachePadded$LT$T$GT$$u20$as$u20$core..ops..deref..Deref$GT$5deref17h4485c64de63e3605E
	movq	%rax, %rdi
	addq	$8, %rdi
	movq	%rdi, -352(%rbp)
Ltmp910:
	.loc	34 1191 30
	movq	%rdi, -344(%rbp)
	.loc	34 1191 18 is_stmt 0
	movl	$2, %esi
	callq	__ZN4core4sync6atomic11atomic_load17hb1002bd775353276E
	movq	%rax, -472(%rbp)
Ltmp911:
LBB156_1:
	.loc	33 285 27 is_stmt 1
	movq	-480(%rbp), %rax
	.loc	33 285 26 is_stmt 0
	shrq	$1, %rax
	andq	$31, %rax
	movq	%rax, -512(%rbp)
	movq	%rax, -336(%rbp)
Ltmp912:
	.loc	33 288 16 is_stmt 1
	cmpq	$31, %rax
	je	LBB156_3
	.loc	33 295 32
	movq	-480(%rbp), %rax
	addq	$2, %rax
	movq	%rax, -464(%rbp)
Ltmp913:
	.loc	33 297 16
	movq	-464(%rbp), %rax
	andq	$1, %rax
	cmpq	$0, %rax
	je	LBB156_5
	jmp	LBB156_6
Ltmp914:
LBB156_3:
	.loc	33 289 17
	leaq	-484(%rbp), %rdi
	callq	__ZN3std4sync4mpmc5utils7Backoff10spin_heavy17h1f7ae316b1b05b77E
	movq	-496(%rbp), %rdi
	.loc	33 290 24
	callq	__ZN88_$LT$std..sync..mpmc..utils..CachePadded$LT$T$GT$$u20$as$u20$core..ops..deref..Deref$GT$5deref17h4485c64de63e3605E
	movq	%rax, %rdi
	movq	%rdi, -328(%rbp)
Ltmp915:
	.loc	34 2127 38
	movq	%rdi, -320(%rbp)
	.loc	34 2127 26 is_stmt 0
	movl	$2, %esi
	callq	__ZN4core4sync6atomic11atomic_load17h02119c845b0293e5E
	movq	-496(%rbp), %rdi
Ltmp916:
	.loc	33 290 17 is_stmt 1
	movq	%rax, -480(%rbp)
	.loc	33 291 25
	callq	__ZN88_$LT$std..sync..mpmc..utils..CachePadded$LT$T$GT$$u20$as$u20$core..ops..deref..Deref$GT$5deref17h4485c64de63e3605E
	movq	%rax, %rdi
	addq	$8, %rdi
	movq	%rdi, -312(%rbp)
Ltmp917:
	.loc	34 1191 30
	movq	%rdi, -304(%rbp)
	.loc	34 1191 18 is_stmt 0
	movl	$2, %esi
	callq	__ZN4core4sync6atomic11atomic_load17hb1002bd775353276E
Ltmp918:
	.loc	33 291 17 is_stmt 1
	movq	%rax, -472(%rbp)
Ltmp919:
LBB156_4:
	.file	43 "/Users/natalie/Documents/code/mandelbrot-renderer" "src/lib/mandelbrot.rs"
	.loc	43 1 1
	jmp	LBB156_1
LBB156_5:
Ltmp920:
	.loc	33 298 31
	movb	$4, -449(%rbp)
	.loc	33 298 17 is_stmt 0
	movzbl	-449(%rbp), %edi
	callq	__ZN4core4sync6atomic5fence17h7459e00d243693beE
	movq	-496(%rbp), %rdi
	.loc	33 299 28 is_stmt 1
	addq	$128, %rdi
	callq	__ZN88_$LT$std..sync..mpmc..utils..CachePadded$LT$T$GT$$u20$as$u20$core..ops..deref..Deref$GT$5deref17h4485c64de63e3605E
	movq	%rax, %rdi
	movq	%rdi, -296(%rbp)
Ltmp921:
	.loc	34 2127 38
	movq	%rdi, -288(%rbp)
	.loc	34 2127 26 is_stmt 0
	xorl	%esi, %esi
	callq	__ZN4core4sync6atomic11atomic_load17h02119c845b0293e5E
	movq	%rax, %rcx
	movq	%rcx, -520(%rbp)
	movq	%rcx, -280(%rbp)
Ltmp922:
	.loc	33 302 20 is_stmt 1
	movq	-480(%rbp), %rax
	shrq	$1, %rax
	.loc	33 302 37 is_stmt 0
	shrq	$1, %rcx
	.loc	33 302 20
	cmpq	%rcx, %rax
	je	LBB156_9
	jmp	LBB156_8
Ltmp923:
LBB156_6:
	.loc	33 297 13 is_stmt 1
	jmp	LBB156_7
LBB156_7:
	.loc	33 322 16
	movq	-472(%rbp), %rax
	movq	%rax, -256(%rbp)
Ltmp924:
	.loc	7 52 36
	movq	%rax, -408(%rbp)
	.loc	7 52 18 is_stmt 0
	movq	-408(%rbp), %rax
	movq	%rax, -248(%rbp)
Ltmp925:
	.loc	7 38 13 is_stmt 1
	movq	%rax, -240(%rbp)
Ltmp926:
	.loc	7 215 33
	movq	%rax, -232(%rbp)
	.loc	7 215 18 is_stmt 0
	movq	%rax, -224(%rbp)
Ltmp927:
	.loc	33 322 16 is_stmt 1
	cmpq	$0, -224(%rbp)
	je	LBB156_16
	jmp	LBB156_17
LBB156_8:
	.loc	33 0 16 is_stmt 0
	movq	-520(%rbp), %rcx
Ltmp928:
	.loc	33 315 21 is_stmt 1
	movq	-480(%rbp), %rax
	.loc	33 315 20 is_stmt 0
	shrq	$1, %rax
	shrq	$5, %rax
	.loc	33 315 45
	shrq	$1, %rcx
	shrq	$5, %rcx
	.loc	33 315 20
	cmpq	%rcx, %rax
	jne	LBB156_15
	jmp	LBB156_14
LBB156_9:
	.loc	33 0 20
	movq	-520(%rbp), %rax
	.loc	33 304 24 is_stmt 1
	andq	$1, %rax
	cmpq	$0, %rax
	jne	LBB156_11
	.loc	33 310 32
	movb	$0, -485(%rbp)
	.loc	33 310 25 is_stmt 0
	jmp	LBB156_12
LBB156_11:
	.loc	33 0 25
	movq	-504(%rbp), %rax
Ltmp929:
	.file	44 "/rustc/2c8cc343237b8f7d5a3c3703e3a87f2eb2c54a74/library/core/src/ptr" "mod.rs"
	.loc	44 568 14 is_stmt 1
	movq	$0, -272(%rbp)
	movq	-272(%rbp), %rcx
	movq	%rcx, -264(%rbp)
Ltmp930:
	.file	45 "/rustc/2c8cc343237b8f7d5a3c3703e3a87f2eb2c54a74/library/core/src/ptr" "metadata.rs"
	.loc	45 118 36
	movq	%rcx, -416(%rbp)
	.loc	45 118 14 is_stmt 0
	movq	-416(%rbp), %rcx
	movq	%rcx, -424(%rbp)
	movq	-424(%rbp), %rcx
Ltmp931:
	.loc	33 306 25 is_stmt 1
	movq	%rcx, 16(%rax)
	.loc	33 307 32
	movb	$1, -485(%rbp)
Ltmp932:
LBB156_12:
	.loc	43 1 1
	jmp	LBB156_13
Ltmp933:
LBB156_13:
	.loc	33 360 6
	movb	-485(%rbp), %al
	andb	$1, %al
	movzbl	%al, %eax
	addq	$528, %rsp
	popq	%rbp
	retq
LBB156_14:
Ltmp934:
	.loc	33 297 13
	jmp	LBB156_7
LBB156_15:
Ltmp935:
	.loc	33 316 21
	movq	-464(%rbp), %rax
	orq	$1, %rax
	movq	%rax, -464(%rbp)
	.loc	33 315 17
	jmp	LBB156_14
Ltmp936:
LBB156_16:
	.loc	33 323 17
	leaq	-484(%rbp), %rdi
	callq	__ZN3std4sync4mpmc5utils7Backoff10spin_heavy17h1f7ae316b1b05b77E
	movq	-496(%rbp), %rdi
	.loc	33 324 24
	callq	__ZN88_$LT$std..sync..mpmc..utils..CachePadded$LT$T$GT$$u20$as$u20$core..ops..deref..Deref$GT$5deref17h4485c64de63e3605E
	movq	%rax, %rdi
	movq	%rdi, -32(%rbp)
Ltmp937:
	.loc	34 2127 38
	movq	%rdi, -24(%rbp)
	.loc	34 2127 26 is_stmt 0
	movl	$2, %esi
	callq	__ZN4core4sync6atomic11atomic_load17h02119c845b0293e5E
	movq	-496(%rbp), %rdi
Ltmp938:
	.loc	33 324 17 is_stmt 1
	movq	%rax, -480(%rbp)
	.loc	33 325 25
	callq	__ZN88_$LT$std..sync..mpmc..utils..CachePadded$LT$T$GT$$u20$as$u20$core..ops..deref..Deref$GT$5deref17h4485c64de63e3605E
	movq	%rax, %rdi
	addq	$8, %rdi
	movq	%rdi, -16(%rbp)
Ltmp939:
	.loc	34 1191 30
	movq	%rdi, -8(%rbp)
	.loc	34 1191 18 is_stmt 0
	movl	$2, %esi
	callq	__ZN4core4sync6atomic11atomic_load17hb1002bd775353276E
Ltmp940:
	.loc	33 325 17 is_stmt 1
	movq	%rax, -472(%rbp)
Ltmp941:
	.loc	43 1 1
	jmp	LBB156_4
LBB156_17:
	.loc	43 0 1 is_stmt 0
	movq	-496(%rbp), %rdi
Ltmp942:
	.loc	33 330 19 is_stmt 1
	callq	__ZN88_$LT$std..sync..mpmc..utils..CachePadded$LT$T$GT$$u20$as$u20$core..ops..deref..Deref$GT$5deref17h4485c64de63e3605E
	movq	%rax, %rdi
	movq	%rdi, -216(%rbp)
	.loc	33 331 17
	movq	-480(%rbp), %rsi
	movq	%rsi, -208(%rbp)
	.loc	33 332 17
	movq	-464(%rbp), %rdx
	movq	%rdx, -200(%rbp)
Ltmp943:
	.loc	34 2348 50
	movq	%rdi, -192(%rbp)
	movl	$4, %ecx
	movl	$2, %r8d
	.loc	34 2348 21 is_stmt 0
	callq	__ZN4core4sync6atomic28atomic_compare_exchange_weak17hc4df1c161841f008E
	movq	%rdx, -440(%rbp)
	movq	%rax, -448(%rbp)
Ltmp944:
	.loc	33 330 13 is_stmt 1
	cmpq	$0, -448(%rbp)
	jne	LBB156_19
	.loc	33 0 13 is_stmt 0
	movq	-512(%rbp), %rax
	.loc	33 338 24 is_stmt 1
	addq	$1, %rax
	cmpq	$31, %rax
	je	LBB156_21
	jmp	LBB156_20
LBB156_19:
	.loc	33 354 21
	leaq	-484(%rbp), %rdi
	callq	__ZN3std4sync4mpmc5utils7Backoff10spin_light17h4c34fe4a58c3487cE
	movq	-496(%rbp), %rdi
	.loc	33 355 28
	callq	__ZN88_$LT$std..sync..mpmc..utils..CachePadded$LT$T$GT$$u20$as$u20$core..ops..deref..Deref$GT$5deref17h4485c64de63e3605E
	movq	%rax, %rdi
	movq	%rdi, -184(%rbp)
Ltmp945:
	.loc	34 2127 38
	movq	%rdi, -176(%rbp)
	.loc	34 2127 26 is_stmt 0
	movl	$2, %esi
	callq	__ZN4core4sync6atomic11atomic_load17h02119c845b0293e5E
	movq	-496(%rbp), %rdi
Ltmp946:
	.loc	33 355 21 is_stmt 1
	movq	%rax, -480(%rbp)
	.loc	33 356 29
	callq	__ZN88_$LT$std..sync..mpmc..utils..CachePadded$LT$T$GT$$u20$as$u20$core..ops..deref..Deref$GT$5deref17h4485c64de63e3605E
	movq	%rax, %rdi
	addq	$8, %rdi
	movq	%rdi, -168(%rbp)
Ltmp947:
	.loc	34 1191 30
	movq	%rdi, -160(%rbp)
	.loc	34 1191 18 is_stmt 0
	movl	$2, %esi
	callq	__ZN4core4sync6atomic11atomic_load17hb1002bd775353276E
Ltmp948:
	.loc	33 356 21 is_stmt 1
	movq	%rax, -472(%rbp)
Ltmp949:
	.loc	33 283 9
	jmp	LBB156_1
LBB156_20:
	.loc	33 0 9 is_stmt 0
	movq	-504(%rbp), %rax
	movq	-512(%rbp), %rcx
Ltmp950:
	.loc	33 349 40 is_stmt 1
	movq	-472(%rbp), %rdx
	.loc	33 349 21 is_stmt 0
	movq	%rdx, 16(%rax)
	.loc	33 350 21 is_stmt 1
	movq	%rcx, 24(%rax)
	.loc	33 351 28
	movb	$1, -485(%rbp)
Ltmp951:
	.loc	43 1 1
	jmp	LBB156_13
LBB156_21:
Ltmp952:
	.loc	33 339 36
	movq	-472(%rbp), %rdi
	callq	__ZN3std4sync4mpmc4list14Block$LT$T$GT$9wait_next17hcbff951253b24e45E
	movq	%rax, %rdi
	movq	%rdi, -528(%rbp)
	movq	%rdi, -152(%rbp)
Ltmp953:
	.loc	33 340 47
	movq	-464(%rbp), %rax
	.loc	33 340 46 is_stmt 0
	andq	$-2, %rax
	movq	%rax, -144(%rbp)
Ltmp954:
	.loc	30 1162 13 is_stmt 1
	addq	$2, %rax
	movq	%rax, -432(%rbp)
Ltmp955:
	.loc	33 341 29
	addq	$2480, %rdi
	movq	%rdi, -136(%rbp)
Ltmp956:
	.loc	34 1191 30
	movq	%rdi, -128(%rbp)
	.loc	34 1191 18 is_stmt 0
	xorl	%esi, %esi
	callq	__ZN4core4sync6atomic11atomic_load17hb1002bd775353276E
	movq	%rax, -120(%rbp)
Ltmp957:
	.loc	7 52 36 is_stmt 1
	movq	%rax, -400(%rbp)
	.loc	7 52 18 is_stmt 0
	movq	-400(%rbp), %rax
	movq	%rax, -112(%rbp)
Ltmp958:
	.loc	7 38 13 is_stmt 1
	movq	%rax, -104(%rbp)
Ltmp959:
	.loc	7 215 33
	movq	%rax, -96(%rbp)
	.loc	7 215 18 is_stmt 0
	movq	%rax, -88(%rbp)
Ltmp960:
	.loc	7 38 13 is_stmt 1
	cmpq	$0, -88(%rbp)
	sete	%al
Ltmp961:
	.loc	33 341 28
	xorb	$-1, %al
	testb	$1, %al
	jne	LBB156_23
LBB156_22:
	.loc	33 0 28 is_stmt 0
	movq	-496(%rbp), %rdi
	.loc	33 345 25 is_stmt 1
	callq	__ZN88_$LT$std..sync..mpmc..utils..CachePadded$LT$T$GT$$u20$as$u20$core..ops..deref..Deref$GT$5deref17h4485c64de63e3605E
	movq	-528(%rbp), %rsi
	movq	%rax, %rdi
	addq	$8, %rdi
	movq	%rdi, -80(%rbp)
	.loc	33 345 47 is_stmt 0
	movq	%rsi, -72(%rbp)
Ltmp962:
	.loc	34 1221 26 is_stmt 1
	movq	%rdi, -64(%rbp)
	.loc	34 1221 13 is_stmt 0
	movl	$1, %edx
	callq	__ZN4core4sync6atomic12atomic_store17h671531a3896c6147E
	movq	-496(%rbp), %rdi
Ltmp963:
	.loc	33 346 25 is_stmt 1
	callq	__ZN88_$LT$std..sync..mpmc..utils..CachePadded$LT$T$GT$$u20$as$u20$core..ops..deref..Deref$GT$5deref17h4485c64de63e3605E
	movq	%rax, %rdi
	movq	%rdi, -56(%rbp)
	.loc	33 346 47 is_stmt 0
	movq	-432(%rbp), %rsi
	movq	%rsi, -48(%rbp)
Ltmp964:
	.loc	34 2154 39 is_stmt 1
	movq	%rdi, -40(%rbp)
	.loc	34 2154 26 is_stmt 0
	movl	$1, %edx
	callq	__ZN4core4sync6atomic12atomic_store17h47641797d0f7f2b6E
Ltmp965:
	.loc	33 338 21 is_stmt 1
	jmp	LBB156_20
LBB156_23:
Ltmp966:
	.loc	33 342 29
	movq	-432(%rbp), %rax
	orq	$1, %rax
	movq	%rax, -432(%rbp)
	.loc	33 341 25
	jmp	LBB156_22
Ltmp967:
Lfunc_end156:
	.cfi_endproc

	.globl	__ZN3std4sync4mpmc4list16Channel$LT$T$GT$10start_send17h2ef9cac40c28e661E
	.p2align	4, 0x90
__ZN3std4sync4mpmc4list16Channel$LT$T$GT$10start_send17h2ef9cac40c28e661E:
Lfunc_begin157:
	.loc	33 176 0
	.cfi_startproc
	.cfi_personality 155, _rust_eh_personality
	.cfi_lsda 16, Lexception23
	pushq	%rbp
	.cfi_def_cfa_offset 16
	.cfi_offset %rbp, -16
	movq	%rsp, %rbp
	.cfi_def_cfa_register %rbp
	movl	$6000, %eax
	callq	___rust_probestack
	subq	%rax, %rsp
	movq	%rdi, -5736(%rbp)
	movq	%rsi, -5744(%rbp)
	movq	%rdi, -568(%rbp)
	movq	%rsi, -560(%rbp)
Ltmp1042:
	.loc	33 177 23 prologue_end
	callq	__ZN3std4sync4mpmc5utils7Backoff3new17he8f9e4a8703c1ea7E
	movq	-5736(%rbp), %rdi
	movl	%eax, -5724(%rbp)
Ltmp1043:
	.loc	33 178 24
	addq	$128, %rdi
	callq	__ZN88_$LT$std..sync..mpmc..utils..CachePadded$LT$T$GT$$u20$as$u20$core..ops..deref..Deref$GT$5deref17h4485c64de63e3605E
	movq	%rax, %rdi
	movq	%rdi, -520(%rbp)
Ltmp1044:
	.loc	34 2127 38
	movq	%rdi, -512(%rbp)
	.loc	34 2127 26 is_stmt 0
	movl	$2, %esi
	callq	__ZN4core4sync6atomic11atomic_load17h02119c845b0293e5E
	movq	-5736(%rbp), %rdi
	movq	%rax, -5720(%rbp)
Ltmp1045:
	.loc	33 179 25 is_stmt 1
	addq	$128, %rdi
	callq	__ZN88_$LT$std..sync..mpmc..utils..CachePadded$LT$T$GT$$u20$as$u20$core..ops..deref..Deref$GT$5deref17h4485c64de63e3605E
	movq	%rax, %rdi
	addq	$8, %rdi
	movq	%rdi, -504(%rbp)
Ltmp1046:
	.loc	34 1191 30
	movq	%rdi, -496(%rbp)
	.loc	34 1191 18 is_stmt 0
	movl	$2, %esi
	callq	__ZN4core4sync6atomic11atomic_load17hb1002bd775353276E
	movq	%rax, -5712(%rbp)
Ltmp1047:
	.loc	33 180 30 is_stmt 1
	movb	$1, -633(%rbp)
	movq	$0, -5704(%rbp)
LBB157_1:
Ltmp1048:
	.loc	33 184 16
	movq	-5720(%rbp), %rax
	andq	$1, %rax
	cmpq	$0, %rax
	jne	LBB157_3
	.loc	33 190 27
	movq	-5720(%rbp), %rax
	.loc	33 190 26 is_stmt 0
	shrq	$1, %rax
	andq	$31, %rax
	movq	%rax, -5752(%rbp)
	movq	%rax, -472(%rbp)
Ltmp1049:
	.loc	33 193 16 is_stmt 1
	cmpq	$31, %rax
	je	LBB157_7
	jmp	LBB157_6
Ltmp1050:
LBB157_3:
	.loc	44 568 14
	movq	$0, -488(%rbp)
	movq	-488(%rbp), %rax
	movq	%rax, -5760(%rbp)
	movq	%rax, -480(%rbp)
Ltmp1051:
	.loc	44 0 14 is_stmt 0
	movq	-5744(%rbp), %rax
	movq	-5760(%rbp), %rcx
Ltmp1052:
	.loc	45 118 36 is_stmt 1
	movq	%rcx, -624(%rbp)
	.loc	45 118 14 is_stmt 0
	movq	-624(%rbp), %rcx
	movq	%rcx, -632(%rbp)
	movq	-632(%rbp), %rcx
Ltmp1053:
	.loc	33 185 17 is_stmt 1
	movq	%rcx, 16(%rax)
	.loc	33 186 24
	movb	$1, -5725(%rbp)
Ltmp1054:
LBB157_5:
	.loc	33 256 5
	testb	$1, -633(%rbp)
	jne	LBB157_65
	jmp	LBB157_64
LBB157_6:
	.loc	33 0 5 is_stmt 0
	movq	-5752(%rbp), %rax
Ltmp1055:
	.loc	33 202 16 is_stmt 1
	addq	$1, %rax
	cmpq	$31, %rax
	je	LBB157_17
	jmp	LBB157_16
LBB157_7:
Ltmp1028:
	.loc	33 0 16 is_stmt 0
	leaq	-5724(%rbp), %rdi
	.loc	33 194 17 is_stmt 1
	callq	__ZN3std4sync4mpmc5utils7Backoff10spin_heavy17h1f7ae316b1b05b77E
Ltmp1029:
	jmp	LBB157_10
Ltmp1056:
LBB157_8:
	.loc	33 256 5
	testb	$1, -633(%rbp)
	jne	LBB157_74
	jmp	LBB157_73
LBB157_9:
Ltmp1038:
	.loc	33 0 5 is_stmt 0
	movq	%rax, %rcx
	movl	%edx, %eax
	movq	%rcx, -464(%rbp)
	movl	%eax, -456(%rbp)
	jmp	LBB157_8
LBB157_10:
	movq	-5736(%rbp), %rdi
Ltmp1057:
	.loc	33 195 24 is_stmt 1
	subq	$-128, %rdi
Ltmp1030:
	callq	__ZN88_$LT$std..sync..mpmc..utils..CachePadded$LT$T$GT$$u20$as$u20$core..ops..deref..Deref$GT$5deref17h4485c64de63e3605E
Ltmp1031:
	movq	%rax, -5768(%rbp)
	jmp	LBB157_11
LBB157_11:
	.loc	33 0 24 is_stmt 0
	movq	-5768(%rbp), %rdi
	.loc	33 195 24
	movq	%rdi, -448(%rbp)
Ltmp1058:
	.loc	34 2127 38 is_stmt 1
	movq	%rdi, -440(%rbp)
Ltmp1032:
	movl	$2, %esi
	.loc	34 2127 26 is_stmt 0
	callq	__ZN4core4sync6atomic11atomic_load17h02119c845b0293e5E
Ltmp1033:
	movq	%rax, -5776(%rbp)
	jmp	LBB157_12
Ltmp1059:
LBB157_12:
	.loc	34 0 26
	movq	-5736(%rbp), %rdi
	movq	-5776(%rbp), %rax
	.loc	33 195 17 is_stmt 1
	movq	%rax, -5720(%rbp)
	.loc	33 196 25
	subq	$-128, %rdi
Ltmp1034:
	callq	__ZN88_$LT$std..sync..mpmc..utils..CachePadded$LT$T$GT$$u20$as$u20$core..ops..deref..Deref$GT$5deref17h4485c64de63e3605E
Ltmp1035:
	movq	%rax, -5784(%rbp)
	jmp	LBB157_13
LBB157_13:
	.loc	33 0 25 is_stmt 0
	movq	-5784(%rbp), %rdi
	.loc	33 196 25
	addq	$8, %rdi
	movq	%rdi, -432(%rbp)
Ltmp1060:
	.loc	34 1191 30 is_stmt 1
	movq	%rdi, -424(%rbp)
Ltmp1036:
	movl	$2, %esi
	.loc	34 1191 18 is_stmt 0
	callq	__ZN4core4sync6atomic11atomic_load17hb1002bd775353276E
Ltmp1037:
	movq	%rax, -5792(%rbp)
	jmp	LBB157_14
Ltmp1061:
LBB157_14:
	.loc	34 0 18
	movq	-5792(%rbp), %rax
	.loc	33 196 17 is_stmt 1
	movq	%rax, -5712(%rbp)
Ltmp1062:
LBB157_15:
	.loc	43 1 1
	jmp	LBB157_1
LBB157_16:
Ltmp1063:
	.loc	33 202 16
	movb	$0, -5689(%rbp)
	jmp	LBB157_21
LBB157_17:
	.loc	33 202 43 is_stmt 0
	leaq	-5704(%rbp), %rax
	movq	%rax, -416(%rbp)
Ltmp1064:
	.file	46 "/rustc/2c8cc343237b8f7d5a3c3703e3a87f2eb2c54a74/library/core/src" "option.rs"
	.loc	46 644 10 is_stmt 1
	leaq	-5704(%rbp), %rax
	movq	%rax, -408(%rbp)
Ltmp1065:
	.loc	46 598 18
	movq	-5704(%rbp), %rdx
	movl	$1, %eax
	xorl	%ecx, %ecx
	cmpq	$0, %rdx
	cmoveq	%rcx, %rax
	.file	47 "/rustc/2c8cc343237b8f7d5a3c3703e3a87f2eb2c54a74/library/core/src/macros" "mod.rs"
	.loc	47 344 9
	cmpq	$1, %rax
	jne	LBB157_19
	.loc	47 345 48
	movb	$1, -609(%rbp)
	jmp	LBB157_20
LBB157_19:
	.loc	47 346 18
	movb	$0, -609(%rbp)
Ltmp1066:
LBB157_20:
	.loc	46 644 9
	movb	-609(%rbp), %al
	xorb	$-1, %al
Ltmp1067:
	.loc	33 202 16
	andb	$1, %al
	movb	%al, -5689(%rbp)
LBB157_21:
	testb	$1, -5689(%rbp)
	jne	LBB157_23
LBB157_22:
	.loc	33 208 16
	movq	-5712(%rbp), %rax
	movq	%rax, -400(%rbp)
Ltmp1068:
	.loc	7 52 36
	movq	%rax, -608(%rbp)
	.loc	7 52 18 is_stmt 0
	movq	-608(%rbp), %rax
	movq	%rax, -392(%rbp)
Ltmp1069:
	.loc	7 38 13 is_stmt 1
	movq	%rax, -384(%rbp)
Ltmp1070:
	.loc	7 215 33
	movq	%rax, -376(%rbp)
	.loc	7 215 18 is_stmt 0
	movq	%rax, -368(%rbp)
	movq	-368(%rbp), %rax
	movq	%rax, -5800(%rbp)
	jmp	LBB157_29
Ltmp1071:
LBB157_23:
Ltmp968:
	.loc	7 0 18
	leaq	-5680(%rbp), %rdi
	.loc	33 203 44 is_stmt 1
	callq	__ZN3std4sync4mpmc4list14Block$LT$T$GT$3new17h979d1e7f24c50471E
Ltmp969:
	jmp	LBB157_24
LBB157_24:
Ltmp970:
	.loc	33 0 44 is_stmt 0
	movl	$2488, %edi
	movl	$8, %esi
Ltmp1072:
	.loc	3 219 9 is_stmt 1
	callq	__ZN5alloc5alloc15exchange_malloc17hc621d4f24179729cE
Ltmp971:
	movq	%rax, -5808(%rbp)
	jmp	LBB157_25
LBB157_25:
	.loc	3 0 9 is_stmt 0
	movq	-5808(%rbp), %rdi
	leaq	-5680(%rbp), %rsi
	movl	$2488, %edx
	.loc	3 219 18
	callq	_memcpy
	movq	-5808(%rbp), %rax
Ltmp1073:
	.loc	33 203 30 is_stmt 1
	movq	%rax, -5688(%rbp)
Ltmp972:
	leaq	-5704(%rbp), %rdi
	.loc	33 203 17 is_stmt 0
	callq	__ZN4core3ptr132drop_in_place$LT$core..option..Option$LT$alloc..boxed..Box$LT$std..sync..mpmc..list..Block$LT$mandelbrot..IntAtPoint$GT$$GT$$GT$$GT$17hb7f22fbdc7afe907E
Ltmp973:
	jmp	LBB157_28
LBB157_26:
	movb	$1, -633(%rbp)
	movq	-5688(%rbp), %rax
	movq	%rax, -5704(%rbp)
	jmp	LBB157_8
LBB157_27:
Ltmp974:
	.loc	33 0 17
	movq	%rax, %rcx
	movl	%edx, %eax
	movq	%rcx, -464(%rbp)
	movl	%eax, -456(%rbp)
	jmp	LBB157_26
LBB157_28:
	.loc	33 203 17
	movb	$1, -633(%rbp)
	movq	-5688(%rbp), %rax
	movq	%rax, -5704(%rbp)
	.loc	33 202 13 is_stmt 1
	jmp	LBB157_22
LBB157_29:
	.loc	33 0 13 is_stmt 0
	movq	-5800(%rbp), %rax
	.loc	33 208 16 is_stmt 1
	cmpq	$0, %rax
	jne	LBB157_31
Ltmp975:
	.loc	33 0 16 is_stmt 0
	leaq	-3192(%rbp), %rdi
	.loc	33 209 50 is_stmt 1
	callq	__ZN3std4sync4mpmc4list14Block$LT$T$GT$3new17h979d1e7f24c50471E
Ltmp976:
	jmp	LBB157_32
LBB157_31:
	.loc	33 0 50 is_stmt 0
	movq	-5736(%rbp), %rdi
	.loc	33 227 28 is_stmt 1
	movq	-5720(%rbp), %rax
	addq	$2, %rax
	movq	%rax, -5824(%rbp)
	movq	%rax, -248(%rbp)
Ltmp1074:
	.loc	33 230 19
	subq	$-128, %rdi
Ltmp1000:
	callq	__ZN88_$LT$std..sync..mpmc..utils..CachePadded$LT$T$GT$$u20$as$u20$core..ops..deref..Deref$GT$5deref17h4485c64de63e3605E
Ltmp1001:
	movq	%rax, -5816(%rbp)
	jmp	LBB157_44
Ltmp1075:
LBB157_32:
Ltmp977:
	.loc	33 0 19 is_stmt 0
	movl	$2488, %edi
	movl	$8, %esi
Ltmp1076:
	.loc	3 219 9 is_stmt 1
	callq	__ZN5alloc5alloc15exchange_malloc17hc621d4f24179729cE
Ltmp978:
	movq	%rax, -5832(%rbp)
	jmp	LBB157_33
LBB157_33:
	.loc	3 0 9 is_stmt 0
	movq	-5832(%rbp), %rdi
	.loc	3 219 9
	movq	%rdi, -360(%rbp)
	leaq	-3192(%rbp), %rsi
	movl	$2488, %edx
	.loc	3 219 18
	callq	_memcpy
	movq	-5832(%rbp), %rdi
Ltmp1077:
	.loc	3 1059 39 is_stmt 1
	movq	%rdi, -352(%rbp)
Ltmp979:
Ltmp1078:
	.loc	3 1112 31
	callq	__ZN5alloc5boxed16Box$LT$T$C$A$GT$11into_unique17h5e49aa3b71351eb9E
Ltmp980:
	movq	%rax, -5840(%rbp)
	jmp	LBB157_34
LBB157_34:
	.loc	3 0 31 is_stmt 0
	movq	-5736(%rbp), %rdi
	movq	-5840(%rbp), %rax
	.loc	3 1112 14
	movq	%rax, -344(%rbp)
Ltmp1079:
	.loc	3 1113 10 is_stmt 1
	movq	%rax, -336(%rbp)
Ltmp1080:
	.loc	38 104 9
	movq	%rax, -328(%rbp)
Ltmp1081:
	.loc	3 1113 9
	movq	%rax, -600(%rbp)
Ltmp1082:
	.loc	3 1059 9
	movq	-600(%rbp), %rax
	movq	%rax, -5856(%rbp)
	movq	%rax, -320(%rbp)
Ltmp1083:
	.loc	33 211 20
	subq	$-128, %rdi
Ltmp981:
	callq	__ZN88_$LT$std..sync..mpmc..utils..CachePadded$LT$T$GT$$u20$as$u20$core..ops..deref..Deref$GT$5deref17h4485c64de63e3605E
Ltmp982:
	movq	%rax, -5848(%rbp)
	jmp	LBB157_35
LBB157_35:
	.loc	33 0 20 is_stmt 0
	movq	-5856(%rbp), %rdx
	movq	-5848(%rbp), %rdi
	.loc	33 211 20
	addq	$8, %rdi
	movq	%rdi, -312(%rbp)
	.loc	33 214 39 is_stmt 1
	movq	-5712(%rbp), %rsi
	movq	%rsi, -304(%rbp)
	.loc	33 214 46 is_stmt 0
	movq	%rdx, -296(%rbp)
Ltmp1084:
	.loc	34 1355 42 is_stmt 1
	movq	%rdi, -288(%rbp)
Ltmp983:
	movl	$1, %ecx
	xorl	%r8d, %r8d
	.loc	34 1355 18 is_stmt 0
	callq	__ZN4core4sync6atomic23atomic_compare_exchange17hcf92923ceb020d16E
Ltmp984:
	movq	%rdx, -5872(%rbp)
	movq	%rax, -5864(%rbp)
	jmp	LBB157_36
LBB157_36:
	.loc	34 0 18
	movq	-5872(%rbp), %rax
	movq	-5864(%rbp), %rcx
	.loc	34 1355 18
	movq	%rcx, -696(%rbp)
	movq	%rax, -688(%rbp)
Ltmp1085:
	.loc	33 211 20 is_stmt 1
	leaq	-696(%rbp), %rax
	movq	%rax, -280(%rbp)
Ltmp1086:
	.loc	47 344 9
	cmpq	$0, -696(%rbp)
	jne	LBB157_38
	.loc	47 345 48
	movb	$1, -697(%rbp)
	jmp	LBB157_39
LBB157_38:
	.loc	47 346 18
	movb	$0, -697(%rbp)
Ltmp1087:
LBB157_39:
	.loc	33 211 20
	testb	$1, -697(%rbp)
	jne	LBB157_41
	.loc	33 0 20 is_stmt 0
	movq	-5856(%rbp), %rax
	.loc	33 220 62 is_stmt 1
	movq	%rax, -64(%rbp)
Ltmp1088:
	.loc	3 958 36
	movq	%rax, -56(%rbp)
Ltmp1089:
	.loc	3 1014 44
	movq	%rax, -48(%rbp)
Ltmp1090:
	.loc	38 87 59
	movq	%rax, -40(%rbp)
Ltmp1091:
	.loc	39 201 13
	movq	%rax, -584(%rbp)
Ltmp1092:
	.loc	38 87 18
	movq	-584(%rbp), %rax
	movq	%rax, -592(%rbp)
Ltmp1093:
	.loc	3 1014 9
	movq	-592(%rbp), %rax
	movq	%rax, -672(%rbp)
Ltmp1094:
	.loc	33 220 43
	movq	-672(%rbp), %rax
	movq	%rax, -680(%rbp)
Ltmp985:
	leaq	-5704(%rbp), %rdi
	.loc	33 220 21 is_stmt 0
	callq	__ZN4core3ptr132drop_in_place$LT$core..option..Option$LT$alloc..boxed..Box$LT$std..sync..mpmc..list..Block$LT$mandelbrot..IntAtPoint$GT$$GT$$GT$$GT$17hb7f22fbdc7afe907E
Ltmp986:
	jmp	LBB157_68
LBB157_41:
Ltmp996:
	.loc	33 0 21
	movq	-5736(%rbp), %rdi
	.loc	33 217 21 is_stmt 1
	callq	__ZN88_$LT$std..sync..mpmc..utils..CachePadded$LT$T$GT$$u20$as$u20$core..ops..deref..Deref$GT$5deref17h4485c64de63e3605E
Ltmp997:
	movq	%rax, -5880(%rbp)
	jmp	LBB157_42
LBB157_42:
	.loc	33 0 21 is_stmt 0
	movq	-5856(%rbp), %rsi
	movq	-5880(%rbp), %rdi
	.loc	33 217 21
	addq	$8, %rdi
	movq	%rdi, -272(%rbp)
	.loc	33 217 43
	movq	%rsi, -264(%rbp)
Ltmp1095:
	.loc	34 1221 26 is_stmt 1
	movq	%rdi, -256(%rbp)
Ltmp998:
	movl	$1, %edx
	.loc	34 1221 13 is_stmt 0
	callq	__ZN4core4sync6atomic12atomic_store17h671531a3896c6147E
Ltmp999:
	jmp	LBB157_43
Ltmp1096:
LBB157_43:
	.loc	34 0 13
	movq	-5856(%rbp), %rax
	.loc	33 218 21 is_stmt 1
	movq	%rax, -5712(%rbp)
Ltmp1097:
	.loc	33 208 13
	jmp	LBB157_31
LBB157_44:
	.loc	33 0 13 is_stmt 0
	movq	-5824(%rbp), %rdx
	movq	-5816(%rbp), %rdi
Ltmp1098:
	.loc	33 230 19 is_stmt 1
	movq	%rdi, -240(%rbp)
	.loc	33 231 17
	movq	-5720(%rbp), %rsi
	movq	%rsi, -232(%rbp)
	.loc	33 232 17
	movq	%rdx, -224(%rbp)
Ltmp1099:
	.loc	34 2348 50
	movq	%rdi, -216(%rbp)
Ltmp1002:
	movl	$4, %ecx
	movl	$2, %r8d
	.loc	34 2348 21 is_stmt 0
	callq	__ZN4core4sync6atomic28atomic_compare_exchange_weak17hc4df1c161841f008E
Ltmp1003:
	movq	%rdx, -5896(%rbp)
	movq	%rax, -5888(%rbp)
	jmp	LBB157_45
LBB157_45:
	.loc	34 0 21
	movq	-5896(%rbp), %rax
	movq	-5888(%rbp), %rcx
	.loc	34 2348 21
	movq	%rcx, -664(%rbp)
	movq	%rax, -656(%rbp)
Ltmp1100:
	.loc	33 230 13 is_stmt 1
	cmpq	$0, -664(%rbp)
	jne	LBB157_47
	.loc	33 0 13 is_stmt 0
	movq	-5752(%rbp), %rax
	.loc	33 238 24 is_stmt 1
	addq	$1, %rax
	cmpq	$31, %rax
	je	LBB157_54
	jmp	LBB157_53
LBB157_47:
Ltmp1004:
	.loc	33 0 24 is_stmt 0
	leaq	-5724(%rbp), %rdi
	.loc	33 250 21 is_stmt 1
	callq	__ZN3std4sync4mpmc5utils7Backoff10spin_light17h4c34fe4a58c3487cE
Ltmp1005:
	jmp	LBB157_48
LBB157_48:
	.loc	33 0 21 is_stmt 0
	movq	-5736(%rbp), %rdi
	.loc	33 251 28 is_stmt 1
	subq	$-128, %rdi
Ltmp1006:
	callq	__ZN88_$LT$std..sync..mpmc..utils..CachePadded$LT$T$GT$$u20$as$u20$core..ops..deref..Deref$GT$5deref17h4485c64de63e3605E
Ltmp1007:
	movq	%rax, -5904(%rbp)
	jmp	LBB157_49
LBB157_49:
	.loc	33 0 28 is_stmt 0
	movq	-5904(%rbp), %rdi
	.loc	33 251 28
	movq	%rdi, -208(%rbp)
Ltmp1101:
	.loc	34 2127 38 is_stmt 1
	movq	%rdi, -200(%rbp)
Ltmp1008:
	movl	$2, %esi
	.loc	34 2127 26 is_stmt 0
	callq	__ZN4core4sync6atomic11atomic_load17h02119c845b0293e5E
Ltmp1009:
	movq	%rax, -5912(%rbp)
	jmp	LBB157_50
Ltmp1102:
LBB157_50:
	.loc	34 0 26
	movq	-5736(%rbp), %rdi
	movq	-5912(%rbp), %rax
	.loc	33 251 21 is_stmt 1
	movq	%rax, -5720(%rbp)
	.loc	33 252 29
	subq	$-128, %rdi
Ltmp1010:
	callq	__ZN88_$LT$std..sync..mpmc..utils..CachePadded$LT$T$GT$$u20$as$u20$core..ops..deref..Deref$GT$5deref17h4485c64de63e3605E
Ltmp1011:
	movq	%rax, -5920(%rbp)
	jmp	LBB157_51
LBB157_51:
	.loc	33 0 29 is_stmt 0
	movq	-5920(%rbp), %rdi
	.loc	33 252 29
	addq	$8, %rdi
	movq	%rdi, -192(%rbp)
Ltmp1103:
	.loc	34 1191 30 is_stmt 1
	movq	%rdi, -184(%rbp)
Ltmp1012:
	movl	$2, %esi
	.loc	34 1191 18 is_stmt 0
	callq	__ZN4core4sync6atomic11atomic_load17hb1002bd775353276E
Ltmp1013:
	movq	%rax, -5928(%rbp)
	jmp	LBB157_52
Ltmp1104:
LBB157_52:
	.loc	34 0 18
	movq	-5928(%rbp), %rax
	.loc	33 252 21 is_stmt 1
	movq	%rax, -5712(%rbp)
Ltmp1105:
	.loc	33 182 9
	jmp	LBB157_1
LBB157_53:
	.loc	33 0 9 is_stmt 0
	movq	-5744(%rbp), %rax
	movq	-5752(%rbp), %rcx
Ltmp1106:
	.loc	33 245 40 is_stmt 1
	movq	-5712(%rbp), %rdx
	.loc	33 245 21 is_stmt 0
	movq	%rdx, 16(%rax)
	.loc	33 246 21 is_stmt 1
	movq	%rcx, 24(%rax)
	.loc	33 247 28
	movb	$1, -5725(%rbp)
Ltmp1107:
	.loc	43 1 1
	jmp	LBB157_5
LBB157_54:
Ltmp1108:
	.loc	33 239 56
	movb	$0, -633(%rbp)
	movq	-5704(%rbp), %rax
	movq	%rax, -648(%rbp)
Ltmp1109:
	.loc	46 821 15
	movq	-648(%rbp), %rdx
	movl	$1, %eax
	xorl	%ecx, %ecx
	cmpq	$0, %rdx
	cmoveq	%rcx, %rax
	.loc	46 821 9 is_stmt 0
	cmpq	$0, %rax
	jne	LBB157_56
Ltmp1026:
	.loc	46 823 21 is_stmt 1
	leaq	l___unnamed_39(%rip), %rdi
	leaq	l___unnamed_40(%rip), %rdx
	movl	$43, %esi
	callq	__ZN4core9panicking5panic17hc1bc45270cf64b03E
Ltmp1027:
	jmp	LBB157_63
LBB157_56:
	.loc	46 822 18
	movq	-648(%rbp), %rdi
	movq	%rdi, -176(%rbp)
Ltmp1110:
	.loc	3 1059 39
	movq	%rdi, -168(%rbp)
Ltmp1014:
Ltmp1111:
	.loc	3 1112 31
	callq	__ZN5alloc5boxed16Box$LT$T$C$A$GT$11into_unique17h5e49aa3b71351eb9E
Ltmp1015:
	movq	%rax, -5936(%rbp)
	jmp	LBB157_57
LBB157_57:
	.loc	3 0 31 is_stmt 0
	movq	-5736(%rbp), %rdi
	movq	-5936(%rbp), %rax
	.loc	3 1112 14
	movq	%rax, -160(%rbp)
Ltmp1112:
	.loc	3 1113 10 is_stmt 1
	movq	%rax, -152(%rbp)
Ltmp1113:
	.loc	38 104 9
	movq	%rax, -144(%rbp)
Ltmp1114:
	.loc	3 1113 9
	movq	%rax, -576(%rbp)
Ltmp1115:
	.loc	3 1059 9
	movq	-576(%rbp), %rax
	movq	%rax, -5952(%rbp)
	movq	%rax, -136(%rbp)
Ltmp1116:
	.loc	33 240 25
	subq	$-128, %rdi
Ltmp1016:
	callq	__ZN88_$LT$std..sync..mpmc..utils..CachePadded$LT$T$GT$$u20$as$u20$core..ops..deref..Deref$GT$5deref17h4485c64de63e3605E
Ltmp1017:
	movq	%rax, -5944(%rbp)
	jmp	LBB157_58
LBB157_58:
	.loc	33 0 25 is_stmt 0
	movq	-5952(%rbp), %rsi
	movq	-5944(%rbp), %rdi
	.loc	33 240 25
	addq	$8, %rdi
	movq	%rdi, -128(%rbp)
	.loc	33 240 47
	movq	%rsi, -120(%rbp)
Ltmp1117:
	.loc	34 1221 26 is_stmt 1
	movq	%rdi, -112(%rbp)
Ltmp1018:
	movl	$1, %edx
	.loc	34 1221 13 is_stmt 0
	callq	__ZN4core4sync6atomic12atomic_store17h671531a3896c6147E
Ltmp1019:
	jmp	LBB157_59
Ltmp1118:
LBB157_59:
	.loc	34 0 13
	movq	-5736(%rbp), %rdi
	.loc	33 241 25 is_stmt 1
	subq	$-128, %rdi
Ltmp1020:
	callq	__ZN88_$LT$std..sync..mpmc..utils..CachePadded$LT$T$GT$$u20$as$u20$core..ops..deref..Deref$GT$5deref17h4485c64de63e3605E
Ltmp1021:
	movq	%rax, -5960(%rbp)
	jmp	LBB157_60
LBB157_60:
	.loc	33 0 25 is_stmt 0
	movq	-5960(%rbp), %rdi
	.loc	33 241 25
	movq	%rdi, -104(%rbp)
Ltmp1119:
	.loc	34 2379 37 is_stmt 1
	movq	%rdi, -96(%rbp)
Ltmp1022:
	movl	$2, %esi
	movl	$1, %edx
	.loc	34 2379 26 is_stmt 0
	callq	__ZN4core4sync6atomic10atomic_add17h4ec94de194b3b038E
Ltmp1023:
	jmp	LBB157_61
Ltmp1120:
LBB157_61:
	.loc	34 0 26
	movq	-5952(%rbp), %rsi
	.loc	33 242 25 is_stmt 1
	movq	-5712(%rbp), %rdi
	addq	$2480, %rdi
	movq	%rdi, -88(%rbp)
	.loc	33 242 45 is_stmt 0
	movq	%rsi, -80(%rbp)
Ltmp1121:
	.loc	34 1221 26 is_stmt 1
	movq	%rdi, -72(%rbp)
Ltmp1024:
	movl	$1, %edx
	.loc	34 1221 13 is_stmt 0
	callq	__ZN4core4sync6atomic12atomic_store17h671531a3896c6147E
Ltmp1025:
	jmp	LBB157_62
Ltmp1122:
LBB157_62:
	.loc	33 238 21 is_stmt 1
	jmp	LBB157_53
Ltmp1123:
LBB157_63:
	.loc	33 0 21 is_stmt 0
	ud2
LBB157_64:
	.loc	33 256 6 is_stmt 1
	movb	-5725(%rbp), %al
	andb	$1, %al
	movzbl	%al, %eax
	addq	$6000, %rsp
	popq	%rbp
	retq
LBB157_65:
Ltmp1124:
	.loc	33 256 5 is_stmt 0
	leaq	-5704(%rbp), %rdi
	callq	__ZN4core3ptr132drop_in_place$LT$core..option..Option$LT$alloc..boxed..Box$LT$std..sync..mpmc..list..Block$LT$mandelbrot..IntAtPoint$GT$$GT$$GT$$GT$17hb7f22fbdc7afe907E
	jmp	LBB157_64
LBB157_66:
Ltmp1125:
	.loc	33 220 21 is_stmt 1
	movb	$1, -633(%rbp)
	movq	-680(%rbp), %rax
	movq	%rax, -5704(%rbp)
	jmp	LBB157_8
LBB157_67:
Ltmp987:
	.loc	33 0 21 is_stmt 0
	movq	%rax, %rcx
	movl	%edx, %eax
	movq	%rcx, -464(%rbp)
	movl	%eax, -456(%rbp)
	jmp	LBB157_66
LBB157_68:
	movq	-5736(%rbp), %rdi
	.loc	33 220 21
	movb	$1, -633(%rbp)
	movq	-680(%rbp), %rax
	movq	%rax, -5704(%rbp)
	.loc	33 221 28 is_stmt 1
	subq	$-128, %rdi
Ltmp988:
	callq	__ZN88_$LT$std..sync..mpmc..utils..CachePadded$LT$T$GT$$u20$as$u20$core..ops..deref..Deref$GT$5deref17h4485c64de63e3605E
Ltmp989:
	movq	%rax, -5968(%rbp)
	jmp	LBB157_69
LBB157_69:
	.loc	33 0 28 is_stmt 0
	movq	-5968(%rbp), %rdi
	.loc	33 221 28
	movq	%rdi, -32(%rbp)
Ltmp1126:
	.loc	34 2127 38 is_stmt 1
	movq	%rdi, -24(%rbp)
Ltmp990:
	movl	$2, %esi
	.loc	34 2127 26 is_stmt 0
	callq	__ZN4core4sync6atomic11atomic_load17h02119c845b0293e5E
Ltmp991:
	movq	%rax, -5976(%rbp)
	jmp	LBB157_70
Ltmp1127:
LBB157_70:
	.loc	34 0 26
	movq	-5736(%rbp), %rdi
	movq	-5976(%rbp), %rax
	.loc	33 221 21 is_stmt 1
	movq	%rax, -5720(%rbp)
	.loc	33 222 29
	subq	$-128, %rdi
Ltmp992:
	callq	__ZN88_$LT$std..sync..mpmc..utils..CachePadded$LT$T$GT$$u20$as$u20$core..ops..deref..Deref$GT$5deref17h4485c64de63e3605E
Ltmp993:
	movq	%rax, -5984(%rbp)
	jmp	LBB157_71
LBB157_71:
	.loc	33 0 29 is_stmt 0
	movq	-5984(%rbp), %rdi
	.loc	33 222 29
	addq	$8, %rdi
	movq	%rdi, -16(%rbp)
Ltmp1128:
	.loc	34 1191 30 is_stmt 1
	movq	%rdi, -8(%rbp)
Ltmp994:
	movl	$2, %esi
	.loc	34 1191 18 is_stmt 0
	callq	__ZN4core4sync6atomic11atomic_load17hb1002bd775353276E
Ltmp995:
	movq	%rax, -5992(%rbp)
	jmp	LBB157_72
Ltmp1129:
LBB157_72:
	.loc	34 0 18
	movq	-5992(%rbp), %rax
	.loc	33 222 21 is_stmt 1
	movq	%rax, -5712(%rbp)
Ltmp1130:
	.loc	43 1 1
	jmp	LBB157_15
Ltmp1131:
LBB157_73:
	.loc	33 176 5
	movq	-464(%rbp), %rdi
	callq	__Unwind_Resume
LBB157_74:
Ltmp1039:
	.loc	33 0 5 is_stmt 0
	leaq	-5704(%rbp), %rdi
Ltmp1132:
	.loc	33 256 5 is_stmt 1
	callq	__ZN4core3ptr132drop_in_place$LT$core..option..Option$LT$alloc..boxed..Box$LT$std..sync..mpmc..list..Block$LT$mandelbrot..IntAtPoint$GT$$GT$$GT$$GT$17hb7f22fbdc7afe907E
Ltmp1040:
	jmp	LBB157_73
Ltmp1133:
LBB157_75:
Ltmp1041:
	.loc	33 176 5
	callq	__ZN4core9panicking19panic_cannot_unwind17h1fbca7e1d7f56ae1E
Ltmp1134:
Lfunc_end157:
	.cfi_endproc
	.file	48 "/rustc/2c8cc343237b8f7d5a3c3703e3a87f2eb2c54a74/library/core/src" "result.rs"
	.section	__TEXT,__gcc_except_tab
	.p2align	2
GCC_except_table157:
Lexception23:
	.byte	255
	.byte	255
	.byte	1
	.uleb128 Lcst_end23-Lcst_begin23
Lcst_begin23:
	.uleb128 Lfunc_begin157-Lfunc_begin157
	.uleb128 Ltmp1028-Lfunc_begin157
	.byte	0
	.byte	0
	.uleb128 Ltmp1028-Lfunc_begin157
	.uleb128 Ltmp971-Ltmp1028
	.uleb128 Ltmp1038-Lfunc_begin157
	.byte	0
	.uleb128 Ltmp971-Lfunc_begin157
	.uleb128 Ltmp972-Ltmp971
	.byte	0
	.byte	0
	.uleb128 Ltmp972-Lfunc_begin157
	.uleb128 Ltmp973-Ltmp972
	.uleb128 Ltmp974-Lfunc_begin157
	.byte	0
	.uleb128 Ltmp975-Lfunc_begin157
	.uleb128 Ltmp978-Ltmp975
	.uleb128 Ltmp1038-Lfunc_begin157
	.byte	0
	.uleb128 Ltmp978-Lfunc_begin157
	.uleb128 Ltmp979-Ltmp978
	.byte	0
	.byte	0
	.uleb128 Ltmp979-Lfunc_begin157
	.uleb128 Ltmp984-Ltmp979
	.uleb128 Ltmp1038-Lfunc_begin157
	.byte	0
	.uleb128 Ltmp985-Lfunc_begin157
	.uleb128 Ltmp986-Ltmp985
	.uleb128 Ltmp987-Lfunc_begin157
	.byte	0
	.uleb128 Ltmp996-Lfunc_begin157
	.uleb128 Ltmp1025-Ltmp996
	.uleb128 Ltmp1038-Lfunc_begin157
	.byte	0
	.uleb128 Ltmp1025-Lfunc_begin157
	.uleb128 Ltmp988-Ltmp1025
	.byte	0
	.byte	0
	.uleb128 Ltmp988-Lfunc_begin157
	.uleb128 Ltmp995-Ltmp988
	.uleb128 Ltmp1038-Lfunc_begin157
	.byte	0
	.uleb128 Ltmp995-Lfunc_begin157
	.uleb128 Ltmp1039-Ltmp995
	.byte	0
	.byte	0
	.uleb128 Ltmp1039-Lfunc_begin157
	.uleb128 Ltmp1040-Ltmp1039
	.uleb128 Ltmp1041-Lfunc_begin157
	.byte	0
Lcst_end23:
	.p2align	2

	.section	__TEXT,__text,regular,pure_instructions
	.globl	__ZN3std4sync4mpmc4list16Channel$LT$T$GT$10start_send17h936b17adf58328d9E
	.p2align	4, 0x90
__ZN3std4sync4mpmc4list16Channel$LT$T$GT$10start_send17h936b17adf58328d9E:
Lfunc_begin158:
	.loc	33 176 0
	.cfi_startproc
	.cfi_personality 155, _rust_eh_personality
	.cfi_lsda 16, Lexception24
	pushq	%rbp
	.cfi_def_cfa_offset 16
	.cfi_offset %rbp, -16
	movq	%rsp, %rbp
	.cfi_def_cfa_register %rbp
	subq	$2528, %rsp
	movq	%rdi, -2264(%rbp)
	movq	%rsi, -2272(%rbp)
	movq	%rdi, -568(%rbp)
	movq	%rsi, -560(%rbp)
Ltmp1209:
	.loc	33 177 23 prologue_end
	callq	__ZN3std4sync4mpmc5utils7Backoff3new17he8f9e4a8703c1ea7E
	movq	-2264(%rbp), %rdi
	movl	%eax, -2252(%rbp)
Ltmp1210:
	.loc	33 178 24
	addq	$128, %rdi
	callq	__ZN88_$LT$std..sync..mpmc..utils..CachePadded$LT$T$GT$$u20$as$u20$core..ops..deref..Deref$GT$5deref17h7a08992fb3550e86E
	movq	%rax, %rdi
	movq	%rdi, -520(%rbp)
Ltmp1211:
	.loc	34 2127 38
	movq	%rdi, -512(%rbp)
	.loc	34 2127 26 is_stmt 0
	movl	$2, %esi
	callq	__ZN4core4sync6atomic11atomic_load17h02119c845b0293e5E
	movq	-2264(%rbp), %rdi
	movq	%rax, -2248(%rbp)
Ltmp1212:
	.loc	33 179 25 is_stmt 1
	addq	$128, %rdi
	callq	__ZN88_$LT$std..sync..mpmc..utils..CachePadded$LT$T$GT$$u20$as$u20$core..ops..deref..Deref$GT$5deref17h7a08992fb3550e86E
	movq	%rax, %rdi
	addq	$8, %rdi
	movq	%rdi, -504(%rbp)
Ltmp1213:
	.loc	34 1191 30
	movq	%rdi, -496(%rbp)
	.loc	34 1191 18 is_stmt 0
	movl	$2, %esi
	callq	__ZN4core4sync6atomic11atomic_load17h150fa61814838578E
	movq	%rax, -2240(%rbp)
Ltmp1214:
	.loc	33 180 30 is_stmt 1
	movb	$1, -633(%rbp)
	movq	$0, -2232(%rbp)
LBB158_1:
Ltmp1215:
	.loc	33 184 16
	movq	-2248(%rbp), %rax
	andq	$1, %rax
	cmpq	$0, %rax
	jne	LBB158_3
	.loc	33 190 27
	movq	-2248(%rbp), %rax
	.loc	33 190 26 is_stmt 0
	shrq	$1, %rax
	andq	$31, %rax
	movq	%rax, -2280(%rbp)
	movq	%rax, -472(%rbp)
Ltmp1216:
	.loc	33 193 16 is_stmt 1
	cmpq	$31, %rax
	je	LBB158_7
	jmp	LBB158_6
Ltmp1217:
LBB158_3:
	.loc	44 568 14
	movq	$0, -488(%rbp)
	movq	-488(%rbp), %rax
	movq	%rax, -2288(%rbp)
	movq	%rax, -480(%rbp)
Ltmp1218:
	.loc	44 0 14 is_stmt 0
	movq	-2272(%rbp), %rax
	movq	-2288(%rbp), %rcx
Ltmp1219:
	.loc	45 118 36 is_stmt 1
	movq	%rcx, -624(%rbp)
	.loc	45 118 14 is_stmt 0
	movq	-624(%rbp), %rcx
	movq	%rcx, -632(%rbp)
	movq	-632(%rbp), %rcx
Ltmp1220:
	.loc	33 185 17 is_stmt 1
	movq	%rcx, 16(%rax)
	.loc	33 186 24
	movb	$1, -2253(%rbp)
Ltmp1221:
LBB158_5:
	.loc	33 256 5
	testb	$1, -633(%rbp)
	jne	LBB158_65
	jmp	LBB158_64
LBB158_6:
	.loc	33 0 5 is_stmt 0
	movq	-2280(%rbp), %rax
Ltmp1222:
	.loc	33 202 16 is_stmt 1
	addq	$1, %rax
	cmpq	$31, %rax
	je	LBB158_17
	jmp	LBB158_16
LBB158_7:
Ltmp1195:
	.loc	33 0 16 is_stmt 0
	leaq	-2252(%rbp), %rdi
	.loc	33 194 17 is_stmt 1
	callq	__ZN3std4sync4mpmc5utils7Backoff10spin_heavy17h1f7ae316b1b05b77E
Ltmp1196:
	jmp	LBB158_10
Ltmp1223:
LBB158_8:
	.loc	33 256 5
	testb	$1, -633(%rbp)
	jne	LBB158_74
	jmp	LBB158_73
LBB158_9:
Ltmp1205:
	.loc	33 0 5 is_stmt 0
	movq	%rax, %rcx
	movl	%edx, %eax
	movq	%rcx, -464(%rbp)
	movl	%eax, -456(%rbp)
	jmp	LBB158_8
LBB158_10:
	movq	-2264(%rbp), %rdi
Ltmp1224:
	.loc	33 195 24 is_stmt 1
	subq	$-128, %rdi
Ltmp1197:
	callq	__ZN88_$LT$std..sync..mpmc..utils..CachePadded$LT$T$GT$$u20$as$u20$core..ops..deref..Deref$GT$5deref17h7a08992fb3550e86E
Ltmp1198:
	movq	%rax, -2296(%rbp)
	jmp	LBB158_11
LBB158_11:
	.loc	33 0 24 is_stmt 0
	movq	-2296(%rbp), %rdi
	.loc	33 195 24
	movq	%rdi, -448(%rbp)
Ltmp1225:
	.loc	34 2127 38 is_stmt 1
	movq	%rdi, -440(%rbp)
Ltmp1199:
	movl	$2, %esi
	.loc	34 2127 26 is_stmt 0
	callq	__ZN4core4sync6atomic11atomic_load17h02119c845b0293e5E
Ltmp1200:
	movq	%rax, -2304(%rbp)
	jmp	LBB158_12
Ltmp1226:
LBB158_12:
	.loc	34 0 26
	movq	-2264(%rbp), %rdi
	movq	-2304(%rbp), %rax
	.loc	33 195 17 is_stmt 1
	movq	%rax, -2248(%rbp)
	.loc	33 196 25
	subq	$-128, %rdi
Ltmp1201:
	callq	__ZN88_$LT$std..sync..mpmc..utils..CachePadded$LT$T$GT$$u20$as$u20$core..ops..deref..Deref$GT$5deref17h7a08992fb3550e86E
Ltmp1202:
	movq	%rax, -2312(%rbp)
	jmp	LBB158_13
LBB158_13:
	.loc	33 0 25 is_stmt 0
	movq	-2312(%rbp), %rdi
	.loc	33 196 25
	addq	$8, %rdi
	movq	%rdi, -432(%rbp)
Ltmp1227:
	.loc	34 1191 30 is_stmt 1
	movq	%rdi, -424(%rbp)
Ltmp1203:
	movl	$2, %esi
	.loc	34 1191 18 is_stmt 0
	callq	__ZN4core4sync6atomic11atomic_load17h150fa61814838578E
Ltmp1204:
	movq	%rax, -2320(%rbp)
	jmp	LBB158_14
Ltmp1228:
LBB158_14:
	.loc	34 0 18
	movq	-2320(%rbp), %rax
	.loc	33 196 17 is_stmt 1
	movq	%rax, -2240(%rbp)
Ltmp1229:
LBB158_15:
	.loc	43 1 1
	jmp	LBB158_1
LBB158_16:
Ltmp1230:
	.loc	33 202 16
	movb	$0, -2217(%rbp)
	jmp	LBB158_21
LBB158_17:
	.loc	33 202 43 is_stmt 0
	leaq	-2232(%rbp), %rax
	movq	%rax, -416(%rbp)
Ltmp1231:
	.loc	46 644 10 is_stmt 1
	leaq	-2232(%rbp), %rax
	movq	%rax, -408(%rbp)
Ltmp1232:
	.loc	46 598 18
	movq	-2232(%rbp), %rdx
	movl	$1, %eax
	xorl	%ecx, %ecx
	cmpq	$0, %rdx
	cmoveq	%rcx, %rax
	.loc	47 344 9
	cmpq	$1, %rax
	jne	LBB158_19
	.loc	47 345 48
	movb	$1, -609(%rbp)
	jmp	LBB158_20
LBB158_19:
	.loc	47 346 18
	movb	$0, -609(%rbp)
Ltmp1233:
LBB158_20:
	.loc	46 644 9
	movb	-609(%rbp), %al
	xorb	$-1, %al
Ltmp1234:
	.loc	33 202 16
	andb	$1, %al
	movb	%al, -2217(%rbp)
LBB158_21:
	testb	$1, -2217(%rbp)
	jne	LBB158_23
LBB158_22:
	.loc	33 208 16
	movq	-2240(%rbp), %rax
	movq	%rax, -400(%rbp)
Ltmp1235:
	.loc	7 52 36
	movq	%rax, -608(%rbp)
	.loc	7 52 18 is_stmt 0
	movq	-608(%rbp), %rax
	movq	%rax, -392(%rbp)
Ltmp1236:
	.loc	7 38 13 is_stmt 1
	movq	%rax, -384(%rbp)
Ltmp1237:
	.loc	7 215 33
	movq	%rax, -376(%rbp)
	.loc	7 215 18 is_stmt 0
	movq	%rax, -368(%rbp)
	movq	-368(%rbp), %rax
	movq	%rax, -2328(%rbp)
	jmp	LBB158_29
Ltmp1238:
LBB158_23:
Ltmp1135:
	.loc	7 0 18
	leaq	-2208(%rbp), %rdi
	.loc	33 203 44 is_stmt 1
	callq	__ZN3std4sync4mpmc4list14Block$LT$T$GT$3new17h5212535eb05c5f73E
Ltmp1136:
	jmp	LBB158_24
LBB158_24:
Ltmp1137:
	.loc	33 0 44 is_stmt 0
	movl	$752, %edi
	movl	$8, %esi
Ltmp1239:
	.loc	3 219 9 is_stmt 1
	callq	__ZN5alloc5alloc15exchange_malloc17hc621d4f24179729cE
Ltmp1138:
	movq	%rax, -2336(%rbp)
	jmp	LBB158_25
LBB158_25:
	.loc	3 0 9 is_stmt 0
	movq	-2336(%rbp), %rdi
	leaq	-2208(%rbp), %rsi
	movl	$752, %edx
	.loc	3 219 18
	callq	_memcpy
	movq	-2336(%rbp), %rax
Ltmp1240:
	.loc	33 203 30 is_stmt 1
	movq	%rax, -2216(%rbp)
Ltmp1139:
	leaq	-2232(%rbp), %rdi
	.loc	33 203 17 is_stmt 0
	callq	__ZN4core3ptr183drop_in_place$LT$core..option..Option$LT$alloc..boxed..Box$LT$std..sync..mpmc..list..Block$LT$alloc..boxed..Box$LT$dyn$u20$threadpool..FnBox$u2b$core..marker..Send$GT$$GT$$GT$$GT$$GT$17h797923a6da6e7a03E
Ltmp1140:
	jmp	LBB158_28
LBB158_26:
	movb	$1, -633(%rbp)
	movq	-2216(%rbp), %rax
	movq	%rax, -2232(%rbp)
	jmp	LBB158_8
LBB158_27:
Ltmp1141:
	.loc	33 0 17
	movq	%rax, %rcx
	movl	%edx, %eax
	movq	%rcx, -464(%rbp)
	movl	%eax, -456(%rbp)
	jmp	LBB158_26
LBB158_28:
	.loc	33 203 17
	movb	$1, -633(%rbp)
	movq	-2216(%rbp), %rax
	movq	%rax, -2232(%rbp)
	.loc	33 202 13 is_stmt 1
	jmp	LBB158_22
LBB158_29:
	.loc	33 0 13 is_stmt 0
	movq	-2328(%rbp), %rax
	.loc	33 208 16 is_stmt 1
	cmpq	$0, %rax
	jne	LBB158_31
Ltmp1142:
	.loc	33 0 16 is_stmt 0
	leaq	-1456(%rbp), %rdi
	.loc	33 209 50 is_stmt 1
	callq	__ZN3std4sync4mpmc4list14Block$LT$T$GT$3new17h5212535eb05c5f73E
Ltmp1143:
	jmp	LBB158_32
LBB158_31:
	.loc	33 0 50 is_stmt 0
	movq	-2264(%rbp), %rdi
	.loc	33 227 28 is_stmt 1
	movq	-2248(%rbp), %rax
	addq	$2, %rax
	movq	%rax, -2352(%rbp)
	movq	%rax, -248(%rbp)
Ltmp1241:
	.loc	33 230 19
	subq	$-128, %rdi
Ltmp1167:
	callq	__ZN88_$LT$std..sync..mpmc..utils..CachePadded$LT$T$GT$$u20$as$u20$core..ops..deref..Deref$GT$5deref17h7a08992fb3550e86E
Ltmp1168:
	movq	%rax, -2344(%rbp)
	jmp	LBB158_44
Ltmp1242:
LBB158_32:
Ltmp1144:
	.loc	33 0 19 is_stmt 0
	movl	$752, %edi
	movl	$8, %esi
Ltmp1243:
	.loc	3 219 9 is_stmt 1
	callq	__ZN5alloc5alloc15exchange_malloc17hc621d4f24179729cE
Ltmp1145:
	movq	%rax, -2360(%rbp)
	jmp	LBB158_33
LBB158_33:
	.loc	3 0 9 is_stmt 0
	movq	-2360(%rbp), %rdi
	.loc	3 219 9
	movq	%rdi, -360(%rbp)
	leaq	-1456(%rbp), %rsi
	movl	$752, %edx
	.loc	3 219 18
	callq	_memcpy
	movq	-2360(%rbp), %rdi
Ltmp1244:
	.loc	3 1059 39 is_stmt 1
	movq	%rdi, -352(%rbp)
Ltmp1146:
Ltmp1245:
	.loc	3 1112 31
	callq	__ZN5alloc5boxed16Box$LT$T$C$A$GT$11into_unique17hffd8d0aaa6ba97d6E
Ltmp1147:
	movq	%rax, -2368(%rbp)
	jmp	LBB158_34
LBB158_34:
	.loc	3 0 31 is_stmt 0
	movq	-2264(%rbp), %rdi
	movq	-2368(%rbp), %rax
	.loc	3 1112 14
	movq	%rax, -344(%rbp)
Ltmp1246:
	.loc	3 1113 10 is_stmt 1
	movq	%rax, -336(%rbp)
Ltmp1247:
	.loc	38 104 9
	movq	%rax, -328(%rbp)
Ltmp1248:
	.loc	3 1113 9
	movq	%rax, -600(%rbp)
Ltmp1249:
	.loc	3 1059 9
	movq	-600(%rbp), %rax
	movq	%rax, -2384(%rbp)
	movq	%rax, -320(%rbp)
Ltmp1250:
	.loc	33 211 20
	subq	$-128, %rdi
Ltmp1148:
	callq	__ZN88_$LT$std..sync..mpmc..utils..CachePadded$LT$T$GT$$u20$as$u20$core..ops..deref..Deref$GT$5deref17h7a08992fb3550e86E
Ltmp1149:
	movq	%rax, -2376(%rbp)
	jmp	LBB158_35
LBB158_35:
	.loc	33 0 20 is_stmt 0
	movq	-2384(%rbp), %rdx
	movq	-2376(%rbp), %rdi
	.loc	33 211 20
	addq	$8, %rdi
	movq	%rdi, -312(%rbp)
	.loc	33 214 39 is_stmt 1
	movq	-2240(%rbp), %rsi
	movq	%rsi, -304(%rbp)
	.loc	33 214 46 is_stmt 0
	movq	%rdx, -296(%rbp)
Ltmp1251:
	.loc	34 1355 42 is_stmt 1
	movq	%rdi, -288(%rbp)
Ltmp1150:
	movl	$1, %ecx
	xorl	%r8d, %r8d
	.loc	34 1355 18 is_stmt 0
	callq	__ZN4core4sync6atomic23atomic_compare_exchange17hdcb904adce11c71fE
Ltmp1151:
	movq	%rdx, -2400(%rbp)
	movq	%rax, -2392(%rbp)
	jmp	LBB158_36
LBB158_36:
	.loc	34 0 18
	movq	-2400(%rbp), %rax
	movq	-2392(%rbp), %rcx
	.loc	34 1355 18
	movq	%rcx, -696(%rbp)
	movq	%rax, -688(%rbp)
Ltmp1252:
	.loc	33 211 20 is_stmt 1
	leaq	-696(%rbp), %rax
	movq	%rax, -280(%rbp)
Ltmp1253:
	.loc	47 344 9
	cmpq	$0, -696(%rbp)
	jne	LBB158_38
	.loc	47 345 48
	movb	$1, -697(%rbp)
	jmp	LBB158_39
LBB158_38:
	.loc	47 346 18
	movb	$0, -697(%rbp)
Ltmp1254:
LBB158_39:
	.loc	33 211 20
	testb	$1, -697(%rbp)
	jne	LBB158_41
	.loc	33 0 20 is_stmt 0
	movq	-2384(%rbp), %rax
	.loc	33 220 62 is_stmt 1
	movq	%rax, -64(%rbp)
Ltmp1255:
	.loc	3 958 36
	movq	%rax, -56(%rbp)
Ltmp1256:
	.loc	3 1014 44
	movq	%rax, -48(%rbp)
Ltmp1257:
	.loc	38 87 59
	movq	%rax, -40(%rbp)
Ltmp1258:
	.loc	39 201 13
	movq	%rax, -584(%rbp)
Ltmp1259:
	.loc	38 87 18
	movq	-584(%rbp), %rax
	movq	%rax, -592(%rbp)
Ltmp1260:
	.loc	3 1014 9
	movq	-592(%rbp), %rax
	movq	%rax, -672(%rbp)
Ltmp1261:
	.loc	33 220 43
	movq	-672(%rbp), %rax
	movq	%rax, -680(%rbp)
Ltmp1152:
	leaq	-2232(%rbp), %rdi
	.loc	33 220 21 is_stmt 0
	callq	__ZN4core3ptr183drop_in_place$LT$core..option..Option$LT$alloc..boxed..Box$LT$std..sync..mpmc..list..Block$LT$alloc..boxed..Box$LT$dyn$u20$threadpool..FnBox$u2b$core..marker..Send$GT$$GT$$GT$$GT$$GT$17h797923a6da6e7a03E
Ltmp1153:
	jmp	LBB158_68
LBB158_41:
Ltmp1163:
	.loc	33 0 21
	movq	-2264(%rbp), %rdi
	.loc	33 217 21 is_stmt 1
	callq	__ZN88_$LT$std..sync..mpmc..utils..CachePadded$LT$T$GT$$u20$as$u20$core..ops..deref..Deref$GT$5deref17h7a08992fb3550e86E
Ltmp1164:
	movq	%rax, -2408(%rbp)
	jmp	LBB158_42
LBB158_42:
	.loc	33 0 21 is_stmt 0
	movq	-2384(%rbp), %rsi
	movq	-2408(%rbp), %rdi
	.loc	33 217 21
	addq	$8, %rdi
	movq	%rdi, -272(%rbp)
	.loc	33 217 43
	movq	%rsi, -264(%rbp)
Ltmp1262:
	.loc	34 1221 26 is_stmt 1
	movq	%rdi, -256(%rbp)
Ltmp1165:
	movl	$1, %edx
	.loc	34 1221 13 is_stmt 0
	callq	__ZN4core4sync6atomic12atomic_store17h8a03d05563aa3d8fE
Ltmp1166:
	jmp	LBB158_43
Ltmp1263:
LBB158_43:
	.loc	34 0 13
	movq	-2384(%rbp), %rax
	.loc	33 218 21 is_stmt 1
	movq	%rax, -2240(%rbp)
Ltmp1264:
	.loc	33 208 13
	jmp	LBB158_31
LBB158_44:
	.loc	33 0 13 is_stmt 0
	movq	-2352(%rbp), %rdx
	movq	-2344(%rbp), %rdi
Ltmp1265:
	.loc	33 230 19 is_stmt 1
	movq	%rdi, -240(%rbp)
	.loc	33 231 17
	movq	-2248(%rbp), %rsi
	movq	%rsi, -232(%rbp)
	.loc	33 232 17
	movq	%rdx, -224(%rbp)
Ltmp1266:
	.loc	34 2348 50
	movq	%rdi, -216(%rbp)
Ltmp1169:
	movl	$4, %ecx
	movl	$2, %r8d
	.loc	34 2348 21 is_stmt 0
	callq	__ZN4core4sync6atomic28atomic_compare_exchange_weak17hc4df1c161841f008E
Ltmp1170:
	movq	%rdx, -2424(%rbp)
	movq	%rax, -2416(%rbp)
	jmp	LBB158_45
LBB158_45:
	.loc	34 0 21
	movq	-2424(%rbp), %rax
	movq	-2416(%rbp), %rcx
	.loc	34 2348 21
	movq	%rcx, -664(%rbp)
	movq	%rax, -656(%rbp)
Ltmp1267:
	.loc	33 230 13 is_stmt 1
	cmpq	$0, -664(%rbp)
	jne	LBB158_47
	.loc	33 0 13 is_stmt 0
	movq	-2280(%rbp), %rax
	.loc	33 238 24 is_stmt 1
	addq	$1, %rax
	cmpq	$31, %rax
	je	LBB158_54
	jmp	LBB158_53
LBB158_47:
Ltmp1171:
	.loc	33 0 24 is_stmt 0
	leaq	-2252(%rbp), %rdi
	.loc	33 250 21 is_stmt 1
	callq	__ZN3std4sync4mpmc5utils7Backoff10spin_light17h4c34fe4a58c3487cE
Ltmp1172:
	jmp	LBB158_48
LBB158_48:
	.loc	33 0 21 is_stmt 0
	movq	-2264(%rbp), %rdi
	.loc	33 251 28 is_stmt 1
	subq	$-128, %rdi
Ltmp1173:
	callq	__ZN88_$LT$std..sync..mpmc..utils..CachePadded$LT$T$GT$$u20$as$u20$core..ops..deref..Deref$GT$5deref17h7a08992fb3550e86E
Ltmp1174:
	movq	%rax, -2432(%rbp)
	jmp	LBB158_49
LBB158_49:
	.loc	33 0 28 is_stmt 0
	movq	-2432(%rbp), %rdi
	.loc	33 251 28
	movq	%rdi, -208(%rbp)
Ltmp1268:
	.loc	34 2127 38 is_stmt 1
	movq	%rdi, -200(%rbp)
Ltmp1175:
	movl	$2, %esi
	.loc	34 2127 26 is_stmt 0
	callq	__ZN4core4sync6atomic11atomic_load17h02119c845b0293e5E
Ltmp1176:
	movq	%rax, -2440(%rbp)
	jmp	LBB158_50
Ltmp1269:
LBB158_50:
	.loc	34 0 26
	movq	-2264(%rbp), %rdi
	movq	-2440(%rbp), %rax
	.loc	33 251 21 is_stmt 1
	movq	%rax, -2248(%rbp)
	.loc	33 252 29
	subq	$-128, %rdi
Ltmp1177:
	callq	__ZN88_$LT$std..sync..mpmc..utils..CachePadded$LT$T$GT$$u20$as$u20$core..ops..deref..Deref$GT$5deref17h7a08992fb3550e86E
Ltmp1178:
	movq	%rax, -2448(%rbp)
	jmp	LBB158_51
LBB158_51:
	.loc	33 0 29 is_stmt 0
	movq	-2448(%rbp), %rdi
	.loc	33 252 29
	addq	$8, %rdi
	movq	%rdi, -192(%rbp)
Ltmp1270:
	.loc	34 1191 30 is_stmt 1
	movq	%rdi, -184(%rbp)
Ltmp1179:
	movl	$2, %esi
	.loc	34 1191 18 is_stmt 0
	callq	__ZN4core4sync6atomic11atomic_load17h150fa61814838578E
Ltmp1180:
	movq	%rax, -2456(%rbp)
	jmp	LBB158_52
Ltmp1271:
LBB158_52:
	.loc	34 0 18
	movq	-2456(%rbp), %rax
	.loc	33 252 21 is_stmt 1
	movq	%rax, -2240(%rbp)
Ltmp1272:
	.loc	33 182 9
	jmp	LBB158_1
LBB158_53:
	.loc	33 0 9 is_stmt 0
	movq	-2272(%rbp), %rax
	movq	-2280(%rbp), %rcx
Ltmp1273:
	.loc	33 245 40 is_stmt 1
	movq	-2240(%rbp), %rdx
	.loc	33 245 21 is_stmt 0
	movq	%rdx, 16(%rax)
	.loc	33 246 21 is_stmt 1
	movq	%rcx, 24(%rax)
	.loc	33 247 28
	movb	$1, -2253(%rbp)
Ltmp1274:
	.loc	43 1 1
	jmp	LBB158_5
LBB158_54:
Ltmp1275:
	.loc	33 239 56
	movb	$0, -633(%rbp)
	movq	-2232(%rbp), %rax
	movq	%rax, -648(%rbp)
Ltmp1276:
	.loc	46 821 15
	movq	-648(%rbp), %rdx
	movl	$1, %eax
	xorl	%ecx, %ecx
	cmpq	$0, %rdx
	cmoveq	%rcx, %rax
	.loc	46 821 9 is_stmt 0
	cmpq	$0, %rax
	jne	LBB158_56
Ltmp1193:
	.loc	46 823 21 is_stmt 1
	leaq	l___unnamed_39(%rip), %rdi
	leaq	l___unnamed_40(%rip), %rdx
	movl	$43, %esi
	callq	__ZN4core9panicking5panic17hc1bc45270cf64b03E
Ltmp1194:
	jmp	LBB158_63
LBB158_56:
	.loc	46 822 18
	movq	-648(%rbp), %rdi
	movq	%rdi, -176(%rbp)
Ltmp1277:
	.loc	3 1059 39
	movq	%rdi, -168(%rbp)
Ltmp1181:
Ltmp1278:
	.loc	3 1112 31
	callq	__ZN5alloc5boxed16Box$LT$T$C$A$GT$11into_unique17hffd8d0aaa6ba97d6E
Ltmp1182:
	movq	%rax, -2464(%rbp)
	jmp	LBB158_57
LBB158_57:
	.loc	3 0 31 is_stmt 0
	movq	-2264(%rbp), %rdi
	movq	-2464(%rbp), %rax
	.loc	3 1112 14
	movq	%rax, -160(%rbp)
Ltmp1279:
	.loc	3 1113 10 is_stmt 1
	movq	%rax, -152(%rbp)
Ltmp1280:
	.loc	38 104 9
	movq	%rax, -144(%rbp)
Ltmp1281:
	.loc	3 1113 9
	movq	%rax, -576(%rbp)
Ltmp1282:
	.loc	3 1059 9
	movq	-576(%rbp), %rax
	movq	%rax, -2480(%rbp)
	movq	%rax, -136(%rbp)
Ltmp1283:
	.loc	33 240 25
	subq	$-128, %rdi
Ltmp1183:
	callq	__ZN88_$LT$std..sync..mpmc..utils..CachePadded$LT$T$GT$$u20$as$u20$core..ops..deref..Deref$GT$5deref17h7a08992fb3550e86E
Ltmp1184:
	movq	%rax, -2472(%rbp)
	jmp	LBB158_58
LBB158_58:
	.loc	33 0 25 is_stmt 0
	movq	-2480(%rbp), %rsi
	movq	-2472(%rbp), %rdi
	.loc	33 240 25
	addq	$8, %rdi
	movq	%rdi, -128(%rbp)
	.loc	33 240 47
	movq	%rsi, -120(%rbp)
Ltmp1284:
	.loc	34 1221 26 is_stmt 1
	movq	%rdi, -112(%rbp)
Ltmp1185:
	movl	$1, %edx
	.loc	34 1221 13 is_stmt 0
	callq	__ZN4core4sync6atomic12atomic_store17h8a03d05563aa3d8fE
Ltmp1186:
	jmp	LBB158_59
Ltmp1285:
LBB158_59:
	.loc	34 0 13
	movq	-2264(%rbp), %rdi
	.loc	33 241 25 is_stmt 1
	subq	$-128, %rdi
Ltmp1187:
	callq	__ZN88_$LT$std..sync..mpmc..utils..CachePadded$LT$T$GT$$u20$as$u20$core..ops..deref..Deref$GT$5deref17h7a08992fb3550e86E
Ltmp1188:
	movq	%rax, -2488(%rbp)
	jmp	LBB158_60
LBB158_60:
	.loc	33 0 25 is_stmt 0
	movq	-2488(%rbp), %rdi
	.loc	33 241 25
	movq	%rdi, -104(%rbp)
Ltmp1286:
	.loc	34 2379 37 is_stmt 1
	movq	%rdi, -96(%rbp)
Ltmp1189:
	movl	$2, %esi
	movl	$1, %edx
	.loc	34 2379 26 is_stmt 0
	callq	__ZN4core4sync6atomic10atomic_add17h4ec94de194b3b038E
Ltmp1190:
	jmp	LBB158_61
Ltmp1287:
LBB158_61:
	.loc	34 0 26
	movq	-2480(%rbp), %rsi
	.loc	33 242 25 is_stmt 1
	movq	-2240(%rbp), %rdi
	movq	%rdi, -88(%rbp)
	.loc	33 242 45 is_stmt 0
	movq	%rsi, -80(%rbp)
Ltmp1288:
	.loc	34 1221 26 is_stmt 1
	movq	%rdi, -72(%rbp)
Ltmp1191:
	movl	$1, %edx
	.loc	34 1221 13 is_stmt 0
	callq	__ZN4core4sync6atomic12atomic_store17h8a03d05563aa3d8fE
Ltmp1192:
	jmp	LBB158_62
Ltmp1289:
LBB158_62:
	.loc	33 238 21 is_stmt 1
	jmp	LBB158_53
Ltmp1290:
LBB158_63:
	.loc	33 0 21 is_stmt 0
	ud2
LBB158_64:
	.loc	33 256 6 is_stmt 1
	movb	-2253(%rbp), %al
	andb	$1, %al
	movzbl	%al, %eax
	addq	$2528, %rsp
	popq	%rbp
	retq
LBB158_65:
Ltmp1291:
	.loc	33 256 5 is_stmt 0
	leaq	-2232(%rbp), %rdi
	callq	__ZN4core3ptr183drop_in_place$LT$core..option..Option$LT$alloc..boxed..Box$LT$std..sync..mpmc..list..Block$LT$alloc..boxed..Box$LT$dyn$u20$threadpool..FnBox$u2b$core..marker..Send$GT$$GT$$GT$$GT$$GT$17h797923a6da6e7a03E
	jmp	LBB158_64
LBB158_66:
Ltmp1292:
	.loc	33 220 21 is_stmt 1
	movb	$1, -633(%rbp)
	movq	-680(%rbp), %rax
	movq	%rax, -2232(%rbp)
	jmp	LBB158_8
LBB158_67:
Ltmp1154:
	.loc	33 0 21 is_stmt 0
	movq	%rax, %rcx
	movl	%edx, %eax
	movq	%rcx, -464(%rbp)
	movl	%eax, -456(%rbp)
	jmp	LBB158_66
LBB158_68:
	movq	-2264(%rbp), %rdi
	.loc	33 220 21
	movb	$1, -633(%rbp)
	movq	-680(%rbp), %rax
	movq	%rax, -2232(%rbp)
	.loc	33 221 28 is_stmt 1
	subq	$-128, %rdi
Ltmp1155:
	callq	__ZN88_$LT$std..sync..mpmc..utils..CachePadded$LT$T$GT$$u20$as$u20$core..ops..deref..Deref$GT$5deref17h7a08992fb3550e86E
Ltmp1156:
	movq	%rax, -2496(%rbp)
	jmp	LBB158_69
LBB158_69:
	.loc	33 0 28 is_stmt 0
	movq	-2496(%rbp), %rdi
	.loc	33 221 28
	movq	%rdi, -32(%rbp)
Ltmp1293:
	.loc	34 2127 38 is_stmt 1
	movq	%rdi, -24(%rbp)
Ltmp1157:
	movl	$2, %esi
	.loc	34 2127 26 is_stmt 0
	callq	__ZN4core4sync6atomic11atomic_load17h02119c845b0293e5E
Ltmp1158:
	movq	%rax, -2504(%rbp)
	jmp	LBB158_70
Ltmp1294:
LBB158_70:
	.loc	34 0 26
	movq	-2264(%rbp), %rdi
	movq	-2504(%rbp), %rax
	.loc	33 221 21 is_stmt 1
	movq	%rax, -2248(%rbp)
	.loc	33 222 29
	subq	$-128, %rdi
Ltmp1159:
	callq	__ZN88_$LT$std..sync..mpmc..utils..CachePadded$LT$T$GT$$u20$as$u20$core..ops..deref..Deref$GT$5deref17h7a08992fb3550e86E
Ltmp1160:
	movq	%rax, -2512(%rbp)
	jmp	LBB158_71
LBB158_71:
	.loc	33 0 29 is_stmt 0
	movq	-2512(%rbp), %rdi
	.loc	33 222 29
	addq	$8, %rdi
	movq	%rdi, -16(%rbp)
Ltmp1295:
	.loc	34 1191 30 is_stmt 1
	movq	%rdi, -8(%rbp)
Ltmp1161:
	movl	$2, %esi
	.loc	34 1191 18 is_stmt 0
	callq	__ZN4core4sync6atomic11atomic_load17h150fa61814838578E
Ltmp1162:
	movq	%rax, -2520(%rbp)
	jmp	LBB158_72
Ltmp1296:
LBB158_72:
	.loc	34 0 18
	movq	-2520(%rbp), %rax
	.loc	33 222 21 is_stmt 1
	movq	%rax, -2240(%rbp)
Ltmp1297:
	.loc	43 1 1
	jmp	LBB158_15
Ltmp1298:
LBB158_73:
	.loc	33 176 5
	movq	-464(%rbp), %rdi
	callq	__Unwind_Resume
LBB158_74:
Ltmp1206:
	.loc	33 0 5 is_stmt 0
	leaq	-2232(%rbp), %rdi
Ltmp1299:
	.loc	33 256 5 is_stmt 1
	callq	__ZN4core3ptr183drop_in_place$LT$core..option..Option$LT$alloc..boxed..Box$LT$std..sync..mpmc..list..Block$LT$alloc..boxed..Box$LT$dyn$u20$threadpool..FnBox$u2b$core..marker..Send$GT$$GT$$GT$$GT$$GT$17h797923a6da6e7a03E
Ltmp1207:
	jmp	LBB158_73
Ltmp1300:
LBB158_75:
Ltmp1208:
	.loc	33 176 5
	callq	__ZN4core9panicking19panic_cannot_unwind17h1fbca7e1d7f56ae1E
Ltmp1301:
Lfunc_end158:
	.cfi_endproc
	.section	__TEXT,__gcc_except_tab
	.p2align	2
GCC_except_table158:
Lexception24:
	.byte	255
	.byte	255
	.byte	1
	.uleb128 Lcst_end24-Lcst_begin24
Lcst_begin24:
	.uleb128 Lfunc_begin158-Lfunc_begin158
	.uleb128 Ltmp1195-Lfunc_begin158
	.byte	0
	.byte	0
	.uleb128 Ltmp1195-Lfunc_begin158
	.uleb128 Ltmp1138-Ltmp1195
	.uleb128 Ltmp1205-Lfunc_begin158
	.byte	0
	.uleb128 Ltmp1138-Lfunc_begin158
	.uleb128 Ltmp1139-Ltmp1138
	.byte	0
	.byte	0
	.uleb128 Ltmp1139-Lfunc_begin158
	.uleb128 Ltmp1140-Ltmp1139
	.uleb128 Ltmp1141-Lfunc_begin158
	.byte	0
	.uleb128 Ltmp1142-Lfunc_begin158
	.uleb128 Ltmp1145-Ltmp1142
	.uleb128 Ltmp1205-Lfunc_begin158
	.byte	0
	.uleb128 Ltmp1145-Lfunc_begin158
	.uleb128 Ltmp1146-Ltmp1145
	.byte	0
	.byte	0
	.uleb128 Ltmp1146-Lfunc_begin158
	.uleb128 Ltmp1151-Ltmp1146
	.uleb128 Ltmp1205-Lfunc_begin158
	.byte	0
	.uleb128 Ltmp1152-Lfunc_begin158
	.uleb128 Ltmp1153-Ltmp1152
	.uleb128 Ltmp1154-Lfunc_begin158
	.byte	0
	.uleb128 Ltmp1163-Lfunc_begin158
	.uleb128 Ltmp1192-Ltmp1163
	.uleb128 Ltmp1205-Lfunc_begin158
	.byte	0
	.uleb128 Ltmp1192-Lfunc_begin158
	.uleb128 Ltmp1155-Ltmp1192
	.byte	0
	.byte	0
	.uleb128 Ltmp1155-Lfunc_begin158
	.uleb128 Ltmp1162-Ltmp1155
	.uleb128 Ltmp1205-Lfunc_begin158
	.byte	0
	.uleb128 Ltmp1162-Lfunc_begin158
	.uleb128 Ltmp1206-Ltmp1162
	.byte	0
	.byte	0
	.uleb128 Ltmp1206-Lfunc_begin158
	.uleb128 Ltmp1207-Ltmp1206
	.uleb128 Ltmp1208-Lfunc_begin158
	.byte	0
Lcst_end24:
	.p2align	2

	.section	__TEXT,__text,regular,pure_instructions
	.globl	__ZN3std4sync4mpmc4list16Channel$LT$T$GT$15is_disconnected17hca29188debdc28dbE
	.p2align	4, 0x90
__ZN3std4sync4mpmc4list16Channel$LT$T$GT$15is_disconnected17hca29188debdc28dbE:
Lfunc_begin159:
	.loc	33 585 0
	.cfi_startproc
	pushq	%rbp
	.cfi_def_cfa_offset 16
	.cfi_offset %rbp, -16
	movq	%rsp, %rbp
	.cfi_def_cfa_register %rbp
	subq	$32, %rsp
	movq	%rdi, -24(%rbp)
Ltmp1302:
	.loc	33 586 9 prologue_end
	addq	$128, %rdi
	callq	__ZN88_$LT$std..sync..mpmc..utils..CachePadded$LT$T$GT$$u20$as$u20$core..ops..deref..Deref$GT$5deref17h4485c64de63e3605E
	movq	%rax, %rdi
	movq	%rdi, -16(%rbp)
Ltmp1303:
	.loc	34 2127 38
	movq	%rdi, -8(%rbp)
	.loc	34 2127 26 is_stmt 0
	movl	$4, %esi
	callq	__ZN4core4sync6atomic11atomic_load17h02119c845b0293e5E
Ltmp1304:
