	.section	__TEXT,__text,regular,pure_instructions
	.macosx_version_min 10, 7
	.globl	__ZN100_$LT$core..iter..adapters..skip..Skip$LT$I$GT$$u20$as$u20$core..iter..traits..iterator..Iterator$GT$4next17h769a414809d06c7aE
	.p2align	4, 0x90
__ZN100_$LT$core..iter..adapters..skip..Skip$LT$I$GT$$u20$as$u20$core..iter..traits..iterator..Iterator$GT$4next17h769a414809d06c7aE:
Lfunc_begin0:
	.file	1 "/rustc/2c8cc343237b8f7d5a3c3703e3a87f2eb2c54a74/library/core/src/iter/adapters" "skip.rs"
	.loc	1 34 0
	.cfi_startproc
	pushq	%rbp
	.cfi_def_cfa_offset 16
	.cfi_offset %rbp, -16
	movq	%rsp, %rbp
	.cfi_def_cfa_register %rbp
	subq	$48, %rsp
	movq	%rdi, -48(%rbp)
	movq	%rdi, -24(%rbp)
Ltmp0:
	.loc	1 35 21 prologue_end
	cmpq	$0, 32(%rdi)
	seta	%al
	.loc	1 35 12 is_stmt 0
	andb	$1, %al
	movb	%al, -9(%rbp)
	testb	$1, -9(%rbp)
	jne	LBB0_2
	.loc	1 0 12
	movq	-48(%rbp), %rdi
	.loc	1 38 13 is_stmt 1
	callq	__ZN100_$LT$core..iter..adapters..take..Take$LT$I$GT$$u20$as$u20$core..iter..traits..iterator..Iterator$GT$4next17hdf14772de5a60a8cE
	movq	%rdx, -32(%rbp)
	movq	%rax, -40(%rbp)
	.loc	1 35 9
	jmp	LBB0_3
LBB0_2:
	.loc	1 0 9 is_stmt 0
	movq	-48(%rbp), %rdi
	.loc	1 36 44 is_stmt 1
	addq	$32, %rdi
	movq	%rdi, -8(%rbp)
	xorl	%eax, %eax
	movl	%eax, %esi
Ltmp1:
	.file	2 "/rustc/2c8cc343237b8f7d5a3c3703e3a87f2eb2c54a74/library/core/src/mem" "mod.rs"
	.loc	2 839 5
	callq	__ZN4core3mem7replace17hb035d6a162b1e384E
	movq	-48(%rbp), %rdi
	movq	%rax, %rsi
Ltmp2:
	.loc	1 36 13
	callq	__ZN100_$LT$core..iter..adapters..take..Take$LT$I$GT$$u20$as$u20$core..iter..traits..iterator..Iterator$GT$3nth17h90baf30e3baaff82E
	movq	%rdx, -32(%rbp)
	movq	%rax, -40(%rbp)
LBB0_3:
	.loc	1 40 6
	movq	-40(%rbp), %rax
	movq	-32(%rbp), %rdx
	addq	$48, %rsp
	popq	%rbp
	retq
Ltmp3:
Lfunc_end0:
	.cfi_endproc

	.globl	__ZN100_$LT$core..iter..adapters..take..Take$LT$I$GT$$u20$as$u20$core..iter..traits..iterator..Iterator$GT$3nth17h90baf30e3baaff82E
	.p2align	4, 0x90
__ZN100_$LT$core..iter..adapters..take..Take$LT$I$GT$$u20$as$u20$core..iter..traits..iterator..Iterator$GT$3nth17h90baf30e3baaff82E:
Lfunc_begin1:
	.file	3 "/rustc/2c8cc343237b8f7d5a3c3703e3a87f2eb2c54a74/library/core/src/iter/adapters" "take.rs"
	.loc	3 44 0
	.cfi_startproc
	pushq	%rbp
	.cfi_def_cfa_offset 16
	.cfi_offset %rbp, -16
	movq	%rsp, %rbp
	.cfi_def_cfa_register %rbp
	subq	$48, %rsp
	movq	%rdi, -48(%rbp)
	movq	%rsi, -40(%rbp)
	movq	%rdi, -16(%rbp)
	movq	%rsi, -8(%rbp)
Ltmp4:
	.loc	3 45 12 prologue_end
	cmpq	%rsi, (%rdi)
	ja	LBB1_2
	.loc	3 0 12 is_stmt 0
	movq	-48(%rbp), %rax
	.loc	3 49 16 is_stmt 1
	cmpq	$0, (%rax)
	ja	LBB1_5
	jmp	LBB1_4
LBB1_2:
	.loc	3 0 16 is_stmt 0
	movq	-40(%rbp), %rsi
	movq	-48(%rbp), %rdi
	.loc	3 46 13 is_stmt 1
	movq	(%rdi), %rcx
	movq	%rsi, %rax
	notq	%rax
	addq	%rcx, %rax
	movq	%rax, (%rdi)
	.loc	3 47 13
	addq	$8, %rdi
	callq	__ZN110_$LT$core..iter..adapters..enumerate..Enumerate$LT$I$GT$$u20$as$u20$core..iter..traits..iterator..Iterator$GT$3nth17h71b9d886c10af99eE
	movq	%rdx, -24(%rbp)
	movq	%rax, -32(%rbp)
LBB1_3:
	.loc	3 55 6
	movq	-32(%rbp), %rax
	movq	-24(%rbp), %rdx
	addq	$48, %rsp
	popq	%rbp
	retq
LBB1_4:
	.loc	3 53 13
	movq	$0, -24(%rbp)
	.loc	3 45 9
	jmp	LBB1_3
LBB1_5:
	.loc	3 0 9 is_stmt 0
	movq	-48(%rbp), %rax
	.loc	3 50 17 is_stmt 1
	movq	%rax, %rdi
	addq	$8, %rdi
	.loc	3 50 31 is_stmt 0
	movq	(%rax), %rsi
	subq	$1, %rsi
	.loc	3 50 17
	callq	__ZN110_$LT$core..iter..adapters..enumerate..Enumerate$LT$I$GT$$u20$as$u20$core..iter..traits..iterator..Iterator$GT$3nth17h71b9d886c10af99eE
	movq	-48(%rbp), %rax
	.loc	3 51 17 is_stmt 1
	movq	$0, (%rax)
	.loc	3 49 13
	jmp	LBB1_4
Ltmp5:
Lfunc_end1:
	.cfi_endproc

	.globl	__ZN100_$LT$core..iter..adapters..take..Take$LT$I$GT$$u20$as$u20$core..iter..traits..iterator..Iterator$GT$4next17h0ce3d9a0230cb0c4E
	.p2align	4, 0x90
__ZN100_$LT$core..iter..adapters..take..Take$LT$I$GT$$u20$as$u20$core..iter..traits..iterator..Iterator$GT$4next17h0ce3d9a0230cb0c4E:
Lfunc_begin2:
	.loc	3 34 0
	.cfi_startproc
	pushq	%rbp
	.cfi_def_cfa_offset 16
	.cfi_offset %rbp, -16
	movq	%rsp, %rbp
	.cfi_def_cfa_register %rbp
	subq	$32, %rsp
	movq	%rdi, -24(%rbp)
	movq	%rdi, -8(%rbp)
Ltmp6:
	.loc	3 35 12 prologue_end
	cmpq	$0, 16(%rdi)
	jne	LBB2_2
	.loc	3 39 13
	movq	$0, -16(%rbp)
	.loc	3 35 9
	jmp	LBB2_3
LBB2_2:
	.loc	3 0 9 is_stmt 0
	movq	-24(%rbp), %rdi
	.loc	3 36 13 is_stmt 1
	movq	16(%rdi), %rax
	subq	$1, %rax
	movq	%rax, 16(%rdi)
	.loc	3 37 13
	callq	__ZN94_$LT$core..slice..iter..IterMut$LT$T$GT$$u20$as$u20$core..iter..traits..iterator..Iterator$GT$4next17h9cb1935f56d4f9dfE
	movq	%rax, -16(%rbp)
LBB2_3:
	.loc	3 41 6
	movq	-16(%rbp), %rax
	addq	$32, %rsp
	popq	%rbp
	retq
Ltmp7:
Lfunc_end2:
	.cfi_endproc

	.globl	__ZN100_$LT$core..iter..adapters..take..Take$LT$I$GT$$u20$as$u20$core..iter..traits..iterator..Iterator$GT$4next17h488f9d98ce4b6436E
	.p2align	4, 0x90
__ZN100_$LT$core..iter..adapters..take..Take$LT$I$GT$$u20$as$u20$core..iter..traits..iterator..Iterator$GT$4next17h488f9d98ce4b6436E:
Lfunc_begin3:
	.loc	3 34 0
	.cfi_startproc
	pushq	%rbp
	.cfi_def_cfa_offset 16
	.cfi_offset %rbp, -16
	movq	%rsp, %rbp
	.cfi_def_cfa_register %rbp
	subq	$32, %rsp
	movq	%rdi, -24(%rbp)
	movq	%rdi, -8(%rbp)
Ltmp8:
	.loc	3 35 12 prologue_end
	cmpq	$0, 16(%rdi)
	jne	LBB3_2
	.loc	3 39 13
	movq	$0, -16(%rbp)
	.loc	3 35 9
	jmp	LBB3_3
LBB3_2:
	.loc	3 0 9 is_stmt 0
	movq	-24(%rbp), %rdi
	.loc	3 36 13 is_stmt 1
	movq	16(%rdi), %rax
	subq	$1, %rax
	movq	%rax, 16(%rdi)
	.loc	3 37 13
	callq	__ZN91_$LT$core..slice..iter..Iter$LT$T$GT$$u20$as$u20$core..iter..traits..iterator..Iterator$GT$4next17h63cfc4ed932084d7E
	movq	%rax, -16(%rbp)
LBB3_3:
	.loc	3 41 6
	movq	-16(%rbp), %rax
	addq	$32, %rsp
	popq	%rbp
	retq
Ltmp9:
Lfunc_end3:
	.cfi_endproc

	.globl	__ZN100_$LT$core..iter..adapters..take..Take$LT$I$GT$$u20$as$u20$core..iter..traits..iterator..Iterator$GT$4next17hc2f4c9e1eba8ad3eE
	.p2align	4, 0x90
__ZN100_$LT$core..iter..adapters..take..Take$LT$I$GT$$u20$as$u20$core..iter..traits..iterator..Iterator$GT$4next17hc2f4c9e1eba8ad3eE:
Lfunc_begin4:
	.loc	3 34 0
	.cfi_startproc
	pushq	%rbp
	.cfi_def_cfa_offset 16
	.cfi_offset %rbp, -16
	movq	%rsp, %rbp
	.cfi_def_cfa_register %rbp
	subq	$32, %rsp
	movq	%rdi, -32(%rbp)
	movq	%rdi, -8(%rbp)
Ltmp10:
	.loc	3 35 12 prologue_end
	cmpq	$0, (%rdi)
	jne	LBB4_2
	.loc	3 39 13
	movq	$0, -16(%rbp)
	.loc	3 35 9
	jmp	LBB4_3
LBB4_2:
	.loc	3 0 9 is_stmt 0
	movq	-32(%rbp), %rdi
	.loc	3 36 13 is_stmt 1
	movq	(%rdi), %rax
	decq	%rax
	movq	%rax, (%rdi)
	.loc	3 37 13
	addq	$8, %rdi
	callq	__ZN110_$LT$core..iter..adapters..enumerate..Enumerate$LT$I$GT$$u20$as$u20$core..iter..traits..iterator..Iterator$GT$4next17hb88d17a1178b8f0eE
	movq	%rdx, -16(%rbp)
	movq	%rax, -24(%rbp)
LBB4_3:
	.loc	3 41 6
	movq	-24(%rbp), %rax
	movq	-16(%rbp), %rdx
	addq	$32, %rsp
	popq	%rbp
	retq
Ltmp11:
Lfunc_end4:
	.cfi_endproc

	.globl	__ZN100_$LT$core..iter..adapters..take..Take$LT$I$GT$$u20$as$u20$core..iter..traits..iterator..Iterator$GT$4next17hdf14772de5a60a8cE
	.p2align	4, 0x90
__ZN100_$LT$core..iter..adapters..take..Take$LT$I$GT$$u20$as$u20$core..iter..traits..iterator..Iterator$GT$4next17hdf14772de5a60a8cE:
Lfunc_begin5:
	.loc	3 34 0
	.cfi_startproc
	pushq	%rbp
	.cfi_def_cfa_offset 16
	.cfi_offset %rbp, -16
	movq	%rsp, %rbp
	.cfi_def_cfa_register %rbp
	subq	$32, %rsp
	movq	%rdi, -32(%rbp)
	movq	%rdi, -8(%rbp)
Ltmp12:
	.loc	3 35 12 prologue_end
	cmpq	$0, (%rdi)
	jne	LBB5_2
	.loc	3 39 13
	movq	$0, -16(%rbp)
	.loc	3 35 9
	jmp	LBB5_3
LBB5_2:
	.loc	3 0 9 is_stmt 0
	movq	-32(%rbp), %rdi
	.loc	3 36 13 is_stmt 1
	movq	(%rdi), %rax
	decq	%rax
	movq	%rax, (%rdi)
	.loc	3 37 13
	addq	$8, %rdi
	callq	__ZN110_$LT$core..iter..adapters..enumerate..Enumerate$LT$I$GT$$u20$as$u20$core..iter..traits..iterator..Iterator$GT$4next17h819c8646c90bd1cbE
	movq	%rdx, -16(%rbp)
	movq	%rax, -24(%rbp)
LBB5_3:
	.loc	3 41 6
	movq	-24(%rbp), %rax
	movq	-16(%rbp), %rdx
	addq	$32, %rsp
	popq	%rbp
	retq
Ltmp13:
Lfunc_end5:
	.cfi_endproc

	.globl	__ZN102_$LT$core..iter..adapters..zip..Zip$LT$A$C$B$GT$$u20$as$u20$core..iter..traits..iterator..Iterator$GT$4next17h221c8cfa91da38ecE
	.p2align	4, 0x90
__ZN102_$LT$core..iter..adapters..zip..Zip$LT$A$C$B$GT$$u20$as$u20$core..iter..traits..iterator..Iterator$GT$4next17h221c8cfa91da38ecE:
Lfunc_begin6:
	.file	4 "/rustc/2c8cc343237b8f7d5a3c3703e3a87f2eb2c54a74/library/core/src/iter/adapters" "zip.rs"
	.loc	4 83 0
	.cfi_startproc
	pushq	%rbp
	.cfi_def_cfa_offset 16
	.cfi_offset %rbp, -16
	movq	%rsp, %rbp
	.cfi_def_cfa_register %rbp
	subq	$16, %rsp
	movq	%rdi, -8(%rbp)
Ltmp14:
	.loc	4 84 9 prologue_end
	callq	__ZN111_$LT$core..iter..adapters..zip..Zip$LT$A$C$B$GT$$u20$as$u20$core..iter..adapters..zip..ZipImpl$LT$A$C$B$GT$$GT$4next17h37ae17076637eaa7E
	.loc	4 85 6
	addq	$16, %rsp
	popq	%rbp
	retq
Ltmp15:
Lfunc_end6:
	.cfi_endproc

	.globl	__ZN103_$LT$core..ops..try_trait..NeverShortCircuit$LT$T$GT$$u20$as$u20$core..ops..try_trait..FromResidual$GT$13from_residual17hf274330cc3deb796E
	.p2align	4, 0x90
__ZN103_$LT$core..ops..try_trait..NeverShortCircuit$LT$T$GT$$u20$as$u20$core..ops..try_trait..FromResidual$GT$13from_residual17hf274330cc3deb796E:
Lfunc_begin7:
	.file	5 "/rustc/2c8cc343237b8f7d5a3c3703e3a87f2eb2c54a74/library/core/src/ops" "try_trait.rs"
	.loc	5 411 0
	.cfi_startproc
	pushq	%rbp
	.cfi_def_cfa_offset 16
	.cfi_offset %rbp, -16
	movq	%rsp, %rbp
	.cfi_def_cfa_register %rbp
	pushq	%rax
Ltmp16:
	.loc	5 412 15 prologue_end
	ud2
Ltmp17:
Lfunc_end7:
	.cfi_endproc

	.globl	__ZN104_$LT$core..ops..control_flow..ControlFlow$LT$B$C$C$GT$$u20$as$u20$core..ops..try_trait..FromResidual$GT$13from_residual17h5a044ec20e3f3531E
	.p2align	4, 0x90
__ZN104_$LT$core..ops..control_flow..ControlFlow$LT$B$C$C$GT$$u20$as$u20$core..ops..try_trait..FromResidual$GT$13from_residual17h5a044ec20e3f3531E:
Lfunc_begin8:
	.file	6 "/rustc/2c8cc343237b8f7d5a3c3703e3a87f2eb2c54a74/library/core/src/ops" "control_flow.rs"
	.loc	6 123 0
	.cfi_startproc
	pushq	%rbp
	.cfi_def_cfa_offset 16
	.cfi_offset %rbp, -16
	movq	%rsp, %rbp
	.cfi_def_cfa_register %rbp
	subq	$32, %rsp
	movq	%rdi, -32(%rbp)
Ltmp18:
	.loc	6 125 32 prologue_end
	movq	-32(%rbp), %rax
	movq	%rax, -8(%rbp)
Ltmp19:
	.loc	6 125 38 is_stmt 0
	movq	%rax, -16(%rbp)
	movq	$1, -24(%rbp)
Ltmp20:
	.loc	6 127 6 is_stmt 1
	movq	-24(%rbp), %rax
	movq	-16(%rbp), %rdx
	addq	$32, %rsp
	popq	%rbp
	retq
Ltmp21:
Lfunc_end8:
	.cfi_endproc

	.globl	__ZN106_$LT$core..ops..range..Range$LT$usize$GT$$u20$as$u20$core..slice..index..SliceIndex$LT$$u5b$T$u5d$$GT$$GT$13get_unchecked17h88a73d0313a03fc0E
	.p2align	4, 0x90
__ZN106_$LT$core..ops..range..Range$LT$usize$GT$$u20$as$u20$core..slice..index..SliceIndex$LT$$u5b$T$u5d$$GT$$GT$13get_unchecked17h88a73d0313a03fc0E:
Lfunc_begin9:
	.file	7 "/rustc/2c8cc343237b8f7d5a3c3703e3a87f2eb2c54a74/library/core/src/slice" "index.rs"
	.loc	7 373 0
	.cfi_startproc
	pushq	%rbp
	.cfi_def_cfa_offset 16
	.cfi_offset %rbp, -16
	movq	%rsp, %rbp
	.cfi_def_cfa_register %rbp
	subq	$160, %rsp
	movq	%rdi, -128(%rbp)
	movq	%rsi, -120(%rbp)
	movq	%rdx, -112(%rbp)
	movq	%rcx, -104(%rbp)
Ltmp22:
	.loc	7 386 39 prologue_end
	movq	%rdx, -96(%rbp)
	movq	%rcx, -88(%rbp)
Ltmp23:
	.file	8 "/rustc/2c8cc343237b8f7d5a3c3703e3a87f2eb2c54a74/library/core/src/ptr" "const_ptr.rs"
	.loc	8 1650 9
	movq	%rdx, -80(%rbp)
Ltmp24:
	.loc	7 386 58
	movq	%rdi, -72(%rbp)
Ltmp25:
	.loc	8 932 18
	movq	%rdx, -64(%rbp)
	.loc	8 932 30 is_stmt 0
	movq	%rdi, -56(%rbp)
Ltmp26:
	.loc	8 473 18 is_stmt 1
	leaq	(%rdx,%rdi,4), %rax
	movq	%rax, -48(%rbp)
	movq	-48(%rbp), %rax
	movq	%rax, -40(%rbp)
Ltmp27:
	.loc	7 386 71
	subq	%rdi, %rsi
	movq	%rsi, -32(%rbp)
Ltmp28:
	.file	9 "/rustc/2c8cc343237b8f7d5a3c3703e3a87f2eb2c54a74/library/core/src/ptr" "mod.rs"
	.loc	9 734 20
	movq	%rax, -24(%rbp)
Ltmp29:
	.loc	8 61 9
	movq	%rax, -16(%rbp)
Ltmp30:
	.loc	9 734 33
	movq	%rsi, -8(%rbp)
Ltmp31:
	.file	10 "/rustc/2c8cc343237b8f7d5a3c3703e3a87f2eb2c54a74/library/core/src/ptr" "metadata.rs"
	.loc	10 118 36
	movq	%rax, -144(%rbp)
	movq	%rsi, -136(%rbp)
	.loc	10 118 14 is_stmt 0
	movq	-144(%rbp), %rcx
	movq	-136(%rbp), %rax
	movq	%rcx, -160(%rbp)
	movq	%rax, -152(%rbp)
	movq	-160(%rbp), %rax
	movq	-152(%rbp), %rdx
Ltmp32:
	.loc	7 388 6 is_stmt 1
	addq	$160, %rsp
	popq	%rbp
	retq
Ltmp33:
Lfunc_end9:
	.cfi_endproc

	.globl	__ZN106_$LT$core..ops..range..Range$LT$usize$GT$$u20$as$u20$core..slice..index..SliceIndex$LT$$u5b$T$u5d$$GT$$GT$13get_unchecked17hc70b4008c7a719a3E
	.p2align	4, 0x90
__ZN106_$LT$core..ops..range..Range$LT$usize$GT$$u20$as$u20$core..slice..index..SliceIndex$LT$$u5b$T$u5d$$GT$$GT$13get_unchecked17hc70b4008c7a719a3E:
Lfunc_begin10:
	.loc	7 373 0
	.cfi_startproc
	pushq	%rbp
	.cfi_def_cfa_offset 16
	.cfi_offset %rbp, -16
	movq	%rsp, %rbp
	.cfi_def_cfa_register %rbp
	subq	$160, %rsp
	movq	%rdi, -128(%rbp)
	movq	%rsi, -120(%rbp)
	movq	%rdx, -112(%rbp)
	movq	%rcx, -104(%rbp)
Ltmp34:
	.loc	7 386 39 prologue_end
	movq	%rdx, -96(%rbp)
	movq	%rcx, -88(%rbp)
Ltmp35:
	.loc	8 1650 9
	movq	%rdx, -80(%rbp)
Ltmp36:
	.loc	7 386 58
	movq	%rdi, -72(%rbp)
Ltmp37:
	.loc	8 932 18
	movq	%rdx, -64(%rbp)
	.loc	8 932 30 is_stmt 0
	movq	%rdi, -56(%rbp)
Ltmp38:
	.loc	8 473 18 is_stmt 1
	addq	%rdi, %rdx
	movq	%rdx, -48(%rbp)
	movq	-48(%rbp), %rax
	movq	%rax, -40(%rbp)
Ltmp39:
	.loc	7 386 71
	subq	%rdi, %rsi
	movq	%rsi, -32(%rbp)
Ltmp40:
	.loc	9 734 20
	movq	%rax, -24(%rbp)
Ltmp41:
	.loc	8 61 9
	movq	%rax, -16(%rbp)
Ltmp42:
	.loc	9 734 33
	movq	%rsi, -8(%rbp)
Ltmp43:
	.loc	10 118 36
	movq	%rax, -144(%rbp)
	movq	%rsi, -136(%rbp)
	.loc	10 118 14 is_stmt 0
	movq	-144(%rbp), %rcx
	movq	-136(%rbp), %rax
	movq	%rcx, -160(%rbp)
	movq	%rax, -152(%rbp)
	movq	-160(%rbp), %rax
	movq	-152(%rbp), %rdx
Ltmp44:
	.loc	7 388 6 is_stmt 1
	addq	$160, %rsp
	popq	%rbp
	retq
Ltmp45:
Lfunc_end10:
	.cfi_endproc

	.globl	__ZN106_$LT$core..ops..range..Range$LT$usize$GT$$u20$as$u20$core..slice..index..SliceIndex$LT$$u5b$T$u5d$$GT$$GT$13get_unchecked17hec238f8a18d61872E
	.p2align	4, 0x90
__ZN106_$LT$core..ops..range..Range$LT$usize$GT$$u20$as$u20$core..slice..index..SliceIndex$LT$$u5b$T$u5d$$GT$$GT$13get_unchecked17hec238f8a18d61872E:
Lfunc_begin11:
	.loc	7 373 0
	.cfi_startproc
	pushq	%rbp
	.cfi_def_cfa_offset 16
	.cfi_offset %rbp, -16
	movq	%rsp, %rbp
	.cfi_def_cfa_register %rbp
	subq	$160, %rsp
	movq	%rdi, -128(%rbp)
	movq	%rsi, -120(%rbp)
	movq	%rdx, -112(%rbp)
	movq	%rcx, -104(%rbp)
Ltmp46:
	.loc	7 386 39 prologue_end
	movq	%rdx, -96(%rbp)
	movq	%rcx, -88(%rbp)
Ltmp47:
	.loc	8 1650 9
	movq	%rdx, -80(%rbp)
Ltmp48:
	.loc	7 386 58
	movq	%rdi, -72(%rbp)
Ltmp49:
	.loc	8 932 18
	movq	%rdx, -64(%rbp)
	.loc	8 932 30 is_stmt 0
	movq	%rdi, -56(%rbp)
Ltmp50:
	.loc	8 473 18 is_stmt 1
	leaq	(%rdx,%rdi,4), %rax
	movq	%rax, -48(%rbp)
	movq	-48(%rbp), %rax
	movq	%rax, -40(%rbp)
Ltmp51:
	.loc	7 386 71
	subq	%rdi, %rsi
	movq	%rsi, -32(%rbp)
Ltmp52:
	.loc	9 734 20
	movq	%rax, -24(%rbp)
Ltmp53:
	.loc	8 61 9
	movq	%rax, -16(%rbp)
Ltmp54:
	.loc	9 734 33
	movq	%rsi, -8(%rbp)
Ltmp55:
	.loc	10 118 36
	movq	%rax, -144(%rbp)
	movq	%rsi, -136(%rbp)
	.loc	10 118 14 is_stmt 0
	movq	-144(%rbp), %rcx
	movq	-136(%rbp), %rax
	movq	%rcx, -160(%rbp)
	movq	%rax, -152(%rbp)
	movq	-160(%rbp), %rax
	movq	-152(%rbp), %rdx
Ltmp56:
	.loc	7 388 6 is_stmt 1
	addq	$160, %rsp
	popq	%rbp
	retq
Ltmp57:
Lfunc_end11:
	.cfi_endproc

	.globl	__ZN106_$LT$core..ops..range..Range$LT$usize$GT$$u20$as$u20$core..slice..index..SliceIndex$LT$$u5b$T$u5d$$GT$$GT$17get_unchecked_mut17h1c023c535cb4bb21E
	.p2align	4, 0x90
__ZN106_$LT$core..ops..range..Range$LT$usize$GT$$u20$as$u20$core..slice..index..SliceIndex$LT$$u5b$T$u5d$$GT$$GT$17get_unchecked_mut17h1c023c535cb4bb21E:
Lfunc_begin12:
	.loc	7 391 0
	.cfi_startproc
	pushq	%rbp
	.cfi_def_cfa_offset 16
	.cfi_offset %rbp, -16
	movq	%rsp, %rbp
	.cfi_def_cfa_register %rbp
	subq	$160, %rsp
	movq	%rdi, -128(%rbp)
	movq	%rsi, -120(%rbp)
	movq	%rdx, -112(%rbp)
	movq	%rcx, -104(%rbp)
Ltmp58:
	.loc	7 400 43 prologue_end
	movq	%rdx, -96(%rbp)
	movq	%rcx, -88(%rbp)
Ltmp59:
	.file	11 "/rustc/2c8cc343237b8f7d5a3c3703e3a87f2eb2c54a74/library/core/src/ptr" "mut_ptr.rs"
	.loc	11 2037 9
	movq	%rdx, -80(%rbp)
Ltmp60:
	.loc	7 400 66
	movq	%rdi, -72(%rbp)
Ltmp61:
	.loc	11 1034 18
	movq	%rdx, -64(%rbp)
	.loc	11 1034 30 is_stmt 0
	movq	%rdi, -56(%rbp)
Ltmp62:
	.loc	11 487 18 is_stmt 1
	leaq	(%rdx,%rdi,4), %rax
	movq	%rax, -48(%rbp)
	movq	-48(%rbp), %rax
	movq	%rax, -40(%rbp)
Ltmp63:
	.loc	7 400 79
	subq	%rdi, %rsi
	movq	%rsi, -32(%rbp)
Ltmp64:
	.loc	9 766 24
	movq	%rax, -24(%rbp)
Ltmp65:
	.loc	11 60 9
	movq	%rax, -16(%rbp)
Ltmp66:
	.loc	9 766 37
	movq	%rsi, -8(%rbp)
Ltmp67:
	.loc	10 135 36
	movq	%rax, -144(%rbp)
	movq	%rsi, -136(%rbp)
	.loc	10 135 14 is_stmt 0
	movq	-144(%rbp), %rcx
	movq	-136(%rbp), %rax
	movq	%rcx, -160(%rbp)
	movq	%rax, -152(%rbp)
	movq	-160(%rbp), %rax
	movq	-152(%rbp), %rdx
Ltmp68:
	.loc	7 402 6 is_stmt 1
	addq	$160, %rsp
	popq	%rbp
	retq
Ltmp69:
Lfunc_end12:
	.cfi_endproc

	.globl	__ZN106_$LT$core..ops..range..Range$LT$usize$GT$$u20$as$u20$core..slice..index..SliceIndex$LT$$u5b$T$u5d$$GT$$GT$17get_unchecked_mut17h89576afc19573f74E
	.p2align	4, 0x90
__ZN106_$LT$core..ops..range..Range$LT$usize$GT$$u20$as$u20$core..slice..index..SliceIndex$LT$$u5b$T$u5d$$GT$$GT$17get_unchecked_mut17h89576afc19573f74E:
Lfunc_begin13:
	.loc	7 391 0
	.cfi_startproc
	pushq	%rbp
	.cfi_def_cfa_offset 16
	.cfi_offset %rbp, -16
	movq	%rsp, %rbp
	.cfi_def_cfa_register %rbp
	subq	$160, %rsp
	movq	%rdi, -128(%rbp)
	movq	%rsi, -120(%rbp)
	movq	%rdx, -112(%rbp)
	movq	%rcx, -104(%rbp)
Ltmp70:
	.loc	7 400 43 prologue_end
	movq	%rdx, -96(%rbp)
	movq	%rcx, -88(%rbp)
Ltmp71:
	.loc	11 2037 9
	movq	%rdx, -80(%rbp)
Ltmp72:
	.loc	7 400 66
	movq	%rdi, -72(%rbp)
Ltmp73:
	.loc	11 1034 18
	movq	%rdx, -64(%rbp)
	.loc	11 1034 30 is_stmt 0
	movq	%rdi, -56(%rbp)
Ltmp74:
	.loc	11 487 18 is_stmt 1
	addq	%rdi, %rdx
	movq	%rdx, -48(%rbp)
	movq	-48(%rbp), %rax
	movq	%rax, -40(%rbp)
Ltmp75:
	.loc	7 400 79
	subq	%rdi, %rsi
	movq	%rsi, -32(%rbp)
Ltmp76:
	.loc	9 766 24
	movq	%rax, -24(%rbp)
Ltmp77:
	.loc	11 60 9
	movq	%rax, -16(%rbp)
Ltmp78:
	.loc	9 766 37
	movq	%rsi, -8(%rbp)
Ltmp79:
	.loc	10 135 36
	movq	%rax, -144(%rbp)
	movq	%rsi, -136(%rbp)
	.loc	10 135 14 is_stmt 0
	movq	-144(%rbp), %rcx
	movq	-136(%rbp), %rax
	movq	%rcx, -160(%rbp)
	movq	%rax, -152(%rbp)
	movq	-160(%rbp), %rax
	movq	-152(%rbp), %rdx
Ltmp80:
	.loc	7 402 6 is_stmt 1
	addq	$160, %rsp
	popq	%rbp
	retq
Ltmp81:
Lfunc_end13:
	.cfi_endproc

	.globl	__ZN106_$LT$core..ops..range..Range$LT$usize$GT$$u20$as$u20$core..slice..index..SliceIndex$LT$$u5b$T$u5d$$GT$$GT$17get_unchecked_mut17hd8f737f723e7b698E
	.p2align	4, 0x90
__ZN106_$LT$core..ops..range..Range$LT$usize$GT$$u20$as$u20$core..slice..index..SliceIndex$LT$$u5b$T$u5d$$GT$$GT$17get_unchecked_mut17hd8f737f723e7b698E:
Lfunc_begin14:
	.loc	7 391 0
	.cfi_startproc
	pushq	%rbp
	.cfi_def_cfa_offset 16
	.cfi_offset %rbp, -16
	movq	%rsp, %rbp
	.cfi_def_cfa_register %rbp
	subq	$160, %rsp
	movq	%rdi, -128(%rbp)
	movq	%rsi, -120(%rbp)
	movq	%rdx, -112(%rbp)
	movq	%rcx, -104(%rbp)
Ltmp82:
	.loc	7 400 43 prologue_end
	movq	%rdx, -96(%rbp)
	movq	%rcx, -88(%rbp)
Ltmp83:
	.loc	11 2037 9
	movq	%rdx, -80(%rbp)
Ltmp84:
	.loc	7 400 66
	movq	%rdi, -72(%rbp)
Ltmp85:
	.loc	11 1034 18
	movq	%rdx, -64(%rbp)
	.loc	11 1034 30 is_stmt 0
	movq	%rdi, -56(%rbp)
Ltmp86:
	.loc	11 487 18 is_stmt 1
	leaq	(%rdx,%rdi,2), %rax
	movq	%rax, -48(%rbp)
	movq	-48(%rbp), %rax
	movq	%rax, -40(%rbp)
Ltmp87:
	.loc	7 400 79
	subq	%rdi, %rsi
	movq	%rsi, -32(%rbp)
Ltmp88:
	.loc	9 766 24
	movq	%rax, -24(%rbp)
Ltmp89:
	.loc	11 60 9
	movq	%rax, -16(%rbp)
Ltmp90:
	.loc	9 766 37
	movq	%rsi, -8(%rbp)
Ltmp91:
	.loc	10 135 36
	movq	%rax, -144(%rbp)
	movq	%rsi, -136(%rbp)
	.loc	10 135 14 is_stmt 0
	movq	-144(%rbp), %rcx
	movq	-136(%rbp), %rax
	movq	%rcx, -160(%rbp)
	movq	%rax, -152(%rbp)
	movq	-160(%rbp), %rax
	movq	-152(%rbp), %rdx
Ltmp92:
	.loc	7 402 6 is_stmt 1
	addq	$160, %rsp
	popq	%rbp
	retq
Ltmp93:
Lfunc_end14:
	.cfi_endproc

	.globl	__ZN106_$LT$core..ops..range..Range$LT$usize$GT$$u20$as$u20$core..slice..index..SliceIndex$LT$$u5b$T$u5d$$GT$$GT$5index17h5c28212344dbe414E
	.p2align	4, 0x90
__ZN106_$LT$core..ops..range..Range$LT$usize$GT$$u20$as$u20$core..slice..index..SliceIndex$LT$$u5b$T$u5d$$GT$$GT$5index17h5c28212344dbe414E:
Lfunc_begin15:
	.loc	7 405 0
	.cfi_startproc
	pushq	%rbp
	.cfi_def_cfa_offset 16
	.cfi_offset %rbp, -16
	movq	%rsp, %rbp
	.cfi_def_cfa_register %rbp
	subq	$80, %rsp
	movq	%rdi, -72(%rbp)
	movq	%rsi, -64(%rbp)
	movq	%rdx, -56(%rbp)
	movq	%rcx, -48(%rbp)
	movq	%r8, -40(%rbp)
	movq	%rdi, -32(%rbp)
	movq	%rsi, -24(%rbp)
	movq	%rdx, -16(%rbp)
	movq	%rcx, -8(%rbp)
Ltmp94:
	.loc	7 406 12 prologue_end
	cmpq	%rsi, %rdi
	ja	LBB15_2
	.loc	7 0 12 is_stmt 0
	movq	-64(%rbp), %rax
	movq	-48(%rbp), %rcx
	.loc	7 408 19 is_stmt 1
	cmpq	%rcx, %rax
	ja	LBB15_4
	jmp	LBB15_3
LBB15_2:
	.loc	7 0 19 is_stmt 0
	movq	-40(%rbp), %rdx
	movq	-64(%rbp), %rsi
	movq	-72(%rbp), %rdi
	.loc	7 407 13 is_stmt 1
	callq	__ZN4core5slice5index22slice_index_order_fail17h0d8f800a07d5f26eE
LBB15_3:
	.loc	7 0 13 is_stmt 0
	movq	-48(%rbp), %rcx
	movq	-56(%rbp), %rdx
	movq	-64(%rbp), %rsi
	movq	-72(%rbp), %rdi
	.loc	7 412 20 is_stmt 1
	callq	__ZN106_$LT$core..ops..range..Range$LT$usize$GT$$u20$as$u20$core..slice..index..SliceIndex$LT$$u5b$T$u5d$$GT$$GT$13get_unchecked17hec238f8a18d61872E
	.loc	7 413 6
	addq	$80, %rsp
	popq	%rbp
	retq
LBB15_4:
	.loc	7 0 6 is_stmt 0
	movq	-40(%rbp), %rdx
	movq	-48(%rbp), %rsi
	movq	-64(%rbp), %rdi
	.loc	7 409 13 is_stmt 1
	callq	__ZN4core5slice5index24slice_end_index_len_fail17hc921cb2f1513645aE
Ltmp95:
Lfunc_end15:
	.cfi_endproc

	.globl	__ZN106_$LT$core..ops..range..Range$LT$usize$GT$$u20$as$u20$core..slice..index..SliceIndex$LT$$u5b$T$u5d$$GT$$GT$5index17h7299a749bb21438cE
	.p2align	4, 0x90
__ZN106_$LT$core..ops..range..Range$LT$usize$GT$$u20$as$u20$core..slice..index..SliceIndex$LT$$u5b$T$u5d$$GT$$GT$5index17h7299a749bb21438cE:
Lfunc_begin16:
	.loc	7 405 0
	.cfi_startproc
	pushq	%rbp
	.cfi_def_cfa_offset 16
	.cfi_offset %rbp, -16
	movq	%rsp, %rbp
	.cfi_def_cfa_register %rbp
	subq	$80, %rsp
	movq	%rdi, -72(%rbp)
	movq	%rsi, -64(%rbp)
	movq	%rdx, -56(%rbp)
	movq	%rcx, -48(%rbp)
	movq	%r8, -40(%rbp)
	movq	%rdi, -32(%rbp)
	movq	%rsi, -24(%rbp)
	movq	%rdx, -16(%rbp)
	movq	%rcx, -8(%rbp)
Ltmp96:
	.loc	7 406 12 prologue_end
	cmpq	%rsi, %rdi
	ja	LBB16_2
	.loc	7 0 12 is_stmt 0
	movq	-64(%rbp), %rax
	movq	-48(%rbp), %rcx
	.loc	7 408 19 is_stmt 1
	cmpq	%rcx, %rax
	ja	LBB16_4
	jmp	LBB16_3
LBB16_2:
	.loc	7 0 19 is_stmt 0
	movq	-40(%rbp), %rdx
	movq	-64(%rbp), %rsi
	movq	-72(%rbp), %rdi
	.loc	7 407 13 is_stmt 1
	callq	__ZN4core5slice5index22slice_index_order_fail17h0d8f800a07d5f26eE
LBB16_3:
	.loc	7 0 13 is_stmt 0
	movq	-48(%rbp), %rcx
	movq	-56(%rbp), %rdx
	movq	-64(%rbp), %rsi
	movq	-72(%rbp), %rdi
	.loc	7 412 20 is_stmt 1
	callq	__ZN106_$LT$core..ops..range..Range$LT$usize$GT$$u20$as$u20$core..slice..index..SliceIndex$LT$$u5b$T$u5d$$GT$$GT$13get_unchecked17h88a73d0313a03fc0E
	.loc	7 413 6
	addq	$80, %rsp
	popq	%rbp
	retq
LBB16_4:
	.loc	7 0 6 is_stmt 0
	movq	-40(%rbp), %rdx
	movq	-48(%rbp), %rsi
	movq	-64(%rbp), %rdi
	.loc	7 409 13 is_stmt 1
	callq	__ZN4core5slice5index24slice_end_index_len_fail17hc921cb2f1513645aE
Ltmp97:
Lfunc_end16:
	.cfi_endproc

	.globl	__ZN106_$LT$core..ops..range..Range$LT$usize$GT$$u20$as$u20$core..slice..index..SliceIndex$LT$$u5b$T$u5d$$GT$$GT$5index17hd21c301b4d997394E
	.p2align	4, 0x90
__ZN106_$LT$core..ops..range..Range$LT$usize$GT$$u20$as$u20$core..slice..index..SliceIndex$LT$$u5b$T$u5d$$GT$$GT$5index17hd21c301b4d997394E:
Lfunc_begin17:
	.loc	7 405 0
	.cfi_startproc
	pushq	%rbp
	.cfi_def_cfa_offset 16
	.cfi_offset %rbp, -16
	movq	%rsp, %rbp
	.cfi_def_cfa_register %rbp
	subq	$80, %rsp
	movq	%rdi, -72(%rbp)
	movq	%rsi, -64(%rbp)
	movq	%rdx, -56(%rbp)
	movq	%rcx, -48(%rbp)
	movq	%r8, -40(%rbp)
	movq	%rdi, -32(%rbp)
	movq	%rsi, -24(%rbp)
	movq	%rdx, -16(%rbp)
	movq	%rcx, -8(%rbp)
Ltmp98:
	.loc	7 406 12 prologue_end
	cmpq	%rsi, %rdi
	ja	LBB17_2
	.loc	7 0 12 is_stmt 0
	movq	-64(%rbp), %rax
	movq	-48(%rbp), %rcx
	.loc	7 408 19 is_stmt 1
	cmpq	%rcx, %rax
	ja	LBB17_4
	jmp	LBB17_3
LBB17_2:
	.loc	7 0 19 is_stmt 0
	movq	-40(%rbp), %rdx
	movq	-64(%rbp), %rsi
	movq	-72(%rbp), %rdi
	.loc	7 407 13 is_stmt 1
	callq	__ZN4core5slice5index22slice_index_order_fail17h0d8f800a07d5f26eE
LBB17_3:
	.loc	7 0 13 is_stmt 0
	movq	-48(%rbp), %rcx
	movq	-56(%rbp), %rdx
	movq	-64(%rbp), %rsi
	movq	-72(%rbp), %rdi
	.loc	7 412 20 is_stmt 1
	callq	__ZN106_$LT$core..ops..range..Range$LT$usize$GT$$u20$as$u20$core..slice..index..SliceIndex$LT$$u5b$T$u5d$$GT$$GT$13get_unchecked17hc70b4008c7a719a3E
	.loc	7 413 6
	addq	$80, %rsp
	popq	%rbp
	retq
LBB17_4:
	.loc	7 0 6 is_stmt 0
	movq	-40(%rbp), %rdx
	movq	-48(%rbp), %rsi
	movq	-64(%rbp), %rdi
	.loc	7 409 13 is_stmt 1
	callq	__ZN4core5slice5index24slice_end_index_len_fail17hc921cb2f1513645aE
Ltmp99:
Lfunc_end17:
	.cfi_endproc

	.globl	__ZN106_$LT$core..ops..range..Range$LT$usize$GT$$u20$as$u20$core..slice..index..SliceIndex$LT$$u5b$T$u5d$$GT$$GT$7get_mut17h01c81c33adc392d7E
	.p2align	4, 0x90
__ZN106_$LT$core..ops..range..Range$LT$usize$GT$$u20$as$u20$core..slice..index..SliceIndex$LT$$u5b$T$u5d$$GT$$GT$7get_mut17h01c81c33adc392d7E:
Lfunc_begin18:
	.loc	7 363 0
	.cfi_startproc
	pushq	%rbp
	.cfi_def_cfa_offset 16
	.cfi_offset %rbp, -16
	movq	%rsp, %rbp
	.cfi_def_cfa_register %rbp
	subq	$96, %rsp
	movq	%rdi, -88(%rbp)
	movq	%rsi, -80(%rbp)
	movq	%rdx, -72(%rbp)
	movq	%rcx, -64(%rbp)
	movq	%rdi, -32(%rbp)
	movq	%rsi, -24(%rbp)
	movq	%rdx, -16(%rbp)
	movq	%rcx, -8(%rbp)
Ltmp100:
	.loc	7 364 12 prologue_end
	cmpq	%rsi, %rdi
	ja	LBB18_2
	.loc	7 0 12 is_stmt 0
	movq	-80(%rbp), %rax
	movq	-64(%rbp), %rcx
	.loc	7 364 37
	cmpq	%rcx, %rax
	seta	%al
	.loc	7 364 12
	andb	$1, %al
	movb	%al, -33(%rbp)
	jmp	LBB18_3
LBB18_2:
	movb	$1, -33(%rbp)
LBB18_3:
	testb	$1, -33(%rbp)
	jne	LBB18_5
	.loc	7 0 12
	movq	-64(%rbp), %rcx
	movq	-72(%rbp), %rdx
	movq	-80(%rbp), %rsi
	movq	-88(%rbp), %rdi
	.loc	7 368 33 is_stmt 1
	callq	__ZN106_$LT$core..ops..range..Range$LT$usize$GT$$u20$as$u20$core..slice..index..SliceIndex$LT$$u5b$T$u5d$$GT$$GT$17get_unchecked_mut17h89576afc19573f74E
	.loc	7 368 22 is_stmt 0
	movq	%rax, -56(%rbp)
	movq	%rdx, -48(%rbp)
	.loc	7 364 9 is_stmt 1
	jmp	LBB18_6
LBB18_5:
	.loc	7 365 13
	movq	$0, -56(%rbp)
LBB18_6:
	.loc	7 370 6
	movq	-56(%rbp), %rax
	movq	-48(%rbp), %rdx
	addq	$96, %rsp
	popq	%rbp
	retq
Ltmp101:
Lfunc_end18:
	.cfi_endproc

	.globl	__ZN106_$LT$core..ops..range..Range$LT$usize$GT$$u20$as$u20$core..slice..index..SliceIndex$LT$$u5b$T$u5d$$GT$$GT$9index_mut17h2502c32a24505e84E
	.p2align	4, 0x90
__ZN106_$LT$core..ops..range..Range$LT$usize$GT$$u20$as$u20$core..slice..index..SliceIndex$LT$$u5b$T$u5d$$GT$$GT$9index_mut17h2502c32a24505e84E:
Lfunc_begin19:
	.loc	7 416 0
	.cfi_startproc
	pushq	%rbp
	.cfi_def_cfa_offset 16
	.cfi_offset %rbp, -16
	movq	%rsp, %rbp
	.cfi_def_cfa_register %rbp
	subq	$80, %rsp
	movq	%rdi, -72(%rbp)
	movq	%rsi, -64(%rbp)
	movq	%rdx, -56(%rbp)
	movq	%rcx, -48(%rbp)
	movq	%r8, -40(%rbp)
	movq	%rdi, -32(%rbp)
	movq	%rsi, -24(%rbp)
	movq	%rdx, -16(%rbp)
	movq	%rcx, -8(%rbp)
Ltmp102:
	.loc	7 417 12 prologue_end
	cmpq	%rsi, %rdi
	ja	LBB19_2
	.loc	7 0 12 is_stmt 0
	movq	-64(%rbp), %rax
	movq	-48(%rbp), %rcx
	.loc	7 419 19 is_stmt 1
	cmpq	%rcx, %rax
	ja	LBB19_4
	jmp	LBB19_3
LBB19_2:
	.loc	7 0 19 is_stmt 0
	movq	-40(%rbp), %rdx
	movq	-64(%rbp), %rsi
	movq	-72(%rbp), %rdi
	.loc	7 418 13 is_stmt 1
	callq	__ZN4core5slice5index22slice_index_order_fail17h0d8f800a07d5f26eE
LBB19_3:
	.loc	7 0 13 is_stmt 0
	movq	-48(%rbp), %rcx
	movq	-56(%rbp), %rdx
	movq	-64(%rbp), %rsi
	movq	-72(%rbp), %rdi
	.loc	7 423 24 is_stmt 1
	callq	__ZN106_$LT$core..ops..range..Range$LT$usize$GT$$u20$as$u20$core..slice..index..SliceIndex$LT$$u5b$T$u5d$$GT$$GT$17get_unchecked_mut17h89576afc19573f74E
	.loc	7 424 6
	addq	$80, %rsp
	popq	%rbp
	retq
LBB19_4:
	.loc	7 0 6 is_stmt 0
	movq	-40(%rbp), %rdx
	movq	-48(%rbp), %rsi
	movq	-64(%rbp), %rdi
	.loc	7 420 13 is_stmt 1
	callq	__ZN4core5slice5index24slice_end_index_len_fail17hc921cb2f1513645aE
Ltmp103:
Lfunc_end19:
	.cfi_endproc

	.globl	__ZN106_$LT$core..ops..range..Range$LT$usize$GT$$u20$as$u20$core..slice..index..SliceIndex$LT$$u5b$T$u5d$$GT$$GT$9index_mut17h47f541c86c8979acE
	.p2align	4, 0x90
__ZN106_$LT$core..ops..range..Range$LT$usize$GT$$u20$as$u20$core..slice..index..SliceIndex$LT$$u5b$T$u5d$$GT$$GT$9index_mut17h47f541c86c8979acE:
Lfunc_begin20:
	.loc	7 416 0
	.cfi_startproc
	pushq	%rbp
	.cfi_def_cfa_offset 16
	.cfi_offset %rbp, -16
	movq	%rsp, %rbp
	.cfi_def_cfa_register %rbp
	subq	$80, %rsp
	movq	%rdi, -72(%rbp)
	movq	%rsi, -64(%rbp)
	movq	%rdx, -56(%rbp)
	movq	%rcx, -48(%rbp)
	movq	%r8, -40(%rbp)
	movq	%rdi, -32(%rbp)
	movq	%rsi, -24(%rbp)
	movq	%rdx, -16(%rbp)
	movq	%rcx, -8(%rbp)
Ltmp104:
	.loc	7 417 12 prologue_end
	cmpq	%rsi, %rdi
	ja	LBB20_2
	.loc	7 0 12 is_stmt 0
	movq	-64(%rbp), %rax
	movq	-48(%rbp), %rcx
	.loc	7 419 19 is_stmt 1
	cmpq	%rcx, %rax
	ja	LBB20_4
	jmp	LBB20_3
LBB20_2:
	.loc	7 0 19 is_stmt 0
	movq	-40(%rbp), %rdx
	movq	-64(%rbp), %rsi
	movq	-72(%rbp), %rdi
	.loc	7 418 13 is_stmt 1
	callq	__ZN4core5slice5index22slice_index_order_fail17h0d8f800a07d5f26eE
LBB20_3:
	.loc	7 0 13 is_stmt 0
	movq	-48(%rbp), %rcx
	movq	-56(%rbp), %rdx
	movq	-64(%rbp), %rsi
	movq	-72(%rbp), %rdi
	.loc	7 423 24 is_stmt 1
	callq	__ZN106_$LT$core..ops..range..Range$LT$usize$GT$$u20$as$u20$core..slice..index..SliceIndex$LT$$u5b$T$u5d$$GT$$GT$17get_unchecked_mut17hd8f737f723e7b698E
	.loc	7 424 6
	addq	$80, %rsp
	popq	%rbp
	retq
LBB20_4:
	.loc	7 0 6 is_stmt 0
	movq	-40(%rbp), %rdx
	movq	-48(%rbp), %rsi
	movq	-64(%rbp), %rdi
	.loc	7 420 13 is_stmt 1
	callq	__ZN4core5slice5index24slice_end_index_len_fail17hc921cb2f1513645aE
Ltmp105:
Lfunc_end20:
	.cfi_endproc

	.globl	__ZN106_$LT$core..ops..range..Range$LT$usize$GT$$u20$as$u20$core..slice..index..SliceIndex$LT$$u5b$T$u5d$$GT$$GT$9index_mut17hbfbcff57e43740e9E
	.p2align	4, 0x90
__ZN106_$LT$core..ops..range..Range$LT$usize$GT$$u20$as$u20$core..slice..index..SliceIndex$LT$$u5b$T$u5d$$GT$$GT$9index_mut17hbfbcff57e43740e9E:
Lfunc_begin21:
	.loc	7 416 0
	.cfi_startproc
	pushq	%rbp
	.cfi_def_cfa_offset 16
	.cfi_offset %rbp, -16
	movq	%rsp, %rbp
	.cfi_def_cfa_register %rbp
	subq	$80, %rsp
	movq	%rdi, -72(%rbp)
	movq	%rsi, -64(%rbp)
	movq	%rdx, -56(%rbp)
	movq	%rcx, -48(%rbp)
	movq	%r8, -40(%rbp)
	movq	%rdi, -32(%rbp)
	movq	%rsi, -24(%rbp)
	movq	%rdx, -16(%rbp)
	movq	%rcx, -8(%rbp)
Ltmp106:
	.loc	7 417 12 prologue_end
	cmpq	%rsi, %rdi
	ja	LBB21_2
	.loc	7 0 12 is_stmt 0
	movq	-64(%rbp), %rax
	movq	-48(%rbp), %rcx
	.loc	7 419 19 is_stmt 1
	cmpq	%rcx, %rax
	ja	LBB21_4
	jmp	LBB21_3
LBB21_2:
	.loc	7 0 19 is_stmt 0
	movq	-40(%rbp), %rdx
	movq	-64(%rbp), %rsi
	movq	-72(%rbp), %rdi
	.loc	7 418 13 is_stmt 1
	callq	__ZN4core5slice5index22slice_index_order_fail17h0d8f800a07d5f26eE
LBB21_3:
	.loc	7 0 13 is_stmt 0
	movq	-48(%rbp), %rcx
	movq	-56(%rbp), %rdx
	movq	-64(%rbp), %rsi
	movq	-72(%rbp), %rdi
	.loc	7 423 24 is_stmt 1
	callq	__ZN106_$LT$core..ops..range..Range$LT$usize$GT$$u20$as$u20$core..slice..index..SliceIndex$LT$$u5b$T$u5d$$GT$$GT$17get_unchecked_mut17h1c023c535cb4bb21E
	.loc	7 424 6
	addq	$80, %rsp
	popq	%rbp
	retq
LBB21_4:
	.loc	7 0 6 is_stmt 0
	movq	-40(%rbp), %rdx
	movq	-48(%rbp), %rsi
	movq	-64(%rbp), %rdi
	.loc	7 420 13 is_stmt 1
	callq	__ZN4core5slice5index24slice_end_index_len_fail17hc921cb2f1513645aE
Ltmp107:
Lfunc_end21:
	.cfi_endproc

	.globl	__ZN106_$LT$core..slice..iter..Iter$LT$T$GT$$u20$as$u20$core..iter..traits..double_ended..DoubleEndedIterator$GT$9next_back17h03769f52e6f951f9E
	.p2align	4, 0x90
__ZN106_$LT$core..slice..iter..Iter$LT$T$GT$$u20$as$u20$core..iter..traits..double_ended..DoubleEndedIterator$GT$9next_back17h03769f52e6f951f9E:
Lfunc_begin22:
	.file	12 "/rustc/2c8cc343237b8f7d5a3c3703e3a87f2eb2c54a74/library/core/src/slice/iter" "macros.rs"
	.loc	12 339 0
	.cfi_startproc
	pushq	%rbp
	.cfi_def_cfa_offset 16
	.cfi_offset %rbp, -16
	movq	%rsp, %rbp
	.cfi_def_cfa_register %rbp
	subq	$264, %rsp
	movq	%rdi, -264(%rbp)
	movq	%rdi, -208(%rbp)
Ltmp108:
	.loc	12 347 29 prologue_end
	movq	8(%rdi), %rax
	movq	%rax, -192(%rbp)
Ltmp109:
	.file	13 "/rustc/2c8cc343237b8f7d5a3c3703e3a87f2eb2c54a74/library/core/src/ptr" "non_null.rs"
	.loc	13 326 9
	movq	%rax, -184(%rbp)
Ltmp110:
	.loc	11 52 36
	movq	%rax, -240(%rbp)
	.loc	11 52 18 is_stmt 0
	movq	-240(%rbp), %rax
	movq	%rax, -176(%rbp)
Ltmp111:
	.loc	11 38 13 is_stmt 1
	movq	%rax, -168(%rbp)
Ltmp112:
	.loc	11 215 33
	movq	%rax, -160(%rbp)
	.loc	11 215 18 is_stmt 0
	movq	%rax, -152(%rbp)
Ltmp113:
	.loc	12 348 24 is_stmt 1
	movb	$1, %al
	testb	$1, %al
	jne	LBB22_2
LBB22_1:
	.loc	12 0 24 is_stmt 0
	movq	-264(%rbp), %rcx
	.loc	12 351 24 is_stmt 1
	movq	8(%rcx), %rax
	movq	%rax, -104(%rbp)
	cmpq	(%rcx), %rax
	je	LBB22_4
	jmp	LBB22_3
LBB22_2:
	.loc	12 0 24 is_stmt 0
	movq	-264(%rbp), %rax
	.loc	12 349 33 is_stmt 1
	movq	(%rax), %rax
	movq	%rax, -144(%rbp)
Ltmp114:
	.loc	8 53 36
	movq	%rax, -232(%rbp)
	.loc	8 53 18 is_stmt 0
	movq	-232(%rbp), %rax
	movq	%rax, -136(%rbp)
Ltmp115:
	.loc	8 39 13 is_stmt 1
	movq	%rax, -128(%rbp)
Ltmp116:
	.loc	8 209 33
	movq	%rax, -120(%rbp)
	.loc	8 209 18 is_stmt 0
	movq	%rax, -112(%rbp)
Ltmp117:
	.loc	12 348 21 is_stmt 1
	jmp	LBB22_1
LBB22_3:
	.loc	12 0 21 is_stmt 0
	movq	-264(%rbp), %rax
	.loc	12 354 30 is_stmt 1
	movq	%rax, -96(%rbp)
Ltmp118:
	.loc	12 93 20
	xorl	%eax, %eax
	testb	$1, %al
	jne	LBB22_7
	jmp	LBB22_6
Ltmp119:
LBB22_4:
	.loc	12 352 25
	movq	$0, -256(%rbp)
LBB22_5:
	.loc	12 357 14
	movq	-256(%rbp), %rax
	addq	$264, %rsp
	popq	%rbp
	retq
LBB22_6:
	.loc	12 0 14 is_stmt 0
	movq	-264(%rbp), %rax
Ltmp120:
	.loc	12 100 41 is_stmt 1
	movq	(%rax), %rcx
	movq	%rcx, -24(%rbp)
Ltmp121:
	.loc	8 1017 18
	movq	%rcx, -16(%rbp)
Ltmp122:
	.loc	8 473 18
	addq	$-4, %rcx
	movq	%rcx, -8(%rbp)
	movq	-8(%rbp), %rcx
Ltmp123:
	.loc	12 100 21
	movq	%rcx, (%rax)
	.loc	12 101 21
	movq	(%rax), %rax
	movq	%rax, -248(%rbp)
	.loc	12 93 17
	jmp	LBB22_8
LBB22_7:
	.loc	12 0 17 is_stmt 0
	movq	-264(%rbp), %rax
	.loc	12 57 29 is_stmt 1
	movq	(%rax), %rcx
	movq	%rcx, -88(%rbp)
Ltmp124:
	.loc	8 1198 9
	movq	%rcx, -80(%rbp)
Ltmp125:
	.loc	8 61 9
	movq	%rcx, -72(%rbp)
Ltmp126:
	.loc	8 1180 9
	movq	%rcx, -64(%rbp)
Ltmp127:
	.loc	8 555 18
	addq	$-1, %rcx
	movq	%rcx, -56(%rbp)
	movq	-56(%rbp), %rcx
	movq	%rcx, -48(%rbp)
Ltmp128:
	.loc	8 100 29
	movq	%rcx, -40(%rbp)
Ltmp129:
	.loc	10 118 36
	movq	%rcx, -216(%rbp)
	.loc	10 118 14 is_stmt 0
	movq	-216(%rbp), %rcx
	movq	%rcx, -224(%rbp)
	movq	-224(%rbp), %rcx
Ltmp130:
	.loc	12 57 17 is_stmt 1
	movq	%rcx, (%rax)
	.loc	12 95 21
	movq	8(%rax), %rax
	movq	%rax, -32(%rbp)
	movq	%rax, -248(%rbp)
Ltmp131:
LBB22_8:
	.loc	12 354 30
	movq	-248(%rbp), %rax
	.loc	12 354 25 is_stmt 0
	movq	%rax, -256(%rbp)
	.loc	12 351 21 is_stmt 1
	jmp	LBB22_5
Ltmp132:
Lfunc_end22:
	.cfi_endproc

	.globl	__ZN106_$LT$core..slice..iter..Iter$LT$T$GT$$u20$as$u20$core..iter..traits..double_ended..DoubleEndedIterator$GT$9next_back17h53933217014480dfE
	.p2align	4, 0x90
__ZN106_$LT$core..slice..iter..Iter$LT$T$GT$$u20$as$u20$core..iter..traits..double_ended..DoubleEndedIterator$GT$9next_back17h53933217014480dfE:
Lfunc_begin23:
	.loc	12 339 0
	.cfi_startproc
	pushq	%rbp
	.cfi_def_cfa_offset 16
	.cfi_offset %rbp, -16
	movq	%rsp, %rbp
	.cfi_def_cfa_register %rbp
	subq	$264, %rsp
	movq	%rdi, -264(%rbp)
	movq	%rdi, -208(%rbp)
Ltmp133:
	.loc	12 347 29 prologue_end
	movq	8(%rdi), %rax
	movq	%rax, -192(%rbp)
Ltmp134:
	.loc	13 326 9
	movq	%rax, -184(%rbp)
Ltmp135:
	.loc	11 52 36
	movq	%rax, -240(%rbp)
	.loc	11 52 18 is_stmt 0
	movq	-240(%rbp), %rax
	movq	%rax, -176(%rbp)
Ltmp136:
	.loc	11 38 13 is_stmt 1
	movq	%rax, -168(%rbp)
Ltmp137:
	.loc	11 215 33
	movq	%rax, -160(%rbp)
	.loc	11 215 18 is_stmt 0
	movq	%rax, -152(%rbp)
Ltmp138:
	.loc	12 348 24 is_stmt 1
	movb	$1, %al
	testb	$1, %al
	jne	LBB23_2
LBB23_1:
	.loc	12 0 24 is_stmt 0
	movq	-264(%rbp), %rcx
	.loc	12 351 24 is_stmt 1
	movq	8(%rcx), %rax
	movq	%rax, -104(%rbp)
	cmpq	(%rcx), %rax
	je	LBB23_4
	jmp	LBB23_3
LBB23_2:
	.loc	12 0 24 is_stmt 0
	movq	-264(%rbp), %rax
	.loc	12 349 33 is_stmt 1
	movq	(%rax), %rax
	movq	%rax, -144(%rbp)
Ltmp139:
	.loc	8 53 36
	movq	%rax, -232(%rbp)
	.loc	8 53 18 is_stmt 0
	movq	-232(%rbp), %rax
	movq	%rax, -136(%rbp)
Ltmp140:
	.loc	8 39 13 is_stmt 1
	movq	%rax, -128(%rbp)
Ltmp141:
	.loc	8 209 33
	movq	%rax, -120(%rbp)
	.loc	8 209 18 is_stmt 0
	movq	%rax, -112(%rbp)
Ltmp142:
	.loc	12 348 21 is_stmt 1
	jmp	LBB23_1
LBB23_3:
	.loc	12 0 21 is_stmt 0
	movq	-264(%rbp), %rax
	.loc	12 354 30 is_stmt 1
	movq	%rax, -96(%rbp)
Ltmp143:
	.loc	12 93 20
	xorl	%eax, %eax
	testb	$1, %al
	jne	LBB23_7
	jmp	LBB23_6
Ltmp144:
LBB23_4:
	.loc	12 352 25
	movq	$0, -256(%rbp)
LBB23_5:
	.loc	12 357 14
	movq	-256(%rbp), %rax
	addq	$264, %rsp
	popq	%rbp
	retq
LBB23_6:
	.loc	12 0 14 is_stmt 0
	movq	-264(%rbp), %rax
Ltmp145:
	.loc	12 100 41 is_stmt 1
	movq	(%rax), %rcx
	movq	%rcx, -24(%rbp)
Ltmp146:
	.loc	8 1017 18
	movq	%rcx, -16(%rbp)
Ltmp147:
	.loc	8 473 18
	addq	$-1, %rcx
	movq	%rcx, -8(%rbp)
	movq	-8(%rbp), %rcx
Ltmp148:
	.loc	12 100 21
	movq	%rcx, (%rax)
	.loc	12 101 21
	movq	(%rax), %rax
	movq	%rax, -248(%rbp)
	.loc	12 93 17
	jmp	LBB23_8
LBB23_7:
	.loc	12 0 17 is_stmt 0
	movq	-264(%rbp), %rax
	.loc	12 57 29 is_stmt 1
	movq	(%rax), %rcx
	movq	%rcx, -88(%rbp)
Ltmp149:
	.loc	8 1198 9
	movq	%rcx, -80(%rbp)
Ltmp150:
	.loc	8 61 9
	movq	%rcx, -72(%rbp)
Ltmp151:
	.loc	8 1180 9
	movq	%rcx, -64(%rbp)
Ltmp152:
	.loc	8 555 18
	addq	$-1, %rcx
	movq	%rcx, -56(%rbp)
	movq	-56(%rbp), %rcx
	movq	%rcx, -48(%rbp)
Ltmp153:
	.loc	8 100 29
	movq	%rcx, -40(%rbp)
Ltmp154:
	.loc	10 118 36
	movq	%rcx, -216(%rbp)
	.loc	10 118 14 is_stmt 0
	movq	-216(%rbp), %rcx
	movq	%rcx, -224(%rbp)
	movq	-224(%rbp), %rcx
Ltmp155:
	.loc	12 57 17 is_stmt 1
	movq	%rcx, (%rax)
	.loc	12 95 21
	movq	8(%rax), %rax
	movq	%rax, -32(%rbp)
	movq	%rax, -248(%rbp)
Ltmp156:
LBB23_8:
	.loc	12 354 30
	movq	-248(%rbp), %rax
	.loc	12 354 25 is_stmt 0
	movq	%rax, -256(%rbp)
	.loc	12 351 21 is_stmt 1
	jmp	LBB23_5
Ltmp157:
Lfunc_end23:
	.cfi_endproc

	.globl	__ZN107_$LT$core..ops..range..RangeInclusive$LT$T$GT$$u20$as$u20$core..iter..range..RangeInclusiveIteratorImpl$GT$9spec_next17h81dcd0de006271e8E
	.p2align	4, 0x90
__ZN107_$LT$core..ops..range..RangeInclusive$LT$T$GT$$u20$as$u20$core..iter..range..RangeInclusiveIteratorImpl$GT$9spec_next17h81dcd0de006271e8E:
Lfunc_begin24:
	.file	14 "/rustc/2c8cc343237b8f7d5a3c3703e3a87f2eb2c54a74/library/core/src/iter" "range.rs"
	.loc	14 1004 0
	.cfi_startproc
	pushq	%rbp
	.cfi_def_cfa_offset 16
	.cfi_offset %rbp, -16
	movq	%rsp, %rbp
	.cfi_def_cfa_register %rbp
	subq	$96, %rsp
	movq	%rdi, -88(%rbp)
	movq	%rdi, -48(%rbp)
Ltmp158:
	.loc	14 1005 12 prologue_end
	movq	%rdi, -40(%rbp)
Ltmp159:
	.file	15 "/rustc/2c8cc343237b8f7d5a3c3703e3a87f2eb2c54a74/library/core/src/ops" "range.rs"
	.loc	15 540 9
	testb	$1, 16(%rdi)
	jne	LBB24_2
	.loc	15 0 9 is_stmt 0
	movq	-88(%rbp), %rdi
	.loc	15 540 43
	movq	%rdi, %rsi
	addq	$8, %rsi
	.loc	15 540 28
	callq	__ZN4core3cmp5impls57_$LT$impl$u20$core..cmp..PartialOrd$u20$for$u20$usize$GT$2le17h35f50119ce247994E
	.loc	15 540 27
	xorb	$-1, %al
	.loc	15 540 9
	andb	$1, %al
	movb	%al, -57(%rbp)
	jmp	LBB24_3
LBB24_2:
	movb	$1, -57(%rbp)
Ltmp160:
LBB24_3:
	.loc	14 1005 12 is_stmt 1
	testb	$1, -57(%rbp)
	jne	LBB24_5
	.loc	14 0 12 is_stmt 0
	movq	-88(%rbp), %rdi
	.loc	14 1008 41 is_stmt 1
	movq	%rdi, %rsi
	addq	$8, %rsi
	.loc	14 1008 28 is_stmt 0
	callq	__ZN4core3cmp5impls57_$LT$impl$u20$core..cmp..PartialOrd$u20$for$u20$usize$GT$2lt17h9c49090bf70437dfE
	movb	%al, %cl
	andb	$1, %cl
	movb	%cl, -25(%rbp)
Ltmp161:
	.loc	14 1009 17 is_stmt 1
	testb	$1, %al
	jne	LBB24_8
	jmp	LBB24_7
Ltmp162:
LBB24_5:
	.loc	14 1006 20
	movq	$0, -80(%rbp)
LBB24_6:
	.loc	14 1017 6
	movq	-80(%rbp), %rax
	movq	-72(%rbp), %rdx
	addq	$96, %rsp
	popq	%rbp
	retq
LBB24_7:
	.loc	14 0 6 is_stmt 0
	movq	-88(%rbp), %rax
Ltmp163:
	.loc	14 1014 13 is_stmt 1
	movb	$1, 16(%rax)
	movq	%rax, -16(%rbp)
Ltmp164:
	.file	16 "/rustc/2c8cc343237b8f7d5a3c3703e3a87f2eb2c54a74/library/core/src" "clone.rs"
	.loc	16 189 25
	movq	(%rax), %rax
Ltmp165:
	.loc	14 1015 13
	movq	%rax, -56(%rbp)
	.loc	14 1009 14
	jmp	LBB24_9
LBB24_8:
	.loc	14 0 14 is_stmt 0
	movq	-88(%rbp), %rax
	movq	%rax, -8(%rbp)
Ltmp166:
	.loc	16 189 25 is_stmt 1
	movq	(%rax), %rdi
Ltmp167:
	.loc	14 1011 30
	movl	$1, %esi
	callq	__ZN49_$LT$usize$u20$as$u20$core..iter..range..Step$GT$17forward_unchecked17hc3d72e99b6c1c85cE
	movq	-88(%rbp), %rdi
	movq	%rax, %rsi
	movq	%rsi, -24(%rbp)
Ltmp168:
	.loc	14 1012 13
	callq	__ZN4core3mem7replace17hb035d6a162b1e384E
	movq	%rax, -56(%rbp)
Ltmp169:
LBB24_9:
	.loc	14 1009 9
	movq	-56(%rbp), %rax
	movq	%rax, -72(%rbp)
	movq	$1, -80(%rbp)
Ltmp170:
	.loc	14 1017 6
	jmp	LBB24_6
Ltmp171:
Lfunc_end24:
	.cfi_endproc

	.globl	__ZN108_$LT$core..ops..range..RangeTo$LT$usize$GT$$u20$as$u20$core..slice..index..SliceIndex$LT$$u5b$T$u5d$$GT$$GT$5index17h59f0d4bf57fbfa3fE
	.p2align	4, 0x90
__ZN108_$LT$core..ops..range..RangeTo$LT$usize$GT$$u20$as$u20$core..slice..index..SliceIndex$LT$$u5b$T$u5d$$GT$$GT$5index17h59f0d4bf57fbfa3fE:
Lfunc_begin25:
	.loc	7 455 0
	.cfi_startproc
	pushq	%rbp
	.cfi_def_cfa_offset 16
	.cfi_offset %rbp, -16
	movq	%rsp, %rbp
	.cfi_def_cfa_register %rbp
	subq	$48, %rsp
	movq	%rcx, %r8
	movq	%rdx, %rcx
	movq	%rsi, %rdx
	movq	%rdi, -24(%rbp)
	movq	%rdx, -16(%rbp)
	movq	%rcx, -8(%rbp)
Ltmp172:
	.loc	7 456 9 prologue_end
	movq	$0, -40(%rbp)
	movq	%rdi, -32(%rbp)
	movq	-40(%rbp), %rdi
	movq	-32(%rbp), %rsi
	callq	__ZN106_$LT$core..ops..range..Range$LT$usize$GT$$u20$as$u20$core..slice..index..SliceIndex$LT$$u5b$T$u5d$$GT$$GT$5index17hd21c301b4d997394E
	.loc	7 457 6
	addq	$48, %rsp
	popq	%rbp
	retq
Ltmp173:
Lfunc_end25:
	.cfi_endproc

	.globl	__ZN108_$LT$core..ops..range..RangeTo$LT$usize$GT$$u20$as$u20$core..slice..index..SliceIndex$LT$$u5b$T$u5d$$GT$$GT$9index_mut17h45b0d33ad658f9f9E
	.p2align	4, 0x90
__ZN108_$LT$core..ops..range..RangeTo$LT$usize$GT$$u20$as$u20$core..slice..index..SliceIndex$LT$$u5b$T$u5d$$GT$$GT$9index_mut17h45b0d33ad658f9f9E:
Lfunc_begin26:
	.loc	7 460 0
	.cfi_startproc
	pushq	%rbp
	.cfi_def_cfa_offset 16
	.cfi_offset %rbp, -16
	movq	%rsp, %rbp
	.cfi_def_cfa_register %rbp
	subq	$48, %rsp
	movq	%rcx, %r8
	movq	%rdx, %rcx
	movq	%rsi, %rdx
	movq	%rdi, -24(%rbp)
	movq	%rdx, -16(%rbp)
	movq	%rcx, -8(%rbp)
Ltmp174:
	.loc	7 461 9 prologue_end
	movq	$0, -40(%rbp)
	movq	%rdi, -32(%rbp)
	movq	-40(%rbp), %rdi
	movq	-32(%rbp), %rsi
	callq	__ZN106_$LT$core..ops..range..Range$LT$usize$GT$$u20$as$u20$core..slice..index..SliceIndex$LT$$u5b$T$u5d$$GT$$GT$9index_mut17h2502c32a24505e84E
	.loc	7 462 6
	addq	$48, %rsp
	popq	%rbp
	retq
Ltmp175:
Lfunc_end26:
	.cfi_endproc

	.globl	__ZN108_$LT$core..ops..range..RangeTo$LT$usize$GT$$u20$as$u20$core..slice..index..SliceIndex$LT$$u5b$T$u5d$$GT$$GT$9index_mut17h9db8d2599ac3b3ceE
	.p2align	4, 0x90
__ZN108_$LT$core..ops..range..RangeTo$LT$usize$GT$$u20$as$u20$core..slice..index..SliceIndex$LT$$u5b$T$u5d$$GT$$GT$9index_mut17h9db8d2599ac3b3ceE:
Lfunc_begin27:
	.loc	7 460 0
	.cfi_startproc
	pushq	%rbp
	.cfi_def_cfa_offset 16
	.cfi_offset %rbp, -16
	movq	%rsp, %rbp
	.cfi_def_cfa_register %rbp
	subq	$48, %rsp
	movq	%rcx, %r8
	movq	%rdx, %rcx
	movq	%rsi, %rdx
	movq	%rdi, -24(%rbp)
	movq	%rdx, -16(%rbp)
	movq	%rcx, -8(%rbp)
Ltmp176:
	.loc	7 461 9 prologue_end
	movq	$0, -40(%rbp)
	movq	%rdi, -32(%rbp)
	movq	-40(%rbp), %rdi
	movq	-32(%rbp), %rsi
	callq	__ZN106_$LT$core..ops..range..Range$LT$usize$GT$$u20$as$u20$core..slice..index..SliceIndex$LT$$u5b$T$u5d$$GT$$GT$9index_mut17h47f541c86c8979acE
	.loc	7 462 6
	addq	$48, %rsp
	popq	%rbp
	retq
Ltmp177:
Lfunc_end27:
	.cfi_endproc

	.globl	__ZN108_$LT$core..ops..range..RangeTo$LT$usize$GT$$u20$as$u20$core..slice..index..SliceIndex$LT$$u5b$T$u5d$$GT$$GT$9index_mut17hfdc4094226a047d9E
	.p2align	4, 0x90
__ZN108_$LT$core..ops..range..RangeTo$LT$usize$GT$$u20$as$u20$core..slice..index..SliceIndex$LT$$u5b$T$u5d$$GT$$GT$9index_mut17hfdc4094226a047d9E:
Lfunc_begin28:
	.loc	7 460 0
	.cfi_startproc
	pushq	%rbp
	.cfi_def_cfa_offset 16
	.cfi_offset %rbp, -16
	movq	%rsp, %rbp
	.cfi_def_cfa_register %rbp
	subq	$48, %rsp
	movq	%rcx, %r8
	movq	%rdx, %rcx
	movq	%rsi, %rdx
	movq	%rdi, -24(%rbp)
	movq	%rdx, -16(%rbp)
	movq	%rcx, -8(%rbp)
Ltmp178:
	.loc	7 461 9 prologue_end
	movq	$0, -40(%rbp)
	movq	%rdi, -32(%rbp)
	movq	-40(%rbp), %rdi
	movq	-32(%rbp), %rsi
	callq	__ZN106_$LT$core..ops..range..Range$LT$usize$GT$$u20$as$u20$core..slice..index..SliceIndex$LT$$u5b$T$u5d$$GT$$GT$9index_mut17hbfbcff57e43740e9E
	.loc	7 462 6
	addq	$48, %rsp
	popq	%rbp
	retq
Ltmp179:
Lfunc_end28:
	.cfi_endproc

	.globl	__ZN110_$LT$core..iter..adapters..enumerate..Enumerate$LT$I$GT$$u20$as$u20$core..iter..traits..iterator..Iterator$GT$3nth17h71b9d886c10af99eE
	.p2align	4, 0x90
__ZN110_$LT$core..iter..adapters..enumerate..Enumerate$LT$I$GT$$u20$as$u20$core..iter..traits..iterator..Iterator$GT$3nth17h71b9d886c10af99eE:
Lfunc_begin29:
	.file	17 "/rustc/2c8cc343237b8f7d5a3c3703e3a87f2eb2c54a74/library/core/src/iter/adapters" "enumerate.rs"
	.loc	17 59 0
	.cfi_startproc
	.cfi_personality 155, _rust_eh_personality
	.cfi_lsda 16, Lexception0
	pushq	%rbp
	.cfi_def_cfa_offset 16
	.cfi_offset %rbp, -16
	movq	%rsp, %rbp
	.cfi_def_cfa_register %rbp
	subq	$176, %rsp
	movq	%rdi, -144(%rbp)
	movq	%rsi, -136(%rbp)
	movq	%rdi, -80(%rbp)
	movq	%rsi, -72(%rbp)
Ltmp185:
	.loc	17 60 17 prologue_end
	callq	__ZN91_$LT$core..slice..iter..Iter$LT$T$GT$$u20$as$u20$core..iter..traits..iterator..Iterator$GT$3nth17h22c859b2c4d09976E
	movq	%rax, -104(%rbp)
Ltmp186:
	.file	18 "/rustc/2c8cc343237b8f7d5a3c3703e3a87f2eb2c54a74/library/core/src" "option.rs"
	.loc	18 2407 15
	movq	-104(%rbp), %rdx
	movl	$1, %eax
	xorl	%ecx, %ecx
	cmpq	$0, %rdx
	cmoveq	%rcx, %rax
	.loc	18 2407 9 is_stmt 0
	cmpq	$0, %rax
	jne	LBB29_2
	.loc	18 2409 21 is_stmt 1
	movq	$0, -112(%rbp)
	.loc	18 2409 44 is_stmt 0
	jmp	LBB29_3
LBB29_2:
	.loc	18 2408 18 is_stmt 1
	movq	-104(%rbp), %rax
	movq	%rax, -48(%rbp)
Ltmp187:
	.loc	18 2408 24 is_stmt 0
	movq	%rax, -112(%rbp)
Ltmp188:
LBB29_3:
	.loc	17 60 17 is_stmt 1
	movq	-112(%rbp), %rdx
	xorl	%eax, %eax
	movl	$1, %ecx
	cmpq	$0, %rdx
	cmoveq	%rcx, %rax
	cmpq	$0, %rax
	jne	LBB29_5
	.loc	17 0 17 is_stmt 0
	movq	-144(%rbp), %rcx
	movq	-136(%rbp), %rax
	.loc	17 60 17
	movq	-112(%rbp), %rdx
	movq	%rdx, -160(%rbp)
	movq	%rdx, -40(%rbp)
Ltmp189:
	.loc	17 60 17
	movq	%rdx, -32(%rbp)
Ltmp190:
	.loc	17 61 17 is_stmt 1
	addq	16(%rcx), %rax
	movq	%rax, -152(%rbp)
	setb	%al
	testb	$1, %al
	jne	LBB29_8
	jmp	LBB29_7
Ltmp191:
LBB29_5:
	.loc	18 2420 21
	movq	$0, -120(%rbp)
Ltmp192:
LBB29_6:
	.loc	17 64 6
	movq	-128(%rbp), %rax
	movq	-120(%rbp), %rdx
	addq	$176, %rsp
	popq	%rbp
	retq
LBB29_7:
	.loc	17 0 6 is_stmt 0
	movq	-152(%rbp), %rax
Ltmp193:
	.loc	17 61 17 is_stmt 1
	movq	%rax, -8(%rbp)
Ltmp194:
	.loc	17 62 22
	addq	$1, %rax
	movq	%rax, -168(%rbp)
	setb	%al
	testb	$1, %al
	jne	LBB29_13
	jmp	LBB29_12
Ltmp195:
LBB29_8:
Ltmp182:
	.loc	17 61 17
	leaq	_str.0(%rip), %rdi
	leaq	l___unnamed_10(%rip), %rdx
	movl	$28, %esi
	callq	__ZN4core9panicking5panic17hc1bc45270cf64b03E
Ltmp183:
	jmp	LBB29_11
Ltmp196:
LBB29_9:
	.loc	17 59 5
	movq	-24(%rbp), %rdi
	callq	__Unwind_Resume
LBB29_10:
Ltmp184:
	.loc	17 0 5 is_stmt 0
	movq	%rax, %rcx
	movl	%edx, %eax
	movq	%rcx, -24(%rbp)
	movl	%eax, -16(%rbp)
	jmp	LBB29_9
LBB29_11:
	ud2
LBB29_12:
	movq	-160(%rbp), %rax
	movq	-152(%rbp), %rcx
	movq	-144(%rbp), %rdx
	movq	-168(%rbp), %rsi
Ltmp197:
	.loc	17 62 9 is_stmt 1
	movq	%rsi, 16(%rdx)
	.loc	17 63 14
	movq	%rcx, -96(%rbp)
	movq	%rax, -88(%rbp)
	.loc	17 63 9 is_stmt 0
	movq	-96(%rbp), %rcx
	movq	-88(%rbp), %rax
	movq	%rcx, -128(%rbp)
	movq	%rax, -120(%rbp)
Ltmp198:
	.loc	17 64 6 is_stmt 1
	jmp	LBB29_6
LBB29_13:
Ltmp180:
Ltmp199:
	.loc	17 62 22
	leaq	_str.0(%rip), %rdi
	leaq	l___unnamed_11(%rip), %rdx
	movl	$28, %esi
	callq	__ZN4core9panicking5panic17hc1bc45270cf64b03E
Ltmp181:
	jmp	LBB29_11
Ltmp200:
Lfunc_end29:
	.cfi_endproc
	.section	__TEXT,__gcc_except_tab
	.p2align	2
GCC_except_table29:
Lexception0:
	.byte	255
	.byte	255
	.byte	1
	.uleb128 Lcst_end0-Lcst_begin0
Lcst_begin0:
	.uleb128 Lfunc_begin29-Lfunc_begin29
	.uleb128 Ltmp182-Lfunc_begin29
	.byte	0
	.byte	0
	.uleb128 Ltmp182-Lfunc_begin29
	.uleb128 Ltmp183-Ltmp182
	.uleb128 Ltmp184-Lfunc_begin29
	.byte	0
	.uleb128 Ltmp183-Lfunc_begin29
	.uleb128 Ltmp180-Ltmp183
	.byte	0
	.byte	0
	.uleb128 Ltmp180-Lfunc_begin29
	.uleb128 Ltmp181-Ltmp180
	.uleb128 Ltmp184-Lfunc_begin29
	.byte	0
Lcst_end0:
	.p2align	2

	.section	__TEXT,__text,regular,pure_instructions
	.globl	__ZN110_$LT$core..iter..adapters..enumerate..Enumerate$LT$I$GT$$u20$as$u20$core..iter..traits..iterator..Iterator$GT$4fold17hf4671f04f44944daE
	.p2align	4, 0x90
__ZN110_$LT$core..iter..adapters..enumerate..Enumerate$LT$I$GT$$u20$as$u20$core..iter..traits..iterator..Iterator$GT$4fold17hf4671f04f44944daE:
Lfunc_begin30:
	.loc	17 95 0
	.cfi_startproc
	.cfi_personality 155, _rust_eh_personality
	.cfi_lsda 16, Lexception1
	pushq	%rbp
	.cfi_def_cfa_offset 16
	.cfi_offset %rbp, -16
	movq	%rsp, %rbp
	.cfi_def_cfa_register %rbp
	subq	$64, %rsp
	movl	%esi, %edx
	movq	%rdi, %rax
Ltmp204:
	movl	%edx, -44(%rbp)
Ltmp205:
	.loc	17 112 9 prologue_end
	movq	(%rax), %rdi
	movq	8(%rax), %rsi
	.loc	17 112 40 is_stmt 0
	movq	16(%rax), %rax
Ltmp206:
	movq	%rax, -24(%rbp)
Ltmp207:
	.loc	17 105 13 is_stmt 1
	movq	%rax, -56(%rbp)
Ltmp208:
	.loc	17 112 9
	movq	-56(%rbp), %rcx
Ltmp201:
	callq	__ZN98_$LT$core..iter..adapters..rev..Rev$LT$I$GT$$u20$as$u20$core..iter..traits..iterator..Iterator$GT$4fold17hb1638ea4675331f4E
Ltmp202:
	movl	%eax, -60(%rbp)
	jmp	LBB30_3
LBB30_1:
	.loc	17 112 57 is_stmt 0
	xorl	%eax, %eax
	testb	$1, %al
	jne	LBB30_5
	jmp	LBB30_4
LBB30_2:
Ltmp203:
	.loc	17 0 57
	movq	%rax, %rcx
	movl	%edx, %eax
	movq	%rcx, -16(%rbp)
	movl	%eax, -8(%rbp)
	jmp	LBB30_1
LBB30_3:
	movl	-60(%rbp), %eax
	.loc	17 113 6 is_stmt 1
	addq	$64, %rsp
	popq	%rbp
	retq
LBB30_4:
	.loc	17 112 57
	xorl	%eax, %eax
	testb	$1, %al
	jne	LBB30_7
	jmp	LBB30_6
LBB30_5:
	jmp	LBB30_4
LBB30_6:
	.loc	17 95 5
	movq	-16(%rbp), %rdi
	callq	__Unwind_Resume
LBB30_7:
	.loc	17 112 57
	jmp	LBB30_6
Ltmp209:
Lfunc_end30:
	.cfi_endproc
	.section	__TEXT,__gcc_except_tab
	.p2align	2
GCC_except_table30:
Lexception1:
	.byte	255
	.byte	255
	.byte	1
	.uleb128 Lcst_end1-Lcst_begin1
Lcst_begin1:
	.uleb128 Ltmp201-Lfunc_begin30
	.uleb128 Ltmp202-Ltmp201
	.uleb128 Ltmp203-Lfunc_begin30
	.byte	0
	.uleb128 Ltmp202-Lfunc_begin30
	.uleb128 Lfunc_end30-Ltmp202
	.byte	0
	.byte	0
Lcst_end1:
	.p2align	2

	.section	__TEXT,__text,regular,pure_instructions
	.globl	__ZN110_$LT$core..iter..adapters..enumerate..Enumerate$LT$I$GT$$u20$as$u20$core..iter..traits..iterator..Iterator$GT$4fold9enumerate28_$u7b$$u7b$closure$u7d$$u7d$17h5b523fd22a3551a7E
	.p2align	4, 0x90
__ZN110_$LT$core..iter..adapters..enumerate..Enumerate$LT$I$GT$$u20$as$u20$core..iter..traits..iterator..Iterator$GT$4fold9enumerate28_$u7b$$u7b$closure$u7d$$u7d$17h5b523fd22a3551a7E:
Lfunc_begin31:
	.loc	17 105 0
	.cfi_startproc
	.cfi_personality 155, _rust_eh_personality
	.cfi_lsda 16, Lexception2
	pushq	%rbp
	.cfi_def_cfa_offset 16
	.cfi_offset %rbp, -16
	movq	%rsp, %rbp
	.cfi_def_cfa_register %rbp
	subq	$112, %rsp
	movq	%rdi, -112(%rbp)
	movq	%rdi, -48(%rbp)
	movl	%esi, -36(%rbp)
	movq	%rdx, -32(%rbp)
Ltmp213:
	.loc	17 106 38 prologue_end
	movq	(%rdi), %rax
	.loc	17 106 37 is_stmt 0
	movq	%rax, -64(%rbp)
	movq	%rdx, -56(%rbp)
	.loc	17 106 27
	movl	%esi, -88(%rbp)
	movq	-64(%rbp), %rcx
	movq	-56(%rbp), %rax
	movq	%rcx, -80(%rbp)
	movq	%rax, -72(%rbp)
	movl	-88(%rbp), %esi
	movq	-80(%rbp), %rdx
	movq	-72(%rbp), %rcx
	callq	__ZN11miniz_oxide7deflate4core12HuffmanOxide21enforce_max_code_size28_$u7b$$u7b$closure$u7d$$u7d$17h3d889d2e6e02b42bE
	movq	-112(%rbp), %rdi
	movl	%eax, -100(%rbp)
	movl	%eax, -20(%rbp)
Ltmp214:
	.loc	17 107 17 is_stmt 1
	movq	(%rdi), %rax
	addq	$1, %rax
	movq	%rax, -96(%rbp)
	setb	%al
	testb	$1, %al
	jne	LBB31_2
	.loc	17 0 17 is_stmt 0
	movl	-100(%rbp), %eax
	movq	-112(%rbp), %rcx
	movq	-96(%rbp), %rdx
	.loc	17 107 17
	movq	%rdx, (%rcx)
Ltmp215:
	.loc	17 109 14 is_stmt 1
	addq	$112, %rsp
	popq	%rbp
	retq
LBB31_2:
Ltmp210:
Ltmp216:
	.loc	17 107 17
	leaq	_str.0(%rip), %rdi
	leaq	l___unnamed_12(%rip), %rdx
	movl	$28, %esi
	callq	__ZN4core9panicking5panic17hc1bc45270cf64b03E
Ltmp211:
	jmp	LBB31_5
Ltmp217:
LBB31_3:
	.loc	17 105 13
	movq	-16(%rbp), %rdi
	callq	__Unwind_Resume
Ltmp218:
LBB31_4:
Ltmp212:
	.loc	17 0 13 is_stmt 0
	movq	%rax, %rcx
	movl	%edx, %eax
	movq	%rcx, -16(%rbp)
	movl	%eax, -8(%rbp)
	jmp	LBB31_3
LBB31_5:
	ud2
Lfunc_end31:
	.cfi_endproc
	.section	__TEXT,__gcc_except_tab
	.p2align	2
GCC_except_table31:
Lexception2:
	.byte	255
	.byte	255
	.byte	1
	.uleb128 Lcst_end2-Lcst_begin2
Lcst_begin2:
	.uleb128 Lfunc_begin31-Lfunc_begin31
	.uleb128 Ltmp210-Lfunc_begin31
	.byte	0
	.byte	0
	.uleb128 Ltmp210-Lfunc_begin31
	.uleb128 Ltmp211-Ltmp210
	.uleb128 Ltmp212-Lfunc_begin31
	.byte	0
	.uleb128 Ltmp211-Lfunc_begin31
	.uleb128 Lfunc_end31-Ltmp211
	.byte	0
	.byte	0
Lcst_end2:
	.p2align	2

	.section	__TEXT,__text,regular,pure_instructions
	.globl	__ZN110_$LT$core..iter..adapters..enumerate..Enumerate$LT$I$GT$$u20$as$u20$core..iter..traits..iterator..Iterator$GT$4next17h819c8646c90bd1cbE
	.p2align	4, 0x90
__ZN110_$LT$core..iter..adapters..enumerate..Enumerate$LT$I$GT$$u20$as$u20$core..iter..traits..iterator..Iterator$GT$4next17h819c8646c90bd1cbE:
Lfunc_begin32:
	.loc	17 45 0 is_stmt 1
	.cfi_startproc
	.cfi_personality 155, _rust_eh_personality
	.cfi_lsda 16, Lexception3
	pushq	%rbp
	.cfi_def_cfa_offset 16
	.cfi_offset %rbp, -16
	movq	%rsp, %rbp
	.cfi_def_cfa_register %rbp
	subq	$160, %rsp
	movq	%rdi, -128(%rbp)
	movq	%rdi, -72(%rbp)
Ltmp222:
	.loc	17 46 17 prologue_end
	callq	__ZN91_$LT$core..slice..iter..Iter$LT$T$GT$$u20$as$u20$core..iter..traits..iterator..Iterator$GT$4next17hebe363e1b3115318E
	movq	%rax, -96(%rbp)
Ltmp223:
	.loc	18 2407 15
	movq	-96(%rbp), %rdx
	movl	$1, %eax
	xorl	%ecx, %ecx
	cmpq	$0, %rdx
	cmoveq	%rcx, %rax
	.loc	18 2407 9 is_stmt 0
	cmpq	$0, %rax
	jne	LBB32_2
	.loc	18 2409 21 is_stmt 1
	movq	$0, -104(%rbp)
	.loc	18 2409 44 is_stmt 0
	jmp	LBB32_3
LBB32_2:
	.loc	18 2408 18 is_stmt 1
	movq	-96(%rbp), %rax
	movq	%rax, -48(%rbp)
Ltmp224:
	.loc	18 2408 24 is_stmt 0
	movq	%rax, -104(%rbp)
Ltmp225:
LBB32_3:
	.loc	17 46 17 is_stmt 1
	movq	-104(%rbp), %rdx
	xorl	%eax, %eax
	movl	$1, %ecx
	cmpq	$0, %rdx
	cmoveq	%rcx, %rax
	cmpq	$0, %rax
	jne	LBB32_5
	.loc	17 0 17 is_stmt 0
	movq	-128(%rbp), %rax
	.loc	17 46 17
	movq	-104(%rbp), %rcx
	movq	%rcx, -152(%rbp)
	movq	%rcx, -40(%rbp)
Ltmp226:
	.loc	17 46 17
	movq	%rcx, -32(%rbp)
Ltmp227:
	.loc	17 47 17 is_stmt 1
	movq	16(%rax), %rcx
	movq	%rcx, -144(%rbp)
	movq	%rcx, -24(%rbp)
Ltmp228:
	.loc	17 48 9
	movq	16(%rax), %rax
	addq	$1, %rax
	movq	%rax, -136(%rbp)
	setb	%al
	testb	$1, %al
	jne	LBB32_8
	jmp	LBB32_7
Ltmp229:
LBB32_5:
	.loc	18 2420 21
	movq	$0, -112(%rbp)
Ltmp230:
LBB32_6:
	.loc	17 50 6
	movq	-120(%rbp), %rax
	movq	-112(%rbp), %rdx
	addq	$160, %rsp
	popq	%rbp
	retq
LBB32_7:
	.loc	17 0 6 is_stmt 0
	movq	-152(%rbp), %rax
	movq	-144(%rbp), %rcx
	movq	-128(%rbp), %rdx
	movq	-136(%rbp), %rsi
Ltmp231:
	.loc	17 48 9 is_stmt 1
	movq	%rsi, 16(%rdx)
	.loc	17 49 14
	movq	%rcx, -88(%rbp)
	movq	%rax, -80(%rbp)
	.loc	17 49 9 is_stmt 0
	movq	-88(%rbp), %rcx
	movq	-80(%rbp), %rax
	movq	%rcx, -120(%rbp)
	movq	%rax, -112(%rbp)
Ltmp232:
	.loc	17 50 6 is_stmt 1
	jmp	LBB32_6
LBB32_8:
Ltmp219:
Ltmp233:
	.loc	17 48 9
	leaq	_str.0(%rip), %rdi
	leaq	l___unnamed_13(%rip), %rdx
	movl	$28, %esi
	callq	__ZN4core9panicking5panic17hc1bc45270cf64b03E
Ltmp220:
	jmp	LBB32_11
Ltmp234:
LBB32_9:
	.loc	17 45 5
	movq	-16(%rbp), %rdi
	callq	__Unwind_Resume
Ltmp235:
LBB32_10:
Ltmp221:
	.loc	17 0 5 is_stmt 0
	movq	%rax, %rcx
	movl	%edx, %eax
	movq	%rcx, -16(%rbp)
	movl	%eax, -8(%rbp)
	jmp	LBB32_9
LBB32_11:
	ud2
Lfunc_end32:
	.cfi_endproc
	.section	__TEXT,__gcc_except_tab
	.p2align	2
GCC_except_table32:
Lexception3:
	.byte	255
	.byte	255
	.byte	1
	.uleb128 Lcst_end3-Lcst_begin3
Lcst_begin3:
	.uleb128 Lfunc_begin32-Lfunc_begin32
	.uleb128 Ltmp219-Lfunc_begin32
	.byte	0
	.byte	0
	.uleb128 Ltmp219-Lfunc_begin32
	.uleb128 Ltmp220-Ltmp219
	.uleb128 Ltmp221-Lfunc_begin32
	.byte	0
	.uleb128 Ltmp220-Lfunc_begin32
	.uleb128 Lfunc_end32-Ltmp220
	.byte	0
	.byte	0
Lcst_end3:
	.p2align	2

	.section	__TEXT,__text,regular,pure_instructions
	.globl	__ZN110_$LT$core..iter..adapters..enumerate..Enumerate$LT$I$GT$$u20$as$u20$core..iter..traits..iterator..Iterator$GT$4next17hb88d17a1178b8f0eE
	.p2align	4, 0x90
__ZN110_$LT$core..iter..adapters..enumerate..Enumerate$LT$I$GT$$u20$as$u20$core..iter..traits..iterator..Iterator$GT$4next17hb88d17a1178b8f0eE:
Lfunc_begin33:
	.loc	17 45 0 is_stmt 1
	.cfi_startproc
	.cfi_personality 155, _rust_eh_personality
	.cfi_lsda 16, Lexception4
	pushq	%rbp
	.cfi_def_cfa_offset 16
	.cfi_offset %rbp, -16
	movq	%rsp, %rbp
	.cfi_def_cfa_register %rbp
	subq	$160, %rsp
	movq	%rdi, -128(%rbp)
	movq	%rdi, -72(%rbp)
Ltmp239:
	.loc	17 46 17 prologue_end
	callq	__ZN91_$LT$core..slice..iter..Iter$LT$T$GT$$u20$as$u20$core..iter..traits..iterator..Iterator$GT$4next17had25a0818765efc7E
	movq	%rax, -96(%rbp)
Ltmp240:
	.loc	18 2407 15
	movq	-96(%rbp), %rdx
	movl	$1, %eax
	xorl	%ecx, %ecx
	cmpq	$0, %rdx
	cmoveq	%rcx, %rax
	.loc	18 2407 9 is_stmt 0
	cmpq	$0, %rax
	jne	LBB33_2
	.loc	18 2409 21 is_stmt 1
	movq	$0, -104(%rbp)
	.loc	18 2409 44 is_stmt 0
	jmp	LBB33_3
LBB33_2:
	.loc	18 2408 18 is_stmt 1
	movq	-96(%rbp), %rax
	movq	%rax, -48(%rbp)
Ltmp241:
	.loc	18 2408 24 is_stmt 0
	movq	%rax, -104(%rbp)
Ltmp242:
LBB33_3:
	.loc	17 46 17 is_stmt 1
	movq	-104(%rbp), %rdx
	xorl	%eax, %eax
	movl	$1, %ecx
	cmpq	$0, %rdx
	cmoveq	%rcx, %rax
	cmpq	$0, %rax
	jne	LBB33_5
	.loc	17 0 17 is_stmt 0
	movq	-128(%rbp), %rax
	.loc	17 46 17
	movq	-104(%rbp), %rcx
	movq	%rcx, -152(%rbp)
	movq	%rcx, -40(%rbp)
Ltmp243:
	.loc	17 46 17
	movq	%rcx, -32(%rbp)
Ltmp244:
	.loc	17 47 17 is_stmt 1
	movq	16(%rax), %rcx
	movq	%rcx, -144(%rbp)
	movq	%rcx, -24(%rbp)
Ltmp245:
	.loc	17 48 9
	movq	16(%rax), %rax
	addq	$1, %rax
	movq	%rax, -136(%rbp)
	setb	%al
	testb	$1, %al
	jne	LBB33_8
	jmp	LBB33_7
Ltmp246:
LBB33_5:
	.loc	18 2420 21
	movq	$0, -112(%rbp)
Ltmp247:
LBB33_6:
	.loc	17 50 6
	movq	-120(%rbp), %rax
	movq	-112(%rbp), %rdx
	addq	$160, %rsp
	popq	%rbp
	retq
LBB33_7:
	.loc	17 0 6 is_stmt 0
	movq	-152(%rbp), %rax
	movq	-144(%rbp), %rcx
	movq	-128(%rbp), %rdx
	movq	-136(%rbp), %rsi
Ltmp248:
	.loc	17 48 9 is_stmt 1
	movq	%rsi, 16(%rdx)
	.loc	17 49 14
	movq	%rcx, -88(%rbp)
	movq	%rax, -80(%rbp)
	.loc	17 49 9 is_stmt 0
	movq	-88(%rbp), %rcx
	movq	-80(%rbp), %rax
	movq	%rcx, -120(%rbp)
	movq	%rax, -112(%rbp)
Ltmp249:
	.loc	17 50 6 is_stmt 1
	jmp	LBB33_6
LBB33_8:
Ltmp236:
Ltmp250:
	.loc	17 48 9
	leaq	_str.0(%rip), %rdi
	leaq	l___unnamed_13(%rip), %rdx
	movl	$28, %esi
	callq	__ZN4core9panicking5panic17hc1bc45270cf64b03E
Ltmp237:
	jmp	LBB33_11
Ltmp251:
LBB33_9:
	.loc	17 45 5
	movq	-16(%rbp), %rdi
	callq	__Unwind_Resume
Ltmp252:
LBB33_10:
Ltmp238:
	.loc	17 0 5 is_stmt 0
	movq	%rax, %rcx
	movl	%edx, %eax
	movq	%rcx, -16(%rbp)
	movl	%eax, -8(%rbp)
	jmp	LBB33_9
LBB33_11:
	ud2
Lfunc_end33:
	.cfi_endproc
	.section	__TEXT,__gcc_except_tab
	.p2align	2
GCC_except_table33:
Lexception4:
	.byte	255
	.byte	255
	.byte	1
	.uleb128 Lcst_end4-Lcst_begin4
Lcst_begin4:
	.uleb128 Lfunc_begin33-Lfunc_begin33
	.uleb128 Ltmp236-Lfunc_begin33
	.byte	0
	.byte	0
	.uleb128 Ltmp236-Lfunc_begin33
	.uleb128 Ltmp237-Ltmp236
	.uleb128 Ltmp238-Lfunc_begin33
	.byte	0
	.uleb128 Ltmp237-Lfunc_begin33
	.uleb128 Lfunc_end33-Ltmp237
	.byte	0
	.byte	0
Lcst_end4:
	.p2align	2

	.section	__TEXT,__text,regular,pure_instructions
	.globl	__ZN110_$LT$core..ops..range..RangeFrom$LT$usize$GT$$u20$as$u20$core..slice..index..SliceIndex$LT$$u5b$T$u5d$$GT$$GT$5index17h24d2abab06202bd0E
	.p2align	4, 0x90
__ZN110_$LT$core..ops..range..RangeFrom$LT$usize$GT$$u20$as$u20$core..slice..index..SliceIndex$LT$$u5b$T$u5d$$GT$$GT$5index17h24d2abab06202bd0E:
Lfunc_begin34:
	.loc	7 493 0 is_stmt 1
	.cfi_startproc
	pushq	%rbp
	.cfi_def_cfa_offset 16
	.cfi_offset %rbp, -16
	movq	%rsp, %rbp
	.cfi_def_cfa_register %rbp
	subq	$144, %rsp
	movq	%rdi, -144(%rbp)
	movq	%rsi, -136(%rbp)
	movq	%rdx, -128(%rbp)
	movq	%rcx, -120(%rbp)
	movq	%rdi, -80(%rbp)
	movq	%rsi, -72(%rbp)
	movq	%rdx, -64(%rbp)
Ltmp253:
	.loc	7 494 12 prologue_end
	cmpq	%rdx, %rdi
	ja	LBB34_2
	.loc	7 0 12 is_stmt 0
	movq	-128(%rbp), %rcx
	movq	-136(%rbp), %rdx
	movq	-144(%rbp), %rsi
	.loc	7 498 20 is_stmt 1
	movq	%rsi, -56(%rbp)
	.loc	7 498 39 is_stmt 0
	movq	%rdx, -48(%rbp)
	movq	%rcx, -40(%rbp)
Ltmp254:
	.loc	7 483 31 is_stmt 1
	movq	%rdx, -32(%rbp)
	movq	%rcx, -24(%rbp)
Ltmp255:
	.loc	8 1630 18
	movq	%rdx, -16(%rbp)
	movq	%rcx, -8(%rbp)
Ltmp256:
	.loc	10 98 14
	movq	%rdx, -96(%rbp)
	movq	%rcx, -88(%rbp)
	movq	-88(%rbp), %rax
Ltmp257:
	.loc	7 483 18
	movq	%rsi, -112(%rbp)
	movq	%rax, -104(%rbp)
	movq	-112(%rbp), %rdi
	movq	-104(%rbp), %rsi
	callq	__ZN106_$LT$core..ops..range..Range$LT$usize$GT$$u20$as$u20$core..slice..index..SliceIndex$LT$$u5b$T$u5d$$GT$$GT$13get_unchecked17hec238f8a18d61872E
Ltmp258:
	.loc	7 499 6
	addq	$144, %rsp
	popq	%rbp
	retq
LBB34_2:
	.loc	7 0 6 is_stmt 0
	movq	-120(%rbp), %rdx
	movq	-128(%rbp), %rsi
	movq	-144(%rbp), %rdi
	.loc	7 495 13 is_stmt 1
	callq	__ZN4core5slice5index26slice_start_index_len_fail17h9d301bb51ec3e351E
Ltmp259:
Lfunc_end34:
	.cfi_endproc

	.globl	__ZN110_$LT$core..ops..range..RangeFrom$LT$usize$GT$$u20$as$u20$core..slice..index..SliceIndex$LT$$u5b$T$u5d$$GT$$GT$5index17he8a7969c121d1191E
	.p2align	4, 0x90
__ZN110_$LT$core..ops..range..RangeFrom$LT$usize$GT$$u20$as$u20$core..slice..index..SliceIndex$LT$$u5b$T$u5d$$GT$$GT$5index17he8a7969c121d1191E:
Lfunc_begin35:
	.loc	7 493 0
	.cfi_startproc
	pushq	%rbp
	.cfi_def_cfa_offset 16
	.cfi_offset %rbp, -16
	movq	%rsp, %rbp
	.cfi_def_cfa_register %rbp
	subq	$144, %rsp
	movq	%rdi, -144(%rbp)
	movq	%rsi, -136(%rbp)
	movq	%rdx, -128(%rbp)
	movq	%rcx, -120(%rbp)
	movq	%rdi, -80(%rbp)
	movq	%rsi, -72(%rbp)
	movq	%rdx, -64(%rbp)
Ltmp260:
	.loc	7 494 12 prologue_end
	cmpq	%rdx, %rdi
	ja	LBB35_2
	.loc	7 0 12 is_stmt 0
	movq	-128(%rbp), %rcx
	movq	-136(%rbp), %rdx
	movq	-144(%rbp), %rsi
	.loc	7 498 20 is_stmt 1
	movq	%rsi, -56(%rbp)
	.loc	7 498 39 is_stmt 0
	movq	%rdx, -48(%rbp)
	movq	%rcx, -40(%rbp)
Ltmp261:
	.loc	7 483 31 is_stmt 1
	movq	%rdx, -32(%rbp)
	movq	%rcx, -24(%rbp)
Ltmp262:
	.loc	8 1630 18
	movq	%rdx, -16(%rbp)
	movq	%rcx, -8(%rbp)
Ltmp263:
	.loc	10 98 14
	movq	%rdx, -96(%rbp)
	movq	%rcx, -88(%rbp)
	movq	-88(%rbp), %rax
Ltmp264:
	.loc	7 483 18
	movq	%rsi, -112(%rbp)
	movq	%rax, -104(%rbp)
	movq	-112(%rbp), %rdi
	movq	-104(%rbp), %rsi
	callq	__ZN106_$LT$core..ops..range..Range$LT$usize$GT$$u20$as$u20$core..slice..index..SliceIndex$LT$$u5b$T$u5d$$GT$$GT$13get_unchecked17hc70b4008c7a719a3E
Ltmp265:
	.loc	7 499 6
	addq	$144, %rsp
	popq	%rbp
	retq
LBB35_2:
	.loc	7 0 6 is_stmt 0
	movq	-120(%rbp), %rdx
	movq	-128(%rbp), %rsi
	movq	-144(%rbp), %rdi
	.loc	7 495 13 is_stmt 1
	callq	__ZN4core5slice5index26slice_start_index_len_fail17h9d301bb51ec3e351E
Ltmp266:
Lfunc_end35:
	.cfi_endproc

	.globl	__ZN110_$LT$core..ops..range..RangeFrom$LT$usize$GT$$u20$as$u20$core..slice..index..SliceIndex$LT$$u5b$T$u5d$$GT$$GT$9index_mut17hafef042c8eb0d7fdE
	.p2align	4, 0x90
__ZN110_$LT$core..ops..range..RangeFrom$LT$usize$GT$$u20$as$u20$core..slice..index..SliceIndex$LT$$u5b$T$u5d$$GT$$GT$9index_mut17hafef042c8eb0d7fdE:
Lfunc_begin36:
	.loc	7 502 0
	.cfi_startproc
	pushq	%rbp
	.cfi_def_cfa_offset 16
	.cfi_offset %rbp, -16
	movq	%rsp, %rbp
	.cfi_def_cfa_register %rbp
	subq	$144, %rsp
	movq	%rdi, -144(%rbp)
	movq	%rsi, -136(%rbp)
	movq	%rdx, -128(%rbp)
	movq	%rcx, -120(%rbp)
	movq	%rdi, -80(%rbp)
	movq	%rsi, -72(%rbp)
	movq	%rdx, -64(%rbp)
Ltmp267:
	.loc	7 503 12 prologue_end
	cmpq	%rdx, %rdi
	ja	LBB36_2
	.loc	7 0 12 is_stmt 0
	movq	-128(%rbp), %rcx
	movq	-136(%rbp), %rdx
	movq	-144(%rbp), %rsi
	.loc	7 507 24 is_stmt 1
	movq	%rsi, -56(%rbp)
	.loc	7 507 47 is_stmt 0
	movq	%rdx, -48(%rbp)
	movq	%rcx, -40(%rbp)
Ltmp268:
	.loc	7 489 31 is_stmt 1
	movq	%rdx, -32(%rbp)
	movq	%rcx, -24(%rbp)
Ltmp269:
	.loc	11 1901 18
	movq	%rdx, -16(%rbp)
	movq	%rcx, -8(%rbp)
Ltmp270:
	.loc	10 98 14
	movq	%rdx, -96(%rbp)
	movq	%rcx, -88(%rbp)
	movq	-88(%rbp), %rax
Ltmp271:
	.loc	7 489 18
	movq	%rsi, -112(%rbp)
	movq	%rax, -104(%rbp)
	movq	-112(%rbp), %rdi
	movq	-104(%rbp), %rsi
	callq	__ZN106_$LT$core..ops..range..Range$LT$usize$GT$$u20$as$u20$core..slice..index..SliceIndex$LT$$u5b$T$u5d$$GT$$GT$17get_unchecked_mut17h89576afc19573f74E
Ltmp272:
	.loc	7 508 6
	addq	$144, %rsp
	popq	%rbp
	retq
LBB36_2:
	.loc	7 0 6 is_stmt 0
	movq	-120(%rbp), %rdx
	movq	-128(%rbp), %rsi
	movq	-144(%rbp), %rdi
	.loc	7 504 13 is_stmt 1
	callq	__ZN4core5slice5index26slice_start_index_len_fail17h9d301bb51ec3e351E
Ltmp273:
Lfunc_end36:
	.cfi_endproc

	.globl	__ZN111_$LT$core..iter..adapters..zip..Zip$LT$A$C$B$GT$$u20$as$u20$core..iter..adapters..zip..ZipImpl$LT$A$C$B$GT$$GT$3new17hf9cd4c2b0df6bc8eE
	.p2align	4, 0x90
__ZN111_$LT$core..iter..adapters..zip..Zip$LT$A$C$B$GT$$u20$as$u20$core..iter..adapters..zip..ZipImpl$LT$A$C$B$GT$$GT$3new17hf9cd4c2b0df6bc8eE:
Lfunc_begin37:
	.loc	4 142 0
	.cfi_startproc
	pushq	%rbp
	.cfi_def_cfa_offset 16
	.cfi_offset %rbp, -16
	movq	%rsp, %rbp
	.cfi_def_cfa_register %rbp
	subq	$48, %rsp
	movq	%rdi, %rax
Ltmp274:
	.loc	4 144 17 prologue_end
	movq	(%rsi), %rcx
	movq	%rcx, -48(%rbp)
	movq	8(%rsi), %rcx
	movq	%rcx, -40(%rbp)
	movq	16(%rsi), %rcx
	movq	%rcx, -32(%rbp)
	.loc	4 145 17
	movq	(%rdx), %rcx
	movq	%rcx, -24(%rbp)
	movq	8(%rdx), %rcx
	movq	%rcx, -16(%rbp)
	movq	16(%rdx), %rcx
	movq	%rcx, -8(%rbp)
	.loc	4 143 13
	movq	-48(%rbp), %rcx
	movq	%rcx, 24(%rdi)
	movq	-40(%rbp), %rcx
	movq	%rcx, 32(%rdi)
	movq	-32(%rbp), %rcx
	movq	%rcx, 40(%rdi)
	movq	-24(%rbp), %rcx
	movq	%rcx, 48(%rdi)
	movq	-16(%rbp), %rcx
	movq	%rcx, 56(%rdi)
	movq	-8(%rbp), %rcx
	movq	%rcx, 64(%rdi)
	movq	$0, (%rdi)
	movq	$0, 8(%rdi)
	movq	$0, 16(%rdi)
	.loc	4 150 10
	addq	$48, %rsp
	popq	%rbp
	retq
Ltmp275:
Lfunc_end37:
	.cfi_endproc

	.globl	__ZN111_$LT$core..iter..adapters..zip..Zip$LT$A$C$B$GT$$u20$as$u20$core..iter..adapters..zip..ZipImpl$LT$A$C$B$GT$$GT$4next17h37ae17076637eaa7E
	.p2align	4, 0x90
__ZN111_$LT$core..iter..adapters..zip..Zip$LT$A$C$B$GT$$u20$as$u20$core..iter..adapters..zip..ZipImpl$LT$A$C$B$GT$$GT$4next17h37ae17076637eaa7E:
Lfunc_begin38:
	.loc	4 153 0
	.cfi_startproc
	.cfi_personality 155, _rust_eh_personality
	.cfi_lsda 16, Lexception5
	pushq	%rbp
	.cfi_def_cfa_offset 16
	.cfi_offset %rbp, -16
	movq	%rsp, %rbp
	.cfi_def_cfa_register %rbp
	subq	$192, %rsp
	movq	%rdi, -176(%rbp)
	movq	%rdi, -104(%rbp)
Ltmp279:
	.loc	4 154 21 prologue_end
	addq	$24, %rdi
	callq	__ZN100_$LT$core..iter..adapters..take..Take$LT$I$GT$$u20$as$u20$core..iter..traits..iterator..Iterator$GT$4next17h488f9d98ce4b6436E
	movq	%rax, -144(%rbp)
Ltmp280:
	.loc	18 2407 15
	movq	-144(%rbp), %rdx
	movl	$1, %eax
	xorl	%ecx, %ecx
	cmpq	$0, %rdx
	cmoveq	%rcx, %rax
	.loc	18 2407 9 is_stmt 0
	cmpq	$0, %rax
	jne	LBB38_2
	.loc	18 2409 21 is_stmt 1
	movq	$0, -152(%rbp)
	.loc	18 2409 44 is_stmt 0
	jmp	LBB38_3
LBB38_2:
	.loc	18 2408 18 is_stmt 1
	movq	-144(%rbp), %rax
	movq	%rax, -64(%rbp)
Ltmp281:
	.loc	18 2408 24 is_stmt 0
	movq	%rax, -152(%rbp)
Ltmp282:
LBB38_3:
	.loc	4 154 21 is_stmt 1
	movq	-152(%rbp), %rdx
	xorl	%eax, %eax
	movl	$1, %ecx
	cmpq	$0, %rdx
	cmoveq	%rcx, %rax
	cmpq	$0, %rax
	jne	LBB38_5
	.loc	4 0 21 is_stmt 0
	movq	-176(%rbp), %rdi
	.loc	4 154 21
	movq	-152(%rbp), %rax
	movq	%rax, -192(%rbp)
	movq	%rax, -56(%rbp)
Ltmp283:
	.loc	4 154 21
	movq	%rax, -48(%rbp)
Ltmp284:
	.loc	4 155 21 is_stmt 1
	addq	$48, %rdi
Ltmp276:
	callq	__ZN100_$LT$core..iter..adapters..take..Take$LT$I$GT$$u20$as$u20$core..iter..traits..iterator..Iterator$GT$4next17h0ce3d9a0230cb0c4E
Ltmp277:
	movq	%rax, -184(%rbp)
	jmp	LBB38_9
Ltmp285:
LBB38_5:
	.loc	18 2420 21
	movq	$0, -168(%rbp)
Ltmp286:
LBB38_6:
	.loc	4 157 10
	jmp	LBB38_15
LBB38_7:
	.loc	4 153 9
	movq	-40(%rbp), %rdi
	callq	__Unwind_Resume
LBB38_8:
Ltmp278:
	.loc	4 0 9 is_stmt 0
	movq	%rax, %rcx
	movl	%edx, %eax
	movq	%rcx, -40(%rbp)
	movl	%eax, -32(%rbp)
	jmp	LBB38_7
LBB38_9:
	movq	-184(%rbp), %rax
Ltmp287:
	.loc	4 155 21 is_stmt 1
	movq	%rax, -128(%rbp)
Ltmp288:
	.loc	18 2407 15
	movq	-128(%rbp), %rdx
	movl	$1, %eax
	xorl	%ecx, %ecx
	cmpq	$0, %rdx
	cmoveq	%rcx, %rax
	.loc	18 2407 9 is_stmt 0
	cmpq	$0, %rax
	jne	LBB38_11
	.loc	18 2409 21 is_stmt 1
	movq	$0, -136(%rbp)
	.loc	18 2409 44 is_stmt 0
	jmp	LBB38_12
LBB38_11:
	.loc	18 2408 18 is_stmt 1
	movq	-128(%rbp), %rax
	movq	%rax, -24(%rbp)
Ltmp289:
	.loc	18 2408 24 is_stmt 0
	movq	%rax, -136(%rbp)
Ltmp290:
LBB38_12:
	.loc	4 155 21 is_stmt 1
	movq	-136(%rbp), %rdx
	xorl	%eax, %eax
	movl	$1, %ecx
	cmpq	$0, %rdx
	cmoveq	%rcx, %rax
	cmpq	$0, %rax
	jne	LBB38_14
	.loc	4 0 21 is_stmt 0
	movq	-192(%rbp), %rcx
	.loc	4 155 21
	movq	-136(%rbp), %rax
	movq	%rax, -16(%rbp)
Ltmp291:
	.loc	4 155 21
	movq	%rax, -8(%rbp)
Ltmp292:
	.loc	4 156 18 is_stmt 1
	movq	%rcx, -120(%rbp)
	movq	%rax, -112(%rbp)
	.loc	4 156 13 is_stmt 0
	movq	-120(%rbp), %rcx
	movq	-112(%rbp), %rax
	movq	%rcx, -168(%rbp)
	movq	%rax, -160(%rbp)
Ltmp293:
	.loc	4 157 10 is_stmt 1
	jmp	LBB38_15
LBB38_14:
Ltmp294:
	.loc	18 2420 21
	movq	$0, -168(%rbp)
Ltmp295:
	.loc	4 157 9
	jmp	LBB38_6
LBB38_15:
	.loc	4 157 10 is_stmt 0
	movq	-168(%rbp), %rax
	movq	-160(%rbp), %rdx
	addq	$192, %rsp
	popq	%rbp
	retq
Ltmp296:
Lfunc_end38:
	.cfi_endproc
	.section	__TEXT,__gcc_except_tab
	.p2align	2
GCC_except_table38:
Lexception5:
	.byte	255
	.byte	255
	.byte	1
	.uleb128 Lcst_end5-Lcst_begin5
Lcst_begin5:
	.uleb128 Lfunc_begin38-Lfunc_begin38
	.uleb128 Ltmp276-Lfunc_begin38
	.byte	0
	.byte	0
	.uleb128 Ltmp276-Lfunc_begin38
	.uleb128 Ltmp277-Ltmp276
	.uleb128 Ltmp278-Lfunc_begin38
	.byte	0
	.uleb128 Ltmp277-Lfunc_begin38
	.uleb128 Lfunc_end38-Ltmp277
	.byte	0
	.byte	0
Lcst_end5:
	.p2align	2

	.section	__TEXT,__text,regular,pure_instructions
	.globl	__ZN115_$LT$core..iter..adapters..take_while..TakeWhile$LT$I$C$P$GT$$u20$as$u20$core..iter..traits..iterator..Iterator$GT$4fold17h0e5fc0f8539da9c9E
	.p2align	4, 0x90
__ZN115_$LT$core..iter..adapters..take_while..TakeWhile$LT$I$C$P$GT$$u20$as$u20$core..iter..traits..iterator..Iterator$GT$4fold17h0e5fc0f8539da9c9E:
Lfunc_begin39:
	.file	19 "/rustc/2c8cc343237b8f7d5a3c3703e3a87f2eb2c54a74/library/core/src/iter" "mod.rs"
	.loc	19 365 0 is_stmt 1
	.cfi_startproc
	.cfi_personality 155, _rust_eh_personality
	.cfi_lsda 16, Lexception6
	pushq	%rbp
	.cfi_def_cfa_offset 16
	.cfi_offset %rbp, -16
	movq	%rsp, %rbp
	.cfi_def_cfa_register %rbp
	subq	$80, %rsp
	movq	%rdi, -64(%rbp)
Ltmp302:
	movq	%rsi, -56(%rbp)
	movq	%rsi, -32(%rbp)
Ltmp303:
	.loc	19 372 17 prologue_end
	movb	$1, -33(%rbp)
Ltmp297:
	leaq	-40(%rbp), %rdi
Ltmp304:
	.loc	19 372 24 is_stmt 0
	callq	__ZN4core13const_closure60ConstFnMutClosure$LT$$RF$mut$u20$CapturedData$C$Function$GT$3new17h4a71f251d057232cE
Ltmp298:
	movq	%rax, -48(%rbp)
Ltmp305:
	jmp	LBB39_3
Ltmp306:
LBB39_1:
	.loc	19 374 9 is_stmt 1
	jmp	LBB39_5
Ltmp307:
LBB39_2:
Ltmp301:
	.loc	19 0 9 is_stmt 0
	movq	%rax, %rcx
	movl	%edx, %eax
	movq	%rcx, -24(%rbp)
	movl	%eax, -16(%rbp)
	jmp	LBB39_1
Ltmp308:
LBB39_3:
	movq	-48(%rbp), %rdx
	movq	-56(%rbp), %rsi
	movq	-64(%rbp), %rdi
	.loc	19 372 24 is_stmt 1
	movq	%rdx, -8(%rbp)
Ltmp309:
	.loc	19 373 28
	movb	$0, -33(%rbp)
Ltmp299:
	.loc	19 373 13 is_stmt 0
	callq	__ZN115_$LT$core..iter..adapters..take_while..TakeWhile$LT$I$C$P$GT$$u20$as$u20$core..iter..traits..iterator..Iterator$GT$8try_fold17h023c442fc55f8eeaE
Ltmp300:
	movq	%rax, -72(%rbp)
	jmp	LBB39_4
Ltmp310:
LBB39_4:
	.loc	19 374 9 is_stmt 1
	jmp	LBB39_6
Ltmp311:
LBB39_5:
	testb	$1, -33(%rbp)
	jne	LBB39_8
	jmp	LBB39_7
Ltmp312:
LBB39_6:
	.loc	19 0 9 is_stmt 0
	movq	-72(%rbp), %rax
	.loc	19 374 10
	addq	$80, %rsp
	popq	%rbp
	retq
Ltmp313:
LBB39_7:
	.loc	19 365 9 is_stmt 1
	movq	-24(%rbp), %rdi
	callq	__Unwind_Resume
Ltmp314:
LBB39_8:
	.loc	19 374 9
	jmp	LBB39_7
Ltmp315:
Lfunc_end39:
	.cfi_endproc
	.section	__TEXT,__gcc_except_tab
	.p2align	2
GCC_except_table39:
Lexception6:
	.byte	255
	.byte	255
	.byte	1
	.uleb128 Lcst_end6-Lcst_begin6
Lcst_begin6:
	.uleb128 Ltmp297-Lfunc_begin39
	.uleb128 Ltmp300-Ltmp297
	.uleb128 Ltmp301-Lfunc_begin39
	.byte	0
	.uleb128 Ltmp300-Lfunc_begin39
	.uleb128 Lfunc_end39-Ltmp300
	.byte	0
	.byte	0
Lcst_end6:
	.p2align	2

	.section	__TEXT,__text,regular,pure_instructions
	.globl	__ZN115_$LT$core..iter..adapters..take_while..TakeWhile$LT$I$C$P$GT$$u20$as$u20$core..iter..traits..iterator..Iterator$GT$4fold17h212b419ba348be2aE
	.p2align	4, 0x90
__ZN115_$LT$core..iter..adapters..take_while..TakeWhile$LT$I$C$P$GT$$u20$as$u20$core..iter..traits..iterator..Iterator$GT$4fold17h212b419ba348be2aE:
Lfunc_begin40:
	.loc	19 365 0
	.cfi_startproc
	.cfi_personality 155, _rust_eh_personality
	.cfi_lsda 16, Lexception7
	pushq	%rbp
	.cfi_def_cfa_offset 16
	.cfi_offset %rbp, -16
	movq	%rsp, %rbp
	.cfi_def_cfa_register %rbp
	subq	$80, %rsp
	movq	%rdi, -64(%rbp)
Ltmp321:
	movq	%rsi, -56(%rbp)
	movq	%rsi, -32(%rbp)
Ltmp322:
	.loc	19 372 17 prologue_end
	movb	$1, -33(%rbp)
Ltmp316:
	leaq	-40(%rbp), %rdi
Ltmp323:
	.loc	19 372 24 is_stmt 0
	callq	__ZN4core13const_closure60ConstFnMutClosure$LT$$RF$mut$u20$CapturedData$C$Function$GT$3new17h62f1e70622002fc3E
Ltmp317:
	movq	%rax, -48(%rbp)
Ltmp324:
	jmp	LBB40_3
Ltmp325:
LBB40_1:
	.loc	19 374 9 is_stmt 1
	jmp	LBB40_5
Ltmp326:
LBB40_2:
Ltmp320:
	.loc	19 0 9 is_stmt 0
	movq	%rax, %rcx
	movl	%edx, %eax
	movq	%rcx, -24(%rbp)
	movl	%eax, -16(%rbp)
	jmp	LBB40_1
Ltmp327:
LBB40_3:
	movq	-48(%rbp), %rdx
	movq	-56(%rbp), %rsi
	movq	-64(%rbp), %rdi
	.loc	19 372 24 is_stmt 1
	movq	%rdx, -8(%rbp)
Ltmp328:
	.loc	19 373 28
	movb	$0, -33(%rbp)
Ltmp318:
	.loc	19 373 13 is_stmt 0
	callq	__ZN115_$LT$core..iter..adapters..take_while..TakeWhile$LT$I$C$P$GT$$u20$as$u20$core..iter..traits..iterator..Iterator$GT$8try_fold17h4d3a74df3690756eE
Ltmp319:
	movq	%rax, -72(%rbp)
	jmp	LBB40_4
Ltmp329:
LBB40_4:
	.loc	19 374 9 is_stmt 1
	jmp	LBB40_6
Ltmp330:
LBB40_5:
	testb	$1, -33(%rbp)
	jne	LBB40_8
	jmp	LBB40_7
Ltmp331:
LBB40_6:
	.loc	19 0 9 is_stmt 0
	movq	-72(%rbp), %rax
	.loc	19 374 10
	addq	$80, %rsp
	popq	%rbp
	retq
Ltmp332:
LBB40_7:
	.loc	19 365 9 is_stmt 1
	movq	-24(%rbp), %rdi
	callq	__Unwind_Resume
Ltmp333:
LBB40_8:
	.loc	19 374 9
	jmp	LBB40_7
Ltmp334:
Lfunc_end40:
	.cfi_endproc
	.section	__TEXT,__gcc_except_tab
	.p2align	2
GCC_except_table40:
Lexception7:
	.byte	255
	.byte	255
	.byte	1
	.uleb128 Lcst_end7-Lcst_begin7
Lcst_begin7:
	.uleb128 Ltmp316-Lfunc_begin40
	.uleb128 Ltmp319-Ltmp316
	.uleb128 Ltmp320-Lfunc_begin40
	.byte	0
	.uleb128 Ltmp319-Lfunc_begin40
	.uleb128 Lfunc_end40-Ltmp319
	.byte	0
	.byte	0
Lcst_end7:
	.p2align	2

	.section	__TEXT,__text,regular,pure_instructions
	.globl	__ZN115_$LT$core..iter..adapters..take_while..TakeWhile$LT$I$C$P$GT$$u20$as$u20$core..iter..traits..iterator..Iterator$GT$4fold17hdc6e126cd02494afE
	.p2align	4, 0x90
__ZN115_$LT$core..iter..adapters..take_while..TakeWhile$LT$I$C$P$GT$$u20$as$u20$core..iter..traits..iterator..Iterator$GT$4fold17hdc6e126cd02494afE:
Lfunc_begin41:
	.loc	19 365 0
	.cfi_startproc
	.cfi_personality 155, _rust_eh_personality
	.cfi_lsda 16, Lexception8
	pushq	%rbp
	.cfi_def_cfa_offset 16
	.cfi_offset %rbp, -16
	movq	%rsp, %rbp
	.cfi_def_cfa_register %rbp
	subq	$80, %rsp
	movq	%rdi, -64(%rbp)
Ltmp340:
	movq	%rsi, -56(%rbp)
	movq	%rsi, -32(%rbp)
Ltmp341:
	.loc	19 372 17 prologue_end
	movb	$1, -33(%rbp)
Ltmp335:
	leaq	-40(%rbp), %rdi
Ltmp342:
	.loc	19 372 24 is_stmt 0
	callq	__ZN4core13const_closure60ConstFnMutClosure$LT$$RF$mut$u20$CapturedData$C$Function$GT$3new17h6d86f186de4159e4E
Ltmp336:
	movq	%rax, -48(%rbp)
Ltmp343:
	jmp	LBB41_3
Ltmp344:
LBB41_1:
	.loc	19 374 9 is_stmt 1
	jmp	LBB41_5
Ltmp345:
LBB41_2:
Ltmp339:
	.loc	19 0 9 is_stmt 0
	movq	%rax, %rcx
	movl	%edx, %eax
	movq	%rcx, -24(%rbp)
	movl	%eax, -16(%rbp)
	jmp	LBB41_1
Ltmp346:
LBB41_3:
	movq	-48(%rbp), %rdx
	movq	-56(%rbp), %rsi
	movq	-64(%rbp), %rdi
	.loc	19 372 24 is_stmt 1
	movq	%rdx, -8(%rbp)
Ltmp347:
	.loc	19 373 28
	movb	$0, -33(%rbp)
Ltmp337:
	.loc	19 373 13 is_stmt 0
	callq	__ZN115_$LT$core..iter..adapters..take_while..TakeWhile$LT$I$C$P$GT$$u20$as$u20$core..iter..traits..iterator..Iterator$GT$8try_fold17h9e528a229eaa3f77E
Ltmp338:
	movq	%rax, -72(%rbp)
	jmp	LBB41_4
Ltmp348:
LBB41_4:
	.loc	19 374 9 is_stmt 1
	jmp	LBB41_6
Ltmp349:
LBB41_5:
	testb	$1, -33(%rbp)
	jne	LBB41_8
	jmp	LBB41_7
Ltmp350:
LBB41_6:
	.loc	19 0 9 is_stmt 0
	movq	-72(%rbp), %rax
	.loc	19 374 10
	addq	$80, %rsp
	popq	%rbp
	retq
Ltmp351:
LBB41_7:
	.loc	19 365 9 is_stmt 1
	movq	-24(%rbp), %rdi
	callq	__Unwind_Resume
Ltmp352:
LBB41_8:
	.loc	19 374 9
	jmp	LBB41_7
Ltmp353:
Lfunc_end41:
	.cfi_endproc
	.section	__TEXT,__gcc_except_tab
	.p2align	2
GCC_except_table41:
Lexception8:
	.byte	255
	.byte	255
	.byte	1
	.uleb128 Lcst_end8-Lcst_begin8
Lcst_begin8:
	.uleb128 Ltmp335-Lfunc_begin41
	.uleb128 Ltmp338-Ltmp335
	.uleb128 Ltmp339-Lfunc_begin41
	.byte	0
	.uleb128 Ltmp338-Lfunc_begin41
	.uleb128 Lfunc_end41-Ltmp338
	.byte	0
	.byte	0
Lcst_end8:
	.p2align	2

	.section	__TEXT,__text,regular,pure_instructions
	.globl	__ZN115_$LT$core..iter..adapters..take_while..TakeWhile$LT$I$C$P$GT$$u20$as$u20$core..iter..traits..iterator..Iterator$GT$4fold17he9fcf70d75d84dd1E
	.p2align	4, 0x90
__ZN115_$LT$core..iter..adapters..take_while..TakeWhile$LT$I$C$P$GT$$u20$as$u20$core..iter..traits..iterator..Iterator$GT$4fold17he9fcf70d75d84dd1E:
Lfunc_begin42:
	.loc	19 365 0
	.cfi_startproc
	.cfi_personality 155, _rust_eh_personality
	.cfi_lsda 16, Lexception9
	pushq	%rbp
	.cfi_def_cfa_offset 16
	.cfi_offset %rbp, -16
	movq	%rsp, %rbp
	.cfi_def_cfa_register %rbp
	subq	$80, %rsp
	movq	%rdi, -64(%rbp)
Ltmp359:
	movq	%rsi, -56(%rbp)
	movq	%rsi, -32(%rbp)
Ltmp360:
	.loc	19 372 17 prologue_end
	movb	$1, -33(%rbp)
Ltmp354:
	leaq	-40(%rbp), %rdi
Ltmp361:
	.loc	19 372 24 is_stmt 0
	callq	__ZN4core13const_closure60ConstFnMutClosure$LT$$RF$mut$u20$CapturedData$C$Function$GT$3new17h1c688be955eb854bE
Ltmp355:
	movq	%rax, -48(%rbp)
Ltmp362:
	jmp	LBB42_3
Ltmp363:
LBB42_1:
	.loc	19 374 9 is_stmt 1
	jmp	LBB42_5
Ltmp364:
LBB42_2:
Ltmp358:
	.loc	19 0 9 is_stmt 0
	movq	%rax, %rcx
	movl	%edx, %eax
	movq	%rcx, -24(%rbp)
	movl	%eax, -16(%rbp)
	jmp	LBB42_1
Ltmp365:
LBB42_3:
	movq	-48(%rbp), %rdx
	movq	-56(%rbp), %rsi
	movq	-64(%rbp), %rdi
	.loc	19 372 24 is_stmt 1
	movq	%rdx, -8(%rbp)
Ltmp366:
	.loc	19 373 28
	movb	$0, -33(%rbp)
Ltmp356:
	.loc	19 373 13 is_stmt 0
	callq	__ZN115_$LT$core..iter..adapters..take_while..TakeWhile$LT$I$C$P$GT$$u20$as$u20$core..iter..traits..iterator..Iterator$GT$8try_fold17hbfdcf6051dda627eE
Ltmp357:
	movq	%rax, -72(%rbp)
	jmp	LBB42_4
Ltmp367:
LBB42_4:
	.loc	19 374 9 is_stmt 1
	jmp	LBB42_6
Ltmp368:
LBB42_5:
	testb	$1, -33(%rbp)
	jne	LBB42_8
	jmp	LBB42_7
Ltmp369:
LBB42_6:
	.loc	19 0 9 is_stmt 0
	movq	-72(%rbp), %rax
	.loc	19 374 10
	addq	$80, %rsp
	popq	%rbp
	retq
Ltmp370:
LBB42_7:
	.loc	19 365 9 is_stmt 1
	movq	-24(%rbp), %rdi
	callq	__Unwind_Resume
Ltmp371:
LBB42_8:
	.loc	19 374 9
	jmp	LBB42_7
Ltmp372:
Lfunc_end42:
	.cfi_endproc
	.section	__TEXT,__gcc_except_tab
	.p2align	2
GCC_except_table42:
Lexception9:
	.byte	255
	.byte	255
	.byte	1
	.uleb128 Lcst_end9-Lcst_begin9
Lcst_begin9:
	.uleb128 Ltmp354-Lfunc_begin42
	.uleb128 Ltmp357-Ltmp354
	.uleb128 Ltmp358-Lfunc_begin42
	.byte	0
	.uleb128 Ltmp357-Lfunc_begin42
	.uleb128 Lfunc_end42-Ltmp357
	.byte	0
	.byte	0
Lcst_end9:
	.p2align	2

	.section	__TEXT,__text,regular,pure_instructions
	.globl	__ZN115_$LT$core..iter..adapters..take_while..TakeWhile$LT$I$C$P$GT$$u20$as$u20$core..iter..traits..iterator..Iterator$GT$8try_fold17h023c442fc55f8eeaE
	.p2align	4, 0x90
__ZN115_$LT$core..iter..adapters..take_while..TakeWhile$LT$I$C$P$GT$$u20$as$u20$core..iter..traits..iterator..Iterator$GT$8try_fold17h023c442fc55f8eeaE:
Lfunc_begin43:
	.file	20 "/rustc/2c8cc343237b8f7d5a3c3703e3a87f2eb2c54a74/library/core/src/iter/adapters" "take_while.rs"
	.loc	20 67 0
	.cfi_startproc
	.cfi_personality 155, _rust_eh_personality
	.cfi_lsda 16, Lexception10
	pushq	%rbp
	.cfi_def_cfa_offset 16
	.cfi_offset %rbp, -16
	movq	%rsp, %rbp
	.cfi_def_cfa_register %rbp
	subq	$160, %rsp
	movq	%rdi, -120(%rbp)
	movq	%rsi, -112(%rbp)
	movq	%rdx, -104(%rbp)
	movq	%rdi, -56(%rbp)
	movq	%rsi, -48(%rbp)
	movq	%rdx, -40(%rbp)
Ltmp383:
	.loc	20 88 12 prologue_end
	movb	$1, -58(%rbp)
	testb	$1, 16(%rdi)
	jne	LBB43_2
	.loc	20 0 12 is_stmt 0
	movq	-104(%rbp), %rcx
	movq	-120(%rbp), %rdx
	.loc	20 91 24 is_stmt 1
	movq	%rdx, %rsi
	addq	$16, %rsi
	movq	%rsi, -16(%rbp)
Ltmp384:
	.loc	20 92 21
	movq	%rdx, -8(%rbp)
Ltmp385:
	.loc	20 93 32
	movb	$1, -57(%rbp)
	.loc	20 93 53 is_stmt 0
	movb	$0, -58(%rbp)
Ltmp373:
	leaq	-88(%rbp), %rdi
	.loc	20 93 38
	callq	__ZN115_$LT$core..iter..adapters..take_while..TakeWhile$LT$I$C$P$GT$$u20$as$u20$core..iter..traits..iterator..Iterator$GT$8try_fold5check17hb3245dd9201493d0E
Ltmp374:
	jmp	LBB43_9
Ltmp386:
LBB43_2:
Ltmp380:
	.loc	20 0 38
	movq	-112(%rbp), %rdi
	.loc	20 89 19 is_stmt 1
	callq	__ZN94_$LT$core..ops..try_trait..NeverShortCircuit$LT$T$GT$$u20$as$u20$core..ops..try_trait..Try$GT$11from_output17h2c5bdd2f52709c54E
Ltmp381:
	movq	%rax, -128(%rbp)
	jmp	LBB43_5
LBB43_3:
	.loc	20 95 5
	testb	$1, -58(%rbp)
	jne	LBB43_14
	jmp	LBB43_13
LBB43_4:
Ltmp382:
	.loc	20 0 5 is_stmt 0
	movq	%rax, %rcx
	movl	%edx, %eax
	movq	%rcx, -32(%rbp)
	movl	%eax, -24(%rbp)
	jmp	LBB43_3
LBB43_5:
	movq	-128(%rbp), %rax
	.loc	20 89 19 is_stmt 1
	movq	%rax, -96(%rbp)
LBB43_6:
	.loc	20 95 5
	testb	$1, -58(%rbp)
	jne	LBB43_16
	jmp	LBB43_15
LBB43_7:
Ltmp387:
	.loc	20 93 58
	testb	$1, -57(%rbp)
	jne	LBB43_11
	jmp	LBB43_3
LBB43_8:
Ltmp377:
	.loc	20 0 58 is_stmt 0
	movq	%rax, %rcx
	movl	%edx, %eax
	movq	%rcx, -32(%rbp)
	movl	%eax, -24(%rbp)
	jmp	LBB43_7
LBB43_9:
	movq	-112(%rbp), %rsi
	movq	-120(%rbp), %rdi
	.loc	20 93 13
	movb	$0, -57(%rbp)
Ltmp375:
	leaq	-88(%rbp), %rdx
	callq	__ZN98_$LT$core..iter..adapters..rev..Rev$LT$I$GT$$u20$as$u20$core..iter..traits..iterator..Iterator$GT$8try_fold17h73fd105935cfd96dE
Ltmp376:
	movq	%rdx, -144(%rbp)
	movq	%rax, -136(%rbp)
	jmp	LBB43_10
LBB43_10:
Ltmp378:
	.loc	20 0 13
	movq	-144(%rbp), %rsi
	movq	-136(%rbp), %rdi
	.loc	20 93 13
	callq	__ZN4core3ops12control_flow77ControlFlow$LT$R$C$$LT$R$u20$as$u20$core..ops..try_trait..Try$GT$..Output$GT$8into_try17h19ec0e3a014daf30E
Ltmp379:
	movq	%rax, -152(%rbp)
	jmp	LBB43_12
LBB43_11:
	.loc	20 93 58
	jmp	LBB43_3
LBB43_12:
	.loc	20 0 58
	movq	-152(%rbp), %rax
	.loc	20 93 13
	movq	%rax, -96(%rbp)
Ltmp388:
	.loc	20 88 9 is_stmt 1
	jmp	LBB43_6
LBB43_13:
	.loc	20 67 5
	movq	-32(%rbp), %rdi
	callq	__Unwind_Resume
LBB43_14:
	.loc	20 95 5
	jmp	LBB43_13
LBB43_15:
	.loc	20 95 6 is_stmt 0
	movq	-96(%rbp), %rax
	addq	$160, %rsp
	popq	%rbp
	retq
LBB43_16:
	.loc	20 95 5
	jmp	LBB43_15
Ltmp389:
Lfunc_end43:
	.cfi_endproc
	.section	__TEXT,__gcc_except_tab
	.p2align	2
GCC_except_table43:
Lexception10:
	.byte	255
	.byte	255
	.byte	1
	.uleb128 Lcst_end10-Lcst_begin10
Lcst_begin10:
	.uleb128 Ltmp373-Lfunc_begin43
	.uleb128 Ltmp374-Ltmp373
	.uleb128 Ltmp377-Lfunc_begin43
	.byte	0
	.uleb128 Ltmp380-Lfunc_begin43
	.uleb128 Ltmp381-Ltmp380
	.uleb128 Ltmp382-Lfunc_begin43
	.byte	0
	.uleb128 Ltmp375-Lfunc_begin43
	.uleb128 Ltmp376-Ltmp375
	.uleb128 Ltmp377-Lfunc_begin43
	.byte	0
	.uleb128 Ltmp378-Lfunc_begin43
	.uleb128 Ltmp379-Ltmp378
	.uleb128 Ltmp382-Lfunc_begin43
	.byte	0
	.uleb128 Ltmp379-Lfunc_begin43
	.uleb128 Lfunc_end43-Ltmp379
	.byte	0
	.byte	0
Lcst_end10:
	.p2align	2

	.section	__TEXT,__text,regular,pure_instructions
	.globl	__ZN115_$LT$core..iter..adapters..take_while..TakeWhile$LT$I$C$P$GT$$u20$as$u20$core..iter..traits..iterator..Iterator$GT$8try_fold17h4d3a74df3690756eE
	.p2align	4, 0x90
__ZN115_$LT$core..iter..adapters..take_while..TakeWhile$LT$I$C$P$GT$$u20$as$u20$core..iter..traits..iterator..Iterator$GT$8try_fold17h4d3a74df3690756eE:
Lfunc_begin44:
	.loc	20 67 0 is_stmt 1
	.cfi_startproc
	.cfi_personality 155, _rust_eh_personality
	.cfi_lsda 16, Lexception11
	pushq	%rbp
	.cfi_def_cfa_offset 16
	.cfi_offset %rbp, -16
	movq	%rsp, %rbp
	.cfi_def_cfa_register %rbp
	subq	$160, %rsp
	movq	%rdi, -120(%rbp)
	movq	%rsi, -112(%rbp)
	movq	%rdx, -104(%rbp)
	movq	%rdi, -56(%rbp)
	movq	%rsi, -48(%rbp)
	movq	%rdx, -40(%rbp)
Ltmp400:
	.loc	20 88 12 prologue_end
	movb	$1, -58(%rbp)
	testb	$1, 24(%rdi)
	jne	LBB44_2
	.loc	20 0 12 is_stmt 0
	movq	-104(%rbp), %rcx
	movq	-120(%rbp), %rdx
	.loc	20 91 24 is_stmt 1
	movq	%rdx, %rsi
	addq	$24, %rsi
	movq	%rsi, -16(%rbp)
Ltmp401:
	.loc	20 92 21
	addq	$16, %rdx
	movq	%rdx, -8(%rbp)
Ltmp402:
	.loc	20 93 32
	movb	$1, -57(%rbp)
	.loc	20 93 53 is_stmt 0
	movb	$0, -58(%rbp)
Ltmp390:
	leaq	-88(%rbp), %rdi
	.loc	20 93 38
	callq	__ZN115_$LT$core..iter..adapters..take_while..TakeWhile$LT$I$C$P$GT$$u20$as$u20$core..iter..traits..iterator..Iterator$GT$8try_fold5check17h9e5624bbcabaf2c5E
Ltmp391:
	jmp	LBB44_9
Ltmp403:
LBB44_2:
Ltmp397:
	.loc	20 0 38
	movq	-112(%rbp), %rdi
	.loc	20 89 19 is_stmt 1
	callq	__ZN94_$LT$core..ops..try_trait..NeverShortCircuit$LT$T$GT$$u20$as$u20$core..ops..try_trait..Try$GT$11from_output17h2c5bdd2f52709c54E
Ltmp398:
	movq	%rax, -128(%rbp)
	jmp	LBB44_5
LBB44_3:
	.loc	20 95 5
	testb	$1, -58(%rbp)
	jne	LBB44_14
	jmp	LBB44_13
LBB44_4:
Ltmp399:
	.loc	20 0 5 is_stmt 0
	movq	%rax, %rcx
	movl	%edx, %eax
	movq	%rcx, -32(%rbp)
	movl	%eax, -24(%rbp)
	jmp	LBB44_3
LBB44_5:
	movq	-128(%rbp), %rax
	.loc	20 89 19 is_stmt 1
	movq	%rax, -96(%rbp)
LBB44_6:
	.loc	20 95 5
	testb	$1, -58(%rbp)
	jne	LBB44_16
	jmp	LBB44_15
LBB44_7:
Ltmp404:
	.loc	20 93 58
	testb	$1, -57(%rbp)
	jne	LBB44_11
	jmp	LBB44_3
LBB44_8:
Ltmp394:
	.loc	20 0 58 is_stmt 0
	movq	%rax, %rcx
	movl	%edx, %eax
	movq	%rcx, -32(%rbp)
	movl	%eax, -24(%rbp)
	jmp	LBB44_7
LBB44_9:
	movq	-112(%rbp), %rsi
	movq	-120(%rbp), %rdi
	.loc	20 93 13
	movb	$0, -57(%rbp)
Ltmp392:
	leaq	-88(%rbp), %rdx
	callq	__ZN4core4iter6traits8iterator8Iterator8try_fold17hbfc08d1aa205a8b0E
Ltmp393:
	movq	%rdx, -144(%rbp)
	movq	%rax, -136(%rbp)
	jmp	LBB44_10
LBB44_10:
Ltmp395:
	.loc	20 0 13
	movq	-144(%rbp), %rsi
	movq	-136(%rbp), %rdi
	.loc	20 93 13
	callq	__ZN4core3ops12control_flow77ControlFlow$LT$R$C$$LT$R$u20$as$u20$core..ops..try_trait..Try$GT$..Output$GT$8into_try17h19ec0e3a014daf30E
Ltmp396:
	movq	%rax, -152(%rbp)
	jmp	LBB44_12
LBB44_11:
	.loc	20 93 58
	jmp	LBB44_3
LBB44_12:
	.loc	20 0 58
	movq	-152(%rbp), %rax
	.loc	20 93 13
	movq	%rax, -96(%rbp)
Ltmp405:
	.loc	20 88 9 is_stmt 1
	jmp	LBB44_6
LBB44_13:
	.loc	20 67 5
	movq	-32(%rbp), %rdi
	callq	__Unwind_Resume
LBB44_14:
	.loc	20 95 5
	jmp	LBB44_13
LBB44_15:
	.loc	20 95 6 is_stmt 0
	movq	-96(%rbp), %rax
	addq	$160, %rsp
	popq	%rbp
	retq
LBB44_16:
	.loc	20 95 5
	jmp	LBB44_15
Ltmp406:
Lfunc_end44:
	.cfi_endproc
	.section	__TEXT,__gcc_except_tab
	.p2align	2
GCC_except_table44:
Lexception11:
	.byte	255
	.byte	255
	.byte	1
	.uleb128 Lcst_end11-Lcst_begin11
Lcst_begin11:
	.uleb128 Ltmp390-Lfunc_begin44
	.uleb128 Ltmp391-Ltmp390
	.uleb128 Ltmp394-Lfunc_begin44
	.byte	0
	.uleb128 Ltmp397-Lfunc_begin44
	.uleb128 Ltmp398-Ltmp397
	.uleb128 Ltmp399-Lfunc_begin44
	.byte	0
	.uleb128 Ltmp392-Lfunc_begin44
	.uleb128 Ltmp393-Ltmp392
	.uleb128 Ltmp394-Lfunc_begin44
	.byte	0
	.uleb128 Ltmp395-Lfunc_begin44
	.uleb128 Ltmp396-Ltmp395
	.uleb128 Ltmp399-Lfunc_begin44
	.byte	0
	.uleb128 Ltmp396-Lfunc_begin44
	.uleb128 Lfunc_end44-Ltmp396
	.byte	0
	.byte	0
Lcst_end11:
	.p2align	2

	.section	__TEXT,__text,regular,pure_instructions
	.globl	__ZN115_$LT$core..iter..adapters..take_while..TakeWhile$LT$I$C$P$GT$$u20$as$u20$core..iter..traits..iterator..Iterator$GT$8try_fold17h9e528a229eaa3f77E
	.p2align	4, 0x90
__ZN115_$LT$core..iter..adapters..take_while..TakeWhile$LT$I$C$P$GT$$u20$as$u20$core..iter..traits..iterator..Iterator$GT$8try_fold17h9e528a229eaa3f77E:
Lfunc_begin45:
	.loc	20 67 0 is_stmt 1
	.cfi_startproc
	.cfi_personality 155, _rust_eh_personality
	.cfi_lsda 16, Lexception12
	pushq	%rbp
	.cfi_def_cfa_offset 16
	.cfi_offset %rbp, -16
	movq	%rsp, %rbp
	.cfi_def_cfa_register %rbp
	subq	$160, %rsp
	movq	%rdi, -120(%rbp)
	movq	%rsi, -112(%rbp)
	movq	%rdx, -104(%rbp)
	movq	%rdi, -56(%rbp)
	movq	%rsi, -48(%rbp)
	movq	%rdx, -40(%rbp)
Ltmp417:
	.loc	20 88 12 prologue_end
	movb	$1, -58(%rbp)
	testb	$1, 16(%rdi)
	jne	LBB45_2
	.loc	20 0 12 is_stmt 0
	movq	-104(%rbp), %rcx
	movq	-120(%rbp), %rdx
	.loc	20 91 24 is_stmt 1
	movq	%rdx, %rsi
	addq	$16, %rsi
	movq	%rsi, -16(%rbp)
Ltmp418:
	.loc	20 92 21
	movq	%rdx, -8(%rbp)
Ltmp419:
	.loc	20 93 32
	movb	$1, -57(%rbp)
	.loc	20 93 53 is_stmt 0
	movb	$0, -58(%rbp)
Ltmp407:
	leaq	-88(%rbp), %rdi
	.loc	20 93 38
	callq	__ZN115_$LT$core..iter..adapters..take_while..TakeWhile$LT$I$C$P$GT$$u20$as$u20$core..iter..traits..iterator..Iterator$GT$8try_fold5check17h61fce3a51a93d98aE
Ltmp408:
	jmp	LBB45_9
Ltmp420:
LBB45_2:
Ltmp414:
	.loc	20 0 38
	movq	-112(%rbp), %rdi
	.loc	20 89 19 is_stmt 1
	callq	__ZN94_$LT$core..ops..try_trait..NeverShortCircuit$LT$T$GT$$u20$as$u20$core..ops..try_trait..Try$GT$11from_output17h2c5bdd2f52709c54E
Ltmp415:
	movq	%rax, -128(%rbp)
	jmp	LBB45_5
LBB45_3:
	.loc	20 95 5
	testb	$1, -58(%rbp)
	jne	LBB45_14
	jmp	LBB45_13
LBB45_4:
Ltmp416:
	.loc	20 0 5 is_stmt 0
	movq	%rax, %rcx
	movl	%edx, %eax
	movq	%rcx, -32(%rbp)
	movl	%eax, -24(%rbp)
	jmp	LBB45_3
LBB45_5:
	movq	-128(%rbp), %rax
	.loc	20 89 19 is_stmt 1
	movq	%rax, -96(%rbp)
LBB45_6:
	.loc	20 95 5
	testb	$1, -58(%rbp)
	jne	LBB45_16
	jmp	LBB45_15
LBB45_7:
Ltmp421:
	.loc	20 93 58
	testb	$1, -57(%rbp)
	jne	LBB45_11
	jmp	LBB45_3
LBB45_8:
Ltmp411:
	.loc	20 0 58 is_stmt 0
	movq	%rax, %rcx
	movl	%edx, %eax
	movq	%rcx, -32(%rbp)
	movl	%eax, -24(%rbp)
	jmp	LBB45_7
LBB45_9:
	movq	-112(%rbp), %rsi
	movq	-120(%rbp), %rdi
	.loc	20 93 13
	movb	$0, -57(%rbp)
Ltmp409:
	leaq	-88(%rbp), %rdx
	callq	__ZN98_$LT$core..iter..adapters..rev..Rev$LT$I$GT$$u20$as$u20$core..iter..traits..iterator..Iterator$GT$8try_fold17h885ec3fbe30f5ae2E
Ltmp410:
	movq	%rdx, -144(%rbp)
	movq	%rax, -136(%rbp)
	jmp	LBB45_10
LBB45_10:
Ltmp412:
	.loc	20 0 13
	movq	-144(%rbp), %rsi
	movq	-136(%rbp), %rdi
	.loc	20 93 13
	callq	__ZN4core3ops12control_flow77ControlFlow$LT$R$C$$LT$R$u20$as$u20$core..ops..try_trait..Try$GT$..Output$GT$8into_try17h19ec0e3a014daf30E
Ltmp413:
	movq	%rax, -152(%rbp)
	jmp	LBB45_12
LBB45_11:
	.loc	20 93 58
	jmp	LBB45_3
LBB45_12:
	.loc	20 0 58
	movq	-152(%rbp), %rax
	.loc	20 93 13
	movq	%rax, -96(%rbp)
Ltmp422:
	.loc	20 88 9 is_stmt 1
	jmp	LBB45_6
LBB45_13:
	.loc	20 67 5
	movq	-32(%rbp), %rdi
	callq	__Unwind_Resume
LBB45_14:
	.loc	20 95 5
	jmp	LBB45_13
LBB45_15:
	.loc	20 95 6 is_stmt 0
	movq	-96(%rbp), %rax
	addq	$160, %rsp
	popq	%rbp
	retq
LBB45_16:
	.loc	20 95 5
	jmp	LBB45_15
Ltmp423:
Lfunc_end45:
	.cfi_endproc
	.section	__TEXT,__gcc_except_tab
	.p2align	2
GCC_except_table45:
Lexception12:
	.byte	255
	.byte	255
	.byte	1
	.uleb128 Lcst_end12-Lcst_begin12
Lcst_begin12:
	.uleb128 Ltmp407-Lfunc_begin45
	.uleb128 Ltmp408-Ltmp407
	.uleb128 Ltmp411-Lfunc_begin45
	.byte	0
	.uleb128 Ltmp414-Lfunc_begin45
	.uleb128 Ltmp415-Ltmp414
	.uleb128 Ltmp416-Lfunc_begin45
	.byte	0
	.uleb128 Ltmp409-Lfunc_begin45
	.uleb128 Ltmp410-Ltmp409
	.uleb128 Ltmp411-Lfunc_begin45
	.byte	0
	.uleb128 Ltmp412-Lfunc_begin45
	.uleb128 Ltmp413-Ltmp412
	.uleb128 Ltmp416-Lfunc_begin45
	.byte	0
	.uleb128 Ltmp413-Lfunc_begin45
	.uleb128 Lfunc_end45-Ltmp413
	.byte	0
	.byte	0
Lcst_end12:
	.p2align	2

	.section	__TEXT,__text,regular,pure_instructions
	.globl	__ZN115_$LT$core..iter..adapters..take_while..TakeWhile$LT$I$C$P$GT$$u20$as$u20$core..iter..traits..iterator..Iterator$GT$8try_fold17hbfdcf6051dda627eE
	.p2align	4, 0x90
__ZN115_$LT$core..iter..adapters..take_while..TakeWhile$LT$I$C$P$GT$$u20$as$u20$core..iter..traits..iterator..Iterator$GT$8try_fold17hbfdcf6051dda627eE:
Lfunc_begin46:
	.loc	20 67 0 is_stmt 1
	.cfi_startproc
	.cfi_personality 155, _rust_eh_personality
	.cfi_lsda 16, Lexception13
	pushq	%rbp
	.cfi_def_cfa_offset 16
	.cfi_offset %rbp, -16
	movq	%rsp, %rbp
	.cfi_def_cfa_register %rbp
	subq	$160, %rsp
	movq	%rdi, -120(%rbp)
	movq	%rsi, -112(%rbp)
	movq	%rdx, -104(%rbp)
	movq	%rdi, -56(%rbp)
	movq	%rsi, -48(%rbp)
	movq	%rdx, -40(%rbp)
Ltmp434:
	.loc	20 88 12 prologue_end
	movb	$1, -58(%rbp)
	testb	$1, 24(%rdi)
	jne	LBB46_2
	.loc	20 0 12 is_stmt 0
	movq	-104(%rbp), %rcx
	movq	-120(%rbp), %rdx
	.loc	20 91 24 is_stmt 1
	movq	%rdx, %rsi
	addq	$24, %rsi
	movq	%rsi, -16(%rbp)
Ltmp435:
	.loc	20 92 21
	addq	$16, %rdx
	movq	%rdx, -8(%rbp)
Ltmp436:
	.loc	20 93 32
	movb	$1, -57(%rbp)
	.loc	20 93 53 is_stmt 0
	movb	$0, -58(%rbp)
Ltmp424:
	leaq	-88(%rbp), %rdi
	.loc	20 93 38
	callq	__ZN115_$LT$core..iter..adapters..take_while..TakeWhile$LT$I$C$P$GT$$u20$as$u20$core..iter..traits..iterator..Iterator$GT$8try_fold5check17he5bf3e62adfca7d9E
Ltmp425:
	jmp	LBB46_9
Ltmp437:
LBB46_2:
Ltmp431:
	.loc	20 0 38
	movq	-112(%rbp), %rdi
	.loc	20 89 19 is_stmt 1
	callq	__ZN94_$LT$core..ops..try_trait..NeverShortCircuit$LT$T$GT$$u20$as$u20$core..ops..try_trait..Try$GT$11from_output17h2c5bdd2f52709c54E
Ltmp432:
	movq	%rax, -128(%rbp)
	jmp	LBB46_5
LBB46_3:
	.loc	20 95 5
	testb	$1, -58(%rbp)
	jne	LBB46_14
	jmp	LBB46_13
LBB46_4:
Ltmp433:
	.loc	20 0 5 is_stmt 0
	movq	%rax, %rcx
	movl	%edx, %eax
	movq	%rcx, -32(%rbp)
	movl	%eax, -24(%rbp)
	jmp	LBB46_3
LBB46_5:
	movq	-128(%rbp), %rax
	.loc	20 89 19 is_stmt 1
	movq	%rax, -96(%rbp)
LBB46_6:
	.loc	20 95 5
	testb	$1, -58(%rbp)
	jne	LBB46_16
	jmp	LBB46_15
LBB46_7:
Ltmp438:
	.loc	20 93 58
	testb	$1, -57(%rbp)
	jne	LBB46_11
	jmp	LBB46_3
LBB46_8:
Ltmp428:
	.loc	20 0 58 is_stmt 0
	movq	%rax, %rcx
	movl	%edx, %eax
	movq	%rcx, -32(%rbp)
	movl	%eax, -24(%rbp)
	jmp	LBB46_7
LBB46_9:
	movq	-112(%rbp), %rsi
	movq	-120(%rbp), %rdi
	.loc	20 93 13
	movb	$0, -57(%rbp)
Ltmp426:
	leaq	-88(%rbp), %rdx
	callq	__ZN98_$LT$core..iter..adapters..rev..Rev$LT$I$GT$$u20$as$u20$core..iter..traits..iterator..Iterator$GT$8try_fold17hfadf814b29704d76E
Ltmp427:
	movq	%rdx, -144(%rbp)
	movq	%rax, -136(%rbp)
	jmp	LBB46_10
LBB46_10:
Ltmp429:
	.loc	20 0 13
	movq	-144(%rbp), %rsi
	movq	-136(%rbp), %rdi
	.loc	20 93 13
	callq	__ZN4core3ops12control_flow77ControlFlow$LT$R$C$$LT$R$u20$as$u20$core..ops..try_trait..Try$GT$..Output$GT$8into_try17h19ec0e3a014daf30E
Ltmp430:
	movq	%rax, -152(%rbp)
	jmp	LBB46_12
LBB46_11:
	.loc	20 93 58
	jmp	LBB46_3
LBB46_12:
	.loc	20 0 58
	movq	-152(%rbp), %rax
	.loc	20 93 13
	movq	%rax, -96(%rbp)
Ltmp439:
	.loc	20 88 9 is_stmt 1
	jmp	LBB46_6
LBB46_13:
	.loc	20 67 5
	movq	-32(%rbp), %rdi
	callq	__Unwind_Resume
LBB46_14:
	.loc	20 95 5
	jmp	LBB46_13
LBB46_15:
	.loc	20 95 6 is_stmt 0
	movq	-96(%rbp), %rax
	addq	$160, %rsp
	popq	%rbp
	retq
LBB46_16:
	.loc	20 95 5
	jmp	LBB46_15
Ltmp440:
Lfunc_end46:
	.cfi_endproc
	.section	__TEXT,__gcc_except_tab
	.p2align	2
GCC_except_table46:
Lexception13:
	.byte	255
	.byte	255
	.byte	1
	.uleb128 Lcst_end13-Lcst_begin13
Lcst_begin13:
	.uleb128 Ltmp424-Lfunc_begin46
	.uleb128 Ltmp425-Ltmp424
	.uleb128 Ltmp428-Lfunc_begin46
	.byte	0
	.uleb128 Ltmp431-Lfunc_begin46
	.uleb128 Ltmp432-Ltmp431
	.uleb128 Ltmp433-Lfunc_begin46
	.byte	0
	.uleb128 Ltmp426-Lfunc_begin46
	.uleb128 Ltmp427-Ltmp426
	.uleb128 Ltmp428-Lfunc_begin46
	.byte	0
	.uleb128 Ltmp429-Lfunc_begin46
	.uleb128 Ltmp430-Ltmp429
	.uleb128 Ltmp433-Lfunc_begin46
	.byte	0
	.uleb128 Ltmp430-Lfunc_begin46
	.uleb128 Lfunc_end46-Ltmp430
	.byte	0
	.byte	0
Lcst_end13:
	.p2align	2

	.section	__TEXT,__text,regular,pure_instructions
	.globl	__ZN115_$LT$core..iter..adapters..take_while..TakeWhile$LT$I$C$P$GT$$u20$as$u20$core..iter..traits..iterator..Iterator$GT$8try_fold5check17h61fce3a51a93d98aE
	.p2align	4, 0x90
__ZN115_$LT$core..iter..adapters..take_while..TakeWhile$LT$I$C$P$GT$$u20$as$u20$core..iter..traits..iterator..Iterator$GT$8try_fold5check17h61fce3a51a93d98aE:
Lfunc_begin47:
	.loc	20 73 0 is_stmt 1
	.cfi_startproc
	pushq	%rbp
	.cfi_def_cfa_offset 16
	.cfi_offset %rbp, -16
	movq	%rsp, %rbp
	.cfi_def_cfa_register %rbp
	subq	$24, %rsp
	movq	%rdi, %rax
	movq	%rsi, -24(%rbp)
	movq	%rdx, -16(%rbp)
	movq	%rcx, -8(%rbp)
Ltmp441:
	.loc	20 78 13 prologue_end
	movq	%rdx, (%rdi)
	movq	%rcx, 8(%rdi)
	movq	%rsi, 16(%rdi)
	.loc	20 86 10
	addq	$24, %rsp
	popq	%rbp
	retq
Ltmp442:
Lfunc_end47:
	.cfi_endproc

	.globl	__ZN115_$LT$core..iter..adapters..take_while..TakeWhile$LT$I$C$P$GT$$u20$as$u20$core..iter..traits..iterator..Iterator$GT$8try_fold5check17h9e5624bbcabaf2c5E
	.p2align	4, 0x90
__ZN115_$LT$core..iter..adapters..take_while..TakeWhile$LT$I$C$P$GT$$u20$as$u20$core..iter..traits..iterator..Iterator$GT$8try_fold5check17h9e5624bbcabaf2c5E:
Lfunc_begin48:
	.loc	20 73 0
	.cfi_startproc
	pushq	%rbp
	.cfi_def_cfa_offset 16
	.cfi_offset %rbp, -16
	movq	%rsp, %rbp
	.cfi_def_cfa_register %rbp
	subq	$24, %rsp
	movq	%rdi, %rax
	movq	%rsi, -24(%rbp)
	movq	%rdx, -16(%rbp)
	movq	%rcx, -8(%rbp)
Ltmp443:
	.loc	20 78 13 prologue_end
	movq	%rdx, (%rdi)
	movq	%rcx, 8(%rdi)
	movq	%rsi, 16(%rdi)
	.loc	20 86 10
	addq	$24, %rsp
	popq	%rbp
	retq
Ltmp444:
Lfunc_end48:
	.cfi_endproc

	.globl	__ZN115_$LT$core..iter..adapters..take_while..TakeWhile$LT$I$C$P$GT$$u20$as$u20$core..iter..traits..iterator..Iterator$GT$8try_fold5check17hb3245dd9201493d0E
	.p2align	4, 0x90
__ZN115_$LT$core..iter..adapters..take_while..TakeWhile$LT$I$C$P$GT$$u20$as$u20$core..iter..traits..iterator..Iterator$GT$8try_fold5check17hb3245dd9201493d0E:
Lfunc_begin49:
	.loc	20 73 0
	.cfi_startproc
	pushq	%rbp
	.cfi_def_cfa_offset 16
	.cfi_offset %rbp, -16
	movq	%rsp, %rbp
	.cfi_def_cfa_register %rbp
	subq	$24, %rsp
	movq	%rdi, %rax
	movq	%rsi, -24(%rbp)
	movq	%rdx, -16(%rbp)
	movq	%rcx, -8(%rbp)
Ltmp445:
	.loc	20 78 13 prologue_end
	movq	%rdx, (%rdi)
	movq	%rcx, 8(%rdi)
	movq	%rsi, 16(%rdi)
	.loc	20 86 10
	addq	$24, %rsp
	popq	%rbp
	retq
Ltmp446:
Lfunc_end49:
	.cfi_endproc

	.globl	__ZN115_$LT$core..iter..adapters..take_while..TakeWhile$LT$I$C$P$GT$$u20$as$u20$core..iter..traits..iterator..Iterator$GT$8try_fold5check17he5bf3e62adfca7d9E
	.p2align	4, 0x90
__ZN115_$LT$core..iter..adapters..take_while..TakeWhile$LT$I$C$P$GT$$u20$as$u20$core..iter..traits..iterator..Iterator$GT$8try_fold5check17he5bf3e62adfca7d9E:
Lfunc_begin50:
	.loc	20 73 0
	.cfi_startproc
	pushq	%rbp
	.cfi_def_cfa_offset 16
	.cfi_offset %rbp, -16
	movq	%rsp, %rbp
	.cfi_def_cfa_register %rbp
	subq	$24, %rsp
	movq	%rdi, %rax
	movq	%rsi, -24(%rbp)
	movq	%rdx, -16(%rbp)
	movq	%rcx, -8(%rbp)
Ltmp447:
	.loc	20 78 13 prologue_end
	movq	%rdx, (%rdi)
	movq	%rcx, 8(%rdi)
	movq	%rsi, 16(%rdi)
	.loc	20 86 10
	addq	$24, %rsp
	popq	%rbp
	retq
Ltmp448:
Lfunc_end50:
	.cfi_endproc

	.globl	__ZN115_$LT$core..iter..adapters..take_while..TakeWhile$LT$I$C$P$GT$$u20$as$u20$core..iter..traits..iterator..Iterator$GT$8try_fold5check28_$u7b$$u7b$closure$u7d$$u7d$17h20d7810fd6601505E
	.p2align	4, 0x90
__ZN115_$LT$core..iter..adapters..take_while..TakeWhile$LT$I$C$P$GT$$u20$as$u20$core..iter..traits..iterator..Iterator$GT$8try_fold5check28_$u7b$$u7b$closure$u7d$$u7d$17h20d7810fd6601505E:
Lfunc_begin51:
	.loc	20 78 0
	.cfi_startproc
	.cfi_personality 155, _rust_eh_personality
	.cfi_lsda 16, Lexception14
	pushq	%rbp
	.cfi_def_cfa_offset 16
	.cfi_offset %rbp, -16
	movq	%rsp, %rbp
	.cfi_def_cfa_register %rbp
	subq	$144, %rsp
	movq	%rdi, -112(%rbp)
	movq	%rsi, -104(%rbp)
	movq	%rdx, -88(%rbp)
	movq	%rdi, -32(%rbp)
	movq	%rsi, -24(%rbp)
Ltmp458:
	.loc	20 79 20 prologue_end
	movb	$1, -33(%rbp)
	movb	$1, -34(%rbp)
	movq	(%rdi), %rdi
	leaq	-88(%rbp), %rax
	movq	%rax, -64(%rbp)
	movq	-64(%rbp), %rsi
Ltmp449:
	callq	__ZN11miniz_oxide7deflate4core12HuffmanOxide19start_dynamic_block28_$u7b$$u7b$closure$u7d$$u7d$17h7cffe754efe10cd0E
Ltmp450:
	movb	%al, -89(%rbp)
	jmp	LBB51_3
LBB51_1:
	.loc	20 85 13
	testb	$1, -34(%rbp)
	jne	LBB51_11
	jmp	LBB51_10
LBB51_2:
Ltmp457:
	.loc	20 0 13 is_stmt 0
	movq	%rax, %rcx
	movl	%edx, %eax
	movq	%rcx, -16(%rbp)
	movl	%eax, -8(%rbp)
	jmp	LBB51_1
LBB51_3:
	movb	-89(%rbp), %al
	.loc	20 79 20 is_stmt 1
	testb	$1, %al
	jne	LBB51_5
	jmp	LBB51_4
LBB51_4:
	.loc	20 0 20 is_stmt 0
	movq	-104(%rbp), %rdi
	movq	-112(%rbp), %rax
	.loc	20 82 21 is_stmt 1
	movq	16(%rax), %rax
	movb	$1, (%rax)
	.loc	20 83 46
	movb	$0, -33(%rbp)
Ltmp451:
	callq	__ZN94_$LT$core..ops..try_trait..NeverShortCircuit$LT$T$GT$$u20$as$u20$core..ops..try_trait..Try$GT$11from_output17h2c5bdd2f52709c54E
Ltmp452:
	movq	%rax, -120(%rbp)
	jmp	LBB51_9
LBB51_5:
	.loc	20 0 46 is_stmt 0
	movq	-104(%rbp), %rcx
	movq	-112(%rbp), %rdi
	.loc	20 80 43 is_stmt 1
	addq	$8, %rdi
	.loc	20 80 48 is_stmt 0
	movb	$0, -33(%rbp)
	.loc	20 80 53
	movb	$0, -34(%rbp)
	movq	-88(%rbp), %rax
	.loc	20 80 43
	movq	%rcx, -56(%rbp)
	movq	%rax, -48(%rbp)
	movq	-56(%rbp), %rsi
	movq	-48(%rbp), %rdx
Ltmp453:
	callq	__ZN141_$LT$core..const_closure..ConstFnMutClosure$LT$$RF$mut$u20$A$C$Function$GT$$u20$as$u20$core..ops..function..FnMut$LT$ClosureArguments$GT$$GT$8call_mut17h5e757791aafbfc3dE
Ltmp454:
	movq	%rax, -128(%rbp)
	jmp	LBB51_6
LBB51_6:
Ltmp455:
	.loc	20 0 43
	movq	-128(%rbp), %rdi
	.loc	20 80 21
	callq	__ZN4core3ops12control_flow77ControlFlow$LT$R$C$$LT$R$u20$as$u20$core..ops..try_trait..Try$GT$..Output$GT$8from_try17h98d9b8335597d6ffE
Ltmp456:
	movq	%rdx, -144(%rbp)
	movq	%rax, -136(%rbp)
	jmp	LBB51_7
LBB51_7:
	.loc	20 0 21
	movq	-144(%rbp), %rax
	movq	-136(%rbp), %rcx
	.loc	20 80 21
	movq	%rcx, -80(%rbp)
	movq	%rax, -72(%rbp)
LBB51_8:
	.loc	20 85 13 is_stmt 1
	testb	$1, -34(%rbp)
	jne	LBB51_13
	jmp	LBB51_12
LBB51_9:
	.loc	20 0 13 is_stmt 0
	movq	-120(%rbp), %rax
	.loc	20 83 21 is_stmt 1
	movq	%rax, -72(%rbp)
	movq	$1, -80(%rbp)
	.loc	20 79 17
	jmp	LBB51_8
LBB51_10:
	.loc	20 85 13
	testb	$1, -33(%rbp)
	jne	LBB51_15
	jmp	LBB51_14
LBB51_11:
	jmp	LBB51_10
LBB51_12:
	.loc	20 85 14 is_stmt 0
	movq	-80(%rbp), %rax
	movq	-72(%rbp), %rdx
	addq	$144, %rsp
	popq	%rbp
	retq
LBB51_13:
	.loc	20 85 13
	jmp	LBB51_12
LBB51_14:
	.loc	20 78 13 is_stmt 1
	movq	-16(%rbp), %rdi
	callq	__Unwind_Resume
LBB51_15:
	.loc	20 85 13
	jmp	LBB51_14
Ltmp459:
Lfunc_end51:
	.cfi_endproc
	.section	__TEXT,__gcc_except_tab
	.p2align	2
GCC_except_table51:
Lexception14:
	.byte	255
	.byte	255
	.byte	1
	.uleb128 Lcst_end14-Lcst_begin14
Lcst_begin14:
	.uleb128 Ltmp449-Lfunc_begin51
	.uleb128 Ltmp456-Ltmp449
	.uleb128 Ltmp457-Lfunc_begin51
	.byte	0
	.uleb128 Ltmp456-Lfunc_begin51
	.uleb128 Lfunc_end51-Ltmp456
	.byte	0
	.byte	0
Lcst_end14:
	.p2align	2

	.section	__TEXT,__text,regular,pure_instructions
	.globl	__ZN115_$LT$core..iter..adapters..take_while..TakeWhile$LT$I$C$P$GT$$u20$as$u20$core..iter..traits..iterator..Iterator$GT$8try_fold5check28_$u7b$$u7b$closure$u7d$$u7d$17h5ef2b671a5ce8492E
	.p2align	4, 0x90
__ZN115_$LT$core..iter..adapters..take_while..TakeWhile$LT$I$C$P$GT$$u20$as$u20$core..iter..traits..iterator..Iterator$GT$8try_fold5check28_$u7b$$u7b$closure$u7d$$u7d$17h5ef2b671a5ce8492E:
Lfunc_begin52:
	.loc	20 78 0
	.cfi_startproc
	.cfi_personality 155, _rust_eh_personality
	.cfi_lsda 16, Lexception15
	pushq	%rbp
	.cfi_def_cfa_offset 16
	.cfi_offset %rbp, -16
	movq	%rsp, %rbp
	.cfi_def_cfa_register %rbp
	subq	$144, %rsp
	movq	%rdi, -112(%rbp)
	movq	%rsi, -104(%rbp)
	movq	%rdx, -88(%rbp)
	movq	%rdi, -32(%rbp)
	movq	%rsi, -24(%rbp)
Ltmp469:
	.loc	20 79 20 prologue_end
	movb	$1, -33(%rbp)
	movb	$1, -34(%rbp)
	movq	(%rdi), %rdi
	leaq	-88(%rbp), %rax
	movq	%rax, -64(%rbp)
	movq	-64(%rbp), %rsi
Ltmp460:
	callq	__ZN11miniz_oxide7deflate4core15compress_normal28_$u7b$$u7b$closure$u7d$$u7d$17h905cfd76aa98f1b8E
Ltmp461:
	movb	%al, -89(%rbp)
	jmp	LBB52_3
LBB52_1:
	.loc	20 85 13
	testb	$1, -34(%rbp)
	jne	LBB52_11
	jmp	LBB52_10
LBB52_2:
Ltmp468:
	.loc	20 0 13 is_stmt 0
	movq	%rax, %rcx
	movl	%edx, %eax
	movq	%rcx, -16(%rbp)
	movl	%eax, -8(%rbp)
	jmp	LBB52_1
LBB52_3:
	movb	-89(%rbp), %al
	.loc	20 79 20 is_stmt 1
	testb	$1, %al
	jne	LBB52_5
	jmp	LBB52_4
LBB52_4:
	.loc	20 0 20 is_stmt 0
	movq	-104(%rbp), %rdi
	movq	-112(%rbp), %rax
	.loc	20 82 21 is_stmt 1
	movq	16(%rax), %rax
	movb	$1, (%rax)
	.loc	20 83 46
	movb	$0, -33(%rbp)
Ltmp462:
	callq	__ZN94_$LT$core..ops..try_trait..NeverShortCircuit$LT$T$GT$$u20$as$u20$core..ops..try_trait..Try$GT$11from_output17h2c5bdd2f52709c54E
Ltmp463:
	movq	%rax, -120(%rbp)
	jmp	LBB52_9
LBB52_5:
	.loc	20 0 46 is_stmt 0
	movq	-104(%rbp), %rcx
	movq	-112(%rbp), %rdi
	.loc	20 80 43 is_stmt 1
	addq	$8, %rdi
	.loc	20 80 48 is_stmt 0
	movb	$0, -33(%rbp)
	.loc	20 80 53
	movb	$0, -34(%rbp)
	movq	-88(%rbp), %rax
	.loc	20 80 43
	movq	%rcx, -56(%rbp)
	movq	%rax, -48(%rbp)
	movq	-56(%rbp), %rsi
	movq	-48(%rbp), %rdx
Ltmp464:
	callq	__ZN141_$LT$core..const_closure..ConstFnMutClosure$LT$$RF$mut$u20$A$C$Function$GT$$u20$as$u20$core..ops..function..FnMut$LT$ClosureArguments$GT$$GT$8call_mut17ha58f5d638f1140b2E
Ltmp465:
	movq	%rax, -128(%rbp)
	jmp	LBB52_6
LBB52_6:
Ltmp466:
	.loc	20 0 43
	movq	-128(%rbp), %rdi
	.loc	20 80 21
	callq	__ZN4core3ops12control_flow77ControlFlow$LT$R$C$$LT$R$u20$as$u20$core..ops..try_trait..Try$GT$..Output$GT$8from_try17h98d9b8335597d6ffE
Ltmp467:
	movq	%rdx, -144(%rbp)
	movq	%rax, -136(%rbp)
	jmp	LBB52_7
LBB52_7:
	.loc	20 0 21
	movq	-144(%rbp), %rax
	movq	-136(%rbp), %rcx
	.loc	20 80 21
	movq	%rcx, -80(%rbp)
	movq	%rax, -72(%rbp)
LBB52_8:
	.loc	20 85 13 is_stmt 1
	testb	$1, -34(%rbp)
	jne	LBB52_13
	jmp	LBB52_12
LBB52_9:
	.loc	20 0 13 is_stmt 0
	movq	-120(%rbp), %rax
	.loc	20 83 21 is_stmt 1
	movq	%rax, -72(%rbp)
	movq	$1, -80(%rbp)
	.loc	20 79 17
	jmp	LBB52_8
LBB52_10:
	.loc	20 85 13
	testb	$1, -33(%rbp)
	jne	LBB52_15
	jmp	LBB52_14
LBB52_11:
	jmp	LBB52_10
LBB52_12:
	.loc	20 85 14 is_stmt 0
	movq	-80(%rbp), %rax
	movq	-72(%rbp), %rdx
	addq	$144, %rsp
	popq	%rbp
	retq
LBB52_13:
	.loc	20 85 13
	jmp	LBB52_12
LBB52_14:
	.loc	20 78 13 is_stmt 1
	movq	-16(%rbp), %rdi
	callq	__Unwind_Resume
LBB52_15:
	.loc	20 85 13
	jmp	LBB52_14
Ltmp470:
Lfunc_end52:
	.cfi_endproc
	.section	__TEXT,__gcc_except_tab
	.p2align	2
GCC_except_table52:
Lexception15:
	.byte	255
	.byte	255
	.byte	1
	.uleb128 Lcst_end15-Lcst_begin15
Lcst_begin15:
	.uleb128 Ltmp460-Lfunc_begin52
	.uleb128 Ltmp467-Ltmp460
	.uleb128 Ltmp468-Lfunc_begin52
	.byte	0
	.uleb128 Ltmp467-Lfunc_begin52
	.uleb128 Lfunc_end52-Ltmp467
	.byte	0
	.byte	0
Lcst_end15:
	.p2align	2

	.section	__TEXT,__text,regular,pure_instructions
	.globl	__ZN115_$LT$core..iter..adapters..take_while..TakeWhile$LT$I$C$P$GT$$u20$as$u20$core..iter..traits..iterator..Iterator$GT$8try_fold5check28_$u7b$$u7b$closure$u7d$$u7d$17h8ec8fdf27cf94752E
	.p2align	4, 0x90
__ZN115_$LT$core..iter..adapters..take_while..TakeWhile$LT$I$C$P$GT$$u20$as$u20$core..iter..traits..iterator..Iterator$GT$8try_fold5check28_$u7b$$u7b$closure$u7d$$u7d$17h8ec8fdf27cf94752E:
Lfunc_begin53:
	.loc	20 78 0
	.cfi_startproc
	.cfi_personality 155, _rust_eh_personality
	.cfi_lsda 16, Lexception16
	pushq	%rbp
	.cfi_def_cfa_offset 16
	.cfi_offset %rbp, -16
	movq	%rsp, %rbp
	.cfi_def_cfa_register %rbp
	subq	$144, %rsp
	movq	%rdi, -112(%rbp)
	movq	%rsi, -104(%rbp)
	movq	%rdx, -88(%rbp)
	movq	%rdi, -32(%rbp)
	movq	%rsi, -24(%rbp)
Ltmp480:
	.loc	20 79 20 prologue_end
	movb	$1, -33(%rbp)
	movb	$1, -34(%rbp)
	movq	(%rdi), %rdi
	leaq	-88(%rbp), %rax
	movq	%rax, -64(%rbp)
	movq	-64(%rbp), %rsi
Ltmp471:
	callq	__ZN11miniz_oxide7deflate4core12HuffmanOxide19start_dynamic_block28_$u7b$$u7b$closure$u7d$$u7d$17h5afc7361e50c727dE
Ltmp472:
	movb	%al, -89(%rbp)
	jmp	LBB53_3
LBB53_1:
	.loc	20 85 13
	testb	$1, -34(%rbp)
	jne	LBB53_11
	jmp	LBB53_10
LBB53_2:
Ltmp479:
	.loc	20 0 13 is_stmt 0
	movq	%rax, %rcx
	movl	%edx, %eax
	movq	%rcx, -16(%rbp)
	movl	%eax, -8(%rbp)
	jmp	LBB53_1
LBB53_3:
	movb	-89(%rbp), %al
	.loc	20 79 20 is_stmt 1
	testb	$1, %al
	jne	LBB53_5
	jmp	LBB53_4
LBB53_4:
	.loc	20 0 20 is_stmt 0
	movq	-104(%rbp), %rdi
	movq	-112(%rbp), %rax
	.loc	20 82 21 is_stmt 1
	movq	16(%rax), %rax
	movb	$1, (%rax)
	.loc	20 83 46
	movb	$0, -33(%rbp)
Ltmp473:
	callq	__ZN94_$LT$core..ops..try_trait..NeverShortCircuit$LT$T$GT$$u20$as$u20$core..ops..try_trait..Try$GT$11from_output17h2c5bdd2f52709c54E
Ltmp474:
	movq	%rax, -120(%rbp)
	jmp	LBB53_9
LBB53_5:
	.loc	20 0 46 is_stmt 0
	movq	-104(%rbp), %rcx
	movq	-112(%rbp), %rdi
	.loc	20 80 43 is_stmt 1
	addq	$8, %rdi
	.loc	20 80 48 is_stmt 0
	movb	$0, -33(%rbp)
	.loc	20 80 53
	movb	$0, -34(%rbp)
	movq	-88(%rbp), %rax
	.loc	20 80 43
	movq	%rcx, -56(%rbp)
	movq	%rax, -48(%rbp)
	movq	-56(%rbp), %rsi
	movq	-48(%rbp), %rdx
Ltmp475:
	callq	__ZN141_$LT$core..const_closure..ConstFnMutClosure$LT$$RF$mut$u20$A$C$Function$GT$$u20$as$u20$core..ops..function..FnMut$LT$ClosureArguments$GT$$GT$8call_mut17h5411fc0306109b71E
Ltmp476:
	movq	%rax, -128(%rbp)
	jmp	LBB53_6
LBB53_6:
Ltmp477:
	.loc	20 0 43
	movq	-128(%rbp), %rdi
	.loc	20 80 21
	callq	__ZN4core3ops12control_flow77ControlFlow$LT$R$C$$LT$R$u20$as$u20$core..ops..try_trait..Try$GT$..Output$GT$8from_try17h98d9b8335597d6ffE
Ltmp478:
	movq	%rdx, -144(%rbp)
	movq	%rax, -136(%rbp)
	jmp	LBB53_7
LBB53_7:
	.loc	20 0 21
	movq	-144(%rbp), %rax
	movq	-136(%rbp), %rcx
	.loc	20 80 21
	movq	%rcx, -80(%rbp)
	movq	%rax, -72(%rbp)
LBB53_8:
	.loc	20 85 13 is_stmt 1
	testb	$1, -34(%rbp)
	jne	LBB53_13
	jmp	LBB53_12
LBB53_9:
	.loc	20 0 13 is_stmt 0
	movq	-120(%rbp), %rax
	.loc	20 83 21 is_stmt 1
	movq	%rax, -72(%rbp)
	movq	$1, -80(%rbp)
	.loc	20 79 17
	jmp	LBB53_8
LBB53_10:
	.loc	20 85 13
	testb	$1, -33(%rbp)
	jne	LBB53_15
	jmp	LBB53_14
LBB53_11:
	jmp	LBB53_10
LBB53_12:
	.loc	20 85 14 is_stmt 0
	movq	-80(%rbp), %rax
	movq	-72(%rbp), %rdx
	addq	$144, %rsp
	popq	%rbp
	retq
LBB53_13:
	.loc	20 85 13
	jmp	LBB53_12
LBB53_14:
	.loc	20 78 13 is_stmt 1
	movq	-16(%rbp), %rdi
	callq	__Unwind_Resume
LBB53_15:
	.loc	20 85 13
	jmp	LBB53_14
Ltmp481:
Lfunc_end53:
	.cfi_endproc
	.section	__TEXT,__gcc_except_tab
	.p2align	2
GCC_except_table53:
Lexception16:
	.byte	255
	.byte	255
	.byte	1
	.uleb128 Lcst_end16-Lcst_begin16
Lcst_begin16:
	.uleb128 Ltmp471-Lfunc_begin53
	.uleb128 Ltmp478-Ltmp471
	.uleb128 Ltmp479-Lfunc_begin53
	.byte	0
	.uleb128 Ltmp478-Lfunc_begin53
	.uleb128 Lfunc_end53-Ltmp478
	.byte	0
	.byte	0
Lcst_end16:
	.p2align	2

	.section	__TEXT,__text,regular,pure_instructions
	.globl	__ZN115_$LT$core..iter..adapters..take_while..TakeWhile$LT$I$C$P$GT$$u20$as$u20$core..iter..traits..iterator..Iterator$GT$8try_fold5check28_$u7b$$u7b$closure$u7d$$u7d$17hd3523e11231830dcE
	.p2align	4, 0x90
__ZN115_$LT$core..iter..adapters..take_while..TakeWhile$LT$I$C$P$GT$$u20$as$u20$core..iter..traits..iterator..Iterator$GT$8try_fold5check28_$u7b$$u7b$closure$u7d$$u7d$17hd3523e11231830dcE:
Lfunc_begin54:
	.loc	20 78 0
	.cfi_startproc
	.cfi_personality 155, _rust_eh_personality
	.cfi_lsda 16, Lexception17
	pushq	%rbp
	.cfi_def_cfa_offset 16
	.cfi_offset %rbp, -16
	movq	%rsp, %rbp
	.cfi_def_cfa_register %rbp
	subq	$144, %rsp
	movq	%rdi, -112(%rbp)
	movq	%rsi, -104(%rbp)
	movq	%rdx, -88(%rbp)
	movq	%rdi, -32(%rbp)
	movq	%rsi, -24(%rbp)
Ltmp491:
	.loc	20 79 20 prologue_end
	movb	$1, -33(%rbp)
	movb	$1, -34(%rbp)
	movq	(%rdi), %rdi
	leaq	-88(%rbp), %rax
	movq	%rax, -64(%rbp)
	movq	-64(%rbp), %rsi
Ltmp482:
	callq	__ZN11miniz_oxide7deflate4core12HuffmanOxide19start_dynamic_block28_$u7b$$u7b$closure$u7d$$u7d$17h64100fbd245fe0dfE
Ltmp483:
	movb	%al, -89(%rbp)
	jmp	LBB54_3
LBB54_1:
	.loc	20 85 13
	testb	$1, -34(%rbp)
	jne	LBB54_11
	jmp	LBB54_10
LBB54_2:
Ltmp490:
	.loc	20 0 13 is_stmt 0
	movq	%rax, %rcx
	movl	%edx, %eax
	movq	%rcx, -16(%rbp)
	movl	%eax, -8(%rbp)
	jmp	LBB54_1
LBB54_3:
	movb	-89(%rbp), %al
	.loc	20 79 20 is_stmt 1
	testb	$1, %al
	jne	LBB54_5
	jmp	LBB54_4
LBB54_4:
	.loc	20 0 20 is_stmt 0
	movq	-104(%rbp), %rdi
	movq	-112(%rbp), %rax
	.loc	20 82 21 is_stmt 1
	movq	16(%rax), %rax
	movb	$1, (%rax)
	.loc	20 83 46
	movb	$0, -33(%rbp)
Ltmp484:
	callq	__ZN94_$LT$core..ops..try_trait..NeverShortCircuit$LT$T$GT$$u20$as$u20$core..ops..try_trait..Try$GT$11from_output17h2c5bdd2f52709c54E
Ltmp485:
	movq	%rax, -120(%rbp)
	jmp	LBB54_9
LBB54_5:
	.loc	20 0 46 is_stmt 0
	movq	-104(%rbp), %rcx
	movq	-112(%rbp), %rdi
	.loc	20 80 43 is_stmt 1
	addq	$8, %rdi
	.loc	20 80 48 is_stmt 0
	movb	$0, -33(%rbp)
	.loc	20 80 53
	movb	$0, -34(%rbp)
	movq	-88(%rbp), %rax
	.loc	20 80 43
	movq	%rcx, -56(%rbp)
	movq	%rax, -48(%rbp)
	movq	-56(%rbp), %rsi
	movq	-48(%rbp), %rdx
Ltmp486:
	callq	__ZN141_$LT$core..const_closure..ConstFnMutClosure$LT$$RF$mut$u20$A$C$Function$GT$$u20$as$u20$core..ops..function..FnMut$LT$ClosureArguments$GT$$GT$8call_mut17h163de1265fb905f1E
Ltmp487:
	movq	%rax, -128(%rbp)
	jmp	LBB54_6
LBB54_6:
Ltmp488:
	.loc	20 0 43
	movq	-128(%rbp), %rdi
	.loc	20 80 21
	callq	__ZN4core3ops12control_flow77ControlFlow$LT$R$C$$LT$R$u20$as$u20$core..ops..try_trait..Try$GT$..Output$GT$8from_try17h98d9b8335597d6ffE
Ltmp489:
	movq	%rdx, -144(%rbp)
	movq	%rax, -136(%rbp)
	jmp	LBB54_7
LBB54_7:
	.loc	20 0 21
	movq	-144(%rbp), %rax
	movq	-136(%rbp), %rcx
	.loc	20 80 21
	movq	%rcx, -80(%rbp)
	movq	%rax, -72(%rbp)
LBB54_8:
	.loc	20 85 13 is_stmt 1
	testb	$1, -34(%rbp)
	jne	LBB54_13
	jmp	LBB54_12
LBB54_9:
	.loc	20 0 13 is_stmt 0
	movq	-120(%rbp), %rax
	.loc	20 83 21 is_stmt 1
	movq	%rax, -72(%rbp)
	movq	$1, -80(%rbp)
	.loc	20 79 17
	jmp	LBB54_8
LBB54_10:
	.loc	20 85 13
	testb	$1, -33(%rbp)
	jne	LBB54_15
	jmp	LBB54_14
LBB54_11:
	jmp	LBB54_10
LBB54_12:
	.loc	20 85 14 is_stmt 0
	movq	-80(%rbp), %rax
	movq	-72(%rbp), %rdx
	addq	$144, %rsp
	popq	%rbp
	retq
LBB54_13:
	.loc	20 85 13
	jmp	LBB54_12
LBB54_14:
	.loc	20 78 13 is_stmt 1
	movq	-16(%rbp), %rdi
	callq	__Unwind_Resume
LBB54_15:
	.loc	20 85 13
	jmp	LBB54_14
Ltmp492:
Lfunc_end54:
	.cfi_endproc
	.section	__TEXT,__gcc_except_tab
	.p2align	2
GCC_except_table54:
Lexception17:
	.byte	255
	.byte	255
	.byte	1
	.uleb128 Lcst_end17-Lcst_begin17
Lcst_begin17:
	.uleb128 Ltmp482-Lfunc_begin54
	.uleb128 Ltmp489-Ltmp482
	.uleb128 Ltmp490-Lfunc_begin54
	.byte	0
	.uleb128 Ltmp489-Lfunc_begin54
	.uleb128 Lfunc_end54-Ltmp489
	.byte	0
	.byte	0
Lcst_end17:
	.p2align	2

	.section	__TEXT,__text,regular,pure_instructions
	.globl	__ZN115_$LT$core..ops..range..RangeInclusive$LT$usize$GT$$u20$as$u20$core..slice..index..SliceIndex$LT$$u5b$T$u5d$$GT$$GT$5index17h931a024661c7111eE
	.p2align	4, 0x90
__ZN115_$LT$core..ops..range..RangeInclusive$LT$usize$GT$$u20$as$u20$core..slice..index..SliceIndex$LT$$u5b$T$u5d$$GT$$GT$5index17h931a024661c7111eE:
Lfunc_begin55:
	.loc	7 575 0
	.cfi_startproc
	pushq	%rbp
	.cfi_def_cfa_offset 16
	.cfi_offset %rbp, -16
	movq	%rsp, %rbp
	.cfi_def_cfa_register %rbp
	subq	$128, %rsp
	movq	%rdi, -112(%rbp)
Ltmp493:
	movq	%rsi, -104(%rbp)
	movq	%rdx, -96(%rbp)
	movq	%rcx, -88(%rbp)
Ltmp494:
	movq	%rsi, -32(%rbp)
	movq	%rdx, -24(%rbp)
Ltmp495:
	.loc	7 576 13 prologue_end
	movq	%rdi, -16(%rbp)
	.loc	7 576 12 is_stmt 0
	cmpq	$-1, 8(%rdi)
Ltmp496:
	je	LBB55_2
Ltmp497:
	.loc	7 0 12
	movq	-112(%rbp), %rax
	.loc	7 579 9 is_stmt 1
	movq	(%rax), %rcx
	movq	%rcx, -64(%rbp)
	movq	8(%rax), %rcx
	movq	%rcx, -56(%rbp)
	movq	16(%rax), %rax
	movq	%rax, -48(%rbp)
Ltmp498:
	.loc	15 453 29
	movq	-56(%rbp), %rax
	addq	$1, %rax
	movq	%rax, -120(%rbp)
	movq	%rax, -8(%rbp)
Ltmp499:
	.loc	15 454 24
	testb	$1, -48(%rbp)
	jne	LBB55_4
	jmp	LBB55_3
Ltmp500:
LBB55_2:
	.loc	15 0 24 is_stmt 0
	movq	-88(%rbp), %rdi
	.loc	7 577 13 is_stmt 1
	callq	__ZN4core5slice5index29slice_end_index_overflow_fail17h1d13ef50abb383daE
Ltmp501:
LBB55_3:
	.loc	15 454 64
	movq	-64(%rbp), %rax
	movq	%rax, -40(%rbp)
	.loc	15 454 21 is_stmt 0
	jmp	LBB55_5
Ltmp502:
LBB55_4:
	.loc	15 0 21
	movq	-120(%rbp), %rax
	.loc	15 454 41
	movq	%rax, -40(%rbp)
Ltmp503:
LBB55_5:
	.loc	15 0 41
	movq	-88(%rbp), %r8
	movq	-96(%rbp), %rcx
	movq	-104(%rbp), %rdx
	movq	-120(%rbp), %rax
Ltmp504:
	.loc	15 455 9 is_stmt 1
	movq	-40(%rbp), %rsi
	movq	%rsi, -80(%rbp)
	movq	%rax, -72(%rbp)
Ltmp505:
	.loc	7 579 9
	movq	-80(%rbp), %rdi
	movq	-72(%rbp), %rsi
	callq	__ZN106_$LT$core..ops..range..Range$LT$usize$GT$$u20$as$u20$core..slice..index..SliceIndex$LT$$u5b$T$u5d$$GT$$GT$5index17h5c28212344dbe414E
	.loc	7 580 6
	addq	$128, %rsp
	popq	%rbp
	retq
Ltmp506:
Lfunc_end55:
	.cfi_endproc

	.globl	__ZN119_$LT$core..ptr..non_null..NonNull$LT$T$GT$$u20$as$u20$core..convert..From$LT$core..ptr..unique..Unique$LT$T$GT$$GT$$GT$4from17ha4319955a00dd9acE
	.p2align	4, 0x90
__ZN119_$LT$core..ptr..non_null..NonNull$LT$T$GT$$u20$as$u20$core..convert..From$LT$core..ptr..unique..Unique$LT$T$GT$$GT$$GT$4from17ha4319955a00dd9acE:
Lfunc_begin56:
	.loc	13 765 0
	.cfi_startproc
	pushq	%rbp
	.cfi_def_cfa_offset 16
	.cfi_offset %rbp, -16
	movq	%rsp, %rbp
	.cfi_def_cfa_register %rbp
	subq	$40, %rsp
	movq	%rdi, -32(%rbp)
Ltmp507:
	.loc	13 768 41 prologue_end
	movq	%rdi, -24(%rbp)
Ltmp508:
	.file	21 "/rustc/2c8cc343237b8f7d5a3c3703e3a87f2eb2c54a74/library/core/src/ptr" "unique.rs"
	.loc	21 104 9
	movq	%rdi, -16(%rbp)
Ltmp509:
	.loc	13 326 9
	movq	%rdi, -8(%rbp)
Ltmp510:
	.loc	13 201 13
	movq	%rdi, -40(%rbp)
Ltmp511:
	.loc	13 769 6
	movq	-40(%rbp), %rax
	addq	$40, %rsp
	popq	%rbp
	retq
Ltmp512:
Lfunc_end56:
	.cfi_endproc

	.p2align	4, 0x90
__ZN122_$LT$alloc..collections..TryReserveError$u20$as$u20$core..convert..From$LT$alloc..collections..TryReserveErrorKind$GT$$GT$4from17h5cb23e47a4c08acdE:
Lfunc_begin57:
	.file	22 "/rustc/2c8cc343237b8f7d5a3c3703e3a87f2eb2c54a74/library/alloc/src/collections" "mod.rs"
	.loc	22 116 0
	.cfi_startproc
	pushq	%rbp
	.cfi_def_cfa_offset 16
	.cfi_offset %rbp, -16
	movq	%rsp, %rbp
	.cfi_def_cfa_register %rbp
	subq	$32, %rsp
	movq	%rdi, -16(%rbp)
	movq	%rsi, -8(%rbp)
Ltmp513:
	.loc	22 117 9 prologue_end
	movq	%rdi, -32(%rbp)
	movq	%rsi, -24(%rbp)
	.loc	22 118 6
	movq	-32(%rbp), %rax
	movq	-24(%rbp), %rdx
	addq	$32, %rsp
	popq	%rbp
	retq
Ltmp514:
Lfunc_end57:
	.cfi_endproc

	.globl	__ZN141_$LT$core..const_closure..ConstFnMutClosure$LT$$RF$mut$u20$A$C$Function$GT$$u20$as$u20$core..ops..function..FnMut$LT$ClosureArguments$GT$$GT$8call_mut17h163de1265fb905f1E
	.p2align	4, 0x90
__ZN141_$LT$core..const_closure..ConstFnMutClosure$LT$$RF$mut$u20$A$C$Function$GT$$u20$as$u20$core..ops..function..FnMut$LT$ClosureArguments$GT$$GT$8call_mut17h163de1265fb905f1E:
Lfunc_begin58:
	.file	23 "/rustc/2c8cc343237b8f7d5a3c3703e3a87f2eb2c54a74/library/core/src" "const_closure.rs"
	.loc	23 66 0
	.cfi_startproc
	pushq	%rbp
	.cfi_def_cfa_offset 16
	.cfi_offset %rbp, -16
	movq	%rsp, %rbp
	.cfi_def_cfa_register %rbp
	subq	$64, %rsp
	movq	%rsi, -56(%rbp)
	movq	%rdx, -48(%rbp)
	movq	%rdi, -16(%rbp)
Ltmp515:
	.loc	23 68 35 prologue_end
	movq	%rdi, -8(%rbp)
Ltmp516:
	.loc	23 69 29
	movq	(%rdi), %rdx
	.loc	23 69 42 is_stmt 0
	movq	-56(%rbp), %rcx
	movq	-48(%rbp), %rax
	.loc	23 69 17
	movq	%rdx, -40(%rbp)
	movq	%rcx, -32(%rbp)
	movq	%rax, -24(%rbp)
	movq	-40(%rbp), %rsi
	movq	-32(%rbp), %rdx
	movq	-24(%rbp), %rcx
	callq	__ZN4core3ops8function2Fn4call17h06fd1457e0b15353E
Ltmp517:
	.loc	23 70 14 is_stmt 1
	addq	$64, %rsp
	popq	%rbp
	retq
Ltmp518:
Lfunc_end58:
	.cfi_endproc

	.globl	__ZN141_$LT$core..const_closure..ConstFnMutClosure$LT$$RF$mut$u20$A$C$Function$GT$$u20$as$u20$core..ops..function..FnMut$LT$ClosureArguments$GT$$GT$8call_mut17h5411fc0306109b71E
	.p2align	4, 0x90
__ZN141_$LT$core..const_closure..ConstFnMutClosure$LT$$RF$mut$u20$A$C$Function$GT$$u20$as$u20$core..ops..function..FnMut$LT$ClosureArguments$GT$$GT$8call_mut17h5411fc0306109b71E:
Lfunc_begin59:
	.loc	23 66 0
	.cfi_startproc
	pushq	%rbp
	.cfi_def_cfa_offset 16
	.cfi_offset %rbp, -16
	movq	%rsp, %rbp
	.cfi_def_cfa_register %rbp
	subq	$64, %rsp
	movq	%rsi, -56(%rbp)
	movq	%rdx, -48(%rbp)
	movq	%rdi, -16(%rbp)
Ltmp519:
	.loc	23 68 35 prologue_end
	movq	%rdi, -8(%rbp)
Ltmp520:
	.loc	23 69 29
	movq	(%rdi), %rdx
	.loc	23 69 42 is_stmt 0
	movq	-56(%rbp), %rcx
	movq	-48(%rbp), %rax
	.loc	23 69 17
	movq	%rdx, -40(%rbp)
	movq	%rcx, -32(%rbp)
	movq	%rax, -24(%rbp)
	movq	-40(%rbp), %rsi
	movq	-32(%rbp), %rdx
	movq	-24(%rbp), %rcx
	callq	__ZN4core3ops8function2Fn4call17h17fd55d713a2b311E
Ltmp521:
	.loc	23 70 14 is_stmt 1
	addq	$64, %rsp
	popq	%rbp
	retq
Ltmp522:
Lfunc_end59:
	.cfi_endproc

	.globl	__ZN141_$LT$core..const_closure..ConstFnMutClosure$LT$$RF$mut$u20$A$C$Function$GT$$u20$as$u20$core..ops..function..FnMut$LT$ClosureArguments$GT$$GT$8call_mut17h5e757791aafbfc3dE
	.p2align	4, 0x90
__ZN141_$LT$core..const_closure..ConstFnMutClosure$LT$$RF$mut$u20$A$C$Function$GT$$u20$as$u20$core..ops..function..FnMut$LT$ClosureArguments$GT$$GT$8call_mut17h5e757791aafbfc3dE:
Lfunc_begin60:
	.loc	23 66 0
	.cfi_startproc
	pushq	%rbp
	.cfi_def_cfa_offset 16
	.cfi_offset %rbp, -16
	movq	%rsp, %rbp
	.cfi_def_cfa_register %rbp
	subq	$64, %rsp
	movq	%rsi, -56(%rbp)
	movq	%rdx, -48(%rbp)
	movq	%rdi, -16(%rbp)
Ltmp523:
	.loc	23 68 35 prologue_end
	movq	%rdi, -8(%rbp)
Ltmp524:
	.loc	23 69 29
	movq	(%rdi), %rdx
	.loc	23 69 42 is_stmt 0
	movq	-56(%rbp), %rcx
	movq	-48(%rbp), %rax
	.loc	23 69 17
	movq	%rdx, -40(%rbp)
	movq	%rcx, -32(%rbp)
	movq	%rax, -24(%rbp)
	movq	-40(%rbp), %rsi
	movq	-32(%rbp), %rdx
	movq	-24(%rbp), %rcx
	callq	__ZN4core3ops8function2Fn4call17ha0ce40c474b26018E
Ltmp525:
	.loc	23 70 14 is_stmt 1
	addq	$64, %rsp
	popq	%rbp
	retq
Ltmp526:
Lfunc_end60:
	.cfi_endproc

	.globl	__ZN141_$LT$core..const_closure..ConstFnMutClosure$LT$$RF$mut$u20$A$C$Function$GT$$u20$as$u20$core..ops..function..FnMut$LT$ClosureArguments$GT$$GT$8call_mut17ha58f5d638f1140b2E
	.p2align	4, 0x90
__ZN141_$LT$core..const_closure..ConstFnMutClosure$LT$$RF$mut$u20$A$C$Function$GT$$u20$as$u20$core..ops..function..FnMut$LT$ClosureArguments$GT$$GT$8call_mut17ha58f5d638f1140b2E:
Lfunc_begin61:
	.loc	23 66 0
	.cfi_startproc
	pushq	%rbp
	.cfi_def_cfa_offset 16
	.cfi_offset %rbp, -16
	movq	%rsp, %rbp
	.cfi_def_cfa_register %rbp
	subq	$64, %rsp
	movq	%rsi, -56(%rbp)
	movq	%rdx, -48(%rbp)
	movq	%rdi, -16(%rbp)
Ltmp527:
	.loc	23 68 35 prologue_end
	movq	%rdi, -8(%rbp)
Ltmp528:
	.loc	23 69 29
	movq	(%rdi), %rdx
	.loc	23 69 42 is_stmt 0
	movq	-56(%rbp), %rcx
	movq	-48(%rbp), %rax
	.loc	23 69 17
	movq	%rdx, -40(%rbp)
	movq	%rcx, -32(%rbp)
	movq	%rax, -24(%rbp)
	movq	-40(%rbp), %rsi
	movq	-32(%rbp), %rdx
	movq	-24(%rbp), %rcx
	callq	__ZN4core3ops8function2Fn4call17hc95510cd07fbdc8cE
Ltmp529:
	.loc	23 70 14 is_stmt 1
	addq	$64, %rsp
	popq	%rbp
	retq
Ltmp530:
Lfunc_end61:
	.cfi_endproc

	.globl	__ZN153_$LT$core..result..Result$LT$T$C$F$GT$$u20$as$u20$core..ops..try_trait..FromResidual$LT$core..result..Result$LT$core..convert..Infallible$C$E$GT$$GT$$GT$13from_residual17h13d65488908295a9E
	.p2align	4, 0x90
__ZN153_$LT$core..result..Result$LT$T$C$F$GT$$u20$as$u20$core..ops..try_trait..FromResidual$LT$core..result..Result$LT$core..convert..Infallible$C$E$GT$$GT$$GT$13from_residual17h13d65488908295a9E:
Lfunc_begin62:
	.file	24 "/rustc/2c8cc343237b8f7d5a3c3703e3a87f2eb2c54a74/library/core/src" "result.rs"
	.loc	24 2105 0
	.cfi_startproc
	pushq	%rbp
	.cfi_def_cfa_offset 16
	.cfi_offset %rbp, -16
	movq	%rsp, %rbp
	.cfi_def_cfa_register %rbp
	subq	$24, %rsp
Ltmp531:
	.loc	24 2107 23 prologue_end
	movl	$1, -24(%rbp)
Ltmp532:
	.loc	24 2109 6
	movl	-24(%rbp), %eax
	movl	-20(%rbp), %edx
	addq	$24, %rsp
	popq	%rbp
	retq
Ltmp533:
Lfunc_end62:
	.cfi_endproc

	.globl	__ZN153_$LT$core..result..Result$LT$T$C$F$GT$$u20$as$u20$core..ops..try_trait..FromResidual$LT$core..result..Result$LT$core..convert..Infallible$C$E$GT$$GT$$GT$13from_residual17hd1097a5eb17eb464E
	.p2align	4, 0x90
__ZN153_$LT$core..result..Result$LT$T$C$F$GT$$u20$as$u20$core..ops..try_trait..FromResidual$LT$core..result..Result$LT$core..convert..Infallible$C$E$GT$$GT$$GT$13from_residual17hd1097a5eb17eb464E:
Lfunc_begin63:
	.loc	24 2105 0
	.cfi_startproc
	pushq	%rbp
	.cfi_def_cfa_offset 16
	.cfi_offset %rbp, -16
	movq	%rsp, %rbp
	.cfi_def_cfa_register %rbp
	subq	$24, %rsp
Ltmp534:
	.loc	24 2107 23 prologue_end
	movb	$1, -17(%rbp)
Ltmp535:
	.loc	24 2109 6
	movb	-17(%rbp), %al
	andb	$1, %al
	movzbl	%al, %eax
	addq	$24, %rsp
	popq	%rbp
	retq
Ltmp536:
Lfunc_end63:
	.cfi_endproc

	.globl	__ZN153_$LT$core..result..Result$LT$T$C$F$GT$$u20$as$u20$core..ops..try_trait..FromResidual$LT$core..result..Result$LT$core..convert..Infallible$C$E$GT$$GT$$GT$13from_residual17heb35e482012c0074E
	.p2align	4, 0x90
__ZN153_$LT$core..result..Result$LT$T$C$F$GT$$u20$as$u20$core..ops..try_trait..FromResidual$LT$core..result..Result$LT$core..convert..Infallible$C$E$GT$$GT$$GT$13from_residual17heb35e482012c0074E:
Lfunc_begin64:
	.loc	24 2105 0
	.cfi_startproc
	pushq	%rbp
	.cfi_def_cfa_offset 16
	.cfi_offset %rbp, -16
	movq	%rsp, %rbp
	.cfi_def_cfa_register %rbp
	subq	$24, %rsp
Ltmp537:
	.loc	24 2107 23 prologue_end
	movb	$2, -17(%rbp)
Ltmp538:
	.loc	24 2109 6
	movb	-17(%rbp), %al
	addq	$24, %rsp
	popq	%rbp
	retq
Ltmp539:
Lfunc_end64:
	.cfi_endproc

	.globl	__ZN42_$LT$$RF$T$u20$as$u20$core..fmt..Debug$GT$3fmt17h23a34722d613d762E
	.p2align	4, 0x90
__ZN42_$LT$$RF$T$u20$as$u20$core..fmt..Debug$GT$3fmt17h23a34722d613d762E:
Lfunc_begin65:
	.file	25 "/rustc/2c8cc343237b8f7d5a3c3703e3a87f2eb2c54a74/library/core/src/fmt" "mod.rs"
	.loc	25 2377 0
	.cfi_startproc
	pushq	%rbp
	.cfi_def_cfa_offset 16
	.cfi_offset %rbp, -16
	movq	%rsp, %rbp
	.cfi_def_cfa_register %rbp
	subq	$16, %rsp
	movq	%rdi, -16(%rbp)
	movq	%rsi, -8(%rbp)
Ltmp540:
	.loc	25 2377 71 prologue_end
	movq	(%rdi), %rdi
	.loc	25 2377 62 is_stmt 0
	callq	__ZN70_$LT$miniz_oxide..inflate..TINFLStatus$u20$as$u20$core..fmt..Debug$GT$3fmt17h38787a8f03a741b2E
	.loc	25 2377 84
	andb	$1, %al
	movzbl	%al, %eax
	addq	$16, %rsp
	popq	%rbp
	retq
Ltmp541:
Lfunc_end65:
	.cfi_endproc

	.globl	__ZN42_$LT$$RF$T$u20$as$u20$core..fmt..Debug$GT$3fmt17h32ba7e8973c67ddaE
	.p2align	4, 0x90
__ZN42_$LT$$RF$T$u20$as$u20$core..fmt..Debug$GT$3fmt17h32ba7e8973c67ddaE:
Lfunc_begin66:
	.loc	25 2377 0 is_stmt 1
	.cfi_startproc
	pushq	%rbp
	.cfi_def_cfa_offset 16
	.cfi_offset %rbp, -16
	movq	%rsp, %rbp
	.cfi_def_cfa_register %rbp
	subq	$16, %rsp
	movq	%rdi, -16(%rbp)
	movq	%rsi, -8(%rbp)
Ltmp542:
	.loc	25 2377 71 prologue_end
	movq	(%rdi), %rdi
	.loc	25 2377 62 is_stmt 0
	callq	__ZN58_$LT$miniz_oxide..MZStatus$u20$as$u20$core..fmt..Debug$GT$3fmt17hc876727109034e80E
	.loc	25 2377 84
	andb	$1, %al
	movzbl	%al, %eax
	addq	$16, %rsp
	popq	%rbp
	retq
Ltmp543:
Lfunc_end66:
	.cfi_endproc

	.globl	__ZN42_$LT$$RF$T$u20$as$u20$core..fmt..Debug$GT$3fmt17h67fb9156b6751d47E
	.p2align	4, 0x90
__ZN42_$LT$$RF$T$u20$as$u20$core..fmt..Debug$GT$3fmt17h67fb9156b6751d47E:
Lfunc_begin67:
	.loc	25 2377 0 is_stmt 1
	.cfi_startproc
	pushq	%rbp
	.cfi_def_cfa_offset 16
	.cfi_offset %rbp, -16
	movq	%rsp, %rbp
	.cfi_def_cfa_register %rbp
	subq	$16, %rsp
	movq	%rdi, -16(%rbp)
	movq	%rsi, -8(%rbp)
Ltmp544:
	.loc	25 2377 71 prologue_end
	movq	(%rdi), %rdi
	.loc	25 2377 62 is_stmt 0
	callq	__ZN65_$LT$alloc..vec..Vec$LT$T$C$A$GT$$u20$as$u20$core..fmt..Debug$GT$3fmt17hb1e441cc1b43158dE
	.loc	25 2377 84
	andb	$1, %al
	movzbl	%al, %eax
	addq	$16, %rsp
	popq	%rbp
	retq
Ltmp545:
Lfunc_end67:
	.cfi_endproc

	.globl	__ZN42_$LT$$RF$T$u20$as$u20$core..fmt..Debug$GT$3fmt17h7543f762192357c5E
	.p2align	4, 0x90
__ZN42_$LT$$RF$T$u20$as$u20$core..fmt..Debug$GT$3fmt17h7543f762192357c5E:
Lfunc_begin68:
	.loc	25 2377 0 is_stmt 1
	.cfi_startproc
	pushq	%rbp
	.cfi_def_cfa_offset 16
	.cfi_offset %rbp, -16
	movq	%rsp, %rbp
	.cfi_def_cfa_register %rbp
	subq	$16, %rsp
	movq	%rdi, -16(%rbp)
	movq	%rsi, -8(%rbp)
Ltmp546:
	.loc	25 2377 71 prologue_end
	movq	(%rdi), %rdi
	.loc	25 2377 62 is_stmt 0
	callq	__ZN57_$LT$miniz_oxide..MZError$u20$as$u20$core..fmt..Debug$GT$3fmt17h630fab54e11d53e0E
	.loc	25 2377 84
	andb	$1, %al
	movzbl	%al, %eax
	addq	$16, %rsp
	popq	%rbp
	retq
Ltmp547:
Lfunc_end68:
	.cfi_endproc

	.globl	__ZN42_$LT$$RF$T$u20$as$u20$core..fmt..Debug$GT$3fmt17hacded92af448ddd2E
	.p2align	4, 0x90
__ZN42_$LT$$RF$T$u20$as$u20$core..fmt..Debug$GT$3fmt17hacded92af448ddd2E:
Lfunc_begin69:
	.loc	25 2377 0 is_stmt 1
	.cfi_startproc
	pushq	%rbp
	.cfi_def_cfa_offset 16
	.cfi_offset %rbp, -16
	movq	%rsp, %rbp
	.cfi_def_cfa_register %rbp
	subq	$16, %rsp
	movq	%rdi, -16(%rbp)
	movq	%rsi, -8(%rbp)
Ltmp548:
	.loc	25 2377 71 prologue_end
	movq	(%rdi), %rdi
	.loc	25 2377 62 is_stmt 0
	callq	__ZN4core3fmt3num50_$LT$impl$u20$core..fmt..Debug$u20$for$u20$u32$GT$3fmt17hd28e048e2041fc85E
	.loc	25 2377 84
	andb	$1, %al
	movzbl	%al, %eax
	addq	$16, %rsp
	popq	%rbp
	retq
Ltmp549:
Lfunc_end69:
	.cfi_endproc

	.globl	__ZN42_$LT$$RF$T$u20$as$u20$core..fmt..Debug$GT$3fmt17haf97ad2504d69f89E
	.p2align	4, 0x90
__ZN42_$LT$$RF$T$u20$as$u20$core..fmt..Debug$GT$3fmt17haf97ad2504d69f89E:
Lfunc_begin70:
	.loc	25 2377 0 is_stmt 1
	.cfi_startproc
	pushq	%rbp
	.cfi_def_cfa_offset 16
	.cfi_offset %rbp, -16
	movq	%rsp, %rbp
	.cfi_def_cfa_register %rbp
	subq	$16, %rsp
	movq	%rdi, -16(%rbp)
	movq	%rsi, -8(%rbp)
Ltmp550:
	.loc	25 2377 71 prologue_end
	movq	(%rdi), %rdi
	.loc	25 2377 62 is_stmt 0
	callq	__ZN70_$LT$core..result..Result$LT$T$C$E$GT$$u20$as$u20$core..fmt..Debug$GT$3fmt17hb4324915d320e6adE
	.loc	25 2377 84
	andb	$1, %al
	movzbl	%al, %eax
	addq	$16, %rsp
	popq	%rbp
	retq
Ltmp551:
Lfunc_end70:
	.cfi_endproc

	.globl	__ZN42_$LT$$RF$T$u20$as$u20$core..fmt..Debug$GT$3fmt17hc56ddd538ddb9ae1E
	.p2align	4, 0x90
__ZN42_$LT$$RF$T$u20$as$u20$core..fmt..Debug$GT$3fmt17hc56ddd538ddb9ae1E:
Lfunc_begin71:
	.loc	25 2377 0 is_stmt 1
	.cfi_startproc
	pushq	%rbp
	.cfi_def_cfa_offset 16
	.cfi_offset %rbp, -16
	movq	%rsp, %rbp
	.cfi_def_cfa_register %rbp
	subq	$16, %rsp
	movq	%rdi, -16(%rbp)
	movq	%rsi, -8(%rbp)
Ltmp552:
	.loc	25 2377 71 prologue_end
	movq	(%rdi), %rdi
	.loc	25 2377 62 is_stmt 0
	callq	__ZN4core3fmt3num49_$LT$impl$u20$core..fmt..Debug$u20$for$u20$u8$GT$3fmt17h79b23d06fed5e8bcE
	.loc	25 2377 84
	andb	$1, %al
	movzbl	%al, %eax
	addq	$16, %rsp
	popq	%rbp
	retq
Ltmp553:
Lfunc_end71:
	.cfi_endproc

	.p2align	4, 0x90
__ZN46_$LT$u8$u20$as$u20$core..iter..range..Step$GT$17forward_unchecked17hd0cf8bb51254ad5fE:
Lfunc_begin72:
	.loc	14 189 0 is_stmt 1
	.cfi_startproc
	pushq	%rbp
	.cfi_def_cfa_offset 16
	.cfi_offset %rbp, -16
	movq	%rsp, %rbp
	.cfi_def_cfa_register %rbp
	subq	$24, %rsp
	movb	%dil, %al
	movb	%al, -17(%rbp)
	movq	%rsi, -16(%rbp)
Ltmp554:
	.loc	14 191 22 prologue_end
	movb	%al, -3(%rbp)
	.loc	14 191 42 is_stmt 0
	movb	%sil, %cl
	movb	%cl, -2(%rbp)
Ltmp555:
	.file	26 "/rustc/2c8cc343237b8f7d5a3c3703e3a87f2eb2c54a74/library/core/src/num" "uint_macros.rs"
	.loc	26 470 22 is_stmt 1
	addb	%cl, %al
	movb	%al, -1(%rbp)
	movb	-1(%rbp), %al
Ltmp556:
	.loc	14 192 10
	addq	$24, %rsp
	popq	%rbp
	retq
Ltmp557:
Lfunc_end72:
	.cfi_endproc

	.p2align	4, 0x90
__ZN47_$LT$i32$u20$as$u20$core..iter..range..Step$GT$17forward_unchecked17h83e65fdabab40684E:
Lfunc_begin73:
	.loc	14 189 0
	.cfi_startproc
	pushq	%rbp
	.cfi_def_cfa_offset 16
	.cfi_offset %rbp, -16
	movq	%rsp, %rbp
	.cfi_def_cfa_register %rbp
	subq	$32, %rsp
	movl	%edi, -28(%rbp)
	movq	%rsi, -24(%rbp)
Ltmp558:
	.loc	14 191 22 prologue_end
	movl	%edi, -12(%rbp)
	.loc	14 191 42 is_stmt 0
	movl	%esi, %eax
	movl	%eax, -8(%rbp)
Ltmp559:
	.file	27 "/rustc/2c8cc343237b8f7d5a3c3703e3a87f2eb2c54a74/library/core/src/num" "int_macros.rs"
	.loc	27 460 22 is_stmt 1
	addl	%eax, %edi
	movl	%edi, -4(%rbp)
	movl	-4(%rbp), %eax
Ltmp560:
	.loc	14 192 10
	addq	$32, %rsp
	popq	%rbp
	retq
Ltmp561:
Lfunc_end73:
	.cfi_endproc

	.p2align	4, 0x90
__ZN47_$LT$u32$u20$as$u20$core..iter..range..Step$GT$17forward_unchecked17h0ab7a35666feae9cE:
Lfunc_begin74:
	.loc	14 189 0
	.cfi_startproc
	pushq	%rbp
	.cfi_def_cfa_offset 16
	.cfi_offset %rbp, -16
	movq	%rsp, %rbp
	.cfi_def_cfa_register %rbp
	subq	$32, %rsp
	movl	%edi, -28(%rbp)
	movq	%rsi, -24(%rbp)
Ltmp562:
	.loc	14 191 22 prologue_end
	movl	%edi, -12(%rbp)
	.loc	14 191 42 is_stmt 0
	movl	%esi, %eax
	movl	%eax, -8(%rbp)
Ltmp563:
	.loc	26 470 22 is_stmt 1
	addl	%eax, %edi
	movl	%edi, -4(%rbp)
	movl	-4(%rbp), %eax
Ltmp564:
	.loc	14 192 10
	addq	$32, %rsp
	popq	%rbp
	retq
Ltmp565:
Lfunc_end74:
	.cfi_endproc

	.globl	__ZN48_$LT$$u5b$T$u5d$$u20$as$u20$core..fmt..Debug$GT$3fmt17h2d761c3c09805a32E
	.p2align	4, 0x90
__ZN48_$LT$$u5b$T$u5d$$u20$as$u20$core..fmt..Debug$GT$3fmt17h2d761c3c09805a32E:
Lfunc_begin75:
	.loc	25 2602 0
	.cfi_startproc
	pushq	%rbp
	.cfi_def_cfa_offset 16
	.cfi_offset %rbp, -16
	movq	%rsp, %rbp
	.cfi_def_cfa_register %rbp
	subq	$80, %rsp
	movq	%rdx, -80(%rbp)
	movq	%rsi, %rax
	movq	-80(%rbp), %rsi
	movq	%rdi, -72(%rbp)
	movq	%rax, -64(%rbp)
	movq	%rdi, -40(%rbp)
	movq	%rax, -32(%rbp)
	movq	%rsi, -24(%rbp)
Ltmp566:
	.loc	25 2603 9 prologue_end
	leaq	-56(%rbp), %rdi
	callq	__ZN4core3fmt9Formatter10debug_list17hc648f6f2ff865c45E
	movq	-72(%rbp), %rdi
	movq	-64(%rbp), %rsi
	.loc	25 2603 32 is_stmt 0
	movq	%rdi, -16(%rbp)
	movq	%rsi, -8(%rbp)
Ltmp567:
	.file	28 "/rustc/2c8cc343237b8f7d5a3c3703e3a87f2eb2c54a74/library/core/src/slice" "mod.rs"
	.loc	28 742 9 is_stmt 1
	callq	__ZN4core5slice4iter13Iter$LT$T$GT$3new17h86dbdec1b531053dE
	movq	%rax, %rsi
Ltmp568:
	.loc	25 2603 9
	leaq	-56(%rbp), %rdi
	callq	__ZN4core3fmt8builders9DebugList7entries17h1e3fabf72e5f6c06E
	movq	%rax, %rdi
	callq	__ZN4core3fmt8builders9DebugList6finish17hed399f470c25b4b2E
	.loc	25 2604 6
	andb	$1, %al
	movzbl	%al, %eax
	addq	$80, %rsp
	popq	%rbp
	retq
Ltmp569:
Lfunc_end75:
	.cfi_endproc

	.p2align	4, 0x90
__ZN49_$LT$usize$u20$as$u20$core..iter..range..Step$GT$17forward_unchecked17hc3d72e99b6c1c85cE:
Lfunc_begin76:
	.loc	14 189 0
	.cfi_startproc
	pushq	%rbp
	.cfi_def_cfa_offset 16
	.cfi_offset %rbp, -16
	movq	%rsp, %rbp
	.cfi_def_cfa_register %rbp
	subq	$40, %rsp
	movq	%rdi, -40(%rbp)
	movq	%rsi, -32(%rbp)
Ltmp570:
	.loc	14 191 22 prologue_end
	movq	%rdi, -24(%rbp)
	.loc	14 191 42 is_stmt 0
	movq	%rsi, -16(%rbp)
Ltmp571:
	.loc	26 470 22 is_stmt 1
	addq	%rsi, %rdi
	movq	%rdi, -8(%rbp)
	movq	-8(%rbp), %rax
Ltmp572:
	.loc	14 192 10
	addq	$40, %rsp
	popq	%rbp
	retq
Ltmp573:
Lfunc_end76:
	.cfi_endproc

	.p2align	4, 0x90
__ZN49_$LT$usize$u20$as$u20$core..iter..range..Step$GT$18backward_unchecked17h39166141ebb36a0eE:
Lfunc_begin77:
	.loc	14 195 0
	.cfi_startproc
	pushq	%rbp
	.cfi_def_cfa_offset 16
	.cfi_offset %rbp, -16
	movq	%rsp, %rbp
	.cfi_def_cfa_register %rbp
	subq	$40, %rsp
	movq	%rdi, -40(%rbp)
	movq	%rsi, -32(%rbp)
Ltmp574:
	.loc	14 197 22 prologue_end
	movq	%rdi, -24(%rbp)
	.loc	14 197 42 is_stmt 0
	movq	%rsi, -16(%rbp)
Ltmp575:
	.loc	26 539 22 is_stmt 1
	subq	%rsi, %rdi
	movq	%rdi, -8(%rbp)
	movq	-8(%rbp), %rax
Ltmp576:
	.loc	14 198 10
	addq	$40, %rsp
	popq	%rbp
	retq
Ltmp577:
Lfunc_end77:
	.cfi_endproc

	.globl	__ZN4core13const_closure60ConstFnMutClosure$LT$$RF$mut$u20$CapturedData$C$Function$GT$3new17h1c688be955eb854bE
	.p2align	4, 0x90
__ZN4core13const_closure60ConstFnMutClosure$LT$$RF$mut$u20$CapturedData$C$Function$GT$3new17h1c688be955eb854bE:
Lfunc_begin78:
	.loc	23 35 0
	.cfi_startproc
	pushq	%rbp
	.cfi_def_cfa_offset 16
	.cfi_offset %rbp, -16
	movq	%rsp, %rbp
	.cfi_def_cfa_register %rbp
	subq	$24, %rsp
	movq	%rdi, -16(%rbp)
Ltmp578:
	.loc	23 42 9 prologue_end
	movq	%rdi, -24(%rbp)
	.loc	23 43 6
	movq	-24(%rbp), %rax
	addq	$24, %rsp
	popq	%rbp
	retq
Ltmp579:
Lfunc_end78:
	.cfi_endproc

	.globl	__ZN4core13const_closure60ConstFnMutClosure$LT$$RF$mut$u20$CapturedData$C$Function$GT$3new17h4a71f251d057232cE
	.p2align	4, 0x90
__ZN4core13const_closure60ConstFnMutClosure$LT$$RF$mut$u20$CapturedData$C$Function$GT$3new17h4a71f251d057232cE:
Lfunc_begin79:
	.loc	23 35 0
	.cfi_startproc
	pushq	%rbp
	.cfi_def_cfa_offset 16
	.cfi_offset %rbp, -16
	movq	%rsp, %rbp
	.cfi_def_cfa_register %rbp
	subq	$24, %rsp
	movq	%rdi, -16(%rbp)
Ltmp580:
	.loc	23 42 9 prologue_end
	movq	%rdi, -24(%rbp)
	.loc	23 43 6
	movq	-24(%rbp), %rax
	addq	$24, %rsp
	popq	%rbp
	retq
Ltmp581:
Lfunc_end79:
	.cfi_endproc

	.globl	__ZN4core13const_closure60ConstFnMutClosure$LT$$RF$mut$u20$CapturedData$C$Function$GT$3new17h62f1e70622002fc3E
	.p2align	4, 0x90
__ZN4core13const_closure60ConstFnMutClosure$LT$$RF$mut$u20$CapturedData$C$Function$GT$3new17h62f1e70622002fc3E:
Lfunc_begin80:
	.loc	23 35 0
	.cfi_startproc
	pushq	%rbp
	.cfi_def_cfa_offset 16
	.cfi_offset %rbp, -16
	movq	%rsp, %rbp
	.cfi_def_cfa_register %rbp
	subq	$24, %rsp
	movq	%rdi, -16(%rbp)
Ltmp582:
	.loc	23 42 9 prologue_end
	movq	%rdi, -24(%rbp)
	.loc	23 43 6
	movq	-24(%rbp), %rax
	addq	$24, %rsp
	popq	%rbp
	retq
Ltmp583:
Lfunc_end80:
	.cfi_endproc

	.globl	__ZN4core13const_closure60ConstFnMutClosure$LT$$RF$mut$u20$CapturedData$C$Function$GT$3new17h6d86f186de4159e4E
	.p2align	4, 0x90
__ZN4core13const_closure60ConstFnMutClosure$LT$$RF$mut$u20$CapturedData$C$Function$GT$3new17h6d86f186de4159e4E:
Lfunc_begin81:
	.loc	23 35 0
	.cfi_startproc
	pushq	%rbp
	.cfi_def_cfa_offset 16
	.cfi_offset %rbp, -16
	movq	%rsp, %rbp
	.cfi_def_cfa_register %rbp
	subq	$24, %rsp
	movq	%rdi, -16(%rbp)
Ltmp584:
	.loc	23 42 9 prologue_end
	movq	%rdi, -24(%rbp)
	.loc	23 43 6
	movq	-24(%rbp), %rax
	addq	$24, %rsp
	popq	%rbp
	retq
Ltmp585:
Lfunc_end81:
	.cfi_endproc

	.globl	__ZN4core3cmp3Ord3max17h0f0e51f7a5d91af9E
	.p2align	4, 0x90
__ZN4core3cmp3Ord3max17h0f0e51f7a5d91af9E:
Lfunc_begin82:
	.file	29 "/rustc/2c8cc343237b8f7d5a3c3703e3a87f2eb2c54a74/library/core/src" "cmp.rs"
	.loc	29 796 0
	.cfi_startproc
	pushq	%rbp
	.cfi_def_cfa_offset 16
	.cfi_offset %rbp, -16
	movq	%rsp, %rbp
	.cfi_def_cfa_register %rbp
	subq	$16, %rsp
	movl	%edi, -8(%rbp)
	movl	%esi, -4(%rbp)
Ltmp586:
	.loc	29 803 13 prologue_end
	callq	__ZN4core3cmp6max_by17h199e4b6caa614367E
	.loc	29 811 6
	addq	$16, %rsp
	popq	%rbp
	retq
Ltmp587:
Lfunc_end82:
	.cfi_endproc

	.globl	__ZN4core3cmp3Ord3max17h49c533c8d29b7e1fE
	.p2align	4, 0x90
__ZN4core3cmp3Ord3max17h49c533c8d29b7e1fE:
Lfunc_begin83:
	.loc	29 796 0
	.cfi_startproc
	pushq	%rbp
	.cfi_def_cfa_offset 16
	.cfi_offset %rbp, -16
	movq	%rsp, %rbp
	.cfi_def_cfa_register %rbp
	subq	$16, %rsp
	movq	%rdi, -16(%rbp)
	movq	%rsi, -8(%rbp)
Ltmp588:
	.loc	29 803 13 prologue_end
	callq	__ZN4core3cmp6max_by17h46e681d3f4b7fac3E
	.loc	29 811 6
	addq	$16, %rsp
	popq	%rbp
	retq
Ltmp589:
Lfunc_end83:
	.cfi_endproc

	.globl	__ZN4core3cmp3Ord3min17h49eb23835f202142E
	.p2align	4, 0x90
__ZN4core3cmp3Ord3min17h49eb23835f202142E:
Lfunc_begin84:
	.loc	29 826 0
	.cfi_startproc
	pushq	%rbp
	.cfi_def_cfa_offset 16
	.cfi_offset %rbp, -16
	movq	%rsp, %rbp
	.cfi_def_cfa_register %rbp
	subq	$16, %rsp
	movl	%edi, -8(%rbp)
	movl	%esi, -4(%rbp)
Ltmp590:
	.loc	29 833 13 prologue_end
	callq	__ZN4core3cmp6min_by17h4acf716481e20c76E
	.loc	29 841 6
	addq	$16, %rsp
	popq	%rbp
	retq
Ltmp591:
Lfunc_end84:
	.cfi_endproc

	.globl	__ZN4core3cmp3Ord3min17h8d9ce7014a8aae19E
	.p2align	4, 0x90
__ZN4core3cmp3Ord3min17h8d9ce7014a8aae19E:
Lfunc_begin85:
	.loc	29 826 0
	.cfi_startproc
	pushq	%rbp
	.cfi_def_cfa_offset 16
	.cfi_offset %rbp, -16
	movq	%rsp, %rbp
	.cfi_def_cfa_register %rbp
	subq	$16, %rsp
	movl	%edi, -8(%rbp)
	movl	%esi, -4(%rbp)
Ltmp592:
	.loc	29 833 13 prologue_end
	callq	__ZN4core3cmp6min_by17hec6722fded5fd15eE
	.loc	29 841 6
	addq	$16, %rsp
	popq	%rbp
	retq
Ltmp593:
Lfunc_end85:
	.cfi_endproc

	.globl	__ZN4core3cmp3Ord3min17hff67dcb233f1bab8E
	.p2align	4, 0x90
__ZN4core3cmp3Ord3min17hff67dcb233f1bab8E:
Lfunc_begin86:
	.loc	29 826 0
	.cfi_startproc
	pushq	%rbp
	.cfi_def_cfa_offset 16
	.cfi_offset %rbp, -16
	movq	%rsp, %rbp
	.cfi_def_cfa_register %rbp
	subq	$16, %rsp
	movq	%rdi, -16(%rbp)
	movq	%rsi, -8(%rbp)
Ltmp594:
	.loc	29 833 13 prologue_end
	callq	__ZN4core3cmp6min_by17h8d2bddb5692d7b3eE
	.loc	29 841 6
	addq	$16, %rsp
	popq	%rbp
	retq
Ltmp595:
Lfunc_end86:
	.cfi_endproc

	.globl	__ZN4core3cmp3max17ha671642910caf834E
	.p2align	4, 0x90
__ZN4core3cmp3max17ha671642910caf834E:
Lfunc_begin87:
	.loc	29 1275 0
	.cfi_startproc
	pushq	%rbp
	.cfi_def_cfa_offset 16
	.cfi_offset %rbp, -16
	movq	%rsp, %rbp
	.cfi_def_cfa_register %rbp
	subq	$16, %rsp
	movq	%rdi, -16(%rbp)
	movq	%rsi, -8(%rbp)
Ltmp596:
	.loc	29 1276 5 prologue_end
	callq	__ZN4core3cmp3Ord3max17h49c533c8d29b7e1fE
	.loc	29 1277 2
	addq	$16, %rsp
	popq	%rbp
	retq
Ltmp597:
Lfunc_end87:
	.cfi_endproc

	.globl	__ZN4core3cmp3max17he2ff7c880fd255e2E
	.p2align	4, 0x90
__ZN4core3cmp3max17he2ff7c880fd255e2E:
Lfunc_begin88:
	.loc	29 1275 0
	.cfi_startproc
	pushq	%rbp
	.cfi_def_cfa_offset 16
	.cfi_offset %rbp, -16
	movq	%rsp, %rbp
	.cfi_def_cfa_register %rbp
	subq	$16, %rsp
	movl	%edi, -8(%rbp)
	movl	%esi, -4(%rbp)
Ltmp598:
	.loc	29 1276 5 prologue_end
	callq	__ZN4core3cmp3Ord3max17h0f0e51f7a5d91af9E
	.loc	29 1277 2
	addq	$16, %rsp
	popq	%rbp
	retq
Ltmp599:
Lfunc_end88:
	.cfi_endproc

	.globl	__ZN4core3cmp3min17hbede8f2bd8028536E
	.p2align	4, 0x90
__ZN4core3cmp3min17hbede8f2bd8028536E:
Lfunc_begin89:
	.loc	29 1184 0
	.cfi_startproc
	pushq	%rbp
	.cfi_def_cfa_offset 16
	.cfi_offset %rbp, -16
	movq	%rsp, %rbp
	.cfi_def_cfa_register %rbp
	subq	$16, %rsp
	movl	%edi, -8(%rbp)
	movl	%esi, -4(%rbp)
Ltmp600:
	.loc	29 1185 5 prologue_end
	callq	__ZN4core3cmp3Ord3min17h8d9ce7014a8aae19E
	.loc	29 1186 2
	addq	$16, %rsp
	popq	%rbp
	retq
Ltmp601:
Lfunc_end89:
	.cfi_endproc

	.globl	__ZN4core3cmp3min17hd0960dca99f6807eE
	.p2align	4, 0x90
__ZN4core3cmp3min17hd0960dca99f6807eE:
Lfunc_begin90:
	.loc	29 1184 0
	.cfi_startproc
	pushq	%rbp
	.cfi_def_cfa_offset 16
	.cfi_offset %rbp, -16
	movq	%rsp, %rbp
	.cfi_def_cfa_register %rbp
	subq	$16, %rsp
	movq	%rdi, -16(%rbp)
	movq	%rsi, -8(%rbp)
Ltmp602:
	.loc	29 1185 5 prologue_end
	callq	__ZN4core3cmp3Ord3min17hff67dcb233f1bab8E
	.loc	29 1186 2
	addq	$16, %rsp
	popq	%rbp
	retq
Ltmp603:
Lfunc_end90:
	.cfi_endproc

	.globl	__ZN4core3cmp3min17hd466b065a70b4cc0E
	.p2align	4, 0x90
__ZN4core3cmp3min17hd466b065a70b4cc0E:
Lfunc_begin91:
	.loc	29 1184 0
	.cfi_startproc
	pushq	%rbp
	.cfi_def_cfa_offset 16
	.cfi_offset %rbp, -16
	movq	%rsp, %rbp
	.cfi_def_cfa_register %rbp
	subq	$16, %rsp
	movl	%edi, -8(%rbp)
	movl	%esi, -4(%rbp)
Ltmp604:
	.loc	29 1185 5 prologue_end
	callq	__ZN4core3cmp3Ord3min17h49eb23835f202142E
	.loc	29 1186 2
	addq	$16, %rsp
	popq	%rbp
	retq
Ltmp605:
Lfunc_end91:
	.cfi_endproc

	.p2align	4, 0x90
__ZN4core3cmp5impls48_$LT$impl$u20$core..cmp..Ord$u20$for$u20$i32$GT$3cmp17h47113524ce4830a1E:
Lfunc_begin92:
	.loc	29 1454 0
	.cfi_startproc
	pushq	%rbp
	.cfi_def_cfa_offset 16
	.cfi_offset %rbp, -16
	movq	%rsp, %rbp
	.cfi_def_cfa_register %rbp
	subq	$40, %rsp
	movq	%rdi, -40(%rbp)
	movq	%rsi, -32(%rbp)
	movq	%rdi, -16(%rbp)
	movq	%rsi, -8(%rbp)
Ltmp606:
	.loc	29 1457 24 prologue_end
	movl	(%rdi), %eax
	cmpl	(%rsi), %eax
	jl	LBB92_2
	.loc	29 0 24 is_stmt 0
	movq	-32(%rbp), %rcx
	movq	-40(%rbp), %rax
	.loc	29 1458 29 is_stmt 1
	movl	(%rax), %eax
	cmpl	(%rcx), %eax
	je	LBB92_5
	jmp	LBB92_4
LBB92_2:
	.loc	29 1457 41
	movb	$-1, -17(%rbp)
LBB92_3:
	.loc	29 1460 18
	movb	-17(%rbp), %al
	addq	$40, %rsp
	popq	%rbp
	retq
LBB92_4:
	.loc	29 1459 28
	movb	$1, -17(%rbp)
	.loc	29 1458 26
	jmp	LBB92_6
LBB92_5:
	.loc	29 1458 47 is_stmt 0
	movb	$0, -17(%rbp)
LBB92_6:
	.loc	29 1457 21 is_stmt 1
	jmp	LBB92_3
Ltmp607:
Lfunc_end92:
	.cfi_endproc

	.p2align	4, 0x90
__ZN4core3cmp5impls48_$LT$impl$u20$core..cmp..Ord$u20$for$u20$u32$GT$3cmp17h5a493aaa24aaa8b4E:
Lfunc_begin93:
	.loc	29 1454 0
	.cfi_startproc
	pushq	%rbp
	.cfi_def_cfa_offset 16
	.cfi_offset %rbp, -16
	movq	%rsp, %rbp
	.cfi_def_cfa_register %rbp
	subq	$40, %rsp
	movq	%rdi, -40(%rbp)
	movq	%rsi, -32(%rbp)
	movq	%rdi, -16(%rbp)
	movq	%rsi, -8(%rbp)
Ltmp608:
	.loc	29 1457 24 prologue_end
	movl	(%rdi), %eax
	cmpl	(%rsi), %eax
	jb	LBB93_2
	.loc	29 0 24 is_stmt 0
	movq	-32(%rbp), %rcx
	movq	-40(%rbp), %rax
	.loc	29 1458 29 is_stmt 1
	movl	(%rax), %eax
	cmpl	(%rcx), %eax
	je	LBB93_5
	jmp	LBB93_4
LBB93_2:
	.loc	29 1457 41
	movb	$-1, -17(%rbp)
LBB93_3:
	.loc	29 1460 18
	movb	-17(%rbp), %al
	addq	$40, %rsp
	popq	%rbp
	retq
LBB93_4:
	.loc	29 1459 28
	movb	$1, -17(%rbp)
	.loc	29 1458 26
	jmp	LBB93_6
LBB93_5:
	.loc	29 1458 47 is_stmt 0
	movb	$0, -17(%rbp)
LBB93_6:
	.loc	29 1457 21 is_stmt 1
	jmp	LBB93_3
Ltmp609:
Lfunc_end93:
	.cfi_endproc

	.p2align	4, 0x90
__ZN4core3cmp5impls50_$LT$impl$u20$core..cmp..Ord$u20$for$u20$usize$GT$3cmp17h57ec1a92c3757019E:
Lfunc_begin94:
	.loc	29 1454 0
	.cfi_startproc
	pushq	%rbp
	.cfi_def_cfa_offset 16
	.cfi_offset %rbp, -16
	movq	%rsp, %rbp
	.cfi_def_cfa_register %rbp
	subq	$40, %rsp
	movq	%rdi, -40(%rbp)
	movq	%rsi, -32(%rbp)
	movq	%rdi, -16(%rbp)
	movq	%rsi, -8(%rbp)
Ltmp610:
	.loc	29 1457 24 prologue_end
	movq	(%rdi), %rax
	cmpq	(%rsi), %rax
	jb	LBB94_2
	.loc	29 0 24 is_stmt 0
	movq	-32(%rbp), %rcx
	movq	-40(%rbp), %rax
	.loc	29 1458 29 is_stmt 1
	movq	(%rax), %rax
	cmpq	(%rcx), %rax
	je	LBB94_5
	jmp	LBB94_4
LBB94_2:
	.loc	29 1457 41
	movb	$-1, -17(%rbp)
LBB94_3:
	.loc	29 1460 18
	movb	-17(%rbp), %al
	addq	$40, %rsp
	popq	%rbp
	retq
LBB94_4:
	.loc	29 1459 28
	movb	$1, -17(%rbp)
	.loc	29 1458 26
	jmp	LBB94_6
LBB94_5:
	.loc	29 1458 47 is_stmt 0
	movb	$0, -17(%rbp)
LBB94_6:
	.loc	29 1457 21 is_stmt 1
	jmp	LBB94_3
Ltmp611:
Lfunc_end94:
	.cfi_endproc

	.p2align	4, 0x90
__ZN4core3cmp5impls54_$LT$impl$u20$core..cmp..PartialOrd$u20$for$u20$u8$GT$2lt17haef840ffdaaf62fdE:
Lfunc_begin95:
	.loc	29 1441 0
	.cfi_startproc
	pushq	%rbp
	.cfi_def_cfa_offset 16
	.cfi_offset %rbp, -16
	movq	%rsp, %rbp
	.cfi_def_cfa_register %rbp
	subq	$16, %rsp
	movq	%rdi, -16(%rbp)
	movq	%rsi, -8(%rbp)
Ltmp612:
	.loc	29 1441 52 prologue_end
	movb	(%rdi), %al
	cmpb	(%rsi), %al
	setb	%al
	.loc	29 1441 72 is_stmt 0
	andb	$1, %al
	movzbl	%al, %eax
	addq	$16, %rsp
	popq	%rbp
	retq
Ltmp613:
Lfunc_end95:
	.cfi_endproc

	.p2align	4, 0x90
__ZN4core3cmp5impls55_$LT$impl$u20$core..cmp..PartialOrd$u20$for$u20$i32$GT$2lt17h22b8590a7b810aebE:
Lfunc_begin96:
	.loc	29 1441 0 is_stmt 1
	.cfi_startproc
	pushq	%rbp
	.cfi_def_cfa_offset 16
	.cfi_offset %rbp, -16
	movq	%rsp, %rbp
	.cfi_def_cfa_register %rbp
	subq	$16, %rsp
	movq	%rdi, -16(%rbp)
	movq	%rsi, -8(%rbp)
Ltmp614:
	.loc	29 1441 52 prologue_end
	movl	(%rdi), %eax
	cmpl	(%rsi), %eax
	setl	%al
	.loc	29 1441 72 is_stmt 0
	andb	$1, %al
	movzbl	%al, %eax
	addq	$16, %rsp
	popq	%rbp
	retq
Ltmp615:
Lfunc_end96:
	.cfi_endproc

	.p2align	4, 0x90
__ZN4core3cmp5impls55_$LT$impl$u20$core..cmp..PartialOrd$u20$for$u20$u32$GT$2lt17h1d39a893faef0a04E:
Lfunc_begin97:
	.loc	29 1441 0 is_stmt 1
	.cfi_startproc
	pushq	%rbp
	.cfi_def_cfa_offset 16
	.cfi_offset %rbp, -16
	movq	%rsp, %rbp
	.cfi_def_cfa_register %rbp
	subq	$16, %rsp
	movq	%rdi, -16(%rbp)
	movq	%rsi, -8(%rbp)
Ltmp616:
	.loc	29 1441 52 prologue_end
	movl	(%rdi), %eax
	cmpl	(%rsi), %eax
	setb	%al
	.loc	29 1441 72 is_stmt 0
	andb	$1, %al
	movzbl	%al, %eax
	addq	$16, %rsp
	popq	%rbp
	retq
Ltmp617:
Lfunc_end97:
	.cfi_endproc

	.p2align	4, 0x90
__ZN4core3cmp5impls57_$LT$impl$u20$core..cmp..PartialOrd$u20$for$u20$usize$GT$2le17h35f50119ce247994E:
Lfunc_begin98:
	.loc	29 1443 0 is_stmt 1
	.cfi_startproc
	pushq	%rbp
	.cfi_def_cfa_offset 16
	.cfi_offset %rbp, -16
	movq	%rsp, %rbp
	.cfi_def_cfa_register %rbp
	subq	$16, %rsp
	movq	%rdi, -16(%rbp)
	movq	%rsi, -8(%rbp)
Ltmp618:
	.loc	29 1443 52 prologue_end
	movq	(%rdi), %rax
	cmpq	(%rsi), %rax
	setbe	%al
	.loc	29 1443 73 is_stmt 0
	andb	$1, %al
	movzbl	%al, %eax
	addq	$16, %rsp
	popq	%rbp
	retq
Ltmp619:
Lfunc_end98:
	.cfi_endproc

	.p2align	4, 0x90
__ZN4core3cmp5impls57_$LT$impl$u20$core..cmp..PartialOrd$u20$for$u20$usize$GT$2lt17h9c49090bf70437dfE:
Lfunc_begin99:
	.loc	29 1441 0 is_stmt 1
	.cfi_startproc
	pushq	%rbp
	.cfi_def_cfa_offset 16
	.cfi_offset %rbp, -16
	movq	%rsp, %rbp
	.cfi_def_cfa_register %rbp
	subq	$16, %rsp
	movq	%rdi, -16(%rbp)
	movq	%rsi, -8(%rbp)
Ltmp620:
	.loc	29 1441 52 prologue_end
	movq	(%rdi), %rax
	cmpq	(%rsi), %rax
	setb	%al
	.loc	29 1441 72 is_stmt 0
	andb	$1, %al
	movzbl	%al, %eax
	addq	$16, %rsp
	popq	%rbp
	retq
Ltmp621:
Lfunc_end99:
	.cfi_endproc

	.globl	__ZN4core3cmp6max_by17h199e4b6caa614367E
	.p2align	4, 0x90
__ZN4core3cmp6max_by17h199e4b6caa614367E:
Lfunc_begin100:
	.loc	29 1295 0 is_stmt 1
	.cfi_startproc
	.cfi_personality 155, _rust_eh_personality
	.cfi_lsda 16, Lexception18
	pushq	%rbp
	.cfi_def_cfa_offset 16
	.cfi_offset %rbp, -16
	movq	%rsp, %rbp
	.cfi_def_cfa_register %rbp
	subq	$80, %rsp
	movl	%edi, -64(%rbp)
	movl	%esi, -60(%rbp)
Ltmp625:
	.loc	29 1300 11 prologue_end
	movb	$1, -25(%rbp)
	movb	$1, -26(%rbp)
	leaq	-64(%rbp), %rax
	movq	%rax, -48(%rbp)
	leaq	-60(%rbp), %rax
	movq	%rax, -40(%rbp)
	movq	-48(%rbp), %rdi
	movq	-40(%rbp), %rsi
Ltmp622:
	callq	__ZN4core3ops8function6FnOnce9call_once17h0ffa352128c6c1efE
Ltmp623:
	movb	%al, -65(%rbp)
	jmp	LBB100_3
LBB100_1:
	.loc	29 1304 1
	jmp	LBB100_4
LBB100_2:
Ltmp624:
	.loc	29 0 1 is_stmt 0
	movq	%rax, %rcx
	movl	%edx, %eax
	movq	%rcx, -16(%rbp)
	movl	%eax, -8(%rbp)
	jmp	LBB100_1
LBB100_3:
	movb	-65(%rbp), %al
	.loc	29 1300 11 is_stmt 1
	movb	%al, -49(%rbp)
	movb	-49(%rbp), %al
	.loc	29 1300 5 is_stmt 0
	incb	%al
	subb	$2, %al
	jb	LBB100_6
	jmp	LBB100_15
LBB100_15:
	jmp	LBB100_7
LBB100_4:
	.loc	29 1304 1 is_stmt 1
	testb	$1, -25(%rbp)
	jne	LBB100_12
	jmp	LBB100_11
	.loc	29 1300 11
	ud2
LBB100_6:
	.loc	29 1301 45
	movb	$0, -26(%rbp)
	movl	-60(%rbp), %eax
	movl	%eax, -56(%rbp)
	jmp	LBB100_8
LBB100_7:
	.loc	29 1302 30
	movb	$0, -25(%rbp)
	movl	-64(%rbp), %eax
	movl	%eax, -56(%rbp)
LBB100_8:
	.loc	29 1304 1
	testb	$1, -26(%rbp)
	jne	LBB100_10
LBB100_9:
	testb	$1, -25(%rbp)
	jne	LBB100_14
	jmp	LBB100_13
LBB100_10:
	jmp	LBB100_9
LBB100_11:
	.loc	29 1295 1
	movq	-16(%rbp), %rdi
	callq	__Unwind_Resume
LBB100_12:
	.loc	29 1304 1
	jmp	LBB100_11
LBB100_13:
	.loc	29 1304 2 is_stmt 0
	movl	-56(%rbp), %eax
	addq	$80, %rsp
	popq	%rbp
	retq
LBB100_14:
	.loc	29 1304 1
	jmp	LBB100_13
Ltmp626:
Lfunc_end100:
	.cfi_endproc
	.section	__TEXT,__gcc_except_tab
	.p2align	2
GCC_except_table100:
Lexception18:
	.byte	255
	.byte	255
	.byte	1
	.uleb128 Lcst_end18-Lcst_begin18
Lcst_begin18:
	.uleb128 Ltmp622-Lfunc_begin100
	.uleb128 Ltmp623-Ltmp622
	.uleb128 Ltmp624-Lfunc_begin100
	.byte	0
	.uleb128 Ltmp623-Lfunc_begin100
	.uleb128 Lfunc_end100-Ltmp623
	.byte	0
	.byte	0
Lcst_end18:
	.p2align	2

	.section	__TEXT,__text,regular,pure_instructions
	.globl	__ZN4core3cmp6max_by17h46e681d3f4b7fac3E
	.p2align	4, 0x90
__ZN4core3cmp6max_by17h46e681d3f4b7fac3E:
Lfunc_begin101:
	.loc	29 1295 0 is_stmt 1
	.cfi_startproc
	.cfi_personality 155, _rust_eh_personality
	.cfi_lsda 16, Lexception19
	pushq	%rbp
	.cfi_def_cfa_offset 16
	.cfi_offset %rbp, -16
	movq	%rsp, %rbp
	.cfi_def_cfa_register %rbp
	subq	$96, %rsp
	movq	%rdi, -80(%rbp)
	movq	%rsi, -72(%rbp)
Ltmp630:
	.loc	29 1300 11 prologue_end
	movb	$1, -25(%rbp)
	movb	$1, -26(%rbp)
	leaq	-80(%rbp), %rax
	movq	%rax, -48(%rbp)
	leaq	-72(%rbp), %rax
	movq	%rax, -40(%rbp)
	movq	-48(%rbp), %rdi
	movq	-40(%rbp), %rsi
Ltmp627:
	callq	__ZN4core3ops8function6FnOnce9call_once17hf62999aab1a30307E
Ltmp628:
	movb	%al, -81(%rbp)
	jmp	LBB101_3
LBB101_1:
	.loc	29 1304 1
	jmp	LBB101_4
LBB101_2:
Ltmp629:
	.loc	29 0 1 is_stmt 0
	movq	%rax, %rcx
	movl	%edx, %eax
	movq	%rcx, -16(%rbp)
	movl	%eax, -8(%rbp)
	jmp	LBB101_1
LBB101_3:
	movb	-81(%rbp), %al
	.loc	29 1300 11 is_stmt 1
	movb	%al, -49(%rbp)
	movb	-49(%rbp), %al
	.loc	29 1300 5 is_stmt 0
	incb	%al
	subb	$2, %al
	jb	LBB101_6
	jmp	LBB101_15
LBB101_15:
	jmp	LBB101_7
LBB101_4:
	.loc	29 1304 1 is_stmt 1
	testb	$1, -25(%rbp)
	jne	LBB101_12
	jmp	LBB101_11
	.loc	29 1300 11
	ud2
LBB101_6:
	.loc	29 1301 45
	movb	$0, -26(%rbp)
	movq	-72(%rbp), %rax
	movq	%rax, -64(%rbp)
	jmp	LBB101_8
LBB101_7:
	.loc	29 1302 30
	movb	$0, -25(%rbp)
	movq	-80(%rbp), %rax
	movq	%rax, -64(%rbp)
LBB101_8:
	.loc	29 1304 1
	testb	$1, -26(%rbp)
	jne	LBB101_10
LBB101_9:
	testb	$1, -25(%rbp)
	jne	LBB101_14
	jmp	LBB101_13
LBB101_10:
	jmp	LBB101_9
LBB101_11:
	.loc	29 1295 1
	movq	-16(%rbp), %rdi
	callq	__Unwind_Resume
LBB101_12:
	.loc	29 1304 1
	jmp	LBB101_11
LBB101_13:
	.loc	29 1304 2 is_stmt 0
	movq	-64(%rbp), %rax
	addq	$96, %rsp
	popq	%rbp
	retq
LBB101_14:
	.loc	29 1304 1
	jmp	LBB101_13
Ltmp631:
Lfunc_end101:
	.cfi_endproc
	.section	__TEXT,__gcc_except_tab
	.p2align	2
GCC_except_table101:
Lexception19:
	.byte	255
	.byte	255
	.byte	1
	.uleb128 Lcst_end19-Lcst_begin19
Lcst_begin19:
	.uleb128 Ltmp627-Lfunc_begin101
	.uleb128 Ltmp628-Ltmp627
	.uleb128 Ltmp629-Lfunc_begin101
	.byte	0
	.uleb128 Ltmp628-Lfunc_begin101
	.uleb128 Lfunc_end101-Ltmp628
	.byte	0
	.byte	0
Lcst_end19:
	.p2align	2

	.section	__TEXT,__text,regular,pure_instructions
	.globl	__ZN4core3cmp6min_by17h4acf716481e20c76E
	.p2align	4, 0x90
__ZN4core3cmp6min_by17h4acf716481e20c76E:
Lfunc_begin102:
	.loc	29 1204 0 is_stmt 1
	.cfi_startproc
	.cfi_personality 155, _rust_eh_personality
	.cfi_lsda 16, Lexception20
	pushq	%rbp
	.cfi_def_cfa_offset 16
	.cfi_offset %rbp, -16
	movq	%rsp, %rbp
	.cfi_def_cfa_register %rbp
	subq	$80, %rsp
	movl	%edi, -64(%rbp)
	movl	%esi, -60(%rbp)
Ltmp635:
	.loc	29 1209 11 prologue_end
	movb	$1, -25(%rbp)
	movb	$1, -26(%rbp)
	leaq	-64(%rbp), %rax
	movq	%rax, -48(%rbp)
	leaq	-60(%rbp), %rax
	movq	%rax, -40(%rbp)
	movq	-48(%rbp), %rdi
	movq	-40(%rbp), %rsi
Ltmp632:
	callq	__ZN4core3ops8function6FnOnce9call_once17h0ffa352128c6c1efE
Ltmp633:
	movb	%al, -65(%rbp)
	jmp	LBB102_3
LBB102_1:
	.loc	29 1213 1
	jmp	LBB102_4
LBB102_2:
Ltmp634:
	.loc	29 0 1 is_stmt 0
	movq	%rax, %rcx
	movl	%edx, %eax
	movq	%rcx, -16(%rbp)
	movl	%eax, -8(%rbp)
	jmp	LBB102_1
LBB102_3:
	movb	-65(%rbp), %al
	.loc	29 1209 11 is_stmt 1
	movb	%al, -49(%rbp)
	movb	-49(%rbp), %al
	.loc	29 1209 5 is_stmt 0
	incb	%al
	subb	$2, %al
	jb	LBB102_6
	jmp	LBB102_15
LBB102_15:
	jmp	LBB102_7
LBB102_4:
	.loc	29 1213 1 is_stmt 1
	testb	$1, -25(%rbp)
	jne	LBB102_12
	jmp	LBB102_11
	.loc	29 1209 11
	ud2
LBB102_6:
	.loc	29 1210 45
	movb	$0, -25(%rbp)
	movl	-64(%rbp), %eax
	movl	%eax, -56(%rbp)
	jmp	LBB102_8
LBB102_7:
	.loc	29 1211 30
	movb	$0, -26(%rbp)
	movl	-60(%rbp), %eax
	movl	%eax, -56(%rbp)
LBB102_8:
	.loc	29 1213 1
	testb	$1, -26(%rbp)
	jne	LBB102_10
LBB102_9:
	testb	$1, -25(%rbp)
	jne	LBB102_14
	jmp	LBB102_13
LBB102_10:
	jmp	LBB102_9
LBB102_11:
	.loc	29 1204 1
	movq	-16(%rbp), %rdi
	callq	__Unwind_Resume
LBB102_12:
	.loc	29 1213 1
	jmp	LBB102_11
LBB102_13:
	.loc	29 1213 2 is_stmt 0
	movl	-56(%rbp), %eax
	addq	$80, %rsp
	popq	%rbp
	retq
LBB102_14:
	.loc	29 1213 1
	jmp	LBB102_13
Ltmp636:
Lfunc_end102:
	.cfi_endproc
	.section	__TEXT,__gcc_except_tab
	.p2align	2
GCC_except_table102:
Lexception20:
	.byte	255
	.byte	255
	.byte	1
	.uleb128 Lcst_end20-Lcst_begin20
Lcst_begin20:
	.uleb128 Ltmp632-Lfunc_begin102
	.uleb128 Ltmp633-Ltmp632
	.uleb128 Ltmp634-Lfunc_begin102
	.byte	0
	.uleb128 Ltmp633-Lfunc_begin102
	.uleb128 Lfunc_end102-Ltmp633
	.byte	0
	.byte	0
Lcst_end20:
	.p2align	2

	.section	__TEXT,__text,regular,pure_instructions
	.globl	__ZN4core3cmp6min_by17hec6722fded5fd15eE
	.p2align	4, 0x90
__ZN4core3cmp6min_by17hec6722fded5fd15eE:
Lfunc_begin103:
	.loc	29 1204 0 is_stmt 1
	.cfi_startproc
	.cfi_personality 155, _rust_eh_personality
	.cfi_lsda 16, Lexception21
	pushq	%rbp
	.cfi_def_cfa_offset 16
	.cfi_offset %rbp, -16
	movq	%rsp, %rbp
	.cfi_def_cfa_register %rbp
	subq	$80, %rsp
	movl	%edi, -64(%rbp)
	movl	%esi, -60(%rbp)
Ltmp640:
	.loc	29 1209 11 prologue_end
	movb	$1, -25(%rbp)
	movb	$1, -26(%rbp)
	leaq	-64(%rbp), %rax
	movq	%rax, -48(%rbp)
	leaq	-60(%rbp), %rax
	movq	%rax, -40(%rbp)
	movq	-48(%rbp), %rdi
	movq	-40(%rbp), %rsi
Ltmp637:
	callq	__ZN4core3ops8function6FnOnce9call_once17h8705e4778e0fbd16E
Ltmp638:
	movb	%al, -65(%rbp)
	jmp	LBB103_3
LBB103_1:
	.loc	29 1213 1
	jmp	LBB103_4
LBB103_2:
Ltmp639:
	.loc	29 0 1 is_stmt 0
	movq	%rax, %rcx
	movl	%edx, %eax
	movq	%rcx, -16(%rbp)
	movl	%eax, -8(%rbp)
	jmp	LBB103_1
LBB103_3:
	movb	-65(%rbp), %al
	.loc	29 1209 11 is_stmt 1
	movb	%al, -49(%rbp)
	movb	-49(%rbp), %al
	.loc	29 1209 5 is_stmt 0
	incb	%al
	subb	$2, %al
	jb	LBB103_6
	jmp	LBB103_15
LBB103_15:
	jmp	LBB103_7
LBB103_4:
	.loc	29 1213 1 is_stmt 1
	testb	$1, -25(%rbp)
	jne	LBB103_12
	jmp	LBB103_11
	.loc	29 1209 11
	ud2
LBB103_6:
	.loc	29 1210 45
	movb	$0, -25(%rbp)
	movl	-64(%rbp), %eax
	movl	%eax, -56(%rbp)
	jmp	LBB103_8
LBB103_7:
	.loc	29 1211 30
	movb	$0, -26(%rbp)
	movl	-60(%rbp), %eax
	movl	%eax, -56(%rbp)
LBB103_8:
	.loc	29 1213 1
	testb	$1, -26(%rbp)
	jne	LBB103_10
LBB103_9:
	testb	$1, -25(%rbp)
	jne	LBB103_14
	jmp	LBB103_13
LBB103_10:
	jmp	LBB103_9
LBB103_11:
	.loc	29 1204 1
	movq	-16(%rbp), %rdi
	callq	__Unwind_Resume
LBB103_12:
	.loc	29 1213 1
	jmp	LBB103_11
LBB103_13:
	.loc	29 1213 2 is_stmt 0
	movl	-56(%rbp), %eax
	addq	$80, %rsp
	popq	%rbp
	retq
LBB103_14:
	.loc	29 1213 1
	jmp	LBB103_13
Ltmp641:
Lfunc_end103:
	.cfi_endproc
	.section	__TEXT,__gcc_except_tab
	.p2align	2
GCC_except_table103:
Lexception21:
	.byte	255
	.byte	255
	.byte	1
	.uleb128 Lcst_end21-Lcst_begin21
Lcst_begin21:
	.uleb128 Ltmp637-Lfunc_begin103
	.uleb128 Ltmp638-Ltmp637
	.uleb128 Ltmp639-Lfunc_begin103
	.byte	0
	.uleb128 Ltmp638-Lfunc_begin103
	.uleb128 Lfunc_end103-Ltmp638
	.byte	0
	.byte	0
Lcst_end21:
	.p2align	2

	.section	__TEXT,__text,regular,pure_instructions
	.globl	__ZN4core3cmp9PartialEq2ne17h0d7d7cf610f9720cE
	.p2align	4, 0x90
__ZN4core3cmp9PartialEq2ne17h0d7d7cf610f9720cE:
Lfunc_begin104:
	.loc	29 227 0 is_stmt 1
	.cfi_startproc
	pushq	%rbp
	.cfi_def_cfa_offset 16
	.cfi_offset %rbp, -16
	movq	%rsp, %rbp
	.cfi_def_cfa_register %rbp
	subq	$16, %rsp
	movq	%rdi, -16(%rbp)
	movq	%rsi, -8(%rbp)
Ltmp642:
	.loc	29 228 10 prologue_end
	callq	__ZN61_$LT$miniz_oxide..MZFlush$u20$as$u20$core..cmp..PartialEq$GT$2eq17h916bf10a29fb876bE
	.loc	29 228 9 is_stmt 0
	xorb	$-1, %al
	.loc	29 229 6 is_stmt 1
	andb	$1, %al
	movzbl	%al, %eax
	addq	$16, %rsp
	popq	%rbp
	retq
Ltmp643:
Lfunc_end104:
	.cfi_endproc

	.globl	__ZN4core3cmp9PartialEq2ne17h3416c11b1824c562E
	.p2align	4, 0x90
__ZN4core3cmp9PartialEq2ne17h3416c11b1824c562E:
Lfunc_begin105:
	.loc	29 227 0
	.cfi_startproc
	pushq	%rbp
	.cfi_def_cfa_offset 16
	.cfi_offset %rbp, -16
	movq	%rsp, %rbp
	.cfi_def_cfa_register %rbp
	subq	$16, %rsp
	movq	%rdi, -16(%rbp)
	movq	%rsi, -8(%rbp)
Ltmp644:
	.loc	29 228 10 prologue_end
	callq	__ZN74_$LT$miniz_oxide..inflate..core..State$u20$as$u20$core..cmp..PartialEq$GT$2eq17h96d2b75edc1e0160E
	.loc	29 228 9 is_stmt 0
	xorb	$-1, %al
	.loc	29 229 6 is_stmt 1
	andb	$1, %al
	movzbl	%al, %eax
	addq	$16, %rsp
	popq	%rbp
	retq
Ltmp645:
Lfunc_end105:
	.cfi_endproc

	.globl	__ZN4core3cmp9PartialEq2ne17hdc4c4f77ffd60090E
	.p2align	4, 0x90
__ZN4core3cmp9PartialEq2ne17hdc4c4f77ffd60090E:
Lfunc_begin106:
	.loc	29 227 0
	.cfi_startproc
	pushq	%rbp
	.cfi_def_cfa_offset 16
	.cfi_offset %rbp, -16
	movq	%rsp, %rbp
	.cfi_def_cfa_register %rbp
	subq	$16, %rsp
	movq	%rdi, -16(%rbp)
	movq	%rsi, -8(%rbp)
Ltmp646:
	.loc	29 228 10 prologue_end
	callq	__ZN74_$LT$miniz_oxide..inflate..TINFLStatus$u20$as$u20$core..cmp..PartialEq$GT$2eq17h1a5de284106f0f9cE
	.loc	29 228 9 is_stmt 0
	xorb	$-1, %al
	.loc	29 229 6 is_stmt 1
	andb	$1, %al
	movzbl	%al, %eax
	addq	$16, %rsp
	popq	%rbp
	retq
Ltmp647:
Lfunc_end106:
	.cfi_endproc

	.globl	__ZN4core3cmp9PartialEq2ne17hdc71e340c8510284E
	.p2align	4, 0x90
__ZN4core3cmp9PartialEq2ne17hdc71e340c8510284E:
Lfunc_begin107:
	.loc	29 227 0
	.cfi_startproc
	pushq	%rbp
	.cfi_def_cfa_offset 16
	.cfi_offset %rbp, -16
	movq	%rsp, %rbp
	.cfi_def_cfa_register %rbp
	subq	$16, %rsp
	movq	%rdi, -16(%rbp)
	movq	%rsi, -8(%rbp)
Ltmp648:
	.loc	29 228 10 prologue_end
	callq	__ZN79_$LT$miniz_oxide..deflate..core..TDEFLFlush$u20$as$u20$core..cmp..PartialEq$GT$2eq17h7fdf429c13eedf1cE
	.loc	29 228 9 is_stmt 0
	xorb	$-1, %al
	.loc	29 229 6 is_stmt 1
	andb	$1, %al
	movzbl	%al, %eax
	addq	$16, %rsp
	popq	%rbp
	retq
Ltmp649:
Lfunc_end107:
	.cfi_endproc

	.p2align	4, 0x90
__ZN4core3fmt3num49_$LT$impl$u20$core..fmt..Debug$u20$for$u20$u8$GT$3fmt17h79b23d06fed5e8bcE:
Lfunc_begin108:
	.file	30 "/rustc/2c8cc343237b8f7d5a3c3703e3a87f2eb2c54a74/library/core/src/fmt" "num.rs"
	.loc	30 185 0
	.cfi_startproc
	pushq	%rbp
	.cfi_def_cfa_offset 16
	.cfi_offset %rbp, -16
	movq	%rsp, %rbp
	.cfi_def_cfa_register %rbp
	subq	$48, %rsp
	movq	%rsi, -48(%rbp)
	movq	%rdi, %rax
	movq	-48(%rbp), %rdi
	movq	%rax, -40(%rbp)
	movq	%rdi, -32(%rbp)
	movq	%rax, -16(%rbp)
	movq	%rdi, -8(%rbp)
Ltmp650:
	.loc	30 186 20 prologue_end
	callq	__ZN4core3fmt9Formatter15debug_lower_hex17h0921e6b9188d914eE
	testb	$1, %al
	jne	LBB108_2
	.loc	30 0 20 is_stmt 0
	movq	-32(%rbp), %rdi
	.loc	30 188 27 is_stmt 1
	callq	__ZN4core3fmt9Formatter15debug_upper_hex17h8ce487049a6cccf8E
	testb	$1, %al
	jne	LBB108_5
	jmp	LBB108_4
LBB108_2:
	.loc	30 0 27 is_stmt 0
	movq	-32(%rbp), %rsi
	movq	-40(%rbp), %rdi
	.loc	30 187 21 is_stmt 1
	callq	__ZN4core3fmt3num52_$LT$impl$u20$core..fmt..LowerHex$u20$for$u20$u8$GT$3fmt17h5cfdcd8eebabca5eE
	andb	$1, %al
	movb	%al, -17(%rbp)
LBB108_3:
	.loc	30 193 14
	movb	-17(%rbp), %al
	andb	$1, %al
	movzbl	%al, %eax
	addq	$48, %rsp
	popq	%rbp
	retq
LBB108_4:
	.loc	30 0 14 is_stmt 0
	movq	-32(%rbp), %rsi
	movq	-40(%rbp), %rdi
	.loc	30 191 21 is_stmt 1
	callq	__ZN4core3fmt3num3imp51_$LT$impl$u20$core..fmt..Display$u20$for$u20$u8$GT$3fmt17he2a0798a745fb926E
	andb	$1, %al
	movb	%al, -17(%rbp)
	.loc	30 188 24
	jmp	LBB108_6
LBB108_5:
	.loc	30 0 24 is_stmt 0
	movq	-32(%rbp), %rsi
	movq	-40(%rbp), %rdi
	.loc	30 189 21 is_stmt 1
	callq	__ZN4core3fmt3num52_$LT$impl$u20$core..fmt..UpperHex$u20$for$u20$u8$GT$3fmt17h0d44eda8e53b13dbE
	andb	$1, %al
	movb	%al, -17(%rbp)
LBB108_6:
	.loc	30 186 17
	jmp	LBB108_3
Ltmp651:
Lfunc_end108:
	.cfi_endproc

	.p2align	4, 0x90
__ZN4core3fmt3num50_$LT$impl$u20$core..fmt..Debug$u20$for$u20$u32$GT$3fmt17hd28e048e2041fc85E:
Lfunc_begin109:
	.loc	30 185 0
	.cfi_startproc
	pushq	%rbp
	.cfi_def_cfa_offset 16
	.cfi_offset %rbp, -16
	movq	%rsp, %rbp
	.cfi_def_cfa_register %rbp
	subq	$48, %rsp
	movq	%rsi, -48(%rbp)
	movq	%rdi, %rax
	movq	-48(%rbp), %rdi
	movq	%rax, -40(%rbp)
	movq	%rdi, -32(%rbp)
	movq	%rax, -16(%rbp)
	movq	%rdi, -8(%rbp)
Ltmp652:
	.loc	30 186 20 prologue_end
	callq	__ZN4core3fmt9Formatter15debug_lower_hex17h0921e6b9188d914eE
	testb	$1, %al
	jne	LBB109_2
	.loc	30 0 20 is_stmt 0
	movq	-32(%rbp), %rdi
	.loc	30 188 27 is_stmt 1
	callq	__ZN4core3fmt9Formatter15debug_upper_hex17h8ce487049a6cccf8E
	testb	$1, %al
	jne	LBB109_5
	jmp	LBB109_4
LBB109_2:
	.loc	30 0 27 is_stmt 0
	movq	-32(%rbp), %rsi
	movq	-40(%rbp), %rdi
	.loc	30 187 21 is_stmt 1
	callq	__ZN4core3fmt3num53_$LT$impl$u20$core..fmt..LowerHex$u20$for$u20$u32$GT$3fmt17h794cf20b87700632E
	andb	$1, %al
	movb	%al, -17(%rbp)
LBB109_3:
	.loc	30 193 14
	movb	-17(%rbp), %al
	andb	$1, %al
	movzbl	%al, %eax
	addq	$48, %rsp
	popq	%rbp
	retq
LBB109_4:
	.loc	30 0 14 is_stmt 0
	movq	-32(%rbp), %rsi
	movq	-40(%rbp), %rdi
	.loc	30 191 21 is_stmt 1
	callq	__ZN4core3fmt3num3imp52_$LT$impl$u20$core..fmt..Display$u20$for$u20$u32$GT$3fmt17h081c917b2ee7d4e9E
	andb	$1, %al
	movb	%al, -17(%rbp)
	.loc	30 188 24
	jmp	LBB109_6
LBB109_5:
	.loc	30 0 24 is_stmt 0
	movq	-32(%rbp), %rsi
	movq	-40(%rbp), %rdi
	.loc	30 189 21 is_stmt 1
	callq	__ZN4core3fmt3num53_$LT$impl$u20$core..fmt..UpperHex$u20$for$u20$u32$GT$3fmt17ha96bbefe8f663d11E
	andb	$1, %al
	movb	%al, -17(%rbp)
LBB109_6:
	.loc	30 186 17
	jmp	LBB109_3
Ltmp653:
Lfunc_end109:
	.cfi_endproc

	.globl	__ZN4core3fmt8builders9DebugList7entries17h1e3fabf72e5f6c06E
	.p2align	4, 0x90
__ZN4core3fmt8builders9DebugList7entries17h1e3fabf72e5f6c06E:
Lfunc_begin110:
	.file	31 "/rustc/2c8cc343237b8f7d5a3c3703e3a87f2eb2c54a74/library/core/src/fmt" "builders.rs"
	.loc	31 627 0
	.cfi_startproc
	.cfi_personality 155, _rust_eh_personality
	.cfi_lsda 16, Lexception22
	pushq	%rbp
	.cfi_def_cfa_offset 16
	.cfi_offset %rbp, -16
	movq	%rsp, %rbp
	.cfi_def_cfa_register %rbp
	subq	$112, %rsp
	movq	%rdx, -96(%rbp)
	movq	%rsi, %rax
	movq	-96(%rbp), %rsi
	movq	%rax, -88(%rbp)
	movq	%rdi, %rax
	movq	-88(%rbp), %rdi
	movq	%rax, -80(%rbp)
	movq	%rax, -40(%rbp)
	movq	%rdi, -32(%rbp)
	movq	%rsi, -24(%rbp)
Ltmp660:
	.loc	31 632 22 prologue_end
	callq	__ZN63_$LT$I$u20$as$u20$core..iter..traits..collect..IntoIterator$GT$9into_iter17h2268046556220883E
	movq	%rax, -72(%rbp)
	movq	%rdx, -64(%rbp)
LBB110_1:
Ltmp654:
	.loc	31 0 22 is_stmt 0
	leaq	-72(%rbp), %rdi
Ltmp661:
	.loc	31 632 22
	callq	__ZN91_$LT$core..slice..iter..Iter$LT$T$GT$$u20$as$u20$core..iter..traits..iterator..Iterator$GT$4next17h63cfc4ed932084d7E
Ltmp655:
	movq	%rax, -104(%rbp)
	jmp	LBB110_4
Ltmp662:
LBB110_2:
	.loc	31 627 5 is_stmt 1
	movq	-16(%rbp), %rdi
	callq	__Unwind_Resume
LBB110_3:
Ltmp656:
	.loc	31 0 5 is_stmt 0
	movq	%rax, %rcx
	movl	%edx, %eax
	movq	%rcx, -16(%rbp)
	movl	%eax, -8(%rbp)
	jmp	LBB110_2
LBB110_4:
	movq	-104(%rbp), %rax
Ltmp663:
	.loc	31 632 22 is_stmt 1
	movq	%rax, -56(%rbp)
	movq	-56(%rbp), %rdx
	movl	$1, %eax
	xorl	%ecx, %ecx
	cmpq	$0, %rdx
	cmoveq	%rcx, %rax
	cmpq	$0, %rax
	jne	LBB110_6
Ltmp664:
	.loc	31 0 22 is_stmt 0
	movq	-80(%rbp), %rax
	.loc	31 636 6 is_stmt 1
	addq	$112, %rsp
	popq	%rbp
	retq
LBB110_6:
	.loc	31 0 6 is_stmt 0
	movq	-80(%rbp), %rdi
Ltmp665:
	.loc	31 632 13 is_stmt 1
	movq	-56(%rbp), %rax
	movq	%rax, -48(%rbp)
Ltmp657:
Ltmp666:
	.loc	31 633 13
	leaq	l___unnamed_1(%rip), %rdx
	leaq	-48(%rbp), %rsi
	callq	__ZN4core3fmt8builders9DebugList5entry17h90e9fab3d6cede22E
Ltmp658:
	jmp	LBB110_9
Ltmp667:
LBB110_7:
	.loc	31 634 9
	jmp	LBB110_2
LBB110_8:
Ltmp659:
	.loc	31 0 9 is_stmt 0
	movq	%rax, %rcx
	movl	%edx, %eax
	movq	%rcx, -16(%rbp)
	movl	%eax, -8(%rbp)
	jmp	LBB110_7
LBB110_9:
	.loc	31 634 9
	jmp	LBB110_10
LBB110_10:
	.loc	31 632 9 is_stmt 1
	jmp	LBB110_1
Ltmp668:
Lfunc_end110:
	.cfi_endproc
	.section	__TEXT,__gcc_except_tab
	.p2align	2
GCC_except_table110:
Lexception22:
	.byte	255
	.byte	255
	.byte	1
	.uleb128 Lcst_end22-Lcst_begin22
Lcst_begin22:
	.uleb128 Lfunc_begin110-Lfunc_begin110
	.uleb128 Ltmp654-Lfunc_begin110
	.byte	0
	.byte	0
	.uleb128 Ltmp654-Lfunc_begin110
	.uleb128 Ltmp655-Ltmp654
	.uleb128 Ltmp656-Lfunc_begin110
	.byte	0
	.uleb128 Ltmp655-Lfunc_begin110
	.uleb128 Ltmp657-Ltmp655
	.byte	0
	.byte	0
	.uleb128 Ltmp657-Lfunc_begin110
	.uleb128 Ltmp658-Ltmp657
	.uleb128 Ltmp659-Lfunc_begin110
	.byte	0
Lcst_end22:
	.p2align	2

	.section	__TEXT,__text,regular,pure_instructions
	.globl	__ZN4core3mem11swap_simple17h4f88f73c3d01de93E
	.p2align	4, 0x90
__ZN4core3mem11swap_simple17h4f88f73c3d01de93E:
Lfunc_begin111:
	.loc	2 757 0
	.cfi_startproc
	pushq	%rbp
	.cfi_def_cfa_offset 16
	.cfi_offset %rbp, -16
	movq	%rsp, %rbp
	.cfi_def_cfa_register %rbp
	subq	$192, %rsp
	movq	%rdi, -192(%rbp)
	movq	%rsi, -184(%rbp)
	movq	%rdi, -128(%rbp)
	movq	%rsi, -120(%rbp)
Ltmp669:
	.loc	2 774 27 prologue_end
	movq	%rdi, -112(%rbp)
Ltmp670:
	.loc	9 1157 34
	leaq	-144(%rbp), %rax
	movq	%rax, -104(%rbp)
	.loc	9 1157 9 is_stmt 0
	movq	(%rdi), %rax
	movq	%rax, -144(%rbp)
	.loc	9 1158 9 is_stmt 1
	movq	-144(%rbp), %rax
	movq	%rax, -176(%rbp)
	movq	%rax, -96(%rbp)
Ltmp671:
	.file	32 "/rustc/2c8cc343237b8f7d5a3c3703e3a87f2eb2c54a74/library/core/src/mem" "maybe_uninit.rs"
	.loc	32 627 38
	movq	%rax, -88(%rbp)
Ltmp672:
	.file	33 "/rustc/2c8cc343237b8f7d5a3c3703e3a87f2eb2c54a74/library/core/src/mem" "manually_drop.rs"
	.loc	33 89 9
	movq	%rax, -80(%rbp)
Ltmp673:
	.loc	2 775 27
	movq	%rsi, -72(%rbp)
Ltmp674:
	.loc	9 1157 34
	leaq	-136(%rbp), %rax
	movq	%rax, -64(%rbp)
	.loc	9 1157 9 is_stmt 0
	movq	(%rsi), %rax
	movq	%rax, -136(%rbp)
	.loc	9 1158 9 is_stmt 1
	movq	-136(%rbp), %rax
	movq	%rax, -168(%rbp)
	movq	%rax, -56(%rbp)
	.loc	9 0 9 is_stmt 0
	movq	-184(%rbp), %rax
	movq	-176(%rbp), %rcx
	movq	-192(%rbp), %rdx
	movq	-168(%rbp), %rsi
Ltmp675:
	.loc	32 627 38 is_stmt 1
	movq	%rsi, -32(%rbp)
Ltmp676:
	.loc	33 89 9
	movq	%rsi, -24(%rbp)
Ltmp677:
	.loc	2 776 20
	movq	%rdx, -16(%rbp)
	.loc	2 776 23 is_stmt 0
	movq	%rsi, -160(%rbp)
Ltmp678:
	.loc	9 1354 9 is_stmt 1
	movq	-160(%rbp), %rsi
	movq	%rsi, (%rdx)
Ltmp679:
	.loc	2 777 20
	movq	%rax, -8(%rbp)
	.loc	2 777 23 is_stmt 0
	movq	%rcx, -152(%rbp)
Ltmp680:
	.loc	9 1354 9 is_stmt 1
	movq	-152(%rbp), %rcx
	movq	%rcx, (%rax)
Ltmp681:
	.loc	2 779 2
	addq	$192, %rsp
	popq	%rbp
	retq
Ltmp682:
Lfunc_end111:
	.cfi_endproc

	.globl	__ZN4core3mem11swap_simple17h699d8736b30503b3E
	.p2align	4, 0x90
__ZN4core3mem11swap_simple17h699d8736b30503b3E:
Lfunc_begin112:
	.loc	2 757 0
	.cfi_startproc
	pushq	%rbp
	.cfi_def_cfa_offset 16
	.cfi_offset %rbp, -16
	movq	%rsp, %rbp
	.cfi_def_cfa_register %rbp
	subq	$288, %rsp
	movq	%rdi, -288(%rbp)
	movq	%rsi, -280(%rbp)
	movq	%rdi, -176(%rbp)
	movq	%rsi, -168(%rbp)
Ltmp683:
	.loc	2 774 27 prologue_end
	movq	%rdi, -160(%rbp)
Ltmp684:
	.loc	9 1157 34
	leaq	-208(%rbp), %rax
	movq	%rax, -152(%rbp)
	.loc	9 1157 9 is_stmt 0
	movq	(%rdi), %rax
	movq	%rax, -208(%rbp)
	movq	8(%rdi), %rax
	movq	%rax, -200(%rbp)
	.loc	9 1158 9 is_stmt 1
	movq	-208(%rbp), %rcx
	movq	%rcx, -272(%rbp)
	movq	-200(%rbp), %rax
	movq	%rax, -264(%rbp)
	movq	%rcx, -144(%rbp)
	movq	%rax, -136(%rbp)
Ltmp685:
	.loc	32 627 38
	movq	%rcx, -128(%rbp)
	movq	%rax, -120(%rbp)
Ltmp686:
	.loc	33 89 9
	movq	%rcx, -112(%rbp)
	movq	%rax, -104(%rbp)
Ltmp687:
	.loc	2 775 27
	movq	%rsi, -96(%rbp)
Ltmp688:
	.loc	9 1157 34
	leaq	-192(%rbp), %rax
	movq	%rax, -88(%rbp)
	.loc	9 1157 9 is_stmt 0
	movq	(%rsi), %rax
	movq	%rax, -192(%rbp)
	movq	8(%rsi), %rax
	movq	%rax, -184(%rbp)
	.loc	9 1158 9 is_stmt 1
	movq	-192(%rbp), %rcx
	movq	%rcx, -256(%rbp)
	movq	-184(%rbp), %rax
	movq	%rax, -248(%rbp)
	movq	%rcx, -80(%rbp)
	movq	%rax, -72(%rbp)
	.loc	9 0 9 is_stmt 0
	movq	-280(%rbp), %rax
	movq	-264(%rbp), %rcx
	movq	-272(%rbp), %rdx
	movq	-288(%rbp), %rsi
	movq	-248(%rbp), %rdi
	movq	-256(%rbp), %r8
Ltmp689:
	.loc	32 627 38 is_stmt 1
	movq	%r8, -48(%rbp)
	movq	%rdi, -40(%rbp)
Ltmp690:
	.loc	33 89 9
	movq	%r8, -32(%rbp)
	movq	%rdi, -24(%rbp)
Ltmp691:
	.loc	2 776 20
	movq	%rsi, -16(%rbp)
	.loc	2 776 23 is_stmt 0
	movq	%r8, -240(%rbp)
	movq	%rdi, -232(%rbp)
Ltmp692:
	.loc	9 1354 9 is_stmt 1
	movq	-240(%rbp), %rdi
	movq	%rdi, (%rsi)
	movq	-232(%rbp), %rdi
	movq	%rdi, 8(%rsi)
Ltmp693:
	.loc	2 777 20
	movq	%rax, -8(%rbp)
	.loc	2 777 23 is_stmt 0
	movq	%rdx, -224(%rbp)
	movq	%rcx, -216(%rbp)
Ltmp694:
	.loc	9 1354 9 is_stmt 1
	movq	-224(%rbp), %rcx
	movq	%rcx, (%rax)
	movq	-216(%rbp), %rcx
	movq	%rcx, 8(%rax)
Ltmp695:
	.loc	2 779 2
	addq	$288, %rsp
	popq	%rbp
	retq
Ltmp696:
Lfunc_end112:
	.cfi_endproc

	.globl	__ZN4core3mem11swap_simple17h78106c23960a1960E
	.p2align	4, 0x90
__ZN4core3mem11swap_simple17h78106c23960a1960E:
Lfunc_begin113:
	.loc	2 757 0
	.cfi_startproc
	pushq	%rbp
	.cfi_def_cfa_offset 16
	.cfi_offset %rbp, -16
	movq	%rsp, %rbp
	.cfi_def_cfa_register %rbp
	subq	$288, %rsp
	movq	%rdi, -288(%rbp)
	movq	%rsi, -280(%rbp)
	movq	%rdi, -176(%rbp)
	movq	%rsi, -168(%rbp)
Ltmp697:
	.loc	2 774 27 prologue_end
	movq	%rdi, -160(%rbp)
Ltmp698:
	.loc	9 1157 34
	leaq	-208(%rbp), %rax
	movq	%rax, -152(%rbp)
	.loc	9 1157 9 is_stmt 0
	movq	(%rdi), %rax
	movq	%rax, -208(%rbp)
	movq	8(%rdi), %rax
	movq	%rax, -200(%rbp)
	.loc	9 1158 9 is_stmt 1
	movq	-208(%rbp), %rcx
	movq	%rcx, -272(%rbp)
	movq	-200(%rbp), %rax
	movq	%rax, -264(%rbp)
	movq	%rcx, -144(%rbp)
	movq	%rax, -136(%rbp)
Ltmp699:
	.loc	32 627 38
	movq	%rcx, -128(%rbp)
	movq	%rax, -120(%rbp)
Ltmp700:
	.loc	33 89 9
	movq	%rcx, -112(%rbp)
	movq	%rax, -104(%rbp)
Ltmp701:
	.loc	2 775 27
	movq	%rsi, -96(%rbp)
Ltmp702:
	.loc	9 1157 34
	leaq	-192(%rbp), %rax
	movq	%rax, -88(%rbp)
	.loc	9 1157 9 is_stmt 0
	movq	(%rsi), %rax
	movq	%rax, -192(%rbp)
	movq	8(%rsi), %rax
	movq	%rax, -184(%rbp)
	.loc	9 1158 9 is_stmt 1
	movq	-192(%rbp), %rcx
	movq	%rcx, -256(%rbp)
	movq	-184(%rbp), %rax
	movq	%rax, -248(%rbp)
	movq	%rcx, -80(%rbp)
	movq	%rax, -72(%rbp)
	.loc	9 0 9 is_stmt 0
	movq	-280(%rbp), %rax
	movq	-264(%rbp), %rcx
	movq	-272(%rbp), %rdx
	movq	-288(%rbp), %rsi
	movq	-248(%rbp), %rdi
	movq	-256(%rbp), %r8
Ltmp703:
	.loc	32 627 38 is_stmt 1
	movq	%r8, -48(%rbp)
	movq	%rdi, -40(%rbp)
Ltmp704:
	.loc	33 89 9
	movq	%r8, -32(%rbp)
	movq	%rdi, -24(%rbp)
Ltmp705:
	.loc	2 776 20
	movq	%rsi, -16(%rbp)
	.loc	2 776 23 is_stmt 0
	movq	%r8, -240(%rbp)
	movq	%rdi, -232(%rbp)
Ltmp706:
	.loc	9 1354 9 is_stmt 1
	movq	-240(%rbp), %rdi
	movq	%rdi, (%rsi)
	movq	-232(%rbp), %rdi
	movq	%rdi, 8(%rsi)
Ltmp707:
	.loc	2 777 20
	movq	%rax, -8(%rbp)
	.loc	2 777 23 is_stmt 0
	movq	%rdx, -224(%rbp)
	movq	%rcx, -216(%rbp)
Ltmp708:
	.loc	9 1354 9 is_stmt 1
	movq	-224(%rbp), %rcx
	movq	%rcx, (%rax)
	movq	-216(%rbp), %rcx
	movq	%rcx, 8(%rax)
Ltmp709:
	.loc	2 779 2
	addq	$288, %rsp
	popq	%rbp
	retq
Ltmp710:
Lfunc_end113:
	.cfi_endproc

	.globl	__ZN4core3mem11swap_simple17hb834c8bdc74da211E
	.p2align	4, 0x90
__ZN4core3mem11swap_simple17hb834c8bdc74da211E:
Lfunc_begin114:
	.loc	2 757 0
	.cfi_startproc
	pushq	%rbp
	.cfi_def_cfa_offset 16
	.cfi_offset %rbp, -16
	movq	%rsp, %rbp
	.cfi_def_cfa_register %rbp
	subq	$128, %rsp
	movq	%rdi, -128(%rbp)
	movq	%rsi, -120(%rbp)
	movq	%rdi, -104(%rbp)
	movq	%rsi, -96(%rbp)
Ltmp711:
	.loc	2 774 27 prologue_end
	movq	%rdi, -88(%rbp)
Ltmp712:
	.loc	9 1157 34
	leaq	-106(%rbp), %rax
	movq	%rax, -80(%rbp)
	.loc	9 1157 9 is_stmt 0
	movb	(%rdi), %al
	movb	%al, -106(%rbp)
	.loc	9 1158 9 is_stmt 1
	movb	-106(%rbp), %al
	movb	%al, -110(%rbp)
	movb	%al, -67(%rbp)
Ltmp713:
	.loc	32 627 38
	movb	%al, -66(%rbp)
Ltmp714:
	.loc	33 89 9
	movb	%al, -65(%rbp)
Ltmp715:
	.loc	2 775 27
	movq	%rsi, -64(%rbp)
Ltmp716:
	.loc	9 1157 34
	leaq	-105(%rbp), %rax
	movq	%rax, -56(%rbp)
	.loc	9 1157 9 is_stmt 0
	movb	(%rsi), %al
	movb	%al, -105(%rbp)
	.loc	9 1158 9 is_stmt 1
	movb	-105(%rbp), %al
	movb	%al, -109(%rbp)
	movb	%al, -41(%rbp)
	.loc	9 0 9 is_stmt 0
	movq	-120(%rbp), %rax
	movb	-110(%rbp), %cl
	movq	-128(%rbp), %rdx
	movb	-109(%rbp), %sil
Ltmp717:
	.loc	32 627 38 is_stmt 1
	movb	%sil, -18(%rbp)
Ltmp718:
	.loc	33 89 9
	movb	%sil, -17(%rbp)
Ltmp719:
	.loc	2 776 20
	movq	%rdx, -16(%rbp)
	.loc	2 776 23 is_stmt 0
	movb	%sil, -108(%rbp)
Ltmp720:
	.loc	9 1354 9 is_stmt 1
	movb	-108(%rbp), %sil
	movb	%sil, (%rdx)
Ltmp721:
	.loc	2 777 20
	movq	%rax, -8(%rbp)
	.loc	2 777 23 is_stmt 0
	movb	%cl, -107(%rbp)
Ltmp722:
	.loc	9 1354 9 is_stmt 1
	movb	-107(%rbp), %cl
	movb	%cl, (%rax)
Ltmp723:
	.loc	2 779 2
	addq	$128, %rsp
	popq	%rbp
	retq
Ltmp724:
Lfunc_end114:
	.cfi_endproc

	.globl	__ZN4core3mem4swap17hd9bf8524985cc3beE
	.p2align	4, 0x90
__ZN4core3mem4swap17hd9bf8524985cc3beE:
Lfunc_begin115:
	.loc	2 720 0
	.cfi_startproc
	pushq	%rbp
	.cfi_def_cfa_offset 16
	.cfi_offset %rbp, -16
	movq	%rsp, %rbp
	.cfi_def_cfa_register %rbp
	subq	$32, %rsp
	movq	%rdi, -32(%rbp)
	movq	%rsi, -24(%rbp)
	movq	%rdi, -16(%rbp)
	movq	%rsi, -8(%rbp)
Ltmp725:
	.loc	2 735 12 prologue_end
	xorl	%eax, %eax
	testb	$1, %al
	jne	LBB115_2
	.loc	2 0 12 is_stmt 0
	movq	-24(%rbp), %rsi
	movq	-32(%rbp), %rdi
	.loc	2 749 5 is_stmt 1
	callq	__ZN4core3mem11swap_simple17h78106c23960a1960E
	.loc	2 750 2
	jmp	LBB115_3
LBB115_2:
	.loc	2 0 2 is_stmt 0
	movq	-24(%rbp), %rsi
	movq	-32(%rbp), %rdi
	.loc	2 738 29 is_stmt 1
	movl	$1, %edx
	callq	__ZN4core3ptr19swap_nonoverlapping17h85d7067bb96d59bbE
LBB115_3:
	.loc	2 750 2
	addq	$32, %rsp
	popq	%rbp
	retq
Ltmp726:
Lfunc_end115:
	.cfi_endproc

	.globl	__ZN4core3mem4take17h68f89688e527c8f7E
	.p2align	4, 0x90
__ZN4core3mem4take17h68f89688e527c8f7E:
Lfunc_begin116:
	.loc	2 838 0
	.cfi_startproc
	pushq	%rbp
	.cfi_def_cfa_offset 16
	.cfi_offset %rbp, -16
	movq	%rsp, %rbp
	.cfi_def_cfa_register %rbp
	subq	$16, %rsp
	movq	%rdi, -16(%rbp)
	movq	%rdi, -8(%rbp)
Ltmp727:
	.loc	2 839 19 prologue_end
	callq	__ZN4core5slice76_$LT$impl$u20$core..default..Default$u20$for$u20$$RF$mut$u20$$u5b$T$u5d$$GT$7default17hd10ac66aab0ec51cE
	movq	-16(%rbp), %rdi
	movq	%rax, %rsi
	.loc	2 839 5 is_stmt 0
	callq	__ZN4core3mem7replace17h043633df381c3b69E
	.loc	2 840 2 is_stmt 1
	addq	$16, %rsp
	popq	%rbp
	retq
Ltmp728:
Lfunc_end116:
	.cfi_endproc

	.globl	__ZN4core3mem7replace17h043633df381c3b69E
	.p2align	4, 0x90
__ZN4core3mem7replace17h043633df381c3b69E:
Lfunc_begin117:
	.loc	2 905 0
	.cfi_startproc
	pushq	%rbp
	.cfi_def_cfa_offset 16
	.cfi_offset %rbp, -16
	movq	%rsp, %rbp
	.cfi_def_cfa_register %rbp
	subq	$184, %rsp
	movq	%rdi, -184(%rbp)
	movq	%rsi, -176(%rbp)
	movq	%rdx, -168(%rbp)
	movq	%rdi, -112(%rbp)
	movq	%rsi, -104(%rbp)
	movq	%rdx, -96(%rbp)
Ltmp729:
	.loc	2 910 32 prologue_end
	movq	%rdi, -88(%rbp)
Ltmp730:
	.loc	9 1157 34
	leaq	-128(%rbp), %rax
	movq	%rax, -80(%rbp)
	.loc	9 1157 9 is_stmt 0
	movq	(%rdi), %rax
	movq	%rax, -128(%rbp)
	movq	8(%rdi), %rax
	movq	%rax, -120(%rbp)
	.loc	9 1158 9 is_stmt 1
	movq	-128(%rbp), %rcx
	movq	%rcx, -160(%rbp)
	movq	-120(%rbp), %rax
	movq	%rax, -152(%rbp)
	movq	%rcx, -72(%rbp)
	movq	%rax, -64(%rbp)
	.loc	9 0 9 is_stmt 0
	movq	-152(%rbp), %rdx
	movq	-160(%rbp), %rax
	movq	-184(%rbp), %rcx
	movq	-168(%rbp), %rsi
	movq	-176(%rbp), %rdi
Ltmp731:
	.loc	32 627 38 is_stmt 1
	movq	%rax, -40(%rbp)
	movq	%rdx, -32(%rbp)
Ltmp732:
	.loc	33 89 9
	movq	%rax, -24(%rbp)
	movq	%rdx, -16(%rbp)
Ltmp733:
	.loc	2 911 20
	movq	%rcx, -8(%rbp)
	.loc	2 911 26 is_stmt 0
	movq	%rdi, -144(%rbp)
	movq	%rsi, -136(%rbp)
Ltmp734:
	.loc	9 1354 9 is_stmt 1
	movq	-144(%rbp), %rsi
	movq	-136(%rbp), %rdi
	movq	%rdi, 8(%rcx)
	movq	%rsi, (%rcx)
Ltmp735:
	.loc	2 914 2
	addq	$184, %rsp
	popq	%rbp
	retq
Ltmp736:
Lfunc_end117:
	.cfi_endproc

	.globl	__ZN4core3mem7replace17h1a74b05c66677fb3E
	.p2align	4, 0x90
__ZN4core3mem7replace17h1a74b05c66677fb3E:
Lfunc_begin118:
	.loc	2 905 0
	.cfi_startproc
	pushq	%rbp
	.cfi_def_cfa_offset 16
	.cfi_offset %rbp, -16
	movq	%rsp, %rbp
	.cfi_def_cfa_register %rbp
	subq	$96, %rsp
	movq	%rdi, -96(%rbp)
	movl	%esi, -88(%rbp)
	movq	%rdi, -72(%rbp)
	movl	%esi, -60(%rbp)
Ltmp737:
	.loc	2 910 32 prologue_end
	movq	%rdi, -56(%rbp)
Ltmp738:
	.loc	9 1157 34
	leaq	-76(%rbp), %rax
	movq	%rax, -48(%rbp)
	.loc	9 1157 9 is_stmt 0
	movl	(%rdi), %eax
	movl	%eax, -76(%rbp)
	.loc	9 1158 9 is_stmt 1
	movl	-76(%rbp), %eax
	movl	%eax, -84(%rbp)
	movl	%eax, -36(%rbp)
	.loc	9 0 9 is_stmt 0
	movl	-84(%rbp), %eax
	movq	-96(%rbp), %rcx
	movl	-88(%rbp), %edx
Ltmp739:
	.loc	32 627 38 is_stmt 1
	movl	%eax, -16(%rbp)
Ltmp740:
	.loc	33 89 9
	movl	%eax, -12(%rbp)
Ltmp741:
	.loc	2 911 20
	movq	%rcx, -8(%rbp)
	.loc	2 911 26 is_stmt 0
	movl	%edx, -80(%rbp)
Ltmp742:
	.loc	9 1354 9 is_stmt 1
	movl	-80(%rbp), %edx
	movl	%edx, (%rcx)
Ltmp743:
	.loc	2 914 2
	addq	$96, %rsp
	popq	%rbp
	retq
Ltmp744:
Lfunc_end118:
	.cfi_endproc

	.globl	__ZN4core3mem7replace17h20e53c0bfcbf625cE
	.p2align	4, 0x90
__ZN4core3mem7replace17h20e53c0bfcbf625cE:
Lfunc_begin119:
	.loc	2 905 0
	.cfi_startproc
	pushq	%rbp
	.cfi_def_cfa_offset 16
	.cfi_offset %rbp, -16
	movq	%rsp, %rbp
	.cfi_def_cfa_register %rbp
	subq	$96, %rsp
	movq	%rdi, -96(%rbp)
	movl	%esi, -88(%rbp)
	movq	%rdi, -72(%rbp)
	movl	%esi, -60(%rbp)
Ltmp745:
	.loc	2 910 32 prologue_end
	movq	%rdi, -56(%rbp)
Ltmp746:
	.loc	9 1157 34
	leaq	-76(%rbp), %rax
	movq	%rax, -48(%rbp)
	.loc	9 1157 9 is_stmt 0
	movl	(%rdi), %eax
	movl	%eax, -76(%rbp)
	.loc	9 1158 9 is_stmt 1
	movl	-76(%rbp), %eax
	movl	%eax, -84(%rbp)
	movl	%eax, -36(%rbp)
	.loc	9 0 9 is_stmt 0
	movl	-84(%rbp), %eax
	movq	-96(%rbp), %rcx
	movl	-88(%rbp), %edx
Ltmp747:
	.loc	32 627 38 is_stmt 1
	movl	%eax, -16(%rbp)
Ltmp748:
	.loc	33 89 9
	movl	%eax, -12(%rbp)
Ltmp749:
	.loc	2 911 20
	movq	%rcx, -8(%rbp)
	.loc	2 911 26 is_stmt 0
	movl	%edx, -80(%rbp)
Ltmp750:
	.loc	9 1354 9 is_stmt 1
	movl	-80(%rbp), %edx
	movl	%edx, (%rcx)
Ltmp751:
	.loc	2 914 2
	addq	$96, %rsp
	popq	%rbp
	retq
Ltmp752:
Lfunc_end119:
	.cfi_endproc

	.globl	__ZN4core3mem7replace17hb035d6a162b1e384E
	.p2align	4, 0x90
__ZN4core3mem7replace17hb035d6a162b1e384E:
Lfunc_begin120:
	.loc	2 905 0
	.cfi_startproc
	pushq	%rbp
	.cfi_def_cfa_offset 16
	.cfi_offset %rbp, -16
	movq	%rsp, %rbp
	.cfi_def_cfa_register %rbp
	subq	$120, %rsp
	movq	%rdi, -120(%rbp)
	movq	%rsi, -112(%rbp)
	movq	%rdi, -80(%rbp)
	movq	%rsi, -72(%rbp)
Ltmp753:
	.loc	2 910 32 prologue_end
	movq	%rdi, -64(%rbp)
Ltmp754:
	.loc	9 1157 34
	leaq	-88(%rbp), %rax
	movq	%rax, -56(%rbp)
	.loc	9 1157 9 is_stmt 0
	movq	(%rdi), %rax
	movq	%rax, -88(%rbp)
	.loc	9 1158 9 is_stmt 1
	movq	-88(%rbp), %rax
	movq	%rax, -104(%rbp)
	movq	%rax, -48(%rbp)
	.loc	9 0 9 is_stmt 0
	movq	-104(%rbp), %rax
	movq	-120(%rbp), %rcx
	movq	-112(%rbp), %rdx
Ltmp755:
	.loc	32 627 38 is_stmt 1
	movq	%rax, -24(%rbp)
Ltmp756:
	.loc	33 89 9
	movq	%rax, -16(%rbp)
Ltmp757:
	.loc	2 911 20
	movq	%rcx, -8(%rbp)
	.loc	2 911 26 is_stmt 0
	movq	%rdx, -96(%rbp)
Ltmp758:
	.loc	9 1354 9 is_stmt 1
	movq	-96(%rbp), %rdx
	movq	%rdx, (%rcx)
Ltmp759:
	.loc	2 914 2
	addq	$120, %rsp
	popq	%rbp
	retq
Ltmp760:
Lfunc_end120:
	.cfi_endproc

	.globl	__ZN4core3mem7replace17he34a22c503c11058E
	.p2align	4, 0x90
__ZN4core3mem7replace17he34a22c503c11058E:
Lfunc_begin121:
	.loc	2 905 0
	.cfi_startproc
	pushq	%rbp
	.cfi_def_cfa_offset 16
	.cfi_offset %rbp, -16
	movq	%rsp, %rbp
	.cfi_def_cfa_register %rbp
	subq	$88, %rsp
	movq	%rdi, -88(%rbp)
	movb	%sil, %al
	movb	%al, -76(%rbp)
	movq	%rdi, -72(%rbp)
	movb	%al, -57(%rbp)
Ltmp761:
	.loc	2 910 32 prologue_end
	movq	%rdi, -56(%rbp)
Ltmp762:
	.loc	9 1157 34
	leaq	-73(%rbp), %rax
	movq	%rax, -48(%rbp)
	.loc	9 1157 9 is_stmt 0
	movb	(%rdi), %al
	movb	%al, -73(%rbp)
	.loc	9 1158 9 is_stmt 1
	movb	-73(%rbp), %al
	movb	%al, -75(%rbp)
	movb	%al, -33(%rbp)
	.loc	9 0 9 is_stmt 0
	movb	-75(%rbp), %al
	movq	-88(%rbp), %rcx
	movb	-76(%rbp), %dl
Ltmp763:
	.loc	32 627 38 is_stmt 1
	movb	%al, -10(%rbp)
Ltmp764:
	.loc	33 89 9
	movb	%al, -9(%rbp)
Ltmp765:
	.loc	2 911 20
	movq	%rcx, -8(%rbp)
	.loc	2 911 26 is_stmt 0
	movb	%dl, -74(%rbp)
Ltmp766:
	.loc	9 1354 9 is_stmt 1
	movb	-74(%rbp), %dl
	movb	%dl, (%rcx)
Ltmp767:
	.loc	2 914 2
	addq	$88, %rsp
	popq	%rbp
	retq
Ltmp768:
Lfunc_end121:
	.cfi_endproc

	.p2align	4, 0x90
__ZN4core3num21_$LT$impl$u20$u16$GT$13from_le_bytes17h795b0395de0ab1a8E:
Lfunc_begin122:
	.loc	26 2373 0
	.cfi_startproc
	pushq	%rbp
	.cfi_def_cfa_offset 16
	.cfi_offset %rbp, -16
	movq	%rsp, %rbp
	.cfi_def_cfa_register %rbp
	subq	$10, %rsp
	movw	%di, %ax
	movw	%ax, -8(%rbp)
	movw	-8(%rbp), %ax
	movw	%ax, -10(%rbp)
Ltmp769:
	.loc	26 2374 47 prologue_end
	movw	-10(%rbp), %ax
	movw	%ax, -6(%rbp)
Ltmp770:
	.loc	26 2417 37
	movw	-6(%rbp), %ax
	movw	%ax, -4(%rbp)
	.loc	26 2417 22 is_stmt 0
	movw	-4(%rbp), %ax
	movw	%ax, -2(%rbp)
	movw	-2(%rbp), %ax
Ltmp771:
	.loc	26 2375 10 is_stmt 1
	addq	$10, %rsp
	popq	%rbp
	retq
Ltmp772:
Lfunc_end122:
	.cfi_endproc

	.p2align	4, 0x90
__ZN4core3num21_$LT$impl$u20$u32$GT$13from_le_bytes17h873c5ed3872e84daE:
Lfunc_begin123:
	.loc	26 2373 0
	.cfi_startproc
	pushq	%rbp
	.cfi_def_cfa_offset 16
	.cfi_offset %rbp, -16
	movq	%rsp, %rbp
	.cfi_def_cfa_register %rbp
	subq	$20, %rsp
	movl	%edi, -16(%rbp)
	movl	-16(%rbp), %eax
	movl	%eax, -20(%rbp)
Ltmp773:
	.loc	26 2374 47 prologue_end
	movl	-20(%rbp), %eax
	movl	%eax, -12(%rbp)
Ltmp774:
	.loc	26 2417 37
	movl	-12(%rbp), %eax
	movl	%eax, -8(%rbp)
	.loc	26 2417 22 is_stmt 0
	movl	-8(%rbp), %eax
	movl	%eax, -4(%rbp)
	movl	-4(%rbp), %eax
Ltmp775:
	.loc	26 2375 10 is_stmt 1
	addq	$20, %rsp
	popq	%rbp
	retq
Ltmp776:
Lfunc_end123:
	.cfi_endproc

	.p2align	4, 0x90
__ZN4core3num21_$LT$impl$u20$u64$GT$11to_le_bytes17hab92a2c57ef7ef60E:
Lfunc_begin124:
	.loc	26 2277 0
	.cfi_startproc
	pushq	%rbp
	.cfi_def_cfa_offset 16
	.cfi_offset %rbp, -16
	movq	%rsp, %rbp
	.cfi_def_cfa_register %rbp
	subq	$32, %rsp
	movq	%rdi, -24(%rbp)
Ltmp777:
	.loc	26 2278 13 prologue_end
	movq	%rdi, -16(%rbp)
Ltmp778:
	.loc	26 415 17
	movq	%rdi, -8(%rbp)
Ltmp779:
	.loc	26 2316 22
	movq	%rdi, -32(%rbp)
Ltmp780:
	.loc	26 2279 10
	movq	-32(%rbp), %rax
	addq	$32, %rsp
	popq	%rbp
	retq
Ltmp781:
Lfunc_end124:
	.cfi_endproc

	.p2align	4, 0x90
__ZN4core3num21_$LT$impl$u20$u64$GT$13from_le_bytes17hc6dac4d93607084dE:
Lfunc_begin125:
	.loc	26 2373 0
	.cfi_startproc
	pushq	%rbp
	.cfi_def_cfa_offset 16
	.cfi_offset %rbp, -16
	movq	%rsp, %rbp
	.cfi_def_cfa_register %rbp
	subq	$40, %rsp
	movq	%rdi, -32(%rbp)
	movq	-32(%rbp), %rax
	movq	%rax, -40(%rbp)
Ltmp782:
	.loc	26 2374 47 prologue_end
	movq	-40(%rbp), %rax
	movq	%rax, -24(%rbp)
Ltmp783:
	.loc	26 2417 37
	movq	-24(%rbp), %rax
	movq	%rax, -16(%rbp)
	.loc	26 2417 22 is_stmt 0
	movq	-16(%rbp), %rax
	movq	%rax, -8(%rbp)
	movq	-8(%rbp), %rax
Ltmp784:
	.loc	26 2375 10 is_stmt 1
	addq	$40, %rsp
	popq	%rbp
	retq
Ltmp785:
Lfunc_end125:
	.cfi_endproc

	.p2align	4, 0x90
__ZN4core3num23_$LT$impl$u20$usize$GT$11checked_add17hab89b3a4f17801c1E:
Lfunc_begin126:
	.loc	26 442 0
	.cfi_startproc
	pushq	%rbp
	.cfi_def_cfa_offset 16
	.cfi_offset %rbp, -16
	movq	%rsp, %rbp
	.cfi_def_cfa_register %rbp
	subq	$120, %rsp
	movq	%rdi, -80(%rbp)
	movq	%rsi, -72(%rbp)
Ltmp786:
	.loc	26 443 26 prologue_end
	movq	%rdi, -64(%rbp)
	.loc	26 443 47 is_stmt 0
	movq	%rsi, -56(%rbp)
Ltmp787:
	.loc	26 1479 26 is_stmt 1
	addq	%rsi, %rdi
	setb	%al
	andb	$1, %al
	movq	%rdi, -48(%rbp)
	movb	%al, -40(%rbp)
	movq	-48(%rbp), %rcx
	movb	-40(%rbp), %al
	.loc	26 1479 18 is_stmt 0
	movq	%rcx, -32(%rbp)
	.loc	26 1479 21
	movb	%al, %dl
	andb	$1, %dl
	movb	%dl, -17(%rbp)
Ltmp788:
	.loc	26 1480 13 is_stmt 1
	movq	%rcx, -96(%rbp)
	andb	$1, %al
	movb	%al, -88(%rbp)
Ltmp789:
	.loc	26 443 18
	movq	-96(%rbp), %rax
	movq	%rax, -120(%rbp)
	movq	%rax, -16(%rbp)
	.loc	26 443 21 is_stmt 0
	movb	-88(%rbp), %al
	movb	%al, %cl
	andb	$1, %cl
	movb	%cl, -2(%rbp)
Ltmp790:
	.loc	26 444 16 is_stmt 1
	andb	$1, %al
	movb	%al, -1(%rbp)
	testb	$1, -1(%rbp)
	jne	LBB126_2
	.loc	26 0 16 is_stmt 0
	movq	-120(%rbp), %rax
	.loc	26 444 42
	movq	%rax, -104(%rbp)
	movq	$1, -112(%rbp)
	.loc	26 444 13
	jmp	LBB126_3
LBB126_2:
	.loc	26 444 30
	movq	$0, -112(%rbp)
Ltmp791:
LBB126_3:
	.loc	26 445 10 is_stmt 1
	movq	-112(%rbp), %rax
	movq	-104(%rbp), %rdx
	addq	$120, %rsp
	popq	%rbp
	retq
Ltmp792:
Lfunc_end126:
	.cfi_endproc

	.p2align	4, 0x90
__ZN4core3num23_$LT$impl$u20$usize$GT$11checked_mul17hba5b52e5eab2cebbE:
Lfunc_begin127:
	.loc	26 558 0
	.cfi_startproc
	pushq	%rbp
	.cfi_def_cfa_offset 16
	.cfi_offset %rbp, -16
	movq	%rsp, %rbp
	.cfi_def_cfa_register %rbp
	subq	$120, %rsp
	movq	%rdi, %rax
	movq	%rax, -80(%rbp)
	movq	%rsi, -72(%rbp)
Ltmp793:
	.loc	26 559 26 prologue_end
	movq	%rax, -64(%rbp)
	.loc	26 559 47 is_stmt 0
	movq	%rsi, -56(%rbp)
Ltmp794:
	.loc	26 1677 26 is_stmt 1
	mulq	%rsi
	movq	%rax, %rcx
	seto	%al
	andb	$1, %al
	movq	%rcx, -48(%rbp)
	movb	%al, -40(%rbp)
	movq	-48(%rbp), %rcx
	movb	-40(%rbp), %al
	.loc	26 1677 18 is_stmt 0
	movq	%rcx, -32(%rbp)
	.loc	26 1677 21
	movb	%al, %dl
	andb	$1, %dl
	movb	%dl, -17(%rbp)
Ltmp795:
	.loc	26 1678 13 is_stmt 1
	movq	%rcx, -96(%rbp)
	andb	$1, %al
	movb	%al, -88(%rbp)
Ltmp796:
	.loc	26 559 18
	movq	-96(%rbp), %rax
	movq	%rax, -120(%rbp)
	movq	%rax, -16(%rbp)
	.loc	26 559 21 is_stmt 0
	movb	-88(%rbp), %al
	movb	%al, %cl
	andb	$1, %cl
	movb	%cl, -2(%rbp)
Ltmp797:
	.loc	26 560 16 is_stmt 1
	andb	$1, %al
	movb	%al, -1(%rbp)
	testb	$1, -1(%rbp)
	jne	LBB127_2
	.loc	26 0 16 is_stmt 0
	movq	-120(%rbp), %rax
	.loc	26 560 42
	movq	%rax, -104(%rbp)
	movq	$1, -112(%rbp)
	.loc	26 560 13
	jmp	LBB127_3
LBB127_2:
	.loc	26 560 30
	movq	$0, -112(%rbp)
Ltmp798:
LBB127_3:
	.loc	26 561 10 is_stmt 1
	movq	-112(%rbp), %rax
	movq	-104(%rbp), %rdx
	addq	$120, %rsp
	popq	%rbp
	retq
Ltmp799:
Lfunc_end127:
	.cfi_endproc

	.p2align	4, 0x90
__ZN4core3num23_$LT$impl$u20$usize$GT$14saturating_mul17h16e74922d5b297b5E:
Lfunc_begin128:
	.loc	26 1089 0
	.cfi_startproc
	pushq	%rbp
	.cfi_def_cfa_offset 16
	.cfi_offset %rbp, -16
	movq	%rsp, %rbp
	.cfi_def_cfa_register %rbp
	subq	$48, %rsp
	movq	%rdi, -24(%rbp)
	movq	%rsi, -16(%rbp)
Ltmp800:
	.loc	26 1090 19 prologue_end
	callq	__ZN4core3num23_$LT$impl$u20$usize$GT$11checked_mul17hba5b52e5eab2cebbE
	movq	%rdx, -32(%rbp)
	movq	%rax, -40(%rbp)
	.loc	26 1090 13 is_stmt 0
	cmpq	$0, -40(%rbp)
	jne	LBB128_2
	.loc	26 1092 25 is_stmt 1
	movq	$-1, -48(%rbp)
	jmp	LBB128_3
LBB128_2:
	.loc	26 1091 22
	movq	-32(%rbp), %rax
	movq	%rax, -8(%rbp)
Ltmp801:
	.loc	26 1091 28 is_stmt 0
	movq	%rax, -48(%rbp)
Ltmp802:
LBB128_3:
	.loc	26 1094 10 is_stmt 1
	movq	-48(%rbp), %rax
	addq	$48, %rsp
	popq	%rbp
	retq
Ltmp803:
Lfunc_end128:
	.cfi_endproc

	.globl	__ZN4core3ops12control_flow77ControlFlow$LT$R$C$$LT$R$u20$as$u20$core..ops..try_trait..Try$GT$..Output$GT$8from_try17h98d9b8335597d6ffE
	.p2align	4, 0x90
__ZN4core3ops12control_flow77ControlFlow$LT$R$C$$LT$R$u20$as$u20$core..ops..try_trait..Try$GT$..Output$GT$8from_try17h98d9b8335597d6ffE:
Lfunc_begin129:
	.loc	6 246 0
	.cfi_startproc
	pushq	%rbp
	.cfi_def_cfa_offset 16
	.cfi_offset %rbp, -16
	movq	%rsp, %rbp
	.cfi_def_cfa_register %rbp
	subq	$48, %rsp
	movq	%rdi, -24(%rbp)
Ltmp804:
	.loc	6 247 15 prologue_end
	callq	__ZN94_$LT$core..ops..try_trait..NeverShortCircuit$LT$T$GT$$u20$as$u20$core..ops..try_trait..Try$GT$6branch17h9d03469ae0c79343E
	movq	%rax, -32(%rbp)
	.loc	6 247 9 is_stmt 0
	movb	$1, %al
	testb	$1, %al
	jne	LBB129_1
	jmp	LBB129_2
LBB129_1:
	.loc	6 248 35 is_stmt 1
	movq	-32(%rbp), %rax
	movq	%rax, -8(%rbp)
Ltmp805:
	.loc	6 248 41 is_stmt 0
	movq	%rax, -40(%rbp)
	movq	$0, -48(%rbp)
Ltmp806:
	.loc	6 248 64
	jmp	LBB129_3
LBB129_2:
Ltmp807:
	.loc	6 249 57 is_stmt 1
	callq	__ZN103_$LT$core..ops..try_trait..NeverShortCircuit$LT$T$GT$$u20$as$u20$core..ops..try_trait..FromResidual$GT$13from_residual17hf274330cc3deb796E
	.loc	6 249 38 is_stmt 0
	movq	%rax, -40(%rbp)
	movq	$1, -48(%rbp)
Ltmp808:
LBB129_3:
	.loc	6 251 6 is_stmt 1
	movq	-48(%rbp), %rax
	movq	-40(%rbp), %rdx
	addq	$48, %rsp
	popq	%rbp
	retq
Ltmp809:
Lfunc_end129:
	.cfi_endproc

	.globl	__ZN4core3ops12control_flow77ControlFlow$LT$R$C$$LT$R$u20$as$u20$core..ops..try_trait..Try$GT$..Output$GT$8into_try17h19ec0e3a014daf30E
	.p2align	4, 0x90
__ZN4core3ops12control_flow77ControlFlow$LT$R$C$$LT$R$u20$as$u20$core..ops..try_trait..Try$GT$..Output$GT$8into_try17h19ec0e3a014daf30E:
Lfunc_begin130:
	.loc	6 255 0
	.cfi_startproc
	pushq	%rbp
	.cfi_def_cfa_offset 16
	.cfi_offset %rbp, -16
	movq	%rsp, %rbp
	.cfi_def_cfa_register %rbp
	subq	$48, %rsp
	movq	%rdi, -40(%rbp)
	movq	%rsi, -32(%rbp)
Ltmp810:
	.loc	6 256 9 prologue_end
	cmpq	$0, -40(%rbp)
	jne	LBB130_2
	.loc	6 257 35
	movq	-32(%rbp), %rdi
	movq	%rdi, -8(%rbp)
Ltmp811:
	.loc	6 257 41 is_stmt 0
	callq	__ZN94_$LT$core..ops..try_trait..NeverShortCircuit$LT$T$GT$$u20$as$u20$core..ops..try_trait..Try$GT$11from_output17h2c5bdd2f52709c54E
	movq	%rax, -24(%rbp)
Ltmp812:
	.loc	6 257 57
	jmp	LBB130_3
LBB130_2:
	.loc	6 258 32 is_stmt 1
	movq	-32(%rbp), %rax
	movq	%rax, -16(%rbp)
Ltmp813:
	.loc	6 258 38 is_stmt 0
	movq	%rax, -24(%rbp)
Ltmp814:
LBB130_3:
	.loc	6 260 6 is_stmt 1
	movq	-24(%rbp), %rax
	addq	$48, %rsp
	popq	%rbp
	retq
Ltmp815:
Lfunc_end130:
	.cfi_endproc

	.globl	__ZN4core3ops5range25RangeInclusive$LT$Idx$GT$3new17h3e5e6b307fe7679bE
	.p2align	4, 0x90
__ZN4core3ops5range25RangeInclusive$LT$Idx$GT$3new17h3e5e6b307fe7679bE:
Lfunc_begin131:
	.loc	15 374 0
	.cfi_startproc
	pushq	%rbp
	.cfi_def_cfa_offset 16
	.cfi_offset %rbp, -16
	movq	%rsp, %rbp
	.cfi_def_cfa_register %rbp
	subq	$16, %rsp
	movq	%rdi, %rax
	movq	%rsi, -16(%rbp)
	movq	%rdx, -8(%rbp)
Ltmp816:
	.loc	15 375 9 prologue_end
	movq	%rsi, (%rdi)
	movq	%rdx, 8(%rdi)
	movb	$0, 16(%rdi)
	.loc	15 376 6
	addq	$16, %rsp
	popq	%rbp
	retq
Ltmp817:
Lfunc_end131:
	.cfi_endproc

	.p2align	4, 0x90
__ZN4core3ops8function2Fn4call17h06fd1457e0b15353E:
Lfunc_begin132:
	.file	34 "/rustc/2c8cc343237b8f7d5a3c3703e3a87f2eb2c54a74/library/core/src/ops" "function.rs"
	.loc	34 79 0
	.cfi_startproc
	pushq	%rbp
	.cfi_def_cfa_offset 16
	.cfi_offset %rbp, -16
	movq	%rsp, %rbp
	.cfi_def_cfa_register %rbp
	subq	$32, %rsp
	movq	%rsi, -32(%rbp)
	movq	%rdx, -24(%rbp)
	movq	%rcx, -16(%rbp)
	movq	%rdi, -8(%rbp)
Ltmp818:
	.loc	34 79 5 prologue_end
	movq	-32(%rbp), %rdi
	movq	-24(%rbp), %rsi
	movq	-16(%rbp), %rdx
	callq	__ZN4core3ops9try_trait26NeverShortCircuit$LT$T$GT$14wrap_mut_2_imp17ha80d1e9b903cdd0eE
	addq	$32, %rsp
	popq	%rbp
	retq
Ltmp819:
Lfunc_end132:
	.cfi_endproc

	.p2align	4, 0x90
__ZN4core3ops8function2Fn4call17h17fd55d713a2b311E:
Lfunc_begin133:
	.loc	34 79 0
	.cfi_startproc
	pushq	%rbp
	.cfi_def_cfa_offset 16
	.cfi_offset %rbp, -16
	movq	%rsp, %rbp
	.cfi_def_cfa_register %rbp
	subq	$32, %rsp
	movq	%rsi, -32(%rbp)
	movq	%rdx, -24(%rbp)
	movq	%rcx, -16(%rbp)
	movq	%rdi, -8(%rbp)
Ltmp820:
	.loc	34 79 5 prologue_end
	movq	-32(%rbp), %rdi
	movq	-24(%rbp), %rsi
	movq	-16(%rbp), %rdx
	callq	__ZN4core3ops9try_trait26NeverShortCircuit$LT$T$GT$14wrap_mut_2_imp17h5ef77cc70e830da9E
	addq	$32, %rsp
	popq	%rbp
	retq
Ltmp821:
Lfunc_end133:
	.cfi_endproc

	.p2align	4, 0x90
__ZN4core3ops8function2Fn4call17ha0ce40c474b26018E:
Lfunc_begin134:
	.loc	34 79 0
	.cfi_startproc
	pushq	%rbp
	.cfi_def_cfa_offset 16
	.cfi_offset %rbp, -16
	movq	%rsp, %rbp
	.cfi_def_cfa_register %rbp
	subq	$32, %rsp
	movq	%rsi, -32(%rbp)
	movq	%rdx, -24(%rbp)
	movq	%rcx, -16(%rbp)
	movq	%rdi, -8(%rbp)
Ltmp822:
	.loc	34 79 5 prologue_end
	movq	-32(%rbp), %rdi
	movq	-24(%rbp), %rsi
	movq	-16(%rbp), %rdx
	callq	__ZN4core3ops9try_trait26NeverShortCircuit$LT$T$GT$14wrap_mut_2_imp17h68e5491dfccb8441E
	addq	$32, %rsp
	popq	%rbp
	retq
Ltmp823:
Lfunc_end134:
	.cfi_endproc

	.p2align	4, 0x90
__ZN4core3ops8function2Fn4call17hc95510cd07fbdc8cE:
Lfunc_begin135:
	.loc	34 79 0
	.cfi_startproc
	pushq	%rbp
	.cfi_def_cfa_offset 16
	.cfi_offset %rbp, -16
	movq	%rsp, %rbp
	.cfi_def_cfa_register %rbp
	subq	$32, %rsp
	movq	%rsi, -32(%rbp)
	movq	%rdx, -24(%rbp)
	movq	%rcx, -16(%rbp)
	movq	%rdi, -8(%rbp)
Ltmp824:
	.loc	34 79 5 prologue_end
	movq	-32(%rbp), %rdi
	movq	-24(%rbp), %rsi
	movq	-16(%rbp), %rdx
	callq	__ZN4core3ops9try_trait26NeverShortCircuit$LT$T$GT$14wrap_mut_2_imp17h5131d6ba720daec9E
	addq	$32, %rsp
	popq	%rbp
	retq
Ltmp825:
Lfunc_end135:
	.cfi_endproc

	.p2align	4, 0x90
__ZN4core3ops8function6FnOnce9call_once17h0ffa352128c6c1efE:
Lfunc_begin136:
	.loc	34 250 0
	.cfi_startproc
	pushq	%rbp
	.cfi_def_cfa_offset 16
	.cfi_offset %rbp, -16
	movq	%rsp, %rbp
	.cfi_def_cfa_register %rbp
	subq	$32, %rsp
	movq	%rdi, -24(%rbp)
	movq	%rsi, -16(%rbp)
Ltmp826:
	.loc	34 250 5 prologue_end
	movq	-24(%rbp), %rdi
	movq	-16(%rbp), %rsi
	callq	__ZN4core3cmp5impls48_$LT$impl$u20$core..cmp..Ord$u20$for$u20$u32$GT$3cmp17h5a493aaa24aaa8b4E
	addq	$32, %rsp
	popq	%rbp
	retq
Ltmp827:
Lfunc_end136:
	.cfi_endproc

	.p2align	4, 0x90
__ZN4core3ops8function6FnOnce9call_once17h8705e4778e0fbd16E:
Lfunc_begin137:
	.loc	34 250 0
	.cfi_startproc
	pushq	%rbp
	.cfi_def_cfa_offset 16
	.cfi_offset %rbp, -16
	movq	%rsp, %rbp
	.cfi_def_cfa_register %rbp
	subq	$32, %rsp
	movq	%rdi, -24(%rbp)
	movq	%rsi, -16(%rbp)
Ltmp828:
	.loc	34 250 5 prologue_end
	movq	-24(%rbp), %rdi
	movq	-16(%rbp), %rsi
	callq	__ZN4core3cmp5impls48_$LT$impl$u20$core..cmp..Ord$u20$for$u20$i32$GT$3cmp17h47113524ce4830a1E
	addq	$32, %rsp
	popq	%rbp
	retq
Ltmp829:
Lfunc_end137:
	.cfi_endproc

	.p2align	4, 0x90
__ZN4core3ops8function6FnOnce9call_once17hf62999aab1a30307E:
Lfunc_begin138:
	.loc	34 250 0
	.cfi_startproc
	pushq	%rbp
	.cfi_def_cfa_offset 16
	.cfi_offset %rbp, -16
	movq	%rsp, %rbp
	.cfi_def_cfa_register %rbp
	subq	$32, %rsp
	movq	%rdi, -24(%rbp)
	movq	%rsi, -16(%rbp)
Ltmp830:
	.loc	34 250 5 prologue_end
	movq	-24(%rbp), %rdi
	movq	-16(%rbp), %rsi
	callq	__ZN4core3cmp5impls50_$LT$impl$u20$core..cmp..Ord$u20$for$u20$usize$GT$3cmp17h57ec1a92c3757019E
	addq	$32, %rsp
	popq	%rbp
	retq
Ltmp831:
Lfunc_end138:
	.cfi_endproc

	.globl	__ZN4core3ops9try_trait26NeverShortCircuit$LT$T$GT$14wrap_mut_2_imp17h5131d6ba720daec9E
	.p2align	4, 0x90
__ZN4core3ops9try_trait26NeverShortCircuit$LT$T$GT$14wrap_mut_2_imp17h5131d6ba720daec9E:
Lfunc_begin139:
	.loc	5 384 0
	.cfi_startproc
	pushq	%rbp
	.cfi_def_cfa_offset 16
	.cfi_offset %rbp, -16
	movq	%rsp, %rbp
	.cfi_def_cfa_register %rbp
	subq	$64, %rsp
	movq	%rdi, -40(%rbp)
	movq	%rsi, -32(%rbp)
	movq	%rdx, -24(%rbp)
Ltmp832:
	.loc	5 386 10 prologue_end
	movq	%rsi, -16(%rbp)
	.loc	5 386 13 is_stmt 0
	movq	%rdx, -8(%rbp)
Ltmp833:
	.loc	5 388 27 is_stmt 1
	movq	%rsi, -56(%rbp)
	movq	%rdx, -48(%rbp)
	movq	-56(%rbp), %rsi
	movq	-48(%rbp), %rdx
	callq	__ZN4core4iter6traits8iterator8Iterator5count28_$u7b$$u7b$closure$u7d$$u7d$17h0751e4e115e61d75E
	.loc	5 388 9 is_stmt 0
	movq	%rax, -64(%rbp)
Ltmp834:
	.loc	5 389 6 is_stmt 1
	movq	-64(%rbp), %rax
	addq	$64, %rsp
	popq	%rbp
	retq
Ltmp835:
Lfunc_end139:
	.cfi_endproc

	.globl	__ZN4core3ops9try_trait26NeverShortCircuit$LT$T$GT$14wrap_mut_2_imp17h5ef77cc70e830da9E
	.p2align	4, 0x90
__ZN4core3ops9try_trait26NeverShortCircuit$LT$T$GT$14wrap_mut_2_imp17h5ef77cc70e830da9E:
Lfunc_begin140:
	.loc	5 384 0
	.cfi_startproc
	pushq	%rbp
	.cfi_def_cfa_offset 16
	.cfi_offset %rbp, -16
	movq	%rsp, %rbp
	.cfi_def_cfa_register %rbp
	subq	$64, %rsp
	movq	%rdi, -40(%rbp)
	movq	%rsi, -32(%rbp)
	movq	%rdx, -24(%rbp)
Ltmp836:
	.loc	5 386 10 prologue_end
	movq	%rsi, -16(%rbp)
	.loc	5 386 13 is_stmt 0
	movq	%rdx, -8(%rbp)
Ltmp837:
	.loc	5 388 27 is_stmt 1
	movq	%rsi, -56(%rbp)
	movq	%rdx, -48(%rbp)
	movq	-56(%rbp), %rsi
	movq	-48(%rbp), %rdx
	callq	__ZN4core4iter6traits8iterator8Iterator5count28_$u7b$$u7b$closure$u7d$$u7d$17ha8287e3ffeb100a9E
	.loc	5 388 9 is_stmt 0
	movq	%rax, -64(%rbp)
Ltmp838:
	.loc	5 389 6 is_stmt 1
	movq	-64(%rbp), %rax
	addq	$64, %rsp
	popq	%rbp
	retq
Ltmp839:
Lfunc_end140:
	.cfi_endproc

	.globl	__ZN4core3ops9try_trait26NeverShortCircuit$LT$T$GT$14wrap_mut_2_imp17h68e5491dfccb8441E
	.p2align	4, 0x90
__ZN4core3ops9try_trait26NeverShortCircuit$LT$T$GT$14wrap_mut_2_imp17h68e5491dfccb8441E:
Lfunc_begin141:
	.loc	5 384 0
	.cfi_startproc
	pushq	%rbp
	.cfi_def_cfa_offset 16
	.cfi_offset %rbp, -16
	movq	%rsp, %rbp
	.cfi_def_cfa_register %rbp
	subq	$64, %rsp
	movq	%rdi, -40(%rbp)
	movq	%rsi, -32(%rbp)
	movq	%rdx, -24(%rbp)
Ltmp840:
	.loc	5 386 10 prologue_end
	movq	%rsi, -16(%rbp)
	.loc	5 386 13 is_stmt 0
	movq	%rdx, -8(%rbp)
Ltmp841:
	.loc	5 388 27 is_stmt 1
	movq	%rsi, -56(%rbp)
	movq	%rdx, -48(%rbp)
	movq	-56(%rbp), %rsi
	movq	-48(%rbp), %rdx
	callq	__ZN4core4iter6traits8iterator8Iterator5count28_$u7b$$u7b$closure$u7d$$u7d$17he457a493c9eaeb91E
	.loc	5 388 9 is_stmt 0
	movq	%rax, -64(%rbp)
Ltmp842:
	.loc	5 389 6 is_stmt 1
	movq	-64(%rbp), %rax
	addq	$64, %rsp
	popq	%rbp
	retq
Ltmp843:
Lfunc_end141:
	.cfi_endproc

	.globl	__ZN4core3ops9try_trait26NeverShortCircuit$LT$T$GT$14wrap_mut_2_imp17ha80d1e9b903cdd0eE
	.p2align	4, 0x90
__ZN4core3ops9try_trait26NeverShortCircuit$LT$T$GT$14wrap_mut_2_imp17ha80d1e9b903cdd0eE:
Lfunc_begin142:
	.loc	5 384 0
	.cfi_startproc
	pushq	%rbp
	.cfi_def_cfa_offset 16
	.cfi_offset %rbp, -16
	movq	%rsp, %rbp
	.cfi_def_cfa_register %rbp
	subq	$64, %rsp
	movq	%rdi, -40(%rbp)
	movq	%rsi, -32(%rbp)
	movq	%rdx, -24(%rbp)
Ltmp844:
	.loc	5 386 10 prologue_end
	movq	%rsi, -16(%rbp)
	.loc	5 386 13 is_stmt 0
	movq	%rdx, -8(%rbp)
Ltmp845:
	.loc	5 388 27 is_stmt 1
	movq	%rsi, -56(%rbp)
	movq	%rdx, -48(%rbp)
	movq	-56(%rbp), %rsi
	movq	-48(%rbp), %rdx
	callq	__ZN4core4iter6traits8iterator8Iterator5count28_$u7b$$u7b$closure$u7d$$u7d$17h3b0197ce2b9369adE
	.loc	5 388 9 is_stmt 0
	movq	%rax, -64(%rbp)
Ltmp846:
	.loc	5 389 6 is_stmt 1
	movq	-64(%rbp), %rax
	addq	$64, %rsp
	popq	%rbp
	retq
Ltmp847:
Lfunc_end142:
	.cfi_endproc

	.globl	__ZN4core3ptr19swap_nonoverlapping17h85d7067bb96d59bbE
	.p2align	4, 0x90
__ZN4core3ptr19swap_nonoverlapping17h85d7067bb96d59bbE:
Lfunc_begin143:
	.loc	9 902 0
	.cfi_startproc
	pushq	%rbp
	.cfi_def_cfa_offset 16
	.cfi_offset %rbp, -16
	movq	%rsp, %rbp
	.cfi_def_cfa_register %rbp
	subq	$160, %rsp
	movq	%rdi, -160(%rbp)
	movq	%rsi, -152(%rbp)
	movq	%rdx, -144(%rbp)
	movq	%rdi, -128(%rbp)
	movq	%rsi, -120(%rbp)
	movq	%rdx, -112(%rbp)
Ltmp848:
	.loc	9 938 8 prologue_end
	movb	$1, %al
	testb	$1, %al
	jne	LBB143_2
	movb	$0, -132(%rbp)
	jmp	LBB143_6
LBB143_2:
Ltmp849:
	.loc	2 309 5
	movq	$16, -104(%rbp)
Ltmp850:
	.loc	26 2144 13
	movq	$16, -96(%rbp)
	movl	$1, %eax
Ltmp851:
	.loc	26 89 13
	movq	%rax, -88(%rbp)
	movq	-88(%rbp), %rax
Ltmp852:
	.loc	26 2144 13
	cmpl	$1, %eax
	sete	%al
Ltmp853:
	.loc	9 939 13
	xorb	$-1, %al
	.loc	9 939 12 is_stmt 0
	testb	$1, %al
	jne	LBB143_4
	movb	$0, -131(%rbp)
	jmp	LBB143_5
LBB143_4:
	movb	$1, -131(%rbp)
LBB143_5:
	.loc	9 938 8 is_stmt 1
	movb	-131(%rbp), %al
	andb	$1, %al
	movb	%al, -132(%rbp)
LBB143_6:
	testb	$1, -132(%rbp)
	jne	LBB143_8
LBB143_7:
	.loc	9 0 8 is_stmt 0
	movq	-144(%rbp), %rdx
	movq	-152(%rbp), %rsi
	movq	-160(%rbp), %rdi
	.loc	9 947 14 is_stmt 1
	callq	__ZN4core3ptr34swap_nonoverlapping_simple_untyped17h45eec352c08e5655E
	.loc	9 948 2
	jmp	LBB143_20
LBB143_8:
	.loc	9 942 9
	movb	$1, %al
	testb	$1, %al
	jne	LBB143_10
	jmp	LBB143_9
LBB143_9:
	movb	$0, -130(%rbp)
	jmp	LBB143_11
LBB143_10:
	movb	$1, -130(%rbp)
LBB143_11:
	testb	$1, -130(%rbp)
	jne	LBB143_13
	.loc	9 943 9
	movb	$1, %al
	testb	$1, %al
	jne	LBB143_16
	jmp	LBB143_15
LBB143_13:
	.loc	9 0 9 is_stmt 0
	movq	-152(%rbp), %rsi
	movq	-160(%rbp), %rdi
	movq	-144(%rbp), %rdx
	.loc	9 942 9 is_stmt 1
	movq	%rdi, -80(%rbp)
Ltmp854:
	.loc	11 60 9
	movq	%rdi, -72(%rbp)
Ltmp855:
	.loc	9 942 9
	movq	%rsi, -64(%rbp)
Ltmp856:
	.loc	11 60 9
	movq	%rsi, -56(%rbp)
Ltmp857:
	.loc	9 942 9
	shlq	$1, %rdx
	movq	%rdx, -48(%rbp)
Ltmp858:
	.loc	9 942 9 is_stmt 0
	callq	__ZN4core3ptr34swap_nonoverlapping_simple_untyped17h0a476725c7cd34c5E
Ltmp859:
LBB143_14:
	.loc	9 948 2 is_stmt 1
	jmp	LBB143_20
LBB143_15:
	.loc	9 943 9
	movb	$0, -129(%rbp)
	jmp	LBB143_17
LBB143_16:
	movb	$1, -129(%rbp)
LBB143_17:
	testb	$1, -129(%rbp)
	jne	LBB143_19
	.loc	9 938 5
	jmp	LBB143_7
LBB143_19:
	.loc	9 0 5 is_stmt 0
	movq	-152(%rbp), %rsi
	movq	-160(%rbp), %rdi
	movq	-144(%rbp), %rdx
	.loc	9 943 9 is_stmt 1
	movq	%rdi, -40(%rbp)
Ltmp860:
	.loc	11 60 9
	movq	%rdi, -32(%rbp)
Ltmp861:
	.loc	9 943 9
	movq	%rsi, -24(%rbp)
Ltmp862:
	.loc	11 60 9
	movq	%rsi, -16(%rbp)
Ltmp863:
	.loc	9 943 9
	shlq	$4, %rdx
	movq	%rdx, -8(%rbp)
Ltmp864:
	.loc	9 943 9 is_stmt 0
	callq	__ZN4core3ptr34swap_nonoverlapping_simple_untyped17h3fc83428982f5374E
Ltmp865:
	.file	35 "/Users/natalie/.cargo/registry/src/github.com-1ecc6299db9ec823/miniz_oxide-0.6.2" "src/lib.rs"
	.loc	35 1 1 is_stmt 1
	jmp	LBB143_14
LBB143_20:
	.loc	9 948 2
	addq	$160, %rsp
	popq	%rbp
	retq
Ltmp866:
Lfunc_end143:
	.cfi_endproc

	.p2align	4, 0x90
__ZN4core3ptr27drop_in_place$LT$$RF$u8$GT$17h63ab32be7fa4d8ffE:
Lfunc_begin144:
	.loc	9 490 0
	.cfi_startproc
	pushq	%rbp
	.cfi_def_cfa_offset 16
	.cfi_offset %rbp, -16
	movq	%rsp, %rbp
	.cfi_def_cfa_register %rbp
	pushq	%rax
	movq	%rdi, -8(%rbp)
Ltmp867:
	.loc	9 490 1 prologue_end
	addq	$8, %rsp
	popq	%rbp
	retq
Ltmp868:
Lfunc_end144:
	.cfi_endproc

	.p2align	4, 0x90
__ZN4core3ptr28drop_in_place$LT$$RF$u32$GT$17h30e37b81d3e0b559E:
Lfunc_begin145:
	.loc	9 490 0
	.cfi_startproc
	pushq	%rbp
	.cfi_def_cfa_offset 16
	.cfi_offset %rbp, -16
	movq	%rsp, %rbp
	.cfi_def_cfa_register %rbp
	pushq	%rax
	movq	%rdi, -8(%rbp)
Ltmp869:
	.loc	9 490 1 prologue_end
	addq	$8, %rsp
	popq	%rbp
	retq
Ltmp870:
Lfunc_end145:
	.cfi_endproc

	.p2align	4, 0x90
__ZN4core3ptr30drop_in_place$LT$$RF$usize$GT$17hc773a34f01c4d5eaE:
Lfunc_begin146:
	.loc	9 490 0
	.cfi_startproc
	pushq	%rbp
	.cfi_def_cfa_offset 16
	.cfi_offset %rbp, -16
	movq	%rsp, %rbp
	.cfi_def_cfa_register %rbp
	pushq	%rax
	movq	%rdi, -8(%rbp)
Ltmp871:
	.loc	9 490 1 prologue_end
	addq	$8, %rsp
	popq	%rbp
	retq
Ltmp872:
Lfunc_end146:
	.cfi_endproc

	.globl	__ZN4core3ptr34swap_nonoverlapping_simple_untyped17h0a476725c7cd34c5E
	.p2align	4, 0x90
__ZN4core3ptr34swap_nonoverlapping_simple_untyped17h0a476725c7cd34c5E:
Lfunc_begin147:
	.loc	9 956 0
	.cfi_startproc
	pushq	%rbp
	.cfi_def_cfa_offset 16
	.cfi_offset %rbp, -16
	movq	%rsp, %rbp
	.cfi_def_cfa_register %rbp
	subq	$192, %rsp
	movq	%rdi, -184(%rbp)
	movq	%rsi, -176(%rbp)
	movq	%rdx, -168(%rbp)
	movq	%rdi, -152(%rbp)
	movq	%rsi, -144(%rbp)
	movq	%rdx, -136(%rbp)
Ltmp873:
	.loc	9 957 13 prologue_end
	movq	%rdi, -128(%rbp)
Ltmp874:
	.loc	11 60 9
	movq	%rdi, -120(%rbp)
Ltmp875:
	.loc	9 958 13
	movq	%rsi, -112(%rbp)
Ltmp876:
	.loc	11 60 9
	movq	%rsi, -104(%rbp)
Ltmp877:
	.loc	9 959 17
	movq	$0, -160(%rbp)
LBB147_1:
	.loc	9 0 17 is_stmt 0
	movq	-168(%rbp), %rax
Ltmp878:
	.loc	9 960 11 is_stmt 1
	cmpq	%rax, -160(%rbp)
	jb	LBB147_3
Ltmp879:
	.loc	9 970 2
	addq	$192, %rsp
	popq	%rbp
	retq
LBB147_3:
	.loc	9 0 2 is_stmt 0
	movq	-176(%rbp), %rax
	movq	-184(%rbp), %rcx
Ltmp880:
	.loc	9 962 32 is_stmt 1
	movq	%rcx, -96(%rbp)
	.loc	9 962 38 is_stmt 0
	movq	-160(%rbp), %rdx
	movq	%rdx, -88(%rbp)
Ltmp881:
	.loc	11 1034 18 is_stmt 1
	movq	%rcx, -80(%rbp)
	.loc	11 1034 30 is_stmt 0
	movq	%rdx, -72(%rbp)
Ltmp882:
	.loc	11 487 18 is_stmt 1
	shlq	$3, %rdx
	addq	%rdx, %rcx
	movq	%rcx, -64(%rbp)
	movq	-64(%rbp), %rdi
Ltmp883:
	.loc	9 962 26
	movq	%rdi, -56(%rbp)
Ltmp884:
	.loc	9 965 32
	movq	%rax, -48(%rbp)
	.loc	9 965 38 is_stmt 0
	movq	-160(%rbp), %rcx
	movq	%rcx, -40(%rbp)
Ltmp885:
	.loc	11 1034 18 is_stmt 1
	movq	%rax, -32(%rbp)
	.loc	11 1034 30 is_stmt 0
	movq	%rcx, -24(%rbp)
Ltmp886:
	.loc	11 487 18 is_stmt 1
	shlq	$3, %rcx
	addq	%rcx, %rax
	movq	%rax, -16(%rbp)
	movq	-16(%rbp), %rsi
Ltmp887:
	.loc	9 965 26
	movq	%rsi, -8(%rbp)
Ltmp888:
	.loc	9 966 9
	callq	__ZN4core3mem11swap_simple17h4f88f73c3d01de93E
	.loc	9 968 9
	movq	-160(%rbp), %rax
	addq	$1, %rax
	movq	%rax, -160(%rbp)
Ltmp889:
	.loc	9 960 5
	jmp	LBB147_1
Ltmp890:
Lfunc_end147:
	.cfi_endproc

	.globl	__ZN4core3ptr34swap_nonoverlapping_simple_untyped17h3fc83428982f5374E
	.p2align	4, 0x90
__ZN4core3ptr34swap_nonoverlapping_simple_untyped17h3fc83428982f5374E:
Lfunc_begin148:
	.loc	9 956 0
	.cfi_startproc
	pushq	%rbp
	.cfi_def_cfa_offset 16
	.cfi_offset %rbp, -16
	movq	%rsp, %rbp
	.cfi_def_cfa_register %rbp
	subq	$192, %rsp
	movq	%rdi, -184(%rbp)
	movq	%rsi, -176(%rbp)
	movq	%rdx, -168(%rbp)
	movq	%rdi, -152(%rbp)
	movq	%rsi, -144(%rbp)
	movq	%rdx, -136(%rbp)
Ltmp891:
	.loc	9 957 13 prologue_end
	movq	%rdi, -128(%rbp)
Ltmp892:
	.loc	11 60 9
	movq	%rdi, -120(%rbp)
Ltmp893:
	.loc	9 958 13
	movq	%rsi, -112(%rbp)
Ltmp894:
	.loc	11 60 9
	movq	%rsi, -104(%rbp)
Ltmp895:
	.loc	9 959 17
	movq	$0, -160(%rbp)
LBB148_1:
	.loc	9 0 17 is_stmt 0
	movq	-168(%rbp), %rax
Ltmp896:
	.loc	9 960 11 is_stmt 1
	cmpq	%rax, -160(%rbp)
	jb	LBB148_3
Ltmp897:
	.loc	9 970 2
	addq	$192, %rsp
	popq	%rbp
	retq
LBB148_3:
	.loc	9 0 2 is_stmt 0
	movq	-176(%rbp), %rax
	movq	-184(%rbp), %rcx
Ltmp898:
	.loc	9 962 32 is_stmt 1
	movq	%rcx, -96(%rbp)
	.loc	9 962 38 is_stmt 0
	movq	-160(%rbp), %rdx
	movq	%rdx, -88(%rbp)
Ltmp899:
	.loc	11 1034 18 is_stmt 1
	movq	%rcx, -80(%rbp)
	.loc	11 1034 30 is_stmt 0
	movq	%rdx, -72(%rbp)
Ltmp900:
	.loc	11 487 18 is_stmt 1
	addq	%rdx, %rcx
	movq	%rcx, -64(%rbp)
	movq	-64(%rbp), %rdi
Ltmp901:
	.loc	9 962 26
	movq	%rdi, -56(%rbp)
Ltmp902:
	.loc	9 965 32
	movq	%rax, -48(%rbp)
	.loc	9 965 38 is_stmt 0
	movq	-160(%rbp), %rcx
	movq	%rcx, -40(%rbp)
Ltmp903:
	.loc	11 1034 18 is_stmt 1
	movq	%rax, -32(%rbp)
	.loc	11 1034 30 is_stmt 0
	movq	%rcx, -24(%rbp)
Ltmp904:
	.loc	11 487 18 is_stmt 1
	addq	%rcx, %rax
	movq	%rax, -16(%rbp)
	movq	-16(%rbp), %rsi
Ltmp905:
	.loc	9 965 26
	movq	%rsi, -8(%rbp)
Ltmp906:
	.loc	9 966 9
	callq	__ZN4core3mem11swap_simple17hb834c8bdc74da211E
	.loc	9 968 9
	movq	-160(%rbp), %rax
	addq	$1, %rax
	movq	%rax, -160(%rbp)
Ltmp907:
	.loc	9 960 5
	jmp	LBB148_1
Ltmp908:
Lfunc_end148:
	.cfi_endproc

	.globl	__ZN4core3ptr34swap_nonoverlapping_simple_untyped17h45eec352c08e5655E
	.p2align	4, 0x90
__ZN4core3ptr34swap_nonoverlapping_simple_untyped17h45eec352c08e5655E:
Lfunc_begin149:
	.loc	9 956 0
	.cfi_startproc
	pushq	%rbp
	.cfi_def_cfa_offset 16
	.cfi_offset %rbp, -16
	movq	%rsp, %rbp
	.cfi_def_cfa_register %rbp
	subq	$192, %rsp
	movq	%rdi, -184(%rbp)
	movq	%rsi, -176(%rbp)
	movq	%rdx, -168(%rbp)
	movq	%rdi, -152(%rbp)
	movq	%rsi, -144(%rbp)
	movq	%rdx, -136(%rbp)
Ltmp909:
	.loc	9 957 13 prologue_end
	movq	%rdi, -128(%rbp)
Ltmp910:
	.loc	11 60 9
	movq	%rdi, -120(%rbp)
Ltmp911:
	.loc	9 958 13
	movq	%rsi, -112(%rbp)
Ltmp912:
	.loc	11 60 9
	movq	%rsi, -104(%rbp)
Ltmp913:
	.loc	9 959 17
	movq	$0, -160(%rbp)
LBB149_1:
	.loc	9 0 17 is_stmt 0
	movq	-168(%rbp), %rax
Ltmp914:
	.loc	9 960 11 is_stmt 1
	cmpq	%rax, -160(%rbp)
	jb	LBB149_3
Ltmp915:
	.loc	9 970 2
	addq	$192, %rsp
	popq	%rbp
	retq
LBB149_3:
	.loc	9 0 2 is_stmt 0
	movq	-176(%rbp), %rax
	movq	-184(%rbp), %rcx
Ltmp916:
	.loc	9 962 32 is_stmt 1
	movq	%rcx, -96(%rbp)
	.loc	9 962 38 is_stmt 0
	movq	-160(%rbp), %rdx
	movq	%rdx, -88(%rbp)
Ltmp917:
	.loc	11 1034 18 is_stmt 1
	movq	%rcx, -80(%rbp)
	.loc	11 1034 30 is_stmt 0
	movq	%rdx, -72(%rbp)
Ltmp918:
	.loc	11 487 18 is_stmt 1
	shlq	$4, %rdx
	addq	%rdx, %rcx
	movq	%rcx, -64(%rbp)
	movq	-64(%rbp), %rdi
Ltmp919:
	.loc	9 962 26
	movq	%rdi, -56(%rbp)
Ltmp920:
	.loc	9 965 32
	movq	%rax, -48(%rbp)
	.loc	9 965 38 is_stmt 0
	movq	-160(%rbp), %rcx
	movq	%rcx, -40(%rbp)
Ltmp921:
	.loc	11 1034 18 is_stmt 1
	movq	%rax, -32(%rbp)
	.loc	11 1034 30 is_stmt 0
	movq	%rcx, -24(%rbp)
Ltmp922:
	.loc	11 487 18 is_stmt 1
	shlq	$4, %rcx
	addq	%rcx, %rax
	movq	%rax, -16(%rbp)
	movq	-16(%rbp), %rsi
Ltmp923:
	.loc	9 965 26
	movq	%rsi, -8(%rbp)
Ltmp924:
	.loc	9 966 9
	callq	__ZN4core3mem11swap_simple17h699d8736b30503b3E
	.loc	9 968 9
	movq	-160(%rbp), %rax
	addq	$1, %rax
	movq	%rax, -160(%rbp)
Ltmp925:
	.loc	9 960 5
	jmp	LBB149_1
Ltmp926:
Lfunc_end149:
	.cfi_endproc

	.p2align	4, 0x90
__ZN4core3ptr45drop_in_place$LT$$RF$miniz_oxide..MZError$GT$17h1d2b191f67725d2cE:
Lfunc_begin150:
	.loc	9 490 0
	.cfi_startproc
	pushq	%rbp
	.cfi_def_cfa_offset 16
	.cfi_offset %rbp, -16
	movq	%rsp, %rbp
	.cfi_def_cfa_register %rbp
	pushq	%rax
	movq	%rdi, -8(%rbp)
Ltmp927:
	.loc	9 490 1 prologue_end
	addq	$8, %rsp
	popq	%rbp
	retq
Ltmp928:
Lfunc_end150:
	.cfi_endproc

	.p2align	4, 0x90
__ZN4core3ptr46drop_in_place$LT$$RF$miniz_oxide..MZStatus$GT$17hd58952042f4cdceaE:
Lfunc_begin151:
	.loc	9 490 0
	.cfi_startproc
	pushq	%rbp
	.cfi_def_cfa_offset 16
	.cfi_offset %rbp, -16
	movq	%rsp, %rbp
	.cfi_def_cfa_register %rbp
	pushq	%rax
	movq	%rdi, -8(%rbp)
Ltmp929:
	.loc	9 490 1 prologue_end
	addq	$8, %rsp
	popq	%rbp
	retq
Ltmp930:
Lfunc_end151:
	.cfi_endproc

	.globl	__ZN4core3ptr46drop_in_place$LT$alloc..vec..Vec$LT$u8$GT$$GT$17h79dc7707202d8766E
	.p2align	4, 0x90
__ZN4core3ptr46drop_in_place$LT$alloc..vec..Vec$LT$u8$GT$$GT$17h79dc7707202d8766E:
Lfunc_begin152:
	.loc	9 490 0
	.cfi_startproc
	.cfi_personality 155, _rust_eh_personality
	.cfi_lsda 16, Lexception23
	pushq	%rbp
	.cfi_def_cfa_offset 16
	.cfi_offset %rbp, -16
	movq	%rsp, %rbp
	.cfi_def_cfa_register %rbp
	subq	$32, %rsp
	movq	%rdi, -32(%rbp)
	movq	%rdi, -24(%rbp)
Ltmp931:
Ltmp937:
	.loc	9 490 1 prologue_end
	callq	__ZN70_$LT$alloc..vec..Vec$LT$T$C$A$GT$$u20$as$u20$core..ops..drop..Drop$GT$4drop17hd1b1693f1b8fc592E
Ltmp932:
	jmp	LBB152_3
LBB152_1:
Ltmp934:
	.loc	9 0 1 is_stmt 0
	movq	-32(%rbp), %rdi
	.loc	9 490 1
	callq	__ZN4core3ptr53drop_in_place$LT$alloc..raw_vec..RawVec$LT$u8$GT$$GT$17h0735570474c3aaebE
Ltmp935:
	jmp	LBB152_5
LBB152_2:
Ltmp933:
	.loc	9 0 1
	movq	%rax, %rcx
	movl	%edx, %eax
	movq	%rcx, -16(%rbp)
	movl	%eax, -8(%rbp)
	jmp	LBB152_1
LBB152_3:
	movq	-32(%rbp), %rdi
	.loc	9 490 1
	callq	__ZN4core3ptr53drop_in_place$LT$alloc..raw_vec..RawVec$LT$u8$GT$$GT$17h0735570474c3aaebE
	addq	$32, %rsp
	popq	%rbp
	retq
LBB152_4:
Ltmp936:
	callq	__ZN4core9panicking19panic_cannot_unwind17h1fbca7e1d7f56ae1E
LBB152_5:
	movq	-16(%rbp), %rdi
	callq	__Unwind_Resume
Ltmp938:
Lfunc_end152:
	.cfi_endproc
	.section	__TEXT,__gcc_except_tab
	.p2align	2
GCC_except_table152:
Lexception23:
	.byte	255
	.byte	255
	.byte	1
	.uleb128 Lcst_end23-Lcst_begin23
Lcst_begin23:
	.uleb128 Ltmp931-Lfunc_begin152
	.uleb128 Ltmp932-Ltmp931
	.uleb128 Ltmp933-Lfunc_begin152
	.byte	0
	.uleb128 Ltmp934-Lfunc_begin152
	.uleb128 Ltmp935-Ltmp934
	.uleb128 Ltmp936-Lfunc_begin152
	.byte	0
	.uleb128 Ltmp935-Lfunc_begin152
	.uleb128 Lfunc_end152-Ltmp935
	.byte	0
	.byte	0
Lcst_end23:
	.p2align	2

	.section	__TEXT,__text,regular,pure_instructions
	.p2align	4, 0x90
__ZN4core3ptr50drop_in_place$LT$$RF$alloc..vec..Vec$LT$u8$GT$$GT$17h91bc757454f52c36E:
Lfunc_begin153:
	.loc	9 490 0 is_stmt 1
	.cfi_startproc
	pushq	%rbp
	.cfi_def_cfa_offset 16
	.cfi_offset %rbp, -16
	movq	%rsp, %rbp
	.cfi_def_cfa_register %rbp
	pushq	%rax
	movq	%rdi, -8(%rbp)
Ltmp939:
	.loc	9 490 1 prologue_end
	addq	$8, %rsp
	popq	%rbp
	retq
Ltmp940:
Lfunc_end153:
	.cfi_endproc

	.p2align	4, 0x90
__ZN4core3ptr51drop_in_place$LT$core..array..TryFromSliceError$GT$17h211d8318bc28bd1eE:
Lfunc_begin154:
	.loc	9 490 0
	.cfi_startproc
	pushq	%rbp
	.cfi_def_cfa_offset 16
	.cfi_offset %rbp, -16
	movq	%rsp, %rbp
	.cfi_def_cfa_register %rbp
	pushq	%rax
	movq	%rdi, -8(%rbp)
Ltmp941:
	.loc	9 490 1 prologue_end
	addq	$8, %rsp
	popq	%rbp
	retq
Ltmp942:
Lfunc_end154:
	.cfi_endproc

	.globl	__ZN4core3ptr53drop_in_place$LT$alloc..raw_vec..RawVec$LT$u8$GT$$GT$17h0735570474c3aaebE
	.p2align	4, 0x90
__ZN4core3ptr53drop_in_place$LT$alloc..raw_vec..RawVec$LT$u8$GT$$GT$17h0735570474c3aaebE:
Lfunc_begin155:
	.loc	9 490 0
	.cfi_startproc
	pushq	%rbp
	.cfi_def_cfa_offset 16
	.cfi_offset %rbp, -16
	movq	%rsp, %rbp
	.cfi_def_cfa_register %rbp
	subq	$16, %rsp
	movq	%rdi, -8(%rbp)
Ltmp943:
	.loc	9 490 1 prologue_end
	callq	__ZN77_$LT$alloc..raw_vec..RawVec$LT$T$C$A$GT$$u20$as$u20$core..ops..drop..Drop$GT$4drop17h0d3093815124425cE
	addq	$16, %rsp
	popq	%rbp
	retq
Ltmp944:
Lfunc_end155:
	.cfi_endproc

	.p2align	4, 0x90
__ZN4core3ptr58drop_in_place$LT$$RF$miniz_oxide..inflate..TINFLStatus$GT$17h644fc95012237127E:
Lfunc_begin156:
	.loc	9 490 0
	.cfi_startproc
	pushq	%rbp
	.cfi_def_cfa_offset 16
	.cfi_offset %rbp, -16
	movq	%rsp, %rbp
	.cfi_def_cfa_register %rbp
	pushq	%rax
	movq	%rdi, -8(%rbp)
Ltmp945:
	.loc	9 490 1 prologue_end
	addq	$8, %rsp
	popq	%rbp
	retq
Ltmp946:
Lfunc_end156:
	.cfi_endproc

	.globl	__ZN4core3ptr58drop_in_place$LT$miniz_oxide..deflate..core..DictOxide$GT$17hc4397b2a8c8b6424E
	.p2align	4, 0x90
__ZN4core3ptr58drop_in_place$LT$miniz_oxide..deflate..core..DictOxide$GT$17hc4397b2a8c8b6424E:
Lfunc_begin157:
	.loc	9 490 0
	.cfi_startproc
	pushq	%rbp
	.cfi_def_cfa_offset 16
	.cfi_offset %rbp, -16
	movq	%rsp, %rbp
	.cfi_def_cfa_register %rbp
	subq	$16, %rsp
	movq	%rdi, -8(%rbp)
Ltmp947:
	.loc	9 490 1 prologue_end
	addq	$40, %rdi
	callq	__ZN4core3ptr87drop_in_place$LT$alloc..boxed..Box$LT$miniz_oxide..deflate..buffer..HashBuffers$GT$$GT$17ha28c09da6cad088dE
	addq	$16, %rsp
	popq	%rbp
	retq
Ltmp948:
Lfunc_end157:
	.cfi_endproc

	.globl	__ZN4core3ptr60drop_in_place$LT$miniz_oxide..deflate..core..ParamsOxide$GT$17h8af2d03693fedfabE
	.p2align	4, 0x90
__ZN4core3ptr60drop_in_place$LT$miniz_oxide..deflate..core..ParamsOxide$GT$17h8af2d03693fedfabE:
Lfunc_begin158:
	.loc	9 490 0
	.cfi_startproc
	pushq	%rbp
	.cfi_def_cfa_offset 16
	.cfi_offset %rbp, -16
	movq	%rsp, %rbp
	.cfi_def_cfa_register %rbp
	subq	$16, %rsp
	movq	%rdi, -8(%rbp)
Ltmp949:
	.loc	9 490 1 prologue_end
	addq	$16, %rdi
	callq	__ZN4core3ptr84drop_in_place$LT$alloc..boxed..Box$LT$miniz_oxide..deflate..buffer..LocalBuf$GT$$GT$17h7b5b5ce5c9b88cb5E
	addq	$16, %rsp
	popq	%rbp
	retq
Ltmp950:
Lfunc_end158:
	.cfi_endproc

	.globl	__ZN4core3ptr62drop_in_place$LT$alloc..vec..set_len_on_drop..SetLenOnDrop$GT$17h0fed8fc1ca7391a9E
	.p2align	4, 0x90
__ZN4core3ptr62drop_in_place$LT$alloc..vec..set_len_on_drop..SetLenOnDrop$GT$17h0fed8fc1ca7391a9E:
Lfunc_begin159:
	.loc	9 490 0
	.cfi_startproc
	pushq	%rbp
	.cfi_def_cfa_offset 16
	.cfi_offset %rbp, -16
	movq	%rsp, %rbp
	.cfi_def_cfa_register %rbp
	subq	$16, %rsp
	movq	%rdi, -8(%rbp)
Ltmp951:
	.loc	9 490 1 prologue_end
	callq	__ZN83_$LT$alloc..vec..set_len_on_drop..SetLenOnDrop$u20$as$u20$core..ops..drop..Drop$GT$4drop17ha7221bef10efb944E
	addq	$16, %rsp
	popq	%rbp
	retq
Ltmp952:
Lfunc_end159:
	.cfi_endproc

	.globl	__ZN4core3ptr64drop_in_place$LT$miniz_oxide..deflate..core..CompressorOxide$GT$17hfa494193ad61d358E
	.p2align	4, 0x90
__ZN4core3ptr64drop_in_place$LT$miniz_oxide..deflate..core..CompressorOxide$GT$17hfa494193ad61d358E:
Lfunc_begin160:
	.loc	9 490 0
	.cfi_startproc
	.cfi_personality 155, _rust_eh_personality
	.cfi_lsda 16, Lexception24
	pushq	%rbp
	.cfi_def_cfa_offset 16
	.cfi_offset %rbp, -16
	movq	%rsp, %rbp
	.cfi_def_cfa_register %rbp
	subq	$32, %rsp
	movq	%rdi, -32(%rbp)
	movq	%rdi, -24(%rbp)
Ltmp964:
	.loc	9 490 1 prologue_end
	addq	$65616, %rdi
Ltmp953:
	callq	__ZN4core3ptr60drop_in_place$LT$miniz_oxide..deflate..core..ParamsOxide$GT$17h8af2d03693fedfabE
Ltmp954:
	jmp	LBB160_3
LBB160_1:
	.loc	9 0 1 is_stmt 0
	movq	-32(%rbp), %rdi
	.loc	9 490 1
	addq	$65608, %rdi
Ltmp956:
	callq	__ZN4core3ptr86drop_in_place$LT$alloc..boxed..Box$LT$miniz_oxide..deflate..core..HuffmanOxide$GT$$GT$17h6d90769b010453b6E
Ltmp957:
	jmp	LBB160_5
LBB160_2:
Ltmp955:
	.loc	9 0 1
	movq	%rax, %rcx
	movl	%edx, %eax
	movq	%rcx, -16(%rbp)
	movl	%eax, -8(%rbp)
	jmp	LBB160_1
LBB160_3:
	movq	-32(%rbp), %rdi
	.loc	9 490 1
	addq	$65608, %rdi
Ltmp958:
	callq	__ZN4core3ptr86drop_in_place$LT$alloc..boxed..Box$LT$miniz_oxide..deflate..core..HuffmanOxide$GT$$GT$17h6d90769b010453b6E
Ltmp959:
	jmp	LBB160_7
LBB160_4:
Ltmp963:
	callq	__ZN4core9panicking19panic_cannot_unwind17h1fbca7e1d7f56ae1E
LBB160_5:
Ltmp961:
	.loc	9 0 1
	movq	-32(%rbp), %rdi
	.loc	9 490 1
	callq	__ZN4core3ptr58drop_in_place$LT$miniz_oxide..deflate..core..DictOxide$GT$17hc4397b2a8c8b6424E
Ltmp962:
	jmp	LBB160_8
LBB160_6:
Ltmp960:
	.loc	9 0 1
	movq	%rax, %rcx
	movl	%edx, %eax
	movq	%rcx, -16(%rbp)
	movl	%eax, -8(%rbp)
	jmp	LBB160_5
LBB160_7:
	movq	-32(%rbp), %rdi
	.loc	9 490 1
	callq	__ZN4core3ptr58drop_in_place$LT$miniz_oxide..deflate..core..DictOxide$GT$17hc4397b2a8c8b6424E
	addq	$32, %rsp
	popq	%rbp
	retq
LBB160_8:
	movq	-16(%rbp), %rdi
	callq	__Unwind_Resume
Ltmp965:
Lfunc_end160:
	.cfi_endproc
	.section	__TEXT,__gcc_except_tab
	.p2align	2
GCC_except_table160:
Lexception24:
	.byte	255
	.byte	255
	.byte	1
	.uleb128 Lcst_end24-Lcst_begin24
Lcst_begin24:
	.uleb128 Ltmp953-Lfunc_begin160
	.uleb128 Ltmp954-Ltmp953
	.uleb128 Ltmp955-Lfunc_begin160
	.byte	0
	.uleb128 Ltmp956-Lfunc_begin160
	.uleb128 Ltmp957-Ltmp956
	.uleb128 Ltmp963-Lfunc_begin160
	.byte	0
	.uleb128 Ltmp958-Lfunc_begin160
	.uleb128 Ltmp959-Ltmp958
	.uleb128 Ltmp960-Lfunc_begin160
	.byte	0
	.uleb128 Ltmp961-Lfunc_begin160
	.uleb128 Ltmp962-Ltmp961
	.uleb128 Ltmp963-Lfunc_begin160
	.byte	0
	.uleb128 Ltmp962-Lfunc_begin160
	.uleb128 Lfunc_end160-Ltmp962
	.byte	0
	.byte	0
Lcst_end24:
	.p2align	2

	.section	__TEXT,__text,regular,pure_instructions
	.globl	__ZN4core3ptr84drop_in_place$LT$alloc..boxed..Box$LT$miniz_oxide..deflate..buffer..LocalBuf$GT$$GT$17h7b5b5ce5c9b88cb5E
	.p2align	4, 0x90
__ZN4core3ptr84drop_in_place$LT$alloc..boxed..Box$LT$miniz_oxide..deflate..buffer..LocalBuf$GT$$GT$17h7b5b5ce5c9b88cb5E:
Lfunc_begin161:
	.loc	9 490 0 is_stmt 1
	.cfi_startproc
	pushq	%rbp
	.cfi_def_cfa_offset 16
	.cfi_offset %rbp, -16
	movq	%rsp, %rbp
	.cfi_def_cfa_register %rbp
	subq	$32, %rsp
	movq	%rdi, -32(%rbp)
	movq	%rdi, -24(%rbp)
	movq	-32(%rbp), %rax
Ltmp966:
	.loc	9 490 1 prologue_end
	movq	(%rax), %rdi
	callq	__ZN5alloc5alloc8box_free17hc53907e8b6aa8b05E
	addq	$32, %rsp
	popq	%rbp
	retq
Ltmp967:
Lfunc_end161:
	.cfi_endproc

	.globl	__ZN4core3ptr86drop_in_place$LT$alloc..boxed..Box$LT$miniz_oxide..deflate..core..HuffmanOxide$GT$$GT$17h6d90769b010453b6E
	.p2align	4, 0x90
__ZN4core3ptr86drop_in_place$LT$alloc..boxed..Box$LT$miniz_oxide..deflate..core..HuffmanOxide$GT$$GT$17h6d90769b010453b6E:
Lfunc_begin162:
	.loc	9 490 0
	.cfi_startproc
	pushq	%rbp
	.cfi_def_cfa_offset 16
	.cfi_offset %rbp, -16
	movq	%rsp, %rbp
	.cfi_def_cfa_register %rbp
	subq	$32, %rsp
	movq	%rdi, -32(%rbp)
	movq	%rdi, -24(%rbp)
	movq	-32(%rbp), %rax
Ltmp968:
	.loc	9 490 1 prologue_end
	movq	(%rax), %rdi
	callq	__ZN5alloc5alloc8box_free17hc170f120f990b173E
	addq	$32, %rsp
	popq	%rbp
	retq
Ltmp969:
Lfunc_end162:
	.cfi_endproc

	.globl	__ZN4core3ptr87drop_in_place$LT$alloc..boxed..Box$LT$miniz_oxide..deflate..buffer..HashBuffers$GT$$GT$17ha28c09da6cad088dE
	.p2align	4, 0x90
__ZN4core3ptr87drop_in_place$LT$alloc..boxed..Box$LT$miniz_oxide..deflate..buffer..HashBuffers$GT$$GT$17ha28c09da6cad088dE:
Lfunc_begin163:
	.loc	9 490 0
	.cfi_startproc
	pushq	%rbp
	.cfi_def_cfa_offset 16
	.cfi_offset %rbp, -16
	movq	%rsp, %rbp
	.cfi_def_cfa_register %rbp
	subq	$32, %rsp
	movq	%rdi, -32(%rbp)
	movq	%rdi, -24(%rbp)
	movq	-32(%rbp), %rax
Ltmp970:
	.loc	9 490 1 prologue_end
	movq	(%rax), %rdi
	callq	__ZN5alloc5alloc8box_free17hd1af5f09778cc9a7E
	addq	$32, %rsp
	popq	%rbp
	retq
Ltmp971:
Lfunc_end163:
	.cfi_endproc

	.globl	__ZN4core3ptr88drop_in_place$LT$alloc..boxed..Box$LT$miniz_oxide..inflate..stream..InflateState$GT$$GT$17h324043d54dcde4d5E
	.p2align	4, 0x90
__ZN4core3ptr88drop_in_place$LT$alloc..boxed..Box$LT$miniz_oxide..inflate..stream..InflateState$GT$$GT$17h324043d54dcde4d5E:
Lfunc_begin164:
	.loc	9 490 0
	.cfi_startproc
	pushq	%rbp
	.cfi_def_cfa_offset 16
	.cfi_offset %rbp, -16
	movq	%rsp, %rbp
	.cfi_def_cfa_register %rbp
	subq	$32, %rsp
	movq	%rdi, -32(%rbp)
	movq	%rdi, -24(%rbp)
	movq	-32(%rbp), %rax
Ltmp972:
	.loc	9 490 1 prologue_end
	movq	(%rax), %rdi
	callq	__ZN5alloc5alloc8box_free17h4b0ae4f6469d8588E
	addq	$32, %rsp
	popq	%rbp
	retq
Ltmp973:
Lfunc_end164:
	.cfi_endproc

	.globl	__ZN4core3ptr8non_null16NonNull$LT$T$GT$3new17h3b043b51765a4243E
	.p2align	4, 0x90
__ZN4core3ptr8non_null16NonNull$LT$T$GT$3new17h3b043b51765a4243E:
Lfunc_begin165:
	.loc	13 222 0
	.cfi_startproc
	pushq	%rbp
	.cfi_def_cfa_offset 16
	.cfi_offset %rbp, -16
	movq	%rsp, %rbp
	.cfi_def_cfa_register %rbp
	subq	$88, %rsp
	movq	%rdi, -88(%rbp)
	movq	%rdi, -56(%rbp)
Ltmp974:
	.loc	13 223 13 prologue_end
	movq	%rdi, -48(%rbp)
Ltmp975:
	.loc	11 52 36
	movq	%rdi, -64(%rbp)
	.loc	11 52 18 is_stmt 0
	movq	-64(%rbp), %rax
	movq	%rax, -40(%rbp)
Ltmp976:
	.loc	11 38 13 is_stmt 1
	movq	%rax, -32(%rbp)
Ltmp977:
	.loc	11 215 33
	movq	%rax, -24(%rbp)
	.loc	11 215 18 is_stmt 0
	movq	%rax, -16(%rbp)
Ltmp978:
	.loc	11 38 13 is_stmt 1
	cmpq	$0, -16(%rbp)
	sete	%al
Ltmp979:
	.loc	13 223 12
	xorb	$-1, %al
	testb	$1, %al
	jne	LBB165_2
	.loc	13 227 13
	movq	$0, -80(%rbp)
	.loc	13 223 9
	jmp	LBB165_3
LBB165_2:
	.loc	13 0 9 is_stmt 0
	movq	-88(%rbp), %rax
	.loc	13 225 47 is_stmt 1
	movq	%rax, -8(%rbp)
Ltmp980:
	.loc	13 201 13
	movq	%rax, -72(%rbp)
Ltmp981:
	.loc	13 225 13
	movq	-72(%rbp), %rax
	movq	%rax, -80(%rbp)
LBB165_3:
	.loc	13 229 6
	movq	-80(%rbp), %rax
	addq	$88, %rsp
	popq	%rbp
	retq
Ltmp982:
Lfunc_end165:
	.cfi_endproc

	.globl	__ZN4core3ptr8non_null26NonNull$LT$$u5b$T$u5d$$GT$20slice_from_raw_parts17h2e51218568db1277E
	.p2align	4, 0x90
__ZN4core3ptr8non_null26NonNull$LT$$u5b$T$u5d$$GT$20slice_from_raw_parts17h2e51218568db1277E:
Lfunc_begin166:
	.loc	13 482 0
	.cfi_startproc
	pushq	%rbp
	.cfi_def_cfa_offset 16
	.cfi_offset %rbp, -16
	movq	%rsp, %rbp
	.cfi_def_cfa_register %rbp
	subq	$128, %rsp
	movq	%rdi, -80(%rbp)
	movq	%rsi, -72(%rbp)
Ltmp983:
	.loc	13 484 70 prologue_end
	movq	%rdi, -64(%rbp)
Ltmp984:
	.loc	13 326 9
	movq	%rdi, -56(%rbp)
Ltmp985:
	.loc	13 484 85
	movq	%rsi, -48(%rbp)
Ltmp986:
	.loc	9 766 24
	movq	%rdi, -40(%rbp)
Ltmp987:
	.loc	11 60 9
	movq	%rdi, -32(%rbp)
Ltmp988:
	.loc	9 766 37
	movq	%rsi, -24(%rbp)
Ltmp989:
	.loc	10 135 36
	movq	%rdi, -96(%rbp)
	movq	%rsi, -88(%rbp)
	.loc	10 135 14 is_stmt 0
	movq	-96(%rbp), %rcx
	movq	-88(%rbp), %rax
	movq	%rcx, -112(%rbp)
	movq	%rax, -104(%rbp)
	movq	-112(%rbp), %rcx
	movq	-104(%rbp), %rax
	movq	%rcx, -16(%rbp)
	movq	%rax, -8(%rbp)
Ltmp990:
	.loc	13 201 13 is_stmt 1
	movq	%rcx, -128(%rbp)
	movq	%rax, -120(%rbp)
Ltmp991:
	.loc	13 485 6
	movq	-128(%rbp), %rax
	movq	-120(%rbp), %rdx
	addq	$128, %rsp
	popq	%rbp
	retq
Ltmp992:
Lfunc_end166:
	.cfi_endproc

	.globl	__ZN4core3ptr91drop_in_place$LT$alloc..boxed..Box$LT$miniz_oxide..inflate..core..DecompressorOxide$GT$$GT$17h21677f42d82f4135E
	.p2align	4, 0x90
__ZN4core3ptr91drop_in_place$LT$alloc..boxed..Box$LT$miniz_oxide..inflate..core..DecompressorOxide$GT$$GT$17h21677f42d82f4135E:
Lfunc_begin167:
	.loc	9 490 0
	.cfi_startproc
	pushq	%rbp
	.cfi_def_cfa_offset 16
	.cfi_offset %rbp, -16
	movq	%rsp, %rbp
	.cfi_def_cfa_register %rbp
	subq	$32, %rsp
	movq	%rdi, -32(%rbp)
	movq	%rdi, -24(%rbp)
	movq	-32(%rbp), %rax
Ltmp993:
	.loc	9 490 1 prologue_end
	movq	(%rax), %rdi
	callq	__ZN5alloc5alloc8box_free17h275f47183319f3f5E
	addq	$32, %rsp
	popq	%rbp
	retq
Ltmp994:
Lfunc_end167:
	.cfi_endproc

	.p2align	4, 0x90
__ZN4core3ptr97drop_in_place$LT$$RF$core..result..Result$LT$miniz_oxide..MZStatus$C$miniz_oxide..MZError$GT$$GT$17hec4da2135a2338e6E:
Lfunc_begin168:
	.loc	9 490 0
	.cfi_startproc
	pushq	%rbp
	.cfi_def_cfa_offset 16
	.cfi_offset %rbp, -16
	movq	%rsp, %rbp
	.cfi_def_cfa_register %rbp
	pushq	%rax
	movq	%rdi, -8(%rbp)
Ltmp995:
	.loc	9 490 1 prologue_end
	addq	$8, %rsp
	popq	%rbp
	retq
Ltmp996:
Lfunc_end168:
	.cfi_endproc

	.globl	__ZN4core3ptr9const_ptr33_$LT$impl$u20$$BP$const$u20$T$GT$7sub_ptr17h84e1fd654666f64fE
	.p2align	4, 0x90
__ZN4core3ptr9const_ptr33_$LT$impl$u20$$BP$const$u20$T$GT$7sub_ptr17h84e1fd654666f64fE:
Lfunc_begin169:
	.loc	8 791 0
	.cfi_startproc
	pushq	%rbp
	.cfi_def_cfa_offset 16
	.cfi_offset %rbp, -16
	movq	%rsp, %rbp
	.cfi_def_cfa_register %rbp
	subq	$64, %rsp
	movq	%rdi, -56(%rbp)
	movq	%rsi, -48(%rbp)
	movq	%rdi, -32(%rbp)
	movq	%rsi, -24(%rbp)
Ltmp997:
	.loc	2 309 5 prologue_end
	movq	$1, -16(%rbp)
Ltmp998:
	.loc	8 806 17
	movb	$1, %al
	testb	$1, %al
	jne	LBB169_2
	movb	$0, -33(%rbp)
	jmp	LBB169_3
LBB169_2:
	movb	$1, -33(%rbp)
LBB169_3:
	.loc	8 806 9 is_stmt 0
	movb	-33(%rbp), %al
	xorb	$-1, %al
	testb	$1, %al
	jne	LBB169_5
	.loc	8 0 9
	movq	-48(%rbp), %rcx
	movq	-56(%rbp), %rax
	.loc	8 808 18 is_stmt 1
	subq	%rcx, %rax
	shrq	$0, %rax
	movq	%rax, -8(%rbp)
	movq	-8(%rbp), %rax
Ltmp999:
	.loc	8 809 6
	addq	$64, %rsp
	popq	%rbp
	retq
LBB169_5:
Ltmp1000:
	.loc	8 806 9
	leaq	l___unnamed_14(%rip), %rdi
	leaq	l___unnamed_15(%rip), %rdx
	movl	$73, %esi
	callq	__ZN4core9panicking5panic17hc1bc45270cf64b03E
Ltmp1001:
Lfunc_end169:
	.cfi_endproc

	.globl	__ZN4core3ptr9const_ptr33_$LT$impl$u20$$BP$const$u20$T$GT$7sub_ptr17hb095b96d322249e9E
	.p2align	4, 0x90
__ZN4core3ptr9const_ptr33_$LT$impl$u20$$BP$const$u20$T$GT$7sub_ptr17hb095b96d322249e9E:
Lfunc_begin170:
	.loc	8 791 0
	.cfi_startproc
	pushq	%rbp
	.cfi_def_cfa_offset 16
	.cfi_offset %rbp, -16
	movq	%rsp, %rbp
	.cfi_def_cfa_register %rbp
	subq	$64, %rsp
	movq	%rdi, -56(%rbp)
	movq	%rsi, -48(%rbp)
	movq	%rdi, -32(%rbp)
	movq	%rsi, -24(%rbp)
Ltmp1002:
	.loc	2 309 5 prologue_end
	movq	$4, -16(%rbp)
Ltmp1003:
	.loc	8 806 17
	movb	$1, %al
	testb	$1, %al
	jne	LBB170_2
	movb	$0, -33(%rbp)
	jmp	LBB170_3
LBB170_2:
	movb	$1, -33(%rbp)
LBB170_3:
	.loc	8 806 9 is_stmt 0
	movb	-33(%rbp), %al
	xorb	$-1, %al
	testb	$1, %al
	jne	LBB170_5
	.loc	8 0 9
	movq	-48(%rbp), %rcx
	movq	-56(%rbp), %rax
	.loc	8 808 18 is_stmt 1
	subq	%rcx, %rax
	shrq	$2, %rax
	movq	%rax, -8(%rbp)
	movq	-8(%rbp), %rax
Ltmp1004:
	.loc	8 809 6
	addq	$64, %rsp
	popq	%rbp
	retq
LBB170_5:
Ltmp1005:
	.loc	8 806 9
	leaq	l___unnamed_14(%rip), %rdi
	leaq	l___unnamed_15(%rip), %rdx
	movl	$73, %esi
	callq	__ZN4core9panicking5panic17hc1bc45270cf64b03E
Ltmp1006:
Lfunc_end170:
	.cfi_endproc

	.p2align	4, 0x90
__ZN4core4hint21unreachable_unchecked17h6691f2a53e54b925E:
Lfunc_begin171:
	.file	36 "/rustc/2c8cc343237b8f7d5a3c3703e3a87f2eb2c54a74/library/core/src" "hint.rs"
	.loc	36 100 0
	.cfi_startproc
	pushq	%rbp
	.cfi_def_cfa_offset 16
	.cfi_offset %rbp, -16
	movq	%rsp, %rbp
	.cfi_def_cfa_register %rbp
Ltmp1007:
	.loc	36 104 9 prologue_end
	ud2
Ltmp1008:
Lfunc_end171:
	.cfi_endproc

	.globl	__ZN4core4iter5range101_$LT$impl$u20$core..iter..traits..iterator..Iterator$u20$for$u20$core..ops..range..Range$LT$A$GT$$GT$4next17h3449709c3cb98303E
	.p2align	4, 0x90
__ZN4core4iter5range101_$LT$impl$u20$core..iter..traits..iterator..Iterator$u20$for$u20$core..ops..range..Range$LT$A$GT$$GT$4next17h3449709c3cb98303E:
Lfunc_begin172:
	.loc	14 710 0
	.cfi_startproc
	pushq	%rbp
	.cfi_def_cfa_offset 16
	.cfi_offset %rbp, -16
	movq	%rsp, %rbp
	.cfi_def_cfa_register %rbp
	subq	$16, %rsp
	movq	%rdi, -8(%rbp)
Ltmp1009:
	.loc	14 711 9 prologue_end
	callq	__ZN89_$LT$core..ops..range..Range$LT$T$GT$$u20$as$u20$core..iter..range..RangeIteratorImpl$GT$9spec_next17h4d1c9d68bad7a30aE
	.loc	14 712 6
	andb	$1, %al
	addq	$16, %rsp
	popq	%rbp
	retq
Ltmp1010:
Lfunc_end172:
	.cfi_endproc

	.globl	__ZN4core4iter5range101_$LT$impl$u20$core..iter..traits..iterator..Iterator$u20$for$u20$core..ops..range..Range$LT$A$GT$$GT$4next17h4a29c7c3bbdbf4eaE
	.p2align	4, 0x90
__ZN4core4iter5range101_$LT$impl$u20$core..iter..traits..iterator..Iterator$u20$for$u20$core..ops..range..Range$LT$A$GT$$GT$4next17h4a29c7c3bbdbf4eaE:
Lfunc_begin173:
	.loc	14 710 0
	.cfi_startproc
	pushq	%rbp
	.cfi_def_cfa_offset 16
	.cfi_offset %rbp, -16
	movq	%rsp, %rbp
	.cfi_def_cfa_register %rbp
	subq	$16, %rsp
	movq	%rdi, -8(%rbp)
Ltmp1011:
	.loc	14 711 9 prologue_end
	callq	__ZN89_$LT$core..ops..range..Range$LT$T$GT$$u20$as$u20$core..iter..range..RangeIteratorImpl$GT$9spec_next17h14155e6499428418E
	.loc	14 712 6
	addq	$16, %rsp
	popq	%rbp
	retq
Ltmp1012:
Lfunc_end173:
	.cfi_endproc

	.globl	__ZN4core4iter5range101_$LT$impl$u20$core..iter..traits..iterator..Iterator$u20$for$u20$core..ops..range..Range$LT$A$GT$$GT$4next17ha669351b5262fdacE
	.p2align	4, 0x90
__ZN4core4iter5range101_$LT$impl$u20$core..iter..traits..iterator..Iterator$u20$for$u20$core..ops..range..Range$LT$A$GT$$GT$4next17ha669351b5262fdacE:
Lfunc_begin174:
	.loc	14 710 0
	.cfi_startproc
	pushq	%rbp
	.cfi_def_cfa_offset 16
	.cfi_offset %rbp, -16
	movq	%rsp, %rbp
	.cfi_def_cfa_register %rbp
	subq	$16, %rsp
	movq	%rdi, -8(%rbp)
Ltmp1013:
	.loc	14 711 9 prologue_end
	callq	__ZN89_$LT$core..ops..range..Range$LT$T$GT$$u20$as$u20$core..iter..range..RangeIteratorImpl$GT$9spec_next17h3d0f159c30048bfdE
	.loc	14 712 6
	addq	$16, %rsp
	popq	%rbp
	retq
Ltmp1014:
Lfunc_end174:
	.cfi_endproc

	.globl	__ZN4core4iter5range101_$LT$impl$u20$core..iter..traits..iterator..Iterator$u20$for$u20$core..ops..range..Range$LT$A$GT$$GT$4next17hcd30896798469113E
	.p2align	4, 0x90
__ZN4core4iter5range101_$LT$impl$u20$core..iter..traits..iterator..Iterator$u20$for$u20$core..ops..range..Range$LT$A$GT$$GT$4next17hcd30896798469113E:
Lfunc_begin175:
	.loc	14 710 0
	.cfi_startproc
	pushq	%rbp
	.cfi_def_cfa_offset 16
	.cfi_offset %rbp, -16
	movq	%rsp, %rbp
	.cfi_def_cfa_register %rbp
	subq	$16, %rsp
	movq	%rdi, -8(%rbp)
Ltmp1015:
	.loc	14 711 9 prologue_end
	callq	__ZN89_$LT$core..ops..range..Range$LT$T$GT$$u20$as$u20$core..iter..range..RangeIteratorImpl$GT$9spec_next17h98b4ac334478ecfaE
	.loc	14 712 6
	addq	$16, %rsp
	popq	%rbp
	retq
Ltmp1016:
Lfunc_end175:
	.cfi_endproc

	.globl	__ZN4core4iter5range110_$LT$impl$u20$core..iter..traits..iterator..Iterator$u20$for$u20$core..ops..range..RangeInclusive$LT$A$GT$$GT$4next17hf824335f034c50dcE
	.p2align	4, 0x90
__ZN4core4iter5range110_$LT$impl$u20$core..iter..traits..iterator..Iterator$u20$for$u20$core..ops..range..RangeInclusive$LT$A$GT$$GT$4next17hf824335f034c50dcE:
Lfunc_begin176:
	.loc	14 1099 0
	.cfi_startproc
	pushq	%rbp
	.cfi_def_cfa_offset 16
	.cfi_offset %rbp, -16
	movq	%rsp, %rbp
	.cfi_def_cfa_register %rbp
	subq	$16, %rsp
	movq	%rdi, -8(%rbp)
Ltmp1017:
	.loc	14 1100 9 prologue_end
	callq	__ZN107_$LT$core..ops..range..RangeInclusive$LT$T$GT$$u20$as$u20$core..iter..range..RangeInclusiveIteratorImpl$GT$9spec_next17h81dcd0de006271e8E
	.loc	14 1101 6
	addq	$16, %rsp
	popq	%rbp
	retq
Ltmp1018:
Lfunc_end176:
	.cfi_endproc

	.globl	__ZN4core4iter5range116_$LT$impl$u20$core..iter..traits..double_ended..DoubleEndedIterator$u20$for$u20$core..ops..range..Range$LT$A$GT$$GT$9next_back17h4763958dae4616fcE
	.p2align	4, 0x90
__ZN4core4iter5range116_$LT$impl$u20$core..iter..traits..double_ended..DoubleEndedIterator$u20$for$u20$core..ops..range..Range$LT$A$GT$$GT$9next_back17h4763958dae4616fcE:
Lfunc_begin177:
	.loc	14 818 0
	.cfi_startproc
	pushq	%rbp
	.cfi_def_cfa_offset 16
	.cfi_offset %rbp, -16
	movq	%rsp, %rbp
	.cfi_def_cfa_register %rbp
	subq	$16, %rsp
	movq	%rdi, -8(%rbp)
Ltmp1019:
	.loc	14 819 9 prologue_end
	callq	__ZN89_$LT$core..ops..range..Range$LT$T$GT$$u20$as$u20$core..iter..range..RangeIteratorImpl$GT$14spec_next_back17h133999495c045cfdE
	.loc	14 820 6
	addq	$16, %rsp
	popq	%rbp
	retq
Ltmp1020:
Lfunc_end177:
	.cfi_endproc

	.globl	__ZN4core4iter6traits12double_ended19DoubleEndedIterator5rfold17hccc50e95503b1952E
	.p2align	4, 0x90
__ZN4core4iter6traits12double_ended19DoubleEndedIterator5rfold17hccc50e95503b1952E:
Lfunc_begin178:
	.file	37 "/rustc/2c8cc343237b8f7d5a3c3703e3a87f2eb2c54a74/library/core/src/iter/traits" "double_ended.rs"
	.loc	37 292 0
	.cfi_startproc
	.cfi_personality 155, _rust_eh_personality
	.cfi_lsda 16, Lexception25
	pushq	%rbp
	.cfi_def_cfa_offset 16
	.cfi_offset %rbp, -16
	movq	%rsp, %rbp
	.cfi_def_cfa_register %rbp
	subq	$112, %rsp
	movq	%rdi, -88(%rbp)
	movq	%rsi, -80(%rbp)
	movq	%rcx, -72(%rbp)
	movl	%edx, -28(%rbp)
Ltmp1026:
	.loc	37 297 25 prologue_end
	movb	$1, -29(%rbp)
	movl	%edx, -60(%rbp)
LBB178_1:
Ltmp1021:
	.loc	37 0 25 is_stmt 0
	leaq	-88(%rbp), %rdi
Ltmp1027:
	.loc	37 298 29 is_stmt 1
	callq	__ZN106_$LT$core..slice..iter..Iter$LT$T$GT$$u20$as$u20$core..iter..traits..double_ended..DoubleEndedIterator$GT$9next_back17h03769f52e6f951f9E
Ltmp1022:
	movq	%rax, -96(%rbp)
	jmp	LBB178_4
Ltmp1028:
LBB178_2:
	.loc	37 302 5
	testb	$1, -29(%rbp)
	jne	LBB178_11
	jmp	LBB178_10
LBB178_3:
Ltmp1025:
	.loc	37 0 5 is_stmt 0
	movq	%rax, %rcx
	movl	%edx, %eax
	movq	%rcx, -24(%rbp)
	movl	%eax, -16(%rbp)
	jmp	LBB178_2
LBB178_4:
	movq	-96(%rbp), %rax
Ltmp1029:
	.loc	37 298 29 is_stmt 1
	movq	%rax, -56(%rbp)
	.loc	37 298 19 is_stmt 0
	movq	-56(%rbp), %rdx
	movl	$1, %eax
	xorl	%ecx, %ecx
	cmpq	$0, %rdx
	cmoveq	%rcx, %rax
	cmpq	$1, %rax
	jne	LBB178_6
	.loc	37 298 24
	movq	-56(%rbp), %rax
	movq	%rax, -8(%rbp)
	.loc	37 299 23 is_stmt 1
	movb	$0, -29(%rbp)
	movl	-60(%rbp), %ecx
	.loc	37 299 21 is_stmt 0
	movl	%ecx, -48(%rbp)
	movq	%rax, -40(%rbp)
	movl	-48(%rbp), %esi
	movq	-40(%rbp), %rdx
Ltmp1023:
	leaq	-72(%rbp), %rdi
	callq	__ZN110_$LT$core..iter..adapters..enumerate..Enumerate$LT$I$GT$$u20$as$u20$core..iter..traits..iterator..Iterator$GT$4fold9enumerate28_$u7b$$u7b$closure$u7d$$u7d$17h5b523fd22a3551a7E
Ltmp1024:
	movl	%eax, -100(%rbp)
	jmp	LBB178_9
Ltmp1030:
LBB178_6:
	.loc	37 298 9 is_stmt 1
	jmp	LBB178_7
Ltmp1031:
LBB178_7:
	.loc	37 302 5
	jmp	LBB178_8
LBB178_8:
	.loc	37 302 6 is_stmt 0
	movl	-60(%rbp), %eax
	addq	$112, %rsp
	popq	%rbp
	retq
LBB178_9:
	.loc	37 0 6
	movl	-100(%rbp), %eax
Ltmp1032:
	.loc	37 299 13 is_stmt 1
	movb	$1, -29(%rbp)
	movl	%eax, -60(%rbp)
Ltmp1033:
	.loc	37 298 9
	jmp	LBB178_1
Ltmp1034:
LBB178_10:
	.loc	37 302 5
	jmp	LBB178_12
LBB178_11:
	jmp	LBB178_10
LBB178_12:
	.loc	37 292 5
	movq	-24(%rbp), %rdi
	callq	__Unwind_Resume
Ltmp1035:
Lfunc_end178:
	.cfi_endproc
	.section	__TEXT,__gcc_except_tab
	.p2align	2
GCC_except_table178:
Lexception25:
	.byte	255
	.byte	255
	.byte	1
	.uleb128 Lcst_end25-Lcst_begin25
Lcst_begin25:
	.uleb128 Ltmp1021-Lfunc_begin178
	.uleb128 Ltmp1024-Ltmp1021
	.uleb128 Ltmp1025-Lfunc_begin178
	.byte	0
	.uleb128 Ltmp1024-Lfunc_begin178
	.uleb128 Lfunc_end178-Ltmp1024
	.byte	0
	.byte	0
Lcst_end25:
	.p2align	2

	.section	__TEXT,__text,regular,pure_instructions
	.globl	__ZN4core4iter6traits12double_ended19DoubleEndedIterator9try_rfold17h013fe610d2e2dc59E
	.p2align	4, 0x90
__ZN4core4iter6traits12double_ended19DoubleEndedIterator9try_rfold17h013fe610d2e2dc59E:
Lfunc_begin179:
	.loc	37 221 0
	.cfi_startproc
	.cfi_personality 155, _rust_eh_personality
	.cfi_lsda 16, Lexception26
	pushq	%rbp
	.cfi_def_cfa_offset 16
	.cfi_offset %rbp, -16
	movq	%rsp, %rbp
	.cfi_def_cfa_register %rbp
	subq	$224, %rsp
	movq	%rdi, -144(%rbp)
	movq	%rdx, -136(%rbp)
Ltmp1047:
	movq	%rdi, -56(%rbp)
	movq	%rsi, -48(%rbp)
Ltmp1048:
	.loc	37 227 25 prologue_end
	movb	$1, -57(%rbp)
	movq	%rsi, -112(%rbp)
Ltmp1049:
LBB179_1:
Ltmp1036:
	.loc	37 0 25 is_stmt 0
	movq	-144(%rbp), %rdi
Ltmp1050:
	.loc	37 228 29 is_stmt 1
	callq	__ZN106_$LT$core..slice..iter..Iter$LT$T$GT$$u20$as$u20$core..iter..traits..double_ended..DoubleEndedIterator$GT$9next_back17h53933217014480dfE
Ltmp1037:
	movq	%rax, -152(%rbp)
	jmp	LBB179_4
Ltmp1051:
LBB179_2:
	.loc	37 232 5
	testb	$1, -57(%rbp)
	jne	LBB179_16
	jmp	LBB179_15
Ltmp1052:
LBB179_3:
Ltmp1046:
	.loc	37 0 5 is_stmt 0
	movq	%rax, %rcx
	movl	%edx, %eax
	movq	%rcx, -40(%rbp)
	movl	%eax, -32(%rbp)
	jmp	LBB179_2
Ltmp1053:
LBB179_4:
	movq	-152(%rbp), %rax
Ltmp1054:
	.loc	37 228 29 is_stmt 1
	movq	%rax, -104(%rbp)
	.loc	37 228 19 is_stmt 0
	movq	-104(%rbp), %rdx
	movl	$1, %eax
	xorl	%ecx, %ecx
	cmpq	$0, %rdx
	cmoveq	%rcx, %rax
	cmpq	$1, %rax
	jne	LBB179_6
Ltmp1055:
	.loc	37 0 19
	movq	-136(%rbp), %rdi
	.loc	37 228 24
	movq	-104(%rbp), %rax
	movq	%rax, -24(%rbp)
	.loc	37 229 23 is_stmt 1
	movb	$0, -57(%rbp)
	movq	-112(%rbp), %rcx
	.loc	37 229 21 is_stmt 0
	movq	%rcx, -80(%rbp)
	movq	%rax, -72(%rbp)
	movq	-80(%rbp), %rsi
	movq	-72(%rbp), %rdx
Ltmp1040:
	callq	__ZN115_$LT$core..iter..adapters..take_while..TakeWhile$LT$I$C$P$GT$$u20$as$u20$core..iter..traits..iterator..Iterator$GT$8try_fold5check28_$u7b$$u7b$closure$u7d$$u7d$17h20d7810fd6601505E
Ltmp1041:
	movq	%rdx, -168(%rbp)
	movq	%rax, -160(%rbp)
	jmp	LBB179_10
Ltmp1056:
LBB179_6:
	.loc	37 228 9 is_stmt 1
	jmp	LBB179_7
Ltmp1057:
LBB179_7:
	.loc	37 231 15
	movb	$0, -57(%rbp)
	movq	-112(%rbp), %rdi
Ltmp1038:
	callq	__ZN95_$LT$core..ops..control_flow..ControlFlow$LT$B$C$C$GT$$u20$as$u20$core..ops..try_trait..Try$GT$11from_output17h15da9a4ac72a1048E
Ltmp1039:
	movq	%rdx, -184(%rbp)
	movq	%rax, -176(%rbp)
	jmp	LBB179_8
Ltmp1058:
LBB179_8:
	.loc	37 0 15 is_stmt 0
	movq	-184(%rbp), %rax
	movq	-176(%rbp), %rcx
	.loc	37 231 15
	movq	%rcx, -128(%rbp)
	movq	%rax, -120(%rbp)
Ltmp1059:
LBB179_9:
	.loc	37 232 6 is_stmt 1
	movq	-128(%rbp), %rax
	movq	-120(%rbp), %rdx
	addq	$224, %rsp
	popq	%rbp
	retq
Ltmp1060:
LBB179_10:
Ltmp1042:
	.loc	37 0 6 is_stmt 0
	movq	-168(%rbp), %rsi
	movq	-160(%rbp), %rdi
Ltmp1061:
	.loc	37 229 21 is_stmt 1
	callq	__ZN95_$LT$core..ops..control_flow..ControlFlow$LT$B$C$C$GT$$u20$as$u20$core..ops..try_trait..Try$GT$6branch17h7af0b69e6ada03d0E
Ltmp1043:
	movq	%rdx, -200(%rbp)
	movq	%rax, -192(%rbp)
	jmp	LBB179_11
Ltmp1062:
LBB179_11:
	.loc	37 0 21 is_stmt 0
	movq	-200(%rbp), %rax
	movq	-192(%rbp), %rcx
	.loc	37 229 21
	movq	%rcx, -96(%rbp)
	movq	%rax, -88(%rbp)
	cmpq	$0, -96(%rbp)
	jne	LBB179_13
Ltmp1063:
	movq	-88(%rbp), %rax
	movq	%rax, -8(%rbp)
	.loc	37 229 13
	movb	$1, -57(%rbp)
	movq	%rax, -112(%rbp)
Ltmp1064:
	.loc	37 228 9 is_stmt 1
	jmp	LBB179_1
Ltmp1065:
LBB179_13:
	.loc	37 229 32
	movq	-88(%rbp), %rdi
	movq	%rdi, -16(%rbp)
Ltmp1044:
Ltmp1066:
	.loc	37 229 21 is_stmt 0
	callq	__ZN104_$LT$core..ops..control_flow..ControlFlow$LT$B$C$C$GT$$u20$as$u20$core..ops..try_trait..FromResidual$GT$13from_residual17h5a044ec20e3f3531E
Ltmp1045:
	movq	%rdx, -216(%rbp)
	movq	%rax, -208(%rbp)
	jmp	LBB179_14
Ltmp1067:
LBB179_14:
	.loc	37 0 21
	movq	-216(%rbp), %rax
	movq	-208(%rbp), %rcx
	.loc	37 229 21
	movq	%rcx, -128(%rbp)
	movq	%rax, -120(%rbp)
Ltmp1068:
	.loc	37 232 5 is_stmt 1
	jmp	LBB179_9
Ltmp1069:
LBB179_15:
	.loc	37 221 5
	movq	-40(%rbp), %rdi
	callq	__Unwind_Resume
Ltmp1070:
LBB179_16:
	.loc	37 232 5
	jmp	LBB179_15
Ltmp1071:
Lfunc_end179:
	.cfi_endproc
	.section	__TEXT,__gcc_except_tab
	.p2align	2
GCC_except_table179:
Lexception26:
	.byte	255
	.byte	255
	.byte	1
	.uleb128 Lcst_end26-Lcst_begin26
Lcst_begin26:
	.uleb128 Ltmp1036-Lfunc_begin179
	.uleb128 Ltmp1045-Ltmp1036
	.uleb128 Ltmp1046-Lfunc_begin179
	.byte	0
	.uleb128 Ltmp1045-Lfunc_begin179
	.uleb128 Lfunc_end179-Ltmp1045
	.byte	0
	.byte	0
Lcst_end26:
	.p2align	2

	.section	__TEXT,__text,regular,pure_instructions
	.globl	__ZN4core4iter6traits12double_ended19DoubleEndedIterator9try_rfold17h33c734d30059a490E
	.p2align	4, 0x90
__ZN4core4iter6traits12double_ended19DoubleEndedIterator9try_rfold17h33c734d30059a490E:
Lfunc_begin180:
	.loc	37 221 0
	.cfi_startproc
	.cfi_personality 155, _rust_eh_personality
	.cfi_lsda 16, Lexception27
	pushq	%rbp
	.cfi_def_cfa_offset 16
	.cfi_offset %rbp, -16
	movq	%rsp, %rbp
	.cfi_def_cfa_register %rbp
	subq	$224, %rsp
	movq	%rdi, -144(%rbp)
	movq	%rdx, -136(%rbp)
Ltmp1083:
	movq	%rdi, -56(%rbp)
	movq	%rsi, -48(%rbp)
Ltmp1084:
	.loc	37 227 25 prologue_end
	movb	$1, -57(%rbp)
	movq	%rsi, -112(%rbp)
Ltmp1085:
LBB180_1:
Ltmp1072:
	.loc	37 0 25 is_stmt 0
	movq	-144(%rbp), %rdi
Ltmp1086:
	.loc	37 228 29 is_stmt 1
	callq	__ZN106_$LT$core..slice..iter..Iter$LT$T$GT$$u20$as$u20$core..iter..traits..double_ended..DoubleEndedIterator$GT$9next_back17h53933217014480dfE
Ltmp1073:
	movq	%rax, -152(%rbp)
	jmp	LBB180_4
Ltmp1087:
LBB180_2:
	.loc	37 232 5
	testb	$1, -57(%rbp)
	jne	LBB180_16
	jmp	LBB180_15
Ltmp1088:
LBB180_3:
Ltmp1082:
	.loc	37 0 5 is_stmt 0
	movq	%rax, %rcx
	movl	%edx, %eax
	movq	%rcx, -40(%rbp)
	movl	%eax, -32(%rbp)
	jmp	LBB180_2
Ltmp1089:
LBB180_4:
	movq	-152(%rbp), %rax
Ltmp1090:
	.loc	37 228 29 is_stmt 1
	movq	%rax, -104(%rbp)
	.loc	37 228 19 is_stmt 0
	movq	-104(%rbp), %rdx
	movl	$1, %eax
	xorl	%ecx, %ecx
	cmpq	$0, %rdx
	cmoveq	%rcx, %rax
	cmpq	$1, %rax
	jne	LBB180_6
Ltmp1091:
	.loc	37 0 19
	movq	-136(%rbp), %rdi
	.loc	37 228 24
	movq	-104(%rbp), %rax
	movq	%rax, -24(%rbp)
	.loc	37 229 23 is_stmt 1
	movb	$0, -57(%rbp)
	movq	-112(%rbp), %rcx
	.loc	37 229 21 is_stmt 0
	movq	%rcx, -80(%rbp)
	movq	%rax, -72(%rbp)
	movq	-80(%rbp), %rsi
	movq	-72(%rbp), %rdx
Ltmp1076:
	callq	__ZN115_$LT$core..iter..adapters..take_while..TakeWhile$LT$I$C$P$GT$$u20$as$u20$core..iter..traits..iterator..Iterator$GT$8try_fold5check28_$u7b$$u7b$closure$u7d$$u7d$17h8ec8fdf27cf94752E
Ltmp1077:
	movq	%rdx, -168(%rbp)
	movq	%rax, -160(%rbp)
	jmp	LBB180_10
Ltmp1092:
LBB180_6:
	.loc	37 228 9 is_stmt 1
	jmp	LBB180_7
Ltmp1093:
LBB180_7:
	.loc	37 231 15
	movb	$0, -57(%rbp)
	movq	-112(%rbp), %rdi
Ltmp1074:
	callq	__ZN95_$LT$core..ops..control_flow..ControlFlow$LT$B$C$C$GT$$u20$as$u20$core..ops..try_trait..Try$GT$11from_output17h15da9a4ac72a1048E
Ltmp1075:
	movq	%rdx, -184(%rbp)
	movq	%rax, -176(%rbp)
	jmp	LBB180_8
Ltmp1094:
LBB180_8:
	.loc	37 0 15 is_stmt 0
	movq	-184(%rbp), %rax
	movq	-176(%rbp), %rcx
	.loc	37 231 15
	movq	%rcx, -128(%rbp)
	movq	%rax, -120(%rbp)
Ltmp1095:
LBB180_9:
	.loc	37 232 6 is_stmt 1
	movq	-128(%rbp), %rax
	movq	-120(%rbp), %rdx
	addq	$224, %rsp
	popq	%rbp
	retq
Ltmp1096:
LBB180_10:
Ltmp1078:
	.loc	37 0 6 is_stmt 0
	movq	-168(%rbp), %rsi
	movq	-160(%rbp), %rdi
Ltmp1097:
	.loc	37 229 21 is_stmt 1
	callq	__ZN95_$LT$core..ops..control_flow..ControlFlow$LT$B$C$C$GT$$u20$as$u20$core..ops..try_trait..Try$GT$6branch17h7af0b69e6ada03d0E
Ltmp1079:
	movq	%rdx, -200(%rbp)
	movq	%rax, -192(%rbp)
	jmp	LBB180_11
Ltmp1098:
LBB180_11:
	.loc	37 0 21 is_stmt 0
	movq	-200(%rbp), %rax
	movq	-192(%rbp), %rcx
	.loc	37 229 21
	movq	%rcx, -96(%rbp)
	movq	%rax, -88(%rbp)
	cmpq	$0, -96(%rbp)
	jne	LBB180_13
Ltmp1099:
	movq	-88(%rbp), %rax
	movq	%rax, -8(%rbp)
	.loc	37 229 13
	movb	$1, -57(%rbp)
	movq	%rax, -112(%rbp)
Ltmp1100:
	.loc	37 228 9 is_stmt 1
	jmp	LBB180_1
Ltmp1101:
LBB180_13:
	.loc	37 229 32
	movq	-88(%rbp), %rdi
	movq	%rdi, -16(%rbp)
Ltmp1080:
Ltmp1102:
	.loc	37 229 21 is_stmt 0
	callq	__ZN104_$LT$core..ops..control_flow..ControlFlow$LT$B$C$C$GT$$u20$as$u20$core..ops..try_trait..FromResidual$GT$13from_residual17h5a044ec20e3f3531E
Ltmp1081:
	movq	%rdx, -216(%rbp)
	movq	%rax, -208(%rbp)
	jmp	LBB180_14
Ltmp1103:
LBB180_14:
	.loc	37 0 21
	movq	-216(%rbp), %rax
	movq	-208(%rbp), %rcx
	.loc	37 229 21
	movq	%rcx, -128(%rbp)
	movq	%rax, -120(%rbp)
Ltmp1104:
	.loc	37 232 5 is_stmt 1
	jmp	LBB180_9
Ltmp1105:
LBB180_15:
	.loc	37 221 5
	movq	-40(%rbp), %rdi
	callq	__Unwind_Resume
Ltmp1106:
LBB180_16:
	.loc	37 232 5
	jmp	LBB180_15
Ltmp1107:
Lfunc_end180:
	.cfi_endproc
	.section	__TEXT,__gcc_except_tab
	.p2align	2
GCC_except_table180:
Lexception27:
	.byte	255
	.byte	255
	.byte	1
	.uleb128 Lcst_end27-Lcst_begin27
Lcst_begin27:
	.uleb128 Ltmp1072-Lfunc_begin180
	.uleb128 Ltmp1081-Ltmp1072
	.uleb128 Ltmp1082-Lfunc_begin180
	.byte	0
	.uleb128 Ltmp1081-Lfunc_begin180
	.uleb128 Lfunc_end180-Ltmp1081
	.byte	0
	.byte	0
Lcst_end27:
	.p2align	2

	.section	__TEXT,__text,regular,pure_instructions
	.globl	__ZN4core4iter6traits12double_ended19DoubleEndedIterator9try_rfold17hf5b76db4ea8f39ccE
	.p2align	4, 0x90
__ZN4core4iter6traits12double_ended19DoubleEndedIterator9try_rfold17hf5b76db4ea8f39ccE:
Lfunc_begin181:
	.loc	37 221 0
	.cfi_startproc
	.cfi_personality 155, _rust_eh_personality
	.cfi_lsda 16, Lexception28
	pushq	%rbp
	.cfi_def_cfa_offset 16
	.cfi_offset %rbp, -16
	movq	%rsp, %rbp
	.cfi_def_cfa_register %rbp
	subq	$224, %rsp
	movq	%rdi, -144(%rbp)
	movq	%rdx, -136(%rbp)
Ltmp1119:
	movq	%rdi, -56(%rbp)
	movq	%rsi, -48(%rbp)
Ltmp1120:
	.loc	37 227 25 prologue_end
	movb	$1, -57(%rbp)
	movq	%rsi, -112(%rbp)
Ltmp1121:
LBB181_1:
Ltmp1108:
	.loc	37 0 25 is_stmt 0
	movq	-144(%rbp), %rdi
Ltmp1122:
	.loc	37 228 29 is_stmt 1
	callq	__ZN106_$LT$core..slice..iter..Iter$LT$T$GT$$u20$as$u20$core..iter..traits..double_ended..DoubleEndedIterator$GT$9next_back17h53933217014480dfE
Ltmp1109:
	movq	%rax, -152(%rbp)
	jmp	LBB181_4
Ltmp1123:
LBB181_2:
	.loc	37 232 5
	testb	$1, -57(%rbp)
	jne	LBB181_16
	jmp	LBB181_15
Ltmp1124:
LBB181_3:
Ltmp1118:
	.loc	37 0 5 is_stmt 0
	movq	%rax, %rcx
	movl	%edx, %eax
	movq	%rcx, -40(%rbp)
	movl	%eax, -32(%rbp)
	jmp	LBB181_2
Ltmp1125:
LBB181_4:
	movq	-152(%rbp), %rax
Ltmp1126:
	.loc	37 228 29 is_stmt 1
	movq	%rax, -104(%rbp)
	.loc	37 228 19 is_stmt 0
	movq	-104(%rbp), %rdx
	movl	$1, %eax
	xorl	%ecx, %ecx
	cmpq	$0, %rdx
	cmoveq	%rcx, %rax
	cmpq	$1, %rax
	jne	LBB181_6
Ltmp1127:
	.loc	37 0 19
	movq	-136(%rbp), %rdi
	.loc	37 228 24
	movq	-104(%rbp), %rax
	movq	%rax, -24(%rbp)
	.loc	37 229 23 is_stmt 1
	movb	$0, -57(%rbp)
	movq	-112(%rbp), %rcx
	.loc	37 229 21 is_stmt 0
	movq	%rcx, -80(%rbp)
	movq	%rax, -72(%rbp)
	movq	-80(%rbp), %rsi
	movq	-72(%rbp), %rdx
Ltmp1112:
	callq	__ZN115_$LT$core..iter..adapters..take_while..TakeWhile$LT$I$C$P$GT$$u20$as$u20$core..iter..traits..iterator..Iterator$GT$8try_fold5check28_$u7b$$u7b$closure$u7d$$u7d$17hd3523e11231830dcE
Ltmp1113:
	movq	%rdx, -168(%rbp)
	movq	%rax, -160(%rbp)
	jmp	LBB181_10
Ltmp1128:
LBB181_6:
	.loc	37 228 9 is_stmt 1
	jmp	LBB181_7
Ltmp1129:
LBB181_7:
	.loc	37 231 15
	movb	$0, -57(%rbp)
	movq	-112(%rbp), %rdi
Ltmp1110:
	callq	__ZN95_$LT$core..ops..control_flow..ControlFlow$LT$B$C$C$GT$$u20$as$u20$core..ops..try_trait..Try$GT$11from_output17h15da9a4ac72a1048E
Ltmp1111:
	movq	%rdx, -184(%rbp)
	movq	%rax, -176(%rbp)
	jmp	LBB181_8
Ltmp1130:
LBB181_8:
	.loc	37 0 15 is_stmt 0
	movq	-184(%rbp), %rax
	movq	-176(%rbp), %rcx
	.loc	37 231 15
	movq	%rcx, -128(%rbp)
	movq	%rax, -120(%rbp)
Ltmp1131:
LBB181_9:
	.loc	37 232 6 is_stmt 1
	movq	-128(%rbp), %rax
	movq	-120(%rbp), %rdx
	addq	$224, %rsp
	popq	%rbp
	retq
Ltmp1132:
LBB181_10:
Ltmp1114:
	.loc	37 0 6 is_stmt 0
	movq	-168(%rbp), %rsi
	movq	-160(%rbp), %rdi
Ltmp1133:
	.loc	37 229 21 is_stmt 1
	callq	__ZN95_$LT$core..ops..control_flow..ControlFlow$LT$B$C$C$GT$$u20$as$u20$core..ops..try_trait..Try$GT$6branch17h7af0b69e6ada03d0E
Ltmp1115:
	movq	%rdx, -200(%rbp)
	movq	%rax, -192(%rbp)
	jmp	LBB181_11
Ltmp1134:
LBB181_11:
	.loc	37 0 21 is_stmt 0
	movq	-200(%rbp), %rax
	movq	-192(%rbp), %rcx
	.loc	37 229 21
	movq	%rcx, -96(%rbp)
	movq	%rax, -88(%rbp)
	cmpq	$0, -96(%rbp)
	jne	LBB181_13
Ltmp1135:
	movq	-88(%rbp), %rax
	movq	%rax, -8(%rbp)
	.loc	37 229 13
	movb	$1, -57(%rbp)
	movq	%rax, -112(%rbp)
Ltmp1136:
	.loc	37 228 9 is_stmt 1
	jmp	LBB181_1
Ltmp1137:
LBB181_13:
	.loc	37 229 32
	movq	-88(%rbp), %rdi
	movq	%rdi, -16(%rbp)
Ltmp1116:
Ltmp1138:
	.loc	37 229 21 is_stmt 0
	callq	__ZN104_$LT$core..ops..control_flow..ControlFlow$LT$B$C$C$GT$$u20$as$u20$core..ops..try_trait..FromResidual$GT$13from_residual17h5a044ec20e3f3531E
Ltmp1117:
	movq	%rdx, -216(%rbp)
	movq	%rax, -208(%rbp)
	jmp	LBB181_14
Ltmp1139:
LBB181_14:
	.loc	37 0 21
	movq	-216(%rbp), %rax
	movq	-208(%rbp), %rcx
	.loc	37 229 21
	movq	%rcx, -128(%rbp)
	movq	%rax, -120(%rbp)
Ltmp1140:
	.loc	37 232 5 is_stmt 1
	jmp	LBB181_9
Ltmp1141:
LBB181_15:
	.loc	37 221 5
	movq	-40(%rbp), %rdi
	callq	__Unwind_Resume
Ltmp1142:
LBB181_16:
	.loc	37 232 5
	jmp	LBB181_15
Ltmp1143:
Lfunc_end181:
	.cfi_endproc
	.section	__TEXT,__gcc_except_tab
	.p2align	2
GCC_except_table181:
Lexception28:
	.byte	255
	.byte	255
	.byte	1
	.uleb128 Lcst_end28-Lcst_begin28
Lcst_begin28:
	.uleb128 Ltmp1108-Lfunc_begin181
	.uleb128 Ltmp1117-Ltmp1108
	.uleb128 Ltmp1118-Lfunc_begin181
	.byte	0
	.uleb128 Ltmp1117-Lfunc_begin181
	.uleb128 Lfunc_end181-Ltmp1117
	.byte	0
	.byte	0
Lcst_end28:
	.p2align	2

	.section	__TEXT,__text,regular,pure_instructions
	.globl	__ZN4core4iter6traits8iterator8Iterator10take_while17h11d24cc559cbc5f9E
	.p2align	4, 0x90
__ZN4core4iter6traits8iterator8Iterator10take_while17h11d24cc559cbc5f9E:
Lfunc_begin182:
	.file	38 "/rustc/2c8cc343237b8f7d5a3c3703e3a87f2eb2c54a74/library/core/src/iter/traits" "iterator.rs"
	.loc	38 1210 0
	.cfi_startproc
	pushq	%rbp
	.cfi_def_cfa_offset 16
	.cfi_offset %rbp, -16
	movq	%rsp, %rbp
	.cfi_def_cfa_register %rbp
	subq	$32, %rsp
	movq	%rdi, %rax
	movq	%rax, -32(%rbp)
	movq	%rsi, -24(%rbp)
	movq	%rdx, -16(%rbp)
	movq	%rcx, -8(%rbp)
Ltmp1144:
	.loc	38 1215 9 prologue_end
	callq	__ZN4core4iter8adapters10take_while22TakeWhile$LT$I$C$P$GT$3new17he2a798fa6d5376eeE
	movq	-32(%rbp), %rax
	.loc	38 1216 6
	addq	$32, %rsp
	popq	%rbp
	retq
Ltmp1145:
Lfunc_end182:
	.cfi_endproc

	.globl	__ZN4core4iter6traits8iterator8Iterator10take_while17h42be02a75c5c0c0eE
	.p2align	4, 0x90
__ZN4core4iter6traits8iterator8Iterator10take_while17h42be02a75c5c0c0eE:
Lfunc_begin183:
	.loc	38 1210 0
	.cfi_startproc
	pushq	%rbp
	.cfi_def_cfa_offset 16
	.cfi_offset %rbp, -16
	movq	%rsp, %rbp
	.cfi_def_cfa_register %rbp
	subq	$32, %rsp
	movq	%rdi, %rax
	movq	%rax, -32(%rbp)
	movq	%rsi, -24(%rbp)
	movq	%rdx, -16(%rbp)
	movq	%rcx, -8(%rbp)
Ltmp1146:
	.loc	38 1215 9 prologue_end
	callq	__ZN4core4iter8adapters10take_while22TakeWhile$LT$I$C$P$GT$3new17h1ebe2ca1feca2ee8E
	movq	-32(%rbp), %rax
	.loc	38 1216 6
	addq	$32, %rsp
	popq	%rbp
	retq
Ltmp1147:
Lfunc_end183:
	.cfi_endproc

	.globl	__ZN4core4iter6traits8iterator8Iterator10take_while17h962a740110f5e79bE
	.p2align	4, 0x90
__ZN4core4iter6traits8iterator8Iterator10take_while17h962a740110f5e79bE:
Lfunc_begin184:
	.loc	38 1210 0
	.cfi_startproc
	pushq	%rbp
	.cfi_def_cfa_offset 16
	.cfi_offset %rbp, -16
	movq	%rsp, %rbp
	.cfi_def_cfa_register %rbp
	subq	$32, %rsp
	movq	%rdi, %rax
	movq	%rax, -32(%rbp)
	movq	%rsi, -24(%rbp)
	movq	%rdx, -16(%rbp)
Ltmp1148:
	.loc	38 1215 9 prologue_end
	callq	__ZN4core4iter8adapters10take_while22TakeWhile$LT$I$C$P$GT$3new17h8d6da911b3118b94E
	movq	-32(%rbp), %rax
	.loc	38 1216 6
	addq	$32, %rsp
	popq	%rbp
	retq
Ltmp1149:
Lfunc_end184:
	.cfi_endproc

	.globl	__ZN4core4iter6traits8iterator8Iterator10take_while17hd38ac22d251cc589E
	.p2align	4, 0x90
__ZN4core4iter6traits8iterator8Iterator10take_while17hd38ac22d251cc589E:
Lfunc_begin185:
	.loc	38 1210 0
	.cfi_startproc
	pushq	%rbp
	.cfi_def_cfa_offset 16
	.cfi_offset %rbp, -16
	movq	%rsp, %rbp
	.cfi_def_cfa_register %rbp
	subq	$32, %rsp
	movq	%rdi, %rax
	movq	%rax, -32(%rbp)
	movq	%rsi, -24(%rbp)
	movq	%rdx, -16(%rbp)
Ltmp1150:
	.loc	38 1215 9 prologue_end
	callq	__ZN4core4iter8adapters10take_while22TakeWhile$LT$I$C$P$GT$3new17h92d14f060b779e94E
	movq	-32(%rbp), %rax
	.loc	38 1216 6
	addq	$32, %rsp
	popq	%rbp
	retq
Ltmp1151:
Lfunc_end185:
	.cfi_endproc

	.globl	__ZN4core4iter6traits8iterator8Iterator3rev17h1378e610f6bdddb5E
	.p2align	4, 0x90
__ZN4core4iter6traits8iterator8Iterator3rev17h1378e610f6bdddb5E:
Lfunc_begin186:
	.loc	38 3179 0
	.cfi_startproc
	pushq	%rbp
	.cfi_def_cfa_offset 16
	.cfi_offset %rbp, -16
	movq	%rsp, %rbp
	.cfi_def_cfa_register %rbp
	subq	$16, %rsp
	movq	%rdi, -16(%rbp)
	movq	%rsi, -8(%rbp)
Ltmp1152:
	.loc	38 3183 9 prologue_end
	callq	__ZN4core4iter8adapters3rev12Rev$LT$T$GT$3new17h001baba1e823b6c6E
	.loc	38 3184 6
	addq	$16, %rsp
	popq	%rbp
	retq
Ltmp1153:
Lfunc_end186:
	.cfi_endproc

	.globl	__ZN4core4iter6traits8iterator8Iterator3rev17h1e2c9567c5c49a50E
	.p2align	4, 0x90
__ZN4core4iter6traits8iterator8Iterator3rev17h1e2c9567c5c49a50E:
Lfunc_begin187:
	.loc	38 3179 0
	.cfi_startproc
	pushq	%rbp
	.cfi_def_cfa_offset 16
	.cfi_offset %rbp, -16
	movq	%rsp, %rbp
	.cfi_def_cfa_register %rbp
	subq	$16, %rsp
	movq	%rdi, -16(%rbp)
	movq	%rsi, -8(%rbp)
Ltmp1154:
	.loc	38 3183 9 prologue_end
	callq	__ZN4core4iter8adapters3rev12Rev$LT$T$GT$3new17he6f05b592a583260E
	.loc	38 3184 6
	addq	$16, %rsp
	popq	%rbp
	retq
Ltmp1155:
Lfunc_end187:
	.cfi_endproc

	.globl	__ZN4core4iter6traits8iterator8Iterator3rev17h4c3ef1f98b1e5944E
