	.section	__TEXT,__text,regular,pure_instructions
	.macosx_version_min 10, 7
	.file	1 "/rustc/2c8cc343237b8f7d5a3c3703e3a87f2eb2c54a74/library/std/src/thread" "local.rs"
	.globl	__ZN106_$LT$core..ops..range..Range$LT$usize$GT$$u20$as$u20$core..slice..index..SliceIndex$LT$$u5b$T$u5d$$GT$$GT$9index_mut17h00fe2014f4ff70c4E
	.p2align	4, 0x90
__ZN106_$LT$core..ops..range..Range$LT$usize$GT$$u20$as$u20$core..slice..index..SliceIndex$LT$$u5b$T$u5d$$GT$$GT$9index_mut17h00fe2014f4ff70c4E:
Lfunc_begin0:
	.file	2 "/rustc/2c8cc343237b8f7d5a3c3703e3a87f2eb2c54a74/library/core/src/slice" "index.rs"
	.loc	2 416 0
	.cfi_startproc
	pushq	%rbp
	.cfi_def_cfa_offset 16
	.cfi_offset %rbp, -16
	movq	%rsp, %rbp
	.cfi_def_cfa_register %rbp
	subq	$80, %rsp
	movq	%rdi, -72(%rbp)
	movq	%rsi, -64(%rbp)
	movq	%rdx, -56(%rbp)
	movq	%rcx, -48(%rbp)
	movq	%r8, -40(%rbp)
	movq	%rdi, -32(%rbp)
	movq	%rsi, -24(%rbp)
	movq	%rdx, -16(%rbp)
	movq	%rcx, -8(%rbp)
Ltmp0:
	.loc	2 417 12 prologue_end
	cmpq	%rsi, %rdi
	ja	LBB0_2
	.loc	2 0 12 is_stmt 0
	movq	-64(%rbp), %rax
	movq	-48(%rbp), %rcx
	.loc	2 419 19 is_stmt 1
	cmpq	%rcx, %rax
	ja	LBB0_4
	jmp	LBB0_3
LBB0_2:
	.loc	2 0 19 is_stmt 0
	movq	-40(%rbp), %rdx
	movq	-64(%rbp), %rsi
	movq	-72(%rbp), %rdi
	.loc	2 418 13 is_stmt 1
	callq	__ZN4core5slice5index22slice_index_order_fail17h0d8f800a07d5f26eE
LBB0_3:
	.loc	2 0 13 is_stmt 0
	movq	-48(%rbp), %rcx
	movq	-56(%rbp), %rdx
	movq	-64(%rbp), %rsi
	movq	-72(%rbp), %rdi
	.loc	2 423 24 is_stmt 1
	callq	__ZN106_$LT$core..ops..range..Range$LT$usize$GT$$u20$as$u20$core..slice..index..SliceIndex$LT$$u5b$T$u5d$$GT$$GT$17get_unchecked_mut17hc0bd031a82140048E
	.loc	2 424 6
	addq	$80, %rsp
	popq	%rbp
	retq
LBB0_4:
	.loc	2 0 6 is_stmt 0
	movq	-40(%rbp), %rdx
	movq	-48(%rbp), %rsi
	movq	-64(%rbp), %rdi
	.loc	2 420 13 is_stmt 1
	callq	__ZN4core5slice5index24slice_end_index_len_fail17hc921cb2f1513645aE
Ltmp1:
Lfunc_end0:
	.cfi_endproc

	.globl	__ZN110_$LT$core..ops..range..RangeFrom$LT$usize$GT$$u20$as$u20$core..slice..index..SliceIndex$LT$$u5b$T$u5d$$GT$$GT$5index17h307825e20ec5e290E
	.p2align	4, 0x90
__ZN110_$LT$core..ops..range..RangeFrom$LT$usize$GT$$u20$as$u20$core..slice..index..SliceIndex$LT$$u5b$T$u5d$$GT$$GT$5index17h307825e20ec5e290E:
Lfunc_begin1:
	.loc	2 493 0
	.cfi_startproc
	pushq	%rbp
	.cfi_def_cfa_offset 16
	.cfi_offset %rbp, -16
	movq	%rsp, %rbp
	.cfi_def_cfa_register %rbp
	subq	$144, %rsp
	movq	%rdi, -144(%rbp)
	movq	%rsi, -136(%rbp)
	movq	%rdx, -128(%rbp)
	movq	%rcx, -120(%rbp)
	movq	%rdi, -80(%rbp)
	movq	%rsi, -72(%rbp)
	movq	%rdx, -64(%rbp)
Ltmp2:
	.loc	2 494 12 prologue_end
	cmpq	%rdx, %rdi
	ja	LBB1_2
	.loc	2 0 12 is_stmt 0
	movq	-128(%rbp), %rcx
	movq	-136(%rbp), %rdx
	movq	-144(%rbp), %rsi
	.loc	2 498 20 is_stmt 1
	movq	%rsi, -56(%rbp)
	.loc	2 498 39 is_stmt 0
	movq	%rdx, -48(%rbp)
	movq	%rcx, -40(%rbp)
Ltmp3:
	.loc	2 483 31 is_stmt 1
	movq	%rdx, -32(%rbp)
	movq	%rcx, -24(%rbp)
Ltmp4:
	.file	3 "/rustc/2c8cc343237b8f7d5a3c3703e3a87f2eb2c54a74/library/core/src/ptr" "const_ptr.rs"
	.loc	3 1630 18
	movq	%rdx, -16(%rbp)
	movq	%rcx, -8(%rbp)
Ltmp5:
	.file	4 "/rustc/2c8cc343237b8f7d5a3c3703e3a87f2eb2c54a74/library/core/src/ptr" "metadata.rs"
	.loc	4 98 14
	movq	%rdx, -96(%rbp)
	movq	%rcx, -88(%rbp)
	movq	-88(%rbp), %rax
Ltmp6:
	.loc	2 483 18
	movq	%rsi, -112(%rbp)
	movq	%rax, -104(%rbp)
	movq	-112(%rbp), %rdi
	movq	-104(%rbp), %rsi
	callq	__ZN106_$LT$core..ops..range..Range$LT$usize$GT$$u20$as$u20$core..slice..index..SliceIndex$LT$$u5b$T$u5d$$GT$$GT$13get_unchecked17h94cfdd5354f8ee24E
Ltmp7:
	.loc	2 499 6
	addq	$144, %rsp
	popq	%rbp
	retq
LBB1_2:
	.loc	2 0 6 is_stmt 0
	movq	-120(%rbp), %rdx
	movq	-128(%rbp), %rsi
	movq	-144(%rbp), %rdi
	.loc	2 495 13 is_stmt 1
	callq	__ZN4core5slice5index26slice_start_index_len_fail17h9d301bb51ec3e351E
Ltmp8:
Lfunc_end1:
	.cfi_endproc

	.globl	__ZN115_$LT$core..panic..unwind_safe..AssertUnwindSafe$LT$F$GT$$u20$as$u20$core..ops..function..FnOnce$LT$$LP$$RP$$GT$$GT$9call_once17h1ee7115318c5dc9eE
	.p2align	4, 0x90
__ZN115_$LT$core..panic..unwind_safe..AssertUnwindSafe$LT$F$GT$$u20$as$u20$core..ops..function..FnOnce$LT$$LP$$RP$$GT$$GT$9call_once17h1ee7115318c5dc9eE:
Lfunc_begin2:
	.file	5 "/rustc/2c8cc343237b8f7d5a3c3703e3a87f2eb2c54a74/library/core/src/panic" "unwind_safe.rs"
	.loc	5 270 0
	.cfi_startproc
	pushq	%rbp
	.cfi_def_cfa_offset 16
	.cfi_offset %rbp, -16
	movq	%rsp, %rbp
	.cfi_def_cfa_register %rbp
	subq	$16, %rsp
	movq	%rdi, -8(%rbp)
Ltmp9:
	.loc	5 271 9 prologue_end
	callq	__ZN4core3ops8function6FnOnce9call_once17h13fff34977ff5004E
	.loc	5 272 6
	addq	$16, %rsp
	popq	%rbp
	retq
Ltmp10:
Lfunc_end2:
	.cfi_endproc

	.globl	__ZN3std2io5Write9write_all17h71baec18c6d9256fE
	.p2align	4, 0x90
__ZN3std2io5Write9write_all17h71baec18c6d9256fE:
Lfunc_begin3:
	.file	6 "/rustc/2c8cc343237b8f7d5a3c3703e3a87f2eb2c54a74/library/std/src/io" "mod.rs"
	.loc	6 1540 0
	.cfi_startproc
	.cfi_personality 155, _rust_eh_personality
	.cfi_lsda 16, Lexception0
	pushq	%rbp
	.cfi_def_cfa_offset 16
	.cfi_offset %rbp, -16
	movq	%rsp, %rbp
	.cfi_def_cfa_register %rbp
	subq	$256, %rsp
	movq	%rdi, -232(%rbp)
	movq	%rsi, -224(%rbp)
	movq	%rdx, -216(%rbp)
	movq	%rdi, -136(%rbp)
LBB3_1:
Ltmp19:
	.loc	6 1541 16 prologue_end
	movq	-224(%rbp), %rcx
	movq	-216(%rbp), %rax
	movq	%rcx, -128(%rbp)
	movq	%rax, -120(%rbp)
Ltmp20:
	.file	7 "/rustc/2c8cc343237b8f7d5a3c3703e3a87f2eb2c54a74/library/core/src/slice" "mod.rs"
	.loc	7 153 9
	cmpq	$0, %rax
	sete	%al
Ltmp21:
	.loc	6 1541 15
	xorb	$-1, %al
	testb	$1, %al
	jne	LBB3_3
	.loc	6 1554 9
	movq	$0, -208(%rbp)
	.loc	6 1555 6
	jmp	LBB3_23
LBB3_3:
	.loc	6 0 6 is_stmt 0
	movq	-232(%rbp), %rsi
	.loc	6 1542 30 is_stmt 1
	movq	-224(%rbp), %rdx
	movq	-216(%rbp), %rcx
	.loc	6 1542 19 is_stmt 0
	leaq	-200(%rbp), %rdi
	callq	__ZN64_$LT$std..sys..unix..stdio..Stderr$u20$as$u20$std..io..Write$GT$5write17hfeaf20e5669f7ee8E
	.loc	6 1542 13
	cmpq	$0, -200(%rbp)
	jne	LBB3_5
	cmpq	$0, -192(%rbp)
	je	LBB3_13
	jmp	LBB3_14
LBB3_5:
	.loc	6 1550 21 is_stmt 1
	leaq	-192(%rbp), %rax
	movq	%rax, -168(%rbp)
	leaq	-168(%rbp), %rax
	movq	%rax, -112(%rbp)
	.loc	6 1550 31 is_stmt 0
	movq	-168(%rbp), %rdi
Ltmp11:
	callq	__ZN3std2io5error5Error4kind17h09189597876dc4a6E
Ltmp12:
	movb	%al, -233(%rbp)
	jmp	LBB3_8
LBB3_6:
	.loc	6 1553 9 is_stmt 1
	cmpq	$1, -200(%rbp)
	je	LBB3_16
	jmp	LBB3_17
LBB3_7:
Ltmp15:
	.loc	6 0 9 is_stmt 0
	movq	%rax, %rcx
	movl	%edx, %eax
	movq	%rcx, -104(%rbp)
	movl	%eax, -96(%rbp)
	jmp	LBB3_6
LBB3_8:
	movb	-233(%rbp), %al
	.loc	6 1550 31 is_stmt 1
	movb	%al, -153(%rbp)
	leaq	-153(%rbp), %rax
	movq	%rax, -88(%rbp)
	.loc	6 1550 43 is_stmt 0
	leaq	l___unnamed_6(%rip), %rax
	movq	%rax, -80(%rbp)
Ltmp22:
	.file	8 "/rustc/2c8cc343237b8f7d5a3c3703e3a87f2eb2c54a74/library/std/src/io" "error.rs"
	.loc	8 165 45 is_stmt 1
	movzbl	-153(%rbp), %eax
	movq	%rax, -72(%rbp)
Ltmp23:
	.loc	8 165 45 is_stmt 0
	movzbl	l___unnamed_6(%rip), %ecx
	movq	%rcx, -64(%rbp)
Ltmp24:
	.loc	8 165 45
	cmpq	%rcx, %rax
Ltmp25:
	.loc	6 1550 31 is_stmt 1
	je	LBB3_10
	.loc	6 1551 21
	movq	-192(%rbp), %rax
	movq	%rax, -56(%rbp)
Ltmp26:
	.loc	6 1551 34 is_stmt 0
	movq	%rax, -208(%rbp)
Ltmp27:
	.file	9 "/Users/natalie/.cargo/registry/src/github.com-1ecc6299db9ec823/nanorand-0.7.0" "src/lib.rs"
	.loc	9 1 1 is_stmt 1
	jmp	LBB3_12
LBB3_10:
	.loc	6 1550 70
	jmp	LBB3_11
LBB3_11:
	.loc	6 1553 9
	cmpq	$1, -200(%rbp)
	je	LBB3_20
	jmp	LBB3_21
LBB3_12:
	.loc	6 1555 6
	jmp	LBB3_23
LBB3_13:
	.loc	6 1544 32
	leaq	l___unnamed_7(%rip), %rax
	movq	%rax, -24(%rbp)
Ltmp28:
	.loc	8 554 47
	leaq	l___unnamed_7(%rip), %rax
	movq	%rax, -16(%rbp)
Ltmp29:
	.file	10 "/rustc/2c8cc343237b8f7d5a3c3703e3a87f2eb2c54a74/library/std/src/io/error" "repr_bitpacked.rs"
	.loc	10 206 46
	leaq	l___unnamed_7(%rip), %rax
	movq	%rax, -8(%rbp)
Ltmp30:
	.file	11 "/rustc/2c8cc343237b8f7d5a3c3703e3a87f2eb2c54a74/library/core/src/ptr" "non_null.rs"
	.loc	11 201 13
	leaq	l___unnamed_7(%rip), %rax
	movq	%rax, -144(%rbp)
Ltmp31:
	.loc	10 206 9
	movq	-144(%rbp), %rax
	movq	%rax, -152(%rbp)
Ltmp32:
	.loc	8 554 9
	movq	-152(%rbp), %rax
	movq	%rax, -184(%rbp)
Ltmp33:
	.loc	6 1544 28
	movq	-184(%rbp), %rax
	movq	%rax, -208(%rbp)
	.loc	9 1 1
	jmp	LBB3_12
LBB3_14:
	.loc	6 1549 20
	movq	-192(%rbp), %rax
	movq	%rax, -48(%rbp)
Ltmp34:
	.loc	6 1549 33 is_stmt 0
	movq	-224(%rbp), %rsi
	movq	-216(%rbp), %rdx
	movq	%rsi, -40(%rbp)
	movq	%rdx, -32(%rbp)
	.loc	6 1549 37
	movq	%rax, -176(%rbp)
Ltmp35:
	.loc	2 18 9 is_stmt 1
	movq	-176(%rbp), %rdi
Ltmp13:
	leaq	l___unnamed_8(%rip), %rcx
	callq	__ZN110_$LT$core..ops..range..RangeFrom$LT$usize$GT$$u20$as$u20$core..slice..index..SliceIndex$LT$$u5b$T$u5d$$GT$$GT$5index17h307825e20ec5e290E
Ltmp14:
	movq	%rdx, -256(%rbp)
	movq	%rax, -248(%rbp)
	jmp	LBB3_15
Ltmp36:
LBB3_15:
	.loc	2 0 9 is_stmt 0
	movq	-256(%rbp), %rax
	movq	-248(%rbp), %rcx
	.loc	6 1549 26 is_stmt 1
	movq	%rcx, -224(%rbp)
	movq	%rax, -216(%rbp)
Ltmp37:
	.loc	6 1549 40 is_stmt 0
	jmp	LBB3_11
LBB3_16:
	.loc	6 1553 9 is_stmt 1
	movb	$1, %al
	testb	$1, %al
	jne	LBB3_18
	jmp	LBB3_17
LBB3_17:
	.loc	6 1540 5
	movq	-104(%rbp), %rdi
	callq	__Unwind_Resume
LBB3_18:
	.loc	6 1553 9
	leaq	-192(%rbp), %rdi
Ltmp16:
	callq	__ZN4core3ptr42drop_in_place$LT$std..io..error..Error$GT$17h38c48215befce37cE
Ltmp17:
	jmp	LBB3_17
LBB3_19:
Ltmp18:
	.loc	6 1540 5
	callq	__ZN4core9panicking19panic_cannot_unwind17h1fbca7e1d7f56ae1E
LBB3_20:
	.loc	6 1553 9
	movb	$1, %al
	testb	$1, %al
	jne	LBB3_22
	jmp	LBB3_21
LBB3_21:
	.loc	6 1541 9
	jmp	LBB3_1
LBB3_22:
	.loc	6 1553 9
	leaq	-200(%rbp), %rdi
	addq	$8, %rdi
	callq	__ZN4core3ptr42drop_in_place$LT$std..io..error..Error$GT$17h38c48215befce37cE
	jmp	LBB3_21
LBB3_23:
	.loc	6 1555 6
	movq	-208(%rbp), %rax
	addq	$256, %rsp
	popq	%rbp
	retq
Ltmp38:
Lfunc_end3:
	.cfi_endproc
	.section	__TEXT,__gcc_except_tab
	.p2align	2
GCC_except_table3:
Lexception0:
	.byte	255
	.byte	255
	.byte	1
	.uleb128 Lcst_end0-Lcst_begin0
Lcst_begin0:
	.uleb128 Lfunc_begin3-Lfunc_begin3
	.uleb128 Ltmp11-Lfunc_begin3
	.byte	0
	.byte	0
	.uleb128 Ltmp11-Lfunc_begin3
	.uleb128 Ltmp14-Ltmp11
	.uleb128 Ltmp15-Lfunc_begin3
	.byte	0
	.uleb128 Ltmp14-Lfunc_begin3
	.uleb128 Ltmp16-Ltmp14
	.byte	0
	.byte	0
	.uleb128 Ltmp16-Lfunc_begin3
	.uleb128 Ltmp17-Ltmp16
	.uleb128 Ltmp18-Lfunc_begin3
	.byte	0
	.uleb128 Ltmp17-Lfunc_begin3
	.uleb128 Lfunc_end3-Ltmp17
	.byte	0
	.byte	0
Lcst_end0:
	.p2align	2

	.section	__TEXT,__text,regular,pure_instructions
	.globl	__ZN3std2io5Write9write_fmt17h18ee24e90bf0984fE
	.p2align	4, 0x90
__ZN3std2io5Write9write_fmt17h18ee24e90bf0984fE:
Lfunc_begin4:
	.loc	6 1661 0
	.cfi_startproc
	.cfi_personality 155, _rust_eh_personality
	.cfi_lsda 16, Lexception1
	pushq	%rbp
	.cfi_def_cfa_offset 16
	.cfi_offset %rbp, -16
	movq	%rsp, %rbp
	.cfi_def_cfa_register %rbp
	subq	$192, %rsp
	movq	%rdi, -64(%rbp)
Ltmp45:
	.loc	6 1681 56 prologue_end
	movq	$0, -160(%rbp)
	.loc	6 1681 26 is_stmt 0
	movb	$1, -82(%rbp)
	movq	%rdi, -168(%rbp)
	movq	-160(%rbp), %rax
	movq	%rax, -176(%rbp)
Ltmp46:
	.loc	6 1682 39 is_stmt 1
	movq	40(%rsi), %rax
	movq	%rax, -104(%rbp)
	movq	32(%rsi), %rax
	movq	%rax, -112(%rbp)
	movq	24(%rsi), %rax
	movq	%rax, -120(%rbp)
	movq	16(%rsi), %rax
	movq	%rax, -128(%rbp)
	movq	(%rsi), %rax
	movq	8(%rsi), %rcx
	movq	%rcx, -136(%rbp)
	movq	%rax, -144(%rbp)
Ltmp39:
	.loc	6 1682 15 is_stmt 0
	leaq	l___unnamed_1(%rip), %rsi
Ltmp47:
	.loc	6 0 15
	leaq	-176(%rbp), %rdi
	leaq	-144(%rbp), %rdx
	.loc	6 1682 15
	callq	__ZN4core3fmt5write17hfa389e524187f2c6E
Ltmp40:
	movb	%al, -185(%rbp)
	jmp	LBB4_3
Ltmp48:
LBB4_1:
Ltmp42:
	.loc	6 0 15
	leaq	-176(%rbp), %rdi
	.loc	6 1693 5 is_stmt 1
	callq	__ZN4core3ptr92drop_in_place$LT$std..io..Write..write_fmt..Adapter$LT$std..sys..unix..stdio..Stderr$GT$$GT$17hde05be730f61b75eE
Ltmp43:
	jmp	LBB4_5
Ltmp49:
LBB4_2:
Ltmp41:
	.loc	6 0 5 is_stmt 0
	movq	%rax, %rcx
	movl	%edx, %eax
	movq	%rcx, -56(%rbp)
	movl	%eax, -48(%rbp)
	jmp	LBB4_1
Ltmp50:
LBB4_3:
	movb	-185(%rbp), %al
Ltmp51:
	.loc	6 1682 15 is_stmt 1
	andb	$1, %al
	movb	%al, -145(%rbp)
	movb	-145(%rbp), %al
	andb	$1, %al
	movzbl	%al, %eax
	.loc	6 1682 9 is_stmt 0
	cmpq	$0, %rax
	je	LBB4_6
	jmp	LBB4_7
Ltmp52:
LBB4_4:
Ltmp44:
	.loc	6 1661 5 is_stmt 1
	callq	__ZN4core9panicking19panic_cannot_unwind17h1fbca7e1d7f56ae1E
Ltmp53:
LBB4_5:
	movq	-56(%rbp), %rdi
	callq	__Unwind_Resume
Ltmp54:
LBB4_6:
	.loc	6 1683 23
	movq	$0, -184(%rbp)
	.loc	6 1683 28 is_stmt 0
	jmp	LBB4_14
Ltmp55:
LBB4_7:
	.loc	6 1686 20 is_stmt 1
	leaq	-176(%rbp), %rax
	movq	%rax, -40(%rbp)
Ltmp56:
	.file	12 "/rustc/2c8cc343237b8f7d5a3c3703e3a87f2eb2c54a74/library/core/src" "result.rs"
	.loc	12 589 10
	leaq	-176(%rbp), %rax
	movq	%rax, -32(%rbp)
Ltmp57:
	.loc	12 542 18
	movq	-176(%rbp), %rdx
	movl	$1, %eax
	xorl	%ecx, %ecx
	cmpq	$0, %rdx
	cmoveq	%rcx, %rax
	.file	13 "/rustc/2c8cc343237b8f7d5a3c3703e3a87f2eb2c54a74/library/core/src/macros" "mod.rs"
	.loc	13 344 9
	cmpq	$0, %rax
	jne	LBB4_9
Ltmp58:
	.loc	13 345 48
	movb	$1, -81(%rbp)
	jmp	LBB4_10
Ltmp59:
LBB4_9:
	.loc	13 346 18
	movb	$0, -81(%rbp)
Ltmp60:
LBB4_10:
	.loc	12 589 9
	movb	-81(%rbp), %al
	xorb	$-1, %al
Ltmp61:
	.loc	6 1686 20
	testb	$1, %al
	jne	LBB4_12
Ltmp62:
	.loc	6 1689 25
	leaq	l___unnamed_9(%rip), %rax
	movq	%rax, -24(%rbp)
Ltmp63:
	.loc	8 554 47
	leaq	l___unnamed_9(%rip), %rax
	movq	%rax, -16(%rbp)
Ltmp64:
	.loc	10 206 46
	leaq	l___unnamed_9(%rip), %rax
	movq	%rax, -8(%rbp)
Ltmp65:
	.loc	11 201 13
	leaq	l___unnamed_9(%rip), %rax
	movq	%rax, -72(%rbp)
Ltmp66:
	.loc	10 206 9
	movq	-72(%rbp), %rax
	movq	%rax, -80(%rbp)
Ltmp67:
	.loc	8 554 9
	movq	-80(%rbp), %rax
	movq	%rax, -96(%rbp)
Ltmp68:
	.loc	6 1689 21
	movq	-96(%rbp), %rax
	movq	%rax, -184(%rbp)
	.loc	6 1686 17
	jmp	LBB4_13
Ltmp69:
LBB4_12:
	.loc	6 1687 21
	movb	$0, -82(%rbp)
	movq	-176(%rbp), %rax
	movq	%rax, -184(%rbp)
Ltmp70:
LBB4_13:
	.loc	6 1690 17
	jmp	LBB4_14
Ltmp71:
LBB4_14:
	.loc	6 1693 5
	testb	$1, -82(%rbp)
	jne	LBB4_16
Ltmp72:
LBB4_15:
	.loc	6 1693 6 is_stmt 0
	movq	-184(%rbp), %rax
	addq	$192, %rsp
	popq	%rbp
	retq
Ltmp73:
LBB4_16:
	.loc	6 1693 5
	leaq	-176(%rbp), %rdi
	callq	__ZN4core3ptr81drop_in_place$LT$core..result..Result$LT$$LP$$RP$$C$std..io..error..Error$GT$$GT$17he2794a278bf7605eE
	jmp	LBB4_15
Ltmp74:
Lfunc_end4:
	.cfi_endproc
	.section	__TEXT,__gcc_except_tab
	.p2align	2
GCC_except_table4:
Lexception1:
	.byte	255
	.byte	255
	.byte	1
	.uleb128 Lcst_end1-Lcst_begin1
Lcst_begin1:
	.uleb128 Ltmp39-Lfunc_begin4
	.uleb128 Ltmp40-Ltmp39
	.uleb128 Ltmp41-Lfunc_begin4
	.byte	0
	.uleb128 Ltmp42-Lfunc_begin4
	.uleb128 Ltmp43-Ltmp42
	.uleb128 Ltmp44-Lfunc_begin4
	.byte	0
	.uleb128 Ltmp43-Lfunc_begin4
	.uleb128 Lfunc_end4-Ltmp43
	.byte	0
	.byte	0
Lcst_end1:
	.p2align	2

	.section	__TEXT,__text,regular,pure_instructions
	.globl	__ZN3std2io5error14repr_bitpacked11decode_repr17h5d074d7dd2f01be1E
	.p2align	4, 0x90
__ZN3std2io5error14repr_bitpacked11decode_repr17h5d074d7dd2f01be1E:
Lfunc_begin5:
	.loc	10 246 0 is_stmt 1
	.cfi_startproc
	.cfi_personality 155, _rust_eh_personality
	.cfi_lsda 16, Lexception2
	pushq	%rbp
	.cfi_def_cfa_offset 16
	.cfi_offset %rbp, -16
	movq	%rsp, %rbp
	.cfi_def_cfa_register %rbp
	subq	$320, %rsp
	movq	%rsi, -272(%rbp)
	movq	%rdi, -264(%rbp)
	movq	%rdi, -256(%rbp)
	movq	%rsi, -184(%rbp)
Ltmp84:
	.loc	10 250 9 prologue_end
	movb	$1, -201(%rbp)
	.loc	10 250 16 is_stmt 0
	movq	%rsi, -160(%rbp)
Ltmp85:
	.loc	11 326 9 is_stmt 1
	movq	%rsi, -152(%rbp)
Ltmp86:
	.file	14 "/rustc/2c8cc343237b8f7d5a3c3703e3a87f2eb2c54a74/library/core/src/ptr" "mut_ptr.rs"
	.loc	14 215 33
	movq	%rsi, -144(%rbp)
	.loc	14 215 18 is_stmt 0
	movq	%rsi, -248(%rbp)
Ltmp87:
	.loc	10 251 11 is_stmt 1
	movq	-248(%rbp), %rax
	andl	$3, %eax
	movq	%rax, -280(%rbp)
	.loc	10 251 5 is_stmt 0
	subq	$3, %rax
	ja	LBB5_2
	.loc	10 0 5
	movq	-280(%rbp), %rax
	leaq	LJTI5_0(%rip), %rcx
	movslq	(%rcx,%rax,4), %rax
	addq	%rcx, %rax
	jmpq	*%rax
LBB5_2:
Ltmp81:
	.loc	10 280 13 is_stmt 1
	leaq	l___unnamed_10(%rip), %rdi
	leaq	l___unnamed_11(%rip), %rdx
	movl	$40, %esi
	callq	__ZN4core9panicking5panic17hc1bc45270cf64b03E
Ltmp82:
	jmp	LBB5_9
LBB5_3:
	.loc	10 0 13 is_stmt 0
	movq	-264(%rbp), %rax
	.loc	10 253 26 is_stmt 1
	movq	-248(%rbp), %rcx
	.loc	10 253 24 is_stmt 0
	sarq	$32, %rcx
	movl	%ecx, -4(%rbp)
Ltmp88:
	.loc	10 254 13 is_stmt 1
	movl	%ecx, 4(%rax)
	movb	$0, (%rax)
Ltmp89:
	.loc	10 255 9
	jmp	LBB5_12
LBB5_4:
	.loc	10 257 30
	movl	-244(%rbp), %edi
	.loc	10 257 29 is_stmt 0
	movl	%edi, -12(%rbp)
Ltmp77:
Ltmp90:
	.loc	10 258 24 is_stmt 1
	callq	__ZN3std2io5error14repr_bitpacked14kind_from_prim17h5b1ffe9bd0a3f135E
Ltmp78:
	movb	%al, -281(%rbp)
	jmp	LBB5_13
Ltmp91:
LBB5_5:
	.loc	10 0 24 is_stmt 0
	movq	-264(%rbp), %rax
	movq	-272(%rbp), %rcx
	.loc	10 270 58 is_stmt 1
	movq	%rcx, -40(%rbp)
Ltmp92:
	.loc	11 450 41
	movq	%rcx, -32(%rbp)
	movq	%rcx, -24(%rbp)
Ltmp93:
	.loc	11 201 13
	movq	%rcx, -224(%rbp)
Ltmp94:
	.loc	11 326 9
	movq	-224(%rbp), %rcx
Ltmp95:
	.loc	10 270 31
	movq	%rcx, 8(%rax)
	movb	$2, (%rax)
	.loc	10 270 94 is_stmt 0
	jmp	LBB5_12
LBB5_6:
	.loc	10 0 94
	movq	-272(%rbp), %rax
	.loc	10 275 26 is_stmt 1
	movq	%rax, -120(%rbp)
Ltmp96:
	.loc	11 326 9
	movq	%rax, -112(%rbp)
Ltmp97:
	.loc	14 1300 9
	movq	%rax, -104(%rbp)
Ltmp98:
	.loc	14 60 9
	movq	%rax, -96(%rbp)
Ltmp99:
	.loc	14 1282 9
	movq	%rax, -88(%rbp)
Ltmp100:
	.loc	14 568 18
	addq	$-1, %rax
	movq	%rax, -80(%rbp)
	movq	-80(%rbp), %rax
	movq	%rax, -296(%rbp)
	jmp	LBB5_10
Ltmp101:
LBB5_7:
	.loc	10 283 1
	testb	$1, -201(%rbp)
	jne	LBB5_19
	jmp	LBB5_18
LBB5_8:
Ltmp83:
	.loc	10 0 1 is_stmt 0
	movq	%rax, %rcx
	movl	%edx, %eax
	movq	%rcx, -136(%rbp)
	movl	%eax, -128(%rbp)
	jmp	LBB5_7
LBB5_9:
	ud2
LBB5_10:
	movq	-296(%rbp), %rax
Ltmp102:
	.loc	14 568 18 is_stmt 1
	movq	%rax, -72(%rbp)
Ltmp103:
	.loc	14 99 33
	movq	%rax, -64(%rbp)
Ltmp104:
	.loc	4 135 36
	movq	%rax, -192(%rbp)
	.loc	4 135 14 is_stmt 0
	movq	-192(%rbp), %rax
	movq	%rax, -200(%rbp)
	movq	-200(%rbp), %rax
	movq	%rax, -56(%rbp)
Ltmp105:
	.loc	14 60 9 is_stmt 1
	movq	%rax, -48(%rbp)
Ltmp106:
	.loc	10 276 31
	movb	$0, -201(%rbp)
	movq	%rax, -216(%rbp)
	movq	-216(%rbp), %rdi
Ltmp75:
	callq	__ZN3std2io5error14repr_bitpacked4Repr4data28_$u7b$$u7b$closure$u7d$$u7d$17h464b36b04a71cfa9E
Ltmp76:
	movq	%rax, -304(%rbp)
	jmp	LBB5_11
LBB5_11:
	.loc	10 0 31 is_stmt 0
	movq	-264(%rbp), %rax
	movq	-304(%rbp), %rcx
	.loc	10 276 13
	movq	%rcx, 8(%rax)
	movb	$3, (%rax)
Ltmp107:
LBB5_12:
	.loc	10 283 1 is_stmt 1
	testb	$1, -201(%rbp)
	jne	LBB5_21
	jmp	LBB5_20
LBB5_13:
	.loc	10 0 1 is_stmt 0
	movb	-281(%rbp), %al
Ltmp108:
	.loc	10 258 24 is_stmt 1
	movb	%al, -233(%rbp)
	.loc	10 258 65 is_stmt 0
	leaq	-248(%rbp), %rax
	movq	%rax, -232(%rbp)
Ltmp109:
	.file	15 "/rustc/2c8cc343237b8f7d5a3c3703e3a87f2eb2c54a74/library/core/src" "option.rs"
	.loc	15 871 15 is_stmt 1
	movl	$1, %eax
	xorl	%ecx, %ecx
	cmpb	$41, -233(%rbp)
	cmoveq	%rcx, %rax
	.loc	15 871 9 is_stmt 0
	cmpq	$0, %rax
	jne	LBB5_15
	.loc	15 873 21 is_stmt 1
	movq	-232(%rbp), %rdi
Ltmp79:
	callq	__ZN3std2io5error14repr_bitpacked11decode_repr28_$u7b$$u7b$closure$u7d$$u7d$17hb1d4365fb656ae1dE
Ltmp80:
	movb	%al, -305(%rbp)
	jmp	LBB5_17
LBB5_15:
	.loc	15 872 18
	movb	-233(%rbp), %al
	movb	%al, -5(%rbp)
Ltmp110:
	.loc	15 872 24 is_stmt 0
	movb	%al, -234(%rbp)
Ltmp111:
LBB5_16:
	.loc	15 0 24
	movq	-264(%rbp), %rax
Ltmp112:
	.loc	10 268 31 is_stmt 1
	movb	-234(%rbp), %cl
	.loc	10 268 13 is_stmt 0
	movb	%cl, 1(%rax)
	movb	$1, (%rax)
Ltmp113:
	.loc	10 269 9 is_stmt 1
	jmp	LBB5_12
LBB5_17:
	.loc	10 0 9 is_stmt 0
	movb	-305(%rbp), %al
Ltmp114:
	.loc	15 873 21 is_stmt 1
	movb	%al, -234(%rbp)
	.loc	15 873 23 is_stmt 0
	jmp	LBB5_16
Ltmp115:
LBB5_18:
	.loc	10 246 1 is_stmt 1
	movq	-136(%rbp), %rdi
	callq	__Unwind_Resume
LBB5_19:
	.loc	10 283 1
	jmp	LBB5_18
LBB5_20:
	.loc	10 0 1 is_stmt 0
	movq	-256(%rbp), %rax
	.loc	10 283 2
	addq	$320, %rsp
	popq	%rbp
	retq
LBB5_21:
	.loc	10 283 1
	jmp	LBB5_20
Ltmp116:
Lfunc_end5:
	.cfi_endproc
	.p2align	2, 0x90
	.data_region jt32
.set L5_0_set_5, LBB5_5-LJTI5_0
.set L5_0_set_6, LBB5_6-LJTI5_0
.set L5_0_set_3, LBB5_3-LJTI5_0
.set L5_0_set_4, LBB5_4-LJTI5_0
LJTI5_0:
	.long	L5_0_set_5
	.long	L5_0_set_6
	.long	L5_0_set_3
	.long	L5_0_set_4
	.end_data_region
	.section	__TEXT,__gcc_except_tab
	.p2align	2
GCC_except_table5:
Lexception2:
	.byte	255
	.byte	255
	.byte	1
	.uleb128 Lcst_end2-Lcst_begin2
Lcst_begin2:
	.uleb128 Ltmp81-Lfunc_begin5
	.uleb128 Ltmp80-Ltmp81
	.uleb128 Ltmp83-Lfunc_begin5
	.byte	0
	.uleb128 Ltmp80-Lfunc_begin5
	.uleb128 Lfunc_end5-Ltmp80
	.byte	0
	.byte	0
Lcst_end2:
	.p2align	2

	.section	__TEXT,__text,regular,pure_instructions
	.globl	__ZN3std2io5error14repr_bitpacked11decode_repr17hd4d9c3fa4384b4d3E
	.p2align	4, 0x90
__ZN3std2io5error14repr_bitpacked11decode_repr17hd4d9c3fa4384b4d3E:
Lfunc_begin6:
	.loc	10 246 0 is_stmt 1
	.cfi_startproc
	.cfi_personality 155, _rust_eh_personality
	.cfi_lsda 16, Lexception3
	pushq	%rbp
	.cfi_def_cfa_offset 16
	.cfi_offset %rbp, -16
	movq	%rsp, %rbp
	.cfi_def_cfa_register %rbp
	subq	$320, %rsp
	movq	%rsi, -272(%rbp)
	movq	%rdi, -264(%rbp)
	movq	%rdi, -256(%rbp)
	movq	%rsi, -184(%rbp)
Ltmp126:
	.loc	10 250 9 prologue_end
	movb	$1, -201(%rbp)
	.loc	10 250 16 is_stmt 0
	movq	%rsi, -160(%rbp)
Ltmp127:
	.loc	11 326 9 is_stmt 1
	movq	%rsi, -152(%rbp)
Ltmp128:
	.loc	14 215 33
	movq	%rsi, -144(%rbp)
	.loc	14 215 18 is_stmt 0
	movq	%rsi, -248(%rbp)
Ltmp129:
	.loc	10 251 11 is_stmt 1
	movq	-248(%rbp), %rax
	andl	$3, %eax
	movq	%rax, -280(%rbp)
	.loc	10 251 5 is_stmt 0
	subq	$3, %rax
	ja	LBB6_2
	.loc	10 0 5
	movq	-280(%rbp), %rax
	leaq	LJTI6_0(%rip), %rcx
	movslq	(%rcx,%rax,4), %rax
	addq	%rcx, %rax
	jmpq	*%rax
LBB6_2:
Ltmp123:
	.loc	10 280 13 is_stmt 1
	leaq	l___unnamed_10(%rip), %rdi
	leaq	l___unnamed_11(%rip), %rdx
	movl	$40, %esi
	callq	__ZN4core9panicking5panic17hc1bc45270cf64b03E
Ltmp124:
	jmp	LBB6_9
LBB6_3:
	.loc	10 0 13 is_stmt 0
	movq	-264(%rbp), %rax
	.loc	10 253 26 is_stmt 1
	movq	-248(%rbp), %rcx
	.loc	10 253 24 is_stmt 0
	sarq	$32, %rcx
	movl	%ecx, -4(%rbp)
Ltmp130:
	.loc	10 254 13 is_stmt 1
	movl	%ecx, 4(%rax)
	movb	$0, (%rax)
Ltmp131:
	.loc	10 255 9
	jmp	LBB6_12
LBB6_4:
	.loc	10 257 30
	movl	-244(%rbp), %edi
	.loc	10 257 29 is_stmt 0
	movl	%edi, -12(%rbp)
Ltmp119:
Ltmp132:
	.loc	10 258 24 is_stmt 1
	callq	__ZN3std2io5error14repr_bitpacked14kind_from_prim17h5b1ffe9bd0a3f135E
Ltmp120:
	movb	%al, -281(%rbp)
	jmp	LBB6_13
Ltmp133:
LBB6_5:
	.loc	10 0 24 is_stmt 0
	movq	-264(%rbp), %rax
	movq	-272(%rbp), %rcx
	.loc	10 270 58 is_stmt 1
	movq	%rcx, -40(%rbp)
Ltmp134:
	.loc	11 450 41
	movq	%rcx, -32(%rbp)
	movq	%rcx, -24(%rbp)
Ltmp135:
	.loc	11 201 13
	movq	%rcx, -224(%rbp)
Ltmp136:
	.loc	11 326 9
	movq	-224(%rbp), %rcx
Ltmp137:
	.loc	10 270 31
	movq	%rcx, 8(%rax)
	movb	$2, (%rax)
	.loc	10 270 94 is_stmt 0
	jmp	LBB6_12
LBB6_6:
	.loc	10 0 94
	movq	-272(%rbp), %rax
	.loc	10 275 26 is_stmt 1
	movq	%rax, -120(%rbp)
Ltmp138:
	.loc	11 326 9
	movq	%rax, -112(%rbp)
Ltmp139:
	.loc	14 1300 9
	movq	%rax, -104(%rbp)
Ltmp140:
	.loc	14 60 9
	movq	%rax, -96(%rbp)
Ltmp141:
	.loc	14 1282 9
	movq	%rax, -88(%rbp)
Ltmp142:
	.loc	14 568 18
	addq	$-1, %rax
	movq	%rax, -80(%rbp)
	movq	-80(%rbp), %rax
	movq	%rax, -296(%rbp)
	jmp	LBB6_10
Ltmp143:
LBB6_7:
	.loc	10 283 1
	testb	$1, -201(%rbp)
	jne	LBB6_19
	jmp	LBB6_18
LBB6_8:
Ltmp125:
	.loc	10 0 1 is_stmt 0
	movq	%rax, %rcx
	movl	%edx, %eax
	movq	%rcx, -136(%rbp)
	movl	%eax, -128(%rbp)
	jmp	LBB6_7
LBB6_9:
	ud2
LBB6_10:
	movq	-296(%rbp), %rax
Ltmp144:
	.loc	14 568 18 is_stmt 1
	movq	%rax, -72(%rbp)
Ltmp145:
	.loc	14 99 33
	movq	%rax, -64(%rbp)
Ltmp146:
	.loc	4 135 36
	movq	%rax, -192(%rbp)
	.loc	4 135 14 is_stmt 0
	movq	-192(%rbp), %rax
	movq	%rax, -200(%rbp)
	movq	-200(%rbp), %rax
	movq	%rax, -56(%rbp)
Ltmp147:
	.loc	14 60 9 is_stmt 1
	movq	%rax, -48(%rbp)
Ltmp148:
	.loc	10 276 31
	movb	$0, -201(%rbp)
	movq	%rax, -216(%rbp)
	movq	-216(%rbp), %rdi
Ltmp117:
	callq	__ZN78_$LT$std..io..error..repr_bitpacked..Repr$u20$as$u20$core..ops..drop..Drop$GT$4drop28_$u7b$$u7b$closure$u7d$$u7d$17ha079c0d324da35fbE
Ltmp118:
	movq	%rax, -304(%rbp)
	jmp	LBB6_11
LBB6_11:
	.loc	10 0 31 is_stmt 0
	movq	-264(%rbp), %rax
	movq	-304(%rbp), %rcx
	.loc	10 276 13
	movq	%rcx, 8(%rax)
	movb	$3, (%rax)
Ltmp149:
LBB6_12:
	.loc	10 283 1 is_stmt 1
	testb	$1, -201(%rbp)
	jne	LBB6_21
	jmp	LBB6_20
LBB6_13:
	.loc	10 0 1 is_stmt 0
	movb	-281(%rbp), %al
Ltmp150:
	.loc	10 258 24 is_stmt 1
	movb	%al, -233(%rbp)
	.loc	10 258 65 is_stmt 0
	leaq	-248(%rbp), %rax
	movq	%rax, -232(%rbp)
Ltmp151:
	.loc	15 871 15 is_stmt 1
	movl	$1, %eax
	xorl	%ecx, %ecx
	cmpb	$41, -233(%rbp)
	cmoveq	%rcx, %rax
	.loc	15 871 9 is_stmt 0
	cmpq	$0, %rax
	jne	LBB6_15
	.loc	15 873 21 is_stmt 1
	movq	-232(%rbp), %rdi
Ltmp121:
	callq	__ZN3std2io5error14repr_bitpacked11decode_repr28_$u7b$$u7b$closure$u7d$$u7d$17h973505730d3da13dE
Ltmp122:
	movb	%al, -305(%rbp)
	jmp	LBB6_17
LBB6_15:
	.loc	15 872 18
	movb	-233(%rbp), %al
	movb	%al, -5(%rbp)
Ltmp152:
	.loc	15 872 24 is_stmt 0
	movb	%al, -234(%rbp)
Ltmp153:
LBB6_16:
	.loc	15 0 24
	movq	-264(%rbp), %rax
Ltmp154:
	.loc	10 268 31 is_stmt 1
	movb	-234(%rbp), %cl
	.loc	10 268 13 is_stmt 0
	movb	%cl, 1(%rax)
	movb	$1, (%rax)
Ltmp155:
	.loc	10 269 9 is_stmt 1
	jmp	LBB6_12
LBB6_17:
	.loc	10 0 9 is_stmt 0
	movb	-305(%rbp), %al
Ltmp156:
	.loc	15 873 21 is_stmt 1
	movb	%al, -234(%rbp)
	.loc	15 873 23 is_stmt 0
	jmp	LBB6_16
Ltmp157:
LBB6_18:
	.loc	10 246 1 is_stmt 1
	movq	-136(%rbp), %rdi
	callq	__Unwind_Resume
LBB6_19:
	.loc	10 283 1
	jmp	LBB6_18
LBB6_20:
	.loc	10 0 1 is_stmt 0
	movq	-256(%rbp), %rax
	.loc	10 283 2
	addq	$320, %rsp
	popq	%rbp
	retq
LBB6_21:
	.loc	10 283 1
	jmp	LBB6_20
Ltmp158:
Lfunc_end6:
	.cfi_endproc
	.p2align	2, 0x90
	.data_region jt32
.set L6_0_set_5, LBB6_5-LJTI6_0
.set L6_0_set_6, LBB6_6-LJTI6_0
.set L6_0_set_3, LBB6_3-LJTI6_0
.set L6_0_set_4, LBB6_4-LJTI6_0
LJTI6_0:
	.long	L6_0_set_5
	.long	L6_0_set_6
	.long	L6_0_set_3
	.long	L6_0_set_4
	.end_data_region
	.section	__TEXT,__gcc_except_tab
	.p2align	2
GCC_except_table6:
Lexception3:
	.byte	255
	.byte	255
	.byte	1
	.uleb128 Lcst_end3-Lcst_begin3
Lcst_begin3:
	.uleb128 Ltmp123-Lfunc_begin6
	.uleb128 Ltmp122-Ltmp123
	.uleb128 Ltmp125-Lfunc_begin6
	.byte	0
	.uleb128 Ltmp122-Lfunc_begin6
	.uleb128 Lfunc_end6-Ltmp122
	.byte	0
	.byte	0
Lcst_end3:
	.p2align	2

	.section	__TEXT,__text,regular,pure_instructions
	.globl	__ZN3std2io5error14repr_bitpacked11decode_repr28_$u7b$$u7b$closure$u7d$$u7d$17h973505730d3da13dE
	.p2align	4, 0x90
__ZN3std2io5error14repr_bitpacked11decode_repr28_$u7b$$u7b$closure$u7d$$u7d$17h973505730d3da13dE:
Lfunc_begin7:
	.loc	10 258 0 is_stmt 1
	.cfi_startproc
	pushq	%rbp
	.cfi_def_cfa_offset 16
	.cfi_offset %rbp, -16
	movq	%rsp, %rbp
	.cfi_def_cfa_register %rbp
	subq	$16, %rsp
	movq	%rdi, -16(%rbp)
Ltmp159:
	.loc	10 266 17 prologue_end
	callq	__ZN4core4hint21unreachable_unchecked17ha7cfcd75f4fdf098E
Ltmp160:
Lfunc_end7:
	.cfi_endproc

	.globl	__ZN3std2io5error14repr_bitpacked11decode_repr28_$u7b$$u7b$closure$u7d$$u7d$17hb1d4365fb656ae1dE
	.p2align	4, 0x90
__ZN3std2io5error14repr_bitpacked11decode_repr28_$u7b$$u7b$closure$u7d$$u7d$17hb1d4365fb656ae1dE:
Lfunc_begin8:
	.loc	10 258 0
	.cfi_startproc
	pushq	%rbp
	.cfi_def_cfa_offset 16
	.cfi_offset %rbp, -16
	movq	%rsp, %rbp
	.cfi_def_cfa_register %rbp
	subq	$16, %rsp
	movq	%rdi, -16(%rbp)
Ltmp161:
	.loc	10 266 17 prologue_end
	callq	__ZN4core4hint21unreachable_unchecked17ha7cfcd75f4fdf098E
Ltmp162:
Lfunc_end8:
	.cfi_endproc

	.p2align	4, 0x90
__ZN3std2io5error14repr_bitpacked14kind_from_prim17h5b1ffe9bd0a3f135E:
Lfunc_begin9:
	.loc	10 289 0
	.cfi_startproc
	pushq	%rbp
	.cfi_def_cfa_offset 16
	.cfi_offset %rbp, -16
	movq	%rsp, %rbp
	.cfi_def_cfa_register %rbp
	subq	$336, %rsp
	movl	%edi, -336(%rbp)
Ltmp163:
	.loc	10 302 5 prologue_end
	leaq	-336(%rbp), %rax
	movq	%rax, -328(%rbp)
	cmpl	$0, -336(%rbp)
	je	LBB9_2
	leaq	-336(%rbp), %rax
	movq	%rax, -320(%rbp)
	cmpl	$1, -336(%rbp)
	je	LBB9_5
	jmp	LBB9_4
LBB9_2:
Ltmp164:
	.loc	10 302 5 is_stmt 0
	movb	$0, -329(%rbp)
Ltmp165:
LBB9_3:
	.loc	10 345 2 is_stmt 1
	movb	-329(%rbp), %al
	addq	$336, %rsp
	popq	%rbp
	retq
LBB9_4:
	.loc	10 302 5
	leaq	-336(%rbp), %rax
	movq	%rax, -312(%rbp)
	cmpl	$2, -336(%rbp)
	je	LBB9_7
	jmp	LBB9_6
LBB9_5:
Ltmp166:
	.loc	10 302 5 is_stmt 0
	movb	$1, -329(%rbp)
Ltmp167:
	.loc	10 302 5
	jmp	LBB9_3
LBB9_6:
	leaq	-336(%rbp), %rax
	movq	%rax, -304(%rbp)
	cmpl	$3, -336(%rbp)
	je	LBB9_9
	jmp	LBB9_8
LBB9_7:
Ltmp168:
	.loc	10 302 5
	movb	$2, -329(%rbp)
Ltmp169:
	.loc	10 302 5
	jmp	LBB9_3
LBB9_8:
	leaq	-336(%rbp), %rax
	movq	%rax, -296(%rbp)
	cmpl	$4, -336(%rbp)
	je	LBB9_11
	jmp	LBB9_10
LBB9_9:
Ltmp170:
	.loc	10 302 5
	movb	$3, -329(%rbp)
Ltmp171:
	.loc	10 302 5
	jmp	LBB9_3
LBB9_10:
	leaq	-336(%rbp), %rax
	movq	%rax, -288(%rbp)
	cmpl	$5, -336(%rbp)
	je	LBB9_13
	jmp	LBB9_12
LBB9_11:
Ltmp172:
	.loc	10 302 5
	movb	$4, -329(%rbp)
Ltmp173:
	.loc	10 302 5
	jmp	LBB9_3
LBB9_12:
	leaq	-336(%rbp), %rax
	movq	%rax, -280(%rbp)
	cmpl	$6, -336(%rbp)
	je	LBB9_15
	jmp	LBB9_14
LBB9_13:
Ltmp174:
	.loc	10 302 5
	movb	$5, -329(%rbp)
Ltmp175:
	.loc	10 302 5
	jmp	LBB9_3
LBB9_14:
	leaq	-336(%rbp), %rax
	movq	%rax, -272(%rbp)
	cmpl	$7, -336(%rbp)
	je	LBB9_17
	jmp	LBB9_16
LBB9_15:
Ltmp176:
	.loc	10 302 5
	movb	$6, -329(%rbp)
Ltmp177:
	.loc	10 302 5
	jmp	LBB9_3
LBB9_16:
	leaq	-336(%rbp), %rax
	movq	%rax, -264(%rbp)
	cmpl	$8, -336(%rbp)
	je	LBB9_19
	jmp	LBB9_18
LBB9_17:
Ltmp178:
	.loc	10 302 5
	movb	$7, -329(%rbp)
Ltmp179:
	.loc	10 302 5
	jmp	LBB9_3
LBB9_18:
	leaq	-336(%rbp), %rax
	movq	%rax, -256(%rbp)
	cmpl	$9, -336(%rbp)
	je	LBB9_21
	jmp	LBB9_20
LBB9_19:
Ltmp180:
	.loc	10 302 5
	movb	$8, -329(%rbp)
Ltmp181:
	.loc	10 302 5
	jmp	LBB9_3
LBB9_20:
	leaq	-336(%rbp), %rax
	movq	%rax, -248(%rbp)
	cmpl	$10, -336(%rbp)
	je	LBB9_23
	jmp	LBB9_22
LBB9_21:
Ltmp182:
	.loc	10 302 5
	movb	$9, -329(%rbp)
Ltmp183:
	.loc	10 302 5
	jmp	LBB9_3
LBB9_22:
	leaq	-336(%rbp), %rax
	movq	%rax, -240(%rbp)
	cmpl	$11, -336(%rbp)
	je	LBB9_25
	jmp	LBB9_24
LBB9_23:
Ltmp184:
	.loc	10 302 5
	movb	$10, -329(%rbp)
Ltmp185:
	.loc	10 302 5
	jmp	LBB9_3
LBB9_24:
	leaq	-336(%rbp), %rax
	movq	%rax, -232(%rbp)
	cmpl	$12, -336(%rbp)
	je	LBB9_27
	jmp	LBB9_26
LBB9_25:
Ltmp186:
	.loc	10 302 5
	movb	$11, -329(%rbp)
Ltmp187:
	.loc	10 302 5
	jmp	LBB9_3
LBB9_26:
	leaq	-336(%rbp), %rax
	movq	%rax, -224(%rbp)
	cmpl	$13, -336(%rbp)
	je	LBB9_29
	jmp	LBB9_28
LBB9_27:
Ltmp188:
	.loc	10 302 5
	movb	$12, -329(%rbp)
Ltmp189:
	.loc	10 302 5
	jmp	LBB9_3
LBB9_28:
	leaq	-336(%rbp), %rax
	movq	%rax, -216(%rbp)
	cmpl	$14, -336(%rbp)
	je	LBB9_31
	jmp	LBB9_30
LBB9_29:
Ltmp190:
	.loc	10 302 5
	movb	$13, -329(%rbp)
Ltmp191:
	.loc	10 302 5
	jmp	LBB9_3
LBB9_30:
	leaq	-336(%rbp), %rax
	movq	%rax, -208(%rbp)
	cmpl	$15, -336(%rbp)
	je	LBB9_33
	jmp	LBB9_32
LBB9_31:
Ltmp192:
	.loc	10 302 5
	movb	$14, -329(%rbp)
Ltmp193:
	.loc	10 302 5
	jmp	LBB9_3
LBB9_32:
	leaq	-336(%rbp), %rax
	movq	%rax, -200(%rbp)
	cmpl	$16, -336(%rbp)
	je	LBB9_35
	jmp	LBB9_34
LBB9_33:
Ltmp194:
	.loc	10 302 5
	movb	$15, -329(%rbp)
Ltmp195:
	.loc	10 302 5
	jmp	LBB9_3
LBB9_34:
	leaq	-336(%rbp), %rax
	movq	%rax, -192(%rbp)
	cmpl	$17, -336(%rbp)
	je	LBB9_37
	jmp	LBB9_36
LBB9_35:
Ltmp196:
	.loc	10 302 5
	movb	$16, -329(%rbp)
Ltmp197:
	.loc	10 302 5
	jmp	LBB9_3
LBB9_36:
	leaq	-336(%rbp), %rax
	movq	%rax, -184(%rbp)
	cmpl	$18, -336(%rbp)
	je	LBB9_39
	jmp	LBB9_38
LBB9_37:
Ltmp198:
	.loc	10 302 5
	movb	$17, -329(%rbp)
Ltmp199:
	.loc	10 302 5
	jmp	LBB9_3
LBB9_38:
	leaq	-336(%rbp), %rax
	movq	%rax, -176(%rbp)
	cmpl	$19, -336(%rbp)
	je	LBB9_41
	jmp	LBB9_40
LBB9_39:
Ltmp200:
	.loc	10 302 5
	movb	$18, -329(%rbp)
Ltmp201:
	.loc	10 302 5
	jmp	LBB9_3
LBB9_40:
	leaq	-336(%rbp), %rax
	movq	%rax, -168(%rbp)
	cmpl	$20, -336(%rbp)
	je	LBB9_43
	jmp	LBB9_42
LBB9_41:
Ltmp202:
	.loc	10 302 5
	movb	$19, -329(%rbp)
Ltmp203:
	.loc	10 302 5
	jmp	LBB9_3
LBB9_42:
	leaq	-336(%rbp), %rax
	movq	%rax, -160(%rbp)
	cmpl	$21, -336(%rbp)
	je	LBB9_45
	jmp	LBB9_44
LBB9_43:
Ltmp204:
	.loc	10 302 5
	movb	$20, -329(%rbp)
Ltmp205:
	.loc	10 302 5
	jmp	LBB9_3
LBB9_44:
	leaq	-336(%rbp), %rax
	movq	%rax, -152(%rbp)
	cmpl	$22, -336(%rbp)
	je	LBB9_47
	jmp	LBB9_46
LBB9_45:
Ltmp206:
	.loc	10 302 5
	movb	$21, -329(%rbp)
Ltmp207:
	.loc	10 302 5
	jmp	LBB9_3
LBB9_46:
	leaq	-336(%rbp), %rax
	movq	%rax, -144(%rbp)
	cmpl	$23, -336(%rbp)
	je	LBB9_49
	jmp	LBB9_48
LBB9_47:
Ltmp208:
	.loc	10 302 5
	movb	$22, -329(%rbp)
Ltmp209:
	.loc	10 302 5
	jmp	LBB9_3
LBB9_48:
	leaq	-336(%rbp), %rax
	movq	%rax, -136(%rbp)
	cmpl	$24, -336(%rbp)
	je	LBB9_51
	jmp	LBB9_50
LBB9_49:
Ltmp210:
	.loc	10 302 5
	movb	$23, -329(%rbp)
Ltmp211:
	.loc	10 302 5
	jmp	LBB9_3
LBB9_50:
	leaq	-336(%rbp), %rax
	movq	%rax, -128(%rbp)
	cmpl	$25, -336(%rbp)
	je	LBB9_53
	jmp	LBB9_52
LBB9_51:
Ltmp212:
	.loc	10 302 5
	movb	$24, -329(%rbp)
Ltmp213:
	.loc	10 302 5
	jmp	LBB9_3
LBB9_52:
	leaq	-336(%rbp), %rax
	movq	%rax, -120(%rbp)
	cmpl	$26, -336(%rbp)
	je	LBB9_55
	jmp	LBB9_54
LBB9_53:
Ltmp214:
	.loc	10 302 5
	movb	$25, -329(%rbp)
Ltmp215:
	.loc	10 302 5
	jmp	LBB9_3
LBB9_54:
	leaq	-336(%rbp), %rax
	movq	%rax, -112(%rbp)
	cmpl	$27, -336(%rbp)
	je	LBB9_57
	jmp	LBB9_56
LBB9_55:
Ltmp216:
	.loc	10 302 5
	movb	$26, -329(%rbp)
Ltmp217:
	.loc	10 302 5
	jmp	LBB9_3
LBB9_56:
	leaq	-336(%rbp), %rax
	movq	%rax, -104(%rbp)
	cmpl	$28, -336(%rbp)
	je	LBB9_59
	jmp	LBB9_58
LBB9_57:
Ltmp218:
	.loc	10 302 5
	movb	$27, -329(%rbp)
Ltmp219:
	.loc	10 302 5
	jmp	LBB9_3
LBB9_58:
	leaq	-336(%rbp), %rax
	movq	%rax, -96(%rbp)
	cmpl	$29, -336(%rbp)
	je	LBB9_61
	jmp	LBB9_60
LBB9_59:
Ltmp220:
	.loc	10 302 5
	movb	$28, -329(%rbp)
Ltmp221:
	.loc	10 302 5
	jmp	LBB9_3
LBB9_60:
	leaq	-336(%rbp), %rax
	movq	%rax, -88(%rbp)
	cmpl	$30, -336(%rbp)
	je	LBB9_63
	jmp	LBB9_62
LBB9_61:
Ltmp222:
	.loc	10 302 5
	movb	$29, -329(%rbp)
Ltmp223:
	.loc	10 302 5
	jmp	LBB9_3
LBB9_62:
	leaq	-336(%rbp), %rax
	movq	%rax, -80(%rbp)
	cmpl	$31, -336(%rbp)
	je	LBB9_65
	jmp	LBB9_64
LBB9_63:
Ltmp224:
	.loc	10 302 5
	movb	$30, -329(%rbp)
Ltmp225:
	.loc	10 302 5
	jmp	LBB9_3
LBB9_64:
	leaq	-336(%rbp), %rax
	movq	%rax, -72(%rbp)
	cmpl	$32, -336(%rbp)
	je	LBB9_67
	jmp	LBB9_66
LBB9_65:
Ltmp226:
	.loc	10 302 5
	movb	$31, -329(%rbp)
Ltmp227:
	.loc	10 302 5
	jmp	LBB9_3
LBB9_66:
	leaq	-336(%rbp), %rax
	movq	%rax, -64(%rbp)
	cmpl	$33, -336(%rbp)
	je	LBB9_69
	jmp	LBB9_68
LBB9_67:
Ltmp228:
	.loc	10 302 5
	movb	$32, -329(%rbp)
Ltmp229:
	.loc	10 302 5
	jmp	LBB9_3
LBB9_68:
	leaq	-336(%rbp), %rax
	movq	%rax, -56(%rbp)
	cmpl	$34, -336(%rbp)
	je	LBB9_71
	jmp	LBB9_70
LBB9_69:
Ltmp230:
	.loc	10 302 5
	movb	$33, -329(%rbp)
Ltmp231:
	.loc	10 302 5
	jmp	LBB9_3
LBB9_70:
	leaq	-336(%rbp), %rax
	movq	%rax, -48(%rbp)
	cmpl	$35, -336(%rbp)
	je	LBB9_73
	jmp	LBB9_72
LBB9_71:
Ltmp232:
	.loc	10 302 5
	movb	$34, -329(%rbp)
Ltmp233:
	.loc	10 302 5
	jmp	LBB9_3
LBB9_72:
	leaq	-336(%rbp), %rax
	movq	%rax, -40(%rbp)
	cmpl	$39, -336(%rbp)
	je	LBB9_75
	jmp	LBB9_74
LBB9_73:
Ltmp234:
	.loc	10 302 5
	movb	$35, -329(%rbp)
Ltmp235:
	.loc	10 302 5
	jmp	LBB9_3
LBB9_74:
	leaq	-336(%rbp), %rax
	movq	%rax, -32(%rbp)
	cmpl	$37, -336(%rbp)
	je	LBB9_77
	jmp	LBB9_76
LBB9_75:
Ltmp236:
	.loc	10 302 5
	movb	$39, -329(%rbp)
Ltmp237:
	.loc	10 302 5
	jmp	LBB9_3
LBB9_76:
	leaq	-336(%rbp), %rax
	movq	%rax, -24(%rbp)
	cmpl	$36, -336(%rbp)
	je	LBB9_79
	jmp	LBB9_78
LBB9_77:
Ltmp238:
	.loc	10 302 5
	movb	$37, -329(%rbp)
Ltmp239:
	.loc	10 302 5
	jmp	LBB9_3
LBB9_78:
	leaq	-336(%rbp), %rax
	movq	%rax, -16(%rbp)
	cmpl	$38, -336(%rbp)
	je	LBB9_81
	jmp	LBB9_80
LBB9_79:
Ltmp240:
	.loc	10 302 5
	movb	$36, -329(%rbp)
Ltmp241:
	.loc	10 302 5
	jmp	LBB9_3
LBB9_80:
	leaq	-336(%rbp), %rax
	movq	%rax, -8(%rbp)
	cmpl	$40, -336(%rbp)
	je	LBB9_83
	jmp	LBB9_82
LBB9_81:
Ltmp242:
	.loc	10 302 5
	movb	$38, -329(%rbp)
Ltmp243:
	.loc	10 302 5
	jmp	LBB9_3
LBB9_82:
	movb	$41, -329(%rbp)
	jmp	LBB9_3
LBB9_83:
Ltmp244:
	.loc	10 302 5
	movb	$40, -329(%rbp)
Ltmp245:
	.loc	10 302 5
	jmp	LBB9_3
Ltmp246:
Lfunc_end9:
	.cfi_endproc

	.globl	__ZN3std2io5error14repr_bitpacked4Repr4data28_$u7b$$u7b$closure$u7d$$u7d$17h464b36b04a71cfa9E
	.p2align	4, 0x90
__ZN3std2io5error14repr_bitpacked4Repr4data28_$u7b$$u7b$closure$u7d$$u7d$17h464b36b04a71cfa9E:
Lfunc_begin10:
	.loc	10 212 0 is_stmt 1
	.cfi_startproc
	pushq	%rbp
	.cfi_def_cfa_offset 16
	.cfi_offset %rbp, -16
	movq	%rsp, %rbp
	.cfi_def_cfa_register %rbp
	subq	$16, %rsp
	movq	%rdi, %rax
	movq	%rax, -8(%rbp)
Ltmp247:
	.loc	10 212 45 prologue_end
	addq	$16, %rsp
	popq	%rbp
	retq
Ltmp248:
Lfunc_end10:
	.cfi_endproc

	.p2align	4, 0x90
__ZN3std2io5error5Error4kind17h09189597876dc4a6E:
Lfunc_begin11:
	.loc	8 893 0
	.cfi_startproc
	pushq	%rbp
	.cfi_def_cfa_offset 16
	.cfi_offset %rbp, -16
	movq	%rsp, %rbp
	.cfi_def_cfa_register %rbp
	subq	$80, %rsp
	movq	%rdi, -40(%rbp)
Ltmp249:
	.loc	8 894 15 prologue_end
	movq	%rdi, -32(%rbp)
Ltmp250:
	.loc	10 212 30
	movq	(%rdi), %rsi
	leaq	-56(%rbp), %rdi
	.loc	10 212 18 is_stmt 0
	callq	__ZN3std2io5error14repr_bitpacked11decode_repr17h5d074d7dd2f01be1E
Ltmp251:
	.loc	8 894 15 is_stmt 1
	movzbl	-56(%rbp), %eax
	movq	%rax, -72(%rbp)
	.loc	8 0 15 is_stmt 0
	movq	-72(%rbp), %rax
	leaq	LJTI11_0(%rip), %rcx
	movslq	(%rcx,%rax,4), %rax
	addq	%rcx, %rax
	jmpq	*%rax
	.loc	8 894 15
	ud2
LBB11_2:
	.loc	8 895 27 is_stmt 1
	movl	-52(%rbp), %edi
	movl	%edi, -4(%rbp)
Ltmp252:
	.loc	8 895 36 is_stmt 0
	callq	__ZN3std3sys4unix17decode_error_kind17h50ab8511eed7ed72E
	movb	%al, -57(%rbp)
Ltmp253:
	.loc	8 895 63
	jmp	LBB11_6
LBB11_3:
	.loc	8 897 31 is_stmt 1
	movb	-55(%rbp), %al
	movb	%al, -5(%rbp)
Ltmp254:
	.loc	8 897 40 is_stmt 0
	movb	%al, -57(%rbp)
Ltmp255:
	.loc	8 897 43
	jmp	LBB11_6
LBB11_4:
	.loc	8 898 38 is_stmt 1
	movq	-48(%rbp), %rax
	movq	%rax, -16(%rbp)
Ltmp256:
	.loc	8 898 44 is_stmt 0
	movb	16(%rax), %al
	movb	%al, -57(%rbp)
Ltmp257:
	.loc	8 898 49
	jmp	LBB11_6
LBB11_5:
	.loc	8 896 31 is_stmt 1
	movq	-48(%rbp), %rax
	movq	%rax, -24(%rbp)
Ltmp258:
	.loc	8 896 37 is_stmt 0
	movb	16(%rax), %al
	movb	%al, -57(%rbp)
Ltmp259:
LBB11_6:
	.loc	8 900 6 is_stmt 1
	movb	-57(%rbp), %al
	addq	$80, %rsp
	popq	%rbp
	retq
Ltmp260:
Lfunc_end11:
	.cfi_endproc
	.p2align	2, 0x90
	.data_region jt32
.set L11_0_set_2, LBB11_2-LJTI11_0
.set L11_0_set_3, LBB11_3-LJTI11_0
.set L11_0_set_4, LBB11_4-LJTI11_0
.set L11_0_set_5, LBB11_5-LJTI11_0
LJTI11_0:
	.long	L11_0_set_2
	.long	L11_0_set_3
	.long	L11_0_set_4
	.long	L11_0_set_5
	.end_data_region

	.globl	__ZN3std5panic12catch_unwind17h21227bc73b1d453fE
	.p2align	4, 0x90
__ZN3std5panic12catch_unwind17h21227bc73b1d453fE:
Lfunc_begin12:
	.file	16 "/rustc/2c8cc343237b8f7d5a3c3703e3a87f2eb2c54a74/library/std/src" "panic.rs"
	.loc	16 139 0
	.cfi_startproc
	pushq	%rbp
	.cfi_def_cfa_offset 16
	.cfi_offset %rbp, -16
	movq	%rsp, %rbp
	.cfi_def_cfa_register %rbp
	subq	$16, %rsp
	movq	%rdi, -8(%rbp)
Ltmp261:
	.loc	16 140 14 prologue_end
	callq	__ZN3std9panicking3try17h6cdc84503cbdc359E
	.loc	16 141 2
	addq	$16, %rsp
	popq	%rbp
	retq
Ltmp262:
Lfunc_end12:
	.cfi_endproc

	.globl	__ZN3std6thread5local17LocalKey$LT$T$GT$4with17h5ffa6f5fa22d2f3fE
	.p2align	4, 0x90
__ZN3std6thread5local17LocalKey$LT$T$GT$4with17h5ffa6f5fa22d2f3fE:
Lfunc_begin13:
	.loc	1 418 0
	.cfi_startproc
	pushq	%rbp
	.cfi_def_cfa_offset 16
	.cfi_offset %rbp, -16
	movq	%rsp, %rbp
	.cfi_def_cfa_register %rbp
	subq	$16, %rsp
	movq	%rdi, -16(%rbp)
Ltmp263:
	.loc	1 422 9 prologue_end
	callq	__ZN3std6thread5local17LocalKey$LT$T$GT$8try_with17h2035ae48db871d4aE
	movq	%rax, %rdi
	leaq	l___unnamed_12(%rip), %rsi
	movl	$70, %edx
	leaq	l___unnamed_13(%rip), %rcx
	callq	__ZN4core6result19Result$LT$T$C$E$GT$6expect17h48c5ee053d178a11E
	.loc	1 426 6
	addq	$16, %rsp
	popq	%rbp
	retq
Ltmp264:
Lfunc_end13:
	.cfi_endproc

	.globl	__ZN3std6thread5local17LocalKey$LT$T$GT$8try_with17h2035ae48db871d4aE
	.p2align	4, 0x90
__ZN3std6thread5local17LocalKey$LT$T$GT$8try_with17h2035ae48db871d4aE:
Lfunc_begin14:
	.loc	1 440 0
	.cfi_startproc
	.cfi_personality 155, _rust_eh_personality
	.cfi_lsda 16, Lexception4
	pushq	%rbp
	.cfi_def_cfa_offset 16
	.cfi_offset %rbp, -16
	movq	%rsp, %rbp
	.cfi_def_cfa_register %rbp
	subq	$192, %rsp
	movq	%rdi, -112(%rbp)
Ltmp270:
	.loc	1 445 17 prologue_end
	movb	$1, -113(%rbp)
	.loc	1 445 32 is_stmt 0
	movq	(%rdi), %rax
	.loc	1 445 45
	movq	$0, -136(%rbp)
	.loc	1 445 32
	movq	-136(%rbp), %rdi
Ltmp265:
	callq	*%rax
Ltmp266:
	movq	%rax, -176(%rbp)
	jmp	LBB14_3
LBB14_1:
	.loc	1 448 5 is_stmt 1
	testb	$1, -113(%rbp)
	jne	LBB14_15
	jmp	LBB14_14
LBB14_2:
Ltmp269:
	.loc	1 0 5 is_stmt 0
	movq	%rax, %rcx
	movl	%edx, %eax
	movq	%rcx, -48(%rbp)
	movl	%eax, -40(%rbp)
	jmp	LBB14_1
LBB14_3:
	movq	-176(%rbp), %rax
	.loc	1 445 32 is_stmt 1
	movq	%rax, -144(%rbp)
Ltmp271:
	.loc	15 1096 15
	movq	-144(%rbp), %rdx
	movl	$1, %eax
	xorl	%ecx, %ecx
	cmpq	$0, %rdx
	cmoveq	%rcx, %rax
	.loc	15 1096 9 is_stmt 0
	cmpq	$0, %rax
	jne	LBB14_5
	.loc	15 1098 21 is_stmt 1
	movq	$0, -152(%rbp)
	.loc	15 1098 28 is_stmt 0
	jmp	LBB14_6
LBB14_5:
	.loc	15 1097 18 is_stmt 1
	movq	-144(%rbp), %rax
	movq	%rax, -32(%rbp)
Ltmp272:
	.loc	15 1097 24 is_stmt 0
	movq	%rax, -152(%rbp)
Ltmp273:
LBB14_6:
	.loc	12 2091 15 is_stmt 1
	movq	-152(%rbp), %rdx
	xorl	%eax, %eax
	movl	$1, %ecx
	cmpq	$0, %rdx
	cmoveq	%rcx, %rax
	.loc	12 2091 9 is_stmt 0
	cmpq	$0, %rax
	jne	LBB14_8
	.loc	12 2092 16 is_stmt 1
	movq	-152(%rbp), %rax
	movq	%rax, -24(%rbp)
Ltmp274:
	.loc	12 2092 22 is_stmt 0
	movq	%rax, -160(%rbp)
Ltmp275:
	.loc	12 2092 45
	jmp	LBB14_9
LBB14_8:
Ltmp276:
	.loc	12 2093 23 is_stmt 1
	movq	$0, -160(%rbp)
Ltmp277:
LBB14_9:
	.loc	1 445 32
	movq	-160(%rbp), %rdx
	xorl	%eax, %eax
	movl	$1, %ecx
	cmpq	$0, %rdx
	cmoveq	%rcx, %rax
	cmpq	$0, %rax
	jne	LBB14_11
	movq	-160(%rbp), %rax
	movq	%rax, -16(%rbp)
Ltmp278:
	.loc	1 445 32 is_stmt 0
	movq	%rax, -8(%rbp)
Ltmp279:
	.loc	1 446 16 is_stmt 1
	movb	$0, -113(%rbp)
	movq	%rax, -128(%rbp)
	movq	-128(%rbp), %rdi
Ltmp267:
	callq	__ZN8nanorand3tls7tls_rng28_$u7b$$u7b$closure$u7d$$u7d$17h3034b193321c51e3E
Ltmp268:
	movq	%rax, -184(%rbp)
	jmp	LBB14_13
Ltmp280:
LBB14_11:
	.loc	12 2107 23
	movq	$0, -168(%rbp)
Ltmp281:
LBB14_12:
	.loc	1 448 6
	movq	-168(%rbp), %rax
	addq	$192, %rsp
	popq	%rbp
	retq
LBB14_13:
	.loc	1 0 6 is_stmt 0
	movq	-184(%rbp), %rax
Ltmp282:
	.loc	1 446 13 is_stmt 1
	movq	%rax, -168(%rbp)
Ltmp283:
	.loc	1 448 5
	jmp	LBB14_12
LBB14_14:
	.loc	1 440 5
	movq	-48(%rbp), %rdi
	callq	__Unwind_Resume
LBB14_15:
	.loc	1 448 5
	jmp	LBB14_14
Ltmp284:
Lfunc_end14:
	.cfi_endproc
	.section	__TEXT,__gcc_except_tab
	.p2align	2
GCC_except_table14:
Lexception4:
	.byte	255
	.byte	255
	.byte	1
	.uleb128 Lcst_end4-Lcst_begin4
Lcst_begin4:
	.uleb128 Ltmp265-Lfunc_begin14
	.uleb128 Ltmp268-Ltmp265
	.uleb128 Ltmp269-Lfunc_begin14
	.byte	0
	.uleb128 Ltmp268-Lfunc_begin14
	.uleb128 Lfunc_end14-Ltmp268
	.byte	0
	.byte	0
Lcst_end4:
	.p2align	2

	.section	__TEXT,__text,regular,pure_instructions
	.globl	__ZN3std6thread5local4fast12Key$LT$T$GT$14try_initialize17hd6fa71e7053a9992E
	.p2align	4, 0x90
__ZN3std6thread5local4fast12Key$LT$T$GT$14try_initialize17hd6fa71e7053a9992E:
Lfunc_begin15:
	.loc	1 983 0
	.cfi_startproc
	.cfi_personality 155, _rust_eh_personality
	.cfi_lsda 16, Lexception5
	pushq	%rbp
	.cfi_def_cfa_offset 16
	.cfi_offset %rbp, -16
	movq	%rsp, %rbp
	.cfi_def_cfa_register %rbp
	subq	$96, %rsp
	movq	%rdi, -80(%rbp)
	movq	%rsi, -72(%rbp)
	movq	%rdi, -40(%rbp)
	movq	%rsi, -32(%rbp)
Ltmp290:
	.loc	1 985 16 prologue_end
	movb	$1, -41(%rbp)
Ltmp291:
	.file	17 "/rustc/2c8cc343237b8f7d5a3c3703e3a87f2eb2c54a74/library/core/src/mem" "mod.rs"
	.loc	17 594 5
	movb	$1, -17(%rbp)
	movb	-17(%rbp), %al
	movb	%al, -57(%rbp)
Ltmp292:
	.loc	17 0 5 is_stmt 0
	movb	-57(%rbp), %al
	.loc	1 985 16 is_stmt 1
	xorb	$-1, %al
	testb	$1, %al
	jne	LBB15_3
Ltmp285:
	.loc	1 0 16 is_stmt 0
	movq	-80(%rbp), %rdi
	.loc	1 985 52
	callq	__ZN3std6thread5local4fast12Key$LT$T$GT$17try_register_dtor17h5ad03a9b60debaa0E
Ltmp286:
	movb	%al, -81(%rbp)
	jmp	LBB15_7
LBB15_3:
	.loc	1 985 16
	movb	$1, -42(%rbp)
LBB15_4:
	testb	$1, -42(%rbp)
	jne	LBB15_9
	jmp	LBB15_8
LBB15_5:
	.loc	1 991 9 is_stmt 1
	testb	$1, -41(%rbp)
	jne	LBB15_12
	jmp	LBB15_11
LBB15_6:
Ltmp289:
	.loc	1 0 9 is_stmt 0
	movq	%rax, %rcx
	movl	%edx, %eax
	movq	%rcx, -16(%rbp)
	movl	%eax, -8(%rbp)
	jmp	LBB15_5
LBB15_7:
	movb	-81(%rbp), %al
	.loc	1 985 16 is_stmt 1
	andb	$1, %al
	movb	%al, -42(%rbp)
	jmp	LBB15_4
LBB15_8:
	.loc	1 989 17
	movq	$0, -56(%rbp)
	.loc	1 985 13
	jmp	LBB15_13
LBB15_9:
	.loc	1 0 13 is_stmt 0
	movq	-72(%rbp), %rsi
	movq	-80(%rbp), %rdi
	.loc	1 987 53 is_stmt 1
	movb	$0, -41(%rbp)
Ltmp287:
	.loc	1 987 31 is_stmt 0
	callq	__ZN3std6thread5local4lazy21LazyKeyInner$LT$T$GT$10initialize17h8cfaad292ee143a2E
Ltmp288:
	movq	%rax, -96(%rbp)
	jmp	LBB15_10
LBB15_10:
	.loc	1 0 31
	movq	-96(%rbp), %rax
	.loc	1 987 17
	movq	%rax, -56(%rbp)
	.loc	1 985 13 is_stmt 1
	jmp	LBB15_13
LBB15_11:
	.loc	1 983 9
	movq	-16(%rbp), %rdi
	callq	__Unwind_Resume
LBB15_12:
	.loc	1 991 9
	jmp	LBB15_11
LBB15_13:
	testb	$1, -41(%rbp)
	jne	LBB15_15
LBB15_14:
	.loc	1 991 10 is_stmt 0
	movq	-56(%rbp), %rax
	addq	$96, %rsp
	popq	%rbp
	retq
LBB15_15:
	.loc	1 991 9
	jmp	LBB15_14
Ltmp293:
Lfunc_end15:
	.cfi_endproc
	.section	__TEXT,__gcc_except_tab
	.p2align	2
GCC_except_table15:
Lexception5:
	.byte	255
	.byte	255
	.byte	1
	.uleb128 Lcst_end5-Lcst_begin5
Lcst_begin5:
	.uleb128 Ltmp285-Lfunc_begin15
	.uleb128 Ltmp288-Ltmp285
	.uleb128 Ltmp289-Lfunc_begin15
	.byte	0
	.uleb128 Ltmp288-Lfunc_begin15
	.uleb128 Lfunc_end15-Ltmp288
	.byte	0
	.byte	0
Lcst_end5:
	.p2align	2

	.section	__TEXT,__text,regular,pure_instructions
	.globl	__ZN3std6thread5local4fast12Key$LT$T$GT$17try_register_dtor17h5ad03a9b60debaa0E
	.p2align	4, 0x90
__ZN3std6thread5local4fast12Key$LT$T$GT$17try_register_dtor17h5ad03a9b60debaa0E:
Lfunc_begin16:
	.loc	1 996 0 is_stmt 1
	.cfi_startproc
	pushq	%rbp
	.cfi_def_cfa_offset 16
	.cfi_offset %rbp, -16
	movq	%rsp, %rbp
	.cfi_def_cfa_register %rbp
	subq	$64, %rsp
	movq	%rdi, -64(%rbp)
	movq	%rdi, -40(%rbp)
Ltmp294:
	.loc	1 997 19 prologue_end
	movq	%rdi, %rax
	addq	$8, %rax
	movq	%rax, -32(%rbp)
Ltmp295:
	.file	18 "/rustc/2c8cc343237b8f7d5a3c3703e3a87f2eb2c54a74/library/core/src" "cell.rs"
	.loc	18 452 19
	movq	%rax, -24(%rbp)
	.loc	18 452 18 is_stmt 0
	movb	8(%rdi), %al
	movb	%al, -41(%rbp)
Ltmp296:
	.loc	1 997 19 is_stmt 1
	movzbl	-41(%rbp), %eax
	movq	%rax, -56(%rbp)
	testq	%rax, %rax
	.loc	1 997 13 is_stmt 0
	je	LBB16_2
	jmp	LBB16_6
LBB16_6:
	.loc	1 0 13
	movq	-56(%rbp), %rax
	.loc	1 997 13
	subq	$1, %rax
	je	LBB16_3
	jmp	LBB16_7
LBB16_7:
	jmp	LBB16_4
	.loc	1 997 19
	ud2
LBB16_2:
	.loc	1 0 19
	movq	-64(%rbp), %rdi
	.loc	1 1004 30 is_stmt 1
	leaq	__ZN3std6thread5local4fast13destroy_value17ha6900adb21db7c04E(%rip), %rsi
	callq	__ZN3std3sys4unix17thread_local_dtor13register_dtor17hd1117fc09d525c5dE
	movq	-64(%rbp), %rdi
	.loc	1 1005 21
	addq	$8, %rdi
	movq	%rdi, -16(%rbp)
Ltmp297:
	.loc	18 363 19
	movl	$1, %esi
	callq	__ZN4core4cell13Cell$LT$T$GT$7replace17hd96de94c594fe292E
	movb	%al, -1(%rbp)
Ltmp298:
	.loc	1 1006 21
	movb	$1, -42(%rbp)
	jmp	LBB16_5
LBB16_3:
	.loc	1 1010 21
	movb	$1, -42(%rbp)
	jmp	LBB16_5
LBB16_4:
	.loc	1 1012 47
	movb	$0, -42(%rbp)
LBB16_5:
	.loc	1 1014 10
	movb	-42(%rbp), %al
	andb	$1, %al
	movzbl	%al, %eax
	addq	$64, %rsp
	popq	%rbp
	retq
Ltmp299:
Lfunc_end16:
	.cfi_endproc

	.globl	__ZN3std6thread5local4fast12Key$LT$T$GT$3get17h6df2c44259e1842cE
	.p2align	4, 0x90
__ZN3std6thread5local4fast12Key$LT$T$GT$3get17h6df2c44259e1842cE:
Lfunc_begin17:
	.loc	1 959 0
	.cfi_startproc
	.cfi_personality 155, _rust_eh_personality
	.cfi_lsda 16, Lexception6
	pushq	%rbp
	.cfi_def_cfa_offset 16
	.cfi_offset %rbp, -16
	movq	%rsp, %rbp
	.cfi_def_cfa_register %rbp
	subq	$96, %rsp
	movq	%rdi, -88(%rbp)
	movq	%rsi, -80(%rbp)
	movq	%rdi, -40(%rbp)
	movq	%rsi, -32(%rbp)
Ltmp305:
	.loc	1 968 23 prologue_end
	movb	$1, -41(%rbp)
Ltmp300:
	callq	__ZN3std6thread5local4lazy21LazyKeyInner$LT$T$GT$3get17hb16d78db3ff1ac4eE
Ltmp301:
	movq	%rax, -72(%rbp)
	jmp	LBB17_3
LBB17_1:
	.loc	1 973 9
	testb	$1, -41(%rbp)
	jne	LBB17_9
	jmp	LBB17_8
LBB17_2:
Ltmp304:
	.loc	1 0 9 is_stmt 0
	movq	%rax, %rcx
	movl	%edx, %eax
	movq	%rcx, -24(%rbp)
	movl	%eax, -16(%rbp)
	jmp	LBB17_1
LBB17_3:
	movq	-72(%rbp), %rax
	.loc	1 968 23 is_stmt 1
	movq	%rax, -56(%rbp)
	movq	-56(%rbp), %rdx
	movl	$1, %eax
	xorl	%ecx, %ecx
	cmpq	$0, %rdx
	cmoveq	%rcx, %rax
	.loc	1 968 17 is_stmt 0
	cmpq	$0, %rax
	jne	LBB17_5
	.loc	1 0 17
	movq	-80(%rbp), %rsi
	movq	-88(%rbp), %rdi
	.loc	1 970 49 is_stmt 1
	movb	$0, -41(%rbp)
Ltmp302:
	.loc	1 970 29 is_stmt 0
	callq	__ZN3std6thread5local4fast12Key$LT$T$GT$14try_initialize17hd6fa71e7053a9992E
Ltmp303:
	movq	%rax, -96(%rbp)
	jmp	LBB17_7
LBB17_5:
	.loc	1 969 26 is_stmt 1
	movq	-56(%rbp), %rax
	movq	%rax, -8(%rbp)
Ltmp306:
	.loc	1 969 34 is_stmt 0
	movq	%rax, -64(%rbp)
Ltmp307:
LBB17_6:
	.loc	1 973 9 is_stmt 1
	testb	$1, -41(%rbp)
	jne	LBB17_11
	jmp	LBB17_10
LBB17_7:
	.loc	1 0 9 is_stmt 0
	movq	-96(%rbp), %rax
	.loc	1 970 29 is_stmt 1
	movq	%rax, -64(%rbp)
	.loc	1 970 53 is_stmt 0
	jmp	LBB17_6
LBB17_8:
	.loc	1 959 9 is_stmt 1
	movq	-24(%rbp), %rdi
	callq	__Unwind_Resume
LBB17_9:
	.loc	1 973 9
	jmp	LBB17_8
LBB17_10:
	.loc	1 973 10 is_stmt 0
	movq	-64(%rbp), %rax
	addq	$96, %rsp
	popq	%rbp
	retq
LBB17_11:
	.loc	1 973 9
	jmp	LBB17_10
Ltmp308:
Lfunc_end17:
	.cfi_endproc
	.section	__TEXT,__gcc_except_tab
	.p2align	2
GCC_except_table17:
Lexception6:
	.byte	255
	.byte	255
	.byte	1
	.uleb128 Lcst_end6-Lcst_begin6
Lcst_begin6:
	.uleb128 Ltmp300-Lfunc_begin17
	.uleb128 Ltmp303-Ltmp300
	.uleb128 Ltmp304-Lfunc_begin17
	.byte	0
	.uleb128 Ltmp303-Lfunc_begin17
	.uleb128 Lfunc_end17-Ltmp303
	.byte	0
	.byte	0
Lcst_end6:
	.p2align	2

	.section	__TEXT,__text,regular,pure_instructions
	.globl	__ZN3std6thread5local4fast13destroy_value17ha6900adb21db7c04E
	.p2align	4, 0x90
__ZN3std6thread5local4fast13destroy_value17ha6900adb21db7c04E:
Lfunc_begin18:
	.loc	1 1017 0 is_stmt 1
	.cfi_startproc
	.cfi_personality 155, _rust_eh_personality
	.cfi_lsda 16, Lexception7
	pushq	%rbp
	.cfi_def_cfa_offset 16
	.cfi_offset %rbp, -16
	movq	%rsp, %rbp
	.cfi_def_cfa_register %rbp
	subq	$304, %rsp
	movq	%rdi, -64(%rbp)
Ltmp326:
	.loc	1 1018 19 prologue_end
	movq	%rdi, -256(%rbp)
	leaq	-256(%rbp), %rax
Ltmp327:
	.loc	1 1033 69
	movq	%rax, -224(%rbp)
	.loc	1 1033 45 is_stmt 0
	movq	-224(%rbp), %rax
	movq	%rax, -232(%rbp)
	.loc	1 1033 25
	movq	-232(%rbp), %rdi
Ltmp309:
	callq	__ZN3std5panic12catch_unwind17h21227bc73b1d453fE
Ltmp310:
	movq	%rdx, -272(%rbp)
	movq	%rax, -264(%rbp)
	jmp	LBB18_3
Ltmp328:
LBB18_1:
	.loc	1 1017 5 is_stmt 1
	callq	__ZN4core9panicking19panic_cannot_unwind17h1fbca7e1d7f56ae1E
LBB18_2:
Ltmp325:
	.loc	1 0 5 is_stmt 0
	movq	%rax, %rcx
	movl	%edx, %eax
	movq	%rcx, -56(%rbp)
	movl	%eax, -48(%rbp)
	jmp	LBB18_1
LBB18_3:
	movq	-272(%rbp), %rax
	movq	-264(%rbp), %rcx
Ltmp329:
	.loc	1 1033 25 is_stmt 1
	movq	%rcx, -248(%rbp)
	movq	%rax, -240(%rbp)
	.loc	1 1033 16 is_stmt 0
	movq	-248(%rbp), %rdx
	movl	$1, %eax
	xorl	%ecx, %ecx
	cmpq	$0, %rdx
	cmoveq	%rcx, %rax
	cmpq	$1, %rax
	jne	LBB18_5
Ltmp313:
Ltmp330:
	.loc	1 1038 13 is_stmt 1
	callq	__ZN3std3sys4unix5stdio12panic_output17hbdb9d595bb134988E
Ltmp314:
	movb	%al, -273(%rbp)
	jmp	LBB18_7
Ltmp331:
LBB18_5:
Ltmp311:
	.loc	1 0 13 is_stmt 0
	leaq	-248(%rbp), %rdi
	.loc	1 1040 5 is_stmt 1
	callq	__ZN4core3ptr130drop_in_place$LT$core..result..Result$LT$$LP$$RP$$C$alloc..boxed..Box$LT$dyn$u20$core..any..Any$u2b$core..marker..Send$GT$$GT$$GT$17h7b8e74dc8f352393E
Ltmp312:
	jmp	LBB18_6
LBB18_6:
	.loc	1 1040 6 is_stmt 0
	addq	$304, %rsp
	popq	%rbp
	retq
LBB18_7:
	.loc	1 0 6
	movb	-273(%rbp), %al
Ltmp332:
	.loc	1 1038 13 is_stmt 1
	andb	$1, %al
	movb	%al, -209(%rbp)
	movb	-209(%rbp), %al
	andb	$1, %al
	movzbl	%al, %eax
	cmpq	$1, %rax
	jne	LBB18_9
Ltmp315:
	leaq	l___unnamed_14(%rip), %rsi
	leaq	l___unnamed_15(%rip), %rcx
	xorl	%eax, %eax
	movl	%eax, %r8d
	leaq	-112(%rbp), %rdi
	movl	$1, %edx
	callq	__ZN4core3fmt9Arguments6new_v117h102b97225bd45303E
Ltmp316:
	jmp	LBB18_10
Ltmp333:
LBB18_9:
Ltmp323:
	.loc	1 1038 13 is_stmt 0
	callq	__ZN3std3sys4unix14abort_internal17h2d537589b8bbc756E
Ltmp324:
	jmp	LBB18_16
LBB18_10:
Ltmp334:
	.loc	1 1038 13
	leaq	-112(%rbp), %rax
	movq	%rax, -40(%rbp)
Ltmp335:
	.file	19 "/rustc/2c8cc343237b8f7d5a3c3703e3a87f2eb2c54a74/library/core/src/fmt" "mod.rs"
	.loc	19 328 23 is_stmt 1
	leaq	-112(%rbp), %rax
	movq	%rax, -32(%rbp)
	.loc	19 328 26 is_stmt 0
	movq	__ZN59_$LT$core..fmt..Arguments$u20$as$u20$core..fmt..Display$GT$3fmt17h99a13c0e04235e08E@GOTPCREL(%rip), %rax
	movq	%rax, -24(%rbp)
Ltmp336:
	.loc	19 347 42 is_stmt 1
	movq	__ZN59_$LT$core..fmt..Arguments$u20$as$u20$core..fmt..Display$GT$3fmt17h99a13c0e04235e08E@GOTPCREL(%rip), %rax
	movq	%rax, -16(%rbp)
	movq	-16(%rbp), %rax
	movq	%rax, -288(%rbp)
	.loc	19 347 68 is_stmt 0
	leaq	-112(%rbp), %rax
	movq	%rax, -8(%rbp)
	movq	-8(%rbp), %rax
	movq	%rax, -296(%rbp)
	.loc	19 0 68
	movq	-288(%rbp), %rax
	movq	-296(%rbp), %rcx
	.loc	19 347 18
	movq	%rcx, -128(%rbp)
	movq	%rax, -120(%rbp)
Ltmp337:
	.loc	1 1038 13 is_stmt 1
	movq	-128(%rbp), %rcx
	movq	-120(%rbp), %rax
	movq	%rcx, -144(%rbp)
	movq	%rax, -136(%rbp)
Ltmp317:
	leaq	l___unnamed_16(%rip), %rsi
	leaq	-192(%rbp), %rdi
	movl	$2, %edx
	leaq	-144(%rbp), %rcx
	movl	$1, %r8d
	callq	__ZN4core3fmt9Arguments6new_v117h102b97225bd45303E
Ltmp318:
	jmp	LBB18_13
LBB18_13:
Ltmp319:
	.loc	1 0 13 is_stmt 0
	leaq	-208(%rbp), %rdi
	leaq	-192(%rbp), %rsi
	.loc	1 1038 13
	callq	__ZN3std2io5Write9write_fmt17h18ee24e90bf0984fE
Ltmp320:
	movq	%rax, -304(%rbp)
	jmp	LBB18_14
LBB18_14:
	.loc	1 0 13
	movq	-304(%rbp), %rax
	.loc	1 1038 13
	movq	%rax, -200(%rbp)
Ltmp321:
	leaq	-200(%rbp), %rdi
	callq	__ZN4core3ptr81drop_in_place$LT$core..result..Result$LT$$LP$$RP$$C$std..io..error..Error$GT$$GT$17he2794a278bf7605eE
Ltmp322:
	jmp	LBB18_15
Ltmp338:
LBB18_15:
	.loc	1 1038 13
	jmp	LBB18_9
Ltmp339:
LBB18_16:
	.loc	1 0 13
	ud2
Lfunc_end18:
	.cfi_endproc
	.file	20 "/rustc/2c8cc343237b8f7d5a3c3703e3a87f2eb2c54a74/library/std/src" "rt.rs"
	.section	__TEXT,__gcc_except_tab
	.p2align	2
GCC_except_table18:
Lexception7:
	.byte	255
	.byte	255
	.byte	1
	.uleb128 Lcst_end7-Lcst_begin7
Lcst_begin7:
	.uleb128 Ltmp309-Lfunc_begin18
	.uleb128 Ltmp322-Ltmp309
	.uleb128 Ltmp325-Lfunc_begin18
	.byte	0
Lcst_end7:
	.p2align	2

	.section	__TEXT,__text,regular,pure_instructions
	.globl	__ZN3std6thread5local4fast13destroy_value28_$u7b$$u7b$closure$u7d$$u7d$17h82f419b350b9444bE
	.p2align	4, 0x90
__ZN3std6thread5local4fast13destroy_value28_$u7b$$u7b$closure$u7d$$u7d$17h82f419b350b9444bE:
Lfunc_begin19:
	.loc	1 1033 0 is_stmt 1
	.cfi_startproc
	.cfi_personality 155, _rust_eh_personality
	.cfi_lsda 16, Lexception8
	pushq	%rbp
	.cfi_def_cfa_offset 16
	.cfi_offset %rbp, -16
	movq	%rsp, %rbp
	.cfi_def_cfa_register %rbp
	subq	$80, %rsp
	movq	%rdi, -80(%rbp)
	movq	%rdi, -40(%rbp)
Ltmp348:
	.loc	1 1034 25 prologue_end
	movq	(%rdi), %rax
	movq	(%rax), %rdi
	movb	$1, -41(%rbp)
	callq	__ZN3std6thread5local4lazy21LazyKeyInner$LT$T$GT$4take17h8ceefc296541727fE
	movq	-80(%rbp), %rdi
	movq	%rax, -64(%rbp)
Ltmp349:
	.loc	1 1035 13
	movq	(%rdi), %rax
	movq	(%rax), %rdi
	addq	$8, %rdi
	movq	%rdi, -32(%rbp)
Ltmp340:
	movl	$2, %esi
Ltmp350:
	.loc	18 363 19
	callq	__ZN4core4cell13Cell$LT$T$GT$7replace17hd96de94c594fe292E
Ltmp341:
	movb	%al, -65(%rbp)
	jmp	LBB19_3
Ltmp351:
LBB19_1:
	.loc	1 1037 9
	testb	$1, -41(%rbp)
	jne	LBB19_6
	jmp	LBB19_5
LBB19_2:
Ltmp344:
	.loc	1 0 9 is_stmt 0
	movq	%rax, %rcx
	movl	%edx, %eax
	movq	%rcx, -24(%rbp)
	movl	%eax, -16(%rbp)
	jmp	LBB19_1
LBB19_3:
	movb	-65(%rbp), %al
Ltmp352:
	.loc	18 363 19 is_stmt 1
	movb	%al, -1(%rbp)
Ltmp353:
	.loc	1 1036 18
	movb	$0, -41(%rbp)
	movq	-64(%rbp), %rax
	movq	%rax, -56(%rbp)
Ltmp342:
	leaq	-56(%rbp), %rdi
Ltmp354:
	.loc	17 980 24
	callq	__ZN4core3ptr127drop_in_place$LT$core..option..Option$LT$alloc..rc..Rc$LT$core..cell..RefCell$LT$nanorand..rand..wyrand..WyRand$GT$$GT$$GT$$GT$17h772655e0b17eba80E
Ltmp343:
	jmp	LBB19_4
Ltmp355:
LBB19_4:
	.loc	1 1037 10
	addq	$80, %rsp
	popq	%rbp
	retq
LBB19_5:
	.loc	1 1033 69
	movq	-24(%rbp), %rdi
	callq	__Unwind_Resume
LBB19_6:
Ltmp345:
	.loc	1 0 69 is_stmt 0
	leaq	-64(%rbp), %rdi
	.loc	1 1037 9 is_stmt 1
	callq	__ZN4core3ptr127drop_in_place$LT$core..option..Option$LT$alloc..rc..Rc$LT$core..cell..RefCell$LT$nanorand..rand..wyrand..WyRand$GT$$GT$$GT$$GT$17h772655e0b17eba80E
Ltmp346:
	jmp	LBB19_5
LBB19_7:
Ltmp347:
	.loc	1 1033 69
	callq	__ZN4core9panicking19panic_cannot_unwind17h1fbca7e1d7f56ae1E
Ltmp356:
Lfunc_end19:
	.cfi_endproc
	.section	__TEXT,__gcc_except_tab
	.p2align	2
GCC_except_table19:
Lexception8:
	.byte	255
	.byte	255
	.byte	1
	.uleb128 Lcst_end8-Lcst_begin8
Lcst_begin8:
	.uleb128 Lfunc_begin19-Lfunc_begin19
	.uleb128 Ltmp340-Lfunc_begin19
	.byte	0
	.byte	0
	.uleb128 Ltmp340-Lfunc_begin19
	.uleb128 Ltmp343-Ltmp340
	.uleb128 Ltmp344-Lfunc_begin19
	.byte	0
	.uleb128 Ltmp343-Lfunc_begin19
	.uleb128 Ltmp345-Ltmp343
	.byte	0
	.byte	0
	.uleb128 Ltmp345-Lfunc_begin19
	.uleb128 Ltmp346-Ltmp345
	.uleb128 Ltmp347-Lfunc_begin19
	.byte	0
Lcst_end8:
	.p2align	2

	.section	__TEXT,__text,regular,pure_instructions
	.globl	__ZN3std6thread5local4lazy21LazyKeyInner$LT$T$GT$10initialize17h8cfaad292ee143a2E
	.p2align	4, 0x90
__ZN3std6thread5local4lazy21LazyKeyInner$LT$T$GT$10initialize17h8cfaad292ee143a2E:
Lfunc_begin20:
	.loc	1 807 0
	.cfi_startproc
	.cfi_personality 155, _rust_eh_personality
	.cfi_lsda 16, Lexception9
	pushq	%rbp
	.cfi_def_cfa_offset 16
	.cfi_offset %rbp, -16
	movq	%rsp, %rbp
	.cfi_def_cfa_register %rbp
	subq	$112, %rsp
	movq	%rsi, -104(%rbp)
	movq	%rdi, %rax
	movq	-104(%rbp), %rdi
	movq	%rax, -96(%rbp)
	movq	%rax, -56(%rbp)
	movq	%rdi, -48(%rbp)
Ltmp367:
	.loc	1 810 25 prologue_end
	callq	__ZN8nanorand3tls6WYRAND7__getit28_$u7b$$u7b$closure$u7d$$u7d$17hbdb103e03bf9e2c9E
	movq	-96(%rbp), %rdi
	movq	%rax, -80(%rbp)
Ltmp368:
	.loc	1 811 23
	movq	%rdi, -40(%rbp)
Ltmp369:
	.loc	18 1999 9
	movq	%rdi, -32(%rbp)
Ltmp370:
	.loc	1 831 54
	movq	-80(%rbp), %rax
	.loc	1 831 49 is_stmt 0
	movq	%rax, -64(%rbp)
	.loc	1 831 25
	movq	-64(%rbp), %rsi
Ltmp357:
	callq	__ZN4core3mem7replace17hb8c61441f52d878aE
Ltmp358:
	movq	%rax, -88(%rbp)
	jmp	LBB20_3
Ltmp371:
LBB20_1:
	.loc	1 848 9 is_stmt 1
	xorl	%eax, %eax
	testb	$1, %al
	jne	LBB20_9
	jmp	LBB20_8
LBB20_2:
Ltmp363:
	.loc	1 0 9 is_stmt 0
	movq	%rax, %rcx
	movl	%edx, %eax
	movq	%rcx, -24(%rbp)
	movl	%eax, -16(%rbp)
	jmp	LBB20_1
LBB20_3:
	movq	-88(%rbp), %rax
Ltmp372:
	.loc	1 831 25 is_stmt 1
	movq	%rax, -72(%rbp)
Ltmp359:
	leaq	-72(%rbp), %rdi
	.loc	1 831 61 is_stmt 0
	callq	__ZN4core3ptr127drop_in_place$LT$core..option..Option$LT$alloc..rc..Rc$LT$core..cell..RefCell$LT$nanorand..rand..wyrand..WyRand$GT$$GT$$GT$$GT$17h772655e0b17eba80E
Ltmp360:
	jmp	LBB20_4
LBB20_4:
	.loc	1 0 61
	movq	-96(%rbp), %rax
	.loc	1 843 23 is_stmt 1
	movq	(%rax), %rdx
	movl	$1, %eax
	xorl	%ecx, %ecx
	cmpq	$0, %rdx
	cmoveq	%rcx, %rax
	.loc	1 843 17 is_stmt 0
	cmpq	$0, %rax
	jne	LBB20_6
Ltmp361:
	.loc	1 845 29 is_stmt 1
	callq	__ZN4core4hint21unreachable_unchecked17ha7cfcd75f4fdf098E
Ltmp362:
	jmp	LBB20_7
LBB20_6:
	.loc	1 0 29 is_stmt 0
	movq	-96(%rbp), %rax
	.loc	1 844 26 is_stmt 1
	movq	%rax, -8(%rbp)
Ltmp373:
	.loc	1 848 10
	addq	$112, %rsp
	popq	%rbp
	retq
LBB20_7:
	.loc	1 0 10 is_stmt 0
	ud2
LBB20_8:
	.loc	1 807 9 is_stmt 1
	movq	-24(%rbp), %rdi
	callq	__Unwind_Resume
LBB20_9:
Ltmp364:
	.loc	1 0 9 is_stmt 0
	leaq	-80(%rbp), %rdi
	.loc	1 848 9 is_stmt 1
	callq	__ZN4core3ptr99drop_in_place$LT$alloc..rc..Rc$LT$core..cell..RefCell$LT$nanorand..rand..wyrand..WyRand$GT$$GT$$GT$17hbde612fe1a15478dE
Ltmp365:
	jmp	LBB20_8
LBB20_10:
Ltmp366:
	.loc	1 807 9
	callq	__ZN4core9panicking19panic_cannot_unwind17h1fbca7e1d7f56ae1E
Ltmp374:
Lfunc_end20:
	.cfi_endproc
	.section	__TEXT,__gcc_except_tab
	.p2align	2
GCC_except_table20:
Lexception9:
	.byte	255
	.byte	255
	.byte	1
	.uleb128 Lcst_end9-Lcst_begin9
Lcst_begin9:
	.uleb128 Lfunc_begin20-Lfunc_begin20
	.uleb128 Ltmp357-Lfunc_begin20
	.byte	0
	.byte	0
	.uleb128 Ltmp357-Lfunc_begin20
	.uleb128 Ltmp362-Ltmp357
	.uleb128 Ltmp363-Lfunc_begin20
	.byte	0
	.uleb128 Ltmp362-Lfunc_begin20
	.uleb128 Ltmp364-Ltmp362
	.byte	0
	.byte	0
	.uleb128 Ltmp364-Lfunc_begin20
	.uleb128 Ltmp365-Ltmp364
	.uleb128 Ltmp366-Lfunc_begin20
	.byte	0
Lcst_end9:
	.p2align	2

	.section	__TEXT,__text,regular,pure_instructions
	.globl	__ZN3std6thread5local4lazy21LazyKeyInner$LT$T$GT$3get17hb16d78db3ff1ac4eE
	.p2align	4, 0x90
__ZN3std6thread5local4lazy21LazyKeyInner$LT$T$GT$3get17hb16d78db3ff1ac4eE:
Lfunc_begin21:
	.loc	1 797 0
	.cfi_startproc
	pushq	%rbp
	.cfi_def_cfa_offset 16
	.cfi_offset %rbp, -16
	movq	%rsp, %rbp
	.cfi_def_cfa_register %rbp
	subq	$48, %rsp
	movq	%rdi, -48(%rbp)
	movq	%rdi, -32(%rbp)
Ltmp375:
	.loc	1 802 24 prologue_end
	movq	%rdi, -24(%rbp)
	.loc	1 802 22 is_stmt 0
	movq	%rdi, -16(%rbp)
Ltmp376:
	.loc	15 675 15 is_stmt 1
	movq	(%rdi), %rdx
	movl	$1, %eax
	xorl	%ecx, %ecx
	cmpq	$0, %rdx
	cmoveq	%rcx, %rax
	.loc	15 675 9 is_stmt 0
	cmpq	$0, %rax
	jne	LBB21_2
	.loc	15 677 21 is_stmt 1
	movq	$0, -40(%rbp)
	jmp	LBB21_3
LBB21_2:
	.loc	15 0 21 is_stmt 0
	movq	-48(%rbp), %rax
	.loc	15 676 18 is_stmt 1
	movq	%rax, -8(%rbp)
Ltmp377:
	.loc	15 676 28 is_stmt 0
	movq	%rax, -40(%rbp)
Ltmp378:
LBB21_3:
	.loc	1 803 10 is_stmt 1
	movq	-40(%rbp), %rax
	addq	$48, %rsp
	popq	%rbp
	retq
Ltmp379:
Lfunc_end21:
	.cfi_endproc

	.globl	__ZN3std6thread5local4lazy21LazyKeyInner$LT$T$GT$4take17h8ceefc296541727fE
	.p2align	4, 0x90
__ZN3std6thread5local4lazy21LazyKeyInner$LT$T$GT$4take17h8ceefc296541727fE:
Lfunc_begin22:
	.loc	1 854 0
	.cfi_startproc
	pushq	%rbp
	.cfi_def_cfa_offset 16
	.cfi_offset %rbp, -16
	movq	%rsp, %rbp
	.cfi_def_cfa_register %rbp
	subq	$32, %rsp
	movq	%rdi, -24(%rbp)
Ltmp380:
	.loc	1 856 24 prologue_end
	movq	%rdi, -16(%rbp)
	.loc	1 856 22 is_stmt 0
	movq	%rdi, -8(%rbp)
Ltmp381:
	.loc	15 1623 28 is_stmt 1
	movq	$0, -32(%rbp)
	.loc	15 1623 9 is_stmt 0
	movq	-32(%rbp), %rsi
	callq	__ZN4core3mem7replace17hb8c61441f52d878aE
Ltmp382:
	.loc	1 857 10 is_stmt 1
	addq	$32, %rsp
	popq	%rbp
	retq
Ltmp383:
Lfunc_end22:
	.cfi_endproc

	.globl	__ZN3std9panicking3try17h6cdc84503cbdc359E
	.p2align	4, 0x90
__ZN3std9panicking3try17h6cdc84503cbdc359E:
Lfunc_begin23:
	.file	21 "/rustc/2c8cc343237b8f7d5a3c3703e3a87f2eb2c54a74/library/std/src" "panicking.rs"
	.loc	21 403 0
	.cfi_startproc
	pushq	%rbp
	.cfi_def_cfa_offset 16
	.cfi_offset %rbp, -16
	movq	%rsp, %rbp
	.cfi_def_cfa_register %rbp
	subq	$96, %rsp
	movq	%rdi, -56(%rbp)
Ltmp384:
	.loc	21 434 48 prologue_end
	movq	%rdi, -40(%rbp)
Ltmp385:
	.file	22 "/rustc/2c8cc343237b8f7d5a3c3703e3a87f2eb2c54a74/library/core/src/mem" "manually_drop.rs"
	.loc	22 71 9
	movq	%rdi, -64(%rbp)
Ltmp386:
	.loc	21 434 20
	movq	-64(%rbp), %rax
	movq	%rax, -80(%rbp)
Ltmp387:
	.loc	21 436 20
	leaq	-80(%rbp), %rax
	movq	%rax, -32(%rbp)
Ltmp388:
	.loc	21 447 19
	leaq	__ZN3std9panicking3try7do_call17h4c4e96d0c31fe0b9E(%rip), %rdi
	leaq	-80(%rbp), %rsi
	leaq	__ZN3std9panicking3try8do_catch17h8187b42324e282e7E(%rip), %rdx
	callq	___rust_try
	movl	%eax, -20(%rbp)
	cmpl	$0, -20(%rbp)
	jne	LBB23_2
	.loc	21 448 13
	movq	$0, -96(%rbp)
	.loc	21 447 16
	jmp	LBB23_3
LBB23_2:
	.loc	21 450 42
	movq	-80(%rbp), %rcx
	movq	-72(%rbp), %rax
	movq	%rcx, -16(%rbp)
	movq	%rax, -8(%rbp)
	.loc	21 450 13 is_stmt 0
	movq	%rcx, -96(%rbp)
	movq	%rax, -88(%rbp)
Ltmp389:
LBB23_3:
	.loc	21 512 2 is_stmt 1
	movq	-96(%rbp), %rax
	movq	-88(%rbp), %rdx
	addq	$96, %rsp
	popq	%rbp
	retq
Ltmp390:
Lfunc_end23:
	.cfi_endproc

	.globl	__ZN3std9panicking3try7do_call17h4c4e96d0c31fe0b9E
	.p2align	4, 0x90
__ZN3std9panicking3try7do_call17h4c4e96d0c31fe0b9E:
Lfunc_begin24:
	.loc	21 477 0
	.cfi_startproc
	pushq	%rbp
	.cfi_def_cfa_offset 16
	.cfi_offset %rbp, -16
	movq	%rsp, %rbp
	.cfi_def_cfa_register %rbp
	subq	$96, %rsp
	movq	%rdi, -80(%rbp)
Ltmp391:
	.loc	21 480 24 prologue_end
	movq	%rdi, -64(%rbp)
Ltmp392:
	.loc	21 481 24
	movq	%rdi, -56(%rbp)
Ltmp393:
	.loc	21 482 40
	movq	%rdi, -48(%rbp)
Ltmp394:
	.loc	22 113 28
	movq	%rdi, -40(%rbp)
Ltmp395:
	.file	23 "/rustc/2c8cc343237b8f7d5a3c3703e3a87f2eb2c54a74/library/core/src/ptr" "mod.rs"
	.loc	23 1157 34
	leaq	-88(%rbp), %rax
	movq	%rax, -32(%rbp)
	.loc	23 1157 9 is_stmt 0
	movq	(%rdi), %rax
	movq	%rax, -88(%rbp)
	.loc	23 1158 9 is_stmt 1
	movq	-88(%rbp), %rdi
	movq	%rdi, -24(%rbp)
Ltmp396:
	.file	24 "/rustc/2c8cc343237b8f7d5a3c3703e3a87f2eb2c54a74/library/core/src/mem" "maybe_uninit.rs"
	.loc	24 627 38
	movq	%rdi, -16(%rbp)
Ltmp397:
	.loc	22 89 9
	movq	%rdi, -8(%rbp)
Ltmp398:
	.loc	21 483 40
	callq	__ZN115_$LT$core..panic..unwind_safe..AssertUnwindSafe$LT$F$GT$$u20$as$u20$core..ops..function..FnOnce$LT$$LP$$RP$$GT$$GT$9call_once17h1ee7115318c5dc9eE
Ltmp399:
	.loc	21 485 6
	addq	$96, %rsp
	popq	%rbp
	retq
Ltmp400:
Lfunc_end24:
	.cfi_endproc

	.globl	__ZN3std9panicking3try8do_catch17h8187b42324e282e7E
	.p2align	4, 0x90
__ZN3std9panicking3try8do_catch17h8187b42324e282e7E:
Lfunc_begin25:
	.loc	21 499 0
	.cfi_startproc
	pushq	%rbp
	.cfi_def_cfa_offset 16
	.cfi_offset %rbp, -16
	movq	%rsp, %rbp
	.cfi_def_cfa_register %rbp
	subq	$96, %rsp
	movq	%rsi, -96(%rbp)
	movq	%rdi, %rax
	movq	-96(%rbp), %rdi
	movq	%rax, -88(%rbp)
	movq	%rax, -64(%rbp)
	movq	%rdi, -56(%rbp)
Ltmp401:
	.loc	21 506 24 prologue_end
	movq	%rax, -48(%rbp)
Ltmp402:
	.loc	21 507 24
	movq	%rax, -40(%rbp)
Ltmp403:
	.loc	21 508 23
	callq	__ZN3std9panicking3try7cleanup17h75e8c286968d572cE
	movq	-88(%rbp), %rdi
	movq	%rax, -32(%rbp)
	movq	%rdx, -24(%rbp)
Ltmp404:
	.loc	21 509 40
	movq	%rax, -16(%rbp)
	movq	%rdx, -8(%rbp)
Ltmp405:
	.loc	22 71 9
	movq	%rax, -80(%rbp)
	movq	%rdx, -72(%rbp)
Ltmp406:
	.loc	21 509 13
	movq	-80(%rbp), %rcx
	movq	-72(%rbp), %rax
	movq	%rcx, (%rdi)
	movq	%rax, 8(%rdi)
Ltmp407:
	.loc	21 511 6
	addq	$96, %rsp
	popq	%rbp
	retq
Ltmp408:
Lfunc_end25:
	.cfi_endproc

	.globl	__ZN44_$LT$$RF$T$u20$as$u20$core..fmt..Pointer$GT$3fmt17h530adc5397d61c61E
	.p2align	4, 0x90
__ZN44_$LT$$RF$T$u20$as$u20$core..fmt..Pointer$GT$3fmt17h530adc5397d61c61E:
Lfunc_begin26:
	.loc	19 2525 0
	.cfi_startproc
	pushq	%rbp
	.cfi_def_cfa_offset 16
	.cfi_offset %rbp, -16
	movq	%rsp, %rbp
	.cfi_def_cfa_register %rbp
	subq	$32, %rsp
	movq	%rdi, -16(%rbp)
	movq	%rsi, -8(%rbp)
Ltmp409:
	.loc	19 2526 24 prologue_end
	movq	(%rdi), %rax
	movq	%rax, -24(%rbp)
	.loc	19 2526 9 is_stmt 0
	leaq	-24(%rbp), %rdi
	callq	__ZN54_$LT$$BP$const$u20$T$u20$as$u20$core..fmt..Pointer$GT$3fmt17h7118f36bcf1ae1a7E
	.loc	19 2527 6 is_stmt 1
	andb	$1, %al
	movzbl	%al, %eax
	addq	$32, %rsp
	popq	%rbp
	retq
Ltmp410:
Lfunc_end26:
	.cfi_endproc

	.globl	__ZN44_$LT$$RF$T$u20$as$u20$core..fmt..Pointer$GT$3fmt17he3486dc81df9da60E
	.p2align	4, 0x90
__ZN44_$LT$$RF$T$u20$as$u20$core..fmt..Pointer$GT$3fmt17he3486dc81df9da60E:
Lfunc_begin27:
	.loc	19 2525 0
	.cfi_startproc
	pushq	%rbp
	.cfi_def_cfa_offset 16
	.cfi_offset %rbp, -16
	movq	%rsp, %rbp
	.cfi_def_cfa_register %rbp
	subq	$32, %rsp
	movq	%rdi, -16(%rbp)
	movq	%rsi, -8(%rbp)
Ltmp411:
	.loc	19 2526 24 prologue_end
	movq	(%rdi), %rax
	movq	%rax, -24(%rbp)
	.loc	19 2526 9 is_stmt 0
	leaq	-24(%rbp), %rdi
	callq	__ZN54_$LT$$BP$const$u20$T$u20$as$u20$core..fmt..Pointer$GT$3fmt17hea033daa71faacc7E
	.loc	19 2527 6 is_stmt 1
	andb	$1, %al
	movzbl	%al, %eax
	addq	$32, %rsp
	popq	%rbp
	retq
Ltmp412:
Lfunc_end27:
	.cfi_endproc

	.p2align	4, 0x90
__ZN45_$LT$u8$u20$as$u20$core..default..Default$GT$7default17h3c58e45eb451bb3dE:
Lfunc_begin28:
	.file	25 "/rustc/2c8cc343237b8f7d5a3c3703e3a87f2eb2c54a74/library/core/src" "default.rs"
	.loc	25 197 0
	.cfi_startproc
	pushq	%rbp
	.cfi_def_cfa_offset 16
	.cfi_offset %rbp, -16
	movq	%rsp, %rbp
	.cfi_def_cfa_register %rbp
Ltmp413:
	.loc	25 199 14 prologue_end
	xorl	%eax, %eax
	popq	%rbp
	retq
Ltmp414:
Lfunc_end28:
	.cfi_endproc

	.globl	__ZN4core3fmt10ArgumentV111new_display17h5b5776aa774e32eeE
	.p2align	4, 0x90
__ZN4core3fmt10ArgumentV111new_display17h5b5776aa774e32eeE:
Lfunc_begin29:
	.loc	19 327 0
	.cfi_startproc
	pushq	%rbp
	.cfi_def_cfa_offset 16
	.cfi_offset %rbp, -16
	movq	%rsp, %rbp
	.cfi_def_cfa_register %rbp
	subq	$56, %rsp
	movq	%rdi, -40(%rbp)
Ltmp415:
	.loc	19 328 23 prologue_end
	movq	%rdi, -32(%rbp)
	.loc	19 328 26 is_stmt 0
	movq	__ZN59_$LT$core..fmt..Arguments$u20$as$u20$core..fmt..Display$GT$3fmt17h99a13c0e04235e08E@GOTPCREL(%rip), %rax
	movq	%rax, -24(%rbp)
Ltmp416:
	.loc	19 347 42 is_stmt 1
	movq	%rax, -16(%rbp)
	movq	-16(%rbp), %rax
	.loc	19 347 68 is_stmt 0
	movq	%rdi, -8(%rbp)
	movq	-8(%rbp), %rcx
	.loc	19 347 18
	movq	%rcx, -56(%rbp)
	movq	%rax, -48(%rbp)
Ltmp417:
	.loc	19 329 10 is_stmt 1
	movq	-56(%rbp), %rax
	movq	-48(%rbp), %rdx
	addq	$56, %rsp
	popq	%rbp
	retq
Ltmp418:
Lfunc_end29:
	.cfi_endproc

	.globl	__ZN4core3fmt10ArgumentV111new_pointer17h33f52e055a2c77c1E
	.p2align	4, 0x90
__ZN4core3fmt10ArgumentV111new_pointer17h33f52e055a2c77c1E:
Lfunc_begin30:
	.loc	19 327 0
	.cfi_startproc
	pushq	%rbp
	.cfi_def_cfa_offset 16
	.cfi_offset %rbp, -16
	movq	%rsp, %rbp
	.cfi_def_cfa_register %rbp
	subq	$56, %rsp
	movq	%rdi, -40(%rbp)
Ltmp419:
	.loc	19 328 23 prologue_end
	movq	%rdi, -32(%rbp)
	.loc	19 328 26 is_stmt 0
	leaq	__ZN44_$LT$$RF$T$u20$as$u20$core..fmt..Pointer$GT$3fmt17he3486dc81df9da60E(%rip), %rax
	movq	%rax, -24(%rbp)
Ltmp420:
	.loc	19 347 42 is_stmt 1
	movq	%rax, -16(%rbp)
	movq	-16(%rbp), %rax
	.loc	19 347 68 is_stmt 0
	movq	%rdi, -8(%rbp)
	movq	-8(%rbp), %rcx
	.loc	19 347 18
	movq	%rcx, -56(%rbp)
	movq	%rax, -48(%rbp)
Ltmp421:
	.loc	19 329 10 is_stmt 1
	movq	-56(%rbp), %rax
	movq	-48(%rbp), %rdx
	addq	$56, %rsp
	popq	%rbp
	retq
Ltmp422:
Lfunc_end30:
	.cfi_endproc

	.globl	__ZN4core3fmt10ArgumentV111new_pointer17hcd06893d68196927E
	.p2align	4, 0x90
__ZN4core3fmt10ArgumentV111new_pointer17hcd06893d68196927E:
Lfunc_begin31:
	.loc	19 327 0
	.cfi_startproc
	pushq	%rbp
	.cfi_def_cfa_offset 16
	.cfi_offset %rbp, -16
	movq	%rsp, %rbp
	.cfi_def_cfa_register %rbp
	subq	$56, %rsp
	movq	%rdi, -40(%rbp)
Ltmp423:
	.loc	19 328 23 prologue_end
	movq	%rdi, -32(%rbp)
	.loc	19 328 26 is_stmt 0
	leaq	__ZN44_$LT$$RF$T$u20$as$u20$core..fmt..Pointer$GT$3fmt17h530adc5397d61c61E(%rip), %rax
	movq	%rax, -24(%rbp)
Ltmp424:
	.loc	19 347 42 is_stmt 1
	movq	%rax, -16(%rbp)
	movq	-16(%rbp), %rax
	.loc	19 347 68 is_stmt 0
	movq	%rdi, -8(%rbp)
	movq	-8(%rbp), %rcx
	.loc	19 347 18
	movq	%rcx, -56(%rbp)
	movq	%rax, -48(%rbp)
Ltmp425:
	.loc	19 329 10 is_stmt 1
	movq	-56(%rbp), %rax
	movq	-48(%rbp), %rdx
	addq	$56, %rsp
	popq	%rbp
	retq
Ltmp426:
Lfunc_end31:
	.cfi_endproc

	.globl	__ZN4core3fmt10ArgumentV113new_lower_hex17h812b3e689ecaa165E
	.p2align	4, 0x90
__ZN4core3fmt10ArgumentV113new_lower_hex17h812b3e689ecaa165E:
Lfunc_begin32:
	.loc	19 327 0
	.cfi_startproc
	pushq	%rbp
	.cfi_def_cfa_offset 16
	.cfi_offset %rbp, -16
	movq	%rsp, %rbp
	.cfi_def_cfa_register %rbp
	subq	$56, %rsp
	movq	%rdi, -40(%rbp)
Ltmp427:
	.loc	19 328 23 prologue_end
	movq	%rdi, -32(%rbp)
	.loc	19 328 26 is_stmt 0
	movq	__ZN4core3fmt3num54_$LT$impl$u20$core..fmt..LowerHex$u20$for$u20$u128$GT$3fmt17h88b81feff6150753E@GOTPCREL(%rip), %rax
	movq	%rax, -24(%rbp)
Ltmp428:
	.loc	19 347 42 is_stmt 1
	movq	%rax, -16(%rbp)
	movq	-16(%rbp), %rax
	.loc	19 347 68 is_stmt 0
	movq	%rdi, -8(%rbp)
	movq	-8(%rbp), %rcx
	.loc	19 347 18
	movq	%rcx, -56(%rbp)
	movq	%rax, -48(%rbp)
Ltmp429:
	.loc	19 329 10 is_stmt 1
	movq	-56(%rbp), %rax
	movq	-48(%rbp), %rdx
	addq	$56, %rsp
	popq	%rbp
	retq
Ltmp430:
Lfunc_end32:
	.cfi_endproc

	.globl	__ZN4core3fmt10ArgumentV113new_lower_hex17hf2240fd4a1e2b621E
	.p2align	4, 0x90
__ZN4core3fmt10ArgumentV113new_lower_hex17hf2240fd4a1e2b621E:
Lfunc_begin33:
	.loc	19 327 0
	.cfi_startproc
	pushq	%rbp
	.cfi_def_cfa_offset 16
	.cfi_offset %rbp, -16
	movq	%rsp, %rbp
	.cfi_def_cfa_register %rbp
	subq	$56, %rsp
	movq	%rdi, -40(%rbp)
Ltmp431:
	.loc	19 328 23 prologue_end
	movq	%rdi, -32(%rbp)
	.loc	19 328 26 is_stmt 0
	movq	__ZN4core3fmt3num53_$LT$impl$u20$core..fmt..LowerHex$u20$for$u20$u64$GT$3fmt17h9f1a647630acba52E@GOTPCREL(%rip), %rax
	movq	%rax, -24(%rbp)
Ltmp432:
	.loc	19 347 42 is_stmt 1
	movq	%rax, -16(%rbp)
	movq	-16(%rbp), %rax
	.loc	19 347 68 is_stmt 0
	movq	%rdi, -8(%rbp)
	movq	-8(%rbp), %rcx
	.loc	19 347 18
	movq	%rcx, -56(%rbp)
	movq	%rax, -48(%rbp)
Ltmp433:
	.loc	19 329 10 is_stmt 1
	movq	-56(%rbp), %rax
	movq	-48(%rbp), %rdx
	addq	$56, %rsp
	popq	%rbp
	retq
Ltmp434:
Lfunc_end33:
	.cfi_endproc

	.globl	__ZN4core3fmt5Write10write_char17h4f7e04bcf4b7d2c4E
	.p2align	4, 0x90
__ZN4core3fmt5Write10write_char17h4f7e04bcf4b7d2c4E:
Lfunc_begin34:
	.loc	19 168 0
	.cfi_startproc
	pushq	%rbp
	.cfi_def_cfa_offset 16
	.cfi_offset %rbp, -16
	movq	%rsp, %rbp
	.cfi_def_cfa_register %rbp
	subq	$80, %rsp
	movq	%rdi, -64(%rbp)
	movl	%esi, -68(%rbp)
	movq	%rdi, -48(%rbp)
	movl	%esi, -40(%rbp)
Ltmp435:
	.loc	19 169 24 prologue_end
	movl	%esi, -36(%rbp)
	.loc	19 169 43 is_stmt 0
	leaq	-52(%rbp), %rdi
	xorl	%esi, %esi
	movl	$4, %edx
	callq	_memset
	movl	-68(%rbp), %edi
	.loc	19 169 38
	leaq	-52(%rbp), %rax
	movq	%rax, -32(%rbp)
	movq	$4, -24(%rbp)
Ltmp436:
	.file	26 "/rustc/2c8cc343237b8f7d5a3c3703e3a87f2eb2c54a74/library/core/src/char" "methods.rs"
	.loc	26 663 42 is_stmt 1
	leaq	-52(%rbp), %rsi
	movl	$4, %edx
	callq	__ZN4core4char7methods15encode_utf8_raw17h103260f30d20b708E
	movq	-64(%rbp), %rdi
	movq	%rax, %rsi
	movq	%rsi, -16(%rbp)
	movq	%rdx, -8(%rbp)
Ltmp437:
	.loc	19 169 9
	callq	__ZN80_$LT$std..io..Write..write_fmt..Adapter$LT$T$GT$$u20$as$u20$core..fmt..Write$GT$9write_str17hd67f7cbcb475e944E
	.loc	19 170 6
	andb	$1, %al
	movzbl	%al, %eax
	addq	$80, %rsp
	popq	%rbp
	retq
Ltmp438:
Lfunc_end34:
	.cfi_endproc

	.globl	__ZN4core3fmt5Write9write_fmt17hd161149888882151E
	.p2align	4, 0x90
__ZN4core3fmt5Write9write_fmt17hd161149888882151E:
Lfunc_begin35:
	.loc	19 196 0
	.cfi_startproc
	pushq	%rbp
	.cfi_def_cfa_offset 16
	.cfi_offset %rbp, -16
	movq	%rsp, %rbp
	.cfi_def_cfa_register %rbp
	subq	$64, %rsp
	movq	%rdi, -56(%rbp)
Ltmp439:
	.loc	19 197 26 prologue_end
	leaq	-48(%rbp), %rdi
	movl	$48, %edx
	callq	_memcpy
Ltmp440:
	.loc	19 197 9 is_stmt 0
	leaq	-56(%rbp), %rdi
	leaq	l___unnamed_2(%rip), %rsi
	leaq	-48(%rbp), %rdx
	callq	__ZN4core3fmt5write17hfa389e524187f2c6E
	.loc	19 198 6 is_stmt 1
	andb	$1, %al
	movzbl	%al, %eax
	addq	$64, %rsp
	popq	%rbp
	retq
Ltmp441:
Lfunc_end35:
	.cfi_endproc

	.p2align	4, 0x90
__ZN4core3fmt9Arguments6new_v117h102b97225bd45303E:
Lfunc_begin36:
	.loc	19 399 0
	.cfi_startproc
	pushq	%rbp
	.cfi_def_cfa_offset 16
	.cfi_offset %rbp, -16
	movq	%rsp, %rbp
	.cfi_def_cfa_register %rbp
	subq	$160, %rsp
	movq	%r8, -152(%rbp)
	movq	%rcx, -144(%rbp)
	movq	%rdx, -136(%rbp)
	movq	%rsi, -128(%rbp)
	movq	%rdi, -120(%rbp)
	movq	%rdi, -112(%rbp)
	movq	%rsi, -32(%rbp)
	movq	%rdx, -24(%rbp)
	movq	%rcx, -16(%rbp)
	movq	%r8, -8(%rbp)
Ltmp442:
	.loc	19 400 12 prologue_end
	cmpq	%r8, %rdx
	jb	LBB36_2
	.loc	19 0 12 is_stmt 0
	movq	-136(%rbp), %rax
	movq	-152(%rbp), %rcx
	.loc	19 400 56
	addq	$1, %rcx
	.loc	19 400 41
	cmpq	%rcx, %rax
	seta	%al
	.loc	19 400 12
	andb	$1, %al
	movb	%al, -97(%rbp)
	jmp	LBB36_3
LBB36_2:
	movb	$1, -97(%rbp)
LBB36_3:
	testb	$1, -97(%rbp)
	jne	LBB36_5
	.loc	19 0 12
	movq	-112(%rbp), %rax
	movq	-120(%rbp), %rcx
	movq	-152(%rbp), %rdx
	movq	-144(%rbp), %rsi
	movq	-136(%rbp), %rdi
	movq	-128(%rbp), %r8
	.loc	19 403 34 is_stmt 1
	movq	$0, -48(%rbp)
	.loc	19 403 9 is_stmt 0
	movq	%r8, 16(%rcx)
	movq	%rdi, 24(%rcx)
	movq	-48(%rbp), %r8
	movq	-40(%rbp), %rdi
	movq	%r8, (%rcx)
	movq	%rdi, 8(%rcx)
	movq	%rsi, 32(%rcx)
	movq	%rdx, 40(%rcx)
	.loc	19 404 6 is_stmt 1
	addq	$160, %rsp
	popq	%rbp
	retq
LBB36_5:
	.loc	19 401 13
	leaq	l___unnamed_17(%rip), %rsi
	leaq	l___unnamed_15(%rip), %rcx
	xorl	%eax, %eax
	movl	%eax, %r8d
	leaq	-96(%rbp), %rdi
	movq	%rdi, -160(%rbp)
	movl	$1, %edx
	callq	__ZN4core3fmt9Arguments6new_v117h102b97225bd45303E
	movq	-160(%rbp), %rdi
	leaq	l___unnamed_18(%rip), %rsi
	callq	__ZN4core9panicking9panic_fmt17h9b5d807e24bcaaedE
Ltmp443:
Lfunc_end36:
	.cfi_endproc

	.globl	__ZN4core3mem7replace17h03173e69805015daE
	.p2align	4, 0x90
__ZN4core3mem7replace17h03173e69805015daE:
Lfunc_begin37:
	.loc	17 905 0
	.cfi_startproc
	pushq	%rbp
	.cfi_def_cfa_offset 16
	.cfi_offset %rbp, -16
	movq	%rsp, %rbp
	.cfi_def_cfa_register %rbp
	subq	$88, %rsp
	movq	%rdi, -88(%rbp)
	movb	%sil, %al
	movb	%al, -76(%rbp)
	movq	%rdi, -72(%rbp)
	movb	%al, -57(%rbp)
Ltmp444:
	.loc	17 910 32 prologue_end
	movq	%rdi, -56(%rbp)
Ltmp445:
	.loc	23 1157 34
	leaq	-73(%rbp), %rax
	movq	%rax, -48(%rbp)
	.loc	23 1157 9 is_stmt 0
	movb	(%rdi), %al
	movb	%al, -73(%rbp)
	.loc	23 1158 9 is_stmt 1
	movb	-73(%rbp), %al
	movb	%al, -75(%rbp)
	movb	%al, -33(%rbp)
	.loc	23 0 9 is_stmt 0
	movb	-75(%rbp), %al
	movq	-88(%rbp), %rcx
	movb	-76(%rbp), %dl
Ltmp446:
	.loc	24 627 38 is_stmt 1
	movb	%al, -10(%rbp)
Ltmp447:
	.loc	22 89 9
	movb	%al, -9(%rbp)
Ltmp448:
	.loc	17 911 20
	movq	%rcx, -8(%rbp)
	.loc	17 911 26 is_stmt 0
	movb	%dl, -74(%rbp)
Ltmp449:
	.loc	23 1354 9 is_stmt 1
	movb	-74(%rbp), %dl
	movb	%dl, (%rcx)
Ltmp450:
	.loc	17 914 2
	addq	$88, %rsp
	popq	%rbp
	retq
Ltmp451:
Lfunc_end37:
	.cfi_endproc

	.globl	__ZN4core3mem7replace17h61639ff0616f2b83E
	.p2align	4, 0x90
__ZN4core3mem7replace17h61639ff0616f2b83E:
Lfunc_begin38:
	.loc	17 905 0
	.cfi_startproc
	pushq	%rbp
	.cfi_def_cfa_offset 16
	.cfi_offset %rbp, -16
	movq	%rsp, %rbp
	.cfi_def_cfa_register %rbp
	subq	$120, %rsp
	movq	%rdi, -120(%rbp)
	movq	%rsi, -112(%rbp)
	movq	%rdi, -80(%rbp)
	movq	%rsi, -72(%rbp)
Ltmp452:
	.loc	17 910 32 prologue_end
	movq	%rdi, -64(%rbp)
Ltmp453:
	.loc	23 1157 34
	leaq	-88(%rbp), %rax
	movq	%rax, -56(%rbp)
	.loc	23 1157 9 is_stmt 0
	movq	(%rdi), %rax
	movq	%rax, -88(%rbp)
	.loc	23 1158 9 is_stmt 1
	movq	-88(%rbp), %rax
	movq	%rax, -104(%rbp)
	movq	%rax, -48(%rbp)
	.loc	23 0 9 is_stmt 0
	movq	-104(%rbp), %rax
	movq	-120(%rbp), %rcx
	movq	-112(%rbp), %rdx
Ltmp454:
	.loc	24 627 38 is_stmt 1
	movq	%rax, -24(%rbp)
Ltmp455:
	.loc	22 89 9
	movq	%rax, -16(%rbp)
Ltmp456:
	.loc	17 911 20
	movq	%rcx, -8(%rbp)
	.loc	17 911 26 is_stmt 0
	movq	%rdx, -96(%rbp)
Ltmp457:
	.loc	23 1354 9 is_stmt 1
	movq	-96(%rbp), %rdx
	movq	%rdx, (%rcx)
Ltmp458:
	.loc	17 914 2
	addq	$120, %rsp
	popq	%rbp
	retq
Ltmp459:
Lfunc_end38:
	.cfi_endproc

	.globl	__ZN4core3mem7replace17h81a3149d0e3855bdE
	.p2align	4, 0x90
__ZN4core3mem7replace17h81a3149d0e3855bdE:
Lfunc_begin39:
	.loc	17 905 0
	.cfi_startproc
	pushq	%rbp
	.cfi_def_cfa_offset 16
	.cfi_offset %rbp, -16
	movq	%rsp, %rbp
	.cfi_def_cfa_register %rbp
	subq	$120, %rsp
	movq	%rdi, -120(%rbp)
	movq	%rsi, -112(%rbp)
	movq	%rdi, -80(%rbp)
	movq	%rsi, -72(%rbp)
Ltmp460:
	.loc	17 910 32 prologue_end
	movq	%rdi, -64(%rbp)
Ltmp461:
	.loc	23 1157 34
	leaq	-88(%rbp), %rax
	movq	%rax, -56(%rbp)
	.loc	23 1157 9 is_stmt 0
	movq	(%rdi), %rax
	movq	%rax, -88(%rbp)
	.loc	23 1158 9 is_stmt 1
	movq	-88(%rbp), %rax
	movq	%rax, -104(%rbp)
	movq	%rax, -48(%rbp)
	.loc	23 0 9 is_stmt 0
	movq	-104(%rbp), %rax
	movq	-120(%rbp), %rcx
	movq	-112(%rbp), %rdx
Ltmp462:
	.loc	24 627 38 is_stmt 1
	movq	%rax, -24(%rbp)
Ltmp463:
	.loc	22 89 9
	movq	%rax, -16(%rbp)
Ltmp464:
	.loc	17 911 20
	movq	%rcx, -8(%rbp)
	.loc	17 911 26 is_stmt 0
	movq	%rdx, -96(%rbp)
Ltmp465:
	.loc	23 1354 9 is_stmt 1
	movq	-96(%rbp), %rdx
	movq	%rdx, (%rcx)
Ltmp466:
	.loc	17 914 2
	addq	$120, %rsp
	popq	%rbp
	retq
Ltmp467:
Lfunc_end39:
	.cfi_endproc

	.globl	__ZN4core3mem7replace17hb8c61441f52d878aE
	.p2align	4, 0x90
__ZN4core3mem7replace17hb8c61441f52d878aE:
Lfunc_begin40:
	.loc	17 905 0
	.cfi_startproc
	pushq	%rbp
	.cfi_def_cfa_offset 16
	.cfi_offset %rbp, -16
	movq	%rsp, %rbp
	.cfi_def_cfa_register %rbp
	subq	$112, %rsp
	movq	%rdi, -112(%rbp)
	movq	%rsi, -96(%rbp)
	movq	%rdi, -72(%rbp)
Ltmp468:
	.loc	17 910 32 prologue_end
	movq	%rdi, -64(%rbp)
Ltmp469:
	.loc	23 1157 34
	leaq	-80(%rbp), %rax
	movq	%rax, -56(%rbp)
	.loc	23 1157 9 is_stmt 0
	movq	(%rdi), %rax
	movq	%rax, -80(%rbp)
	.loc	23 1158 9 is_stmt 1
	movq	-80(%rbp), %rax
	movq	%rax, -104(%rbp)
	movq	%rax, -48(%rbp)
	.loc	23 0 9 is_stmt 0
	movq	-104(%rbp), %rax
	movq	-112(%rbp), %rcx
Ltmp470:
	.loc	24 627 38 is_stmt 1
	movq	%rax, -24(%rbp)
Ltmp471:
	.loc	22 89 9
	movq	%rax, -16(%rbp)
Ltmp472:
	.loc	17 911 20
	movq	%rcx, -8(%rbp)
	.loc	17 911 26 is_stmt 0
	movq	-96(%rbp), %rdx
	movq	%rdx, -88(%rbp)
Ltmp473:
	.loc	23 1354 9 is_stmt 1
	movq	-88(%rbp), %rdx
	movq	%rdx, (%rcx)
Ltmp474:
	.loc	17 914 2
	addq	$112, %rsp
	popq	%rbp
	retq
Ltmp475:
Lfunc_end40:
	.cfi_endproc

	.p2align	4, 0x90
__ZN4core3num21_$LT$impl$u20$u64$GT$11checked_add17h2de2a8105745978cE:
Lfunc_begin41:
	.file	27 "/rustc/2c8cc343237b8f7d5a3c3703e3a87f2eb2c54a74/library/core/src/num" "uint_macros.rs"
	.loc	27 442 0
	.cfi_startproc
	pushq	%rbp
	.cfi_def_cfa_offset 16
	.cfi_offset %rbp, -16
	movq	%rsp, %rbp
	.cfi_def_cfa_register %rbp
	subq	$120, %rsp
	movq	%rdi, -80(%rbp)
	movq	%rsi, -72(%rbp)
Ltmp476:
	.loc	27 443 26 prologue_end
	movq	%rdi, -64(%rbp)
	.loc	27 443 47 is_stmt 0
	movq	%rsi, -56(%rbp)
Ltmp477:
	.loc	27 1479 26 is_stmt 1
	addq	%rsi, %rdi
	setb	%al
	andb	$1, %al
	movq	%rdi, -48(%rbp)
	movb	%al, -40(%rbp)
	movq	-48(%rbp), %rcx
	movb	-40(%rbp), %al
	.loc	27 1479 18 is_stmt 0
	movq	%rcx, -32(%rbp)
	.loc	27 1479 21
	movb	%al, %dl
	andb	$1, %dl
	movb	%dl, -17(%rbp)
Ltmp478:
	.loc	27 1480 13 is_stmt 1
	movq	%rcx, -96(%rbp)
	andb	$1, %al
	movb	%al, -88(%rbp)
Ltmp479:
	.loc	27 443 18
	movq	-96(%rbp), %rax
	movq	%rax, -120(%rbp)
	movq	%rax, -16(%rbp)
	.loc	27 443 21 is_stmt 0
	movb	-88(%rbp), %al
	movb	%al, %cl
	andb	$1, %cl
	movb	%cl, -2(%rbp)
Ltmp480:
	.loc	27 444 16 is_stmt 1
	andb	$1, %al
	movb	%al, -1(%rbp)
	testb	$1, -1(%rbp)
	jne	LBB41_2
	.loc	27 0 16 is_stmt 0
	movq	-120(%rbp), %rax
	.loc	27 444 42
	movq	%rax, -104(%rbp)
	movq	$1, -112(%rbp)
	.loc	27 444 13
	jmp	LBB41_3
LBB41_2:
	.loc	27 444 30
	movq	$0, -112(%rbp)
Ltmp481:
LBB41_3:
	.loc	27 445 10 is_stmt 1
	movq	-112(%rbp), %rax
	movq	-104(%rbp), %rdx
	addq	$120, %rsp
	popq	%rbp
	retq
Ltmp482:
Lfunc_end41:
	.cfi_endproc

	.p2align	4, 0x90
__ZN4core3num21_$LT$impl$u20$u64$GT$11to_ne_bytes17hc204b7d90af26f4aE:
Lfunc_begin42:
	.loc	27 2313 0
	.cfi_startproc
	pushq	%rbp
	.cfi_def_cfa_offset 16
	.cfi_offset %rbp, -16
	movq	%rsp, %rbp
	.cfi_def_cfa_register %rbp
	subq	$16, %rsp
	movq	%rdi, -8(%rbp)
Ltmp483:
	.loc	27 2316 22 prologue_end
	movq	%rdi, -16(%rbp)
	.loc	27 2317 10
	movq	-16(%rbp), %rax
	addq	$16, %rsp
	popq	%rbp
	retq
Ltmp484:
Lfunc_end42:
	.cfi_endproc

	.p2align	4, 0x90
__ZN4core3num21_$LT$impl$u20$u64$GT$13from_ne_bytes17hd66f5d92b0a38659E:
Lfunc_begin43:
	.loc	27 2415 0
	.cfi_startproc
	pushq	%rbp
	.cfi_def_cfa_offset 16
	.cfi_offset %rbp, -16
	movq	%rsp, %rbp
	.cfi_def_cfa_register %rbp
	subq	$32, %rsp
	movq	%rdi, -24(%rbp)
	movq	-24(%rbp), %rax
	movq	%rax, -32(%rbp)
Ltmp485:
	.loc	27 2417 37 prologue_end
	movq	-32(%rbp), %rax
	movq	%rax, -16(%rbp)
	.loc	27 2417 22 is_stmt 0
	movq	-16(%rbp), %rax
	movq	%rax, -8(%rbp)
	movq	-8(%rbp), %rax
	.loc	27 2418 10 is_stmt 1
	addq	$32, %rsp
	popq	%rbp
	retq
Ltmp486:
Lfunc_end43:
	.cfi_endproc

	.p2align	4, 0x90
__ZN4core3num22_$LT$impl$u20$u128$GT$13from_ne_bytes17h425c519d28860c2fE:
Lfunc_begin44:
	.loc	27 2415 0
	.cfi_startproc
	pushq	%rbp
	.cfi_def_cfa_offset 16
	.cfi_offset %rbp, -16
	movq	%rsp, %rbp
	.cfi_def_cfa_register %rbp
	subq	$32, %rsp
Ltmp487:
	.loc	27 2417 37 prologue_end
	movq	(%rdi), %rax
	movq	8(%rdi), %rcx
	movq	%rcx, -24(%rbp)
	movq	%rax, -32(%rbp)
	.loc	27 2417 22 is_stmt 0
	movq	-32(%rbp), %rax
	movq	-24(%rbp), %rcx
	movq	%rcx, -8(%rbp)
	movq	%rax, -16(%rbp)
	movq	-16(%rbp), %rax
	movq	-8(%rbp), %rdx
	.loc	27 2418 10 is_stmt 1
	addq	$32, %rsp
	popq	%rbp
	retq
Ltmp488:
Lfunc_end44:
	.cfi_endproc

	.p2align	4, 0x90
__ZN4core3ops8function6FnOnce9call_once17h13fff34977ff5004E:
Lfunc_begin45:
	.file	28 "/rustc/2c8cc343237b8f7d5a3c3703e3a87f2eb2c54a74/library/core/src/ops" "function.rs"
	.loc	28 250 0
	.cfi_startproc
	.cfi_personality 155, _rust_eh_personality
	.cfi_lsda 16, Lexception10
	pushq	%rbp
	.cfi_def_cfa_offset 16
	.cfi_offset %rbp, -16
	movq	%rsp, %rbp
	.cfi_def_cfa_register %rbp
	subq	$32, %rsp
	movq	%rdi, -32(%rbp)
Ltmp489:
	leaq	-32(%rbp), %rdi
Ltmp492:
	.loc	28 250 5 prologue_end
	callq	__ZN3std6thread5local4fast13destroy_value28_$u7b$$u7b$closure$u7d$$u7d$17h82f419b350b9444bE
Ltmp490:
	jmp	LBB45_3
LBB45_1:
	movq	-16(%rbp), %rdi
	callq	__Unwind_Resume
LBB45_2:
Ltmp491:
	.loc	28 0 5 is_stmt 0
	movq	%rax, %rcx
	movl	%edx, %eax
	movq	%rcx, -16(%rbp)
	movl	%eax, -8(%rbp)
	jmp	LBB45_1
LBB45_3:
	.loc	28 250 5
	addq	$32, %rsp
	popq	%rbp
	retq
Ltmp493:
Lfunc_end45:
	.cfi_endproc
	.section	__TEXT,__gcc_except_tab
	.p2align	2
GCC_except_table45:
Lexception10:
	.byte	255
	.byte	255
	.byte	1
	.uleb128 Lcst_end10-Lcst_begin10
Lcst_begin10:
	.uleb128 Ltmp489-Lfunc_begin45
	.uleb128 Ltmp490-Ltmp489
	.uleb128 Ltmp491-Lfunc_begin45
	.byte	0
	.uleb128 Ltmp490-Lfunc_begin45
	.uleb128 Lfunc_end45-Ltmp490
	.byte	0
	.byte	0
Lcst_end10:
	.p2align	2

	.section	__TEXT,__text,regular,pure_instructions
	.globl	__ZN4core3ptr101drop_in_place$LT$std..io..error..ErrorData$LT$alloc..boxed..Box$LT$std..io..error..Custom$GT$$GT$$GT$17h7b549632d5d07bcaE
	.p2align	4, 0x90
__ZN4core3ptr101drop_in_place$LT$std..io..error..ErrorData$LT$alloc..boxed..Box$LT$std..io..error..Custom$GT$$GT$$GT$17h7b549632d5d07bcaE:
Lfunc_begin46:
	.loc	23 490 0 is_stmt 1
	.cfi_startproc
	pushq	%rbp
	.cfi_def_cfa_offset 16
	.cfi_offset %rbp, -16
	movq	%rsp, %rbp
	.cfi_def_cfa_register %rbp
	subq	$16, %rsp
	movq	%rdi, -16(%rbp)
	movq	%rdi, -8(%rbp)
Ltmp494:
	.loc	23 490 1 prologue_end
	movb	(%rdi), %al
	subb	$3, %al
	jb	LBB46_2
	jmp	LBB46_1
LBB46_1:
	.loc	23 0 1 is_stmt 0
	movq	-16(%rbp), %rdi
	.loc	23 490 1
	addq	$8, %rdi
	callq	__ZN4core3ptr68drop_in_place$LT$alloc..boxed..Box$LT$std..io..error..Custom$GT$$GT$17hb477a86ca3f49f15E
LBB46_2:
	addq	$16, %rsp
	popq	%rbp
	retq
Ltmp495:
Lfunc_end46:
	.cfi_endproc

	.p2align	4, 0x90
__ZN4core3ptr104drop_in_place$LT$$RF$mut$u20$std..io..Write..write_fmt..Adapter$LT$std..sys..unix..stdio..Stderr$GT$$GT$17hf44ddb3b7dbc14f8E:
Lfunc_begin47:
	.loc	23 490 0 is_stmt 1
	.cfi_startproc
	pushq	%rbp
	.cfi_def_cfa_offset 16
	.cfi_offset %rbp, -16
	movq	%rsp, %rbp
	.cfi_def_cfa_register %rbp
	pushq	%rax
	movq	%rdi, -8(%rbp)
Ltmp496:
	.loc	23 490 1 prologue_end
	addq	$8, %rsp
	popq	%rbp
	retq
Ltmp497:
Lfunc_end47:
	.cfi_endproc

	.globl	__ZN4core3ptr118drop_in_place$LT$alloc..boxed..Box$LT$dyn$u20$core..error..Error$u2b$core..marker..Send$u2b$core..marker..Sync$GT$$GT$17h01b3d6e5c6c0674aE
	.p2align	4, 0x90
__ZN4core3ptr118drop_in_place$LT$alloc..boxed..Box$LT$dyn$u20$core..error..Error$u2b$core..marker..Send$u2b$core..marker..Sync$GT$$GT$17h01b3d6e5c6c0674aE:
Lfunc_begin48:
	.loc	23 490 0
	.cfi_startproc
	.cfi_personality 155, _rust_eh_personality
	.cfi_lsda 16, Lexception11
	pushq	%rbp
	.cfi_def_cfa_offset 16
	.cfi_offset %rbp, -16
	movq	%rsp, %rbp
	.cfi_def_cfa_register %rbp
	subq	$32, %rsp
	movq	%rdi, %rax
	movq	%rax, -32(%rbp)
	movq	%rax, -24(%rbp)
Ltmp504:
	.loc	23 490 1 prologue_end
	movq	(%rax), %rdi
	movq	8(%rax), %rax
	movq	(%rax), %rax
Ltmp498:
	callq	*%rax
Ltmp499:
	jmp	LBB48_3
LBB48_1:
	.loc	23 0 1 is_stmt 0
	movq	-32(%rbp), %rax
	.loc	23 490 1
	movq	(%rax), %rdi
	movq	8(%rax), %rsi
Ltmp501:
	callq	__ZN5alloc5alloc8box_free17h16fd2f61edfb0351E
Ltmp502:
	jmp	LBB48_5
LBB48_2:
Ltmp500:
	.loc	23 0 1
	movq	%rax, %rcx
	movl	%edx, %eax
	movq	%rcx, -16(%rbp)
	movl	%eax, -8(%rbp)
	jmp	LBB48_1
LBB48_3:
	movq	-32(%rbp), %rax
	.loc	23 490 1
	movq	(%rax), %rdi
	movq	8(%rax), %rsi
	callq	__ZN5alloc5alloc8box_free17h16fd2f61edfb0351E
	addq	$32, %rsp
	popq	%rbp
	retq
LBB48_4:
Ltmp503:
	callq	__ZN4core9panicking19panic_cannot_unwind17h1fbca7e1d7f56ae1E
LBB48_5:
	movq	-16(%rbp), %rdi
	callq	__Unwind_Resume
Ltmp505:
Lfunc_end48:
	.cfi_endproc
	.section	__TEXT,__gcc_except_tab
	.p2align	2
GCC_except_table48:
Lexception11:
	.byte	255
	.byte	255
	.byte	1
	.uleb128 Lcst_end11-Lcst_begin11
Lcst_begin11:
	.uleb128 Ltmp498-Lfunc_begin48
	.uleb128 Ltmp499-Ltmp498
	.uleb128 Ltmp500-Lfunc_begin48
	.byte	0
	.uleb128 Ltmp501-Lfunc_begin48
	.uleb128 Ltmp502-Ltmp501
	.uleb128 Ltmp503-Lfunc_begin48
	.byte	0
	.uleb128 Ltmp502-Lfunc_begin48
	.uleb128 Lfunc_end48-Ltmp502
	.byte	0
	.byte	0
Lcst_end11:
	.p2align	2

	.section	__TEXT,__text,regular,pure_instructions
	.globl	__ZN4core3ptr127drop_in_place$LT$core..option..Option$LT$alloc..rc..Rc$LT$core..cell..RefCell$LT$nanorand..rand..wyrand..WyRand$GT$$GT$$GT$$GT$17h772655e0b17eba80E
	.p2align	4, 0x90
__ZN4core3ptr127drop_in_place$LT$core..option..Option$LT$alloc..rc..Rc$LT$core..cell..RefCell$LT$nanorand..rand..wyrand..WyRand$GT$$GT$$GT$$GT$17h772655e0b17eba80E:
Lfunc_begin49:
	.loc	23 490 0 is_stmt 1
	.cfi_startproc
	pushq	%rbp
	.cfi_def_cfa_offset 16
	.cfi_offset %rbp, -16
	movq	%rsp, %rbp
	.cfi_def_cfa_register %rbp
	subq	$16, %rsp
	movq	%rdi, -16(%rbp)
	movq	%rdi, -8(%rbp)
Ltmp506:
	.loc	23 490 1 prologue_end
	movq	(%rdi), %rdx
	movl	$1, %eax
	xorl	%ecx, %ecx
	cmpq	$0, %rdx
	cmoveq	%rcx, %rax
	cmpq	$0, %rax
	jne	LBB49_2
LBB49_1:
	addq	$16, %rsp
	popq	%rbp
	retq
LBB49_2:
	.loc	23 0 1 is_stmt 0
	movq	-16(%rbp), %rdi
	.loc	23 490 1
	callq	__ZN4core3ptr99drop_in_place$LT$alloc..rc..Rc$LT$core..cell..RefCell$LT$nanorand..rand..wyrand..WyRand$GT$$GT$$GT$17hbde612fe1a15478dE
	jmp	LBB49_1
Ltmp507:
Lfunc_end49:
	.cfi_endproc

	.globl	__ZN4core3ptr130drop_in_place$LT$core..result..Result$LT$$LP$$RP$$C$alloc..boxed..Box$LT$dyn$u20$core..any..Any$u2b$core..marker..Send$GT$$GT$$GT$17h7b8e74dc8f352393E
	.p2align	4, 0x90
__ZN4core3ptr130drop_in_place$LT$core..result..Result$LT$$LP$$RP$$C$alloc..boxed..Box$LT$dyn$u20$core..any..Any$u2b$core..marker..Send$GT$$GT$$GT$17h7b8e74dc8f352393E:
Lfunc_begin50:
	.loc	23 490 0 is_stmt 1
	.cfi_startproc
	pushq	%rbp
	.cfi_def_cfa_offset 16
	.cfi_offset %rbp, -16
	movq	%rsp, %rbp
	.cfi_def_cfa_register %rbp
	subq	$16, %rsp
	movq	%rdi, -16(%rbp)
	movq	%rdi, -8(%rbp)
Ltmp508:
	.loc	23 490 1 prologue_end
	movq	(%rdi), %rdx
	movl	$1, %eax
	xorl	%ecx, %ecx
	cmpq	$0, %rdx
	cmoveq	%rcx, %rax
	cmpq	$0, %rax
	jne	LBB50_2
LBB50_1:
	addq	$16, %rsp
	popq	%rbp
	retq
LBB50_2:
	.loc	23 0 1 is_stmt 0
	movq	-16(%rbp), %rdi
	.loc	23 490 1
	callq	__ZN4core3ptr91drop_in_place$LT$alloc..boxed..Box$LT$dyn$u20$core..any..Any$u2b$core..marker..Send$GT$$GT$17h3491c630b9baf99aE
	jmp	LBB50_1
Ltmp509:
Lfunc_end50:
	.cfi_endproc

	.globl	__ZN4core3ptr136drop_in_place$LT$std..thread..local..fast..Key$LT$alloc..rc..Rc$LT$core..cell..RefCell$LT$nanorand..rand..wyrand..WyRand$GT$$GT$$GT$$GT$17hec6bcaf5ed02db64E
	.p2align	4, 0x90
__ZN4core3ptr136drop_in_place$LT$std..thread..local..fast..Key$LT$alloc..rc..Rc$LT$core..cell..RefCell$LT$nanorand..rand..wyrand..WyRand$GT$$GT$$GT$$GT$17hec6bcaf5ed02db64E:
Lfunc_begin51:
	.loc	23 490 0 is_stmt 1
	.cfi_startproc
	pushq	%rbp
	.cfi_def_cfa_offset 16
	.cfi_offset %rbp, -16
	movq	%rsp, %rbp
	.cfi_def_cfa_register %rbp
	subq	$16, %rsp
	movq	%rdi, -8(%rbp)
Ltmp510:
	.loc	23 490 1 prologue_end
	callq	__ZN4core3ptr145drop_in_place$LT$std..thread..local..lazy..LazyKeyInner$LT$alloc..rc..Rc$LT$core..cell..RefCell$LT$nanorand..rand..wyrand..WyRand$GT$$GT$$GT$$GT$17h15726fb703b065b5E
	addq	$16, %rsp
	popq	%rbp
	retq
Ltmp511:
Lfunc_end51:
	.cfi_endproc

	.globl	__ZN4core3ptr145drop_in_place$LT$std..thread..local..lazy..LazyKeyInner$LT$alloc..rc..Rc$LT$core..cell..RefCell$LT$nanorand..rand..wyrand..WyRand$GT$$GT$$GT$$GT$17h15726fb703b065b5E
	.p2align	4, 0x90
__ZN4core3ptr145drop_in_place$LT$std..thread..local..lazy..LazyKeyInner$LT$alloc..rc..Rc$LT$core..cell..RefCell$LT$nanorand..rand..wyrand..WyRand$GT$$GT$$GT$$GT$17h15726fb703b065b5E:
Lfunc_begin52:
	.loc	23 490 0
	.cfi_startproc
	pushq	%rbp
	.cfi_def_cfa_offset 16
	.cfi_offset %rbp, -16
	movq	%rsp, %rbp
	.cfi_def_cfa_register %rbp
	subq	$16, %rsp
	movq	%rdi, -8(%rbp)
Ltmp512:
	.loc	23 490 1 prologue_end
	callq	__ZN4core3ptr157drop_in_place$LT$core..cell..UnsafeCell$LT$core..option..Option$LT$alloc..rc..Rc$LT$core..cell..RefCell$LT$nanorand..rand..wyrand..WyRand$GT$$GT$$GT$$GT$$GT$17hd056a0777bbe2dfdE
	addq	$16, %rsp
	popq	%rbp
	retq
Ltmp513:
Lfunc_end52:
	.cfi_endproc

	.globl	__ZN4core3ptr157drop_in_place$LT$core..cell..UnsafeCell$LT$core..option..Option$LT$alloc..rc..Rc$LT$core..cell..RefCell$LT$nanorand..rand..wyrand..WyRand$GT$$GT$$GT$$GT$$GT$17hd056a0777bbe2dfdE
	.p2align	4, 0x90
__ZN4core3ptr157drop_in_place$LT$core..cell..UnsafeCell$LT$core..option..Option$LT$alloc..rc..Rc$LT$core..cell..RefCell$LT$nanorand..rand..wyrand..WyRand$GT$$GT$$GT$$GT$$GT$17hd056a0777bbe2dfdE:
Lfunc_begin53:
	.loc	23 490 0
	.cfi_startproc
	pushq	%rbp
	.cfi_def_cfa_offset 16
	.cfi_offset %rbp, -16
	movq	%rsp, %rbp
	.cfi_def_cfa_register %rbp
	subq	$16, %rsp
	movq	%rdi, -8(%rbp)
Ltmp514:
	.loc	23 490 1 prologue_end
	callq	__ZN4core3ptr127drop_in_place$LT$core..option..Option$LT$alloc..rc..Rc$LT$core..cell..RefCell$LT$nanorand..rand..wyrand..WyRand$GT$$GT$$GT$$GT$17h772655e0b17eba80E
	addq	$16, %rsp
	popq	%rbp
	retq
Ltmp515:
Lfunc_end53:
	.cfi_endproc

	.p2align	4, 0x90
__ZN4core3ptr41drop_in_place$LT$core..fmt..Arguments$GT$17hd672282891749fa1E:
Lfunc_begin54:
	.loc	23 490 0
	.cfi_startproc
	pushq	%rbp
	.cfi_def_cfa_offset 16
	.cfi_offset %rbp, -16
	movq	%rsp, %rbp
	.cfi_def_cfa_register %rbp
	pushq	%rax
	movq	%rdi, -8(%rbp)
Ltmp516:
	.loc	23 490 1 prologue_end
	addq	$8, %rsp
	popq	%rbp
	retq
Ltmp517:
Lfunc_end54:
	.cfi_endproc

	.globl	__ZN4core3ptr42drop_in_place$LT$std..io..error..Error$GT$17h38c48215befce37cE
	.p2align	4, 0x90
__ZN4core3ptr42drop_in_place$LT$std..io..error..Error$GT$17h38c48215befce37cE:
Lfunc_begin55:
	.loc	23 490 0
	.cfi_startproc
	pushq	%rbp
	.cfi_def_cfa_offset 16
	.cfi_offset %rbp, -16
	movq	%rsp, %rbp
	.cfi_def_cfa_register %rbp
	subq	$16, %rsp
	movq	%rdi, -8(%rbp)
Ltmp518:
	.loc	23 490 1 prologue_end
	callq	__ZN4core3ptr57drop_in_place$LT$std..io..error..repr_bitpacked..Repr$GT$17h69b46f11df318fb6E
	addq	$16, %rsp
	popq	%rbp
	retq
Ltmp519:
Lfunc_end55:
	.cfi_endproc

	.globl	__ZN4core3ptr43drop_in_place$LT$std..io..error..Custom$GT$17h30cf270314fb1ee5E
	.p2align	4, 0x90
__ZN4core3ptr43drop_in_place$LT$std..io..error..Custom$GT$17h30cf270314fb1ee5E:
Lfunc_begin56:
	.loc	23 490 0
	.cfi_startproc
	pushq	%rbp
	.cfi_def_cfa_offset 16
	.cfi_offset %rbp, -16
	movq	%rsp, %rbp
	.cfi_def_cfa_register %rbp
	subq	$16, %rsp
	movq	%rdi, -8(%rbp)
Ltmp520:
	.loc	23 490 1 prologue_end
	callq	__ZN4core3ptr118drop_in_place$LT$alloc..boxed..Box$LT$dyn$u20$core..error..Error$u2b$core..marker..Send$u2b$core..marker..Sync$GT$$GT$17h01b3d6e5c6c0674aE
	addq	$16, %rsp
	popq	%rbp
	retq
Ltmp521:
Lfunc_end56:
	.cfi_endproc

	.globl	__ZN4core3ptr45drop_in_place$LT$core..cell..BorrowRefMut$GT$17h95ae46aa18ee1ed4E
	.p2align	4, 0x90
__ZN4core3ptr45drop_in_place$LT$core..cell..BorrowRefMut$GT$17h95ae46aa18ee1ed4E:
Lfunc_begin57:
	.loc	23 490 0
	.cfi_startproc
	pushq	%rbp
	.cfi_def_cfa_offset 16
	.cfi_offset %rbp, -16
	movq	%rsp, %rbp
	.cfi_def_cfa_register %rbp
	subq	$16, %rsp
	movq	%rdi, -8(%rbp)
Ltmp522:
	.loc	23 490 1 prologue_end
	callq	__ZN66_$LT$core..cell..BorrowRefMut$u20$as$u20$core..ops..drop..Drop$GT$4drop17hfcdb117945e7e917E
	addq	$16, %rsp
	popq	%rbp
	retq
Ltmp523:
Lfunc_end57:
	.cfi_endproc

	.p2align	4, 0x90
__ZN4core3ptr47drop_in_place$LT$core..cell..BorrowMutError$GT$17h9519dfc1a15d96aaE:
Lfunc_begin58:
	.loc	23 490 0
	.cfi_startproc
	pushq	%rbp
	.cfi_def_cfa_offset 16
	.cfi_offset %rbp, -16
	movq	%rsp, %rbp
	.cfi_def_cfa_register %rbp
	pushq	%rax
	movq	%rdi, -8(%rbp)
Ltmp524:
	.loc	23 490 1 prologue_end
	addq	$8, %rsp
	popq	%rbp
	retq
Ltmp525:
Lfunc_end58:
	.cfi_endproc

	.p2align	4, 0x90
__ZN4core3ptr52drop_in_place$LT$std..thread..local..AccessError$GT$17h44e1df2945317bc3E:
Lfunc_begin59:
	.loc	23 490 0
	.cfi_startproc
	pushq	%rbp
	.cfi_def_cfa_offset 16
	.cfi_offset %rbp, -16
	movq	%rsp, %rbp
	.cfi_def_cfa_register %rbp
	pushq	%rax
	movq	%rdi, -8(%rbp)
Ltmp526:
	.loc	23 490 1 prologue_end
	addq	$8, %rsp
	popq	%rbp
	retq
Ltmp527:
Lfunc_end59:
	.cfi_endproc

	.globl	__ZN4core3ptr57drop_in_place$LT$std..io..error..repr_bitpacked..Repr$GT$17h69b46f11df318fb6E
	.p2align	4, 0x90
__ZN4core3ptr57drop_in_place$LT$std..io..error..repr_bitpacked..Repr$GT$17h69b46f11df318fb6E:
Lfunc_begin60:
	.loc	23 490 0
	.cfi_startproc
	pushq	%rbp
	.cfi_def_cfa_offset 16
	.cfi_offset %rbp, -16
	movq	%rsp, %rbp
	.cfi_def_cfa_register %rbp
	subq	$16, %rsp
	movq	%rdi, -8(%rbp)
Ltmp528:
	.loc	23 490 1 prologue_end
	callq	__ZN78_$LT$std..io..error..repr_bitpacked..Repr$u20$as$u20$core..ops..drop..Drop$GT$4drop17h6089275728828691E
	addq	$16, %rsp
	popq	%rbp
	retq
Ltmp529:
Lfunc_end60:
	.cfi_endproc

	.globl	__ZN4core3ptr66drop_in_place$LT$dyn$u20$core..any..Any$u2b$core..marker..Send$GT$17h66f6dc3e0a15331dE
	.p2align	4, 0x90
__ZN4core3ptr66drop_in_place$LT$dyn$u20$core..any..Any$u2b$core..marker..Send$GT$17h66f6dc3e0a15331dE:
Lfunc_begin61:
	.loc	23 490 0
	.cfi_startproc
	pushq	%rbp
	.cfi_def_cfa_offset 16
	.cfi_offset %rbp, -16
	movq	%rsp, %rbp
	.cfi_def_cfa_register %rbp
	subq	$16, %rsp
	movq	%rdi, -16(%rbp)
	movq	%rsi, -8(%rbp)
Ltmp530:
	.loc	23 490 1 prologue_end
	callq	*(%rsi)
	addq	$16, %rsp
	popq	%rbp
	retq
Ltmp531:
Lfunc_end61:
	.cfi_endproc

	.globl	__ZN4core3ptr68drop_in_place$LT$alloc..boxed..Box$LT$std..io..error..Custom$GT$$GT$17hb477a86ca3f49f15E
	.p2align	4, 0x90
__ZN4core3ptr68drop_in_place$LT$alloc..boxed..Box$LT$std..io..error..Custom$GT$$GT$17hb477a86ca3f49f15E:
Lfunc_begin62:
	.loc	23 490 0
	.cfi_startproc
	.cfi_personality 155, _rust_eh_personality
	.cfi_lsda 16, Lexception12
	pushq	%rbp
	.cfi_def_cfa_offset 16
	.cfi_offset %rbp, -16
	movq	%rsp, %rbp
	.cfi_def_cfa_register %rbp
	subq	$32, %rsp
	movq	%rdi, -32(%rbp)
	movq	%rdi, -24(%rbp)
Ltmp538:
	.loc	23 490 1 prologue_end
	movq	(%rdi), %rdi
Ltmp532:
	callq	__ZN4core3ptr43drop_in_place$LT$std..io..error..Custom$GT$17h30cf270314fb1ee5E
Ltmp533:
	jmp	LBB62_3
LBB62_1:
	.loc	23 0 1 is_stmt 0
	movq	-32(%rbp), %rax
	.loc	23 490 1
	movq	(%rax), %rdi
Ltmp535:
	callq	__ZN5alloc5alloc8box_free17h7a111ee019ffe8b0E
Ltmp536:
	jmp	LBB62_5
LBB62_2:
Ltmp534:
	.loc	23 0 1
	movq	%rax, %rcx
	movl	%edx, %eax
	movq	%rcx, -16(%rbp)
	movl	%eax, -8(%rbp)
	jmp	LBB62_1
LBB62_3:
	movq	-32(%rbp), %rax
	.loc	23 490 1
	movq	(%rax), %rdi
	callq	__ZN5alloc5alloc8box_free17h7a111ee019ffe8b0E
	addq	$32, %rsp
	popq	%rbp
	retq
LBB62_4:
Ltmp537:
	callq	__ZN4core9panicking19panic_cannot_unwind17h1fbca7e1d7f56ae1E
LBB62_5:
	movq	-16(%rbp), %rdi
	callq	__Unwind_Resume
Ltmp539:
Lfunc_end62:
	.cfi_endproc
	.section	__TEXT,__gcc_except_tab
	.p2align	2
GCC_except_table62:
Lexception12:
	.byte	255
	.byte	255
	.byte	1
	.uleb128 Lcst_end12-Lcst_begin12
Lcst_begin12:
	.uleb128 Ltmp532-Lfunc_begin62
	.uleb128 Ltmp533-Ltmp532
	.uleb128 Ltmp534-Lfunc_begin62
	.byte	0
	.uleb128 Ltmp535-Lfunc_begin62
	.uleb128 Ltmp536-Ltmp535
	.uleb128 Ltmp537-Lfunc_begin62
	.byte	0
	.uleb128 Ltmp536-Lfunc_begin62
	.uleb128 Lfunc_end62-Ltmp536
	.byte	0
	.byte	0
Lcst_end12:
	.p2align	2

	.section	__TEXT,__text,regular,pure_instructions
	.globl	__ZN4core3ptr77drop_in_place$LT$core..cell..RefMut$LT$nanorand..rand..wyrand..WyRand$GT$$GT$17h7e0158706e985079E
	.p2align	4, 0x90
__ZN4core3ptr77drop_in_place$LT$core..cell..RefMut$LT$nanorand..rand..wyrand..WyRand$GT$$GT$17h7e0158706e985079E:
Lfunc_begin63:
	.loc	23 490 0 is_stmt 1
	.cfi_startproc
	pushq	%rbp
	.cfi_def_cfa_offset 16
	.cfi_offset %rbp, -16
	movq	%rsp, %rbp
	.cfi_def_cfa_register %rbp
	subq	$16, %rsp
	movq	%rdi, -8(%rbp)
Ltmp540:
	.loc	23 490 1 prologue_end
	addq	$8, %rdi
	callq	__ZN4core3ptr45drop_in_place$LT$core..cell..BorrowRefMut$GT$17h95ae46aa18ee1ed4E
	addq	$16, %rsp
	popq	%rbp
	retq
Ltmp541:
Lfunc_end63:
	.cfi_endproc

	.globl	__ZN4core3ptr81drop_in_place$LT$core..result..Result$LT$$LP$$RP$$C$std..io..error..Error$GT$$GT$17he2794a278bf7605eE
	.p2align	4, 0x90
__ZN4core3ptr81drop_in_place$LT$core..result..Result$LT$$LP$$RP$$C$std..io..error..Error$GT$$GT$17he2794a278bf7605eE:
Lfunc_begin64:
	.loc	23 490 0
	.cfi_startproc
	pushq	%rbp
	.cfi_def_cfa_offset 16
	.cfi_offset %rbp, -16
	movq	%rsp, %rbp
	.cfi_def_cfa_register %rbp
	subq	$16, %rsp
	movq	%rdi, -16(%rbp)
	movq	%rdi, -8(%rbp)
Ltmp542:
	.loc	23 490 1 prologue_end
	movq	(%rdi), %rdx
	movl	$1, %eax
	xorl	%ecx, %ecx
	cmpq	$0, %rdx
	cmoveq	%rcx, %rax
	cmpq	$0, %rax
	jne	LBB64_2
LBB64_1:
	addq	$16, %rsp
	popq	%rbp
	retq
LBB64_2:
	.loc	23 0 1 is_stmt 0
	movq	-16(%rbp), %rdi
	.loc	23 490 1
	callq	__ZN4core3ptr42drop_in_place$LT$std..io..error..Error$GT$17h38c48215befce37cE
	jmp	LBB64_1
Ltmp543:
Lfunc_end64:
	.cfi_endproc

	.globl	__ZN4core3ptr8non_null16NonNull$LT$T$GT$3new17hdfc4653b11aeed17E
	.p2align	4, 0x90
__ZN4core3ptr8non_null16NonNull$LT$T$GT$3new17hdfc4653b11aeed17E:
Lfunc_begin65:
	.loc	11 222 0 is_stmt 1
	.cfi_startproc
	pushq	%rbp
	.cfi_def_cfa_offset 16
	.cfi_offset %rbp, -16
	movq	%rsp, %rbp
	.cfi_def_cfa_register %rbp
	subq	$88, %rsp
	movq	%rdi, -88(%rbp)
	movq	%rdi, -56(%rbp)
Ltmp544:
	.loc	11 223 13 prologue_end
	movq	%rdi, -48(%rbp)
Ltmp545:
	.loc	14 52 36
	movq	%rdi, -64(%rbp)
	.loc	14 52 18 is_stmt 0
	movq	-64(%rbp), %rax
	movq	%rax, -40(%rbp)
Ltmp546:
	.loc	14 38 13 is_stmt 1
	movq	%rax, -32(%rbp)
Ltmp547:
	.loc	14 215 33
	movq	%rax, -24(%rbp)
	.loc	14 215 18 is_stmt 0
	movq	%rax, -16(%rbp)
Ltmp548:
	.loc	14 38 13 is_stmt 1
	cmpq	$0, -16(%rbp)
	sete	%al
Ltmp549:
	.loc	11 223 12
	xorb	$-1, %al
	testb	$1, %al
	jne	LBB65_2
	.loc	11 227 13
	movq	$0, -80(%rbp)
	.loc	11 223 9
	jmp	LBB65_3
LBB65_2:
	.loc	11 0 9 is_stmt 0
	movq	-88(%rbp), %rax
	.loc	11 225 47 is_stmt 1
	movq	%rax, -8(%rbp)
Ltmp550:
	.loc	11 201 13
	movq	%rax, -72(%rbp)
Ltmp551:
	.loc	11 225 13
	movq	-72(%rbp), %rax
	movq	%rax, -80(%rbp)
LBB65_3:
	.loc	11 229 6
	movq	-80(%rbp), %rax
	addq	$88, %rsp
	popq	%rbp
	retq
Ltmp552:
Lfunc_end65:
	.cfi_endproc

	.globl	__ZN4core3ptr8non_null26NonNull$LT$$u5b$T$u5d$$GT$20slice_from_raw_parts17hf373049caee609eaE
	.p2align	4, 0x90
__ZN4core3ptr8non_null26NonNull$LT$$u5b$T$u5d$$GT$20slice_from_raw_parts17hf373049caee609eaE:
Lfunc_begin66:
	.loc	11 482 0
	.cfi_startproc
	pushq	%rbp
	.cfi_def_cfa_offset 16
	.cfi_offset %rbp, -16
	movq	%rsp, %rbp
	.cfi_def_cfa_register %rbp
	subq	$128, %rsp
	movq	%rdi, -80(%rbp)
	movq	%rsi, -72(%rbp)
Ltmp553:
	.loc	11 484 70 prologue_end
	movq	%rdi, -64(%rbp)
Ltmp554:
	.loc	11 326 9
	movq	%rdi, -56(%rbp)
Ltmp555:
	.loc	11 484 85
	movq	%rsi, -48(%rbp)
Ltmp556:
	.loc	23 766 24
	movq	%rdi, -40(%rbp)
Ltmp557:
	.loc	14 60 9
	movq	%rdi, -32(%rbp)
Ltmp558:
	.loc	23 766 37
	movq	%rsi, -24(%rbp)
Ltmp559:
	.loc	4 135 36
	movq	%rdi, -96(%rbp)
	movq	%rsi, -88(%rbp)
	.loc	4 135 14 is_stmt 0
	movq	-96(%rbp), %rcx
	movq	-88(%rbp), %rax
	movq	%rcx, -112(%rbp)
	movq	%rax, -104(%rbp)
	movq	-112(%rbp), %rcx
	movq	-104(%rbp), %rax
	movq	%rcx, -16(%rbp)
	movq	%rax, -8(%rbp)
Ltmp560:
	.loc	11 201 13 is_stmt 1
	movq	%rcx, -128(%rbp)
	movq	%rax, -120(%rbp)
Ltmp561:
	.loc	11 485 6
	movq	-128(%rbp), %rax
	movq	-120(%rbp), %rdx
	addq	$128, %rsp
	popq	%rbp
	retq
Ltmp562:
Lfunc_end66:
	.cfi_endproc

	.globl	__ZN4core3ptr91drop_in_place$LT$alloc..boxed..Box$LT$dyn$u20$core..any..Any$u2b$core..marker..Send$GT$$GT$17h3491c630b9baf99aE
	.p2align	4, 0x90
__ZN4core3ptr91drop_in_place$LT$alloc..boxed..Box$LT$dyn$u20$core..any..Any$u2b$core..marker..Send$GT$$GT$17h3491c630b9baf99aE:
Lfunc_begin67:
	.loc	23 490 0
	.cfi_startproc
	.cfi_personality 155, _rust_eh_personality
	.cfi_lsda 16, Lexception13
	pushq	%rbp
	.cfi_def_cfa_offset 16
	.cfi_offset %rbp, -16
	movq	%rsp, %rbp
	.cfi_def_cfa_register %rbp
	subq	$32, %rsp
	movq	%rdi, %rax
	movq	%rax, -32(%rbp)
	movq	%rax, -24(%rbp)
Ltmp569:
	.loc	23 490 1 prologue_end
	movq	(%rax), %rdi
	movq	8(%rax), %rax
	movq	(%rax), %rax
Ltmp563:
	callq	*%rax
Ltmp564:
	jmp	LBB67_3
LBB67_1:
	.loc	23 0 1 is_stmt 0
	movq	-32(%rbp), %rax
	.loc	23 490 1
	movq	(%rax), %rdi
	movq	8(%rax), %rsi
Ltmp566:
	callq	__ZN5alloc5alloc8box_free17h768965bdb37cd64cE
Ltmp567:
	jmp	LBB67_5
LBB67_2:
Ltmp565:
	.loc	23 0 1
	movq	%rax, %rcx
	movl	%edx, %eax
	movq	%rcx, -16(%rbp)
	movl	%eax, -8(%rbp)
	jmp	LBB67_1
LBB67_3:
	movq	-32(%rbp), %rax
	.loc	23 490 1
	movq	(%rax), %rdi
	movq	8(%rax), %rsi
	callq	__ZN5alloc5alloc8box_free17h768965bdb37cd64cE
	addq	$32, %rsp
	popq	%rbp
	retq
LBB67_4:
Ltmp568:
	callq	__ZN4core9panicking19panic_cannot_unwind17h1fbca7e1d7f56ae1E
LBB67_5:
	movq	-16(%rbp), %rdi
	callq	__Unwind_Resume
Ltmp570:
Lfunc_end67:
	.cfi_endproc
	.section	__TEXT,__gcc_except_tab
	.p2align	2
GCC_except_table67:
Lexception13:
	.byte	255
	.byte	255
	.byte	1
	.uleb128 Lcst_end13-Lcst_begin13
Lcst_begin13:
	.uleb128 Ltmp563-Lfunc_begin67
	.uleb128 Ltmp564-Ltmp563
	.uleb128 Ltmp565-Lfunc_begin67
	.byte	0
	.uleb128 Ltmp566-Lfunc_begin67
	.uleb128 Ltmp567-Ltmp566
	.uleb128 Ltmp568-Lfunc_begin67
	.byte	0
	.uleb128 Ltmp567-Lfunc_begin67
	.uleb128 Lfunc_end67-Ltmp567
	.byte	0
	.byte	0
Lcst_end13:
	.p2align	2

	.section	__TEXT,__text,regular,pure_instructions
	.globl	__ZN4core3ptr92drop_in_place$LT$std..io..Write..write_fmt..Adapter$LT$std..sys..unix..stdio..Stderr$GT$$GT$17hde05be730f61b75eE
	.p2align	4, 0x90
__ZN4core3ptr92drop_in_place$LT$std..io..Write..write_fmt..Adapter$LT$std..sys..unix..stdio..Stderr$GT$$GT$17hde05be730f61b75eE:
Lfunc_begin68:
	.loc	23 490 0 is_stmt 1
	.cfi_startproc
	pushq	%rbp
	.cfi_def_cfa_offset 16
	.cfi_offset %rbp, -16
	movq	%rsp, %rbp
	.cfi_def_cfa_register %rbp
	subq	$16, %rsp
	movq	%rdi, -8(%rbp)
Ltmp571:
	.loc	23 490 1 prologue_end
	callq	__ZN4core3ptr81drop_in_place$LT$core..result..Result$LT$$LP$$RP$$C$std..io..error..Error$GT$$GT$17he2794a278bf7605eE
	addq	$16, %rsp
	popq	%rbp
	retq
Ltmp572:
Lfunc_end68:
	.cfi_endproc

	.globl	__ZN4core3ptr93drop_in_place$LT$dyn$u20$core..error..Error$u2b$core..marker..Send$u2b$core..marker..Sync$GT$17h7daa2c490bf840e9E
	.p2align	4, 0x90
__ZN4core3ptr93drop_in_place$LT$dyn$u20$core..error..Error$u2b$core..marker..Send$u2b$core..marker..Sync$GT$17h7daa2c490bf840e9E:
Lfunc_begin69:
	.loc	23 490 0
	.cfi_startproc
	pushq	%rbp
	.cfi_def_cfa_offset 16
	.cfi_offset %rbp, -16
	movq	%rsp, %rbp
	.cfi_def_cfa_register %rbp
	subq	$16, %rsp
	movq	%rdi, -16(%rbp)
	movq	%rsi, -8(%rbp)
Ltmp573:
	.loc	23 490 1 prologue_end
	callq	*(%rsi)
	addq	$16, %rsp
	popq	%rbp
	retq
Ltmp574:
Lfunc_end69:
	.cfi_endproc

	.globl	__ZN4core3ptr99drop_in_place$LT$alloc..rc..Rc$LT$core..cell..RefCell$LT$nanorand..rand..wyrand..WyRand$GT$$GT$$GT$17hbde612fe1a15478dE
	.p2align	4, 0x90
__ZN4core3ptr99drop_in_place$LT$alloc..rc..Rc$LT$core..cell..RefCell$LT$nanorand..rand..wyrand..WyRand$GT$$GT$$GT$17hbde612fe1a15478dE:
Lfunc_begin70:
	.loc	23 490 0
	.cfi_startproc
	pushq	%rbp
	.cfi_def_cfa_offset 16
	.cfi_offset %rbp, -16
	movq	%rsp, %rbp
	.cfi_def_cfa_register %rbp
	subq	$16, %rsp
	movq	%rdi, -8(%rbp)
Ltmp575:
	.loc	23 490 1 prologue_end
	callq	__ZN64_$LT$alloc..rc..Rc$LT$T$GT$$u20$as$u20$core..ops..drop..Drop$GT$4drop17he08fefa823e8b4a1E
	addq	$16, %rsp
	popq	%rbp
	retq
Ltmp576:
Lfunc_end70:
	.cfi_endproc

	.p2align	4, 0x90
__ZN4core4cell12BorrowRefMut3new17h62369bf8ed9ccb26E:
Lfunc_begin71:
	.loc	18 1678 0
	.cfi_startproc
	pushq	%rbp
	.cfi_def_cfa_offset 16
	.cfi_offset %rbp, -16
	movq	%rsp, %rbp
	.cfi_def_cfa_register %rbp
	subq	$64, %rsp
	movq	%rdi, -64(%rbp)
	movq	%rdi, -40(%rbp)
Ltmp577:
	.loc	18 1683 15 prologue_end
	movq	%rdi, -32(%rbp)
Ltmp578:
	.loc	18 452 19
	movq	%rdi, -24(%rbp)
Ltmp579:
	.loc	18 1683 9
	cmpq	$0, (%rdi)
	jne	LBB71_2
	.loc	18 0 9 is_stmt 0
	movq	-64(%rbp), %rdi
	.loc	18 1685 17 is_stmt 1
	movq	%rdi, -16(%rbp)
Ltmp580:
	.loc	18 363 19
	movq	$-1, %rsi
	callq	__ZN4core4cell13Cell$LT$T$GT$7replace17h22c73cd3c9824e31E
	movq	%rax, %rcx
	movq	-64(%rbp), %rax
	movq	%rcx, -8(%rbp)
Ltmp581:
	.loc	18 1686 22
	movq	%rax, -48(%rbp)
	.loc	18 1686 17 is_stmt 0
	movq	-48(%rbp), %rax
	movq	%rax, -56(%rbp)
	.loc	18 1686 45
	jmp	LBB71_3
LBB71_2:
	.loc	18 1688 18 is_stmt 1
	movq	$0, -56(%rbp)
LBB71_3:
	.loc	18 1690 6
	movq	-56(%rbp), %rax
	addq	$64, %rsp
	popq	%rbp
	retq
Ltmp582:
Lfunc_end71:
	.cfi_endproc

	.globl	__ZN4core4cell13Cell$LT$T$GT$7replace17h22c73cd3c9824e31E
	.p2align	4, 0x90
__ZN4core4cell13Cell$LT$T$GT$7replace17h22c73cd3c9824e31E:
Lfunc_begin72:
	.loc	18 410 0
	.cfi_startproc
	.cfi_personality 155, _rust_eh_personality
	.cfi_lsda 16, Lexception14
	pushq	%rbp
	.cfi_def_cfa_offset 16
	.cfi_offset %rbp, -16
	movq	%rsp, %rbp
	.cfi_def_cfa_register %rbp
	subq	$48, %rsp
	movq	%rdi, -40(%rbp)
	movq	%rsi, -32(%rbp)
Ltmp586:
	.loc	18 413 37 prologue_end
	movq	%rdi, -24(%rbp)
Ltmp583:
	.loc	18 413 9 is_stmt 0
	callq	__ZN4core3mem7replace17h81a3149d0e3855bdE
Ltmp584:
	movq	%rax, -48(%rbp)
	jmp	LBB72_3
LBB72_1:
	.loc	18 414 5 is_stmt 1
	xorl	%eax, %eax
	testb	$1, %al
	jne	LBB72_5
	jmp	LBB72_4
LBB72_2:
Ltmp585:
	.loc	18 0 5 is_stmt 0
	movq	%rax, %rcx
	movl	%edx, %eax
	movq	%rcx, -16(%rbp)
	movl	%eax, -8(%rbp)
	jmp	LBB72_1
LBB72_3:
	movq	-48(%rbp), %rax
	.loc	18 414 6
	addq	$48, %rsp
	popq	%rbp
	retq
LBB72_4:
	.loc	18 410 5 is_stmt 1
	movq	-16(%rbp), %rdi
	callq	__Unwind_Resume
LBB72_5:
	.loc	18 414 5
	jmp	LBB72_4
Ltmp587:
Lfunc_end72:
	.cfi_endproc
	.section	__TEXT,__gcc_except_tab
	.p2align	2
GCC_except_table72:
Lexception14:
	.byte	255
	.byte	255
	.byte	1
	.uleb128 Lcst_end14-Lcst_begin14
Lcst_begin14:
	.uleb128 Ltmp583-Lfunc_begin72
	.uleb128 Ltmp584-Ltmp583
	.uleb128 Ltmp585-Lfunc_begin72
	.byte	0
	.uleb128 Ltmp584-Lfunc_begin72
	.uleb128 Lfunc_end72-Ltmp584
	.byte	0
	.byte	0
Lcst_end14:
	.p2align	2

	.section	__TEXT,__text,regular,pure_instructions
	.globl	__ZN4core4cell13Cell$LT$T$GT$7replace17h7763c2d069068322E
	.p2align	4, 0x90
__ZN4core4cell13Cell$LT$T$GT$7replace17h7763c2d069068322E:
Lfunc_begin73:
	.loc	18 410 0
	.cfi_startproc
	.cfi_personality 155, _rust_eh_personality
	.cfi_lsda 16, Lexception15
	pushq	%rbp
	.cfi_def_cfa_offset 16
	.cfi_offset %rbp, -16
	movq	%rsp, %rbp
	.cfi_def_cfa_register %rbp
	subq	$48, %rsp
	movq	%rdi, -40(%rbp)
	movq	%rsi, -32(%rbp)
Ltmp591:
	.loc	18 413 37 prologue_end
	movq	%rdi, -24(%rbp)
Ltmp588:
	.loc	18 413 9 is_stmt 0
	callq	__ZN4core3mem7replace17h61639ff0616f2b83E
Ltmp589:
	movq	%rax, -48(%rbp)
	jmp	LBB73_3
LBB73_1:
	.loc	18 414 5 is_stmt 1
	xorl	%eax, %eax
	testb	$1, %al
	jne	LBB73_5
	jmp	LBB73_4
LBB73_2:
Ltmp590:
	.loc	18 0 5 is_stmt 0
	movq	%rax, %rcx
	movl	%edx, %eax
	movq	%rcx, -16(%rbp)
	movl	%eax, -8(%rbp)
	jmp	LBB73_1
LBB73_3:
	movq	-48(%rbp), %rax
	.loc	18 414 6
	addq	$48, %rsp
	popq	%rbp
	retq
LBB73_4:
	.loc	18 410 5 is_stmt 1
	movq	-16(%rbp), %rdi
	callq	__Unwind_Resume
LBB73_5:
	.loc	18 414 5
	jmp	LBB73_4
Ltmp592:
Lfunc_end73:
	.cfi_endproc
	.section	__TEXT,__gcc_except_tab
	.p2align	2
GCC_except_table73:
Lexception15:
	.byte	255
	.byte	255
	.byte	1
	.uleb128 Lcst_end15-Lcst_begin15
Lcst_begin15:
	.uleb128 Ltmp588-Lfunc_begin73
	.uleb128 Ltmp589-Ltmp588
	.uleb128 Ltmp590-Lfunc_begin73
	.byte	0
	.uleb128 Ltmp589-Lfunc_begin73
	.uleb128 Lfunc_end73-Ltmp589
	.byte	0
	.byte	0
Lcst_end15:
	.p2align	2

	.section	__TEXT,__text,regular,pure_instructions
	.globl	__ZN4core4cell13Cell$LT$T$GT$7replace17hd96de94c594fe292E
	.p2align	4, 0x90
__ZN4core4cell13Cell$LT$T$GT$7replace17hd96de94c594fe292E:
Lfunc_begin74:
	.loc	18 410 0
	.cfi_startproc
	.cfi_personality 155, _rust_eh_personality
	.cfi_lsda 16, Lexception16
	pushq	%rbp
	.cfi_def_cfa_offset 16
	.cfi_offset %rbp, -16
	movq	%rsp, %rbp
	.cfi_def_cfa_register %rbp
	subq	$48, %rsp
	movb	%sil, %al
	movq	%rdi, -40(%rbp)
	movb	%al, -25(%rbp)
Ltmp596:
	.loc	18 413 37 prologue_end
	movq	%rdi, -24(%rbp)
Ltmp593:
	.loc	18 413 9 is_stmt 0
	movzbl	%al, %esi
	callq	__ZN4core3mem7replace17h03173e69805015daE
Ltmp594:
	movb	%al, -41(%rbp)
	jmp	LBB74_3
LBB74_1:
	.loc	18 414 5 is_stmt 1
	xorl	%eax, %eax
	testb	$1, %al
	jne	LBB74_5
	jmp	LBB74_4
LBB74_2:
Ltmp595:
	.loc	18 0 5 is_stmt 0
	movq	%rax, %rcx
	movl	%edx, %eax
	movq	%rcx, -16(%rbp)
	movl	%eax, -8(%rbp)
	jmp	LBB74_1
LBB74_3:
	movb	-41(%rbp), %al
	.loc	18 414 6
	addq	$48, %rsp
	popq	%rbp
	retq
LBB74_4:
	.loc	18 410 5 is_stmt 1
	movq	-16(%rbp), %rdi
	callq	__Unwind_Resume
LBB74_5:
	.loc	18 414 5
	jmp	LBB74_4
Ltmp597:
Lfunc_end74:
	.cfi_endproc
	.section	__TEXT,__gcc_except_tab
	.p2align	2
GCC_except_table74:
Lexception16:
	.byte	255
	.byte	255
	.byte	1
	.uleb128 Lcst_end16-Lcst_begin16
Lcst_begin16:
	.uleb128 Ltmp593-Lfunc_begin74
	.uleb128 Ltmp594-Ltmp593
	.uleb128 Ltmp595-Lfunc_begin74
	.byte	0
	.uleb128 Ltmp594-Lfunc_begin74
	.uleb128 Lfunc_end74-Ltmp594
	.byte	0
	.byte	0
Lcst_end16:
	.p2align	2

	.section	__TEXT,__text,regular,pure_instructions
	.globl	__ZN4core4cell16RefCell$LT$T$GT$10borrow_mut17h0f81e65adfcce34fE
	.p2align	4, 0x90
__ZN4core4cell16RefCell$LT$T$GT$10borrow_mut17h0f81e65adfcce34fE:
Lfunc_begin75:
	.loc	18 958 0
	.cfi_startproc
	pushq	%rbp
	.cfi_def_cfa_offset 16
	.cfi_offset %rbp, -16
	movq	%rsp, %rbp
	.cfi_def_cfa_register %rbp
	subq	$16, %rsp
	movq	%rsi, -16(%rbp)
	movq	%rdi, -8(%rbp)
Ltmp598:
	.loc	18 959 9 prologue_end
	callq	__ZN4core4cell16RefCell$LT$T$GT$14try_borrow_mut17h312de789da4abb29E
	movq	-16(%rbp), %r8
	movq	%rax, %rdi
	movq	%rdx, %rsi
	leaq	L___unnamed_19(%rip), %rdx
	movl	$16, %ecx
	callq	__ZN4core6result19Result$LT$T$C$E$GT$6expect17h802d5432b5074059E
	.loc	18 960 6
	addq	$16, %rsp
	popq	%rbp
	retq
Ltmp599:
Lfunc_end75:
	.cfi_endproc

	.globl	__ZN4core4cell16RefCell$LT$T$GT$14try_borrow_mut17h312de789da4abb29E
	.p2align	4, 0x90
__ZN4core4cell16RefCell$LT$T$GT$14try_borrow_mut17h312de789da4abb29E:
Lfunc_begin76:
	.loc	18 987 0
	.cfi_startproc
	pushq	%rbp
	.cfi_def_cfa_offset 16
	.cfi_offset %rbp, -16
	movq	%rsp, %rbp
	.cfi_def_cfa_register %rbp
	subq	$96, %rsp
	movq	%rdi, -88(%rbp)
	movq	%rdi, -32(%rbp)
Ltmp600:
	.loc	18 988 15 prologue_end
	callq	__ZN4core4cell12BorrowRefMut3new17h62369bf8ed9ccb26E
	movq	%rax, -64(%rbp)
	movq	-64(%rbp), %rdx
	movl	$1, %eax
	xorl	%ecx, %ecx
	cmpq	$0, %rdx
	cmoveq	%rcx, %rax
	.loc	18 988 9 is_stmt 0
	cmpq	$0, %rax
	jne	LBB76_2
	.loc	18 999 21 is_stmt 1
	movq	$0, -80(%rbp)
	.loc	18 1004 14
	jmp	LBB76_3
LBB76_2:
	.loc	18 0 14 is_stmt 0
	movq	-88(%rbp), %rcx
	.loc	18 989 18 is_stmt 1
	movq	-64(%rbp), %rax
	movq	%rax, -24(%rbp)
Ltmp601:
	.loc	18 996 61
	addq	$8, %rcx
	movq	%rcx, -16(%rbp)
Ltmp602:
	.loc	18 1999 9
	movq	%rcx, -8(%rbp)
Ltmp603:
	.loc	11 201 13
	movq	%rcx, -56(%rbp)
Ltmp604:
	.loc	18 997 29
	movq	-56(%rbp), %rcx
	.loc	18 997 20 is_stmt 0
	movq	%rcx, -48(%rbp)
	movq	%rax, -40(%rbp)
	.loc	18 997 17
	movq	-48(%rbp), %rcx
	movq	-40(%rbp), %rax
	movq	%rcx, -80(%rbp)
	movq	%rax, -72(%rbp)
Ltmp605:
LBB76_3:
	.loc	18 1006 6 is_stmt 1
	movq	-80(%rbp), %rax
	movq	-72(%rbp), %rdx
	addq	$96, %rsp
	popq	%rbp
	retq
Ltmp606:
Lfunc_end76:
	.cfi_endproc

	.globl	__ZN4core4cell16RefCell$LT$T$GT$3new17h655db376d3e46ca6E
	.p2align	4, 0x90
__ZN4core4cell16RefCell$LT$T$GT$3new17h655db376d3e46ca6E:
Lfunc_begin77:
	.loc	18 724 0
	.cfi_startproc
	pushq	%rbp
	.cfi_def_cfa_offset 16
	.cfi_offset %rbp, -16
	movq	%rsp, %rbp
	.cfi_def_cfa_register %rbp
	subq	$48, %rsp
	movq	%rdi, -16(%rbp)
Ltmp607:
	.loc	18 726 36 prologue_end
	movq	%rdi, -8(%rbp)
Ltmp608:
	.loc	18 1953 9
	movq	%rdi, -32(%rbp)
Ltmp609:
	.loc	18 346 9
	movq	$0, -24(%rbp)
Ltmp610:
	.loc	18 725 9
	movq	-24(%rbp), %rax
	movq	%rax, -48(%rbp)
	movq	-32(%rbp), %rax
	movq	%rax, -40(%rbp)
	.loc	18 731 6
	movq	-48(%rbp), %rax
	movq	-40(%rbp), %rdx
	addq	$48, %rsp
	popq	%rbp
	retq
Ltmp611:
Lfunc_end77:
	.cfi_endproc

	.p2align	4, 0x90
__ZN4core4char7methods15encode_utf8_raw17h103260f30d20b708E:
Lfunc_begin78:
	.loc	26 1729 0
	.cfi_startproc
	pushq	%rbp
	.cfi_def_cfa_offset 16
	.cfi_offset %rbp, -16
	movq	%rsp, %rbp
	.cfi_def_cfa_register %rbp
	subq	$560, %rsp
	movq	%rsi, -544(%rbp)
	movq	%rdx, -536(%rbp)
	movl	%edi, -516(%rbp)
	movq	%rsi, -304(%rbp)
	movq	%rdx, -296(%rbp)
Ltmp612:
	.loc	26 1730 24 prologue_end
	movl	-516(%rbp), %edi
	.loc	26 1730 15 is_stmt 0
	callq	__ZN4core4char7methods8len_utf817h426736e28c75244fE
	movq	-544(%rbp), %rsi
	movq	-536(%rbp), %rdx
	movq	%rax, -512(%rbp)
Ltmp613:
	.loc	26 1731 12 is_stmt 1
	movq	-512(%rbp), %rax
	.loc	26 1731 22 is_stmt 0
	movq	%rsi, -272(%rbp)
	movq	%rdx, -264(%rbp)
Ltmp614:
	.loc	2 30 25 is_stmt 1
	movq	%rsi, -256(%rbp)
	movq	%rdx, -248(%rbp)
Ltmp615:
	.loc	26 1731 11
	movq	%rax, -504(%rbp)
	movq	%rsi, -496(%rbp)
	movq	%rdx, -488(%rbp)
	.loc	26 1731 5 is_stmt 0
	movq	-504(%rbp), %rax
	decq	%rax
	movq	%rax, -528(%rbp)
	subq	$3, %rax
	ja	LBB78_1
	.loc	26 0 5
	movq	-528(%rbp), %rax
	leaq	LJTI78_0(%rip), %rcx
	movslq	(%rcx,%rax,4), %rax
	addq	%rcx, %rax
	jmpq	*%rax
LBB78_1:
	movq	-536(%rbp), %rcx
	leaq	-512(%rbp), %rsi
	.loc	26 1750 14 is_stmt 1
	movq	%rsi, -120(%rbp)
Ltmp616:
	.loc	19 328 23
	movq	%rsi, -112(%rbp)
	.loc	19 328 26 is_stmt 0
	movq	__ZN4core3fmt3num3imp54_$LT$impl$u20$core..fmt..Display$u20$for$u20$usize$GT$3fmt17ha5c925fcd7ed33faE@GOTPCREL(%rip), %rax
	movq	%rax, -104(%rbp)
Ltmp617:
	.loc	19 347 42 is_stmt 1
	movq	%rax, -96(%rbp)
	movq	-96(%rbp), %rdx
	.loc	19 347 68 is_stmt 0
	movq	%rsi, -88(%rbp)
	movq	-88(%rbp), %rsi
	.loc	19 347 18
	movq	%rsi, -384(%rbp)
	movq	%rdx, -376(%rbp)
	leaq	-516(%rbp), %rsi
Ltmp618:
	.loc	26 1750 14 is_stmt 1
	movq	%rsi, -80(%rbp)
Ltmp619:
	.loc	19 328 23
	movq	%rsi, -72(%rbp)
	.loc	19 328 26 is_stmt 0
	movq	__ZN4core3fmt3num53_$LT$impl$u20$core..fmt..UpperHex$u20$for$u20$u32$GT$3fmt17ha96bbefe8f663d11E@GOTPCREL(%rip), %rdx
	movq	%rdx, -64(%rbp)
Ltmp620:
	.loc	19 347 42 is_stmt 1
	movq	%rdx, -56(%rbp)
	movq	-56(%rbp), %rdx
	.loc	19 347 68 is_stmt 0
	movq	%rsi, -48(%rbp)
	movq	-48(%rbp), %rsi
	.loc	19 347 18
	movq	%rsi, -368(%rbp)
	movq	%rdx, -360(%rbp)
Ltmp621:
	.loc	26 1754 13 is_stmt 1
	movq	%rcx, -336(%rbp)
	leaq	-336(%rbp), %rcx
	.loc	26 1750 14
	movq	%rcx, -40(%rbp)
Ltmp622:
	.loc	19 328 23
	movq	%rcx, -32(%rbp)
	.loc	19 328 26 is_stmt 0
	movq	%rax, -24(%rbp)
Ltmp623:
	.loc	19 347 42 is_stmt 1
	movq	%rax, -16(%rbp)
	movq	-16(%rbp), %rax
	.loc	19 347 68 is_stmt 0
	movq	%rcx, -8(%rbp)
	movq	-8(%rbp), %rcx
	.loc	19 347 18
	movq	%rcx, -352(%rbp)
	movq	%rax, -344(%rbp)
Ltmp624:
	.loc	26 1750 14 is_stmt 1
	movq	-384(%rbp), %rcx
	movq	-376(%rbp), %rax
	movq	%rcx, -432(%rbp)
	movq	%rax, -424(%rbp)
	movq	-368(%rbp), %rcx
	movq	-360(%rbp), %rax
	movq	%rcx, -416(%rbp)
	movq	%rax, -408(%rbp)
	movq	-352(%rbp), %rcx
	movq	-344(%rbp), %rax
	movq	%rcx, -400(%rbp)
	movq	%rax, -392(%rbp)
	leaq	l___unnamed_20(%rip), %rsi
	leaq	-480(%rbp), %rdi
	movq	%rdi, -552(%rbp)
	leaq	-432(%rbp), %rcx
	movl	$3, %r8d
	movq	%r8, %rdx
	callq	__ZN4core3fmt9Arguments6new_v117h102b97225bd45303E
	movq	-552(%rbp), %rdi
	leaq	l___unnamed_21(%rip), %rsi
	callq	__ZN4core9panicking9panic_fmt17h9b5d807e24bcaaedE
LBB78_2:
	.loc	26 1732 13
	cmpq	$1, -488(%rbp)
	jae	LBB78_10
	jmp	LBB78_1
LBB78_3:
	.loc	26 1735 13
	cmpq	$2, -488(%rbp)
	jae	LBB78_9
	jmp	LBB78_1
LBB78_4:
	.loc	26 1739 13
	cmpq	$3, -488(%rbp)
	jae	LBB78_8
	jmp	LBB78_1
LBB78_5:
	.loc	26 1744 13
	cmpq	$4, -488(%rbp)
	jb	LBB78_1
	.loc	26 1744 14 is_stmt 0
	movq	-496(%rbp), %rsi
	movq	%rsi, -240(%rbp)
	.loc	26 1744 17
	movq	-496(%rbp), %rdx
	movq	%rdx, %rax
	addq	$1, %rax
	movq	%rax, -232(%rbp)
	.loc	26 1744 20
	movq	-496(%rbp), %rcx
	movq	%rcx, %rax
	addq	$2, %rax
	movq	%rax, -224(%rbp)
	.loc	26 1744 23
	movq	-496(%rbp), %rax
	movq	%rax, %rdi
	addq	$3, %rdi
	movq	%rdi, -216(%rbp)
Ltmp625:
	.loc	26 1745 19 is_stmt 1
	movl	-516(%rbp), %edi
	shrl	$18, %edi
	.loc	26 1745 18 is_stmt 0
	andl	$7, %edi
	.loc	26 1745 13
	orb	$-16, %dil
	movb	%dil, (%rsi)
	.loc	26 1746 19 is_stmt 1
	movl	-516(%rbp), %esi
	shrl	$12, %esi
	.loc	26 1746 18 is_stmt 0
	andl	$63, %esi
	.loc	26 1746 13
	orb	$-128, %sil
	movb	%sil, 1(%rdx)
	.loc	26 1747 19 is_stmt 1
	movl	-516(%rbp), %edx
	shrl	$6, %edx
	.loc	26 1747 18 is_stmt 0
	andl	$63, %edx
	.loc	26 1747 13
	orb	$-128, %dl
	movb	%dl, 2(%rcx)
	.loc	26 1748 19 is_stmt 1
	movl	-516(%rbp), %ecx
	.loc	26 1748 18 is_stmt 0
	andl	$63, %ecx
	.loc	26 1748 13
	orb	$-128, %cl
	movb	%cl, 3(%rax)
Ltmp626:
LBB78_7:
	.loc	26 0 13
	movq	-536(%rbp), %rcx
	movq	-544(%rbp), %rdx
	.loc	26 1757 10 is_stmt 1
	movq	%rdx, -160(%rbp)
	movq	%rcx, -152(%rbp)
	.loc	26 1757 16 is_stmt 0
	movq	-512(%rbp), %rax
	.loc	26 1757 14
	movq	%rax, -328(%rbp)
Ltmp627:
	.loc	2 30 9 is_stmt 1
	movq	-328(%rbp), %rax
	movq	%rax, -144(%rbp)
	.loc	2 30 25 is_stmt 0
	movq	%rdx, -136(%rbp)
	movq	%rcx, -128(%rbp)
Ltmp628:
	.loc	2 461 9 is_stmt 1
	movq	$0, -320(%rbp)
	movq	%rax, -312(%rbp)
	movq	-320(%rbp), %rdi
	movq	-312(%rbp), %rsi
	leaq	l___unnamed_22(%rip), %r8
	callq	__ZN106_$LT$core..ops..range..Range$LT$usize$GT$$u20$as$u20$core..slice..index..SliceIndex$LT$$u5b$T$u5d$$GT$$GT$9index_mut17h00fe2014f4ff70c4E
Ltmp629:
	.loc	26 1758 2
	addq	$560, %rsp
	popq	%rbp
	retq
LBB78_8:
Ltmp630:
	.loc	26 1739 14
	movq	-496(%rbp), %rdx
	movq	%rdx, -208(%rbp)
	.loc	26 1739 17 is_stmt 0
	movq	-496(%rbp), %rcx
	movq	%rcx, %rax
	addq	$1, %rax
	movq	%rax, -200(%rbp)
	.loc	26 1739 20
	movq	-496(%rbp), %rax
	movq	%rax, %rsi
	addq	$2, %rsi
	movq	%rsi, -192(%rbp)
Ltmp631:
	.loc	26 1740 19 is_stmt 1
	movl	-516(%rbp), %esi
	shrl	$12, %esi
	.loc	26 1740 18 is_stmt 0
	andl	$15, %esi
	.loc	26 1740 13
	orb	$-32, %sil
	movb	%sil, (%rdx)
	.loc	26 1741 19 is_stmt 1
	movl	-516(%rbp), %edx
	shrl	$6, %edx
	.loc	26 1741 18 is_stmt 0
	andl	$63, %edx
	.loc	26 1741 13
	orb	$-128, %dl
	movb	%dl, 1(%rcx)
	.loc	26 1742 19 is_stmt 1
	movl	-516(%rbp), %ecx
	.loc	26 1742 18 is_stmt 0
	andl	$63, %ecx
	.loc	26 1742 13
	orb	$-128, %cl
	movb	%cl, 2(%rax)
Ltmp632:
	.loc	26 1743 9 is_stmt 1
	jmp	LBB78_7
LBB78_9:
	.loc	26 1735 14
	movq	-496(%rbp), %rcx
	movq	%rcx, -184(%rbp)
	.loc	26 1735 17 is_stmt 0
	movq	-496(%rbp), %rax
	movq	%rax, %rdx
	addq	$1, %rdx
	movq	%rdx, -176(%rbp)
Ltmp633:
	.loc	26 1736 19 is_stmt 1
	movl	-516(%rbp), %edx
	shrl	$6, %edx
	.loc	26 1736 18 is_stmt 0
	andl	$31, %edx
	.loc	26 1736 13
	orb	$-64, %dl
	movb	%dl, (%rcx)
	.loc	26 1737 19 is_stmt 1
	movl	-516(%rbp), %ecx
	.loc	26 1737 18 is_stmt 0
	andl	$63, %ecx
	.loc	26 1737 13
	orb	$-128, %cl
	movb	%cl, 1(%rax)
Ltmp634:
	.loc	26 1738 9 is_stmt 1
	jmp	LBB78_7
LBB78_10:
	.loc	26 1732 14
	movq	-496(%rbp), %rax
	movq	%rax, -168(%rbp)
Ltmp635:
	.loc	26 1733 18
	movl	-516(%rbp), %ecx
	.loc	26 1733 13 is_stmt 0
	movb	%cl, (%rax)
Ltmp636:
	.loc	26 1734 9 is_stmt 1
	jmp	LBB78_7
Ltmp637:
Lfunc_end78:
	.cfi_endproc
	.p2align	2, 0x90
	.data_region jt32
.set L78_0_set_2, LBB78_2-LJTI78_0
.set L78_0_set_3, LBB78_3-LJTI78_0
.set L78_0_set_4, LBB78_4-LJTI78_0
.set L78_0_set_5, LBB78_5-LJTI78_0
LJTI78_0:
	.long	L78_0_set_2
	.long	L78_0_set_3
	.long	L78_0_set_4
	.long	L78_0_set_5
	.end_data_region

	.p2align	4, 0x90
__ZN4core4char7methods8len_utf817h426736e28c75244fE:
Lfunc_begin79:
	.loc	26 1701 0
	.cfi_startproc
	pushq	%rbp
	.cfi_def_cfa_offset 16
	.cfi_offset %rbp, -16
	movq	%rsp, %rbp
	.cfi_def_cfa_register %rbp
	subq	$24, %rsp
	movl	%edi, -20(%rbp)
	movl	%edi, -4(%rbp)
Ltmp638:
	.loc	26 1702 8 prologue_end
	cmpl	$128, %edi
	jb	LBB79_2
	.loc	26 0 8 is_stmt 0
	movl	-20(%rbp), %eax
	.loc	26 1704 15 is_stmt 1
	cmpl	$2048, %eax
	jb	LBB79_5
	jmp	LBB79_4
LBB79_2:
	.loc	26 1703 9
	movq	$1, -16(%rbp)
LBB79_3:
	.loc	26 1711 2
	movq	-16(%rbp), %rax
	addq	$24, %rsp
	popq	%rbp
	retq
LBB79_4:
	.loc	26 0 2 is_stmt 0
	movl	-20(%rbp), %eax
	.loc	26 1706 15 is_stmt 1
	cmpl	$65536, %eax
	jb	LBB79_8
	jmp	LBB79_7
LBB79_5:
	.loc	26 1705 9
	movq	$2, -16(%rbp)
LBB79_6:
	.loc	26 1702 5
	jmp	LBB79_3
LBB79_7:
	.loc	26 1709 9
	movq	$4, -16(%rbp)
	.loc	26 1706 12
	jmp	LBB79_9
LBB79_8:
	.loc	26 1707 9
	movq	$3, -16(%rbp)
LBB79_9:
	.loc	26 1704 12
	jmp	LBB79_6
Ltmp639:
Lfunc_end79:
	.cfi_endproc

	.p2align	4, 0x90
__ZN4core4hint21unreachable_unchecked17ha7cfcd75f4fdf098E:
Lfunc_begin80:
	.file	29 "/rustc/2c8cc343237b8f7d5a3c3703e3a87f2eb2c54a74/library/core/src" "hint.rs"
	.loc	29 100 0
	.cfi_startproc
	pushq	%rbp
	.cfi_def_cfa_offset 16
	.cfi_offset %rbp, -16
	movq	%rsp, %rbp
	.cfi_def_cfa_register %rbp
Ltmp640:
	.loc	29 104 9 prologue_end
	ud2
Ltmp641:
Lfunc_end80:
	.cfi_endproc

	.globl	__ZN4core5alloc6layout6Layout9for_value17hb41f9e5c24c48a2aE
	.p2align	4, 0x90
__ZN4core5alloc6layout6Layout9for_value17hb41f9e5c24c48a2aE:
Lfunc_begin81:
	.file	30 "/rustc/2c8cc343237b8f7d5a3c3703e3a87f2eb2c54a74/library/core/src/alloc" "layout.rs"
	.loc	30 163 0
	.cfi_startproc
	pushq	%rbp
	.cfi_def_cfa_offset 16
	.cfi_offset %rbp, -16
	movq	%rsp, %rbp
	.cfi_def_cfa_register %rbp
	subq	$120, %rsp
	movq	%rdi, -88(%rbp)
Ltmp642:
	.loc	30 164 47 prologue_end
	movq	%rdi, -80(%rbp)
Ltmp643:
	.loc	17 338 14
	movq	$32, -72(%rbp)
	movq	-72(%rbp), %rcx
Ltmp644:
	.loc	30 164 69
	movq	%rdi, -64(%rbp)
Ltmp645:
	.loc	17 483 14
	movq	$8, -56(%rbp)
	movq	-56(%rbp), %rax
Ltmp646:
	.loc	30 164 29
	movq	%rcx, -104(%rbp)
	movq	%rax, -96(%rbp)
	.loc	30 164 14 is_stmt 0
	movq	-104(%rbp), %rcx
	movq	%rcx, -48(%rbp)
	.loc	30 164 20
	movq	-96(%rbp), %rax
	movq	%rax, -40(%rbp)
Ltmp647:
	.loc	30 166 52 is_stmt 1
	movq	%rcx, -32(%rbp)
	.loc	30 166 58 is_stmt 0
	movq	%rax, -24(%rbp)
Ltmp648:
	.loc	30 120 65 is_stmt 1
	movq	%rax, -16(%rbp)
Ltmp649:
	.file	31 "/rustc/2c8cc343237b8f7d5a3c3703e3a87f2eb2c54a74/library/core/src/ptr" "alignment.rs"
	.loc	31 89 18
	movq	%rax, -8(%rbp)
	movq	-8(%rbp), %rax
Ltmp650:
	.loc	30 120 18
	movq	%rcx, -120(%rbp)
	movq	%rax, -112(%rbp)
Ltmp651:
	.loc	30 167 6
	movq	-120(%rbp), %rax
	movq	-112(%rbp), %rdx
	addq	$120, %rsp
	popq	%rbp
	retq
Ltmp652:
Lfunc_end81:
	.cfi_endproc

	.globl	__ZN4core5array75_$LT$impl$u20$core..default..Default$u20$for$u20$$u5b$T$u3b$$u20$_$u5d$$GT$7default17h11a43af0ec96f435E
	.p2align	4, 0x90
__ZN4core5array75_$LT$impl$u20$core..default..Default$u20$for$u20$$u5b$T$u3b$$u20$_$u5d$$GT$7default17h11a43af0ec96f435E:
Lfunc_begin82:
	.file	32 "/rustc/2c8cc343237b8f7d5a3c3703e3a87f2eb2c54a74/library/core/src/array" "mod.rs"
	.loc	32 452 0
	.cfi_startproc
	.cfi_personality 155, _rust_eh_personality
	.cfi_lsda 16, Lexception17
	pushq	%rbp
	.cfi_def_cfa_offset 16
	.cfi_offset %rbp, -16
	movq	%rsp, %rbp
	.cfi_def_cfa_register %rbp
	subq	$32, %rsp
Ltmp674:
	.loc	32 453 18 prologue_end
	callq	__ZN45_$LT$u8$u20$as$u20$core..default..Default$GT$7default17h3c58e45eb451bb3dE
	movb	%al, -26(%rbp)
Ltmp653:
	.loc	32 453 35 is_stmt 0
	callq	__ZN45_$LT$u8$u20$as$u20$core..default..Default$GT$7default17h3c58e45eb451bb3dE
Ltmp654:
	movb	%al, -25(%rbp)
	jmp	LBB82_3
LBB82_1:
	.loc	32 452 13 is_stmt 1
	movq	-16(%rbp), %rdi
	callq	__Unwind_Resume
LBB82_2:
Ltmp655:
	.loc	32 0 13 is_stmt 0
	movq	%rax, %rcx
	movl	%edx, %eax
	movq	%rcx, -16(%rbp)
	movl	%eax, -8(%rbp)
	jmp	LBB82_1
LBB82_3:
Ltmp656:
	.loc	32 453 35 is_stmt 1
	callq	__ZN45_$LT$u8$u20$as$u20$core..default..Default$GT$7default17h3c58e45eb451bb3dE
Ltmp657:
	movb	%al, -27(%rbp)
	jmp	LBB82_6
LBB82_4:
	.loc	32 453 52 is_stmt 0
	jmp	LBB82_1
LBB82_5:
Ltmp658:
	.loc	32 0 52
	movq	%rax, %rcx
	movl	%edx, %eax
	movq	%rcx, -16(%rbp)
	movl	%eax, -8(%rbp)
	jmp	LBB82_4
LBB82_6:
Ltmp659:
	.loc	32 453 35
	callq	__ZN45_$LT$u8$u20$as$u20$core..default..Default$GT$7default17h3c58e45eb451bb3dE
Ltmp660:
	movb	%al, -28(%rbp)
	jmp	LBB82_9
LBB82_7:
	.loc	32 453 52
	jmp	LBB82_4
LBB82_8:
Ltmp661:
	.loc	32 0 52
	movq	%rax, %rcx
	movl	%edx, %eax
	movq	%rcx, -16(%rbp)
	movl	%eax, -8(%rbp)
	jmp	LBB82_7
LBB82_9:
Ltmp662:
	.loc	32 453 35
	callq	__ZN45_$LT$u8$u20$as$u20$core..default..Default$GT$7default17h3c58e45eb451bb3dE
Ltmp663:
	movb	%al, -29(%rbp)
	jmp	LBB82_12
LBB82_10:
	.loc	32 453 52
	jmp	LBB82_7
LBB82_11:
Ltmp664:
	.loc	32 0 52
	movq	%rax, %rcx
	movl	%edx, %eax
	movq	%rcx, -16(%rbp)
	movl	%eax, -8(%rbp)
	jmp	LBB82_10
LBB82_12:
Ltmp665:
	.loc	32 453 35
	callq	__ZN45_$LT$u8$u20$as$u20$core..default..Default$GT$7default17h3c58e45eb451bb3dE
Ltmp666:
	movb	%al, -30(%rbp)
	jmp	LBB82_15
LBB82_13:
	.loc	32 453 52
	jmp	LBB82_10
LBB82_14:
Ltmp667:
	.loc	32 0 52
	movq	%rax, %rcx
	movl	%edx, %eax
	movq	%rcx, -16(%rbp)
	movl	%eax, -8(%rbp)
	jmp	LBB82_13
LBB82_15:
Ltmp668:
	.loc	32 453 35
	callq	__ZN45_$LT$u8$u20$as$u20$core..default..Default$GT$7default17h3c58e45eb451bb3dE
Ltmp669:
	movb	%al, -31(%rbp)
	jmp	LBB82_18
LBB82_16:
	.loc	32 453 52
	jmp	LBB82_13
LBB82_17:
Ltmp670:
	.loc	32 0 52
	movq	%rax, %rcx
	movl	%edx, %eax
	movq	%rcx, -16(%rbp)
	movl	%eax, -8(%rbp)
	jmp	LBB82_16
LBB82_18:
Ltmp671:
	.loc	32 453 35
	callq	__ZN45_$LT$u8$u20$as$u20$core..default..Default$GT$7default17h3c58e45eb451bb3dE
Ltmp672:
	movb	%al, -32(%rbp)
	jmp	LBB82_21
LBB82_19:
	.loc	32 453 52
	jmp	LBB82_16
LBB82_20:
Ltmp673:
	.loc	32 0 52
	movq	%rax, %rcx
	movl	%edx, %eax
	movq	%rcx, -16(%rbp)
	movl	%eax, -8(%rbp)
	jmp	LBB82_19
LBB82_21:
	movb	-32(%rbp), %al
	movb	-31(%rbp), %cl
	movb	-30(%rbp), %dl
	movb	-29(%rbp), %sil
	movb	-28(%rbp), %dil
	movb	-27(%rbp), %r8b
	movb	-25(%rbp), %r9b
	movb	-26(%rbp), %r10b
	.loc	32 453 17
	movb	%r10b, -24(%rbp)
	movb	%r9b, -23(%rbp)
	movb	%r8b, -22(%rbp)
	movb	%dil, -21(%rbp)
	movb	%sil, -20(%rbp)
	movb	%dl, -19(%rbp)
	movb	%cl, -18(%rbp)
	movb	%al, -17(%rbp)
	.loc	32 454 14 is_stmt 1
	movq	-24(%rbp), %rax
	addq	$32, %rsp
	popq	%rbp
	retq
Ltmp675:
Lfunc_end82:
	.cfi_endproc
	.section	__TEXT,__gcc_except_tab
	.p2align	2
GCC_except_table82:
Lexception17:
	.byte	255
	.byte	255
	.byte	1
	.uleb128 Lcst_end17-Lcst_begin17
Lcst_begin17:
	.uleb128 Lfunc_begin82-Lfunc_begin82
	.uleb128 Ltmp653-Lfunc_begin82
	.byte	0
	.byte	0
	.uleb128 Ltmp653-Lfunc_begin82
	.uleb128 Ltmp654-Ltmp653
	.uleb128 Ltmp655-Lfunc_begin82
	.byte	0
	.uleb128 Ltmp654-Lfunc_begin82
	.uleb128 Ltmp656-Ltmp654
	.byte	0
	.byte	0
	.uleb128 Ltmp656-Lfunc_begin82
	.uleb128 Ltmp657-Ltmp656
	.uleb128 Ltmp658-Lfunc_begin82
	.byte	0
	.uleb128 Ltmp659-Lfunc_begin82
	.uleb128 Ltmp660-Ltmp659
	.uleb128 Ltmp661-Lfunc_begin82
	.byte	0
	.uleb128 Ltmp662-Lfunc_begin82
	.uleb128 Ltmp663-Ltmp662
	.uleb128 Ltmp664-Lfunc_begin82
	.byte	0
	.uleb128 Ltmp665-Lfunc_begin82
	.uleb128 Ltmp666-Ltmp665
	.uleb128 Ltmp667-Lfunc_begin82
	.byte	0
	.uleb128 Ltmp668-Lfunc_begin82
	.uleb128 Ltmp669-Ltmp668
	.uleb128 Ltmp670-Lfunc_begin82
	.byte	0
	.uleb128 Ltmp671-Lfunc_begin82
	.uleb128 Ltmp672-Ltmp671
	.uleb128 Ltmp673-Lfunc_begin82
	.byte	0
Lcst_end17:
	.p2align	2

	.section	__TEXT,__text,regular,pure_instructions
	.globl	__ZN4core5array75_$LT$impl$u20$core..default..Default$u20$for$u20$$u5b$T$u3b$$u20$_$u5d$$GT$7default17hdab382c43a62fa1eE
	.p2align	4, 0x90
__ZN4core5array75_$LT$impl$u20$core..default..Default$u20$for$u20$$u5b$T$u3b$$u20$_$u5d$$GT$7default17hdab382c43a62fa1eE:
Lfunc_begin83:
	.loc	32 452 0
	.cfi_startproc
	.cfi_personality 155, _rust_eh_personality
	.cfi_lsda 16, Lexception18
	pushq	%rbp
	.cfi_def_cfa_offset 16
	.cfi_offset %rbp, -16
	movq	%rsp, %rbp
	.cfi_def_cfa_register %rbp
	pushq	%r15
	pushq	%r14
	pushq	%r13
	pushq	%r12
	pushq	%rbx
	subq	$56, %rsp
	.cfi_offset %rbx, -56
	.cfi_offset %r12, -48
	.cfi_offset %r13, -40
	.cfi_offset %r14, -32
	.cfi_offset %r15, -24
	movq	%rdi, -80(%rbp)
	movq	%rdi, -72(%rbp)
Ltmp721:
	.loc	32 453 18 prologue_end
	callq	__ZN45_$LT$u8$u20$as$u20$core..default..Default$GT$7default17h3c58e45eb451bb3dE
	movb	%al, -58(%rbp)
Ltmp676:
	.loc	32 453 35 is_stmt 0
	callq	__ZN45_$LT$u8$u20$as$u20$core..default..Default$GT$7default17h3c58e45eb451bb3dE
Ltmp677:
	movb	%al, -57(%rbp)
	jmp	LBB83_3
LBB83_1:
	.loc	32 452 13 is_stmt 1
	movq	-56(%rbp), %rdi
	callq	__Unwind_Resume
LBB83_2:
Ltmp678:
	.loc	32 0 13 is_stmt 0
	movq	%rax, %rcx
	movl	%edx, %eax
	movq	%rcx, -56(%rbp)
	movl	%eax, -48(%rbp)
	jmp	LBB83_1
LBB83_3:
Ltmp679:
	.loc	32 453 35 is_stmt 1
	callq	__ZN45_$LT$u8$u20$as$u20$core..default..Default$GT$7default17h3c58e45eb451bb3dE
Ltmp680:
	movb	%al, -81(%rbp)
	jmp	LBB83_6
LBB83_4:
	.loc	32 453 52 is_stmt 0
	jmp	LBB83_1
LBB83_5:
Ltmp681:
	.loc	32 0 52
	movq	%rax, %rcx
	movl	%edx, %eax
	movq	%rcx, -56(%rbp)
	movl	%eax, -48(%rbp)
	jmp	LBB83_4
LBB83_6:
Ltmp682:
	.loc	32 453 35
	callq	__ZN45_$LT$u8$u20$as$u20$core..default..Default$GT$7default17h3c58e45eb451bb3dE
Ltmp683:
	movb	%al, -82(%rbp)
	jmp	LBB83_9
LBB83_7:
	.loc	32 453 52
	jmp	LBB83_4
LBB83_8:
Ltmp684:
	.loc	32 0 52
	movq	%rax, %rcx
	movl	%edx, %eax
	movq	%rcx, -56(%rbp)
	movl	%eax, -48(%rbp)
	jmp	LBB83_7
LBB83_9:
Ltmp685:
	.loc	32 453 35
	callq	__ZN45_$LT$u8$u20$as$u20$core..default..Default$GT$7default17h3c58e45eb451bb3dE
Ltmp686:
	movb	%al, -83(%rbp)
	jmp	LBB83_12
LBB83_10:
	.loc	32 453 52
	jmp	LBB83_7
LBB83_11:
Ltmp687:
	.loc	32 0 52
	movq	%rax, %rcx
	movl	%edx, %eax
	movq	%rcx, -56(%rbp)
	movl	%eax, -48(%rbp)
	jmp	LBB83_10
LBB83_12:
Ltmp688:
	.loc	32 453 35
	callq	__ZN45_$LT$u8$u20$as$u20$core..default..Default$GT$7default17h3c58e45eb451bb3dE
Ltmp689:
	movb	%al, -84(%rbp)
	jmp	LBB83_15
LBB83_13:
	.loc	32 453 52
	jmp	LBB83_10
LBB83_14:
Ltmp690:
	.loc	32 0 52
	movq	%rax, %rcx
	movl	%edx, %eax
	movq	%rcx, -56(%rbp)
	movl	%eax, -48(%rbp)
	jmp	LBB83_13
LBB83_15:
Ltmp691:
	.loc	32 453 35
	callq	__ZN45_$LT$u8$u20$as$u20$core..default..Default$GT$7default17h3c58e45eb451bb3dE
Ltmp692:
	movb	%al, -85(%rbp)
	jmp	LBB83_18
LBB83_16:
	.loc	32 453 52
	jmp	LBB83_13
LBB83_17:
Ltmp693:
	.loc	32 0 52
	movq	%rax, %rcx
	movl	%edx, %eax
	movq	%rcx, -56(%rbp)
	movl	%eax, -48(%rbp)
	jmp	LBB83_16
LBB83_18:
Ltmp694:
	.loc	32 453 35
	callq	__ZN45_$LT$u8$u20$as$u20$core..default..Default$GT$7default17h3c58e45eb451bb3dE
Ltmp695:
	movb	%al, -86(%rbp)
	jmp	LBB83_21
LBB83_19:
	.loc	32 453 52
	jmp	LBB83_16
LBB83_20:
Ltmp696:
	.loc	32 0 52
	movq	%rax, %rcx
	movl	%edx, %eax
	movq	%rcx, -56(%rbp)
	movl	%eax, -48(%rbp)
	jmp	LBB83_19
LBB83_21:
Ltmp697:
	.loc	32 453 35
	callq	__ZN45_$LT$u8$u20$as$u20$core..default..Default$GT$7default17h3c58e45eb451bb3dE
Ltmp698:
	movb	%al, -87(%rbp)
	jmp	LBB83_24
LBB83_22:
	.loc	32 453 52
	jmp	LBB83_19
LBB83_23:
Ltmp699:
	.loc	32 0 52
	movq	%rax, %rcx
	movl	%edx, %eax
	movq	%rcx, -56(%rbp)
	movl	%eax, -48(%rbp)
	jmp	LBB83_22
LBB83_24:
Ltmp700:
	.loc	32 453 35
	callq	__ZN45_$LT$u8$u20$as$u20$core..default..Default$GT$7default17h3c58e45eb451bb3dE
Ltmp701:
	movb	%al, -88(%rbp)
	jmp	LBB83_27
LBB83_25:
	.loc	32 453 52
	jmp	LBB83_22
LBB83_26:
Ltmp702:
	.loc	32 0 52
	movq	%rax, %rcx
	movl	%edx, %eax
	movq	%rcx, -56(%rbp)
	movl	%eax, -48(%rbp)
	jmp	LBB83_25
LBB83_27:
Ltmp703:
	.loc	32 453 35
	callq	__ZN45_$LT$u8$u20$as$u20$core..default..Default$GT$7default17h3c58e45eb451bb3dE
Ltmp704:
	movb	%al, -89(%rbp)
	jmp	LBB83_30
LBB83_28:
	.loc	32 453 52
	jmp	LBB83_25
LBB83_29:
Ltmp705:
	.loc	32 0 52
	movq	%rax, %rcx
	movl	%edx, %eax
	movq	%rcx, -56(%rbp)
	movl	%eax, -48(%rbp)
	jmp	LBB83_28
LBB83_30:
Ltmp706:
	.loc	32 453 35
	callq	__ZN45_$LT$u8$u20$as$u20$core..default..Default$GT$7default17h3c58e45eb451bb3dE
Ltmp707:
	movb	%al, -90(%rbp)
	jmp	LBB83_33
LBB83_31:
	.loc	32 453 52
	jmp	LBB83_28
LBB83_32:
Ltmp708:
	.loc	32 0 52
	movq	%rax, %rcx
	movl	%edx, %eax
	movq	%rcx, -56(%rbp)
	movl	%eax, -48(%rbp)
	jmp	LBB83_31
LBB83_33:
Ltmp709:
	.loc	32 453 35
	callq	__ZN45_$LT$u8$u20$as$u20$core..default..Default$GT$7default17h3c58e45eb451bb3dE
Ltmp710:
	movb	%al, -91(%rbp)
	jmp	LBB83_36
LBB83_34:
	.loc	32 453 52
	jmp	LBB83_31
LBB83_35:
Ltmp711:
	.loc	32 0 52
	movq	%rax, %rcx
	movl	%edx, %eax
	movq	%rcx, -56(%rbp)
	movl	%eax, -48(%rbp)
	jmp	LBB83_34
LBB83_36:
Ltmp712:
	.loc	32 453 35
	callq	__ZN45_$LT$u8$u20$as$u20$core..default..Default$GT$7default17h3c58e45eb451bb3dE
Ltmp713:
	movb	%al, -92(%rbp)
	jmp	LBB83_39
LBB83_37:
	.loc	32 453 52
	jmp	LBB83_34
LBB83_38:
Ltmp714:
	.loc	32 0 52
	movq	%rax, %rcx
	movl	%edx, %eax
	movq	%rcx, -56(%rbp)
	movl	%eax, -48(%rbp)
	jmp	LBB83_37
LBB83_39:
Ltmp715:
	.loc	32 453 35
	callq	__ZN45_$LT$u8$u20$as$u20$core..default..Default$GT$7default17h3c58e45eb451bb3dE
Ltmp716:
	movb	%al, -93(%rbp)
	jmp	LBB83_42
LBB83_40:
	.loc	32 453 52
	jmp	LBB83_37
LBB83_41:
Ltmp717:
	.loc	32 0 52
	movq	%rax, %rcx
	movl	%edx, %eax
	movq	%rcx, -56(%rbp)
	movl	%eax, -48(%rbp)
	jmp	LBB83_40
LBB83_42:
Ltmp718:
	.loc	32 453 35
	callq	__ZN45_$LT$u8$u20$as$u20$core..default..Default$GT$7default17h3c58e45eb451bb3dE
Ltmp719:
	movb	%al, -94(%rbp)
	jmp	LBB83_45
LBB83_43:
	.loc	32 453 52
	jmp	LBB83_40
LBB83_44:
Ltmp720:
	.loc	32 0 52
	movq	%rax, %rcx
	movl	%edx, %eax
	movq	%rcx, -56(%rbp)
	movl	%eax, -48(%rbp)
	jmp	LBB83_43
LBB83_45:
	movq	-80(%rbp), %rcx
	movb	-94(%rbp), %dl
	movb	-93(%rbp), %sil
	movb	-92(%rbp), %dil
	movb	-91(%rbp), %r8b
	movb	-90(%rbp), %r9b
	movb	-89(%rbp), %r10b
	movb	-88(%rbp), %r11b
	movb	-87(%rbp), %bl
	movb	-86(%rbp), %r14b
	movb	-85(%rbp), %r15b
	movb	-84(%rbp), %r12b
	movb	-83(%rbp), %r13b
	movb	-58(%rbp), %al
	.loc	32 453 17
	movb	%al, (%rcx)
	movb	-57(%rbp), %al
	movb	%al, 1(%rcx)
	movb	-81(%rbp), %al
	movb	%al, 2(%rcx)
	movb	-82(%rbp), %al
	movb	%al, 3(%rcx)
	movq	-72(%rbp), %rax
	movb	%r13b, 4(%rcx)
	movb	%r12b, 5(%rcx)
	movb	%r15b, 6(%rcx)
	movb	%r14b, 7(%rcx)
	movb	%bl, 8(%rcx)
	movb	%r11b, 9(%rcx)
	movb	%r10b, 10(%rcx)
	movb	%r9b, 11(%rcx)
	movb	%r8b, 12(%rcx)
	movb	%dil, 13(%rcx)
	movb	%sil, 14(%rcx)
	movb	%dl, 15(%rcx)
	.loc	32 454 14 is_stmt 1
	addq	$56, %rsp
	popq	%rbx
	popq	%r12
	popq	%r13
	popq	%r14
	popq	%r15
	popq	%rbp
	retq
Ltmp722:
Lfunc_end83:
	.cfi_endproc
	.section	__TEXT,__gcc_except_tab
	.p2align	2
GCC_except_table83:
Lexception18:
	.byte	255
	.byte	255
	.byte	1
	.uleb128 Lcst_end18-Lcst_begin18
Lcst_begin18:
	.uleb128 Lfunc_begin83-Lfunc_begin83
	.uleb128 Ltmp676-Lfunc_begin83
	.byte	0
	.byte	0
	.uleb128 Ltmp676-Lfunc_begin83
	.uleb128 Ltmp677-Ltmp676
	.uleb128 Ltmp678-Lfunc_begin83
	.byte	0
	.uleb128 Ltmp677-Lfunc_begin83
	.uleb128 Ltmp679-Ltmp677
	.byte	0
	.byte	0
	.uleb128 Ltmp679-Lfunc_begin83
	.uleb128 Ltmp680-Ltmp679
	.uleb128 Ltmp681-Lfunc_begin83
	.byte	0
	.uleb128 Ltmp682-Lfunc_begin83
	.uleb128 Ltmp683-Ltmp682
	.uleb128 Ltmp684-Lfunc_begin83
	.byte	0
	.uleb128 Ltmp685-Lfunc_begin83
	.uleb128 Ltmp686-Ltmp685
	.uleb128 Ltmp687-Lfunc_begin83
	.byte	0
	.uleb128 Ltmp688-Lfunc_begin83
	.uleb128 Ltmp689-Ltmp688
	.uleb128 Ltmp690-Lfunc_begin83
	.byte	0
	.uleb128 Ltmp691-Lfunc_begin83
	.uleb128 Ltmp692-Ltmp691
	.uleb128 Ltmp693-Lfunc_begin83
	.byte	0
	.uleb128 Ltmp694-Lfunc_begin83
	.uleb128 Ltmp695-Ltmp694
	.uleb128 Ltmp696-Lfunc_begin83
	.byte	0
	.uleb128 Ltmp697-Lfunc_begin83
	.uleb128 Ltmp698-Ltmp697
	.uleb128 Ltmp699-Lfunc_begin83
	.byte	0
	.uleb128 Ltmp700-Lfunc_begin83
	.uleb128 Ltmp701-Ltmp700
	.uleb128 Ltmp702-Lfunc_begin83
	.byte	0
	.uleb128 Ltmp703-Lfunc_begin83
	.uleb128 Ltmp704-Ltmp703
	.uleb128 Ltmp705-Lfunc_begin83
	.byte	0
	.uleb128 Ltmp706-Lfunc_begin83
	.uleb128 Ltmp707-Ltmp706
	.uleb128 Ltmp708-Lfunc_begin83
	.byte	0
	.uleb128 Ltmp709-Lfunc_begin83
	.uleb128 Ltmp710-Ltmp709
	.uleb128 Ltmp711-Lfunc_begin83
	.byte	0
	.uleb128 Ltmp712-Lfunc_begin83
	.uleb128 Ltmp713-Ltmp712
	.uleb128 Ltmp714-Lfunc_begin83
	.byte	0
	.uleb128 Ltmp715-Lfunc_begin83
	.uleb128 Ltmp716-Ltmp715
	.uleb128 Ltmp717-Lfunc_begin83
	.byte	0
	.uleb128 Ltmp718-Lfunc_begin83
	.uleb128 Ltmp719-Ltmp718
	.uleb128 Ltmp720-Lfunc_begin83
	.byte	0
Lcst_end18:
	.p2align	2

	.section	__TEXT,__text,regular,pure_instructions
	.globl	__ZN4core6option15Option$LT$T$GT$16unwrap_unchecked17hba63180389fc04aaE
	.p2align	4, 0x90
__ZN4core6option15Option$LT$T$GT$16unwrap_unchecked17hba63180389fc04aaE:
Lfunc_begin84:
	.loc	15 933 0
	.cfi_startproc
	.cfi_personality 155, _rust_eh_personality
	.cfi_lsda 16, Lexception19
	pushq	%rbp
	.cfi_def_cfa_offset 16
	.cfi_offset %rbp, -16
	movq	%rsp, %rbp
	.cfi_def_cfa_register %rbp
	subq	$64, %rsp
	movq	%rdi, -56(%rbp)
	movq	%rdx, -40(%rbp)
	movq	%rsi, -48(%rbp)
Ltmp726:
	.loc	15 935 9 prologue_end
	cmpq	$0, -56(%rbp)
	jne	LBB84_2
Ltmp723:
	.loc	15 938 30
	callq	__ZN4core4hint21unreachable_unchecked17ha7cfcd75f4fdf098E
Ltmp724:
	jmp	LBB84_5
LBB84_2:
	.loc	15 936 18
	movq	-48(%rbp), %rax
	movq	-40(%rbp), %rdx
	movq	%rdx, -24(%rbp)
	movq	%rax, -32(%rbp)
	.loc	15 940 6
	addq	$64, %rsp
	popq	%rbp
	retq
LBB84_3:
	.loc	15 940 5 is_stmt 0
	cmpq	$1, -56(%rbp)
	je	LBB84_6
	jmp	LBB84_7
LBB84_4:
Ltmp725:
	.loc	15 0 5
	movq	%rax, %rcx
	movl	%edx, %eax
	movq	%rcx, -16(%rbp)
	movl	%eax, -8(%rbp)
	jmp	LBB84_3
LBB84_5:
	ud2
LBB84_6:
	.loc	15 940 5
	movb	$1, %al
	testb	$1, %al
	jne	LBB84_8
	jmp	LBB84_7
LBB84_7:
	.loc	15 933 5 is_stmt 1
	movq	-16(%rbp), %rdi
	callq	__Unwind_Resume
LBB84_8:
	.loc	15 940 5
	jmp	LBB84_7
Ltmp727:
Lfunc_end84:
	.cfi_endproc
	.section	__TEXT,__gcc_except_tab
	.p2align	2
GCC_except_table84:
Lexception19:
	.byte	255
	.byte	255
	.byte	1
	.uleb128 Lcst_end19-Lcst_begin19
Lcst_begin19:
	.uleb128 Ltmp723-Lfunc_begin84
	.uleb128 Ltmp724-Ltmp723
	.uleb128 Ltmp725-Lfunc_begin84
	.byte	0
	.uleb128 Ltmp724-Lfunc_begin84
	.uleb128 Lfunc_end84-Ltmp724
	.byte	0
	.byte	0
Lcst_end19:
	.p2align	2

	.section	__TEXT,__text,regular,pure_instructions
	.globl	__ZN4core6option15Option$LT$T$GT$4take17h1511681ea242e7f6E
	.p2align	4, 0x90
__ZN4core6option15Option$LT$T$GT$4take17h1511681ea242e7f6E:
Lfunc_begin85:
	.loc	15 1621 0
	.cfi_startproc
	pushq	%rbp
	.cfi_def_cfa_offset 16
	.cfi_offset %rbp, -16
	movq	%rsp, %rbp
	.cfi_def_cfa_register %rbp
	subq	$16, %rsp
	movq	%rdi, -8(%rbp)
Ltmp728:
	.loc	15 1623 28 prologue_end
	movq	$0, -16(%rbp)
	.loc	15 1623 9 is_stmt 0
	movq	-16(%rbp), %rsi
	callq	__ZN4core3mem7replace17hb8c61441f52d878aE
	.loc	15 1624 6 is_stmt 1
	addq	$16, %rsp
	popq	%rbp
	retq
Ltmp729:
Lfunc_end85:
	.cfi_endproc

	.globl	__ZN4core6result19Result$LT$T$C$E$GT$6expect17h48c5ee053d178a11E
	.p2align	4, 0x90
__ZN4core6result19Result$LT$T$C$E$GT$6expect17h48c5ee053d178a11E:
Lfunc_begin86:
	.loc	12 1063 0
	.cfi_startproc
	.cfi_personality 155, _rust_eh_personality
	.cfi_lsda 16, Lexception20
	pushq	%rbp
	.cfi_def_cfa_offset 16
	.cfi_offset %rbp, -16
	movq	%rsp, %rbp
	.cfi_def_cfa_register %rbp
	subq	$80, %rsp
	movq	%rsi, -80(%rbp)
	movq	%rdx, -72(%rbp)
	movq	%rcx, -64(%rbp)
	movq	%rdi, -56(%rbp)
	movq	%rsi, -40(%rbp)
	movq	%rdx, -32(%rbp)
Ltmp733:
	.loc	12 1067 15 prologue_end
	movq	-56(%rbp), %rdx
	xorl	%eax, %eax
	movl	$1, %ecx
	cmpq	$0, %rdx
	cmoveq	%rcx, %rax
	.loc	12 1067 9 is_stmt 0
	cmpq	$0, %rax
	jne	LBB86_2
	.loc	12 1068 16 is_stmt 1
	movq	-56(%rbp), %rax
	movq	%rax, -8(%rbp)
	.loc	12 1071 6
	addq	$80, %rsp
	popq	%rbp
	retq
LBB86_2:
Ltmp730:
	.loc	12 0 6 is_stmt 0
	movq	-64(%rbp), %r8
	movq	-72(%rbp), %rsi
	movq	-80(%rbp), %rdi
Ltmp734:
	.loc	12 1069 23 is_stmt 1
	leaq	l___unnamed_3(%rip), %rcx
	leaq	-48(%rbp), %rdx
	callq	__ZN4core6result13unwrap_failed17h533573e6d3b6061cE
Ltmp731:
	jmp	LBB86_5
Ltmp735:
LBB86_3:
	.loc	12 1063 5
	movq	-24(%rbp), %rdi
	callq	__Unwind_Resume
Ltmp736:
LBB86_4:
Ltmp732:
	.loc	12 0 5 is_stmt 0
	movq	%rax, %rcx
	movl	%edx, %eax
	movq	%rcx, -24(%rbp)
	movl	%eax, -16(%rbp)
	jmp	LBB86_3
LBB86_5:
	ud2
Lfunc_end86:
	.cfi_endproc
	.section	__TEXT,__gcc_except_tab
	.p2align	2
GCC_except_table86:
Lexception20:
	.byte	255
	.byte	255
	.byte	1
	.uleb128 Lcst_end20-Lcst_begin20
Lcst_begin20:
	.uleb128 Ltmp730-Lfunc_begin86
	.uleb128 Ltmp731-Ltmp730
	.uleb128 Ltmp732-Lfunc_begin86
	.byte	0
	.uleb128 Ltmp731-Lfunc_begin86
	.uleb128 Lfunc_end86-Ltmp731
	.byte	0
	.byte	0
Lcst_end20:
	.p2align	2

	.section	__TEXT,__text,regular,pure_instructions
	.globl	__ZN4core6result19Result$LT$T$C$E$GT$6expect17h802d5432b5074059E
	.p2align	4, 0x90
__ZN4core6result19Result$LT$T$C$E$GT$6expect17h802d5432b5074059E:
Lfunc_begin87:
	.loc	12 1063 0 is_stmt 1
	.cfi_startproc
	.cfi_personality 155, _rust_eh_personality
	.cfi_lsda 16, Lexception21
	pushq	%rbp
	.cfi_def_cfa_offset 16
	.cfi_offset %rbp, -16
	movq	%rsp, %rbp
	.cfi_def_cfa_register %rbp
	subq	$96, %rsp
	movq	%rdx, -96(%rbp)
	movq	%rcx, -88(%rbp)
	movq	%r8, -80(%rbp)
	movq	%rdi, -72(%rbp)
	movq	%rsi, -64(%rbp)
	movq	%rdx, -48(%rbp)
	movq	%rcx, -40(%rbp)
Ltmp740:
	.loc	12 1067 15 prologue_end
	movq	-72(%rbp), %rdx
	xorl	%eax, %eax
	movl	$1, %ecx
	cmpq	$0, %rdx
	cmoveq	%rcx, %rax
	.loc	12 1067 9 is_stmt 0
	cmpq	$0, %rax
	jne	LBB87_2
	.loc	12 1068 16 is_stmt 1
	movq	-72(%rbp), %rax
	movq	-64(%rbp), %rdx
	movq	%rax, -16(%rbp)
	movq	%rdx, -8(%rbp)
	.loc	12 1071 6
	addq	$96, %rsp
	popq	%rbp
	retq
LBB87_2:
Ltmp737:
	.loc	12 0 6 is_stmt 0
	movq	-80(%rbp), %r8
	movq	-88(%rbp), %rsi
	movq	-96(%rbp), %rdi
Ltmp741:
	.loc	12 1069 23 is_stmt 1
	leaq	l___unnamed_4(%rip), %rcx
	leaq	-56(%rbp), %rdx
	callq	__ZN4core6result13unwrap_failed17h533573e6d3b6061cE
Ltmp738:
	jmp	LBB87_5
Ltmp742:
LBB87_3:
	.loc	12 1063 5
	movq	-32(%rbp), %rdi
	callq	__Unwind_Resume
Ltmp743:
LBB87_4:
Ltmp739:
	.loc	12 0 5 is_stmt 0
	movq	%rax, %rcx
	movl	%edx, %eax
	movq	%rcx, -32(%rbp)
	movl	%eax, -24(%rbp)
	jmp	LBB87_3
LBB87_5:
	ud2
Lfunc_end87:
	.cfi_endproc
	.section	__TEXT,__gcc_except_tab
	.p2align	2
GCC_except_table87:
Lexception21:
	.byte	255
	.byte	255
	.byte	1
	.uleb128 Lcst_end21-Lcst_begin21
Lcst_begin21:
	.uleb128 Ltmp737-Lfunc_begin87
	.uleb128 Ltmp738-Ltmp737
	.uleb128 Ltmp739-Lfunc_begin87
	.byte	0
	.uleb128 Ltmp738-Lfunc_begin87
	.uleb128 Lfunc_end87-Ltmp738
	.byte	0
	.byte	0
Lcst_end21:
	.p2align	2

	.section	__TEXT,__text,regular,pure_instructions
	.globl	__ZN50_$LT$$RF$mut$u20$W$u20$as$u20$core..fmt..Write$GT$10write_char17hca94fc9f698bf4b5E
	.p2align	4, 0x90
__ZN50_$LT$$RF$mut$u20$W$u20$as$u20$core..fmt..Write$GT$10write_char17hca94fc9f698bf4b5E:
Lfunc_begin88:
	.loc	19 207 0 is_stmt 1
	.cfi_startproc
	pushq	%rbp
	.cfi_def_cfa_offset 16
	.cfi_offset %rbp, -16
	movq	%rsp, %rbp
	.cfi_def_cfa_register %rbp
	subq	$16, %rsp
	movq	%rdi, -16(%rbp)
	movl	%esi, -4(%rbp)
Ltmp744:
	.loc	19 208 9 prologue_end
	movq	(%rdi), %rdi
	callq	__ZN4core3fmt5Write10write_char17h4f7e04bcf4b7d2c4E
	.loc	19 209 6
	andb	$1, %al
	movzbl	%al, %eax
	addq	$16, %rsp
	popq	%rbp
	retq
Ltmp745:
Lfunc_end88:
	.cfi_endproc

	.globl	__ZN50_$LT$$RF$mut$u20$W$u20$as$u20$core..fmt..Write$GT$9write_fmt17hd96f160c8d38fcc1E
	.p2align	4, 0x90
__ZN50_$LT$$RF$mut$u20$W$u20$as$u20$core..fmt..Write$GT$9write_fmt17hd96f160c8d38fcc1E:
Lfunc_begin89:
	.loc	19 211 0
	.cfi_startproc
	pushq	%rbp
	.cfi_def_cfa_offset 16
	.cfi_offset %rbp, -16
	movq	%rsp, %rbp
	.cfi_def_cfa_register %rbp
	subq	$64, %rsp
	movq	%rdi, -8(%rbp)
Ltmp746:
	.loc	19 212 9 prologue_end
	movq	(%rdi), %rax
	movq	%rax, -64(%rbp)
	.loc	19 212 28 is_stmt 0
	leaq	-56(%rbp), %rdi
	movl	$48, %edx
	callq	_memcpy
Ltmp747:
	.loc	19 0 28
	movq	-64(%rbp), %rdi
	.loc	19 212 9
	leaq	-56(%rbp), %rsi
	callq	__ZN4core3fmt5Write9write_fmt17hd161149888882151E
	.loc	19 213 6 is_stmt 1
	andb	$1, %al
	movzbl	%al, %eax
	addq	$64, %rsp
	popq	%rbp
	retq
Ltmp748:
Lfunc_end89:
	.cfi_endproc

	.globl	__ZN50_$LT$$RF$mut$u20$W$u20$as$u20$core..fmt..Write$GT$9write_str17h24294b878b98ea47E
	.p2align	4, 0x90
__ZN50_$LT$$RF$mut$u20$W$u20$as$u20$core..fmt..Write$GT$9write_str17h24294b878b98ea47E:
Lfunc_begin90:
	.loc	19 203 0
	.cfi_startproc
	pushq	%rbp
	.cfi_def_cfa_offset 16
	.cfi_offset %rbp, -16
	movq	%rsp, %rbp
	.cfi_def_cfa_register %rbp
	subq	$32, %rsp
	movq	%rdi, -24(%rbp)
	movq	%rsi, -16(%rbp)
	movq	%rdx, -8(%rbp)
Ltmp749:
	.loc	19 204 9 prologue_end
	movq	(%rdi), %rdi
	callq	__ZN80_$LT$std..io..Write..write_fmt..Adapter$LT$T$GT$$u20$as$u20$core..fmt..Write$GT$9write_str17hd67f7cbcb475e944E
	.loc	19 205 6
	andb	$1, %al
	movzbl	%al, %eax
	addq	$32, %rsp
	popq	%rbp
	retq
Ltmp750:
Lfunc_end90:
	.cfi_endproc

	.globl	__ZN50_$LT$T$u20$as$u20$core..convert..Into$LT$U$GT$$GT$4into17h4fee3434cb1b7f74E
	.p2align	4, 0x90
__ZN50_$LT$T$u20$as$u20$core..convert..Into$LT$U$GT$$GT$4into17h4fee3434cb1b7f74E:
Lfunc_begin91:
	.file	33 "/rustc/2c8cc343237b8f7d5a3c3703e3a87f2eb2c54a74/library/core/src/convert" "mod.rs"
	.loc	33 725 0
	.cfi_startproc
	pushq	%rbp
	.cfi_def_cfa_offset 16
	.cfi_offset %rbp, -16
	movq	%rsp, %rbp
	.cfi_def_cfa_register %rbp
	subq	$16, %rsp
	movq	%rdi, -8(%rbp)
Ltmp751:
	.loc	33 726 9 prologue_end
	callq	__ZN98_$LT$core..ptr..non_null..NonNull$LT$T$GT$$u20$as$u20$core..convert..From$LT$$RF$mut$u20$T$GT$$GT$4from17h064f4f6370862643E
	.loc	33 727 6
	addq	$16, %rsp
	popq	%rbp
	retq
Ltmp752:
Lfunc_end91:
	.cfi_endproc

	.globl	__ZN50_$LT$T$u20$as$u20$core..convert..Into$LT$U$GT$$GT$4into17h8ad2ba563faf3c95E
	.p2align	4, 0x90
__ZN50_$LT$T$u20$as$u20$core..convert..Into$LT$U$GT$$GT$4into17h8ad2ba563faf3c95E:
Lfunc_begin92:
	.loc	33 725 0
	.cfi_startproc
	pushq	%rbp
	.cfi_def_cfa_offset 16
	.cfi_offset %rbp, -16
	movq	%rsp, %rbp
	.cfi_def_cfa_register %rbp
	pushq	%rax
	movl	%edi, -8(%rbp)
	movl	%edi, -4(%rbp)
Ltmp753:
	.file	34 "/rustc/2c8cc343237b8f7d5a3c3703e3a87f2eb2c54a74/library/core/src/convert" "num.rs"
	.loc	34 54 17 prologue_end
	movl	%edi, %eax
	xorl	%ecx, %ecx
	movl	%ecx, %edx
Ltmp754:
	.loc	33 727 6
	addq	$8, %rsp
	popq	%rbp
	retq
Ltmp755:
Lfunc_end92:
	.cfi_endproc

	.globl	__ZN53_$LT$T$u20$as$u20$core..convert..TryFrom$LT$U$GT$$GT$8try_from17h313819ec9e05e0c8E
	.p2align	4, 0x90
__ZN53_$LT$T$u20$as$u20$core..convert..TryFrom$LT$U$GT$$GT$8try_from17h313819ec9e05e0c8E:
Lfunc_begin93:
	.loc	33 781 0
	.cfi_startproc
	pushq	%rbp
	.cfi_def_cfa_offset 16
	.cfi_offset %rbp, -16
	movq	%rsp, %rbp
	.cfi_def_cfa_register %rbp
	subq	$32, %rsp
	movl	%edi, -4(%rbp)
Ltmp756:
	.loc	33 782 12 prologue_end
	callq	__ZN50_$LT$T$u20$as$u20$core..convert..Into$LT$U$GT$$GT$4into17h8ad2ba563faf3c95E
	.loc	33 782 9 is_stmt 0
	movq	%rdx, -16(%rbp)
	movq	%rax, -24(%rbp)
	.loc	33 783 6 is_stmt 1
	movq	-24(%rbp), %rax
	movq	-16(%rbp), %rdx
	addq	$32, %rsp
	popq	%rbp
	retq
Ltmp757:
Lfunc_end93:
	.cfi_endproc

	.globl	__ZN53_$LT$T$u20$as$u20$core..convert..TryInto$LT$U$GT$$GT$8try_into17hf72856341b4a6d18E
	.p2align	4, 0x90
__ZN53_$LT$T$u20$as$u20$core..convert..TryInto$LT$U$GT$$GT$8try_into17hf72856341b4a6d18E:
Lfunc_begin94:
	.loc	33 766 0
	.cfi_startproc
	pushq	%rbp
	.cfi_def_cfa_offset 16
	.cfi_offset %rbp, -16
	movq	%rsp, %rbp
	.cfi_def_cfa_register %rbp
	subq	$16, %rsp
	movl	%edi, -4(%rbp)
Ltmp758:
	.loc	33 767 9 prologue_end
	callq	__ZN53_$LT$T$u20$as$u20$core..convert..TryFrom$LT$U$GT$$GT$8try_from17h313819ec9e05e0c8E
	.loc	33 768 6
	addq	$16, %rsp
	popq	%rbp
	retq
Ltmp759:
Lfunc_end94:
	.cfi_endproc

	.globl	__ZN54_$LT$$BP$const$u20$T$u20$as$u20$core..fmt..Pointer$GT$3fmt17h7118f36bcf1ae1a7E
	.p2align	4, 0x90
__ZN54_$LT$$BP$const$u20$T$u20$as$u20$core..fmt..Pointer$GT$3fmt17h7118f36bcf1ae1a7E:
Lfunc_begin95:
	.loc	19 2478 0
	.cfi_startproc
	pushq	%rbp
	.cfi_def_cfa_offset 16
	.cfi_offset %rbp, -16
	movq	%rsp, %rbp
	.cfi_def_cfa_register %rbp
	subq	$32, %rsp
	movq	%rdi, -32(%rbp)
	movq	%rsi, -24(%rbp)
Ltmp760:
	.loc	19 2480 28 prologue_end
	movq	(%rdi), %rdi
	.loc	19 2480 27 is_stmt 0
	movq	%rdi, -16(%rbp)
Ltmp761:
	.loc	3 241 9 is_stmt 1
	movq	%rdi, -8(%rbp)
Ltmp762:
	.loc	19 2480 9
	callq	__ZN4core3fmt17pointer_fmt_inner17hfee30366ae14be28E
	.loc	19 2481 6
	andb	$1, %al
	movzbl	%al, %eax
	addq	$32, %rsp
	popq	%rbp
	retq
Ltmp763:
Lfunc_end95:
	.cfi_endproc

	.globl	__ZN54_$LT$$BP$const$u20$T$u20$as$u20$core..fmt..Pointer$GT$3fmt17hea033daa71faacc7E
	.p2align	4, 0x90
__ZN54_$LT$$BP$const$u20$T$u20$as$u20$core..fmt..Pointer$GT$3fmt17hea033daa71faacc7E:
Lfunc_begin96:
	.loc	19 2478 0
	.cfi_startproc
	pushq	%rbp
	.cfi_def_cfa_offset 16
	.cfi_offset %rbp, -16
	movq	%rsp, %rbp
	.cfi_def_cfa_register %rbp
	subq	$32, %rsp
	movq	%rdi, -32(%rbp)
	movq	%rsi, -24(%rbp)
Ltmp764:
	.loc	19 2480 28 prologue_end
	movq	(%rdi), %rdi
	.loc	19 2480 27 is_stmt 0
	movq	%rdi, -16(%rbp)
Ltmp765:
	.loc	3 241 9 is_stmt 1
	movq	%rdi, -8(%rbp)
Ltmp766:
	.loc	19 2480 9
	callq	__ZN4core3fmt17pointer_fmt_inner17hfee30366ae14be28E
	.loc	19 2481 6
	andb	$1, %al
	movzbl	%al, %eax
	addq	$32, %rsp
	popq	%rbp
	retq
Ltmp767:
Lfunc_end96:
	.cfi_endproc

	.globl	__ZN5alloc2rc10RcInnerPtr10dec_strong17h8608fc61dc65c583E
	.p2align	4, 0x90
__ZN5alloc2rc10RcInnerPtr10dec_strong17h8608fc61dc65c583E:
Lfunc_begin97:
	.file	35 "/rustc/2c8cc343237b8f7d5a3c3703e3a87f2eb2c54a74/library/alloc/src" "rc.rs"
	.loc	35 2633 0
	.cfi_startproc
	pushq	%rbp
	.cfi_def_cfa_offset 16
	.cfi_offset %rbp, -16
	movq	%rsp, %rbp
	.cfi_def_cfa_register %rbp
	subq	$48, %rsp
	movq	%rdi, -48(%rbp)
	movq	%rdi, -40(%rbp)
	movq	%rdi, -8(%rbp)
Ltmp768:
	.loc	35 2634 9 prologue_end
	movq	%rdi, -32(%rbp)
	.loc	35 2634 31 is_stmt 0
	callq	__ZN5alloc2rc10RcInnerPtr6strong17h1e94614762d9289aE
	movq	-48(%rbp), %rdi
	movq	%rax, %rsi
	subq	$1, %rsi
	movq	%rsi, -24(%rbp)
Ltmp769:
	.loc	18 363 19 is_stmt 1
	callq	__ZN4core4cell13Cell$LT$T$GT$7replace17h7763c2d069068322E
	movq	%rax, -16(%rbp)
Ltmp770:
	.loc	35 2635 6
	addq	$48, %rsp
	popq	%rbp
	retq
Ltmp771:
Lfunc_end97:
	.cfi_endproc

	.globl	__ZN5alloc2rc10RcInnerPtr10inc_strong17h418d5b513ecae992E
	.p2align	4, 0x90
__ZN5alloc2rc10RcInnerPtr10inc_strong17h418d5b513ecae992E:
Lfunc_begin98:
	.loc	35 2610 0
	.cfi_startproc
	pushq	%rbp
	.cfi_def_cfa_offset 16
	.cfi_offset %rbp, -16
	movq	%rsp, %rbp
	.cfi_def_cfa_register %rbp
	subq	$96, %rsp
	movq	%rdi, -88(%rbp)
	movq	%rdi, -72(%rbp)
Ltmp772:
	.loc	35 2611 22 prologue_end
	callq	__ZN5alloc2rc10RcInnerPtr6strong17h1e94614762d9289aE
	movq	-88(%rbp), %rdi
	movq	%rax, %rsi
	movq	%rsi, -64(%rbp)
Ltmp773:
	.loc	35 2621 22
	movq	%rsi, -56(%rbp)
Ltmp774:
	.loc	27 1162 13
	addq	$1, %rsi
	movq	%rsi, -80(%rbp)
	movq	%rsi, -48(%rbp)
	movq	%rdi, -8(%rbp)
Ltmp775:
	.loc	35 2622 9
	movq	%rdi, -40(%rbp)
	.loc	35 2622 31 is_stmt 0
	movq	%rsi, -32(%rbp)
Ltmp776:
	.loc	18 363 19 is_stmt 1
	callq	__ZN4core4cell13Cell$LT$T$GT$7replace17h7763c2d069068322E
	movq	%rax, %rcx
	movq	-80(%rbp), %rax
	movq	%rcx, -24(%rbp)
Ltmp777:
	.loc	35 2627 39
	cmpq	$0, %rax
	sete	%al
	.loc	35 2627 12 is_stmt 0
	andb	$1, %al
	movb	%al, -9(%rbp)
	testb	$1, -9(%rbp)
	jne	LBB98_2
Ltmp778:
	.loc	35 2630 6 is_stmt 1
	addq	$96, %rsp
	popq	%rbp
	retq
LBB98_2:
Ltmp779:
	.loc	35 2628 13
	ud2
Ltmp780:
Lfunc_end98:
	.cfi_endproc

	.globl	__ZN5alloc2rc10RcInnerPtr4weak17hdd87e13a3eb7e2ebE
	.p2align	4, 0x90
__ZN5alloc2rc10RcInnerPtr4weak17hdd87e13a3eb7e2ebE:
Lfunc_begin99:
	.loc	35 2638 0
	.cfi_startproc
	pushq	%rbp
	.cfi_def_cfa_offset 16
	.cfi_offset %rbp, -16
	movq	%rsp, %rbp
	.cfi_def_cfa_register %rbp
	subq	$32, %rsp
	movq	%rdi, -32(%rbp)
	movq	%rdi, -8(%rbp)
Ltmp781:
	.loc	35 2674 9 prologue_end
	movq	%rdi, %rax
	addq	$8, %rax
Ltmp782:
	.loc	35 2639 9
	movq	%rax, -24(%rbp)
Ltmp783:
	.loc	18 452 19
	movq	%rax, -16(%rbp)
	.loc	18 452 18 is_stmt 0
	movq	8(%rdi), %rax
Ltmp784:
	.loc	35 2640 6 is_stmt 1
	addq	$32, %rsp
	popq	%rbp
	retq
Ltmp785:
Lfunc_end99:
	.cfi_endproc

	.globl	__ZN5alloc2rc10RcInnerPtr6strong17h1e94614762d9289aE
	.p2align	4, 0x90
__ZN5alloc2rc10RcInnerPtr6strong17h1e94614762d9289aE:
Lfunc_begin100:
	.loc	35 2605 0
	.cfi_startproc
	pushq	%rbp
	.cfi_def_cfa_offset 16
	.cfi_offset %rbp, -16
	movq	%rsp, %rbp
	.cfi_def_cfa_register %rbp
	subq	$32, %rsp
	movq	%rdi, -32(%rbp)
	movq	%rdi, -8(%rbp)
Ltmp786:
	.loc	35 2606 9 prologue_end
	movq	%rdi, -24(%rbp)
Ltmp787:
	.loc	18 452 19
	movq	%rdi, -16(%rbp)
	.loc	18 452 18 is_stmt 0
	movq	(%rdi), %rax
Ltmp788:
	.loc	35 2607 6 is_stmt 1
	addq	$32, %rsp
	popq	%rbp
	retq
Ltmp789:
Lfunc_end100:
	.cfi_endproc

	.globl	__ZN5alloc2rc10RcInnerPtr8dec_weak17hb2b43c506a82045dE
	.p2align	4, 0x90
__ZN5alloc2rc10RcInnerPtr8dec_weak17hb2b43c506a82045dE:
Lfunc_begin101:
	.loc	35 2666 0
	.cfi_startproc
	pushq	%rbp
	.cfi_def_cfa_offset 16
	.cfi_offset %rbp, -16
	movq	%rsp, %rbp
	.cfi_def_cfa_register %rbp
	subq	$48, %rsp
	movq	%rdi, -40(%rbp)
	movq	%rdi, -8(%rbp)
Ltmp790:
	.loc	35 2674 9 prologue_end
	movq	%rdi, %rax
	addq	$8, %rax
	movq	%rax, -48(%rbp)
Ltmp791:
	.loc	35 2667 9
	movq	%rax, -32(%rbp)
	.loc	35 2667 29 is_stmt 0
	callq	__ZN5alloc2rc10RcInnerPtr4weak17hdd87e13a3eb7e2ebE
	movq	-48(%rbp), %rdi
	movq	%rax, %rsi
	subq	$1, %rsi
	movq	%rsi, -24(%rbp)
Ltmp792:
	.loc	18 363 19 is_stmt 1
	callq	__ZN4core4cell13Cell$LT$T$GT$7replace17h7763c2d069068322E
	movq	%rax, -16(%rbp)
Ltmp793:
	.loc	35 2668 6
	addq	$48, %rsp
	popq	%rbp
	retq
Ltmp794:
Lfunc_end101:
	.cfi_endproc

	.globl	__ZN5alloc2rc11Rc$LT$T$GT$10from_inner17hd1356b054f206e2fE
	.p2align	4, 0x90
__ZN5alloc2rc11Rc$LT$T$GT$10from_inner17hd1356b054f206e2fE:
Lfunc_begin102:
	.loc	35 353 0
	.cfi_startproc
	pushq	%rbp
	.cfi_def_cfa_offset 16
	.cfi_offset %rbp, -16
	movq	%rsp, %rbp
	.cfi_def_cfa_register %rbp
	subq	$16, %rsp
	movq	%rdi, -8(%rbp)
Ltmp795:
	.loc	35 354 9 prologue_end
	movq	%rdi, -16(%rbp)
	.loc	35 355 6
	movq	-16(%rbp), %rax
	addq	$16, %rsp
	popq	%rbp
	retq
Ltmp796:
Lfunc_end102:
	.cfi_endproc

	.globl	__ZN5alloc2rc11Rc$LT$T$GT$3new17h8a7314556b961899E
	.p2align	4, 0x90
__ZN5alloc2rc11Rc$LT$T$GT$3new17h8a7314556b961899E:
Lfunc_begin103:
	.loc	35 374 0
	.cfi_startproc
	.cfi_personality 155, _rust_eh_personality
	.cfi_lsda 16, Lexception22
	pushq	%rbp
	.cfi_def_cfa_offset 16
	.cfi_offset %rbp, -16
	movq	%rsp, %rbp
	.cfi_def_cfa_register %rbp
	subq	$160, %rsp
	movq	%rdi, -72(%rbp)
	movq	%rsi, -64(%rbp)
Ltmp805:
	.loc	18 346 9 prologue_end
	movq	$1, -96(%rbp)
Ltmp806:
	.loc	18 346 9 is_stmt 0
	movq	$1, -88(%rbp)
Ltmp807:
	.loc	35 381 36 is_stmt 1
	movq	-96(%rbp), %rax
	movq	%rax, -128(%rbp)
	movq	-88(%rbp), %rax
	movq	%rax, -120(%rbp)
	movq	%rdi, -112(%rbp)
	movq	%rsi, -104(%rbp)
Ltmp797:
	movl	$32, %edi
	movl	$8, %esi
Ltmp808:
	.file	36 "/rustc/2c8cc343237b8f7d5a3c3703e3a87f2eb2c54a74/library/alloc/src" "boxed.rs"
	.loc	36 219 9
	callq	__ZN5alloc5alloc15exchange_malloc17h76dda19ef0485058E
Ltmp798:
	movq	%rax, -136(%rbp)
	jmp	LBB103_3
LBB103_1:
	.loc	36 220 5
	jmp	LBB103_4
LBB103_2:
Ltmp799:
	.loc	36 0 5 is_stmt 0
	movq	%rax, %rcx
	movl	%edx, %eax
	movq	%rcx, -56(%rbp)
	movl	%eax, -48(%rbp)
	jmp	LBB103_1
LBB103_3:
	movq	-136(%rbp), %rax
	.loc	36 219 9 is_stmt 1
	movq	%rax, -40(%rbp)
	.loc	36 219 18 is_stmt 0
	movq	-104(%rbp), %rcx
	movq	%rcx, 24(%rax)
	movq	-112(%rbp), %rcx
	movq	%rcx, 16(%rax)
	movq	-128(%rbp), %rcx
	movq	-120(%rbp), %rdx
	movq	%rdx, 8(%rax)
	movq	%rcx, (%rax)
Ltmp809:
	.loc	36 1188 47 is_stmt 1
	movq	%rax, -32(%rbp)
Ltmp810:
	.loc	22 71 9
	movq	%rax, -80(%rbp)
	leaq	-80(%rbp), %rax
Ltmp811:
	.loc	36 1188 24
	movq	%rax, -24(%rbp)
	movq	-80(%rbp), %rdi
	movq	%rdi, -16(%rbp)
Ltmp812:
	.file	37 "/rustc/2c8cc343237b8f7d5a3c3703e3a87f2eb2c54a74/library/core/src/ptr" "unique.rs"
	.loc	37 104 9
	movq	%rdi, -8(%rbp)
Ltmp813:
Ltmp800:
	.loc	35 381 17
	callq	__ZN50_$LT$T$u20$as$u20$core..convert..Into$LT$U$GT$$GT$4into17h4fee3434cb1b7f74E
Ltmp801:
	movq	%rax, -144(%rbp)
	jmp	LBB103_6
LBB103_4:
	.loc	35 385 5
	xorl	%eax, %eax
	testb	$1, %al
	jne	LBB103_9
	jmp	LBB103_8
LBB103_5:
Ltmp804:
	.loc	35 0 5 is_stmt 0
	movq	%rax, %rcx
	movl	%edx, %eax
	movq	%rcx, -56(%rbp)
	movl	%eax, -48(%rbp)
	jmp	LBB103_4
LBB103_6:
Ltmp802:
	movq	-144(%rbp), %rdi
	.loc	35 380 13 is_stmt 1
	callq	__ZN5alloc2rc11Rc$LT$T$GT$10from_inner17hd1356b054f206e2fE
Ltmp803:
	movq	%rax, -152(%rbp)
	jmp	LBB103_7
LBB103_7:
	.loc	35 0 13 is_stmt 0
	movq	-152(%rbp), %rax
	.loc	35 385 6 is_stmt 1
	addq	$160, %rsp
	popq	%rbp
	retq
LBB103_8:
	.loc	35 374 5
	movq	-56(%rbp), %rdi
	callq	__Unwind_Resume
LBB103_9:
	.loc	35 385 5
	jmp	LBB103_8
Ltmp814:
Lfunc_end103:
	.cfi_endproc
	.section	__TEXT,__gcc_except_tab
	.p2align	2
GCC_except_table103:
Lexception22:
	.byte	255
	.byte	255
	.byte	1
	.uleb128 Lcst_end22-Lcst_begin22
Lcst_begin22:
	.uleb128 Ltmp797-Lfunc_begin103
	.uleb128 Ltmp798-Ltmp797
	.uleb128 Ltmp799-Lfunc_begin103
	.byte	0
	.uleb128 Ltmp800-Lfunc_begin103
	.uleb128 Ltmp803-Ltmp800
	.uleb128 Ltmp804-Lfunc_begin103
	.byte	0
	.uleb128 Ltmp803-Lfunc_begin103
	.uleb128 Lfunc_end103-Ltmp803
	.byte	0
	.byte	0
Lcst_end22:
	.p2align	2

	.section	__TEXT,__text,regular,pure_instructions
	.p2align	4, 0x90
__ZN5alloc5alloc15exchange_malloc17h76dda19ef0485058E:
Lfunc_begin104:
	.file	38 "/rustc/2c8cc343237b8f7d5a3c3703e3a87f2eb2c54a74/library/alloc/src" "alloc.rs"
	.loc	38 324 0
	.cfi_startproc
	pushq	%rbp
	.cfi_def_cfa_offset 16
	.cfi_offset %rbp, -16
	movq	%rsp, %rbp
	.cfi_def_cfa_register %rbp
	subq	$208, %rsp
	movq	%rdi, -160(%rbp)
	movq	%rsi, -152(%rbp)
Ltmp815:
	.loc	38 325 61 prologue_end
	movq	%rdi, -144(%rbp)
	.loc	38 325 67 is_stmt 0
	movq	%rsi, -136(%rbp)
Ltmp816:
	.loc	30 120 65 is_stmt 1
	movq	%rsi, -128(%rbp)
Ltmp817:
	.loc	31 89 18
	movq	%rsi, -120(%rbp)
	movq	-120(%rbp), %rax
Ltmp818:
	.loc	30 120 18
	movq	%rdi, -200(%rbp)
	movq	%rax, -192(%rbp)
Ltmp819:
	.loc	38 326 11
	leaq	l___unnamed_15(%rip), %rdi
	movq	%rdi, -112(%rbp)
	.loc	38 326 27 is_stmt 0
	movq	-200(%rbp), %rsi
	movq	-192(%rbp), %rdx
	movq	%rsi, -104(%rbp)
	movq	%rdx, -96(%rbp)
	xorl	%ecx, %ecx
Ltmp820:
	.loc	38 237 9 is_stmt 1
	callq	__ZN5alloc5alloc6Global10alloc_impl17h5f8607a17e946abfE
	movq	%rdx, -176(%rbp)
	movq	%rax, -184(%rbp)
Ltmp821:
	.loc	38 326 11
	movq	-184(%rbp), %rdx
	xorl	%eax, %eax
	movl	$1, %ecx
	cmpq	$0, %rdx
	cmoveq	%rcx, %rax
	.loc	38 326 5 is_stmt 0
	cmpq	$0, %rax
	jne	LBB104_2
	.loc	38 327 12 is_stmt 1
	movq	-184(%rbp), %rax
	movq	-176(%rbp), %rcx
	movq	%rax, -88(%rbp)
	movq	%rcx, -80(%rbp)
Ltmp822:
	.loc	38 327 20 is_stmt 0
	movq	%rax, -72(%rbp)
	movq	%rcx, -64(%rbp)
Ltmp823:
	.loc	11 548 9 is_stmt 1
	movq	%rax, -56(%rbp)
	movq	%rcx, -48(%rbp)
Ltmp824:
	.loc	11 529 41
	movq	%rax, -40(%rbp)
	movq	%rcx, -32(%rbp)
Ltmp825:
	.loc	11 326 9
	movq	%rax, -24(%rbp)
	movq	%rcx, -16(%rbp)
Ltmp826:
	.loc	14 2037 9
	movq	%rax, -8(%rbp)
Ltmp827:
	.loc	11 201 13
	movq	%rax, -168(%rbp)
Ltmp828:
	.loc	11 326 9
	movq	-168(%rbp), %rax
Ltmp829:
	.loc	38 330 2
	addq	$208, %rsp
	popq	%rbp
	retq
LBB104_2:
Ltmp830:
	.loc	38 328 38
	movq	-200(%rbp), %rdi
	movq	-192(%rbp), %rsi
	.loc	38 328 19 is_stmt 0
	callq	__ZN5alloc5alloc18handle_alloc_error17hb5f6ff255f23ea4dE
Ltmp831:
Lfunc_end104:
	.cfi_endproc

	.p2align	4, 0x90
__ZN5alloc5alloc6Global10alloc_impl17h5f8607a17e946abfE:
Lfunc_begin105:
	.loc	38 172 0 is_stmt 1
	.cfi_startproc
	pushq	%rbp
	.cfi_def_cfa_offset 16
	.cfi_offset %rbp, -16
	movq	%rsp, %rbp
	.cfi_def_cfa_register %rbp
	subq	$352, %rsp
	movb	%cl, %al
	movb	%al, -345(%rbp)
	movq	%rsi, -336(%rbp)
	movq	%rdx, -328(%rbp)
	movq	%rdi, -208(%rbp)
	andb	$1, %al
	movb	%al, -193(%rbp)
Ltmp832:
	.loc	38 173 15 prologue_end
	leaq	-336(%rbp), %rax
	movq	%rax, -144(%rbp)
Ltmp833:
	.loc	30 129 9
	movq	-336(%rbp), %rax
	movq	%rax, -344(%rbp)
Ltmp834:
	.loc	38 173 9
	cmpq	$0, %rax
	jne	LBB105_2
	.loc	38 174 51
	leaq	-336(%rbp), %rax
	movq	%rax, -48(%rbp)
Ltmp835:
	.loc	30 216 71
	leaq	-336(%rbp), %rax
	movq	%rax, -40(%rbp)
Ltmp836:
	.loc	30 140 9
	movq	-328(%rbp), %rax
	movq	%rax, -32(%rbp)
Ltmp837:
	.loc	31 97 9
	movq	%rax, -232(%rbp)
	movq	-232(%rbp), %rax
	movq	%rax, -24(%rbp)
Ltmp838:
	.loc	23 599 14
	movq	%rax, -16(%rbp)
	movq	-16(%rbp), %rax
	movq	%rax, -8(%rbp)
Ltmp839:
	.loc	11 201 13
	movq	%rax, -304(%rbp)
Ltmp840:
	.loc	38 174 21
	movq	-304(%rbp), %rdi
	xorl	%eax, %eax
	movl	%eax, %esi
	callq	__ZN4core3ptr8non_null26NonNull$LT$$u5b$T$u5d$$GT$20slice_from_raw_parts17hf373049caee609eaE
	.loc	38 174 18 is_stmt 0
	movq	%rax, -320(%rbp)
	movq	%rdx, -312(%rbp)
	.loc	38 174 72
	jmp	LBB105_15
LBB105_2:
	.loc	38 0 72
	movb	-345(%rbp), %al
	movq	-344(%rbp), %rcx
	.loc	38 176 13 is_stmt 1
	movq	%rcx, -136(%rbp)
Ltmp841:
	.loc	38 177 34
	testb	$1, %al
	jne	LBB105_4
	.loc	38 177 79 is_stmt 0
	movq	-336(%rbp), %rcx
	movq	-328(%rbp), %rax
	movq	%rcx, -272(%rbp)
	movq	%rax, -264(%rbp)
Ltmp842:
	.loc	38 95 27 is_stmt 1
	leaq	-272(%rbp), %rax
	movq	%rax, -104(%rbp)
Ltmp843:
	.loc	30 129 9
	movq	-272(%rbp), %rdi
Ltmp844:
	.loc	38 95 42
	leaq	-272(%rbp), %rax
	movq	%rax, -96(%rbp)
Ltmp845:
	.loc	30 140 9
	movq	-264(%rbp), %rax
	movq	%rax, -88(%rbp)
Ltmp846:
	.loc	31 97 9
	movq	%rax, -216(%rbp)
	movq	-216(%rbp), %rsi
Ltmp847:
	.loc	38 95 14
	callq	___rust_alloc
	movq	%rax, -296(%rbp)
Ltmp848:
	.loc	38 177 31
	jmp	LBB105_5
LBB105_4:
	.loc	38 177 56 is_stmt 0
	movq	-336(%rbp), %rcx
	movq	-328(%rbp), %rax
	movq	%rcx, -288(%rbp)
	movq	%rax, -280(%rbp)
Ltmp849:
	.loc	38 166 34 is_stmt 1
	leaq	-288(%rbp), %rax
	movq	%rax, -128(%rbp)
Ltmp850:
	.loc	30 129 9
	movq	-288(%rbp), %rdi
Ltmp851:
	.loc	38 166 49
	leaq	-288(%rbp), %rax
	movq	%rax, -120(%rbp)
Ltmp852:
	.loc	30 140 9
	movq	-280(%rbp), %rax
	movq	%rax, -112(%rbp)
Ltmp853:
	.loc	31 97 9
	movq	%rax, -224(%rbp)
	movq	-224(%rbp), %rsi
Ltmp854:
	.loc	38 166 14
	callq	___rust_alloc_zeroed
	movq	%rax, -296(%rbp)
Ltmp855:
LBB105_5:
	.loc	38 178 40
	movq	-296(%rbp), %rdi
	.loc	38 178 27 is_stmt 0
	callq	__ZN4core3ptr8non_null16NonNull$LT$T$GT$3new17hdfc4653b11aeed17E
	movq	%rax, -240(%rbp)
Ltmp856:
	.loc	15 1096 15 is_stmt 1
	movq	-240(%rbp), %rdx
	movl	$1, %eax
	xorl	%ecx, %ecx
	cmpq	$0, %rdx
	cmoveq	%rcx, %rax
	.loc	15 1096 9 is_stmt 0
	cmpq	$0, %rax
	jne	LBB105_7
	.loc	15 1098 21 is_stmt 1
	movq	$0, -248(%rbp)
	.loc	15 1098 28 is_stmt 0
	jmp	LBB105_8
LBB105_7:
	.loc	15 1097 18 is_stmt 1
	movq	-240(%rbp), %rax
	movq	%rax, -80(%rbp)
Ltmp857:
	.loc	15 1097 24 is_stmt 0
	movq	%rax, -248(%rbp)
Ltmp858:
LBB105_8:
	.loc	12 2091 15 is_stmt 1
	movq	-248(%rbp), %rdx
	xorl	%eax, %eax
	movl	$1, %ecx
	cmpq	$0, %rdx
	cmoveq	%rcx, %rax
	.loc	12 2091 9 is_stmt 0
	cmpq	$0, %rax
	jne	LBB105_10
	.loc	12 2092 16 is_stmt 1
	movq	-248(%rbp), %rax
	movq	%rax, -72(%rbp)
Ltmp859:
	.loc	12 2092 22 is_stmt 0
	movq	%rax, -256(%rbp)
Ltmp860:
	.loc	12 2092 45
	jmp	LBB105_11
LBB105_10:
Ltmp861:
	.loc	12 2093 23 is_stmt 1
	movq	$0, -256(%rbp)
Ltmp862:
LBB105_11:
	.loc	38 178 27
	movq	-256(%rbp), %rdx
	xorl	%eax, %eax
	movl	$1, %ecx
	cmpq	$0, %rdx
	cmoveq	%rcx, %rax
	cmpq	$0, %rax
	jne	LBB105_13
	.loc	38 0 27 is_stmt 0
	movq	-344(%rbp), %rsi
	.loc	38 178 27
	movq	-256(%rbp), %rdi
	movq	%rdi, -64(%rbp)
Ltmp863:
	.loc	38 178 27
	movq	%rdi, -56(%rbp)
Ltmp864:
	.loc	38 179 20 is_stmt 1
	callq	__ZN4core3ptr8non_null26NonNull$LT$$u5b$T$u5d$$GT$20slice_from_raw_parts17hf373049caee609eaE
	.loc	38 179 17 is_stmt 0
	movq	%rax, -320(%rbp)
	movq	%rdx, -312(%rbp)
Ltmp865:
	.loc	38 180 13 is_stmt 1
	jmp	LBB105_15
LBB105_13:
Ltmp866:
	.loc	12 2107 23
	movq	$0, -320(%rbp)
Ltmp867:
LBB105_14:
	.loc	38 182 6
	movq	-320(%rbp), %rax
	movq	-312(%rbp), %rdx
	addq	$352, %rsp
	popq	%rbp
	retq
LBB105_15:
	jmp	LBB105_14
Ltmp868:
Lfunc_end105:
	.cfi_endproc

	.globl	__ZN5alloc5alloc8box_free17h16fd2f61edfb0351E
	.p2align	4, 0x90
__ZN5alloc5alloc8box_free17h16fd2f61edfb0351E:
Lfunc_begin106:
	.loc	38 340 0
	.cfi_startproc
	.cfi_personality 155, _rust_eh_personality
	.cfi_lsda 16, Lexception23
	pushq	%rbp
	.cfi_def_cfa_offset 16
	.cfi_offset %rbp, -16
	movq	%rsp, %rbp
	.cfi_def_cfa_register %rbp
	subq	$304, %rsp
	movq	%rdi, -288(%rbp)
	movq	%rsi, -280(%rbp)
Ltmp872:
	.loc	38 345 32 prologue_end
	leaq	-288(%rbp), %rax
	movq	%rax, -224(%rbp)
Ltmp873:
	.loc	37 117 18
	leaq	-288(%rbp), %rax
	movq	%rax, -216(%rbp)
Ltmp874:
	.loc	11 376 20
	movq	-288(%rbp), %rcx
	movq	-280(%rbp), %rax
	movq	%rcx, -208(%rbp)
	movq	%rax, -200(%rbp)
Ltmp875:
	.loc	38 345 20
	movq	8(%rax), %rax
	movq	%rax, -192(%rbp)
	movq	-192(%rbp), %rcx
	movq	%rcx, -304(%rbp)
	movq	%rcx, -184(%rbp)
Ltmp876:
	.loc	38 346 38
	leaq	-288(%rbp), %rax
	movq	%rax, -176(%rbp)
Ltmp877:
	.loc	37 117 18
	leaq	-288(%rbp), %rax
	movq	%rax, -168(%rbp)
Ltmp878:
	.loc	11 376 20
	movq	-288(%rbp), %rdx
	movq	-280(%rbp), %rax
	movq	%rdx, -160(%rbp)
	movq	%rax, -152(%rbp)
Ltmp879:
	.loc	38 346 21
	movq	16(%rax), %rax
	movq	%rax, -144(%rbp)
	movq	-144(%rbp), %rax
	movq	%rax, -136(%rbp)
Ltmp880:
	.loc	38 347 56
	movq	%rcx, -128(%rbp)
	.loc	38 347 62 is_stmt 0
	movq	%rax, -120(%rbp)
Ltmp881:
	.loc	30 120 65 is_stmt 1
	movq	%rax, -112(%rbp)
Ltmp882:
	.loc	31 89 18
	movq	%rax, -104(%rbp)
	movq	-104(%rbp), %rax
	movq	%rax, -296(%rbp)
Ltmp883:
	.loc	31 0 18 is_stmt 0
	movq	-296(%rbp), %rax
	movq	-304(%rbp), %rcx
	.loc	30 120 18 is_stmt 1
	movq	%rcx, -264(%rbp)
	movq	%rax, -256(%rbp)
Ltmp884:
	.loc	38 348 37
	movq	-288(%rbp), %rax
	movq	-280(%rbp), %rcx
	movq	%rax, -96(%rbp)
	movq	%rcx, -88(%rbp)
Ltmp885:
	.loc	37 137 22
	movq	%rax, -80(%rbp)
	movq	%rcx, -72(%rbp)
Ltmp886:
	.loc	11 450 41
	movq	%rax, -64(%rbp)
	movq	%rcx, -56(%rbp)
	movq	%rax, -48(%rbp)
Ltmp887:
	.loc	11 201 13
	movq	%rax, -232(%rbp)
Ltmp888:
	.loc	37 191 18
	movq	-232(%rbp), %rax
	.loc	37 191 9 is_stmt 0
	movq	%rax, -240(%rbp)
Ltmp889:
	.loc	11 768 41 is_stmt 1
	movq	-240(%rbp), %rax
	movq	%rax, -40(%rbp)
Ltmp890:
	.loc	37 104 9
	movq	%rax, -32(%rbp)
Ltmp891:
	.loc	11 326 9
	movq	%rax, -24(%rbp)
Ltmp892:
	.loc	11 201 13
	movq	%rax, -248(%rbp)
Ltmp893:
	.loc	38 348 50
	movq	-264(%rbp), %rdx
	movq	-256(%rbp), %rcx
	.loc	38 348 9 is_stmt 0
	movq	-248(%rbp), %rsi
Ltmp869:
	leaq	-272(%rbp), %rdi
	callq	__ZN63_$LT$alloc..alloc..Global$u20$as$u20$core..alloc..Allocator$GT$10deallocate17he853af7a605fb355E
Ltmp870:
	jmp	LBB106_4
Ltmp894:
LBB106_2:
	.loc	38 340 1 is_stmt 1
	movq	-16(%rbp), %rdi
	callq	__Unwind_Resume
LBB106_3:
Ltmp871:
	.loc	38 0 1 is_stmt 0
	movq	%rax, %rcx
	movl	%edx, %eax
	movq	%rcx, -16(%rbp)
	movl	%eax, -8(%rbp)
	jmp	LBB106_2
LBB106_4:
	.loc	38 350 2 is_stmt 1
	addq	$304, %rsp
	popq	%rbp
	retq
Ltmp895:
Lfunc_end106:
	.cfi_endproc
	.section	__TEXT,__gcc_except_tab
	.p2align	2
GCC_except_table106:
Lexception23:
	.byte	255
	.byte	255
	.byte	1
	.uleb128 Lcst_end23-Lcst_begin23
Lcst_begin23:
	.uleb128 Ltmp869-Lfunc_begin106
	.uleb128 Ltmp870-Ltmp869
	.uleb128 Ltmp871-Lfunc_begin106
	.byte	0
	.uleb128 Ltmp870-Lfunc_begin106
	.uleb128 Lfunc_end106-Ltmp870
	.byte	0
	.byte	0
Lcst_end23:
	.p2align	2

	.section	__TEXT,__text,regular,pure_instructions
	.globl	__ZN5alloc5alloc8box_free17h768965bdb37cd64cE
	.p2align	4, 0x90
__ZN5alloc5alloc8box_free17h768965bdb37cd64cE:
Lfunc_begin107:
	.loc	38 340 0
	.cfi_startproc
	.cfi_personality 155, _rust_eh_personality
	.cfi_lsda 16, Lexception24
	pushq	%rbp
	.cfi_def_cfa_offset 16
	.cfi_offset %rbp, -16
	movq	%rsp, %rbp
	.cfi_def_cfa_register %rbp
	subq	$304, %rsp
	movq	%rdi, -288(%rbp)
	movq	%rsi, -280(%rbp)
Ltmp899:
	.loc	38 345 32 prologue_end
	leaq	-288(%rbp), %rax
	movq	%rax, -224(%rbp)
Ltmp900:
	.loc	37 117 18
	leaq	-288(%rbp), %rax
	movq	%rax, -216(%rbp)
Ltmp901:
	.loc	11 376 20
	movq	-288(%rbp), %rcx
	movq	-280(%rbp), %rax
	movq	%rcx, -208(%rbp)
	movq	%rax, -200(%rbp)
Ltmp902:
	.loc	38 345 20
	movq	8(%rax), %rax
	movq	%rax, -192(%rbp)
	movq	-192(%rbp), %rcx
	movq	%rcx, -304(%rbp)
	movq	%rcx, -184(%rbp)
Ltmp903:
	.loc	38 346 38
	leaq	-288(%rbp), %rax
	movq	%rax, -176(%rbp)
Ltmp904:
	.loc	37 117 18
	leaq	-288(%rbp), %rax
	movq	%rax, -168(%rbp)
Ltmp905:
	.loc	11 376 20
	movq	-288(%rbp), %rdx
	movq	-280(%rbp), %rax
	movq	%rdx, -160(%rbp)
	movq	%rax, -152(%rbp)
Ltmp906:
	.loc	38 346 21
	movq	16(%rax), %rax
	movq	%rax, -144(%rbp)
	movq	-144(%rbp), %rax
	movq	%rax, -136(%rbp)
Ltmp907:
	.loc	38 347 56
	movq	%rcx, -128(%rbp)
	.loc	38 347 62 is_stmt 0
	movq	%rax, -120(%rbp)
Ltmp908:
	.loc	30 120 65 is_stmt 1
	movq	%rax, -112(%rbp)
Ltmp909:
	.loc	31 89 18
	movq	%rax, -104(%rbp)
	movq	-104(%rbp), %rax
	movq	%rax, -296(%rbp)
Ltmp910:
	.loc	31 0 18 is_stmt 0
	movq	-296(%rbp), %rax
	movq	-304(%rbp), %rcx
	.loc	30 120 18 is_stmt 1
	movq	%rcx, -264(%rbp)
	movq	%rax, -256(%rbp)
Ltmp911:
	.loc	38 348 37
	movq	-288(%rbp), %rax
	movq	-280(%rbp), %rcx
	movq	%rax, -96(%rbp)
	movq	%rcx, -88(%rbp)
Ltmp912:
	.loc	37 137 22
	movq	%rax, -80(%rbp)
	movq	%rcx, -72(%rbp)
Ltmp913:
	.loc	11 450 41
	movq	%rax, -64(%rbp)
	movq	%rcx, -56(%rbp)
	movq	%rax, -48(%rbp)
Ltmp914:
	.loc	11 201 13
	movq	%rax, -232(%rbp)
Ltmp915:
	.loc	37 191 18
	movq	-232(%rbp), %rax
	.loc	37 191 9 is_stmt 0
	movq	%rax, -240(%rbp)
Ltmp916:
	.loc	11 768 41 is_stmt 1
	movq	-240(%rbp), %rax
	movq	%rax, -40(%rbp)
Ltmp917:
	.loc	37 104 9
	movq	%rax, -32(%rbp)
Ltmp918:
	.loc	11 326 9
	movq	%rax, -24(%rbp)
Ltmp919:
	.loc	11 201 13
	movq	%rax, -248(%rbp)
Ltmp920:
	.loc	38 348 50
	movq	-264(%rbp), %rdx
	movq	-256(%rbp), %rcx
	.loc	38 348 9 is_stmt 0
	movq	-248(%rbp), %rsi
Ltmp896:
	leaq	-272(%rbp), %rdi
	callq	__ZN63_$LT$alloc..alloc..Global$u20$as$u20$core..alloc..Allocator$GT$10deallocate17he853af7a605fb355E
Ltmp897:
	jmp	LBB107_4
Ltmp921:
LBB107_2:
	.loc	38 340 1 is_stmt 1
	movq	-16(%rbp), %rdi
	callq	__Unwind_Resume
LBB107_3:
Ltmp898:
	.loc	38 0 1 is_stmt 0
	movq	%rax, %rcx
	movl	%edx, %eax
	movq	%rcx, -16(%rbp)
	movl	%eax, -8(%rbp)
	jmp	LBB107_2
LBB107_4:
	.loc	38 350 2 is_stmt 1
	addq	$304, %rsp
	popq	%rbp
	retq
Ltmp922:
Lfunc_end107:
	.cfi_endproc
	.section	__TEXT,__gcc_except_tab
	.p2align	2
GCC_except_table107:
Lexception24:
	.byte	255
	.byte	255
	.byte	1
	.uleb128 Lcst_end24-Lcst_begin24
Lcst_begin24:
	.uleb128 Ltmp896-Lfunc_begin107
	.uleb128 Ltmp897-Ltmp896
	.uleb128 Ltmp898-Lfunc_begin107
	.byte	0
	.uleb128 Ltmp897-Lfunc_begin107
	.uleb128 Lfunc_end107-Ltmp897
	.byte	0
	.byte	0
Lcst_end24:
	.p2align	2

	.section	__TEXT,__text,regular,pure_instructions
	.globl	__ZN5alloc5alloc8box_free17h7a111ee019ffe8b0E
	.p2align	4, 0x90
__ZN5alloc5alloc8box_free17h7a111ee019ffe8b0E:
Lfunc_begin108:
	.loc	38 340 0
	.cfi_startproc
	.cfi_personality 155, _rust_eh_personality
	.cfi_lsda 16, Lexception25
	pushq	%rbp
	.cfi_def_cfa_offset 16
	.cfi_offset %rbp, -16
	movq	%rsp, %rbp
	.cfi_def_cfa_register %rbp
	subq	$256, %rsp
	movq	%rdi, -240(%rbp)
Ltmp926:
	.loc	38 345 32 prologue_end
	leaq	-240(%rbp), %rax
	movq	%rax, -184(%rbp)
Ltmp927:
	.loc	37 117 18
	leaq	-240(%rbp), %rax
	movq	%rax, -176(%rbp)
Ltmp928:
	.loc	11 376 20
	movq	-240(%rbp), %rax
	movq	%rax, -168(%rbp)
Ltmp929:
	.loc	38 345 20
	movq	$24, -160(%rbp)
	movq	-160(%rbp), %rcx
	movq	%rcx, -256(%rbp)
	movq	%rcx, -152(%rbp)
Ltmp930:
	.loc	38 346 38
	leaq	-240(%rbp), %rax
	movq	%rax, -144(%rbp)
Ltmp931:
	.loc	37 117 18
	leaq	-240(%rbp), %rax
	movq	%rax, -136(%rbp)
Ltmp932:
	.loc	11 376 20
	movq	-240(%rbp), %rax
	movq	%rax, -128(%rbp)
Ltmp933:
	.loc	38 346 21
	movq	$8, -120(%rbp)
	movq	-120(%rbp), %rax
	movq	%rax, -112(%rbp)
Ltmp934:
	.loc	38 347 56
	movq	%rcx, -104(%rbp)
	.loc	38 347 62 is_stmt 0
	movq	%rax, -96(%rbp)
Ltmp935:
	.loc	30 120 65 is_stmt 1
	movq	%rax, -88(%rbp)
Ltmp936:
	.loc	31 89 18
	movq	%rax, -80(%rbp)
	movq	-80(%rbp), %rax
	movq	%rax, -248(%rbp)
Ltmp937:
	.loc	31 0 18 is_stmt 0
	movq	-248(%rbp), %rax
	movq	-256(%rbp), %rcx
	.loc	30 120 18 is_stmt 1
	movq	%rcx, -224(%rbp)
	movq	%rax, -216(%rbp)
Ltmp938:
	.loc	38 348 37
	movq	-240(%rbp), %rax
	movq	%rax, -72(%rbp)
Ltmp939:
	.loc	37 137 22
	movq	%rax, -64(%rbp)
Ltmp940:
	.loc	11 450 41
	movq	%rax, -56(%rbp)
	movq	%rax, -48(%rbp)
Ltmp941:
	.loc	11 201 13
	movq	%rax, -192(%rbp)
Ltmp942:
	.loc	37 191 18
	movq	-192(%rbp), %rax
	.loc	37 191 9 is_stmt 0
	movq	%rax, -200(%rbp)
Ltmp943:
	.loc	11 768 41 is_stmt 1
	movq	-200(%rbp), %rax
	movq	%rax, -40(%rbp)
Ltmp944:
	.loc	37 104 9
	movq	%rax, -32(%rbp)
Ltmp945:
	.loc	11 326 9
	movq	%rax, -24(%rbp)
Ltmp946:
	.loc	11 201 13
	movq	%rax, -208(%rbp)
Ltmp947:
	.loc	38 348 50
	movq	-224(%rbp), %rdx
	movq	-216(%rbp), %rcx
	.loc	38 348 9 is_stmt 0
	movq	-208(%rbp), %rsi
Ltmp923:
	leaq	-232(%rbp), %rdi
	callq	__ZN63_$LT$alloc..alloc..Global$u20$as$u20$core..alloc..Allocator$GT$10deallocate17he853af7a605fb355E
Ltmp924:
	jmp	LBB108_4
Ltmp948:
LBB108_2:
	.loc	38 340 1 is_stmt 1
	movq	-16(%rbp), %rdi
	callq	__Unwind_Resume
LBB108_3:
Ltmp925:
	.loc	38 0 1 is_stmt 0
	movq	%rax, %rcx
	movl	%edx, %eax
	movq	%rcx, -16(%rbp)
	movl	%eax, -8(%rbp)
	jmp	LBB108_2
LBB108_4:
	.loc	38 350 2 is_stmt 1
	addq	$256, %rsp
	popq	%rbp
	retq
Ltmp949:
Lfunc_end108:
	.cfi_endproc
	.section	__TEXT,__gcc_except_tab
	.p2align	2
GCC_except_table108:
Lexception25:
	.byte	255
	.byte	255
	.byte	1
	.uleb128 Lcst_end25-Lcst_begin25
Lcst_begin25:
	.uleb128 Ltmp923-Lfunc_begin108
	.uleb128 Ltmp924-Ltmp923
	.uleb128 Ltmp925-Lfunc_begin108
	.byte	0
	.uleb128 Ltmp924-Lfunc_begin108
	.uleb128 Lfunc_end108-Ltmp924
	.byte	0
	.byte	0
Lcst_end25:
	.p2align	2

	.section	__TEXT,__text,regular,pure_instructions
	.globl	__ZN61_$LT$alloc..rc..Rc$LT$T$GT$$u20$as$u20$core..clone..Clone$GT$5clone17hf139940371d97506E
	.p2align	4, 0x90
__ZN61_$LT$alloc..rc..Rc$LT$T$GT$$u20$as$u20$core..clone..Clone$GT$5clone17hf139940371d97506E:
Lfunc_begin109:
	.loc	35 1624 0
	.cfi_startproc
	pushq	%rbp
	.cfi_def_cfa_offset 16
	.cfi_offset %rbp, -16
	movq	%rsp, %rbp
	.cfi_def_cfa_register %rbp
	subq	$48, %rsp
	movq	%rdi, -40(%rbp)
	movq	%rdi, -32(%rbp)
Ltmp950:
	.loc	35 1626 13 prologue_end
	movq	%rdi, -24(%rbp)
Ltmp951:
	.loc	35 350 18
	movq	%rdi, -16(%rbp)
Ltmp952:
	.loc	11 376 20
	movq	(%rdi), %rdi
	movq	%rdi, -8(%rbp)
Ltmp953:
	.loc	35 1626 13
	callq	__ZN5alloc2rc10RcInnerPtr10inc_strong17h418d5b513ecae992E
	movq	-40(%rbp), %rdi
	.loc	35 1627 30
	movq	(%rdi), %rdi
	.loc	35 1627 13 is_stmt 0
	callq	__ZN5alloc2rc11Rc$LT$T$GT$10from_inner17hd1356b054f206e2fE
	.loc	35 1629 6 is_stmt 1
	addq	$48, %rsp
	popq	%rbp
	retq
Ltmp954:
Lfunc_end109:
	.cfi_endproc

	.p2align	4, 0x90
__ZN63_$LT$alloc..alloc..Global$u20$as$u20$core..alloc..Allocator$GT$10deallocate17he853af7a605fb355E:
Lfunc_begin110:
	.loc	38 246 0
	.cfi_startproc
	pushq	%rbp
	.cfi_def_cfa_offset 16
	.cfi_offset %rbp, -16
	movq	%rsp, %rbp
	.cfi_def_cfa_register %rbp
	subq	$112, %rsp
	movq	%rsi, -112(%rbp)
	movq	%rdx, -104(%rbp)
	movq	%rcx, -96(%rbp)
	movq	%rdi, -64(%rbp)
	movq	%rsi, -56(%rbp)
Ltmp955:
	.loc	38 247 12 prologue_end
	leaq	-104(%rbp), %rax
	movq	%rax, -48(%rbp)
	cmpq	$0, -104(%rbp)
	jne	LBB110_2
	.loc	38 247 9 is_stmt 0
	jmp	LBB110_3
LBB110_2:
	.loc	38 0 9
	movq	-112(%rbp), %rdi
	.loc	38 250 30 is_stmt 1
	movq	%rdi, -40(%rbp)
Ltmp956:
	.loc	11 326 9
	movq	%rdi, -32(%rbp)
Ltmp957:
	.loc	38 250 44
	movq	-104(%rbp), %rcx
	movq	-96(%rbp), %rax
	movq	%rcx, -88(%rbp)
	movq	%rax, -80(%rbp)
Ltmp958:
	.loc	38 113 34
	leaq	-88(%rbp), %rax
	movq	%rax, -24(%rbp)
Ltmp959:
	.loc	30 129 9
	movq	-88(%rbp), %rsi
Ltmp960:
	.loc	38 113 49
	leaq	-88(%rbp), %rax
	movq	%rax, -16(%rbp)
Ltmp961:
	.loc	30 140 9
	movq	-80(%rbp), %rax
	movq	%rax, -8(%rbp)
Ltmp962:
	.loc	31 97 9
	movq	%rax, -72(%rbp)
	movq	-72(%rbp), %rdx
Ltmp963:
	.loc	38 113 14
	callq	___rust_dealloc
Ltmp964:
LBB110_3:
	.loc	38 252 6
	addq	$112, %rsp
	popq	%rbp
	retq
Ltmp965:
Lfunc_end110:
	.cfi_endproc

	.globl	__ZN64_$LT$alloc..rc..Rc$LT$T$GT$$u20$as$u20$core..ops..drop..Drop$GT$4drop17he08fefa823e8b4a1E
	.p2align	4, 0x90
__ZN64_$LT$alloc..rc..Rc$LT$T$GT$$u20$as$u20$core..ops..drop..Drop$GT$4drop17he08fefa823e8b4a1E:
Lfunc_begin111:
	.loc	35 1588 0
	.cfi_startproc
	pushq	%rbp
	.cfi_def_cfa_offset 16
	.cfi_offset %rbp, -16
	movq	%rsp, %rbp
	.cfi_def_cfa_register %rbp
	subq	$256, %rsp
	movq	%rdi, -240(%rbp)
	movq	%rdi, -224(%rbp)
Ltmp966:
	.loc	35 1590 13 prologue_end
	movq	%rdi, -216(%rbp)
Ltmp967:
	.loc	35 350 18
	movq	%rdi, -208(%rbp)
Ltmp968:
	.loc	11 376 20
	movq	(%rdi), %rdi
	movq	%rdi, -200(%rbp)
Ltmp969:
	.loc	35 1590 13
	callq	__ZN5alloc2rc10RcInnerPtr10dec_strong17h8608fc61dc65c583E
	movq	-240(%rbp), %rdi
	.loc	35 1591 16
	movq	%rdi, -192(%rbp)
Ltmp970:
	.loc	35 350 18
	movq	%rdi, -184(%rbp)
Ltmp971:
	.loc	11 376 20
	movq	(%rdi), %rax
	movq	%rax, -176(%rbp)
Ltmp972:
	.loc	35 1591 16
	movq	%rax, -168(%rbp)
Ltmp973:
	.loc	35 2606 9
	movq	%rax, -160(%rbp)
	movq	%rax, -152(%rbp)
Ltmp974:
	.loc	18 452 19
	movq	%rax, -144(%rbp)
Ltmp975:
	.loc	35 1591 16
	cmpq	$0, (%rax)
	jne	LBB111_2
	.loc	35 0 16 is_stmt 0
	movq	-240(%rbp), %rax
	.loc	35 1593 60 is_stmt 1
	movq	%rax, -136(%rbp)
Ltmp976:
	.loc	35 1150 25
	movq	(%rax), %rcx
	movq	%rcx, -128(%rbp)
Ltmp977:
	.loc	35 1597 17
	movq	%rax, -120(%rbp)
Ltmp978:
	.loc	35 350 18
	movq	%rax, -112(%rbp)
Ltmp979:
	.loc	11 376 20
	movq	(%rax), %rdi
	movq	%rdi, -104(%rbp)
Ltmp980:
	.loc	35 1597 17
	callq	__ZN5alloc2rc10RcInnerPtr8dec_weak17hb2b43c506a82045dE
	movq	-240(%rbp), %rax
	.loc	35 1599 20
	movq	%rax, -96(%rbp)
Ltmp981:
	.loc	35 350 18
	movq	%rax, -88(%rbp)
Ltmp982:
	.loc	11 376 20
	movq	(%rax), %rax
	movq	%rax, -80(%rbp)
Ltmp983:
	.loc	35 1599 20
	movq	%rax, -72(%rbp)
Ltmp984:
	.loc	35 2639 9
	movq	%rax, -64(%rbp)
Ltmp985:
	.loc	35 2674 9
	movq	%rax, %rcx
	addq	$8, %rcx
Ltmp986:
	.loc	35 2639 9
	movq	%rcx, -56(%rbp)
Ltmp987:
	.loc	18 452 19
	movq	%rcx, -48(%rbp)
Ltmp988:
	.loc	35 1599 20
	cmpq	$0, 8(%rax)
	je	LBB111_4
	jmp	LBB111_5
LBB111_2:
	.loc	35 1591 13
	jmp	LBB111_3
LBB111_3:
	.loc	35 1604 6
	addq	$256, %rsp
	popq	%rbp
	retq
LBB111_4:
	.loc	35 0 6 is_stmt 0
	movq	-240(%rbp), %rax
	.loc	35 1600 39 is_stmt 1
	movq	(%rax), %rcx
	movq	%rcx, -40(%rbp)
Ltmp989:
	.loc	11 450 41
	movq	%rcx, -32(%rbp)
	movq	%rcx, -24(%rbp)
Ltmp990:
	.loc	11 201 13
	movq	%rcx, -232(%rbp)
Ltmp991:
	.loc	35 1600 74
	movq	%rax, -16(%rbp)
Ltmp992:
	.loc	11 376 20
	movq	(%rax), %rdi
	movq	%rdi, -8(%rbp)
Ltmp993:
	.loc	35 1600 56
	callq	__ZN4core5alloc6layout6Layout9for_value17hb41f9e5c24c48a2aE
	movq	%rax, -248(%rbp)
	movq	%rdx, %rcx
	movq	-248(%rbp), %rdx
	.loc	35 1600 21 is_stmt 0
	movq	-232(%rbp), %rsi
	leaq	l___unnamed_15(%rip), %rdi
	callq	__ZN63_$LT$alloc..alloc..Global$u20$as$u20$core..alloc..Allocator$GT$10deallocate17he853af7a605fb355E
	.loc	35 1599 17 is_stmt 1
	jmp	LBB111_6
LBB111_5:
	jmp	LBB111_6
LBB111_6:
	.loc	35 1591 13
	jmp	LBB111_3
Ltmp994:
Lfunc_end111:
	.cfi_endproc

	.p2align	4, 0x90
__ZN66_$LT$core..cell..BorrowRefMut$u20$as$u20$core..ops..drop..Drop$GT$4drop17hfcdb117945e7e917E:
Lfunc_begin112:
	.loc	18 1669 0
	.cfi_startproc
	pushq	%rbp
	.cfi_def_cfa_offset 16
	.cfi_offset %rbp, -16
	movq	%rsp, %rbp
	.cfi_def_cfa_register %rbp
	subq	$64, %rsp
	movq	%rdi, -56(%rbp)
Ltmp995:
	.loc	18 1670 22 prologue_end
	movq	(%rdi), %rax
	movq	%rax, -48(%rbp)
Ltmp996:
	.loc	18 452 19
	movq	%rax, -40(%rbp)
	.loc	18 452 18 is_stmt 0
	movq	(%rax), %rsi
	movq	%rsi, -32(%rbp)
Ltmp997:
	.loc	18 1672 9 is_stmt 1
	movq	(%rdi), %rdi
	movq	%rdi, -24(%rbp)
	.loc	18 1672 25 is_stmt 0
	addq	$1, %rsi
	movq	%rsi, -16(%rbp)
Ltmp998:
	.loc	18 363 19 is_stmt 1
	callq	__ZN4core4cell13Cell$LT$T$GT$7replace17h22c73cd3c9824e31E
	movq	%rax, -8(%rbp)
Ltmp999:
	.loc	18 1673 6
	addq	$64, %rsp
	popq	%rbp
	retq
Ltmp1000:
Lfunc_end112:
	.cfi_endproc

	.globl	__ZN74_$LT$core..cell..RefMut$LT$T$GT$$u20$as$u20$core..ops..deref..DerefMut$GT$9deref_mut17h53db4e2cbd07324dE
	.p2align	4, 0x90
__ZN74_$LT$core..cell..RefMut$LT$T$GT$$u20$as$u20$core..ops..deref..DerefMut$GT$9deref_mut17h53db4e2cbd07324dE:
Lfunc_begin113:
	.loc	18 1736 0
	.cfi_startproc
	pushq	%rbp
	.cfi_def_cfa_offset 16
	.cfi_offset %rbp, -16
	movq	%rsp, %rbp
	.cfi_def_cfa_register %rbp
	subq	$24, %rsp
	movq	%rdi, -24(%rbp)
Ltmp1001:
	.loc	18 1738 18 prologue_end
	movq	%rdi, -16(%rbp)
Ltmp1002:
	.loc	11 427 24
	movq	(%rdi), %rax
	movq	%rax, -8(%rbp)
Ltmp1003:
	.loc	18 1739 6
	addq	$24, %rsp
	popq	%rbp
	retq
Ltmp1004:
Lfunc_end113:
	.cfi_endproc

	.p2align	4, 0x90
__ZN78_$LT$std..io..error..repr_bitpacked..Repr$u20$as$u20$core..ops..drop..Drop$GT$4drop17h6089275728828691E:
Lfunc_begin114:
	.loc	10 232 0
	.cfi_startproc
	pushq	%rbp
	.cfi_def_cfa_offset 16
	.cfi_offset %rbp, -16
	movq	%rsp, %rbp
	.cfi_def_cfa_register %rbp
	subq	$32, %rsp
	movq	%rdi, -8(%rbp)
Ltmp1005:
	.loc	10 236 33 prologue_end
	movq	(%rdi), %rsi
	.loc	10 236 21 is_stmt 0
	leaq	-24(%rbp), %rdi
	callq	__ZN3std2io5error14repr_bitpacked11decode_repr17hd4d9c3fa4384b4d3E
	.loc	10 236 72
	leaq	-24(%rbp), %rdi
	callq	__ZN4core3ptr101drop_in_place$LT$std..io..error..ErrorData$LT$alloc..boxed..Box$LT$std..io..error..Custom$GT$$GT$$GT$17h7b549632d5d07bcaE
	.loc	10 238 6 is_stmt 1
	addq	$32, %rsp
	popq	%rbp
	retq
Ltmp1006:
Lfunc_end114:
	.cfi_endproc

	.globl	__ZN78_$LT$std..io..error..repr_bitpacked..Repr$u20$as$u20$core..ops..drop..Drop$GT$4drop28_$u7b$$u7b$closure$u7d$$u7d$17ha079c0d324da35fbE
	.p2align	4, 0x90
__ZN78_$LT$std..io..error..repr_bitpacked..Repr$u20$as$u20$core..ops..drop..Drop$GT$4drop28_$u7b$$u7b$closure$u7d$$u7d$17ha079c0d324da35fbE:
Lfunc_begin115:
	.loc	10 236 0
	.cfi_startproc
	pushq	%rbp
	.cfi_def_cfa_offset 16
	.cfi_offset %rbp, -16
	movq	%rsp, %rbp
	.cfi_def_cfa_register %rbp
	subq	$80, %rsp
	movq	%rdi, -48(%rbp)
Ltmp1007:
	.loc	10 236 69 prologue_end
	movq	%rdi, -32(%rbp)
Ltmp1008:
	.loc	36 958 36
	movq	%rdi, -24(%rbp)
Ltmp1009:
	.loc	36 1014 44
	movq	%rdi, -16(%rbp)
Ltmp1010:
	.loc	37 87 59
	movq	%rdi, -8(%rbp)
Ltmp1011:
	.loc	11 201 13
	movq	%rdi, -64(%rbp)
Ltmp1012:
	.loc	37 87 18
	movq	-64(%rbp), %rax
	movq	%rax, -72(%rbp)
Ltmp1013:
	.loc	36 1014 9
	movq	-72(%rbp), %rax
	movq	%rax, -80(%rbp)
Ltmp1014:
	.loc	10 236 71
	movq	-80(%rbp), %rax
	addq	$80, %rsp
	popq	%rbp
	retq
Ltmp1015:
Lfunc_end115:
	.cfi_endproc

	.globl	__ZN80_$LT$std..io..Write..write_fmt..Adapter$LT$T$GT$$u20$as$u20$core..fmt..Write$GT$9write_str17hd67f7cbcb475e944E
	.p2align	4, 0x90
__ZN80_$LT$std..io..Write..write_fmt..Adapter$LT$T$GT$$u20$as$u20$core..fmt..Write$GT$9write_str17hd67f7cbcb475e944E:
Lfunc_begin116:
	.loc	6 1670 0
	.cfi_startproc
	.cfi_personality 155, _rust_eh_personality
	.cfi_lsda 16, Lexception26
	pushq	%rbp
	.cfi_def_cfa_offset 16
	.cfi_offset %rbp, -16
	movq	%rsp, %rbp
	.cfi_def_cfa_register %rbp
	subq	$112, %rsp
	movq	%rdi, -112(%rbp)
	movq	%rdi, -80(%rbp)
	movq	%rsi, -72(%rbp)
	movq	%rdx, -64(%rbp)
Ltmp1019:
	.loc	6 1671 23 prologue_end
	movq	8(%rdi), %rdi
	.loc	6 1671 44 is_stmt 0
	movq	%rsi, -56(%rbp)
	movq	%rdx, -48(%rbp)
Ltmp1020:
	.file	39 "/rustc/2c8cc343237b8f7d5a3c3703e3a87f2eb2c54a74/library/core/src/str" "mod.rs"
	.loc	39 327 18 is_stmt 1
	movq	%rsi, -40(%rbp)
	movq	%rdx, -32(%rbp)
	movq	-40(%rbp), %rsi
	movq	-32(%rbp), %rdx
Ltmp1021:
	.loc	6 1671 23
	callq	__ZN3std2io5Write9write_all17h71baec18c6d9256fE
	movq	%rax, -96(%rbp)
	movq	-96(%rbp), %rdx
	movl	$1, %eax
	xorl	%ecx, %ecx
	cmpq	$0, %rdx
	cmoveq	%rcx, %rax
	.loc	6 1671 17 is_stmt 0
	cmpq	$0, %rax
	jne	LBB116_2
	.loc	6 1672 31 is_stmt 1
	movb	$0, -97(%rbp)
	.loc	6 1672 36 is_stmt 0
	jmp	LBB116_6
LBB116_2:
	.loc	6 0 36
	movq	-112(%rbp), %rdi
	.loc	6 1673 25 is_stmt 1
	movq	-96(%rbp), %rax
	movq	%rax, -24(%rbp)
Ltmp1022:
	.loc	6 1674 38
	movq	%rax, -88(%rbp)
Ltmp1016:
	.loc	6 1674 25 is_stmt 0
	callq	__ZN4core3ptr81drop_in_place$LT$core..result..Result$LT$$LP$$RP$$C$std..io..error..Error$GT$$GT$17he2794a278bf7605eE
Ltmp1017:
	jmp	LBB116_5
LBB116_3:
	.loc	6 0 25
	movq	-112(%rbp), %rax
	.loc	6 1674 25
	movq	-88(%rbp), %rcx
	movq	%rcx, (%rax)
Ltmp1023:
	.loc	6 1670 13 is_stmt 1
	movq	-16(%rbp), %rdi
	callq	__Unwind_Resume
LBB116_4:
Ltmp1018:
	.loc	6 0 13 is_stmt 0
	movq	%rax, %rcx
	movl	%edx, %eax
	movq	%rcx, -16(%rbp)
	movl	%eax, -8(%rbp)
	jmp	LBB116_3
LBB116_5:
	movq	-112(%rbp), %rax
Ltmp1024:
	.loc	6 1674 25 is_stmt 1
	movq	-88(%rbp), %rcx
	movq	%rcx, (%rax)
	.loc	6 1675 25
	movb	$1, -97(%rbp)
Ltmp1025:
LBB116_6:
	.loc	6 1678 14
	movb	-97(%rbp), %al
	andb	$1, %al
	movzbl	%al, %eax
	addq	$112, %rsp
	popq	%rbp
	retq
Ltmp1026:
Lfunc_end116:
	.cfi_endproc
	.section	__TEXT,__gcc_except_tab
	.p2align	2
GCC_except_table116:
Lexception26:
	.byte	255
	.byte	255
	.byte	1
	.uleb128 Lcst_end26-Lcst_begin26
Lcst_begin26:
	.uleb128 Lfunc_begin116-Lfunc_begin116
	.uleb128 Ltmp1016-Lfunc_begin116
	.byte	0
	.byte	0
	.uleb128 Ltmp1016-Lfunc_begin116
	.uleb128 Ltmp1017-Ltmp1016
	.uleb128 Ltmp1018-Lfunc_begin116
	.byte	0
	.uleb128 Ltmp1017-Lfunc_begin116
	.uleb128 Lfunc_end116-Ltmp1017
	.byte	0
	.byte	0
Lcst_end26:
	.p2align	2

	.section	__TEXT,__text,regular,pure_instructions
	.globl	__ZN98_$LT$core..ptr..non_null..NonNull$LT$T$GT$$u20$as$u20$core..convert..From$LT$$RF$mut$u20$T$GT$$GT$4from17h064f4f6370862643E
	.p2align	4, 0x90
__ZN98_$LT$core..ptr..non_null..NonNull$LT$T$GT$$u20$as$u20$core..convert..From$LT$$RF$mut$u20$T$GT$$GT$4from17h064f4f6370862643E:
Lfunc_begin117:
	.loc	11 779 0
	.cfi_startproc
	pushq	%rbp
	.cfi_def_cfa_offset 16
	.cfi_offset %rbp, -16
	movq	%rsp, %rbp
	.cfi_def_cfa_register %rbp
	subq	$16, %rsp
	movq	%rdi, -8(%rbp)
Ltmp1027:
	.loc	11 781 18 prologue_end
	movq	%rdi, -16(%rbp)
	.loc	11 782 6
	movq	-16(%rbp), %rax
	addq	$16, %rsp
	popq	%rbp
	retq
Ltmp1028:
Lfunc_end117:
	.cfi_endproc

	.globl	__ZN8nanorand6crypto6chacha20chacha_quarter_round17h3ade55c9bdf7c0b0E
	.p2align	4, 0x90
__ZN8nanorand6crypto6chacha20chacha_quarter_round17h3ade55c9bdf7c0b0E:
Lfunc_begin118:
	.file	40 "/Users/natalie/.cargo/registry/src/github.com-1ecc6299db9ec823/nanorand-0.7.0" "src/crypto/chacha.rs"
	.loc	40 3 0
	.cfi_startproc
	pushq	%rbp
	.cfi_def_cfa_offset 16
	.cfi_offset %rbp, -16
	movq	%rsp, %rbp
	.cfi_def_cfa_register %rbp
	subq	$224, %rsp
	movq	%rdi, -160(%rbp)
	movq	%rsi, -152(%rbp)
	movq	%rdx, -144(%rbp)
	movq	%rcx, -136(%rbp)
	movq	%r8, -128(%rbp)
	movq	%rdi, -120(%rbp)
	movq	%rsi, -112(%rbp)
	movq	%rdx, -104(%rbp)
	movq	%rcx, -96(%rbp)
	movq	%r8, -88(%rbp)
Ltmp1029:
	.loc	40 4 13 prologue_end
	cmpq	$16, %rsi
	setb	%al
	testb	$1, %al
	jne	LBB118_1
	jmp	LBB118_2
LBB118_1:
	.loc	40 0 13 is_stmt 0
	movq	-144(%rbp), %rax
	movq	-160(%rbp), %rcx
	movq	-152(%rbp), %rdx
	.loc	40 4 13
	movl	(%rcx,%rdx,4), %ecx
	movl	%ecx, -164(%rbp)
	.loc	40 4 35
	cmpq	$16, %rax
	setb	%al
	testb	$1, %al
	jne	LBB118_3
	jmp	LBB118_4
LBB118_2:
	.loc	40 0 35
	movq	-152(%rbp), %rdi
	.loc	40 4 13
	leaq	l___unnamed_23(%rip), %rdx
	movl	$16, %esi
	callq	__ZN4core9panicking18panic_bounds_check17hacb8a94866cda541E
LBB118_3:
	.loc	40 0 13
	movq	-152(%rbp), %rax
	movl	-164(%rbp), %ecx
	movq	-160(%rbp), %rdx
	movq	-144(%rbp), %rsi
	.loc	40 4 35
	movl	(%rdx,%rsi,4), %edx
	movl	%ecx, -8(%rbp)
	movl	%edx, -4(%rbp)
Ltmp1030:
	.loc	27 1162 13 is_stmt 1
	addl	%edx, %ecx
	movl	%ecx, -168(%rbp)
Ltmp1031:
	.loc	40 4 2
	cmpq	$16, %rax
	setb	%al
	testb	$1, %al
	jne	LBB118_5
	jmp	LBB118_6
LBB118_4:
	.loc	40 0 2 is_stmt 0
	movq	-144(%rbp), %rdi
	.loc	40 4 35
	leaq	l___unnamed_24(%rip), %rdx
	movl	$16, %esi
	callq	__ZN4core9panicking18panic_bounds_check17hacb8a94866cda541E
LBB118_5:
	.loc	40 0 35
	movq	-152(%rbp), %rax
	movq	-160(%rbp), %rcx
	movl	-168(%rbp), %edx
	.loc	40 4 2
	movl	%edx, (%rcx,%rax,4)
	.loc	40 5 14 is_stmt 1
	cmpq	$16, %rax
	setb	%al
	testb	$1, %al
	jne	LBB118_7
	jmp	LBB118_8
LBB118_6:
	.loc	40 0 14 is_stmt 0
	movq	-152(%rbp), %rdi
	.loc	40 4 2 is_stmt 1
	leaq	l___unnamed_25(%rip), %rdx
	movl	$16, %esi
	callq	__ZN4core9panicking18panic_bounds_check17hacb8a94866cda541E
LBB118_7:
	.loc	40 0 2 is_stmt 0
	movq	-128(%rbp), %rax
	movq	-160(%rbp), %rcx
	movq	-152(%rbp), %rdx
	.loc	40 5 14 is_stmt 1
	movl	(%rcx,%rdx,4), %ecx
	movl	%ecx, -172(%rbp)
	.loc	40 5 2 is_stmt 0
	cmpq	$16, %rax
	setb	%al
	testb	$1, %al
	jne	LBB118_9
	jmp	LBB118_10
LBB118_8:
	.loc	40 0 2
	movq	-152(%rbp), %rdi
	.loc	40 5 14
	leaq	l___unnamed_26(%rip), %rdx
	movl	$16, %esi
	callq	__ZN4core9panicking18panic_bounds_check17hacb8a94866cda541E
LBB118_9:
	.loc	40 0 14
	movq	-128(%rbp), %rax
	movq	-160(%rbp), %rcx
	movl	-172(%rbp), %edx
	.loc	40 5 2
	xorl	(%rcx,%rax,4), %edx
	movl	%edx, (%rcx,%rax,4)
	.loc	40 6 13 is_stmt 1
	cmpq	$16, %rax
	setb	%al
	testb	$1, %al
	jne	LBB118_11
	jmp	LBB118_12
LBB118_10:
	.loc	40 0 13 is_stmt 0
	movq	-128(%rbp), %rdi
	.loc	40 5 2 is_stmt 1
	leaq	l___unnamed_27(%rip), %rdx
	movl	$16, %esi
	callq	__ZN4core9panicking18panic_bounds_check17hacb8a94866cda541E
LBB118_11:
	.loc	40 0 2 is_stmt 0
	movq	-128(%rbp), %rax
	movq	-160(%rbp), %rcx
	.loc	40 6 13 is_stmt 1
	movl	(%rcx,%rax,4), %ecx
	movl	%ecx, -44(%rbp)
	movl	$16, -40(%rbp)
Ltmp1032:
	.loc	27 217 13
	roll	$16, %ecx
	movl	%ecx, -36(%rbp)
	movl	-36(%rbp), %ecx
	movl	%ecx, -176(%rbp)
Ltmp1033:
	.loc	40 6 2
	cmpq	$16, %rax
	setb	%al
	testb	$1, %al
	jne	LBB118_13
	jmp	LBB118_14
LBB118_12:
	.loc	40 0 2 is_stmt 0
	movq	-128(%rbp), %rdi
	.loc	40 6 13
	leaq	l___unnamed_28(%rip), %rdx
	movl	$16, %esi
	callq	__ZN4core9panicking18panic_bounds_check17hacb8a94866cda541E
LBB118_13:
	.loc	40 0 13
	movq	-136(%rbp), %rax
	movq	-160(%rbp), %rcx
	movq	-128(%rbp), %rdx
	movl	-176(%rbp), %esi
	.loc	40 6 2
	movl	%esi, (%rcx,%rdx,4)
	.loc	40 8 13 is_stmt 1
	cmpq	$16, %rax
	setb	%al
	testb	$1, %al
	jne	LBB118_15
	jmp	LBB118_16
LBB118_14:
	.loc	40 0 13 is_stmt 0
	movq	-128(%rbp), %rdi
	.loc	40 6 2 is_stmt 1
	leaq	l___unnamed_29(%rip), %rdx
	movl	$16, %esi
	callq	__ZN4core9panicking18panic_bounds_check17hacb8a94866cda541E
LBB118_15:
	.loc	40 0 2 is_stmt 0
	movq	-128(%rbp), %rax
	movq	-160(%rbp), %rcx
	movq	-136(%rbp), %rdx
	.loc	40 8 13 is_stmt 1
	movl	(%rcx,%rdx,4), %ecx
	movl	%ecx, -180(%rbp)
	.loc	40 8 35 is_stmt 0
	cmpq	$16, %rax
	setb	%al
	testb	$1, %al
	jne	LBB118_17
	jmp	LBB118_18
LBB118_16:
	.loc	40 0 35
	movq	-136(%rbp), %rdi
	.loc	40 8 13
	leaq	l___unnamed_30(%rip), %rdx
	movl	$16, %esi
	callq	__ZN4core9panicking18panic_bounds_check17hacb8a94866cda541E
LBB118_17:
	.loc	40 0 13
	movq	-136(%rbp), %rax
	movl	-180(%rbp), %ecx
	movq	-160(%rbp), %rdx
	movq	-128(%rbp), %rsi
	.loc	40 8 35
	movl	(%rdx,%rsi,4), %edx
	movl	%ecx, -16(%rbp)
	movl	%edx, -12(%rbp)
Ltmp1034:
	.loc	27 1162 13 is_stmt 1
	addl	%edx, %ecx
	movl	%ecx, -184(%rbp)
Ltmp1035:
	.loc	40 8 2
	cmpq	$16, %rax
	setb	%al
	testb	$1, %al
	jne	LBB118_19
	jmp	LBB118_20
LBB118_18:
	.loc	40 0 2 is_stmt 0
	movq	-128(%rbp), %rdi
	.loc	40 8 35
	leaq	l___unnamed_31(%rip), %rdx
	movl	$16, %esi
	callq	__ZN4core9panicking18panic_bounds_check17hacb8a94866cda541E
LBB118_19:
	.loc	40 0 35
	movq	-136(%rbp), %rax
	movq	-160(%rbp), %rcx
	movl	-184(%rbp), %edx
	.loc	40 8 2
	movl	%edx, (%rcx,%rax,4)
	.loc	40 9 14 is_stmt 1
	cmpq	$16, %rax
	setb	%al
	testb	$1, %al
	jne	LBB118_21
	jmp	LBB118_22
LBB118_20:
	.loc	40 0 14 is_stmt 0
	movq	-136(%rbp), %rdi
	.loc	40 8 2 is_stmt 1
	leaq	l___unnamed_32(%rip), %rdx
	movl	$16, %esi
	callq	__ZN4core9panicking18panic_bounds_check17hacb8a94866cda541E
LBB118_21:
	.loc	40 0 2 is_stmt 0
	movq	-144(%rbp), %rax
	movq	-160(%rbp), %rcx
	movq	-136(%rbp), %rdx
	.loc	40 9 14 is_stmt 1
	movl	(%rcx,%rdx,4), %ecx
	movl	%ecx, -188(%rbp)
	.loc	40 9 2 is_stmt 0
	cmpq	$16, %rax
	setb	%al
	testb	$1, %al
	jne	LBB118_23
	jmp	LBB118_24
LBB118_22:
	.loc	40 0 2
	movq	-136(%rbp), %rdi
	.loc	40 9 14
	leaq	l___unnamed_33(%rip), %rdx
	movl	$16, %esi
	callq	__ZN4core9panicking18panic_bounds_check17hacb8a94866cda541E
LBB118_23:
	.loc	40 0 14
	movq	-144(%rbp), %rax
	movq	-160(%rbp), %rcx
	movl	-188(%rbp), %edx
	.loc	40 9 2
	xorl	(%rcx,%rax,4), %edx
	movl	%edx, (%rcx,%rax,4)
	.loc	40 10 13 is_stmt 1
	cmpq	$16, %rax
	setb	%al
	testb	$1, %al
	jne	LBB118_25
	jmp	LBB118_26
LBB118_24:
	.loc	40 0 13 is_stmt 0
	movq	-144(%rbp), %rdi
	.loc	40 9 2 is_stmt 1
	leaq	l___unnamed_34(%rip), %rdx
	movl	$16, %esi
	callq	__ZN4core9panicking18panic_bounds_check17hacb8a94866cda541E
LBB118_25:
	.loc	40 0 2 is_stmt 0
	movq	-144(%rbp), %rax
	movq	-160(%rbp), %rcx
	.loc	40 10 13 is_stmt 1
	movl	(%rcx,%rax,4), %ecx
	movl	%ecx, -56(%rbp)
	movl	$12, -52(%rbp)
Ltmp1036:
	.loc	27 217 13
	roll	$12, %ecx
	movl	%ecx, -48(%rbp)
	movl	-48(%rbp), %ecx
	movl	%ecx, -192(%rbp)
Ltmp1037:
	.loc	40 10 2
	cmpq	$16, %rax
	setb	%al
	testb	$1, %al
	jne	LBB118_27
	jmp	LBB118_28
LBB118_26:
	.loc	40 0 2 is_stmt 0
	movq	-144(%rbp), %rdi
	.loc	40 10 13
	leaq	l___unnamed_35(%rip), %rdx
	movl	$16, %esi
	callq	__ZN4core9panicking18panic_bounds_check17hacb8a94866cda541E
LBB118_27:
	.loc	40 0 13
	movq	-152(%rbp), %rax
	movq	-160(%rbp), %rcx
	movq	-144(%rbp), %rdx
	movl	-192(%rbp), %esi
	.loc	40 10 2
	movl	%esi, (%rcx,%rdx,4)
	.loc	40 12 13 is_stmt 1
	cmpq	$16, %rax
	setb	%al
	testb	$1, %al
	jne	LBB118_29
	jmp	LBB118_30
LBB118_28:
	.loc	40 0 13 is_stmt 0
	movq	-144(%rbp), %rdi
	.loc	40 10 2 is_stmt 1
	leaq	l___unnamed_36(%rip), %rdx
	movl	$16, %esi
	callq	__ZN4core9panicking18panic_bounds_check17hacb8a94866cda541E
LBB118_29:
	.loc	40 0 2 is_stmt 0
	movq	-144(%rbp), %rax
	movq	-160(%rbp), %rcx
	movq	-152(%rbp), %rdx
	.loc	40 12 13 is_stmt 1
	movl	(%rcx,%rdx,4), %ecx
	movl	%ecx, -196(%rbp)
	.loc	40 12 35 is_stmt 0
	cmpq	$16, %rax
	setb	%al
	testb	$1, %al
	jne	LBB118_31
	jmp	LBB118_32
LBB118_30:
	.loc	40 0 35
	movq	-152(%rbp), %rdi
	.loc	40 12 13
	leaq	l___unnamed_37(%rip), %rdx
	movl	$16, %esi
	callq	__ZN4core9panicking18panic_bounds_check17hacb8a94866cda541E
LBB118_31:
	.loc	40 0 13
	movq	-152(%rbp), %rax
	movl	-196(%rbp), %ecx
	movq	-160(%rbp), %rdx
	movq	-144(%rbp), %rsi
	.loc	40 12 35
	movl	(%rdx,%rsi,4), %edx
	movl	%ecx, -24(%rbp)
	movl	%edx, -20(%rbp)
Ltmp1038:
	.loc	27 1162 13 is_stmt 1
	addl	%edx, %ecx
	movl	%ecx, -200(%rbp)
Ltmp1039:
	.loc	40 12 2
	cmpq	$16, %rax
	setb	%al
	testb	$1, %al
	jne	LBB118_33
	jmp	LBB118_34
LBB118_32:
	.loc	40 0 2 is_stmt 0
	movq	-144(%rbp), %rdi
	.loc	40 12 35
	leaq	l___unnamed_38(%rip), %rdx
	movl	$16, %esi
	callq	__ZN4core9panicking18panic_bounds_check17hacb8a94866cda541E
LBB118_33:
	.loc	40 0 35
	movq	-152(%rbp), %rax
	movq	-160(%rbp), %rcx
	movl	-200(%rbp), %edx
	.loc	40 12 2
	movl	%edx, (%rcx,%rax,4)
	.loc	40 13 14 is_stmt 1
	cmpq	$16, %rax
	setb	%al
	testb	$1, %al
	jne	LBB118_35
	jmp	LBB118_36
LBB118_34:
	.loc	40 0 14 is_stmt 0
	movq	-152(%rbp), %rdi
	.loc	40 12 2 is_stmt 1
	leaq	l___unnamed_39(%rip), %rdx
	movl	$16, %esi
	callq	__ZN4core9panicking18panic_bounds_check17hacb8a94866cda541E
LBB118_35:
	.loc	40 0 2 is_stmt 0
	movq	-128(%rbp), %rax
	movq	-160(%rbp), %rcx
	movq	-152(%rbp), %rdx
	.loc	40 13 14 is_stmt 1
	movl	(%rcx,%rdx,4), %ecx
	movl	%ecx, -204(%rbp)
	.loc	40 13 2 is_stmt 0
	cmpq	$16, %rax
	setb	%al
	testb	$1, %al
	jne	LBB118_37
	jmp	LBB118_38
LBB118_36:
	.loc	40 0 2
	movq	-152(%rbp), %rdi
	.loc	40 13 14
	leaq	l___unnamed_40(%rip), %rdx
	movl	$16, %esi
	callq	__ZN4core9panicking18panic_bounds_check17hacb8a94866cda541E
LBB118_37:
	.loc	40 0 14
	movq	-128(%rbp), %rax
	movq	-160(%rbp), %rcx
	movl	-204(%rbp), %edx
	.loc	40 13 2
	xorl	(%rcx,%rax,4), %edx
	movl	%edx, (%rcx,%rax,4)
	.loc	40 14 13 is_stmt 1
	cmpq	$16, %rax
	setb	%al
	testb	$1, %al
	jne	LBB118_39
	jmp	LBB118_40
LBB118_38:
	.loc	40 0 13 is_stmt 0
	movq	-128(%rbp), %rdi
	.loc	40 13 2 is_stmt 1
	leaq	l___unnamed_41(%rip), %rdx
	movl	$16, %esi
	callq	__ZN4core9panicking18panic_bounds_check17hacb8a94866cda541E
LBB118_39:
	.loc	40 0 2 is_stmt 0
	movq	-128(%rbp), %rax
	movq	-160(%rbp), %rcx
	.loc	40 14 13 is_stmt 1
	movl	(%rcx,%rax,4), %ecx
	movl	%ecx, -68(%rbp)
	movl	$8, -64(%rbp)
Ltmp1040:
	.loc	27 217 13
	roll	$8, %ecx
	movl	%ecx, -60(%rbp)
	movl	-60(%rbp), %ecx
	movl	%ecx, -208(%rbp)
Ltmp1041:
	.loc	40 14 2
	cmpq	$16, %rax
	setb	%al
	testb	$1, %al
	jne	LBB118_41
	jmp	LBB118_42
LBB118_40:
	.loc	40 0 2 is_stmt 0
	movq	-128(%rbp), %rdi
	.loc	40 14 13
	leaq	l___unnamed_42(%rip), %rdx
	movl	$16, %esi
	callq	__ZN4core9panicking18panic_bounds_check17hacb8a94866cda541E
LBB118_41:
	.loc	40 0 13
	movq	-136(%rbp), %rax
	movq	-160(%rbp), %rcx
	movq	-128(%rbp), %rdx
	movl	-208(%rbp), %esi
	.loc	40 14 2
	movl	%esi, (%rcx,%rdx,4)
	.loc	40 16 13 is_stmt 1
	cmpq	$16, %rax
	setb	%al
	testb	$1, %al
	jne	LBB118_43
	jmp	LBB118_44
LBB118_42:
	.loc	40 0 13 is_stmt 0
	movq	-128(%rbp), %rdi
	.loc	40 14 2 is_stmt 1
	leaq	l___unnamed_43(%rip), %rdx
	movl	$16, %esi
	callq	__ZN4core9panicking18panic_bounds_check17hacb8a94866cda541E
LBB118_43:
	.loc	40 0 2 is_stmt 0
	movq	-128(%rbp), %rax
	movq	-160(%rbp), %rcx
	movq	-136(%rbp), %rdx
	.loc	40 16 13 is_stmt 1
	movl	(%rcx,%rdx,4), %ecx
	movl	%ecx, -212(%rbp)
	.loc	40 16 35 is_stmt 0
	cmpq	$16, %rax
	setb	%al
	testb	$1, %al
	jne	LBB118_45
	jmp	LBB118_46
LBB118_44:
	.loc	40 0 35
	movq	-136(%rbp), %rdi
	.loc	40 16 13
	leaq	l___unnamed_44(%rip), %rdx
	movl	$16, %esi
	callq	__ZN4core9panicking18panic_bounds_check17hacb8a94866cda541E
LBB118_45:
	.loc	40 0 13
	movq	-136(%rbp), %rax
	movl	-212(%rbp), %ecx
	movq	-160(%rbp), %rdx
	movq	-128(%rbp), %rsi
	.loc	40 16 35
	movl	(%rdx,%rsi,4), %edx
	movl	%ecx, -32(%rbp)
	movl	%edx, -28(%rbp)
Ltmp1042:
	.loc	27 1162 13 is_stmt 1
	addl	%edx, %ecx
	movl	%ecx, -216(%rbp)
Ltmp1043:
	.loc	40 16 2
	cmpq	$16, %rax
	setb	%al
	testb	$1, %al
	jne	LBB118_47
	jmp	LBB118_48
LBB118_46:
	.loc	40 0 2 is_stmt 0
	movq	-128(%rbp), %rdi
	.loc	40 16 35
	leaq	l___unnamed_45(%rip), %rdx
	movl	$16, %esi
	callq	__ZN4core9panicking18panic_bounds_check17hacb8a94866cda541E
LBB118_47:
	.loc	40 0 35
	movq	-136(%rbp), %rax
	movq	-160(%rbp), %rcx
	movl	-216(%rbp), %edx
	.loc	40 16 2
	movl	%edx, (%rcx,%rax,4)
	.loc	40 17 14 is_stmt 1
	cmpq	$16, %rax
	setb	%al
	testb	$1, %al
	jne	LBB118_49
	jmp	LBB118_50
LBB118_48:
	.loc	40 0 14 is_stmt 0
	movq	-136(%rbp), %rdi
	.loc	40 16 2 is_stmt 1
	leaq	l___unnamed_46(%rip), %rdx
	movl	$16, %esi
	callq	__ZN4core9panicking18panic_bounds_check17hacb8a94866cda541E
LBB118_49:
	.loc	40 0 2 is_stmt 0
	movq	-144(%rbp), %rax
	movq	-160(%rbp), %rcx
	movq	-136(%rbp), %rdx
	.loc	40 17 14 is_stmt 1
	movl	(%rcx,%rdx,4), %ecx
	movl	%ecx, -220(%rbp)
	.loc	40 17 2 is_stmt 0
	cmpq	$16, %rax
	setb	%al
	testb	$1, %al
	jne	LBB118_51
	jmp	LBB118_52
LBB118_50:
	.loc	40 0 2
	movq	-136(%rbp), %rdi
	.loc	40 17 14
	leaq	l___unnamed_47(%rip), %rdx
	movl	$16, %esi
	callq	__ZN4core9panicking18panic_bounds_check17hacb8a94866cda541E
LBB118_51:
	.loc	40 0 14
	movq	-144(%rbp), %rax
	movq	-160(%rbp), %rcx
	movl	-220(%rbp), %edx
	.loc	40 17 2
	xorl	(%rcx,%rax,4), %edx
	movl	%edx, (%rcx,%rax,4)
	.loc	40 18 13 is_stmt 1
	cmpq	$16, %rax
	setb	%al
	testb	$1, %al
	jne	LBB118_53
	jmp	LBB118_54
LBB118_52:
	.loc	40 0 13 is_stmt 0
	movq	-144(%rbp), %rdi
	.loc	40 17 2 is_stmt 1
	leaq	l___unnamed_48(%rip), %rdx
	movl	$16, %esi
	callq	__ZN4core9panicking18panic_bounds_check17hacb8a94866cda541E
LBB118_53:
	.loc	40 0 2 is_stmt 0
	movq	-144(%rbp), %rax
	movq	-160(%rbp), %rcx
	.loc	40 18 13 is_stmt 1
	movl	(%rcx,%rax,4), %ecx
	movl	%ecx, -80(%rbp)
	movl	$7, -76(%rbp)
Ltmp1044:
	.loc	27 217 13
	roll	$7, %ecx
	movl	%ecx, -72(%rbp)
	movl	-72(%rbp), %ecx
	movl	%ecx, -224(%rbp)
Ltmp1045:
	.loc	40 18 2
	cmpq	$16, %rax
	setb	%al
	testb	$1, %al
	jne	LBB118_55
	jmp	LBB118_56
LBB118_54:
	.loc	40 0 2 is_stmt 0
	movq	-144(%rbp), %rdi
	.loc	40 18 13
	leaq	l___unnamed_49(%rip), %rdx
	movl	$16, %esi
	callq	__ZN4core9panicking18panic_bounds_check17hacb8a94866cda541E
LBB118_55:
	.loc	40 0 13
	movq	-160(%rbp), %rax
	movq	-144(%rbp), %rcx
	movl	-224(%rbp), %edx
	.loc	40 18 2
	movl	%edx, (%rax,%rcx,4)
	.loc	40 19 2 is_stmt 1
	addq	$224, %rsp
	popq	%rbp
	retq
LBB118_56:
	.loc	40 0 2 is_stmt 0
	movq	-144(%rbp), %rdi
	.loc	40 18 2 is_stmt 1
	leaq	l___unnamed_50(%rip), %rdx
	movl	$16, %esi
	callq	__ZN4core9panicking18panic_bounds_check17hacb8a94866cda541E
Ltmp1046:
Lfunc_end118:
	.cfi_endproc

	.globl	__ZN8nanorand6crypto6chacha11chacha_pack17h471fae7e3aad83e9E
	.p2align	4, 0x90
__ZN8nanorand6crypto6chacha11chacha_pack17h471fae7e3aad83e9E:
Lfunc_begin119:
	.loc	40 21 0
	.cfi_startproc
	pushq	%rbp
	.cfi_def_cfa_offset 16
	.cfi_offset %rbp, -16
	movq	%rsp, %rbp
	.cfi_def_cfa_register %rbp
	subq	$96, %rsp
	movq	%rdi, -48(%rbp)
	movq	%rsi, -40(%rbp)
	movq	%rdx, -32(%rbp)
	movq	%rdi, -24(%rbp)
	movq	%rsi, -16(%rbp)
	movq	%rdx, -8(%rbp)
Ltmp1047:
	.loc	40 22 3 prologue_end
	cmpq	%rsi, %rdx
	setb	%al
	testb	$1, %al
	jne	LBB119_1
	jmp	LBB119_2
LBB119_1:
	.loc	40 0 3 is_stmt 0
	movq	-32(%rbp), %rax
	movq	-48(%rbp), %rcx
	.loc	40 22 2
	movzbl	(%rcx,%rax), %ecx
	movl	%ecx, -60(%rbp)
	.loc	40 23 16 is_stmt 1
	addq	$1, %rax
	movq	%rax, -56(%rbp)
	setb	%al
	testb	$1, %al
	jne	LBB119_4
	jmp	LBB119_3
LBB119_2:
	.loc	40 0 16 is_stmt 0
	movq	-40(%rbp), %rsi
	movq	-32(%rbp), %rdi
	.loc	40 22 3 is_stmt 1
	leaq	l___unnamed_51(%rip), %rdx
	callq	__ZN4core9panicking18panic_bounds_check17hacb8a94866cda541E
LBB119_3:
	.loc	40 0 3 is_stmt 0
	movq	-56(%rbp), %rax
	movq	-40(%rbp), %rcx
	.loc	40 23 7 is_stmt 1
	cmpq	%rcx, %rax
	setb	%al
	testb	$1, %al
	jne	LBB119_5
	jmp	LBB119_6
LBB119_4:
	.loc	40 23 16 is_stmt 0
	leaq	_str.0(%rip), %rdi
	leaq	l___unnamed_52(%rip), %rdx
	movl	$28, %esi
	callq	__ZN4core9panicking5panic17hc1bc45270cf64b03E
LBB119_5:
	.loc	40 0 16
	movq	-32(%rbp), %rax
	movl	-60(%rbp), %ecx
	movq	-48(%rbp), %rdx
	movq	-56(%rbp), %rsi
	.loc	40 23 6
	movzbl	(%rdx,%rsi), %edx
	.loc	40 23 5
	shll	$8, %edx
	.loc	40 22 2 is_stmt 1
	orl	%edx, %ecx
	movl	%ecx, -76(%rbp)
	.loc	40 24 16
	addq	$2, %rax
	movq	%rax, -72(%rbp)
	setb	%al
	testb	$1, %al
	jne	LBB119_8
	jmp	LBB119_7
LBB119_6:
	.loc	40 0 16 is_stmt 0
	movq	-40(%rbp), %rsi
	movq	-56(%rbp), %rdi
	.loc	40 23 7 is_stmt 1
	leaq	l___unnamed_53(%rip), %rdx
	callq	__ZN4core9panicking18panic_bounds_check17hacb8a94866cda541E
LBB119_7:
	.loc	40 0 7 is_stmt 0
	movq	-72(%rbp), %rax
	movq	-40(%rbp), %rcx
	.loc	40 24 7 is_stmt 1
	cmpq	%rcx, %rax
	setb	%al
	testb	$1, %al
	jne	LBB119_9
	jmp	LBB119_10
LBB119_8:
	.loc	40 24 16 is_stmt 0
	leaq	_str.0(%rip), %rdi
	leaq	l___unnamed_54(%rip), %rdx
	movl	$28, %esi
	callq	__ZN4core9panicking5panic17hc1bc45270cf64b03E
LBB119_9:
	.loc	40 0 16
	movq	-32(%rbp), %rax
	movl	-76(%rbp), %ecx
	movq	-48(%rbp), %rdx
	movq	-72(%rbp), %rsi
	.loc	40 24 6
	movzbl	(%rdx,%rsi), %edx
	.loc	40 24 5
	shll	$16, %edx
	.loc	40 22 2 is_stmt 1
	orl	%edx, %ecx
	movl	%ecx, -92(%rbp)
	.loc	40 25 16
	addq	$3, %rax
	movq	%rax, -88(%rbp)
	setb	%al
	testb	$1, %al
	jne	LBB119_12
	jmp	LBB119_11
LBB119_10:
	.loc	40 0 16 is_stmt 0
	movq	-40(%rbp), %rsi
	movq	-72(%rbp), %rdi
	.loc	40 24 7 is_stmt 1
	leaq	l___unnamed_55(%rip), %rdx
	callq	__ZN4core9panicking18panic_bounds_check17hacb8a94866cda541E
LBB119_11:
	.loc	40 0 7 is_stmt 0
	movq	-88(%rbp), %rax
	movq	-40(%rbp), %rcx
	.loc	40 25 7 is_stmt 1
	cmpq	%rcx, %rax
	setb	%al
	testb	$1, %al
	jne	LBB119_13
	jmp	LBB119_14
LBB119_12:
	.loc	40 25 16 is_stmt 0
	leaq	_str.0(%rip), %rdi
	leaq	l___unnamed_56(%rip), %rdx
	movl	$28, %esi
	callq	__ZN4core9panicking5panic17hc1bc45270cf64b03E
LBB119_13:
	.loc	40 0 16
	movl	-92(%rbp), %eax
	movq	-48(%rbp), %rcx
	movq	-88(%rbp), %rdx
	.loc	40 25 6
	movzbl	(%rcx,%rdx), %ecx
	.loc	40 25 5
	shll	$24, %ecx
	.loc	40 22 2 is_stmt 1
	orl	%ecx, %eax
	.loc	40 26 2
	addq	$96, %rsp
	popq	%rbp
	retq
LBB119_14:
	.loc	40 0 2 is_stmt 0
	movq	-40(%rbp), %rsi
	movq	-88(%rbp), %rdi
	.loc	40 25 7 is_stmt 1
	leaq	l___unnamed_57(%rip), %rdx
	callq	__ZN4core9panicking18panic_bounds_check17hacb8a94866cda541E
Ltmp1048:
Lfunc_end119:
	.cfi_endproc

	.globl	__ZN8nanorand6crypto6chacha11chacha_init17h4d5d3311e7035964E
	.p2align	4, 0x90
__ZN8nanorand6crypto6chacha11chacha_init17h4d5d3311e7035964E:
Lfunc_begin120:
	.loc	40 51 0
	.cfi_startproc
	pushq	%rbp
	.cfi_def_cfa_offset 16
	.cfi_offset %rbp, -16
	movq	%rsp, %rbp
	.cfi_def_cfa_register %rbp
	subq	$48, %rsp
	movq	%rsi, -40(%rbp)
	movq	%rdi, -32(%rbp)
	movq	%rdi, %rax
	movq	%rax, -24(%rbp)
	movq	%rdx, -8(%rbp)
	movq	-8(%rbp), %rax
	movq	%rax, -16(%rbp)
Ltmp1049:
	.loc	40 52 18 prologue_end
	xorl	%esi, %esi
	movl	$64, %edx
	callq	_memset
Ltmp1050:
	.loc	40 53 13
	leaq	L___unnamed_58(%rip), %rdi
	movl	$16, %esi
	xorl	%eax, %eax
	movl	%eax, %edx
	callq	__ZN8nanorand6crypto6chacha11chacha_pack17h471fae7e3aad83e9E
	movq	-32(%rbp), %rdi
	.loc	40 53 2 is_stmt 0
	movl	%eax, (%rdi)
	.loc	40 54 13 is_stmt 1
	leaq	L___unnamed_58(%rip), %rdi
	movl	$16, %esi
	movl	$4, %edx
	callq	__ZN8nanorand6crypto6chacha11chacha_pack17h471fae7e3aad83e9E
	movq	-32(%rbp), %rdi
	.loc	40 54 2 is_stmt 0
	movl	%eax, 4(%rdi)
	.loc	40 55 13 is_stmt 1
	leaq	L___unnamed_58(%rip), %rdi
	movl	$16, %esi
	movl	$8, %edx
	callq	__ZN8nanorand6crypto6chacha11chacha_pack17h471fae7e3aad83e9E
	movq	-32(%rbp), %rdi
	.loc	40 55 2 is_stmt 0
	movl	%eax, 8(%rdi)
	.loc	40 56 13 is_stmt 1
	leaq	L___unnamed_58(%rip), %rdi
	movl	$16, %esi
	movl	$12, %edx
	callq	__ZN8nanorand6crypto6chacha11chacha_pack17h471fae7e3aad83e9E
	movq	-40(%rbp), %rdi
	movl	%eax, %ecx
	movq	-32(%rbp), %rax
	.loc	40 56 2 is_stmt 0
	movl	%ecx, 12(%rax)
	.loc	40 58 13 is_stmt 1
	movl	$32, %esi
	xorl	%eax, %eax
	movl	%eax, %edx
	callq	__ZN8nanorand6crypto6chacha11chacha_pack17h471fae7e3aad83e9E
	movq	-40(%rbp), %rdi
	movl	%eax, %ecx
	movq	-32(%rbp), %rax
	.loc	40 58 2 is_stmt 0
	movl	%ecx, 16(%rax)
	.loc	40 59 13 is_stmt 1
	movl	$32, %esi
	movl	$4, %edx
	callq	__ZN8nanorand6crypto6chacha11chacha_pack17h471fae7e3aad83e9E
	movq	-40(%rbp), %rdi
	movl	%eax, %ecx
	movq	-32(%rbp), %rax
	.loc	40 59 2 is_stmt 0
	movl	%ecx, 20(%rax)
	.loc	40 60 13 is_stmt 1
	movl	$32, %esi
	movl	$8, %edx
	callq	__ZN8nanorand6crypto6chacha11chacha_pack17h471fae7e3aad83e9E
	movq	-40(%rbp), %rdi
	movl	%eax, %ecx
	movq	-32(%rbp), %rax
	.loc	40 60 2 is_stmt 0
	movl	%ecx, 24(%rax)
	.loc	40 61 13 is_stmt 1
	movl	$32, %esi
	movl	$12, %edx
	callq	__ZN8nanorand6crypto6chacha11chacha_pack17h471fae7e3aad83e9E
	movq	-40(%rbp), %rdi
	movl	%eax, %ecx
	movq	-32(%rbp), %rax
	.loc	40 61 2 is_stmt 0
	movl	%ecx, 28(%rax)
	.loc	40 62 13 is_stmt 1
	movl	$32, %esi
	movl	$16, %edx
	callq	__ZN8nanorand6crypto6chacha11chacha_pack17h471fae7e3aad83e9E
	movq	-40(%rbp), %rdi
	movl	%eax, %ecx
	movq	-32(%rbp), %rax
	.loc	40 62 2 is_stmt 0
	movl	%ecx, 32(%rax)
	.loc	40 63 13 is_stmt 1
	movl	$32, %esi
	movl	$20, %edx
	callq	__ZN8nanorand6crypto6chacha11chacha_pack17h471fae7e3aad83e9E
	movq	-40(%rbp), %rdi
	movl	%eax, %ecx
	movq	-32(%rbp), %rax
	.loc	40 63 2 is_stmt 0
	movl	%ecx, 36(%rax)
	.loc	40 64 14 is_stmt 1
	movl	$32, %esi
	movl	$24, %edx
	callq	__ZN8nanorand6crypto6chacha11chacha_pack17h471fae7e3aad83e9E
	movq	-40(%rbp), %rdi
	movl	%eax, %ecx
	movq	-32(%rbp), %rax
	.loc	40 64 2 is_stmt 0
	movl	%ecx, 40(%rax)
	.loc	40 65 14 is_stmt 1
	movl	$32, %esi
	movl	$28, %edx
	callq	__ZN8nanorand6crypto6chacha11chacha_pack17h471fae7e3aad83e9E
	movq	-32(%rbp), %rdi
	.loc	40 65 2 is_stmt 0
	movl	%eax, 44(%rdi)
	.loc	40 68 2 is_stmt 1
	movl	$0, 48(%rdi)
	.loc	40 69 2
	movl	$0, 52(%rdi)
	.loc	40 71 14
	leaq	-16(%rbp), %rdi
	movl	$8, %esi
	xorl	%eax, %eax
	movl	%eax, %edx
	callq	__ZN8nanorand6crypto6chacha11chacha_pack17h471fae7e3aad83e9E
	movq	-32(%rbp), %rdi
	.loc	40 71 2 is_stmt 0
	movl	%eax, 56(%rdi)
	.loc	40 72 14 is_stmt 1
	leaq	-16(%rbp), %rdi
	movl	$8, %esi
	movl	$4, %edx
	callq	__ZN8nanorand6crypto6chacha11chacha_pack17h471fae7e3aad83e9E
	movq	-32(%rbp), %rdi
	movl	%eax, %ecx
	movq	-24(%rbp), %rax
	.loc	40 72 2 is_stmt 0
	movl	%ecx, 60(%rdi)
Ltmp1051:
	.loc	40 74 2 is_stmt 1
	addq	$48, %rsp
	popq	%rbp
	retq
Ltmp1052:
Lfunc_end120:
	.cfi_endproc

	.globl	__ZN8nanorand6crypto6chacha24chacha_increment_counter17h5d57450536dab13fE
	.p2align	4, 0x90
__ZN8nanorand6crypto6chacha24chacha_increment_counter17h5d57450536dab13fE:
Lfunc_begin121:
	.loc	40 78 0
	.cfi_startproc
	pushq	%rbp
	.cfi_def_cfa_offset 16
	.cfi_offset %rbp, -16
	movq	%rsp, %rbp
	.cfi_def_cfa_register %rbp
	subq	$64, %rsp
	movq	%rdi, -64(%rbp)
	movq	%rdi, -24(%rbp)
Ltmp1053:
	.loc	40 79 16 prologue_end
	movq	48(%rdi), %rdi
	movq	%rdi, -56(%rbp)
	movq	%rdi, -16(%rbp)
	movl	$1, %esi
Ltmp1054:
	.loc	40 80 8
	callq	__ZN4core3num21_$LT$impl$u20$u64$GT$11checked_add17h2de2a8105745978cE
	movq	%rdx, -32(%rbp)
	movq	%rax, -40(%rbp)
	.loc	40 80 2 is_stmt 0
	cmpq	$0, -40(%rbp)
	jne	LBB121_2
	.loc	40 86 11 is_stmt 1
	movb	$0, -41(%rbp)
	jmp	LBB121_3
LBB121_2:
	.loc	40 0 11 is_stmt 0
	movq	-64(%rbp), %rax
	movq	-56(%rbp), %rcx
	.loc	40 81 8 is_stmt 1
	movq	-32(%rbp), %rdx
	movq	%rdx, -8(%rbp)
Ltmp1055:
	.loc	40 82 16
	movabsq	$4294967295, %rsi
	andq	%rsi, %rdx
	.loc	40 82 4 is_stmt 0
	movl	%edx, 48(%rax)
	.loc	40 83 17 is_stmt 1
	shrq	$32, %rcx
	.loc	40 83 16 is_stmt 0
	movabsq	$4294967295, %rdx
	andq	%rdx, %rcx
	.loc	40 83 4
	movl	%ecx, 52(%rax)
	.loc	40 84 4 is_stmt 1
	movb	$1, -41(%rbp)
Ltmp1056:
LBB121_3:
	.loc	40 88 2
	movb	-41(%rbp), %al
	andb	$1, %al
	movzbl	%al, %eax
	addq	$64, %rsp
	popq	%rbp
	retq
Ltmp1057:
Lfunc_end121:
	.cfi_endproc

	.globl	__ZN8nanorand7entropy6system17hf7198e99e413bc05E
	.p2align	4, 0x90
__ZN8nanorand7entropy6system17hf7198e99e413bc05E:
Lfunc_begin122:
	.file	41 "/Users/natalie/.cargo/registry/src/github.com-1ecc6299db9ec823/nanorand-0.7.0" "src/entropy.rs"
	.loc	41 35 0
	.cfi_startproc
	pushq	%rbp
	.cfi_def_cfa_offset 16
	.cfi_offset %rbp, -16
	movq	%rsp, %rbp
	.cfi_def_cfa_register %rbp
	subq	$48, %rsp
	movq	%rdi, -40(%rbp)
	movq	%rsi, -32(%rbp)
	movq	%rdi, -16(%rbp)
	movq	%rsi, -8(%rbp)
Ltmp1058:
	.loc	41 36 8 prologue_end
	callq	__ZN9getrandom9getrandom17h1364b98d5de34595E
	movl	%eax, -20(%rbp)
	movl	$1, %eax
	xorl	%ecx, %ecx
	cmpl	$0, -20(%rbp)
	cmoveq	%rcx, %rax
	.loc	41 36 2 is_stmt 0
	cmpq	$0, %rax
	jne	LBB122_2
LBB122_1:
	.loc	41 40 2 is_stmt 1
	addq	$48, %rsp
	popq	%rbp
	retq
LBB122_2:
	.loc	41 0 2 is_stmt 0
	movq	-32(%rbp), %rsi
	movq	-40(%rbp), %rdi
	.loc	41 38 13 is_stmt 1
	callq	__ZN8nanorand7entropy6backup17hc68a2aee01aa32ccE
	jmp	LBB122_1
Ltmp1059:
Lfunc_end122:
	.cfi_endproc

	.globl	__ZN8nanorand7entropy6rdseed17h8d3a0c0435bd0561E
	.p2align	4, 0x90
__ZN8nanorand7entropy6rdseed17h8d3a0c0435bd0561E:
Lfunc_begin123:
	.loc	41 103 0
	.cfi_startproc
	pushq	%rbp
	.cfi_def_cfa_offset 16
	.cfi_offset %rbp, -16
	movq	%rsp, %rbp
	.cfi_def_cfa_register %rbp
	subq	$32, %rsp
	movq	%rdi, -16(%rbp)
	movq	%rsi, -8(%rbp)
Ltmp1060:
	.loc	41 104 2 prologue_end
	movq	$0, -32(%rbp)
	.loc	41 105 2
	movq	-32(%rbp), %rax
	movq	-24(%rbp), %rdx
	addq	$32, %rsp
	popq	%rbp
	retq
Ltmp1061:
Lfunc_end123:
	.cfi_endproc

	.globl	__ZN8nanorand7entropy6backup17hc68a2aee01aa32ccE
	.p2align	4, 0x90
__ZN8nanorand7entropy6backup17hc68a2aee01aa32ccE:
Lfunc_begin124:
	.loc	41 115 0
	.cfi_startproc
	pushq	%rbp
	.cfi_def_cfa_offset 16
	.cfi_offset %rbp, -16
	movq	%rsp, %rbp
	.cfi_def_cfa_register %rbp
	subq	$112, %rsp
	movq	%rsi, -96(%rbp)
	movq	%rdi, -24(%rbp)
	movq	%rsi, -16(%rbp)
Ltmp1062:
	.loc	41 116 21 prologue_end
	callq	__ZN8nanorand7entropy6rdseed17h8d3a0c0435bd0561E
	movq	%rdx, -80(%rbp)
	movq	%rax, -88(%rbp)
	.loc	41 116 9 is_stmt 0
	cmpq	$1, -88(%rbp)
	jne	LBB124_2
	.loc	41 0 9
	movq	-96(%rbp), %rcx
	.loc	41 116 14
	movq	-80(%rbp), %rax
	movq	%rax, -8(%rbp)
	.loc	41 117 6 is_stmt 1
	cmpq	%rcx, %rax
	jae	LBB124_3
Ltmp1063:
LBB124_2:
	.loc	41 122 2
	leaq	l___unnamed_59(%rip), %rsi
	leaq	l___unnamed_15(%rip), %rcx
	xorl	%eax, %eax
	movl	%eax, %r8d
	leaq	-72(%rbp), %rdi
	movq	%rdi, -104(%rbp)
	movl	$1, %edx
	callq	__ZN4core3fmt9Arguments6new_v117h102b97225bd45303E
	movq	-104(%rbp), %rdi
	leaq	l___unnamed_60(%rip), %rsi
	callq	__ZN4core9panicking9panic_fmt17h9b5d807e24bcaaedE
LBB124_3:
	.loc	41 123 2
	addq	$112, %rsp
	popq	%rbp
	retq
Ltmp1064:
Lfunc_end124:
	.cfi_endproc

	.globl	__ZN8nanorand4rand6wyrand6WyRand3new17hcf7748b783e38ef5E
	.p2align	4, 0x90
__ZN8nanorand4rand6wyrand6WyRand3new17hcf7748b783e38ef5E:
Lfunc_begin125:
	.file	42 "/Users/natalie/.cargo/registry/src/github.com-1ecc6299db9ec823/nanorand-0.7.0" "src/rand/wyrand.rs"
	.loc	42 20 0
	.cfi_startproc
	pushq	%rbp
	.cfi_def_cfa_offset 16
	.cfi_offset %rbp, -16
	movq	%rsp, %rbp
	.cfi_def_cfa_register %rbp
Ltmp1065:
	.loc	42 21 3 prologue_end
	callq	__ZN73_$LT$nanorand..rand..wyrand..WyRand$u20$as$u20$core..default..Default$GT$7default17h1dc418c23da0e780E
	.loc	42 22 3
	popq	%rbp
	retq
Ltmp1066:
Lfunc_end125:
	.cfi_endproc

	.globl	__ZN8nanorand4rand6wyrand6WyRand8new_seed17hfc6e3534b877b0ceE
	.p2align	4, 0x90
__ZN8nanorand4rand6wyrand6WyRand8new_seed17hfc6e3534b877b0ceE:
Lfunc_begin126:
	.loc	42 26 0
	.cfi_startproc
	pushq	%rbp
	.cfi_def_cfa_offset 16
	.cfi_offset %rbp, -16
	movq	%rsp, %rbp
	.cfi_def_cfa_register %rbp
	subq	$16, %rsp
	movq	%rdi, -8(%rbp)
Ltmp1067:
	.loc	42 27 3 prologue_end
	movq	%rdi, -16(%rbp)
	.loc	42 28 3
	movq	-16(%rbp), %rax
	addq	$16, %rsp
	popq	%rbp
	retq
Ltmp1068:
Lfunc_end126:
	.cfi_endproc

	.globl	__ZN73_$LT$nanorand..rand..wyrand..WyRand$u20$as$u20$core..default..Default$GT$7default17h1dc418c23da0e780E
	.p2align	4, 0x90
__ZN73_$LT$nanorand..rand..wyrand..WyRand$u20$as$u20$core..default..Default$GT$7default17h1dc418c23da0e780E:
Lfunc_begin127:
	.loc	42 33 0
	.cfi_startproc
	pushq	%rbp
	.cfi_def_cfa_offset 16
	.cfi_offset %rbp, -16
	movq	%rsp, %rbp
	.cfi_def_cfa_register %rbp
	subq	$32, %rsp
Ltmp1069:
	.loc	42 34 56 prologue_end
	callq	__ZN4core5array75_$LT$impl$u20$core..default..Default$u20$for$u20$$u5b$T$u3b$$u20$_$u5d$$GT$7default17h11a43af0ec96f435E
	movq	%rax, -8(%rbp)
	movq	-8(%rbp), %rax
	movq	%rax, -24(%rbp)
Ltmp1070:
	.loc	42 35 3
	leaq	-24(%rbp), %rdi
	movl	$8, %esi
	callq	__ZN8nanorand7entropy6system17hf7198e99e413bc05E
	.loc	42 37 29
	movq	-24(%rbp), %rax
	movq	%rax, -16(%rbp)
	.loc	42 37 10 is_stmt 0
	movq	-16(%rbp), %rdi
	callq	__ZN4core3num21_$LT$impl$u20$u64$GT$13from_ne_bytes17hd66f5d92b0a38659E
	.loc	42 36 3 is_stmt 1
	movq	%rax, -32(%rbp)
Ltmp1071:
	.loc	42 39 3
	movq	-32(%rbp), %rax
	addq	$32, %rsp
	popq	%rbp
	retq
Ltmp1072:
Lfunc_end127:
	.cfi_endproc

	.globl	__ZN85_$LT$nanorand..rand..wyrand..WyRand$u20$as$u20$nanorand..rand..Rng$LT$8_usize$GT$$GT$4rand17h2a2a553b0cf02b50E
	.p2align	4, 0x90
__ZN85_$LT$nanorand..rand..wyrand..WyRand$u20$as$u20$nanorand..rand..Rng$LT$8_usize$GT$$GT$4rand17h2a2a553b0cf02b50E:
Lfunc_begin128:
	.loc	42 43 0
	.cfi_startproc
	pushq	%rbp
	.cfi_def_cfa_offset 16
	.cfi_offset %rbp, -16
	movq	%rsp, %rbp
	.cfi_def_cfa_register %rbp
	subq	$240, %rsp
	movq	%rdi, -208(%rbp)
Ltmp1073:
	.loc	42 44 15 prologue_end
	movq	(%rdi), %rax
	movq	%rax, -168(%rbp)
	movabsq	$-6884282663029611473, %rcx
	movq	%rcx, -160(%rbp)
Ltmp1074:
	.loc	27 1162 13
	addq	%rcx, %rax
Ltmp1075:
	.loc	42 44 3
	movq	%rax, (%rdi)
	.loc	42 45 18
	movq	(%rdi), %rax
	movabsq	$-1800455987208640293, %rdx
	.loc	42 45 50 is_stmt 0
	movq	%rax, %rcx
	xorq	%rdx, %rcx
	movq	%rax, -152(%rbp)
	movq	$0, -144(%rbp)
	movq	%rcx, -136(%rbp)
	movq	$0, -128(%rbp)
Ltmp1076:
	.loc	27 1226 13 is_stmt 1
	mulq	%rcx
	movq	%rax, -224(%rbp)
	movq	%rdx, -232(%rbp)
Ltmp1077:
	.loc	42 45 17
	movq	%rdx, -192(%rbp)
	movq	%rax, -200(%rbp)
	movq	%rdx, -72(%rbp)
	movq	%rax, -80(%rbp)
	movl	$64, -60(%rbp)
Ltmp1078:
	.loc	27 1417 17
	movq	%rdx, -48(%rbp)
	movq	%rax, -56(%rbp)
	.loc	27 1417 36 is_stmt 0
	movl	$64, -36(%rbp)
	movl	$64, %edi
Ltmp1079:
	.loc	27 963 54 is_stmt 1
	callq	__ZN53_$LT$T$u20$as$u20$core..convert..TryInto$LT$U$GT$$GT$8try_into17hf72856341b4a6d18E
	movq	%rdx, -88(%rbp)
	movq	%rax, -96(%rbp)
Ltmp1080:
	.loc	12 647 16
	movq	-96(%rbp), %rax
	movq	-88(%rbp), %rcx
	movq	%rcx, -24(%rbp)
	movq	%rax, -32(%rbp)
Ltmp1081:
	.loc	12 647 22 is_stmt 0
	movq	%rcx, -104(%rbp)
	movq	%rax, -112(%rbp)
	movq	$1, -120(%rbp)
Ltmp1082:
	.loc	27 963 54 is_stmt 1
	movq	-104(%rbp), %rdx
	movq	-120(%rbp), %rdi
	movq	-112(%rbp), %rsi
	leaq	l___unnamed_61(%rip), %rcx
	callq	__ZN4core6option15Option$LT$T$GT$16unwrap_unchecked17hba63180389fc04aaE
	movq	-232(%rbp), %r8
	movq	%rax, %rcx
	movq	-224(%rbp), %rax
	.loc	27 963 22 is_stmt 0
	movb	%cl, %dil
	movb	%dil, %cl
	movq	%r8, %rdx
	shrq	%cl, %rdx
	movb	%dil, %cl
	movq	%rax, %rsi
	shrdq	%cl, %r8, %rsi
	movq	%rsi, %rcx
	xorl	%esi, %esi
	testb	$64, %dil
	cmovneq	%rdx, %rcx
	cmovneq	%rsi, %rdx
	movq	%rdx, -8(%rbp)
	movq	%rcx, -16(%rbp)
	movq	-16(%rbp), %rdi
Ltmp1083:
	.loc	42 46 13 is_stmt 1
	xorq	%rax, %rdi
	movq	%rdi, -184(%rbp)
Ltmp1084:
	.loc	42 47 3
	callq	__ZN4core3num21_$LT$impl$u20$u64$GT$11to_ne_bytes17hc204b7d90af26f4aE
	movq	%rax, -176(%rbp)
	movq	-176(%rbp), %rax
	movq	%rax, -216(%rbp)
Ltmp1085:
	.loc	42 48 3
	movq	-216(%rbp), %rax
	addq	$240, %rsp
	popq	%rbp
	retq
Ltmp1086:
Lfunc_end128:
	.cfi_endproc

	.globl	__ZN69_$LT$nanorand..rand..wyrand..WyRand$u20$as$u20$core..clone..Clone$GT$5clone17h3815bf79ee316c92E
	.p2align	4, 0x90
__ZN69_$LT$nanorand..rand..wyrand..WyRand$u20$as$u20$core..clone..Clone$GT$5clone17h3815bf79ee316c92E:
Lfunc_begin129:
	.loc	42 52 0
	.cfi_startproc
	pushq	%rbp
	.cfi_def_cfa_offset 16
	.cfi_offset %rbp, -16
	movq	%rsp, %rbp
	.cfi_def_cfa_register %rbp
	subq	$16, %rsp
	movq	%rdi, -8(%rbp)
Ltmp1087:
	.loc	42 53 16 prologue_end
	movq	(%rdi), %rax
	.loc	42 53 3 is_stmt 0
	movq	%rax, -16(%rbp)
	.loc	42 54 3 is_stmt 1
	movq	-16(%rbp), %rax
	addq	$16, %rsp
	popq	%rbp
	retq
Ltmp1088:
Lfunc_end129:
	.cfi_endproc

	.globl	__ZN69_$LT$nanorand..rand..wyrand..WyRand$u20$as$u20$core..fmt..Display$GT$3fmt17h069209983c7ec41dE
	.p2align	4, 0x90
__ZN69_$LT$nanorand..rand..wyrand..WyRand$u20$as$u20$core..fmt..Display$GT$3fmt17h069209983c7ec41dE:
Lfunc_begin130:
	.loc	42 58 0
	.cfi_startproc
	pushq	%rbp
	.cfi_def_cfa_offset 16
	.cfi_offset %rbp, -16
	movq	%rsp, %rbp
	.cfi_def_cfa_register %rbp
	subq	$96, %rsp
	movq	%rsi, -88(%rbp)
	movq	%rdi, -80(%rbp)
	movq	%rsi, -8(%rbp)
Ltmp1089:
	.loc	42 59 3 prologue_end
	leaq	-80(%rbp), %rdi
	callq	__ZN4core3fmt10ArgumentV111new_pointer17h33f52e055a2c77c1E
	movq	%rax, -24(%rbp)
	movq	%rdx, -16(%rbp)
	leaq	-72(%rbp), %rdi
	leaq	l___unnamed_62(%rip), %rsi
	movl	$2, %edx
	leaq	-24(%rbp), %rcx
	movl	$1, %r8d
	callq	__ZN4core3fmt9Arguments6new_v117h102b97225bd45303E
	movq	-88(%rbp), %rdi
	leaq	-72(%rbp), %rsi
	callq	__ZN4core3fmt9Formatter9write_fmt17h9bb7721c944aee26E
	.loc	42 60 3
	andb	$1, %al
	movzbl	%al, %eax
	addq	$96, %rsp
	popq	%rbp
	retq
Ltmp1090:
Lfunc_end130:
	.cfi_endproc

	.globl	__ZN67_$LT$nanorand..rand..wyrand..WyRand$u20$as$u20$core..fmt..Debug$GT$3fmt17h0dc4a26e8828c766E
	.p2align	4, 0x90
__ZN67_$LT$nanorand..rand..wyrand..WyRand$u20$as$u20$core..fmt..Debug$GT$3fmt17h0dc4a26e8828c766E:
Lfunc_begin131:
	.loc	42 64 0
	.cfi_startproc
	pushq	%rbp
	.cfi_def_cfa_offset 16
	.cfi_offset %rbp, -16
	movq	%rsp, %rbp
	.cfi_def_cfa_register %rbp
	subq	$112, %rsp
	movq	%rdi, -104(%rbp)
	movq	%rdi, -16(%rbp)
	movq	%rsi, -8(%rbp)
Ltmp1091:
	.loc	42 65 3 prologue_end
	leaq	-96(%rbp), %rdi
	leaq	l___unnamed_63(%rip), %rdx
	movl	$6, %ecx
	callq	__ZN4core3fmt9Formatter12debug_struct17hb330e0caa577ed3dE
	movq	-104(%rbp), %rdi
	.loc	42 66 20
	callq	__ZN4core3fmt10ArgumentV113new_lower_hex17hf2240fd4a1e2b621E
	movq	%rax, -32(%rbp)
	movq	%rdx, -24(%rbp)
	leaq	-80(%rbp), %rdi
	leaq	l___unnamed_64(%rip), %rsi
	movl	$1, %r8d
	leaq	-32(%rbp), %rcx
	movq	%r8, %rdx
	callq	__ZN4core3fmt9Arguments6new_v117h102b97225bd45303E
	.loc	42 65 3
	leaq	-96(%rbp), %rdi
	leaq	L___unnamed_65(%rip), %rsi
	movl	$4, %edx
	leaq	-80(%rbp), %rcx
	leaq	l___unnamed_5(%rip), %r8
	callq	__ZN4core3fmt8builders11DebugStruct5field17h2147d02d385887f6E
	movq	%rax, %rdi
	callq	__ZN4core3fmt8builders11DebugStruct6finish17h081d244274ea39b1E
	.loc	42 68 3
	andb	$1, %al
	movzbl	%al, %eax
	addq	$112, %rsp
	popq	%rbp
	retq
Ltmp1092:
Lfunc_end131:
	.cfi_endproc

	.globl	__ZN103_$LT$nanorand..rand..wyrand..WyRand$u20$as$u20$nanorand..rand..SeedableRng$LT$8_usize$C$8_usize$GT$$GT$6reseed17hd07646a05b4cb927E
	.p2align	4, 0x90
__ZN103_$LT$nanorand..rand..wyrand..WyRand$u20$as$u20$nanorand..rand..SeedableRng$LT$8_usize$C$8_usize$GT$$GT$6reseed17hd07646a05b4cb927E:
Lfunc_begin132:
	.loc	42 72 0
	.cfi_startproc
	pushq	%rbp
	.cfi_def_cfa_offset 16
	.cfi_offset %rbp, -16
	movq	%rsp, %rbp
	.cfi_def_cfa_register %rbp
	subq	$48, %rsp
	movq	%rdi, -40(%rbp)
	movq	%rsi, -24(%rbp)
	movq	-24(%rbp), %rax
	movq	%rax, -32(%rbp)
	movq	%rdi, -8(%rbp)
Ltmp1093:
	.loc	42 73 34 prologue_end
	movq	-32(%rbp), %rax
	movq	%rax, -16(%rbp)
	.loc	42 73 15 is_stmt 0
	movq	-16(%rbp), %rdi
	callq	__ZN4core3num21_$LT$impl$u20$u64$GT$13from_ne_bytes17hd66f5d92b0a38659E
	movq	-40(%rbp), %rdi
	.loc	42 73 3
	movq	%rax, (%rdi)
	.loc	42 74 3 is_stmt 1
	addq	$48, %rsp
	popq	%rbp
	retq
Ltmp1094:
Lfunc_end132:
	.cfi_endproc

	.globl	__ZN8nanorand4rand5pcg645Pcg643new17h4be7f686a60c747cE
	.p2align	4, 0x90
__ZN8nanorand4rand5pcg645Pcg643new17h4be7f686a60c747cE:
Lfunc_begin133:
	.file	43 "/Users/natalie/.cargo/registry/src/github.com-1ecc6299db9ec823/nanorand-0.7.0" "src/rand/pcg64.rs"
	.loc	43 25 0
	.cfi_startproc
	pushq	%rbp
	.cfi_def_cfa_offset 16
	.cfi_offset %rbp, -16
	movq	%rsp, %rbp
	.cfi_def_cfa_register %rbp
	subq	$64, %rsp
	movq	%rdi, -48(%rbp)
	movq	%rdi, -40(%rbp)
	leaq	-32(%rbp), %rdi
	movq	%rdi, -56(%rbp)
Ltmp1095:
	.loc	43 26 57 prologue_end
	callq	__ZN4core5array75_$LT$impl$u20$core..default..Default$u20$for$u20$$u5b$T$u3b$$u20$_$u5d$$GT$7default17hdab382c43a62fa1eE
	movq	-56(%rbp), %rdi
	movl	$16, %esi
Ltmp1096:
	.loc	43 27 3
	callq	__ZN8nanorand7entropy6system17hf7198e99e413bc05E
	.loc	43 29 30
	movq	-32(%rbp), %rax
	movq	-24(%rbp), %rcx
	movq	%rcx, -8(%rbp)
	movq	%rax, -16(%rbp)
	leaq	-16(%rbp), %rdi
	.loc	43 29 10 is_stmt 0
	callq	__ZN4core3num22_$LT$impl$u20$u128$GT$13from_ne_bytes17h425c519d28860c2fE
	movq	-48(%rbp), %rdi
	movq	%rax, %rcx
	movq	-40(%rbp), %rax
	.loc	43 28 3 is_stmt 1
	movq	%rdx, 8(%rdi)
	movq	%rcx, (%rdi)
	movq	$0, 24(%rdi)
	movq	$0, 16(%rdi)
	movq	$0, 40(%rdi)
	movq	$0, 32(%rdi)
Ltmp1097:
	.loc	43 33 3
	addq	$64, %rsp
	popq	%rbp
	retq
Ltmp1098:
Lfunc_end133:
	.cfi_endproc

	.globl	__ZN8nanorand4rand5pcg645Pcg648new_seed17h648cc94a0fab016eE
	.p2align	4, 0x90
__ZN8nanorand4rand5pcg645Pcg648new_seed17h648cc94a0fab016eE:
Lfunc_begin134:
	.loc	43 37 0
	.cfi_startproc
	pushq	%rbp
	.cfi_def_cfa_offset 16
	.cfi_offset %rbp, -16
	movq	%rsp, %rbp
	.cfi_def_cfa_register %rbp
	subq	$16, %rsp
	movq	%rdi, %rax
	movq	%rsi, -16(%rbp)
	movq	%rdx, -8(%rbp)
Ltmp1099:
	.loc	43 38 3 prologue_end
	movq	%rdx, 8(%rdi)
	movq	%rsi, (%rdi)
	movq	$0, 24(%rdi)
	movq	$0, 16(%rdi)
	movq	$0, 40(%rdi)
	movq	$0, 32(%rdi)
	.loc	43 43 3
	addq	$16, %rsp
	popq	%rbp
	retq
Ltmp1100:
Lfunc_end134:
	.cfi_endproc

	.p2align	4, 0x90
__ZN8nanorand4rand5pcg645Pcg644step17h45ecc7c86819230eE:
Lfunc_begin135:
	.loc	43 45 0
	.cfi_startproc
	pushq	%rbp
	.cfi_def_cfa_offset 16
	.cfi_offset %rbp, -16
	movq	%rsp, %rbp
	.cfi_def_cfa_register %rbp
	subq	$80, %rsp
	movq	%rdi, -72(%rbp)
Ltmp1101:
	.loc	43 46 16 prologue_end
	movq	16(%rdi), %rax
	movq	24(%rdi), %rcx
	movq	%rcx, -80(%rbp)
	movq	%rcx, -24(%rbp)
	movq	%rax, -32(%rbp)
	movabsq	$2549297995355413924, %rcx
	movq	%rcx, -8(%rbp)
	movabsq	$4865540595714422341, %rsi
	movq	%rsi, -16(%rbp)
Ltmp1102:
	.loc	27 1226 13
	movq	%rax, %r8
	imulq	%rcx, %r8
	mulq	%rsi
	movq	%rdx, %rcx
	movq	-80(%rbp), %rdx
	addq	%r8, %rcx
	imulq	%rsi, %rdx
	addq	%rdx, %rcx
Ltmp1103:
	.loc	43 49 18
	movq	32(%rdi), %rsi
	movq	40(%rdi), %rdx
	movq	%rcx, -56(%rbp)
	movq	%rax, -64(%rbp)
	movq	%rdx, -40(%rbp)
	movq	%rsi, -48(%rbp)
Ltmp1104:
	.loc	27 1162 13
	addq	%rsi, %rax
	adcq	%rdx, %rcx
Ltmp1105:
	.loc	43 46 3
	movq	%rcx, 24(%rdi)
	movq	%rax, 16(%rdi)
	.loc	43 50 3
	addq	$80, %rsp
	popq	%rbp
	retq
Ltmp1106:
Lfunc_end135:
	.cfi_endproc

	.p2align	4, 0x90
__ZN8nanorand4rand5pcg645Pcg647rand12817he212fc8e08959b2bE:
Lfunc_begin136:
	.loc	43 52 0
	.cfi_startproc
	pushq	%rbp
	.cfi_def_cfa_offset 16
	.cfi_offset %rbp, -16
	movq	%rsp, %rbp
	.cfi_def_cfa_register %rbp
	subq	$352, %rsp
	movq	%rdi, -312(%rbp)
	movq	%rdi, -280(%rbp)
Ltmp1107:
	.loc	43 53 3 prologue_end
	movq	$0, 24(%rdi)
	movq	$0, 16(%rdi)
	.loc	43 54 14
	movq	(%rdi), %rax
	movq	%rax, -344(%rbp)
	movq	8(%rdi), %rcx
	movq	%rcx, -336(%rbp)
	movq	%rcx, -192(%rbp)
	movq	%rax, -200(%rbp)
	movl	$1, -180(%rbp)
Ltmp1108:
	.loc	27 1384 17
	movq	%rcx, -168(%rbp)
	movq	%rax, -176(%rbp)
	.loc	27 1384 36 is_stmt 0
	movl	$1, -156(%rbp)
	movl	$1, %edi
Ltmp1109:
	.loc	27 915 54 is_stmt 1
	callq	__ZN53_$LT$T$u20$as$u20$core..convert..TryInto$LT$U$GT$$GT$8try_into17hf72856341b4a6d18E
	movq	%rdx, -208(%rbp)
	movq	%rax, -216(%rbp)
Ltmp1110:
	.loc	12 647 16
	movq	-216(%rbp), %rax
	movq	-208(%rbp), %rcx
	movq	%rcx, -144(%rbp)
	movq	%rax, -152(%rbp)
Ltmp1111:
	.loc	12 647 22 is_stmt 0
	movq	%rcx, -224(%rbp)
	movq	%rax, -232(%rbp)
	movq	$1, -240(%rbp)
Ltmp1112:
	.loc	27 915 54 is_stmt 1
	movq	-224(%rbp), %rdx
	movq	-240(%rbp), %rdi
	movq	-232(%rbp), %rsi
	leaq	l___unnamed_61(%rip), %rcx
	movq	%rcx, -328(%rbp)
	callq	__ZN4core6option15Option$LT$T$GT$16unwrap_unchecked17hba63180389fc04aaE
	movq	-344(%rbp), %r8
	movq	-312(%rbp), %rdi
	movq	-336(%rbp), %rdx
	.loc	27 915 22 is_stmt 0
	movb	%al, %sil
	movb	%sil, %cl
	movq	%r8, %rax
	shlq	%cl, %rax
	movb	%sil, %cl
	shldq	%cl, %r8, %rdx
	movq	%rdx, %rcx
	xorl	%edx, %edx
	testb	$64, %sil
	cmovneq	%rax, %rcx
	movq	%rdx, -296(%rbp)
	cmovneq	%rdx, %rax
	movq	%rcx, -128(%rbp)
	movq	%rax, -136(%rbp)
	movq	-136(%rbp), %rax
	movq	-128(%rbp), %rcx
Ltmp1113:
	.loc	43 54 3 is_stmt 1
	orq	$1, %rax
	movq	%rcx, 40(%rdi)
	movq	%rax, 32(%rdi)
	.loc	43 55 3
	callq	__ZN8nanorand4rand5pcg645Pcg644step17h45ecc7c86819230eE
	movq	-312(%rbp), %rdi
	.loc	43 56 16
	movq	16(%rdi), %rax
	movq	24(%rdi), %rcx
	.loc	43 56 40 is_stmt 0
	movq	(%rdi), %rsi
	movq	8(%rdi), %rdx
	movq	%rcx, -264(%rbp)
	movq	%rax, -272(%rbp)
	movq	%rdx, -248(%rbp)
	movq	%rsi, -256(%rbp)
Ltmp1114:
	.loc	27 1162 13 is_stmt 1
	addq	%rsi, %rax
	adcq	%rdx, %rcx
Ltmp1115:
	.loc	43 56 3
	movq	%rcx, 24(%rdi)
	movq	%rax, 16(%rdi)
	.loc	43 57 3
	callq	__ZN8nanorand4rand5pcg645Pcg644step17h45ecc7c86819230eE
	movq	-312(%rbp), %rdi
	.loc	43 58 3
	callq	__ZN8nanorand4rand5pcg645Pcg644step17h45ecc7c86819230eE
	movq	-312(%rbp), %rdi
	.loc	43 59 3
	movq	16(%rdi), %rax
	movq	%rax, -304(%rbp)
	movq	24(%rdi), %rcx
	movq	%rcx, -320(%rbp)
	movq	%rcx, -72(%rbp)
	movq	%rax, -80(%rbp)
	movl	$64, -60(%rbp)
Ltmp1116:
	.loc	27 1417 17
	movq	%rcx, -48(%rbp)
	movq	%rax, -56(%rbp)
	.loc	27 1417 36 is_stmt 0
	movl	$64, -36(%rbp)
	movl	$64, %edi
Ltmp1117:
	.loc	27 963 54 is_stmt 1
	callq	__ZN53_$LT$T$u20$as$u20$core..convert..TryInto$LT$U$GT$$GT$8try_into17hf72856341b4a6d18E
	movq	-328(%rbp), %rcx
	movq	%rdx, -88(%rbp)
	movq	%rax, -96(%rbp)
Ltmp1118:
	.loc	12 647 16
	movq	-96(%rbp), %rax
	movq	-88(%rbp), %rdx
	movq	%rdx, -24(%rbp)
	movq	%rax, -32(%rbp)
Ltmp1119:
	.loc	12 647 22 is_stmt 0
	movq	%rdx, -104(%rbp)
	movq	%rax, -112(%rbp)
	movq	$1, -120(%rbp)
Ltmp1120:
	.loc	27 963 54 is_stmt 1
	movq	-104(%rbp), %rdx
	movq	-120(%rbp), %rdi
	movq	-112(%rbp), %rsi
	callq	__ZN4core6option15Option$LT$T$GT$16unwrap_unchecked17hba63180389fc04aaE
	movq	-320(%rbp), %r8
	movq	-312(%rbp), %rdi
	movq	%rax, %rcx
	movq	-304(%rbp), %rax
	movq	-296(%rbp), %rdx
	.loc	27 963 22 is_stmt 0
	movb	%cl, %sil
	movb	%sil, %cl
	movq	%r8, %r9
	shrq	%cl, %r9
	movq	%r9, -288(%rbp)
	movb	%sil, %cl
	shrdq	%cl, %r8, %rax
	movq	-288(%rbp), %rcx
	testb	$64, %sil
	cmovneq	%rcx, %rax
	cmovneq	%rdx, %rcx
	movq	%rcx, -8(%rbp)
	movq	%rax, -16(%rbp)
	movq	-16(%rbp), %rax
Ltmp1121:
	.loc	43 59 40 is_stmt 1
	movq	16(%rdi), %rcx
	.loc	43 59 3 is_stmt 0
	xorq	%rcx, %rax
	.loc	43 60 3 is_stmt 1
	addq	$352, %rsp
	popq	%rbp
	retq
Ltmp1122:
Lfunc_end136:
	.cfi_endproc

	.globl	__ZN71_$LT$nanorand..rand..pcg64..Pcg64$u20$as$u20$core..default..Default$GT$7default17h84b90bb23d082979E
	.p2align	4, 0x90
__ZN71_$LT$nanorand..rand..pcg64..Pcg64$u20$as$u20$core..default..Default$GT$7default17h84b90bb23d082979E:
Lfunc_begin137:
	.loc	43 66 0
	.cfi_startproc
	pushq	%rbp
	.cfi_def_cfa_offset 16
	.cfi_offset %rbp, -16
	movq	%rsp, %rbp
	.cfi_def_cfa_register %rbp
	subq	$64, %rsp
	movq	%rdi, -48(%rbp)
	movq	%rdi, -40(%rbp)
	leaq	-32(%rbp), %rdi
	movq	%rdi, -56(%rbp)
Ltmp1123:
	.loc	43 67 57 prologue_end
	callq	__ZN4core5array75_$LT$impl$u20$core..default..Default$u20$for$u20$$u5b$T$u3b$$u20$_$u5d$$GT$7default17hdab382c43a62fa1eE
	movq	-56(%rbp), %rdi
	movl	$16, %esi
Ltmp1124:
	.loc	43 68 3
	callq	__ZN8nanorand7entropy6system17hf7198e99e413bc05E
	.loc	43 70 30
	movq	-32(%rbp), %rax
	movq	-24(%rbp), %rcx
	movq	%rcx, -8(%rbp)
	movq	%rax, -16(%rbp)
	leaq	-16(%rbp), %rdi
	.loc	43 70 10 is_stmt 0
	callq	__ZN4core3num22_$LT$impl$u20$u128$GT$13from_ne_bytes17h425c519d28860c2fE
	movq	-48(%rbp), %rdi
	movq	%rax, %rcx
	movq	-40(%rbp), %rax
	.loc	43 69 3 is_stmt 1
	movq	%rdx, 8(%rdi)
	movq	%rcx, (%rdi)
	movq	$0, 24(%rdi)
	movq	$0, 16(%rdi)
	movq	$0, 40(%rdi)
	movq	$0, 32(%rdi)
Ltmp1125:
	.loc	43 74 3
	addq	$64, %rsp
	popq	%rbp
	retq
Ltmp1126:
Lfunc_end137:
	.cfi_endproc

	.globl	__ZN83_$LT$nanorand..rand..pcg64..Pcg64$u20$as$u20$nanorand..rand..Rng$LT$8_usize$GT$$GT$4rand17h4db865b03be00481E
	.p2align	4, 0x90
__ZN83_$LT$nanorand..rand..pcg64..Pcg64$u20$as$u20$nanorand..rand..Rng$LT$8_usize$GT$$GT$4rand17h4db865b03be00481E:
Lfunc_begin138:
	.loc	43 78 0
	.cfi_startproc
	pushq	%rbp
	.cfi_def_cfa_offset 16
	.cfi_offset %rbp, -16
	movq	%rsp, %rbp
	.cfi_def_cfa_register %rbp
	subq	$192, %rsp
	movq	%rdi, -176(%rbp)
	movq	%rdi, -144(%rbp)
Ltmp1127:
	.loc	43 79 13 prologue_end
	callq	__ZN8nanorand4rand5pcg645Pcg647rand12817he212fc8e08959b2bE
	movq	-176(%rbp), %rdi
	movq	%rax, -192(%rbp)
	movq	%rax, %rcx
	movq	%rcx, -184(%rbp)
	movq	%rax, -136(%rbp)
Ltmp1128:
	.loc	43 80 15
	movq	16(%rdi), %rcx
	movq	%rcx, -160(%rbp)
	movq	24(%rdi), %rcx
	movq	%rcx, -168(%rbp)
	movq	%rax, -80(%rbp)
	movq	$0, -72(%rbp)
	movl	$64, -60(%rbp)
Ltmp1129:
	.loc	27 1417 17
	movq	%rax, -56(%rbp)
	movq	$0, -48(%rbp)
	.loc	27 1417 36 is_stmt 0
	movl	$64, -36(%rbp)
	movl	$64, %edi
Ltmp1130:
	.loc	27 963 54 is_stmt 1
	callq	__ZN53_$LT$T$u20$as$u20$core..convert..TryInto$LT$U$GT$$GT$8try_into17hf72856341b4a6d18E
	movq	%rdx, -88(%rbp)
	movq	%rax, -96(%rbp)
Ltmp1131:
	.loc	12 647 16
	movq	-96(%rbp), %rax
	movq	-88(%rbp), %rcx
	movq	%rcx, -24(%rbp)
	movq	%rax, -32(%rbp)
Ltmp1132:
	.loc	12 647 22 is_stmt 0
	movq	%rcx, -104(%rbp)
	movq	%rax, -112(%rbp)
	movq	$1, -120(%rbp)
Ltmp1133:
	.loc	27 963 54 is_stmt 1
	movq	-104(%rbp), %rdx
	movq	-120(%rbp), %rdi
	movq	-112(%rbp), %rsi
	leaq	l___unnamed_61(%rip), %rcx
	callq	__ZN4core6option15Option$LT$T$GT$16unwrap_unchecked17hba63180389fc04aaE
	movq	-192(%rbp), %rsi
	movq	-184(%rbp), %rdi
	movq	%rax, %rcx
	movq	-176(%rbp), %rax
	movq	-168(%rbp), %rdx
	.loc	27 963 22 is_stmt 0
	movb	%cl, %r9b
	xorl	%ecx, %ecx
	movl	%ecx, %r8d
	movb	%r9b, %cl
	shrdq	%cl, %r8, %rsi
	movq	-160(%rbp), %rcx
	testb	$64, %r9b
	cmovneq	%r8, %rsi
	movq	%rsi, -16(%rbp)
	movq	$0, -8(%rbp)
	movq	-16(%rbp), %r8
	movq	-8(%rbp), %rsi
Ltmp1134:
	.loc	43 80 3 is_stmt 1
	xorq	%r8, %rcx
	xorq	%rsi, %rdx
	movq	%rdx, 8(%rax)
	movq	%rcx, (%rax)
	.loc	43 81 3
	callq	__ZN4core3num21_$LT$impl$u20$u64$GT$11to_ne_bytes17hc204b7d90af26f4aE
	movq	%rax, -128(%rbp)
	movq	-128(%rbp), %rax
	movq	%rax, -152(%rbp)
Ltmp1135:
	.loc	43 82 3
	movq	-152(%rbp), %rax
	addq	$192, %rsp
	popq	%rbp
	retq
Ltmp1136:
Lfunc_end138:
	.cfi_endproc

	.globl	__ZN102_$LT$nanorand..rand..pcg64..Pcg64$u20$as$u20$nanorand..rand..SeedableRng$LT$16_usize$C$8_usize$GT$$GT$6reseed17h415692def8b80148E
	.p2align	4, 0x90
__ZN102_$LT$nanorand..rand..pcg64..Pcg64$u20$as$u20$nanorand..rand..SeedableRng$LT$16_usize$C$8_usize$GT$$GT$6reseed17h415692def8b80148E:
Lfunc_begin139:
	.loc	43 86 0
	.cfi_startproc
	pushq	%rbp
	.cfi_def_cfa_offset 16
	.cfi_offset %rbp, -16
	movq	%rsp, %rbp
	.cfi_def_cfa_register %rbp
	subq	$32, %rsp
	movq	%rdi, -32(%rbp)
Ltmp1137:
	movq	%rdi, -8(%rbp)
Ltmp1138:
	.loc	43 87 35 prologue_end
	movq	(%rsi), %rax
	movq	8(%rsi), %rcx
	movq	%rcx, -16(%rbp)
	movq	%rax, -24(%rbp)
	leaq	-24(%rbp), %rdi
	.loc	43 87 15 is_stmt 0
	callq	__ZN4core3num22_$LT$impl$u20$u128$GT$13from_ne_bytes17h425c519d28860c2fE
Ltmp1139:
	.loc	43 0 15
	movq	-32(%rbp), %rdi
	.loc	43 87 3
	movq	%rdx, 8(%rdi)
	movq	%rax, (%rdi)
	.loc	43 88 3 is_stmt 1
	addq	$32, %rsp
	popq	%rbp
	retq
Ltmp1140:
Lfunc_end139:
	.cfi_endproc

	.globl	__ZN67_$LT$nanorand..rand..pcg64..Pcg64$u20$as$u20$core..clone..Clone$GT$5clone17h1818d2eb72272c95E
	.p2align	4, 0x90
__ZN67_$LT$nanorand..rand..pcg64..Pcg64$u20$as$u20$core..clone..Clone$GT$5clone17h1818d2eb72272c95E:
Lfunc_begin140:
	.loc	43 92 0
	.cfi_startproc
	pushq	%rbp
	.cfi_def_cfa_offset 16
	.cfi_offset %rbp, -16
	movq	%rsp, %rbp
	.cfi_def_cfa_register %rbp
	pushq	%rax
	movq	%rsi, %r8
	movq	%rdi, %rax
	movq	%r8, -8(%rbp)
Ltmp1141:
	.loc	43 94 10 prologue_end
	movq	(%r8), %r9
	movq	8(%r8), %r10
	.loc	43 95 9
	movq	32(%r8), %rcx
	movq	40(%r8), %rdx
	.loc	43 96 11
	movq	16(%r8), %rsi
	movq	24(%r8), %r8
	.loc	43 93 3
	movq	%r10, 8(%rdi)
	movq	%r9, (%rdi)
	movq	%r8, 24(%rdi)
	movq	%rsi, 16(%rdi)
	movq	%rdx, 40(%rdi)
	movq	%rcx, 32(%rdi)
	.loc	43 98 3
	addq	$8, %rsp
	popq	%rbp
	retq
Ltmp1142:
Lfunc_end140:
	.cfi_endproc

	.globl	__ZN67_$LT$nanorand..rand..pcg64..Pcg64$u20$as$u20$core..fmt..Display$GT$3fmt17he2a6af9b5fdd99d1E
	.p2align	4, 0x90
__ZN67_$LT$nanorand..rand..pcg64..Pcg64$u20$as$u20$core..fmt..Display$GT$3fmt17he2a6af9b5fdd99d1E:
Lfunc_begin141:
	.loc	43 102 0
	.cfi_startproc
	pushq	%rbp
	.cfi_def_cfa_offset 16
	.cfi_offset %rbp, -16
	movq	%rsp, %rbp
	.cfi_def_cfa_register %rbp
	subq	$96, %rsp
	movq	%rsi, -88(%rbp)
	movq	%rdi, -80(%rbp)
	movq	%rsi, -8(%rbp)
Ltmp1143:
	.loc	43 103 3 prologue_end
	leaq	-80(%rbp), %rdi
	callq	__ZN4core3fmt10ArgumentV111new_pointer17hcd06893d68196927E
	movq	%rax, -24(%rbp)
	movq	%rdx, -16(%rbp)
	leaq	-72(%rbp), %rdi
	leaq	l___unnamed_66(%rip), %rsi
	movl	$2, %edx
	leaq	-24(%rbp), %rcx
	movl	$1, %r8d
	callq	__ZN4core3fmt9Arguments6new_v117h102b97225bd45303E
	movq	-88(%rbp), %rdi
	leaq	-72(%rbp), %rsi
	callq	__ZN4core3fmt9Formatter9write_fmt17h9bb7721c944aee26E
	.loc	43 104 3
	andb	$1, %al
	movzbl	%al, %eax
	addq	$96, %rsp
	popq	%rbp
	retq
Ltmp1144:
Lfunc_end141:
	.cfi_endproc

	.globl	__ZN65_$LT$nanorand..rand..pcg64..Pcg64$u20$as$u20$core..fmt..Debug$GT$3fmt17hab457e34a227f1e1E
	.p2align	4, 0x90
__ZN65_$LT$nanorand..rand..pcg64..Pcg64$u20$as$u20$core..fmt..Debug$GT$3fmt17hab457e34a227f1e1E:
Lfunc_begin142:
	.loc	43 108 0
	.cfi_startproc
	pushq	%rbp
	.cfi_def_cfa_offset 16
	.cfi_offset %rbp, -16
	movq	%rsp, %rbp
	.cfi_def_cfa_register %rbp
	subq	$256, %rsp
	movq	%rdi, -240(%rbp)
	movq	%rdi, -16(%rbp)
	movq	%rsi, -8(%rbp)
Ltmp1145:
	.loc	43 109 3 prologue_end
	leaq	-224(%rbp), %rdi
	leaq	l___unnamed_67(%rip), %rdx
	movl	$5, %ecx
	callq	__ZN4core3fmt9Formatter12debug_struct17hb330e0caa577ed3dE
	movq	-240(%rbp), %rdi
	.loc	43 110 20
	callq	__ZN4core3fmt10ArgumentV113new_lower_hex17h812b3e689ecaa165E
	movq	%rax, -160(%rbp)
	movq	%rdx, -152(%rbp)
	leaq	-208(%rbp), %rdi
	leaq	l___unnamed_64(%rip), %rsi
	movl	$1, %r8d
	leaq	-160(%rbp), %rcx
	movq	%r8, %rdx
	callq	__ZN4core3fmt9Arguments6new_v117h102b97225bd45303E
	.loc	43 109 3
	leaq	-224(%rbp), %rdi
	leaq	L___unnamed_65(%rip), %rsi
	movl	$4, %edx
	leaq	-208(%rbp), %rcx
	leaq	l___unnamed_5(%rip), %r8
	callq	__ZN4core3fmt8builders11DebugStruct5field17h2147d02d385887f6E
	movq	-240(%rbp), %rdi
	movq	%rax, -248(%rbp)
	.loc	43 111 21
	addq	$16, %rdi
	callq	__ZN4core3fmt10ArgumentV113new_lower_hex17h812b3e689ecaa165E
	movq	%rax, -96(%rbp)
	movq	%rdx, -88(%rbp)
	leaq	-144(%rbp), %rdi
	leaq	l___unnamed_64(%rip), %rsi
	movl	$1, %r8d
	leaq	-96(%rbp), %rcx
	movq	%r8, %rdx
	callq	__ZN4core3fmt9Arguments6new_v117h102b97225bd45303E
	movq	-248(%rbp), %rdi
	.loc	43 109 3
	leaq	l___unnamed_68(%rip), %rsi
	movl	$5, %edx
	leaq	-144(%rbp), %rcx
	leaq	l___unnamed_5(%rip), %r8
	callq	__ZN4core3fmt8builders11DebugStruct5field17h2147d02d385887f6E
	movq	-240(%rbp), %rdi
	movq	%rax, -232(%rbp)
	.loc	43 112 19
	addq	$32, %rdi
	callq	__ZN4core3fmt10ArgumentV113new_lower_hex17h812b3e689ecaa165E
	movq	%rax, -32(%rbp)
	movq	%rdx, -24(%rbp)
	leaq	-80(%rbp), %rdi
	leaq	l___unnamed_64(%rip), %rsi
	movl	$1, %r8d
	leaq	-32(%rbp), %rcx
	movq	%r8, %rdx
	callq	__ZN4core3fmt9Arguments6new_v117h102b97225bd45303E
	movq	-232(%rbp), %rdi
	.loc	43 109 3
	leaq	l___unnamed_69(%rip), %rsi
	movl	$3, %edx
	leaq	-80(%rbp), %rcx
	leaq	l___unnamed_5(%rip), %r8
	callq	__ZN4core3fmt8builders11DebugStruct5field17h2147d02d385887f6E
	movq	%rax, %rdi
	callq	__ZN4core3fmt8builders11DebugStruct6finish17h081d244274ea39b1E
	.loc	43 114 3
	andb	$1, %al
	movzbl	%al, %eax
	addq	$256, %rsp
	popq	%rbp
	retq
Ltmp1146:
Lfunc_end142:
	.cfi_endproc

	.globl	__ZN79_$LT$nanorand..tls..TlsWyRand$u20$as$u20$nanorand..rand..Rng$LT$8_usize$GT$$GT$4rand17hf681b472810d7d0fE
	.p2align	4, 0x90
__ZN79_$LT$nanorand..tls..TlsWyRand$u20$as$u20$nanorand..rand..Rng$LT$8_usize$GT$$GT$4rand17hf681b472810d7d0fE:
Lfunc_begin143:
	.file	44 "/Users/natalie/.cargo/registry/src/github.com-1ecc6299db9ec823/nanorand-0.7.0" "src/tls.rs"
	.loc	44 13 0
	.cfi_startproc
	.cfi_personality 155, _rust_eh_personality
	.cfi_lsda 16, Lexception27
	pushq	%rbp
	.cfi_def_cfa_offset 16
	.cfi_offset %rbp, -16
	movq	%rsp, %rbp
	.cfi_def_cfa_register %rbp
	subq	$112, %rsp
	movq	%rdi, -64(%rbp)
	movq	%rdi, -32(%rbp)
Ltmp1155:
	.loc	35 1554 10 prologue_end
	movq	%rdi, -24(%rbp)
Ltmp1156:
	.loc	35 350 18
	movq	%rdi, -16(%rbp)
Ltmp1157:
	.loc	11 376 20
	movq	(%rdi), %rdi
	movq	%rdi, -8(%rbp)
Ltmp1158:
	.loc	35 1554 9
	addq	$16, %rdi
Ltmp1159:
	.loc	44 14 3
	leaq	l___unnamed_70(%rip), %rsi
	callq	__ZN4core4cell16RefCell$LT$T$GT$10borrow_mut17h0f81e65adfcce34fE
	movq	%rdx, -72(%rbp)
	movq	%rax, -80(%rbp)
Ltmp1147:
	leaq	-80(%rbp), %rdi
	callq	__ZN74_$LT$core..cell..RefMut$LT$T$GT$$u20$as$u20$core..ops..deref..DerefMut$GT$9deref_mut17h53db4e2cbd07324dE
Ltmp1148:
	movq	%rax, -96(%rbp)
	jmp	LBB143_3
LBB143_1:
Ltmp1152:
	.loc	44 0 3 is_stmt 0
	leaq	-80(%rbp), %rdi
	.loc	44 15 2 is_stmt 1
	callq	__ZN4core3ptr77drop_in_place$LT$core..cell..RefMut$LT$nanorand..rand..wyrand..WyRand$GT$$GT$17h7e0158706e985079E
Ltmp1153:
	jmp	LBB143_6
LBB143_2:
Ltmp1151:
	.loc	44 0 2 is_stmt 0
	movq	%rax, %rcx
	movl	%edx, %eax
	movq	%rcx, -56(%rbp)
	movl	%eax, -48(%rbp)
	jmp	LBB143_1
LBB143_3:
Ltmp1149:
	movq	-96(%rbp), %rdi
	.loc	44 14 3 is_stmt 1
	callq	__ZN85_$LT$nanorand..rand..wyrand..WyRand$u20$as$u20$nanorand..rand..Rng$LT$8_usize$GT$$GT$4rand17h2a2a553b0cf02b50E
Ltmp1150:
	movq	%rax, -104(%rbp)
	jmp	LBB143_4
LBB143_4:
	.loc	44 0 3 is_stmt 0
	movq	-104(%rbp), %rax
	.loc	44 14 3
	movq	%rax, -40(%rbp)
	movq	-40(%rbp), %rax
	movq	%rax, -88(%rbp)
	.loc	44 15 2 is_stmt 1
	leaq	-80(%rbp), %rdi
	callq	__ZN4core3ptr77drop_in_place$LT$core..cell..RefMut$LT$nanorand..rand..wyrand..WyRand$GT$$GT$17h7e0158706e985079E
	.loc	44 15 3 is_stmt 0
	movq	-88(%rbp), %rax
	addq	$112, %rsp
	popq	%rbp
	retq
LBB143_5:
Ltmp1154:
	.loc	44 13 2 is_stmt 1
	callq	__ZN4core9panicking19panic_cannot_unwind17h1fbca7e1d7f56ae1E
LBB143_6:
	movq	-56(%rbp), %rdi
	callq	__Unwind_Resume
Ltmp1160:
Lfunc_end143:
	.cfi_endproc
	.section	__TEXT,__gcc_except_tab
	.p2align	2
GCC_except_table143:
Lexception27:
	.byte	255
	.byte	255
	.byte	1
	.uleb128 Lcst_end27-Lcst_begin27
Lcst_begin27:
	.uleb128 Lfunc_begin143-Lfunc_begin143
	.uleb128 Ltmp1147-Lfunc_begin143
	.byte	0
	.byte	0
	.uleb128 Ltmp1147-Lfunc_begin143
	.uleb128 Ltmp1148-Ltmp1147
	.uleb128 Ltmp1151-Lfunc_begin143
	.byte	0
	.uleb128 Ltmp1152-Lfunc_begin143
	.uleb128 Ltmp1153-Ltmp1152
	.uleb128 Ltmp1154-Lfunc_begin143
	.byte	0
	.uleb128 Ltmp1149-Lfunc_begin143
	.uleb128 Ltmp1150-Ltmp1149
	.uleb128 Ltmp1151-Lfunc_begin143
	.byte	0
	.uleb128 Ltmp1150-Lfunc_begin143
	.uleb128 Lfunc_end143-Ltmp1150
	.byte	0
	.byte	0
Lcst_end27:
	.p2align	2

	.section	__TEXT,__text,regular,pure_instructions
	.globl	__ZN97_$LT$nanorand..tls..TlsWyRand$u20$as$u20$nanorand..rand..SeedableRng$LT$8_usize$C$8_usize$GT$$GT$6reseed17ha238d6a92ec89fa1E
	.p2align	4, 0x90
__ZN97_$LT$nanorand..tls..TlsWyRand$u20$as$u20$nanorand..rand..SeedableRng$LT$8_usize$C$8_usize$GT$$GT$6reseed17ha238d6a92ec89fa1E:
Lfunc_begin144:
	.loc	44 19 0
	.cfi_startproc
	.cfi_personality 155, _rust_eh_personality
	.cfi_lsda 16, Lexception28
	pushq	%rbp
	.cfi_def_cfa_offset 16
	.cfi_offset %rbp, -16
	movq	%rsp, %rbp
	.cfi_def_cfa_register %rbp
	subq	$112, %rsp
	movq	%rsi, -88(%rbp)
	movq	-88(%rbp), %rax
	movq	%rax, -96(%rbp)
	movq	%rdi, -56(%rbp)
	movq	%rdi, -32(%rbp)
Ltmp1169:
	.loc	35 1554 10 prologue_end
	movq	%rdi, -24(%rbp)
Ltmp1170:
	.loc	35 350 18
	movq	%rdi, -16(%rbp)
Ltmp1171:
	.loc	11 376 20
	movq	(%rdi), %rdi
	movq	%rdi, -8(%rbp)
Ltmp1172:
	.loc	35 1554 9
	addq	$16, %rdi
Ltmp1173:
	.loc	44 20 3
	leaq	l___unnamed_71(%rip), %rsi
	callq	__ZN4core4cell16RefCell$LT$T$GT$10borrow_mut17h0f81e65adfcce34fE
	movq	%rdx, -72(%rbp)
	movq	%rax, -80(%rbp)
Ltmp1161:
	leaq	-80(%rbp), %rdi
	callq	__ZN74_$LT$core..cell..RefMut$LT$T$GT$$u20$as$u20$core..ops..deref..DerefMut$GT$9deref_mut17h53db4e2cbd07324dE
Ltmp1162:
	movq	%rax, -104(%rbp)
	jmp	LBB144_3
LBB144_1:
Ltmp1166:
	.loc	44 0 3 is_stmt 0
	leaq	-80(%rbp), %rdi
	.loc	44 20 35
	callq	__ZN4core3ptr77drop_in_place$LT$core..cell..RefMut$LT$nanorand..rand..wyrand..WyRand$GT$$GT$17h7e0158706e985079E
Ltmp1167:
	jmp	LBB144_6
LBB144_2:
Ltmp1165:
	.loc	44 0 35
	movq	%rax, %rcx
	movl	%edx, %eax
	movq	%rcx, -48(%rbp)
	movl	%eax, -40(%rbp)
	jmp	LBB144_1
LBB144_3:
	movq	-104(%rbp), %rdi
	.loc	44 20 30
	movq	-96(%rbp), %rax
	movq	%rax, -64(%rbp)
	.loc	44 20 3
	movq	-64(%rbp), %rsi
Ltmp1163:
	callq	__ZN103_$LT$nanorand..rand..wyrand..WyRand$u20$as$u20$nanorand..rand..SeedableRng$LT$8_usize$C$8_usize$GT$$GT$6reseed17hd07646a05b4cb927E
Ltmp1164:
	jmp	LBB144_4
LBB144_4:
	.loc	44 20 35
	leaq	-80(%rbp), %rdi
	callq	__ZN4core3ptr77drop_in_place$LT$core..cell..RefMut$LT$nanorand..rand..wyrand..WyRand$GT$$GT$17h7e0158706e985079E
	.loc	44 21 3 is_stmt 1
	addq	$112, %rsp
	popq	%rbp
	retq
LBB144_5:
Ltmp1168:
	.loc	44 19 2
	callq	__ZN4core9panicking19panic_cannot_unwind17h1fbca7e1d7f56ae1E
LBB144_6:
	movq	-48(%rbp), %rdi
	callq	__Unwind_Resume
Ltmp1174:
Lfunc_end144:
	.cfi_endproc
	.section	__TEXT,__gcc_except_tab
	.p2align	2
GCC_except_table144:
Lexception28:
	.byte	255
	.byte	255
	.byte	1
	.uleb128 Lcst_end28-Lcst_begin28
Lcst_begin28:
	.uleb128 Lfunc_begin144-Lfunc_begin144
	.uleb128 Ltmp1161-Lfunc_begin144
	.byte	0
	.byte	0
	.uleb128 Ltmp1161-Lfunc_begin144
	.uleb128 Ltmp1162-Ltmp1161
	.uleb128 Ltmp1165-Lfunc_begin144
	.byte	0
	.uleb128 Ltmp1166-Lfunc_begin144
	.uleb128 Ltmp1167-Ltmp1166
	.uleb128 Ltmp1168-Lfunc_begin144
	.byte	0
	.uleb128 Ltmp1163-Lfunc_begin144
	.uleb128 Ltmp1164-Ltmp1163
	.uleb128 Ltmp1165-Lfunc_begin144
	.byte	0
	.uleb128 Ltmp1164-Lfunc_begin144
	.uleb128 Lfunc_end144-Ltmp1164
	.byte	0
	.byte	0
Lcst_end28:
	.p2align	2

	.section	__TEXT,__text,regular,pure_instructions
	.globl	__ZN8nanorand3tls7tls_rng17h087d1eac17102094E
	.p2align	4, 0x90
__ZN8nanorand3tls7tls_rng17h087d1eac17102094E:
Lfunc_begin145:
	.loc	44 40 0
	.cfi_startproc
	pushq	%rbp
	.cfi_def_cfa_offset 16
	.cfi_offset %rbp, -16
	movq	%rsp, %rbp
	.cfi_def_cfa_register %rbp
Ltmp1175:
	.loc	44 41 2 prologue_end
	leaq	l___unnamed_72(%rip), %rdi
	callq	__ZN3std6thread5local17LocalKey$LT$T$GT$4with17h5ffa6f5fa22d2f3fE
	.loc	44 42 2
	popq	%rbp
	retq
Ltmp1176:
Lfunc_end145:
	.cfi_endproc

	.p2align	4, 0x90
__ZN8nanorand3tls7tls_rng28_$u7b$$u7b$closure$u7d$$u7d$17h3034b193321c51e3E:
Lfunc_begin146:
	.loc	44 41 0
	.cfi_startproc
	pushq	%rbp
	.cfi_def_cfa_offset 16
	.cfi_offset %rbp, -16
	movq	%rsp, %rbp
	.cfi_def_cfa_register %rbp
	subq	$32, %rsp
	movq	%rdi, -8(%rbp)
Ltmp1177:
	.loc	44 41 30 prologue_end
	callq	__ZN61_$LT$alloc..rc..Rc$LT$T$GT$$u20$as$u20$core..clone..Clone$GT$5clone17hf139940371d97506E
	.loc	44 41 20 is_stmt 0
	movq	%rax, -24(%rbp)
	.loc	44 41 42
	movq	-24(%rbp), %rax
	addq	$32, %rsp
	popq	%rbp
	retq
Ltmp1178:
Lfunc_end146:
	.cfi_endproc

	.p2align	4, 0x90
__ZN8nanorand3tls6WYRAND6__init17h907a9f220680fac2E:
Lfunc_begin147:
	.loc	1 294 0 is_stmt 1
	.cfi_startproc
	pushq	%rbp
	.cfi_def_cfa_offset 16
	.cfi_offset %rbp, -16
	movq	%rsp, %rbp
	.cfi_def_cfa_register %rbp
Ltmp1179:
	.loc	44 5 60 prologue_end
	callq	__ZN8nanorand4rand6wyrand6WyRand3new17hcf7748b783e38ef5E
	movq	%rax, %rdi
	.loc	44 5 47 is_stmt 0
	callq	__ZN4core4cell16RefCell$LT$T$GT$3new17h655db376d3e46ca6E
	movq	%rax, %rdi
	movq	%rdx, %rsi
	.loc	44 5 39
	callq	__ZN5alloc2rc11Rc$LT$T$GT$3new17h8a7314556b961899E
	.loc	1 294 40 is_stmt 1
	popq	%rbp
	retq
Ltmp1180:
Lfunc_end147:
	.cfi_endproc

	.p2align	4, 0x90
__ZN8nanorand3tls6WYRAND7__getit17h746f949a4b882152E:
Lfunc_begin148:
	.loc	1 319 0
	.cfi_startproc
	pushq	%rbp
	.cfi_def_cfa_offset 16
	.cfi_offset %rbp, -16
	movq	%rsp, %rbp
	.cfi_def_cfa_register %rbp
	subq	$16, %rsp
	movq	%rdi, -8(%rbp)
Ltmp1181:
	.loc	1 346 31 prologue_end
	movq	%rdi, -16(%rbp)
	.loc	1 346 21 is_stmt 0
	movq	-16(%rbp), %rsi
	movq	__ZN8nanorand3tls6WYRAND7__getit5__KEY17h6f8aaed21061794cE@TLVP(%rip), %rdi
	callq	*(%rdi)
	movq	%rax, %rdi
	callq	__ZN3std6thread5local4fast12Key$LT$T$GT$3get17h6df2c44259e1842cE
	.loc	1 357 14 is_stmt 1
	addq	$16, %rsp
	popq	%rbp
	retq
Ltmp1182:
Lfunc_end148:
	.cfi_endproc

	.p2align	4, 0x90
__ZN8nanorand3tls6WYRAND7__getit28_$u7b$$u7b$closure$u7d$$u7d$17hbdb103e03bf9e2c9E:
Lfunc_begin149:
	.loc	1 346 0
	.cfi_startproc
	.cfi_personality 155, _rust_eh_personality
	.cfi_lsda 16, Lexception29
	pushq	%rbp
	.cfi_def_cfa_offset 16
	.cfi_offset %rbp, -16
	movq	%rsp, %rbp
	.cfi_def_cfa_register %rbp
	subq	$192, %rsp
	movq	%rdi, -168(%rbp)
Ltmp1195:
	.loc	1 347 32 prologue_end
	movq	-168(%rbp), %rdx
	movl	$1, %eax
	xorl	%ecx, %ecx
	cmpq	$0, %rdx
	cmoveq	%rcx, %rax
	cmpq	$1, %rax
	jne	LBB149_2
	.loc	1 347 61 is_stmt 0
	movq	-168(%rbp), %rdi
	movq	%rdi, -32(%rbp)
Ltmp1196:
	.loc	1 348 74 is_stmt 1
	callq	__ZN4core6option15Option$LT$T$GT$4take17h1511681ea242e7f6E
	movq	%rax, -152(%rbp)
	.loc	1 348 36 is_stmt 0
	movq	-152(%rbp), %rdx
	movl	$1, %eax
	xorl	%ecx, %ecx
	cmpq	$0, %rdx
	cmoveq	%rcx, %rax
	cmpq	$1, %rax
	je	LBB149_4
	jmp	LBB149_5
Ltmp1197:
LBB149_2:
	.loc	1 354 25 is_stmt 1
	callq	__ZN8nanorand3tls6WYRAND6__init17h907a9f220680fac2E
	movq	%rax, -160(%rbp)
LBB149_3:
	.loc	1 355 22
	movq	-160(%rbp), %rax
	addq	$192, %rsp
	popq	%rbp
	retq
LBB149_4:
Ltmp1198:
	.loc	1 348 65
	movq	-152(%rbp), %rax
	movq	%rax, -8(%rbp)
	.loc	1 349 40
	movq	%rax, -160(%rbp)
Ltmp1199:
	.loc	1 355 22
	jmp	LBB149_3
LBB149_5:
Ltmp1183:
Ltmp1200:
	.loc	1 351 33
	leaq	l___unnamed_73(%rip), %rsi
	leaq	l___unnamed_15(%rip), %rcx
	xorl	%eax, %eax
	movl	%eax, %r8d
	leaq	-80(%rbp), %rdi
	movl	$1, %edx
	callq	__ZN4core3fmt9Arguments6new_v117h102b97225bd45303E
Ltmp1184:
	jmp	LBB149_8
LBB149_6:
Ltmp1192:
	.loc	1 0 33 is_stmt 0
	leaq	-152(%rbp), %rdi
	.loc	1 353 25 is_stmt 1
	callq	__ZN4core3ptr127drop_in_place$LT$core..option..Option$LT$alloc..rc..Rc$LT$core..cell..RefCell$LT$nanorand..rand..wyrand..WyRand$GT$$GT$$GT$$GT$17h772655e0b17eba80E
Ltmp1193:
	jmp	LBB149_13
LBB149_7:
Ltmp1191:
	.loc	1 0 25 is_stmt 0
	movq	%rax, %rcx
	movl	%edx, %eax
	movq	%rcx, -24(%rbp)
	movl	%eax, -16(%rbp)
	jmp	LBB149_6
LBB149_8:
Ltmp1185:
	leaq	-80(%rbp), %rdi
	.loc	1 351 33 is_stmt 1
	callq	__ZN4core3fmt10ArgumentV111new_display17h5b5776aa774e32eeE
Ltmp1186:
	movq	%rdx, -184(%rbp)
	movq	%rax, -176(%rbp)
	jmp	LBB149_9
LBB149_9:
	.loc	1 0 33 is_stmt 0
	movq	-184(%rbp), %rax
	movq	-176(%rbp), %rcx
	.loc	1 351 33
	movq	%rcx, -96(%rbp)
	movq	%rax, -88(%rbp)
Ltmp1187:
	leaq	l___unnamed_74(%rip), %rsi
	leaq	-144(%rbp), %rdi
	leaq	-96(%rbp), %rcx
	movl	$1, %r8d
	movq	%r8, %rdx
	callq	__ZN4core3fmt9Arguments6new_v117h102b97225bd45303E
Ltmp1188:
	jmp	LBB149_10
LBB149_10:
Ltmp1189:
	leaq	l___unnamed_75(%rip), %rsi
	leaq	-144(%rbp), %rdi
	callq	__ZN4core9panicking9panic_fmt17h9b5d807e24bcaaedE
Ltmp1190:
	jmp	LBB149_11
Ltmp1201:
LBB149_11:
	.loc	1 0 33
	ud2
LBB149_12:
Ltmp1194:
	.loc	1 346 31 is_stmt 1
	callq	__ZN4core9panicking19panic_cannot_unwind17h1fbca7e1d7f56ae1E
LBB149_13:
	movq	-24(%rbp), %rdi
	callq	__Unwind_Resume
Ltmp1202:
Lfunc_end149:
	.cfi_endproc
	.section	__TEXT,__gcc_except_tab
	.p2align	2
GCC_except_table149:
Lexception29:
	.byte	255
	.byte	255
	.byte	1
	.uleb128 Lcst_end29-Lcst_begin29
Lcst_begin29:
	.uleb128 Lfunc_begin149-Lfunc_begin149
	.uleb128 Ltmp1183-Lfunc_begin149
	.byte	0
	.byte	0
	.uleb128 Ltmp1183-Lfunc_begin149
	.uleb128 Ltmp1184-Ltmp1183
	.uleb128 Ltmp1191-Lfunc_begin149
	.byte	0
	.uleb128 Ltmp1192-Lfunc_begin149
	.uleb128 Ltmp1193-Ltmp1192
	.uleb128 Ltmp1194-Lfunc_begin149
	.byte	0
	.uleb128 Ltmp1185-Lfunc_begin149
	.uleb128 Ltmp1190-Ltmp1185
	.uleb128 Ltmp1191-Lfunc_begin149
	.byte	0
	.uleb128 Ltmp1190-Lfunc_begin149
	.uleb128 Lfunc_end149-Ltmp1190
	.byte	0
	.byte	0
Lcst_end29:
	.p2align	2

	.section	__TEXT,__text,regular,pure_instructions
	.p2align	4, 0x90
___rust_try:
Lfunc_begin150:
	.cfi_startproc
	.cfi_personality 155, _rust_eh_personality
	.cfi_lsda 16, Lexception30
	pushq	%rbp
	.cfi_def_cfa_offset 16
	.cfi_offset %rbp, -16
	movq	%rsp, %rbp
	.cfi_def_cfa_register %rbp
	subq	$32, %rsp
	movq	%rsi, -24(%rbp)
	movq	%rdi, %rax
	movq	-24(%rbp), %rdi
	movq	%rdi, -16(%rbp)
	movq	%rdx, -8(%rbp)
Ltmp1203:
	callq	*%rax
Ltmp1204:
	jmp	LBB150_1
LBB150_1:
	xorl	%eax, %eax
	addq	$32, %rsp
	popq	%rbp
	retq
LBB150_2:
Ltmp1205:
	movq	-16(%rbp), %rdi
	movq	%rax, %rsi
	movq	-8(%rbp), %rax
	callq	*%rax
	movl	$1, %eax
	addq	$32, %rsp
	popq	%rbp
	retq
Lfunc_end150:
	.cfi_endproc
	.section	__TEXT,__gcc_except_tab
	.p2align	2
GCC_except_table150:
Lexception30:
	.byte	255
	.byte	155
	.uleb128 Lttbase0-Lttbaseref0
Lttbaseref0:
	.byte	1
	.uleb128 Lcst_end30-Lcst_begin30
Lcst_begin30:
	.uleb128 Ltmp1203-Lfunc_begin150
	.uleb128 Ltmp1204-Ltmp1203
	.uleb128 Ltmp1205-Lfunc_begin150
	.byte	1
	.uleb128 Ltmp1204-Lfunc_begin150
	.uleb128 Lfunc_end150-Ltmp1204
	.byte	0
	.byte	0
Lcst_end30:
	.byte	1
	.byte	0
	.p2align	2
	.long	0
Lttbase0:
	.p2align	2

	.section	__TEXT,__const
l___unnamed_6:
	.byte	35

l___unnamed_76:
	.ascii	"/rustc/2c8cc343237b8f7d5a3c3703e3a87f2eb2c54a74/library/std/src/io/mod.rs"

	.section	__DATA,__const
	.p2align	3
l___unnamed_8:
	.quad	l___unnamed_76
	.asciz	"I\000\000\000\000\000\000\000\r\006\000\000!\000\000"

	.section	__TEXT,__const
l___unnamed_77:
	.ascii	"failed to write whole buffer"

	.section	__DATA,__const
	.p2align	3
l___unnamed_7:
	.quad	l___unnamed_77
	.ascii	"\034\000\000\000\000\000\000\000\027"
	.space	7

	.p2align	3
l___unnamed_1:
	.quad	__ZN4core3ptr92drop_in_place$LT$std..io..Write..write_fmt..Adapter$LT$std..sys..unix..stdio..Stderr$GT$$GT$17hde05be730f61b75eE
	.asciz	"\020\000\000\000\000\000\000\000\b\000\000\000\000\000\000"
